; Listing generated by Microsoft (R) Optimizing Compiler Version 19.29.30145.0 

	TITLE	D:\git\src\IBK\IBK_DRFN\#DRfn-CS\_Obj\ChartCommonAddIn\DaiCodeGroup.obj
	.686P
	.XMM
	include listing.inc
	.model	flat

INCLUDELIB MSVCRT
INCLUDELIB OLDNAMES

PUBLIC	?__empty_global_delete@@YAXPAX@Z		; __empty_global_delete
PUBLIC	?__empty_global_delete@@YAXPAXI@Z		; __empty_global_delete
PUBLIC	??1CObject@@UAE@XZ				; CObject::~CObject
PUBLIC	??3CObject@@SGXPAX@Z				; CObject::operator delete
PUBLIC	?Serialize@CObject@@UAEXAAVCArchive@@@Z		; CObject::Serialize
PUBLIC	?AssertValid@CObject@@UBEXXZ			; CObject::AssertValid
PUBLIC	?Dump@CObject@@UBEXAAVCDumpContext@@@Z		; CObject::Dump
PUBLIC	??_GCDrdsAdvisedInfo@@UAEPAXI@Z			; CDrdsAdvisedInfo::`scalar deleting destructor'
PUBLIC	??0CDaiCodeGroup@@QAE@PBD@Z			; CDaiCodeGroup::CDaiCodeGroup
PUBLIC	??1CDaiCodeGroup@@UAE@XZ			; CDaiCodeGroup::~CDaiCodeGroup
PUBLIC	??_G?$_CTypedPtrList@VCObList@@PAVCDrdsAdvisedInfo@@@@UAEPAXI@Z ; _CTypedPtrList<CObList,CDrdsAdvisedInfo *>::`scalar deleting destructor'
PUBLIC	??1?$CTypedPtrList@VCObList@@PAVCDrdsAdvisedInfo@@@@UAE@XZ ; CTypedPtrList<CObList,CDrdsAdvisedInfo *>::~CTypedPtrList<CObList,CDrdsAdvisedInfo *>
PUBLIC	??_G?$CTypedPtrList@VCObList@@PAVCDrdsAdvisedInfo@@@@UAEPAXI@Z ; CTypedPtrList<CObList,CDrdsAdvisedInfo *>::`scalar deleting destructor'
PUBLIC	?AddDrdsAdvisedInfo@CDaiCodeGroup@@QAEHPAUIPacket000000@@PBD@Z ; CDaiCodeGroup::AddDrdsAdvisedInfo
PUBLIC	?AddDrdsAdvisedInfo@CDaiCodeGroup@@QAEHPBDPAUIPacket000000@@0@Z ; CDaiCodeGroup::AddDrdsAdvisedInfo
PUBLIC	?RemoveAllDrdsAdvisedInfo@CDaiCodeGroup@@QAEXXZ	; CDaiCodeGroup::RemoveAllDrdsAdvisedInfo
PUBLIC	?FindDrdsAdvisedInfo@CDaiCodeGroup@@QAEPAU__POSITION@@PAUIPacket000000@@PBD@Z ; CDaiCodeGroup::FindDrdsAdvisedInfo
PUBLIC	?FindDrdsAdvisedInfo@CDaiCodeGroup@@QAEPAU__POSITION@@PBDPAUIPacket000000@@0@Z ; CDaiCodeGroup::FindDrdsAdvisedInfo
PUBLIC	??_GCDaiCodeGroup@@UAEPAXI@Z			; CDaiCodeGroup::`scalar deleting destructor'
PUBLIC	??_R0?AVCObject@@@8				; CObject `RTTI Type Descriptor'
PUBLIC	??_R3CObject@@8					; CObject::`RTTI Class Hierarchy Descriptor'
PUBLIC	??_R2CObject@@8					; CObject::`RTTI Base Class Array'
PUBLIC	??_R1A@?0A@EA@CObject@@8			; CObject::`RTTI Base Class Descriptor at (0,-1,0,64)'
PUBLIC	??_R1A@?0A@EA@CObList@@8			; CObList::`RTTI Base Class Descriptor at (0,-1,0,64)'
PUBLIC	??_R0?AVCObList@@@8				; CObList `RTTI Type Descriptor'
PUBLIC	??_R3CObList@@8					; CObList::`RTTI Class Hierarchy Descriptor'
PUBLIC	??_R2CObList@@8					; CObList::`RTTI Base Class Array'
PUBLIC	??_7CDrdsAdvisedInfo@@6B@			; CDrdsAdvisedInfo::`vftable'
PUBLIC	??_7?$_CTypedPtrList@VCObList@@PAVCDrdsAdvisedInfo@@@@6B@ ; _CTypedPtrList<CObList,CDrdsAdvisedInfo *>::`vftable'
PUBLIC	??_7?$CTypedPtrList@VCObList@@PAVCDrdsAdvisedInfo@@@@6B@ ; CTypedPtrList<CObList,CDrdsAdvisedInfo *>::`vftable'
PUBLIC	??_7CDaiCodeGroup@@6B@				; CDaiCodeGroup::`vftable'
PUBLIC	??_R4CDrdsAdvisedInfo@@6B@			; CDrdsAdvisedInfo::`RTTI Complete Object Locator'
PUBLIC	??_R0?AVCDrdsAdvisedInfo@@@8			; CDrdsAdvisedInfo `RTTI Type Descriptor'
PUBLIC	??_R3CDrdsAdvisedInfo@@8			; CDrdsAdvisedInfo::`RTTI Class Hierarchy Descriptor'
PUBLIC	??_R2CDrdsAdvisedInfo@@8			; CDrdsAdvisedInfo::`RTTI Base Class Array'
PUBLIC	??_R1A@?0A@EA@CDrdsAdvisedInfo@@8		; CDrdsAdvisedInfo::`RTTI Base Class Descriptor at (0,-1,0,64)'
PUBLIC	??_R4?$CTypedPtrList@VCObList@@PAVCDrdsAdvisedInfo@@@@6B@ ; CTypedPtrList<CObList,CDrdsAdvisedInfo *>::`RTTI Complete Object Locator'
PUBLIC	??_R0?AV?$CTypedPtrList@VCObList@@PAVCDrdsAdvisedInfo@@@@@8 ; CTypedPtrList<CObList,CDrdsAdvisedInfo *> `RTTI Type Descriptor'
PUBLIC	??_R3?$CTypedPtrList@VCObList@@PAVCDrdsAdvisedInfo@@@@8 ; CTypedPtrList<CObList,CDrdsAdvisedInfo *>::`RTTI Class Hierarchy Descriptor'
PUBLIC	??_R2?$CTypedPtrList@VCObList@@PAVCDrdsAdvisedInfo@@@@8 ; CTypedPtrList<CObList,CDrdsAdvisedInfo *>::`RTTI Base Class Array'
PUBLIC	??_R1A@?0A@EA@?$CTypedPtrList@VCObList@@PAVCDrdsAdvisedInfo@@@@8 ; CTypedPtrList<CObList,CDrdsAdvisedInfo *>::`RTTI Base Class Descriptor at (0,-1,0,64)'
PUBLIC	??_R1A@?0A@EA@?$_CTypedPtrList@VCObList@@PAVCDrdsAdvisedInfo@@@@8 ; _CTypedPtrList<CObList,CDrdsAdvisedInfo *>::`RTTI Base Class Descriptor at (0,-1,0,64)'
PUBLIC	??_R0?AV?$_CTypedPtrList@VCObList@@PAVCDrdsAdvisedInfo@@@@@8 ; _CTypedPtrList<CObList,CDrdsAdvisedInfo *> `RTTI Type Descriptor'
PUBLIC	??_R3?$_CTypedPtrList@VCObList@@PAVCDrdsAdvisedInfo@@@@8 ; _CTypedPtrList<CObList,CDrdsAdvisedInfo *>::`RTTI Class Hierarchy Descriptor'
PUBLIC	??_R2?$_CTypedPtrList@VCObList@@PAVCDrdsAdvisedInfo@@@@8 ; _CTypedPtrList<CObList,CDrdsAdvisedInfo *>::`RTTI Base Class Array'
PUBLIC	??_R4CDaiCodeGroup@@6B@				; CDaiCodeGroup::`RTTI Complete Object Locator'
PUBLIC	??_R0?AVCDaiCodeGroup@@@8			; CDaiCodeGroup `RTTI Type Descriptor'
PUBLIC	??_R3CDaiCodeGroup@@8				; CDaiCodeGroup::`RTTI Class Hierarchy Descriptor'
PUBLIC	??_R2CDaiCodeGroup@@8				; CDaiCodeGroup::`RTTI Base Class Array'
PUBLIC	??_R1A@?0A@EA@CDaiCodeGroup@@8			; CDaiCodeGroup::`RTTI Base Class Descriptor at (0,-1,0,64)'
PUBLIC	??_R4?$_CTypedPtrList@VCObList@@PAVCDrdsAdvisedInfo@@@@6B@ ; _CTypedPtrList<CObList,CDrdsAdvisedInfo *>::`RTTI Complete Object Locator'
EXTRN	??2@YAPAXI@Z:PROC				; operator new
EXTRN	??3@YAXPAX@Z:PROC				; operator delete
EXTRN	?__global_delete@@YAXPAXI@Z:PROC		; __global_delete
EXTRN	___std_terminate:PROC
EXTRN	__imp__strdup:PROC
EXTRN	__imp__lstrcmpA@8:PROC
EXTRN	__imp__free:PROC
EXTRN	?AfxThrowInvalidArgException@@YGXXZ:PROC	; AfxThrowInvalidArgException
EXTRN	?GetRuntimeClass@CObject@@UBEPAUCRuntimeClass@@XZ:PROC ; CObject::GetRuntimeClass
EXTRN	__imp_??0?$CStringT@DV?$StrTraitMFC_DLL@DV?$ChTraitsCRT@D@ATL@@@@@ATL@@QAE@XZ:PROC
EXTRN	__imp_??1?$CStringT@DV?$StrTraitMFC_DLL@DV?$ChTraitsCRT@D@ATL@@@@@ATL@@QAE@XZ:PROC
EXTRN	__imp_??4?$CStringT@DV?$StrTraitMFC_DLL@DV?$ChTraitsCRT@D@ATL@@@@@ATL@@QAEAAV01@PBD@Z:PROC
EXTRN	__imp_?Compare@?$CStringT@DV?$StrTraitMFC_DLL@DV?$ChTraitsCRT@D@ATL@@@@@ATL@@QBEHPBD@Z:PROC
EXTRN	?GetRuntimeClass@CObList@@UBEPAUCRuntimeClass@@XZ:PROC ; CObList::GetRuntimeClass
EXTRN	??0CObList@@QAE@H@Z:PROC			; CObList::CObList
EXTRN	?RemoveHead@CObList@@QAEPAVCObject@@XZ:PROC	; CObList::RemoveHead
EXTRN	?AddTail@CObList@@QAEPAU__POSITION@@PAVCObject@@@Z:PROC ; CObList::AddTail
EXTRN	??1CObList@@UAE@XZ:PROC				; CObList::~CObList
EXTRN	?Serialize@CObList@@UAEXAAVCArchive@@@Z:PROC	; CObList::Serialize
EXTRN	??_ECDrdsAdvisedInfo@@UAEPAXI@Z:PROC		; CDrdsAdvisedInfo::`vector deleting destructor'
EXTRN	??_E?$_CTypedPtrList@VCObList@@PAVCDrdsAdvisedInfo@@@@UAEPAXI@Z:PROC ; _CTypedPtrList<CObList,CDrdsAdvisedInfo *>::`vector deleting destructor'
EXTRN	??_E?$CTypedPtrList@VCObList@@PAVCDrdsAdvisedInfo@@@@UAEPAXI@Z:PROC ; CTypedPtrList<CObList,CDrdsAdvisedInfo *>::`vector deleting destructor'
EXTRN	??_ECDaiCodeGroup@@UAEPAXI@Z:PROC		; CDaiCodeGroup::`vector deleting destructor'
EXTRN	@__security_check_cookie@4:PROC
EXTRN	___CxxFrameHandler3:PROC
EXTRN	??_7type_info@@6B@:QWORD			; type_info::`vftable'
EXTRN	___security_cookie:DWORD
;	COMDAT ??_R4?$_CTypedPtrList@VCObList@@PAVCDrdsAdvisedInfo@@@@6B@
rdata$r	SEGMENT
??_R4?$_CTypedPtrList@VCObList@@PAVCDrdsAdvisedInfo@@@@6B@ DD 00H ; _CTypedPtrList<CObList,CDrdsAdvisedInfo *>::`RTTI Complete Object Locator'
	DD	00H
	DD	00H
	DD	FLAT:??_R0?AV?$_CTypedPtrList@VCObList@@PAVCDrdsAdvisedInfo@@@@@8
	DD	FLAT:??_R3?$_CTypedPtrList@VCObList@@PAVCDrdsAdvisedInfo@@@@8
rdata$r	ENDS
;	COMDAT ??_R1A@?0A@EA@CDaiCodeGroup@@8
rdata$r	SEGMENT
??_R1A@?0A@EA@CDaiCodeGroup@@8 DD FLAT:??_R0?AVCDaiCodeGroup@@@8 ; CDaiCodeGroup::`RTTI Base Class Descriptor at (0,-1,0,64)'
	DD	01H
	DD	00H
	DD	0ffffffffH
	DD	00H
	DD	040H
	DD	FLAT:??_R3CDaiCodeGroup@@8
rdata$r	ENDS
;	COMDAT ??_R2CDaiCodeGroup@@8
rdata$r	SEGMENT
??_R2CDaiCodeGroup@@8 DD FLAT:??_R1A@?0A@EA@CDaiCodeGroup@@8 ; CDaiCodeGroup::`RTTI Base Class Array'
	DD	FLAT:??_R1A@?0A@EA@CObject@@8
rdata$r	ENDS
;	COMDAT ??_R3CDaiCodeGroup@@8
rdata$r	SEGMENT
??_R3CDaiCodeGroup@@8 DD 00H				; CDaiCodeGroup::`RTTI Class Hierarchy Descriptor'
	DD	00H
	DD	02H
	DD	FLAT:??_R2CDaiCodeGroup@@8
rdata$r	ENDS
;	COMDAT ??_R0?AVCDaiCodeGroup@@@8
data$rs	SEGMENT
??_R0?AVCDaiCodeGroup@@@8 DD FLAT:??_7type_info@@6B@	; CDaiCodeGroup `RTTI Type Descriptor'
	DD	00H
	DB	'.?AVCDaiCodeGroup@@', 00H
data$rs	ENDS
;	COMDAT ??_R4CDaiCodeGroup@@6B@
rdata$r	SEGMENT
??_R4CDaiCodeGroup@@6B@ DD 00H				; CDaiCodeGroup::`RTTI Complete Object Locator'
	DD	00H
	DD	00H
	DD	FLAT:??_R0?AVCDaiCodeGroup@@@8
	DD	FLAT:??_R3CDaiCodeGroup@@8
rdata$r	ENDS
;	COMDAT ??_R2?$_CTypedPtrList@VCObList@@PAVCDrdsAdvisedInfo@@@@8
rdata$r	SEGMENT
??_R2?$_CTypedPtrList@VCObList@@PAVCDrdsAdvisedInfo@@@@8 DD FLAT:??_R1A@?0A@EA@?$_CTypedPtrList@VCObList@@PAVCDrdsAdvisedInfo@@@@8 ; _CTypedPtrList<CObList,CDrdsAdvisedInfo *>::`RTTI Base Class Array'
	DD	FLAT:??_R1A@?0A@EA@CObList@@8
	DD	FLAT:??_R1A@?0A@EA@CObject@@8
rdata$r	ENDS
;	COMDAT ??_R3?$_CTypedPtrList@VCObList@@PAVCDrdsAdvisedInfo@@@@8
rdata$r	SEGMENT
??_R3?$_CTypedPtrList@VCObList@@PAVCDrdsAdvisedInfo@@@@8 DD 00H ; _CTypedPtrList<CObList,CDrdsAdvisedInfo *>::`RTTI Class Hierarchy Descriptor'
	DD	00H
	DD	03H
	DD	FLAT:??_R2?$_CTypedPtrList@VCObList@@PAVCDrdsAdvisedInfo@@@@8
rdata$r	ENDS
;	COMDAT ??_R0?AV?$_CTypedPtrList@VCObList@@PAVCDrdsAdvisedInfo@@@@@8
data$rs	SEGMENT
??_R0?AV?$_CTypedPtrList@VCObList@@PAVCDrdsAdvisedInfo@@@@@8 DD FLAT:??_7type_info@@6B@ ; _CTypedPtrList<CObList,CDrdsAdvisedInfo *> `RTTI Type Descriptor'
	DD	00H
	DB	'.?AV?$_CTypedPtrList@VCObList@@PAVCDrdsAdvisedInfo@@@@', 00H
data$rs	ENDS
;	COMDAT ??_R1A@?0A@EA@?$_CTypedPtrList@VCObList@@PAVCDrdsAdvisedInfo@@@@8
rdata$r	SEGMENT
??_R1A@?0A@EA@?$_CTypedPtrList@VCObList@@PAVCDrdsAdvisedInfo@@@@8 DD FLAT:??_R0?AV?$_CTypedPtrList@VCObList@@PAVCDrdsAdvisedInfo@@@@@8 ; _CTypedPtrList<CObList,CDrdsAdvisedInfo *>::`RTTI Base Class Descriptor at (0,-1,0,64)'
	DD	02H
	DD	00H
	DD	0ffffffffH
	DD	00H
	DD	040H
	DD	FLAT:??_R3?$_CTypedPtrList@VCObList@@PAVCDrdsAdvisedInfo@@@@8
rdata$r	ENDS
;	COMDAT ??_R1A@?0A@EA@?$CTypedPtrList@VCObList@@PAVCDrdsAdvisedInfo@@@@8
rdata$r	SEGMENT
??_R1A@?0A@EA@?$CTypedPtrList@VCObList@@PAVCDrdsAdvisedInfo@@@@8 DD FLAT:??_R0?AV?$CTypedPtrList@VCObList@@PAVCDrdsAdvisedInfo@@@@@8 ; CTypedPtrList<CObList,CDrdsAdvisedInfo *>::`RTTI Base Class Descriptor at (0,-1,0,64)'
	DD	03H
	DD	00H
	DD	0ffffffffH
	DD	00H
	DD	040H
	DD	FLAT:??_R3?$CTypedPtrList@VCObList@@PAVCDrdsAdvisedInfo@@@@8
rdata$r	ENDS
;	COMDAT ??_R2?$CTypedPtrList@VCObList@@PAVCDrdsAdvisedInfo@@@@8
rdata$r	SEGMENT
??_R2?$CTypedPtrList@VCObList@@PAVCDrdsAdvisedInfo@@@@8 DD FLAT:??_R1A@?0A@EA@?$CTypedPtrList@VCObList@@PAVCDrdsAdvisedInfo@@@@8 ; CTypedPtrList<CObList,CDrdsAdvisedInfo *>::`RTTI Base Class Array'
	DD	FLAT:??_R1A@?0A@EA@?$_CTypedPtrList@VCObList@@PAVCDrdsAdvisedInfo@@@@8
	DD	FLAT:??_R1A@?0A@EA@CObList@@8
	DD	FLAT:??_R1A@?0A@EA@CObject@@8
rdata$r	ENDS
;	COMDAT ??_R3?$CTypedPtrList@VCObList@@PAVCDrdsAdvisedInfo@@@@8
rdata$r	SEGMENT
??_R3?$CTypedPtrList@VCObList@@PAVCDrdsAdvisedInfo@@@@8 DD 00H ; CTypedPtrList<CObList,CDrdsAdvisedInfo *>::`RTTI Class Hierarchy Descriptor'
	DD	00H
	DD	04H
	DD	FLAT:??_R2?$CTypedPtrList@VCObList@@PAVCDrdsAdvisedInfo@@@@8
rdata$r	ENDS
;	COMDAT ??_R0?AV?$CTypedPtrList@VCObList@@PAVCDrdsAdvisedInfo@@@@@8
data$rs	SEGMENT
??_R0?AV?$CTypedPtrList@VCObList@@PAVCDrdsAdvisedInfo@@@@@8 DD FLAT:??_7type_info@@6B@ ; CTypedPtrList<CObList,CDrdsAdvisedInfo *> `RTTI Type Descriptor'
	DD	00H
	DB	'.?AV?$CTypedPtrList@VCObList@@PAVCDrdsAdvisedInfo@@@@', 00H
data$rs	ENDS
;	COMDAT ??_R4?$CTypedPtrList@VCObList@@PAVCDrdsAdvisedInfo@@@@6B@
rdata$r	SEGMENT
??_R4?$CTypedPtrList@VCObList@@PAVCDrdsAdvisedInfo@@@@6B@ DD 00H ; CTypedPtrList<CObList,CDrdsAdvisedInfo *>::`RTTI Complete Object Locator'
	DD	00H
	DD	00H
	DD	FLAT:??_R0?AV?$CTypedPtrList@VCObList@@PAVCDrdsAdvisedInfo@@@@@8
	DD	FLAT:??_R3?$CTypedPtrList@VCObList@@PAVCDrdsAdvisedInfo@@@@8
rdata$r	ENDS
;	COMDAT ??_R1A@?0A@EA@CDrdsAdvisedInfo@@8
rdata$r	SEGMENT
??_R1A@?0A@EA@CDrdsAdvisedInfo@@8 DD FLAT:??_R0?AVCDrdsAdvisedInfo@@@8 ; CDrdsAdvisedInfo::`RTTI Base Class Descriptor at (0,-1,0,64)'
	DD	01H
	DD	00H
	DD	0ffffffffH
	DD	00H
	DD	040H
	DD	FLAT:??_R3CDrdsAdvisedInfo@@8
rdata$r	ENDS
;	COMDAT ??_R2CDrdsAdvisedInfo@@8
rdata$r	SEGMENT
??_R2CDrdsAdvisedInfo@@8 DD FLAT:??_R1A@?0A@EA@CDrdsAdvisedInfo@@8 ; CDrdsAdvisedInfo::`RTTI Base Class Array'
	DD	FLAT:??_R1A@?0A@EA@CObject@@8
rdata$r	ENDS
;	COMDAT ??_R3CDrdsAdvisedInfo@@8
rdata$r	SEGMENT
??_R3CDrdsAdvisedInfo@@8 DD 00H				; CDrdsAdvisedInfo::`RTTI Class Hierarchy Descriptor'
	DD	00H
	DD	02H
	DD	FLAT:??_R2CDrdsAdvisedInfo@@8
rdata$r	ENDS
;	COMDAT ??_R0?AVCDrdsAdvisedInfo@@@8
data$rs	SEGMENT
??_R0?AVCDrdsAdvisedInfo@@@8 DD FLAT:??_7type_info@@6B@	; CDrdsAdvisedInfo `RTTI Type Descriptor'
	DD	00H
	DB	'.?AVCDrdsAdvisedInfo@@', 00H
data$rs	ENDS
;	COMDAT ??_R4CDrdsAdvisedInfo@@6B@
rdata$r	SEGMENT
??_R4CDrdsAdvisedInfo@@6B@ DD 00H			; CDrdsAdvisedInfo::`RTTI Complete Object Locator'
	DD	00H
	DD	00H
	DD	FLAT:??_R0?AVCDrdsAdvisedInfo@@@8
	DD	FLAT:??_R3CDrdsAdvisedInfo@@8
rdata$r	ENDS
;	COMDAT ??_7CDaiCodeGroup@@6B@
CONST	SEGMENT
??_7CDaiCodeGroup@@6B@ DD FLAT:??_R4CDaiCodeGroup@@6B@	; CDaiCodeGroup::`vftable'
	DD	FLAT:?GetRuntimeClass@CObject@@UBEPAUCRuntimeClass@@XZ
	DD	FLAT:??_ECDaiCodeGroup@@UAEPAXI@Z
	DD	FLAT:?Serialize@CObject@@UAEXAAVCArchive@@@Z
	DD	FLAT:?AssertValid@CObject@@UBEXXZ
	DD	FLAT:?Dump@CObject@@UBEXAAVCDumpContext@@@Z
CONST	ENDS
;	COMDAT ??_7?$CTypedPtrList@VCObList@@PAVCDrdsAdvisedInfo@@@@6B@
CONST	SEGMENT
??_7?$CTypedPtrList@VCObList@@PAVCDrdsAdvisedInfo@@@@6B@ DD FLAT:??_R4?$CTypedPtrList@VCObList@@PAVCDrdsAdvisedInfo@@@@6B@ ; CTypedPtrList<CObList,CDrdsAdvisedInfo *>::`vftable'
	DD	FLAT:?GetRuntimeClass@CObList@@UBEPAUCRuntimeClass@@XZ
	DD	FLAT:??_E?$CTypedPtrList@VCObList@@PAVCDrdsAdvisedInfo@@@@UAEPAXI@Z
	DD	FLAT:?Serialize@CObList@@UAEXAAVCArchive@@@Z
	DD	FLAT:?AssertValid@CObject@@UBEXXZ
	DD	FLAT:?Dump@CObject@@UBEXAAVCDumpContext@@@Z
CONST	ENDS
;	COMDAT ??_7?$_CTypedPtrList@VCObList@@PAVCDrdsAdvisedInfo@@@@6B@
CONST	SEGMENT
??_7?$_CTypedPtrList@VCObList@@PAVCDrdsAdvisedInfo@@@@6B@ DD FLAT:??_R4?$_CTypedPtrList@VCObList@@PAVCDrdsAdvisedInfo@@@@6B@ ; _CTypedPtrList<CObList,CDrdsAdvisedInfo *>::`vftable'
	DD	FLAT:?GetRuntimeClass@CObList@@UBEPAUCRuntimeClass@@XZ
	DD	FLAT:??_E?$_CTypedPtrList@VCObList@@PAVCDrdsAdvisedInfo@@@@UAEPAXI@Z
	DD	FLAT:?Serialize@CObList@@UAEXAAVCArchive@@@Z
	DD	FLAT:?AssertValid@CObject@@UBEXXZ
	DD	FLAT:?Dump@CObject@@UBEXAAVCDumpContext@@@Z
CONST	ENDS
;	COMDAT ??_7CDrdsAdvisedInfo@@6B@
CONST	SEGMENT
??_7CDrdsAdvisedInfo@@6B@ DD FLAT:??_R4CDrdsAdvisedInfo@@6B@ ; CDrdsAdvisedInfo::`vftable'
	DD	FLAT:?GetRuntimeClass@CObject@@UBEPAUCRuntimeClass@@XZ
	DD	FLAT:??_ECDrdsAdvisedInfo@@UAEPAXI@Z
	DD	FLAT:?Serialize@CObject@@UAEXAAVCArchive@@@Z
	DD	FLAT:?AssertValid@CObject@@UBEXXZ
	DD	FLAT:?Dump@CObject@@UBEXAAVCDumpContext@@@Z
CONST	ENDS
;	COMDAT ??_R2CObList@@8
rdata$r	SEGMENT
??_R2CObList@@8 DD FLAT:??_R1A@?0A@EA@CObList@@8	; CObList::`RTTI Base Class Array'
	DD	FLAT:??_R1A@?0A@EA@CObject@@8
rdata$r	ENDS
;	COMDAT ??_R3CObList@@8
rdata$r	SEGMENT
??_R3CObList@@8 DD 00H					; CObList::`RTTI Class Hierarchy Descriptor'
	DD	00H
	DD	02H
	DD	FLAT:??_R2CObList@@8
rdata$r	ENDS
;	COMDAT ??_R0?AVCObList@@@8
data$rs	SEGMENT
??_R0?AVCObList@@@8 DD FLAT:??_7type_info@@6B@		; CObList `RTTI Type Descriptor'
	DD	00H
	DB	'.?AVCObList@@', 00H
data$rs	ENDS
;	COMDAT ??_R1A@?0A@EA@CObList@@8
rdata$r	SEGMENT
??_R1A@?0A@EA@CObList@@8 DD FLAT:??_R0?AVCObList@@@8	; CObList::`RTTI Base Class Descriptor at (0,-1,0,64)'
	DD	01H
	DD	00H
	DD	0ffffffffH
	DD	00H
	DD	040H
	DD	FLAT:??_R3CObList@@8
rdata$r	ENDS
;	COMDAT ??_R1A@?0A@EA@CObject@@8
rdata$r	SEGMENT
??_R1A@?0A@EA@CObject@@8 DD FLAT:??_R0?AVCObject@@@8	; CObject::`RTTI Base Class Descriptor at (0,-1,0,64)'
	DD	00H
	DD	00H
	DD	0ffffffffH
	DD	00H
	DD	040H
	DD	FLAT:??_R3CObject@@8
rdata$r	ENDS
;	COMDAT ??_R2CObject@@8
rdata$r	SEGMENT
??_R2CObject@@8 DD FLAT:??_R1A@?0A@EA@CObject@@8	; CObject::`RTTI Base Class Array'
rdata$r	ENDS
;	COMDAT ??_R3CObject@@8
rdata$r	SEGMENT
??_R3CObject@@8 DD 00H					; CObject::`RTTI Class Hierarchy Descriptor'
	DD	00H
	DD	01H
	DD	FLAT:??_R2CObject@@8
rdata$r	ENDS
;	COMDAT ??_R0?AVCObject@@@8
data$rs	SEGMENT
??_R0?AVCObject@@@8 DD FLAT:??_7type_info@@6B@		; CObject `RTTI Type Descriptor'
	DD	00H
	DB	'.?AVCObject@@', 00H
data$rs	ENDS
;	COMDAT xdata$x
xdata$x	SEGMENT
__unwindtable$??_GCDaiCodeGroup@@UAEPAXI@Z DD 0ffffffffH
	DD	FLAT:___std_terminate
__ehfuncinfo$??_GCDaiCodeGroup@@UAEPAXI@Z DD 019930522H
	DD	01H
	DD	FLAT:__unwindtable$??_GCDaiCodeGroup@@UAEPAXI@Z
	DD	2 DUP(00H)
	DD	2 DUP(00H)
	DD	00H
	DD	05H
xdata$x	ENDS
;	COMDAT xdata$x
xdata$x	SEGMENT
__unwindtable$?AddDrdsAdvisedInfo@CDaiCodeGroup@@QAEHPBDPAUIPacket000000@@0@Z DD 0ffffffffH
	DD	FLAT:__unwindfunclet$?AddDrdsAdvisedInfo@CDaiCodeGroup@@QAEHPBDPAUIPacket000000@@0@Z$0
	DD	00H
	DD	FLAT:__unwindfunclet$?AddDrdsAdvisedInfo@CDaiCodeGroup@@QAEHPBDPAUIPacket000000@@0@Z$1
__ehfuncinfo$?AddDrdsAdvisedInfo@CDaiCodeGroup@@QAEHPBDPAUIPacket000000@@0@Z DD 019930522H
	DD	02H
	DD	FLAT:__unwindtable$?AddDrdsAdvisedInfo@CDaiCodeGroup@@QAEHPBDPAUIPacket000000@@0@Z
	DD	2 DUP(00H)
	DD	2 DUP(00H)
	DD	00H
	DD	01H
xdata$x	ENDS
;	COMDAT xdata$x
xdata$x	SEGMENT
__unwindtable$?AddDrdsAdvisedInfo@CDaiCodeGroup@@QAEHPAUIPacket000000@@PBD@Z DD 0ffffffffH
	DD	FLAT:__unwindfunclet$?AddDrdsAdvisedInfo@CDaiCodeGroup@@QAEHPAUIPacket000000@@PBD@Z$0
	DD	00H
	DD	FLAT:__unwindfunclet$?AddDrdsAdvisedInfo@CDaiCodeGroup@@QAEHPAUIPacket000000@@PBD@Z$1
__ehfuncinfo$?AddDrdsAdvisedInfo@CDaiCodeGroup@@QAEHPAUIPacket000000@@PBD@Z DD 019930522H
	DD	02H
	DD	FLAT:__unwindtable$?AddDrdsAdvisedInfo@CDaiCodeGroup@@QAEHPAUIPacket000000@@PBD@Z
	DD	2 DUP(00H)
	DD	2 DUP(00H)
	DD	00H
	DD	01H
xdata$x	ENDS
;	COMDAT xdata$x
xdata$x	SEGMENT
__ehfuncinfo$??1CDaiCodeGroup@@UAE@XZ DD 019930522H
	DD	00H
	DD	00H
	DD	2 DUP(00H)
	DD	2 DUP(00H)
	DD	00H
	DD	05H
xdata$x	ENDS
;	COMDAT xdata$x
xdata$x	SEGMENT
__unwindtable$??0CDaiCodeGroup@@QAE@PBD@Z DD 0ffffffffH
	DD	FLAT:__unwindfunclet$??0CDaiCodeGroup@@QAE@PBD@Z$0
	DD	00H
	DD	FLAT:__unwindfunclet$??0CDaiCodeGroup@@QAE@PBD@Z$1
__ehfuncinfo$??0CDaiCodeGroup@@QAE@PBD@Z DD 019930522H
	DD	02H
	DD	FLAT:__unwindtable$??0CDaiCodeGroup@@QAE@PBD@Z
	DD	2 DUP(00H)
	DD	2 DUP(00H)
	DD	00H
	DD	01H
xdata$x	ENDS
;	COMDAT xdata$x
xdata$x	SEGMENT
__unwindtable$??_GCDrdsAdvisedInfo@@UAEPAXI@Z DD 0ffffffffH
	DD	FLAT:___std_terminate
__ehfuncinfo$??_GCDrdsAdvisedInfo@@UAEPAXI@Z DD 019930522H
	DD	01H
	DD	FLAT:__unwindtable$??_GCDrdsAdvisedInfo@@UAEPAXI@Z
	DD	2 DUP(00H)
	DD	2 DUP(00H)
	DD	00H
	DD	05H
xdata$x	ENDS
;	COMDAT xdata$x
xdata$x	SEGMENT
__ehfuncinfo$??1CDrdsAdvisedInfo@@UAE@XZ DD 019930522H
	DD	00H
	DD	00H
	DD	2 DUP(00H)
	DD	2 DUP(00H)
	DD	00H
	DD	05H
xdata$x	ENDS
;	COMDAT xdata$x
xdata$x	SEGMENT
__unwindtable$??0CDrdsAdvisedInfo@@QAE@PBDPAUIPacket000000@@0@Z DD 0ffffffffH
	DD	FLAT:__unwindfunclet$??0CDrdsAdvisedInfo@@QAE@PBDPAUIPacket000000@@0@Z$0
__ehfuncinfo$??0CDrdsAdvisedInfo@@QAE@PBDPAUIPacket000000@@0@Z DD 019930522H
	DD	01H
	DD	FLAT:__unwindtable$??0CDrdsAdvisedInfo@@QAE@PBDPAUIPacket000000@@0@Z
	DD	2 DUP(00H)
	DD	2 DUP(00H)
	DD	00H
	DD	01H
xdata$x	ENDS
;	COMDAT xdata$x
xdata$x	SEGMENT
__unwindtable$??0CDrdsAdvisedInfo@@QAE@PAUIPacket000000@@PBD@Z DD 0ffffffffH
	DD	FLAT:__unwindfunclet$??0CDrdsAdvisedInfo@@QAE@PAUIPacket000000@@PBD@Z$0
__ehfuncinfo$??0CDrdsAdvisedInfo@@QAE@PAUIPacket000000@@PBD@Z DD 019930522H
	DD	01H
	DD	FLAT:__unwindtable$??0CDrdsAdvisedInfo@@QAE@PAUIPacket000000@@PBD@Z
	DD	2 DUP(00H)
	DD	2 DUP(00H)
	DD	00H
	DD	01H
xdata$x	ENDS
; Function compile flags: /Ogtp
; File C:\Program Files (x86)\Microsoft Visual Studio\2019\Community\VC\Tools\MSVC\14.29.30133\atlmfc\include\afxcoll.inl
; File D:\git\src\IBK\IBK_DRFN\ProjSrc\SrcChartEx\ChartOCX\AddInManager\ChartCommonAddIn\DaiCodeGroup.cpp
; File C:\Program Files (x86)\Microsoft Visual Studio\2019\Community\VC\Tools\MSVC\14.29.30133\atlmfc\include\afxtempl.h
; File D:\git\src\IBK\IBK_DRFN\ProjSrc\SrcChartEx\ChartOCX\AddInManager\ChartCommonAddIn\DaiCodeGroup.cpp
; File C:\Program Files (x86)\Microsoft Visual Studio\2019\Community\VC\Tools\MSVC\14.29.30133\atlmfc\include\afxcoll.inl
; File D:\git\src\IBK\IBK_DRFN\ProjSrc\SrcChartEx\ChartOCX\AddInManager\ChartCommonAddIn\DaiCodeGroup.cpp
; File C:\Program Files (x86)\Microsoft Visual Studio\2019\Community\VC\Tools\MSVC\14.29.30133\atlmfc\include\afx.inl
;	COMDAT ??_GCDaiCodeGroup@@UAEPAXI@Z
_TEXT	SEGMENT
__$EHRec$ = -12						; size = 12
___flags$ = 8						; size = 4
??_GCDaiCodeGroup@@UAEPAXI@Z PROC			; CDaiCodeGroup::`scalar deleting destructor', COMDAT
; _this$ = ecx
  00000	55		 push	 ebp
  00001	8b ec		 mov	 ebp, esp
  00003	6a ff		 push	 -1
  00005	68 00 00 00 00	 push	 __ehhandler$??_GCDaiCodeGroup@@UAEPAXI@Z
  0000a	64 a1 00 00 00
	00		 mov	 eax, DWORD PTR fs:0
  00010	50		 push	 eax
  00011	56		 push	 esi
  00012	57		 push	 edi
  00013	a1 00 00 00 00	 mov	 eax, DWORD PTR ___security_cookie
  00018	33 c5		 xor	 eax, ebp
  0001a	50		 push	 eax
  0001b	8d 45 f4	 lea	 eax, DWORD PTR __$EHRec$[ebp]
  0001e	64 a3 00 00 00
	00		 mov	 DWORD PTR fs:0, eax
  00024	8b f1		 mov	 esi, ecx
; File C:\Program Files (x86)\Microsoft Visual Studio\2019\Community\VC\Tools\MSVC\14.29.30133\atlmfc\include\afxcoll.inl

; 410  : 	{ return m_nCount == 0; }

  00026	83 7e 14 00	 cmp	 DWORD PTR [esi+20], 0
; File D:\git\src\IBK\IBK_DRFN\ProjSrc\SrcChartEx\ChartOCX\AddInManager\ChartCommonAddIn\DaiCodeGroup.cpp

; 29   : {

  0002a	c7 45 fc 00 00
	00 00		 mov	 DWORD PTR __$EHRec$[ebp+8], 0
  00031	c7 06 00 00 00
	00		 mov	 DWORD PTR [esi], OFFSET ??_7CDaiCodeGroup@@6B@

; 69   : 	while( !IsEmpty()) delete RemoveHead();

  00037	74 22		 je	 SHORT $LN34@scalar
  00039	0f 1f 80 00 00
	00 00		 npad	 7
$LL11@scalar:
; File C:\Program Files (x86)\Microsoft Visual Studio\2019\Community\VC\Tools\MSVC\14.29.30133\atlmfc\include\afxtempl.h

; 1890 : 		{ return (TYPE)BASE_CLASS::RemoveHead(); }

  00040	8d 4e 08	 lea	 ecx, DWORD PTR [esi+8]
  00043	e8 00 00 00 00	 call	 ?RemoveHead@CObList@@QAEPAVCObject@@XZ ; CObList::RemoveHead
; File D:\git\src\IBK\IBK_DRFN\ProjSrc\SrcChartEx\ChartOCX\AddInManager\ChartCommonAddIn\DaiCodeGroup.cpp

; 69   : 	while( !IsEmpty()) delete RemoveHead();

  00048	85 c0		 test	 eax, eax
  0004a	74 09		 je	 SHORT $LN14@scalar
  0004c	8b 10		 mov	 edx, DWORD PTR [eax]
  0004e	8b c8		 mov	 ecx, eax
  00050	6a 01		 push	 1
  00052	ff 52 04	 call	 DWORD PTR [edx+4]
$LN14@scalar:
; File C:\Program Files (x86)\Microsoft Visual Studio\2019\Community\VC\Tools\MSVC\14.29.30133\atlmfc\include\afxcoll.inl

; 410  : 	{ return m_nCount == 0; }

  00055	83 7e 14 00	 cmp	 DWORD PTR [esi+20], 0
; File D:\git\src\IBK\IBK_DRFN\ProjSrc\SrcChartEx\ChartOCX\AddInManager\ChartCommonAddIn\DaiCodeGroup.cpp

; 69   : 	while( !IsEmpty()) delete RemoveHead();

  00059	75 e5		 jne	 SHORT $LL11@scalar
$LN34@scalar:
  0005b	8d 4e 08	 lea	 ecx, DWORD PTR [esi+8]
  0005e	e8 00 00 00 00	 call	 ??1CObList@@UAE@XZ	; CObList::~CObList

; 32   : }

  00063	8d 4e 04	 lea	 ecx, DWORD PTR [esi+4]
  00066	ff 15 00 00 00
	00		 call	 DWORD PTR __imp_??1?$CStringT@DV?$StrTraitMFC_DLL@DV?$ChTraitsCRT@D@ATL@@@@@ATL@@QAE@XZ
  0006c	8b 45 08	 mov	 eax, DWORD PTR ___flags$[ebp]
  0006f	a8 01		 test	 al, 1
  00071	74 1a		 je	 SHORT $LN36@scalar
  00073	a8 04		 test	 al, 4
  00075	75 0b		 jne	 SHORT $LN3@scalar
; File C:\Program Files (x86)\Microsoft Visual Studio\2019\Community\VC\Tools\MSVC\14.29.30133\atlmfc\include\afx.inl

; 112  : 	{ ::operator delete(p); }

  00077	56		 push	 esi
  00078	e8 00 00 00 00	 call	 ??3@YAXPAX@Z		; operator delete
  0007d	83 c4 04	 add	 esp, 4
  00080	eb 0b		 jmp	 SHORT $LN36@scalar
$LN3@scalar:
  00082	6a 28		 push	 40			; 00000028H
  00084	56		 push	 esi
  00085	e8 00 00 00 00	 call	 ?__global_delete@@YAXPAXI@Z ; __global_delete
  0008a	83 c4 08	 add	 esp, 8
$LN36@scalar:
  0008d	8b c6		 mov	 eax, esi
  0008f	8b 4d f4	 mov	 ecx, DWORD PTR __$EHRec$[ebp]
  00092	64 89 0d 00 00
	00 00		 mov	 DWORD PTR fs:0, ecx
  00099	59		 pop	 ecx
  0009a	5f		 pop	 edi
  0009b	5e		 pop	 esi
  0009c	8b e5		 mov	 esp, ebp
  0009e	5d		 pop	 ebp
  0009f	c2 04 00	 ret	 4
  000a2	cc		 int	 3
  000a3	cc		 int	 3
  000a4	cc		 int	 3
  000a5	cc		 int	 3
  000a6	cc		 int	 3
_TEXT	ENDS
;	COMDAT text$x
text$x	SEGMENT
__ehhandler$??_GCDaiCodeGroup@@UAEPAXI@Z:
  00000	90		 npad	 1
  00001	90		 npad	 1
  00002	8b 54 24 08	 mov	 edx, DWORD PTR [esp+8]
  00006	8d 42 0c	 lea	 eax, DWORD PTR [edx+12]
  00009	8b 4a f4	 mov	 ecx, DWORD PTR [edx-12]
  0000c	33 c8		 xor	 ecx, eax
  0000e	e8 00 00 00 00	 call	 @__security_check_cookie@4
  00013	b8 00 00 00 00	 mov	 eax, OFFSET __ehfuncinfo$??_GCDaiCodeGroup@@UAEPAXI@Z
  00018	e9 00 00 00 00	 jmp	 ___CxxFrameHandler3
text$x	ENDS
??_GCDaiCodeGroup@@UAEPAXI@Z ENDP			; CDaiCodeGroup::`scalar deleting destructor'
; Function compile flags: /Ogtp
; File D:\git\src\IBK\IBK_DRFN\ProjSrc\SrcChartEx\ChartOCX\AddInManager\ChartCommonAddIn\DaiCodeGroup.cpp
; File C:\Program Files (x86)\Microsoft Visual Studio\2019\Community\VC\Tools\MSVC\14.29.30133\atlmfc\include\afxcoll.inl
; File D:\git\src\IBK\IBK_DRFN\ProjSrc\SrcChartEx\ChartOCX\AddInManager\ChartCommonAddIn\DaiCodeGroup.cpp
; File C:\Program Files (x86)\Microsoft Visual Studio\2019\Community\VC\Tools\MSVC\14.29.30133\atlmfc\include\cstringt.h
; File D:\git\src\IBK\IBK_DRFN\ProjSrc\SrcChartEx\ChartOCX\AddInManager\ChartCommonAddIn\DaiCodeGroup.cpp
; File C:\Program Files (x86)\Microsoft Visual Studio\2019\Community\VC\Tools\MSVC\14.29.30133\atlmfc\include\cstringt.h
; File D:\git\src\IBK\IBK_DRFN\ProjSrc\SrcChartEx\ChartOCX\AddInManager\ChartCommonAddIn\DaiCodeGroup.cpp
;	COMDAT ?FindDrdsAdvisedInfo@CDaiCodeGroup@@QAEPAU__POSITION@@PBDPAUIPacket000000@@0@Z
_TEXT	SEGMENT
_lpszRQ$ = 8						; size = 4
_p_pIPacket$ = 12					; size = 4
_p_szRealFieldName$ = 16				; size = 4
?FindDrdsAdvisedInfo@CDaiCodeGroup@@QAEPAU__POSITION@@PBDPAUIPacket000000@@0@Z PROC ; CDaiCodeGroup::FindDrdsAdvisedInfo, COMDAT
; _this$ = ecx

; 93   : {

  00000	55		 push	 ebp
  00001	8b ec		 mov	 ebp, esp
  00003	53		 push	 ebx
  00004	56		 push	 esi

; 94   : 	POSITION posPrevDAI;
; 95   : 	POSITION posDAI = GetHeadPosition();

  00005	8b 71 0c	 mov	 esi, DWORD PTR [ecx+12]
  00008	57		 push	 edi

; 96   : 	while( posDAI)

  00009	85 f6		 test	 esi, esi
  0000b	74 3f		 je	 SHORT $LN23@FindDrdsAd
  0000d	0f 1f 00	 npad	 3
$LL2@FindDrdsAd:

; 97   : 	{
; 98   : 		posPrevDAI = posDAI;
; 99   : 		CDrdsAdvisedInfo *pDAI = GetNext( posDAI);

  00010	8b 7e 08	 mov	 edi, DWORD PTR [esi+8]
  00013	8b de		 mov	 ebx, esi
; File C:\Program Files (x86)\Microsoft Visual Studio\2019\Community\VC\Tools\MSVC\14.29.30133\atlmfc\include\afxcoll.inl

; 432  : 		rPosition = (POSITION) pNode->pNext;

  00015	8b 36		 mov	 esi, DWORD PTR [esi]
; File D:\git\src\IBK\IBK_DRFN\ProjSrc\SrcChartEx\ChartOCX\AddInManager\ChartCommonAddIn\DaiCodeGroup.cpp

; 101  : 			pDAI->m_pIPacket == p_pIPacket && pDAI->m_strRealFieldName == p_szRealFieldName)

  00017	85 ff		 test	 edi, edi
  00019	74 2d		 je	 SHORT $LN4@FindDrdsAd
  0001b	8b 47 0c	 mov	 eax, DWORD PTR [edi+12]
  0001e	85 c0		 test	 eax, eax
  00020	74 26		 je	 SHORT $LN4@FindDrdsAd
  00022	ff 75 08	 push	 DWORD PTR _lpszRQ$[ebp]
  00025	50		 push	 eax
  00026	ff 15 00 00 00
	00		 call	 DWORD PTR __imp__lstrcmpA@8
  0002c	85 c0		 test	 eax, eax
  0002e	75 18		 jne	 SHORT $LN4@FindDrdsAd
  00030	8b 45 0c	 mov	 eax, DWORD PTR _p_pIPacket$[ebp]
  00033	39 47 04	 cmp	 DWORD PTR [edi+4], eax
  00036	75 10		 jne	 SHORT $LN4@FindDrdsAd
; File C:\Program Files (x86)\Microsoft Visual Studio\2019\Community\VC\Tools\MSVC\14.29.30133\atlmfc\include\cstringt.h

; 2486 : 		return(str1.Compare(psz2) == 0);

  00038	ff 75 10	 push	 DWORD PTR _p_szRealFieldName$[ebp]
; File D:\git\src\IBK\IBK_DRFN\ProjSrc\SrcChartEx\ChartOCX\AddInManager\ChartCommonAddIn\DaiCodeGroup.cpp

; 101  : 			pDAI->m_pIPacket == p_pIPacket && pDAI->m_strRealFieldName == p_szRealFieldName)

  0003b	8d 4f 08	 lea	 ecx, DWORD PTR [edi+8]
; File C:\Program Files (x86)\Microsoft Visual Studio\2019\Community\VC\Tools\MSVC\14.29.30133\atlmfc\include\cstringt.h

; 2486 : 		return(str1.Compare(psz2) == 0);

  0003e	ff 15 00 00 00
	00		 call	 DWORD PTR __imp_?Compare@?$CStringT@DV?$StrTraitMFC_DLL@DV?$ChTraitsCRT@D@ATL@@@@@ATL@@QBEHPBD@Z
  00044	85 c0		 test	 eax, eax
; File D:\git\src\IBK\IBK_DRFN\ProjSrc\SrcChartEx\ChartOCX\AddInManager\ChartCommonAddIn\DaiCodeGroup.cpp

; 101  : 			pDAI->m_pIPacket == p_pIPacket && pDAI->m_strRealFieldName == p_szRealFieldName)

  00046	74 0d		 je	 SHORT $LN20@FindDrdsAd
$LN4@FindDrdsAd:

; 96   : 	while( posDAI)

  00048	85 f6		 test	 esi, esi
  0004a	75 c4		 jne	 SHORT $LL2@FindDrdsAd
$LN23@FindDrdsAd:
  0004c	5f		 pop	 edi

; 102  : 			return posPrevDAI;
; 103  : 	}
; 104  : 	return NULL;
; 105  : }

  0004d	5e		 pop	 esi
  0004e	33 c0		 xor	 eax, eax
  00050	5b		 pop	 ebx
  00051	5d		 pop	 ebp
  00052	c2 0c 00	 ret	 12			; 0000000cH
$LN20@FindDrdsAd:
  00055	5f		 pop	 edi
  00056	5e		 pop	 esi
  00057	8b c3		 mov	 eax, ebx
  00059	5b		 pop	 ebx
  0005a	5d		 pop	 ebp
  0005b	c2 0c 00	 ret	 12			; 0000000cH
?FindDrdsAdvisedInfo@CDaiCodeGroup@@QAEPAU__POSITION@@PBDPAUIPacket000000@@0@Z ENDP ; CDaiCodeGroup::FindDrdsAdvisedInfo
_TEXT	ENDS
; Function compile flags: /Ogtp
; File D:\git\src\IBK\IBK_DRFN\ProjSrc\SrcChartEx\ChartOCX\AddInManager\ChartCommonAddIn\DaiCodeGroup.cpp
; File C:\Program Files (x86)\Microsoft Visual Studio\2019\Community\VC\Tools\MSVC\14.29.30133\atlmfc\include\afxcoll.inl
; File D:\git\src\IBK\IBK_DRFN\ProjSrc\SrcChartEx\ChartOCX\AddInManager\ChartCommonAddIn\DaiCodeGroup.cpp
; File C:\Program Files (x86)\Microsoft Visual Studio\2019\Community\VC\Tools\MSVC\14.29.30133\atlmfc\include\cstringt.h
; File D:\git\src\IBK\IBK_DRFN\ProjSrc\SrcChartEx\ChartOCX\AddInManager\ChartCommonAddIn\DaiCodeGroup.cpp
; File C:\Program Files (x86)\Microsoft Visual Studio\2019\Community\VC\Tools\MSVC\14.29.30133\atlmfc\include\cstringt.h
; File D:\git\src\IBK\IBK_DRFN\ProjSrc\SrcChartEx\ChartOCX\AddInManager\ChartCommonAddIn\DaiCodeGroup.cpp
;	COMDAT ?FindDrdsAdvisedInfo@CDaiCodeGroup@@QAEPAU__POSITION@@PAUIPacket000000@@PBD@Z
_TEXT	SEGMENT
_p_pIPacket$ = 8					; size = 4
_p_szRealFieldName$ = 12				; size = 4
?FindDrdsAdvisedInfo@CDaiCodeGroup@@QAEPAU__POSITION@@PAUIPacket000000@@PBD@Z PROC ; CDaiCodeGroup::FindDrdsAdvisedInfo, COMDAT
; _this$ = ecx

; 78   : {

  00000	55		 push	 ebp
  00001	8b ec		 mov	 ebp, esp
  00003	53		 push	 ebx
  00004	56		 push	 esi

; 79   : 	POSITION posPrevDAI;
; 80   : 	POSITION posDAI = GetHeadPosition();

  00005	8b 71 0c	 mov	 esi, DWORD PTR [ecx+12]
  00008	57		 push	 edi

; 81   : 	while( posDAI)

  00009	85 f6		 test	 esi, esi
  0000b	74 23		 je	 SHORT $LN23@FindDrdsAd
  0000d	8b 5d 08	 mov	 ebx, DWORD PTR _p_pIPacket$[ebp]
$LL2@FindDrdsAd:

; 82   : 	{
; 83   : 		posPrevDAI = posDAI;
; 84   : 		CDrdsAdvisedInfo *pDAI = GetNext( posDAI);

  00010	8b 4e 08	 mov	 ecx, DWORD PTR [esi+8]
  00013	8b fe		 mov	 edi, esi
; File C:\Program Files (x86)\Microsoft Visual Studio\2019\Community\VC\Tools\MSVC\14.29.30133\atlmfc\include\afxcoll.inl

; 432  : 		rPosition = (POSITION) pNode->pNext;

  00015	8b 36		 mov	 esi, DWORD PTR [esi]
; File D:\git\src\IBK\IBK_DRFN\ProjSrc\SrcChartEx\ChartOCX\AddInManager\ChartCommonAddIn\DaiCodeGroup.cpp

; 85   : 		if( pDAI->m_pIPacket == p_pIPacket && pDAI->m_strRealFieldName == p_szRealFieldName)

  00017	39 59 04	 cmp	 DWORD PTR [ecx+4], ebx
  0001a	75 10		 jne	 SHORT $LN4@FindDrdsAd
; File C:\Program Files (x86)\Microsoft Visual Studio\2019\Community\VC\Tools\MSVC\14.29.30133\atlmfc\include\cstringt.h

; 2486 : 		return(str1.Compare(psz2) == 0);

  0001c	ff 75 0c	 push	 DWORD PTR _p_szRealFieldName$[ebp]
; File D:\git\src\IBK\IBK_DRFN\ProjSrc\SrcChartEx\ChartOCX\AddInManager\ChartCommonAddIn\DaiCodeGroup.cpp

; 85   : 		if( pDAI->m_pIPacket == p_pIPacket && pDAI->m_strRealFieldName == p_szRealFieldName)

  0001f	83 c1 08	 add	 ecx, 8
; File C:\Program Files (x86)\Microsoft Visual Studio\2019\Community\VC\Tools\MSVC\14.29.30133\atlmfc\include\cstringt.h

; 2486 : 		return(str1.Compare(psz2) == 0);

  00022	ff 15 00 00 00
	00		 call	 DWORD PTR __imp_?Compare@?$CStringT@DV?$StrTraitMFC_DLL@DV?$ChTraitsCRT@D@ATL@@@@@ATL@@QBEHPBD@Z
  00028	85 c0		 test	 eax, eax
; File D:\git\src\IBK\IBK_DRFN\ProjSrc\SrcChartEx\ChartOCX\AddInManager\ChartCommonAddIn\DaiCodeGroup.cpp

; 85   : 		if( pDAI->m_pIPacket == p_pIPacket && pDAI->m_strRealFieldName == p_szRealFieldName)

  0002a	74 0d		 je	 SHORT $LN20@FindDrdsAd
$LN4@FindDrdsAd:

; 81   : 	while( posDAI)

  0002c	85 f6		 test	 esi, esi
  0002e	75 e0		 jne	 SHORT $LL2@FindDrdsAd
$LN23@FindDrdsAd:
  00030	5f		 pop	 edi

; 87   : 	}
; 88   : 	return NULL;
; 89   : }

  00031	5e		 pop	 esi
  00032	33 c0		 xor	 eax, eax
  00034	5b		 pop	 ebx
  00035	5d		 pop	 ebp
  00036	c2 08 00	 ret	 8
$LN20@FindDrdsAd:

; 86   : 			return posPrevDAI;

  00039	8b c7		 mov	 eax, edi
  0003b	5f		 pop	 edi

; 87   : 	}
; 88   : 	return NULL;
; 89   : }

  0003c	5e		 pop	 esi
  0003d	5b		 pop	 ebx
  0003e	5d		 pop	 ebp
  0003f	c2 08 00	 ret	 8
?FindDrdsAdvisedInfo@CDaiCodeGroup@@QAEPAU__POSITION@@PAUIPacket000000@@PBD@Z ENDP ; CDaiCodeGroup::FindDrdsAdvisedInfo
_TEXT	ENDS
; Function compile flags: /Ogtp
; File D:\git\src\IBK\IBK_DRFN\ProjSrc\SrcChartEx\ChartOCX\AddInManager\ChartCommonAddIn\DaiCodeGroup.cpp
; File C:\Program Files (x86)\Microsoft Visual Studio\2019\Community\VC\Tools\MSVC\14.29.30133\atlmfc\include\afxcoll.inl
; File D:\git\src\IBK\IBK_DRFN\ProjSrc\SrcChartEx\ChartOCX\AddInManager\ChartCommonAddIn\DaiCodeGroup.cpp
; File C:\Program Files (x86)\Microsoft Visual Studio\2019\Community\VC\Tools\MSVC\14.29.30133\atlmfc\include\afxtempl.h
; File D:\git\src\IBK\IBK_DRFN\ProjSrc\SrcChartEx\ChartOCX\AddInManager\ChartCommonAddIn\DaiCodeGroup.cpp
; File C:\Program Files (x86)\Microsoft Visual Studio\2019\Community\VC\Tools\MSVC\14.29.30133\atlmfc\include\afxcoll.inl
; File D:\git\src\IBK\IBK_DRFN\ProjSrc\SrcChartEx\ChartOCX\AddInManager\ChartCommonAddIn\DaiCodeGroup.cpp
;	COMDAT ?RemoveAllDrdsAdvisedInfo@CDaiCodeGroup@@QAEXXZ
_TEXT	SEGMENT
?RemoveAllDrdsAdvisedInfo@CDaiCodeGroup@@QAEXXZ PROC	; CDaiCodeGroup::RemoveAllDrdsAdvisedInfo, COMDAT
; _this$ = ecx

; 68   : {

  00000	56		 push	 esi
  00001	8b f1		 mov	 esi, ecx
; File C:\Program Files (x86)\Microsoft Visual Studio\2019\Community\VC\Tools\MSVC\14.29.30133\atlmfc\include\afxcoll.inl

; 410  : 	{ return m_nCount == 0; }

  00003	83 7e 14 00	 cmp	 DWORD PTR [esi+20], 0
; File D:\git\src\IBK\IBK_DRFN\ProjSrc\SrcChartEx\ChartOCX\AddInManager\ChartCommonAddIn\DaiCodeGroup.cpp

; 69   : 	while( !IsEmpty()) delete RemoveHead();

  00007	74 23		 je	 SHORT $LN3@RemoveAllD
  00009	57		 push	 edi
  0000a	66 0f 1f 44 00
	00		 npad	 6
$LL2@RemoveAllD:
; File C:\Program Files (x86)\Microsoft Visual Studio\2019\Community\VC\Tools\MSVC\14.29.30133\atlmfc\include\afxtempl.h

; 1890 : 		{ return (TYPE)BASE_CLASS::RemoveHead(); }

  00010	8d 4e 08	 lea	 ecx, DWORD PTR [esi+8]
  00013	e8 00 00 00 00	 call	 ?RemoveHead@CObList@@QAEPAVCObject@@XZ ; CObList::RemoveHead
; File D:\git\src\IBK\IBK_DRFN\ProjSrc\SrcChartEx\ChartOCX\AddInManager\ChartCommonAddIn\DaiCodeGroup.cpp

; 69   : 	while( !IsEmpty()) delete RemoveHead();

  00018	85 c0		 test	 eax, eax
  0001a	74 09		 je	 SHORT $LN5@RemoveAllD
  0001c	8b 10		 mov	 edx, DWORD PTR [eax]
  0001e	8b c8		 mov	 ecx, eax
  00020	6a 01		 push	 1
  00022	ff 52 04	 call	 DWORD PTR [edx+4]
$LN5@RemoveAllD:
; File C:\Program Files (x86)\Microsoft Visual Studio\2019\Community\VC\Tools\MSVC\14.29.30133\atlmfc\include\afxcoll.inl

; 410  : 	{ return m_nCount == 0; }

  00025	83 7e 14 00	 cmp	 DWORD PTR [esi+20], 0
; File D:\git\src\IBK\IBK_DRFN\ProjSrc\SrcChartEx\ChartOCX\AddInManager\ChartCommonAddIn\DaiCodeGroup.cpp

; 69   : 	while( !IsEmpty()) delete RemoveHead();

  00029	75 e5		 jne	 SHORT $LL2@RemoveAllD
  0002b	5f		 pop	 edi
$LN3@RemoveAllD:
  0002c	5e		 pop	 esi

; 70   : }

  0002d	c3		 ret	 0
?RemoveAllDrdsAdvisedInfo@CDaiCodeGroup@@QAEXXZ ENDP	; CDaiCodeGroup::RemoveAllDrdsAdvisedInfo
_TEXT	ENDS
; Function compile flags: /Ogtp
; File D:\git\src\IBK\IBK_DRFN\ProjSrc\SrcChartEx\ChartOCX\AddInManager\ChartCommonAddIn\DaiCodeGroup.cpp
; File C:\Program Files (x86)\Microsoft Visual Studio\2019\Community\VC\Tools\MSVC\14.29.30133\atlmfc\include\afxcoll.inl
; File D:\git\src\IBK\IBK_DRFN\ProjSrc\SrcChartEx\ChartOCX\AddInManager\ChartCommonAddIn\DaiCodeGroup.cpp
; File C:\Program Files (x86)\Microsoft Visual Studio\2019\Community\VC\Tools\MSVC\14.29.30133\atlmfc\include\cstringt.h
; File D:\git\src\IBK\IBK_DRFN\ProjSrc\SrcChartEx\ChartOCX\AddInManager\ChartCommonAddIn\DaiCodeGroup.cpp
; File C:\Program Files (x86)\Microsoft Visual Studio\2019\Community\VC\Tools\MSVC\14.29.30133\atlmfc\include\cstringt.h
; File D:\git\src\IBK\IBK_DRFN\ProjSrc\SrcChartEx\ChartOCX\AddInManager\ChartCommonAddIn\DaiCodeGroup.cpp
; File C:\Program Files (x86)\Microsoft Visual Studio\2019\Community\VC\Tools\MSVC\14.29.30133\atlmfc\include\afx.inl
; File D:\git\src\IBK\IBK_DRFN\ProjSrc\SrcChartEx\ChartOCX\AddInManager\ChartCommonAddIn\DaiCodeGroup.cpp
; File C:\Program Files (x86)\Microsoft Visual Studio\2019\Community\VC\Tools\MSVC\14.29.30133\atlmfc\include\afx.inl
; File D:\git\src\IBK\IBK_DRFN\ProjSrc\SrcChartEx\ChartOCX\AddInManager\ChartCommonAddIn\DaiCodeGroup.cpp
; File D:\git\src\IBK\IBK_DRFN\ProjSrc\SrcChartEx\ChartOCX\AddInManager\ChartCommonAddIn\DaiCodeGroup.h
; File D:\git\src\IBK\IBK_DRFN\ProjSrc\SrcChartEx\ChartOCX\AddInManager\ChartCommonAddIn\DaiCodeGroup.cpp
; File D:\git\src\IBK\IBK_DRFN\ProjSrc\SrcChartEx\ChartOCX\AddInManager\ChartCommonAddIn\DaiCodeGroup.h
; File C:\Program Files (x86)\Microsoft Visual Studio\2019\Community\VC\Tools\MSVC\14.29.30133\atlmfc\include\afxtempl.h
; File D:\git\src\IBK\IBK_DRFN\ProjSrc\SrcChartEx\ChartOCX\AddInManager\ChartCommonAddIn\DaiCodeGroup.h
; File D:\git\src\IBK\IBK_DRFN\ProjSrc\SrcChartEx\ChartOCX\AddInManager\ChartCommonAddIn\DaiCodeGroup.cpp
; File C:\Program Files (x86)\Microsoft Visual Studio\2019\Community\VC\Tools\MSVC\14.29.30133\atlmfc\include\afxtempl.h
; File D:\git\src\IBK\IBK_DRFN\ProjSrc\SrcChartEx\ChartOCX\AddInManager\ChartCommonAddIn\DaiCodeGroup.cpp
;	COMDAT ?AddDrdsAdvisedInfo@CDaiCodeGroup@@QAEHPBDPAUIPacket000000@@0@Z
_TEXT	SEGMENT
_this$1$ = -16						; size = 4
__$EHRec$ = -12						; size = 12
_lpszRQ$ = 8						; size = 4
$T2 = 12						; size = 4
_p_pIPacket$ = 12					; size = 4
_p_szRealFieldName$ = 16				; size = 4
?AddDrdsAdvisedInfo@CDaiCodeGroup@@QAEHPBDPAUIPacket000000@@0@Z PROC ; CDaiCodeGroup::AddDrdsAdvisedInfo, COMDAT
; _this$ = ecx

; 52   : {

  00000	55		 push	 ebp
  00001	8b ec		 mov	 ebp, esp
  00003	6a ff		 push	 -1
  00005	68 00 00 00 00	 push	 __ehhandler$?AddDrdsAdvisedInfo@CDaiCodeGroup@@QAEHPBDPAUIPacket000000@@0@Z
  0000a	64 a1 00 00 00
	00		 mov	 eax, DWORD PTR fs:0
  00010	50		 push	 eax
  00011	51		 push	 ecx
  00012	53		 push	 ebx
  00013	56		 push	 esi
  00014	57		 push	 edi
  00015	a1 00 00 00 00	 mov	 eax, DWORD PTR ___security_cookie
  0001a	33 c5		 xor	 eax, ebp
  0001c	50		 push	 eax
  0001d	8d 45 f4	 lea	 eax, DWORD PTR __$EHRec$[ebp]
  00020	64 a3 00 00 00
	00		 mov	 DWORD PTR fs:0, eax
  00026	8b c1		 mov	 eax, ecx
  00028	89 45 f0	 mov	 DWORD PTR _this$1$[ebp], eax

; 95   : 	POSITION posDAI = GetHeadPosition();

  0002b	8b 78 0c	 mov	 edi, DWORD PTR [eax+12]

; 96   : 	while( posDAI)

  0002e	8b 5d 0c	 mov	 ebx, DWORD PTR _p_pIPacket$[ebp]
  00031	85 ff		 test	 edi, edi
  00033	74 37		 je	 SHORT $LN41@AddDrdsAdv
$LL8@AddDrdsAdv:

; 97   : 	{
; 98   : 		posPrevDAI = posDAI;
; 99   : 		CDrdsAdvisedInfo *pDAI = GetNext( posDAI);

  00035	8b 77 08	 mov	 esi, DWORD PTR [edi+8]
; File C:\Program Files (x86)\Microsoft Visual Studio\2019\Community\VC\Tools\MSVC\14.29.30133\atlmfc\include\afxcoll.inl

; 432  : 		rPosition = (POSITION) pNode->pNext;

  00038	8b 3f		 mov	 edi, DWORD PTR [edi]
; File D:\git\src\IBK\IBK_DRFN\ProjSrc\SrcChartEx\ChartOCX\AddInManager\ChartCommonAddIn\DaiCodeGroup.cpp

; 101  : 			pDAI->m_pIPacket == p_pIPacket && pDAI->m_strRealFieldName == p_szRealFieldName)

  0003a	85 f6		 test	 esi, esi
  0003c	74 2a		 je	 SHORT $LN10@AddDrdsAdv
  0003e	8b 46 0c	 mov	 eax, DWORD PTR [esi+12]
  00041	85 c0		 test	 eax, eax
  00043	74 23		 je	 SHORT $LN10@AddDrdsAdv
  00045	ff 75 08	 push	 DWORD PTR _lpszRQ$[ebp]
  00048	50		 push	 eax
  00049	ff 15 00 00 00
	00		 call	 DWORD PTR __imp__lstrcmpA@8
  0004f	85 c0		 test	 eax, eax
  00051	75 15		 jne	 SHORT $LN10@AddDrdsAdv
  00053	39 5e 04	 cmp	 DWORD PTR [esi+4], ebx
  00056	75 10		 jne	 SHORT $LN10@AddDrdsAdv
; File C:\Program Files (x86)\Microsoft Visual Studio\2019\Community\VC\Tools\MSVC\14.29.30133\atlmfc\include\cstringt.h

; 2486 : 		return(str1.Compare(psz2) == 0);

  00058	ff 75 10	 push	 DWORD PTR _p_szRealFieldName$[ebp]
; File D:\git\src\IBK\IBK_DRFN\ProjSrc\SrcChartEx\ChartOCX\AddInManager\ChartCommonAddIn\DaiCodeGroup.cpp

; 101  : 			pDAI->m_pIPacket == p_pIPacket && pDAI->m_strRealFieldName == p_szRealFieldName)

  0005b	8d 4e 08	 lea	 ecx, DWORD PTR [esi+8]
; File C:\Program Files (x86)\Microsoft Visual Studio\2019\Community\VC\Tools\MSVC\14.29.30133\atlmfc\include\cstringt.h

; 2486 : 		return(str1.Compare(psz2) == 0);

  0005e	ff 15 00 00 00
	00		 call	 DWORD PTR __imp_?Compare@?$CStringT@DV?$StrTraitMFC_DLL@DV?$ChTraitsCRT@D@ATL@@@@@ATL@@QBEHPBD@Z
  00064	85 c0		 test	 eax, eax
; File D:\git\src\IBK\IBK_DRFN\ProjSrc\SrcChartEx\ChartOCX\AddInManager\ChartCommonAddIn\DaiCodeGroup.cpp

; 101  : 			pDAI->m_pIPacket == p_pIPacket && pDAI->m_strRealFieldName == p_szRealFieldName)

  00066	74 5e		 je	 SHORT $LN40@AddDrdsAdv
$LN10@AddDrdsAdv:

; 96   : 	while( posDAI)

  00068	85 ff		 test	 edi, edi
  0006a	75 c9		 jne	 SHORT $LL8@AddDrdsAdv
$LN41@AddDrdsAdv:
; File C:\Program Files (x86)\Microsoft Visual Studio\2019\Community\VC\Tools\MSVC\14.29.30133\atlmfc\include\afx.inl

; 116  : 	{ return ::operator new(nSize); }

  0006c	6a 10		 push	 16			; 00000010H
  0006e	e8 00 00 00 00	 call	 ??2@YAPAXI@Z		; operator new
; File D:\git\src\IBK\IBK_DRFN\ProjSrc\SrcChartEx\ChartOCX\AddInManager\ChartCommonAddIn\DaiCodeGroup.cpp

; 57   : 	AddTail( new CDrdsAdvisedInfo(lpszRQ, p_pIPacket, p_szRealFieldName));

  00073	8b f8		 mov	 edi, eax
; File C:\Program Files (x86)\Microsoft Visual Studio\2019\Community\VC\Tools\MSVC\14.29.30133\atlmfc\include\afx.inl

; 116  : 	{ return ::operator new(nSize); }

  00075	83 c4 04	 add	 esp, 4
; File D:\git\src\IBK\IBK_DRFN\ProjSrc\SrcChartEx\ChartOCX\AddInManager\ChartCommonAddIn\DaiCodeGroup.cpp

; 57   : 	AddTail( new CDrdsAdvisedInfo(lpszRQ, p_pIPacket, p_szRealFieldName));

  00078	89 7d 0c	 mov	 DWORD PTR $T2[ebp], edi
  0007b	c7 45 fc 00 00
	00 00		 mov	 DWORD PTR __$EHRec$[ebp+8], 0
  00082	85 ff		 test	 edi, edi
  00084	74 56		 je	 SHORT $LN4@AddDrdsAdv
; File D:\git\src\IBK\IBK_DRFN\ProjSrc\SrcChartEx\ChartOCX\AddInManager\ChartCommonAddIn\DaiCodeGroup.h

; 30   : 	CDrdsAdvisedInfo(LPCTSTR lpszRQ, IPacket *p_pIPacket, const char *p_szRealFieldName)

  00086	8d 4f 08	 lea	 ecx, DWORD PTR [edi+8]
  00089	c7 07 00 00 00
	00		 mov	 DWORD PTR [edi], OFFSET ??_7CDrdsAdvisedInfo@@6B@
  0008f	ff 15 00 00 00
	00		 call	 DWORD PTR __imp_??0?$CStringT@DV?$StrTraitMFC_DLL@DV?$ChTraitsCRT@D@ATL@@@@@ATL@@QAE@XZ

; 31   : 	{
; 32   : 		m_lpszRQ				= ::strdup(lpszRQ);

  00095	ff 75 08	 push	 DWORD PTR _lpszRQ$[ebp]
  00098	c6 45 fc 01	 mov	 BYTE PTR __$EHRec$[ebp+8], 1
  0009c	ff 15 00 00 00
	00		 call	 DWORD PTR __imp__strdup
  000a2	83 c4 04	 add	 esp, 4
  000a5	89 47 0c	 mov	 DWORD PTR [edi+12], eax

; 33   : 		m_pIPacket				= p_pIPacket;
; 34   : 		m_strRealFieldName		= p_szRealFieldName;

  000a8	8d 4f 08	 lea	 ecx, DWORD PTR [edi+8]
  000ab	89 5f 04	 mov	 DWORD PTR [edi+4], ebx
  000ae	ff 75 10	 push	 DWORD PTR _p_szRealFieldName$[ebp]
  000b1	ff 15 00 00 00
	00		 call	 DWORD PTR __imp_??4?$CStringT@DV?$StrTraitMFC_DLL@DV?$ChTraitsCRT@D@ATL@@@@@ATL@@QAEAAV01@PBD@Z

; 35   : 		if( m_pIPacket) m_pIPacket->AddRef();

  000b7	8b 4f 04	 mov	 ecx, DWORD PTR [edi+4]
  000ba	85 c9		 test	 ecx, ecx
  000bc	74 20		 je	 SHORT $LN5@AddDrdsAdv
  000be	8b 01		 mov	 eax, DWORD PTR [ecx]
  000c0	51		 push	 ecx
  000c1	ff 50 04	 call	 DWORD PTR [eax+4]
; File D:\git\src\IBK\IBK_DRFN\ProjSrc\SrcChartEx\ChartOCX\AddInManager\ChartCommonAddIn\DaiCodeGroup.cpp

; 57   : 	AddTail( new CDrdsAdvisedInfo(lpszRQ, p_pIPacket, p_szRealFieldName));

  000c4	eb 18		 jmp	 SHORT $LN5@AddDrdsAdv
$LN40@AddDrdsAdv:

; 53   : 	// 0. 이미 등록되어 있는지 확인한다.
; 54   : 	if( FindDrdsAdvisedInfo(lpszRQ, p_pIPacket, p_szRealFieldName)) return FALSE;

  000c6	33 c0		 xor	 eax, eax

; 60   : }

  000c8	8b 4d f4	 mov	 ecx, DWORD PTR __$EHRec$[ebp]
  000cb	64 89 0d 00 00
	00 00		 mov	 DWORD PTR fs:0, ecx
  000d2	59		 pop	 ecx
  000d3	5f		 pop	 edi
  000d4	5e		 pop	 esi
  000d5	5b		 pop	 ebx
  000d6	8b e5		 mov	 esp, ebp
  000d8	5d		 pop	 ebp
  000d9	c2 0c 00	 ret	 12			; 0000000cH
$LN4@AddDrdsAdv:

; 57   : 	AddTail( new CDrdsAdvisedInfo(lpszRQ, p_pIPacket, p_szRealFieldName));

  000dc	33 ff		 xor	 edi, edi
$LN5@AddDrdsAdv:
; File D:\git\src\IBK\IBK_DRFN\ProjSrc\SrcChartEx\ChartOCX\AddInManager\ChartCommonAddIn\DaiCodeGroup.h

; 76   : 	POSITION			AddTail( CDrdsAdvisedInfo *newElement)	{	return m_lDaiCodeGroup.AddTail( newElement);	}

  000de	8b 4d f0	 mov	 ecx, DWORD PTR _this$1$[ebp]
; File C:\Program Files (x86)\Microsoft Visual Studio\2019\Community\VC\Tools\MSVC\14.29.30133\atlmfc\include\afxtempl.h

; 1959 : 		{ return BASE_CLASS::AddTail(newElement); }

  000e1	57		 push	 edi
; File D:\git\src\IBK\IBK_DRFN\ProjSrc\SrcChartEx\ChartOCX\AddInManager\ChartCommonAddIn\DaiCodeGroup.h

; 76   : 	POSITION			AddTail( CDrdsAdvisedInfo *newElement)	{	return m_lDaiCodeGroup.AddTail( newElement);	}

  000e2	83 c1 08	 add	 ecx, 8
; File D:\git\src\IBK\IBK_DRFN\ProjSrc\SrcChartEx\ChartOCX\AddInManager\ChartCommonAddIn\DaiCodeGroup.cpp

; 57   : 	AddTail( new CDrdsAdvisedInfo(lpszRQ, p_pIPacket, p_szRealFieldName));

  000e5	c7 45 fc ff ff
	ff ff		 mov	 DWORD PTR __$EHRec$[ebp+8], -1
; File C:\Program Files (x86)\Microsoft Visual Studio\2019\Community\VC\Tools\MSVC\14.29.30133\atlmfc\include\afxtempl.h

; 1959 : 		{ return BASE_CLASS::AddTail(newElement); }

  000ec	e8 00 00 00 00	 call	 ?AddTail@CObList@@QAEPAU__POSITION@@PAVCObject@@@Z ; CObList::AddTail
; File D:\git\src\IBK\IBK_DRFN\ProjSrc\SrcChartEx\ChartOCX\AddInManager\ChartCommonAddIn\DaiCodeGroup.cpp

; 59   : 	return TRUE;

  000f1	b8 01 00 00 00	 mov	 eax, 1

; 60   : }

  000f6	8b 4d f4	 mov	 ecx, DWORD PTR __$EHRec$[ebp]
  000f9	64 89 0d 00 00
	00 00		 mov	 DWORD PTR fs:0, ecx
  00100	59		 pop	 ecx
  00101	5f		 pop	 edi
  00102	5e		 pop	 esi
  00103	5b		 pop	 ebx
  00104	8b e5		 mov	 esp, ebp
  00106	5d		 pop	 ebp
  00107	c2 0c 00	 ret	 12			; 0000000cH
_TEXT	ENDS
;	COMDAT text$x
text$x	SEGMENT
__unwindfunclet$?AddDrdsAdvisedInfo@CDaiCodeGroup@@QAEHPBDPAUIPacket000000@@0@Z$0:
  00000	8b 45 0c	 mov	 eax, DWORD PTR $T2[ebp]
  00003	50		 push	 eax
  00004	e8 00 00 00 00	 call	 ??3CObject@@SGXPAX@Z	; CObject::operator delete
  00009	c3		 ret	 0
__unwindfunclet$?AddDrdsAdvisedInfo@CDaiCodeGroup@@QAEHPBDPAUIPacket000000@@0@Z$1:
  0000a	8b 4d 0c	 mov	 ecx, DWORD PTR $T2[ebp]
  0000d	83 c1 08	 add	 ecx, 8
  00010	ff 25 00 00 00
	00		 jmp	 DWORD PTR __imp_??1?$CStringT@DV?$StrTraitMFC_DLL@DV?$ChTraitsCRT@D@ATL@@@@@ATL@@QAE@XZ
  00016	cc		 int	 3
  00017	cc		 int	 3
  00018	cc		 int	 3
  00019	cc		 int	 3
  0001a	cc		 int	 3
__ehhandler$?AddDrdsAdvisedInfo@CDaiCodeGroup@@QAEHPBDPAUIPacket000000@@0@Z:
  0001b	90		 npad	 1
  0001c	90		 npad	 1
  0001d	8b 54 24 08	 mov	 edx, DWORD PTR [esp+8]
  00021	8d 42 0c	 lea	 eax, DWORD PTR [edx+12]
  00024	8b 4a ec	 mov	 ecx, DWORD PTR [edx-20]
  00027	33 c8		 xor	 ecx, eax
  00029	e8 00 00 00 00	 call	 @__security_check_cookie@4
  0002e	b8 00 00 00 00	 mov	 eax, OFFSET __ehfuncinfo$?AddDrdsAdvisedInfo@CDaiCodeGroup@@QAEHPBDPAUIPacket000000@@0@Z
  00033	e9 00 00 00 00	 jmp	 ___CxxFrameHandler3
text$x	ENDS
?AddDrdsAdvisedInfo@CDaiCodeGroup@@QAEHPBDPAUIPacket000000@@0@Z ENDP ; CDaiCodeGroup::AddDrdsAdvisedInfo
; Function compile flags: /Ogtp
; File D:\git\src\IBK\IBK_DRFN\ProjSrc\SrcChartEx\ChartOCX\AddInManager\ChartCommonAddIn\DaiCodeGroup.cpp
; File C:\Program Files (x86)\Microsoft Visual Studio\2019\Community\VC\Tools\MSVC\14.29.30133\atlmfc\include\afxcoll.inl
; File D:\git\src\IBK\IBK_DRFN\ProjSrc\SrcChartEx\ChartOCX\AddInManager\ChartCommonAddIn\DaiCodeGroup.cpp
; File C:\Program Files (x86)\Microsoft Visual Studio\2019\Community\VC\Tools\MSVC\14.29.30133\atlmfc\include\cstringt.h
; File D:\git\src\IBK\IBK_DRFN\ProjSrc\SrcChartEx\ChartOCX\AddInManager\ChartCommonAddIn\DaiCodeGroup.cpp
; File C:\Program Files (x86)\Microsoft Visual Studio\2019\Community\VC\Tools\MSVC\14.29.30133\atlmfc\include\cstringt.h
; File D:\git\src\IBK\IBK_DRFN\ProjSrc\SrcChartEx\ChartOCX\AddInManager\ChartCommonAddIn\DaiCodeGroup.cpp
; File C:\Program Files (x86)\Microsoft Visual Studio\2019\Community\VC\Tools\MSVC\14.29.30133\atlmfc\include\afx.inl
; File D:\git\src\IBK\IBK_DRFN\ProjSrc\SrcChartEx\ChartOCX\AddInManager\ChartCommonAddIn\DaiCodeGroup.cpp
; File C:\Program Files (x86)\Microsoft Visual Studio\2019\Community\VC\Tools\MSVC\14.29.30133\atlmfc\include\afx.inl
; File D:\git\src\IBK\IBK_DRFN\ProjSrc\SrcChartEx\ChartOCX\AddInManager\ChartCommonAddIn\DaiCodeGroup.cpp
; File D:\git\src\IBK\IBK_DRFN\ProjSrc\SrcChartEx\ChartOCX\AddInManager\ChartCommonAddIn\DaiCodeGroup.h
; File D:\git\src\IBK\IBK_DRFN\ProjSrc\SrcChartEx\ChartOCX\AddInManager\ChartCommonAddIn\DaiCodeGroup.cpp
; File D:\git\src\IBK\IBK_DRFN\ProjSrc\SrcChartEx\ChartOCX\AddInManager\ChartCommonAddIn\DaiCodeGroup.h
; File C:\Program Files (x86)\Microsoft Visual Studio\2019\Community\VC\Tools\MSVC\14.29.30133\atlmfc\include\afxtempl.h
; File D:\git\src\IBK\IBK_DRFN\ProjSrc\SrcChartEx\ChartOCX\AddInManager\ChartCommonAddIn\DaiCodeGroup.h
; File D:\git\src\IBK\IBK_DRFN\ProjSrc\SrcChartEx\ChartOCX\AddInManager\ChartCommonAddIn\DaiCodeGroup.cpp
; File C:\Program Files (x86)\Microsoft Visual Studio\2019\Community\VC\Tools\MSVC\14.29.30133\atlmfc\include\afxtempl.h
; File D:\git\src\IBK\IBK_DRFN\ProjSrc\SrcChartEx\ChartOCX\AddInManager\ChartCommonAddIn\DaiCodeGroup.cpp
;	COMDAT ?AddDrdsAdvisedInfo@CDaiCodeGroup@@QAEHPAUIPacket000000@@PBD@Z
_TEXT	SEGMENT
_this$1$ = -16						; size = 4
__$EHRec$ = -12						; size = 12
$T2 = 8							; size = 4
_p_pIPacket$ = 8					; size = 4
_p_szRealFieldName$ = 12				; size = 4
?AddDrdsAdvisedInfo@CDaiCodeGroup@@QAEHPAUIPacket000000@@PBD@Z PROC ; CDaiCodeGroup::AddDrdsAdvisedInfo, COMDAT
; _this$ = ecx

; 40   : {

  00000	55		 push	 ebp
  00001	8b ec		 mov	 ebp, esp
  00003	6a ff		 push	 -1
  00005	68 00 00 00 00	 push	 __ehhandler$?AddDrdsAdvisedInfo@CDaiCodeGroup@@QAEHPAUIPacket000000@@PBD@Z
  0000a	64 a1 00 00 00
	00		 mov	 eax, DWORD PTR fs:0
  00010	50		 push	 eax
  00011	51		 push	 ecx
  00012	53		 push	 ebx
  00013	56		 push	 esi
  00014	57		 push	 edi
  00015	a1 00 00 00 00	 mov	 eax, DWORD PTR ___security_cookie
  0001a	33 c5		 xor	 eax, ebp
  0001c	50		 push	 eax
  0001d	8d 45 f4	 lea	 eax, DWORD PTR __$EHRec$[ebp]
  00020	64 a3 00 00 00
	00		 mov	 DWORD PTR fs:0, eax
  00026	8b c1		 mov	 eax, ecx
  00028	89 45 f0	 mov	 DWORD PTR _this$1$[ebp], eax

; 80   : 	POSITION posDAI = GetHeadPosition();

  0002b	8b 70 0c	 mov	 esi, DWORD PTR [eax+12]

; 81   : 	while( posDAI)

  0002e	8b 5d 08	 mov	 ebx, DWORD PTR _p_pIPacket$[ebp]
  00031	85 f6		 test	 esi, esi
  00033	74 1e		 je	 SHORT $LN41@AddDrdsAdv
$LL8@AddDrdsAdv:

; 82   : 	{
; 83   : 		posPrevDAI = posDAI;
; 84   : 		CDrdsAdvisedInfo *pDAI = GetNext( posDAI);

  00035	8b 4e 08	 mov	 ecx, DWORD PTR [esi+8]
; File C:\Program Files (x86)\Microsoft Visual Studio\2019\Community\VC\Tools\MSVC\14.29.30133\atlmfc\include\afxcoll.inl

; 432  : 		rPosition = (POSITION) pNode->pNext;

  00038	8b 36		 mov	 esi, DWORD PTR [esi]
; File D:\git\src\IBK\IBK_DRFN\ProjSrc\SrcChartEx\ChartOCX\AddInManager\ChartCommonAddIn\DaiCodeGroup.cpp

; 85   : 		if( pDAI->m_pIPacket == p_pIPacket && pDAI->m_strRealFieldName == p_szRealFieldName)

  0003a	39 59 04	 cmp	 DWORD PTR [ecx+4], ebx
  0003d	75 10		 jne	 SHORT $LN10@AddDrdsAdv
; File C:\Program Files (x86)\Microsoft Visual Studio\2019\Community\VC\Tools\MSVC\14.29.30133\atlmfc\include\cstringt.h

; 2486 : 		return(str1.Compare(psz2) == 0);

  0003f	ff 75 0c	 push	 DWORD PTR _p_szRealFieldName$[ebp]
; File D:\git\src\IBK\IBK_DRFN\ProjSrc\SrcChartEx\ChartOCX\AddInManager\ChartCommonAddIn\DaiCodeGroup.cpp

; 85   : 		if( pDAI->m_pIPacket == p_pIPacket && pDAI->m_strRealFieldName == p_szRealFieldName)

  00042	83 c1 08	 add	 ecx, 8
; File C:\Program Files (x86)\Microsoft Visual Studio\2019\Community\VC\Tools\MSVC\14.29.30133\atlmfc\include\cstringt.h

; 2486 : 		return(str1.Compare(psz2) == 0);

  00045	ff 15 00 00 00
	00		 call	 DWORD PTR __imp_?Compare@?$CStringT@DV?$StrTraitMFC_DLL@DV?$ChTraitsCRT@D@ATL@@@@@ATL@@QBEHPBD@Z
  0004b	85 c0		 test	 eax, eax
; File D:\git\src\IBK\IBK_DRFN\ProjSrc\SrcChartEx\ChartOCX\AddInManager\ChartCommonAddIn\DaiCodeGroup.cpp

; 85   : 		if( pDAI->m_pIPacket == p_pIPacket && pDAI->m_strRealFieldName == p_szRealFieldName)

  0004d	74 56		 je	 SHORT $LN40@AddDrdsAdv
$LN10@AddDrdsAdv:

; 81   : 	while( posDAI)

  0004f	85 f6		 test	 esi, esi
  00051	75 e2		 jne	 SHORT $LL8@AddDrdsAdv
$LN41@AddDrdsAdv:
; File C:\Program Files (x86)\Microsoft Visual Studio\2019\Community\VC\Tools\MSVC\14.29.30133\atlmfc\include\afx.inl

; 116  : 	{ return ::operator new(nSize); }

  00053	6a 10		 push	 16			; 00000010H
  00055	e8 00 00 00 00	 call	 ??2@YAPAXI@Z		; operator new
; File D:\git\src\IBK\IBK_DRFN\ProjSrc\SrcChartEx\ChartOCX\AddInManager\ChartCommonAddIn\DaiCodeGroup.cpp

; 45   : 	AddTail( new CDrdsAdvisedInfo( p_pIPacket, p_szRealFieldName));

  0005a	8b f8		 mov	 edi, eax
; File C:\Program Files (x86)\Microsoft Visual Studio\2019\Community\VC\Tools\MSVC\14.29.30133\atlmfc\include\afx.inl

; 116  : 	{ return ::operator new(nSize); }

  0005c	83 c4 04	 add	 esp, 4
; File D:\git\src\IBK\IBK_DRFN\ProjSrc\SrcChartEx\ChartOCX\AddInManager\ChartCommonAddIn\DaiCodeGroup.cpp

; 45   : 	AddTail( new CDrdsAdvisedInfo( p_pIPacket, p_szRealFieldName));

  0005f	89 7d 08	 mov	 DWORD PTR $T2[ebp], edi
  00062	c7 45 fc 00 00
	00 00		 mov	 DWORD PTR __$EHRec$[ebp+8], 0
  00069	85 ff		 test	 edi, edi
  0006b	74 4e		 je	 SHORT $LN4@AddDrdsAdv
; File D:\git\src\IBK\IBK_DRFN\ProjSrc\SrcChartEx\ChartOCX\AddInManager\ChartCommonAddIn\DaiCodeGroup.h

; 21   : 	CDrdsAdvisedInfo( IPacket *p_pIPacket, const char *p_szRealFieldName)

  0006d	8d 4f 08	 lea	 ecx, DWORD PTR [edi+8]
  00070	c7 07 00 00 00
	00		 mov	 DWORD PTR [edi], OFFSET ??_7CDrdsAdvisedInfo@@6B@
  00076	ff 15 00 00 00
	00		 call	 DWORD PTR __imp_??0?$CStringT@DV?$StrTraitMFC_DLL@DV?$ChTraitsCRT@D@ATL@@@@@ATL@@QAE@XZ

; 22   : 	{
; 23   : 		// RQ별 DRDS관리 : 복수종목 - ojtaso (20070111)
; 24   : 		m_lpszRQ				= NULL;
; 25   : 		m_pIPacket				= p_pIPacket;
; 26   : 		m_strRealFieldName		= p_szRealFieldName;

  0007c	ff 75 0c	 push	 DWORD PTR _p_szRealFieldName$[ebp]
  0007f	8d 4f 08	 lea	 ecx, DWORD PTR [edi+8]
  00082	c6 45 fc 01	 mov	 BYTE PTR __$EHRec$[ebp+8], 1
  00086	c7 47 0c 00 00
	00 00		 mov	 DWORD PTR [edi+12], 0
  0008d	89 5f 04	 mov	 DWORD PTR [edi+4], ebx
  00090	ff 15 00 00 00
	00		 call	 DWORD PTR __imp_??4?$CStringT@DV?$StrTraitMFC_DLL@DV?$ChTraitsCRT@D@ATL@@@@@ATL@@QAEAAV01@PBD@Z

; 27   : 		if( m_pIPacket) m_pIPacket->AddRef();

  00096	8b 4f 04	 mov	 ecx, DWORD PTR [edi+4]
  00099	85 c9		 test	 ecx, ecx
  0009b	74 20		 je	 SHORT $LN5@AddDrdsAdv
  0009d	8b 01		 mov	 eax, DWORD PTR [ecx]
  0009f	51		 push	 ecx
  000a0	ff 50 04	 call	 DWORD PTR [eax+4]
; File D:\git\src\IBK\IBK_DRFN\ProjSrc\SrcChartEx\ChartOCX\AddInManager\ChartCommonAddIn\DaiCodeGroup.cpp

; 45   : 	AddTail( new CDrdsAdvisedInfo( p_pIPacket, p_szRealFieldName));

  000a3	eb 18		 jmp	 SHORT $LN5@AddDrdsAdv
$LN40@AddDrdsAdv:

; 41   : 	// 0. 이미 등록되어 있는지 확인한다.
; 42   : 	if( FindDrdsAdvisedInfo( p_pIPacket, p_szRealFieldName)) return FALSE;

  000a5	33 c0		 xor	 eax, eax

; 48   : }

  000a7	8b 4d f4	 mov	 ecx, DWORD PTR __$EHRec$[ebp]
  000aa	64 89 0d 00 00
	00 00		 mov	 DWORD PTR fs:0, ecx
  000b1	59		 pop	 ecx
  000b2	5f		 pop	 edi
  000b3	5e		 pop	 esi
  000b4	5b		 pop	 ebx
  000b5	8b e5		 mov	 esp, ebp
  000b7	5d		 pop	 ebp
  000b8	c2 08 00	 ret	 8
$LN4@AddDrdsAdv:

; 45   : 	AddTail( new CDrdsAdvisedInfo( p_pIPacket, p_szRealFieldName));

  000bb	33 ff		 xor	 edi, edi
$LN5@AddDrdsAdv:
; File D:\git\src\IBK\IBK_DRFN\ProjSrc\SrcChartEx\ChartOCX\AddInManager\ChartCommonAddIn\DaiCodeGroup.h

; 76   : 	POSITION			AddTail( CDrdsAdvisedInfo *newElement)	{	return m_lDaiCodeGroup.AddTail( newElement);	}

  000bd	8b 4d f0	 mov	 ecx, DWORD PTR _this$1$[ebp]
; File C:\Program Files (x86)\Microsoft Visual Studio\2019\Community\VC\Tools\MSVC\14.29.30133\atlmfc\include\afxtempl.h

; 1959 : 		{ return BASE_CLASS::AddTail(newElement); }

  000c0	57		 push	 edi
; File D:\git\src\IBK\IBK_DRFN\ProjSrc\SrcChartEx\ChartOCX\AddInManager\ChartCommonAddIn\DaiCodeGroup.h

; 76   : 	POSITION			AddTail( CDrdsAdvisedInfo *newElement)	{	return m_lDaiCodeGroup.AddTail( newElement);	}

  000c1	83 c1 08	 add	 ecx, 8
; File D:\git\src\IBK\IBK_DRFN\ProjSrc\SrcChartEx\ChartOCX\AddInManager\ChartCommonAddIn\DaiCodeGroup.cpp

; 45   : 	AddTail( new CDrdsAdvisedInfo( p_pIPacket, p_szRealFieldName));

  000c4	c7 45 fc ff ff
	ff ff		 mov	 DWORD PTR __$EHRec$[ebp+8], -1
; File C:\Program Files (x86)\Microsoft Visual Studio\2019\Community\VC\Tools\MSVC\14.29.30133\atlmfc\include\afxtempl.h

; 1959 : 		{ return BASE_CLASS::AddTail(newElement); }

  000cb	e8 00 00 00 00	 call	 ?AddTail@CObList@@QAEPAU__POSITION@@PAVCObject@@@Z ; CObList::AddTail
; File D:\git\src\IBK\IBK_DRFN\ProjSrc\SrcChartEx\ChartOCX\AddInManager\ChartCommonAddIn\DaiCodeGroup.cpp

; 47   : 	return TRUE;

  000d0	b8 01 00 00 00	 mov	 eax, 1

; 48   : }

  000d5	8b 4d f4	 mov	 ecx, DWORD PTR __$EHRec$[ebp]
  000d8	64 89 0d 00 00
	00 00		 mov	 DWORD PTR fs:0, ecx
  000df	59		 pop	 ecx
  000e0	5f		 pop	 edi
  000e1	5e		 pop	 esi
  000e2	5b		 pop	 ebx
  000e3	8b e5		 mov	 esp, ebp
  000e5	5d		 pop	 ebp
  000e6	c2 08 00	 ret	 8
_TEXT	ENDS
;	COMDAT text$x
text$x	SEGMENT
__unwindfunclet$?AddDrdsAdvisedInfo@CDaiCodeGroup@@QAEHPAUIPacket000000@@PBD@Z$0:
  00000	8b 45 08	 mov	 eax, DWORD PTR $T2[ebp]
  00003	50		 push	 eax
  00004	e8 00 00 00 00	 call	 ??3CObject@@SGXPAX@Z	; CObject::operator delete
  00009	c3		 ret	 0
__unwindfunclet$?AddDrdsAdvisedInfo@CDaiCodeGroup@@QAEHPAUIPacket000000@@PBD@Z$1:
  0000a	8b 4d 08	 mov	 ecx, DWORD PTR $T2[ebp]
  0000d	83 c1 08	 add	 ecx, 8
  00010	ff 25 00 00 00
	00		 jmp	 DWORD PTR __imp_??1?$CStringT@DV?$StrTraitMFC_DLL@DV?$ChTraitsCRT@D@ATL@@@@@ATL@@QAE@XZ
  00016	cc		 int	 3
  00017	cc		 int	 3
  00018	cc		 int	 3
  00019	cc		 int	 3
  0001a	cc		 int	 3
__ehhandler$?AddDrdsAdvisedInfo@CDaiCodeGroup@@QAEHPAUIPacket000000@@PBD@Z:
  0001b	90		 npad	 1
  0001c	90		 npad	 1
  0001d	8b 54 24 08	 mov	 edx, DWORD PTR [esp+8]
  00021	8d 42 0c	 lea	 eax, DWORD PTR [edx+12]
  00024	8b 4a ec	 mov	 ecx, DWORD PTR [edx-20]
  00027	33 c8		 xor	 ecx, eax
  00029	e8 00 00 00 00	 call	 @__security_check_cookie@4
  0002e	b8 00 00 00 00	 mov	 eax, OFFSET __ehfuncinfo$?AddDrdsAdvisedInfo@CDaiCodeGroup@@QAEHPAUIPacket000000@@PBD@Z
  00033	e9 00 00 00 00	 jmp	 ___CxxFrameHandler3
text$x	ENDS
?AddDrdsAdvisedInfo@CDaiCodeGroup@@QAEHPAUIPacket000000@@PBD@Z ENDP ; CDaiCodeGroup::AddDrdsAdvisedInfo
; Function compile flags: /Ogtp
; File C:\Program Files (x86)\Microsoft Visual Studio\2019\Community\VC\Tools\MSVC\14.29.30133\atlmfc\include\afx.inl
;	COMDAT ??_G?$CTypedPtrList@VCObList@@PAVCDrdsAdvisedInfo@@@@UAEPAXI@Z
_TEXT	SEGMENT
___flags$ = 8						; size = 4
??_G?$CTypedPtrList@VCObList@@PAVCDrdsAdvisedInfo@@@@UAEPAXI@Z PROC ; CTypedPtrList<CObList,CDrdsAdvisedInfo *>::`scalar deleting destructor', COMDAT
; _this$ = ecx
  00000	55		 push	 ebp
  00001	8b ec		 mov	 ebp, esp
  00003	56		 push	 esi
  00004	8b f1		 mov	 esi, ecx
  00006	e8 00 00 00 00	 call	 ??1CObList@@UAE@XZ	; CObList::~CObList
  0000b	8b 45 08	 mov	 eax, DWORD PTR ___flags$[ebp]
  0000e	a8 01		 test	 al, 1
  00010	74 1f		 je	 SHORT $LN15@scalar
  00012	a8 04		 test	 al, 4
  00014	75 10		 jne	 SHORT $LN3@scalar

; 112  : 	{ ::operator delete(p); }

  00016	56		 push	 esi
  00017	e8 00 00 00 00	 call	 ??3@YAXPAX@Z		; operator delete
  0001c	83 c4 04	 add	 esp, 4
  0001f	8b c6		 mov	 eax, esi
  00021	5e		 pop	 esi
  00022	5d		 pop	 ebp
  00023	c2 04 00	 ret	 4
$LN3@scalar:
  00026	6a 1c		 push	 28			; 0000001cH
  00028	56		 push	 esi
  00029	e8 00 00 00 00	 call	 ?__global_delete@@YAXPAXI@Z ; __global_delete
  0002e	83 c4 08	 add	 esp, 8
$LN15@scalar:
  00031	8b c6		 mov	 eax, esi
  00033	5e		 pop	 esi
  00034	5d		 pop	 ebp
  00035	c2 04 00	 ret	 4
??_G?$CTypedPtrList@VCObList@@PAVCDrdsAdvisedInfo@@@@UAEPAXI@Z ENDP ; CTypedPtrList<CObList,CDrdsAdvisedInfo *>::`scalar deleting destructor'
_TEXT	ENDS
; Function compile flags: /Ogtp
;	COMDAT ??1?$CTypedPtrList@VCObList@@PAVCDrdsAdvisedInfo@@@@UAE@XZ
_TEXT	SEGMENT
??1?$CTypedPtrList@VCObList@@PAVCDrdsAdvisedInfo@@@@UAE@XZ PROC ; CTypedPtrList<CObList,CDrdsAdvisedInfo *>::~CTypedPtrList<CObList,CDrdsAdvisedInfo *>, COMDAT
; _this$ = ecx
  00000	e9 00 00 00 00	 jmp	 ??1CObList@@UAE@XZ	; CObList::~CObList
??1?$CTypedPtrList@VCObList@@PAVCDrdsAdvisedInfo@@@@UAE@XZ ENDP ; CTypedPtrList<CObList,CDrdsAdvisedInfo *>::~CTypedPtrList<CObList,CDrdsAdvisedInfo *>
_TEXT	ENDS
; Function compile flags: /Ogtp
; File C:\Program Files (x86)\Microsoft Visual Studio\2019\Community\VC\Tools\MSVC\14.29.30133\atlmfc\include\afx.inl
;	COMDAT ??_G?$_CTypedPtrList@VCObList@@PAVCDrdsAdvisedInfo@@@@UAEPAXI@Z
_TEXT	SEGMENT
___flags$ = 8						; size = 4
??_G?$_CTypedPtrList@VCObList@@PAVCDrdsAdvisedInfo@@@@UAEPAXI@Z PROC ; _CTypedPtrList<CObList,CDrdsAdvisedInfo *>::`scalar deleting destructor', COMDAT
; _this$ = ecx
  00000	55		 push	 ebp
  00001	8b ec		 mov	 ebp, esp
  00003	56		 push	 esi
  00004	8b f1		 mov	 esi, ecx
  00006	e8 00 00 00 00	 call	 ??1CObList@@UAE@XZ	; CObList::~CObList
  0000b	8b 45 08	 mov	 eax, DWORD PTR ___flags$[ebp]
  0000e	a8 01		 test	 al, 1
  00010	74 1f		 je	 SHORT $LN12@scalar
  00012	a8 04		 test	 al, 4
  00014	75 10		 jne	 SHORT $LN3@scalar

; 112  : 	{ ::operator delete(p); }

  00016	56		 push	 esi
  00017	e8 00 00 00 00	 call	 ??3@YAXPAX@Z		; operator delete
  0001c	83 c4 04	 add	 esp, 4
  0001f	8b c6		 mov	 eax, esi
  00021	5e		 pop	 esi
  00022	5d		 pop	 ebp
  00023	c2 04 00	 ret	 4
$LN3@scalar:
  00026	6a 1c		 push	 28			; 0000001cH
  00028	56		 push	 esi
  00029	e8 00 00 00 00	 call	 ?__global_delete@@YAXPAXI@Z ; __global_delete
  0002e	83 c4 08	 add	 esp, 8
$LN12@scalar:
  00031	8b c6		 mov	 eax, esi
  00033	5e		 pop	 esi
  00034	5d		 pop	 ebp
  00035	c2 04 00	 ret	 4
??_G?$_CTypedPtrList@VCObList@@PAVCDrdsAdvisedInfo@@@@UAEPAXI@Z ENDP ; _CTypedPtrList<CObList,CDrdsAdvisedInfo *>::`scalar deleting destructor'
_TEXT	ENDS
; Function compile flags: /Ogtp
; File D:\git\src\IBK\IBK_DRFN\ProjSrc\SrcChartEx\ChartOCX\AddInManager\ChartCommonAddIn\DaiCodeGroup.cpp
; File C:\Program Files (x86)\Microsoft Visual Studio\2019\Community\VC\Tools\MSVC\14.29.30133\atlmfc\include\afxcoll.inl
; File D:\git\src\IBK\IBK_DRFN\ProjSrc\SrcChartEx\ChartOCX\AddInManager\ChartCommonAddIn\DaiCodeGroup.cpp
; File C:\Program Files (x86)\Microsoft Visual Studio\2019\Community\VC\Tools\MSVC\14.29.30133\atlmfc\include\afxtempl.h
; File D:\git\src\IBK\IBK_DRFN\ProjSrc\SrcChartEx\ChartOCX\AddInManager\ChartCommonAddIn\DaiCodeGroup.cpp
; File C:\Program Files (x86)\Microsoft Visual Studio\2019\Community\VC\Tools\MSVC\14.29.30133\atlmfc\include\afxcoll.inl
; File D:\git\src\IBK\IBK_DRFN\ProjSrc\SrcChartEx\ChartOCX\AddInManager\ChartCommonAddIn\DaiCodeGroup.cpp
;	COMDAT ??1CDaiCodeGroup@@UAE@XZ
_TEXT	SEGMENT
__$EHRec$ = -12						; size = 12
??1CDaiCodeGroup@@UAE@XZ PROC				; CDaiCodeGroup::~CDaiCodeGroup, COMDAT
; _this$ = ecx

; 29   : {

  00000	55		 push	 ebp
  00001	8b ec		 mov	 ebp, esp
  00003	6a ff		 push	 -1
  00005	68 00 00 00 00	 push	 __ehhandler$??1CDaiCodeGroup@@UAE@XZ
  0000a	64 a1 00 00 00
	00		 mov	 eax, DWORD PTR fs:0
  00010	50		 push	 eax
  00011	56		 push	 esi
  00012	57		 push	 edi
  00013	a1 00 00 00 00	 mov	 eax, DWORD PTR ___security_cookie
  00018	33 c5		 xor	 eax, ebp
  0001a	50		 push	 eax
  0001b	8d 45 f4	 lea	 eax, DWORD PTR __$EHRec$[ebp]
  0001e	64 a3 00 00 00
	00		 mov	 DWORD PTR fs:0, eax
  00024	8b f1		 mov	 esi, ecx
; File C:\Program Files (x86)\Microsoft Visual Studio\2019\Community\VC\Tools\MSVC\14.29.30133\atlmfc\include\afxcoll.inl

; 410  : 	{ return m_nCount == 0; }

  00026	83 7e 14 00	 cmp	 DWORD PTR [esi+20], 0
; File D:\git\src\IBK\IBK_DRFN\ProjSrc\SrcChartEx\ChartOCX\AddInManager\ChartCommonAddIn\DaiCodeGroup.cpp

; 29   : {

  0002a	c7 06 00 00 00
	00		 mov	 DWORD PTR [esi], OFFSET ??_7CDaiCodeGroup@@6B@

; 69   : 	while( !IsEmpty()) delete RemoveHead();

  00030	74 1b		 je	 SHORT $LN25@CDaiCodeGr
$LL4@CDaiCodeGr:
; File C:\Program Files (x86)\Microsoft Visual Studio\2019\Community\VC\Tools\MSVC\14.29.30133\atlmfc\include\afxtempl.h

; 1890 : 		{ return (TYPE)BASE_CLASS::RemoveHead(); }

  00032	8d 4e 08	 lea	 ecx, DWORD PTR [esi+8]
  00035	e8 00 00 00 00	 call	 ?RemoveHead@CObList@@QAEPAVCObject@@XZ ; CObList::RemoveHead
; File D:\git\src\IBK\IBK_DRFN\ProjSrc\SrcChartEx\ChartOCX\AddInManager\ChartCommonAddIn\DaiCodeGroup.cpp

; 69   : 	while( !IsEmpty()) delete RemoveHead();

  0003a	85 c0		 test	 eax, eax
  0003c	74 09		 je	 SHORT $LN7@CDaiCodeGr
  0003e	8b 10		 mov	 edx, DWORD PTR [eax]
  00040	8b c8		 mov	 ecx, eax
  00042	6a 01		 push	 1
  00044	ff 52 04	 call	 DWORD PTR [edx+4]
$LN7@CDaiCodeGr:
; File C:\Program Files (x86)\Microsoft Visual Studio\2019\Community\VC\Tools\MSVC\14.29.30133\atlmfc\include\afxcoll.inl

; 410  : 	{ return m_nCount == 0; }

  00047	83 7e 14 00	 cmp	 DWORD PTR [esi+20], 0
; File D:\git\src\IBK\IBK_DRFN\ProjSrc\SrcChartEx\ChartOCX\AddInManager\ChartCommonAddIn\DaiCodeGroup.cpp

; 69   : 	while( !IsEmpty()) delete RemoveHead();

  0004b	75 e5		 jne	 SHORT $LL4@CDaiCodeGr
$LN25@CDaiCodeGr:
  0004d	8d 4e 08	 lea	 ecx, DWORD PTR [esi+8]
  00050	e8 00 00 00 00	 call	 ??1CObList@@UAE@XZ	; CObList::~CObList

; 30   : 	// (2004.11.29, 배승원) 등록된 모든 DRDS Advised Info를 제거한다.
; 31   : 	RemoveAllDrdsAdvisedInfo();
; 32   : }

  00055	8d 4e 04	 lea	 ecx, DWORD PTR [esi+4]
  00058	ff 15 00 00 00
	00		 call	 DWORD PTR __imp_??1?$CStringT@DV?$StrTraitMFC_DLL@DV?$ChTraitsCRT@D@ATL@@@@@ATL@@QAE@XZ
  0005e	8b 4d f4	 mov	 ecx, DWORD PTR __$EHRec$[ebp]
  00061	64 89 0d 00 00
	00 00		 mov	 DWORD PTR fs:0, ecx
  00068	59		 pop	 ecx
  00069	5f		 pop	 edi
  0006a	5e		 pop	 esi
  0006b	8b e5		 mov	 esp, ebp
  0006d	5d		 pop	 ebp
  0006e	c3		 ret	 0
  0006f	cc		 int	 3
  00070	cc		 int	 3
  00071	cc		 int	 3
  00072	cc		 int	 3
  00073	cc		 int	 3
_TEXT	ENDS
;	COMDAT text$x
text$x	SEGMENT
__ehhandler$??1CDaiCodeGroup@@UAE@XZ:
  00000	90		 npad	 1
  00001	90		 npad	 1
  00002	8b 54 24 08	 mov	 edx, DWORD PTR [esp+8]
  00006	8d 42 0c	 lea	 eax, DWORD PTR [edx+12]
  00009	8b 4a f4	 mov	 ecx, DWORD PTR [edx-12]
  0000c	33 c8		 xor	 ecx, eax
  0000e	e8 00 00 00 00	 call	 @__security_check_cookie@4
  00013	b8 00 00 00 00	 mov	 eax, OFFSET __ehfuncinfo$??1CDaiCodeGroup@@UAE@XZ
  00018	e9 00 00 00 00	 jmp	 ___CxxFrameHandler3
text$x	ENDS
??1CDaiCodeGroup@@UAE@XZ ENDP				; CDaiCodeGroup::~CDaiCodeGroup
; Function compile flags: /Ogtp
; File D:\git\src\IBK\IBK_DRFN\ProjSrc\SrcChartEx\ChartOCX\AddInManager\ChartCommonAddIn\DaiCodeGroup.cpp
; File C:\Program Files (x86)\Microsoft Visual Studio\2019\Community\VC\Tools\MSVC\14.29.30133\atlmfc\include\afxtempl.h
; File D:\git\src\IBK\IBK_DRFN\ProjSrc\SrcChartEx\ChartOCX\AddInManager\ChartCommonAddIn\DaiCodeGroup.cpp
; File C:\Program Files (x86)\Microsoft Visual Studio\2019\Community\VC\Tools\MSVC\14.29.30133\atlmfc\include\afxtempl.h
; File D:\git\src\IBK\IBK_DRFN\ProjSrc\SrcChartEx\ChartOCX\AddInManager\ChartCommonAddIn\DaiCodeGroup.cpp
;	COMDAT ??0CDaiCodeGroup@@QAE@PBD@Z
_TEXT	SEGMENT
_this$ = -20						; size = 4
_this$ = -16						; size = 4
__$EHRec$ = -12						; size = 12
_p_szRealKeyCode$ = 8					; size = 4
??0CDaiCodeGroup@@QAE@PBD@Z PROC			; CDaiCodeGroup::CDaiCodeGroup, COMDAT
; _this$ = ecx

; 19   : {

  00000	55		 push	 ebp
  00001	8b ec		 mov	 ebp, esp
  00003	6a ff		 push	 -1
  00005	68 00 00 00 00	 push	 __ehhandler$??0CDaiCodeGroup@@QAE@PBD@Z
  0000a	64 a1 00 00 00
	00		 mov	 eax, DWORD PTR fs:0
  00010	50		 push	 eax
  00011	83 ec 08	 sub	 esp, 8
  00014	53		 push	 ebx
  00015	56		 push	 esi
  00016	57		 push	 edi
  00017	a1 00 00 00 00	 mov	 eax, DWORD PTR ___security_cookie
  0001c	33 c5		 xor	 eax, ebp
  0001e	50		 push	 eax
  0001f	8d 45 f4	 lea	 eax, DWORD PTR __$EHRec$[ebp]
  00022	64 a3 00 00 00
	00		 mov	 DWORD PTR fs:0, eax
  00028	8b d9		 mov	 ebx, ecx
  0002a	89 5d f0	 mov	 DWORD PTR _this$[ebp], ebx
  0002d	8d 4b 04	 lea	 ecx, DWORD PTR [ebx+4]
  00030	c7 03 00 00 00
	00		 mov	 DWORD PTR [ebx], OFFSET ??_7CDaiCodeGroup@@6B@
  00036	ff 15 00 00 00
	00		 call	 DWORD PTR __imp_??0?$CStringT@DV?$StrTraitMFC_DLL@DV?$ChTraitsCRT@D@ATL@@@@@ATL@@QAE@XZ
  0003c	8d 73 08	 lea	 esi, DWORD PTR [ebx+8]
  0003f	c7 45 fc 00 00
	00 00		 mov	 DWORD PTR __$EHRec$[ebp+8], 0
; File C:\Program Files (x86)\Microsoft Visual Studio\2019\Community\VC\Tools\MSVC\14.29.30133\atlmfc\include\afxtempl.h

; 1876 : 		: BASE_CLASS(nBlockSize) { }

  00046	6a 0a		 push	 10			; 0000000aH
  00048	8b ce		 mov	 ecx, esi
; File D:\git\src\IBK\IBK_DRFN\ProjSrc\SrcChartEx\ChartOCX\AddInManager\ChartCommonAddIn\DaiCodeGroup.cpp

; 19   : {

  0004a	89 75 ec	 mov	 DWORD PTR _this$[ebp], esi
; File C:\Program Files (x86)\Microsoft Visual Studio\2019\Community\VC\Tools\MSVC\14.29.30133\atlmfc\include\afxtempl.h

; 1876 : 		: BASE_CLASS(nBlockSize) { }

  0004d	e8 00 00 00 00	 call	 ??0CObList@@QAE@H@Z	; CObList::CObList

; 1953 : 		: _CTypedPtrList<BASE_CLASS, TYPE>(nBlockSize) { }

  00052	c7 06 00 00 00
	00		 mov	 DWORD PTR [esi], OFFSET ??_7?$CTypedPtrList@VCObList@@PAVCDrdsAdvisedInfo@@@@6B@
; File D:\git\src\IBK\IBK_DRFN\ProjSrc\SrcChartEx\ChartOCX\AddInManager\ChartCommonAddIn\DaiCodeGroup.cpp

; 21   : 	m_strRealKeyCode = p_szRealKeyCode;

  00058	ff 75 08	 push	 DWORD PTR _p_szRealKeyCode$[ebp]
  0005b	8d 4b 04	 lea	 ecx, DWORD PTR [ebx+4]
  0005e	c6 45 fc 01	 mov	 BYTE PTR __$EHRec$[ebp+8], 1
  00062	ff 15 00 00 00
	00		 call	 DWORD PTR __imp_??4?$CStringT@DV?$StrTraitMFC_DLL@DV?$ChTraitsCRT@D@ATL@@@@@ATL@@QAEAAV01@PBD@Z

; 22   : 
; 23   : 	// (2004.12.01, 배승원) Real Packet의 수신여부를 관리하는 Interface를 제공한다.
; 24   : 	//		(전 Packet의 수신시를 확인하여, Drawing의 별도 처리를 하기 위함이이다.)
; 25   : 	m_bPacketReceived = FALSE;

  00068	c7 43 24 00 00
	00 00		 mov	 DWORD PTR [ebx+36], 0

; 26   : }

  0006f	8b c3		 mov	 eax, ebx
  00071	8b 4d f4	 mov	 ecx, DWORD PTR __$EHRec$[ebp]
  00074	64 89 0d 00 00
	00 00		 mov	 DWORD PTR fs:0, ecx
  0007b	59		 pop	 ecx
  0007c	5f		 pop	 edi
  0007d	5e		 pop	 esi
  0007e	5b		 pop	 ebx
  0007f	8b e5		 mov	 esp, ebp
  00081	5d		 pop	 ebp
  00082	c2 04 00	 ret	 4
_TEXT	ENDS
;	COMDAT text$x
text$x	SEGMENT
__unwindfunclet$??0CDaiCodeGroup@@QAE@PBD@Z$0:
  00000	8b 4d f0	 mov	 ecx, DWORD PTR _this$[ebp]
  00003	83 c1 04	 add	 ecx, 4
  00006	ff 25 00 00 00
	00		 jmp	 DWORD PTR __imp_??1?$CStringT@DV?$StrTraitMFC_DLL@DV?$ChTraitsCRT@D@ATL@@@@@ATL@@QAE@XZ
__unwindfunclet$??0CDaiCodeGroup@@QAE@PBD@Z$1:
  0000c	8b 4d f0	 mov	 ecx, DWORD PTR _this$[ebp]
  0000f	83 c1 08	 add	 ecx, 8
  00012	e9 00 00 00 00	 jmp	 ??1?$CTypedPtrList@VCObList@@PAVCDrdsAdvisedInfo@@@@UAE@XZ
  00017	cc		 int	 3
  00018	cc		 int	 3
  00019	cc		 int	 3
  0001a	cc		 int	 3
  0001b	cc		 int	 3
__ehhandler$??0CDaiCodeGroup@@QAE@PBD@Z:
  0001c	90		 npad	 1
  0001d	90		 npad	 1
  0001e	8b 54 24 08	 mov	 edx, DWORD PTR [esp+8]
  00022	8d 42 0c	 lea	 eax, DWORD PTR [edx+12]
  00025	8b 4a e8	 mov	 ecx, DWORD PTR [edx-24]
  00028	33 c8		 xor	 ecx, eax
  0002a	e8 00 00 00 00	 call	 @__security_check_cookie@4
  0002f	b8 00 00 00 00	 mov	 eax, OFFSET __ehfuncinfo$??0CDaiCodeGroup@@QAE@PBD@Z
  00034	e9 00 00 00 00	 jmp	 ___CxxFrameHandler3
text$x	ENDS
??0CDaiCodeGroup@@QAE@PBD@Z ENDP			; CDaiCodeGroup::CDaiCodeGroup
; Function compile flags: /Ogtp
; File D:\git\src\IBK\IBK_DRFN\ProjSrc\SrcChartEx\ChartOCX\AddInManager\ChartCommonAddIn\DaiCodeGroup.h
; File C:\Program Files (x86)\Microsoft Visual Studio\2019\Community\VC\Tools\MSVC\14.29.30133\atlmfc\include\afx.inl
;	COMDAT ??_GCDrdsAdvisedInfo@@UAEPAXI@Z
_TEXT	SEGMENT
__$EHRec$ = -12						; size = 12
___flags$ = 8						; size = 4
??_GCDrdsAdvisedInfo@@UAEPAXI@Z PROC			; CDrdsAdvisedInfo::`scalar deleting destructor', COMDAT
; _this$ = ecx
  00000	55		 push	 ebp
  00001	8b ec		 mov	 ebp, esp
  00003	6a ff		 push	 -1
  00005	68 00 00 00 00	 push	 __ehhandler$??_GCDrdsAdvisedInfo@@UAEPAXI@Z
  0000a	64 a1 00 00 00
	00		 mov	 eax, DWORD PTR fs:0
  00010	50		 push	 eax
  00011	56		 push	 esi
  00012	a1 00 00 00 00	 mov	 eax, DWORD PTR ___security_cookie
  00017	33 c5		 xor	 eax, ebp
  00019	50		 push	 eax
  0001a	8d 45 f4	 lea	 eax, DWORD PTR __$EHRec$[ebp]
  0001d	64 a3 00 00 00
	00		 mov	 DWORD PTR fs:0, eax
  00023	8b f1		 mov	 esi, ecx
; File D:\git\src\IBK\IBK_DRFN\ProjSrc\SrcChartEx\ChartOCX\AddInManager\ChartCommonAddIn\DaiCodeGroup.h

; 39   : 		if( m_pIPacket) m_pIPacket->Release();

  00025	8b 4e 04	 mov	 ecx, DWORD PTR [esi+4]
  00028	c7 45 fc 00 00
	00 00		 mov	 DWORD PTR __$EHRec$[ebp+8], 0
  0002f	c7 06 00 00 00
	00		 mov	 DWORD PTR [esi], OFFSET ??_7CDrdsAdvisedInfo@@6B@
  00035	85 c9		 test	 ecx, ecx
  00037	74 06		 je	 SHORT $LN8@scalar
  00039	8b 01		 mov	 eax, DWORD PTR [ecx]
  0003b	51		 push	 ecx
  0003c	ff 50 08	 call	 DWORD PTR [eax+8]
$LN8@scalar:

; 40   : 
; 41   : 		// RQ별 DRDS관리 : 복수종목 - ojtaso (20070111)
; 42   : 		if(m_lpszRQ)

  0003f	8b 46 0c	 mov	 eax, DWORD PTR [esi+12]
  00042	85 c0		 test	 eax, eax
  00044	74 11		 je	 SHORT $LN9@scalar

; 43   : 		{
; 44   : 			::free(m_lpszRQ);

  00046	50		 push	 eax
  00047	ff 15 00 00 00
	00		 call	 DWORD PTR __imp__free
  0004d	83 c4 04	 add	 esp, 4

; 45   : 			m_lpszRQ = NULL;

  00050	c7 46 0c 00 00
	00 00		 mov	 DWORD PTR [esi+12], 0
$LN9@scalar:

; 46   : 		}
; 47   : 	}

  00057	8d 4e 08	 lea	 ecx, DWORD PTR [esi+8]
  0005a	ff 15 00 00 00
	00		 call	 DWORD PTR __imp_??1?$CStringT@DV?$StrTraitMFC_DLL@DV?$ChTraitsCRT@D@ATL@@@@@ATL@@QAE@XZ
  00060	8b 45 08	 mov	 eax, DWORD PTR ___flags$[ebp]
  00063	a8 01		 test	 al, 1
  00065	74 2c		 je	 SHORT $LN14@scalar
  00067	a8 04		 test	 al, 4
  00069	75 1d		 jne	 SHORT $LN3@scalar
; File C:\Program Files (x86)\Microsoft Visual Studio\2019\Community\VC\Tools\MSVC\14.29.30133\atlmfc\include\afx.inl

; 112  : 	{ ::operator delete(p); }

  0006b	56		 push	 esi
  0006c	e8 00 00 00 00	 call	 ??3@YAXPAX@Z		; operator delete
  00071	83 c4 04	 add	 esp, 4
  00074	8b c6		 mov	 eax, esi
  00076	8b 4d f4	 mov	 ecx, DWORD PTR __$EHRec$[ebp]
  00079	64 89 0d 00 00
	00 00		 mov	 DWORD PTR fs:0, ecx
  00080	59		 pop	 ecx
  00081	5e		 pop	 esi
  00082	8b e5		 mov	 esp, ebp
  00084	5d		 pop	 ebp
  00085	c2 04 00	 ret	 4
$LN3@scalar:
  00088	6a 10		 push	 16			; 00000010H
  0008a	56		 push	 esi
  0008b	e8 00 00 00 00	 call	 ?__global_delete@@YAXPAXI@Z ; __global_delete
  00090	83 c4 08	 add	 esp, 8
$LN14@scalar:
  00093	8b c6		 mov	 eax, esi
  00095	8b 4d f4	 mov	 ecx, DWORD PTR __$EHRec$[ebp]
  00098	64 89 0d 00 00
	00 00		 mov	 DWORD PTR fs:0, ecx
  0009f	59		 pop	 ecx
  000a0	5e		 pop	 esi
  000a1	8b e5		 mov	 esp, ebp
  000a3	5d		 pop	 ebp
  000a4	c2 04 00	 ret	 4
  000a7	cc		 int	 3
  000a8	cc		 int	 3
  000a9	cc		 int	 3
  000aa	cc		 int	 3
  000ab	cc		 int	 3
_TEXT	ENDS
;	COMDAT text$x
text$x	SEGMENT
__ehhandler$??_GCDrdsAdvisedInfo@@UAEPAXI@Z:
  00000	90		 npad	 1
  00001	90		 npad	 1
  00002	8b 54 24 08	 mov	 edx, DWORD PTR [esp+8]
  00006	8d 42 0c	 lea	 eax, DWORD PTR [edx+12]
  00009	8b 4a f8	 mov	 ecx, DWORD PTR [edx-8]
  0000c	33 c8		 xor	 ecx, eax
  0000e	e8 00 00 00 00	 call	 @__security_check_cookie@4
  00013	b8 00 00 00 00	 mov	 eax, OFFSET __ehfuncinfo$??_GCDrdsAdvisedInfo@@UAEPAXI@Z
  00018	e9 00 00 00 00	 jmp	 ___CxxFrameHandler3
text$x	ENDS
??_GCDrdsAdvisedInfo@@UAEPAXI@Z ENDP			; CDrdsAdvisedInfo::`scalar deleting destructor'
; Function compile flags: /Ogtp
; File C:\Program Files (x86)\Microsoft Visual Studio\2019\Community\VC\Tools\MSVC\14.29.30133\atlmfc\include\afx.inl
;	COMDAT ?Dump@CObject@@UBEXAAVCDumpContext@@@Z
_TEXT	SEGMENT
___formal$ = 8						; size = 4
?Dump@CObject@@UBEXAAVCDumpContext@@@Z PROC		; CObject::Dump, COMDAT
; _this$ = ecx

; 122  : 	{ /* no dumping in release builds */ }

  00000	c2 04 00	 ret	 4
?Dump@CObject@@UBEXAAVCDumpContext@@@Z ENDP		; CObject::Dump
_TEXT	ENDS
; Function compile flags: /Ogtp
; File C:\Program Files (x86)\Microsoft Visual Studio\2019\Community\VC\Tools\MSVC\14.29.30133\atlmfc\include\afx.inl
;	COMDAT ?AssertValid@CObject@@UBEXXZ
_TEXT	SEGMENT
?AssertValid@CObject@@UBEXXZ PROC			; CObject::AssertValid, COMDAT
; _this$ = ecx

; 120  : 	{ /* no asserts in release builds */ }

  00000	c2 00 00	 ret	 0
?AssertValid@CObject@@UBEXXZ ENDP			; CObject::AssertValid
_TEXT	ENDS
; Function compile flags: /Ogtp
; File C:\Program Files (x86)\Microsoft Visual Studio\2019\Community\VC\Tools\MSVC\14.29.30133\atlmfc\include\afx.inl
;	COMDAT ?Serialize@CObject@@UAEXAAVCArchive@@@Z
_TEXT	SEGMENT
___formal$ = 8						; size = 4
?Serialize@CObject@@UAEXAAVCArchive@@@Z PROC		; CObject::Serialize, COMDAT
; _this$ = ecx

; 106  : 	{ /* CObject does not serialize anything by default */ }

  00000	c2 04 00	 ret	 4
?Serialize@CObject@@UAEXAAVCArchive@@@Z ENDP		; CObject::Serialize
_TEXT	ENDS
; Function compile flags: /Ogtp
; File C:\Program Files (x86)\Microsoft Visual Studio\2019\Community\VC\Tools\MSVC\14.29.30133\atlmfc\include\afx.inl
;	COMDAT ??3CObject@@SGXPAX@Z
_TEXT	SEGMENT
_p$ = 8							; size = 4
??3CObject@@SGXPAX@Z PROC				; CObject::operator delete, COMDAT

; 112  : 	{ ::operator delete(p); }

  00000	55		 push	 ebp
  00001	8b ec		 mov	 ebp, esp
  00003	ff 75 08	 push	 DWORD PTR _p$[ebp]
  00006	e8 00 00 00 00	 call	 ??3@YAXPAX@Z		; operator delete
  0000b	83 c4 04	 add	 esp, 4
  0000e	5d		 pop	 ebp
  0000f	c2 04 00	 ret	 4
??3CObject@@SGXPAX@Z ENDP				; CObject::operator delete
_TEXT	ENDS
; Function compile flags: /Ogtp
; File C:\Program Files (x86)\Microsoft Visual Studio\2019\Community\VC\Tools\MSVC\14.29.30133\atlmfc\include\afx.inl
;	COMDAT ??1CObject@@UAE@XZ
_TEXT	SEGMENT
??1CObject@@UAE@XZ PROC					; CObject::~CObject, COMDAT
; _this$ = ecx

; 104  : 	{ }

  00000	c2 00 00	 ret	 0
??1CObject@@UAE@XZ ENDP					; CObject::~CObject
_TEXT	ENDS
; Function compile flags: /Ogtp
; File D:\git\src\IBK\IBK_DRFN\ProjSrc\SrcChartEx\ChartOCX\AddInManager\ChartCommonAddIn\DaiCodeGroup.cpp
;	COMDAT ?__empty_global_delete@@YAXPAXI@Z
_TEXT	SEGMENT
___formal$ = 8						; size = 4
___formal$ = 12						; size = 4
?__empty_global_delete@@YAXPAXI@Z PROC			; __empty_global_delete, COMDAT

  00000	c2 00 00	 ret	 0
?__empty_global_delete@@YAXPAXI@Z ENDP			; __empty_global_delete
_TEXT	ENDS
; Function compile flags: /Ogtp
; File D:\git\src\IBK\IBK_DRFN\ProjSrc\SrcChartEx\ChartOCX\AddInManager\ChartCommonAddIn\DaiCodeGroup.cpp
;	COMDAT ?__empty_global_delete@@YAXPAX@Z
_TEXT	SEGMENT
___formal$ = 8						; size = 4
?__empty_global_delete@@YAXPAX@Z PROC			; __empty_global_delete, COMDAT

  00000	c2 00 00	 ret	 0
?__empty_global_delete@@YAXPAX@Z ENDP			; __empty_global_delete
_TEXT	ENDS
END
