; Listing generated by Microsoft (R) Optimizing Compiler Version 19.29.30145.0 

	TITLE	D:\git\src\IBK\IBK_DRFN\#DRfn-CS\_Obj\ChartCommonAddIn\DaiPacketGroup.obj
	.686P
	.XMM
	include listing.inc
	.model	flat

INCLUDELIB MSVCRT
INCLUDELIB OLDNAMES

PUBLIC	?__empty_global_delete@@YAXPAX@Z		; __empty_global_delete
PUBLIC	?__empty_global_delete@@YAXPAXI@Z		; __empty_global_delete
PUBLIC	??1CObject@@UAE@XZ				; CObject::~CObject
PUBLIC	??3CObject@@SGXPAX@Z				; CObject::operator delete
PUBLIC	?Serialize@CObject@@UAEXAAVCArchive@@@Z		; CObject::Serialize
PUBLIC	?AssertValid@CObject@@UBEXXZ			; CObject::AssertValid
PUBLIC	?Dump@CObject@@UBEXAAVCDumpContext@@@Z		; CObject::Dump
PUBLIC	??0CDaiPacketGroup@@QAE@PBD@Z			; CDaiPacketGroup::CDaiPacketGroup
PUBLIC	??1CDaiPacketGroup@@UAE@XZ			; CDaiPacketGroup::~CDaiPacketGroup
PUBLIC	??_G?$_CTypedPtrList@VCObList@@PAVCDaiCodeGroup@@@@UAEPAXI@Z ; _CTypedPtrList<CObList,CDaiCodeGroup *>::`scalar deleting destructor'
PUBLIC	??1?$CTypedPtrList@VCObList@@PAVCDaiCodeGroup@@@@UAE@XZ ; CTypedPtrList<CObList,CDaiCodeGroup *>::~CTypedPtrList<CObList,CDaiCodeGroup *>
PUBLIC	??_G?$CTypedPtrList@VCObList@@PAVCDaiCodeGroup@@@@UAEPAXI@Z ; CTypedPtrList<CObList,CDaiCodeGroup *>::`scalar deleting destructor'
PUBLIC	?AddDrdsAdvisedInfo@CDaiPacketGroup@@QAEHPAUIPacket000000@@PBD1@Z ; CDaiPacketGroup::AddDrdsAdvisedInfo
PUBLIC	?AddDrdsAdvisedInfo@CDaiPacketGroup@@QAEHPBDPAUIPacket000000@@00@Z ; CDaiPacketGroup::AddDrdsAdvisedInfo
PUBLIC	?RemoveAllDrdsAdvisedInfo@CDaiPacketGroup@@QAEXXZ ; CDaiPacketGroup::RemoveAllDrdsAdvisedInfo
PUBLIC	?FindDaiCodeGroup@CDaiPacketGroup@@QAEPAU__POSITION@@PBD@Z ; CDaiPacketGroup::FindDaiCodeGroup
PUBLIC	?SetPacketReceivedFlag@CDaiPacketGroup@@QAEHPBD@Z ; CDaiPacketGroup::SetPacketReceivedFlag
PUBLIC	?HasOneMoreReceiveForEachPacket@CDaiPacketGroup@@QAEHXZ ; CDaiPacketGroup::HasOneMoreReceiveForEachPacket
PUBLIC	?ResetPacketReceiveFlag@CDaiPacketGroup@@QAEXXZ	; CDaiPacketGroup::ResetPacketReceiveFlag
PUBLIC	??_GCDaiPacketGroup@@UAEPAXI@Z			; CDaiPacketGroup::`scalar deleting destructor'
PUBLIC	??_R0?AVCObject@@@8				; CObject `RTTI Type Descriptor'
PUBLIC	??_R3CObject@@8					; CObject::`RTTI Class Hierarchy Descriptor'
PUBLIC	??_R2CObject@@8					; CObject::`RTTI Base Class Array'
PUBLIC	??_R1A@?0A@EA@CObject@@8			; CObject::`RTTI Base Class Descriptor at (0,-1,0,64)'
PUBLIC	??_R1A@?0A@EA@CObList@@8			; CObList::`RTTI Base Class Descriptor at (0,-1,0,64)'
PUBLIC	??_R0?AVCObList@@@8				; CObList `RTTI Type Descriptor'
PUBLIC	??_R3CObList@@8					; CObList::`RTTI Class Hierarchy Descriptor'
PUBLIC	??_R2CObList@@8					; CObList::`RTTI Base Class Array'
PUBLIC	??_7?$_CTypedPtrList@VCObList@@PAVCDaiCodeGroup@@@@6B@ ; _CTypedPtrList<CObList,CDaiCodeGroup *>::`vftable'
PUBLIC	??_7?$CTypedPtrList@VCObList@@PAVCDaiCodeGroup@@@@6B@ ; CTypedPtrList<CObList,CDaiCodeGroup *>::`vftable'
PUBLIC	??_7CDaiPacketGroup@@6B@			; CDaiPacketGroup::`vftable'
PUBLIC	??_R4?$CTypedPtrList@VCObList@@PAVCDaiCodeGroup@@@@6B@ ; CTypedPtrList<CObList,CDaiCodeGroup *>::`RTTI Complete Object Locator'
PUBLIC	??_R0?AV?$CTypedPtrList@VCObList@@PAVCDaiCodeGroup@@@@@8 ; CTypedPtrList<CObList,CDaiCodeGroup *> `RTTI Type Descriptor'
PUBLIC	??_R3?$CTypedPtrList@VCObList@@PAVCDaiCodeGroup@@@@8 ; CTypedPtrList<CObList,CDaiCodeGroup *>::`RTTI Class Hierarchy Descriptor'
PUBLIC	??_R2?$CTypedPtrList@VCObList@@PAVCDaiCodeGroup@@@@8 ; CTypedPtrList<CObList,CDaiCodeGroup *>::`RTTI Base Class Array'
PUBLIC	??_R1A@?0A@EA@?$CTypedPtrList@VCObList@@PAVCDaiCodeGroup@@@@8 ; CTypedPtrList<CObList,CDaiCodeGroup *>::`RTTI Base Class Descriptor at (0,-1,0,64)'
PUBLIC	??_R1A@?0A@EA@?$_CTypedPtrList@VCObList@@PAVCDaiCodeGroup@@@@8 ; _CTypedPtrList<CObList,CDaiCodeGroup *>::`RTTI Base Class Descriptor at (0,-1,0,64)'
PUBLIC	??_R0?AV?$_CTypedPtrList@VCObList@@PAVCDaiCodeGroup@@@@@8 ; _CTypedPtrList<CObList,CDaiCodeGroup *> `RTTI Type Descriptor'
PUBLIC	??_R3?$_CTypedPtrList@VCObList@@PAVCDaiCodeGroup@@@@8 ; _CTypedPtrList<CObList,CDaiCodeGroup *>::`RTTI Class Hierarchy Descriptor'
PUBLIC	??_R2?$_CTypedPtrList@VCObList@@PAVCDaiCodeGroup@@@@8 ; _CTypedPtrList<CObList,CDaiCodeGroup *>::`RTTI Base Class Array'
PUBLIC	??_R4CDaiPacketGroup@@6B@			; CDaiPacketGroup::`RTTI Complete Object Locator'
PUBLIC	??_R0?AVCDaiPacketGroup@@@8			; CDaiPacketGroup `RTTI Type Descriptor'
PUBLIC	??_R3CDaiPacketGroup@@8				; CDaiPacketGroup::`RTTI Class Hierarchy Descriptor'
PUBLIC	??_R2CDaiPacketGroup@@8				; CDaiPacketGroup::`RTTI Base Class Array'
PUBLIC	??_R1A@?0A@EA@CDaiPacketGroup@@8		; CDaiPacketGroup::`RTTI Base Class Descriptor at (0,-1,0,64)'
PUBLIC	??_R4?$_CTypedPtrList@VCObList@@PAVCDaiCodeGroup@@@@6B@ ; _CTypedPtrList<CObList,CDaiCodeGroup *>::`RTTI Complete Object Locator'
EXTRN	??2@YAPAXI@Z:PROC				; operator new
EXTRN	??3@YAXPAX@Z:PROC				; operator delete
EXTRN	?__global_delete@@YAXPAXI@Z:PROC		; __global_delete
EXTRN	___std_terminate:PROC
EXTRN	?AfxThrowInvalidArgException@@YGXXZ:PROC	; AfxThrowInvalidArgException
EXTRN	?GetRuntimeClass@CObject@@UBEPAUCRuntimeClass@@XZ:PROC ; CObject::GetRuntimeClass
EXTRN	__imp_??0?$CStringT@DV?$StrTraitMFC_DLL@DV?$ChTraitsCRT@D@ATL@@@@@ATL@@QAE@XZ:PROC
EXTRN	__imp_??0?$CStringT@DV?$StrTraitMFC_DLL@DV?$ChTraitsCRT@D@ATL@@@@@ATL@@QAE@PBD@Z:PROC
EXTRN	__imp_??1?$CStringT@DV?$StrTraitMFC_DLL@DV?$ChTraitsCRT@D@ATL@@@@@ATL@@QAE@XZ:PROC
EXTRN	__imp_??4?$CStringT@DV?$StrTraitMFC_DLL@DV?$ChTraitsCRT@D@ATL@@@@@ATL@@QAEAAV01@ABV01@@Z:PROC
EXTRN	__imp_??4?$CStringT@DV?$StrTraitMFC_DLL@DV?$ChTraitsCRT@D@ATL@@@@@ATL@@QAEAAV01@PBD@Z:PROC
EXTRN	__imp_?Compare@?$CStringT@DV?$StrTraitMFC_DLL@DV?$ChTraitsCRT@D@ATL@@@@@ATL@@QBEHPBD@Z:PROC
EXTRN	__imp_?TrimRight@?$CStringT@DV?$StrTraitMFC_DLL@DV?$ChTraitsCRT@D@ATL@@@@@ATL@@QAEAAV12@D@Z:PROC
EXTRN	?GetRuntimeClass@CObList@@UBEPAUCRuntimeClass@@XZ:PROC ; CObList::GetRuntimeClass
EXTRN	??0CObList@@QAE@H@Z:PROC			; CObList::CObList
EXTRN	?RemoveHead@CObList@@QAEPAVCObject@@XZ:PROC	; CObList::RemoveHead
EXTRN	?AddTail@CObList@@QAEPAU__POSITION@@PAVCObject@@@Z:PROC ; CObList::AddTail
EXTRN	??1CObList@@UAE@XZ:PROC				; CObList::~CObList
EXTRN	?Serialize@CObList@@UAEXAAVCArchive@@@Z:PROC	; CObList::Serialize
EXTRN	??0CDaiCodeGroup@@QAE@PBD@Z:PROC		; CDaiCodeGroup::CDaiCodeGroup
EXTRN	?AddDrdsAdvisedInfo@CDaiCodeGroup@@QAEHPAUIPacket000000@@PBD@Z:PROC ; CDaiCodeGroup::AddDrdsAdvisedInfo
EXTRN	?AddDrdsAdvisedInfo@CDaiCodeGroup@@QAEHPBDPAUIPacket000000@@0@Z:PROC ; CDaiCodeGroup::AddDrdsAdvisedInfo
EXTRN	??_E?$_CTypedPtrList@VCObList@@PAVCDaiCodeGroup@@@@UAEPAXI@Z:PROC ; _CTypedPtrList<CObList,CDaiCodeGroup *>::`vector deleting destructor'
EXTRN	??_E?$CTypedPtrList@VCObList@@PAVCDaiCodeGroup@@@@UAEPAXI@Z:PROC ; CTypedPtrList<CObList,CDaiCodeGroup *>::`vector deleting destructor'
EXTRN	??_ECDaiPacketGroup@@UAEPAXI@Z:PROC		; CDaiPacketGroup::`vector deleting destructor'
EXTRN	@__security_check_cookie@4:PROC
EXTRN	___CxxFrameHandler3:PROC
EXTRN	??_7type_info@@6B@:QWORD			; type_info::`vftable'
EXTRN	___security_cookie:DWORD
;	COMDAT ??_R4?$_CTypedPtrList@VCObList@@PAVCDaiCodeGroup@@@@6B@
rdata$r	SEGMENT
??_R4?$_CTypedPtrList@VCObList@@PAVCDaiCodeGroup@@@@6B@ DD 00H ; _CTypedPtrList<CObList,CDaiCodeGroup *>::`RTTI Complete Object Locator'
	DD	00H
	DD	00H
	DD	FLAT:??_R0?AV?$_CTypedPtrList@VCObList@@PAVCDaiCodeGroup@@@@@8
	DD	FLAT:??_R3?$_CTypedPtrList@VCObList@@PAVCDaiCodeGroup@@@@8
rdata$r	ENDS
;	COMDAT ??_R1A@?0A@EA@CDaiPacketGroup@@8
rdata$r	SEGMENT
??_R1A@?0A@EA@CDaiPacketGroup@@8 DD FLAT:??_R0?AVCDaiPacketGroup@@@8 ; CDaiPacketGroup::`RTTI Base Class Descriptor at (0,-1,0,64)'
	DD	01H
	DD	00H
	DD	0ffffffffH
	DD	00H
	DD	040H
	DD	FLAT:??_R3CDaiPacketGroup@@8
rdata$r	ENDS
;	COMDAT ??_R2CDaiPacketGroup@@8
rdata$r	SEGMENT
??_R2CDaiPacketGroup@@8 DD FLAT:??_R1A@?0A@EA@CDaiPacketGroup@@8 ; CDaiPacketGroup::`RTTI Base Class Array'
	DD	FLAT:??_R1A@?0A@EA@CObject@@8
rdata$r	ENDS
;	COMDAT ??_R3CDaiPacketGroup@@8
rdata$r	SEGMENT
??_R3CDaiPacketGroup@@8 DD 00H				; CDaiPacketGroup::`RTTI Class Hierarchy Descriptor'
	DD	00H
	DD	02H
	DD	FLAT:??_R2CDaiPacketGroup@@8
rdata$r	ENDS
;	COMDAT ??_R0?AVCDaiPacketGroup@@@8
data$rs	SEGMENT
??_R0?AVCDaiPacketGroup@@@8 DD FLAT:??_7type_info@@6B@	; CDaiPacketGroup `RTTI Type Descriptor'
	DD	00H
	DB	'.?AVCDaiPacketGroup@@', 00H
data$rs	ENDS
;	COMDAT ??_R4CDaiPacketGroup@@6B@
rdata$r	SEGMENT
??_R4CDaiPacketGroup@@6B@ DD 00H			; CDaiPacketGroup::`RTTI Complete Object Locator'
	DD	00H
	DD	00H
	DD	FLAT:??_R0?AVCDaiPacketGroup@@@8
	DD	FLAT:??_R3CDaiPacketGroup@@8
rdata$r	ENDS
;	COMDAT ??_R2?$_CTypedPtrList@VCObList@@PAVCDaiCodeGroup@@@@8
rdata$r	SEGMENT
??_R2?$_CTypedPtrList@VCObList@@PAVCDaiCodeGroup@@@@8 DD FLAT:??_R1A@?0A@EA@?$_CTypedPtrList@VCObList@@PAVCDaiCodeGroup@@@@8 ; _CTypedPtrList<CObList,CDaiCodeGroup *>::`RTTI Base Class Array'
	DD	FLAT:??_R1A@?0A@EA@CObList@@8
	DD	FLAT:??_R1A@?0A@EA@CObject@@8
rdata$r	ENDS
;	COMDAT ??_R3?$_CTypedPtrList@VCObList@@PAVCDaiCodeGroup@@@@8
rdata$r	SEGMENT
??_R3?$_CTypedPtrList@VCObList@@PAVCDaiCodeGroup@@@@8 DD 00H ; _CTypedPtrList<CObList,CDaiCodeGroup *>::`RTTI Class Hierarchy Descriptor'
	DD	00H
	DD	03H
	DD	FLAT:??_R2?$_CTypedPtrList@VCObList@@PAVCDaiCodeGroup@@@@8
rdata$r	ENDS
;	COMDAT ??_R0?AV?$_CTypedPtrList@VCObList@@PAVCDaiCodeGroup@@@@@8
data$rs	SEGMENT
??_R0?AV?$_CTypedPtrList@VCObList@@PAVCDaiCodeGroup@@@@@8 DD FLAT:??_7type_info@@6B@ ; _CTypedPtrList<CObList,CDaiCodeGroup *> `RTTI Type Descriptor'
	DD	00H
	DB	'.?AV?$_CTypedPtrList@VCObList@@PAVCDaiCodeGroup@@@@', 00H
data$rs	ENDS
;	COMDAT ??_R1A@?0A@EA@?$_CTypedPtrList@VCObList@@PAVCDaiCodeGroup@@@@8
rdata$r	SEGMENT
??_R1A@?0A@EA@?$_CTypedPtrList@VCObList@@PAVCDaiCodeGroup@@@@8 DD FLAT:??_R0?AV?$_CTypedPtrList@VCObList@@PAVCDaiCodeGroup@@@@@8 ; _CTypedPtrList<CObList,CDaiCodeGroup *>::`RTTI Base Class Descriptor at (0,-1,0,64)'
	DD	02H
	DD	00H
	DD	0ffffffffH
	DD	00H
	DD	040H
	DD	FLAT:??_R3?$_CTypedPtrList@VCObList@@PAVCDaiCodeGroup@@@@8
rdata$r	ENDS
;	COMDAT ??_R1A@?0A@EA@?$CTypedPtrList@VCObList@@PAVCDaiCodeGroup@@@@8
rdata$r	SEGMENT
??_R1A@?0A@EA@?$CTypedPtrList@VCObList@@PAVCDaiCodeGroup@@@@8 DD FLAT:??_R0?AV?$CTypedPtrList@VCObList@@PAVCDaiCodeGroup@@@@@8 ; CTypedPtrList<CObList,CDaiCodeGroup *>::`RTTI Base Class Descriptor at (0,-1,0,64)'
	DD	03H
	DD	00H
	DD	0ffffffffH
	DD	00H
	DD	040H
	DD	FLAT:??_R3?$CTypedPtrList@VCObList@@PAVCDaiCodeGroup@@@@8
rdata$r	ENDS
;	COMDAT ??_R2?$CTypedPtrList@VCObList@@PAVCDaiCodeGroup@@@@8
rdata$r	SEGMENT
??_R2?$CTypedPtrList@VCObList@@PAVCDaiCodeGroup@@@@8 DD FLAT:??_R1A@?0A@EA@?$CTypedPtrList@VCObList@@PAVCDaiCodeGroup@@@@8 ; CTypedPtrList<CObList,CDaiCodeGroup *>::`RTTI Base Class Array'
	DD	FLAT:??_R1A@?0A@EA@?$_CTypedPtrList@VCObList@@PAVCDaiCodeGroup@@@@8
	DD	FLAT:??_R1A@?0A@EA@CObList@@8
	DD	FLAT:??_R1A@?0A@EA@CObject@@8
rdata$r	ENDS
;	COMDAT ??_R3?$CTypedPtrList@VCObList@@PAVCDaiCodeGroup@@@@8
rdata$r	SEGMENT
??_R3?$CTypedPtrList@VCObList@@PAVCDaiCodeGroup@@@@8 DD 00H ; CTypedPtrList<CObList,CDaiCodeGroup *>::`RTTI Class Hierarchy Descriptor'
	DD	00H
	DD	04H
	DD	FLAT:??_R2?$CTypedPtrList@VCObList@@PAVCDaiCodeGroup@@@@8
rdata$r	ENDS
;	COMDAT ??_R0?AV?$CTypedPtrList@VCObList@@PAVCDaiCodeGroup@@@@@8
data$rs	SEGMENT
??_R0?AV?$CTypedPtrList@VCObList@@PAVCDaiCodeGroup@@@@@8 DD FLAT:??_7type_info@@6B@ ; CTypedPtrList<CObList,CDaiCodeGroup *> `RTTI Type Descriptor'
	DD	00H
	DB	'.?AV?$CTypedPtrList@VCObList@@PAVCDaiCodeGroup@@@@', 00H
data$rs	ENDS
;	COMDAT ??_R4?$CTypedPtrList@VCObList@@PAVCDaiCodeGroup@@@@6B@
rdata$r	SEGMENT
??_R4?$CTypedPtrList@VCObList@@PAVCDaiCodeGroup@@@@6B@ DD 00H ; CTypedPtrList<CObList,CDaiCodeGroup *>::`RTTI Complete Object Locator'
	DD	00H
	DD	00H
	DD	FLAT:??_R0?AV?$CTypedPtrList@VCObList@@PAVCDaiCodeGroup@@@@@8
	DD	FLAT:??_R3?$CTypedPtrList@VCObList@@PAVCDaiCodeGroup@@@@8
rdata$r	ENDS
;	COMDAT ??_7CDaiPacketGroup@@6B@
CONST	SEGMENT
??_7CDaiPacketGroup@@6B@ DD FLAT:??_R4CDaiPacketGroup@@6B@ ; CDaiPacketGroup::`vftable'
	DD	FLAT:?GetRuntimeClass@CObject@@UBEPAUCRuntimeClass@@XZ
	DD	FLAT:??_ECDaiPacketGroup@@UAEPAXI@Z
	DD	FLAT:?Serialize@CObject@@UAEXAAVCArchive@@@Z
	DD	FLAT:?AssertValid@CObject@@UBEXXZ
	DD	FLAT:?Dump@CObject@@UBEXAAVCDumpContext@@@Z
CONST	ENDS
;	COMDAT ??_7?$CTypedPtrList@VCObList@@PAVCDaiCodeGroup@@@@6B@
CONST	SEGMENT
??_7?$CTypedPtrList@VCObList@@PAVCDaiCodeGroup@@@@6B@ DD FLAT:??_R4?$CTypedPtrList@VCObList@@PAVCDaiCodeGroup@@@@6B@ ; CTypedPtrList<CObList,CDaiCodeGroup *>::`vftable'
	DD	FLAT:?GetRuntimeClass@CObList@@UBEPAUCRuntimeClass@@XZ
	DD	FLAT:??_E?$CTypedPtrList@VCObList@@PAVCDaiCodeGroup@@@@UAEPAXI@Z
	DD	FLAT:?Serialize@CObList@@UAEXAAVCArchive@@@Z
	DD	FLAT:?AssertValid@CObject@@UBEXXZ
	DD	FLAT:?Dump@CObject@@UBEXAAVCDumpContext@@@Z
CONST	ENDS
;	COMDAT ??_7?$_CTypedPtrList@VCObList@@PAVCDaiCodeGroup@@@@6B@
CONST	SEGMENT
??_7?$_CTypedPtrList@VCObList@@PAVCDaiCodeGroup@@@@6B@ DD FLAT:??_R4?$_CTypedPtrList@VCObList@@PAVCDaiCodeGroup@@@@6B@ ; _CTypedPtrList<CObList,CDaiCodeGroup *>::`vftable'
	DD	FLAT:?GetRuntimeClass@CObList@@UBEPAUCRuntimeClass@@XZ
	DD	FLAT:??_E?$_CTypedPtrList@VCObList@@PAVCDaiCodeGroup@@@@UAEPAXI@Z
	DD	FLAT:?Serialize@CObList@@UAEXAAVCArchive@@@Z
	DD	FLAT:?AssertValid@CObject@@UBEXXZ
	DD	FLAT:?Dump@CObject@@UBEXAAVCDumpContext@@@Z
CONST	ENDS
;	COMDAT ??_R2CObList@@8
rdata$r	SEGMENT
??_R2CObList@@8 DD FLAT:??_R1A@?0A@EA@CObList@@8	; CObList::`RTTI Base Class Array'
	DD	FLAT:??_R1A@?0A@EA@CObject@@8
rdata$r	ENDS
;	COMDAT ??_R3CObList@@8
rdata$r	SEGMENT
??_R3CObList@@8 DD 00H					; CObList::`RTTI Class Hierarchy Descriptor'
	DD	00H
	DD	02H
	DD	FLAT:??_R2CObList@@8
rdata$r	ENDS
;	COMDAT ??_R0?AVCObList@@@8
data$rs	SEGMENT
??_R0?AVCObList@@@8 DD FLAT:??_7type_info@@6B@		; CObList `RTTI Type Descriptor'
	DD	00H
	DB	'.?AVCObList@@', 00H
data$rs	ENDS
;	COMDAT ??_R1A@?0A@EA@CObList@@8
rdata$r	SEGMENT
??_R1A@?0A@EA@CObList@@8 DD FLAT:??_R0?AVCObList@@@8	; CObList::`RTTI Base Class Descriptor at (0,-1,0,64)'
	DD	01H
	DD	00H
	DD	0ffffffffH
	DD	00H
	DD	040H
	DD	FLAT:??_R3CObList@@8
rdata$r	ENDS
;	COMDAT ??_R1A@?0A@EA@CObject@@8
rdata$r	SEGMENT
??_R1A@?0A@EA@CObject@@8 DD FLAT:??_R0?AVCObject@@@8	; CObject::`RTTI Base Class Descriptor at (0,-1,0,64)'
	DD	00H
	DD	00H
	DD	0ffffffffH
	DD	00H
	DD	040H
	DD	FLAT:??_R3CObject@@8
rdata$r	ENDS
;	COMDAT ??_R2CObject@@8
rdata$r	SEGMENT
??_R2CObject@@8 DD FLAT:??_R1A@?0A@EA@CObject@@8	; CObject::`RTTI Base Class Array'
rdata$r	ENDS
;	COMDAT ??_R3CObject@@8
rdata$r	SEGMENT
??_R3CObject@@8 DD 00H					; CObject::`RTTI Class Hierarchy Descriptor'
	DD	00H
	DD	01H
	DD	FLAT:??_R2CObject@@8
rdata$r	ENDS
;	COMDAT ??_R0?AVCObject@@@8
data$rs	SEGMENT
??_R0?AVCObject@@@8 DD FLAT:??_7type_info@@6B@		; CObject `RTTI Type Descriptor'
	DD	00H
	DB	'.?AVCObject@@', 00H
data$rs	ENDS
;	COMDAT xdata$x
xdata$x	SEGMENT
__unwindtable$??_GCDaiPacketGroup@@UAEPAXI@Z DD 0ffffffffH
	DD	FLAT:___std_terminate
__ehfuncinfo$??_GCDaiPacketGroup@@UAEPAXI@Z DD 019930522H
	DD	01H
	DD	FLAT:__unwindtable$??_GCDaiPacketGroup@@UAEPAXI@Z
	DD	2 DUP(00H)
	DD	2 DUP(00H)
	DD	00H
	DD	05H
xdata$x	ENDS
;	COMDAT xdata$x
xdata$x	SEGMENT
__unwindtable$?FindDaiCodeGroup@CDaiPacketGroup@@QAEPAU__POSITION@@PBD@Z DD 0ffffffffH
	DD	FLAT:__unwindfunclet$?FindDaiCodeGroup@CDaiPacketGroup@@QAEPAU__POSITION@@PBD@Z$0
	DD	00H
	DD	FLAT:__unwindfunclet$?FindDaiCodeGroup@CDaiPacketGroup@@QAEPAU__POSITION@@PBD@Z$1
__ehfuncinfo$?FindDaiCodeGroup@CDaiPacketGroup@@QAEPAU__POSITION@@PBD@Z DD 019930522H
	DD	02H
	DD	FLAT:__unwindtable$?FindDaiCodeGroup@CDaiPacketGroup@@QAEPAU__POSITION@@PBD@Z
	DD	2 DUP(00H)
	DD	2 DUP(00H)
	DD	00H
	DD	01H
xdata$x	ENDS
;	COMDAT xdata$x
xdata$x	SEGMENT
__unwindtable$?AddDrdsAdvisedInfo@CDaiPacketGroup@@QAEHPBDPAUIPacket000000@@00@Z DD 0ffffffffH
	DD	FLAT:__unwindfunclet$?AddDrdsAdvisedInfo@CDaiPacketGroup@@QAEHPBDPAUIPacket000000@@00@Z$0
__ehfuncinfo$?AddDrdsAdvisedInfo@CDaiPacketGroup@@QAEHPBDPAUIPacket000000@@00@Z DD 019930522H
	DD	01H
	DD	FLAT:__unwindtable$?AddDrdsAdvisedInfo@CDaiPacketGroup@@QAEHPBDPAUIPacket000000@@00@Z
	DD	2 DUP(00H)
	DD	2 DUP(00H)
	DD	00H
	DD	01H
xdata$x	ENDS
;	COMDAT xdata$x
xdata$x	SEGMENT
__unwindtable$?AddDrdsAdvisedInfo@CDaiPacketGroup@@QAEHPAUIPacket000000@@PBD1@Z DD 0ffffffffH
	DD	FLAT:__unwindfunclet$?AddDrdsAdvisedInfo@CDaiPacketGroup@@QAEHPAUIPacket000000@@PBD1@Z$0
__ehfuncinfo$?AddDrdsAdvisedInfo@CDaiPacketGroup@@QAEHPAUIPacket000000@@PBD1@Z DD 019930522H
	DD	01H
	DD	FLAT:__unwindtable$?AddDrdsAdvisedInfo@CDaiPacketGroup@@QAEHPAUIPacket000000@@PBD1@Z
	DD	2 DUP(00H)
	DD	2 DUP(00H)
	DD	00H
	DD	01H
xdata$x	ENDS
;	COMDAT xdata$x
xdata$x	SEGMENT
__ehfuncinfo$??1CDaiPacketGroup@@UAE@XZ DD 019930522H
	DD	00H
	DD	00H
	DD	2 DUP(00H)
	DD	2 DUP(00H)
	DD	00H
	DD	05H
xdata$x	ENDS
;	COMDAT xdata$x
xdata$x	SEGMENT
__unwindtable$??0CDaiPacketGroup@@QAE@PBD@Z DD 0ffffffffH
	DD	FLAT:__unwindfunclet$??0CDaiPacketGroup@@QAE@PBD@Z$0
	DD	00H
	DD	FLAT:__unwindfunclet$??0CDaiPacketGroup@@QAE@PBD@Z$1
__ehfuncinfo$??0CDaiPacketGroup@@QAE@PBD@Z DD 019930522H
	DD	02H
	DD	FLAT:__unwindtable$??0CDaiPacketGroup@@QAE@PBD@Z
	DD	2 DUP(00H)
	DD	2 DUP(00H)
	DD	00H
	DD	01H
xdata$x	ENDS
; Function compile flags: /Ogtp
; File C:\Program Files (x86)\Microsoft Visual Studio\2019\Community\VC\Tools\MSVC\14.29.30133\atlmfc\include\afxcoll.inl
; File D:\git\src\IBK\IBK_DRFN\ProjSrc\SrcChartEx\ChartOCX\AddInManager\ChartCommonAddIn\DaiPacketGroup.cpp
; File C:\Program Files (x86)\Microsoft Visual Studio\2019\Community\VC\Tools\MSVC\14.29.30133\atlmfc\include\afxtempl.h
; File D:\git\src\IBK\IBK_DRFN\ProjSrc\SrcChartEx\ChartOCX\AddInManager\ChartCommonAddIn\DaiPacketGroup.cpp
; File C:\Program Files (x86)\Microsoft Visual Studio\2019\Community\VC\Tools\MSVC\14.29.30133\atlmfc\include\afxcoll.inl
; File D:\git\src\IBK\IBK_DRFN\ProjSrc\SrcChartEx\ChartOCX\AddInManager\ChartCommonAddIn\DaiPacketGroup.cpp
; File C:\Program Files (x86)\Microsoft Visual Studio\2019\Community\VC\Tools\MSVC\14.29.30133\atlmfc\include\afx.inl
;	COMDAT ??_GCDaiPacketGroup@@UAEPAXI@Z
_TEXT	SEGMENT
__$EHRec$ = -12						; size = 12
___flags$ = 8						; size = 4
??_GCDaiPacketGroup@@UAEPAXI@Z PROC			; CDaiPacketGroup::`scalar deleting destructor', COMDAT
; _this$ = ecx
  00000	55		 push	 ebp
  00001	8b ec		 mov	 ebp, esp
  00003	6a ff		 push	 -1
  00005	68 00 00 00 00	 push	 __ehhandler$??_GCDaiPacketGroup@@UAEPAXI@Z
  0000a	64 a1 00 00 00
	00		 mov	 eax, DWORD PTR fs:0
  00010	50		 push	 eax
  00011	56		 push	 esi
  00012	57		 push	 edi
  00013	a1 00 00 00 00	 mov	 eax, DWORD PTR ___security_cookie
  00018	33 c5		 xor	 eax, ebp
  0001a	50		 push	 eax
  0001b	8d 45 f4	 lea	 eax, DWORD PTR __$EHRec$[ebp]
  0001e	64 a3 00 00 00
	00		 mov	 DWORD PTR fs:0, eax
  00024	8b f1		 mov	 esi, ecx
; File C:\Program Files (x86)\Microsoft Visual Studio\2019\Community\VC\Tools\MSVC\14.29.30133\atlmfc\include\afxcoll.inl

; 410  : 	{ return m_nCount == 0; }

  00026	83 7e 14 00	 cmp	 DWORD PTR [esi+20], 0
; File D:\git\src\IBK\IBK_DRFN\ProjSrc\SrcChartEx\ChartOCX\AddInManager\ChartCommonAddIn\DaiPacketGroup.cpp

; 27   : {

  0002a	c7 45 fc 00 00
	00 00		 mov	 DWORD PTR __$EHRec$[ebp+8], 0
  00031	c7 06 00 00 00
	00		 mov	 DWORD PTR [esi], OFFSET ??_7CDaiPacketGroup@@6B@

; 73   : 	while( !IsEmpty()) delete RemoveHead();

  00037	74 22		 je	 SHORT $LN34@scalar
  00039	0f 1f 80 00 00
	00 00		 npad	 7
$LL11@scalar:
; File C:\Program Files (x86)\Microsoft Visual Studio\2019\Community\VC\Tools\MSVC\14.29.30133\atlmfc\include\afxtempl.h

; 1890 : 		{ return (TYPE)BASE_CLASS::RemoveHead(); }

  00040	8d 4e 08	 lea	 ecx, DWORD PTR [esi+8]
  00043	e8 00 00 00 00	 call	 ?RemoveHead@CObList@@QAEPAVCObject@@XZ ; CObList::RemoveHead
; File D:\git\src\IBK\IBK_DRFN\ProjSrc\SrcChartEx\ChartOCX\AddInManager\ChartCommonAddIn\DaiPacketGroup.cpp

; 73   : 	while( !IsEmpty()) delete RemoveHead();

  00048	85 c0		 test	 eax, eax
  0004a	74 09		 je	 SHORT $LN14@scalar
  0004c	8b 10		 mov	 edx, DWORD PTR [eax]
  0004e	8b c8		 mov	 ecx, eax
  00050	6a 01		 push	 1
  00052	ff 52 04	 call	 DWORD PTR [edx+4]
$LN14@scalar:
; File C:\Program Files (x86)\Microsoft Visual Studio\2019\Community\VC\Tools\MSVC\14.29.30133\atlmfc\include\afxcoll.inl

; 410  : 	{ return m_nCount == 0; }

  00055	83 7e 14 00	 cmp	 DWORD PTR [esi+20], 0
; File D:\git\src\IBK\IBK_DRFN\ProjSrc\SrcChartEx\ChartOCX\AddInManager\ChartCommonAddIn\DaiPacketGroup.cpp

; 73   : 	while( !IsEmpty()) delete RemoveHead();

  00059	75 e5		 jne	 SHORT $LL11@scalar
$LN34@scalar:
  0005b	8d 4e 08	 lea	 ecx, DWORD PTR [esi+8]
  0005e	e8 00 00 00 00	 call	 ??1CObList@@UAE@XZ	; CObList::~CObList

; 30   : }

  00063	8d 4e 04	 lea	 ecx, DWORD PTR [esi+4]
  00066	ff 15 00 00 00
	00		 call	 DWORD PTR __imp_??1?$CStringT@DV?$StrTraitMFC_DLL@DV?$ChTraitsCRT@D@ATL@@@@@ATL@@QAE@XZ
  0006c	8b 45 08	 mov	 eax, DWORD PTR ___flags$[ebp]
  0006f	a8 01		 test	 al, 1
  00071	74 1a		 je	 SHORT $LN36@scalar
  00073	a8 04		 test	 al, 4
  00075	75 0b		 jne	 SHORT $LN3@scalar
; File C:\Program Files (x86)\Microsoft Visual Studio\2019\Community\VC\Tools\MSVC\14.29.30133\atlmfc\include\afx.inl

; 112  : 	{ ::operator delete(p); }

  00077	56		 push	 esi
  00078	e8 00 00 00 00	 call	 ??3@YAXPAX@Z		; operator delete
  0007d	83 c4 04	 add	 esp, 4
  00080	eb 0b		 jmp	 SHORT $LN36@scalar
$LN3@scalar:
  00082	6a 24		 push	 36			; 00000024H
  00084	56		 push	 esi
  00085	e8 00 00 00 00	 call	 ?__global_delete@@YAXPAXI@Z ; __global_delete
  0008a	83 c4 08	 add	 esp, 8
$LN36@scalar:
  0008d	8b c6		 mov	 eax, esi
  0008f	8b 4d f4	 mov	 ecx, DWORD PTR __$EHRec$[ebp]
  00092	64 89 0d 00 00
	00 00		 mov	 DWORD PTR fs:0, ecx
  00099	59		 pop	 ecx
  0009a	5f		 pop	 edi
  0009b	5e		 pop	 esi
  0009c	8b e5		 mov	 esp, ebp
  0009e	5d		 pop	 ebp
  0009f	c2 04 00	 ret	 4
  000a2	cc		 int	 3
  000a3	cc		 int	 3
  000a4	cc		 int	 3
  000a5	cc		 int	 3
  000a6	cc		 int	 3
_TEXT	ENDS
;	COMDAT text$x
text$x	SEGMENT
__ehhandler$??_GCDaiPacketGroup@@UAEPAXI@Z:
  00000	90		 npad	 1
  00001	90		 npad	 1
  00002	8b 54 24 08	 mov	 edx, DWORD PTR [esp+8]
  00006	8d 42 0c	 lea	 eax, DWORD PTR [edx+12]
  00009	8b 4a f4	 mov	 ecx, DWORD PTR [edx-12]
  0000c	33 c8		 xor	 ecx, eax
  0000e	e8 00 00 00 00	 call	 @__security_check_cookie@4
  00013	b8 00 00 00 00	 mov	 eax, OFFSET __ehfuncinfo$??_GCDaiPacketGroup@@UAEPAXI@Z
  00018	e9 00 00 00 00	 jmp	 ___CxxFrameHandler3
text$x	ENDS
??_GCDaiPacketGroup@@UAEPAXI@Z ENDP			; CDaiPacketGroup::`scalar deleting destructor'
; Function compile flags: /Ogtp
; File D:\git\src\IBK\IBK_DRFN\ProjSrc\SrcChartEx\ChartOCX\AddInManager\ChartCommonAddIn\DaiPacketGroup.cpp
; File C:\Program Files (x86)\Microsoft Visual Studio\2019\Community\VC\Tools\MSVC\14.29.30133\atlmfc\include\afxcoll.inl
; File D:\git\src\IBK\IBK_DRFN\ProjSrc\SrcChartEx\ChartOCX\AddInManager\ChartCommonAddIn\DaiPacketGroup.cpp
;	COMDAT ?ResetPacketReceiveFlag@CDaiPacketGroup@@QAEXXZ
_TEXT	SEGMENT
?ResetPacketReceiveFlag@CDaiPacketGroup@@QAEXXZ PROC	; CDaiPacketGroup::ResetPacketReceiveFlag, COMDAT
; _this$ = ecx

; 128  : 	POSITION posDaiCodeGroup = GetHeadPosition();

  00000	8b 41 0c	 mov	 eax, DWORD PTR [ecx+12]

; 129  : 	while( posDaiCodeGroup) GetNext( posDaiCodeGroup)->m_bPacketReceived = FALSE;

  00003	85 c0		 test	 eax, eax
  00005	74 19		 je	 SHORT $LN3@ResetPacke
  00007	66 0f 1f 84 00
	00 00 00 00	 npad	 9
$LL2@ResetPacke:
  00010	8b 48 08	 mov	 ecx, DWORD PTR [eax+8]
; File C:\Program Files (x86)\Microsoft Visual Studio\2019\Community\VC\Tools\MSVC\14.29.30133\atlmfc\include\afxcoll.inl

; 432  : 		rPosition = (POSITION) pNode->pNext;

  00013	8b 00		 mov	 eax, DWORD PTR [eax]
; File D:\git\src\IBK\IBK_DRFN\ProjSrc\SrcChartEx\ChartOCX\AddInManager\ChartCommonAddIn\DaiPacketGroup.cpp

; 129  : 	while( posDaiCodeGroup) GetNext( posDaiCodeGroup)->m_bPacketReceived = FALSE;

  00015	c7 41 24 00 00
	00 00		 mov	 DWORD PTR [ecx+36], 0
  0001c	85 c0		 test	 eax, eax
  0001e	75 f0		 jne	 SHORT $LL2@ResetPacke
$LN3@ResetPacke:

; 130  : }

  00020	c3		 ret	 0
?ResetPacketReceiveFlag@CDaiPacketGroup@@QAEXXZ ENDP	; CDaiPacketGroup::ResetPacketReceiveFlag
_TEXT	ENDS
; Function compile flags: /Ogtp
; File D:\git\src\IBK\IBK_DRFN\ProjSrc\SrcChartEx\ChartOCX\AddInManager\ChartCommonAddIn\DaiPacketGroup.cpp
; File C:\Program Files (x86)\Microsoft Visual Studio\2019\Community\VC\Tools\MSVC\14.29.30133\atlmfc\include\afxcoll.inl
; File D:\git\src\IBK\IBK_DRFN\ProjSrc\SrcChartEx\ChartOCX\AddInManager\ChartCommonAddIn\DaiPacketGroup.cpp
;	COMDAT ?HasOneMoreReceiveForEachPacket@CDaiPacketGroup@@QAEHXZ
_TEXT	SEGMENT
?HasOneMoreReceiveForEachPacket@CDaiPacketGroup@@QAEHXZ PROC ; CDaiPacketGroup::HasOneMoreReceiveForEachPacket, COMDAT
; _this$ = ecx

; 120  : 	POSITION posDaiCodeGroup = GetHeadPosition();

  00000	8b 41 0c	 mov	 eax, DWORD PTR [ecx+12]

; 121  : 	while( posDaiCodeGroup) if( !GetNext( posDaiCodeGroup)->m_bPacketReceived) return FALSE;

  00003	85 c0		 test	 eax, eax
  00005	74 0f		 je	 SHORT $LN3@HasOneMore
$LL2@HasOneMore:
  00007	8b 48 08	 mov	 ecx, DWORD PTR [eax+8]
; File C:\Program Files (x86)\Microsoft Visual Studio\2019\Community\VC\Tools\MSVC\14.29.30133\atlmfc\include\afxcoll.inl

; 432  : 		rPosition = (POSITION) pNode->pNext;

  0000a	8b 00		 mov	 eax, DWORD PTR [eax]
; File D:\git\src\IBK\IBK_DRFN\ProjSrc\SrcChartEx\ChartOCX\AddInManager\ChartCommonAddIn\DaiPacketGroup.cpp

; 121  : 	while( posDaiCodeGroup) if( !GetNext( posDaiCodeGroup)->m_bPacketReceived) return FALSE;

  0000c	83 79 24 00	 cmp	 DWORD PTR [ecx+36], 0
  00010	74 0a		 je	 SHORT $LN18@HasOneMore
  00012	85 c0		 test	 eax, eax
  00014	75 f1		 jne	 SHORT $LL2@HasOneMore
$LN3@HasOneMore:

; 122  : 	return TRUE;

  00016	b8 01 00 00 00	 mov	 eax, 1

; 123  : }

  0001b	c3		 ret	 0
$LN18@HasOneMore:

; 121  : 	while( posDaiCodeGroup) if( !GetNext( posDaiCodeGroup)->m_bPacketReceived) return FALSE;

  0001c	33 c0		 xor	 eax, eax

; 123  : }

  0001e	c3		 ret	 0
?HasOneMoreReceiveForEachPacket@CDaiPacketGroup@@QAEHXZ ENDP ; CDaiPacketGroup::HasOneMoreReceiveForEachPacket
_TEXT	ENDS
; Function compile flags: /Ogtp
; File D:\git\src\IBK\IBK_DRFN\ProjSrc\SrcChartEx\ChartOCX\AddInManager\ChartCommonAddIn\DaiPacketGroup.cpp
;	COMDAT ?SetPacketReceivedFlag@CDaiPacketGroup@@QAEHPBD@Z
_TEXT	SEGMENT
_p_szRealKeyCode$ = 8					; size = 4
?SetPacketReceivedFlag@CDaiPacketGroup@@QAEHPBD@Z PROC	; CDaiPacketGroup::SetPacketReceivedFlag, COMDAT
; _this$ = ecx

; 107  : {

  00000	55		 push	 ebp
  00001	8b ec		 mov	 ebp, esp

; 108  : 	// 1. Real Key Code Group이 등록되어 있지 않는 경우에는 새로 생성한다.
; 109  : 	POSITION posDaiCodeGroup = FindDaiCodeGroup( p_szRealKeyCode);

  00003	ff 75 08	 push	 DWORD PTR _p_szRealKeyCode$[ebp]
  00006	e8 00 00 00 00	 call	 ?FindDaiCodeGroup@CDaiPacketGroup@@QAEPAU__POSITION@@PBD@Z ; CDaiPacketGroup::FindDaiCodeGroup

; 110  : 	if( !posDaiCodeGroup) return FALSE;

  0000b	85 c0		 test	 eax, eax
  0000d	75 04		 jne	 SHORT $LN2@SetPacketR

; 115  : }

  0000f	5d		 pop	 ebp
  00010	c2 04 00	 ret	 4
$LN2@SetPacketR:

; 111  : 
; 112  : 	// 2. 검색된 Real Key Code Group에 새로운 DRDS Advised Info를 구성하여 등록한다.
; 113  : 	GetAt( posDaiCodeGroup)->m_bPacketReceived = TRUE;

  00013	8b 40 08	 mov	 eax, DWORD PTR [eax+8]
  00016	c7 40 24 01 00
	00 00		 mov	 DWORD PTR [eax+36], 1

; 114  : 	return TRUE;

  0001d	b8 01 00 00 00	 mov	 eax, 1

; 115  : }

  00022	5d		 pop	 ebp
  00023	c2 04 00	 ret	 4
?SetPacketReceivedFlag@CDaiPacketGroup@@QAEHPBD@Z ENDP	; CDaiPacketGroup::SetPacketReceivedFlag
_TEXT	ENDS
; Function compile flags: /Ogtp
; File D:\git\src\IBK\IBK_DRFN\ProjSrc\SrcChartEx\ChartOCX\AddInManager\ChartCommonAddIn\DaiPacketGroup.cpp
; File C:\Program Files (x86)\Microsoft Visual Studio\2019\Community\VC\Tools\MSVC\14.29.30133\atlmfc\include\afxcoll.inl
; File D:\git\src\IBK\IBK_DRFN\ProjSrc\SrcChartEx\ChartOCX\AddInManager\ChartCommonAddIn\DaiPacketGroup.cpp
; File C:\Program Files (x86)\Microsoft Visual Studio\2019\Community\VC\Tools\MSVC\14.29.30133\atlmfc\include\cstringt.h
; File D:\git\src\IBK\IBK_DRFN\ProjSrc\SrcChartEx\ChartOCX\AddInManager\ChartCommonAddIn\DaiPacketGroup.cpp
;	COMDAT ?FindDaiCodeGroup@CDaiPacketGroup@@QAEPAU__POSITION@@PBD@Z
_TEXT	SEGMENT
_strRealKeyCode$ = -20					; size = 4
_strAdviseKeyCode$ = -16				; size = 4
__$EHRec$ = -12						; size = 12
_p_szRealKeyCode$ = 8					; size = 4
?FindDaiCodeGroup@CDaiPacketGroup@@QAEPAU__POSITION@@PBD@Z PROC ; CDaiPacketGroup::FindDaiCodeGroup, COMDAT
; _this$ = ecx

; 82   : {

  00000	55		 push	 ebp
  00001	8b ec		 mov	 ebp, esp
  00003	6a ff		 push	 -1
  00005	68 00 00 00 00	 push	 __ehhandler$?FindDaiCodeGroup@CDaiPacketGroup@@QAEPAU__POSITION@@PBD@Z
  0000a	64 a1 00 00 00
	00		 mov	 eax, DWORD PTR fs:0
  00010	50		 push	 eax
  00011	83 ec 08	 sub	 esp, 8
  00014	56		 push	 esi
  00015	57		 push	 edi
  00016	a1 00 00 00 00	 mov	 eax, DWORD PTR ___security_cookie
  0001b	33 c5		 xor	 eax, ebp
  0001d	50		 push	 eax
  0001e	8d 45 f4	 lea	 eax, DWORD PTR __$EHRec$[ebp]
  00021	64 a3 00 00 00
	00		 mov	 DWORD PTR fs:0, eax
  00027	8b f1		 mov	 esi, ecx

; 83   : 	// (2006/4/20 - Seung-Won, Bae) RTrim for space.  After Advise with space, DRDS Send WM_DRDS_PACKET_END without space
; 84   : 	CString strAdviseKeyCode, strRealKeyCode( p_szRealKeyCode);

  00029	8d 4d f0	 lea	 ecx, DWORD PTR _strAdviseKeyCode$[ebp]
  0002c	ff 15 00 00 00
	00		 call	 DWORD PTR __imp_??0?$CStringT@DV?$StrTraitMFC_DLL@DV?$ChTraitsCRT@D@ATL@@@@@ATL@@QAE@XZ
  00032	ff 75 08	 push	 DWORD PTR _p_szRealKeyCode$[ebp]
  00035	8d 4d ec	 lea	 ecx, DWORD PTR _strRealKeyCode$[ebp]
  00038	c7 45 fc 00 00
	00 00		 mov	 DWORD PTR __$EHRec$[ebp+8], 0
  0003f	ff 15 00 00 00
	00		 call	 DWORD PTR __imp_??0?$CStringT@DV?$StrTraitMFC_DLL@DV?$ChTraitsCRT@D@ATL@@@@@ATL@@QAE@PBD@Z

; 85   : 	strRealKeyCode.TrimRight( ' ');

  00045	6a 20		 push	 32			; 00000020H
  00047	8d 4d ec	 lea	 ecx, DWORD PTR _strRealKeyCode$[ebp]
  0004a	c6 45 fc 01	 mov	 BYTE PTR __$EHRec$[ebp+8], 1
  0004e	ff 15 00 00 00
	00		 call	 DWORD PTR __imp_?TrimRight@?$CStringT@DV?$StrTraitMFC_DLL@DV?$ChTraitsCRT@D@ATL@@@@@ATL@@QAEAAV12@D@Z

; 86   : 
; 87   : 	POSITION posPrevDaiCodeGroup;
; 88   : 	POSITION posDaiCodeGroup = GetHeadPosition();

  00054	8b 76 0c	 mov	 esi, DWORD PTR [esi+12]

; 89   : 	while( posDaiCodeGroup)

  00057	85 f6		 test	 esi, esi
  00059	74 38		 je	 SHORT $LN3@FindDaiCod
  0005b	0f 1f 44 00 00	 npad	 5
$LL2@FindDaiCod:

; 92   : 		strAdviseKeyCode = GetNext( posDaiCodeGroup)->m_strRealKeyCode;

  00060	8b 46 08	 mov	 eax, DWORD PTR [esi+8]
  00063	8d 4d f0	 lea	 ecx, DWORD PTR _strAdviseKeyCode$[ebp]
  00066	83 c0 04	 add	 eax, 4
  00069	8b fe		 mov	 edi, esi
; File C:\Program Files (x86)\Microsoft Visual Studio\2019\Community\VC\Tools\MSVC\14.29.30133\atlmfc\include\afxcoll.inl

; 432  : 		rPosition = (POSITION) pNode->pNext;

  0006b	8b 36		 mov	 esi, DWORD PTR [esi]
; File D:\git\src\IBK\IBK_DRFN\ProjSrc\SrcChartEx\ChartOCX\AddInManager\ChartCommonAddIn\DaiPacketGroup.cpp

; 92   : 		strAdviseKeyCode = GetNext( posDaiCodeGroup)->m_strRealKeyCode;

  0006d	50		 push	 eax
  0006e	ff 15 00 00 00
	00		 call	 DWORD PTR __imp_??4?$CStringT@DV?$StrTraitMFC_DLL@DV?$ChTraitsCRT@D@ATL@@@@@ATL@@QAEAAV01@ABV01@@Z

; 93   : 		strAdviseKeyCode.TrimRight( ' ');

  00074	6a 20		 push	 32			; 00000020H
  00076	8d 4d f0	 lea	 ecx, DWORD PTR _strAdviseKeyCode$[ebp]
  00079	ff 15 00 00 00
	00		 call	 DWORD PTR __imp_?TrimRight@?$CStringT@DV?$StrTraitMFC_DLL@DV?$ChTraitsCRT@D@ATL@@@@@ATL@@QAEAAV12@D@Z
; File C:\Program Files (x86)\Microsoft Visual Studio\2019\Community\VC\Tools\MSVC\14.29.30133\atlmfc\include\cstringt.h

; 2479 : 		return(str1.Compare(str2) == 0);

  0007f	ff 75 ec	 push	 DWORD PTR _strRealKeyCode$[ebp]
  00082	8d 4d f0	 lea	 ecx, DWORD PTR _strAdviseKeyCode$[ebp]
  00085	ff 15 00 00 00
	00		 call	 DWORD PTR __imp_?Compare@?$CStringT@DV?$StrTraitMFC_DLL@DV?$ChTraitsCRT@D@ATL@@@@@ATL@@QBEHPBD@Z
  0008b	85 c0		 test	 eax, eax
; File D:\git\src\IBK\IBK_DRFN\ProjSrc\SrcChartEx\ChartOCX\AddInManager\ChartCommonAddIn\DaiPacketGroup.cpp

; 94   : 		if( strAdviseKeyCode == strRealKeyCode) return posPrevDaiCodeGroup;

  0008d	74 06		 je	 SHORT $LN8@FindDaiCod

; 89   : 	while( posDaiCodeGroup)

  0008f	85 f6		 test	 esi, esi
  00091	75 cd		 jne	 SHORT $LL2@FindDaiCod
$LN3@FindDaiCod:

; 95   : 	}
; 96   : 	return NULL;

  00093	33 ff		 xor	 edi, edi
$LN8@FindDaiCod:
  00095	8d 4d ec	 lea	 ecx, DWORD PTR _strRealKeyCode$[ebp]
  00098	ff 15 00 00 00
	00		 call	 DWORD PTR __imp_??1?$CStringT@DV?$StrTraitMFC_DLL@DV?$ChTraitsCRT@D@ATL@@@@@ATL@@QAE@XZ
  0009e	8d 4d f0	 lea	 ecx, DWORD PTR _strAdviseKeyCode$[ebp]
  000a1	ff 15 00 00 00
	00		 call	 DWORD PTR __imp_??1?$CStringT@DV?$StrTraitMFC_DLL@DV?$ChTraitsCRT@D@ATL@@@@@ATL@@QAE@XZ
  000a7	8b c7		 mov	 eax, edi

; 97   : }

  000a9	8b 4d f4	 mov	 ecx, DWORD PTR __$EHRec$[ebp]
  000ac	64 89 0d 00 00
	00 00		 mov	 DWORD PTR fs:0, ecx
  000b3	59		 pop	 ecx
  000b4	5f		 pop	 edi
  000b5	5e		 pop	 esi
  000b6	8b e5		 mov	 esp, ebp
  000b8	5d		 pop	 ebp
  000b9	c2 04 00	 ret	 4
_TEXT	ENDS
;	COMDAT text$x
text$x	SEGMENT
__unwindfunclet$?FindDaiCodeGroup@CDaiPacketGroup@@QAEPAU__POSITION@@PBD@Z$0:
  00000	8d 4d f0	 lea	 ecx, DWORD PTR _strAdviseKeyCode$[ebp]
  00003	ff 25 00 00 00
	00		 jmp	 DWORD PTR __imp_??1?$CStringT@DV?$StrTraitMFC_DLL@DV?$ChTraitsCRT@D@ATL@@@@@ATL@@QAE@XZ
__unwindfunclet$?FindDaiCodeGroup@CDaiPacketGroup@@QAEPAU__POSITION@@PBD@Z$1:
  00009	8d 4d ec	 lea	 ecx, DWORD PTR _strRealKeyCode$[ebp]
  0000c	ff 25 00 00 00
	00		 jmp	 DWORD PTR __imp_??1?$CStringT@DV?$StrTraitMFC_DLL@DV?$ChTraitsCRT@D@ATL@@@@@ATL@@QAE@XZ
  00012	cc		 int	 3
  00013	cc		 int	 3
  00014	cc		 int	 3
  00015	cc		 int	 3
  00016	cc		 int	 3
__ehhandler$?FindDaiCodeGroup@CDaiPacketGroup@@QAEPAU__POSITION@@PBD@Z:
  00017	90		 npad	 1
  00018	90		 npad	 1
  00019	8b 54 24 08	 mov	 edx, DWORD PTR [esp+8]
  0001d	8d 42 0c	 lea	 eax, DWORD PTR [edx+12]
  00020	8b 4a ec	 mov	 ecx, DWORD PTR [edx-20]
  00023	33 c8		 xor	 ecx, eax
  00025	e8 00 00 00 00	 call	 @__security_check_cookie@4
  0002a	b8 00 00 00 00	 mov	 eax, OFFSET __ehfuncinfo$?FindDaiCodeGroup@CDaiPacketGroup@@QAEPAU__POSITION@@PBD@Z
  0002f	e9 00 00 00 00	 jmp	 ___CxxFrameHandler3
text$x	ENDS
?FindDaiCodeGroup@CDaiPacketGroup@@QAEPAU__POSITION@@PBD@Z ENDP ; CDaiPacketGroup::FindDaiCodeGroup
; Function compile flags: /Ogtp
; File D:\git\src\IBK\IBK_DRFN\ProjSrc\SrcChartEx\ChartOCX\AddInManager\ChartCommonAddIn\DaiPacketGroup.cpp
; File C:\Program Files (x86)\Microsoft Visual Studio\2019\Community\VC\Tools\MSVC\14.29.30133\atlmfc\include\afxcoll.inl
; File D:\git\src\IBK\IBK_DRFN\ProjSrc\SrcChartEx\ChartOCX\AddInManager\ChartCommonAddIn\DaiPacketGroup.cpp
; File C:\Program Files (x86)\Microsoft Visual Studio\2019\Community\VC\Tools\MSVC\14.29.30133\atlmfc\include\afxtempl.h
; File D:\git\src\IBK\IBK_DRFN\ProjSrc\SrcChartEx\ChartOCX\AddInManager\ChartCommonAddIn\DaiPacketGroup.cpp
; File C:\Program Files (x86)\Microsoft Visual Studio\2019\Community\VC\Tools\MSVC\14.29.30133\atlmfc\include\afxcoll.inl
; File D:\git\src\IBK\IBK_DRFN\ProjSrc\SrcChartEx\ChartOCX\AddInManager\ChartCommonAddIn\DaiPacketGroup.cpp
;	COMDAT ?RemoveAllDrdsAdvisedInfo@CDaiPacketGroup@@QAEXXZ
_TEXT	SEGMENT
?RemoveAllDrdsAdvisedInfo@CDaiPacketGroup@@QAEXXZ PROC	; CDaiPacketGroup::RemoveAllDrdsAdvisedInfo, COMDAT
; _this$ = ecx

; 72   : {

  00000	56		 push	 esi
  00001	8b f1		 mov	 esi, ecx
; File C:\Program Files (x86)\Microsoft Visual Studio\2019\Community\VC\Tools\MSVC\14.29.30133\atlmfc\include\afxcoll.inl

; 410  : 	{ return m_nCount == 0; }

  00003	83 7e 14 00	 cmp	 DWORD PTR [esi+20], 0
; File D:\git\src\IBK\IBK_DRFN\ProjSrc\SrcChartEx\ChartOCX\AddInManager\ChartCommonAddIn\DaiPacketGroup.cpp

; 73   : 	while( !IsEmpty()) delete RemoveHead();

  00007	74 23		 je	 SHORT $LN3@RemoveAllD
  00009	57		 push	 edi
  0000a	66 0f 1f 44 00
	00		 npad	 6
$LL2@RemoveAllD:
; File C:\Program Files (x86)\Microsoft Visual Studio\2019\Community\VC\Tools\MSVC\14.29.30133\atlmfc\include\afxtempl.h

; 1890 : 		{ return (TYPE)BASE_CLASS::RemoveHead(); }

  00010	8d 4e 08	 lea	 ecx, DWORD PTR [esi+8]
  00013	e8 00 00 00 00	 call	 ?RemoveHead@CObList@@QAEPAVCObject@@XZ ; CObList::RemoveHead
; File D:\git\src\IBK\IBK_DRFN\ProjSrc\SrcChartEx\ChartOCX\AddInManager\ChartCommonAddIn\DaiPacketGroup.cpp

; 73   : 	while( !IsEmpty()) delete RemoveHead();

  00018	85 c0		 test	 eax, eax
  0001a	74 09		 je	 SHORT $LN5@RemoveAllD
  0001c	8b 10		 mov	 edx, DWORD PTR [eax]
  0001e	8b c8		 mov	 ecx, eax
  00020	6a 01		 push	 1
  00022	ff 52 04	 call	 DWORD PTR [edx+4]
$LN5@RemoveAllD:
; File C:\Program Files (x86)\Microsoft Visual Studio\2019\Community\VC\Tools\MSVC\14.29.30133\atlmfc\include\afxcoll.inl

; 410  : 	{ return m_nCount == 0; }

  00025	83 7e 14 00	 cmp	 DWORD PTR [esi+20], 0
; File D:\git\src\IBK\IBK_DRFN\ProjSrc\SrcChartEx\ChartOCX\AddInManager\ChartCommonAddIn\DaiPacketGroup.cpp

; 73   : 	while( !IsEmpty()) delete RemoveHead();

  00029	75 e5		 jne	 SHORT $LL2@RemoveAllD
  0002b	5f		 pop	 edi
$LN3@RemoveAllD:
  0002c	5e		 pop	 esi

; 74   : }

  0002d	c3		 ret	 0
?RemoveAllDrdsAdvisedInfo@CDaiPacketGroup@@QAEXXZ ENDP	; CDaiPacketGroup::RemoveAllDrdsAdvisedInfo
_TEXT	ENDS
; Function compile flags: /Ogtp
; File D:\git\src\IBK\IBK_DRFN\ProjSrc\SrcChartEx\ChartOCX\AddInManager\ChartCommonAddIn\DaiPacketGroup.cpp
; File C:\Program Files (x86)\Microsoft Visual Studio\2019\Community\VC\Tools\MSVC\14.29.30133\atlmfc\include\afx.inl
; File D:\git\src\IBK\IBK_DRFN\ProjSrc\SrcChartEx\ChartOCX\AddInManager\ChartCommonAddIn\DaiPacketGroup.cpp
; File C:\Program Files (x86)\Microsoft Visual Studio\2019\Community\VC\Tools\MSVC\14.29.30133\atlmfc\include\afxtempl.h
; File D:\git\src\IBK\IBK_DRFN\ProjSrc\SrcChartEx\ChartOCX\AddInManager\ChartCommonAddIn\DaiPacketGroup.h
; File D:\git\src\IBK\IBK_DRFN\ProjSrc\SrcChartEx\ChartOCX\AddInManager\ChartCommonAddIn\DaiPacketGroup.cpp
; File C:\Program Files (x86)\Microsoft Visual Studio\2019\Community\VC\Tools\MSVC\14.29.30133\atlmfc\include\afxtempl.h
; File D:\git\src\IBK\IBK_DRFN\ProjSrc\SrcChartEx\ChartOCX\AddInManager\ChartCommonAddIn\DaiPacketGroup.cpp
; File C:\Program Files (x86)\Microsoft Visual Studio\2019\Community\VC\Tools\MSVC\14.29.30133\atlmfc\include\afxcoll.inl
; File D:\git\src\IBK\IBK_DRFN\ProjSrc\SrcChartEx\ChartOCX\AddInManager\ChartCommonAddIn\DaiPacketGroup.cpp
; File C:\Program Files (x86)\Microsoft Visual Studio\2019\Community\VC\Tools\MSVC\14.29.30133\atlmfc\include\afxcoll.inl
; File D:\git\src\IBK\IBK_DRFN\ProjSrc\SrcChartEx\ChartOCX\AddInManager\ChartCommonAddIn\DaiPacketGroup.cpp
;	COMDAT ?AddDrdsAdvisedInfo@CDaiPacketGroup@@QAEHPBDPAUIPacket000000@@00@Z
_TEXT	SEGMENT
$T2 = -16						; size = 4
__$EHRec$ = -12						; size = 12
_lpszRQ$ = 8						; size = 4
_p_pIPacket$ = 12					; size = 4
_p_szRealFieldName$ = 16				; size = 4
_p_szRealKeyCode$ = 20					; size = 4
?AddDrdsAdvisedInfo@CDaiPacketGroup@@QAEHPBDPAUIPacket000000@@00@Z PROC ; CDaiPacketGroup::AddDrdsAdvisedInfo, COMDAT
; _this$ = ecx

; 53   : {

  00000	55		 push	 ebp
  00001	8b ec		 mov	 ebp, esp
  00003	6a ff		 push	 -1
  00005	68 00 00 00 00	 push	 __ehhandler$?AddDrdsAdvisedInfo@CDaiPacketGroup@@QAEHPBDPAUIPacket000000@@00@Z
  0000a	64 a1 00 00 00
	00		 mov	 eax, DWORD PTR fs:0
  00010	50		 push	 eax
  00011	51		 push	 ecx
  00012	56		 push	 esi
  00013	a1 00 00 00 00	 mov	 eax, DWORD PTR ___security_cookie
  00018	33 c5		 xor	 eax, ebp
  0001a	50		 push	 eax
  0001b	8d 45 f4	 lea	 eax, DWORD PTR __$EHRec$[ebp]
  0001e	64 a3 00 00 00
	00		 mov	 DWORD PTR fs:0, eax
  00024	8b f1		 mov	 esi, ecx

; 54   : 	// 1. Real Key Code Group이 등록되어 있지 않는 경우에는 새로 생성한다.
; 55   : 	POSITION posDaiCodeGroup = FindDaiCodeGroup(p_szRealKeyCode);

  00026	ff 75 14	 push	 DWORD PTR _p_szRealKeyCode$[ebp]
  00029	e8 00 00 00 00	 call	 ?FindDaiCodeGroup@CDaiPacketGroup@@QAEPAU__POSITION@@PBD@Z ; CDaiPacketGroup::FindDaiCodeGroup

; 56   : 	if( !posDaiCodeGroup)

  0002e	85 c0		 test	 eax, eax
  00030	75 3d		 jne	 SHORT $LN18@AddDrdsAdv
; File C:\Program Files (x86)\Microsoft Visual Studio\2019\Community\VC\Tools\MSVC\14.29.30133\atlmfc\include\afx.inl

; 116  : 	{ return ::operator new(nSize); }

  00032	6a 28		 push	 40			; 00000028H
  00034	e8 00 00 00 00	 call	 ??2@YAPAXI@Z		; operator new
  00039	83 c4 04	 add	 esp, 4
; File D:\git\src\IBK\IBK_DRFN\ProjSrc\SrcChartEx\ChartOCX\AddInManager\ChartCommonAddIn\DaiPacketGroup.cpp

; 58   : 		AddTail( new CDaiCodeGroup( p_szRealKeyCode));

  0003c	89 45 f0	 mov	 DWORD PTR $T2[ebp], eax
  0003f	c7 45 fc 00 00
	00 00		 mov	 DWORD PTR __$EHRec$[ebp+8], 0
  00046	85 c0		 test	 eax, eax
  00048	74 0c		 je	 SHORT $LN4@AddDrdsAdv
  0004a	ff 75 14	 push	 DWORD PTR _p_szRealKeyCode$[ebp]
  0004d	8b c8		 mov	 ecx, eax
  0004f	e8 00 00 00 00	 call	 ??0CDaiCodeGroup@@QAE@PBD@Z ; CDaiCodeGroup::CDaiCodeGroup
  00054	eb 02		 jmp	 SHORT $LN5@AddDrdsAdv
$LN4@AddDrdsAdv:
  00056	33 c0		 xor	 eax, eax
$LN5@AddDrdsAdv:
; File C:\Program Files (x86)\Microsoft Visual Studio\2019\Community\VC\Tools\MSVC\14.29.30133\atlmfc\include\afxtempl.h

; 1959 : 		{ return BASE_CLASS::AddTail(newElement); }

  00058	50		 push	 eax
; File D:\git\src\IBK\IBK_DRFN\ProjSrc\SrcChartEx\ChartOCX\AddInManager\ChartCommonAddIn\DaiPacketGroup.h

; 39   : 	POSITION			AddTail( CDaiCodeGroup *newElement)		{	return m_lDaiPacketGroup.AddTail( newElement);	}

  00059	8d 4e 08	 lea	 ecx, DWORD PTR [esi+8]
; File D:\git\src\IBK\IBK_DRFN\ProjSrc\SrcChartEx\ChartOCX\AddInManager\ChartCommonAddIn\DaiPacketGroup.cpp

; 58   : 		AddTail( new CDaiCodeGroup( p_szRealKeyCode));

  0005c	c7 45 fc ff ff
	ff ff		 mov	 DWORD PTR __$EHRec$[ebp+8], -1
; File C:\Program Files (x86)\Microsoft Visual Studio\2019\Community\VC\Tools\MSVC\14.29.30133\atlmfc\include\afxtempl.h

; 1959 : 		{ return BASE_CLASS::AddTail(newElement); }

  00063	e8 00 00 00 00	 call	 ?AddTail@CObList@@QAEPAU__POSITION@@PAVCObject@@@Z ; CObList::AddTail
; File D:\git\src\IBK\IBK_DRFN\ProjSrc\SrcChartEx\ChartOCX\AddInManager\ChartCommonAddIn\DaiPacketGroup.cpp

; 59   : 		posDaiCodeGroup = GetTailPosition();

  00068	8b 46 10	 mov	 eax, DWORD PTR [esi+16]
; File C:\Program Files (x86)\Microsoft Visual Studio\2019\Community\VC\Tools\MSVC\14.29.30133\atlmfc\include\afxcoll.inl

; 464  : 		if( pNode == NULL )

  0006b	85 c0		 test	 eax, eax
  0006d	74 23		 je	 SHORT $LN26@AddDrdsAdv
$LN18@AddDrdsAdv:
; File D:\git\src\IBK\IBK_DRFN\ProjSrc\SrcChartEx\ChartOCX\AddInManager\ChartCommonAddIn\DaiPacketGroup.cpp

; 63   : 	return GetAt( posDaiCodeGroup)->AddDrdsAdvisedInfo(lpszRQ, p_pIPacket, p_szRealFieldName);

  0006f	ff 75 10	 push	 DWORD PTR _p_szRealFieldName$[ebp]
  00072	8b 48 08	 mov	 ecx, DWORD PTR [eax+8]
  00075	ff 75 0c	 push	 DWORD PTR _p_pIPacket$[ebp]
  00078	ff 75 08	 push	 DWORD PTR _lpszRQ$[ebp]
  0007b	e8 00 00 00 00	 call	 ?AddDrdsAdvisedInfo@CDaiCodeGroup@@QAEHPBDPAUIPacket000000@@0@Z ; CDaiCodeGroup::AddDrdsAdvisedInfo

; 64   : }

  00080	8b 4d f4	 mov	 ecx, DWORD PTR __$EHRec$[ebp]
  00083	64 89 0d 00 00
	00 00		 mov	 DWORD PTR fs:0, ecx
  0008a	59		 pop	 ecx
  0008b	5e		 pop	 esi
  0008c	8b e5		 mov	 esp, ebp
  0008e	5d		 pop	 ebp
  0008f	c2 10 00	 ret	 16			; 00000010H
$LN26@AddDrdsAdv:
; File C:\Program Files (x86)\Microsoft Visual Studio\2019\Community\VC\Tools\MSVC\14.29.30133\atlmfc\include\afxcoll.inl

; 465  : 			AfxThrowInvalidArgException();

  00092	e8 00 00 00 00	 call	 ?AfxThrowInvalidArgException@@YGXXZ ; AfxThrowInvalidArgException
$LN24@AddDrdsAdv:
  00097	cc		 int	 3
_TEXT	ENDS
;	COMDAT text$x
text$x	SEGMENT
__unwindfunclet$?AddDrdsAdvisedInfo@CDaiPacketGroup@@QAEHPBDPAUIPacket000000@@00@Z$0:
  00000	8b 45 f0	 mov	 eax, DWORD PTR $T2[ebp]
  00003	50		 push	 eax
  00004	e8 00 00 00 00	 call	 ??3CObject@@SGXPAX@Z	; CObject::operator delete
  00009	c3		 ret	 0
  0000a	cc		 int	 3
  0000b	cc		 int	 3
  0000c	cc		 int	 3
  0000d	cc		 int	 3
  0000e	cc		 int	 3
__ehhandler$?AddDrdsAdvisedInfo@CDaiPacketGroup@@QAEHPBDPAUIPacket000000@@00@Z:
  0000f	90		 npad	 1
  00010	90		 npad	 1
  00011	8b 54 24 08	 mov	 edx, DWORD PTR [esp+8]
  00015	8d 42 0c	 lea	 eax, DWORD PTR [edx+12]
  00018	8b 4a f4	 mov	 ecx, DWORD PTR [edx-12]
  0001b	33 c8		 xor	 ecx, eax
  0001d	e8 00 00 00 00	 call	 @__security_check_cookie@4
  00022	b8 00 00 00 00	 mov	 eax, OFFSET __ehfuncinfo$?AddDrdsAdvisedInfo@CDaiPacketGroup@@QAEHPBDPAUIPacket000000@@00@Z
  00027	e9 00 00 00 00	 jmp	 ___CxxFrameHandler3
text$x	ENDS
?AddDrdsAdvisedInfo@CDaiPacketGroup@@QAEHPBDPAUIPacket000000@@00@Z ENDP ; CDaiPacketGroup::AddDrdsAdvisedInfo
; Function compile flags: /Ogtp
; File D:\git\src\IBK\IBK_DRFN\ProjSrc\SrcChartEx\ChartOCX\AddInManager\ChartCommonAddIn\DaiPacketGroup.cpp
; File C:\Program Files (x86)\Microsoft Visual Studio\2019\Community\VC\Tools\MSVC\14.29.30133\atlmfc\include\afx.inl
; File D:\git\src\IBK\IBK_DRFN\ProjSrc\SrcChartEx\ChartOCX\AddInManager\ChartCommonAddIn\DaiPacketGroup.cpp
; File C:\Program Files (x86)\Microsoft Visual Studio\2019\Community\VC\Tools\MSVC\14.29.30133\atlmfc\include\afxtempl.h
; File D:\git\src\IBK\IBK_DRFN\ProjSrc\SrcChartEx\ChartOCX\AddInManager\ChartCommonAddIn\DaiPacketGroup.h
; File D:\git\src\IBK\IBK_DRFN\ProjSrc\SrcChartEx\ChartOCX\AddInManager\ChartCommonAddIn\DaiPacketGroup.cpp
; File C:\Program Files (x86)\Microsoft Visual Studio\2019\Community\VC\Tools\MSVC\14.29.30133\atlmfc\include\afxtempl.h
; File D:\git\src\IBK\IBK_DRFN\ProjSrc\SrcChartEx\ChartOCX\AddInManager\ChartCommonAddIn\DaiPacketGroup.cpp
; File C:\Program Files (x86)\Microsoft Visual Studio\2019\Community\VC\Tools\MSVC\14.29.30133\atlmfc\include\afxcoll.inl
; File D:\git\src\IBK\IBK_DRFN\ProjSrc\SrcChartEx\ChartOCX\AddInManager\ChartCommonAddIn\DaiPacketGroup.cpp
; File C:\Program Files (x86)\Microsoft Visual Studio\2019\Community\VC\Tools\MSVC\14.29.30133\atlmfc\include\afxcoll.inl
; File D:\git\src\IBK\IBK_DRFN\ProjSrc\SrcChartEx\ChartOCX\AddInManager\ChartCommonAddIn\DaiPacketGroup.cpp
;	COMDAT ?AddDrdsAdvisedInfo@CDaiPacketGroup@@QAEHPAUIPacket000000@@PBD1@Z
_TEXT	SEGMENT
$T2 = -16						; size = 4
__$EHRec$ = -12						; size = 12
_p_pIPacket$ = 8					; size = 4
_p_szRealFieldName$ = 12				; size = 4
_p_szRealKeyCode$ = 16					; size = 4
?AddDrdsAdvisedInfo@CDaiPacketGroup@@QAEHPAUIPacket000000@@PBD1@Z PROC ; CDaiPacketGroup::AddDrdsAdvisedInfo, COMDAT
; _this$ = ecx

; 38   : {

  00000	55		 push	 ebp
  00001	8b ec		 mov	 ebp, esp
  00003	6a ff		 push	 -1
  00005	68 00 00 00 00	 push	 __ehhandler$?AddDrdsAdvisedInfo@CDaiPacketGroup@@QAEHPAUIPacket000000@@PBD1@Z
  0000a	64 a1 00 00 00
	00		 mov	 eax, DWORD PTR fs:0
  00010	50		 push	 eax
  00011	51		 push	 ecx
  00012	56		 push	 esi
  00013	a1 00 00 00 00	 mov	 eax, DWORD PTR ___security_cookie
  00018	33 c5		 xor	 eax, ebp
  0001a	50		 push	 eax
  0001b	8d 45 f4	 lea	 eax, DWORD PTR __$EHRec$[ebp]
  0001e	64 a3 00 00 00
	00		 mov	 DWORD PTR fs:0, eax
  00024	8b f1		 mov	 esi, ecx

; 39   : 	// 1. Real Key Code Group이 등록되어 있지 않는 경우에는 새로 생성한다.
; 40   : 	POSITION posDaiCodeGroup = FindDaiCodeGroup( p_szRealKeyCode);

  00026	ff 75 10	 push	 DWORD PTR _p_szRealKeyCode$[ebp]
  00029	e8 00 00 00 00	 call	 ?FindDaiCodeGroup@CDaiPacketGroup@@QAEPAU__POSITION@@PBD@Z ; CDaiPacketGroup::FindDaiCodeGroup

; 41   : 	if( !posDaiCodeGroup)

  0002e	85 c0		 test	 eax, eax
  00030	75 3d		 jne	 SHORT $LN18@AddDrdsAdv
; File C:\Program Files (x86)\Microsoft Visual Studio\2019\Community\VC\Tools\MSVC\14.29.30133\atlmfc\include\afx.inl

; 116  : 	{ return ::operator new(nSize); }

  00032	6a 28		 push	 40			; 00000028H
  00034	e8 00 00 00 00	 call	 ??2@YAPAXI@Z		; operator new
  00039	83 c4 04	 add	 esp, 4
; File D:\git\src\IBK\IBK_DRFN\ProjSrc\SrcChartEx\ChartOCX\AddInManager\ChartCommonAddIn\DaiPacketGroup.cpp

; 43   : 		AddTail( new CDaiCodeGroup( p_szRealKeyCode));

  0003c	89 45 f0	 mov	 DWORD PTR $T2[ebp], eax
  0003f	c7 45 fc 00 00
	00 00		 mov	 DWORD PTR __$EHRec$[ebp+8], 0
  00046	85 c0		 test	 eax, eax
  00048	74 0c		 je	 SHORT $LN4@AddDrdsAdv
  0004a	ff 75 10	 push	 DWORD PTR _p_szRealKeyCode$[ebp]
  0004d	8b c8		 mov	 ecx, eax
  0004f	e8 00 00 00 00	 call	 ??0CDaiCodeGroup@@QAE@PBD@Z ; CDaiCodeGroup::CDaiCodeGroup
  00054	eb 02		 jmp	 SHORT $LN5@AddDrdsAdv
$LN4@AddDrdsAdv:
  00056	33 c0		 xor	 eax, eax
$LN5@AddDrdsAdv:
; File C:\Program Files (x86)\Microsoft Visual Studio\2019\Community\VC\Tools\MSVC\14.29.30133\atlmfc\include\afxtempl.h

; 1959 : 		{ return BASE_CLASS::AddTail(newElement); }

  00058	50		 push	 eax
; File D:\git\src\IBK\IBK_DRFN\ProjSrc\SrcChartEx\ChartOCX\AddInManager\ChartCommonAddIn\DaiPacketGroup.h

; 39   : 	POSITION			AddTail( CDaiCodeGroup *newElement)		{	return m_lDaiPacketGroup.AddTail( newElement);	}

  00059	8d 4e 08	 lea	 ecx, DWORD PTR [esi+8]
; File D:\git\src\IBK\IBK_DRFN\ProjSrc\SrcChartEx\ChartOCX\AddInManager\ChartCommonAddIn\DaiPacketGroup.cpp

; 43   : 		AddTail( new CDaiCodeGroup( p_szRealKeyCode));

  0005c	c7 45 fc ff ff
	ff ff		 mov	 DWORD PTR __$EHRec$[ebp+8], -1
; File C:\Program Files (x86)\Microsoft Visual Studio\2019\Community\VC\Tools\MSVC\14.29.30133\atlmfc\include\afxtempl.h

; 1959 : 		{ return BASE_CLASS::AddTail(newElement); }

  00063	e8 00 00 00 00	 call	 ?AddTail@CObList@@QAEPAU__POSITION@@PAVCObject@@@Z ; CObList::AddTail
; File D:\git\src\IBK\IBK_DRFN\ProjSrc\SrcChartEx\ChartOCX\AddInManager\ChartCommonAddIn\DaiPacketGroup.cpp

; 44   : 		posDaiCodeGroup = GetTailPosition();

  00068	8b 46 10	 mov	 eax, DWORD PTR [esi+16]
; File C:\Program Files (x86)\Microsoft Visual Studio\2019\Community\VC\Tools\MSVC\14.29.30133\atlmfc\include\afxcoll.inl

; 464  : 		if( pNode == NULL )

  0006b	85 c0		 test	 eax, eax
  0006d	74 20		 je	 SHORT $LN26@AddDrdsAdv
$LN18@AddDrdsAdv:
; File D:\git\src\IBK\IBK_DRFN\ProjSrc\SrcChartEx\ChartOCX\AddInManager\ChartCommonAddIn\DaiPacketGroup.cpp

; 48   : 	return GetAt( posDaiCodeGroup)->AddDrdsAdvisedInfo( p_pIPacket, p_szRealFieldName);

  0006f	ff 75 0c	 push	 DWORD PTR _p_szRealFieldName$[ebp]
  00072	8b 48 08	 mov	 ecx, DWORD PTR [eax+8]
  00075	ff 75 08	 push	 DWORD PTR _p_pIPacket$[ebp]
  00078	e8 00 00 00 00	 call	 ?AddDrdsAdvisedInfo@CDaiCodeGroup@@QAEHPAUIPacket000000@@PBD@Z ; CDaiCodeGroup::AddDrdsAdvisedInfo

; 49   : }

  0007d	8b 4d f4	 mov	 ecx, DWORD PTR __$EHRec$[ebp]
  00080	64 89 0d 00 00
	00 00		 mov	 DWORD PTR fs:0, ecx
  00087	59		 pop	 ecx
  00088	5e		 pop	 esi
  00089	8b e5		 mov	 esp, ebp
  0008b	5d		 pop	 ebp
  0008c	c2 0c 00	 ret	 12			; 0000000cH
$LN26@AddDrdsAdv:
; File C:\Program Files (x86)\Microsoft Visual Studio\2019\Community\VC\Tools\MSVC\14.29.30133\atlmfc\include\afxcoll.inl

; 465  : 			AfxThrowInvalidArgException();

  0008f	e8 00 00 00 00	 call	 ?AfxThrowInvalidArgException@@YGXXZ ; AfxThrowInvalidArgException
$LN24@AddDrdsAdv:
  00094	cc		 int	 3
_TEXT	ENDS
;	COMDAT text$x
text$x	SEGMENT
__unwindfunclet$?AddDrdsAdvisedInfo@CDaiPacketGroup@@QAEHPAUIPacket000000@@PBD1@Z$0:
  00000	8b 45 f0	 mov	 eax, DWORD PTR $T2[ebp]
  00003	50		 push	 eax
  00004	e8 00 00 00 00	 call	 ??3CObject@@SGXPAX@Z	; CObject::operator delete
  00009	c3		 ret	 0
  0000a	cc		 int	 3
  0000b	cc		 int	 3
  0000c	cc		 int	 3
  0000d	cc		 int	 3
  0000e	cc		 int	 3
__ehhandler$?AddDrdsAdvisedInfo@CDaiPacketGroup@@QAEHPAUIPacket000000@@PBD1@Z:
  0000f	90		 npad	 1
  00010	90		 npad	 1
  00011	8b 54 24 08	 mov	 edx, DWORD PTR [esp+8]
  00015	8d 42 0c	 lea	 eax, DWORD PTR [edx+12]
  00018	8b 4a f4	 mov	 ecx, DWORD PTR [edx-12]
  0001b	33 c8		 xor	 ecx, eax
  0001d	e8 00 00 00 00	 call	 @__security_check_cookie@4
  00022	b8 00 00 00 00	 mov	 eax, OFFSET __ehfuncinfo$?AddDrdsAdvisedInfo@CDaiPacketGroup@@QAEHPAUIPacket000000@@PBD1@Z
  00027	e9 00 00 00 00	 jmp	 ___CxxFrameHandler3
text$x	ENDS
?AddDrdsAdvisedInfo@CDaiPacketGroup@@QAEHPAUIPacket000000@@PBD1@Z ENDP ; CDaiPacketGroup::AddDrdsAdvisedInfo
; Function compile flags: /Ogtp
; File C:\Program Files (x86)\Microsoft Visual Studio\2019\Community\VC\Tools\MSVC\14.29.30133\atlmfc\include\afx.inl
;	COMDAT ??_G?$CTypedPtrList@VCObList@@PAVCDaiCodeGroup@@@@UAEPAXI@Z
_TEXT	SEGMENT
___flags$ = 8						; size = 4
??_G?$CTypedPtrList@VCObList@@PAVCDaiCodeGroup@@@@UAEPAXI@Z PROC ; CTypedPtrList<CObList,CDaiCodeGroup *>::`scalar deleting destructor', COMDAT
; _this$ = ecx
  00000	55		 push	 ebp
  00001	8b ec		 mov	 ebp, esp
  00003	56		 push	 esi
  00004	8b f1		 mov	 esi, ecx
  00006	e8 00 00 00 00	 call	 ??1CObList@@UAE@XZ	; CObList::~CObList
  0000b	8b 45 08	 mov	 eax, DWORD PTR ___flags$[ebp]
  0000e	a8 01		 test	 al, 1
  00010	74 1f		 je	 SHORT $LN15@scalar
  00012	a8 04		 test	 al, 4
  00014	75 10		 jne	 SHORT $LN3@scalar

; 112  : 	{ ::operator delete(p); }

  00016	56		 push	 esi
  00017	e8 00 00 00 00	 call	 ??3@YAXPAX@Z		; operator delete
  0001c	83 c4 04	 add	 esp, 4
  0001f	8b c6		 mov	 eax, esi
  00021	5e		 pop	 esi
  00022	5d		 pop	 ebp
  00023	c2 04 00	 ret	 4
$LN3@scalar:
  00026	6a 1c		 push	 28			; 0000001cH
  00028	56		 push	 esi
  00029	e8 00 00 00 00	 call	 ?__global_delete@@YAXPAXI@Z ; __global_delete
  0002e	83 c4 08	 add	 esp, 8
$LN15@scalar:
  00031	8b c6		 mov	 eax, esi
  00033	5e		 pop	 esi
  00034	5d		 pop	 ebp
  00035	c2 04 00	 ret	 4
??_G?$CTypedPtrList@VCObList@@PAVCDaiCodeGroup@@@@UAEPAXI@Z ENDP ; CTypedPtrList<CObList,CDaiCodeGroup *>::`scalar deleting destructor'
_TEXT	ENDS
; Function compile flags: /Ogtp
;	COMDAT ??1?$CTypedPtrList@VCObList@@PAVCDaiCodeGroup@@@@UAE@XZ
_TEXT	SEGMENT
??1?$CTypedPtrList@VCObList@@PAVCDaiCodeGroup@@@@UAE@XZ PROC ; CTypedPtrList<CObList,CDaiCodeGroup *>::~CTypedPtrList<CObList,CDaiCodeGroup *>, COMDAT
; _this$ = ecx
  00000	e9 00 00 00 00	 jmp	 ??1CObList@@UAE@XZ	; CObList::~CObList
??1?$CTypedPtrList@VCObList@@PAVCDaiCodeGroup@@@@UAE@XZ ENDP ; CTypedPtrList<CObList,CDaiCodeGroup *>::~CTypedPtrList<CObList,CDaiCodeGroup *>
_TEXT	ENDS
; Function compile flags: /Ogtp
; File C:\Program Files (x86)\Microsoft Visual Studio\2019\Community\VC\Tools\MSVC\14.29.30133\atlmfc\include\afx.inl
;	COMDAT ??_G?$_CTypedPtrList@VCObList@@PAVCDaiCodeGroup@@@@UAEPAXI@Z
_TEXT	SEGMENT
___flags$ = 8						; size = 4
??_G?$_CTypedPtrList@VCObList@@PAVCDaiCodeGroup@@@@UAEPAXI@Z PROC ; _CTypedPtrList<CObList,CDaiCodeGroup *>::`scalar deleting destructor', COMDAT
; _this$ = ecx
  00000	55		 push	 ebp
  00001	8b ec		 mov	 ebp, esp
  00003	56		 push	 esi
  00004	8b f1		 mov	 esi, ecx
  00006	e8 00 00 00 00	 call	 ??1CObList@@UAE@XZ	; CObList::~CObList
  0000b	8b 45 08	 mov	 eax, DWORD PTR ___flags$[ebp]
  0000e	a8 01		 test	 al, 1
  00010	74 1f		 je	 SHORT $LN12@scalar
  00012	a8 04		 test	 al, 4
  00014	75 10		 jne	 SHORT $LN3@scalar

; 112  : 	{ ::operator delete(p); }

  00016	56		 push	 esi
  00017	e8 00 00 00 00	 call	 ??3@YAXPAX@Z		; operator delete
  0001c	83 c4 04	 add	 esp, 4
  0001f	8b c6		 mov	 eax, esi
  00021	5e		 pop	 esi
  00022	5d		 pop	 ebp
  00023	c2 04 00	 ret	 4
$LN3@scalar:
  00026	6a 1c		 push	 28			; 0000001cH
  00028	56		 push	 esi
  00029	e8 00 00 00 00	 call	 ?__global_delete@@YAXPAXI@Z ; __global_delete
  0002e	83 c4 08	 add	 esp, 8
$LN12@scalar:
  00031	8b c6		 mov	 eax, esi
  00033	5e		 pop	 esi
  00034	5d		 pop	 ebp
  00035	c2 04 00	 ret	 4
??_G?$_CTypedPtrList@VCObList@@PAVCDaiCodeGroup@@@@UAEPAXI@Z ENDP ; _CTypedPtrList<CObList,CDaiCodeGroup *>::`scalar deleting destructor'
_TEXT	ENDS
; Function compile flags: /Ogtp
; File D:\git\src\IBK\IBK_DRFN\ProjSrc\SrcChartEx\ChartOCX\AddInManager\ChartCommonAddIn\DaiPacketGroup.cpp
; File C:\Program Files (x86)\Microsoft Visual Studio\2019\Community\VC\Tools\MSVC\14.29.30133\atlmfc\include\afxcoll.inl
; File D:\git\src\IBK\IBK_DRFN\ProjSrc\SrcChartEx\ChartOCX\AddInManager\ChartCommonAddIn\DaiPacketGroup.cpp
; File C:\Program Files (x86)\Microsoft Visual Studio\2019\Community\VC\Tools\MSVC\14.29.30133\atlmfc\include\afxtempl.h
; File D:\git\src\IBK\IBK_DRFN\ProjSrc\SrcChartEx\ChartOCX\AddInManager\ChartCommonAddIn\DaiPacketGroup.cpp
; File C:\Program Files (x86)\Microsoft Visual Studio\2019\Community\VC\Tools\MSVC\14.29.30133\atlmfc\include\afxcoll.inl
; File D:\git\src\IBK\IBK_DRFN\ProjSrc\SrcChartEx\ChartOCX\AddInManager\ChartCommonAddIn\DaiPacketGroup.cpp
;	COMDAT ??1CDaiPacketGroup@@UAE@XZ
_TEXT	SEGMENT
__$EHRec$ = -12						; size = 12
??1CDaiPacketGroup@@UAE@XZ PROC				; CDaiPacketGroup::~CDaiPacketGroup, COMDAT
; _this$ = ecx

; 27   : {

  00000	55		 push	 ebp
  00001	8b ec		 mov	 ebp, esp
  00003	6a ff		 push	 -1
  00005	68 00 00 00 00	 push	 __ehhandler$??1CDaiPacketGroup@@UAE@XZ
  0000a	64 a1 00 00 00
	00		 mov	 eax, DWORD PTR fs:0
  00010	50		 push	 eax
  00011	56		 push	 esi
  00012	57		 push	 edi
  00013	a1 00 00 00 00	 mov	 eax, DWORD PTR ___security_cookie
  00018	33 c5		 xor	 eax, ebp
  0001a	50		 push	 eax
  0001b	8d 45 f4	 lea	 eax, DWORD PTR __$EHRec$[ebp]
  0001e	64 a3 00 00 00
	00		 mov	 DWORD PTR fs:0, eax
  00024	8b f1		 mov	 esi, ecx
; File C:\Program Files (x86)\Microsoft Visual Studio\2019\Community\VC\Tools\MSVC\14.29.30133\atlmfc\include\afxcoll.inl

; 410  : 	{ return m_nCount == 0; }

  00026	83 7e 14 00	 cmp	 DWORD PTR [esi+20], 0
; File D:\git\src\IBK\IBK_DRFN\ProjSrc\SrcChartEx\ChartOCX\AddInManager\ChartCommonAddIn\DaiPacketGroup.cpp

; 27   : {

  0002a	c7 06 00 00 00
	00		 mov	 DWORD PTR [esi], OFFSET ??_7CDaiPacketGroup@@6B@

; 73   : 	while( !IsEmpty()) delete RemoveHead();

  00030	74 1b		 je	 SHORT $LN25@CDaiPacket
$LL4@CDaiPacket:
; File C:\Program Files (x86)\Microsoft Visual Studio\2019\Community\VC\Tools\MSVC\14.29.30133\atlmfc\include\afxtempl.h

; 1890 : 		{ return (TYPE)BASE_CLASS::RemoveHead(); }

  00032	8d 4e 08	 lea	 ecx, DWORD PTR [esi+8]
  00035	e8 00 00 00 00	 call	 ?RemoveHead@CObList@@QAEPAVCObject@@XZ ; CObList::RemoveHead
; File D:\git\src\IBK\IBK_DRFN\ProjSrc\SrcChartEx\ChartOCX\AddInManager\ChartCommonAddIn\DaiPacketGroup.cpp

; 73   : 	while( !IsEmpty()) delete RemoveHead();

  0003a	85 c0		 test	 eax, eax
  0003c	74 09		 je	 SHORT $LN7@CDaiPacket
  0003e	8b 10		 mov	 edx, DWORD PTR [eax]
  00040	8b c8		 mov	 ecx, eax
  00042	6a 01		 push	 1
  00044	ff 52 04	 call	 DWORD PTR [edx+4]
$LN7@CDaiPacket:
; File C:\Program Files (x86)\Microsoft Visual Studio\2019\Community\VC\Tools\MSVC\14.29.30133\atlmfc\include\afxcoll.inl

; 410  : 	{ return m_nCount == 0; }

  00047	83 7e 14 00	 cmp	 DWORD PTR [esi+20], 0
; File D:\git\src\IBK\IBK_DRFN\ProjSrc\SrcChartEx\ChartOCX\AddInManager\ChartCommonAddIn\DaiPacketGroup.cpp

; 73   : 	while( !IsEmpty()) delete RemoveHead();

  0004b	75 e5		 jne	 SHORT $LL4@CDaiPacket
$LN25@CDaiPacket:
  0004d	8d 4e 08	 lea	 ecx, DWORD PTR [esi+8]
  00050	e8 00 00 00 00	 call	 ??1CObList@@UAE@XZ	; CObList::~CObList

; 28   : 	// (2004.11.29, 배승원) 등록된 모든 DRDS Advised Info를 제거한다.
; 29   : 	RemoveAllDrdsAdvisedInfo();
; 30   : }

  00055	8d 4e 04	 lea	 ecx, DWORD PTR [esi+4]
  00058	ff 15 00 00 00
	00		 call	 DWORD PTR __imp_??1?$CStringT@DV?$StrTraitMFC_DLL@DV?$ChTraitsCRT@D@ATL@@@@@ATL@@QAE@XZ
  0005e	8b 4d f4	 mov	 ecx, DWORD PTR __$EHRec$[ebp]
  00061	64 89 0d 00 00
	00 00		 mov	 DWORD PTR fs:0, ecx
  00068	59		 pop	 ecx
  00069	5f		 pop	 edi
  0006a	5e		 pop	 esi
  0006b	8b e5		 mov	 esp, ebp
  0006d	5d		 pop	 ebp
  0006e	c3		 ret	 0
  0006f	cc		 int	 3
  00070	cc		 int	 3
  00071	cc		 int	 3
  00072	cc		 int	 3
  00073	cc		 int	 3
_TEXT	ENDS
;	COMDAT text$x
text$x	SEGMENT
__ehhandler$??1CDaiPacketGroup@@UAE@XZ:
  00000	90		 npad	 1
  00001	90		 npad	 1
  00002	8b 54 24 08	 mov	 edx, DWORD PTR [esp+8]
  00006	8d 42 0c	 lea	 eax, DWORD PTR [edx+12]
  00009	8b 4a f4	 mov	 ecx, DWORD PTR [edx-12]
  0000c	33 c8		 xor	 ecx, eax
  0000e	e8 00 00 00 00	 call	 @__security_check_cookie@4
  00013	b8 00 00 00 00	 mov	 eax, OFFSET __ehfuncinfo$??1CDaiPacketGroup@@UAE@XZ
  00018	e9 00 00 00 00	 jmp	 ___CxxFrameHandler3
text$x	ENDS
??1CDaiPacketGroup@@UAE@XZ ENDP				; CDaiPacketGroup::~CDaiPacketGroup
; Function compile flags: /Ogtp
; File D:\git\src\IBK\IBK_DRFN\ProjSrc\SrcChartEx\ChartOCX\AddInManager\ChartCommonAddIn\DaiPacketGroup.cpp
; File C:\Program Files (x86)\Microsoft Visual Studio\2019\Community\VC\Tools\MSVC\14.29.30133\atlmfc\include\afxtempl.h
; File D:\git\src\IBK\IBK_DRFN\ProjSrc\SrcChartEx\ChartOCX\AddInManager\ChartCommonAddIn\DaiPacketGroup.cpp
; File C:\Program Files (x86)\Microsoft Visual Studio\2019\Community\VC\Tools\MSVC\14.29.30133\atlmfc\include\afxtempl.h
; File D:\git\src\IBK\IBK_DRFN\ProjSrc\SrcChartEx\ChartOCX\AddInManager\ChartCommonAddIn\DaiPacketGroup.cpp
;	COMDAT ??0CDaiPacketGroup@@QAE@PBD@Z
_TEXT	SEGMENT
_this$ = -20						; size = 4
_this$ = -16						; size = 4
__$EHRec$ = -12						; size = 12
_p_szRealPacketName$ = 8				; size = 4
??0CDaiPacketGroup@@QAE@PBD@Z PROC			; CDaiPacketGroup::CDaiPacketGroup, COMDAT
; _this$ = ecx

; 21   : {

  00000	55		 push	 ebp
  00001	8b ec		 mov	 ebp, esp
  00003	6a ff		 push	 -1
  00005	68 00 00 00 00	 push	 __ehhandler$??0CDaiPacketGroup@@QAE@PBD@Z
  0000a	64 a1 00 00 00
	00		 mov	 eax, DWORD PTR fs:0
  00010	50		 push	 eax
  00011	83 ec 08	 sub	 esp, 8
  00014	53		 push	 ebx
  00015	56		 push	 esi
  00016	57		 push	 edi
  00017	a1 00 00 00 00	 mov	 eax, DWORD PTR ___security_cookie
  0001c	33 c5		 xor	 eax, ebp
  0001e	50		 push	 eax
  0001f	8d 45 f4	 lea	 eax, DWORD PTR __$EHRec$[ebp]
  00022	64 a3 00 00 00
	00		 mov	 DWORD PTR fs:0, eax
  00028	8b d9		 mov	 ebx, ecx
  0002a	89 5d f0	 mov	 DWORD PTR _this$[ebp], ebx
  0002d	8d 4b 04	 lea	 ecx, DWORD PTR [ebx+4]
  00030	c7 03 00 00 00
	00		 mov	 DWORD PTR [ebx], OFFSET ??_7CDaiPacketGroup@@6B@
  00036	ff 15 00 00 00
	00		 call	 DWORD PTR __imp_??0?$CStringT@DV?$StrTraitMFC_DLL@DV?$ChTraitsCRT@D@ATL@@@@@ATL@@QAE@XZ
  0003c	8d 73 08	 lea	 esi, DWORD PTR [ebx+8]
  0003f	c7 45 fc 00 00
	00 00		 mov	 DWORD PTR __$EHRec$[ebp+8], 0
; File C:\Program Files (x86)\Microsoft Visual Studio\2019\Community\VC\Tools\MSVC\14.29.30133\atlmfc\include\afxtempl.h

; 1876 : 		: BASE_CLASS(nBlockSize) { }

  00046	6a 0a		 push	 10			; 0000000aH
  00048	8b ce		 mov	 ecx, esi
; File D:\git\src\IBK\IBK_DRFN\ProjSrc\SrcChartEx\ChartOCX\AddInManager\ChartCommonAddIn\DaiPacketGroup.cpp

; 21   : {

  0004a	89 75 ec	 mov	 DWORD PTR _this$[ebp], esi
; File C:\Program Files (x86)\Microsoft Visual Studio\2019\Community\VC\Tools\MSVC\14.29.30133\atlmfc\include\afxtempl.h

; 1876 : 		: BASE_CLASS(nBlockSize) { }

  0004d	e8 00 00 00 00	 call	 ??0CObList@@QAE@H@Z	; CObList::CObList

; 1953 : 		: _CTypedPtrList<BASE_CLASS, TYPE>(nBlockSize) { }

  00052	c7 06 00 00 00
	00		 mov	 DWORD PTR [esi], OFFSET ??_7?$CTypedPtrList@VCObList@@PAVCDaiCodeGroup@@@@6B@
; File D:\git\src\IBK\IBK_DRFN\ProjSrc\SrcChartEx\ChartOCX\AddInManager\ChartCommonAddIn\DaiPacketGroup.cpp

; 23   : 	m_strRealPacketName = p_szRealPacketName;

  00058	ff 75 08	 push	 DWORD PTR _p_szRealPacketName$[ebp]
  0005b	8d 4b 04	 lea	 ecx, DWORD PTR [ebx+4]
  0005e	c6 45 fc 01	 mov	 BYTE PTR __$EHRec$[ebp+8], 1
  00062	ff 15 00 00 00
	00		 call	 DWORD PTR __imp_??4?$CStringT@DV?$StrTraitMFC_DLL@DV?$ChTraitsCRT@D@ATL@@@@@ATL@@QAEAAV01@PBD@Z

; 24   : }

  00068	8b c3		 mov	 eax, ebx
  0006a	8b 4d f4	 mov	 ecx, DWORD PTR __$EHRec$[ebp]
  0006d	64 89 0d 00 00
	00 00		 mov	 DWORD PTR fs:0, ecx
  00074	59		 pop	 ecx
  00075	5f		 pop	 edi
  00076	5e		 pop	 esi
  00077	5b		 pop	 ebx
  00078	8b e5		 mov	 esp, ebp
  0007a	5d		 pop	 ebp
  0007b	c2 04 00	 ret	 4
_TEXT	ENDS
;	COMDAT text$x
text$x	SEGMENT
__unwindfunclet$??0CDaiPacketGroup@@QAE@PBD@Z$0:
  00000	8b 4d f0	 mov	 ecx, DWORD PTR _this$[ebp]
  00003	83 c1 04	 add	 ecx, 4
  00006	ff 25 00 00 00
	00		 jmp	 DWORD PTR __imp_??1?$CStringT@DV?$StrTraitMFC_DLL@DV?$ChTraitsCRT@D@ATL@@@@@ATL@@QAE@XZ
__unwindfunclet$??0CDaiPacketGroup@@QAE@PBD@Z$1:
  0000c	8b 4d f0	 mov	 ecx, DWORD PTR _this$[ebp]
  0000f	83 c1 08	 add	 ecx, 8
  00012	e9 00 00 00 00	 jmp	 ??1?$CTypedPtrList@VCObList@@PAVCDaiCodeGroup@@@@UAE@XZ
  00017	cc		 int	 3
  00018	cc		 int	 3
  00019	cc		 int	 3
  0001a	cc		 int	 3
  0001b	cc		 int	 3
__ehhandler$??0CDaiPacketGroup@@QAE@PBD@Z:
  0001c	90		 npad	 1
  0001d	90		 npad	 1
  0001e	8b 54 24 08	 mov	 edx, DWORD PTR [esp+8]
  00022	8d 42 0c	 lea	 eax, DWORD PTR [edx+12]
  00025	8b 4a e8	 mov	 ecx, DWORD PTR [edx-24]
  00028	33 c8		 xor	 ecx, eax
  0002a	e8 00 00 00 00	 call	 @__security_check_cookie@4
  0002f	b8 00 00 00 00	 mov	 eax, OFFSET __ehfuncinfo$??0CDaiPacketGroup@@QAE@PBD@Z
  00034	e9 00 00 00 00	 jmp	 ___CxxFrameHandler3
text$x	ENDS
??0CDaiPacketGroup@@QAE@PBD@Z ENDP			; CDaiPacketGroup::CDaiPacketGroup
; Function compile flags: /Ogtp
; File C:\Program Files (x86)\Microsoft Visual Studio\2019\Community\VC\Tools\MSVC\14.29.30133\atlmfc\include\afx.inl
;	COMDAT ?Dump@CObject@@UBEXAAVCDumpContext@@@Z
_TEXT	SEGMENT
___formal$ = 8						; size = 4
?Dump@CObject@@UBEXAAVCDumpContext@@@Z PROC		; CObject::Dump, COMDAT
; _this$ = ecx

; 122  : 	{ /* no dumping in release builds */ }

  00000	c2 04 00	 ret	 4
?Dump@CObject@@UBEXAAVCDumpContext@@@Z ENDP		; CObject::Dump
_TEXT	ENDS
; Function compile flags: /Ogtp
; File C:\Program Files (x86)\Microsoft Visual Studio\2019\Community\VC\Tools\MSVC\14.29.30133\atlmfc\include\afx.inl
;	COMDAT ?AssertValid@CObject@@UBEXXZ
_TEXT	SEGMENT
?AssertValid@CObject@@UBEXXZ PROC			; CObject::AssertValid, COMDAT
; _this$ = ecx

; 120  : 	{ /* no asserts in release builds */ }

  00000	c2 00 00	 ret	 0
?AssertValid@CObject@@UBEXXZ ENDP			; CObject::AssertValid
_TEXT	ENDS
; Function compile flags: /Ogtp
; File C:\Program Files (x86)\Microsoft Visual Studio\2019\Community\VC\Tools\MSVC\14.29.30133\atlmfc\include\afx.inl
;	COMDAT ?Serialize@CObject@@UAEXAAVCArchive@@@Z
_TEXT	SEGMENT
___formal$ = 8						; size = 4
?Serialize@CObject@@UAEXAAVCArchive@@@Z PROC		; CObject::Serialize, COMDAT
; _this$ = ecx

; 106  : 	{ /* CObject does not serialize anything by default */ }

  00000	c2 04 00	 ret	 4
?Serialize@CObject@@UAEXAAVCArchive@@@Z ENDP		; CObject::Serialize
_TEXT	ENDS
; Function compile flags: /Ogtp
; File C:\Program Files (x86)\Microsoft Visual Studio\2019\Community\VC\Tools\MSVC\14.29.30133\atlmfc\include\afx.inl
;	COMDAT ??3CObject@@SGXPAX@Z
_TEXT	SEGMENT
_p$ = 8							; size = 4
??3CObject@@SGXPAX@Z PROC				; CObject::operator delete, COMDAT

; 112  : 	{ ::operator delete(p); }

  00000	55		 push	 ebp
  00001	8b ec		 mov	 ebp, esp
  00003	ff 75 08	 push	 DWORD PTR _p$[ebp]
  00006	e8 00 00 00 00	 call	 ??3@YAXPAX@Z		; operator delete
  0000b	83 c4 04	 add	 esp, 4
  0000e	5d		 pop	 ebp
  0000f	c2 04 00	 ret	 4
??3CObject@@SGXPAX@Z ENDP				; CObject::operator delete
_TEXT	ENDS
; Function compile flags: /Ogtp
; File C:\Program Files (x86)\Microsoft Visual Studio\2019\Community\VC\Tools\MSVC\14.29.30133\atlmfc\include\afx.inl
;	COMDAT ??1CObject@@UAE@XZ
_TEXT	SEGMENT
??1CObject@@UAE@XZ PROC					; CObject::~CObject, COMDAT
; _this$ = ecx

; 104  : 	{ }

  00000	c2 00 00	 ret	 0
??1CObject@@UAE@XZ ENDP					; CObject::~CObject
_TEXT	ENDS
; Function compile flags: /Ogtp
; File D:\git\src\IBK\IBK_DRFN\ProjSrc\SrcChartEx\ChartOCX\AddInManager\ChartCommonAddIn\DaiPacketGroup.cpp
;	COMDAT ?__empty_global_delete@@YAXPAXI@Z
_TEXT	SEGMENT
___formal$ = 8						; size = 4
___formal$ = 12						; size = 4
?__empty_global_delete@@YAXPAXI@Z PROC			; __empty_global_delete, COMDAT

  00000	c2 00 00	 ret	 0
?__empty_global_delete@@YAXPAXI@Z ENDP			; __empty_global_delete
_TEXT	ENDS
; Function compile flags: /Ogtp
; File D:\git\src\IBK\IBK_DRFN\ProjSrc\SrcChartEx\ChartOCX\AddInManager\ChartCommonAddIn\DaiPacketGroup.cpp
;	COMDAT ?__empty_global_delete@@YAXPAX@Z
_TEXT	SEGMENT
___formal$ = 8						; size = 4
?__empty_global_delete@@YAXPAX@Z PROC			; __empty_global_delete, COMDAT

  00000	c2 00 00	 ret	 0
?__empty_global_delete@@YAXPAX@Z ENDP			; __empty_global_delete
_TEXT	ENDS
END
