; Listing generated by Microsoft (R) Optimizing Compiler Version 19.29.30145.0 

	TITLE	D:\git\src\IBK\IBK_DRFN\#DRfn-CS\_Obj\ChartCommonAddIn\DlgSaveScreen.obj
	.686P
	.XMM
	include listing.inc
	.model	flat

INCLUDELIB MSVCRT
INCLUDELIB OLDNAMES

PUBLIC	?__empty_global_delete@@YAXPAX@Z		; __empty_global_delete
PUBLIC	?__empty_global_delete@@YAXPAXI@Z		; __empty_global_delete
PUBLIC	?Serialize@CObject@@UAEXAAVCArchive@@@Z		; CObject::Serialize
PUBLIC	?AssertValid@CObject@@UBEXXZ			; CObject::AssertValid
PUBLIC	?Dump@CObject@@UBEXAAVCDumpContext@@@Z		; CObject::Dump
PUBLIC	?DoDataExchange@CWnd@@MAEXPAVCDataExchange@@@Z	; CWnd::DoDataExchange
PUBLIC	?BeginModalState@CWnd@@UAEXXZ			; CWnd::BeginModalState
PUBLIC	?EndModalState@CWnd@@UAEXXZ			; CWnd::EndModalState
PUBLIC	?Create@CDialog@@UAEHIPAVCWnd@@@Z		; CDialog::Create
PUBLIC	?GetFileType@CDlgSaveScreen@@QAEHXZ		; CDlgSaveScreen::GetFileType
PUBLIC	?SetFilePath@CDlgSaveScreen@@QAEXPBD@Z		; CDlgSaveScreen::SetFilePath
PUBLIC	??0CDlgSaveScreen@@QAE@PAVCWnd@@@Z		; CDlgSaveScreen::CDlgSaveScreen
PUBLIC	?DoDataExchange@CDlgSaveScreen@@MAEXPAVCDataExchange@@@Z ; CDlgSaveScreen::DoDataExchange
PUBLIC	?OnFiledialog@CDlgSaveScreen@@IAEXXZ		; CDlgSaveScreen::OnFiledialog
PUBLIC	?OnInitDialog@CDlgSaveScreen@@MAEHXZ		; CDlgSaveScreen::OnInitDialog
PUBLIC	?OnPaint@CDlgSaveScreen@@IAEXXZ			; CDlgSaveScreen::OnPaint
PUBLIC	?OnQueryDragIcon@CDlgSaveScreen@@IAEPAUHICON__@@XZ ; CDlgSaveScreen::OnQueryDragIcon
PUBLIC	?OnSysCommand@CDlgSaveScreen@@IAEXIJ@Z		; CDlgSaveScreen::OnSysCommand
PUBLIC	?OnSelchangeFiletype@CDlgSaveScreen@@IAEXXZ	; CDlgSaveScreen::OnSelchangeFiletype
PUBLIC	?GetThisMessageMap@CDlgSaveScreen@@KGPBUAFX_MSGMAP@@XZ ; CDlgSaveScreen::GetThisMessageMap
PUBLIC	?GetMessageMap@CDlgSaveScreen@@MBEPBUAFX_MSGMAP@@XZ ; CDlgSaveScreen::GetMessageMap
PUBLIC	??_GCDlgSaveScreen@@UAEPAXI@Z			; CDlgSaveScreen::`scalar deleting destructor'
PUBLIC	?BrowseCallbackProc@@YGHPAUHWND__@@IJJ@Z	; BrowseCallbackProc
PUBLIC	?GetFolder@@YAHPAV?$CStringT@DV?$StrTraitMFC_DLL@DV?$ChTraitsCRT@D@ATL@@@@@ATL@@PBDQAUHWND__@@11@Z ; GetFolder
PUBLIC	??_C@_00CNPNBAHC@@				; `string'
PUBLIC	??_C@_01KICIPPFI@?2@				; `string'
PUBLIC	??_R0?AVCObject@@@8				; CObject `RTTI Type Descriptor'
PUBLIC	??_R3CObject@@8					; CObject::`RTTI Class Hierarchy Descriptor'
PUBLIC	??_R2CObject@@8					; CObject::`RTTI Base Class Array'
PUBLIC	??_R1A@?0A@EA@CObject@@8			; CObject::`RTTI Base Class Descriptor at (0,-1,0,64)'
PUBLIC	??_R1A@?0A@EA@CWnd@@8				; CWnd::`RTTI Base Class Descriptor at (0,-1,0,64)'
PUBLIC	??_R0?AVCWnd@@@8				; CWnd `RTTI Type Descriptor'
PUBLIC	??_R3CWnd@@8					; CWnd::`RTTI Class Hierarchy Descriptor'
PUBLIC	??_R2CWnd@@8					; CWnd::`RTTI Base Class Array'
PUBLIC	??_R1A@?0A@EA@CCmdTarget@@8			; CCmdTarget::`RTTI Base Class Descriptor at (0,-1,0,64)'
PUBLIC	??_R0?AVCCmdTarget@@@8				; CCmdTarget `RTTI Type Descriptor'
PUBLIC	??_R3CCmdTarget@@8				; CCmdTarget::`RTTI Class Hierarchy Descriptor'
PUBLIC	??_R2CCmdTarget@@8				; CCmdTarget::`RTTI Base Class Array'
PUBLIC	??_R1A@?0A@EA@CDialog@@8			; CDialog::`RTTI Base Class Descriptor at (0,-1,0,64)'
PUBLIC	??_R0?AVCDialog@@@8				; CDialog `RTTI Type Descriptor'
PUBLIC	??_R3CDialog@@8					; CDialog::`RTTI Class Hierarchy Descriptor'
PUBLIC	??_R2CDialog@@8					; CDialog::`RTTI Base Class Array'
PUBLIC	??_7CDlgSaveScreen@@6B@				; CDlgSaveScreen::`vftable'
PUBLIC	??_C@_04FGEHGIFJ@temp@				; `string'
PUBLIC	?strTmpPath@@3V?$CStringT@DV?$StrTraitMFC_DLL@DV?$ChTraitsCRT@D@ATL@@@@@ATL@@A ; strTmpPath
PUBLIC	??_C@_02DKCKIIND@?$CFs@				; `string'
PUBLIC	??_C@_01LFCBOECM@?4@				; `string'
PUBLIC	??_R4CDlgSaveScreen@@6B@			; CDlgSaveScreen::`RTTI Complete Object Locator'
PUBLIC	??_R0?AVCDlgSaveScreen@@@8			; CDlgSaveScreen `RTTI Type Descriptor'
PUBLIC	??_R3CDlgSaveScreen@@8				; CDlgSaveScreen::`RTTI Class Hierarchy Descriptor'
PUBLIC	??_R2CDlgSaveScreen@@8				; CDlgSaveScreen::`RTTI Base Class Array'
PUBLIC	??_R1A@?0A@EA@CDlgSaveScreen@@8			; CDlgSaveScreen::`RTTI Base Class Descriptor at (0,-1,0,64)'
EXTRN	??3@YAXPAX@Z:PROC				; operator delete
EXTRN	?__global_delete@@YAXPAXI@Z:PROC		; __global_delete
EXTRN	_atexit:PROC
EXTRN	__imp__SendMessageA@16:PROC
EXTRN	__imp__IsIconic@4:PROC
EXTRN	__imp__EnableWindow@8:PROC
EXTRN	__imp__GetSystemMetrics@4:PROC
EXTRN	__imp__DrawIcon@16:PROC
EXTRN	__imp__GetClientRect@8:PROC
EXTRN	__imp__MultiByteToWideChar@24:PROC
EXTRN	__imp_?Empty@?$CSimpleStringT@D$00@ATL@@QAEXXZ:PROC
EXTRN	__imp_?GetBuffer@?$CSimpleStringT@D$00@ATL@@QAEPADH@Z:PROC
EXTRN	__imp_?Concatenate@?$CSimpleStringT@D$00@ATL@@KAXAAV12@PBDH1H@Z:PROC
EXTRN	__imp_??0?$CStringT@DV?$StrTraitMFC_DLL@DV?$ChTraitsCRT@D@ATL@@@@@ATL@@QAE@XZ:PROC
EXTRN	__imp_??0?$CStringT@DV?$StrTraitMFC_DLL@DV?$ChTraitsCRT@D@ATL@@@@@ATL@@QAE@PAUIAtlStringMgr@1@@Z:PROC
EXTRN	__imp_??0?$CStringT@DV?$StrTraitMFC_DLL@DV?$ChTraitsCRT@D@ATL@@@@@ATL@@QAE@ABV01@@Z:PROC
EXTRN	__imp_??0?$CStringT@DV?$StrTraitMFC_DLL@DV?$ChTraitsCRT@D@ATL@@@@@ATL@@QAE@PBD@Z:PROC
EXTRN	__imp_??1?$CStringT@DV?$StrTraitMFC_DLL@DV?$ChTraitsCRT@D@ATL@@@@@ATL@@QAE@XZ:PROC
EXTRN	__imp_??4?$CStringT@DV?$StrTraitMFC_DLL@DV?$ChTraitsCRT@D@ATL@@@@@ATL@@QAEAAV01@ABV01@@Z:PROC
EXTRN	__imp_??4?$CStringT@DV?$StrTraitMFC_DLL@DV?$ChTraitsCRT@D@ATL@@@@@ATL@@QAEAAV01@PBD@Z:PROC
EXTRN	__imp_??Y?$CStringT@DV?$StrTraitMFC_DLL@DV?$ChTraitsCRT@D@ATL@@@@@ATL@@QAEAAV01@ABV?$CSimpleStringT@D$00@1@@Z:PROC
EXTRN	__imp_?GetManager@?$CStringT@DV?$StrTraitMFC_DLL@DV?$ChTraitsCRT@D@ATL@@@@@ATL@@QBEPAUIAtlStringMgr@2@XZ:PROC
EXTRN	__imp_?Find@?$CStringT@DV?$StrTraitMFC_DLL@DV?$ChTraitsCRT@D@ATL@@@@@ATL@@QBEHPBDH@Z:PROC
EXTRN	__imp_?Format@?$CStringT@DV?$StrTraitMFC_DLL@DV?$ChTraitsCRT@D@ATL@@@@@ATL@@QAAXPBDZZ:PROC
EXTRN	??0CPaintDC@@QAE@PAVCWnd@@@Z:PROC		; CPaintDC::CPaintDC
EXTRN	??1CPaintDC@@UAE@XZ:PROC			; CPaintDC::~CPaintDC
EXTRN	?DDX_Text@@YGXPAVCDataExchange@@HAAH@Z:PROC	; DDX_Text
EXTRN	?DDX_Text@@YGXPAVCDataExchange@@HAAV?$CStringT@DV?$StrTraitMFC_DLL@DV?$ChTraitsCRT@D@ATL@@@@@ATL@@@Z:PROC ; DDX_Text
EXTRN	?DDX_CBIndex@@YGXPAVCDataExchange@@HAAH@Z:PROC	; DDX_CBIndex
EXTRN	?DDV_MinMaxInt@@YGXPAVCDataExchange@@HHH@Z:PROC	; DDV_MinMaxInt
EXTRN	?IsInvokeAllowed@CCmdTarget@@UAEHJ@Z:PROC	; CCmdTarget::IsInvokeAllowed
EXTRN	?GetDispatchIID@CCmdTarget@@UAEHPAU_GUID@@@Z:PROC ; CCmdTarget::GetDispatchIID
EXTRN	?GetTypeInfoCount@CCmdTarget@@UAEIXZ:PROC	; CCmdTarget::GetTypeInfoCount
EXTRN	?GetTypeLibCache@CCmdTarget@@UAEPAVCTypeLibCache@@XZ:PROC ; CCmdTarget::GetTypeLibCache
EXTRN	?GetTypeLib@CCmdTarget@@UAEJKPAPAUITypeLib@@@Z:PROC ; CCmdTarget::GetTypeLib
EXTRN	?GetCommandMap@CCmdTarget@@MBEPBUAFX_OLECMDMAP@@XZ:PROC ; CCmdTarget::GetCommandMap
EXTRN	?GetDispatchMap@CCmdTarget@@MBEPBUAFX_DISPMAP@@XZ:PROC ; CCmdTarget::GetDispatchMap
EXTRN	?GetConnectionMap@CCmdTarget@@MBEPBUAFX_CONNECTIONMAP@@XZ:PROC ; CCmdTarget::GetConnectionMap
EXTRN	?GetEventSinkMap@CCmdTarget@@MBEPBUAFX_EVENTSINKMAP@@XZ:PROC ; CCmdTarget::GetEventSinkMap
EXTRN	?OnCreateAggregates@CCmdTarget@@UAEHXZ:PROC	; CCmdTarget::OnCreateAggregates
EXTRN	?GetInterfaceHook@CCmdTarget@@UAEPAUIUnknown@@PBX@Z:PROC ; CCmdTarget::GetInterfaceHook
EXTRN	?GetExtraConnectionPoints@CCmdTarget@@MAEHPAVCPtrArray@@@Z:PROC ; CCmdTarget::GetExtraConnectionPoints
EXTRN	?GetConnectionHook@CCmdTarget@@MAEPAUIConnectionPoint@@ABU_GUID@@@Z:PROC ; CCmdTarget::GetConnectionHook
EXTRN	?PreSubclassWindow@CWnd@@UAEXXZ:PROC		; CWnd::PreSubclassWindow
EXTRN	?Create@CWnd@@UAEHPBD0KABUtagRECT@@PAV1@IPAUCCreateContext@@@Z:PROC ; CWnd::Create
EXTRN	?CreateEx@CWnd@@UAEHKPBD0KHHHHPAUHWND__@@PAUHMENU__@@PAX@Z:PROC ; CWnd::CreateEx
EXTRN	?CreateEx@CWnd@@UAEHKPBD0KABUtagRECT@@PAV1@IPAX@Z:PROC ; CWnd::CreateEx
EXTRN	?DestroyWindow@CWnd@@UAEHXZ:PROC		; CWnd::DestroyWindow
EXTRN	?PreCreateWindow@CWnd@@UAEHAAUtagCREATESTRUCTA@@@Z:PROC ; CWnd::PreCreateWindow
EXTRN	?CalcWindowRect@CWnd@@UAEXPAUtagRECT@@I@Z:PROC	; CWnd::CalcWindowRect
EXTRN	?GetMenu@CWnd@@UBEPAVCMenu@@XZ:PROC		; CWnd::GetMenu
EXTRN	?SetMenu@CWnd@@UAEHPAVCMenu@@@Z:PROC		; CWnd::SetMenu
EXTRN	?OnToolHitTest@CWnd@@UBEHVCPoint@@PAUtagTOOLINFOA@@@Z:PROC ; CWnd::OnToolHitTest
EXTRN	?GetScrollBarCtrl@CWnd@@UBEPAVCScrollBar@@H@Z:PROC ; CWnd::GetScrollBarCtrl
EXTRN	?UpdateData@CWnd@@QAEHH@Z:PROC			; CWnd::UpdateData
EXTRN	?WinHelpA@CWnd@@UAEXKI@Z:PROC			; CWnd::WinHelpA
EXTRN	?HtmlHelpA@CWnd@@UAEXKI@Z:PROC			; CWnd::HtmlHelpA
EXTRN	?WinHelpInternal@CWnd@@UAEXKI@Z:PROC		; CWnd::WinHelpInternal
EXTRN	?ContinueModal@CWnd@@UAEHXZ:PROC		; CWnd::ContinueModal
EXTRN	?EndModalLoop@CWnd@@UAEXH@Z:PROC		; CWnd::EndModalLoop
EXTRN	?OnDrawIconicThumbnailOrLivePreview@CWnd@@UAEXAAVCDC@@VCRect@@VCSize@@HAAH@Z:PROC ; CWnd::OnDrawIconicThumbnailOrLivePreview
EXTRN	?GetInterfaceMap@CWnd@@MBEPBUAFX_INTERFACEMAP@@XZ:PROC ; CWnd::GetInterfaceMap
EXTRN	?EnsureStdObj@CWnd@@UAEJXZ:PROC			; CWnd::EnsureStdObj
EXTRN	?get_accParent@CWnd@@UAEJPAPAUIDispatch@@@Z:PROC ; CWnd::get_accParent
EXTRN	?get_accChildCount@CWnd@@UAEJPAJ@Z:PROC		; CWnd::get_accChildCount
EXTRN	?get_accChild@CWnd@@UAEJUtagVARIANT@@PAPAUIDispatch@@@Z:PROC ; CWnd::get_accChild
EXTRN	?get_accName@CWnd@@UAEJUtagVARIANT@@PAPA_W@Z:PROC ; CWnd::get_accName
EXTRN	?get_accValue@CWnd@@UAEJUtagVARIANT@@PAPA_W@Z:PROC ; CWnd::get_accValue
EXTRN	?get_accDescription@CWnd@@UAEJUtagVARIANT@@PAPA_W@Z:PROC ; CWnd::get_accDescription
EXTRN	?get_accRole@CWnd@@UAEJUtagVARIANT@@PAU2@@Z:PROC ; CWnd::get_accRole
EXTRN	?get_accState@CWnd@@UAEJUtagVARIANT@@PAU2@@Z:PROC ; CWnd::get_accState
EXTRN	?get_accHelp@CWnd@@UAEJUtagVARIANT@@PAPA_W@Z:PROC ; CWnd::get_accHelp
EXTRN	?get_accHelpTopic@CWnd@@UAEJPAPA_WUtagVARIANT@@PAJ@Z:PROC ; CWnd::get_accHelpTopic
EXTRN	?get_accKeyboardShortcut@CWnd@@UAEJUtagVARIANT@@PAPA_W@Z:PROC ; CWnd::get_accKeyboardShortcut
EXTRN	?get_accFocus@CWnd@@UAEJPAUtagVARIANT@@@Z:PROC	; CWnd::get_accFocus
EXTRN	?get_accSelection@CWnd@@UAEJPAUtagVARIANT@@@Z:PROC ; CWnd::get_accSelection
EXTRN	?get_accDefaultAction@CWnd@@UAEJUtagVARIANT@@PAPA_W@Z:PROC ; CWnd::get_accDefaultAction
EXTRN	?accSelect@CWnd@@UAEJJUtagVARIANT@@@Z:PROC	; CWnd::accSelect
EXTRN	?accLocation@CWnd@@UAEJPAJ000UtagVARIANT@@@Z:PROC ; CWnd::accLocation
EXTRN	?accNavigate@CWnd@@UAEJJUtagVARIANT@@PAU2@@Z:PROC ; CWnd::accNavigate
EXTRN	?accHitTest@CWnd@@UAEJJJPAUtagVARIANT@@@Z:PROC	; CWnd::accHitTest
EXTRN	?accDoDefaultAction@CWnd@@UAEJUtagVARIANT@@@Z:PROC ; CWnd::accDoDefaultAction
EXTRN	?put_accName@CWnd@@UAEJUtagVARIANT@@PA_W@Z:PROC	; CWnd::put_accName
EXTRN	?put_accValue@CWnd@@UAEJUtagVARIANT@@PA_W@Z:PROC ; CWnd::put_accValue
EXTRN	?SetProxy@CWnd@@UAEJPAUIAccessibleProxy@@@Z:PROC ; CWnd::SetProxy
EXTRN	?CreateAccessibleProxy@CWnd@@UAEJIJPAJ@Z:PROC	; CWnd::CreateAccessibleProxy
EXTRN	?OnCommand@CWnd@@MAEHIJ@Z:PROC			; CWnd::OnCommand
EXTRN	?OnNotify@CWnd@@MAEHIJPAJ@Z:PROC		; CWnd::OnNotify
EXTRN	?GetSuperWndProcAddr@CWnd@@MAEPAP6GJPAUHWND__@@IIJ@ZXZ:PROC ; CWnd::GetSuperWndProcAddr
EXTRN	?OnAmbientProperty@CWnd@@UAEHPAVCOleControlSite@@JPAUtagVARIANT@@@Z:PROC ; CWnd::OnAmbientProperty
EXTRN	?WindowProc@CWnd@@MAEJIIJ@Z:PROC		; CWnd::WindowProc
EXTRN	?OnWndMsg@CWnd@@MAEHIIJPAJ@Z:PROC		; CWnd::OnWndMsg
EXTRN	?DefWindowProcA@CWnd@@MAEJIIJ@Z:PROC		; CWnd::DefWindowProcA
EXTRN	?PostNcDestroy@CWnd@@MAEXXZ:PROC		; CWnd::PostNcDestroy
EXTRN	?OnChildNotify@CWnd@@MAEHIIJPAJ@Z:PROC		; CWnd::OnChildNotify
EXTRN	?OnTouchInputs@CWnd@@MAEHIPAUtagTOUCHINPUT@@@Z:PROC ; CWnd::OnTouchInputs
EXTRN	?OnTouchInput@CWnd@@MAEHVCPoint@@HHPAUtagTOUCHINPUT@@@Z:PROC ; CWnd::OnTouchInput
EXTRN	?GetGestureStatus@CWnd@@MAEKVCPoint@@@Z:PROC	; CWnd::GetGestureStatus
EXTRN	?OnGestureZoom@CWnd@@MAEHVCPoint@@J@Z:PROC	; CWnd::OnGestureZoom
EXTRN	?OnGesturePan@CWnd@@MAEHVCPoint@@0@Z:PROC	; CWnd::OnGesturePan
EXTRN	?OnGestureRotate@CWnd@@MAEHVCPoint@@N@Z:PROC	; CWnd::OnGestureRotate
EXTRN	?OnGestureTwoFingerTap@CWnd@@MAEHVCPoint@@@Z:PROC ; CWnd::OnGestureTwoFingerTap
EXTRN	?OnGesturePressAndTap@CWnd@@MAEHVCPoint@@J@Z:PROC ; CWnd::OnGesturePressAndTap
EXTRN	?ResizeDynamicLayout@CWnd@@MAEXXZ:PROC		; CWnd::ResizeDynamicLayout
EXTRN	?IsFrameWnd@CWnd@@UBEHXZ:PROC			; CWnd::IsFrameWnd
EXTRN	?OnFinalRelease@CWnd@@UAEXXZ:PROC		; CWnd::OnFinalRelease
EXTRN	?CreateControlContainer@CWnd@@MAEHPAPAVCOleControlContainer@@@Z:PROC ; CWnd::CreateControlContainer
EXTRN	?CreateControlSite@CWnd@@MAEHPAVCOleControlContainer@@PAPAVCOleControlSite@@IABU_GUID@@@Z:PROC ; CWnd::CreateControlSite
EXTRN	?GetRuntimeClass@CDialog@@UBEPAUCRuntimeClass@@XZ:PROC ; CDialog::GetRuntimeClass
EXTRN	?Create@CDialog@@UAEHPBDPAVCWnd@@@Z:PROC	; CDialog::Create
EXTRN	?CreateIndirect@CDialog@@UAEHPBUDLGTEMPLATE@@PAVCWnd@@PAX@Z:PROC ; CDialog::CreateIndirect
EXTRN	?CreateIndirect@CDialog@@UAEHPAXPAVCWnd@@@Z:PROC ; CDialog::CreateIndirect
EXTRN	??0CDialog@@QAE@IPAVCWnd@@@Z:PROC		; CDialog::CDialog
EXTRN	?DoModal@CDialog@@UAEHXZ:PROC			; CDialog::DoModal
EXTRN	?OnInitDialog@CDialog@@UAEHXZ:PROC		; CDialog::OnInitDialog
EXTRN	?OnSetFont@CDialog@@UAEXPAVCFont@@@Z:PROC	; CDialog::OnSetFont
EXTRN	?OnOK@CDialog@@MAEXXZ:PROC			; CDialog::OnOK
EXTRN	?OnCancel@CDialog@@MAEXXZ:PROC			; CDialog::OnCancel
EXTRN	??1CDialog@@UAE@XZ:PROC				; CDialog::~CDialog
EXTRN	?PreTranslateMessage@CDialog@@UAEHPAUtagMSG@@@Z:PROC ; CDialog::PreTranslateMessage
EXTRN	?OnCmdMsg@CDialog@@UAEHIHPAXPAUAFX_CMDHANDLERINFO@@@Z:PROC ; CDialog::OnCmdMsg
EXTRN	?CheckAutoCenter@CDialog@@UAEHXZ:PROC		; CDialog::CheckAutoCenter
EXTRN	?SetOccDialogInfo@CDialog@@MAEHPAU_AFX_OCC_DIALOG_INFO@@@Z:PROC ; CDialog::SetOccDialogInfo
EXTRN	?GetOccDialogInfo@CDialog@@MAEPAU_AFX_OCC_DIALOG_INFO@@XZ:PROC ; CDialog::GetOccDialogInfo
EXTRN	?PreInitDialog@CDialog@@MAEXXZ:PROC		; CDialog::PreInitDialog
EXTRN	?OnPaint@CDialog@@IAEXXZ:PROC			; CDialog::OnPaint
EXTRN	?GetThisMessageMap@CDialog@@KGPBUAFX_MSGMAP@@XZ:PROC ; CDialog::GetThisMessageMap
EXTRN	__imp__SHGetPathFromIDListA@8:PROC
EXTRN	__imp__SHBrowseForFolderA@4:PROC
EXTRN	__imp__SHGetDesktopFolder@4:PROC
EXTRN	??_ECDlgSaveScreen@@UAEPAXI@Z:PROC		; CDlgSaveScreen::`vector deleting destructor'
EXTRN	?GetStringData@CDataConversion@@SA?AV?$CStringT@DV?$StrTraitMFC_DLL@DV?$ChTraitsCRT@D@ATL@@@@@ATL@@AAV23@ABV23@_N@Z:PROC ; CDataConversion::GetStringData
EXTRN	@__security_check_cookie@4:PROC
EXTRN	___CxxFrameHandler3:PROC
EXTRN	??_7type_info@@6B@:QWORD			; type_info::`vftable'
EXTRN	___security_cookie:DWORD
_BSS	SEGMENT
?strTmpPath@@3V?$CStringT@DV?$StrTraitMFC_DLL@DV?$ChTraitsCRT@D@ATL@@@@@ATL@@A DD 01H DUP (?) ; strTmpPath
_BSS	ENDS
CRT$XCU	SEGMENT
?strTmpPath$initializer$@@3P6AXXZA DD FLAT:??__EstrTmpPath@@YAXXZ ; strTmpPath$initializer$
CRT$XCU	ENDS
;	COMDAT ??_R1A@?0A@EA@CDlgSaveScreen@@8
rdata$r	SEGMENT
??_R1A@?0A@EA@CDlgSaveScreen@@8 DD FLAT:??_R0?AVCDlgSaveScreen@@@8 ; CDlgSaveScreen::`RTTI Base Class Descriptor at (0,-1,0,64)'
	DD	04H
	DD	00H
	DD	0ffffffffH
	DD	00H
	DD	040H
	DD	FLAT:??_R3CDlgSaveScreen@@8
rdata$r	ENDS
;	COMDAT ??_R2CDlgSaveScreen@@8
rdata$r	SEGMENT
??_R2CDlgSaveScreen@@8 DD FLAT:??_R1A@?0A@EA@CDlgSaveScreen@@8 ; CDlgSaveScreen::`RTTI Base Class Array'
	DD	FLAT:??_R1A@?0A@EA@CDialog@@8
	DD	FLAT:??_R1A@?0A@EA@CWnd@@8
	DD	FLAT:??_R1A@?0A@EA@CCmdTarget@@8
	DD	FLAT:??_R1A@?0A@EA@CObject@@8
rdata$r	ENDS
;	COMDAT ??_R3CDlgSaveScreen@@8
rdata$r	SEGMENT
??_R3CDlgSaveScreen@@8 DD 00H				; CDlgSaveScreen::`RTTI Class Hierarchy Descriptor'
	DD	00H
	DD	05H
	DD	FLAT:??_R2CDlgSaveScreen@@8
rdata$r	ENDS
;	COMDAT ??_R0?AVCDlgSaveScreen@@@8
data$rs	SEGMENT
??_R0?AVCDlgSaveScreen@@@8 DD FLAT:??_7type_info@@6B@	; CDlgSaveScreen `RTTI Type Descriptor'
	DD	00H
	DB	'.?AVCDlgSaveScreen@@', 00H
data$rs	ENDS
;	COMDAT ??_R4CDlgSaveScreen@@6B@
rdata$r	SEGMENT
??_R4CDlgSaveScreen@@6B@ DD 00H				; CDlgSaveScreen::`RTTI Complete Object Locator'
	DD	00H
	DD	00H
	DD	FLAT:??_R0?AVCDlgSaveScreen@@@8
	DD	FLAT:??_R3CDlgSaveScreen@@8
rdata$r	ENDS
;	COMDAT ??_C@_01LFCBOECM@?4@
CONST	SEGMENT
??_C@_01LFCBOECM@?4@ DB '.', 00H			; `string'
CONST	ENDS
;	COMDAT ??_C@_02DKCKIIND@?$CFs@
CONST	SEGMENT
??_C@_02DKCKIIND@?$CFs@ DB '%s', 00H			; `string'
CONST	ENDS
;	COMDAT ?messageMap@?1??GetThisMessageMap@CDlgSaveScreen@@KGPBUAFX_MSGMAP@@XZ@4U3@B
CONST	SEGMENT
?messageMap@?1??GetThisMessageMap@CDlgSaveScreen@@KGPBUAFX_MSGMAP@@XZ@4U3@B DD FLAT:?GetThisMessageMap@CDialog@@KGPBUAFX_MSGMAP@@XZ ; `CDlgSaveScreen::GetThisMessageMap'::`2'::messageMap
	DD	FLAT:?_messageEntries@?1??GetThisMessageMap@CDlgSaveScreen@@KGPBUAFX_MSGMAP@@XZ@4QBUAFX_MSGMAP_ENTRY@@B
CONST	ENDS
;	COMDAT ?_messageEntries@?1??GetThisMessageMap@CDlgSaveScreen@@KGPBUAFX_MSGMAP@@XZ@4QBUAFX_MSGMAP_ENTRY@@B
CONST	SEGMENT
?_messageEntries@?1??GetThisMessageMap@CDlgSaveScreen@@KGPBUAFX_MSGMAP@@XZ@4QBUAFX_MSGMAP_ENTRY@@B DD 0111H ; `CDlgSaveScreen::GetThisMessageMap'::`2'::_messageEntries
	DD	00H
	DD	0dcH
	DD	0dcH
	DD	03aH
	DD	FLAT:?OnFiledialog@CDlgSaveScreen@@IAEXXZ
	DD	0fH
	DD	00H
	DD	00H
	DD	00H
	DD	013H
	DD	FLAT:?OnPaint@CDlgSaveScreen@@IAEXXZ
	DD	0111H
	DD	01H
	DD	0e0H
	DD	0e0H
	DD	03aH
	DD	FLAT:?OnSelchangeFiletype@CDlgSaveScreen@@IAEXXZ
	DD	00H
	DD	00H
	DD	00H
	DD	00H
	DD	00H
	DD	00H
CONST	ENDS
;	COMDAT ??_C@_04FGEHGIFJ@temp@
CONST	SEGMENT
??_C@_04FGEHGIFJ@temp@ DB 'temp', 00H			; `string'
CONST	ENDS
;	COMDAT ??_7CDlgSaveScreen@@6B@
CONST	SEGMENT
??_7CDlgSaveScreen@@6B@ DD FLAT:??_R4CDlgSaveScreen@@6B@ ; CDlgSaveScreen::`vftable'
	DD	FLAT:?GetRuntimeClass@CDialog@@UBEPAUCRuntimeClass@@XZ
	DD	FLAT:??_ECDlgSaveScreen@@UAEPAXI@Z
	DD	FLAT:?Serialize@CObject@@UAEXAAVCArchive@@@Z
	DD	FLAT:?AssertValid@CObject@@UBEXXZ
	DD	FLAT:?Dump@CObject@@UBEXAAVCDumpContext@@@Z
	DD	FLAT:?OnCmdMsg@CDialog@@UAEHIHPAXPAUAFX_CMDHANDLERINFO@@@Z
	DD	FLAT:?OnFinalRelease@CWnd@@UAEXXZ
	DD	FLAT:?IsInvokeAllowed@CCmdTarget@@UAEHJ@Z
	DD	FLAT:?GetDispatchIID@CCmdTarget@@UAEHPAU_GUID@@@Z
	DD	FLAT:?GetTypeInfoCount@CCmdTarget@@UAEIXZ
	DD	FLAT:?GetTypeLibCache@CCmdTarget@@UAEPAVCTypeLibCache@@XZ
	DD	FLAT:?GetTypeLib@CCmdTarget@@UAEJKPAPAUITypeLib@@@Z
	DD	FLAT:?GetMessageMap@CDlgSaveScreen@@MBEPBUAFX_MSGMAP@@XZ
	DD	FLAT:?GetCommandMap@CCmdTarget@@MBEPBUAFX_OLECMDMAP@@XZ
	DD	FLAT:?GetDispatchMap@CCmdTarget@@MBEPBUAFX_DISPMAP@@XZ
	DD	FLAT:?GetConnectionMap@CCmdTarget@@MBEPBUAFX_CONNECTIONMAP@@XZ
	DD	FLAT:?GetInterfaceMap@CWnd@@MBEPBUAFX_INTERFACEMAP@@XZ
	DD	FLAT:?GetEventSinkMap@CCmdTarget@@MBEPBUAFX_EVENTSINKMAP@@XZ
	DD	FLAT:?OnCreateAggregates@CCmdTarget@@UAEHXZ
	DD	FLAT:?GetInterfaceHook@CCmdTarget@@UAEPAUIUnknown@@PBX@Z
	DD	FLAT:?GetExtraConnectionPoints@CCmdTarget@@MAEHPAVCPtrArray@@@Z
	DD	FLAT:?GetConnectionHook@CCmdTarget@@MAEPAUIConnectionPoint@@ABU_GUID@@@Z
	DD	FLAT:?PreSubclassWindow@CWnd@@UAEXXZ
	DD	FLAT:?Create@CWnd@@UAEHPBD0KABUtagRECT@@PAV1@IPAUCCreateContext@@@Z
	DD	FLAT:?CreateEx@CWnd@@UAEHKPBD0KABUtagRECT@@PAV1@IPAX@Z
	DD	FLAT:?CreateEx@CWnd@@UAEHKPBD0KHHHHPAUHWND__@@PAUHMENU__@@PAX@Z
	DD	FLAT:?DestroyWindow@CWnd@@UAEHXZ
	DD	FLAT:?PreCreateWindow@CWnd@@UAEHAAUtagCREATESTRUCTA@@@Z
	DD	FLAT:?CalcWindowRect@CWnd@@UAEXPAUtagRECT@@I@Z
	DD	FLAT:?GetMenu@CWnd@@UBEPAVCMenu@@XZ
	DD	FLAT:?SetMenu@CWnd@@UAEHPAVCMenu@@@Z
	DD	FLAT:?OnToolHitTest@CWnd@@UBEHVCPoint@@PAUtagTOOLINFOA@@@Z
	DD	FLAT:?GetScrollBarCtrl@CWnd@@UBEPAVCScrollBar@@H@Z
	DD	FLAT:?WinHelpA@CWnd@@UAEXKI@Z
	DD	FLAT:?HtmlHelpA@CWnd@@UAEXKI@Z
	DD	FLAT:?WinHelpInternal@CWnd@@UAEXKI@Z
	DD	FLAT:?ContinueModal@CWnd@@UAEHXZ
	DD	FLAT:?EndModalLoop@CWnd@@UAEXH@Z
	DD	FLAT:?OnDrawIconicThumbnailOrLivePreview@CWnd@@UAEXAAVCDC@@VCRect@@VCSize@@HAAH@Z
	DD	FLAT:?EnsureStdObj@CWnd@@UAEJXZ
	DD	FLAT:?get_accParent@CWnd@@UAEJPAPAUIDispatch@@@Z
	DD	FLAT:?get_accChildCount@CWnd@@UAEJPAJ@Z
	DD	FLAT:?get_accChild@CWnd@@UAEJUtagVARIANT@@PAPAUIDispatch@@@Z
	DD	FLAT:?get_accName@CWnd@@UAEJUtagVARIANT@@PAPA_W@Z
	DD	FLAT:?get_accValue@CWnd@@UAEJUtagVARIANT@@PAPA_W@Z
	DD	FLAT:?get_accDescription@CWnd@@UAEJUtagVARIANT@@PAPA_W@Z
	DD	FLAT:?get_accRole@CWnd@@UAEJUtagVARIANT@@PAU2@@Z
	DD	FLAT:?get_accState@CWnd@@UAEJUtagVARIANT@@PAU2@@Z
	DD	FLAT:?get_accHelp@CWnd@@UAEJUtagVARIANT@@PAPA_W@Z
	DD	FLAT:?get_accHelpTopic@CWnd@@UAEJPAPA_WUtagVARIANT@@PAJ@Z
	DD	FLAT:?get_accKeyboardShortcut@CWnd@@UAEJUtagVARIANT@@PAPA_W@Z
	DD	FLAT:?get_accFocus@CWnd@@UAEJPAUtagVARIANT@@@Z
	DD	FLAT:?get_accSelection@CWnd@@UAEJPAUtagVARIANT@@@Z
	DD	FLAT:?get_accDefaultAction@CWnd@@UAEJUtagVARIANT@@PAPA_W@Z
	DD	FLAT:?accSelect@CWnd@@UAEJJUtagVARIANT@@@Z
	DD	FLAT:?accLocation@CWnd@@UAEJPAJ000UtagVARIANT@@@Z
	DD	FLAT:?accNavigate@CWnd@@UAEJJUtagVARIANT@@PAU2@@Z
	DD	FLAT:?accHitTest@CWnd@@UAEJJJPAUtagVARIANT@@@Z
	DD	FLAT:?accDoDefaultAction@CWnd@@UAEJUtagVARIANT@@@Z
	DD	FLAT:?put_accName@CWnd@@UAEJUtagVARIANT@@PA_W@Z
	DD	FLAT:?put_accValue@CWnd@@UAEJUtagVARIANT@@PA_W@Z
	DD	FLAT:?SetProxy@CWnd@@UAEJPAUIAccessibleProxy@@@Z
	DD	FLAT:?CreateAccessibleProxy@CWnd@@UAEJIJPAJ@Z
	DD	FLAT:?OnCommand@CWnd@@MAEHIJ@Z
	DD	FLAT:?OnNotify@CWnd@@MAEHIJPAJ@Z
	DD	FLAT:?GetSuperWndProcAddr@CWnd@@MAEPAP6GJPAUHWND__@@IIJ@ZXZ
	DD	FLAT:?DoDataExchange@CDlgSaveScreen@@MAEXPAVCDataExchange@@@Z
	DD	FLAT:?BeginModalState@CWnd@@UAEXXZ
	DD	FLAT:?EndModalState@CWnd@@UAEXXZ
	DD	FLAT:?PreTranslateMessage@CDialog@@UAEHPAUtagMSG@@@Z
	DD	FLAT:?OnAmbientProperty@CWnd@@UAEHPAVCOleControlSite@@JPAUtagVARIANT@@@Z
	DD	FLAT:?WindowProc@CWnd@@MAEJIIJ@Z
	DD	FLAT:?OnWndMsg@CWnd@@MAEHIIJPAJ@Z
	DD	FLAT:?DefWindowProcA@CWnd@@MAEJIIJ@Z
	DD	FLAT:?PostNcDestroy@CWnd@@MAEXXZ
	DD	FLAT:?OnChildNotify@CWnd@@MAEHIIJPAJ@Z
	DD	FLAT:?OnTouchInputs@CWnd@@MAEHIPAUtagTOUCHINPUT@@@Z
	DD	FLAT:?OnTouchInput@CWnd@@MAEHVCPoint@@HHPAUtagTOUCHINPUT@@@Z
	DD	FLAT:?GetGestureStatus@CWnd@@MAEKVCPoint@@@Z
	DD	FLAT:?OnGestureZoom@CWnd@@MAEHVCPoint@@J@Z
	DD	FLAT:?OnGesturePan@CWnd@@MAEHVCPoint@@0@Z
	DD	FLAT:?OnGestureRotate@CWnd@@MAEHVCPoint@@N@Z
	DD	FLAT:?OnGestureTwoFingerTap@CWnd@@MAEHVCPoint@@@Z
	DD	FLAT:?OnGesturePressAndTap@CWnd@@MAEHVCPoint@@J@Z
	DD	FLAT:?ResizeDynamicLayout@CWnd@@MAEXXZ
	DD	FLAT:?CheckAutoCenter@CDialog@@UAEHXZ
	DD	FLAT:?IsFrameWnd@CWnd@@UBEHXZ
	DD	FLAT:?CreateControlContainer@CWnd@@MAEHPAPAVCOleControlContainer@@@Z
	DD	FLAT:?CreateControlSite@CWnd@@MAEHPAVCOleControlContainer@@PAPAVCOleControlSite@@IABU_GUID@@@Z
	DD	FLAT:?SetOccDialogInfo@CDialog@@MAEHPAU_AFX_OCC_DIALOG_INFO@@@Z
	DD	FLAT:?GetOccDialogInfo@CDialog@@MAEPAU_AFX_OCC_DIALOG_INFO@@XZ
	DD	FLAT:?Create@CDialog@@UAEHIPAVCWnd@@@Z
	DD	FLAT:?Create@CDialog@@UAEHPBDPAVCWnd@@@Z
	DD	FLAT:?CreateIndirect@CDialog@@UAEHPAXPAVCWnd@@@Z
	DD	FLAT:?CreateIndirect@CDialog@@UAEHPBUDLGTEMPLATE@@PAVCWnd@@PAX@Z
	DD	FLAT:?DoModal@CDialog@@UAEHXZ
	DD	FLAT:?OnInitDialog@CDlgSaveScreen@@MAEHXZ
	DD	FLAT:?OnSetFont@CDialog@@UAEXPAVCFont@@@Z
	DD	FLAT:?OnOK@CDialog@@MAEXXZ
	DD	FLAT:?OnCancel@CDialog@@MAEXXZ
	DD	FLAT:?PreInitDialog@CDialog@@MAEXXZ
CONST	ENDS
;	COMDAT ??_R2CDialog@@8
rdata$r	SEGMENT
??_R2CDialog@@8 DD FLAT:??_R1A@?0A@EA@CDialog@@8	; CDialog::`RTTI Base Class Array'
	DD	FLAT:??_R1A@?0A@EA@CWnd@@8
	DD	FLAT:??_R1A@?0A@EA@CCmdTarget@@8
	DD	FLAT:??_R1A@?0A@EA@CObject@@8
rdata$r	ENDS
;	COMDAT ??_R3CDialog@@8
rdata$r	SEGMENT
??_R3CDialog@@8 DD 00H					; CDialog::`RTTI Class Hierarchy Descriptor'
	DD	00H
	DD	04H
	DD	FLAT:??_R2CDialog@@8
rdata$r	ENDS
;	COMDAT ??_R0?AVCDialog@@@8
data$rs	SEGMENT
??_R0?AVCDialog@@@8 DD FLAT:??_7type_info@@6B@		; CDialog `RTTI Type Descriptor'
	DD	00H
	DB	'.?AVCDialog@@', 00H
data$rs	ENDS
;	COMDAT ??_R1A@?0A@EA@CDialog@@8
rdata$r	SEGMENT
??_R1A@?0A@EA@CDialog@@8 DD FLAT:??_R0?AVCDialog@@@8	; CDialog::`RTTI Base Class Descriptor at (0,-1,0,64)'
	DD	03H
	DD	00H
	DD	0ffffffffH
	DD	00H
	DD	040H
	DD	FLAT:??_R3CDialog@@8
rdata$r	ENDS
;	COMDAT ??_R2CCmdTarget@@8
rdata$r	SEGMENT
??_R2CCmdTarget@@8 DD FLAT:??_R1A@?0A@EA@CCmdTarget@@8	; CCmdTarget::`RTTI Base Class Array'
	DD	FLAT:??_R1A@?0A@EA@CObject@@8
rdata$r	ENDS
;	COMDAT ??_R3CCmdTarget@@8
rdata$r	SEGMENT
??_R3CCmdTarget@@8 DD 00H				; CCmdTarget::`RTTI Class Hierarchy Descriptor'
	DD	00H
	DD	02H
	DD	FLAT:??_R2CCmdTarget@@8
rdata$r	ENDS
;	COMDAT ??_R0?AVCCmdTarget@@@8
data$rs	SEGMENT
??_R0?AVCCmdTarget@@@8 DD FLAT:??_7type_info@@6B@	; CCmdTarget `RTTI Type Descriptor'
	DD	00H
	DB	'.?AVCCmdTarget@@', 00H
data$rs	ENDS
;	COMDAT ??_R1A@?0A@EA@CCmdTarget@@8
rdata$r	SEGMENT
??_R1A@?0A@EA@CCmdTarget@@8 DD FLAT:??_R0?AVCCmdTarget@@@8 ; CCmdTarget::`RTTI Base Class Descriptor at (0,-1,0,64)'
	DD	01H
	DD	00H
	DD	0ffffffffH
	DD	00H
	DD	040H
	DD	FLAT:??_R3CCmdTarget@@8
rdata$r	ENDS
;	COMDAT ??_R2CWnd@@8
rdata$r	SEGMENT
??_R2CWnd@@8 DD	FLAT:??_R1A@?0A@EA@CWnd@@8		; CWnd::`RTTI Base Class Array'
	DD	FLAT:??_R1A@?0A@EA@CCmdTarget@@8
	DD	FLAT:??_R1A@?0A@EA@CObject@@8
rdata$r	ENDS
;	COMDAT ??_R3CWnd@@8
rdata$r	SEGMENT
??_R3CWnd@@8 DD	00H					; CWnd::`RTTI Class Hierarchy Descriptor'
	DD	00H
	DD	03H
	DD	FLAT:??_R2CWnd@@8
rdata$r	ENDS
;	COMDAT ??_R0?AVCWnd@@@8
data$rs	SEGMENT
??_R0?AVCWnd@@@8 DD FLAT:??_7type_info@@6B@		; CWnd `RTTI Type Descriptor'
	DD	00H
	DB	'.?AVCWnd@@', 00H
data$rs	ENDS
;	COMDAT ??_R1A@?0A@EA@CWnd@@8
rdata$r	SEGMENT
??_R1A@?0A@EA@CWnd@@8 DD FLAT:??_R0?AVCWnd@@@8		; CWnd::`RTTI Base Class Descriptor at (0,-1,0,64)'
	DD	02H
	DD	00H
	DD	0ffffffffH
	DD	00H
	DD	040H
	DD	FLAT:??_R3CWnd@@8
rdata$r	ENDS
;	COMDAT ??_R1A@?0A@EA@CObject@@8
rdata$r	SEGMENT
??_R1A@?0A@EA@CObject@@8 DD FLAT:??_R0?AVCObject@@@8	; CObject::`RTTI Base Class Descriptor at (0,-1,0,64)'
	DD	00H
	DD	00H
	DD	0ffffffffH
	DD	00H
	DD	040H
	DD	FLAT:??_R3CObject@@8
rdata$r	ENDS
;	COMDAT ??_R2CObject@@8
rdata$r	SEGMENT
??_R2CObject@@8 DD FLAT:??_R1A@?0A@EA@CObject@@8	; CObject::`RTTI Base Class Array'
rdata$r	ENDS
;	COMDAT ??_R3CObject@@8
rdata$r	SEGMENT
??_R3CObject@@8 DD 00H					; CObject::`RTTI Class Hierarchy Descriptor'
	DD	00H
	DD	01H
	DD	FLAT:??_R2CObject@@8
rdata$r	ENDS
;	COMDAT ??_R0?AVCObject@@@8
data$rs	SEGMENT
??_R0?AVCObject@@@8 DD FLAT:??_7type_info@@6B@		; CObject `RTTI Type Descriptor'
	DD	00H
	DB	'.?AVCObject@@', 00H
data$rs	ENDS
;	COMDAT ??_C@_01KICIPPFI@?2@
CONST	SEGMENT
??_C@_01KICIPPFI@?2@ DB '\', 00H			; `string'
CONST	ENDS
;	COMDAT ??_C@_00CNPNBAHC@@
CONST	SEGMENT
??_C@_00CNPNBAHC@@ DB 00H				; `string'
CONST	ENDS
;	COMDAT xdata$x
xdata$x	SEGMENT
__unwindtable$?OnFiledialog@CDlgSaveScreen@@IAEXXZ DD 0ffffffffH
	DD	FLAT:__unwindfunclet$?OnFiledialog@CDlgSaveScreen@@IAEXXZ$0
__ehfuncinfo$?OnFiledialog@CDlgSaveScreen@@IAEXXZ DD 019930522H
	DD	01H
	DD	FLAT:__unwindtable$?OnFiledialog@CDlgSaveScreen@@IAEXXZ
	DD	2 DUP(00H)
	DD	2 DUP(00H)
	DD	00H
	DD	01H
xdata$x	ENDS
;	COMDAT xdata$x
xdata$x	SEGMENT
__unwindtable$??0CDlgSaveScreen@@QAE@PAVCWnd@@@Z DD 0ffffffffH
	DD	FLAT:__unwindfunclet$??0CDlgSaveScreen@@QAE@PAVCWnd@@@Z$0
	DD	00H
	DD	FLAT:__unwindfunclet$??0CDlgSaveScreen@@QAE@PAVCWnd@@@Z$1
	DD	01H
	DD	FLAT:__unwindfunclet$??0CDlgSaveScreen@@QAE@PAVCWnd@@@Z$2
__ehfuncinfo$??0CDlgSaveScreen@@QAE@PAVCWnd@@@Z DD 019930522H
	DD	03H
	DD	FLAT:__unwindtable$??0CDlgSaveScreen@@QAE@PAVCWnd@@@Z
	DD	2 DUP(00H)
	DD	2 DUP(00H)
	DD	00H
	DD	01H
xdata$x	ENDS
;	COMDAT xdata$x
xdata$x	SEGMENT
__ehfuncinfo$?SetFilePath@CDlgSaveScreen@@QAEXPBD@Z DD 019930522H
	DD	0aH
	DD	FLAT:__unwindtable$?SetFilePath@CDlgSaveScreen@@QAEXPBD@Z
	DD	2 DUP(00H)
	DD	2 DUP(00H)
	DD	00H
	DD	01H
__unwindtable$?SetFilePath@CDlgSaveScreen@@QAEXPBD@Z DD 0ffffffffH
	DD	FLAT:__unwindfunclet$?SetFilePath@CDlgSaveScreen@@QAEXPBD@Z$0
	DD	00H
	DD	FLAT:__unwindfunclet$?SetFilePath@CDlgSaveScreen@@QAEXPBD@Z$1
	DD	01H
	DD	FLAT:__unwindfunclet$?SetFilePath@CDlgSaveScreen@@QAEXPBD@Z$2
	DD	02H
	DD	FLAT:__unwindfunclet$?SetFilePath@CDlgSaveScreen@@QAEXPBD@Z$3
	DD	03H
	DD	FLAT:__unwindfunclet$?SetFilePath@CDlgSaveScreen@@QAEXPBD@Z$4
	DD	02H
	DD	FLAT:__unwindfunclet$?SetFilePath@CDlgSaveScreen@@QAEXPBD@Z$4
	DD	05H
	DD	FLAT:__unwindfunclet$?SetFilePath@CDlgSaveScreen@@QAEXPBD@Z$8
	DD	02H
	DD	FLAT:__unwindfunclet$?SetFilePath@CDlgSaveScreen@@QAEXPBD@Z$6
	DD	07H
	DD	FLAT:__unwindfunclet$?SetFilePath@CDlgSaveScreen@@QAEXPBD@Z$7
	DD	02H
	DD	FLAT:__unwindfunclet$?SetFilePath@CDlgSaveScreen@@QAEXPBD@Z$7
xdata$x	ENDS
;	COMDAT xdata$x
xdata$x	SEGMENT
__unwindtable$??HATL@@YA?AV?$CStringT@DV?$StrTraitMFC_DLL@DV?$ChTraitsCRT@D@ATL@@@@@0@PBDABV10@@Z DD 0ffffffffH
	DD	FLAT:__unwindfunclet$??HATL@@YA?AV?$CStringT@DV?$StrTraitMFC_DLL@DV?$ChTraitsCRT@D@ATL@@@@@0@PBDABV10@@Z$0
__ehfuncinfo$??HATL@@YA?AV?$CStringT@DV?$StrTraitMFC_DLL@DV?$ChTraitsCRT@D@ATL@@@@@0@PBDABV10@@Z DD 019930522H
	DD	01H
	DD	FLAT:__unwindtable$??HATL@@YA?AV?$CStringT@DV?$StrTraitMFC_DLL@DV?$ChTraitsCRT@D@ATL@@@@@0@PBDABV10@@Z
	DD	2 DUP(00H)
	DD	2 DUP(00H)
	DD	00H
	DD	01H
xdata$x	ENDS
; Function compile flags: /Ogtp
; File D:\git\src\IBK\IBK_DRFN\ProjSrc\SrcChartEx\ChartOCX\AddInManager\ChartCommonAddIn\DlgSaveScreen.cpp
;	COMDAT ?GetFolder@@YAHPAV?$CStringT@DV?$StrTraitMFC_DLL@DV?$ChTraitsCRT@D@ATL@@@@@ATL@@PBDQAUHWND__@@11@Z
_TEXT	SEGMENT
_chEaten$1 = -1092					; size = 4
_dwAttributes$2 = -1088					; size = 4
_bi$ = -1084						; size = 32
_pIdl$3 = -1052						; size = 4
_pDesktopFolder$4 = -1048				; size = 4
_olePath$5 = -1044					; size = 520
_szPath$6 = -524					; size = 260
_pszDisplayName$ = -264					; size = 260
__$ArrayPad$ = -4					; size = 4
_strSelectedFolder$ = 8					; size = 4
_lpszTitle$ = 12					; size = 4
_hwndOwner$ = 16					; size = 4
_strRootFolder$ = 20					; size = 4
_strStartFolder$ = 24					; size = 4
?GetFolder@@YAHPAV?$CStringT@DV?$StrTraitMFC_DLL@DV?$ChTraitsCRT@D@ATL@@@@@ATL@@PBDQAUHWND__@@11@Z PROC ; GetFolder, COMDAT

; 101  : {

  00000	55		 push	 ebp
  00001	8b ec		 mov	 ebp, esp
  00003	81 ec 44 04 00
	00		 sub	 esp, 1092		; 00000444H
  00009	a1 00 00 00 00	 mov	 eax, DWORD PTR ___security_cookie
  0000e	33 c5		 xor	 eax, ebp
  00010	89 45 fc	 mov	 DWORD PTR __$ArrayPad$[ebp], eax

; 102  : 	char pszDisplayName[MAX_PATH];
; 103  : 	LPITEMIDLIST lpID;
; 104  : 	BROWSEINFOA bi;
; 105  : 	
; 106  : 	bi.hwndOwner = hwndOwner;
; 107  : 	if (strRootFolder == NULL){

  00013	8b 4d 14	 mov	 ecx, DWORD PTR _strRootFolder$[ebp]
  00016	8b 45 10	 mov	 eax, DWORD PTR _hwndOwner$[ebp]
  00019	89 85 c4 fb ff
	ff		 mov	 DWORD PTR _bi$[ebp], eax
  0001f	53		 push	 ebx
  00020	8b 5d 08	 mov	 ebx, DWORD PTR _strSelectedFolder$[ebp]
  00023	56		 push	 esi
  00024	8b 75 0c	 mov	 esi, DWORD PTR _lpszTitle$[ebp]
  00027	57		 push	 edi
  00028	8b 7d 18	 mov	 edi, DWORD PTR _strStartFolder$[ebp]
  0002b	85 c9		 test	 ecx, ecx
  0002d	75 0b		 jne	 SHORT $LN2@GetFolder

; 108  : 		bi.pidlRoot = NULL;

  0002f	89 8d c8 fb ff
	ff		 mov	 DWORD PTR _bi$[ebp+4], ecx

; 109  : 	}else{

  00035	e9 97 00 00 00	 jmp	 $LN3@GetFolder
$LN2@GetFolder:

; 110  : 	   LPITEMIDLIST  pIdl = NULL;

  0003a	8d 95 f4 fd ff
	ff		 lea	 edx, DWORD PTR _szPath$6[ebp]
  00040	c7 85 e4 fb ff
	ff 00 00 00 00	 mov	 DWORD PTR _pIdl$3[ebp], 0
  0004a	2b d1		 sub	 edx, ecx
  0004c	0f 1f 40 00	 npad	 4
$LL11@GetFolder:

; 111  : 	   IShellFolder* pDesktopFolder;
; 112  : 	   char          szPath[MAX_PATH];
; 113  : 	   OLECHAR       olePath[MAX_PATH];
; 114  : 	   ULONG         chEaten;
; 115  : 	   ULONG         dwAttributes;
; 116  : 
; 117  : 	   strcpy(szPath, (LPCTSTR)strRootFolder);

  00050	8a 01		 mov	 al, BYTE PTR [ecx]
  00052	8d 49 01	 lea	 ecx, DWORD PTR [ecx+1]
  00055	88 44 0a ff	 mov	 BYTE PTR [edx+ecx-1], al
  00059	84 c0		 test	 al, al
  0005b	75 f3		 jne	 SHORT $LL11@GetFolder

; 118  : 	   if (SUCCEEDED(SHGetDesktopFolder(&pDesktopFolder)))

  0005d	8d 85 e8 fb ff
	ff		 lea	 eax, DWORD PTR _pDesktopFolder$4[ebp]
  00063	50		 push	 eax
  00064	ff 15 00 00 00
	00		 call	 DWORD PTR __imp__SHGetDesktopFolder@4
  0006a	85 c0		 test	 eax, eax
  0006c	78 57		 js	 SHORT $LN4@GetFolder

; 119  : 	   {
; 120  : 		   MultiByteToWideChar(CP_ACP, MB_PRECOMPOSED, szPath, -1, olePath, MAX_PATH);

  0006e	68 04 01 00 00	 push	 260			; 00000104H
  00073	8d 85 ec fb ff
	ff		 lea	 eax, DWORD PTR _olePath$5[ebp]
  00079	50		 push	 eax
  0007a	6a ff		 push	 -1
  0007c	8d 85 f4 fd ff
	ff		 lea	 eax, DWORD PTR _szPath$6[ebp]
  00082	50		 push	 eax
  00083	6a 01		 push	 1
  00085	6a 00		 push	 0
  00087	ff 15 00 00 00
	00		 call	 DWORD PTR __imp__MultiByteToWideChar@24

; 121  : 		   pDesktopFolder->ParseDisplayName(NULL, NULL, olePath, &chEaten, &pIdl, &dwAttributes);

  0008d	8b 85 e8 fb ff
	ff		 mov	 eax, DWORD PTR _pDesktopFolder$4[ebp]
  00093	8d 95 c0 fb ff
	ff		 lea	 edx, DWORD PTR _dwAttributes$2[ebp]
  00099	52		 push	 edx
  0009a	8d 95 e4 fb ff
	ff		 lea	 edx, DWORD PTR _pIdl$3[ebp]
  000a0	52		 push	 edx
  000a1	8b 08		 mov	 ecx, DWORD PTR [eax]
  000a3	8d 95 bc fb ff
	ff		 lea	 edx, DWORD PTR _chEaten$1[ebp]
  000a9	52		 push	 edx
  000aa	8d 95 ec fb ff
	ff		 lea	 edx, DWORD PTR _olePath$5[ebp]
  000b0	52		 push	 edx
  000b1	6a 00		 push	 0
  000b3	6a 00		 push	 0
  000b5	50		 push	 eax
  000b6	ff 51 0c	 call	 DWORD PTR [ecx+12]

; 122  : 		   pDesktopFolder->Release();

  000b9	8b 85 e8 fb ff
	ff		 mov	 eax, DWORD PTR _pDesktopFolder$4[ebp]
  000bf	50		 push	 eax
  000c0	8b 08		 mov	 ecx, DWORD PTR [eax]
  000c2	ff 51 08	 call	 DWORD PTR [ecx+8]
$LN4@GetFolder:

; 123  : 	   }
; 124  : 	   bi.pidlRoot = pIdl;

  000c5	8b 85 e4 fb ff
	ff		 mov	 eax, DWORD PTR _pIdl$3[ebp]
  000cb	89 85 c8 fb ff
	ff		 mov	 DWORD PTR _bi$[ebp+4], eax
$LN3@GetFolder:

; 125  : 	}
; 126  : 	bi.pszDisplayName = pszDisplayName;
; 127  : 	bi.lpszTitle = lpszTitle;

  000d1	89 b5 d0 fb ff
	ff		 mov	 DWORD PTR _bi$[ebp+12], esi
  000d7	8d 85 f8 fe ff
	ff		 lea	 eax, DWORD PTR _pszDisplayName$[ebp]

; 128  : 	bi.ulFlags = BIF_RETURNONLYFSDIRS | BIF_STATUSTEXT;
; 129  : 	bi.lpfn = BrowseCallbackProc;
; 130  : 	if (strStartFolder == NULL){

  000dd	8b 35 00 00 00
	00		 mov	 esi, DWORD PTR __imp_?Format@?$CStringT@DV?$StrTraitMFC_DLL@DV?$ChTraitsCRT@D@ATL@@@@@ATL@@QAAXPBDZZ
  000e3	89 85 cc fb ff
	ff		 mov	 DWORD PTR _bi$[ebp+8], eax
  000e9	c7 85 d4 fb ff
	ff 05 00 00 00	 mov	 DWORD PTR _bi$[ebp+16], 5
  000f3	c7 85 d8 fb ff
	ff 00 00 00 00	 mov	 DWORD PTR _bi$[ebp+20], OFFSET ?BrowseCallbackProc@@YGHPAUHWND__@@IJJ@Z ; BrowseCallbackProc
  000fd	85 ff		 test	 edi, edi
  000ff	75 0c		 jne	 SHORT $LN5@GetFolder

; 131  : 		bi.lParam = FALSE;

  00101	c7 85 dc fb ff
	ff 00 00 00 00	 mov	 DWORD PTR _bi$[ebp+24], 0

; 132  : 	}else{

  0010b	eb 1a		 jmp	 SHORT $LN6@GetFolder
$LN5@GetFolder:

; 133  : 		strTmpPath.Format("%s", strStartFolder);

  0010d	57		 push	 edi
  0010e	68 00 00 00 00	 push	 OFFSET ??_C@_02DKCKIIND@?$CFs@
  00113	68 00 00 00 00	 push	 OFFSET ?strTmpPath@@3V?$CStringT@DV?$StrTraitMFC_DLL@DV?$ChTraitsCRT@D@ATL@@@@@ATL@@A ; strTmpPath
  00118	ff d6		 call	 esi
  0011a	83 c4 0c	 add	 esp, 12			; 0000000cH

; 134  : 		bi.lParam = TRUE;

  0011d	c7 85 dc fb ff
	ff 01 00 00 00	 mov	 DWORD PTR _bi$[ebp+24], 1
$LN6@GetFolder:

; 135  : 	}
; 136  : 	bi.iImage = NULL;
; 137  : 	lpID = SHBrowseForFolderA(&bi);

  00127	8d 85 c4 fb ff
	ff		 lea	 eax, DWORD PTR _bi$[ebp]
  0012d	c7 85 e0 fb ff
	ff 00 00 00 00	 mov	 DWORD PTR _bi$[ebp+28], 0
  00137	50		 push	 eax
  00138	ff 15 00 00 00
	00		 call	 DWORD PTR __imp__SHBrowseForFolderA@4

; 138  : 	if (lpID != NULL){

  0013e	85 c0		 test	 eax, eax
  00140	74 3b		 je	 SHORT $LN7@GetFolder

; 139  : 		BOOL b = SHGetPathFromIDList(lpID, pszDisplayName);

  00142	8d 8d f8 fe ff
	ff		 lea	 ecx, DWORD PTR _pszDisplayName$[ebp]
  00148	51		 push	 ecx
  00149	50		 push	 eax
  0014a	ff 15 00 00 00
	00		 call	 DWORD PTR __imp__SHGetPathFromIDListA@8

; 140  : 		if (b == TRUE){

  00150	83 f8 01	 cmp	 eax, 1
  00153	75 30		 jne	 SHORT $LN8@GetFolder

; 141  : 			strSelectedFolder->Format("%s",pszDisplayName);

  00155	8d 85 f8 fe ff
	ff		 lea	 eax, DWORD PTR _pszDisplayName$[ebp]
  0015b	50		 push	 eax
  0015c	68 00 00 00 00	 push	 OFFSET ??_C@_02DKCKIIND@?$CFs@
  00161	53		 push	 ebx
  00162	ff d6		 call	 esi
  00164	83 c4 0c	 add	 esp, 12			; 0000000cH

; 142  : 			return TRUE;

  00167	b8 01 00 00 00	 mov	 eax, 1
  0016c	5f		 pop	 edi

; 146  : 	}
; 147  : 	return FALSE;
; 148  : }

  0016d	5e		 pop	 esi
  0016e	5b		 pop	 ebx
  0016f	8b 4d fc	 mov	 ecx, DWORD PTR __$ArrayPad$[ebp]
  00172	33 cd		 xor	 ecx, ebp
  00174	e8 00 00 00 00	 call	 @__security_check_cookie@4
  00179	8b e5		 mov	 esp, ebp
  0017b	5d		 pop	 ebp
  0017c	c3		 ret	 0
$LN7@GetFolder:

; 143  : 		}
; 144  : 	}else{
; 145  : 		strSelectedFolder->Empty();

  0017d	8b cb		 mov	 ecx, ebx
  0017f	ff 15 00 00 00
	00		 call	 DWORD PTR __imp_?Empty@?$CSimpleStringT@D$00@ATL@@QAEXXZ
$LN8@GetFolder:

; 146  : 	}
; 147  : 	return FALSE;
; 148  : }

  00185	8b 4d fc	 mov	 ecx, DWORD PTR __$ArrayPad$[ebp]
  00188	33 c0		 xor	 eax, eax
  0018a	5f		 pop	 edi
  0018b	5e		 pop	 esi
  0018c	33 cd		 xor	 ecx, ebp
  0018e	5b		 pop	 ebx
  0018f	e8 00 00 00 00	 call	 @__security_check_cookie@4
  00194	8b e5		 mov	 esp, ebp
  00196	5d		 pop	 ebp
  00197	c3		 ret	 0
?GetFolder@@YAHPAV?$CStringT@DV?$StrTraitMFC_DLL@DV?$ChTraitsCRT@D@ATL@@@@@ATL@@PBDQAUHWND__@@11@Z ENDP ; GetFolder
_TEXT	ENDS
; Function compile flags: /Ogtp
; File D:\git\src\IBK\IBK_DRFN\ProjSrc\SrcChartEx\ChartOCX\AddInManager\ChartCommonAddIn\DlgSaveScreen.cpp
; File C:\Program Files (x86)\Microsoft Visual Studio\2019\Community\VC\Tools\MSVC\14.29.30133\atlmfc\include\atlsimpstr.h
; File D:\git\src\IBK\IBK_DRFN\ProjSrc\SrcChartEx\ChartOCX\AddInManager\ChartCommonAddIn\DlgSaveScreen.cpp
;	COMDAT ?BrowseCallbackProc@@YGHPAUHWND__@@IJJ@Z
_TEXT	SEGMENT
_szDir$ = -264						; size = 260
__$ArrayPad$ = -4					; size = 4
_hwnd$ = 8						; size = 4
_uMsg$ = 12						; size = 4
_lParam$ = 16						; size = 4
_lpData$ = 20						; size = 4
?BrowseCallbackProc@@YGHPAUHWND__@@IJJ@Z PROC		; BrowseCallbackProc, COMDAT

; 74   : {

  00000	55		 push	 ebp
  00001	8b ec		 mov	 ebp, esp
  00003	81 ec 08 01 00
	00		 sub	 esp, 264		; 00000108H
  00009	a1 00 00 00 00	 mov	 eax, DWORD PTR ___security_cookie
  0000e	33 c5		 xor	 eax, ebp
  00010	89 45 fc	 mov	 DWORD PTR __$ArrayPad$[ebp], eax

; 75   : 	TCHAR szDir[MAX_PATH];
; 76   : 	switch(uMsg){

  00013	8b 45 0c	 mov	 eax, DWORD PTR _uMsg$[ebp]
  00016	8b 4d 10	 mov	 ecx, DWORD PTR _lParam$[ebp]
  00019	56		 push	 esi
  0001a	8b 75 08	 mov	 esi, DWORD PTR _hwnd$[ebp]
  0001d	83 e8 01	 sub	 eax, 1
  00020	74 27		 je	 SHORT $LN4@BrowseCall
  00022	83 e8 01	 sub	 eax, 1
  00025	75 6b		 jne	 SHORT $LN18@BrowseCall

; 81   : 		}
; 82   : 		break;
; 83   : 	case BFFM_SELCHANGED: {
; 84   : 	   if (SHGetPathFromIDList((LPITEMIDLIST) lParam ,szDir)){

  00027	8d 85 f8 fe ff
	ff		 lea	 eax, DWORD PTR _szDir$[ebp]
  0002d	50		 push	 eax
  0002e	51		 push	 ecx
  0002f	ff 15 00 00 00
	00		 call	 DWORD PTR __imp__SHGetPathFromIDListA@8
  00035	85 c0		 test	 eax, eax
  00037	74 59		 je	 SHORT $LN18@BrowseCall

; 85   : 		  SendMessage(hwnd,BFFM_SETSTATUSTEXT,0,(LPARAM)szDir);

  00039	8d 85 f8 fe ff
	ff		 lea	 eax, DWORD PTR _szDir$[ebp]
  0003f	50		 push	 eax
  00040	6a 00		 push	 0
  00042	68 64 04 00 00	 push	 1124			; 00000464H

; 86   : 	   }
; 87   : 	   break;

  00047	eb 42		 jmp	 SHORT $LN21@BrowseCall
$LN4@BrowseCall:

; 77   : 	case BFFM_INITIALIZED:
; 78   : 		if (lpData){

  00049	83 7d 14 00	 cmp	 DWORD PTR _lpData$[ebp], 0
  0004d	74 43		 je	 SHORT $LN18@BrowseCall
; File C:\Program Files (x86)\Microsoft Visual Studio\2019\Community\VC\Tools\MSVC\14.29.30133\atlmfc\include\atlsimpstr.h

; 519  : 		return( GetData()->nDataLength );

  0004f	a1 00 00 00 00	 mov	 eax, DWORD PTR ?strTmpPath@@3V?$CStringT@DV?$StrTraitMFC_DLL@DV?$ChTraitsCRT@D@ATL@@@@@ATL@@A ; strTmpPath
; File D:\git\src\IBK\IBK_DRFN\ProjSrc\SrcChartEx\ChartOCX\AddInManager\ChartCommonAddIn\DlgSaveScreen.cpp

; 79   : 			strcpy(szDir, strTmpPath.GetBuffer(strTmpPath.GetLength()));

  00054	b9 00 00 00 00	 mov	 ecx, OFFSET ?strTmpPath@@3V?$CStringT@DV?$StrTraitMFC_DLL@DV?$ChTraitsCRT@D@ATL@@@@@ATL@@A ; strTmpPath
  00059	ff 70 f4	 push	 DWORD PTR [eax-12]
  0005c	ff 15 00 00 00
	00		 call	 DWORD PTR __imp_?GetBuffer@?$CSimpleStringT@D$00@ATL@@QAEPADH@Z
  00062	8d 95 f8 fe ff
	ff		 lea	 edx, DWORD PTR _szDir$[ebp]
  00068	2b d0		 sub	 edx, eax
  0006a	66 0f 1f 44 00
	00		 npad	 6
$LL10@BrowseCall:
  00070	8a 08		 mov	 cl, BYTE PTR [eax]
  00072	8d 40 01	 lea	 eax, DWORD PTR [eax+1]
  00075	88 4c 02 ff	 mov	 BYTE PTR [edx+eax-1], cl
  00079	84 c9		 test	 cl, cl
  0007b	75 f3		 jne	 SHORT $LL10@BrowseCall

; 80   : 			SendMessage(hwnd,BFFM_SETSELECTION,TRUE,(LPARAM)szDir);

  0007d	8d 85 f8 fe ff
	ff		 lea	 eax, DWORD PTR _szDir$[ebp]
  00083	50		 push	 eax
  00084	6a 01		 push	 1
  00086	68 66 04 00 00	 push	 1126			; 00000466H
$LN21@BrowseCall:

; 88   : 	}
; 89   : 	default:
; 90   : 	   break;
; 91   : 	}
; 92   :          
; 93   : 	return 0;
; 94   : }

  0008b	56		 push	 esi
  0008c	ff 15 00 00 00
	00		 call	 DWORD PTR __imp__SendMessageA@16
$LN18@BrowseCall:
  00092	8b 4d fc	 mov	 ecx, DWORD PTR __$ArrayPad$[ebp]
  00095	33 c0		 xor	 eax, eax
  00097	33 cd		 xor	 ecx, ebp
  00099	5e		 pop	 esi
  0009a	e8 00 00 00 00	 call	 @__security_check_cookie@4
  0009f	8b e5		 mov	 esp, ebp
  000a1	5d		 pop	 ebp
  000a2	c2 10 00	 ret	 16			; 00000010H
?BrowseCallbackProc@@YGHPAUHWND__@@IJJ@Z ENDP		; BrowseCallbackProc
_TEXT	ENDS
; Function compile flags: /Ogtp
;	COMDAT ??__FstrTmpPath@@YAXXZ
text$yd	SEGMENT
??__FstrTmpPath@@YAXXZ PROC				; `dynamic atexit destructor for 'strTmpPath'', COMDAT
  00000	b9 00 00 00 00	 mov	 ecx, OFFSET ?strTmpPath@@3V?$CStringT@DV?$StrTraitMFC_DLL@DV?$ChTraitsCRT@D@ATL@@@@@ATL@@A ; strTmpPath
  00005	ff 25 00 00 00
	00		 jmp	 DWORD PTR __imp_??1?$CStringT@DV?$StrTraitMFC_DLL@DV?$ChTraitsCRT@D@ATL@@@@@ATL@@QAE@XZ
??__FstrTmpPath@@YAXXZ ENDP				; `dynamic atexit destructor for 'strTmpPath''
text$yd	ENDS
; Function compile flags: /Ogtp
; File D:\git\src\IBK\IBK_DRFN\ProjSrc\SrcChartEx\ChartOCX\AddInManager\ChartCommonAddIn\DlgSaveScreen.cpp
;	COMDAT ??__EstrTmpPath@@YAXXZ
text$di	SEGMENT
??__EstrTmpPath@@YAXXZ PROC				; `dynamic initializer for 'strTmpPath'', COMDAT

; 71   : CString strTmpPath;

  00000	b9 00 00 00 00	 mov	 ecx, OFFSET ?strTmpPath@@3V?$CStringT@DV?$StrTraitMFC_DLL@DV?$ChTraitsCRT@D@ATL@@@@@ATL@@A ; strTmpPath
  00005	ff 15 00 00 00
	00		 call	 DWORD PTR __imp_??0?$CStringT@DV?$StrTraitMFC_DLL@DV?$ChTraitsCRT@D@ATL@@@@@ATL@@QAE@XZ
  0000b	68 00 00 00 00	 push	 OFFSET ??__FstrTmpPath@@YAXXZ ; `dynamic atexit destructor for 'strTmpPath''
  00010	e8 00 00 00 00	 call	 _atexit
  00015	59		 pop	 ecx
  00016	c3		 ret	 0
??__EstrTmpPath@@YAXXZ ENDP				; `dynamic initializer for 'strTmpPath''
text$di	ENDS
; Function compile flags: /Ogtp
; File C:\Program Files (x86)\Microsoft Visual Studio\2019\Community\VC\Tools\MSVC\14.29.30133\atlmfc\include\afx.inl
;	COMDAT ??_GCDlgSaveScreen@@UAEPAXI@Z
_TEXT	SEGMENT
___flags$ = 8						; size = 4
??_GCDlgSaveScreen@@UAEPAXI@Z PROC			; CDlgSaveScreen::`scalar deleting destructor', COMDAT
; _this$ = ecx
  00000	55		 push	 ebp
  00001	8b ec		 mov	 ebp, esp
  00003	56		 push	 esi
  00004	8b f1		 mov	 esi, ecx
  00006	8d 8e b4 00 00
	00		 lea	 ecx, DWORD PTR [esi+180]
  0000c	ff 15 00 00 00
	00		 call	 DWORD PTR __imp_??1?$CStringT@DV?$StrTraitMFC_DLL@DV?$ChTraitsCRT@D@ATL@@@@@ATL@@QAE@XZ
  00012	8d 8e b0 00 00
	00		 lea	 ecx, DWORD PTR [esi+176]
  00018	ff 15 00 00 00
	00		 call	 DWORD PTR __imp_??1?$CStringT@DV?$StrTraitMFC_DLL@DV?$ChTraitsCRT@D@ATL@@@@@ATL@@QAE@XZ
  0001e	8b ce		 mov	 ecx, esi
  00020	e8 00 00 00 00	 call	 ??1CDialog@@UAE@XZ	; CDialog::~CDialog
  00025	8b 45 08	 mov	 eax, DWORD PTR ___flags$[ebp]
  00028	a8 01		 test	 al, 1
  0002a	74 22		 je	 SHORT $LN12@scalar
  0002c	a8 04		 test	 al, 4
  0002e	75 10		 jne	 SHORT $LN3@scalar

; 112  : 	{ ::operator delete(p); }

  00030	56		 push	 esi
  00031	e8 00 00 00 00	 call	 ??3@YAXPAX@Z		; operator delete
  00036	83 c4 04	 add	 esp, 4
  00039	8b c6		 mov	 eax, esi
  0003b	5e		 pop	 esi
  0003c	5d		 pop	 ebp
  0003d	c2 04 00	 ret	 4
$LN3@scalar:
  00040	68 c0 00 00 00	 push	 192			; 000000c0H
  00045	56		 push	 esi
  00046	e8 00 00 00 00	 call	 ?__global_delete@@YAXPAXI@Z ; __global_delete
  0004b	83 c4 08	 add	 esp, 8
$LN12@scalar:
  0004e	8b c6		 mov	 eax, esi
  00050	5e		 pop	 esi
  00051	5d		 pop	 ebp
  00052	c2 04 00	 ret	 4
??_GCDlgSaveScreen@@UAEPAXI@Z ENDP			; CDlgSaveScreen::`scalar deleting destructor'
_TEXT	ENDS
; Function compile flags: /Ogtp
; File D:\git\src\IBK\IBK_DRFN\ProjSrc\SrcChartEx\ChartOCX\AddInManager\ChartCommonAddIn\DlgSaveScreen.cpp
;	COMDAT ?GetMessageMap@CDlgSaveScreen@@MBEPBUAFX_MSGMAP@@XZ
_TEXT	SEGMENT
?GetMessageMap@CDlgSaveScreen@@MBEPBUAFX_MSGMAP@@XZ PROC ; CDlgSaveScreen::GetMessageMap, COMDAT
; _this$ = ecx

; 48   : BEGIN_MESSAGE_MAP(CDlgSaveScreen, CDialog)

  00000	b8 00 00 00 00	 mov	 eax, OFFSET ?messageMap@?1??GetThisMessageMap@CDlgSaveScreen@@KGPBUAFX_MSGMAP@@XZ@4U3@B
  00005	c3		 ret	 0
?GetMessageMap@CDlgSaveScreen@@MBEPBUAFX_MSGMAP@@XZ ENDP ; CDlgSaveScreen::GetMessageMap
_TEXT	ENDS
; Function compile flags: /Ogtp
; File D:\git\src\IBK\IBK_DRFN\ProjSrc\SrcChartEx\ChartOCX\AddInManager\ChartCommonAddIn\DlgSaveScreen.cpp
;	COMDAT ?GetThisMessageMap@CDlgSaveScreen@@KGPBUAFX_MSGMAP@@XZ
_TEXT	SEGMENT
?GetThisMessageMap@CDlgSaveScreen@@KGPBUAFX_MSGMAP@@XZ PROC ; CDlgSaveScreen::GetThisMessageMap, COMDAT

; 49   : 	//{{AFX_MSG_MAP(CDlgSaveScreen)
; 50   : 	ON_BN_CLICKED(IDC_FILEDIALOG, OnFiledialog)
; 51   : 	ON_WM_PAINT()
; 52   : 	ON_CBN_SELCHANGE(IDC_FILETYPE, OnSelchangeFiletype)
; 53   : 	//}}AFX_MSG_MAP
; 54   : END_MESSAGE_MAP()

  00000	b8 00 00 00 00	 mov	 eax, OFFSET ?messageMap@?1??GetThisMessageMap@CDlgSaveScreen@@KGPBUAFX_MSGMAP@@XZ@4U3@B
  00005	c3		 ret	 0
?GetThisMessageMap@CDlgSaveScreen@@KGPBUAFX_MSGMAP@@XZ ENDP ; CDlgSaveScreen::GetThisMessageMap
_TEXT	ENDS
; Function compile flags: /Ogtp
; File D:\git\src\IBK\IBK_DRFN\ProjSrc\SrcChartEx\ChartOCX\AddInManager\ChartCommonAddIn\DlgSaveScreen.cpp
;	COMDAT ?OnSelchangeFiletype@CDlgSaveScreen@@IAEXXZ
_TEXT	SEGMENT
?OnSelchangeFiletype@CDlgSaveScreen@@IAEXXZ PROC	; CDlgSaveScreen::OnSelchangeFiletype, COMDAT
; _this$ = ecx

; 294  : 	UpdateData(TRUE);

  00000	6a 01		 push	 1
  00002	e8 00 00 00 00	 call	 ?UpdateData@CWnd@@QAEHH@Z ; CWnd::UpdateData

; 295  : }

  00007	c3		 ret	 0
?OnSelchangeFiletype@CDlgSaveScreen@@IAEXXZ ENDP	; CDlgSaveScreen::OnSelchangeFiletype
_TEXT	ENDS
; Function compile flags: /Ogtp
; File D:\git\src\IBK\IBK_DRFN\ProjSrc\SrcChartEx\ChartOCX\AddInManager\ChartCommonAddIn\DlgSaveScreen.cpp
;	COMDAT ?OnSysCommand@CDlgSaveScreen@@IAEXIJ@Z
_TEXT	SEGMENT
_nID$ = 8						; size = 4
_lParam$ = 12						; size = 4
?OnSysCommand@CDlgSaveScreen@@IAEXIJ@Z PROC		; CDlgSaveScreen::OnSysCommand, COMDAT
; _this$ = ecx

; 274  : /*
; 275  : 	if ((nID & 0xFFF0) == IDM_ABOUTBOX)
; 276  : 	{
; 277  : 		CAboutDlg dlgAbout;
; 278  : 		dlgAbout.DoModal();
; 279  : 	}
; 280  : 	else
; 281  : 	{
; 282  : 		CDialog::OnSysCommand(nID, lParam);
; 283  : 	}
; 284  : */
; 285  : }

  00000	c2 08 00	 ret	 8
?OnSysCommand@CDlgSaveScreen@@IAEXIJ@Z ENDP		; CDlgSaveScreen::OnSysCommand
_TEXT	ENDS
; Function compile flags: /Ogtp
; File D:\git\src\IBK\IBK_DRFN\ProjSrc\SrcChartEx\ChartOCX\AddInManager\ChartCommonAddIn\DlgSaveScreen.cpp
;	COMDAT ?OnQueryDragIcon@CDlgSaveScreen@@IAEPAUHICON__@@XZ
_TEXT	SEGMENT
?OnQueryDragIcon@CDlgSaveScreen@@IAEPAUHICON__@@XZ PROC	; CDlgSaveScreen::OnQueryDragIcon, COMDAT
; _this$ = ecx

; 268  : 	return (HCURSOR) m_hIcon;

  00000	8b 81 bc 00 00
	00		 mov	 eax, DWORD PTR [ecx+188]

; 269  : }

  00006	c3		 ret	 0
?OnQueryDragIcon@CDlgSaveScreen@@IAEPAUHICON__@@XZ ENDP	; CDlgSaveScreen::OnQueryDragIcon
_TEXT	ENDS
; Function compile flags: /Ogtp
; File D:\git\src\IBK\IBK_DRFN\ProjSrc\SrcChartEx\ChartOCX\AddInManager\ChartCommonAddIn\DlgSaveScreen.cpp
; File C:\Program Files (x86)\Microsoft Visual Studio\2019\Community\VC\Tools\MSVC\14.29.30133\atlmfc\include\afxwin2.inl
; File D:\git\src\IBK\IBK_DRFN\ProjSrc\SrcChartEx\ChartOCX\AddInManager\ChartCommonAddIn\DlgSaveScreen.cpp
; File C:\Program Files (x86)\Microsoft Visual Studio\2019\Community\VC\Tools\MSVC\14.29.30133\atlmfc\include\afxwin2.inl
; File D:\git\src\IBK\IBK_DRFN\ProjSrc\SrcChartEx\ChartOCX\AddInManager\ChartCommonAddIn\DlgSaveScreen.cpp
; File C:\Program Files (x86)\Microsoft Visual Studio\2019\Community\VC\Tools\MSVC\14.29.30133\atlmfc\include\afxwin2.inl
; File C:\Program Files (x86)\Microsoft Visual Studio\2019\Community\VC\Tools\MSVC\14.29.30133\atlmfc\include\atltypes.h
; File C:\Program Files (x86)\Microsoft Visual Studio\2019\Community\VC\Tools\MSVC\14.29.30133\atlmfc\include\afxwin2.inl
; File C:\Program Files (x86)\Microsoft Visual Studio\2019\Community\VC\Tools\MSVC\14.29.30133\atlmfc\include\afxwin1.inl
; File D:\git\src\IBK\IBK_DRFN\ProjSrc\SrcChartEx\ChartOCX\AddInManager\ChartCommonAddIn\DlgSaveScreen.cpp
; File C:\Program Files (x86)\Microsoft Visual Studio\2019\Community\VC\Tools\MSVC\14.29.30133\atlmfc\include\afxwin1.inl
; File D:\git\src\IBK\IBK_DRFN\ProjSrc\SrcChartEx\ChartOCX\AddInManager\ChartCommonAddIn\DlgSaveScreen.cpp
; File C:\Program Files (x86)\Microsoft Visual Studio\2019\Community\VC\Tools\MSVC\14.29.30133\atlmfc\include\afxwin1.inl
; File D:\git\src\IBK\IBK_DRFN\ProjSrc\SrcChartEx\ChartOCX\AddInManager\ChartCommonAddIn\DlgSaveScreen.cpp
;	COMDAT ?OnPaint@CDlgSaveScreen@@IAEXXZ
_TEXT	SEGMENT
_dc$1 = -104						; size = 84
_rect$2 = -20						; size = 16
__$ArrayPad$ = -4					; size = 4
?OnPaint@CDlgSaveScreen@@IAEXXZ PROC			; CDlgSaveScreen::OnPaint, COMDAT
; _this$ = ecx

; 240  : {

  00000	55		 push	 ebp
  00001	8b ec		 mov	 ebp, esp
  00003	83 ec 68	 sub	 esp, 104		; 00000068H
  00006	a1 00 00 00 00	 mov	 eax, DWORD PTR ___security_cookie
  0000b	33 c5		 xor	 eax, ebp
  0000d	89 45 fc	 mov	 DWORD PTR __$ArrayPad$[ebp], eax
  00010	53		 push	 ebx
  00011	8b d9		 mov	 ebx, ecx
; File C:\Program Files (x86)\Microsoft Visual Studio\2019\Community\VC\Tools\MSVC\14.29.30133\atlmfc\include\afxwin2.inl

; 69   : 	{ ASSERT(::IsWindow(m_hWnd)); return ::IsIconic(m_hWnd); }

  00013	ff 73 20	 push	 DWORD PTR [ebx+32]
  00016	ff 15 00 00 00
	00		 call	 DWORD PTR __imp__IsIconic@4
; File D:\git\src\IBK\IBK_DRFN\ProjSrc\SrcChartEx\ChartOCX\AddInManager\ChartCommonAddIn\DlgSaveScreen.cpp

; 241  : 	if (IsIconic())

  0001c	85 c0		 test	 eax, eax
  0001e	0f 84 87 00 00
	00		 je	 $LN2@OnPaint

; 242  : 	{
; 243  : 		CPaintDC dc(this); // device context for painting

  00024	56		 push	 esi
  00025	57		 push	 edi
  00026	53		 push	 ebx
  00027	8d 4d 98	 lea	 ecx, DWORD PTR _dc$1[ebp]
  0002a	e8 00 00 00 00	 call	 ??0CPaintDC@@QAE@PAVCWnd@@@Z ; CPaintDC::CPaintDC
; File C:\Program Files (x86)\Microsoft Visual Studio\2019\Community\VC\Tools\MSVC\14.29.30133\atlmfc\include\afxwin2.inl

; 32   : 	{ ASSERT(::IsWindow(m_hWnd)); return ::SendMessage(m_hWnd, message, wParam, lParam); }

  0002f	6a 00		 push	 0
  00031	ff 75 9c	 push	 DWORD PTR _dc$1[ebp+4]
  00034	6a 27		 push	 39			; 00000027H
  00036	ff 73 20	 push	 DWORD PTR [ebx+32]
  00039	ff 15 00 00 00
	00		 call	 DWORD PTR __imp__SendMessageA@16
; File D:\git\src\IBK\IBK_DRFN\ProjSrc\SrcChartEx\ChartOCX\AddInManager\ChartCommonAddIn\DlgSaveScreen.cpp

; 248  : 		int cxIcon = GetSystemMetrics(SM_CXICON);

  0003f	8b 35 00 00 00
	00		 mov	 esi, DWORD PTR __imp__GetSystemMetrics@4
  00045	6a 0b		 push	 11			; 0000000bH
  00047	ff d6		 call	 esi

; 249  : 		int cyIcon = GetSystemMetrics(SM_CYICON);

  00049	6a 0c		 push	 12			; 0000000cH
  0004b	8b f8		 mov	 edi, eax
  0004d	ff d6		 call	 esi
  0004f	8b f0		 mov	 esi, eax
  00051	0f 57 c0	 xorps	 xmm0, xmm0
; File C:\Program Files (x86)\Microsoft Visual Studio\2019\Community\VC\Tools\MSVC\14.29.30133\atlmfc\include\afxwin2.inl

; 86   : 	{ ASSERT(::IsWindow(m_hWnd)); ::GetClientRect(m_hWnd, lpRect); }

  00054	8d 45 ec	 lea	 eax, DWORD PTR _rect$2[ebp]
  00057	50		 push	 eax
  00058	ff 73 20	 push	 DWORD PTR [ebx+32]
; File C:\Program Files (x86)\Microsoft Visual Studio\2019\Community\VC\Tools\MSVC\14.29.30133\atlmfc\include\atltypes.h

; 528  : 	left = 0;

  0005b	0f 11 45 ec	 movups	 XMMWORD PTR _rect$2[ebp], xmm0
; File C:\Program Files (x86)\Microsoft Visual Studio\2019\Community\VC\Tools\MSVC\14.29.30133\atlmfc\include\afxwin2.inl

; 86   : 	{ ASSERT(::IsWindow(m_hWnd)); ::GetClientRect(m_hWnd, lpRect); }

  0005f	ff 15 00 00 00
	00		 call	 DWORD PTR __imp__GetClientRect@8
; File C:\Program Files (x86)\Microsoft Visual Studio\2019\Community\VC\Tools\MSVC\14.29.30133\atlmfc\include\afxwin1.inl

; 482  : 	{ ASSERT(m_hDC != NULL); return ::DrawIcon(m_hDC, x, y, hIcon); }

  00065	8b 45 f8	 mov	 eax, DWORD PTR _rect$2[ebp+12]
  00068	2b 45 f0	 sub	 eax, DWORD PTR _rect$2[ebp+4]
  0006b	ff b3 bc 00 00
	00		 push	 DWORD PTR [ebx+188]
  00071	2b c6		 sub	 eax, esi
; File D:\git\src\IBK\IBK_DRFN\ProjSrc\SrcChartEx\ChartOCX\AddInManager\ChartCommonAddIn\DlgSaveScreen.cpp

; 253  : 		int y = (rect.Height() - cyIcon + 1) / 2;

  00073	40		 inc	 eax
  00074	99		 cdq
  00075	2b c2		 sub	 eax, edx
  00077	d1 f8		 sar	 eax, 1
; File C:\Program Files (x86)\Microsoft Visual Studio\2019\Community\VC\Tools\MSVC\14.29.30133\atlmfc\include\afxwin1.inl

; 482  : 	{ ASSERT(m_hDC != NULL); return ::DrawIcon(m_hDC, x, y, hIcon); }

  00079	50		 push	 eax
  0007a	8b 45 f4	 mov	 eax, DWORD PTR _rect$2[ebp+8]
  0007d	2b 45 ec	 sub	 eax, DWORD PTR _rect$2[ebp]
  00080	2b c7		 sub	 eax, edi
; File D:\git\src\IBK\IBK_DRFN\ProjSrc\SrcChartEx\ChartOCX\AddInManager\ChartCommonAddIn\DlgSaveScreen.cpp

; 252  : 		int x = (rect.Width() - cxIcon + 1) / 2;

  00082	40		 inc	 eax
  00083	99		 cdq
  00084	2b c2		 sub	 eax, edx
  00086	d1 f8		 sar	 eax, 1
; File C:\Program Files (x86)\Microsoft Visual Studio\2019\Community\VC\Tools\MSVC\14.29.30133\atlmfc\include\afxwin1.inl

; 482  : 	{ ASSERT(m_hDC != NULL); return ::DrawIcon(m_hDC, x, y, hIcon); }

  00088	50		 push	 eax
  00089	ff 75 9c	 push	 DWORD PTR _dc$1[ebp+4]
  0008c	ff 15 00 00 00
	00		 call	 DWORD PTR __imp__DrawIcon@16
; File D:\git\src\IBK\IBK_DRFN\ProjSrc\SrcChartEx\ChartOCX\AddInManager\ChartCommonAddIn\DlgSaveScreen.cpp

; 257  : 	}

  00092	8d 4d 98	 lea	 ecx, DWORD PTR _dc$1[ebp]
  00095	e8 00 00 00 00	 call	 ??1CPaintDC@@UAE@XZ	; CPaintDC::~CPaintDC
  0009a	5f		 pop	 edi
  0009b	5e		 pop	 esi
  0009c	5b		 pop	 ebx

; 261  : 	}
; 262  : }

  0009d	8b 4d fc	 mov	 ecx, DWORD PTR __$ArrayPad$[ebp]
  000a0	33 cd		 xor	 ecx, ebp
  000a2	e8 00 00 00 00	 call	 @__security_check_cookie@4
  000a7	8b e5		 mov	 esp, ebp
  000a9	5d		 pop	 ebp
  000aa	c3		 ret	 0
$LN2@OnPaint:

; 258  : 	else
; 259  : 	{
; 260  : 		CDialog::OnPaint();

  000ab	8b cb		 mov	 ecx, ebx
  000ad	e8 00 00 00 00	 call	 ?OnPaint@CDialog@@IAEXXZ ; CDialog::OnPaint

; 261  : 	}
; 262  : }

  000b2	8b 4d fc	 mov	 ecx, DWORD PTR __$ArrayPad$[ebp]
  000b5	33 cd		 xor	 ecx, ebp
  000b7	5b		 pop	 ebx
  000b8	e8 00 00 00 00	 call	 @__security_check_cookie@4
  000bd	8b e5		 mov	 esp, ebp
  000bf	5d		 pop	 ebp
  000c0	c3		 ret	 0
?OnPaint@CDlgSaveScreen@@IAEXXZ ENDP			; CDlgSaveScreen::OnPaint
_TEXT	ENDS
; Function compile flags: /Ogtp
; File D:\git\src\IBK\IBK_DRFN\ProjSrc\SrcChartEx\ChartOCX\AddInManager\ChartCommonAddIn\DlgSaveScreen.cpp
;	COMDAT ?OnInitDialog@CDlgSaveScreen@@MAEHXZ
_TEXT	SEGMENT
?OnInitDialog@CDlgSaveScreen@@MAEHXZ PROC		; CDlgSaveScreen::OnInitDialog, COMDAT
; _this$ = ecx

; 207  : 	CDialog::OnInitDialog();

  00000	e8 00 00 00 00	 call	 ?OnInitDialog@CDialog@@UAEHXZ ; CDialog::OnInitDialog

; 208  : 	
; 209  : 	// Add "About..." menu item to system menu.
; 210  : /*
; 211  : 	// IDM_ABOUTBOX must be in the system command range.
; 212  : 	ASSERT((IDM_ABOUTBOX & 0xFFF0) == IDM_ABOUTBOX);
; 213  : 	ASSERT(IDM_ABOUTBOX < 0xF000);
; 214  : 
; 215  : 	CMenu* pSysMenu = GetSystemMenu(FALSE);
; 216  : 	if (pSysMenu != NULL)
; 217  : 	{
; 218  : 		AfxSetResourceHandle( ML_LANGUAGE_RES);
; 219  : 		CString strAboutMenu;
; 220  : 		strAboutMenu.LoadString(IDS_ABOUTBOX);
; 221  : 		if (!strAboutMenu.IsEmpty())
; 222  : 		{
; 223  : 			pSysMenu->AppendMenu(MF_SEPARATOR);
; 224  : 			pSysMenu->AppendMenu(MF_STRING, IDM_ABOUTBOX, strAboutMenu);
; 225  : 		}
; 226  : 	}
; 227  : 
; 228  : 	// Set the icon for this dialog.  The framework does this automatically
; 229  : 	//  when the application's main window is not a dialog
; 230  : 	SetIcon(m_hIcon, TRUE);			// Set big icon
; 231  : 	SetIcon(m_hIcon, FALSE);		// Set small icon
; 232  : 	
; 233  : 	// TODO: Add extra initialization here
; 234  : */	
; 235  : 	return TRUE;  // return TRUE unless you set the focus to a control

  00005	b8 01 00 00 00	 mov	 eax, 1

; 236  : 	              // EXCEPTION: OCX Property Pages should return FALSE
; 237  : }

  0000a	c3		 ret	 0
?OnInitDialog@CDlgSaveScreen@@MAEHXZ ENDP		; CDlgSaveScreen::OnInitDialog
_TEXT	ENDS
; Function compile flags: /Ogtp
; File D:\git\src\IBK\IBK_DRFN\ProjSrc\SrcChartEx\ChartOCX\AddInManager\ChartCommonAddIn\DlgSaveScreen.cpp
; File C:\Program Files (x86)\Microsoft Visual Studio\2019\Community\VC\Tools\MSVC\14.29.30133\atlmfc\include\atlsimpstr.h
; File D:\git\src\IBK\IBK_DRFN\ProjSrc\SrcChartEx\ChartOCX\AddInManager\ChartCommonAddIn\DlgSaveScreen.cpp
; File C:\Program Files (x86)\Microsoft Visual Studio\2019\Community\VC\Tools\MSVC\14.29.30133\atlmfc\include\atlsimpstr.h
; File D:\git\src\IBK\IBK_DRFN\ProjSrc\SrcChartEx\ChartOCX\AddInManager\ChartCommonAddIn\DlgSaveScreen.cpp
;	COMDAT ?OnFiledialog@CDlgSaveScreen@@IAEXXZ
_TEXT	SEGMENT
_bi$2 = -312						; size = 32
_strFolderPath$ = -280					; size = 4
_pszDisplayName$3 = -276				; size = 260
__$ArrayPad$ = -16					; size = 4
__$EHRec$ = -12						; size = 12
?OnFiledialog@CDlgSaveScreen@@IAEXXZ PROC		; CDlgSaveScreen::OnFiledialog, COMDAT
; _this$ = ecx

; 186  : {

  00000	55		 push	 ebp
  00001	8b ec		 mov	 ebp, esp
  00003	6a ff		 push	 -1
  00005	68 00 00 00 00	 push	 __ehhandler$?OnFiledialog@CDlgSaveScreen@@IAEXXZ
  0000a	64 a1 00 00 00
	00		 mov	 eax, DWORD PTR fs:0
  00010	50		 push	 eax
  00011	81 ec 2c 01 00
	00		 sub	 esp, 300		; 0000012cH
  00017	a1 00 00 00 00	 mov	 eax, DWORD PTR ___security_cookie
  0001c	33 c5		 xor	 eax, ebp
  0001e	89 45 f0	 mov	 DWORD PTR __$ArrayPad$[ebp], eax
  00021	56		 push	 esi
  00022	50		 push	 eax
  00023	8d 45 f4	 lea	 eax, DWORD PTR __$EHRec$[ebp]
  00026	64 a3 00 00 00
	00		 mov	 DWORD PTR fs:0, eax
  0002c	8b f1		 mov	 esi, ecx

; 187  : 	CString strFolderPath;

  0002e	8d 8d e8 fe ff
	ff		 lea	 ecx, DWORD PTR _strFolderPath$[ebp]
  00034	ff 15 00 00 00
	00		 call	 DWORD PTR __imp_??0?$CStringT@DV?$StrTraitMFC_DLL@DV?$ChTraitsCRT@D@ATL@@@@@ATL@@QAE@XZ

; 106  : 	bi.hwndOwner = hwndOwner;

  0003a	8b 46 20	 mov	 eax, DWORD PTR [esi+32]
  0003d	89 85 c8 fe ff
	ff		 mov	 DWORD PTR _bi$2[ebp], eax

; 109  : 	}else{
; 110  : 	   LPITEMIDLIST  pIdl = NULL;
; 111  : 	   IShellFolder* pDesktopFolder;
; 112  : 	   char          szPath[MAX_PATH];
; 113  : 	   OLECHAR       olePath[MAX_PATH];
; 114  : 	   ULONG         chEaten;
; 115  : 	   ULONG         dwAttributes;
; 116  : 
; 117  : 	   strcpy(szPath, (LPCTSTR)strRootFolder);
; 118  : 	   if (SUCCEEDED(SHGetDesktopFolder(&pDesktopFolder)))
; 119  : 	   {
; 120  : 		   MultiByteToWideChar(CP_ACP, MB_PRECOMPOSED, szPath, -1, olePath, MAX_PATH);
; 121  : 		   pDesktopFolder->ParseDisplayName(NULL, NULL, olePath, &chEaten, &pIdl, &dwAttributes);
; 122  : 		   pDesktopFolder->Release();
; 123  : 	   }
; 124  : 	   bi.pidlRoot = pIdl;
; 125  : 	}
; 126  : 	bi.pszDisplayName = pszDisplayName;

  00043	8d 85 ec fe ff
	ff		 lea	 eax, DWORD PTR _pszDisplayName$3[ebp]
  00049	89 85 d0 fe ff
	ff		 mov	 DWORD PTR _bi$2[ebp+8], eax

; 137  : 	lpID = SHBrowseForFolderA(&bi);

  0004f	8d 85 c8 fe ff
	ff		 lea	 eax, DWORD PTR _bi$2[ebp]
  00055	50		 push	 eax

; 187  : 	CString strFolderPath;

  00056	c7 45 fc 00 00
	00 00		 mov	 DWORD PTR __$EHRec$[ebp+8], 0

; 108  : 		bi.pidlRoot = NULL;

  0005d	c7 85 cc fe ff
	ff 00 00 00 00	 mov	 DWORD PTR _bi$2[ebp+4], 0

; 127  : 	bi.lpszTitle = lpszTitle;

  00067	c7 85 d4 fe ff
	ff 00 00 00 00	 mov	 DWORD PTR _bi$2[ebp+12], OFFSET ??_C@_00CNPNBAHC@@

; 128  : 	bi.ulFlags = BIF_RETURNONLYFSDIRS | BIF_STATUSTEXT;

  00071	c7 85 d8 fe ff
	ff 05 00 00 00	 mov	 DWORD PTR _bi$2[ebp+16], 5

; 129  : 	bi.lpfn = BrowseCallbackProc;

  0007b	c7 85 dc fe ff
	ff 00 00 00 00	 mov	 DWORD PTR _bi$2[ebp+20], OFFSET ?BrowseCallbackProc@@YGHPAUHWND__@@IJJ@Z ; BrowseCallbackProc

; 130  : 	if (strStartFolder == NULL){
; 131  : 		bi.lParam = FALSE;

  00085	c7 85 e0 fe ff
	ff 00 00 00 00	 mov	 DWORD PTR _bi$2[ebp+24], 0

; 132  : 	}else{
; 133  : 		strTmpPath.Format("%s", strStartFolder);
; 134  : 		bi.lParam = TRUE;
; 135  : 	}
; 136  : 	bi.iImage = NULL;

  0008f	c7 85 e4 fe ff
	ff 00 00 00 00	 mov	 DWORD PTR _bi$2[ebp+28], 0

; 137  : 	lpID = SHBrowseForFolderA(&bi);

  00099	ff 15 00 00 00
	00		 call	 DWORD PTR __imp__SHBrowseForFolderA@4

; 138  : 	if (lpID != NULL){

  0009f	85 c0		 test	 eax, eax
  000a1	74 59		 je	 SHORT $LN12@OnFiledial

; 139  : 		BOOL b = SHGetPathFromIDList(lpID, pszDisplayName);

  000a3	8d 8d ec fe ff
	ff		 lea	 ecx, DWORD PTR _pszDisplayName$3[ebp]
  000a9	51		 push	 ecx
  000aa	50		 push	 eax
  000ab	ff 15 00 00 00
	00		 call	 DWORD PTR __imp__SHGetPathFromIDListA@8

; 140  : 		if (b == TRUE){

  000b1	83 f8 01	 cmp	 eax, 1
  000b4	75 52		 jne	 SHORT $LN3@OnFiledial

; 141  : 			strSelectedFolder->Format("%s",pszDisplayName);

  000b6	8d 85 ec fe ff
	ff		 lea	 eax, DWORD PTR _pszDisplayName$3[ebp]
  000bc	50		 push	 eax
  000bd	8d 85 e8 fe ff
	ff		 lea	 eax, DWORD PTR _strFolderPath$[ebp]
  000c3	68 00 00 00 00	 push	 OFFSET ??_C@_02DKCKIIND@?$CFs@
  000c8	50		 push	 eax
  000c9	ff 15 00 00 00
	00		 call	 DWORD PTR __imp_?Format@?$CStringT@DV?$StrTraitMFC_DLL@DV?$ChTraitsCRT@D@ATL@@@@@ATL@@QAAXPBDZZ
; File C:\Program Files (x86)\Microsoft Visual Studio\2019\Community\VC\Tools\MSVC\14.29.30133\atlmfc\include\atlsimpstr.h

; 533  : 		return( GetLength() == 0 );

  000cf	8b 85 e8 fe ff
	ff		 mov	 eax, DWORD PTR _strFolderPath$[ebp]
; File D:\git\src\IBK\IBK_DRFN\ProjSrc\SrcChartEx\ChartOCX\AddInManager\ChartCommonAddIn\DlgSaveScreen.cpp

; 141  : 			strSelectedFolder->Format("%s",pszDisplayName);

  000d5	83 c4 0c	 add	 esp, 12			; 0000000cH
; File C:\Program Files (x86)\Microsoft Visual Studio\2019\Community\VC\Tools\MSVC\14.29.30133\atlmfc\include\atlsimpstr.h

; 533  : 		return( GetLength() == 0 );

  000d8	83 78 f4 00	 cmp	 DWORD PTR [eax-12], 0
; File D:\git\src\IBK\IBK_DRFN\ProjSrc\SrcChartEx\ChartOCX\AddInManager\ChartCommonAddIn\DlgSaveScreen.cpp

; 189  : 		if (!strFolderPath.IsEmpty()){

  000dc	74 2a		 je	 SHORT $LN3@OnFiledial

; 190  : 			m_strFilePath = strFolderPath;

  000de	8d 85 e8 fe ff
	ff		 lea	 eax, DWORD PTR _strFolderPath$[ebp]
  000e4	50		 push	 eax
  000e5	8d 8e b4 00 00
	00		 lea	 ecx, DWORD PTR [esi+180]
  000eb	ff 15 00 00 00
	00		 call	 DWORD PTR __imp_??4?$CStringT@DV?$StrTraitMFC_DLL@DV?$ChTraitsCRT@D@ATL@@@@@ATL@@QAEAAV01@ABV01@@Z

; 191  : 			UpdateData(FALSE);

  000f1	6a 00		 push	 0
  000f3	8b ce		 mov	 ecx, esi
  000f5	e8 00 00 00 00	 call	 ?UpdateData@CWnd@@QAEHH@Z ; CWnd::UpdateData
  000fa	eb 0c		 jmp	 SHORT $LN3@OnFiledial
$LN12@OnFiledial:

; 145  : 		strSelectedFolder->Empty();

  000fc	8d 8d e8 fe ff
	ff		 lea	 ecx, DWORD PTR _strFolderPath$[ebp]
  00102	ff 15 00 00 00
	00		 call	 DWORD PTR __imp_?Empty@?$CSimpleStringT@D$00@ATL@@QAEXXZ
$LN3@OnFiledial:

; 192  : 		}
; 193  : 	}
; 194  : /*
; 195  : 	CFileDialog dlg(TRUE);
; 196  : 	dlg.m_ofn.lpstrInitialDir = m_strFilePath;
; 197  : 	if(dlg.DoModal() == IDOK) {
; 198  : 		m_strFilePath = dlg.GetPathName();
; 199  : 		m_strFileName = dlg.GetFileName();
; 200  : 	}
; 201  : 	UpdateData(FALSE);
; 202  : */
; 203  : }

  00108	8d 8d e8 fe ff
	ff		 lea	 ecx, DWORD PTR _strFolderPath$[ebp]
  0010e	ff 15 00 00 00
	00		 call	 DWORD PTR __imp_??1?$CStringT@DV?$StrTraitMFC_DLL@DV?$ChTraitsCRT@D@ATL@@@@@ATL@@QAE@XZ
  00114	8b 4d f4	 mov	 ecx, DWORD PTR __$EHRec$[ebp]
  00117	64 89 0d 00 00
	00 00		 mov	 DWORD PTR fs:0, ecx
  0011e	59		 pop	 ecx
  0011f	5e		 pop	 esi
  00120	8b 4d f0	 mov	 ecx, DWORD PTR __$ArrayPad$[ebp]
  00123	33 cd		 xor	 ecx, ebp
  00125	e8 00 00 00 00	 call	 @__security_check_cookie@4
  0012a	8b e5		 mov	 esp, ebp
  0012c	5d		 pop	 ebp
  0012d	c3		 ret	 0
_TEXT	ENDS
;	COMDAT text$x
text$x	SEGMENT
__unwindfunclet$?OnFiledialog@CDlgSaveScreen@@IAEXXZ$0:
  00000	8d 8d e8 fe ff
	ff		 lea	 ecx, DWORD PTR _strFolderPath$[ebp]
  00006	ff 25 00 00 00
	00		 jmp	 DWORD PTR __imp_??1?$CStringT@DV?$StrTraitMFC_DLL@DV?$ChTraitsCRT@D@ATL@@@@@ATL@@QAE@XZ
  0000c	cc		 int	 3
  0000d	cc		 int	 3
  0000e	cc		 int	 3
  0000f	cc		 int	 3
  00010	cc		 int	 3
__ehhandler$?OnFiledialog@CDlgSaveScreen@@IAEXXZ:
  00011	90		 npad	 1
  00012	90		 npad	 1
  00013	8b 54 24 08	 mov	 edx, DWORD PTR [esp+8]
  00017	8d 42 0c	 lea	 eax, DWORD PTR [edx+12]
  0001a	8b 8a cc fe ff
	ff		 mov	 ecx, DWORD PTR [edx-308]
  00020	33 c8		 xor	 ecx, eax
  00022	e8 00 00 00 00	 call	 @__security_check_cookie@4
  00027	8b 4a fc	 mov	 ecx, DWORD PTR [edx-4]
  0002a	33 c8		 xor	 ecx, eax
  0002c	e8 00 00 00 00	 call	 @__security_check_cookie@4
  00031	b8 00 00 00 00	 mov	 eax, OFFSET __ehfuncinfo$?OnFiledialog@CDlgSaveScreen@@IAEXXZ
  00036	e9 00 00 00 00	 jmp	 ___CxxFrameHandler3
text$x	ENDS
?OnFiledialog@CDlgSaveScreen@@IAEXXZ ENDP		; CDlgSaveScreen::OnFiledialog
; Function compile flags: /Ogtp
; File D:\git\src\IBK\IBK_DRFN\ProjSrc\SrcChartEx\ChartOCX\AddInManager\ChartCommonAddIn\DlgSaveScreen.cpp
;	COMDAT ?DoDataExchange@CDlgSaveScreen@@MAEXPAVCDataExchange@@@Z
_TEXT	SEGMENT
_pDX$ = 8						; size = 4
?DoDataExchange@CDlgSaveScreen@@MAEXPAVCDataExchange@@@Z PROC ; CDlgSaveScreen::DoDataExchange, COMDAT
; _this$ = ecx

; 34   : {

  00000	55		 push	 ebp
  00001	8b ec		 mov	 ebp, esp
  00003	53		 push	 ebx
  00004	56		 push	 esi
  00005	8b d9		 mov	 ebx, ecx
  00007	57		 push	 edi

; 35   : 	CDialog::DoDataExchange(pDX);
; 36   : 	//{{AFX_DATA_MAP(CDlgSaveScreen)
; 37   : 	DDX_Text(pDX, IDC_EDIT1, m_nWidth);

  00008	8b 7d 08	 mov	 edi, DWORD PTR _pDX$[ebp]
  0000b	8d b3 a8 00 00
	00		 lea	 esi, DWORD PTR [ebx+168]
  00011	56		 push	 esi
  00012	68 d5 00 00 00	 push	 213			; 000000d5H
  00017	57		 push	 edi
  00018	e8 00 00 00 00	 call	 ?DDX_Text@@YGXPAVCDataExchange@@HAAH@Z ; DDX_Text

; 38   : 	DDV_MinMaxInt(pDX, m_nWidth, 1, 1024);

  0001d	68 00 04 00 00	 push	 1024			; 00000400H
  00022	6a 01		 push	 1
  00024	ff 36		 push	 DWORD PTR [esi]
  00026	57		 push	 edi
  00027	e8 00 00 00 00	 call	 ?DDV_MinMaxInt@@YGXPAVCDataExchange@@HHH@Z ; DDV_MinMaxInt

; 39   : 	DDX_Text(pDX, IDC_EDIT2, m_nHeight);

  0002c	8d b3 ac 00 00
	00		 lea	 esi, DWORD PTR [ebx+172]
  00032	56		 push	 esi
  00033	68 d7 00 00 00	 push	 215			; 000000d7H
  00038	57		 push	 edi
  00039	e8 00 00 00 00	 call	 ?DDX_Text@@YGXPAVCDataExchange@@HAAH@Z ; DDX_Text

; 40   : 	DDV_MinMaxInt(pDX, m_nHeight, 1, 768);

  0003e	68 00 03 00 00	 push	 768			; 00000300H
  00043	6a 01		 push	 1
  00045	ff 36		 push	 DWORD PTR [esi]
  00047	57		 push	 edi
  00048	e8 00 00 00 00	 call	 ?DDV_MinMaxInt@@YGXPAVCDataExchange@@HHH@Z ; DDV_MinMaxInt

; 41   : 	DDX_Text(pDX, IDC_EDIT3, m_strFileName);

  0004d	8d 83 b0 00 00
	00		 lea	 eax, DWORD PTR [ebx+176]
  00053	50		 push	 eax
  00054	68 d8 00 00 00	 push	 216			; 000000d8H
  00059	57		 push	 edi
  0005a	e8 00 00 00 00	 call	 ?DDX_Text@@YGXPAVCDataExchange@@HAAV?$CStringT@DV?$StrTraitMFC_DLL@DV?$ChTraitsCRT@D@ATL@@@@@ATL@@@Z ; DDX_Text

; 42   : 	DDX_Text(pDX, IDC_SAVEFILEPATH, m_strFilePath);

  0005f	8d 83 b4 00 00
	00		 lea	 eax, DWORD PTR [ebx+180]
  00065	50		 push	 eax
  00066	68 da 00 00 00	 push	 218			; 000000daH
  0006b	57		 push	 edi
  0006c	e8 00 00 00 00	 call	 ?DDX_Text@@YGXPAVCDataExchange@@HAAV?$CStringT@DV?$StrTraitMFC_DLL@DV?$ChTraitsCRT@D@ATL@@@@@ATL@@@Z ; DDX_Text

; 43   : 	DDX_CBIndex(pDX, IDC_FILETYPE, m_nFileType);

  00071	8d 83 b8 00 00
	00		 lea	 eax, DWORD PTR [ebx+184]
  00077	50		 push	 eax
  00078	68 e0 00 00 00	 push	 224			; 000000e0H
  0007d	57		 push	 edi
  0007e	e8 00 00 00 00	 call	 ?DDX_CBIndex@@YGXPAVCDataExchange@@HAAH@Z ; DDX_CBIndex
  00083	5f		 pop	 edi
  00084	5e		 pop	 esi
  00085	5b		 pop	 ebx

; 44   : 	//}}AFX_DATA_MAP
; 45   : }

  00086	5d		 pop	 ebp
  00087	c2 04 00	 ret	 4
?DoDataExchange@CDlgSaveScreen@@MAEXPAVCDataExchange@@@Z ENDP ; CDlgSaveScreen::DoDataExchange
_TEXT	ENDS
; Function compile flags: /Ogtp
; File D:\git\src\IBK\IBK_DRFN\ProjSrc\SrcChartEx\ChartOCX\AddInManager\ChartCommonAddIn\DlgSaveScreen.cpp
;	COMDAT ??0CDlgSaveScreen@@QAE@PAVCWnd@@@Z
_TEXT	SEGMENT
_this$ = -16						; size = 4
__$EHRec$ = -12						; size = 12
_pParent$ = 8						; size = 4
??0CDlgSaveScreen@@QAE@PAVCWnd@@@Z PROC			; CDlgSaveScreen::CDlgSaveScreen, COMDAT
; _this$ = ecx

; 22   : {

  00000	55		 push	 ebp
  00001	8b ec		 mov	 ebp, esp
  00003	6a ff		 push	 -1
  00005	68 00 00 00 00	 push	 __ehhandler$??0CDlgSaveScreen@@QAE@PAVCWnd@@@Z
  0000a	64 a1 00 00 00
	00		 mov	 eax, DWORD PTR fs:0
  00010	50		 push	 eax
  00011	51		 push	 ecx
  00012	53		 push	 ebx
  00013	56		 push	 esi
  00014	57		 push	 edi
  00015	a1 00 00 00 00	 mov	 eax, DWORD PTR ___security_cookie
  0001a	33 c5		 xor	 eax, ebp
  0001c	50		 push	 eax
  0001d	8d 45 f4	 lea	 eax, DWORD PTR __$EHRec$[ebp]
  00020	64 a3 00 00 00
	00		 mov	 DWORD PTR fs:0, eax
  00026	8b d9		 mov	 ebx, ecx
  00028	89 5d f0	 mov	 DWORD PTR _this$[ebp], ebx

; 21   : 	: CDialog(CDlgSaveScreen::IDD, pParent)

  0002b	ff 75 08	 push	 DWORD PTR _pParent$[ebp]
  0002e	68 e4 00 00 00	 push	 228			; 000000e4H
  00033	e8 00 00 00 00	 call	 ??0CDialog@@QAE@IPAVCWnd@@@Z ; CDialog::CDialog

; 22   : {

  00038	8d 8b b0 00 00
	00		 lea	 ecx, DWORD PTR [ebx+176]
  0003e	c7 45 fc 00 00
	00 00		 mov	 DWORD PTR __$EHRec$[ebp+8], 0
  00045	c7 03 00 00 00
	00		 mov	 DWORD PTR [ebx], OFFSET ??_7CDlgSaveScreen@@6B@
  0004b	ff 15 00 00 00
	00		 call	 DWORD PTR __imp_??0?$CStringT@DV?$StrTraitMFC_DLL@DV?$ChTraitsCRT@D@ATL@@@@@ATL@@QAE@XZ
  00051	8d 8b b4 00 00
	00		 lea	 ecx, DWORD PTR [ebx+180]
  00057	ff 15 00 00 00
	00		 call	 DWORD PTR __imp_??0?$CStringT@DV?$StrTraitMFC_DLL@DV?$ChTraitsCRT@D@ATL@@@@@ATL@@QAE@XZ

; 23   : 	//{{AFX_DATA_INIT(CDlgSaveScreen)
; 24   : 	m_nWidth = 500;
; 25   : 	m_nHeight = 350;
; 26   : 	m_strFileName = _T("temp");

  0005d	68 00 00 00 00	 push	 OFFSET ??_C@_04FGEHGIFJ@temp@
  00062	8d 8b b0 00 00
	00		 lea	 ecx, DWORD PTR [ebx+176]
  00068	c6 45 fc 02	 mov	 BYTE PTR __$EHRec$[ebp+8], 2
  0006c	c7 83 a8 00 00
	00 f4 01 00 00	 mov	 DWORD PTR [ebx+168], 500 ; 000001f4H
  00076	c7 83 ac 00 00
	00 5e 01 00 00	 mov	 DWORD PTR [ebx+172], 350 ; 0000015eH
  00080	ff 15 00 00 00
	00		 call	 DWORD PTR __imp_??4?$CStringT@DV?$StrTraitMFC_DLL@DV?$ChTraitsCRT@D@ATL@@@@@ATL@@QAEAAV01@PBD@Z

; 27   : 	m_strFilePath = _T("");

  00086	68 00 00 00 00	 push	 OFFSET ??_C@_00CNPNBAHC@@
  0008b	8d 8b b4 00 00
	00		 lea	 ecx, DWORD PTR [ebx+180]
  00091	ff 15 00 00 00
	00		 call	 DWORD PTR __imp_??4?$CStringT@DV?$StrTraitMFC_DLL@DV?$ChTraitsCRT@D@ATL@@@@@ATL@@QAEAAV01@PBD@Z

; 28   : 	m_nFileType = 1;

  00097	c7 83 b8 00 00
	00 01 00 00 00	 mov	 DWORD PTR [ebx+184], 1

; 29   : 	//}}AFX_DATA_INIT
; 30   : }

  000a1	8b c3		 mov	 eax, ebx
  000a3	8b 4d f4	 mov	 ecx, DWORD PTR __$EHRec$[ebp]
  000a6	64 89 0d 00 00
	00 00		 mov	 DWORD PTR fs:0, ecx
  000ad	59		 pop	 ecx
  000ae	5f		 pop	 edi
  000af	5e		 pop	 esi
  000b0	5b		 pop	 ebx
  000b1	8b e5		 mov	 esp, ebp
  000b3	5d		 pop	 ebp
  000b4	c2 04 00	 ret	 4
_TEXT	ENDS
;	COMDAT text$x
text$x	SEGMENT
__unwindfunclet$??0CDlgSaveScreen@@QAE@PAVCWnd@@@Z$0:
  00000	8b 4d f0	 mov	 ecx, DWORD PTR _this$[ebp]
  00003	e9 00 00 00 00	 jmp	 ??1CDialog@@UAE@XZ	; CDialog::~CDialog
__unwindfunclet$??0CDlgSaveScreen@@QAE@PAVCWnd@@@Z$1:
  00008	8b 4d f0	 mov	 ecx, DWORD PTR _this$[ebp]
  0000b	81 c1 b0 00 00
	00		 add	 ecx, 176		; 000000b0H
  00011	ff 25 00 00 00
	00		 jmp	 DWORD PTR __imp_??1?$CStringT@DV?$StrTraitMFC_DLL@DV?$ChTraitsCRT@D@ATL@@@@@ATL@@QAE@XZ
__unwindfunclet$??0CDlgSaveScreen@@QAE@PAVCWnd@@@Z$2:
  00017	8b 4d f0	 mov	 ecx, DWORD PTR _this$[ebp]
  0001a	81 c1 b4 00 00
	00		 add	 ecx, 180		; 000000b4H
  00020	ff 25 00 00 00
	00		 jmp	 DWORD PTR __imp_??1?$CStringT@DV?$StrTraitMFC_DLL@DV?$ChTraitsCRT@D@ATL@@@@@ATL@@QAE@XZ
  00026	cc		 int	 3
  00027	cc		 int	 3
  00028	cc		 int	 3
  00029	cc		 int	 3
  0002a	cc		 int	 3
__ehhandler$??0CDlgSaveScreen@@QAE@PAVCWnd@@@Z:
  0002b	90		 npad	 1
  0002c	90		 npad	 1
  0002d	8b 54 24 08	 mov	 edx, DWORD PTR [esp+8]
  00031	8d 42 0c	 lea	 eax, DWORD PTR [edx+12]
  00034	8b 4a ec	 mov	 ecx, DWORD PTR [edx-20]
  00037	33 c8		 xor	 ecx, eax
  00039	e8 00 00 00 00	 call	 @__security_check_cookie@4
  0003e	b8 00 00 00 00	 mov	 eax, OFFSET __ehfuncinfo$??0CDlgSaveScreen@@QAE@PAVCWnd@@@Z
  00043	e9 00 00 00 00	 jmp	 ___CxxFrameHandler3
text$x	ENDS
??0CDlgSaveScreen@@QAE@PAVCWnd@@@Z ENDP			; CDlgSaveScreen::CDlgSaveScreen
; Function compile flags: /Ogtp
; File D:\git\src\IBK\IBK_DRFN\ProjSrc\SrcChartEx\ChartOCX\AddInManager\ChartCommonAddIn\DlgSaveScreen.cpp
; File C:\Program Files (x86)\Microsoft Visual Studio\2019\Community\VC\Tools\MSVC\14.29.30133\atlmfc\include\atlsimpstr.h
; File D:\git\src\IBK\IBK_DRFN\ProjSrc\SrcChartEx\ChartOCX\AddInManager\ChartCommonAddIn\DlgSaveScreen.cpp
; File C:\Program Files (x86)\Microsoft Visual Studio\2019\Community\VC\Tools\MSVC\14.29.30133\atlmfc\include\atlsimpstr.h
; File D:\git\src\IBK\IBK_DRFN\ProjSrc\SrcChartEx\ChartOCX\AddInManager\ChartCommonAddIn\DlgSaveScreen.cpp
; File C:\Program Files (x86)\Microsoft Visual Studio\2019\Community\VC\Tools\MSVC\14.29.30133\atlmfc\include\atlsimpstr.h
; File D:\git\src\IBK\IBK_DRFN\ProjSrc\SrcChartEx\ChartOCX\AddInManager\ChartCommonAddIn\DlgSaveScreen.cpp
; File C:\Program Files (x86)\Microsoft Visual Studio\2019\Community\VC\Tools\MSVC\14.29.30133\atlmfc\include\atlsimpstr.h
; File D:\git\src\IBK\IBK_DRFN\ProjSrc\SrcChartEx\ChartOCX\AddInManager\ChartCommonAddIn\DlgSaveScreen.cpp
; File C:\Program Files (x86)\Microsoft Visual Studio\2019\Community\VC\Tools\MSVC\14.29.30133\atlmfc\include\cstringt.h
; File D:\git\src\IBK\IBK_DRFN\ProjSrc\SrcChartEx\ChartOCX\AddInManager\ChartCommonAddIn\DlgSaveScreen.cpp
; File C:\Program Files (x86)\Microsoft Visual Studio\2019\Community\VC\Tools\MSVC\14.29.30133\atlmfc\include\cstringt.h
; File C:\Program Files (x86)\Microsoft Visual Studio\2019\Community\VC\Tools\MSVC\14.29.30133\atlmfc\include\atlsimpstr.h
; File C:\Program Files (x86)\Microsoft Visual Studio\2019\Community\VC\Tools\MSVC\14.29.30133\atlmfc\include\cstringt.h
; File D:\git\src\IBK\IBK_DRFN\ProjSrc\SrcChartEx\ChartOCX\AddInManager\ChartCommonAddIn\DlgSaveScreen.cpp
; File C:\Program Files (x86)\Microsoft Visual Studio\2019\Community\VC\Tools\MSVC\14.29.30133\atlmfc\include\atlsimpstr.h
; File D:\git\src\IBK\IBK_DRFN\ProjSrc\SrcChartEx\ChartOCX\AddInManager\ChartCommonAddIn\DlgSaveScreen.cpp
; File C:\Program Files (x86)\Microsoft Visual Studio\2019\Community\VC\Tools\MSVC\14.29.30133\atlmfc\include\atlsimpstr.h
; File D:\git\src\IBK\IBK_DRFN\ProjSrc\SrcChartEx\ChartOCX\AddInManager\ChartCommonAddIn\DlgSaveScreen.cpp
;	COMDAT ?SetFilePath@CDlgSaveScreen@@QAEXPBD@Z
_TEXT	SEGMENT
$T2 = -40						; size = 4
$T3 = -36						; size = 4
_strRealFileName$ = -32					; size = 4
$T4 = -28						; size = 4
_strFilePath$ = -24					; size = 4
_strTemp$ = -20						; size = 4
_strRealPath$ = -16					; size = 4
__$EHRec$ = -12						; size = 12
$T5 = 8							; size = 4
_strTemp2$6 = 8						; size = 4
_p_szFilePath$ = 8					; size = 4
?SetFilePath@CDlgSaveScreen@@QAEXPBD@Z PROC		; CDlgSaveScreen::SetFilePath, COMDAT
; _this$ = ecx

; 153  : {

  00000	55		 push	 ebp
  00001	8b ec		 mov	 ebp, esp
  00003	6a ff		 push	 -1
  00005	68 00 00 00 00	 push	 __ehhandler$?SetFilePath@CDlgSaveScreen@@QAEXPBD@Z
  0000a	64 a1 00 00 00
	00		 mov	 eax, DWORD PTR fs:0
  00010	50		 push	 eax
  00011	83 ec 1c	 sub	 esp, 28			; 0000001cH
  00014	56		 push	 esi
  00015	57		 push	 edi
  00016	a1 00 00 00 00	 mov	 eax, DWORD PTR ___security_cookie
  0001b	33 c5		 xor	 eax, ebp
  0001d	50		 push	 eax
  0001e	8d 45 f4	 lea	 eax, DWORD PTR __$EHRec$[ebp]
  00021	64 a3 00 00 00
	00		 mov	 DWORD PTR fs:0, eax
  00027	8b f9		 mov	 edi, ecx
  00029	33 f6		 xor	 esi, esi

; 154  : 	CString strFilePath( p_szFilePath);

  0002b	8d 4d e8	 lea	 ecx, DWORD PTR _strFilePath$[ebp]
  0002e	89 75 d8	 mov	 DWORD PTR $T2[ebp], esi
  00031	ff 75 08	 push	 DWORD PTR _p_szFilePath$[ebp]
  00034	ff 15 00 00 00
	00		 call	 DWORD PTR __imp_??0?$CStringT@DV?$StrTraitMFC_DLL@DV?$ChTraitsCRT@D@ATL@@@@@ATL@@QAE@PBD@Z

; 155  : 	//sy 2003.10.17.
; 156  : 	if(strFilePath.Find(".") < 0){

  0003a	56		 push	 esi
  0003b	68 00 00 00 00	 push	 OFFSET ??_C@_01LFCBOECM@?4@
  00040	8d 4d e8	 lea	 ecx, DWORD PTR _strFilePath$[ebp]
  00043	89 75 fc	 mov	 DWORD PTR __$EHRec$[ebp+8], esi
  00046	ff 15 00 00 00
	00		 call	 DWORD PTR __imp_?Find@?$CStringT@DV?$StrTraitMFC_DLL@DV?$ChTraitsCRT@D@ATL@@@@@ATL@@QBEHPBDH@Z
  0004c	85 c0		 test	 eax, eax
  0004e	8d 45 e8	 lea	 eax, DWORD PTR _strFilePath$[ebp]
  00051	50		 push	 eax
  00052	79 11		 jns	 SHORT $LN4@SetFilePat

; 157  : 		m_strFilePath = strFilePath;

  00054	8d 8f b4 00 00
	00		 lea	 ecx, DWORD PTR [edi+180]
  0005a	ff 15 00 00 00
	00		 call	 DWORD PTR __imp_??4?$CStringT@DV?$StrTraitMFC_DLL@DV?$ChTraitsCRT@D@ATL@@@@@ATL@@QAEAAV01@ABV01@@Z
  00060	e9 78 01 00 00	 jmp	 $LN18@SetFilePat
$LN4@SetFilePat:

; 158  : 		return;
; 159  : 	}
; 160  : 
; 161  : 	CString strTemp = strFilePath;

  00065	8d 4d ec	 lea	 ecx, DWORD PTR _strTemp$[ebp]
  00068	ff 15 00 00 00
	00		 call	 DWORD PTR __imp_??0?$CStringT@DV?$StrTraitMFC_DLL@DV?$ChTraitsCRT@D@ATL@@@@@ATL@@QAE@ABV01@@Z

; 162  : 	CString strRealPath;

  0006e	8d 4d f0	 lea	 ecx, DWORD PTR _strRealPath$[ebp]
  00071	ff 15 00 00 00
	00		 call	 DWORD PTR __imp_??0?$CStringT@DV?$StrTraitMFC_DLL@DV?$ChTraitsCRT@D@ATL@@@@@ATL@@QAE@XZ
; File C:\Program Files (x86)\Microsoft Visual Studio\2019\Community\VC\Tools\MSVC\14.29.30133\atlmfc\include\atlsimpstr.h

; 519  : 		return( GetData()->nDataLength );

  00077	8b 45 ec	 mov	 eax, DWORD PTR _strTemp$[ebp]
; File D:\git\src\IBK\IBK_DRFN\ProjSrc\SrcChartEx\ChartOCX\AddInManager\ChartCommonAddIn\DlgSaveScreen.cpp

; 162  : 	CString strRealPath;

  0007a	c6 45 fc 02	 mov	 BYTE PTR __$EHRec$[ebp+8], 2
; File C:\Program Files (x86)\Microsoft Visual Studio\2019\Community\VC\Tools\MSVC\14.29.30133\atlmfc\include\atlsimpstr.h

; 533  : 		return( GetLength() == 0 );

  0007e	83 78 f4 00	 cmp	 DWORD PTR [eax-12], 0
; File D:\git\src\IBK\IBK_DRFN\ProjSrc\SrcChartEx\ChartOCX\AddInManager\ChartCommonAddIn\DlgSaveScreen.cpp

; 163  : 	while(!strTemp.IsEmpty()){

  00082	0f 84 dc 00 00
	00		 je	 $LN3@SetFilePat
  00088	0f 1f 84 00 00
	00 00 00	 npad	 8
$LL2@SetFilePat:

; 164  : 		CString strTemp2 = CDataConversion::GetStringData(strTemp, "\\");

  00090	68 00 00 00 00	 push	 OFFSET ??_C@_01KICIPPFI@?2@
  00095	8d 4d dc	 lea	 ecx, DWORD PTR $T3[ebp]
  00098	ff 15 00 00 00
	00		 call	 DWORD PTR __imp_??0?$CStringT@DV?$StrTraitMFC_DLL@DV?$ChTraitsCRT@D@ATL@@@@@ATL@@QAE@PBD@Z
  0009e	6a 01		 push	 1
  000a0	8d 45 dc	 lea	 eax, DWORD PTR $T3[ebp]
  000a3	c6 45 fc 03	 mov	 BYTE PTR __$EHRec$[ebp+8], 3
  000a7	50		 push	 eax
  000a8	8d 45 ec	 lea	 eax, DWORD PTR _strTemp$[ebp]
  000ab	50		 push	 eax
  000ac	8d 45 08	 lea	 eax, DWORD PTR _strTemp2$6[ebp]
  000af	50		 push	 eax
  000b0	e8 00 00 00 00	 call	 ?GetStringData@CDataConversion@@SA?AV?$CStringT@DV?$StrTraitMFC_DLL@DV?$ChTraitsCRT@D@ATL@@@@@ATL@@AAV23@ABV23@_N@Z ; CDataConversion::GetStringData
  000b5	83 c4 10	 add	 esp, 16			; 00000010H
  000b8	8d 4d dc	 lea	 ecx, DWORD PTR $T3[ebp]
  000bb	c6 45 fc 05	 mov	 BYTE PTR __$EHRec$[ebp+8], 5
  000bf	ff 15 00 00 00
	00		 call	 DWORD PTR __imp_??1?$CStringT@DV?$StrTraitMFC_DLL@DV?$ChTraitsCRT@D@ATL@@@@@ATL@@QAE@XZ
; File C:\Program Files (x86)\Microsoft Visual Studio\2019\Community\VC\Tools\MSVC\14.29.30133\atlmfc\include\atlsimpstr.h

; 519  : 		return( GetData()->nDataLength );

  000c5	8b 45 08	 mov	 eax, DWORD PTR _strTemp2$6[ebp]

; 533  : 		return( GetLength() == 0 );

  000c8	83 78 f4 00	 cmp	 DWORD PTR [eax-12], 0
; File D:\git\src\IBK\IBK_DRFN\ProjSrc\SrcChartEx\ChartOCX\AddInManager\ChartCommonAddIn\DlgSaveScreen.cpp

; 165  : 		if(strTemp2.IsEmpty())

  000cc	0f 84 85 00 00
	00		 je	 $LN57@SetFilePat
; File C:\Program Files (x86)\Microsoft Visual Studio\2019\Community\VC\Tools\MSVC\14.29.30133\atlmfc\include\atlsimpstr.h

; 519  : 		return( GetData()->nDataLength );

  000d2	8b 45 f0	 mov	 eax, DWORD PTR _strRealPath$[ebp]

; 533  : 		return( GetLength() == 0 );

  000d5	83 78 f4 00	 cmp	 DWORD PTR [eax-12], 0
; File D:\git\src\IBK\IBK_DRFN\ProjSrc\SrcChartEx\ChartOCX\AddInManager\ChartCommonAddIn\DlgSaveScreen.cpp

; 168  : 		if(strRealPath.IsEmpty()){

  000d9	75 0f		 jne	 SHORT $LN6@SetFilePat

; 169  : 			strRealPath = strTemp2;

  000db	8d 45 08	 lea	 eax, DWORD PTR _strTemp2$6[ebp]
  000de	50		 push	 eax
  000df	8d 4d f0	 lea	 ecx, DWORD PTR _strRealPath$[ebp]
  000e2	ff 15 00 00 00
	00		 call	 DWORD PTR __imp_??4?$CStringT@DV?$StrTraitMFC_DLL@DV?$ChTraitsCRT@D@ATL@@@@@ATL@@QAEAAV01@ABV01@@Z

; 170  : 		}

  000e8	eb 51		 jmp	 SHORT $LN7@SetFilePat
$LN6@SetFilePat:
; File C:\Program Files (x86)\Microsoft Visual Studio\2019\Community\VC\Tools\MSVC\14.29.30133\atlmfc\include\cstringt.h

; 2412 : 		CStringT strResult( str2.GetManager() );

  000ea	8d 4d 08	 lea	 ecx, DWORD PTR _strTemp2$6[ebp]
; File D:\git\src\IBK\IBK_DRFN\ProjSrc\SrcChartEx\ChartOCX\AddInManager\ChartCommonAddIn\DlgSaveScreen.cpp

; 172  : 			strRealPath += ("\\" + strTemp2);

  000ed	c6 45 fc 06	 mov	 BYTE PTR __$EHRec$[ebp+8], 6
; File C:\Program Files (x86)\Microsoft Visual Studio\2019\Community\VC\Tools\MSVC\14.29.30133\atlmfc\include\cstringt.h

; 2412 : 		CStringT strResult( str2.GetManager() );

  000f1	ff 15 00 00 00
	00		 call	 DWORD PTR __imp_?GetManager@?$CStringT@DV?$StrTraitMFC_DLL@DV?$ChTraitsCRT@D@ATL@@@@@ATL@@QBEPAUIAtlStringMgr@2@XZ
  000f7	50		 push	 eax
  000f8	8d 4d e4	 lea	 ecx, DWORD PTR $T4[ebp]
  000fb	ff 15 00 00 00
	00		 call	 DWORD PTR __imp_??0?$CStringT@DV?$StrTraitMFC_DLL@DV?$ChTraitsCRT@D@ATL@@@@@ATL@@QAE@PAUIAtlStringMgr@1@@Z
; File C:\Program Files (x86)\Microsoft Visual Studio\2019\Community\VC\Tools\MSVC\14.29.30133\atlmfc\include\atlsimpstr.h

; 519  : 		return( GetData()->nDataLength );

  00101	8b 45 08	 mov	 eax, DWORD PTR _strTemp2$6[ebp]
; File C:\Program Files (x86)\Microsoft Visual Studio\2019\Community\VC\Tools\MSVC\14.29.30133\atlmfc\include\cstringt.h

; 2416 : 		return( strResult );

  00104	83 ce 01	 or	 esi, 1
  00107	89 75 d8	 mov	 DWORD PTR $T2[ebp], esi
  0010a	ff 70 f4	 push	 DWORD PTR [eax-12]
  0010d	50		 push	 eax
  0010e	6a 01		 push	 1
  00110	8d 45 e4	 lea	 eax, DWORD PTR $T4[ebp]
  00113	68 00 00 00 00	 push	 OFFSET ??_C@_01KICIPPFI@?2@
  00118	50		 push	 eax
  00119	ff 15 00 00 00
	00		 call	 DWORD PTR __imp_?Concatenate@?$CSimpleStringT@D$00@ATL@@KAXAAV12@PBDH1H@Z
  0011f	83 c4 14	 add	 esp, 20			; 00000014H
; File D:\git\src\IBK\IBK_DRFN\ProjSrc\SrcChartEx\ChartOCX\AddInManager\ChartCommonAddIn\DlgSaveScreen.cpp

; 172  : 			strRealPath += ("\\" + strTemp2);

  00122	8d 45 e4	 lea	 eax, DWORD PTR $T4[ebp]
  00125	8d 4d f0	 lea	 ecx, DWORD PTR _strRealPath$[ebp]
  00128	50		 push	 eax
  00129	ff 15 00 00 00
	00		 call	 DWORD PTR __imp_??Y?$CStringT@DV?$StrTraitMFC_DLL@DV?$ChTraitsCRT@D@ATL@@@@@ATL@@QAEAAV01@ABV?$CSimpleStringT@D$00@1@@Z
  0012f	8d 4d e4	 lea	 ecx, DWORD PTR $T4[ebp]
  00132	83 e6 fe	 and	 esi, -2			; fffffffeH
  00135	ff 15 00 00 00
	00		 call	 DWORD PTR __imp_??1?$CStringT@DV?$StrTraitMFC_DLL@DV?$ChTraitsCRT@D@ATL@@@@@ATL@@QAE@XZ
$LN7@SetFilePat:

; 173  : 		}
; 174  : 	}

  0013b	8d 4d 08	 lea	 ecx, DWORD PTR _strTemp2$6[ebp]
  0013e	c6 45 fc 02	 mov	 BYTE PTR __$EHRec$[ebp+8], 2
  00142	ff 15 00 00 00
	00		 call	 DWORD PTR __imp_??1?$CStringT@DV?$StrTraitMFC_DLL@DV?$ChTraitsCRT@D@ATL@@@@@ATL@@QAE@XZ
; File C:\Program Files (x86)\Microsoft Visual Studio\2019\Community\VC\Tools\MSVC\14.29.30133\atlmfc\include\atlsimpstr.h

; 519  : 		return( GetData()->nDataLength );

  00148	8b 45 ec	 mov	 eax, DWORD PTR _strTemp$[ebp]

; 533  : 		return( GetLength() == 0 );

  0014b	83 78 f4 00	 cmp	 DWORD PTR [eax-12], 0
; File D:\git\src\IBK\IBK_DRFN\ProjSrc\SrcChartEx\ChartOCX\AddInManager\ChartCommonAddIn\DlgSaveScreen.cpp

; 163  : 	while(!strTemp.IsEmpty()){

  0014f	0f 85 3b ff ff
	ff		 jne	 $LL2@SetFilePat

; 165  : 		if(strTemp2.IsEmpty())

  00155	eb 0d		 jmp	 SHORT $LN3@SetFilePat
$LN57@SetFilePat:

; 166  : 			break;

  00157	8d 4d 08	 lea	 ecx, DWORD PTR _strTemp2$6[ebp]
  0015a	c6 45 fc 02	 mov	 BYTE PTR __$EHRec$[ebp+8], 2
  0015e	ff 15 00 00 00
	00		 call	 DWORD PTR __imp_??1?$CStringT@DV?$StrTraitMFC_DLL@DV?$ChTraitsCRT@D@ATL@@@@@ATL@@QAE@XZ
$LN3@SetFilePat:

; 175  : 
; 176  : 	m_strFilePath = strRealPath;

  00164	8d 45 f0	 lea	 eax, DWORD PTR _strRealPath$[ebp]
  00167	50		 push	 eax
  00168	8d 8f b4 00 00
	00		 lea	 ecx, DWORD PTR [edi+180]
  0016e	ff 15 00 00 00
	00		 call	 DWORD PTR __imp_??4?$CStringT@DV?$StrTraitMFC_DLL@DV?$ChTraitsCRT@D@ATL@@@@@ATL@@QAEAAV01@ABV01@@Z

; 177  : 
; 178  : 	CString strRealFileName = CDataConversion::GetStringData(strTemp, ".");

  00174	68 00 00 00 00	 push	 OFFSET ??_C@_01LFCBOECM@?4@
  00179	8d 4d 08	 lea	 ecx, DWORD PTR $T5[ebp]
  0017c	ff 15 00 00 00
	00		 call	 DWORD PTR __imp_??0?$CStringT@DV?$StrTraitMFC_DLL@DV?$ChTraitsCRT@D@ATL@@@@@ATL@@QAE@PBD@Z
  00182	6a 01		 push	 1
  00184	8d 45 08	 lea	 eax, DWORD PTR $T5[ebp]
  00187	c6 45 fc 07	 mov	 BYTE PTR __$EHRec$[ebp+8], 7
  0018b	50		 push	 eax
  0018c	8d 45 ec	 lea	 eax, DWORD PTR _strTemp$[ebp]
  0018f	50		 push	 eax
  00190	8d 45 e0	 lea	 eax, DWORD PTR _strRealFileName$[ebp]
  00193	50		 push	 eax
  00194	e8 00 00 00 00	 call	 ?GetStringData@CDataConversion@@SA?AV?$CStringT@DV?$StrTraitMFC_DLL@DV?$ChTraitsCRT@D@ATL@@@@@ATL@@AAV23@ABV23@_N@Z ; CDataConversion::GetStringData
  00199	83 c4 10	 add	 esp, 16			; 00000010H
  0019c	8d 4d 08	 lea	 ecx, DWORD PTR $T5[ebp]
  0019f	c6 45 fc 09	 mov	 BYTE PTR __$EHRec$[ebp+8], 9
  001a3	ff 15 00 00 00
	00		 call	 DWORD PTR __imp_??1?$CStringT@DV?$StrTraitMFC_DLL@DV?$ChTraitsCRT@D@ATL@@@@@ATL@@QAE@XZ
; File C:\Program Files (x86)\Microsoft Visual Studio\2019\Community\VC\Tools\MSVC\14.29.30133\atlmfc\include\atlsimpstr.h

; 533  : 		return( GetLength() == 0 );

  001a9	8b 45 e0	 mov	 eax, DWORD PTR _strRealFileName$[ebp]
  001ac	83 78 f4 00	 cmp	 DWORD PTR [eax-12], 0
; File D:\git\src\IBK\IBK_DRFN\ProjSrc\SrcChartEx\ChartOCX\AddInManager\ChartCommonAddIn\DlgSaveScreen.cpp

; 179  : 	if(!strRealFileName.IsEmpty()){

  001b0	74 10		 je	 SHORT $LN8@SetFilePat

; 180  : 		m_strFileName = strRealFileName;

  001b2	8d 45 e0	 lea	 eax, DWORD PTR _strRealFileName$[ebp]
  001b5	50		 push	 eax
  001b6	8d 8f b0 00 00
	00		 lea	 ecx, DWORD PTR [edi+176]
  001bc	ff 15 00 00 00
	00		 call	 DWORD PTR __imp_??4?$CStringT@DV?$StrTraitMFC_DLL@DV?$ChTraitsCRT@D@ATL@@@@@ATL@@QAEAAV01@ABV01@@Z
$LN8@SetFilePat:

; 181  : 	}
; 182  : 	//end
; 183  : }

  001c2	8d 4d e0	 lea	 ecx, DWORD PTR _strRealFileName$[ebp]
  001c5	ff 15 00 00 00
	00		 call	 DWORD PTR __imp_??1?$CStringT@DV?$StrTraitMFC_DLL@DV?$ChTraitsCRT@D@ATL@@@@@ATL@@QAE@XZ
  001cb	8d 4d f0	 lea	 ecx, DWORD PTR _strRealPath$[ebp]
  001ce	ff 15 00 00 00
	00		 call	 DWORD PTR __imp_??1?$CStringT@DV?$StrTraitMFC_DLL@DV?$ChTraitsCRT@D@ATL@@@@@ATL@@QAE@XZ
  001d4	8d 4d ec	 lea	 ecx, DWORD PTR _strTemp$[ebp]
  001d7	ff 15 00 00 00
	00		 call	 DWORD PTR __imp_??1?$CStringT@DV?$StrTraitMFC_DLL@DV?$ChTraitsCRT@D@ATL@@@@@ATL@@QAE@XZ
$LN18@SetFilePat:
  001dd	8d 4d e8	 lea	 ecx, DWORD PTR _strFilePath$[ebp]
  001e0	ff 15 00 00 00
	00		 call	 DWORD PTR __imp_??1?$CStringT@DV?$StrTraitMFC_DLL@DV?$ChTraitsCRT@D@ATL@@@@@ATL@@QAE@XZ
  001e6	8b 4d f4	 mov	 ecx, DWORD PTR __$EHRec$[ebp]
  001e9	64 89 0d 00 00
	00 00		 mov	 DWORD PTR fs:0, ecx
  001f0	59		 pop	 ecx
  001f1	5f		 pop	 edi
  001f2	5e		 pop	 esi
  001f3	8b e5		 mov	 esp, ebp
  001f5	5d		 pop	 ebp
  001f6	c2 04 00	 ret	 4
_TEXT	ENDS
;	COMDAT text$x
text$x	SEGMENT
__unwindfunclet$?SetFilePath@CDlgSaveScreen@@QAEXPBD@Z$0:
  00000	8d 4d e8	 lea	 ecx, DWORD PTR _strFilePath$[ebp]
  00003	ff 25 00 00 00
	00		 jmp	 DWORD PTR __imp_??1?$CStringT@DV?$StrTraitMFC_DLL@DV?$ChTraitsCRT@D@ATL@@@@@ATL@@QAE@XZ
__unwindfunclet$?SetFilePath@CDlgSaveScreen@@QAEXPBD@Z$1:
  00009	8d 4d ec	 lea	 ecx, DWORD PTR _strTemp$[ebp]
  0000c	ff 25 00 00 00
	00		 jmp	 DWORD PTR __imp_??1?$CStringT@DV?$StrTraitMFC_DLL@DV?$ChTraitsCRT@D@ATL@@@@@ATL@@QAE@XZ
__unwindfunclet$?SetFilePath@CDlgSaveScreen@@QAEXPBD@Z$2:
  00012	8d 4d f0	 lea	 ecx, DWORD PTR _strRealPath$[ebp]
  00015	ff 25 00 00 00
	00		 jmp	 DWORD PTR __imp_??1?$CStringT@DV?$StrTraitMFC_DLL@DV?$ChTraitsCRT@D@ATL@@@@@ATL@@QAE@XZ
__unwindfunclet$?SetFilePath@CDlgSaveScreen@@QAEXPBD@Z$3:
  0001b	8d 4d dc	 lea	 ecx, DWORD PTR $T3[ebp]
  0001e	ff 25 00 00 00
	00		 jmp	 DWORD PTR __imp_??1?$CStringT@DV?$StrTraitMFC_DLL@DV?$ChTraitsCRT@D@ATL@@@@@ATL@@QAE@XZ
__unwindfunclet$?SetFilePath@CDlgSaveScreen@@QAEXPBD@Z$4:
  00024	8d 4d 08	 lea	 ecx, DWORD PTR _strTemp2$6[ebp]
  00027	ff 25 00 00 00
	00		 jmp	 DWORD PTR __imp_??1?$CStringT@DV?$StrTraitMFC_DLL@DV?$ChTraitsCRT@D@ATL@@@@@ATL@@QAE@XZ
__unwindfunclet$?SetFilePath@CDlgSaveScreen@@QAEXPBD@Z$8:
  0002d	8b 45 d8	 mov	 eax, DWORD PTR $T2[ebp]
  00030	83 e0 01	 and	 eax, 1
  00033	0f 84 0d 00 00
	00		 je	 $LN40@SetFilePat
  00039	83 65 d8 fe	 and	 DWORD PTR $T2[ebp], -2	; fffffffeH
  0003d	8d 4d e4	 lea	 ecx, DWORD PTR $T4[ebp]
  00040	ff 25 00 00 00
	00		 jmp	 DWORD PTR __imp_??1?$CStringT@DV?$StrTraitMFC_DLL@DV?$ChTraitsCRT@D@ATL@@@@@ATL@@QAE@XZ
$LN40@SetFilePat:
  00046	c3		 ret	 0
__unwindfunclet$?SetFilePath@CDlgSaveScreen@@QAEXPBD@Z$6:
  00047	8d 4d 08	 lea	 ecx, DWORD PTR $T5[ebp]
  0004a	ff 25 00 00 00
	00		 jmp	 DWORD PTR __imp_??1?$CStringT@DV?$StrTraitMFC_DLL@DV?$ChTraitsCRT@D@ATL@@@@@ATL@@QAE@XZ
__unwindfunclet$?SetFilePath@CDlgSaveScreen@@QAEXPBD@Z$7:
  00050	8d 4d e0	 lea	 ecx, DWORD PTR _strRealFileName$[ebp]
  00053	ff 25 00 00 00
	00		 jmp	 DWORD PTR __imp_??1?$CStringT@DV?$StrTraitMFC_DLL@DV?$ChTraitsCRT@D@ATL@@@@@ATL@@QAE@XZ
  00059	cc		 int	 3
  0005a	cc		 int	 3
  0005b	cc		 int	 3
  0005c	cc		 int	 3
  0005d	cc		 int	 3
__ehhandler$?SetFilePath@CDlgSaveScreen@@QAEXPBD@Z:
  0005e	90		 npad	 1
  0005f	90		 npad	 1
  00060	8b 54 24 08	 mov	 edx, DWORD PTR [esp+8]
  00064	8d 42 0c	 lea	 eax, DWORD PTR [edx+12]
  00067	8b 4a d8	 mov	 ecx, DWORD PTR [edx-40]
  0006a	33 c8		 xor	 ecx, eax
  0006c	e8 00 00 00 00	 call	 @__security_check_cookie@4
  00071	b8 00 00 00 00	 mov	 eax, OFFSET __ehfuncinfo$?SetFilePath@CDlgSaveScreen@@QAEXPBD@Z
  00076	e9 00 00 00 00	 jmp	 ___CxxFrameHandler3
text$x	ENDS
?SetFilePath@CDlgSaveScreen@@QAEXPBD@Z ENDP		; CDlgSaveScreen::SetFilePath
; Function compile flags: /Ogtp
; File D:\git\src\IBK\IBK_DRFN\ProjSrc\SrcChartEx\ChartOCX\AddInManager\ChartCommonAddIn\DlgSaveScreen.cpp
;	COMDAT ?GetFileType@CDlgSaveScreen@@QAEHXZ
_TEXT	SEGMENT
?GetFileType@CDlgSaveScreen@@QAEHXZ PROC		; CDlgSaveScreen::GetFileType, COMDAT
; _this$ = ecx

; 289  : 	return m_nFileType;

  00000	8b 81 b8 00 00
	00		 mov	 eax, DWORD PTR [ecx+184]

; 290  : }

  00006	c3		 ret	 0
?GetFileType@CDlgSaveScreen@@QAEHXZ ENDP		; CDlgSaveScreen::GetFileType
_TEXT	ENDS
; Function compile flags: /Ogtp
; File C:\Program Files (x86)\Microsoft Visual Studio\2019\Community\VC\Tools\MSVC\14.29.30133\atlmfc\include\afxwin2.inl
;	COMDAT ?Create@CDialog@@UAEHIPAVCWnd@@@Z
_TEXT	SEGMENT
_nIDTemplate$ = 8					; size = 4
_pParentWnd$ = 12					; size = 4
?Create@CDialog@@UAEHIPAVCWnd@@@Z PROC			; CDialog::Create, COMDAT
; _this$ = ecx

; 585  : 	{ return CDialog::Create(ATL_MAKEINTRESOURCE(nIDTemplate), pParentWnd); }

  00000	55		 push	 ebp
  00001	8b ec		 mov	 ebp, esp
  00003	0f b7 45 08	 movzx	 eax, WORD PTR _nIDTemplate$[ebp]
  00007	89 45 08	 mov	 DWORD PTR _nIDTemplate$[ebp], eax
  0000a	5d		 pop	 ebp
  0000b	e9 00 00 00 00	 jmp	 ?Create@CDialog@@UAEHPBDPAVCWnd@@@Z ; CDialog::Create
?Create@CDialog@@UAEHIPAVCWnd@@@Z ENDP			; CDialog::Create
_TEXT	ENDS
; Function compile flags: /Ogtp
; File C:\Program Files (x86)\Microsoft Visual Studio\2019\Community\VC\Tools\MSVC\14.29.30133\atlmfc\include\afxwin2.inl
;	COMDAT ?EndModalState@CWnd@@UAEXXZ
_TEXT	SEGMENT
?EndModalState@CWnd@@UAEXXZ PROC			; CWnd::EndModalState, COMDAT
; _this$ = ecx

; 567  : 	{ ::EnableWindow(m_hWnd, TRUE); }

  00000	6a 01		 push	 1
  00002	ff 71 20	 push	 DWORD PTR [ecx+32]
  00005	ff 15 00 00 00
	00		 call	 DWORD PTR __imp__EnableWindow@8
  0000b	c3		 ret	 0
?EndModalState@CWnd@@UAEXXZ ENDP			; CWnd::EndModalState
_TEXT	ENDS
; Function compile flags: /Ogtp
; File C:\Program Files (x86)\Microsoft Visual Studio\2019\Community\VC\Tools\MSVC\14.29.30133\atlmfc\include\afxwin2.inl
;	COMDAT ?BeginModalState@CWnd@@UAEXXZ
_TEXT	SEGMENT
?BeginModalState@CWnd@@UAEXXZ PROC			; CWnd::BeginModalState, COMDAT
; _this$ = ecx

; 565  : 	{ ::EnableWindow(m_hWnd, FALSE); }

  00000	6a 00		 push	 0
  00002	ff 71 20	 push	 DWORD PTR [ecx+32]
  00005	ff 15 00 00 00
	00		 call	 DWORD PTR __imp__EnableWindow@8
  0000b	c3		 ret	 0
?BeginModalState@CWnd@@UAEXXZ ENDP			; CWnd::BeginModalState
_TEXT	ENDS
; Function compile flags: /Ogtp
; File C:\Program Files (x86)\Microsoft Visual Studio\2019\Community\VC\Tools\MSVC\14.29.30133\atlmfc\include\afxwin2.inl
;	COMDAT ?DoDataExchange@CWnd@@MAEXPAVCDataExchange@@@Z
_TEXT	SEGMENT
___formal$ = 8						; size = 4
?DoDataExchange@CWnd@@MAEXPAVCDataExchange@@@Z PROC	; CWnd::DoDataExchange, COMDAT
; _this$ = ecx

; 561  : 	{ } // default does nothing

  00000	c2 04 00	 ret	 4
?DoDataExchange@CWnd@@MAEXPAVCDataExchange@@@Z ENDP	; CWnd::DoDataExchange
_TEXT	ENDS
; Function compile flags: /Ogtp
; File C:\Program Files (x86)\Microsoft Visual Studio\2019\Community\VC\Tools\MSVC\14.29.30133\atlmfc\include\afx.inl
;	COMDAT ?Dump@CObject@@UBEXAAVCDumpContext@@@Z
_TEXT	SEGMENT
___formal$ = 8						; size = 4
?Dump@CObject@@UBEXAAVCDumpContext@@@Z PROC		; CObject::Dump, COMDAT
; _this$ = ecx

; 122  : 	{ /* no dumping in release builds */ }

  00000	c2 04 00	 ret	 4
?Dump@CObject@@UBEXAAVCDumpContext@@@Z ENDP		; CObject::Dump
_TEXT	ENDS
; Function compile flags: /Ogtp
; File C:\Program Files (x86)\Microsoft Visual Studio\2019\Community\VC\Tools\MSVC\14.29.30133\atlmfc\include\afx.inl
;	COMDAT ?AssertValid@CObject@@UBEXXZ
_TEXT	SEGMENT
?AssertValid@CObject@@UBEXXZ PROC			; CObject::AssertValid, COMDAT
; _this$ = ecx

; 120  : 	{ /* no asserts in release builds */ }

  00000	c2 00 00	 ret	 0
?AssertValid@CObject@@UBEXXZ ENDP			; CObject::AssertValid
_TEXT	ENDS
; Function compile flags: /Ogtp
; File C:\Program Files (x86)\Microsoft Visual Studio\2019\Community\VC\Tools\MSVC\14.29.30133\atlmfc\include\afx.inl
;	COMDAT ?Serialize@CObject@@UAEXAAVCArchive@@@Z
_TEXT	SEGMENT
___formal$ = 8						; size = 4
?Serialize@CObject@@UAEXAAVCArchive@@@Z PROC		; CObject::Serialize, COMDAT
; _this$ = ecx

; 106  : 	{ /* CObject does not serialize anything by default */ }

  00000	c2 04 00	 ret	 4
?Serialize@CObject@@UAEXAAVCArchive@@@Z ENDP		; CObject::Serialize
_TEXT	ENDS
; Function compile flags: /Ogtp
; File D:\git\src\IBK\IBK_DRFN\ProjSrc\SrcChartEx\ChartOCX\AddInManager\ChartCommonAddIn\DlgSaveScreen.cpp
;	COMDAT ?__empty_global_delete@@YAXPAXI@Z
_TEXT	SEGMENT
___formal$ = 8						; size = 4
___formal$ = 12						; size = 4
?__empty_global_delete@@YAXPAXI@Z PROC			; __empty_global_delete, COMDAT

  00000	c2 00 00	 ret	 0
?__empty_global_delete@@YAXPAXI@Z ENDP			; __empty_global_delete
_TEXT	ENDS
; Function compile flags: /Ogtp
; File D:\git\src\IBK\IBK_DRFN\ProjSrc\SrcChartEx\ChartOCX\AddInManager\ChartCommonAddIn\DlgSaveScreen.cpp
;	COMDAT ?__empty_global_delete@@YAXPAX@Z
_TEXT	SEGMENT
___formal$ = 8						; size = 4
?__empty_global_delete@@YAXPAX@Z PROC			; __empty_global_delete, COMDAT

  00000	c2 00 00	 ret	 0
?__empty_global_delete@@YAXPAX@Z ENDP			; __empty_global_delete
_TEXT	ENDS
END
