; Listing generated by Microsoft (R) Optimizing Compiler Version 19.29.30145.0 

	TITLE	D:\git\src\IBK\IBK_DRFN\#DRfn-CS\_Obj\ChartCommonAddIn\DlgYScaleSetUp.obj
	.686P
	.XMM
	include listing.inc
	.model	flat

INCLUDELIB MSVCRT
INCLUDELIB OLDNAMES

PUBLIC	?__empty_global_delete@@YAXPAX@Z		; __empty_global_delete
PUBLIC	?__empty_global_delete@@YAXPAXI@Z		; __empty_global_delete
PUBLIC	?Serialize@CObject@@UAEXAAVCArchive@@@Z		; CObject::Serialize
PUBLIC	?AssertValid@CObject@@UBEXXZ			; CObject::AssertValid
PUBLIC	?Dump@CObject@@UBEXAAVCDumpContext@@@Z		; CObject::Dump
PUBLIC	?DoDataExchange@CWnd@@MAEXPAVCDataExchange@@@Z	; CWnd::DoDataExchange
PUBLIC	?BeginModalState@CWnd@@UAEXXZ			; CWnd::BeginModalState
PUBLIC	?EndModalState@CWnd@@UAEXXZ			; CWnd::EndModalState
PUBLIC	?Create@CDialog@@UAEHIPAVCWnd@@@Z		; CDialog::Create
PUBLIC	??0CDlgYScaleSetUp@@QAE@PAVCYScaleSetUpAddInImp@@PAUHWND__@@W4CHART_MODE@CChartInfo@@IPAVCWnd@@@Z ; CDlgYScaleSetUp::CDlgYScaleSetUp
PUBLIC	?DoDataExchange@CDlgYScaleSetUp@@MAEXPAVCDataExchange@@@Z ; CDlgYScaleSetUp::DoDataExchange
PUBLIC	?SetValueFormat@CDlgYScaleSetUp@@QAEXV?$CStringT@DV?$StrTraitMFC_DLL@DV?$ChTraitsCRT@D@ATL@@@@@ATL@@@Z ; CDlgYScaleSetUp::SetValueFormat
PUBLIC	?MovingAllControls@CDlgYScaleSetUp@@QAEXXZ	; CDlgYScaleSetUp::MovingAllControls
PUBLIC	?MoveControlPos@CDlgYScaleSetUp@@QAEXHH@Z	; CDlgYScaleSetUp::MoveControlPos
PUBLIC	?GetYScaleMaxMinSetupType@CDlgYScaleSetUp@@QAEHXZ ; CDlgYScaleSetUp::GetYScaleMaxMinSetupType
PUBLIC	?SetYScaleMaxMinSetupType@CDlgYScaleSetUp@@QAEXH@Z ; CDlgYScaleSetUp::SetYScaleMaxMinSetupType
PUBLIC	?GetYScaleMax@CDlgYScaleSetUp@@QAENXZ		; CDlgYScaleSetUp::GetYScaleMax
PUBLIC	?GetYScaleMin@CDlgYScaleSetUp@@QAENXZ		; CDlgYScaleSetUp::GetYScaleMin
PUBLIC	?SetYScaleMaxMin@CDlgYScaleSetUp@@QAEXNN@Z	; CDlgYScaleSetUp::SetYScaleMaxMin
PUBLIC	?SetYScaleMaxMinPercent@CDlgYScaleSetUp@@QAEXNN@Z ; CDlgYScaleSetUp::SetYScaleMaxMinPercent
PUBLIC	?SetStockPriceInfo@CDlgYScaleSetUp@@QAEXNNN@Z	; CDlgYScaleSetUp::SetStockPriceInfo
PUBLIC	?OnInitDialog@CDlgYScaleSetUp@@MAEHXZ		; CDlgYScaleSetUp::OnInitDialog
PUBLIC	?OnUseSetupValue@CDlgYScaleSetUp@@IAEXXZ	; CDlgYScaleSetUp::OnUseSetupValue
PUBLIC	?OnUsePercent@CDlgYScaleSetUp@@IAEXXZ		; CDlgYScaleSetUp::OnUsePercent
PUBLIC	?OnOK@CDlgYScaleSetUp@@MAEXXZ			; CDlgYScaleSetUp::OnOK
PUBLIC	?OnCancel@CDlgYScaleSetUp@@MAEXXZ		; CDlgYScaleSetUp::OnCancel
PUBLIC	?On30Percent@CDlgYScaleSetUp@@IAEXXZ		; CDlgYScaleSetUp::On30Percent
PUBLIC	?On50Percent@CDlgYScaleSetUp@@IAEXXZ		; CDlgYScaleSetUp::On50Percent
PUBLIC	?On70Percent@CDlgYScaleSetUp@@IAEXXZ		; CDlgYScaleSetUp::On70Percent
PUBLIC	?On100Percent@CDlgYScaleSetUp@@IAEXXZ		; CDlgYScaleSetUp::On100Percent
PUBLIC	?OnChangeMaxPriceEdit@CDlgYScaleSetUp@@IAEXXZ	; CDlgYScaleSetUp::OnChangeMaxPriceEdit
PUBLIC	?OnChangeMinPriceEdit@CDlgYScaleSetUp@@IAEXXZ	; CDlgYScaleSetUp::OnChangeMinPriceEdit
PUBLIC	?GetThisMessageMap@CDlgYScaleSetUp@@KGPBUAFX_MSGMAP@@XZ ; CDlgYScaleSetUp::GetThisMessageMap
PUBLIC	?GetMessageMap@CDlgYScaleSetUp@@MBEPBUAFX_MSGMAP@@XZ ; CDlgYScaleSetUp::GetMessageMap
PUBLIC	??_GCDlgYScaleSetUp@@UAEPAXI@Z			; CDlgYScaleSetUp::`scalar deleting destructor'
PUBLIC	??1CMultiLanguageResourceSetter@@QAE@XZ		; CMultiLanguageResourceSetter::~CMultiLanguageResourceSetter
PUBLIC	??_C@_00CNPNBAHC@@				; `string'
PUBLIC	??_R0?AVCObject@@@8				; CObject `RTTI Type Descriptor'
PUBLIC	??_R3CObject@@8					; CObject::`RTTI Class Hierarchy Descriptor'
PUBLIC	??_R2CObject@@8					; CObject::`RTTI Base Class Array'
PUBLIC	??_R1A@?0A@EA@CObject@@8			; CObject::`RTTI Base Class Descriptor at (0,-1,0,64)'
PUBLIC	??_R1A@?0A@EA@CWnd@@8				; CWnd::`RTTI Base Class Descriptor at (0,-1,0,64)'
PUBLIC	??_R0?AVCWnd@@@8				; CWnd `RTTI Type Descriptor'
PUBLIC	??_R3CWnd@@8					; CWnd::`RTTI Class Hierarchy Descriptor'
PUBLIC	??_R2CWnd@@8					; CWnd::`RTTI Base Class Array'
PUBLIC	??_R1A@?0A@EA@CCmdTarget@@8			; CCmdTarget::`RTTI Base Class Descriptor at (0,-1,0,64)'
PUBLIC	??_R0?AVCCmdTarget@@@8				; CCmdTarget `RTTI Type Descriptor'
PUBLIC	??_R3CCmdTarget@@8				; CCmdTarget::`RTTI Class Hierarchy Descriptor'
PUBLIC	??_R2CCmdTarget@@8				; CCmdTarget::`RTTI Base Class Array'
PUBLIC	??_R1A@?0A@EA@CDialog@@8			; CDialog::`RTTI Base Class Descriptor at (0,-1,0,64)'
PUBLIC	??_R0?AVCDialog@@@8				; CDialog `RTTI Type Descriptor'
PUBLIC	??_R3CDialog@@8					; CDialog::`RTTI Class Hierarchy Descriptor'
PUBLIC	??_R2CDialog@@8					; CDialog::`RTTI Base Class Array'
PUBLIC	??_7CDlgYScaleSetUp@@6B@			; CDlgYScaleSetUp::`vftable'
PUBLIC	??_C@_0BA@ENJOCHIO@LoadResourceDLL@		; `string'
PUBLIC	??_C@_04GEFJINEE@?$CF?42f@			; `string'
PUBLIC	??_C@_07LGGAIHJM@?$CFd?4?$CF02d@		; `string'
PUBLIC	??_C@_02CHFBLEKP@Pt@				; `string'
PUBLIC	??_C@_01FGNFDNOH@?$CF@				; `string'
PUBLIC	??_C@_03EICDNICE@?$CF?4f@			; `string'
PUBLIC	??_C@_02PJNFELNH@30@				; `string'
PUBLIC	??_C@_03HFIIDKDK@?930@				; `string'
PUBLIC	??_C@_02PNFIDHGF@50@				; `string'
PUBLIC	??_C@_03HBAFEGII@?950@				; `string'
PUBLIC	??_C@_02PONMODAL@70@				; `string'
PUBLIC	??_C@_03HCIBJCOG@?970@				; `string'
PUBLIC	??_C@_03GNABGMEE@100@				; `string'
PUBLIC	??_C@_04LDDGKPPA@?9100@				; `string'
PUBLIC	??_C@_03MDAFIFFL@0?40@				; `string'
PUBLIC	??_R4CDlgYScaleSetUp@@6B@			; CDlgYScaleSetUp::`RTTI Complete Object Locator'
PUBLIC	??_R0?AVCDlgYScaleSetUp@@@8			; CDlgYScaleSetUp `RTTI Type Descriptor'
PUBLIC	??_R3CDlgYScaleSetUp@@8				; CDlgYScaleSetUp::`RTTI Class Hierarchy Descriptor'
PUBLIC	??_R2CDlgYScaleSetUp@@8				; CDlgYScaleSetUp::`RTTI Base Class Array'
PUBLIC	??_R1A@?0A@EA@CDlgYScaleSetUp@@8		; CDlgYScaleSetUp::`RTTI Base Class Descriptor at (0,-1,0,64)'
PUBLIC	__real@403e000000000000
PUBLIC	__real@4049000000000000
PUBLIC	__real@4051800000000000
PUBLIC	__real@4059000000000000
PUBLIC	__real@c03e000000000000
PUBLIC	__real@c049000000000000
PUBLIC	__real@c051800000000000
PUBLIC	__real@c059000000000000
EXTRN	??3@YAXPAX@Z:PROC				; operator delete
EXTRN	?__global_delete@@YAXPAXI@Z:PROC		; __global_delete
EXTRN	___std_terminate:PROC
EXTRN	__imp__GetProcAddress@8:PROC
EXTRN	__imp__mouse_event@20:PROC
EXTRN	__imp__EnableWindow@8:PROC
EXTRN	__imp__GetWindowRect@8:PROC
EXTRN	__imp__atof:PROC
EXTRN	__imp_??0?$CStringT@DV?$StrTraitMFC_DLL@DV?$ChTraitsCRT@D@ATL@@@@@ATL@@QAE@XZ:PROC
EXTRN	__imp_??0?$CStringT@DV?$StrTraitMFC_DLL@DV?$ChTraitsCRT@D@ATL@@@@@ATL@@QAE@ABV01@@Z:PROC
EXTRN	__imp_??1?$CStringT@DV?$StrTraitMFC_DLL@DV?$ChTraitsCRT@D@ATL@@@@@ATL@@QAE@XZ:PROC
EXTRN	__imp_??4?$CStringT@DV?$StrTraitMFC_DLL@DV?$ChTraitsCRT@D@ATL@@@@@ATL@@QAEAAV01@ABV01@@Z:PROC
EXTRN	__imp_??4?$CStringT@DV?$StrTraitMFC_DLL@DV?$ChTraitsCRT@D@ATL@@@@@ATL@@QAEAAV01@PBD@Z:PROC
EXTRN	__imp_?Compare@?$CStringT@DV?$StrTraitMFC_DLL@DV?$ChTraitsCRT@D@ATL@@@@@ATL@@QBEHPBD@Z:PROC
EXTRN	__imp_?Format@?$CStringT@DV?$StrTraitMFC_DLL@DV?$ChTraitsCRT@D@ATL@@@@@ATL@@QAAXPBDZZ:PROC
EXTRN	__imp_?LoadStringA@?$CStringT@DV?$StrTraitMFC_DLL@DV?$ChTraitsCRT@D@ATL@@@@@ATL@@QAEHI@Z:PROC
EXTRN	?AfxGetModuleState@@YGPAVAFX_MODULE_STATE@@XZ:PROC ; AfxGetModuleState
EXTRN	?AfxGetStaticModuleState@@YGPAVAFX_MODULE_STATE@@XZ:PROC ; AfxGetStaticModuleState
EXTRN	?DDX_Text@@YGXPAVCDataExchange@@HAAV?$CStringT@DV?$StrTraitMFC_DLL@DV?$ChTraitsCRT@D@ATL@@@@@ATL@@@Z:PROC ; DDX_Text
EXTRN	?DDX_Radio@@YGXPAVCDataExchange@@HAAH@Z:PROC	; DDX_Radio
EXTRN	?IsInvokeAllowed@CCmdTarget@@UAEHJ@Z:PROC	; CCmdTarget::IsInvokeAllowed
EXTRN	?GetDispatchIID@CCmdTarget@@UAEHPAU_GUID@@@Z:PROC ; CCmdTarget::GetDispatchIID
EXTRN	?GetTypeInfoCount@CCmdTarget@@UAEIXZ:PROC	; CCmdTarget::GetTypeInfoCount
EXTRN	?GetTypeLibCache@CCmdTarget@@UAEPAVCTypeLibCache@@XZ:PROC ; CCmdTarget::GetTypeLibCache
EXTRN	?GetTypeLib@CCmdTarget@@UAEJKPAPAUITypeLib@@@Z:PROC ; CCmdTarget::GetTypeLib
EXTRN	?GetCommandMap@CCmdTarget@@MBEPBUAFX_OLECMDMAP@@XZ:PROC ; CCmdTarget::GetCommandMap
EXTRN	?GetDispatchMap@CCmdTarget@@MBEPBUAFX_DISPMAP@@XZ:PROC ; CCmdTarget::GetDispatchMap
EXTRN	?GetConnectionMap@CCmdTarget@@MBEPBUAFX_CONNECTIONMAP@@XZ:PROC ; CCmdTarget::GetConnectionMap
EXTRN	?GetEventSinkMap@CCmdTarget@@MBEPBUAFX_EVENTSINKMAP@@XZ:PROC ; CCmdTarget::GetEventSinkMap
EXTRN	?OnCreateAggregates@CCmdTarget@@UAEHXZ:PROC	; CCmdTarget::OnCreateAggregates
EXTRN	?GetInterfaceHook@CCmdTarget@@UAEPAUIUnknown@@PBX@Z:PROC ; CCmdTarget::GetInterfaceHook
EXTRN	?GetExtraConnectionPoints@CCmdTarget@@MAEHPAVCPtrArray@@@Z:PROC ; CCmdTarget::GetExtraConnectionPoints
EXTRN	?GetConnectionHook@CCmdTarget@@MAEPAUIConnectionPoint@@ABU_GUID@@@Z:PROC ; CCmdTarget::GetConnectionHook
EXTRN	?PreSubclassWindow@CWnd@@UAEXXZ:PROC		; CWnd::PreSubclassWindow
EXTRN	?Create@CWnd@@UAEHPBD0KABUtagRECT@@PAV1@IPAUCCreateContext@@@Z:PROC ; CWnd::Create
EXTRN	?CreateEx@CWnd@@UAEHKPBD0KHHHHPAUHWND__@@PAUHMENU__@@PAX@Z:PROC ; CWnd::CreateEx
EXTRN	?CreateEx@CWnd@@UAEHKPBD0KABUtagRECT@@PAV1@IPAX@Z:PROC ; CWnd::CreateEx
EXTRN	?DestroyWindow@CWnd@@UAEHXZ:PROC		; CWnd::DestroyWindow
EXTRN	?PreCreateWindow@CWnd@@UAEHAAUtagCREATESTRUCTA@@@Z:PROC ; CWnd::PreCreateWindow
EXTRN	?CalcWindowRect@CWnd@@UAEXPAUtagRECT@@I@Z:PROC	; CWnd::CalcWindowRect
EXTRN	?GetDlgItem@CWnd@@QBEPAV1@H@Z:PROC		; CWnd::GetDlgItem
EXTRN	?SetWindowTextA@CWnd@@QAEXPBD@Z:PROC		; CWnd::SetWindowTextA
EXTRN	?GetMenu@CWnd@@UBEPAVCMenu@@XZ:PROC		; CWnd::GetMenu
EXTRN	?SetMenu@CWnd@@UAEHPAVCMenu@@@Z:PROC		; CWnd::SetMenu
EXTRN	?MoveWindow@CWnd@@QAEXHHHHH@Z:PROC		; CWnd::MoveWindow
EXTRN	?ScreenToClient@CWnd@@QBEXPAUtagRECT@@@Z:PROC	; CWnd::ScreenToClient
EXTRN	?ShowWindow@CWnd@@QAEHH@Z:PROC			; CWnd::ShowWindow
EXTRN	?OnToolHitTest@CWnd@@UBEHVCPoint@@PAUtagTOOLINFOA@@@Z:PROC ; CWnd::OnToolHitTest
EXTRN	?GetScrollBarCtrl@CWnd@@UBEPAVCScrollBar@@H@Z:PROC ; CWnd::GetScrollBarCtrl
EXTRN	?UpdateData@CWnd@@QAEHH@Z:PROC			; CWnd::UpdateData
EXTRN	?WinHelpA@CWnd@@UAEXKI@Z:PROC			; CWnd::WinHelpA
EXTRN	?HtmlHelpA@CWnd@@UAEXKI@Z:PROC			; CWnd::HtmlHelpA
EXTRN	?WinHelpInternal@CWnd@@UAEXKI@Z:PROC		; CWnd::WinHelpInternal
EXTRN	?ContinueModal@CWnd@@UAEHXZ:PROC		; CWnd::ContinueModal
EXTRN	?EndModalLoop@CWnd@@UAEXH@Z:PROC		; CWnd::EndModalLoop
EXTRN	?OnDrawIconicThumbnailOrLivePreview@CWnd@@UAEXAAVCDC@@VCRect@@VCSize@@HAAH@Z:PROC ; CWnd::OnDrawIconicThumbnailOrLivePreview
EXTRN	?GetInterfaceMap@CWnd@@MBEPBUAFX_INTERFACEMAP@@XZ:PROC ; CWnd::GetInterfaceMap
EXTRN	?EnsureStdObj@CWnd@@UAEJXZ:PROC			; CWnd::EnsureStdObj
EXTRN	?get_accParent@CWnd@@UAEJPAPAUIDispatch@@@Z:PROC ; CWnd::get_accParent
EXTRN	?get_accChildCount@CWnd@@UAEJPAJ@Z:PROC		; CWnd::get_accChildCount
EXTRN	?get_accChild@CWnd@@UAEJUtagVARIANT@@PAPAUIDispatch@@@Z:PROC ; CWnd::get_accChild
EXTRN	?get_accName@CWnd@@UAEJUtagVARIANT@@PAPA_W@Z:PROC ; CWnd::get_accName
EXTRN	?get_accValue@CWnd@@UAEJUtagVARIANT@@PAPA_W@Z:PROC ; CWnd::get_accValue
EXTRN	?get_accDescription@CWnd@@UAEJUtagVARIANT@@PAPA_W@Z:PROC ; CWnd::get_accDescription
EXTRN	?get_accRole@CWnd@@UAEJUtagVARIANT@@PAU2@@Z:PROC ; CWnd::get_accRole
EXTRN	?get_accState@CWnd@@UAEJUtagVARIANT@@PAU2@@Z:PROC ; CWnd::get_accState
EXTRN	?get_accHelp@CWnd@@UAEJUtagVARIANT@@PAPA_W@Z:PROC ; CWnd::get_accHelp
EXTRN	?get_accHelpTopic@CWnd@@UAEJPAPA_WUtagVARIANT@@PAJ@Z:PROC ; CWnd::get_accHelpTopic
EXTRN	?get_accKeyboardShortcut@CWnd@@UAEJUtagVARIANT@@PAPA_W@Z:PROC ; CWnd::get_accKeyboardShortcut
EXTRN	?get_accFocus@CWnd@@UAEJPAUtagVARIANT@@@Z:PROC	; CWnd::get_accFocus
EXTRN	?get_accSelection@CWnd@@UAEJPAUtagVARIANT@@@Z:PROC ; CWnd::get_accSelection
EXTRN	?get_accDefaultAction@CWnd@@UAEJUtagVARIANT@@PAPA_W@Z:PROC ; CWnd::get_accDefaultAction
EXTRN	?accSelect@CWnd@@UAEJJUtagVARIANT@@@Z:PROC	; CWnd::accSelect
EXTRN	?accLocation@CWnd@@UAEJPAJ000UtagVARIANT@@@Z:PROC ; CWnd::accLocation
EXTRN	?accNavigate@CWnd@@UAEJJUtagVARIANT@@PAU2@@Z:PROC ; CWnd::accNavigate
EXTRN	?accHitTest@CWnd@@UAEJJJPAUtagVARIANT@@@Z:PROC	; CWnd::accHitTest
EXTRN	?accDoDefaultAction@CWnd@@UAEJUtagVARIANT@@@Z:PROC ; CWnd::accDoDefaultAction
EXTRN	?put_accName@CWnd@@UAEJUtagVARIANT@@PA_W@Z:PROC	; CWnd::put_accName
EXTRN	?put_accValue@CWnd@@UAEJUtagVARIANT@@PA_W@Z:PROC ; CWnd::put_accValue
EXTRN	?SetProxy@CWnd@@UAEJPAUIAccessibleProxy@@@Z:PROC ; CWnd::SetProxy
EXTRN	?CreateAccessibleProxy@CWnd@@UAEJIJPAJ@Z:PROC	; CWnd::CreateAccessibleProxy
EXTRN	?OnCommand@CWnd@@MAEHIJ@Z:PROC			; CWnd::OnCommand
EXTRN	?OnNotify@CWnd@@MAEHIJPAJ@Z:PROC		; CWnd::OnNotify
EXTRN	?GetSuperWndProcAddr@CWnd@@MAEPAP6GJPAUHWND__@@IIJ@ZXZ:PROC ; CWnd::GetSuperWndProcAddr
EXTRN	?OnAmbientProperty@CWnd@@UAEHPAVCOleControlSite@@JPAUtagVARIANT@@@Z:PROC ; CWnd::OnAmbientProperty
EXTRN	?WindowProc@CWnd@@MAEJIIJ@Z:PROC		; CWnd::WindowProc
EXTRN	?OnWndMsg@CWnd@@MAEHIIJPAJ@Z:PROC		; CWnd::OnWndMsg
EXTRN	?DefWindowProcA@CWnd@@MAEJIIJ@Z:PROC		; CWnd::DefWindowProcA
EXTRN	?PostNcDestroy@CWnd@@MAEXXZ:PROC		; CWnd::PostNcDestroy
EXTRN	?OnChildNotify@CWnd@@MAEHIIJPAJ@Z:PROC		; CWnd::OnChildNotify
EXTRN	?OnTouchInputs@CWnd@@MAEHIPAUtagTOUCHINPUT@@@Z:PROC ; CWnd::OnTouchInputs
EXTRN	?OnTouchInput@CWnd@@MAEHVCPoint@@HHPAUtagTOUCHINPUT@@@Z:PROC ; CWnd::OnTouchInput
EXTRN	?GetGestureStatus@CWnd@@MAEKVCPoint@@@Z:PROC	; CWnd::GetGestureStatus
EXTRN	?OnGestureZoom@CWnd@@MAEHVCPoint@@J@Z:PROC	; CWnd::OnGestureZoom
EXTRN	?OnGesturePan@CWnd@@MAEHVCPoint@@0@Z:PROC	; CWnd::OnGesturePan
EXTRN	?OnGestureRotate@CWnd@@MAEHVCPoint@@N@Z:PROC	; CWnd::OnGestureRotate
EXTRN	?OnGestureTwoFingerTap@CWnd@@MAEHVCPoint@@@Z:PROC ; CWnd::OnGestureTwoFingerTap
EXTRN	?OnGesturePressAndTap@CWnd@@MAEHVCPoint@@J@Z:PROC ; CWnd::OnGesturePressAndTap
EXTRN	?ResizeDynamicLayout@CWnd@@MAEXXZ:PROC		; CWnd::ResizeDynamicLayout
EXTRN	?IsFrameWnd@CWnd@@UBEHXZ:PROC			; CWnd::IsFrameWnd
EXTRN	?OnFinalRelease@CWnd@@UAEXXZ:PROC		; CWnd::OnFinalRelease
EXTRN	?CreateControlContainer@CWnd@@MAEHPAPAVCOleControlContainer@@@Z:PROC ; CWnd::CreateControlContainer
EXTRN	?CreateControlSite@CWnd@@MAEHPAVCOleControlContainer@@PAPAVCOleControlSite@@IABU_GUID@@@Z:PROC ; CWnd::CreateControlSite
EXTRN	?GetRuntimeClass@CDialog@@UBEPAUCRuntimeClass@@XZ:PROC ; CDialog::GetRuntimeClass
EXTRN	?Create@CDialog@@UAEHPBDPAVCWnd@@@Z:PROC	; CDialog::Create
EXTRN	?CreateIndirect@CDialog@@UAEHPBUDLGTEMPLATE@@PAVCWnd@@PAX@Z:PROC ; CDialog::CreateIndirect
EXTRN	?CreateIndirect@CDialog@@UAEHPAXPAVCWnd@@@Z:PROC ; CDialog::CreateIndirect
EXTRN	??0CDialog@@QAE@IPAVCWnd@@@Z:PROC		; CDialog::CDialog
EXTRN	?DoModal@CDialog@@UAEHXZ:PROC			; CDialog::DoModal
EXTRN	?OnInitDialog@CDialog@@UAEHXZ:PROC		; CDialog::OnInitDialog
EXTRN	?OnSetFont@CDialog@@UAEXPAVCFont@@@Z:PROC	; CDialog::OnSetFont
EXTRN	?OnOK@CDialog@@MAEXXZ:PROC			; CDialog::OnOK
EXTRN	?OnCancel@CDialog@@MAEXXZ:PROC			; CDialog::OnCancel
EXTRN	??1CDialog@@UAE@XZ:PROC				; CDialog::~CDialog
EXTRN	?PreTranslateMessage@CDialog@@UAEHPAUtagMSG@@@Z:PROC ; CDialog::PreTranslateMessage
EXTRN	?OnCmdMsg@CDialog@@UAEHIHPAXPAUAFX_CMDHANDLERINFO@@@Z:PROC ; CDialog::OnCmdMsg
EXTRN	?CheckAutoCenter@CDialog@@UAEHXZ:PROC		; CDialog::CheckAutoCenter
EXTRN	?SetOccDialogInfo@CDialog@@MAEHPAU_AFX_OCC_DIALOG_INFO@@@Z:PROC ; CDialog::SetOccDialogInfo
EXTRN	?GetOccDialogInfo@CDialog@@MAEPAU_AFX_OCC_DIALOG_INFO@@XZ:PROC ; CDialog::GetOccDialogInfo
EXTRN	?PreInitDialog@CDialog@@MAEXXZ:PROC		; CDialog::PreInitDialog
EXTRN	?GetThisMessageMap@CDialog@@KGPBUAFX_MSGMAP@@XZ:PROC ; CDialog::GetThisMessageMap
EXTRN	?SetYScaleAllValue@CYScaleSetUpAddInImp@@QAEXHNNNN@Z:PROC ; CYScaleSetUpAddInImp::SetYScaleAllValue
EXTRN	??_ECDlgYScaleSetUp@@UAEPAXI@Z:PROC		; CDlgYScaleSetUp::`vector deleting destructor'
EXTRN	?DoubleToString@CDataConversion@@SA?AV?$CStringT@DV?$StrTraitMFC_DLL@DV?$ChTraitsCRT@D@ATL@@@@@ATL@@ABNABV23@@Z:PROC ; CDataConversion::DoubleToString
EXTRN	?GetDataToDec@CDataConversion@@SAHV?$CStringT@DV?$StrTraitMFC_DLL@DV?$ChTraitsCRT@D@ATL@@@@@ATL@@0AAV23@@Z:PROC ; CDataConversion::GetDataToDec
EXTRN	@__security_check_cookie@4:PROC
EXTRN	___CxxFrameHandler3:PROC
EXTRN	??_7type_info@@6B@:QWORD			; type_info::`vftable'
EXTRN	?g_iMetaTable@@3VIMetaTable@@A:BYTE		; g_iMetaTable
EXTRN	___security_cookie:DWORD
EXTRN	__fltused:DWORD
;	COMDAT __real@c059000000000000
CONST	SEGMENT
__real@c059000000000000 DQ 0c059000000000000r	; -100
CONST	ENDS
;	COMDAT __real@c051800000000000
CONST	SEGMENT
__real@c051800000000000 DQ 0c051800000000000r	; -70
CONST	ENDS
;	COMDAT __real@c049000000000000
CONST	SEGMENT
__real@c049000000000000 DQ 0c049000000000000r	; -50
CONST	ENDS
;	COMDAT __real@c03e000000000000
CONST	SEGMENT
__real@c03e000000000000 DQ 0c03e000000000000r	; -30
CONST	ENDS
;	COMDAT __real@4059000000000000
CONST	SEGMENT
__real@4059000000000000 DQ 04059000000000000r	; 100
CONST	ENDS
;	COMDAT __real@4051800000000000
CONST	SEGMENT
__real@4051800000000000 DQ 04051800000000000r	; 70
CONST	ENDS
;	COMDAT __real@4049000000000000
CONST	SEGMENT
__real@4049000000000000 DQ 04049000000000000r	; 50
CONST	ENDS
;	COMDAT __real@403e000000000000
CONST	SEGMENT
__real@403e000000000000 DQ 0403e000000000000r	; 30
CONST	ENDS
;	COMDAT ??_R1A@?0A@EA@CDlgYScaleSetUp@@8
rdata$r	SEGMENT
??_R1A@?0A@EA@CDlgYScaleSetUp@@8 DD FLAT:??_R0?AVCDlgYScaleSetUp@@@8 ; CDlgYScaleSetUp::`RTTI Base Class Descriptor at (0,-1,0,64)'
	DD	04H
	DD	00H
	DD	0ffffffffH
	DD	00H
	DD	040H
	DD	FLAT:??_R3CDlgYScaleSetUp@@8
rdata$r	ENDS
;	COMDAT ??_R2CDlgYScaleSetUp@@8
rdata$r	SEGMENT
??_R2CDlgYScaleSetUp@@8 DD FLAT:??_R1A@?0A@EA@CDlgYScaleSetUp@@8 ; CDlgYScaleSetUp::`RTTI Base Class Array'
	DD	FLAT:??_R1A@?0A@EA@CDialog@@8
	DD	FLAT:??_R1A@?0A@EA@CWnd@@8
	DD	FLAT:??_R1A@?0A@EA@CCmdTarget@@8
	DD	FLAT:??_R1A@?0A@EA@CObject@@8
rdata$r	ENDS
;	COMDAT ??_R3CDlgYScaleSetUp@@8
rdata$r	SEGMENT
??_R3CDlgYScaleSetUp@@8 DD 00H				; CDlgYScaleSetUp::`RTTI Class Hierarchy Descriptor'
	DD	00H
	DD	05H
	DD	FLAT:??_R2CDlgYScaleSetUp@@8
rdata$r	ENDS
;	COMDAT ??_R0?AVCDlgYScaleSetUp@@@8
data$rs	SEGMENT
??_R0?AVCDlgYScaleSetUp@@@8 DD FLAT:??_7type_info@@6B@	; CDlgYScaleSetUp `RTTI Type Descriptor'
	DD	00H
	DB	'.?AVCDlgYScaleSetUp@@', 00H
data$rs	ENDS
;	COMDAT ??_R4CDlgYScaleSetUp@@6B@
rdata$r	SEGMENT
??_R4CDlgYScaleSetUp@@6B@ DD 00H			; CDlgYScaleSetUp::`RTTI Complete Object Locator'
	DD	00H
	DD	00H
	DD	FLAT:??_R0?AVCDlgYScaleSetUp@@@8
	DD	FLAT:??_R3CDlgYScaleSetUp@@8
rdata$r	ENDS
;	COMDAT ??_C@_03MDAFIFFL@0?40@
CONST	SEGMENT
??_C@_03MDAFIFFL@0?40@ DB '0.0', 00H			; `string'
CONST	ENDS
;	COMDAT ??_C@_04LDDGKPPA@?9100@
CONST	SEGMENT
??_C@_04LDDGKPPA@?9100@ DB '-100', 00H			; `string'
CONST	ENDS
;	COMDAT ??_C@_03GNABGMEE@100@
CONST	SEGMENT
??_C@_03GNABGMEE@100@ DB '100', 00H			; `string'
CONST	ENDS
;	COMDAT ??_C@_03HCIBJCOG@?970@
CONST	SEGMENT
??_C@_03HCIBJCOG@?970@ DB '-70', 00H			; `string'
CONST	ENDS
;	COMDAT ??_C@_02PONMODAL@70@
CONST	SEGMENT
??_C@_02PONMODAL@70@ DB '70', 00H			; `string'
CONST	ENDS
;	COMDAT ??_C@_03HBAFEGII@?950@
CONST	SEGMENT
??_C@_03HBAFEGII@?950@ DB '-50', 00H			; `string'
CONST	ENDS
;	COMDAT ??_C@_02PNFIDHGF@50@
CONST	SEGMENT
??_C@_02PNFIDHGF@50@ DB '50', 00H			; `string'
CONST	ENDS
;	COMDAT ??_C@_03HFIIDKDK@?930@
CONST	SEGMENT
??_C@_03HFIIDKDK@?930@ DB '-30', 00H			; `string'
CONST	ENDS
;	COMDAT ??_C@_02PJNFELNH@30@
CONST	SEGMENT
??_C@_02PJNFELNH@30@ DB '30', 00H			; `string'
CONST	ENDS
;	COMDAT ??_C@_03EICDNICE@?$CF?4f@
CONST	SEGMENT
??_C@_03EICDNICE@?$CF?4f@ DB '%.f', 00H			; `string'
CONST	ENDS
;	COMDAT ??_C@_01FGNFDNOH@?$CF@
CONST	SEGMENT
??_C@_01FGNFDNOH@?$CF@ DB '%', 00H			; `string'
CONST	ENDS
;	COMDAT ??_C@_02CHFBLEKP@Pt@
CONST	SEGMENT
??_C@_02CHFBLEKP@Pt@ DB 'Pt', 00H			; `string'
CONST	ENDS
;	COMDAT ??_C@_07LGGAIHJM@?$CFd?4?$CF02d@
CONST	SEGMENT
??_C@_07LGGAIHJM@?$CFd?4?$CF02d@ DB '%d.%02d', 00H	; `string'
CONST	ENDS
;	COMDAT ??_C@_04GEFJINEE@?$CF?42f@
CONST	SEGMENT
??_C@_04GEFJINEE@?$CF?42f@ DB '%.2f', 00H		; `string'
CONST	ENDS
;	COMDAT ?messageMap@?1??GetThisMessageMap@CDlgYScaleSetUp@@KGPBUAFX_MSGMAP@@XZ@4U3@B
CONST	SEGMENT
?messageMap@?1??GetThisMessageMap@CDlgYScaleSetUp@@KGPBUAFX_MSGMAP@@XZ@4U3@B DD FLAT:?GetThisMessageMap@CDialog@@KGPBUAFX_MSGMAP@@XZ ; `CDlgYScaleSetUp::GetThisMessageMap'::`2'::messageMap
	DD	FLAT:?_messageEntries@?1??GetThisMessageMap@CDlgYScaleSetUp@@KGPBUAFX_MSGMAP@@XZ@4QBUAFX_MSGMAP_ENTRY@@B
CONST	ENDS
;	COMDAT ?_messageEntries@?1??GetThisMessageMap@CDlgYScaleSetUp@@KGPBUAFX_MSGMAP@@XZ@4QBUAFX_MSGMAP_ENTRY@@B
CONST	SEGMENT
?_messageEntries@?1??GetThisMessageMap@CDlgYScaleSetUp@@KGPBUAFX_MSGMAP@@XZ@4QBUAFX_MSGMAP_ENTRY@@B DD 0111H ; `CDlgYScaleSetUp::GetThisMessageMap'::`2'::_messageEntries
	DD	00H
	DD	05dc0H
	DD	05dc0H
	DD	03aH
	DD	FLAT:?OnUseSetupValue@CDlgYScaleSetUp@@IAEXXZ
	DD	0111H
	DD	00H
	DD	05dc1H
	DD	05dc1H
	DD	03aH
	DD	FLAT:?OnUsePercent@CDlgYScaleSetUp@@IAEXXZ
	DD	0111H
	DD	00H
	DD	05dc2H
	DD	05dc2H
	DD	03aH
	DD	FLAT:?On30Percent@CDlgYScaleSetUp@@IAEXXZ
	DD	0111H
	DD	00H
	DD	05dc3H
	DD	05dc3H
	DD	03aH
	DD	FLAT:?On50Percent@CDlgYScaleSetUp@@IAEXXZ
	DD	0111H
	DD	00H
	DD	05dc4H
	DD	05dc4H
	DD	03aH
	DD	FLAT:?On70Percent@CDlgYScaleSetUp@@IAEXXZ
	DD	0111H
	DD	00H
	DD	05dc5H
	DD	05dc5H
	DD	03aH
	DD	FLAT:?On100Percent@CDlgYScaleSetUp@@IAEXXZ
	DD	0111H
	DD	0300H
	DD	05dc7H
	DD	05dc7H
	DD	03aH
	DD	FLAT:?OnChangeMaxPriceEdit@CDlgYScaleSetUp@@IAEXXZ
	DD	0111H
	DD	0300H
	DD	0d9H
	DD	0d9H
	DD	03aH
	DD	FLAT:?OnChangeMinPriceEdit@CDlgYScaleSetUp@@IAEXXZ
	DD	00H
	DD	00H
	DD	00H
	DD	00H
	DD	00H
	DD	00H
CONST	ENDS
;	COMDAT ??_C@_0BA@ENJOCHIO@LoadResourceDLL@
CONST	SEGMENT
??_C@_0BA@ENJOCHIO@LoadResourceDLL@ DB 'LoadResourceDLL', 00H ; `string'
CONST	ENDS
;	COMDAT ??_7CDlgYScaleSetUp@@6B@
CONST	SEGMENT
??_7CDlgYScaleSetUp@@6B@ DD FLAT:??_R4CDlgYScaleSetUp@@6B@ ; CDlgYScaleSetUp::`vftable'
	DD	FLAT:?GetRuntimeClass@CDialog@@UBEPAUCRuntimeClass@@XZ
	DD	FLAT:??_ECDlgYScaleSetUp@@UAEPAXI@Z
	DD	FLAT:?Serialize@CObject@@UAEXAAVCArchive@@@Z
	DD	FLAT:?AssertValid@CObject@@UBEXXZ
	DD	FLAT:?Dump@CObject@@UBEXAAVCDumpContext@@@Z
	DD	FLAT:?OnCmdMsg@CDialog@@UAEHIHPAXPAUAFX_CMDHANDLERINFO@@@Z
	DD	FLAT:?OnFinalRelease@CWnd@@UAEXXZ
	DD	FLAT:?IsInvokeAllowed@CCmdTarget@@UAEHJ@Z
	DD	FLAT:?GetDispatchIID@CCmdTarget@@UAEHPAU_GUID@@@Z
	DD	FLAT:?GetTypeInfoCount@CCmdTarget@@UAEIXZ
	DD	FLAT:?GetTypeLibCache@CCmdTarget@@UAEPAVCTypeLibCache@@XZ
	DD	FLAT:?GetTypeLib@CCmdTarget@@UAEJKPAPAUITypeLib@@@Z
	DD	FLAT:?GetMessageMap@CDlgYScaleSetUp@@MBEPBUAFX_MSGMAP@@XZ
	DD	FLAT:?GetCommandMap@CCmdTarget@@MBEPBUAFX_OLECMDMAP@@XZ
	DD	FLAT:?GetDispatchMap@CCmdTarget@@MBEPBUAFX_DISPMAP@@XZ
	DD	FLAT:?GetConnectionMap@CCmdTarget@@MBEPBUAFX_CONNECTIONMAP@@XZ
	DD	FLAT:?GetInterfaceMap@CWnd@@MBEPBUAFX_INTERFACEMAP@@XZ
	DD	FLAT:?GetEventSinkMap@CCmdTarget@@MBEPBUAFX_EVENTSINKMAP@@XZ
	DD	FLAT:?OnCreateAggregates@CCmdTarget@@UAEHXZ
	DD	FLAT:?GetInterfaceHook@CCmdTarget@@UAEPAUIUnknown@@PBX@Z
	DD	FLAT:?GetExtraConnectionPoints@CCmdTarget@@MAEHPAVCPtrArray@@@Z
	DD	FLAT:?GetConnectionHook@CCmdTarget@@MAEPAUIConnectionPoint@@ABU_GUID@@@Z
	DD	FLAT:?PreSubclassWindow@CWnd@@UAEXXZ
	DD	FLAT:?Create@CWnd@@UAEHPBD0KABUtagRECT@@PAV1@IPAUCCreateContext@@@Z
	DD	FLAT:?CreateEx@CWnd@@UAEHKPBD0KABUtagRECT@@PAV1@IPAX@Z
	DD	FLAT:?CreateEx@CWnd@@UAEHKPBD0KHHHHPAUHWND__@@PAUHMENU__@@PAX@Z
	DD	FLAT:?DestroyWindow@CWnd@@UAEHXZ
	DD	FLAT:?PreCreateWindow@CWnd@@UAEHAAUtagCREATESTRUCTA@@@Z
	DD	FLAT:?CalcWindowRect@CWnd@@UAEXPAUtagRECT@@I@Z
	DD	FLAT:?GetMenu@CWnd@@UBEPAVCMenu@@XZ
	DD	FLAT:?SetMenu@CWnd@@UAEHPAVCMenu@@@Z
	DD	FLAT:?OnToolHitTest@CWnd@@UBEHVCPoint@@PAUtagTOOLINFOA@@@Z
	DD	FLAT:?GetScrollBarCtrl@CWnd@@UBEPAVCScrollBar@@H@Z
	DD	FLAT:?WinHelpA@CWnd@@UAEXKI@Z
	DD	FLAT:?HtmlHelpA@CWnd@@UAEXKI@Z
	DD	FLAT:?WinHelpInternal@CWnd@@UAEXKI@Z
	DD	FLAT:?ContinueModal@CWnd@@UAEHXZ
	DD	FLAT:?EndModalLoop@CWnd@@UAEXH@Z
	DD	FLAT:?OnDrawIconicThumbnailOrLivePreview@CWnd@@UAEXAAVCDC@@VCRect@@VCSize@@HAAH@Z
	DD	FLAT:?EnsureStdObj@CWnd@@UAEJXZ
	DD	FLAT:?get_accParent@CWnd@@UAEJPAPAUIDispatch@@@Z
	DD	FLAT:?get_accChildCount@CWnd@@UAEJPAJ@Z
	DD	FLAT:?get_accChild@CWnd@@UAEJUtagVARIANT@@PAPAUIDispatch@@@Z
	DD	FLAT:?get_accName@CWnd@@UAEJUtagVARIANT@@PAPA_W@Z
	DD	FLAT:?get_accValue@CWnd@@UAEJUtagVARIANT@@PAPA_W@Z
	DD	FLAT:?get_accDescription@CWnd@@UAEJUtagVARIANT@@PAPA_W@Z
	DD	FLAT:?get_accRole@CWnd@@UAEJUtagVARIANT@@PAU2@@Z
	DD	FLAT:?get_accState@CWnd@@UAEJUtagVARIANT@@PAU2@@Z
	DD	FLAT:?get_accHelp@CWnd@@UAEJUtagVARIANT@@PAPA_W@Z
	DD	FLAT:?get_accHelpTopic@CWnd@@UAEJPAPA_WUtagVARIANT@@PAJ@Z
	DD	FLAT:?get_accKeyboardShortcut@CWnd@@UAEJUtagVARIANT@@PAPA_W@Z
	DD	FLAT:?get_accFocus@CWnd@@UAEJPAUtagVARIANT@@@Z
	DD	FLAT:?get_accSelection@CWnd@@UAEJPAUtagVARIANT@@@Z
	DD	FLAT:?get_accDefaultAction@CWnd@@UAEJUtagVARIANT@@PAPA_W@Z
	DD	FLAT:?accSelect@CWnd@@UAEJJUtagVARIANT@@@Z
	DD	FLAT:?accLocation@CWnd@@UAEJPAJ000UtagVARIANT@@@Z
	DD	FLAT:?accNavigate@CWnd@@UAEJJUtagVARIANT@@PAU2@@Z
	DD	FLAT:?accHitTest@CWnd@@UAEJJJPAUtagVARIANT@@@Z
	DD	FLAT:?accDoDefaultAction@CWnd@@UAEJUtagVARIANT@@@Z
	DD	FLAT:?put_accName@CWnd@@UAEJUtagVARIANT@@PA_W@Z
	DD	FLAT:?put_accValue@CWnd@@UAEJUtagVARIANT@@PA_W@Z
	DD	FLAT:?SetProxy@CWnd@@UAEJPAUIAccessibleProxy@@@Z
	DD	FLAT:?CreateAccessibleProxy@CWnd@@UAEJIJPAJ@Z
	DD	FLAT:?OnCommand@CWnd@@MAEHIJ@Z
	DD	FLAT:?OnNotify@CWnd@@MAEHIJPAJ@Z
	DD	FLAT:?GetSuperWndProcAddr@CWnd@@MAEPAP6GJPAUHWND__@@IIJ@ZXZ
	DD	FLAT:?DoDataExchange@CDlgYScaleSetUp@@MAEXPAVCDataExchange@@@Z
	DD	FLAT:?BeginModalState@CWnd@@UAEXXZ
	DD	FLAT:?EndModalState@CWnd@@UAEXXZ
	DD	FLAT:?PreTranslateMessage@CDialog@@UAEHPAUtagMSG@@@Z
	DD	FLAT:?OnAmbientProperty@CWnd@@UAEHPAVCOleControlSite@@JPAUtagVARIANT@@@Z
	DD	FLAT:?WindowProc@CWnd@@MAEJIIJ@Z
	DD	FLAT:?OnWndMsg@CWnd@@MAEHIIJPAJ@Z
	DD	FLAT:?DefWindowProcA@CWnd@@MAEJIIJ@Z
	DD	FLAT:?PostNcDestroy@CWnd@@MAEXXZ
	DD	FLAT:?OnChildNotify@CWnd@@MAEHIIJPAJ@Z
	DD	FLAT:?OnTouchInputs@CWnd@@MAEHIPAUtagTOUCHINPUT@@@Z
	DD	FLAT:?OnTouchInput@CWnd@@MAEHVCPoint@@HHPAUtagTOUCHINPUT@@@Z
	DD	FLAT:?GetGestureStatus@CWnd@@MAEKVCPoint@@@Z
	DD	FLAT:?OnGestureZoom@CWnd@@MAEHVCPoint@@J@Z
	DD	FLAT:?OnGesturePan@CWnd@@MAEHVCPoint@@0@Z
	DD	FLAT:?OnGestureRotate@CWnd@@MAEHVCPoint@@N@Z
	DD	FLAT:?OnGestureTwoFingerTap@CWnd@@MAEHVCPoint@@@Z
	DD	FLAT:?OnGesturePressAndTap@CWnd@@MAEHVCPoint@@J@Z
	DD	FLAT:?ResizeDynamicLayout@CWnd@@MAEXXZ
	DD	FLAT:?CheckAutoCenter@CDialog@@UAEHXZ
	DD	FLAT:?IsFrameWnd@CWnd@@UBEHXZ
	DD	FLAT:?CreateControlContainer@CWnd@@MAEHPAPAVCOleControlContainer@@@Z
	DD	FLAT:?CreateControlSite@CWnd@@MAEHPAVCOleControlContainer@@PAPAVCOleControlSite@@IABU_GUID@@@Z
	DD	FLAT:?SetOccDialogInfo@CDialog@@MAEHPAU_AFX_OCC_DIALOG_INFO@@@Z
	DD	FLAT:?GetOccDialogInfo@CDialog@@MAEPAU_AFX_OCC_DIALOG_INFO@@XZ
	DD	FLAT:?Create@CDialog@@UAEHIPAVCWnd@@@Z
	DD	FLAT:?Create@CDialog@@UAEHPBDPAVCWnd@@@Z
	DD	FLAT:?CreateIndirect@CDialog@@UAEHPAXPAVCWnd@@@Z
	DD	FLAT:?CreateIndirect@CDialog@@UAEHPBUDLGTEMPLATE@@PAVCWnd@@PAX@Z
	DD	FLAT:?DoModal@CDialog@@UAEHXZ
	DD	FLAT:?OnInitDialog@CDlgYScaleSetUp@@MAEHXZ
	DD	FLAT:?OnSetFont@CDialog@@UAEXPAVCFont@@@Z
	DD	FLAT:?OnOK@CDlgYScaleSetUp@@MAEXXZ
	DD	FLAT:?OnCancel@CDlgYScaleSetUp@@MAEXXZ
	DD	FLAT:?PreInitDialog@CDialog@@MAEXXZ
CONST	ENDS
;	COMDAT ??_R2CDialog@@8
rdata$r	SEGMENT
??_R2CDialog@@8 DD FLAT:??_R1A@?0A@EA@CDialog@@8	; CDialog::`RTTI Base Class Array'
	DD	FLAT:??_R1A@?0A@EA@CWnd@@8
	DD	FLAT:??_R1A@?0A@EA@CCmdTarget@@8
	DD	FLAT:??_R1A@?0A@EA@CObject@@8
rdata$r	ENDS
;	COMDAT ??_R3CDialog@@8
rdata$r	SEGMENT
??_R3CDialog@@8 DD 00H					; CDialog::`RTTI Class Hierarchy Descriptor'
	DD	00H
	DD	04H
	DD	FLAT:??_R2CDialog@@8
rdata$r	ENDS
;	COMDAT ??_R0?AVCDialog@@@8
data$rs	SEGMENT
??_R0?AVCDialog@@@8 DD FLAT:??_7type_info@@6B@		; CDialog `RTTI Type Descriptor'
	DD	00H
	DB	'.?AVCDialog@@', 00H
data$rs	ENDS
;	COMDAT ??_R1A@?0A@EA@CDialog@@8
rdata$r	SEGMENT
??_R1A@?0A@EA@CDialog@@8 DD FLAT:??_R0?AVCDialog@@@8	; CDialog::`RTTI Base Class Descriptor at (0,-1,0,64)'
	DD	03H
	DD	00H
	DD	0ffffffffH
	DD	00H
	DD	040H
	DD	FLAT:??_R3CDialog@@8
rdata$r	ENDS
;	COMDAT ??_R2CCmdTarget@@8
rdata$r	SEGMENT
??_R2CCmdTarget@@8 DD FLAT:??_R1A@?0A@EA@CCmdTarget@@8	; CCmdTarget::`RTTI Base Class Array'
	DD	FLAT:??_R1A@?0A@EA@CObject@@8
rdata$r	ENDS
;	COMDAT ??_R3CCmdTarget@@8
rdata$r	SEGMENT
??_R3CCmdTarget@@8 DD 00H				; CCmdTarget::`RTTI Class Hierarchy Descriptor'
	DD	00H
	DD	02H
	DD	FLAT:??_R2CCmdTarget@@8
rdata$r	ENDS
;	COMDAT ??_R0?AVCCmdTarget@@@8
data$rs	SEGMENT
??_R0?AVCCmdTarget@@@8 DD FLAT:??_7type_info@@6B@	; CCmdTarget `RTTI Type Descriptor'
	DD	00H
	DB	'.?AVCCmdTarget@@', 00H
data$rs	ENDS
;	COMDAT ??_R1A@?0A@EA@CCmdTarget@@8
rdata$r	SEGMENT
??_R1A@?0A@EA@CCmdTarget@@8 DD FLAT:??_R0?AVCCmdTarget@@@8 ; CCmdTarget::`RTTI Base Class Descriptor at (0,-1,0,64)'
	DD	01H
	DD	00H
	DD	0ffffffffH
	DD	00H
	DD	040H
	DD	FLAT:??_R3CCmdTarget@@8
rdata$r	ENDS
;	COMDAT ??_R2CWnd@@8
rdata$r	SEGMENT
??_R2CWnd@@8 DD	FLAT:??_R1A@?0A@EA@CWnd@@8		; CWnd::`RTTI Base Class Array'
	DD	FLAT:??_R1A@?0A@EA@CCmdTarget@@8
	DD	FLAT:??_R1A@?0A@EA@CObject@@8
rdata$r	ENDS
;	COMDAT ??_R3CWnd@@8
rdata$r	SEGMENT
??_R3CWnd@@8 DD	00H					; CWnd::`RTTI Class Hierarchy Descriptor'
	DD	00H
	DD	03H
	DD	FLAT:??_R2CWnd@@8
rdata$r	ENDS
;	COMDAT ??_R0?AVCWnd@@@8
data$rs	SEGMENT
??_R0?AVCWnd@@@8 DD FLAT:??_7type_info@@6B@		; CWnd `RTTI Type Descriptor'
	DD	00H
	DB	'.?AVCWnd@@', 00H
data$rs	ENDS
;	COMDAT ??_R1A@?0A@EA@CWnd@@8
rdata$r	SEGMENT
??_R1A@?0A@EA@CWnd@@8 DD FLAT:??_R0?AVCWnd@@@8		; CWnd::`RTTI Base Class Descriptor at (0,-1,0,64)'
	DD	02H
	DD	00H
	DD	0ffffffffH
	DD	00H
	DD	040H
	DD	FLAT:??_R3CWnd@@8
rdata$r	ENDS
;	COMDAT ??_R1A@?0A@EA@CObject@@8
rdata$r	SEGMENT
??_R1A@?0A@EA@CObject@@8 DD FLAT:??_R0?AVCObject@@@8	; CObject::`RTTI Base Class Descriptor at (0,-1,0,64)'
	DD	00H
	DD	00H
	DD	0ffffffffH
	DD	00H
	DD	040H
	DD	FLAT:??_R3CObject@@8
rdata$r	ENDS
;	COMDAT ??_R2CObject@@8
rdata$r	SEGMENT
??_R2CObject@@8 DD FLAT:??_R1A@?0A@EA@CObject@@8	; CObject::`RTTI Base Class Array'
rdata$r	ENDS
;	COMDAT ??_R3CObject@@8
rdata$r	SEGMENT
??_R3CObject@@8 DD 00H					; CObject::`RTTI Class Hierarchy Descriptor'
	DD	00H
	DD	01H
	DD	FLAT:??_R2CObject@@8
rdata$r	ENDS
;	COMDAT ??_R0?AVCObject@@@8
data$rs	SEGMENT
??_R0?AVCObject@@@8 DD FLAT:??_7type_info@@6B@		; CObject `RTTI Type Descriptor'
	DD	00H
	DB	'.?AVCObject@@', 00H
data$rs	ENDS
;	COMDAT ??_C@_00CNPNBAHC@@
CONST	SEGMENT
??_C@_00CNPNBAHC@@ DB 00H				; `string'
CONST	ENDS
;	COMDAT xdata$x
xdata$x	SEGMENT
__ehfuncinfo$??1CMultiLanguageResourceSetter@@QAE@XZ DD 019930522H
	DD	00H
	DD	00H
	DD	2 DUP(00H)
	DD	2 DUP(00H)
	DD	00H
	DD	05H
xdata$x	ENDS
;	COMDAT xdata$x
xdata$x	SEGMENT
__unwindtable$?OnOK@CDlgYScaleSetUp@@MAEXXZ DD 0ffffffffH
	DD	FLAT:__unwindfunclet$?OnOK@CDlgYScaleSetUp@@MAEXXZ$0
	DD	00H
	DD	FLAT:__unwindfunclet$?OnOK@CDlgYScaleSetUp@@MAEXXZ$1
	DD	01H
	DD	FLAT:__unwindfunclet$?OnOK@CDlgYScaleSetUp@@MAEXXZ$2
	DD	01H
	DD	FLAT:__unwindfunclet$?OnOK@CDlgYScaleSetUp@@MAEXXZ$4
__ehfuncinfo$?OnOK@CDlgYScaleSetUp@@MAEXXZ DD 019930522H
	DD	04H
	DD	FLAT:__unwindtable$?OnOK@CDlgYScaleSetUp@@MAEXXZ
	DD	2 DUP(00H)
	DD	2 DUP(00H)
	DD	00H
	DD	01H
xdata$x	ENDS
;	COMDAT xdata$x
xdata$x	SEGMENT
__ehfuncinfo$?OnUseSetupValue@CDlgYScaleSetUp@@IAEXXZ DD 019930522H
	DD	05H
	DD	FLAT:__unwindtable$?OnUseSetupValue@CDlgYScaleSetUp@@IAEXXZ
	DD	2 DUP(00H)
	DD	2 DUP(00H)
	DD	00H
	DD	01H
__unwindtable$?OnUseSetupValue@CDlgYScaleSetUp@@IAEXXZ DD 0ffffffffH
	DD	FLAT:__unwindfunclet$?OnUseSetupValue@CDlgYScaleSetUp@@IAEXXZ$0
	DD	00H
	DD	FLAT:__unwindfunclet$?OnUseSetupValue@CDlgYScaleSetUp@@IAEXXZ$1
	DD	01H
	DD	FLAT:__unwindfunclet$?OnUseSetupValue@CDlgYScaleSetUp@@IAEXXZ$2
	DD	01H
	DD	FLAT:__unwindfunclet$?OnUseSetupValue@CDlgYScaleSetUp@@IAEXXZ$3
	DD	0ffffffffH
	DD	FLAT:___std_terminate
xdata$x	ENDS
;	COMDAT xdata$x
xdata$x	SEGMENT
__unwindtable$?OnInitDialog@CDlgYScaleSetUp@@MAEHXZ DD 0ffffffffH
	DD	FLAT:__unwindfunclet$?OnInitDialog@CDlgYScaleSetUp@@MAEHXZ$0
	DD	0ffffffffH
	DD	FLAT:__unwindfunclet$?OnInitDialog@CDlgYScaleSetUp@@MAEHXZ$1
__ehfuncinfo$?OnInitDialog@CDlgYScaleSetUp@@MAEHXZ DD 019930522H
	DD	02H
	DD	FLAT:__unwindtable$?OnInitDialog@CDlgYScaleSetUp@@MAEHXZ
	DD	2 DUP(00H)
	DD	2 DUP(00H)
	DD	00H
	DD	01H
xdata$x	ENDS
;	COMDAT xdata$x
xdata$x	SEGMENT
__unwindtable$?SetValueFormat@CDlgYScaleSetUp@@QAEXV?$CStringT@DV?$StrTraitMFC_DLL@DV?$ChTraitsCRT@D@ATL@@@@@ATL@@@Z DD 0ffffffffH
	DD	FLAT:__unwindfunclet$?SetValueFormat@CDlgYScaleSetUp@@QAEXV?$CStringT@DV?$StrTraitMFC_DLL@DV?$ChTraitsCRT@D@ATL@@@@@ATL@@@Z$0
__ehfuncinfo$?SetValueFormat@CDlgYScaleSetUp@@QAEXV?$CStringT@DV?$StrTraitMFC_DLL@DV?$ChTraitsCRT@D@ATL@@@@@ATL@@@Z DD 019930522H
	DD	01H
	DD	FLAT:__unwindtable$?SetValueFormat@CDlgYScaleSetUp@@QAEXV?$CStringT@DV?$StrTraitMFC_DLL@DV?$ChTraitsCRT@D@ATL@@@@@ATL@@@Z
	DD	2 DUP(00H)
	DD	2 DUP(00H)
	DD	00H
	DD	01H
xdata$x	ENDS
;	COMDAT xdata$x
xdata$x	SEGMENT
__ehfuncinfo$??0CDlgYScaleSetUp@@QAE@PAVCYScaleSetUpAddInImp@@PAUHWND__@@W4CHART_MODE@CChartInfo@@IPAVCWnd@@@Z DD 019930522H
	DD	08H
	DD	FLAT:__unwindtable$??0CDlgYScaleSetUp@@QAE@PAVCYScaleSetUpAddInImp@@PAUHWND__@@W4CHART_MODE@CChartInfo@@IPAVCWnd@@@Z
	DD	2 DUP(00H)
	DD	2 DUP(00H)
	DD	00H
	DD	01H
__unwindtable$??0CDlgYScaleSetUp@@QAE@PAVCYScaleSetUpAddInImp@@PAUHWND__@@W4CHART_MODE@CChartInfo@@IPAVCWnd@@@Z DD 0ffffffffH
	DD	FLAT:__unwindfunclet$??0CDlgYScaleSetUp@@QAE@PAVCYScaleSetUpAddInImp@@PAUHWND__@@W4CHART_MODE@CChartInfo@@IPAVCWnd@@@Z$0
	DD	00H
	DD	FLAT:__unwindfunclet$??0CDlgYScaleSetUp@@QAE@PAVCYScaleSetUpAddInImp@@PAUHWND__@@W4CHART_MODE@CChartInfo@@IPAVCWnd@@@Z$1
	DD	01H
	DD	FLAT:__unwindfunclet$??0CDlgYScaleSetUp@@QAE@PAVCYScaleSetUpAddInImp@@PAUHWND__@@W4CHART_MODE@CChartInfo@@IPAVCWnd@@@Z$2
	DD	02H
	DD	FLAT:__unwindfunclet$??0CDlgYScaleSetUp@@QAE@PAVCYScaleSetUpAddInImp@@PAUHWND__@@W4CHART_MODE@CChartInfo@@IPAVCWnd@@@Z$3
	DD	03H
	DD	FLAT:__unwindfunclet$??0CDlgYScaleSetUp@@QAE@PAVCYScaleSetUpAddInImp@@PAUHWND__@@W4CHART_MODE@CChartInfo@@IPAVCWnd@@@Z$4
	DD	04H
	DD	FLAT:__unwindfunclet$??0CDlgYScaleSetUp@@QAE@PAVCYScaleSetUpAddInImp@@PAUHWND__@@W4CHART_MODE@CChartInfo@@IPAVCWnd@@@Z$5
	DD	05H
	DD	FLAT:__unwindfunclet$??0CDlgYScaleSetUp@@QAE@PAVCYScaleSetUpAddInImp@@PAUHWND__@@W4CHART_MODE@CChartInfo@@IPAVCWnd@@@Z$6
	DD	06H
	DD	FLAT:__unwindfunclet$??0CDlgYScaleSetUp@@QAE@PAVCYScaleSetUpAddInImp@@PAUHWND__@@W4CHART_MODE@CChartInfo@@IPAVCWnd@@@Z$7
xdata$x	ENDS
; Function compile flags: /Ogtp
; File D:\git\src\IBK\IBK_DRFN\ProjSrc\SrcChartEx\ChartOCX\Include_Chart\Dll_Load\IMetaTable.h
; File C:\Program Files (x86)\Microsoft Visual Studio\2019\Community\VC\Tools\MSVC\14.29.30133\atlmfc\include\afxwin1.inl
; File D:\git\src\IBK\IBK_DRFN\ProjSrc\SrcChartEx\ChartOCX\Include_Chart\Dll_Load\IMetaTable.h
;	COMDAT ??1CMultiLanguageResourceSetter@@QAE@XZ
_TEXT	SEGMENT
__$EHRec$ = -12						; size = 12
??1CMultiLanguageResourceSetter@@QAE@XZ PROC		; CMultiLanguageResourceSetter::~CMultiLanguageResourceSetter, COMDAT
; _this$ = ecx

; 1036 : 	{

  00000	55		 push	 ebp
  00001	8b ec		 mov	 ebp, esp
  00003	6a ff		 push	 -1
  00005	68 00 00 00 00	 push	 __ehhandler$??1CMultiLanguageResourceSetter@@QAE@XZ
  0000a	64 a1 00 00 00
	00		 mov	 eax, DWORD PTR fs:0
  00010	50		 push	 eax
  00011	56		 push	 esi
  00012	a1 00 00 00 00	 mov	 eax, DWORD PTR ___security_cookie
  00017	33 c5		 xor	 eax, ebp
  00019	50		 push	 eax
  0001a	8d 45 f4	 lea	 eax, DWORD PTR __$EHRec$[ebp]
  0001d	64 a3 00 00 00
	00		 mov	 DWORD PTR fs:0, eax

; 1037 : 		AfxSetResourceHandle( m_hInstance);

  00023	8b 31		 mov	 esi, DWORD PTR [ecx]
; File C:\Program Files (x86)\Microsoft Visual Studio\2019\Community\VC\Tools\MSVC\14.29.30133\atlmfc\include\afxwin1.inl

; 27   : 	{ ASSERT(hInstResource != NULL); afxCurrentResourceHandle = hInstResource; }

  00025	e8 00 00 00 00	 call	 ?AfxGetModuleState@@YGPAVAFX_MODULE_STATE@@XZ ; AfxGetModuleState
  0002a	89 70 0c	 mov	 DWORD PTR [eax+12], esi
; File D:\git\src\IBK\IBK_DRFN\ProjSrc\SrcChartEx\ChartOCX\Include_Chart\Dll_Load\IMetaTable.h

; 1038 : 	}

  0002d	8b 4d f4	 mov	 ecx, DWORD PTR __$EHRec$[ebp]
  00030	64 89 0d 00 00
	00 00		 mov	 DWORD PTR fs:0, ecx
  00037	59		 pop	 ecx
  00038	5e		 pop	 esi
  00039	8b e5		 mov	 esp, ebp
  0003b	5d		 pop	 ebp
  0003c	c3		 ret	 0
  0003d	cc		 int	 3
  0003e	cc		 int	 3
  0003f	cc		 int	 3
  00040	cc		 int	 3
  00041	cc		 int	 3
_TEXT	ENDS
;	COMDAT text$x
text$x	SEGMENT
__ehhandler$??1CMultiLanguageResourceSetter@@QAE@XZ:
  00000	90		 npad	 1
  00001	90		 npad	 1
  00002	8b 54 24 08	 mov	 edx, DWORD PTR [esp+8]
  00006	8d 42 0c	 lea	 eax, DWORD PTR [edx+12]
  00009	8b 4a f8	 mov	 ecx, DWORD PTR [edx-8]
  0000c	33 c8		 xor	 ecx, eax
  0000e	e8 00 00 00 00	 call	 @__security_check_cookie@4
  00013	b8 00 00 00 00	 mov	 eax, OFFSET __ehfuncinfo$??1CMultiLanguageResourceSetter@@QAE@XZ
  00018	e9 00 00 00 00	 jmp	 ___CxxFrameHandler3
text$x	ENDS
??1CMultiLanguageResourceSetter@@QAE@XZ ENDP		; CMultiLanguageResourceSetter::~CMultiLanguageResourceSetter
; Function compile flags: /Ogtp
; File C:\Program Files (x86)\Microsoft Visual Studio\2019\Community\VC\Tools\MSVC\14.29.30133\atlmfc\include\afx.inl
;	COMDAT ??_GCDlgYScaleSetUp@@UAEPAXI@Z
_TEXT	SEGMENT
___flags$ = 8						; size = 4
??_GCDlgYScaleSetUp@@UAEPAXI@Z PROC			; CDlgYScaleSetUp::`scalar deleting destructor', COMDAT
; _this$ = ecx
  00000	55		 push	 ebp
  00001	8b ec		 mov	 ebp, esp
  00003	56		 push	 esi
  00004	8b f1		 mov	 esi, ecx
  00006	8d 8e 0c 01 00
	00		 lea	 ecx, DWORD PTR [esi+268]
  0000c	ff 15 00 00 00
	00		 call	 DWORD PTR __imp_??1?$CStringT@DV?$StrTraitMFC_DLL@DV?$ChTraitsCRT@D@ATL@@@@@ATL@@QAE@XZ
  00012	8d 8e 08 01 00
	00		 lea	 ecx, DWORD PTR [esi+264]
  00018	ff 15 00 00 00
	00		 call	 DWORD PTR __imp_??1?$CStringT@DV?$StrTraitMFC_DLL@DV?$ChTraitsCRT@D@ATL@@@@@ATL@@QAE@XZ
  0001e	8d 8e c0 00 00
	00		 lea	 ecx, DWORD PTR [esi+192]
  00024	ff 15 00 00 00
	00		 call	 DWORD PTR __imp_??1?$CStringT@DV?$StrTraitMFC_DLL@DV?$ChTraitsCRT@D@ATL@@@@@ATL@@QAE@XZ
  0002a	8d 8e bc 00 00
	00		 lea	 ecx, DWORD PTR [esi+188]
  00030	ff 15 00 00 00
	00		 call	 DWORD PTR __imp_??1?$CStringT@DV?$StrTraitMFC_DLL@DV?$ChTraitsCRT@D@ATL@@@@@ATL@@QAE@XZ
  00036	8d 8e b8 00 00
	00		 lea	 ecx, DWORD PTR [esi+184]
  0003c	ff 15 00 00 00
	00		 call	 DWORD PTR __imp_??1?$CStringT@DV?$StrTraitMFC_DLL@DV?$ChTraitsCRT@D@ATL@@@@@ATL@@QAE@XZ
  00042	8d 8e b4 00 00
	00		 lea	 ecx, DWORD PTR [esi+180]
  00048	ff 15 00 00 00
	00		 call	 DWORD PTR __imp_??1?$CStringT@DV?$StrTraitMFC_DLL@DV?$ChTraitsCRT@D@ATL@@@@@ATL@@QAE@XZ
  0004e	8d 8e b0 00 00
	00		 lea	 ecx, DWORD PTR [esi+176]
  00054	ff 15 00 00 00
	00		 call	 DWORD PTR __imp_??1?$CStringT@DV?$StrTraitMFC_DLL@DV?$ChTraitsCRT@D@ATL@@@@@ATL@@QAE@XZ
  0005a	8b ce		 mov	 ecx, esi
  0005c	e8 00 00 00 00	 call	 ??1CDialog@@UAE@XZ	; CDialog::~CDialog
  00061	8b 45 08	 mov	 eax, DWORD PTR ___flags$[ebp]
  00064	a8 01		 test	 al, 1
  00066	74 22		 je	 SHORT $LN12@scalar
  00068	a8 04		 test	 al, 4
  0006a	75 10		 jne	 SHORT $LN3@scalar

; 112  : 	{ ::operator delete(p); }

  0006c	56		 push	 esi
  0006d	e8 00 00 00 00	 call	 ??3@YAXPAX@Z		; operator delete
  00072	83 c4 04	 add	 esp, 4
  00075	8b c6		 mov	 eax, esi
  00077	5e		 pop	 esi
  00078	5d		 pop	 ebp
  00079	c2 04 00	 ret	 4
$LN3@scalar:
  0007c	68 20 01 00 00	 push	 288			; 00000120H
  00081	56		 push	 esi
  00082	e8 00 00 00 00	 call	 ?__global_delete@@YAXPAXI@Z ; __global_delete
  00087	83 c4 08	 add	 esp, 8
$LN12@scalar:
  0008a	8b c6		 mov	 eax, esi
  0008c	5e		 pop	 esi
  0008d	5d		 pop	 ebp
  0008e	c2 04 00	 ret	 4
??_GCDlgYScaleSetUp@@UAEPAXI@Z ENDP			; CDlgYScaleSetUp::`scalar deleting destructor'
_TEXT	ENDS
; Function compile flags: /Ogtp
; File D:\git\src\IBK\IBK_DRFN\ProjSrc\SrcChartEx\ChartOCX\AddInManager\ChartCommonAddIn\DlgYScaleSetUp.cpp
;	COMDAT ?GetMessageMap@CDlgYScaleSetUp@@MBEPBUAFX_MSGMAP@@XZ
_TEXT	SEGMENT
?GetMessageMap@CDlgYScaleSetUp@@MBEPBUAFX_MSGMAP@@XZ PROC ; CDlgYScaleSetUp::GetMessageMap, COMDAT
; _this$ = ecx

; 73   : BEGIN_MESSAGE_MAP(CDlgYScaleSetUp, CDialog)

  00000	b8 00 00 00 00	 mov	 eax, OFFSET ?messageMap@?1??GetThisMessageMap@CDlgYScaleSetUp@@KGPBUAFX_MSGMAP@@XZ@4U3@B
  00005	c3		 ret	 0
?GetMessageMap@CDlgYScaleSetUp@@MBEPBUAFX_MSGMAP@@XZ ENDP ; CDlgYScaleSetUp::GetMessageMap
_TEXT	ENDS
; Function compile flags: /Ogtp
; File D:\git\src\IBK\IBK_DRFN\ProjSrc\SrcChartEx\ChartOCX\AddInManager\ChartCommonAddIn\DlgYScaleSetUp.cpp
;	COMDAT ?GetThisMessageMap@CDlgYScaleSetUp@@KGPBUAFX_MSGMAP@@XZ
_TEXT	SEGMENT
?GetThisMessageMap@CDlgYScaleSetUp@@KGPBUAFX_MSGMAP@@XZ PROC ; CDlgYScaleSetUp::GetThisMessageMap, COMDAT

; 74   : 	//{{AFX_MSG_MAP(CDlgYScaleSetUp)
; 75   : 	ON_BN_CLICKED(IDC_USE_SETUP_VALUE, OnUseSetupValue)
; 76   : 	ON_BN_CLICKED(IDC_USE_PERCENT, OnUsePercent)
; 77   : 	ON_BN_CLICKED(IDC_30_PERCENT, On30Percent)
; 78   : 	ON_BN_CLICKED(IDC_50_PERCENT, On50Percent)
; 79   : 	ON_BN_CLICKED(IDC_70_PERCENT, On70Percent)
; 80   : 	ON_BN_CLICKED(IDC_100_PERCENT, On100Percent)
; 81   : 	ON_EN_CHANGE(IDC_MAX_PRICE_EDIT, OnChangeMaxPriceEdit)
; 82   : 	ON_EN_CHANGE(IDC_MIN_PRICE_EDIT, OnChangeMinPriceEdit)
; 83   : 	//}}AFX_MSG_MAP
; 84   : END_MESSAGE_MAP()

  00000	b8 00 00 00 00	 mov	 eax, OFFSET ?messageMap@?1??GetThisMessageMap@CDlgYScaleSetUp@@KGPBUAFX_MSGMAP@@XZ@4U3@B
  00005	c3		 ret	 0
?GetThisMessageMap@CDlgYScaleSetUp@@KGPBUAFX_MSGMAP@@XZ ENDP ; CDlgYScaleSetUp::GetThisMessageMap
_TEXT	ENDS
; Function compile flags: /Ogtp
; File D:\git\src\IBK\IBK_DRFN\ProjSrc\SrcChartEx\ChartOCX\AddInManager\ChartCommonAddIn\DlgYScaleSetUp.cpp
; File C:\Program Files (x86)\Microsoft Visual Studio\2019\Community\VC\Tools\MSVC\14.29.30133\atlmfc\include\cstringt.h
; File D:\git\src\IBK\IBK_DRFN\ProjSrc\SrcChartEx\ChartOCX\AddInManager\ChartCommonAddIn\DlgYScaleSetUp.cpp
; File C:\Program Files (x86)\Microsoft Visual Studio\2019\Community\VC\Tools\MSVC\14.29.30133\atlmfc\include\cstringt.h
; File D:\git\src\IBK\IBK_DRFN\ProjSrc\SrcChartEx\ChartOCX\AddInManager\ChartCommonAddIn\DlgYScaleSetUp.cpp
; File C:\Program Files (x86)\Microsoft Visual Studio\2019\Community\VC\Tools\MSVC\14.29.30133\atlmfc\include\cstringt.h
; File D:\git\src\IBK\IBK_DRFN\ProjSrc\SrcChartEx\ChartOCX\AddInManager\ChartCommonAddIn\DlgYScaleSetUp.cpp
; File C:\Program Files (x86)\Microsoft Visual Studio\2019\Community\VC\Tools\MSVC\14.29.30133\atlmfc\include\cstringt.h
; File D:\git\src\IBK\IBK_DRFN\ProjSrc\SrcChartEx\ChartOCX\AddInManager\ChartCommonAddIn\DlgYScaleSetUp.cpp
; File C:\Program Files (x86)\Microsoft Visual Studio\2019\Community\VC\Tools\MSVC\14.29.30133\atlmfc\include\cstringt.h
; File D:\git\src\IBK\IBK_DRFN\ProjSrc\SrcChartEx\ChartOCX\AddInManager\ChartCommonAddIn\DlgYScaleSetUp.cpp
; File C:\Program Files (x86)\Microsoft Visual Studio\2019\Community\VC\Tools\MSVC\14.29.30133\atlmfc\include\cstringt.h
; File D:\git\src\IBK\IBK_DRFN\ProjSrc\SrcChartEx\ChartOCX\AddInManager\ChartCommonAddIn\DlgYScaleSetUp.cpp
; File C:\Program Files (x86)\Microsoft Visual Studio\2019\Community\VC\Tools\MSVC\14.29.30133\atlmfc\include\cstringt.h
; File D:\git\src\IBK\IBK_DRFN\ProjSrc\SrcChartEx\ChartOCX\AddInManager\ChartCommonAddIn\DlgYScaleSetUp.cpp
; File C:\Program Files (x86)\Microsoft Visual Studio\2019\Community\VC\Tools\MSVC\14.29.30133\atlmfc\include\cstringt.h
; File D:\git\src\IBK\IBK_DRFN\ProjSrc\SrcChartEx\ChartOCX\AddInManager\ChartCommonAddIn\DlgYScaleSetUp.cpp
;	COMDAT ?OnChangeMinPriceEdit@CDlgYScaleSetUp@@IAEXXZ
_TEXT	SEGMENT
?OnChangeMinPriceEdit@CDlgYScaleSetUp@@IAEXXZ PROC	; CDlgYScaleSetUp::OnChangeMinPriceEdit, COMDAT
; _this$ = ecx

; 554  : {

  00000	56		 push	 esi
  00001	8b f1		 mov	 esi, ecx

; 555  : 	// TODO: If this is a RICHEDIT control, the control will not
; 556  : 	// send this notification unless you override the CDialog::OnInitDialog()
; 557  : 	// function and call CRichEditCtrl().SetEventMask()
; 558  : 	// with the ENM_CHANGE flag ORed into the mask.
; 559  : 	
; 560  : 	// TODO: Add your control notification handler code here
; 561  : if( m_nYScaleMaxMinSetupType == 0)

  00003	83 be a8 00 00
	00 00		 cmp	 DWORD PTR [esi+168], 0
  0000a	0f 84 1a 01 00
	00		 je	 $LN1@OnChangeMi

; 562  : 		return;
; 563  : 
; 564  : 	UpdateData();

  00010	53		 push	 ebx
  00011	57		 push	 edi
  00012	6a 01		 push	 1
  00014	e8 00 00 00 00	 call	 ?UpdateData@CWnd@@QAEHH@Z ; CWnd::UpdateData
; File C:\Program Files (x86)\Microsoft Visual Studio\2019\Community\VC\Tools\MSVC\14.29.30133\atlmfc\include\cstringt.h

; 2486 : 		return(str1.Compare(psz2) == 0);

  00019	68 00 00 00 00	 push	 OFFSET ??_C@_02PJNFELNH@30@
  0001e	8d 8e b4 00 00
	00		 lea	 ecx, DWORD PTR [esi+180]
  00024	ff 15 00 00 00
	00		 call	 DWORD PTR __imp_?Compare@?$CStringT@DV?$StrTraitMFC_DLL@DV?$ChTraitsCRT@D@ATL@@@@@ATL@@QBEHPBD@Z
  0002a	85 c0		 test	 eax, eax
; File D:\git\src\IBK\IBK_DRFN\ProjSrc\SrcChartEx\ChartOCX\AddInManager\ChartCommonAddIn\DlgYScaleSetUp.cpp

; 566  : 	if( m_strMaxPrice == "30" && m_strMinPrice == "-30" )

  0002c	75 27		 jne	 SHORT $LN28@OnChangeMi
; File C:\Program Files (x86)\Microsoft Visual Studio\2019\Community\VC\Tools\MSVC\14.29.30133\atlmfc\include\cstringt.h

; 2486 : 		return(str1.Compare(psz2) == 0);

  0002e	68 00 00 00 00	 push	 OFFSET ??_C@_03HFIIDKDK@?930@
  00033	8d 8e b8 00 00
	00		 lea	 ecx, DWORD PTR [esi+184]
  00039	ff 15 00 00 00
	00		 call	 DWORD PTR __imp_?Compare@?$CStringT@DV?$StrTraitMFC_DLL@DV?$ChTraitsCRT@D@ATL@@@@@ATL@@QBEHPBD@Z
  0003f	85 c0		 test	 eax, eax
; File D:\git\src\IBK\IBK_DRFN\ProjSrc\SrcChartEx\ChartOCX\AddInManager\ChartCommonAddIn\DlgYScaleSetUp.cpp

; 566  : 	if( m_strMaxPrice == "30" && m_strMinPrice == "-30" )

  00041	75 12		 jne	 SHORT $LN28@OnChangeMi

; 576  : 		m_nSelectPercent = 3;
; 577  : 	
; 578  : 	else
; 579  : 		m_nSelectPercent = -1;
; 580  : 
; 581  : 	UpdateData(FALSE);	

  00043	50		 push	 eax
  00044	8b ce		 mov	 ecx, esi
  00046	89 86 ac 00 00
	00		 mov	 DWORD PTR [esi+172], eax
  0004c	e8 00 00 00 00	 call	 ?UpdateData@CWnd@@QAEHH@Z ; CWnd::UpdateData
  00051	5f		 pop	 edi
  00052	5b		 pop	 ebx
  00053	5e		 pop	 esi

; 582  : }

  00054	c3		 ret	 0
$LN28@OnChangeMi:
; File C:\Program Files (x86)\Microsoft Visual Studio\2019\Community\VC\Tools\MSVC\14.29.30133\atlmfc\include\cstringt.h

; 2486 : 		return(str1.Compare(psz2) == 0);

  00055	68 00 00 00 00	 push	 OFFSET ??_C@_02PNFIDHGF@50@
  0005a	8d 8e b4 00 00
	00		 lea	 ecx, DWORD PTR [esi+180]
  00060	ff 15 00 00 00
	00		 call	 DWORD PTR __imp_?Compare@?$CStringT@DV?$StrTraitMFC_DLL@DV?$ChTraitsCRT@D@ATL@@@@@ATL@@QBEHPBD@Z
  00066	85 c0		 test	 eax, eax
; File D:\git\src\IBK\IBK_DRFN\ProjSrc\SrcChartEx\ChartOCX\AddInManager\ChartCommonAddIn\DlgYScaleSetUp.cpp

; 569  : 	else if( m_strMaxPrice == "50" && m_strMinPrice == "-50" )

  00068	75 2b		 jne	 SHORT $LN5@OnChangeMi
; File C:\Program Files (x86)\Microsoft Visual Studio\2019\Community\VC\Tools\MSVC\14.29.30133\atlmfc\include\cstringt.h

; 2486 : 		return(str1.Compare(psz2) == 0);

  0006a	68 00 00 00 00	 push	 OFFSET ??_C@_03HBAFEGII@?950@
  0006f	8d 8e b8 00 00
	00		 lea	 ecx, DWORD PTR [esi+184]
  00075	ff 15 00 00 00
	00		 call	 DWORD PTR __imp_?Compare@?$CStringT@DV?$StrTraitMFC_DLL@DV?$ChTraitsCRT@D@ATL@@@@@ATL@@QBEHPBD@Z
  0007b	85 c0		 test	 eax, eax
; File D:\git\src\IBK\IBK_DRFN\ProjSrc\SrcChartEx\ChartOCX\AddInManager\ChartCommonAddIn\DlgYScaleSetUp.cpp

; 569  : 	else if( m_strMaxPrice == "50" && m_strMinPrice == "-50" )

  0007d	75 16		 jne	 SHORT $LN5@OnChangeMi

; 576  : 		m_nSelectPercent = 3;
; 577  : 	
; 578  : 	else
; 579  : 		m_nSelectPercent = -1;
; 580  : 
; 581  : 	UpdateData(FALSE);	

  0007f	50		 push	 eax
  00080	8b ce		 mov	 ecx, esi
  00082	c7 86 ac 00 00
	00 01 00 00 00	 mov	 DWORD PTR [esi+172], 1
  0008c	e8 00 00 00 00	 call	 ?UpdateData@CWnd@@QAEHH@Z ; CWnd::UpdateData
  00091	5f		 pop	 edi
  00092	5b		 pop	 ebx
  00093	5e		 pop	 esi

; 582  : }

  00094	c3		 ret	 0
$LN5@OnChangeMi:
; File C:\Program Files (x86)\Microsoft Visual Studio\2019\Community\VC\Tools\MSVC\14.29.30133\atlmfc\include\cstringt.h

; 2486 : 		return(str1.Compare(psz2) == 0);

  00095	68 00 00 00 00	 push	 OFFSET ??_C@_02PONMODAL@70@
  0009a	8d 8e b4 00 00
	00		 lea	 ecx, DWORD PTR [esi+180]
  000a0	ff 15 00 00 00
	00		 call	 DWORD PTR __imp_?Compare@?$CStringT@DV?$StrTraitMFC_DLL@DV?$ChTraitsCRT@D@ATL@@@@@ATL@@QBEHPBD@Z
  000a6	85 c0		 test	 eax, eax
; File D:\git\src\IBK\IBK_DRFN\ProjSrc\SrcChartEx\ChartOCX\AddInManager\ChartCommonAddIn\DlgYScaleSetUp.cpp

; 572  : 	else if( m_strMaxPrice == "70" && m_strMinPrice == "-70" )

  000a8	75 2b		 jne	 SHORT $LN7@OnChangeMi
; File C:\Program Files (x86)\Microsoft Visual Studio\2019\Community\VC\Tools\MSVC\14.29.30133\atlmfc\include\cstringt.h

; 2486 : 		return(str1.Compare(psz2) == 0);

  000aa	68 00 00 00 00	 push	 OFFSET ??_C@_03HCIBJCOG@?970@
  000af	8d 8e b8 00 00
	00		 lea	 ecx, DWORD PTR [esi+184]
  000b5	ff 15 00 00 00
	00		 call	 DWORD PTR __imp_?Compare@?$CStringT@DV?$StrTraitMFC_DLL@DV?$ChTraitsCRT@D@ATL@@@@@ATL@@QBEHPBD@Z
  000bb	85 c0		 test	 eax, eax
; File D:\git\src\IBK\IBK_DRFN\ProjSrc\SrcChartEx\ChartOCX\AddInManager\ChartCommonAddIn\DlgYScaleSetUp.cpp

; 572  : 	else if( m_strMaxPrice == "70" && m_strMinPrice == "-70" )

  000bd	75 16		 jne	 SHORT $LN7@OnChangeMi

; 576  : 		m_nSelectPercent = 3;
; 577  : 	
; 578  : 	else
; 579  : 		m_nSelectPercent = -1;
; 580  : 
; 581  : 	UpdateData(FALSE);	

  000bf	50		 push	 eax
  000c0	8b ce		 mov	 ecx, esi
  000c2	c7 86 ac 00 00
	00 02 00 00 00	 mov	 DWORD PTR [esi+172], 2
  000cc	e8 00 00 00 00	 call	 ?UpdateData@CWnd@@QAEHH@Z ; CWnd::UpdateData
  000d1	5f		 pop	 edi
  000d2	5b		 pop	 ebx
  000d3	5e		 pop	 esi

; 582  : }

  000d4	c3		 ret	 0
$LN7@OnChangeMi:
; File C:\Program Files (x86)\Microsoft Visual Studio\2019\Community\VC\Tools\MSVC\14.29.30133\atlmfc\include\cstringt.h

; 2486 : 		return(str1.Compare(psz2) == 0);

  000d5	68 00 00 00 00	 push	 OFFSET ??_C@_03GNABGMEE@100@
  000da	8d 8e b4 00 00
	00		 lea	 ecx, DWORD PTR [esi+180]
  000e0	ff 15 00 00 00
	00		 call	 DWORD PTR __imp_?Compare@?$CStringT@DV?$StrTraitMFC_DLL@DV?$ChTraitsCRT@D@ATL@@@@@ATL@@QBEHPBD@Z
  000e6	85 c0		 test	 eax, eax
; File D:\git\src\IBK\IBK_DRFN\ProjSrc\SrcChartEx\ChartOCX\AddInManager\ChartCommonAddIn\DlgYScaleSetUp.cpp

; 575  : 	else if( m_strMaxPrice == "100" && m_strMinPrice == "-100" )

  000e8	75 2b		 jne	 SHORT $LN9@OnChangeMi
; File C:\Program Files (x86)\Microsoft Visual Studio\2019\Community\VC\Tools\MSVC\14.29.30133\atlmfc\include\cstringt.h

; 2486 : 		return(str1.Compare(psz2) == 0);

  000ea	68 00 00 00 00	 push	 OFFSET ??_C@_04LDDGKPPA@?9100@
  000ef	8d 8e b8 00 00
	00		 lea	 ecx, DWORD PTR [esi+184]
  000f5	ff 15 00 00 00
	00		 call	 DWORD PTR __imp_?Compare@?$CStringT@DV?$StrTraitMFC_DLL@DV?$ChTraitsCRT@D@ATL@@@@@ATL@@QBEHPBD@Z
  000fb	85 c0		 test	 eax, eax
; File D:\git\src\IBK\IBK_DRFN\ProjSrc\SrcChartEx\ChartOCX\AddInManager\ChartCommonAddIn\DlgYScaleSetUp.cpp

; 575  : 	else if( m_strMaxPrice == "100" && m_strMinPrice == "-100" )

  000fd	75 16		 jne	 SHORT $LN9@OnChangeMi

; 576  : 		m_nSelectPercent = 3;
; 577  : 	
; 578  : 	else
; 579  : 		m_nSelectPercent = -1;
; 580  : 
; 581  : 	UpdateData(FALSE);	

  000ff	50		 push	 eax
  00100	8b ce		 mov	 ecx, esi
  00102	c7 86 ac 00 00
	00 03 00 00 00	 mov	 DWORD PTR [esi+172], 3
  0010c	e8 00 00 00 00	 call	 ?UpdateData@CWnd@@QAEHH@Z ; CWnd::UpdateData
  00111	5f		 pop	 edi
  00112	5b		 pop	 ebx
  00113	5e		 pop	 esi

; 582  : }

  00114	c3		 ret	 0
$LN9@OnChangeMi:

; 576  : 		m_nSelectPercent = 3;
; 577  : 	
; 578  : 	else
; 579  : 		m_nSelectPercent = -1;
; 580  : 
; 581  : 	UpdateData(FALSE);	

  00115	6a 00		 push	 0
  00117	8b ce		 mov	 ecx, esi
  00119	c7 86 ac 00 00
	00 ff ff ff ff	 mov	 DWORD PTR [esi+172], -1
  00123	e8 00 00 00 00	 call	 ?UpdateData@CWnd@@QAEHH@Z ; CWnd::UpdateData
  00128	5f		 pop	 edi
  00129	5b		 pop	 ebx
$LN1@OnChangeMi:

; 582  : }

  0012a	5e		 pop	 esi
  0012b	c3		 ret	 0
?OnChangeMinPriceEdit@CDlgYScaleSetUp@@IAEXXZ ENDP	; CDlgYScaleSetUp::OnChangeMinPriceEdit
_TEXT	ENDS
; Function compile flags: /Ogtp
; File D:\git\src\IBK\IBK_DRFN\ProjSrc\SrcChartEx\ChartOCX\AddInManager\ChartCommonAddIn\DlgYScaleSetUp.cpp
; File C:\Program Files (x86)\Microsoft Visual Studio\2019\Community\VC\Tools\MSVC\14.29.30133\atlmfc\include\cstringt.h
; File D:\git\src\IBK\IBK_DRFN\ProjSrc\SrcChartEx\ChartOCX\AddInManager\ChartCommonAddIn\DlgYScaleSetUp.cpp
; File C:\Program Files (x86)\Microsoft Visual Studio\2019\Community\VC\Tools\MSVC\14.29.30133\atlmfc\include\cstringt.h
; File D:\git\src\IBK\IBK_DRFN\ProjSrc\SrcChartEx\ChartOCX\AddInManager\ChartCommonAddIn\DlgYScaleSetUp.cpp
; File C:\Program Files (x86)\Microsoft Visual Studio\2019\Community\VC\Tools\MSVC\14.29.30133\atlmfc\include\cstringt.h
; File D:\git\src\IBK\IBK_DRFN\ProjSrc\SrcChartEx\ChartOCX\AddInManager\ChartCommonAddIn\DlgYScaleSetUp.cpp
; File C:\Program Files (x86)\Microsoft Visual Studio\2019\Community\VC\Tools\MSVC\14.29.30133\atlmfc\include\cstringt.h
; File D:\git\src\IBK\IBK_DRFN\ProjSrc\SrcChartEx\ChartOCX\AddInManager\ChartCommonAddIn\DlgYScaleSetUp.cpp
; File C:\Program Files (x86)\Microsoft Visual Studio\2019\Community\VC\Tools\MSVC\14.29.30133\atlmfc\include\cstringt.h
; File D:\git\src\IBK\IBK_DRFN\ProjSrc\SrcChartEx\ChartOCX\AddInManager\ChartCommonAddIn\DlgYScaleSetUp.cpp
; File C:\Program Files (x86)\Microsoft Visual Studio\2019\Community\VC\Tools\MSVC\14.29.30133\atlmfc\include\cstringt.h
; File D:\git\src\IBK\IBK_DRFN\ProjSrc\SrcChartEx\ChartOCX\AddInManager\ChartCommonAddIn\DlgYScaleSetUp.cpp
; File C:\Program Files (x86)\Microsoft Visual Studio\2019\Community\VC\Tools\MSVC\14.29.30133\atlmfc\include\cstringt.h
; File D:\git\src\IBK\IBK_DRFN\ProjSrc\SrcChartEx\ChartOCX\AddInManager\ChartCommonAddIn\DlgYScaleSetUp.cpp
; File C:\Program Files (x86)\Microsoft Visual Studio\2019\Community\VC\Tools\MSVC\14.29.30133\atlmfc\include\cstringt.h
; File D:\git\src\IBK\IBK_DRFN\ProjSrc\SrcChartEx\ChartOCX\AddInManager\ChartCommonAddIn\DlgYScaleSetUp.cpp
;	COMDAT ?OnChangeMaxPriceEdit@CDlgYScaleSetUp@@IAEXXZ
_TEXT	SEGMENT
?OnChangeMaxPriceEdit@CDlgYScaleSetUp@@IAEXXZ PROC	; CDlgYScaleSetUp::OnChangeMaxPriceEdit, COMDAT
; _this$ = ecx

; 521  : {

  00000	56		 push	 esi
  00001	8b f1		 mov	 esi, ecx

; 522  : 	// TODO: If this is a RICHEDIT control, the control will not
; 523  : 	// send this notification unless you override the CDialog::OnInitDialog()
; 524  : 	// function and call CRichEditCtrl().SetEventMask()
; 525  : 	// with the ENM_CHANGE flag ORed into the mask.
; 526  : 	
; 527  : 	// TODO: Add your control notification handler code here
; 528  : 	
; 529  : 	if( m_nYScaleMaxMinSetupType == 0)

  00003	83 be a8 00 00
	00 00		 cmp	 DWORD PTR [esi+168], 0
  0000a	0f 84 1a 01 00
	00		 je	 $LN1@OnChangeMa

; 530  : 		return;
; 531  : 
; 532  : 	UpdateData();

  00010	53		 push	 ebx
  00011	57		 push	 edi
  00012	6a 01		 push	 1
  00014	e8 00 00 00 00	 call	 ?UpdateData@CWnd@@QAEHH@Z ; CWnd::UpdateData
; File C:\Program Files (x86)\Microsoft Visual Studio\2019\Community\VC\Tools\MSVC\14.29.30133\atlmfc\include\cstringt.h

; 2486 : 		return(str1.Compare(psz2) == 0);

  00019	68 00 00 00 00	 push	 OFFSET ??_C@_02PJNFELNH@30@
  0001e	8d 8e b4 00 00
	00		 lea	 ecx, DWORD PTR [esi+180]
  00024	ff 15 00 00 00
	00		 call	 DWORD PTR __imp_?Compare@?$CStringT@DV?$StrTraitMFC_DLL@DV?$ChTraitsCRT@D@ATL@@@@@ATL@@QBEHPBD@Z
  0002a	85 c0		 test	 eax, eax
; File D:\git\src\IBK\IBK_DRFN\ProjSrc\SrcChartEx\ChartOCX\AddInManager\ChartCommonAddIn\DlgYScaleSetUp.cpp

; 534  : 	if( m_strMaxPrice == "30" && m_strMinPrice == "-30" )

  0002c	75 27		 jne	 SHORT $LN28@OnChangeMa
; File C:\Program Files (x86)\Microsoft Visual Studio\2019\Community\VC\Tools\MSVC\14.29.30133\atlmfc\include\cstringt.h

; 2486 : 		return(str1.Compare(psz2) == 0);

  0002e	68 00 00 00 00	 push	 OFFSET ??_C@_03HFIIDKDK@?930@
  00033	8d 8e b8 00 00
	00		 lea	 ecx, DWORD PTR [esi+184]
  00039	ff 15 00 00 00
	00		 call	 DWORD PTR __imp_?Compare@?$CStringT@DV?$StrTraitMFC_DLL@DV?$ChTraitsCRT@D@ATL@@@@@ATL@@QBEHPBD@Z
  0003f	85 c0		 test	 eax, eax
; File D:\git\src\IBK\IBK_DRFN\ProjSrc\SrcChartEx\ChartOCX\AddInManager\ChartCommonAddIn\DlgYScaleSetUp.cpp

; 534  : 	if( m_strMaxPrice == "30" && m_strMinPrice == "-30" )

  00041	75 12		 jne	 SHORT $LN28@OnChangeMa

; 544  : 		m_nSelectPercent = 3;
; 545  : 	
; 546  : 	else
; 547  : 		m_nSelectPercent = -1;
; 548  : 
; 549  : 	UpdateData(FALSE);

  00043	50		 push	 eax
  00044	8b ce		 mov	 ecx, esi
  00046	89 86 ac 00 00
	00		 mov	 DWORD PTR [esi+172], eax
  0004c	e8 00 00 00 00	 call	 ?UpdateData@CWnd@@QAEHH@Z ; CWnd::UpdateData
  00051	5f		 pop	 edi
  00052	5b		 pop	 ebx
  00053	5e		 pop	 esi

; 550  : }

  00054	c3		 ret	 0
$LN28@OnChangeMa:
; File C:\Program Files (x86)\Microsoft Visual Studio\2019\Community\VC\Tools\MSVC\14.29.30133\atlmfc\include\cstringt.h

; 2486 : 		return(str1.Compare(psz2) == 0);

  00055	68 00 00 00 00	 push	 OFFSET ??_C@_02PNFIDHGF@50@
  0005a	8d 8e b4 00 00
	00		 lea	 ecx, DWORD PTR [esi+180]
  00060	ff 15 00 00 00
	00		 call	 DWORD PTR __imp_?Compare@?$CStringT@DV?$StrTraitMFC_DLL@DV?$ChTraitsCRT@D@ATL@@@@@ATL@@QBEHPBD@Z
  00066	85 c0		 test	 eax, eax
; File D:\git\src\IBK\IBK_DRFN\ProjSrc\SrcChartEx\ChartOCX\AddInManager\ChartCommonAddIn\DlgYScaleSetUp.cpp

; 537  : 	else if( m_strMaxPrice == "50" && m_strMinPrice == "-50" )

  00068	75 2b		 jne	 SHORT $LN5@OnChangeMa
; File C:\Program Files (x86)\Microsoft Visual Studio\2019\Community\VC\Tools\MSVC\14.29.30133\atlmfc\include\cstringt.h

; 2486 : 		return(str1.Compare(psz2) == 0);

  0006a	68 00 00 00 00	 push	 OFFSET ??_C@_03HBAFEGII@?950@
  0006f	8d 8e b8 00 00
	00		 lea	 ecx, DWORD PTR [esi+184]
  00075	ff 15 00 00 00
	00		 call	 DWORD PTR __imp_?Compare@?$CStringT@DV?$StrTraitMFC_DLL@DV?$ChTraitsCRT@D@ATL@@@@@ATL@@QBEHPBD@Z
  0007b	85 c0		 test	 eax, eax
; File D:\git\src\IBK\IBK_DRFN\ProjSrc\SrcChartEx\ChartOCX\AddInManager\ChartCommonAddIn\DlgYScaleSetUp.cpp

; 537  : 	else if( m_strMaxPrice == "50" && m_strMinPrice == "-50" )

  0007d	75 16		 jne	 SHORT $LN5@OnChangeMa

; 544  : 		m_nSelectPercent = 3;
; 545  : 	
; 546  : 	else
; 547  : 		m_nSelectPercent = -1;
; 548  : 
; 549  : 	UpdateData(FALSE);

  0007f	50		 push	 eax
  00080	8b ce		 mov	 ecx, esi
  00082	c7 86 ac 00 00
	00 01 00 00 00	 mov	 DWORD PTR [esi+172], 1
  0008c	e8 00 00 00 00	 call	 ?UpdateData@CWnd@@QAEHH@Z ; CWnd::UpdateData
  00091	5f		 pop	 edi
  00092	5b		 pop	 ebx
  00093	5e		 pop	 esi

; 550  : }

  00094	c3		 ret	 0
$LN5@OnChangeMa:
; File C:\Program Files (x86)\Microsoft Visual Studio\2019\Community\VC\Tools\MSVC\14.29.30133\atlmfc\include\cstringt.h

; 2486 : 		return(str1.Compare(psz2) == 0);

  00095	68 00 00 00 00	 push	 OFFSET ??_C@_02PONMODAL@70@
  0009a	8d 8e b4 00 00
	00		 lea	 ecx, DWORD PTR [esi+180]
  000a0	ff 15 00 00 00
	00		 call	 DWORD PTR __imp_?Compare@?$CStringT@DV?$StrTraitMFC_DLL@DV?$ChTraitsCRT@D@ATL@@@@@ATL@@QBEHPBD@Z
  000a6	85 c0		 test	 eax, eax
; File D:\git\src\IBK\IBK_DRFN\ProjSrc\SrcChartEx\ChartOCX\AddInManager\ChartCommonAddIn\DlgYScaleSetUp.cpp

; 540  : 	else if( m_strMaxPrice == "70" && m_strMinPrice == "-70" )

  000a8	75 2b		 jne	 SHORT $LN7@OnChangeMa
; File C:\Program Files (x86)\Microsoft Visual Studio\2019\Community\VC\Tools\MSVC\14.29.30133\atlmfc\include\cstringt.h

; 2486 : 		return(str1.Compare(psz2) == 0);

  000aa	68 00 00 00 00	 push	 OFFSET ??_C@_03HCIBJCOG@?970@
  000af	8d 8e b8 00 00
	00		 lea	 ecx, DWORD PTR [esi+184]
  000b5	ff 15 00 00 00
	00		 call	 DWORD PTR __imp_?Compare@?$CStringT@DV?$StrTraitMFC_DLL@DV?$ChTraitsCRT@D@ATL@@@@@ATL@@QBEHPBD@Z
  000bb	85 c0		 test	 eax, eax
; File D:\git\src\IBK\IBK_DRFN\ProjSrc\SrcChartEx\ChartOCX\AddInManager\ChartCommonAddIn\DlgYScaleSetUp.cpp

; 540  : 	else if( m_strMaxPrice == "70" && m_strMinPrice == "-70" )

  000bd	75 16		 jne	 SHORT $LN7@OnChangeMa

; 544  : 		m_nSelectPercent = 3;
; 545  : 	
; 546  : 	else
; 547  : 		m_nSelectPercent = -1;
; 548  : 
; 549  : 	UpdateData(FALSE);

  000bf	50		 push	 eax
  000c0	8b ce		 mov	 ecx, esi
  000c2	c7 86 ac 00 00
	00 02 00 00 00	 mov	 DWORD PTR [esi+172], 2
  000cc	e8 00 00 00 00	 call	 ?UpdateData@CWnd@@QAEHH@Z ; CWnd::UpdateData
  000d1	5f		 pop	 edi
  000d2	5b		 pop	 ebx
  000d3	5e		 pop	 esi

; 550  : }

  000d4	c3		 ret	 0
$LN7@OnChangeMa:
; File C:\Program Files (x86)\Microsoft Visual Studio\2019\Community\VC\Tools\MSVC\14.29.30133\atlmfc\include\cstringt.h

; 2486 : 		return(str1.Compare(psz2) == 0);

  000d5	68 00 00 00 00	 push	 OFFSET ??_C@_03GNABGMEE@100@
  000da	8d 8e b4 00 00
	00		 lea	 ecx, DWORD PTR [esi+180]
  000e0	ff 15 00 00 00
	00		 call	 DWORD PTR __imp_?Compare@?$CStringT@DV?$StrTraitMFC_DLL@DV?$ChTraitsCRT@D@ATL@@@@@ATL@@QBEHPBD@Z
  000e6	85 c0		 test	 eax, eax
; File D:\git\src\IBK\IBK_DRFN\ProjSrc\SrcChartEx\ChartOCX\AddInManager\ChartCommonAddIn\DlgYScaleSetUp.cpp

; 543  : 	else if( m_strMaxPrice == "100" && m_strMinPrice == "-100" )

  000e8	75 2b		 jne	 SHORT $LN9@OnChangeMa
; File C:\Program Files (x86)\Microsoft Visual Studio\2019\Community\VC\Tools\MSVC\14.29.30133\atlmfc\include\cstringt.h

; 2486 : 		return(str1.Compare(psz2) == 0);

  000ea	68 00 00 00 00	 push	 OFFSET ??_C@_04LDDGKPPA@?9100@
  000ef	8d 8e b8 00 00
	00		 lea	 ecx, DWORD PTR [esi+184]
  000f5	ff 15 00 00 00
	00		 call	 DWORD PTR __imp_?Compare@?$CStringT@DV?$StrTraitMFC_DLL@DV?$ChTraitsCRT@D@ATL@@@@@ATL@@QBEHPBD@Z
  000fb	85 c0		 test	 eax, eax
; File D:\git\src\IBK\IBK_DRFN\ProjSrc\SrcChartEx\ChartOCX\AddInManager\ChartCommonAddIn\DlgYScaleSetUp.cpp

; 543  : 	else if( m_strMaxPrice == "100" && m_strMinPrice == "-100" )

  000fd	75 16		 jne	 SHORT $LN9@OnChangeMa

; 544  : 		m_nSelectPercent = 3;
; 545  : 	
; 546  : 	else
; 547  : 		m_nSelectPercent = -1;
; 548  : 
; 549  : 	UpdateData(FALSE);

  000ff	50		 push	 eax
  00100	8b ce		 mov	 ecx, esi
  00102	c7 86 ac 00 00
	00 03 00 00 00	 mov	 DWORD PTR [esi+172], 3
  0010c	e8 00 00 00 00	 call	 ?UpdateData@CWnd@@QAEHH@Z ; CWnd::UpdateData
  00111	5f		 pop	 edi
  00112	5b		 pop	 ebx
  00113	5e		 pop	 esi

; 550  : }

  00114	c3		 ret	 0
$LN9@OnChangeMa:

; 544  : 		m_nSelectPercent = 3;
; 545  : 	
; 546  : 	else
; 547  : 		m_nSelectPercent = -1;
; 548  : 
; 549  : 	UpdateData(FALSE);

  00115	6a 00		 push	 0
  00117	8b ce		 mov	 ecx, esi
  00119	c7 86 ac 00 00
	00 ff ff ff ff	 mov	 DWORD PTR [esi+172], -1
  00123	e8 00 00 00 00	 call	 ?UpdateData@CWnd@@QAEHH@Z ; CWnd::UpdateData
  00128	5f		 pop	 edi
  00129	5b		 pop	 ebx
$LN1@OnChangeMa:

; 550  : }

  0012a	5e		 pop	 esi
  0012b	c3		 ret	 0
?OnChangeMaxPriceEdit@CDlgYScaleSetUp@@IAEXXZ ENDP	; CDlgYScaleSetUp::OnChangeMaxPriceEdit
_TEXT	ENDS
; Function compile flags: /Ogtp
; File D:\git\src\IBK\IBK_DRFN\ProjSrc\SrcChartEx\ChartOCX\AddInManager\ChartCommonAddIn\DlgYScaleSetUp.cpp
;	COMDAT ?On100Percent@CDlgYScaleSetUp@@IAEXXZ
_TEXT	SEGMENT
?On100Percent@CDlgYScaleSetUp@@IAEXXZ PROC		; CDlgYScaleSetUp::On100Percent, COMDAT
; _this$ = ecx

; 508  : 	// TODO: Add your control notification handler code here
; 509  : 	m_nSelectPercent = 3;
; 510  : 
; 511  : 	m_dYScaleMaxPercentValue = 100;

  00000	f2 0f 10 0d 00
	00 00 00	 movsd	 xmm1, QWORD PTR __real@4059000000000000

; 512  : 	m_dYScaleMinPercentValue = -100;

  00008	f2 0f 10 05 00
	00 00 00	 movsd	 xmm0, QWORD PTR __real@c059000000000000
  00010	57		 push	 edi
  00011	8b f9		 mov	 edi, ecx

; 513  : 		
; 514  : 	m_strMaxPrice.Format("%.f", m_dYScaleMaxPercentValue);

  00013	83 ec 08	 sub	 esp, 8
  00016	f2 0f 11 0c 24	 movsd	 QWORD PTR [esp], xmm1
  0001b	8d 87 b4 00 00
	00		 lea	 eax, DWORD PTR [edi+180]
  00021	68 00 00 00 00	 push	 OFFSET ??_C@_03EICDNICE@?$CF?4f@
  00026	50		 push	 eax
  00027	c7 87 ac 00 00
	00 03 00 00 00	 mov	 DWORD PTR [edi+172], 3
  00031	f2 0f 11 8f f8
	00 00 00	 movsd	 QWORD PTR [edi+248], xmm1
  00039	f2 0f 11 87 00
	01 00 00	 movsd	 QWORD PTR [edi+256], xmm0
  00041	ff 15 00 00 00
	00		 call	 DWORD PTR __imp_?Format@?$CStringT@DV?$StrTraitMFC_DLL@DV?$ChTraitsCRT@D@ATL@@@@@ATL@@QAAXPBDZZ

; 515  : 	m_strMinPrice.Format("%.f", m_dYScaleMinPercentValue);

  00047	f2 0f 10 87 00
	01 00 00	 movsd	 xmm0, QWORD PTR [edi+256]
  0004f	8d 87 b8 00 00
	00		 lea	 eax, DWORD PTR [edi+184]
  00055	83 c4 08	 add	 esp, 8
  00058	f2 0f 11 04 24	 movsd	 QWORD PTR [esp], xmm0
  0005d	68 00 00 00 00	 push	 OFFSET ??_C@_03EICDNICE@?$CF?4f@
  00062	50		 push	 eax
  00063	ff 15 00 00 00
	00		 call	 DWORD PTR __imp_?Format@?$CStringT@DV?$StrTraitMFC_DLL@DV?$ChTraitsCRT@D@ATL@@@@@ATL@@QAAXPBDZZ
  00069	83 c4 10	 add	 esp, 16			; 00000010H

; 516  : 
; 517  : 	UpdateData(FALSE);	

  0006c	8b cf		 mov	 ecx, edi
  0006e	6a 00		 push	 0
  00070	e8 00 00 00 00	 call	 ?UpdateData@CWnd@@QAEHH@Z ; CWnd::UpdateData
  00075	5f		 pop	 edi

; 518  : }

  00076	c3		 ret	 0
?On100Percent@CDlgYScaleSetUp@@IAEXXZ ENDP		; CDlgYScaleSetUp::On100Percent
_TEXT	ENDS
; Function compile flags: /Ogtp
; File D:\git\src\IBK\IBK_DRFN\ProjSrc\SrcChartEx\ChartOCX\AddInManager\ChartCommonAddIn\DlgYScaleSetUp.cpp
;	COMDAT ?On70Percent@CDlgYScaleSetUp@@IAEXXZ
_TEXT	SEGMENT
?On70Percent@CDlgYScaleSetUp@@IAEXXZ PROC		; CDlgYScaleSetUp::On70Percent, COMDAT
; _this$ = ecx

; 494  : 	// TODO: Add your control notification handler code here
; 495  : 	m_nSelectPercent = 2;
; 496  : 
; 497  : 	m_dYScaleMaxPercentValue = 70;

  00000	f2 0f 10 0d 00
	00 00 00	 movsd	 xmm1, QWORD PTR __real@4051800000000000

; 498  : 	m_dYScaleMinPercentValue = -70;

  00008	f2 0f 10 05 00
	00 00 00	 movsd	 xmm0, QWORD PTR __real@c051800000000000
  00010	57		 push	 edi
  00011	8b f9		 mov	 edi, ecx

; 499  : 		
; 500  : 	m_strMaxPrice.Format("%.f", m_dYScaleMaxPercentValue);

  00013	83 ec 08	 sub	 esp, 8
  00016	f2 0f 11 0c 24	 movsd	 QWORD PTR [esp], xmm1
  0001b	8d 87 b4 00 00
	00		 lea	 eax, DWORD PTR [edi+180]
  00021	68 00 00 00 00	 push	 OFFSET ??_C@_03EICDNICE@?$CF?4f@
  00026	50		 push	 eax
  00027	c7 87 ac 00 00
	00 02 00 00 00	 mov	 DWORD PTR [edi+172], 2
  00031	f2 0f 11 8f f8
	00 00 00	 movsd	 QWORD PTR [edi+248], xmm1
  00039	f2 0f 11 87 00
	01 00 00	 movsd	 QWORD PTR [edi+256], xmm0
  00041	ff 15 00 00 00
	00		 call	 DWORD PTR __imp_?Format@?$CStringT@DV?$StrTraitMFC_DLL@DV?$ChTraitsCRT@D@ATL@@@@@ATL@@QAAXPBDZZ

; 501  : 	m_strMinPrice.Format("%.f", m_dYScaleMinPercentValue);

  00047	f2 0f 10 87 00
	01 00 00	 movsd	 xmm0, QWORD PTR [edi+256]
  0004f	8d 87 b8 00 00
	00		 lea	 eax, DWORD PTR [edi+184]
  00055	83 c4 08	 add	 esp, 8
  00058	f2 0f 11 04 24	 movsd	 QWORD PTR [esp], xmm0
  0005d	68 00 00 00 00	 push	 OFFSET ??_C@_03EICDNICE@?$CF?4f@
  00062	50		 push	 eax
  00063	ff 15 00 00 00
	00		 call	 DWORD PTR __imp_?Format@?$CStringT@DV?$StrTraitMFC_DLL@DV?$ChTraitsCRT@D@ATL@@@@@ATL@@QAAXPBDZZ
  00069	83 c4 10	 add	 esp, 16			; 00000010H

; 502  : 
; 503  : 	UpdateData(FALSE);	

  0006c	8b cf		 mov	 ecx, edi
  0006e	6a 00		 push	 0
  00070	e8 00 00 00 00	 call	 ?UpdateData@CWnd@@QAEHH@Z ; CWnd::UpdateData
  00075	5f		 pop	 edi

; 504  : }

  00076	c3		 ret	 0
?On70Percent@CDlgYScaleSetUp@@IAEXXZ ENDP		; CDlgYScaleSetUp::On70Percent
_TEXT	ENDS
; Function compile flags: /Ogtp
; File D:\git\src\IBK\IBK_DRFN\ProjSrc\SrcChartEx\ChartOCX\AddInManager\ChartCommonAddIn\DlgYScaleSetUp.cpp
;	COMDAT ?On50Percent@CDlgYScaleSetUp@@IAEXXZ
_TEXT	SEGMENT
?On50Percent@CDlgYScaleSetUp@@IAEXXZ PROC		; CDlgYScaleSetUp::On50Percent, COMDAT
; _this$ = ecx

; 480  : 	// TODO: Add your control notification handler code here
; 481  : 	m_nSelectPercent = 1;
; 482  : 
; 483  : 	m_dYScaleMaxPercentValue = 50;

  00000	f2 0f 10 0d 00
	00 00 00	 movsd	 xmm1, QWORD PTR __real@4049000000000000

; 484  : 	m_dYScaleMinPercentValue = -50;

  00008	f2 0f 10 05 00
	00 00 00	 movsd	 xmm0, QWORD PTR __real@c049000000000000
  00010	57		 push	 edi
  00011	8b f9		 mov	 edi, ecx

; 485  : 		
; 486  : 	m_strMaxPrice.Format("%.f", m_dYScaleMaxPercentValue);

  00013	83 ec 08	 sub	 esp, 8
  00016	f2 0f 11 0c 24	 movsd	 QWORD PTR [esp], xmm1
  0001b	8d 87 b4 00 00
	00		 lea	 eax, DWORD PTR [edi+180]
  00021	68 00 00 00 00	 push	 OFFSET ??_C@_03EICDNICE@?$CF?4f@
  00026	50		 push	 eax
  00027	c7 87 ac 00 00
	00 01 00 00 00	 mov	 DWORD PTR [edi+172], 1
  00031	f2 0f 11 8f f8
	00 00 00	 movsd	 QWORD PTR [edi+248], xmm1
  00039	f2 0f 11 87 00
	01 00 00	 movsd	 QWORD PTR [edi+256], xmm0
  00041	ff 15 00 00 00
	00		 call	 DWORD PTR __imp_?Format@?$CStringT@DV?$StrTraitMFC_DLL@DV?$ChTraitsCRT@D@ATL@@@@@ATL@@QAAXPBDZZ

; 487  : 	m_strMinPrice.Format("%.f", m_dYScaleMinPercentValue);

  00047	f2 0f 10 87 00
	01 00 00	 movsd	 xmm0, QWORD PTR [edi+256]
  0004f	8d 87 b8 00 00
	00		 lea	 eax, DWORD PTR [edi+184]
  00055	83 c4 08	 add	 esp, 8
  00058	f2 0f 11 04 24	 movsd	 QWORD PTR [esp], xmm0
  0005d	68 00 00 00 00	 push	 OFFSET ??_C@_03EICDNICE@?$CF?4f@
  00062	50		 push	 eax
  00063	ff 15 00 00 00
	00		 call	 DWORD PTR __imp_?Format@?$CStringT@DV?$StrTraitMFC_DLL@DV?$ChTraitsCRT@D@ATL@@@@@ATL@@QAAXPBDZZ
  00069	83 c4 10	 add	 esp, 16			; 00000010H

; 488  : 
; 489  : 	UpdateData(FALSE);	

  0006c	8b cf		 mov	 ecx, edi
  0006e	6a 00		 push	 0
  00070	e8 00 00 00 00	 call	 ?UpdateData@CWnd@@QAEHH@Z ; CWnd::UpdateData
  00075	5f		 pop	 edi

; 490  : }

  00076	c3		 ret	 0
?On50Percent@CDlgYScaleSetUp@@IAEXXZ ENDP		; CDlgYScaleSetUp::On50Percent
_TEXT	ENDS
; Function compile flags: /Ogtp
; File D:\git\src\IBK\IBK_DRFN\ProjSrc\SrcChartEx\ChartOCX\AddInManager\ChartCommonAddIn\DlgYScaleSetUp.cpp
;	COMDAT ?On30Percent@CDlgYScaleSetUp@@IAEXXZ
_TEXT	SEGMENT
?On30Percent@CDlgYScaleSetUp@@IAEXXZ PROC		; CDlgYScaleSetUp::On30Percent, COMDAT
; _this$ = ecx

; 466  : 	// TODO: Add your control notification handler code here
; 467  : 	m_nSelectPercent = 0;
; 468  : 
; 469  : 	m_dYScaleMaxPercentValue = 30;

  00000	f2 0f 10 0d 00
	00 00 00	 movsd	 xmm1, QWORD PTR __real@403e000000000000

; 470  : 	m_dYScaleMinPercentValue = -30;

  00008	f2 0f 10 05 00
	00 00 00	 movsd	 xmm0, QWORD PTR __real@c03e000000000000
  00010	57		 push	 edi
  00011	8b f9		 mov	 edi, ecx

; 471  : 		
; 472  : 	m_strMaxPrice.Format("%.f", m_dYScaleMaxPercentValue);

  00013	83 ec 08	 sub	 esp, 8
  00016	f2 0f 11 0c 24	 movsd	 QWORD PTR [esp], xmm1
  0001b	8d 87 b4 00 00
	00		 lea	 eax, DWORD PTR [edi+180]
  00021	68 00 00 00 00	 push	 OFFSET ??_C@_03EICDNICE@?$CF?4f@
  00026	50		 push	 eax
  00027	c7 87 ac 00 00
	00 00 00 00 00	 mov	 DWORD PTR [edi+172], 0
  00031	f2 0f 11 8f f8
	00 00 00	 movsd	 QWORD PTR [edi+248], xmm1
  00039	f2 0f 11 87 00
	01 00 00	 movsd	 QWORD PTR [edi+256], xmm0
  00041	ff 15 00 00 00
	00		 call	 DWORD PTR __imp_?Format@?$CStringT@DV?$StrTraitMFC_DLL@DV?$ChTraitsCRT@D@ATL@@@@@ATL@@QAAXPBDZZ

; 473  : 	m_strMinPrice.Format("%.f", m_dYScaleMinPercentValue);

  00047	f2 0f 10 87 00
	01 00 00	 movsd	 xmm0, QWORD PTR [edi+256]
  0004f	8d 87 b8 00 00
	00		 lea	 eax, DWORD PTR [edi+184]
  00055	83 c4 08	 add	 esp, 8
  00058	f2 0f 11 04 24	 movsd	 QWORD PTR [esp], xmm0
  0005d	68 00 00 00 00	 push	 OFFSET ??_C@_03EICDNICE@?$CF?4f@
  00062	50		 push	 eax
  00063	ff 15 00 00 00
	00		 call	 DWORD PTR __imp_?Format@?$CStringT@DV?$StrTraitMFC_DLL@DV?$ChTraitsCRT@D@ATL@@@@@ATL@@QAAXPBDZZ
  00069	83 c4 10	 add	 esp, 16			; 00000010H

; 474  : 
; 475  : 	UpdateData(FALSE);

  0006c	8b cf		 mov	 ecx, edi
  0006e	6a 00		 push	 0
  00070	e8 00 00 00 00	 call	 ?UpdateData@CWnd@@QAEHH@Z ; CWnd::UpdateData
  00075	5f		 pop	 edi

; 476  : }

  00076	c3		 ret	 0
?On30Percent@CDlgYScaleSetUp@@IAEXXZ ENDP		; CDlgYScaleSetUp::On30Percent
_TEXT	ENDS
; Function compile flags: /Ogtp
; File D:\git\src\IBK\IBK_DRFN\ProjSrc\SrcChartEx\ChartOCX\AddInManager\ChartCommonAddIn\DlgYScaleSetUp.cpp
;	COMDAT ?OnCancel@CDlgYScaleSetUp@@MAEXXZ
_TEXT	SEGMENT
?OnCancel@CDlgYScaleSetUp@@MAEXXZ PROC			; CDlgYScaleSetUp::OnCancel, COMDAT
; _this$ = ecx

; 380  : 	// TODO: Add extra cleanup here
; 381  : 	
; 382  : 	CDialog::OnCancel();

  00000	e9 00 00 00 00	 jmp	 ?OnCancel@CDialog@@MAEXXZ ; CDialog::OnCancel
?OnCancel@CDlgYScaleSetUp@@MAEXXZ ENDP			; CDlgYScaleSetUp::OnCancel
_TEXT	ENDS
; Function compile flags: /Ogtp
; File D:\git\src\IBK\IBK_DRFN\ProjSrc\SrcChartEx\ChartOCX\AddInManager\ChartCommonAddIn\DlgYScaleSetUp.cpp
;	COMDAT ?OnOK@CDlgYScaleSetUp@@MAEXXZ
_TEXT	SEGMENT
$T2 = -28						; size = 4
$T3 = -24						; size = 4
_strMaxPrice$4 = -20					; size = 4
_strMinPrice$5 = -16					; size = 4
__$EHRec$ = -12						; size = 12
?OnOK@CDlgYScaleSetUp@@MAEXXZ PROC			; CDlgYScaleSetUp::OnOK, COMDAT
; _this$ = ecx

; 340  : {

  00000	55		 push	 ebp
  00001	8b ec		 mov	 ebp, esp
  00003	6a ff		 push	 -1
  00005	68 00 00 00 00	 push	 __ehhandler$?OnOK@CDlgYScaleSetUp@@MAEXXZ
  0000a	64 a1 00 00 00
	00		 mov	 eax, DWORD PTR fs:0
  00010	50		 push	 eax
  00011	83 ec 10	 sub	 esp, 16			; 00000010H
  00014	56		 push	 esi
  00015	57		 push	 edi
  00016	a1 00 00 00 00	 mov	 eax, DWORD PTR ___security_cookie
  0001b	33 c5		 xor	 eax, ebp
  0001d	50		 push	 eax
  0001e	8d 45 f4	 lea	 eax, DWORD PTR __$EHRec$[ebp]
  00021	64 a3 00 00 00
	00		 mov	 DWORD PTR fs:0, eax
  00027	8b f1		 mov	 esi, ecx

; 341  : 	// TODO: Add extra validation here
; 342  : 	UpdateData(TRUE);

  00029	6a 01		 push	 1
  0002b	e8 00 00 00 00	 call	 ?UpdateData@CWnd@@QAEHH@Z ; CWnd::UpdateData

; 343  : 
; 344  : 	if( m_nYScaleMaxMinSetupType == 0 )

  00030	83 be a8 00 00
	00 00		 cmp	 DWORD PTR [esi+168], 0
  00037	0f 85 e5 00 00
	00		 jne	 $LN2@OnOK

; 345  : 	{
; 346  : 		// 20081016  
; 347  : 		CString strMaxPrice, strMinPrice;

  0003d	8d 4d ec	 lea	 ecx, DWORD PTR _strMaxPrice$4[ebp]
  00040	ff 15 00 00 00
	00		 call	 DWORD PTR __imp_??0?$CStringT@DV?$StrTraitMFC_DLL@DV?$ChTraitsCRT@D@ATL@@@@@ATL@@QAE@XZ
  00046	8d 4d f0	 lea	 ecx, DWORD PTR _strMinPrice$5[ebp]
  00049	c7 45 fc 00 00
	00 00		 mov	 DWORD PTR __$EHRec$[ebp+8], 0
  00050	ff 15 00 00 00
	00		 call	 DWORD PTR __imp_??0?$CStringT@DV?$StrTraitMFC_DLL@DV?$ChTraitsCRT@D@ATL@@@@@ATL@@QAE@XZ

; 348  : 		BOOL bSuccess = CDataConversion::GetDataToDec(m_strMaxPrice, m_strPacketType, strMaxPrice);

  00056	8d 45 ec	 lea	 eax, DWORD PTR _strMaxPrice$4[ebp]
  00059	c6 45 fc 01	 mov	 BYTE PTR __$EHRec$[ebp+8], 1
  0005d	50		 push	 eax
  0005e	51		 push	 ecx
  0005f	8d be 0c 01 00
	00		 lea	 edi, DWORD PTR [esi+268]
  00065	89 65 e8	 mov	 DWORD PTR $T3[ebp], esp
  00068	8b cc		 mov	 ecx, esp
  0006a	57		 push	 edi
  0006b	ff 15 00 00 00
	00		 call	 DWORD PTR __imp_??0?$CStringT@DV?$StrTraitMFC_DLL@DV?$ChTraitsCRT@D@ATL@@@@@ATL@@QAE@ABV01@@Z
  00071	51		 push	 ecx
  00072	8d 86 b4 00 00
	00		 lea	 eax, DWORD PTR [esi+180]
  00078	c6 45 fc 02	 mov	 BYTE PTR __$EHRec$[ebp+8], 2
  0007c	8b cc		 mov	 ecx, esp
  0007e	50		 push	 eax
  0007f	ff 15 00 00 00
	00		 call	 DWORD PTR __imp_??0?$CStringT@DV?$StrTraitMFC_DLL@DV?$ChTraitsCRT@D@ATL@@@@@ATL@@QAE@ABV01@@Z
  00085	c6 45 fc 01	 mov	 BYTE PTR __$EHRec$[ebp+8], 1
  00089	e8 00 00 00 00	 call	 ?GetDataToDec@CDataConversion@@SAHV?$CStringT@DV?$StrTraitMFC_DLL@DV?$ChTraitsCRT@D@ATL@@@@@ATL@@0AAV23@@Z ; CDataConversion::GetDataToDec
  0008e	83 c4 0c	 add	 esp, 12			; 0000000cH

; 349  : 		if(!bSuccess)

  00091	85 c0		 test	 eax, eax
  00093	75 0e		 jne	 SHORT $LN4@OnOK

; 350  : 			strMaxPrice = "0.0";

  00095	68 00 00 00 00	 push	 OFFSET ??_C@_03MDAFIFFL@0?40@
  0009a	8d 4d ec	 lea	 ecx, DWORD PTR _strMaxPrice$4[ebp]
  0009d	ff 15 00 00 00
	00		 call	 DWORD PTR __imp_??4?$CStringT@DV?$StrTraitMFC_DLL@DV?$ChTraitsCRT@D@ATL@@@@@ATL@@QAEAAV01@PBD@Z
$LN4@OnOK:

; 351  : 		bSuccess = CDataConversion::GetDataToDec(m_strMinPrice, m_strPacketType, strMinPrice);

  000a3	8d 45 f0	 lea	 eax, DWORD PTR _strMinPrice$5[ebp]
  000a6	50		 push	 eax
  000a7	51		 push	 ecx
  000a8	8b cc		 mov	 ecx, esp
  000aa	89 65 e4	 mov	 DWORD PTR $T2[ebp], esp
  000ad	57		 push	 edi
  000ae	ff 15 00 00 00
	00		 call	 DWORD PTR __imp_??0?$CStringT@DV?$StrTraitMFC_DLL@DV?$ChTraitsCRT@D@ATL@@@@@ATL@@QAE@ABV01@@Z
  000b4	51		 push	 ecx
  000b5	8d 86 b8 00 00
	00		 lea	 eax, DWORD PTR [esi+184]
  000bb	c6 45 fc 03	 mov	 BYTE PTR __$EHRec$[ebp+8], 3
  000bf	8b cc		 mov	 ecx, esp
  000c1	50		 push	 eax
  000c2	ff 15 00 00 00
	00		 call	 DWORD PTR __imp_??0?$CStringT@DV?$StrTraitMFC_DLL@DV?$ChTraitsCRT@D@ATL@@@@@ATL@@QAE@ABV01@@Z
  000c8	c6 45 fc 01	 mov	 BYTE PTR __$EHRec$[ebp+8], 1
  000cc	e8 00 00 00 00	 call	 ?GetDataToDec@CDataConversion@@SAHV?$CStringT@DV?$StrTraitMFC_DLL@DV?$ChTraitsCRT@D@ATL@@@@@ATL@@0AAV23@@Z ; CDataConversion::GetDataToDec
  000d1	83 c4 0c	 add	 esp, 12			; 0000000cH

; 352  : 		if(!bSuccess)

  000d4	85 c0		 test	 eax, eax
  000d6	75 0e		 jne	 SHORT $LN5@OnOK

; 353  : 			strMinPrice = "0.0";

  000d8	68 00 00 00 00	 push	 OFFSET ??_C@_03MDAFIFFL@0?40@
  000dd	8d 4d f0	 lea	 ecx, DWORD PTR _strMinPrice$5[ebp]
  000e0	ff 15 00 00 00
	00		 call	 DWORD PTR __imp_??4?$CStringT@DV?$StrTraitMFC_DLL@DV?$ChTraitsCRT@D@ATL@@@@@ATL@@QAEAAV01@PBD@Z
$LN5@OnOK:

; 354  : 		m_dYScaleMaxValue = atof(strMaxPrice);

  000e6	ff 75 ec	 push	 DWORD PTR _strMaxPrice$4[ebp]
  000e9	ff 15 00 00 00
	00		 call	 DWORD PTR __imp__atof

; 355  : 		m_dYScaleMinValue = atof(strMinPrice);

  000ef	ff 75 f0	 push	 DWORD PTR _strMinPrice$5[ebp]
  000f2	dd 9e e8 00 00
	00		 fstp	 QWORD PTR [esi+232]
  000f8	ff 15 00 00 00
	00		 call	 DWORD PTR __imp__atof
  000fe	83 c4 08	 add	 esp, 8

; 356  : //		m_dYScaleMaxValue = atof(m_strMaxPrice);
; 357  : //		m_dYScaleMinValue = atof(m_strMinPrice);
; 358  : 	}

  00101	8d 4d f0	 lea	 ecx, DWORD PTR _strMinPrice$5[ebp]
  00104	dd 9e f0 00 00
	00		 fstp	 QWORD PTR [esi+240]
  0010a	ff 15 00 00 00
	00		 call	 DWORD PTR __imp_??1?$CStringT@DV?$StrTraitMFC_DLL@DV?$ChTraitsCRT@D@ATL@@@@@ATL@@QAE@XZ
  00110	8d 4d ec	 lea	 ecx, DWORD PTR _strMaxPrice$4[ebp]
  00113	c7 45 fc ff ff
	ff ff		 mov	 DWORD PTR __$EHRec$[ebp+8], -1
  0011a	ff 15 00 00 00
	00		 call	 DWORD PTR __imp_??1?$CStringT@DV?$StrTraitMFC_DLL@DV?$ChTraitsCRT@D@ATL@@@@@ATL@@QAE@XZ
  00120	eb 27		 jmp	 SHORT $LN3@OnOK
$LN2@OnOK:

; 359  : 
; 360  : 	else
; 361  : 	{
; 362  : 		m_dYScaleMaxPercentValue = atof(m_strMaxPrice);

  00122	ff b6 b4 00 00
	00		 push	 DWORD PTR [esi+180]
  00128	ff 15 00 00 00
	00		 call	 DWORD PTR __imp__atof

; 363  : 		m_dYScaleMinPercentValue = atof(m_strMinPrice);

  0012e	ff b6 b8 00 00
	00		 push	 DWORD PTR [esi+184]
  00134	dd 9e f8 00 00
	00		 fstp	 QWORD PTR [esi+248]
  0013a	ff 15 00 00 00
	00		 call	 DWORD PTR __imp__atof
  00140	dd 9e 00 01 00
	00		 fstp	 QWORD PTR [esi+256]
  00146	83 c4 08	 add	 esp, 8
$LN3@OnOK:

; 364  : 	}
; 365  : 
; 366  : 	if( m_pAddIn )

  00149	8b 8e c4 00 00
	00		 mov	 ecx, DWORD PTR [esi+196]
  0014f	85 c9		 test	 ecx, ecx
  00151	74 25		 je	 SHORT $LN6@OnOK

; 367  : 		m_pAddIn->SetYScaleAllValue( m_nYScaleMaxMinSetupType, m_dYScaleMaxValue, m_dYScaleMinValue,

  00153	0f 10 86 f8 00
	00 00		 movups	 xmm0, XMMWORD PTR [esi+248]
  0015a	83 ec 20	 sub	 esp, 32			; 00000020H
  0015d	0f 11 44 24 10	 movups	 XMMWORD PTR [esp+16], xmm0
  00162	0f 10 86 e8 00
	00 00		 movups	 xmm0, XMMWORD PTR [esi+232]
  00169	0f 11 04 24	 movups	 XMMWORD PTR [esp], xmm0
  0016d	ff b6 a8 00 00
	00		 push	 DWORD PTR [esi+168]
  00173	e8 00 00 00 00	 call	 ?SetYScaleAllValue@CYScaleSetUpAddInImp@@QAEXHNNNN@Z ; CYScaleSetUpAddInImp::SetYScaleAllValue
$LN6@OnOK:

; 368  : 									 m_dYScaleMaxPercentValue, m_dYScaleMinPercentValue );
; 369  : 	CDialog::OnOK();

  00178	8b ce		 mov	 ecx, esi
  0017a	e8 00 00 00 00	 call	 ?OnOK@CDialog@@MAEXXZ	; CDialog::OnOK

; 370  : }

  0017f	8b 4d f4	 mov	 ecx, DWORD PTR __$EHRec$[ebp]
  00182	64 89 0d 00 00
	00 00		 mov	 DWORD PTR fs:0, ecx
  00189	59		 pop	 ecx
  0018a	5f		 pop	 edi
  0018b	5e		 pop	 esi
  0018c	8b e5		 mov	 esp, ebp
  0018e	5d		 pop	 ebp
  0018f	c3		 ret	 0
_TEXT	ENDS
;	COMDAT text$x
text$x	SEGMENT
__unwindfunclet$?OnOK@CDlgYScaleSetUp@@MAEXXZ$0:
  00000	8d 4d ec	 lea	 ecx, DWORD PTR _strMaxPrice$4[ebp]
  00003	ff 25 00 00 00
	00		 jmp	 DWORD PTR __imp_??1?$CStringT@DV?$StrTraitMFC_DLL@DV?$ChTraitsCRT@D@ATL@@@@@ATL@@QAE@XZ
__unwindfunclet$?OnOK@CDlgYScaleSetUp@@MAEXXZ$1:
  00009	8d 4d f0	 lea	 ecx, DWORD PTR _strMinPrice$5[ebp]
  0000c	ff 25 00 00 00
	00		 jmp	 DWORD PTR __imp_??1?$CStringT@DV?$StrTraitMFC_DLL@DV?$ChTraitsCRT@D@ATL@@@@@ATL@@QAE@XZ
__unwindfunclet$?OnOK@CDlgYScaleSetUp@@MAEXXZ$2:
  00012	8b 4d e8	 mov	 ecx, DWORD PTR $T3[ebp]
  00015	ff 25 00 00 00
	00		 jmp	 DWORD PTR __imp_??1?$CStringT@DV?$StrTraitMFC_DLL@DV?$ChTraitsCRT@D@ATL@@@@@ATL@@QAE@XZ
__unwindfunclet$?OnOK@CDlgYScaleSetUp@@MAEXXZ$4:
  0001b	8b 4d e4	 mov	 ecx, DWORD PTR $T2[ebp]
  0001e	ff 25 00 00 00
	00		 jmp	 DWORD PTR __imp_??1?$CStringT@DV?$StrTraitMFC_DLL@DV?$ChTraitsCRT@D@ATL@@@@@ATL@@QAE@XZ
  00024	cc		 int	 3
  00025	cc		 int	 3
  00026	cc		 int	 3
  00027	cc		 int	 3
  00028	cc		 int	 3
__ehhandler$?OnOK@CDlgYScaleSetUp@@MAEXXZ:
  00029	90		 npad	 1
  0002a	90		 npad	 1
  0002b	8b 54 24 08	 mov	 edx, DWORD PTR [esp+8]
  0002f	8d 42 0c	 lea	 eax, DWORD PTR [edx+12]
  00032	8b 4a e4	 mov	 ecx, DWORD PTR [edx-28]
  00035	33 c8		 xor	 ecx, eax
  00037	e8 00 00 00 00	 call	 @__security_check_cookie@4
  0003c	b8 00 00 00 00	 mov	 eax, OFFSET __ehfuncinfo$?OnOK@CDlgYScaleSetUp@@MAEXXZ
  00041	e9 00 00 00 00	 jmp	 ___CxxFrameHandler3
text$x	ENDS
?OnOK@CDlgYScaleSetUp@@MAEXXZ ENDP			; CDlgYScaleSetUp::OnOK
; Function compile flags: /Ogtp
; File D:\git\src\IBK\IBK_DRFN\ProjSrc\SrcChartEx\ChartOCX\AddInManager\ChartCommonAddIn\DlgYScaleSetUp.cpp
; File C:\Program Files (x86)\Microsoft Visual Studio\2019\Community\VC\Tools\MSVC\14.29.30133\atlmfc\include\cstringt.h
; File D:\git\src\IBK\IBK_DRFN\ProjSrc\SrcChartEx\ChartOCX\AddInManager\ChartCommonAddIn\DlgYScaleSetUp.cpp
; File C:\Program Files (x86)\Microsoft Visual Studio\2019\Community\VC\Tools\MSVC\14.29.30133\atlmfc\include\cstringt.h
; File D:\git\src\IBK\IBK_DRFN\ProjSrc\SrcChartEx\ChartOCX\AddInManager\ChartCommonAddIn\DlgYScaleSetUp.cpp
; File C:\Program Files (x86)\Microsoft Visual Studio\2019\Community\VC\Tools\MSVC\14.29.30133\atlmfc\include\cstringt.h
; File D:\git\src\IBK\IBK_DRFN\ProjSrc\SrcChartEx\ChartOCX\AddInManager\ChartCommonAddIn\DlgYScaleSetUp.cpp
; File C:\Program Files (x86)\Microsoft Visual Studio\2019\Community\VC\Tools\MSVC\14.29.30133\atlmfc\include\cstringt.h
; File D:\git\src\IBK\IBK_DRFN\ProjSrc\SrcChartEx\ChartOCX\AddInManager\ChartCommonAddIn\DlgYScaleSetUp.cpp
; File C:\Program Files (x86)\Microsoft Visual Studio\2019\Community\VC\Tools\MSVC\14.29.30133\atlmfc\include\cstringt.h
; File D:\git\src\IBK\IBK_DRFN\ProjSrc\SrcChartEx\ChartOCX\AddInManager\ChartCommonAddIn\DlgYScaleSetUp.cpp
; File C:\Program Files (x86)\Microsoft Visual Studio\2019\Community\VC\Tools\MSVC\14.29.30133\atlmfc\include\cstringt.h
; File D:\git\src\IBK\IBK_DRFN\ProjSrc\SrcChartEx\ChartOCX\AddInManager\ChartCommonAddIn\DlgYScaleSetUp.cpp
; File C:\Program Files (x86)\Microsoft Visual Studio\2019\Community\VC\Tools\MSVC\14.29.30133\atlmfc\include\cstringt.h
; File D:\git\src\IBK\IBK_DRFN\ProjSrc\SrcChartEx\ChartOCX\AddInManager\ChartCommonAddIn\DlgYScaleSetUp.cpp
; File C:\Program Files (x86)\Microsoft Visual Studio\2019\Community\VC\Tools\MSVC\14.29.30133\atlmfc\include\cstringt.h
; File D:\git\src\IBK\IBK_DRFN\ProjSrc\SrcChartEx\ChartOCX\AddInManager\ChartCommonAddIn\DlgYScaleSetUp.cpp
;	COMDAT ?OnUsePercent@CDlgYScaleSetUp@@IAEXXZ
_TEXT	SEGMENT
?OnUsePercent@CDlgYScaleSetUp@@IAEXXZ PROC		; CDlgYScaleSetUp::OnUsePercent, COMDAT
; _this$ = ecx

; 291  : {

  00000	53		 push	 ebx
  00001	56		 push	 esi
  00002	57		 push	 edi
  00003	8b f9		 mov	 edi, ecx

; 292  : 	// TODO: Add your control notification handler code here
; 293  : 	m_nYScaleMaxMinSetupType = 1;
; 294  : 
; 295  : 	// 1.    return.
; 296  : 	if( m_bShow )

  00005	83 bf cc 00 00
	00 00		 cmp	 DWORD PTR [edi+204], 0
  0000c	c7 87 a8 00 00
	00 01 00 00 00	 mov	 DWORD PTR [edi+168], 1
  00016	74 05		 je	 SHORT $LN2@OnUsePerce

; 297  : 		MovingAllControls();		// 2.   Control .

  00018	e8 00 00 00 00	 call	 ?MovingAllControls@CDlgYScaleSetUp@@QAEXXZ ; CDlgYScaleSetUp::MovingAllControls
$LN2@OnUsePerce:

; 298  : 
; 299  : 	// 3. " /  " GroupBox   .
; 300  : 
; 301  : 	
; 302  : 	// 4. Percent GroupBox  .
; 303  : 	GetDlgItem(IDC_STATIC_PERCENT)->ShowWindow( SW_SHOW );

  0001d	6a 05		 push	 5
  0001f	68 cc 5d 00 00	 push	 24012			; 00005dccH
  00024	8b cf		 mov	 ecx, edi
  00026	e8 00 00 00 00	 call	 ?GetDlgItem@CWnd@@QBEPAV1@H@Z ; CWnd::GetDlgItem
  0002b	8b c8		 mov	 ecx, eax
  0002d	e8 00 00 00 00	 call	 ?ShowWindow@CWnd@@QAEHH@Z ; CWnd::ShowWindow

; 304  : 
; 305  : 	// 5. Each Percent   .
; 306  : 	GetDlgItem(IDC_30_PERCENT)->ShowWindow( SW_SHOW );

  00032	6a 05		 push	 5
  00034	68 c2 5d 00 00	 push	 24002			; 00005dc2H
  00039	8b cf		 mov	 ecx, edi
  0003b	e8 00 00 00 00	 call	 ?GetDlgItem@CWnd@@QBEPAV1@H@Z ; CWnd::GetDlgItem
  00040	8b c8		 mov	 ecx, eax
  00042	e8 00 00 00 00	 call	 ?ShowWindow@CWnd@@QAEHH@Z ; CWnd::ShowWindow

; 307  : 	GetDlgItem(IDC_50_PERCENT)->ShowWindow( SW_SHOW );

  00047	6a 05		 push	 5
  00049	68 c3 5d 00 00	 push	 24003			; 00005dc3H
  0004e	8b cf		 mov	 ecx, edi
  00050	e8 00 00 00 00	 call	 ?GetDlgItem@CWnd@@QBEPAV1@H@Z ; CWnd::GetDlgItem
  00055	8b c8		 mov	 ecx, eax
  00057	e8 00 00 00 00	 call	 ?ShowWindow@CWnd@@QAEHH@Z ; CWnd::ShowWindow

; 308  : 	GetDlgItem(IDC_70_PERCENT)->ShowWindow( SW_SHOW );

  0005c	6a 05		 push	 5
  0005e	68 c4 5d 00 00	 push	 24004			; 00005dc4H
  00063	8b cf		 mov	 ecx, edi
  00065	e8 00 00 00 00	 call	 ?GetDlgItem@CWnd@@QBEPAV1@H@Z ; CWnd::GetDlgItem
  0006a	8b c8		 mov	 ecx, eax
  0006c	e8 00 00 00 00	 call	 ?ShowWindow@CWnd@@QAEHH@Z ; CWnd::ShowWindow

; 309  : 	GetDlgItem(IDC_100_PERCENT)->ShowWindow( SW_SHOW );

  00071	6a 05		 push	 5
  00073	68 c5 5d 00 00	 push	 24005			; 00005dc5H
  00078	8b cf		 mov	 ecx, edi
  0007a	e8 00 00 00 00	 call	 ?GetDlgItem@CWnd@@QBEPAV1@H@Z ; CWnd::GetDlgItem
  0007f	8b c8		 mov	 ecx, eax
  00081	e8 00 00 00 00	 call	 ?ShowWindow@CWnd@@QAEHH@Z ; CWnd::ShowWindow

; 310  : 
; 311  : 	// 6.   Text .
; 312  : 	GetDlgItem(IDC_MAX_PRICE_UNIT)->SetWindowText("%");

  00086	68 00 00 00 00	 push	 OFFSET ??_C@_01FGNFDNOH@?$CF@
  0008b	68 c8 5d 00 00	 push	 24008			; 00005dc8H
  00090	8b cf		 mov	 ecx, edi
  00092	e8 00 00 00 00	 call	 ?GetDlgItem@CWnd@@QBEPAV1@H@Z ; CWnd::GetDlgItem
  00097	8b c8		 mov	 ecx, eax
  00099	e8 00 00 00 00	 call	 ?SetWindowTextA@CWnd@@QAEXPBD@Z ; CWnd::SetWindowTextA

; 313  : 	GetDlgItem(IDC_MIN_PRICE_UNIT)->SetWindowText("%");

  0009e	68 00 00 00 00	 push	 OFFSET ??_C@_01FGNFDNOH@?$CF@
  000a3	68 ca 5d 00 00	 push	 24010			; 00005dcaH
  000a8	8b cf		 mov	 ecx, edi
  000aa	e8 00 00 00 00	 call	 ?GetDlgItem@CWnd@@QBEPAV1@H@Z ; CWnd::GetDlgItem
  000af	8b c8		 mov	 ecx, eax
  000b1	e8 00 00 00 00	 call	 ?SetWindowTextA@CWnd@@QAEXPBD@Z ; CWnd::SetWindowTextA

; 314  : 
; 315  : 	m_strMaxPrice.Format("%.f", m_dYScaleMaxPercentValue);

  000b6	f2 0f 10 87 f8
	00 00 00	 movsd	 xmm0, QWORD PTR [edi+248]
  000be	8d 87 b4 00 00
	00		 lea	 eax, DWORD PTR [edi+180]
  000c4	8b 35 00 00 00
	00		 mov	 esi, DWORD PTR __imp_?Format@?$CStringT@DV?$StrTraitMFC_DLL@DV?$ChTraitsCRT@D@ATL@@@@@ATL@@QAAXPBDZZ
  000ca	83 ec 08	 sub	 esp, 8
  000cd	f2 0f 11 04 24	 movsd	 QWORD PTR [esp], xmm0
  000d2	68 00 00 00 00	 push	 OFFSET ??_C@_03EICDNICE@?$CF?4f@
  000d7	50		 push	 eax
  000d8	ff d6		 call	 esi

; 316  : 	m_strMinPrice.Format("%.f", m_dYScaleMinPercentValue);

  000da	f2 0f 10 87 00
	01 00 00	 movsd	 xmm0, QWORD PTR [edi+256]
  000e2	8d 9f b8 00 00
	00		 lea	 ebx, DWORD PTR [edi+184]
  000e8	83 c4 08	 add	 esp, 8
  000eb	f2 0f 11 04 24	 movsd	 QWORD PTR [esp], xmm0
  000f0	68 00 00 00 00	 push	 OFFSET ??_C@_03EICDNICE@?$CF?4f@
  000f5	53		 push	 ebx
  000f6	ff d6		 call	 esi
  000f8	83 c4 10	 add	 esp, 16			; 00000010H
; File C:\Program Files (x86)\Microsoft Visual Studio\2019\Community\VC\Tools\MSVC\14.29.30133\atlmfc\include\cstringt.h

; 2486 : 		return(str1.Compare(psz2) == 0);

  000fb	8d 8f b4 00 00
	00		 lea	 ecx, DWORD PTR [edi+180]
  00101	68 00 00 00 00	 push	 OFFSET ??_C@_02PJNFELNH@30@
  00106	ff 15 00 00 00
	00		 call	 DWORD PTR __imp_?Compare@?$CStringT@DV?$StrTraitMFC_DLL@DV?$ChTraitsCRT@D@ATL@@@@@ATL@@QBEHPBD@Z
  0010c	85 c0		 test	 eax, eax
; File D:\git\src\IBK\IBK_DRFN\ProjSrc\SrcChartEx\ChartOCX\AddInManager\ChartCommonAddIn\DlgYScaleSetUp.cpp

; 319  : 	if( m_strMaxPrice == "30" && m_strMinPrice == "-30" )

  0010e	75 23		 jne	 SHORT $LN3@OnUsePerce
; File C:\Program Files (x86)\Microsoft Visual Studio\2019\Community\VC\Tools\MSVC\14.29.30133\atlmfc\include\cstringt.h

; 2486 : 		return(str1.Compare(psz2) == 0);

  00110	68 00 00 00 00	 push	 OFFSET ??_C@_03HFIIDKDK@?930@
  00115	8b cb		 mov	 ecx, ebx
  00117	ff 15 00 00 00
	00		 call	 DWORD PTR __imp_?Compare@?$CStringT@DV?$StrTraitMFC_DLL@DV?$ChTraitsCRT@D@ATL@@@@@ATL@@QBEHPBD@Z
  0011d	85 c0		 test	 eax, eax
; File D:\git\src\IBK\IBK_DRFN\ProjSrc\SrcChartEx\ChartOCX\AddInManager\ChartCommonAddIn\DlgYScaleSetUp.cpp

; 319  : 	if( m_strMaxPrice == "30" && m_strMinPrice == "-30" )

  0011f	75 12		 jne	 SHORT $LN3@OnUsePerce

; 326  : 		m_nSelectPercent = 3;
; 327  : 	else
; 328  : 		m_nSelectPercent = -1;
; 329  : 
; 330  : 	UpdateData(FALSE);

  00121	50		 push	 eax
  00122	8b cf		 mov	 ecx, edi
  00124	89 87 ac 00 00
	00		 mov	 DWORD PTR [edi+172], eax
  0012a	e8 00 00 00 00	 call	 ?UpdateData@CWnd@@QAEHH@Z ; CWnd::UpdateData
  0012f	5f		 pop	 edi
  00130	5e		 pop	 esi
  00131	5b		 pop	 ebx

; 331  : }

  00132	c3		 ret	 0
$LN3@OnUsePerce:
; File C:\Program Files (x86)\Microsoft Visual Studio\2019\Community\VC\Tools\MSVC\14.29.30133\atlmfc\include\cstringt.h

; 2486 : 		return(str1.Compare(psz2) == 0);

  00133	68 00 00 00 00	 push	 OFFSET ??_C@_02PNFIDHGF@50@
  00138	8d 8f b4 00 00
	00		 lea	 ecx, DWORD PTR [edi+180]
  0013e	ff 15 00 00 00
	00		 call	 DWORD PTR __imp_?Compare@?$CStringT@DV?$StrTraitMFC_DLL@DV?$ChTraitsCRT@D@ATL@@@@@ATL@@QBEHPBD@Z
  00144	85 c0		 test	 eax, eax
; File D:\git\src\IBK\IBK_DRFN\ProjSrc\SrcChartEx\ChartOCX\AddInManager\ChartCommonAddIn\DlgYScaleSetUp.cpp

; 321  : 	else if( m_strMaxPrice == "50" && m_strMinPrice == "-50" )

  00146	75 27		 jne	 SHORT $LN5@OnUsePerce
; File C:\Program Files (x86)\Microsoft Visual Studio\2019\Community\VC\Tools\MSVC\14.29.30133\atlmfc\include\cstringt.h

; 2486 : 		return(str1.Compare(psz2) == 0);

  00148	68 00 00 00 00	 push	 OFFSET ??_C@_03HBAFEGII@?950@
  0014d	8b cb		 mov	 ecx, ebx
  0014f	ff 15 00 00 00
	00		 call	 DWORD PTR __imp_?Compare@?$CStringT@DV?$StrTraitMFC_DLL@DV?$ChTraitsCRT@D@ATL@@@@@ATL@@QBEHPBD@Z
  00155	85 c0		 test	 eax, eax
; File D:\git\src\IBK\IBK_DRFN\ProjSrc\SrcChartEx\ChartOCX\AddInManager\ChartCommonAddIn\DlgYScaleSetUp.cpp

; 321  : 	else if( m_strMaxPrice == "50" && m_strMinPrice == "-50" )

  00157	75 16		 jne	 SHORT $LN5@OnUsePerce

; 326  : 		m_nSelectPercent = 3;
; 327  : 	else
; 328  : 		m_nSelectPercent = -1;
; 329  : 
; 330  : 	UpdateData(FALSE);

  00159	50		 push	 eax
  0015a	8b cf		 mov	 ecx, edi
  0015c	c7 87 ac 00 00
	00 01 00 00 00	 mov	 DWORD PTR [edi+172], 1
  00166	e8 00 00 00 00	 call	 ?UpdateData@CWnd@@QAEHH@Z ; CWnd::UpdateData
  0016b	5f		 pop	 edi
  0016c	5e		 pop	 esi
  0016d	5b		 pop	 ebx

; 331  : }

  0016e	c3		 ret	 0
$LN5@OnUsePerce:
; File C:\Program Files (x86)\Microsoft Visual Studio\2019\Community\VC\Tools\MSVC\14.29.30133\atlmfc\include\cstringt.h

; 2486 : 		return(str1.Compare(psz2) == 0);

  0016f	68 00 00 00 00	 push	 OFFSET ??_C@_02PONMODAL@70@
  00174	8d 8f b4 00 00
	00		 lea	 ecx, DWORD PTR [edi+180]
  0017a	ff 15 00 00 00
	00		 call	 DWORD PTR __imp_?Compare@?$CStringT@DV?$StrTraitMFC_DLL@DV?$ChTraitsCRT@D@ATL@@@@@ATL@@QBEHPBD@Z
  00180	85 c0		 test	 eax, eax
; File D:\git\src\IBK\IBK_DRFN\ProjSrc\SrcChartEx\ChartOCX\AddInManager\ChartCommonAddIn\DlgYScaleSetUp.cpp

; 323  : 	else if( m_strMaxPrice == "70" && m_strMinPrice == "-70" )

  00182	75 27		 jne	 SHORT $LN7@OnUsePerce
; File C:\Program Files (x86)\Microsoft Visual Studio\2019\Community\VC\Tools\MSVC\14.29.30133\atlmfc\include\cstringt.h

; 2486 : 		return(str1.Compare(psz2) == 0);

  00184	68 00 00 00 00	 push	 OFFSET ??_C@_03HCIBJCOG@?970@
  00189	8b cb		 mov	 ecx, ebx
  0018b	ff 15 00 00 00
	00		 call	 DWORD PTR __imp_?Compare@?$CStringT@DV?$StrTraitMFC_DLL@DV?$ChTraitsCRT@D@ATL@@@@@ATL@@QBEHPBD@Z
  00191	85 c0		 test	 eax, eax
; File D:\git\src\IBK\IBK_DRFN\ProjSrc\SrcChartEx\ChartOCX\AddInManager\ChartCommonAddIn\DlgYScaleSetUp.cpp

; 323  : 	else if( m_strMaxPrice == "70" && m_strMinPrice == "-70" )

  00193	75 16		 jne	 SHORT $LN7@OnUsePerce

; 326  : 		m_nSelectPercent = 3;
; 327  : 	else
; 328  : 		m_nSelectPercent = -1;
; 329  : 
; 330  : 	UpdateData(FALSE);

  00195	50		 push	 eax
  00196	8b cf		 mov	 ecx, edi
  00198	c7 87 ac 00 00
	00 02 00 00 00	 mov	 DWORD PTR [edi+172], 2
  001a2	e8 00 00 00 00	 call	 ?UpdateData@CWnd@@QAEHH@Z ; CWnd::UpdateData
  001a7	5f		 pop	 edi
  001a8	5e		 pop	 esi
  001a9	5b		 pop	 ebx

; 331  : }

  001aa	c3		 ret	 0
$LN7@OnUsePerce:
; File C:\Program Files (x86)\Microsoft Visual Studio\2019\Community\VC\Tools\MSVC\14.29.30133\atlmfc\include\cstringt.h

; 2486 : 		return(str1.Compare(psz2) == 0);

  001ab	68 00 00 00 00	 push	 OFFSET ??_C@_03GNABGMEE@100@
  001b0	8d 8f b4 00 00
	00		 lea	 ecx, DWORD PTR [edi+180]
  001b6	ff 15 00 00 00
	00		 call	 DWORD PTR __imp_?Compare@?$CStringT@DV?$StrTraitMFC_DLL@DV?$ChTraitsCRT@D@ATL@@@@@ATL@@QBEHPBD@Z
  001bc	85 c0		 test	 eax, eax
; File D:\git\src\IBK\IBK_DRFN\ProjSrc\SrcChartEx\ChartOCX\AddInManager\ChartCommonAddIn\DlgYScaleSetUp.cpp

; 325  : 	else if( m_strMaxPrice == "100" && m_strMinPrice == "-100" )

  001be	75 27		 jne	 SHORT $LN9@OnUsePerce
; File C:\Program Files (x86)\Microsoft Visual Studio\2019\Community\VC\Tools\MSVC\14.29.30133\atlmfc\include\cstringt.h

; 2486 : 		return(str1.Compare(psz2) == 0);

  001c0	68 00 00 00 00	 push	 OFFSET ??_C@_04LDDGKPPA@?9100@
  001c5	8b cb		 mov	 ecx, ebx
  001c7	ff 15 00 00 00
	00		 call	 DWORD PTR __imp_?Compare@?$CStringT@DV?$StrTraitMFC_DLL@DV?$ChTraitsCRT@D@ATL@@@@@ATL@@QBEHPBD@Z
  001cd	85 c0		 test	 eax, eax
; File D:\git\src\IBK\IBK_DRFN\ProjSrc\SrcChartEx\ChartOCX\AddInManager\ChartCommonAddIn\DlgYScaleSetUp.cpp

; 325  : 	else if( m_strMaxPrice == "100" && m_strMinPrice == "-100" )

  001cf	75 16		 jne	 SHORT $LN9@OnUsePerce

; 326  : 		m_nSelectPercent = 3;
; 327  : 	else
; 328  : 		m_nSelectPercent = -1;
; 329  : 
; 330  : 	UpdateData(FALSE);

  001d1	50		 push	 eax
  001d2	8b cf		 mov	 ecx, edi
  001d4	c7 87 ac 00 00
	00 03 00 00 00	 mov	 DWORD PTR [edi+172], 3
  001de	e8 00 00 00 00	 call	 ?UpdateData@CWnd@@QAEHH@Z ; CWnd::UpdateData
  001e3	5f		 pop	 edi
  001e4	5e		 pop	 esi
  001e5	5b		 pop	 ebx

; 331  : }

  001e6	c3		 ret	 0
$LN9@OnUsePerce:

; 326  : 		m_nSelectPercent = 3;
; 327  : 	else
; 328  : 		m_nSelectPercent = -1;
; 329  : 
; 330  : 	UpdateData(FALSE);

  001e7	6a 00		 push	 0
  001e9	8b cf		 mov	 ecx, edi
  001eb	c7 87 ac 00 00
	00 ff ff ff ff	 mov	 DWORD PTR [edi+172], -1
  001f5	e8 00 00 00 00	 call	 ?UpdateData@CWnd@@QAEHH@Z ; CWnd::UpdateData
  001fa	5f		 pop	 edi
  001fb	5e		 pop	 esi
  001fc	5b		 pop	 ebx

; 331  : }

  001fd	c3		 ret	 0
?OnUsePercent@CDlgYScaleSetUp@@IAEXXZ ENDP		; CDlgYScaleSetUp::OnUsePercent
_TEXT	ENDS
; Function compile flags: /Ogtp
; File D:\git\src\IBK\IBK_DRFN\ProjSrc\SrcChartEx\ChartOCX\AddInManager\ChartCommonAddIn\DlgYScaleSetUp.cpp
; File D:\git\src\IBK\IBK_DRFN\ProjSrc\SrcChartEx\ChartOCX\Include_Chart\Dll_Load\IMetaTable.h
; File C:\Program Files (x86)\Microsoft Visual Studio\2019\Community\VC\Tools\MSVC\14.29.30133\atlmfc\include\afxwin1.inl
; File D:\git\src\IBK\IBK_DRFN\ProjSrc\SrcChartEx\ChartOCX\Include_Chart\Dll_Load\IMetaTable.h
; File C:\Program Files (x86)\Microsoft Visual Studio\2019\Community\VC\Tools\MSVC\14.29.30133\atlmfc\include\afxwin1.inl
; File D:\git\src\IBK\IBK_DRFN\ProjSrc\SrcChartEx\ChartOCX\AddInManager\ChartCommonAddIn\DlgYScaleSetUp.cpp
; File D:\git\src\IBK\IBK_DRFN\ProjSrc\SrcChartEx\ChartOCX\Include_Chart\Dll_Load\IMetaTable.h
; File C:\Program Files (x86)\Microsoft Visual Studio\2019\Community\VC\Tools\MSVC\14.29.30133\atlmfc\include\afxwin1.inl
; File D:\git\src\IBK\IBK_DRFN\ProjSrc\SrcChartEx\ChartOCX\AddInManager\ChartCommonAddIn\DlgYScaleSetUp.cpp
;	COMDAT ?OnUseSetupValue@CDlgYScaleSetUp@@IAEXXZ
_TEXT	SEGMENT
___mlrs__$ = -24					; size = 4
$T2 = -20						; size = 4
$T3 = -20						; size = 4
_strUnit$ = -16						; size = 4
__$EHRec$ = -12						; size = 12
?OnUseSetupValue@CDlgYScaleSetUp@@IAEXXZ PROC		; CDlgYScaleSetUp::OnUseSetupValue, COMDAT
; _this$ = ecx

; 247  : {

  00000	55		 push	 ebp
  00001	8b ec		 mov	 ebp, esp
  00003	6a ff		 push	 -1
  00005	68 00 00 00 00	 push	 __ehhandler$?OnUseSetupValue@CDlgYScaleSetUp@@IAEXXZ
  0000a	64 a1 00 00 00
	00		 mov	 eax, DWORD PTR fs:0
  00010	50		 push	 eax
  00011	83 ec 0c	 sub	 esp, 12			; 0000000cH
  00014	53		 push	 ebx
  00015	56		 push	 esi
  00016	57		 push	 edi
  00017	a1 00 00 00 00	 mov	 eax, DWORD PTR ___security_cookie
  0001c	33 c5		 xor	 eax, ebp
  0001e	50		 push	 eax
  0001f	8d 45 f4	 lea	 eax, DWORD PTR __$EHRec$[ebp]
  00022	64 a3 00 00 00
	00		 mov	 DWORD PTR fs:0, eax
  00028	8b d9		 mov	 ebx, ecx

; 248  : 	// TODO: Add your control notification handler code here
; 249  : 		
; 250  : 	m_nYScaleMaxMinSetupType = 0;
; 251  : 
; 252  : 	// 1.    return.
; 253  : 	if( !m_bShow  )

  0002a	83 bb cc 00 00
	00 00		 cmp	 DWORD PTR [ebx+204], 0
  00031	c7 83 a8 00 00
	00 00 00 00 00	 mov	 DWORD PTR [ebx+168], 0
  0003b	75 05		 jne	 SHORT $LN2@OnUseSetup

; 254  : 		MovingAllControls();

  0003d	e8 00 00 00 00	 call	 ?MovingAllControls@CDlgYScaleSetUp@@QAEXXZ ; CDlgYScaleSetUp::MovingAllControls
$LN2@OnUseSetup:

; 255  : 
; 256  : 	// 4. Percent GroupBox .
; 257  : 	GetDlgItem(IDC_STATIC_PERCENT)->ShowWindow( SW_HIDE );

  00042	6a 00		 push	 0
  00044	68 cc 5d 00 00	 push	 24012			; 00005dccH
  00049	8b cb		 mov	 ecx, ebx
  0004b	e8 00 00 00 00	 call	 ?GetDlgItem@CWnd@@QBEPAV1@H@Z ; CWnd::GetDlgItem
  00050	8b c8		 mov	 ecx, eax
  00052	e8 00 00 00 00	 call	 ?ShowWindow@CWnd@@QAEHH@Z ; CWnd::ShowWindow

; 258  : 
; 259  : 	// 5. Each Percent  .
; 260  : 	GetDlgItem(IDC_30_PERCENT)->ShowWindow( SW_HIDE );

  00057	6a 00		 push	 0
  00059	68 c2 5d 00 00	 push	 24002			; 00005dc2H
  0005e	8b cb		 mov	 ecx, ebx
  00060	e8 00 00 00 00	 call	 ?GetDlgItem@CWnd@@QBEPAV1@H@Z ; CWnd::GetDlgItem
  00065	8b c8		 mov	 ecx, eax
  00067	e8 00 00 00 00	 call	 ?ShowWindow@CWnd@@QAEHH@Z ; CWnd::ShowWindow

; 261  : 	GetDlgItem(IDC_50_PERCENT)->ShowWindow( SW_HIDE );

  0006c	6a 00		 push	 0
  0006e	68 c3 5d 00 00	 push	 24003			; 00005dc3H
  00073	8b cb		 mov	 ecx, ebx
  00075	e8 00 00 00 00	 call	 ?GetDlgItem@CWnd@@QBEPAV1@H@Z ; CWnd::GetDlgItem
  0007a	8b c8		 mov	 ecx, eax
  0007c	e8 00 00 00 00	 call	 ?ShowWindow@CWnd@@QAEHH@Z ; CWnd::ShowWindow

; 262  : 	GetDlgItem(IDC_70_PERCENT)->ShowWindow( SW_HIDE );

  00081	6a 00		 push	 0
  00083	68 c4 5d 00 00	 push	 24004			; 00005dc4H
  00088	8b cb		 mov	 ecx, ebx
  0008a	e8 00 00 00 00	 call	 ?GetDlgItem@CWnd@@QBEPAV1@H@Z ; CWnd::GetDlgItem
  0008f	8b c8		 mov	 ecx, eax
  00091	e8 00 00 00 00	 call	 ?ShowWindow@CWnd@@QAEHH@Z ; CWnd::ShowWindow

; 263  : 	GetDlgItem(IDC_100_PERCENT)->ShowWindow( SW_HIDE );

  00096	6a 00		 push	 0
  00098	68 c5 5d 00 00	 push	 24005			; 00005dc5H
  0009d	8b cb		 mov	 ecx, ebx
  0009f	e8 00 00 00 00	 call	 ?GetDlgItem@CWnd@@QBEPAV1@H@Z ; CWnd::GetDlgItem
  000a4	8b c8		 mov	 ecx, eax
  000a6	e8 00 00 00 00	 call	 ?ShowWindow@CWnd@@QAEHH@Z ; CWnd::ShowWindow

; 264  : 
; 265  : 	// (2007/5/2 - Seung-Won, Bae) Check Market Type for Unit.
; 266  : 	ML_SET_LANGUAGE_RES();

  000ab	e8 00 00 00 00	 call	 ?AfxGetStaticModuleState@@YGPAVAFX_MODULE_STATE@@XZ ; AfxGetStaticModuleState
  000b0	8b bb 14 01 00
	00		 mov	 edi, DWORD PTR [ebx+276]
  000b6	8b 70 08	 mov	 esi, DWORD PTR [eax+8]
; File D:\git\src\IBK\IBK_DRFN\ProjSrc\SrcChartEx\ChartOCX\Include_Chart\Dll_Load\IMetaTable.h

; 936  : 	DECLARE_FUNCTION2(	LoadResourceDLL,				HMODULE, AfxGetStaticModuleState()->m_hCurrentInstanceHandle, HWND, HMODULE);

  000b9	a1 04 00 00 00	 mov	 eax, DWORD PTR ?g_iMetaTable@@3VIMetaTable@@A+4
  000be	85 c0		 test	 eax, eax
  000c0	74 4b		 je	 SHORT $LN13@OnUseSetup
  000c2	b9 80 0d 00 00	 mov	 ecx, 3456		; 00000d80H
  000c7	66 3b 0d 94 00
	00 00		 cmp	 cx, WORD PTR ?g_iMetaTable@@3VIMetaTable@@A+148
  000ce	74 29		 je	 SHORT $LN30@OnUseSetup
  000d0	68 00 00 00 00	 push	 OFFSET ??_C@_0BA@ENJOCHIO@LoadResourceDLL@
  000d5	50		 push	 eax
  000d6	c7 05 90 00 00
	00 00 00 00 00	 mov	 DWORD PTR ?g_iMetaTable@@3VIMetaTable@@A+144, 0
  000e0	ff 15 00 00 00
	00		 call	 DWORD PTR __imp__GetProcAddress@8
  000e6	b9 80 0d 00 00	 mov	 ecx, 3456		; 00000d80H
  000eb	a3 90 00 00 00	 mov	 DWORD PTR ?g_iMetaTable@@3VIMetaTable@@A+144, eax
  000f0	66 89 0d 94 00
	00 00		 mov	 WORD PTR ?g_iMetaTable@@3VIMetaTable@@A+148, cx
  000f7	eb 05		 jmp	 SHORT $LN12@OnUseSetup
$LN30@OnUseSetup:
  000f9	a1 90 00 00 00	 mov	 eax, DWORD PTR ?g_iMetaTable@@3VIMetaTable@@A+144
$LN12@OnUseSetup:
  000fe	85 c0		 test	 eax, eax
  00100	74 0b		 je	 SHORT $LN13@OnUseSetup
  00102	56		 push	 esi
  00103	57		 push	 edi
  00104	ff d0		 call	 eax
  00106	83 c4 08	 add	 esp, 8
  00109	8b f8		 mov	 edi, eax
  0010b	eb 08		 jmp	 SHORT $LN10@OnUseSetup
$LN13@OnUseSetup:
  0010d	e8 00 00 00 00	 call	 ?AfxGetStaticModuleState@@YGPAVAFX_MODULE_STATE@@XZ ; AfxGetStaticModuleState
  00112	8b 78 08	 mov	 edi, DWORD PTR [eax+8]
$LN10@OnUseSetup:
; File C:\Program Files (x86)\Microsoft Visual Studio\2019\Community\VC\Tools\MSVC\14.29.30133\atlmfc\include\afxwin1.inl

; 25   : 		return afxCurrentResourceHandle; }

  00115	e8 00 00 00 00	 call	 ?AfxGetModuleState@@YGPAVAFX_MODULE_STATE@@XZ ; AfxGetModuleState
; File D:\git\src\IBK\IBK_DRFN\ProjSrc\SrcChartEx\ChartOCX\Include_Chart\Dll_Load\IMetaTable.h

; 1032 : 		m_hInstance = AfxGetResourceHandle();

  0011a	8b 70 0c	 mov	 esi, DWORD PTR [eax+12]
  0011d	89 75 e8	 mov	 DWORD PTR ___mlrs__$[ebp], esi
; File C:\Program Files (x86)\Microsoft Visual Studio\2019\Community\VC\Tools\MSVC\14.29.30133\atlmfc\include\afxwin1.inl

; 27   : 	{ ASSERT(hInstResource != NULL); afxCurrentResourceHandle = hInstResource; }

  00120	e8 00 00 00 00	 call	 ?AfxGetModuleState@@YGPAVAFX_MODULE_STATE@@XZ ; AfxGetModuleState
  00125	89 78 0c	 mov	 DWORD PTR [eax+12], edi
; File D:\git\src\IBK\IBK_DRFN\ProjSrc\SrcChartEx\ChartOCX\AddInManager\ChartCommonAddIn\DlgYScaleSetUp.cpp

; 267  : 	CString strUnit;

  00128	8d 4d f0	 lea	 ecx, DWORD PTR _strUnit$[ebp]
  0012b	c7 45 fc 00 00
	00 00		 mov	 DWORD PTR __$EHRec$[ebp+8], 0
  00132	ff 15 00 00 00
	00		 call	 DWORD PTR __imp_??0?$CStringT@DV?$StrTraitMFC_DLL@DV?$ChTraitsCRT@D@ATL@@@@@ATL@@QAE@XZ

; 268  : 	strUnit.LoadString( IDS_WON);

  00138	6a 03		 push	 3
  0013a	8d 4d f0	 lea	 ecx, DWORD PTR _strUnit$[ebp]
  0013d	c6 45 fc 01	 mov	 BYTE PTR __$EHRec$[ebp+8], 1
  00141	ff 15 00 00 00
	00		 call	 DWORD PTR __imp_?LoadStringA@?$CStringT@DV?$StrTraitMFC_DLL@DV?$ChTraitsCRT@D@ATL@@@@@ATL@@QAEHI@Z

; 269  : 	if( CPacketType::STOCK != m_eMarketType && CPacketType::ELW != m_eMarketType) strUnit = "Pt";

  00147	8b 83 10 01 00
	00		 mov	 eax, DWORD PTR [ebx+272]
  0014d	85 c0		 test	 eax, eax
  0014f	74 13		 je	 SHORT $LN3@OnUseSetup
  00151	83 f8 04	 cmp	 eax, 4
  00154	74 0e		 je	 SHORT $LN3@OnUseSetup
  00156	68 00 00 00 00	 push	 OFFSET ??_C@_02CHFBLEKP@Pt@
  0015b	8d 4d f0	 lea	 ecx, DWORD PTR _strUnit$[ebp]
  0015e	ff 15 00 00 00
	00		 call	 DWORD PTR __imp_??4?$CStringT@DV?$StrTraitMFC_DLL@DV?$ChTraitsCRT@D@ATL@@@@@ATL@@QAEAAV01@PBD@Z
$LN3@OnUseSetup:

; 270  : 	if( CChartInfo::WORLD_ON == m_eChartMode) strUnit = "";

  00164	83 bb 18 01 00
	00 03		 cmp	 DWORD PTR [ebx+280], 3
  0016b	75 0e		 jne	 SHORT $LN4@OnUseSetup
  0016d	68 00 00 00 00	 push	 OFFSET ??_C@_00CNPNBAHC@@
  00172	8d 4d f0	 lea	 ecx, DWORD PTR _strUnit$[ebp]
  00175	ff 15 00 00 00
	00		 call	 DWORD PTR __imp_??4?$CStringT@DV?$StrTraitMFC_DLL@DV?$ChTraitsCRT@D@ATL@@@@@ATL@@QAEAAV01@PBD@Z
$LN4@OnUseSetup:

; 271  : 
; 272  : 	// 6.   Text .
; 273  : 	GetDlgItem(IDC_MAX_PRICE_UNIT)->SetWindowText( strUnit);

  0017b	ff 75 f0	 push	 DWORD PTR _strUnit$[ebp]
  0017e	8b cb		 mov	 ecx, ebx
  00180	68 c8 5d 00 00	 push	 24008			; 00005dc8H
  00185	e8 00 00 00 00	 call	 ?GetDlgItem@CWnd@@QBEPAV1@H@Z ; CWnd::GetDlgItem
  0018a	8b c8		 mov	 ecx, eax
  0018c	e8 00 00 00 00	 call	 ?SetWindowTextA@CWnd@@QAEXPBD@Z ; CWnd::SetWindowTextA

; 274  : 	GetDlgItem(IDC_MIN_PRICE_UNIT)->SetWindowText( strUnit);

  00191	ff 75 f0	 push	 DWORD PTR _strUnit$[ebp]
  00194	8b cb		 mov	 ecx, ebx
  00196	68 ca 5d 00 00	 push	 24010			; 00005dcaH
  0019b	e8 00 00 00 00	 call	 ?GetDlgItem@CWnd@@QBEPAV1@H@Z ; CWnd::GetDlgItem
  001a0	8b c8		 mov	 ecx, eax
  001a2	e8 00 00 00 00	 call	 ?SetWindowTextA@CWnd@@QAEXPBD@Z ; CWnd::SetWindowTextA

; 275  : 
; 276  : //	m_strMaxPrice.Format( m_strValueFormat, m_dYScaleMaxValue);
; 277  : //	m_strMinPrice.Format( m_strValueFormat, m_dYScaleMinValue);
; 278  : 	// 20081016 
; 279  : 	m_strMaxPrice = CDataConversion::DoubleToString(m_dYScaleMaxValue, m_strPacketType);

  001a7	8d bb 0c 01 00
	00		 lea	 edi, DWORD PTR [ebx+268]
  001ad	57		 push	 edi
  001ae	8d 83 e8 00 00
	00		 lea	 eax, DWORD PTR [ebx+232]
  001b4	50		 push	 eax
  001b5	8d 45 ec	 lea	 eax, DWORD PTR $T3[ebp]
  001b8	50		 push	 eax
  001b9	e8 00 00 00 00	 call	 ?DoubleToString@CDataConversion@@SA?AV?$CStringT@DV?$StrTraitMFC_DLL@DV?$ChTraitsCRT@D@ATL@@@@@ATL@@ABNABV23@@Z ; CDataConversion::DoubleToString
  001be	83 c4 0c	 add	 esp, 12			; 0000000cH
  001c1	50		 push	 eax
  001c2	8d 8b b4 00 00
	00		 lea	 ecx, DWORD PTR [ebx+180]
  001c8	c6 45 fc 02	 mov	 BYTE PTR __$EHRec$[ebp+8], 2
  001cc	ff 15 00 00 00
	00		 call	 DWORD PTR __imp_??4?$CStringT@DV?$StrTraitMFC_DLL@DV?$ChTraitsCRT@D@ATL@@@@@ATL@@QAEAAV01@ABV01@@Z
  001d2	8d 4d ec	 lea	 ecx, DWORD PTR $T3[ebp]
  001d5	c6 45 fc 01	 mov	 BYTE PTR __$EHRec$[ebp+8], 1
  001d9	ff 15 00 00 00
	00		 call	 DWORD PTR __imp_??1?$CStringT@DV?$StrTraitMFC_DLL@DV?$ChTraitsCRT@D@ATL@@@@@ATL@@QAE@XZ

; 280  : 	m_strMinPrice =	CDataConversion::DoubleToString(m_dYScaleMinValue, m_strPacketType);

  001df	57		 push	 edi
  001e0	8d 83 f0 00 00
	00		 lea	 eax, DWORD PTR [ebx+240]
  001e6	50		 push	 eax
  001e7	8d 45 ec	 lea	 eax, DWORD PTR $T2[ebp]
  001ea	50		 push	 eax
  001eb	e8 00 00 00 00	 call	 ?DoubleToString@CDataConversion@@SA?AV?$CStringT@DV?$StrTraitMFC_DLL@DV?$ChTraitsCRT@D@ATL@@@@@ATL@@ABNABV23@@Z ; CDataConversion::DoubleToString
  001f0	83 c4 0c	 add	 esp, 12			; 0000000cH
  001f3	50		 push	 eax
  001f4	8d 8b b8 00 00
	00		 lea	 ecx, DWORD PTR [ebx+184]
  001fa	c6 45 fc 03	 mov	 BYTE PTR __$EHRec$[ebp+8], 3
  001fe	ff 15 00 00 00
	00		 call	 DWORD PTR __imp_??4?$CStringT@DV?$StrTraitMFC_DLL@DV?$ChTraitsCRT@D@ATL@@@@@ATL@@QAEAAV01@ABV01@@Z
  00204	8d 4d ec	 lea	 ecx, DWORD PTR $T2[ebp]
  00207	c6 45 fc 01	 mov	 BYTE PTR __$EHRec$[ebp+8], 1
  0020b	ff 15 00 00 00
	00		 call	 DWORD PTR __imp_??1?$CStringT@DV?$StrTraitMFC_DLL@DV?$ChTraitsCRT@D@ATL@@@@@ATL@@QAE@XZ

; 281  : 	UpdateData(FALSE);

  00211	6a 00		 push	 0
  00213	8b cb		 mov	 ecx, ebx
  00215	e8 00 00 00 00	 call	 ?UpdateData@CWnd@@QAEHH@Z ; CWnd::UpdateData

; 282  : }

  0021a	8d 4d f0	 lea	 ecx, DWORD PTR _strUnit$[ebp]
  0021d	ff 15 00 00 00
	00		 call	 DWORD PTR __imp_??1?$CStringT@DV?$StrTraitMFC_DLL@DV?$ChTraitsCRT@D@ATL@@@@@ATL@@QAE@XZ
; File D:\git\src\IBK\IBK_DRFN\ProjSrc\SrcChartEx\ChartOCX\Include_Chart\Dll_Load\IMetaTable.h

; 1036 : 	{

  00223	c7 45 fc 04 00
	00 00		 mov	 DWORD PTR __$EHRec$[ebp+8], 4
; File C:\Program Files (x86)\Microsoft Visual Studio\2019\Community\VC\Tools\MSVC\14.29.30133\atlmfc\include\afxwin1.inl

; 27   : 	{ ASSERT(hInstResource != NULL); afxCurrentResourceHandle = hInstResource; }

  0022a	e8 00 00 00 00	 call	 ?AfxGetModuleState@@YGPAVAFX_MODULE_STATE@@XZ ; AfxGetModuleState
  0022f	89 70 0c	 mov	 DWORD PTR [eax+12], esi
; File D:\git\src\IBK\IBK_DRFN\ProjSrc\SrcChartEx\ChartOCX\AddInManager\ChartCommonAddIn\DlgYScaleSetUp.cpp

; 282  : }

  00232	8b 4d f4	 mov	 ecx, DWORD PTR __$EHRec$[ebp]
  00235	64 89 0d 00 00
	00 00		 mov	 DWORD PTR fs:0, ecx
  0023c	59		 pop	 ecx
  0023d	5f		 pop	 edi
  0023e	5e		 pop	 esi
  0023f	5b		 pop	 ebx
  00240	8b e5		 mov	 esp, ebp
  00242	5d		 pop	 ebp
  00243	c3		 ret	 0
_TEXT	ENDS
;	COMDAT text$x
text$x	SEGMENT
__unwindfunclet$?OnUseSetupValue@CDlgYScaleSetUp@@IAEXXZ$0:
  00000	8d 4d e8	 lea	 ecx, DWORD PTR ___mlrs__$[ebp]
  00003	e9 00 00 00 00	 jmp	 ??1CMultiLanguageResourceSetter@@QAE@XZ ; CMultiLanguageResourceSetter::~CMultiLanguageResourceSetter
__unwindfunclet$?OnUseSetupValue@CDlgYScaleSetUp@@IAEXXZ$1:
  00008	8d 4d f0	 lea	 ecx, DWORD PTR _strUnit$[ebp]
  0000b	ff 25 00 00 00
	00		 jmp	 DWORD PTR __imp_??1?$CStringT@DV?$StrTraitMFC_DLL@DV?$ChTraitsCRT@D@ATL@@@@@ATL@@QAE@XZ
__unwindfunclet$?OnUseSetupValue@CDlgYScaleSetUp@@IAEXXZ$2:
  00011	8d 4d ec	 lea	 ecx, DWORD PTR $T3[ebp]
  00014	ff 25 00 00 00
	00		 jmp	 DWORD PTR __imp_??1?$CStringT@DV?$StrTraitMFC_DLL@DV?$ChTraitsCRT@D@ATL@@@@@ATL@@QAE@XZ
__unwindfunclet$?OnUseSetupValue@CDlgYScaleSetUp@@IAEXXZ$3:
  0001a	8d 4d ec	 lea	 ecx, DWORD PTR $T2[ebp]
  0001d	ff 25 00 00 00
	00		 jmp	 DWORD PTR __imp_??1?$CStringT@DV?$StrTraitMFC_DLL@DV?$ChTraitsCRT@D@ATL@@@@@ATL@@QAE@XZ
  00023	cc		 int	 3
  00024	cc		 int	 3
  00025	cc		 int	 3
  00026	cc		 int	 3
  00027	cc		 int	 3
__ehhandler$?OnUseSetupValue@CDlgYScaleSetUp@@IAEXXZ:
  00028	90		 npad	 1
  00029	90		 npad	 1
  0002a	8b 54 24 08	 mov	 edx, DWORD PTR [esp+8]
  0002e	8d 42 0c	 lea	 eax, DWORD PTR [edx+12]
  00031	8b 4a e4	 mov	 ecx, DWORD PTR [edx-28]
  00034	33 c8		 xor	 ecx, eax
  00036	e8 00 00 00 00	 call	 @__security_check_cookie@4
  0003b	b8 00 00 00 00	 mov	 eax, OFFSET __ehfuncinfo$?OnUseSetupValue@CDlgYScaleSetUp@@IAEXXZ
  00040	e9 00 00 00 00	 jmp	 ___CxxFrameHandler3
text$x	ENDS
?OnUseSetupValue@CDlgYScaleSetUp@@IAEXXZ ENDP		; CDlgYScaleSetUp::OnUseSetupValue
; Function compile flags: /Ogtp
; File D:\git\src\IBK\IBK_DRFN\ProjSrc\SrcChartEx\ChartOCX\AddInManager\ChartCommonAddIn\DlgYScaleSetUp.cpp
; File C:\Program Files (x86)\Microsoft Visual Studio\2019\Community\VC\Tools\MSVC\14.29.30133\atlmfc\include\atltypes.h
; File D:\git\src\IBK\IBK_DRFN\ProjSrc\SrcChartEx\ChartOCX\AddInManager\ChartCommonAddIn\DlgYScaleSetUp.cpp
; File C:\Program Files (x86)\Microsoft Visual Studio\2019\Community\VC\Tools\MSVC\14.29.30133\atlmfc\include\afxwin2.inl
; File D:\git\src\IBK\IBK_DRFN\ProjSrc\SrcChartEx\ChartOCX\AddInManager\ChartCommonAddIn\DlgYScaleSetUp.cpp
; File C:\Program Files (x86)\Microsoft Visual Studio\2019\Community\VC\Tools\MSVC\14.29.30133\atlmfc\include\atltypes.h
; File D:\git\src\IBK\IBK_DRFN\ProjSrc\SrcChartEx\ChartOCX\AddInManager\ChartCommonAddIn\DlgYScaleSetUp.cpp
; File C:\Program Files (x86)\Microsoft Visual Studio\2019\Community\VC\Tools\MSVC\14.29.30133\atlmfc\include\afxwin2.inl
; File D:\git\src\IBK\IBK_DRFN\ProjSrc\SrcChartEx\ChartOCX\AddInManager\ChartCommonAddIn\DlgYScaleSetUp.cpp
;	COMDAT ?OnInitDialog@CDlgYScaleSetUp@@MAEHXZ
_TEXT	SEGMENT
$T2 = -56						; size = 4
_strAdjustedPrice$3 = -52				; size = 4
_rcStaticPercent$ = -48					; size = 16
_rcEdit$ = -32						; size = 16
__$ArrayPad$ = -16					; size = 4
__$EHRec$ = -12						; size = 12
?OnInitDialog@CDlgYScaleSetUp@@MAEHXZ PROC		; CDlgYScaleSetUp::OnInitDialog, COMDAT
; _this$ = ecx

; 90   : {

  00000	55		 push	 ebp
  00001	8b ec		 mov	 ebp, esp
  00003	6a ff		 push	 -1
  00005	68 00 00 00 00	 push	 __ehhandler$?OnInitDialog@CDlgYScaleSetUp@@MAEHXZ
  0000a	64 a1 00 00 00
	00		 mov	 eax, DWORD PTR fs:0
  00010	50		 push	 eax
  00011	83 ec 2c	 sub	 esp, 44			; 0000002cH
  00014	a1 00 00 00 00	 mov	 eax, DWORD PTR ___security_cookie
  00019	33 c5		 xor	 eax, ebp
  0001b	89 45 f0	 mov	 DWORD PTR __$ArrayPad$[ebp], eax
  0001e	53		 push	 ebx
  0001f	56		 push	 esi
  00020	57		 push	 edi
  00021	50		 push	 eax
  00022	8d 45 f4	 lea	 eax, DWORD PTR __$EHRec$[ebp]
  00025	64 a3 00 00 00
	00		 mov	 DWORD PTR fs:0, eax
  0002b	8b f9		 mov	 edi, ecx

; 91   : 	CDialog::OnInitDialog();

  0002d	e8 00 00 00 00	 call	 ?OnInitDialog@CDialog@@UAEHXZ ; CDialog::OnInitDialog

; 92   : 	
; 93   : 	// TODO: Add extra initialization here
; 94   : 	
; 95   : 	// Dialog    
; 96   : 	mouse_event(MOUSEEVENTF_LEFTDOWN, 0, 0, 0, 0);

  00032	8b 35 00 00 00
	00		 mov	 esi, DWORD PTR __imp__mouse_event@20
  00038	6a 00		 push	 0
  0003a	6a 00		 push	 0
  0003c	6a 00		 push	 0
  0003e	6a 00		 push	 0
  00040	6a 02		 push	 2
  00042	ff d6		 call	 esi

; 97   : 	mouse_event(MOUSEEVENTF_LEFTUP, 0, 0, 0, 0);

  00044	6a 00		 push	 0
  00046	6a 00		 push	 0
  00048	6a 00		 push	 0
  0004a	6a 00		 push	 0
  0004c	6a 04		 push	 4
  0004e	ff d6		 call	 esi
  00050	0f 57 c0	 xorps	 xmm0, xmm0

; 101  : 	GetDlgItem(IDC_STATIC_PERCENT)->GetWindowRect(rcStaticPercent);

  00053	8b cf		 mov	 ecx, edi
  00055	68 cc 5d 00 00	 push	 24012			; 00005dccH
; File C:\Program Files (x86)\Microsoft Visual Studio\2019\Community\VC\Tools\MSVC\14.29.30133\atlmfc\include\atltypes.h

; 528  : 	left = 0;

  0005a	0f 11 45 d0	 movups	 XMMWORD PTR _rcStaticPercent$[ebp], xmm0
; File D:\git\src\IBK\IBK_DRFN\ProjSrc\SrcChartEx\ChartOCX\AddInManager\ChartCommonAddIn\DlgYScaleSetUp.cpp

; 101  : 	GetDlgItem(IDC_STATIC_PERCENT)->GetWindowRect(rcStaticPercent);

  0005e	e8 00 00 00 00	 call	 ?GetDlgItem@CWnd@@QBEPAV1@H@Z ; CWnd::GetDlgItem
; File C:\Program Files (x86)\Microsoft Visual Studio\2019\Community\VC\Tools\MSVC\14.29.30133\atlmfc\include\afxwin2.inl

; 84   : 	{ ASSERT(::IsWindow(m_hWnd)); ::GetWindowRect(m_hWnd, lpRect); }

  00063	8b 35 00 00 00
	00		 mov	 esi, DWORD PTR __imp__GetWindowRect@8
  00069	8d 4d d0	 lea	 ecx, DWORD PTR _rcStaticPercent$[ebp]
  0006c	51		 push	 ecx
  0006d	ff 70 20	 push	 DWORD PTR [eax+32]
  00070	ff d6		 call	 esi
  00072	0f 57 c0	 xorps	 xmm0, xmm0
; File D:\git\src\IBK\IBK_DRFN\ProjSrc\SrcChartEx\ChartOCX\AddInManager\ChartCommonAddIn\DlgYScaleSetUp.cpp

; 104  : 	GetDlgItem(IDC_MAX_PRICE_EDIT)->GetWindowRect(rcEdit);

  00075	8b cf		 mov	 ecx, edi
  00077	68 c7 5d 00 00	 push	 24007			; 00005dc7H
; File C:\Program Files (x86)\Microsoft Visual Studio\2019\Community\VC\Tools\MSVC\14.29.30133\atlmfc\include\atltypes.h

; 528  : 	left = 0;

  0007c	0f 11 45 e0	 movups	 XMMWORD PTR _rcEdit$[ebp], xmm0
; File D:\git\src\IBK\IBK_DRFN\ProjSrc\SrcChartEx\ChartOCX\AddInManager\ChartCommonAddIn\DlgYScaleSetUp.cpp

; 104  : 	GetDlgItem(IDC_MAX_PRICE_EDIT)->GetWindowRect(rcEdit);

  00080	e8 00 00 00 00	 call	 ?GetDlgItem@CWnd@@QBEPAV1@H@Z ; CWnd::GetDlgItem
; File C:\Program Files (x86)\Microsoft Visual Studio\2019\Community\VC\Tools\MSVC\14.29.30133\atlmfc\include\afxwin2.inl

; 84   : 	{ ASSERT(::IsWindow(m_hWnd)); ::GetWindowRect(m_hWnd, lpRect); }

  00085	8d 4d e0	 lea	 ecx, DWORD PTR _rcEdit$[ebp]
  00088	51		 push	 ecx
  00089	ff 70 20	 push	 DWORD PTR [eax+32]
  0008c	ff d6		 call	 esi
; File D:\git\src\IBK\IBK_DRFN\ProjSrc\SrcChartEx\ChartOCX\AddInManager\ChartCommonAddIn\DlgYScaleSetUp.cpp

; 107  : 	m_nHeightToMoving = rcEdit.top - rcStaticPercent.top - 4;

  0008e	8b 45 e4	 mov	 eax, DWORD PTR _rcEdit$[ebp+4]

; 108  : 
; 109  : //	m_strYesterdayClosePrice.Format( m_strValueFormat, m_dYesterdayClosePrice );
; 110  : 	// 20081016 
; 111  : 
; 112  : //@Solomon-091113-->
; 113  : // Before
; 114  : //	m_strYesterdayClosePrice = CDataConversion::DoubleToString(m_dYesterdayClosePrice, m_strPacketType);
; 115  : //	m_strUpperBound.Format( m_strValueFormat, m_dUpperBound );
; 116  : //	m_strLowerBound.Format( m_strValueFormat, m_dLowerBound );
; 117  : // After
; 118  : 	if(m_strValueFormat.Compare("%.2f")==0)

  00091	8d 8f 08 01 00
	00		 lea	 ecx, DWORD PTR [edi+264]
  00097	2b 45 d4	 sub	 eax, DWORD PTR _rcStaticPercent$[ebp+4]
  0009a	8d b7 b0 00 00
	00		 lea	 esi, DWORD PTR [edi+176]
  000a0	83 e8 04	 sub	 eax, 4
  000a3	68 00 00 00 00	 push	 OFFSET ??_C@_04GEFJINEE@?$CF?42f@
  000a8	89 87 c8 00 00
	00		 mov	 DWORD PTR [edi+200], eax
  000ae	ff 15 00 00 00
	00		 call	 DWORD PTR __imp_?Compare@?$CStringT@DV?$StrTraitMFC_DLL@DV?$ChTraitsCRT@D@ATL@@@@@ATL@@QBEHPBD@Z
  000b4	85 c0		 test	 eax, eax
  000b6	75 5e		 jne	 SHORT $LN2@OnInitDial

; 119  : 	{
; 120  : 		m_strYesterdayClosePrice.Format("%d.%02d", (int)m_dYesterdayClosePrice/100, (int)m_dYesterdayClosePrice%100);

  000b8	f2 0f 2c 87 d0
	00 00 00	 cvttsd2si eax, QWORD PTR [edi+208]
  000c0	bb 64 00 00 00	 mov	 ebx, 100		; 00000064H
  000c5	99		 cdq
  000c6	f7 fb		 idiv	 ebx
  000c8	52		 push	 edx
  000c9	50		 push	 eax
  000ca	68 00 00 00 00	 push	 OFFSET ??_C@_07LGGAIHJM@?$CFd?4?$CF02d@
  000cf	56		 push	 esi
  000d0	8b 35 00 00 00
	00		 mov	 esi, DWORD PTR __imp_?Format@?$CStringT@DV?$StrTraitMFC_DLL@DV?$ChTraitsCRT@D@ATL@@@@@ATL@@QAAXPBDZZ
  000d6	ff d6		 call	 esi

; 121  : 		m_strUpperBound.Format("%d.%02d", (int)m_dUpperBound/100, (int)m_dUpperBound%100);

  000d8	f2 0f 2c 87 d8
	00 00 00	 cvttsd2si eax, QWORD PTR [edi+216]
  000e0	99		 cdq
  000e1	f7 fb		 idiv	 ebx
  000e3	52		 push	 edx
  000e4	50		 push	 eax
  000e5	8d 87 bc 00 00
	00		 lea	 eax, DWORD PTR [edi+188]
  000eb	68 00 00 00 00	 push	 OFFSET ??_C@_07LGGAIHJM@?$CFd?4?$CF02d@
  000f0	50		 push	 eax
  000f1	ff d6		 call	 esi

; 122  : 		m_strLowerBound.Format("%d.%02d", (int)m_dLowerBound/100, (int)m_dLowerBound%100);

  000f3	f2 0f 2c 87 e0
	00 00 00	 cvttsd2si eax, QWORD PTR [edi+224]
  000fb	99		 cdq
  000fc	f7 fb		 idiv	 ebx
  000fe	52		 push	 edx
  000ff	50		 push	 eax
  00100	8d 87 c0 00 00
	00		 lea	 eax, DWORD PTR [edi+192]
  00106	68 00 00 00 00	 push	 OFFSET ??_C@_07LGGAIHJM@?$CFd?4?$CF02d@
  0010b	50		 push	 eax
  0010c	ff d6		 call	 esi
  0010e	83 c4 30	 add	 esp, 48			; 00000030H

; 123  : 	}

  00111	e9 81 00 00 00	 jmp	 $LN3@OnInitDial
$LN2@OnInitDial:

; 124  : 	else
; 125  : 	{
; 126  : 		m_strYesterdayClosePrice = CDataConversion::DoubleToString(m_dYesterdayClosePrice, m_strPacketType);

  00116	8d 87 0c 01 00
	00		 lea	 eax, DWORD PTR [edi+268]
  0011c	50		 push	 eax
  0011d	8d 87 d0 00 00
	00		 lea	 eax, DWORD PTR [edi+208]
  00123	50		 push	 eax
  00124	8d 45 c8	 lea	 eax, DWORD PTR $T2[ebp]
  00127	50		 push	 eax
  00128	e8 00 00 00 00	 call	 ?DoubleToString@CDataConversion@@SA?AV?$CStringT@DV?$StrTraitMFC_DLL@DV?$ChTraitsCRT@D@ATL@@@@@ATL@@ABNABV23@@Z ; CDataConversion::DoubleToString
  0012d	83 c4 0c	 add	 esp, 12			; 0000000cH
  00130	50		 push	 eax
  00131	8b ce		 mov	 ecx, esi
  00133	c7 45 fc 00 00
	00 00		 mov	 DWORD PTR __$EHRec$[ebp+8], 0
  0013a	ff 15 00 00 00
	00		 call	 DWORD PTR __imp_??4?$CStringT@DV?$StrTraitMFC_DLL@DV?$ChTraitsCRT@D@ATL@@@@@ATL@@QAEAAV01@ABV01@@Z
  00140	8d 4d c8	 lea	 ecx, DWORD PTR $T2[ebp]
  00143	c7 45 fc ff ff
	ff ff		 mov	 DWORD PTR __$EHRec$[ebp+8], -1
  0014a	ff 15 00 00 00
	00		 call	 DWORD PTR __imp_??1?$CStringT@DV?$StrTraitMFC_DLL@DV?$ChTraitsCRT@D@ATL@@@@@ATL@@QAE@XZ

; 127  : 		m_strUpperBound.Format( m_strValueFormat, m_dUpperBound );

  00150	f2 0f 10 87 d8
	00 00 00	 movsd	 xmm0, QWORD PTR [edi+216]
  00158	8d 87 bc 00 00
	00		 lea	 eax, DWORD PTR [edi+188]
  0015e	8b 35 00 00 00
	00		 mov	 esi, DWORD PTR __imp_?Format@?$CStringT@DV?$StrTraitMFC_DLL@DV?$ChTraitsCRT@D@ATL@@@@@ATL@@QAAXPBDZZ
  00164	83 ec 08	 sub	 esp, 8
  00167	f2 0f 11 04 24	 movsd	 QWORD PTR [esp], xmm0
  0016c	ff b7 08 01 00
	00		 push	 DWORD PTR [edi+264]
  00172	50		 push	 eax
  00173	ff d6		 call	 esi

; 128  : 		m_strLowerBound.Format( m_strValueFormat, m_dLowerBound );

  00175	f2 0f 10 87 e0
	00 00 00	 movsd	 xmm0, QWORD PTR [edi+224]
  0017d	8d 87 c0 00 00
	00		 lea	 eax, DWORD PTR [edi+192]
  00183	83 c4 08	 add	 esp, 8
  00186	f2 0f 11 04 24	 movsd	 QWORD PTR [esp], xmm0
  0018b	ff b7 08 01 00
	00		 push	 DWORD PTR [edi+264]
  00191	50		 push	 eax
  00192	ff d6		 call	 esi
  00194	83 c4 10	 add	 esp, 16			; 00000010H
$LN3@OnInitDial:

; 129  : 	}
; 130  : //@Solomon-091113<--
; 131  : 
; 132  : 	if( m_nYScaleMaxMinSetupType == 0 )

  00197	83 bf a8 00 00
	00 00		 cmp	 DWORD PTR [edi+168], 0
  0019e	8b cf		 mov	 ecx, edi
  001a0	75 07		 jne	 SHORT $LN4@OnInitDial

; 133  : 		OnUseSetupValue();

  001a2	e8 00 00 00 00	 call	 ?OnUseSetupValue@CDlgYScaleSetUp@@IAEXXZ ; CDlgYScaleSetUp::OnUseSetupValue
  001a7	eb 05		 jmp	 SHORT $LN5@OnInitDial
$LN4@OnInitDial:

; 134  : 
; 135  : 	else
; 136  : 		OnUsePercent();

  001a9	e8 00 00 00 00	 call	 ?OnUsePercent@CDlgYScaleSetUp@@IAEXXZ ; CDlgYScaleSetUp::OnUsePercent
$LN5@OnInitDial:

; 137  : 
; 138  : 	// (2009/9/14 - Seung-Won, Bae) Show WorldOn Label.
; 139  : 	if( CChartInfo::WORLD_ON == m_eChartMode)

  001ae	83 bf 18 01 00
	00 03		 cmp	 DWORD PTR [edi+280], 3
  001b5	75 41		 jne	 SHORT $LN6@OnInitDial

; 140  : 	{
; 141  : 		CString strAdjustedPrice;

  001b7	8d 4d cc	 lea	 ecx, DWORD PTR _strAdjustedPrice$3[ebp]
  001ba	ff 15 00 00 00
	00		 call	 DWORD PTR __imp_??0?$CStringT@DV?$StrTraitMFC_DLL@DV?$ChTraitsCRT@D@ATL@@@@@ATL@@QAE@XZ

; 142  : 		strAdjustedPrice.LoadString( IDS_ADJUSTED_PRICE);

  001c0	6a 0d		 push	 13			; 0000000dH
  001c2	8d 4d cc	 lea	 ecx, DWORD PTR _strAdjustedPrice$3[ebp]
  001c5	c7 45 fc 01 00
	00 00		 mov	 DWORD PTR __$EHRec$[ebp+8], 1
  001cc	ff 15 00 00 00
	00		 call	 DWORD PTR __imp_?LoadStringA@?$CStringT@DV?$StrTraitMFC_DLL@DV?$ChTraitsCRT@D@ATL@@@@@ATL@@QAEHI@Z

; 143  : 		GetDlgItem( IDC_STC_PREV_PRICE)->SetWindowText( strAdjustedPrice);

  001d2	ff 75 cc	 push	 DWORD PTR _strAdjustedPrice$3[ebp]
  001d5	8b cf		 mov	 ecx, edi
  001d7	68 ce 5d 00 00	 push	 24014			; 00005dceH
  001dc	e8 00 00 00 00	 call	 ?GetDlgItem@CWnd@@QBEPAV1@H@Z ; CWnd::GetDlgItem
  001e1	8b c8		 mov	 ecx, eax
  001e3	e8 00 00 00 00	 call	 ?SetWindowTextA@CWnd@@QAEXPBD@Z ; CWnd::SetWindowTextA

; 144  : 	}

  001e8	8d 4d cc	 lea	 ecx, DWORD PTR _strAdjustedPrice$3[ebp]
  001eb	c7 45 fc ff ff
	ff ff		 mov	 DWORD PTR __$EHRec$[ebp+8], -1
  001f2	ff 15 00 00 00
	00		 call	 DWORD PTR __imp_??1?$CStringT@DV?$StrTraitMFC_DLL@DV?$ChTraitsCRT@D@ATL@@@@@ATL@@QAE@XZ
$LN6@OnInitDial:

; 145  : 
; 146  : 	UpdateData(FALSE);

  001f8	6a 00		 push	 0
  001fa	8b cf		 mov	 ecx, edi
  001fc	e8 00 00 00 00	 call	 ?UpdateData@CWnd@@QAEHH@Z ; CWnd::UpdateData

; 147  : 
; 148  : 	return TRUE;  // return TRUE unless you set the focus to a control

  00201	b8 01 00 00 00	 mov	 eax, 1

; 149  : 	              // EXCEPTION: OCX Property Pages should return FALSE
; 150  : }

  00206	8b 4d f4	 mov	 ecx, DWORD PTR __$EHRec$[ebp]
  00209	64 89 0d 00 00
	00 00		 mov	 DWORD PTR fs:0, ecx
  00210	59		 pop	 ecx
  00211	5f		 pop	 edi
  00212	5e		 pop	 esi
  00213	5b		 pop	 ebx
  00214	8b 4d f0	 mov	 ecx, DWORD PTR __$ArrayPad$[ebp]
  00217	33 cd		 xor	 ecx, ebp
  00219	e8 00 00 00 00	 call	 @__security_check_cookie@4
  0021e	8b e5		 mov	 esp, ebp
  00220	5d		 pop	 ebp
  00221	c3		 ret	 0
_TEXT	ENDS
;	COMDAT text$x
text$x	SEGMENT
__unwindfunclet$?OnInitDialog@CDlgYScaleSetUp@@MAEHXZ$0:
  00000	8d 4d c8	 lea	 ecx, DWORD PTR $T2[ebp]
  00003	ff 25 00 00 00
	00		 jmp	 DWORD PTR __imp_??1?$CStringT@DV?$StrTraitMFC_DLL@DV?$ChTraitsCRT@D@ATL@@@@@ATL@@QAE@XZ
__unwindfunclet$?OnInitDialog@CDlgYScaleSetUp@@MAEHXZ$1:
  00009	8d 4d cc	 lea	 ecx, DWORD PTR _strAdjustedPrice$3[ebp]
  0000c	ff 25 00 00 00
	00		 jmp	 DWORD PTR __imp_??1?$CStringT@DV?$StrTraitMFC_DLL@DV?$ChTraitsCRT@D@ATL@@@@@ATL@@QAE@XZ
  00012	cc		 int	 3
  00013	cc		 int	 3
  00014	cc		 int	 3
  00015	cc		 int	 3
  00016	cc		 int	 3
__ehhandler$?OnInitDialog@CDlgYScaleSetUp@@MAEHXZ:
  00017	90		 npad	 1
  00018	90		 npad	 1
  00019	8b 54 24 08	 mov	 edx, DWORD PTR [esp+8]
  0001d	8d 42 0c	 lea	 eax, DWORD PTR [edx+12]
  00020	8b 4a c4	 mov	 ecx, DWORD PTR [edx-60]
  00023	33 c8		 xor	 ecx, eax
  00025	e8 00 00 00 00	 call	 @__security_check_cookie@4
  0002a	8b 4a fc	 mov	 ecx, DWORD PTR [edx-4]
  0002d	33 c8		 xor	 ecx, eax
  0002f	e8 00 00 00 00	 call	 @__security_check_cookie@4
  00034	b8 00 00 00 00	 mov	 eax, OFFSET __ehfuncinfo$?OnInitDialog@CDlgYScaleSetUp@@MAEHXZ
  00039	e9 00 00 00 00	 jmp	 ___CxxFrameHandler3
text$x	ENDS
?OnInitDialog@CDlgYScaleSetUp@@MAEHXZ ENDP		; CDlgYScaleSetUp::OnInitDialog
; Function compile flags: /Ogtp
; File D:\git\src\IBK\IBK_DRFN\ProjSrc\SrcChartEx\ChartOCX\AddInManager\ChartCommonAddIn\DlgYScaleSetUp.cpp
;	COMDAT ?SetStockPriceInfo@CDlgYScaleSetUp@@QAEXNNN@Z
_TEXT	SEGMENT
_dYesterpayClosePrice$ = 8				; size = 8
_dUpperBound$ = 16					; size = 8
_dLowerBound$ = 24					; size = 8
?SetStockPriceInfo@CDlgYScaleSetUp@@QAEXNNN@Z PROC	; CDlgYScaleSetUp::SetStockPriceInfo, COMDAT
; _this$ = ecx

; 160  : {

  00000	55		 push	 ebp
  00001	8b ec		 mov	 ebp, esp

; 161  : 	m_dYesterdayClosePrice = dYesterpayClosePrice;

  00003	f2 0f 10 45 08	 movsd	 xmm0, QWORD PTR _dYesterpayClosePrice$[ebp]
  00008	f2 0f 11 81 d0
	00 00 00	 movsd	 QWORD PTR [ecx+208], xmm0

; 162  : 	m_dUpperBound = dUpperBound;

  00010	f2 0f 10 45 10	 movsd	 xmm0, QWORD PTR _dUpperBound$[ebp]
  00015	f2 0f 11 81 d8
	00 00 00	 movsd	 QWORD PTR [ecx+216], xmm0

; 163  : 	m_dLowerBound = dLowerBound;

  0001d	f2 0f 10 45 18	 movsd	 xmm0, QWORD PTR _dLowerBound$[ebp]
  00022	f2 0f 11 81 e0
	00 00 00	 movsd	 QWORD PTR [ecx+224], xmm0

; 164  : }

  0002a	5d		 pop	 ebp
  0002b	c2 18 00	 ret	 24			; 00000018H
?SetStockPriceInfo@CDlgYScaleSetUp@@QAEXNNN@Z ENDP	; CDlgYScaleSetUp::SetStockPriceInfo
_TEXT	ENDS
; Function compile flags: /Ogtp
; File D:\git\src\IBK\IBK_DRFN\ProjSrc\SrcChartEx\ChartOCX\AddInManager\ChartCommonAddIn\DlgYScaleSetUp.cpp
;	COMDAT ?SetYScaleMaxMinPercent@CDlgYScaleSetUp@@QAEXNN@Z
_TEXT	SEGMENT
_dMax$ = 8						; size = 8
_dMin$ = 16						; size = 8
?SetYScaleMaxMinPercent@CDlgYScaleSetUp@@QAEXNN@Z PROC	; CDlgYScaleSetUp::SetYScaleMaxMinPercent, COMDAT
; _this$ = ecx

; 459  : {

  00000	55		 push	 ebp
  00001	8b ec		 mov	 ebp, esp

; 460  : 	m_dYScaleMaxPercentValue = dMax;

  00003	f2 0f 10 45 08	 movsd	 xmm0, QWORD PTR _dMax$[ebp]
  00008	f2 0f 11 81 f8
	00 00 00	 movsd	 QWORD PTR [ecx+248], xmm0

; 461  : 	m_dYScaleMinPercentValue = dMin;

  00010	f2 0f 10 45 10	 movsd	 xmm0, QWORD PTR _dMin$[ebp]
  00015	f2 0f 11 81 00
	01 00 00	 movsd	 QWORD PTR [ecx+256], xmm0

; 462  : }

  0001d	5d		 pop	 ebp
  0001e	c2 10 00	 ret	 16			; 00000010H
?SetYScaleMaxMinPercent@CDlgYScaleSetUp@@QAEXNN@Z ENDP	; CDlgYScaleSetUp::SetYScaleMaxMinPercent
_TEXT	ENDS
; Function compile flags: /Ogtp
; File D:\git\src\IBK\IBK_DRFN\ProjSrc\SrcChartEx\ChartOCX\AddInManager\ChartCommonAddIn\DlgYScaleSetUp.cpp
;	COMDAT ?SetYScaleMaxMin@CDlgYScaleSetUp@@QAEXNN@Z
_TEXT	SEGMENT
_dMax$ = 8						; size = 8
_dMin$ = 16						; size = 8
?SetYScaleMaxMin@CDlgYScaleSetUp@@QAEXNN@Z PROC		; CDlgYScaleSetUp::SetYScaleMaxMin, COMDAT
; _this$ = ecx

; 445  : {

  00000	55		 push	 ebp
  00001	8b ec		 mov	 ebp, esp

; 446  : 	m_dYScaleMaxValue = dMax;

  00003	f2 0f 10 45 08	 movsd	 xmm0, QWORD PTR _dMax$[ebp]
  00008	f2 0f 11 81 e8
	00 00 00	 movsd	 QWORD PTR [ecx+232], xmm0

; 447  : 	m_dYScaleMinValue = dMin;

  00010	f2 0f 10 45 10	 movsd	 xmm0, QWORD PTR _dMin$[ebp]
  00015	f2 0f 11 81 f0
	00 00 00	 movsd	 QWORD PTR [ecx+240], xmm0

; 448  : }

  0001d	5d		 pop	 ebp
  0001e	c2 10 00	 ret	 16			; 00000010H
?SetYScaleMaxMin@CDlgYScaleSetUp@@QAEXNN@Z ENDP		; CDlgYScaleSetUp::SetYScaleMaxMin
_TEXT	ENDS
; Function compile flags: /Ogtp
; File D:\git\src\IBK\IBK_DRFN\ProjSrc\SrcChartEx\ChartOCX\AddInManager\ChartCommonAddIn\DlgYScaleSetUp.cpp
;	COMDAT ?GetYScaleMin@CDlgYScaleSetUp@@QAENXZ
_TEXT	SEGMENT
?GetYScaleMin@CDlgYScaleSetUp@@QAENXZ PROC		; CDlgYScaleSetUp::GetYScaleMin, COMDAT
; _this$ = ecx

; 432  : 	//   return.
; 433  : 	return m_dYScaleMinValue;

  00000	dd 81 f0 00 00
	00		 fld	 QWORD PTR [ecx+240]

; 434  : }

  00006	c3		 ret	 0
?GetYScaleMin@CDlgYScaleSetUp@@QAENXZ ENDP		; CDlgYScaleSetUp::GetYScaleMin
_TEXT	ENDS
; Function compile flags: /Ogtp
; File D:\git\src\IBK\IBK_DRFN\ProjSrc\SrcChartEx\ChartOCX\AddInManager\ChartCommonAddIn\DlgYScaleSetUp.cpp
;	COMDAT ?GetYScaleMax@CDlgYScaleSetUp@@QAENXZ
_TEXT	SEGMENT
?GetYScaleMax@CDlgYScaleSetUp@@QAENXZ PROC		; CDlgYScaleSetUp::GetYScaleMax, COMDAT
; _this$ = ecx

; 419  : 	//   return.
; 420  : 	return m_dYScaleMaxValue;

  00000	dd 81 e8 00 00
	00		 fld	 QWORD PTR [ecx+232]

; 421  : }

  00006	c3		 ret	 0
?GetYScaleMax@CDlgYScaleSetUp@@QAENXZ ENDP		; CDlgYScaleSetUp::GetYScaleMax
_TEXT	ENDS
; Function compile flags: /Ogtp
; File D:\git\src\IBK\IBK_DRFN\ProjSrc\SrcChartEx\ChartOCX\AddInManager\ChartCommonAddIn\DlgYScaleSetUp.cpp
;	COMDAT ?SetYScaleMaxMinSetupType@CDlgYScaleSetUp@@QAEXH@Z
_TEXT	SEGMENT
_nYScaleMinMaxSetupType$ = 8				; size = 4
?SetYScaleMaxMinSetupType@CDlgYScaleSetUp@@QAEXH@Z PROC	; CDlgYScaleSetUp::SetYScaleMaxMinSetupType, COMDAT
; _this$ = ecx

; 406  : {

  00000	55		 push	 ebp
  00001	8b ec		 mov	 ebp, esp

; 407  : 	m_nYScaleMaxMinSetupType = nYScaleMinMaxSetupType;

  00003	8b 45 08	 mov	 eax, DWORD PTR _nYScaleMinMaxSetupType$[ebp]
  00006	89 81 a8 00 00
	00		 mov	 DWORD PTR [ecx+168], eax

; 408  : }

  0000c	5d		 pop	 ebp
  0000d	c2 04 00	 ret	 4
?SetYScaleMaxMinSetupType@CDlgYScaleSetUp@@QAEXH@Z ENDP	; CDlgYScaleSetUp::SetYScaleMaxMinSetupType
_TEXT	ENDS
; Function compile flags: /Ogtp
; File D:\git\src\IBK\IBK_DRFN\ProjSrc\SrcChartEx\ChartOCX\AddInManager\ChartCommonAddIn\DlgYScaleSetUp.cpp
;	COMDAT ?GetYScaleMaxMinSetupType@CDlgYScaleSetUp@@QAEHXZ
_TEXT	SEGMENT
?GetYScaleMaxMinSetupType@CDlgYScaleSetUp@@QAEHXZ PROC	; CDlgYScaleSetUp::GetYScaleMaxMinSetupType, COMDAT
; _this$ = ecx

; 395  : 	return m_nYScaleMaxMinSetupType;

  00000	8b 81 a8 00 00
	00		 mov	 eax, DWORD PTR [ecx+168]

; 396  : }

  00006	c3		 ret	 0
?GetYScaleMaxMinSetupType@CDlgYScaleSetUp@@QAEHXZ ENDP	; CDlgYScaleSetUp::GetYScaleMaxMinSetupType
_TEXT	ENDS
; Function compile flags: /Ogtp
; File D:\git\src\IBK\IBK_DRFN\ProjSrc\SrcChartEx\ChartOCX\AddInManager\ChartCommonAddIn\DlgYScaleSetUp.cpp
; File C:\Program Files (x86)\Microsoft Visual Studio\2019\Community\VC\Tools\MSVC\14.29.30133\atlmfc\include\atltypes.h
; File D:\git\src\IBK\IBK_DRFN\ProjSrc\SrcChartEx\ChartOCX\AddInManager\ChartCommonAddIn\DlgYScaleSetUp.cpp
; File C:\Program Files (x86)\Microsoft Visual Studio\2019\Community\VC\Tools\MSVC\14.29.30133\atlmfc\include\afxwin2.inl
; File D:\git\src\IBK\IBK_DRFN\ProjSrc\SrcChartEx\ChartOCX\AddInManager\ChartCommonAddIn\DlgYScaleSetUp.cpp
; File C:\Program Files (x86)\Microsoft Visual Studio\2019\Community\VC\Tools\MSVC\14.29.30133\atlmfc\include\afxwin2.inl
; File D:\git\src\IBK\IBK_DRFN\ProjSrc\SrcChartEx\ChartOCX\AddInManager\ChartCommonAddIn\DlgYScaleSetUp.cpp
; File C:\Program Files (x86)\Microsoft Visual Studio\2019\Community\VC\Tools\MSVC\14.29.30133\atlmfc\include\afxwin2.inl
; File D:\git\src\IBK\IBK_DRFN\ProjSrc\SrcChartEx\ChartOCX\AddInManager\ChartCommonAddIn\DlgYScaleSetUp.cpp
; File C:\Program Files (x86)\Microsoft Visual Studio\2019\Community\VC\Tools\MSVC\14.29.30133\atlmfc\include\afxwin2.inl
; File D:\git\src\IBK\IBK_DRFN\ProjSrc\SrcChartEx\ChartOCX\AddInManager\ChartCommonAddIn\DlgYScaleSetUp.cpp
;	COMDAT ?MoveControlPos@CDlgYScaleSetUp@@QAEXHH@Z
_TEXT	SEGMENT
_rcTemp$ = -20						; size = 16
__$ArrayPad$ = -4					; size = 4
_nID$ = 8						; size = 4
_bSign$ = 12						; size = 4
?MoveControlPos@CDlgYScaleSetUp@@QAEXHH@Z PROC		; CDlgYScaleSetUp::MoveControlPos, COMDAT
; _this$ = ecx

; 220  : {

  00000	55		 push	 ebp
  00001	8b ec		 mov	 ebp, esp
  00003	83 ec 14	 sub	 esp, 20			; 00000014H
  00006	a1 00 00 00 00	 mov	 eax, DWORD PTR ___security_cookie
  0000b	33 c5		 xor	 eax, ebp
  0000d	89 45 fc	 mov	 DWORD PTR __$ArrayPad$[ebp], eax
  00010	56		 push	 esi
  00011	57		 push	 edi
  00012	8b 7d 08	 mov	 edi, DWORD PTR _nID$[ebp]
  00015	0f 57 c0	 xorps	 xmm0, xmm0

; 222  : 	GetDlgItem(nID)->GetWindowRect(rcTemp);

  00018	57		 push	 edi
  00019	8b f1		 mov	 esi, ecx
; File C:\Program Files (x86)\Microsoft Visual Studio\2019\Community\VC\Tools\MSVC\14.29.30133\atlmfc\include\atltypes.h

; 528  : 	left = 0;

  0001b	0f 11 45 ec	 movups	 XMMWORD PTR _rcTemp$[ebp], xmm0
; File D:\git\src\IBK\IBK_DRFN\ProjSrc\SrcChartEx\ChartOCX\AddInManager\ChartCommonAddIn\DlgYScaleSetUp.cpp

; 222  : 	GetDlgItem(nID)->GetWindowRect(rcTemp);

  0001f	e8 00 00 00 00	 call	 ?GetDlgItem@CWnd@@QBEPAV1@H@Z ; CWnd::GetDlgItem
; File C:\Program Files (x86)\Microsoft Visual Studio\2019\Community\VC\Tools\MSVC\14.29.30133\atlmfc\include\afxwin2.inl

; 84   : 	{ ASSERT(::IsWindow(m_hWnd)); ::GetWindowRect(m_hWnd, lpRect); }

  00024	8d 4d ec	 lea	 ecx, DWORD PTR _rcTemp$[ebp]
  00027	51		 push	 ecx
  00028	ff 70 20	 push	 DWORD PTR [eax+32]
  0002b	ff 15 00 00 00
	00		 call	 DWORD PTR __imp__GetWindowRect@8
; File D:\git\src\IBK\IBK_DRFN\ProjSrc\SrcChartEx\ChartOCX\AddInManager\ChartCommonAddIn\DlgYScaleSetUp.cpp

; 223  : 	ScreenToClient(rcTemp);

  00031	8d 45 ec	 lea	 eax, DWORD PTR _rcTemp$[ebp]
  00034	8b ce		 mov	 ecx, esi
  00036	50		 push	 eax
  00037	e8 00 00 00 00	 call	 ?ScreenToClient@CWnd@@QBEXPAUtagRECT@@@Z ; CWnd::ScreenToClient

; 224  : 
; 225  : 	if( bSign )

  0003c	83 7d 0c 00	 cmp	 DWORD PTR _bSign$[ebp], 0
  00040	8b 86 c8 00 00
	00		 mov	 eax, DWORD PTR [esi+200]
  00046	74 08		 je	 SHORT $LN2@MoveContro

; 226  : 	{
; 227  : 		rcTemp.top = rcTemp.top + m_nHeightToMoving;

  00048	01 45 f0	 add	 DWORD PTR _rcTemp$[ebp+4], eax

; 228  : 		rcTemp.bottom = rcTemp.bottom + m_nHeightToMoving;

  0004b	01 45 f8	 add	 DWORD PTR _rcTemp$[ebp+12], eax

; 229  : 	}

  0004e	eb 06		 jmp	 SHORT $LN3@MoveContro
$LN2@MoveContro:

; 230  : 
; 231  : 	else
; 232  : 	{
; 233  : 		rcTemp.top = rcTemp.top - m_nHeightToMoving;

  00050	29 45 f0	 sub	 DWORD PTR _rcTemp$[ebp+4], eax

; 234  : 		rcTemp.bottom = rcTemp.bottom - m_nHeightToMoving;

  00053	29 45 f8	 sub	 DWORD PTR _rcTemp$[ebp+12], eax
$LN3@MoveContro:

; 235  : 	}
; 236  : 
; 237  : 	GetDlgItem(nID)->MoveWindow(rcTemp);

  00056	57		 push	 edi
  00057	8b ce		 mov	 ecx, esi
  00059	e8 00 00 00 00	 call	 ?GetDlgItem@CWnd@@QBEPAV1@H@Z ; CWnd::GetDlgItem
; File C:\Program Files (x86)\Microsoft Visual Studio\2019\Community\VC\Tools\MSVC\14.29.30133\atlmfc\include\afxwin2.inl

; 73   : 	{ MoveWindow(lpRect->left, lpRect->top, lpRect->right - lpRect->left,

  0005e	8b 4d f8	 mov	 ecx, DWORD PTR _rcTemp$[ebp+12]
  00061	8b 75 f0	 mov	 esi, DWORD PTR _rcTemp$[ebp+4]
  00064	2b ce		 sub	 ecx, esi
  00066	8b 55 ec	 mov	 edx, DWORD PTR _rcTemp$[ebp]
  00069	6a 01		 push	 1
  0006b	51		 push	 ecx
  0006c	8b 4d f4	 mov	 ecx, DWORD PTR _rcTemp$[ebp+8]
  0006f	2b ca		 sub	 ecx, edx
  00071	51		 push	 ecx
  00072	56		 push	 esi
  00073	52		 push	 edx
  00074	8b c8		 mov	 ecx, eax
  00076	e8 00 00 00 00	 call	 ?MoveWindow@CWnd@@QAEXHHHHH@Z ; CWnd::MoveWindow
; File D:\git\src\IBK\IBK_DRFN\ProjSrc\SrcChartEx\ChartOCX\AddInManager\ChartCommonAddIn\DlgYScaleSetUp.cpp

; 238  : }

  0007b	8b 4d fc	 mov	 ecx, DWORD PTR __$ArrayPad$[ebp]
; File C:\Program Files (x86)\Microsoft Visual Studio\2019\Community\VC\Tools\MSVC\14.29.30133\atlmfc\include\afxwin2.inl

; 73   : 	{ MoveWindow(lpRect->left, lpRect->top, lpRect->right - lpRect->left,

  0007e	5f		 pop	 edi
; File D:\git\src\IBK\IBK_DRFN\ProjSrc\SrcChartEx\ChartOCX\AddInManager\ChartCommonAddIn\DlgYScaleSetUp.cpp

; 238  : }

  0007f	33 cd		 xor	 ecx, ebp
; File C:\Program Files (x86)\Microsoft Visual Studio\2019\Community\VC\Tools\MSVC\14.29.30133\atlmfc\include\afxwin2.inl

; 73   : 	{ MoveWindow(lpRect->left, lpRect->top, lpRect->right - lpRect->left,

  00081	5e		 pop	 esi
; File D:\git\src\IBK\IBK_DRFN\ProjSrc\SrcChartEx\ChartOCX\AddInManager\ChartCommonAddIn\DlgYScaleSetUp.cpp

; 238  : }

  00082	e8 00 00 00 00	 call	 @__security_check_cookie@4
  00087	8b e5		 mov	 esp, ebp
  00089	5d		 pop	 ebp
  0008a	c2 08 00	 ret	 8
?MoveControlPos@CDlgYScaleSetUp@@QAEXHH@Z ENDP		; CDlgYScaleSetUp::MoveControlPos
_TEXT	ENDS
; Function compile flags: /Ogtp
; File D:\git\src\IBK\IBK_DRFN\ProjSrc\SrcChartEx\ChartOCX\AddInManager\ChartCommonAddIn\DlgYScaleSetUp.cpp
; File C:\Program Files (x86)\Microsoft Visual Studio\2019\Community\VC\Tools\MSVC\14.29.30133\atlmfc\include\afxwin2.inl
; File D:\git\src\IBK\IBK_DRFN\ProjSrc\SrcChartEx\ChartOCX\AddInManager\ChartCommonAddIn\DlgYScaleSetUp.cpp
; File C:\Program Files (x86)\Microsoft Visual Studio\2019\Community\VC\Tools\MSVC\14.29.30133\atlmfc\include\afxwin2.inl
; File C:\Program Files (x86)\Microsoft Visual Studio\2019\Community\VC\Tools\MSVC\14.29.30133\atlmfc\include\atltypes.h
; File C:\Program Files (x86)\Microsoft Visual Studio\2019\Community\VC\Tools\MSVC\14.29.30133\atlmfc\include\afxwin2.inl
; File D:\git\src\IBK\IBK_DRFN\ProjSrc\SrcChartEx\ChartOCX\AddInManager\ChartCommonAddIn\DlgYScaleSetUp.cpp
; File C:\Program Files (x86)\Microsoft Visual Studio\2019\Community\VC\Tools\MSVC\14.29.30133\atlmfc\include\atltypes.h
; File D:\git\src\IBK\IBK_DRFN\ProjSrc\SrcChartEx\ChartOCX\AddInManager\ChartCommonAddIn\DlgYScaleSetUp.cpp
; File C:\Program Files (x86)\Microsoft Visual Studio\2019\Community\VC\Tools\MSVC\14.29.30133\atlmfc\include\afxwin2.inl
; File D:\git\src\IBK\IBK_DRFN\ProjSrc\SrcChartEx\ChartOCX\AddInManager\ChartCommonAddIn\DlgYScaleSetUp.cpp
; File C:\Program Files (x86)\Microsoft Visual Studio\2019\Community\VC\Tools\MSVC\14.29.30133\atlmfc\include\afxwin2.inl
; File D:\git\src\IBK\IBK_DRFN\ProjSrc\SrcChartEx\ChartOCX\AddInManager\ChartCommonAddIn\DlgYScaleSetUp.cpp
; File C:\Program Files (x86)\Microsoft Visual Studio\2019\Community\VC\Tools\MSVC\14.29.30133\atlmfc\include\afxwin2.inl
; File D:\git\src\IBK\IBK_DRFN\ProjSrc\SrcChartEx\ChartOCX\AddInManager\ChartCommonAddIn\DlgYScaleSetUp.cpp
;	COMDAT ?MovingAllControls@CDlgYScaleSetUp@@QAEXXZ
_TEXT	SEGMENT
_rcDlgYScaleSetUp$ = -36				; size = 16
_rcStatic$ = -20					; size = 16
__$ArrayPad$ = -4					; size = 4
?MovingAllControls@CDlgYScaleSetUp@@QAEXXZ PROC		; CDlgYScaleSetUp::MovingAllControls, COMDAT
; _this$ = ecx

; 168  : {

  00000	55		 push	 ebp
  00001	8b ec		 mov	 ebp, esp
  00003	83 ec 24	 sub	 esp, 36			; 00000024H
  00006	a1 00 00 00 00	 mov	 eax, DWORD PTR ___security_cookie
  0000b	33 c5		 xor	 eax, ebp
  0000d	89 45 fc	 mov	 DWORD PTR __$ArrayPad$[ebp], eax
  00010	56		 push	 esi
; File C:\Program Files (x86)\Microsoft Visual Studio\2019\Community\VC\Tools\MSVC\14.29.30133\atlmfc\include\afxwin2.inl

; 84   : 	{ ASSERT(::IsWindow(m_hWnd)); ::GetWindowRect(m_hWnd, lpRect); }

  00011	8b 35 00 00 00
	00		 mov	 esi, DWORD PTR __imp__GetWindowRect@8
  00017	8d 45 dc	 lea	 eax, DWORD PTR _rcDlgYScaleSetUp$[ebp]
; File D:\git\src\IBK\IBK_DRFN\ProjSrc\SrcChartEx\ChartOCX\AddInManager\ChartCommonAddIn\DlgYScaleSetUp.cpp

; 168  : {

  0001a	57		 push	 edi
  0001b	8b f9		 mov	 edi, ecx
  0001d	0f 57 c0	 xorps	 xmm0, xmm0
; File C:\Program Files (x86)\Microsoft Visual Studio\2019\Community\VC\Tools\MSVC\14.29.30133\atlmfc\include\afxwin2.inl

; 84   : 	{ ASSERT(::IsWindow(m_hWnd)); ::GetWindowRect(m_hWnd, lpRect); }

  00020	50		 push	 eax
; File C:\Program Files (x86)\Microsoft Visual Studio\2019\Community\VC\Tools\MSVC\14.29.30133\atlmfc\include\atltypes.h

; 528  : 	left = 0;

  00021	0f 11 45 dc	 movups	 XMMWORD PTR _rcDlgYScaleSetUp$[ebp], xmm0
; File C:\Program Files (x86)\Microsoft Visual Studio\2019\Community\VC\Tools\MSVC\14.29.30133\atlmfc\include\afxwin2.inl

; 84   : 	{ ASSERT(::IsWindow(m_hWnd)); ::GetWindowRect(m_hWnd, lpRect); }

  00025	ff 77 20	 push	 DWORD PTR [edi+32]
  00028	ff d6		 call	 esi
  0002a	0f 57 c0	 xorps	 xmm0, xmm0
; File D:\git\src\IBK\IBK_DRFN\ProjSrc\SrcChartEx\ChartOCX\AddInManager\ChartCommonAddIn\DlgYScaleSetUp.cpp

; 173  : 	GetDlgItem(IDC_STATIC_MAX_MIN)->GetWindowRect(rcStatic);

  0002d	8b cf		 mov	 ecx, edi
  0002f	68 cb 5d 00 00	 push	 24011			; 00005dcbH
; File C:\Program Files (x86)\Microsoft Visual Studio\2019\Community\VC\Tools\MSVC\14.29.30133\atlmfc\include\atltypes.h

; 528  : 	left = 0;

  00034	0f 11 45 ec	 movups	 XMMWORD PTR _rcStatic$[ebp], xmm0
; File D:\git\src\IBK\IBK_DRFN\ProjSrc\SrcChartEx\ChartOCX\AddInManager\ChartCommonAddIn\DlgYScaleSetUp.cpp

; 173  : 	GetDlgItem(IDC_STATIC_MAX_MIN)->GetWindowRect(rcStatic);

  00038	e8 00 00 00 00	 call	 ?GetDlgItem@CWnd@@QBEPAV1@H@Z ; CWnd::GetDlgItem
; File C:\Program Files (x86)\Microsoft Visual Studio\2019\Community\VC\Tools\MSVC\14.29.30133\atlmfc\include\afxwin2.inl

; 84   : 	{ ASSERT(::IsWindow(m_hWnd)); ::GetWindowRect(m_hWnd, lpRect); }

  0003d	8d 4d ec	 lea	 ecx, DWORD PTR _rcStatic$[ebp]
  00040	51		 push	 ecx
  00041	ff 70 20	 push	 DWORD PTR [eax+32]
  00044	ff d6		 call	 esi
; File D:\git\src\IBK\IBK_DRFN\ProjSrc\SrcChartEx\ChartOCX\AddInManager\ChartCommonAddIn\DlgYScaleSetUp.cpp

; 174  : 	ScreenToClient(rcStatic);

  00046	8d 45 ec	 lea	 eax, DWORD PTR _rcStatic$[ebp]
  00049	8b cf		 mov	 ecx, edi
  0004b	50		 push	 eax
  0004c	e8 00 00 00 00	 call	 ?ScreenToClient@CWnd@@QBEXPAUtagRECT@@@Z ; CWnd::ScreenToClient

; 175  : 
; 176  : 	if( m_bShow == FALSE )

  00051	83 bf cc 00 00
	00 00		 cmp	 DWORD PTR [edi+204], 0
  00058	8b 8f c8 00 00
	00		 mov	 ecx, DWORD PTR [edi+200]
  0005e	8b 45 e8	 mov	 eax, DWORD PTR _rcDlgYScaleSetUp$[ebp+12]
  00061	75 07		 jne	 SHORT $LN2@MovingAllC

; 177  : 	{
; 178  : 		rcDlgYScaleSetUp.bottom = rcDlgYScaleSetUp.bottom - m_nHeightToMoving;

  00063	2b c1		 sub	 eax, ecx

; 179  : 		rcStatic.bottom = rcStatic.bottom - m_nHeightToMoving;

  00065	29 4d f8	 sub	 DWORD PTR _rcStatic$[ebp+12], ecx

; 180  : 	}

  00068	eb 05		 jmp	 SHORT $LN17@MovingAllC
$LN2@MovingAllC:

; 181  : 
; 182  : 	else
; 183  : 	{
; 184  : 		rcDlgYScaleSetUp.bottom = rcDlgYScaleSetUp.bottom + m_nHeightToMoving;

  0006a	03 c1		 add	 eax, ecx

; 185  : 		rcStatic.bottom = rcStatic.bottom + m_nHeightToMoving;

  0006c	01 4d f8	 add	 DWORD PTR _rcStatic$[ebp+12], ecx
$LN17@MovingAllC:
; File C:\Program Files (x86)\Microsoft Visual Studio\2019\Community\VC\Tools\MSVC\14.29.30133\atlmfc\include\afxwin2.inl

; 73   : 	{ MoveWindow(lpRect->left, lpRect->top, lpRect->right - lpRect->left,

  0006f	8b 55 e0	 mov	 edx, DWORD PTR _rcDlgYScaleSetUp$[ebp+4]
  00072	8b 4d dc	 mov	 ecx, DWORD PTR _rcDlgYScaleSetUp$[ebp]
  00075	89 45 e8	 mov	 DWORD PTR _rcDlgYScaleSetUp$[ebp+12], eax
  00078	2b c2		 sub	 eax, edx
  0007a	6a 01		 push	 1
  0007c	50		 push	 eax
  0007d	8b 45 e4	 mov	 eax, DWORD PTR _rcDlgYScaleSetUp$[ebp+8]
  00080	2b c1		 sub	 eax, ecx
  00082	50		 push	 eax
  00083	52		 push	 edx
  00084	51		 push	 ecx
  00085	8b cf		 mov	 ecx, edi
  00087	e8 00 00 00 00	 call	 ?MoveWindow@CWnd@@QAEXHHHHH@Z ; CWnd::MoveWindow
; File D:\git\src\IBK\IBK_DRFN\ProjSrc\SrcChartEx\ChartOCX\AddInManager\ChartCommonAddIn\DlgYScaleSetUp.cpp

; 190  : 	GetDlgItem(IDC_STATIC_MAX_MIN)->MoveWindow(rcStatic);

  0008c	68 cb 5d 00 00	 push	 24011			; 00005dcbH
  00091	8b cf		 mov	 ecx, edi
  00093	e8 00 00 00 00	 call	 ?GetDlgItem@CWnd@@QBEPAV1@H@Z ; CWnd::GetDlgItem
; File C:\Program Files (x86)\Microsoft Visual Studio\2019\Community\VC\Tools\MSVC\14.29.30133\atlmfc\include\afxwin2.inl

; 73   : 	{ MoveWindow(lpRect->left, lpRect->top, lpRect->right - lpRect->left,

  00098	8b 4d f8	 mov	 ecx, DWORD PTR _rcStatic$[ebp+12]
  0009b	8b 75 f0	 mov	 esi, DWORD PTR _rcStatic$[ebp+4]
  0009e	2b ce		 sub	 ecx, esi
  000a0	8b 55 ec	 mov	 edx, DWORD PTR _rcStatic$[ebp]
  000a3	6a 01		 push	 1
  000a5	51		 push	 ecx
  000a6	8b 4d f4	 mov	 ecx, DWORD PTR _rcStatic$[ebp+8]
  000a9	2b ca		 sub	 ecx, edx
  000ab	51		 push	 ecx
  000ac	56		 push	 esi
  000ad	52		 push	 edx
  000ae	8b c8		 mov	 ecx, eax
  000b0	e8 00 00 00 00	 call	 ?MoveWindow@CWnd@@QAEXHHHHH@Z ; CWnd::MoveWindow
; File D:\git\src\IBK\IBK_DRFN\ProjSrc\SrcChartEx\ChartOCX\AddInManager\ChartCommonAddIn\DlgYScaleSetUp.cpp

; 193  : 	MoveControlPos(IDC_MAX_PRICE_TITLE, m_bShow);

  000b5	ff b7 cc 00 00
	00		 push	 DWORD PTR [edi+204]
  000bb	8b cf		 mov	 ecx, edi
  000bd	68 c6 5d 00 00	 push	 24006			; 00005dc6H
  000c2	e8 00 00 00 00	 call	 ?MoveControlPos@CDlgYScaleSetUp@@QAEXHH@Z ; CDlgYScaleSetUp::MoveControlPos

; 194  : 	MoveControlPos(IDC_MAX_PRICE_EDIT, m_bShow);

  000c7	ff b7 cc 00 00
	00		 push	 DWORD PTR [edi+204]
  000cd	8b cf		 mov	 ecx, edi
  000cf	68 c7 5d 00 00	 push	 24007			; 00005dc7H
  000d4	e8 00 00 00 00	 call	 ?MoveControlPos@CDlgYScaleSetUp@@QAEXHH@Z ; CDlgYScaleSetUp::MoveControlPos

; 195  : 	MoveControlPos(IDC_MAX_PRICE_UNIT, m_bShow);

  000d9	ff b7 cc 00 00
	00		 push	 DWORD PTR [edi+204]
  000df	8b cf		 mov	 ecx, edi
  000e1	68 c8 5d 00 00	 push	 24008			; 00005dc8H
  000e6	e8 00 00 00 00	 call	 ?MoveControlPos@CDlgYScaleSetUp@@QAEXHH@Z ; CDlgYScaleSetUp::MoveControlPos

; 196  : 
; 197  : 	//  Control 
; 198  : 	MoveControlPos(IDC_MIN_PRICE_TITLE, m_bShow);

  000eb	ff b7 cc 00 00
	00		 push	 DWORD PTR [edi+204]
  000f1	8b cf		 mov	 ecx, edi
  000f3	68 c9 5d 00 00	 push	 24009			; 00005dc9H
  000f8	e8 00 00 00 00	 call	 ?MoveControlPos@CDlgYScaleSetUp@@QAEXHH@Z ; CDlgYScaleSetUp::MoveControlPos

; 199  : 	MoveControlPos(IDC_MIN_PRICE_EDIT, m_bShow);

  000fd	ff b7 cc 00 00
	00		 push	 DWORD PTR [edi+204]
  00103	8b cf		 mov	 ecx, edi
  00105	68 d9 00 00 00	 push	 217			; 000000d9H
  0010a	e8 00 00 00 00	 call	 ?MoveControlPos@CDlgYScaleSetUp@@QAEXHH@Z ; CDlgYScaleSetUp::MoveControlPos

; 200  : 	MoveControlPos(IDC_MIN_PRICE_UNIT, m_bShow);

  0010f	ff b7 cc 00 00
	00		 push	 DWORD PTR [edi+204]
  00115	8b cf		 mov	 ecx, edi
  00117	68 ca 5d 00 00	 push	 24010			; 00005dcaH
  0011c	e8 00 00 00 00	 call	 ?MoveControlPos@CDlgYScaleSetUp@@QAEXHH@Z ; CDlgYScaleSetUp::MoveControlPos

; 201  : 
; 202  : 	//   
; 203  : 	MoveControlPos(IDOK, m_bShow);

  00121	ff b7 cc 00 00
	00		 push	 DWORD PTR [edi+204]
  00127	8b cf		 mov	 ecx, edi
  00129	6a 01		 push	 1
  0012b	e8 00 00 00 00	 call	 ?MoveControlPos@CDlgYScaleSetUp@@QAEXHH@Z ; CDlgYScaleSetUp::MoveControlPos

; 204  : 	MoveControlPos(IDCANCEL, m_bShow);

  00130	ff b7 cc 00 00
	00		 push	 DWORD PTR [edi+204]
  00136	8b cf		 mov	 ecx, edi
  00138	6a 02		 push	 2
  0013a	e8 00 00 00 00	 call	 ?MoveControlPos@CDlgYScaleSetUp@@QAEXHH@Z ; CDlgYScaleSetUp::MoveControlPos

; 205  : 
; 206  : 	m_bShow = !m_bShow;
; 207  : }

  0013f	8b 4d fc	 mov	 ecx, DWORD PTR __$ArrayPad$[ebp]
  00142	33 c0		 xor	 eax, eax
  00144	39 87 cc 00 00
	00		 cmp	 DWORD PTR [edi+204], eax
  0014a	0f 94 c0	 sete	 al
  0014d	33 cd		 xor	 ecx, ebp
  0014f	89 87 cc 00 00
	00		 mov	 DWORD PTR [edi+204], eax
  00155	5f		 pop	 edi
  00156	5e		 pop	 esi
  00157	e8 00 00 00 00	 call	 @__security_check_cookie@4
  0015c	8b e5		 mov	 esp, ebp
  0015e	5d		 pop	 ebp
  0015f	c3		 ret	 0
?MovingAllControls@CDlgYScaleSetUp@@QAEXXZ ENDP		; CDlgYScaleSetUp::MovingAllControls
_TEXT	ENDS
; Function compile flags: /Ogtp
; File D:\git\src\IBK\IBK_DRFN\ProjSrc\SrcChartEx\ChartOCX\AddInManager\ChartCommonAddIn\DlgYScaleSetUp.cpp
;	COMDAT ?SetValueFormat@CDlgYScaleSetUp@@QAEXV?$CStringT@DV?$StrTraitMFC_DLL@DV?$ChTraitsCRT@D@ATL@@@@@ATL@@@Z
_TEXT	SEGMENT
__$EHRec$ = -12						; size = 12
_strFormat$ = 8						; size = 4
?SetValueFormat@CDlgYScaleSetUp@@QAEXV?$CStringT@DV?$StrTraitMFC_DLL@DV?$ChTraitsCRT@D@ATL@@@@@ATL@@@Z PROC ; CDlgYScaleSetUp::SetValueFormat, COMDAT
; _this$ = ecx

; 154  : {

  00000	55		 push	 ebp
  00001	8b ec		 mov	 ebp, esp
  00003	6a ff		 push	 -1
  00005	68 00 00 00 00	 push	 __ehhandler$?SetValueFormat@CDlgYScaleSetUp@@QAEXV?$CStringT@DV?$StrTraitMFC_DLL@DV?$ChTraitsCRT@D@ATL@@@@@ATL@@@Z
  0000a	64 a1 00 00 00
	00		 mov	 eax, DWORD PTR fs:0
  00010	50		 push	 eax
  00011	a1 00 00 00 00	 mov	 eax, DWORD PTR ___security_cookie
  00016	33 c5		 xor	 eax, ebp
  00018	50		 push	 eax
  00019	8d 45 f4	 lea	 eax, DWORD PTR __$EHRec$[ebp]
  0001c	64 a3 00 00 00
	00		 mov	 DWORD PTR fs:0, eax

; 155  : 	m_strValueFormat = strFormat;

  00022	8d 45 08	 lea	 eax, DWORD PTR _strFormat$[ebp]
  00025	c7 45 fc 00 00
	00 00		 mov	 DWORD PTR __$EHRec$[ebp+8], 0
  0002c	50		 push	 eax
  0002d	81 c1 08 01 00
	00		 add	 ecx, 264		; 00000108H
  00033	ff 15 00 00 00
	00		 call	 DWORD PTR __imp_??4?$CStringT@DV?$StrTraitMFC_DLL@DV?$ChTraitsCRT@D@ATL@@@@@ATL@@QAEAAV01@ABV01@@Z

; 156  : }

  00039	8d 4d 08	 lea	 ecx, DWORD PTR _strFormat$[ebp]
  0003c	ff 15 00 00 00
	00		 call	 DWORD PTR __imp_??1?$CStringT@DV?$StrTraitMFC_DLL@DV?$ChTraitsCRT@D@ATL@@@@@ATL@@QAE@XZ
  00042	8b 4d f4	 mov	 ecx, DWORD PTR __$EHRec$[ebp]
  00045	64 89 0d 00 00
	00 00		 mov	 DWORD PTR fs:0, ecx
  0004c	59		 pop	 ecx
  0004d	8b e5		 mov	 esp, ebp
  0004f	5d		 pop	 ebp
  00050	c2 04 00	 ret	 4
_TEXT	ENDS
;	COMDAT text$x
text$x	SEGMENT
__unwindfunclet$?SetValueFormat@CDlgYScaleSetUp@@QAEXV?$CStringT@DV?$StrTraitMFC_DLL@DV?$ChTraitsCRT@D@ATL@@@@@ATL@@@Z$0:
  00000	8d 4d 08	 lea	 ecx, DWORD PTR _strFormat$[ebp]
  00003	ff 25 00 00 00
	00		 jmp	 DWORD PTR __imp_??1?$CStringT@DV?$StrTraitMFC_DLL@DV?$ChTraitsCRT@D@ATL@@@@@ATL@@QAE@XZ
  00009	cc		 int	 3
  0000a	cc		 int	 3
  0000b	cc		 int	 3
  0000c	cc		 int	 3
  0000d	cc		 int	 3
__ehhandler$?SetValueFormat@CDlgYScaleSetUp@@QAEXV?$CStringT@DV?$StrTraitMFC_DLL@DV?$ChTraitsCRT@D@ATL@@@@@ATL@@@Z:
  0000e	90		 npad	 1
  0000f	90		 npad	 1
  00010	8b 54 24 08	 mov	 edx, DWORD PTR [esp+8]
  00014	8d 42 0c	 lea	 eax, DWORD PTR [edx+12]
  00017	8b 4a fc	 mov	 ecx, DWORD PTR [edx-4]
  0001a	33 c8		 xor	 ecx, eax
  0001c	e8 00 00 00 00	 call	 @__security_check_cookie@4
  00021	b8 00 00 00 00	 mov	 eax, OFFSET __ehfuncinfo$?SetValueFormat@CDlgYScaleSetUp@@QAEXV?$CStringT@DV?$StrTraitMFC_DLL@DV?$ChTraitsCRT@D@ATL@@@@@ATL@@@Z
  00026	e9 00 00 00 00	 jmp	 ___CxxFrameHandler3
text$x	ENDS
?SetValueFormat@CDlgYScaleSetUp@@QAEXV?$CStringT@DV?$StrTraitMFC_DLL@DV?$ChTraitsCRT@D@ATL@@@@@ATL@@@Z ENDP ; CDlgYScaleSetUp::SetValueFormat
; Function compile flags: /Ogtp
; File D:\git\src\IBK\IBK_DRFN\ProjSrc\SrcChartEx\ChartOCX\AddInManager\ChartCommonAddIn\DlgYScaleSetUp.cpp
;	COMDAT ?DoDataExchange@CDlgYScaleSetUp@@MAEXPAVCDataExchange@@@Z
_TEXT	SEGMENT
_pDX$ = 8						; size = 4
?DoDataExchange@CDlgYScaleSetUp@@MAEXPAVCDataExchange@@@Z PROC ; CDlgYScaleSetUp::DoDataExchange, COMDAT
; _this$ = ecx

; 55   : {

  00000	55		 push	 ebp
  00001	8b ec		 mov	 ebp, esp
  00003	56		 push	 esi
  00004	8b f1		 mov	 esi, ecx
  00006	57		 push	 edi

; 56   : 	CDialog::DoDataExchange(pDX);
; 57   : 	//{{AFX_DATA_MAP(CDlgYScaleSetUp)
; 58   : 	DDX_Radio(pDX, IDC_USE_SETUP_VALUE, m_nYScaleMaxMinSetupType);

  00007	8b 7d 08	 mov	 edi, DWORD PTR _pDX$[ebp]
  0000a	8d 86 a8 00 00
	00		 lea	 eax, DWORD PTR [esi+168]
  00010	50		 push	 eax
  00011	68 c0 5d 00 00	 push	 24000			; 00005dc0H
  00016	57		 push	 edi
  00017	e8 00 00 00 00	 call	 ?DDX_Radio@@YGXPAVCDataExchange@@HAAH@Z ; DDX_Radio

; 59   : 	DDX_Radio(pDX, IDC_30_PERCENT, m_nSelectPercent);

  0001c	8d 86 ac 00 00
	00		 lea	 eax, DWORD PTR [esi+172]
  00022	50		 push	 eax
  00023	68 c2 5d 00 00	 push	 24002			; 00005dc2H
  00028	57		 push	 edi
  00029	e8 00 00 00 00	 call	 ?DDX_Radio@@YGXPAVCDataExchange@@HAAH@Z ; DDX_Radio

; 60   : 	DDX_Text(pDX, IDC_YESTERDAY_CLOSE_PRICE, m_strYesterdayClosePrice);

  0002e	8d 86 b0 00 00
	00		 lea	 eax, DWORD PTR [esi+176]
  00034	50		 push	 eax
  00035	68 cd 5d 00 00	 push	 24013			; 00005dcdH
  0003a	57		 push	 edi
  0003b	e8 00 00 00 00	 call	 ?DDX_Text@@YGXPAVCDataExchange@@HAAV?$CStringT@DV?$StrTraitMFC_DLL@DV?$ChTraitsCRT@D@ATL@@@@@ATL@@@Z ; DDX_Text

; 61   : 	DDX_Text(pDX, IDC_MAX_PRICE_EDIT, m_strMaxPrice);

  00040	8d 86 b4 00 00
	00		 lea	 eax, DWORD PTR [esi+180]
  00046	50		 push	 eax
  00047	68 c7 5d 00 00	 push	 24007			; 00005dc7H
  0004c	57		 push	 edi
  0004d	e8 00 00 00 00	 call	 ?DDX_Text@@YGXPAVCDataExchange@@HAAV?$CStringT@DV?$StrTraitMFC_DLL@DV?$ChTraitsCRT@D@ATL@@@@@ATL@@@Z ; DDX_Text

; 62   : 	DDX_Text(pDX, IDC_MIN_PRICE_EDIT, m_strMinPrice);

  00052	8d 86 b8 00 00
	00		 lea	 eax, DWORD PTR [esi+184]
  00058	50		 push	 eax
  00059	68 d9 00 00 00	 push	 217			; 000000d9H
  0005e	57		 push	 edi
  0005f	e8 00 00 00 00	 call	 ?DDX_Text@@YGXPAVCDataExchange@@HAAV?$CStringT@DV?$StrTraitMFC_DLL@DV?$ChTraitsCRT@D@ATL@@@@@ATL@@@Z ; DDX_Text

; 63   : 	//}}AFX_DATA_MAP
; 64   : 
; 65   : 	// (2009/9/28 - Seung-Won, Bae) Check the control not in common.
; 66   : 	if( GetDlgItem( IDC_UPPER_BOUND))

  00064	68 d6 00 00 00	 push	 214			; 000000d6H
  00069	8b ce		 mov	 ecx, esi
  0006b	e8 00 00 00 00	 call	 ?GetDlgItem@CWnd@@QBEPAV1@H@Z ; CWnd::GetDlgItem
  00070	85 c0		 test	 eax, eax
  00072	74 12		 je	 SHORT $LN2@DoDataExch

; 67   : 		DDX_Text(pDX, IDC_UPPER_BOUND, m_strUpperBound);

  00074	8d 86 bc 00 00
	00		 lea	 eax, DWORD PTR [esi+188]
  0007a	50		 push	 eax
  0007b	68 d6 00 00 00	 push	 214			; 000000d6H
  00080	57		 push	 edi
  00081	e8 00 00 00 00	 call	 ?DDX_Text@@YGXPAVCDataExchange@@HAAV?$CStringT@DV?$StrTraitMFC_DLL@DV?$ChTraitsCRT@D@ATL@@@@@ATL@@@Z ; DDX_Text
$LN2@DoDataExch:

; 68   : 	if( GetDlgItem( IDC_LOWER_BOUND))

  00086	68 d7 00 00 00	 push	 215			; 000000d7H
  0008b	8b ce		 mov	 ecx, esi
  0008d	e8 00 00 00 00	 call	 ?GetDlgItem@CWnd@@QBEPAV1@H@Z ; CWnd::GetDlgItem
  00092	85 c0		 test	 eax, eax
  00094	74 12		 je	 SHORT $LN3@DoDataExch

; 69   : 		DDX_Text(pDX, IDC_LOWER_BOUND, m_strLowerBound);

  00096	8d 86 c0 00 00
	00		 lea	 eax, DWORD PTR [esi+192]
  0009c	50		 push	 eax
  0009d	68 d7 00 00 00	 push	 215			; 000000d7H
  000a2	57		 push	 edi
  000a3	e8 00 00 00 00	 call	 ?DDX_Text@@YGXPAVCDataExchange@@HAAV?$CStringT@DV?$StrTraitMFC_DLL@DV?$ChTraitsCRT@D@ATL@@@@@ATL@@@Z ; DDX_Text
$LN3@DoDataExch:

; 70   : }

  000a8	5f		 pop	 edi
  000a9	5e		 pop	 esi
  000aa	5d		 pop	 ebp
  000ab	c2 04 00	 ret	 4
?DoDataExchange@CDlgYScaleSetUp@@MAEXPAVCDataExchange@@@Z ENDP ; CDlgYScaleSetUp::DoDataExchange
_TEXT	ENDS
; Function compile flags: /Ogtp
; File D:\git\src\IBK\IBK_DRFN\ProjSrc\SrcChartEx\ChartOCX\AddInManager\ChartCommonAddIn\DlgYScaleSetUp.cpp
;	COMDAT ??0CDlgYScaleSetUp@@QAE@PAVCYScaleSetUpAddInImp@@PAUHWND__@@W4CHART_MODE@CChartInfo@@IPAVCWnd@@@Z
_TEXT	SEGMENT
_this$ = -16						; size = 4
__$EHRec$ = -12						; size = 12
_pAddIn$ = 8						; size = 4
_p_hOcxWnd$ = 12					; size = 4
_p_eChartMode$ = 16					; size = 4
_nIDTemplate$ = 20					; size = 4
_pParent$ = 24						; size = 4
??0CDlgYScaleSetUp@@QAE@PAVCYScaleSetUpAddInImp@@PAUHWND__@@W4CHART_MODE@CChartInfo@@IPAVCWnd@@@Z PROC ; CDlgYScaleSetUp::CDlgYScaleSetUp, COMDAT
; _this$ = ecx

; 23   : {

  00000	55		 push	 ebp
  00001	8b ec		 mov	 ebp, esp
  00003	6a ff		 push	 -1
  00005	68 00 00 00 00	 push	 __ehhandler$??0CDlgYScaleSetUp@@QAE@PAVCYScaleSetUpAddInImp@@PAUHWND__@@W4CHART_MODE@CChartInfo@@IPAVCWnd@@@Z
  0000a	64 a1 00 00 00
	00		 mov	 eax, DWORD PTR fs:0
  00010	50		 push	 eax
  00011	51		 push	 ecx
  00012	53		 push	 ebx
  00013	56		 push	 esi
  00014	57		 push	 edi
  00015	a1 00 00 00 00	 mov	 eax, DWORD PTR ___security_cookie
  0001a	33 c5		 xor	 eax, ebp
  0001c	50		 push	 eax
  0001d	8d 45 f4	 lea	 eax, DWORD PTR __$EHRec$[ebp]
  00020	64 a3 00 00 00
	00		 mov	 DWORD PTR fs:0, eax
  00026	8b f1		 mov	 esi, ecx
  00028	89 75 f0	 mov	 DWORD PTR _this$[ebp], esi

; 22   : 	: CDialog( nIDTemplate, pParent)

  0002b	ff 75 18	 push	 DWORD PTR _pParent$[ebp]
  0002e	ff 75 14	 push	 DWORD PTR _nIDTemplate$[ebp]
  00031	e8 00 00 00 00	 call	 ??0CDialog@@QAE@IPAVCWnd@@@Z ; CDialog::CDialog

; 23   : {

  00036	8d 8e b0 00 00
	00		 lea	 ecx, DWORD PTR [esi+176]
  0003c	c7 45 fc 00 00
	00 00		 mov	 DWORD PTR __$EHRec$[ebp+8], 0
  00043	c7 06 00 00 00
	00		 mov	 DWORD PTR [esi], OFFSET ??_7CDlgYScaleSetUp@@6B@
  00049	ff 15 00 00 00
	00		 call	 DWORD PTR __imp_??0?$CStringT@DV?$StrTraitMFC_DLL@DV?$ChTraitsCRT@D@ATL@@@@@ATL@@QAE@XZ
  0004f	8d 8e b4 00 00
	00		 lea	 ecx, DWORD PTR [esi+180]
  00055	ff 15 00 00 00
	00		 call	 DWORD PTR __imp_??0?$CStringT@DV?$StrTraitMFC_DLL@DV?$ChTraitsCRT@D@ATL@@@@@ATL@@QAE@XZ
  0005b	8d 8e b8 00 00
	00		 lea	 ecx, DWORD PTR [esi+184]
  00061	ff 15 00 00 00
	00		 call	 DWORD PTR __imp_??0?$CStringT@DV?$StrTraitMFC_DLL@DV?$ChTraitsCRT@D@ATL@@@@@ATL@@QAE@XZ
  00067	8d 8e bc 00 00
	00		 lea	 ecx, DWORD PTR [esi+188]
  0006d	ff 15 00 00 00
	00		 call	 DWORD PTR __imp_??0?$CStringT@DV?$StrTraitMFC_DLL@DV?$ChTraitsCRT@D@ATL@@@@@ATL@@QAE@XZ
  00073	8d 8e c0 00 00
	00		 lea	 ecx, DWORD PTR [esi+192]
  00079	ff 15 00 00 00
	00		 call	 DWORD PTR __imp_??0?$CStringT@DV?$StrTraitMFC_DLL@DV?$ChTraitsCRT@D@ATL@@@@@ATL@@QAE@XZ
  0007f	8b ce		 mov	 ecx, esi
  00081	81 c1 08 01 00
	00		 add	 ecx, 264		; 00000108H
  00087	ff 15 00 00 00
	00		 call	 DWORD PTR __imp_??0?$CStringT@DV?$StrTraitMFC_DLL@DV?$ChTraitsCRT@D@ATL@@@@@ATL@@QAE@XZ
  0008d	8b ce		 mov	 ecx, esi
  0008f	8d 89 0c 01 00
	00		 lea	 ecx, DWORD PTR [ecx+268]
  00095	ff 15 00 00 00
	00		 call	 DWORD PTR __imp_??0?$CStringT@DV?$StrTraitMFC_DLL@DV?$ChTraitsCRT@D@ATL@@@@@ATL@@QAE@XZ

; 24   : 	// (2009/9/14 - Seung-Won, Bae) for World-On
; 25   : 	m_eChartMode = p_eChartMode;

  0009b	8b 45 10	 mov	 eax, DWORD PTR _p_eChartMode$[ebp]
  0009e	8b d6		 mov	 edx, esi

; 26   : 
; 27   : 	//{{AFX_DATA_INIT(CDlgYScaleSetUp)
; 28   : 	m_nYScaleMaxMinSetupType = 0;
; 29   : 	m_nSelectPercent = 0;
; 30   : 	m_strYesterdayClosePrice = _T("");

  000a0	68 00 00 00 00	 push	 OFFSET ??_C@_00CNPNBAHC@@
  000a5	c6 45 fc 07	 mov	 BYTE PTR __$EHRec$[ebp+8], 7
  000a9	8d 8a b0 00 00
	00		 lea	 ecx, DWORD PTR [edx+176]
  000af	89 82 18 01 00
	00		 mov	 DWORD PTR [edx+280], eax
  000b5	c7 82 a8 00 00
	00 00 00 00 00	 mov	 DWORD PTR [edx+168], 0
  000bf	c7 82 ac 00 00
	00 00 00 00 00	 mov	 DWORD PTR [edx+172], 0
  000c9	ff 15 00 00 00
	00		 call	 DWORD PTR __imp_??4?$CStringT@DV?$StrTraitMFC_DLL@DV?$ChTraitsCRT@D@ATL@@@@@ATL@@QAEAAV01@PBD@Z

; 31   : 	m_strMaxPrice = _T("");

  000cf	8b ce		 mov	 ecx, esi
  000d1	68 00 00 00 00	 push	 OFFSET ??_C@_00CNPNBAHC@@
  000d6	8d 89 b4 00 00
	00		 lea	 ecx, DWORD PTR [ecx+180]
  000dc	ff 15 00 00 00
	00		 call	 DWORD PTR __imp_??4?$CStringT@DV?$StrTraitMFC_DLL@DV?$ChTraitsCRT@D@ATL@@@@@ATL@@QAEAAV01@PBD@Z

; 32   : 	m_strMinPrice = _T("");

  000e2	68 00 00 00 00	 push	 OFFSET ??_C@_00CNPNBAHC@@
  000e7	8d 8e b8 00 00
	00		 lea	 ecx, DWORD PTR [esi+184]
  000ed	ff 15 00 00 00
	00		 call	 DWORD PTR __imp_??4?$CStringT@DV?$StrTraitMFC_DLL@DV?$ChTraitsCRT@D@ATL@@@@@ATL@@QAEAAV01@PBD@Z

; 33   : 	//}}AFX_DATA_INIT
; 34   : 	m_strUpperBound = _T("");

  000f3	68 00 00 00 00	 push	 OFFSET ??_C@_00CNPNBAHC@@
  000f8	8d 8e bc 00 00
	00		 lea	 ecx, DWORD PTR [esi+188]
  000fe	ff 15 00 00 00
	00		 call	 DWORD PTR __imp_??4?$CStringT@DV?$StrTraitMFC_DLL@DV?$ChTraitsCRT@D@ATL@@@@@ATL@@QAEAAV01@PBD@Z

; 35   : 	m_strLowerBound = _T("");

  00104	68 00 00 00 00	 push	 OFFSET ??_C@_00CNPNBAHC@@
  00109	8d 8e c0 00 00
	00		 lea	 ecx, DWORD PTR [esi+192]
  0010f	ff 15 00 00 00
	00		 call	 DWORD PTR __imp_??4?$CStringT@DV?$StrTraitMFC_DLL@DV?$ChTraitsCRT@D@ATL@@@@@ATL@@QAEAAV01@PBD@Z

; 36   : 	
; 37   : 	m_pAddIn = NULL;
; 38   : 	if( pAddIn )

  00115	8b 45 08	 mov	 eax, DWORD PTR _pAddIn$[ebp]
  00118	8b ce		 mov	 ecx, esi
  0011a	c7 81 c4 00 00
	00 00 00 00 00	 mov	 DWORD PTR [ecx+196], 0
  00124	85 c0		 test	 eax, eax
  00126	74 06		 je	 SHORT $LN2@CDlgYScale

; 39   : 		m_pAddIn = pAddIn;

  00128	89 81 c4 00 00
	00		 mov	 DWORD PTR [ecx+196], eax
$LN2@CDlgYScale:

; 40   : 
; 41   : 	m_nYScaleMaxMinSetupType = 0;
; 42   : 	m_nSelectPercent = -1;
; 43   : 
; 44   : 	m_bShow = FALSE;
; 45   : 
; 46   : 	// (2007/5/2 - Seung-Won, Bae) Check Market Type for Unit.
; 47   : 	m_eMarketType = CPacketType::STOCK;
; 48   : 
; 49   : 	// (2008/1/22 - Seung-Won, Bae) for Multi-Language
; 50   : 	m_hOcxWnd = p_hOcxWnd;

  0012e	8b 45 0c	 mov	 eax, DWORD PTR _p_hOcxWnd$[ebp]
  00131	89 81 14 01 00
	00		 mov	 DWORD PTR [ecx+276], eax

; 51   : }

  00137	8b c1		 mov	 eax, ecx
  00139	c7 81 a8 00 00
	00 00 00 00 00	 mov	 DWORD PTR [ecx+168], 0
  00143	c7 81 ac 00 00
	00 ff ff ff ff	 mov	 DWORD PTR [ecx+172], -1
  0014d	c7 81 cc 00 00
	00 00 00 00 00	 mov	 DWORD PTR [ecx+204], 0
  00157	c7 81 10 01 00
	00 00 00 00 00	 mov	 DWORD PTR [ecx+272], 0
  00161	8b 4d f4	 mov	 ecx, DWORD PTR __$EHRec$[ebp]
  00164	64 89 0d 00 00
	00 00		 mov	 DWORD PTR fs:0, ecx
  0016b	59		 pop	 ecx
  0016c	5f		 pop	 edi
  0016d	5e		 pop	 esi
  0016e	5b		 pop	 ebx
  0016f	8b e5		 mov	 esp, ebp
  00171	5d		 pop	 ebp
  00172	c2 14 00	 ret	 20			; 00000014H
_TEXT	ENDS
;	COMDAT text$x
text$x	SEGMENT
__unwindfunclet$??0CDlgYScaleSetUp@@QAE@PAVCYScaleSetUpAddInImp@@PAUHWND__@@W4CHART_MODE@CChartInfo@@IPAVCWnd@@@Z$0:
  00000	8b 4d f0	 mov	 ecx, DWORD PTR _this$[ebp]
  00003	e9 00 00 00 00	 jmp	 ??1CDialog@@UAE@XZ	; CDialog::~CDialog
__unwindfunclet$??0CDlgYScaleSetUp@@QAE@PAVCYScaleSetUpAddInImp@@PAUHWND__@@W4CHART_MODE@CChartInfo@@IPAVCWnd@@@Z$1:
  00008	8b 4d f0	 mov	 ecx, DWORD PTR _this$[ebp]
  0000b	81 c1 b0 00 00
	00		 add	 ecx, 176		; 000000b0H
  00011	ff 25 00 00 00
	00		 jmp	 DWORD PTR __imp_??1?$CStringT@DV?$StrTraitMFC_DLL@DV?$ChTraitsCRT@D@ATL@@@@@ATL@@QAE@XZ
__unwindfunclet$??0CDlgYScaleSetUp@@QAE@PAVCYScaleSetUpAddInImp@@PAUHWND__@@W4CHART_MODE@CChartInfo@@IPAVCWnd@@@Z$2:
  00017	8b 4d f0	 mov	 ecx, DWORD PTR _this$[ebp]
  0001a	81 c1 b4 00 00
	00		 add	 ecx, 180		; 000000b4H
  00020	ff 25 00 00 00
	00		 jmp	 DWORD PTR __imp_??1?$CStringT@DV?$StrTraitMFC_DLL@DV?$ChTraitsCRT@D@ATL@@@@@ATL@@QAE@XZ
__unwindfunclet$??0CDlgYScaleSetUp@@QAE@PAVCYScaleSetUpAddInImp@@PAUHWND__@@W4CHART_MODE@CChartInfo@@IPAVCWnd@@@Z$3:
  00026	8b 4d f0	 mov	 ecx, DWORD PTR _this$[ebp]
  00029	81 c1 b8 00 00
	00		 add	 ecx, 184		; 000000b8H
  0002f	ff 25 00 00 00
	00		 jmp	 DWORD PTR __imp_??1?$CStringT@DV?$StrTraitMFC_DLL@DV?$ChTraitsCRT@D@ATL@@@@@ATL@@QAE@XZ
__unwindfunclet$??0CDlgYScaleSetUp@@QAE@PAVCYScaleSetUpAddInImp@@PAUHWND__@@W4CHART_MODE@CChartInfo@@IPAVCWnd@@@Z$4:
  00035	8b 4d f0	 mov	 ecx, DWORD PTR _this$[ebp]
  00038	81 c1 bc 00 00
	00		 add	 ecx, 188		; 000000bcH
  0003e	ff 25 00 00 00
	00		 jmp	 DWORD PTR __imp_??1?$CStringT@DV?$StrTraitMFC_DLL@DV?$ChTraitsCRT@D@ATL@@@@@ATL@@QAE@XZ
__unwindfunclet$??0CDlgYScaleSetUp@@QAE@PAVCYScaleSetUpAddInImp@@PAUHWND__@@W4CHART_MODE@CChartInfo@@IPAVCWnd@@@Z$5:
  00044	8b 4d f0	 mov	 ecx, DWORD PTR _this$[ebp]
  00047	81 c1 c0 00 00
	00		 add	 ecx, 192		; 000000c0H
  0004d	ff 25 00 00 00
	00		 jmp	 DWORD PTR __imp_??1?$CStringT@DV?$StrTraitMFC_DLL@DV?$ChTraitsCRT@D@ATL@@@@@ATL@@QAE@XZ
__unwindfunclet$??0CDlgYScaleSetUp@@QAE@PAVCYScaleSetUpAddInImp@@PAUHWND__@@W4CHART_MODE@CChartInfo@@IPAVCWnd@@@Z$6:
  00053	8b 4d f0	 mov	 ecx, DWORD PTR _this$[ebp]
  00056	81 c1 08 01 00
	00		 add	 ecx, 264		; 00000108H
  0005c	ff 25 00 00 00
	00		 jmp	 DWORD PTR __imp_??1?$CStringT@DV?$StrTraitMFC_DLL@DV?$ChTraitsCRT@D@ATL@@@@@ATL@@QAE@XZ
__unwindfunclet$??0CDlgYScaleSetUp@@QAE@PAVCYScaleSetUpAddInImp@@PAUHWND__@@W4CHART_MODE@CChartInfo@@IPAVCWnd@@@Z$7:
  00062	8b 4d f0	 mov	 ecx, DWORD PTR _this$[ebp]
  00065	81 c1 0c 01 00
	00		 add	 ecx, 268		; 0000010cH
  0006b	ff 25 00 00 00
	00		 jmp	 DWORD PTR __imp_??1?$CStringT@DV?$StrTraitMFC_DLL@DV?$ChTraitsCRT@D@ATL@@@@@ATL@@QAE@XZ
  00071	cc		 int	 3
  00072	cc		 int	 3
  00073	cc		 int	 3
  00074	cc		 int	 3
  00075	cc		 int	 3
__ehhandler$??0CDlgYScaleSetUp@@QAE@PAVCYScaleSetUpAddInImp@@PAUHWND__@@W4CHART_MODE@CChartInfo@@IPAVCWnd@@@Z:
  00076	90		 npad	 1
  00077	90		 npad	 1
  00078	8b 54 24 08	 mov	 edx, DWORD PTR [esp+8]
  0007c	8d 42 0c	 lea	 eax, DWORD PTR [edx+12]
  0007f	8b 4a ec	 mov	 ecx, DWORD PTR [edx-20]
  00082	33 c8		 xor	 ecx, eax
  00084	e8 00 00 00 00	 call	 @__security_check_cookie@4
  00089	b8 00 00 00 00	 mov	 eax, OFFSET __ehfuncinfo$??0CDlgYScaleSetUp@@QAE@PAVCYScaleSetUpAddInImp@@PAUHWND__@@W4CHART_MODE@CChartInfo@@IPAVCWnd@@@Z
  0008e	e9 00 00 00 00	 jmp	 ___CxxFrameHandler3
text$x	ENDS
??0CDlgYScaleSetUp@@QAE@PAVCYScaleSetUpAddInImp@@PAUHWND__@@W4CHART_MODE@CChartInfo@@IPAVCWnd@@@Z ENDP ; CDlgYScaleSetUp::CDlgYScaleSetUp
; Function compile flags: /Ogtp
; File C:\Program Files (x86)\Microsoft Visual Studio\2019\Community\VC\Tools\MSVC\14.29.30133\atlmfc\include\afxwin2.inl
;	COMDAT ?Create@CDialog@@UAEHIPAVCWnd@@@Z
_TEXT	SEGMENT
_nIDTemplate$ = 8					; size = 4
_pParentWnd$ = 12					; size = 4
?Create@CDialog@@UAEHIPAVCWnd@@@Z PROC			; CDialog::Create, COMDAT
; _this$ = ecx

; 585  : 	{ return CDialog::Create(ATL_MAKEINTRESOURCE(nIDTemplate), pParentWnd); }

  00000	55		 push	 ebp
  00001	8b ec		 mov	 ebp, esp
  00003	0f b7 45 08	 movzx	 eax, WORD PTR _nIDTemplate$[ebp]
  00007	89 45 08	 mov	 DWORD PTR _nIDTemplate$[ebp], eax
  0000a	5d		 pop	 ebp
  0000b	e9 00 00 00 00	 jmp	 ?Create@CDialog@@UAEHPBDPAVCWnd@@@Z ; CDialog::Create
?Create@CDialog@@UAEHIPAVCWnd@@@Z ENDP			; CDialog::Create
_TEXT	ENDS
; Function compile flags: /Ogtp
; File C:\Program Files (x86)\Microsoft Visual Studio\2019\Community\VC\Tools\MSVC\14.29.30133\atlmfc\include\afxwin2.inl
;	COMDAT ?EndModalState@CWnd@@UAEXXZ
_TEXT	SEGMENT
?EndModalState@CWnd@@UAEXXZ PROC			; CWnd::EndModalState, COMDAT
; _this$ = ecx

; 567  : 	{ ::EnableWindow(m_hWnd, TRUE); }

  00000	6a 01		 push	 1
  00002	ff 71 20	 push	 DWORD PTR [ecx+32]
  00005	ff 15 00 00 00
	00		 call	 DWORD PTR __imp__EnableWindow@8
  0000b	c3		 ret	 0
?EndModalState@CWnd@@UAEXXZ ENDP			; CWnd::EndModalState
_TEXT	ENDS
; Function compile flags: /Ogtp
; File C:\Program Files (x86)\Microsoft Visual Studio\2019\Community\VC\Tools\MSVC\14.29.30133\atlmfc\include\afxwin2.inl
;	COMDAT ?BeginModalState@CWnd@@UAEXXZ
_TEXT	SEGMENT
?BeginModalState@CWnd@@UAEXXZ PROC			; CWnd::BeginModalState, COMDAT
; _this$ = ecx

; 565  : 	{ ::EnableWindow(m_hWnd, FALSE); }

  00000	6a 00		 push	 0
  00002	ff 71 20	 push	 DWORD PTR [ecx+32]
  00005	ff 15 00 00 00
	00		 call	 DWORD PTR __imp__EnableWindow@8
  0000b	c3		 ret	 0
?BeginModalState@CWnd@@UAEXXZ ENDP			; CWnd::BeginModalState
_TEXT	ENDS
; Function compile flags: /Ogtp
; File C:\Program Files (x86)\Microsoft Visual Studio\2019\Community\VC\Tools\MSVC\14.29.30133\atlmfc\include\afxwin2.inl
;	COMDAT ?DoDataExchange@CWnd@@MAEXPAVCDataExchange@@@Z
_TEXT	SEGMENT
___formal$ = 8						; size = 4
?DoDataExchange@CWnd@@MAEXPAVCDataExchange@@@Z PROC	; CWnd::DoDataExchange, COMDAT
; _this$ = ecx

; 561  : 	{ } // default does nothing

  00000	c2 04 00	 ret	 4
?DoDataExchange@CWnd@@MAEXPAVCDataExchange@@@Z ENDP	; CWnd::DoDataExchange
_TEXT	ENDS
; Function compile flags: /Ogtp
; File C:\Program Files (x86)\Microsoft Visual Studio\2019\Community\VC\Tools\MSVC\14.29.30133\atlmfc\include\afx.inl
;	COMDAT ?Dump@CObject@@UBEXAAVCDumpContext@@@Z
_TEXT	SEGMENT
___formal$ = 8						; size = 4
?Dump@CObject@@UBEXAAVCDumpContext@@@Z PROC		; CObject::Dump, COMDAT
; _this$ = ecx

; 122  : 	{ /* no dumping in release builds */ }

  00000	c2 04 00	 ret	 4
?Dump@CObject@@UBEXAAVCDumpContext@@@Z ENDP		; CObject::Dump
_TEXT	ENDS
; Function compile flags: /Ogtp
; File C:\Program Files (x86)\Microsoft Visual Studio\2019\Community\VC\Tools\MSVC\14.29.30133\atlmfc\include\afx.inl
;	COMDAT ?AssertValid@CObject@@UBEXXZ
_TEXT	SEGMENT
?AssertValid@CObject@@UBEXXZ PROC			; CObject::AssertValid, COMDAT
; _this$ = ecx

; 120  : 	{ /* no asserts in release builds */ }

  00000	c2 00 00	 ret	 0
?AssertValid@CObject@@UBEXXZ ENDP			; CObject::AssertValid
_TEXT	ENDS
; Function compile flags: /Ogtp
; File C:\Program Files (x86)\Microsoft Visual Studio\2019\Community\VC\Tools\MSVC\14.29.30133\atlmfc\include\afx.inl
;	COMDAT ?Serialize@CObject@@UAEXAAVCArchive@@@Z
_TEXT	SEGMENT
___formal$ = 8						; size = 4
?Serialize@CObject@@UAEXAAVCArchive@@@Z PROC		; CObject::Serialize, COMDAT
; _this$ = ecx

; 106  : 	{ /* CObject does not serialize anything by default */ }

  00000	c2 04 00	 ret	 4
?Serialize@CObject@@UAEXAAVCArchive@@@Z ENDP		; CObject::Serialize
_TEXT	ENDS
; Function compile flags: /Ogtp
; File D:\git\src\IBK\IBK_DRFN\ProjSrc\SrcChartEx\ChartOCX\AddInManager\ChartCommonAddIn\DlgYScaleSetUp.cpp
;	COMDAT ?__empty_global_delete@@YAXPAXI@Z
_TEXT	SEGMENT
___formal$ = 8						; size = 4
___formal$ = 12						; size = 4
?__empty_global_delete@@YAXPAXI@Z PROC			; __empty_global_delete, COMDAT

  00000	c2 00 00	 ret	 0
?__empty_global_delete@@YAXPAXI@Z ENDP			; __empty_global_delete
_TEXT	ENDS
; Function compile flags: /Ogtp
; File D:\git\src\IBK\IBK_DRFN\ProjSrc\SrcChartEx\ChartOCX\AddInManager\ChartCommonAddIn\DlgYScaleSetUp.cpp
;	COMDAT ?__empty_global_delete@@YAXPAX@Z
_TEXT	SEGMENT
___formal$ = 8						; size = 4
?__empty_global_delete@@YAXPAX@Z PROC			; __empty_global_delete, COMDAT

  00000	c2 00 00	 ret	 0
?__empty_global_delete@@YAXPAX@Z ENDP			; __empty_global_delete
_TEXT	ENDS
END
