; Listing generated by Microsoft (R) Optimizing Compiler Version 19.29.30145.0 

	TITLE	D:\git\src\IBK\IBK_DRFN\#DRfn-CS\_Obj\ChartCommonAddIn\DragYZoomAddInImp.obj
	.686P
	.XMM
	include listing.inc
	.model	flat

INCLUDELIB MSVCRT
INCLUDELIB OLDNAMES

PUBLIC	?m_eRegisteredEventMap@CDragYZoomAddInImp@@1QBW4EAddInEventType@IChartAddIn000000@@B ; CDragYZoomAddInImp::m_eRegisteredEventMap
PUBLIC	??_C@_0BC@MMPGLPDH@RMS_ANALYSIS_FUNC@		; `string'
PUBLIC	??_C@_0M@BEEAEADC@DRAG_Y_ZOOM@			; `string'
;	COMDAT ??_C@_0M@BEEAEADC@DRAG_Y_ZOOM@
CONST	SEGMENT
??_C@_0M@BEEAEADC@DRAG_Y_ZOOM@ DB 'DRAG_Y_ZOOM', 00H	; `string'
CONST	ENDS
;	COMDAT ??_C@_0BC@MMPGLPDH@RMS_ANALYSIS_FUNC@
CONST	SEGMENT
??_C@_0BC@MMPGLPDH@RMS_ANALYSIS_FUNC@ DB 'RMS_ANALYSIS_FUNC', 00H ; `string'
CONST	ENDS
CONST	SEGMENT
?m_eRegisteredEventMap@CDragYZoomAddInImp@@1QBW4EAddInEventType@IChartAddIn000000@@B DD 014H ; CDragYZoomAddInImp::m_eRegisteredEventMap
	DD	01dH
	DD	01aH
	DD	01bH
	DD	02fH
	DD	03cH
	ORG $+220
CONST	ENDS
PUBLIC	?__empty_global_delete@@YAXPAX@Z		; __empty_global_delete
PUBLIC	?__empty_global_delete@@YAXPAXI@Z		; __empty_global_delete
PUBLIC	?Serialize@CObject@@UAEXAAVCArchive@@@Z		; CObject::Serialize
PUBLIC	?AssertValid@CObject@@UBEXXZ			; CObject::AssertValid
PUBLIC	?Dump@CObject@@UBEXAAVCDumpContext@@@Z		; CObject::Dump
PUBLIC	?PostConstruct@CIWUnknown@@MAEXXZ		; CIWUnknown::PostConstruct
PUBLIC	?PreDestructX@CIWUnknown@@MAEXXZ		; CIWUnknown::PreDestructX
PUBLIC	?PreDestruct@CIWUnknown@@MAEXXZ			; CIWUnknown::PreDestruct
PUBLIC	?AddRef@CChartAddInBase000000@@MAGKXZ		; CChartAddInBase000000::AddRef
PUBLIC	?Release@CChartAddInBase000000@@MAGKXZ		; CChartAddInBase000000::Release
PUBLIC	?QueryInterface@CChartAddInBase000000@@MAGJABU_GUID@@PAPAX@Z ; CChartAddInBase000000::QueryInterface
PUBLIC	?GetAddInCustomInterface@CChartAddInBase000000@@MAEPAUIUnknown@@XZ ; CChartAddInBase000000::GetAddInCustomInterface
PUBLIC	?InvokeAddIn@CChartAddInBase000000@@MAEHHJ@Z	; CChartAddInBase000000::InvokeAddIn
PUBLIC	?InvokeAddInStr@CChartAddInBase000000@@MAEHPBD0@Z ; CChartAddInBase000000::InvokeAddInStr
PUBLIC	?AfeterOnOcxDestroyWindow@CChartAddInBase000000@@MAEXXZ ; CChartAddInBase000000::AfeterOnOcxDestroyWindow
PUBLIC	?ChangeChartMode@CChartAddInBase000000@@MAEXW4CHART_MODE@CChartInfo@@@Z ; CChartAddInBase000000::ChangeChartMode
PUBLIC	?OnGSharedDataChange@CChartAddInBase000000@@MAEXPBD0H@Z ; CChartAddInBase000000::OnGSharedDataChange
PUBLIC	?OnLSharedDataChange@CChartAddInBase000000@@MAEXPBD0@Z ; CChartAddInBase000000::OnLSharedDataChange
PUBLIC	?OnResetChart@CChartAddInBase000000@@MAEXXZ	; CChartAddInBase000000::OnResetChart
PUBLIC	?OnDrawBeforeGraph@CChartAddInBase000000@@MAEXPAUHDC__@@@Z ; CChartAddInBase000000::OnDrawBeforeGraph
PUBLIC	?OnPacketDataMultiItem@CChartAddInBase000000@@MAEXPBD0H@Z ; CChartAddInBase000000::OnPacketDataMultiItem
PUBLIC	?OnTimer@CChartAddInBase000000@@MAEXI@Z		; CChartAddInBase000000::OnTimer
PUBLIC	?OnCaptureChanged@CChartAddInBase000000@@MAEXPAUHWND__@@QAUHBITMAP__@@@Z ; CChartAddInBase000000::OnCaptureChanged
PUBLIC	?OnResetMainBlock@CChartAddInBase000000@@MAEXXZ	; CChartAddInBase000000::OnResetMainBlock
PUBLIC	?OnUserIndiatorConditionLoaded@CChartAddInBase000000@@MAEXXZ ; CChartAddInBase000000::OnUserIndiatorConditionLoaded
PUBLIC	?OnChartItemChanged@CChartAddInBase000000@@MAEXXZ ; CChartAddInBase000000::OnChartItemChanged
PUBLIC	?OnGraphDataChanged@CChartAddInBase000000@@MAEXXZ ; CChartAddInBase000000::OnGraphDataChanged
PUBLIC	?OnBlockRemoved@CChartAddInBase000000@@MAEXHH@Z	; CChartAddInBase000000::OnBlockRemoved
PUBLIC	?OnGraphAdded@CChartAddInBase000000@@MAEXPBD0@Z	; CChartAddInBase000000::OnGraphAdded
PUBLIC	?OnManualRealData@CChartAddInBase000000@@MAEXPBDNH@Z ; CChartAddInBase000000::OnManualRealData
PUBLIC	?OnContextMenu@CChartAddInBase000000@@MAEXPAUHWND__@@AAUtagPOINT@@@Z ; CChartAddInBase000000::OnContextMenu
PUBLIC	?OnGraphDeleted@CChartAddInBase000000@@MAEXPBD0@Z ; CChartAddInBase000000::OnGraphDeleted
PUBLIC	?OnPacketTruncated@CChartAddInBase000000@@MAEXH@Z ; CChartAddInBase000000::OnPacketTruncated
PUBLIC	?OnBlockChanged@CChartAddInBase000000@@MAEXW4BLOCKBEHAVIOR@CBlockBaseData@@HHHH@Z ; CChartAddInBase000000::OnBlockChanged
PUBLIC	?OnRealData@CChartAddInBase000000@@MAEXPBDN0@Z	; CChartAddInBase000000::OnRealData
PUBLIC	?OnIndexedRealData@CChartAddInBase000000@@MAEXPBDHN@Z ; CChartAddInBase000000::OnIndexedRealData
PUBLIC	?OnRealPacketEnd@CChartAddInBase000000@@MAEXPBD@Z ; CChartAddInBase000000::OnRealPacketEnd
PUBLIC	?OnLoadEnvironment@CChartAddInBase000000@@MAEXPAUIPropertyMap@@@Z ; CChartAddInBase000000::OnLoadEnvironment
PUBLIC	?OnSaveEnvironment@CChartAddInBase000000@@MAEXPAUIPropertyMap@@@Z ; CChartAddInBase000000::OnSaveEnvironment
PUBLIC	?DrawCursor@CChartAddInBase000000@@MAE?AUtagRECT@@PAUHDC__@@@Z ; CChartAddInBase000000::DrawCursor
PUBLIC	?OnRecalculationComplete@CChartAddInBase000000@@MAEXXZ ; CChartAddInBase000000::OnRecalculationComplete
PUBLIC	?OnPreRealData@CChartAddInBase000000@@MAEHPBDAAN0H@Z ; CChartAddInBase000000::OnPreRealData
PUBLIC	?OnPreIndexedRealData@CChartAddInBase000000@@MAEHPBDHAANH@Z ; CChartAddInBase000000::OnPreIndexedRealData
PUBLIC	?OnPreRealPacketEnd@CChartAddInBase000000@@MAEHPBDH@Z ; CChartAddInBase000000::OnPreRealPacketEnd
PUBLIC	?OnPreNMTRClock@CChartAddInBase000000@@MAEHAA_J@Z ; CChartAddInBase000000::OnPreNMTRClock
PUBLIC	?OnCmdMsg@CChartAddInBase000000@@MAEHIHPAUICmdUI000000@@@Z ; CChartAddInBase000000::OnCmdMsg
PUBLIC	?OnAddInMsg@CChartAddInBase000000@@MAEHPBDJ@Z	; CChartAddInBase000000::OnAddInMsg
PUBLIC	?OnAddInToolCommand@CChartAddInBase000000@@MAEHW4EAICommandType@@@Z ; CChartAddInBase000000::OnAddInToolCommand
PUBLIC	?OnAddInToolCommand@CChartAddInBase000000@@MAEHW4EAICommandType@@PAUHDC__@@IAAUtagPOINT@@K@Z ; CChartAddInBase000000::OnAddInToolCommand
PUBLIC	?OnAddInToolCommand@CChartAddInBase000000@@MAEHW4EAICommandType@@PBD@Z ; CChartAddInBase000000::OnAddInToolCommand
PUBLIC	?OnAddInToolCommand@CChartAddInBase000000@@MAEHW4EAICommandType@@PBD1@Z ; CChartAddInBase000000::OnAddInToolCommand
PUBLIC	?OnAddInToolCommand@CChartAddInBase000000@@MAEHW4EAICommandType@@PBDJ@Z ; CChartAddInBase000000::OnAddInToolCommand
PUBLIC	?OnAddInToolCommand@CChartAddInBase000000@@MAEHW4EAICommandType@@PBUIAddInDllBase@@@Z ; CChartAddInBase000000::OnAddInToolCommand
PUBLIC	?OnAddInToolCommand@CChartAddInBase000000@@MAEHW4EAICommandType@@J@Z ; CChartAddInBase000000::OnAddInToolCommand
PUBLIC	?OnAddInToolCommand@CChartAddInBase000000@@MAEHW4EAICommandType@@JPBD@Z ; CChartAddInBase000000::OnAddInToolCommand
PUBLIC	?OnAddInToolCommand@CChartAddInBase000000@@MAEHW4EAICommandType@@JPBD11@Z ; CChartAddInBase000000::OnAddInToolCommand
PUBLIC	?OnAddInToolCommand@CChartAddInBase000000@@MAEHW4EAICommandType@@JJ@Z ; CChartAddInBase000000::OnAddInToolCommand
PUBLIC	?OnAddInToolCommand@CChartAddInBase000000@@MAEHW4EAICommandType@@JJJJJJJJJ@Z ; CChartAddInBase000000::OnAddInToolCommand
PUBLIC	?OnAddInToolCommand@CChartAddInBase000000@@MAEHAAJW4EAICommandType@@@Z ; CChartAddInBase000000::OnAddInToolCommand
PUBLIC	?OnAddInToolCommand@CChartAddInBase000000@@MAEHAAJW4EAICommandType@@PAUIGraphInfo000000@@@Z ; CChartAddInBase000000::OnAddInToolCommand
PUBLIC	?OnAddInToolCommand@CChartAddInBase000000@@MAEHAAJW4EAICommandType@@PBD@Z ; CChartAddInBase000000::OnAddInToolCommand
PUBLIC	?OnAddInToolCommand@CChartAddInBase000000@@MAEHAAJW4EAICommandType@@PBDPAVCObject@@@Z ; CChartAddInBase000000::OnAddInToolCommand
PUBLIC	?OnAddInToolCommand@CChartAddInBase000000@@MAEHAAJW4EAICommandType@@J@Z ; CChartAddInBase000000::OnAddInToolCommand
PUBLIC	?OnAddInToolCommand@CChartAddInBase000000@@MAEHAAJW4EAICommandType@@JJ@Z ; CChartAddInBase000000::OnAddInToolCommand
PUBLIC	?OnKeyDown@CChartAddInBase000000@@MAEHIII@Z	; CChartAddInBase000000::OnKeyDown
PUBLIC	?OnKeyUp@CChartAddInBase000000@@MAEHIII@Z	; CChartAddInBase000000::OnKeyUp
PUBLIC	?OnMouseWheel@CChartAddInBase000000@@MAEHIFUtagPOINT@@K@Z ; CChartAddInBase000000::OnMouseWheel
PUBLIC	?OnLButtonDblClk@CChartAddInBase000000@@MAEHPAUHDC__@@IAAUtagPOINT@@K@Z ; CChartAddInBase000000::OnLButtonDblClk
PUBLIC	?OnRButtonDown@CChartAddInBase000000@@MAEHPAUHDC__@@IAAUtagPOINT@@K@Z ; CChartAddInBase000000::OnRButtonDown
PUBLIC	?OnRButtonUp@CChartAddInBase000000@@MAEHPAUHDC__@@IAAUtagPOINT@@K@Z ; CChartAddInBase000000::OnRButtonUp
PUBLIC	?OnRButtonDblClk@CChartAddInBase000000@@MAEHPAUHDC__@@IAAUtagPOINT@@K@Z ; CChartAddInBase000000::OnRButtonDblClk
PUBLIC	??0CDragYZoomAddInImp@@QAE@PAUIChartOCX000000@@PAUIAddInDllBase@@@Z ; CDragYZoomAddInImp::CDragYZoomAddInImp
PUBLIC	??1CDragYZoomAddInImp@@UAE@XZ			; CDragYZoomAddInImp::~CDragYZoomAddInImp
PUBLIC	?GetRegisteredEventMap@CDragYZoomAddInImp@@MBEPBW4EAddInEventType@IChartAddIn000000@@XZ ; CDragYZoomAddInImp::GetRegisteredEventMap
PUBLIC	?DrawDragRect@CDragYZoomAddInImp@@IAEHPAVCDC@@VCPoint@@11HH@Z ; CDragYZoomAddInImp::DrawDragRect
PUBLIC	?OnDrawAfterGraph@CDragYZoomAddInImp@@MAEXPAUHDC__@@@Z ; CDragYZoomAddInImp::OnDrawAfterGraph
PUBLIC	?OnToolCommand@CDragYZoomAddInImp@@MAEXHH@Z	; CDragYZoomAddInImp::OnToolCommand
PUBLIC	?OnMouseMove@CDragYZoomAddInImp@@MAEHPAUHDC__@@IAAUtagPOINT@@KQAUHBITMAP__@@@Z ; CDragYZoomAddInImp::OnMouseMove
PUBLIC	?OnLButtonDown@CDragYZoomAddInImp@@MAEHPAUHDC__@@IAAUtagPOINT@@K@Z ; CDragYZoomAddInImp::OnLButtonDown
PUBLIC	?OnLButtonUp@CDragYZoomAddInImp@@MAEHPAUHDC__@@IAAUtagPOINT@@K@Z ; CDragYZoomAddInImp::OnLButtonUp
PUBLIC	??_GCDragYZoomAddInImp@@UAEPAXI@Z		; CDragYZoomAddInImp::`scalar deleting destructor'
PUBLIC	??1ILPCSTR000000@@QAE@XZ			; ILPCSTR000000::~ILPCSTR000000
PUBLIC	?QueryInterface@CChartAddInBase000000@@O7AGJABU_GUID@@PAPAX@Z ; [thunk]:CChartAddInBase000000::QueryInterface`adjustor{8}'
PUBLIC	?AddRef@CChartAddInBase000000@@O7AGKXZ		; [thunk]:CChartAddInBase000000::AddRef`adjustor{8}'
PUBLIC	?Release@CChartAddInBase000000@@O7AGKXZ		; [thunk]:CChartAddInBase000000::Release`adjustor{8}'
PUBLIC	??_ECDragYZoomAddInImp@@W7AEPAXI@Z		; [thunk]:CDragYZoomAddInImp::`vector deleting destructor'
PUBLIC	??_R0?AVCObject@@@8				; CObject `RTTI Type Descriptor'
PUBLIC	??_R3CObject@@8					; CObject::`RTTI Class Hierarchy Descriptor'
PUBLIC	??_R2CObject@@8					; CObject::`RTTI Base Class Array'
PUBLIC	??_R1A@?0A@EA@CObject@@8			; CObject::`RTTI Base Class Descriptor at (0,-1,0,64)'
PUBLIC	??_R0?AUIUnknown@@@8				; IUnknown `RTTI Type Descriptor'
PUBLIC	??_R3IUnknown@@8				; IUnknown::`RTTI Class Hierarchy Descriptor'
PUBLIC	??_R2IUnknown@@8				; IUnknown::`RTTI Base Class Array'
PUBLIC	??_R1A@?0A@EA@IUnknown@@8			; IUnknown::`RTTI Base Class Descriptor at (0,-1,0,64)'
PUBLIC	?m_strAddInItemName@CDragYZoomAddInImp@@2V?$CStringT@DV?$StrTraitMFC_DLL@DV?$ChTraitsCRT@D@ATL@@@@@ATL@@A ; CDragYZoomAddInImp::m_strAddInItemName
PUBLIC	??_7CDragYZoomAddInImp@@6BCIWUnknown@@@		; CDragYZoomAddInImp::`vftable'
PUBLIC	??_7CDragYZoomAddInImp@@6BIChartAddIn000000@@@	; CDragYZoomAddInImp::`vftable'
PUBLIC	??_C@_07MGCPDNLD@DEFAULT@			; `string'
PUBLIC	??_R0?AUIChartAddIn000000@@@8			; IChartAddIn000000 `RTTI Type Descriptor'
PUBLIC	??_R3IChartAddIn000000@@8			; IChartAddIn000000::`RTTI Class Hierarchy Descriptor'
PUBLIC	??_R2IChartAddIn000000@@8			; IChartAddIn000000::`RTTI Base Class Array'
PUBLIC	??_R1A@?0A@EA@IChartAddIn000000@@8		; IChartAddIn000000::`RTTI Base Class Descriptor at (0,-1,0,64)'
PUBLIC	??_R4CDragYZoomAddInImp@@6BCIWUnknown@@@	; CDragYZoomAddInImp::`RTTI Complete Object Locator'
PUBLIC	??_R0?AVCDragYZoomAddInImp@@@8			; CDragYZoomAddInImp `RTTI Type Descriptor'
PUBLIC	??_R3CDragYZoomAddInImp@@8			; CDragYZoomAddInImp::`RTTI Class Hierarchy Descriptor'
PUBLIC	??_R2CDragYZoomAddInImp@@8			; CDragYZoomAddInImp::`RTTI Base Class Array'
PUBLIC	??_R1A@?0A@EA@CDragYZoomAddInImp@@8		; CDragYZoomAddInImp::`RTTI Base Class Descriptor at (0,-1,0,64)'
PUBLIC	??_R1A@?0A@EA@CChartAddInBase000000@@8		; CChartAddInBase000000::`RTTI Base Class Descriptor at (0,-1,0,64)'
PUBLIC	??_R0?AVCChartAddInBase000000@@@8		; CChartAddInBase000000 `RTTI Type Descriptor'
PUBLIC	??_R3CChartAddInBase000000@@8			; CChartAddInBase000000::`RTTI Class Hierarchy Descriptor'
PUBLIC	??_R2CChartAddInBase000000@@8			; CChartAddInBase000000::`RTTI Base Class Array'
PUBLIC	??_R1A@?0A@EA@CIWUnknown@@8			; CIWUnknown::`RTTI Base Class Descriptor at (0,-1,0,64)'
PUBLIC	??_R0?AVCIWUnknown@@@8				; CIWUnknown `RTTI Type Descriptor'
PUBLIC	??_R3CIWUnknown@@8				; CIWUnknown::`RTTI Class Hierarchy Descriptor'
PUBLIC	??_R2CIWUnknown@@8				; CIWUnknown::`RTTI Base Class Array'
PUBLIC	??_R17?0A@EA@IChartAddIn000000@@8		; IChartAddIn000000::`RTTI Base Class Descriptor at (8,-1,0,64)'
PUBLIC	??_R17?0A@EA@IUnknown@@8			; IUnknown::`RTTI Base Class Descriptor at (8,-1,0,64)'
PUBLIC	??_R4CDragYZoomAddInImp@@6BIChartAddIn000000@@@	; CDragYZoomAddInImp::`RTTI Complete Object Locator'
EXTRN	??3@YAXPAX@Z:PROC				; operator delete
EXTRN	?__global_delete@@YAXPAXI@Z:PROC		; __global_delete
EXTRN	_atexit:PROC
EXTRN	___std_terminate:PROC
EXTRN	__imp__RegisterWindowMessageA@4:PROC
EXTRN	__imp__SendMessageA@16:PROC
EXTRN	__imp__CopyRect@8:PROC
EXTRN	__imp__IsRectEmpty@4:PROC
EXTRN	__imp__PtInRect@12:PROC
EXTRN	?GetRuntimeClass@CObject@@UBEPAUCRuntimeClass@@XZ:PROC ; CObject::GetRuntimeClass
EXTRN	__imp_??0?$CStringT@DV?$StrTraitMFC_DLL@DV?$ChTraitsCRT@D@ATL@@@@@ATL@@QAE@PBD@Z:PROC
EXTRN	__imp_??1?$CStringT@DV?$StrTraitMFC_DLL@DV?$ChTraitsCRT@D@ATL@@@@@ATL@@QAE@XZ:PROC
EXTRN	?FromHandle@CDC@@SGPAV1@PAUHDC__@@@Z:PROC	; CDC::FromHandle
EXTRN	?DrawDragRect@CDC@@QAEXPBUtagRECT@@UtagSIZE@@01PAVCBrush@@2@Z:PROC ; CDC::DrawDragRect
EXTRN	?AddRef@CIWUnknown@@MAGKXZ:PROC			; CIWUnknown::AddRef
EXTRN	?Release@CIWUnknown@@MAGKXZ:PROC		; CIWUnknown::Release
EXTRN	??0CChartAddInBase000000@@IAE@PAUIChartOCX000000@@PAUIAddInDllBase@@@Z:PROC ; CChartAddInBase000000::CChartAddInBase000000
EXTRN	??1CChartAddInBase000000@@MAE@XZ:PROC		; CChartAddInBase000000::~CChartAddInBase000000
EXTRN	?HasFullManager@CChartAddInBase000000@@MAEHXZ:PROC ; CChartAddInBase000000::HasFullManager
EXTRN	?RegisterEventMap@CChartAddInBase000000@@UAEHH@Z:PROC ; CChartAddInBase000000::RegisterEventMap
EXTRN	?UnregisterEventMap@CChartAddInBase000000@@UAEHXZ:PROC ; CChartAddInBase000000::UnregisterEventMap
EXTRN	?OnOcxDestroyWindow@CChartAddInBase000000@@MAEXXZ:PROC ; CChartAddInBase000000::OnOcxDestroyWindow
EXTRN	??_ECDragYZoomAddInImp@@UAEPAXI@Z:PROC		; CDragYZoomAddInImp::`vector deleting destructor'
EXTRN	@__security_check_cookie@4:PROC
EXTRN	___CxxFrameHandler3:PROC
EXTRN	??_7type_info@@6B@:QWORD			; type_info::`vftable'
EXTRN	?g_iMetaTable@@3VIMetaTable@@A:BYTE		; g_iMetaTable
EXTRN	___security_cookie:DWORD
EXTRN	__fltused:DWORD
_BSS	SEGMENT
?m_strAddInItemName@CDragYZoomAddInImp@@2V?$CStringT@DV?$StrTraitMFC_DLL@DV?$ChTraitsCRT@D@ATL@@@@@ATL@@A DD 01H DUP (?) ; CDragYZoomAddInImp::m_strAddInItemName
?RMS_ANALYSIS_FUNC@@3IB DD 01H DUP (?)			; RMS_ANALYSIS_FUNC
_BSS	ENDS
CRT$XCU	SEGMENT
?RMS_ANALYSIS_FUNC$initializer$@@3P6AXXZA DD FLAT:??__ERMS_ANALYSIS_FUNC@@YAXXZ ; RMS_ANALYSIS_FUNC$initializer$
CRT$XCU	ENDS
;	COMDAT ??_R4CDragYZoomAddInImp@@6BIChartAddIn000000@@@
rdata$r	SEGMENT
??_R4CDragYZoomAddInImp@@6BIChartAddIn000000@@@ DD 00H	; CDragYZoomAddInImp::`RTTI Complete Object Locator'
	DD	08H
	DD	00H
	DD	FLAT:??_R0?AVCDragYZoomAddInImp@@@8
	DD	FLAT:??_R3CDragYZoomAddInImp@@8
rdata$r	ENDS
;	COMDAT ??_R17?0A@EA@IUnknown@@8
rdata$r	SEGMENT
??_R17?0A@EA@IUnknown@@8 DD FLAT:??_R0?AUIUnknown@@@8	; IUnknown::`RTTI Base Class Descriptor at (8,-1,0,64)'
	DD	00H
	DD	08H
	DD	0ffffffffH
	DD	00H
	DD	040H
	DD	FLAT:??_R3IUnknown@@8
rdata$r	ENDS
;	COMDAT ??_R17?0A@EA@IChartAddIn000000@@8
rdata$r	SEGMENT
??_R17?0A@EA@IChartAddIn000000@@8 DD FLAT:??_R0?AUIChartAddIn000000@@@8 ; IChartAddIn000000::`RTTI Base Class Descriptor at (8,-1,0,64)'
	DD	01H
	DD	08H
	DD	0ffffffffH
	DD	00H
	DD	040H
	DD	FLAT:??_R3IChartAddIn000000@@8
rdata$r	ENDS
;	COMDAT ??_R2CIWUnknown@@8
rdata$r	SEGMENT
??_R2CIWUnknown@@8 DD FLAT:??_R1A@?0A@EA@CIWUnknown@@8	; CIWUnknown::`RTTI Base Class Array'
	DD	FLAT:??_R1A@?0A@EA@CObject@@8
rdata$r	ENDS
;	COMDAT ??_R3CIWUnknown@@8
rdata$r	SEGMENT
??_R3CIWUnknown@@8 DD 00H				; CIWUnknown::`RTTI Class Hierarchy Descriptor'
	DD	00H
	DD	02H
	DD	FLAT:??_R2CIWUnknown@@8
rdata$r	ENDS
;	COMDAT ??_R0?AVCIWUnknown@@@8
data$rs	SEGMENT
??_R0?AVCIWUnknown@@@8 DD FLAT:??_7type_info@@6B@	; CIWUnknown `RTTI Type Descriptor'
	DD	00H
	DB	'.?AVCIWUnknown@@', 00H
data$rs	ENDS
;	COMDAT ??_R1A@?0A@EA@CIWUnknown@@8
rdata$r	SEGMENT
??_R1A@?0A@EA@CIWUnknown@@8 DD FLAT:??_R0?AVCIWUnknown@@@8 ; CIWUnknown::`RTTI Base Class Descriptor at (0,-1,0,64)'
	DD	01H
	DD	00H
	DD	0ffffffffH
	DD	00H
	DD	040H
	DD	FLAT:??_R3CIWUnknown@@8
rdata$r	ENDS
;	COMDAT ??_R2CChartAddInBase000000@@8
rdata$r	SEGMENT
??_R2CChartAddInBase000000@@8 DD FLAT:??_R1A@?0A@EA@CChartAddInBase000000@@8 ; CChartAddInBase000000::`RTTI Base Class Array'
	DD	FLAT:??_R1A@?0A@EA@CIWUnknown@@8
	DD	FLAT:??_R1A@?0A@EA@CObject@@8
	DD	FLAT:??_R17?0A@EA@IChartAddIn000000@@8
	DD	FLAT:??_R17?0A@EA@IUnknown@@8
rdata$r	ENDS
;	COMDAT ??_R3CChartAddInBase000000@@8
rdata$r	SEGMENT
??_R3CChartAddInBase000000@@8 DD 00H			; CChartAddInBase000000::`RTTI Class Hierarchy Descriptor'
	DD	01H
	DD	05H
	DD	FLAT:??_R2CChartAddInBase000000@@8
rdata$r	ENDS
;	COMDAT ??_R0?AVCChartAddInBase000000@@@8
data$rs	SEGMENT
??_R0?AVCChartAddInBase000000@@@8 DD FLAT:??_7type_info@@6B@ ; CChartAddInBase000000 `RTTI Type Descriptor'
	DD	00H
	DB	'.?AVCChartAddInBase000000@@', 00H
data$rs	ENDS
;	COMDAT ??_R1A@?0A@EA@CChartAddInBase000000@@8
rdata$r	SEGMENT
??_R1A@?0A@EA@CChartAddInBase000000@@8 DD FLAT:??_R0?AVCChartAddInBase000000@@@8 ; CChartAddInBase000000::`RTTI Base Class Descriptor at (0,-1,0,64)'
	DD	04H
	DD	00H
	DD	0ffffffffH
	DD	00H
	DD	040H
	DD	FLAT:??_R3CChartAddInBase000000@@8
rdata$r	ENDS
;	COMDAT ??_R1A@?0A@EA@CDragYZoomAddInImp@@8
rdata$r	SEGMENT
??_R1A@?0A@EA@CDragYZoomAddInImp@@8 DD FLAT:??_R0?AVCDragYZoomAddInImp@@@8 ; CDragYZoomAddInImp::`RTTI Base Class Descriptor at (0,-1,0,64)'
	DD	05H
	DD	00H
	DD	0ffffffffH
	DD	00H
	DD	040H
	DD	FLAT:??_R3CDragYZoomAddInImp@@8
rdata$r	ENDS
;	COMDAT ??_R2CDragYZoomAddInImp@@8
rdata$r	SEGMENT
??_R2CDragYZoomAddInImp@@8 DD FLAT:??_R1A@?0A@EA@CDragYZoomAddInImp@@8 ; CDragYZoomAddInImp::`RTTI Base Class Array'
	DD	FLAT:??_R1A@?0A@EA@CChartAddInBase000000@@8
	DD	FLAT:??_R1A@?0A@EA@CIWUnknown@@8
	DD	FLAT:??_R1A@?0A@EA@CObject@@8
	DD	FLAT:??_R17?0A@EA@IChartAddIn000000@@8
	DD	FLAT:??_R17?0A@EA@IUnknown@@8
rdata$r	ENDS
;	COMDAT ??_R3CDragYZoomAddInImp@@8
rdata$r	SEGMENT
??_R3CDragYZoomAddInImp@@8 DD 00H			; CDragYZoomAddInImp::`RTTI Class Hierarchy Descriptor'
	DD	01H
	DD	06H
	DD	FLAT:??_R2CDragYZoomAddInImp@@8
rdata$r	ENDS
;	COMDAT ??_R0?AVCDragYZoomAddInImp@@@8
data$rs	SEGMENT
??_R0?AVCDragYZoomAddInImp@@@8 DD FLAT:??_7type_info@@6B@ ; CDragYZoomAddInImp `RTTI Type Descriptor'
	DD	00H
	DB	'.?AVCDragYZoomAddInImp@@', 00H
data$rs	ENDS
;	COMDAT ??_R4CDragYZoomAddInImp@@6BCIWUnknown@@@
rdata$r	SEGMENT
??_R4CDragYZoomAddInImp@@6BCIWUnknown@@@ DD 00H		; CDragYZoomAddInImp::`RTTI Complete Object Locator'
	DD	00H
	DD	00H
	DD	FLAT:??_R0?AVCDragYZoomAddInImp@@@8
	DD	FLAT:??_R3CDragYZoomAddInImp@@8
rdata$r	ENDS
;	COMDAT ??_R1A@?0A@EA@IChartAddIn000000@@8
rdata$r	SEGMENT
??_R1A@?0A@EA@IChartAddIn000000@@8 DD FLAT:??_R0?AUIChartAddIn000000@@@8 ; IChartAddIn000000::`RTTI Base Class Descriptor at (0,-1,0,64)'
	DD	01H
	DD	00H
	DD	0ffffffffH
	DD	00H
	DD	040H
	DD	FLAT:??_R3IChartAddIn000000@@8
rdata$r	ENDS
;	COMDAT ??_R2IChartAddIn000000@@8
rdata$r	SEGMENT
??_R2IChartAddIn000000@@8 DD FLAT:??_R1A@?0A@EA@IChartAddIn000000@@8 ; IChartAddIn000000::`RTTI Base Class Array'
	DD	FLAT:??_R1A@?0A@EA@IUnknown@@8
rdata$r	ENDS
;	COMDAT ??_R3IChartAddIn000000@@8
rdata$r	SEGMENT
??_R3IChartAddIn000000@@8 DD 00H			; IChartAddIn000000::`RTTI Class Hierarchy Descriptor'
	DD	00H
	DD	02H
	DD	FLAT:??_R2IChartAddIn000000@@8
rdata$r	ENDS
;	COMDAT ??_R0?AUIChartAddIn000000@@@8
data$rs	SEGMENT
??_R0?AUIChartAddIn000000@@@8 DD FLAT:??_7type_info@@6B@ ; IChartAddIn000000 `RTTI Type Descriptor'
	DD	00H
	DB	'.?AUIChartAddIn000000@@', 00H
data$rs	ENDS
;	COMDAT ??_C@_07MGCPDNLD@DEFAULT@
CONST	SEGMENT
??_C@_07MGCPDNLD@DEFAULT@ DB 'DEFAULT', 00H		; `string'
CONST	ENDS
;	COMDAT ??_7CDragYZoomAddInImp@@6BIChartAddIn000000@@@
CONST	SEGMENT
??_7CDragYZoomAddInImp@@6BIChartAddIn000000@@@ DD FLAT:??_R4CDragYZoomAddInImp@@6BIChartAddIn000000@@@ ; CDragYZoomAddInImp::`vftable'
	DD	FLAT:?QueryInterface@CChartAddInBase000000@@O7AGJABU_GUID@@PAPAX@Z
	DD	FLAT:?AddRef@CChartAddInBase000000@@O7AGKXZ
	DD	FLAT:?Release@CChartAddInBase000000@@O7AGKXZ
	DD	FLAT:??_ECDragYZoomAddInImp@@W7AEPAXI@Z
	DD	FLAT:?HasFullManager@CChartAddInBase000000@@MAEHXZ
	DD	FLAT:?GetAddInCustomInterface@CChartAddInBase000000@@MAEPAUIUnknown@@XZ
	DD	FLAT:?InvokeAddIn@CChartAddInBase000000@@MAEHHJ@Z
	DD	FLAT:?InvokeAddInStr@CChartAddInBase000000@@MAEHPBD0@Z
	DD	FLAT:?OnOcxDestroyWindow@CChartAddInBase000000@@MAEXXZ
	DD	FLAT:?ChangeChartMode@CChartAddInBase000000@@MAEXW4CHART_MODE@CChartInfo@@@Z
	DD	FLAT:?RegisterEventMap@CChartAddInBase000000@@UAEHH@Z
	DD	FLAT:?UnregisterEventMap@CChartAddInBase000000@@UAEHXZ
	DD	FLAT:?OnGSharedDataChange@CChartAddInBase000000@@MAEXPBD0H@Z
	DD	FLAT:?OnLSharedDataChange@CChartAddInBase000000@@MAEXPBD0@Z
	DD	FLAT:?OnResetChart@CChartAddInBase000000@@MAEXXZ
	DD	FLAT:?OnDrawBeforeGraph@CChartAddInBase000000@@MAEXPAUHDC__@@@Z
	DD	FLAT:?OnDrawAfterGraph@CDragYZoomAddInImp@@MAEXPAUHDC__@@@Z
	DD	FLAT:?OnPacketDataMultiItem@CChartAddInBase000000@@MAEXPBD0H@Z
	DD	FLAT:?OnTimer@CChartAddInBase000000@@MAEXI@Z
	DD	FLAT:?OnCaptureChanged@CChartAddInBase000000@@MAEXPAUHWND__@@QAUHBITMAP__@@@Z
	DD	FLAT:?OnResetMainBlock@CChartAddInBase000000@@MAEXXZ
	DD	FLAT:?OnUserIndiatorConditionLoaded@CChartAddInBase000000@@MAEXXZ
	DD	FLAT:?OnChartItemChanged@CChartAddInBase000000@@MAEXXZ
	DD	FLAT:?OnGraphDataChanged@CChartAddInBase000000@@MAEXXZ
	DD	FLAT:?OnBlockRemoved@CChartAddInBase000000@@MAEXHH@Z
	DD	FLAT:?OnGraphAdded@CChartAddInBase000000@@MAEXPBD0@Z
	DD	FLAT:?OnManualRealData@CChartAddInBase000000@@MAEXPBDNH@Z
	DD	FLAT:?OnContextMenu@CChartAddInBase000000@@MAEXPAUHWND__@@AAUtagPOINT@@@Z
	DD	FLAT:?OnGraphDeleted@CChartAddInBase000000@@MAEXPBD0@Z
	DD	FLAT:?OnPacketTruncated@CChartAddInBase000000@@MAEXH@Z
	DD	FLAT:?OnBlockChanged@CChartAddInBase000000@@MAEXW4BLOCKBEHAVIOR@CBlockBaseData@@HHHH@Z
	DD	FLAT:?OnToolCommand@CDragYZoomAddInImp@@MAEXHH@Z
	DD	FLAT:?OnRealData@CChartAddInBase000000@@MAEXPBDN0@Z
	DD	FLAT:?OnIndexedRealData@CChartAddInBase000000@@MAEXPBDHN@Z
	DD	FLAT:?OnRealPacketEnd@CChartAddInBase000000@@MAEXPBD@Z
	DD	FLAT:?OnLoadEnvironment@CChartAddInBase000000@@MAEXPAUIPropertyMap@@@Z
	DD	FLAT:?OnSaveEnvironment@CChartAddInBase000000@@MAEXPAUIPropertyMap@@@Z
	DD	FLAT:?DrawCursor@CChartAddInBase000000@@MAE?AUtagRECT@@PAUHDC__@@@Z
	DD	FLAT:?OnRecalculationComplete@CChartAddInBase000000@@MAEXXZ
	DD	FLAT:?OnPreRealData@CChartAddInBase000000@@MAEHPBDAAN0H@Z
	DD	FLAT:?OnPreIndexedRealData@CChartAddInBase000000@@MAEHPBDHAANH@Z
	DD	FLAT:?OnPreRealPacketEnd@CChartAddInBase000000@@MAEHPBDH@Z
	DD	FLAT:?OnPreNMTRClock@CChartAddInBase000000@@MAEHAA_J@Z
	DD	FLAT:?OnCmdMsg@CChartAddInBase000000@@MAEHIHPAUICmdUI000000@@@Z
	DD	FLAT:?OnAddInMsg@CChartAddInBase000000@@MAEHPBDJ@Z
	DD	FLAT:?OnAddInToolCommand@CChartAddInBase000000@@MAEHAAJW4EAICommandType@@JJ@Z
	DD	FLAT:?OnAddInToolCommand@CChartAddInBase000000@@MAEHAAJW4EAICommandType@@J@Z
	DD	FLAT:?OnAddInToolCommand@CChartAddInBase000000@@MAEHAAJW4EAICommandType@@PBDPAVCObject@@@Z
	DD	FLAT:?OnAddInToolCommand@CChartAddInBase000000@@MAEHAAJW4EAICommandType@@PBD@Z
	DD	FLAT:?OnAddInToolCommand@CChartAddInBase000000@@MAEHAAJW4EAICommandType@@PAUIGraphInfo000000@@@Z
	DD	FLAT:?OnAddInToolCommand@CChartAddInBase000000@@MAEHAAJW4EAICommandType@@@Z
	DD	FLAT:?OnAddInToolCommand@CChartAddInBase000000@@MAEHW4EAICommandType@@JJJJJJJJJ@Z
	DD	FLAT:?OnAddInToolCommand@CChartAddInBase000000@@MAEHW4EAICommandType@@JJ@Z
	DD	FLAT:?OnAddInToolCommand@CChartAddInBase000000@@MAEHW4EAICommandType@@JPBD11@Z
	DD	FLAT:?OnAddInToolCommand@CChartAddInBase000000@@MAEHW4EAICommandType@@JPBD@Z
	DD	FLAT:?OnAddInToolCommand@CChartAddInBase000000@@MAEHW4EAICommandType@@J@Z
	DD	FLAT:?OnAddInToolCommand@CChartAddInBase000000@@MAEHW4EAICommandType@@PBUIAddInDllBase@@@Z
	DD	FLAT:?OnAddInToolCommand@CChartAddInBase000000@@MAEHW4EAICommandType@@PBDJ@Z
	DD	FLAT:?OnAddInToolCommand@CChartAddInBase000000@@MAEHW4EAICommandType@@PBD1@Z
	DD	FLAT:?OnAddInToolCommand@CChartAddInBase000000@@MAEHW4EAICommandType@@PBD@Z
	DD	FLAT:?OnAddInToolCommand@CChartAddInBase000000@@MAEHW4EAICommandType@@PAUHDC__@@IAAUtagPOINT@@K@Z
	DD	FLAT:?OnAddInToolCommand@CChartAddInBase000000@@MAEHW4EAICommandType@@@Z
	DD	FLAT:?OnKeyDown@CChartAddInBase000000@@MAEHIII@Z
	DD	FLAT:?OnKeyUp@CChartAddInBase000000@@MAEHIII@Z
	DD	FLAT:?OnMouseWheel@CChartAddInBase000000@@MAEHIFUtagPOINT@@K@Z
	DD	FLAT:?OnMouseMove@CDragYZoomAddInImp@@MAEHPAUHDC__@@IAAUtagPOINT@@KQAUHBITMAP__@@@Z
	DD	FLAT:?OnLButtonDown@CDragYZoomAddInImp@@MAEHPAUHDC__@@IAAUtagPOINT@@K@Z
	DD	FLAT:?OnLButtonUp@CDragYZoomAddInImp@@MAEHPAUHDC__@@IAAUtagPOINT@@K@Z
	DD	FLAT:?OnLButtonDblClk@CChartAddInBase000000@@MAEHPAUHDC__@@IAAUtagPOINT@@K@Z
	DD	FLAT:?OnRButtonDown@CChartAddInBase000000@@MAEHPAUHDC__@@IAAUtagPOINT@@K@Z
	DD	FLAT:?OnRButtonUp@CChartAddInBase000000@@MAEHPAUHDC__@@IAAUtagPOINT@@K@Z
	DD	FLAT:?OnRButtonDblClk@CChartAddInBase000000@@MAEHPAUHDC__@@IAAUtagPOINT@@K@Z
CONST	ENDS
;	COMDAT ??_7CDragYZoomAddInImp@@6BCIWUnknown@@@
CONST	SEGMENT
??_7CDragYZoomAddInImp@@6BCIWUnknown@@@ DD FLAT:??_R4CDragYZoomAddInImp@@6BCIWUnknown@@@ ; CDragYZoomAddInImp::`vftable'
	DD	FLAT:?GetRuntimeClass@CObject@@UBEPAUCRuntimeClass@@XZ
	DD	FLAT:??_ECDragYZoomAddInImp@@UAEPAXI@Z
	DD	FLAT:?Serialize@CObject@@UAEXAAVCArchive@@@Z
	DD	FLAT:?AssertValid@CObject@@UBEXXZ
	DD	FLAT:?Dump@CObject@@UBEXAAVCDumpContext@@@Z
	DD	FLAT:?AddRef@CChartAddInBase000000@@MAGKXZ
	DD	FLAT:?Release@CChartAddInBase000000@@MAGKXZ
	DD	FLAT:?QueryInterface@CChartAddInBase000000@@MAGJABU_GUID@@PAPAX@Z
	DD	FLAT:?PostConstruct@CIWUnknown@@MAEXXZ
	DD	FLAT:?PreDestructX@CIWUnknown@@MAEXXZ
	DD	FLAT:?PreDestruct@CIWUnknown@@MAEXXZ
	DD	FLAT:?GetRegisteredEventMap@CDragYZoomAddInImp@@MBEPBW4EAddInEventType@IChartAddIn000000@@XZ
	DD	FLAT:?AfeterOnOcxDestroyWindow@CChartAddInBase000000@@MAEXXZ
CONST	ENDS
;	COMDAT ??_R1A@?0A@EA@IUnknown@@8
rdata$r	SEGMENT
??_R1A@?0A@EA@IUnknown@@8 DD FLAT:??_R0?AUIUnknown@@@8	; IUnknown::`RTTI Base Class Descriptor at (0,-1,0,64)'
	DD	00H
	DD	00H
	DD	0ffffffffH
	DD	00H
	DD	040H
	DD	FLAT:??_R3IUnknown@@8
rdata$r	ENDS
;	COMDAT ??_R2IUnknown@@8
rdata$r	SEGMENT
??_R2IUnknown@@8 DD FLAT:??_R1A@?0A@EA@IUnknown@@8	; IUnknown::`RTTI Base Class Array'
rdata$r	ENDS
;	COMDAT ??_R3IUnknown@@8
rdata$r	SEGMENT
??_R3IUnknown@@8 DD 00H					; IUnknown::`RTTI Class Hierarchy Descriptor'
	DD	00H
	DD	01H
	DD	FLAT:??_R2IUnknown@@8
rdata$r	ENDS
;	COMDAT ??_R0?AUIUnknown@@@8
data$rs	SEGMENT
??_R0?AUIUnknown@@@8 DD FLAT:??_7type_info@@6B@		; IUnknown `RTTI Type Descriptor'
	DD	00H
	DB	'.?AUIUnknown@@', 00H
data$rs	ENDS
;	COMDAT ??_R1A@?0A@EA@CObject@@8
rdata$r	SEGMENT
??_R1A@?0A@EA@CObject@@8 DD FLAT:??_R0?AVCObject@@@8	; CObject::`RTTI Base Class Descriptor at (0,-1,0,64)'
	DD	00H
	DD	00H
	DD	0ffffffffH
	DD	00H
	DD	040H
	DD	FLAT:??_R3CObject@@8
rdata$r	ENDS
;	COMDAT ??_R2CObject@@8
rdata$r	SEGMENT
??_R2CObject@@8 DD FLAT:??_R1A@?0A@EA@CObject@@8	; CObject::`RTTI Base Class Array'
rdata$r	ENDS
;	COMDAT ??_R3CObject@@8
rdata$r	SEGMENT
??_R3CObject@@8 DD 00H					; CObject::`RTTI Class Hierarchy Descriptor'
	DD	00H
	DD	01H
	DD	FLAT:??_R2CObject@@8
rdata$r	ENDS
;	COMDAT ??_R0?AVCObject@@@8
data$rs	SEGMENT
??_R0?AVCObject@@@8 DD FLAT:??_7type_info@@6B@		; CObject `RTTI Type Descriptor'
	DD	00H
	DB	'.?AVCObject@@', 00H
data$rs	ENDS
;	COMDAT xdata$x
xdata$x	SEGMENT
__ehfuncinfo$??1ILPCSTR000000@@QAE@XZ DD 019930522H
	DD	00H
	DD	00H
	DD	2 DUP(00H)
	DD	2 DUP(00H)
	DD	00H
	DD	05H
xdata$x	ENDS
;	COMDAT xdata$x
xdata$x	SEGMENT
__unwindtable$?OnLButtonUp@CDragYZoomAddInImp@@MAEHPAUHDC__@@IAAUtagPOINT@@K@Z DD 0ffffffffH
	DD	FLAT:__unwindfunclet$?OnLButtonUp@CDragYZoomAddInImp@@MAEHPAUHDC__@@IAAUtagPOINT@@K@Z$0
	DD	0ffffffffH
	DD	FLAT:___std_terminate
__ehfuncinfo$?OnLButtonUp@CDragYZoomAddInImp@@MAEHPAUHDC__@@IAAUtagPOINT@@K@Z DD 019930522H
	DD	02H
	DD	FLAT:__unwindtable$?OnLButtonUp@CDragYZoomAddInImp@@MAEHPAUHDC__@@IAAUtagPOINT@@K@Z
	DD	2 DUP(00H)
	DD	2 DUP(00H)
	DD	00H
	DD	01H
xdata$x	ENDS
;	COMDAT xdata$x
xdata$x	SEGMENT
__unwindtable$?OnLButtonDown@CDragYZoomAddInImp@@MAEHPAUHDC__@@IAAUtagPOINT@@K@Z DD 0ffffffffH
	DD	FLAT:__unwindfunclet$?OnLButtonDown@CDragYZoomAddInImp@@MAEHPAUHDC__@@IAAUtagPOINT@@K@Z$0
	DD	0ffffffffH
	DD	FLAT:___std_terminate
__ehfuncinfo$?OnLButtonDown@CDragYZoomAddInImp@@MAEHPAUHDC__@@IAAUtagPOINT@@K@Z DD 019930522H
	DD	02H
	DD	FLAT:__unwindtable$?OnLButtonDown@CDragYZoomAddInImp@@MAEHPAUHDC__@@IAAUtagPOINT@@K@Z
	DD	2 DUP(00H)
	DD	2 DUP(00H)
	DD	00H
	DD	01H
xdata$x	ENDS
CRT$XCU	SEGMENT
??m_strAddInItemName$initializer$@CDragYZoomAddInImp@@2P6AXXZA@@3P6AXXZA DD FLAT:??__E?m_strAddInItemName@CDragYZoomAddInImp@@2V?$CStringT@DV?$StrTraitMFC_DLL@DV?$ChTraitsCRT@D@ATL@@@@@ATL@@A@@YAXXZ ; ??m_strAddInItemName$initializer$@CDragYZoomAddInImp@@2P6AXXZA@@3P6AXXZA
CRT$XCU	ENDS
; Function compile flags: /Odsp
;	COMDAT ??_ECDragYZoomAddInImp@@W7AEPAXI@Z
_TEXT	SEGMENT
??_ECDragYZoomAddInImp@@W7AEPAXI@Z PROC			; [thunk]:CDragYZoomAddInImp::`vector deleting destructor', COMDAT
  00000	83 e9 08	 sub	 ecx, 8
  00003	e9 00 00 00 00	 jmp	 ??_ECDragYZoomAddInImp@@UAEPAXI@Z
??_ECDragYZoomAddInImp@@W7AEPAXI@Z ENDP			; [thunk]:CDragYZoomAddInImp::`vector deleting destructor'
_TEXT	ENDS
; Function compile flags: /Odsp
;	COMDAT ?Release@CChartAddInBase000000@@O7AGKXZ
_TEXT	SEGMENT
?Release@CChartAddInBase000000@@O7AGKXZ PROC		; [thunk]:CChartAddInBase000000::Release`adjustor{8}', COMDAT
  00000	83 6c 24 04 08	 sub	 DWORD PTR [esp+4], 8
  00005	e9 00 00 00 00	 jmp	 ?Release@CChartAddInBase000000@@MAGKXZ ; CChartAddInBase000000::Release
?Release@CChartAddInBase000000@@O7AGKXZ ENDP		; [thunk]:CChartAddInBase000000::Release`adjustor{8}'
_TEXT	ENDS
; Function compile flags: /Odsp
;	COMDAT ?AddRef@CChartAddInBase000000@@O7AGKXZ
_TEXT	SEGMENT
?AddRef@CChartAddInBase000000@@O7AGKXZ PROC		; [thunk]:CChartAddInBase000000::AddRef`adjustor{8}', COMDAT
  00000	83 6c 24 04 08	 sub	 DWORD PTR [esp+4], 8
  00005	e9 00 00 00 00	 jmp	 ?AddRef@CChartAddInBase000000@@MAGKXZ ; CChartAddInBase000000::AddRef
?AddRef@CChartAddInBase000000@@O7AGKXZ ENDP		; [thunk]:CChartAddInBase000000::AddRef`adjustor{8}'
_TEXT	ENDS
; Function compile flags: /Odsp
;	COMDAT ?QueryInterface@CChartAddInBase000000@@O7AGJABU_GUID@@PAPAX@Z
_TEXT	SEGMENT
?QueryInterface@CChartAddInBase000000@@O7AGJABU_GUID@@PAPAX@Z PROC ; [thunk]:CChartAddInBase000000::QueryInterface`adjustor{8}', COMDAT
  00000	83 6c 24 04 08	 sub	 DWORD PTR [esp+4], 8
  00005	e9 00 00 00 00	 jmp	 ?QueryInterface@CChartAddInBase000000@@MAGJABU_GUID@@PAPAX@Z ; CChartAddInBase000000::QueryInterface
?QueryInterface@CChartAddInBase000000@@O7AGJABU_GUID@@PAPAX@Z ENDP ; [thunk]:CChartAddInBase000000::QueryInterface`adjustor{8}'
_TEXT	ENDS
; Function compile flags: /Ogtp
;	COMDAT ??__F?m_strAddInItemName@CDragYZoomAddInImp@@2V?$CStringT@DV?$StrTraitMFC_DLL@DV?$ChTraitsCRT@D@ATL@@@@@ATL@@A@@YAXXZ
text$yd	SEGMENT
??__F?m_strAddInItemName@CDragYZoomAddInImp@@2V?$CStringT@DV?$StrTraitMFC_DLL@DV?$ChTraitsCRT@D@ATL@@@@@ATL@@A@@YAXXZ PROC ; `dynamic atexit destructor for 'CDragYZoomAddInImp::m_strAddInItemName'', COMDAT
  00000	b9 00 00 00 00	 mov	 ecx, OFFSET ?m_strAddInItemName@CDragYZoomAddInImp@@2V?$CStringT@DV?$StrTraitMFC_DLL@DV?$ChTraitsCRT@D@ATL@@@@@ATL@@A ; CDragYZoomAddInImp::m_strAddInItemName
  00005	ff 25 00 00 00
	00		 jmp	 DWORD PTR __imp_??1?$CStringT@DV?$StrTraitMFC_DLL@DV?$ChTraitsCRT@D@ATL@@@@@ATL@@QAE@XZ
??__F?m_strAddInItemName@CDragYZoomAddInImp@@2V?$CStringT@DV?$StrTraitMFC_DLL@DV?$ChTraitsCRT@D@ATL@@@@@ATL@@A@@YAXXZ ENDP ; `dynamic atexit destructor for 'CDragYZoomAddInImp::m_strAddInItemName''
text$yd	ENDS
; Function compile flags: /Ogtp
; File D:\git\src\IBK\IBK_DRFN\ProjSrc\SrcChartEx\ChartOCX\AddInManager\ChartCommonAddIn\DragYZoomAddInImp.cpp
;	COMDAT ??__E?m_strAddInItemName@CDragYZoomAddInImp@@2V?$CStringT@DV?$StrTraitMFC_DLL@DV?$ChTraitsCRT@D@ATL@@@@@ATL@@A@@YAXXZ
text$di	SEGMENT
??__E?m_strAddInItemName@CDragYZoomAddInImp@@2V?$CStringT@DV?$StrTraitMFC_DLL@DV?$ChTraitsCRT@D@ATL@@@@@ATL@@A@@YAXXZ PROC ; `dynamic initializer for 'CDragYZoomAddInImp::m_strAddInItemName'', COMDAT

; 42   : CString CDragYZoomAddInImp::m_strAddInItemName = "DRAG_Y_ZOOM";

  00000	68 00 00 00 00	 push	 OFFSET ??_C@_0M@BEEAEADC@DRAG_Y_ZOOM@
  00005	b9 00 00 00 00	 mov	 ecx, OFFSET ?m_strAddInItemName@CDragYZoomAddInImp@@2V?$CStringT@DV?$StrTraitMFC_DLL@DV?$ChTraitsCRT@D@ATL@@@@@ATL@@A ; CDragYZoomAddInImp::m_strAddInItemName
  0000a	ff 15 00 00 00
	00		 call	 DWORD PTR __imp_??0?$CStringT@DV?$StrTraitMFC_DLL@DV?$ChTraitsCRT@D@ATL@@@@@ATL@@QAE@PBD@Z
  00010	68 00 00 00 00	 push	 OFFSET ??__F?m_strAddInItemName@CDragYZoomAddInImp@@2V?$CStringT@DV?$StrTraitMFC_DLL@DV?$ChTraitsCRT@D@ATL@@@@@ATL@@A@@YAXXZ ; `dynamic atexit destructor for 'CDragYZoomAddInImp::m_strAddInItemName''
  00015	e8 00 00 00 00	 call	 _atexit
  0001a	59		 pop	 ecx
  0001b	c3		 ret	 0
??__E?m_strAddInItemName@CDragYZoomAddInImp@@2V?$CStringT@DV?$StrTraitMFC_DLL@DV?$ChTraitsCRT@D@ATL@@@@@ATL@@A@@YAXXZ ENDP ; `dynamic initializer for 'CDragYZoomAddInImp::m_strAddInItemName''
text$di	ENDS
; Function compile flags: /Ogtp
; File D:\git\src\IBK\IBK_DRFN\ProjSrc\SrcChartEx\ChartOCX\AddInManager\Include_AddIn\I000000\_IString.h
;	COMDAT ??1ILPCSTR000000@@QAE@XZ
_TEXT	SEGMENT
__$EHRec$ = -12						; size = 12
??1ILPCSTR000000@@QAE@XZ PROC				; ILPCSTR000000::~ILPCSTR000000, COMDAT
; _this$ = ecx

; 44   : 	{

  00000	55		 push	 ebp
  00001	8b ec		 mov	 ebp, esp
  00003	6a ff		 push	 -1
  00005	68 00 00 00 00	 push	 __ehhandler$??1ILPCSTR000000@@QAE@XZ
  0000a	64 a1 00 00 00
	00		 mov	 eax, DWORD PTR fs:0
  00010	50		 push	 eax
  00011	56		 push	 esi
  00012	a1 00 00 00 00	 mov	 eax, DWORD PTR ___security_cookie
  00017	33 c5		 xor	 eax, ebp
  00019	50		 push	 eax
  0001a	8d 45 f4	 lea	 eax, DWORD PTR __$EHRec$[ebp]
  0001d	64 a3 00 00 00
	00		 mov	 DWORD PTR fs:0, eax
  00023	8b f1		 mov	 esi, ecx

; 45   : 		if( m_pIStrData)

  00025	8b 4e 04	 mov	 ecx, DWORD PTR [esi+4]
  00028	85 c9		 test	 ecx, ecx
  0002a	74 13		 je	 SHORT $LN2@ILPCSTR000

; 46   : 		{
; 47   : 			m_pIStrData->Release();

  0002c	8b 01		 mov	 eax, DWORD PTR [ecx]
  0002e	51		 push	 ecx
  0002f	ff 50 08	 call	 DWORD PTR [eax+8]

; 48   : 			m_pIStrData = NULL;

  00032	c7 46 04 00 00
	00 00		 mov	 DWORD PTR [esi+4], 0

; 49   : 			m_szData = NULL;

  00039	c7 06 00 00 00
	00		 mov	 DWORD PTR [esi], 0
$LN2@ILPCSTR000:

; 50   : 		}
; 51   : 	}

  0003f	8b 4d f4	 mov	 ecx, DWORD PTR __$EHRec$[ebp]
  00042	64 89 0d 00 00
	00 00		 mov	 DWORD PTR fs:0, ecx
  00049	59		 pop	 ecx
  0004a	5e		 pop	 esi
  0004b	8b e5		 mov	 esp, ebp
  0004d	5d		 pop	 ebp
  0004e	c3		 ret	 0
  0004f	cc		 int	 3
  00050	cc		 int	 3
  00051	cc		 int	 3
  00052	cc		 int	 3
  00053	cc		 int	 3
_TEXT	ENDS
;	COMDAT text$x
text$x	SEGMENT
__ehhandler$??1ILPCSTR000000@@QAE@XZ:
  00000	90		 npad	 1
  00001	90		 npad	 1
  00002	8b 54 24 08	 mov	 edx, DWORD PTR [esp+8]
  00006	8d 42 0c	 lea	 eax, DWORD PTR [edx+12]
  00009	8b 4a f8	 mov	 ecx, DWORD PTR [edx-8]
  0000c	33 c8		 xor	 ecx, eax
  0000e	e8 00 00 00 00	 call	 @__security_check_cookie@4
  00013	b8 00 00 00 00	 mov	 eax, OFFSET __ehfuncinfo$??1ILPCSTR000000@@QAE@XZ
  00018	e9 00 00 00 00	 jmp	 ___CxxFrameHandler3
text$x	ENDS
??1ILPCSTR000000@@QAE@XZ ENDP				; ILPCSTR000000::~ILPCSTR000000
; Function compile flags: /Ogtp
; File D:\git\src\IBK\IBK_DRFN\ProjSrc\SrcChartEx\ChartOCX\Include_Chart\MessageDefine.h
;	COMDAT ??__ERMS_ANALYSIS_FUNC@@YAXXZ
text$di	SEGMENT
??__ERMS_ANALYSIS_FUNC@@YAXXZ PROC			; `dynamic initializer for 'RMS_ANALYSIS_FUNC'', COMDAT

; 5    : const UINT RMS_ANALYSIS_FUNC = ::RegisterWindowMessage(_T("RMS_ANALYSIS_FUNC"));

  00000	68 00 00 00 00	 push	 OFFSET ??_C@_0BC@MMPGLPDH@RMS_ANALYSIS_FUNC@
  00005	ff 15 00 00 00
	00		 call	 DWORD PTR __imp__RegisterWindowMessageA@4
  0000b	a3 00 00 00 00	 mov	 DWORD PTR ?RMS_ANALYSIS_FUNC@@3IB, eax
  00010	c3		 ret	 0
??__ERMS_ANALYSIS_FUNC@@YAXXZ ENDP			; `dynamic initializer for 'RMS_ANALYSIS_FUNC''
text$di	ENDS
; Function compile flags: /Ogtp
; File D:\git\src\IBK\IBK_DRFN\ProjSrc\SrcChartEx\ChartOCX\AddInManager\ChartCommonAddIn\DragYZoomAddInImp.cpp
; File C:\Program Files (x86)\Microsoft Visual Studio\2019\Community\VC\Tools\MSVC\14.29.30133\atlmfc\include\afx.inl
;	COMDAT ??_GCDragYZoomAddInImp@@UAEPAXI@Z
_TEXT	SEGMENT
___flags$ = 8						; size = 4
??_GCDragYZoomAddInImp@@UAEPAXI@Z PROC			; CDragYZoomAddInImp::`scalar deleting destructor', COMDAT
; _this$ = ecx
  00000	55		 push	 ebp
  00001	8b ec		 mov	 ebp, esp
; File D:\git\src\IBK\IBK_DRFN\ProjSrc\SrcChartEx\ChartOCX\AddInManager\ChartCommonAddIn\DragYZoomAddInImp.cpp

; 36   : {

  00003	56		 push	 esi
  00004	8b f1		 mov	 esi, ecx
  00006	c7 06 00 00 00
	00		 mov	 DWORD PTR [esi], OFFSET ??_7CDragYZoomAddInImp@@6BCIWUnknown@@@
  0000c	c7 46 08 00 00
	00 00		 mov	 DWORD PTR [esi+8], OFFSET ??_7CDragYZoomAddInImp@@6BIChartAddIn000000@@@

; 37   : 
; 38   : }

  00013	e8 00 00 00 00	 call	 ??1CChartAddInBase000000@@MAE@XZ ; CChartAddInBase000000::~CChartAddInBase000000
  00018	8b 45 08	 mov	 eax, DWORD PTR ___flags$[ebp]
  0001b	a8 01		 test	 al, 1
  0001d	74 1f		 je	 SHORT $LN12@scalar
  0001f	a8 04		 test	 al, 4
  00021	75 10		 jne	 SHORT $LN3@scalar
; File C:\Program Files (x86)\Microsoft Visual Studio\2019\Community\VC\Tools\MSVC\14.29.30133\atlmfc\include\afx.inl

; 112  : 	{ ::operator delete(p); }

  00023	56		 push	 esi
  00024	e8 00 00 00 00	 call	 ??3@YAXPAX@Z		; operator delete
  00029	83 c4 04	 add	 esp, 4
  0002c	8b c6		 mov	 eax, esi
  0002e	5e		 pop	 esi
  0002f	5d		 pop	 ebp
  00030	c2 04 00	 ret	 4
$LN3@scalar:
  00033	6a 7c		 push	 124			; 0000007cH
  00035	56		 push	 esi
  00036	e8 00 00 00 00	 call	 ?__global_delete@@YAXPAXI@Z ; __global_delete
  0003b	83 c4 08	 add	 esp, 8
$LN12@scalar:
  0003e	8b c6		 mov	 eax, esi
  00040	5e		 pop	 esi
  00041	5d		 pop	 ebp
  00042	c2 04 00	 ret	 4
??_GCDragYZoomAddInImp@@UAEPAXI@Z ENDP			; CDragYZoomAddInImp::`scalar deleting destructor'
_TEXT	ENDS
; Function compile flags: /Ogtp
; File D:\git\src\IBK\IBK_DRFN\ProjSrc\SrcChartEx\ChartOCX\AddInManager\ChartCommonAddIn\DragYZoomAddInImp.cpp
; File C:\Program Files (x86)\Microsoft Visual Studio\2019\Community\VC\Tools\MSVC\14.29.30133\atlmfc\include\atltypes.h
; File D:\git\src\IBK\IBK_DRFN\ProjSrc\SrcChartEx\ChartOCX\AddInManager\ChartCommonAddIn\DragYZoomAddInImp.cpp
; File C:\Program Files (x86)\Microsoft Visual Studio\2019\Community\VC\Tools\MSVC\14.29.30133\atlmfc\include\atltypes.h
; File D:\git\src\IBK\IBK_DRFN\ProjSrc\SrcChartEx\ChartOCX\AddInManager\ChartCommonAddIn\DragYZoomAddInImp.cpp
; File C:\Program Files (x86)\Windows Kits\10\Include\10.0.22000.0\ucrt\stdlib.h
; File D:\git\src\IBK\IBK_DRFN\ProjSrc\SrcChartEx\ChartOCX\AddInManager\ChartCommonAddIn\DragYZoomAddInImp.cpp
; File C:\Program Files (x86)\Microsoft Visual Studio\2019\Community\VC\Tools\MSVC\14.29.30133\atlmfc\include\afxwin2.inl
; File D:\git\src\IBK\IBK_DRFN\ProjSrc\SrcChartEx\ChartOCX\AddInManager\ChartCommonAddIn\DragYZoomAddInImp.cpp
; File D:\git\src\IBK\IBK_DRFN\ProjSrc\SrcChartEx\ChartOCX\AddInManager\Include_AddIn\I000000\_IString.h
; File D:\git\src\IBK\IBK_DRFN\ProjSrc\SrcChartEx\ChartOCX\AddInManager\ChartCommonAddIn\DragYZoomAddInImp.cpp
; File D:\git\src\IBK\IBK_DRFN\ProjSrc\SrcChartEx\ChartOCX\AddInManager\Include_AddIn\I000000\_IString.h
; File D:\git\src\IBK\IBK_DRFN\ProjSrc\SrcChartEx\ChartOCX\AddInManager\ChartCommonAddIn\DragYZoomAddInImp.cpp
; File C:\Program Files (x86)\Microsoft Visual Studio\2019\Community\VC\Tools\MSVC\14.29.30133\atlmfc\include\atltypes.h
; File D:\git\src\IBK\IBK_DRFN\ProjSrc\SrcChartEx\ChartOCX\AddInManager\ChartCommonAddIn\DragYZoomAddInImp.cpp
; File C:\Program Files (x86)\Microsoft Visual Studio\2019\Community\VC\Tools\MSVC\14.29.30133\atlmfc\include\atltypes.h
; File D:\git\src\IBK\IBK_DRFN\ProjSrc\SrcChartEx\ChartOCX\AddInManager\ChartCommonAddIn\DragYZoomAddInImp.cpp
; File C:\Program Files (x86)\Microsoft Visual Studio\2019\Community\VC\Tools\MSVC\14.29.30133\atlmfc\include\atltypes.h
; File D:\git\src\IBK\IBK_DRFN\ProjSrc\SrcChartEx\ChartOCX\AddInManager\ChartCommonAddIn\DragYZoomAddInImp.cpp
; File C:\Program Files (x86)\Microsoft Visual Studio\2019\Community\VC\Tools\MSVC\14.29.30133\atlmfc\include\atltypes.h
; File D:\git\src\IBK\IBK_DRFN\ProjSrc\SrcChartEx\ChartOCX\AddInManager\ChartCommonAddIn\DragYZoomAddInImp.cpp
; File C:\Program Files (x86)\Microsoft Visual Studio\2019\Community\VC\Tools\MSVC\14.29.30133\atlmfc\include\atltypes.h
; File D:\git\src\IBK\IBK_DRFN\ProjSrc\SrcChartEx\ChartOCX\AddInManager\ChartCommonAddIn\DragYZoomAddInImp.cpp
; File D:\git\src\IBK\IBK_DRFN\ProjSrc\SrcChartEx\ChartOCX\AddInManager\Include_AddIn\I000000\_IString.h
; File D:\git\src\IBK\IBK_DRFN\ProjSrc\SrcChartEx\ChartOCX\AddInManager\ChartCommonAddIn\DragYZoomAddInImp.cpp
;	COMDAT ?OnLButtonUp@CDragYZoomAddInImp@@MAEHPAUHDC__@@IAAUtagPOINT@@K@Z
_TEXT	SEGMENT
_eMinMaxType$ = -140					; size = 4
_nG$ = -136						; size = 4
_dDragStart$ = -132					; size = 8
_dViewMax$ = -124					; size = 8
_dViewMin$ = -116					; size = 8
_szGraphName$ = -108					; size = 8
_bIsLock$ = -100					; size = 4
_nV$ = -96						; size = 4
_nR$ = -92						; size = 4
_nC$ = -88						; size = 4
_pIBlock$1$ = -84					; size = 4
$T2 = -80						; size = 16
_dDragEnd$ = -72					; size = 8
_rctGraphRegion$ = -64					; size = 16
_rctNoFrameAndMargin$ = -48				; size = 16
_rctGraphDrawingRegion$ = -32				; size = 16
__$ArrayPad$ = -16					; size = 4
__$EHRec$ = -12						; size = 12
_p_hDC$ = 8						; size = 4
_nFlags$ = 12						; size = 4
_point$ = 16						; size = 4
_p_dwMouseActionID$ = 20				; size = 4
?OnLButtonUp@CDragYZoomAddInImp@@MAEHPAUHDC__@@IAAUtagPOINT@@K@Z PROC ; CDragYZoomAddInImp::OnLButtonUp, COMDAT
; _this$ = ecx

; 281  : {

  00000	55		 push	 ebp
  00001	8b ec		 mov	 ebp, esp
  00003	6a ff		 push	 -1
  00005	68 00 00 00 00	 push	 __ehhandler$?OnLButtonUp@CDragYZoomAddInImp@@MAEHPAUHDC__@@IAAUtagPOINT@@K@Z
  0000a	64 a1 00 00 00
	00		 mov	 eax, DWORD PTR fs:0
  00010	50		 push	 eax
  00011	81 ec 80 00 00
	00		 sub	 esp, 128		; 00000080H
  00017	a1 00 00 00 00	 mov	 eax, DWORD PTR ___security_cookie
  0001c	33 c5		 xor	 eax, ebp
  0001e	89 45 f0	 mov	 DWORD PTR __$ArrayPad$[ebp], eax
  00021	53		 push	 ebx
  00022	56		 push	 esi
  00023	57		 push	 edi
  00024	50		 push	 eax
  00025	8d 45 f4	 lea	 eax, DWORD PTR __$EHRec$[ebp]
  00028	64 a3 00 00 00
	00		 mov	 DWORD PTR fs:0, eax
  0002e	8b d9		 mov	 ebx, ecx

; 282  : 	// 1. 현재 실행해야될지 확인하고 실행해야 될 경우에만 실행한다.
; 283  : 	if( !m_bRun )

  00030	83 7b 5c 00	 cmp	 DWORD PTR [ebx+92], 0
  00034	8b 45 08	 mov	 eax, DWORD PTR _p_hDC$[ebp]
  00037	0f 84 77 02 00
	00		 je	 $LN57@OnLButtonU

; 284  : 		return FALSE;
; 285  : 
; 286  : 	// 2. DC를 얻어온다.
; 287  : 	CDC *pDC = CDC::FromHandle( p_hDC);

  0003d	50		 push	 eax
  0003e	e8 00 00 00 00	 call	 ?FromHandle@CDC@@SGPAV1@PAUHDC__@@@Z ; CDC::FromHandle
  00043	8b f8		 mov	 edi, eax

; 288  : 	if( !pDC) return FALSE;

  00045	85 ff		 test	 edi, edi
  00047	0f 84 67 02 00
	00		 je	 $LN57@OnLButtonU

; 289  : 
; 290  : 	// 3. Manage Mouse Action ID for Serial Action.
; 291  : 	if( !m_pIAddInToolMgr->ReleaseLButtonExclusive( m_pIAddInDllBase))

  0004d	8b 4b 24	 mov	 ecx, DWORD PTR [ebx+36]
  00050	ff 73 10	 push	 DWORD PTR [ebx+16]
  00053	8b 11		 mov	 edx, DWORD PTR [ecx]
  00055	ff 52 38	 call	 DWORD PTR [edx+56]
  00058	85 c0		 test	 eax, eax
  0005a	0f 84 54 02 00
	00		 je	 $LN57@OnLButtonU

; 295  : 	DrawDragRect( pDC, m_ptStartDragDrop, m_ptCurrDragDrop, point, 4, FALSE);

  00060	8b 75 10	 mov	 esi, DWORD PTR _point$[ebp]
  00063	6a 00		 push	 0
  00065	6a 04		 push	 4
  00067	83 ec 08	 sub	 esp, 8
  0006a	8b 0e		 mov	 ecx, DWORD PTR [esi]
  0006c	8b c4		 mov	 eax, esp
  0006e	8b 56 04	 mov	 edx, DWORD PTR [esi+4]
; File C:\Program Files (x86)\Microsoft Visual Studio\2019\Community\VC\Tools\MSVC\14.29.30133\atlmfc\include\atltypes.h

; 414  : 	*(POINT*)this = initPt;

  00071	89 08		 mov	 DWORD PTR [eax], ecx
; File D:\git\src\IBK\IBK_DRFN\ProjSrc\SrcChartEx\ChartOCX\AddInManager\ChartCommonAddIn\DragYZoomAddInImp.cpp

; 295  : 	DrawDragRect( pDC, m_ptStartDragDrop, m_ptCurrDragDrop, point, 4, FALSE);

  00073	8d 4b f8	 lea	 ecx, DWORD PTR [ebx-8]
; File C:\Program Files (x86)\Microsoft Visual Studio\2019\Community\VC\Tools\MSVC\14.29.30133\atlmfc\include\atltypes.h

; 414  : 	*(POINT*)this = initPt;

  00076	89 50 04	 mov	 DWORD PTR [eax+4], edx
; File D:\git\src\IBK\IBK_DRFN\ProjSrc\SrcChartEx\ChartOCX\AddInManager\ChartCommonAddIn\DragYZoomAddInImp.cpp

; 295  : 	DrawDragRect( pDC, m_ptStartDragDrop, m_ptCurrDragDrop, point, 4, FALSE);

  00079	ff 73 44	 push	 DWORD PTR [ebx+68]
  0007c	ff 73 40	 push	 DWORD PTR [ebx+64]
  0007f	ff 73 3c	 push	 DWORD PTR [ebx+60]
  00082	ff 73 38	 push	 DWORD PTR [ebx+56]
  00085	57		 push	 edi
  00086	e8 00 00 00 00	 call	 ?DrawDragRect@CDragYZoomAddInImp@@IAEHPAVCDC@@VCPoint@@11HH@Z ; CDragYZoomAddInImp::DrawDragRect

; 298  : 	if( abs(m_ptStartDragDrop.x - point.x) < 5)

  0008b	8b 43 38	 mov	 eax, DWORD PTR [ebx+56]
  0008e	2b 06		 sub	 eax, DWORD PTR [esi]
; File C:\Program Files (x86)\Windows Kits\10\Include\10.0.22000.0\ucrt\stdlib.h

; 365  :         return labs(_X);

  00090	99		 cdq
  00091	33 c2		 xor	 eax, edx
  00093	2b c2		 sub	 eax, edx
; File D:\git\src\IBK\IBK_DRFN\ProjSrc\SrcChartEx\ChartOCX\AddInManager\ChartCommonAddIn\DragYZoomAddInImp.cpp

; 298  : 	if( abs(m_ptStartDragDrop.x - point.x) < 5)

  00095	83 f8 05	 cmp	 eax, 5
  00098	0f 8c 0f 02 00
	00		 jl	 $LN40@OnLButtonU

; 299  : 		return TRUE;
; 300  : 
; 301  : 	// 6. Drag가 종료되었슴으로 Mouse Cursor를 변경한다.
; 302  : 	m_pChartCWnd->SendMessage( UM_CURSOR_EXCHANGE, ( WPARAM)CCursorShape::OBJECT_NONE, NULL);

  0009e	8b 43 08	 mov	 eax, DWORD PTR [ebx+8]
; File C:\Program Files (x86)\Microsoft Visual Studio\2019\Community\VC\Tools\MSVC\14.29.30133\atlmfc\include\afxwin2.inl

; 32   : 	{ ASSERT(::IsWindow(m_hWnd)); return ::SendMessage(m_hWnd, message, wParam, lParam); }

  000a1	6a 00		 push	 0
  000a3	6a 00		 push	 0
  000a5	68 09 06 00 00	 push	 1545			; 00000609H
  000aa	ff 70 20	 push	 DWORD PTR [eax+32]
  000ad	ff 15 00 00 00
	00		 call	 DWORD PTR __imp__SendMessageA@16
; File D:\git\src\IBK\IBK_DRFN\ProjSrc\SrcChartEx\ChartOCX\AddInManager\ChartCommonAddIn\DragYZoomAddInImp.cpp

; 306  : 	ILPCSTR szGraphName = m_pIChartManager->FindFirstIndicator( _MTEXT( C2_PRICE_CHART), nR, nC, nV, nG, "DEFAULT");

  000b3	8b 4b 1c	 mov	 ecx, DWORD PTR [ebx+28]
  000b6	8d 85 78 ff ff
	ff		 lea	 eax, DWORD PTR _nG$[ebp]
  000bc	68 00 00 00 00	 push	 OFFSET ??_C@_07MGCPDNLD@DEFAULT@
  000c1	50		 push	 eax
  000c2	8d 45 a0	 lea	 eax, DWORD PTR _nV$[ebp]
  000c5	8b 11		 mov	 edx, DWORD PTR [ecx]
  000c7	50		 push	 eax
  000c8	8d 45 a8	 lea	 eax, DWORD PTR _nC$[ebp]
  000cb	50		 push	 eax
  000cc	8d 45 a4	 lea	 eax, DWORD PTR _nR$[ebp]
  000cf	50		 push	 eax
  000d0	a1 54 00 00 00	 mov	 eax, DWORD PTR ?g_iMetaTable@@3VIMetaTable@@A+84
  000d5	ff b0 28 03 00
	00		 push	 DWORD PTR [eax+808]
  000db	ff 52 70	 call	 DWORD PTR [edx+112]
; File D:\git\src\IBK\IBK_DRFN\ProjSrc\SrcChartEx\ChartOCX\AddInManager\Include_AddIn\I000000\_IString.h

; 39   : 		m_pIStrData = p_pIString;	// Do not AddRef(). Because It must be Return Value.

  000de	8b f0		 mov	 esi, eax
  000e0	89 75 98	 mov	 DWORD PTR _szGraphName$[ebp+4], esi

; 40   : 		if( m_pIStrData) m_szData = m_pIStrData->GetData();

  000e3	85 f6		 test	 esi, esi
  000e5	74 09		 je	 SHORT $LN21@OnLButtonU
  000e7	8b 16		 mov	 edx, DWORD PTR [esi]
  000e9	8b ce		 mov	 ecx, esi
  000eb	ff 52 10	 call	 DWORD PTR [edx+16]
  000ee	eb 02		 jmp	 SHORT $LN61@OnLButtonU
$LN21@OnLButtonU:

; 41   : 		else m_szData = NULL;

  000f0	33 c0		 xor	 eax, eax
$LN61@OnLButtonU:
; File D:\git\src\IBK\IBK_DRFN\ProjSrc\SrcChartEx\ChartOCX\AddInManager\ChartCommonAddIn\DragYZoomAddInImp.cpp

; 306  : 	ILPCSTR szGraphName = m_pIChartManager->FindFirstIndicator( _MTEXT( C2_PRICE_CHART), nR, nC, nV, nG, "DEFAULT");

  000f2	89 45 94	 mov	 DWORD PTR _szGraphName$[ebp], eax
  000f5	c7 45 fc 00 00
	00 00		 mov	 DWORD PTR __$EHRec$[ebp+8], 0
; File D:\git\src\IBK\IBK_DRFN\ProjSrc\SrcChartEx\ChartOCX\AddInManager\Include_AddIn\I000000\_IString.h

; 57   : 		if( !m_szData) return TRUE;

  000fc	85 c0		 test	 eax, eax
  000fe	0f 84 98 01 00
	00		 je	 $LN13@OnLButtonU
; File D:\git\src\IBK\IBK_DRFN\ProjSrc\SrcChartEx\ChartOCX\AddInManager\ChartCommonAddIn\DragYZoomAddInImp.cpp

; 307  : 	if( szGraphName.IsEmpty()) return TRUE;

  00104	80 38 00	 cmp	 BYTE PTR [eax], 0
  00107	0f 84 8f 01 00
	00		 je	 $LN13@OnLButtonU

; 308  : 
; 309  : 	// 8. Use Block Interface
; 310  : 	IBlock *pIBlock = m_pIChartManager->GetBlock( nR, nC);

  0010d	8b 4b 1c	 mov	 ecx, DWORD PTR [ebx+28]
  00110	ff 75 a8	 push	 DWORD PTR _nC$[ebp]
  00113	ff 75 a4	 push	 DWORD PTR _nR$[ebp]
  00116	8b 01		 mov	 eax, DWORD PTR [ecx]
  00118	ff 50 38	 call	 DWORD PTR [eax+56]
  0011b	8b f8		 mov	 edi, eax
  0011d	89 7d ac	 mov	 DWORD PTR _pIBlock$1$[ebp], edi

; 311  : 	if( !pIBlock) return TRUE;

  00120	85 ff		 test	 edi, edi
  00122	0f 84 74 01 00
	00		 je	 $LN13@OnLButtonU

; 312  : 		
; 313  : 	BOOL bIsLock;
; 314  : 	CScaleBaseData::VERTMINMAXTYPE eMinMaxType;
; 315  : 	double dViewMin, dViewMax;
; 316  : 	pIBlock->GetVScaleMinMaxSetting( nV, bIsLock, eMinMaxType, dViewMin, dViewMax);

  00128	8b 17		 mov	 edx, DWORD PTR [edi]
  0012a	8d 45 84	 lea	 eax, DWORD PTR _dViewMax$[ebp]
  0012d	50		 push	 eax
  0012e	8d 45 8c	 lea	 eax, DWORD PTR _dViewMin$[ebp]
  00131	8b cf		 mov	 ecx, edi
  00133	50		 push	 eax
  00134	8d 85 74 ff ff
	ff		 lea	 eax, DWORD PTR _eMinMaxType$[ebp]
  0013a	50		 push	 eax
  0013b	8d 45 9c	 lea	 eax, DWORD PTR _bIsLock$[ebp]
  0013e	50		 push	 eax
  0013f	ff 75 a0	 push	 DWORD PTR _nV$[ebp]
  00142	ff 52 50	 call	 DWORD PTR [edx+80]

; 319  : 	pIBlock->GetGraphRegions( rctGraphRegion, rctNoFrameAndMargin );

  00145	8d 4d d0	 lea	 ecx, DWORD PTR _rctNoFrameAndMargin$[ebp]
; File C:\Program Files (x86)\Microsoft Visual Studio\2019\Community\VC\Tools\MSVC\14.29.30133\atlmfc\include\atltypes.h

; 528  : 	left = 0;

  00148	c7 45 c0 00 00
	00 00		 mov	 DWORD PTR _rctGraphRegion$[ebp], 0
; File D:\git\src\IBK\IBK_DRFN\ProjSrc\SrcChartEx\ChartOCX\AddInManager\ChartCommonAddIn\DragYZoomAddInImp.cpp

; 319  : 	pIBlock->GetGraphRegions( rctGraphRegion, rctNoFrameAndMargin );

  0014f	51		 push	 ecx
; File C:\Program Files (x86)\Microsoft Visual Studio\2019\Community\VC\Tools\MSVC\14.29.30133\atlmfc\include\atltypes.h

; 528  : 	left = 0;

  00150	c7 45 d0 00 00
	00 00		 mov	 DWORD PTR _rctNoFrameAndMargin$[ebp], 0
; File D:\git\src\IBK\IBK_DRFN\ProjSrc\SrcChartEx\ChartOCX\AddInManager\ChartCommonAddIn\DragYZoomAddInImp.cpp

; 319  : 	pIBlock->GetGraphRegions( rctGraphRegion, rctNoFrameAndMargin );

  00157	8d 4d c0	 lea	 ecx, DWORD PTR _rctGraphRegion$[ebp]
; File C:\Program Files (x86)\Microsoft Visual Studio\2019\Community\VC\Tools\MSVC\14.29.30133\atlmfc\include\atltypes.h

; 528  : 	left = 0;

  0015a	c7 45 c4 00 00
	00 00		 mov	 DWORD PTR _rctGraphRegion$[ebp+4], 0
  00161	c7 45 d4 00 00
	00 00		 mov	 DWORD PTR _rctNoFrameAndMargin$[ebp+4], 0
  00168	c7 45 c8 00 00
	00 00		 mov	 DWORD PTR _rctGraphRegion$[ebp+8], 0
  0016f	c7 45 d8 00 00
	00 00		 mov	 DWORD PTR _rctNoFrameAndMargin$[ebp+8], 0
  00176	c7 45 cc 00 00
	00 00		 mov	 DWORD PTR _rctGraphRegion$[ebp+12], 0
  0017d	c7 45 dc 00 00
	00 00		 mov	 DWORD PTR _rctNoFrameAndMargin$[ebp+12], 0
; File D:\git\src\IBK\IBK_DRFN\ProjSrc\SrcChartEx\ChartOCX\AddInManager\ChartCommonAddIn\DragYZoomAddInImp.cpp

; 319  : 	pIBlock->GetGraphRegions( rctGraphRegion, rctNoFrameAndMargin );

  00184	8b 07		 mov	 eax, DWORD PTR [edi]
  00186	51		 push	 ecx
  00187	8b cf		 mov	 ecx, edi
  00189	ff 50 10	 call	 DWORD PTR [eax+16]

; 320  : 
; 321  : 	// 10. 가격차트의 Block에 Log/뒤집기 설정값을 확인한다.
; 322  : 	BOOL bLog = pIBlock->IsLogScale();

  0018c	8b 07		 mov	 eax, DWORD PTR [edi]
  0018e	8b cf		 mov	 ecx, edi
  00190	ff 50 24	 call	 DWORD PTR [eax+36]

; 323  : 	BOOL bReverse = pIBlock->IsVScaleInvert( m_nVertScaleGroupIndex);

  00193	8b 17		 mov	 edx, DWORD PTR [edi]
  00195	8b cf		 mov	 ecx, edi
  00197	ff 73 60	 push	 DWORD PTR [ebx+96]
  0019a	8b f0		 mov	 esi, eax
  0019c	ff 52 58	 call	 DWORD PTR [edx+88]

; 324  : 	
; 325  : 	// 11. 
; 326  : 	CRect rctGraphDrawingRegion;
; 327  : 	rctGraphDrawingRegion	= pIBlock->GetGraphDrwingRegion();

  0019f	8b 4d ac	 mov	 ecx, DWORD PTR _pIBlock$1$[ebp]
  001a2	0f 57 c0	 xorps	 xmm0, xmm0
; File C:\Program Files (x86)\Microsoft Visual Studio\2019\Community\VC\Tools\MSVC\14.29.30133\atlmfc\include\atltypes.h

; 528  : 	left = 0;

  001a5	0f 11 45 e0	 movups	 XMMWORD PTR _rctGraphDrawingRegion$[ebp], xmm0
; File D:\git\src\IBK\IBK_DRFN\ProjSrc\SrcChartEx\ChartOCX\AddInManager\ChartCommonAddIn\DragYZoomAddInImp.cpp

; 323  : 	BOOL bReverse = pIBlock->IsVScaleInvert( m_nVertScaleGroupIndex);

  001a9	8b f8		 mov	 edi, eax

; 324  : 	
; 325  : 	// 11. 
; 326  : 	CRect rctGraphDrawingRegion;
; 327  : 	rctGraphDrawingRegion	= pIBlock->GetGraphDrwingRegion();

  001ab	8d 45 b0	 lea	 eax, DWORD PTR $T2[ebp]
  001ae	6a 00		 push	 0
  001b0	8b 11		 mov	 edx, DWORD PTR [ecx]
  001b2	50		 push	 eax
  001b3	ff 52 1c	 call	 DWORD PTR [edx+28]
; File C:\Program Files (x86)\Microsoft Visual Studio\2019\Community\VC\Tools\MSVC\14.29.30133\atlmfc\include\atltypes.h

; 765  : 	::CopyRect(this, &srcRect);

  001b6	50		 push	 eax
  001b7	8d 45 e0	 lea	 eax, DWORD PTR _rctGraphDrawingRegion$[ebp]
  001ba	50		 push	 eax
  001bb	ff 15 00 00 00
	00		 call	 DWORD PTR __imp__CopyRect@8
; File D:\git\src\IBK\IBK_DRFN\ProjSrc\SrcChartEx\ChartOCX\AddInManager\ChartCommonAddIn\DragYZoomAddInImp.cpp

; 330  : 	dDragStart = m_pIChartOCX->ConvertYPositionToData( m_ptStartDragDrop.y, rctGraphDrawingRegion.top, rctGraphDrawingRegion.bottom, dViewMax, dViewMin, bLog, bReverse);

  001c1	f2 0f 10 45 8c	 movsd	 xmm0, QWORD PTR _dViewMin$[ebp]
  001c6	8b 4b 04	 mov	 ecx, DWORD PTR [ebx+4]
  001c9	57		 push	 edi
  001ca	56		 push	 esi
  001cb	83 ec 10	 sub	 esp, 16			; 00000010H
  001ce	8b 01		 mov	 eax, DWORD PTR [ecx]
  001d0	f2 0f 11 44 24
	08		 movsd	 QWORD PTR [esp+8], xmm0
  001d6	f2 0f 10 45 84	 movsd	 xmm0, QWORD PTR _dViewMax$[ebp]
  001db	8b 80 30 01 00
	00		 mov	 eax, DWORD PTR [eax+304]
  001e1	f2 0f 11 04 24	 movsd	 QWORD PTR [esp], xmm0
  001e6	ff 75 ec	 push	 DWORD PTR _rctGraphDrawingRegion$[ebp+12]
  001e9	ff 75 e4	 push	 DWORD PTR _rctGraphDrawingRegion$[ebp+4]
  001ec	ff 73 3c	 push	 DWORD PTR [ebx+60]
  001ef	ff d0		 call	 eax

; 331  : 	dDragEnd = m_pIChartOCX->ConvertYPositionToData( m_ptCurrDragDrop.y, rctGraphDrawingRegion.top, rctGraphDrawingRegion.bottom, dViewMax, dViewMin, bLog, bReverse);

  001f1	f2 0f 10 45 8c	 movsd	 xmm0, QWORD PTR _dViewMin$[ebp]
  001f6	8b 4b 04	 mov	 ecx, DWORD PTR [ebx+4]
  001f9	57		 push	 edi
  001fa	56		 push	 esi
  001fb	83 ec 10	 sub	 esp, 16			; 00000010H
  001fe	8b 01		 mov	 eax, DWORD PTR [ecx]
  00200	dd 9d 7c ff ff
	ff		 fstp	 QWORD PTR _dDragStart$[ebp]
  00206	f2 0f 11 44 24
	08		 movsd	 QWORD PTR [esp+8], xmm0
  0020c	f2 0f 10 45 84	 movsd	 xmm0, QWORD PTR _dViewMax$[ebp]
  00211	8b 80 30 01 00
	00		 mov	 eax, DWORD PTR [eax+304]
  00217	f2 0f 11 04 24	 movsd	 QWORD PTR [esp], xmm0
  0021c	ff 75 ec	 push	 DWORD PTR _rctGraphDrawingRegion$[ebp+12]
  0021f	ff 75 e4	 push	 DWORD PTR _rctGraphDrawingRegion$[ebp+4]
  00222	ff 73 44	 push	 DWORD PTR [ebx+68]
  00225	ff d0		 call	 eax
  00227	dd 5d b8	 fstp	 QWORD PTR _dDragEnd$[ebp]

; 332  : 
; 333  : 	// Block의 Log/뒤집기 설정을 확인하여 정확하게 Data를 변환한다. (가격<->Y Pos)
; 334  : 	if( bReverse)

  0022a	85 ff		 test	 edi, edi
  0022c	74 0f		 je	 SHORT $LN58@OnLButtonU

; 335  : 	{
; 336  : 		double nTemp	= dDragStart;

  0022e	f2 0f 10 8d 7c
	ff ff ff	 movsd	 xmm1, QWORD PTR _dDragStart$[ebp]

; 337  : 		dDragStart		= dDragEnd;

  00236	f2 0f 10 45 b8	 movsd	 xmm0, QWORD PTR _dDragEnd$[ebp]
  0023b	eb 0d		 jmp	 SHORT $LN8@OnLButtonU
$LN58@OnLButtonU:

; 332  : 
; 333  : 	// Block의 Log/뒤집기 설정을 확인하여 정확하게 Data를 변환한다. (가격<->Y Pos)
; 334  : 	if( bReverse)

  0023d	f2 0f 10 85 7c
	ff ff ff	 movsd	 xmm0, QWORD PTR _dDragStart$[ebp]
  00245	f2 0f 10 4d b8	 movsd	 xmm1, QWORD PTR _dDragEnd$[ebp]
$LN8@OnLButtonU:

; 338  : 		dDragEnd		= nTemp;
; 339  : 	}
; 340  : 	
; 341  : 	// Block에 설정값을 전달한다.
; 342  : 	if( !bIsLock )

  0024a	83 7d 9c 00	 cmp	 DWORD PTR _bIsLock$[ebp], 0
  0024e	8b 75 ac	 mov	 esi, DWORD PTR _pIBlock$1$[ebp]
  00251	75 1c		 jne	 SHORT $LN9@OnLButtonU

; 343  : 	{
; 344  : 		pIBlock->SetVScaleMinMaxSetting( m_nVertScaleGroupIndex, bIsLock,

  00253	8b 06		 mov	 eax, DWORD PTR [esi]
  00255	83 ec 10	 sub	 esp, 16			; 00000010H
  00258	8b ce		 mov	 ecx, esi
  0025a	f2 0f 11 44 24
	08		 movsd	 QWORD PTR [esp+8], xmm0
  00260	f2 0f 11 0c 24	 movsd	 QWORD PTR [esp], xmm1
  00265	6a 02		 push	 2
  00267	6a 00		 push	 0
  00269	ff 73 60	 push	 DWORD PTR [ebx+96]
  0026c	ff 50 54	 call	 DWORD PTR [eax+84]
$LN9@OnLButtonU:

; 345  : 										 CScaleBaseData::VERTMINMAXTYPE::VERT_MINMAX_OF_USER,
; 346  : 										 dDragEnd, dDragStart);
; 347  : 	}
; 348  : 
; 349  : 	pIBlock->Release();

  0026f	8b 06		 mov	 eax, DWORD PTR [esi]
  00271	56		 push	 esi
  00272	ff 50 08	 call	 DWORD PTR [eax+8]

; 350  : 	pIBlock = NULL;
; 351  : 
; 352  : 	m_pIChartOCX->InvalidateControl();

  00275	8b 4b 04	 mov	 ecx, DWORD PTR [ebx+4]
  00278	8b 01		 mov	 eax, DWORD PTR [ecx]
  0027a	ff 50 38	 call	 DWORD PTR [eax+56]
  0027d	8b 75 98	 mov	 esi, DWORD PTR _szGraphName$[ebp+4]

; 353  : 
; 354  : 	m_ptStartDragDrop = CPoint(-1, -1);

  00280	c7 43 38 ff ff
	ff ff		 mov	 DWORD PTR [ebx+56], -1
  00287	c7 43 3c ff ff
	ff ff		 mov	 DWORD PTR [ebx+60], -1

; 355  : 	m_ptCurrDragDrop = CPoint(-1, -1);

  0028e	c7 43 40 ff ff
	ff ff		 mov	 DWORD PTR [ebx+64], -1
  00295	c7 43 44 ff ff
	ff ff		 mov	 DWORD PTR [ebx+68], -1
$LN13@OnLButtonU:
; File D:\git\src\IBK\IBK_DRFN\ProjSrc\SrcChartEx\ChartOCX\AddInManager\Include_AddIn\I000000\_IString.h

; 44   : 	{

  0029c	c7 45 fc 01 00
	00 00		 mov	 DWORD PTR __$EHRec$[ebp+8], 1

; 45   : 		if( m_pIStrData)

  002a3	85 f6		 test	 esi, esi
  002a5	74 06		 je	 SHORT $LN40@OnLButtonU

; 46   : 		{
; 47   : 			m_pIStrData->Release();

  002a7	8b 06		 mov	 eax, DWORD PTR [esi]
  002a9	56		 push	 esi
  002aa	ff 50 08	 call	 DWORD PTR [eax+8]
$LN40@OnLButtonU:
; File D:\git\src\IBK\IBK_DRFN\ProjSrc\SrcChartEx\ChartOCX\AddInManager\ChartCommonAddIn\DragYZoomAddInImp.cpp

; 357  : 	return TRUE;

  002ad	b8 01 00 00 00	 mov	 eax, 1
  002b2	eb 02		 jmp	 SHORT $LN1@OnLButtonU
$LN57@OnLButtonU:

; 292  : 		return FALSE;

  002b4	33 c0		 xor	 eax, eax
$LN1@OnLButtonU:

; 358  : }

  002b6	8b 4d f4	 mov	 ecx, DWORD PTR __$EHRec$[ebp]
  002b9	64 89 0d 00 00
	00 00		 mov	 DWORD PTR fs:0, ecx
  002c0	59		 pop	 ecx
  002c1	5f		 pop	 edi
  002c2	5e		 pop	 esi
  002c3	5b		 pop	 ebx
  002c4	8b 4d f0	 mov	 ecx, DWORD PTR __$ArrayPad$[ebp]
  002c7	33 cd		 xor	 ecx, ebp
  002c9	e8 00 00 00 00	 call	 @__security_check_cookie@4
  002ce	8b e5		 mov	 esp, ebp
  002d0	5d		 pop	 ebp
  002d1	c2 10 00	 ret	 16			; 00000010H
_TEXT	ENDS
;	COMDAT text$x
text$x	SEGMENT
__unwindfunclet$?OnLButtonUp@CDragYZoomAddInImp@@MAEHPAUHDC__@@IAAUtagPOINT@@K@Z$0:
  00000	8d 4d 94	 lea	 ecx, DWORD PTR _szGraphName$[ebp]
  00003	e9 00 00 00 00	 jmp	 ??1ILPCSTR000000@@QAE@XZ ; ILPCSTR000000::~ILPCSTR000000
  00008	cc		 int	 3
  00009	cc		 int	 3
  0000a	cc		 int	 3
  0000b	cc		 int	 3
  0000c	cc		 int	 3
__ehhandler$?OnLButtonUp@CDragYZoomAddInImp@@MAEHPAUHDC__@@IAAUtagPOINT@@K@Z:
  0000d	90		 npad	 1
  0000e	90		 npad	 1
  0000f	8b 54 24 08	 mov	 edx, DWORD PTR [esp+8]
  00013	8d 42 0c	 lea	 eax, DWORD PTR [edx+12]
  00016	8b 8a 70 ff ff
	ff		 mov	 ecx, DWORD PTR [edx-144]
  0001c	33 c8		 xor	 ecx, eax
  0001e	e8 00 00 00 00	 call	 @__security_check_cookie@4
  00023	8b 4a fc	 mov	 ecx, DWORD PTR [edx-4]
  00026	33 c8		 xor	 ecx, eax
  00028	e8 00 00 00 00	 call	 @__security_check_cookie@4
  0002d	b8 00 00 00 00	 mov	 eax, OFFSET __ehfuncinfo$?OnLButtonUp@CDragYZoomAddInImp@@MAEHPAUHDC__@@IAAUtagPOINT@@K@Z
  00032	e9 00 00 00 00	 jmp	 ___CxxFrameHandler3
text$x	ENDS
?OnLButtonUp@CDragYZoomAddInImp@@MAEHPAUHDC__@@IAAUtagPOINT@@K@Z ENDP ; CDragYZoomAddInImp::OnLButtonUp
; Function compile flags: /Ogtp
; File D:\git\src\IBK\IBK_DRFN\ProjSrc\SrcChartEx\ChartOCX\AddInManager\ChartCommonAddIn\DragYZoomAddInImp.cpp
; File D:\git\src\IBK\IBK_DRFN\ProjSrc\SrcChartEx\ChartOCX\AddInManager\Include_AddIn\I000000\_IString.h
; File D:\git\src\IBK\IBK_DRFN\ProjSrc\SrcChartEx\ChartOCX\AddInManager\ChartCommonAddIn\DragYZoomAddInImp.cpp
; File D:\git\src\IBK\IBK_DRFN\ProjSrc\SrcChartEx\ChartOCX\AddInManager\Include_AddIn\I000000\_IString.h
; File D:\git\src\IBK\IBK_DRFN\ProjSrc\SrcChartEx\ChartOCX\AddInManager\ChartCommonAddIn\DragYZoomAddInImp.cpp
; File C:\Program Files (x86)\Microsoft Visual Studio\2019\Community\VC\Tools\MSVC\14.29.30133\atlmfc\include\atltypes.h
; File D:\git\src\IBK\IBK_DRFN\ProjSrc\SrcChartEx\ChartOCX\AddInManager\ChartCommonAddIn\DragYZoomAddInImp.cpp
; File C:\Program Files (x86)\Microsoft Visual Studio\2019\Community\VC\Tools\MSVC\14.29.30133\atlmfc\include\atltypes.h
; File D:\git\src\IBK\IBK_DRFN\ProjSrc\SrcChartEx\ChartOCX\AddInManager\ChartCommonAddIn\DragYZoomAddInImp.cpp
; File C:\Program Files (x86)\Microsoft Visual Studio\2019\Community\VC\Tools\MSVC\14.29.30133\atlmfc\include\atltypes.h
; File D:\git\src\IBK\IBK_DRFN\ProjSrc\SrcChartEx\ChartOCX\AddInManager\ChartCommonAddIn\DragYZoomAddInImp.cpp
; File C:\Program Files (x86)\Microsoft Visual Studio\2019\Community\VC\Tools\MSVC\14.29.30133\atlmfc\include\atltypes.h
; File D:\git\src\IBK\IBK_DRFN\ProjSrc\SrcChartEx\ChartOCX\AddInManager\ChartCommonAddIn\DragYZoomAddInImp.cpp
; File D:\git\src\IBK\IBK_DRFN\ProjSrc\SrcChartEx\ChartOCX\AddInManager\Include_AddIn\I000000\_IString.h
; File D:\git\src\IBK\IBK_DRFN\ProjSrc\SrcChartEx\ChartOCX\AddInManager\ChartCommonAddIn\DragYZoomAddInImp.cpp
;	COMDAT ?OnLButtonDown@CDragYZoomAddInImp@@MAEHPAUHDC__@@IAAUtagPOINT@@K@Z
_TEXT	SEGMENT
_nG$ = -56						; size = 4
_szGraphName$ = -52					; size = 8
_point$GSCopy$1$ = -44					; size = 4
_nR$ = -40						; size = 4
_nC$ = -36						; size = 4
_rctNoFrameAndMargin$ = -32				; size = 16
__$ArrayPad$ = -16					; size = 4
__$EHRec$ = -12						; size = 12
_p_hDC$ = 8						; size = 4
_nFlags$ = 12						; size = 4
_point$ = 16						; size = 4
_p_dwMouseActionID$ = 20				; size = 4
?OnLButtonDown@CDragYZoomAddInImp@@MAEHPAUHDC__@@IAAUtagPOINT@@K@Z PROC ; CDragYZoomAddInImp::OnLButtonDown, COMDAT
; _this$ = ecx

; 163  : {

  00000	55		 push	 ebp
  00001	8b ec		 mov	 ebp, esp
  00003	6a ff		 push	 -1
  00005	68 00 00 00 00	 push	 __ehhandler$?OnLButtonDown@CDragYZoomAddInImp@@MAEHPAUHDC__@@IAAUtagPOINT@@K@Z
  0000a	64 a1 00 00 00
	00		 mov	 eax, DWORD PTR fs:0
  00010	50		 push	 eax
  00011	83 ec 2c	 sub	 esp, 44			; 0000002cH
  00014	a1 00 00 00 00	 mov	 eax, DWORD PTR ___security_cookie
  00019	33 c5		 xor	 eax, ebp
  0001b	89 45 f0	 mov	 DWORD PTR __$ArrayPad$[ebp], eax
  0001e	53		 push	 ebx
  0001f	56		 push	 esi
  00020	57		 push	 edi
  00021	50		 push	 eax
  00022	8d 45 f4	 lea	 eax, DWORD PTR __$EHRec$[ebp]
  00025	64 a3 00 00 00
	00		 mov	 DWORD PTR fs:0, eax
  0002b	8b f1		 mov	 esi, ecx

; 164  : 	// 1. 현재 실행해야될지 확인하고 실행해야 될 경우에만 실행한다.
; 165  : 	if( !m_bRun )

  0002d	83 7e 5c 00	 cmp	 DWORD PTR [esi+92], 0
  00031	8b 45 10	 mov	 eax, DWORD PTR _point$[ebp]
  00034	89 45 d4	 mov	 DWORD PTR _point$GSCopy$1$[ebp], eax
  00037	0f 84 fb 00 00
	00		 je	 $LN49@OnLButtonD

; 166  : 		return FALSE;
; 167  : 	
; 168  : 	// 2. Check Empty Chart!
; 169  : 	if( !m_pIChartOCX->IsUseToolScrollBar() || m_pIChartOCX->IsOnSpecialChart() || m_pIChartManager->IsEmpty())

  0003d	8b 4e 04	 mov	 ecx, DWORD PTR [esi+4]
  00040	8b 01		 mov	 eax, DWORD PTR [ecx]
  00042	ff 90 b0 00 00
	00		 call	 DWORD PTR [eax+176]
  00048	85 c0		 test	 eax, eax
  0004a	0f 84 e8 00 00
	00		 je	 $LN49@OnLButtonD
  00050	8b 4e 04	 mov	 ecx, DWORD PTR [esi+4]
  00053	8b 01		 mov	 eax, DWORD PTR [ecx]
  00055	ff 90 84 00 00
	00		 call	 DWORD PTR [eax+132]
  0005b	85 c0		 test	 eax, eax
  0005d	0f 85 d5 00 00
	00		 jne	 $LN49@OnLButtonD
  00063	8b 4e 1c	 mov	 ecx, DWORD PTR [esi+28]
  00066	8b 01		 mov	 eax, DWORD PTR [ecx]
  00068	ff 50 2c	 call	 DWORD PTR [eax+44]
  0006b	85 c0		 test	 eax, eax
  0006d	0f 85 c5 00 00
	00		 jne	 $LN49@OnLButtonD

; 174  : 	ILPCSTR szGraphName = m_pIChartManager->FindFirstIndicator( _MTEXT( C2_PRICE_CHART), nR, nC, m_nVertScaleGroupIndex, nG, "DEFAULT");

  00073	8b 4e 1c	 mov	 ecx, DWORD PTR [esi+28]
  00076	8d 45 c8	 lea	 eax, DWORD PTR _nG$[ebp]
  00079	68 00 00 00 00	 push	 OFFSET ??_C@_07MGCPDNLD@DEFAULT@
  0007e	50		 push	 eax
  0007f	8d 46 60	 lea	 eax, DWORD PTR [esi+96]
  00082	8b 11		 mov	 edx, DWORD PTR [ecx]
  00084	50		 push	 eax
  00085	8d 45 dc	 lea	 eax, DWORD PTR _nC$[ebp]
  00088	50		 push	 eax
  00089	8d 45 d8	 lea	 eax, DWORD PTR _nR$[ebp]
  0008c	50		 push	 eax
  0008d	a1 54 00 00 00	 mov	 eax, DWORD PTR ?g_iMetaTable@@3VIMetaTable@@A+84
  00092	ff b0 28 03 00
	00		 push	 DWORD PTR [eax+808]
  00098	ff 52 70	 call	 DWORD PTR [edx+112]
; File D:\git\src\IBK\IBK_DRFN\ProjSrc\SrcChartEx\ChartOCX\AddInManager\Include_AddIn\I000000\_IString.h

; 39   : 		m_pIStrData = p_pIString;	// Do not AddRef(). Because It must be Return Value.

  0009b	8b f8		 mov	 edi, eax
  0009d	89 7d d0	 mov	 DWORD PTR _szGraphName$[ebp+4], edi

; 40   : 		if( m_pIStrData) m_szData = m_pIStrData->GetData();

  000a0	85 ff		 test	 edi, edi
  000a2	74 09		 je	 SHORT $LN16@OnLButtonD
  000a4	8b 17		 mov	 edx, DWORD PTR [edi]
  000a6	8b cf		 mov	 ecx, edi
  000a8	ff 52 10	 call	 DWORD PTR [edx+16]
  000ab	eb 02		 jmp	 SHORT $LN51@OnLButtonD
$LN16@OnLButtonD:

; 41   : 		else m_szData = NULL;

  000ad	33 c0		 xor	 eax, eax
$LN51@OnLButtonD:
; File D:\git\src\IBK\IBK_DRFN\ProjSrc\SrcChartEx\ChartOCX\AddInManager\ChartCommonAddIn\DragYZoomAddInImp.cpp

; 174  : 	ILPCSTR szGraphName = m_pIChartManager->FindFirstIndicator( _MTEXT( C2_PRICE_CHART), nR, nC, m_nVertScaleGroupIndex, nG, "DEFAULT");

  000af	89 45 cc	 mov	 DWORD PTR _szGraphName$[ebp], eax
  000b2	c7 45 fc 00 00
	00 00		 mov	 DWORD PTR __$EHRec$[ebp+8], 0
; File D:\git\src\IBK\IBK_DRFN\ProjSrc\SrcChartEx\ChartOCX\AddInManager\Include_AddIn\I000000\_IString.h

; 57   : 		if( !m_szData) return TRUE;

  000b9	85 c0		 test	 eax, eax
  000bb	74 6a		 je	 SHORT $LN14@OnLButtonD
; File D:\git\src\IBK\IBK_DRFN\ProjSrc\SrcChartEx\ChartOCX\AddInManager\ChartCommonAddIn\DragYZoomAddInImp.cpp

; 175  : 	if( szGraphName.IsEmpty()) return FALSE;

  000bd	80 38 00	 cmp	 BYTE PTR [eax], 0
  000c0	74 65		 je	 SHORT $LN14@OnLButtonD

; 176  : 
; 177  : 	// 4. Block 정보를 얻어온다.
; 178  : 	IBlock *pIBlock = NULL;
; 179  : 	pIBlock = m_pIChartManager->GetBlock( nR, nC );

  000c2	8b 4e 1c	 mov	 ecx, DWORD PTR [esi+28]
  000c5	ff 75 dc	 push	 DWORD PTR _nC$[ebp]
  000c8	ff 75 d8	 push	 DWORD PTR _nR$[ebp]
  000cb	8b 01		 mov	 eax, DWORD PTR [ecx]
  000cd	ff 50 38	 call	 DWORD PTR [eax+56]
  000d0	8b d8		 mov	 ebx, eax

; 180  : 	if( !pIBlock )

  000d2	85 db		 test	 ebx, ebx
  000d4	74 51		 je	 SHORT $LN14@OnLButtonD

; 185  : 	pIBlock->GetGraphRegions(m_rcGraphRegion, rctNoFrameAndMargin);

  000d6	0f 57 c0	 xorps	 xmm0, xmm0
  000d9	8d 4d e0	 lea	 ecx, DWORD PTR _rctNoFrameAndMargin$[ebp]
; File C:\Program Files (x86)\Microsoft Visual Studio\2019\Community\VC\Tools\MSVC\14.29.30133\atlmfc\include\atltypes.h

; 528  : 	left = 0;

  000dc	0f 11 45 e0	 movups	 XMMWORD PTR _rctNoFrameAndMargin$[ebp], xmm0
; File D:\git\src\IBK\IBK_DRFN\ProjSrc\SrcChartEx\ChartOCX\AddInManager\ChartCommonAddIn\DragYZoomAddInImp.cpp

; 185  : 	pIBlock->GetGraphRegions(m_rcGraphRegion, rctNoFrameAndMargin);

  000e0	8b 13		 mov	 edx, DWORD PTR [ebx]
  000e2	8d 46 64	 lea	 eax, DWORD PTR [esi+100]
  000e5	51		 push	 ecx
  000e6	50		 push	 eax
  000e7	8b cb		 mov	 ecx, ebx
  000e9	ff 52 10	 call	 DWORD PTR [edx+16]
; File C:\Program Files (x86)\Microsoft Visual Studio\2019\Community\VC\Tools\MSVC\14.29.30133\atlmfc\include\atltypes.h

; 638  : 	return ::IsRectEmpty(this);

  000ec	8d 46 64	 lea	 eax, DWORD PTR [esi+100]
  000ef	50		 push	 eax
  000f0	ff 15 00 00 00
	00		 call	 DWORD PTR __imp__IsRectEmpty@4
; File D:\git\src\IBK\IBK_DRFN\ProjSrc\SrcChartEx\ChartOCX\AddInManager\ChartCommonAddIn\DragYZoomAddInImp.cpp

; 186  : 	if( m_rcGraphRegion.IsRectEmpty() )

  000f6	85 c0		 test	 eax, eax
  000f8	75 2d		 jne	 SHORT $LN14@OnLButtonD

; 187  : 		return FALSE;
; 188  : 
; 189  : 	pIBlock->Release();

  000fa	8b 03		 mov	 eax, DWORD PTR [ebx]
  000fc	53		 push	 ebx
  000fd	ff 50 08	 call	 DWORD PTR [eax+8]
; File C:\Program Files (x86)\Microsoft Visual Studio\2019\Community\VC\Tools\MSVC\14.29.30133\atlmfc\include\atltypes.h

; 648  : 	return ::PtInRect(this, point);

  00100	8b 5d d4	 mov	 ebx, DWORD PTR _point$GSCopy$1$[ebp]
  00103	8d 46 64	 lea	 eax, DWORD PTR [esi+100]
  00106	ff 73 04	 push	 DWORD PTR [ebx+4]
  00109	ff 33		 push	 DWORD PTR [ebx]
  0010b	50		 push	 eax
  0010c	ff 15 00 00 00
	00		 call	 DWORD PTR __imp__PtInRect@12
; File D:\git\src\IBK\IBK_DRFN\ProjSrc\SrcChartEx\ChartOCX\AddInManager\ChartCommonAddIn\DragYZoomAddInImp.cpp

; 192  : 	if( !m_rcGraphRegion.PtInRect(point) )

  00112	85 c0		 test	 eax, eax
  00114	74 11		 je	 SHORT $LN14@OnLButtonD

; 193  : 		return FALSE;
; 194  : 
; 195  : 	// 6. Manage Mouse Action ID for Serial Action.
; 196  : 	m_dwMouseActionID = p_dwMouseActionID;

  00116	8b 45 14	 mov	 eax, DWORD PTR _p_dwMouseActionID$[ebp]
  00119	89 46 58	 mov	 DWORD PTR [esi+88], eax
; File C:\Program Files (x86)\Microsoft Visual Studio\2019\Community\VC\Tools\MSVC\14.29.30133\atlmfc\include\atltypes.h

; 414  : 	*(POINT*)this = initPt;

  0011c	8b 03		 mov	 eax, DWORD PTR [ebx]
  0011e	8b 4b 04	 mov	 ecx, DWORD PTR [ebx+4]
; File D:\git\src\IBK\IBK_DRFN\ProjSrc\SrcChartEx\ChartOCX\AddInManager\ChartCommonAddIn\DragYZoomAddInImp.cpp

; 199  : 	m_ptStartDragDrop = point;

  00121	89 46 38	 mov	 DWORD PTR [esi+56], eax
  00124	89 4e 3c	 mov	 DWORD PTR [esi+60], ecx
$LN14@OnLButtonD:
; File D:\git\src\IBK\IBK_DRFN\ProjSrc\SrcChartEx\ChartOCX\AddInManager\Include_AddIn\I000000\_IString.h

; 44   : 	{

  00127	c7 45 fc 01 00
	00 00		 mov	 DWORD PTR __$EHRec$[ebp+8], 1

; 45   : 		if( m_pIStrData)

  0012e	85 ff		 test	 edi, edi
  00130	74 06		 je	 SHORT $LN49@OnLButtonD

; 46   : 		{
; 47   : 			m_pIStrData->Release();

  00132	8b 07		 mov	 eax, DWORD PTR [edi]
  00134	57		 push	 edi
  00135	ff 50 08	 call	 DWORD PTR [eax+8]
$LN49@OnLButtonD:
; File D:\git\src\IBK\IBK_DRFN\ProjSrc\SrcChartEx\ChartOCX\AddInManager\ChartCommonAddIn\DragYZoomAddInImp.cpp

; 202  : }

  00138	33 c0		 xor	 eax, eax
  0013a	8b 4d f4	 mov	 ecx, DWORD PTR __$EHRec$[ebp]
  0013d	64 89 0d 00 00
	00 00		 mov	 DWORD PTR fs:0, ecx
  00144	59		 pop	 ecx
  00145	5f		 pop	 edi
  00146	5e		 pop	 esi
  00147	5b		 pop	 ebx
  00148	8b 4d f0	 mov	 ecx, DWORD PTR __$ArrayPad$[ebp]
  0014b	33 cd		 xor	 ecx, ebp
  0014d	e8 00 00 00 00	 call	 @__security_check_cookie@4
  00152	8b e5		 mov	 esp, ebp
  00154	5d		 pop	 ebp
  00155	c2 10 00	 ret	 16			; 00000010H
_TEXT	ENDS
;	COMDAT text$x
text$x	SEGMENT
__unwindfunclet$?OnLButtonDown@CDragYZoomAddInImp@@MAEHPAUHDC__@@IAAUtagPOINT@@K@Z$0:
  00000	8d 4d cc	 lea	 ecx, DWORD PTR _szGraphName$[ebp]
  00003	e9 00 00 00 00	 jmp	 ??1ILPCSTR000000@@QAE@XZ ; ILPCSTR000000::~ILPCSTR000000
  00008	cc		 int	 3
  00009	cc		 int	 3
  0000a	cc		 int	 3
  0000b	cc		 int	 3
  0000c	cc		 int	 3
__ehhandler$?OnLButtonDown@CDragYZoomAddInImp@@MAEHPAUHDC__@@IAAUtagPOINT@@K@Z:
  0000d	90		 npad	 1
  0000e	90		 npad	 1
  0000f	8b 54 24 08	 mov	 edx, DWORD PTR [esp+8]
  00013	8d 42 0c	 lea	 eax, DWORD PTR [edx+12]
  00016	8b 4a c4	 mov	 ecx, DWORD PTR [edx-60]
  00019	33 c8		 xor	 ecx, eax
  0001b	e8 00 00 00 00	 call	 @__security_check_cookie@4
  00020	8b 4a fc	 mov	 ecx, DWORD PTR [edx-4]
  00023	33 c8		 xor	 ecx, eax
  00025	e8 00 00 00 00	 call	 @__security_check_cookie@4
  0002a	b8 00 00 00 00	 mov	 eax, OFFSET __ehfuncinfo$?OnLButtonDown@CDragYZoomAddInImp@@MAEHPAUHDC__@@IAAUtagPOINT@@K@Z
  0002f	e9 00 00 00 00	 jmp	 ___CxxFrameHandler3
text$x	ENDS
?OnLButtonDown@CDragYZoomAddInImp@@MAEHPAUHDC__@@IAAUtagPOINT@@K@Z ENDP ; CDragYZoomAddInImp::OnLButtonDown
; Function compile flags: /Ogtp
; File D:\git\src\IBK\IBK_DRFN\ProjSrc\SrcChartEx\ChartOCX\AddInManager\ChartCommonAddIn\DragYZoomAddInImp.cpp
; File C:\Program Files (x86)\Microsoft Visual Studio\2019\Community\VC\Tools\MSVC\14.29.30133\atlmfc\include\atltypes.h
; File D:\git\src\IBK\IBK_DRFN\ProjSrc\SrcChartEx\ChartOCX\AddInManager\ChartCommonAddIn\DragYZoomAddInImp.cpp
; File C:\Program Files (x86)\Microsoft Visual Studio\2019\Community\VC\Tools\MSVC\14.29.30133\atlmfc\include\atltypes.h
; File D:\git\src\IBK\IBK_DRFN\ProjSrc\SrcChartEx\ChartOCX\AddInManager\ChartCommonAddIn\DragYZoomAddInImp.cpp
; File C:\Program Files (x86)\Microsoft Visual Studio\2019\Community\VC\Tools\MSVC\14.29.30133\atlmfc\include\atltypes.h
; File D:\git\src\IBK\IBK_DRFN\ProjSrc\SrcChartEx\ChartOCX\AddInManager\ChartCommonAddIn\DragYZoomAddInImp.cpp
; File C:\Program Files (x86)\Microsoft Visual Studio\2019\Community\VC\Tools\MSVC\14.29.30133\atlmfc\include\afxwin2.inl
; File D:\git\src\IBK\IBK_DRFN\ProjSrc\SrcChartEx\ChartOCX\AddInManager\ChartCommonAddIn\DragYZoomAddInImp.cpp
; File C:\Program Files (x86)\Microsoft Visual Studio\2019\Community\VC\Tools\MSVC\14.29.30133\atlmfc\include\afxwin2.inl
; File D:\git\src\IBK\IBK_DRFN\ProjSrc\SrcChartEx\ChartOCX\AddInManager\ChartCommonAddIn\DragYZoomAddInImp.cpp
;	COMDAT ?OnMouseMove@CDragYZoomAddInImp@@MAEHPAUHDC__@@IAAUtagPOINT@@KQAUHBITMAP__@@@Z
_TEXT	SEGMENT
_p_hDC$ = 8						; size = 4
_nFlags$ = 12						; size = 4
_point$ = 16						; size = 4
_p_dwMouseActionID$ = 20				; size = 4
_p_hbmpMainOSB$ = 24					; size = 4
?OnMouseMove@CDragYZoomAddInImp@@MAEHPAUHDC__@@IAAUtagPOINT@@KQAUHBITMAP__@@@Z PROC ; CDragYZoomAddInImp::OnMouseMove, COMDAT
; _this$ = ecx

; 216  : {

  00000	55		 push	 ebp
  00001	8b ec		 mov	 ebp, esp
  00003	53		 push	 ebx
  00004	56		 push	 esi
  00005	8b f1		 mov	 esi, ecx
  00007	57		 push	 edi

; 217  : 	// 1. 현재 실행해야될지 확인하고 실행해야 될 경우에만 실행한다.
; 218  : 	if( !m_bRun )

  00008	83 7e 5c 00	 cmp	 DWORD PTR [esi+92], 0
  0000c	0f 84 d1 00 00
	00		 je	 $LN28@OnMouseMov

; 219  : 		return FALSE;
; 220  : 
; 221  : 	// 2. DC를 얻어온다.
; 222  : 	CDC *pDC = CDC::FromHandle( p_hDC);

  00012	ff 75 08	 push	 DWORD PTR _p_hDC$[ebp]
  00015	e8 00 00 00 00	 call	 ?FromHandle@CDC@@SGPAV1@PAUHDC__@@@Z ; CDC::FromHandle
  0001a	8b d8		 mov	 ebx, eax

; 223  : 	if( !pDC) return FALSE;

  0001c	85 db		 test	 ebx, ebx
  0001e	0f 84 bf 00 00
	00		 je	 $LN28@OnMouseMov

; 224  : 
; 225  : 	// 3. Manage Mouse Action ID for Serial Action.
; 226  : 	if( !m_pIAddInToolMgr->IsLButtonExclusive( m_pIAddInDllBase))

  00024	8b 4e 24	 mov	 ecx, DWORD PTR [esi+36]
  00027	ff 76 10	 push	 DWORD PTR [esi+16]
  0002a	8b 11		 mov	 edx, DWORD PTR [ecx]
  0002c	ff 52 34	 call	 DWORD PTR [edx+52]
  0002f	85 c0		 test	 eax, eax
  00031	75 2b		 jne	 SHORT $LN27@OnMouseMov

; 227  : 	{
; 228  : 		if( p_dwMouseActionID != m_dwMouseActionID)

  00033	8b 45 14	 mov	 eax, DWORD PTR _p_dwMouseActionID$[ebp]
  00036	3b 46 58	 cmp	 eax, DWORD PTR [esi+88]
  00039	0f 85 a4 00 00
	00		 jne	 $LN28@OnMouseMov

; 229  : 			return FALSE;
; 230  : 		
; 231  : 		if( !m_pIAddInToolMgr->GetLButtonExclusive( m_pIAddInDllBase))

  0003f	8b 4e 24	 mov	 ecx, DWORD PTR [esi+36]
  00042	ff 76 10	 push	 DWORD PTR [esi+16]
  00045	8b 01		 mov	 eax, DWORD PTR [ecx]
  00047	ff 50 30	 call	 DWORD PTR [eax+48]
  0004a	85 c0		 test	 eax, eax
  0004c	0f 84 91 00 00
	00		 je	 $LN28@OnMouseMov

; 232  : 			return FALSE;
; 233  : 		
; 234  : 		m_ptCurrDragDrop = m_ptStartDragDrop;

  00052	8b 46 38	 mov	 eax, DWORD PTR [esi+56]
  00055	8b 4e 3c	 mov	 ecx, DWORD PTR [esi+60]
  00058	89 46 40	 mov	 DWORD PTR [esi+64], eax
  0005b	89 4e 44	 mov	 DWORD PTR [esi+68], ecx
$LN27@OnMouseMov:

; 235  : 	}
; 236  : 
; 237  : 	// 4. GraphRegion이 넘어서면 영역을 GraphRegion으로 제한한다.
; 238  : 	if( m_rcGraphRegion.top >= point.y )

  0005e	8b 7d 10	 mov	 edi, DWORD PTR _point$[ebp]
  00061	8b 4e 68	 mov	 ecx, DWORD PTR [esi+104]
  00064	8b 47 04	 mov	 eax, DWORD PTR [edi+4]
  00067	3b c8		 cmp	 ecx, eax
  00069	7c 05		 jl	 SHORT $LN7@OnMouseMov

; 239  : 		point.y = m_rcGraphRegion.top;

  0006b	89 4f 04	 mov	 DWORD PTR [edi+4], ecx
  0006e	8b c1		 mov	 eax, ecx
$LN7@OnMouseMov:

; 240  : 
; 241  : 	if( m_rcGraphRegion.bottom <= point.y )

  00070	8b 4e 70	 mov	 ecx, DWORD PTR [esi+112]
  00073	3b c8		 cmp	 ecx, eax
  00075	7f 03		 jg	 SHORT $LN8@OnMouseMov

; 242  : 		point.y = m_rcGraphRegion.bottom;

  00077	89 4f 04	 mov	 DWORD PTR [edi+4], ecx
$LN8@OnMouseMov:

; 243  : 
; 244  : 	// 5. 현재의 point가 Drag를 시작했던 point와 같으면 return한다.
; 245  : 	if( m_ptStartDragDrop == point )

  0007a	8b 17		 mov	 edx, DWORD PTR [edi]
  0007c	8b 4f 04	 mov	 ecx, DWORD PTR [edi+4]
; File C:\Program Files (x86)\Microsoft Visual Studio\2019\Community\VC\Tools\MSVC\14.29.30133\atlmfc\include\atltypes.h

; 458  : 	return (x == point.x && y == point.y);

  0007f	39 56 38	 cmp	 DWORD PTR [esi+56], edx
  00082	75 05		 jne	 SHORT $LN9@OnMouseMov
  00084	39 4e 3c	 cmp	 DWORD PTR [esi+60], ecx
  00087	74 4e		 je	 SHORT $LN11@OnMouseMov
$LN9@OnMouseMov:
; File D:\git\src\IBK\IBK_DRFN\ProjSrc\SrcChartEx\ChartOCX\AddInManager\ChartCommonAddIn\DragYZoomAddInImp.cpp

; 249  : 	DrawDragRect( pDC, m_ptStartDragDrop, m_ptCurrDragDrop, point, 4 );

  00089	6a 01		 push	 1
  0008b	6a 04		 push	 4
  0008d	83 ec 08	 sub	 esp, 8
  00090	8b c4		 mov	 eax, esp
; File C:\Program Files (x86)\Microsoft Visual Studio\2019\Community\VC\Tools\MSVC\14.29.30133\atlmfc\include\atltypes.h

; 414  : 	*(POINT*)this = initPt;

  00092	89 48 04	 mov	 DWORD PTR [eax+4], ecx
; File D:\git\src\IBK\IBK_DRFN\ProjSrc\SrcChartEx\ChartOCX\AddInManager\ChartCommonAddIn\DragYZoomAddInImp.cpp

; 249  : 	DrawDragRect( pDC, m_ptStartDragDrop, m_ptCurrDragDrop, point, 4 );

  00095	8d 4e f8	 lea	 ecx, DWORD PTR [esi-8]
; File C:\Program Files (x86)\Microsoft Visual Studio\2019\Community\VC\Tools\MSVC\14.29.30133\atlmfc\include\atltypes.h

; 414  : 	*(POINT*)this = initPt;

  00098	89 10		 mov	 DWORD PTR [eax], edx
; File D:\git\src\IBK\IBK_DRFN\ProjSrc\SrcChartEx\ChartOCX\AddInManager\ChartCommonAddIn\DragYZoomAddInImp.cpp

; 249  : 	DrawDragRect( pDC, m_ptStartDragDrop, m_ptCurrDragDrop, point, 4 );

  0009a	ff 76 44	 push	 DWORD PTR [esi+68]
  0009d	ff 76 40	 push	 DWORD PTR [esi+64]
  000a0	ff 76 3c	 push	 DWORD PTR [esi+60]
  000a3	ff 76 38	 push	 DWORD PTR [esi+56]
  000a6	53		 push	 ebx
  000a7	e8 00 00 00 00	 call	 ?DrawDragRect@CDragYZoomAddInImp@@IAEHPAVCDC@@VCPoint@@11HH@Z ; CDragYZoomAddInImp::DrawDragRect

; 250  : 	
; 251  : 	// 7. 현재의 point를 저장한다.
; 252  : 	m_ptCurrDragDrop = point;

  000ac	8b 07		 mov	 eax, DWORD PTR [edi]
  000ae	8b 4f 04	 mov	 ecx, DWORD PTR [edi+4]
  000b1	89 46 40	 mov	 DWORD PTR [esi+64], eax

; 253  : 	
; 254  : 	// 8. 현재의 MousePoint에 따라 Cursor의 모양을 변경한다.
; 255  : 	if( m_ptStartDragDrop.x > point.x)	

  000b4	8b 46 38	 mov	 eax, DWORD PTR [esi+56]
  000b7	89 4e 44	 mov	 DWORD PTR [esi+68], ecx
  000ba	8b 4e 08	 mov	 ecx, DWORD PTR [esi+8]
  000bd	6a 00		 push	 0
  000bf	3b 07		 cmp	 eax, DWORD PTR [edi]
  000c1	7e 04		 jle	 SHORT $LN10@OnMouseMov
; File C:\Program Files (x86)\Microsoft Visual Studio\2019\Community\VC\Tools\MSVC\14.29.30133\atlmfc\include\afxwin2.inl

; 32   : 	{ ASSERT(::IsWindow(m_hWnd)); return ::SendMessage(m_hWnd, message, wParam, lParam); }

  000c3	6a 0c		 push	 12			; 0000000cH
; File D:\git\src\IBK\IBK_DRFN\ProjSrc\SrcChartEx\ChartOCX\AddInManager\ChartCommonAddIn\DragYZoomAddInImp.cpp

; 259  : 	}

  000c5	eb 02		 jmp	 SHORT $LN29@OnMouseMov
$LN10@OnMouseMov:
; File C:\Program Files (x86)\Microsoft Visual Studio\2019\Community\VC\Tools\MSVC\14.29.30133\atlmfc\include\afxwin2.inl

; 32   : 	{ ASSERT(::IsWindow(m_hWnd)); return ::SendMessage(m_hWnd, message, wParam, lParam); }

  000c7	6a 0b		 push	 11			; 0000000bH
$LN29@OnMouseMov:
; File D:\git\src\IBK\IBK_DRFN\ProjSrc\SrcChartEx\ChartOCX\AddInManager\ChartCommonAddIn\DragYZoomAddInImp.cpp

; 267  : 	return TRUE;

  000c9	68 09 06 00 00	 push	 1545			; 00000609H
  000ce	ff 71 20	 push	 DWORD PTR [ecx+32]
  000d1	ff 15 00 00 00
	00		 call	 DWORD PTR __imp__SendMessageA@16
$LN11@OnMouseMov:
  000d7	b8 01 00 00 00	 mov	 eax, 1

; 268  : }

  000dc	5f		 pop	 edi
  000dd	5e		 pop	 esi
  000de	5b		 pop	 ebx
  000df	5d		 pop	 ebp
  000e0	c2 14 00	 ret	 20			; 00000014H
$LN28@OnMouseMov:
  000e3	5f		 pop	 edi
  000e4	5e		 pop	 esi
  000e5	33 c0		 xor	 eax, eax
  000e7	5b		 pop	 ebx
  000e8	5d		 pop	 ebp
  000e9	c2 14 00	 ret	 20			; 00000014H
?OnMouseMove@CDragYZoomAddInImp@@MAEHPAUHDC__@@IAAUtagPOINT@@KQAUHBITMAP__@@@Z ENDP ; CDragYZoomAddInImp::OnMouseMove
_TEXT	ENDS
; Function compile flags: /Ogtp
; File D:\git\src\IBK\IBK_DRFN\ProjSrc\SrcChartEx\ChartOCX\AddInManager\ChartCommonAddIn\DragYZoomAddInImp.cpp
;	COMDAT ?OnToolCommand@CDragYZoomAddInImp@@MAEXHH@Z
_TEXT	SEGMENT
_p_nToolType$ = 8					; size = 4
_p_nCmdOption$ = 12					; size = 4
?OnToolCommand@CDragYZoomAddInImp@@MAEXHH@Z PROC	; CDragYZoomAddInImp::OnToolCommand, COMDAT
; _this$ = ecx

; 58   : {

  00000	55		 push	 ebp
  00001	8b ec		 mov	 ebp, esp

; 59   : 	CToolOptionInfo::TOOLOPTION eToolOption = (CToolOptionInfo::TOOLOPTION)p_nToolType;
; 60   : 
; 61   : 	// 1. 모든 Tool을 삭제하라는 Message를 받으면 List를 초기화한다.
; 62   : 	if( eToolOption == CToolOptionInfo::T_DRAG_X_ZOOM || eToolOption == CToolOptionInfo::T_PAN )

  00003	8b 45 08	 mov	 eax, DWORD PTR _p_nToolType$[ebp]
  00006	83 f8 6a	 cmp	 eax, 106		; 0000006aH
  00009	74 1f		 je	 SHORT $LN4@OnToolComm
  0000b	83 f8 6c	 cmp	 eax, 108		; 0000006cH
  0000e	74 1a		 je	 SHORT $LN4@OnToolComm

; 64   : 
; 65   : 	else if( eToolOption == CToolOptionInfo::T_DRAG_Y_ZOOM )

  00010	83 f8 6b	 cmp	 eax, 107		; 0000006bH
  00013	75 05		 jne	 SHORT $LN5@OnToolComm

; 66   : 		m_bRun = TRUE;

  00015	8d 50 96	 lea	 edx, DWORD PTR [eax-106]
  00018	eb 12		 jmp	 SHORT $LN8@OnToolComm
$LN5@OnToolComm:

; 67   : 	// 2008.10.15 by LYH >> 패닝
; 68   : 	else if( eToolOption == CToolOptionInfo::T_TOOL_SELECTION)

  0001a	83 f8 20	 cmp	 eax, 32			; 00000020H
  0001d	75 07		 jne	 SHORT $LN1@OnToolComm

; 69   : 	{
; 70   : 		m_bRun = FALSE;

  0001f	c7 41 5c 00 00
	00 00		 mov	 DWORD PTR [ecx+92], 0
$LN1@OnToolComm:

; 78   : }

  00026	5d		 pop	 ebp
  00027	c2 08 00	 ret	 8
$LN4@OnToolComm:

; 63   : 		m_bRun = FALSE;

  0002a	33 d2		 xor	 edx, edx
$LN8@OnToolComm:

; 71   : 		return;
; 72   : 	}
; 73   : 	// 2008.10.15 by LYH <<
; 74   : 	else
; 75   : 		return;
; 76   : 
; 77   : 	m_pIChartOCX->OnToolStateChanged( CToolOptionInfo::T_DRAG_Y_ZOOM, m_bRun);

  0002c	89 51 5c	 mov	 DWORD PTR [ecx+92], edx
  0002f	8b 49 04	 mov	 ecx, DWORD PTR [ecx+4]
  00032	89 55 0c	 mov	 DWORD PTR _p_nCmdOption$[ebp], edx
  00035	c7 45 08 6b 00
	00 00		 mov	 DWORD PTR _p_nToolType$[ebp], 107 ; 0000006bH
  0003c	8b 01		 mov	 eax, DWORD PTR [ecx]

; 78   : }

  0003e	5d		 pop	 ebp

; 71   : 		return;
; 72   : 	}
; 73   : 	// 2008.10.15 by LYH <<
; 74   : 	else
; 75   : 		return;
; 76   : 
; 77   : 	m_pIChartOCX->OnToolStateChanged( CToolOptionInfo::T_DRAG_Y_ZOOM, m_bRun);

  0003f	ff a0 b0 01 00
	00		 jmp	 DWORD PTR [eax+432]
?OnToolCommand@CDragYZoomAddInImp@@MAEXHH@Z ENDP	; CDragYZoomAddInImp::OnToolCommand
_TEXT	ENDS
; Function compile flags: /Ogtp
; File D:\git\src\IBK\IBK_DRFN\ProjSrc\SrcChartEx\ChartOCX\AddInManager\ChartCommonAddIn\DragYZoomAddInImp.cpp
; File C:\Program Files (x86)\Microsoft Visual Studio\2019\Community\VC\Tools\MSVC\14.29.30133\atlmfc\include\atltypes.h
; File D:\git\src\IBK\IBK_DRFN\ProjSrc\SrcChartEx\ChartOCX\AddInManager\ChartCommonAddIn\DragYZoomAddInImp.cpp
;	COMDAT ?OnDrawAfterGraph@CDragYZoomAddInImp@@MAEXPAUHDC__@@@Z
_TEXT	SEGMENT
_p_hDC$ = 8						; size = 4
?OnDrawAfterGraph@CDragYZoomAddInImp@@MAEXPAUHDC__@@@Z PROC ; CDragYZoomAddInImp::OnDrawAfterGraph, COMDAT
; _this$ = ecx

; 88   : {

  00000	55		 push	 ebp
  00001	8b ec		 mov	 ebp, esp
  00003	56		 push	 esi
  00004	8b f1		 mov	 esi, ecx

; 89   : 	// 1. 현재 실행해야될지 확인하고 실행해야 될 경우에만 실행한다.
; 90   : 	if( !m_bRun )

  00006	83 7e 5c 00	 cmp	 DWORD PTR [esi+92], 0
  0000a	74 31		 je	 SHORT $LN4@OnDrawAfte

; 91   : 		return;
; 92   : 
; 93   : 	// 2. DC를 얻어온다.
; 94   : 	CDC *pDC = CDC::FromHandle( p_hDC);

  0000c	ff 75 08	 push	 DWORD PTR _p_hDC$[ebp]
  0000f	e8 00 00 00 00	 call	 ?FromHandle@CDC@@SGPAV1@PAUHDC__@@@Z ; CDC::FromHandle
  00014	8b c8		 mov	 ecx, eax

; 95   : 	if( !pDC ) return;

  00016	85 c9		 test	 ecx, ecx
  00018	74 23		 je	 SHORT $LN4@OnDrawAfte
; File C:\Program Files (x86)\Microsoft Visual Studio\2019\Community\VC\Tools\MSVC\14.29.30133\atlmfc\include\atltypes.h

; 463  : 	return (x != point.x || y != point.y);

  0001a	83 7e 38 ff	 cmp	 DWORD PTR [esi+56], -1
  0001e	75 06		 jne	 SHORT $LN10@OnDrawAfte
  00020	83 7e 3c ff	 cmp	 DWORD PTR [esi+60], -1
  00024	74 17		 je	 SHORT $LN4@OnDrawAfte
$LN10@OnDrawAfte:
; File D:\git\src\IBK\IBK_DRFN\ProjSrc\SrcChartEx\ChartOCX\AddInManager\ChartCommonAddIn\DragYZoomAddInImp.cpp

; 99   : 		pDC->DrawDragRect( m_rcPrevDrag, CSize( 4, 4), NULL, CSize( 4, 4));

  00026	6a 00		 push	 0
  00028	6a 00		 push	 0
  0002a	6a 04		 push	 4
  0002c	6a 04		 push	 4
  0002e	6a 00		 push	 0
  00030	6a 04		 push	 4
  00032	6a 04		 push	 4
  00034	8d 46 48	 lea	 eax, DWORD PTR [esi+72]
  00037	50		 push	 eax
  00038	e8 00 00 00 00	 call	 ?DrawDragRect@CDC@@QAEXPBUtagRECT@@UtagSIZE@@01PAVCBrush@@2@Z ; CDC::DrawDragRect
$LN4@OnDrawAfte:
  0003d	5e		 pop	 esi

; 100  : }

  0003e	5d		 pop	 ebp
  0003f	c2 04 00	 ret	 4
?OnDrawAfterGraph@CDragYZoomAddInImp@@MAEXPAUHDC__@@@Z ENDP ; CDragYZoomAddInImp::OnDrawAfterGraph
_TEXT	ENDS
; Function compile flags: /Ogtp
; File D:\git\src\IBK\IBK_DRFN\ProjSrc\SrcChartEx\ChartOCX\AddInManager\ChartCommonAddIn\DragYZoomAddInImp.cpp
; File C:\Program Files (x86)\Microsoft Visual Studio\2019\Community\VC\Tools\MSVC\14.29.30133\atlmfc\include\atltypes.h
; File D:\git\src\IBK\IBK_DRFN\ProjSrc\SrcChartEx\ChartOCX\AddInManager\ChartCommonAddIn\DragYZoomAddInImp.cpp
; File C:\Program Files (x86)\Microsoft Visual Studio\2019\Community\VC\Tools\MSVC\14.29.30133\atlmfc\include\atltypes.h
; File D:\git\src\IBK\IBK_DRFN\ProjSrc\SrcChartEx\ChartOCX\AddInManager\ChartCommonAddIn\DragYZoomAddInImp.cpp
; File C:\Program Files (x86)\Microsoft Visual Studio\2019\Community\VC\Tools\MSVC\14.29.30133\atlmfc\include\atltypes.h
; File D:\git\src\IBK\IBK_DRFN\ProjSrc\SrcChartEx\ChartOCX\AddInManager\ChartCommonAddIn\DragYZoomAddInImp.cpp
; File C:\Program Files (x86)\Microsoft Visual Studio\2019\Community\VC\Tools\MSVC\14.29.30133\atlmfc\include\atltypes.h
; File D:\git\src\IBK\IBK_DRFN\ProjSrc\SrcChartEx\ChartOCX\AddInManager\ChartCommonAddIn\DragYZoomAddInImp.cpp
; File C:\Program Files (x86)\Microsoft Visual Studio\2019\Community\VC\Tools\MSVC\14.29.30133\atlmfc\include\atltypes.h
; File D:\git\src\IBK\IBK_DRFN\ProjSrc\SrcChartEx\ChartOCX\AddInManager\ChartCommonAddIn\DragYZoomAddInImp.cpp
;	COMDAT ?DrawDragRect@CDragYZoomAddInImp@@IAEHPAVCDC@@VCPoint@@11HH@Z
_TEXT	SEGMENT
$T7 = -52						; size = 16
_rc$ = -36						; size = 16
_rcCurr$ = -20						; size = 16
__$ArrayPad$ = -4					; size = 4
_pdc$ = 8						; size = 4
_ptFirst$ = 12						; size = 8
_ptPrev$ = 20						; size = 8
_ptCurr$ = 28						; size = 8
_nWeight$ = 36						; size = 4
_bMouseMove$ = 40					; size = 4
?DrawDragRect@CDragYZoomAddInImp@@IAEHPAVCDC@@VCPoint@@11HH@Z PROC ; CDragYZoomAddInImp::DrawDragRect, COMDAT
; _this$ = ecx

; 115  : {

  00000	55		 push	 ebp
  00001	8b ec		 mov	 ebp, esp
  00003	83 ec 34	 sub	 esp, 52			; 00000034H
  00006	a1 00 00 00 00	 mov	 eax, DWORD PTR ___security_cookie
  0000b	33 c5		 xor	 eax, ebp
  0000d	89 45 fc	 mov	 DWORD PTR __$ArrayPad$[ebp], eax
; File C:\Program Files (x86)\Microsoft Visual Studio\2019\Community\VC\Tools\MSVC\14.29.30133\atlmfc\include\atltypes.h

; 458  : 	return (x == point.x && y == point.y);

  00010	83 7d 0c ff	 cmp	 DWORD PTR _ptFirst$[ebp], -1
  00014	8b 55 10	 mov	 edx, DWORD PTR _ptFirst$[ebp+4]
; File D:\git\src\IBK\IBK_DRFN\ProjSrc\SrcChartEx\ChartOCX\AddInManager\ChartCommonAddIn\DragYZoomAddInImp.cpp

; 115  : {

  00017	56		 push	 esi
  00018	57		 push	 edi
  00019	8b 7d 08	 mov	 edi, DWORD PTR _pdc$[ebp]
  0001c	8b f1		 mov	 esi, ecx
; File C:\Program Files (x86)\Microsoft Visual Studio\2019\Community\VC\Tools\MSVC\14.29.30133\atlmfc\include\atltypes.h

; 458  : 	return (x == point.x && y == point.y);

  0001e	75 05		 jne	 SHORT $LN10@DrawDragRe
  00020	83 fa ff	 cmp	 edx, -1
  00023	74 0c		 je	 SHORT $LN3@DrawDragRe
$LN10@DrawDragRe:
  00025	83 7d 14 ff	 cmp	 DWORD PTR _ptPrev$[ebp], -1
  00029	75 1a		 jne	 SHORT $LN16@DrawDragRe
  0002b	83 7d 18 ff	 cmp	 DWORD PTR _ptPrev$[ebp+4], -1
  0002f	75 14		 jne	 SHORT $LN16@DrawDragRe
$LN3@DrawDragRe:
  00031	5f		 pop	 edi
; File D:\git\src\IBK\IBK_DRFN\ProjSrc\SrcChartEx\ChartOCX\AddInManager\ChartCommonAddIn\DragYZoomAddInImp.cpp

; 118  : 		 return FALSE;

  00032	33 c0		 xor	 eax, eax

; 143  : 
; 144  : 	return TRUE;
; 145  : }

  00034	5e		 pop	 esi
  00035	8b 4d fc	 mov	 ecx, DWORD PTR __$ArrayPad$[ebp]
  00038	33 cd		 xor	 ecx, ebp
  0003a	e8 00 00 00 00	 call	 @__security_check_cookie@4
  0003f	8b e5		 mov	 esp, ebp
  00041	5d		 pop	 ebp
  00042	c2 24 00	 ret	 36			; 00000024H
$LN16@DrawDragRe:

; 119  : 
; 120  : 	// 2. 제대로 된 사각형 만들기
; 121  : 	CPoint ptStart, ptEnd;
; 122  : 	ptStart.x = ( ptFirst.x < ptCurr.x ) ? ptFirst.x : ptCurr.x;
; 123  : 	ptStart.y = ( ptFirst.y < ptCurr.y ) ? ptFirst.y : ptCurr.y;

  00045	8b 4d 20	 mov	 ecx, DWORD PTR _ptCurr$[ebp+4]
  00048	3b d1		 cmp	 edx, ecx
  0004a	8b c1		 mov	 eax, ecx

; 124  : 	ptEnd.x = ( ptFirst.x > ptCurr.x ) ? ptFirst.x : ptCurr.x;
; 125  : 	ptEnd.y = ( ptFirst.y > ptCurr.y ) ? ptFirst.y : ptCurr.y;

  0004c	0f 4f ca	 cmovg	 ecx, edx
  0004f	0f 4c c2	 cmovl	 eax, edx
; File C:\Program Files (x86)\Microsoft Visual Studio\2019\Community\VC\Tools\MSVC\14.29.30133\atlmfc\include\atltypes.h

; 571  : 	bottom = bottomRight.y;

  00052	89 4d f8	 mov	 DWORD PTR _rcCurr$[ebp+12], ecx
; File D:\git\src\IBK\IBK_DRFN\ProjSrc\SrcChartEx\ChartOCX\AddInManager\ChartCommonAddIn\DragYZoomAddInImp.cpp

; 129  : 	CRect rc = m_pIChartOCX->GetOcxRegion();

  00055	8d 55 cc	 lea	 edx, DWORD PTR $T7[ebp]
  00058	8b 4e 0c	 mov	 ecx, DWORD PTR [esi+12]
; File C:\Program Files (x86)\Microsoft Visual Studio\2019\Community\VC\Tools\MSVC\14.29.30133\atlmfc\include\atltypes.h

; 569  : 	top = topLeft.y;

  0005b	89 45 f0	 mov	 DWORD PTR _rcCurr$[ebp+4], eax
; File D:\git\src\IBK\IBK_DRFN\ProjSrc\SrcChartEx\ChartOCX\AddInManager\ChartCommonAddIn\DragYZoomAddInImp.cpp

; 129  : 	CRect rc = m_pIChartOCX->GetOcxRegion();

  0005e	52		 push	 edx
  0005f	8b 01		 mov	 eax, DWORD PTR [ecx]
  00061	ff 90 ac 00 00
	00		 call	 DWORD PTR [eax+172]
; File C:\Program Files (x86)\Microsoft Visual Studio\2019\Community\VC\Tools\MSVC\14.29.30133\atlmfc\include\atltypes.h

; 548  : 	::CopyRect(this, &srcRect);

  00067	50		 push	 eax
  00068	8d 45 dc	 lea	 eax, DWORD PTR _rc$[ebp]
  0006b	50		 push	 eax
  0006c	ff 15 00 00 00
	00		 call	 DWORD PTR __imp__CopyRect@8
; File D:\git\src\IBK\IBK_DRFN\ProjSrc\SrcChartEx\ChartOCX\AddInManager\ChartCommonAddIn\DragYZoomAddInImp.cpp

; 134  : 	if( bMouseMove == FALSE )

  00072	83 7d 28 00	 cmp	 DWORD PTR _bMouseMove$[ebp], 0
  00076	8b 45 dc	 mov	 eax, DWORD PTR _rc$[ebp]
  00079	89 45 ec	 mov	 DWORD PTR _rcCurr$[ebp], eax
  0007c	8b 45 e4	 mov	 eax, DWORD PTR _rc$[ebp+8]
  0007f	89 45 f4	 mov	 DWORD PTR _rcCurr$[ebp+8], eax
  00082	75 07		 jne	 SHORT $LN4@DrawDragRe

; 135  : 		rcCurr = CRect(0,0,0,0);

  00084	0f 57 c0	 xorps	 xmm0, xmm0
  00087	0f 11 45 ec	 movups	 XMMWORD PTR _rcCurr$[ebp], xmm0
$LN4@DrawDragRe:

; 136  : 	
; 137  : 	// 5. Rect를 그려준다.
; 138  : 	SIZE size;
; 139  : 	size.cx = nWeight; size.cy = nWeight;

  0008b	8b 45 24	 mov	 eax, DWORD PTR _nWeight$[ebp]

; 140  : 	pdc->DrawDragRect(rcCurr, size, m_rcPrevDrag, size);

  0008e	83 c6 50	 add	 esi, 80			; 00000050H
  00091	6a 00		 push	 0
  00093	6a 00		 push	 0
  00095	50		 push	 eax
  00096	50		 push	 eax
  00097	56		 push	 esi
  00098	50		 push	 eax
  00099	50		 push	 eax
  0009a	8d 45 ec	 lea	 eax, DWORD PTR _rcCurr$[ebp]
  0009d	8b cf		 mov	 ecx, edi
  0009f	50		 push	 eax
  000a0	e8 00 00 00 00	 call	 ?DrawDragRect@CDC@@QAEXPBUtagRECT@@UtagSIZE@@01PAVCBrush@@2@Z ; CDC::DrawDragRect

; 141  : 	
; 142  : 	m_rcPrevDrag = rcCurr;

  000a5	0f 10 45 ec	 movups	 xmm0, XMMWORD PTR _rcCurr$[ebp]

; 143  : 
; 144  : 	return TRUE;
; 145  : }

  000a9	8b 4d fc	 mov	 ecx, DWORD PTR __$ArrayPad$[ebp]
  000ac	b8 01 00 00 00	 mov	 eax, 1
  000b1	5f		 pop	 edi
  000b2	0f 11 06	 movups	 XMMWORD PTR [esi], xmm0
  000b5	33 cd		 xor	 ecx, ebp
  000b7	5e		 pop	 esi
  000b8	e8 00 00 00 00	 call	 @__security_check_cookie@4
  000bd	8b e5		 mov	 esp, ebp
  000bf	5d		 pop	 ebp
  000c0	c2 24 00	 ret	 36			; 00000024H
?DrawDragRect@CDragYZoomAddInImp@@IAEHPAVCDC@@VCPoint@@11HH@Z ENDP ; CDragYZoomAddInImp::DrawDragRect
_TEXT	ENDS
; Function compile flags: /Ogtp
; File D:\git\src\IBK\IBK_DRFN\ProjSrc\SrcChartEx\ChartOCX\AddInManager\ChartCommonAddIn\DragYZoomAddInImp.h
;	COMDAT ?GetRegisteredEventMap@CDragYZoomAddInImp@@MBEPBW4EAddInEventType@IChartAddIn000000@@XZ
_TEXT	SEGMENT
?GetRegisteredEventMap@CDragYZoomAddInImp@@MBEPBW4EAddInEventType@IChartAddIn000000@@XZ PROC ; CDragYZoomAddInImp::GetRegisteredEventMap, COMDAT
; _this$ = ecx

; 29   : 	DECLARE_ADDIN_EVENT_MAP()

  00000	b8 00 00 00 00	 mov	 eax, OFFSET ?m_eRegisteredEventMap@CDragYZoomAddInImp@@1QBW4EAddInEventType@IChartAddIn000000@@B ; CDragYZoomAddInImp::m_eRegisteredEventMap
  00005	c3		 ret	 0
?GetRegisteredEventMap@CDragYZoomAddInImp@@MBEPBW4EAddInEventType@IChartAddIn000000@@XZ ENDP ; CDragYZoomAddInImp::GetRegisteredEventMap
_TEXT	ENDS
; Function compile flags: /Ogtp
; File D:\git\src\IBK\IBK_DRFN\ProjSrc\SrcChartEx\ChartOCX\AddInManager\ChartCommonAddIn\DragYZoomAddInImp.cpp
;	COMDAT ??1CDragYZoomAddInImp@@UAE@XZ
_TEXT	SEGMENT
??1CDragYZoomAddInImp@@UAE@XZ PROC			; CDragYZoomAddInImp::~CDragYZoomAddInImp, COMDAT
; _this$ = ecx

; 36   : {

  00000	c7 01 00 00 00
	00		 mov	 DWORD PTR [ecx], OFFSET ??_7CDragYZoomAddInImp@@6BCIWUnknown@@@
  00006	c7 41 08 00 00
	00 00		 mov	 DWORD PTR [ecx+8], OFFSET ??_7CDragYZoomAddInImp@@6BIChartAddIn000000@@@

; 37   : 
; 38   : }

  0000d	e9 00 00 00 00	 jmp	 ??1CChartAddInBase000000@@MAE@XZ ; CChartAddInBase000000::~CChartAddInBase000000
??1CDragYZoomAddInImp@@UAE@XZ ENDP			; CDragYZoomAddInImp::~CDragYZoomAddInImp
_TEXT	ENDS
; Function compile flags: /Ogtp
; File D:\git\src\IBK\IBK_DRFN\ProjSrc\SrcChartEx\ChartOCX\AddInManager\ChartCommonAddIn\DragYZoomAddInImp.cpp
; File C:\Program Files (x86)\Microsoft Visual Studio\2019\Community\VC\Tools\MSVC\14.29.30133\atlmfc\include\atltypes.h
; File D:\git\src\IBK\IBK_DRFN\ProjSrc\SrcChartEx\ChartOCX\AddInManager\ChartCommonAddIn\DragYZoomAddInImp.cpp
;	COMDAT ??0CDragYZoomAddInImp@@QAE@PAUIChartOCX000000@@PAUIAddInDllBase@@@Z
_TEXT	SEGMENT
_this$ = -4						; size = 4
_p_pIChartOCX$ = 8					; size = 4
_p_pIAddInDllBase$ = 12					; size = 4
??0CDragYZoomAddInImp@@QAE@PAUIChartOCX000000@@PAUIAddInDllBase@@@Z PROC ; CDragYZoomAddInImp::CDragYZoomAddInImp, COMDAT
; _this$ = ecx

; 24   : {

  00000	55		 push	 ebp
  00001	8b ec		 mov	 ebp, esp
  00003	51		 push	 ecx
  00004	56		 push	 esi
  00005	ff 75 0c	 push	 DWORD PTR _p_pIAddInDllBase$[ebp]
  00008	8b f1		 mov	 esi, ecx
  0000a	ff 75 08	 push	 DWORD PTR _p_pIChartOCX$[ebp]
  0000d	89 75 fc	 mov	 DWORD PTR _this$[ebp], esi
  00010	e8 00 00 00 00	 call	 ??0CChartAddInBase000000@@IAE@PAUIChartOCX000000@@PAUIAddInDllBase@@@Z ; CChartAddInBase000000::CChartAddInBase000000
  00015	c7 06 00 00 00
	00		 mov	 DWORD PTR [esi], OFFSET ??_7CDragYZoomAddInImp@@6BCIWUnknown@@@
  0001b	0f 57 c0	 xorps	 xmm0, xmm0
  0001e	c7 46 08 00 00
	00 00		 mov	 DWORD PTR [esi+8], OFFSET ??_7CDragYZoomAddInImp@@6BIChartAddIn000000@@@

; 33   : }

  00025	8b c6		 mov	 eax, esi
; File C:\Program Files (x86)\Microsoft Visual Studio\2019\Community\VC\Tools\MSVC\14.29.30133\atlmfc\include\atltypes.h

; 400  : 	x = 0;

  00027	c7 46 40 00 00
	00 00		 mov	 DWORD PTR [esi+64], 0

; 401  : 	y = 0;

  0002e	c7 46 44 00 00
	00 00		 mov	 DWORD PTR [esi+68], 0

; 400  : 	x = 0;

  00035	c7 46 48 00 00
	00 00		 mov	 DWORD PTR [esi+72], 0

; 401  : 	y = 0;

  0003c	c7 46 4c 00 00
	00 00		 mov	 DWORD PTR [esi+76], 0

; 528  : 	left = 0;

  00043	c7 46 50 00 00
	00 00		 mov	 DWORD PTR [esi+80], 0

; 529  : 	top = 0;

  0004a	c7 46 54 00 00
	00 00		 mov	 DWORD PTR [esi+84], 0

; 530  : 	right = 0;

  00051	c7 46 58 00 00
	00 00		 mov	 DWORD PTR [esi+88], 0

; 531  : 	bottom = 0;

  00058	c7 46 5c 00 00
	00 00		 mov	 DWORD PTR [esi+92], 0

; 528  : 	left = 0;

  0005f	c7 46 6c 00 00
	00 00		 mov	 DWORD PTR [esi+108], 0

; 529  : 	top = 0;

  00066	c7 46 70 00 00
	00 00		 mov	 DWORD PTR [esi+112], 0

; 530  : 	right = 0;

  0006d	c7 46 74 00 00
	00 00		 mov	 DWORD PTR [esi+116], 0

; 531  : 	bottom = 0;

  00074	c7 46 78 00 00
	00 00		 mov	 DWORD PTR [esi+120], 0
; File D:\git\src\IBK\IBK_DRFN\ProjSrc\SrcChartEx\ChartOCX\AddInManager\ChartCommonAddIn\DragYZoomAddInImp.cpp

; 25   : 	m_ptStartDragDrop = CPoint(-1, -1);

  0007b	c7 46 40 ff ff
	ff ff		 mov	 DWORD PTR [esi+64], -1
  00082	c7 46 44 ff ff
	ff ff		 mov	 DWORD PTR [esi+68], -1

; 26   : 	m_ptCurrDragDrop = CPoint(-1, -1);

  00089	c7 46 48 ff ff
	ff ff		 mov	 DWORD PTR [esi+72], -1
  00090	c7 46 4c ff ff
	ff ff		 mov	 DWORD PTR [esi+76], -1

; 27   : 	m_rcPrevDrag = CRect(0,0,0,0);

  00097	0f 11 46 50	 movups	 XMMWORD PTR [esi+80], xmm0

; 28   : 	
; 29   : 	// Manage Mouse Action ID for Serial Action.
; 30   : 	m_dwMouseActionID = UINT_MAX;

  0009b	c7 46 60 ff ff
	ff ff		 mov	 DWORD PTR [esi+96], -1

; 31   : 
; 32   : 	m_bRun = FALSE;

  000a2	c7 46 64 00 00
	00 00		 mov	 DWORD PTR [esi+100], 0

; 33   : }

  000a9	5e		 pop	 esi
  000aa	8b e5		 mov	 esp, ebp
  000ac	5d		 pop	 ebp
  000ad	c2 08 00	 ret	 8
??0CDragYZoomAddInImp@@QAE@PAUIChartOCX000000@@PAUIAddInDllBase@@@Z ENDP ; CDragYZoomAddInImp::CDragYZoomAddInImp
_TEXT	ENDS
; Function compile flags: /Ogtp
; File D:\git\src\IBK\IBK_DRFN\ProjSrc\SrcChartEx\ChartOCX\AddInManager\Include_Addin\I000000\_ChartAddInBase.h
;	COMDAT ?OnRButtonDblClk@CChartAddInBase000000@@MAEHPAUHDC__@@IAAUtagPOINT@@K@Z
_TEXT	SEGMENT
_p_hDC$ = 8						; size = 4
_nFlags$ = 12						; size = 4
_point$ = 16						; size = 4
_p_dwMouseActionID$ = 20				; size = 4
?OnRButtonDblClk@CChartAddInBase000000@@MAEHPAUHDC__@@IAAUtagPOINT@@K@Z PROC ; CChartAddInBase000000::OnRButtonDblClk, COMDAT
; _this$ = ecx

; 221  : 	virtual BOOL	OnRButtonDblClk(	HDC p_hDC, UINT nFlags, POINT &point, const DWORD p_dwMouseActionID)									{	return FALSE;	}

  00000	33 c0		 xor	 eax, eax
  00002	c2 10 00	 ret	 16			; 00000010H
?OnRButtonDblClk@CChartAddInBase000000@@MAEHPAUHDC__@@IAAUtagPOINT@@K@Z ENDP ; CChartAddInBase000000::OnRButtonDblClk
_TEXT	ENDS
; Function compile flags: /Ogtp
; File D:\git\src\IBK\IBK_DRFN\ProjSrc\SrcChartEx\ChartOCX\AddInManager\Include_Addin\I000000\_ChartAddInBase.h
;	COMDAT ?OnRButtonUp@CChartAddInBase000000@@MAEHPAUHDC__@@IAAUtagPOINT@@K@Z
_TEXT	SEGMENT
_p_hDC$ = 8						; size = 4
_nFlags$ = 12						; size = 4
_point$ = 16						; size = 4
_p_dwMouseActionID$ = 20				; size = 4
?OnRButtonUp@CChartAddInBase000000@@MAEHPAUHDC__@@IAAUtagPOINT@@K@Z PROC ; CChartAddInBase000000::OnRButtonUp, COMDAT
; _this$ = ecx

; 220  : 	virtual BOOL	OnRButtonUp(		HDC p_hDC, UINT nFlags, POINT &point, const DWORD p_dwMouseActionID)									{	return FALSE;	}

  00000	33 c0		 xor	 eax, eax
  00002	c2 10 00	 ret	 16			; 00000010H
?OnRButtonUp@CChartAddInBase000000@@MAEHPAUHDC__@@IAAUtagPOINT@@K@Z ENDP ; CChartAddInBase000000::OnRButtonUp
_TEXT	ENDS
; Function compile flags: /Ogtp
; File D:\git\src\IBK\IBK_DRFN\ProjSrc\SrcChartEx\ChartOCX\AddInManager\Include_Addin\I000000\_ChartAddInBase.h
;	COMDAT ?OnRButtonDown@CChartAddInBase000000@@MAEHPAUHDC__@@IAAUtagPOINT@@K@Z
_TEXT	SEGMENT
_p_hDC$ = 8						; size = 4
_nFlags$ = 12						; size = 4
_point$ = 16						; size = 4
_p_dwMouseActionID$ = 20				; size = 4
?OnRButtonDown@CChartAddInBase000000@@MAEHPAUHDC__@@IAAUtagPOINT@@K@Z PROC ; CChartAddInBase000000::OnRButtonDown, COMDAT
; _this$ = ecx

; 219  : 	virtual BOOL	OnRButtonDown(		HDC p_hDC, UINT nFlags, POINT &point, const DWORD p_dwMouseActionID)									{	return FALSE;	}

  00000	33 c0		 xor	 eax, eax
  00002	c2 10 00	 ret	 16			; 00000010H
?OnRButtonDown@CChartAddInBase000000@@MAEHPAUHDC__@@IAAUtagPOINT@@K@Z ENDP ; CChartAddInBase000000::OnRButtonDown
_TEXT	ENDS
; Function compile flags: /Ogtp
; File D:\git\src\IBK\IBK_DRFN\ProjSrc\SrcChartEx\ChartOCX\AddInManager\Include_Addin\I000000\_ChartAddInBase.h
;	COMDAT ?OnLButtonDblClk@CChartAddInBase000000@@MAEHPAUHDC__@@IAAUtagPOINT@@K@Z
_TEXT	SEGMENT
_p_hDC$ = 8						; size = 4
_nFlags$ = 12						; size = 4
_point$ = 16						; size = 4
_p_dwMouseActionID$ = 20				; size = 4
?OnLButtonDblClk@CChartAddInBase000000@@MAEHPAUHDC__@@IAAUtagPOINT@@K@Z PROC ; CChartAddInBase000000::OnLButtonDblClk, COMDAT
; _this$ = ecx

; 218  : 	virtual BOOL	OnLButtonDblClk(	HDC p_hDC, UINT nFlags, POINT &point, const DWORD p_dwMouseActionID)									{	return FALSE;	}

  00000	33 c0		 xor	 eax, eax
  00002	c2 10 00	 ret	 16			; 00000010H
?OnLButtonDblClk@CChartAddInBase000000@@MAEHPAUHDC__@@IAAUtagPOINT@@K@Z ENDP ; CChartAddInBase000000::OnLButtonDblClk
_TEXT	ENDS
; Function compile flags: /Ogtp
; File D:\git\src\IBK\IBK_DRFN\ProjSrc\SrcChartEx\ChartOCX\AddInManager\Include_Addin\I000000\_ChartAddInBase.h
;	COMDAT ?OnMouseWheel@CChartAddInBase000000@@MAEHIFUtagPOINT@@K@Z
_TEXT	SEGMENT
_nFlags$ = 8						; size = 4
_zDelta$ = 12						; size = 2
_pt$ = 16						; size = 8
_p_dwMouseActionID$ = 24				; size = 4
?OnMouseWheel@CChartAddInBase000000@@MAEHIFUtagPOINT@@K@Z PROC ; CChartAddInBase000000::OnMouseWheel, COMDAT
; _this$ = ecx

; 214  : 	virtual BOOL	OnMouseWheel(		UINT nFlags, short zDelta, POINT pt, const DWORD p_dwMouseActionID)										{	return FALSE;	}

  00000	33 c0		 xor	 eax, eax
  00002	c2 14 00	 ret	 20			; 00000014H
?OnMouseWheel@CChartAddInBase000000@@MAEHIFUtagPOINT@@K@Z ENDP ; CChartAddInBase000000::OnMouseWheel
_TEXT	ENDS
; Function compile flags: /Ogtp
; File D:\git\src\IBK\IBK_DRFN\ProjSrc\SrcChartEx\ChartOCX\AddInManager\Include_Addin\I000000\_ChartAddInBase.h
;	COMDAT ?OnKeyUp@CChartAddInBase000000@@MAEHIII@Z
_TEXT	SEGMENT
_nChar$ = 8						; size = 4
_nRepCnt$ = 12						; size = 4
_nFlags$ = 16						; size = 4
?OnKeyUp@CChartAddInBase000000@@MAEHIII@Z PROC		; CChartAddInBase000000::OnKeyUp, COMDAT
; _this$ = ecx

; 213  : 	virtual BOOL	OnKeyUp(			UINT nChar, UINT nRepCnt, UINT nFlags)																	{	return FALSE;	}

  00000	33 c0		 xor	 eax, eax
  00002	c2 0c 00	 ret	 12			; 0000000cH
?OnKeyUp@CChartAddInBase000000@@MAEHIII@Z ENDP		; CChartAddInBase000000::OnKeyUp
_TEXT	ENDS
; Function compile flags: /Ogtp
; File D:\git\src\IBK\IBK_DRFN\ProjSrc\SrcChartEx\ChartOCX\AddInManager\Include_Addin\I000000\_ChartAddInBase.h
;	COMDAT ?OnKeyDown@CChartAddInBase000000@@MAEHIII@Z
_TEXT	SEGMENT
_nChar$ = 8						; size = 4
_nRepCnt$ = 12						; size = 4
_nFlags$ = 16						; size = 4
?OnKeyDown@CChartAddInBase000000@@MAEHIII@Z PROC	; CChartAddInBase000000::OnKeyDown, COMDAT
; _this$ = ecx

; 212  : 	virtual BOOL	OnKeyDown(			UINT nChar, UINT nRepCnt, UINT nFlags)																	{	return FALSE;	}

  00000	33 c0		 xor	 eax, eax
  00002	c2 0c 00	 ret	 12			; 0000000cH
?OnKeyDown@CChartAddInBase000000@@MAEHIII@Z ENDP	; CChartAddInBase000000::OnKeyDown
_TEXT	ENDS
; Function compile flags: /Ogtp
; File D:\git\src\IBK\IBK_DRFN\ProjSrc\SrcChartEx\ChartOCX\AddInManager\Include_Addin\I000000\_ChartAddInBase.h
;	COMDAT ?OnAddInToolCommand@CChartAddInBase000000@@MAEHAAJW4EAICommandType@@JJ@Z
_TEXT	SEGMENT
_p_lResult$ = 8						; size = 4
_p_eCommandID$ = 12					; size = 4
_p_lParam1$ = 16					; size = 4
_p_lParam2$ = 20					; size = 4
?OnAddInToolCommand@CChartAddInBase000000@@MAEHAAJW4EAICommandType@@JJ@Z PROC ; CChartAddInBase000000::OnAddInToolCommand, COMDAT
; _this$ = ecx

; 210  : 	virtual BOOL	OnAddInToolCommand(	long &p_lResult, const EAICommandType p_eCommandID, const long p_lParam1, const long p_lParam2)			{	return FALSE;	}

  00000	33 c0		 xor	 eax, eax
  00002	c2 10 00	 ret	 16			; 00000010H
?OnAddInToolCommand@CChartAddInBase000000@@MAEHAAJW4EAICommandType@@JJ@Z ENDP ; CChartAddInBase000000::OnAddInToolCommand
_TEXT	ENDS
; Function compile flags: /Ogtp
; File D:\git\src\IBK\IBK_DRFN\ProjSrc\SrcChartEx\ChartOCX\AddInManager\Include_Addin\I000000\_ChartAddInBase.h
;	COMDAT ?OnAddInToolCommand@CChartAddInBase000000@@MAEHAAJW4EAICommandType@@J@Z
_TEXT	SEGMENT
_p_lResult$ = 8						; size = 4
_p_eCommandID$ = 12					; size = 4
_p_lParam$ = 16						; size = 4
?OnAddInToolCommand@CChartAddInBase000000@@MAEHAAJW4EAICommandType@@J@Z PROC ; CChartAddInBase000000::OnAddInToolCommand, COMDAT
; _this$ = ecx

; 209  : 	virtual BOOL	OnAddInToolCommand(	long &p_lResult, const EAICommandType p_eCommandID, const long p_lParam)								{	return FALSE;	}

  00000	33 c0		 xor	 eax, eax
  00002	c2 0c 00	 ret	 12			; 0000000cH
?OnAddInToolCommand@CChartAddInBase000000@@MAEHAAJW4EAICommandType@@J@Z ENDP ; CChartAddInBase000000::OnAddInToolCommand
_TEXT	ENDS
; Function compile flags: /Ogtp
; File D:\git\src\IBK\IBK_DRFN\ProjSrc\SrcChartEx\ChartOCX\AddInManager\Include_Addin\I000000\_ChartAddInBase.h
;	COMDAT ?OnAddInToolCommand@CChartAddInBase000000@@MAEHAAJW4EAICommandType@@PBDPAVCObject@@@Z
_TEXT	SEGMENT
_p_lResult$ = 8						; size = 4
_p_eCommandID$ = 12					; size = 4
_p_szParam$ = 16					; size = 4
_p_pParam$ = 20						; size = 4
?OnAddInToolCommand@CChartAddInBase000000@@MAEHAAJW4EAICommandType@@PBDPAVCObject@@@Z PROC ; CChartAddInBase000000::OnAddInToolCommand, COMDAT
; _this$ = ecx

; 208  : 	virtual BOOL	OnAddInToolCommand(	long &p_lResult, const EAICommandType p_eCommandID, const char *p_szParam, CObject *p_pParam)			{	return FALSE;	}

  00000	33 c0		 xor	 eax, eax
  00002	c2 10 00	 ret	 16			; 00000010H
?OnAddInToolCommand@CChartAddInBase000000@@MAEHAAJW4EAICommandType@@PBDPAVCObject@@@Z ENDP ; CChartAddInBase000000::OnAddInToolCommand
_TEXT	ENDS
; Function compile flags: /Ogtp
; File D:\git\src\IBK\IBK_DRFN\ProjSrc\SrcChartEx\ChartOCX\AddInManager\Include_Addin\I000000\_ChartAddInBase.h
;	COMDAT ?OnAddInToolCommand@CChartAddInBase000000@@MAEHAAJW4EAICommandType@@PBD@Z
_TEXT	SEGMENT
_p_lResult$ = 8						; size = 4
_p_eCommandID$ = 12					; size = 4
_p_szParam$ = 16					; size = 4
?OnAddInToolCommand@CChartAddInBase000000@@MAEHAAJW4EAICommandType@@PBD@Z PROC ; CChartAddInBase000000::OnAddInToolCommand, COMDAT
; _this$ = ecx

; 207  : 	virtual BOOL	OnAddInToolCommand(	long &p_lResult, const EAICommandType p_eCommandID, const char *p_szParam)								{	return FALSE;	}

  00000	33 c0		 xor	 eax, eax
  00002	c2 0c 00	 ret	 12			; 0000000cH
?OnAddInToolCommand@CChartAddInBase000000@@MAEHAAJW4EAICommandType@@PBD@Z ENDP ; CChartAddInBase000000::OnAddInToolCommand
_TEXT	ENDS
; Function compile flags: /Ogtp
; File D:\git\src\IBK\IBK_DRFN\ProjSrc\SrcChartEx\ChartOCX\AddInManager\Include_Addin\I000000\_ChartAddInBase.h
;	COMDAT ?OnAddInToolCommand@CChartAddInBase000000@@MAEHAAJW4EAICommandType@@PAUIGraphInfo000000@@@Z
_TEXT	SEGMENT
_p_lResult$ = 8						; size = 4
_p_eCommandID$ = 12					; size = 4
_p_pIGraphInfo$ = 16					; size = 4
?OnAddInToolCommand@CChartAddInBase000000@@MAEHAAJW4EAICommandType@@PAUIGraphInfo000000@@@Z PROC ; CChartAddInBase000000::OnAddInToolCommand, COMDAT
; _this$ = ecx

; 206  : 	virtual BOOL	OnAddInToolCommand(	long &p_lResult, const EAICommandType p_eCommandID, IGraphInfo *p_pIGraphInfo)							{	return FALSE;	}

  00000	33 c0		 xor	 eax, eax
  00002	c2 0c 00	 ret	 12			; 0000000cH
?OnAddInToolCommand@CChartAddInBase000000@@MAEHAAJW4EAICommandType@@PAUIGraphInfo000000@@@Z ENDP ; CChartAddInBase000000::OnAddInToolCommand
_TEXT	ENDS
; Function compile flags: /Ogtp
; File D:\git\src\IBK\IBK_DRFN\ProjSrc\SrcChartEx\ChartOCX\AddInManager\Include_Addin\I000000\_ChartAddInBase.h
;	COMDAT ?OnAddInToolCommand@CChartAddInBase000000@@MAEHAAJW4EAICommandType@@@Z
_TEXT	SEGMENT
_p_lResult$ = 8						; size = 4
_p_eCommandID$ = 12					; size = 4
?OnAddInToolCommand@CChartAddInBase000000@@MAEHAAJW4EAICommandType@@@Z PROC ; CChartAddInBase000000::OnAddInToolCommand, COMDAT
; _this$ = ecx

; 205  : 	virtual BOOL	OnAddInToolCommand(	long &p_lResult, const EAICommandType p_eCommandID)														{	return FALSE;	}

  00000	33 c0		 xor	 eax, eax
  00002	c2 08 00	 ret	 8
?OnAddInToolCommand@CChartAddInBase000000@@MAEHAAJW4EAICommandType@@@Z ENDP ; CChartAddInBase000000::OnAddInToolCommand
_TEXT	ENDS
; Function compile flags: /Ogtp
; File D:\git\src\IBK\IBK_DRFN\ProjSrc\SrcChartEx\ChartOCX\AddInManager\Include_Addin\I000000\_ChartAddInBase.h
;	COMDAT ?OnAddInToolCommand@CChartAddInBase000000@@MAEHW4EAICommandType@@JJJJJJJJJ@Z
_TEXT	SEGMENT
_p_eCommandID$ = 8					; size = 4
_p_lParam1$ = 12					; size = 4
_p_lParam2$ = 16					; size = 4
_p_lParam3$ = 20					; size = 4
_p_lParam4$ = 24					; size = 4
_p_lParam5$ = 28					; size = 4
_p_lParam6$ = 32					; size = 4
_p_lParam7$ = 36					; size = 4
_p_lParam8$ = 40					; size = 4
_p_lParam9$ = 44					; size = 4
?OnAddInToolCommand@CChartAddInBase000000@@MAEHW4EAICommandType@@JJJJJJJJJ@Z PROC ; CChartAddInBase000000::OnAddInToolCommand, COMDAT
; _this$ = ecx

; 204  : 	virtual BOOL	OnAddInToolCommand(	const EAICommandType p_eCommandID, const long p_lParam1, const long p_lParam2, const long p_lParam3, const long p_lParam4, const long p_lParam5, const long p_lParam6, const long p_lParam7, const long p_lParam8, const long p_lParam9)	{	return FALSE;	}

  00000	33 c0		 xor	 eax, eax
  00002	c2 28 00	 ret	 40			; 00000028H
?OnAddInToolCommand@CChartAddInBase000000@@MAEHW4EAICommandType@@JJJJJJJJJ@Z ENDP ; CChartAddInBase000000::OnAddInToolCommand
_TEXT	ENDS
; Function compile flags: /Ogtp
; File D:\git\src\IBK\IBK_DRFN\ProjSrc\SrcChartEx\ChartOCX\AddInManager\Include_Addin\I000000\_ChartAddInBase.h
;	COMDAT ?OnAddInToolCommand@CChartAddInBase000000@@MAEHW4EAICommandType@@JJ@Z
_TEXT	SEGMENT
_p_eCommandID$ = 8					; size = 4
_p_lParam1$ = 12					; size = 4
_p_lParam2$ = 16					; size = 4
?OnAddInToolCommand@CChartAddInBase000000@@MAEHW4EAICommandType@@JJ@Z PROC ; CChartAddInBase000000::OnAddInToolCommand, COMDAT
; _this$ = ecx

; 203  : 	virtual BOOL	OnAddInToolCommand(	const EAICommandType p_eCommandID, const long p_lParam1, const long p_lParam2)							{	return FALSE;	}

  00000	33 c0		 xor	 eax, eax
  00002	c2 0c 00	 ret	 12			; 0000000cH
?OnAddInToolCommand@CChartAddInBase000000@@MAEHW4EAICommandType@@JJ@Z ENDP ; CChartAddInBase000000::OnAddInToolCommand
_TEXT	ENDS
; Function compile flags: /Ogtp
; File D:\git\src\IBK\IBK_DRFN\ProjSrc\SrcChartEx\ChartOCX\AddInManager\Include_Addin\I000000\_ChartAddInBase.h
;	COMDAT ?OnAddInToolCommand@CChartAddInBase000000@@MAEHW4EAICommandType@@JPBD11@Z
_TEXT	SEGMENT
_p_eCommandID$ = 8					; size = 4
_p_lParam$ = 12						; size = 4
_p_szParam1$ = 16					; size = 4
_p_szParam2$ = 20					; size = 4
_p_szParam3$ = 24					; size = 4
?OnAddInToolCommand@CChartAddInBase000000@@MAEHW4EAICommandType@@JPBD11@Z PROC ; CChartAddInBase000000::OnAddInToolCommand, COMDAT
; _this$ = ecx

; 202  : 	virtual BOOL	OnAddInToolCommand( const EAICommandType p_eCommandID, const long p_lParam, const char *p_szParam1, const char *p_szParam2, const char *p_szParam3)	{	return FALSE;	}

  00000	33 c0		 xor	 eax, eax
  00002	c2 14 00	 ret	 20			; 00000014H
?OnAddInToolCommand@CChartAddInBase000000@@MAEHW4EAICommandType@@JPBD11@Z ENDP ; CChartAddInBase000000::OnAddInToolCommand
_TEXT	ENDS
; Function compile flags: /Ogtp
; File D:\git\src\IBK\IBK_DRFN\ProjSrc\SrcChartEx\ChartOCX\AddInManager\Include_Addin\I000000\_ChartAddInBase.h
;	COMDAT ?OnAddInToolCommand@CChartAddInBase000000@@MAEHW4EAICommandType@@JPBD@Z
_TEXT	SEGMENT
_p_eCommandID$ = 8					; size = 4
_p_lParam$ = 12						; size = 4
_p_szParam$ = 16					; size = 4
?OnAddInToolCommand@CChartAddInBase000000@@MAEHW4EAICommandType@@JPBD@Z PROC ; CChartAddInBase000000::OnAddInToolCommand, COMDAT
; _this$ = ecx

; 201  : 	virtual BOOL	OnAddInToolCommand( const EAICommandType p_eCommandID, const long p_lParam, const char *p_szParam)							{	return FALSE;	}

  00000	33 c0		 xor	 eax, eax
  00002	c2 0c 00	 ret	 12			; 0000000cH
?OnAddInToolCommand@CChartAddInBase000000@@MAEHW4EAICommandType@@JPBD@Z ENDP ; CChartAddInBase000000::OnAddInToolCommand
_TEXT	ENDS
; Function compile flags: /Ogtp
; File D:\git\src\IBK\IBK_DRFN\ProjSrc\SrcChartEx\ChartOCX\AddInManager\Include_Addin\I000000\_ChartAddInBase.h
;	COMDAT ?OnAddInToolCommand@CChartAddInBase000000@@MAEHW4EAICommandType@@J@Z
_TEXT	SEGMENT
_p_eCommandID$ = 8					; size = 4
_p_lParam$ = 12						; size = 4
?OnAddInToolCommand@CChartAddInBase000000@@MAEHW4EAICommandType@@J@Z PROC ; CChartAddInBase000000::OnAddInToolCommand, COMDAT
; _this$ = ecx

; 200  : 	virtual BOOL	OnAddInToolCommand(	const EAICommandType p_eCommandID, const long p_lParam)													{	return FALSE;	}

  00000	33 c0		 xor	 eax, eax
  00002	c2 08 00	 ret	 8
?OnAddInToolCommand@CChartAddInBase000000@@MAEHW4EAICommandType@@J@Z ENDP ; CChartAddInBase000000::OnAddInToolCommand
_TEXT	ENDS
; Function compile flags: /Ogtp
; File D:\git\src\IBK\IBK_DRFN\ProjSrc\SrcChartEx\ChartOCX\AddInManager\Include_Addin\I000000\_ChartAddInBase.h
;	COMDAT ?OnAddInToolCommand@CChartAddInBase000000@@MAEHW4EAICommandType@@PBUIAddInDllBase@@@Z
_TEXT	SEGMENT
_p_eCommandID$ = 8					; size = 4
_p_pParam$ = 12						; size = 4
?OnAddInToolCommand@CChartAddInBase000000@@MAEHW4EAICommandType@@PBUIAddInDllBase@@@Z PROC ; CChartAddInBase000000::OnAddInToolCommand, COMDAT
; _this$ = ecx

; 199  : 	virtual BOOL	OnAddInToolCommand(	const EAICommandType p_eCommandID, const IAddInDllBase *p_pParam)										{	return FALSE;	}

  00000	33 c0		 xor	 eax, eax
  00002	c2 08 00	 ret	 8
?OnAddInToolCommand@CChartAddInBase000000@@MAEHW4EAICommandType@@PBUIAddInDllBase@@@Z ENDP ; CChartAddInBase000000::OnAddInToolCommand
_TEXT	ENDS
; Function compile flags: /Ogtp
; File D:\git\src\IBK\IBK_DRFN\ProjSrc\SrcChartEx\ChartOCX\AddInManager\Include_Addin\I000000\_ChartAddInBase.h
;	COMDAT ?OnAddInToolCommand@CChartAddInBase000000@@MAEHW4EAICommandType@@PBDJ@Z
_TEXT	SEGMENT
_p_eCommandID$ = 8					; size = 4
_p_szParam$ = 12					; size = 4
_p_lParam$ = 16						; size = 4
?OnAddInToolCommand@CChartAddInBase000000@@MAEHW4EAICommandType@@PBDJ@Z PROC ; CChartAddInBase000000::OnAddInToolCommand, COMDAT
; _this$ = ecx

; 198  : 	virtual BOOL	OnAddInToolCommand( const EAICommandType p_eCommandID, const char *p_szParam, const long p_lParam)							{	return FALSE;	}

  00000	33 c0		 xor	 eax, eax
  00002	c2 0c 00	 ret	 12			; 0000000cH
?OnAddInToolCommand@CChartAddInBase000000@@MAEHW4EAICommandType@@PBDJ@Z ENDP ; CChartAddInBase000000::OnAddInToolCommand
_TEXT	ENDS
; Function compile flags: /Ogtp
; File D:\git\src\IBK\IBK_DRFN\ProjSrc\SrcChartEx\ChartOCX\AddInManager\Include_Addin\I000000\_ChartAddInBase.h
;	COMDAT ?OnAddInToolCommand@CChartAddInBase000000@@MAEHW4EAICommandType@@PBD1@Z
_TEXT	SEGMENT
_p_eCommandID$ = 8					; size = 4
_p_szParam1$ = 12					; size = 4
_p_szParam2$ = 16					; size = 4
?OnAddInToolCommand@CChartAddInBase000000@@MAEHW4EAICommandType@@PBD1@Z PROC ; CChartAddInBase000000::OnAddInToolCommand, COMDAT
; _this$ = ecx

; 197  : 	virtual BOOL	OnAddInToolCommand(	const EAICommandType p_eCommandID, const char *p_szParam1, const char *p_szParam2)						{	return FALSE;	}

  00000	33 c0		 xor	 eax, eax
  00002	c2 0c 00	 ret	 12			; 0000000cH
?OnAddInToolCommand@CChartAddInBase000000@@MAEHW4EAICommandType@@PBD1@Z ENDP ; CChartAddInBase000000::OnAddInToolCommand
_TEXT	ENDS
; Function compile flags: /Ogtp
; File D:\git\src\IBK\IBK_DRFN\ProjSrc\SrcChartEx\ChartOCX\AddInManager\Include_Addin\I000000\_ChartAddInBase.h
;	COMDAT ?OnAddInToolCommand@CChartAddInBase000000@@MAEHW4EAICommandType@@PBD@Z
_TEXT	SEGMENT
_p_eCommandID$ = 8					; size = 4
_p_szParam$ = 12					; size = 4
?OnAddInToolCommand@CChartAddInBase000000@@MAEHW4EAICommandType@@PBD@Z PROC ; CChartAddInBase000000::OnAddInToolCommand, COMDAT
; _this$ = ecx

; 196  : 	virtual BOOL	OnAddInToolCommand(	const EAICommandType p_eCommandID, const char *p_szParam)												{	return FALSE;	}

  00000	33 c0		 xor	 eax, eax
  00002	c2 08 00	 ret	 8
?OnAddInToolCommand@CChartAddInBase000000@@MAEHW4EAICommandType@@PBD@Z ENDP ; CChartAddInBase000000::OnAddInToolCommand
_TEXT	ENDS
; Function compile flags: /Ogtp
; File D:\git\src\IBK\IBK_DRFN\ProjSrc\SrcChartEx\ChartOCX\AddInManager\Include_Addin\I000000\_ChartAddInBase.h
;	COMDAT ?OnAddInToolCommand@CChartAddInBase000000@@MAEHW4EAICommandType@@PAUHDC__@@IAAUtagPOINT@@K@Z
_TEXT	SEGMENT
_p_eCommandID$ = 8					; size = 4
_p_hDC$ = 12						; size = 4
_nFlags$ = 16						; size = 4
_point$ = 20						; size = 4
_p_dwMouseActionID$ = 24				; size = 4
?OnAddInToolCommand@CChartAddInBase000000@@MAEHW4EAICommandType@@PAUHDC__@@IAAUtagPOINT@@K@Z PROC ; CChartAddInBase000000::OnAddInToolCommand, COMDAT
; _this$ = ecx

; 195  : 	virtual BOOL	OnAddInToolCommand(	const EAICommandType p_eCommandID, HDC p_hDC, UINT nFlags, POINT &point, const DWORD p_dwMouseActionID)	{	return FALSE;	}

  00000	33 c0		 xor	 eax, eax
  00002	c2 14 00	 ret	 20			; 00000014H
?OnAddInToolCommand@CChartAddInBase000000@@MAEHW4EAICommandType@@PAUHDC__@@IAAUtagPOINT@@K@Z ENDP ; CChartAddInBase000000::OnAddInToolCommand
_TEXT	ENDS
; Function compile flags: /Ogtp
; File D:\git\src\IBK\IBK_DRFN\ProjSrc\SrcChartEx\ChartOCX\AddInManager\Include_Addin\I000000\_ChartAddInBase.h
;	COMDAT ?OnAddInToolCommand@CChartAddInBase000000@@MAEHW4EAICommandType@@@Z
_TEXT	SEGMENT
_p_eCommandID$ = 8					; size = 4
?OnAddInToolCommand@CChartAddInBase000000@@MAEHW4EAICommandType@@@Z PROC ; CChartAddInBase000000::OnAddInToolCommand, COMDAT
; _this$ = ecx

; 194  : 	virtual BOOL	OnAddInToolCommand(	const EAICommandType p_eCommandID)																		{	return FALSE;	}

  00000	33 c0		 xor	 eax, eax
  00002	c2 04 00	 ret	 4
?OnAddInToolCommand@CChartAddInBase000000@@MAEHW4EAICommandType@@@Z ENDP ; CChartAddInBase000000::OnAddInToolCommand
_TEXT	ENDS
; Function compile flags: /Ogtp
; File D:\git\src\IBK\IBK_DRFN\ProjSrc\SrcChartEx\ChartOCX\AddInManager\Include_Addin\I000000\_ChartAddInBase.h
;	COMDAT ?OnAddInMsg@CChartAddInBase000000@@MAEHPBDJ@Z
_TEXT	SEGMENT
_p_szAddInItemName$ = 8					; size = 4
_p_lParam$ = 12						; size = 4
?OnAddInMsg@CChartAddInBase000000@@MAEHPBDJ@Z PROC	; CChartAddInBase000000::OnAddInMsg, COMDAT
; _this$ = ecx

; 193  : 	virtual BOOL	OnAddInMsg(			const char *p_szAddInItemName, const long p_lParam)														{	return FALSE;	}

  00000	33 c0		 xor	 eax, eax
  00002	c2 08 00	 ret	 8
?OnAddInMsg@CChartAddInBase000000@@MAEHPBDJ@Z ENDP	; CChartAddInBase000000::OnAddInMsg
_TEXT	ENDS
; Function compile flags: /Ogtp
; File D:\git\src\IBK\IBK_DRFN\ProjSrc\SrcChartEx\ChartOCX\AddInManager\Include_Addin\I000000\_ChartAddInBase.h
;	COMDAT ?OnCmdMsg@CChartAddInBase000000@@MAEHIHPAUICmdUI000000@@@Z
_TEXT	SEGMENT
_nID$ = 8						; size = 4
_nCode$ = 12						; size = 4
_p_pICmdUI$ = 16					; size = 4
?OnCmdMsg@CChartAddInBase000000@@MAEHIHPAUICmdUI000000@@@Z PROC ; CChartAddInBase000000::OnCmdMsg, COMDAT
; _this$ = ecx

; 192  : 	virtual BOOL	OnCmdMsg(			UINT nID, int nCode, ICmdUI *p_pICmdUI)																	{	return FALSE;	}

  00000	33 c0		 xor	 eax, eax
  00002	c2 0c 00	 ret	 12			; 0000000cH
?OnCmdMsg@CChartAddInBase000000@@MAEHIHPAUICmdUI000000@@@Z ENDP ; CChartAddInBase000000::OnCmdMsg
_TEXT	ENDS
; Function compile flags: /Ogtp
; File D:\git\src\IBK\IBK_DRFN\ProjSrc\SrcChartEx\ChartOCX\AddInManager\Include_Addin\I000000\_ChartAddInBase.h
;	COMDAT ?OnPreNMTRClock@CChartAddInBase000000@@MAEHAA_J@Z
_TEXT	SEGMENT
_p_nRealClockSecs$ = 8					; size = 4
?OnPreNMTRClock@CChartAddInBase000000@@MAEHAA_J@Z PROC	; CChartAddInBase000000::OnPreNMTRClock, COMDAT
; _this$ = ecx

; 186  : 	virtual BOOL	OnPreNMTRClock( __int64 &p_nRealClockSecs)																		{	return TRUE;	}

  00000	b8 01 00 00 00	 mov	 eax, 1
  00005	c2 04 00	 ret	 4
?OnPreNMTRClock@CChartAddInBase000000@@MAEHAA_J@Z ENDP	; CChartAddInBase000000::OnPreNMTRClock
_TEXT	ENDS
; Function compile flags: /Ogtp
; File D:\git\src\IBK\IBK_DRFN\ProjSrc\SrcChartEx\ChartOCX\AddInManager\Include_Addin\I000000\_ChartAddInBase.h
;	COMDAT ?OnPreRealPacketEnd@CChartAddInBase000000@@MAEHPBDH@Z
_TEXT	SEGMENT
_p_szRQ$ = 8						; size = 4
_p_bRealData$ = 12					; size = 4
?OnPreRealPacketEnd@CChartAddInBase000000@@MAEHPBDH@Z PROC ; CChartAddInBase000000::OnPreRealPacketEnd, COMDAT
; _this$ = ecx

; 185  : 	virtual BOOL	OnPreRealPacketEnd( const char *p_szRQ = NULL, BOOL p_bRealData = TRUE)											{	return TRUE;	}

  00000	b8 01 00 00 00	 mov	 eax, 1
  00005	c2 08 00	 ret	 8
?OnPreRealPacketEnd@CChartAddInBase000000@@MAEHPBDH@Z ENDP ; CChartAddInBase000000::OnPreRealPacketEnd
_TEXT	ENDS
; Function compile flags: /Ogtp
; File D:\git\src\IBK\IBK_DRFN\ProjSrc\SrcChartEx\ChartOCX\AddInManager\Include_Addin\I000000\_ChartAddInBase.h
;	COMDAT ?OnPreIndexedRealData@CChartAddInBase000000@@MAEHPBDHAANH@Z
_TEXT	SEGMENT
_p_szPacketName$ = 8					; size = 4
_p_nIndex$ = 12						; size = 4
_p_dData$ = 16						; size = 4
_p_bRealData$ = 20					; size = 4
?OnPreIndexedRealData@CChartAddInBase000000@@MAEHPBDHAANH@Z PROC ; CChartAddInBase000000::OnPreIndexedRealData, COMDAT
; _this$ = ecx

; 184  : 	virtual BOOL	OnPreIndexedRealData( const char *p_szPacketName, const int p_nIndex, double &p_dData, BOOL p_bRealData = TRUE)	{	return TRUE;	}

  00000	b8 01 00 00 00	 mov	 eax, 1
  00005	c2 10 00	 ret	 16			; 00000010H
?OnPreIndexedRealData@CChartAddInBase000000@@MAEHPBDHAANH@Z ENDP ; CChartAddInBase000000::OnPreIndexedRealData
_TEXT	ENDS
; Function compile flags: /Ogtp
; File D:\git\src\IBK\IBK_DRFN\ProjSrc\SrcChartEx\ChartOCX\AddInManager\Include_Addin\I000000\_ChartAddInBase.h
;	COMDAT ?OnPreRealData@CChartAddInBase000000@@MAEHPBDAAN0H@Z
_TEXT	SEGMENT
_p_szPacketName$ = 8					; size = 4
_p_dData$ = 12						; size = 4
_p_szRQ$ = 16						; size = 4
_p_bRealData$ = 20					; size = 4
?OnPreRealData@CChartAddInBase000000@@MAEHPBDAAN0H@Z PROC ; CChartAddInBase000000::OnPreRealData, COMDAT
; _this$ = ecx

; 183  : 	virtual BOOL	OnPreRealData( const char *p_szPacketName, double &p_dData, const char *p_szRQ = NULL, BOOL p_bRealData = TRUE)	{	return TRUE;	}

  00000	b8 01 00 00 00	 mov	 eax, 1
  00005	c2 10 00	 ret	 16			; 00000010H
?OnPreRealData@CChartAddInBase000000@@MAEHPBDAAN0H@Z ENDP ; CChartAddInBase000000::OnPreRealData
_TEXT	ENDS
; Function compile flags: /Ogtp
; File D:\git\src\IBK\IBK_DRFN\ProjSrc\SrcChartEx\ChartOCX\AddInManager\Include_Addin\I000000\_ChartAddInBase.h
;	COMDAT ?OnRecalculationComplete@CChartAddInBase000000@@MAEXXZ
_TEXT	SEGMENT
?OnRecalculationComplete@CChartAddInBase000000@@MAEXXZ PROC ; CChartAddInBase000000::OnRecalculationComplete, COMDAT
; _this$ = ecx

; 179  : 	virtual void	OnRecalculationComplete( void)						{}

  00000	c2 00 00	 ret	 0
?OnRecalculationComplete@CChartAddInBase000000@@MAEXXZ ENDP ; CChartAddInBase000000::OnRecalculationComplete
_TEXT	ENDS
; Function compile flags: /Ogtp
; File D:\git\src\IBK\IBK_DRFN\ProjSrc\SrcChartEx\ChartOCX\AddInManager\Include_Addin\I000000\_ChartAddInBase.h
;	COMDAT ?DrawCursor@CChartAddInBase000000@@MAE?AUtagRECT@@PAUHDC__@@@Z
_TEXT	SEGMENT
___$ReturnUdt$ = 8					; size = 4
_p_hDC$ = 12						; size = 4
?DrawCursor@CChartAddInBase000000@@MAE?AUtagRECT@@PAUHDC__@@@Z PROC ; CChartAddInBase000000::DrawCursor, COMDAT
; _this$ = ecx

; 177  : 	virtual RECT	DrawCursor( HDC p_hDC)								{	RECT rct = { 0, 0, 0, 0};	return rct;		}

  00000	55		 push	 ebp
  00001	8b ec		 mov	 ebp, esp
  00003	8b 45 08	 mov	 eax, DWORD PTR ___$ReturnUdt$[ebp]
  00006	c7 00 00 00 00
	00		 mov	 DWORD PTR [eax], 0
  0000c	c7 40 04 00 00
	00 00		 mov	 DWORD PTR [eax+4], 0
  00013	c7 40 08 00 00
	00 00		 mov	 DWORD PTR [eax+8], 0
  0001a	c7 40 0c 00 00
	00 00		 mov	 DWORD PTR [eax+12], 0
  00021	5d		 pop	 ebp
  00022	c2 08 00	 ret	 8
?DrawCursor@CChartAddInBase000000@@MAE?AUtagRECT@@PAUHDC__@@@Z ENDP ; CChartAddInBase000000::DrawCursor
_TEXT	ENDS
; Function compile flags: /Ogtp
; File D:\git\src\IBK\IBK_DRFN\ProjSrc\SrcChartEx\ChartOCX\AddInManager\Include_Addin\I000000\_ChartAddInBase.h
;	COMDAT ?OnSaveEnvironment@CChartAddInBase000000@@MAEXPAUIPropertyMap@@@Z
_TEXT	SEGMENT
_p_pIAddInEnvMap$ = 8					; size = 4
?OnSaveEnvironment@CChartAddInBase000000@@MAEXPAUIPropertyMap@@@Z PROC ; CChartAddInBase000000::OnSaveEnvironment, COMDAT
; _this$ = ecx

; 175  : 	virtual void	OnSaveEnvironment( IPropertyMap *p_pIAddInEnvMap)	{}

  00000	c2 04 00	 ret	 4
?OnSaveEnvironment@CChartAddInBase000000@@MAEXPAUIPropertyMap@@@Z ENDP ; CChartAddInBase000000::OnSaveEnvironment
_TEXT	ENDS
; Function compile flags: /Ogtp
; File D:\git\src\IBK\IBK_DRFN\ProjSrc\SrcChartEx\ChartOCX\AddInManager\Include_Addin\I000000\_ChartAddInBase.h
;	COMDAT ?OnLoadEnvironment@CChartAddInBase000000@@MAEXPAUIPropertyMap@@@Z
_TEXT	SEGMENT
_p_pIAddInEnvMap$ = 8					; size = 4
?OnLoadEnvironment@CChartAddInBase000000@@MAEXPAUIPropertyMap@@@Z PROC ; CChartAddInBase000000::OnLoadEnvironment, COMDAT
; _this$ = ecx

; 174  : 	virtual void	OnLoadEnvironment( IPropertyMap *p_pIAddInEnvMap)	{}

  00000	c2 04 00	 ret	 4
?OnLoadEnvironment@CChartAddInBase000000@@MAEXPAUIPropertyMap@@@Z ENDP ; CChartAddInBase000000::OnLoadEnvironment
_TEXT	ENDS
; Function compile flags: /Ogtp
; File D:\git\src\IBK\IBK_DRFN\ProjSrc\SrcChartEx\ChartOCX\AddInManager\Include_Addin\I000000\_ChartAddInBase.h
;	COMDAT ?OnRealPacketEnd@CChartAddInBase000000@@MAEXPBD@Z
_TEXT	SEGMENT
_p_szRQ$ = 8						; size = 4
?OnRealPacketEnd@CChartAddInBase000000@@MAEXPBD@Z PROC	; CChartAddInBase000000::OnRealPacketEnd, COMDAT
; _this$ = ecx

; 172  : 	virtual void	OnRealPacketEnd( const char *p_szRQ)								{}

  00000	c2 04 00	 ret	 4
?OnRealPacketEnd@CChartAddInBase000000@@MAEXPBD@Z ENDP	; CChartAddInBase000000::OnRealPacketEnd
_TEXT	ENDS
; Function compile flags: /Ogtp
; File D:\git\src\IBK\IBK_DRFN\ProjSrc\SrcChartEx\ChartOCX\AddInManager\Include_Addin\I000000\_ChartAddInBase.h
;	COMDAT ?OnIndexedRealData@CChartAddInBase000000@@MAEXPBDHN@Z
_TEXT	SEGMENT
_p_szPacketName$ = 8					; size = 4
_p_nIndex$ = 12						; size = 4
_p_dData$ = 16						; size = 8
?OnIndexedRealData@CChartAddInBase000000@@MAEXPBDHN@Z PROC ; CChartAddInBase000000::OnIndexedRealData, COMDAT
; _this$ = ecx

; 170  : 	virtual void	OnIndexedRealData( const char *p_szPacketName, const int p_nIndex, double p_dData)		{}

  00000	c2 10 00	 ret	 16			; 00000010H
?OnIndexedRealData@CChartAddInBase000000@@MAEXPBDHN@Z ENDP ; CChartAddInBase000000::OnIndexedRealData
_TEXT	ENDS
; Function compile flags: /Ogtp
; File D:\git\src\IBK\IBK_DRFN\ProjSrc\SrcChartEx\ChartOCX\AddInManager\Include_Addin\I000000\_ChartAddInBase.h
;	COMDAT ?OnRealData@CChartAddInBase000000@@MAEXPBDN0@Z
_TEXT	SEGMENT
_p_szPacketName$ = 8					; size = 4
_p_dData$ = 12						; size = 8
_p_szRQ$ = 20						; size = 4
?OnRealData@CChartAddInBase000000@@MAEXPBDN0@Z PROC	; CChartAddInBase000000::OnRealData, COMDAT
; _this$ = ecx

; 169  : 	virtual void	OnRealData( const char *p_szPacketName, double p_dData, const char *p_szRQ)			{}

  00000	c2 10 00	 ret	 16			; 00000010H
?OnRealData@CChartAddInBase000000@@MAEXPBDN0@Z ENDP	; CChartAddInBase000000::OnRealData
_TEXT	ENDS
; Function compile flags: /Ogtp
; File D:\git\src\IBK\IBK_DRFN\ProjSrc\SrcChartEx\ChartOCX\AddInManager\Include_Addin\I000000\_ChartAddInBase.h
;	COMDAT ?OnBlockChanged@CChartAddInBase000000@@MAEXW4BLOCKBEHAVIOR@CBlockBaseData@@HHHH@Z
_TEXT	SEGMENT
_p_eChangeType$ = 8					; size = 4
_p_nSourceRow$ = 12					; size = 4
_p_nSourceColumn$ = 16					; size = 4
_p_nTargetRow$ = 20					; size = 4
_p_nTargetColumn$ = 24					; size = 4
?OnBlockChanged@CChartAddInBase000000@@MAEXW4BLOCKBEHAVIOR@CBlockBaseData@@HHHH@Z PROC ; CChartAddInBase000000::OnBlockChanged, COMDAT
; _this$ = ecx

; 165  : 	virtual void	OnBlockChanged( const CBlockBaseData::BLOCKBEHAVIOR p_eChangeType, const int p_nSourceRow, const int p_nSourceColumn, const int p_nTargetRow, const int p_nTargetColumn)	{}

  00000	c2 14 00	 ret	 20			; 00000014H
?OnBlockChanged@CChartAddInBase000000@@MAEXW4BLOCKBEHAVIOR@CBlockBaseData@@HHHH@Z ENDP ; CChartAddInBase000000::OnBlockChanged
_TEXT	ENDS
; Function compile flags: /Ogtp
; File D:\git\src\IBK\IBK_DRFN\ProjSrc\SrcChartEx\ChartOCX\AddInManager\Include_Addin\I000000\_ChartAddInBase.h
;	COMDAT ?OnPacketTruncated@CChartAddInBase000000@@MAEXH@Z
_TEXT	SEGMENT
_p_nDataCount$ = 8					; size = 4
?OnPacketTruncated@CChartAddInBase000000@@MAEXH@Z PROC	; CChartAddInBase000000::OnPacketTruncated, COMDAT
; _this$ = ecx

; 163  : 	virtual void	OnPacketTruncated( const int p_nDataCount)			{}

  00000	c2 04 00	 ret	 4
?OnPacketTruncated@CChartAddInBase000000@@MAEXH@Z ENDP	; CChartAddInBase000000::OnPacketTruncated
_TEXT	ENDS
; Function compile flags: /Ogtp
; File D:\git\src\IBK\IBK_DRFN\ProjSrc\SrcChartEx\ChartOCX\AddInManager\Include_Addin\I000000\_ChartAddInBase.h
;	COMDAT ?OnGraphDeleted@CChartAddInBase000000@@MAEXPBD0@Z
_TEXT	SEGMENT
_p_szGraphName$ = 8					; size = 4
_p_szIndicatorName$ = 12				; size = 4
?OnGraphDeleted@CChartAddInBase000000@@MAEXPBD0@Z PROC	; CChartAddInBase000000::OnGraphDeleted, COMDAT
; _this$ = ecx

; 161  : 	virtual void	OnGraphDeleted( const char *p_szGraphName, const char *p_szIndicatorName)			{}

  00000	c2 08 00	 ret	 8
?OnGraphDeleted@CChartAddInBase000000@@MAEXPBD0@Z ENDP	; CChartAddInBase000000::OnGraphDeleted
_TEXT	ENDS
; Function compile flags: /Ogtp
; File D:\git\src\IBK\IBK_DRFN\ProjSrc\SrcChartEx\ChartOCX\AddInManager\Include_Addin\I000000\_ChartAddInBase.h
;	COMDAT ?OnContextMenu@CChartAddInBase000000@@MAEXPAUHWND__@@AAUtagPOINT@@@Z
_TEXT	SEGMENT
_p_hWnd$ = 8						; size = 4
_p_pt$ = 12						; size = 4
?OnContextMenu@CChartAddInBase000000@@MAEXPAUHWND__@@AAUtagPOINT@@@Z PROC ; CChartAddInBase000000::OnContextMenu, COMDAT
; _this$ = ecx

; 159  : 	virtual void	OnContextMenu( HWND p_hWnd, POINT &p_pt)			{}

  00000	c2 08 00	 ret	 8
?OnContextMenu@CChartAddInBase000000@@MAEXPAUHWND__@@AAUtagPOINT@@@Z ENDP ; CChartAddInBase000000::OnContextMenu
_TEXT	ENDS
; Function compile flags: /Ogtp
; File D:\git\src\IBK\IBK_DRFN\ProjSrc\SrcChartEx\ChartOCX\AddInManager\Include_Addin\I000000\_ChartAddInBase.h
;	COMDAT ?OnManualRealData@CChartAddInBase000000@@MAEXPBDNH@Z
_TEXT	SEGMENT
_p_szPacketName$ = 8					; size = 4
_p_dData$ = 12						; size = 8
_p_nOption$ = 20					; size = 4
?OnManualRealData@CChartAddInBase000000@@MAEXPBDNH@Z PROC ; CChartAddInBase000000::OnManualRealData, COMDAT
; _this$ = ecx

; 157  : 	virtual void	OnManualRealData( const char *p_szPacketName, const double p_dData, const int p_nOption)	{}

  00000	c2 10 00	 ret	 16			; 00000010H
?OnManualRealData@CChartAddInBase000000@@MAEXPBDNH@Z ENDP ; CChartAddInBase000000::OnManualRealData
_TEXT	ENDS
; Function compile flags: /Ogtp
; File D:\git\src\IBK\IBK_DRFN\ProjSrc\SrcChartEx\ChartOCX\AddInManager\Include_Addin\I000000\_ChartAddInBase.h
;	COMDAT ?OnGraphAdded@CChartAddInBase000000@@MAEXPBD0@Z
_TEXT	SEGMENT
_p_szGraphName$ = 8					; size = 4
_p_szIndicatorName$ = 12				; size = 4
?OnGraphAdded@CChartAddInBase000000@@MAEXPBD0@Z PROC	; CChartAddInBase000000::OnGraphAdded, COMDAT
; _this$ = ecx

; 155  : 	virtual void	OnGraphAdded( const char *p_szGraphName, const char *p_szIndicatorName)			{}

  00000	c2 08 00	 ret	 8
?OnGraphAdded@CChartAddInBase000000@@MAEXPBD0@Z ENDP	; CChartAddInBase000000::OnGraphAdded
_TEXT	ENDS
; Function compile flags: /Ogtp
; File D:\git\src\IBK\IBK_DRFN\ProjSrc\SrcChartEx\ChartOCX\AddInManager\Include_Addin\I000000\_ChartAddInBase.h
;	COMDAT ?OnBlockRemoved@CChartAddInBase000000@@MAEXHH@Z
_TEXT	SEGMENT
_p_nRow$ = 8						; size = 4
_p_nColumn$ = 12					; size = 4
?OnBlockRemoved@CChartAddInBase000000@@MAEXHH@Z PROC	; CChartAddInBase000000::OnBlockRemoved, COMDAT
; _this$ = ecx

; 153  : 	virtual void	OnBlockRemoved( const int p_nRow, const int p_nColumn)	{}

  00000	c2 08 00	 ret	 8
?OnBlockRemoved@CChartAddInBase000000@@MAEXHH@Z ENDP	; CChartAddInBase000000::OnBlockRemoved
_TEXT	ENDS
; Function compile flags: /Ogtp
; File D:\git\src\IBK\IBK_DRFN\ProjSrc\SrcChartEx\ChartOCX\AddInManager\Include_Addin\I000000\_ChartAddInBase.h
;	COMDAT ?OnGraphDataChanged@CChartAddInBase000000@@MAEXXZ
_TEXT	SEGMENT
?OnGraphDataChanged@CChartAddInBase000000@@MAEXXZ PROC	; CChartAddInBase000000::OnGraphDataChanged, COMDAT
; _this$ = ecx

; 151  : 	virtual void	OnGraphDataChanged( void)							{}

  00000	c2 00 00	 ret	 0
?OnGraphDataChanged@CChartAddInBase000000@@MAEXXZ ENDP	; CChartAddInBase000000::OnGraphDataChanged
_TEXT	ENDS
; Function compile flags: /Ogtp
; File D:\git\src\IBK\IBK_DRFN\ProjSrc\SrcChartEx\ChartOCX\AddInManager\Include_Addin\I000000\_ChartAddInBase.h
;	COMDAT ?OnChartItemChanged@CChartAddInBase000000@@MAEXXZ
_TEXT	SEGMENT
?OnChartItemChanged@CChartAddInBase000000@@MAEXXZ PROC	; CChartAddInBase000000::OnChartItemChanged, COMDAT
; _this$ = ecx

; 149  : 	virtual void	OnChartItemChanged( void)							{}

  00000	c2 00 00	 ret	 0
?OnChartItemChanged@CChartAddInBase000000@@MAEXXZ ENDP	; CChartAddInBase000000::OnChartItemChanged
_TEXT	ENDS
; Function compile flags: /Ogtp
; File D:\git\src\IBK\IBK_DRFN\ProjSrc\SrcChartEx\ChartOCX\AddInManager\Include_Addin\I000000\_ChartAddInBase.h
;	COMDAT ?OnUserIndiatorConditionLoaded@CChartAddInBase000000@@MAEXXZ
_TEXT	SEGMENT
?OnUserIndiatorConditionLoaded@CChartAddInBase000000@@MAEXXZ PROC ; CChartAddInBase000000::OnUserIndiatorConditionLoaded, COMDAT
; _this$ = ecx

; 147  : 	virtual void	OnUserIndiatorConditionLoaded( void)				{}

  00000	c2 00 00	 ret	 0
?OnUserIndiatorConditionLoaded@CChartAddInBase000000@@MAEXXZ ENDP ; CChartAddInBase000000::OnUserIndiatorConditionLoaded
_TEXT	ENDS
; Function compile flags: /Ogtp
; File D:\git\src\IBK\IBK_DRFN\ProjSrc\SrcChartEx\ChartOCX\AddInManager\Include_Addin\I000000\_ChartAddInBase.h
;	COMDAT ?OnResetMainBlock@CChartAddInBase000000@@MAEXXZ
_TEXT	SEGMENT
?OnResetMainBlock@CChartAddInBase000000@@MAEXXZ PROC	; CChartAddInBase000000::OnResetMainBlock, COMDAT
; _this$ = ecx

; 145  : 	virtual void	OnResetMainBlock( void)								{}

  00000	c2 00 00	 ret	 0
?OnResetMainBlock@CChartAddInBase000000@@MAEXXZ ENDP	; CChartAddInBase000000::OnResetMainBlock
_TEXT	ENDS
; Function compile flags: /Ogtp
; File D:\git\src\IBK\IBK_DRFN\ProjSrc\SrcChartEx\ChartOCX\AddInManager\Include_Addin\I000000\_ChartAddInBase.h
;	COMDAT ?OnCaptureChanged@CChartAddInBase000000@@MAEXPAUHWND__@@QAUHBITMAP__@@@Z
_TEXT	SEGMENT
_p_hWnd$ = 8						; size = 4
_p_hbmpMainOSB$ = 12					; size = 4
?OnCaptureChanged@CChartAddInBase000000@@MAEXPAUHWND__@@QAUHBITMAP__@@@Z PROC ; CChartAddInBase000000::OnCaptureChanged, COMDAT
; _this$ = ecx

; 143  : 	virtual void	OnCaptureChanged( HWND p_hWnd, const HBITMAP p_hbmpMainOSB)	{}	// (2006/11/5 - Seung-Won, Bae) Support MainOSB

  00000	c2 08 00	 ret	 8
?OnCaptureChanged@CChartAddInBase000000@@MAEXPAUHWND__@@QAUHBITMAP__@@@Z ENDP ; CChartAddInBase000000::OnCaptureChanged
_TEXT	ENDS
; Function compile flags: /Ogtp
; File D:\git\src\IBK\IBK_DRFN\ProjSrc\SrcChartEx\ChartOCX\AddInManager\Include_Addin\I000000\_ChartAddInBase.h
;	COMDAT ?OnTimer@CChartAddInBase000000@@MAEXI@Z
_TEXT	SEGMENT
_p_uTimerID$ = 8					; size = 4
?OnTimer@CChartAddInBase000000@@MAEXI@Z PROC		; CChartAddInBase000000::OnTimer, COMDAT
; _this$ = ecx

; 138  : 	virtual void	OnTimer( UINT p_uTimerID)	{}

  00000	c2 04 00	 ret	 4
?OnTimer@CChartAddInBase000000@@MAEXI@Z ENDP		; CChartAddInBase000000::OnTimer
_TEXT	ENDS
; Function compile flags: /Ogtp
; File D:\git\src\IBK\IBK_DRFN\ProjSrc\SrcChartEx\ChartOCX\AddInManager\Include_Addin\I000000\_ChartAddInBase.h
;	COMDAT ?OnPacketDataMultiItem@CChartAddInBase000000@@MAEXPBD0H@Z
_TEXT	SEGMENT
_lpszRQ$ = 8						; size = 4
_p_szPacketNames$ = 12					; size = 4
_p_bWithReset$ = 16					; size = 4
?OnPacketDataMultiItem@CChartAddInBase000000@@MAEXPBD0H@Z PROC ; CChartAddInBase000000::OnPacketDataMultiItem, COMDAT
; _this$ = ecx

; 136  : 	virtual void	OnPacketDataMultiItem(LPCTSTR lpszRQ, const char *p_szPacketNames, BOOL p_bWithReset)	{}

  00000	c2 0c 00	 ret	 12			; 0000000cH
?OnPacketDataMultiItem@CChartAddInBase000000@@MAEXPBD0H@Z ENDP ; CChartAddInBase000000::OnPacketDataMultiItem
_TEXT	ENDS
; Function compile flags: /Ogtp
; File D:\git\src\IBK\IBK_DRFN\ProjSrc\SrcChartEx\ChartOCX\AddInManager\Include_Addin\I000000\_ChartAddInBase.h
;	COMDAT ?OnDrawBeforeGraph@CChartAddInBase000000@@MAEXPAUHDC__@@@Z
_TEXT	SEGMENT
_p_hDC$ = 8						; size = 4
?OnDrawBeforeGraph@CChartAddInBase000000@@MAEXPAUHDC__@@@Z PROC ; CChartAddInBase000000::OnDrawBeforeGraph, COMDAT
; _this$ = ecx

; 132  : 	virtual void	OnDrawBeforeGraph( HDC p_hDC)	{}

  00000	c2 04 00	 ret	 4
?OnDrawBeforeGraph@CChartAddInBase000000@@MAEXPAUHDC__@@@Z ENDP ; CChartAddInBase000000::OnDrawBeforeGraph
_TEXT	ENDS
; Function compile flags: /Ogtp
; File D:\git\src\IBK\IBK_DRFN\ProjSrc\SrcChartEx\ChartOCX\AddInManager\Include_Addin\I000000\_ChartAddInBase.h
;	COMDAT ?OnResetChart@CChartAddInBase000000@@MAEXXZ
_TEXT	SEGMENT
?OnResetChart@CChartAddInBase000000@@MAEXXZ PROC	; CChartAddInBase000000::OnResetChart, COMDAT
; _this$ = ecx

; 130  : 	virtual void	OnResetChart( void)	{}

  00000	c2 00 00	 ret	 0
?OnResetChart@CChartAddInBase000000@@MAEXXZ ENDP	; CChartAddInBase000000::OnResetChart
_TEXT	ENDS
; Function compile flags: /Ogtp
; File D:\git\src\IBK\IBK_DRFN\ProjSrc\SrcChartEx\ChartOCX\AddInManager\Include_Addin\I000000\_ChartAddInBase.h
;	COMDAT ?OnLSharedDataChange@CChartAddInBase000000@@MAEXPBD0@Z
_TEXT	SEGMENT
_p_szLShareKey$ = 8					; size = 4
_p_szLShareValue$ = 12					; size = 4
?OnLSharedDataChange@CChartAddInBase000000@@MAEXPBD0@Z PROC ; CChartAddInBase000000::OnLSharedDataChange, COMDAT
; _this$ = ecx

; 128  : 	virtual void	OnLSharedDataChange( const char *p_szLShareKey, const char *p_szLShareValue)	{}

  00000	c2 08 00	 ret	 8
?OnLSharedDataChange@CChartAddInBase000000@@MAEXPBD0@Z ENDP ; CChartAddInBase000000::OnLSharedDataChange
_TEXT	ENDS
; Function compile flags: /Ogtp
; File D:\git\src\IBK\IBK_DRFN\ProjSrc\SrcChartEx\ChartOCX\AddInManager\Include_Addin\I000000\_ChartAddInBase.h
;	COMDAT ?OnGSharedDataChange@CChartAddInBase000000@@MAEXPBD0H@Z
_TEXT	SEGMENT
_p_szGShareKey$ = 8					; size = 4
_p_szGShareValue$ = 12					; size = 4
_p_bStartShare$ = 16					; size = 4
?OnGSharedDataChange@CChartAddInBase000000@@MAEXPBD0H@Z PROC ; CChartAddInBase000000::OnGSharedDataChange, COMDAT
; _this$ = ecx

; 126  : 	virtual void	OnGSharedDataChange( const char *p_szGShareKey, const char *p_szGShareValue, BOOL p_bStartShare)	{}

  00000	c2 0c 00	 ret	 12			; 0000000cH
?OnGSharedDataChange@CChartAddInBase000000@@MAEXPBD0H@Z ENDP ; CChartAddInBase000000::OnGSharedDataChange
_TEXT	ENDS
; Function compile flags: /Ogtp
; File D:\git\src\IBK\IBK_DRFN\ProjSrc\SrcChartEx\ChartOCX\AddInManager\Include_Addin\I000000\_ChartAddInBase.h
;	COMDAT ?ChangeChartMode@CChartAddInBase000000@@MAEXW4CHART_MODE@CChartInfo@@@Z
_TEXT	SEGMENT
_p_eChartMode$ = 8					; size = 4
?ChangeChartMode@CChartAddInBase000000@@MAEXW4CHART_MODE@CChartInfo@@@Z PROC ; CChartAddInBase000000::ChangeChartMode, COMDAT
; _this$ = ecx

; 116  : 	virtual void	ChangeChartMode( CChartInfo::CHART_MODE p_eChartMode)	{	m_eChartMode = p_eChartMode;	}

  00000	55		 push	 ebp
  00001	8b ec		 mov	 ebp, esp
  00003	8b 45 08	 mov	 eax, DWORD PTR _p_eChartMode$[ebp]
  00006	89 41 34	 mov	 DWORD PTR [ecx+52], eax
  00009	5d		 pop	 ebp
  0000a	c2 04 00	 ret	 4
?ChangeChartMode@CChartAddInBase000000@@MAEXW4CHART_MODE@CChartInfo@@@Z ENDP ; CChartAddInBase000000::ChangeChartMode
_TEXT	ENDS
; Function compile flags: /Ogtp
; File D:\git\src\IBK\IBK_DRFN\ProjSrc\SrcChartEx\ChartOCX\AddInManager\Include_Addin\I000000\_ChartAddInBase.h
;	COMDAT ?AfeterOnOcxDestroyWindow@CChartAddInBase000000@@MAEXXZ
_TEXT	SEGMENT
?AfeterOnOcxDestroyWindow@CChartAddInBase000000@@MAEXXZ PROC ; CChartAddInBase000000::AfeterOnOcxDestroyWindow, COMDAT
; _this$ = ecx

; 109  : 	virtual void	AfeterOnOcxDestroyWindow( void)							{}

  00000	c2 00 00	 ret	 0
?AfeterOnOcxDestroyWindow@CChartAddInBase000000@@MAEXXZ ENDP ; CChartAddInBase000000::AfeterOnOcxDestroyWindow
_TEXT	ENDS
; Function compile flags: /Ogtp
; File D:\git\src\IBK\IBK_DRFN\ProjSrc\SrcChartEx\ChartOCX\AddInManager\Include_Addin\I000000\_ChartAddInBase.h
;	COMDAT ?InvokeAddInStr@CChartAddInBase000000@@MAEHPBD0@Z
_TEXT	SEGMENT
_p_szCommandName$ = 8					; size = 4
_p_szData$ = 12						; size = 4
?InvokeAddInStr@CChartAddInBase000000@@MAEHPBD0@Z PROC	; CChartAddInBase000000::InvokeAddInStr, COMDAT
; _this$ = ecx

; 92   : 	virtual BOOL	InvokeAddInStr( LPCTSTR p_szCommandName, LPCTSTR p_szData)	{	return FALSE;	}	// (2005/9/2 - Seung-Won, Bae) for String Data

  00000	33 c0		 xor	 eax, eax
  00002	c2 08 00	 ret	 8
?InvokeAddInStr@CChartAddInBase000000@@MAEHPBD0@Z ENDP	; CChartAddInBase000000::InvokeAddInStr
_TEXT	ENDS
; Function compile flags: /Ogtp
; File D:\git\src\IBK\IBK_DRFN\ProjSrc\SrcChartEx\ChartOCX\AddInManager\Include_Addin\I000000\_ChartAddInBase.h
;	COMDAT ?InvokeAddIn@CChartAddInBase000000@@MAEHHJ@Z
_TEXT	SEGMENT
_p_nCommandType$ = 8					; size = 4
_p_lData$ = 12						; size = 4
?InvokeAddIn@CChartAddInBase000000@@MAEHHJ@Z PROC	; CChartAddInBase000000::InvokeAddIn, COMDAT
; _this$ = ecx

; 91   : 	virtual BOOL	InvokeAddIn( int p_nCommandType, long p_lData)	{	return FALSE;	}

  00000	33 c0		 xor	 eax, eax
  00002	c2 08 00	 ret	 8
?InvokeAddIn@CChartAddInBase000000@@MAEHHJ@Z ENDP	; CChartAddInBase000000::InvokeAddIn
_TEXT	ENDS
; Function compile flags: /Ogtp
; File D:\git\src\IBK\IBK_DRFN\ProjSrc\SrcChartEx\ChartOCX\AddInManager\Include_Addin\I000000\_ChartAddInBase.h
;	COMDAT ?GetAddInCustomInterface@CChartAddInBase000000@@MAEPAUIUnknown@@XZ
_TEXT	SEGMENT
?GetAddInCustomInterface@CChartAddInBase000000@@MAEPAUIUnknown@@XZ PROC ; CChartAddInBase000000::GetAddInCustomInterface, COMDAT
; _this$ = ecx

; 87   : 	virtual IUnknown *	GetAddInCustomInterface( void)				{	return NULL;	}

  00000	33 c0		 xor	 eax, eax
  00002	c3		 ret	 0
?GetAddInCustomInterface@CChartAddInBase000000@@MAEPAUIUnknown@@XZ ENDP ; CChartAddInBase000000::GetAddInCustomInterface
_TEXT	ENDS
; Function compile flags: /Ogtp
; File D:\git\src\IBK\IBK_DRFN\ProjSrc\SrcChartEx\ChartOCX\AddInManager\Include_Addin\I000000\_ChartAddInBase.h
;	COMDAT ?QueryInterface@CChartAddInBase000000@@MAGJABU_GUID@@PAPAX@Z
_TEXT	SEGMENT
_this$ = 8						; size = 4
_iid$ = 12						; size = 4
_ppvObject$ = 16					; size = 4
?QueryInterface@CChartAddInBase000000@@MAGJABU_GUID@@PAPAX@Z PROC ; CChartAddInBase000000::QueryInterface, COMDAT

; 54   : 	_IWRAPPER_IUNKNOWN_INTERFACE()

  00000	b8 02 40 00 80	 mov	 eax, -2147467262	; 80004002H
  00005	c2 0c 00	 ret	 12			; 0000000cH
?QueryInterface@CChartAddInBase000000@@MAGJABU_GUID@@PAPAX@Z ENDP ; CChartAddInBase000000::QueryInterface
_TEXT	ENDS
; Function compile flags: /Ogtp
; File D:\git\src\IBK\IBK_DRFN\ProjSrc\SrcChartEx\ChartOCX\AddInManager\Include_Addin\I000000\_ChartAddInBase.h
;	COMDAT ?Release@CChartAddInBase000000@@MAGKXZ
_TEXT	SEGMENT
_this$ = 8						; size = 4
?Release@CChartAddInBase000000@@MAGKXZ PROC		; CChartAddInBase000000::Release, COMDAT

; 54   : 	_IWRAPPER_IUNKNOWN_INTERFACE()

  00000	55		 push	 ebp
  00001	8b ec		 mov	 ebp, esp
  00003	5d		 pop	 ebp
  00004	e9 00 00 00 00	 jmp	 ?Release@CIWUnknown@@MAGKXZ ; CIWUnknown::Release
?Release@CChartAddInBase000000@@MAGKXZ ENDP		; CChartAddInBase000000::Release
_TEXT	ENDS
; Function compile flags: /Ogtp
; File D:\git\src\IBK\IBK_DRFN\ProjSrc\SrcChartEx\ChartOCX\AddInManager\Include_Addin\I000000\_ChartAddInBase.h
;	COMDAT ?AddRef@CChartAddInBase000000@@MAGKXZ
_TEXT	SEGMENT
_this$ = 8						; size = 4
?AddRef@CChartAddInBase000000@@MAGKXZ PROC		; CChartAddInBase000000::AddRef, COMDAT

; 54   : 	_IWRAPPER_IUNKNOWN_INTERFACE()

  00000	55		 push	 ebp
  00001	8b ec		 mov	 ebp, esp
  00003	5d		 pop	 ebp
  00004	e9 00 00 00 00	 jmp	 ?AddRef@CIWUnknown@@MAGKXZ ; CIWUnknown::AddRef
?AddRef@CChartAddInBase000000@@MAGKXZ ENDP		; CChartAddInBase000000::AddRef
_TEXT	ENDS
; Function compile flags: /Ogtp
; File D:\git\src\IBK\IBK_DRFN\ProjSrc\SrcChartEx\ChartOCX\AddInManager\Include_Addin\_IWUnknown.h
;	COMDAT ?PreDestruct@CIWUnknown@@MAEXXZ
_TEXT	SEGMENT
?PreDestruct@CIWUnknown@@MAEXXZ PROC			; CIWUnknown::PreDestruct, COMDAT
; _this$ = ecx

; 49   : 	virtual void	PreDestruct( void)		{}

  00000	c2 00 00	 ret	 0
?PreDestruct@CIWUnknown@@MAEXXZ ENDP			; CIWUnknown::PreDestruct
_TEXT	ENDS
; Function compile flags: /Ogtp
; File D:\git\src\IBK\IBK_DRFN\ProjSrc\SrcChartEx\ChartOCX\AddInManager\Include_Addin\_IWUnknown.h
;	COMDAT ?PreDestructX@CIWUnknown@@MAEXXZ
_TEXT	SEGMENT
?PreDestructX@CIWUnknown@@MAEXXZ PROC			; CIWUnknown::PreDestructX, COMDAT
; _this$ = ecx

; 48   : 	virtual void	PreDestructX( void)		{}

  00000	c2 00 00	 ret	 0
?PreDestructX@CIWUnknown@@MAEXXZ ENDP			; CIWUnknown::PreDestructX
_TEXT	ENDS
; Function compile flags: /Ogtp
; File D:\git\src\IBK\IBK_DRFN\ProjSrc\SrcChartEx\ChartOCX\AddInManager\Include_Addin\_IWUnknown.h
;	COMDAT ?PostConstruct@CIWUnknown@@MAEXXZ
_TEXT	SEGMENT
?PostConstruct@CIWUnknown@@MAEXXZ PROC			; CIWUnknown::PostConstruct, COMDAT
; _this$ = ecx

; 47   : 	virtual void	PostConstruct( void)	{}

  00000	c2 00 00	 ret	 0
?PostConstruct@CIWUnknown@@MAEXXZ ENDP			; CIWUnknown::PostConstruct
_TEXT	ENDS
; Function compile flags: /Ogtp
; File C:\Program Files (x86)\Microsoft Visual Studio\2019\Community\VC\Tools\MSVC\14.29.30133\atlmfc\include\afx.inl
;	COMDAT ?Dump@CObject@@UBEXAAVCDumpContext@@@Z
_TEXT	SEGMENT
___formal$ = 8						; size = 4
?Dump@CObject@@UBEXAAVCDumpContext@@@Z PROC		; CObject::Dump, COMDAT
; _this$ = ecx

; 122  : 	{ /* no dumping in release builds */ }

  00000	c2 04 00	 ret	 4
?Dump@CObject@@UBEXAAVCDumpContext@@@Z ENDP		; CObject::Dump
_TEXT	ENDS
; Function compile flags: /Ogtp
; File C:\Program Files (x86)\Microsoft Visual Studio\2019\Community\VC\Tools\MSVC\14.29.30133\atlmfc\include\afx.inl
;	COMDAT ?AssertValid@CObject@@UBEXXZ
_TEXT	SEGMENT
?AssertValid@CObject@@UBEXXZ PROC			; CObject::AssertValid, COMDAT
; _this$ = ecx

; 120  : 	{ /* no asserts in release builds */ }

  00000	c2 00 00	 ret	 0
?AssertValid@CObject@@UBEXXZ ENDP			; CObject::AssertValid
_TEXT	ENDS
; Function compile flags: /Ogtp
; File C:\Program Files (x86)\Microsoft Visual Studio\2019\Community\VC\Tools\MSVC\14.29.30133\atlmfc\include\afx.inl
;	COMDAT ?Serialize@CObject@@UAEXAAVCArchive@@@Z
_TEXT	SEGMENT
___formal$ = 8						; size = 4
?Serialize@CObject@@UAEXAAVCArchive@@@Z PROC		; CObject::Serialize, COMDAT
; _this$ = ecx

; 106  : 	{ /* CObject does not serialize anything by default */ }

  00000	c2 04 00	 ret	 4
?Serialize@CObject@@UAEXAAVCArchive@@@Z ENDP		; CObject::Serialize
_TEXT	ENDS
; Function compile flags: /Ogtp
; File D:\git\src\IBK\IBK_DRFN\ProjSrc\SrcChartEx\ChartOCX\AddInManager\ChartCommonAddIn\DragYZoomAddInImp.cpp
;	COMDAT ?__empty_global_delete@@YAXPAXI@Z
_TEXT	SEGMENT
___formal$ = 8						; size = 4
___formal$ = 12						; size = 4
?__empty_global_delete@@YAXPAXI@Z PROC			; __empty_global_delete, COMDAT

  00000	c2 00 00	 ret	 0
?__empty_global_delete@@YAXPAXI@Z ENDP			; __empty_global_delete
_TEXT	ENDS
; Function compile flags: /Ogtp
; File D:\git\src\IBK\IBK_DRFN\ProjSrc\SrcChartEx\ChartOCX\AddInManager\ChartCommonAddIn\DragYZoomAddInImp.cpp
;	COMDAT ?__empty_global_delete@@YAXPAX@Z
_TEXT	SEGMENT
___formal$ = 8						; size = 4
?__empty_global_delete@@YAXPAX@Z PROC			; __empty_global_delete, COMDAT

  00000	c2 00 00	 ret	 0
?__empty_global_delete@@YAXPAX@Z ENDP			; __empty_global_delete
_TEXT	ENDS
END
