; Listing generated by Microsoft (R) Optimizing Compiler Version 19.29.30145.0 

	TITLE	D:\git\src\IBK\IBK_DRFN\#DRfn-CS\_Obj\ChartCommonAddIn\DrdsRealReceiverAddInImp.obj
	.686P
	.XMM
	include listing.inc
	.model	flat

INCLUDELIB MSVCRT
INCLUDELIB OLDNAMES

PUBLIC	??_C@_09FGDPAPOG@DRDS_REAL@			; `string'
PUBLIC	?m_eRegisteredEventMap@CDrdsRealReceiverAddInImp@@1QBW4EAddInEventType@IChartAddIn000000@@B ; CDrdsRealReceiverAddInImp::m_eRegisteredEventMap
CONST	SEGMENT
?_Fake_alloc@std@@3U_Fake_allocator@1@B	ORG $+1		; std::_Fake_alloc
	ORG $+7
?m_eRegisteredEventMap@CDrdsRealReceiverAddInImp@@1QBW4EAddInEventType@IChartAddIn000000@@B DD 03cH ; CDrdsRealReceiverAddInImp::m_eRegisteredEventMap
	ORG $+240
CONST	ENDS
;	COMDAT ??_C@_09FGDPAPOG@DRDS_REAL@
CONST	SEGMENT
??_C@_09FGDPAPOG@DRDS_REAL@ DB 'DRDS_REAL', 00H		; `string'
CONST	ENDS
PUBLIC	?__empty_global_delete@@YAXPAX@Z		; __empty_global_delete
PUBLIC	?__empty_global_delete@@YAXPAXI@Z		; __empty_global_delete
PUBLIC	??3CObject@@SGXPAX@Z				; CObject::operator delete
PUBLIC	?Serialize@CObject@@UAEXAAVCArchive@@@Z		; CObject::Serialize
PUBLIC	?AssertValid@CObject@@UBEXXZ			; CObject::AssertValid
PUBLIC	?Dump@CObject@@UBEXAAVCDumpContext@@@Z		; CObject::Dump
PUBLIC	??HATL@@YA?AV?$CStringT@DV?$StrTraitMFC_DLL@DV?$ChTraitsCRT@D@ATL@@@@@0@ABV10@PBD@Z ; ATL::operator+
PUBLIC	??1CDrdsLoadLib@@QAE@XZ				; CDrdsLoadLib::~CDrdsLoadLib
PUBLIC	?SetRealData@IRealReceiver@@UAEHPBDNH@Z		; IRealReceiver::SetRealData
PUBLIC	?SetRealPacketEnd@IRealReceiver@@UAEHH@Z	; IRealReceiver::SetRealPacketEnd
PUBLIC	?SetRealTimeTickUse@IRealReceiver@@UAEH_N@Z	; IRealReceiver::SetRealTimeTickUse
PUBLIC	?IsInLogging@IRealReceiver@@UAEHXZ		; IRealReceiver::IsInLogging
PUBLIC	?WriteToStringLog@IRealReceiver@@UAEXPBD@Z	; IRealReceiver::WriteToStringLog
PUBLIC	?OffsetPacketData@IRealReceiver@@UAEXPBDN@Z	; IRealReceiver::OffsetPacketData
PUBLIC	?SetRealData@IOldHTSRealReceiver@@UAEHPBDN@Z	; IOldHTSRealReceiver::SetRealData
PUBLIC	?SetRealPacketEnd@IOldHTSRealReceiver@@UAEHXZ	; IOldHTSRealReceiver::SetRealPacketEnd
PUBLIC	?SetRealDataRQ@IOldHTSRealReceiver@@UAEHPBD0N@Z	; IOldHTSRealReceiver::SetRealDataRQ
PUBLIC	?SetRealPacketEndRQ@IOldHTSRealReceiver@@UAEHPBD@Z ; IOldHTSRealReceiver::SetRealPacketEndRQ
PUBLIC	?SetRealData@IOldFXRealReceiver@@UAEHPBDN@Z	; IOldFXRealReceiver::SetRealData
PUBLIC	?SetRealPacketEnd@IOldFXRealReceiver@@UAEHXZ	; IOldFXRealReceiver::SetRealPacketEnd
PUBLIC	?SetRealDataRQ@IOldFXRealReceiver@@UAEHPBD0N@Z	; IOldFXRealReceiver::SetRealDataRQ
PUBLIC	?SetRealPacketEndRQ@IOldFXRealReceiver@@UAEHPBD@Z ; IOldFXRealReceiver::SetRealPacketEndRQ
PUBLIC	?SetRealTimeTickUse@IOldFXRealReceiver@@UAEH_N@Z ; IOldFXRealReceiver::SetRealTimeTickUse
PUBLIC	?PostConstruct@CIWUnknown@@MAEXXZ		; CIWUnknown::PostConstruct
PUBLIC	?PreDestructX@CIWUnknown@@MAEXXZ		; CIWUnknown::PreDestructX
PUBLIC	?PreDestruct@CIWUnknown@@MAEXXZ			; CIWUnknown::PreDestruct
PUBLIC	?InvokeAddIn@CChartAddInBase000000@@MAEHHJ@Z	; CChartAddInBase000000::InvokeAddIn
PUBLIC	?InvokeAddInStr@CChartAddInBase000000@@MAEHPBD0@Z ; CChartAddInBase000000::InvokeAddInStr
PUBLIC	?AfeterOnOcxDestroyWindow@CChartAddInBase000000@@MAEXXZ ; CChartAddInBase000000::AfeterOnOcxDestroyWindow
PUBLIC	?ChangeChartMode@CChartAddInBase000000@@MAEXW4CHART_MODE@CChartInfo@@@Z ; CChartAddInBase000000::ChangeChartMode
PUBLIC	?OnGSharedDataChange@CChartAddInBase000000@@MAEXPBD0H@Z ; CChartAddInBase000000::OnGSharedDataChange
PUBLIC	?OnLSharedDataChange@CChartAddInBase000000@@MAEXPBD0@Z ; CChartAddInBase000000::OnLSharedDataChange
PUBLIC	?OnResetChart@CChartAddInBase000000@@MAEXXZ	; CChartAddInBase000000::OnResetChart
PUBLIC	?OnDrawBeforeGraph@CChartAddInBase000000@@MAEXPAUHDC__@@@Z ; CChartAddInBase000000::OnDrawBeforeGraph
PUBLIC	?OnTimer@CChartAddInBase000000@@MAEXI@Z		; CChartAddInBase000000::OnTimer
PUBLIC	?OnCaptureChanged@CChartAddInBase000000@@MAEXPAUHWND__@@QAUHBITMAP__@@@Z ; CChartAddInBase000000::OnCaptureChanged
PUBLIC	?OnResetMainBlock@CChartAddInBase000000@@MAEXXZ	; CChartAddInBase000000::OnResetMainBlock
PUBLIC	?OnUserIndiatorConditionLoaded@CChartAddInBase000000@@MAEXXZ ; CChartAddInBase000000::OnUserIndiatorConditionLoaded
PUBLIC	?OnChartItemChanged@CChartAddInBase000000@@MAEXXZ ; CChartAddInBase000000::OnChartItemChanged
PUBLIC	?OnGraphDataChanged@CChartAddInBase000000@@MAEXXZ ; CChartAddInBase000000::OnGraphDataChanged
PUBLIC	?OnBlockRemoved@CChartAddInBase000000@@MAEXHH@Z	; CChartAddInBase000000::OnBlockRemoved
PUBLIC	?OnGraphAdded@CChartAddInBase000000@@MAEXPBD0@Z	; CChartAddInBase000000::OnGraphAdded
PUBLIC	?OnManualRealData@CChartAddInBase000000@@MAEXPBDNH@Z ; CChartAddInBase000000::OnManualRealData
PUBLIC	?OnContextMenu@CChartAddInBase000000@@MAEXPAUHWND__@@AAUtagPOINT@@@Z ; CChartAddInBase000000::OnContextMenu
PUBLIC	?OnGraphDeleted@CChartAddInBase000000@@MAEXPBD0@Z ; CChartAddInBase000000::OnGraphDeleted
PUBLIC	?OnPacketTruncated@CChartAddInBase000000@@MAEXH@Z ; CChartAddInBase000000::OnPacketTruncated
PUBLIC	?OnBlockChanged@CChartAddInBase000000@@MAEXW4BLOCKBEHAVIOR@CBlockBaseData@@HHHH@Z ; CChartAddInBase000000::OnBlockChanged
PUBLIC	?OnToolCommand@CChartAddInBase000000@@MAEXHH@Z	; CChartAddInBase000000::OnToolCommand
PUBLIC	?OnRealData@CChartAddInBase000000@@MAEXPBDN0@Z	; CChartAddInBase000000::OnRealData
PUBLIC	?OnIndexedRealData@CChartAddInBase000000@@MAEXPBDHN@Z ; CChartAddInBase000000::OnIndexedRealData
PUBLIC	?OnRealPacketEnd@CChartAddInBase000000@@MAEXPBD@Z ; CChartAddInBase000000::OnRealPacketEnd
PUBLIC	?OnLoadEnvironment@CChartAddInBase000000@@MAEXPAUIPropertyMap@@@Z ; CChartAddInBase000000::OnLoadEnvironment
PUBLIC	?OnSaveEnvironment@CChartAddInBase000000@@MAEXPAUIPropertyMap@@@Z ; CChartAddInBase000000::OnSaveEnvironment
PUBLIC	?DrawCursor@CChartAddInBase000000@@MAE?AUtagRECT@@PAUHDC__@@@Z ; CChartAddInBase000000::DrawCursor
PUBLIC	?OnRecalculationComplete@CChartAddInBase000000@@MAEXXZ ; CChartAddInBase000000::OnRecalculationComplete
PUBLIC	?OnPreRealData@CChartAddInBase000000@@MAEHPBDAAN0H@Z ; CChartAddInBase000000::OnPreRealData
PUBLIC	?OnPreIndexedRealData@CChartAddInBase000000@@MAEHPBDHAANH@Z ; CChartAddInBase000000::OnPreIndexedRealData
PUBLIC	?OnPreRealPacketEnd@CChartAddInBase000000@@MAEHPBDH@Z ; CChartAddInBase000000::OnPreRealPacketEnd
PUBLIC	?OnPreNMTRClock@CChartAddInBase000000@@MAEHAA_J@Z ; CChartAddInBase000000::OnPreNMTRClock
PUBLIC	?OnCmdMsg@CChartAddInBase000000@@MAEHIHPAUICmdUI000000@@@Z ; CChartAddInBase000000::OnCmdMsg
PUBLIC	?OnAddInMsg@CChartAddInBase000000@@MAEHPBDJ@Z	; CChartAddInBase000000::OnAddInMsg
PUBLIC	?OnAddInToolCommand@CChartAddInBase000000@@MAEHW4EAICommandType@@@Z ; CChartAddInBase000000::OnAddInToolCommand
PUBLIC	?OnAddInToolCommand@CChartAddInBase000000@@MAEHW4EAICommandType@@PAUHDC__@@IAAUtagPOINT@@K@Z ; CChartAddInBase000000::OnAddInToolCommand
PUBLIC	?OnAddInToolCommand@CChartAddInBase000000@@MAEHW4EAICommandType@@PBD@Z ; CChartAddInBase000000::OnAddInToolCommand
PUBLIC	?OnAddInToolCommand@CChartAddInBase000000@@MAEHW4EAICommandType@@PBD1@Z ; CChartAddInBase000000::OnAddInToolCommand
PUBLIC	?OnAddInToolCommand@CChartAddInBase000000@@MAEHW4EAICommandType@@PBDJ@Z ; CChartAddInBase000000::OnAddInToolCommand
PUBLIC	?OnAddInToolCommand@CChartAddInBase000000@@MAEHW4EAICommandType@@PBUIAddInDllBase@@@Z ; CChartAddInBase000000::OnAddInToolCommand
PUBLIC	?OnAddInToolCommand@CChartAddInBase000000@@MAEHW4EAICommandType@@J@Z ; CChartAddInBase000000::OnAddInToolCommand
PUBLIC	?OnAddInToolCommand@CChartAddInBase000000@@MAEHW4EAICommandType@@JPBD@Z ; CChartAddInBase000000::OnAddInToolCommand
PUBLIC	?OnAddInToolCommand@CChartAddInBase000000@@MAEHW4EAICommandType@@JPBD11@Z ; CChartAddInBase000000::OnAddInToolCommand
PUBLIC	?OnAddInToolCommand@CChartAddInBase000000@@MAEHW4EAICommandType@@JJ@Z ; CChartAddInBase000000::OnAddInToolCommand
PUBLIC	?OnAddInToolCommand@CChartAddInBase000000@@MAEHW4EAICommandType@@JJJJJJJJJ@Z ; CChartAddInBase000000::OnAddInToolCommand
PUBLIC	?OnAddInToolCommand@CChartAddInBase000000@@MAEHAAJW4EAICommandType@@@Z ; CChartAddInBase000000::OnAddInToolCommand
PUBLIC	?OnAddInToolCommand@CChartAddInBase000000@@MAEHAAJW4EAICommandType@@PAUIGraphInfo000000@@@Z ; CChartAddInBase000000::OnAddInToolCommand
PUBLIC	?OnAddInToolCommand@CChartAddInBase000000@@MAEHAAJW4EAICommandType@@PBD@Z ; CChartAddInBase000000::OnAddInToolCommand
PUBLIC	?OnAddInToolCommand@CChartAddInBase000000@@MAEHAAJW4EAICommandType@@PBDPAVCObject@@@Z ; CChartAddInBase000000::OnAddInToolCommand
PUBLIC	?OnAddInToolCommand@CChartAddInBase000000@@MAEHAAJW4EAICommandType@@J@Z ; CChartAddInBase000000::OnAddInToolCommand
PUBLIC	?OnAddInToolCommand@CChartAddInBase000000@@MAEHAAJW4EAICommandType@@JJ@Z ; CChartAddInBase000000::OnAddInToolCommand
PUBLIC	?OnKeyDown@CChartAddInBase000000@@MAEHIII@Z	; CChartAddInBase000000::OnKeyDown
PUBLIC	?OnKeyUp@CChartAddInBase000000@@MAEHIII@Z	; CChartAddInBase000000::OnKeyUp
PUBLIC	?OnMouseWheel@CChartAddInBase000000@@MAEHIFUtagPOINT@@K@Z ; CChartAddInBase000000::OnMouseWheel
PUBLIC	?OnMouseMove@CChartAddInBase000000@@MAEHPAUHDC__@@IAAUtagPOINT@@KQAUHBITMAP__@@@Z ; CChartAddInBase000000::OnMouseMove
PUBLIC	?OnLButtonDown@CChartAddInBase000000@@MAEHPAUHDC__@@IAAUtagPOINT@@K@Z ; CChartAddInBase000000::OnLButtonDown
PUBLIC	?OnLButtonUp@CChartAddInBase000000@@MAEHPAUHDC__@@IAAUtagPOINT@@K@Z ; CChartAddInBase000000::OnLButtonUp
PUBLIC	?OnLButtonDblClk@CChartAddInBase000000@@MAEHPAUHDC__@@IAAUtagPOINT@@K@Z ; CChartAddInBase000000::OnLButtonDblClk
PUBLIC	?OnRButtonDown@CChartAddInBase000000@@MAEHPAUHDC__@@IAAUtagPOINT@@K@Z ; CChartAddInBase000000::OnRButtonDown
PUBLIC	?OnRButtonUp@CChartAddInBase000000@@MAEHPAUHDC__@@IAAUtagPOINT@@K@Z ; CChartAddInBase000000::OnRButtonUp
PUBLIC	?OnRButtonDblClk@CChartAddInBase000000@@MAEHPAUHDC__@@IAAUtagPOINT@@K@Z ; CChartAddInBase000000::OnRButtonDblClk
PUBLIC	?AddRef@CRealReceiverAddInImp@@MAGKXZ		; CRealReceiverAddInImp::AddRef
PUBLIC	?Release@CRealReceiverAddInImp@@MAGKXZ		; CRealReceiverAddInImp::Release
PUBLIC	?QueryInterface@CRealReceiverAddInImp@@MAGJABU_GUID@@PAPAX@Z ; CRealReceiverAddInImp::QueryInterface
PUBLIC	?GetNMTRClock@CRealReceiverAddInImp@@UAE_JXZ	; CRealReceiverAddInImp::GetNMTRClock
PUBLIC	??0CDrdsRealReceiverAddInImp@@QAE@PAUIChartOCX000000@@PAUIAddInDllBase@@@Z ; CDrdsRealReceiverAddInImp::CDrdsRealReceiverAddInImp
PUBLIC	??1CDrdsRealReceiverAddInImp@@UAE@XZ		; CDrdsRealReceiverAddInImp::~CDrdsRealReceiverAddInImp
PUBLIC	?GetRegisteredEventMap@CDrdsRealReceiverAddInImp@@MBEPBW4EAddInEventType@IChartAddIn000000@@XZ ; CDrdsRealReceiverAddInImp::GetRegisteredEventMap
PUBLIC	?ResetRealSettingInfo@CDrdsRealReceiverAddInImp@@MAEHPBD@Z ; CDrdsRealReceiverAddInImp::ResetRealSettingInfo
PUBLIC	?AddRealSettingInfo@CDrdsRealReceiverAddInImp@@MAEHPBDPAV?$CStringT@DV?$StrTraitMFC_DLL@DV?$ChTraitsCRT@D@ATL@@@@@ATL@@1D@Z ; CDrdsRealReceiverAddInImp::AddRealSettingInfo
PUBLIC	?RemoveRealSettingInfo@CDrdsRealReceiverAddInImp@@MAEHPBDPAV?$CStringT@DV?$StrTraitMFC_DLL@DV?$ChTraitsCRT@D@ATL@@@@@ATL@@D@Z ; CDrdsRealReceiverAddInImp::RemoveRealSettingInfo
PUBLIC	?SetRealAdvise@CDrdsRealReceiverAddInImp@@MAEHH@Z ; CDrdsRealReceiverAddInImp::SetRealAdvise
PUBLIC	?SetRealAdviseRQ@CDrdsRealReceiverAddInImp@@MAEHPBDH@Z ; CDrdsRealReceiverAddInImp::SetRealAdviseRQ
PUBLIC	?GetRealAdvisedInfo@CDrdsRealReceiverAddInImp@@MAEHAAV?$CStringT@DV?$StrTraitMFC_DLL@DV?$ChTraitsCRT@D@ATL@@@@@ATL@@@Z ; CDrdsRealReceiverAddInImp::GetRealAdvisedInfo
PUBLIC	?SetDrdsData@CDrdsRealReceiverAddInImp@@MAEHIJ@Z ; CDrdsRealReceiverAddInImp::SetDrdsData
PUBLIC	?SetDrdsPacketEnd@CDrdsRealReceiverAddInImp@@MAEHIJ@Z ; CDrdsRealReceiverAddInImp::SetDrdsPacketEnd
PUBLIC	?AddRealSettingInfoRQ@CDrdsRealReceiverAddInImp@@MAEHPBD0PAV?$CStringT@DV?$StrTraitMFC_DLL@DV?$ChTraitsCRT@D@ATL@@@@@ATL@@1D@Z ; CDrdsRealReceiverAddInImp::AddRealSettingInfoRQ
PUBLIC	?RemoveRealSettingInfoRQ@CDrdsRealReceiverAddInImp@@MAEHPBD0PAV?$CStringT@DV?$StrTraitMFC_DLL@DV?$ChTraitsCRT@D@ATL@@@@@ATL@@D@Z ; CDrdsRealReceiverAddInImp::RemoveRealSettingInfoRQ
PUBLIC	?RemoveRQPacket@CDrdsRealReceiverAddInImp@@MAEXPBD@Z ; CDrdsRealReceiverAddInImp::RemoveRQPacket
PUBLIC	?OffDrdsAdvise@CDrdsRealReceiverAddInImp@@IAEHPBD@Z ; CDrdsRealReceiverAddInImp::OffDrdsAdvise
PUBLIC	?OnDrdsAdvise@CDrdsRealReceiverAddInImp@@IAEHPBD@Z ; CDrdsRealReceiverAddInImp::OnDrdsAdvise
PUBLIC	?GetDrdsAdvisedRQ@CDrdsRealReceiverAddInImp@@IAEPBDPAXPBD1@Z ; CDrdsRealReceiverAddInImp::GetDrdsAdvisedRQ
PUBLIC	?GetNMTRClock@CDrdsRealReceiverAddInImp@@MAE_JXZ ; CDrdsRealReceiverAddInImp::GetNMTRClock
PUBLIC	??_GCDrdsRealReceiverAddInImp@@UAEPAXI@Z	; CDrdsRealReceiverAddInImp::`scalar deleting destructor'
PUBLIC	??1ILPCSTR000000@@QAE@XZ			; ILPCSTR000000::~ILPCSTR000000
PUBLIC	?QueryInterface@CRealReceiverAddInImp@@O7AGJABU_GUID@@PAPAX@Z ; [thunk]:CRealReceiverAddInImp::QueryInterface`adjustor{8}'
PUBLIC	?AddRef@CRealReceiverAddInImp@@O7AGKXZ		; [thunk]:CRealReceiverAddInImp::AddRef`adjustor{8}'
PUBLIC	?Release@CRealReceiverAddInImp@@O7AGKXZ		; [thunk]:CRealReceiverAddInImp::Release`adjustor{8}'
PUBLIC	??_ECDrdsRealReceiverAddInImp@@W7AEPAXI@Z	; [thunk]:CDrdsRealReceiverAddInImp::`vector deleting destructor'
PUBLIC	?QueryInterface@CRealReceiverAddInImp@@OEA@AGJABU_GUID@@PAPAX@Z ; [thunk]:CRealReceiverAddInImp::QueryInterface`adjustor{64}'
PUBLIC	?AddRef@CRealReceiverAddInImp@@OEA@AGKXZ	; [thunk]:CRealReceiverAddInImp::AddRef`adjustor{64}'
PUBLIC	?Release@CRealReceiverAddInImp@@OEA@AGKXZ	; [thunk]:CRealReceiverAddInImp::Release`adjustor{64}'
PUBLIC	??_ECDrdsRealReceiverAddInImp@@WEA@AEPAXI@Z	; [thunk]:CDrdsRealReceiverAddInImp::`vector deleting destructor'
PUBLIC	?QueryInterface@CRealReceiverAddInImp@@OEE@AGJABU_GUID@@PAPAX@Z ; [thunk]:CRealReceiverAddInImp::QueryInterface`adjustor{68}'
PUBLIC	?AddRef@CRealReceiverAddInImp@@OEE@AGKXZ	; [thunk]:CRealReceiverAddInImp::AddRef`adjustor{68}'
PUBLIC	?Release@CRealReceiverAddInImp@@OEE@AGKXZ	; [thunk]:CRealReceiverAddInImp::Release`adjustor{68}'
PUBLIC	??_ECDrdsRealReceiverAddInImp@@WEE@AEPAXI@Z	; [thunk]:CDrdsRealReceiverAddInImp::`vector deleting destructor'
PUBLIC	?ResetRealSettingInfo@CDrdsRealReceiverAddInImp@@O3AEHPBD@Z ; [thunk]:CDrdsRealReceiverAddInImp::ResetRealSettingInfo`adjustor{4}'
PUBLIC	?AddRealSettingInfo@CDrdsRealReceiverAddInImp@@O3AEHPBDPAV?$CStringT@DV?$StrTraitMFC_DLL@DV?$ChTraitsCRT@D@ATL@@@@@ATL@@1D@Z ; [thunk]:CDrdsRealReceiverAddInImp::AddRealSettingInfo`adjustor{4}'
PUBLIC	?RemoveRealSettingInfo@CDrdsRealReceiverAddInImp@@O3AEHPBDPAV?$CStringT@DV?$StrTraitMFC_DLL@DV?$ChTraitsCRT@D@ATL@@@@@ATL@@D@Z ; [thunk]:CDrdsRealReceiverAddInImp::RemoveRealSettingInfo`adjustor{4}'
PUBLIC	?SetRealAdvise@CDrdsRealReceiverAddInImp@@O3AEHH@Z ; [thunk]:CDrdsRealReceiverAddInImp::SetRealAdvise`adjustor{4}'
PUBLIC	?GetRealAdvisedInfo@CDrdsRealReceiverAddInImp@@O3AEHAAV?$CStringT@DV?$StrTraitMFC_DLL@DV?$ChTraitsCRT@D@ATL@@@@@ATL@@@Z ; [thunk]:CDrdsRealReceiverAddInImp::GetRealAdvisedInfo`adjustor{4}'
PUBLIC	?SetDrdsData@CDrdsRealReceiverAddInImp@@O3AEHIJ@Z ; [thunk]:CDrdsRealReceiverAddInImp::SetDrdsData`adjustor{4}'
PUBLIC	?SetDrdsPacketEnd@CDrdsRealReceiverAddInImp@@O3AEHIJ@Z ; [thunk]:CDrdsRealReceiverAddInImp::SetDrdsPacketEnd`adjustor{4}'
PUBLIC	?UpdatePacketData@CRealReceiverAddInImp@@O3AEHPBDHN@Z ; [thunk]:CRealReceiverAddInImp::UpdatePacketData`adjustor{4}'
PUBLIC	?SetRealAdviseRQ@CDrdsRealReceiverAddInImp@@O3AEHPBDH@Z ; [thunk]:CDrdsRealReceiverAddInImp::SetRealAdviseRQ`adjustor{4}'
PUBLIC	?AddRealSettingInfoRQ@CDrdsRealReceiverAddInImp@@O3AEHPBD0PAV?$CStringT@DV?$StrTraitMFC_DLL@DV?$ChTraitsCRT@D@ATL@@@@@ATL@@1D@Z ; [thunk]:CDrdsRealReceiverAddInImp::AddRealSettingInfoRQ`adjustor{4}'
PUBLIC	?RemoveRealSettingInfoRQ@CDrdsRealReceiverAddInImp@@O3AEHPBD0PAV?$CStringT@DV?$StrTraitMFC_DLL@DV?$ChTraitsCRT@D@ATL@@@@@ATL@@D@Z ; [thunk]:CDrdsRealReceiverAddInImp::RemoveRealSettingInfoRQ`adjustor{4}'
PUBLIC	?RemoveRQPacket@CDrdsRealReceiverAddInImp@@O3AEXPBD@Z ; [thunk]:CDrdsRealReceiverAddInImp::RemoveRQPacket`adjustor{4}'
PUBLIC	?GetNMTRClock@CDrdsRealReceiverAddInImp@@O3AE_JXZ ; [thunk]:CDrdsRealReceiverAddInImp::GetNMTRClock`adjustor{4}'
PUBLIC	?QueryInterface@CRealReceiverAddInImp@@OEI@AGJABU_GUID@@PAPAX@Z ; [thunk]:CRealReceiverAddInImp::QueryInterface`adjustor{72}'
PUBLIC	?AddRef@CRealReceiverAddInImp@@OEI@AGKXZ	; [thunk]:CRealReceiverAddInImp::AddRef`adjustor{72}'
PUBLIC	?Release@CRealReceiverAddInImp@@OEI@AGKXZ	; [thunk]:CRealReceiverAddInImp::Release`adjustor{72}'
PUBLIC	??_ECDrdsRealReceiverAddInImp@@WEI@AEPAXI@Z	; [thunk]:CDrdsRealReceiverAddInImp::`vector deleting destructor'
PUBLIC	?ResetRealSettingInfo@CDrdsRealReceiverAddInImp@@O7AEHPBD@Z ; [thunk]:CDrdsRealReceiverAddInImp::ResetRealSettingInfo`adjustor{8}'
PUBLIC	?AddRealSettingInfo@CDrdsRealReceiverAddInImp@@O7AEHPBDPAV?$CStringT@DV?$StrTraitMFC_DLL@DV?$ChTraitsCRT@D@ATL@@@@@ATL@@1D@Z ; [thunk]:CDrdsRealReceiverAddInImp::AddRealSettingInfo`adjustor{8}'
PUBLIC	?RemoveRealSettingInfo@CDrdsRealReceiverAddInImp@@O7AEHPBDPAV?$CStringT@DV?$StrTraitMFC_DLL@DV?$ChTraitsCRT@D@ATL@@@@@ATL@@D@Z ; [thunk]:CDrdsRealReceiverAddInImp::RemoveRealSettingInfo`adjustor{8}'
PUBLIC	?SetRealAdvise@CDrdsRealReceiverAddInImp@@O7AEHH@Z ; [thunk]:CDrdsRealReceiverAddInImp::SetRealAdvise`adjustor{8}'
PUBLIC	?GetRealAdvisedInfo@CDrdsRealReceiverAddInImp@@O7AEHAAV?$CStringT@DV?$StrTraitMFC_DLL@DV?$ChTraitsCRT@D@ATL@@@@@ATL@@@Z ; [thunk]:CDrdsRealReceiverAddInImp::GetRealAdvisedInfo`adjustor{8}'
PUBLIC	?SetDrdsData@CDrdsRealReceiverAddInImp@@O7AEHIJ@Z ; [thunk]:CDrdsRealReceiverAddInImp::SetDrdsData`adjustor{8}'
PUBLIC	?SetDrdsPacketEnd@CDrdsRealReceiverAddInImp@@O7AEHIJ@Z ; [thunk]:CDrdsRealReceiverAddInImp::SetDrdsPacketEnd`adjustor{8}'
PUBLIC	?UpdatePacketData@CRealReceiverAddInImp@@O7AEHPBDHN@Z ; [thunk]:CRealReceiverAddInImp::UpdatePacketData`adjustor{8}'
PUBLIC	?SetRealAdviseRQ@CDrdsRealReceiverAddInImp@@O7AEHPBDH@Z ; [thunk]:CDrdsRealReceiverAddInImp::SetRealAdviseRQ`adjustor{8}'
PUBLIC	?AddRealSettingInfoRQ@CDrdsRealReceiverAddInImp@@O7AEHPBD0PAV?$CStringT@DV?$StrTraitMFC_DLL@DV?$ChTraitsCRT@D@ATL@@@@@ATL@@1D@Z ; [thunk]:CDrdsRealReceiverAddInImp::AddRealSettingInfoRQ`adjustor{8}'
PUBLIC	?RemoveRealSettingInfoRQ@CDrdsRealReceiverAddInImp@@O7AEHPBD0PAV?$CStringT@DV?$StrTraitMFC_DLL@DV?$ChTraitsCRT@D@ATL@@@@@ATL@@D@Z ; [thunk]:CDrdsRealReceiverAddInImp::RemoveRealSettingInfoRQ`adjustor{8}'
PUBLIC	?RemoveRQPacket@CDrdsRealReceiverAddInImp@@O7AEXPBD@Z ; [thunk]:CDrdsRealReceiverAddInImp::RemoveRQPacket`adjustor{8}'
PUBLIC	?GetNMTRClock@CDrdsRealReceiverAddInImp@@O7AE_JXZ ; [thunk]:CDrdsRealReceiverAddInImp::GetNMTRClock`adjustor{8}'
PUBLIC	??_R0?AVCObject@@@8				; CObject `RTTI Type Descriptor'
PUBLIC	??_R3CObject@@8					; CObject::`RTTI Class Hierarchy Descriptor'
PUBLIC	??_R2CObject@@8					; CObject::`RTTI Base Class Array'
PUBLIC	??_R1A@?0A@EA@CObject@@8			; CObject::`RTTI Base Class Descriptor at (0,-1,0,64)'
PUBLIC	??_R0?AUIUnknown@@@8				; IUnknown `RTTI Type Descriptor'
PUBLIC	??_R3IUnknown@@8				; IUnknown::`RTTI Class Hierarchy Descriptor'
PUBLIC	??_R2IUnknown@@8				; IUnknown::`RTTI Base Class Array'
PUBLIC	??_R1A@?0A@EA@IUnknown@@8			; IUnknown::`RTTI Base Class Descriptor at (0,-1,0,64)'
PUBLIC	??_C@_08MEICNPPA@Drds?4dll@			; `string'
PUBLIC	??_C@_08EPNMOHL@DrdsInit@			; `string'
PUBLIC	??_C@_0BJ@IMPKJDLM@DrdsInit?$CI?$CJ?5is?5not?5found?4@ ; `string'
PUBLIC	??_C@_08MAPPPPMA@DrdsTerm@			; `string'
PUBLIC	??_C@_0BJ@DCKIHAKI@DrdsTerm?$CI?$CJ?5is?5not?5found?4@ ; `string'
PUBLIC	??_C@_0M@MDAJJFIJ@DrdsConnect@			; `string'
PUBLIC	??_C@_0BM@MIIIMLKG@DrdsConnect?$CI?$CJ?5is?5not?5found?4@ ; `string'
PUBLIC	??_C@_09CECGPDMH@DrdsClose@			; `string'
PUBLIC	??_C@_0BK@OOKKGPNJ@DrdsClose?$CI?$CJ?5is?5not?5found?4@ ; `string'
PUBLIC	??_C@_0L@CMJNOAIM@DrdsAdvise@			; `string'
PUBLIC	??_C@_0BL@PCIOAEHO@DrdsAdvise?$CI?$CJ?5is?5not?5found?4@ ; `string'
PUBLIC	??_C@_0N@IFDMNOKK@DrdsUnadvise@			; `string'
PUBLIC	??_C@_0BN@NAGNLNAF@DrdsUnadvise?$CI?$CJ?5is?5not?5found?4@ ; `string'
PUBLIC	?m_strAddInItemName@CDrdsRealReceiverAddInImp@@2V?$CStringT@DV?$StrTraitMFC_DLL@DV?$ChTraitsCRT@D@ATL@@@@@ATL@@A ; CDrdsRealReceiverAddInImp::m_strAddInItemName
PUBLIC	??_7CDrdsRealReceiverAddInImp@@6BCIWUnknown@@@	; CDrdsRealReceiverAddInImp::`vftable'
PUBLIC	??_7CDrdsRealReceiverAddInImp@@6BIChartAddIn000000@@@ ; CDrdsRealReceiverAddInImp::`vftable'
PUBLIC	??_7CDrdsRealReceiverAddInImp@@6BIRealReceiver@@@ ; CDrdsRealReceiverAddInImp::`vftable'
PUBLIC	??_7CDrdsRealReceiverAddInImp@@6BIOldFXRealReceiver@@@ ; CDrdsRealReceiverAddInImp::`vftable'
PUBLIC	??_7CDrdsRealReceiverAddInImp@@6BIOldHTSRealReceiver@@@ ; CDrdsRealReceiverAddInImp::`vftable'
PUBLIC	??_C@_0GD@FLBGJKHJ@I?5did?5not?5prepare?5this?5operatio@ ; `string'
PUBLIC	??_C@_01ICJEACDI@?$DL@				; `string'
PUBLIC	??_C@_01LFCBOECM@?4@				; `string'
PUBLIC	??_C@_04JDPKJLKG@0000@				; `string'
PUBLIC	??_C@_04CLCEDBPF@time@				; `string'
PUBLIC	??_C@_03JLKODOKA@JS0@				; `string'
PUBLIC	??_C@_07MGCPDNLD@DEFAULT@			; `string'
PUBLIC	??_C@_05NCDILCCA@price@				; `string'
PUBLIC	??_R0?AUIRealReceiver@@@8			; IRealReceiver `RTTI Type Descriptor'
PUBLIC	??_R3IRealReceiver@@8				; IRealReceiver::`RTTI Class Hierarchy Descriptor'
PUBLIC	??_R2IRealReceiver@@8				; IRealReceiver::`RTTI Base Class Array'
PUBLIC	??_R1A@?0A@EA@IRealReceiver@@8			; IRealReceiver::`RTTI Base Class Descriptor at (0,-1,0,64)'
PUBLIC	??_R0?AUIOldHTSRealReceiver@@@8			; IOldHTSRealReceiver `RTTI Type Descriptor'
PUBLIC	??_R3IOldHTSRealReceiver@@8			; IOldHTSRealReceiver::`RTTI Class Hierarchy Descriptor'
PUBLIC	??_R2IOldHTSRealReceiver@@8			; IOldHTSRealReceiver::`RTTI Base Class Array'
PUBLIC	??_R1A@?0A@EA@IOldHTSRealReceiver@@8		; IOldHTSRealReceiver::`RTTI Base Class Descriptor at (0,-1,0,64)'
PUBLIC	??_R0?AUIOldFXRealReceiver@@@8			; IOldFXRealReceiver `RTTI Type Descriptor'
PUBLIC	??_R3IOldFXRealReceiver@@8			; IOldFXRealReceiver::`RTTI Class Hierarchy Descriptor'
PUBLIC	??_R2IOldFXRealReceiver@@8			; IOldFXRealReceiver::`RTTI Base Class Array'
PUBLIC	??_R1A@?0A@EA@IOldFXRealReceiver@@8		; IOldFXRealReceiver::`RTTI Base Class Descriptor at (0,-1,0,64)'
PUBLIC	??_R0?AUIChartAddIn000000@@@8			; IChartAddIn000000 `RTTI Type Descriptor'
PUBLIC	??_R3IChartAddIn000000@@8			; IChartAddIn000000::`RTTI Class Hierarchy Descriptor'
PUBLIC	??_R2IChartAddIn000000@@8			; IChartAddIn000000::`RTTI Base Class Array'
PUBLIC	??_R1A@?0A@EA@IChartAddIn000000@@8		; IChartAddIn000000::`RTTI Base Class Descriptor at (0,-1,0,64)'
PUBLIC	??_R4CDrdsRealReceiverAddInImp@@6BCIWUnknown@@@	; CDrdsRealReceiverAddInImp::`RTTI Complete Object Locator'
PUBLIC	??_R0?AVCDrdsRealReceiverAddInImp@@@8		; CDrdsRealReceiverAddInImp `RTTI Type Descriptor'
PUBLIC	??_R3CDrdsRealReceiverAddInImp@@8		; CDrdsRealReceiverAddInImp::`RTTI Class Hierarchy Descriptor'
PUBLIC	??_R2CDrdsRealReceiverAddInImp@@8		; CDrdsRealReceiverAddInImp::`RTTI Base Class Array'
PUBLIC	??_R1A@?0A@EA@CDrdsRealReceiverAddInImp@@8	; CDrdsRealReceiverAddInImp::`RTTI Base Class Descriptor at (0,-1,0,64)'
PUBLIC	??_R1A@?0A@EA@CRealReceiverAddInImp@@8		; CRealReceiverAddInImp::`RTTI Base Class Descriptor at (0,-1,0,64)'
PUBLIC	??_R0?AVCRealReceiverAddInImp@@@8		; CRealReceiverAddInImp `RTTI Type Descriptor'
PUBLIC	??_R3CRealReceiverAddInImp@@8			; CRealReceiverAddInImp::`RTTI Class Hierarchy Descriptor'
PUBLIC	??_R2CRealReceiverAddInImp@@8			; CRealReceiverAddInImp::`RTTI Base Class Array'
PUBLIC	??_R1A@?0A@EA@CChartAddInBase000000@@8		; CChartAddInBase000000::`RTTI Base Class Descriptor at (0,-1,0,64)'
PUBLIC	??_R0?AVCChartAddInBase000000@@@8		; CChartAddInBase000000 `RTTI Type Descriptor'
PUBLIC	??_R3CChartAddInBase000000@@8			; CChartAddInBase000000::`RTTI Class Hierarchy Descriptor'
PUBLIC	??_R2CChartAddInBase000000@@8			; CChartAddInBase000000::`RTTI Base Class Array'
PUBLIC	??_R1A@?0A@EA@CIWUnknown@@8			; CIWUnknown::`RTTI Base Class Descriptor at (0,-1,0,64)'
PUBLIC	??_R0?AVCIWUnknown@@@8				; CIWUnknown `RTTI Type Descriptor'
PUBLIC	??_R3CIWUnknown@@8				; CIWUnknown::`RTTI Class Hierarchy Descriptor'
PUBLIC	??_R2CIWUnknown@@8				; CIWUnknown::`RTTI Base Class Array'
PUBLIC	??_R17?0A@EA@IChartAddIn000000@@8		; IChartAddIn000000::`RTTI Base Class Descriptor at (8,-1,0,64)'
PUBLIC	??_R17?0A@EA@IUnknown@@8			; IUnknown::`RTTI Base Class Descriptor at (8,-1,0,64)'
PUBLIC	??_R17?0A@EC@IUnknown@@8			; IUnknown::`RTTI Base Class Descriptor at (8,-1,0,66)'
PUBLIC	??_R1EA@?0A@EA@IRealReceiver@@8			; IRealReceiver::`RTTI Base Class Descriptor at (64,-1,0,64)'
PUBLIC	??_R1EA@?0A@EC@IUnknown@@8			; IUnknown::`RTTI Base Class Descriptor at (64,-1,0,66)'
PUBLIC	??_R1EE@?0A@EA@IOldFXRealReceiver@@8		; IOldFXRealReceiver::`RTTI Base Class Descriptor at (68,-1,0,64)'
PUBLIC	??_R1EE@?0A@EC@IUnknown@@8			; IUnknown::`RTTI Base Class Descriptor at (68,-1,0,66)'
PUBLIC	??_R1EI@?0A@EA@IOldHTSRealReceiver@@8		; IOldHTSRealReceiver::`RTTI Base Class Descriptor at (72,-1,0,64)'
PUBLIC	??_R1EI@?0A@EC@IUnknown@@8			; IUnknown::`RTTI Base Class Descriptor at (72,-1,0,66)'
PUBLIC	??_R4CDrdsRealReceiverAddInImp@@6BIChartAddIn000000@@@ ; CDrdsRealReceiverAddInImp::`RTTI Complete Object Locator'
PUBLIC	??_R4CDrdsRealReceiverAddInImp@@6BIRealReceiver@@@ ; CDrdsRealReceiverAddInImp::`RTTI Complete Object Locator'
PUBLIC	??_R4CDrdsRealReceiverAddInImp@@6BIOldFXRealReceiver@@@ ; CDrdsRealReceiverAddInImp::`RTTI Complete Object Locator'
PUBLIC	??_R4CDrdsRealReceiverAddInImp@@6BIOldHTSRealReceiver@@@ ; CDrdsRealReceiverAddInImp::`RTTI Complete Object Locator'
EXTRN	??2@YAPAXI@Z:PROC				; operator new
EXTRN	??3@YAXPAX@Z:PROC				; operator delete
EXTRN	?__global_delete@@YAXPAXI@Z:PROC		; __global_delete
EXTRN	_atexit:PROC
EXTRN	___std_terminate:PROC
EXTRN	__imp__FreeLibrary@4:PROC
EXTRN	__imp__GetProcAddress@8:PROC
EXTRN	__imp__LoadLibraryA@4:PROC
EXTRN	__imp__lstrcmpA@8:PROC
EXTRN	__imp__atof:PROC
EXTRN	?AfxThrowInvalidArgException@@YGXXZ:PROC	; AfxThrowInvalidArgException
EXTRN	?GetRuntimeClass@CObject@@UBEPAUCRuntimeClass@@XZ:PROC ; CObject::GetRuntimeClass
EXTRN	__imp_?Empty@?$CSimpleStringT@D$00@ATL@@QAEXXZ:PROC
EXTRN	__imp_?Concatenate@?$CSimpleStringT@D$00@ATL@@KAXAAV12@PBDH1H@Z:PROC
EXTRN	__imp_??0?$CStringT@DV?$StrTraitMFC_DLL@DV?$ChTraitsCRT@D@ATL@@@@@ATL@@QAE@XZ:PROC
EXTRN	__imp_??0?$CStringT@DV?$StrTraitMFC_DLL@DV?$ChTraitsCRT@D@ATL@@@@@ATL@@QAE@PAUIAtlStringMgr@1@@Z:PROC
EXTRN	__imp_??0?$CStringT@DV?$StrTraitMFC_DLL@DV?$ChTraitsCRT@D@ATL@@@@@ATL@@QAE@ABV01@@Z:PROC
EXTRN	__imp_??0?$CStringT@DV?$StrTraitMFC_DLL@DV?$ChTraitsCRT@D@ATL@@@@@ATL@@QAE@PBD@Z:PROC
EXTRN	__imp_??1?$CStringT@DV?$StrTraitMFC_DLL@DV?$ChTraitsCRT@D@ATL@@@@@ATL@@QAE@XZ:PROC
EXTRN	__imp_??4?$CStringT@DV?$StrTraitMFC_DLL@DV?$ChTraitsCRT@D@ATL@@@@@ATL@@QAEAAV01@PBD@Z:PROC
EXTRN	__imp_??Y?$CStringT@DV?$StrTraitMFC_DLL@DV?$ChTraitsCRT@D@ATL@@@@@ATL@@QAEAAV01@ABV?$CSimpleStringT@D$00@1@@Z:PROC
EXTRN	__imp_?GetManager@?$CStringT@DV?$StrTraitMFC_DLL@DV?$ChTraitsCRT@D@ATL@@@@@ATL@@QBEPAUIAtlStringMgr@2@XZ:PROC
EXTRN	__imp_?Compare@?$CStringT@DV?$StrTraitMFC_DLL@DV?$ChTraitsCRT@D@ATL@@@@@ATL@@QBEHPBD@Z:PROC
EXTRN	__imp_?CompareNoCase@?$CStringT@DV?$StrTraitMFC_DLL@DV?$ChTraitsCRT@D@ATL@@@@@ATL@@QBEHPBD@Z:PROC
EXTRN	?RemoveAt@CObList@@QAEXPAU__POSITION@@@Z:PROC	; CObList::RemoveAt
EXTRN	?AfxMessageBox@@YGHPBDII@Z:PROC			; AfxMessageBox
EXTRN	?AddRef@CIWUnknown@@MAGKXZ:PROC			; CIWUnknown::AddRef
EXTRN	?Release@CIWUnknown@@MAGKXZ:PROC		; CIWUnknown::Release
EXTRN	?HasFullManager@CChartAddInBase000000@@MAEHXZ:PROC ; CChartAddInBase000000::HasFullManager
EXTRN	?RegisterEventMap@CChartAddInBase000000@@UAEHH@Z:PROC ; CChartAddInBase000000::RegisterEventMap
EXTRN	?UnregisterEventMap@CChartAddInBase000000@@UAEHXZ:PROC ; CChartAddInBase000000::UnregisterEventMap
EXTRN	?OnOcxDestroyWindow@CChartAddInBase000000@@MAEXXZ:PROC ; CChartAddInBase000000::OnOcxDestroyWindow
EXTRN	??0CRealReceiverAddInImp@@QAE@PAUIChartOCX000000@@PAUIAddInDllBase@@@Z:PROC ; CRealReceiverAddInImp::CRealReceiverAddInImp
EXTRN	??1CRealReceiverAddInImp@@UAE@XZ:PROC		; CRealReceiverAddInImp::~CRealReceiverAddInImp
EXTRN	?GetAddInCustomInterface@CRealReceiverAddInImp@@EAEPAUIUnknown@@XZ:PROC ; CRealReceiverAddInImp::GetAddInCustomInterface
EXTRN	?UpdatePacketData@CRealReceiverAddInImp@@MAEHPBDHN@Z:PROC ; CRealReceiverAddInImp::UpdatePacketData
EXTRN	?SetRealDataRQ@CRealReceiverAddInImp@@MAEHPBD0NH@Z:PROC ; CRealReceiverAddInImp::SetRealDataRQ
EXTRN	?SetRealPacketEndRQ@CRealReceiverAddInImp@@MAEHPBDH@Z:PROC ; CRealReceiverAddInImp::SetRealPacketEndRQ
EXTRN	?OnDrawAfterGraph@CRealReceiverAddInImp@@EAEXPAUHDC__@@@Z:PROC ; CRealReceiverAddInImp::OnDrawAfterGraph
EXTRN	?OnPacketDataMultiItem@CRealReceiverAddInImp@@EAEXPBD0H@Z:PROC ; CRealReceiverAddInImp::OnPacketDataMultiItem
EXTRN	??_ECDrdsRealReceiverAddInImp@@UAEPAXI@Z:PROC	; CDrdsRealReceiverAddInImp::`vector deleting destructor'
EXTRN	??0CRealSettingInfoList@@QAE@XZ:PROC		; CRealSettingInfoList::CRealSettingInfoList
EXTRN	?ResetRealSettingInfo@CRealSettingInfoList@@QAEHPBD@Z:PROC ; CRealSettingInfoList::ResetRealSettingInfo
EXTRN	?AddRealSettingInfo@CRealSettingInfoList@@QAEHPBDPAV?$CStringT@DV?$StrTraitMFC_DLL@DV?$ChTraitsCRT@D@ATL@@@@@ATL@@1D@Z:PROC ; CRealSettingInfoList::AddRealSettingInfo
EXTRN	?AddRealSettingInfo@CRealSettingInfoList@@QAEHPBD000PAV?$CStringT@DV?$StrTraitMFC_DLL@DV?$ChTraitsCRT@D@ATL@@@@@ATL@@@Z:PROC ; CRealSettingInfoList::AddRealSettingInfo
EXTRN	?AddRealSettingInfo@CRealSettingInfoList@@QAEHPBD0PAV?$CStringT@DV?$StrTraitMFC_DLL@DV?$ChTraitsCRT@D@ATL@@@@@ATL@@1D@Z:PROC ; CRealSettingInfoList::AddRealSettingInfo
EXTRN	?RemoveAllRealSettingInfo@CRealSettingInfoList@@QAEXXZ:PROC ; CRealSettingInfoList::RemoveAllRealSettingInfo
EXTRN	?RemoveRealSettingInfo@CRealSettingInfoList@@QAEHPBDPAV?$CStringT@DV?$StrTraitMFC_DLL@DV?$ChTraitsCRT@D@ATL@@@@@ATL@@D@Z:PROC ; CRealSettingInfoList::RemoveRealSettingInfo
EXTRN	?RemoveRealSettingInfo@CRealSettingInfoList@@QAEHPBD000PAV?$CStringT@DV?$StrTraitMFC_DLL@DV?$ChTraitsCRT@D@ATL@@@@@ATL@@@Z:PROC ; CRealSettingInfoList::RemoveRealSettingInfo
EXTRN	?RemoveRealSettingInfo@CRealSettingInfoList@@QAEHPBD0PAV?$CStringT@DV?$StrTraitMFC_DLL@DV?$ChTraitsCRT@D@ATL@@@@@ATL@@D@Z:PROC ; CRealSettingInfoList::RemoveRealSettingInfo
EXTRN	??0CDrdsAdvisedInfoList@@QAE@XZ:PROC		; CDrdsAdvisedInfoList::CDrdsAdvisedInfoList
EXTRN	?AddDaiPacketGroup@CDrdsAdvisedInfoList@@QAEHPBD@Z:PROC ; CDrdsAdvisedInfoList::AddDaiPacketGroup
EXTRN	?AddDrdsAdvisedInfo@CDrdsAdvisedInfoList@@QAEHPBDPAUIPacket000000@@000@Z:PROC ; CDrdsAdvisedInfoList::AddDrdsAdvisedInfo
EXTRN	?RemoveAllDrdsAdvisedInfo@CDrdsAdvisedInfoList@@QAEXXZ:PROC ; CDrdsAdvisedInfoList::RemoveAllDrdsAdvisedInfo
EXTRN	?SetPacketReceivedFlag@CDrdsAdvisedInfoList@@QAEHPBD0@Z:PROC ; CDrdsAdvisedInfoList::SetPacketReceivedFlag
EXTRN	?FindDrdsAdvisedInfo@CDaiCodeGroup@@QAEPAU__POSITION@@PAUIPacket000000@@PBD@Z:PROC ; CDaiCodeGroup::FindDrdsAdvisedInfo
EXTRN	?FindDaiCodeGroup@CDaiPacketGroup@@QAEPAU__POSITION@@PBD@Z:PROC ; CDaiPacketGroup::FindDaiCodeGroup
EXTRN	@__security_check_cookie@4:PROC
EXTRN	___CxxFrameHandler3:PROC
EXTRN	??_7type_info@@6B@:QWORD			; type_info::`vftable'
EXTRN	?g_iMetaTable@@3VIMetaTable@@A:BYTE		; g_iMetaTable
EXTRN	___security_cookie:DWORD
EXTRN	__fltused:DWORD
_BSS	SEGMENT
?m_strAddInItemName@CDrdsRealReceiverAddInImp@@2V?$CStringT@DV?$StrTraitMFC_DLL@DV?$ChTraitsCRT@D@ATL@@@@@ATL@@A DD 01H DUP (?) ; CDrdsRealReceiverAddInImp::m_strAddInItemName
_BSS	ENDS
CRT$XCU	SEGMENT
??m_strAddInItemName$initializer$@CDrdsRealReceiverAddInImp@@2P6AXXZA@@3P6AXXZA DD FLAT:??__E?m_strAddInItemName@CDrdsRealReceiverAddInImp@@2V?$CStringT@DV?$StrTraitMFC_DLL@DV?$ChTraitsCRT@D@ATL@@@@@ATL@@A@@YAXXZ ; ??m_strAddInItemName$initializer$@CDrdsRealReceiverAddInImp@@2P6AXXZA@@3P6AXXZA
CRT$XCU	ENDS
;	COMDAT ??_R4CDrdsRealReceiverAddInImp@@6BIOldHTSRealReceiver@@@
rdata$r	SEGMENT
??_R4CDrdsRealReceiverAddInImp@@6BIOldHTSRealReceiver@@@ DD 00H ; CDrdsRealReceiverAddInImp::`RTTI Complete Object Locator'
	DD	048H
	DD	00H
	DD	FLAT:??_R0?AVCDrdsRealReceiverAddInImp@@@8
	DD	FLAT:??_R3CDrdsRealReceiverAddInImp@@8
rdata$r	ENDS
;	COMDAT ??_R4CDrdsRealReceiverAddInImp@@6BIOldFXRealReceiver@@@
rdata$r	SEGMENT
??_R4CDrdsRealReceiverAddInImp@@6BIOldFXRealReceiver@@@ DD 00H ; CDrdsRealReceiverAddInImp::`RTTI Complete Object Locator'
	DD	044H
	DD	00H
	DD	FLAT:??_R0?AVCDrdsRealReceiverAddInImp@@@8
	DD	FLAT:??_R3CDrdsRealReceiverAddInImp@@8
rdata$r	ENDS
;	COMDAT ??_R4CDrdsRealReceiverAddInImp@@6BIRealReceiver@@@
rdata$r	SEGMENT
??_R4CDrdsRealReceiverAddInImp@@6BIRealReceiver@@@ DD 00H ; CDrdsRealReceiverAddInImp::`RTTI Complete Object Locator'
	DD	040H
	DD	00H
	DD	FLAT:??_R0?AVCDrdsRealReceiverAddInImp@@@8
	DD	FLAT:??_R3CDrdsRealReceiverAddInImp@@8
rdata$r	ENDS
;	COMDAT ??_R4CDrdsRealReceiverAddInImp@@6BIChartAddIn000000@@@
rdata$r	SEGMENT
??_R4CDrdsRealReceiverAddInImp@@6BIChartAddIn000000@@@ DD 00H ; CDrdsRealReceiverAddInImp::`RTTI Complete Object Locator'
	DD	08H
	DD	00H
	DD	FLAT:??_R0?AVCDrdsRealReceiverAddInImp@@@8
	DD	FLAT:??_R3CDrdsRealReceiverAddInImp@@8
rdata$r	ENDS
;	COMDAT ??_R1EI@?0A@EC@IUnknown@@8
rdata$r	SEGMENT
??_R1EI@?0A@EC@IUnknown@@8 DD FLAT:??_R0?AUIUnknown@@@8	; IUnknown::`RTTI Base Class Descriptor at (72,-1,0,66)'
	DD	00H
	DD	048H
	DD	0ffffffffH
	DD	00H
	DD	042H
	DD	FLAT:??_R3IUnknown@@8
rdata$r	ENDS
;	COMDAT ??_R1EI@?0A@EA@IOldHTSRealReceiver@@8
rdata$r	SEGMENT
??_R1EI@?0A@EA@IOldHTSRealReceiver@@8 DD FLAT:??_R0?AUIOldHTSRealReceiver@@@8 ; IOldHTSRealReceiver::`RTTI Base Class Descriptor at (72,-1,0,64)'
	DD	01H
	DD	048H
	DD	0ffffffffH
	DD	00H
	DD	040H
	DD	FLAT:??_R3IOldHTSRealReceiver@@8
rdata$r	ENDS
;	COMDAT ??_R1EE@?0A@EC@IUnknown@@8
rdata$r	SEGMENT
??_R1EE@?0A@EC@IUnknown@@8 DD FLAT:??_R0?AUIUnknown@@@8	; IUnknown::`RTTI Base Class Descriptor at (68,-1,0,66)'
	DD	00H
	DD	044H
	DD	0ffffffffH
	DD	00H
	DD	042H
	DD	FLAT:??_R3IUnknown@@8
rdata$r	ENDS
;	COMDAT ??_R1EE@?0A@EA@IOldFXRealReceiver@@8
rdata$r	SEGMENT
??_R1EE@?0A@EA@IOldFXRealReceiver@@8 DD FLAT:??_R0?AUIOldFXRealReceiver@@@8 ; IOldFXRealReceiver::`RTTI Base Class Descriptor at (68,-1,0,64)'
	DD	01H
	DD	044H
	DD	0ffffffffH
	DD	00H
	DD	040H
	DD	FLAT:??_R3IOldFXRealReceiver@@8
rdata$r	ENDS
;	COMDAT ??_R1EA@?0A@EC@IUnknown@@8
rdata$r	SEGMENT
??_R1EA@?0A@EC@IUnknown@@8 DD FLAT:??_R0?AUIUnknown@@@8	; IUnknown::`RTTI Base Class Descriptor at (64,-1,0,66)'
	DD	00H
	DD	040H
	DD	0ffffffffH
	DD	00H
	DD	042H
	DD	FLAT:??_R3IUnknown@@8
rdata$r	ENDS
;	COMDAT ??_R1EA@?0A@EA@IRealReceiver@@8
rdata$r	SEGMENT
??_R1EA@?0A@EA@IRealReceiver@@8 DD FLAT:??_R0?AUIRealReceiver@@@8 ; IRealReceiver::`RTTI Base Class Descriptor at (64,-1,0,64)'
	DD	01H
	DD	040H
	DD	0ffffffffH
	DD	00H
	DD	040H
	DD	FLAT:??_R3IRealReceiver@@8
rdata$r	ENDS
;	COMDAT ??_R17?0A@EC@IUnknown@@8
rdata$r	SEGMENT
??_R17?0A@EC@IUnknown@@8 DD FLAT:??_R0?AUIUnknown@@@8	; IUnknown::`RTTI Base Class Descriptor at (8,-1,0,66)'
	DD	00H
	DD	08H
	DD	0ffffffffH
	DD	00H
	DD	042H
	DD	FLAT:??_R3IUnknown@@8
rdata$r	ENDS
;	COMDAT ??_R17?0A@EA@IUnknown@@8
rdata$r	SEGMENT
??_R17?0A@EA@IUnknown@@8 DD FLAT:??_R0?AUIUnknown@@@8	; IUnknown::`RTTI Base Class Descriptor at (8,-1,0,64)'
	DD	00H
	DD	08H
	DD	0ffffffffH
	DD	00H
	DD	040H
	DD	FLAT:??_R3IUnknown@@8
rdata$r	ENDS
;	COMDAT ??_R17?0A@EA@IChartAddIn000000@@8
rdata$r	SEGMENT
??_R17?0A@EA@IChartAddIn000000@@8 DD FLAT:??_R0?AUIChartAddIn000000@@@8 ; IChartAddIn000000::`RTTI Base Class Descriptor at (8,-1,0,64)'
	DD	01H
	DD	08H
	DD	0ffffffffH
	DD	00H
	DD	040H
	DD	FLAT:??_R3IChartAddIn000000@@8
rdata$r	ENDS
;	COMDAT ??_R2CIWUnknown@@8
rdata$r	SEGMENT
??_R2CIWUnknown@@8 DD FLAT:??_R1A@?0A@EA@CIWUnknown@@8	; CIWUnknown::`RTTI Base Class Array'
	DD	FLAT:??_R1A@?0A@EA@CObject@@8
rdata$r	ENDS
;	COMDAT ??_R3CIWUnknown@@8
rdata$r	SEGMENT
??_R3CIWUnknown@@8 DD 00H				; CIWUnknown::`RTTI Class Hierarchy Descriptor'
	DD	00H
	DD	02H
	DD	FLAT:??_R2CIWUnknown@@8
rdata$r	ENDS
;	COMDAT ??_R0?AVCIWUnknown@@@8
data$rs	SEGMENT
??_R0?AVCIWUnknown@@@8 DD FLAT:??_7type_info@@6B@	; CIWUnknown `RTTI Type Descriptor'
	DD	00H
	DB	'.?AVCIWUnknown@@', 00H
data$rs	ENDS
;	COMDAT ??_R1A@?0A@EA@CIWUnknown@@8
rdata$r	SEGMENT
??_R1A@?0A@EA@CIWUnknown@@8 DD FLAT:??_R0?AVCIWUnknown@@@8 ; CIWUnknown::`RTTI Base Class Descriptor at (0,-1,0,64)'
	DD	01H
	DD	00H
	DD	0ffffffffH
	DD	00H
	DD	040H
	DD	FLAT:??_R3CIWUnknown@@8
rdata$r	ENDS
;	COMDAT ??_R2CChartAddInBase000000@@8
rdata$r	SEGMENT
??_R2CChartAddInBase000000@@8 DD FLAT:??_R1A@?0A@EA@CChartAddInBase000000@@8 ; CChartAddInBase000000::`RTTI Base Class Array'
	DD	FLAT:??_R1A@?0A@EA@CIWUnknown@@8
	DD	FLAT:??_R1A@?0A@EA@CObject@@8
	DD	FLAT:??_R17?0A@EA@IChartAddIn000000@@8
	DD	FLAT:??_R17?0A@EA@IUnknown@@8
rdata$r	ENDS
;	COMDAT ??_R3CChartAddInBase000000@@8
rdata$r	SEGMENT
??_R3CChartAddInBase000000@@8 DD 00H			; CChartAddInBase000000::`RTTI Class Hierarchy Descriptor'
	DD	01H
	DD	05H
	DD	FLAT:??_R2CChartAddInBase000000@@8
rdata$r	ENDS
;	COMDAT ??_R0?AVCChartAddInBase000000@@@8
data$rs	SEGMENT
??_R0?AVCChartAddInBase000000@@@8 DD FLAT:??_7type_info@@6B@ ; CChartAddInBase000000 `RTTI Type Descriptor'
	DD	00H
	DB	'.?AVCChartAddInBase000000@@', 00H
data$rs	ENDS
;	COMDAT ??_R1A@?0A@EA@CChartAddInBase000000@@8
rdata$r	SEGMENT
??_R1A@?0A@EA@CChartAddInBase000000@@8 DD FLAT:??_R0?AVCChartAddInBase000000@@@8 ; CChartAddInBase000000::`RTTI Base Class Descriptor at (0,-1,0,64)'
	DD	04H
	DD	00H
	DD	0ffffffffH
	DD	00H
	DD	040H
	DD	FLAT:??_R3CChartAddInBase000000@@8
rdata$r	ENDS
;	COMDAT ??_R2CRealReceiverAddInImp@@8
rdata$r	SEGMENT
??_R2CRealReceiverAddInImp@@8 DD FLAT:??_R1A@?0A@EA@CRealReceiverAddInImp@@8 ; CRealReceiverAddInImp::`RTTI Base Class Array'
	DD	FLAT:??_R1A@?0A@EA@CChartAddInBase000000@@8
	DD	FLAT:??_R1A@?0A@EA@CIWUnknown@@8
	DD	FLAT:??_R1A@?0A@EA@CObject@@8
	DD	FLAT:??_R17?0A@EA@IChartAddIn000000@@8
	DD	FLAT:??_R17?0A@EC@IUnknown@@8
	DD	FLAT:??_R1EA@?0A@EA@IRealReceiver@@8
	DD	FLAT:??_R1EA@?0A@EC@IUnknown@@8
	DD	FLAT:??_R1EE@?0A@EA@IOldFXRealReceiver@@8
	DD	FLAT:??_R1EE@?0A@EC@IUnknown@@8
	DD	FLAT:??_R1EI@?0A@EA@IOldHTSRealReceiver@@8
	DD	FLAT:??_R1EI@?0A@EC@IUnknown@@8
rdata$r	ENDS
;	COMDAT ??_R3CRealReceiverAddInImp@@8
rdata$r	SEGMENT
??_R3CRealReceiverAddInImp@@8 DD 00H			; CRealReceiverAddInImp::`RTTI Class Hierarchy Descriptor'
	DD	05H
	DD	0cH
	DD	FLAT:??_R2CRealReceiverAddInImp@@8
rdata$r	ENDS
;	COMDAT ??_R0?AVCRealReceiverAddInImp@@@8
data$rs	SEGMENT
??_R0?AVCRealReceiverAddInImp@@@8 DD FLAT:??_7type_info@@6B@ ; CRealReceiverAddInImp `RTTI Type Descriptor'
	DD	00H
	DB	'.?AVCRealReceiverAddInImp@@', 00H
data$rs	ENDS
;	COMDAT ??_R1A@?0A@EA@CRealReceiverAddInImp@@8
rdata$r	SEGMENT
??_R1A@?0A@EA@CRealReceiverAddInImp@@8 DD FLAT:??_R0?AVCRealReceiverAddInImp@@@8 ; CRealReceiverAddInImp::`RTTI Base Class Descriptor at (0,-1,0,64)'
	DD	0bH
	DD	00H
	DD	0ffffffffH
	DD	00H
	DD	040H
	DD	FLAT:??_R3CRealReceiverAddInImp@@8
rdata$r	ENDS
;	COMDAT ??_R1A@?0A@EA@CDrdsRealReceiverAddInImp@@8
rdata$r	SEGMENT
??_R1A@?0A@EA@CDrdsRealReceiverAddInImp@@8 DD FLAT:??_R0?AVCDrdsRealReceiverAddInImp@@@8 ; CDrdsRealReceiverAddInImp::`RTTI Base Class Descriptor at (0,-1,0,64)'
	DD	0cH
	DD	00H
	DD	0ffffffffH
	DD	00H
	DD	040H
	DD	FLAT:??_R3CDrdsRealReceiverAddInImp@@8
rdata$r	ENDS
;	COMDAT ??_R2CDrdsRealReceiverAddInImp@@8
rdata$r	SEGMENT
??_R2CDrdsRealReceiverAddInImp@@8 DD FLAT:??_R1A@?0A@EA@CDrdsRealReceiverAddInImp@@8 ; CDrdsRealReceiverAddInImp::`RTTI Base Class Array'
	DD	FLAT:??_R1A@?0A@EA@CRealReceiverAddInImp@@8
	DD	FLAT:??_R1A@?0A@EA@CChartAddInBase000000@@8
	DD	FLAT:??_R1A@?0A@EA@CIWUnknown@@8
	DD	FLAT:??_R1A@?0A@EA@CObject@@8
	DD	FLAT:??_R17?0A@EA@IChartAddIn000000@@8
	DD	FLAT:??_R17?0A@EC@IUnknown@@8
	DD	FLAT:??_R1EA@?0A@EA@IRealReceiver@@8
	DD	FLAT:??_R1EA@?0A@EC@IUnknown@@8
	DD	FLAT:??_R1EE@?0A@EA@IOldFXRealReceiver@@8
	DD	FLAT:??_R1EE@?0A@EC@IUnknown@@8
	DD	FLAT:??_R1EI@?0A@EA@IOldHTSRealReceiver@@8
	DD	FLAT:??_R1EI@?0A@EC@IUnknown@@8
rdata$r	ENDS
;	COMDAT ??_R3CDrdsRealReceiverAddInImp@@8
rdata$r	SEGMENT
??_R3CDrdsRealReceiverAddInImp@@8 DD 00H		; CDrdsRealReceiverAddInImp::`RTTI Class Hierarchy Descriptor'
	DD	01H
	DD	0dH
	DD	FLAT:??_R2CDrdsRealReceiverAddInImp@@8
rdata$r	ENDS
;	COMDAT ??_R0?AVCDrdsRealReceiverAddInImp@@@8
data$rs	SEGMENT
??_R0?AVCDrdsRealReceiverAddInImp@@@8 DD FLAT:??_7type_info@@6B@ ; CDrdsRealReceiverAddInImp `RTTI Type Descriptor'
	DD	00H
	DB	'.?AVCDrdsRealReceiverAddInImp@@', 00H
data$rs	ENDS
;	COMDAT ??_R4CDrdsRealReceiverAddInImp@@6BCIWUnknown@@@
rdata$r	SEGMENT
??_R4CDrdsRealReceiverAddInImp@@6BCIWUnknown@@@ DD 00H	; CDrdsRealReceiverAddInImp::`RTTI Complete Object Locator'
	DD	00H
	DD	00H
	DD	FLAT:??_R0?AVCDrdsRealReceiverAddInImp@@@8
	DD	FLAT:??_R3CDrdsRealReceiverAddInImp@@8
rdata$r	ENDS
;	COMDAT ??_R1A@?0A@EA@IChartAddIn000000@@8
rdata$r	SEGMENT
??_R1A@?0A@EA@IChartAddIn000000@@8 DD FLAT:??_R0?AUIChartAddIn000000@@@8 ; IChartAddIn000000::`RTTI Base Class Descriptor at (0,-1,0,64)'
	DD	01H
	DD	00H
	DD	0ffffffffH
	DD	00H
	DD	040H
	DD	FLAT:??_R3IChartAddIn000000@@8
rdata$r	ENDS
;	COMDAT ??_R2IChartAddIn000000@@8
rdata$r	SEGMENT
??_R2IChartAddIn000000@@8 DD FLAT:??_R1A@?0A@EA@IChartAddIn000000@@8 ; IChartAddIn000000::`RTTI Base Class Array'
	DD	FLAT:??_R1A@?0A@EA@IUnknown@@8
rdata$r	ENDS
;	COMDAT ??_R3IChartAddIn000000@@8
rdata$r	SEGMENT
??_R3IChartAddIn000000@@8 DD 00H			; IChartAddIn000000::`RTTI Class Hierarchy Descriptor'
	DD	00H
	DD	02H
	DD	FLAT:??_R2IChartAddIn000000@@8
rdata$r	ENDS
;	COMDAT ??_R0?AUIChartAddIn000000@@@8
data$rs	SEGMENT
??_R0?AUIChartAddIn000000@@@8 DD FLAT:??_7type_info@@6B@ ; IChartAddIn000000 `RTTI Type Descriptor'
	DD	00H
	DB	'.?AUIChartAddIn000000@@', 00H
data$rs	ENDS
;	COMDAT ??_R1A@?0A@EA@IOldFXRealReceiver@@8
rdata$r	SEGMENT
??_R1A@?0A@EA@IOldFXRealReceiver@@8 DD FLAT:??_R0?AUIOldFXRealReceiver@@@8 ; IOldFXRealReceiver::`RTTI Base Class Descriptor at (0,-1,0,64)'
	DD	01H
	DD	00H
	DD	0ffffffffH
	DD	00H
	DD	040H
	DD	FLAT:??_R3IOldFXRealReceiver@@8
rdata$r	ENDS
;	COMDAT ??_R2IOldFXRealReceiver@@8
rdata$r	SEGMENT
??_R2IOldFXRealReceiver@@8 DD FLAT:??_R1A@?0A@EA@IOldFXRealReceiver@@8 ; IOldFXRealReceiver::`RTTI Base Class Array'
	DD	FLAT:??_R1A@?0A@EA@IUnknown@@8
rdata$r	ENDS
;	COMDAT ??_R3IOldFXRealReceiver@@8
rdata$r	SEGMENT
??_R3IOldFXRealReceiver@@8 DD 00H			; IOldFXRealReceiver::`RTTI Class Hierarchy Descriptor'
	DD	00H
	DD	02H
	DD	FLAT:??_R2IOldFXRealReceiver@@8
rdata$r	ENDS
;	COMDAT ??_R0?AUIOldFXRealReceiver@@@8
data$rs	SEGMENT
??_R0?AUIOldFXRealReceiver@@@8 DD FLAT:??_7type_info@@6B@ ; IOldFXRealReceiver `RTTI Type Descriptor'
	DD	00H
	DB	'.?AUIOldFXRealReceiver@@', 00H
data$rs	ENDS
;	COMDAT ??_R1A@?0A@EA@IOldHTSRealReceiver@@8
rdata$r	SEGMENT
??_R1A@?0A@EA@IOldHTSRealReceiver@@8 DD FLAT:??_R0?AUIOldHTSRealReceiver@@@8 ; IOldHTSRealReceiver::`RTTI Base Class Descriptor at (0,-1,0,64)'
	DD	01H
	DD	00H
	DD	0ffffffffH
	DD	00H
	DD	040H
	DD	FLAT:??_R3IOldHTSRealReceiver@@8
rdata$r	ENDS
;	COMDAT ??_R2IOldHTSRealReceiver@@8
rdata$r	SEGMENT
??_R2IOldHTSRealReceiver@@8 DD FLAT:??_R1A@?0A@EA@IOldHTSRealReceiver@@8 ; IOldHTSRealReceiver::`RTTI Base Class Array'
	DD	FLAT:??_R1A@?0A@EA@IUnknown@@8
rdata$r	ENDS
;	COMDAT ??_R3IOldHTSRealReceiver@@8
rdata$r	SEGMENT
??_R3IOldHTSRealReceiver@@8 DD 00H			; IOldHTSRealReceiver::`RTTI Class Hierarchy Descriptor'
	DD	00H
	DD	02H
	DD	FLAT:??_R2IOldHTSRealReceiver@@8
rdata$r	ENDS
;	COMDAT ??_R0?AUIOldHTSRealReceiver@@@8
data$rs	SEGMENT
??_R0?AUIOldHTSRealReceiver@@@8 DD FLAT:??_7type_info@@6B@ ; IOldHTSRealReceiver `RTTI Type Descriptor'
	DD	00H
	DB	'.?AUIOldHTSRealReceiver@@', 00H
data$rs	ENDS
;	COMDAT ??_R1A@?0A@EA@IRealReceiver@@8
rdata$r	SEGMENT
??_R1A@?0A@EA@IRealReceiver@@8 DD FLAT:??_R0?AUIRealReceiver@@@8 ; IRealReceiver::`RTTI Base Class Descriptor at (0,-1,0,64)'
	DD	01H
	DD	00H
	DD	0ffffffffH
	DD	00H
	DD	040H
	DD	FLAT:??_R3IRealReceiver@@8
rdata$r	ENDS
;	COMDAT ??_R2IRealReceiver@@8
rdata$r	SEGMENT
??_R2IRealReceiver@@8 DD FLAT:??_R1A@?0A@EA@IRealReceiver@@8 ; IRealReceiver::`RTTI Base Class Array'
	DD	FLAT:??_R1A@?0A@EA@IUnknown@@8
rdata$r	ENDS
;	COMDAT ??_R3IRealReceiver@@8
rdata$r	SEGMENT
??_R3IRealReceiver@@8 DD 00H				; IRealReceiver::`RTTI Class Hierarchy Descriptor'
	DD	00H
	DD	02H
	DD	FLAT:??_R2IRealReceiver@@8
rdata$r	ENDS
;	COMDAT ??_R0?AUIRealReceiver@@@8
data$rs	SEGMENT
??_R0?AUIRealReceiver@@@8 DD FLAT:??_7type_info@@6B@	; IRealReceiver `RTTI Type Descriptor'
	DD	00H
	DB	'.?AUIRealReceiver@@', 00H
data$rs	ENDS
;	COMDAT ??_C@_05NCDILCCA@price@
CONST	SEGMENT
??_C@_05NCDILCCA@price@ DB 'price', 00H			; `string'
CONST	ENDS
;	COMDAT ??_C@_07MGCPDNLD@DEFAULT@
CONST	SEGMENT
??_C@_07MGCPDNLD@DEFAULT@ DB 'DEFAULT', 00H		; `string'
CONST	ENDS
;	COMDAT ??_C@_03JLKODOKA@JS0@
CONST	SEGMENT
??_C@_03JLKODOKA@JS0@ DB 'JS0', 00H			; `string'
CONST	ENDS
;	COMDAT ??_C@_04CLCEDBPF@time@
CONST	SEGMENT
??_C@_04CLCEDBPF@time@ DB 'time', 00H			; `string'
CONST	ENDS
;	COMDAT ??_C@_04JDPKJLKG@0000@
CONST	SEGMENT
??_C@_04JDPKJLKG@0000@ DB '0000', 00H			; `string'
CONST	ENDS
;	COMDAT ??_C@_01LFCBOECM@?4@
CONST	SEGMENT
??_C@_01LFCBOECM@?4@ DB '.', 00H			; `string'
CONST	ENDS
;	COMDAT ??_C@_01ICJEACDI@?$DL@
CONST	SEGMENT
??_C@_01ICJEACDI@?$DL@ DB ';', 00H			; `string'
CONST	ENDS
;	COMDAT ??_C@_0GD@FLBGJKHJ@I?5did?5not?5prepare?5this?5operatio@
CONST	SEGMENT
??_C@_0GD@FLBGJKHJ@I?5did?5not?5prepare?5this?5operatio@ DB 'I did not pr'
	DB	'epare this operation in Multi-Language Version.', 0dH, 0aH, 'P'
	DB	'lease, call chart developer. thanks.', 00H	; `string'
CONST	ENDS
;	COMDAT ??_7CDrdsRealReceiverAddInImp@@6BIOldHTSRealReceiver@@@
CONST	SEGMENT
??_7CDrdsRealReceiverAddInImp@@6BIOldHTSRealReceiver@@@ DD FLAT:??_R4CDrdsRealReceiverAddInImp@@6BIOldHTSRealReceiver@@@ ; CDrdsRealReceiverAddInImp::`vftable'
	DD	FLAT:?QueryInterface@CRealReceiverAddInImp@@OEI@AGJABU_GUID@@PAPAX@Z
	DD	FLAT:?AddRef@CRealReceiverAddInImp@@OEI@AGKXZ
	DD	FLAT:?Release@CRealReceiverAddInImp@@OEI@AGKXZ
	DD	FLAT:??_ECDrdsRealReceiverAddInImp@@WEI@AEPAXI@Z
	DD	FLAT:?ResetRealSettingInfo@CDrdsRealReceiverAddInImp@@O7AEHPBD@Z
	DD	FLAT:?AddRealSettingInfo@CDrdsRealReceiverAddInImp@@O7AEHPBDPAV?$CStringT@DV?$StrTraitMFC_DLL@DV?$ChTraitsCRT@D@ATL@@@@@ATL@@1D@Z
	DD	FLAT:?RemoveRealSettingInfo@CDrdsRealReceiverAddInImp@@O7AEHPBDPAV?$CStringT@DV?$StrTraitMFC_DLL@DV?$ChTraitsCRT@D@ATL@@@@@ATL@@D@Z
	DD	FLAT:?SetRealAdvise@CDrdsRealReceiverAddInImp@@O7AEHH@Z
	DD	FLAT:?GetRealAdvisedInfo@CDrdsRealReceiverAddInImp@@O7AEHAAV?$CStringT@DV?$StrTraitMFC_DLL@DV?$ChTraitsCRT@D@ATL@@@@@ATL@@@Z
	DD	FLAT:?SetDrdsData@CDrdsRealReceiverAddInImp@@O7AEHIJ@Z
	DD	FLAT:?SetDrdsPacketEnd@CDrdsRealReceiverAddInImp@@O7AEHIJ@Z
	DD	FLAT:?SetRealData@IOldHTSRealReceiver@@UAEHPBDN@Z
	DD	FLAT:?SetRealPacketEnd@IOldHTSRealReceiver@@UAEHXZ
	DD	FLAT:?UpdatePacketData@CRealReceiverAddInImp@@O7AEHPBDHN@Z
	DD	FLAT:?SetRealAdviseRQ@CDrdsRealReceiverAddInImp@@O7AEHPBDH@Z
	DD	FLAT:?AddRealSettingInfoRQ@CDrdsRealReceiverAddInImp@@O7AEHPBD0PAV?$CStringT@DV?$StrTraitMFC_DLL@DV?$ChTraitsCRT@D@ATL@@@@@ATL@@1D@Z
	DD	FLAT:?RemoveRealSettingInfoRQ@CDrdsRealReceiverAddInImp@@O7AEHPBD0PAV?$CStringT@DV?$StrTraitMFC_DLL@DV?$ChTraitsCRT@D@ATL@@@@@ATL@@D@Z
	DD	FLAT:?RemoveRQPacket@CDrdsRealReceiverAddInImp@@O7AEXPBD@Z
	DD	FLAT:?SetRealDataRQ@IOldHTSRealReceiver@@UAEHPBD0N@Z
	DD	FLAT:?SetRealPacketEndRQ@IOldHTSRealReceiver@@UAEHPBD@Z
	DD	FLAT:?GetNMTRClock@CDrdsRealReceiverAddInImp@@O7AE_JXZ
CONST	ENDS
;	COMDAT ??_7CDrdsRealReceiverAddInImp@@6BIOldFXRealReceiver@@@
CONST	SEGMENT
??_7CDrdsRealReceiverAddInImp@@6BIOldFXRealReceiver@@@ DD FLAT:??_R4CDrdsRealReceiverAddInImp@@6BIOldFXRealReceiver@@@ ; CDrdsRealReceiverAddInImp::`vftable'
	DD	FLAT:?QueryInterface@CRealReceiverAddInImp@@OEE@AGJABU_GUID@@PAPAX@Z
	DD	FLAT:?AddRef@CRealReceiverAddInImp@@OEE@AGKXZ
	DD	FLAT:?Release@CRealReceiverAddInImp@@OEE@AGKXZ
	DD	FLAT:??_ECDrdsRealReceiverAddInImp@@WEE@AEPAXI@Z
	DD	FLAT:?ResetRealSettingInfo@CDrdsRealReceiverAddInImp@@O3AEHPBD@Z
	DD	FLAT:?AddRealSettingInfo@CDrdsRealReceiverAddInImp@@O3AEHPBDPAV?$CStringT@DV?$StrTraitMFC_DLL@DV?$ChTraitsCRT@D@ATL@@@@@ATL@@1D@Z
	DD	FLAT:?RemoveRealSettingInfo@CDrdsRealReceiverAddInImp@@O3AEHPBDPAV?$CStringT@DV?$StrTraitMFC_DLL@DV?$ChTraitsCRT@D@ATL@@@@@ATL@@D@Z
	DD	FLAT:?SetRealAdvise@CDrdsRealReceiverAddInImp@@O3AEHH@Z
	DD	FLAT:?GetRealAdvisedInfo@CDrdsRealReceiverAddInImp@@O3AEHAAV?$CStringT@DV?$StrTraitMFC_DLL@DV?$ChTraitsCRT@D@ATL@@@@@ATL@@@Z
	DD	FLAT:?SetDrdsData@CDrdsRealReceiverAddInImp@@O3AEHIJ@Z
	DD	FLAT:?SetDrdsPacketEnd@CDrdsRealReceiverAddInImp@@O3AEHIJ@Z
	DD	FLAT:?SetRealData@IOldFXRealReceiver@@UAEHPBDN@Z
	DD	FLAT:?SetRealPacketEnd@IOldFXRealReceiver@@UAEHXZ
	DD	FLAT:?UpdatePacketData@CRealReceiverAddInImp@@O3AEHPBDHN@Z
	DD	FLAT:?SetRealAdviseRQ@CDrdsRealReceiverAddInImp@@O3AEHPBDH@Z
	DD	FLAT:?AddRealSettingInfoRQ@CDrdsRealReceiverAddInImp@@O3AEHPBD0PAV?$CStringT@DV?$StrTraitMFC_DLL@DV?$ChTraitsCRT@D@ATL@@@@@ATL@@1D@Z
	DD	FLAT:?RemoveRealSettingInfoRQ@CDrdsRealReceiverAddInImp@@O3AEHPBD0PAV?$CStringT@DV?$StrTraitMFC_DLL@DV?$ChTraitsCRT@D@ATL@@@@@ATL@@D@Z
	DD	FLAT:?RemoveRQPacket@CDrdsRealReceiverAddInImp@@O3AEXPBD@Z
	DD	FLAT:?SetRealDataRQ@IOldFXRealReceiver@@UAEHPBD0N@Z
	DD	FLAT:?SetRealPacketEndRQ@IOldFXRealReceiver@@UAEHPBD@Z
	DD	FLAT:?SetRealTimeTickUse@IOldFXRealReceiver@@UAEH_N@Z
	DD	FLAT:?GetNMTRClock@CDrdsRealReceiverAddInImp@@O3AE_JXZ
CONST	ENDS
;	COMDAT ??_7CDrdsRealReceiverAddInImp@@6BIRealReceiver@@@
CONST	SEGMENT
??_7CDrdsRealReceiverAddInImp@@6BIRealReceiver@@@ DD FLAT:??_R4CDrdsRealReceiverAddInImp@@6BIRealReceiver@@@ ; CDrdsRealReceiverAddInImp::`vftable'
	DD	FLAT:?QueryInterface@CRealReceiverAddInImp@@OEA@AGJABU_GUID@@PAPAX@Z
	DD	FLAT:?AddRef@CRealReceiverAddInImp@@OEA@AGKXZ
	DD	FLAT:?Release@CRealReceiverAddInImp@@OEA@AGKXZ
	DD	FLAT:??_ECDrdsRealReceiverAddInImp@@WEA@AEPAXI@Z
	DD	FLAT:?ResetRealSettingInfo@CDrdsRealReceiverAddInImp@@MAEHPBD@Z
	DD	FLAT:?AddRealSettingInfo@CDrdsRealReceiverAddInImp@@MAEHPBDPAV?$CStringT@DV?$StrTraitMFC_DLL@DV?$ChTraitsCRT@D@ATL@@@@@ATL@@1D@Z
	DD	FLAT:?RemoveRealSettingInfo@CDrdsRealReceiverAddInImp@@MAEHPBDPAV?$CStringT@DV?$StrTraitMFC_DLL@DV?$ChTraitsCRT@D@ATL@@@@@ATL@@D@Z
	DD	FLAT:?SetRealAdvise@CDrdsRealReceiverAddInImp@@MAEHH@Z
	DD	FLAT:?GetRealAdvisedInfo@CDrdsRealReceiverAddInImp@@MAEHAAV?$CStringT@DV?$StrTraitMFC_DLL@DV?$ChTraitsCRT@D@ATL@@@@@ATL@@@Z
	DD	FLAT:?SetDrdsData@CDrdsRealReceiverAddInImp@@MAEHIJ@Z
	DD	FLAT:?SetDrdsPacketEnd@CDrdsRealReceiverAddInImp@@MAEHIJ@Z
	DD	FLAT:?SetRealData@IRealReceiver@@UAEHPBDNH@Z
	DD	FLAT:?SetRealPacketEnd@IRealReceiver@@UAEHH@Z
	DD	FLAT:?UpdatePacketData@CRealReceiverAddInImp@@MAEHPBDHN@Z
	DD	FLAT:?SetRealAdviseRQ@CDrdsRealReceiverAddInImp@@MAEHPBDH@Z
	DD	FLAT:?AddRealSettingInfoRQ@CDrdsRealReceiverAddInImp@@MAEHPBD0PAV?$CStringT@DV?$StrTraitMFC_DLL@DV?$ChTraitsCRT@D@ATL@@@@@ATL@@1D@Z
	DD	FLAT:?RemoveRealSettingInfoRQ@CDrdsRealReceiverAddInImp@@MAEHPBD0PAV?$CStringT@DV?$StrTraitMFC_DLL@DV?$ChTraitsCRT@D@ATL@@@@@ATL@@D@Z
	DD	FLAT:?RemoveRQPacket@CDrdsRealReceiverAddInImp@@MAEXPBD@Z
	DD	FLAT:?SetRealDataRQ@CRealReceiverAddInImp@@MAEHPBD0NH@Z
	DD	FLAT:?SetRealPacketEndRQ@CRealReceiverAddInImp@@MAEHPBDH@Z
	DD	FLAT:?SetRealTimeTickUse@IRealReceiver@@UAEH_N@Z
	DD	FLAT:?IsInLogging@IRealReceiver@@UAEHXZ
	DD	FLAT:?WriteToStringLog@IRealReceiver@@UAEXPBD@Z
	DD	FLAT:?OffsetPacketData@IRealReceiver@@UAEXPBDN@Z
	DD	FLAT:?GetNMTRClock@CDrdsRealReceiverAddInImp@@MAE_JXZ
CONST	ENDS
;	COMDAT ??_7CDrdsRealReceiverAddInImp@@6BIChartAddIn000000@@@
CONST	SEGMENT
??_7CDrdsRealReceiverAddInImp@@6BIChartAddIn000000@@@ DD FLAT:??_R4CDrdsRealReceiverAddInImp@@6BIChartAddIn000000@@@ ; CDrdsRealReceiverAddInImp::`vftable'
	DD	FLAT:?QueryInterface@CRealReceiverAddInImp@@O7AGJABU_GUID@@PAPAX@Z
	DD	FLAT:?AddRef@CRealReceiverAddInImp@@O7AGKXZ
	DD	FLAT:?Release@CRealReceiverAddInImp@@O7AGKXZ
	DD	FLAT:??_ECDrdsRealReceiverAddInImp@@W7AEPAXI@Z
	DD	FLAT:?HasFullManager@CChartAddInBase000000@@MAEHXZ
	DD	FLAT:?GetAddInCustomInterface@CRealReceiverAddInImp@@EAEPAUIUnknown@@XZ
	DD	FLAT:?InvokeAddIn@CChartAddInBase000000@@MAEHHJ@Z
	DD	FLAT:?InvokeAddInStr@CChartAddInBase000000@@MAEHPBD0@Z
	DD	FLAT:?OnOcxDestroyWindow@CChartAddInBase000000@@MAEXXZ
	DD	FLAT:?ChangeChartMode@CChartAddInBase000000@@MAEXW4CHART_MODE@CChartInfo@@@Z
	DD	FLAT:?RegisterEventMap@CChartAddInBase000000@@UAEHH@Z
	DD	FLAT:?UnregisterEventMap@CChartAddInBase000000@@UAEHXZ
	DD	FLAT:?OnGSharedDataChange@CChartAddInBase000000@@MAEXPBD0H@Z
	DD	FLAT:?OnLSharedDataChange@CChartAddInBase000000@@MAEXPBD0@Z
	DD	FLAT:?OnResetChart@CChartAddInBase000000@@MAEXXZ
	DD	FLAT:?OnDrawBeforeGraph@CChartAddInBase000000@@MAEXPAUHDC__@@@Z
	DD	FLAT:?OnDrawAfterGraph@CRealReceiverAddInImp@@EAEXPAUHDC__@@@Z
	DD	FLAT:?OnPacketDataMultiItem@CRealReceiverAddInImp@@EAEXPBD0H@Z
	DD	FLAT:?OnTimer@CChartAddInBase000000@@MAEXI@Z
	DD	FLAT:?OnCaptureChanged@CChartAddInBase000000@@MAEXPAUHWND__@@QAUHBITMAP__@@@Z
	DD	FLAT:?OnResetMainBlock@CChartAddInBase000000@@MAEXXZ
	DD	FLAT:?OnUserIndiatorConditionLoaded@CChartAddInBase000000@@MAEXXZ
	DD	FLAT:?OnChartItemChanged@CChartAddInBase000000@@MAEXXZ
	DD	FLAT:?OnGraphDataChanged@CChartAddInBase000000@@MAEXXZ
	DD	FLAT:?OnBlockRemoved@CChartAddInBase000000@@MAEXHH@Z
	DD	FLAT:?OnGraphAdded@CChartAddInBase000000@@MAEXPBD0@Z
	DD	FLAT:?OnManualRealData@CChartAddInBase000000@@MAEXPBDNH@Z
	DD	FLAT:?OnContextMenu@CChartAddInBase000000@@MAEXPAUHWND__@@AAUtagPOINT@@@Z
	DD	FLAT:?OnGraphDeleted@CChartAddInBase000000@@MAEXPBD0@Z
	DD	FLAT:?OnPacketTruncated@CChartAddInBase000000@@MAEXH@Z
	DD	FLAT:?OnBlockChanged@CChartAddInBase000000@@MAEXW4BLOCKBEHAVIOR@CBlockBaseData@@HHHH@Z
	DD	FLAT:?OnToolCommand@CChartAddInBase000000@@MAEXHH@Z
	DD	FLAT:?OnRealData@CChartAddInBase000000@@MAEXPBDN0@Z
	DD	FLAT:?OnIndexedRealData@CChartAddInBase000000@@MAEXPBDHN@Z
	DD	FLAT:?OnRealPacketEnd@CChartAddInBase000000@@MAEXPBD@Z
	DD	FLAT:?OnLoadEnvironment@CChartAddInBase000000@@MAEXPAUIPropertyMap@@@Z
	DD	FLAT:?OnSaveEnvironment@CChartAddInBase000000@@MAEXPAUIPropertyMap@@@Z
	DD	FLAT:?DrawCursor@CChartAddInBase000000@@MAE?AUtagRECT@@PAUHDC__@@@Z
	DD	FLAT:?OnRecalculationComplete@CChartAddInBase000000@@MAEXXZ
	DD	FLAT:?OnPreRealData@CChartAddInBase000000@@MAEHPBDAAN0H@Z
	DD	FLAT:?OnPreIndexedRealData@CChartAddInBase000000@@MAEHPBDHAANH@Z
	DD	FLAT:?OnPreRealPacketEnd@CChartAddInBase000000@@MAEHPBDH@Z
	DD	FLAT:?OnPreNMTRClock@CChartAddInBase000000@@MAEHAA_J@Z
	DD	FLAT:?OnCmdMsg@CChartAddInBase000000@@MAEHIHPAUICmdUI000000@@@Z
	DD	FLAT:?OnAddInMsg@CChartAddInBase000000@@MAEHPBDJ@Z
	DD	FLAT:?OnAddInToolCommand@CChartAddInBase000000@@MAEHAAJW4EAICommandType@@JJ@Z
	DD	FLAT:?OnAddInToolCommand@CChartAddInBase000000@@MAEHAAJW4EAICommandType@@J@Z
	DD	FLAT:?OnAddInToolCommand@CChartAddInBase000000@@MAEHAAJW4EAICommandType@@PBDPAVCObject@@@Z
	DD	FLAT:?OnAddInToolCommand@CChartAddInBase000000@@MAEHAAJW4EAICommandType@@PBD@Z
	DD	FLAT:?OnAddInToolCommand@CChartAddInBase000000@@MAEHAAJW4EAICommandType@@PAUIGraphInfo000000@@@Z
	DD	FLAT:?OnAddInToolCommand@CChartAddInBase000000@@MAEHAAJW4EAICommandType@@@Z
	DD	FLAT:?OnAddInToolCommand@CChartAddInBase000000@@MAEHW4EAICommandType@@JJJJJJJJJ@Z
	DD	FLAT:?OnAddInToolCommand@CChartAddInBase000000@@MAEHW4EAICommandType@@JJ@Z
	DD	FLAT:?OnAddInToolCommand@CChartAddInBase000000@@MAEHW4EAICommandType@@JPBD11@Z
	DD	FLAT:?OnAddInToolCommand@CChartAddInBase000000@@MAEHW4EAICommandType@@JPBD@Z
	DD	FLAT:?OnAddInToolCommand@CChartAddInBase000000@@MAEHW4EAICommandType@@J@Z
	DD	FLAT:?OnAddInToolCommand@CChartAddInBase000000@@MAEHW4EAICommandType@@PBUIAddInDllBase@@@Z
	DD	FLAT:?OnAddInToolCommand@CChartAddInBase000000@@MAEHW4EAICommandType@@PBDJ@Z
	DD	FLAT:?OnAddInToolCommand@CChartAddInBase000000@@MAEHW4EAICommandType@@PBD1@Z
	DD	FLAT:?OnAddInToolCommand@CChartAddInBase000000@@MAEHW4EAICommandType@@PBD@Z
	DD	FLAT:?OnAddInToolCommand@CChartAddInBase000000@@MAEHW4EAICommandType@@PAUHDC__@@IAAUtagPOINT@@K@Z
	DD	FLAT:?OnAddInToolCommand@CChartAddInBase000000@@MAEHW4EAICommandType@@@Z
	DD	FLAT:?OnKeyDown@CChartAddInBase000000@@MAEHIII@Z
	DD	FLAT:?OnKeyUp@CChartAddInBase000000@@MAEHIII@Z
	DD	FLAT:?OnMouseWheel@CChartAddInBase000000@@MAEHIFUtagPOINT@@K@Z
	DD	FLAT:?OnMouseMove@CChartAddInBase000000@@MAEHPAUHDC__@@IAAUtagPOINT@@KQAUHBITMAP__@@@Z
	DD	FLAT:?OnLButtonDown@CChartAddInBase000000@@MAEHPAUHDC__@@IAAUtagPOINT@@K@Z
	DD	FLAT:?OnLButtonUp@CChartAddInBase000000@@MAEHPAUHDC__@@IAAUtagPOINT@@K@Z
	DD	FLAT:?OnLButtonDblClk@CChartAddInBase000000@@MAEHPAUHDC__@@IAAUtagPOINT@@K@Z
	DD	FLAT:?OnRButtonDown@CChartAddInBase000000@@MAEHPAUHDC__@@IAAUtagPOINT@@K@Z
	DD	FLAT:?OnRButtonUp@CChartAddInBase000000@@MAEHPAUHDC__@@IAAUtagPOINT@@K@Z
	DD	FLAT:?OnRButtonDblClk@CChartAddInBase000000@@MAEHPAUHDC__@@IAAUtagPOINT@@K@Z
CONST	ENDS
;	COMDAT ??_7CDrdsRealReceiverAddInImp@@6BCIWUnknown@@@
CONST	SEGMENT
??_7CDrdsRealReceiverAddInImp@@6BCIWUnknown@@@ DD FLAT:??_R4CDrdsRealReceiverAddInImp@@6BCIWUnknown@@@ ; CDrdsRealReceiverAddInImp::`vftable'
	DD	FLAT:?GetRuntimeClass@CObject@@UBEPAUCRuntimeClass@@XZ
	DD	FLAT:??_ECDrdsRealReceiverAddInImp@@UAEPAXI@Z
	DD	FLAT:?Serialize@CObject@@UAEXAAVCArchive@@@Z
	DD	FLAT:?AssertValid@CObject@@UBEXXZ
	DD	FLAT:?Dump@CObject@@UBEXAAVCDumpContext@@@Z
	DD	FLAT:?AddRef@CRealReceiverAddInImp@@MAGKXZ
	DD	FLAT:?Release@CRealReceiverAddInImp@@MAGKXZ
	DD	FLAT:?QueryInterface@CRealReceiverAddInImp@@MAGJABU_GUID@@PAPAX@Z
	DD	FLAT:?PostConstruct@CIWUnknown@@MAEXXZ
	DD	FLAT:?PreDestructX@CIWUnknown@@MAEXXZ
	DD	FLAT:?PreDestruct@CIWUnknown@@MAEXXZ
	DD	FLAT:?GetRegisteredEventMap@CDrdsRealReceiverAddInImp@@MBEPBW4EAddInEventType@IChartAddIn000000@@XZ
	DD	FLAT:?AfeterOnOcxDestroyWindow@CChartAddInBase000000@@MAEXXZ
CONST	ENDS
;	COMDAT ??_C@_0BN@NAGNLNAF@DrdsUnadvise?$CI?$CJ?5is?5not?5found?4@
CONST	SEGMENT
??_C@_0BN@NAGNLNAF@DrdsUnadvise?$CI?$CJ?5is?5not?5found?4@ DB 'DrdsUnadvi'
	DB	'se() is not found.', 00H			; `string'
CONST	ENDS
;	COMDAT ??_C@_0N@IFDMNOKK@DrdsUnadvise@
CONST	SEGMENT
??_C@_0N@IFDMNOKK@DrdsUnadvise@ DB 'DrdsUnadvise', 00H	; `string'
CONST	ENDS
;	COMDAT ??_C@_0BL@PCIOAEHO@DrdsAdvise?$CI?$CJ?5is?5not?5found?4@
CONST	SEGMENT
??_C@_0BL@PCIOAEHO@DrdsAdvise?$CI?$CJ?5is?5not?5found?4@ DB 'DrdsAdvise()'
	DB	' is not found.', 00H			; `string'
CONST	ENDS
;	COMDAT ??_C@_0L@CMJNOAIM@DrdsAdvise@
CONST	SEGMENT
??_C@_0L@CMJNOAIM@DrdsAdvise@ DB 'DrdsAdvise', 00H	; `string'
CONST	ENDS
;	COMDAT ??_C@_0BK@OOKKGPNJ@DrdsClose?$CI?$CJ?5is?5not?5found?4@
CONST	SEGMENT
??_C@_0BK@OOKKGPNJ@DrdsClose?$CI?$CJ?5is?5not?5found?4@ DB 'DrdsClose() i'
	DB	's not found.', 00H				; `string'
CONST	ENDS
;	COMDAT ??_C@_09CECGPDMH@DrdsClose@
CONST	SEGMENT
??_C@_09CECGPDMH@DrdsClose@ DB 'DrdsClose', 00H		; `string'
CONST	ENDS
;	COMDAT ??_C@_0BM@MIIIMLKG@DrdsConnect?$CI?$CJ?5is?5not?5found?4@
CONST	SEGMENT
??_C@_0BM@MIIIMLKG@DrdsConnect?$CI?$CJ?5is?5not?5found?4@ DB 'DrdsConnect'
	DB	'() is not found.', 00H			; `string'
CONST	ENDS
;	COMDAT ??_C@_0M@MDAJJFIJ@DrdsConnect@
CONST	SEGMENT
??_C@_0M@MDAJJFIJ@DrdsConnect@ DB 'DrdsConnect', 00H	; `string'
CONST	ENDS
;	COMDAT ??_C@_0BJ@DCKIHAKI@DrdsTerm?$CI?$CJ?5is?5not?5found?4@
CONST	SEGMENT
??_C@_0BJ@DCKIHAKI@DrdsTerm?$CI?$CJ?5is?5not?5found?4@ DB 'DrdsTerm() is '
	DB	'not found.', 00H				; `string'
CONST	ENDS
;	COMDAT ??_C@_08MAPPPPMA@DrdsTerm@
CONST	SEGMENT
??_C@_08MAPPPPMA@DrdsTerm@ DB 'DrdsTerm', 00H		; `string'
CONST	ENDS
;	COMDAT ??_C@_0BJ@IMPKJDLM@DrdsInit?$CI?$CJ?5is?5not?5found?4@
CONST	SEGMENT
??_C@_0BJ@IMPKJDLM@DrdsInit?$CI?$CJ?5is?5not?5found?4@ DB 'DrdsInit() is '
	DB	'not found.', 00H				; `string'
CONST	ENDS
;	COMDAT ??_C@_08EPNMOHL@DrdsInit@
CONST	SEGMENT
??_C@_08EPNMOHL@DrdsInit@ DB 'DrdsInit', 00H		; `string'
CONST	ENDS
;	COMDAT ??_C@_08MEICNPPA@Drds?4dll@
CONST	SEGMENT
??_C@_08MEICNPPA@Drds?4dll@ DB 'Drds.dll', 00H		; `string'
CONST	ENDS
;	COMDAT ??_R1A@?0A@EA@IUnknown@@8
rdata$r	SEGMENT
??_R1A@?0A@EA@IUnknown@@8 DD FLAT:??_R0?AUIUnknown@@@8	; IUnknown::`RTTI Base Class Descriptor at (0,-1,0,64)'
	DD	00H
	DD	00H
	DD	0ffffffffH
	DD	00H
	DD	040H
	DD	FLAT:??_R3IUnknown@@8
rdata$r	ENDS
;	COMDAT ??_R2IUnknown@@8
rdata$r	SEGMENT
??_R2IUnknown@@8 DD FLAT:??_R1A@?0A@EA@IUnknown@@8	; IUnknown::`RTTI Base Class Array'
rdata$r	ENDS
;	COMDAT ??_R3IUnknown@@8
rdata$r	SEGMENT
??_R3IUnknown@@8 DD 00H					; IUnknown::`RTTI Class Hierarchy Descriptor'
	DD	00H
	DD	01H
	DD	FLAT:??_R2IUnknown@@8
rdata$r	ENDS
;	COMDAT ??_R0?AUIUnknown@@@8
data$rs	SEGMENT
??_R0?AUIUnknown@@@8 DD FLAT:??_7type_info@@6B@		; IUnknown `RTTI Type Descriptor'
	DD	00H
	DB	'.?AUIUnknown@@', 00H
data$rs	ENDS
;	COMDAT ??_R1A@?0A@EA@CObject@@8
rdata$r	SEGMENT
??_R1A@?0A@EA@CObject@@8 DD FLAT:??_R0?AVCObject@@@8	; CObject::`RTTI Base Class Descriptor at (0,-1,0,64)'
	DD	00H
	DD	00H
	DD	0ffffffffH
	DD	00H
	DD	040H
	DD	FLAT:??_R3CObject@@8
rdata$r	ENDS
;	COMDAT ??_R2CObject@@8
rdata$r	SEGMENT
??_R2CObject@@8 DD FLAT:??_R1A@?0A@EA@CObject@@8	; CObject::`RTTI Base Class Array'
rdata$r	ENDS
;	COMDAT ??_R3CObject@@8
rdata$r	SEGMENT
??_R3CObject@@8 DD 00H					; CObject::`RTTI Class Hierarchy Descriptor'
	DD	00H
	DD	01H
	DD	FLAT:??_R2CObject@@8
rdata$r	ENDS
;	COMDAT ??_R0?AVCObject@@@8
data$rs	SEGMENT
??_R0?AVCObject@@@8 DD FLAT:??_7type_info@@6B@		; CObject `RTTI Type Descriptor'
	DD	00H
	DB	'.?AVCObject@@', 00H
data$rs	ENDS
;	COMDAT xdata$x
xdata$x	SEGMENT
__ehfuncinfo$??1ILPCSTR000000@@QAE@XZ DD 019930522H
	DD	00H
	DD	00H
	DD	2 DUP(00H)
	DD	2 DUP(00H)
	DD	00H
	DD	05H
xdata$x	ENDS
;	COMDAT xdata$x
xdata$x	SEGMENT
__unwindtable$??_GCDrdsRealReceiverAddInImp@@UAEPAXI@Z DD 0ffffffffH
	DD	FLAT:___std_terminate
__ehfuncinfo$??_GCDrdsRealReceiverAddInImp@@UAEPAXI@Z DD 019930522H
	DD	01H
	DD	FLAT:__unwindtable$??_GCDrdsRealReceiverAddInImp@@UAEPAXI@Z
	DD	2 DUP(00H)
	DD	2 DUP(00H)
	DD	00H
	DD	05H
xdata$x	ENDS
;	COMDAT xdata$x
xdata$x	SEGMENT
__unwindtable$?OnDrdsAdvise@CDrdsRealReceiverAddInImp@@IAEHPBD@Z DD 0ffffffffH
	DD	FLAT:__unwindfunclet$?OnDrdsAdvise@CDrdsRealReceiverAddInImp@@IAEHPBD@Z$0
	DD	0ffffffffH
	DD	FLAT:__unwindfunclet$?OnDrdsAdvise@CDrdsRealReceiverAddInImp@@IAEHPBD@Z$1
	DD	0ffffffffH
	DD	FLAT:___std_terminate
__ehfuncinfo$?OnDrdsAdvise@CDrdsRealReceiverAddInImp@@IAEHPBD@Z DD 019930522H
	DD	03H
	DD	FLAT:__unwindtable$?OnDrdsAdvise@CDrdsRealReceiverAddInImp@@IAEHPBD@Z
	DD	2 DUP(00H)
	DD	2 DUP(00H)
	DD	00H
	DD	01H
xdata$x	ENDS
;	COMDAT xdata$x
xdata$x	SEGMENT
__unwindtable$?OffDrdsAdvise@CDrdsRealReceiverAddInImp@@IAEHPBD@Z DD 0ffffffffH
	DD	FLAT:__unwindfunclet$?OffDrdsAdvise@CDrdsRealReceiverAddInImp@@IAEHPBD@Z$0
__ehfuncinfo$?OffDrdsAdvise@CDrdsRealReceiverAddInImp@@IAEHPBD@Z DD 019930522H
	DD	01H
	DD	FLAT:__unwindtable$?OffDrdsAdvise@CDrdsRealReceiverAddInImp@@IAEHPBD@Z
	DD	2 DUP(00H)
	DD	2 DUP(00H)
	DD	00H
	DD	01H
xdata$x	ENDS
;	COMDAT xdata$x
xdata$x	SEGMENT
__unwindtable$?SetDrdsPacketEnd@CDrdsRealReceiverAddInImp@@MAEHIJ@Z DD 0ffffffffH
	DD	FLAT:__unwindfunclet$?SetDrdsPacketEnd@CDrdsRealReceiverAddInImp@@MAEHIJ@Z$0
	DD	00H
	DD	FLAT:__unwindfunclet$?SetDrdsPacketEnd@CDrdsRealReceiverAddInImp@@MAEHIJ@Z$1
__ehfuncinfo$?SetDrdsPacketEnd@CDrdsRealReceiverAddInImp@@MAEHIJ@Z DD 019930522H
	DD	02H
	DD	FLAT:__unwindtable$?SetDrdsPacketEnd@CDrdsRealReceiverAddInImp@@MAEHIJ@Z
	DD	2 DUP(00H)
	DD	2 DUP(00H)
	DD	00H
	DD	01H
xdata$x	ENDS
;	COMDAT xdata$x
xdata$x	SEGMENT
__ehfuncinfo$?SetDrdsData@CDrdsRealReceiverAddInImp@@MAEHIJ@Z DD 019930522H
	DD	06H
	DD	FLAT:__unwindtable$?SetDrdsData@CDrdsRealReceiverAddInImp@@MAEHIJ@Z
	DD	2 DUP(00H)
	DD	2 DUP(00H)
	DD	00H
	DD	01H
__unwindtable$?SetDrdsData@CDrdsRealReceiverAddInImp@@MAEHIJ@Z DD 0ffffffffH
	DD	FLAT:__unwindfunclet$?SetDrdsData@CDrdsRealReceiverAddInImp@@MAEHIJ@Z$0
	DD	00H
	DD	FLAT:__unwindfunclet$?SetDrdsData@CDrdsRealReceiverAddInImp@@MAEHIJ@Z$1
	DD	01H
	DD	FLAT:__unwindfunclet$?SetDrdsData@CDrdsRealReceiverAddInImp@@MAEHIJ@Z$2
	DD	02H
	DD	FLAT:__unwindfunclet$?SetDrdsData@CDrdsRealReceiverAddInImp@@MAEHIJ@Z$3
	DD	03H
	DD	FLAT:__unwindfunclet$?SetDrdsData@CDrdsRealReceiverAddInImp@@MAEHIJ@Z$4
	DD	02H
	DD	FLAT:___std_terminate
xdata$x	ENDS
;	COMDAT xdata$x
xdata$x	SEGMENT
__ehfuncinfo$?GetRealAdvisedInfo@CDrdsRealReceiverAddInImp@@MAEHAAV?$CStringT@DV?$StrTraitMFC_DLL@DV?$ChTraitsCRT@D@ATL@@@@@ATL@@@Z DD 019930522H
	DD	014H
	DD	FLAT:__unwindtable$?GetRealAdvisedInfo@CDrdsRealReceiverAddInImp@@MAEHAAV?$CStringT@DV?$StrTraitMFC_DLL@DV?$ChTraitsCRT@D@ATL@@@@@ATL@@@Z
	DD	2 DUP(00H)
	DD	2 DUP(00H)
	DD	00H
	DD	01H
__unwindtable$?GetRealAdvisedInfo@CDrdsRealReceiverAddInImp@@MAEHAAV?$CStringT@DV?$StrTraitMFC_DLL@DV?$ChTraitsCRT@D@ATL@@@@@ATL@@@Z DD 0ffffffffH
	DD	FLAT:__unwindfunclet$?GetRealAdvisedInfo@CDrdsRealReceiverAddInImp@@MAEHAAV?$CStringT@DV?$StrTraitMFC_DLL@DV?$ChTraitsCRT@D@ATL@@@@@ATL@@@Z$0
	DD	00H
	DD	FLAT:__unwindfunclet$?GetRealAdvisedInfo@CDrdsRealReceiverAddInImp@@MAEHAAV?$CStringT@DV?$StrTraitMFC_DLL@DV?$ChTraitsCRT@D@ATL@@@@@ATL@@@Z$1
	DD	01H
	DD	FLAT:__unwindfunclet$?GetRealAdvisedInfo@CDrdsRealReceiverAddInImp@@MAEHAAV?$CStringT@DV?$StrTraitMFC_DLL@DV?$ChTraitsCRT@D@ATL@@@@@ATL@@@Z$2
	DD	02H
	DD	FLAT:__unwindfunclet$?GetRealAdvisedInfo@CDrdsRealReceiverAddInImp@@MAEHAAV?$CStringT@DV?$StrTraitMFC_DLL@DV?$ChTraitsCRT@D@ATL@@@@@ATL@@@Z$3
	DD	03H
	DD	FLAT:__unwindfunclet$?GetRealAdvisedInfo@CDrdsRealReceiverAddInImp@@MAEHAAV?$CStringT@DV?$StrTraitMFC_DLL@DV?$ChTraitsCRT@D@ATL@@@@@ATL@@@Z$4
	DD	04H
	DD	FLAT:__unwindfunclet$?GetRealAdvisedInfo@CDrdsRealReceiverAddInImp@@MAEHAAV?$CStringT@DV?$StrTraitMFC_DLL@DV?$ChTraitsCRT@D@ATL@@@@@ATL@@@Z$12
	DD	05H
	DD	FLAT:__unwindfunclet$?GetRealAdvisedInfo@CDrdsRealReceiverAddInImp@@MAEHAAV?$CStringT@DV?$StrTraitMFC_DLL@DV?$ChTraitsCRT@D@ATL@@@@@ATL@@@Z$13
	DD	06H
	DD	FLAT:__unwindfunclet$?GetRealAdvisedInfo@CDrdsRealReceiverAddInImp@@MAEHAAV?$CStringT@DV?$StrTraitMFC_DLL@DV?$ChTraitsCRT@D@ATL@@@@@ATL@@@Z$14
	DD	07H
	DD	FLAT:__unwindfunclet$?GetRealAdvisedInfo@CDrdsRealReceiverAddInImp@@MAEHAAV?$CStringT@DV?$StrTraitMFC_DLL@DV?$ChTraitsCRT@D@ATL@@@@@ATL@@@Z$15
	DD	08H
	DD	FLAT:__unwindfunclet$?GetRealAdvisedInfo@CDrdsRealReceiverAddInImp@@MAEHAAV?$CStringT@DV?$StrTraitMFC_DLL@DV?$ChTraitsCRT@D@ATL@@@@@ATL@@@Z$16
	DD	09H
	DD	FLAT:__unwindfunclet$?GetRealAdvisedInfo@CDrdsRealReceiverAddInImp@@MAEHAAV?$CStringT@DV?$StrTraitMFC_DLL@DV?$ChTraitsCRT@D@ATL@@@@@ATL@@@Z$17
	DD	0aH
	DD	FLAT:__unwindfunclet$?GetRealAdvisedInfo@CDrdsRealReceiverAddInImp@@MAEHAAV?$CStringT@DV?$StrTraitMFC_DLL@DV?$ChTraitsCRT@D@ATL@@@@@ATL@@@Z$11
	DD	09H
	DD	FLAT:__unwindfunclet$?GetRealAdvisedInfo@CDrdsRealReceiverAddInImp@@MAEHAAV?$CStringT@DV?$StrTraitMFC_DLL@DV?$ChTraitsCRT@D@ATL@@@@@ATL@@@Z$11
	DD	08H
	DD	FLAT:__unwindfunclet$?GetRealAdvisedInfo@CDrdsRealReceiverAddInImp@@MAEHAAV?$CStringT@DV?$StrTraitMFC_DLL@DV?$ChTraitsCRT@D@ATL@@@@@ATL@@@Z$11
	DD	07H
	DD	FLAT:__unwindfunclet$?GetRealAdvisedInfo@CDrdsRealReceiverAddInImp@@MAEHAAV?$CStringT@DV?$StrTraitMFC_DLL@DV?$ChTraitsCRT@D@ATL@@@@@ATL@@@Z$11
	DD	06H
	DD	FLAT:__unwindfunclet$?GetRealAdvisedInfo@CDrdsRealReceiverAddInImp@@MAEHAAV?$CStringT@DV?$StrTraitMFC_DLL@DV?$ChTraitsCRT@D@ATL@@@@@ATL@@@Z$11
	DD	05H
	DD	FLAT:__unwindfunclet$?GetRealAdvisedInfo@CDrdsRealReceiverAddInImp@@MAEHAAV?$CStringT@DV?$StrTraitMFC_DLL@DV?$ChTraitsCRT@D@ATL@@@@@ATL@@@Z$11
	DD	04H
	DD	FLAT:__unwindfunclet$?GetRealAdvisedInfo@CDrdsRealReceiverAddInImp@@MAEHAAV?$CStringT@DV?$StrTraitMFC_DLL@DV?$ChTraitsCRT@D@ATL@@@@@ATL@@@Z$11
	DD	03H
	DD	FLAT:__unwindfunclet$?GetRealAdvisedInfo@CDrdsRealReceiverAddInImp@@MAEHAAV?$CStringT@DV?$StrTraitMFC_DLL@DV?$ChTraitsCRT@D@ATL@@@@@ATL@@@Z$11
	DD	01H
	DD	FLAT:___std_terminate
xdata$x	ENDS
;	COMDAT xdata$x
xdata$x	SEGMENT
__ehfuncinfo$??1CDrdsRealReceiverAddInImp@@UAE@XZ DD 019930522H
	DD	00H
	DD	00H
	DD	2 DUP(00H)
	DD	2 DUP(00H)
	DD	00H
	DD	05H
xdata$x	ENDS
;	COMDAT xdata$x
xdata$x	SEGMENT
__ehfuncinfo$??0CDrdsRealReceiverAddInImp@@QAE@PAUIChartOCX000000@@PAUIAddInDllBase@@@Z DD 019930522H
	DD	05H
	DD	FLAT:__unwindtable$??0CDrdsRealReceiverAddInImp@@QAE@PAUIChartOCX000000@@PAUIAddInDllBase@@@Z
	DD	2 DUP(00H)
	DD	2 DUP(00H)
	DD	00H
	DD	01H
__unwindtable$??0CDrdsRealReceiverAddInImp@@QAE@PAUIChartOCX000000@@PAUIAddInDllBase@@@Z DD 0ffffffffH
	DD	FLAT:__unwindfunclet$??0CDrdsRealReceiverAddInImp@@QAE@PAUIChartOCX000000@@PAUIAddInDllBase@@@Z$0
	DD	00H
	DD	FLAT:__unwindfunclet$??0CDrdsRealReceiverAddInImp@@QAE@PAUIChartOCX000000@@PAUIAddInDllBase@@@Z$4
	DD	00H
	DD	FLAT:__unwindfunclet$??0CDrdsRealReceiverAddInImp@@QAE@PAUIChartOCX000000@@PAUIAddInDllBase@@@Z$1
	DD	02H
	DD	FLAT:__unwindfunclet$??0CDrdsRealReceiverAddInImp@@QAE@PAUIChartOCX000000@@PAUIAddInDllBase@@@Z$2
	DD	02H
	DD	FLAT:__unwindfunclet$??0CDrdsRealReceiverAddInImp@@QAE@PAUIChartOCX000000@@PAUIAddInDllBase@@@Z$3
xdata$x	ENDS
;	COMDAT xdata$x
xdata$x	SEGMENT
__unwindtable$??0CDrdsLoadLib@@QAE@XZ DD 0ffffffffH
	DD	FLAT:__unwindfunclet$??0CDrdsLoadLib@@QAE@XZ$0
__ehfuncinfo$??0CDrdsLoadLib@@QAE@XZ DD 019930522H
	DD	01H
	DD	FLAT:__unwindtable$??0CDrdsLoadLib@@QAE@XZ
	DD	2 DUP(00H)
	DD	2 DUP(00H)
	DD	00H
	DD	01H
xdata$x	ENDS
;	COMDAT xdata$x
xdata$x	SEGMENT
__unwindtable$??HATL@@YA?AV?$CStringT@DV?$StrTraitMFC_DLL@DV?$ChTraitsCRT@D@ATL@@@@@0@ABV10@PBD@Z DD 0ffffffffH
	DD	FLAT:__unwindfunclet$??HATL@@YA?AV?$CStringT@DV?$StrTraitMFC_DLL@DV?$ChTraitsCRT@D@ATL@@@@@0@ABV10@PBD@Z$0
__ehfuncinfo$??HATL@@YA?AV?$CStringT@DV?$StrTraitMFC_DLL@DV?$ChTraitsCRT@D@ATL@@@@@0@ABV10@PBD@Z DD 019930522H
	DD	01H
	DD	FLAT:__unwindtable$??HATL@@YA?AV?$CStringT@DV?$StrTraitMFC_DLL@DV?$ChTraitsCRT@D@ATL@@@@@0@ABV10@PBD@Z
	DD	2 DUP(00H)
	DD	2 DUP(00H)
	DD	00H
	DD	01H
xdata$x	ENDS
;	COMDAT xdata$x
xdata$x	SEGMENT
__unwindtable$??HATL@@YA?AV?$CStringT@DV?$StrTraitMFC_DLL@DV?$ChTraitsCRT@D@ATL@@@@@0@ABV10@0@Z DD 0ffffffffH
	DD	FLAT:__unwindfunclet$??HATL@@YA?AV?$CStringT@DV?$StrTraitMFC_DLL@DV?$ChTraitsCRT@D@ATL@@@@@0@ABV10@0@Z$0
__ehfuncinfo$??HATL@@YA?AV?$CStringT@DV?$StrTraitMFC_DLL@DV?$ChTraitsCRT@D@ATL@@@@@0@ABV10@0@Z DD 019930522H
	DD	01H
	DD	FLAT:__unwindtable$??HATL@@YA?AV?$CStringT@DV?$StrTraitMFC_DLL@DV?$ChTraitsCRT@D@ATL@@@@@0@ABV10@0@Z
	DD	2 DUP(00H)
	DD	2 DUP(00H)
	DD	00H
	DD	01H
xdata$x	ENDS
; Function compile flags: /Odsp
;	COMDAT ?GetNMTRClock@CDrdsRealReceiverAddInImp@@O7AE_JXZ
_TEXT	SEGMENT
?GetNMTRClock@CDrdsRealReceiverAddInImp@@O7AE_JXZ PROC	; [thunk]:CDrdsRealReceiverAddInImp::GetNMTRClock`adjustor{8}', COMDAT
  00000	83 e9 08	 sub	 ecx, 8
  00003	e9 00 00 00 00	 jmp	 ?GetNMTRClock@CDrdsRealReceiverAddInImp@@MAE_JXZ ; CDrdsRealReceiverAddInImp::GetNMTRClock
?GetNMTRClock@CDrdsRealReceiverAddInImp@@O7AE_JXZ ENDP	; [thunk]:CDrdsRealReceiverAddInImp::GetNMTRClock`adjustor{8}'
_TEXT	ENDS
; Function compile flags: /Odsp
;	COMDAT ?RemoveRQPacket@CDrdsRealReceiverAddInImp@@O7AEXPBD@Z
_TEXT	SEGMENT
?RemoveRQPacket@CDrdsRealReceiverAddInImp@@O7AEXPBD@Z PROC ; [thunk]:CDrdsRealReceiverAddInImp::RemoveRQPacket`adjustor{8}', COMDAT
  00000	83 e9 08	 sub	 ecx, 8
  00003	e9 00 00 00 00	 jmp	 ?RemoveRQPacket@CDrdsRealReceiverAddInImp@@MAEXPBD@Z ; CDrdsRealReceiverAddInImp::RemoveRQPacket
?RemoveRQPacket@CDrdsRealReceiverAddInImp@@O7AEXPBD@Z ENDP ; [thunk]:CDrdsRealReceiverAddInImp::RemoveRQPacket`adjustor{8}'
_TEXT	ENDS
; Function compile flags: /Odsp
;	COMDAT ?RemoveRealSettingInfoRQ@CDrdsRealReceiverAddInImp@@O7AEHPBD0PAV?$CStringT@DV?$StrTraitMFC_DLL@DV?$ChTraitsCRT@D@ATL@@@@@ATL@@D@Z
_TEXT	SEGMENT
?RemoveRealSettingInfoRQ@CDrdsRealReceiverAddInImp@@O7AEHPBD0PAV?$CStringT@DV?$StrTraitMFC_DLL@DV?$ChTraitsCRT@D@ATL@@@@@ATL@@D@Z PROC ; [thunk]:CDrdsRealReceiverAddInImp::RemoveRealSettingInfoRQ`adjustor{8}', COMDAT
  00000	83 e9 08	 sub	 ecx, 8
  00003	e9 00 00 00 00	 jmp	 ?RemoveRealSettingInfoRQ@CDrdsRealReceiverAddInImp@@MAEHPBD0PAV?$CStringT@DV?$StrTraitMFC_DLL@DV?$ChTraitsCRT@D@ATL@@@@@ATL@@D@Z ; CDrdsRealReceiverAddInImp::RemoveRealSettingInfoRQ
?RemoveRealSettingInfoRQ@CDrdsRealReceiverAddInImp@@O7AEHPBD0PAV?$CStringT@DV?$StrTraitMFC_DLL@DV?$ChTraitsCRT@D@ATL@@@@@ATL@@D@Z ENDP ; [thunk]:CDrdsRealReceiverAddInImp::RemoveRealSettingInfoRQ`adjustor{8}'
_TEXT	ENDS
; Function compile flags: /Odsp
;	COMDAT ?AddRealSettingInfoRQ@CDrdsRealReceiverAddInImp@@O7AEHPBD0PAV?$CStringT@DV?$StrTraitMFC_DLL@DV?$ChTraitsCRT@D@ATL@@@@@ATL@@1D@Z
_TEXT	SEGMENT
?AddRealSettingInfoRQ@CDrdsRealReceiverAddInImp@@O7AEHPBD0PAV?$CStringT@DV?$StrTraitMFC_DLL@DV?$ChTraitsCRT@D@ATL@@@@@ATL@@1D@Z PROC ; [thunk]:CDrdsRealReceiverAddInImp::AddRealSettingInfoRQ`adjustor{8}', COMDAT
  00000	83 e9 08	 sub	 ecx, 8
  00003	e9 00 00 00 00	 jmp	 ?AddRealSettingInfoRQ@CDrdsRealReceiverAddInImp@@MAEHPBD0PAV?$CStringT@DV?$StrTraitMFC_DLL@DV?$ChTraitsCRT@D@ATL@@@@@ATL@@1D@Z ; CDrdsRealReceiverAddInImp::AddRealSettingInfoRQ
?AddRealSettingInfoRQ@CDrdsRealReceiverAddInImp@@O7AEHPBD0PAV?$CStringT@DV?$StrTraitMFC_DLL@DV?$ChTraitsCRT@D@ATL@@@@@ATL@@1D@Z ENDP ; [thunk]:CDrdsRealReceiverAddInImp::AddRealSettingInfoRQ`adjustor{8}'
_TEXT	ENDS
; Function compile flags: /Odsp
;	COMDAT ?SetRealAdviseRQ@CDrdsRealReceiverAddInImp@@O7AEHPBDH@Z
_TEXT	SEGMENT
?SetRealAdviseRQ@CDrdsRealReceiverAddInImp@@O7AEHPBDH@Z PROC ; [thunk]:CDrdsRealReceiverAddInImp::SetRealAdviseRQ`adjustor{8}', COMDAT
  00000	83 e9 08	 sub	 ecx, 8
  00003	e9 00 00 00 00	 jmp	 ?SetRealAdviseRQ@CDrdsRealReceiverAddInImp@@MAEHPBDH@Z ; CDrdsRealReceiverAddInImp::SetRealAdviseRQ
?SetRealAdviseRQ@CDrdsRealReceiverAddInImp@@O7AEHPBDH@Z ENDP ; [thunk]:CDrdsRealReceiverAddInImp::SetRealAdviseRQ`adjustor{8}'
_TEXT	ENDS
; Function compile flags: /Odsp
;	COMDAT ?UpdatePacketData@CRealReceiverAddInImp@@O7AEHPBDHN@Z
_TEXT	SEGMENT
?UpdatePacketData@CRealReceiverAddInImp@@O7AEHPBDHN@Z PROC ; [thunk]:CRealReceiverAddInImp::UpdatePacketData`adjustor{8}', COMDAT
  00000	83 e9 08	 sub	 ecx, 8
  00003	e9 00 00 00 00	 jmp	 ?UpdatePacketData@CRealReceiverAddInImp@@MAEHPBDHN@Z ; CRealReceiverAddInImp::UpdatePacketData
?UpdatePacketData@CRealReceiverAddInImp@@O7AEHPBDHN@Z ENDP ; [thunk]:CRealReceiverAddInImp::UpdatePacketData`adjustor{8}'
_TEXT	ENDS
; Function compile flags: /Odsp
;	COMDAT ?SetDrdsPacketEnd@CDrdsRealReceiverAddInImp@@O7AEHIJ@Z
_TEXT	SEGMENT
?SetDrdsPacketEnd@CDrdsRealReceiverAddInImp@@O7AEHIJ@Z PROC ; [thunk]:CDrdsRealReceiverAddInImp::SetDrdsPacketEnd`adjustor{8}', COMDAT
  00000	83 e9 08	 sub	 ecx, 8
  00003	e9 00 00 00 00	 jmp	 ?SetDrdsPacketEnd@CDrdsRealReceiverAddInImp@@MAEHIJ@Z ; CDrdsRealReceiverAddInImp::SetDrdsPacketEnd
?SetDrdsPacketEnd@CDrdsRealReceiverAddInImp@@O7AEHIJ@Z ENDP ; [thunk]:CDrdsRealReceiverAddInImp::SetDrdsPacketEnd`adjustor{8}'
_TEXT	ENDS
; Function compile flags: /Odsp
;	COMDAT ?SetDrdsData@CDrdsRealReceiverAddInImp@@O7AEHIJ@Z
_TEXT	SEGMENT
?SetDrdsData@CDrdsRealReceiverAddInImp@@O7AEHIJ@Z PROC	; [thunk]:CDrdsRealReceiverAddInImp::SetDrdsData`adjustor{8}', COMDAT
  00000	83 e9 08	 sub	 ecx, 8
  00003	e9 00 00 00 00	 jmp	 ?SetDrdsData@CDrdsRealReceiverAddInImp@@MAEHIJ@Z ; CDrdsRealReceiverAddInImp::SetDrdsData
?SetDrdsData@CDrdsRealReceiverAddInImp@@O7AEHIJ@Z ENDP	; [thunk]:CDrdsRealReceiverAddInImp::SetDrdsData`adjustor{8}'
_TEXT	ENDS
; Function compile flags: /Odsp
;	COMDAT ?GetRealAdvisedInfo@CDrdsRealReceiverAddInImp@@O7AEHAAV?$CStringT@DV?$StrTraitMFC_DLL@DV?$ChTraitsCRT@D@ATL@@@@@ATL@@@Z
_TEXT	SEGMENT
?GetRealAdvisedInfo@CDrdsRealReceiverAddInImp@@O7AEHAAV?$CStringT@DV?$StrTraitMFC_DLL@DV?$ChTraitsCRT@D@ATL@@@@@ATL@@@Z PROC ; [thunk]:CDrdsRealReceiverAddInImp::GetRealAdvisedInfo`adjustor{8}', COMDAT
  00000	83 e9 08	 sub	 ecx, 8
  00003	e9 00 00 00 00	 jmp	 ?GetRealAdvisedInfo@CDrdsRealReceiverAddInImp@@MAEHAAV?$CStringT@DV?$StrTraitMFC_DLL@DV?$ChTraitsCRT@D@ATL@@@@@ATL@@@Z ; CDrdsRealReceiverAddInImp::GetRealAdvisedInfo
?GetRealAdvisedInfo@CDrdsRealReceiverAddInImp@@O7AEHAAV?$CStringT@DV?$StrTraitMFC_DLL@DV?$ChTraitsCRT@D@ATL@@@@@ATL@@@Z ENDP ; [thunk]:CDrdsRealReceiverAddInImp::GetRealAdvisedInfo`adjustor{8}'
_TEXT	ENDS
; Function compile flags: /Odsp
;	COMDAT ?SetRealAdvise@CDrdsRealReceiverAddInImp@@O7AEHH@Z
_TEXT	SEGMENT
?SetRealAdvise@CDrdsRealReceiverAddInImp@@O7AEHH@Z PROC	; [thunk]:CDrdsRealReceiverAddInImp::SetRealAdvise`adjustor{8}', COMDAT
  00000	83 e9 08	 sub	 ecx, 8
  00003	e9 00 00 00 00	 jmp	 ?SetRealAdvise@CDrdsRealReceiverAddInImp@@MAEHH@Z ; CDrdsRealReceiverAddInImp::SetRealAdvise
?SetRealAdvise@CDrdsRealReceiverAddInImp@@O7AEHH@Z ENDP	; [thunk]:CDrdsRealReceiverAddInImp::SetRealAdvise`adjustor{8}'
_TEXT	ENDS
; Function compile flags: /Odsp
;	COMDAT ?RemoveRealSettingInfo@CDrdsRealReceiverAddInImp@@O7AEHPBDPAV?$CStringT@DV?$StrTraitMFC_DLL@DV?$ChTraitsCRT@D@ATL@@@@@ATL@@D@Z
_TEXT	SEGMENT
?RemoveRealSettingInfo@CDrdsRealReceiverAddInImp@@O7AEHPBDPAV?$CStringT@DV?$StrTraitMFC_DLL@DV?$ChTraitsCRT@D@ATL@@@@@ATL@@D@Z PROC ; [thunk]:CDrdsRealReceiverAddInImp::RemoveRealSettingInfo`adjustor{8}', COMDAT
  00000	83 e9 08	 sub	 ecx, 8
  00003	e9 00 00 00 00	 jmp	 ?RemoveRealSettingInfo@CDrdsRealReceiverAddInImp@@MAEHPBDPAV?$CStringT@DV?$StrTraitMFC_DLL@DV?$ChTraitsCRT@D@ATL@@@@@ATL@@D@Z ; CDrdsRealReceiverAddInImp::RemoveRealSettingInfo
?RemoveRealSettingInfo@CDrdsRealReceiverAddInImp@@O7AEHPBDPAV?$CStringT@DV?$StrTraitMFC_DLL@DV?$ChTraitsCRT@D@ATL@@@@@ATL@@D@Z ENDP ; [thunk]:CDrdsRealReceiverAddInImp::RemoveRealSettingInfo`adjustor{8}'
_TEXT	ENDS
; Function compile flags: /Odsp
;	COMDAT ?AddRealSettingInfo@CDrdsRealReceiverAddInImp@@O7AEHPBDPAV?$CStringT@DV?$StrTraitMFC_DLL@DV?$ChTraitsCRT@D@ATL@@@@@ATL@@1D@Z
_TEXT	SEGMENT
?AddRealSettingInfo@CDrdsRealReceiverAddInImp@@O7AEHPBDPAV?$CStringT@DV?$StrTraitMFC_DLL@DV?$ChTraitsCRT@D@ATL@@@@@ATL@@1D@Z PROC ; [thunk]:CDrdsRealReceiverAddInImp::AddRealSettingInfo`adjustor{8}', COMDAT
  00000	83 e9 08	 sub	 ecx, 8
  00003	e9 00 00 00 00	 jmp	 ?AddRealSettingInfo@CDrdsRealReceiverAddInImp@@MAEHPBDPAV?$CStringT@DV?$StrTraitMFC_DLL@DV?$ChTraitsCRT@D@ATL@@@@@ATL@@1D@Z ; CDrdsRealReceiverAddInImp::AddRealSettingInfo
?AddRealSettingInfo@CDrdsRealReceiverAddInImp@@O7AEHPBDPAV?$CStringT@DV?$StrTraitMFC_DLL@DV?$ChTraitsCRT@D@ATL@@@@@ATL@@1D@Z ENDP ; [thunk]:CDrdsRealReceiverAddInImp::AddRealSettingInfo`adjustor{8}'
_TEXT	ENDS
; Function compile flags: /Odsp
;	COMDAT ?ResetRealSettingInfo@CDrdsRealReceiverAddInImp@@O7AEHPBD@Z
_TEXT	SEGMENT
?ResetRealSettingInfo@CDrdsRealReceiverAddInImp@@O7AEHPBD@Z PROC ; [thunk]:CDrdsRealReceiverAddInImp::ResetRealSettingInfo`adjustor{8}', COMDAT
  00000	83 e9 08	 sub	 ecx, 8
  00003	e9 00 00 00 00	 jmp	 ?ResetRealSettingInfo@CDrdsRealReceiverAddInImp@@MAEHPBD@Z ; CDrdsRealReceiverAddInImp::ResetRealSettingInfo
?ResetRealSettingInfo@CDrdsRealReceiverAddInImp@@O7AEHPBD@Z ENDP ; [thunk]:CDrdsRealReceiverAddInImp::ResetRealSettingInfo`adjustor{8}'
_TEXT	ENDS
; Function compile flags: /Odsp
;	COMDAT ??_ECDrdsRealReceiverAddInImp@@WEI@AEPAXI@Z
_TEXT	SEGMENT
??_ECDrdsRealReceiverAddInImp@@WEI@AEPAXI@Z PROC	; [thunk]:CDrdsRealReceiverAddInImp::`vector deleting destructor', COMDAT
  00000	83 e9 48	 sub	 ecx, 72			; 00000048H
  00003	e9 00 00 00 00	 jmp	 ??_ECDrdsRealReceiverAddInImp@@UAEPAXI@Z
??_ECDrdsRealReceiverAddInImp@@WEI@AEPAXI@Z ENDP	; [thunk]:CDrdsRealReceiverAddInImp::`vector deleting destructor'
_TEXT	ENDS
; Function compile flags: /Odsp
;	COMDAT ?Release@CRealReceiverAddInImp@@OEI@AGKXZ
_TEXT	SEGMENT
?Release@CRealReceiverAddInImp@@OEI@AGKXZ PROC		; [thunk]:CRealReceiverAddInImp::Release`adjustor{72}', COMDAT
  00000	83 6c 24 04 48	 sub	 DWORD PTR [esp+4], 72	; 00000048H
  00005	e9 00 00 00 00	 jmp	 ?Release@CRealReceiverAddInImp@@MAGKXZ ; CRealReceiverAddInImp::Release
?Release@CRealReceiverAddInImp@@OEI@AGKXZ ENDP		; [thunk]:CRealReceiverAddInImp::Release`adjustor{72}'
_TEXT	ENDS
; Function compile flags: /Odsp
;	COMDAT ?AddRef@CRealReceiverAddInImp@@OEI@AGKXZ
_TEXT	SEGMENT
?AddRef@CRealReceiverAddInImp@@OEI@AGKXZ PROC		; [thunk]:CRealReceiverAddInImp::AddRef`adjustor{72}', COMDAT
  00000	83 6c 24 04 48	 sub	 DWORD PTR [esp+4], 72	; 00000048H
  00005	e9 00 00 00 00	 jmp	 ?AddRef@CRealReceiverAddInImp@@MAGKXZ ; CRealReceiverAddInImp::AddRef
?AddRef@CRealReceiverAddInImp@@OEI@AGKXZ ENDP		; [thunk]:CRealReceiverAddInImp::AddRef`adjustor{72}'
_TEXT	ENDS
; Function compile flags: /Odsp
;	COMDAT ?QueryInterface@CRealReceiverAddInImp@@OEI@AGJABU_GUID@@PAPAX@Z
_TEXT	SEGMENT
?QueryInterface@CRealReceiverAddInImp@@OEI@AGJABU_GUID@@PAPAX@Z PROC ; [thunk]:CRealReceiverAddInImp::QueryInterface`adjustor{72}', COMDAT
  00000	83 6c 24 04 48	 sub	 DWORD PTR [esp+4], 72	; 00000048H
  00005	e9 00 00 00 00	 jmp	 ?QueryInterface@CRealReceiverAddInImp@@MAGJABU_GUID@@PAPAX@Z ; CRealReceiverAddInImp::QueryInterface
?QueryInterface@CRealReceiverAddInImp@@OEI@AGJABU_GUID@@PAPAX@Z ENDP ; [thunk]:CRealReceiverAddInImp::QueryInterface`adjustor{72}'
_TEXT	ENDS
; Function compile flags: /Odsp
;	COMDAT ?GetNMTRClock@CDrdsRealReceiverAddInImp@@O3AE_JXZ
_TEXT	SEGMENT
?GetNMTRClock@CDrdsRealReceiverAddInImp@@O3AE_JXZ PROC	; [thunk]:CDrdsRealReceiverAddInImp::GetNMTRClock`adjustor{4}', COMDAT
  00000	83 e9 04	 sub	 ecx, 4
  00003	e9 00 00 00 00	 jmp	 ?GetNMTRClock@CDrdsRealReceiverAddInImp@@MAE_JXZ ; CDrdsRealReceiverAddInImp::GetNMTRClock
?GetNMTRClock@CDrdsRealReceiverAddInImp@@O3AE_JXZ ENDP	; [thunk]:CDrdsRealReceiverAddInImp::GetNMTRClock`adjustor{4}'
_TEXT	ENDS
; Function compile flags: /Odsp
;	COMDAT ?RemoveRQPacket@CDrdsRealReceiverAddInImp@@O3AEXPBD@Z
_TEXT	SEGMENT
?RemoveRQPacket@CDrdsRealReceiverAddInImp@@O3AEXPBD@Z PROC ; [thunk]:CDrdsRealReceiverAddInImp::RemoveRQPacket`adjustor{4}', COMDAT
  00000	83 e9 04	 sub	 ecx, 4
  00003	e9 00 00 00 00	 jmp	 ?RemoveRQPacket@CDrdsRealReceiverAddInImp@@MAEXPBD@Z ; CDrdsRealReceiverAddInImp::RemoveRQPacket
?RemoveRQPacket@CDrdsRealReceiverAddInImp@@O3AEXPBD@Z ENDP ; [thunk]:CDrdsRealReceiverAddInImp::RemoveRQPacket`adjustor{4}'
_TEXT	ENDS
; Function compile flags: /Odsp
;	COMDAT ?RemoveRealSettingInfoRQ@CDrdsRealReceiverAddInImp@@O3AEHPBD0PAV?$CStringT@DV?$StrTraitMFC_DLL@DV?$ChTraitsCRT@D@ATL@@@@@ATL@@D@Z
_TEXT	SEGMENT
?RemoveRealSettingInfoRQ@CDrdsRealReceiverAddInImp@@O3AEHPBD0PAV?$CStringT@DV?$StrTraitMFC_DLL@DV?$ChTraitsCRT@D@ATL@@@@@ATL@@D@Z PROC ; [thunk]:CDrdsRealReceiverAddInImp::RemoveRealSettingInfoRQ`adjustor{4}', COMDAT
  00000	83 e9 04	 sub	 ecx, 4
  00003	e9 00 00 00 00	 jmp	 ?RemoveRealSettingInfoRQ@CDrdsRealReceiverAddInImp@@MAEHPBD0PAV?$CStringT@DV?$StrTraitMFC_DLL@DV?$ChTraitsCRT@D@ATL@@@@@ATL@@D@Z ; CDrdsRealReceiverAddInImp::RemoveRealSettingInfoRQ
?RemoveRealSettingInfoRQ@CDrdsRealReceiverAddInImp@@O3AEHPBD0PAV?$CStringT@DV?$StrTraitMFC_DLL@DV?$ChTraitsCRT@D@ATL@@@@@ATL@@D@Z ENDP ; [thunk]:CDrdsRealReceiverAddInImp::RemoveRealSettingInfoRQ`adjustor{4}'
_TEXT	ENDS
; Function compile flags: /Odsp
;	COMDAT ?AddRealSettingInfoRQ@CDrdsRealReceiverAddInImp@@O3AEHPBD0PAV?$CStringT@DV?$StrTraitMFC_DLL@DV?$ChTraitsCRT@D@ATL@@@@@ATL@@1D@Z
_TEXT	SEGMENT
?AddRealSettingInfoRQ@CDrdsRealReceiverAddInImp@@O3AEHPBD0PAV?$CStringT@DV?$StrTraitMFC_DLL@DV?$ChTraitsCRT@D@ATL@@@@@ATL@@1D@Z PROC ; [thunk]:CDrdsRealReceiverAddInImp::AddRealSettingInfoRQ`adjustor{4}', COMDAT
  00000	83 e9 04	 sub	 ecx, 4
  00003	e9 00 00 00 00	 jmp	 ?AddRealSettingInfoRQ@CDrdsRealReceiverAddInImp@@MAEHPBD0PAV?$CStringT@DV?$StrTraitMFC_DLL@DV?$ChTraitsCRT@D@ATL@@@@@ATL@@1D@Z ; CDrdsRealReceiverAddInImp::AddRealSettingInfoRQ
?AddRealSettingInfoRQ@CDrdsRealReceiverAddInImp@@O3AEHPBD0PAV?$CStringT@DV?$StrTraitMFC_DLL@DV?$ChTraitsCRT@D@ATL@@@@@ATL@@1D@Z ENDP ; [thunk]:CDrdsRealReceiverAddInImp::AddRealSettingInfoRQ`adjustor{4}'
_TEXT	ENDS
; Function compile flags: /Odsp
;	COMDAT ?SetRealAdviseRQ@CDrdsRealReceiverAddInImp@@O3AEHPBDH@Z
_TEXT	SEGMENT
?SetRealAdviseRQ@CDrdsRealReceiverAddInImp@@O3AEHPBDH@Z PROC ; [thunk]:CDrdsRealReceiverAddInImp::SetRealAdviseRQ`adjustor{4}', COMDAT
  00000	83 e9 04	 sub	 ecx, 4
  00003	e9 00 00 00 00	 jmp	 ?SetRealAdviseRQ@CDrdsRealReceiverAddInImp@@MAEHPBDH@Z ; CDrdsRealReceiverAddInImp::SetRealAdviseRQ
?SetRealAdviseRQ@CDrdsRealReceiverAddInImp@@O3AEHPBDH@Z ENDP ; [thunk]:CDrdsRealReceiverAddInImp::SetRealAdviseRQ`adjustor{4}'
_TEXT	ENDS
; Function compile flags: /Odsp
;	COMDAT ?UpdatePacketData@CRealReceiverAddInImp@@O3AEHPBDHN@Z
_TEXT	SEGMENT
?UpdatePacketData@CRealReceiverAddInImp@@O3AEHPBDHN@Z PROC ; [thunk]:CRealReceiverAddInImp::UpdatePacketData`adjustor{4}', COMDAT
  00000	83 e9 04	 sub	 ecx, 4
  00003	e9 00 00 00 00	 jmp	 ?UpdatePacketData@CRealReceiverAddInImp@@MAEHPBDHN@Z ; CRealReceiverAddInImp::UpdatePacketData
?UpdatePacketData@CRealReceiverAddInImp@@O3AEHPBDHN@Z ENDP ; [thunk]:CRealReceiverAddInImp::UpdatePacketData`adjustor{4}'
_TEXT	ENDS
; Function compile flags: /Odsp
;	COMDAT ?SetDrdsPacketEnd@CDrdsRealReceiverAddInImp@@O3AEHIJ@Z
_TEXT	SEGMENT
?SetDrdsPacketEnd@CDrdsRealReceiverAddInImp@@O3AEHIJ@Z PROC ; [thunk]:CDrdsRealReceiverAddInImp::SetDrdsPacketEnd`adjustor{4}', COMDAT
  00000	83 e9 04	 sub	 ecx, 4
  00003	e9 00 00 00 00	 jmp	 ?SetDrdsPacketEnd@CDrdsRealReceiverAddInImp@@MAEHIJ@Z ; CDrdsRealReceiverAddInImp::SetDrdsPacketEnd
?SetDrdsPacketEnd@CDrdsRealReceiverAddInImp@@O3AEHIJ@Z ENDP ; [thunk]:CDrdsRealReceiverAddInImp::SetDrdsPacketEnd`adjustor{4}'
_TEXT	ENDS
; Function compile flags: /Odsp
;	COMDAT ?SetDrdsData@CDrdsRealReceiverAddInImp@@O3AEHIJ@Z
_TEXT	SEGMENT
?SetDrdsData@CDrdsRealReceiverAddInImp@@O3AEHIJ@Z PROC	; [thunk]:CDrdsRealReceiverAddInImp::SetDrdsData`adjustor{4}', COMDAT
  00000	83 e9 04	 sub	 ecx, 4
  00003	e9 00 00 00 00	 jmp	 ?SetDrdsData@CDrdsRealReceiverAddInImp@@MAEHIJ@Z ; CDrdsRealReceiverAddInImp::SetDrdsData
?SetDrdsData@CDrdsRealReceiverAddInImp@@O3AEHIJ@Z ENDP	; [thunk]:CDrdsRealReceiverAddInImp::SetDrdsData`adjustor{4}'
_TEXT	ENDS
; Function compile flags: /Odsp
;	COMDAT ?GetRealAdvisedInfo@CDrdsRealReceiverAddInImp@@O3AEHAAV?$CStringT@DV?$StrTraitMFC_DLL@DV?$ChTraitsCRT@D@ATL@@@@@ATL@@@Z
_TEXT	SEGMENT
?GetRealAdvisedInfo@CDrdsRealReceiverAddInImp@@O3AEHAAV?$CStringT@DV?$StrTraitMFC_DLL@DV?$ChTraitsCRT@D@ATL@@@@@ATL@@@Z PROC ; [thunk]:CDrdsRealReceiverAddInImp::GetRealAdvisedInfo`adjustor{4}', COMDAT
  00000	83 e9 04	 sub	 ecx, 4
  00003	e9 00 00 00 00	 jmp	 ?GetRealAdvisedInfo@CDrdsRealReceiverAddInImp@@MAEHAAV?$CStringT@DV?$StrTraitMFC_DLL@DV?$ChTraitsCRT@D@ATL@@@@@ATL@@@Z ; CDrdsRealReceiverAddInImp::GetRealAdvisedInfo
?GetRealAdvisedInfo@CDrdsRealReceiverAddInImp@@O3AEHAAV?$CStringT@DV?$StrTraitMFC_DLL@DV?$ChTraitsCRT@D@ATL@@@@@ATL@@@Z ENDP ; [thunk]:CDrdsRealReceiverAddInImp::GetRealAdvisedInfo`adjustor{4}'
_TEXT	ENDS
; Function compile flags: /Odsp
;	COMDAT ?SetRealAdvise@CDrdsRealReceiverAddInImp@@O3AEHH@Z
_TEXT	SEGMENT
?SetRealAdvise@CDrdsRealReceiverAddInImp@@O3AEHH@Z PROC	; [thunk]:CDrdsRealReceiverAddInImp::SetRealAdvise`adjustor{4}', COMDAT
  00000	83 e9 04	 sub	 ecx, 4
  00003	e9 00 00 00 00	 jmp	 ?SetRealAdvise@CDrdsRealReceiverAddInImp@@MAEHH@Z ; CDrdsRealReceiverAddInImp::SetRealAdvise
?SetRealAdvise@CDrdsRealReceiverAddInImp@@O3AEHH@Z ENDP	; [thunk]:CDrdsRealReceiverAddInImp::SetRealAdvise`adjustor{4}'
_TEXT	ENDS
; Function compile flags: /Odsp
;	COMDAT ?RemoveRealSettingInfo@CDrdsRealReceiverAddInImp@@O3AEHPBDPAV?$CStringT@DV?$StrTraitMFC_DLL@DV?$ChTraitsCRT@D@ATL@@@@@ATL@@D@Z
_TEXT	SEGMENT
?RemoveRealSettingInfo@CDrdsRealReceiverAddInImp@@O3AEHPBDPAV?$CStringT@DV?$StrTraitMFC_DLL@DV?$ChTraitsCRT@D@ATL@@@@@ATL@@D@Z PROC ; [thunk]:CDrdsRealReceiverAddInImp::RemoveRealSettingInfo`adjustor{4}', COMDAT
  00000	83 e9 04	 sub	 ecx, 4
  00003	e9 00 00 00 00	 jmp	 ?RemoveRealSettingInfo@CDrdsRealReceiverAddInImp@@MAEHPBDPAV?$CStringT@DV?$StrTraitMFC_DLL@DV?$ChTraitsCRT@D@ATL@@@@@ATL@@D@Z ; CDrdsRealReceiverAddInImp::RemoveRealSettingInfo
?RemoveRealSettingInfo@CDrdsRealReceiverAddInImp@@O3AEHPBDPAV?$CStringT@DV?$StrTraitMFC_DLL@DV?$ChTraitsCRT@D@ATL@@@@@ATL@@D@Z ENDP ; [thunk]:CDrdsRealReceiverAddInImp::RemoveRealSettingInfo`adjustor{4}'
_TEXT	ENDS
; Function compile flags: /Odsp
;	COMDAT ?AddRealSettingInfo@CDrdsRealReceiverAddInImp@@O3AEHPBDPAV?$CStringT@DV?$StrTraitMFC_DLL@DV?$ChTraitsCRT@D@ATL@@@@@ATL@@1D@Z
_TEXT	SEGMENT
?AddRealSettingInfo@CDrdsRealReceiverAddInImp@@O3AEHPBDPAV?$CStringT@DV?$StrTraitMFC_DLL@DV?$ChTraitsCRT@D@ATL@@@@@ATL@@1D@Z PROC ; [thunk]:CDrdsRealReceiverAddInImp::AddRealSettingInfo`adjustor{4}', COMDAT
  00000	83 e9 04	 sub	 ecx, 4
  00003	e9 00 00 00 00	 jmp	 ?AddRealSettingInfo@CDrdsRealReceiverAddInImp@@MAEHPBDPAV?$CStringT@DV?$StrTraitMFC_DLL@DV?$ChTraitsCRT@D@ATL@@@@@ATL@@1D@Z ; CDrdsRealReceiverAddInImp::AddRealSettingInfo
?AddRealSettingInfo@CDrdsRealReceiverAddInImp@@O3AEHPBDPAV?$CStringT@DV?$StrTraitMFC_DLL@DV?$ChTraitsCRT@D@ATL@@@@@ATL@@1D@Z ENDP ; [thunk]:CDrdsRealReceiverAddInImp::AddRealSettingInfo`adjustor{4}'
_TEXT	ENDS
; Function compile flags: /Odsp
;	COMDAT ?ResetRealSettingInfo@CDrdsRealReceiverAddInImp@@O3AEHPBD@Z
_TEXT	SEGMENT
?ResetRealSettingInfo@CDrdsRealReceiverAddInImp@@O3AEHPBD@Z PROC ; [thunk]:CDrdsRealReceiverAddInImp::ResetRealSettingInfo`adjustor{4}', COMDAT
  00000	83 e9 04	 sub	 ecx, 4
  00003	e9 00 00 00 00	 jmp	 ?ResetRealSettingInfo@CDrdsRealReceiverAddInImp@@MAEHPBD@Z ; CDrdsRealReceiverAddInImp::ResetRealSettingInfo
?ResetRealSettingInfo@CDrdsRealReceiverAddInImp@@O3AEHPBD@Z ENDP ; [thunk]:CDrdsRealReceiverAddInImp::ResetRealSettingInfo`adjustor{4}'
_TEXT	ENDS
; Function compile flags: /Odsp
;	COMDAT ??_ECDrdsRealReceiverAddInImp@@WEE@AEPAXI@Z
_TEXT	SEGMENT
??_ECDrdsRealReceiverAddInImp@@WEE@AEPAXI@Z PROC	; [thunk]:CDrdsRealReceiverAddInImp::`vector deleting destructor', COMDAT
  00000	83 e9 44	 sub	 ecx, 68			; 00000044H
  00003	e9 00 00 00 00	 jmp	 ??_ECDrdsRealReceiverAddInImp@@UAEPAXI@Z
??_ECDrdsRealReceiverAddInImp@@WEE@AEPAXI@Z ENDP	; [thunk]:CDrdsRealReceiverAddInImp::`vector deleting destructor'
_TEXT	ENDS
; Function compile flags: /Odsp
;	COMDAT ?Release@CRealReceiverAddInImp@@OEE@AGKXZ
_TEXT	SEGMENT
?Release@CRealReceiverAddInImp@@OEE@AGKXZ PROC		; [thunk]:CRealReceiverAddInImp::Release`adjustor{68}', COMDAT
  00000	83 6c 24 04 44	 sub	 DWORD PTR [esp+4], 68	; 00000044H
  00005	e9 00 00 00 00	 jmp	 ?Release@CRealReceiverAddInImp@@MAGKXZ ; CRealReceiverAddInImp::Release
?Release@CRealReceiverAddInImp@@OEE@AGKXZ ENDP		; [thunk]:CRealReceiverAddInImp::Release`adjustor{68}'
_TEXT	ENDS
; Function compile flags: /Odsp
;	COMDAT ?AddRef@CRealReceiverAddInImp@@OEE@AGKXZ
_TEXT	SEGMENT
?AddRef@CRealReceiverAddInImp@@OEE@AGKXZ PROC		; [thunk]:CRealReceiverAddInImp::AddRef`adjustor{68}', COMDAT
  00000	83 6c 24 04 44	 sub	 DWORD PTR [esp+4], 68	; 00000044H
  00005	e9 00 00 00 00	 jmp	 ?AddRef@CRealReceiverAddInImp@@MAGKXZ ; CRealReceiverAddInImp::AddRef
?AddRef@CRealReceiverAddInImp@@OEE@AGKXZ ENDP		; [thunk]:CRealReceiverAddInImp::AddRef`adjustor{68}'
_TEXT	ENDS
; Function compile flags: /Odsp
;	COMDAT ?QueryInterface@CRealReceiverAddInImp@@OEE@AGJABU_GUID@@PAPAX@Z
_TEXT	SEGMENT
?QueryInterface@CRealReceiverAddInImp@@OEE@AGJABU_GUID@@PAPAX@Z PROC ; [thunk]:CRealReceiverAddInImp::QueryInterface`adjustor{68}', COMDAT
  00000	83 6c 24 04 44	 sub	 DWORD PTR [esp+4], 68	; 00000044H
  00005	e9 00 00 00 00	 jmp	 ?QueryInterface@CRealReceiverAddInImp@@MAGJABU_GUID@@PAPAX@Z ; CRealReceiverAddInImp::QueryInterface
?QueryInterface@CRealReceiverAddInImp@@OEE@AGJABU_GUID@@PAPAX@Z ENDP ; [thunk]:CRealReceiverAddInImp::QueryInterface`adjustor{68}'
_TEXT	ENDS
; Function compile flags: /Odsp
;	COMDAT ??_ECDrdsRealReceiverAddInImp@@WEA@AEPAXI@Z
_TEXT	SEGMENT
??_ECDrdsRealReceiverAddInImp@@WEA@AEPAXI@Z PROC	; [thunk]:CDrdsRealReceiverAddInImp::`vector deleting destructor', COMDAT
  00000	83 e9 40	 sub	 ecx, 64			; 00000040H
  00003	e9 00 00 00 00	 jmp	 ??_ECDrdsRealReceiverAddInImp@@UAEPAXI@Z
??_ECDrdsRealReceiverAddInImp@@WEA@AEPAXI@Z ENDP	; [thunk]:CDrdsRealReceiverAddInImp::`vector deleting destructor'
_TEXT	ENDS
; Function compile flags: /Odsp
;	COMDAT ?Release@CRealReceiverAddInImp@@OEA@AGKXZ
_TEXT	SEGMENT
?Release@CRealReceiverAddInImp@@OEA@AGKXZ PROC		; [thunk]:CRealReceiverAddInImp::Release`adjustor{64}', COMDAT
  00000	83 6c 24 04 40	 sub	 DWORD PTR [esp+4], 64	; 00000040H
  00005	e9 00 00 00 00	 jmp	 ?Release@CRealReceiverAddInImp@@MAGKXZ ; CRealReceiverAddInImp::Release
?Release@CRealReceiverAddInImp@@OEA@AGKXZ ENDP		; [thunk]:CRealReceiverAddInImp::Release`adjustor{64}'
_TEXT	ENDS
; Function compile flags: /Odsp
;	COMDAT ?AddRef@CRealReceiverAddInImp@@OEA@AGKXZ
_TEXT	SEGMENT
?AddRef@CRealReceiverAddInImp@@OEA@AGKXZ PROC		; [thunk]:CRealReceiverAddInImp::AddRef`adjustor{64}', COMDAT
  00000	83 6c 24 04 40	 sub	 DWORD PTR [esp+4], 64	; 00000040H
  00005	e9 00 00 00 00	 jmp	 ?AddRef@CRealReceiverAddInImp@@MAGKXZ ; CRealReceiverAddInImp::AddRef
?AddRef@CRealReceiverAddInImp@@OEA@AGKXZ ENDP		; [thunk]:CRealReceiverAddInImp::AddRef`adjustor{64}'
_TEXT	ENDS
; Function compile flags: /Odsp
;	COMDAT ?QueryInterface@CRealReceiverAddInImp@@OEA@AGJABU_GUID@@PAPAX@Z
_TEXT	SEGMENT
?QueryInterface@CRealReceiverAddInImp@@OEA@AGJABU_GUID@@PAPAX@Z PROC ; [thunk]:CRealReceiverAddInImp::QueryInterface`adjustor{64}', COMDAT
  00000	83 6c 24 04 40	 sub	 DWORD PTR [esp+4], 64	; 00000040H
  00005	e9 00 00 00 00	 jmp	 ?QueryInterface@CRealReceiverAddInImp@@MAGJABU_GUID@@PAPAX@Z ; CRealReceiverAddInImp::QueryInterface
?QueryInterface@CRealReceiverAddInImp@@OEA@AGJABU_GUID@@PAPAX@Z ENDP ; [thunk]:CRealReceiverAddInImp::QueryInterface`adjustor{64}'
_TEXT	ENDS
; Function compile flags: /Odsp
;	COMDAT ??_ECDrdsRealReceiverAddInImp@@W7AEPAXI@Z
_TEXT	SEGMENT
??_ECDrdsRealReceiverAddInImp@@W7AEPAXI@Z PROC		; [thunk]:CDrdsRealReceiverAddInImp::`vector deleting destructor', COMDAT
  00000	83 e9 08	 sub	 ecx, 8
  00003	e9 00 00 00 00	 jmp	 ??_ECDrdsRealReceiverAddInImp@@UAEPAXI@Z
??_ECDrdsRealReceiverAddInImp@@W7AEPAXI@Z ENDP		; [thunk]:CDrdsRealReceiverAddInImp::`vector deleting destructor'
_TEXT	ENDS
; Function compile flags: /Odsp
;	COMDAT ?Release@CRealReceiverAddInImp@@O7AGKXZ
_TEXT	SEGMENT
?Release@CRealReceiverAddInImp@@O7AGKXZ PROC		; [thunk]:CRealReceiverAddInImp::Release`adjustor{8}', COMDAT
  00000	83 6c 24 04 08	 sub	 DWORD PTR [esp+4], 8
  00005	e9 00 00 00 00	 jmp	 ?Release@CRealReceiverAddInImp@@MAGKXZ ; CRealReceiverAddInImp::Release
?Release@CRealReceiverAddInImp@@O7AGKXZ ENDP		; [thunk]:CRealReceiverAddInImp::Release`adjustor{8}'
_TEXT	ENDS
; Function compile flags: /Odsp
;	COMDAT ?AddRef@CRealReceiverAddInImp@@O7AGKXZ
_TEXT	SEGMENT
?AddRef@CRealReceiverAddInImp@@O7AGKXZ PROC		; [thunk]:CRealReceiverAddInImp::AddRef`adjustor{8}', COMDAT
  00000	83 6c 24 04 08	 sub	 DWORD PTR [esp+4], 8
  00005	e9 00 00 00 00	 jmp	 ?AddRef@CRealReceiverAddInImp@@MAGKXZ ; CRealReceiverAddInImp::AddRef
?AddRef@CRealReceiverAddInImp@@O7AGKXZ ENDP		; [thunk]:CRealReceiverAddInImp::AddRef`adjustor{8}'
_TEXT	ENDS
; Function compile flags: /Odsp
;	COMDAT ?QueryInterface@CRealReceiverAddInImp@@O7AGJABU_GUID@@PAPAX@Z
_TEXT	SEGMENT
?QueryInterface@CRealReceiverAddInImp@@O7AGJABU_GUID@@PAPAX@Z PROC ; [thunk]:CRealReceiverAddInImp::QueryInterface`adjustor{8}', COMDAT
  00000	83 6c 24 04 08	 sub	 DWORD PTR [esp+4], 8
  00005	e9 00 00 00 00	 jmp	 ?QueryInterface@CRealReceiverAddInImp@@MAGJABU_GUID@@PAPAX@Z ; CRealReceiverAddInImp::QueryInterface
?QueryInterface@CRealReceiverAddInImp@@O7AGJABU_GUID@@PAPAX@Z ENDP ; [thunk]:CRealReceiverAddInImp::QueryInterface`adjustor{8}'
_TEXT	ENDS
; Function compile flags: /Ogtp
;	COMDAT ??__F?m_strAddInItemName@CDrdsRealReceiverAddInImp@@2V?$CStringT@DV?$StrTraitMFC_DLL@DV?$ChTraitsCRT@D@ATL@@@@@ATL@@A@@YAXXZ
text$yd	SEGMENT
??__F?m_strAddInItemName@CDrdsRealReceiverAddInImp@@2V?$CStringT@DV?$StrTraitMFC_DLL@DV?$ChTraitsCRT@D@ATL@@@@@ATL@@A@@YAXXZ PROC ; `dynamic atexit destructor for 'CDrdsRealReceiverAddInImp::m_strAddInItemName'', COMDAT
  00000	b9 00 00 00 00	 mov	 ecx, OFFSET ?m_strAddInItemName@CDrdsRealReceiverAddInImp@@2V?$CStringT@DV?$StrTraitMFC_DLL@DV?$ChTraitsCRT@D@ATL@@@@@ATL@@A ; CDrdsRealReceiverAddInImp::m_strAddInItemName
  00005	ff 25 00 00 00
	00		 jmp	 DWORD PTR __imp_??1?$CStringT@DV?$StrTraitMFC_DLL@DV?$ChTraitsCRT@D@ATL@@@@@ATL@@QAE@XZ
??__F?m_strAddInItemName@CDrdsRealReceiverAddInImp@@2V?$CStringT@DV?$StrTraitMFC_DLL@DV?$ChTraitsCRT@D@ATL@@@@@ATL@@A@@YAXXZ ENDP ; `dynamic atexit destructor for 'CDrdsRealReceiverAddInImp::m_strAddInItemName''
text$yd	ENDS
; Function compile flags: /Ogtp
; File D:\git\src\IBK\IBK_DRFN\ProjSrc\SrcChartEx\ChartOCX\AddInManager\ChartCommonAddIn\DrdsRealReceiverAddInImp.cpp
;	COMDAT ??__E?m_strAddInItemName@CDrdsRealReceiverAddInImp@@2V?$CStringT@DV?$StrTraitMFC_DLL@DV?$ChTraitsCRT@D@ATL@@@@@ATL@@A@@YAXXZ
text$di	SEGMENT
??__E?m_strAddInItemName@CDrdsRealReceiverAddInImp@@2V?$CStringT@DV?$StrTraitMFC_DLL@DV?$ChTraitsCRT@D@ATL@@@@@ATL@@A@@YAXXZ PROC ; `dynamic initializer for 'CDrdsRealReceiverAddInImp::m_strAddInItemName'', COMDAT

; 94   : CString CDrdsRealReceiverAddInImp::m_strAddInItemName = "DRDS_REAL";

  00000	68 00 00 00 00	 push	 OFFSET ??_C@_09FGDPAPOG@DRDS_REAL@
  00005	b9 00 00 00 00	 mov	 ecx, OFFSET ?m_strAddInItemName@CDrdsRealReceiverAddInImp@@2V?$CStringT@DV?$StrTraitMFC_DLL@DV?$ChTraitsCRT@D@ATL@@@@@ATL@@A ; CDrdsRealReceiverAddInImp::m_strAddInItemName
  0000a	ff 15 00 00 00
	00		 call	 DWORD PTR __imp_??0?$CStringT@DV?$StrTraitMFC_DLL@DV?$ChTraitsCRT@D@ATL@@@@@ATL@@QAE@PBD@Z
  00010	68 00 00 00 00	 push	 OFFSET ??__F?m_strAddInItemName@CDrdsRealReceiverAddInImp@@2V?$CStringT@DV?$StrTraitMFC_DLL@DV?$ChTraitsCRT@D@ATL@@@@@ATL@@A@@YAXXZ ; `dynamic atexit destructor for 'CDrdsRealReceiverAddInImp::m_strAddInItemName''
  00015	e8 00 00 00 00	 call	 _atexit
  0001a	59		 pop	 ecx
  0001b	c3		 ret	 0
??__E?m_strAddInItemName@CDrdsRealReceiverAddInImp@@2V?$CStringT@DV?$StrTraitMFC_DLL@DV?$ChTraitsCRT@D@ATL@@@@@ATL@@A@@YAXXZ ENDP ; `dynamic initializer for 'CDrdsRealReceiverAddInImp::m_strAddInItemName''
text$di	ENDS
; Function compile flags: /Ogtp
; File D:\git\src\IBK\IBK_DRFN\ProjSrc\SrcChartEx\ChartOCX\AddInManager\Include_AddIn\I000000\_IString.h
;	COMDAT ??1ILPCSTR000000@@QAE@XZ
_TEXT	SEGMENT
__$EHRec$ = -12						; size = 12
??1ILPCSTR000000@@QAE@XZ PROC				; ILPCSTR000000::~ILPCSTR000000, COMDAT
; _this$ = ecx

; 44   : 	{

  00000	55		 push	 ebp
  00001	8b ec		 mov	 ebp, esp
  00003	6a ff		 push	 -1
  00005	68 00 00 00 00	 push	 __ehhandler$??1ILPCSTR000000@@QAE@XZ
  0000a	64 a1 00 00 00
	00		 mov	 eax, DWORD PTR fs:0
  00010	50		 push	 eax
  00011	56		 push	 esi
  00012	a1 00 00 00 00	 mov	 eax, DWORD PTR ___security_cookie
  00017	33 c5		 xor	 eax, ebp
  00019	50		 push	 eax
  0001a	8d 45 f4	 lea	 eax, DWORD PTR __$EHRec$[ebp]
  0001d	64 a3 00 00 00
	00		 mov	 DWORD PTR fs:0, eax
  00023	8b f1		 mov	 esi, ecx

; 45   : 		if( m_pIStrData)

  00025	8b 4e 04	 mov	 ecx, DWORD PTR [esi+4]
  00028	85 c9		 test	 ecx, ecx
  0002a	74 13		 je	 SHORT $LN2@ILPCSTR000

; 46   : 		{
; 47   : 			m_pIStrData->Release();

  0002c	8b 01		 mov	 eax, DWORD PTR [ecx]
  0002e	51		 push	 ecx
  0002f	ff 50 08	 call	 DWORD PTR [eax+8]

; 48   : 			m_pIStrData = NULL;

  00032	c7 46 04 00 00
	00 00		 mov	 DWORD PTR [esi+4], 0

; 49   : 			m_szData = NULL;

  00039	c7 06 00 00 00
	00		 mov	 DWORD PTR [esi], 0
$LN2@ILPCSTR000:

; 50   : 		}
; 51   : 	}

  0003f	8b 4d f4	 mov	 ecx, DWORD PTR __$EHRec$[ebp]
  00042	64 89 0d 00 00
	00 00		 mov	 DWORD PTR fs:0, ecx
  00049	59		 pop	 ecx
  0004a	5e		 pop	 esi
  0004b	8b e5		 mov	 esp, ebp
  0004d	5d		 pop	 ebp
  0004e	c3		 ret	 0
  0004f	cc		 int	 3
  00050	cc		 int	 3
  00051	cc		 int	 3
  00052	cc		 int	 3
  00053	cc		 int	 3
_TEXT	ENDS
;	COMDAT text$x
text$x	SEGMENT
__ehhandler$??1ILPCSTR000000@@QAE@XZ:
  00000	90		 npad	 1
  00001	90		 npad	 1
  00002	8b 54 24 08	 mov	 edx, DWORD PTR [esp+8]
  00006	8d 42 0c	 lea	 eax, DWORD PTR [edx+12]
  00009	8b 4a f8	 mov	 ecx, DWORD PTR [edx-8]
  0000c	33 c8		 xor	 ecx, eax
  0000e	e8 00 00 00 00	 call	 @__security_check_cookie@4
  00013	b8 00 00 00 00	 mov	 eax, OFFSET __ehfuncinfo$??1ILPCSTR000000@@QAE@XZ
  00018	e9 00 00 00 00	 jmp	 ___CxxFrameHandler3
text$x	ENDS
??1ILPCSTR000000@@QAE@XZ ENDP				; ILPCSTR000000::~ILPCSTR000000
; Function compile flags: /Ogtp
; File D:\git\src\IBK\IBK_DRFN\ProjSrc\SrcChartEx\ChartOCX\AddInManager\ChartCommonAddIn\DrdsRealReceiverAddInImp.cpp
; File C:\Program Files (x86)\Microsoft Visual Studio\2019\Community\VC\Tools\MSVC\14.29.30133\atlmfc\include\afxwin2.inl
; File D:\git\src\IBK\IBK_DRFN\ProjSrc\SrcChartEx\ChartOCX\Include\LoadDrds.h
; File D:\git\src\IBK\IBK_DRFN\ProjSrc\SrcChartEx\ChartOCX\AddInManager\ChartCommonAddIn\DrdsRealReceiverAddInImp.cpp
; File D:\git\src\IBK\IBK_DRFN\ProjSrc\SrcChartEx\ChartOCX\Include\LoadDrds.h
; File D:\git\src\IBK\IBK_DRFN\ProjSrc\SrcChartEx\ChartOCX\AddInManager\ChartCommonAddIn\DrdsRealReceiverAddInImp.cpp
; File C:\Program Files (x86)\Microsoft Visual Studio\2019\Community\VC\Tools\MSVC\14.29.30133\atlmfc\include\afx.inl
;	COMDAT ??_GCDrdsRealReceiverAddInImp@@UAEPAXI@Z
_TEXT	SEGMENT
__$EHRec$ = -12						; size = 12
___flags$ = 8						; size = 4
??_GCDrdsRealReceiverAddInImp@@UAEPAXI@Z PROC		; CDrdsRealReceiverAddInImp::`scalar deleting destructor', COMDAT
; _this$ = ecx
  00000	55		 push	 ebp
  00001	8b ec		 mov	 ebp, esp
  00003	6a ff		 push	 -1
  00005	68 00 00 00 00	 push	 __ehhandler$??_GCDrdsRealReceiverAddInImp@@UAEPAXI@Z
  0000a	64 a1 00 00 00
	00		 mov	 eax, DWORD PTR fs:0
  00010	50		 push	 eax
  00011	53		 push	 ebx
  00012	56		 push	 esi
  00013	57		 push	 edi
  00014	a1 00 00 00 00	 mov	 eax, DWORD PTR ___security_cookie
  00019	33 c5		 xor	 eax, ebp
  0001b	50		 push	 eax
  0001c	8d 45 f4	 lea	 eax, DWORD PTR __$EHRec$[ebp]
  0001f	64 a3 00 00 00
	00		 mov	 DWORD PTR fs:0, eax
  00025	8b f1		 mov	 esi, ecx
; File D:\git\src\IBK\IBK_DRFN\ProjSrc\SrcChartEx\ChartOCX\AddInManager\ChartCommonAddIn\DrdsRealReceiverAddInImp.cpp

; 72   : 	if( m_DrdsDLL.m_hLib && m_DrdsVoid)

  00027	8b 8e 24 01 00
	00		 mov	 ecx, DWORD PTR [esi+292]
  0002d	8b 1d 00 00 00
	00		 mov	 ebx, DWORD PTR __imp__FreeLibrary@4
  00033	c7 45 fc 00 00
	00 00		 mov	 DWORD PTR __$EHRec$[ebp+8], 0
  0003a	c7 06 00 00 00
	00		 mov	 DWORD PTR [esi], OFFSET ??_7CDrdsRealReceiverAddInImp@@6BCIWUnknown@@@
  00040	c7 46 08 00 00
	00 00		 mov	 DWORD PTR [esi+8], OFFSET ??_7CDrdsRealReceiverAddInImp@@6BIChartAddIn000000@@@
  00047	c7 46 40 00 00
	00 00		 mov	 DWORD PTR [esi+64], OFFSET ??_7CDrdsRealReceiverAddInImp@@6BIRealReceiver@@@
  0004e	c7 46 44 00 00
	00 00		 mov	 DWORD PTR [esi+68], OFFSET ??_7CDrdsRealReceiverAddInImp@@6BIOldFXRealReceiver@@@
  00055	c7 46 48 00 00
	00 00		 mov	 DWORD PTR [esi+72], OFFSET ??_7CDrdsRealReceiverAddInImp@@6BIOldHTSRealReceiver@@@
  0005c	85 c9		 test	 ecx, ecx
  0005e	74 5f		 je	 SHORT $LN25@scalar
  00060	8b 9e 20 01 00
	00		 mov	 ebx, DWORD PTR [esi+288]
  00066	85 db		 test	 ebx, ebx
  00068	74 4f		 je	 SHORT $LN38@scalar

; 73   : 	{
; 74   : 		m_DrdsDLL.DrdsTerm(m_DrdsVoid, m_pChartCWnd->GetSafeHwnd());

  0006a	8b 46 10	 mov	 eax, DWORD PTR [esi+16]
; File C:\Program Files (x86)\Microsoft Visual Studio\2019\Community\VC\Tools\MSVC\14.29.30133\atlmfc\include\afxwin2.inl

; 25   : 	{ return this == NULL ? NULL : m_hWnd; }

  0006d	85 c0		 test	 eax, eax
  0006f	75 04		 jne	 SHORT $LN19@scalar
  00071	33 ff		 xor	 edi, edi
  00073	eb 03		 jmp	 SHORT $LN20@scalar
$LN19@scalar:
  00075	8b 78 20	 mov	 edi, DWORD PTR [eax+32]
$LN20@scalar:
; File D:\git\src\IBK\IBK_DRFN\ProjSrc\SrcChartEx\ChartOCX\Include\LoadDrds.h

; 153  : 		fnDrdsTerm = (Drds_Term)::GetProcAddress(m_hLib,"DrdsTerm");

  00078	68 00 00 00 00	 push	 OFFSET ??_C@_08MAPPPPMA@DrdsTerm@
  0007d	51		 push	 ecx
  0007e	ff 15 00 00 00
	00		 call	 DWORD PTR __imp__GetProcAddress@8

; 154  : 
; 155  : 		if(fnDrdsTerm == NULL)

  00084	85 c0		 test	 eax, eax
  00086	75 0e		 jne	 SHORT $LN23@scalar

; 156  : 		{
; 157  : 			AfxMessageBox("DrdsTerm() is not found.");

  00088	50		 push	 eax
  00089	50		 push	 eax
  0008a	68 00 00 00 00	 push	 OFFSET ??_C@_0BJ@DCKIHAKI@DrdsTerm?$CI?$CJ?5is?5not?5found?4@
  0008f	e8 00 00 00 00	 call	 ?AfxMessageBox@@YGHPBDII@Z ; AfxMessageBox

; 158  : 			return FALSE;

  00094	eb 04		 jmp	 SHORT $LN21@scalar
$LN23@scalar:

; 159  : 		}
; 160  : 
; 161  : 		BOOL bResult; 
; 162  : 		bResult = fnDrdsTerm(pDrds,hWnd);

  00096	57		 push	 edi
  00097	53		 push	 ebx
  00098	ff d0		 call	 eax
$LN21@scalar:

; 85   : 		if(m_hLib == NULL)  return TRUE;

  0009a	8b 86 24 01 00
	00		 mov	 eax, DWORD PTR [esi+292]
  000a0	8b 1d 00 00 00
	00		 mov	 ebx, DWORD PTR __imp__FreeLibrary@4
  000a6	85 c0		 test	 eax, eax
  000a8	74 15		 je	 SHORT $LN25@scalar

; 86   : 
; 87   : 		BOOL bResult = ::FreeLibrary(m_hLib);

  000aa	50		 push	 eax
  000ab	ff d3		 call	 ebx

; 88   : 		m_hLib = NULL;

  000ad	c7 86 24 01 00
	00 00 00 00 00	 mov	 DWORD PTR [esi+292], 0
  000b7	eb 06		 jmp	 SHORT $LN25@scalar
$LN38@scalar:
; File D:\git\src\IBK\IBK_DRFN\ProjSrc\SrcChartEx\ChartOCX\AddInManager\ChartCommonAddIn\DrdsRealReceiverAddInImp.cpp

; 72   : 	if( m_DrdsDLL.m_hLib && m_DrdsVoid)

  000b9	8b 1d 00 00 00
	00		 mov	 ebx, DWORD PTR __imp__FreeLibrary@4
$LN25@scalar:

; 75   : 		m_DrdsDLL.UnLoadLib();
; 76   : 	}
; 77   : 
; 78   : 	// (2004.11.30, )  Real Setting Info, DRDS Advised Info, Local Share Info .
; 79   : 	if( m_plRealSettingInfoList)

  000bf	8b 8e 2c 01 00
	00		 mov	 ecx, DWORD PTR [esi+300]
  000c5	85 c9		 test	 ecx, ecx
  000c7	74 20		 je	 SHORT $LN9@scalar

; 80   : 	{
; 81   : 		m_plRealSettingInfoList->RemoveAllRealSettingInfo();

  000c9	e8 00 00 00 00	 call	 ?RemoveAllRealSettingInfo@CRealSettingInfoList@@QAEXXZ ; CRealSettingInfoList::RemoveAllRealSettingInfo

; 82   : 		delete m_plRealSettingInfoList;

  000ce	8b 8e 2c 01 00
	00		 mov	 ecx, DWORD PTR [esi+300]
  000d4	85 c9		 test	 ecx, ecx
  000d6	74 07		 je	 SHORT $LN12@scalar
  000d8	8b 01		 mov	 eax, DWORD PTR [ecx]
  000da	6a 01		 push	 1
  000dc	ff 50 04	 call	 DWORD PTR [eax+4]
$LN12@scalar:

; 83   : 		m_plRealSettingInfoList = NULL;

  000df	c7 86 2c 01 00
	00 00 00 00 00	 mov	 DWORD PTR [esi+300], 0
$LN9@scalar:

; 84   : 	}
; 85   : 	if( m_plDrdsAdvisedInfoList)

  000e9	8b 8e 30 01 00
	00		 mov	 ecx, DWORD PTR [esi+304]
  000ef	85 c9		 test	 ecx, ecx
  000f1	74 20		 je	 SHORT $LN10@scalar

; 86   : 	{
; 87   : 		m_plDrdsAdvisedInfoList->RemoveAllDrdsAdvisedInfo();

  000f3	e8 00 00 00 00	 call	 ?RemoveAllDrdsAdvisedInfo@CDrdsAdvisedInfoList@@QAEXXZ ; CDrdsAdvisedInfoList::RemoveAllDrdsAdvisedInfo

; 88   : 		delete m_plDrdsAdvisedInfoList;

  000f8	8b 8e 30 01 00
	00		 mov	 ecx, DWORD PTR [esi+304]
  000fe	85 c9		 test	 ecx, ecx
  00100	74 07		 je	 SHORT $LN14@scalar
  00102	8b 01		 mov	 eax, DWORD PTR [ecx]
  00104	6a 01		 push	 1
  00106	ff 50 04	 call	 DWORD PTR [eax+4]
$LN14@scalar:

; 89   : 		m_plDrdsAdvisedInfoList = NULL;

  00109	c7 86 30 01 00
	00 00 00 00 00	 mov	 DWORD PTR [esi+304], 0
$LN10@scalar:
; File D:\git\src\IBK\IBK_DRFN\ProjSrc\SrcChartEx\ChartOCX\Include\LoadDrds.h

; 85   : 		if(m_hLib == NULL)  return TRUE;

  00113	8b 86 24 01 00
	00		 mov	 eax, DWORD PTR [esi+292]
  00119	85 c0		 test	 eax, eax
  0011b	74 0d		 je	 SHORT $LN31@scalar

; 86   : 
; 87   : 		BOOL bResult = ::FreeLibrary(m_hLib);

  0011d	50		 push	 eax
  0011e	ff d3		 call	 ebx

; 88   : 		m_hLib = NULL;

  00120	c7 86 24 01 00
	00 00 00 00 00	 mov	 DWORD PTR [esi+292], 0
$LN31@scalar:

; 57   : 	}

  0012a	8d 8e 28 01 00
	00		 lea	 ecx, DWORD PTR [esi+296]
  00130	ff 15 00 00 00
	00		 call	 DWORD PTR __imp_??1?$CStringT@DV?$StrTraitMFC_DLL@DV?$ChTraitsCRT@D@ATL@@@@@ATL@@QAE@XZ
; File D:\git\src\IBK\IBK_DRFN\ProjSrc\SrcChartEx\ChartOCX\AddInManager\ChartCommonAddIn\DrdsRealReceiverAddInImp.cpp

; 91   : }

  00136	8b ce		 mov	 ecx, esi
  00138	e8 00 00 00 00	 call	 ??1CRealReceiverAddInImp@@UAE@XZ ; CRealReceiverAddInImp::~CRealReceiverAddInImp
  0013d	8b 45 08	 mov	 eax, DWORD PTR ___flags$[ebp]
  00140	a8 01		 test	 al, 1
  00142	74 1d		 je	 SHORT $LN36@scalar
  00144	a8 04		 test	 al, 4
  00146	75 0b		 jne	 SHORT $LN3@scalar
; File C:\Program Files (x86)\Microsoft Visual Studio\2019\Community\VC\Tools\MSVC\14.29.30133\atlmfc\include\afx.inl

; 112  : 	{ ::operator delete(p); }

  00148	56		 push	 esi
  00149	e8 00 00 00 00	 call	 ??3@YAXPAX@Z		; operator delete
  0014e	83 c4 04	 add	 esp, 4
  00151	eb 0e		 jmp	 SHORT $LN36@scalar
$LN3@scalar:
  00153	68 40 01 00 00	 push	 320			; 00000140H
  00158	56		 push	 esi
  00159	e8 00 00 00 00	 call	 ?__global_delete@@YAXPAXI@Z ; __global_delete
  0015e	83 c4 08	 add	 esp, 8
$LN36@scalar:
  00161	8b c6		 mov	 eax, esi
  00163	8b 4d f4	 mov	 ecx, DWORD PTR __$EHRec$[ebp]
  00166	64 89 0d 00 00
	00 00		 mov	 DWORD PTR fs:0, ecx
  0016d	59		 pop	 ecx
  0016e	5f		 pop	 edi
  0016f	5e		 pop	 esi
  00170	5b		 pop	 ebx
  00171	8b e5		 mov	 esp, ebp
  00173	5d		 pop	 ebp
  00174	c2 04 00	 ret	 4
  00177	cc		 int	 3
  00178	cc		 int	 3
  00179	cc		 int	 3
  0017a	cc		 int	 3
  0017b	cc		 int	 3
_TEXT	ENDS
;	COMDAT text$x
text$x	SEGMENT
__ehhandler$??_GCDrdsRealReceiverAddInImp@@UAEPAXI@Z:
  00000	90		 npad	 1
  00001	90		 npad	 1
  00002	8b 54 24 08	 mov	 edx, DWORD PTR [esp+8]
  00006	8d 42 0c	 lea	 eax, DWORD PTR [edx+12]
  00009	8b 4a f0	 mov	 ecx, DWORD PTR [edx-16]
  0000c	33 c8		 xor	 ecx, eax
  0000e	e8 00 00 00 00	 call	 @__security_check_cookie@4
  00013	b8 00 00 00 00	 mov	 eax, OFFSET __ehfuncinfo$??_GCDrdsRealReceiverAddInImp@@UAEPAXI@Z
  00018	e9 00 00 00 00	 jmp	 ___CxxFrameHandler3
text$x	ENDS
??_GCDrdsRealReceiverAddInImp@@UAEPAXI@Z ENDP		; CDrdsRealReceiverAddInImp::`scalar deleting destructor'
; Function compile flags: /Ogtp
; File D:\git\src\IBK\IBK_DRFN\ProjSrc\SrcChartEx\ChartOCX\AddInManager\ChartCommonAddIn\DrdsRealReceiverAddInImp.h
;	COMDAT ?GetNMTRClock@CDrdsRealReceiverAddInImp@@MAE_JXZ
_TEXT	SEGMENT
?GetNMTRClock@CDrdsRealReceiverAddInImp@@MAE_JXZ PROC	; CDrdsRealReceiverAddInImp::GetNMTRClock, COMDAT
; _this$ = ecx

; 178  : 	virtual _int64			GetNMTRClock( void)		{	return CRealReceiverAddInImp::GetNMTRClock();	}

  00000	8b 81 98 00 00
	00		 mov	 eax, DWORD PTR [ecx+152]
  00006	8b 91 9c 00 00
	00		 mov	 edx, DWORD PTR [ecx+156]
  0000c	c3		 ret	 0
?GetNMTRClock@CDrdsRealReceiverAddInImp@@MAE_JXZ ENDP	; CDrdsRealReceiverAddInImp::GetNMTRClock
_TEXT	ENDS
; Function compile flags: /Ogtp
; File D:\git\src\IBK\IBK_DRFN\ProjSrc\SrcChartEx\ChartOCX\AddInManager\ChartCommonAddIn\DrdsRealReceiverAddInImp.cpp
; File C:\Program Files (x86)\Microsoft Visual Studio\2019\Community\VC\Tools\MSVC\14.29.30133\atlmfc\include\afxcoll.inl
; File D:\git\src\IBK\IBK_DRFN\ProjSrc\SrcChartEx\ChartOCX\AddInManager\ChartCommonAddIn\DrdsRealReceiverAddInImp.cpp
;	COMDAT ?GetDrdsAdvisedRQ@CDrdsRealReceiverAddInImp@@IAEPBDPAXPBD1@Z
_TEXT	SEGMENT
_p_pIPacket$ = 8					; size = 4
_p_szRealFieldName$ = 12				; size = 4
_p_szRealKeyCode$ = 16					; size = 4
?GetDrdsAdvisedRQ@CDrdsRealReceiverAddInImp@@IAEPBDPAXPBD1@Z PROC ; CDrdsRealReceiverAddInImp::GetDrdsAdvisedRQ, COMDAT
; _this$ = ecx

; 461  : {

  00000	55		 push	 ebp
  00001	8b ec		 mov	 ebp, esp

; 462  : 	POSITION posDaiPacketGroup = m_plDrdsAdvisedInfoList->GetHeadPosition();

  00003	8b 81 30 01 00
	00		 mov	 eax, DWORD PTR [ecx+304]
  00009	53		 push	 ebx
  0000a	56		 push	 esi
  0000b	57		 push	 edi
  0000c	8b 70 04	 mov	 esi, DWORD PTR [eax+4]

; 463  : 	POSITION posDaiCodeGroup = NULL;
; 464  : 	POSITION posDAI = NULL;
; 465  : 	while( posDaiPacketGroup) 

  0000f	85 f6		 test	 esi, esi
  00011	74 30		 je	 SHORT $LN38@GetDrdsAdv
  00013	8b 7d 10	 mov	 edi, DWORD PTR _p_szRealKeyCode$[ebp]
  00016	8b 5d 0c	 mov	 ebx, DWORD PTR _p_szRealFieldName$[ebp]
  00019	0f 1f 80 00 00
	00 00		 npad	 7
$LL2@GetDrdsAdv:

; 469  : 		posDaiCodeGroup = pDaiPacketGroup->FindDaiCodeGroup(p_szRealKeyCode);

  00020	8b 4e 08	 mov	 ecx, DWORD PTR [esi+8]
; File C:\Program Files (x86)\Microsoft Visual Studio\2019\Community\VC\Tools\MSVC\14.29.30133\atlmfc\include\afxcoll.inl

; 432  : 		rPosition = (POSITION) pNode->pNext;

  00023	8b 36		 mov	 esi, DWORD PTR [esi]
; File D:\git\src\IBK\IBK_DRFN\ProjSrc\SrcChartEx\ChartOCX\AddInManager\ChartCommonAddIn\DrdsRealReceiverAddInImp.cpp

; 469  : 		posDaiCodeGroup = pDaiPacketGroup->FindDaiCodeGroup(p_szRealKeyCode);

  00025	57		 push	 edi
  00026	e8 00 00 00 00	 call	 ?FindDaiCodeGroup@CDaiPacketGroup@@QAEPAU__POSITION@@PBD@Z ; CDaiPacketGroup::FindDaiCodeGroup

; 470  : 		if(posDaiCodeGroup)

  0002b	85 c0		 test	 eax, eax
  0002d	74 10		 je	 SHORT $LN5@GetDrdsAdv

; 471  : 		{
; 472  : 			CDaiCodeGroup* pDaiCodeGroup = pDaiPacketGroup->GetAt(posDaiCodeGroup);
; 473  : 			posDAI = pDaiCodeGroup->FindDrdsAdvisedInfo((IPacket*)p_pIPacket, p_szRealFieldName);

  0002f	8b 48 08	 mov	 ecx, DWORD PTR [eax+8]
  00032	53		 push	 ebx
  00033	ff 75 08	 push	 DWORD PTR _p_pIPacket$[ebp]
  00036	e8 00 00 00 00	 call	 ?FindDrdsAdvisedInfo@CDaiCodeGroup@@QAEPAU__POSITION@@PAUIPacket000000@@PBD@Z ; CDaiCodeGroup::FindDrdsAdvisedInfo

; 474  : 
; 475  : 			if(posDAI)

  0003b	85 c0		 test	 eax, eax
  0003d	75 0d		 jne	 SHORT $LN35@GetDrdsAdv
$LN5@GetDrdsAdv:

; 463  : 	POSITION posDaiCodeGroup = NULL;
; 464  : 	POSITION posDAI = NULL;
; 465  : 	while( posDaiPacketGroup) 

  0003f	85 f6		 test	 esi, esi
  00041	75 dd		 jne	 SHORT $LL2@GetDrdsAdv
$LN38@GetDrdsAdv:
  00043	5f		 pop	 edi

; 477  : 		}
; 478  : 	}
; 479  : 
; 480  : 	return NULL;
; 481  : }

  00044	5e		 pop	 esi
  00045	33 c0		 xor	 eax, eax
  00047	5b		 pop	 ebx
  00048	5d		 pop	 ebp
  00049	c2 0c 00	 ret	 12			; 0000000cH
$LN35@GetDrdsAdv:

; 476  : 				return pDaiCodeGroup->GetAt(posDAI)->m_lpszRQ;

  0004c	8b 40 08	 mov	 eax, DWORD PTR [eax+8]
  0004f	5f		 pop	 edi

; 477  : 		}
; 478  : 	}
; 479  : 
; 480  : 	return NULL;
; 481  : }

  00050	5e		 pop	 esi
  00051	5b		 pop	 ebx
  00052	8b 40 0c	 mov	 eax, DWORD PTR [eax+12]
  00055	5d		 pop	 ebp
  00056	c2 0c 00	 ret	 12			; 0000000cH
?GetDrdsAdvisedRQ@CDrdsRealReceiverAddInImp@@IAEPBDPAXPBD1@Z ENDP ; CDrdsRealReceiverAddInImp::GetDrdsAdvisedRQ
_TEXT	ENDS
; Function compile flags: /Ogtp
; File D:\git\src\IBK\IBK_DRFN\ProjSrc\SrcChartEx\ChartOCX\AddInManager\ChartCommonAddIn\DrdsRealReceiverAddInImp.cpp
; File C:\Program Files (x86)\Microsoft Visual Studio\2019\Community\VC\Tools\MSVC\14.29.30133\atlmfc\include\afxcoll.inl
; File D:\git\src\IBK\IBK_DRFN\ProjSrc\SrcChartEx\ChartOCX\AddInManager\ChartCommonAddIn\DrdsRealReceiverAddInImp.cpp
; File C:\Program Files (x86)\Microsoft Visual Studio\2019\Community\VC\Tools\MSVC\14.29.30133\atlmfc\include\atlsimpstr.h
; File D:\git\src\IBK\IBK_DRFN\ProjSrc\SrcChartEx\ChartOCX\AddInManager\ChartCommonAddIn\DrdsRealReceiverAddInImp.cpp
; File C:\Program Files (x86)\Microsoft Visual Studio\2019\Community\VC\Tools\MSVC\14.29.30133\atlmfc\include\atlsimpstr.h
; File D:\git\src\IBK\IBK_DRFN\ProjSrc\SrcChartEx\ChartOCX\AddInManager\ChartCommonAddIn\DrdsRealReceiverAddInImp.cpp
; File C:\Program Files (x86)\Microsoft Visual Studio\2019\Community\VC\Tools\MSVC\14.29.30133\atlmfc\include\afxwin2.inl
; File D:\git\src\IBK\IBK_DRFN\ProjSrc\SrcChartEx\ChartOCX\Include\LoadDrds.h
; File D:\git\src\IBK\IBK_DRFN\ProjSrc\SrcChartEx\ChartOCX\AddInManager\ChartCommonAddIn\DrdsRealReceiverAddInImp.cpp
; File C:\Program Files (x86)\Microsoft Visual Studio\2019\Community\VC\Tools\MSVC\14.29.30133\atlmfc\include\afxcoll.inl
; File D:\git\src\IBK\IBK_DRFN\ProjSrc\SrcChartEx\ChartOCX\AddInManager\ChartCommonAddIn\DrdsRealReceiverAddInImp.cpp
; File C:\Program Files (x86)\Microsoft Visual Studio\2019\Community\VC\Tools\MSVC\14.29.30133\atlmfc\include\afxcoll.inl
; File C:\Program Files (x86)\Microsoft Visual Studio\2019\Community\VC\Tools\MSVC\14.29.30133\atlmfc\include\atlsimpstr.h
; File D:\git\src\IBK\IBK_DRFN\ProjSrc\SrcChartEx\ChartOCX\AddInManager\ChartCommonAddIn\DrdsRealReceiverAddInImp.cpp
; File C:\Program Files (x86)\Microsoft Visual Studio\2019\Community\VC\Tools\MSVC\14.29.30133\atlmfc\include\cstringt.h
; File D:\git\src\IBK\IBK_DRFN\ProjSrc\SrcChartEx\ChartOCX\AddInManager\ChartCommonAddIn\DrdsRealReceiverAddInImp.cpp
; File C:\Program Files (x86)\Microsoft Visual Studio\2019\Community\VC\Tools\MSVC\14.29.30133\atlmfc\include\atlsimpstr.h
; File D:\git\src\IBK\IBK_DRFN\ProjSrc\SrcChartEx\ChartOCX\AddInManager\ChartCommonAddIn\DrdsRealReceiverAddInImp.cpp
; File D:\git\src\IBK\IBK_DRFN\ProjSrc\SrcChartEx\ChartOCX\AddInManager\Include_AddIn\I000000\_IString.h
; File D:\git\src\IBK\IBK_DRFN\ProjSrc\SrcChartEx\ChartOCX\AddInManager\ChartCommonAddIn\DrdsRealReceiverAddInImp.cpp
; File D:\git\src\IBK\IBK_DRFN\ProjSrc\SrcChartEx\ChartOCX\AddInManager\Include_AddIn\I000000\_IString.h
; File D:\git\src\IBK\IBK_DRFN\ProjSrc\SrcChartEx\ChartOCX\AddInManager\ChartCommonAddIn\DrdsRealReceiverAddInImp.cpp
; File C:\Program Files (x86)\Microsoft Visual Studio\2019\Community\VC\Tools\MSVC\14.29.30133\atlmfc\include\atlsimpstr.h
; File D:\git\src\IBK\IBK_DRFN\ProjSrc\SrcChartEx\ChartOCX\AddInManager\ChartCommonAddIn\DrdsRealReceiverAddInImp.cpp
; File C:\Program Files (x86)\Microsoft Visual Studio\2019\Community\VC\Tools\MSVC\14.29.30133\atlmfc\include\atlsimpstr.h
; File D:\git\src\IBK\IBK_DRFN\ProjSrc\SrcChartEx\ChartOCX\AddInManager\ChartCommonAddIn\DrdsRealReceiverAddInImp.cpp
; File C:\Program Files (x86)\Microsoft Visual Studio\2019\Community\VC\Tools\MSVC\14.29.30133\atlmfc\include\atlsimpstr.h
; File D:\git\src\IBK\IBK_DRFN\ProjSrc\SrcChartEx\ChartOCX\AddInManager\ChartCommonAddIn\DrdsRealReceiverAddInImp.cpp
; File C:\Program Files (x86)\Microsoft Visual Studio\2019\Community\VC\Tools\MSVC\14.29.30133\atlmfc\include\atlsimpstr.h
; File D:\git\src\IBK\IBK_DRFN\ProjSrc\SrcChartEx\ChartOCX\AddInManager\ChartCommonAddIn\DrdsRealReceiverAddInImp.cpp
; File C:\Program Files (x86)\Microsoft Visual Studio\2019\Community\VC\Tools\MSVC\14.29.30133\atlmfc\include\atlsimpstr.h
; File D:\git\src\IBK\IBK_DRFN\ProjSrc\SrcChartEx\ChartOCX\AddInManager\ChartCommonAddIn\DrdsRealReceiverAddInImp.cpp
; File C:\Program Files (x86)\Microsoft Visual Studio\2019\Community\VC\Tools\MSVC\14.29.30133\atlmfc\include\atlsimpstr.h
; File D:\git\src\IBK\IBK_DRFN\ProjSrc\SrcChartEx\ChartOCX\AddInManager\ChartCommonAddIn\DrdsRealReceiverAddInImp.cpp
; File C:\Program Files (x86)\Microsoft Visual Studio\2019\Community\VC\Tools\MSVC\14.29.30133\atlmfc\include\afxwin2.inl
; File D:\git\src\IBK\IBK_DRFN\ProjSrc\SrcChartEx\ChartOCX\AddInManager\ChartCommonAddIn\DrdsRealReceiverAddInImp.cpp
; File D:\git\src\IBK\IBK_DRFN\ProjSrc\SrcChartEx\ChartOCX\Include\LoadDrds.h
; File D:\git\src\IBK\IBK_DRFN\ProjSrc\SrcChartEx\ChartOCX\AddInManager\ChartCommonAddIn\DrdsRealReceiverAddInImp.cpp
; File C:\Program Files (x86)\Microsoft Visual Studio\2019\Community\VC\Tools\MSVC\14.29.30133\atlmfc\include\atlsimpstr.h
; File D:\git\src\IBK\IBK_DRFN\ProjSrc\SrcChartEx\ChartOCX\AddInManager\ChartCommonAddIn\DrdsRealReceiverAddInImp.cpp
; File C:\Program Files (x86)\Microsoft Visual Studio\2019\Community\VC\Tools\MSVC\14.29.30133\atlmfc\include\atlsimpstr.h
; File D:\git\src\IBK\IBK_DRFN\ProjSrc\SrcChartEx\ChartOCX\AddInManager\ChartCommonAddIn\DrdsRealReceiverAddInImp.cpp
; File C:\Program Files (x86)\Microsoft Visual Studio\2019\Community\VC\Tools\MSVC\14.29.30133\atlmfc\include\atlsimpstr.h
; File D:\git\src\IBK\IBK_DRFN\ProjSrc\SrcChartEx\ChartOCX\AddInManager\ChartCommonAddIn\DrdsRealReceiverAddInImp.cpp
; File C:\Program Files (x86)\Microsoft Visual Studio\2019\Community\VC\Tools\MSVC\14.29.30133\atlmfc\include\atlsimpstr.h
; File D:\git\src\IBK\IBK_DRFN\ProjSrc\SrcChartEx\ChartOCX\AddInManager\ChartCommonAddIn\DrdsRealReceiverAddInImp.cpp
; File D:\git\src\IBK\IBK_DRFN\ProjSrc\SrcChartEx\ChartOCX\AddInManager\Include_AddIn\I000000\_IString.h
; File D:\git\src\IBK\IBK_DRFN\ProjSrc\SrcChartEx\ChartOCX\AddInManager\ChartCommonAddIn\DrdsRealReceiverAddInImp.cpp
;	COMDAT ?OnDrdsAdvise@CDrdsRealReceiverAddInImp@@IAEHPBD@Z
_TEXT	SEGMENT
_szRealKeyCode$2 = -64					; size = 8
_posRsiPacketGroup$1$ = -56				; size = 4
_posRSI$1$ = -52					; size = 4
_this$1$ = -48						; size = 4
_pDrds$1$ = -44						; size = 4
$T3 = -40						; size = 4
$T4 = -36						; size = 4
$T5 = -32						; size = 4
_pIPacket$1$ = -32					; size = 4
$T6 = -28						; size = 4
_bRsiReturn$1$ = -28					; size = 4
_strShareName$7 = -28					; size = 4
_pNode$1$ = -24						; size = 4
_pNode$1$ = -20						; size = 4
_bFullReturn$1$ = -16					; size = 4
__$EHRec$ = -12						; size = 12
_lpszRQ$ = 8						; size = 4
?OnDrdsAdvise@CDrdsRealReceiverAddInImp@@IAEHPBD@Z PROC	; CDrdsRealReceiverAddInImp::OnDrdsAdvise, COMDAT
; _this$ = ecx

; 224  : {

  00000	55		 push	 ebp
  00001	8b ec		 mov	 ebp, esp
  00003	6a ff		 push	 -1
  00005	68 00 00 00 00	 push	 __ehhandler$?OnDrdsAdvise@CDrdsRealReceiverAddInImp@@IAEHPBD@Z
  0000a	64 a1 00 00 00
	00		 mov	 eax, DWORD PTR fs:0
  00010	50		 push	 eax
  00011	83 ec 34	 sub	 esp, 52			; 00000034H
  00014	53		 push	 ebx
  00015	56		 push	 esi
  00016	57		 push	 edi
  00017	a1 00 00 00 00	 mov	 eax, DWORD PTR ___security_cookie
  0001c	33 c5		 xor	 eax, ebp
  0001e	50		 push	 eax
  0001f	8d 45 f4	 lea	 eax, DWORD PTR __$EHRec$[ebp]
  00022	64 a3 00 00 00
	00		 mov	 DWORD PTR fs:0, eax
  00028	8b f1		 mov	 esi, ecx
  0002a	89 75 d0	 mov	 DWORD PTR _this$1$[ebp], esi

; 225  : 	if( !m_pIChartOCX->IsRuntimeMode()) return FALSE;

  0002d	8b 4e 0c	 mov	 ecx, DWORD PTR [esi+12]
  00030	8b 01		 mov	 eax, DWORD PTR [ecx]
  00032	ff 90 98 00 00
	00		 call	 DWORD PTR [eax+152]
  00038	85 c0		 test	 eax, eax
  0003a	0f 84 de 03 00
	00		 je	 $LN8@OnDrdsAdvi

; 226  : 	if( !m_plRealSettingInfoList || !m_plDrdsAdvisedInfoList) return FALSE;

  00040	83 be 2c 01 00
	00 00		 cmp	 DWORD PTR [esi+300], 0
  00047	0f 84 d1 03 00
	00		 je	 $LN8@OnDrdsAdvi
  0004d	83 be 30 01 00
	00 00		 cmp	 DWORD PTR [esi+304], 0
  00054	0f 84 c4 03 00
	00		 je	 $LN8@OnDrdsAdvi

; 227  : 
; 228  : 	CScaleBaseData::HORZSCALEDRAWERTYPE nType = m_pIDefaultPacketManager->GetBaseTimeDataType();

  0005a	8b 4e 20	 mov	 ecx, DWORD PTR [esi+32]
  0005d	8b 01		 mov	 eax, DWORD PTR [ecx]
  0005f	ff 50 2c	 call	 DWORD PTR [eax+44]
  00062	8b f8		 mov	 edi, eax

; 229  : 	if( nType != CScaleBaseData::HORZ_TICK 
; 230  : 		&& nType != CScaleBaseData::HORZ_TIME_SECOND
; 231  : 		&& nType != CScaleBaseData::HORZ_TIME_ONE 
; 232  : 		&& nType != CScaleBaseData::HORZ_TIME_TWO
; 233  : 		&& nType != CScaleBaseData::HORZ_DAILY
; 234  : 		&& nType != CScaleBaseData::HORZ_WEEKLEY
; 235  : 		&& nType != CScaleBaseData::HORZ_MONTHLY

  00064	83 ff 05	 cmp	 edi, 5
  00067	74 22		 je	 SHORT $LN9@OnDrdsAdvi
  00069	83 ff 0c	 cmp	 edi, 12			; 0000000cH
  0006c	74 1d		 je	 SHORT $LN9@OnDrdsAdvi
  0006e	83 ff 04	 cmp	 edi, 4
  00071	74 18		 je	 SHORT $LN9@OnDrdsAdvi
  00073	83 ff 06	 cmp	 edi, 6
  00076	74 13		 je	 SHORT $LN9@OnDrdsAdvi
  00078	83 ff 01	 cmp	 edi, 1
  0007b	74 0e		 je	 SHORT $LN9@OnDrdsAdvi
  0007d	83 ff 02	 cmp	 edi, 2
  00080	74 09		 je	 SHORT $LN9@OnDrdsAdvi
  00082	83 ff 03	 cmp	 edi, 3
  00085	0f 85 93 03 00
	00		 jne	 $LN8@OnDrdsAdvi
$LN9@OnDrdsAdvi:

; 236  : 	) return FALSE;
; 237  : 
; 238  : 	if(!lpszRQ)

  0008b	83 7d 08 00	 cmp	 DWORD PTR _lpszRQ$[ebp], 0
  0008f	75 09		 jne	 SHORT $LN10@OnDrdsAdvi

; 239  : 		OffDrdsAdvise(lpszRQ);

  00091	6a 00		 push	 0
  00093	8b ce		 mov	 ecx, esi
  00095	e8 00 00 00 00	 call	 ?OffDrdsAdvise@CDrdsRealReceiverAddInImp@@IAEHPBD@Z ; CDrdsRealReceiverAddInImp::OffDrdsAdvise
$LN10@OnDrdsAdvi:

; 240  : 
; 241  : 	if(m_DrdsDLL.m_hLib == NULL ||m_DrdsVoid == NULL) return FALSE;

  0009a	83 be 24 01 00
	00 00		 cmp	 DWORD PTR [esi+292], 0
  000a1	0f 84 77 03 00
	00		 je	 $LN8@OnDrdsAdvi
  000a7	83 be 20 01 00
	00 00		 cmp	 DWORD PTR [esi+288], 0
  000ae	0f 84 6a 03 00
	00		 je	 $LN8@OnDrdsAdvi

; 242  : 
; 243  : 	// (2004.12.01, ) OnDrdsAdvised() Real     Flag .
; 244  : 	//		OnDrdsAdvse()/OnDrdsData()/OnDrdsPacketEnd()/OffDrdsAdvised() .
; 245  : 	m_bOnNMTR = m_pIChartOCX->GetNormalizedMinuteTimeRule() && ( nType == CScaleBaseData::HORZ_TIME_ONE || nType == CScaleBaseData::HORZ_TIME_TWO);

  000b4	8b 4e 0c	 mov	 ecx, DWORD PTR [esi+12]
  000b7	8b 01		 mov	 eax, DWORD PTR [ecx]
  000b9	ff 90 c4 00 00
	00		 call	 DWORD PTR [eax+196]
  000bf	85 c0		 test	 eax, eax
  000c1	74 70		 je	 SHORT $LN26@OnDrdsAdvi
  000c3	83 ff 04	 cmp	 edi, 4
  000c6	74 05		 je	 SHORT $LN25@OnDrdsAdvi
  000c8	83 ff 06	 cmp	 edi, 6
  000cb	75 66		 jne	 SHORT $LN26@OnDrdsAdvi
$LN25@OnDrdsAdvi:

; 246  : 
; 247  : 	// (2004.12.01, )    Real Advise   Real Setting Info Local Share Info .
; 248  : 	//		!  Real  DRDS Advised Info Filltering   .
; 249  : 	if( m_bOnNMTR)
; 250  : 	{
; 251  : 		CString strShareName;

  000cd	8d 4d e4	 lea	 ecx, DWORD PTR _strShareName$7[ebp]
  000d0	c7 86 34 01 00
	00 01 00 00 00	 mov	 DWORD PTR [esi+308], 1
  000da	ff 15 00 00 00
	00		 call	 DWORD PTR __imp_??0?$CStringT@DV?$StrTraitMFC_DLL@DV?$ChTraitsCRT@D@ATL@@@@@ATL@@QAE@XZ

; 252  : 		m_plRealSettingInfoList->AddRealSettingInfo( _MTEXT( C0_DATE_TIME), _CHART_CLOCK_REAL_PACKET, _CHART_CLOCK_REAL_FIELD,

  000e0	8b 8e 2c 01 00
	00		 mov	 ecx, DWORD PTR [esi+300]
  000e6	8d 45 e4	 lea	 eax, DWORD PTR _strShareName$7[ebp]
  000e9	50		 push	 eax
  000ea	a1 54 00 00 00	 mov	 eax, DWORD PTR ?g_iMetaTable@@3VIMetaTable@@A+84
  000ef	68 00 00 00 00	 push	 OFFSET ??_C@_04JDPKJLKG@0000@
  000f4	68 00 00 00 00	 push	 OFFSET ??_C@_04CLCEDBPF@time@
  000f9	68 00 00 00 00	 push	 OFFSET ??_C@_03JLKODOKA@JS0@
  000fe	ff 30		 push	 DWORD PTR [eax]
  00100	c7 45 fc 00 00
	00 00		 mov	 DWORD PTR __$EHRec$[ebp+8], 0
  00107	e8 00 00 00 00	 call	 ?AddRealSettingInfo@CRealSettingInfoList@@QAEHPBD000PAV?$CStringT@DV?$StrTraitMFC_DLL@DV?$ChTraitsCRT@D@ATL@@@@@ATL@@@Z ; CRealSettingInfoList::AddRealSettingInfo

; 253  : 			_CHART_CLOCK_REAL_KEYCODE, &strShareName);
; 254  : 		m_pIChartOCX->AddLocalShareInfo( strShareName, 0, _CHART_CLOCK_REAL_KEYCODE);

  0010c	8b 4e 0c	 mov	 ecx, DWORD PTR [esi+12]
  0010f	68 00 00 00 00	 push	 OFFSET ??_C@_04JDPKJLKG@0000@
  00114	6a 00		 push	 0
  00116	ff 75 e4	 push	 DWORD PTR _strShareName$7[ebp]
  00119	8b 01		 mov	 eax, DWORD PTR [ecx]
  0011b	ff 90 58 01 00
	00		 call	 DWORD PTR [eax+344]

; 255  : 	}

  00121	8d 4d e4	 lea	 ecx, DWORD PTR _strShareName$7[ebp]
  00124	c7 45 fc ff ff
	ff ff		 mov	 DWORD PTR __$EHRec$[ebp+8], -1
  0012b	ff 15 00 00 00
	00		 call	 DWORD PTR __imp_??1?$CStringT@DV?$StrTraitMFC_DLL@DV?$ChTraitsCRT@D@ATL@@@@@ATL@@QAE@XZ
  00131	eb 0a		 jmp	 SHORT $LN13@OnDrdsAdvi
$LN26@OnDrdsAdvi:

; 242  : 
; 243  : 	// (2004.12.01, ) OnDrdsAdvised() Real     Flag .
; 244  : 	//		OnDrdsAdvse()/OnDrdsData()/OnDrdsPacketEnd()/OffDrdsAdvised() .
; 245  : 	m_bOnNMTR = m_pIChartOCX->GetNormalizedMinuteTimeRule() && ( nType == CScaleBaseData::HORZ_TIME_ONE || nType == CScaleBaseData::HORZ_TIME_TWO);

  00133	c7 86 34 01 00
	00 00 00 00 00	 mov	 DWORD PTR [esi+308], 0
$LN13@OnDrdsAdvi:

; 256  : 
; 257  : 	// Packet Type
; 258  : 	BOOL bFullReturn = TRUE;
; 259  : 	POSITION posRsiPacketGroup = m_plRealSettingInfoList->GetHeadPosition();

  0013d	8b 86 2c 01 00
	00		 mov	 eax, DWORD PTR [esi+300]
  00143	bf 01 00 00 00	 mov	 edi, 1
  00148	89 7d f0	 mov	 DWORD PTR _bFullReturn$1$[ebp], edi
  0014b	8b 48 04	 mov	 ecx, DWORD PTR [eax+4]

; 260  : 	while( posRsiPacketGroup) 

  0014e	85 c9		 test	 ecx, ecx
  00150	0f 84 6b 02 00
	00		 je	 $LN3@OnDrdsAdvi
  00156	eb 03		 jmp	 SHORT $LN2@OnDrdsAdvi
$LL118@OnDrdsAdvi:
  00158	8b 7d f0	 mov	 edi, DWORD PTR _bFullReturn$1$[ebp]
$LN2@OnDrdsAdvi:
; File C:\Program Files (x86)\Microsoft Visual Studio\2019\Community\VC\Tools\MSVC\14.29.30133\atlmfc\include\afxcoll.inl

; 428  : 	{ CNode* pNode = (CNode*) rPosition;

  0015b	8b c1		 mov	 eax, ecx

; 432  : 		rPosition = (POSITION) pNode->pNext;

  0015d	8b 09		 mov	 ecx, DWORD PTR [ecx]
  0015f	89 45 ec	 mov	 DWORD PTR _pNode$1$[ebp], eax
  00162	89 4d c8	 mov	 DWORD PTR _posRsiPacketGroup$1$[ebp], ecx
; File D:\git\src\IBK\IBK_DRFN\ProjSrc\SrcChartEx\ChartOCX\AddInManager\ChartCommonAddIn\DrdsRealReceiverAddInImp.cpp

; 264  : 		if( m_plDrdsAdvisedInfoList->AddDaiPacketGroup( pRsiPacketGroup->m_strRealPacketName))

  00165	8b 8e 30 01 00
	00		 mov	 ecx, DWORD PTR [esi+304]
; File C:\Program Files (x86)\Microsoft Visual Studio\2019\Community\VC\Tools\MSVC\14.29.30133\atlmfc\include\atlsimpstr.h

; 377  : 		return( m_pszData );

  0016b	8b 40 08	 mov	 eax, DWORD PTR [eax+8]
; File D:\git\src\IBK\IBK_DRFN\ProjSrc\SrcChartEx\ChartOCX\AddInManager\ChartCommonAddIn\DrdsRealReceiverAddInImp.cpp

; 264  : 		if( m_plDrdsAdvisedInfoList->AddDaiPacketGroup( pRsiPacketGroup->m_strRealPacketName))

  0016e	ff 70 04	 push	 DWORD PTR [eax+4]
  00171	e8 00 00 00 00	 call	 ?AddDaiPacketGroup@CDrdsAdvisedInfoList@@QAEHPBD@Z ; CDrdsAdvisedInfoList::AddDaiPacketGroup
  00176	85 c0		 test	 eax, eax
  00178	74 62		 je	 SHORT $LN14@OnDrdsAdvi

; 265  : 		{
; 266  : 			if(	m_DrdsDLL.m_hLib && m_DrdsVoid)

  0017a	8b 8e 24 01 00
	00		 mov	 ecx, DWORD PTR [esi+292]
  00180	85 c9		 test	 ecx, ecx
  00182	74 5f		 je	 SHORT $LN15@OnDrdsAdvi
  00184	8b 9e 20 01 00
	00		 mov	 ebx, DWORD PTR [esi+288]
  0018a	85 db		 test	 ebx, ebx
  0018c	74 55		 je	 SHORT $LN15@OnDrdsAdvi

; 267  : 				bFullReturn = bFullReturn && m_DrdsDLL.DrdsConnect( m_DrdsVoid, m_pChartCWnd->GetSafeHwnd(), (LPSTR)(LPCTSTR)pRsiPacketGroup->m_strRealPacketName);

  0018e	85 ff		 test	 edi, edi
  00190	74 4a		 je	 SHORT $LN14@OnDrdsAdvi
; File C:\Program Files (x86)\Microsoft Visual Studio\2019\Community\VC\Tools\MSVC\14.29.30133\atlmfc\include\atlsimpstr.h

; 377  : 		return( m_pszData );

  00192	8b 45 ec	 mov	 eax, DWORD PTR _pNode$1$[ebp]
  00195	8b 40 08	 mov	 eax, DWORD PTR [eax+8]
  00198	8b 40 04	 mov	 eax, DWORD PTR [eax+4]
  0019b	89 45 e0	 mov	 DWORD PTR $T5[ebp], eax
; File D:\git\src\IBK\IBK_DRFN\ProjSrc\SrcChartEx\ChartOCX\AddInManager\ChartCommonAddIn\DrdsRealReceiverAddInImp.cpp

; 267  : 				bFullReturn = bFullReturn && m_DrdsDLL.DrdsConnect( m_DrdsVoid, m_pChartCWnd->GetSafeHwnd(), (LPSTR)(LPCTSTR)pRsiPacketGroup->m_strRealPacketName);

  0019e	8b 46 10	 mov	 eax, DWORD PTR [esi+16]
; File C:\Program Files (x86)\Microsoft Visual Studio\2019\Community\VC\Tools\MSVC\14.29.30133\atlmfc\include\afxwin2.inl

; 25   : 	{ return this == NULL ? NULL : m_hWnd; }

  001a1	85 c0		 test	 eax, eax
  001a3	75 04		 jne	 SHORT $LN49@OnDrdsAdvi
  001a5	33 ff		 xor	 edi, edi
  001a7	eb 03		 jmp	 SHORT $LN50@OnDrdsAdvi
$LN49@OnDrdsAdvi:
  001a9	8b 78 20	 mov	 edi, DWORD PTR [eax+32]
$LN50@OnDrdsAdvi:
; File D:\git\src\IBK\IBK_DRFN\ProjSrc\SrcChartEx\ChartOCX\Include\LoadDrds.h

; 173  : 		fnDrdsConnect = (Drds_Connect)::GetProcAddress(m_hLib,"DrdsConnect");

  001ac	68 00 00 00 00	 push	 OFFSET ??_C@_0M@MDAJJFIJ@DrdsConnect@
  001b1	51		 push	 ecx
  001b2	ff 15 00 00 00
	00		 call	 DWORD PTR __imp__GetProcAddress@8

; 174  : 
; 175  : 		if(fnDrdsConnect == NULL)

  001b8	85 c0		 test	 eax, eax
  001ba	75 0e		 jne	 SHORT $LN53@OnDrdsAdvi

; 176  : 		{
; 177  : 			AfxMessageBox("DrdsConnect() is not found.");

  001bc	50		 push	 eax
  001bd	50		 push	 eax
  001be	68 00 00 00 00	 push	 OFFSET ??_C@_0BM@MIIIMLKG@DrdsConnect?$CI?$CJ?5is?5not?5found?4@
  001c3	e8 00 00 00 00	 call	 ?AfxMessageBox@@YGHPBDII@Z ; AfxMessageBox

; 178  : 			return FALSE;

  001c8	eb 12		 jmp	 SHORT $LN14@OnDrdsAdvi
$LN53@OnDrdsAdvi:

; 179  : 		}
; 180  : 		BOOL bResult; 
; 181  : 		bResult = fnDrdsConnect(pDrds,hWnd,DataName);

  001ca	ff 75 e0	 push	 DWORD PTR $T5[ebp]
  001cd	57		 push	 edi
  001ce	53		 push	 ebx
  001cf	ff d0		 call	 eax
; File D:\git\src\IBK\IBK_DRFN\ProjSrc\SrcChartEx\ChartOCX\AddInManager\ChartCommonAddIn\DrdsRealReceiverAddInImp.cpp

; 267  : 				bFullReturn = bFullReturn && m_DrdsDLL.DrdsConnect( m_DrdsVoid, m_pChartCWnd->GetSafeHwnd(), (LPSTR)(LPCTSTR)pRsiPacketGroup->m_strRealPacketName);

  001d1	c7 45 f0 01 00
	00 00		 mov	 DWORD PTR _bFullReturn$1$[ebp], 1
  001d8	85 c0		 test	 eax, eax
  001da	75 07		 jne	 SHORT $LN15@OnDrdsAdvi
$LN14@OnDrdsAdvi:

; 268  : 		}
; 269  : 		else
; 270  : 		{
; 271  : 			bFullReturn = FALSE;
; 272  : 		}
; 273  : 
; 274  : 		POSITION posRSI = pRsiPacketGroup->GetHeadPosition();

  001dc	c7 45 f0 00 00
	00 00		 mov	 DWORD PTR _bFullReturn$1$[ebp], 0
$LN15@OnDrdsAdvi:
  001e3	8b 45 ec	 mov	 eax, DWORD PTR _pNode$1$[ebp]
  001e6	8b 40 08	 mov	 eax, DWORD PTR [eax+8]
  001e9	8b 40 0c	 mov	 eax, DWORD PTR [eax+12]

; 275  : 		while( posRSI)

  001ec	85 c0		 test	 eax, eax
  001ee	0f 84 c2 01 00
	00		 je	 $LN5@OnDrdsAdvi
$LL4@OnDrdsAdvi:
; File C:\Program Files (x86)\Microsoft Visual Studio\2019\Community\VC\Tools\MSVC\14.29.30133\atlmfc\include\afxcoll.inl

; 428  : 	{ CNode* pNode = (CNode*) rPosition;

  001f4	8b d8		 mov	 ebx, eax
; File D:\git\src\IBK\IBK_DRFN\ProjSrc\SrcChartEx\ChartOCX\AddInManager\ChartCommonAddIn\DrdsRealReceiverAddInImp.cpp

; 280  : 			BOOL bRsiReturn = FALSE;

  001f6	c7 45 e4 00 00
	00 00		 mov	 DWORD PTR _bRsiReturn$1$[ebp], 0
; File C:\Program Files (x86)\Microsoft Visual Studio\2019\Community\VC\Tools\MSVC\14.29.30133\atlmfc\include\afxcoll.inl

; 432  : 		rPosition = (POSITION) pNode->pNext;

  001fd	8b 00		 mov	 eax, DWORD PTR [eax]
  001ff	89 45 cc	 mov	 DWORD PTR _posRSI$1$[ebp], eax
  00202	89 5d e8	 mov	 DWORD PTR _pNode$1$[ebp], ebx
; File C:\Program Files (x86)\Microsoft Visual Studio\2019\Community\VC\Tools\MSVC\14.29.30133\atlmfc\include\atlsimpstr.h

; 800  : 		return( reinterpret_cast< CStringData* >( m_pszData )-1 );

  00205	8b 4b 08	 mov	 ecx, DWORD PTR [ebx+8]
  00208	83 c1 10	 add	 ecx, 16			; 00000010H

; 519  : 		return( GetData()->nDataLength );

  0020b	8b 01		 mov	 eax, DWORD PTR [ecx]

; 533  : 		return( GetLength() == 0 );

  0020d	83 78 f4 00	 cmp	 DWORD PTR [eax-12], 0
; File D:\git\src\IBK\IBK_DRFN\ProjSrc\SrcChartEx\ChartOCX\AddInManager\ChartCommonAddIn\DrdsRealReceiverAddInImp.cpp

; 282  : 			if(!pRSI->m_strRQ.IsEmpty() && pRSI->m_strRQ != lpszRQ)

  00211	74 11		 je	 SHORT $LN17@OnDrdsAdvi
; File C:\Program Files (x86)\Microsoft Visual Studio\2019\Community\VC\Tools\MSVC\14.29.30133\atlmfc\include\cstringt.h

; 2567 : 		return( str1.Compare( psz2 ) != 0 );

  00213	ff 75 08	 push	 DWORD PTR _lpszRQ$[ebp]
  00216	ff 15 00 00 00
	00		 call	 DWORD PTR __imp_?Compare@?$CStringT@DV?$StrTraitMFC_DLL@DV?$ChTraitsCRT@D@ATL@@@@@ATL@@QBEHPBD@Z
  0021c	85 c0		 test	 eax, eax
; File D:\git\src\IBK\IBK_DRFN\ProjSrc\SrcChartEx\ChartOCX\AddInManager\ChartCommonAddIn\DrdsRealReceiverAddInImp.cpp

; 282  : 			if(!pRSI->m_strRQ.IsEmpty() && pRSI->m_strRQ != lpszRQ)

  0021e	0f 85 87 01 00
	00		 jne	 $LN112@OnDrdsAdvi
$LN17@OnDrdsAdvi:

; 285  : 			ILPCSTR szRealKeyCode = m_pIChartOCX->GetLocalSharedDataString( pRSI->m_strShareName);

  00224	8b 4e 0c	 mov	 ecx, DWORD PTR [esi+12]
; File C:\Program Files (x86)\Microsoft Visual Studio\2019\Community\VC\Tools\MSVC\14.29.30133\atlmfc\include\atlsimpstr.h

; 377  : 		return( m_pszData );

  00227	8b 43 08	 mov	 eax, DWORD PTR [ebx+8]
; File D:\git\src\IBK\IBK_DRFN\ProjSrc\SrcChartEx\ChartOCX\AddInManager\ChartCommonAddIn\DrdsRealReceiverAddInImp.cpp

; 285  : 			ILPCSTR szRealKeyCode = m_pIChartOCX->GetLocalSharedDataString( pRSI->m_strShareName);

  0022a	8b 11		 mov	 edx, DWORD PTR [ecx]
  0022c	ff 70 0c	 push	 DWORD PTR [eax+12]
  0022f	ff 92 5c 01 00
	00		 call	 DWORD PTR [edx+348]
; File D:\git\src\IBK\IBK_DRFN\ProjSrc\SrcChartEx\ChartOCX\AddInManager\Include_AddIn\I000000\_IString.h

; 39   : 		m_pIStrData = p_pIString;	// Do not AddRef(). Because It must be Return Value.

  00235	8b d8		 mov	 ebx, eax
  00237	89 5d c4	 mov	 DWORD PTR _szRealKeyCode$2[ebp+4], ebx

; 40   : 		if( m_pIStrData) m_szData = m_pIStrData->GetData();

  0023a	85 db		 test	 ebx, ebx
  0023c	74 0b		 je	 SHORT $LN75@OnDrdsAdvi
  0023e	8b 13		 mov	 edx, DWORD PTR [ebx]
  00240	8b cb		 mov	 ecx, ebx
  00242	ff 52 10	 call	 DWORD PTR [edx+16]
  00245	8b f8		 mov	 edi, eax
  00247	eb 02		 jmp	 SHORT $LN120@OnDrdsAdvi
$LN75@OnDrdsAdvi:

; 41   : 		else m_szData = NULL;

  00249	33 ff		 xor	 edi, edi
$LN120@OnDrdsAdvi:
; File D:\git\src\IBK\IBK_DRFN\ProjSrc\SrcChartEx\ChartOCX\AddInManager\ChartCommonAddIn\DrdsRealReceiverAddInImp.cpp

; 285  : 			ILPCSTR szRealKeyCode = m_pIChartOCX->GetLocalSharedDataString( pRSI->m_strShareName);

  0024b	89 7d c0	 mov	 DWORD PTR _szRealKeyCode$2[ebp], edi
  0024e	c7 45 fc 01 00
	00 00		 mov	 DWORD PTR __$EHRec$[ebp+8], 1
; File D:\git\src\IBK\IBK_DRFN\ProjSrc\SrcChartEx\ChartOCX\AddInManager\Include_AddIn\I000000\_IString.h

; 57   : 		if( !m_szData) return TRUE;

  00255	85 ff		 test	 edi, edi
  00257	0f 84 0e 01 00
	00		 je	 $LN19@OnDrdsAdvi
; File D:\git\src\IBK\IBK_DRFN\ProjSrc\SrcChartEx\ChartOCX\AddInManager\ChartCommonAddIn\DrdsRealReceiverAddInImp.cpp

; 286  : 			if( !szRealKeyCode.IsEmpty())

  0025d	80 3f 00	 cmp	 BYTE PTR [edi], 0
  00260	0f 84 05 01 00
	00		 je	 $LN19@OnDrdsAdvi
; File C:\Program Files (x86)\Microsoft Visual Studio\2019\Community\VC\Tools\MSVC\14.29.30133\atlmfc\include\atlsimpstr.h

; 377  : 		return( m_pszData );

  00266	8b 45 e8	 mov	 eax, DWORD PTR _pNode$1$[ebp]
; File D:\git\src\IBK\IBK_DRFN\ProjSrc\SrcChartEx\ChartOCX\AddInManager\ChartCommonAddIn\DrdsRealReceiverAddInImp.cpp

; 288  : 				IPacket *pIPacket = m_pIPacketListManager->GetPacket( lpszRQ, pRSI->m_strChartPacketName);

  00269	8b 4e 1c	 mov	 ecx, DWORD PTR [esi+28]
; File C:\Program Files (x86)\Microsoft Visual Studio\2019\Community\VC\Tools\MSVC\14.29.30133\atlmfc\include\atlsimpstr.h

; 377  : 		return( m_pszData );

  0026c	8b 40 08	 mov	 eax, DWORD PTR [eax+8]
; File D:\git\src\IBK\IBK_DRFN\ProjSrc\SrcChartEx\ChartOCX\AddInManager\ChartCommonAddIn\DrdsRealReceiverAddInImp.cpp

; 288  : 				IPacket *pIPacket = m_pIPacketListManager->GetPacket( lpszRQ, pRSI->m_strChartPacketName);

  0026f	8b 11		 mov	 edx, DWORD PTR [ecx]
  00271	ff 70 04	 push	 DWORD PTR [eax+4]
  00274	ff 75 08	 push	 DWORD PTR _lpszRQ$[ebp]
  00277	ff 52 14	 call	 DWORD PTR [edx+20]
  0027a	89 45 e0	 mov	 DWORD PTR _pIPacket$1$[ebp], eax

; 289  : 				if( pIPacket)

  0027d	85 c0		 test	 eax, eax
  0027f	0f 84 e6 00 00
	00		 je	 $LN19@OnDrdsAdvi
; File C:\Program Files (x86)\Microsoft Visual Studio\2019\Community\VC\Tools\MSVC\14.29.30133\atlmfc\include\atlsimpstr.h

; 377  : 		return( m_pszData );

  00285	8b 4d e8	 mov	 ecx, DWORD PTR _pNode$1$[ebp]
; File D:\git\src\IBK\IBK_DRFN\ProjSrc\SrcChartEx\ChartOCX\AddInManager\ChartCommonAddIn\DrdsRealReceiverAddInImp.cpp

; 291  : 					if( m_plDrdsAdvisedInfoList->AddDrdsAdvisedInfo(lpszRQ, pIPacket, pRsiPacketGroup->m_strRealPacketName,

  00288	57		 push	 edi
; File C:\Program Files (x86)\Microsoft Visual Studio\2019\Community\VC\Tools\MSVC\14.29.30133\atlmfc\include\atlsimpstr.h

; 377  : 		return( m_pszData );

  00289	8b 49 08	 mov	 ecx, DWORD PTR [ecx+8]
  0028c	8b 51 08	 mov	 edx, DWORD PTR [ecx+8]
  0028f	8b 4d ec	 mov	 ecx, DWORD PTR _pNode$1$[ebp]
; File D:\git\src\IBK\IBK_DRFN\ProjSrc\SrcChartEx\ChartOCX\AddInManager\ChartCommonAddIn\DrdsRealReceiverAddInImp.cpp

; 291  : 					if( m_plDrdsAdvisedInfoList->AddDrdsAdvisedInfo(lpszRQ, pIPacket, pRsiPacketGroup->m_strRealPacketName,

  00292	52		 push	 edx
; File C:\Program Files (x86)\Microsoft Visual Studio\2019\Community\VC\Tools\MSVC\14.29.30133\atlmfc\include\atlsimpstr.h

; 377  : 		return( m_pszData );

  00293	8b 49 08	 mov	 ecx, DWORD PTR [ecx+8]
; File D:\git\src\IBK\IBK_DRFN\ProjSrc\SrcChartEx\ChartOCX\AddInManager\ChartCommonAddIn\DrdsRealReceiverAddInImp.cpp

; 291  : 					if( m_plDrdsAdvisedInfoList->AddDrdsAdvisedInfo(lpszRQ, pIPacket, pRsiPacketGroup->m_strRealPacketName,

  00296	ff 71 04	 push	 DWORD PTR [ecx+4]
  00299	8b 8e 30 01 00
	00		 mov	 ecx, DWORD PTR [esi+304]
  0029f	50		 push	 eax
  002a0	ff 75 08	 push	 DWORD PTR _lpszRQ$[ebp]
  002a3	e8 00 00 00 00	 call	 ?AddDrdsAdvisedInfo@CDrdsAdvisedInfoList@@QAEHPBDPAUIPacket000000@@000@Z ; CDrdsAdvisedInfoList::AddDrdsAdvisedInfo
  002a8	85 c0		 test	 eax, eax
  002aa	0f 84 b2 00 00
	00		 je	 $LN21@OnDrdsAdvi
; File C:\Program Files (x86)\Microsoft Visual Studio\2019\Community\VC\Tools\MSVC\14.29.30133\atlmfc\include\atlsimpstr.h

; 377  : 		return( m_pszData );

  002b0	8b 45 e8	 mov	 eax, DWORD PTR _pNode$1$[ebp]
  002b3	8b 40 08	 mov	 eax, DWORD PTR [eax+8]
  002b6	8b 40 08	 mov	 eax, DWORD PTR [eax+8]
  002b9	89 45 dc	 mov	 DWORD PTR $T4[ebp], eax
  002bc	8b 45 ec	 mov	 eax, DWORD PTR _pNode$1$[ebp]
  002bf	8b 40 08	 mov	 eax, DWORD PTR [eax+8]
  002c2	8b 40 04	 mov	 eax, DWORD PTR [eax+4]
  002c5	89 45 d8	 mov	 DWORD PTR $T3[ebp], eax
; File D:\git\src\IBK\IBK_DRFN\ProjSrc\SrcChartEx\ChartOCX\AddInManager\ChartCommonAddIn\DrdsRealReceiverAddInImp.cpp

; 294  : 						bRsiReturn = m_DrdsDLL.DrdsAdvise( 

  002c8	8b 46 10	 mov	 eax, DWORD PTR [esi+16]
; File C:\Program Files (x86)\Microsoft Visual Studio\2019\Community\VC\Tools\MSVC\14.29.30133\atlmfc\include\afxwin2.inl

; 25   : 	{ return this == NULL ? NULL : m_hWnd; }

  002cb	85 c0		 test	 eax, eax
  002cd	75 05		 jne	 SHORT $LN93@OnDrdsAdvi
  002cf	89 45 e4	 mov	 DWORD PTR $T6[ebp], eax
  002d2	eb 06		 jmp	 SHORT $LN94@OnDrdsAdvi
$LN93@OnDrdsAdvi:
  002d4	8b 40 20	 mov	 eax, DWORD PTR [eax+32]
  002d7	89 45 e4	 mov	 DWORD PTR $T6[ebp], eax
$LN94@OnDrdsAdvi:
; File D:\git\src\IBK\IBK_DRFN\ProjSrc\SrcChartEx\ChartOCX\AddInManager\ChartCommonAddIn\DrdsRealReceiverAddInImp.cpp

; 294  : 						bRsiReturn = m_DrdsDLL.DrdsAdvise( 

  002da	8b 86 20 01 00
	00		 mov	 eax, DWORD PTR [esi+288]
  002e0	89 45 d4	 mov	 DWORD PTR _pDrds$1$[ebp], eax
; File D:\git\src\IBK\IBK_DRFN\ProjSrc\SrcChartEx\ChartOCX\Include\LoadDrds.h

; 204  : 		if(!m_hLib) return FALSE;

  002e3	8b 86 24 01 00
	00		 mov	 eax, DWORD PTR [esi+292]
  002e9	85 c0		 test	 eax, eax
  002eb	75 05		 jne	 SHORT $LN96@OnDrdsAdvi
  002ed	89 45 e4	 mov	 DWORD PTR _bRsiReturn$1$[ebp], eax
  002f0	eb 3a		 jmp	 SHORT $LN95@OnDrdsAdvi
$LN96@OnDrdsAdvi:

; 205  : 		Drds_Advise fnDrdsAdvise;
; 206  : 		fnDrdsAdvise = (Drds_Advise)::GetProcAddress(m_hLib,"DrdsAdvise");

  002f2	68 00 00 00 00	 push	 OFFSET ??_C@_0L@CMJNOAIM@DrdsAdvise@
  002f7	50		 push	 eax
  002f8	ff 15 00 00 00
	00		 call	 DWORD PTR __imp__GetProcAddress@8

; 207  : 
; 208  : 		if(fnDrdsAdvise == NULL)

  002fe	85 c0		 test	 eax, eax
  00300	75 15		 jne	 SHORT $LN97@OnDrdsAdvi

; 209  : 		{
; 210  : 			AfxMessageBox("DrdsAdvise() is not found.");

  00302	50		 push	 eax
  00303	50		 push	 eax
  00304	68 00 00 00 00	 push	 OFFSET ??_C@_0BL@PCIOAEHO@DrdsAdvise?$CI?$CJ?5is?5not?5found?4@
  00309	e8 00 00 00 00	 call	 ?AfxMessageBox@@YGHPBDII@Z ; AfxMessageBox

; 211  : 			return FALSE;

  0030e	c7 45 e4 00 00
	00 00		 mov	 DWORD PTR _bRsiReturn$1$[ebp], 0
  00315	eb 15		 jmp	 SHORT $LN95@OnDrdsAdvi
$LN97@OnDrdsAdvi:

; 212  : 		}
; 213  : 		BOOL bResult; 
; 214  : 		bResult = fnDrdsAdvise(pDrds,hWnd,id,DataName,FieldName, KeyName);

  00317	57		 push	 edi
  00318	ff 75 dc	 push	 DWORD PTR $T4[ebp]
  0031b	ff 75 d8	 push	 DWORD PTR $T3[ebp]
  0031e	ff 75 e0	 push	 DWORD PTR _pIPacket$1$[ebp]
  00321	ff 75 e4	 push	 DWORD PTR $T6[ebp]
  00324	ff 75 d4	 push	 DWORD PTR _pDrds$1$[ebp]
  00327	ff d0		 call	 eax

; 215  : 		return bResult;

  00329	89 45 e4	 mov	 DWORD PTR _bRsiReturn$1$[ebp], eax
$LN95@OnDrdsAdvi:
; File D:\git\src\IBK\IBK_DRFN\ProjSrc\SrcChartEx\ChartOCX\AddInManager\ChartCommonAddIn\DrdsRealReceiverAddInImp.cpp

; 303  : 						if( m_pIChartOCX->IsInLogging()) m_pIAddInToolMgr->OnAddInToolCommand( EAI_LOG_DRDS_ADVISE, 

  0032c	8b 4e 0c	 mov	 ecx, DWORD PTR [esi+12]
  0032f	8b 11		 mov	 edx, DWORD PTR [ecx]
  00331	ff 92 cc 00 00
	00		 call	 DWORD PTR [edx+204]
  00337	85 c0		 test	 eax, eax
  00339	74 27		 je	 SHORT $LN21@OnDrdsAdvi
; File C:\Program Files (x86)\Microsoft Visual Studio\2019\Community\VC\Tools\MSVC\14.29.30133\atlmfc\include\atlsimpstr.h

; 377  : 		return( m_pszData );

  0033b	8b 45 e8	 mov	 eax, DWORD PTR _pNode$1$[ebp]
; File D:\git\src\IBK\IBK_DRFN\ProjSrc\SrcChartEx\ChartOCX\AddInManager\ChartCommonAddIn\DrdsRealReceiverAddInImp.cpp

; 303  : 						if( m_pIChartOCX->IsInLogging()) m_pIAddInToolMgr->OnAddInToolCommand( EAI_LOG_DRDS_ADVISE, 

  0033e	8b 4e 2c	 mov	 ecx, DWORD PTR [esi+44]
  00341	57		 push	 edi
; File C:\Program Files (x86)\Microsoft Visual Studio\2019\Community\VC\Tools\MSVC\14.29.30133\atlmfc\include\atlsimpstr.h

; 377  : 		return( m_pszData );

  00342	8b 40 08	 mov	 eax, DWORD PTR [eax+8]
; File D:\git\src\IBK\IBK_DRFN\ProjSrc\SrcChartEx\ChartOCX\AddInManager\ChartCommonAddIn\DrdsRealReceiverAddInImp.cpp

; 303  : 						if( m_pIChartOCX->IsInLogging()) m_pIAddInToolMgr->OnAddInToolCommand( EAI_LOG_DRDS_ADVISE, 

  00345	8b 31		 mov	 esi, DWORD PTR [ecx]
; File C:\Program Files (x86)\Microsoft Visual Studio\2019\Community\VC\Tools\MSVC\14.29.30133\atlmfc\include\atlsimpstr.h

; 377  : 		return( m_pszData );

  00347	8b 50 08	 mov	 edx, DWORD PTR [eax+8]
  0034a	8b 45 ec	 mov	 eax, DWORD PTR _pNode$1$[ebp]
; File D:\git\src\IBK\IBK_DRFN\ProjSrc\SrcChartEx\ChartOCX\AddInManager\ChartCommonAddIn\DrdsRealReceiverAddInImp.cpp

; 303  : 						if( m_pIChartOCX->IsInLogging()) m_pIAddInToolMgr->OnAddInToolCommand( EAI_LOG_DRDS_ADVISE, 

  0034d	52		 push	 edx
; File C:\Program Files (x86)\Microsoft Visual Studio\2019\Community\VC\Tools\MSVC\14.29.30133\atlmfc\include\atlsimpstr.h

; 377  : 		return( m_pszData );

  0034e	8b 40 08	 mov	 eax, DWORD PTR [eax+8]
; File D:\git\src\IBK\IBK_DRFN\ProjSrc\SrcChartEx\ChartOCX\AddInManager\ChartCommonAddIn\DrdsRealReceiverAddInImp.cpp

; 303  : 						if( m_pIChartOCX->IsInLogging()) m_pIAddInToolMgr->OnAddInToolCommand( EAI_LOG_DRDS_ADVISE, 

  00351	ff 70 04	 push	 DWORD PTR [eax+4]
  00354	ff 75 e0	 push	 DWORD PTR _pIPacket$1$[ebp]
  00357	6a 14		 push	 20			; 00000014H
  00359	ff 96 98 00 00
	00		 call	 DWORD PTR [esi+152]
  0035f	8b 75 d0	 mov	 esi, DWORD PTR _this$1$[ebp]
$LN21@OnDrdsAdvi:

; 304  : 								(long)pIPacket,
; 305  : 								(LPSTR)(LPCTSTR)pRsiPacketGroup->m_strRealPacketName, 
; 306  : 								(LPSTR)(LPCTSTR)pRSI->m_strRealFieldName,
; 307  : 								(LPSTR)(LPCTSTR)szRealKeyCode);
; 308  : 
; 309  : 					}//end of if(m_pl...
; 310  : 
; 311  : 					pIPacket->Release();

  00362	8b 4d e0	 mov	 ecx, DWORD PTR _pIPacket$1$[ebp]
  00365	51		 push	 ecx
  00366	8b 01		 mov	 eax, DWORD PTR [ecx]
  00368	ff 50 08	 call	 DWORD PTR [eax+8]
$LN19@OnDrdsAdvi:

; 312  : 				}//end of if(pPacket)
; 313  : 			}//end of if(!strRealKey...
; 314  : 			bFullReturn = bFullReturn && bRsiReturn;

  0036b	83 7d f0 00	 cmp	 DWORD PTR _bFullReturn$1$[ebp], 0
  0036f	74 0d		 je	 SHORT $LN30@OnDrdsAdvi
  00371	83 7d e4 00	 cmp	 DWORD PTR _bRsiReturn$1$[ebp], 0
  00375	c7 45 f0 01 00
	00 00		 mov	 DWORD PTR _bFullReturn$1$[ebp], 1
  0037c	75 07		 jne	 SHORT $LN31@OnDrdsAdvi
$LN30@OnDrdsAdvi:
  0037e	c7 45 f0 00 00
	00 00		 mov	 DWORD PTR _bFullReturn$1$[ebp], 0
$LN31@OnDrdsAdvi:
; File D:\git\src\IBK\IBK_DRFN\ProjSrc\SrcChartEx\ChartOCX\AddInManager\Include_AddIn\I000000\_IString.h

; 44   : 	{

  00385	c7 45 fc 02 00
	00 00		 mov	 DWORD PTR __$EHRec$[ebp+8], 2

; 45   : 		if( m_pIStrData)

  0038c	85 db		 test	 ebx, ebx
  0038e	74 14		 je	 SHORT $LN104@OnDrdsAdvi

; 46   : 		{
; 47   : 			m_pIStrData->Release();

  00390	8b 03		 mov	 eax, DWORD PTR [ebx]
  00392	53		 push	 ebx
  00393	ff 50 08	 call	 DWORD PTR [eax+8]

; 48   : 			m_pIStrData = NULL;

  00396	c7 45 c4 00 00
	00 00		 mov	 DWORD PTR _szRealKeyCode$2[ebp+4], 0

; 49   : 			m_szData = NULL;

  0039d	c7 45 c0 00 00
	00 00		 mov	 DWORD PTR _szRealKeyCode$2[ebp], 0
$LN104@OnDrdsAdvi:

; 50   : 		}
; 51   : 	}

  003a4	c7 45 fc ff ff
	ff ff		 mov	 DWORD PTR __$EHRec$[ebp+8], -1
$LN112@OnDrdsAdvi:
; File D:\git\src\IBK\IBK_DRFN\ProjSrc\SrcChartEx\ChartOCX\AddInManager\ChartCommonAddIn\DrdsRealReceiverAddInImp.cpp

; 275  : 		while( posRSI)

  003ab	8b 45 cc	 mov	 eax, DWORD PTR _posRSI$1$[ebp]
  003ae	85 c0		 test	 eax, eax
  003b0	0f 85 3e fe ff
	ff		 jne	 $LL4@OnDrdsAdvi
$LN5@OnDrdsAdvi:

; 260  : 	while( posRsiPacketGroup) 

  003b6	8b 4d c8	 mov	 ecx, DWORD PTR _posRsiPacketGroup$1$[ebp]
  003b9	85 c9		 test	 ecx, ecx
  003bb	0f 85 97 fd ff
	ff		 jne	 $LL118@OnDrdsAdvi
$LN3@OnDrdsAdvi:

; 315  : 		}//end of while(...
; 316  : 	}//end of while(...
; 317  : 
; 318  : 	if( m_bOnNMTR)

  003c1	83 be 34 01 00
	00 00		 cmp	 DWORD PTR [esi+308], 0
  003c8	74 3d		 je	 SHORT $LN23@OnDrdsAdvi

; 319  : 	{
; 320  : 		// (2004.12.01, )      Packet      .
; 321  : 		m_plDrdsAdvisedInfoList->SetPacketReceivedFlag( _CHART_CLOCK_REAL_PACKET, _CHART_CLOCK_REAL_KEYCODE);

  003ca	8b 8e 30 01 00
	00		 mov	 ecx, DWORD PTR [esi+304]
  003d0	68 00 00 00 00	 push	 OFFSET ??_C@_04JDPKJLKG@0000@
  003d5	68 00 00 00 00	 push	 OFFSET ??_C@_03JLKODOKA@JS0@
  003da	e8 00 00 00 00	 call	 ?SetPacketReceivedFlag@CDrdsAdvisedInfoList@@QAEHPBD0@Z ; CDrdsAdvisedInfoList::SetPacketReceivedFlag

; 322  : 		// (2004.12.01, )      ,   Data  .
; 323  : 		IPacket *pIPacket = m_pIDefaultPacketManager->GetPacket( _MTEXT( C0_DATE_TIME));

  003df	8b 4e 20	 mov	 ecx, DWORD PTR [esi+32]
  003e2	a1 54 00 00 00	 mov	 eax, DWORD PTR ?g_iMetaTable@@3VIMetaTable@@A+84
  003e7	8b 11		 mov	 edx, DWORD PTR [ecx]
  003e9	ff 30		 push	 DWORD PTR [eax]
  003eb	ff 52 10	 call	 DWORD PTR [edx+16]
  003ee	8b f8		 mov	 edi, eax

; 324  : 		if( pIPacket)

  003f0	85 ff		 test	 edi, edi
  003f2	74 13		 je	 SHORT $LN23@OnDrdsAdvi

; 325  : 		{
; 326  : 			m_nTimeDataCount = pIPacket->GetDataCount();

  003f4	8b 17		 mov	 edx, DWORD PTR [edi]
  003f6	8b cf		 mov	 ecx, edi
  003f8	ff 52 2c	 call	 DWORD PTR [edx+44]
  003fb	89 86 38 01 00
	00		 mov	 DWORD PTR [esi+312], eax

; 327  : 			pIPacket->Release();

  00401	8b 0f		 mov	 ecx, DWORD PTR [edi]
  00403	57		 push	 edi
  00404	ff 51 08	 call	 DWORD PTR [ecx+8]
$LN23@OnDrdsAdvi:

; 328  : 		}
; 329  : 	}
; 330  : 
; 331  : 	return bFullReturn;

  00407	8b 45 f0	 mov	 eax, DWORD PTR _bFullReturn$1$[ebp]

; 332  : }

  0040a	8b 4d f4	 mov	 ecx, DWORD PTR __$EHRec$[ebp]
  0040d	64 89 0d 00 00
	00 00		 mov	 DWORD PTR fs:0, ecx
  00414	59		 pop	 ecx
  00415	5f		 pop	 edi
  00416	5e		 pop	 esi
  00417	5b		 pop	 ebx
  00418	8b e5		 mov	 esp, ebp
  0041a	5d		 pop	 ebp
  0041b	c2 04 00	 ret	 4
$LN8@OnDrdsAdvi:

; 226  : 	if( !m_plRealSettingInfoList || !m_plDrdsAdvisedInfoList) return FALSE;

  0041e	33 c0		 xor	 eax, eax

; 332  : }

  00420	8b 4d f4	 mov	 ecx, DWORD PTR __$EHRec$[ebp]
  00423	64 89 0d 00 00
	00 00		 mov	 DWORD PTR fs:0, ecx
  0042a	59		 pop	 ecx
  0042b	5f		 pop	 edi
  0042c	5e		 pop	 esi
  0042d	5b		 pop	 ebx
  0042e	8b e5		 mov	 esp, ebp
  00430	5d		 pop	 ebp
  00431	c2 04 00	 ret	 4
_TEXT	ENDS
;	COMDAT text$x
text$x	SEGMENT
__unwindfunclet$?OnDrdsAdvise@CDrdsRealReceiverAddInImp@@IAEHPBD@Z$0:
  00000	8d 4d e4	 lea	 ecx, DWORD PTR _strShareName$7[ebp]
  00003	ff 25 00 00 00
	00		 jmp	 DWORD PTR __imp_??1?$CStringT@DV?$StrTraitMFC_DLL@DV?$ChTraitsCRT@D@ATL@@@@@ATL@@QAE@XZ
__unwindfunclet$?OnDrdsAdvise@CDrdsRealReceiverAddInImp@@IAEHPBD@Z$1:
  00009	8d 4d c0	 lea	 ecx, DWORD PTR _szRealKeyCode$2[ebp]
  0000c	e9 00 00 00 00	 jmp	 ??1ILPCSTR000000@@QAE@XZ ; ILPCSTR000000::~ILPCSTR000000
  00011	cc		 int	 3
  00012	cc		 int	 3
  00013	cc		 int	 3
  00014	cc		 int	 3
  00015	cc		 int	 3
__ehhandler$?OnDrdsAdvise@CDrdsRealReceiverAddInImp@@IAEHPBD@Z:
  00016	90		 npad	 1
  00017	90		 npad	 1
  00018	8b 54 24 08	 mov	 edx, DWORD PTR [esp+8]
  0001c	8d 42 0c	 lea	 eax, DWORD PTR [edx+12]
  0001f	8b 4a bc	 mov	 ecx, DWORD PTR [edx-68]
  00022	33 c8		 xor	 ecx, eax
  00024	e8 00 00 00 00	 call	 @__security_check_cookie@4
  00029	b8 00 00 00 00	 mov	 eax, OFFSET __ehfuncinfo$?OnDrdsAdvise@CDrdsRealReceiverAddInImp@@IAEHPBD@Z
  0002e	e9 00 00 00 00	 jmp	 ___CxxFrameHandler3
text$x	ENDS
?OnDrdsAdvise@CDrdsRealReceiverAddInImp@@IAEHPBD@Z ENDP	; CDrdsRealReceiverAddInImp::OnDrdsAdvise
; Function compile flags: /Ogtp
; File D:\git\src\IBK\IBK_DRFN\ProjSrc\SrcChartEx\ChartOCX\AddInManager\ChartCommonAddIn\DrdsRealReceiverAddInImp.cpp
; File C:\Program Files (x86)\Microsoft Visual Studio\2019\Community\VC\Tools\MSVC\14.29.30133\atlmfc\include\afxcoll.inl
; File D:\git\src\IBK\IBK_DRFN\ProjSrc\SrcChartEx\ChartOCX\AddInManager\ChartCommonAddIn\DrdsRealReceiverAddInImp.cpp
; File C:\Program Files (x86)\Microsoft Visual Studio\2019\Community\VC\Tools\MSVC\14.29.30133\atlmfc\include\afxcoll.inl
; File D:\git\src\IBK\IBK_DRFN\ProjSrc\SrcChartEx\ChartOCX\AddInManager\ChartCommonAddIn\DrdsRealReceiverAddInImp.cpp
; File C:\Program Files (x86)\Microsoft Visual Studio\2019\Community\VC\Tools\MSVC\14.29.30133\atlmfc\include\afxcoll.inl
; File D:\git\src\IBK\IBK_DRFN\ProjSrc\SrcChartEx\ChartOCX\AddInManager\ChartCommonAddIn\DrdsRealReceiverAddInImp.cpp
; File C:\Program Files (x86)\Microsoft Visual Studio\2019\Community\VC\Tools\MSVC\14.29.30133\atlmfc\include\afxcoll.inl
; File D:\git\src\IBK\IBK_DRFN\ProjSrc\SrcChartEx\ChartOCX\AddInManager\ChartCommonAddIn\DrdsRealReceiverAddInImp.cpp
; File C:\Program Files (x86)\Microsoft Visual Studio\2019\Community\VC\Tools\MSVC\14.29.30133\atlmfc\include\atlsimpstr.h
; File D:\git\src\IBK\IBK_DRFN\ProjSrc\SrcChartEx\ChartOCX\AddInManager\ChartCommonAddIn\DrdsRealReceiverAddInImp.cpp
; File C:\Program Files (x86)\Microsoft Visual Studio\2019\Community\VC\Tools\MSVC\14.29.30133\atlmfc\include\afxwin2.inl
; File D:\git\src\IBK\IBK_DRFN\ProjSrc\SrcChartEx\ChartOCX\AddInManager\ChartCommonAddIn\DrdsRealReceiverAddInImp.cpp
; File D:\git\src\IBK\IBK_DRFN\ProjSrc\SrcChartEx\ChartOCX\Include\LoadDrds.h
; File D:\git\src\IBK\IBK_DRFN\ProjSrc\SrcChartEx\ChartOCX\AddInManager\ChartCommonAddIn\DrdsRealReceiverAddInImp.cpp
; File C:\Program Files (x86)\Microsoft Visual Studio\2019\Community\VC\Tools\MSVC\14.29.30133\atlmfc\include\atlsimpstr.h
; File D:\git\src\IBK\IBK_DRFN\ProjSrc\SrcChartEx\ChartOCX\AddInManager\ChartCommonAddIn\DrdsRealReceiverAddInImp.cpp
; File C:\Program Files (x86)\Microsoft Visual Studio\2019\Community\VC\Tools\MSVC\14.29.30133\atlmfc\include\atlsimpstr.h
; File D:\git\src\IBK\IBK_DRFN\ProjSrc\SrcChartEx\ChartOCX\AddInManager\ChartCommonAddIn\DrdsRealReceiverAddInImp.cpp
; File D:\git\src\IBK\IBK_DRFN\ProjSrc\SrcChartEx\ChartOCX\AddInManager\ChartCommonAddIn\DaiCodeGroup.h
; File D:\git\src\IBK\IBK_DRFN\ProjSrc\SrcChartEx\ChartOCX\AddInManager\ChartCommonAddIn\DrdsRealReceiverAddInImp.cpp
; File D:\git\src\IBK\IBK_DRFN\ProjSrc\SrcChartEx\ChartOCX\AddInManager\ChartCommonAddIn\DaiCodeGroup.h
; File D:\git\src\IBK\IBK_DRFN\ProjSrc\SrcChartEx\ChartOCX\AddInManager\ChartCommonAddIn\DrdsRealReceiverAddInImp.cpp
; File C:\Program Files (x86)\Microsoft Visual Studio\2019\Community\VC\Tools\MSVC\14.29.30133\atlmfc\include\atlsimpstr.h
; File D:\git\src\IBK\IBK_DRFN\ProjSrc\SrcChartEx\ChartOCX\AddInManager\ChartCommonAddIn\DrdsRealReceiverAddInImp.cpp
; File C:\Program Files (x86)\Microsoft Visual Studio\2019\Community\VC\Tools\MSVC\14.29.30133\atlmfc\include\afxwin2.inl
; File D:\git\src\IBK\IBK_DRFN\ProjSrc\SrcChartEx\ChartOCX\Include\LoadDrds.h
; File D:\git\src\IBK\IBK_DRFN\ProjSrc\SrcChartEx\ChartOCX\AddInManager\ChartCommonAddIn\DrdsRealReceiverAddInImp.cpp
; File D:\git\src\IBK\IBK_DRFN\ProjSrc\SrcChartEx\ChartOCX\Include\LoadDrds.h
; File D:\git\src\IBK\IBK_DRFN\ProjSrc\SrcChartEx\ChartOCX\AddInManager\ChartCommonAddIn\DrdsRealReceiverAddInImp.cpp
; File D:\git\src\IBK\IBK_DRFN\ProjSrc\SrcChartEx\ChartOCX\Include\LoadDrds.h
; File D:\git\src\IBK\IBK_DRFN\ProjSrc\SrcChartEx\ChartOCX\AddInManager\ChartCommonAddIn\DrdsRealReceiverAddInImp.cpp
;	COMDAT ?OffDrdsAdvise@CDrdsRealReceiverAddInImp@@IAEHPBD@Z
_TEXT	SEGMENT
_posDaiCodeGroup$1$ = -56				; size = 4
_posRemove$1$ = -52					; size = 4
_pDrds$1$ = -48						; size = 4
_id$1$ = -44						; size = 4
$T2 = -40						; size = 4
$T3 = -36						; size = 4
_posDaiPacketGroup$1$ = -32				; size = 4
$T4 = -28						; size = 4
_bFullReturn$1$ = -28					; size = 4
_pNode$1$ = -24						; size = 4
_pDaiCodeGroup$1$ = -20					; size = 4
_this$1$ = -16						; size = 4
__$EHRec$ = -12						; size = 12
_strShareName$5 = 8					; size = 4
_lpszRQ$ = 8						; size = 4
?OffDrdsAdvise@CDrdsRealReceiverAddInImp@@IAEHPBD@Z PROC ; CDrdsRealReceiverAddInImp::OffDrdsAdvise, COMDAT
; _this$ = ecx

; 336  : {

  00000	55		 push	 ebp
  00001	8b ec		 mov	 ebp, esp
  00003	6a ff		 push	 -1
  00005	68 00 00 00 00	 push	 __ehhandler$?OffDrdsAdvise@CDrdsRealReceiverAddInImp@@IAEHPBD@Z
  0000a	64 a1 00 00 00
	00		 mov	 eax, DWORD PTR fs:0
  00010	50		 push	 eax
  00011	83 ec 2c	 sub	 esp, 44			; 0000002cH
  00014	53		 push	 ebx
  00015	56		 push	 esi
  00016	57		 push	 edi
  00017	a1 00 00 00 00	 mov	 eax, DWORD PTR ___security_cookie
  0001c	33 c5		 xor	 eax, ebp
  0001e	50		 push	 eax
  0001f	8d 45 f4	 lea	 eax, DWORD PTR __$EHRec$[ebp]
  00022	64 a3 00 00 00
	00		 mov	 DWORD PTR fs:0, eax
  00028	8b c1		 mov	 eax, ecx
  0002a	89 45 f0	 mov	 DWORD PTR _this$1$[ebp], eax

; 337  : 	if( !m_pIChartOCX->IsRuntimeMode()) return FALSE;

  0002d	8b 48 0c	 mov	 ecx, DWORD PTR [eax+12]
  00030	8b 01		 mov	 eax, DWORD PTR [ecx]
  00032	ff 90 98 00 00
	00		 call	 DWORD PTR [eax+152]
  00038	85 c0		 test	 eax, eax
  0003a	0f 84 9d 02 00
	00		 je	 $LN10@OffDrdsAdv

; 338  : 	if( m_DrdsDLL.m_hLib == NULL || m_DrdsVoid == NULL) return FALSE;

  00040	8b 55 f0	 mov	 edx, DWORD PTR _this$1$[ebp]
  00043	83 ba 24 01 00
	00 00		 cmp	 DWORD PTR [edx+292], 0
  0004a	0f 84 8d 02 00
	00		 je	 $LN10@OffDrdsAdv
  00050	83 ba 20 01 00
	00 00		 cmp	 DWORD PTR [edx+288], 0
  00057	0f 84 80 02 00
	00		 je	 $LN10@OffDrdsAdv

; 339  : 	if( !m_plDrdsAdvisedInfoList) return FALSE;

  0005d	8b 82 30 01 00
	00		 mov	 eax, DWORD PTR [edx+304]
  00063	85 c0		 test	 eax, eax
  00065	0f 84 72 02 00
	00		 je	 $LN10@OffDrdsAdv

; 340  : 
; 341  : 	BOOL bFullReturn = TRUE;
; 342  : 	// RQ DRDS :  - ojtaso (20070111)
; 343  : 	POSITION posRemove = NULL;
; 344  : 	POSITION posDaiPacketGroup = m_plDrdsAdvisedInfoList->GetHeadPosition();

  0006b	8b 58 04	 mov	 ebx, DWORD PTR [eax+4]
  0006e	be 01 00 00 00	 mov	 esi, 1

; 345  : 	while( posDaiPacketGroup) 

  00073	85 db		 test	 ebx, ebx
  00075	0f 84 d3 01 00
	00		 je	 $LN3@OffDrdsAdv
  0007b	0f 1f 44 00 00	 npad	 5
$LL2@OffDrdsAdv:
; File C:\Program Files (x86)\Microsoft Visual Studio\2019\Community\VC\Tools\MSVC\14.29.30133\atlmfc\include\afxcoll.inl

; 428  : 	{ CNode* pNode = (CNode*) rPosition;

  00080	8b cb		 mov	 ecx, ebx

; 432  : 		rPosition = (POSITION) pNode->pNext;

  00082	8b 1b		 mov	 ebx, DWORD PTR [ebx]
  00084	89 4d e8	 mov	 DWORD PTR _pNode$1$[ebp], ecx
  00087	89 5d e0	 mov	 DWORD PTR _posDaiPacketGroup$1$[ebp], ebx
; File D:\git\src\IBK\IBK_DRFN\ProjSrc\SrcChartEx\ChartOCX\AddInManager\ChartCommonAddIn\DrdsRealReceiverAddInImp.cpp

; 349  : 		if(!pDaiPacketGroup)

  0008a	8b 41 08	 mov	 eax, DWORD PTR [ecx+8]
  0008d	85 c0		 test	 eax, eax
  0008f	0f 84 b1 01 00
	00		 je	 $LN25@OffDrdsAdv

; 350  : 			continue;
; 351  : 
; 352  : 		POSITION posDaiCodeGroup = pDaiPacketGroup->GetHeadPosition();

  00095	8b 78 0c	 mov	 edi, DWORD PTR [eax+12]

; 353  : 		while( posDaiCodeGroup)

  00098	85 ff		 test	 edi, edi
  0009a	0f 84 56 01 00
	00		 je	 $LN5@OffDrdsAdv
$LL4@OffDrdsAdv:

; 355  : 			CDaiCodeGroup *pDaiCodeGroup = pDaiPacketGroup->GetNext( posDaiCodeGroup);

  000a0	8b 4f 08	 mov	 ecx, DWORD PTR [edi+8]
; File C:\Program Files (x86)\Microsoft Visual Studio\2019\Community\VC\Tools\MSVC\14.29.30133\atlmfc\include\afxcoll.inl

; 432  : 		rPosition = (POSITION) pNode->pNext;

  000a3	8b 3f		 mov	 edi, DWORD PTR [edi]
  000a5	89 7d c8	 mov	 DWORD PTR _posDaiCodeGroup$1$[ebp], edi
; File D:\git\src\IBK\IBK_DRFN\ProjSrc\SrcChartEx\ChartOCX\AddInManager\ChartCommonAddIn\DrdsRealReceiverAddInImp.cpp

; 355  : 			CDaiCodeGroup *pDaiCodeGroup = pDaiPacketGroup->GetNext( posDaiCodeGroup);

  000a8	89 4d ec	 mov	 DWORD PTR _pDaiCodeGroup$1$[ebp], ecx

; 356  : 			if(!pDaiCodeGroup)

  000ab	85 c9		 test	 ecx, ecx
  000ad	0f 84 38 01 00
	00		 je	 $LN7@OffDrdsAdv

; 357  : 				continue;
; 358  : 
; 359  : 			POSITION posDAI = pDaiCodeGroup->GetHeadPosition();

  000b3	8b 59 0c	 mov	 ebx, DWORD PTR [ecx+12]

; 360  : 			while( posDAI)

  000b6	85 db		 test	 ebx, ebx
  000b8	0f 84 2d 01 00
	00		 je	 $LN7@OffDrdsAdv
  000be	66 90		 npad	 2
$LL6@OffDrdsAdv:
; File C:\Program Files (x86)\Microsoft Visual Studio\2019\Community\VC\Tools\MSVC\14.29.30133\atlmfc\include\afxcoll.inl

; 428  : 	{ CNode* pNode = (CNode*) rPosition;

  000c0	8b fb		 mov	 edi, ebx
; File D:\git\src\IBK\IBK_DRFN\ProjSrc\SrcChartEx\ChartOCX\AddInManager\ChartCommonAddIn\DrdsRealReceiverAddInImp.cpp

; 363  : 				posRemove = posDAI;

  000c2	89 5d cc	 mov	 DWORD PTR _posRemove$1$[ebp], ebx
; File C:\Program Files (x86)\Microsoft Visual Studio\2019\Community\VC\Tools\MSVC\14.29.30133\atlmfc\include\afxcoll.inl

; 432  : 		rPosition = (POSITION) pNode->pNext;

  000c5	8b 1b		 mov	 ebx, DWORD PTR [ebx]
; File D:\git\src\IBK\IBK_DRFN\ProjSrc\SrcChartEx\ChartOCX\AddInManager\ChartCommonAddIn\DrdsRealReceiverAddInImp.cpp

; 367  : 				if(!pDAI)

  000c7	8b 47 08	 mov	 eax, DWORD PTR [edi+8]
  000ca	85 c0		 test	 eax, eax
  000cc	0f 84 0e 01 00
	00		 je	 $LN96@OffDrdsAdv

; 368  : 					continue;
; 369  : 
; 370  : 				// RQ DRDS  :  - ojtaso (20070111)
; 371  : 				if(lpszRQ)

  000d2	83 7d 08 00	 cmp	 DWORD PTR _lpszRQ$[ebp], 0
  000d6	74 1a		 je	 SHORT $LN16@OffDrdsAdv

; 373  : 					if(::lstrcmp(pDAI->m_lpszRQ, lpszRQ))

  000d8	ff 75 08	 push	 DWORD PTR _lpszRQ$[ebp]
  000db	ff 70 0c	 push	 DWORD PTR [eax+12]
  000de	ff 15 00 00 00
	00		 call	 DWORD PTR __imp__lstrcmpA@8
  000e4	8b 55 f0	 mov	 edx, DWORD PTR _this$1$[ebp]
  000e7	8b 4d ec	 mov	 ecx, DWORD PTR _pDaiCodeGroup$1$[ebp]
  000ea	85 c0		 test	 eax, eax
  000ec	0f 85 ee 00 00
	00		 jne	 $LN96@OffDrdsAdv
$LN16@OffDrdsAdv:

; 377  : 				bFullReturn = bFullReturn && m_DrdsDLL.DrdsUnadvise( 

  000f2	85 f6		 test	 esi, esi
  000f4	74 7d		 je	 SHORT $LN20@OffDrdsAdv
; File C:\Program Files (x86)\Microsoft Visual Studio\2019\Community\VC\Tools\MSVC\14.29.30133\atlmfc\include\atlsimpstr.h

; 377  : 		return( m_pszData );

  000f6	8b 41 04	 mov	 eax, DWORD PTR [ecx+4]
  000f9	8b 4f 08	 mov	 ecx, DWORD PTR [edi+8]
  000fc	89 45 e4	 mov	 DWORD PTR $T4[ebp], eax
  000ff	8b 41 08	 mov	 eax, DWORD PTR [ecx+8]
  00102	89 45 dc	 mov	 DWORD PTR $T3[ebp], eax
  00105	8b 45 e8	 mov	 eax, DWORD PTR _pNode$1$[ebp]
  00108	8b 40 08	 mov	 eax, DWORD PTR [eax+8]
  0010b	8b 40 04	 mov	 eax, DWORD PTR [eax+4]
  0010e	89 45 d8	 mov	 DWORD PTR $T2[ebp], eax
; File D:\git\src\IBK\IBK_DRFN\ProjSrc\SrcChartEx\ChartOCX\AddInManager\ChartCommonAddIn\DrdsRealReceiverAddInImp.cpp

; 377  : 				bFullReturn = bFullReturn && m_DrdsDLL.DrdsUnadvise( 

  00111	8b 42 10	 mov	 eax, DWORD PTR [edx+16]
; File C:\Program Files (x86)\Microsoft Visual Studio\2019\Community\VC\Tools\MSVC\14.29.30133\atlmfc\include\afxwin2.inl

; 25   : 	{ return this == NULL ? NULL : m_hWnd; }

  00114	85 c0		 test	 eax, eax
  00116	75 04		 jne	 SHORT $LN60@OffDrdsAdv
  00118	33 f6		 xor	 esi, esi
  0011a	eb 03		 jmp	 SHORT $LN61@OffDrdsAdv
$LN60@OffDrdsAdv:
  0011c	8b 70 20	 mov	 esi, DWORD PTR [eax+32]
$LN61@OffDrdsAdv:
; File D:\git\src\IBK\IBK_DRFN\ProjSrc\SrcChartEx\ChartOCX\AddInManager\ChartCommonAddIn\DrdsRealReceiverAddInImp.cpp

; 377  : 				bFullReturn = bFullReturn && m_DrdsDLL.DrdsUnadvise( 

  0011f	8b 41 04	 mov	 eax, DWORD PTR [ecx+4]
  00122	89 45 d4	 mov	 DWORD PTR _id$1$[ebp], eax
  00125	8b 82 20 01 00
	00		 mov	 eax, DWORD PTR [edx+288]
  0012b	89 45 d0	 mov	 DWORD PTR _pDrds$1$[ebp], eax
; File D:\git\src\IBK\IBK_DRFN\ProjSrc\SrcChartEx\ChartOCX\Include\LoadDrds.h

; 239  : 		if(!m_hLib) return FALSE;

  0012e	8b 82 24 01 00
	00		 mov	 eax, DWORD PTR [edx+292]
  00134	85 c0		 test	 eax, eax
  00136	74 3b		 je	 SHORT $LN20@OffDrdsAdv

; 240  : 		Drds_Unadvise fnDrdsUnadvise;
; 241  : 
; 242  : 		fnDrdsUnadvise = (Drds_Unadvise)::GetProcAddress(m_hLib,"DrdsUnadvise");

  00138	68 00 00 00 00	 push	 OFFSET ??_C@_0N@IFDMNOKK@DrdsUnadvise@
  0013d	50		 push	 eax
  0013e	ff 15 00 00 00
	00		 call	 DWORD PTR __imp__GetProcAddress@8

; 243  : 
; 244  : 
; 245  : 		if(fnDrdsUnadvise == NULL)

  00144	85 c0		 test	 eax, eax
  00146	75 0e		 jne	 SHORT $LN64@OffDrdsAdv

; 246  : 		{
; 247  : 			AfxMessageBox("DrdsUnadvise() is not found.");

  00148	50		 push	 eax
  00149	50		 push	 eax
  0014a	68 00 00 00 00	 push	 OFFSET ??_C@_0BN@NAGNLNAF@DrdsUnadvise?$CI?$CJ?5is?5not?5found?4@
  0014f	e8 00 00 00 00	 call	 ?AfxMessageBox@@YGHPBDII@Z ; AfxMessageBox

; 248  : 			return FALSE;

  00154	eb 1d		 jmp	 SHORT $LN20@OffDrdsAdv
$LN64@OffDrdsAdv:

; 249  : 		}
; 250  : 
; 251  : 		BOOL bResult; 
; 252  : 		bResult = fnDrdsUnadvise(pDrds,hWnd,id,DataName,FieldName, KeyName);

  00156	ff 75 e4	 push	 DWORD PTR $T4[ebp]
  00159	ff 75 dc	 push	 DWORD PTR $T3[ebp]
  0015c	ff 75 d8	 push	 DWORD PTR $T2[ebp]
  0015f	ff 75 d4	 push	 DWORD PTR _id$1$[ebp]
  00162	56		 push	 esi
  00163	ff 75 d0	 push	 DWORD PTR _pDrds$1$[ebp]
  00166	ff d0		 call	 eax
; File D:\git\src\IBK\IBK_DRFN\ProjSrc\SrcChartEx\ChartOCX\AddInManager\ChartCommonAddIn\DrdsRealReceiverAddInImp.cpp

; 377  : 				bFullReturn = bFullReturn && m_DrdsDLL.DrdsUnadvise( 

  00168	c7 45 e4 01 00
	00 00		 mov	 DWORD PTR _bFullReturn$1$[ebp], 1
  0016f	85 c0		 test	 eax, eax
  00171	75 07		 jne	 SHORT $LN21@OffDrdsAdv
$LN20@OffDrdsAdv:
  00173	c7 45 e4 00 00
	00 00		 mov	 DWORD PTR _bFullReturn$1$[ebp], 0
$LN21@OffDrdsAdv:

; 386  : 				if( m_pIChartOCX->IsInLogging()) m_pIAddInToolMgr->OnAddInToolCommand( EAI_LOG_DRDS_UNADVISE, 

  0017a	8b 45 f0	 mov	 eax, DWORD PTR _this$1$[ebp]
  0017d	8b 48 0c	 mov	 ecx, DWORD PTR [eax+12]
  00180	8b 01		 mov	 eax, DWORD PTR [ecx]
  00182	ff 90 cc 00 00
	00		 call	 DWORD PTR [eax+204]
  00188	85 c0		 test	 eax, eax
  0018a	74 28		 je	 SHORT $LN17@OffDrdsAdv
  0018c	8b 75 ec	 mov	 esi, DWORD PTR _pDaiCodeGroup$1$[ebp]
; File C:\Program Files (x86)\Microsoft Visual Studio\2019\Community\VC\Tools\MSVC\14.29.30133\atlmfc\include\atlsimpstr.h

; 377  : 		return( m_pszData );

  0018f	8b 45 e8	 mov	 eax, DWORD PTR _pNode$1$[ebp]
; File D:\git\src\IBK\IBK_DRFN\ProjSrc\SrcChartEx\ChartOCX\AddInManager\ChartCommonAddIn\DrdsRealReceiverAddInImp.cpp

; 386  : 				if( m_pIChartOCX->IsInLogging()) m_pIAddInToolMgr->OnAddInToolCommand( EAI_LOG_DRDS_UNADVISE, 

  00192	8b 4d f0	 mov	 ecx, DWORD PTR _this$1$[ebp]
  00195	ff 76 04	 push	 DWORD PTR [esi+4]
  00198	8b 77 08	 mov	 esi, DWORD PTR [edi+8]
; File C:\Program Files (x86)\Microsoft Visual Studio\2019\Community\VC\Tools\MSVC\14.29.30133\atlmfc\include\atlsimpstr.h

; 377  : 		return( m_pszData );

  0019b	8b 40 08	 mov	 eax, DWORD PTR [eax+8]
; File D:\git\src\IBK\IBK_DRFN\ProjSrc\SrcChartEx\ChartOCX\AddInManager\ChartCommonAddIn\DrdsRealReceiverAddInImp.cpp

; 386  : 				if( m_pIChartOCX->IsInLogging()) m_pIAddInToolMgr->OnAddInToolCommand( EAI_LOG_DRDS_UNADVISE, 

  0019e	8b 49 2c	 mov	 ecx, DWORD PTR [ecx+44]
  001a1	ff 76 08	 push	 DWORD PTR [esi+8]
  001a4	ff 70 04	 push	 DWORD PTR [eax+4]
  001a7	8b 11		 mov	 edx, DWORD PTR [ecx]
  001a9	ff 76 04	 push	 DWORD PTR [esi+4]
  001ac	6a 15		 push	 21			; 00000015H
  001ae	ff 92 98 00 00
	00		 call	 DWORD PTR [edx+152]
$LN17@OffDrdsAdv:

; 387  : 							( long)pDAI->m_pIPacket,
; 388  : 							(LPSTR)(LPCTSTR)pDaiPacketGroup->m_strRealPacketName, 
; 389  : 							(LPSTR)(LPCTSTR)pDAI->m_strRealFieldName,
; 390  : 							(LPSTR)(LPCTSTR)pDaiCodeGroup->m_strRealKeyCode);
; 391  : 
; 392  : 				delete pDAI;

  001b4	8b 4f 08	 mov	 ecx, DWORD PTR [edi+8]
  001b7	85 c9		 test	 ecx, ecx
  001b9	74 07		 je	 SHORT $LN22@OffDrdsAdv
  001bb	8b 01		 mov	 eax, DWORD PTR [ecx]
  001bd	6a 01		 push	 1
  001bf	ff 50 04	 call	 DWORD PTR [eax+4]
$LN22@OffDrdsAdv:
; File D:\git\src\IBK\IBK_DRFN\ProjSrc\SrcChartEx\ChartOCX\AddInManager\ChartCommonAddIn\DaiCodeGroup.h

; 74   : 	void				RemoveAt( POSITION position)			{	m_lDaiCodeGroup.RemoveAt( position);			}

  001c2	8b 4d ec	 mov	 ecx, DWORD PTR _pDaiCodeGroup$1$[ebp]
  001c5	ff 75 cc	 push	 DWORD PTR _posRemove$1$[ebp]
; File D:\git\src\IBK\IBK_DRFN\ProjSrc\SrcChartEx\ChartOCX\AddInManager\ChartCommonAddIn\DrdsRealReceiverAddInImp.cpp

; 393  : 				pDAI = NULL;

  001c8	c7 47 08 00 00
	00 00		 mov	 DWORD PTR [edi+8], 0
; File D:\git\src\IBK\IBK_DRFN\ProjSrc\SrcChartEx\ChartOCX\AddInManager\ChartCommonAddIn\DaiCodeGroup.h

; 74   : 	void				RemoveAt( POSITION position)			{	m_lDaiCodeGroup.RemoveAt( position);			}

  001cf	8d 49 08	 lea	 ecx, DWORD PTR [ecx+8]
  001d2	e8 00 00 00 00	 call	 ?RemoveAt@CObList@@QAEXPAU__POSITION@@@Z ; CObList::RemoveAt
  001d7	8b 75 e4	 mov	 esi, DWORD PTR _bFullReturn$1$[ebp]
  001da	8b 55 f0	 mov	 edx, DWORD PTR _this$1$[ebp]
; File D:\git\src\IBK\IBK_DRFN\ProjSrc\SrcChartEx\ChartOCX\AddInManager\ChartCommonAddIn\DrdsRealReceiverAddInImp.cpp

; 373  : 					if(::lstrcmp(pDAI->m_lpszRQ, lpszRQ))

  001dd	8b 4d ec	 mov	 ecx, DWORD PTR _pDaiCodeGroup$1$[ebp]
$LN96@OffDrdsAdv:

; 360  : 			while( posDAI)

  001e0	85 db		 test	 ebx, ebx
  001e2	0f 85 d8 fe ff
	ff		 jne	 $LL6@OffDrdsAdv
  001e8	8b 7d c8	 mov	 edi, DWORD PTR _posDaiCodeGroup$1$[ebp]
$LN7@OffDrdsAdv:

; 353  : 		while( posDaiCodeGroup)

  001eb	85 ff		 test	 edi, edi
  001ed	0f 85 ad fe ff
	ff		 jne	 $LL4@OffDrdsAdv
  001f3	8b 4d e8	 mov	 ecx, DWORD PTR _pNode$1$[ebp]
$LN5@OffDrdsAdv:

; 399  : 		bFullReturn = bFullReturn && m_DrdsDLL.DrdsClose(m_DrdsVoid, m_pChartCWnd->GetSafeHwnd(), (LPSTR)(LPCTSTR)pDaiPacketGroup->m_strRealPacketName);

  001f6	85 f6		 test	 esi, esi
  001f8	74 44		 je	 SHORT $LN24@OffDrdsAdv
; File C:\Program Files (x86)\Microsoft Visual Studio\2019\Community\VC\Tools\MSVC\14.29.30133\atlmfc\include\atlsimpstr.h

; 377  : 		return( m_pszData );

  001fa	8b 41 08	 mov	 eax, DWORD PTR [ecx+8]
  001fd	8b 58 04	 mov	 ebx, DWORD PTR [eax+4]
; File D:\git\src\IBK\IBK_DRFN\ProjSrc\SrcChartEx\ChartOCX\AddInManager\ChartCommonAddIn\DrdsRealReceiverAddInImp.cpp

; 399  : 		bFullReturn = bFullReturn && m_DrdsDLL.DrdsClose(m_DrdsVoid, m_pChartCWnd->GetSafeHwnd(), (LPSTR)(LPCTSTR)pDaiPacketGroup->m_strRealPacketName);

  00200	8b 42 10	 mov	 eax, DWORD PTR [edx+16]
; File C:\Program Files (x86)\Microsoft Visual Studio\2019\Community\VC\Tools\MSVC\14.29.30133\atlmfc\include\afxwin2.inl

; 25   : 	{ return this == NULL ? NULL : m_hWnd; }

  00203	85 c0		 test	 eax, eax
  00205	75 04		 jne	 SHORT $LN78@OffDrdsAdv
  00207	33 f6		 xor	 esi, esi
  00209	eb 03		 jmp	 SHORT $LN79@OffDrdsAdv
$LN78@OffDrdsAdv:
  0020b	8b 70 20	 mov	 esi, DWORD PTR [eax+32]
$LN79@OffDrdsAdv:
; File D:\git\src\IBK\IBK_DRFN\ProjSrc\SrcChartEx\ChartOCX\Include\LoadDrds.h

; 188  : 		if(!m_hLib) return FALSE;

  0020e	8b 82 24 01 00
	00		 mov	 eax, DWORD PTR [edx+292]
; File D:\git\src\IBK\IBK_DRFN\ProjSrc\SrcChartEx\ChartOCX\AddInManager\ChartCommonAddIn\DrdsRealReceiverAddInImp.cpp

; 399  : 		bFullReturn = bFullReturn && m_DrdsDLL.DrdsClose(m_DrdsVoid, m_pChartCWnd->GetSafeHwnd(), (LPSTR)(LPCTSTR)pDaiPacketGroup->m_strRealPacketName);

  00214	8b ba 20 01 00
	00		 mov	 edi, DWORD PTR [edx+288]
; File D:\git\src\IBK\IBK_DRFN\ProjSrc\SrcChartEx\ChartOCX\Include\LoadDrds.h

; 188  : 		if(!m_hLib) return FALSE;

  0021a	85 c0		 test	 eax, eax
  0021c	74 20		 je	 SHORT $LN24@OffDrdsAdv

; 189  : 		Drds_Close fnDrdsClose;
; 190  : 		fnDrdsClose = (Drds_Close)::GetProcAddress(m_hLib,"DrdsClose");

  0021e	68 00 00 00 00	 push	 OFFSET ??_C@_09CECGPDMH@DrdsClose@
  00223	50		 push	 eax
  00224	ff 15 00 00 00
	00		 call	 DWORD PTR __imp__GetProcAddress@8

; 191  : 
; 192  : 		if(fnDrdsClose == NULL)

  0022a	85 c0		 test	 eax, eax
  0022c	0f 85 94 00 00
	00		 jne	 $LN82@OffDrdsAdv

; 193  : 		{
; 194  : 			AfxMessageBox("DrdsClose() is not found.");

  00232	50		 push	 eax
  00233	50		 push	 eax
  00234	68 00 00 00 00	 push	 OFFSET ??_C@_0BK@OOKKGPNJ@DrdsClose?$CI?$CJ?5is?5not?5found?4@
  00239	e8 00 00 00 00	 call	 ?AfxMessageBox@@YGHPBDII@Z ; AfxMessageBox
$LN24@OffDrdsAdv:
; File D:\git\src\IBK\IBK_DRFN\ProjSrc\SrcChartEx\ChartOCX\AddInManager\ChartCommonAddIn\DrdsRealReceiverAddInImp.cpp

; 399  : 		bFullReturn = bFullReturn && m_DrdsDLL.DrdsClose(m_DrdsVoid, m_pChartCWnd->GetSafeHwnd(), (LPSTR)(LPCTSTR)pDaiPacketGroup->m_strRealPacketName);

  0023e	33 f6		 xor	 esi, esi
$LN106@OffDrdsAdv:

; 345  : 	while( posDaiPacketGroup) 

  00240	8b 5d e0	 mov	 ebx, DWORD PTR _posDaiPacketGroup$1$[ebp]
  00243	8b 55 f0	 mov	 edx, DWORD PTR _this$1$[ebp]
$LN25@OffDrdsAdv:
  00246	85 db		 test	 ebx, ebx
  00248	0f 85 32 fe ff
	ff		 jne	 $LL2@OffDrdsAdv
$LN3@OffDrdsAdv:

; 400  : 	}
; 401  : 
; 402  : //	RQ DRDS :  - ojtaso (20070111)
; 403  : //	m_plDrdsAdvisedInfoList->RemoveAllDrdsAdvisedInfo();
; 404  : 
; 405  : 	// (2004.12.01, )    Real Advise   Real Setting Info Local Share Info   .
; 406  : 	//		!  Real  DRDS Advised Info Filltering   .
; 407  : 	if( m_bOnNMTR)

  0024e	83 ba 34 01 00
	00 00		 cmp	 DWORD PTR [edx+308], 0
  00255	74 59		 je	 SHORT $LN18@OffDrdsAdv

; 408  : 	{
; 409  : 		CString strShareName;

  00257	8d 4d 08	 lea	 ecx, DWORD PTR _strShareName$5[ebp]
  0025a	ff 15 00 00 00
	00		 call	 DWORD PTR __imp_??0?$CStringT@DV?$StrTraitMFC_DLL@DV?$ChTraitsCRT@D@ATL@@@@@ATL@@QAE@XZ

; 410  : 		m_plRealSettingInfoList->RemoveRealSettingInfo( _MTEXT( C0_DATE_TIME), _CHART_CLOCK_REAL_PACKET, _CHART_CLOCK_REAL_FIELD,

  00260	8b 5d f0	 mov	 ebx, DWORD PTR _this$1$[ebp]
  00263	8d 45 08	 lea	 eax, DWORD PTR _strShareName$5[ebp]
  00266	50		 push	 eax
  00267	a1 54 00 00 00	 mov	 eax, DWORD PTR ?g_iMetaTable@@3VIMetaTable@@A+84
  0026c	68 00 00 00 00	 push	 OFFSET ??_C@_04JDPKJLKG@0000@
  00271	8b 8b 2c 01 00
	00		 mov	 ecx, DWORD PTR [ebx+300]
  00277	68 00 00 00 00	 push	 OFFSET ??_C@_04CLCEDBPF@time@
  0027c	68 00 00 00 00	 push	 OFFSET ??_C@_03JLKODOKA@JS0@
  00281	ff 30		 push	 DWORD PTR [eax]
  00283	c7 45 fc 00 00
	00 00		 mov	 DWORD PTR __$EHRec$[ebp+8], 0
  0028a	e8 00 00 00 00	 call	 ?RemoveRealSettingInfo@CRealSettingInfoList@@QAEHPBD000PAV?$CStringT@DV?$StrTraitMFC_DLL@DV?$ChTraitsCRT@D@ATL@@@@@ATL@@@Z ; CRealSettingInfoList::RemoveRealSettingInfo

; 411  : 			_CHART_CLOCK_REAL_KEYCODE, &strShareName);
; 412  : 
; 413  : 		m_pIChartOCX->RemoveLocalShareInfo( strShareName);

  0028f	8b 4b 0c	 mov	 ecx, DWORD PTR [ebx+12]
  00292	ff 75 08	 push	 DWORD PTR _strShareName$5[ebp]
  00295	8b 11		 mov	 edx, DWORD PTR [ecx]
  00297	ff 92 60 01 00
	00		 call	 DWORD PTR [edx+352]

; 414  : 
; 415  : 		// (2004.12.01, ) OnDrdsAdvised() Real     Flag .
; 416  : 		//		OnDrdsAdvse()/OnDrdsData()/OnDrdsPacketEnd()/OffDrdsAdvised() .
; 417  : 		m_bOnNMTR = FALSE;
; 418  : 	}

  0029d	8d 4d 08	 lea	 ecx, DWORD PTR _strShareName$5[ebp]
  002a0	c7 83 34 01 00
	00 00 00 00 00	 mov	 DWORD PTR [ebx+308], 0
  002aa	ff 15 00 00 00
	00		 call	 DWORD PTR __imp_??1?$CStringT@DV?$StrTraitMFC_DLL@DV?$ChTraitsCRT@D@ATL@@@@@ATL@@QAE@XZ
$LN18@OffDrdsAdv:

; 419  : 
; 420  : 	return bFullReturn;

  002b0	8b c6		 mov	 eax, esi

; 421  : }

  002b2	8b 4d f4	 mov	 ecx, DWORD PTR __$EHRec$[ebp]
  002b5	64 89 0d 00 00
	00 00		 mov	 DWORD PTR fs:0, ecx
  002bc	59		 pop	 ecx
  002bd	5f		 pop	 edi
  002be	5e		 pop	 esi
  002bf	5b		 pop	 ebx
  002c0	8b e5		 mov	 esp, ebp
  002c2	5d		 pop	 ebp
  002c3	c2 04 00	 ret	 4
$LN82@OffDrdsAdv:
; File D:\git\src\IBK\IBK_DRFN\ProjSrc\SrcChartEx\ChartOCX\Include\LoadDrds.h

; 198  : 		bResult = fnDrdsClose(pDrds,hWnd,DataName);

  002c6	53		 push	 ebx
  002c7	56		 push	 esi
  002c8	57		 push	 edi
  002c9	ff d0		 call	 eax
; File D:\git\src\IBK\IBK_DRFN\ProjSrc\SrcChartEx\ChartOCX\AddInManager\ChartCommonAddIn\DrdsRealReceiverAddInImp.cpp

; 399  : 		bFullReturn = bFullReturn && m_DrdsDLL.DrdsClose(m_DrdsVoid, m_pChartCWnd->GetSafeHwnd(), (LPSTR)(LPCTSTR)pDaiPacketGroup->m_strRealPacketName);

  002cb	85 c0		 test	 eax, eax
  002cd	0f 84 6b ff ff
	ff		 je	 $LN24@OffDrdsAdv
  002d3	be 01 00 00 00	 mov	 esi, 1
  002d8	e9 63 ff ff ff	 jmp	 $LN106@OffDrdsAdv
$LN10@OffDrdsAdv:

; 338  : 	if( m_DrdsDLL.m_hLib == NULL || m_DrdsVoid == NULL) return FALSE;

  002dd	33 c0		 xor	 eax, eax

; 421  : }

  002df	8b 4d f4	 mov	 ecx, DWORD PTR __$EHRec$[ebp]
  002e2	64 89 0d 00 00
	00 00		 mov	 DWORD PTR fs:0, ecx
  002e9	59		 pop	 ecx
  002ea	5f		 pop	 edi
  002eb	5e		 pop	 esi
  002ec	5b		 pop	 ebx
  002ed	8b e5		 mov	 esp, ebp
  002ef	5d		 pop	 ebp
  002f0	c2 04 00	 ret	 4
_TEXT	ENDS
;	COMDAT text$x
text$x	SEGMENT
__unwindfunclet$?OffDrdsAdvise@CDrdsRealReceiverAddInImp@@IAEHPBD@Z$0:
  00000	8d 4d 08	 lea	 ecx, DWORD PTR _strShareName$5[ebp]
  00003	ff 25 00 00 00
	00		 jmp	 DWORD PTR __imp_??1?$CStringT@DV?$StrTraitMFC_DLL@DV?$ChTraitsCRT@D@ATL@@@@@ATL@@QAE@XZ
  00009	cc		 int	 3
  0000a	cc		 int	 3
  0000b	cc		 int	 3
  0000c	cc		 int	 3
  0000d	cc		 int	 3
__ehhandler$?OffDrdsAdvise@CDrdsRealReceiverAddInImp@@IAEHPBD@Z:
  0000e	90		 npad	 1
  0000f	90		 npad	 1
  00010	8b 54 24 08	 mov	 edx, DWORD PTR [esp+8]
  00014	8d 42 0c	 lea	 eax, DWORD PTR [edx+12]
  00017	8b 4a c4	 mov	 ecx, DWORD PTR [edx-60]
  0001a	33 c8		 xor	 ecx, eax
  0001c	e8 00 00 00 00	 call	 @__security_check_cookie@4
  00021	b8 00 00 00 00	 mov	 eax, OFFSET __ehfuncinfo$?OffDrdsAdvise@CDrdsRealReceiverAddInImp@@IAEHPBD@Z
  00026	e9 00 00 00 00	 jmp	 ___CxxFrameHandler3
text$x	ENDS
?OffDrdsAdvise@CDrdsRealReceiverAddInImp@@IAEHPBD@Z ENDP ; CDrdsRealReceiverAddInImp::OffDrdsAdvise
; Function compile flags: /Ogtp
; File D:\git\src\IBK\IBK_DRFN\ProjSrc\SrcChartEx\ChartOCX\AddInManager\ChartCommonAddIn\DrdsRealReceiverAddInImp.cpp
;	COMDAT ?RemoveRQPacket@CDrdsRealReceiverAddInImp@@MAEXPBD@Z
_TEXT	SEGMENT
_lpszRQ$ = 8						; size = 4
?RemoveRQPacket@CDrdsRealReceiverAddInImp@@MAEXPBD@Z PROC ; CDrdsRealReceiverAddInImp::RemoveRQPacket, COMDAT
; _this$ = ecx

; 507  : 	// (2007/2/13 - Seung-Won, Bae) Not Used.
; 508  : 	//	POSITION posDaiPacketGroup = m_plDrdsAdvisedInfoList->GetHeadPosition();
; 509  : 	//	POSITION posDaiCodeGroup = NULL;
; 510  : 	//	POSITION posDAI = NULL;
; 511  : 	//	while( posDaiPacketGroup) 
; 512  : 	//	{
; 513  : 	//		// (2006/4/3 - Seung-Won, Bae) Use Reference for Numega Memory Leak Checking.
; 514  : 	//		CDaiPacketGroup *&pDaiPacketGroup = m_plDrdsAdvisedInfoList->GetNext( posDaiPacketGroup);
; 515  : 	//		posDaiCodeGroup = pDaiPacketGroup->GetHeadPosition();
; 516  : 	//		while(posDaiCodeGroup)
; 517  : 	//		{
; 518  : 	//			CDaiCodeGroup*& pDaiCodeGroup = pDaiPacketGroup->GetNext(posDaiCodeGroup);
; 519  : 	//			posDAI = pDaiCodeGroup->GetHeadPosition();
; 520  : 	//			while(posDAI)
; 521  : 	//			{
; 522  : 	//				CDrdsAdvisedInfo*& pDrdsAdvisedInfo = pDaiCodeGroup->GetNext(posDAI);
; 523  : 	//				if( !::lstrcmp( pDrdsAdvisedInfo->m_lpszRQ, lpszRQ)) m_pIPacketListManager->RemovePacket( lpszRQ, pDrdsAdvisedInfo->m_pIPacket);
; 524  : 	//			}
; 525  : 	//		}
; 526  : 	//	}
; 527  : }

  00000	c2 04 00	 ret	 4
?RemoveRQPacket@CDrdsRealReceiverAddInImp@@MAEXPBD@Z ENDP ; CDrdsRealReceiverAddInImp::RemoveRQPacket
_TEXT	ENDS
; Function compile flags: /Ogtp
; File D:\git\src\IBK\IBK_DRFN\ProjSrc\SrcChartEx\ChartOCX\AddInManager\ChartCommonAddIn\DrdsRealReceiverAddInImp.cpp
;	COMDAT ?RemoveRealSettingInfoRQ@CDrdsRealReceiverAddInImp@@MAEHPBD0PAV?$CStringT@DV?$StrTraitMFC_DLL@DV?$ChTraitsCRT@D@ATL@@@@@ATL@@D@Z
_TEXT	SEGMENT
_lpszRQ$ = 8						; size = 4
_p_szRealSettingItem$ = 12				; size = 4
_p_pstrShareName$ = 16					; size = 4
_p_cSeparator$ = 20					; size = 1
?RemoveRealSettingInfoRQ@CDrdsRealReceiverAddInImp@@MAEHPBD0PAV?$CStringT@DV?$StrTraitMFC_DLL@DV?$ChTraitsCRT@D@ATL@@@@@ATL@@D@Z PROC ; CDrdsRealReceiverAddInImp::RemoveRealSettingInfoRQ, COMDAT
; _this$ = ecx

; 150  : {

  00000	55		 push	 ebp
  00001	8b ec		 mov	 ebp, esp
  00003	56		 push	 esi
  00004	8b f1		 mov	 esi, ecx

; 151  : 	if( !m_plRealSettingInfoList) return FALSE;

  00006	83 be ec 00 00
	00 00		 cmp	 DWORD PTR [esi+236], 0
  0000d	75 07		 jne	 SHORT $LN2@RemoveReal
  0000f	33 c0		 xor	 eax, eax
  00011	5e		 pop	 esi

; 154  : }

  00012	5d		 pop	 ebp
  00013	c2 10 00	 ret	 16			; 00000010H
$LN2@RemoveReal:

; 152  : 	_ML_TEST_NOT_USED();

  00016	6a 00		 push	 0
  00018	6a 00		 push	 0
  0001a	68 00 00 00 00	 push	 OFFSET ??_C@_0GD@FLBGJKHJ@I?5did?5not?5prepare?5this?5operatio@
  0001f	e8 00 00 00 00	 call	 ?AfxMessageBox@@YGHPBDII@Z ; AfxMessageBox

; 153  : 	return m_plRealSettingInfoList->RemoveRealSettingInfo(lpszRQ, p_szRealSettingItem, p_pstrShareName, p_cSeparator);

  00024	ff 75 14	 push	 DWORD PTR _p_cSeparator$[ebp]
  00027	8b 8e ec 00 00
	00		 mov	 ecx, DWORD PTR [esi+236]
  0002d	ff 75 10	 push	 DWORD PTR _p_pstrShareName$[ebp]
  00030	ff 75 0c	 push	 DWORD PTR _p_szRealSettingItem$[ebp]
  00033	ff 75 08	 push	 DWORD PTR _lpszRQ$[ebp]
  00036	e8 00 00 00 00	 call	 ?RemoveRealSettingInfo@CRealSettingInfoList@@QAEHPBD0PAV?$CStringT@DV?$StrTraitMFC_DLL@DV?$ChTraitsCRT@D@ATL@@@@@ATL@@D@Z ; CRealSettingInfoList::RemoveRealSettingInfo
  0003b	5e		 pop	 esi

; 154  : }

  0003c	5d		 pop	 ebp
  0003d	c2 10 00	 ret	 16			; 00000010H
?RemoveRealSettingInfoRQ@CDrdsRealReceiverAddInImp@@MAEHPBD0PAV?$CStringT@DV?$StrTraitMFC_DLL@DV?$ChTraitsCRT@D@ATL@@@@@ATL@@D@Z ENDP ; CDrdsRealReceiverAddInImp::RemoveRealSettingInfoRQ
_TEXT	ENDS
; Function compile flags: /Ogtp
; File D:\git\src\IBK\IBK_DRFN\ProjSrc\SrcChartEx\ChartOCX\AddInManager\ChartCommonAddIn\DrdsRealReceiverAddInImp.cpp
;	COMDAT ?AddRealSettingInfoRQ@CDrdsRealReceiverAddInImp@@MAEHPBD0PAV?$CStringT@DV?$StrTraitMFC_DLL@DV?$ChTraitsCRT@D@ATL@@@@@ATL@@1D@Z
_TEXT	SEGMENT
_lpszRQ$ = 8						; size = 4
_p_szRealSettingItem$ = 12				; size = 4
_p_pstrShareName$ = 16					; size = 4
_p_pstrSharedData$ = 20					; size = 4
_p_cSeparator$ = 24					; size = 1
?AddRealSettingInfoRQ@CDrdsRealReceiverAddInImp@@MAEHPBD0PAV?$CStringT@DV?$StrTraitMFC_DLL@DV?$ChTraitsCRT@D@ATL@@@@@ATL@@1D@Z PROC ; CDrdsRealReceiverAddInImp::AddRealSettingInfoRQ, COMDAT
; _this$ = ecx

; 129  : {

  00000	55		 push	 ebp
  00001	8b ec		 mov	 ebp, esp
  00003	56		 push	 esi
  00004	8b f1		 mov	 esi, ecx

; 130  : 	if( !m_plRealSettingInfoList) return FALSE;

  00006	83 be ec 00 00
	00 00		 cmp	 DWORD PTR [esi+236], 0
  0000d	75 07		 jne	 SHORT $LN2@AddRealSet
  0000f	33 c0		 xor	 eax, eax
  00011	5e		 pop	 esi

; 133  : }

  00012	5d		 pop	 ebp
  00013	c2 14 00	 ret	 20			; 00000014H
$LN2@AddRealSet:

; 131  : 	_ML_TEST_NOT_USED();

  00016	6a 00		 push	 0
  00018	6a 00		 push	 0
  0001a	68 00 00 00 00	 push	 OFFSET ??_C@_0GD@FLBGJKHJ@I?5did?5not?5prepare?5this?5operatio@
  0001f	e8 00 00 00 00	 call	 ?AfxMessageBox@@YGHPBDII@Z ; AfxMessageBox

; 132  : 	return m_plRealSettingInfoList->AddRealSettingInfo(lpszRQ, p_szRealSettingItem, p_pstrShareName, p_pstrSharedData, p_cSeparator);

  00024	ff 75 18	 push	 DWORD PTR _p_cSeparator$[ebp]
  00027	8b 8e ec 00 00
	00		 mov	 ecx, DWORD PTR [esi+236]
  0002d	ff 75 14	 push	 DWORD PTR _p_pstrSharedData$[ebp]
  00030	ff 75 10	 push	 DWORD PTR _p_pstrShareName$[ebp]
  00033	ff 75 0c	 push	 DWORD PTR _p_szRealSettingItem$[ebp]
  00036	ff 75 08	 push	 DWORD PTR _lpszRQ$[ebp]
  00039	e8 00 00 00 00	 call	 ?AddRealSettingInfo@CRealSettingInfoList@@QAEHPBD0PAV?$CStringT@DV?$StrTraitMFC_DLL@DV?$ChTraitsCRT@D@ATL@@@@@ATL@@1D@Z ; CRealSettingInfoList::AddRealSettingInfo
  0003e	5e		 pop	 esi

; 133  : }

  0003f	5d		 pop	 ebp
  00040	c2 14 00	 ret	 20			; 00000014H
?AddRealSettingInfoRQ@CDrdsRealReceiverAddInImp@@MAEHPBD0PAV?$CStringT@DV?$StrTraitMFC_DLL@DV?$ChTraitsCRT@D@ATL@@@@@ATL@@1D@Z ENDP ; CDrdsRealReceiverAddInImp::AddRealSettingInfoRQ
_TEXT	ENDS
; Function compile flags: /Ogtp
; File D:\git\src\IBK\IBK_DRFN\ProjSrc\SrcChartEx\ChartOCX\AddInManager\ChartCommonAddIn\DrdsRealReceiverAddInImp.cpp
;	COMDAT ?SetDrdsPacketEnd@CDrdsRealReceiverAddInImp@@MAEHIJ@Z
_TEXT	SEGMENT
_strField$ = -16					; size = 4
__$EHRec$ = -12						; size = 12
_wParam$ = 8						; size = 4
_strKey$ = 12						; size = 4
_lParam$ = 12						; size = 4
?SetDrdsPacketEnd@CDrdsRealReceiverAddInImp@@MAEHIJ@Z PROC ; CDrdsRealReceiverAddInImp::SetDrdsPacketEnd, COMDAT
; _this$ = ecx

; 488  : {

  00000	55		 push	 ebp
  00001	8b ec		 mov	 ebp, esp
  00003	6a ff		 push	 -1
  00005	68 00 00 00 00	 push	 __ehhandler$?SetDrdsPacketEnd@CDrdsRealReceiverAddInImp@@MAEHIJ@Z
  0000a	64 a1 00 00 00
	00		 mov	 eax, DWORD PTR fs:0
  00010	50		 push	 eax
  00011	51		 push	 ecx
  00012	56		 push	 esi
  00013	57		 push	 edi
  00014	a1 00 00 00 00	 mov	 eax, DWORD PTR ___security_cookie
  00019	33 c5		 xor	 eax, ebp
  0001b	50		 push	 eax
  0001c	8d 45 f4	 lea	 eax, DWORD PTR __$EHRec$[ebp]
  0001f	64 a3 00 00 00
	00		 mov	 DWORD PTR fs:0, eax
  00025	8b f9		 mov	 edi, ecx

; 489  : 	//  Real :  - ojtaso (20070131)
; 490  : 	DrdsData* pDrdsData = (DrdsData*)lParam;
; 491  : 	
; 492  : 	//  Real :  - ojtaso (20070131)
; 493  : 	CString strField = pDrdsData->Field;

  00027	8b 75 0c	 mov	 esi, DWORD PTR _lParam$[ebp]
  0002a	8d 4d f0	 lea	 ecx, DWORD PTR _strField$[ebp]
  0002d	8d 46 20	 lea	 eax, DWORD PTR [esi+32]
  00030	50		 push	 eax
  00031	ff 15 00 00 00
	00		 call	 DWORD PTR __imp_??0?$CStringT@DV?$StrTraitMFC_DLL@DV?$ChTraitsCRT@D@ATL@@@@@ATL@@QAE@PBD@Z

; 494  : 	CString strKey = pDrdsData->Key;

  00037	8d 46 40	 lea	 eax, DWORD PTR [esi+64]
  0003a	c7 45 fc 00 00
	00 00		 mov	 DWORD PTR __$EHRec$[ebp+8], 0
  00041	50		 push	 eax
  00042	8d 4d 0c	 lea	 ecx, DWORD PTR _strKey$[ebp]
  00045	ff 15 00 00 00
	00		 call	 DWORD PTR __imp_??0?$CStringT@DV?$StrTraitMFC_DLL@DV?$ChTraitsCRT@D@ATL@@@@@ATL@@QAE@PBD@Z

; 495  : 	IPacket* pIPacket = ( IPacket*)pDrdsData->Id;
; 496  : 
; 497  : 	LPCSTR lpszRQ = GetDrdsAdvisedRQ(pIPacket, strField, strKey);

  0004b	ff 75 0c	 push	 DWORD PTR _strKey$[ebp]
  0004e	8d 4f c0	 lea	 ecx, DWORD PTR [edi-64]
  00051	c6 45 fc 01	 mov	 BYTE PTR __$EHRec$[ebp+8], 1
  00055	ff 75 f0	 push	 DWORD PTR _strField$[ebp]
  00058	ff 76 60	 push	 DWORD PTR [esi+96]
  0005b	e8 00 00 00 00	 call	 ?GetDrdsAdvisedRQ@CDrdsRealReceiverAddInImp@@IAEPBDPAXPBD1@Z ; CDrdsRealReceiverAddInImp::GetDrdsAdvisedRQ

; 498  : 
; 499  : 	CRealReceiverAddInImp::SetRealPacketEndRQ( lpszRQ, TRUE);

  00060	6a 01		 push	 1
  00062	50		 push	 eax
  00063	8b cf		 mov	 ecx, edi
  00065	e8 00 00 00 00	 call	 ?SetRealPacketEndRQ@CRealReceiverAddInImp@@MAEHPBDH@Z ; CRealReceiverAddInImp::SetRealPacketEndRQ

; 500  : 	
; 501  : 	return 0L;

  0006a	8d 4d 0c	 lea	 ecx, DWORD PTR _strKey$[ebp]
  0006d	ff 15 00 00 00
	00		 call	 DWORD PTR __imp_??1?$CStringT@DV?$StrTraitMFC_DLL@DV?$ChTraitsCRT@D@ATL@@@@@ATL@@QAE@XZ
  00073	8d 4d f0	 lea	 ecx, DWORD PTR _strField$[ebp]
  00076	ff 15 00 00 00
	00		 call	 DWORD PTR __imp_??1?$CStringT@DV?$StrTraitMFC_DLL@DV?$ChTraitsCRT@D@ATL@@@@@ATL@@QAE@XZ
  0007c	33 c0		 xor	 eax, eax

; 502  : }

  0007e	8b 4d f4	 mov	 ecx, DWORD PTR __$EHRec$[ebp]
  00081	64 89 0d 00 00
	00 00		 mov	 DWORD PTR fs:0, ecx
  00088	59		 pop	 ecx
  00089	5f		 pop	 edi
  0008a	5e		 pop	 esi
  0008b	8b e5		 mov	 esp, ebp
  0008d	5d		 pop	 ebp
  0008e	c2 08 00	 ret	 8
_TEXT	ENDS
;	COMDAT text$x
text$x	SEGMENT
__unwindfunclet$?SetDrdsPacketEnd@CDrdsRealReceiverAddInImp@@MAEHIJ@Z$0:
  00000	8d 4d f0	 lea	 ecx, DWORD PTR _strField$[ebp]
  00003	ff 25 00 00 00
	00		 jmp	 DWORD PTR __imp_??1?$CStringT@DV?$StrTraitMFC_DLL@DV?$ChTraitsCRT@D@ATL@@@@@ATL@@QAE@XZ
__unwindfunclet$?SetDrdsPacketEnd@CDrdsRealReceiverAddInImp@@MAEHIJ@Z$1:
  00009	8d 4d 0c	 lea	 ecx, DWORD PTR _strKey$[ebp]
  0000c	ff 25 00 00 00
	00		 jmp	 DWORD PTR __imp_??1?$CStringT@DV?$StrTraitMFC_DLL@DV?$ChTraitsCRT@D@ATL@@@@@ATL@@QAE@XZ
  00012	cc		 int	 3
  00013	cc		 int	 3
  00014	cc		 int	 3
  00015	cc		 int	 3
  00016	cc		 int	 3
__ehhandler$?SetDrdsPacketEnd@CDrdsRealReceiverAddInImp@@MAEHIJ@Z:
  00017	90		 npad	 1
  00018	90		 npad	 1
  00019	8b 54 24 08	 mov	 edx, DWORD PTR [esp+8]
  0001d	8d 42 0c	 lea	 eax, DWORD PTR [edx+12]
  00020	8b 4a f0	 mov	 ecx, DWORD PTR [edx-16]
  00023	33 c8		 xor	 ecx, eax
  00025	e8 00 00 00 00	 call	 @__security_check_cookie@4
  0002a	b8 00 00 00 00	 mov	 eax, OFFSET __ehfuncinfo$?SetDrdsPacketEnd@CDrdsRealReceiverAddInImp@@MAEHIJ@Z
  0002f	e9 00 00 00 00	 jmp	 ___CxxFrameHandler3
text$x	ENDS
?SetDrdsPacketEnd@CDrdsRealReceiverAddInImp@@MAEHIJ@Z ENDP ; CDrdsRealReceiverAddInImp::SetDrdsPacketEnd
; Function compile flags: /Ogtp
; File D:\git\src\IBK\IBK_DRFN\ProjSrc\SrcChartEx\ChartOCX\AddInManager\ChartCommonAddIn\DrdsRealReceiverAddInImp.cpp
; File D:\git\src\IBK\IBK_DRFN\ProjSrc\SrcChartEx\ChartOCX\AddInManager\Include_AddIn\I000000\_IString.h
; File D:\git\src\IBK\IBK_DRFN\ProjSrc\SrcChartEx\ChartOCX\AddInManager\ChartCommonAddIn\DrdsRealReceiverAddInImp.cpp
; File D:\git\src\IBK\IBK_DRFN\ProjSrc\SrcChartEx\ChartOCX\AddInManager\Include_AddIn\I000000\_IString.h
; File D:\git\src\IBK\IBK_DRFN\ProjSrc\SrcChartEx\ChartOCX\AddInManager\ChartCommonAddIn\DrdsRealReceiverAddInImp.cpp
; File C:\Program Files (x86)\Microsoft Visual Studio\2019\Community\VC\Tools\MSVC\14.29.30133\atlmfc\include\atlsimpstr.h
; File D:\git\src\IBK\IBK_DRFN\ProjSrc\SrcChartEx\ChartOCX\AddInManager\ChartCommonAddIn\DrdsRealReceiverAddInImp.cpp
; File C:\Program Files (x86)\Microsoft Visual Studio\2019\Community\VC\Tools\MSVC\14.29.30133\atlmfc\include\atlsimpstr.h
; File D:\git\src\IBK\IBK_DRFN\ProjSrc\SrcChartEx\ChartOCX\AddInManager\ChartCommonAddIn\DrdsRealReceiverAddInImp.cpp
; File D:\git\src\IBK\IBK_DRFN\ProjSrc\SrcChartEx\ChartOCX\AddInManager\Include_AddIn\I000000\_IString.h
; File D:\git\src\IBK\IBK_DRFN\ProjSrc\SrcChartEx\ChartOCX\AddInManager\ChartCommonAddIn\DrdsRealReceiverAddInImp.cpp
;	COMDAT ?SetDrdsData@CDrdsRealReceiverAddInImp@@MAEHIJ@Z
_TEXT	SEGMENT
_szPcketName$2 = -32					; size = 8
_strData$3 = -24					; size = 4
_strKey$4 = -20						; size = 4
$T5 = -16						; size = 4
_this$1$ = -16						; size = 4
__$EHRec$ = -12						; size = 12
_strRQ$6 = 8						; size = 4
_wParam$ = 8						; size = 4
_strField$7 = 12					; size = 4
_lParam$ = 12						; size = 4
?SetDrdsData@CDrdsRealReceiverAddInImp@@MAEHIJ@Z PROC	; CDrdsRealReceiverAddInImp::SetDrdsData, COMDAT
; _this$ = ecx

; 428  : {

  00000	55		 push	 ebp
  00001	8b ec		 mov	 ebp, esp
  00003	6a ff		 push	 -1
  00005	68 00 00 00 00	 push	 __ehhandler$?SetDrdsData@CDrdsRealReceiverAddInImp@@MAEHIJ@Z
  0000a	64 a1 00 00 00
	00		 mov	 eax, DWORD PTR fs:0
  00010	50		 push	 eax
  00011	83 ec 14	 sub	 esp, 20			; 00000014H
  00014	53		 push	 ebx
  00015	56		 push	 esi
  00016	57		 push	 edi
  00017	a1 00 00 00 00	 mov	 eax, DWORD PTR ___security_cookie
  0001c	33 c5		 xor	 eax, ebp
  0001e	50		 push	 eax
  0001f	8d 45 f4	 lea	 eax, DWORD PTR __$EHRec$[ebp]
  00022	64 a3 00 00 00
	00		 mov	 DWORD PTR fs:0, eax
  00028	89 4d f0	 mov	 DWORD PTR _this$1$[ebp], ecx

; 429  : 	// (2006/7/26 - Seung-Won, Bae) Use DRDS Structure directly
; 430  : 	//	BOOL bResult = m_pPacketList->SetRealOrgData( wParam, lParam, nRemovePacketDataCount);
; 431  : 	BOOL bResult = FALSE;

  0002b	33 ff		 xor	 edi, edi

; 432  : 	int nlen = (int)wParam;
; 433  : 	if( 0 < nlen)

  0002d	39 7d 08	 cmp	 DWORD PTR _wParam$[ebp], edi
  00030	0f 8e 26 01 00
	00		 jle	 $LN2@SetDrdsDat

; 434  : 	{
; 435  : 		DrdsData* pDrdsData = (DrdsData*)lParam;
; 436  : 
; 437  : 		CString strField = pDrdsData->Field;

  00036	8b 75 0c	 mov	 esi, DWORD PTR _lParam$[ebp]
  00039	8d 4d 0c	 lea	 ecx, DWORD PTR _strField$7[ebp]
  0003c	8d 46 20	 lea	 eax, DWORD PTR [esi+32]
  0003f	50		 push	 eax
  00040	ff 15 00 00 00
	00		 call	 DWORD PTR __imp_??0?$CStringT@DV?$StrTraitMFC_DLL@DV?$ChTraitsCRT@D@ATL@@@@@ATL@@QAE@PBD@Z

; 438  : 		CString strData = pDrdsData->Data +3;

  00046	8d 46 6b	 lea	 eax, DWORD PTR [esi+107]
  00049	89 7d fc	 mov	 DWORD PTR __$EHRec$[ebp+8], edi
  0004c	50		 push	 eax
  0004d	8d 4d e8	 lea	 ecx, DWORD PTR _strData$3[ebp]
  00050	ff 15 00 00 00
	00		 call	 DWORD PTR __imp_??0?$CStringT@DV?$StrTraitMFC_DLL@DV?$ChTraitsCRT@D@ATL@@@@@ATL@@QAE@PBD@Z

; 439  : 		CString strKey = pDrdsData->Key;

  00056	8d 46 40	 lea	 eax, DWORD PTR [esi+64]
  00059	c6 45 fc 01	 mov	 BYTE PTR __$EHRec$[ebp+8], 1
  0005d	50		 push	 eax
  0005e	8d 4d ec	 lea	 ecx, DWORD PTR _strKey$4[ebp]
  00061	ff 15 00 00 00
	00		 call	 DWORD PTR __imp_??0?$CStringT@DV?$StrTraitMFC_DLL@DV?$ChTraitsCRT@D@ATL@@@@@ATL@@QAE@PBD@Z

; 440  : 		IPacket* pIPacket = ( IPacket*)pDrdsData->Id;

  00067	8b 5e 60	 mov	 ebx, DWORD PTR [esi+96]
; File D:\git\src\IBK\IBK_DRFN\ProjSrc\SrcChartEx\ChartOCX\AddInManager\Include_AddIn\I000000\_IString.h

; 39   : 		m_pIStrData = p_pIString;	// Do not AddRef(). Because It must be Return Value.

  0006a	33 f6		 xor	 esi, esi
  0006c	89 75 e4	 mov	 DWORD PTR _szPcketName$2[ebp+4], esi

; 40   : 		if( m_pIStrData) m_szData = m_pIStrData->GetData();
; 41   : 		else m_szData = NULL;

  0006f	89 7d e0	 mov	 DWORD PTR _szPcketName$2[ebp], edi
; File D:\git\src\IBK\IBK_DRFN\ProjSrc\SrcChartEx\ChartOCX\AddInManager\ChartCommonAddIn\DrdsRealReceiverAddInImp.cpp

; 441  : 		ILPCSTR szPcketName = NULL;

  00072	c6 45 fc 03	 mov	 BYTE PTR __$EHRec$[ebp+8], 3

; 442  : 		if( pIPacket) szPcketName = pIPacket->GetPacketNameString();

  00076	85 db		 test	 ebx, ebx
  00078	74 20		 je	 SHORT $LN20@SetDrdsDat
  0007a	8b 03		 mov	 eax, DWORD PTR [ebx]
  0007c	8b cb		 mov	 ecx, ebx
  0007e	ff 50 14	 call	 DWORD PTR [eax+20]
  00081	8b f0		 mov	 esi, eax
; File D:\git\src\IBK\IBK_DRFN\ProjSrc\SrcChartEx\ChartOCX\AddInManager\Include_AddIn\I000000\_IString.h

; 68   : 		m_pIStrData = stringSrc;	// Do not AddRef(). Because It must be Return Value.

  00083	89 75 e4	 mov	 DWORD PTR _szPcketName$2[ebp+4], esi
  00086	85 f6		 test	 esi, esi

; 69   : 		if( m_pIStrData) m_szData = m_pIStrData->GetData();

  00088	74 0b		 je	 SHORT $LN19@SetDrdsDat
  0008a	8b 06		 mov	 eax, DWORD PTR [esi]
  0008c	8b ce		 mov	 ecx, esi
  0008e	ff 50 10	 call	 DWORD PTR [eax+16]
  00091	8b f8		 mov	 edi, eax
  00093	eb 02		 jmp	 SHORT $LN41@SetDrdsDat
$LN19@SetDrdsDat:

; 70   : 		else m_szData = NULL;

  00095	33 ff		 xor	 edi, edi
$LN41@SetDrdsDat:
; File D:\git\src\IBK\IBK_DRFN\ProjSrc\SrcChartEx\ChartOCX\AddInManager\ChartCommonAddIn\DrdsRealReceiverAddInImp.cpp

; 445  : 		CString strRQ = GetDrdsAdvisedRQ(pIPacket, strField, strKey);

  00097	89 7d e0	 mov	 DWORD PTR _szPcketName$2[ebp], edi
$LN20@SetDrdsDat:
  0009a	ff 75 ec	 push	 DWORD PTR _strKey$4[ebp]
  0009d	ff 75 0c	 push	 DWORD PTR _strField$7[ebp]
  000a0	53		 push	 ebx
  000a1	8b 5d f0	 mov	 ebx, DWORD PTR _this$1$[ebp]
  000a4	8d 4b c0	 lea	 ecx, DWORD PTR [ebx-64]
  000a7	e8 00 00 00 00	 call	 ?GetDrdsAdvisedRQ@CDrdsRealReceiverAddInImp@@IAEPBDPAXPBD1@Z ; CDrdsRealReceiverAddInImp::GetDrdsAdvisedRQ
  000ac	50		 push	 eax
  000ad	8d 4d 08	 lea	 ecx, DWORD PTR _strRQ$6[ebp]
  000b0	ff 15 00 00 00
	00		 call	 DWORD PTR __imp_??0?$CStringT@DV?$StrTraitMFC_DLL@DV?$ChTraitsCRT@D@ATL@@@@@ATL@@QAE@PBD@Z
; File C:\Program Files (x86)\Microsoft Visual Studio\2019\Community\VC\Tools\MSVC\14.29.30133\atlmfc\include\atlsimpstr.h

; 519  : 		return( GetData()->nDataLength );

  000b6	8b 45 08	 mov	 eax, DWORD PTR _strRQ$6[ebp]
; File D:\git\src\IBK\IBK_DRFN\ProjSrc\SrcChartEx\ChartOCX\AddInManager\ChartCommonAddIn\DrdsRealReceiverAddInImp.cpp

; 445  : 		CString strRQ = GetDrdsAdvisedRQ(pIPacket, strField, strKey);

  000b9	c6 45 fc 04	 mov	 BYTE PTR __$EHRec$[ebp+8], 4
; File C:\Program Files (x86)\Microsoft Visual Studio\2019\Community\VC\Tools\MSVC\14.29.30133\atlmfc\include\atlsimpstr.h

; 519  : 		return( GetData()->nDataLength );

  000bd	89 45 f0	 mov	 DWORD PTR $T5[ebp], eax

; 533  : 		return( GetLength() == 0 );

  000c0	83 78 f4 00	 cmp	 DWORD PTR [eax-12], 0
; File D:\git\src\IBK\IBK_DRFN\ProjSrc\SrcChartEx\ChartOCX\AddInManager\ChartCommonAddIn\DrdsRealReceiverAddInImp.cpp

; 446  : 		if( strRQ.IsEmpty()) strRQ = "DEFAULT";

  000c4	75 14		 jne	 SHORT $LN4@SetDrdsDat
  000c6	68 00 00 00 00	 push	 OFFSET ??_C@_07MGCPDNLD@DEFAULT@
  000cb	8d 4d 08	 lea	 ecx, DWORD PTR _strRQ$6[ebp]
  000ce	ff 15 00 00 00
	00		 call	 DWORD PTR __imp_??4?$CStringT@DV?$StrTraitMFC_DLL@DV?$ChTraitsCRT@D@ATL@@@@@ATL@@QAEAAV01@PBD@Z
  000d4	8b 45 08	 mov	 eax, DWORD PTR _strRQ$6[ebp]
  000d7	89 45 f0	 mov	 DWORD PTR $T5[ebp], eax
$LN4@SetDrdsDat:

; 447  : 
; 448  : 		// (2009/11/1 - Seung-Won, Bae) for CRealReceiverAddInImp
; 449  : 		bResult = CRealReceiverAddInImp::SetRealDataRQ( strRQ, szPcketName, atof(strData), TRUE);

  000da	6a 01		 push	 1
  000dc	ff 75 e8	 push	 DWORD PTR _strData$3[ebp]
  000df	ff 15 00 00 00
	00		 call	 DWORD PTR __imp__atof
  000e5	51		 push	 ecx
  000e6	dd 1c 24	 fstp	 QWORD PTR [esp]
  000e9	57		 push	 edi
  000ea	ff 75 f0	 push	 DWORD PTR $T5[ebp]
  000ed	8b cb		 mov	 ecx, ebx
  000ef	e8 00 00 00 00	 call	 ?SetRealDataRQ@CRealReceiverAddInImp@@MAEHPBD0NH@Z ; CRealReceiverAddInImp::SetRealDataRQ

; 450  : 
; 451  : 		if(m_pXScaleManager && strField.CompareNoCase(_T("price")) == 0)

  000f4	83 bb fc 00 00
	00 00		 cmp	 DWORD PTR [ebx+252], 0
  000fb	8b f8		 mov	 edi, eax
  000fd	74 2b		 je	 SHORT $LN5@SetDrdsDat
  000ff	68 00 00 00 00	 push	 OFFSET ??_C@_05NCDILCCA@price@
  00104	8d 4d 0c	 lea	 ecx, DWORD PTR _strField$7[ebp]
  00107	ff 15 00 00 00
	00		 call	 DWORD PTR __imp_?CompareNoCase@?$CStringT@DV?$StrTraitMFC_DLL@DV?$ChTraitsCRT@D@ATL@@@@@ATL@@QBEHPBD@Z
  0010d	85 c0		 test	 eax, eax
  0010f	75 19		 jne	 SHORT $LN5@SetDrdsDat

; 452  : 			m_pXScaleManager->RealDataReceived( strRQ);

  00111	50		 push	 eax
  00112	51		 push	 ecx
  00113	8d 45 08	 lea	 eax, DWORD PTR _strRQ$6[ebp]
  00116	8b cc		 mov	 ecx, esp
  00118	50		 push	 eax
  00119	ff 15 00 00 00
	00		 call	 DWORD PTR __imp_??0?$CStringT@DV?$StrTraitMFC_DLL@DV?$ChTraitsCRT@D@ATL@@@@@ATL@@QAE@ABV01@@Z
  0011f	8b 8b fc 00 00
	00		 mov	 ecx, DWORD PTR [ebx+252]
  00125	8b 01		 mov	 eax, DWORD PTR [ecx]
  00127	ff 50 74	 call	 DWORD PTR [eax+116]
$LN5@SetDrdsDat:

; 453  : 	}

  0012a	8d 4d 08	 lea	 ecx, DWORD PTR _strRQ$6[ebp]
  0012d	ff 15 00 00 00
	00		 call	 DWORD PTR __imp_??1?$CStringT@DV?$StrTraitMFC_DLL@DV?$ChTraitsCRT@D@ATL@@@@@ATL@@QAE@XZ
; File D:\git\src\IBK\IBK_DRFN\ProjSrc\SrcChartEx\ChartOCX\AddInManager\Include_AddIn\I000000\_IString.h

; 44   : 	{

  00133	c6 45 fc 05	 mov	 BYTE PTR __$EHRec$[ebp+8], 5

; 45   : 		if( m_pIStrData)

  00137	85 f6		 test	 esi, esi
  00139	74 06		 je	 SHORT $LN37@SetDrdsDat

; 46   : 		{
; 47   : 			m_pIStrData->Release();

  0013b	8b 06		 mov	 eax, DWORD PTR [esi]
  0013d	56		 push	 esi
  0013e	ff 50 08	 call	 DWORD PTR [eax+8]
$LN37@SetDrdsDat:
; File D:\git\src\IBK\IBK_DRFN\ProjSrc\SrcChartEx\ChartOCX\AddInManager\ChartCommonAddIn\DrdsRealReceiverAddInImp.cpp

; 453  : 	}

  00141	8d 4d ec	 lea	 ecx, DWORD PTR _strKey$4[ebp]
  00144	ff 15 00 00 00
	00		 call	 DWORD PTR __imp_??1?$CStringT@DV?$StrTraitMFC_DLL@DV?$ChTraitsCRT@D@ATL@@@@@ATL@@QAE@XZ
  0014a	8d 4d e8	 lea	 ecx, DWORD PTR _strData$3[ebp]
  0014d	ff 15 00 00 00
	00		 call	 DWORD PTR __imp_??1?$CStringT@DV?$StrTraitMFC_DLL@DV?$ChTraitsCRT@D@ATL@@@@@ATL@@QAE@XZ
  00153	8d 4d 0c	 lea	 ecx, DWORD PTR _strField$7[ebp]
  00156	ff 15 00 00 00
	00		 call	 DWORD PTR __imp_??1?$CStringT@DV?$StrTraitMFC_DLL@DV?$ChTraitsCRT@D@ATL@@@@@ATL@@QAE@XZ
$LN2@SetDrdsDat:

; 454  : 
; 455  : 	return (bResult ? 1L: 0L);

  0015c	33 c0		 xor	 eax, eax
  0015e	85 ff		 test	 edi, edi
  00160	0f 95 c0	 setne	 al

; 456  : 	//sy end
; 457  : }

  00163	8b 4d f4	 mov	 ecx, DWORD PTR __$EHRec$[ebp]
  00166	64 89 0d 00 00
	00 00		 mov	 DWORD PTR fs:0, ecx
  0016d	59		 pop	 ecx
  0016e	5f		 pop	 edi
  0016f	5e		 pop	 esi
  00170	5b		 pop	 ebx
  00171	8b e5		 mov	 esp, ebp
  00173	5d		 pop	 ebp
  00174	c2 08 00	 ret	 8
_TEXT	ENDS
;	COMDAT text$x
text$x	SEGMENT
__unwindfunclet$?SetDrdsData@CDrdsRealReceiverAddInImp@@MAEHIJ@Z$0:
  00000	8d 4d 0c	 lea	 ecx, DWORD PTR _strField$7[ebp]
  00003	ff 25 00 00 00
	00		 jmp	 DWORD PTR __imp_??1?$CStringT@DV?$StrTraitMFC_DLL@DV?$ChTraitsCRT@D@ATL@@@@@ATL@@QAE@XZ
__unwindfunclet$?SetDrdsData@CDrdsRealReceiverAddInImp@@MAEHIJ@Z$1:
  00009	8d 4d e8	 lea	 ecx, DWORD PTR _strData$3[ebp]
  0000c	ff 25 00 00 00
	00		 jmp	 DWORD PTR __imp_??1?$CStringT@DV?$StrTraitMFC_DLL@DV?$ChTraitsCRT@D@ATL@@@@@ATL@@QAE@XZ
__unwindfunclet$?SetDrdsData@CDrdsRealReceiverAddInImp@@MAEHIJ@Z$2:
  00012	8d 4d ec	 lea	 ecx, DWORD PTR _strKey$4[ebp]
  00015	ff 25 00 00 00
	00		 jmp	 DWORD PTR __imp_??1?$CStringT@DV?$StrTraitMFC_DLL@DV?$ChTraitsCRT@D@ATL@@@@@ATL@@QAE@XZ
__unwindfunclet$?SetDrdsData@CDrdsRealReceiverAddInImp@@MAEHIJ@Z$3:
  0001b	8d 4d e0	 lea	 ecx, DWORD PTR _szPcketName$2[ebp]
  0001e	e9 00 00 00 00	 jmp	 ??1ILPCSTR000000@@QAE@XZ ; ILPCSTR000000::~ILPCSTR000000
__unwindfunclet$?SetDrdsData@CDrdsRealReceiverAddInImp@@MAEHIJ@Z$4:
  00023	8d 4d 08	 lea	 ecx, DWORD PTR _strRQ$6[ebp]
  00026	ff 25 00 00 00
	00		 jmp	 DWORD PTR __imp_??1?$CStringT@DV?$StrTraitMFC_DLL@DV?$ChTraitsCRT@D@ATL@@@@@ATL@@QAE@XZ
  0002c	cc		 int	 3
  0002d	cc		 int	 3
  0002e	cc		 int	 3
  0002f	cc		 int	 3
  00030	cc		 int	 3
__ehhandler$?SetDrdsData@CDrdsRealReceiverAddInImp@@MAEHIJ@Z:
  00031	90		 npad	 1
  00032	90		 npad	 1
  00033	8b 54 24 08	 mov	 edx, DWORD PTR [esp+8]
  00037	8d 42 0c	 lea	 eax, DWORD PTR [edx+12]
  0003a	8b 4a dc	 mov	 ecx, DWORD PTR [edx-36]
  0003d	33 c8		 xor	 ecx, eax
  0003f	e8 00 00 00 00	 call	 @__security_check_cookie@4
  00044	b8 00 00 00 00	 mov	 eax, OFFSET __ehfuncinfo$?SetDrdsData@CDrdsRealReceiverAddInImp@@MAEHIJ@Z
  00049	e9 00 00 00 00	 jmp	 ___CxxFrameHandler3
text$x	ENDS
?SetDrdsData@CDrdsRealReceiverAddInImp@@MAEHIJ@Z ENDP	; CDrdsRealReceiverAddInImp::SetDrdsData
; Function compile flags: /Ogtp
; File D:\git\src\IBK\IBK_DRFN\ProjSrc\SrcChartEx\ChartOCX\AddInManager\ChartCommonAddIn\DrdsRealReceiverAddInImp.cpp
; File C:\Program Files (x86)\Microsoft Visual Studio\2019\Community\VC\Tools\MSVC\14.29.30133\atlmfc\include\afxcoll.inl
; File D:\git\src\IBK\IBK_DRFN\ProjSrc\SrcChartEx\ChartOCX\AddInManager\ChartCommonAddIn\DrdsRealReceiverAddInImp.cpp
; File C:\Program Files (x86)\Microsoft Visual Studio\2019\Community\VC\Tools\MSVC\14.29.30133\atlmfc\include\afxcoll.inl
; File D:\git\src\IBK\IBK_DRFN\ProjSrc\SrcChartEx\ChartOCX\AddInManager\ChartCommonAddIn\DrdsRealReceiverAddInImp.cpp
; File C:\Program Files (x86)\Microsoft Visual Studio\2019\Community\VC\Tools\MSVC\14.29.30133\atlmfc\include\afxcoll.inl
; File D:\git\src\IBK\IBK_DRFN\ProjSrc\SrcChartEx\ChartOCX\AddInManager\ChartCommonAddIn\DrdsRealReceiverAddInImp.cpp
; File D:\git\src\IBK\IBK_DRFN\ProjSrc\SrcChartEx\ChartOCX\AddInManager\Include_AddIn\I000000\_IString.h
; File D:\git\src\IBK\IBK_DRFN\ProjSrc\SrcChartEx\ChartOCX\AddInManager\ChartCommonAddIn\DrdsRealReceiverAddInImp.cpp
; File C:\Program Files (x86)\Microsoft Visual Studio\2019\Community\VC\Tools\MSVC\14.29.30133\atlmfc\include\cstringt.h
; File D:\git\src\IBK\IBK_DRFN\ProjSrc\SrcChartEx\ChartOCX\AddInManager\ChartCommonAddIn\DrdsRealReceiverAddInImp.cpp
; File C:\Program Files (x86)\Microsoft Visual Studio\2019\Community\VC\Tools\MSVC\14.29.30133\atlmfc\include\cstringt.h
; File C:\Program Files (x86)\Microsoft Visual Studio\2019\Community\VC\Tools\MSVC\14.29.30133\atlmfc\include\atlsimpstr.h
; File C:\Program Files (x86)\Microsoft Visual Studio\2019\Community\VC\Tools\MSVC\14.29.30133\atlmfc\include\cstringt.h
; File D:\git\src\IBK\IBK_DRFN\ProjSrc\SrcChartEx\ChartOCX\AddInManager\ChartCommonAddIn\DrdsRealReceiverAddInImp.cpp
; File C:\Program Files (x86)\Microsoft Visual Studio\2019\Community\VC\Tools\MSVC\14.29.30133\atlmfc\include\cstringt.h
; File C:\Program Files (x86)\Microsoft Visual Studio\2019\Community\VC\Tools\MSVC\14.29.30133\atlmfc\include\atlsimpstr.h
; File C:\Program Files (x86)\Microsoft Visual Studio\2019\Community\VC\Tools\MSVC\14.29.30133\atlmfc\include\cstringt.h
; File D:\git\src\IBK\IBK_DRFN\ProjSrc\SrcChartEx\ChartOCX\AddInManager\ChartCommonAddIn\DrdsRealReceiverAddInImp.cpp
; File C:\Program Files (x86)\Microsoft Visual Studio\2019\Community\VC\Tools\MSVC\14.29.30133\atlmfc\include\cstringt.h
; File C:\Program Files (x86)\Microsoft Visual Studio\2019\Community\VC\Tools\MSVC\14.29.30133\atlmfc\include\atlsimpstr.h
; File C:\Program Files (x86)\Microsoft Visual Studio\2019\Community\VC\Tools\MSVC\14.29.30133\atlmfc\include\cstringt.h
; File D:\git\src\IBK\IBK_DRFN\ProjSrc\SrcChartEx\ChartOCX\AddInManager\ChartCommonAddIn\DrdsRealReceiverAddInImp.cpp
; File C:\Program Files (x86)\Microsoft Visual Studio\2019\Community\VC\Tools\MSVC\14.29.30133\atlmfc\include\cstringt.h
; File C:\Program Files (x86)\Microsoft Visual Studio\2019\Community\VC\Tools\MSVC\14.29.30133\atlmfc\include\atlsimpstr.h
; File C:\Program Files (x86)\Microsoft Visual Studio\2019\Community\VC\Tools\MSVC\14.29.30133\atlmfc\include\cstringt.h
; File D:\git\src\IBK\IBK_DRFN\ProjSrc\SrcChartEx\ChartOCX\AddInManager\ChartCommonAddIn\DrdsRealReceiverAddInImp.cpp
; File C:\Program Files (x86)\Microsoft Visual Studio\2019\Community\VC\Tools\MSVC\14.29.30133\atlmfc\include\cstringt.h
; File C:\Program Files (x86)\Microsoft Visual Studio\2019\Community\VC\Tools\MSVC\14.29.30133\atlmfc\include\atlsimpstr.h
; File C:\Program Files (x86)\Microsoft Visual Studio\2019\Community\VC\Tools\MSVC\14.29.30133\atlmfc\include\cstringt.h
; File D:\git\src\IBK\IBK_DRFN\ProjSrc\SrcChartEx\ChartOCX\AddInManager\ChartCommonAddIn\DrdsRealReceiverAddInImp.cpp
; File C:\Program Files (x86)\Microsoft Visual Studio\2019\Community\VC\Tools\MSVC\14.29.30133\atlmfc\include\cstringt.h
; File C:\Program Files (x86)\Microsoft Visual Studio\2019\Community\VC\Tools\MSVC\14.29.30133\atlmfc\include\atlsimpstr.h
; File C:\Program Files (x86)\Microsoft Visual Studio\2019\Community\VC\Tools\MSVC\14.29.30133\atlmfc\include\cstringt.h
; File C:\Program Files (x86)\Microsoft Visual Studio\2019\Community\VC\Tools\MSVC\14.29.30133\atlmfc\include\atlsimpstr.h
; File C:\Program Files (x86)\Microsoft Visual Studio\2019\Community\VC\Tools\MSVC\14.29.30133\atlmfc\include\cstringt.h
; File D:\git\src\IBK\IBK_DRFN\ProjSrc\SrcChartEx\ChartOCX\AddInManager\ChartCommonAddIn\DrdsRealReceiverAddInImp.cpp
; File D:\git\src\IBK\IBK_DRFN\ProjSrc\SrcChartEx\ChartOCX\AddInManager\Include_AddIn\I000000\_IString.h
; File D:\git\src\IBK\IBK_DRFN\ProjSrc\SrcChartEx\ChartOCX\AddInManager\ChartCommonAddIn\DrdsRealReceiverAddInImp.cpp
;	COMDAT ?GetRealAdvisedInfo@CDrdsRealReceiverAddInImp@@MAEHAAV?$CStringT@DV?$StrTraitMFC_DLL@DV?$ChTraitsCRT@D@ATL@@@@@ATL@@@Z
_TEXT	SEGMENT
_szRealName$2 = -80					; size = 8
_pos$1$ = -72						; size = 4
_posPacketGroup$1$ = -68				; size = 4
$T3 = -64						; size = 4
_strRealPacketName$4 = -60				; size = 4
_strRealKeyCode$5 = -56					; size = 4
_strRealFieldName$6 = -52				; size = 4
_strRealSettingInfo$7 = -48				; size = 4
$T8 = -44						; size = 4
$T9 = -40						; size = 4
$T10 = -36						; size = 4
$T11 = -32						; size = 4
$T12 = -28						; size = 4
$T13 = -24						; size = 4
$T14 = -20						; size = 4
_pAdviseInfo$1$ = -16					; size = 4
$T15 = -16						; size = 4
__$EHRec$ = -12						; size = 12
_p_strAdvisedInfo$ = 8					; size = 4
?GetRealAdvisedInfo@CDrdsRealReceiverAddInImp@@MAEHAAV?$CStringT@DV?$StrTraitMFC_DLL@DV?$ChTraitsCRT@D@ATL@@@@@ATL@@@Z PROC ; CDrdsRealReceiverAddInImp::GetRealAdvisedInfo, COMDAT
; _this$ = ecx

; 177  : {

  00000	55		 push	 ebp
  00001	8b ec		 mov	 ebp, esp
  00003	6a ff		 push	 -1
  00005	68 00 00 00 00	 push	 __ehhandler$?GetRealAdvisedInfo@CDrdsRealReceiverAddInImp@@MAEHAAV?$CStringT@DV?$StrTraitMFC_DLL@DV?$ChTraitsCRT@D@ATL@@@@@ATL@@@Z
  0000a	64 a1 00 00 00
	00		 mov	 eax, DWORD PTR fs:0
  00010	50		 push	 eax
  00011	83 ec 44	 sub	 esp, 68			; 00000044H
  00014	53		 push	 ebx
  00015	56		 push	 esi
  00016	57		 push	 edi
  00017	a1 00 00 00 00	 mov	 eax, DWORD PTR ___security_cookie
  0001c	33 c5		 xor	 eax, ebp
  0001e	50		 push	 eax
  0001f	8d 45 f4	 lea	 eax, DWORD PTR __$EHRec$[ebp]
  00022	64 a3 00 00 00
	00		 mov	 DWORD PTR fs:0, eax
  00028	8b f1		 mov	 esi, ecx

; 178  : 	p_strAdvisedInfo.Empty();

  0002a	8b 4d 08	 mov	 ecx, DWORD PTR _p_strAdvisedInfo$[ebp]
  0002d	33 c0		 xor	 eax, eax
  0002f	89 45 dc	 mov	 DWORD PTR $T10[ebp], eax
  00032	89 45 f0	 mov	 DWORD PTR $T15[ebp], eax
  00035	ff 15 00 00 00
	00		 call	 DWORD PTR __imp_?Empty@?$CSimpleStringT@D$00@ATL@@QAEXXZ

; 179  : 
; 180  : 	if( !m_plDrdsAdvisedInfoList) return FALSE;

  0003b	8b 86 f0 00 00
	00		 mov	 eax, DWORD PTR [esi+240]
  00041	85 c0		 test	 eax, eax
  00043	75 14		 jne	 SHORT $LN8@GetRealAdv

; 216  : }

  00045	8b 4d f4	 mov	 ecx, DWORD PTR __$EHRec$[ebp]
  00048	64 89 0d 00 00
	00 00		 mov	 DWORD PTR fs:0, ecx
  0004f	59		 pop	 ecx
  00050	5f		 pop	 edi
  00051	5e		 pop	 esi
  00052	5b		 pop	 ebx
  00053	8b e5		 mov	 esp, ebp
  00055	5d		 pop	 ebp
  00056	c2 04 00	 ret	 4
$LN8@GetRealAdv:

; 181  : 
; 182  : 	POSITION pos = m_plDrdsAdvisedInfoList->GetHeadPosition();

  00059	8b 48 04	 mov	 ecx, DWORD PTR [eax+4]

; 183  : 	while(pos)

  0005c	85 c9		 test	 ecx, ecx
  0005e	0f 84 d8 02 00
	00		 je	 $LN3@GetRealAdv
$LL2@GetRealAdv:

; 184  : 	{
; 185  : 		// Packet Name : ex) S31
; 186  : 		CDaiPacketGroup* pPacketGroup = m_plDrdsAdvisedInfoList->GetNext(pos);

  00064	8b 71 08	 mov	 esi, DWORD PTR [ecx+8]
; File C:\Program Files (x86)\Microsoft Visual Studio\2019\Community\VC\Tools\MSVC\14.29.30133\atlmfc\include\afxcoll.inl

; 432  : 		rPosition = (POSITION) pNode->pNext;

  00067	8b 09		 mov	 ecx, DWORD PTR [ecx]
  00069	89 4d b8	 mov	 DWORD PTR _pos$1$[ebp], ecx
; File D:\git\src\IBK\IBK_DRFN\ProjSrc\SrcChartEx\ChartOCX\AddInManager\ChartCommonAddIn\DrdsRealReceiverAddInImp.cpp

; 187  : 		CString strRealPacketName = pPacketGroup->m_strRealPacketName;

  0006c	8d 4d c4	 lea	 ecx, DWORD PTR _strRealPacketName$4[ebp]
  0006f	8d 46 04	 lea	 eax, DWORD PTR [esi+4]
  00072	50		 push	 eax
  00073	ff 15 00 00 00
	00		 call	 DWORD PTR __imp_??0?$CStringT@DV?$StrTraitMFC_DLL@DV?$ChTraitsCRT@D@ATL@@@@@ATL@@QAE@ABV01@@Z

; 188  : 		
; 189  : 		POSITION posPacketGroup = pPacketGroup->GetHeadPosition();

  00079	8b 4e 0c	 mov	 ecx, DWORD PTR [esi+12]
  0007c	c7 45 fc 00 00
	00 00		 mov	 DWORD PTR __$EHRec$[ebp+8], 0

; 190  : 		while(posPacketGroup)

  00083	85 c9		 test	 ecx, ecx
  00085	0f 84 96 02 00
	00		 je	 $LN5@GetRealAdv
  0008b	0f 1f 44 00 00	 npad	 5
$LL4@GetRealAdv:

; 191  : 		{
; 192  : 			CDaiCodeGroup* pCodeGroup = pPacketGroup->GetNext(posPacketGroup);

  00090	8b 71 08	 mov	 esi, DWORD PTR [ecx+8]
; File C:\Program Files (x86)\Microsoft Visual Studio\2019\Community\VC\Tools\MSVC\14.29.30133\atlmfc\include\afxcoll.inl

; 432  : 		rPosition = (POSITION) pNode->pNext;

  00093	8b 09		 mov	 ecx, DWORD PTR [ecx]
  00095	89 4d bc	 mov	 DWORD PTR _posPacketGroup$1$[ebp], ecx
; File D:\git\src\IBK\IBK_DRFN\ProjSrc\SrcChartEx\ChartOCX\AddInManager\ChartCommonAddIn\DrdsRealReceiverAddInImp.cpp

; 194  : 			CString strRealKeyCode = pCodeGroup->m_strRealKeyCode;

  00098	8d 4d c8	 lea	 ecx, DWORD PTR _strRealKeyCode$5[ebp]
  0009b	8d 46 04	 lea	 eax, DWORD PTR [esi+4]
  0009e	50		 push	 eax
  0009f	ff 15 00 00 00
	00		 call	 DWORD PTR __imp_??0?$CStringT@DV?$StrTraitMFC_DLL@DV?$ChTraitsCRT@D@ATL@@@@@ATL@@QAE@ABV01@@Z

; 195  : 
; 196  : 			POSITION posCodeGroup = pCodeGroup->GetHeadPosition();

  000a5	8b 76 0c	 mov	 esi, DWORD PTR [esi+12]
  000a8	c6 45 fc 01	 mov	 BYTE PTR __$EHRec$[ebp+8], 1

; 197  : 			while(posCodeGroup)

  000ac	85 f6		 test	 esi, esi
  000ae	0f 84 55 02 00
	00		 je	 $LN7@GetRealAdv
$LL6@GetRealAdv:

; 199  : 				CDrdsAdvisedInfo* pAdviseInfo = pCodeGroup->GetNext(posCodeGroup);

  000b4	8b 46 08	 mov	 eax, DWORD PTR [esi+8]
; File C:\Program Files (x86)\Microsoft Visual Studio\2019\Community\VC\Tools\MSVC\14.29.30133\atlmfc\include\afxcoll.inl

; 432  : 		rPosition = (POSITION) pNode->pNext;

  000b7	8b 36		 mov	 esi, DWORD PTR [esi]
; File D:\git\src\IBK\IBK_DRFN\ProjSrc\SrcChartEx\ChartOCX\AddInManager\ChartCommonAddIn\DrdsRealReceiverAddInImp.cpp

; 199  : 				CDrdsAdvisedInfo* pAdviseInfo = pCodeGroup->GetNext(posCodeGroup);

  000b9	89 45 f0	 mov	 DWORD PTR _pAdviseInfo$1$[ebp], eax

; 202  : 				ILPCSTR szRealName = pAdviseInfo->m_pIPacket->GetPacketNameString();

  000bc	8b 48 04	 mov	 ecx, DWORD PTR [eax+4]
  000bf	8b 01		 mov	 eax, DWORD PTR [ecx]
  000c1	ff 50 14	 call	 DWORD PTR [eax+20]
; File D:\git\src\IBK\IBK_DRFN\ProjSrc\SrcChartEx\ChartOCX\AddInManager\Include_AddIn\I000000\_IString.h

; 39   : 		m_pIStrData = p_pIString;	// Do not AddRef(). Because It must be Return Value.

  000c4	8b d8		 mov	 ebx, eax
  000c6	89 5d b4	 mov	 DWORD PTR _szRealName$2[ebp+4], ebx

; 40   : 		if( m_pIStrData) m_szData = m_pIStrData->GetData();

  000c9	85 db		 test	 ebx, ebx
  000cb	74 0b		 je	 SHORT $LN48@GetRealAdv
  000cd	8b 13		 mov	 edx, DWORD PTR [ebx]
  000cf	8b cb		 mov	 ecx, ebx
  000d1	ff 52 10	 call	 DWORD PTR [edx+16]
  000d4	8b f8		 mov	 edi, eax
  000d6	eb 02		 jmp	 SHORT $LN171@GetRealAdv
$LN48@GetRealAdv:

; 41   : 		else m_szData = NULL;

  000d8	33 ff		 xor	 edi, edi
$LN171@GetRealAdv:
; File D:\git\src\IBK\IBK_DRFN\ProjSrc\SrcChartEx\ChartOCX\AddInManager\ChartCommonAddIn\DrdsRealReceiverAddInImp.cpp

; 202  : 				ILPCSTR szRealName = pAdviseInfo->m_pIPacket->GetPacketNameString();

  000da	89 7d b0	 mov	 DWORD PTR _szRealName$2[ebp], edi

; 203  : 				// Field Name  : ex) time
; 204  : 				CString strRealFieldName = pAdviseInfo->m_strRealFieldName;

  000dd	8b 45 f0	 mov	 eax, DWORD PTR _pAdviseInfo$1$[ebp]
  000e0	8d 4d cc	 lea	 ecx, DWORD PTR _strRealFieldName$6[ebp]
  000e3	83 c0 08	 add	 eax, 8
  000e6	c6 45 fc 02	 mov	 BYTE PTR __$EHRec$[ebp+8], 2
  000ea	50		 push	 eax
  000eb	ff 15 00 00 00
	00		 call	 DWORD PTR __imp_??0?$CStringT@DV?$StrTraitMFC_DLL@DV?$ChTraitsCRT@D@ATL@@@@@ATL@@QAE@ABV01@@Z

; 206  : 				CString strRealSettingInfo = CString( szRealName) + _T(".") 

  000f1	57		 push	 edi
  000f2	8d 4d c0	 lea	 ecx, DWORD PTR $T3[ebp]
  000f5	c6 45 fc 03	 mov	 BYTE PTR __$EHRec$[ebp+8], 3
  000f9	ff 15 00 00 00
	00		 call	 DWORD PTR __imp_??0?$CStringT@DV?$StrTraitMFC_DLL@DV?$ChTraitsCRT@D@ATL@@@@@ATL@@QAE@PBD@Z
  000ff	8b f8		 mov	 edi, eax
; File C:\Program Files (x86)\Microsoft Visual Studio\2019\Community\VC\Tools\MSVC\14.29.30133\atlmfc\include\cstringt.h

; 2401 : 		CStringT strResult( str1.GetManager() );

  00101	8b cf		 mov	 ecx, edi
; File D:\git\src\IBK\IBK_DRFN\ProjSrc\SrcChartEx\ChartOCX\AddInManager\ChartCommonAddIn\DrdsRealReceiverAddInImp.cpp

; 206  : 				CString strRealSettingInfo = CString( szRealName) + _T(".") 

  00103	c6 45 fc 05	 mov	 BYTE PTR __$EHRec$[ebp+8], 5
; File C:\Program Files (x86)\Microsoft Visual Studio\2019\Community\VC\Tools\MSVC\14.29.30133\atlmfc\include\cstringt.h

; 2401 : 		CStringT strResult( str1.GetManager() );

  00107	ff 15 00 00 00
	00		 call	 DWORD PTR __imp_?GetManager@?$CStringT@DV?$StrTraitMFC_DLL@DV?$ChTraitsCRT@D@ATL@@@@@ATL@@QBEPAUIAtlStringMgr@2@XZ
  0010d	50		 push	 eax
  0010e	8d 4d d8	 lea	 ecx, DWORD PTR $T9[ebp]
  00111	ff 15 00 00 00
	00		 call	 DWORD PTR __imp_??0?$CStringT@DV?$StrTraitMFC_DLL@DV?$ChTraitsCRT@D@ATL@@@@@ATL@@QAE@PAUIAtlStringMgr@1@@Z

; 2405 : 		return( strResult );

  00117	8b 45 dc	 mov	 eax, DWORD PTR $T10[ebp]
  0011a	83 c8 01	 or	 eax, 1
  0011d	89 45 dc	 mov	 DWORD PTR $T10[ebp], eax
  00120	89 45 f0	 mov	 DWORD PTR $T15[ebp], eax
; File C:\Program Files (x86)\Microsoft Visual Studio\2019\Community\VC\Tools\MSVC\14.29.30133\atlmfc\include\atlsimpstr.h

; 519  : 		return( GetData()->nDataLength );

  00123	8b 07		 mov	 eax, DWORD PTR [edi]
; File C:\Program Files (x86)\Microsoft Visual Studio\2019\Community\VC\Tools\MSVC\14.29.30133\atlmfc\include\cstringt.h

; 2403 : 		CThisSimpleString::Concatenate( strResult, str1, str1.GetLength(), psz2, CThisSimpleString::StringLength( psz2 ) );

  00125	6a 01		 push	 1
  00127	68 00 00 00 00	 push	 OFFSET ??_C@_01LFCBOECM@?4@
  0012c	ff 70 f4	 push	 DWORD PTR [eax-12]
  0012f	50		 push	 eax
  00130	8d 45 d8	 lea	 eax, DWORD PTR $T9[ebp]
  00133	50		 push	 eax
  00134	ff 15 00 00 00
	00		 call	 DWORD PTR __imp_?Concatenate@?$CSimpleStringT@D$00@ATL@@KAXAAV12@PBDH1H@Z
  0013a	83 c4 14	 add	 esp, 20			; 00000014H

; 2390 : 		CStringT strResult( str1.GetManager() );

  0013d	8d 4d d8	 lea	 ecx, DWORD PTR $T9[ebp]
; File D:\git\src\IBK\IBK_DRFN\ProjSrc\SrcChartEx\ChartOCX\AddInManager\ChartCommonAddIn\DrdsRealReceiverAddInImp.cpp

; 206  : 				CString strRealSettingInfo = CString( szRealName) + _T(".") 

  00140	c6 45 fc 06	 mov	 BYTE PTR __$EHRec$[ebp+8], 6
; File C:\Program Files (x86)\Microsoft Visual Studio\2019\Community\VC\Tools\MSVC\14.29.30133\atlmfc\include\cstringt.h

; 2390 : 		CStringT strResult( str1.GetManager() );

  00144	ff 15 00 00 00
	00		 call	 DWORD PTR __imp_?GetManager@?$CStringT@DV?$StrTraitMFC_DLL@DV?$ChTraitsCRT@D@ATL@@@@@ATL@@QBEPAUIAtlStringMgr@2@XZ
  0014a	50		 push	 eax
  0014b	8d 4d e0	 lea	 ecx, DWORD PTR $T11[ebp]
  0014e	ff 15 00 00 00
	00		 call	 DWORD PTR __imp_??0?$CStringT@DV?$StrTraitMFC_DLL@DV?$ChTraitsCRT@D@ATL@@@@@ATL@@QAE@PAUIAtlStringMgr@1@@Z
; File C:\Program Files (x86)\Microsoft Visual Studio\2019\Community\VC\Tools\MSVC\14.29.30133\atlmfc\include\atlsimpstr.h

; 519  : 		return( GetData()->nDataLength );

  00154	8b 45 c4	 mov	 eax, DWORD PTR _strRealPacketName$4[ebp]
  00157	8b 4d d8	 mov	 ecx, DWORD PTR $T9[ebp]
; File C:\Program Files (x86)\Microsoft Visual Studio\2019\Community\VC\Tools\MSVC\14.29.30133\atlmfc\include\cstringt.h

; 2394 : 		return( strResult );

  0015a	8b 7d dc	 mov	 edi, DWORD PTR $T10[ebp]
  0015d	83 cf 02	 or	 edi, 2
  00160	ff 70 f4	 push	 DWORD PTR [eax-12]
  00163	89 7d f0	 mov	 DWORD PTR $T15[ebp], edi
  00166	50		 push	 eax
  00167	ff 71 f4	 push	 DWORD PTR [ecx-12]
  0016a	8d 45 e0	 lea	 eax, DWORD PTR $T11[ebp]
  0016d	51		 push	 ecx
  0016e	50		 push	 eax
  0016f	ff 15 00 00 00
	00		 call	 DWORD PTR __imp_?Concatenate@?$CSimpleStringT@D$00@ATL@@KAXAAV12@PBDH1H@Z
  00175	83 c4 14	 add	 esp, 20			; 00000014H

; 2401 : 		CStringT strResult( str1.GetManager() );

  00178	8d 4d e0	 lea	 ecx, DWORD PTR $T11[ebp]
; File D:\git\src\IBK\IBK_DRFN\ProjSrc\SrcChartEx\ChartOCX\AddInManager\ChartCommonAddIn\DrdsRealReceiverAddInImp.cpp

; 206  : 				CString strRealSettingInfo = CString( szRealName) + _T(".") 

  0017b	c6 45 fc 07	 mov	 BYTE PTR __$EHRec$[ebp+8], 7
; File C:\Program Files (x86)\Microsoft Visual Studio\2019\Community\VC\Tools\MSVC\14.29.30133\atlmfc\include\cstringt.h

; 2401 : 		CStringT strResult( str1.GetManager() );

  0017f	ff 15 00 00 00
	00		 call	 DWORD PTR __imp_?GetManager@?$CStringT@DV?$StrTraitMFC_DLL@DV?$ChTraitsCRT@D@ATL@@@@@ATL@@QBEPAUIAtlStringMgr@2@XZ
  00185	50		 push	 eax
  00186	8d 4d e4	 lea	 ecx, DWORD PTR $T12[ebp]
  00189	ff 15 00 00 00
	00		 call	 DWORD PTR __imp_??0?$CStringT@DV?$StrTraitMFC_DLL@DV?$ChTraitsCRT@D@ATL@@@@@ATL@@QAE@PAUIAtlStringMgr@1@@Z
; File C:\Program Files (x86)\Microsoft Visual Studio\2019\Community\VC\Tools\MSVC\14.29.30133\atlmfc\include\atlsimpstr.h

; 519  : 		return( GetData()->nDataLength );

  0018f	8b 45 e0	 mov	 eax, DWORD PTR $T11[ebp]
; File C:\Program Files (x86)\Microsoft Visual Studio\2019\Community\VC\Tools\MSVC\14.29.30133\atlmfc\include\cstringt.h

; 2405 : 		return( strResult );

  00192	83 cf 04	 or	 edi, 4
  00195	6a 01		 push	 1
  00197	68 00 00 00 00	 push	 OFFSET ??_C@_01LFCBOECM@?4@
  0019c	89 7d f0	 mov	 DWORD PTR $T15[ebp], edi
  0019f	ff 70 f4	 push	 DWORD PTR [eax-12]
  001a2	50		 push	 eax
  001a3	8d 45 e4	 lea	 eax, DWORD PTR $T12[ebp]
  001a6	50		 push	 eax
  001a7	ff 15 00 00 00
	00		 call	 DWORD PTR __imp_?Concatenate@?$CSimpleStringT@D$00@ATL@@KAXAAV12@PBDH1H@Z
  001ad	83 c4 14	 add	 esp, 20			; 00000014H

; 2390 : 		CStringT strResult( str1.GetManager() );

  001b0	8d 4d e4	 lea	 ecx, DWORD PTR $T12[ebp]
; File D:\git\src\IBK\IBK_DRFN\ProjSrc\SrcChartEx\ChartOCX\AddInManager\ChartCommonAddIn\DrdsRealReceiverAddInImp.cpp

; 206  : 				CString strRealSettingInfo = CString( szRealName) + _T(".") 

  001b3	c6 45 fc 08	 mov	 BYTE PTR __$EHRec$[ebp+8], 8
; File C:\Program Files (x86)\Microsoft Visual Studio\2019\Community\VC\Tools\MSVC\14.29.30133\atlmfc\include\cstringt.h

; 2390 : 		CStringT strResult( str1.GetManager() );

  001b7	ff 15 00 00 00
	00		 call	 DWORD PTR __imp_?GetManager@?$CStringT@DV?$StrTraitMFC_DLL@DV?$ChTraitsCRT@D@ATL@@@@@ATL@@QBEPAUIAtlStringMgr@2@XZ
  001bd	50		 push	 eax
  001be	8d 4d e8	 lea	 ecx, DWORD PTR $T13[ebp]
  001c1	ff 15 00 00 00
	00		 call	 DWORD PTR __imp_??0?$CStringT@DV?$StrTraitMFC_DLL@DV?$ChTraitsCRT@D@ATL@@@@@ATL@@QAE@PAUIAtlStringMgr@1@@Z

; 2394 : 		return( strResult );

  001c7	83 cf 08	 or	 edi, 8
; File C:\Program Files (x86)\Microsoft Visual Studio\2019\Community\VC\Tools\MSVC\14.29.30133\atlmfc\include\atlsimpstr.h

; 519  : 		return( GetData()->nDataLength );

  001ca	8b 45 cc	 mov	 eax, DWORD PTR _strRealFieldName$6[ebp]
  001cd	8b 4d e4	 mov	 ecx, DWORD PTR $T12[ebp]
; File C:\Program Files (x86)\Microsoft Visual Studio\2019\Community\VC\Tools\MSVC\14.29.30133\atlmfc\include\cstringt.h

; 2394 : 		return( strResult );

  001d0	89 7d f0	 mov	 DWORD PTR $T15[ebp], edi
  001d3	ff 70 f4	 push	 DWORD PTR [eax-12]
  001d6	50		 push	 eax
  001d7	ff 71 f4	 push	 DWORD PTR [ecx-12]
  001da	8d 45 e8	 lea	 eax, DWORD PTR $T13[ebp]
  001dd	51		 push	 ecx
  001de	50		 push	 eax
  001df	ff 15 00 00 00
	00		 call	 DWORD PTR __imp_?Concatenate@?$CSimpleStringT@D$00@ATL@@KAXAAV12@PBDH1H@Z
  001e5	83 c4 14	 add	 esp, 20			; 00000014H

; 2401 : 		CStringT strResult( str1.GetManager() );

  001e8	8d 4d e8	 lea	 ecx, DWORD PTR $T13[ebp]
; File D:\git\src\IBK\IBK_DRFN\ProjSrc\SrcChartEx\ChartOCX\AddInManager\ChartCommonAddIn\DrdsRealReceiverAddInImp.cpp

; 206  : 				CString strRealSettingInfo = CString( szRealName) + _T(".") 

  001eb	c6 45 fc 09	 mov	 BYTE PTR __$EHRec$[ebp+8], 9
; File C:\Program Files (x86)\Microsoft Visual Studio\2019\Community\VC\Tools\MSVC\14.29.30133\atlmfc\include\cstringt.h

; 2401 : 		CStringT strResult( str1.GetManager() );

  001ef	ff 15 00 00 00
	00		 call	 DWORD PTR __imp_?GetManager@?$CStringT@DV?$StrTraitMFC_DLL@DV?$ChTraitsCRT@D@ATL@@@@@ATL@@QBEPAUIAtlStringMgr@2@XZ
  001f5	50		 push	 eax
  001f6	8d 4d ec	 lea	 ecx, DWORD PTR $T14[ebp]
  001f9	ff 15 00 00 00
	00		 call	 DWORD PTR __imp_??0?$CStringT@DV?$StrTraitMFC_DLL@DV?$ChTraitsCRT@D@ATL@@@@@ATL@@QAE@PAUIAtlStringMgr@1@@Z
; File C:\Program Files (x86)\Microsoft Visual Studio\2019\Community\VC\Tools\MSVC\14.29.30133\atlmfc\include\atlsimpstr.h

; 519  : 		return( GetData()->nDataLength );

  001ff	8b 45 e8	 mov	 eax, DWORD PTR $T13[ebp]
; File C:\Program Files (x86)\Microsoft Visual Studio\2019\Community\VC\Tools\MSVC\14.29.30133\atlmfc\include\cstringt.h

; 2405 : 		return( strResult );

  00202	83 cf 10	 or	 edi, 16			; 00000010H
  00205	6a 01		 push	 1
  00207	68 00 00 00 00	 push	 OFFSET ??_C@_01LFCBOECM@?4@
  0020c	89 7d f0	 mov	 DWORD PTR $T15[ebp], edi
  0020f	ff 70 f4	 push	 DWORD PTR [eax-12]
  00212	50		 push	 eax
  00213	8d 45 ec	 lea	 eax, DWORD PTR $T14[ebp]
  00216	50		 push	 eax
  00217	ff 15 00 00 00
	00		 call	 DWORD PTR __imp_?Concatenate@?$CSimpleStringT@D$00@ATL@@KAXAAV12@PBDH1H@Z
  0021d	83 c4 14	 add	 esp, 20			; 00000014H

; 2390 : 		CStringT strResult( str1.GetManager() );

  00220	8d 4d ec	 lea	 ecx, DWORD PTR $T14[ebp]
; File D:\git\src\IBK\IBK_DRFN\ProjSrc\SrcChartEx\ChartOCX\AddInManager\ChartCommonAddIn\DrdsRealReceiverAddInImp.cpp

; 206  : 				CString strRealSettingInfo = CString( szRealName) + _T(".") 

  00223	c6 45 fc 0a	 mov	 BYTE PTR __$EHRec$[ebp+8], 10 ; 0000000aH
; File C:\Program Files (x86)\Microsoft Visual Studio\2019\Community\VC\Tools\MSVC\14.29.30133\atlmfc\include\cstringt.h

; 2390 : 		CStringT strResult( str1.GetManager() );

  00227	ff 15 00 00 00
	00		 call	 DWORD PTR __imp_?GetManager@?$CStringT@DV?$StrTraitMFC_DLL@DV?$ChTraitsCRT@D@ATL@@@@@ATL@@QBEPAUIAtlStringMgr@2@XZ
  0022d	50		 push	 eax
  0022e	8d 4d d4	 lea	 ecx, DWORD PTR $T8[ebp]
  00231	ff 15 00 00 00
	00		 call	 DWORD PTR __imp_??0?$CStringT@DV?$StrTraitMFC_DLL@DV?$ChTraitsCRT@D@ATL@@@@@ATL@@QAE@PAUIAtlStringMgr@1@@Z
; File C:\Program Files (x86)\Microsoft Visual Studio\2019\Community\VC\Tools\MSVC\14.29.30133\atlmfc\include\atlsimpstr.h

; 519  : 		return( GetData()->nDataLength );

  00237	8b 45 c8	 mov	 eax, DWORD PTR _strRealKeyCode$5[ebp]
; File C:\Program Files (x86)\Microsoft Visual Studio\2019\Community\VC\Tools\MSVC\14.29.30133\atlmfc\include\cstringt.h

; 2394 : 		return( strResult );

  0023a	83 cf 20	 or	 edi, 32			; 00000020H
; File C:\Program Files (x86)\Microsoft Visual Studio\2019\Community\VC\Tools\MSVC\14.29.30133\atlmfc\include\atlsimpstr.h

; 519  : 		return( GetData()->nDataLength );

  0023d	8b 4d ec	 mov	 ecx, DWORD PTR $T14[ebp]
; File C:\Program Files (x86)\Microsoft Visual Studio\2019\Community\VC\Tools\MSVC\14.29.30133\atlmfc\include\cstringt.h

; 2394 : 		return( strResult );

  00240	89 7d f0	 mov	 DWORD PTR $T15[ebp], edi
  00243	ff 70 f4	 push	 DWORD PTR [eax-12]
  00246	50		 push	 eax
  00247	ff 71 f4	 push	 DWORD PTR [ecx-12]
  0024a	8d 45 d4	 lea	 eax, DWORD PTR $T8[ebp]
  0024d	51		 push	 ecx
  0024e	50		 push	 eax
  0024f	ff 15 00 00 00
	00		 call	 DWORD PTR __imp_?Concatenate@?$CSimpleStringT@D$00@ATL@@KAXAAV12@PBDH1H@Z
; File D:\git\src\IBK\IBK_DRFN\ProjSrc\SrcChartEx\ChartOCX\AddInManager\ChartCommonAddIn\DrdsRealReceiverAddInImp.cpp

; 206  : 				CString strRealSettingInfo = CString( szRealName) + _T(".") 

  00255	68 00 00 00 00	 push	 OFFSET ??_C@_01ICJEACDI@?$DL@
  0025a	8d 45 d4	 lea	 eax, DWORD PTR $T8[ebp]
  0025d	50		 push	 eax
  0025e	8d 45 d0	 lea	 eax, DWORD PTR _strRealSettingInfo$7[ebp]
  00261	50		 push	 eax
  00262	e8 00 00 00 00	 call	 ??HATL@@YA?AV?$CStringT@DV?$StrTraitMFC_DLL@DV?$ChTraitsCRT@D@ATL@@@@@0@ABV10@PBD@Z ; ATL::operator+
  00267	83 c4 20	 add	 esp, 32			; 00000020H
  0026a	83 e7 df	 and	 edi, -33		; ffffffdfH
  0026d	8d 4d d4	 lea	 ecx, DWORD PTR $T8[ebp]
  00270	ff 15 00 00 00
	00		 call	 DWORD PTR __imp_??1?$CStringT@DV?$StrTraitMFC_DLL@DV?$ChTraitsCRT@D@ATL@@@@@ATL@@QAE@XZ
  00276	83 e7 ef	 and	 edi, -17		; ffffffefH
  00279	8d 4d ec	 lea	 ecx, DWORD PTR $T14[ebp]
  0027c	ff 15 00 00 00
	00		 call	 DWORD PTR __imp_??1?$CStringT@DV?$StrTraitMFC_DLL@DV?$ChTraitsCRT@D@ATL@@@@@ATL@@QAE@XZ
  00282	83 e7 f7	 and	 edi, -9			; fffffff7H
  00285	8d 4d e8	 lea	 ecx, DWORD PTR $T13[ebp]
  00288	ff 15 00 00 00
	00		 call	 DWORD PTR __imp_??1?$CStringT@DV?$StrTraitMFC_DLL@DV?$ChTraitsCRT@D@ATL@@@@@ATL@@QAE@XZ
  0028e	83 e7 fb	 and	 edi, -5			; fffffffbH
  00291	8d 4d e4	 lea	 ecx, DWORD PTR $T12[ebp]
  00294	ff 15 00 00 00
	00		 call	 DWORD PTR __imp_??1?$CStringT@DV?$StrTraitMFC_DLL@DV?$ChTraitsCRT@D@ATL@@@@@ATL@@QAE@XZ
  0029a	83 e7 fd	 and	 edi, -3			; fffffffdH
  0029d	8d 4d e0	 lea	 ecx, DWORD PTR $T11[ebp]
  002a0	ff 15 00 00 00
	00		 call	 DWORD PTR __imp_??1?$CStringT@DV?$StrTraitMFC_DLL@DV?$ChTraitsCRT@D@ATL@@@@@ATL@@QAE@XZ
  002a6	83 e7 fe	 and	 edi, -2			; fffffffeH
  002a9	89 7d dc	 mov	 DWORD PTR $T10[ebp], edi
  002ac	8d 4d d8	 lea	 ecx, DWORD PTR $T9[ebp]
  002af	ff 15 00 00 00
	00		 call	 DWORD PTR __imp_??1?$CStringT@DV?$StrTraitMFC_DLL@DV?$ChTraitsCRT@D@ATL@@@@@ATL@@QAE@XZ
  002b5	8d 4d c0	 lea	 ecx, DWORD PTR $T3[ebp]
  002b8	c6 45 fc 12	 mov	 BYTE PTR __$EHRec$[ebp+8], 18 ; 00000012H
  002bc	ff 15 00 00 00
	00		 call	 DWORD PTR __imp_??1?$CStringT@DV?$StrTraitMFC_DLL@DV?$ChTraitsCRT@D@ATL@@@@@ATL@@QAE@XZ

; 207  : 										+ strRealPacketName + _T(".")
; 208  : 										+ strRealFieldName + _T(".")
; 209  : 										+ strRealKeyCode + _T(";");
; 210  : 				p_strAdvisedInfo += strRealSettingInfo;

  002c2	8b 4d 08	 mov	 ecx, DWORD PTR _p_strAdvisedInfo$[ebp]
  002c5	8d 45 d0	 lea	 eax, DWORD PTR _strRealSettingInfo$7[ebp]
  002c8	50		 push	 eax
  002c9	ff 15 00 00 00
	00		 call	 DWORD PTR __imp_??Y?$CStringT@DV?$StrTraitMFC_DLL@DV?$ChTraitsCRT@D@ATL@@@@@ATL@@QAEAAV01@ABV?$CSimpleStringT@D$00@1@@Z

; 211  : 			}

  002cf	8d 4d d0	 lea	 ecx, DWORD PTR _strRealSettingInfo$7[ebp]
  002d2	ff 15 00 00 00
	00		 call	 DWORD PTR __imp_??1?$CStringT@DV?$StrTraitMFC_DLL@DV?$ChTraitsCRT@D@ATL@@@@@ATL@@QAE@XZ
  002d8	8d 4d cc	 lea	 ecx, DWORD PTR _strRealFieldName$6[ebp]
  002db	ff 15 00 00 00
	00		 call	 DWORD PTR __imp_??1?$CStringT@DV?$StrTraitMFC_DLL@DV?$ChTraitsCRT@D@ATL@@@@@ATL@@QAE@XZ
; File D:\git\src\IBK\IBK_DRFN\ProjSrc\SrcChartEx\ChartOCX\AddInManager\Include_AddIn\I000000\_IString.h

; 44   : 	{

  002e1	c6 45 fc 13	 mov	 BYTE PTR __$EHRec$[ebp+8], 19 ; 00000013H

; 45   : 		if( m_pIStrData)

  002e5	85 db		 test	 ebx, ebx
  002e7	74 14		 je	 SHORT $LN152@GetRealAdv

; 46   : 		{
; 47   : 			m_pIStrData->Release();

  002e9	8b 03		 mov	 eax, DWORD PTR [ebx]
  002eb	53		 push	 ebx
  002ec	ff 50 08	 call	 DWORD PTR [eax+8]

; 48   : 			m_pIStrData = NULL;

  002ef	c7 45 b4 00 00
	00 00		 mov	 DWORD PTR _szRealName$2[ebp+4], 0

; 49   : 			m_szData = NULL;

  002f6	c7 45 b0 00 00
	00 00		 mov	 DWORD PTR _szRealName$2[ebp], 0
$LN152@GetRealAdv:

; 50   : 		}
; 51   : 	}

  002fd	c6 45 fc 01	 mov	 BYTE PTR __$EHRec$[ebp+8], 1
; File D:\git\src\IBK\IBK_DRFN\ProjSrc\SrcChartEx\ChartOCX\AddInManager\ChartCommonAddIn\DrdsRealReceiverAddInImp.cpp

; 197  : 			while(posCodeGroup)

  00301	85 f6		 test	 esi, esi
  00303	0f 85 ab fd ff
	ff		 jne	 $LL6@GetRealAdv
$LN7@GetRealAdv:

; 212  : 		}

  00309	8d 4d c8	 lea	 ecx, DWORD PTR _strRealKeyCode$5[ebp]
  0030c	c6 45 fc 00	 mov	 BYTE PTR __$EHRec$[ebp+8], 0
  00310	ff 15 00 00 00
	00		 call	 DWORD PTR __imp_??1?$CStringT@DV?$StrTraitMFC_DLL@DV?$ChTraitsCRT@D@ATL@@@@@ATL@@QAE@XZ
  00316	8b 4d bc	 mov	 ecx, DWORD PTR _posPacketGroup$1$[ebp]
  00319	85 c9		 test	 ecx, ecx
  0031b	0f 85 6f fd ff
	ff		 jne	 $LL4@GetRealAdv
$LN5@GetRealAdv:

; 213  : 	}

  00321	8d 4d c4	 lea	 ecx, DWORD PTR _strRealPacketName$4[ebp]
  00324	c7 45 fc ff ff
	ff ff		 mov	 DWORD PTR __$EHRec$[ebp+8], -1
  0032b	ff 15 00 00 00
	00		 call	 DWORD PTR __imp_??1?$CStringT@DV?$StrTraitMFC_DLL@DV?$ChTraitsCRT@D@ATL@@@@@ATL@@QAE@XZ
  00331	8b 4d b8	 mov	 ecx, DWORD PTR _pos$1$[ebp]
  00334	85 c9		 test	 ecx, ecx
  00336	0f 85 28 fd ff
	ff		 jne	 $LL2@GetRealAdv
$LN3@GetRealAdv:

; 214  : 		
; 215  : 	return TRUE;

  0033c	b8 01 00 00 00	 mov	 eax, 1

; 216  : }

  00341	8b 4d f4	 mov	 ecx, DWORD PTR __$EHRec$[ebp]
  00344	64 89 0d 00 00
	00 00		 mov	 DWORD PTR fs:0, ecx
  0034b	59		 pop	 ecx
  0034c	5f		 pop	 edi
  0034d	5e		 pop	 esi
  0034e	5b		 pop	 ebx
  0034f	8b e5		 mov	 esp, ebp
  00351	5d		 pop	 ebp
  00352	c2 04 00	 ret	 4
_TEXT	ENDS
;	COMDAT text$x
text$x	SEGMENT
__unwindfunclet$?GetRealAdvisedInfo@CDrdsRealReceiverAddInImp@@MAEHAAV?$CStringT@DV?$StrTraitMFC_DLL@DV?$ChTraitsCRT@D@ATL@@@@@ATL@@@Z$0:
  00000	8d 4d c4	 lea	 ecx, DWORD PTR _strRealPacketName$4[ebp]
  00003	ff 25 00 00 00
	00		 jmp	 DWORD PTR __imp_??1?$CStringT@DV?$StrTraitMFC_DLL@DV?$ChTraitsCRT@D@ATL@@@@@ATL@@QAE@XZ
__unwindfunclet$?GetRealAdvisedInfo@CDrdsRealReceiverAddInImp@@MAEHAAV?$CStringT@DV?$StrTraitMFC_DLL@DV?$ChTraitsCRT@D@ATL@@@@@ATL@@@Z$1:
  00009	8d 4d c8	 lea	 ecx, DWORD PTR _strRealKeyCode$5[ebp]
  0000c	ff 25 00 00 00
	00		 jmp	 DWORD PTR __imp_??1?$CStringT@DV?$StrTraitMFC_DLL@DV?$ChTraitsCRT@D@ATL@@@@@ATL@@QAE@XZ
__unwindfunclet$?GetRealAdvisedInfo@CDrdsRealReceiverAddInImp@@MAEHAAV?$CStringT@DV?$StrTraitMFC_DLL@DV?$ChTraitsCRT@D@ATL@@@@@ATL@@@Z$2:
  00012	8d 4d b0	 lea	 ecx, DWORD PTR _szRealName$2[ebp]
  00015	e9 00 00 00 00	 jmp	 ??1ILPCSTR000000@@QAE@XZ ; ILPCSTR000000::~ILPCSTR000000
__unwindfunclet$?GetRealAdvisedInfo@CDrdsRealReceiverAddInImp@@MAEHAAV?$CStringT@DV?$StrTraitMFC_DLL@DV?$ChTraitsCRT@D@ATL@@@@@ATL@@@Z$3:
  0001a	8d 4d cc	 lea	 ecx, DWORD PTR _strRealFieldName$6[ebp]
  0001d	ff 25 00 00 00
	00		 jmp	 DWORD PTR __imp_??1?$CStringT@DV?$StrTraitMFC_DLL@DV?$ChTraitsCRT@D@ATL@@@@@ATL@@QAE@XZ
__unwindfunclet$?GetRealAdvisedInfo@CDrdsRealReceiverAddInImp@@MAEHAAV?$CStringT@DV?$StrTraitMFC_DLL@DV?$ChTraitsCRT@D@ATL@@@@@ATL@@@Z$4:
  00023	8d 4d c0	 lea	 ecx, DWORD PTR $T3[ebp]
  00026	ff 25 00 00 00
	00		 jmp	 DWORD PTR __imp_??1?$CStringT@DV?$StrTraitMFC_DLL@DV?$ChTraitsCRT@D@ATL@@@@@ATL@@QAE@XZ
__unwindfunclet$?GetRealAdvisedInfo@CDrdsRealReceiverAddInImp@@MAEHAAV?$CStringT@DV?$StrTraitMFC_DLL@DV?$ChTraitsCRT@D@ATL@@@@@ATL@@@Z$12:
  0002c	8b 45 f0	 mov	 eax, DWORD PTR $T15[ebp]
  0002f	83 e0 01	 and	 eax, 1
  00032	0f 84 0d 00 00
	00		 je	 $LN54@GetRealAdv
  00038	83 65 f0 fe	 and	 DWORD PTR $T15[ebp], -2	; fffffffeH
  0003c	8d 4d d8	 lea	 ecx, DWORD PTR $T9[ebp]
  0003f	ff 25 00 00 00
	00		 jmp	 DWORD PTR __imp_??1?$CStringT@DV?$StrTraitMFC_DLL@DV?$ChTraitsCRT@D@ATL@@@@@ATL@@QAE@XZ
$LN54@GetRealAdv:
  00045	c3		 ret	 0
__unwindfunclet$?GetRealAdvisedInfo@CDrdsRealReceiverAddInImp@@MAEHAAV?$CStringT@DV?$StrTraitMFC_DLL@DV?$ChTraitsCRT@D@ATL@@@@@ATL@@@Z$13:
  00046	8b 45 f0	 mov	 eax, DWORD PTR $T15[ebp]
  00049	83 e0 02	 and	 eax, 2
  0004c	0f 84 0d 00 00
	00		 je	 $LN67@GetRealAdv
  00052	83 65 f0 fd	 and	 DWORD PTR $T15[ebp], -3	; fffffffdH
  00056	8d 4d e0	 lea	 ecx, DWORD PTR $T11[ebp]
  00059	ff 25 00 00 00
	00		 jmp	 DWORD PTR __imp_??1?$CStringT@DV?$StrTraitMFC_DLL@DV?$ChTraitsCRT@D@ATL@@@@@ATL@@QAE@XZ
$LN67@GetRealAdv:
  0005f	c3		 ret	 0
__unwindfunclet$?GetRealAdvisedInfo@CDrdsRealReceiverAddInImp@@MAEHAAV?$CStringT@DV?$StrTraitMFC_DLL@DV?$ChTraitsCRT@D@ATL@@@@@ATL@@@Z$14:
  00060	8b 45 f0	 mov	 eax, DWORD PTR $T15[ebp]
  00063	83 e0 04	 and	 eax, 4
  00066	0f 84 0d 00 00
	00		 je	 $LN83@GetRealAdv
  0006c	83 65 f0 fb	 and	 DWORD PTR $T15[ebp], -5	; fffffffbH
  00070	8d 4d e4	 lea	 ecx, DWORD PTR $T12[ebp]
  00073	ff 25 00 00 00
	00		 jmp	 DWORD PTR __imp_??1?$CStringT@DV?$StrTraitMFC_DLL@DV?$ChTraitsCRT@D@ATL@@@@@ATL@@QAE@XZ
$LN83@GetRealAdv:
  00079	c3		 ret	 0
__unwindfunclet$?GetRealAdvisedInfo@CDrdsRealReceiverAddInImp@@MAEHAAV?$CStringT@DV?$StrTraitMFC_DLL@DV?$ChTraitsCRT@D@ATL@@@@@ATL@@@Z$15:
  0007a	8b 45 f0	 mov	 eax, DWORD PTR $T15[ebp]
  0007d	83 e0 08	 and	 eax, 8
  00080	0f 84 0d 00 00
	00		 je	 $LN96@GetRealAdv
  00086	83 65 f0 f7	 and	 DWORD PTR $T15[ebp], -9	; fffffff7H
  0008a	8d 4d e8	 lea	 ecx, DWORD PTR $T13[ebp]
  0008d	ff 25 00 00 00
	00		 jmp	 DWORD PTR __imp_??1?$CStringT@DV?$StrTraitMFC_DLL@DV?$ChTraitsCRT@D@ATL@@@@@ATL@@QAE@XZ
$LN96@GetRealAdv:
  00093	c3		 ret	 0
__unwindfunclet$?GetRealAdvisedInfo@CDrdsRealReceiverAddInImp@@MAEHAAV?$CStringT@DV?$StrTraitMFC_DLL@DV?$ChTraitsCRT@D@ATL@@@@@ATL@@@Z$16:
  00094	8b 45 f0	 mov	 eax, DWORD PTR $T15[ebp]
  00097	83 e0 10	 and	 eax, 16			; 00000010H
  0009a	0f 84 0d 00 00
	00		 je	 $LN112@GetRealAdv
  000a0	83 65 f0 ef	 and	 DWORD PTR $T15[ebp], -17 ; ffffffefH
  000a4	8d 4d ec	 lea	 ecx, DWORD PTR $T14[ebp]
  000a7	ff 25 00 00 00
	00		 jmp	 DWORD PTR __imp_??1?$CStringT@DV?$StrTraitMFC_DLL@DV?$ChTraitsCRT@D@ATL@@@@@ATL@@QAE@XZ
$LN112@GetRealAdv:
  000ad	c3		 ret	 0
__unwindfunclet$?GetRealAdvisedInfo@CDrdsRealReceiverAddInImp@@MAEHAAV?$CStringT@DV?$StrTraitMFC_DLL@DV?$ChTraitsCRT@D@ATL@@@@@ATL@@@Z$17:
  000ae	8b 45 f0	 mov	 eax, DWORD PTR $T15[ebp]
  000b1	83 e0 20	 and	 eax, 32			; 00000020H
  000b4	0f 84 0d 00 00
	00		 je	 $LN125@GetRealAdv
  000ba	83 65 f0 df	 and	 DWORD PTR $T15[ebp], -33 ; ffffffdfH
  000be	8d 4d d4	 lea	 ecx, DWORD PTR $T8[ebp]
  000c1	ff 25 00 00 00
	00		 jmp	 DWORD PTR __imp_??1?$CStringT@DV?$StrTraitMFC_DLL@DV?$ChTraitsCRT@D@ATL@@@@@ATL@@QAE@XZ
$LN125@GetRealAdv:
  000c7	c3		 ret	 0
__unwindfunclet$?GetRealAdvisedInfo@CDrdsRealReceiverAddInImp@@MAEHAAV?$CStringT@DV?$StrTraitMFC_DLL@DV?$ChTraitsCRT@D@ATL@@@@@ATL@@@Z$11:
  000c8	8d 4d d0	 lea	 ecx, DWORD PTR _strRealSettingInfo$7[ebp]
  000cb	ff 25 00 00 00
	00		 jmp	 DWORD PTR __imp_??1?$CStringT@DV?$StrTraitMFC_DLL@DV?$ChTraitsCRT@D@ATL@@@@@ATL@@QAE@XZ
  000d1	cc		 int	 3
  000d2	cc		 int	 3
  000d3	cc		 int	 3
  000d4	cc		 int	 3
  000d5	cc		 int	 3
__ehhandler$?GetRealAdvisedInfo@CDrdsRealReceiverAddInImp@@MAEHAAV?$CStringT@DV?$StrTraitMFC_DLL@DV?$ChTraitsCRT@D@ATL@@@@@ATL@@@Z:
  000d6	90		 npad	 1
  000d7	90		 npad	 1
  000d8	8b 54 24 08	 mov	 edx, DWORD PTR [esp+8]
  000dc	8d 42 0c	 lea	 eax, DWORD PTR [edx+12]
  000df	8b 4a ac	 mov	 ecx, DWORD PTR [edx-84]
  000e2	33 c8		 xor	 ecx, eax
  000e4	e8 00 00 00 00	 call	 @__security_check_cookie@4
  000e9	b8 00 00 00 00	 mov	 eax, OFFSET __ehfuncinfo$?GetRealAdvisedInfo@CDrdsRealReceiverAddInImp@@MAEHAAV?$CStringT@DV?$StrTraitMFC_DLL@DV?$ChTraitsCRT@D@ATL@@@@@ATL@@@Z
  000ee	e9 00 00 00 00	 jmp	 ___CxxFrameHandler3
text$x	ENDS
?GetRealAdvisedInfo@CDrdsRealReceiverAddInImp@@MAEHAAV?$CStringT@DV?$StrTraitMFC_DLL@DV?$ChTraitsCRT@D@ATL@@@@@ATL@@@Z ENDP ; CDrdsRealReceiverAddInImp::GetRealAdvisedInfo
; Function compile flags: /Ogtp
; File D:\git\src\IBK\IBK_DRFN\ProjSrc\SrcChartEx\ChartOCX\AddInManager\ChartCommonAddIn\DrdsRealReceiverAddInImp.cpp
;	COMDAT ?SetRealAdviseRQ@CDrdsRealReceiverAddInImp@@MAEHPBDH@Z
_TEXT	SEGMENT
_lpszRQ$ = 8						; size = 4
_p_bAdvise$ = 12					; size = 4
?SetRealAdviseRQ@CDrdsRealReceiverAddInImp@@MAEHPBDH@Z PROC ; CDrdsRealReceiverAddInImp::SetRealAdviseRQ, COMDAT
; _this$ = ecx

; 164  : {

  00000	55		 push	 ebp
  00001	8b ec		 mov	 ebp, esp

; 165  : 	if( p_bAdvise) return OnDrdsAdvise(lpszRQ);

  00003	ff 75 08	 push	 DWORD PTR _lpszRQ$[ebp]
  00006	83 c1 c0	 add	 ecx, -64		; ffffffc0H
  00009	83 7d 0c 00	 cmp	 DWORD PTR _p_bAdvise$[ebp], 0
  0000d	74 09		 je	 SHORT $LN2@SetRealAdv
  0000f	e8 00 00 00 00	 call	 ?OnDrdsAdvise@CDrdsRealReceiverAddInImp@@IAEHPBD@Z ; CDrdsRealReceiverAddInImp::OnDrdsAdvise

; 167  : }

  00014	5d		 pop	 ebp
  00015	c2 08 00	 ret	 8
$LN2@SetRealAdv:

; 166  : 	return OffDrdsAdvise(lpszRQ);

  00018	e8 00 00 00 00	 call	 ?OffDrdsAdvise@CDrdsRealReceiverAddInImp@@IAEHPBD@Z ; CDrdsRealReceiverAddInImp::OffDrdsAdvise

; 167  : }

  0001d	5d		 pop	 ebp
  0001e	c2 08 00	 ret	 8
?SetRealAdviseRQ@CDrdsRealReceiverAddInImp@@MAEHPBDH@Z ENDP ; CDrdsRealReceiverAddInImp::SetRealAdviseRQ
_TEXT	ENDS
; Function compile flags: /Ogtp
; File D:\git\src\IBK\IBK_DRFN\ProjSrc\SrcChartEx\ChartOCX\AddInManager\ChartCommonAddIn\DrdsRealReceiverAddInImp.cpp
;	COMDAT ?SetRealAdvise@CDrdsRealReceiverAddInImp@@MAEHH@Z
_TEXT	SEGMENT
_p_bAdvise$ = 8						; size = 4
?SetRealAdvise@CDrdsRealReceiverAddInImp@@MAEHH@Z PROC	; CDrdsRealReceiverAddInImp::SetRealAdvise, COMDAT
; _this$ = ecx

; 157  : {

  00000	55		 push	 ebp
  00001	8b ec		 mov	 ebp, esp
  00003	83 c1 c0	 add	 ecx, -64		; ffffffc0H

; 158  : 	if( p_bAdvise) return OnDrdsAdvise();

  00006	83 7d 08 00	 cmp	 DWORD PTR _p_bAdvise$[ebp], 0
  0000a	74 0d		 je	 SHORT $LN2@SetRealAdv
  0000c	c7 45 08 00 00
	00 00		 mov	 DWORD PTR _p_bAdvise$[ebp], 0

; 160  : }

  00013	5d		 pop	 ebp

; 158  : 	if( p_bAdvise) return OnDrdsAdvise();

  00014	e9 00 00 00 00	 jmp	 ?OnDrdsAdvise@CDrdsRealReceiverAddInImp@@IAEHPBD@Z ; CDrdsRealReceiverAddInImp::OnDrdsAdvise
$LN2@SetRealAdv:

; 159  : 	return OffDrdsAdvise();

  00019	c7 45 08 00 00
	00 00		 mov	 DWORD PTR _p_bAdvise$[ebp], 0

; 160  : }

  00020	5d		 pop	 ebp

; 159  : 	return OffDrdsAdvise();

  00021	e9 00 00 00 00	 jmp	 ?OffDrdsAdvise@CDrdsRealReceiverAddInImp@@IAEHPBD@Z ; CDrdsRealReceiverAddInImp::OffDrdsAdvise
?SetRealAdvise@CDrdsRealReceiverAddInImp@@MAEHH@Z ENDP	; CDrdsRealReceiverAddInImp::SetRealAdvise
_TEXT	ENDS
; Function compile flags: /Ogtp
; File D:\git\src\IBK\IBK_DRFN\ProjSrc\SrcChartEx\ChartOCX\AddInManager\ChartCommonAddIn\DrdsRealReceiverAddInImp.cpp
;	COMDAT ?RemoveRealSettingInfo@CDrdsRealReceiverAddInImp@@MAEHPBDPAV?$CStringT@DV?$StrTraitMFC_DLL@DV?$ChTraitsCRT@D@ATL@@@@@ATL@@D@Z
_TEXT	SEGMENT
_p_szRealSettingItem$ = 8				; size = 4
_p_pstrShareName$ = 12					; size = 4
_p_cSeparator$ = 16					; size = 1
?RemoveRealSettingInfo@CDrdsRealReceiverAddInImp@@MAEHPBDPAV?$CStringT@DV?$StrTraitMFC_DLL@DV?$ChTraitsCRT@D@ATL@@@@@ATL@@D@Z PROC ; CDrdsRealReceiverAddInImp::RemoveRealSettingInfo, COMDAT
; _this$ = ecx

; 143  : {

  00000	55		 push	 ebp
  00001	8b ec		 mov	 ebp, esp

; 144  : 	if( !m_plRealSettingInfoList) return FALSE;

  00003	8b 89 ec 00 00
	00		 mov	 ecx, DWORD PTR [ecx+236]
  00009	85 c9		 test	 ecx, ecx
  0000b	75 06		 jne	 SHORT $LN2@RemoveReal
  0000d	33 c0		 xor	 eax, eax

; 146  : }

  0000f	5d		 pop	 ebp
  00010	c2 0c 00	 ret	 12			; 0000000cH
$LN2@RemoveReal:
  00013	5d		 pop	 ebp

; 145  : 	return m_plRealSettingInfoList->RemoveRealSettingInfo( p_szRealSettingItem, p_pstrShareName, p_cSeparator);

  00014	e9 00 00 00 00	 jmp	 ?RemoveRealSettingInfo@CRealSettingInfoList@@QAEHPBDPAV?$CStringT@DV?$StrTraitMFC_DLL@DV?$ChTraitsCRT@D@ATL@@@@@ATL@@D@Z ; CRealSettingInfoList::RemoveRealSettingInfo
?RemoveRealSettingInfo@CDrdsRealReceiverAddInImp@@MAEHPBDPAV?$CStringT@DV?$StrTraitMFC_DLL@DV?$ChTraitsCRT@D@ATL@@@@@ATL@@D@Z ENDP ; CDrdsRealReceiverAddInImp::RemoveRealSettingInfo
_TEXT	ENDS
; Function compile flags: /Ogtp
; File D:\git\src\IBK\IBK_DRFN\ProjSrc\SrcChartEx\ChartOCX\AddInManager\ChartCommonAddIn\DrdsRealReceiverAddInImp.cpp
;	COMDAT ?AddRealSettingInfo@CDrdsRealReceiverAddInImp@@MAEHPBDPAV?$CStringT@DV?$StrTraitMFC_DLL@DV?$ChTraitsCRT@D@ATL@@@@@ATL@@1D@Z
_TEXT	SEGMENT
_p_szRealSettingItem$ = 8				; size = 4
_p_pstrShareName$ = 12					; size = 4
_p_pstrSharedData$ = 16					; size = 4
_p_cSeparator$ = 20					; size = 1
?AddRealSettingInfo@CDrdsRealReceiverAddInImp@@MAEHPBDPAV?$CStringT@DV?$StrTraitMFC_DLL@DV?$ChTraitsCRT@D@ATL@@@@@ATL@@1D@Z PROC ; CDrdsRealReceiverAddInImp::AddRealSettingInfo, COMDAT
; _this$ = ecx

; 122  : {

  00000	55		 push	 ebp
  00001	8b ec		 mov	 ebp, esp

; 123  : 	if( !m_plRealSettingInfoList) return FALSE;

  00003	8b 89 ec 00 00
	00		 mov	 ecx, DWORD PTR [ecx+236]
  00009	85 c9		 test	 ecx, ecx
  0000b	75 06		 jne	 SHORT $LN2@AddRealSet
  0000d	33 c0		 xor	 eax, eax

; 125  : }

  0000f	5d		 pop	 ebp
  00010	c2 10 00	 ret	 16			; 00000010H
$LN2@AddRealSet:
  00013	5d		 pop	 ebp

; 124  : 	return m_plRealSettingInfoList->AddRealSettingInfo( p_szRealSettingItem, p_pstrShareName, p_pstrSharedData, p_cSeparator);

  00014	e9 00 00 00 00	 jmp	 ?AddRealSettingInfo@CRealSettingInfoList@@QAEHPBDPAV?$CStringT@DV?$StrTraitMFC_DLL@DV?$ChTraitsCRT@D@ATL@@@@@ATL@@1D@Z ; CRealSettingInfoList::AddRealSettingInfo
?AddRealSettingInfo@CDrdsRealReceiverAddInImp@@MAEHPBDPAV?$CStringT@DV?$StrTraitMFC_DLL@DV?$ChTraitsCRT@D@ATL@@@@@ATL@@1D@Z ENDP ; CDrdsRealReceiverAddInImp::AddRealSettingInfo
_TEXT	ENDS
; Function compile flags: /Ogtp
; File D:\git\src\IBK\IBK_DRFN\ProjSrc\SrcChartEx\ChartOCX\AddInManager\ChartCommonAddIn\DrdsRealReceiverAddInImp.cpp
;	COMDAT ?ResetRealSettingInfo@CDrdsRealReceiverAddInImp@@MAEHPBD@Z
_TEXT	SEGMENT
_p_szRealSettingInfo$ = 8				; size = 4
?ResetRealSettingInfo@CDrdsRealReceiverAddInImp@@MAEHPBD@Z PROC ; CDrdsRealReceiverAddInImp::ResetRealSettingInfo, COMDAT
; _this$ = ecx

; 108  : {

  00000	55		 push	 ebp
  00001	8b ec		 mov	 ebp, esp

; 109  : 	// (2004.11.29, ) XFM Real  m_strRealList  Real Setting Info .
; 110  : 	if( !m_plRealSettingInfoList) return FALSE;

  00003	8b 89 ec 00 00
	00		 mov	 ecx, DWORD PTR [ecx+236]
  00009	85 c9		 test	 ecx, ecx
  0000b	75 06		 jne	 SHORT $LN2@ResetRealS
  0000d	33 c0		 xor	 eax, eax

; 112  : }

  0000f	5d		 pop	 ebp
  00010	c2 04 00	 ret	 4
$LN2@ResetRealS:
  00013	5d		 pop	 ebp

; 111  : 	return m_plRealSettingInfoList->ResetRealSettingInfo( p_szRealSettingInfo);

  00014	e9 00 00 00 00	 jmp	 ?ResetRealSettingInfo@CRealSettingInfoList@@QAEHPBD@Z ; CRealSettingInfoList::ResetRealSettingInfo
?ResetRealSettingInfo@CDrdsRealReceiverAddInImp@@MAEHPBD@Z ENDP ; CDrdsRealReceiverAddInImp::ResetRealSettingInfo
_TEXT	ENDS
; Function compile flags: /Ogtp
; File D:\git\src\IBK\IBK_DRFN\ProjSrc\SrcChartEx\ChartOCX\AddInManager\ChartCommonAddIn\DrdsRealReceiverAddInImp.h
;	COMDAT ?GetRegisteredEventMap@CDrdsRealReceiverAddInImp@@MBEPBW4EAddInEventType@IChartAddIn000000@@XZ
_TEXT	SEGMENT
?GetRegisteredEventMap@CDrdsRealReceiverAddInImp@@MBEPBW4EAddInEventType@IChartAddIn000000@@XZ PROC ; CDrdsRealReceiverAddInImp::GetRegisteredEventMap, COMDAT
; _this$ = ecx

; 25   : 	DECLARE_ADDIN_EVENT_MAP()

  00000	b8 00 00 00 00	 mov	 eax, OFFSET ?m_eRegisteredEventMap@CDrdsRealReceiverAddInImp@@1QBW4EAddInEventType@IChartAddIn000000@@B ; CDrdsRealReceiverAddInImp::m_eRegisteredEventMap
  00005	c3		 ret	 0
?GetRegisteredEventMap@CDrdsRealReceiverAddInImp@@MBEPBW4EAddInEventType@IChartAddIn000000@@XZ ENDP ; CDrdsRealReceiverAddInImp::GetRegisteredEventMap
_TEXT	ENDS
; Function compile flags: /Ogtp
; File D:\git\src\IBK\IBK_DRFN\ProjSrc\SrcChartEx\ChartOCX\AddInManager\ChartCommonAddIn\DrdsRealReceiverAddInImp.cpp
; File C:\Program Files (x86)\Microsoft Visual Studio\2019\Community\VC\Tools\MSVC\14.29.30133\atlmfc\include\afxwin2.inl
; File D:\git\src\IBK\IBK_DRFN\ProjSrc\SrcChartEx\ChartOCX\Include\LoadDrds.h
; File D:\git\src\IBK\IBK_DRFN\ProjSrc\SrcChartEx\ChartOCX\AddInManager\ChartCommonAddIn\DrdsRealReceiverAddInImp.cpp
; File D:\git\src\IBK\IBK_DRFN\ProjSrc\SrcChartEx\ChartOCX\Include\LoadDrds.h
; File D:\git\src\IBK\IBK_DRFN\ProjSrc\SrcChartEx\ChartOCX\AddInManager\ChartCommonAddIn\DrdsRealReceiverAddInImp.cpp
;	COMDAT ??1CDrdsRealReceiverAddInImp@@UAE@XZ
_TEXT	SEGMENT
__$EHRec$ = -12						; size = 12
??1CDrdsRealReceiverAddInImp@@UAE@XZ PROC		; CDrdsRealReceiverAddInImp::~CDrdsRealReceiverAddInImp, COMDAT
; _this$ = ecx

; 71   : {

  00000	55		 push	 ebp
  00001	8b ec		 mov	 ebp, esp
  00003	6a ff		 push	 -1
  00005	68 00 00 00 00	 push	 __ehhandler$??1CDrdsRealReceiverAddInImp@@UAE@XZ
  0000a	64 a1 00 00 00
	00		 mov	 eax, DWORD PTR fs:0
  00010	50		 push	 eax
  00011	53		 push	 ebx
  00012	56		 push	 esi
  00013	57		 push	 edi
  00014	a1 00 00 00 00	 mov	 eax, DWORD PTR ___security_cookie
  00019	33 c5		 xor	 eax, ebp
  0001b	50		 push	 eax
  0001c	8d 45 f4	 lea	 eax, DWORD PTR __$EHRec$[ebp]
  0001f	64 a3 00 00 00
	00		 mov	 DWORD PTR fs:0, eax
  00025	8b f1		 mov	 esi, ecx

; 72   : 	if( m_DrdsDLL.m_hLib && m_DrdsVoid)

  00027	8b 8e 24 01 00
	00		 mov	 ecx, DWORD PTR [esi+292]
  0002d	8b 1d 00 00 00
	00		 mov	 ebx, DWORD PTR __imp__FreeLibrary@4
  00033	c7 06 00 00 00
	00		 mov	 DWORD PTR [esi], OFFSET ??_7CDrdsRealReceiverAddInImp@@6BCIWUnknown@@@
  00039	c7 46 08 00 00
	00 00		 mov	 DWORD PTR [esi+8], OFFSET ??_7CDrdsRealReceiverAddInImp@@6BIChartAddIn000000@@@
  00040	c7 46 40 00 00
	00 00		 mov	 DWORD PTR [esi+64], OFFSET ??_7CDrdsRealReceiverAddInImp@@6BIRealReceiver@@@
  00047	c7 46 44 00 00
	00 00		 mov	 DWORD PTR [esi+68], OFFSET ??_7CDrdsRealReceiverAddInImp@@6BIOldFXRealReceiver@@@
  0004e	c7 46 48 00 00
	00 00		 mov	 DWORD PTR [esi+72], OFFSET ??_7CDrdsRealReceiverAddInImp@@6BIOldHTSRealReceiver@@@
  00055	85 c9		 test	 ecx, ecx
  00057	74 5f		 je	 SHORT $LN18@CDrdsRealR
  00059	8b 9e 20 01 00
	00		 mov	 ebx, DWORD PTR [esi+288]
  0005f	85 db		 test	 ebx, ebx
  00061	74 4f		 je	 SHORT $LN28@CDrdsRealR

; 73   : 	{
; 74   : 		m_DrdsDLL.DrdsTerm(m_DrdsVoid, m_pChartCWnd->GetSafeHwnd());

  00063	8b 46 10	 mov	 eax, DWORD PTR [esi+16]
; File C:\Program Files (x86)\Microsoft Visual Studio\2019\Community\VC\Tools\MSVC\14.29.30133\atlmfc\include\afxwin2.inl

; 25   : 	{ return this == NULL ? NULL : m_hWnd; }

  00066	85 c0		 test	 eax, eax
  00068	75 04		 jne	 SHORT $LN12@CDrdsRealR
  0006a	33 ff		 xor	 edi, edi
  0006c	eb 03		 jmp	 SHORT $LN13@CDrdsRealR
$LN12@CDrdsRealR:
  0006e	8b 78 20	 mov	 edi, DWORD PTR [eax+32]
$LN13@CDrdsRealR:
; File D:\git\src\IBK\IBK_DRFN\ProjSrc\SrcChartEx\ChartOCX\Include\LoadDrds.h

; 153  : 		fnDrdsTerm = (Drds_Term)::GetProcAddress(m_hLib,"DrdsTerm");

  00071	68 00 00 00 00	 push	 OFFSET ??_C@_08MAPPPPMA@DrdsTerm@
  00076	51		 push	 ecx
  00077	ff 15 00 00 00
	00		 call	 DWORD PTR __imp__GetProcAddress@8

; 154  : 
; 155  : 		if(fnDrdsTerm == NULL)

  0007d	85 c0		 test	 eax, eax
  0007f	75 0e		 jne	 SHORT $LN16@CDrdsRealR

; 156  : 		{
; 157  : 			AfxMessageBox("DrdsTerm() is not found.");

  00081	50		 push	 eax
  00082	50		 push	 eax
  00083	68 00 00 00 00	 push	 OFFSET ??_C@_0BJ@DCKIHAKI@DrdsTerm?$CI?$CJ?5is?5not?5found?4@
  00088	e8 00 00 00 00	 call	 ?AfxMessageBox@@YGHPBDII@Z ; AfxMessageBox

; 158  : 			return FALSE;

  0008d	eb 04		 jmp	 SHORT $LN14@CDrdsRealR
$LN16@CDrdsRealR:

; 159  : 		}
; 160  : 
; 161  : 		BOOL bResult; 
; 162  : 		bResult = fnDrdsTerm(pDrds,hWnd);

  0008f	57		 push	 edi
  00090	53		 push	 ebx
  00091	ff d0		 call	 eax
$LN14@CDrdsRealR:

; 85   : 		if(m_hLib == NULL)  return TRUE;

  00093	8b 86 24 01 00
	00		 mov	 eax, DWORD PTR [esi+292]
  00099	8b 1d 00 00 00
	00		 mov	 ebx, DWORD PTR __imp__FreeLibrary@4
  0009f	85 c0		 test	 eax, eax
  000a1	74 15		 je	 SHORT $LN18@CDrdsRealR

; 86   : 
; 87   : 		BOOL bResult = ::FreeLibrary(m_hLib);

  000a3	50		 push	 eax
  000a4	ff d3		 call	 ebx

; 88   : 		m_hLib = NULL;

  000a6	c7 86 24 01 00
	00 00 00 00 00	 mov	 DWORD PTR [esi+292], 0
  000b0	eb 06		 jmp	 SHORT $LN18@CDrdsRealR
$LN28@CDrdsRealR:
; File D:\git\src\IBK\IBK_DRFN\ProjSrc\SrcChartEx\ChartOCX\AddInManager\ChartCommonAddIn\DrdsRealReceiverAddInImp.cpp

; 72   : 	if( m_DrdsDLL.m_hLib && m_DrdsVoid)

  000b2	8b 1d 00 00 00
	00		 mov	 ebx, DWORD PTR __imp__FreeLibrary@4
$LN18@CDrdsRealR:

; 75   : 		m_DrdsDLL.UnLoadLib();
; 76   : 	}
; 77   : 
; 78   : 	// (2004.11.30, )  Real Setting Info, DRDS Advised Info, Local Share Info .
; 79   : 	if( m_plRealSettingInfoList)

  000b8	8b 8e 2c 01 00
	00		 mov	 ecx, DWORD PTR [esi+300]
  000be	85 c9		 test	 ecx, ecx
  000c0	74 20		 je	 SHORT $LN3@CDrdsRealR

; 80   : 	{
; 81   : 		m_plRealSettingInfoList->RemoveAllRealSettingInfo();

  000c2	e8 00 00 00 00	 call	 ?RemoveAllRealSettingInfo@CRealSettingInfoList@@QAEXXZ ; CRealSettingInfoList::RemoveAllRealSettingInfo

; 82   : 		delete m_plRealSettingInfoList;

  000c7	8b 8e 2c 01 00
	00		 mov	 ecx, DWORD PTR [esi+300]
  000cd	85 c9		 test	 ecx, ecx
  000cf	74 07		 je	 SHORT $LN6@CDrdsRealR
  000d1	8b 01		 mov	 eax, DWORD PTR [ecx]
  000d3	6a 01		 push	 1
  000d5	ff 50 04	 call	 DWORD PTR [eax+4]
$LN6@CDrdsRealR:

; 83   : 		m_plRealSettingInfoList = NULL;

  000d8	c7 86 2c 01 00
	00 00 00 00 00	 mov	 DWORD PTR [esi+300], 0
$LN3@CDrdsRealR:

; 84   : 	}
; 85   : 	if( m_plDrdsAdvisedInfoList)

  000e2	8b 8e 30 01 00
	00		 mov	 ecx, DWORD PTR [esi+304]
  000e8	85 c9		 test	 ecx, ecx
  000ea	74 20		 je	 SHORT $LN4@CDrdsRealR

; 86   : 	{
; 87   : 		m_plDrdsAdvisedInfoList->RemoveAllDrdsAdvisedInfo();

  000ec	e8 00 00 00 00	 call	 ?RemoveAllDrdsAdvisedInfo@CDrdsAdvisedInfoList@@QAEXXZ ; CDrdsAdvisedInfoList::RemoveAllDrdsAdvisedInfo

; 88   : 		delete m_plDrdsAdvisedInfoList;

  000f1	8b 8e 30 01 00
	00		 mov	 ecx, DWORD PTR [esi+304]
  000f7	85 c9		 test	 ecx, ecx
  000f9	74 07		 je	 SHORT $LN8@CDrdsRealR
  000fb	8b 01		 mov	 eax, DWORD PTR [ecx]
  000fd	6a 01		 push	 1
  000ff	ff 50 04	 call	 DWORD PTR [eax+4]
$LN8@CDrdsRealR:

; 89   : 		m_plDrdsAdvisedInfoList = NULL;

  00102	c7 86 30 01 00
	00 00 00 00 00	 mov	 DWORD PTR [esi+304], 0
$LN4@CDrdsRealR:
; File D:\git\src\IBK\IBK_DRFN\ProjSrc\SrcChartEx\ChartOCX\Include\LoadDrds.h

; 85   : 		if(m_hLib == NULL)  return TRUE;

  0010c	8b 86 24 01 00
	00		 mov	 eax, DWORD PTR [esi+292]
  00112	85 c0		 test	 eax, eax
  00114	74 0d		 je	 SHORT $LN24@CDrdsRealR

; 86   : 
; 87   : 		BOOL bResult = ::FreeLibrary(m_hLib);

  00116	50		 push	 eax
  00117	ff d3		 call	 ebx

; 88   : 		m_hLib = NULL;

  00119	c7 86 24 01 00
	00 00 00 00 00	 mov	 DWORD PTR [esi+292], 0
$LN24@CDrdsRealR:

; 57   : 	}

  00123	8d 8e 28 01 00
	00		 lea	 ecx, DWORD PTR [esi+296]
  00129	ff 15 00 00 00
