; Listing generated by Microsoft (R) Optimizing Compiler Version 19.29.30145.0 

	TITLE	D:\git\src\IBK\IBK_DRFN\#DRfn-CS\_Obj\ChartCommonAddIn\GapRevisionAddInImp.obj
	.686P
	.XMM
	include listing.inc
	.model	flat

INCLUDELIB MSVCRT
INCLUDELIB OLDNAMES

PUBLIC	??_C@_0N@HCAKPNHK@GAP_REVISION@			; `string'
PUBLIC	?m_eRegisteredEventMap@CGapRevisionAddInImp@@1QBW4EAddInEventType@IChartAddIn000000@@B ; CGapRevisionAddInImp::m_eRegisteredEventMap
CONST	SEGMENT
?m_eRegisteredEventMap@CGapRevisionAddInImp@@1QBW4EAddInEventType@IChartAddIn000000@@B DD 0cH ; CGapRevisionAddInImp::m_eRegisteredEventMap
	DD	0aH
	DD	07H
	DD	033H
	DD	034H
	DD	037H
	DD	032H
	DD	03cH
	ORG $+212
CONST	ENDS
;	COMDAT ??_C@_0N@HCAKPNHK@GAP_REVISION@
CONST	SEGMENT
??_C@_0N@HCAKPNHK@GAP_REVISION@ DB 'GAP_REVISION', 00H	; `string'
CONST	ENDS
PUBLIC	?__empty_global_delete@@YAXPAX@Z		; __empty_global_delete
PUBLIC	?__empty_global_delete@@YAXPAXI@Z		; __empty_global_delete
PUBLIC	??1CObject@@UAE@XZ				; CObject::~CObject
PUBLIC	?Serialize@CObject@@UAEXAAVCArchive@@@Z		; CObject::Serialize
PUBLIC	?AssertValid@CObject@@UBEXXZ			; CObject::AssertValid
PUBLIC	?Dump@CObject@@UBEXAAVCDumpContext@@@Z		; CObject::Dump
PUBLIC	?PostConstruct@CIWUnknown@@MAEXXZ		; CIWUnknown::PostConstruct
PUBLIC	?PreDestructX@CIWUnknown@@MAEXXZ		; CIWUnknown::PreDestructX
PUBLIC	?PreDestruct@CIWUnknown@@MAEXXZ			; CIWUnknown::PreDestruct
PUBLIC	?AddRef@CChartAddInBase000000@@MAGKXZ		; CChartAddInBase000000::AddRef
PUBLIC	?Release@CChartAddInBase000000@@MAGKXZ		; CChartAddInBase000000::Release
PUBLIC	?QueryInterface@CChartAddInBase000000@@MAGJABU_GUID@@PAPAX@Z ; CChartAddInBase000000::QueryInterface
PUBLIC	?GetAddInCustomInterface@CChartAddInBase000000@@MAEPAUIUnknown@@XZ ; CChartAddInBase000000::GetAddInCustomInterface
PUBLIC	?InvokeAddInStr@CChartAddInBase000000@@MAEHPBD0@Z ; CChartAddInBase000000::InvokeAddInStr
PUBLIC	?AfeterOnOcxDestroyWindow@CChartAddInBase000000@@MAEXXZ ; CChartAddInBase000000::AfeterOnOcxDestroyWindow
PUBLIC	?ChangeChartMode@CChartAddInBase000000@@MAEXW4CHART_MODE@CChartInfo@@@Z ; CChartAddInBase000000::ChangeChartMode
PUBLIC	?OnGSharedDataChange@CChartAddInBase000000@@MAEXPBD0H@Z ; CChartAddInBase000000::OnGSharedDataChange
PUBLIC	?OnLSharedDataChange@CChartAddInBase000000@@MAEXPBD0@Z ; CChartAddInBase000000::OnLSharedDataChange
PUBLIC	?OnResetChart@CChartAddInBase000000@@MAEXXZ	; CChartAddInBase000000::OnResetChart
PUBLIC	?OnDrawBeforeGraph@CChartAddInBase000000@@MAEXPAUHDC__@@@Z ; CChartAddInBase000000::OnDrawBeforeGraph
PUBLIC	?OnDrawAfterGraph@CChartAddInBase000000@@MAEXPAUHDC__@@@Z ; CChartAddInBase000000::OnDrawAfterGraph
PUBLIC	?OnTimer@CChartAddInBase000000@@MAEXI@Z		; CChartAddInBase000000::OnTimer
PUBLIC	?OnCaptureChanged@CChartAddInBase000000@@MAEXPAUHWND__@@QAUHBITMAP__@@@Z ; CChartAddInBase000000::OnCaptureChanged
PUBLIC	?OnResetMainBlock@CChartAddInBase000000@@MAEXXZ	; CChartAddInBase000000::OnResetMainBlock
PUBLIC	?OnUserIndiatorConditionLoaded@CChartAddInBase000000@@MAEXXZ ; CChartAddInBase000000::OnUserIndiatorConditionLoaded
PUBLIC	?OnChartItemChanged@CChartAddInBase000000@@MAEXXZ ; CChartAddInBase000000::OnChartItemChanged
PUBLIC	?OnGraphDataChanged@CChartAddInBase000000@@MAEXXZ ; CChartAddInBase000000::OnGraphDataChanged
PUBLIC	?OnBlockRemoved@CChartAddInBase000000@@MAEXHH@Z	; CChartAddInBase000000::OnBlockRemoved
PUBLIC	?OnGraphAdded@CChartAddInBase000000@@MAEXPBD0@Z	; CChartAddInBase000000::OnGraphAdded
PUBLIC	?OnManualRealData@CChartAddInBase000000@@MAEXPBDNH@Z ; CChartAddInBase000000::OnManualRealData
PUBLIC	?OnContextMenu@CChartAddInBase000000@@MAEXPAUHWND__@@AAUtagPOINT@@@Z ; CChartAddInBase000000::OnContextMenu
PUBLIC	?OnGraphDeleted@CChartAddInBase000000@@MAEXPBD0@Z ; CChartAddInBase000000::OnGraphDeleted
PUBLIC	?OnPacketTruncated@CChartAddInBase000000@@MAEXH@Z ; CChartAddInBase000000::OnPacketTruncated
PUBLIC	?OnBlockChanged@CChartAddInBase000000@@MAEXW4BLOCKBEHAVIOR@CBlockBaseData@@HHHH@Z ; CChartAddInBase000000::OnBlockChanged
PUBLIC	?OnToolCommand@CChartAddInBase000000@@MAEXHH@Z	; CChartAddInBase000000::OnToolCommand
PUBLIC	?OnRealData@CChartAddInBase000000@@MAEXPBDN0@Z	; CChartAddInBase000000::OnRealData
PUBLIC	?OnIndexedRealData@CChartAddInBase000000@@MAEXPBDHN@Z ; CChartAddInBase000000::OnIndexedRealData
PUBLIC	?DrawCursor@CChartAddInBase000000@@MAE?AUtagRECT@@PAUHDC__@@@Z ; CChartAddInBase000000::DrawCursor
PUBLIC	?OnRecalculationComplete@CChartAddInBase000000@@MAEXXZ ; CChartAddInBase000000::OnRecalculationComplete
PUBLIC	?OnPreRealData@CChartAddInBase000000@@MAEHPBDAAN0H@Z ; CChartAddInBase000000::OnPreRealData
PUBLIC	?OnPreIndexedRealData@CChartAddInBase000000@@MAEHPBDHAANH@Z ; CChartAddInBase000000::OnPreIndexedRealData
PUBLIC	?OnPreRealPacketEnd@CChartAddInBase000000@@MAEHPBDH@Z ; CChartAddInBase000000::OnPreRealPacketEnd
PUBLIC	?OnPreNMTRClock@CChartAddInBase000000@@MAEHAA_J@Z ; CChartAddInBase000000::OnPreNMTRClock
PUBLIC	?OnCmdMsg@CChartAddInBase000000@@MAEHIHPAUICmdUI000000@@@Z ; CChartAddInBase000000::OnCmdMsg
PUBLIC	?OnAddInMsg@CChartAddInBase000000@@MAEHPBDJ@Z	; CChartAddInBase000000::OnAddInMsg
PUBLIC	?OnAddInToolCommand@CChartAddInBase000000@@MAEHW4EAICommandType@@@Z ; CChartAddInBase000000::OnAddInToolCommand
PUBLIC	?OnAddInToolCommand@CChartAddInBase000000@@MAEHW4EAICommandType@@PAUHDC__@@IAAUtagPOINT@@K@Z ; CChartAddInBase000000::OnAddInToolCommand
PUBLIC	?OnAddInToolCommand@CChartAddInBase000000@@MAEHW4EAICommandType@@PBD@Z ; CChartAddInBase000000::OnAddInToolCommand
PUBLIC	?OnAddInToolCommand@CChartAddInBase000000@@MAEHW4EAICommandType@@PBD1@Z ; CChartAddInBase000000::OnAddInToolCommand
PUBLIC	?OnAddInToolCommand@CChartAddInBase000000@@MAEHW4EAICommandType@@PBDJ@Z ; CChartAddInBase000000::OnAddInToolCommand
PUBLIC	?OnAddInToolCommand@CChartAddInBase000000@@MAEHW4EAICommandType@@PBUIAddInDllBase@@@Z ; CChartAddInBase000000::OnAddInToolCommand
PUBLIC	?OnAddInToolCommand@CChartAddInBase000000@@MAEHW4EAICommandType@@JPBD@Z ; CChartAddInBase000000::OnAddInToolCommand
PUBLIC	?OnAddInToolCommand@CChartAddInBase000000@@MAEHW4EAICommandType@@JPBD11@Z ; CChartAddInBase000000::OnAddInToolCommand
PUBLIC	?OnAddInToolCommand@CChartAddInBase000000@@MAEHW4EAICommandType@@JJJJJJJJJ@Z ; CChartAddInBase000000::OnAddInToolCommand
PUBLIC	?OnAddInToolCommand@CChartAddInBase000000@@MAEHAAJW4EAICommandType@@PAUIGraphInfo000000@@@Z ; CChartAddInBase000000::OnAddInToolCommand
PUBLIC	?OnAddInToolCommand@CChartAddInBase000000@@MAEHAAJW4EAICommandType@@PBD@Z ; CChartAddInBase000000::OnAddInToolCommand
PUBLIC	?OnAddInToolCommand@CChartAddInBase000000@@MAEHAAJW4EAICommandType@@PBDPAVCObject@@@Z ; CChartAddInBase000000::OnAddInToolCommand
PUBLIC	?OnAddInToolCommand@CChartAddInBase000000@@MAEHAAJW4EAICommandType@@J@Z ; CChartAddInBase000000::OnAddInToolCommand
PUBLIC	?OnAddInToolCommand@CChartAddInBase000000@@MAEHAAJW4EAICommandType@@JJ@Z ; CChartAddInBase000000::OnAddInToolCommand
PUBLIC	?OnKeyDown@CChartAddInBase000000@@MAEHIII@Z	; CChartAddInBase000000::OnKeyDown
PUBLIC	?OnKeyUp@CChartAddInBase000000@@MAEHIII@Z	; CChartAddInBase000000::OnKeyUp
PUBLIC	?OnMouseWheel@CChartAddInBase000000@@MAEHIFUtagPOINT@@K@Z ; CChartAddInBase000000::OnMouseWheel
PUBLIC	?OnMouseMove@CChartAddInBase000000@@MAEHPAUHDC__@@IAAUtagPOINT@@KQAUHBITMAP__@@@Z ; CChartAddInBase000000::OnMouseMove
PUBLIC	?OnLButtonDown@CChartAddInBase000000@@MAEHPAUHDC__@@IAAUtagPOINT@@K@Z ; CChartAddInBase000000::OnLButtonDown
PUBLIC	?OnLButtonUp@CChartAddInBase000000@@MAEHPAUHDC__@@IAAUtagPOINT@@K@Z ; CChartAddInBase000000::OnLButtonUp
PUBLIC	?OnLButtonDblClk@CChartAddInBase000000@@MAEHPAUHDC__@@IAAUtagPOINT@@K@Z ; CChartAddInBase000000::OnLButtonDblClk
PUBLIC	?OnRButtonDown@CChartAddInBase000000@@MAEHPAUHDC__@@IAAUtagPOINT@@K@Z ; CChartAddInBase000000::OnRButtonDown
PUBLIC	?OnRButtonUp@CChartAddInBase000000@@MAEHPAUHDC__@@IAAUtagPOINT@@K@Z ; CChartAddInBase000000::OnRButtonUp
PUBLIC	?OnRButtonDblClk@CChartAddInBase000000@@MAEHPAUHDC__@@IAAUtagPOINT@@K@Z ; CChartAddInBase000000::OnRButtonDblClk
PUBLIC	??0ST_GAP_INFO@@QAE@XZ				; ST_GAP_INFO::ST_GAP_INFO
PUBLIC	??1ST_GAP_INFO@@QAE@XZ				; ST_GAP_INFO::~ST_GAP_INFO
PUBLIC	?Init@ST_GAP_INFO@@QAEXXZ			; ST_GAP_INFO::Init
PUBLIC	?SetGapInfo@ST_GAP_INFO@@QAEXNH@Z		; ST_GAP_INFO::SetGapInfo
PUBLIC	?GetGapInfo@ST_GAP_INFO@@QAENH@Z		; ST_GAP_INFO::GetGapInfo
PUBLIC	?SetRealDate@ST_GAP_INFO@@QAEXH@Z		; ST_GAP_INFO::SetRealDate
PUBLIC	?GetRealDate@ST_GAP_INFO@@QAEHXZ		; ST_GAP_INFO::GetRealDate
PUBLIC	?SetPacketCount@ST_GAP_INFO@@QAEXH@Z		; ST_GAP_INFO::SetPacketCount
PUBLIC	?GetPacketCount@ST_GAP_INFO@@QAEHXZ		; ST_GAP_INFO::GetPacketCount
PUBLIC	?GetAllGapInfo@ST_GAP_INFO@@QAEHAAN@Z		; ST_GAP_INFO::GetAllGapInfo
PUBLIC	??0?$CList@NN@@QAE@H@Z				; CList<double,double>::CList<double,double>
PUBLIC	?AddHead@?$CList@NN@@QAEPAU__POSITION@@N@Z	; CList<double,double>::AddHead
PUBLIC	?AddTail@?$CList@NN@@QAEPAU__POSITION@@N@Z	; CList<double,double>::AddTail
PUBLIC	?RemoveAll@?$CList@NN@@QAEXXZ			; CList<double,double>::RemoveAll
PUBLIC	?FindIndex@?$CList@NN@@QBEPAU__POSITION@@H@Z	; CList<double,double>::FindIndex
PUBLIC	?NewNode@?$CList@NN@@IAEPAUCNode@1@PAU21@0@Z	; CList<double,double>::NewNode
PUBLIC	??1?$CList@NN@@UAE@XZ				; CList<double,double>::~CList<double,double>
PUBLIC	?Serialize@?$CList@NN@@UAEXAAVCArchive@@@Z	; CList<double,double>::Serialize
PUBLIC	??_G?$CList@NN@@UAEPAXI@Z			; CList<double,double>::`scalar deleting destructor'
PUBLIC	??_GST_GAP_INFO@@QAEPAXI@Z			; ST_GAP_INFO::`scalar deleting destructor'
PUBLIC	??0CGapRevisionAddInImp@@QAE@PAUIChartOCX000000@@PAUIAddInDllBase@@@Z ; CGapRevisionAddInImp::CGapRevisionAddInImp
PUBLIC	??1CGapRevisionAddInImp@@UAE@XZ			; CGapRevisionAddInImp::~CGapRevisionAddInImp
PUBLIC	??_G?$CTypedPtrMap@VCMapStringToPtr@@V?$CStringT@DV?$StrTraitMFC_DLL@DV?$ChTraitsCRT@D@ATL@@@@@ATL@@PAUST_GAP_INFO@@@@UAEPAXI@Z ; CTypedPtrMap<CMapStringToPtr,ATL::CStringT<char,StrTraitMFC_DLL<char,ATL::ChTraitsCRT<char> > >,ST_GAP_INFO *>::`scalar deleting destructor'
PUBLIC	?InvokeAddIn@CGapRevisionAddInImp@@MAEHHJ@Z	; CGapRevisionAddInImp::InvokeAddIn
PUBLIC	?SetUseGapRevision@CGapRevisionAddInImp@@MAEXHH@Z ; CGapRevisionAddInImp::SetUseGapRevision
PUBLIC	?CalcGapRevision@CGapRevisionAddInImp@@MAEXPBDH@Z ; CGapRevisionAddInImp::CalcGapRevision
PUBLIC	?CalcGapRevisionReal@CGapRevisionAddInImp@@MAEXPBD@Z ; CGapRevisionAddInImp::CalcGapRevisionReal
PUBLIC	?RestoreGapRevision@CGapRevisionAddInImp@@MAEXPBD@Z ; CGapRevisionAddInImp::RestoreGapRevision
PUBLIC	?GetRegisteredEventMap@CGapRevisionAddInImp@@MBEPBW4EAddInEventType@IChartAddIn000000@@XZ ; CGapRevisionAddInImp::GetRegisteredEventMap
PUBLIC	?OnAddInToolCommand@CGapRevisionAddInImp@@MAEHW4EAICommandType@@JJ@Z ; CGapRevisionAddInImp::OnAddInToolCommand
PUBLIC	?OnAddInToolCommand@CGapRevisionAddInImp@@MAEHW4EAICommandType@@J@Z ; CGapRevisionAddInImp::OnAddInToolCommand
PUBLIC	?OnAddInToolCommand@CGapRevisionAddInImp@@MAEHAAJW4EAICommandType@@@Z ; CGapRevisionAddInImp::OnAddInToolCommand
PUBLIC	?OnLoadEnvironment@CGapRevisionAddInImp@@MAEXPAUIPropertyMap@@@Z ; CGapRevisionAddInImp::OnLoadEnvironment
PUBLIC	?OnSaveEnvironment@CGapRevisionAddInImp@@MAEXPAUIPropertyMap@@@Z ; CGapRevisionAddInImp::OnSaveEnvironment
PUBLIC	?OnPacketDataMultiItem@CGapRevisionAddInImp@@MAEXPBD0H@Z ; CGapRevisionAddInImp::OnPacketDataMultiItem
PUBLIC	?OnRealPacketEnd@CGapRevisionAddInImp@@MAEXPBD@Z ; CGapRevisionAddInImp::OnRealPacketEnd
PUBLIC	??_GCGapRevisionAddInImp@@UAEPAXI@Z		; CGapRevisionAddInImp::`scalar deleting destructor'
PUBLIC	?LoadResourceDLL@IMetaTable@@QAEPAUHINSTANCE__@@PAUHWND__@@PAU2@@Z ; IMetaTable::LoadResourceDLL
PUBLIC	??1CMultiLanguageResourceSetter@@QAE@XZ		; CMultiLanguageResourceSetter::~CMultiLanguageResourceSetter
PUBLIC	??1ILPCSTR000000@@QAE@XZ			; ILPCSTR000000::~ILPCSTR000000
PUBLIC	??$SerializeElements@N@@YGXAAVCArchive@@PANH@Z	; SerializeElements<double>
PUBLIC	?QueryInterface@CChartAddInBase000000@@O7AGJABU_GUID@@PAPAX@Z ; [thunk]:CChartAddInBase000000::QueryInterface`adjustor{8}'
PUBLIC	?AddRef@CChartAddInBase000000@@O7AGKXZ		; [thunk]:CChartAddInBase000000::AddRef`adjustor{8}'
PUBLIC	?Release@CChartAddInBase000000@@O7AGKXZ		; [thunk]:CChartAddInBase000000::Release`adjustor{8}'
PUBLIC	??_ECGapRevisionAddInImp@@W7AEPAXI@Z		; [thunk]:CGapRevisionAddInImp::`vector deleting destructor'
PUBLIC	??_R0?AVCObject@@@8				; CObject `RTTI Type Descriptor'
PUBLIC	??_R3CObject@@8					; CObject::`RTTI Class Hierarchy Descriptor'
PUBLIC	??_R2CObject@@8					; CObject::`RTTI Base Class Array'
PUBLIC	??_R1A@?0A@EA@CObject@@8			; CObject::`RTTI Base Class Descriptor at (0,-1,0,64)'
PUBLIC	??_R0?AUIUnknown@@@8				; IUnknown `RTTI Type Descriptor'
PUBLIC	??_R3IUnknown@@8				; IUnknown::`RTTI Class Hierarchy Descriptor'
PUBLIC	??_R2IUnknown@@8				; IUnknown::`RTTI Base Class Array'
PUBLIC	??_R1A@?0A@EA@IUnknown@@8			; IUnknown::`RTTI Base Class Descriptor at (0,-1,0,64)'
PUBLIC	??_7?$CList@NN@@6B@				; CList<double,double>::`vftable'
PUBLIC	?m_strAddInItemName@CGapRevisionAddInImp@@2V?$CStringT@DV?$StrTraitMFC_DLL@DV?$ChTraitsCRT@D@ATL@@@@@ATL@@A ; CGapRevisionAddInImp::m_strAddInItemName
PUBLIC	??_7?$CTypedPtrMap@VCMapStringToPtr@@V?$CStringT@DV?$StrTraitMFC_DLL@DV?$ChTraitsCRT@D@ATL@@@@@ATL@@PAUST_GAP_INFO@@@@6B@ ; CTypedPtrMap<CMapStringToPtr,ATL::CStringT<char,StrTraitMFC_DLL<char,ATL::ChTraitsCRT<char> > >,ST_GAP_INFO *>::`vftable'
PUBLIC	??_7CGapRevisionAddInImp@@6BCIWUnknown@@@	; CGapRevisionAddInImp::`vftable'
PUBLIC	??_7CGapRevisionAddInImp@@6BIChartAddIn000000@@@ ; CGapRevisionAddInImp::`vftable'
PUBLIC	??_C@_0BA@ENJOCHIO@LoadResourceDLL@		; `string'
PUBLIC	??_C@_01JLIPDDHJ@?3@				; `string'
PUBLIC	??_C@_05NFGPCJDJ@?$CFd?3?$CFd@			; `string'
PUBLIC	??_C@_07MGCPDNLD@DEFAULT@			; `string'
PUBLIC	??_C@_01ICJEACDI@?$DL@				; `string'
PUBLIC	??_C@_0L@MLIHGNMC@MARKETTYPE@			; `string'
PUBLIC	??_C@_0L@IPGAAKHO@MARKETTIME@			; `string'
PUBLIC	??_C@_01DNKMNLPK@?$HM@				; `string'
PUBLIC	??_C@_08JFMBEEDE@DDHHMMSS@			; `string'
PUBLIC	??_C@_08KLIIINKM@MMDDHHMM@			; `string'
PUBLIC	??_R0?AUIChartAddIn000000@@@8			; IChartAddIn000000 `RTTI Type Descriptor'
PUBLIC	??_R3IChartAddIn000000@@8			; IChartAddIn000000::`RTTI Class Hierarchy Descriptor'
PUBLIC	??_R2IChartAddIn000000@@8			; IChartAddIn000000::`RTTI Base Class Array'
PUBLIC	??_R1A@?0A@EA@IChartAddIn000000@@8		; IChartAddIn000000::`RTTI Base Class Descriptor at (0,-1,0,64)'
PUBLIC	??_R4?$CList@NN@@6B@				; CList<double,double>::`RTTI Complete Object Locator'
PUBLIC	??_R0?AV?$CList@NN@@@8				; CList<double,double> `RTTI Type Descriptor'
PUBLIC	??_R3?$CList@NN@@8				; CList<double,double>::`RTTI Class Hierarchy Descriptor'
PUBLIC	??_R2?$CList@NN@@8				; CList<double,double>::`RTTI Base Class Array'
PUBLIC	??_R1A@?0A@EA@?$CList@NN@@8			; CList<double,double>::`RTTI Base Class Descriptor at (0,-1,0,64)'
PUBLIC	??_R4CGapRevisionAddInImp@@6BCIWUnknown@@@	; CGapRevisionAddInImp::`RTTI Complete Object Locator'
PUBLIC	??_R0?AVCGapRevisionAddInImp@@@8		; CGapRevisionAddInImp `RTTI Type Descriptor'
PUBLIC	??_R3CGapRevisionAddInImp@@8			; CGapRevisionAddInImp::`RTTI Class Hierarchy Descriptor'
PUBLIC	??_R2CGapRevisionAddInImp@@8			; CGapRevisionAddInImp::`RTTI Base Class Array'
PUBLIC	??_R1A@?0A@EA@CGapRevisionAddInImp@@8		; CGapRevisionAddInImp::`RTTI Base Class Descriptor at (0,-1,0,64)'
PUBLIC	??_R1A@?0A@EA@CChartAddInBase000000@@8		; CChartAddInBase000000::`RTTI Base Class Descriptor at (0,-1,0,64)'
PUBLIC	??_R0?AVCChartAddInBase000000@@@8		; CChartAddInBase000000 `RTTI Type Descriptor'
PUBLIC	??_R3CChartAddInBase000000@@8			; CChartAddInBase000000::`RTTI Class Hierarchy Descriptor'
PUBLIC	??_R2CChartAddInBase000000@@8			; CChartAddInBase000000::`RTTI Base Class Array'
PUBLIC	??_R1A@?0A@EA@CIWUnknown@@8			; CIWUnknown::`RTTI Base Class Descriptor at (0,-1,0,64)'
PUBLIC	??_R0?AVCIWUnknown@@@8				; CIWUnknown `RTTI Type Descriptor'
PUBLIC	??_R3CIWUnknown@@8				; CIWUnknown::`RTTI Class Hierarchy Descriptor'
PUBLIC	??_R2CIWUnknown@@8				; CIWUnknown::`RTTI Base Class Array'
PUBLIC	??_R17?0A@EA@IChartAddIn000000@@8		; IChartAddIn000000::`RTTI Base Class Descriptor at (8,-1,0,64)'
PUBLIC	??_R17?0A@EA@IUnknown@@8			; IUnknown::`RTTI Base Class Descriptor at (8,-1,0,64)'
PUBLIC	??_R4CGapRevisionAddInImp@@6BIChartAddIn000000@@@ ; CGapRevisionAddInImp::`RTTI Complete Object Locator'
PUBLIC	??_R4?$CTypedPtrMap@VCMapStringToPtr@@V?$CStringT@DV?$StrTraitMFC_DLL@DV?$ChTraitsCRT@D@ATL@@@@@ATL@@PAUST_GAP_INFO@@@@6B@ ; CTypedPtrMap<CMapStringToPtr,ATL::CStringT<char,StrTraitMFC_DLL<char,ATL::ChTraitsCRT<char> > >,ST_GAP_INFO *>::`RTTI Complete Object Locator'
PUBLIC	??_R0?AV?$CTypedPtrMap@VCMapStringToPtr@@V?$CStringT@DV?$StrTraitMFC_DLL@DV?$ChTraitsCRT@D@ATL@@@@@ATL@@PAUST_GAP_INFO@@@@@8 ; CTypedPtrMap<CMapStringToPtr,ATL::CStringT<char,StrTraitMFC_DLL<char,ATL::ChTraitsCRT<char> > >,ST_GAP_INFO *> `RTTI Type Descriptor'
PUBLIC	??_R3?$CTypedPtrMap@VCMapStringToPtr@@V?$CStringT@DV?$StrTraitMFC_DLL@DV?$ChTraitsCRT@D@ATL@@@@@ATL@@PAUST_GAP_INFO@@@@8 ; CTypedPtrMap<CMapStringToPtr,ATL::CStringT<char,StrTraitMFC_DLL<char,ATL::ChTraitsCRT<char> > >,ST_GAP_INFO *>::`RTTI Class Hierarchy Descriptor'
PUBLIC	??_R2?$CTypedPtrMap@VCMapStringToPtr@@V?$CStringT@DV?$StrTraitMFC_DLL@DV?$ChTraitsCRT@D@ATL@@@@@ATL@@PAUST_GAP_INFO@@@@8 ; CTypedPtrMap<CMapStringToPtr,ATL::CStringT<char,StrTraitMFC_DLL<char,ATL::ChTraitsCRT<char> > >,ST_GAP_INFO *>::`RTTI Base Class Array'
PUBLIC	??_R1A@?0A@EA@?$CTypedPtrMap@VCMapStringToPtr@@V?$CStringT@DV?$StrTraitMFC_DLL@DV?$ChTraitsCRT@D@ATL@@@@@ATL@@PAUST_GAP_INFO@@@@8 ; CTypedPtrMap<CMapStringToPtr,ATL::CStringT<char,StrTraitMFC_DLL<char,ATL::ChTraitsCRT<char> > >,ST_GAP_INFO *>::`RTTI Base Class Descriptor at (0,-1,0,64)'
PUBLIC	??_R1A@?0A@EA@CMapStringToPtr@@8		; CMapStringToPtr::`RTTI Base Class Descriptor at (0,-1,0,64)'
PUBLIC	??_R0?AVCMapStringToPtr@@@8			; CMapStringToPtr `RTTI Type Descriptor'
PUBLIC	??_R3CMapStringToPtr@@8				; CMapStringToPtr::`RTTI Class Hierarchy Descriptor'
PUBLIC	??_R2CMapStringToPtr@@8				; CMapStringToPtr::`RTTI Base Class Array'
PUBLIC	__real@0000000000000000
EXTRN	??2@YAPAXI@Z:PROC				; operator new
EXTRN	??3@YAXPAX@Z:PROC				; operator delete
EXTRN	??3@YAXPAXI@Z:PROC				; operator delete
EXTRN	?__global_delete@@YAXPAXI@Z:PROC		; __global_delete
EXTRN	_atexit:PROC
EXTRN	___std_terminate:PROC
EXTRN	__imp__GetProcAddress@8:PROC
EXTRN	__imp__atoi:PROC
EXTRN	?AfxThrowInvalidArgException@@YGXXZ:PROC	; AfxThrowInvalidArgException
EXTRN	?AfxThrowArchiveException@@YGXHPBD@Z:PROC	; AfxThrowArchiveException
EXTRN	?GetRuntimeClass@CObject@@UBEPAUCRuntimeClass@@XZ:PROC ; CObject::GetRuntimeClass
EXTRN	__imp_??0?$CStringT@DV?$StrTraitMFC_DLL@DV?$ChTraitsCRT@D@ATL@@@@@ATL@@QAE@XZ:PROC
EXTRN	__imp_??0?$CStringT@DV?$StrTraitMFC_DLL@DV?$ChTraitsCRT@D@ATL@@@@@ATL@@QAE@PBD@Z:PROC
EXTRN	__imp_??1?$CStringT@DV?$StrTraitMFC_DLL@DV?$ChTraitsCRT@D@ATL@@@@@ATL@@QAE@XZ:PROC
EXTRN	__imp_??4?$CStringT@DV?$StrTraitMFC_DLL@DV?$ChTraitsCRT@D@ATL@@@@@ATL@@QAEAAV01@ABV01@@Z:PROC
EXTRN	__imp_??4?$CStringT@DV?$StrTraitMFC_DLL@DV?$ChTraitsCRT@D@ATL@@@@@ATL@@QAEAAV01@PBD@Z:PROC
EXTRN	__imp_?Compare@?$CStringT@DV?$StrTraitMFC_DLL@DV?$ChTraitsCRT@D@ATL@@@@@ATL@@QBEHPBD@Z:PROC
EXTRN	__imp_?Find@?$CStringT@DV?$StrTraitMFC_DLL@DV?$ChTraitsCRT@D@ATL@@@@@ATL@@QBEHPBDH@Z:PROC
EXTRN	__imp_?Mid@?$CStringT@DV?$StrTraitMFC_DLL@DV?$ChTraitsCRT@D@ATL@@@@@ATL@@QBE?AV12@H@Z:PROC
EXTRN	__imp_?Mid@?$CStringT@DV?$StrTraitMFC_DLL@DV?$ChTraitsCRT@D@ATL@@@@@ATL@@QBE?AV12@HH@Z:PROC
EXTRN	__imp_?Format@?$CStringT@DV?$StrTraitMFC_DLL@DV?$ChTraitsCRT@D@ATL@@@@@ATL@@QAAXPBDZZ:PROC
EXTRN	?Read@CArchive@@QAEIPAXI@Z:PROC			; CArchive::Read
EXTRN	?Write@CArchive@@QAEXPBXI@Z:PROC		; CArchive::Write
EXTRN	?ReadCount@CArchive@@QAEKXZ:PROC		; CArchive::ReadCount
EXTRN	?WriteCount@CArchive@@QAEXK@Z:PROC		; CArchive::WriteCount
EXTRN	?GetRuntimeClass@CMapStringToPtr@@UBEPAUCRuntimeClass@@XZ:PROC ; CMapStringToPtr::GetRuntimeClass
EXTRN	??0CMapStringToPtr@@QAE@H@Z:PROC		; CMapStringToPtr::CMapStringToPtr
EXTRN	?Lookup@CMapStringToPtr@@QBEHPBDAAPAX@Z:PROC	; CMapStringToPtr::Lookup
EXTRN	??ACMapStringToPtr@@QAEAAPAXPBD@Z:PROC		; CMapStringToPtr::operator[]
EXTRN	?RemoveKey@CMapStringToPtr@@QAEHPBD@Z:PROC	; CMapStringToPtr::RemoveKey
EXTRN	?RemoveAll@CMapStringToPtr@@QAEXXZ:PROC		; CMapStringToPtr::RemoveAll
EXTRN	?GetNextAssoc@CMapStringToPtr@@QBEXAAPAU__POSITION@@AAV?$CStringT@DV?$StrTraitMFC_DLL@DV?$ChTraitsCRT@D@ATL@@@@@ATL@@AAPAX@Z:PROC ; CMapStringToPtr::GetNextAssoc
EXTRN	??1CMapStringToPtr@@UAE@XZ:PROC			; CMapStringToPtr::~CMapStringToPtr
EXTRN	?AfxGetModuleState@@YGPAVAFX_MODULE_STATE@@XZ:PROC ; AfxGetModuleState
EXTRN	?AfxGetStaticModuleState@@YGPAVAFX_MODULE_STATE@@XZ:PROC ; AfxGetStaticModuleState
EXTRN	?Create@CPlex@@SGPAU1@AAPAU1@II@Z:PROC		; CPlex::Create
EXTRN	?FreeDataChain@CPlex@@QAEXXZ:PROC		; CPlex::FreeDataChain
EXTRN	?AddRef@CIWUnknown@@MAGKXZ:PROC			; CIWUnknown::AddRef
EXTRN	?Release@CIWUnknown@@MAGKXZ:PROC		; CIWUnknown::Release
EXTRN	??0CChartAddInBase000000@@IAE@PAUIChartOCX000000@@PAUIAddInDllBase@@@Z:PROC ; CChartAddInBase000000::CChartAddInBase000000
EXTRN	??1CChartAddInBase000000@@MAE@XZ:PROC		; CChartAddInBase000000::~CChartAddInBase000000
EXTRN	?HasFullManager@CChartAddInBase000000@@MAEHXZ:PROC ; CChartAddInBase000000::HasFullManager
EXTRN	?RegisterEventMap@CChartAddInBase000000@@UAEHH@Z:PROC ; CChartAddInBase000000::RegisterEventMap
EXTRN	?UnregisterEventMap@CChartAddInBase000000@@UAEHXZ:PROC ; CChartAddInBase000000::UnregisterEventMap
EXTRN	?OnOcxDestroyWindow@CChartAddInBase000000@@MAEXXZ:PROC ; CChartAddInBase000000::OnOcxDestroyWindow
EXTRN	??_E?$CList@NN@@UAEPAXI@Z:PROC			; CList<double,double>::`vector deleting destructor'
EXTRN	??_E?$CTypedPtrMap@VCMapStringToPtr@@V?$CStringT@DV?$StrTraitMFC_DLL@DV?$ChTraitsCRT@D@ATL@@@@@ATL@@PAUST_GAP_INFO@@@@UAEPAXI@Z:PROC ; CTypedPtrMap<CMapStringToPtr,ATL::CStringT<char,StrTraitMFC_DLL<char,ATL::ChTraitsCRT<char> > >,ST_GAP_INFO *>::`vector deleting destructor'
EXTRN	??_ECGapRevisionAddInImp@@UAEPAXI@Z:PROC	; CGapRevisionAddInImp::`vector deleting destructor'
EXTRN	@__security_check_cookie@4:PROC
EXTRN	___CxxFrameHandler3:PROC
EXTRN	??_7type_info@@6B@:QWORD			; type_info::`vftable'
EXTRN	?g_iMetaTable@@3VIMetaTable@@A:BYTE		; g_iMetaTable
EXTRN	___security_cookie:DWORD
EXTRN	__fltused:DWORD
_BSS	SEGMENT
?m_strAddInItemName@CGapRevisionAddInImp@@2V?$CStringT@DV?$StrTraitMFC_DLL@DV?$ChTraitsCRT@D@ATL@@@@@ATL@@A DD 01H DUP (?) ; CGapRevisionAddInImp::m_strAddInItemName
_BSS	ENDS
CRT$XCU	SEGMENT
??m_strAddInItemName$initializer$@CGapRevisionAddInImp@@2P6AXXZA@@3P6AXXZA DD FLAT:??__E?m_strAddInItemName@CGapRevisionAddInImp@@2V?$CStringT@DV?$StrTraitMFC_DLL@DV?$ChTraitsCRT@D@ATL@@@@@ATL@@A@@YAXXZ ; ??m_strAddInItemName$initializer$@CGapRevisionAddInImp@@2P6AXXZA@@3P6AXXZA
CRT$XCU	ENDS
;	COMDAT __real@0000000000000000
CONST	SEGMENT
__real@0000000000000000 DQ 00000000000000000r	; 0
CONST	ENDS
;	COMDAT ??_R2CMapStringToPtr@@8
rdata$r	SEGMENT
??_R2CMapStringToPtr@@8 DD FLAT:??_R1A@?0A@EA@CMapStringToPtr@@8 ; CMapStringToPtr::`RTTI Base Class Array'
	DD	FLAT:??_R1A@?0A@EA@CObject@@8
rdata$r	ENDS
;	COMDAT ??_R3CMapStringToPtr@@8
rdata$r	SEGMENT
??_R3CMapStringToPtr@@8 DD 00H				; CMapStringToPtr::`RTTI Class Hierarchy Descriptor'
	DD	00H
	DD	02H
	DD	FLAT:??_R2CMapStringToPtr@@8
rdata$r	ENDS
;	COMDAT ??_R0?AVCMapStringToPtr@@@8
data$rs	SEGMENT
??_R0?AVCMapStringToPtr@@@8 DD FLAT:??_7type_info@@6B@	; CMapStringToPtr `RTTI Type Descriptor'
	DD	00H
	DB	'.?AVCMapStringToPtr@@', 00H
data$rs	ENDS
;	COMDAT ??_R1A@?0A@EA@CMapStringToPtr@@8
rdata$r	SEGMENT
??_R1A@?0A@EA@CMapStringToPtr@@8 DD FLAT:??_R0?AVCMapStringToPtr@@@8 ; CMapStringToPtr::`RTTI Base Class Descriptor at (0,-1,0,64)'
	DD	01H
	DD	00H
	DD	0ffffffffH
	DD	00H
	DD	040H
	DD	FLAT:??_R3CMapStringToPtr@@8
rdata$r	ENDS
;	COMDAT ??_R1A@?0A@EA@?$CTypedPtrMap@VCMapStringToPtr@@V?$CStringT@DV?$StrTraitMFC_DLL@DV?$ChTraitsCRT@D@ATL@@@@@ATL@@PAUST_GAP_INFO@@@@8
rdata$r	SEGMENT
??_R1A@?0A@EA@?$CTypedPtrMap@VCMapStringToPtr@@V?$CStringT@DV?$StrTraitMFC_DLL@DV?$ChTraitsCRT@D@ATL@@@@@ATL@@PAUST_GAP_INFO@@@@8 DD FLAT:??_R0?AV?$CTypedPtrMap@VCMapStringToPtr@@V?$CStringT@DV?$StrTraitMFC_DLL@DV?$ChTraitsCRT@D@ATL@@@@@ATL@@PAUST_GAP_INFO@@@@@8 ; CTypedPtrMap<CMapStringToPtr,ATL::CStringT<char,StrTraitMFC_DLL<char,ATL::ChTraitsCRT<char> > >,ST_GAP_INFO *>::`RTTI Base Class Descriptor at (0,-1,0,64)'
	DD	02H
	DD	00H
	DD	0ffffffffH
	DD	00H
	DD	040H
	DD	FLAT:??_R3?$CTypedPtrMap@VCMapStringToPtr@@V?$CStringT@DV?$StrTraitMFC_DLL@DV?$ChTraitsCRT@D@ATL@@@@@ATL@@PAUST_GAP_INFO@@@@8
rdata$r	ENDS
;	COMDAT ??_R2?$CTypedPtrMap@VCMapStringToPtr@@V?$CStringT@DV?$StrTraitMFC_DLL@DV?$ChTraitsCRT@D@ATL@@@@@ATL@@PAUST_GAP_INFO@@@@8
rdata$r	SEGMENT
??_R2?$CTypedPtrMap@VCMapStringToPtr@@V?$CStringT@DV?$StrTraitMFC_DLL@DV?$ChTraitsCRT@D@ATL@@@@@ATL@@PAUST_GAP_INFO@@@@8 DD FLAT:??_R1A@?0A@EA@?$CTypedPtrMap@VCMapStringToPtr@@V?$CStringT@DV?$StrTraitMFC_DLL@DV?$ChTraitsCRT@D@ATL@@@@@ATL@@PAUST_GAP_INFO@@@@8 ; CTypedPtrMap<CMapStringToPtr,ATL::CStringT<char,StrTraitMFC_DLL<char,ATL::ChTraitsCRT<char> > >,ST_GAP_INFO *>::`RTTI Base Class Array'
	DD	FLAT:??_R1A@?0A@EA@CMapStringToPtr@@8
	DD	FLAT:??_R1A@?0A@EA@CObject@@8
rdata$r	ENDS
;	COMDAT ??_R3?$CTypedPtrMap@VCMapStringToPtr@@V?$CStringT@DV?$StrTraitMFC_DLL@DV?$ChTraitsCRT@D@ATL@@@@@ATL@@PAUST_GAP_INFO@@@@8
rdata$r	SEGMENT
??_R3?$CTypedPtrMap@VCMapStringToPtr@@V?$CStringT@DV?$StrTraitMFC_DLL@DV?$ChTraitsCRT@D@ATL@@@@@ATL@@PAUST_GAP_INFO@@@@8 DD 00H ; CTypedPtrMap<CMapStringToPtr,ATL::CStringT<char,StrTraitMFC_DLL<char,ATL::ChTraitsCRT<char> > >,ST_GAP_INFO *>::`RTTI Class Hierarchy Descriptor'
	DD	00H
	DD	03H
	DD	FLAT:??_R2?$CTypedPtrMap@VCMapStringToPtr@@V?$CStringT@DV?$StrTraitMFC_DLL@DV?$ChTraitsCRT@D@ATL@@@@@ATL@@PAUST_GAP_INFO@@@@8
rdata$r	ENDS
;	COMDAT ??_R0?AV?$CTypedPtrMap@VCMapStringToPtr@@V?$CStringT@DV?$StrTraitMFC_DLL@DV?$ChTraitsCRT@D@ATL@@@@@ATL@@PAUST_GAP_INFO@@@@@8
data$rs	SEGMENT
??_R0?AV?$CTypedPtrMap@VCMapStringToPtr@@V?$CStringT@DV?$StrTraitMFC_DLL@DV?$ChTraitsCRT@D@ATL@@@@@ATL@@PAUST_GAP_INFO@@@@@8 DD FLAT:??_7type_info@@6B@ ; CTypedPtrMap<CMapStringToPtr,ATL::CStringT<char,StrTraitMFC_DLL<char,ATL::ChTraitsCRT<char> > >,ST_GAP_INFO *> `RTTI Type Descriptor'
	DD	00H
	DB	'.?AV?$CTypedPtrMap@VCMapStringToPtr@@V?$CStringT@DV?$Str'
	DB	'TraitMFC_DLL@DV?$ChTraitsCRT@D@ATL@@@@@ATL@@PAUST_GAP_INFO@@@'
	DB	'@', 00H
data$rs	ENDS
;	COMDAT ??_R4?$CTypedPtrMap@VCMapStringToPtr@@V?$CStringT@DV?$StrTraitMFC_DLL@DV?$ChTraitsCRT@D@ATL@@@@@ATL@@PAUST_GAP_INFO@@@@6B@
rdata$r	SEGMENT
??_R4?$CTypedPtrMap@VCMapStringToPtr@@V?$CStringT@DV?$StrTraitMFC_DLL@DV?$ChTraitsCRT@D@ATL@@@@@ATL@@PAUST_GAP_INFO@@@@6B@ DD 00H ; CTypedPtrMap<CMapStringToPtr,ATL::CStringT<char,StrTraitMFC_DLL<char,ATL::ChTraitsCRT<char> > >,ST_GAP_INFO *>::`RTTI Complete Object Locator'
	DD	00H
	DD	00H
	DD	FLAT:??_R0?AV?$CTypedPtrMap@VCMapStringToPtr@@V?$CStringT@DV?$StrTraitMFC_DLL@DV?$ChTraitsCRT@D@ATL@@@@@ATL@@PAUST_GAP_INFO@@@@@8
	DD	FLAT:??_R3?$CTypedPtrMap@VCMapStringToPtr@@V?$CStringT@DV?$StrTraitMFC_DLL@DV?$ChTraitsCRT@D@ATL@@@@@ATL@@PAUST_GAP_INFO@@@@8
rdata$r	ENDS
;	COMDAT ??_R4CGapRevisionAddInImp@@6BIChartAddIn000000@@@
rdata$r	SEGMENT
??_R4CGapRevisionAddInImp@@6BIChartAddIn000000@@@ DD 00H ; CGapRevisionAddInImp::`RTTI Complete Object Locator'
	DD	08H
	DD	00H
	DD	FLAT:??_R0?AVCGapRevisionAddInImp@@@8
	DD	FLAT:??_R3CGapRevisionAddInImp@@8
rdata$r	ENDS
;	COMDAT ??_R17?0A@EA@IUnknown@@8
rdata$r	SEGMENT
??_R17?0A@EA@IUnknown@@8 DD FLAT:??_R0?AUIUnknown@@@8	; IUnknown::`RTTI Base Class Descriptor at (8,-1,0,64)'
	DD	00H
	DD	08H
	DD	0ffffffffH
	DD	00H
	DD	040H
	DD	FLAT:??_R3IUnknown@@8
rdata$r	ENDS
;	COMDAT ??_R17?0A@EA@IChartAddIn000000@@8
rdata$r	SEGMENT
??_R17?0A@EA@IChartAddIn000000@@8 DD FLAT:??_R0?AUIChartAddIn000000@@@8 ; IChartAddIn000000::`RTTI Base Class Descriptor at (8,-1,0,64)'
	DD	01H
	DD	08H
	DD	0ffffffffH
	DD	00H
	DD	040H
	DD	FLAT:??_R3IChartAddIn000000@@8
rdata$r	ENDS
;	COMDAT ??_R2CIWUnknown@@8
rdata$r	SEGMENT
??_R2CIWUnknown@@8 DD FLAT:??_R1A@?0A@EA@CIWUnknown@@8	; CIWUnknown::`RTTI Base Class Array'
	DD	FLAT:??_R1A@?0A@EA@CObject@@8
rdata$r	ENDS
;	COMDAT ??_R3CIWUnknown@@8
rdata$r	SEGMENT
??_R3CIWUnknown@@8 DD 00H				; CIWUnknown::`RTTI Class Hierarchy Descriptor'
	DD	00H
	DD	02H
	DD	FLAT:??_R2CIWUnknown@@8
rdata$r	ENDS
;	COMDAT ??_R0?AVCIWUnknown@@@8
data$rs	SEGMENT
??_R0?AVCIWUnknown@@@8 DD FLAT:??_7type_info@@6B@	; CIWUnknown `RTTI Type Descriptor'
	DD	00H
	DB	'.?AVCIWUnknown@@', 00H
data$rs	ENDS
;	COMDAT ??_R1A@?0A@EA@CIWUnknown@@8
rdata$r	SEGMENT
??_R1A@?0A@EA@CIWUnknown@@8 DD FLAT:??_R0?AVCIWUnknown@@@8 ; CIWUnknown::`RTTI Base Class Descriptor at (0,-1,0,64)'
	DD	01H
	DD	00H
	DD	0ffffffffH
	DD	00H
	DD	040H
	DD	FLAT:??_R3CIWUnknown@@8
rdata$r	ENDS
;	COMDAT ??_R2CChartAddInBase000000@@8
rdata$r	SEGMENT
??_R2CChartAddInBase000000@@8 DD FLAT:??_R1A@?0A@EA@CChartAddInBase000000@@8 ; CChartAddInBase000000::`RTTI Base Class Array'
	DD	FLAT:??_R1A@?0A@EA@CIWUnknown@@8
	DD	FLAT:??_R1A@?0A@EA@CObject@@8
	DD	FLAT:??_R17?0A@EA@IChartAddIn000000@@8
	DD	FLAT:??_R17?0A@EA@IUnknown@@8
rdata$r	ENDS
;	COMDAT ??_R3CChartAddInBase000000@@8
rdata$r	SEGMENT
??_R3CChartAddInBase000000@@8 DD 00H			; CChartAddInBase000000::`RTTI Class Hierarchy Descriptor'
	DD	01H
	DD	05H
	DD	FLAT:??_R2CChartAddInBase000000@@8
rdata$r	ENDS
;	COMDAT ??_R0?AVCChartAddInBase000000@@@8
data$rs	SEGMENT
??_R0?AVCChartAddInBase000000@@@8 DD FLAT:??_7type_info@@6B@ ; CChartAddInBase000000 `RTTI Type Descriptor'
	DD	00H
	DB	'.?AVCChartAddInBase000000@@', 00H
data$rs	ENDS
;	COMDAT ??_R1A@?0A@EA@CChartAddInBase000000@@8
rdata$r	SEGMENT
??_R1A@?0A@EA@CChartAddInBase000000@@8 DD FLAT:??_R0?AVCChartAddInBase000000@@@8 ; CChartAddInBase000000::`RTTI Base Class Descriptor at (0,-1,0,64)'
	DD	04H
	DD	00H
	DD	0ffffffffH
	DD	00H
	DD	040H
	DD	FLAT:??_R3CChartAddInBase000000@@8
rdata$r	ENDS
;	COMDAT ??_R1A@?0A@EA@CGapRevisionAddInImp@@8
rdata$r	SEGMENT
??_R1A@?0A@EA@CGapRevisionAddInImp@@8 DD FLAT:??_R0?AVCGapRevisionAddInImp@@@8 ; CGapRevisionAddInImp::`RTTI Base Class Descriptor at (0,-1,0,64)'
	DD	05H
	DD	00H
	DD	0ffffffffH
	DD	00H
	DD	040H
	DD	FLAT:??_R3CGapRevisionAddInImp@@8
rdata$r	ENDS
;	COMDAT ??_R2CGapRevisionAddInImp@@8
rdata$r	SEGMENT
??_R2CGapRevisionAddInImp@@8 DD FLAT:??_R1A@?0A@EA@CGapRevisionAddInImp@@8 ; CGapRevisionAddInImp::`RTTI Base Class Array'
	DD	FLAT:??_R1A@?0A@EA@CChartAddInBase000000@@8
	DD	FLAT:??_R1A@?0A@EA@CIWUnknown@@8
	DD	FLAT:??_R1A@?0A@EA@CObject@@8
	DD	FLAT:??_R17?0A@EA@IChartAddIn000000@@8
	DD	FLAT:??_R17?0A@EA@IUnknown@@8
rdata$r	ENDS
;	COMDAT ??_R3CGapRevisionAddInImp@@8
rdata$r	SEGMENT
??_R3CGapRevisionAddInImp@@8 DD 00H			; CGapRevisionAddInImp::`RTTI Class Hierarchy Descriptor'
	DD	01H
	DD	06H
	DD	FLAT:??_R2CGapRevisionAddInImp@@8
rdata$r	ENDS
;	COMDAT ??_R0?AVCGapRevisionAddInImp@@@8
data$rs	SEGMENT
??_R0?AVCGapRevisionAddInImp@@@8 DD FLAT:??_7type_info@@6B@ ; CGapRevisionAddInImp `RTTI Type Descriptor'
	DD	00H
	DB	'.?AVCGapRevisionAddInImp@@', 00H
data$rs	ENDS
;	COMDAT ??_R4CGapRevisionAddInImp@@6BCIWUnknown@@@
rdata$r	SEGMENT
??_R4CGapRevisionAddInImp@@6BCIWUnknown@@@ DD 00H	; CGapRevisionAddInImp::`RTTI Complete Object Locator'
	DD	00H
	DD	00H
	DD	FLAT:??_R0?AVCGapRevisionAddInImp@@@8
	DD	FLAT:??_R3CGapRevisionAddInImp@@8
rdata$r	ENDS
;	COMDAT ??_R1A@?0A@EA@?$CList@NN@@8
rdata$r	SEGMENT
??_R1A@?0A@EA@?$CList@NN@@8 DD FLAT:??_R0?AV?$CList@NN@@@8 ; CList<double,double>::`RTTI Base Class Descriptor at (0,-1,0,64)'
	DD	01H
	DD	00H
	DD	0ffffffffH
	DD	00H
	DD	040H
	DD	FLAT:??_R3?$CList@NN@@8
rdata$r	ENDS
;	COMDAT ??_R2?$CList@NN@@8
rdata$r	SEGMENT
??_R2?$CList@NN@@8 DD FLAT:??_R1A@?0A@EA@?$CList@NN@@8	; CList<double,double>::`RTTI Base Class Array'
	DD	FLAT:??_R1A@?0A@EA@CObject@@8
rdata$r	ENDS
;	COMDAT ??_R3?$CList@NN@@8
rdata$r	SEGMENT
??_R3?$CList@NN@@8 DD 00H				; CList<double,double>::`RTTI Class Hierarchy Descriptor'
	DD	00H
	DD	02H
	DD	FLAT:??_R2?$CList@NN@@8
rdata$r	ENDS
;	COMDAT ??_R0?AV?$CList@NN@@@8
data$rs	SEGMENT
??_R0?AV?$CList@NN@@@8 DD FLAT:??_7type_info@@6B@	; CList<double,double> `RTTI Type Descriptor'
	DD	00H
	DB	'.?AV?$CList@NN@@', 00H
data$rs	ENDS
;	COMDAT ??_R4?$CList@NN@@6B@
rdata$r	SEGMENT
??_R4?$CList@NN@@6B@ DD 00H				; CList<double,double>::`RTTI Complete Object Locator'
	DD	00H
	DD	00H
	DD	FLAT:??_R0?AV?$CList@NN@@@8
	DD	FLAT:??_R3?$CList@NN@@8
rdata$r	ENDS
;	COMDAT ??_R1A@?0A@EA@IChartAddIn000000@@8
rdata$r	SEGMENT
??_R1A@?0A@EA@IChartAddIn000000@@8 DD FLAT:??_R0?AUIChartAddIn000000@@@8 ; IChartAddIn000000::`RTTI Base Class Descriptor at (0,-1,0,64)'
	DD	01H
	DD	00H
	DD	0ffffffffH
	DD	00H
	DD	040H
	DD	FLAT:??_R3IChartAddIn000000@@8
rdata$r	ENDS
;	COMDAT ??_R2IChartAddIn000000@@8
rdata$r	SEGMENT
??_R2IChartAddIn000000@@8 DD FLAT:??_R1A@?0A@EA@IChartAddIn000000@@8 ; IChartAddIn000000::`RTTI Base Class Array'
	DD	FLAT:??_R1A@?0A@EA@IUnknown@@8
rdata$r	ENDS
;	COMDAT ??_R3IChartAddIn000000@@8
rdata$r	SEGMENT
??_R3IChartAddIn000000@@8 DD 00H			; IChartAddIn000000::`RTTI Class Hierarchy Descriptor'
	DD	00H
	DD	02H
	DD	FLAT:??_R2IChartAddIn000000@@8
rdata$r	ENDS
;	COMDAT ??_R0?AUIChartAddIn000000@@@8
data$rs	SEGMENT
??_R0?AUIChartAddIn000000@@@8 DD FLAT:??_7type_info@@6B@ ; IChartAddIn000000 `RTTI Type Descriptor'
	DD	00H
	DB	'.?AUIChartAddIn000000@@', 00H
data$rs	ENDS
;	COMDAT ??_C@_08KLIIINKM@MMDDHHMM@
CONST	SEGMENT
??_C@_08KLIIINKM@MMDDHHMM@ DB 'MMDDHHMM', 00H		; `string'
CONST	ENDS
;	COMDAT ??_C@_08JFMBEEDE@DDHHMMSS@
CONST	SEGMENT
??_C@_08JFMBEEDE@DDHHMMSS@ DB 'DDHHMMSS', 00H		; `string'
CONST	ENDS
;	COMDAT ??_C@_01DNKMNLPK@?$HM@
CONST	SEGMENT
??_C@_01DNKMNLPK@?$HM@ DB '|', 00H			; `string'
CONST	ENDS
;	COMDAT ??_C@_0L@IPGAAKHO@MARKETTIME@
CONST	SEGMENT
??_C@_0L@IPGAAKHO@MARKETTIME@ DB 'MARKETTIME', 00H	; `string'
CONST	ENDS
;	COMDAT ??_C@_0L@MLIHGNMC@MARKETTYPE@
CONST	SEGMENT
??_C@_0L@MLIHGNMC@MARKETTYPE@ DB 'MARKETTYPE', 00H	; `string'
CONST	ENDS
;	COMDAT ??_C@_01ICJEACDI@?$DL@
CONST	SEGMENT
??_C@_01ICJEACDI@?$DL@ DB ';', 00H			; `string'
CONST	ENDS
;	COMDAT ??_C@_07MGCPDNLD@DEFAULT@
CONST	SEGMENT
??_C@_07MGCPDNLD@DEFAULT@ DB 'DEFAULT', 00H		; `string'
CONST	ENDS
;	COMDAT ??_C@_05NFGPCJDJ@?$CFd?3?$CFd@
CONST	SEGMENT
??_C@_05NFGPCJDJ@?$CFd?3?$CFd@ DB '%d:%d', 00H		; `string'
CONST	ENDS
;	COMDAT ??_C@_01JLIPDDHJ@?3@
CONST	SEGMENT
??_C@_01JLIPDDHJ@?3@ DB ':', 00H			; `string'
CONST	ENDS
;	COMDAT ??_C@_0BA@ENJOCHIO@LoadResourceDLL@
CONST	SEGMENT
??_C@_0BA@ENJOCHIO@LoadResourceDLL@ DB 'LoadResourceDLL', 00H ; `string'
CONST	ENDS
;	COMDAT ??_7CGapRevisionAddInImp@@6BIChartAddIn000000@@@
CONST	SEGMENT
??_7CGapRevisionAddInImp@@6BIChartAddIn000000@@@ DD FLAT:??_R4CGapRevisionAddInImp@@6BIChartAddIn000000@@@ ; CGapRevisionAddInImp::`vftable'
	DD	FLAT:?QueryInterface@CChartAddInBase000000@@O7AGJABU_GUID@@PAPAX@Z
	DD	FLAT:?AddRef@CChartAddInBase000000@@O7AGKXZ
	DD	FLAT:?Release@CChartAddInBase000000@@O7AGKXZ
	DD	FLAT:??_ECGapRevisionAddInImp@@W7AEPAXI@Z
	DD	FLAT:?HasFullManager@CChartAddInBase000000@@MAEHXZ
	DD	FLAT:?GetAddInCustomInterface@CChartAddInBase000000@@MAEPAUIUnknown@@XZ
	DD	FLAT:?InvokeAddIn@CGapRevisionAddInImp@@MAEHHJ@Z
	DD	FLAT:?InvokeAddInStr@CChartAddInBase000000@@MAEHPBD0@Z
	DD	FLAT:?OnOcxDestroyWindow@CChartAddInBase000000@@MAEXXZ
	DD	FLAT:?ChangeChartMode@CChartAddInBase000000@@MAEXW4CHART_MODE@CChartInfo@@@Z
	DD	FLAT:?RegisterEventMap@CChartAddInBase000000@@UAEHH@Z
	DD	FLAT:?UnregisterEventMap@CChartAddInBase000000@@UAEHXZ
	DD	FLAT:?OnGSharedDataChange@CChartAddInBase000000@@MAEXPBD0H@Z
	DD	FLAT:?OnLSharedDataChange@CChartAddInBase000000@@MAEXPBD0@Z
	DD	FLAT:?OnResetChart@CChartAddInBase000000@@MAEXXZ
	DD	FLAT:?OnDrawBeforeGraph@CChartAddInBase000000@@MAEXPAUHDC__@@@Z
	DD	FLAT:?OnDrawAfterGraph@CChartAddInBase000000@@MAEXPAUHDC__@@@Z
	DD	FLAT:?OnPacketDataMultiItem@CGapRevisionAddInImp@@MAEXPBD0H@Z
	DD	FLAT:?OnTimer@CChartAddInBase000000@@MAEXI@Z
	DD	FLAT:?OnCaptureChanged@CChartAddInBase000000@@MAEXPAUHWND__@@QAUHBITMAP__@@@Z
	DD	FLAT:?OnResetMainBlock@CChartAddInBase000000@@MAEXXZ
	DD	FLAT:?OnUserIndiatorConditionLoaded@CChartAddInBase000000@@MAEXXZ
	DD	FLAT:?OnChartItemChanged@CChartAddInBase000000@@MAEXXZ
	DD	FLAT:?OnGraphDataChanged@CChartAddInBase000000@@MAEXXZ
	DD	FLAT:?OnBlockRemoved@CChartAddInBase000000@@MAEXHH@Z
	DD	FLAT:?OnGraphAdded@CChartAddInBase000000@@MAEXPBD0@Z
	DD	FLAT:?OnManualRealData@CChartAddInBase000000@@MAEXPBDNH@Z
	DD	FLAT:?OnContextMenu@CChartAddInBase000000@@MAEXPAUHWND__@@AAUtagPOINT@@@Z
	DD	FLAT:?OnGraphDeleted@CChartAddInBase000000@@MAEXPBD0@Z
	DD	FLAT:?OnPacketTruncated@CChartAddInBase000000@@MAEXH@Z
	DD	FLAT:?OnBlockChanged@CChartAddInBase000000@@MAEXW4BLOCKBEHAVIOR@CBlockBaseData@@HHHH@Z
	DD	FLAT:?OnToolCommand@CChartAddInBase000000@@MAEXHH@Z
	DD	FLAT:?OnRealData@CChartAddInBase000000@@MAEXPBDN0@Z
	DD	FLAT:?OnIndexedRealData@CChartAddInBase000000@@MAEXPBDHN@Z
	DD	FLAT:?OnRealPacketEnd@CGapRevisionAddInImp@@MAEXPBD@Z
	DD	FLAT:?OnLoadEnvironment@CGapRevisionAddInImp@@MAEXPAUIPropertyMap@@@Z
	DD	FLAT:?OnSaveEnvironment@CGapRevisionAddInImp@@MAEXPAUIPropertyMap@@@Z
	DD	FLAT:?DrawCursor@CChartAddInBase000000@@MAE?AUtagRECT@@PAUHDC__@@@Z
	DD	FLAT:?OnRecalculationComplete@CChartAddInBase000000@@MAEXXZ
	DD	FLAT:?OnPreRealData@CChartAddInBase000000@@MAEHPBDAAN0H@Z
	DD	FLAT:?OnPreIndexedRealData@CChartAddInBase000000@@MAEHPBDHAANH@Z
	DD	FLAT:?OnPreRealPacketEnd@CChartAddInBase000000@@MAEHPBDH@Z
	DD	FLAT:?OnPreNMTRClock@CChartAddInBase000000@@MAEHAA_J@Z
	DD	FLAT:?OnCmdMsg@CChartAddInBase000000@@MAEHIHPAUICmdUI000000@@@Z
	DD	FLAT:?OnAddInMsg@CChartAddInBase000000@@MAEHPBDJ@Z
	DD	FLAT:?OnAddInToolCommand@CChartAddInBase000000@@MAEHAAJW4EAICommandType@@JJ@Z
	DD	FLAT:?OnAddInToolCommand@CChartAddInBase000000@@MAEHAAJW4EAICommandType@@J@Z
	DD	FLAT:?OnAddInToolCommand@CChartAddInBase000000@@MAEHAAJW4EAICommandType@@PBDPAVCObject@@@Z
	DD	FLAT:?OnAddInToolCommand@CChartAddInBase000000@@MAEHAAJW4EAICommandType@@PBD@Z
	DD	FLAT:?OnAddInToolCommand@CChartAddInBase000000@@MAEHAAJW4EAICommandType@@PAUIGraphInfo000000@@@Z
	DD	FLAT:?OnAddInToolCommand@CGapRevisionAddInImp@@MAEHAAJW4EAICommandType@@@Z
	DD	FLAT:?OnAddInToolCommand@CChartAddInBase000000@@MAEHW4EAICommandType@@JJJJJJJJJ@Z
	DD	FLAT:?OnAddInToolCommand@CGapRevisionAddInImp@@MAEHW4EAICommandType@@JJ@Z
	DD	FLAT:?OnAddInToolCommand@CChartAddInBase000000@@MAEHW4EAICommandType@@JPBD11@Z
	DD	FLAT:?OnAddInToolCommand@CChartAddInBase000000@@MAEHW4EAICommandType@@JPBD@Z
	DD	FLAT:?OnAddInToolCommand@CGapRevisionAddInImp@@MAEHW4EAICommandType@@J@Z
	DD	FLAT:?OnAddInToolCommand@CChartAddInBase000000@@MAEHW4EAICommandType@@PBUIAddInDllBase@@@Z
	DD	FLAT:?OnAddInToolCommand@CChartAddInBase000000@@MAEHW4EAICommandType@@PBDJ@Z
	DD	FLAT:?OnAddInToolCommand@CChartAddInBase000000@@MAEHW4EAICommandType@@PBD1@Z
	DD	FLAT:?OnAddInToolCommand@CChartAddInBase000000@@MAEHW4EAICommandType@@PBD@Z
	DD	FLAT:?OnAddInToolCommand@CChartAddInBase000000@@MAEHW4EAICommandType@@PAUHDC__@@IAAUtagPOINT@@K@Z
	DD	FLAT:?OnAddInToolCommand@CChartAddInBase000000@@MAEHW4EAICommandType@@@Z
	DD	FLAT:?OnKeyDown@CChartAddInBase000000@@MAEHIII@Z
	DD	FLAT:?OnKeyUp@CChartAddInBase000000@@MAEHIII@Z
	DD	FLAT:?OnMouseWheel@CChartAddInBase000000@@MAEHIFUtagPOINT@@K@Z
	DD	FLAT:?OnMouseMove@CChartAddInBase000000@@MAEHPAUHDC__@@IAAUtagPOINT@@KQAUHBITMAP__@@@Z
	DD	FLAT:?OnLButtonDown@CChartAddInBase000000@@MAEHPAUHDC__@@IAAUtagPOINT@@K@Z
	DD	FLAT:?OnLButtonUp@CChartAddInBase000000@@MAEHPAUHDC__@@IAAUtagPOINT@@K@Z
	DD	FLAT:?OnLButtonDblClk@CChartAddInBase000000@@MAEHPAUHDC__@@IAAUtagPOINT@@K@Z
	DD	FLAT:?OnRButtonDown@CChartAddInBase000000@@MAEHPAUHDC__@@IAAUtagPOINT@@K@Z
	DD	FLAT:?OnRButtonUp@CChartAddInBase000000@@MAEHPAUHDC__@@IAAUtagPOINT@@K@Z
	DD	FLAT:?OnRButtonDblClk@CChartAddInBase000000@@MAEHPAUHDC__@@IAAUtagPOINT@@K@Z
CONST	ENDS
;	COMDAT ??_7CGapRevisionAddInImp@@6BCIWUnknown@@@
CONST	SEGMENT
??_7CGapRevisionAddInImp@@6BCIWUnknown@@@ DD FLAT:??_R4CGapRevisionAddInImp@@6BCIWUnknown@@@ ; CGapRevisionAddInImp::`vftable'
	DD	FLAT:?GetRuntimeClass@CObject@@UBEPAUCRuntimeClass@@XZ
	DD	FLAT:??_ECGapRevisionAddInImp@@UAEPAXI@Z
	DD	FLAT:?Serialize@CObject@@UAEXAAVCArchive@@@Z
	DD	FLAT:?AssertValid@CObject@@UBEXXZ
	DD	FLAT:?Dump@CObject@@UBEXAAVCDumpContext@@@Z
	DD	FLAT:?AddRef@CChartAddInBase000000@@MAGKXZ
	DD	FLAT:?Release@CChartAddInBase000000@@MAGKXZ
	DD	FLAT:?QueryInterface@CChartAddInBase000000@@MAGJABU_GUID@@PAPAX@Z
	DD	FLAT:?PostConstruct@CIWUnknown@@MAEXXZ
	DD	FLAT:?PreDestructX@CIWUnknown@@MAEXXZ
	DD	FLAT:?PreDestruct@CIWUnknown@@MAEXXZ
	DD	FLAT:?GetRegisteredEventMap@CGapRevisionAddInImp@@MBEPBW4EAddInEventType@IChartAddIn000000@@XZ
	DD	FLAT:?AfeterOnOcxDestroyWindow@CChartAddInBase000000@@MAEXXZ
	DD	FLAT:?SetUseGapRevision@CGapRevisionAddInImp@@MAEXHH@Z
	DD	FLAT:?CalcGapRevision@CGapRevisionAddInImp@@MAEXPBDH@Z
	DD	FLAT:?CalcGapRevisionReal@CGapRevisionAddInImp@@MAEXPBD@Z
	DD	FLAT:?RestoreGapRevision@CGapRevisionAddInImp@@MAEXPBD@Z
CONST	ENDS
;	COMDAT ??_7?$CTypedPtrMap@VCMapStringToPtr@@V?$CStringT@DV?$StrTraitMFC_DLL@DV?$ChTraitsCRT@D@ATL@@@@@ATL@@PAUST_GAP_INFO@@@@6B@
CONST	SEGMENT
??_7?$CTypedPtrMap@VCMapStringToPtr@@V?$CStringT@DV?$StrTraitMFC_DLL@DV?$ChTraitsCRT@D@ATL@@@@@ATL@@PAUST_GAP_INFO@@@@6B@ DD FLAT:??_R4?$CTypedPtrMap@VCMapStringToPtr@@V?$CStringT@DV?$StrTraitMFC_DLL@DV?$ChTraitsCRT@D@ATL@@@@@ATL@@PAUST_GAP_INFO@@@@6B@ ; CTypedPtrMap<CMapStringToPtr,ATL::CStringT<char,StrTraitMFC_DLL<char,ATL::ChTraitsCRT<char> > >,ST_GAP_INFO *>::`vftable'
	DD	FLAT:?GetRuntimeClass@CMapStringToPtr@@UBEPAUCRuntimeClass@@XZ
	DD	FLAT:??_E?$CTypedPtrMap@VCMapStringToPtr@@V?$CStringT@DV?$StrTraitMFC_DLL@DV?$ChTraitsCRT@D@ATL@@@@@ATL@@PAUST_GAP_INFO@@@@UAEPAXI@Z
	DD	FLAT:?Serialize@CObject@@UAEXAAVCArchive@@@Z
	DD	FLAT:?AssertValid@CObject@@UBEXXZ
	DD	FLAT:?Dump@CObject@@UBEXAAVCDumpContext@@@Z
CONST	ENDS
;	COMDAT ??_7?$CList@NN@@6B@
CONST	SEGMENT
??_7?$CList@NN@@6B@ DD FLAT:??_R4?$CList@NN@@6B@	; CList<double,double>::`vftable'
	DD	FLAT:?GetRuntimeClass@CObject@@UBEPAUCRuntimeClass@@XZ
	DD	FLAT:??_E?$CList@NN@@UAEPAXI@Z
	DD	FLAT:?Serialize@?$CList@NN@@UAEXAAVCArchive@@@Z
	DD	FLAT:?AssertValid@CObject@@UBEXXZ
	DD	FLAT:?Dump@CObject@@UBEXAAVCDumpContext@@@Z
CONST	ENDS
;	COMDAT ??_R1A@?0A@EA@IUnknown@@8
rdata$r	SEGMENT
??_R1A@?0A@EA@IUnknown@@8 DD FLAT:??_R0?AUIUnknown@@@8	; IUnknown::`RTTI Base Class Descriptor at (0,-1,0,64)'
	DD	00H
	DD	00H
	DD	0ffffffffH
	DD	00H
	DD	040H
	DD	FLAT:??_R3IUnknown@@8
rdata$r	ENDS
;	COMDAT ??_R2IUnknown@@8
rdata$r	SEGMENT
??_R2IUnknown@@8 DD FLAT:??_R1A@?0A@EA@IUnknown@@8	; IUnknown::`RTTI Base Class Array'
rdata$r	ENDS
;	COMDAT ??_R3IUnknown@@8
rdata$r	SEGMENT
??_R3IUnknown@@8 DD 00H					; IUnknown::`RTTI Class Hierarchy Descriptor'
	DD	00H
	DD	01H
	DD	FLAT:??_R2IUnknown@@8
rdata$r	ENDS
;	COMDAT ??_R0?AUIUnknown@@@8
data$rs	SEGMENT
??_R0?AUIUnknown@@@8 DD FLAT:??_7type_info@@6B@		; IUnknown `RTTI Type Descriptor'
	DD	00H
	DB	'.?AUIUnknown@@', 00H
data$rs	ENDS
;	COMDAT ??_R1A@?0A@EA@CObject@@8
rdata$r	SEGMENT
??_R1A@?0A@EA@CObject@@8 DD FLAT:??_R0?AVCObject@@@8	; CObject::`RTTI Base Class Descriptor at (0,-1,0,64)'
	DD	00H
	DD	00H
	DD	0ffffffffH
	DD	00H
	DD	040H
	DD	FLAT:??_R3CObject@@8
rdata$r	ENDS
;	COMDAT ??_R2CObject@@8
rdata$r	SEGMENT
??_R2CObject@@8 DD FLAT:??_R1A@?0A@EA@CObject@@8	; CObject::`RTTI Base Class Array'
rdata$r	ENDS
;	COMDAT ??_R3CObject@@8
rdata$r	SEGMENT
??_R3CObject@@8 DD 00H					; CObject::`RTTI Class Hierarchy Descriptor'
	DD	00H
	DD	01H
	DD	FLAT:??_R2CObject@@8
rdata$r	ENDS
;	COMDAT ??_R0?AVCObject@@@8
data$rs	SEGMENT
??_R0?AVCObject@@@8 DD FLAT:??_7type_info@@6B@		; CObject `RTTI Type Descriptor'
	DD	00H
	DB	'.?AVCObject@@', 00H
data$rs	ENDS
;	COMDAT xdata$x
xdata$x	SEGMENT
__ehfuncinfo$??1ILPCSTR000000@@QAE@XZ DD 019930522H
	DD	00H
	DD	00H
	DD	2 DUP(00H)
	DD	2 DUP(00H)
	DD	00H
	DD	05H
xdata$x	ENDS
;	COMDAT xdata$x
xdata$x	SEGMENT
__ehfuncinfo$??1CMultiLanguageResourceSetter@@QAE@XZ DD 019930522H
	DD	00H
	DD	00H
	DD	2 DUP(00H)
	DD	2 DUP(00H)
	DD	00H
	DD	05H
xdata$x	ENDS
;	COMDAT xdata$x
xdata$x	SEGMENT
__unwindtable$??_GCGapRevisionAddInImp@@UAEPAXI@Z DD 0ffffffffH
	DD	FLAT:___std_terminate
	DD	00H
	DD	FLAT:___std_terminate
	DD	01H
	DD	FLAT:___std_terminate
__ehfuncinfo$??_GCGapRevisionAddInImp@@UAEPAXI@Z DD 019930522H
	DD	03H
	DD	FLAT:__unwindtable$??_GCGapRevisionAddInImp@@UAEPAXI@Z
	DD	2 DUP(00H)
	DD	2 DUP(00H)
	DD	00H
	DD	05H
xdata$x	ENDS
;	COMDAT xdata$x
xdata$x	SEGMENT
__unwindtable$?OnSaveEnvironment@CGapRevisionAddInImp@@MAEXPAUIPropertyMap@@@Z DD 0ffffffffH
	DD	FLAT:__unwindfunclet$?OnSaveEnvironment@CGapRevisionAddInImp@@MAEXPAUIPropertyMap@@@Z$0
__ehfuncinfo$?OnSaveEnvironment@CGapRevisionAddInImp@@MAEXPAUIPropertyMap@@@Z DD 019930522H
	DD	01H
	DD	FLAT:__unwindtable$?OnSaveEnvironment@CGapRevisionAddInImp@@MAEXPAUIPropertyMap@@@Z
	DD	2 DUP(00H)
	DD	2 DUP(00H)
	DD	00H
	DD	01H
xdata$x	ENDS
;	COMDAT xdata$x
xdata$x	SEGMENT
__unwindtable$?OnLoadEnvironment@CGapRevisionAddInImp@@MAEXPAUIPropertyMap@@@Z DD 0ffffffffH
	DD	FLAT:__unwindfunclet$?OnLoadEnvironment@CGapRevisionAddInImp@@MAEXPAUIPropertyMap@@@Z$0
	DD	00H
	DD	FLAT:__unwindfunclet$?OnLoadEnvironment@CGapRevisionAddInImp@@MAEXPAUIPropertyMap@@@Z$1
	DD	01H
	DD	FLAT:__unwindfunclet$?OnLoadEnvironment@CGapRevisionAddInImp@@MAEXPAUIPropertyMap@@@Z$2
__ehfuncinfo$?OnLoadEnvironment@CGapRevisionAddInImp@@MAEXPAUIPropertyMap@@@Z DD 019930522H
	DD	03H
	DD	FLAT:__unwindtable$?OnLoadEnvironment@CGapRevisionAddInImp@@MAEXPAUIPropertyMap@@@Z
	DD	2 DUP(00H)
	DD	2 DUP(00H)
	DD	00H
	DD	01H
xdata$x	ENDS
;	COMDAT xdata$x
xdata$x	SEGMENT
__unwindtable$?OnAddInToolCommand@CGapRevisionAddInImp@@MAEHAAJW4EAICommandType@@@Z DD 0ffffffffH
	DD	FLAT:___std_terminate
__ehfuncinfo$?OnAddInToolCommand@CGapRevisionAddInImp@@MAEHAAJW4EAICommandType@@@Z DD 019930522H
	DD	01H
	DD	FLAT:__unwindtable$?OnAddInToolCommand@CGapRevisionAddInImp@@MAEHAAJW4EAICommandType@@@Z
	DD	2 DUP(00H)
	DD	2 DUP(00H)
	DD	00H
	DD	01H
xdata$x	ENDS
;	COMDAT xdata$x
xdata$x	SEGMENT
__unwindtable$?OnAddInToolCommand@CGapRevisionAddInImp@@MAEHW4EAICommandType@@J@Z DD 0ffffffffH
	DD	FLAT:___std_terminate
__ehfuncinfo$?OnAddInToolCommand@CGapRevisionAddInImp@@MAEHW4EAICommandType@@J@Z DD 019930522H
	DD	01H
	DD	FLAT:__unwindtable$?OnAddInToolCommand@CGapRevisionAddInImp@@MAEHW4EAICommandType@@J@Z
	DD	2 DUP(00H)
	DD	2 DUP(00H)
	DD	00H
	DD	01H
xdata$x	ENDS
;	COMDAT xdata$x
xdata$x	SEGMENT
__unwindtable$?OnAddInToolCommand@CGapRevisionAddInImp@@MAEHW4EAICommandType@@JJ@Z DD 0ffffffffH
	DD	FLAT:__unwindfunclet$?OnAddInToolCommand@CGapRevisionAddInImp@@MAEHW4EAICommandType@@JJ@Z$0
	DD	0ffffffffH
	DD	FLAT:___std_terminate
__ehfuncinfo$?OnAddInToolCommand@CGapRevisionAddInImp@@MAEHW4EAICommandType@@JJ@Z DD 019930522H
	DD	02H
	DD	FLAT:__unwindtable$?OnAddInToolCommand@CGapRevisionAddInImp@@MAEHW4EAICommandType@@JJ@Z
	DD	2 DUP(00H)
	DD	2 DUP(00H)
	DD	00H
	DD	01H
xdata$x	ENDS
;	COMDAT xdata$x
xdata$x	SEGMENT
__ehfuncinfo$?RestoreGapRevision@CGapRevisionAddInImp@@MAEXPBD@Z DD 019930522H
	DD	0aH
	DD	FLAT:__unwindtable$?RestoreGapRevision@CGapRevisionAddInImp@@MAEXPBD@Z
	DD	2 DUP(00H)
	DD	2 DUP(00H)
	DD	00H
	DD	01H
__unwindtable$?RestoreGapRevision@CGapRevisionAddInImp@@MAEXPBD@Z DD 0ffffffffH
	DD	FLAT:__unwindfunclet$?RestoreGapRevision@CGapRevisionAddInImp@@MAEXPBD@Z$0
	DD	00H
	DD	FLAT:__unwindfunclet$?RestoreGapRevision@CGapRevisionAddInImp@@MAEXPBD@Z$1
	DD	00H
	DD	00H
	DD	01H
	DD	FLAT:__unwindfunclet$?RestoreGapRevision@CGapRevisionAddInImp@@MAEXPBD@Z$2
	DD	00H
	DD	00H
	DD	03H
	DD	FLAT:__unwindfunclet$?RestoreGapRevision@CGapRevisionAddInImp@@MAEXPBD@Z$4
	DD	00H
	DD	00H
	DD	00H
	DD	00H
	DD	05H
	DD	FLAT:__unwindfunclet$?RestoreGapRevision@CGapRevisionAddInImp@@MAEXPBD@Z$10
	DD	00H
	DD	FLAT:___std_terminate
xdata$x	ENDS
;	COMDAT xdata$x
xdata$x	SEGMENT
__ehfuncinfo$?CalcGapRevisionReal@CGapRevisionAddInImp@@MAEXPBD@Z DD 019930522H
	DD	0bH
	DD	FLAT:__unwindtable$?CalcGapRevisionReal@CGapRevisionAddInImp@@MAEXPBD@Z
	DD	2 DUP(00H)
	DD	2 DUP(00H)
	DD	00H
	DD	01H
__unwindtable$?CalcGapRevisionReal@CGapRevisionAddInImp@@MAEXPBD@Z DD 0ffffffffH
	DD	FLAT:__unwindfunclet$?CalcGapRevisionReal@CGapRevisionAddInImp@@MAEXPBD@Z$0
	DD	00H
	DD	FLAT:__unwindfunclet$?CalcGapRevisionReal@CGapRevisionAddInImp@@MAEXPBD@Z$1
	DD	00H
	DD	00H
	DD	01H
	DD	FLAT:__unwindfunclet$?CalcGapRevisionReal@CGapRevisionAddInImp@@MAEXPBD@Z$2
	DD	00H
	DD	00H
	DD	03H
	DD	FLAT:__unwindfunclet$?CalcGapRevisionReal@CGapRevisionAddInImp@@MAEXPBD@Z$4
	DD	00H
	DD	00H
	DD	00H
	DD	00H
	DD	00H
	DD	00H
	DD	00H
	DD	00H
	DD	00H
	DD	FLAT:___std_terminate
xdata$x	ENDS
;	COMDAT xdata$x
xdata$x	SEGMENT
__ehfuncinfo$?CalcGapRevision@CGapRevisionAddInImp@@MAEXPBDH@Z DD 019930522H
	DD	09H
	DD	FLAT:__unwindtable$?CalcGapRevision@CGapRevisionAddInImp@@MAEXPBDH@Z
	DD	2 DUP(00H)
	DD	2 DUP(00H)
	DD	00H
	DD	01H
__unwindtable$?CalcGapRevision@CGapRevisionAddInImp@@MAEXPBDH@Z DD 0ffffffffH
	DD	FLAT:__unwindfunclet$?CalcGapRevision@CGapRevisionAddInImp@@MAEXPBDH@Z$0
	DD	00H
	DD	FLAT:__unwindfunclet$?CalcGapRevision@CGapRevisionAddInImp@@MAEXPBDH@Z$1
	DD	00H
	DD	00H
	DD	01H
	DD	FLAT:__unwindfunclet$?CalcGapRevision@CGapRevisionAddInImp@@MAEXPBDH@Z$2
	DD	00H
	DD	00H
	DD	03H
	DD	FLAT:__unwindfunclet$?CalcGapRevision@CGapRevisionAddInImp@@MAEXPBDH@Z$4
	DD	00H
	DD	00H
	DD	00H
	DD	00H
	DD	00H
	DD	FLAT:___std_terminate
xdata$x	ENDS
;	COMDAT xdata$x
xdata$x	SEGMENT
__ehfuncinfo$?SetUseGapRevision@CGapRevisionAddInImp@@MAEXHH@Z DD 019930522H
	DD	010H
	DD	FLAT:__unwindtable$?SetUseGapRevision@CGapRevisionAddInImp@@MAEXHH@Z
	DD	2 DUP(00H)
	DD	2 DUP(00H)
	DD	00H
	DD	01H
__unwindtable$?SetUseGapRevision@CGapRevisionAddInImp@@MAEXHH@Z DD 0ffffffffH
	DD	FLAT:__unwindfunclet$?SetUseGapRevision@CGapRevisionAddInImp@@MAEXHH@Z$0
	DD	00H
	DD	FLAT:__unwindfunclet$?SetUseGapRevision@CGapRevisionAddInImp@@MAEXHH@Z$1
	DD	00H
	DD	FLAT:__unwindfunclet$?SetUseGapRevision@CGapRevisionAddInImp@@MAEXHH@Z$10
	DD	00H
	DD	FLAT:__unwindfunclet$?SetUseGapRevision@CGapRevisionAddInImp@@MAEXHH@Z$3
	DD	03H
	DD	FLAT:__unwindfunclet$?SetUseGapRevision@CGapRevisionAddInImp@@MAEXHH@Z$4
	DD	00H
	DD	FLAT:__unwindfunclet$?SetUseGapRevision@CGapRevisionAddInImp@@MAEXHH@Z$4
	DD	05H
	DD	FLAT:___std_terminate
	DD	0ffffffffH
	DD	FLAT:___std_terminate
	DD	0ffffffffH
	DD	FLAT:__unwindfunclet$?SetUseGapRevision@CGapRevisionAddInImp@@MAEXHH@Z$5
	DD	08H
	DD	FLAT:__unwindfunclet$?SetUseGapRevision@CGapRevisionAddInImp@@MAEXHH@Z$6
	DD	08H
	DD	FLAT:__unwindfunclet$?SetUseGapRevision@CGapRevisionAddInImp@@MAEXHH@Z$13
	DD	08H
	DD	FLAT:__unwindfunclet$?SetUseGapRevision@CGapRevisionAddInImp@@MAEXHH@Z$8
	DD	0bH
	DD	FLAT:__unwindfunclet$?SetUseGapRevision@CGapRevisionAddInImp@@MAEXHH@Z$9
	DD	08H
	DD	FLAT:__unwindfunclet$?SetUseGapRevision@CGapRevisionAddInImp@@MAEXHH@Z$9
	DD	0dH
	DD	FLAT:___std_terminate
	DD	0ffffffffH
	DD	FLAT:___std_terminate
xdata$x	ENDS
;	COMDAT xdata$x
xdata$x	SEGMENT
__unwindtable$?RemoveKey@?$CTypedPtrMap@VCMapStringToPtr@@V?$CStringT@DV?$StrTraitMFC_DLL@DV?$ChTraitsCRT@D@ATL@@@@@ATL@@PAUST_GAP_INFO@@@@QAEHV?$CStringT@DV?$StrTraitMFC_DLL@DV?$ChTraitsCRT@D@ATL@@@@@ATL@@@Z DD 0ffffffffH
	DD	FLAT:__unwindfunclet$?RemoveKey@?$CTypedPtrMap@VCMapStringToPtr@@V?$CStringT@DV?$StrTraitMFC_DLL@DV?$ChTraitsCRT@D@ATL@@@@@ATL@@PAUST_GAP_INFO@@@@QAEHV?$CStringT@DV?$StrTraitMFC_DLL@DV?$ChTraitsCRT@D@ATL@@@@@ATL@@@Z$0
__ehfuncinfo$?RemoveKey@?$CTypedPtrMap@VCMapStringToPtr@@V?$CStringT@DV?$StrTraitMFC_DLL@DV?$ChTraitsCRT@D@ATL@@@@@ATL@@PAUST_GAP_INFO@@@@QAEHV?$CStringT@DV?$StrTraitMFC_DLL@DV?$ChTraitsCRT@D@ATL@@@@@ATL@@@Z DD 019930522H
	DD	01H
	DD	FLAT:__unwindtable$?RemoveKey@?$CTypedPtrMap@VCMapStringToPtr@@V?$CStringT@DV?$StrTraitMFC_DLL@DV?$ChTraitsCRT@D@ATL@@@@@ATL@@PAUST_GAP_INFO@@@@QAEHV?$CStringT@DV?$StrTraitMFC_DLL@DV?$ChTraitsCRT@D@ATL@@@@@ATL@@@Z
	DD	2 DUP(00H)
	DD	2 DUP(00H)
	DD	00H
	DD	01H
xdata$x	ENDS
;	COMDAT xdata$x
xdata$x	SEGMENT
__unwindtable$?SetAt@?$CTypedPtrMap@VCMapStringToPtr@@V?$CStringT@DV?$StrTraitMFC_DLL@DV?$ChTraitsCRT@D@ATL@@@@@ATL@@PAUST_GAP_INFO@@@@QAEXV?$CStringT@DV?$StrTraitMFC_DLL@DV?$ChTraitsCRT@D@ATL@@@@@ATL@@PAUST_GAP_INFO@@@Z DD 0ffffffffH
	DD	FLAT:__unwindfunclet$?SetAt@?$CTypedPtrMap@VCMapStringToPtr@@V?$CStringT@DV?$StrTraitMFC_DLL@DV?$ChTraitsCRT@D@ATL@@@@@ATL@@PAUST_GAP_INFO@@@@QAEXV?$CStringT@DV?$StrTraitMFC_DLL@DV?$ChTraitsCRT@D@ATL@@@@@ATL@@PAUST_GAP_INFO@@@Z$0
__ehfuncinfo$?SetAt@?$CTypedPtrMap@VCMapStringToPtr@@V?$CStringT@DV?$StrTraitMFC_DLL@DV?$ChTraitsCRT@D@ATL@@@@@ATL@@PAUST_GAP_INFO@@@@QAEXV?$CStringT@DV?$StrTraitMFC_DLL@DV?$ChTraitsCRT@D@ATL@@@@@ATL@@PAUST_GAP_INFO@@@Z DD 019930522H
	DD	01H
	DD	FLAT:__unwindtable$?SetAt@?$CTypedPtrMap@VCMapStringToPtr@@V?$CStringT@DV?$StrTraitMFC_DLL@DV?$ChTraitsCRT@D@ATL@@@@@ATL@@PAUST_GAP_INFO@@@@QAEXV?$CStringT@DV?$StrTraitMFC_DLL@DV?$ChTraitsCRT@D@ATL@@@@@ATL@@PAUST_GAP_INFO@@@Z
	DD	2 DUP(00H)
	DD	2 DUP(00H)
	DD	00H
	DD	01H
xdata$x	ENDS
;	COMDAT xdata$x
xdata$x	SEGMENT
__unwindtable$??1CGapRevisionAddInImp@@UAE@XZ DD 0ffffffffH
	DD	FLAT:___std_terminate
	DD	00H
	DD	FLAT:___std_terminate
__ehfuncinfo$??1CGapRevisionAddInImp@@UAE@XZ DD 019930522H
	DD	02H
	DD	FLAT:__unwindtable$??1CGapRevisionAddInImp@@UAE@XZ
	DD	2 DUP(00H)
	DD	2 DUP(00H)
	DD	00H
	DD	05H
xdata$x	ENDS
;	COMDAT xdata$x
xdata$x	SEGMENT
__unwindtable$??0CGapRevisionAddInImp@@QAE@PAUIChartOCX000000@@PAUIAddInDllBase@@@Z DD 0ffffffffH
	DD	FLAT:__unwindfunclet$??0CGapRevisionAddInImp@@QAE@PAUIChartOCX000000@@PAUIAddInDllBase@@@Z$0
__ehfuncinfo$??0CGapRevisionAddInImp@@QAE@PAUIChartOCX000000@@PAUIAddInDllBase@@@Z DD 019930522H
	DD	01H
	DD	FLAT:__unwindtable$??0CGapRevisionAddInImp@@QAE@PAUIChartOCX000000@@PAUIAddInDllBase@@@Z
	DD	2 DUP(00H)
	DD	2 DUP(00H)
	DD	00H
	DD	01H
xdata$x	ENDS
;	COMDAT xdata$x
xdata$x	SEGMENT
__unwindtable$??_GST_GAP_INFO@@QAEPAXI@Z DD 0ffffffffH
	DD	FLAT:___std_terminate
	DD	00H
	DD	FLAT:___std_terminate
__ehfuncinfo$??_GST_GAP_INFO@@QAEPAXI@Z DD 019930522H
	DD	02H
	DD	FLAT:__unwindtable$??_GST_GAP_INFO@@QAEPAXI@Z
	DD	2 DUP(00H)
	DD	2 DUP(00H)
	DD	00H
	DD	05H
xdata$x	ENDS
;	COMDAT xdata$x
xdata$x	SEGMENT
__unwindtable$??_G?$CList@NN@@UAEPAXI@Z DD 0ffffffffH
	DD	FLAT:___std_terminate
__ehfuncinfo$??_G?$CList@NN@@UAEPAXI@Z DD 019930522H
	DD	01H
	DD	FLAT:__unwindtable$??_G?$CList@NN@@UAEPAXI@Z
	DD	2 DUP(00H)
	DD	2 DUP(00H)
	DD	00H
	DD	05H
xdata$x	ENDS
;	COMDAT xdata$x
xdata$x	SEGMENT
__ehfuncinfo$??1?$CList@NN@@UAE@XZ DD 019930522H
	DD	00H
	DD	00H
	DD	2 DUP(00H)
	DD	2 DUP(00H)
	DD	00H
	DD	05H
xdata$x	ENDS
;	COMDAT xdata$x
xdata$x	SEGMENT
__unwindtable$??1ST_GAP_INFO@@QAE@XZ DD 0ffffffffH
	DD	FLAT:___std_terminate
__ehfuncinfo$??1ST_GAP_INFO@@QAE@XZ DD 019930522H
	DD	01H
	DD	FLAT:__unwindtable$??1ST_GAP_INFO@@QAE@XZ
	DD	2 DUP(00H)
	DD	2 DUP(00H)
	DD	00H
	DD	05H
xdata$x	ENDS
;	COMDAT xdata$x
xdata$x	SEGMENT
__unwindtable$??0ST_GAP_INFO@@QAE@XZ DD 0ffffffffH
	DD	FLAT:__unwindfunclet$??0ST_GAP_INFO@@QAE@XZ$0
__ehfuncinfo$??0ST_GAP_INFO@@QAE@XZ DD 019930522H
	DD	01H
	DD	FLAT:__unwindtable$??0ST_GAP_INFO@@QAE@XZ
	DD	2 DUP(00H)
	DD	2 DUP(00H)
	DD	00H
	DD	01H
xdata$x	ENDS
; Function compile flags: /Odsp
;	COMDAT ??_ECGapRevisionAddInImp@@W7AEPAXI@Z
_TEXT	SEGMENT
??_ECGapRevisionAddInImp@@W7AEPAXI@Z PROC		; [thunk]:CGapRevisionAddInImp::`vector deleting destructor', COMDAT
  00000	83 e9 08	 sub	 ecx, 8
  00003	e9 00 00 00 00	 jmp	 ??_ECGapRevisionAddInImp@@UAEPAXI@Z
??_ECGapRevisionAddInImp@@W7AEPAXI@Z ENDP		; [thunk]:CGapRevisionAddInImp::`vector deleting destructor'
_TEXT	ENDS
; Function compile flags: /Odsp
;	COMDAT ?Release@CChartAddInBase000000@@O7AGKXZ
_TEXT	SEGMENT
?Release@CChartAddInBase000000@@O7AGKXZ PROC		; [thunk]:CChartAddInBase000000::Release`adjustor{8}', COMDAT
  00000	83 6c 24 04 08	 sub	 DWORD PTR [esp+4], 8
  00005	e9 00 00 00 00	 jmp	 ?Release@CChartAddInBase000000@@MAGKXZ ; CChartAddInBase000000::Release
?Release@CChartAddInBase000000@@O7AGKXZ ENDP		; [thunk]:CChartAddInBase000000::Release`adjustor{8}'
_TEXT	ENDS
; Function compile flags: /Odsp
;	COMDAT ?AddRef@CChartAddInBase000000@@O7AGKXZ
_TEXT	SEGMENT
?AddRef@CChartAddInBase000000@@O7AGKXZ PROC		; [thunk]:CChartAddInBase000000::AddRef`adjustor{8}', COMDAT
  00000	83 6c 24 04 08	 sub	 DWORD PTR [esp+4], 8
  00005	e9 00 00 00 00	 jmp	 ?AddRef@CChartAddInBase000000@@MAGKXZ ; CChartAddInBase000000::AddRef
?AddRef@CChartAddInBase000000@@O7AGKXZ ENDP		; [thunk]:CChartAddInBase000000::AddRef`adjustor{8}'
_TEXT	ENDS
; Function compile flags: /Odsp
;	COMDAT ?QueryInterface@CChartAddInBase000000@@O7AGJABU_GUID@@PAPAX@Z
_TEXT	SEGMENT
?QueryInterface@CChartAddInBase000000@@O7AGJABU_GUID@@PAPAX@Z PROC ; [thunk]:CChartAddInBase000000::QueryInterface`adjustor{8}', COMDAT
  00000	83 6c 24 04 08	 sub	 DWORD PTR [esp+4], 8
  00005	e9 00 00 00 00	 jmp	 ?QueryInterface@CChartAddInBase000000@@MAGJABU_GUID@@PAPAX@Z ; CChartAddInBase000000::QueryInterface
?QueryInterface@CChartAddInBase000000@@O7AGJABU_GUID@@PAPAX@Z ENDP ; [thunk]:CChartAddInBase000000::QueryInterface`adjustor{8}'
_TEXT	ENDS
; Function compile flags: /Ogtp
; File C:\Program Files (x86)\Microsoft Visual Studio\2019\Community\VC\Tools\MSVC\14.29.30133\atlmfc\include\afxtempl.h
; File C:\Program Files (x86)\Microsoft Visual Studio\2019\Community\VC\Tools\MSVC\14.29.30133\atlmfc\include\afx.inl
; File C:\Program Files (x86)\Microsoft Visual Studio\2019\Community\VC\Tools\MSVC\14.29.30133\atlmfc\include\afxtempl.h
; File C:\Program Files (x86)\Microsoft Visual Studio\2019\Community\VC\Tools\MSVC\14.29.30133\atlmfc\include\afx.inl
; File C:\Program Files (x86)\Microsoft Visual Studio\2019\Community\VC\Tools\MSVC\14.29.30133\atlmfc\include\afxtempl.h
; File C:\Program Files (x86)\Microsoft Visual Studio\2019\Community\VC\Tools\MSVC\14.29.30133\atlmfc\include\afx.inl
; File C:\Program Files (x86)\Microsoft Visual Studio\2019\Community\VC\Tools\MSVC\14.29.30133\atlmfc\include\afxtempl.h
;	COMDAT ??$SerializeElements@N@@YGXAAVCArchive@@PANH@Z
_TEXT	SEGMENT
_ar$ = 8						; size = 4
_pElements$ = 12					; size = 4
_nCount$ = 16						; size = 4
??$SerializeElements@N@@YGXAAVCArchive@@PANH@Z PROC	; SerializeElements<double>, COMDAT

; 67   : {

  00000	55		 push	 ebp
  00001	8b ec		 mov	 ebp, esp

; 68   : 	ENSURE(nCount == 0 || pElements != NULL);

  00003	8b 4d 0c	 mov	 ecx, DWORD PTR _pElements$[ebp]
  00006	53		 push	 ebx
  00007	56		 push	 esi
  00008	8b 75 10	 mov	 esi, DWORD PTR _nCount$[ebp]
  0000b	57		 push	 edi
  0000c	85 f6		 test	 esi, esi
  0000e	74 08		 je	 SHORT $LN2@SerializeE
  00010	85 c9		 test	 ecx, ecx
  00012	0f 84 89 00 00
	00		 je	 $LN34@SerializeE
$LN2@SerializeE:
; File C:\Program Files (x86)\Microsoft Visual Studio\2019\Community\VC\Tools\MSVC\14.29.30133\atlmfc\include\afx.inl

; 212  : 	{ return (m_nMode & CArchive::load) == 0; }

  00018	8b 55 08	 mov	 edx, DWORD PTR _ar$[ebp]
  0001b	8b 42 18	 mov	 eax, DWORD PTR [edx+24]
  0001e	f7 d0		 not	 eax
  00020	a8 01		 test	 al, 1
; File C:\Program Files (x86)\Microsoft Visual Studio\2019\Community\VC\Tools\MSVC\14.29.30133\atlmfc\include\afxtempl.h

; 73   : 	if (ar.IsStoring())

  00022	74 3c		 je	 SHORT $LN10@SerializeE

; 74   : 	{
; 75   : 		TYPE* pData;
; 76   : 		UINT_PTR nElementsLeft;
; 77   : 
; 78   : 		nElementsLeft = nCount;
; 79   : 		pData = pElements;
; 80   : 		while( nElementsLeft > 0 )

  00024	85 f6		 test	 esi, esi
  00026	74 31		 je	 SHORT $LN8@SerializeE
  00028	0f 1f 84 00 00
	00 00 00	 npad	 8
$LL5@SerializeE:

; 81   : 		{
; 82   : 			UINT nElementsToWrite;
; 83   : 
; 84   : 			nElementsToWrite = UINT(__min(nElementsLeft, INT_MAX/sizeof(TYPE)));

  00030	bb ff ff ff 0f	 mov	 ebx, 268435455		; 0fffffffH
  00035	3b f3		 cmp	 esi, ebx
  00037	0f 42 de	 cmovb	 ebx, esi

; 85   : 			ar.Write(pData, nElementsToWrite*sizeof(TYPE));

  0003a	8d 3c dd 00 00
	00 00		 lea	 edi, DWORD PTR [ebx*8]
  00041	57		 push	 edi
  00042	51		 push	 ecx
  00043	8b ca		 mov	 ecx, edx
  00045	e8 00 00 00 00	 call	 ?Write@CArchive@@QAEXPBXI@Z ; CArchive::Write

; 86   : 			nElementsLeft -= nElementsToWrite;
; 87   : 			pData += nElementsToWrite;

  0004a	8b 4d 0c	 mov	 ecx, DWORD PTR _pElements$[ebp]
  0004d	8b 55 08	 mov	 edx, DWORD PTR _ar$[ebp]
  00050	03 cf		 add	 ecx, edi
  00052	89 4d 0c	 mov	 DWORD PTR _pElements$[ebp], ecx
  00055	2b f3		 sub	 esi, ebx
  00057	75 d7		 jne	 SHORT $LL5@SerializeE
$LN8@SerializeE:
  00059	5f		 pop	 edi

; 105  : 		}
; 106  : 	}
; 107  : }

  0005a	5e		 pop	 esi
  0005b	5b		 pop	 ebx
  0005c	5d		 pop	 ebp
  0005d	c2 0c 00	 ret	 12			; 0000000cH
$LN10@SerializeE:

; 97   : 		while( nElementsLeft > 0 )

  00060	85 f6		 test	 esi, esi
  00062	74 f5		 je	 SHORT $LN8@SerializeE
$LL7@SerializeE:

; 98   : 		{
; 99   : 			UINT nElementsToRead;
; 100  : 
; 101  : 			nElementsToRead = UINT(__min(nElementsLeft, INT_MAX/sizeof(TYPE)));

  00064	bf ff ff ff 0f	 mov	 edi, 268435455		; 0fffffffH
  00069	3b f7		 cmp	 esi, edi
  0006b	0f 42 fe	 cmovb	 edi, esi

; 102  : 			ar.EnsureRead(pData, nElementsToRead*sizeof(TYPE));

  0006e	8d 1c fd 00 00
	00 00		 lea	 ebx, DWORD PTR [edi*8]
; File C:\Program Files (x86)\Microsoft Visual Studio\2019\Community\VC\Tools\MSVC\14.29.30133\atlmfc\include\afx.inl

; 399  : 	UINT nRead=Read(lpBuf, nCount);

  00075	53		 push	 ebx
  00076	51		 push	 ecx
  00077	8b ca		 mov	 ecx, edx
  00079	e8 00 00 00 00	 call	 ?Read@CArchive@@QAEIPAXI@Z ; CArchive::Read

; 400  : 	if(nRead!=nCount)

  0007e	3b c3		 cmp	 eax, ebx
  00080	75 16		 jne	 SHORT $LN23@SerializeE
; File C:\Program Files (x86)\Microsoft Visual Studio\2019\Community\VC\Tools\MSVC\14.29.30133\atlmfc\include\afxtempl.h

; 97   : 		while( nElementsLeft > 0 )

  00082	8b 4d 0c	 mov	 ecx, DWORD PTR _pElements$[ebp]
  00085	8b 55 08	 mov	 edx, DWORD PTR _ar$[ebp]

; 103  : 			nElementsLeft -= nElementsToRead;
; 104  : 			pData += nElementsToRead;

  00088	03 cb		 add	 ecx, ebx
  0008a	89 4d 0c	 mov	 DWORD PTR _pElements$[ebp], ecx
  0008d	2b f7		 sub	 esi, edi
  0008f	75 d3		 jne	 SHORT $LL7@SerializeE

; 105  : 		}
; 106  : 	}
; 107  : }

  00091	5f		 pop	 edi
  00092	5e		 pop	 esi
  00093	5b		 pop	 ebx
  00094	5d		 pop	 ebp
  00095	c2 0c 00	 ret	 12			; 0000000cH
$LN23@SerializeE:
; File C:\Program Files (x86)\Microsoft Visual Studio\2019\Community\VC\Tools\MSVC\14.29.30133\atlmfc\include\afx.inl

; 402  : 		AfxThrowArchiveException(CArchiveException::endOfFile);

  00098	6a 00		 push	 0
  0009a	6a 03		 push	 3
  0009c	e8 00 00 00 00	 call	 ?AfxThrowArchiveException@@YGXHPBD@Z ; AfxThrowArchiveException
$LN34@SerializeE:
; File C:\Program Files (x86)\Microsoft Visual Studio\2019\Community\VC\Tools\MSVC\14.29.30133\atlmfc\include\afxtempl.h

; 68   : 	ENSURE(nCount == 0 || pElements != NULL);

  000a1	e8 00 00 00 00	 call	 ?AfxThrowInvalidArgException@@YGXXZ ; AfxThrowInvalidArgException
$LN32@SerializeE:
  000a6	cc		 int	 3
??$SerializeElements@N@@YGXAAVCArchive@@PANH@Z ENDP	; SerializeElements<double>
_TEXT	ENDS
; Function compile flags: /Ogtp
;	COMDAT ??__F?m_strAddInItemName@CGapRevisionAddInImp@@2V?$CStringT@DV?$StrTraitMFC_DLL@DV?$ChTraitsCRT@D@ATL@@@@@ATL@@A@@YAXXZ
text$yd	SEGMENT
??__F?m_strAddInItemName@CGapRevisionAddInImp@@2V?$CStringT@DV?$StrTraitMFC_DLL@DV?$ChTraitsCRT@D@ATL@@@@@ATL@@A@@YAXXZ PROC ; `dynamic atexit destructor for 'CGapRevisionAddInImp::m_strAddInItemName'', COMDAT
  00000	b9 00 00 00 00	 mov	 ecx, OFFSET ?m_strAddInItemName@CGapRevisionAddInImp@@2V?$CStringT@DV?$StrTraitMFC_DLL@DV?$ChTraitsCRT@D@ATL@@@@@ATL@@A ; CGapRevisionAddInImp::m_strAddInItemName
  00005	ff 25 00 00 00
	00		 jmp	 DWORD PTR __imp_??1?$CStringT@DV?$StrTraitMFC_DLL@DV?$ChTraitsCRT@D@ATL@@@@@ATL@@QAE@XZ
??__F?m_strAddInItemName@CGapRevisionAddInImp@@2V?$CStringT@DV?$StrTraitMFC_DLL@DV?$ChTraitsCRT@D@ATL@@@@@ATL@@A@@YAXXZ ENDP ; `dynamic atexit destructor for 'CGapRevisionAddInImp::m_strAddInItemName''
text$yd	ENDS
; Function compile flags: /Ogtp
; File D:\git\src\IBK\IBK_DRFN\ProjSrc\SrcChartEx\ChartOCX\AddInManager\ChartCommonAddIn\GapRevisionAddInImp.cpp
;	COMDAT ??__E?m_strAddInItemName@CGapRevisionAddInImp@@2V?$CStringT@DV?$StrTraitMFC_DLL@DV?$ChTraitsCRT@D@ATL@@@@@ATL@@A@@YAXXZ
text$di	SEGMENT
??__E?m_strAddInItemName@CGapRevisionAddInImp@@2V?$CStringT@DV?$StrTraitMFC_DLL@DV?$ChTraitsCRT@D@ATL@@@@@ATL@@A@@YAXXZ PROC ; `dynamic initializer for 'CGapRevisionAddInImp::m_strAddInItemName'', COMDAT

; 141  : CString CGapRevisionAddInImp::m_strAddInItemName = "GAP_REVISION";

  00000	68 00 00 00 00	 push	 OFFSET ??_C@_0N@HCAKPNHK@GAP_REVISION@
  00005	b9 00 00 00 00	 mov	 ecx, OFFSET ?m_strAddInItemName@CGapRevisionAddInImp@@2V?$CStringT@DV?$StrTraitMFC_DLL@DV?$ChTraitsCRT@D@ATL@@@@@ATL@@A ; CGapRevisionAddInImp::m_strAddInItemName
  0000a	ff 15 00 00 00
	00		 call	 DWORD PTR __imp_??0?$CStringT@DV?$StrTraitMFC_DLL@DV?$ChTraitsCRT@D@ATL@@@@@ATL@@QAE@PBD@Z
  00010	68 00 00 00 00	 push	 OFFSET ??__F?m_strAddInItemName@CGapRevisionAddInImp@@2V?$CStringT@DV?$StrTraitMFC_DLL@DV?$ChTraitsCRT@D@ATL@@@@@ATL@@A@@YAXXZ ; `dynamic atexit destructor for 'CGapRevisionAddInImp::m_strAddInItemName''
  00015	e8 00 00 00 00	 call	 _atexit
  0001a	59		 pop	 ecx
  0001b	c3		 ret	 0
??__E?m_strAddInItemName@CGapRevisionAddInImp@@2V?$CStringT@DV?$StrTraitMFC_DLL@DV?$ChTraitsCRT@D@ATL@@@@@ATL@@A@@YAXXZ ENDP ; `dynamic initializer for 'CGapRevisionAddInImp::m_strAddInItemName''
text$di	ENDS
; Function compile flags: /Ogtp
; File D:\git\src\IBK\IBK_DRFN\ProjSrc\SrcChartEx\ChartOCX\AddInManager\Include_AddIn\I000000\_IString.h
;	COMDAT ??1ILPCSTR000000@@QAE@XZ
_TEXT	SEGMENT
__$EHRec$ = -12						; size = 12
??1ILPCSTR000000@@QAE@XZ PROC				; ILPCSTR000000::~ILPCSTR000000, COMDAT
; _this$ = ecx

; 44   : 	{

  00000	55		 push	 ebp
  00001	8b ec		 mov	 ebp, esp
  00003	6a ff		 push	 -1
  00005	68 00 00 00 00	 push	 __ehhandler$??1ILPCSTR000000@@QAE@XZ
  0000a	64 a1 00 00 00
	00		 mov	 eax, DWORD PTR fs:0
  00010	50		 push	 eax
  00011	56		 push	 esi
  00012	a1 00 00 00 00	 mov	 eax, DWORD PTR ___security_cookie
  00017	33 c5		 xor	 eax, ebp
  00019	50		 push	 eax
  0001a	8d 45 f4	 lea	 eax, DWORD PTR __$EHRec$[ebp]
  0001d	64 a3 00 00 00
	00		 mov	 DWORD PTR fs:0, eax
  00023	8b f1		 mov	 esi, ecx

; 45   : 		if( m_pIStrData)

  00025	8b 4e 04	 mov	 ecx, DWORD PTR [esi+4]
  00028	85 c9		 test	 ecx, ecx
  0002a	74 13		 je	 SHORT $LN2@ILPCSTR000

; 46   : 		{
; 47   : 			m_pIStrData->Release();

  0002c	8b 01		 mov	 eax, DWORD PTR [ecx]
  0002e	51		 push	 ecx
  0002f	ff 50 08	 call	 DWORD PTR [eax+8]

; 48   : 			m_pIStrData = NULL;

  00032	c7 46 04 00 00
	00 00		 mov	 DWORD PTR [esi+4], 0

; 49   : 			m_szData = NULL;

  00039	c7 06 00 00 00
	00		 mov	 DWORD PTR [esi], 0
$LN2@ILPCSTR000:

; 50   : 		}
; 51   : 	}

  0003f	8b 4d f4	 mov	 ecx, DWORD PTR __$EHRec$[ebp]
  00042	64 89 0d 00 00
	00 00		 mov	 DWORD PTR fs:0, ecx
  00049	59		 pop	 ecx
  0004a	5e		 pop	 esi
  0004b	8b e5		 mov	 esp, ebp
  0004d	5d		 pop	 ebp
  0004e	c3		 ret	 0
  0004f	cc		 int	 3
  00050	cc		 int	 3
  00051	cc		 int	 3
  00052	cc		 int	 3
  00053	cc		 int	 3
_TEXT	ENDS
;	COMDAT text$x
text$x	SEGMENT
__ehhandler$??1ILPCSTR000000@@QAE@XZ:
  00000	90		 npad	 1
  00001	90		 npad	 1
  00002	8b 54 24 08	 mov	 edx, DWORD PTR [esp+8]
  00006	8d 42 0c	 lea	 eax, DWORD PTR [edx+12]
  00009	8b 4a f8	 mov	 ecx, DWORD PTR [edx-8]
  0000c	33 c8		 xor	 ecx, eax
  0000e	e8 00 00 00 00	 call	 @__security_check_cookie@4
  00013	b8 00 00 00 00	 mov	 eax, OFFSET __ehfuncinfo$??1ILPCSTR000000@@QAE@XZ
  00018	e9 00 00 00 00	 jmp	 ___CxxFrameHandler3
text$x	ENDS
??1ILPCSTR000000@@QAE@XZ ENDP				; ILPCSTR000000::~ILPCSTR000000
; Function compile flags: /Ogtp
; File D:\git\src\IBK\IBK_DRFN\ProjSrc\SrcChartEx\ChartOCX\Include_Chart\Dll_Load\IMetaTable.h
; File C:\Program Files (x86)\Microsoft Visual Studio\2019\Community\VC\Tools\MSVC\14.29.30133\atlmfc\include\afxwin1.inl
; File D:\git\src\IBK\IBK_DRFN\ProjSrc\SrcChartEx\ChartOCX\Include_Chart\Dll_Load\IMetaTable.h
;	COMDAT ??1CMultiLanguageResourceSetter@@QAE@XZ
_TEXT	SEGMENT
__$EHRec$ = -12						; size = 12
??1CMultiLanguageResourceSetter@@QAE@XZ PROC		; CMultiLanguageResourceSetter::~CMultiLanguageResourceSetter, COMDAT
; _this$ = ecx

; 1036 : 	{

  00000	55		 push	 ebp
  00001	8b ec		 mov	 ebp, esp
  00003	6a ff		 push	 -1
  00005	68 00 00 00 00	 push	 __ehhandler$??1CMultiLanguageResourceSetter@@QAE@XZ
  0000a	64 a1 00 00 00
	00		 mov	 eax, DWORD PTR fs:0
  00010	50		 push	 eax
  00011	56		 push	 esi
  00012	a1 00 00 00 00	 mov	 eax, DWORD PTR ___security_cookie
  00017	33 c5		 xor	 eax, ebp
  00019	50		 push	 eax
  0001a	8d 45 f4	 lea	 eax, DWORD PTR __$EHRec$[ebp]
  0001d	64 a3 00 00 00
	00		 mov	 DWORD PTR fs:0, eax

; 1037 : 		AfxSetResourceHandle( m_hInstance);

  00023	8b 31		 mov	 esi, DWORD PTR [ecx]
; File C:\Program Files (x86)\Microsoft Visual Studio\2019\Community\VC\Tools\MSVC\14.29.30133\atlmfc\include\afxwin1.inl

; 27   : 	{ ASSERT(hInstResource != NULL); afxCurrentResourceHandle = hInstResource; }

  00025	e8 00 00 00 00	 call	 ?AfxGetModuleState@@YGPAVAFX_MODULE_STATE@@XZ ; AfxGetModuleState
  0002a	89 70 0c	 mov	 DWORD PTR [eax+12], esi
; File D:\git\src\IBK\IBK_DRFN\ProjSrc\SrcChartEx\ChartOCX\Include_Chart\Dll_Load\IMetaTable.h

; 1038 : 	}

  0002d	8b 4d f4	 mov	 ecx, DWORD PTR __$EHRec$[ebp]
  00030	64 89 0d 00 00
	00 00		 mov	 DWORD PTR fs:0, ecx
  00037	59		 pop	 ecx
  00038	5e		 pop	 esi
  00039	8b e5		 mov	 esp, ebp
  0003b	5d		 pop	 ebp
  0003c	c3		 ret	 0
  0003d	cc		 int	 3
  0003e	cc		 int	 3
  0003f	cc		 int	 3
  00040	cc		 int	 3
  00041	cc		 int	 3
_TEXT	ENDS
;	COMDAT text$x
text$x	SEGMENT
__ehhandler$??1CMultiLanguageResourceSetter@@QAE@XZ:
  00000	90		 npad	 1
  00001	90		 npad	 1
  00002	8b 54 24 08	 mov	 edx, DWORD PTR [esp+8]
  00006	8d 42 0c	 lea	 eax, DWORD PTR [edx+12]
  00009	8b 4a f8	 mov	 ecx, DWORD PTR [edx-8]
  0000c	33 c8		 xor	 ecx, eax
  0000e	e8 00 00 00 00	 call	 @__security_check_cookie@4
  00013	b8 00 00 00 00	 mov	 eax, OFFSET __ehfuncinfo$??1CMultiLanguageResourceSetter@@QAE@XZ
  00018	e9 00 00 00 00	 jmp	 ___CxxFrameHandler3
text$x	ENDS
??1CMultiLanguageResourceSetter@@QAE@XZ ENDP		; CMultiLanguageResourceSetter::~CMultiLanguageResourceSetter
; Function compile flags: /Ogtp
; File D:\git\src\IBK\IBK_DRFN\ProjSrc\SrcChartEx\ChartOCX\Include_Chart\Dll_Load\IMetaTable.h
;	COMDAT ?LoadResourceDLL@IMetaTable@@QAEPAUHINSTANCE__@@PAUHWND__@@PAU2@@Z
_TEXT	SEGMENT
_p1$ = 8						; size = 4
_p2$ = 12						; size = 4
?LoadResourceDLL@IMetaTable@@QAEPAUHINSTANCE__@@PAUHWND__@@PAU2@@Z PROC ; IMetaTable::LoadResourceDLL, COMDAT
; _this$ = ecx

; 936  : 	DECLARE_FUNCTION2(	LoadResourceDLL,				HMODULE, AfxGetStaticModuleState()->m_hCurrentInstanceHandle, HWND, HMODULE);

  00000	55		 push	 ebp
  00001	8b ec		 mov	 ebp, esp
  00003	56		 push	 esi
  00004	8b f1		 mov	 esi, ecx
  00006	8b 46 04	 mov	 eax, DWORD PTR [esi+4]
  00009	85 c0		 test	 eax, eax
  0000b	74 4d		 je	 SHORT $LN4@LoadResour
  0000d	57		 push	 edi
  0000e	bf 80 0d 00 00	 mov	 edi, 3456		; 00000d80H
  00013	66 3b be 94 00
	00 00		 cmp	 di, WORD PTR [esi+148]
  0001a	74 23		 je	 SHORT $LN3@LoadResour
  0001c	68 00 00 00 00	 push	 OFFSET ??_C@_0BA@ENJOCHIO@LoadResourceDLL@
  00021	50		 push	 eax
  00022	c7 86 90 00 00
	00 00 00 00 00	 mov	 DWORD PTR [esi+144], 0
  0002c	ff 15 00 00 00
	00		 call	 DWORD PTR __imp__GetProcAddress@8
  00032	89 86 90 00 00
	00		 mov	 DWORD PTR [esi+144], eax
  00038	66 89 be 94 00
	00 00		 mov	 WORD PTR [esi+148], di
$LN3@LoadResour:
  0003f	8b 86 90 00 00
	00		 mov	 eax, DWORD PTR [esi+144]
  00045	5f		 pop	 edi
  00046	85 c0		 test	 eax, eax
  00048	74 10		 je	 SHORT $LN4@LoadResour
  0004a	ff 75 0c	 push	 DWORD PTR _p2$[ebp]
  0004d	ff 75 08	 push	 DWORD PTR _p1$[ebp]
  00050	ff d0		 call	 eax
  00052	83 c4 08	 add	 esp, 8
  00055	5e		 pop	 esi
  00056	5d		 pop	 ebp
  00057	c2 08 00	 ret	 8
$LN4@LoadResour:
  0005a	e8 00 00 00 00	 call	 ?AfxGetStaticModuleState@@YGPAVAFX_MODULE_STATE@@XZ ; AfxGetStaticModuleState
  0005f	5e		 pop	 esi
  00060	8b 40 08	 mov	 eax, DWORD PTR [eax+8]
  00063	5d		 pop	 ebp
  00064	c2 08 00	 ret	 8
?LoadResourceDLL@IMetaTable@@QAEPAUHINSTANCE__@@PAUHWND__@@PAU2@@Z ENDP ; IMetaTable::LoadResourceDLL
_TEXT	ENDS
; Function compile flags: /Ogtp
; File D:\git\src\IBK\IBK_DRFN\ProjSrc\SrcChartEx\ChartOCX\AddInManager\ChartCommonAddIn\GapRevisionAddInImp.cpp
; File C:\Program Files (x86)\Microsoft Visual Studio\2019\Community\VC\Tools\MSVC\14.29.30133\atlmfc\include\afxcoll.inl
; File D:\git\src\IBK\IBK_DRFN\ProjSrc\SrcChartEx\ChartOCX\AddInManager\ChartCommonAddIn\GapRevisionAddInImp.cpp
; File C:\Program Files (x86)\Microsoft Visual Studio\2019\Community\VC\Tools\MSVC\14.29.30133\atlmfc\include\afxcoll.inl
; File D:\git\src\IBK\IBK_DRFN\ProjSrc\SrcChartEx\ChartOCX\AddInManager\ChartCommonAddIn\GapRevisionAddInImp.cpp
; File C:\Program Files (x86)\Microsoft Visual Studio\2019\Community\VC\Tools\MSVC\14.29.30133\atlmfc\include\afxtempl.h
; File D:\git\src\IBK\IBK_DRFN\ProjSrc\SrcChartEx\ChartOCX\AddInManager\ChartCommonAddIn\GapRevisionAddInImp.cpp
; File C:\Program Files (x86)\Microsoft Visual Studio\2019\Community\VC\Tools\MSVC\14.29.30133\atlmfc\include\afxtempl.h
; File D:\git\src\IBK\IBK_DRFN\ProjSrc\SrcChartEx\ChartOCX\AddInManager\ChartCommonAddIn\GapRevisionAddInImp.cpp
; File C:\Program Files (x86)\Microsoft Visual Studio\2019\Community\VC\Tools\MSVC\14.29.30133\atlmfc\include\afxtempl.h
; File D:\git\src\IBK\IBK_DRFN\ProjSrc\SrcChartEx\ChartOCX\AddInManager\ChartCommonAddIn\GapRevisionAddInImp.cpp
; File C:\Program Files (x86)\Microsoft Visual Studio\2019\Community\VC\Tools\MSVC\14.29.30133\atlmfc\include\afxtempl.h
; File D:\git\src\IBK\IBK_DRFN\ProjSrc\SrcChartEx\ChartOCX\AddInManager\ChartCommonAddIn\GapRevisionAddInImp.cpp
; File C:\Program Files (x86)\Microsoft Visual Studio\2019\Community\VC\Tools\MSVC\14.29.30133\atlmfc\include\afx.inl
;	COMDAT ??_GCGapRevisionAddInImp@@UAEPAXI@Z
_TEXT	SEGMENT
_strRQ$2 = -24						; size = 4
_pos$3 = -20						; size = 4
_pSTGapInfo$4 = -16					; size = 4
__$EHRec$ = -12						; size = 12
___flags$ = 8						; size = 4
??_GCGapRevisionAddInImp@@UAEPAXI@Z PROC		; CGapRevisionAddInImp::`scalar deleting destructor', COMDAT
; _this$ = ecx
  00000	55		 push	 ebp
  00001	8b ec		 mov	 ebp, esp
  00003	6a ff		 push	 -1
  00005	68 00 00 00 00	 push	 __ehhandler$??_GCGapRevisionAddInImp@@UAEPAXI@Z
  0000a	64 a1 00 00 00
	00		 mov	 eax, DWORD PTR fs:0
  00010	50		 push	 eax
  00011	83 ec 0c	 sub	 esp, 12			; 0000000cH
  00014	53		 push	 ebx
  00015	56		 push	 esi
  00016	57		 push	 edi
  00017	a1 00 00 00 00	 mov	 eax, DWORD PTR ___security_cookie
  0001c	33 c5		 xor	 eax, ebp
  0001e	50		 push	 eax
  0001f	8d 45 f4	 lea	 eax, DWORD PTR __$EHRec$[ebp]
  00022	64 a3 00 00 00
	00		 mov	 DWORD PTR fs:0, eax
  00028	8b f9		 mov	 edi, ecx
; File D:\git\src\IBK\IBK_DRFN\ProjSrc\SrcChartEx\ChartOCX\AddInManager\ChartCommonAddIn\GapRevisionAddInImp.cpp

; 129  : 	CString strRQ;

  0002a	8d 4d e8	 lea	 ecx, DWORD PTR _strRQ$2[ebp]
  0002d	c7 45 fc 00 00
	00 00		 mov	 DWORD PTR __$EHRec$[ebp+8], 0
  00034	c7 07 00 00 00
	00		 mov	 DWORD PTR [edi], OFFSET ??_7CGapRevisionAddInImp@@6BCIWUnknown@@@
  0003a	c7 47 08 00 00
	00 00		 mov	 DWORD PTR [edi+8], OFFSET ??_7CGapRevisionAddInImp@@6BIChartAddIn000000@@@
  00041	ff 15 00 00 00
	00		 call	 DWORD PTR __imp_??0?$CStringT@DV?$StrTraitMFC_DLL@DV?$ChTraitsCRT@D@ATL@@@@@ATL@@QAE@XZ
; File C:\Program Files (x86)\Microsoft Visual Studio\2019\Community\VC\Tools\MSVC\14.29.30133\atlmfc\include\afxcoll.inl

; 630  : 	{ return (m_nCount == 0) ? NULL : BEFORE_START_POSITION; }

  00047	8b 57 4c	 mov	 edx, DWORD PTR [edi+76]
  0004a	8b c2		 mov	 eax, edx
  0004c	f7 d8		 neg	 eax
; File D:\git\src\IBK\IBK_DRFN\ProjSrc\SrcChartEx\ChartOCX\AddInManager\ChartCommonAddIn\GapRevisionAddInImp.cpp

; 130  : 	ST_GAP_INFO* pSTGapInfo = NULL;

  0004e	c7 45 f0 00 00
	00 00		 mov	 DWORD PTR _pSTGapInfo$4[ebp], 0
; File C:\Program Files (x86)\Microsoft Visual Studio\2019\Community\VC\Tools\MSVC\14.29.30133\atlmfc\include\afxcoll.inl

; 630  : 	{ return (m_nCount == 0) ? NULL : BEFORE_START_POSITION; }

  00055	1b c0		 sbb	 eax, eax
; File D:\git\src\IBK\IBK_DRFN\ProjSrc\SrcChartEx\ChartOCX\AddInManager\ChartCommonAddIn\GapRevisionAddInImp.cpp

; 131  : 	POSITION pos = m_mapRQGapInfo.GetStartPosition();

  00057	89 45 ec	 mov	 DWORD PTR _pos$3[ebp], eax
  0005a	85 d2		 test	 edx, edx

; 132  : 	while( pos)

  0005c	0f 84 b1 00 00
	00		 je	 $LN9@scalar
$LL8@scalar:
; File C:\Program Files (x86)\Microsoft Visual Studio\2019\Community\VC\Tools\MSVC\14.29.30133\atlmfc\include\afxtempl.h

; 2068 : 		{ BASE_CLASS::GetNextAssoc(rPosition, (typename BASE_CLASS::BASE_KEY&)rKey,

  00062	8d 45 f0	 lea	 eax, DWORD PTR _pSTGapInfo$4[ebp]
  00065	50		 push	 eax
  00066	8d 45 e8	 lea	 eax, DWORD PTR _strRQ$2[ebp]
  00069	50		 push	 eax
  0006a	8d 45 ec	 lea	 eax, DWORD PTR _pos$3[ebp]
  0006d	50		 push	 eax
  0006e	8d 4f 40	 lea	 ecx, DWORD PTR [edi+64]
  00071	e8 00 00 00 00	 call	 ?GetNextAssoc@CMapStringToPtr@@QBEXAAPAU__POSITION@@AAV?$CStringT@DV?$StrTraitMFC_DLL@DV?$ChTraitsCRT@D@ATL@@@@@ATL@@AAPAX@Z ; CMapStringToPtr::GetNextAssoc
; File D:\git\src\IBK\IBK_DRFN\ProjSrc\SrcChartEx\ChartOCX\AddInManager\ChartCommonAddIn\GapRevisionAddInImp.cpp

; 135  : 		delete pSTGapInfo;

  00076	8b 75 f0	 mov	 esi, DWORD PTR _pSTGapInfo$4[ebp]
  00079	85 f6		 test	 esi, esi
  0007b	0f 84 81 00 00
	00		 je	 $LN19@scalar
; File C:\Program Files (x86)\Microsoft Visual Studio\2019\Community\VC\Tools\MSVC\14.29.30133\atlmfc\include\afxtempl.h

; 872  : 	m_pBlocks->FreeDataChain();

  00081	8b 4e 14	 mov	 ecx, DWORD PTR [esi+20]
; File D:\git\src\IBK\IBK_DRFN\ProjSrc\SrcChartEx\ChartOCX\AddInManager\ChartCommonAddIn\GapRevisionAddInImp.cpp

; 41   : {

  00084	c6 45 fc 01	 mov	 BYTE PTR __$EHRec$[ebp+8], 1
; File C:\Program Files (x86)\Microsoft Visual Studio\2019\Community\VC\Tools\MSVC\14.29.30133\atlmfc\include\afxtempl.h

; 870  : 	m_nCount = 0;

  00088	c7 46 0c 00 00
	00 00		 mov	 DWORD PTR [esi+12], 0

; 871  : 	m_pNodeHead = m_pNodeTail = m_pNodeFree = NULL;

  0008f	c7 46 10 00 00
	00 00		 mov	 DWORD PTR [esi+16], 0
  00096	c7 46 08 00 00
	00 00		 mov	 DWORD PTR [esi+8], 0
  0009d	c7 46 04 00 00
	00 00		 mov	 DWORD PTR [esi+4], 0

; 872  : 	m_pBlocks->FreeDataChain();

  000a4	e8 00 00 00 00	 call	 ?FreeDataChain@CPlex@@QAEXXZ ; CPlex::FreeDataChain

; 873  : 	m_pBlocks = NULL;

  000a9	c7 46 14 00 00
	00 00		 mov	 DWORD PTR [esi+20], 0
; File D:\git\src\IBK\IBK_DRFN\ProjSrc\SrcChartEx\ChartOCX\AddInManager\ChartCommonAddIn\GapRevisionAddInImp.cpp

; 48   : 	m_nCurRealDate = 0;

  000b0	c7 46 1c 00 00
	00 00		 mov	 DWORD PTR [esi+28], 0

; 49   : 	m_nPacketCount = 0;

  000b7	c7 46 20 00 00
	00 00		 mov	 DWORD PTR [esi+32], 0
; File C:\Program Files (x86)\Microsoft Visual Studio\2019\Community\VC\Tools\MSVC\14.29.30133\atlmfc\include\afxtempl.h

; 872  : 	m_pBlocks->FreeDataChain();

  000be	8b 4e 14	 mov	 ecx, DWORD PTR [esi+20]

; 878  : {

  000c1	c6 45 fc 02	 mov	 BYTE PTR __$EHRec$[ebp+8], 2
  000c5	c7 06 00 00 00
	00		 mov	 DWORD PTR [esi], OFFSET ??_7?$CList@NN@@6B@

; 870  : 	m_nCount = 0;

  000cb	c7 46 0c 00 00
	00 00		 mov	 DWORD PTR [esi+12], 0

; 871  : 	m_pNodeHead = m_pNodeTail = m_pNodeFree = NULL;

  000d2	c7 46 10 00 00
	00 00		 mov	 DWORD PTR [esi+16], 0
  000d9	c7 46 08 00 00
	00 00		 mov	 DWORD PTR [esi+8], 0
  000e0	c7 46 04 00 00
	00 00		 mov	 DWORD PTR [esi+4], 0

; 872  : 	m_pBlocks->FreeDataChain();

  000e7	e8 00 00 00 00	 call	 ?FreeDataChain@CPlex@@QAEXXZ ; CPlex::FreeDataChain
  000ec	6a 24		 push	 36			; 00000024H
  000ee	56		 push	 esi

; 873  : 	m_pBlocks = NULL;

  000ef	c7 46 14 00 00
	00 00		 mov	 DWORD PTR [esi+20], 0
; File D:\git\src\IBK\IBK_DRFN\ProjSrc\SrcChartEx\ChartOCX\AddInManager\ChartCommonAddIn\GapRevisionAddInImp.cpp

; 43   : }

  000f6	c6 45 fc 00	 mov	 BYTE PTR __$EHRec$[ebp+8], 0
  000fa	e8 00 00 00 00	 call	 ??3@YAXPAXI@Z		; operator delete
  000ff	83 c4 08	 add	 esp, 8
$LN19@scalar:

; 132  : 	while( pos)

  00102	83 7d ec 00	 cmp	 DWORD PTR _pos$3[ebp], 0

; 136  : 		pSTGapInfo = NULL;

  00106	c7 45 f0 00 00
	00 00		 mov	 DWORD PTR _pSTGapInfo$4[ebp], 0
  0010d	0f 85 4f ff ff
	ff		 jne	 $LL8@scalar
$LN9@scalar:

; 137  : 	}
; 138  : 	m_mapRQGapInfo.RemoveAll();

  00113	8d 4f 40	 lea	 ecx, DWORD PTR [edi+64]
  00116	e8 00 00 00 00	 call	 ?RemoveAll@CMapStringToPtr@@QAEXXZ ; CMapStringToPtr::RemoveAll

; 139  : }

  0011b	8d 4d e8	 lea	 ecx, DWORD PTR _strRQ$2[ebp]
  0011e	ff 15 00 00 00
	00		 call	 DWORD PTR __imp_??1?$CStringT@DV?$StrTraitMFC_DLL@DV?$ChTraitsCRT@D@ATL@@@@@ATL@@QAE@XZ
  00124	8d 4f 40	 lea	 ecx, DWORD PTR [edi+64]
  00127	e8 00 00 00 00	 call	 ??1CMapStringToPtr@@UAE@XZ ; CMapStringToPtr::~CMapStringToPtr
  0012c	8b cf		 mov	 ecx, edi
  0012e	e8 00 00 00 00	 call	 ??1CChartAddInBase000000@@MAE@XZ ; CChartAddInBase000000::~CChartAddInBase000000
  00133	8b 45 08	 mov	 eax, DWORD PTR ___flags$[ebp]
  00136	a8 01		 test	 al, 1
  00138	74 1a		 je	 SHORT $LN58@scalar
  0013a	a8 04		 test	 al, 4
  0013c	75 0b		 jne	 SHORT $LN3@scalar
; File C:\Program Files (x86)\Microsoft Visual Studio\2019\Community\VC\Tools\MSVC\14.29.30133\atlmfc\include\afx.inl

; 112  : 	{ ::operator delete(p); }

  0013e	57		 push	 edi
  0013f	e8 00 00 00 00	 call	 ??3@YAXPAX@Z		; operator delete
  00144	83 c4 04	 add	 esp, 4
  00147	eb 0b		 jmp	 SHORT $LN58@scalar
$LN3@scalar:
  00149	6a 6c		 push	 108			; 0000006cH
  0014b	57		 push	 edi
  0014c	e8 00 00 00 00	 call	 ?__global_delete@@YAXPAXI@Z ; __global_delete
  00151	83 c4 08	 add	 esp, 8
$LN58@scalar:
  00154	8b c7		 mov	 eax, edi
  00156	8b 4d f4	 mov	 ecx, DWORD PTR __$EHRec$[ebp]
  00159	64 89 0d 00 00
	00 00		 mov	 DWORD PTR fs:0, ecx
  00160	59		 pop	 ecx
  00161	5f		 pop	 edi
  00162	5e		 pop	 esi
  00163	5b		 pop	 ebx
  00164	8b e5		 mov	 esp, ebp
  00166	5d		 pop	 ebp
  00167	c2 04 00	 ret	 4
  0016a	cc		 int	 3
  0016b	cc		 int	 3
  0016c	cc		 int	 3
  0016d	cc		 int	 3
  0016e	cc		 int	 3
_TEXT	ENDS
;	COMDAT text$x
text$x	SEGMENT
__ehhandler$??_GCGapRevisionAddInImp@@UAEPAXI@Z:
  00000	90		 npad	 1
  00001	90		 npad	 1
  00002	8b 54 24 08	 mov	 edx, DWORD PTR [esp+8]
  00006	8d 42 0c	 lea	 eax, DWORD PTR [edx+12]
  00009	8b 4a e4	 mov	 ecx, DWORD PTR [edx-28]
  0000c	33 c8		 xor	 ecx, eax
  0000e	e8 00 00 00 00	 call	 @__security_check_cookie@4
  00013	b8 00 00 00 00	 mov	 eax, OFFSET __ehfuncinfo$??_GCGapRevisionAddInImp@@UAEPAXI@Z
  00018	e9 00 00 00 00	 jmp	 ___CxxFrameHandler3
text$x	ENDS
??_GCGapRevisionAddInImp@@UAEPAXI@Z ENDP		; CGapRevisionAddInImp::`scalar deleting destructor'
; Function compile flags: /Ogtp
; File D:\git\src\IBK\IBK_DRFN\ProjSrc\SrcChartEx\ChartOCX\AddInManager\ChartCommonAddIn\GapRevisionAddInImp.cpp
;	COMDAT ?OnRealPacketEnd@CGapRevisionAddInImp@@MAEXPBD@Z
_TEXT	SEGMENT
_p_szRQ$ = 8						; size = 4
?OnRealPacketEnd@CGapRevisionAddInImp@@MAEXPBD@Z PROC	; CGapRevisionAddInImp::OnRealPacketEnd, COMDAT
; _this$ = ecx

; 825  : {

  00000	55		 push	 ebp
  00001	8b ec		 mov	 ebp, esp

; 826  : 	CalcGapRevisionReal( p_szRQ);

  00003	8b 41 f8	 mov	 eax, DWORD PTR [ecx-8]
  00006	83 c1 f8	 add	 ecx, -8			; fffffff8H

; 827  : }

  00009	5d		 pop	 ebp

; 826  : 	CalcGapRevisionReal( p_szRQ);

  0000a	ff 60 3c	 jmp	 DWORD PTR [eax+60]
?OnRealPacketEnd@CGapRevisionAddInImp@@MAEXPBD@Z ENDP	; CGapRevisionAddInImp::OnRealPacketEnd
_TEXT	ENDS
; Function compile flags: /Ogtp
; File D:\git\src\IBK\IBK_DRFN\ProjSrc\SrcChartEx\ChartOCX\AddInManager\ChartCommonAddIn\GapRevisionAddInImp.cpp
;	COMDAT ?OnPacketDataMultiItem@CGapRevisionAddInImp@@MAEXPBD0H@Z
_TEXT	SEGMENT
_lpszRQ$ = 8						; size = 4
_p_szPacketNames$ = 12					; size = 4
_p_bWithReset$ = 16					; size = 4
?OnPacketDataMultiItem@CGapRevisionAddInImp@@MAEXPBD0H@Z PROC ; CGapRevisionAddInImp::OnPacketDataMultiItem, COMDAT
; _this$ = ecx

; 818  : {

  00000	55		 push	 ebp
  00001	8b ec		 mov	 ebp, esp

; 819  : 	// (2009/9/19 - Seung-Won, Bae) Manage OnPacketDataMultiItem Flag of On-GapRevision.
; 820  : 	if( !m_bOnPacketDataMultiItem) CalcGapRevision( lpszRQ, p_bWithReset);

  00003	83 79 60 00	 cmp	 DWORD PTR [ecx+96], 0
  00007	75 0f		 jne	 SHORT $LN2@OnPacketDa
  00009	ff 75 10	 push	 DWORD PTR _p_bWithReset$[ebp]
  0000c	8b 41 f8	 mov	 eax, DWORD PTR [ecx-8]
  0000f	83 c1 f8	 add	 ecx, -8			; fffffff8H
  00012	ff 75 08	 push	 DWORD PTR _lpszRQ$[ebp]
  00015	ff 50 38	 call	 DWORD PTR [eax+56]
$LN2@OnPacketDa:

; 821  : }

  00018	5d		 pop	 ebp
  00019	c2 0c 00	 ret	 12			; 0000000cH
?OnPacketDataMultiItem@CGapRevisionAddInImp@@MAEXPBD0H@Z ENDP ; CGapRevisionAddInImp::OnPacketDataMultiItem
_TEXT	ENDS
; Function compile flags: /Ogtp
; File D:\git\src\IBK\IBK_DRFN\ProjSrc\SrcChartEx\ChartOCX\AddInManager\ChartCommonAddIn\GapRevisionAddInImp.cpp
;	COMDAT ?OnSaveEnvironment@CGapRevisionAddInImp@@MAEXPAUIPropertyMap@@@Z
_TEXT	SEGMENT
_strEnvValue$ = -16					; size = 4
__$EHRec$ = -12						; size = 12
_p_pIAddInEnvMap$ = 8					; size = 4
?OnSaveEnvironment@CGapRevisionAddInImp@@MAEXPAUIPropertyMap@@@Z PROC ; CGapRevisionAddInImp::OnSaveEnvironment, COMDAT
; _this$ = ecx

; 242  : {

  00000	55		 push	 ebp
  00001	8b ec		 mov	 ebp, esp
  00003	6a ff		 push	 -1
  00005	68 00 00 00 00	 push	 __ehhandler$?OnSaveEnvironment@CGapRevisionAddInImp@@MAEXPAUIPropertyMap@@@Z
  0000a	64 a1 00 00 00
	00		 mov	 eax, DWORD PTR fs:0
  00010	50		 push	 eax
  00011	51		 push	 ecx
  00012	56		 push	 esi
  00013	a1 00 00 00 00	 mov	 eax, DWORD PTR ___security_cookie
  00018	33 c5		 xor	 eax, ebp
  0001a	50		 push	 eax
  0001b	8d 45 f4	 lea	 eax, DWORD PTR __$EHRec$[ebp]
  0001e	64 a3 00 00 00
	00		 mov	 DWORD PTR fs:0, eax
  00024	8b f1		 mov	 esi, ecx

; 243  : 	CString strEnvValue;

  00026	8d 4d f0	 lea	 ecx, DWORD PTR _strEnvValue$[ebp]
  00029	ff 15 00 00 00
	00		 call	 DWORD PTR __imp_??0?$CStringT@DV?$StrTraitMFC_DLL@DV?$ChTraitsCRT@D@ATL@@@@@ATL@@QAE@XZ

; 244  : 	// 20130530  :   (IBK) (Issue No : 0006572)
; 245  : 	strEnvValue.Format( "%d:%d", m_bUseGapRevision ? 1 : 0, m_bUseMonthGapRevision ? 1 : 0);

  0002f	33 c0		 xor	 eax, eax
  00031	c7 45 fc 00 00
	00 00		 mov	 DWORD PTR __$EHRec$[ebp+8], 0
  00038	39 46 58	 cmp	 DWORD PTR [esi+88], eax
  0003b	0f 95 c0	 setne	 al
  0003e	50		 push	 eax
  0003f	33 c0		 xor	 eax, eax
  00041	39 46 54	 cmp	 DWORD PTR [esi+84], eax
  00044	0f 95 c0	 setne	 al
  00047	50		 push	 eax
  00048	8d 45 f0	 lea	 eax, DWORD PTR _strEnvValue$[ebp]
  0004b	68 00 00 00 00	 push	 OFFSET ??_C@_05NFGPCJDJ@?$CFd?3?$CFd@
  00050	50		 push	 eax
  00051	ff 15 00 00 00
	00		 call	 DWORD PTR __imp_?Format@?$CStringT@DV?$StrTraitMFC_DLL@DV?$ChTraitsCRT@D@ATL@@@@@ATL@@QAAXPBDZZ

; 246  : 	p_pIAddInEnvMap->SetAt( m_strAddInItemName, strEnvValue);

  00057	8b 4d 08	 mov	 ecx, DWORD PTR _p_pIAddInEnvMap$[ebp]
  0005a	83 c4 10	 add	 esp, 16			; 00000010H
  0005d	ff 75 f0	 push	 DWORD PTR _strEnvValue$[ebp]
  00060	8b 01		 mov	 eax, DWORD PTR [ecx]
  00062	ff 35 00 00 00
	00		 push	 DWORD PTR ?m_strAddInItemName@CGapRevisionAddInImp@@2V?$CStringT@DV?$StrTraitMFC_DLL@DV?$ChTraitsCRT@D@ATL@@@@@ATL@@A ; CGapRevisionAddInImp::m_strAddInItemName
  00068	ff 50 14	 call	 DWORD PTR [eax+20]

; 247  : }

  0006b	8d 4d f0	 lea	 ecx, DWORD PTR _strEnvValue$[ebp]
  0006e	ff 15 00 00 00
	00		 call	 DWORD PTR __imp_??1?$CStringT@DV?$StrTraitMFC_DLL@DV?$ChTraitsCRT@D@ATL@@@@@ATL@@QAE@XZ
  00074	8b 4d f4	 mov	 ecx, DWORD PTR __$EHRec$[ebp]
  00077	64 89 0d 00 00
	00 00		 mov	 DWORD PTR fs:0, ecx
  0007e	59		 pop	 ecx
  0007f	5e		 pop	 esi
  00080	8b e5		 mov	 esp, ebp
  00082	5d		 pop	 ebp
  00083	c2 04 00	 ret	 4
_TEXT	ENDS
;	COMDAT text$x
text$x	SEGMENT
__unwindfunclet$?OnSaveEnvironment@CGapRevisionAddInImp@@MAEXPAUIPropertyMap@@@Z$0:
  00000	8d 4d f0	 lea	 ecx, DWORD PTR _strEnvValue$[ebp]
  00003	ff 25 00 00 00
	00		 jmp	 DWORD PTR __imp_??1?$CStringT@DV?$StrTraitMFC_DLL@DV?$ChTraitsCRT@D@ATL@@@@@ATL@@QAE@XZ
  00009	cc		 int	 3
  0000a	cc		 int	 3
  0000b	cc		 int	 3
  0000c	cc		 int	 3
  0000d	cc		 int	 3
__ehhandler$?OnSaveEnvironment@CGapRevisionAddInImp@@MAEXPAUIPropertyMap@@@Z:
  0000e	90		 npad	 1
  0000f	90		 npad	 1
  00010	8b 54 24 08	 mov	 edx, DWORD PTR [esp+8]
  00014	8d 42 0c	 lea	 eax, DWORD PTR [edx+12]
  00017	8b 4a f4	 mov	 ecx, DWORD PTR [edx-12]
  0001a	33 c8		 xor	 ecx, eax
  0001c	e8 00 00 00 00	 call	 @__security_check_cookie@4
  00021	b8 00 00 00 00	 mov	 eax, OFFSET __ehfuncinfo$?OnSaveEnvironment@CGapRevisionAddInImp@@MAEXPAUIPropertyMap@@@Z
  00026	e9 00 00 00 00	 jmp	 ___CxxFrameHandler3
text$x	ENDS
?OnSaveEnvironment@CGapRevisionAddInImp@@MAEXPAUIPropertyMap@@@Z ENDP ; CGapRevisionAddInImp::OnSaveEnvironment
; Function compile flags: /Ogtp
; File D:\git\src\IBK\IBK_DRFN\ProjSrc\SrcChartEx\ChartOCX\AddInManager\ChartCommonAddIn\GapRevisionAddInImp.cpp
; File C:\Program Files (x86)\Microsoft Visual Studio\2019\Community\VC\Tools\MSVC\14.29.30133\atlmfc\include\atlsimpstr.h
; File D:\git\src\IBK\IBK_DRFN\ProjSrc\SrcChartEx\ChartOCX\AddInManager\ChartCommonAddIn\GapRevisionAddInImp.cpp
;	COMDAT ?OnLoadEnvironment@CGapRevisionAddInImp@@MAEXPAUIPropertyMap@@@Z
_TEXT	SEGMENT
$T2 = -24						; size = 4
_strUseGapRevision$ = -20				; size = 4
_szEnvValue$ = -16					; size = 4
__$EHRec$ = -12						; size = 12
_strEnvValue$ = 8					; size = 4
_p_pIAddInEnvMap$ = 8					; size = 4
?OnLoadEnvironment@CGapRevisionAddInImp@@MAEXPAUIPropertyMap@@@Z PROC ; CGapRevisionAddInImp::OnLoadEnvironment, COMDAT
; _this$ = ecx

; 221  : {

  00000	55		 push	 ebp
  00001	8b ec		 mov	 ebp, esp
  00003	6a ff		 push	 -1
  00005	68 00 00 00 00	 push	 __ehhandler$?OnLoadEnvironment@CGapRevisionAddInImp@@MAEXPAUIPropertyMap@@@Z
  0000a	64 a1 00 00 00
	00		 mov	 eax, DWORD PTR fs:0
  00010	50		 push	 eax
  00011	83 ec 0c	 sub	 esp, 12			; 0000000cH
  00014	53		 push	 ebx
  00015	56		 push	 esi
  00016	57		 push	 edi
  00017	a1 00 00 00 00	 mov	 eax, DWORD PTR ___security_cookie
  0001c	33 c5		 xor	 eax, ebp
  0001e	50		 push	 eax
  0001f	8d 45 f4	 lea	 eax, DWORD PTR __$EHRec$[ebp]
  00022	64 a3 00 00 00
	00		 mov	 DWORD PTR fs:0, eax
  00028	8b d9		 mov	 ebx, ecx

; 222  : 	const char *szEnvValue = NULL;
; 223  : 	if( !p_pIAddInEnvMap->Lookup( m_strAddInItemName, szEnvValue)) return;

  0002a	8b 4d 08	 mov	 ecx, DWORD PTR _p_pIAddInEnvMap$[ebp]
  0002d	8d 55 f0	 lea	 edx, DWORD PTR _szEnvValue$[ebp]
  00030	52		 push	 edx
  00031	ff 35 00 00 00
	00		 push	 DWORD PTR ?m_strAddInItemName@CGapRevisionAddInImp@@2V?$CStringT@DV?$StrTraitMFC_DLL@DV?$ChTraitsCRT@D@ATL@@@@@ATL@@A ; CGapRevisionAddInImp::m_strAddInItemName
  00037	c7 45 f0 00 00
	00 00		 mov	 DWORD PTR _szEnvValue$[ebp], 0
  0003e	8b 01		 mov	 eax, DWORD PTR [ecx]
  00040	ff 50 0c	 call	 DWORD PTR [eax+12]
  00043	85 c0		 test	 eax, eax
  00045	0f 84 ae 00 00
	00		 je	 $LN1@OnLoadEnvi

; 225  : 	CString strEnvValue = szEnvValue;

  0004b	ff 75 f0	 push	 DWORD PTR _szEnvValue$[ebp]
  0004e	8d 4d 08	 lea	 ecx, DWORD PTR _strEnvValue$[ebp]
  00051	ff 15 00 00 00
	00		 call	 DWORD PTR __imp_??0?$CStringT@DV?$StrTraitMFC_DLL@DV?$ChTraitsCRT@D@ATL@@@@@ATL@@QAE@PBD@Z
; File C:\Program Files (x86)\Microsoft Visual Studio\2019\Community\VC\Tools\MSVC\14.29.30133\atlmfc\include\atlsimpstr.h

; 519  : 		return( GetData()->nDataLength );

  00057	8b 45 08	 mov	 eax, DWORD PTR _strEnvValue$[ebp]
; File D:\git\src\IBK\IBK_DRFN\ProjSrc\SrcChartEx\ChartOCX\AddInManager\ChartCommonAddIn\GapRevisionAddInImp.cpp

; 225  : 	CString strEnvValue = szEnvValue;

  0005a	c7 45 fc 00 00
	00 00		 mov	 DWORD PTR __$EHRec$[ebp+8], 0

; 226  : 
; 227  : 	if( strEnvValue.GetLength() <= 0 )

  00061	83 78 f4 00	 cmp	 DWORD PTR [eax-12], 0
  00065	0f 8e 85 00 00
	00		 jle	 $LN9@OnLoadEnvi

; 228  : 		return;
; 229  : 
; 230  : 	CString strUseGapRevision = strEnvValue.Mid( 0, 1 );

  0006b	6a 01		 push	 1
  0006d	6a 00		 push	 0
  0006f	8d 45 ec	 lea	 eax, DWORD PTR _strUseGapRevision$[ebp]
  00072	50		 push	 eax
  00073	8d 4d 08	 lea	 ecx, DWORD PTR _strEnvValue$[ebp]
  00076	ff 15 00 00 00
	00		 call	 DWORD PTR __imp_?Mid@?$CStringT@DV?$StrTraitMFC_DLL@DV?$ChTraitsCRT@D@ATL@@@@@ATL@@QBE?AV12@HH@Z

; 231  : 	SetUseGapRevision( ( atoi( strUseGapRevision) == 1), FALSE);

  0007c	8b 7b f8	 mov	 edi, DWORD PTR [ebx-8]
  0007f	6a 00		 push	 0
  00081	ff 75 ec	 push	 DWORD PTR _strUseGapRevision$[ebp]
  00084	c6 45 fc 01	 mov	 BYTE PTR __$EHRec$[ebp+8], 1
  00088	ff 15 00 00 00
	00		 call	 DWORD PTR __imp__atoi
  0008e	48		 dec	 eax
  0008f	8d 4b f8	 lea	 ecx, DWORD PTR [ebx-8]
  00092	83 c4 04	 add	 esp, 4
  00095	f7 d8		 neg	 eax
  00097	1b c0		 sbb	 eax, eax
  00099	40		 inc	 eax
  0009a	50		 push	 eax
  0009b	ff 57 34	 call	 DWORD PTR [edi+52]

; 232  : 
; 233  : //<< 20130530  :   (IBK) (Issue No : 0006572)
; 234  : 	int nIdx = strEnvValue.Find(":");

  0009e	6a 00		 push	 0
  000a0	68 00 00 00 00	 push	 OFFSET ??_C@_01JLIPDDHJ@?3@
  000a5	8d 4d 08	 lea	 ecx, DWORD PTR _strEnvValue$[ebp]
  000a8	ff 15 00 00 00
	00		 call	 DWORD PTR __imp_?Find@?$CStringT@DV?$StrTraitMFC_DLL@DV?$ChTraitsCRT@D@ATL@@@@@ATL@@QBEHPBDH@Z

; 235  : 	if( nIdx < 0 )	return;

  000ae	85 c0		 test	 eax, eax
  000b0	78 35		 js	 SHORT $LN10@OnLoadEnvi

; 236  : 	strEnvValue = strEnvValue.Mid(nIdx+1);

  000b2	40		 inc	 eax
  000b3	8d 4d 08	 lea	 ecx, DWORD PTR _strEnvValue$[ebp]
  000b6	50		 push	 eax
  000b7	8d 45 e8	 lea	 eax, DWORD PTR $T2[ebp]
  000ba	50		 push	 eax
  000bb	ff 15 00 00 00
	00		 call	 DWORD PTR __imp_?Mid@?$CStringT@DV?$StrTraitMFC_DLL@DV?$ChTraitsCRT@D@ATL@@@@@ATL@@QBE?AV12@H@Z
  000c1	50		 push	 eax
  000c2	8d 4d 08	 lea	 ecx, DWORD PTR _strEnvValue$[ebp]
  000c5	c6 45 fc 02	 mov	 BYTE PTR __$EHRec$[ebp+8], 2
  000c9	ff 15 00 00 00
	00		 call	 DWORD PTR __imp_??4?$CStringT@DV?$StrTraitMFC_DLL@DV?$ChTraitsCRT@D@ATL@@@@@ATL@@QAEAAV01@ABV01@@Z
  000cf	8d 4d e8	 lea	 ecx, DWORD PTR $T2[ebp]
  000d2	ff 15 00 00 00
	00		 call	 DWORD PTR __imp_??1?$CStringT@DV?$StrTraitMFC_DLL@DV?$ChTraitsCRT@D@ATL@@@@@ATL@@QAE@XZ

; 237  : 	m_bUseMonthGapRevision = atoi(strEnvValue);

  000d8	ff 75 08	 push	 DWORD PTR _strEnvValue$[ebp]
  000db	ff 15 00 00 00
	00		 call	 DWORD PTR __imp__atoi
  000e1	83 c4 04	 add	 esp, 4
  000e4	89 43 58	 mov	 DWORD PTR [ebx+88], eax
$LN10@OnLoadEnvi:

; 238  : //>> (Issue No : 0006572)
; 239  : }

  000e7	8d 4d ec	 lea	 ecx, DWORD PTR _strUseGapRevision$[ebp]
  000ea	ff 15 00 00 00
	00		 call	 DWORD PTR __imp_??1?$CStringT@DV?$StrTraitMFC_DLL@DV?$ChTraitsCRT@D@ATL@@@@@ATL@@QAE@XZ
$LN9@OnLoadEnvi:
  000f0	8d 4d 08	 lea	 ecx, DWORD PTR _strEnvValue$[ebp]
  000f3	ff 15 00 00 00
	00		 call	 DWORD PTR __imp_??1?$CStringT@DV?$StrTraitMFC_DLL@DV?$ChTraitsCRT@D@ATL@@@@@ATL@@QAE@XZ
$LN1@OnLoadEnvi:
  000f9	8b 4d f4	 mov	 ecx, DWORD PTR __$EHRec$[ebp]
  000fc	64 89 0d 00 00
	00 00		 mov	 DWORD PTR fs:0, ecx
  00103	59		 pop	 ecx
  00104	5f		 pop	 edi
  00105	5e		 pop	 esi
  00106	5b		 pop	 ebx
  00107	8b e5		 mov	 esp, ebp
  00109	5d		 pop	 ebp
  0010a	c2 04 00	 ret	 4
_TEXT	ENDS
;	COMDAT text$x
text$x	SEGMENT
__unwindfunclet$?OnLoadEnvironment@CGapRevisionAddInImp@@MAEXPAUIPropertyMap@@@Z$0:
  00000	8d 4d 08	 lea	 ecx, DWORD PTR _strEnvValue$[ebp]
  00003	ff 25 00 00 00
	00		 jmp	 DWORD PTR __imp_??1?$CStringT@DV?$StrTraitMFC_DLL@DV?$ChTraitsCRT@D@ATL@@@@@ATL@@QAE@XZ
__unwindfunclet$?OnLoadEnvironment@CGapRevisionAddInImp@@MAEXPAUIPropertyMap@@@Z$1:
  00009	8d 4d ec	 lea	 ecx, DWORD PTR _strUseGapRevision$[ebp]
  0000c	ff 25 00 00 00
	00		 jmp	 DWORD PTR __imp_??1?$CStringT@DV?$StrTraitMFC_DLL@DV?$ChTraitsCRT@D@ATL@@@@@ATL@@QAE@XZ
__unwindfunclet$?OnLoadEnvironment@CGapRevisionAddInImp@@MAEXPAUIPropertyMap@@@Z$2:
  00012	8d 4d e8	 lea	 ecx, DWORD PTR $T2[ebp]
  00015	ff 25 00 00 00
	00		 jmp	 DWORD PTR __imp_??1?$CStringT@DV?$StrTraitMFC_DLL@DV?$ChTraitsCRT@D@ATL@@@@@ATL@@QAE@XZ
  0001b	cc		 int	 3
  0001c	cc		 int	 3
  0001d	cc		 int	 3
  0001e	cc		 int	 3
  0001f	cc		 int	 3
__ehhandler$?OnLoadEnvironment@CGapRevisionAddInImp@@MAEXPAUIPropertyMap@@@Z:
  00020	90		 npad	 1
  00021	90		 npad	 1
  00022	8b 54 24 08	 mov	 edx, DWORD PTR [esp+8]
  00026	8d 42 0c	 lea	 eax, DWORD PTR [edx+12]
  00029	8b 4a e4	 mov	 ecx, DWORD PTR [edx-28]
  0002c	33 c8		 xor	 ecx, eax
  0002e	e8 00 00 00 00	 call	 @__security_check_cookie@4
  00033	b8 00 00 00 00	 mov	 eax, OFFSET __ehfuncinfo$?OnLoadEnvironment@CGapRevisionAddInImp@@MAEXPAUIPropertyMap@@@Z
  00038	e9 00 00 00 00	 jmp	 ___CxxFrameHandler3
text$x	ENDS
?OnLoadEnvironment@CGapRevisionAddInImp@@MAEXPAUIPropertyMap@@@Z ENDP ; CGapRevisionAddInImp::OnLoadEnvironment
; Function compile flags: /Ogtp
; File D:\git\src\IBK\IBK_DRFN\ProjSrc\SrcChartEx\ChartOCX\AddInManager\ChartCommonAddIn\GapRevisionAddInImp.cpp
; File C:\Program Files (x86)\Microsoft Visual Studio\2019\Community\VC\Tools\MSVC\14.29.30133\atlmfc\include\afxwin1.inl
; File D:\git\src\IBK\IBK_DRFN\ProjSrc\SrcChartEx\ChartOCX\Include_Chart\Dll_Load\IMetaTable.h
; File C:\Program Files (x86)\Microsoft Visual Studio\2019\Community\VC\Tools\MSVC\14.29.30133\atlmfc\include\afxwin1.inl
; File D:\git\src\IBK\IBK_DRFN\ProjSrc\SrcChartEx\ChartOCX\AddInManager\ChartCommonAddIn\GapRevisionAddInImp.cpp
; File D:\git\src\IBK\IBK_DRFN\ProjSrc\SrcChartEx\ChartOCX\Include_Chart\Dll_Load\IMetaTable.h
; File C:\Program Files (x86)\Microsoft Visual Studio\2019\Community\VC\Tools\MSVC\14.29.30133\atlmfc\include\afxwin1.inl
; File D:\git\src\IBK\IBK_DRFN\ProjSrc\SrcChartEx\ChartOCX\AddInManager\ChartCommonAddIn\GapRevisionAddInImp.cpp
;	COMDAT ?OnAddInToolCommand@CGapRevisionAddInImp@@MAEHAAJW4EAICommandType@@@Z
_TEXT	SEGMENT
_this$1$ = -16						; size = 4
__$EHRec$ = -12						; size = 12
_p_lResult$ = 8						; size = 4
_p_eCommandID$ = 12					; size = 4
?OnAddInToolCommand@CGapRevisionAddInImp@@MAEHAAJW4EAICommandType@@@Z PROC ; CGapRevisionAddInImp::OnAddInToolCommand, COMDAT
; _this$ = ecx

; 199  : {

  00000	55		 push	 ebp
  00001	8b ec		 mov	 ebp, esp
  00003	6a ff		 push	 -1
  00005	68 00 00 00 00	 push	 __ehhandler$?OnAddInToolCommand@CGapRevisionAddInImp@@MAEHAAJW4EAICommandType@@@Z
  0000a	64 a1 00 00 00
	00		 mov	 eax, DWORD PTR fs:0
  00010	50		 push	 eax
  00011	51		 push	 ecx
  00012	53		 push	 ebx
  00013	56		 push	 esi
  00014	57		 push	 edi
  00015	a1 00 00 00 00	 mov	 eax, DWORD PTR ___security_cookie
  0001a	33 c5		 xor	 eax, ebp
  0001c	50		 push	 eax
  0001d	8d 45 f4	 lea	 eax, DWORD PTR __$EHRec$[ebp]
  00020	64 a3 00 00 00
	00		 mov	 DWORD PTR fs:0, eax
  00026	8b f1		 mov	 esi, ecx
  00028	89 75 f0	 mov	 DWORD PTR _this$1$[ebp], esi

; 200  : 	if( EAI_CUSTOM_GET_GAPREVISION != p_eCommandID &&
; 201  : 		EAI_CUSTOM_GET_MONTHGAPREVISION != p_eCommandID &&

  0002b	8b 5d 0c	 mov	 ebx, DWORD PTR _p_eCommandID$[ebp]
  0002e	83 fb 41	 cmp	 ebx, 65			; 00000041H
  00031	74 20		 je	 SHORT $LN2@OnAddInToo
  00033	83 fb 44	 cmp	 ebx, 68			; 00000044H
  00036	74 1b		 je	 SHORT $LN2@OnAddInToo
  00038	83 fb 43	 cmp	 ebx, 67			; 00000043H
  0003b	74 16		 je	 SHORT $LN2@OnAddInToo

; 202  : 		EAI_ENVSETUP_SHOWMONTHGAPREVISION_CHANGED != p_eCommandID)
; 203  : 		return FALSE;

  0003d	33 c0		 xor	 eax, eax

; 217  : 
; 218  : }

  0003f	8b 4d f4	 mov	 ecx, DWORD PTR __$EHRec$[ebp]
  00042	64 89 0d 00 00
	00 00		 mov	 DWORD PTR fs:0, ecx
  00049	59		 pop	 ecx
  0004a	5f		 pop	 edi
  0004b	5e		 pop	 esi
  0004c	5b		 pop	 ebx
  0004d	8b e5		 mov	 esp, ebp
  0004f	5d		 pop	 ebp
  00050	c2 08 00	 ret	 8
$LN2@OnAddInToo:

; 204  : 
; 205  : 	ML_SET_LANGUAGE_RES();

  00053	e8 00 00 00 00	 call	 ?AfxGetStaticModuleState@@YGPAVAFX_MODULE_STATE@@XZ ; AfxGetStaticModuleState
  00058	b9 00 00 00 00	 mov	 ecx, OFFSET ?g_iMetaTable@@3VIMetaTable@@A ; g_iMetaTable
  0005d	8b 40 08	 mov	 eax, DWORD PTR [eax+8]
  00060	50		 push	 eax
  00061	ff 76 0c	 push	 DWORD PTR [esi+12]
  00064	e8 00 00 00 00	 call	 ?LoadResourceDLL@IMetaTable@@QAEPAUHINSTANCE__@@PAUHWND__@@PAU2@@Z ; IMetaTable::LoadResourceDLL
  00069	8b f8		 mov	 edi, eax
; File C:\Program Files (x86)\Microsoft Visual Studio\2019\Community\VC\Tools\MSVC\14.29.30133\atlmfc\include\afxwin1.inl

; 25   : 		return afxCurrentResourceHandle; }

  0006b	e8 00 00 00 00	 call	 ?AfxGetModuleState@@YGPAVAFX_MODULE_STATE@@XZ ; AfxGetModuleState
; File D:\git\src\IBK\IBK_DRFN\ProjSrc\SrcChartEx\ChartOCX\Include_Chart\Dll_Load\IMetaTable.h

; 1032 : 		m_hInstance = AfxGetResourceHandle();

  00070	8b 70 0c	 mov	 esi, DWORD PTR [eax+12]
; File C:\Program Files (x86)\Microsoft Visual Studio\2019\Community\VC\Tools\MSVC\14.29.30133\atlmfc\include\afxwin1.inl

; 27   : 	{ ASSERT(hInstResource != NULL); afxCurrentResourceHandle = hInstResource; }

  00073	e8 00 00 00 00	 call	 ?AfxGetModuleState@@YGPAVAFX_MODULE_STATE@@XZ ; AfxGetModuleState
  00078	89 78 0c	 mov	 DWORD PTR [eax+12], edi
; File D:\git\src\IBK\IBK_DRFN\ProjSrc\SrcChartEx\ChartOCX\AddInManager\ChartCommonAddIn\GapRevisionAddInImp.cpp

; 207  : 	if (EAI_CUSTOM_GET_GAPREVISION == p_eCommandID)

  0007b	83 fb 41	 cmp	 ebx, 65			; 00000041H
  0007e	75 08		 jne	 SHORT $LN3@OnAddInToo

; 208  : 		p_lResult = m_bUseGapRevision;

  00080	8b 4d f0	 mov	 ecx, DWORD PTR _this$1$[ebp]
  00083	8b 49 54	 mov	 ecx, DWORD PTR [ecx+84]
  00086	eb 18		 jmp	 SHORT $LN22@OnAddInToo
$LN3@OnAddInToo:

; 209  : //<< 20130530  :   (IBK) (Issue No : 0006572)
; 210  : 	else if (EAI_CUSTOM_GET_MONTHGAPREVISION == p_eCommandID)

  00088	83 fb 44	 cmp	 ebx, 68			; 00000044H
  0008b	75 08		 jne	 SHORT $LN5@OnAddInToo

; 211  : 		p_lResult = m_bUseMonthGapRevision;

  0008d	8b 4d f0	 mov	 ecx, DWORD PTR _this$1$[ebp]
  00090	8b 49 58	 mov	 ecx, DWORD PTR [ecx+88]
  00093	eb 0b		 jmp	 SHORT $LN22@OnAddInToo
$LN5@OnAddInToo:

; 212  : 	else if (EAI_ENVSETUP_SHOWMONTHGAPREVISION_CHANGED == p_eCommandID)

  00095	83 fb 43	 cmp	 ebx, 67			; 00000043H
  00098	75 0b		 jne	 SHORT $LN7@OnAddInToo

; 213  : 		p_lResult = m_bShowMonthGapRevision;

  0009a	8b 4d f0	 mov	 ecx, DWORD PTR _this$1$[ebp]
  0009d	8b 49 5c	 mov	 ecx, DWORD PTR [ecx+92]
$LN22@OnAddInToo:
; File D:\git\src\IBK\IBK_DRFN\ProjSrc\SrcChartEx\ChartOCX\Include_Chart\Dll_Load\IMetaTable.h

; 1036 : 	{

  000a0	8b 45 08	 mov	 eax, DWORD PTR _p_lResult$[ebp]
  000a3	89 08		 mov	 DWORD PTR [eax], ecx
$LN7@OnAddInToo:
  000a5	c7 45 fc 00 00
	00 00		 mov	 DWORD PTR __$EHRec$[ebp+8], 0
; File C:\Program Files (x86)\Microsoft Visual Studio\2019\Community\VC\Tools\MSVC\14.29.30133\atlmfc\include\afxwin1.inl

; 27   : 	{ ASSERT(hInstResource != NULL); afxCurrentResourceHandle = hInstResource; }

  000ac	e8 00 00 00 00	 call	 ?AfxGetModuleState@@YGPAVAFX_MODULE_STATE@@XZ ; AfxGetModuleState
  000b1	89 70 0c	 mov	 DWORD PTR [eax+12], esi
; File D:\git\src\IBK\IBK_DRFN\ProjSrc\SrcChartEx\ChartOCX\AddInManager\ChartCommonAddIn\GapRevisionAddInImp.cpp

; 216  : 	return TRUE;

  000b4	b8 01 00 00 00	 mov	 eax, 1

; 217  : 
; 218  : }

  000b9	8b 4d f4	 mov	 ecx, DWORD PTR __$EHRec$[ebp]
  000bc	64 89 0d 00 00
	00 00		 mov	 DWORD PTR fs:0, ecx
  000c3	59		 pop	 ecx
  000c4	5f		 pop	 edi
  000c5	5e		 pop	 esi
  000c6	5b		 pop	 ebx
  000c7	8b e5		 mov	 esp, ebp
  000c9	5d		 pop	 ebp
  000ca	c2 08 00	 ret	 8
  000cd	cc		 int	 3
  000ce	cc		 int	 3
  000cf	cc		 int	 3
  000d0	cc		 int	 3
  000d1	cc		 int	 3
_TEXT	ENDS
;	COMDAT text$x
text$x	SEGMENT
__ehhandler$?OnAddInToolCommand@CGapRevisionAddInImp@@MAEHAAJW4EAICommandType@@@Z:
  00000	90		 npad	 1
  00001	90		 npad	 1
  00002	8b 54 24 08	 mov	 edx, DWORD PTR [esp+8]
  00006	8d 42 0c	 lea	 eax, DWORD PTR [edx+12]
  00009	8b 4a ec	 mov	 ecx, DWORD PTR [edx-20]
  0000c	33 c8		 xor	 ecx, eax
  0000e	e8 00 00 00 00	 call	 @__security_check_cookie@4
  00013	b8 00 00 00 00	 mov	 eax, OFFSET __ehfuncinfo$?OnAddInToolCommand@CGapRevisionAddInImp@@MAEHAAJW4EAICommandType@@@Z
  00018	e9 00 00 00 00	 jmp	 ___CxxFrameHandler3
text$x	ENDS
?OnAddInToolCommand@CGapRevisionAddInImp@@MAEHAAJW4EAICommandType@@@Z ENDP ; CGapRevisionAddInImp::OnAddInToolCommand
; Function compile flags: /Ogtp
; File D:\git\src\IBK\IBK_DRFN\ProjSrc\SrcChartEx\ChartOCX\AddInManager\ChartCommonAddIn\GapRevisionAddInImp.cpp
; File C:\Program Files (x86)\Microsoft Visual Studio\2019\Community\VC\Tools\MSVC\14.29.30133\atlmfc\include\afxwin1.inl
; File D:\git\src\IBK\IBK_DRFN\ProjSrc\SrcChartEx\ChartOCX\Include_Chart\Dll_Load\IMetaTable.h
; File C:\Program Files (x86)\Microsoft Visual Studio\2019\Community\VC\Tools\MSVC\14.29.30133\atlmfc\include\afxwin1.inl
; File D:\git\src\IBK\IBK_DRFN\ProjSrc\SrcChartEx\ChartOCX\AddInManager\ChartCommonAddIn\GapRevisionAddInImp.cpp
; File D:\git\src\IBK\IBK_DRFN\ProjSrc\SrcChartEx\ChartOCX\Include_Chart\Dll_Load\IMetaTable.h
; File C:\Program Files (x86)\Microsoft Visual Studio\2019\Community\VC\Tools\MSVC\14.29.30133\atlmfc\include\afxwin1.inl
; File D:\git\src\IBK\IBK_DRFN\ProjSrc\SrcChartEx\ChartOCX\AddInManager\ChartCommonAddIn\GapRevisionAddInImp.cpp
;	COMDAT ?OnAddInToolCommand@CGapRevisionAddInImp@@MAEHW4EAICommandType@@J@Z
_TEXT	SEGMENT
_this$1$ = -16						; size = 4
__$EHRec$ = -12						; size = 12
_p_eCommandID$ = 8					; size = 4
_p_lParam1$ = 12					; size = 4
?OnAddInToolCommand@CGapRevisionAddInImp@@MAEHW4EAICommandType@@J@Z PROC ; CGapRevisionAddInImp::OnAddInToolCommand, COMDAT
; _this$ = ecx

; 169  : {

  00000	55		 push	 ebp
  00001	8b ec		 mov	 ebp, esp
  00003	6a ff		 push	 -1
  00005	68 00 00 00 00	 push	 __ehhandler$?OnAddInToolCommand@CGapRevisionAddInImp@@MAEHW4EAICommandType@@J@Z
  0000a	64 a1 00 00 00
	00		 mov	 eax, DWORD PTR fs:0
  00010	50		 push	 eax
  00011	51		 push	 ecx
  00012	53		 push	 ebx
  00013	56		 push	 esi
  00014	57		 push	 edi
  00015	a1 00 00 00 00	 mov	 eax, DWORD PTR ___security_cookie
  0001a	33 c5		 xor	 eax, ebp
  0001c	50		 push	 eax
  0001d	8d 45 f4	 lea	 eax, DWORD PTR __$EHRec$[ebp]
  00020	64 a3 00 00 00
	00		 mov	 DWORD PTR fs:0, eax
  00026	8b f1		 mov	 esi, ecx
  00028	89 75 f0	 mov	 DWORD PTR _this$1$[ebp], esi

; 170  : 	if( EAI_ENVSETUP_MONTHGAPREVISION_CHANGED != p_eCommandID &&

  0002b	8b 5d 08	 mov	 ebx, DWORD PTR _p_eCommandID$[ebp]
  0002e	83 fb 42	 cmp	 ebx, 66			; 00000042H
  00031	74 1b		 je	 SHORT $LN2@OnAddInToo
  00033	83 fb 43	 cmp	 ebx, 67			; 00000043H
  00036	74 16		 je	 SHORT $LN2@OnAddInToo

; 171  : 		EAI_ENVSETUP_SHOWMONTHGAPREVISION_CHANGED != p_eCommandID )
; 172  : 		return FALSE;

  00038	33 c0		 xor	 eax, eax

; 182  : }

  0003a	8b 4d f4	 mov	 ecx, DWORD PTR __$EHRec$[ebp]
  0003d	64 89 0d 00 00
	00 00		 mov	 DWORD PTR fs:0, ecx
  00044	59		 pop	 ecx
  00045	5f		 pop	 edi
  00046	5e		 pop	 esi
  00047	5b		 pop	 ebx
  00048	8b e5		 mov	 esp, ebp
  0004a	5d		 pop	 ebp
  0004b	c2 08 00	 ret	 8
$LN2@OnAddInToo:

; 173  : 
; 174  : 	ML_SET_LANGUAGE_RES();

  0004e	e8 00 00 00 00	 call	 ?AfxGetStaticModuleState@@YGPAVAFX_MODULE_STATE@@XZ ; AfxGetStaticModuleState
  00053	b9 00 00 00 00	 mov	 ecx, OFFSET ?g_iMetaTable@@3VIMetaTable@@A ; g_iMetaTable
  00058	8b 40 08	 mov	 eax, DWORD PTR [eax+8]
  0005b	50		 push	 eax
  0005c	ff 76 0c	 push	 DWORD PTR [esi+12]
  0005f	e8 00 00 00 00	 call	 ?LoadResourceDLL@IMetaTable@@QAEPAUHINSTANCE__@@PAUHWND__@@PAU2@@Z ; IMetaTable::LoadResourceDLL
  00064	8b f8		 mov	 edi, eax
; File C:\Program Files (x86)\Microsoft Visual Studio\2019\Community\VC\Tools\MSVC\14.29.30133\atlmfc\include\afxwin1.inl

; 25   : 		return afxCurrentResourceHandle; }

  00066	e8 00 00 00 00	 call	 ?AfxGetModuleState@@YGPAVAFX_MODULE_STATE@@XZ ; AfxGetModuleState
; File D:\git\src\IBK\IBK_DRFN\ProjSrc\SrcChartEx\ChartOCX\Include_Chart\Dll_Load\IMetaTable.h

; 1032 : 		m_hInstance = AfxGetResourceHandle();

  0006b	8b 70 0c	 mov	 esi, DWORD PTR [eax+12]
; File C:\Program Files (x86)\Microsoft Visual Studio\2019\Community\VC\Tools\MSVC\14.29.30133\atlmfc\include\afxwin1.inl

; 27   : 	{ ASSERT(hInstResource != NULL); afxCurrentResourceHandle = hInstResource; }

  0006e	e8 00 00 00 00	 call	 ?AfxGetModuleState@@YGPAVAFX_MODULE_STATE@@XZ ; AfxGetModuleState
  00073	89 78 0c	 mov	 DWORD PTR [eax+12], edi
; File D:\git\src\IBK\IBK_DRFN\ProjSrc\SrcChartEx\ChartOCX\AddInManager\ChartCommonAddIn\GapRevisionAddInImp.cpp

; 176  : 	if (EAI_ENVSETUP_MONTHGAPREVISION_CHANGED == p_eCommandID)

  00076	83 fb 42	 cmp	 ebx, 66			; 00000042H
  00079	75 0b		 jne	 SHORT $LN3@OnAddInToo

; 177  : 		m_bUseMonthGapRevision = p_lParam1;

  0007b	8b 4d f0	 mov	 ecx, DWORD PTR _this$1$[ebp]
  0007e	8b 45 0c	 mov	 eax, DWORD PTR _p_lParam1$[ebp]
  00081	89 41 58	 mov	 DWORD PTR [ecx+88], eax
  00084	eb 0e		 jmp	 SHORT $LN5@OnAddInToo
$LN3@OnAddInToo:

; 178  : 	else if (EAI_ENVSETUP_SHOWMONTHGAPREVISION_CHANGED == p_eCommandID)

  00086	83 fb 43	 cmp	 ebx, 67			; 00000043H
  00089	75 09		 jne	 SHORT $LN5@OnAddInToo

; 179  : 		m_bShowMonthGapRevision = p_lParam1;

  0008b	8b 4d f0	 mov	 ecx, DWORD PTR _this$1$[ebp]
  0008e	8b 45 0c	 mov	 eax, DWORD PTR _p_lParam1$[ebp]
  00091	89 41 5c	 mov	 DWORD PTR [ecx+92], eax
$LN5@OnAddInToo:
; File D:\git\src\IBK\IBK_DRFN\ProjSrc\SrcChartEx\ChartOCX\Include_Chart\Dll_Load\IMetaTable.h

; 1036 : 	{

  00094	c7 45 fc 00 00
	00 00		 mov	 DWORD PTR __$EHRec$[ebp+8], 0
; File C:\Program Files (x86)\Microsoft Visual Studio\2019\Community\VC\Tools\MSVC\14.29.30133\atlmfc\include\afxwin1.inl

; 27   : 	{ ASSERT(hInstResource != NULL); afxCurrentResourceHandle = hInstResource; }

  0009b	e8 00 00 00 00	 call	 ?AfxGetModuleState@@YGPAVAFX_MODULE_STATE@@XZ ; AfxGetModuleState
  000a0	89 70 0c	 mov	 DWORD PTR [eax+12], esi
; File D:\git\src\IBK\IBK_DRFN\ProjSrc\SrcChartEx\ChartOCX\AddInManager\ChartCommonAddIn\GapRevisionAddInImp.cpp

; 181  : 	return TRUE;

  000a3	b8 01 00 00 00	 mov	 eax, 1

; 182  : }

  000a8	8b 4d f4	 mov	 ecx, DWORD PTR __$EHRec$[ebp]
  000ab	64 89 0d 00 00
	00 00		 mov	 DWORD PTR fs:0, ecx
  000b2	59		 pop	 ecx
  000b3	5f		 pop	 edi
  000b4	5e		 pop	 esi
  000b5	5b		 pop	 ebx
  000b6	8b e5		 mov	 esp, ebp
  000b8	5d		 pop	 ebp
  000b9	c2 08 00	 ret	 8
  000bc	cc		 int	 3
  000bd	cc		 int	 3
  000be	cc		 int	 3
  000bf	cc		 int	 3
  000c0	cc		 int	 3
_TEXT	ENDS
;	COMDAT text$x
text$x	SEGMENT
__ehhandler$?OnAddInToolCommand@CGapRevisionAddInImp@@MAEHW4EAICommandType@@J@Z:
  00000	90		 npad	 1
  00001	90		 npad	 1
  00002	8b 54 24 08	 mov	 edx, DWORD PTR [esp+8]
  00006	8d 42 0c	 lea	 eax, DWORD PTR [edx+12]
  00009	8b 4a ec	 mov	 ecx, DWORD PTR [edx-20]
  0000c	33 c8		 xor	 ecx, eax
  0000e	e8 00 00 00 00	 call	 @__security_check_cookie@4
  00013	b8 00 00 00 00	 mov	 eax, OFFSET __ehfuncinfo$?OnAddInToolCommand@CGapRevisionAddInImp@@MAEHW4EAICommandType@@J@Z
  00018	e9 00 00 00 00	 jmp	 ___CxxFrameHandler3
text$x	ENDS
?OnAddInToolCommand@CGapRevisionAddInImp@@MAEHW4EAICommandType@@J@Z ENDP ; CGapRevisionAddInImp::OnAddInToolCommand
; Function compile flags: /Ogtp
; File D:\git\src\IBK\IBK_DRFN\ProjSrc\SrcChartEx\ChartOCX\AddInManager\ChartCommonAddIn\GapRevisionAddInImp.cpp
; File C:\Program Files (x86)\Microsoft Visual Studio\2019\Community\VC\Tools\MSVC\14.29.30133\atlmfc\include\afxwin1.inl
; File D:\git\src\IBK\IBK_DRFN\ProjSrc\SrcChartEx\ChartOCX\Include_Chart\Dll_Load\IMetaTable.h
; File C:\Program Files (x86)\Microsoft Visual Studio\2019\Community\VC\Tools\MSVC\14.29.30133\atlmfc\include\afxwin1.inl
; File D:\git\src\IBK\IBK_DRFN\ProjSrc\SrcChartEx\ChartOCX\AddInManager\ChartCommonAddIn\GapRevisionAddInImp.cpp
; File D:\git\src\IBK\IBK_DRFN\ProjSrc\SrcChartEx\ChartOCX\Include_Chart\Dll_Load\IMetaTable.h
; File C:\Program Files (x86)\Microsoft Visual Studio\2019\Community\VC\Tools\MSVC\14.29.30133\atlmfc\include\afxwin1.inl
; File D:\git\src\IBK\IBK_DRFN\ProjSrc\SrcChartEx\ChartOCX\AddInManager\ChartCommonAddIn\GapRevisionAddInImp.cpp
;	COMDAT ?OnAddInToolCommand@CGapRevisionAddInImp@@MAEHW4EAICommandType@@JJ@Z
_TEXT	SEGMENT
__$EHRec$ = -12						; size = 12
___mlrs__$ = 8						; size = 4
_p_eCommandID$ = 8					; size = 4
_p_lParam1$ = 12					; size = 4
_p_lParam2$ = 16					; size = 4
?OnAddInToolCommand@CGapRevisionAddInImp@@MAEHW4EAICommandType@@JJ@Z PROC ; CGapRevisionAddInImp::OnAddInToolCommand, COMDAT
; _this$ = ecx

; 157  : {

  00000	55		 push	 ebp
  00001	8b ec		 mov	 ebp, esp
  00003	6a ff		 push	 -1
  00005	68 00 00 00 00	 push	 __ehhandler$?OnAddInToolCommand@CGapRevisionAddInImp@@MAEHW4EAICommandType@@JJ@Z
  0000a	64 a1 00 00 00
	00		 mov	 eax, DWORD PTR fs:0
  00010	50		 push	 eax
  00011	53		 push	 ebx
  00012	56		 push	 esi
  00013	57		 push	 edi
  00014	a1 00 00 00 00	 mov	 eax, DWORD PTR ___security_cookie
  00019	33 c5		 xor	 eax, ebp
  0001b	50		 push	 eax
  0001c	8d 45 f4	 lea	 eax, DWORD PTR __$EHRec$[ebp]
  0001f	64 a3 00 00 00
	00		 mov	 DWORD PTR fs:0, eax
  00025	8b d9		 mov	 ebx, ecx

; 158  : 	if( EAI_ENVSETUP_GAPREVISION_CHANGED != p_eCommandID )		return FALSE;

  00027	83 7d 08 40	 cmp	 DWORD PTR _p_eCommandID$[ebp], 64 ; 00000040H
  0002b	74 16		 je	 SHORT $LN2@OnAddInToo
  0002d	33 c0		 xor	 eax, eax

; 165  : }

  0002f	8b 4d f4	 mov	 ecx, DWORD PTR __$EHRec$[ebp]
  00032	64 89 0d 00 00
	00 00		 mov	 DWORD PTR fs:0, ecx
  00039	59		 pop	 ecx
  0003a	5f		 pop	 edi
  0003b	5e		 pop	 esi
  0003c	5b		 pop	 ebx
  0003d	8b e5		 mov	 esp, ebp
  0003f	5d		 pop	 ebp
  00040	c2 0c 00	 ret	 12			; 0000000cH
$LN2@OnAddInToo:

; 159  : 
; 160  : 	ML_SET_LANGUAGE_RES();

  00043	e8 00 00 00 00	 call	 ?AfxGetStaticModuleState@@YGPAVAFX_MODULE_STATE@@XZ ; AfxGetStaticModuleState
  00048	b9 00 00 00 00	 mov	 ecx, OFFSET ?g_iMetaTable@@3VIMetaTable@@A ; g_iMetaTable
  0004d	8b 40 08	 mov	 eax, DWORD PTR [eax+8]
  00050	50		 push	 eax
  00051	ff 73 0c	 push	 DWORD PTR [ebx+12]
  00054	e8 00 00 00 00	 call	 ?LoadResourceDLL@IMetaTable@@QAEPAUHINSTANCE__@@PAUHWND__@@PAU2@@Z ; IMetaTable::LoadResourceDLL
  00059	8b f8		 mov	 edi, eax
; File C:\Program Files (x86)\Microsoft Visual Studio\2019\Community\VC\Tools\MSVC\14.29.30133\atlmfc\include\afxwin1.inl

; 25   : 		return afxCurrentResourceHandle; }

  0005b	e8 00 00 00 00	 call	 ?AfxGetModuleState@@YGPAVAFX_MODULE_STATE@@XZ ; AfxGetModuleState
; File D:\git\src\IBK\IBK_DRFN\ProjSrc\SrcChartEx\ChartOCX\Include_Chart\Dll_Load\IMetaTable.h

; 1032 : 		m_hInstance = AfxGetResourceHandle();

  00060	8b 70 0c	 mov	 esi, DWORD PTR [eax+12]
  00063	89 75 08	 mov	 DWORD PTR ___mlrs__$[ebp], esi
; File C:\Program Files (x86)\Microsoft Visual Studio\2019\Community\VC\Tools\MSVC\14.29.30133\atlmfc\include\afxwin1.inl

; 27   : 	{ ASSERT(hInstResource != NULL); afxCurrentResourceHandle = hInstResource; }

  00066	e8 00 00 00 00	 call	 ?AfxGetModuleState@@YGPAVAFX_MODULE_STATE@@XZ ; AfxGetModuleState
  0006b	89 78 0c	 mov	 DWORD PTR [eax+12], edi
; File D:\git\src\IBK\IBK_DRFN\ProjSrc\SrcChartEx\ChartOCX\AddInManager\ChartCommonAddIn\GapRevisionAddInImp.cpp

; 162  : 	SetUseGapRevision( p_lParam1, p_lParam2);

  0006e	ff 75 10	 push	 DWORD PTR _p_lParam2$[ebp]
  00071	8b 43 f8	 mov	 eax, DWORD PTR [ebx-8]
  00074	8d 4b f8	 lea	 ecx, DWORD PTR [ebx-8]
  00077	ff 75 0c	 push	 DWORD PTR _p_lParam1$[ebp]
  0007a	c7 45 fc 00 00
	00 00		 mov	 DWORD PTR __$EHRec$[ebp+8], 0
  00081	ff 50 34	 call	 DWORD PTR [eax+52]
; File D:\git\src\IBK\IBK_DRFN\ProjSrc\SrcChartEx\ChartOCX\Include_Chart\Dll_Load\IMetaTable.h

; 1036 : 	{

  00084	c7 45 fc 01 00
	00 00		 mov	 DWORD PTR __$EHRec$[ebp+8], 1
; File C:\Program Files (x86)\Microsoft Visual Studio\2019\Community\VC\Tools\MSVC\14.29.30133\atlmfc\include\afxwin1.inl

; 27   : 	{ ASSERT(hInstResource != NULL); afxCurrentResourceHandle = hInstResource; }

  0008b	e8 00 00 00 00	 call	 ?AfxGetModuleState@@YGPAVAFX_MODULE_STATE@@XZ ; AfxGetModuleState
  00090	89 70 0c	 mov	 DWORD PTR [eax+12], esi
; File D:\git\src\IBK\IBK_DRFN\ProjSrc\SrcChartEx\ChartOCX\AddInManager\ChartCommonAddIn\GapRevisionAddInImp.cpp

; 164  : 	return TRUE;

  00093	b8 01 00 00 00	 mov	 eax, 1

; 165  : }

  00098	8b 4d f4	 mov	 ecx, DWORD PTR __$EHRec$[ebp]
  0009b	64 89 0d 00 00
	00 00		 mov	 DWORD PTR fs:0, ecx
  000a2	59		 pop	 ecx
  000a3	5f		 pop	 edi
  000a4	5e		 pop	 esi
  000a5	5b		 pop	 ebx
  000a6	8b e5		 mov	 esp, ebp
  000a8	5d		 pop	 ebp
  000a9	c2 0c 00	 ret	 12			; 0000000cH
_TEXT	ENDS
;	COMDAT text$x
text$x	SEGMENT
__unwindfunclet$?OnAddInToolCommand@CGapRevisionAddInImp@@MAEHW4EAICommandType@@JJ@Z$0:
  00000	8d 4d 08	 lea	 ecx, DWORD PTR ___mlrs__$[ebp]
  00003	e9 00 00 00 00	 jmp	 ??1CMultiLanguageResourceSetter@@QAE@XZ ; CMultiLanguageResourceSetter::~CMultiLanguageResourceSetter
  00008	cc		 int	 3
  00009	cc		 int	 3
  0000a	cc		 int	 3
  0000b	cc		 int	 3
  0000c	cc		 int	 3
__ehhandler$?OnAddInToolCommand@CGapRevisionAddInImp@@MAEHW4EAICommandType@@JJ@Z:
  0000d	90		 npad	 1
  0000e	90		 npad	 1
  0000f	8b 54 24 08	 mov	 edx, DWORD PTR [esp+8]
  00013	8d 42 0c	 lea	 eax, DWORD PTR [edx+12]
  00016	8b 4a f0	 mov	 ecx, DWORD PTR [edx-16]
  00019	33 c8		 xor	 ecx, eax
  0001b	e8 00 00 00 00	 call	 @__security_check_cookie@4
  00020	b8 00 00 00 00	 mov	 eax, OFFSET __ehfuncinfo$?OnAddInToolCommand@CGapRevisionAddInImp@@MAEHW4EAICommandType@@JJ@Z
  00025	e9 00 00 00 00	 jmp	 ___CxxFrameHandler3
text$x	ENDS
?OnAddInToolCommand@CGapRevisionAddInImp@@MAEHW4EAICommandType@@JJ@Z ENDP ; CGapRevisionAddInImp::OnAddInToolCommand
; Function compile flags: /Ogtp
; File D:\git\src\IBK\IBK_DRFN\ProjSrc\SrcChartEx\ChartOCX\AddInManager\ChartCommonAddIn\GapRevisionAddInImp.h
;	COMDAT ?GetRegisteredEventMap@CGapRevisionAddInImp@@MBEPBW4EAddInEventType@IChartAddIn000000@@XZ
_TEXT	SEGMENT
?GetRegisteredEventMap@CGapRevisionAddInImp@@MBEPBW4EAddInEventType@IChartAddIn000000@@XZ PROC ; CGapRevisionAddInImp::GetRegisteredEventMap, COMDAT
; _this$ = ecx

; 69   : 	DECLARE_ADDIN_EVENT_MAP()

  00000	b8 00 00 00 00	 mov	 eax, OFFSET ?m_eRegisteredEventMap@CGapRevisionAddInImp@@1QBW4EAddInEventType@IChartAddIn000000@@B ; CGapRevisionAddInImp::m_eRegisteredEventMap
  00005	c3		 ret	 0
?GetRegisteredEventMap@CGapRevisionAddInImp@@MBEPBW4EAddInEventType@IChartAddIn000000@@XZ ENDP ; CGapRevisionAddInImp::GetRegisteredEventMap
_TEXT	ENDS
; Function compile flags: /Ogtp
; File D:\git\src\IBK\IBK_DRFN\ProjSrc\SrcChartEx\ChartOCX\AddInManager\ChartCommonAddIn\GapRevisionAddInImp.cpp
; File D:\git\src\IBK\IBK_DRFN\ProjSrc\SrcChartEx\ChartOCX\AddInManager\Include_AddIn\I000000\_IString.h
; File D:\git\src\IBK\IBK_DRFN\ProjSrc\SrcChartEx\ChartOCX\AddInManager\ChartCommonAddIn\GapRevisionAddInImp.cpp
; File C:\Program Files (x86)\Microsoft Visual Studio\2019\Community\VC\Tools\MSVC\14.29.30133\atlmfc\include\atlsimpstr.h
; File D:\git\src\IBK\IBK_DRFN\ProjSrc\SrcChartEx\ChartOCX\AddInManager\ChartCommonAddIn\GapRevisionAddInImp.cpp
; File D:\git\src\IBK\IBK_DRFN\ProjSrc\SrcChartEx\ChartOCX\AddInManager\Include_AddIn\I000000\_IString.h
; File D:\git\src\IBK\IBK_DRFN\ProjSrc\SrcChartEx\ChartOCX\AddInManager\ChartCommonAddIn\GapRevisionAddInImp.cpp
; File C:\Program Files (x86)\Microsoft Visual Studio\2019\Community\VC\Tools\MSVC\14.29.30133\atlmfc\include\cstringt.h
; File D:\git\src\IBK\IBK_DRFN\ProjSrc\SrcChartEx\ChartOCX\AddInManager\ChartCommonAddIn\GapRevisionAddInImp.cpp
; File C:\Program Files (x86)\Microsoft Visual Studio\2019\Community\VC\Tools\MSVC\14.29.30133\atlmfc\include\cstringt.h
; File D:\git\src\IBK\IBK_DRFN\ProjSrc\SrcChartEx\ChartOCX\AddInManager\ChartCommonAddIn\GapRevisionAddInImp.cpp
; File C:\Program Files (x86)\Microsoft Visual Studio\2019\Community\VC\Tools\MSVC\14.29.30133\atlmfc\include\afxtempl.h
; File D:\git\src\IBK\IBK_DRFN\ProjSrc\SrcChartEx\ChartOCX\AddInManager\ChartCommonAddIn\GapRevisionAddInImp.cpp
; File C:\Program Files (x86)\Microsoft Visual Studio\2019\Community\VC\Tools\MSVC\14.29.30133\atlmfc\include\afxtempl.h
; File D:\git\src\IBK\IBK_DRFN\ProjSrc\SrcChartEx\ChartOCX\AddInManager\ChartCommonAddIn\GapRevisionAddInImp.cpp
; File C:\Program Files (x86)\Microsoft Visual Studio\2019\Community\VC\Tools\MSVC\14.29.30133\atlmfc\include\afxtempl.h
; File D:\git\src\IBK\IBK_DRFN\ProjSrc\SrcChartEx\ChartOCX\AddInManager\ChartCommonAddIn\GapRevisionAddInImp.cpp
; File C:\Program Files (x86)\Microsoft Visual Studio\2019\Community\VC\Tools\MSVC\14.29.30133\atlmfc\include\cstringt.h
; File D:\git\src\IBK\IBK_DRFN\ProjSrc\SrcChartEx\ChartOCX\AddInManager\ChartCommonAddIn\GapRevisionAddInImp.cpp
; File C:\Program Files (x86)\Microsoft Visual Studio\2019\Community\VC\Tools\MSVC\14.29.30133\atlmfc\include\cstringt.h
; File D:\git\src\IBK\IBK_DRFN\ProjSrc\SrcChartEx\ChartOCX\AddInManager\ChartCommonAddIn\GapRevisionAddInImp.cpp
; File C:\Program Files (x86)\Microsoft Visual Studio\2019\Community\VC\Tools\MSVC\14.29.30133\atlmfc\include\afxtempl.h
; File D:\git\src\IBK\IBK_DRFN\ProjSrc\SrcChartEx\ChartOCX\AddInManager\ChartCommonAddIn\GapRevisionAddInImp.cpp
; File C:\Program Files (x86)\Microsoft Visual Studio\2019\Community\VC\Tools\MSVC\14.29.30133\atlmfc\include\afxtempl.h
; File D:\git\src\IBK\IBK_DRFN\ProjSrc\SrcChartEx\ChartOCX\AddInManager\ChartCommonAddIn\GapRevisionAddInImp.cpp
; File D:\git\src\IBK\IBK_DRFN\ProjSrc\SrcChartEx\ChartOCX\AddInManager\Include_AddIn\I000000\_IString.h
; File D:\git\src\IBK\IBK_DRFN\ProjSrc\SrcChartEx\ChartOCX\AddInManager\ChartCommonAddIn\GapRevisionAddInImp.cpp
;	COMDAT ?RestoreGapRevision@CGapRevisionAddInImp@@MAEXPBD@Z
_TEXT	SEGMENT
_dTime$ = -132						; size = 8
_dClose$ = -124						; size = 8
_dLow$ = -116						; size = 8
_dHigh$ = -108						; size = 8
_dOpen$ = -100						; size = 8
_dGap$1$ = -92						; size = 8
_szIStr$ = -84						; size = 8
tv895 = -76						; size = 4
_this$1$ = -72						; size = 4
_pTimePacket$1$ = -68					; size = 4
_nCurIndx$1$ = -64					; size = 4
_nBaseTime$1$ = -60					; size = 4
_szMarketType$ = -56					; size = 4
_pLowPacket$1$ = -52					; size = 4
_strStartTime$2 = -52					; size = 4
_pHighPacket$1$ = -48					; size = 4
_pOpenPacket$1$ = -44					; size = 4
tv891 = -40						; size = 4
_nCurTime$1$ = -36					; size = 4
_pSTGapInfo$ = -32					; size = 4
_nCurDay$1$ = -28					; size = 4
_pClosePacket$1$ = -24					; size = 4
_szMarketTime$ = -20					; size = 4
_strType$ = -16						; size = 4
__$EHRec$ = -12						; size = 12
$T3 = 8							; size = 4
_p_szRQ$ = 8						; size = 4
?RestoreGapRevision@CGapRevisionAddInImp@@MAEXPBD@Z PROC ; CGapRevisionAddInImp::RestoreGapRevision, COMDAT
; _this$ = ecx

; 508  : {

  00000	55		 push	 ebp
  00001	8b ec		 mov	 ebp, esp
  00003	6a ff		 push	 -1
  00005	68 00 00 00 00	 push	 __ehhandler$?RestoreGapRevision@CGapRevisionAddInImp@@MAEXPBD@Z
  0000a	64 a1 00 00 00
	00		 mov	 eax, DWORD PTR fs:0
  00010	50		 push	 eax
  00011	83 ec 78	 sub	 esp, 120		; 00000078H
  00014	53		 push	 ebx
  00015	56		 push	 esi
  00016	57		 push	 edi
  00017	a1 00 00 00 00	 mov	 eax, DWORD PTR ___security_cookie
  0001c	33 c5		 xor	 eax, ebp
  0001e	50		 push	 eax
  0001f	8d 45 f4	 lea	 eax, DWORD PTR __$EHRec$[ebp]
  00022	64 a3 00 00 00
	00		 mov	 DWORD PTR fs:0, eax
  00028	8b c1		 mov	 eax, ecx
  0002a	89 45 b8	 mov	 DWORD PTR _this$1$[ebp], eax

; 509  : 	if( !p_szRQ || !*p_szRQ)			return;

  0002d	8b 55 08	 mov	 edx, DWORD PTR _p_szRQ$[ebp]
  00030	85 d2		 test	 edx, edx
  00032	0f 84 f9 04 00
	00		 je	 $LN6@RestoreGap
  00038	80 3a 00	 cmp	 BYTE PTR [edx], 0
  0003b	0f 84 f0 04 00
	00		 je	 $LN6@RestoreGap

; 510  : 	int nGapInfoCount = m_mapRQGapInfo.GetCount();
; 511  : 	if( nGapInfoCount <= 0) 	return;

  00041	83 78 4c 00	 cmp	 DWORD PTR [eax+76], 0
  00045	0f 8e e6 04 00
	00		 jle	 $LN6@RestoreGap

; 512  : 
; 513  : 	IPacketManager *pPacketList = m_pIPacketListManager->GetPacketManager( p_szRQ);

  0004b	8b 48 1c	 mov	 ecx, DWORD PTR [eax+28]
  0004e	52		 push	 edx
  0004f	8b 01		 mov	 eax, DWORD PTR [ecx]
  00051	ff 50 10	 call	 DWORD PTR [eax+16]
  00054	8b f0		 mov	 esi, eax

; 514  : 	if( !pPacketList) return;

  00056	85 f6		 test	 esi, esi
  00058	0f 84 d3 04 00
	00		 je	 $LN6@RestoreGap

; 515  : 
; 516  : 	//--------------------------------------------------------
; 517  : 	//>> CME(1),COBT(2)    
; 518  : 	CString szMarketType;

  0005e	8d 4d c8	 lea	 ecx, DWORD PTR _szMarketType$[ebp]
  00061	ff 15 00 00 00
	00		 call	 DWORD PTR __imp_??0?$CStringT@DV?$StrTraitMFC_DLL@DV?$ChTraitsCRT@D@ATL@@@@@ATL@@QAE@XZ
  00067	c7 45 fc 00 00
	00 00		 mov	 DWORD PTR __$EHRec$[ebp+8], 0
; File D:\git\src\IBK\IBK_DRFN\ProjSrc\SrcChartEx\ChartOCX\AddInManager\Include_AddIn\I000000\_IString.h

; 39   : 		m_pIStrData = p_pIString;	// Do not AddRef(). Because It must be Return Value.

  0006e	c7 45 b0 00 00
	00 00		 mov	 DWORD PTR _szIStr$[ebp+4], 0

; 40   : 		if( m_pIStrData) m_szData = m_pIStrData->GetData();
; 41   : 		else m_szData = NULL;

  00075	c7 45 ac 00 00
	00 00		 mov	 DWORD PTR _szIStr$[ebp], 0
; File D:\git\src\IBK\IBK_DRFN\ProjSrc\SrcChartEx\ChartOCX\AddInManager\ChartCommonAddIn\GapRevisionAddInImp.cpp

; 520  : 	pPacketList->GetHelpMessageItem( HELP_MSG_MARKETTYPE, szIStr);

  0007c	8b 06		 mov	 eax, DWORD PTR [esi]
  0007e	8d 4d ac	 lea	 ecx, DWORD PTR _szIStr$[ebp]
  00081	51		 push	 ecx
  00082	68 00 00 00 00	 push	 OFFSET ??_C@_0L@MLIHGNMC@MARKETTYPE@
  00087	8b ce		 mov	 ecx, esi
  00089	c6 45 fc 01	 mov	 BYTE PTR __$EHRec$[ebp+8], 1
  0008d	ff 50 18	 call	 DWORD PTR [eax+24]

; 521  : 	szMarketType = szIStr;

  00090	ff 75 ac	 push	 DWORD PTR _szIStr$[ebp]
  00093	8d 4d c8	 lea	 ecx, DWORD PTR _szMarketType$[ebp]
  00096	ff 15 00 00 00
	00		 call	 DWORD PTR __imp_??4?$CStringT@DV?$StrTraitMFC_DLL@DV?$ChTraitsCRT@D@ATL@@@@@ATL@@QAEAAV01@PBD@Z

; 522  : 	int nMarketType = atoi(szMarketType);

  0009c	ff 75 c8	 push	 DWORD PTR _szMarketType$[ebp]
  0009f	8b 3d 00 00 00
	00		 mov	 edi, DWORD PTR __imp__atoi
  000a5	ff d7		 call	 edi
  000a7	83 c4 04	 add	 esp, 4

; 523  : 
; 524  : 	if( nMarketType == 1 || nMarketType == 2)

  000aa	83 f8 01	 cmp	 eax, 1
  000ad	0f 84 50 04 00
	00		 je	 $LN10@RestoreGap
  000b3	83 f8 02	 cmp	 eax, 2
  000b6	0f 84 47 04 00
	00		 je	 $LN10@RestoreGap

; 527  : 		return;
; 528  : 	}
; 529  : 	//<< CME(1),COBT(2)    
; 530  : 	
; 531  : 	// Market BaseTime 
; 532  : 	CString szMarketTime;

  000bc	8d 4d ec	 lea	 ecx, DWORD PTR _szMarketTime$[ebp]
  000bf	ff 15 00 00 00
	00		 call	 DWORD PTR __imp_??0?$CStringT@DV?$StrTraitMFC_DLL@DV?$ChTraitsCRT@D@ATL@@@@@ATL@@QAE@XZ

; 533  : 	pPacketList->GetHelpMessageItem( HELP_MSG_MARKETTIME, szIStr);

  000c5	8b 06		 mov	 eax, DWORD PTR [esi]
  000c7	8d 4d ac	 lea	 ecx, DWORD PTR _szIStr$[ebp]
  000ca	51		 push	 ecx
  000cb	68 00 00 00 00	 push	 OFFSET ??_C@_0L@IPGAAKHO@MARKETTIME@
  000d0	8b ce		 mov	 ecx, esi
  000d2	c6 45 fc 03	 mov	 BYTE PTR __$EHRec$[ebp+8], 3
  000d6	ff 50 18	 call	 DWORD PTR [eax+24]

; 534  : 	szMarketTime = szIStr;

  000d9	ff 75 ac	 push	 DWORD PTR _szIStr$[ebp]
  000dc	8d 4d ec	 lea	 ecx, DWORD PTR _szMarketTime$[ebp]
  000df	ff 15 00 00 00
	00		 call	 DWORD PTR __imp_??4?$CStringT@DV?$StrTraitMFC_DLL@DV?$ChTraitsCRT@D@ATL@@@@@ATL@@QAEAAV01@PBD@Z
; File C:\Program Files (x86)\Microsoft Visual Studio\2019\Community\VC\Tools\MSVC\14.29.30133\atlmfc\include\atlsimpstr.h

; 519  : 		return( GetData()->nDataLength );

  000e5	8b 45 ec	 mov	 eax, DWORD PTR _szMarketTime$[ebp]
; File D:\git\src\IBK\IBK_DRFN\ProjSrc\SrcChartEx\ChartOCX\AddInManager\ChartCommonAddIn\GapRevisionAddInImp.cpp

; 536  : 	int nBaseTime = 240000;

  000e8	c7 45 c4 80 a9
	03 00		 mov	 DWORD PTR _nBaseTime$1$[ebp], 240000 ; 0003a980H

; 537  : 	if(szMarketTime.GetLength() >= 5 && szMarketTime.Find("|") > 0)

  000ef	83 78 f4 05	 cmp	 DWORD PTR [eax-12], 5
  000f3	7c 48		 jl	 SHORT $LN11@RestoreGap
  000f5	6a 00		 push	 0
  000f7	68 00 00 00 00	 push	 OFFSET ??_C@_01DNKMNLPK@?$HM@
  000fc	8d 4d ec	 lea	 ecx, DWORD PTR _szMarketTime$[ebp]
  000ff	ff 15 00 00 00
	00		 call	 DWORD PTR __imp_?Find@?$CStringT@DV?$StrTraitMFC_DLL@DV?$ChTraitsCRT@D@ATL@@@@@ATL@@QBEHPBDH@Z
  00105	85 c0		 test	 eax, eax
  00107	7e 34		 jle	 SHORT $LN11@RestoreGap

; 538  : 	{
; 539  : 		CString strStartTime = szMarketTime.Mid(0, szMarketTime.Find("|"));

  00109	6a 00		 push	 0
  0010b	68 00 00 00 00	 push	 OFFSET ??_C@_01DNKMNLPK@?$HM@
  00110	8d 4d ec	 lea	 ecx, DWORD PTR _szMarketTime$[ebp]
  00113	ff 15 00 00 00
	00		 call	 DWORD PTR __imp_?Find@?$CStringT@DV?$StrTraitMFC_DLL@DV?$ChTraitsCRT@D@ATL@@@@@ATL@@QBEHPBDH@Z
  00119	50		 push	 eax
  0011a	6a 00		 push	 0
  0011c	8d 45 cc	 lea	 eax, DWORD PTR _strStartTime$2[ebp]
  0011f	50		 push	 eax
  00120	8d 4d ec	 lea	 ecx, DWORD PTR _szMarketTime$[ebp]
  00123	ff 15 00 00 00
	00		 call	 DWORD PTR __imp_?Mid@?$CStringT@DV?$StrTraitMFC_DLL@DV?$ChTraitsCRT@D@ATL@@@@@ATL@@QBE?AV12@HH@Z

; 540  : 		nBaseTime = atoi(strStartTime);

  00129	ff 75 cc	 push	 DWORD PTR _strStartTime$2[ebp]
  0012c	ff d7		 call	 edi
  0012e	83 c4 04	 add	 esp, 4
  00131	89 45 c4	 mov	 DWORD PTR _nBaseTime$1$[ebp], eax

; 541  : 	}

  00134	8d 4d cc	 lea	 ecx, DWORD PTR _strStartTime$2[ebp]
  00137	ff 15 00 00 00
	00		 call	 DWORD PTR __imp_??1?$CStringT@DV?$StrTraitMFC_DLL@DV?$ChTraitsCRT@D@ATL@@@@@ATL@@QAE@XZ
$LN11@RestoreGap:

; 542  : 
; 543  : 	// RQ  
; 544  : 	IPacket *pTimePacket = pPacketList->GetPacket(_MTEXT( C0_DATE_TIME));

  0013d	8b 0d 54 00 00
	00		 mov	 ecx, DWORD PTR ?g_iMetaTable@@3VIMetaTable@@A+84
  00143	8b 16		 mov	 edx, DWORD PTR [esi]
  00145	ff 31		 push	 DWORD PTR [ecx]
  00147	8b ce		 mov	 ecx, esi
  00149	ff 52 10	 call	 DWORD PTR [edx+16]
  0014c	8b d8		 mov	 ebx, eax
  0014e	89 5d bc	 mov	 DWORD PTR _pTimePacket$1$[ebp], ebx

; 545  : 	if( !pTimePacket) 

  00151	85 db		 test	 ebx, ebx
  00153	75 14		 jne	 SHORT $LN12@RestoreGap

; 546  : 	{
; 547  : 		pPacketList->Release();

  00155	8b 06		 mov	 eax, DWORD PTR [esi]
  00157	56		 push	 esi
  00158	ff 50 08	 call	 DWORD PTR [eax+8]

; 646  : }

  0015b	8d 4d ec	 lea	 ecx, DWORD PTR _szMarketTime$[ebp]
  0015e	ff 15 00 00 00
	00		 call	 DWORD PTR __imp_??1?$CStringT@DV?$StrTraitMFC_DLL@DV?$ChTraitsCRT@D@ATL@@@@@ATL@@QAE@XZ
  00164	e9 a0 03 00 00	 jmp	 $LN32@RestoreGap
$LN12@RestoreGap:

; 548  : 		return;
; 549  : 	}
; 550  : 
; 551  : 	//  Check
; 552  : 	CString strType;

  00169	8d 4d f0	 lea	 ecx, DWORD PTR _strType$[ebp]
  0016c	ff 15 00 00 00
	00		 call	 DWORD PTR __imp_??0?$CStringT@DV?$StrTraitMFC_DLL@DV?$ChTraitsCRT@D@ATL@@@@@ATL@@QAE@XZ

; 553  : 	szIStr = pTimePacket->GetType();

  00172	8b 03		 mov	 eax, DWORD PTR [ebx]
  00174	8b cb		 mov	 ecx, ebx
  00176	6a 01		 push	 1
  00178	c6 45 fc 05	 mov	 BYTE PTR __$EHRec$[ebp+8], 5
  0017c	ff 50 1c	 call	 DWORD PTR [eax+28]
  0017f	8b f8		 mov	 edi, eax
; File D:\git\src\IBK\IBK_DRFN\ProjSrc\SrcChartEx\ChartOCX\AddInManager\Include_AddIn\I000000\_IString.h

; 67   : 		if( m_pIStrData) m_pIStrData->Release();

  00181	8b 45 b0	 mov	 eax, DWORD PTR _szIStr$[ebp+4]
  00184	85 c0		 test	 eax, eax
  00186	74 06		 je	 SHORT $LN57@RestoreGap
  00188	8b 08		 mov	 ecx, DWORD PTR [eax]
  0018a	50		 push	 eax
  0018b	ff 51 08	 call	 DWORD PTR [ecx+8]
$LN57@RestoreGap:

; 68   : 		m_pIStrData = stringSrc;	// Do not AddRef(). Because It must be Return Value.

  0018e	89 7d b0	 mov	 DWORD PTR _szIStr$[ebp+4], edi
  00191	85 ff		 test	 edi, edi

; 69   : 		if( m_pIStrData) m_szData = m_pIStrData->GetData();

  00193	74 09		 je	 SHORT $LN58@RestoreGap
  00195	8b 07		 mov	 eax, DWORD PTR [edi]
  00197	8b cf		 mov	 ecx, edi
  00199	ff 50 10	 call	 DWORD PTR [eax+16]
  0019c	eb 02		 jmp	 SHORT $LN118@RestoreGap
$LN58@RestoreGap:

; 70   : 		else m_szData = NULL;

  0019e	33 c0		 xor	 eax, eax
$LN118@RestoreGap:
; File D:\git\src\IBK\IBK_DRFN\ProjSrc\SrcChartEx\ChartOCX\AddInManager\ChartCommonAddIn\GapRevisionAddInImp.cpp

; 554  : 	strType = (LPCTSTR)szIStr;

  001a0	50		 push	 eax
  001a1	8d 4d f0	 lea	 ecx, DWORD PTR _strType$[ebp]
  001a4	89 45 ac	 mov	 DWORD PTR _szIStr$[ebp], eax
  001a7	ff 15 00 00 00
	00		 call	 DWORD PTR __imp_??4?$CStringT@DV?$StrTraitMFC_DLL@DV?$ChTraitsCRT@D@ATL@@@@@ATL@@QAEAAV01@PBD@Z
; File C:\Program Files (x86)\Microsoft Visual Studio\2019\Community\VC\Tools\MSVC\14.29.30133\atlmfc\include\cstringt.h

; 2567 : 		return( str1.Compare( psz2 ) != 0 );

  001ad	68 00 00 00 00	 push	 OFFSET ??_C@_08JFMBEEDE@DDHHMMSS@
  001b2	8d 4d f0	 lea	 ecx, DWORD PTR _strType$[ebp]
  001b5	ff 15 00 00 00
	00		 call	 DWORD PTR __imp_?Compare@?$CStringT@DV?$StrTraitMFC_DLL@DV?$ChTraitsCRT@D@ATL@@@@@ATL@@QBEHPBD@Z
  001bb	85 c0		 test	 eax, eax
; File D:\git\src\IBK\IBK_DRFN\ProjSrc\SrcChartEx\ChartOCX\AddInManager\ChartCommonAddIn\GapRevisionAddInImp.cpp

; 555  : 	if( strType != "DDHHMMSS" && strType != "MMDDHHMM")

  001bd	74 23		 je	 SHORT $LN13@RestoreGap
; File C:\Program Files (x86)\Microsoft Visual Studio\2019\Community\VC\Tools\MSVC\14.29.30133\atlmfc\include\cstringt.h

; 2567 : 		return( str1.Compare( psz2 ) != 0 );

  001bf	68 00 00 00 00	 push	 OFFSET ??_C@_08KLIIINKM@MMDDHHMM@
  001c4	8d 4d f0	 lea	 ecx, DWORD PTR _strType$[ebp]
  001c7	ff 15 00 00 00
	00		 call	 DWORD PTR __imp_?Compare@?$CStringT@DV?$StrTraitMFC_DLL@DV?$ChTraitsCRT@D@ATL@@@@@ATL@@QBEHPBD@Z
  001cd	85 c0		 test	 eax, eax
; File D:\git\src\IBK\IBK_DRFN\ProjSrc\SrcChartEx\ChartOCX\AddInManager\ChartCommonAddIn\GapRevisionAddInImp.cpp

; 555  : 	if( strType != "DDHHMMSS" && strType != "MMDDHHMM")

  001cf	74 11		 je	 SHORT $LN13@RestoreGap

; 556  : 	{
; 557  : 		pTimePacket->Release();

  001d1	8b 03		 mov	 eax, DWORD PTR [ebx]
  001d3	53		 push	 ebx
  001d4	ff 50 08	 call	 DWORD PTR [eax+8]

; 558  : 		pPacketList->Release();

  001d7	8b 06		 mov	 eax, DWORD PTR [esi]
  001d9	56		 push	 esi
  001da	ff 50 08	 call	 DWORD PTR [eax+8]
  001dd	e9 0d 03 00 00	 jmp	 $LN22@RestoreGap
$LN13@RestoreGap:

; 563  : 	if( !m_mapRQGapInfo.Lookup( p_szRQ, pSTGapInfo))

  001e2	8b 45 b8	 mov	 eax, DWORD PTR _this$1$[ebp]
; File C:\Program Files (x86)\Microsoft Visual Studio\2019\Community\VC\Tools\MSVC\14.29.30133\atlmfc\include\afxtempl.h

; 2052 : 		{ return BASE_CLASS::Lookup(key, (typename BASE_CLASS::BASE_VALUE&)rValue); }

  001e5	8d 4d e0	 lea	 ecx, DWORD PTR _pSTGapInfo$[ebp]
  001e8	51		 push	 ecx
  001e9	ff 75 08	 push	 DWORD PTR _p_szRQ$[ebp]
; File D:\git\src\IBK\IBK_DRFN\ProjSrc\SrcChartEx\ChartOCX\AddInManager\ChartCommonAddIn\GapRevisionAddInImp.cpp

; 563  : 	if( !m_mapRQGapInfo.Lookup( p_szRQ, pSTGapInfo))

  001ec	83 c0 40	 add	 eax, 64			; 00000040H
  001ef	c7 45 e0 00 00
	00 00		 mov	 DWORD PTR _pSTGapInfo$[ebp], 0
; File C:\Program Files (x86)\Microsoft Visual Studio\2019\Community\VC\Tools\MSVC\14.29.30133\atlmfc\include\afxtempl.h

; 2052 : 		{ return BASE_CLASS::Lookup(key, (typename BASE_CLASS::BASE_VALUE&)rValue); }

  001f6	8b c8		 mov	 ecx, eax
; File D:\git\src\IBK\IBK_DRFN\ProjSrc\SrcChartEx\ChartOCX\AddInManager\ChartCommonAddIn\GapRevisionAddInImp.cpp

; 563  : 	if( !m_mapRQGapInfo.Lookup( p_szRQ, pSTGapInfo))

  001f8	89 45 b4	 mov	 DWORD PTR tv895[ebp], eax
; File C:\Program Files (x86)\Microsoft Visual Studio\2019\Community\VC\Tools\MSVC\14.29.30133\atlmfc\include\afxtempl.h

; 2052 : 		{ return BASE_CLASS::Lookup(key, (typename BASE_CLASS::BASE_VALUE&)rValue); }

  001fb	e8 00 00 00 00	 call	 ?Lookup@CMapStringToPtr@@QBEHPBDAAPAX@Z ; CMapStringToPtr::Lookup
; File D:\git\src\IBK\IBK_DRFN\ProjSrc\SrcChartEx\ChartOCX\AddInManager\ChartCommonAddIn\GapRevisionAddInImp.cpp

; 563  : 	if( !m_mapRQGapInfo.Lookup( p_szRQ, pSTGapInfo))

  00200	85 c0		 test	 eax, eax
  00202	75 11		 jne	 SHORT $LN14@RestoreGap

; 564  : 	{
; 565  : 		pTimePacket->Release();

  00204	8b 03		 mov	 eax, DWORD PTR [ebx]
  00206	53		 push	 ebx
  00207	ff 50 08	 call	 DWORD PTR [eax+8]

; 566  : 		pPacketList->Release();

  0020a	8b 06		 mov	 eax, DWORD PTR [esi]
  0020c	56		 push	 esi
  0020d	ff 50 08	 call	 DWORD PTR [eax+8]
  00210	e9 da 02 00 00	 jmp	 $LN22@RestoreGap
$LN14@RestoreGap:

; 567  : 		return;
; 568  : 	}
; 569  : 
; 570  : 	IPacket *pOpenPacket = pPacketList->GetPacket(_MTEXT( C0_OPEN));

  00215	a1 54 00 00 00	 mov	 eax, DWORD PTR ?g_iMetaTable@@3VIMetaTable@@A+84
  0021a	8b ce		 mov	 ecx, esi
  0021c	8b 16		 mov	 edx, DWORD PTR [esi]
  0021e	ff 70 08	 push	 DWORD PTR [eax+8]
  00221	ff 52 10	 call	 DWORD PTR [edx+16]

; 571  : 	IPacket *pHighPacket = pPacketList->GetPacket(_MTEXT( C0_HIGH));

  00224	8b 0d 54 00 00
	00		 mov	 ecx, DWORD PTR ?g_iMetaTable@@3VIMetaTable@@A+84
  0022a	8b 16		 mov	 edx, DWORD PTR [esi]
  0022c	89 45 d4	 mov	 DWORD PTR _pOpenPacket$1$[ebp], eax
  0022f	ff 71 0c	 push	 DWORD PTR [ecx+12]
  00232	8b ce		 mov	 ecx, esi
  00234	ff 52 10	 call	 DWORD PTR [edx+16]

; 572  : 	IPacket *pLowPacket = pPacketList->GetPacket(_MTEXT( C0_LOW));

  00237	8b 0d 54 00 00
	00		 mov	 ecx, DWORD PTR ?g_iMetaTable@@3VIMetaTable@@A+84
  0023d	8b 16		 mov	 edx, DWORD PTR [esi]
  0023f	89 45 d0	 mov	 DWORD PTR _pHighPacket$1$[ebp], eax
  00242	ff 71 10	 push	 DWORD PTR [ecx+16]
  00245	8b ce		 mov	 ecx, esi
  00247	ff 52 10	 call	 DWORD PTR [edx+16]

; 573  : 	IPacket *pClosePacket = pPacketList->GetPacket(_MTEXT( C0_CLOSE));

  0024a	8b 0d 54 00 00
	00		 mov	 ecx, DWORD PTR ?g_iMetaTable@@3VIMetaTable@@A+84
  00250	8b 16		 mov	 edx, DWORD PTR [esi]
  00252	89 45 cc	 mov	 DWORD PTR _pLowPacket$1$[ebp], eax
  00255	ff 71 14	 push	 DWORD PTR [ecx+20]
  00258	8b ce		 mov	 ecx, esi
  0025a	ff 52 10	 call	 DWORD PTR [edx+16]

; 574  : 	pPacketList->Release();

  0025d	8b 0e		 mov	 ecx, DWORD PTR [esi]
  0025f	8b d8		 mov	 ebx, eax
  00261	56		 push	 esi
  00262	89 5d e8	 mov	 DWORD PTR _pClosePacket$1$[ebp], ebx
  00265	ff 51 08	 call	 DWORD PTR [ecx+8]

; 575  : 	
; 576  : 	//--------------------------------------------------------
; 577  : 	//>>  
; 578  : 	double dTime, dOpen, dHigh, dLow, dClose;
; 579  : 	double dGap=0;
; 580  : 	BOOL bNeedCalcuate = FALSE;
; 581  : 
; 582  : 	int nCurIndx = pClosePacket->GetDataCount() - 1;

  00268	8b 03		 mov	 eax, DWORD PTR [ebx]
  0026a	0f 57 c0	 xorps	 xmm0, xmm0

; 583  : 	int nGapInfoIndx = 0;
; 584  : 	int nCurDay = 0, nNextDay = 0, nCurTime=0, nNextTime=0;

  0026d	33 f6		 xor	 esi, esi
  0026f	f2 0f 11 45 a4	 movsd	 QWORD PTR _dGap$1$[ebp], xmm0
  00274	8b cb		 mov	 ecx, ebx
  00276	89 75 e4	 mov	 DWORD PTR _nCurDay$1$[ebp], esi
  00279	33 ff		 xor	 edi, edi
  0027b	89 75 dc	 mov	 DWORD PTR _nCurTime$1$[ebp], esi
  0027e	ff 50 2c	 call	 DWORD PTR [eax+44]
  00281	8b d8		 mov	 ebx, eax
  00283	83 eb 01	 sub	 ebx, 1
  00286	89 5d c0	 mov	 DWORD PTR _nCurIndx$1$[ebp], ebx

; 585  : 	for(; nCurIndx >= 0; --nCurIndx)

  00289	0f 88 e4 01 00
	00		 js	 $LN3@RestoreGap

; 567  : 		return;
; 568  : 	}
; 569  : 
; 570  : 	IPacket *pOpenPacket = pPacketList->GetPacket(_MTEXT( C0_OPEN));

  0028f	c7 45 d8 01 00
	00 00		 mov	 DWORD PTR tv891[ebp], 1
$LL4@RestoreGap:

; 586  : 	{
; 587  : 		//    /  
; 588  : 		pTimePacket->GetData(nCurIndx, dTime);

  00296	8b 4d bc	 mov	 ecx, DWORD PTR _pTimePacket$1$[ebp]
  00299	8d 95 7c ff ff
	ff		 lea	 edx, DWORD PTR _dTime$[ebp]
  0029f	52		 push	 edx
  002a0	53		 push	 ebx
  002a1	8b 01		 mov	 eax, DWORD PTR [ecx]
  002a3	ff 50 40	 call	 DWORD PTR [eax+64]
; File C:\Program Files (x86)\Microsoft Visual Studio\2019\Community\VC\Tools\MSVC\14.29.30133\atlmfc\include\cstringt.h

; 2486 : 		return(str1.Compare(psz2) == 0);

  002a6	68 00 00 00 00	 push	 OFFSET ??_C@_08KLIIINKM@MMDDHHMM@
  002ab	8d 4d f0	 lea	 ecx, DWORD PTR _strType$[ebp]
  002ae	ff 15 00 00 00
	00		 call	 DWORD PTR __imp_?Compare@?$CStringT@DV?$StrTraitMFC_DLL@DV?$ChTraitsCRT@D@ATL@@@@@ATL@@QBEHPBD@Z
  002b4	85 c0		 test	 eax, eax
; File D:\git\src\IBK\IBK_DRFN\ProjSrc\SrcChartEx\ChartOCX\AddInManager\ChartCommonAddIn\GapRevisionAddInImp.cpp

; 589  : 		if(strType == "MMDDHHMM")

  002b6	75 1b		 jne	 SHORT $LN15@RestoreGap

; 590  : 		{
; 591  : 			nCurDay = (int)dTime/10000;

  002b8	f2 0f 2c 85 7c
	ff ff ff	 cvttsd2si eax, QWORD PTR _dTime$[ebp]
  002c0	b9 10 27 00 00	 mov	 ecx, 10000		; 00002710H
  002c5	99		 cdq
  002c6	f7 f9		 idiv	 ecx

; 592  : 			nCurTime = (int)dTime%10000 * 100;

  002c8	6b ca 64	 imul	 ecx, edx, 100
  002cb	89 45 e4	 mov	 DWORD PTR _nCurDay$1$[ebp], eax
  002ce	89 4d dc	 mov	 DWORD PTR _nCurTime$1$[ebp], ecx

; 593  : 		}

  002d1	eb 32		 jmp	 SHORT $LN17@RestoreGap
$LN15@RestoreGap:
; File C:\Program Files (x86)\Microsoft Visual Studio\2019\Community\VC\Tools\MSVC\14.29.30133\atlmfc\include\cstringt.h

; 2486 : 		return(str1.Compare(psz2) == 0);

  002d3	68 00 00 00 00	 push	 OFFSET ??_C@_08JFMBEEDE@DDHHMMSS@
  002d8	8d 4d f0	 lea	 ecx, DWORD PTR _strType$[ebp]
  002db	ff 15 00 00 00
	00		 call	 DWORD PTR __imp_?Compare@?$CStringT@DV?$StrTraitMFC_DLL@DV?$ChTraitsCRT@D@ATL@@@@@ATL@@QBEHPBD@Z
  002e1	85 c0		 test	 eax, eax
; File D:\git\src\IBK\IBK_DRFN\ProjSrc\SrcChartEx\ChartOCX\AddInManager\ChartCommonAddIn\GapRevisionAddInImp.cpp

; 594  : 		else if(strType == "DDHHMMSS")

  002e3	75 1a		 jne	 SHORT $LN114@RestoreGap

; 595  : 		{
; 596  : 			nCurDay = (int)dTime/1000000;

  002e5	f2 0f 2c 85 7c
	ff ff ff	 cvttsd2si eax, QWORD PTR _dTime$[ebp]
  002ed	b9 40 42 0f 00	 mov	 ecx, 1000000		; 000f4240H
  002f2	99		 cdq
  002f3	f7 f9		 idiv	 ecx
  002f5	8b ca		 mov	 ecx, edx
  002f7	89 45 e4	 mov	 DWORD PTR _nCurDay$1$[ebp], eax
  002fa	89 4d dc	 mov	 DWORD PTR _nCurTime$1$[ebp], ecx
  002fd	eb 06		 jmp	 SHORT $LN17@RestoreGap
$LN114@RestoreGap:

; 594  : 		else if(strType == "DDHHMMSS")

  002ff	8b 45 e4	 mov	 eax, DWORD PTR _nCurDay$1$[ebp]
  00302	8b 4d dc	 mov	 ecx, DWORD PTR _nCurTime$1$[ebp]
$LN17@RestoreGap:

; 597  : 			nCurTime = (int)dTime%1000000;
; 598  : 		}
; 599  : 
; 600  : 		if(nCurDay != nNextDay && nCurTime > nBaseTime)

  00305	3b c6		 cmp	 eax, esi
  00307	8b 75 e8	 mov	 esi, DWORD PTR _pClosePacket$1$[ebp]
  0030a	0f 84 86 00 00
	00		 je	 $LN19@RestoreGap
  00310	3b 4d c4	 cmp	 ecx, DWORD PTR _nBaseTime$1$[ebp]
  00313	0f 8e 7d 00 00
	00		 jle	 $LN19@RestoreGap

; 601  : 		{
; 602  : 			if(nCurIndx != (pClosePacket->GetDataCount()-1))

  00319	8b 06		 mov	 eax, DWORD PTR [esi]
  0031b	8b ce		 mov	 ecx, esi
  0031d	ff 50 2c	 call	 DWORD PTR [eax+44]
  00320	48		 dec	 eax
  00321	3b d8		 cmp	 ebx, eax
  00323	74 71		 je	 SHORT $LN19@RestoreGap

; 65   : 	if(nIndx == nInfoCount)

  00325	8b 4d d8	 mov	 ecx, DWORD PTR tv891[ebp]
  00328	0f 57 c0	 xorps	 xmm0, xmm0
  0032b	8b 5d e0	 mov	 ebx, DWORD PTR _pSTGapInfo$[ebp]
  0032e	8d 41 ff	 lea	 eax, DWORD PTR [ecx-1]
  00331	8b 7b 0c	 mov	 edi, DWORD PTR [ebx+12]
  00334	3b c7		 cmp	 eax, edi
  00336	75 13		 jne	 SHORT $LN82@RestoreGap

; 603  : 			{
; 604  : 				dGap = pSTGapInfo->GetGapInfo(nGapInfoIndx++);

  00338	8b 5d c0	 mov	 ebx, DWORD PTR _nCurIndx$1$[ebp]
  0033b	41		 inc	 ecx

; 66   : 		return 0.0;

  0033c	f2 0f 11 45 a4	 movsd	 QWORD PTR _dGap$1$[ebp], xmm0

; 605  : 				bNeedCalcuate = TRUE;

  00341	bf 01 00 00 00	 mov	 edi, 1
  00346	89 4d d8	 mov	 DWORD PTR tv891[ebp], ecx

; 606  : 			}
; 607  : 		}
; 608  : 
; 609  : 		if(bNeedCalcuate)

  00349	eb 53		 jmp	 SHORT $LN113@RestoreGap
$LN82@RestoreGap:

; 70   : 	int nInfoIndx = 0;

  0034b	33 d2		 xor	 edx, edx
  0034d	f2 0f 11 45 a4	 movsd	 QWORD PTR _dGap$1$[ebp], xmm0
  00352	8b f1		 mov	 esi, ecx

; 71   : 	while(nCount--)

  00354	85 c9		 test	 ecx, ecx
  00356	74 2d		 je	 SHORT $LN104@RestoreGap
$LL80@RestoreGap:
  00358	4e		 dec	 esi

; 73   : 		dGapInfo += m_arGapInfo.GetAt(m_arGapInfo.FindIndex(nInfoIndx));

  00359	8b ca		 mov	 ecx, edx
; File C:\Program Files (x86)\Microsoft Visual Studio\2019\Community\VC\Tools\MSVC\14.29.30133\atlmfc\include\afxtempl.h

; 1133 : 	if (nIndex >= m_nCount || nIndex < 0)

  0035b	3b d7		 cmp	 edx, edi
  0035d	7d 12		 jge	 SHORT $LN88@RestoreGap
  0035f	85 d2		 test	 edx, edx
  00361	78 0e		 js	 SHORT $LN88@RestoreGap

; 1135 : 
; 1136 : 	CNode* pNode = m_pNodeHead;

  00363	8b 43 04	 mov	 eax, DWORD PTR [ebx+4]

; 1137 : 	while (nIndex--)

  00366	74 0b		 je	 SHORT $LN84@RestoreGap
$LL85@RestoreGap:

; 1138 : 	{
; 1139 : 		ASSERT(AfxIsValidAddress(pNode, sizeof(CNode)));
; 1140 : 		pNode = pNode->pNext;

  00368	8b 00		 mov	 eax, DWORD PTR [eax]
  0036a	83 e9 01	 sub	 ecx, 1
  0036d	75 f9		 jne	 SHORT $LL85@RestoreGap

; 1141 : 	}
; 1142 : 	return (POSITION) pNode;

  0036f	eb 02		 jmp	 SHORT $LN84@RestoreGap
$LN88@RestoreGap:

; 1134 : 		return NULL;  // went too far

  00371	33 c0		 xor	 eax, eax
$LN84@RestoreGap:
; File D:\git\src\IBK\IBK_DRFN\ProjSrc\SrcChartEx\ChartOCX\AddInManager\ChartCommonAddIn\GapRevisionAddInImp.cpp

; 73   : 		dGapInfo += m_arGapInfo.GetAt(m_arGapInfo.FindIndex(nInfoIndx));

  00373	f2 0f 58 40 08	 addsd	 xmm0, QWORD PTR [eax+8]

; 74   : 		nInfoIndx++;

  00378	42		 inc	 edx
  00379	85 f6		 test	 esi, esi
  0037b	75 db		 jne	 SHORT $LL80@RestoreGap
  0037d	8b 4d d8	 mov	 ecx, DWORD PTR tv891[ebp]
  00380	f2 0f 11 45 a4	 movsd	 QWORD PTR _dGap$1$[ebp], xmm0
$LN104@RestoreGap:
  00385	8b 75 e8	 mov	 esi, DWORD PTR _pClosePacket$1$[ebp]

; 603  : 			{
; 604  : 				dGap = pSTGapInfo->GetGapInfo(nGapInfoIndx++);

  00388	41		 inc	 ecx

; 606  : 			}
; 607  : 		}
; 608  : 
; 609  : 		if(bNeedCalcuate)

  00389	8b 5d c0	 mov	 ebx, DWORD PTR _nCurIndx$1$[ebp]
  0038c	bf 01 00 00 00	 mov	 edi, 1
  00391	89 4d d8	 mov	 DWORD PTR tv891[ebp], ecx
  00394	eb 08		 jmp	 SHORT $LN113@RestoreGap
$LN19@RestoreGap:
  00396	85 ff		 test	 edi, edi
  00398	0f 84 c6 00 00
	00		 je	 $LN20@RestoreGap
$LN113@RestoreGap:

; 610  : 		{
; 611  : 			pOpenPacket->GetData(nCurIndx, dOpen);

  0039e	8b 4d d4	 mov	 ecx, DWORD PTR _pOpenPacket$1$[ebp]
  003a1	8d 55 9c	 lea	 edx, DWORD PTR _dOpen$[ebp]
  003a4	52		 push	 edx
  003a5	53		 push	 ebx
  003a6	8b 01		 mov	 eax, DWORD PTR [ecx]
  003a8	ff 50 40	 call	 DWORD PTR [eax+64]

; 612  : 			dOpen -= dGap;

  003ab	f2 0f 10 45 9c	 movsd	 xmm0, QWORD PTR _dOpen$[ebp]

; 613  : 			pHighPacket->GetData(nCurIndx, dHigh);

  003b0	8d 55 94	 lea	 edx, DWORD PTR _dHigh$[ebp]
  003b3	f2 0f 5c 45 a4	 subsd	 xmm0, QWORD PTR _dGap$1$[ebp]
  003b8	8b 4d d0	 mov	 ecx, DWORD PTR _pHighPacket$1$[ebp]
  003bb	52		 push	 edx
  003bc	53		 push	 ebx
  003bd	f2 0f 11 45 9c	 movsd	 QWORD PTR _dOpen$[ebp], xmm0
  003c2	8b 01		 mov	 eax, DWORD PTR [ecx]
  003c4	ff 50 40	 call	 DWORD PTR [eax+64]

; 614  : 			dHigh -= dGap;

  003c7	f2 0f 10 45 94	 movsd	 xmm0, QWORD PTR _dHigh$[ebp]

; 615  : 			pLowPacket->GetData(nCurIndx, dLow);

  003cc	8d 55 8c	 lea	 edx, DWORD PTR _dLow$[ebp]
  003cf	f2 0f 5c 45 a4	 subsd	 xmm0, QWORD PTR _dGap$1$[ebp]
  003d4	8b 4d cc	 mov	 ecx, DWORD PTR _pLowPacket$1$[ebp]
  003d7	52		 push	 edx
  003d8	53		 push	 ebx
  003d9	f2 0f 11 45 94	 movsd	 QWORD PTR _dHigh$[ebp], xmm0
  003de	8b 01		 mov	 eax, DWORD PTR [ecx]
  003e0	ff 50 40	 call	 DWORD PTR [eax+64]

; 616  : 			dLow -= dGap;

  003e3	f2 0f 10 45 8c	 movsd	 xmm0, QWORD PTR _dLow$[ebp]

; 617  : 			pClosePacket->GetData(nCurIndx, dClose);

  003e8	8d 4d 84	 lea	 ecx, DWORD PTR _dClose$[ebp]
  003eb	f2 0f 5c 45 a4	 subsd	 xmm0, QWORD PTR _dGap$1$[ebp]
  003f0	51		 push	 ecx
  003f1	53		 push	 ebx
  003f2	8b ce		 mov	 ecx, esi
  003f4	f2 0f 11 45 8c	 movsd	 QWORD PTR _dLow$[ebp], xmm0
  003f9	8b 06		 mov	 eax, DWORD PTR [esi]
  003fb	ff 50 40	 call	 DWORD PTR [eax+64]

; 618  : 			dClose -= dGap;

  003fe	f2 0f 10 45 84	 movsd	 xmm0, QWORD PTR _dClose$[ebp]

; 619  : 
; 620  : 			pOpenPacket->SetData(nCurIndx, dOpen);

  00403	83 ec 08	 sub	 esp, 8
  00406	f2 0f 5c 45 a4	 subsd	 xmm0, QWORD PTR _dGap$1$[ebp]
  0040b	8b 4d d4	 mov	 ecx, DWORD PTR _pOpenPacket$1$[ebp]
  0040e	f2 0f 11 45 84	 movsd	 QWORD PTR _dClose$[ebp], xmm0
  00413	f2 0f 10 45 9c	 movsd	 xmm0, QWORD PTR _dOpen$[ebp]
  00418	8b 01		 mov	 eax, DWORD PTR [ecx]
  0041a	f2 0f 11 04 24	 movsd	 QWORD PTR [esp], xmm0
  0041f	53		 push	 ebx
  00420	ff 50 48	 call	 DWORD PTR [eax+72]

; 621  : 			pHighPacket->SetData(nCurIndx, dHigh);

  00423	8b 4d d0	 mov	 ecx, DWORD PTR _pHighPacket$1$[ebp]
  00426	83 ec 08	 sub	 esp, 8
  00429	f2 0f 10 45 94	 movsd	 xmm0, QWORD PTR _dHigh$[ebp]
  0042e	8b 01		 mov	 eax, DWORD PTR [ecx]
  00430	f2 0f 11 04 24	 movsd	 QWORD PTR [esp], xmm0
  00435	53		 push	 ebx
  00436	ff 50 48	 call	 DWORD PTR [eax+72]

; 622  : 			pLowPacket->SetData(nCurIndx, dLow);

  00439	8b 4d cc	 mov	 ecx, DWORD PTR _pLowPacket$1$[ebp]
  0043c	83 ec 08	 sub	 esp, 8
  0043f	f2 0f 10 45 8c	 movsd	 xmm0, QWORD PTR _dLow$[ebp]
  00444	8b 01		 mov	 eax, DWORD PTR [ecx]
  00446	f2 0f 11 04 24	 movsd	 QWORD PTR [esp], xmm0
  0044b	53		 push	 ebx
  0044c	ff 50 48	 call	 DWORD PTR [eax+72]

; 623  : 			pClosePacket->SetData(nCurIndx, dClose);

  0044f	f2 0f 10 45 84	 movsd	 xmm0, QWORD PTR _dClose$[ebp]
  00454	83 ec 08	 sub	 esp, 8
  00457	8b 06		 mov	 eax, DWORD PTR [esi]
  00459	8b ce		 mov	 ecx, esi
  0045b	f2 0f 11 04 24	 movsd	 QWORD PTR [esp], xmm0
  00460	53		 push	 ebx
  00461	ff 50 48	 call	 DWORD PTR [eax+72]
$LN20@RestoreGap:

; 624  : 		}
; 625  : 
; 626  : 		nNextDay = nCurDay;

  00464	8b 75 e4	 mov	 esi, DWORD PTR _nCurDay$1$[ebp]
  00467	83 eb 01	 sub	 ebx, 1
  0046a	89 5d c0	 mov	 DWORD PTR _nCurIndx$1$[ebp], ebx
  0046d	0f 89 23 fe ff
	ff		 jns	 $LL4@RestoreGap
$LN3@RestoreGap:

; 627  : 		nNextTime = nCurTime;
; 628  : 	}
; 629  : 	//<<  
; 630  : 
; 631  : 	pTimePacket->Release();

  00473	8b 4d bc	 mov	 ecx, DWORD PTR _pTimePacket$1$[ebp]
  00476	51		 push	 ecx
  00477	8b 01		 mov	 eax, DWORD PTR [ecx]
  00479	ff 50 08	 call	 DWORD PTR [eax+8]

; 632  : 	pOpenPacket->Release();

  0047c	8b 4d d4	 mov	 ecx, DWORD PTR _pOpenPacket$1$[ebp]
  0047f	51		 push	 ecx
  00480	8b 01		 mov	 eax, DWORD PTR [ecx]
  00482	ff 50 08	 call	 DWORD PTR [eax+8]

; 633  : 	pHighPacket->Release();

  00485	8b 4d d0	 mov	 ecx, DWORD PTR _pHighPacket$1$[ebp]
  00488	51		 push	 ecx
  00489	8b 01		 mov	 eax, DWORD PTR [ecx]
  0048b	ff 50 08	 call	 DWORD PTR [eax+8]

; 634  : 	pLowPacket->Release();

  0048e	8b 4d cc	 mov	 ecx, DWORD PTR _pLowPacket$1$[ebp]
  00491	51		 push	 ecx
  00492	8b 01		 mov	 eax, DWORD PTR [ecx]
  00494	ff 50 08	 call	 DWORD PTR [eax+8]

; 635  : 	pClosePacket->Release();

  00497	8b 4d e8	 mov	 ecx, DWORD PTR _pClosePacket$1$[ebp]
  0049a	51		 push	 ecx
  0049b	8b 01		 mov	 eax, DWORD PTR [ecx]
  0049d	ff 50 08	 call	 DWORD PTR [eax+8]

; 636  : 	
; 637  : 	if(pSTGapInfo)

  004a0	8b 4d e0	 mov	 ecx, DWORD PTR _pSTGapInfo$[ebp]
  004a3	85 c9		 test	 ecx, ecx
  004a5	74 0e		 je	 SHORT $LN21@RestoreGap

; 638  : 	{
; 639  : 		delete pSTGapInfo;

  004a7	6a 01		 push	 1
  004a9	e8 00 00 00 00	 call	 ??_GST_GAP_INFO@@QAEPAXI@Z

; 640  : 		pSTGapInfo = NULL;

  004ae	c7 45 e0 00 00
	00 00		 mov	 DWORD PTR _pSTGapInfo$[ebp], 0
$LN21@RestoreGap:

; 641  : 	}
; 642  : 
; 643  : 	m_mapRQGapInfo.RemoveKey(p_szRQ);

  004b5	ff 75 08	 push	 DWORD PTR _p_szRQ$[ebp]
  004b8	8d 4d 08	 lea	 ecx, DWORD PTR $T3[ebp]
  004bb	ff 15 00 00 00
	00		 call	 DWORD PTR __imp_??0?$CStringT@DV?$StrTraitMFC_DLL@DV?$ChTraitsCRT@D@ATL@@@@@ATL@@QAE@PBD@Z
; File C:\Program Files (x86)\Microsoft Visual Studio\2019\Community\VC\Tools\MSVC\14.29.30133\atlmfc\include\afxtempl.h

; 2064 : 		{ return BASE_CLASS::RemoveKey(key); }

  004c1	ff 75 08	 push	 DWORD PTR $T3[ebp]
  004c4	8b 75 b4	 mov	 esi, DWORD PTR tv895[ebp]
  004c7	8b ce		 mov	 ecx, esi
  004c9	c6 45 fc 08	 mov	 BYTE PTR __$EHRec$[ebp+8], 8
  004cd	e8 00 00 00 00	 call	 ?RemoveKey@CMapStringToPtr@@QAEHPBD@Z ; CMapStringToPtr::RemoveKey
  004d2	8d 4d 08	 lea	 ecx, DWORD PTR $T3[ebp]
  004d5	c6 45 fc 05	 mov	 BYTE PTR __$EHRec$[ebp+8], 5
  004d9	ff 15 00 00 00
	00		 call	 DWORD PTR __imp_??1?$CStringT@DV?$StrTraitMFC_DLL@DV?$ChTraitsCRT@D@ATL@@@@@ATL@@QAE@XZ
; File D:\git\src\IBK\IBK_DRFN\ProjSrc\SrcChartEx\ChartOCX\AddInManager\ChartCommonAddIn\GapRevisionAddInImp.cpp

; 644  : 	if(m_mapRQGapInfo.GetCount() == 0)

  004df	8b 45 b8	 mov	 eax, DWORD PTR _this$1$[ebp]
  004e2	83 78 4c 00	 cmp	 DWORD PTR [eax+76], 0
  004e6	75 07		 jne	 SHORT $LN22@RestoreGap

; 645  : 		m_mapRQGapInfo.RemoveAll();

  004e8	8b ce		 mov	 ecx, esi
  004ea	e8 00 00 00 00	 call	 ?RemoveAll@CMapStringToPtr@@QAEXXZ ; CMapStringToPtr::RemoveAll
$LN22@RestoreGap:

; 646  : }

  004ef	8d 4d f0	 lea	 ecx, DWORD PTR _strType$[ebp]
  004f2	ff 15 00 00 00
	00		 call	 DWORD PTR __imp_??1?$CStringT@DV?$StrTraitMFC_DLL@DV?$ChTraitsCRT@D@ATL@@@@@ATL@@QAE@XZ
  004f8	8d 4d ec	 lea	 ecx, DWORD PTR _szMarketTime$[ebp]
  004fb	ff 15 00 00 00
	00		 call	 DWORD PTR __imp_??1?$CStringT@DV?$StrTraitMFC_DLL@DV?$ChTraitsCRT@D@ATL@@@@@ATL@@QAE@XZ
  00501	eb 06		 jmp	 SHORT $LN32@RestoreGap
$LN10@RestoreGap:

; 525  : 	{
; 526  : 		pPacketList->Release();

  00503	8b 06		 mov	 eax, DWORD PTR [esi]
  00505	56		 push	 esi
  00506	ff 50 08	 call	 DWORD PTR [eax+8]
$LN32@RestoreGap:
; File D:\git\src\IBK\IBK_DRFN\ProjSrc\SrcChartEx\ChartOCX\AddInManager\Include_AddIn\I000000\_IString.h

; 45   : 		if( m_pIStrData)

  00509	8b 4d b0	 mov	 ecx, DWORD PTR _szIStr$[ebp+4]
  0050c	c6 45 fc 09	 mov	 BYTE PTR __$EHRec$[ebp+8], 9
  00510	85 c9		 test	 ecx, ecx
  00512	74 14		 je	 SHORT $LN96@RestoreGap

; 46   : 		{
; 47   : 			m_pIStrData->Release();

  00514	8b 01		 mov	 eax, DWORD PTR [ecx]
  00516	51		 push	 ecx
  00517	ff 50 08	 call	 DWORD PTR [eax+8]

; 48   : 			m_pIStrData = NULL;

  0051a	c7 45 b0 00 00
	00 00		 mov	 DWORD PTR _szIStr$[ebp+4], 0

; 49   : 			m_szData = NULL;

  00521	c7 45 ac 00 00
	00 00		 mov	 DWORD PTR _szIStr$[ebp], 0
$LN96@RestoreGap:
; File D:\git\src\IBK\IBK_DRFN\ProjSrc\SrcChartEx\ChartOCX\AddInManager\ChartCommonAddIn\GapRevisionAddInImp.cpp

; 646  : }

  00528	8d 4d c8	 lea	 ecx, DWORD PTR _szMarketType$[ebp]
  0052b	ff 15 00 00 00
	00		 call	 DWORD PTR __imp_??1?$CStringT@DV?$StrTraitMFC_DLL@DV?$ChTraitsCRT@D@ATL@@@@@ATL@@QAE@XZ
$LN6@RestoreGap:
  00531	8b 4d f4	 mov	 ecx, DWORD PTR __$EHRec$[ebp]
  00534	64 89 0d 00 00
	00 00		 mov	 DWORD PTR fs:0, ecx
  0053b	59		 pop	 ecx
  0053c	5f		 pop	 edi
  0053d	5e		 pop	 esi
  0053e	5b		 pop	 ebx
  0053f	8b e5		 mov	 esp, ebp
  00541	5d		 pop	 ebp
  00542	c2 04 00	 ret	 4
_TEXT	ENDS
;	COMDAT text$x
text$x	SEGMENT
__unwindfunclet$?RestoreGapRevision@CGapRevisionAddInImp@@MAEXPBD@Z$0:
  00000	8d 4d c8	 lea	 ecx, DWORD PTR _szMarketType$[ebp]
  00003	ff 25 00 00 00
	00		 jmp	 DWORD PTR __imp_??1?$CStringT@DV?$StrTraitMFC_DLL@DV?$ChTraitsCRT@D@ATL@@@@@ATL@@QAE@XZ
__unwindfunclet$?RestoreGapRevision@CGapRevisionAddInImp@@MAEXPBD@Z$1:
  00009	8d 4d ac	 lea	 ecx, DWORD PTR _szIStr$[ebp]
  0000c	e9 00 00 00 00	 jmp	 ??1ILPCSTR000000@@QAE@XZ ; ILPCSTR000000::~ILPCSTR000000
__unwindfunclet$?RestoreGapRevision@CGapRevisionAddInImp@@MAEXPBD@Z$2:
  00011	8d 4d ec	 lea	 ecx, DWORD PTR _szMarketTime$[ebp]
  00014	ff 25 00 00 00
	00		 jmp	 DWORD PTR __imp_??1?$CStringT@DV?$StrTraitMFC_DLL@DV?$ChTraitsCRT@D@ATL@@@@@ATL@@QAE@XZ
__unwindfunclet$?RestoreGapRevision@CGapRevisionAddInImp@@MAEXPBD@Z$4:
  0001a	8d 4d f0	 lea	 ecx, DWORD PTR _strType$[ebp]
  0001d	ff 25 00 00 00
	00		 jmp	 DWORD PTR __imp_??1?$CStringT@DV?$StrTraitMFC_DLL@DV?$ChTraitsCRT@D@ATL@@@@@ATL@@QAE@XZ
__unwindfunclet$?RestoreGapRevision@CGapRevisionAddInImp@@MAEXPBD@Z$10:
  00023	8d 4d 08	 lea	 ecx, DWORD PTR $T3[ebp]
  00026	ff 25 00 00 00
	00		 jmp	 DWORD PTR __imp_??1?$CStringT@DV?$StrTraitMFC_DLL@DV?$ChTraitsCRT@D@ATL@@@@@ATL@@QAE@XZ
  0002c	cc		 int	 3
  0002d	cc		 int	 3
  0002e	cc		 int	 3
  0002f	cc		 int	 3
  00030	cc		 int	 3
__ehhandler$?RestoreGapRevision@CGapRevisionAddInImp@@MAEXPBD@Z:
  00031	90		 npad	 1
  00032	90		 npad	 1
  00033	8b 54 24 08	 mov	 edx, DWORD PTR [esp+8]
  00037	8d 42 0c	 lea	 eax, DWORD PTR [edx+12]
  0003a	8b 8a 78 ff ff
	ff		 mov	 ecx, DWORD PTR [edx-136]
  00040	33 c8		 xor	 ecx, eax
  00042	e8 00 00 00 00	 call	 @__security_check_cookie@4
  00047	b8 00 00 00 00	 mov	 eax, OFFSET __ehfuncinfo$?RestoreGapRevision@CGapRevisionAddInImp@@MAEXPBD@Z
  0004c	e9 00 00 00 00	 jmp	 ___CxxFrameHandler3
text$x	ENDS
?RestoreGapRevision@CGapRevisionAddInImp@@MAEXPBD@Z ENDP ; CGapRevisionAddInImp::RestoreGapRevision
; Function compile flags: /Ogtp
; File D:\git\src\IBK\IBK_DRFN\ProjSrc\SrcChartEx\ChartOCX\AddInManager\ChartCommonAddIn\GapRevisionAddInImp.cpp
; File D:\git\src\IBK\IBK_DRFN\ProjSrc\SrcChartEx\ChartOCX\AddInManager\Include_AddIn\I000000\_IString.h
; File D:\git\src\IBK\IBK_DRFN\ProjSrc\SrcChartEx\ChartOCX\AddInManager\ChartCommonAddIn\GapRevisionAddInImp.cpp
; File C:\Program Files (x86)\Microsoft Visual Studio\2019\Community\VC\Tools\MSVC\14.29.30133\atlmfc\include\atlsimpstr.h
; File D:\git\src\IBK\IBK_DRFN\ProjSrc\SrcChartEx\ChartOCX\AddInManager\ChartCommonAddIn\GapRevisionAddInImp.cpp
; File D:\git\src\IBK\IBK_DRFN\ProjSrc\SrcChartEx\ChartOCX\AddInManager\Include_AddIn\I000000\_IString.h
; File D:\git\src\IBK\IBK_DRFN\ProjSrc\SrcChartEx\ChartOCX\AddInManager\ChartCommonAddIn\GapRevisionAddInImp.cpp
; File D:\git\src\IBK\IBK_DRFN\ProjSrc\SrcChartEx\ChartOCX\AddInManager\Include_AddIn\I000000\_IString.h
; File D:\git\src\IBK\IBK_DRFN\ProjSrc\SrcChartEx\ChartOCX\AddInManager\ChartCommonAddIn\GapRevisionAddInImp.cpp
; File C:\Program Files (x86)\Microsoft Visual Studio\2019\Community\VC\Tools\MSVC\14.29.30133\atlmfc\include\cstringt.h
; File D:\git\src\IBK\IBK_DRFN\ProjSrc\SrcChartEx\ChartOCX\AddInManager\ChartCommonAddIn\GapRevisionAddInImp.cpp
; File C:\Program Files (x86)\Microsoft Visual Studio\2019\Community\VC\Tools\MSVC\14.29.30133\atlmfc\include\cstringt.h
; File D:\git\src\IBK\IBK_DRFN\ProjSrc\SrcChartEx\ChartOCX\AddInManager\ChartCommonAddIn\GapRevisionAddInImp.cpp
; File C:\Program Files (x86)\Microsoft Visual Studio\2019\Community\VC\Tools\MSVC\14.29.30133\atlmfc\include\afxtempl.h
; File D:\git\src\IBK\IBK_DRFN\ProjSrc\SrcChartEx\ChartOCX\AddInManager\ChartCommonAddIn\GapRevisionAddInImp.cpp
; File C:\Program Files (x86)\Microsoft Visual Studio\2019\Community\VC\Tools\MSVC\14.29.30133\atlmfc\include\afxtempl.h
; File D:\git\src\IBK\IBK_DRFN\ProjSrc\SrcChartEx\ChartOCX\AddInManager\ChartCommonAddIn\GapRevisionAddInImp.cpp
; File C:\Program Files (x86)\Microsoft Visual Studio\2019\Community\VC\Tools\MSVC\14.29.30133\atlmfc\include\cstringt.h
; File D:\git\src\IBK\IBK_DRFN\ProjSrc\SrcChartEx\ChartOCX\AddInManager\ChartCommonAddIn\GapRevisionAddInImp.cpp
; File C:\Program Files (x86)\Microsoft Visual Studio\2019\Community\VC\Tools\MSVC\14.29.30133\atlmfc\include\cstringt.h
; File D:\git\src\IBK\IBK_DRFN\ProjSrc\SrcChartEx\ChartOCX\AddInManager\ChartCommonAddIn\GapRevisionAddInImp.cpp
; File C:\Program Files (x86)\Microsoft Visual Studio\2019\Community\VC\Tools\MSVC\14.29.30133\atlmfc\include\afxtempl.h
; File D:\git\src\IBK\IBK_DRFN\ProjSrc\SrcChartEx\ChartOCX\AddInManager\ChartCommonAddIn\GapRevisionAddInImp.cpp
; File C:\Program Files (x86)\Microsoft Visual Studio\2019\Community\VC\Tools\MSVC\14.29.30133\atlmfc\include\afxtempl.h
; File D:\git\src\IBK\IBK_DRFN\ProjSrc\SrcChartEx\ChartOCX\AddInManager\ChartCommonAddIn\GapRevisionAddInImp.cpp
; File C:\Program Files (x86)\Microsoft Visual Studio\2019\Community\VC\Tools\MSVC\14.29.30133\atlmfc\include\afxtempl.h
; File D:\git\src\IBK\IBK_DRFN\ProjSrc\SrcChartEx\ChartOCX\AddInManager\ChartCommonAddIn\GapRevisionAddInImp.cpp
; File C:\Program Files (x86)\Microsoft Visual Studio\2019\Community\VC\Tools\MSVC\14.29.30133\atlmfc\include\afxtempl.h
; File D:\git\src\IBK\IBK_DRFN\ProjSrc\SrcChartEx\ChartOCX\AddInManager\ChartCommonAddIn\GapRevisionAddInImp.cpp
; File C:\Program Files (x86)\Microsoft Visual Studio\2019\Community\VC\Tools\MSVC\14.29.30133\atlmfc\include\afxtempl.h
; File D:\git\src\IBK\IBK_DRFN\ProjSrc\SrcChartEx\ChartOCX\AddInManager\ChartCommonAddIn\GapRevisionAddInImp.cpp
; File C:\Program Files (x86)\Microsoft Visual Studio\2019\Community\VC\Tools\MSVC\14.29.30133\atlmfc\include\afxtempl.h
; File D:\git\src\IBK\IBK_DRFN\ProjSrc\SrcChartEx\ChartOCX\AddInManager\ChartCommonAddIn\GapRevisionAddInImp.cpp
; File D:\git\src\IBK\IBK_DRFN\ProjSrc\SrcChartEx\ChartOCX\AddInManager\Include_AddIn\I000000\_IString.h
; File D:\git\src\IBK\IBK_DRFN\ProjSrc\SrcChartEx\ChartOCX\AddInManager\ChartCommonAddIn\GapRevisionAddInImp.cpp
;	COMDAT ?CalcGapRevisionReal@CGapRevisionAddInImp@@MAEXPBD@Z
_TEXT	SEGMENT
_dPrevTime$ = -140					; size = 8
_dCurTime$ = -132					; size = 8
_dClose$ = -124						; size = 8
_dLow$ = -116						; size = 8
_dHigh$ = -108						; size = 8
_dOpen$ = -100						; size = 8
_szIStr$ = -92						; size = 8
_pTimePacket$1$ = -84					; size = 4
_this$1$ = -80						; size = 4
_this$1$ = -80						; size = 4
_nPrevDay$1$ = -80					; size = 4
tv862 = -80						; size = 4
_this$1$ = -76						; size = 4
_dGap$1$ = -72						; size = 8
_stringSrc$1$ = -68					; size = 4
_nCurIndx$1$ = -68					; size = 4
_szMarketType$ = -64					; size = 4
_dOpenData$2 = -60					; size = 8
_dOpenData$3 = -60					; size = 8
_bNeedCalcuate$1$ = -56					; size = 4
_strStartTime$4 = -56					; size = 4
_dCloseData$5 = -52					; size = 8
_dCloseData$6 = -52					; size = 8
_nBaseTime$1$ = -48					; size = 4
_nPrevTime$1$ = -44					; size = 4
tv857 = -44						; size = 4
_pLowPacket$1$ = -40					; size = 4
_pHighPacket$1$ = -36					; size = 4
_pOpenPacket$1$ = -32					; size = 4
_nPrevIndx$1$ = -28					; size = 4
_nCurDay$1$ = -24					; size = 4
_szMarketTime$ = -20					; size = 4
_strType$ = -16						; size = 4
__$EHRec$ = -12						; size = 12
_nPrevTime$ = 8						; size = 4
_nPrevDay$ = 8						; size = 4
_nCurTime$ = 8						; size = 4
_nCurDay$ = 8						; size = 4
_pSTGapInfo$ = 8					; size = 4
_p_szRQ$ = 8						; size = 4
?CalcGapRevisionReal@CGapRevisionAddInImp@@MAEXPBD@Z PROC ; CGapRevisionAddInImp::CalcGapRevisionReal, COMDAT
; _this$ = ecx

; 649  : {

  00000	55		 push	 ebp
  00001	8b ec		 mov	 ebp, esp
  00003	6a ff		 push	 -1
  00005	68 00 00 00 00	 push	 __ehhandler$?CalcGapRevisionReal@CGapRevisionAddInImp@@MAEXPBD@Z
  0000a	64 a1 00 00 00
	00		 mov	 eax, DWORD PTR fs:0
  00010	50		 push	 eax
  00011	81 ec 80 00 00
	00		 sub	 esp, 128		; 00000080H
  00017	53		 push	 ebx
  00018	56		 push	 esi
  00019	57		 push	 edi
  0001a	a1 00 00 00 00	 mov	 eax, DWORD PTR ___security_cookie
  0001f	33 c5		 xor	 eax, ebp
  00021	50		 push	 eax
  00022	8d 45 f4	 lea	 eax, DWORD PTR __$EHRec$[ebp]
  00025	64 a3 00 00 00
	00		 mov	 DWORD PTR fs:0, eax
  0002b	8b c1		 mov	 eax, ecx
  0002d	89 45 b4	 mov	 DWORD PTR _this$1$[ebp], eax

; 650  : 	if( !m_bUseGapRevision || !p_szRQ || !*p_szRQ) return;

  00030	83 78 5c 00	 cmp	 DWORD PTR [eax+92], 0
  00034	0f 84 80 05 00
	00		 je	 $LN6@CalcGapRev
  0003a	8b 5d 08	 mov	 ebx, DWORD PTR _p_szRQ$[ebp]
  0003d	85 db		 test	 ebx, ebx
  0003f	0f 84 75 05 00
	00		 je	 $LN6@CalcGapRev
  00045	80 3b 00	 cmp	 BYTE PTR [ebx], 0
  00048	0f 84 6c 05 00
	00		 je	 $LN6@CalcGapRev

; 651  : 	
; 652  : 	IPacketManager *pPacketList = m_pIPacketListManager->GetPacketManager( p_szRQ);

  0004e	8b 48 1c	 mov	 ecx, DWORD PTR [eax+28]
  00051	53		 push	 ebx
  00052	8b 01		 mov	 eax, DWORD PTR [ecx]
  00054	ff 50 10	 call	 DWORD PTR [eax+16]
  00057	8b f0		 mov	 esi, eax

; 653  : 	if( !pPacketList) return;

  00059	85 f6		 test	 esi, esi
  0005b	0f 84 59 05 00
	00		 je	 $LN6@CalcGapRev

; 654  : 	
; 655  : 	//--------------------------------------------------------
; 656  : 	//>> CME(1),COBT(2)    
; 657  : 	CString szMarketType;

  00061	8d 4d c0	 lea	 ecx, DWORD PTR _szMarketType$[ebp]
  00064	ff 15 00 00 00
	00		 call	 DWORD PTR __imp_??0?$CStringT@DV?$StrTraitMFC_DLL@DV?$ChTraitsCRT@D@ATL@@@@@ATL@@QAE@XZ
  0006a	c7 45 fc 00 00
	00 00		 mov	 DWORD PTR __$EHRec$[ebp+8], 0
; File D:\git\src\IBK\IBK_DRFN\ProjSrc\SrcChartEx\ChartOCX\AddInManager\Include_AddIn\I000000\_IString.h

; 39   : 		m_pIStrData = p_pIString;	// Do not AddRef(). Because It must be Return Value.

  00071	c7 45 a8 00 00
	00 00		 mov	 DWORD PTR _szIStr$[ebp+4], 0

; 40   : 		if( m_pIStrData) m_szData = m_pIStrData->GetData();
; 41   : 		else m_szData = NULL;

  00078	c7 45 a4 00 00
	00 00		 mov	 DWORD PTR _szIStr$[ebp], 0
; File D:\git\src\IBK\IBK_DRFN\ProjSrc\SrcChartEx\ChartOCX\AddInManager\ChartCommonAddIn\GapRevisionAddInImp.cpp

; 659  : 	pPacketList->GetHelpMessageItem( HELP_MSG_MARKETTYPE, szIStr);

  0007f	8b 06		 mov	 eax, DWORD PTR [esi]
  00081	8d 4d a4	 lea	 ecx, DWORD PTR _szIStr$[ebp]
  00084	51		 push	 ecx
  00085	68 00 00 00 00	 push	 OFFSET ??_C@_0L@MLIHGNMC@MARKETTYPE@
  0008a	8b ce		 mov	 ecx, esi
  0008c	c6 45 fc 01	 mov	 BYTE PTR __$EHRec$[ebp+8], 1
  00090	ff 50 18	 call	 DWORD PTR [eax+24]

; 660  : 	szMarketType = szIStr;

  00093	ff 75 a4	 push	 DWORD PTR _szIStr$[ebp]
  00096	8d 4d c0	 lea	 ecx, DWORD PTR _szMarketType$[ebp]
  00099	ff 15 00 00 00
	00		 call	 DWORD PTR __imp_??4?$CStringT@DV?$StrTraitMFC_DLL@DV?$ChTraitsCRT@D@ATL@@@@@ATL@@QAEAAV01@PBD@Z

; 661  : 	int nMarketType = atoi(szMarketType);

  0009f	ff 75 c0	 push	 DWORD PTR _szMarketType$[ebp]
  000a2	8b 3d 00 00 00
	00		 mov	 edi, DWORD PTR __imp__atoi
  000a8	ff d7		 call	 edi
  000aa	83 c4 04	 add	 esp, 4

; 662  : 	
; 663  : 	if( nMarketType == 1 || nMarketType == 2)

  000ad	83 f8 01	 cmp	 eax, 1
  000b0	0f 84 d6 04 00
	00		 je	 $LN9@CalcGapRev
  000b6	83 f8 02	 cmp	 eax, 2
  000b9	0f 84 cd 04 00
	00		 je	 $LN9@CalcGapRev

; 666  : 		return;
; 667  : 	}
; 668  : 	//<< CME(1),COBT(2)    
; 669  : 	
; 670  : 	// Market BaseTime 
; 671  : 	CString szMarketTime;

  000bf	8d 4d ec	 lea	 ecx, DWORD PTR _szMarketTime$[ebp]
  000c2	ff 15 00 00 00
	00		 call	 DWORD PTR __imp_??0?$CStringT@DV?$StrTraitMFC_DLL@DV?$ChTraitsCRT@D@ATL@@@@@ATL@@QAE@XZ

; 672  : 	pPacketList->GetHelpMessageItem( HELP_MSG_MARKETTIME, szIStr);

  000c8	8b 06		 mov	 eax, DWORD PTR [esi]
  000ca	8d 4d a4	 lea	 ecx, DWORD PTR _szIStr$[ebp]
  000cd	51		 push	 ecx
  000ce	68 00 00 00 00	 push	 OFFSET ??_C@_0L@IPGAAKHO@MARKETTIME@
  000d3	8b ce		 mov	 ecx, esi
  000d5	c6 45 fc 03	 mov	 BYTE PTR __$EHRec$[ebp+8], 3
  000d9	ff 50 18	 call	 DWORD PTR [eax+24]

; 673  : 	szMarketTime = szIStr;

  000dc	ff 75 a4	 push	 DWORD PTR _szIStr$[ebp]
  000df	8d 4d ec	 lea	 ecx, DWORD PTR _szMarketTime$[ebp]
  000e2	ff 15 00 00 00
	00		 call	 DWORD PTR __imp_??4?$CStringT@DV?$StrTraitMFC_DLL@DV?$ChTraitsCRT@D@ATL@@@@@ATL@@QAEAAV01@PBD@Z
; File C:\Program Files (x86)\Microsoft Visual Studio\2019\Community\VC\Tools\MSVC\14.29.30133\atlmfc\include\atlsimpstr.h

; 519  : 		return( GetData()->nDataLength );

  000e8	8b 45 ec	 mov	 eax, DWORD PTR _szMarketTime$[ebp]
; File D:\git\src\IBK\IBK_DRFN\ProjSrc\SrcChartEx\ChartOCX\AddInManager\ChartCommonAddIn\GapRevisionAddInImp.cpp

; 675  : 	int nBaseTime = 240000;

  000eb	c7 45 d0 80 a9
	03 00		 mov	 DWORD PTR _nBaseTime$1$[ebp], 240000 ; 0003a980H

; 676  : 	if(szMarketTime.GetLength() >= 5 && szMarketTime.Find("|") > 0)

  000f2	83 78 f4 05	 cmp	 DWORD PTR [eax-12], 5
  000f6	7c 48		 jl	 SHORT $LN10@CalcGapRev
  000f8	6a 00		 push	 0
  000fa	68 00 00 00 00	 push	 OFFSET ??_C@_01DNKMNLPK@?$HM@
  000ff	8d 4d ec	 lea	 ecx, DWORD PTR _szMarketTime$[ebp]
  00102	ff 15 00 00 00
	00		 call	 DWORD PTR __imp_?Find@?$CStringT@DV?$StrTraitMFC_DLL@DV?$ChTraitsCRT@D@ATL@@@@@ATL@@QBEHPBDH@Z
  00108	85 c0		 test	 eax, eax
  0010a	7e 34		 jle	 SHORT $LN10@CalcGapRev

; 677  : 	{
; 678  : 		CString strStartTime = szMarketTime.Mid(0, szMarketTime.Find("|"));

  0010c	6a 00		 push	 0
  0010e	68 00 00 00 00	 push	 OFFSET ??_C@_01DNKMNLPK@?$HM@
  00113	8d 4d ec	 lea	 ecx, DWORD PTR _szMarketTime$[ebp]
  00116	ff 15 00 00 00
	00		 call	 DWORD PTR __imp_?Find@?$CStringT@DV?$StrTraitMFC_DLL@DV?$ChTraitsCRT@D@ATL@@@@@ATL@@QBEHPBDH@Z
  0011c	50		 push	 eax
  0011d	6a 00		 push	 0
  0011f	8d 45 c8	 lea	 eax, DWORD PTR _strStartTime$4[ebp]
  00122	50		 push	 eax
  00123	8d 4d ec	 lea	 ecx, DWORD PTR _szMarketTime$[ebp]
  00126	ff 15 00 00 00
	00		 call	 DWORD PTR __imp_?Mid@?$CStringT@DV?$StrTraitMFC_DLL@DV?$ChTraitsCRT@D@ATL@@@@@ATL@@QBE?AV12@HH@Z

; 679  : 		nBaseTime = atoi(strStartTime);

  0012c	ff 75 c8	 push	 DWORD PTR _strStartTime$4[ebp]
  0012f	ff d7		 call	 edi
  00131	83 c4 04	 add	 esp, 4
  00134	89 45 d0	 mov	 DWORD PTR _nBaseTime$1$[ebp], eax

; 680  : 	}

  00137	8d 4d c8	 lea	 ecx, DWORD PTR _strStartTime$4[ebp]
  0013a	ff 15 00 00 00
	00		 call	 DWORD PTR __imp_??1?$CStringT@DV?$StrTraitMFC_DLL@DV?$ChTraitsCRT@D@ATL@@@@@ATL@@QAE@XZ
$LN10@CalcGapRev:

; 681  : 	
; 682  : 	// RQ  
; 683  : 	IPacket *pTimePacket = pPacketList->GetPacket(_MTEXT( C0_DATE_TIME));

  00140	8b 0d 54 00 00
	00		 mov	 ecx, DWORD PTR ?g_iMetaTable@@3VIMetaTable@@A+84
  00146	8b 16		 mov	 edx, DWORD PTR [esi]
  00148	ff 31		 push	 DWORD PTR [ecx]
  0014a	8b ce		 mov	 ecx, esi
  0014c	ff 52 10	 call	 DWORD PTR [edx+16]
  0014f	8b f8		 mov	 edi, eax
  00151	89 7d ac	 mov	 DWORD PTR _pTimePacket$1$[ebp], edi

; 684  : 	if( !pTimePacket)

  00154	85 ff		 test	 edi, edi
  00156	75 14		 jne	 SHORT $LN11@CalcGapRev

; 685  : 	{
; 686  : 		pPacketList->Release();

  00158	8b 06		 mov	 eax, DWORD PTR [esi]
  0015a	56		 push	 esi
  0015b	ff 50 08	 call	 DWORD PTR [eax+8]

; 814  : }

  0015e	8d 4d ec	 lea	 ecx, DWORD PTR _szMarketTime$[ebp]
  00161	ff 15 00 00 00
	00		 call	 DWORD PTR __imp_??1?$CStringT@DV?$StrTraitMFC_DLL@DV?$ChTraitsCRT@D@ATL@@@@@ATL@@QAE@XZ
  00167	e9 26 04 00 00	 jmp	 $LN31@CalcGapRev
$LN11@CalcGapRev:

; 687  : 		return;
; 688  : 	}
; 689  : 	
; 690  : 	//  Check
; 691  : 	CString strType;

  0016c	8d 4d f0	 lea	 ecx, DWORD PTR _strType$[ebp]
  0016f	ff 15 00 00 00
	00		 call	 DWORD PTR __imp_??0?$CStringT@DV?$StrTraitMFC_DLL@DV?$ChTraitsCRT@D@ATL@@@@@ATL@@QAE@XZ

; 692  : 	szIStr = pTimePacket->GetType();

  00175	8b 07		 mov	 eax, DWORD PTR [edi]
  00177	8b cf		 mov	 ecx, edi
  00179	6a 01		 push	 1
  0017b	c6 45 fc 05	 mov	 BYTE PTR __$EHRec$[ebp+8], 5
  0017f	ff 50 1c	 call	 DWORD PTR [eax+28]
  00182	8b c8		 mov	 ecx, eax
; File D:\git\src\IBK\IBK_DRFN\ProjSrc\SrcChartEx\ChartOCX\AddInManager\Include_AddIn\I000000\_IString.h

; 67   : 		if( m_pIStrData) m_pIStrData->Release();

  00184	8b 45 a8	 mov	 eax, DWORD PTR _szIStr$[ebp+4]
; File D:\git\src\IBK\IBK_DRFN\ProjSrc\SrcChartEx\ChartOCX\AddInManager\ChartCommonAddIn\GapRevisionAddInImp.cpp

; 692  : 	szIStr = pTimePacket->GetType();

  00187	89 4d bc	 mov	 DWORD PTR _stringSrc$1$[ebp], ecx
; File D:\git\src\IBK\IBK_DRFN\ProjSrc\SrcChartEx\ChartOCX\AddInManager\Include_AddIn\I000000\_IString.h

; 67   : 		if( m_pIStrData) m_pIStrData->Release();

  0018a	85 c0		 test	 eax, eax
  0018c	74 09		 je	 SHORT $LN58@CalcGapRev
  0018e	8b 08		 mov	 ecx, DWORD PTR [eax]
  00190	50		 push	 eax
  00191	ff 51 08	 call	 DWORD PTR [ecx+8]
  00194	8b 4d bc	 mov	 ecx, DWORD PTR _stringSrc$1$[ebp]
$LN58@CalcGapRev:

; 68   : 		m_pIStrData = stringSrc;	// Do not AddRef(). Because It must be Return Value.

  00197	89 4d a8	 mov	 DWORD PTR _szIStr$[ebp+4], ecx
  0019a	85 c9		 test	 ecx, ecx

; 69   : 		if( m_pIStrData) m_szData = m_pIStrData->GetData();

  0019c	74 07		 je	 SHORT $LN59@CalcGapRev
  0019e	8b 01		 mov	 eax, DWORD PTR [ecx]
  001a0	ff 50 10	 call	 DWORD PTR [eax+16]
  001a3	eb 02		 jmp	 SHORT $LN123@CalcGapRev
$LN59@CalcGapRev:

; 70   : 		else m_szData = NULL;

  001a5	33 c0		 xor	 eax, eax
$LN123@CalcGapRev:
; File D:\git\src\IBK\IBK_DRFN\ProjSrc\SrcChartEx\ChartOCX\AddInManager\ChartCommonAddIn\GapRevisionAddInImp.cpp

; 693  : 	strType = (LPCTSTR)szIStr;

  001a7	50		 push	 eax
  001a8	8d 4d f0	 lea	 ecx, DWORD PTR _strType$[ebp]
  001ab	89 45 a4	 mov	 DWORD PTR _szIStr$[ebp], eax
  001ae	ff 15 00 00 00
	00		 call	 DWORD PTR __imp_??4?$CStringT@DV?$StrTraitMFC_DLL@DV?$ChTraitsCRT@D@ATL@@@@@ATL@@QAEAAV01@PBD@Z
; File C:\Program Files (x86)\Microsoft Visual Studio\2019\Community\VC\Tools\MSVC\14.29.30133\atlmfc\include\cstringt.h

; 2567 : 		return( str1.Compare( psz2 ) != 0 );

  001b4	68 00 00 00 00	 push	 OFFSET ??_C@_08JFMBEEDE@DDHHMMSS@
  001b9	8d 4d f0	 lea	 ecx, DWORD PTR _strType$[ebp]
  001bc	ff 15 00 00 00
	00		 call	 DWORD PTR __imp_?Compare@?$CStringT@DV?$StrTraitMFC_DLL@DV?$ChTraitsCRT@D@ATL@@@@@ATL@@QBEHPBD@Z
  001c2	85 c0		 test	 eax, eax
; File D:\git\src\IBK\IBK_DRFN\ProjSrc\SrcChartEx\ChartOCX\AddInManager\ChartCommonAddIn\GapRevisionAddInImp.cpp

; 694  : 	if( strType != "DDHHMMSS" && strType != "MMDDHHMM")

  001c4	74 23		 je	 SHORT $LN12@CalcGapRev
; File C:\Program Files (x86)\Microsoft Visual Studio\2019\Community\VC\Tools\MSVC\14.29.30133\atlmfc\include\cstringt.h

; 2567 : 		return( str1.Compare( psz2 ) != 0 );

  001c6	68 00 00 00 00	 push	 OFFSET ??_C@_08KLIIINKM@MMDDHHMM@
  001cb	8d 4d f0	 lea	 ecx, DWORD PTR _strType$[ebp]
  001ce	ff 15 00 00 00
	00		 call	 DWORD PTR __imp_?Compare@?$CStringT@DV?$StrTraitMFC_DLL@DV?$ChTraitsCRT@D@ATL@@@@@ATL@@QBEHPBD@Z
  001d4	85 c0		 test	 eax, eax
; File D:\git\src\IBK\IBK_DRFN\ProjSrc\SrcChartEx\ChartOCX\AddInManager\ChartCommonAddIn\GapRevisionAddInImp.cpp

; 694  : 	if( strType != "DDHHMMSS" && strType != "MMDDHHMM")

  001d6	74 11		 je	 SHORT $LN12@CalcGapRev

; 695  : 	{
; 696  : 		pTimePacket->Release();

  001d8	8b 07		 mov	 eax, DWORD PTR [edi]
  001da	57		 push	 edi
  001db	ff 50 08	 call	 DWORD PTR [eax+8]

; 697  : 		pPacketList->Release();

  001de	8b 06		 mov	 eax, DWORD PTR [esi]
  001e0	56		 push	 esi
  001e1	ff 50 08	 call	 DWORD PTR [eax+8]
  001e4	e9 8f 03 00 00	 jmp	 $LN24@CalcGapRev
$LN12@CalcGapRev:

; 702  : 	if( !m_mapRQGapInfo.Lookup( p_szRQ, pSTGapInfo))

  001e9	8b 4d b4	 mov	 ecx, DWORD PTR _this$1$[ebp]
; File C:\Program Files (x86)\Microsoft Visual Studio\2019\Community\VC\Tools\MSVC\14.29.30133\atlmfc\include\afxtempl.h

; 2052 : 		{ return BASE_CLASS::Lookup(key, (typename BASE_CLASS::BASE_VALUE&)rValue); }

  001ec	8d 45 08	 lea	 eax, DWORD PTR _pSTGapInfo$[ebp]
  001ef	50		 push	 eax
  001f0	53		 push	 ebx
; File D:\git\src\IBK\IBK_DRFN\ProjSrc\SrcChartEx\ChartOCX\AddInManager\ChartCommonAddIn\GapRevisionAddInImp.cpp

; 702  : 	if( !m_mapRQGapInfo.Lookup( p_szRQ, pSTGapInfo))

  001f1	83 c1 40	 add	 ecx, 64			; 00000040H
  001f4	c7 45 08 00 00
	00 00		 mov	 DWORD PTR _pSTGapInfo$[ebp], 0
; File C:\Program Files (x86)\Microsoft Visual Studio\2019\Community\VC\Tools\MSVC\14.29.30133\atlmfc\include\afxtempl.h

; 2052 : 		{ return BASE_CLASS::Lookup(key, (typename BASE_CLASS::BASE_VALUE&)rValue); }

  001fb	e8 00 00 00 00	 call	 ?Lookup@CMapStringToPtr@@QBEHPBDAAPAX@Z ; CMapStringToPtr::Lookup
; File D:\git\src\IBK\IBK_DRFN\ProjSrc\SrcChartEx\ChartOCX\AddInManager\ChartCommonAddIn\GapRevisionAddInImp.cpp

; 702  : 	if( !m_mapRQGapInfo.Lookup( p_szRQ, pSTGapInfo))

  00200	85 c0		 test	 eax, eax
  00202	75 11		 jne	 SHORT $LN13@CalcGapRev

; 703  : 	{
; 704  : 		pTimePacket->Release();

  00204	8b 07		 mov	 eax, DWORD PTR [edi]
  00206	57		 push	 edi
  00207	ff 50 08	 call	 DWORD PTR [eax+8]

; 705  : 		pPacketList->Release();

  0020a	8b 06		 mov	 eax, DWORD PTR [esi]
  0020c	56		 push	 esi
  0020d	ff 50 08	 call	 DWORD PTR [eax+8]
  00210	e9 63 03 00 00	 jmp	 $LN24@CalcGapRev
$LN13@CalcGapRev:

; 706  : 		return;
; 707  : 	}
; 708  : 	
; 709  : 	IPacket *pOpenPacket = pPacketList->GetPacket(_MTEXT( C0_OPEN));

  00215	a1 54 00 00 00	 mov	 eax, DWORD PTR ?g_iMetaTable@@3VIMetaTable@@A+84
  0021a	8b ce		 mov	 ecx, esi
  0021c	8b 16		 mov	 edx, DWORD PTR [esi]
  0021e	ff 70 08	 push	 DWORD PTR [eax+8]
  00221	ff 52 10	 call	 DWORD PTR [edx+16]

; 710  : 	IPacket *pHighPacket = pPacketList->GetPacket(_MTEXT( C0_HIGH));

  00224	8b 0d 54 00 00
	00		 mov	 ecx, DWORD PTR ?g_iMetaTable@@3VIMetaTable@@A+84
  0022a	8b 16		 mov	 edx, DWORD PTR [esi]
  0022c	89 45 e0	 mov	 DWORD PTR _pOpenPacket$1$[ebp], eax
  0022f	ff 71 0c	 push	 DWORD PTR [ecx+12]
  00232	8b ce		 mov	 ecx, esi
  00234	ff 52 10	 call	 DWORD PTR [edx+16]

; 711  : 	IPacket *pLowPacket = pPacketList->GetPacket(_MTEXT( C0_LOW));

  00237	8b 0d 54 00 00
	00		 mov	 ecx, DWORD PTR ?g_iMetaTable@@3VIMetaTable@@A+84
  0023d	8b 16		 mov	 edx, DWORD PTR [esi]
  0023f	89 45 dc	 mov	 DWORD PTR _pHighPacket$1$[ebp], eax
  00242	ff 71 10	 push	 DWORD PTR [ecx+16]
  00245	8b ce		 mov	 ecx, esi
  00247	ff 52 10	 call	 DWORD PTR [edx+16]

; 712  : 	IPacket *pClosePacket = pPacketList->GetPacket(_MTEXT( C0_CLOSE));

  0024a	8b 0d 54 00 00
	00		 mov	 ecx, DWORD PTR ?g_iMetaTable@@3VIMetaTable@@A+84
  00250	8b 16		 mov	 edx, DWORD PTR [esi]
  00252	89 45 d8	 mov	 DWORD PTR _pLowPacket$1$[ebp], eax
  00255	ff 71 14	 push	 DWORD PTR [ecx+20]
  00258	8b ce		 mov	 ecx, esi
  0025a	ff 52 10	 call	 DWORD PTR [edx+16]

; 713  : 	pPacketList->Release();

  0025d	8b 0e		 mov	 ecx, DWORD PTR [esi]
  0025f	8b d8		 mov	 ebx, eax
  00261	56		 push	 esi
  00262	ff 51 08	 call	 DWORD PTR [ecx+8]

; 714  : 
; 715  : 	//--------------------------------------------------------
; 716  : 	//>>   
; 717  : 	double dOpen, dHigh, dLow, dClose;
; 718  : 	double dGap=0;
; 719  : 	BOOL bNeedCalcuate = FALSE;
; 720  : 	
; 721  : 	BOOL bCalcReal = FALSE;
; 722  : 	if(pClosePacket->GetDataCount() < 2)	// (2008/12/5 - Seung-Won, Bae) Do not use TimePacket for data count. (there can be NMTR candle.)

  00265	8b 13		 mov	 edx, DWORD PTR [ebx]
  00267	8b cb		 mov	 ecx, ebx
  00269	c7 45 c8 00 00
	00 00		 mov	 DWORD PTR _bNeedCalcuate$1$[ebp], 0
  00270	ff 52 2c	 call	 DWORD PTR [edx+44]
  00273	83 f8 02	 cmp	 eax, 2
  00276	0f 8c fc 02 00
	00		 jl	 $LN24@CalcGapRev

; 723  : 		return;
; 724  : 	int nCurIndx = pClosePacket->GetDataCount() - 1;

  0027c	8b 03		 mov	 eax, DWORD PTR [ebx]
  0027e	8b cb		 mov	 ecx, ebx
  00280	ff 50 2c	 call	 DWORD PTR [eax+44]

; 725  : 	int nPrevIndx = nCurIndx - 1;
; 726  : 	int nCurDay, nPrevDay, nCurTime, nPrevTime;
; 727  : 	double dCurTime, dPrevTime;
; 728  : 	pTimePacket->GetData(nCurIndx, dCurTime);

  00283	8b 17		 mov	 edx, DWORD PTR [edi]
  00285	8d 8d 7c ff ff
	ff		 lea	 ecx, DWORD PTR _dCurTime$[ebp]
  0028b	48		 dec	 eax
  0028c	51		 push	 ecx
  0028d	50		 push	 eax
  0028e	8b cf		 mov	 ecx, edi
  00290	89 45 bc	 mov	 DWORD PTR _nCurIndx$1$[ebp], eax
  00293	8d 70 ff	 lea	 esi, DWORD PTR [eax-1]
  00296	89 75 e4	 mov	 DWORD PTR _nPrevIndx$1$[ebp], esi
  00299	ff 52 40	 call	 DWORD PTR [edx+64]

; 729  : 	pTimePacket->GetData(nPrevIndx, dPrevTime);

  0029c	8b 07		 mov	 eax, DWORD PTR [edi]
  0029e	8d 8d 74 ff ff
	ff		 lea	 ecx, DWORD PTR _dPrevTime$[ebp]
  002a4	51		 push	 ecx
  002a5	56		 push	 esi
  002a6	8b cf		 mov	 ecx, edi
  002a8	ff 50 40	 call	 DWORD PTR [eax+64]
; File C:\Program Files (x86)\Microsoft Visual Studio\2019\Community\VC\Tools\MSVC\14.29.30133\atlmfc\include\cstringt.h

; 2486 : 		return(str1.Compare(psz2) == 0);

  002ab	68 00 00 00 00	 push	 OFFSET ??_C@_08KLIIINKM@MMDDHHMM@
  002b0	8d 4d f0	 lea	 ecx, DWORD PTR _strType$[ebp]
  002b3	ff 15 00 00 00
	00		 call	 DWORD PTR __imp_?Compare@?$CStringT@DV?$StrTraitMFC_DLL@DV?$ChTraitsCRT@D@ATL@@@@@ATL@@QBEHPBD@Z
  002b9	85 c0		 test	 eax, eax
; File D:\git\src\IBK\IBK_DRFN\ProjSrc\SrcChartEx\ChartOCX\AddInManager\ChartCommonAddIn\GapRevisionAddInImp.cpp

; 731  : 	if(strType == "MMDDHHMM")

  002bb	75 2f		 jne	 SHORT $LN15@CalcGapRev

; 732  : 	{
; 733  : 		nCurDay = (int)dCurTime/10000;

  002bd	f2 0f 2c 85 7c
	ff ff ff	 cvttsd2si eax, QWORD PTR _dCurTime$[ebp]
  002c5	b9 10 27 00 00	 mov	 ecx, 10000		; 00002710H
  002ca	89 4d d4	 mov	 DWORD PTR tv857[ebp], ecx
  002cd	99		 cdq
  002ce	f7 f9		 idiv	 ecx
  002d0	8b c8		 mov	 ecx, eax

; 734  : 		nCurTime = (int)dCurTime%10000 * 100;

  002d2	6b f2 64	 imul	 esi, edx, 100

; 735  : 		nPrevDay = (int)dPrevTime/10000;

  002d5	f2 0f 2c 85 74
	ff ff ff	 cvttsd2si eax, QWORD PTR _dPrevTime$[ebp]
  002dd	99		 cdq
  002de	f7 7d d4	 idiv	 DWORD PTR tv857[ebp]
  002e1	89 45 b0	 mov	 DWORD PTR _nPrevDay$1$[ebp], eax

; 736  : 		nPrevTime = (int)dPrevTime%10000 * 100;

  002e4	6b c2 64	 imul	 eax, edx, 100

; 737  : 	}

  002e7	8b 55 b0	 mov	 edx, DWORD PTR _nPrevDay$1$[ebp]
  002ea	eb 48		 jmp	 SHORT $LN124@CalcGapRev
$LN15@CalcGapRev:
; File C:\Program Files (x86)\Microsoft Visual Studio\2019\Community\VC\Tools\MSVC\14.29.30133\atlmfc\include\cstringt.h

; 2486 : 		return(str1.Compare(psz2) == 0);

  002ec	68 00 00 00 00	 push	 OFFSET ??_C@_08JFMBEEDE@DDHHMMSS@
  002f1	8d 4d f0	 lea	 ecx, DWORD PTR _strType$[ebp]
  002f4	ff 15 00 00 00
	00		 call	 DWORD PTR __imp_?Compare@?$CStringT@DV?$StrTraitMFC_DLL@DV?$ChTraitsCRT@D@ATL@@@@@ATL@@QBEHPBD@Z
  002fa	85 c0		 test	 eax, eax
; File D:\git\src\IBK\IBK_DRFN\ProjSrc\SrcChartEx\ChartOCX\AddInManager\ChartCommonAddIn\GapRevisionAddInImp.cpp

; 738  : 	else if(strType == "DDHHMMSS")

  002fc	75 2a		 jne	 SHORT $LN121@CalcGapRev

; 739  : 	{
; 740  : 		nCurDay = (int)dCurTime/1000000;

  002fe	f2 0f 2c 85 7c
	ff ff ff	 cvttsd2si eax, QWORD PTR _dCurTime$[ebp]
  00306	b9 40 42 0f 00	 mov	 ecx, 1000000		; 000f4240H
  0030b	89 4d b0	 mov	 DWORD PTR tv862[ebp], ecx
  0030e	99		 cdq
  0030f	f7 f9		 idiv	 ecx
  00311	8b c8		 mov	 ecx, eax
  00313	8b f2		 mov	 esi, edx

; 741  : 		nCurTime = (int)dCurTime%1000000;
; 742  : 		nPrevDay = (int)dPrevTime/1000000;

  00315	f2 0f 2c 85 74
	ff ff ff	 cvttsd2si eax, QWORD PTR _dPrevTime$[ebp]
  0031d	99		 cdq
  0031e	f7 7d b0	 idiv	 DWORD PTR tv862[ebp]
  00321	89 55 d4	 mov	 DWORD PTR _nPrevTime$1$[ebp], edx
  00324	8b d0		 mov	 edx, eax
  00326	eb 0f		 jmp	 SHORT $LN125@CalcGapRev
$LN121@CalcGapRev:

; 738  : 	else if(strType == "DDHHMMSS")

  00328	8b 4d 08	 mov	 ecx, DWORD PTR _nCurDay$[ebp]
  0032b	8b 75 08	 mov	 esi, DWORD PTR _nCurTime$[ebp]
  0032e	8b 55 08	 mov	 edx, DWORD PTR _nPrevDay$[ebp]
  00331	8b 45 08	 mov	 eax, DWORD PTR _nPrevTime$[ebp]
$LN124@CalcGapRev:

; 743  : 		nPrevTime = (int)dPrevTime%1000000;
; 744  : 	}
; 745  : 	
; 746  : 	if( pSTGapInfo->GetRealDate() == nCurDay)

  00334	89 45 d4	 mov	 DWORD PTR _nPrevTime$1$[ebp], eax
$LN125@CalcGapRev:
  00337	8b 45 08	 mov	 eax, DWORD PTR _pSTGapInfo$[ebp]
  0033a	89 4d e8	 mov	 DWORD PTR _nCurDay$1$[ebp], ecx
  0033d	39 48 1c	 cmp	 DWORD PTR [eax+28], ecx
  00340	75 2c		 jne	 SHORT $LN18@CalcGapRev

; 747  : 	{
; 748  : 		pTimePacket->Release();

  00342	8b 07		 mov	 eax, DWORD PTR [edi]
  00344	57		 push	 edi
  00345	ff 50 08	 call	 DWORD PTR [eax+8]

; 749  : 		pOpenPacket->Release();

  00348	8b 4d e0	 mov	 ecx, DWORD PTR _pOpenPacket$1$[ebp]
  0034b	51		 push	 ecx
  0034c	8b 01		 mov	 eax, DWORD PTR [ecx]
  0034e	ff 50 08	 call	 DWORD PTR [eax+8]

; 750  : 		pHighPacket->Release();

  00351	8b 4d dc	 mov	 ecx, DWORD PTR _pHighPacket$1$[ebp]
  00354	51		 push	 ecx
  00355	8b 01		 mov	 eax, DWORD PTR [ecx]
  00357	ff 50 08	 call	 DWORD PTR [eax+8]

; 751  : 		pLowPacket->Release();

  0035a	8b 4d d8	 mov	 ecx, DWORD PTR _pLowPacket$1$[ebp]
  0035d	51		 push	 ecx
  0035e	8b 01		 mov	 eax, DWORD PTR [ecx]
  00360	ff 50 08	 call	 DWORD PTR [eax+8]

; 752  : 		pClosePacket->Release();

  00363	8b 03		 mov	 eax, DWORD PTR [ebx]
  00365	53		 push	 ebx
  00366	ff 50 08	 call	 DWORD PTR [eax+8]
  00369	e9 0a 02 00 00	 jmp	 $LN24@CalcGapRev
$LN18@CalcGapRev:

; 753  : 		return;
; 754  : 	}
; 755  : 
; 756  : 	if(nCurDay == nPrevDay)

  0036e	3b ca		 cmp	 ecx, edx
  00370	75 6d		 jne	 SHORT $LN19@CalcGapRev

; 757  : 	{
; 758  : 		if(nPrevTime < nBaseTime && nCurTime >= nBaseTime)

  00372	8b 45 d0	 mov	 eax, DWORD PTR _nBaseTime$1$[ebp]
  00375	39 45 d4	 cmp	 DWORD PTR _nPrevTime$1$[ebp], eax
  00378	0f 8d bd 01 00
	00		 jge	 $LN3@CalcGapRev
  0037e	3b f0		 cmp	 esi, eax
  00380	0f 8c b5 01 00
	00		 jl	 $LN3@CalcGapRev

; 759  : 		{
; 760  : 			double dOpenData, dCloseData;
; 761  : 			pOpenPacket->GetData(nCurIndx, dOpenData);

  00386	8b 75 e0	 mov	 esi, DWORD PTR _pOpenPacket$1$[ebp]
  00389	8d 4d c4	 lea	 ecx, DWORD PTR _dOpenData$3[ebp]
  0038c	51		 push	 ecx
  0038d	ff 75 bc	 push	 DWORD PTR _nCurIndx$1$[ebp]
  00390	8b ce		 mov	 ecx, esi
  00392	8b 06		 mov	 eax, DWORD PTR [esi]
  00394	ff 50 40	 call	 DWORD PTR [eax+64]

; 762  : 			pClosePacket->GetData(nPrevIndx, dCloseData);

  00397	8b 03		 mov	 eax, DWORD PTR [ebx]
  00399	8d 4d cc	 lea	 ecx, DWORD PTR _dCloseData$6[ebp]
  0039c	51		 push	 ecx
  0039d	ff 75 e4	 push	 DWORD PTR _nPrevIndx$1$[ebp]
  003a0	8b cb		 mov	 ecx, ebx
  003a2	ff 50 40	 call	 DWORD PTR [eax+64]

; 56   : 		m_arGapInfo.AddHead(dGapValue);

  003a5	8b 45 08	 mov	 eax, DWORD PTR _pSTGapInfo$[ebp]
; File C:\Program Files (x86)\Microsoft Visual Studio\2019\Community\VC\Tools\MSVC\14.29.30133\atlmfc\include\afxtempl.h

; 953  : 	CNode* pNewNode = NewNode(NULL, m_pNodeHead);

  003a8	8b c8		 mov	 ecx, eax
; File D:\git\src\IBK\IBK_DRFN\ProjSrc\SrcChartEx\ChartOCX\AddInManager\ChartCommonAddIn\GapRevisionAddInImp.cpp

; 763  : 			dGap = (dOpenData - dCloseData);

  003aa	f2 0f 10 45 c4	 movsd	 xmm0, QWORD PTR _dOpenData$3[ebp]
  003af	f2 0f 5c 45 cc	 subsd	 xmm0, QWORD PTR _dCloseData$6[ebp]

; 56   : 		m_arGapInfo.AddHead(dGapValue);

  003b4	89 45 b0	 mov	 DWORD PTR _this$1$[ebp], eax
; File C:\Program Files (x86)\Microsoft Visual Studio\2019\Community\VC\Tools\MSVC\14.29.30133\atlmfc\include\afxtempl.h

; 953  : 	CNode* pNewNode = NewNode(NULL, m_pNodeHead);

  003b7	ff 70 04	 push	 DWORD PTR [eax+4]
  003ba	6a 00		 push	 0
; File D:\git\src\IBK\IBK_DRFN\ProjSrc\SrcChartEx\ChartOCX\AddInManager\ChartCommonAddIn\GapRevisionAddInImp.cpp

; 763  : 			dGap = (dOpenData - dCloseData);

  003bc	f2 0f 11 45 b8	 movsd	 QWORD PTR _dGap$1$[ebp], xmm0
; File C:\Program Files (x86)\Microsoft Visual Studio\2019\Community\VC\Tools\MSVC\14.29.30133\atlmfc\include\afxtempl.h

; 953  : 	CNode* pNewNode = NewNode(NULL, m_pNodeHead);

  003c1	e8 00 00 00 00	 call	 ?NewNode@?$CList@NN@@IAEPAUCNode@1@PAU21@0@Z ; CList<double,double>::NewNode

; 954  : 	pNewNode->data = newElement;
; 955  : 	if (m_pNodeHead != NULL)

  003c6	8b 4d b0	 mov	 ecx, DWORD PTR _this$1$[ebp]
  003c9	f2 0f 10 45 b8	 movsd	 xmm0, QWORD PTR _dGap$1$[ebp]
  003ce	f2 0f 11 40 08	 movsd	 QWORD PTR [eax+8], xmm0
  003d3	8b 51 04	 mov	 edx, DWORD PTR [ecx+4]
  003d6	85 d2		 test	 edx, edx
  003d8	74 67		 je	 SHORT $LN105@CalcGapRev

; 956  : 		m_pNodeHead->pPrev = pNewNode;

  003da	89 42 04	 mov	 DWORD PTR [edx+4], eax
  003dd	eb 65		 jmp	 SHORT $LN106@CalcGapRev
$LN19@CalcGapRev:
; File D:\git\src\IBK\IBK_DRFN\ProjSrc\SrcChartEx\ChartOCX\AddInManager\ChartCommonAddIn\GapRevisionAddInImp.cpp

; 772  : 		if(nCurTime >= nBaseTime)

  003df	3b 75 d0	 cmp	 esi, DWORD PTR _nBaseTime$1$[ebp]
  003e2	0f 8c 53 01 00
	00		 jl	 $LN3@CalcGapRev

; 773  : 		{
; 774  : 			double dOpenData, dCloseData;
; 775  : 			pOpenPacket->GetData(nCurIndx, dOpenData);

  003e8	8b 75 e0	 mov	 esi, DWORD PTR _pOpenPacket$1$[ebp]
  003eb	8d 4d c4	 lea	 ecx, DWORD PTR _dOpenData$2[ebp]
  003ee	51		 push	 ecx
  003ef	ff 75 bc	 push	 DWORD PTR _nCurIndx$1$[ebp]
  003f2	8b ce		 mov	 ecx, esi
  003f4	8b 06		 mov	 eax, DWORD PTR [esi]
  003f6	ff 50 40	 call	 DWORD PTR [eax+64]

; 776  : 			pClosePacket->GetData(nPrevIndx, dCloseData);

  003f9	8b 03		 mov	 eax, DWORD PTR [ebx]
  003fb	8d 4d cc	 lea	 ecx, DWORD PTR _dCloseData$5[ebp]
  003fe	51		 push	 ecx
  003ff	ff 75 e4	 push	 DWORD PTR _nPrevIndx$1$[ebp]
  00402	8b cb		 mov	 ecx, ebx
  00404	ff 50 40	 call	 DWORD PTR [eax+64]

; 56   : 		m_arGapInfo.AddHead(dGapValue);

  00407	8b 45 08	 mov	 eax, DWORD PTR _pSTGapInfo$[ebp]
; File C:\Program Files (x86)\Microsoft Visual Studio\2019\Community\VC\Tools\MSVC\14.29.30133\atlmfc\include\afxtempl.h

; 953  : 	CNode* pNewNode = NewNode(NULL, m_pNodeHead);

  0040a	8b c8		 mov	 ecx, eax
; File D:\git\src\IBK\IBK_DRFN\ProjSrc\SrcChartEx\ChartOCX\AddInManager\ChartCommonAddIn\GapRevisionAddInImp.cpp

; 777  : 			dGap = (dOpenData - dCloseData);

  0040c	f2 0f 10 45 c4	 movsd	 xmm0, QWORD PTR _dOpenData$2[ebp]
  00411	f2 0f 5c 45 cc	 subsd	 xmm0, QWORD PTR _dCloseData$5[ebp]

; 56   : 		m_arGapInfo.AddHead(dGapValue);

  00416	89 45 b0	 mov	 DWORD PTR _this$1$[ebp], eax
; File C:\Program Files (x86)\Microsoft Visual Studio\2019\Community\VC\Tools\MSVC\14.29.30133\atlmfc\include\afxtempl.h

; 953  : 	CNode* pNewNode = NewNode(NULL, m_pNodeHead);

  00419	ff 70 04	 push	 DWORD PTR [eax+4]
  0041c	6a 00		 push	 0
; File D:\git\src\IBK\IBK_DRFN\ProjSrc\SrcChartEx\ChartOCX\AddInManager\ChartCommonAddIn\GapRevisionAddInImp.cpp

; 777  : 			dGap = (dOpenData - dCloseData);

  0041e	f2 0f 11 45 b8	 movsd	 QWORD PTR _dGap$1$[ebp], xmm0
; File C:\Program Files (x86)\Microsoft Visual Studio\2019\Community\VC\Tools\MSVC\14.29.30133\atlmfc\include\afxtempl.h

; 953  : 	CNode* pNewNode = NewNode(NULL, m_pNodeHead);

  00423	e8 00 00 00 00	 call	 ?NewNode@?$CList@NN@@IAEPAUCNode@1@PAU21@0@Z ; CList<double,double>::NewNode

; 954  : 	pNewNode->data = newElement;
; 955  : 	if (m_pNodeHead != NULL)

  00428	8b 4d b0	 mov	 ecx, DWORD PTR _this$1$[ebp]
  0042b	f2 0f 10 45 b8	 movsd	 xmm0, QWORD PTR _dGap$1$[ebp]
  00430	f2 0f 11 40 08	 movsd	 QWORD PTR [eax+8], xmm0
  00435	8b 51 04	 mov	 edx, DWORD PTR [ecx+4]
  00438	85 d2		 test	 edx, edx
  0043a	74 05		 je	 SHORT $LN105@CalcGapRev

; 956  : 		m_pNodeHead->pPrev = pNewNode;

  0043c	89 42 04	 mov	 DWORD PTR [edx+4], eax
  0043f	eb 03		 jmp	 SHORT $LN106@CalcGapRev
$LN105@CalcGapRev:
; File D:\git\src\IBK\IBK_DRFN\ProjSrc\SrcChartEx\ChartOCX\AddInManager\ChartCommonAddIn\GapRevisionAddInImp.cpp

; 787  : 		for(; nPrevIndx >= 0; --nPrevIndx)

  00441	89 41 08	 mov	 DWORD PTR [ecx+8], eax
$LN106@CalcGapRev:
  00444	83 7d e4 00	 cmp	 DWORD PTR _nPrevIndx$1$[ebp], 0
  00448	89 41 04	 mov	 DWORD PTR [ecx+4], eax
  0044b	8b 45 08	 mov	 eax, DWORD PTR _pSTGapInfo$[ebp]
  0044e	8b 4d e8	 mov	 ecx, DWORD PTR _nCurDay$1$[ebp]
  00451	89 48 1c	 mov	 DWORD PTR [eax+28], ecx
  00454	c7 45 c8 01 00
	00 00		 mov	 DWORD PTR _bNeedCalcuate$1$[ebp], 1
  0045b	0f 8c da 00 00
	00		 jl	 $LN3@CalcGapRev
  00461	8b 7d e4	 mov	 edi, DWORD PTR _nPrevIndx$1$[ebp]
$LL4@CalcGapRev:

; 788  : 		{
; 789  : 			pOpenPacket->GetData(nPrevIndx, dOpen);

  00464	8b 06		 mov	 eax, DWORD PTR [esi]
  00466	8d 4d 9c	 lea	 ecx, DWORD PTR _dOpen$[ebp]
  00469	51		 push	 ecx
  0046a	57		 push	 edi
  0046b	8b ce		 mov	 ecx, esi
  0046d	ff 50 40	 call	 DWORD PTR [eax+64]

; 790  : 			dOpen += dGap;

  00470	f2 0f 10 45 9c	 movsd	 xmm0, QWORD PTR _dOpen$[ebp]

; 791  : 			pHighPacket->GetData(nPrevIndx, dHigh);

  00475	8d 55 94	 lea	 edx, DWORD PTR _dHigh$[ebp]
  00478	f2 0f 58 45 b8	 addsd	 xmm0, QWORD PTR _dGap$1$[ebp]
  0047d	8b 4d dc	 mov	 ecx, DWORD PTR _pHighPacket$1$[ebp]
  00480	52		 push	 edx
  00481	57		 push	 edi
  00482	f2 0f 11 45 9c	 movsd	 QWORD PTR _dOpen$[ebp], xmm0
  00487	8b 01		 mov	 eax, DWORD PTR [ecx]
  00489	ff 50 40	 call	 DWORD PTR [eax+64]

; 792  : 			dHigh += dGap;

  0048c	f2 0f 10 45 94	 movsd	 xmm0, QWORD PTR _dHigh$[ebp]

; 793  : 			pLowPacket->GetData(nPrevIndx, dLow);

  00491	8d 55 8c	 lea	 edx, DWORD PTR _dLow$[ebp]
  00494	f2 0f 58 45 b8	 addsd	 xmm0, QWORD PTR _dGap$1$[ebp]
  00499	8b 4d d8	 mov	 ecx, DWORD PTR _pLowPacket$1$[ebp]
  0049c	52		 push	 edx
  0049d	57		 push	 edi
  0049e	f2 0f 11 45 94	 movsd	 QWORD PTR _dHigh$[ebp], xmm0
  004a3	8b 01		 mov	 eax, DWORD PTR [ecx]
  004a5	ff 50 40	 call	 DWORD PTR [eax+64]

; 794  : 			dLow += dGap;

  004a8	f2 0f 10 45 8c	 movsd	 xmm0, QWORD PTR _dLow$[ebp]

; 795  : 			pClosePacket->GetData(nPrevIndx, dClose);

  004ad	8d 4d 84	 lea	 ecx, DWORD PTR _dClose$[ebp]
  004b0	f2 0f 58 45 b8	 addsd	 xmm0, QWORD PTR _dGap$1$[ebp]
  004b5	51		 push	 ecx
  004b6	57		 push	 edi
  004b7	8b cb		 mov	 ecx, ebx
  004b9	f2 0f 11 45 8c	 movsd	 QWORD PTR _dLow$[ebp], xmm0
  004be	8b 03		 mov	 eax, DWORD PTR [ebx]
  004c0	ff 50 40	 call	 DWORD PTR [eax+64]

; 796  : 			dClose += dGap;

  004c3	f2 0f 10 45 84	 movsd	 xmm0, QWORD PTR _dClose$[ebp]

; 797  : 			
; 798  : 			pOpenPacket->SetData(nPrevIndx, dOpen);

  004c8	83 ec 08	 sub	 esp, 8
  004cb	f2 0f 58 45 b8	 addsd	 xmm0, QWORD PTR _dGap$1$[ebp]
  004d0	8b ce		 mov	 ecx, esi
  004d2	f2 0f 11 45 84	 movsd	 QWORD PTR _dClose$[ebp], xmm0
  004d7	f2 0f 10 45 9c	 movsd	 xmm0, QWORD PTR _dOpen$[ebp]
  004dc	8b 06		 mov	 eax, DWORD PTR [esi]
  004de	f2 0f 11 04 24	 movsd	 QWORD PTR [esp], xmm0
  004e3	57		 push	 edi
  004e4	ff 50 48	 call	 DWORD PTR [eax+72]

; 799  : 			pHighPacket->SetData(nPrevIndx, dHigh);

  004e7	8b 4d dc	 mov	 ecx, DWORD PTR _pHighPacket$1$[ebp]
  004ea	83 ec 08	 sub	 esp, 8
  004ed	f2 0f 10 45 94	 movsd	 xmm0, QWORD PTR _dHigh$[ebp]
  004f2	8b 01		 mov	 eax, DWORD PTR [ecx]
  004f4	f2 0f 11 04 24	 movsd	 QWORD PTR [esp], xmm0
  004f9	57		 push	 edi
  004fa	ff 50 48	 call	 DWORD PTR [eax+72]

; 800  : 			pLowPacket->SetData(nPrevIndx, dLow);

  004fd	8b 4d d8	 mov	 ecx, DWORD PTR _pLowPacket$1$[ebp]
  00500	83 ec 08	 sub	 esp, 8
  00503	f2 0f 10 45 8c	 movsd	 xmm0, QWORD PTR _dLow$[ebp]
  00508	8b 01		 mov	 eax, DWORD PTR [ecx]
  0050a	f2 0f 11 04 24	 movsd	 QWORD PTR [esp], xmm0
  0050f	57		 push	 edi
  00510	ff 50 48	 call	 DWORD PTR [eax+72]

; 801  : 			pClosePacket->SetData(nPrevIndx, dClose);

  00513	f2 0f 10 45 84	 movsd	 xmm0, QWORD PTR _dClose$[ebp]
  00518	83 ec 08	 sub	 esp, 8
  0051b	8b 03		 mov	 eax, DWORD PTR [ebx]
  0051d	8b cb		 mov	 ecx, ebx
  0051f	f2 0f 11 04 24	 movsd	 QWORD PTR [esp], xmm0
  00524	57		 push	 edi
  00525	ff 50 48	 call	 DWORD PTR [eax+72]
  00528	83 ef 01	 sub	 edi, 1
  0052b	0f 89 33 ff ff
	ff		 jns	 $LL4@CalcGapRev
  00531	8b 7d ac	 mov	 edi, DWORD PTR _pTimePacket$1$[ebp]
  00534	c7 45 c8 01 00
	00 00		 mov	 DWORD PTR _bNeedCalcuate$1$[ebp], 1
$LN3@CalcGapRev:

; 802  : 		}
; 803  : 	}
; 804  : 	//<<   
; 805  : 
; 806  : 	pTimePacket->Release();

  0053b	8b 07		 mov	 eax, DWORD PTR [edi]
  0053d	57		 push	 edi
  0053e	ff 50 08	 call	 DWORD PTR [eax+8]

; 807  : 	pOpenPacket->Release();

  00541	8b 4d e0	 mov	 ecx, DWORD PTR _pOpenPacket$1$[ebp]
  00544	51		 push	 ecx
  00545	8b 01		 mov	 eax, DWORD PTR [ecx]
  00547	ff 50 08	 call	 DWORD PTR [eax+8]

; 808  : 	pHighPacket->Release();

  0054a	8b 4d dc	 mov	 ecx, DWORD PTR _pHighPacket$1$[ebp]
  0054d	51		 push	 ecx
  0054e	8b 01		 mov	 eax, DWORD PTR [ecx]
  00550	ff 50 08	 call	 DWORD PTR [eax+8]

; 809  : 	pLowPacket->Release();

  00553	8b 4d d8	 mov	 ecx, DWORD PTR _pLowPacket$1$[ebp]
  00556	51		 push	 ecx
  00557	8b 01		 mov	 eax, DWORD PTR [ecx]
  00559	ff 50 08	 call	 DWORD PTR [eax+8]

; 810  : 	pClosePacket->Release();

  0055c	8b 03		 mov	 eax, DWORD PTR [ebx]
  0055e	53		 push	 ebx
  0055f	ff 50 08	 call	 DWORD PTR [eax+8]

; 811  : 
; 812  : 	if(bNeedCalcuate)

  00562	83 7d c8 00	 cmp	 DWORD PTR _bNeedCalcuate$1$[ebp], 0
  00566	74 10		 je	 SHORT $LN24@CalcGapRev

; 813  : 		m_pIChartManager->ChangeAllGraphDataFromGraphInfo(TRUE);

  00568	8b 45 b4	 mov	 eax, DWORD PTR _this$1$[ebp]
  0056b	6a 01		 push	 1
  0056d	8b 48 24	 mov	 ecx, DWORD PTR [eax+36]
  00570	8b 01		 mov	 eax, DWORD PTR [ecx]
  00572	ff 90 9c 00 00
	00		 call	 DWORD PTR [eax+156]
$LN24@CalcGapRev:

; 814  : }

  00578	8d 4d f0	 lea	 ecx, DWORD PTR _strType$[ebp]
  0057b	ff 15 00 00 00
	00		 call	 DWORD PTR __imp_??1?$CStringT@DV?$StrTraitMFC_DLL@DV?$ChTraitsCRT@D@ATL@@@@@ATL@@QAE@XZ
  00581	8d 4d ec	 lea	 ecx, DWORD PTR _szMarketTime$[ebp]
  00584	ff 15 00 00 00
	00		 call	 DWORD PTR __imp_??1?$CStringT@DV?$StrTraitMFC_DLL@DV?$ChTraitsCRT@D@ATL@@@@@ATL@@QAE@XZ
  0058a	eb 06		 jmp	 SHORT $LN31@CalcGapRev
$LN9@CalcGapRev:

; 664  : 	{
; 665  : 		pPacketList->Release();

  0058c	8b 06		 mov	 eax, DWORD PTR [esi]
  0058e	56		 push	 esi
  0058f	ff 50 08	 call	 DWORD PTR [eax+8]
$LN31@CalcGapRev:
; File D:\git\src\IBK\IBK_DRFN\ProjSrc\SrcChartEx\ChartOCX\AddInManager\Include_AddIn\I000000\_IString.h

; 45   : 		if( m_pIStrData)

  00592	8b 4d a8	 mov	 ecx, DWORD PTR _szIStr$[ebp+4]
  00595	c6 45 fc 0a	 mov	 BYTE PTR __$EHRec$[ebp+8], 10 ; 0000000aH
  00599	85 c9		 test	 ecx, ecx
  0059b	74 14		 je	 SHORT $LN113@CalcGapRev

; 46   : 		{
; 47   : 			m_pIStrData->Release();

  0059d	8b 01		 mov	 eax, DWORD PTR [ecx]
  0059f	51		 push	 ecx
  005a0	ff 50 08	 call	 DWORD PTR [eax+8]

; 48   : 			m_pIStrData = NULL;

  005a3	c7 45 a8 00 00
	00 00		 mov	 DWORD PTR _szIStr$[ebp+4], 0

; 49   : 			m_szData = NULL;

  005aa	c7 45 a4 00 00
	00 00		 mov	 DWORD PTR _szIStr$[ebp], 0
$LN113@CalcGapRev:
; File D:\git\src\IBK\IBK_DRFN\ProjSrc\SrcChartEx\ChartOCX\AddInManager\ChartCommonAddIn\GapRevisionAddInImp.cpp

; 814  : }

  005b1	8d 4d c0	 lea	 ecx, DWORD PTR _szMarketType$[ebp]
  005b4	ff 15 00 00 00
	00		 call	 DWORD PTR __imp_??1?$CStringT@DV?$StrTraitMFC_DLL@DV?$ChTraitsCRT@D@ATL@@@@@ATL@@QAE@XZ
$LN6@CalcGapRev:
  005ba	8b 4d f4	 mov	 ecx, DWORD PTR __$EHRec$[ebp]
  005bd	64 89 0d 00 00
	00 00		 mov	 DWORD PTR fs:0, ecx
  005c4	59		 pop	 ecx
  005c5	5f		 pop	 edi
  005c6	5e		 pop	 esi
  005c7	5b		 pop	 ebx
  005c8	8b e5		 mov	 esp, ebp
  005ca	5d		 pop	 ebp
  005cb	c2 04 00	 ret	 4
_TEXT	ENDS
;	COMDAT text$x
text$x	SEGMENT
__unwindfunclet$?CalcGapRevisionReal@CGapRevisionAddInImp@@MAEXPBD@Z$0:
  00000	8d 4d c0	 lea	 ecx, DWORD PTR _szMarketType$[ebp]
  00003	ff 25 00 00 00
	00		 jmp	 DWORD PTR __imp_??1?$CStringT@DV?$StrTraitMFC_DLL@DV?$ChTraitsCRT@D@ATL@@@@@ATL@@QAE@XZ
__unwindfunclet$?CalcGapRevisionReal@CGapRevisionAddInImp@@MAEXPBD@Z$1:
  00009	8d 4d a4	 lea	 ecx, DWORD PTR _szIStr$[ebp]
  0000c	e9 00 00 00 00	 jmp	 ??1ILPCSTR000000@@QAE@XZ ; ILPCSTR000000::~ILPCSTR000000
__unwindfunclet$?CalcGapRevisionReal@CGapRevisionAddInImp@@MAEXPBD@Z$2:
  00011	8d 4d ec	 lea	 ecx, DWORD PTR _szMarketTime$[ebp]
  00014	ff 25 00 00 00
	00		 jmp	 DWORD PTR __imp_??1?$CStringT@DV?$StrTraitMFC_DLL@DV?$ChTraitsCRT@D@ATL@@@@@ATL@@QAE@XZ
__unwindfunclet$?CalcGapRevisionReal@CGapRevisionAddInImp@@MAEXPBD@Z$4:
  0001a	8d 4d f0	 lea	 ecx, DWORD PTR _strType$[ebp]
  0001d	ff 25 00 00 00
	00		 jmp	 DWORD PTR __imp_??1?$CStringT@DV?$StrTraitMFC_DLL@DV?$ChTraitsCRT@D@ATL@@@@@ATL@@QAE@XZ
  00023	cc		 int	 3
  00024	cc		 int	 3
  00025	cc		 int	 3
  00026	cc		 int	 3
  00027	cc		 int	 3
__ehhandler$?CalcGapRevisionReal@CGapRevisionAddInImp@@MAEXPBD@Z:
  00028	90		 npad	 1
  00029	90		 npad	 1
  0002a	8b 54 24 08	 mov	 edx, DWORD PTR [esp+8]
  0002e	8d 42 0c	 lea	 eax, DWORD PTR [edx+12]
  00031	8b 8a 70 ff ff
	ff		 mov	 ecx, DWORD PTR [edx-144]
  00037	33 c8		 xor	 ecx, eax
  00039	e8 00 00 00 00	 call	 @__security_check_cookie@4
  0003e	b8 00 00 00 00	 mov	 eax, OFFSET __ehfuncinfo$?CalcGapRevisionReal@CGapRevisionAddInImp@@MAEXPBD@Z
  00043	e9 00 00 00 00	 jmp	 ___CxxFrameHandler3
text$x	ENDS
?CalcGapRevisionReal@CGapRevisionAddInImp@@MAEXPBD@Z ENDP ; CGapRevisionAddInImp::CalcGapRevisionReal
; Function compile flags: /Ogtp
; File D:\git\src\IBK\IBK_DRFN\ProjSrc\SrcChartEx\ChartOCX\AddInManager\ChartCommonAddIn\GapRevisionAddInImp.cpp
; File D:\git\src\IBK\IBK_DRFN\ProjSrc\SrcChartEx\ChartOCX\AddInManager\Include_AddIn\I000000\_IString.h
; File D:\git\src\IBK\IBK_DRFN\ProjSrc\SrcChartEx\ChartOCX\AddInManager\ChartCommonAddIn\GapRevisionAddInImp.cpp
; File C:\Program Files (x86)\Microsoft Visual Studio\2019\Community\VC\Tools\MSVC\14.29.30133\atlmfc\include\atlsimpstr.h
; File D:\git\src\IBK\IBK_DRFN\ProjSrc\SrcChartEx\ChartOCX\AddInManager\ChartCommonAddIn\GapRevisionAddInImp.cpp
; File D:\git\src\IBK\IBK_DRFN\ProjSrc\SrcChartEx\ChartOCX\AddInManager\Include_AddIn\I000000\_IString.h
; File D:\git\src\IBK\IBK_DRFN\ProjSrc\SrcChartEx\ChartOCX\AddInManager\ChartCommonAddIn\GapRevisionAddInImp.cpp
; File D:\git\src\IBK\IBK_DRFN\ProjSrc\SrcChartEx\ChartOCX\AddInManager\Include_AddIn\I000000\_IString.h
; File D:\git\src\IBK\IBK_DRFN\ProjSrc\SrcChartEx\ChartOCX\AddInManager\ChartCommonAddIn\GapRevisionAddInImp.cpp
; File C:\Program Files (x86)\Microsoft Visual Studio\2019\Community\VC\Tools\MSVC\14.29.30133\atlmfc\include\cstringt.h
; File D:\git\src\IBK\IBK_DRFN\ProjSrc\SrcChartEx\ChartOCX\AddInManager\ChartCommonAddIn\GapRevisionAddInImp.cpp
; File C:\Program Files (x86)\Microsoft Visual Studio\2019\Community\VC\Tools\MSVC\14.29.30133\atlmfc\include\cstringt.h
; File D:\git\src\IBK\IBK_DRFN\ProjSrc\SrcChartEx\ChartOCX\AddInManager\ChartCommonAddIn\GapRevisionAddInImp.cpp
; File C:\Program Files (x86)\Microsoft Visual Studio\2019\Community\VC\Tools\MSVC\14.29.30133\atlmfc\include\afxtempl.h
; File D:\git\src\IBK\IBK_DRFN\ProjSrc\SrcChartEx\ChartOCX\AddInManager\ChartCommonAddIn\GapRevisionAddInImp.cpp
; File C:\Program Files (x86)\Microsoft Visual Studio\2019\Community\VC\Tools\MSVC\14.29.30133\atlmfc\include\afxtempl.h
; File D:\git\src\IBK\IBK_DRFN\ProjSrc\SrcChartEx\ChartOCX\AddInManager\ChartCommonAddIn\GapRevisionAddInImp.cpp
; File C:\Program Files (x86)\Microsoft Visual Studio\2019\Community\VC\Tools\MSVC\14.29.30133\atlmfc\include\afxtempl.h
; File D:\git\src\IBK\IBK_DRFN\ProjSrc\SrcChartEx\ChartOCX\AddInManager\ChartCommonAddIn\GapRevisionAddInImp.cpp
; File C:\Program Files (x86)\Microsoft Visual Studio\2019\Community\VC\Tools\MSVC\14.29.30133\atlmfc\include\afxtempl.h
; File D:\git\src\IBK\IBK_DRFN\ProjSrc\SrcChartEx\ChartOCX\AddInManager\ChartCommonAddIn\GapRevisionAddInImp.cpp
; File C:\Program Files (x86)\Microsoft Visual Studio\2019\Community\VC\Tools\MSVC\14.29.30133\atlmfc\include\cstringt.h
; File D:\git\src\IBK\IBK_DRFN\ProjSrc\SrcChartEx\ChartOCX\AddInManager\ChartCommonAddIn\GapRevisionAddInImp.cpp
; File C:\Program Files (x86)\Microsoft Visual Studio\2019\Community\VC\Tools\MSVC\14.29.30133\atlmfc\include\cstringt.h
; File D:\git\src\IBK\IBK_DRFN\ProjSrc\SrcChartEx\ChartOCX\AddInManager\ChartCommonAddIn\GapRevisionAddInImp.cpp
; File C:\Program Files (x86)\Microsoft Visual Studio\2019\Community\VC\Tools\MSVC\14.29.30133\atlmfc\include\cstringt.h
; File D:\git\src\IBK\IBK_DRFN\ProjSrc\SrcChartEx\ChartOCX\AddInManager\ChartCommonAddIn\GapRevisionAddInImp.cpp
; File C:\Program Files (x86)\Microsoft Visual Studio\2019\Community\VC\Tools\MSVC\14.29.30133\atlmfc\include\cstringt.h
; File D:\git\src\IBK\IBK_DRFN\ProjSrc\SrcChartEx\ChartOCX\AddInManager\ChartCommonAddIn\GapRevisionAddInImp.cpp
; File C:\Program Files (x86)\Microsoft Visual Studio\2019\Community\VC\Tools\MSVC\14.29.30133\atlmfc\include\afxtempl.h
; File D:\git\src\IBK\IBK_DRFN\ProjSrc\SrcChartEx\ChartOCX\AddInManager\ChartCommonAddIn\GapRevisionAddInImp.cpp
; File C:\Program Files (x86)\Microsoft Visual Studio\2019\Community\VC\Tools\MSVC\14.29.30133\atlmfc\include\afxtempl.h
; File D:\git\src\IBK\IBK_DRFN\ProjSrc\SrcChartEx\ChartOCX\AddInManager\ChartCommonAddIn\GapRevisionAddInImp.cpp
; File C:\Program Files (x86)\Microsoft Visual Studio\2019\Community\VC\Tools\MSVC\14.29.30133\atlmfc\include\afxtempl.h
; File D:\git\src\IBK\IBK_DRFN\ProjSrc\SrcChartEx\ChartOCX\AddInManager\ChartCommonAddIn\GapRevisionAddInImp.cpp
; File C:\Program Files (x86)\Microsoft Visual Studio\2019\Community\VC\Tools\MSVC\14.29.30133\atlmfc\include\afxtempl.h
; File D:\git\src\IBK\IBK_DRFN\ProjSrc\SrcChartEx\ChartOCX\AddInManager\ChartCommonAddIn\GapRevisionAddInImp.cpp
; File D:\git\src\IBK\IBK_DRFN\ProjSrc\SrcChartEx\ChartOCX\AddInManager\Include_AddIn\I000000\_IString.h
; File D:\git\src\IBK\IBK_DRFN\ProjSrc\SrcChartEx\ChartOCX\AddInManager\ChartCommonAddIn\GapRevisionAddInImp.cpp
;	COMDAT ?CalcGapRevision@CGapRevisionAddInImp@@MAEXPBDH@Z
_TEXT	SEGMENT
_dClose$ = -140						; size = 8
_dLow$ = -132						; size = 8
_dHigh$ = -124						; size = 8
_dOpen$ = -116						; size = 8
_dTime$ = -108						; size = 8
_dGap$1$ = -100						; size = 8
_szIStr$ = -92						; size = 8
_dOpenData$2 = -84					; size = 8
_pTimePacket$1$ = -80					; size = 4
_dCloseData$3 = -76					; size = 8
_nPacketCount$1$ = -72					; size = 4
_nBaseTime$1$ = -68					; size = 4
_szMarketType$ = -64					; size = 4
_stringSrc$1$ = -60					; size = 4
_pClosePacket$1$ = -60					; size = 4
_strStartTime$4 = -60					; size = 4
_pLowPacket$1$ = -56					; size = 4
_this$1$ = -56						; size = 4
_pHighPacket$1$ = -52					; size = 4
_bInitialized$1$ = -48					; size = 4
_nCurTime$1$ = -44					; size = 4
_pOpenPacket$1$ = -40					; size = 4
_nCurDay$1$ = -36					; size = 4
_dGapData$1$ = -32					; size = 8
_nNextIndx$1$ = -28					; size = 4
_szMarketTime$ = -24					; size = 4
_bNeedCalcuate$1$ = -20					; size = 4
_strType$ = -16						; size = 4
__$EHRec$ = -12						; size = 12
_pSTGapInfo$ = 8					; size = 4
_p_szRQ$ = 8						; size = 4
_bIsReset$ = 12						; size = 4
?CalcGapRevision@CGapRevisionAddInImp@@MAEXPBDH@Z PROC	; CGapRevisionAddInImp::CalcGapRevision, COMDAT
; _this$ = ecx

; 335  : {

  00000	55		 push	 ebp
  00001	8b ec		 mov	 ebp, esp
  00003	6a ff		 push	 -1
  00005	68 00 00 00 00	 push	 __ehhandler$?CalcGapRevision@CGapRevisionAddInImp@@MAEXPBDH@Z
  0000a	64 a1 00 00 00
	00		 mov	 eax, DWORD PTR fs:0
  00010	50		 push	 eax
  00011	81 ec 80 00 00
	00		 sub	 esp, 128		; 00000080H
  00017	53		 push	 ebx
  00018	56		 push	 esi
  00019	57		 push	 edi
  0001a	a1 00 00 00 00	 mov	 eax, DWORD PTR ___security_cookie
  0001f	33 c5		 xor	 eax, ebp
  00021	50		 push	 eax
  00022	8d 45 f4	 lea	 eax, DWORD PTR __$EHRec$[ebp]
  00025	64 a3 00 00 00
	00		 mov	 DWORD PTR fs:0, eax
  0002b	8b c1		 mov	 eax, ecx
  0002d	89 45 c8	 mov	 DWORD PTR _this$1$[ebp], eax

; 336  : 	if( !m_bUseGapRevision || !p_szRQ || !*p_szRQ) return;

  00030	83 78 5c 00	 cmp	 DWORD PTR [eax+92], 0
  00034	0f 84 ac 05 00
	00		 je	 $LN6@CalcGapRev
  0003a	8b 7d 08	 mov	 edi, DWORD PTR _p_szRQ$[ebp]
  0003d	85 ff		 test	 edi, edi
  0003f	0f 84 a1 05 00
	00		 je	 $LN6@CalcGapRev
  00045	80 3f 00	 cmp	 BYTE PTR [edi], 0
  00048	0f 84 98 05 00
	00		 je	 $LN6@CalcGapRev

; 337  : 
; 338  : 	IPacketManager *pPacketList = m_pIPacketListManager->GetPacketManager( p_szRQ);

  0004e	8b 48 1c	 mov	 ecx, DWORD PTR [eax+28]
  00051	57		 push	 edi
  00052	8b 01		 mov	 eax, DWORD PTR [ecx]
  00054	ff 50 10	 call	 DWORD PTR [eax+16]
  00057	8b f0		 mov	 esi, eax

; 339  : 	if( !pPacketList) return;

  00059	85 f6		 test	 esi, esi
  0005b	0f 84 85 05 00
	00		 je	 $LN6@CalcGapRev

; 340  : 
; 341  : 	//--------------------------------------------------------
; 342  : 	//>> CME(1),COBT(2)    
; 343  : 	CString szMarketType;

  00061	8d 4d c0	 lea	 ecx, DWORD PTR _szMarketType$[ebp]
  00064	ff 15 00 00 00
	00		 call	 DWORD PTR __imp_??0?$CStringT@DV?$StrTraitMFC_DLL@DV?$ChTraitsCRT@D@ATL@@@@@ATL@@QAE@XZ
  0006a	c7 45 fc 00 00
	00 00		 mov	 DWORD PTR __$EHRec$[ebp+8], 0
; File D:\git\src\IBK\IBK_DRFN\ProjSrc\SrcChartEx\ChartOCX\AddInManager\Include_AddIn\I000000\_IString.h

; 39   : 		m_pIStrData = p_pIString;	// Do not AddRef(). Because It must be Return Value.

  00071	c7 45 a8 00 00
	00 00		 mov	 DWORD PTR _szIStr$[ebp+4], 0

; 40   : 		if( m_pIStrData) m_szData = m_pIStrData->GetData();
; 41   : 		else m_szData = NULL;

  00078	c7 45 a4 00 00
	00 00		 mov	 DWORD PTR _szIStr$[ebp], 0
; File D:\git\src\IBK\IBK_DRFN\ProjSrc\SrcChartEx\ChartOCX\AddInManager\ChartCommonAddIn\GapRevisionAddInImp.cpp

; 345  : 	pPacketList->GetHelpMessageItem( HELP_MSG_MARKETTYPE, szIStr);

  0007f	8b 06		 mov	 eax, DWORD PTR [esi]
  00081	8d 4d a4	 lea	 ecx, DWORD PTR _szIStr$[ebp]
  00084	51		 push	 ecx
  00085	68 00 00 00 00	 push	 OFFSET ??_C@_0L@MLIHGNMC@MARKETTYPE@
  0008a	8b ce		 mov	 ecx, esi
  0008c	c6 45 fc 01	 mov	 BYTE PTR __$EHRec$[ebp+8], 1
  00090	ff 50 18	 call	 DWORD PTR [eax+24]

; 346  : 	szMarketType = szIStr;

  00093	ff 75 a4	 push	 DWORD PTR _szIStr$[ebp]
  00096	8d 4d c0	 lea	 ecx, DWORD PTR _szMarketType$[ebp]
  00099	ff 15 00 00 00
	00		 call	 DWORD PTR __imp_??4?$CStringT@DV?$StrTraitMFC_DLL@DV?$ChTraitsCRT@D@ATL@@@@@ATL@@QAEAAV01@PBD@Z

; 347  : 	int nMarketType = atoi(szMarketType);

  0009f	ff 75 c0	 push	 DWORD PTR _szMarketType$[ebp]
  000a2	8b 1d 00 00 00
	00		 mov	 ebx, DWORD PTR __imp__atoi
  000a8	ff d3		 call	 ebx
  000aa	83 c4 04	 add	 esp, 4

; 348  : 
; 349  : 	if( nMarketType == 1 || nMarketType == 2)

  000ad	83 f8 01	 cmp	 eax, 1
  000b0	0f 84 02 05 00
	00		 je	 $LN9@CalcGapRev
  000b6	83 f8 02	 cmp	 eax, 2
  000b9	0f 84 f9 04 00
	00		 je	 $LN9@CalcGapRev

; 352  : 		return;
; 353  : 	}
; 354  : 	//<< CME(1),COBT(2)    
; 355  : 
; 356  : 	// Market BaseTime 
; 357  : 	CString szMarketTime;

  000bf	8d 4d e8	 lea	 ecx, DWORD PTR _szMarketTime$[ebp]
  000c2	ff 15 00 00 00
	00		 call	 DWORD PTR __imp_??0?$CStringT@DV?$StrTraitMFC_DLL@DV?$ChTraitsCRT@D@ATL@@@@@ATL@@QAE@XZ

; 358  : 	pPacketList->GetHelpMessageItem( HELP_MSG_MARKETTIME, szIStr);

  000c8	8b 06		 mov	 eax, DWORD PTR [esi]
  000ca	8d 4d a4	 lea	 ecx, DWORD PTR _szIStr$[ebp]
  000cd	51		 push	 ecx
  000ce	68 00 00 00 00	 push	 OFFSET ??_C@_0L@IPGAAKHO@MARKETTIME@
  000d3	8b ce		 mov	 ecx, esi
  000d5	c6 45 fc 03	 mov	 BYTE PTR __$EHRec$[ebp+8], 3
  000d9	ff 50 18	 call	 DWORD PTR [eax+24]

; 359  : 	szMarketTime = szIStr;

  000dc	ff 75 a4	 push	 DWORD PTR _szIStr$[ebp]
  000df	8d 4d e8	 lea	 ecx, DWORD PTR _szMarketTime$[ebp]
  000e2	ff 15 00 00 00
	00		 call	 DWORD PTR __imp_??4?$CStringT@DV?$StrTraitMFC_DLL@DV?$ChTraitsCRT@D@ATL@@@@@ATL@@QAEAAV01@PBD@Z
; File C:\Program Files (x86)\Microsoft Visual Studio\2019\Community\VC\Tools\MSVC\14.29.30133\atlmfc\include\atlsimpstr.h

; 519  : 		return( GetData()->nDataLength );

  000e8	8b 45 e8	 mov	 eax, DWORD PTR _szMarketTime$[ebp]
; File D:\git\src\IBK\IBK_DRFN\ProjSrc\SrcChartEx\ChartOCX\AddInManager\ChartCommonAddIn\GapRevisionAddInImp.cpp

; 361  : 	int nBaseTime = 0;

  000eb	c7 45 bc 00 00
	00 00		 mov	 DWORD PTR _nBaseTime$1$[ebp], 0

; 362  : 	if(szMarketTime.GetLength() >= 5 && szMarketTime.Find("|") > 0)

  000f2	83 78 f4 05	 cmp	 DWORD PTR [eax-12], 5
  000f6	7c 48		 jl	 SHORT $LN10@CalcGapRev
  000f8	6a 00		 push	 0
  000fa	68 00 00 00 00	 push	 OFFSET ??_C@_01DNKMNLPK@?$HM@
  000ff	8d 4d e8	 lea	 ecx, DWORD PTR _szMarketTime$[ebp]
  00102	ff 15 00 00 00
	00		 call	 DWORD PTR __imp_?Find@?$CStringT@DV?$StrTraitMFC_DLL@DV?$ChTraitsCRT@D@ATL@@@@@ATL@@QBEHPBDH@Z
  00108	85 c0		 test	 eax, eax
  0010a	7e 34		 jle	 SHORT $LN10@CalcGapRev

; 363  : 	{
; 364  : 		CString strStartTime = szMarketTime.Mid(0, szMarketTime.Find("|"));

  0010c	6a 00		 push	 0
  0010e	68 00 00 00 00	 push	 OFFSET ??_C@_01DNKMNLPK@?$HM@
  00113	8d 4d e8	 lea	 ecx, DWORD PTR _szMarketTime$[ebp]
  00116	ff 15 00 00 00
	00		 call	 DWORD PTR __imp_?Find@?$CStringT@DV?$StrTraitMFC_DLL@DV?$ChTraitsCRT@D@ATL@@@@@ATL@@QBEHPBDH@Z
  0011c	50		 push	 eax
  0011d	6a 00		 push	 0
  0011f	8d 45 c4	 lea	 eax, DWORD PTR _strStartTime$4[ebp]
  00122	50		 push	 eax
  00123	8d 4d e8	 lea	 ecx, DWORD PTR _szMarketTime$[ebp]
  00126	ff 15 00 00 00
	00		 call	 DWORD PTR __imp_?Mid@?$CStringT@DV?$StrTraitMFC_DLL@DV?$ChTraitsCRT@D@ATL@@@@@ATL@@QBE?AV12@HH@Z

; 365  : 		nBaseTime = atoi(strStartTime);

  0012c	ff 75 c4	 push	 DWORD PTR _strStartTime$4[ebp]
  0012f	ff d3		 call	 ebx
  00131	83 c4 04	 add	 esp, 4
  00134	89 45 bc	 mov	 DWORD PTR _nBaseTime$1$[ebp], eax

; 366  : 	}

  00137	8d 4d c4	 lea	 ecx, DWORD PTR _strStartTime$4[ebp]
  0013a	ff 15 00 00 00
	00		 call	 DWORD PTR __imp_??1?$CStringT@DV?$StrTraitMFC_DLL@DV?$ChTraitsCRT@D@ATL@@@@@ATL@@QAE@XZ
$LN10@CalcGapRev:

; 367  : 	
; 368  : 	// RQ  
; 369  : 	IPacket *pTimePacket = pPacketList->GetPacket(_MTEXT( C0_DATE_TIME));

  00140	8b 0d 54 00 00
	00		 mov	 ecx, DWORD PTR ?g_iMetaTable@@3VIMetaTable@@A+84
  00146	8b 16		 mov	 edx, DWORD PTR [esi]
  00148	ff 31		 push	 DWORD PTR [ecx]
  0014a	8b ce		 mov	 ecx, esi
  0014c	ff 52 10	 call	 DWORD PTR [edx+16]
  0014f	8b d8		 mov	 ebx, eax
  00151	89 5d b0	 mov	 DWORD PTR _pTimePacket$1$[ebp], ebx

; 370  : 	if( !pTimePacket)

  00154	85 db		 test	 ebx, ebx
  00156	75 14		 jne	 SHORT $LN11@CalcGapRev

; 371  : 	{
; 372  : 		pPacketList->Release();

  00158	8b 06		 mov	 eax, DWORD PTR [esi]
  0015a	56		 push	 esi
  0015b	ff 50 08	 call	 DWORD PTR [eax+8]

; 505  : }

  0015e	8d 4d e8	 lea	 ecx, DWORD PTR _szMarketTime$[ebp]
  00161	ff 15 00 00 00
	00		 call	 DWORD PTR __imp_??1?$CStringT@DV?$StrTraitMFC_DLL@DV?$ChTraitsCRT@D@ATL@@@@@ATL@@QAE@XZ
  00167	e9 52 04 00 00	 jmp	 $LN33@CalcGapRev
$LN11@CalcGapRev:

; 373  : 		return;
; 374  : 	}
; 375  : 
; 376  : 	//  Check
; 377  : 	CString strType;

  0016c	8d 4d f0	 lea	 ecx, DWORD PTR _strType$[ebp]
  0016f	ff 15 00 00 00
	00		 call	 DWORD PTR __imp_??0?$CStringT@DV?$StrTraitMFC_DLL@DV?$ChTraitsCRT@D@ATL@@@@@ATL@@QAE@XZ

; 378  : 	szIStr = pTimePacket->GetType();

  00175	8b 03		 mov	 eax, DWORD PTR [ebx]
  00177	8b cb		 mov	 ecx, ebx
  00179	6a 01		 push	 1
  0017b	c6 45 fc 05	 mov	 BYTE PTR __$EHRec$[ebp+8], 5
  0017f	ff 50 1c	 call	 DWORD PTR [eax+28]
  00182	8b c8		 mov	 ecx, eax
; File D:\git\src\IBK\IBK_DRFN\ProjSrc\SrcChartEx\ChartOCX\AddInManager\Include_AddIn\I000000\_IString.h

; 67   : 		if( m_pIStrData) m_pIStrData->Release();

  00184	8b 45 a8	 mov	 eax, DWORD PTR _szIStr$[ebp+4]
; File D:\git\src\IBK\IBK_DRFN\ProjSrc\SrcChartEx\ChartOCX\AddInManager\ChartCommonAddIn\GapRevisionAddInImp.cpp

; 378  : 	szIStr = pTimePacket->GetType();

  00187	89 4d c4	 mov	 DWORD PTR _stringSrc$1$[ebp], ecx
; File D:\git\src\IBK\IBK_DRFN\ProjSrc\SrcChartEx\ChartOCX\AddInManager\Include_AddIn\I000000\_IString.h

; 67   : 		if( m_pIStrData) m_pIStrData->Release();

  0018a	85 c0		 test	 eax, eax
  0018c	74 09		 je	 SHORT $LN58@CalcGapRev
  0018e	8b 08		 mov	 ecx, DWORD PTR [eax]
  00190	50		 push	 eax
  00191	ff 51 08	 call	 DWORD PTR [ecx+8]
  00194	8b 4d c4	 mov	 ecx, DWORD PTR _stringSrc$1$[ebp]
$LN58@CalcGapRev:

; 68   : 		m_pIStrData = stringSrc;	// Do not AddRef(). Because It must be Return Value.

  00197	89 4d a8	 mov	 DWORD PTR _szIStr$[ebp+4], ecx
  0019a	85 c9		 test	 ecx, ecx

; 69   : 		if( m_pIStrData) m_szData = m_pIStrData->GetData();

  0019c	74 07		 je	 SHORT $LN59@CalcGapRev
  0019e	8b 01		 mov	 eax, DWORD PTR [ecx]
  001a0	ff 50 10	 call	 DWORD PTR [eax+16]
  001a3	eb 02		 jmp	 SHORT $LN127@CalcGapRev
$LN59@CalcGapRev:

; 70   : 		else m_szData = NULL;

  001a5	33 c0		 xor	 eax, eax
$LN127@CalcGapRev:
; File D:\git\src\IBK\IBK_DRFN\ProjSrc\SrcChartEx\ChartOCX\AddInManager\ChartCommonAddIn\GapRevisionAddInImp.cpp

; 379  : 	strType = (LPCTSTR)szIStr;

  001a7	50		 push	 eax
  001a8	8d 4d f0	 lea	 ecx, DWORD PTR _strType$[ebp]
  001ab	89 45 a4	 mov	 DWORD PTR _szIStr$[ebp], eax
  001ae	ff 15 00 00 00
	00		 call	 DWORD PTR __imp_??4?$CStringT@DV?$StrTraitMFC_DLL@DV?$ChTraitsCRT@D@ATL@@@@@ATL@@QAEAAV01@PBD@Z
; File C:\Program Files (x86)\Microsoft Visual Studio\2019\Community\VC\Tools\MSVC\14.29.30133\atlmfc\include\cstringt.h

; 2567 : 		return( str1.Compare( psz2 ) != 0 );

  001b4	68 00 00 00 00	 push	 OFFSET ??_C@_08JFMBEEDE@DDHHMMSS@
  001b9	8d 4d f0	 lea	 ecx, DWORD PTR _strType$[ebp]
  001bc	ff 15 00 00 00
	00		 call	 DWORD PTR __imp_?Compare@?$CStringT@DV?$StrTraitMFC_DLL@DV?$ChTraitsCRT@D@ATL@@@@@ATL@@QBEHPBD@Z
  001c2	85 c0		 test	 eax, eax
; File D:\git\src\IBK\IBK_DRFN\ProjSrc\SrcChartEx\ChartOCX\AddInManager\ChartCommonAddIn\GapRevisionAddInImp.cpp

; 380  : 	if( strType != "DDHHMMSS" && strType != "MMDDHHMM")

  001c4	74 20		 je	 SHORT $LN12@CalcGapRev
; File C:\Program Files (x86)\Microsoft Visual Studio\2019\Community\VC\Tools\MSVC\14.29.30133\atlmfc\include\cstringt.h

; 2567 : 		return( str1.Compare( psz2 ) != 0 );

  001c6	68 00 00 00 00	 push	 OFFSET ??_C@_08KLIIINKM@MMDDHHMM@
  001cb	8d 4d f0	 lea	 ecx, DWORD PTR _strType$[ebp]
  001ce	ff 15 00 00 00
	00		 call	 DWORD PTR __imp_?Compare@?$CStringT@DV?$StrTraitMFC_DLL@DV?$ChTraitsCRT@D@ATL@@@@@ATL@@QBEHPBD@Z
  001d4	85 c0		 test	 eax, eax
; File D:\git\src\IBK\IBK_DRFN\ProjSrc\SrcChartEx\ChartOCX\AddInManager\ChartCommonAddIn\GapRevisionAddInImp.cpp

; 380  : 	if( strType != "DDHHMMSS" && strType != "MMDDHHMM")

  001d6	74 0e		 je	 SHORT $LN12@CalcGapRev

; 381  : 	{
; 382  : 		pTimePacket->Release();

  001d8	8b 03		 mov	 eax, DWORD PTR [ebx]
  001da	53		 push	 ebx
  001db	ff 50 08	 call	 DWORD PTR [eax+8]

; 383  : 		pPacketList->Release();

  001de	8b 06		 mov	 eax, DWORD PTR [esi]
  001e0	56		 push	 esi
  001e1	e9 bb 03 00 00	 jmp	 $LN128@CalcGapRev
$LN12@CalcGapRev:

; 388  : 	if( !m_mapRQGapInfo.Lookup( p_szRQ, pSTGapInfo))

  001e6	8b 4d c8	 mov	 ecx, DWORD PTR _this$1$[ebp]
; File C:\Program Files (x86)\Microsoft Visual Studio\2019\Community\VC\Tools\MSVC\14.29.30133\atlmfc\include\afxtempl.h

; 2052 : 		{ return BASE_CLASS::Lookup(key, (typename BASE_CLASS::BASE_VALUE&)rValue); }

  001e9	8d 45 08	 lea	 eax, DWORD PTR _pSTGapInfo$[ebp]
  001ec	50		 push	 eax
  001ed	57		 push	 edi
; File D:\git\src\IBK\IBK_DRFN\ProjSrc\SrcChartEx\ChartOCX\AddInManager\ChartCommonAddIn\GapRevisionAddInImp.cpp

; 388  : 	if( !m_mapRQGapInfo.Lookup( p_szRQ, pSTGapInfo))

  001ee	83 c1 40	 add	 ecx, 64			; 00000040H
  001f1	c7 45 08 00 00
	00 00		 mov	 DWORD PTR _pSTGapInfo$[ebp], 0
; File C:\Program Files (x86)\Microsoft Visual Studio\2019\Community\VC\Tools\MSVC\14.29.30133\atlmfc\include\afxtempl.h

; 2052 : 		{ return BASE_CLASS::Lookup(key, (typename BASE_CLASS::BASE_VALUE&)rValue); }

  001f8	e8 00 00 00 00	 call	 ?Lookup@CMapStringToPtr@@QBEHPBDAAPAX@Z ; CMapStringToPtr::Lookup
; File D:\git\src\IBK\IBK_DRFN\ProjSrc\SrcChartEx\ChartOCX\AddInManager\ChartCommonAddIn\GapRevisionAddInImp.cpp

; 388  : 	if( !m_mapRQGapInfo.Lookup( p_szRQ, pSTGapInfo))

  001fd	85 c0		 test	 eax, eax
  001ff	75 0e		 jne	 SHORT $LN13@CalcGapRev

; 389  : 	{
; 390  : 		pTimePacket->Release();

  00201	8b 03		 mov	 eax, DWORD PTR [ebx]
  00203	53		 push	 ebx
  00204	ff 50 08	 call	 DWORD PTR [eax+8]

; 391  : 		pPacketList->Release();

  00207	8b 06		 mov	 eax, DWORD PTR [esi]
  00209	56		 push	 esi
  0020a	e9 92 03 00 00	 jmp	 $LN128@CalcGapRev
$LN13@CalcGapRev:

; 392  : 		return;
; 393  : 	}
; 394  : 
; 395  : 	IPacket *pOpenPacket = pPacketList->GetPacket(_MTEXT( C0_OPEN));

  0020f	a1 54 00 00 00	 mov	 eax, DWORD PTR ?g_iMetaTable@@3VIMetaTable@@A+84
  00214	8b ce		 mov	 ecx, esi
  00216	8b 16		 mov	 edx, DWORD PTR [esi]
  00218	ff 70 08	 push	 DWORD PTR [eax+8]
  0021b	ff 52 10	 call	 DWORD PTR [edx+16]

; 396  : 	IPacket *pHighPacket = pPacketList->GetPacket(_MTEXT( C0_HIGH));

  0021e	8b 0d 54 00 00
	00		 mov	 ecx, DWORD PTR ?g_iMetaTable@@3VIMetaTable@@A+84
  00224	8b 16		 mov	 edx, DWORD PTR [esi]
  00226	89 45 d8	 mov	 DWORD PTR _pOpenPacket$1$[ebp], eax
  00229	ff 71 0c	 push	 DWORD PTR [ecx+12]
  0022c	8b ce		 mov	 ecx, esi
  0022e	ff 52 10	 call	 DWORD PTR [edx+16]

; 397  : 	IPacket *pLowPacket = pPacketList->GetPacket(_MTEXT( C0_LOW));

  00231	8b 0d 54 00 00
	00		 mov	 ecx, DWORD PTR ?g_iMetaTable@@3VIMetaTable@@A+84
  00237	8b 16		 mov	 edx, DWORD PTR [esi]
  00239	89 45 cc	 mov	 DWORD PTR _pHighPacket$1$[ebp], eax
  0023c	ff 71 10	 push	 DWORD PTR [ecx+16]
  0023f	8b ce		 mov	 ecx, esi
  00241	ff 52 10	 call	 DWORD PTR [edx+16]

; 398  : 	IPacket *pClosePacket = pPacketList->GetPacket(_MTEXT( C0_CLOSE));

  00244	8b 0d 54 00 00
	00		 mov	 ecx, DWORD PTR ?g_iMetaTable@@3VIMetaTable@@A+84
  0024a	8b 16		 mov	 edx, DWORD PTR [esi]
  0024c	89 45 c8	 mov	 DWORD PTR _pLowPacket$1$[ebp], eax
  0024f	ff 71 14	 push	 DWORD PTR [ecx+20]
  00252	8b ce		 mov	 ecx, esi
  00254	ff 52 10	 call	 DWORD PTR [edx+16]

; 399  : 	pPacketList->Release();

  00257	8b 0e		 mov	 ecx, DWORD PTR [esi]
  00259	8b f8		 mov	 edi, eax
  0025b	56		 push	 esi
  0025c	89 7d c4	 mov	 DWORD PTR _pClosePacket$1$[ebp], edi
  0025f	ff 51 08	 call	 DWORD PTR [ecx+8]

; 400  : 	
; 401  : 	//--------------------------------------------------------
; 402  : 	//>>  
; 403  : 	double dTime, dOpen, dHigh, dLow, dClose;
; 404  : 	double dGap=0, dGapData;
; 405  : 	BOOL bNeedCalcuate = FALSE;
; 406  : 
; 407  : 	int nPacketCount = pClosePacket->GetDataCount();

  00262	8b 17		 mov	 edx, DWORD PTR [edi]
  00264	0f 57 c0	 xorps	 xmm0, xmm0
  00267	8b cf		 mov	 ecx, edi
  00269	f2 0f 11 45 9c	 movsd	 QWORD PTR _dGap$1$[ebp], xmm0
  0026e	c7 45 ec 00 00
	00 00		 mov	 DWORD PTR _bNeedCalcuate$1$[ebp], 0
  00275	ff 52 2c	 call	 DWORD PTR [edx+44]

; 408  : 	int nCurIndx = 0;
; 409  : 	int nNextIndx = -1;
; 410  : 	int nCurDay = 0, nNextDay = 0, nCurTime=0, nNextTime=0;

  00278	33 ff		 xor	 edi, edi
  0027a	c7 45 e4 ff ff
	ff ff		 mov	 DWORD PTR _nNextIndx$1$[ebp], -1
  00281	8b d0		 mov	 edx, eax
  00283	89 7d dc	 mov	 DWORD PTR _nCurDay$1$[ebp], edi
  00286	89 55 b8	 mov	 DWORD PTR _nPacketCount$1$[ebp], edx
  00289	89 7d d4	 mov	 DWORD PTR _nCurTime$1$[ebp], edi

; 411  : 	BOOL bInitialized = FALSE;

  0028c	89 7d d0	 mov	 DWORD PTR _bInitialized$1$[ebp], edi

; 412  : 
; 413  : 	//   
; 414  : 	if(bIsReset)

  0028f	39 7d 0c	 cmp	 DWORD PTR _bIsReset$[ebp], edi
  00292	74 19		 je	 SHORT $LN14@CalcGapRev

; 415  : 	{
; 416  : 		pSTGapInfo->Init();

  00294	8b 4d 08	 mov	 ecx, DWORD PTR _pSTGapInfo$[ebp]
  00297	e8 00 00 00 00	 call	 ?Init@ST_GAP_INFO@@QAEXXZ ; ST_GAP_INFO::Init

; 417  : 		nCurIndx = nPacketCount - 1;

  0029c	8b 4d b8	 mov	 ecx, DWORD PTR _nPacketCount$1$[ebp]

; 418  : 		pSTGapInfo->SetPacketCount(nPacketCount);

  0029f	8b 45 08	 mov	 eax, DWORD PTR _pSTGapInfo$[ebp]
  002a2	8d 71 ff	 lea	 esi, DWORD PTR [ecx-1]
  002a5	89 48 20	 mov	 DWORD PTR [eax+32], ecx

; 419  : 	}

  002a8	e9 c2 00 00 00	 jmp	 $LN19@CalcGapRev
$LN14@CalcGapRev:

; 420  : 	else
; 421  : 	{
; 422  : 		nCurIndx = (nPacketCount - pSTGapInfo->GetPacketCount()) - 1;

  002ad	8b 45 08	 mov	 eax, DWORD PTR _pSTGapInfo$[ebp]
  002b0	8b ca		 mov	 ecx, edx
  002b2	0f 57 c0	 xorps	 xmm0, xmm0

; 102  : 	dAllGapValue = 0.0;

  002b5	f2 0f 11 45 9c	 movsd	 QWORD PTR _dGap$1$[ebp], xmm0

; 420  : 	else
; 421  : 	{
; 422  : 		nCurIndx = (nPacketCount - pSTGapInfo->GetPacketCount()) - 1;

  002ba	2b 48 20	 sub	 ecx, DWORD PTR [eax+32]

; 423  : 		nNextIndx = nCurIndx + 1;
; 424  : 		pSTGapInfo->SetPacketCount(nPacketCount);

  002bd	89 50 20	 mov	 DWORD PTR [eax+32], edx
  002c0	33 d2		 xor	 edx, edx

; 104  : 	for(int nIndx = 0; nIndx < nInfoCount; ++nIndx)

  002c2	8b 45 08	 mov	 eax, DWORD PTR _pSTGapInfo$[ebp]

; 420  : 	else
; 421  : 	{
; 422  : 		nCurIndx = (nPacketCount - pSTGapInfo->GetPacketCount()) - 1;

  002c5	89 4d e4	 mov	 DWORD PTR _nNextIndx$1$[ebp], ecx
  002c8	8d 71 ff	 lea	 esi, DWORD PTR [ecx-1]

; 104  : 	for(int nIndx = 0; nIndx < nInfoCount; ++nIndx)

  002cb	39 50 0c	 cmp	 DWORD PTR [eax+12], edx
  002ce	7e 2d		 jle	 SHORT $LN78@CalcGapRev
  002d0	8b d8		 mov	 ebx, eax
$LL79@CalcGapRev:
; File C:\Program Files (x86)\Microsoft Visual Studio\2019\Community\VC\Tools\MSVC\14.29.30133\atlmfc\include\afxtempl.h

; 1136 : 	CNode* pNode = m_pNodeHead;

  002d2	8b 43 04	 mov	 eax, DWORD PTR [ebx+4]
; File D:\git\src\IBK\IBK_DRFN\ProjSrc\SrcChartEx\ChartOCX\AddInManager\ChartCommonAddIn\GapRevisionAddInImp.cpp

; 106  : 		dAllGapValue += m_arGapInfo.GetAt(m_arGapInfo.FindIndex(nIndx));

  002d5	8b ca		 mov	 ecx, edx
; File C:\Program Files (x86)\Microsoft Visual Studio\2019\Community\VC\Tools\MSVC\14.29.30133\atlmfc\include\afxtempl.h

; 1137 : 	while (nIndex--)

  002d7	85 d2		 test	 edx, edx
  002d9	74 0c		 je	 SHORT $LN114@CalcGapRev
  002db	0f 1f 44 00 00	 npad	 5
$LL82@CalcGapRev:

; 1138 : 	{
; 1139 : 		ASSERT(AfxIsValidAddress(pNode, sizeof(CNode)));
; 1140 : 		pNode = pNode->pNext;

  002e0	8b 00		 mov	 eax, DWORD PTR [eax]
  002e2	83 e9 01	 sub	 ecx, 1
  002e5	75 f9		 jne	 SHORT $LL82@CalcGapRev
$LN114@CalcGapRev:
; File D:\git\src\IBK\IBK_DRFN\ProjSrc\SrcChartEx\ChartOCX\AddInManager\ChartCommonAddIn\GapRevisionAddInImp.cpp

; 106  : 		dAllGapValue += m_arGapInfo.GetAt(m_arGapInfo.FindIndex(nIndx));

  002e7	f2 0f 58 40 08	 addsd	 xmm0, QWORD PTR [eax+8]
  002ec	42		 inc	 edx
  002ed	3b 53 0c	 cmp	 edx, DWORD PTR [ebx+12]
  002f0	7c e0		 jl	 SHORT $LL79@CalcGapRev
  002f2	8b 5d b0	 mov	 ebx, DWORD PTR _pTimePacket$1$[ebp]
  002f5	8b 4d e4	 mov	 ecx, DWORD PTR _nNextIndx$1$[ebp]
  002f8	f2 0f 11 45 9c	 movsd	 QWORD PTR _dGap$1$[ebp], xmm0
$LN78@CalcGapRev:

; 425  : 		if(pSTGapInfo->GetAllGapInfo(dGap) > 0)
; 426  : 			bNeedCalcuate = TRUE;
; 427  : 		bInitialized = TRUE;

  002fd	8b 55 08	 mov	 edx, DWORD PTR _pSTGapInfo$[ebp]
  00300	33 c0		 xor	 eax, eax
  00302	c7 45 d0 01 00
	00 00		 mov	 DWORD PTR _bInitialized$1$[ebp], 1
  00309	39 42 0c	 cmp	 DWORD PTR [edx+12], eax

; 428  : 
; 429  : 		pTimePacket->GetData(nNextIndx, dTime);

  0030c	8d 55 94	 lea	 edx, DWORD PTR _dTime$[ebp]
  0030f	52		 push	 edx
  00310	0f 9f c0	 setg	 al
  00313	89 45 ec	 mov	 DWORD PTR _bNeedCalcuate$1$[ebp], eax
  00316	8b 03		 mov	 eax, DWORD PTR [ebx]
  00318	51		 push	 ecx
  00319	8b cb		 mov	 ecx, ebx
  0031b	ff 50 40	 call	 DWORD PTR [eax+64]
; File C:\Program Files (x86)\Microsoft Visual Studio\2019\Community\VC\Tools\MSVC\14.29.30133\atlmfc\include\cstringt.h

; 2486 : 		return(str1.Compare(psz2) == 0);

  0031e	68 00 00 00 00	 push	 OFFSET ??_C@_08KLIIINKM@MMDDHHMM@
  00323	8d 4d f0	 lea	 ecx, DWORD PTR _strType$[ebp]
  00326	ff 15 00 00 00
	00		 call	 DWORD PTR __imp_?Compare@?$CStringT@DV?$StrTraitMFC_DLL@DV?$ChTraitsCRT@D@ATL@@@@@ATL@@QBEHPBD@Z
  0032c	85 c0		 test	 eax, eax
; File D:\git\src\IBK\IBK_DRFN\ProjSrc\SrcChartEx\ChartOCX\AddInManager\ChartCommonAddIn\GapRevisionAddInImp.cpp

; 430  : 		if(strType == "MMDDHHMM")

  0032e	75 11		 jne	 SHORT $LN17@CalcGapRev

; 431  : 		{
; 432  : 			nNextDay = (int)dTime/10000;

  00330	f2 0f 2c 4d 94	 cvttsd2si ecx, QWORD PTR _dTime$[ebp]
  00335	b8 ad 8b db 68	 mov	 eax, 1759218605		; 68db8badH
  0033a	f7 e9		 imul	 ecx
  0033c	c1 fa 0c	 sar	 edx, 12			; 0000000cH

; 433  : 			nNextTime = (int)dTime%10000 * 100;
; 434  : 		}

  0033f	eb 21		 jmp	 SHORT $LN129@CalcGapRev
$LN17@CalcGapRev:
; File C:\Program Files (x86)\Microsoft Visual Studio\2019\Community\VC\Tools\MSVC\14.29.30133\atlmfc\include\cstringt.h

; 2486 : 		return(str1.Compare(psz2) == 0);

  00341	68 00 00 00 00	 push	 OFFSET ??_C@_08JFMBEEDE@DDHHMMSS@
  00346	8d 4d f0	 lea	 ecx, DWORD PTR _strType$[ebp]
  00349	ff 15 00 00 00
	00		 call	 DWORD PTR __imp_?Compare@?$CStringT@DV?$StrTraitMFC_DLL@DV?$ChTraitsCRT@D@ATL@@@@@ATL@@QBEHPBD@Z
  0034f	85 c0		 test	 eax, eax
; File D:\git\src\IBK\IBK_DRFN\ProjSrc\SrcChartEx\ChartOCX\AddInManager\ChartCommonAddIn\GapRevisionAddInImp.cpp

; 435  : 		else if(strType == "DDHHMMSS")

  00351	75 1c		 jne	 SHORT $LN19@CalcGapRev

; 436  : 		{
; 437  : 			nNextDay = (int)dTime/1000000;

  00353	f2 0f 2c 4d 94	 cvttsd2si ecx, QWORD PTR _dTime$[ebp]
  00358	b8 83 de 1b 43	 mov	 eax, 1125899907		; 431bde83H
  0035d	f7 e9		 imul	 ecx
  0035f	c1 fa 12	 sar	 edx, 18			; 00000012H
$LN129@CalcGapRev:

; 438  : 			nNextTime = (int)dTime%1000000;
; 439  : 		}
; 440  : 	}
; 441  : 
; 442  : 	for(; nCurIndx >= 0; --nCurIndx)

  00362	8b 45 ec	 mov	 eax, DWORD PTR _bNeedCalcuate$1$[ebp]
  00365	8b fa		 mov	 edi, edx
  00367	c1 ef 1f	 shr	 edi, 31			; 0000001fH
  0036a	89 45 ec	 mov	 DWORD PTR _bNeedCalcuate$1$[ebp], eax
  0036d	03 fa		 add	 edi, edx
$LN19@CalcGapRev:
  0036f	85 f6		 test	 esi, esi
  00371	0f 88 03 02 00
	00		 js	 $LN3@CalcGapRev
$LL4@CalcGapRev:

; 443  : 	{
; 444  : 		pTimePacket->GetData(nCurIndx, dTime);

  00377	8b 03		 mov	 eax, DWORD PTR [ebx]
  00379	8d 4d 94	 lea	 ecx, DWORD PTR _dTime$[ebp]
  0037c	51		 push	 ecx
  0037d	56		 push	 esi
  0037e	8b cb		 mov	 ecx, ebx
  00380	ff 50 40	 call	 DWORD PTR [eax+64]
; File C:\Program Files (x86)\Microsoft Visual Studio\2019\Community\VC\Tools\MSVC\14.29.30133\atlmfc\include\cstringt.h

; 2486 : 		return(str1.Compare(psz2) == 0);

  00383	68 00 00 00 00	 push	 OFFSET ??_C@_08KLIIINKM@MMDDHHMM@
  00388	8d 4d f0	 lea	 ecx, DWORD PTR _strType$[ebp]
  0038b	ff 15 00 00 00
	00		 call	 DWORD PTR __imp_?Compare@?$CStringT@DV?$StrTraitMFC_DLL@DV?$ChTraitsCRT@D@ATL@@@@@ATL@@QBEHPBD@Z
  00391	85 c0		 test	 eax, eax
; File D:\git\src\IBK\IBK_DRFN\ProjSrc\SrcChartEx\ChartOCX\AddInManager\ChartCommonAddIn\GapRevisionAddInImp.cpp

; 445  : 		if(strType == "MMDDHHMM")

  00393	75 1a		 jne	 SHORT $LN20@CalcGapRev

; 446  : 		{
; 447  : 			nCurDay = (int)dTime/10000;

  00395	f2 0f 2c 45 94	 cvttsd2si eax, QWORD PTR _dTime$[ebp]
  0039a	b9 10 27 00 00	 mov	 ecx, 10000		; 00002710H
  0039f	99		 cdq
  003a0	f7 f9		 idiv	 ecx

; 448  : 			nCurTime = (int)dTime%10000 * 100;

  003a2	6b d2 64	 imul	 edx, edx, 100
  003a5	8b c8		 mov	 ecx, eax
  003a7	89 4d dc	 mov	 DWORD PTR _nCurDay$1$[ebp], ecx
  003aa	89 55 d4	 mov	 DWORD PTR _nCurTime$1$[ebp], edx

; 449  : 		}

  003ad	eb 2f		 jmp	 SHORT $LN22@CalcGapRev
$LN20@CalcGapRev:
; File C:\Program Files (x86)\Microsoft Visual Studio\2019\Community\VC\Tools\MSVC\14.29.30133\atlmfc\include\cstringt.h

; 2486 : 		return(str1.Compare(psz2) == 0);

  003af	68 00 00 00 00	 push	 OFFSET ??_C@_08JFMBEEDE@DDHHMMSS@
  003b4	8d 4d f0	 lea	 ecx, DWORD PTR _strType$[ebp]
  003b7	ff 15 00 00 00
	00		 call	 DWORD PTR __imp_?Compare@?$CStringT@DV?$StrTraitMFC_DLL@DV?$ChTraitsCRT@D@ATL@@@@@ATL@@QBEHPBD@Z
  003bd	85 c0		 test	 eax, eax
; File D:\git\src\IBK\IBK_DRFN\ProjSrc\SrcChartEx\ChartOCX\AddInManager\ChartCommonAddIn\GapRevisionAddInImp.cpp

; 450  : 		else if(strType == "DDHHMMSS")

  003bf	75 17		 jne	 SHORT $LN125@CalcGapRev

; 451  : 		{
; 452  : 			nCurDay = (int)dTime/1000000;

  003c1	f2 0f 2c 45 94	 cvttsd2si eax, QWORD PTR _dTime$[ebp]
  003c6	b9 40 42 0f 00	 mov	 ecx, 1000000		; 000f4240H
  003cb	99		 cdq
  003cc	f7 f9		 idiv	 ecx
  003ce	8b c8		 mov	 ecx, eax
  003d0	89 55 d4	 mov	 DWORD PTR _nCurTime$1$[ebp], edx
  003d3	89 4d dc	 mov	 DWORD PTR _nCurDay$1$[ebp], ecx
  003d6	eb 06		 jmp	 SHORT $LN22@CalcGapRev
$LN125@CalcGapRev:

; 450  : 		else if(strType == "DDHHMMSS")

  003d8	8b 4d dc	 mov	 ecx, DWORD PTR _nCurDay$1$[ebp]
  003db	8b 55 d4	 mov	 edx, DWORD PTR _nCurTime$1$[ebp]
$LN22@CalcGapRev:

; 453  : 			nCurTime = (int)dTime%1000000;
; 454  : 		}
; 455  : 
; 456  : 		if(bInitialized == FALSE)

  003de	83 7d d0 00	 cmp	 DWORD PTR _bInitialized$1$[ebp], 0
  003e2	75 0d		 jne	 SHORT $LN23@CalcGapRev

; 457  : 		{
; 458  : 			bInitialized = TRUE;
; 459  : 			pSTGapInfo->SetRealDate(nCurDay);

  003e4	8b 45 08	 mov	 eax, DWORD PTR _pSTGapInfo$[ebp]
  003e7	c7 45 d0 01 00
	00 00		 mov	 DWORD PTR _bInitialized$1$[ebp], 1
  003ee	89 48 1c	 mov	 DWORD PTR [eax+28], ecx
$LN23@CalcGapRev:

; 460  : 		}
; 461  : 
; 462  : 		if(nCurDay != nNextDay && nCurTime > nBaseTime)

  003f1	3b cf		 cmp	 ecx, edi
  003f3	0f 84 87 00 00
	00		 je	 $LN97@CalcGapRev
  003f9	3b 55 bc	 cmp	 edx, DWORD PTR _nBaseTime$1$[ebp]
  003fc	0f 8e 7e 00 00
	00		 jle	 $LN97@CalcGapRev

; 463  : 		{
; 464  : 			if(nCurIndx != (pClosePacket->GetDataCount()-1))

  00402	8b 7d c4	 mov	 edi, DWORD PTR _pClosePacket$1$[ebp]
  00405	8b cf		 mov	 ecx, edi
  00407	8b 07		 mov	 eax, DWORD PTR [edi]
  00409	ff 50 2c	 call	 DWORD PTR [eax+44]
  0040c	48		 dec	 eax
  0040d	3b f0		 cmp	 esi, eax
  0040f	74 6f		 je	 SHORT $LN97@CalcGapRev

; 465  : 			{
; 466  : 				double dOpenData, dCloseData;
; 467  : 				pOpenPacket->GetData(nNextIndx, dOpenData);

  00411	8b 4d d8	 mov	 ecx, DWORD PTR _pOpenPacket$1$[ebp]
  00414	8d 55 ac	 lea	 edx, DWORD PTR _dOpenData$2[ebp]
  00417	52		 push	 edx
  00418	ff 75 e4	 push	 DWORD PTR _nNextIndx$1$[ebp]
  0041b	8b 01		 mov	 eax, DWORD PTR [ecx]
  0041d	ff 50 40	 call	 DWORD PTR [eax+64]

; 468  : 				pClosePacket->GetData(nCurIndx, dCloseData);

  00420	8b 07		 mov	 eax, DWORD PTR [edi]
  00422	8d 4d b4	 lea	 ecx, DWORD PTR _dCloseData$3[ebp]
  00425	51		 push	 ecx
  00426	56		 push	 esi
  00427	8b cf		 mov	 ecx, edi
  00429	ff 50 40	 call	 DWORD PTR [eax+64]

; 469  : 				dGapData = (dOpenData - dGap) - dCloseData;

  0042c	f2 0f 10 45 ac	 movsd	 xmm0, QWORD PTR _dOpenData$2[ebp]
  00431	f2 0f 5c 45 9c	 subsd	 xmm0, QWORD PTR _dGap$1$[ebp]

; 58   : 		m_arGapInfo.AddTail(dGapValue);

  00436	8b 7d 08	 mov	 edi, DWORD PTR _pSTGapInfo$[ebp]
; File C:\Program Files (x86)\Microsoft Visual Studio\2019\Community\VC\Tools\MSVC\14.29.30133\atlmfc\include\afxtempl.h

; 968  : 	CNode* pNewNode = NewNode(m_pNodeTail, NULL);

  00439	8b cf		 mov	 ecx, edi
  0043b	6a 00		 push	 0
; File D:\git\src\IBK\IBK_DRFN\ProjSrc\SrcChartEx\ChartOCX\AddInManager\ChartCommonAddIn\GapRevisionAddInImp.cpp

; 471  : 				bNeedCalcuate = TRUE;

  0043d	c7 45 ec 01 00
	00 00		 mov	 DWORD PTR _bNeedCalcuate$1$[ebp], 1
  00444	f2 0f 5c 45 b4	 subsd	 xmm0, QWORD PTR _dCloseData$3[ebp]
; File C:\Program Files (x86)\Microsoft Visual Studio\2019\Community\VC\Tools\MSVC\14.29.30133\atlmfc\include\afxtempl.h

; 968  : 	CNode* pNewNode = NewNode(m_pNodeTail, NULL);

  00449	ff 77 08	 push	 DWORD PTR [edi+8]
; File D:\git\src\IBK\IBK_DRFN\ProjSrc\SrcChartEx\ChartOCX\AddInManager\ChartCommonAddIn\GapRevisionAddInImp.cpp

; 469  : 				dGapData = (dOpenData - dGap) - dCloseData;

  0044c	f2 0f 11 45 e0	 movsd	 QWORD PTR _dGapData$1$[ebp], xmm0

; 470  : 				dGap += dGapData;

  00451	f2 0f 58 45 9c	 addsd	 xmm0, QWORD PTR _dGap$1$[ebp]
  00456	f2 0f 11 45 9c	 movsd	 QWORD PTR _dGap$1$[ebp], xmm0
; File C:\Program Files (x86)\Microsoft Visual Studio\2019\Community\VC\Tools\MSVC\14.29.30133\atlmfc\include\afxtempl.h

; 968  : 	CNode* pNewNode = NewNode(m_pNodeTail, NULL);

  0045b	e8 00 00 00 00	 call	 ?NewNode@?$CList@NN@@IAEPAUCNode@1@PAU21@0@Z ; CList<double,double>::NewNode

; 969  : 	pNewNode->data = newElement;

  00460	f2 0f 10 45 e0	 movsd	 xmm0, QWORD PTR _dGapData$1$[ebp]
  00465	f2 0f 11 40 08	 movsd	 QWORD PTR [eax+8], xmm0

; 970  : 	if (m_pNodeTail != NULL)

  0046a	8b 4f 08	 mov	 ecx, DWORD PTR [edi+8]
  0046d	85 c9		 test	 ecx, ecx
  0046f	74 07		 je	 SHORT $LN104@CalcGapRev

; 971  : 		m_pNodeTail->pNext = pNewNode;

  00471	89 01		 mov	 DWORD PTR [ecx], eax

; 974  : 	m_pNodeTail = pNewNode;

  00473	89 47 08	 mov	 DWORD PTR [edi+8], eax
; File D:\git\src\IBK\IBK_DRFN\ProjSrc\SrcChartEx\ChartOCX\AddInManager\ChartCommonAddIn\GapRevisionAddInImp.cpp

; 477  : 		if(bNeedCalcuate)

  00476	eb 12		 jmp	 SHORT $LN124@CalcGapRev
$LN104@CalcGapRev:
; File C:\Program Files (x86)\Microsoft Visual Studio\2019\Community\VC\Tools\MSVC\14.29.30133\atlmfc\include\afxtempl.h

; 973  : 		m_pNodeHead = pNewNode;

  00478	89 47 04	 mov	 DWORD PTR [edi+4], eax

; 974  : 	m_pNodeTail = pNewNode;

  0047b	89 47 08	 mov	 DWORD PTR [edi+8], eax
; File D:\git\src\IBK\IBK_DRFN\ProjSrc\SrcChartEx\ChartOCX\AddInManager\ChartCommonAddIn\GapRevisionAddInImp.cpp

; 477  : 		if(bNeedCalcuate)

  0047e	eb 0a		 jmp	 SHORT $LN124@CalcGapRev
$LN97@CalcGapRev:
  00480	83 7d ec 00	 cmp	 DWORD PTR _bNeedCalcuate$1$[ebp], 0
  00484	0f 84 e1 00 00
	00		 je	 $LN26@CalcGapRev
$LN124@CalcGapRev:

; 478  : 		{
; 479  : 			pOpenPacket->GetData(nCurIndx, dOpen);

  0048a	8b 4d d8	 mov	 ecx, DWORD PTR _pOpenPacket$1$[ebp]
  0048d	8d 55 8c	 lea	 edx, DWORD PTR _dOpen$[ebp]
  00490	52		 push	 edx
  00491	56		 push	 esi
  00492	8b 01		 mov	 eax, DWORD PTR [ecx]
  00494	ff 50 40	 call	 DWORD PTR [eax+64]

; 480  : 			dOpen += dGap;

  00497	f2 0f 10 45 8c	 movsd	 xmm0, QWORD PTR _dOpen$[ebp]

; 481  : 			pHighPacket->GetData(nCurIndx, dHigh);

  0049c	8d 55 84	 lea	 edx, DWORD PTR _dHigh$[ebp]
  0049f	f2 0f 58 45 9c	 addsd	 xmm0, QWORD PTR _dGap$1$[ebp]
  004a4	8b 4d cc	 mov	 ecx, DWORD PTR _pHighPacket$1$[ebp]
  004a7	52		 push	 edx
  004a8	56		 push	 esi
  004a9	f2 0f 11 45 8c	 movsd	 QWORD PTR _dOpen$[ebp], xmm0
  004ae	8b 01		 mov	 eax, DWORD PTR [ecx]
  004b0	ff 50 40	 call	 DWORD PTR [eax+64]

; 482  : 			dHigh += dGap;

  004b3	f2 0f 10 45 84	 movsd	 xmm0, QWORD PTR _dHigh$[ebp]

; 483  : 			pLowPacket->GetData(nCurIndx, dLow);

  004b8	8d 95 7c ff ff
	ff		 lea	 edx, DWORD PTR _dLow$[ebp]
  004be	f2 0f 58 45 9c	 addsd	 xmm0, QWORD PTR _dGap$1$[ebp]
  004c3	8b 4d c8	 mov	 ecx, DWORD PTR _pLowPacket$1$[ebp]
  004c6	52		 push	 edx
  004c7	56		 push	 esi
  004c8	f2 0f 11 45 84	 movsd	 QWORD PTR _dHigh$[ebp], xmm0
  004cd	8b 01		 mov	 eax, DWORD PTR [ecx]
  004cf	ff 50 40	 call	 DWORD PTR [eax+64]

; 484  : 			dLow += dGap;

  004d2	f2 0f 10 85 7c
	ff ff ff	 movsd	 xmm0, QWORD PTR _dLow$[ebp]

; 485  : 			pClosePacket->GetData(nCurIndx, dClose);

  004da	8d 8d 74 ff ff
	ff		 lea	 ecx, DWORD PTR _dClose$[ebp]
  004e0	f2 0f 58 45 9c	 addsd	 xmm0, QWORD PTR _dGap$1$[ebp]
  004e5	8b 7d c4	 mov	 edi, DWORD PTR _pClosePacket$1$[ebp]
  004e8	51		 push	 ecx
  004e9	56		 push	 esi
  004ea	8b cf		 mov	 ecx, edi
  004ec	f2 0f 11 85 7c
	ff ff ff	 movsd	 QWORD PTR _dLow$[ebp], xmm0
  004f4	8b 07		 mov	 eax, DWORD PTR [edi]
  004f6	ff 50 40	 call	 DWORD PTR [eax+64]

; 486  : 			dClose += dGap;

  004f9	f2 0f 10 85 74
	ff ff ff	 movsd	 xmm0, QWORD PTR _dClose$[ebp]

; 487  : 
; 488  : 			pOpenPacket->SetData(nCurIndx, dOpen);

  00501	83 ec 08	 sub	 esp, 8
  00504	f2 0f 58 45 9c	 addsd	 xmm0, QWORD PTR _dGap$1$[ebp]
  00509	8b 4d d8	 mov	 ecx, DWORD PTR _pOpenPacket$1$[ebp]
  0050c	f2 0f 11 85 74
	ff ff ff	 movsd	 QWORD PTR _dClose$[ebp], xmm0
  00514	f2 0f 10 45 8c	 movsd	 xmm0, QWORD PTR _dOpen$[ebp]
  00519	8b 01		 mov	 eax, DWORD PTR [ecx]
  0051b	f2 0f 11 04 24	 movsd	 QWORD PTR [esp], xmm0
  00520	56		 push	 esi
  00521	ff 50 48	 call	 DWORD PTR [eax+72]

; 489  : 			pHighPacket->SetData(nCurIndx, dHigh);

  00524	8b 4d cc	 mov	 ecx, DWORD PTR _pHighPacket$1$[ebp]
  00527	83 ec 08	 sub	 esp, 8
  0052a	f2 0f 10 45 84	 movsd	 xmm0, QWORD PTR _dHigh$[ebp]
  0052f	8b 01		 mov	 eax, DWORD PTR [ecx]
  00531	f2 0f 11 04 24	 movsd	 QWORD PTR [esp], xmm0
  00536	56		 push	 esi
  00537	ff 50 48	 call	 DWORD PTR [eax+72]

; 490  : 			pLowPacket->SetData(nCurIndx, dLow);

  0053a	8b 4d c8	 mov	 ecx, DWORD PTR _pLowPacket$1$[ebp]
  0053d	83 ec 08	 sub	 esp, 8
  00540	f2 0f 10 85 7c
	ff ff ff	 movsd	 xmm0, QWORD PTR _dLow$[ebp]
  00548	8b 01		 mov	 eax, DWORD PTR [ecx]
  0054a	f2 0f 11 04 24	 movsd	 QWORD PTR [esp], xmm0
  0054f	56		 push	 esi
  00550	ff 50 48	 call	 DWORD PTR [eax+72]

; 491  : 			pClosePacket->SetData(nCurIndx, dClose);

  00553	f2 0f 10 85 74
	ff ff ff	 movsd	 xmm0, QWORD PTR _dClose$[ebp]
  0055b	83 ec 08	 sub	 esp, 8
  0055e	8b 07		 mov	 eax, DWORD PTR [edi]
  00560	8b cf		 mov	 ecx, edi
  00562	f2 0f 11 04 24	 movsd	 QWORD PTR [esp], xmm0
  00567	56		 push	 esi
  00568	ff 50 48	 call	 DWORD PTR [eax+72]
$LN26@CalcGapRev:

; 492  : 		}
; 493  : 
; 494  : 		nNextIndx = nCurIndx;
; 495  : 		nNextDay = nCurDay;

  0056b	8b 7d dc	 mov	 edi, DWORD PTR _nCurDay$1$[ebp]
  0056e	89 75 e4	 mov	 DWORD PTR _nNextIndx$1$[ebp], esi
  00571	83 ee 01	 sub	 esi, 1
  00574	0f 89 fd fd ff
	ff		 jns	 $LL4@CalcGapRev
$LN3@CalcGapRev:

; 496  : 		nNextTime = nCurTime;
; 497  : 	}
; 498  : 	//<<  
; 499  : 
; 500  : 	pTimePacket->Release();

  0057a	8b 03		 mov	 eax, DWORD PTR [ebx]
  0057c	53		 push	 ebx
  0057d	ff 50 08	 call	 DWORD PTR [eax+8]

; 501  : 	pOpenPacket->Release();

  00580	8b 4d d8	 mov	 ecx, DWORD PTR _pOpenPacket$1$[ebp]
  00583	51		 push	 ecx
  00584	8b 01		 mov	 eax, DWORD PTR [ecx]
  00586	ff 50 08	 call	 DWORD PTR [eax+8]

; 502  : 	pHighPacket->Release();

  00589	8b 4d cc	 mov	 ecx, DWORD PTR _pHighPacket$1$[ebp]
  0058c	51		 push	 ecx
  0058d	8b 01		 mov	 eax, DWORD PTR [ecx]
  0058f	ff 50 08	 call	 DWORD PTR [eax+8]

; 503  : 	pLowPacket->Release();

  00592	8b 4d c8	 mov	 ecx, DWORD PTR _pLowPacket$1$[ebp]
  00595	51		 push	 ecx
  00596	8b 01		 mov	 eax, DWORD PTR [ecx]
  00598	ff 50 08	 call	 DWORD PTR [eax+8]

; 504  : 	pClosePacket->Release();

  0059b	8b 4d c4	 mov	 ecx, DWORD PTR _pClosePacket$1$[ebp]
  0059e	51		 push	 ecx
  0059f	8b 01		 mov	 eax, DWORD PTR [ecx]
$LN128@CalcGapRev:

; 505  : }

  005a1	ff 50 08	 call	 DWORD PTR [eax+8]
  005a4	8d 4d f0	 lea	 ecx, DWORD PTR _strType$[ebp]
  005a7	ff 15 00 00 00
	00		 call	 DWORD PTR __imp_??1?$CStringT@DV?$StrTraitMFC_DLL@DV?$ChTraitsCRT@D@ATL@@@@@ATL@@QAE@XZ
  005ad	8d 4d e8	 lea	 ecx, DWORD PTR _szMarketTime$[ebp]
  005b0	ff 15 00 00 00
	00		 call	 DWORD PTR __imp_??1?$CStringT@DV?$StrTraitMFC_DLL@DV?$ChTraitsCRT@D@ATL@@@@@ATL@@QAE@XZ
  005b6	eb 06		 jmp	 SHORT $LN33@CalcGapRev
$LN9@CalcGapRev:

; 350  : 	{
; 351  : 		pPacketList->Release();

  005b8	8b 06		 mov	 eax, DWORD PTR [esi]
  005ba	56		 push	 esi
  005bb	ff 50 08	 call	 DWORD PTR [eax+8]
$LN33@CalcGapRev:
; File D:\git\src\IBK\IBK_DRFN\ProjSrc\SrcChartEx\ChartOCX\AddInManager\Include_AddIn\I000000\_IString.h

; 45   : 		if( m_pIStrData)

  005be	8b 4d a8	 mov	 ecx, DWORD PTR _szIStr$[ebp+4]
  005c1	c6 45 fc 08	 mov	 BYTE PTR __$EHRec$[ebp+8], 8
  005c5	85 c9		 test	 ecx, ecx
  005c7	74 14		 je	 SHORT $LN108@CalcGapRev

; 46   : 		{
; 47   : 			m_pIStrData->Release();

  005c9	8b 01		 mov	 eax, DWORD PTR [ecx]
  005cb	51		 push	 ecx
  005cc	ff 50 08	 call	 DWORD PTR [eax+8]

; 48   : 			m_pIStrData = NULL;

  005cf	c7 45 a8 00 00
	00 00		 mov	 DWORD PTR _szIStr$[ebp+4], 0

; 49   : 			m_szData = NULL;

  005d6	c7 45 a4 00 00
	00 00		 mov	 DWORD PTR _szIStr$[ebp], 0
$LN108@CalcGapRev:
; File D:\git\src\IBK\IBK_DRFN\ProjSrc\SrcChartEx\ChartOCX\AddInManager\ChartCommonAddIn\GapRevisionAddInImp.cpp

; 505  : }

  005dd	8d 4d c0	 lea	 ecx, DWORD PTR _szMarketType$[ebp]
  005e0	ff 15 00 00 00
	00		 call	 DWORD PTR __imp_??1?$CStringT@DV?$StrTraitMFC_DLL@DV?$ChTraitsCRT@D@ATL@@@@@ATL@@QAE@XZ
$LN6@CalcGapRev:
  005e6	8b 4d f4	 mov	 ecx, DWORD PTR __$EHRec$[ebp]
  005e9	64 89 0d 00 00
	00 00		 mov	 DWORD PTR fs:0, ecx
  005f0	59		 pop	 ecx
  005f1	5f		 pop	 edi
  005f2	5e		 pop	 esi
  005f3	5b		 pop	 ebx
  005f4	8b e5		 mov	 esp, ebp
  005f6	5d		 pop	 ebp
  005f7	c2 08 00	 ret	 8
_TEXT	ENDS
;	COMDAT text$x
text$x	SEGMENT
__unwindfunclet$?CalcGapRevision@CGapRevisionAddInImp@@MAEXPBDH@Z$0:
  00000	8d 4d c0	 lea	 ecx, DWORD PTR _szMarketType$[ebp]
  00003	ff 25 00 00 00
	00		 jmp	 DWORD PTR __imp_??1?$CStringT@DV?$StrTraitMFC_DLL@DV?$ChTraitsCRT@D@ATL@@@@@ATL@@QAE@XZ
__unwindfunclet$?CalcGapRevision@CGapRevisionAddInImp@@MAEXPBDH@Z$1:
  00009	8d 4d a4	 lea	 ecx, DWORD PTR _szIStr$[ebp]
  0000c	e9 00 00 00 00	 jmp	 ??1ILPCSTR000000@@QAE@XZ ; ILPCSTR000000::~ILPCSTR000000
__unwindfunclet$?CalcGapRevision@CGapRevisionAddInImp@@MAEXPBDH@Z$2:
  00011	8d 4d e8	 lea	 ecx, DWORD PTR _szMarketTime$[ebp]
  00014	ff 25 00 00 00
	00		 jmp	 DWORD PTR __imp_??1?$CStringT@DV?$StrTraitMFC_DLL@DV?$ChTraitsCRT@D@ATL@@@@@ATL@@QAE@XZ
__unwindfunclet$?CalcGapRevision@CGapRevisionAddInImp@@MAEXPBDH@Z$4:
  0001a	8d 4d f0	 lea	 ecx, DWORD PTR _strType$[ebp]
  0001d	ff 25 00 00 00
	00		 jmp	 DWORD PTR __imp_??1?$CStringT@DV?$StrTraitMFC_DLL@DV?$ChTraitsCRT@D@ATL@@@@@ATL@@QAE@XZ
  00023	cc		 int	 3
  00024	cc		 int	 3
  00025	cc		 int	 3
  00026	cc		 int	 3
  00027	cc		 int	 3
__ehhandler$?CalcGapRevision@CGapRevisionAddInImp@@MAEXPBDH@Z:
  00028	90		 npad	 1
  00029	90		 npad	 1
  0002a	8b 54 24 08	 mov	 edx, DWORD PTR [esp+8]
  0002e	8d 42 0c	 lea	 eax, DWORD PTR [edx+12]
  00031	8b 8a 70 ff ff
	ff		 mov	 ecx, DWORD PTR [edx-144]
  00037	33 c8		 xor	 ecx, eax
  00039	e8 00 00 00 00	 call	 @__security_check_cookie@4
  0003e	b8 00 00 00 00	 mov	 eax, OFFSET __ehfuncinfo$?CalcGapRevision@CGapRevisionAddInImp@@MAEXPBDH@Z
  00043	e9 00 00 00 00	 jmp	 ___CxxFrameHandler3
text$x	ENDS
?CalcGapRevision@CGapRevisionAddInImp@@MAEXPBDH@Z ENDP	; CGapRevisionAddInImp::CalcGapRevision
; Function compile flags: /Ogtp
; File D:\git\src\IBK\IBK_DRFN\ProjSrc\SrcChartEx\ChartOCX\AddInManager\ChartCommonAddIn\GapRevisionAddInImp.cpp
; File D:\git\src\IBK\IBK_DRFN\ProjSrc\SrcChartEx\ChartOCX\AddInManager\Include_AddIn\I000000\_IString.h
; File D:\git\src\IBK\IBK_DRFN\ProjSrc\SrcChartEx\ChartOCX\AddInManager\ChartCommonAddIn\GapRevisionAddInImp.cpp
; File D:\git\src\IBK\IBK_DRFN\ProjSrc\SrcChartEx\ChartOCX\AddInManager\Include_AddIn\I000000\_IString.h
; File D:\git\src\IBK\IBK_DRFN\ProjSrc\SrcChartEx\ChartOCX\AddInManager\ChartCommonAddIn\GapRevisionAddInImp.cpp
; File C:\Program Files (x86)\Microsoft Visual Studio\2019\Community\VC\Tools\MSVC\14.29.30133\atlmfc\include\afxtempl.h
; File D:\git\src\IBK\IBK_DRFN\ProjSrc\SrcChartEx\ChartOCX\AddInManager\ChartCommonAddIn\GapRevisionAddInImp.cpp
; File C:\Program Files (x86)\Microsoft Visual Studio\2019\Community\VC\Tools\MSVC\14.29.30133\atlmfc\include\afxtempl.h
; File D:\git\src\IBK\IBK_DRFN\ProjSrc\SrcChartEx\ChartOCX\AddInManager\ChartCommonAddIn\GapRevisionAddInImp.cpp
; File C:\Program Files (x86)\Microsoft Visual Studio\2019\Community\VC\Tools\MSVC\14.29.30133\atlmfc\include\afxcoll.inl
; File C:\Program Files (x86)\Microsoft Visual Studio\2019\Community\VC\Tools\MSVC\14.29.30133\atlmfc\include\afxtempl.h
; File C:\Program Files (x86)\Microsoft Visual Studio\2019\Community\VC\Tools\MSVC\14.29.30133\atlmfc\include\afxcoll.inl
; File C:\Program Files (x86)\Microsoft Visual Studio\2019\Community\VC\Tools\MSVC\14.29.30133\atlmfc\include\afxtempl.h
; File C:\Program Files (x86)\Microsoft Visual Studio\2019\Community\VC\Tools\MSVC\14.29.30133\atlmfc\include\afxcoll.inl
; File C:\Program Files (x86)\Microsoft Visual Studio\2019\Community\VC\Tools\MSVC\14.29.30133\atlmfc\include\afxtempl.h
; File D:\git\src\IBK\IBK_DRFN\ProjSrc\SrcChartEx\ChartOCX\AddInManager\ChartCommonAddIn\GapRevisionAddInImp.cpp
; File D:\git\src\IBK\IBK_DRFN\ProjSrc\SrcChartEx\ChartOCX\AddInManager\Include_AddIn\I000000\_IString.h
; File D:\git\src\IBK\IBK_DRFN\ProjSrc\SrcChartEx\ChartOCX\AddInManager\ChartCommonAddIn\GapRevisionAddInImp.cpp
; File D:\git\src\IBK\IBK_DRFN\ProjSrc\SrcChartEx\ChartOCX\AddInManager\Include_AddIn\I000000\_IString.h
; File D:\git\src\IBK\IBK_DRFN\ProjSrc\SrcChartEx\ChartOCX\AddInManager\ChartCommonAddIn\GapRevisionAddInImp.cpp
; File D:\git\src\IBK\IBK_DRFN\ProjSrc\SrcChartEx\ChartOCX\AddInManager\Include_AddIn\I000000\_IString.h
; File D:\git\src\IBK\IBK_DRFN\ProjSrc\SrcChartEx\ChartOCX\AddInManager\ChartCommonAddIn\GapRevisionAddInImp.cpp
; File D:\git\src\IBK\IBK_DRFN\ProjSrc\SrcChartEx\ChartOCX\AddInManager\Include_AddIn\I000000\_IString.h
; File D:\git\src\IBK\IBK_DRFN\ProjSrc\SrcChartEx\ChartOCX\AddInManager\ChartCommonAddIn\GapRevisionAddInImp.cpp
; File D:\git\src\IBK\IBK_DRFN\ProjSrc\SrcChartEx\ChartOCX\AddInManager\Include_AddIn\I000000\_IString.h
; File D:\git\src\IBK\IBK_DRFN\ProjSrc\SrcChartEx\ChartOCX\AddInManager\ChartCommonAddIn\GapRevisionAddInImp.cpp
; File C:\Program Files (x86)\Microsoft Visual Studio\2019\Community\VC\Tools\MSVC\14.29.30133\atlmfc\include\afxtempl.h
; File D:\git\src\IBK\IBK_DRFN\ProjSrc\SrcChartEx\ChartOCX\AddInManager\ChartCommonAddIn\GapRevisionAddInImp.cpp
; File C:\Program Files (x86)\Microsoft Visual Studio\2019\Community\VC\Tools\MSVC\14.29.30133\atlmfc\include\afxtempl.h
; File D:\git\src\IBK\IBK_DRFN\ProjSrc\SrcChartEx\ChartOCX\AddInManager\ChartCommonAddIn\GapRevisionAddInImp.cpp
; File C:\Program Files (x86)\Microsoft Visual Studio\2019\Community\VC\Tools\MSVC\14.29.30133\atlmfc\include\afxcoll.inl
; File C:\Program Files (x86)\Microsoft Visual Studio\2019\Community\VC\Tools\MSVC\14.29.30133\atlmfc\include\afxtempl.h
; File C:\Program Files (x86)\Microsoft Visual Studio\2019\Community\VC\Tools\MSVC\14.29.30133\atlmfc\include\afxcoll.inl
; File C:\Program Files (x86)\Microsoft Visual Studio\2019\Community\VC\Tools\MSVC\14.29.30133\atlmfc\include\afxtempl.h
; File C:\Program Files (x86)\Microsoft Visual Studio\2019\Community\VC\Tools\MSVC\14.29.30133\atlmfc\include\afxcoll.inl
; File C:\Program Files (x86)\Microsoft Visual Studio\2019\Community\VC\Tools\MSVC\14.29.30133\atlmfc\include\afxtempl.h
; File D:\git\src\IBK\IBK_DRFN\ProjSrc\SrcChartEx\ChartOCX\AddInManager\ChartCommonAddIn\GapRevisionAddInImp.cpp
; File D:\git\src\IBK\IBK_DRFN\ProjSrc\SrcChartEx\ChartOCX\AddInManager\Include_AddIn\I000000\_IString.h
; File D:\git\src\IBK\IBK_DRFN\ProjSrc\SrcChartEx\ChartOCX\AddInManager\ChartCommonAddIn\GapRevisionAddInImp.cpp
; File D:\git\src\IBK\IBK_DRFN\ProjSrc\SrcChartEx\ChartOCX\AddInManager\Include_AddIn\I000000\_IString.h
; File D:\git\src\IBK\IBK_DRFN\ProjSrc\SrcChartEx\ChartOCX\AddInManager\ChartCommonAddIn\GapRevisionAddInImp.cpp
; File D:\git\src\IBK\IBK_DRFN\ProjSrc\SrcChartEx\ChartOCX\AddInManager\Include_AddIn\I000000\_IString.h
; File D:\git\src\IBK\IBK_DRFN\ProjSrc\SrcChartEx\ChartOCX\AddInManager\ChartCommonAddIn\GapRevisionAddInImp.cpp
;	COMDAT ?SetUseGapRevision@CGapRevisionAddInImp@@MAEXHH@Z
_TEXT	SEGMENT
$T2 = -52						; size = 8
_szData$3 = -44						; size = 8
_szData$4 = -36						; size = 8
$T5 = -36						; size = 8
_pSTGapInfo$6 = -28					; size = 4
$T7 = -28						; size = 4
_psn$8 = -24						; size = 4
_pSTGapInfo$9 = -24					; size = 4
$T10 = -20						; size = 4
_psn$11 = -20						; size = 4
_strTRPacketNames$12 = -16				; size = 4
_strTRPacketNames$13 = -16				; size = 4
__$EHRec$ = -12						; size = 12
_pIAddInToolMgr$1$ = 8					; size = 4
_bUseGapRevision$ = 8					; size = 4
$T14 = 12						; size = 4
$T15 = 12						; size = 4
_bWithNewData$ = 12					; size = 4
?SetUseGapRevision@CGapRevisionAddInImp@@MAEXHH@Z PROC	; CGapRevisionAddInImp::SetUseGapRevision, COMDAT
; _this$ = ecx

; 250  : {

  00000	55		 push	 ebp
  00001	8b ec		 mov	 ebp, esp
  00003	6a ff		 push	 -1
  00005	68 00 00 00 00	 push	 __ehhandler$?SetUseGapRevision@CGapRevisionAddInImp@@MAEXHH@Z
  0000a	64 a1 00 00 00
	00		 mov	 eax, DWORD PTR fs:0
  00010	50		 push	 eax
  00011	83 ec 28	 sub	 esp, 40			; 00000028H
  00014	53		 push	 ebx
  00015	56		 push	 esi
  00016	57		 push	 edi
  00017	a1 00 00 00 00	 mov	 eax, DWORD PTR ___security_cookie
  0001c	33 c5		 xor	 eax, ebp
  0001e	50		 push	 eax
  0001f	8d 45 f4	 lea	 eax, DWORD PTR __$EHRec$[ebp]
  00022	64 a3 00 00 00
	00		 mov	 DWORD PTR fs:0, eax
  00028	8b f1		 mov	 esi, ecx

; 251  : 	if( m_bUseGapRevision != bUseGapRevision)

  0002a	8b 45 08	 mov	 eax, DWORD PTR _bUseGapRevision$[ebp]
  0002d	39 46 5c	 cmp	 DWORD PTR [esi+92], eax
  00030	0f 84 38 03 00
	00		 je	 $LN6@SetUseGapR

; 252  : 	{
; 253  : 		m_bUseGapRevision = bUseGapRevision;
; 254  : 
; 255  : 		//--------------------------------------------------------
; 256  : 		//>>   
; 257  : 		IStringList *pIStringList = m_pIPacketListManager->GetAllRQ();

  00036	8b 4e 1c	 mov	 ecx, DWORD PTR [esi+28]
  00039	89 46 5c	 mov	 DWORD PTR [esi+92], eax
  0003c	8b 01		 mov	 eax, DWORD PTR [ecx]
  0003e	ff 50 20	 call	 DWORD PTR [eax+32]
  00041	8b d8		 mov	 ebx, eax

; 258  : 		pIStringList->AddTail( "DEFAULT");

  00043	68 00 00 00 00	 push	 OFFSET ??_C@_07MGCPDNLD@DEFAULT@
  00048	8b cb		 mov	 ecx, ebx
  0004a	8b 13		 mov	 edx, DWORD PTR [ebx]
  0004c	ff 52 2c	 call	 DWORD PTR [edx+44]

; 259  : 
; 260  : 		IAddInToolMgr *pIAddInToolMgr = m_pIChartOCX->GetIAddInToolMgr();

  0004f	8b 4e 0c	 mov	 ecx, DWORD PTR [esi+12]
  00052	8b 11		 mov	 edx, DWORD PTR [ecx]
  00054	ff 52 28	 call	 DWORD PTR [edx+40]
  00057	8b f8		 mov	 edi, eax
  00059	89 7d 08	 mov	 DWORD PTR _pIAddInToolMgr$1$[ebp], edi

; 261  : 		if( !pIAddInToolMgr)

  0005c	85 ff		 test	 edi, edi
  0005e	75 08		 jne	 SHORT $LN7@SetUseGapR

; 262  : 		{
; 263  : 			pIStringList->Release();

  00060	8b 03		 mov	 eax, DWORD PTR [ebx]
  00062	53		 push	 ebx

; 264  : 			return;

  00063	e9 03 03 00 00	 jmp	 $LN86@SetUseGapR
$LN7@SetUseGapR:

; 265  : 		}
; 266  : 		
; 267  : 		if( m_bUseGapRevision && !bWithNewData)

  00068	83 7e 5c 00	 cmp	 DWORD PTR [esi+92], 0
  0006c	0f 84 79 01 00
	00		 je	 $LN84@SetUseGapR
  00072	83 7d 0c 00	 cmp	 DWORD PTR _bWithNewData$[ebp], 0
  00076	0f 85 ec 02 00
	00		 jne	 $LN74@SetUseGapR

; 269  : 			POSITION psn = pIStringList->GetHeadPosition();

  0007c	8b 03		 mov	 eax, DWORD PTR [ebx]
  0007e	8b cb		 mov	 ecx, ebx
  00080	ff 50 34	 call	 DWORD PTR [eax+52]
; File D:\git\src\IBK\IBK_DRFN\ProjSrc\SrcChartEx\ChartOCX\AddInManager\Include_AddIn\I000000\_IString.h

; 35   : 		m_pIStrData = NULL;

  00083	33 c9		 xor	 ecx, ecx
; File D:\git\src\IBK\IBK_DRFN\ProjSrc\SrcChartEx\ChartOCX\AddInManager\ChartCommonAddIn\GapRevisionAddInImp.cpp

; 269  : 			POSITION psn = pIStringList->GetHeadPosition();

  00085	89 45 ec	 mov	 DWORD PTR _psn$11[ebp], eax
; File D:\git\src\IBK\IBK_DRFN\ProjSrc\SrcChartEx\ChartOCX\AddInManager\Include_AddIn\I000000\_IString.h

; 34   : 		m_szData = NULL;

  00088	c7 45 d4 00 00
	00 00		 mov	 DWORD PTR _szData$3[ebp], 0
