; Listing generated by Microsoft (R) Optimizing Compiler Version 19.29.30145.0 

	TITLE	D:\git\src\IBK\IBK_DRFN\#DRfn-CS\_Obj\ChartCommonAddIn\IndicatorInfoUndoRedoManagerAddInImp.obj
	.686P
	.XMM
	include listing.inc
	.model	flat

INCLUDELIB MSVCRT
INCLUDELIB OLDNAMES

PUBLIC	?m_eRegisteredEventMap@CIndicatorInfoUndoRedoManagerAddInImp@@1QBW4EAddInEventType@IChartAddIn000000@@B ; CIndicatorInfoUndoRedoManagerAddInImp::m_eRegisteredEventMap
PUBLIC	??_C@_0CA@JOAJFBHJ@INDICATORINFO_UNDO_REDO_MANAGER@ ; `string'
;	COMDAT ??_C@_0CA@JOAJFBHJ@INDICATORINFO_UNDO_REDO_MANAGER@
CONST	SEGMENT
??_C@_0CA@JOAJFBHJ@INDICATORINFO_UNDO_REDO_MANAGER@ DB 'INDICATORINFO_UND'
	DB	'O_REDO_MANAGER', 00H			; `string'
CONST	ENDS
CONST	SEGMENT
?m_eRegisteredEventMap@CIndicatorInfoUndoRedoManagerAddInImp@@1QBW4EAddInEventType@IChartAddIn000000@@B DD 09H ; CIndicatorInfoUndoRedoManagerAddInImp::m_eRegisteredEventMap
	DD	05H
	DD	024H
	DD	03cH
	ORG $+228
CONST	ENDS
PUBLIC	?__empty_global_delete@@YAXPAX@Z		; __empty_global_delete
PUBLIC	?__empty_global_delete@@YAXPAXI@Z		; __empty_global_delete
PUBLIC	??1CObject@@UAE@XZ				; CObject::~CObject
PUBLIC	?Serialize@CObject@@UAEXAAVCArchive@@@Z		; CObject::Serialize
PUBLIC	?AssertValid@CObject@@UBEXXZ			; CObject::AssertValid
PUBLIC	?Dump@CObject@@UBEXAAVCDumpContext@@@Z		; CObject::Dump
PUBLIC	?PostConstruct@CIWUnknown@@MAEXXZ		; CIWUnknown::PostConstruct
PUBLIC	?PreDestructX@CIWUnknown@@MAEXXZ		; CIWUnknown::PreDestructX
PUBLIC	?PreDestruct@CIWUnknown@@MAEXXZ			; CIWUnknown::PreDestruct
PUBLIC	?AddRef@CChartAddInBase000000@@MAGKXZ		; CChartAddInBase000000::AddRef
PUBLIC	?Release@CChartAddInBase000000@@MAGKXZ		; CChartAddInBase000000::Release
PUBLIC	?QueryInterface@CChartAddInBase000000@@MAGJABU_GUID@@PAPAX@Z ; CChartAddInBase000000::QueryInterface
PUBLIC	?GetAddInCustomInterface@CChartAddInBase000000@@MAEPAUIUnknown@@XZ ; CChartAddInBase000000::GetAddInCustomInterface
PUBLIC	?InvokeAddIn@CChartAddInBase000000@@MAEHHJ@Z	; CChartAddInBase000000::InvokeAddIn
PUBLIC	?InvokeAddInStr@CChartAddInBase000000@@MAEHPBD0@Z ; CChartAddInBase000000::InvokeAddInStr
PUBLIC	?AfeterOnOcxDestroyWindow@CChartAddInBase000000@@MAEXXZ ; CChartAddInBase000000::AfeterOnOcxDestroyWindow
PUBLIC	?ChangeChartMode@CChartAddInBase000000@@MAEXW4CHART_MODE@CChartInfo@@@Z ; CChartAddInBase000000::ChangeChartMode
PUBLIC	?OnGSharedDataChange@CChartAddInBase000000@@MAEXPBD0H@Z ; CChartAddInBase000000::OnGSharedDataChange
PUBLIC	?OnLSharedDataChange@CChartAddInBase000000@@MAEXPBD0@Z ; CChartAddInBase000000::OnLSharedDataChange
PUBLIC	?OnResetChart@CChartAddInBase000000@@MAEXXZ	; CChartAddInBase000000::OnResetChart
PUBLIC	?OnDrawBeforeGraph@CChartAddInBase000000@@MAEXPAUHDC__@@@Z ; CChartAddInBase000000::OnDrawBeforeGraph
PUBLIC	?OnDrawAfterGraph@CChartAddInBase000000@@MAEXPAUHDC__@@@Z ; CChartAddInBase000000::OnDrawAfterGraph
PUBLIC	?OnPacketDataMultiItem@CChartAddInBase000000@@MAEXPBD0H@Z ; CChartAddInBase000000::OnPacketDataMultiItem
PUBLIC	?OnTimer@CChartAddInBase000000@@MAEXI@Z		; CChartAddInBase000000::OnTimer
PUBLIC	?OnCaptureChanged@CChartAddInBase000000@@MAEXPAUHWND__@@QAUHBITMAP__@@@Z ; CChartAddInBase000000::OnCaptureChanged
PUBLIC	?OnUserIndiatorConditionLoaded@CChartAddInBase000000@@MAEXXZ ; CChartAddInBase000000::OnUserIndiatorConditionLoaded
PUBLIC	?OnChartItemChanged@CChartAddInBase000000@@MAEXXZ ; CChartAddInBase000000::OnChartItemChanged
PUBLIC	?OnGraphDataChanged@CChartAddInBase000000@@MAEXXZ ; CChartAddInBase000000::OnGraphDataChanged
PUBLIC	?OnBlockRemoved@CChartAddInBase000000@@MAEXHH@Z	; CChartAddInBase000000::OnBlockRemoved
PUBLIC	?OnGraphAdded@CChartAddInBase000000@@MAEXPBD0@Z	; CChartAddInBase000000::OnGraphAdded
PUBLIC	?OnManualRealData@CChartAddInBase000000@@MAEXPBDNH@Z ; CChartAddInBase000000::OnManualRealData
PUBLIC	?OnContextMenu@CChartAddInBase000000@@MAEXPAUHWND__@@AAUtagPOINT@@@Z ; CChartAddInBase000000::OnContextMenu
PUBLIC	?OnGraphDeleted@CChartAddInBase000000@@MAEXPBD0@Z ; CChartAddInBase000000::OnGraphDeleted
PUBLIC	?OnPacketTruncated@CChartAddInBase000000@@MAEXH@Z ; CChartAddInBase000000::OnPacketTruncated
PUBLIC	?OnBlockChanged@CChartAddInBase000000@@MAEXW4BLOCKBEHAVIOR@CBlockBaseData@@HHHH@Z ; CChartAddInBase000000::OnBlockChanged
PUBLIC	?OnToolCommand@CChartAddInBase000000@@MAEXHH@Z	; CChartAddInBase000000::OnToolCommand
PUBLIC	?OnRealData@CChartAddInBase000000@@MAEXPBDN0@Z	; CChartAddInBase000000::OnRealData
PUBLIC	?OnIndexedRealData@CChartAddInBase000000@@MAEXPBDHN@Z ; CChartAddInBase000000::OnIndexedRealData
PUBLIC	?OnRealPacketEnd@CChartAddInBase000000@@MAEXPBD@Z ; CChartAddInBase000000::OnRealPacketEnd
PUBLIC	?OnLoadEnvironment@CChartAddInBase000000@@MAEXPAUIPropertyMap@@@Z ; CChartAddInBase000000::OnLoadEnvironment
PUBLIC	?OnSaveEnvironment@CChartAddInBase000000@@MAEXPAUIPropertyMap@@@Z ; CChartAddInBase000000::OnSaveEnvironment
PUBLIC	?DrawCursor@CChartAddInBase000000@@MAE?AUtagRECT@@PAUHDC__@@@Z ; CChartAddInBase000000::DrawCursor
PUBLIC	?OnRecalculationComplete@CChartAddInBase000000@@MAEXXZ ; CChartAddInBase000000::OnRecalculationComplete
PUBLIC	?OnPreRealData@CChartAddInBase000000@@MAEHPBDAAN0H@Z ; CChartAddInBase000000::OnPreRealData
PUBLIC	?OnPreIndexedRealData@CChartAddInBase000000@@MAEHPBDHAANH@Z ; CChartAddInBase000000::OnPreIndexedRealData
PUBLIC	?OnPreRealPacketEnd@CChartAddInBase000000@@MAEHPBDH@Z ; CChartAddInBase000000::OnPreRealPacketEnd
PUBLIC	?OnPreNMTRClock@CChartAddInBase000000@@MAEHAA_J@Z ; CChartAddInBase000000::OnPreNMTRClock
PUBLIC	?OnCmdMsg@CChartAddInBase000000@@MAEHIHPAUICmdUI000000@@@Z ; CChartAddInBase000000::OnCmdMsg
PUBLIC	?OnAddInMsg@CChartAddInBase000000@@MAEHPBDJ@Z	; CChartAddInBase000000::OnAddInMsg
PUBLIC	?OnAddInToolCommand@CChartAddInBase000000@@MAEHW4EAICommandType@@@Z ; CChartAddInBase000000::OnAddInToolCommand
PUBLIC	?OnAddInToolCommand@CChartAddInBase000000@@MAEHW4EAICommandType@@PAUHDC__@@IAAUtagPOINT@@K@Z ; CChartAddInBase000000::OnAddInToolCommand
PUBLIC	?OnAddInToolCommand@CChartAddInBase000000@@MAEHW4EAICommandType@@PBD@Z ; CChartAddInBase000000::OnAddInToolCommand
PUBLIC	?OnAddInToolCommand@CChartAddInBase000000@@MAEHW4EAICommandType@@PBD1@Z ; CChartAddInBase000000::OnAddInToolCommand
PUBLIC	?OnAddInToolCommand@CChartAddInBase000000@@MAEHW4EAICommandType@@PBUIAddInDllBase@@@Z ; CChartAddInBase000000::OnAddInToolCommand
PUBLIC	?OnAddInToolCommand@CChartAddInBase000000@@MAEHW4EAICommandType@@J@Z ; CChartAddInBase000000::OnAddInToolCommand
PUBLIC	?OnAddInToolCommand@CChartAddInBase000000@@MAEHW4EAICommandType@@JPBD@Z ; CChartAddInBase000000::OnAddInToolCommand
PUBLIC	?OnAddInToolCommand@CChartAddInBase000000@@MAEHW4EAICommandType@@JJ@Z ; CChartAddInBase000000::OnAddInToolCommand
PUBLIC	?OnAddInToolCommand@CChartAddInBase000000@@MAEHW4EAICommandType@@JJJJJJJJJ@Z ; CChartAddInBase000000::OnAddInToolCommand
PUBLIC	?OnAddInToolCommand@CChartAddInBase000000@@MAEHAAJW4EAICommandType@@@Z ; CChartAddInBase000000::OnAddInToolCommand
PUBLIC	?OnAddInToolCommand@CChartAddInBase000000@@MAEHAAJW4EAICommandType@@PAUIGraphInfo000000@@@Z ; CChartAddInBase000000::OnAddInToolCommand
PUBLIC	?OnAddInToolCommand@CChartAddInBase000000@@MAEHAAJW4EAICommandType@@PBD@Z ; CChartAddInBase000000::OnAddInToolCommand
PUBLIC	?OnAddInToolCommand@CChartAddInBase000000@@MAEHAAJW4EAICommandType@@PBDPAVCObject@@@Z ; CChartAddInBase000000::OnAddInToolCommand
PUBLIC	?OnAddInToolCommand@CChartAddInBase000000@@MAEHAAJW4EAICommandType@@J@Z ; CChartAddInBase000000::OnAddInToolCommand
PUBLIC	?OnAddInToolCommand@CChartAddInBase000000@@MAEHAAJW4EAICommandType@@JJ@Z ; CChartAddInBase000000::OnAddInToolCommand
PUBLIC	?OnKeyDown@CChartAddInBase000000@@MAEHIII@Z	; CChartAddInBase000000::OnKeyDown
PUBLIC	?OnKeyUp@CChartAddInBase000000@@MAEHIII@Z	; CChartAddInBase000000::OnKeyUp
PUBLIC	?OnMouseWheel@CChartAddInBase000000@@MAEHIFUtagPOINT@@K@Z ; CChartAddInBase000000::OnMouseWheel
PUBLIC	?OnMouseMove@CChartAddInBase000000@@MAEHPAUHDC__@@IAAUtagPOINT@@KQAUHBITMAP__@@@Z ; CChartAddInBase000000::OnMouseMove
PUBLIC	?OnLButtonDown@CChartAddInBase000000@@MAEHPAUHDC__@@IAAUtagPOINT@@K@Z ; CChartAddInBase000000::OnLButtonDown
PUBLIC	?OnLButtonUp@CChartAddInBase000000@@MAEHPAUHDC__@@IAAUtagPOINT@@K@Z ; CChartAddInBase000000::OnLButtonUp
PUBLIC	?OnLButtonDblClk@CChartAddInBase000000@@MAEHPAUHDC__@@IAAUtagPOINT@@K@Z ; CChartAddInBase000000::OnLButtonDblClk
PUBLIC	?OnRButtonDown@CChartAddInBase000000@@MAEHPAUHDC__@@IAAUtagPOINT@@K@Z ; CChartAddInBase000000::OnRButtonDown
PUBLIC	?OnRButtonUp@CChartAddInBase000000@@MAEHPAUHDC__@@IAAUtagPOINT@@K@Z ; CChartAddInBase000000::OnRButtonUp
PUBLIC	?OnRButtonDblClk@CChartAddInBase000000@@MAEHPAUHDC__@@IAAUtagPOINT@@K@Z ; CChartAddInBase000000::OnRButtonDblClk
PUBLIC	??1ILPCSTR000000@@QAE@XZ			; ILPCSTR000000::~ILPCSTR000000
PUBLIC	??0CIndiInfoData@@QAE@PAUIGraphInfo000000@@_N@Z	; CIndiInfoData::CIndiInfoData
PUBLIC	??1CIndiInfoData@@UAE@XZ			; CIndiInfoData::~CIndiInfoData
PUBLIC	?Make@CIndiInfoData@@SAPAV1@PAUIGraphInfo000000@@_N@Z ; CIndiInfoData::Make
PUBLIC	?Delete@CIndiInfoData@@SAXPAV1@@Z		; CIndiInfoData::Delete
PUBLIC	?SetTheBeginning@CIndiInfoData@@QAEX_N@Z	; CIndiInfoData::SetTheBeginning
PUBLIC	?SetIndicatorInfo@CIndiInfoData@@QAEXPAUIGraphInfo000000@@@Z ; CIndiInfoData::SetIndicatorInfo
PUBLIC	?IsTheBeginning@CIndiInfoData@@QBE_NXZ		; CIndiInfoData::IsTheBeginning
PUBLIC	?GetIGraphInfo@CIndiInfoData@@QAEPAUIGraphInfo000000@@XZ ; CIndiInfoData::GetIGraphInfo
PUBLIC	?GetIndicatorName@CIndiInfoData@@QBE?AV?$CStringT@DV?$StrTraitMFC_DLL@DV?$ChTraitsCRT@D@ATL@@@@@ATL@@XZ ; CIndiInfoData::GetIndicatorName
PUBLIC	??_GCIndiInfoData@@UAEPAXI@Z			; CIndiInfoData::`scalar deleting destructor'
PUBLIC	??0CIndiInfoDataList@@QAE@XZ			; CIndiInfoDataList::CIndiInfoDataList
PUBLIC	??1CIndiInfoDataList@@UAE@XZ			; CIndiInfoDataList::~CIndiInfoDataList
PUBLIC	?AddTail@CIndiInfoDataList@@QAE_NPAUIGraphInfo000000@@_N@Z ; CIndiInfoDataList::AddTail
PUBLIC	?DeleteAll@CIndiInfoDataList@@QAEXXZ		; CIndiInfoDataList::DeleteAll
PUBLIC	?ChangeAllIndicatorList@CIndiInfoDataList@@QAE_NPAUIGraphInfoManager000000@@@Z ; CIndiInfoDataList::ChangeAllIndicatorList
PUBLIC	?GetHeadPosition@CIndiInfoDataList@@QBEPAU__POSITION@@XZ ; CIndiInfoDataList::GetHeadPosition
PUBLIC	?GetHeadPosition@CIndiInfoDataList@@QAEPAU__POSITION@@XZ ; CIndiInfoDataList::GetHeadPosition
PUBLIC	?GetTailPosition@CIndiInfoDataList@@QBEPAU__POSITION@@XZ ; CIndiInfoDataList::GetTailPosition
PUBLIC	?GetTailPosition@CIndiInfoDataList@@QAEPAU__POSITION@@XZ ; CIndiInfoDataList::GetTailPosition
PUBLIC	?GetPrev@CIndiInfoDataList@@QBEPAVCIndiInfoData@@AAPAU__POSITION@@@Z ; CIndiInfoDataList::GetPrev
PUBLIC	?GetPrev@CIndiInfoDataList@@QAEPAVCIndiInfoData@@AAPAU__POSITION@@@Z ; CIndiInfoDataList::GetPrev
PUBLIC	?GetNext@CIndiInfoDataList@@QBEPAVCIndiInfoData@@AAPAU__POSITION@@@Z ; CIndiInfoDataList::GetNext
PUBLIC	?GetNext@CIndiInfoDataList@@QAEPAVCIndiInfoData@@AAPAU__POSITION@@@Z ; CIndiInfoDataList::GetNext
PUBLIC	?GetIndiInfoData@CIndiInfoDataList@@QAEPAVCIndiInfoData@@ABV?$CStringT@DV?$StrTraitMFC_DLL@DV?$ChTraitsCRT@D@ATL@@@@@ATL@@@Z ; CIndiInfoDataList::GetIndiInfoData
PUBLIC	?GetIndiInfoInTheBeginning@CIndiInfoDataList@@QBE_NAAV?$CList@PAUIGraphInfo000000@@PAU1@@@@Z ; CIndiInfoDataList::GetIndiInfoInTheBeginning
PUBLIC	?GetIndiInfoIntheSave@CIndiInfoDataList@@QBE_NAAV?$CList@PAUIGraphInfo000000@@PAU1@@@@Z ; CIndiInfoDataList::GetIndiInfoIntheSave
PUBLIC	?IsIndiInfoData@CIndiInfoDataList@@QBE_NPBD@Z	; CIndiInfoDataList::IsIndiInfoData
PUBLIC	??0?$CList@PAVCIndiInfoData@@PAV1@@@QAE@H@Z	; CList<CIndiInfoData *,CIndiInfoData *>::CList<CIndiInfoData *,CIndiInfoData *>
PUBLIC	?AddTail@?$CList@PAVCIndiInfoData@@PAV1@@@QAEPAU__POSITION@@PAVCIndiInfoData@@@Z ; CList<CIndiInfoData *,CIndiInfoData *>::AddTail
PUBLIC	?RemoveAll@?$CList@PAVCIndiInfoData@@PAV1@@@QAEXXZ ; CList<CIndiInfoData *,CIndiInfoData *>::RemoveAll
PUBLIC	?NewNode@?$CList@PAVCIndiInfoData@@PAV1@@@IAEPAUCNode@1@PAU21@0@Z ; CList<CIndiInfoData *,CIndiInfoData *>::NewNode
PUBLIC	??1?$CList@PAVCIndiInfoData@@PAV1@@@UAE@XZ	; CList<CIndiInfoData *,CIndiInfoData *>::~CList<CIndiInfoData *,CIndiInfoData *>
PUBLIC	?Serialize@?$CList@PAVCIndiInfoData@@PAV1@@@UAEXAAVCArchive@@@Z ; CList<CIndiInfoData *,CIndiInfoData *>::Serialize
PUBLIC	??_G?$CList@PAVCIndiInfoData@@PAV1@@@UAEPAXI@Z	; CList<CIndiInfoData *,CIndiInfoData *>::`scalar deleting destructor'
PUBLIC	??_GCIndiInfoDataList@@UAEPAXI@Z		; CIndiInfoDataList::`scalar deleting destructor'
PUBLIC	??0CGraphEtcData@@QAE@XZ			; CGraphEtcData::CGraphEtcData
PUBLIC	??0CGraphEtcData@@QAE@ABV?$CStringT@DV?$StrTraitMFC_DLL@DV?$ChTraitsCRT@D@ATL@@@@@ATL@@_N1@Z ; CGraphEtcData::CGraphEtcData
PUBLIC	?SetFunctionName@CGraphEtcData@@QAEXABV?$CStringT@DV?$StrTraitMFC_DLL@DV?$ChTraitsCRT@D@ATL@@@@@ATL@@@Z ; CGraphEtcData::SetFunctionName
PUBLIC	?SetVertScaleLogType@CGraphEtcData@@QAEX_N@Z	; CGraphEtcData::SetVertScaleLogType
PUBLIC	?SetVertScaleInvertType@CGraphEtcData@@QAEX_N@Z	; CGraphEtcData::SetVertScaleInvertType
PUBLIC	?GetFunctionName@CGraphEtcData@@QBE?AV?$CStringT@DV?$StrTraitMFC_DLL@DV?$ChTraitsCRT@D@ATL@@@@@ATL@@XZ ; CGraphEtcData::GetFunctionName
PUBLIC	?IsVertScaleLogType@CGraphEtcData@@QBE_NXZ	; CGraphEtcData::IsVertScaleLogType
PUBLIC	?IsVertScaleInvertType@CGraphEtcData@@QBE_NXZ	; CGraphEtcData::IsVertScaleInvertType
PUBLIC	??0CIndicatorInfoBackUp@@QAE@XZ			; CIndicatorInfoBackUp::CIndicatorInfoBackUp
PUBLIC	??1CIndicatorInfoBackUp@@UAE@XZ			; CIndicatorInfoBackUp::~CIndicatorInfoBackUp
PUBLIC	?ChangeAllIndicatorList@CIndicatorInfoBackUp@@QAE_NPAUIGraphInfoManager000000@@@Z ; CIndicatorInfoBackUp::ChangeAllIndicatorList
PUBLIC	?GetIndiInfoInTheBeginning@CIndicatorInfoBackUp@@QBE_NAAV?$CList@PAUIGraphInfo000000@@PAU1@@@@Z ; CIndicatorInfoBackUp::GetIndiInfoInTheBeginning
PUBLIC	?GetIndiInfoIntheSave@CIndicatorInfoBackUp@@QBE_NAAV?$CList@PAUIGraphInfo000000@@PAU1@@@@Z ; CIndicatorInfoBackUp::GetIndiInfoIntheSave
PUBLIC	?IsIndicatorInfo@CIndicatorInfoBackUp@@QAE_NPAUIGraphInfo000000@@@Z ; CIndicatorInfoBackUp::IsIndicatorInfo
PUBLIC	?GetGraphEtcData@CIndicatorInfoBackUp@@QAEAAVCGraphEtcData@@XZ ; CIndicatorInfoBackUp::GetGraphEtcData
PUBLIC	?GetIndiInfoDataList@CIndicatorInfoBackUp@@QAEAAVCIndiInfoDataList@@XZ ; CIndicatorInfoBackUp::GetIndiInfoDataList
PUBLIC	?AddTail@CIndicatorInfoBackUp@@QAE_NPAUIGraphInfo000000@@_N@Z ; CIndicatorInfoBackUp::AddTail
PUBLIC	?Initialize@CIndicatorInfoBackUp@@QAEXXZ	; CIndicatorInfoBackUp::Initialize
PUBLIC	??_GCIndicatorInfoBackUp@@UAEPAXI@Z		; CIndicatorInfoBackUp::`scalar deleting destructor'
PUBLIC	??0CIndicatorInfoUndoRedoManagerAddInImp@@QAE@PAUIChartOCX000000@@PAUIAddInDllBase@@@Z ; CIndicatorInfoUndoRedoManagerAddInImp::CIndicatorInfoUndoRedoManagerAddInImp
PUBLIC	??1CIndicatorInfoUndoRedoManagerAddInImp@@UAE@XZ ; CIndicatorInfoUndoRedoManagerAddInImp::~CIndicatorInfoUndoRedoManagerAddInImp
PUBLIC	?GetRegisteredEventMap@CIndicatorInfoUndoRedoManagerAddInImp@@MBEPBW4EAddInEventType@IChartAddIn000000@@XZ ; CIndicatorInfoUndoRedoManagerAddInImp::GetRegisteredEventMap
PUBLIC	??0?$CList@PAVCIndicatorInfoBackUp@@PAV1@@@QAE@H@Z ; CList<CIndicatorInfoBackUp *,CIndicatorInfoBackUp *>::CList<CIndicatorInfoBackUp *,CIndicatorInfoBackUp *>
PUBLIC	?RemoveTail@?$CList@PAVCIndicatorInfoBackUp@@PAV1@@@QAEPAVCIndicatorInfoBackUp@@XZ ; CList<CIndicatorInfoBackUp *,CIndicatorInfoBackUp *>::RemoveTail
PUBLIC	?AddTail@?$CList@PAVCIndicatorInfoBackUp@@PAV1@@@QAEPAU__POSITION@@PAVCIndicatorInfoBackUp@@@Z ; CList<CIndicatorInfoBackUp *,CIndicatorInfoBackUp *>::AddTail
PUBLIC	?RemoveAll@?$CList@PAVCIndicatorInfoBackUp@@PAV1@@@QAEXXZ ; CList<CIndicatorInfoBackUp *,CIndicatorInfoBackUp *>::RemoveAll
PUBLIC	?NewNode@?$CList@PAVCIndicatorInfoBackUp@@PAV1@@@IAEPAUCNode@1@PAU21@0@Z ; CList<CIndicatorInfoBackUp *,CIndicatorInfoBackUp *>::NewNode
PUBLIC	?FreeNode@?$CList@PAVCIndicatorInfoBackUp@@PAV1@@@IAEXPAUCNode@1@@Z ; CList<CIndicatorInfoBackUp *,CIndicatorInfoBackUp *>::FreeNode
PUBLIC	??1?$CList@PAVCIndicatorInfoBackUp@@PAV1@@@UAE@XZ ; CList<CIndicatorInfoBackUp *,CIndicatorInfoBackUp *>::~CList<CIndicatorInfoBackUp *,CIndicatorInfoBackUp *>
PUBLIC	?Serialize@?$CList@PAVCIndicatorInfoBackUp@@PAV1@@@UAEXAAVCArchive@@@Z ; CList<CIndicatorInfoBackUp *,CIndicatorInfoBackUp *>::Serialize
PUBLIC	??_G?$CList@PAVCIndicatorInfoBackUp@@PAV1@@@UAEPAXI@Z ; CList<CIndicatorInfoBackUp *,CIndicatorInfoBackUp *>::`scalar deleting destructor'
PUBLIC	?BackUpIndicatorInfo@CIndicatorInfoUndoRedoManagerAddInImp@@QAEPAVCIndicatorInfoBackUp@@PAUIStringList000000@@H@Z ; CIndicatorInfoUndoRedoManagerAddInImp::BackUpIndicatorInfo
PUBLIC	?GetGraphNameList@CIndicatorInfoUndoRedoManagerAddInImp@@QAE_N_NPAUIStringList000000@@@Z ; CIndicatorInfoUndoRedoManagerAddInImp::GetGraphNameList
PUBLIC	?GetGraphNameList@CIndicatorInfoUndoRedoManagerAddInImp@@QAE_NPAUIStringList000000@@0@Z ; CIndicatorInfoUndoRedoManagerAddInImp::GetGraphNameList
PUBLIC	?IsExistenceIndicatorName@CIndicatorInfoUndoRedoManagerAddInImp@@QAE_NPAUIStringList000000@@PBD@Z ; CIndicatorInfoUndoRedoManagerAddInImp::IsExistenceIndicatorName
PUBLIC	?OnAddInToolCommand@CIndicatorInfoUndoRedoManagerAddInImp@@MAEHW4EAICommandType@@JPBD11@Z ; CIndicatorInfoUndoRedoManagerAddInImp::OnAddInToolCommand
PUBLIC	?OnAddInToolCommand@CIndicatorInfoUndoRedoManagerAddInImp@@MAEHW4EAICommandType@@PBDJ@Z ; CIndicatorInfoUndoRedoManagerAddInImp::OnAddInToolCommand
PUBLIC	?OnResetMainBlock@CIndicatorInfoUndoRedoManagerAddInImp@@MAEXXZ ; CIndicatorInfoUndoRedoManagerAddInImp::OnResetMainBlock
PUBLIC	??_GCIndicatorInfoUndoRedoManagerAddInImp@@UAEPAXI@Z ; CIndicatorInfoUndoRedoManagerAddInImp::`scalar deleting destructor'
PUBLIC	?AddTail@?$CList@PAUIGraphInfo000000@@PAU1@@@QAEPAU__POSITION@@PAUIGraphInfo000000@@@Z ; CList<IGraphInfo000000 *,IGraphInfo000000 *>::AddTail
PUBLIC	?RemoveAll@?$CList@PAUIGraphInfo000000@@PAU1@@@QAEXXZ ; CList<IGraphInfo000000 *,IGraphInfo000000 *>::RemoveAll
PUBLIC	?NewNode@?$CList@PAUIGraphInfo000000@@PAU1@@@IAEPAUCNode@1@PAU21@0@Z ; CList<IGraphInfo000000 *,IGraphInfo000000 *>::NewNode
PUBLIC	??$SerializeElements@PAVCIndiInfoData@@@@YGXAAVCArchive@@PAPAVCIndiInfoData@@H@Z ; SerializeElements<CIndiInfoData *>
PUBLIC	??$SerializeElements@PAVCIndicatorInfoBackUp@@@@YGXAAVCArchive@@PAPAVCIndicatorInfoBackUp@@H@Z ; SerializeElements<CIndicatorInfoBackUp *>
PUBLIC	?QueryInterface@CChartAddInBase000000@@O7AGJABU_GUID@@PAPAX@Z ; [thunk]:CChartAddInBase000000::QueryInterface`adjustor{8}'
PUBLIC	?AddRef@CChartAddInBase000000@@O7AGKXZ		; [thunk]:CChartAddInBase000000::AddRef`adjustor{8}'
PUBLIC	?Release@CChartAddInBase000000@@O7AGKXZ		; [thunk]:CChartAddInBase000000::Release`adjustor{8}'
PUBLIC	??_ECIndicatorInfoUndoRedoManagerAddInImp@@W7AEPAXI@Z ; [thunk]:CIndicatorInfoUndoRedoManagerAddInImp::`vector deleting destructor'
PUBLIC	??_C@_00CNPNBAHC@@				; `string'
PUBLIC	??_R0?AVCObject@@@8				; CObject `RTTI Type Descriptor'
PUBLIC	??_R3CObject@@8					; CObject::`RTTI Class Hierarchy Descriptor'
PUBLIC	??_R2CObject@@8					; CObject::`RTTI Base Class Array'
PUBLIC	??_R1A@?0A@EA@CObject@@8			; CObject::`RTTI Base Class Descriptor at (0,-1,0,64)'
PUBLIC	??_R0?AUIUnknown@@@8				; IUnknown `RTTI Type Descriptor'
PUBLIC	??_R3IUnknown@@8				; IUnknown::`RTTI Class Hierarchy Descriptor'
PUBLIC	??_R2IUnknown@@8				; IUnknown::`RTTI Base Class Array'
PUBLIC	??_R1A@?0A@EA@IUnknown@@8			; IUnknown::`RTTI Base Class Descriptor at (0,-1,0,64)'
PUBLIC	??_7CIndiInfoData@@6B@				; CIndiInfoData::`vftable'
PUBLIC	??_7?$CList@PAVCIndiInfoData@@PAV1@@@6B@	; CList<CIndiInfoData *,CIndiInfoData *>::`vftable'
PUBLIC	??_7CIndiInfoDataList@@6B@			; CIndiInfoDataList::`vftable'
PUBLIC	??_7CIndicatorInfoBackUp@@6B@			; CIndicatorInfoBackUp::`vftable'
PUBLIC	?m_strAddInItemName@CIndicatorInfoUndoRedoManagerAddInImp@@2V?$CStringT@DV?$StrTraitMFC_DLL@DV?$ChTraitsCRT@D@ATL@@@@@ATL@@A ; CIndicatorInfoUndoRedoManagerAddInImp::m_strAddInItemName
PUBLIC	??_7?$CList@PAVCIndicatorInfoBackUp@@PAV1@@@6B@	; CList<CIndicatorInfoBackUp *,CIndicatorInfoBackUp *>::`vftable'
PUBLIC	??_7CIndicatorInfoUndoRedoManagerAddInImp@@6BCIWUnknown@@@ ; CIndicatorInfoUndoRedoManagerAddInImp::`vftable'
PUBLIC	??_7CIndicatorInfoUndoRedoManagerAddInImp@@6BIChartAddIn000000@@@ ; CIndicatorInfoUndoRedoManagerAddInImp::`vftable'
PUBLIC	??_R0?AUIChartAddIn000000@@@8			; IChartAddIn000000 `RTTI Type Descriptor'
PUBLIC	??_R3IChartAddIn000000@@8			; IChartAddIn000000::`RTTI Class Hierarchy Descriptor'
PUBLIC	??_R2IChartAddIn000000@@8			; IChartAddIn000000::`RTTI Base Class Array'
PUBLIC	??_R1A@?0A@EA@IChartAddIn000000@@8		; IChartAddIn000000::`RTTI Base Class Descriptor at (0,-1,0,64)'
PUBLIC	??_R4CIndiInfoData@@6B@				; CIndiInfoData::`RTTI Complete Object Locator'
PUBLIC	??_R0?AVCIndiInfoData@@@8			; CIndiInfoData `RTTI Type Descriptor'
PUBLIC	??_R3CIndiInfoData@@8				; CIndiInfoData::`RTTI Class Hierarchy Descriptor'
PUBLIC	??_R2CIndiInfoData@@8				; CIndiInfoData::`RTTI Base Class Array'
PUBLIC	??_R1A@?0A@EA@CIndiInfoData@@8			; CIndiInfoData::`RTTI Base Class Descriptor at (0,-1,0,64)'
PUBLIC	??_R4CIndiInfoDataList@@6B@			; CIndiInfoDataList::`RTTI Complete Object Locator'
PUBLIC	??_R0?AVCIndiInfoDataList@@@8			; CIndiInfoDataList `RTTI Type Descriptor'
PUBLIC	??_R3CIndiInfoDataList@@8			; CIndiInfoDataList::`RTTI Class Hierarchy Descriptor'
PUBLIC	??_R2CIndiInfoDataList@@8			; CIndiInfoDataList::`RTTI Base Class Array'
PUBLIC	??_R1A@?0A@EA@CIndiInfoDataList@@8		; CIndiInfoDataList::`RTTI Base Class Descriptor at (0,-1,0,64)'
PUBLIC	??_R4?$CList@PAVCIndiInfoData@@PAV1@@@6B@	; CList<CIndiInfoData *,CIndiInfoData *>::`RTTI Complete Object Locator'
PUBLIC	??_R0?AV?$CList@PAVCIndiInfoData@@PAV1@@@@8	; CList<CIndiInfoData *,CIndiInfoData *> `RTTI Type Descriptor'
PUBLIC	??_R3?$CList@PAVCIndiInfoData@@PAV1@@@8		; CList<CIndiInfoData *,CIndiInfoData *>::`RTTI Class Hierarchy Descriptor'
PUBLIC	??_R2?$CList@PAVCIndiInfoData@@PAV1@@@8		; CList<CIndiInfoData *,CIndiInfoData *>::`RTTI Base Class Array'
PUBLIC	??_R1A@?0A@EA@?$CList@PAVCIndiInfoData@@PAV1@@@8 ; CList<CIndiInfoData *,CIndiInfoData *>::`RTTI Base Class Descriptor at (0,-1,0,64)'
PUBLIC	??_R4CIndicatorInfoBackUp@@6B@			; CIndicatorInfoBackUp::`RTTI Complete Object Locator'
PUBLIC	??_R0?AVCIndicatorInfoBackUp@@@8		; CIndicatorInfoBackUp `RTTI Type Descriptor'
PUBLIC	??_R3CIndicatorInfoBackUp@@8			; CIndicatorInfoBackUp::`RTTI Class Hierarchy Descriptor'
PUBLIC	??_R2CIndicatorInfoBackUp@@8			; CIndicatorInfoBackUp::`RTTI Base Class Array'
PUBLIC	??_R1A@?0A@EA@CIndicatorInfoBackUp@@8		; CIndicatorInfoBackUp::`RTTI Base Class Descriptor at (0,-1,0,64)'
PUBLIC	??_R4CIndicatorInfoUndoRedoManagerAddInImp@@6BCIWUnknown@@@ ; CIndicatorInfoUndoRedoManagerAddInImp::`RTTI Complete Object Locator'
PUBLIC	??_R0?AVCIndicatorInfoUndoRedoManagerAddInImp@@@8 ; CIndicatorInfoUndoRedoManagerAddInImp `RTTI Type Descriptor'
PUBLIC	??_R3CIndicatorInfoUndoRedoManagerAddInImp@@8	; CIndicatorInfoUndoRedoManagerAddInImp::`RTTI Class Hierarchy Descriptor'
PUBLIC	??_R2CIndicatorInfoUndoRedoManagerAddInImp@@8	; CIndicatorInfoUndoRedoManagerAddInImp::`RTTI Base Class Array'
PUBLIC	??_R1A@?0A@EA@CIndicatorInfoUndoRedoManagerAddInImp@@8 ; CIndicatorInfoUndoRedoManagerAddInImp::`RTTI Base Class Descriptor at (0,-1,0,64)'
PUBLIC	??_R1A@?0A@EA@CChartAddInBase000000@@8		; CChartAddInBase000000::`RTTI Base Class Descriptor at (0,-1,0,64)'
PUBLIC	??_R0?AVCChartAddInBase000000@@@8		; CChartAddInBase000000 `RTTI Type Descriptor'
PUBLIC	??_R3CChartAddInBase000000@@8			; CChartAddInBase000000::`RTTI Class Hierarchy Descriptor'
PUBLIC	??_R2CChartAddInBase000000@@8			; CChartAddInBase000000::`RTTI Base Class Array'
PUBLIC	??_R1A@?0A@EA@CIWUnknown@@8			; CIWUnknown::`RTTI Base Class Descriptor at (0,-1,0,64)'
PUBLIC	??_R0?AVCIWUnknown@@@8				; CIWUnknown `RTTI Type Descriptor'
PUBLIC	??_R3CIWUnknown@@8				; CIWUnknown::`RTTI Class Hierarchy Descriptor'
PUBLIC	??_R2CIWUnknown@@8				; CIWUnknown::`RTTI Base Class Array'
PUBLIC	??_R17?0A@EA@IChartAddIn000000@@8		; IChartAddIn000000::`RTTI Base Class Descriptor at (8,-1,0,64)'
PUBLIC	??_R17?0A@EA@IUnknown@@8			; IUnknown::`RTTI Base Class Descriptor at (8,-1,0,64)'
PUBLIC	??_R4CIndicatorInfoUndoRedoManagerAddInImp@@6BIChartAddIn000000@@@ ; CIndicatorInfoUndoRedoManagerAddInImp::`RTTI Complete Object Locator'
PUBLIC	??_R4?$CList@PAVCIndicatorInfoBackUp@@PAV1@@@6B@ ; CList<CIndicatorInfoBackUp *,CIndicatorInfoBackUp *>::`RTTI Complete Object Locator'
PUBLIC	??_R0?AV?$CList@PAVCIndicatorInfoBackUp@@PAV1@@@@8 ; CList<CIndicatorInfoBackUp *,CIndicatorInfoBackUp *> `RTTI Type Descriptor'
PUBLIC	??_R3?$CList@PAVCIndicatorInfoBackUp@@PAV1@@@8	; CList<CIndicatorInfoBackUp *,CIndicatorInfoBackUp *>::`RTTI Class Hierarchy Descriptor'
PUBLIC	??_R2?$CList@PAVCIndicatorInfoBackUp@@PAV1@@@8	; CList<CIndicatorInfoBackUp *,CIndicatorInfoBackUp *>::`RTTI Base Class Array'
PUBLIC	??_R1A@?0A@EA@?$CList@PAVCIndicatorInfoBackUp@@PAV1@@@8 ; CList<CIndicatorInfoBackUp *,CIndicatorInfoBackUp *>::`RTTI Base Class Descriptor at (0,-1,0,64)'
EXTRN	??2@YAPAXI@Z:PROC				; operator new
EXTRN	??3@YAXPAX@Z:PROC				; operator delete
EXTRN	??3@YAXPAXI@Z:PROC				; operator delete
EXTRN	?__global_delete@@YAXPAXI@Z:PROC		; __global_delete
EXTRN	_atexit:PROC
EXTRN	___std_terminate:PROC
EXTRN	?AfxThrowInvalidArgException@@YGXXZ:PROC	; AfxThrowInvalidArgException
EXTRN	?AfxThrowArchiveException@@YGXHPBD@Z:PROC	; AfxThrowArchiveException
EXTRN	?GetRuntimeClass@CObject@@UBEPAUCRuntimeClass@@XZ:PROC ; CObject::GetRuntimeClass
EXTRN	__imp_??0?$CStringT@DV?$StrTraitMFC_DLL@DV?$ChTraitsCRT@D@ATL@@@@@ATL@@QAE@XZ:PROC
EXTRN	__imp_??0?$CStringT@DV?$StrTraitMFC_DLL@DV?$ChTraitsCRT@D@ATL@@@@@ATL@@QAE@ABV01@@Z:PROC
EXTRN	__imp_??0?$CStringT@DV?$StrTraitMFC_DLL@DV?$ChTraitsCRT@D@ATL@@@@@ATL@@QAE@PBD@Z:PROC
EXTRN	__imp_??1?$CStringT@DV?$StrTraitMFC_DLL@DV?$ChTraitsCRT@D@ATL@@@@@ATL@@QAE@XZ:PROC
EXTRN	__imp_??4?$CStringT@DV?$StrTraitMFC_DLL@DV?$ChTraitsCRT@D@ATL@@@@@ATL@@QAEAAV01@ABV01@@Z:PROC
EXTRN	__imp_?Compare@?$CStringT@DV?$StrTraitMFC_DLL@DV?$ChTraitsCRT@D@ATL@@@@@ATL@@QBEHPBD@Z:PROC
EXTRN	?Read@CArchive@@QAEIPAXI@Z:PROC			; CArchive::Read
EXTRN	?Write@CArchive@@QAEXPBXI@Z:PROC		; CArchive::Write
EXTRN	?ReadCount@CArchive@@QAEKXZ:PROC		; CArchive::ReadCount
EXTRN	?WriteCount@CArchive@@QAEXK@Z:PROC		; CArchive::WriteCount
EXTRN	?Create@CPlex@@SGPAU1@AAPAU1@II@Z:PROC		; CPlex::Create
EXTRN	?FreeDataChain@CPlex@@QAEXXZ:PROC		; CPlex::FreeDataChain
EXTRN	?AddRef@CIWUnknown@@MAGKXZ:PROC			; CIWUnknown::AddRef
EXTRN	?Release@CIWUnknown@@MAGKXZ:PROC		; CIWUnknown::Release
EXTRN	??0CChartAddInBase000000@@IAE@PAUIChartOCX000000@@PAUIAddInDllBase@@@Z:PROC ; CChartAddInBase000000::CChartAddInBase000000
EXTRN	??1CChartAddInBase000000@@MAE@XZ:PROC		; CChartAddInBase000000::~CChartAddInBase000000
EXTRN	?HasFullManager@CChartAddInBase000000@@MAEHXZ:PROC ; CChartAddInBase000000::HasFullManager
EXTRN	?RegisterEventMap@CChartAddInBase000000@@UAEHH@Z:PROC ; CChartAddInBase000000::RegisterEventMap
EXTRN	?UnregisterEventMap@CChartAddInBase000000@@UAEHXZ:PROC ; CChartAddInBase000000::UnregisterEventMap
EXTRN	?OnOcxDestroyWindow@CChartAddInBase000000@@MAEXXZ:PROC ; CChartAddInBase000000::OnOcxDestroyWindow
EXTRN	??_ECIndiInfoData@@UAEPAXI@Z:PROC		; CIndiInfoData::`vector deleting destructor'
EXTRN	??_E?$CList@PAVCIndiInfoData@@PAV1@@@UAEPAXI@Z:PROC ; CList<CIndiInfoData *,CIndiInfoData *>::`vector deleting destructor'
EXTRN	??_ECIndiInfoDataList@@UAEPAXI@Z:PROC		; CIndiInfoDataList::`vector deleting destructor'
EXTRN	??_ECIndicatorInfoBackUp@@UAEPAXI@Z:PROC	; CIndicatorInfoBackUp::`vector deleting destructor'
EXTRN	??_E?$CList@PAVCIndicatorInfoBackUp@@PAV1@@@UAEPAXI@Z:PROC ; CList<CIndicatorInfoBackUp *,CIndicatorInfoBackUp *>::`vector deleting destructor'
EXTRN	??_ECIndicatorInfoUndoRedoManagerAddInImp@@UAEPAXI@Z:PROC ; CIndicatorInfoUndoRedoManagerAddInImp::`vector deleting destructor'
EXTRN	@__security_check_cookie@4:PROC
EXTRN	___CxxFrameHandler3:PROC
EXTRN	??_7type_info@@6B@:QWORD			; type_info::`vftable'
EXTRN	___security_cookie:DWORD
_BSS	SEGMENT
?m_strAddInItemName@CIndicatorInfoUndoRedoManagerAddInImp@@2V?$CStringT@DV?$StrTraitMFC_DLL@DV?$ChTraitsCRT@D@ATL@@@@@ATL@@A DD 01H DUP (?) ; CIndicatorInfoUndoRedoManagerAddInImp::m_strAddInItemName
_BSS	ENDS
CRT$XCU	SEGMENT
??m_strAddInItemName$initializer$@CIndicatorInfoUndoRedoManagerAddInImp@@2P6AXXZA@@3P6AXXZA DD FLAT:??__E?m_strAddInItemName@CIndicatorInfoUndoRedoManagerAddInImp@@2V?$CStringT@DV?$StrTraitMFC_DLL@DV?$ChTraitsCRT@D@ATL@@@@@ATL@@A@@YAXXZ ; ??m_strAddInItemName$initializer$@CIndicatorInfoUndoRedoManagerAddInImp@@2P6AXXZA@@3P6AXXZA
CRT$XCU	ENDS
;	COMDAT ??_R1A@?0A@EA@?$CList@PAVCIndicatorInfoBackUp@@PAV1@@@8
rdata$r	SEGMENT
??_R1A@?0A@EA@?$CList@PAVCIndicatorInfoBackUp@@PAV1@@@8 DD FLAT:??_R0?AV?$CList@PAVCIndicatorInfoBackUp@@PAV1@@@@8 ; CList<CIndicatorInfoBackUp *,CIndicatorInfoBackUp *>::`RTTI Base Class Descriptor at (0,-1,0,64)'
	DD	01H
	DD	00H
	DD	0ffffffffH
	DD	00H
	DD	040H
	DD	FLAT:??_R3?$CList@PAVCIndicatorInfoBackUp@@PAV1@@@8
rdata$r	ENDS
;	COMDAT ??_R2?$CList@PAVCIndicatorInfoBackUp@@PAV1@@@8
rdata$r	SEGMENT
??_R2?$CList@PAVCIndicatorInfoBackUp@@PAV1@@@8 DD FLAT:??_R1A@?0A@EA@?$CList@PAVCIndicatorInfoBackUp@@PAV1@@@8 ; CList<CIndicatorInfoBackUp *,CIndicatorInfoBackUp *>::`RTTI Base Class Array'
	DD	FLAT:??_R1A@?0A@EA@CObject@@8
rdata$r	ENDS
;	COMDAT ??_R3?$CList@PAVCIndicatorInfoBackUp@@PAV1@@@8
rdata$r	SEGMENT
??_R3?$CList@PAVCIndicatorInfoBackUp@@PAV1@@@8 DD 00H	; CList<CIndicatorInfoBackUp *,CIndicatorInfoBackUp *>::`RTTI Class Hierarchy Descriptor'
	DD	00H
	DD	02H
	DD	FLAT:??_R2?$CList@PAVCIndicatorInfoBackUp@@PAV1@@@8
rdata$r	ENDS
;	COMDAT ??_R0?AV?$CList@PAVCIndicatorInfoBackUp@@PAV1@@@@8
data$rs	SEGMENT
??_R0?AV?$CList@PAVCIndicatorInfoBackUp@@PAV1@@@@8 DD FLAT:??_7type_info@@6B@ ; CList<CIndicatorInfoBackUp *,CIndicatorInfoBackUp *> `RTTI Type Descriptor'
	DD	00H
	DB	'.?AV?$CList@PAVCIndicatorInfoBackUp@@PAV1@@@', 00H
data$rs	ENDS
;	COMDAT ??_R4?$CList@PAVCIndicatorInfoBackUp@@PAV1@@@6B@
rdata$r	SEGMENT
??_R4?$CList@PAVCIndicatorInfoBackUp@@PAV1@@@6B@ DD 00H	; CList<CIndicatorInfoBackUp *,CIndicatorInfoBackUp *>::`RTTI Complete Object Locator'
	DD	00H
	DD	00H
	DD	FLAT:??_R0?AV?$CList@PAVCIndicatorInfoBackUp@@PAV1@@@@8
	DD	FLAT:??_R3?$CList@PAVCIndicatorInfoBackUp@@PAV1@@@8
rdata$r	ENDS
;	COMDAT ??_R4CIndicatorInfoUndoRedoManagerAddInImp@@6BIChartAddIn000000@@@
rdata$r	SEGMENT
??_R4CIndicatorInfoUndoRedoManagerAddInImp@@6BIChartAddIn000000@@@ DD 00H ; CIndicatorInfoUndoRedoManagerAddInImp::`RTTI Complete Object Locator'
	DD	08H
	DD	00H
	DD	FLAT:??_R0?AVCIndicatorInfoUndoRedoManagerAddInImp@@@8
	DD	FLAT:??_R3CIndicatorInfoUndoRedoManagerAddInImp@@8
rdata$r	ENDS
;	COMDAT ??_R17?0A@EA@IUnknown@@8
rdata$r	SEGMENT
??_R17?0A@EA@IUnknown@@8 DD FLAT:??_R0?AUIUnknown@@@8	; IUnknown::`RTTI Base Class Descriptor at (8,-1,0,64)'
	DD	00H
	DD	08H
	DD	0ffffffffH
	DD	00H
	DD	040H
	DD	FLAT:??_R3IUnknown@@8
rdata$r	ENDS
;	COMDAT ??_R17?0A@EA@IChartAddIn000000@@8
rdata$r	SEGMENT
??_R17?0A@EA@IChartAddIn000000@@8 DD FLAT:??_R0?AUIChartAddIn000000@@@8 ; IChartAddIn000000::`RTTI Base Class Descriptor at (8,-1,0,64)'
	DD	01H
	DD	08H
	DD	0ffffffffH
	DD	00H
	DD	040H
	DD	FLAT:??_R3IChartAddIn000000@@8
rdata$r	ENDS
;	COMDAT ??_R2CIWUnknown@@8
rdata$r	SEGMENT
??_R2CIWUnknown@@8 DD FLAT:??_R1A@?0A@EA@CIWUnknown@@8	; CIWUnknown::`RTTI Base Class Array'
	DD	FLAT:??_R1A@?0A@EA@CObject@@8
rdata$r	ENDS
;	COMDAT ??_R3CIWUnknown@@8
rdata$r	SEGMENT
??_R3CIWUnknown@@8 DD 00H				; CIWUnknown::`RTTI Class Hierarchy Descriptor'
	DD	00H
	DD	02H
	DD	FLAT:??_R2CIWUnknown@@8
rdata$r	ENDS
;	COMDAT ??_R0?AVCIWUnknown@@@8
data$rs	SEGMENT
??_R0?AVCIWUnknown@@@8 DD FLAT:??_7type_info@@6B@	; CIWUnknown `RTTI Type Descriptor'
	DD	00H
	DB	'.?AVCIWUnknown@@', 00H
data$rs	ENDS
;	COMDAT ??_R1A@?0A@EA@CIWUnknown@@8
rdata$r	SEGMENT
??_R1A@?0A@EA@CIWUnknown@@8 DD FLAT:??_R0?AVCIWUnknown@@@8 ; CIWUnknown::`RTTI Base Class Descriptor at (0,-1,0,64)'
	DD	01H
	DD	00H
	DD	0ffffffffH
	DD	00H
	DD	040H
	DD	FLAT:??_R3CIWUnknown@@8
rdata$r	ENDS
;	COMDAT ??_R2CChartAddInBase000000@@8
rdata$r	SEGMENT
??_R2CChartAddInBase000000@@8 DD FLAT:??_R1A@?0A@EA@CChartAddInBase000000@@8 ; CChartAddInBase000000::`RTTI Base Class Array'
	DD	FLAT:??_R1A@?0A@EA@CIWUnknown@@8
	DD	FLAT:??_R1A@?0A@EA@CObject@@8
	DD	FLAT:??_R17?0A@EA@IChartAddIn000000@@8
	DD	FLAT:??_R17?0A@EA@IUnknown@@8
rdata$r	ENDS
;	COMDAT ??_R3CChartAddInBase000000@@8
rdata$r	SEGMENT
??_R3CChartAddInBase000000@@8 DD 00H			; CChartAddInBase000000::`RTTI Class Hierarchy Descriptor'
	DD	01H
	DD	05H
	DD	FLAT:??_R2CChartAddInBase000000@@8
rdata$r	ENDS
;	COMDAT ??_R0?AVCChartAddInBase000000@@@8
data$rs	SEGMENT
??_R0?AVCChartAddInBase000000@@@8 DD FLAT:??_7type_info@@6B@ ; CChartAddInBase000000 `RTTI Type Descriptor'
	DD	00H
	DB	'.?AVCChartAddInBase000000@@', 00H
data$rs	ENDS
;	COMDAT ??_R1A@?0A@EA@CChartAddInBase000000@@8
rdata$r	SEGMENT
??_R1A@?0A@EA@CChartAddInBase000000@@8 DD FLAT:??_R0?AVCChartAddInBase000000@@@8 ; CChartAddInBase000000::`RTTI Base Class Descriptor at (0,-1,0,64)'
	DD	04H
	DD	00H
	DD	0ffffffffH
	DD	00H
	DD	040H
	DD	FLAT:??_R3CChartAddInBase000000@@8
rdata$r	ENDS
;	COMDAT ??_R1A@?0A@EA@CIndicatorInfoUndoRedoManagerAddInImp@@8
rdata$r	SEGMENT
??_R1A@?0A@EA@CIndicatorInfoUndoRedoManagerAddInImp@@8 DD FLAT:??_R0?AVCIndicatorInfoUndoRedoManagerAddInImp@@@8 ; CIndicatorInfoUndoRedoManagerAddInImp::`RTTI Base Class Descriptor at (0,-1,0,64)'
	DD	05H
	DD	00H
	DD	0ffffffffH
	DD	00H
	DD	040H
	DD	FLAT:??_R3CIndicatorInfoUndoRedoManagerAddInImp@@8
rdata$r	ENDS
;	COMDAT ??_R2CIndicatorInfoUndoRedoManagerAddInImp@@8
rdata$r	SEGMENT
??_R2CIndicatorInfoUndoRedoManagerAddInImp@@8 DD FLAT:??_R1A@?0A@EA@CIndicatorInfoUndoRedoManagerAddInImp@@8 ; CIndicatorInfoUndoRedoManagerAddInImp::`RTTI Base Class Array'
	DD	FLAT:??_R1A@?0A@EA@CChartAddInBase000000@@8
	DD	FLAT:??_R1A@?0A@EA@CIWUnknown@@8
	DD	FLAT:??_R1A@?0A@EA@CObject@@8
	DD	FLAT:??_R17?0A@EA@IChartAddIn000000@@8
	DD	FLAT:??_R17?0A@EA@IUnknown@@8
rdata$r	ENDS
;	COMDAT ??_R3CIndicatorInfoUndoRedoManagerAddInImp@@8
rdata$r	SEGMENT
??_R3CIndicatorInfoUndoRedoManagerAddInImp@@8 DD 00H	; CIndicatorInfoUndoRedoManagerAddInImp::`RTTI Class Hierarchy Descriptor'
	DD	01H
	DD	06H
	DD	FLAT:??_R2CIndicatorInfoUndoRedoManagerAddInImp@@8
rdata$r	ENDS
;	COMDAT ??_R0?AVCIndicatorInfoUndoRedoManagerAddInImp@@@8
data$rs	SEGMENT
??_R0?AVCIndicatorInfoUndoRedoManagerAddInImp@@@8 DD FLAT:??_7type_info@@6B@ ; CIndicatorInfoUndoRedoManagerAddInImp `RTTI Type Descriptor'
	DD	00H
	DB	'.?AVCIndicatorInfoUndoRedoManagerAddInImp@@', 00H
data$rs	ENDS
;	COMDAT ??_R4CIndicatorInfoUndoRedoManagerAddInImp@@6BCIWUnknown@@@
rdata$r	SEGMENT
??_R4CIndicatorInfoUndoRedoManagerAddInImp@@6BCIWUnknown@@@ DD 00H ; CIndicatorInfoUndoRedoManagerAddInImp::`RTTI Complete Object Locator'
	DD	00H
	DD	00H
	DD	FLAT:??_R0?AVCIndicatorInfoUndoRedoManagerAddInImp@@@8
	DD	FLAT:??_R3CIndicatorInfoUndoRedoManagerAddInImp@@8
rdata$r	ENDS
;	COMDAT ??_R1A@?0A@EA@CIndicatorInfoBackUp@@8
rdata$r	SEGMENT
??_R1A@?0A@EA@CIndicatorInfoBackUp@@8 DD FLAT:??_R0?AVCIndicatorInfoBackUp@@@8 ; CIndicatorInfoBackUp::`RTTI Base Class Descriptor at (0,-1,0,64)'
	DD	00H
	DD	00H
	DD	0ffffffffH
	DD	00H
	DD	040H
	DD	FLAT:??_R3CIndicatorInfoBackUp@@8
rdata$r	ENDS
;	COMDAT ??_R2CIndicatorInfoBackUp@@8
rdata$r	SEGMENT
??_R2CIndicatorInfoBackUp@@8 DD FLAT:??_R1A@?0A@EA@CIndicatorInfoBackUp@@8 ; CIndicatorInfoBackUp::`RTTI Base Class Array'
rdata$r	ENDS
;	COMDAT ??_R3CIndicatorInfoBackUp@@8
rdata$r	SEGMENT
??_R3CIndicatorInfoBackUp@@8 DD 00H			; CIndicatorInfoBackUp::`RTTI Class Hierarchy Descriptor'
	DD	00H
	DD	01H
	DD	FLAT:??_R2CIndicatorInfoBackUp@@8
rdata$r	ENDS
;	COMDAT ??_R0?AVCIndicatorInfoBackUp@@@8
data$rs	SEGMENT
??_R0?AVCIndicatorInfoBackUp@@@8 DD FLAT:??_7type_info@@6B@ ; CIndicatorInfoBackUp `RTTI Type Descriptor'
	DD	00H
	DB	'.?AVCIndicatorInfoBackUp@@', 00H
data$rs	ENDS
;	COMDAT ??_R4CIndicatorInfoBackUp@@6B@
rdata$r	SEGMENT
??_R4CIndicatorInfoBackUp@@6B@ DD 00H			; CIndicatorInfoBackUp::`RTTI Complete Object Locator'
	DD	00H
	DD	00H
	DD	FLAT:??_R0?AVCIndicatorInfoBackUp@@@8
	DD	FLAT:??_R3CIndicatorInfoBackUp@@8
rdata$r	ENDS
;	COMDAT ??_R1A@?0A@EA@?$CList@PAVCIndiInfoData@@PAV1@@@8
rdata$r	SEGMENT
??_R1A@?0A@EA@?$CList@PAVCIndiInfoData@@PAV1@@@8 DD FLAT:??_R0?AV?$CList@PAVCIndiInfoData@@PAV1@@@@8 ; CList<CIndiInfoData *,CIndiInfoData *>::`RTTI Base Class Descriptor at (0,-1,0,64)'
	DD	01H
	DD	00H
	DD	0ffffffffH
	DD	00H
	DD	040H
	DD	FLAT:??_R3?$CList@PAVCIndiInfoData@@PAV1@@@8
rdata$r	ENDS
;	COMDAT ??_R2?$CList@PAVCIndiInfoData@@PAV1@@@8
rdata$r	SEGMENT
??_R2?$CList@PAVCIndiInfoData@@PAV1@@@8 DD FLAT:??_R1A@?0A@EA@?$CList@PAVCIndiInfoData@@PAV1@@@8 ; CList<CIndiInfoData *,CIndiInfoData *>::`RTTI Base Class Array'
	DD	FLAT:??_R1A@?0A@EA@CObject@@8
rdata$r	ENDS
;	COMDAT ??_R3?$CList@PAVCIndiInfoData@@PAV1@@@8
rdata$r	SEGMENT
??_R3?$CList@PAVCIndiInfoData@@PAV1@@@8 DD 00H		; CList<CIndiInfoData *,CIndiInfoData *>::`RTTI Class Hierarchy Descriptor'
	DD	00H
	DD	02H
	DD	FLAT:??_R2?$CList@PAVCIndiInfoData@@PAV1@@@8
rdata$r	ENDS
;	COMDAT ??_R0?AV?$CList@PAVCIndiInfoData@@PAV1@@@@8
data$rs	SEGMENT
??_R0?AV?$CList@PAVCIndiInfoData@@PAV1@@@@8 DD FLAT:??_7type_info@@6B@ ; CList<CIndiInfoData *,CIndiInfoData *> `RTTI Type Descriptor'
	DD	00H
	DB	'.?AV?$CList@PAVCIndiInfoData@@PAV1@@@', 00H
data$rs	ENDS
;	COMDAT ??_R4?$CList@PAVCIndiInfoData@@PAV1@@@6B@
rdata$r	SEGMENT
??_R4?$CList@PAVCIndiInfoData@@PAV1@@@6B@ DD 00H	; CList<CIndiInfoData *,CIndiInfoData *>::`RTTI Complete Object Locator'
	DD	00H
	DD	00H
	DD	FLAT:??_R0?AV?$CList@PAVCIndiInfoData@@PAV1@@@@8
	DD	FLAT:??_R3?$CList@PAVCIndiInfoData@@PAV1@@@8
rdata$r	ENDS
;	COMDAT ??_R1A@?0A@EA@CIndiInfoDataList@@8
rdata$r	SEGMENT
??_R1A@?0A@EA@CIndiInfoDataList@@8 DD FLAT:??_R0?AVCIndiInfoDataList@@@8 ; CIndiInfoDataList::`RTTI Base Class Descriptor at (0,-1,0,64)'
	DD	00H
	DD	00H
	DD	0ffffffffH
	DD	00H
	DD	040H
	DD	FLAT:??_R3CIndiInfoDataList@@8
rdata$r	ENDS
;	COMDAT ??_R2CIndiInfoDataList@@8
rdata$r	SEGMENT
??_R2CIndiInfoDataList@@8 DD FLAT:??_R1A@?0A@EA@CIndiInfoDataList@@8 ; CIndiInfoDataList::`RTTI Base Class Array'
rdata$r	ENDS
;	COMDAT ??_R3CIndiInfoDataList@@8
rdata$r	SEGMENT
??_R3CIndiInfoDataList@@8 DD 00H			; CIndiInfoDataList::`RTTI Class Hierarchy Descriptor'
	DD	00H
	DD	01H
	DD	FLAT:??_R2CIndiInfoDataList@@8
rdata$r	ENDS
;	COMDAT ??_R0?AVCIndiInfoDataList@@@8
data$rs	SEGMENT
??_R0?AVCIndiInfoDataList@@@8 DD FLAT:??_7type_info@@6B@ ; CIndiInfoDataList `RTTI Type Descriptor'
	DD	00H
	DB	'.?AVCIndiInfoDataList@@', 00H
data$rs	ENDS
;	COMDAT ??_R4CIndiInfoDataList@@6B@
rdata$r	SEGMENT
??_R4CIndiInfoDataList@@6B@ DD 00H			; CIndiInfoDataList::`RTTI Complete Object Locator'
	DD	00H
	DD	00H
	DD	FLAT:??_R0?AVCIndiInfoDataList@@@8
	DD	FLAT:??_R3CIndiInfoDataList@@8
rdata$r	ENDS
;	COMDAT ??_R1A@?0A@EA@CIndiInfoData@@8
rdata$r	SEGMENT
??_R1A@?0A@EA@CIndiInfoData@@8 DD FLAT:??_R0?AVCIndiInfoData@@@8 ; CIndiInfoData::`RTTI Base Class Descriptor at (0,-1,0,64)'
	DD	00H
	DD	00H
	DD	0ffffffffH
	DD	00H
	DD	040H
	DD	FLAT:??_R3CIndiInfoData@@8
rdata$r	ENDS
;	COMDAT ??_R2CIndiInfoData@@8
rdata$r	SEGMENT
??_R2CIndiInfoData@@8 DD FLAT:??_R1A@?0A@EA@CIndiInfoData@@8 ; CIndiInfoData::`RTTI Base Class Array'
rdata$r	ENDS
;	COMDAT ??_R3CIndiInfoData@@8
rdata$r	SEGMENT
??_R3CIndiInfoData@@8 DD 00H				; CIndiInfoData::`RTTI Class Hierarchy Descriptor'
	DD	00H
	DD	01H
	DD	FLAT:??_R2CIndiInfoData@@8
rdata$r	ENDS
;	COMDAT ??_R0?AVCIndiInfoData@@@8
data$rs	SEGMENT
??_R0?AVCIndiInfoData@@@8 DD FLAT:??_7type_info@@6B@	; CIndiInfoData `RTTI Type Descriptor'
	DD	00H
	DB	'.?AVCIndiInfoData@@', 00H
data$rs	ENDS
;	COMDAT ??_R4CIndiInfoData@@6B@
rdata$r	SEGMENT
??_R4CIndiInfoData@@6B@ DD 00H				; CIndiInfoData::`RTTI Complete Object Locator'
	DD	00H
	DD	00H
	DD	FLAT:??_R0?AVCIndiInfoData@@@8
	DD	FLAT:??_R3CIndiInfoData@@8
rdata$r	ENDS
;	COMDAT ??_R1A@?0A@EA@IChartAddIn000000@@8
rdata$r	SEGMENT
??_R1A@?0A@EA@IChartAddIn000000@@8 DD FLAT:??_R0?AUIChartAddIn000000@@@8 ; IChartAddIn000000::`RTTI Base Class Descriptor at (0,-1,0,64)'
	DD	01H
	DD	00H
	DD	0ffffffffH
	DD	00H
	DD	040H
	DD	FLAT:??_R3IChartAddIn000000@@8
rdata$r	ENDS
;	COMDAT ??_R2IChartAddIn000000@@8
rdata$r	SEGMENT
??_R2IChartAddIn000000@@8 DD FLAT:??_R1A@?0A@EA@IChartAddIn000000@@8 ; IChartAddIn000000::`RTTI Base Class Array'
	DD	FLAT:??_R1A@?0A@EA@IUnknown@@8
rdata$r	ENDS
;	COMDAT ??_R3IChartAddIn000000@@8
rdata$r	SEGMENT
??_R3IChartAddIn000000@@8 DD 00H			; IChartAddIn000000::`RTTI Class Hierarchy Descriptor'
	DD	00H
	DD	02H
	DD	FLAT:??_R2IChartAddIn000000@@8
rdata$r	ENDS
;	COMDAT ??_R0?AUIChartAddIn000000@@@8
data$rs	SEGMENT
??_R0?AUIChartAddIn000000@@@8 DD FLAT:??_7type_info@@6B@ ; IChartAddIn000000 `RTTI Type Descriptor'
	DD	00H
	DB	'.?AUIChartAddIn000000@@', 00H
data$rs	ENDS
;	COMDAT ??_7CIndicatorInfoUndoRedoManagerAddInImp@@6BIChartAddIn000000@@@
CONST	SEGMENT
??_7CIndicatorInfoUndoRedoManagerAddInImp@@6BIChartAddIn000000@@@ DD FLAT:??_R4CIndicatorInfoUndoRedoManagerAddInImp@@6BIChartAddIn000000@@@ ; CIndicatorInfoUndoRedoManagerAddInImp::`vftable'
	DD	FLAT:?QueryInterface@CChartAddInBase000000@@O7AGJABU_GUID@@PAPAX@Z
	DD	FLAT:?AddRef@CChartAddInBase000000@@O7AGKXZ
	DD	FLAT:?Release@CChartAddInBase000000@@O7AGKXZ
	DD	FLAT:??_ECIndicatorInfoUndoRedoManagerAddInImp@@W7AEPAXI@Z
	DD	FLAT:?HasFullManager@CChartAddInBase000000@@MAEHXZ
	DD	FLAT:?GetAddInCustomInterface@CChartAddInBase000000@@MAEPAUIUnknown@@XZ
	DD	FLAT:?InvokeAddIn@CChartAddInBase000000@@MAEHHJ@Z
	DD	FLAT:?InvokeAddInStr@CChartAddInBase000000@@MAEHPBD0@Z
	DD	FLAT:?OnOcxDestroyWindow@CChartAddInBase000000@@MAEXXZ
	DD	FLAT:?ChangeChartMode@CChartAddInBase000000@@MAEXW4CHART_MODE@CChartInfo@@@Z
	DD	FLAT:?RegisterEventMap@CChartAddInBase000000@@UAEHH@Z
	DD	FLAT:?UnregisterEventMap@CChartAddInBase000000@@UAEHXZ
	DD	FLAT:?OnGSharedDataChange@CChartAddInBase000000@@MAEXPBD0H@Z
	DD	FLAT:?OnLSharedDataChange@CChartAddInBase000000@@MAEXPBD0@Z
	DD	FLAT:?OnResetChart@CChartAddInBase000000@@MAEXXZ
	DD	FLAT:?OnDrawBeforeGraph@CChartAddInBase000000@@MAEXPAUHDC__@@@Z
	DD	FLAT:?OnDrawAfterGraph@CChartAddInBase000000@@MAEXPAUHDC__@@@Z
	DD	FLAT:?OnPacketDataMultiItem@CChartAddInBase000000@@MAEXPBD0H@Z
	DD	FLAT:?OnTimer@CChartAddInBase000000@@MAEXI@Z
	DD	FLAT:?OnCaptureChanged@CChartAddInBase000000@@MAEXPAUHWND__@@QAUHBITMAP__@@@Z
	DD	FLAT:?OnResetMainBlock@CIndicatorInfoUndoRedoManagerAddInImp@@MAEXXZ
	DD	FLAT:?OnUserIndiatorConditionLoaded@CChartAddInBase000000@@MAEXXZ
	DD	FLAT:?OnChartItemChanged@CChartAddInBase000000@@MAEXXZ
	DD	FLAT:?OnGraphDataChanged@CChartAddInBase000000@@MAEXXZ
	DD	FLAT:?OnBlockRemoved@CChartAddInBase000000@@MAEXHH@Z
	DD	FLAT:?OnGraphAdded@CChartAddInBase000000@@MAEXPBD0@Z
	DD	FLAT:?OnManualRealData@CChartAddInBase000000@@MAEXPBDNH@Z
	DD	FLAT:?OnContextMenu@CChartAddInBase000000@@MAEXPAUHWND__@@AAUtagPOINT@@@Z
	DD	FLAT:?OnGraphDeleted@CChartAddInBase000000@@MAEXPBD0@Z
	DD	FLAT:?OnPacketTruncated@CChartAddInBase000000@@MAEXH@Z
	DD	FLAT:?OnBlockChanged@CChartAddInBase000000@@MAEXW4BLOCKBEHAVIOR@CBlockBaseData@@HHHH@Z
	DD	FLAT:?OnToolCommand@CChartAddInBase000000@@MAEXHH@Z
	DD	FLAT:?OnRealData@CChartAddInBase000000@@MAEXPBDN0@Z
	DD	FLAT:?OnIndexedRealData@CChartAddInBase000000@@MAEXPBDHN@Z
	DD	FLAT:?OnRealPacketEnd@CChartAddInBase000000@@MAEXPBD@Z
	DD	FLAT:?OnLoadEnvironment@CChartAddInBase000000@@MAEXPAUIPropertyMap@@@Z
	DD	FLAT:?OnSaveEnvironment@CChartAddInBase000000@@MAEXPAUIPropertyMap@@@Z
	DD	FLAT:?DrawCursor@CChartAddInBase000000@@MAE?AUtagRECT@@PAUHDC__@@@Z
	DD	FLAT:?OnRecalculationComplete@CChartAddInBase000000@@MAEXXZ
	DD	FLAT:?OnPreRealData@CChartAddInBase000000@@MAEHPBDAAN0H@Z
	DD	FLAT:?OnPreIndexedRealData@CChartAddInBase000000@@MAEHPBDHAANH@Z
	DD	FLAT:?OnPreRealPacketEnd@CChartAddInBase000000@@MAEHPBDH@Z
	DD	FLAT:?OnPreNMTRClock@CChartAddInBase000000@@MAEHAA_J@Z
	DD	FLAT:?OnCmdMsg@CChartAddInBase000000@@MAEHIHPAUICmdUI000000@@@Z
	DD	FLAT:?OnAddInMsg@CChartAddInBase000000@@MAEHPBDJ@Z
	DD	FLAT:?OnAddInToolCommand@CChartAddInBase000000@@MAEHAAJW4EAICommandType@@JJ@Z
	DD	FLAT:?OnAddInToolCommand@CChartAddInBase000000@@MAEHAAJW4EAICommandType@@J@Z
	DD	FLAT:?OnAddInToolCommand@CChartAddInBase000000@@MAEHAAJW4EAICommandType@@PBDPAVCObject@@@Z
	DD	FLAT:?OnAddInToolCommand@CChartAddInBase000000@@MAEHAAJW4EAICommandType@@PBD@Z
	DD	FLAT:?OnAddInToolCommand@CChartAddInBase000000@@MAEHAAJW4EAICommandType@@PAUIGraphInfo000000@@@Z
	DD	FLAT:?OnAddInToolCommand@CChartAddInBase000000@@MAEHAAJW4EAICommandType@@@Z
	DD	FLAT:?OnAddInToolCommand@CChartAddInBase000000@@MAEHW4EAICommandType@@JJJJJJJJJ@Z
	DD	FLAT:?OnAddInToolCommand@CChartAddInBase000000@@MAEHW4EAICommandType@@JJ@Z
	DD	FLAT:?OnAddInToolCommand@CIndicatorInfoUndoRedoManagerAddInImp@@MAEHW4EAICommandType@@JPBD11@Z
	DD	FLAT:?OnAddInToolCommand@CChartAddInBase000000@@MAEHW4EAICommandType@@JPBD@Z
	DD	FLAT:?OnAddInToolCommand@CChartAddInBase000000@@MAEHW4EAICommandType@@J@Z
	DD	FLAT:?OnAddInToolCommand@CChartAddInBase000000@@MAEHW4EAICommandType@@PBUIAddInDllBase@@@Z
	DD	FLAT:?OnAddInToolCommand@CIndicatorInfoUndoRedoManagerAddInImp@@MAEHW4EAICommandType@@PBDJ@Z
	DD	FLAT:?OnAddInToolCommand@CChartAddInBase000000@@MAEHW4EAICommandType@@PBD1@Z
	DD	FLAT:?OnAddInToolCommand@CChartAddInBase000000@@MAEHW4EAICommandType@@PBD@Z
	DD	FLAT:?OnAddInToolCommand@CChartAddInBase000000@@MAEHW4EAICommandType@@PAUHDC__@@IAAUtagPOINT@@K@Z
	DD	FLAT:?OnAddInToolCommand@CChartAddInBase000000@@MAEHW4EAICommandType@@@Z
	DD	FLAT:?OnKeyDown@CChartAddInBase000000@@MAEHIII@Z
	DD	FLAT:?OnKeyUp@CChartAddInBase000000@@MAEHIII@Z
	DD	FLAT:?OnMouseWheel@CChartAddInBase000000@@MAEHIFUtagPOINT@@K@Z
	DD	FLAT:?OnMouseMove@CChartAddInBase000000@@MAEHPAUHDC__@@IAAUtagPOINT@@KQAUHBITMAP__@@@Z
	DD	FLAT:?OnLButtonDown@CChartAddInBase000000@@MAEHPAUHDC__@@IAAUtagPOINT@@K@Z
	DD	FLAT:?OnLButtonUp@CChartAddInBase000000@@MAEHPAUHDC__@@IAAUtagPOINT@@K@Z
	DD	FLAT:?OnLButtonDblClk@CChartAddInBase000000@@MAEHPAUHDC__@@IAAUtagPOINT@@K@Z
	DD	FLAT:?OnRButtonDown@CChartAddInBase000000@@MAEHPAUHDC__@@IAAUtagPOINT@@K@Z
	DD	FLAT:?OnRButtonUp@CChartAddInBase000000@@MAEHPAUHDC__@@IAAUtagPOINT@@K@Z
	DD	FLAT:?OnRButtonDblClk@CChartAddInBase000000@@MAEHPAUHDC__@@IAAUtagPOINT@@K@Z
CONST	ENDS
;	COMDAT ??_7CIndicatorInfoUndoRedoManagerAddInImp@@6BCIWUnknown@@@
CONST	SEGMENT
??_7CIndicatorInfoUndoRedoManagerAddInImp@@6BCIWUnknown@@@ DD FLAT:??_R4CIndicatorInfoUndoRedoManagerAddInImp@@6BCIWUnknown@@@ ; CIndicatorInfoUndoRedoManagerAddInImp::`vftable'
	DD	FLAT:?GetRuntimeClass@CObject@@UBEPAUCRuntimeClass@@XZ
	DD	FLAT:??_ECIndicatorInfoUndoRedoManagerAddInImp@@UAEPAXI@Z
	DD	FLAT:?Serialize@CObject@@UAEXAAVCArchive@@@Z
	DD	FLAT:?AssertValid@CObject@@UBEXXZ
	DD	FLAT:?Dump@CObject@@UBEXAAVCDumpContext@@@Z
	DD	FLAT:?AddRef@CChartAddInBase000000@@MAGKXZ
	DD	FLAT:?Release@CChartAddInBase000000@@MAGKXZ
	DD	FLAT:?QueryInterface@CChartAddInBase000000@@MAGJABU_GUID@@PAPAX@Z
	DD	FLAT:?PostConstruct@CIWUnknown@@MAEXXZ
	DD	FLAT:?PreDestructX@CIWUnknown@@MAEXXZ
	DD	FLAT:?PreDestruct@CIWUnknown@@MAEXXZ
	DD	FLAT:?GetRegisteredEventMap@CIndicatorInfoUndoRedoManagerAddInImp@@MBEPBW4EAddInEventType@IChartAddIn000000@@XZ
	DD	FLAT:?AfeterOnOcxDestroyWindow@CChartAddInBase000000@@MAEXXZ
CONST	ENDS
;	COMDAT ??_7?$CList@PAVCIndicatorInfoBackUp@@PAV1@@@6B@
CONST	SEGMENT
??_7?$CList@PAVCIndicatorInfoBackUp@@PAV1@@@6B@ DD FLAT:??_R4?$CList@PAVCIndicatorInfoBackUp@@PAV1@@@6B@ ; CList<CIndicatorInfoBackUp *,CIndicatorInfoBackUp *>::`vftable'
	DD	FLAT:?GetRuntimeClass@CObject@@UBEPAUCRuntimeClass@@XZ
	DD	FLAT:??_E?$CList@PAVCIndicatorInfoBackUp@@PAV1@@@UAEPAXI@Z
	DD	FLAT:?Serialize@?$CList@PAVCIndicatorInfoBackUp@@PAV1@@@UAEXAAVCArchive@@@Z
	DD	FLAT:?AssertValid@CObject@@UBEXXZ
	DD	FLAT:?Dump@CObject@@UBEXAAVCDumpContext@@@Z
CONST	ENDS
;	COMDAT ??_7CIndicatorInfoBackUp@@6B@
CONST	SEGMENT
??_7CIndicatorInfoBackUp@@6B@ DD FLAT:??_R4CIndicatorInfoBackUp@@6B@ ; CIndicatorInfoBackUp::`vftable'
	DD	FLAT:??_ECIndicatorInfoBackUp@@UAEPAXI@Z
CONST	ENDS
;	COMDAT ??_7CIndiInfoDataList@@6B@
CONST	SEGMENT
??_7CIndiInfoDataList@@6B@ DD FLAT:??_R4CIndiInfoDataList@@6B@ ; CIndiInfoDataList::`vftable'
	DD	FLAT:??_ECIndiInfoDataList@@UAEPAXI@Z
CONST	ENDS
;	COMDAT ??_7?$CList@PAVCIndiInfoData@@PAV1@@@6B@
CONST	SEGMENT
??_7?$CList@PAVCIndiInfoData@@PAV1@@@6B@ DD FLAT:??_R4?$CList@PAVCIndiInfoData@@PAV1@@@6B@ ; CList<CIndiInfoData *,CIndiInfoData *>::`vftable'
	DD	FLAT:?GetRuntimeClass@CObject@@UBEPAUCRuntimeClass@@XZ
	DD	FLAT:??_E?$CList@PAVCIndiInfoData@@PAV1@@@UAEPAXI@Z
	DD	FLAT:?Serialize@?$CList@PAVCIndiInfoData@@PAV1@@@UAEXAAVCArchive@@@Z
	DD	FLAT:?AssertValid@CObject@@UBEXXZ
	DD	FLAT:?Dump@CObject@@UBEXAAVCDumpContext@@@Z
CONST	ENDS
;	COMDAT ??_7CIndiInfoData@@6B@
CONST	SEGMENT
??_7CIndiInfoData@@6B@ DD FLAT:??_R4CIndiInfoData@@6B@	; CIndiInfoData::`vftable'
	DD	FLAT:??_ECIndiInfoData@@UAEPAXI@Z
CONST	ENDS
;	COMDAT ??_R1A@?0A@EA@IUnknown@@8
rdata$r	SEGMENT
??_R1A@?0A@EA@IUnknown@@8 DD FLAT:??_R0?AUIUnknown@@@8	; IUnknown::`RTTI Base Class Descriptor at (0,-1,0,64)'
	DD	00H
	DD	00H
	DD	0ffffffffH
	DD	00H
	DD	040H
	DD	FLAT:??_R3IUnknown@@8
rdata$r	ENDS
;	COMDAT ??_R2IUnknown@@8
rdata$r	SEGMENT
??_R2IUnknown@@8 DD FLAT:??_R1A@?0A@EA@IUnknown@@8	; IUnknown::`RTTI Base Class Array'
rdata$r	ENDS
;	COMDAT ??_R3IUnknown@@8
rdata$r	SEGMENT
??_R3IUnknown@@8 DD 00H					; IUnknown::`RTTI Class Hierarchy Descriptor'
	DD	00H
	DD	01H
	DD	FLAT:??_R2IUnknown@@8
rdata$r	ENDS
;	COMDAT ??_R0?AUIUnknown@@@8
data$rs	SEGMENT
??_R0?AUIUnknown@@@8 DD FLAT:??_7type_info@@6B@		; IUnknown `RTTI Type Descriptor'
	DD	00H
	DB	'.?AUIUnknown@@', 00H
data$rs	ENDS
;	COMDAT ??_R1A@?0A@EA@CObject@@8
rdata$r	SEGMENT
??_R1A@?0A@EA@CObject@@8 DD FLAT:??_R0?AVCObject@@@8	; CObject::`RTTI Base Class Descriptor at (0,-1,0,64)'
	DD	00H
	DD	00H
	DD	0ffffffffH
	DD	00H
	DD	040H
	DD	FLAT:??_R3CObject@@8
rdata$r	ENDS
;	COMDAT ??_R2CObject@@8
rdata$r	SEGMENT
??_R2CObject@@8 DD FLAT:??_R1A@?0A@EA@CObject@@8	; CObject::`RTTI Base Class Array'
rdata$r	ENDS
;	COMDAT ??_R3CObject@@8
rdata$r	SEGMENT
??_R3CObject@@8 DD 00H					; CObject::`RTTI Class Hierarchy Descriptor'
	DD	00H
	DD	01H
	DD	FLAT:??_R2CObject@@8
rdata$r	ENDS
;	COMDAT ??_R0?AVCObject@@@8
data$rs	SEGMENT
??_R0?AVCObject@@@8 DD FLAT:??_7type_info@@6B@		; CObject `RTTI Type Descriptor'
	DD	00H
	DB	'.?AVCObject@@', 00H
data$rs	ENDS
;	COMDAT ??_C@_00CNPNBAHC@@
CONST	SEGMENT
??_C@_00CNPNBAHC@@ DB 00H				; `string'
CONST	ENDS
;	COMDAT xdata$x
xdata$x	SEGMENT
__unwindtable$??_GCIndicatorInfoUndoRedoManagerAddInImp@@UAEPAXI@Z DD 0ffffffffH
	DD	FLAT:___std_terminate
	DD	0ffffffffH
	DD	FLAT:___std_terminate
__ehfuncinfo$??_GCIndicatorInfoUndoRedoManagerAddInImp@@UAEPAXI@Z DD 019930522H
	DD	02H
	DD	FLAT:__unwindtable$??_GCIndicatorInfoUndoRedoManagerAddInImp@@UAEPAXI@Z
	DD	2 DUP(00H)
	DD	2 DUP(00H)
	DD	00H
	DD	05H
xdata$x	ENDS
;	COMDAT xdata$x
xdata$x	SEGMENT
__unwindtable$?IsExistenceIndicatorName@CIndicatorInfoUndoRedoManagerAddInImp@@QAE_NPAUIStringList000000@@PBD@Z DD 0ffffffffH
	DD	FLAT:__unwindfunclet$?IsExistenceIndicatorName@CIndicatorInfoUndoRedoManagerAddInImp@@QAE_NPAUIStringList000000@@PBD@Z$0
	DD	0ffffffffH
	DD	00H
	DD	0ffffffffH
	DD	FLAT:___std_terminate
__ehfuncinfo$?IsExistenceIndicatorName@CIndicatorInfoUndoRedoManagerAddInImp@@QAE_NPAUIStringList000000@@PBD@Z DD 019930522H
	DD	03H
	DD	FLAT:__unwindtable$?IsExistenceIndicatorName@CIndicatorInfoUndoRedoManagerAddInImp@@QAE_NPAUIStringList000000@@PBD@Z
	DD	2 DUP(00H)
	DD	2 DUP(00H)
	DD	00H
	DD	01H
xdata$x	ENDS
;	COMDAT xdata$x
xdata$x	SEGMENT
__ehfuncinfo$?GetGraphNameList@CIndicatorInfoUndoRedoManagerAddInImp@@QAE_NPAUIStringList000000@@0@Z DD 019930522H
	DD	05H
	DD	FLAT:__unwindtable$?GetGraphNameList@CIndicatorInfoUndoRedoManagerAddInImp@@QAE_NPAUIStringList000000@@0@Z
	DD	2 DUP(00H)
	DD	2 DUP(00H)
	DD	00H
	DD	01H
__unwindtable$?GetGraphNameList@CIndicatorInfoUndoRedoManagerAddInImp@@QAE_NPAUIStringList000000@@0@Z DD 0ffffffffH
	DD	FLAT:__unwindfunclet$?GetGraphNameList@CIndicatorInfoUndoRedoManagerAddInImp@@QAE_NPAUIStringList000000@@0@Z$0
	DD	00H
	DD	FLAT:__unwindfunclet$?GetGraphNameList@CIndicatorInfoUndoRedoManagerAddInImp@@QAE_NPAUIStringList000000@@0@Z$1
	DD	00H
	DD	FLAT:___std_terminate
	DD	00H
	DD	FLAT:___std_terminate
	DD	0ffffffffH
	DD	FLAT:___std_terminate
xdata$x	ENDS
;	COMDAT xdata$x
xdata$x	SEGMENT
__ehfuncinfo$?BackUpIndicatorInfo@CIndicatorInfoUndoRedoManagerAddInImp@@QAEPAVCIndicatorInfoBackUp@@PAUIStringList000000@@H@Z DD 019930522H
	DD	08H
	DD	FLAT:__unwindtable$?BackUpIndicatorInfo@CIndicatorInfoUndoRedoManagerAddInImp@@QAEPAVCIndicatorInfoBackUp@@PAUIStringList000000@@H@Z
	DD	2 DUP(00H)
	DD	2 DUP(00H)
	DD	00H
	DD	01H
__unwindtable$?BackUpIndicatorInfo@CIndicatorInfoUndoRedoManagerAddInImp@@QAEPAVCIndicatorInfoBackUp@@PAUIStringList000000@@H@Z DD 0ffffffffH
	DD	FLAT:__unwindfunclet$?BackUpIndicatorInfo@CIndicatorInfoUndoRedoManagerAddInImp@@QAEPAVCIndicatorInfoBackUp@@PAUIStringList000000@@H@Z$1
	DD	0ffffffffH
	DD	FLAT:___std_terminate
	DD	00H
	DD	FLAT:__unwindfunclet$?BackUpIndicatorInfo@CIndicatorInfoUndoRedoManagerAddInImp@@QAEPAVCIndicatorInfoBackUp@@PAUIStringList000000@@H@Z$3
	DD	02H
	DD	FLAT:__unwindfunclet$?BackUpIndicatorInfo@CIndicatorInfoUndoRedoManagerAddInImp@@QAEPAVCIndicatorInfoBackUp@@PAUIStringList000000@@H@Z$4
	DD	00H
	DD	FLAT:___std_terminate
	DD	02H
	DD	FLAT:__unwindfunclet$?BackUpIndicatorInfo@CIndicatorInfoUndoRedoManagerAddInImp@@QAEPAVCIndicatorInfoBackUp@@PAUIStringList000000@@H@Z$9
	DD	00H
	DD	FLAT:___std_terminate
	DD	0ffffffffH
	DD	FLAT:___std_terminate
xdata$x	ENDS
;	COMDAT xdata$x
xdata$x	SEGMENT
__unwindtable$??_G?$CList@PAVCIndicatorInfoBackUp@@PAV1@@@UAEPAXI@Z DD 0ffffffffH
	DD	FLAT:___std_terminate
__ehfuncinfo$??_G?$CList@PAVCIndicatorInfoBackUp@@PAV1@@@UAEPAXI@Z DD 019930522H
	DD	01H
	DD	FLAT:__unwindtable$??_G?$CList@PAVCIndicatorInfoBackUp@@PAV1@@@UAEPAXI@Z
	DD	2 DUP(00H)
	DD	2 DUP(00H)
	DD	00H
	DD	05H
xdata$x	ENDS
;	COMDAT xdata$x
xdata$x	SEGMENT
__ehfuncinfo$??1?$CList@PAVCIndicatorInfoBackUp@@PAV1@@@UAE@XZ DD 019930522H
	DD	00H
	DD	00H
	DD	2 DUP(00H)
	DD	2 DUP(00H)
	DD	00H
	DD	05H
xdata$x	ENDS
;	COMDAT xdata$x
xdata$x	SEGMENT
__unwindtable$??1CIndicatorInfoUndoRedoManagerAddInImp@@UAE@XZ DD 0ffffffffH
	DD	FLAT:___std_terminate
	DD	0ffffffffH
	DD	FLAT:___std_terminate
__ehfuncinfo$??1CIndicatorInfoUndoRedoManagerAddInImp@@UAE@XZ DD 019930522H
	DD	02H
	DD	FLAT:__unwindtable$??1CIndicatorInfoUndoRedoManagerAddInImp@@UAE@XZ
	DD	2 DUP(00H)
	DD	2 DUP(00H)
	DD	00H
	DD	05H
xdata$x	ENDS
;	COMDAT xdata$x
xdata$x	SEGMENT
__ehfuncinfo$?AddTail@CIndicatorInfoBackUp@@QAE_NPAUIGraphInfo000000@@_N@Z DD 019930522H
	DD	05H
	DD	FLAT:__unwindtable$?AddTail@CIndicatorInfoBackUp@@QAE_NPAUIGraphInfo000000@@_N@Z
	DD	2 DUP(00H)
	DD	2 DUP(00H)
	DD	00H
	DD	01H
__unwindtable$?AddTail@CIndicatorInfoBackUp@@QAE_NPAUIGraphInfo000000@@_N@Z DD 0ffffffffH
	DD	FLAT:__unwindfunclet$?AddTail@CIndicatorInfoBackUp@@QAE_NPAUIGraphInfo000000@@_N@Z$0
	DD	00H
	DD	FLAT:__unwindfunclet$?AddTail@CIndicatorInfoBackUp@@QAE_NPAUIGraphInfo000000@@_N@Z$1
	DD	0ffffffffH
	DD	FLAT:___std_terminate
	DD	00H
	DD	FLAT:__unwindfunclet$?AddTail@CIndicatorInfoBackUp@@QAE_NPAUIGraphInfo000000@@_N@Z$3
	DD	0ffffffffH
	DD	FLAT:___std_terminate
xdata$x	ENDS
;	COMDAT xdata$x
xdata$x	SEGMENT
__unwindtable$?IsIndicatorInfo@CIndicatorInfoBackUp@@QAE_NPAUIGraphInfo000000@@@Z DD 0ffffffffH
	DD	FLAT:__unwindfunclet$?IsIndicatorInfo@CIndicatorInfoBackUp@@QAE_NPAUIGraphInfo000000@@@Z$0
	DD	00H
	DD	FLAT:__unwindfunclet$?IsIndicatorInfo@CIndicatorInfoBackUp@@QAE_NPAUIGraphInfo000000@@@Z$1
	DD	0ffffffffH
	DD	FLAT:___std_terminate
	DD	0ffffffffH
	DD	FLAT:___std_terminate
__ehfuncinfo$?IsIndicatorInfo@CIndicatorInfoBackUp@@QAE_NPAUIGraphInfo000000@@@Z DD 019930522H
	DD	04H
	DD	FLAT:__unwindtable$?IsIndicatorInfo@CIndicatorInfoBackUp@@QAE_NPAUIGraphInfo000000@@@Z
	DD	2 DUP(00H)
	DD	2 DUP(00H)
	DD	00H
	DD	01H
xdata$x	ENDS
;	COMDAT xdata$x
xdata$x	SEGMENT
__unwindtable$?ChangeAllIndicatorList@CIndicatorInfoBackUp@@QAE_NPAUIGraphInfoManager000000@@@Z DD 0ffffffffH
	DD	FLAT:__unwindfunclet$?ChangeAllIndicatorList@CIndicatorInfoBackUp@@QAE_NPAUIGraphInfoManager000000@@@Z$0
	DD	0ffffffffH
	DD	FLAT:___std_terminate
	DD	0ffffffffH
	DD	FLAT:___std_terminate
__ehfuncinfo$?ChangeAllIndicatorList@CIndicatorInfoBackUp@@QAE_NPAUIGraphInfoManager000000@@@Z DD 019930522H
	DD	03H
	DD	FLAT:__unwindtable$?ChangeAllIndicatorList@CIndicatorInfoBackUp@@QAE_NPAUIGraphInfoManager000000@@@Z
	DD	2 DUP(00H)
	DD	2 DUP(00H)
	DD	00H
	DD	01H
xdata$x	ENDS
;	COMDAT xdata$x
xdata$x	SEGMENT
__unwindtable$??_G?$CList@PAVCIndiInfoData@@PAV1@@@UAEPAXI@Z DD 0ffffffffH
	DD	FLAT:___std_terminate
__ehfuncinfo$??_G?$CList@PAVCIndiInfoData@@PAV1@@@UAEPAXI@Z DD 019930522H
	DD	01H
	DD	FLAT:__unwindtable$??_G?$CList@PAVCIndiInfoData@@PAV1@@@UAEPAXI@Z
	DD	2 DUP(00H)
	DD	2 DUP(00H)
	DD	00H
	DD	05H
xdata$x	ENDS
;	COMDAT xdata$x
xdata$x	SEGMENT
__ehfuncinfo$??1?$CList@PAVCIndiInfoData@@PAV1@@@UAE@XZ DD 019930522H
	DD	00H
	DD	00H
	DD	2 DUP(00H)
	DD	2 DUP(00H)
	DD	00H
	DD	05H
xdata$x	ENDS
;	COMDAT xdata$x
xdata$x	SEGMENT
__unwindtable$?IsIndiInfoData@CIndiInfoDataList@@QBE_NPBD@Z DD 0ffffffffH
	DD	FLAT:__unwindfunclet$?IsIndiInfoData@CIndiInfoDataList@@QBE_NPBD@Z$0
__ehfuncinfo$?IsIndiInfoData@CIndiInfoDataList@@QBE_NPBD@Z DD 019930522H
	DD	01H
	DD	FLAT:__unwindtable$?IsIndiInfoData@CIndiInfoDataList@@QBE_NPBD@Z
	DD	2 DUP(00H)
	DD	2 DUP(00H)
	DD	00H
	DD	01H
xdata$x	ENDS
;	COMDAT xdata$x
xdata$x	SEGMENT
__unwindtable$?GetIndiInfoData@CIndiInfoDataList@@QAEPAVCIndiInfoData@@ABV?$CStringT@DV?$StrTraitMFC_DLL@DV?$ChTraitsCRT@D@ATL@@@@@ATL@@@Z DD 0ffffffffH
	DD	FLAT:__unwindfunclet$?GetIndiInfoData@CIndiInfoDataList@@QAEPAVCIndiInfoData@@ABV?$CStringT@DV?$StrTraitMFC_DLL@DV?$ChTraitsCRT@D@ATL@@@@@ATL@@@Z$0
__ehfuncinfo$?GetIndiInfoData@CIndiInfoDataList@@QAEPAVCIndiInfoData@@ABV?$CStringT@DV?$StrTraitMFC_DLL@DV?$ChTraitsCRT@D@ATL@@@@@ATL@@@Z DD 019930522H
	DD	01H
	DD	FLAT:__unwindtable$?GetIndiInfoData@CIndiInfoDataList@@QAEPAVCIndiInfoData@@ABV?$CStringT@DV?$StrTraitMFC_DLL@DV?$ChTraitsCRT@D@ATL@@@@@ATL@@@Z
	DD	2 DUP(00H)
	DD	2 DUP(00H)
	DD	00H
	DD	01H
xdata$x	ENDS
;	COMDAT xdata$x
xdata$x	SEGMENT
__unwindtable$?ChangeAllIndicatorList@CIndiInfoDataList@@QAE_NPAUIGraphInfoManager000000@@@Z DD 0ffffffffH
	DD	FLAT:__unwindfunclet$?ChangeAllIndicatorList@CIndiInfoDataList@@QAE_NPAUIGraphInfoManager000000@@@Z$0
	DD	0ffffffffH
	DD	FLAT:___std_terminate
	DD	0ffffffffH
	DD	FLAT:___std_terminate
__ehfuncinfo$?ChangeAllIndicatorList@CIndiInfoDataList@@QAE_NPAUIGraphInfoManager000000@@@Z DD 019930522H
	DD	03H
	DD	FLAT:__unwindtable$?ChangeAllIndicatorList@CIndiInfoDataList@@QAE_NPAUIGraphInfoManager000000@@@Z
	DD	2 DUP(00H)
	DD	2 DUP(00H)
	DD	00H
	DD	01H
xdata$x	ENDS
;	COMDAT xdata$x
xdata$x	SEGMENT
__unwindtable$?AddTail@CIndiInfoDataList@@QAE_NPAUIGraphInfo000000@@_N@Z DD 0ffffffffH
	DD	FLAT:__unwindfunclet$?AddTail@CIndiInfoDataList@@QAE_NPAUIGraphInfo000000@@_N@Z$0
	DD	00H
	DD	FLAT:__unwindfunclet$?AddTail@CIndiInfoDataList@@QAE_NPAUIGraphInfo000000@@_N@Z$1
	DD	00H
	DD	FLAT:__unwindfunclet$?AddTail@CIndiInfoDataList@@QAE_NPAUIGraphInfo000000@@_N@Z$2
	DD	0ffffffffH
	DD	FLAT:___std_terminate
__ehfuncinfo$?AddTail@CIndiInfoDataList@@QAE_NPAUIGraphInfo000000@@_N@Z DD 019930522H
	DD	04H
	DD	FLAT:__unwindtable$?AddTail@CIndiInfoDataList@@QAE_NPAUIGraphInfo000000@@_N@Z
	DD	2 DUP(00H)
	DD	2 DUP(00H)
	DD	00H
	DD	01H
xdata$x	ENDS
;	COMDAT xdata$x
xdata$x	SEGMENT
__unwindtable$??1CIndiInfoDataList@@UAE@XZ DD 0ffffffffH
	DD	FLAT:___std_terminate
__ehfuncinfo$??1CIndiInfoDataList@@UAE@XZ DD 019930522H
	DD	01H
	DD	FLAT:__unwindtable$??1CIndiInfoDataList@@UAE@XZ
	DD	2 DUP(00H)
	DD	2 DUP(00H)
	DD	00H
	DD	05H
xdata$x	ENDS
;	COMDAT xdata$x
xdata$x	SEGMENT
__unwindtable$??_GCIndiInfoData@@UAEPAXI@Z DD 0ffffffffH
	DD	FLAT:___std_terminate
__ehfuncinfo$??_GCIndiInfoData@@UAEPAXI@Z DD 019930522H
	DD	01H
	DD	FLAT:__unwindtable$??_GCIndiInfoData@@UAEPAXI@Z
	DD	2 DUP(00H)
	DD	2 DUP(00H)
	DD	00H
	DD	05H
xdata$x	ENDS
;	COMDAT xdata$x
xdata$x	SEGMENT
__unwindtable$?GetIndicatorName@CIndiInfoData@@QBE?AV?$CStringT@DV?$StrTraitMFC_DLL@DV?$ChTraitsCRT@D@ATL@@@@@ATL@@XZ DD 0ffffffffH
	DD	FLAT:__unwindfunclet$?GetIndicatorName@CIndiInfoData@@QBE?AV?$CStringT@DV?$StrTraitMFC_DLL@DV?$ChTraitsCRT@D@ATL@@@@@ATL@@XZ$1
	DD	0ffffffffH
	DD	FLAT:___std_terminate
__ehfuncinfo$?GetIndicatorName@CIndiInfoData@@QBE?AV?$CStringT@DV?$StrTraitMFC_DLL@DV?$ChTraitsCRT@D@ATL@@@@@ATL@@XZ DD 019930522H
	DD	02H
	DD	FLAT:__unwindtable$?GetIndicatorName@CIndiInfoData@@QBE?AV?$CStringT@DV?$StrTraitMFC_DLL@DV?$ChTraitsCRT@D@ATL@@@@@ATL@@XZ
	DD	2 DUP(00H)
	DD	2 DUP(00H)
	DD	00H
	DD	01H
xdata$x	ENDS
;	COMDAT xdata$x
xdata$x	SEGMENT
__unwindtable$?Make@CIndiInfoData@@SAPAV1@PAUIGraphInfo000000@@_N@Z DD 0ffffffffH
	DD	FLAT:__unwindfunclet$?Make@CIndiInfoData@@SAPAV1@PAUIGraphInfo000000@@_N@Z$0
__ehfuncinfo$?Make@CIndiInfoData@@SAPAV1@PAUIGraphInfo000000@@_N@Z DD 019930522H
	DD	01H
	DD	FLAT:__unwindtable$?Make@CIndiInfoData@@SAPAV1@PAUIGraphInfo000000@@_N@Z
	DD	2 DUP(00H)
	DD	2 DUP(00H)
	DD	00H
	DD	01H
xdata$x	ENDS
;	COMDAT xdata$x
xdata$x	SEGMENT
__ehfuncinfo$??1CIndiInfoData@@UAE@XZ DD 019930522H
	DD	00H
	DD	00H
	DD	2 DUP(00H)
	DD	2 DUP(00H)
	DD	00H
	DD	05H
xdata$x	ENDS
;	COMDAT xdata$x
xdata$x	SEGMENT
__ehfuncinfo$??1ILPCSTR000000@@QAE@XZ DD 019930522H
	DD	00H
	DD	00H
	DD	2 DUP(00H)
	DD	2 DUP(00H)
	DD	00H
	DD	05H
xdata$x	ENDS
; Function compile flags: /Odsp
;	COMDAT ??_ECIndicatorInfoUndoRedoManagerAddInImp@@W7AEPAXI@Z
_TEXT	SEGMENT
??_ECIndicatorInfoUndoRedoManagerAddInImp@@W7AEPAXI@Z PROC ; [thunk]:CIndicatorInfoUndoRedoManagerAddInImp::`vector deleting destructor', COMDAT
  00000	83 e9 08	 sub	 ecx, 8
  00003	e9 00 00 00 00	 jmp	 ??_ECIndicatorInfoUndoRedoManagerAddInImp@@UAEPAXI@Z
??_ECIndicatorInfoUndoRedoManagerAddInImp@@W7AEPAXI@Z ENDP ; [thunk]:CIndicatorInfoUndoRedoManagerAddInImp::`vector deleting destructor'
_TEXT	ENDS
; Function compile flags: /Odsp
;	COMDAT ?Release@CChartAddInBase000000@@O7AGKXZ
_TEXT	SEGMENT
?Release@CChartAddInBase000000@@O7AGKXZ PROC		; [thunk]:CChartAddInBase000000::Release`adjustor{8}', COMDAT
  00000	83 6c 24 04 08	 sub	 DWORD PTR [esp+4], 8
  00005	e9 00 00 00 00	 jmp	 ?Release@CChartAddInBase000000@@MAGKXZ ; CChartAddInBase000000::Release
?Release@CChartAddInBase000000@@O7AGKXZ ENDP		; [thunk]:CChartAddInBase000000::Release`adjustor{8}'
_TEXT	ENDS
; Function compile flags: /Odsp
;	COMDAT ?AddRef@CChartAddInBase000000@@O7AGKXZ
_TEXT	SEGMENT
?AddRef@CChartAddInBase000000@@O7AGKXZ PROC		; [thunk]:CChartAddInBase000000::AddRef`adjustor{8}', COMDAT
  00000	83 6c 24 04 08	 sub	 DWORD PTR [esp+4], 8
  00005	e9 00 00 00 00	 jmp	 ?AddRef@CChartAddInBase000000@@MAGKXZ ; CChartAddInBase000000::AddRef
?AddRef@CChartAddInBase000000@@O7AGKXZ ENDP		; [thunk]:CChartAddInBase000000::AddRef`adjustor{8}'
_TEXT	ENDS
; Function compile flags: /Odsp
;	COMDAT ?QueryInterface@CChartAddInBase000000@@O7AGJABU_GUID@@PAPAX@Z
_TEXT	SEGMENT
?QueryInterface@CChartAddInBase000000@@O7AGJABU_GUID@@PAPAX@Z PROC ; [thunk]:CChartAddInBase000000::QueryInterface`adjustor{8}', COMDAT
  00000	83 6c 24 04 08	 sub	 DWORD PTR [esp+4], 8
  00005	e9 00 00 00 00	 jmp	 ?QueryInterface@CChartAddInBase000000@@MAGJABU_GUID@@PAPAX@Z ; CChartAddInBase000000::QueryInterface
?QueryInterface@CChartAddInBase000000@@O7AGJABU_GUID@@PAPAX@Z ENDP ; [thunk]:CChartAddInBase000000::QueryInterface`adjustor{8}'
_TEXT	ENDS
; Function compile flags: /Ogtp
; File C:\Program Files (x86)\Microsoft Visual Studio\2019\Community\VC\Tools\MSVC\14.29.30133\atlmfc\include\afxtempl.h
; File C:\Program Files (x86)\Microsoft Visual Studio\2019\Community\VC\Tools\MSVC\14.29.30133\atlmfc\include\afx.inl
; File C:\Program Files (x86)\Microsoft Visual Studio\2019\Community\VC\Tools\MSVC\14.29.30133\atlmfc\include\afxtempl.h
; File C:\Program Files (x86)\Microsoft Visual Studio\2019\Community\VC\Tools\MSVC\14.29.30133\atlmfc\include\afx.inl
; File C:\Program Files (x86)\Microsoft Visual Studio\2019\Community\VC\Tools\MSVC\14.29.30133\atlmfc\include\afxtempl.h
; File C:\Program Files (x86)\Microsoft Visual Studio\2019\Community\VC\Tools\MSVC\14.29.30133\atlmfc\include\afx.inl
; File C:\Program Files (x86)\Microsoft Visual Studio\2019\Community\VC\Tools\MSVC\14.29.30133\atlmfc\include\afxtempl.h
;	COMDAT ??$SerializeElements@PAVCIndicatorInfoBackUp@@@@YGXAAVCArchive@@PAPAVCIndicatorInfoBackUp@@H@Z
_TEXT	SEGMENT
_ar$ = 8						; size = 4
_pElements$ = 12					; size = 4
_nCount$ = 16						; size = 4
??$SerializeElements@PAVCIndicatorInfoBackUp@@@@YGXAAVCArchive@@PAPAVCIndicatorInfoBackUp@@H@Z PROC ; SerializeElements<CIndicatorInfoBackUp *>, COMDAT

; 67   : {

  00000	55		 push	 ebp
  00001	8b ec		 mov	 ebp, esp

; 68   : 	ENSURE(nCount == 0 || pElements != NULL);

  00003	8b 4d 0c	 mov	 ecx, DWORD PTR _pElements$[ebp]
  00006	53		 push	 ebx
  00007	56		 push	 esi
  00008	8b 75 10	 mov	 esi, DWORD PTR _nCount$[ebp]
  0000b	57		 push	 edi
  0000c	85 f6		 test	 esi, esi
  0000e	74 08		 je	 SHORT $LN2@SerializeE
  00010	85 c9		 test	 ecx, ecx
  00012	0f 84 89 00 00
	00		 je	 $LN34@SerializeE
$LN2@SerializeE:
; File C:\Program Files (x86)\Microsoft Visual Studio\2019\Community\VC\Tools\MSVC\14.29.30133\atlmfc\include\afx.inl

; 212  : 	{ return (m_nMode & CArchive::load) == 0; }

  00018	8b 55 08	 mov	 edx, DWORD PTR _ar$[ebp]
  0001b	8b 42 18	 mov	 eax, DWORD PTR [edx+24]
  0001e	f7 d0		 not	 eax
  00020	a8 01		 test	 al, 1
; File C:\Program Files (x86)\Microsoft Visual Studio\2019\Community\VC\Tools\MSVC\14.29.30133\atlmfc\include\afxtempl.h

; 73   : 	if (ar.IsStoring())

  00022	74 3c		 je	 SHORT $LN10@SerializeE

; 74   : 	{
; 75   : 		TYPE* pData;
; 76   : 		UINT_PTR nElementsLeft;
; 77   : 
; 78   : 		nElementsLeft = nCount;
; 79   : 		pData = pElements;
; 80   : 		while( nElementsLeft > 0 )

  00024	85 f6		 test	 esi, esi
  00026	74 31		 je	 SHORT $LN8@SerializeE
  00028	0f 1f 84 00 00
	00 00 00	 npad	 8
$LL5@SerializeE:

; 81   : 		{
; 82   : 			UINT nElementsToWrite;
; 83   : 
; 84   : 			nElementsToWrite = UINT(__min(nElementsLeft, INT_MAX/sizeof(TYPE)));

  00030	bb ff ff ff 1f	 mov	 ebx, 536870911		; 1fffffffH
  00035	3b f3		 cmp	 esi, ebx
  00037	0f 42 de	 cmovb	 ebx, esi

; 85   : 			ar.Write(pData, nElementsToWrite*sizeof(TYPE));

  0003a	8d 3c 9d 00 00
	00 00		 lea	 edi, DWORD PTR [ebx*4]
  00041	57		 push	 edi
  00042	51		 push	 ecx
  00043	8b ca		 mov	 ecx, edx
  00045	e8 00 00 00 00	 call	 ?Write@CArchive@@QAEXPBXI@Z ; CArchive::Write

; 86   : 			nElementsLeft -= nElementsToWrite;
; 87   : 			pData += nElementsToWrite;

  0004a	8b 4d 0c	 mov	 ecx, DWORD PTR _pElements$[ebp]
  0004d	8b 55 08	 mov	 edx, DWORD PTR _ar$[ebp]
  00050	03 cf		 add	 ecx, edi
  00052	89 4d 0c	 mov	 DWORD PTR _pElements$[ebp], ecx
  00055	2b f3		 sub	 esi, ebx
  00057	75 d7		 jne	 SHORT $LL5@SerializeE
$LN8@SerializeE:
  00059	5f		 pop	 edi

; 105  : 		}
; 106  : 	}
; 107  : }

  0005a	5e		 pop	 esi
  0005b	5b		 pop	 ebx
  0005c	5d		 pop	 ebp
  0005d	c2 0c 00	 ret	 12			; 0000000cH
$LN10@SerializeE:

; 97   : 		while( nElementsLeft > 0 )

  00060	85 f6		 test	 esi, esi
  00062	74 f5		 je	 SHORT $LN8@SerializeE
$LL7@SerializeE:

; 98   : 		{
; 99   : 			UINT nElementsToRead;
; 100  : 
; 101  : 			nElementsToRead = UINT(__min(nElementsLeft, INT_MAX/sizeof(TYPE)));

  00064	bf ff ff ff 1f	 mov	 edi, 536870911		; 1fffffffH
  00069	3b f7		 cmp	 esi, edi
  0006b	0f 42 fe	 cmovb	 edi, esi

; 102  : 			ar.EnsureRead(pData, nElementsToRead*sizeof(TYPE));

  0006e	8d 1c bd 00 00
	00 00		 lea	 ebx, DWORD PTR [edi*4]
; File C:\Program Files (x86)\Microsoft Visual Studio\2019\Community\VC\Tools\MSVC\14.29.30133\atlmfc\include\afx.inl

; 399  : 	UINT nRead=Read(lpBuf, nCount);

  00075	53		 push	 ebx
  00076	51		 push	 ecx
  00077	8b ca		 mov	 ecx, edx
  00079	e8 00 00 00 00	 call	 ?Read@CArchive@@QAEIPAXI@Z ; CArchive::Read

; 400  : 	if(nRead!=nCount)

  0007e	3b c3		 cmp	 eax, ebx
  00080	75 16		 jne	 SHORT $LN23@SerializeE
; File C:\Program Files (x86)\Microsoft Visual Studio\2019\Community\VC\Tools\MSVC\14.29.30133\atlmfc\include\afxtempl.h

; 97   : 		while( nElementsLeft > 0 )

  00082	8b 4d 0c	 mov	 ecx, DWORD PTR _pElements$[ebp]
  00085	8b 55 08	 mov	 edx, DWORD PTR _ar$[ebp]

; 103  : 			nElementsLeft -= nElementsToRead;
; 104  : 			pData += nElementsToRead;

  00088	03 cb		 add	 ecx, ebx
  0008a	89 4d 0c	 mov	 DWORD PTR _pElements$[ebp], ecx
  0008d	2b f7		 sub	 esi, edi
  0008f	75 d3		 jne	 SHORT $LL7@SerializeE

; 105  : 		}
; 106  : 	}
; 107  : }

  00091	5f		 pop	 edi
  00092	5e		 pop	 esi
  00093	5b		 pop	 ebx
  00094	5d		 pop	 ebp
  00095	c2 0c 00	 ret	 12			; 0000000cH
$LN23@SerializeE:
; File C:\Program Files (x86)\Microsoft Visual Studio\2019\Community\VC\Tools\MSVC\14.29.30133\atlmfc\include\afx.inl

; 402  : 		AfxThrowArchiveException(CArchiveException::endOfFile);

  00098	6a 00		 push	 0
  0009a	6a 03		 push	 3
  0009c	e8 00 00 00 00	 call	 ?AfxThrowArchiveException@@YGXHPBD@Z ; AfxThrowArchiveException
$LN34@SerializeE:
; File C:\Program Files (x86)\Microsoft Visual Studio\2019\Community\VC\Tools\MSVC\14.29.30133\atlmfc\include\afxtempl.h

; 68   : 	ENSURE(nCount == 0 || pElements != NULL);

  000a1	e8 00 00 00 00	 call	 ?AfxThrowInvalidArgException@@YGXXZ ; AfxThrowInvalidArgException
$LN32@SerializeE:
  000a6	cc		 int	 3
??$SerializeElements@PAVCIndicatorInfoBackUp@@@@YGXAAVCArchive@@PAPAVCIndicatorInfoBackUp@@H@Z ENDP ; SerializeElements<CIndicatorInfoBackUp *>
_TEXT	ENDS
; Function compile flags: /Ogtp
; File C:\Program Files (x86)\Microsoft Visual Studio\2019\Community\VC\Tools\MSVC\14.29.30133\atlmfc\include\afxtempl.h
; File C:\Program Files (x86)\Microsoft Visual Studio\2019\Community\VC\Tools\MSVC\14.29.30133\atlmfc\include\afx.inl
; File C:\Program Files (x86)\Microsoft Visual Studio\2019\Community\VC\Tools\MSVC\14.29.30133\atlmfc\include\afxtempl.h
; File C:\Program Files (x86)\Microsoft Visual Studio\2019\Community\VC\Tools\MSVC\14.29.30133\atlmfc\include\afx.inl
; File C:\Program Files (x86)\Microsoft Visual Studio\2019\Community\VC\Tools\MSVC\14.29.30133\atlmfc\include\afxtempl.h
; File C:\Program Files (x86)\Microsoft Visual Studio\2019\Community\VC\Tools\MSVC\14.29.30133\atlmfc\include\afx.inl
; File C:\Program Files (x86)\Microsoft Visual Studio\2019\Community\VC\Tools\MSVC\14.29.30133\atlmfc\include\afxtempl.h
;	COMDAT ??$SerializeElements@PAVCIndiInfoData@@@@YGXAAVCArchive@@PAPAVCIndiInfoData@@H@Z
_TEXT	SEGMENT
_ar$ = 8						; size = 4
_pElements$ = 12					; size = 4
_nCount$ = 16						; size = 4
??$SerializeElements@PAVCIndiInfoData@@@@YGXAAVCArchive@@PAPAVCIndiInfoData@@H@Z PROC ; SerializeElements<CIndiInfoData *>, COMDAT

; 67   : {

  00000	55		 push	 ebp
  00001	8b ec		 mov	 ebp, esp

; 68   : 	ENSURE(nCount == 0 || pElements != NULL);

  00003	8b 4d 0c	 mov	 ecx, DWORD PTR _pElements$[ebp]
  00006	53		 push	 ebx
  00007	56		 push	 esi
  00008	8b 75 10	 mov	 esi, DWORD PTR _nCount$[ebp]
  0000b	57		 push	 edi
  0000c	85 f6		 test	 esi, esi
  0000e	74 08		 je	 SHORT $LN2@SerializeE
  00010	85 c9		 test	 ecx, ecx
  00012	0f 84 89 00 00
	00		 je	 $LN34@SerializeE
$LN2@SerializeE:
; File C:\Program Files (x86)\Microsoft Visual Studio\2019\Community\VC\Tools\MSVC\14.29.30133\atlmfc\include\afx.inl

; 212  : 	{ return (m_nMode & CArchive::load) == 0; }

  00018	8b 55 08	 mov	 edx, DWORD PTR _ar$[ebp]
  0001b	8b 42 18	 mov	 eax, DWORD PTR [edx+24]
  0001e	f7 d0		 not	 eax
  00020	a8 01		 test	 al, 1
; File C:\Program Files (x86)\Microsoft Visual Studio\2019\Community\VC\Tools\MSVC\14.29.30133\atlmfc\include\afxtempl.h

; 73   : 	if (ar.IsStoring())

  00022	74 3c		 je	 SHORT $LN10@SerializeE

; 74   : 	{
; 75   : 		TYPE* pData;
; 76   : 		UINT_PTR nElementsLeft;
; 77   : 
; 78   : 		nElementsLeft = nCount;
; 79   : 		pData = pElements;
; 80   : 		while( nElementsLeft > 0 )

  00024	85 f6		 test	 esi, esi
  00026	74 31		 je	 SHORT $LN8@SerializeE
  00028	0f 1f 84 00 00
	00 00 00	 npad	 8
$LL5@SerializeE:

; 81   : 		{
; 82   : 			UINT nElementsToWrite;
; 83   : 
; 84   : 			nElementsToWrite = UINT(__min(nElementsLeft, INT_MAX/sizeof(TYPE)));

  00030	bb ff ff ff 1f	 mov	 ebx, 536870911		; 1fffffffH
  00035	3b f3		 cmp	 esi, ebx
  00037	0f 42 de	 cmovb	 ebx, esi

; 85   : 			ar.Write(pData, nElementsToWrite*sizeof(TYPE));

  0003a	8d 3c 9d 00 00
	00 00		 lea	 edi, DWORD PTR [ebx*4]
  00041	57		 push	 edi
  00042	51		 push	 ecx
  00043	8b ca		 mov	 ecx, edx
  00045	e8 00 00 00 00	 call	 ?Write@CArchive@@QAEXPBXI@Z ; CArchive::Write

; 86   : 			nElementsLeft -= nElementsToWrite;
; 87   : 			pData += nElementsToWrite;

  0004a	8b 4d 0c	 mov	 ecx, DWORD PTR _pElements$[ebp]
  0004d	8b 55 08	 mov	 edx, DWORD PTR _ar$[ebp]
  00050	03 cf		 add	 ecx, edi
  00052	89 4d 0c	 mov	 DWORD PTR _pElements$[ebp], ecx
  00055	2b f3		 sub	 esi, ebx
  00057	75 d7		 jne	 SHORT $LL5@SerializeE
$LN8@SerializeE:
  00059	5f		 pop	 edi

; 105  : 		}
; 106  : 	}
; 107  : }

  0005a	5e		 pop	 esi
  0005b	5b		 pop	 ebx
  0005c	5d		 pop	 ebp
  0005d	c2 0c 00	 ret	 12			; 0000000cH
$LN10@SerializeE:

; 97   : 		while( nElementsLeft > 0 )

  00060	85 f6		 test	 esi, esi
  00062	74 f5		 je	 SHORT $LN8@SerializeE
$LL7@SerializeE:

; 98   : 		{
; 99   : 			UINT nElementsToRead;
; 100  : 
; 101  : 			nElementsToRead = UINT(__min(nElementsLeft, INT_MAX/sizeof(TYPE)));

  00064	bf ff ff ff 1f	 mov	 edi, 536870911		; 1fffffffH
  00069	3b f7		 cmp	 esi, edi
  0006b	0f 42 fe	 cmovb	 edi, esi

; 102  : 			ar.EnsureRead(pData, nElementsToRead*sizeof(TYPE));

  0006e	8d 1c bd 00 00
	00 00		 lea	 ebx, DWORD PTR [edi*4]
; File C:\Program Files (x86)\Microsoft Visual Studio\2019\Community\VC\Tools\MSVC\14.29.30133\atlmfc\include\afx.inl

; 399  : 	UINT nRead=Read(lpBuf, nCount);

  00075	53		 push	 ebx
  00076	51		 push	 ecx
  00077	8b ca		 mov	 ecx, edx
  00079	e8 00 00 00 00	 call	 ?Read@CArchive@@QAEIPAXI@Z ; CArchive::Read

; 400  : 	if(nRead!=nCount)

  0007e	3b c3		 cmp	 eax, ebx
  00080	75 16		 jne	 SHORT $LN23@SerializeE
; File C:\Program Files (x86)\Microsoft Visual Studio\2019\Community\VC\Tools\MSVC\14.29.30133\atlmfc\include\afxtempl.h

; 97   : 		while( nElementsLeft > 0 )

  00082	8b 4d 0c	 mov	 ecx, DWORD PTR _pElements$[ebp]
  00085	8b 55 08	 mov	 edx, DWORD PTR _ar$[ebp]

; 103  : 			nElementsLeft -= nElementsToRead;
; 104  : 			pData += nElementsToRead;

  00088	03 cb		 add	 ecx, ebx
  0008a	89 4d 0c	 mov	 DWORD PTR _pElements$[ebp], ecx
  0008d	2b f7		 sub	 esi, edi
  0008f	75 d3		 jne	 SHORT $LL7@SerializeE

; 105  : 		}
; 106  : 	}
; 107  : }

  00091	5f		 pop	 edi
  00092	5e		 pop	 esi
  00093	5b		 pop	 ebx
  00094	5d		 pop	 ebp
  00095	c2 0c 00	 ret	 12			; 0000000cH
$LN23@SerializeE:
; File C:\Program Files (x86)\Microsoft Visual Studio\2019\Community\VC\Tools\MSVC\14.29.30133\atlmfc\include\afx.inl

; 402  : 		AfxThrowArchiveException(CArchiveException::endOfFile);

  00098	6a 00		 push	 0
  0009a	6a 03		 push	 3
  0009c	e8 00 00 00 00	 call	 ?AfxThrowArchiveException@@YGXHPBD@Z ; AfxThrowArchiveException
$LN34@SerializeE:
; File C:\Program Files (x86)\Microsoft Visual Studio\2019\Community\VC\Tools\MSVC\14.29.30133\atlmfc\include\afxtempl.h

; 68   : 	ENSURE(nCount == 0 || pElements != NULL);

  000a1	e8 00 00 00 00	 call	 ?AfxThrowInvalidArgException@@YGXXZ ; AfxThrowInvalidArgException
$LN32@SerializeE:
  000a6	cc		 int	 3
??$SerializeElements@PAVCIndiInfoData@@@@YGXAAVCArchive@@PAPAVCIndiInfoData@@H@Z ENDP ; SerializeElements<CIndiInfoData *>
_TEXT	ENDS
; Function compile flags: /Ogtp
;	COMDAT ??__F?m_strAddInItemName@CIndicatorInfoUndoRedoManagerAddInImp@@2V?$CStringT@DV?$StrTraitMFC_DLL@DV?$ChTraitsCRT@D@ATL@@@@@ATL@@A@@YAXXZ
text$yd	SEGMENT
??__F?m_strAddInItemName@CIndicatorInfoUndoRedoManagerAddInImp@@2V?$CStringT@DV?$StrTraitMFC_DLL@DV?$ChTraitsCRT@D@ATL@@@@@ATL@@A@@YAXXZ PROC ; `dynamic atexit destructor for 'CIndicatorInfoUndoRedoManagerAddInImp::m_strAddInItemName'', COMDAT
  00000	b9 00 00 00 00	 mov	 ecx, OFFSET ?m_strAddInItemName@CIndicatorInfoUndoRedoManagerAddInImp@@2V?$CStringT@DV?$StrTraitMFC_DLL@DV?$ChTraitsCRT@D@ATL@@@@@ATL@@A ; CIndicatorInfoUndoRedoManagerAddInImp::m_strAddInItemName
  00005	ff 25 00 00 00
	00		 jmp	 DWORD PTR __imp_??1?$CStringT@DV?$StrTraitMFC_DLL@DV?$ChTraitsCRT@D@ATL@@@@@ATL@@QAE@XZ
??__F?m_strAddInItemName@CIndicatorInfoUndoRedoManagerAddInImp@@2V?$CStringT@DV?$StrTraitMFC_DLL@DV?$ChTraitsCRT@D@ATL@@@@@ATL@@A@@YAXXZ ENDP ; `dynamic atexit destructor for 'CIndicatorInfoUndoRedoManagerAddInImp::m_strAddInItemName''
text$yd	ENDS
; Function compile flags: /Ogtp
; File D:\git\src\IBK\IBK_DRFN\ProjSrc\SrcChartEx\ChartOCX\AddInManager\ChartCommonAddIn\IndicatorInfoUndoRedoManagerAddInImp.cpp
;	COMDAT ??__E?m_strAddInItemName@CIndicatorInfoUndoRedoManagerAddInImp@@2V?$CStringT@DV?$StrTraitMFC_DLL@DV?$ChTraitsCRT@D@ATL@@@@@ATL@@A@@YAXXZ
text$di	SEGMENT
??__E?m_strAddInItemName@CIndicatorInfoUndoRedoManagerAddInImp@@2V?$CStringT@DV?$StrTraitMFC_DLL@DV?$ChTraitsCRT@D@ATL@@@@@ATL@@A@@YAXXZ PROC ; `dynamic initializer for 'CIndicatorInfoUndoRedoManagerAddInImp::m_strAddInItemName'', COMDAT

; 497  : CString CIndicatorInfoUndoRedoManagerAddInImp::m_strAddInItemName = "INDICATORINFO_UNDO_REDO_MANAGER";

  00000	68 00 00 00 00	 push	 OFFSET ??_C@_0CA@JOAJFBHJ@INDICATORINFO_UNDO_REDO_MANAGER@
  00005	b9 00 00 00 00	 mov	 ecx, OFFSET ?m_strAddInItemName@CIndicatorInfoUndoRedoManagerAddInImp@@2V?$CStringT@DV?$StrTraitMFC_DLL@DV?$ChTraitsCRT@D@ATL@@@@@ATL@@A ; CIndicatorInfoUndoRedoManagerAddInImp::m_strAddInItemName
  0000a	ff 15 00 00 00
	00		 call	 DWORD PTR __imp_??0?$CStringT@DV?$StrTraitMFC_DLL@DV?$ChTraitsCRT@D@ATL@@@@@ATL@@QAE@PBD@Z
  00010	68 00 00 00 00	 push	 OFFSET ??__F?m_strAddInItemName@CIndicatorInfoUndoRedoManagerAddInImp@@2V?$CStringT@DV?$StrTraitMFC_DLL@DV?$ChTraitsCRT@D@ATL@@@@@ATL@@A@@YAXXZ ; `dynamic atexit destructor for 'CIndicatorInfoUndoRedoManagerAddInImp::m_strAddInItemName''
  00015	e8 00 00 00 00	 call	 _atexit
  0001a	59		 pop	 ecx
  0001b	c3		 ret	 0
??__E?m_strAddInItemName@CIndicatorInfoUndoRedoManagerAddInImp@@2V?$CStringT@DV?$StrTraitMFC_DLL@DV?$ChTraitsCRT@D@ATL@@@@@ATL@@A@@YAXXZ ENDP ; `dynamic initializer for 'CIndicatorInfoUndoRedoManagerAddInImp::m_strAddInItemName''
text$di	ENDS
; Function compile flags: /Ogtp
; File C:\Program Files (x86)\Microsoft Visual Studio\2019\Community\VC\Tools\MSVC\14.29.30133\atlmfc\include\afxtempl.h
;	COMDAT ?NewNode@?$CList@PAUIGraphInfo000000@@PAU1@@@IAEPAUCNode@1@PAU21@0@Z
_TEXT	SEGMENT
_pPrev$ = 8						; size = 4
_pNext$ = 12						; size = 4
?NewNode@?$CList@PAUIGraphInfo000000@@PAU1@@@IAEPAUCNode@1@PAU21@0@Z PROC ; CList<IGraphInfo000000 *,IGraphInfo000000 *>::NewNode, COMDAT
; _this$ = ecx

; 901  : {

  00000	55		 push	 ebp
  00001	8b ec		 mov	 ebp, esp
  00003	56		 push	 esi
  00004	8b f1		 mov	 esi, ecx

; 902  : 	if (m_pNodeFree == NULL)

  00006	83 7e 10 00	 cmp	 DWORD PTR [esi+16], 0
  0000a	75 34		 jne	 SHORT $LN7@NewNode

; 903  : 	{
; 904  : 		// add another block
; 905  : 		CPlex* pNewBlock = CPlex::Create(m_pBlocks, m_nBlockSize,

  0000c	6a 0c		 push	 12			; 0000000cH
  0000e	ff 76 18	 push	 DWORD PTR [esi+24]
  00011	8d 46 14	 lea	 eax, DWORD PTR [esi+20]
  00014	50		 push	 eax
  00015	e8 00 00 00 00	 call	 ?Create@CPlex@@SGPAU1@AAPAU1@II@Z ; CPlex::Create

; 906  : 				 sizeof(CNode));
; 907  : 
; 908  : 		// chain them into free list
; 909  : 		CNode* pNode = (CNode*) pNewBlock->data();
; 910  : 		// free in reverse order to make it easier to debug
; 911  : 		pNode += m_nBlockSize - 1;

  0001a	8b 56 18	 mov	 edx, DWORD PTR [esi+24]
  0001d	83 c0 08	 add	 eax, 8
  00020	8d 0c 52	 lea	 ecx, DWORD PTR [edx+edx*2]
  00023	8d 04 88	 lea	 eax, DWORD PTR [eax+ecx*4]
  00026	83 c0 f4	 add	 eax, -12		; fffffff4H

; 912  : 		for (INT_PTR i = m_nBlockSize-1; i >= 0; i--, pNode--)

  00029	83 c2 ff	 add	 edx, -1
  0002c	78 12		 js	 SHORT $LN7@NewNode
  0002e	66 90		 npad	 2
$LL4@NewNode:

; 913  : 		{
; 914  : 			pNode->pNext = m_pNodeFree;

  00030	8b 4e 10	 mov	 ecx, DWORD PTR [esi+16]
  00033	89 08		 mov	 DWORD PTR [eax], ecx

; 915  : 			m_pNodeFree = pNode;

  00035	89 46 10	 mov	 DWORD PTR [esi+16], eax
  00038	83 e8 0c	 sub	 eax, 12			; 0000000cH
  0003b	83 ea 01	 sub	 edx, 1
  0003e	79 f0		 jns	 SHORT $LL4@NewNode
$LN7@NewNode:

; 916  : 		}
; 917  : 	}
; 918  : 	ENSURE(m_pNodeFree != NULL);  // we must have something

  00040	8b 46 10	 mov	 eax, DWORD PTR [esi+16]
  00043	85 c0		 test	 eax, eax
  00045	74 18		 je	 SHORT $LN17@NewNode

; 919  : 
; 920  : 	CList::CNode* pNode = m_pNodeFree;
; 921  : 	m_pNodeFree = m_pNodeFree->pNext;

  00047	8b 08		 mov	 ecx, DWORD PTR [eax]
  00049	89 4e 10	 mov	 DWORD PTR [esi+16], ecx

; 922  : 	pNode->pPrev = pPrev;

  0004c	8b 4d 08	 mov	 ecx, DWORD PTR _pPrev$[ebp]
  0004f	89 48 04	 mov	 DWORD PTR [eax+4], ecx

; 923  : 	pNode->pNext = pNext;

  00052	8b 4d 0c	 mov	 ecx, DWORD PTR _pNext$[ebp]
  00055	89 08		 mov	 DWORD PTR [eax], ecx

; 924  : 	m_nCount++;

  00057	ff 46 0c	 inc	 DWORD PTR [esi+12]

; 925  : 	ASSERT(m_nCount > 0);  // make sure we don't overflow
; 926  : 
; 927  : #pragma push_macro("new")
; 928  : #undef new
; 929  : 	::new( (void*)( &pNode->data ) ) TYPE;
; 930  : #pragma pop_macro("new")
; 931  : 	return pNode;

  0005a	5e		 pop	 esi

; 932  : }

  0005b	5d		 pop	 ebp
  0005c	c2 08 00	 ret	 8
$LN17@NewNode:

; 916  : 		}
; 917  : 	}
; 918  : 	ENSURE(m_pNodeFree != NULL);  // we must have something

  0005f	e8 00 00 00 00	 call	 ?AfxThrowInvalidArgException@@YGXXZ ; AfxThrowInvalidArgException
$LN15@NewNode:
  00064	cc		 int	 3
?NewNode@?$CList@PAUIGraphInfo000000@@PAU1@@@IAEPAUCNode@1@PAU21@0@Z ENDP ; CList<IGraphInfo000000 *,IGraphInfo000000 *>::NewNode
_TEXT	ENDS
; Function compile flags: /Ogtp
; File C:\Program Files (x86)\Microsoft Visual Studio\2019\Community\VC\Tools\MSVC\14.29.30133\atlmfc\include\afxtempl.h
;	COMDAT ?RemoveAll@?$CList@PAUIGraphInfo000000@@PAU1@@@QAEXXZ
_TEXT	SEGMENT
?RemoveAll@?$CList@PAUIGraphInfo000000@@PAU1@@@QAEXXZ PROC ; CList<IGraphInfo000000 *,IGraphInfo000000 *>::RemoveAll, COMDAT
; _this$ = ecx

; 862  : {

  00000	56		 push	 esi
  00001	8b f1		 mov	 esi, ecx

; 863  : 	ASSERT_VALID(this);
; 864  : 
; 865  : 	// destroy elements
; 866  : 	CNode* pNode;
; 867  : 	for (pNode = m_pNodeHead; pNode != NULL; pNode = pNode->pNext)
; 868  : 		pNode->data.~TYPE();
; 869  : 
; 870  : 	m_nCount = 0;
; 871  : 	m_pNodeHead = m_pNodeTail = m_pNodeFree = NULL;
; 872  : 	m_pBlocks->FreeDataChain();

  00003	8b 4e 14	 mov	 ecx, DWORD PTR [esi+20]
  00006	c7 46 0c 00 00
	00 00		 mov	 DWORD PTR [esi+12], 0
  0000d	c7 46 10 00 00
	00 00		 mov	 DWORD PTR [esi+16], 0
  00014	c7 46 08 00 00
	00 00		 mov	 DWORD PTR [esi+8], 0
  0001b	c7 46 04 00 00
	00 00		 mov	 DWORD PTR [esi+4], 0
  00022	e8 00 00 00 00	 call	 ?FreeDataChain@CPlex@@QAEXXZ ; CPlex::FreeDataChain

; 873  : 	m_pBlocks = NULL;

  00027	c7 46 14 00 00
	00 00		 mov	 DWORD PTR [esi+20], 0
  0002e	5e		 pop	 esi

; 874  : }

  0002f	c3		 ret	 0
?RemoveAll@?$CList@PAUIGraphInfo000000@@PAU1@@@QAEXXZ ENDP ; CList<IGraphInfo000000 *,IGraphInfo000000 *>::RemoveAll
_TEXT	ENDS
; Function compile flags: /Ogtp
; File C:\Program Files (x86)\Microsoft Visual Studio\2019\Community\VC\Tools\MSVC\14.29.30133\atlmfc\include\afxtempl.h
;	COMDAT ?AddTail@?$CList@PAUIGraphInfo000000@@PAU1@@@QAEPAU__POSITION@@PAUIGraphInfo000000@@@Z
_TEXT	SEGMENT
_newElement$ = 8					; size = 4
?AddTail@?$CList@PAUIGraphInfo000000@@PAU1@@@QAEPAU__POSITION@@PAUIGraphInfo000000@@@Z PROC ; CList<IGraphInfo000000 *,IGraphInfo000000 *>::AddTail, COMDAT
; _this$ = ecx

; 965  : {

  00000	55		 push	 ebp
  00001	8b ec		 mov	 ebp, esp
  00003	56		 push	 esi
  00004	8b f1		 mov	 esi, ecx
  00006	57		 push	 edi

; 902  : 	if (m_pNodeFree == NULL)

  00007	83 7e 10 00	 cmp	 DWORD PTR [esi+16], 0

; 966  : 	ASSERT_VALID(this);
; 967  : 
; 968  : 	CNode* pNewNode = NewNode(m_pNodeTail, NULL);

  0000b	8b 7e 08	 mov	 edi, DWORD PTR [esi+8]

; 902  : 	if (m_pNodeFree == NULL)

  0000e	75 32		 jne	 SHORT $LN11@AddTail

; 903  : 	{
; 904  : 		// add another block
; 905  : 		CPlex* pNewBlock = CPlex::Create(m_pBlocks, m_nBlockSize,

  00010	6a 0c		 push	 12			; 0000000cH
  00012	ff 76 18	 push	 DWORD PTR [esi+24]
  00015	8d 46 14	 lea	 eax, DWORD PTR [esi+20]
  00018	50		 push	 eax
  00019	e8 00 00 00 00	 call	 ?Create@CPlex@@SGPAU1@AAPAU1@II@Z ; CPlex::Create

; 906  : 				 sizeof(CNode));
; 907  : 
; 908  : 		// chain them into free list
; 909  : 		CNode* pNode = (CNode*) pNewBlock->data();
; 910  : 		// free in reverse order to make it easier to debug
; 911  : 		pNode += m_nBlockSize - 1;

  0001e	8b 56 18	 mov	 edx, DWORD PTR [esi+24]
  00021	83 c0 08	 add	 eax, 8
  00024	8d 4a ff	 lea	 ecx, DWORD PTR [edx-1]

; 912  : 		for (INT_PTR i = m_nBlockSize-1; i >= 0; i--, pNode--)

  00027	83 c2 ff	 add	 edx, -1
  0002a	8d 0c 49	 lea	 ecx, DWORD PTR [ecx+ecx*2]
  0002d	8d 0c 88	 lea	 ecx, DWORD PTR [eax+ecx*4]
  00030	78 10		 js	 SHORT $LN11@AddTail
$LL8@AddTail:

; 913  : 		{
; 914  : 			pNode->pNext = m_pNodeFree;

  00032	8b 46 10	 mov	 eax, DWORD PTR [esi+16]
  00035	89 01		 mov	 DWORD PTR [ecx], eax

; 915  : 			m_pNodeFree = pNode;

  00037	89 4e 10	 mov	 DWORD PTR [esi+16], ecx
  0003a	83 e9 0c	 sub	 ecx, 12			; 0000000cH
  0003d	83 ea 01	 sub	 edx, 1
  00040	79 f0		 jns	 SHORT $LL8@AddTail
$LN11@AddTail:

; 916  : 		}
; 917  : 	}
; 918  : 	ENSURE(m_pNodeFree != NULL);  // we must have something

  00042	8b 4e 10	 mov	 ecx, DWORD PTR [esi+16]
  00045	85 c9		 test	 ecx, ecx
  00047	74 39		 je	 SHORT $LN22@AddTail

; 919  : 
; 920  : 	CList::CNode* pNode = m_pNodeFree;
; 921  : 	m_pNodeFree = m_pNodeFree->pNext;

  00049	8b 01		 mov	 eax, DWORD PTR [ecx]
  0004b	89 46 10	 mov	 DWORD PTR [esi+16], eax

; 969  : 	pNewNode->data = newElement;

  0004e	8b 45 08	 mov	 eax, DWORD PTR _newElement$[ebp]

; 922  : 	pNode->pPrev = pPrev;

  00051	89 79 04	 mov	 DWORD PTR [ecx+4], edi

; 923  : 	pNode->pNext = pNext;

  00054	c7 01 00 00 00
	00		 mov	 DWORD PTR [ecx], 0

; 924  : 	m_nCount++;

  0005a	ff 46 0c	 inc	 DWORD PTR [esi+12]

; 969  : 	pNewNode->data = newElement;

  0005d	89 41 08	 mov	 DWORD PTR [ecx+8], eax

; 970  : 	if (m_pNodeTail != NULL)

  00060	8b 46 08	 mov	 eax, DWORD PTR [esi+8]
  00063	85 c0		 test	 eax, eax
  00065	74 0d		 je	 SHORT $LN2@AddTail

; 971  : 		m_pNodeTail->pNext = pNewNode;

  00067	89 08		 mov	 DWORD PTR [eax], ecx

; 972  : 	else
; 973  : 		m_pNodeHead = pNewNode;
; 974  : 	m_pNodeTail = pNewNode;
; 975  : 	return (POSITION) pNewNode;

  00069	8b c1		 mov	 eax, ecx
  0006b	5f		 pop	 edi
  0006c	89 4e 08	 mov	 DWORD PTR [esi+8], ecx
  0006f	5e		 pop	 esi

; 976  : }

  00070	5d		 pop	 ebp
  00071	c2 04 00	 ret	 4
$LN2@AddTail:

; 972  : 	else
; 973  : 		m_pNodeHead = pNewNode;
; 974  : 	m_pNodeTail = pNewNode;
; 975  : 	return (POSITION) pNewNode;

  00074	5f		 pop	 edi
  00075	89 4e 04	 mov	 DWORD PTR [esi+4], ecx
  00078	8b c1		 mov	 eax, ecx
  0007a	89 4e 08	 mov	 DWORD PTR [esi+8], ecx
  0007d	5e		 pop	 esi

; 976  : }

  0007e	5d		 pop	 ebp
  0007f	c2 04 00	 ret	 4
$LN22@AddTail:

; 918  : 	ENSURE(m_pNodeFree != NULL);  // we must have something

  00082	e8 00 00 00 00	 call	 ?AfxThrowInvalidArgException@@YGXXZ ; AfxThrowInvalidArgException
$LN20@AddTail:
  00087	cc		 int	 3
?AddTail@?$CList@PAUIGraphInfo000000@@PAU1@@@QAEPAU__POSITION@@PAUIGraphInfo000000@@@Z ENDP ; CList<IGraphInfo000000 *,IGraphInfo000000 *>::AddTail
_TEXT	ENDS
; Function compile flags: /Ogtp
; File D:\git\src\IBK\IBK_DRFN\ProjSrc\SrcChartEx\ChartOCX\AddInManager\ChartCommonAddIn\IndicatorInfoUndoRedoManagerAddInImp.cpp
; File C:\Program Files (x86)\Microsoft Visual Studio\2019\Community\VC\Tools\MSVC\14.29.30133\atlmfc\include\afxtempl.h
; File D:\git\src\IBK\IBK_DRFN\ProjSrc\SrcChartEx\ChartOCX\AddInManager\ChartCommonAddIn\IndicatorInfoUndoRedoManagerAddInImp.cpp
; File C:\Program Files (x86)\Microsoft Visual Studio\2019\Community\VC\Tools\MSVC\14.29.30133\atlmfc\include\afxtempl.h
; File D:\git\src\IBK\IBK_DRFN\ProjSrc\SrcChartEx\ChartOCX\AddInManager\ChartCommonAddIn\IndicatorInfoUndoRedoManagerAddInImp.cpp
; File C:\Program Files (x86)\Microsoft Visual Studio\2019\Community\VC\Tools\MSVC\14.29.30133\atlmfc\include\afxtempl.h
; File D:\git\src\IBK\IBK_DRFN\ProjSrc\SrcChartEx\ChartOCX\AddInManager\ChartCommonAddIn\IndicatorInfoUndoRedoManagerAddInImp.cpp
; File C:\Program Files (x86)\Microsoft Visual Studio\2019\Community\VC\Tools\MSVC\14.29.30133\atlmfc\include\afxtempl.h
; File D:\git\src\IBK\IBK_DRFN\ProjSrc\SrcChartEx\ChartOCX\AddInManager\ChartCommonAddIn\IndicatorInfoUndoRedoManagerAddInImp.cpp
; File C:\Program Files (x86)\Microsoft Visual Studio\2019\Community\VC\Tools\MSVC\14.29.30133\atlmfc\include\afx.inl
;	COMDAT ??_GCIndicatorInfoUndoRedoManagerAddInImp@@UAEPAXI@Z
_TEXT	SEGMENT
__$EHRec$ = -12						; size = 12
___flags$ = 8						; size = 4
??_GCIndicatorInfoUndoRedoManagerAddInImp@@UAEPAXI@Z PROC ; CIndicatorInfoUndoRedoManagerAddInImp::`scalar deleting destructor', COMDAT
; _this$ = ecx
  00000	55		 push	 ebp
  00001	8b ec		 mov	 ebp, esp
  00003	6a ff		 push	 -1
  00005	68 00 00 00 00	 push	 __ehhandler$??_GCIndicatorInfoUndoRedoManagerAddInImp@@UAEPAXI@Z
  0000a	64 a1 00 00 00
	00		 mov	 eax, DWORD PTR fs:0
  00010	50		 push	 eax
  00011	56		 push	 esi
  00012	57		 push	 edi
  00013	a1 00 00 00 00	 mov	 eax, DWORD PTR ___security_cookie
  00018	33 c5		 xor	 eax, ebp
  0001a	50		 push	 eax
  0001b	8d 45 f4	 lea	 eax, DWORD PTR __$EHRec$[ebp]
  0001e	64 a3 00 00 00
	00		 mov	 DWORD PTR fs:0, eax
  00024	8b f1		 mov	 esi, ecx
; File D:\git\src\IBK\IBK_DRFN\ProjSrc\SrcChartEx\ChartOCX\AddInManager\ChartCommonAddIn\IndicatorInfoUndoRedoManagerAddInImp.cpp

; 460  : 	if( m_lstIndicatorInfoBackUpUndo.GetCount() > 0 )

  00026	83 7e 4c 00	 cmp	 DWORD PTR [esi+76], 0
  0002a	c7 06 00 00 00
	00		 mov	 DWORD PTR [esi], OFFSET ??_7CIndicatorInfoUndoRedoManagerAddInImp@@6BCIWUnknown@@@
  00030	c7 46 08 00 00
	00 00		 mov	 DWORD PTR [esi+8], OFFSET ??_7CIndicatorInfoUndoRedoManagerAddInImp@@6BIChartAddIn000000@@@
  00037	7e 1a		 jle	 SHORT $LN48@scalar

; 461  : 	{
; 462  : 		POSITION pos = m_lstIndicatorInfoBackUpUndo.GetHeadPosition();

  00039	8b 7e 44	 mov	 edi, DWORD PTR [esi+68]

; 465  : 		while(pos)

  0003c	85 ff		 test	 edi, edi
  0003e	74 13		 je	 SHORT $LN48@scalar
$LL8@scalar:

; 466  : 		{
; 467  : 			pIndicatorBackUp = NULL;
; 468  : 			pIndicatorBackUp = m_lstIndicatorInfoBackUpUndo.GetAt(pos);

  00040	8b 4f 08	 mov	 ecx, DWORD PTR [edi+8]

; 469  : 			if( pIndicatorBackUp == NULL ) break;

  00043	85 c9		 test	 ecx, ecx
  00045	74 0c		 je	 SHORT $LN48@scalar

; 470  : 				
; 471  : 			delete pIndicatorBackUp;

  00047	8b 01		 mov	 eax, DWORD PTR [ecx]
  00049	6a 01		 push	 1
  0004b	ff 10		 call	 DWORD PTR [eax]
; File C:\Program Files (x86)\Microsoft Visual Studio\2019\Community\VC\Tools\MSVC\14.29.30133\atlmfc\include\afxtempl.h

; 813  : 		rPosition = (POSITION) pNode->pNext;

  0004d	8b 3f		 mov	 edi, DWORD PTR [edi]
; File D:\git\src\IBK\IBK_DRFN\ProjSrc\SrcChartEx\ChartOCX\AddInManager\ChartCommonAddIn\IndicatorInfoUndoRedoManagerAddInImp.cpp

; 465  : 		while(pos)

  0004f	85 ff		 test	 edi, edi
  00051	75 ed		 jne	 SHORT $LL8@scalar
$LN48@scalar:

; 472  : 			
; 473  : 			m_lstIndicatorInfoBackUpUndo.GetNext(pos);
; 474  : 		}
; 475  : 	}
; 476  : 
; 477  : 	if( m_lstIndicatorInfoBackUpRedo.GetCount() > 0 )

  00053	83 7e 68 00	 cmp	 DWORD PTR [esi+104], 0
  00057	7e 1a		 jle	 SHORT $LN49@scalar

; 478  : 	{
; 479  : 		POSITION pos = m_lstIndicatorInfoBackUpRedo.GetHeadPosition();

  00059	8b 7e 60	 mov	 edi, DWORD PTR [esi+96]

; 482  : 		while(pos)

  0005c	85 ff		 test	 edi, edi
  0005e	74 13		 je	 SHORT $LN49@scalar
$LL10@scalar:

; 483  : 		{
; 484  : 			pIndicatorBackUp = NULL;
; 485  : 			pIndicatorBackUp = m_lstIndicatorInfoBackUpRedo.GetAt(pos);

  00060	8b 4f 08	 mov	 ecx, DWORD PTR [edi+8]

; 486  : 			if( pIndicatorBackUp == NULL ) break;

  00063	85 c9		 test	 ecx, ecx
  00065	74 0c		 je	 SHORT $LN49@scalar

; 487  : 				
; 488  : 			delete pIndicatorBackUp;

  00067	8b 01		 mov	 eax, DWORD PTR [ecx]
  00069	6a 01		 push	 1
  0006b	ff 10		 call	 DWORD PTR [eax]
; File C:\Program Files (x86)\Microsoft Visual Studio\2019\Community\VC\Tools\MSVC\14.29.30133\atlmfc\include\afxtempl.h

; 813  : 		rPosition = (POSITION) pNode->pNext;

  0006d	8b 3f		 mov	 edi, DWORD PTR [edi]
; File D:\git\src\IBK\IBK_DRFN\ProjSrc\SrcChartEx\ChartOCX\AddInManager\ChartCommonAddIn\IndicatorInfoUndoRedoManagerAddInImp.cpp

; 482  : 		while(pos)

  0006f	85 ff		 test	 edi, edi
  00071	75 ed		 jne	 SHORT $LL10@scalar
$LN49@scalar:
; File C:\Program Files (x86)\Microsoft Visual Studio\2019\Community\VC\Tools\MSVC\14.29.30133\atlmfc\include\afxtempl.h

; 872  : 	m_pBlocks->FreeDataChain();

  00073	8b 4e 70	 mov	 ecx, DWORD PTR [esi+112]

; 878  : {

  00076	c7 45 fc 00 00
	00 00		 mov	 DWORD PTR __$EHRec$[ebp+8], 0
  0007d	c7 46 5c 00 00
	00 00		 mov	 DWORD PTR [esi+92], OFFSET ??_7?$CList@PAVCIndicatorInfoBackUp@@PAV1@@@6B@

; 870  : 	m_nCount = 0;

  00084	c7 46 68 00 00
	00 00		 mov	 DWORD PTR [esi+104], 0

; 871  : 	m_pNodeHead = m_pNodeTail = m_pNodeFree = NULL;

  0008b	c7 46 6c 00 00
	00 00		 mov	 DWORD PTR [esi+108], 0
  00092	c7 46 64 00 00
	00 00		 mov	 DWORD PTR [esi+100], 0
  00099	c7 46 60 00 00
	00 00		 mov	 DWORD PTR [esi+96], 0

; 872  : 	m_pBlocks->FreeDataChain();

  000a0	e8 00 00 00 00	 call	 ?FreeDataChain@CPlex@@QAEXXZ ; CPlex::FreeDataChain

; 873  : 	m_pBlocks = NULL;

  000a5	c7 46 70 00 00
	00 00		 mov	 DWORD PTR [esi+112], 0

; 872  : 	m_pBlocks->FreeDataChain();

  000ac	8b 4e 54	 mov	 ecx, DWORD PTR [esi+84]

; 878  : {

  000af	c7 45 fc 01 00
	00 00		 mov	 DWORD PTR __$EHRec$[ebp+8], 1
  000b6	c7 46 40 00 00
	00 00		 mov	 DWORD PTR [esi+64], OFFSET ??_7?$CList@PAVCIndicatorInfoBackUp@@PAV1@@@6B@

; 870  : 	m_nCount = 0;

  000bd	c7 46 4c 00 00
	00 00		 mov	 DWORD PTR [esi+76], 0

; 871  : 	m_pNodeHead = m_pNodeTail = m_pNodeFree = NULL;

  000c4	c7 46 50 00 00
	00 00		 mov	 DWORD PTR [esi+80], 0
  000cb	c7 46 48 00 00
	00 00		 mov	 DWORD PTR [esi+72], 0
  000d2	c7 46 44 00 00
	00 00		 mov	 DWORD PTR [esi+68], 0

; 872  : 	m_pBlocks->FreeDataChain();

  000d9	e8 00 00 00 00	 call	 ?FreeDataChain@CPlex@@QAEXXZ ; CPlex::FreeDataChain
; File D:\git\src\IBK\IBK_DRFN\ProjSrc\SrcChartEx\ChartOCX\AddInManager\ChartCommonAddIn\IndicatorInfoUndoRedoManagerAddInImp.cpp

; 493  : }

  000de	8b ce		 mov	 ecx, esi
; File C:\Program Files (x86)\Microsoft Visual Studio\2019\Community\VC\Tools\MSVC\14.29.30133\atlmfc\include\afxtempl.h

; 873  : 	m_pBlocks = NULL;

  000e0	c7 46 54 00 00
	00 00		 mov	 DWORD PTR [esi+84], 0
; File D:\git\src\IBK\IBK_DRFN\ProjSrc\SrcChartEx\ChartOCX\AddInManager\ChartCommonAddIn\IndicatorInfoUndoRedoManagerAddInImp.cpp

; 493  : }

  000e7	e8 00 00 00 00	 call	 ??1CChartAddInBase000000@@MAE@XZ ; CChartAddInBase000000::~CChartAddInBase000000
  000ec	8b 45 08	 mov	 eax, DWORD PTR ___flags$[ebp]
  000ef	a8 01		 test	 al, 1
  000f1	74 1d		 je	 SHORT $LN64@scalar
  000f3	a8 04		 test	 al, 4
  000f5	75 0b		 jne	 SHORT $LN3@scalar
; File C:\Program Files (x86)\Microsoft Visual Studio\2019\Community\VC\Tools\MSVC\14.29.30133\atlmfc\include\afx.inl

; 112  : 	{ ::operator delete(p); }

  000f7	56		 push	 esi
  000f8	e8 00 00 00 00	 call	 ??3@YAXPAX@Z		; operator delete
  000fd	83 c4 04	 add	 esp, 4
  00100	eb 0e		 jmp	 SHORT $LN64@scalar
$LN3@scalar:
  00102	68 80 00 00 00	 push	 128			; 00000080H
  00107	56		 push	 esi
  00108	e8 00 00 00 00	 call	 ?__global_delete@@YAXPAXI@Z ; __global_delete
  0010d	83 c4 08	 add	 esp, 8
$LN64@scalar:
  00110	8b c6		 mov	 eax, esi
  00112	8b 4d f4	 mov	 ecx, DWORD PTR __$EHRec$[ebp]
  00115	64 89 0d 00 00
	00 00		 mov	 DWORD PTR fs:0, ecx
  0011c	59		 pop	 ecx
  0011d	5f		 pop	 edi
  0011e	5e		 pop	 esi
  0011f	8b e5		 mov	 esp, ebp
  00121	5d		 pop	 ebp
  00122	c2 04 00	 ret	 4
  00125	cc		 int	 3
  00126	cc		 int	 3
  00127	cc		 int	 3
  00128	cc		 int	 3
  00129	cc		 int	 3
_TEXT	ENDS
;	COMDAT text$x
text$x	SEGMENT
__ehhandler$??_GCIndicatorInfoUndoRedoManagerAddInImp@@UAEPAXI@Z:
  00000	90		 npad	 1
  00001	90		 npad	 1
  00002	8b 54 24 08	 mov	 edx, DWORD PTR [esp+8]
  00006	8d 42 0c	 lea	 eax, DWORD PTR [edx+12]
  00009	8b 4a f4	 mov	 ecx, DWORD PTR [edx-12]
  0000c	33 c8		 xor	 ecx, eax
  0000e	e8 00 00 00 00	 call	 @__security_check_cookie@4
  00013	b8 00 00 00 00	 mov	 eax, OFFSET __ehfuncinfo$??_GCIndicatorInfoUndoRedoManagerAddInImp@@UAEPAXI@Z
  00018	e9 00 00 00 00	 jmp	 ___CxxFrameHandler3
text$x	ENDS
??_GCIndicatorInfoUndoRedoManagerAddInImp@@UAEPAXI@Z ENDP ; CIndicatorInfoUndoRedoManagerAddInImp::`scalar deleting destructor'
; Function compile flags: /Ogtp
; File D:\git\src\IBK\IBK_DRFN\ProjSrc\SrcChartEx\ChartOCX\AddInManager\ChartCommonAddIn\IndicatorInfoUndoRedoManagerAddInImp.cpp
; File C:\Program Files (x86)\Microsoft Visual Studio\2019\Community\VC\Tools\MSVC\14.29.30133\atlmfc\include\afxtempl.h
; File D:\git\src\IBK\IBK_DRFN\ProjSrc\SrcChartEx\ChartOCX\AddInManager\ChartCommonAddIn\IndicatorInfoUndoRedoManagerAddInImp.cpp
; File C:\Program Files (x86)\Microsoft Visual Studio\2019\Community\VC\Tools\MSVC\14.29.30133\atlmfc\include\afxtempl.h
; File D:\git\src\IBK\IBK_DRFN\ProjSrc\SrcChartEx\ChartOCX\AddInManager\ChartCommonAddIn\IndicatorInfoUndoRedoManagerAddInImp.cpp
;	COMDAT ?OnResetMainBlock@CIndicatorInfoUndoRedoManagerAddInImp@@MAEXXZ
_TEXT	SEGMENT
?OnResetMainBlock@CIndicatorInfoUndoRedoManagerAddInImp@@MAEXXZ PROC ; CIndicatorInfoUndoRedoManagerAddInImp::OnResetMainBlock, COMDAT
; _this$ = ecx

; 677  : {

  00000	56		 push	 esi
  00001	57		 push	 edi
  00002	8b f9		 mov	 edi, ecx

; 678  : 	if( m_lstIndicatorInfoBackUpUndo.GetCount() > 0 )

  00004	83 7f 44 00	 cmp	 DWORD PTR [edi+68], 0
  00008	7e 1a		 jle	 SHORT $LN29@OnResetMai

; 679  : 	{
; 680  : 		POSITION pos = m_lstIndicatorInfoBackUpUndo.GetHeadPosition();

  0000a	8b 77 3c	 mov	 esi, DWORD PTR [edi+60]

; 683  : 		while(pos)

  0000d	85 f6		 test	 esi, esi
  0000f	74 13		 je	 SHORT $LN29@OnResetMai
$LL2@OnResetMai:

; 684  : 		{
; 685  : 			pIndicatorBackUp = NULL;
; 686  : 			pIndicatorBackUp = m_lstIndicatorInfoBackUpUndo.GetAt(pos);

  00011	8b 4e 08	 mov	 ecx, DWORD PTR [esi+8]

; 687  : 			if( pIndicatorBackUp == NULL ) break;

  00014	85 c9		 test	 ecx, ecx
  00016	74 0c		 je	 SHORT $LN29@OnResetMai

; 688  : 				
; 689  : 			delete pIndicatorBackUp;

  00018	8b 01		 mov	 eax, DWORD PTR [ecx]
  0001a	6a 01		 push	 1
  0001c	ff 10		 call	 DWORD PTR [eax]
; File C:\Program Files (x86)\Microsoft Visual Studio\2019\Community\VC\Tools\MSVC\14.29.30133\atlmfc\include\afxtempl.h

; 813  : 		rPosition = (POSITION) pNode->pNext;

  0001e	8b 36		 mov	 esi, DWORD PTR [esi]
; File D:\git\src\IBK\IBK_DRFN\ProjSrc\SrcChartEx\ChartOCX\AddInManager\ChartCommonAddIn\IndicatorInfoUndoRedoManagerAddInImp.cpp

; 683  : 		while(pos)

  00020	85 f6		 test	 esi, esi
  00022	75 ed		 jne	 SHORT $LL2@OnResetMai
$LN29@OnResetMai:

; 690  : 			
; 691  : 			m_lstIndicatorInfoBackUpUndo.GetNext(pos);
; 692  : 		}
; 693  : 	}
; 694  : 
; 695  : 	if( m_lstIndicatorInfoBackUpRedo.GetCount() > 0 )

  00024	83 7f 60 00	 cmp	 DWORD PTR [edi+96], 0
  00028	7e 1a		 jle	 SHORT $LN30@OnResetMai

; 696  : 	{
; 697  : 		POSITION pos = m_lstIndicatorInfoBackUpRedo.GetHeadPosition();

  0002a	8b 77 58	 mov	 esi, DWORD PTR [edi+88]

; 700  : 		while(pos)

  0002d	85 f6		 test	 esi, esi
  0002f	74 13		 je	 SHORT $LN30@OnResetMai
$LL4@OnResetMai:

; 701  : 		{
; 702  : 			pIndicatorBackUp = NULL;
; 703  : 			pIndicatorBackUp = m_lstIndicatorInfoBackUpRedo.GetAt(pos);

  00031	8b 4e 08	 mov	 ecx, DWORD PTR [esi+8]

; 704  : 			if( pIndicatorBackUp == NULL ) break;

  00034	85 c9		 test	 ecx, ecx
  00036	74 0c		 je	 SHORT $LN30@OnResetMai

; 705  : 				
; 706  : 			delete pIndicatorBackUp;

  00038	8b 01		 mov	 eax, DWORD PTR [ecx]
  0003a	6a 01		 push	 1
  0003c	ff 10		 call	 DWORD PTR [eax]
; File C:\Program Files (x86)\Microsoft Visual Studio\2019\Community\VC\Tools\MSVC\14.29.30133\atlmfc\include\afxtempl.h

; 813  : 		rPosition = (POSITION) pNode->pNext;

  0003e	8b 36		 mov	 esi, DWORD PTR [esi]
; File D:\git\src\IBK\IBK_DRFN\ProjSrc\SrcChartEx\ChartOCX\AddInManager\ChartCommonAddIn\IndicatorInfoUndoRedoManagerAddInImp.cpp

; 700  : 		while(pos)

  00040	85 f6		 test	 esi, esi
  00042	75 ed		 jne	 SHORT $LL4@OnResetMai
$LN30@OnResetMai:
  00044	5f		 pop	 edi

; 707  : 			
; 708  : 			m_lstIndicatorInfoBackUpRedo.GetNext(pos);
; 709  : 		}
; 710  : 	}
; 711  : }

  00045	5e		 pop	 esi
  00046	c3		 ret	 0
?OnResetMainBlock@CIndicatorInfoUndoRedoManagerAddInImp@@MAEXXZ ENDP ; CIndicatorInfoUndoRedoManagerAddInImp::OnResetMainBlock
_TEXT	ENDS
; Function compile flags: /Ogtp
; File D:\git\src\IBK\IBK_DRFN\ProjSrc\SrcChartEx\ChartOCX\AddInManager\ChartCommonAddIn\IndicatorInfoUndoRedoManagerAddInImp.cpp
; File C:\Program Files (x86)\Microsoft Visual Studio\2019\Community\VC\Tools\MSVC\14.29.30133\atlmfc\include\afxtempl.h
; File D:\git\src\IBK\IBK_DRFN\ProjSrc\SrcChartEx\ChartOCX\AddInManager\ChartCommonAddIn\IndicatorInfoUndoRedoManagerAddInImp.cpp
; File C:\Program Files (x86)\Microsoft Visual Studio\2019\Community\VC\Tools\MSVC\14.29.30133\atlmfc\include\afxtempl.h
; File D:\git\src\IBK\IBK_DRFN\ProjSrc\SrcChartEx\ChartOCX\AddInManager\ChartCommonAddIn\IndicatorInfoUndoRedoManagerAddInImp.cpp
; File C:\Program Files (x86)\Microsoft Visual Studio\2019\Community\VC\Tools\MSVC\14.29.30133\atlmfc\include\afxtempl.h
; File D:\git\src\IBK\IBK_DRFN\ProjSrc\SrcChartEx\ChartOCX\AddInManager\ChartCommonAddIn\IndicatorInfoUndoRedoManagerAddInImp.cpp
; File C:\Program Files (x86)\Microsoft Visual Studio\2019\Community\VC\Tools\MSVC\14.29.30133\atlmfc\include\afxtempl.h
; File D:\git\src\IBK\IBK_DRFN\ProjSrc\SrcChartEx\ChartOCX\AddInManager\ChartCommonAddIn\IndicatorInfoUndoRedoManagerAddInImp.cpp
;	COMDAT ?OnAddInToolCommand@CIndicatorInfoUndoRedoManagerAddInImp@@MAEHW4EAICommandType@@PBDJ@Z
_TEXT	SEGMENT
_p_eCommandID$ = 8					; size = 4
_p_szParam$ = 12					; size = 4
_p_lParam$ = 16						; size = 4
?OnAddInToolCommand@CIndicatorInfoUndoRedoManagerAddInImp@@MAEHW4EAICommandType@@PBDJ@Z PROC ; CIndicatorInfoUndoRedoManagerAddInImp::OnAddInToolCommand, COMDAT
; _this$ = ecx

; 554  : {

  00000	55		 push	 ebp
  00001	8b ec		 mov	 ebp, esp

; 555  : 	if( strcmp( p_szParam, m_strAddInItemName ) )

  00003	8b 15 00 00 00
	00		 mov	 edx, DWORD PTR ?m_strAddInItemName@CIndicatorInfoUndoRedoManagerAddInImp@@2V?$CStringT@DV?$StrTraitMFC_DLL@DV?$ChTraitsCRT@D@ATL@@@@@ATL@@A ; CIndicatorInfoUndoRedoManagerAddInImp::m_strAddInItemName
  00009	8b 45 0c	 mov	 eax, DWORD PTR _p_szParam$[ebp]
  0000c	53		 push	 ebx
  0000d	56		 push	 esi
  0000e	57		 push	 edi
  0000f	8b f1		 mov	 esi, ecx
$LL44@OnAddInToo:
  00011	8a 08		 mov	 cl, BYTE PTR [eax]
  00013	3a 0a		 cmp	 cl, BYTE PTR [edx]
  00015	75 1a		 jne	 SHORT $LN45@OnAddInToo
  00017	84 c9		 test	 cl, cl
  00019	74 12		 je	 SHORT $LN46@OnAddInToo
  0001b	8a 48 01	 mov	 cl, BYTE PTR [eax+1]
  0001e	3a 4a 01	 cmp	 cl, BYTE PTR [edx+1]
  00021	75 0e		 jne	 SHORT $LN45@OnAddInToo
  00023	83 c0 02	 add	 eax, 2
  00026	83 c2 02	 add	 edx, 2
  00029	84 c9		 test	 cl, cl
  0002b	75 e4		 jne	 SHORT $LL44@OnAddInToo
$LN46@OnAddInToo:
  0002d	33 c0		 xor	 eax, eax
  0002f	eb 05		 jmp	 SHORT $LN47@OnAddInToo
$LN45@OnAddInToo:
  00031	1b c0		 sbb	 eax, eax
  00033	83 c8 01	 or	 eax, 1
$LN47@OnAddInToo:
  00036	85 c0		 test	 eax, eax
  00038	0f 85 c6 00 00
	00		 jne	 $LN48@OnAddInToo

; 556  : 		return FALSE;
; 557  : 
; 558  : 	if( m_pIAddInToolMgr )

  0003e	39 46 24	 cmp	 DWORD PTR [esi+36], eax
  00041	0f 84 bd 00 00
	00		 je	 $LN48@OnAddInToo

; 559  : 	{
; 560  : 		switch( p_eCommandID )

  00047	8b 45 08	 mov	 eax, DWORD PTR _p_eCommandID$[ebp]
  0004a	83 e8 35	 sub	 eax, 53			; 00000035H
  0004d	0f 84 91 00 00
	00		 je	 $LN8@OnAddInToo
  00053	83 e8 01	 sub	 eax, 1
  00056	74 48		 je	 SHORT $LN11@OnAddInToo
  00058	83 e8 01	 sub	 eax, 1
  0005b	0f 85 a3 00 00
	00		 jne	 $LN48@OnAddInToo

; 602  : 				}
; 603  : 			
; 604  : 				break;
; 605  : 			}
; 606  : 
; 607  : 
; 608  : 			case EAI_UNDO_REDO_MANAGER_REDO_THIS_WORK :
; 609  : 			{
; 610  : 				if( m_lstIndicatorInfoBackUpRedo.GetCount() > 0 )

  00061	39 46 60	 cmp	 DWORD PTR [esi+96], eax
  00064	0f 8e 9a 00 00
	00		 jle	 $LN48@OnAddInToo
; File C:\Program Files (x86)\Microsoft Visual Studio\2019\Community\VC\Tools\MSVC\14.29.30133\atlmfc\include\afxtempl.h

; 797  : 	{ ENSURE(m_pNodeTail != NULL);

  0006a	8b 46 5c	 mov	 eax, DWORD PTR [esi+92]
  0006d	85 c0		 test	 eax, eax
  0006f	0f 84 98 00 00
	00		 je	 $LN43@OnAddInToo
; File D:\git\src\IBK\IBK_DRFN\ProjSrc\SrcChartEx\ChartOCX\AddInManager\ChartCommonAddIn\IndicatorInfoUndoRedoManagerAddInImp.cpp

; 616  : 					if( pIndicatorBackUp == NULL )

  00075	8b 78 08	 mov	 edi, DWORD PTR [eax+8]
  00078	85 ff		 test	 edi, edi
  0007a	74 38		 je	 SHORT $LN42@OnAddInToo

; 617  : 						return TRUE;
; 618  : 
; 619  : 					pIndicatorBackUp->ChangeAllIndicatorList( m_pIGraphInfoManager );

  0007c	ff 76 20	 push	 DWORD PTR [esi+32]
  0007f	8b cf		 mov	 ecx, edi
  00081	e8 00 00 00 00	 call	 ?ChangeAllIndicatorList@CIndicatorInfoBackUp@@QAE_NPAUIGraphInfoManager000000@@@Z ; CIndicatorInfoBackUp::ChangeAllIndicatorList

; 620  : 
; 621  : 					m_lstIndicatorInfoBackUpUndo.AddTail( pIndicatorBackUp );

  00086	57		 push	 edi
  00087	8d 4e 38	 lea	 ecx, DWORD PTR [esi+56]
  0008a	e8 00 00 00 00	 call	 ?AddTail@?$CList@PAVCIndicatorInfoBackUp@@PAV1@@@QAEPAU__POSITION@@PAVCIndicatorInfoBackUp@@@Z ; CList<CIndicatorInfoBackUp *,CIndicatorInfoBackUp *>::AddTail

; 622  : 
; 623  : 					m_lstIndicatorInfoBackUpRedo.RemoveTail();

  0008f	8d 4e 54	 lea	 ecx, DWORD PTR [esi+84]
  00092	e8 00 00 00 00	 call	 ?RemoveTail@?$CList@PAVCIndicatorInfoBackUp@@PAV1@@@QAEPAVCIndicatorInfoBackUp@@XZ ; CList<CIndicatorInfoBackUp *,CIndicatorInfoBackUp *>::RemoveTail
  00097	5f		 pop	 edi

; 632  : }

  00098	5e		 pop	 esi
  00099	33 c0		 xor	 eax, eax
  0009b	5b		 pop	 ebx
  0009c	5d		 pop	 ebp
  0009d	c2 0c 00	 ret	 12			; 0000000cH
$LN11@OnAddInToo:

; 577  : 						
; 578  : 						m_lstIndicatorInfoBackUpRedo.GetNext(pos);
; 579  : 					}
; 580  : 				}
; 581  : 
; 582  : 				break;
; 583  : 			}
; 584  : 			
; 585  : 
; 586  : 			case EAI_UNDO_REDO_MANAGER_UNDO_THIS_WORK :
; 587  : 			{
; 588  : 				if( m_lstIndicatorInfoBackUpUndo.GetCount() > 0 )

  000a0	83 7e 44 00	 cmp	 DWORD PTR [esi+68], 0
  000a4	7e 5e		 jle	 SHORT $LN48@OnAddInToo
; File C:\Program Files (x86)\Microsoft Visual Studio\2019\Community\VC\Tools\MSVC\14.29.30133\atlmfc\include\afxtempl.h

; 797  : 	{ ENSURE(m_pNodeTail != NULL);

  000a6	8b 46 40	 mov	 eax, DWORD PTR [esi+64]
  000a9	85 c0		 test	 eax, eax
  000ab	74 60		 je	 SHORT $LN43@OnAddInToo
; File D:\git\src\IBK\IBK_DRFN\ProjSrc\SrcChartEx\ChartOCX\AddInManager\ChartCommonAddIn\IndicatorInfoUndoRedoManagerAddInImp.cpp

; 594  : 					if( pIndicatorBackUp == NULL )

  000ad	8b 78 08	 mov	 edi, DWORD PTR [eax+8]
  000b0	85 ff		 test	 edi, edi
  000b2	75 0c		 jne	 SHORT $LN13@OnAddInToo
$LN42@OnAddInToo:
  000b4	5f		 pop	 edi

; 632  : }

  000b5	5e		 pop	 esi
  000b6	b8 01 00 00 00	 mov	 eax, 1
  000bb	5b		 pop	 ebx
  000bc	5d		 pop	 ebp
  000bd	c2 0c 00	 ret	 12			; 0000000cH
$LN13@OnAddInToo:

; 595  : 						return TRUE;
; 596  : 
; 597  : 					pIndicatorBackUp->ChangeAllIndicatorList( m_pIGraphInfoManager );

  000c0	ff 76 20	 push	 DWORD PTR [esi+32]
  000c3	8b cf		 mov	 ecx, edi
  000c5	e8 00 00 00 00	 call	 ?ChangeAllIndicatorList@CIndicatorInfoBackUp@@QAE_NPAUIGraphInfoManager000000@@@Z ; CIndicatorInfoBackUp::ChangeAllIndicatorList

; 598  : 
; 599  : 					m_lstIndicatorInfoBackUpRedo.AddTail( pIndicatorBackUp );

  000ca	57		 push	 edi
  000cb	8d 4e 54	 lea	 ecx, DWORD PTR [esi+84]
  000ce	e8 00 00 00 00	 call	 ?AddTail@?$CList@PAVCIndicatorInfoBackUp@@PAV1@@@QAEPAU__POSITION@@PAVCIndicatorInfoBackUp@@@Z ; CList<CIndicatorInfoBackUp *,CIndicatorInfoBackUp *>::AddTail

; 600  : 
; 601  : 					m_lstIndicatorInfoBackUpUndo.RemoveTail();

  000d3	8d 4e 38	 lea	 ecx, DWORD PTR [esi+56]
  000d6	e8 00 00 00 00	 call	 ?RemoveTail@?$CList@PAVCIndicatorInfoBackUp@@PAV1@@@QAEPAVCIndicatorInfoBackUp@@XZ ; CList<CIndicatorInfoBackUp *,CIndicatorInfoBackUp *>::RemoveTail
  000db	5f		 pop	 edi

; 632  : }

  000dc	5e		 pop	 esi
  000dd	33 c0		 xor	 eax, eax
  000df	5b		 pop	 ebx
  000e0	5d		 pop	 ebp
  000e1	c2 0c 00	 ret	 12			; 0000000cH
$LN8@OnAddInToo:

; 561  : 		{
; 562  : 			case EAI_UNDO_REDO_MANAGER_DELETE_REDO_WORK_LIST :
; 563  : 			{
; 564  : 				// 1. Redo List   Node .
; 565  : 				if( m_lstIndicatorInfoBackUpRedo.GetCount() > 0 )

  000e4	83 7e 60 00	 cmp	 DWORD PTR [esi+96], 0
  000e8	7e 1a		 jle	 SHORT $LN48@OnAddInToo

; 566  : 				{
; 567  : 					POSITION pos = m_lstIndicatorInfoBackUpRedo.GetHeadPosition();

  000ea	8b 76 58	 mov	 esi, DWORD PTR [esi+88]

; 570  : 					while(pos)

  000ed	85 f6		 test	 esi, esi
  000ef	74 13		 je	 SHORT $LN48@OnAddInToo
$LL4@OnAddInToo:

; 571  : 					{
; 572  : 						pIndicatorBackUp = NULL;
; 573  : 						pIndicatorBackUp = m_lstIndicatorInfoBackUpRedo.GetAt(pos);

  000f1	8b 4e 08	 mov	 ecx, DWORD PTR [esi+8]

; 574  : 						if( pIndicatorBackUp == NULL ) break;

  000f4	85 c9		 test	 ecx, ecx
  000f6	74 0c		 je	 SHORT $LN48@OnAddInToo

; 575  : 							
; 576  : 						delete pIndicatorBackUp;

  000f8	8b 01		 mov	 eax, DWORD PTR [ecx]
  000fa	6a 01		 push	 1
  000fc	ff 10		 call	 DWORD PTR [eax]
; File C:\Program Files (x86)\Microsoft Visual Studio\2019\Community\VC\Tools\MSVC\14.29.30133\atlmfc\include\afxtempl.h

; 813  : 		rPosition = (POSITION) pNode->pNext;

  000fe	8b 36		 mov	 esi, DWORD PTR [esi]
; File D:\git\src\IBK\IBK_DRFN\ProjSrc\SrcChartEx\ChartOCX\AddInManager\ChartCommonAddIn\IndicatorInfoUndoRedoManagerAddInImp.cpp

; 570  : 					while(pos)

  00100	85 f6		 test	 esi, esi
  00102	75 ed		 jne	 SHORT $LL4@OnAddInToo
$LN48@OnAddInToo:
  00104	5f		 pop	 edi

; 632  : }

  00105	5e		 pop	 esi
  00106	33 c0		 xor	 eax, eax
  00108	5b		 pop	 ebx
  00109	5d		 pop	 ebp
  0010a	c2 0c 00	 ret	 12			; 0000000cH
$LN43@OnAddInToo:
; File C:\Program Files (x86)\Microsoft Visual Studio\2019\Community\VC\Tools\MSVC\14.29.30133\atlmfc\include\afxtempl.h

; 797  : 	{ ENSURE(m_pNodeTail != NULL);

  0010d	e8 00 00 00 00	 call	 ?AfxThrowInvalidArgException@@YGXXZ ; AfxThrowInvalidArgException
$LN49@OnAddInToo:
  00112	cc		 int	 3
?OnAddInToolCommand@CIndicatorInfoUndoRedoManagerAddInImp@@MAEHW4EAICommandType@@PBDJ@Z ENDP ; CIndicatorInfoUndoRedoManagerAddInImp::OnAddInToolCommand
_TEXT	ENDS
; Function compile flags: /Ogtp
; File D:\git\src\IBK\IBK_DRFN\ProjSrc\SrcChartEx\ChartOCX\AddInManager\ChartCommonAddIn\IndicatorInfoUndoRedoManagerAddInImp.cpp
;	COMDAT ?OnAddInToolCommand@CIndicatorInfoUndoRedoManagerAddInImp@@MAEHW4EAICommandType@@JPBD11@Z
_TEXT	SEGMENT
_p_eCommandID$ = 8					; size = 4
_p_lParam$ = 12						; size = 4
_p_szParam1$ = 16					; size = 4
_p_szParam2$ = 20					; size = 4
_p_szParam3$ = 24					; size = 4
?OnAddInToolCommand@CIndicatorInfoUndoRedoManagerAddInImp@@MAEHW4EAICommandType@@JPBD11@Z PROC ; CIndicatorInfoUndoRedoManagerAddInImp::OnAddInToolCommand, COMDAT
; _this$ = ecx

; 521  : {

  00000	55		 push	 ebp
  00001	8b ec		 mov	 ebp, esp
  00003	56		 push	 esi
  00004	8b f1		 mov	 esi, ecx

; 522  : 	if( m_pIAddInToolMgr )

  00006	83 7e 24 00	 cmp	 DWORD PTR [esi+36], 0
  0000a	74 32		 je	 SHORT $LN11@OnAddInToo

; 523  : 	{
; 524  : 		if( EAI_INDICATORINFO_UNDO_REDO_MANAGER_BACKUP_INDICATORINFO == p_eCommandID )

  0000c	83 7d 08 38	 cmp	 DWORD PTR _p_eCommandID$[ebp], 56 ; 00000038H
  00010	75 2c		 jne	 SHORT $LN11@OnAddInToo

; 525  : 		{
; 526  : 			if( !m_pIChartManager )

  00012	83 7e 1c 00	 cmp	 DWORD PTR [esi+28], 0
  00016	74 26		 je	 SHORT $LN11@OnAddInToo

; 527  : 				return FALSE;
; 528  : 
; 529  : 			CIndicatorInfoBackUp *pIndicatorInfoBackUp = NULL;
; 530  : 			pIndicatorInfoBackUp = BackUpIndicatorInfo( (IStringList *)p_szParam1, (int)p_lParam );

  00018	ff 75 0c	 push	 DWORD PTR _p_lParam$[ebp]
  0001b	8d 4e f8	 lea	 ecx, DWORD PTR [esi-8]
  0001e	ff 75 10	 push	 DWORD PTR _p_szParam1$[ebp]
  00021	e8 00 00 00 00	 call	 ?BackUpIndicatorInfo@CIndicatorInfoUndoRedoManagerAddInImp@@QAEPAVCIndicatorInfoBackUp@@PAUIStringList000000@@H@Z ; CIndicatorInfoUndoRedoManagerAddInImp::BackUpIndicatorInfo

; 531  : 
; 532  : 			if( pIndicatorInfoBackUp )

  00026	85 c0		 test	 eax, eax
  00028	74 14		 je	 SHORT $LN11@OnAddInToo

; 533  : 			{
; 534  : 				m_pIAddInToolMgr->OnAddInToolCommand( EAI_UNDO_REDO_MANAGER_ADD_WORK_TO_MANAGER,	\

  0002a	8b 4e 24	 mov	 ecx, DWORD PTR [esi+36]
  0002d	50		 push	 eax
  0002e	ff 35 00 00 00
	00		 push	 DWORD PTR ?m_strAddInItemName@CIndicatorInfoUndoRedoManagerAddInImp@@2V?$CStringT@DV?$StrTraitMFC_DLL@DV?$ChTraitsCRT@D@ATL@@@@@ATL@@A ; CIndicatorInfoUndoRedoManagerAddInImp::m_strAddInItemName
  00034	8b 11		 mov	 edx, DWORD PTR [ecx]
  00036	6a 34		 push	 52			; 00000034H
  00038	ff 92 a4 00 00
	00		 call	 DWORD PTR [edx+164]
$LN11@OnAddInToo:

; 535  : 													  m_strAddInItemName,							\
; 536  : 													  (long)pIndicatorInfoBackUp );
; 537  : 			}
; 538  : 		}
; 539  : 	}
; 540  : 
; 541  : 	return FALSE;
; 542  : }

  0003e	33 c0		 xor	 eax, eax
  00040	5e		 pop	 esi
  00041	5d		 pop	 ebp
  00042	c2 14 00	 ret	 20			; 00000014H
?OnAddInToolCommand@CIndicatorInfoUndoRedoManagerAddInImp@@MAEHW4EAICommandType@@JPBD11@Z ENDP ; CIndicatorInfoUndoRedoManagerAddInImp::OnAddInToolCommand
_TEXT	ENDS
; Function compile flags: /Ogtp
; File D:\git\src\IBK\IBK_DRFN\ProjSrc\SrcChartEx\ChartOCX\AddInManager\ChartCommonAddIn\IndicatorInfoUndoRedoManagerAddInImp.cpp
; File D:\git\src\IBK\IBK_DRFN\ProjSrc\SrcChartEx\ChartOCX\AddInManager\Include_AddIn\I000000\_IString.h
; File D:\git\src\IBK\IBK_DRFN\ProjSrc\SrcChartEx\ChartOCX\AddInManager\ChartCommonAddIn\IndicatorInfoUndoRedoManagerAddInImp.cpp
; File D:\git\src\IBK\IBK_DRFN\ProjSrc\SrcChartEx\ChartOCX\AddInManager\Include_AddIn\I000000\_IString.h
; File D:\git\src\IBK\IBK_DRFN\ProjSrc\SrcChartEx\ChartOCX\AddInManager\ChartCommonAddIn\IndicatorInfoUndoRedoManagerAddInImp.cpp
;	COMDAT ?IsExistenceIndicatorName@CIndicatorInfoUndoRedoManagerAddInImp@@QAE_NPAUIStringList000000@@PBD@Z
_TEXT	SEGMENT
_szGraphName$ = -20					; size = 8
__$EHRec$ = -12						; size = 12
_pIndicatorNameList$ = 8				; size = 4
_pos$ = 12						; size = 4
_p_szGraphName$ = 12					; size = 4
?IsExistenceIndicatorName@CIndicatorInfoUndoRedoManagerAddInImp@@QAE_NPAUIStringList000000@@PBD@Z PROC ; CIndicatorInfoUndoRedoManagerAddInImp::IsExistenceIndicatorName, COMDAT
; _this$ = ecx

; 792  : {

  00000	55		 push	 ebp
  00001	8b ec		 mov	 ebp, esp
  00003	6a ff		 push	 -1
  00005	68 00 00 00 00	 push	 __ehhandler$?IsExistenceIndicatorName@CIndicatorInfoUndoRedoManagerAddInImp@@QAE_NPAUIStringList000000@@PBD@Z
  0000a	64 a1 00 00 00
	00		 mov	 eax, DWORD PTR fs:0
  00010	50		 push	 eax
  00011	83 ec 08	 sub	 esp, 8
  00014	53		 push	 ebx
  00015	56		 push	 esi
  00016	57		 push	 edi
  00017	a1 00 00 00 00	 mov	 eax, DWORD PTR ___security_cookie
  0001c	33 c5		 xor	 eax, ebp
  0001e	50		 push	 eax
  0001f	8d 45 f4	 lea	 eax, DWORD PTR __$EHRec$[ebp]
  00022	64 a3 00 00 00
	00		 mov	 DWORD PTR fs:0, eax

; 793  : 	if( !p_szGraphName)  return false;

  00028	8b 75 0c	 mov	 esi, DWORD PTR _p_szGraphName$[ebp]
  0002b	85 f6		 test	 esi, esi
  0002d	0f 84 a2 00 00
	00		 je	 $LN26@IsExistenc

; 794  : 	if( !*p_szGraphName) return false;

  00033	80 3e 00	 cmp	 BYTE PTR [esi], 0
  00036	0f 84 99 00 00
	00		 je	 $LN26@IsExistenc
; File D:\git\src\IBK\IBK_DRFN\ProjSrc\SrcChartEx\ChartOCX\AddInManager\Include_AddIn\I000000\_IString.h

; 39   : 		m_pIStrData = p_pIString;	// Do not AddRef(). Because It must be Return Value.

  0003c	c7 45 f0 00 00
	00 00		 mov	 DWORD PTR _szGraphName$[ebp+4], 0

; 40   : 		if( m_pIStrData) m_szData = m_pIStrData->GetData();
; 41   : 		else m_szData = NULL;

  00043	c7 45 ec 00 00
	00 00		 mov	 DWORD PTR _szGraphName$[ebp], 0
; File D:\git\src\IBK\IBK_DRFN\ProjSrc\SrcChartEx\ChartOCX\AddInManager\ChartCommonAddIn\IndicatorInfoUndoRedoManagerAddInImp.cpp

; 798  : 	POSITION pos = pIndicatorNameList->GetHeadPosition();

  0004a	8b 7d 08	 mov	 edi, DWORD PTR _pIndicatorNameList$[ebp]
  0004d	8b cf		 mov	 ecx, edi
  0004f	c7 45 fc 00 00
	00 00		 mov	 DWORD PTR __$EHRec$[ebp+8], 0
  00056	8b 07		 mov	 eax, DWORD PTR [edi]
  00058	ff 50 34	 call	 DWORD PTR [eax+52]
  0005b	89 45 0c	 mov	 DWORD PTR _pos$[ebp], eax

; 799  : 	while( pos != NULL )

  0005e	85 c0		 test	 eax, eax
  00060	74 43		 je	 SHORT $LN3@IsExistenc
$LL2@IsExistenc:

; 800  : 	{
; 801  : 		pIndicatorNameList->GetNext(pos, szGraphName);

  00062	8b 07		 mov	 eax, DWORD PTR [edi]
  00064	8d 4d ec	 lea	 ecx, DWORD PTR _szGraphName$[ebp]
  00067	51		 push	 ecx
  00068	8d 4d 0c	 lea	 ecx, DWORD PTR _pos$[ebp]
  0006b	51		 push	 ecx
  0006c	8b cf		 mov	 ecx, edi
  0006e	ff 50 3c	 call	 DWORD PTR [eax+60]

; 802  : 		if( !strcmp( szGraphName, p_szGraphName) )

  00071	8b 4d ec	 mov	 ecx, DWORD PTR _szGraphName$[ebp]
  00074	8b c6		 mov	 eax, esi
$LL27@IsExistenc:
  00076	8a 11		 mov	 dl, BYTE PTR [ecx]
  00078	3a 10		 cmp	 dl, BYTE PTR [eax]
  0007a	75 1a		 jne	 SHORT $LN28@IsExistenc
  0007c	84 d2		 test	 dl, dl
  0007e	74 12		 je	 SHORT $LN29@IsExistenc
  00080	8a 51 01	 mov	 dl, BYTE PTR [ecx+1]
  00083	3a 50 01	 cmp	 dl, BYTE PTR [eax+1]
  00086	75 0e		 jne	 SHORT $LN28@IsExistenc
  00088	83 c1 02	 add	 ecx, 2
  0008b	83 c0 02	 add	 eax, 2
  0008e	84 d2		 test	 dl, dl
  00090	75 e4		 jne	 SHORT $LL27@IsExistenc
$LN29@IsExistenc:
  00092	33 c0		 xor	 eax, eax
  00094	eb 05		 jmp	 SHORT $LN30@IsExistenc
$LN28@IsExistenc:
  00096	1b c0		 sbb	 eax, eax
  00098	83 c8 01	 or	 eax, 1
$LN30@IsExistenc:
  0009b	85 c0		 test	 eax, eax
  0009d	74 32		 je	 SHORT $LN23@IsExistenc

; 799  : 	while( pos != NULL )

  0009f	83 7d 0c 00	 cmp	 DWORD PTR _pos$[ebp], 0
  000a3	75 bd		 jne	 SHORT $LL2@IsExistenc
$LN3@IsExistenc:

; 806  : 	return false;

  000a5	32 db		 xor	 bl, bl
$LN9@IsExistenc:
; File D:\git\src\IBK\IBK_DRFN\ProjSrc\SrcChartEx\ChartOCX\AddInManager\Include_AddIn\I000000\_IString.h

; 45   : 		if( m_pIStrData)

  000a7	8b 55 f0	 mov	 edx, DWORD PTR _szGraphName$[ebp+4]
  000aa	c7 45 fc 02 00
	00 00		 mov	 DWORD PTR __$EHRec$[ebp+8], 2
  000b1	85 d2		 test	 edx, edx
  000b3	74 06		 je	 SHORT $LN19@IsExistenc

; 46   : 		{
; 47   : 			m_pIStrData->Release();

  000b5	8b 0a		 mov	 ecx, DWORD PTR [edx]
  000b7	52		 push	 edx
  000b8	ff 51 08	 call	 DWORD PTR [ecx+8]
$LN19@IsExistenc:
; File D:\git\src\IBK\IBK_DRFN\ProjSrc\SrcChartEx\ChartOCX\AddInManager\ChartCommonAddIn\IndicatorInfoUndoRedoManagerAddInImp.cpp

; 806  : 	return false;

  000bb	8a c3		 mov	 al, bl

; 807  : }

  000bd	8b 4d f4	 mov	 ecx, DWORD PTR __$EHRec$[ebp]
  000c0	64 89 0d 00 00
	00 00		 mov	 DWORD PTR fs:0, ecx
  000c7	59		 pop	 ecx
  000c8	5f		 pop	 edi
  000c9	5e		 pop	 esi
  000ca	5b		 pop	 ebx
  000cb	8b e5		 mov	 esp, ebp
  000cd	5d		 pop	 ebp
  000ce	c2 08 00	 ret	 8
$LN23@IsExistenc:
  000d1	b3 01		 mov	 bl, 1
  000d3	eb d2		 jmp	 SHORT $LN9@IsExistenc
$LN26@IsExistenc:

; 794  : 	if( !*p_szGraphName) return false;

  000d5	32 c0		 xor	 al, al

; 807  : }

  000d7	8b 4d f4	 mov	 ecx, DWORD PTR __$EHRec$[ebp]
  000da	64 89 0d 00 00
	00 00		 mov	 DWORD PTR fs:0, ecx
  000e1	59		 pop	 ecx
  000e2	5f		 pop	 edi
  000e3	5e		 pop	 esi
  000e4	5b		 pop	 ebx
  000e5	8b e5		 mov	 esp, ebp
  000e7	5d		 pop	 ebp
  000e8	c2 08 00	 ret	 8
_TEXT	ENDS
;	COMDAT text$x
text$x	SEGMENT
__unwindfunclet$?IsExistenceIndicatorName@CIndicatorInfoUndoRedoManagerAddInImp@@QAE_NPAUIStringList000000@@PBD@Z$0:
  00000	8d 4d ec	 lea	 ecx, DWORD PTR _szGraphName$[ebp]
  00003	e9 00 00 00 00	 jmp	 ??1ILPCSTR000000@@QAE@XZ ; ILPCSTR000000::~ILPCSTR000000
  00008	cc		 int	 3
  00009	cc		 int	 3
  0000a	cc		 int	 3
  0000b	cc		 int	 3
  0000c	cc		 int	 3
__ehhandler$?IsExistenceIndicatorName@CIndicatorInfoUndoRedoManagerAddInImp@@QAE_NPAUIStringList000000@@PBD@Z:
  0000d	90		 npad	 1
  0000e	90		 npad	 1
  0000f	8b 54 24 08	 mov	 edx, DWORD PTR [esp+8]
  00013	8d 42 0c	 lea	 eax, DWORD PTR [edx+12]
  00016	8b 4a e8	 mov	 ecx, DWORD PTR [edx-24]
  00019	33 c8		 xor	 ecx, eax
  0001b	e8 00 00 00 00	 call	 @__security_check_cookie@4
  00020	b8 00 00 00 00	 mov	 eax, OFFSET __ehfuncinfo$?IsExistenceIndicatorName@CIndicatorInfoUndoRedoManagerAddInImp@@QAE_NPAUIStringList000000@@PBD@Z
  00025	e9 00 00 00 00	 jmp	 ___CxxFrameHandler3
text$x	ENDS
?IsExistenceIndicatorName@CIndicatorInfoUndoRedoManagerAddInImp@@QAE_NPAUIStringList000000@@PBD@Z ENDP ; CIndicatorInfoUndoRedoManagerAddInImp::IsExistenceIndicatorName
; Function compile flags: /Ogtp
; File D:\git\src\IBK\IBK_DRFN\ProjSrc\SrcChartEx\ChartOCX\AddInManager\ChartCommonAddIn\IndicatorInfoUndoRedoManagerAddInImp.cpp
; File D:\git\src\IBK\IBK_DRFN\ProjSrc\SrcChartEx\ChartOCX\AddInManager\Include_AddIn\I000000\_IString.h
; File D:\git\src\IBK\IBK_DRFN\ProjSrc\SrcChartEx\ChartOCX\AddInManager\ChartCommonAddIn\IndicatorInfoUndoRedoManagerAddInImp.cpp
; File D:\git\src\IBK\IBK_DRFN\ProjSrc\SrcChartEx\ChartOCX\AddInManager\Include_AddIn\I000000\_IString.h
; File D:\git\src\IBK\IBK_DRFN\ProjSrc\SrcChartEx\ChartOCX\AddInManager\ChartCommonAddIn\IndicatorInfoUndoRedoManagerAddInImp.cpp
; File D:\git\src\IBK\IBK_DRFN\ProjSrc\SrcChartEx\ChartOCX\AddInManager\Include_AddIn\I000000\_IString.h
; File D:\git\src\IBK\IBK_DRFN\ProjSrc\SrcChartEx\ChartOCX\AddInManager\ChartCommonAddIn\IndicatorInfoUndoRedoManagerAddInImp.cpp
; File D:\git\src\IBK\IBK_DRFN\ProjSrc\SrcChartEx\ChartOCX\AddInManager\Include_AddIn\I000000\_IString.h
; File D:\git\src\IBK\IBK_DRFN\ProjSrc\SrcChartEx\ChartOCX\AddInManager\ChartCommonAddIn\IndicatorInfoUndoRedoManagerAddInImp.cpp
; File D:\git\src\IBK\IBK_DRFN\ProjSrc\SrcChartEx\ChartOCX\AddInManager\Include_AddIn\I000000\_IString.h
; File D:\git\src\IBK\IBK_DRFN\ProjSrc\SrcChartEx\ChartOCX\AddInManager\ChartCommonAddIn\IndicatorInfoUndoRedoManagerAddInImp.cpp
; File D:\git\src\IBK\IBK_DRFN\ProjSrc\SrcChartEx\ChartOCX\AddInManager\Include_AddIn\I000000\_IString.h
; File D:\git\src\IBK\IBK_DRFN\ProjSrc\SrcChartEx\ChartOCX\AddInManager\ChartCommonAddIn\IndicatorInfoUndoRedoManagerAddInImp.cpp
; File D:\git\src\IBK\IBK_DRFN\ProjSrc\SrcChartEx\ChartOCX\AddInManager\Include_AddIn\I000000\_IString.h
; File D:\git\src\IBK\IBK_DRFN\ProjSrc\SrcChartEx\ChartOCX\AddInManager\ChartCommonAddIn\IndicatorInfoUndoRedoManagerAddInImp.cpp
;	COMDAT ?GetGraphNameList@CIndicatorInfoUndoRedoManagerAddInImp@@QAE_NPAUIStringList000000@@0@Z
_TEXT	SEGMENT
_szGraphName$ = -32					; size = 8
_szGraphName$2 = -24					; size = 8
_pos$ = -16						; size = 4
__$EHRec$ = -12						; size = 12
_pos$3 = 8						; size = 4
_pISourceIndiNameList$ = 8				; size = 4
_targetIndiNameList$ = 12				; size = 4
?GetGraphNameList@CIndicatorInfoUndoRedoManagerAddInImp@@QAE_NPAUIStringList000000@@0@Z PROC ; CIndicatorInfoUndoRedoManagerAddInImp::GetGraphNameList, COMDAT
; _this$ = ecx

; 764  : {

  00000	55		 push	 ebp
  00001	8b ec		 mov	 ebp, esp
  00003	6a ff		 push	 -1
  00005	68 00 00 00 00	 push	 __ehhandler$?GetGraphNameList@CIndicatorInfoUndoRedoManagerAddInImp@@QAE_NPAUIStringList000000@@0@Z
  0000a	64 a1 00 00 00
	00		 mov	 eax, DWORD PTR fs:0
  00010	50		 push	 eax
  00011	83 ec 14	 sub	 esp, 20			; 00000014H
  00014	53		 push	 ebx
  00015	56		 push	 esi
  00016	57		 push	 edi
  00017	a1 00 00 00 00	 mov	 eax, DWORD PTR ___security_cookie
  0001c	33 c5		 xor	 eax, ebp
  0001e	50		 push	 eax
  0001f	8d 45 f4	 lea	 eax, DWORD PTR __$EHRec$[ebp]
  00022	64 a3 00 00 00
	00		 mov	 DWORD PTR fs:0, eax

; 765  : 	if( !pISourceIndiNameList) return false;

  00028	8b 5d 08	 mov	 ebx, DWORD PTR _pISourceIndiNameList$[ebp]
  0002b	85 db		 test	 ebx, ebx
  0002d	0f 84 55 01 00
	00		 je	 $LN50@GetGraphNa

; 766  : 	if( pISourceIndiNameList->GetCount() <= 0) return false;

  00033	8b 03		 mov	 eax, DWORD PTR [ebx]
  00035	8b cb		 mov	 ecx, ebx
  00037	ff 50 10	 call	 DWORD PTR [eax+16]
  0003a	85 c0		 test	 eax, eax
  0003c	0f 8e 46 01 00
	00		 jle	 $LN50@GetGraphNa
; File D:\git\src\IBK\IBK_DRFN\ProjSrc\SrcChartEx\ChartOCX\AddInManager\Include_AddIn\I000000\_IString.h

; 39   : 		m_pIStrData = p_pIString;	// Do not AddRef(). Because It must be Return Value.

  00042	c7 45 e4 00 00
	00 00		 mov	 DWORD PTR _szGraphName$[ebp+4], 0

; 40   : 		if( m_pIStrData) m_szData = m_pIStrData->GetData();
; 41   : 		else m_szData = NULL;

  00049	c7 45 e0 00 00
	00 00		 mov	 DWORD PTR _szGraphName$[ebp], 0
; File D:\git\src\IBK\IBK_DRFN\ProjSrc\SrcChartEx\ChartOCX\AddInManager\ChartCommonAddIn\IndicatorInfoUndoRedoManagerAddInImp.cpp

; 769  : 	POSITION pos = pISourceIndiNameList->GetHeadPosition();

  00050	8b 03		 mov	 eax, DWORD PTR [ebx]
  00052	8b cb		 mov	 ecx, ebx
  00054	c7 45 fc 00 00
	00 00		 mov	 DWORD PTR __$EHRec$[ebp+8], 0
  0005b	ff 50 34	 call	 DWORD PTR [eax+52]

; 770  : 	while( pos != NULL )

  0005e	8b 75 0c	 mov	 esi, DWORD PTR _targetIndiNameList$[ebp]
  00061	89 45 f0	 mov	 DWORD PTR _pos$[ebp], eax
  00064	85 c0		 test	 eax, eax
  00066	0f 84 c1 00 00
	00		 je	 $LN3@GetGraphNa
  0006c	0f 1f 40 00	 npad	 4
$LL2@GetGraphNa:

; 771  : 	{
; 772  : 		pISourceIndiNameList->GetNext( pos, szGraphName);

  00070	8b 03		 mov	 eax, DWORD PTR [ebx]
  00072	8d 4d e0	 lea	 ecx, DWORD PTR _szGraphName$[ebp]
  00075	51		 push	 ecx
  00076	8d 4d f0	 lea	 ecx, DWORD PTR _pos$[ebp]
  00079	51		 push	 ecx
  0007a	8b cb		 mov	 ecx, ebx
  0007c	ff 50 3c	 call	 DWORD PTR [eax+60]
; File D:\git\src\IBK\IBK_DRFN\ProjSrc\SrcChartEx\ChartOCX\AddInManager\Include_AddIn\I000000\_IString.h

; 57   : 		if( !m_szData) return TRUE;

  0007f	8b 7d e0	 mov	 edi, DWORD PTR _szGraphName$[ebp]
  00082	85 ff		 test	 edi, edi
  00084	0f 84 99 00 00
	00		 je	 $LN7@GetGraphNa
; File D:\git\src\IBK\IBK_DRFN\ProjSrc\SrcChartEx\ChartOCX\AddInManager\ChartCommonAddIn\IndicatorInfoUndoRedoManagerAddInImp.cpp

; 773  : 		if(szGraphName.IsEmpty())

  0008a	80 3f 00	 cmp	 BYTE PTR [edi], 0
  0008d	0f 84 90 00 00
	00		 je	 $LN7@GetGraphNa
; File D:\git\src\IBK\IBK_DRFN\ProjSrc\SrcChartEx\ChartOCX\AddInManager\Include_AddIn\I000000\_IString.h

; 39   : 		m_pIStrData = p_pIString;	// Do not AddRef(). Because It must be Return Value.

  00093	c7 45 ec 00 00
	00 00		 mov	 DWORD PTR _szGraphName$2[ebp+4], 0

; 40   : 		if( m_pIStrData) m_szData = m_pIStrData->GetData();
; 41   : 		else m_szData = NULL;

  0009a	c7 45 e8 00 00
	00 00		 mov	 DWORD PTR _szGraphName$2[ebp], 0
; File D:\git\src\IBK\IBK_DRFN\ProjSrc\SrcChartEx\ChartOCX\AddInManager\ChartCommonAddIn\IndicatorInfoUndoRedoManagerAddInImp.cpp

; 798  : 	POSITION pos = pIndicatorNameList->GetHeadPosition();

  000a1	8b 06		 mov	 eax, DWORD PTR [esi]
  000a3	8b ce		 mov	 ecx, esi
  000a5	c6 45 fc 01	 mov	 BYTE PTR __$EHRec$[ebp+8], 1
  000a9	ff 50 34	 call	 DWORD PTR [eax+52]
  000ac	89 45 08	 mov	 DWORD PTR _pos$3[ebp], eax

; 799  : 	while( pos != NULL )

  000af	85 c0		 test	 eax, eax
  000b1	74 43		 je	 SHORT $LN19@GetGraphNa
$LL18@GetGraphNa:

; 800  : 	{
; 801  : 		pIndicatorNameList->GetNext(pos, szGraphName);

  000b3	8b 06		 mov	 eax, DWORD PTR [esi]
  000b5	8d 4d e8	 lea	 ecx, DWORD PTR _szGraphName$2[ebp]
  000b8	51		 push	 ecx
  000b9	8d 4d 08	 lea	 ecx, DWORD PTR _pos$3[ebp]
  000bc	51		 push	 ecx
  000bd	8b ce		 mov	 ecx, esi
  000bf	ff 50 3c	 call	 DWORD PTR [eax+60]

; 802  : 		if( !strcmp( szGraphName, p_szGraphName) )

  000c2	8b 4d e8	 mov	 ecx, DWORD PTR _szGraphName$2[ebp]
  000c5	8b c7		 mov	 eax, edi
$LL51@GetGraphNa:
  000c7	8a 11		 mov	 dl, BYTE PTR [ecx]
  000c9	3a 10		 cmp	 dl, BYTE PTR [eax]
  000cb	75 1a		 jne	 SHORT $LN52@GetGraphNa
  000cd	84 d2		 test	 dl, dl
  000cf	74 12		 je	 SHORT $LN53@GetGraphNa
  000d1	8a 51 01	 mov	 dl, BYTE PTR [ecx+1]
  000d4	3a 50 01	 cmp	 dl, BYTE PTR [eax+1]
  000d7	75 0e		 jne	 SHORT $LN52@GetGraphNa
  000d9	83 c1 02	 add	 ecx, 2
  000dc	83 c0 02	 add	 eax, 2
  000df	84 d2		 test	 dl, dl
  000e1	75 e4		 jne	 SHORT $LL51@GetGraphNa
$LN53@GetGraphNa:
  000e3	33 c0		 xor	 eax, eax
  000e5	eb 05		 jmp	 SHORT $LN54@GetGraphNa
$LN52@GetGraphNa:
  000e7	1b c0		 sbb	 eax, eax
  000e9	83 c8 01	 or	 eax, 1
$LN54@GetGraphNa:
  000ec	85 c0		 test	 eax, eax
  000ee	74 73		 je	 SHORT $LN44@GetGraphNa

; 799  : 	while( pos != NULL )

  000f0	83 7d 08 00	 cmp	 DWORD PTR _pos$3[ebp], 0
  000f4	75 bd		 jne	 SHORT $LL18@GetGraphNa
$LN19@GetGraphNa:
; File D:\git\src\IBK\IBK_DRFN\ProjSrc\SrcChartEx\ChartOCX\AddInManager\Include_AddIn\I000000\_IString.h

; 45   : 		if( m_pIStrData)

  000f6	8b 4d ec	 mov	 ecx, DWORD PTR _szGraphName$2[ebp+4]
  000f9	c6 45 fc 03	 mov	 BYTE PTR __$EHRec$[ebp+8], 3
  000fd	85 c9		 test	 ecx, ecx
  000ff	74 14		 je	 SHORT $LN34@GetGraphNa

; 46   : 		{
; 47   : 			m_pIStrData->Release();

  00101	8b 01		 mov	 eax, DWORD PTR [ecx]
  00103	51		 push	 ecx
  00104	ff 50 08	 call	 DWORD PTR [eax+8]

; 48   : 			m_pIStrData = NULL;

  00107	c7 45 ec 00 00
	00 00		 mov	 DWORD PTR _szGraphName$2[ebp+4], 0

; 49   : 			m_szData = NULL;

  0010e	c7 45 e8 00 00
	00 00		 mov	 DWORD PTR _szGraphName$2[ebp], 0
$LN34@GetGraphNa:
; File D:\git\src\IBK\IBK_DRFN\ProjSrc\SrcChartEx\ChartOCX\AddInManager\ChartCommonAddIn\IndicatorInfoUndoRedoManagerAddInImp.cpp

; 777  : 			targetIndiNameList->AddTail(szGraphName);

  00115	8b 06		 mov	 eax, DWORD PTR [esi]
  00117	8b ce		 mov	 ecx, esi
  00119	ff 75 e0	 push	 DWORD PTR _szGraphName$[ebp]
; File D:\git\src\IBK\IBK_DRFN\ProjSrc\SrcChartEx\ChartOCX\AddInManager\Include_AddIn\I000000\_IString.h

; 51   : 	}

  0011c	c6 45 fc 00	 mov	 BYTE PTR __$EHRec$[ebp+8], 0
; File D:\git\src\IBK\IBK_DRFN\ProjSrc\SrcChartEx\ChartOCX\AddInManager\ChartCommonAddIn\IndicatorInfoUndoRedoManagerAddInImp.cpp

; 777  : 			targetIndiNameList->AddTail(szGraphName);

  00120	ff 50 2c	 call	 DWORD PTR [eax+44]
$LN7@GetGraphNa:

; 770  : 	while( pos != NULL )

  00123	83 7d f0 00	 cmp	 DWORD PTR _pos$[ebp], 0
  00127	0f 85 43 ff ff
	ff		 jne	 $LL2@GetGraphNa
$LN3@GetGraphNa:

; 780  : 	return (targetIndiNameList->GetCount() > 0);

  0012d	8b 06		 mov	 eax, DWORD PTR [esi]
  0012f	8b ce		 mov	 ecx, esi
  00131	ff 50 10	 call	 DWORD PTR [eax+16]
  00134	85 c0		 test	 eax, eax
  00136	0f 9f c3	 setg	 bl
; File D:\git\src\IBK\IBK_DRFN\ProjSrc\SrcChartEx\ChartOCX\AddInManager\Include_AddIn\I000000\_IString.h

; 45   : 		if( m_pIStrData)

  00139	8b 55 e4	 mov	 edx, DWORD PTR _szGraphName$[ebp+4]
  0013c	c7 45 fc 04 00
	00 00		 mov	 DWORD PTR __$EHRec$[ebp+8], 4
  00143	85 d2		 test	 edx, edx
  00145	74 06		 je	 SHORT $LN38@GetGraphNa

; 46   : 		{
; 47   : 			m_pIStrData->Release();

  00147	8b 0a		 mov	 ecx, DWORD PTR [edx]
  00149	52		 push	 edx
  0014a	ff 51 08	 call	 DWORD PTR [ecx+8]
$LN38@GetGraphNa:
; File D:\git\src\IBK\IBK_DRFN\ProjSrc\SrcChartEx\ChartOCX\AddInManager\ChartCommonAddIn\IndicatorInfoUndoRedoManagerAddInImp.cpp

; 780  : 	return (targetIndiNameList->GetCount() > 0);

  0014d	8a c3		 mov	 al, bl

; 781  : }

  0014f	8b 4d f4	 mov	 ecx, DWORD PTR __$EHRec$[ebp]
  00152	64 89 0d 00 00
	00 00		 mov	 DWORD PTR fs:0, ecx
  00159	59		 pop	 ecx
  0015a	5f		 pop	 edi
  0015b	5e		 pop	 esi
  0015c	5b		 pop	 ebx
  0015d	8b e5		 mov	 esp, ebp
  0015f	5d		 pop	 ebp
  00160	c2 08 00	 ret	 8
$LN44@GetGraphNa:
; File D:\git\src\IBK\IBK_DRFN\ProjSrc\SrcChartEx\ChartOCX\AddInManager\Include_AddIn\I000000\_IString.h

; 45   : 		if( m_pIStrData)

  00163	8b 4d ec	 mov	 ecx, DWORD PTR _szGraphName$2[ebp+4]
  00166	c6 45 fc 02	 mov	 BYTE PTR __$EHRec$[ebp+8], 2
  0016a	85 c9		 test	 ecx, ecx
  0016c	74 14		 je	 SHORT $LN30@GetGraphNa

; 46   : 		{
; 47   : 			m_pIStrData->Release();

  0016e	8b 01		 mov	 eax, DWORD PTR [ecx]
  00170	51		 push	 ecx
  00171	ff 50 08	 call	 DWORD PTR [eax+8]

; 48   : 			m_pIStrData = NULL;

  00174	c7 45 ec 00 00
	00 00		 mov	 DWORD PTR _szGraphName$2[ebp+4], 0

; 49   : 			m_szData = NULL;

  0017b	c7 45 e8 00 00
	00 00		 mov	 DWORD PTR _szGraphName$2[ebp], 0
$LN30@GetGraphNa:

; 51   : 	}

  00182	c6 45 fc 00	 mov	 BYTE PTR __$EHRec$[ebp+8], 0
; File D:\git\src\IBK\IBK_DRFN\ProjSrc\SrcChartEx\ChartOCX\AddInManager\ChartCommonAddIn\IndicatorInfoUndoRedoManagerAddInImp.cpp

; 803  : 			return true;

  00186	eb 9b		 jmp	 SHORT $LN7@GetGraphNa
$LN50@GetGraphNa:

; 766  : 	if( pISourceIndiNameList->GetCount() <= 0) return false;

  00188	32 c0		 xor	 al, al

; 781  : }

  0018a	8b 4d f4	 mov	 ecx, DWORD PTR __$EHRec$[ebp]
  0018d	64 89 0d 00 00
	00 00		 mov	 DWORD PTR fs:0, ecx
  00194	59		 pop	 ecx
  00195	5f		 pop	 edi
  00196	5e		 pop	 esi
  00197	5b		 pop	 ebx
  00198	8b e5		 mov	 esp, ebp
  0019a	5d		 pop	 ebp
  0019b	c2 08 00	 ret	 8
_TEXT	ENDS
;	COMDAT text$x
text$x	SEGMENT
__unwindfunclet$?GetGraphNameList@CIndicatorInfoUndoRedoManagerAddInImp@@QAE_NPAUIStringList000000@@0@Z$0:
  00000	8d 4d e0	 lea	 ecx, DWORD PTR _szGraphName$[ebp]
  00003	e9 00 00 00 00	 jmp	 ??1ILPCSTR000000@@QAE@XZ ; ILPCSTR000000::~ILPCSTR000000
__unwindfunclet$?GetGraphNameList@CIndicatorInfoUndoRedoManagerAddInImp@@QAE_NPAUIStringList000000@@0@Z$1:
  00008	8d 4d e8	 lea	 ecx, DWORD PTR _szGraphName$2[ebp]
  0000b	e9 00 00 00 00	 jmp	 ??1ILPCSTR000000@@QAE@XZ ; ILPCSTR000000::~ILPCSTR000000
  00010	cc		 int	 3
  00011	cc		 int	 3
  00012	cc		 int	 3
  00013	cc		 int	 3
  00014	cc		 int	 3
__ehhandler$?GetGraphNameList@CIndicatorInfoUndoRedoManagerAddInImp@@QAE_NPAUIStringList000000@@0@Z:
  00015	90		 npad	 1
  00016	90		 npad	 1
  00017	8b 54 24 08	 mov	 edx, DWORD PTR [esp+8]
  0001b	8d 42 0c	 lea	 eax, DWORD PTR [edx+12]
  0001e	8b 4a dc	 mov	 ecx, DWORD PTR [edx-36]
  00021	33 c8		 xor	 ecx, eax
  00023	e8 00 00 00 00	 call	 @__security_check_cookie@4
  00028	b8 00 00 00 00	 mov	 eax, OFFSET __ehfuncinfo$?GetGraphNameList@CIndicatorInfoUndoRedoManagerAddInImp@@QAE_NPAUIStringList000000@@0@Z
  0002d	e9 00 00 00 00	 jmp	 ___CxxFrameHandler3
text$x	ENDS
?GetGraphNameList@CIndicatorInfoUndoRedoManagerAddInImp@@QAE_NPAUIStringList000000@@0@Z ENDP ; CIndicatorInfoUndoRedoManagerAddInImp::GetGraphNameList
; Function compile flags: /Ogtp
; File D:\git\src\IBK\IBK_DRFN\ProjSrc\SrcChartEx\ChartOCX\AddInManager\ChartCommonAddIn\IndicatorInfoUndoRedoManagerAddInImp.cpp
;	COMDAT ?GetGraphNameList@CIndicatorInfoUndoRedoManagerAddInImp@@QAE_N_NPAUIStringList000000@@@Z
_TEXT	SEGMENT
_pIUserIndiNameList$2$ = 8				; size = 4
_pIUserIndiNameList$1$ = 8				; size = 4
_bIsOnlyViewData$ = 8					; size = 1
_pIndicatorNameList$ = 12				; size = 4
?GetGraphNameList@CIndicatorInfoUndoRedoManagerAddInImp@@QAE_N_NPAUIStringList000000@@@Z PROC ; CIndicatorInfoUndoRedoManagerAddInImp::GetGraphNameList, COMDAT
; _this$ = ecx

; 723  : {

  00000	55		 push	 ebp
  00001	8b ec		 mov	 ebp, esp
  00003	56		 push	 esi
  00004	8b f1		 mov	 esi, ecx

; 724  : 	if(m_pIGraphInfoManager == NULL)

  00006	83 7e 28 00	 cmp	 DWORD PTR [esi+40], 0
  0000a	75 07		 jne	 SHORT $LN2@GetGraphNa

; 725  : 		return false;

  0000c	32 c0		 xor	 al, al
  0000e	5e		 pop	 esi

; 753  : }

  0000f	5d		 pop	 ebp
  00010	c2 08 00	 ret	 8
$LN2@GetGraphNa:
  00013	53		 push	 ebx
  00014	57		 push	 edi

; 726  : 
; 727  : 	pIndicatorNameList->RemoveAll();

  00015	8b 7d 0c	 mov	 edi, DWORD PTR _pIndicatorNameList$[ebp]
  00018	8b cf		 mov	 ecx, edi
  0001a	8b 07		 mov	 eax, DWORD PTR [edi]
  0001c	ff 50 30	 call	 DWORD PTR [eax+48]

; 728  : 	
; 729  : 	//   
; 730  : 	bool bResult = GetGraphNameList(m_pIndicatorNameList, pIndicatorNameList);

  0001f	57		 push	 edi
  00020	ff 76 78	 push	 DWORD PTR [esi+120]
  00023	8b ce		 mov	 ecx, esi
  00025	e8 00 00 00 00	 call	 ?GetGraphNameList@CIndicatorInfoUndoRedoManagerAddInImp@@QAE_NPAUIStringList000000@@0@Z ; CIndicatorInfoUndoRedoManagerAddInImp::GetGraphNameList

; 731  : 	if(bIsOnlyViewData)

  0002a	80 7d 08 00	 cmp	 BYTE PTR _bIsOnlyViewData$[ebp], 0
  0002e	8a d8		 mov	 bl, al
  00030	75 70		 jne	 SHORT $LN11@GetGraphNa

; 732  : 		return bResult;
; 733  : 
; 734  : 	// userList   
; 735  : 	IStringList *pIUserIndiNameList = m_pIGraphInfoManager->GetIndicatorNameStringList( IGraphInfoManager::IEILT_USER, IGraphInfoManager::IEIIT_GENERAL);

  00032	8b 4e 28	 mov	 ecx, DWORD PTR [esi+40]
  00035	6a 00		 push	 0
  00037	6a 03		 push	 3
  00039	8b 01		 mov	 eax, DWORD PTR [ecx]
  0003b	ff 50 34	 call	 DWORD PTR [eax+52]
  0003e	8b c8		 mov	 ecx, eax
  00040	89 4d 08	 mov	 DWORD PTR _pIUserIndiNameList$1$[ebp], ecx

; 736  : 	if( pIUserIndiNameList)

  00043	85 c9		 test	 ecx, ecx
  00045	74 19		 je	 SHORT $LN5@GetGraphNa

; 737  : 	{
; 738  : 		if( GetGraphNameList(pIUserIndiNameList, pIndicatorNameList))

  00047	57		 push	 edi
  00048	51		 push	 ecx
  00049	8b ce		 mov	 ecx, esi
  0004b	e8 00 00 00 00	 call	 ?GetGraphNameList@CIndicatorInfoUndoRedoManagerAddInImp@@QAE_NPAUIStringList000000@@0@Z ; CIndicatorInfoUndoRedoManagerAddInImp::GetGraphNameList
  00050	8b 4d 08	 mov	 ecx, DWORD PTR _pIUserIndiNameList$1$[ebp]
  00053	84 c0		 test	 al, al
  00055	0f b6 db	 movzx	 ebx, bl
  00058	b8 01 00 00 00	 mov	 eax, 1
  0005d	0f 45 d8	 cmovne	 ebx, eax
$LN5@GetGraphNa:

; 739  : 			bResult = true;
; 740  : 	}
; 741  : 
; 742  : 	pIUserIndiNameList->RemoveAll();

  00060	8b 01		 mov	 eax, DWORD PTR [ecx]
  00062	ff 50 30	 call	 DWORD PTR [eax+48]

; 743  : 	pIUserIndiNameList->Release();

  00065	8b 4d 08	 mov	 ecx, DWORD PTR _pIUserIndiNameList$1$[ebp]
  00068	51		 push	 ecx
  00069	8b 01		 mov	 eax, DWORD PTR [ecx]
  0006b	ff 50 08	 call	 DWORD PTR [eax+8]

; 744  : 	pIUserIndiNameList = m_pIGraphInfoManager->GetIndicatorNameStringList( IGraphInfoManager::IEILT_USER, IGraphInfoManager::IEIIT_SPECIAL);

  0006e	8b 4e 28	 mov	 ecx, DWORD PTR [esi+40]
  00071	6a 01		 push	 1
  00073	6a 03		 push	 3
  00075	8b 01		 mov	 eax, DWORD PTR [ecx]
  00077	ff 50 34	 call	 DWORD PTR [eax+52]
  0007a	8b c8		 mov	 ecx, eax
  0007c	89 4d 08	 mov	 DWORD PTR _pIUserIndiNameList$2$[ebp], ecx

; 745  : 	if( pIUserIndiNameList )

  0007f	85 c9		 test	 ecx, ecx
  00081	74 19		 je	 SHORT $LN7@GetGraphNa

; 746  : 	{
; 747  : 		if(GetGraphNameList(pIUserIndiNameList, pIndicatorNameList))

  00083	57		 push	 edi
  00084	51		 push	 ecx
  00085	8b ce		 mov	 ecx, esi
  00087	e8 00 00 00 00	 call	 ?GetGraphNameList@CIndicatorInfoUndoRedoManagerAddInImp@@QAE_NPAUIStringList000000@@0@Z ; CIndicatorInfoUndoRedoManagerAddInImp::GetGraphNameList
  0008c	8b 4d 08	 mov	 ecx, DWORD PTR _pIUserIndiNameList$2$[ebp]
  0008f	84 c0		 test	 al, al
  00091	0f b6 db	 movzx	 ebx, bl
  00094	b8 01 00 00 00	 mov	 eax, 1
  00099	0f 45 d8	 cmovne	 ebx, eax
$LN7@GetGraphNa:

; 748  : 			bResult = true;
; 749  : 	}
; 750  : 	pIUserIndiNameList->Release();

  0009c	8b 01		 mov	 eax, DWORD PTR [ecx]
  0009e	51		 push	 ecx
  0009f	ff 50 08	 call	 DWORD PTR [eax+8]
$LN11@GetGraphNa:

; 751  : 
; 752  : 	return bResult;

  000a2	5f		 pop	 edi
  000a3	8a c3		 mov	 al, bl
  000a5	5b		 pop	 ebx
  000a6	5e		 pop	 esi

; 753  : }

  000a7	5d		 pop	 ebp
  000a8	c2 08 00	 ret	 8
?GetGraphNameList@CIndicatorInfoUndoRedoManagerAddInImp@@QAE_N_NPAUIStringList000000@@@Z ENDP ; CIndicatorInfoUndoRedoManagerAddInImp::GetGraphNameList
_TEXT	ENDS
; Function compile flags: /Ogtp
; File D:\git\src\IBK\IBK_DRFN\ProjSrc\SrcChartEx\ChartOCX\AddInManager\ChartCommonAddIn\IndicatorInfoUndoRedoManagerAddInImp.cpp
; File C:\Program Files (x86)\Microsoft Visual Studio\2019\Community\VC\Tools\MSVC\14.29.30133\atlmfc\include\afxtempl.h
; File D:\git\src\IBK\IBK_DRFN\ProjSrc\SrcChartEx\ChartOCX\AddInManager\ChartCommonAddIn\IndicatorInfoUndoRedoManagerAddInImp.cpp
; File D:\git\src\IBK\IBK_DRFN\ProjSrc\SrcChartEx\ChartOCX\AddInManager\Include_AddIn\I000000\_IString.h
; File D:\git\src\IBK\IBK_DRFN\ProjSrc\SrcChartEx\ChartOCX\AddInManager\ChartCommonAddIn\IndicatorInfoUndoRedoManagerAddInImp.cpp
; File D:\git\src\IBK\IBK_DRFN\ProjSrc\SrcChartEx\ChartOCX\AddInManager\Include_AddIn\I000000\_IString.h
; File D:\git\src\IBK\IBK_DRFN\ProjSrc\SrcChartEx\ChartOCX\AddInManager\ChartCommonAddIn\IndicatorInfoUndoRedoManagerAddInImp.cpp
; File D:\git\src\IBK\IBK_DRFN\ProjSrc\SrcChartEx\ChartOCX\AddInManager\Include_AddIn\I000000\_IString.h
; File D:\git\src\IBK\IBK_DRFN\ProjSrc\SrcChartEx\ChartOCX\AddInManager\ChartCommonAddIn\IndicatorInfoUndoRedoManagerAddInImp.cpp
; File C:\Program Files (x86)\Microsoft Visual Studio\2019\Community\VC\Tools\MSVC\14.29.30133\atlmfc\include\afxtempl.h
; File D:\git\src\IBK\IBK_DRFN\ProjSrc\SrcChartEx\ChartOCX\AddInManager\ChartCommonAddIn\IndicatorInfoUndoRedoManagerAddInImp.cpp
; File C:\Program Files (x86)\Microsoft Visual Studio\2019\Community\VC\Tools\MSVC\14.29.30133\atlmfc\include\cstringt.h
; File D:\git\src\IBK\IBK_DRFN\ProjSrc\SrcChartEx\ChartOCX\AddInManager\ChartCommonAddIn\IndicatorInfoUndoRedoManagerAddInImp.cpp
; File C:\Program Files (x86)\Microsoft Visual Studio\2019\Community\VC\Tools\MSVC\14.29.30133\atlmfc\include\cstringt.h
; File D:\git\src\IBK\IBK_DRFN\ProjSrc\SrcChartEx\ChartOCX\AddInManager\ChartCommonAddIn\IndicatorInfoUndoRedoManagerAddInImp.cpp
; File C:\Program Files (x86)\Microsoft Visual Studio\2019\Community\VC\Tools\MSVC\14.29.30133\atlmfc\include\cstringt.h
; File D:\git\src\IBK\IBK_DRFN\ProjSrc\SrcChartEx\ChartOCX\AddInManager\ChartCommonAddIn\IndicatorInfoUndoRedoManagerAddInImp.cpp
; File D:\git\src\IBK\IBK_DRFN\ProjSrc\SrcChartEx\ChartOCX\AddInManager\Include_AddIn\I000000\_IString.h
; File D:\git\src\IBK\IBK_DRFN\ProjSrc\SrcChartEx\ChartOCX\AddInManager\ChartCommonAddIn\IndicatorInfoUndoRedoManagerAddInImp.cpp
; File D:\git\src\IBK\IBK_DRFN\ProjSrc\SrcChartEx\ChartOCX\AddInManager\Include_AddIn\I000000\_IString.h
; File D:\git\src\IBK\IBK_DRFN\ProjSrc\SrcChartEx\ChartOCX\AddInManager\ChartCommonAddIn\IndicatorInfoUndoRedoManagerAddInImp.cpp
; File D:\git\src\IBK\IBK_DRFN\ProjSrc\SrcChartEx\ChartOCX\AddInManager\Include_AddIn\I000000\_IString.h
; File D:\git\src\IBK\IBK_DRFN\ProjSrc\SrcChartEx\ChartOCX\AddInManager\ChartCommonAddIn\IndicatorInfoUndoRedoManagerAddInImp.cpp
; File D:\git\src\IBK\IBK_DRFN\ProjSrc\SrcChartEx\ChartOCX\AddInManager\Include_AddIn\I000000\_IString.h
; File D:\git\src\IBK\IBK_DRFN\ProjSrc\SrcChartEx\ChartOCX\AddInManager\ChartCommonAddIn\IndicatorInfoUndoRedoManagerAddInImp.cpp
; File D:\git\src\IBK\IBK_DRFN\ProjSrc\SrcChartEx\ChartOCX\AddInManager\Include_AddIn\I000000\_IString.h
; File D:\git\src\IBK\IBK_DRFN\ProjSrc\SrcChartEx\ChartOCX\AddInManager\ChartCommonAddIn\IndicatorInfoUndoRedoManagerAddInImp.cpp
;	COMDAT ?BackUpIndicatorInfo@CIndicatorInfoUndoRedoManagerAddInImp@@QAEPAVCIndicatorInfoBackUp@@PAUIStringList000000@@H@Z
_TEXT	SEGMENT
_szGraphName$2 = -56					; size = 8
_szIndicatorName$3 = -48				; size = 8
$T4 = -40						; size = 4
_pINameList$1$ = -36					; size = 4
$T5 = -32						; size = 4
_pos$ = -28						; size = 4
_this$1$ = -24						; size = 4
_pOrgIndicatorInfo$1$ = -20				; size = 4
$T6 = -16						; size = 4
__$EHRec$ = -12						; size = 12
_szIndicatorNameList$ = 8				; size = 4
_nIndicatorCount$ = 12					; size = 4
?BackUpIndicatorInfo@CIndicatorInfoUndoRedoManagerAddInImp@@QAEPAVCIndicatorInfoBackUp@@PAUIStringList000000@@H@Z PROC ; CIndicatorInfoUndoRedoManagerAddInImp::BackUpIndicatorInfo, COMDAT
; _this$ = ecx

; 644  : {

  00000	55		 push	 ebp
  00001	8b ec		 mov	 ebp, esp
  00003	6a ff		 push	 -1
  00005	68 00 00 00 00	 push	 __ehhandler$?BackUpIndicatorInfo@CIndicatorInfoUndoRedoManagerAddInImp@@QAEPAVCIndicatorInfoBackUp@@PAUIStringList000000@@H@Z
  0000a	64 a1 00 00 00
	00		 mov	 eax, DWORD PTR fs:0
  00010	50		 push	 eax
  00011	83 ec 2c	 sub	 esp, 44			; 0000002cH
  00014	53		 push	 ebx
  00015	56		 push	 esi
  00016	57		 push	 edi
  00017	a1 00 00 00 00	 mov	 eax, DWORD PTR ___security_cookie
  0001c	33 c5		 xor	 eax, ebp
  0001e	50		 push	 eax
  0001f	8d 45 f4	 lea	 eax, DWORD PTR __$EHRec$[ebp]
  00022	64 a3 00 00 00
	00		 mov	 DWORD PTR fs:0, eax
  00028	8b f9		 mov	 edi, ecx
  0002a	89 7d e8	 mov	 DWORD PTR _this$1$[ebp], edi

; 645  : 	// IndicatorInfo  GraphInfo  .
; 646  : 	m_pIChartManager->ChangeAllGraphInfoFromGraphData();

  0002d	8b 4f 24	 mov	 ecx, DWORD PTR [edi+36]
  00030	8b 01		 mov	 eax, DWORD PTR [ecx]
  00032	ff 90 98 00 00
	00		 call	 DWORD PTR [eax+152]

; 647  : 
; 648  : 	// IndicatorInfo BackUp .
; 649  : 	CIndicatorInfoBackUp *pIndicatorInfoBackUp = NULL;
; 650  : 	pIndicatorInfoBackUp = new CIndicatorInfoBackUp;

  00038	6a 2c		 push	 44			; 0000002cH
  0003a	e8 00 00 00 00	 call	 ??2@YAPAXI@Z		; operator new
  0003f	8b d8		 mov	 ebx, eax
  00041	83 c4 04	 add	 esp, 4
  00044	89 5d f0	 mov	 DWORD PTR $T6[ebp], ebx
  00047	85 db		 test	 ebx, ebx
  00049	74 51		 je	 SHORT $LN6@BackUpIndi

; 361  : {

  0004b	c7 03 00 00 00
	00		 mov	 DWORD PTR [ebx], OFFSET ??_7CIndicatorInfoBackUp@@6B@

; 304  : {

  00051	8d 4b 24	 lea	 ecx, DWORD PTR [ebx+36]

; 89   : {

  00054	c7 43 04 00 00
	00 00		 mov	 DWORD PTR [ebx+4], OFFSET ??_7CIndiInfoDataList@@6B@
; File C:\Program Files (x86)\Microsoft Visual Studio\2019\Community\VC\Tools\MSVC\14.29.30133\atlmfc\include\afxtempl.h

; 851  : {

  0005b	c7 43 08 00 00
	00 00		 mov	 DWORD PTR [ebx+8], OFFSET ??_7?$CList@PAVCIndiInfoData@@PAV1@@@6B@

; 852  : 	ASSERT(nBlockSize > 0);
; 853  : 
; 854  : 	m_nCount = 0;

  00062	c7 43 14 00 00
	00 00		 mov	 DWORD PTR [ebx+20], 0

; 855  : 	m_pNodeHead = m_pNodeTail = m_pNodeFree = NULL;

  00069	c7 43 18 00 00
	00 00		 mov	 DWORD PTR [ebx+24], 0
  00070	c7 43 10 00 00
	00 00		 mov	 DWORD PTR [ebx+16], 0
  00077	c7 43 0c 00 00
	00 00		 mov	 DWORD PTR [ebx+12], 0

; 856  : 	m_pBlocks = NULL;

  0007e	c7 43 1c 00 00
	00 00		 mov	 DWORD PTR [ebx+28], 0

; 857  : 	m_nBlockSize = nBlockSize;

  00085	c7 43 20 0a 00
	00 00		 mov	 DWORD PTR [ebx+32], 10	; 0000000aH
; File D:\git\src\IBK\IBK_DRFN\ProjSrc\SrcChartEx\ChartOCX\AddInManager\ChartCommonAddIn\IndicatorInfoUndoRedoManagerAddInImp.cpp

; 304  : {

  0008c	ff 15 00 00 00
	00		 call	 DWORD PTR __imp_??0?$CStringT@DV?$StrTraitMFC_DLL@DV?$ChTraitsCRT@D@ATL@@@@@ATL@@QAE@XZ

; 286  : 			return true;
; 287  : 	}
; 288  : 
; 289  : 	return false;
; 290  : }
; 291  : 
; 292  : 
; 293  : 
; 294  : 
; 295  : 
; 296  : ///////////////////////////////////////////////////////////////////////////////
; 297  : //
; 298  : // class CGraphEtcData
; 299  : //
; 300  : //////////////////////////////////////////////////////////////////////////
; 301  : CGraphEtcData::CGraphEtcData():
; 302  : 	m_bIsVertScaleLogType(false), 

  00092	66 c7 43 28 00
	00		 mov	 WORD PTR [ebx+40], 0

; 647  : 
; 648  : 	// IndicatorInfo BackUp .
; 649  : 	CIndicatorInfoBackUp *pIndicatorInfoBackUp = NULL;
; 650  : 	pIndicatorInfoBackUp = new CIndicatorInfoBackUp;

  00098	8b f3		 mov	 esi, ebx
  0009a	eb 05		 jmp	 SHORT $LN7@BackUpIndi
$LN6@BackUpIndi:
  0009c	33 f6		 xor	 esi, esi
  0009e	89 75 f0	 mov	 DWORD PTR $T6[ebp], esi
$LN7@BackUpIndi:

; 651  : 
; 652  : 	IStringList *pINameList = m_pIChartOCX->CreateObjectIStringList();

  000a1	8b 4f 0c	 mov	 ecx, DWORD PTR [edi+12]
  000a4	8b 01		 mov	 eax, DWORD PTR [ecx]
  000a6	ff 50 2c	 call	 DWORD PTR [eax+44]

; 653  : 
; 654  : 	POSITION pos = szIndicatorNameList->GetHeadPosition();

  000a9	8b 5d 08	 mov	 ebx, DWORD PTR _szIndicatorNameList$[ebp]
  000ac	8b cb		 mov	 ecx, ebx
  000ae	89 45 dc	 mov	 DWORD PTR _pINameList$1$[ebp], eax
  000b1	8b 03		 mov	 eax, DWORD PTR [ebx]
  000b3	ff 50 34	 call	 DWORD PTR [eax+52]
  000b6	89 45 e4	 mov	 DWORD PTR _pos$[ebp], eax

; 655  : 	while(pos)

  000b9	85 c0		 test	 eax, eax
  000bb	75 36		 jne	 SHORT $LN2@BackUpIndi
  000bd	8b 75 f0	 mov	 esi, DWORD PTR $T6[ebp]
$LN3@BackUpIndi:

; 666  : 	}
; 667  : 
; 668  : 	m_lstIndicatorInfoBackUpUndo.AddTail( pIndicatorInfoBackUp );

  000c0	56		 push	 esi
  000c1	8d 4f 40	 lea	 ecx, DWORD PTR [edi+64]
  000c4	e8 00 00 00 00	 call	 ?AddTail@?$CList@PAVCIndicatorInfoBackUp@@PAV1@@@QAEPAU__POSITION@@PAVCIndicatorInfoBackUp@@@Z ; CList<CIndicatorInfoBackUp *,CIndicatorInfoBackUp *>::AddTail

; 669  : 	
; 670  : 	pINameList->Release();

  000c9	8b 45 dc	 mov	 eax, DWORD PTR _pINameList$1$[ebp]
  000cc	50		 push	 eax
  000cd	8b 08		 mov	 ecx, DWORD PTR [eax]
  000cf	ff 51 08	 call	 DWORD PTR [ecx+8]

; 671  : 
; 672  : 	return pIndicatorInfoBackUp;

  000d2	8b c6		 mov	 eax, esi

; 673  : }

  000d4	8b 4d f4	 mov	 ecx, DWORD PTR __$EHRec$[ebp]
  000d7	64 89 0d 00 00
	00 00		 mov	 DWORD PTR fs:0, ecx
  000de	59		 pop	 ecx
  000df	5f		 pop	 edi
  000e0	5e		 pop	 esi
  000e1	5b		 pop	 ebx
  000e2	8b e5		 mov	 esp, ebp
  000e4	5d		 pop	 ebp
  000e5	c2 08 00	 ret	 8
  000e8	0f 1f 84 00 00
	00 00 00	 npad	 8
$LL98@BackUpIndi:

; 655  : 	while(pos)

  000f0	8b 75 f0	 mov	 esi, DWORD PTR $T6[ebp]
$LN2@BackUpIndi:
; File D:\git\src\IBK\IBK_DRFN\ProjSrc\SrcChartEx\ChartOCX\AddInManager\Include_AddIn\I000000\_IString.h

; 39   : 		m_pIStrData = p_pIString;	// Do not AddRef(). Because It must be Return Value.

  000f3	c7 45 d4 00 00
	00 00		 mov	 DWORD PTR _szIndicatorName$3[ebp+4], 0

; 41   : 		else m_szData = NULL;

  000fa	c7 45 d0 00 00
	00 00		 mov	 DWORD PTR _szIndicatorName$3[ebp], 0
; File D:\git\src\IBK\IBK_DRFN\ProjSrc\SrcChartEx\ChartOCX\AddInManager\ChartCommonAddIn\IndicatorInfoUndoRedoManagerAddInImp.cpp

; 658  : 		szIndicatorNameList->GetNext( pos, szIndicatorName);

  00101	8b 03		 mov	 eax, DWORD PTR [ebx]
  00103	8d 4d d0	 lea	 ecx, DWORD PTR _szIndicatorName$3[ebp]
  00106	51		 push	 ecx
  00107	8d 4d e4	 lea	 ecx, DWORD PTR _pos$[ebp]
  0010a	c7 45 fc 00 00
	00 00		 mov	 DWORD PTR __$EHRec$[ebp+8], 0
  00111	51		 push	 ecx
  00112	8b cb		 mov	 ecx, ebx
  00114	ff 50 3c	 call	 DWORD PTR [eax+60]

; 659  : 		
; 660  : 		IGraphInfo *pOrgIndicatorInfo = m_pIGraphInfoManager->GetGraphInfo( IGraphInfoManager::IEILT_USER, szIndicatorName);	

  00117	8b 4f 28	 mov	 ecx, DWORD PTR [edi+40]
  0011a	ff 75 d0	 push	 DWORD PTR _szIndicatorName$3[ebp]
  0011d	6a 03		 push	 3
  0011f	8b 01		 mov	 eax, DWORD PTR [ecx]
  00121	ff 50 10	 call	 DWORD PTR [eax+16]
  00124	8b c8		 mov	 ecx, eax
  00126	89 4d ec	 mov	 DWORD PTR _pOrgIndicatorInfo$1$[ebp], ecx

; 661  : 		if(pOrgIndicatorInfo == NULL)

  00129	85 c9		 test	 ecx, ecx
  0012b	75 2a		 jne	 SHORT $LN4@BackUpIndi
; File D:\git\src\IBK\IBK_DRFN\ProjSrc\SrcChartEx\ChartOCX\AddInManager\Include_AddIn\I000000\_IString.h

; 45   : 		if( m_pIStrData)

  0012d	8b 4d d4	 mov	 ecx, DWORD PTR _szIndicatorName$3[ebp+4]
  00130	c7 45 fc 01 00
	00 00		 mov	 DWORD PTR __$EHRec$[ebp+8], 1
  00137	85 c9		 test	 ecx, ecx
  00139	74 14		 je	 SHORT $LN97@BackUpIndi

; 46   : 		{
; 47   : 			m_pIStrData->Release();

  0013b	8b 01		 mov	 eax, DWORD PTR [ecx]
  0013d	51		 push	 ecx
  0013e	ff 50 08	 call	 DWORD PTR [eax+8]

; 48   : 			m_pIStrData = NULL;

  00141	c7 45 d4 00 00
	00 00		 mov	 DWORD PTR _szIndicatorName$3[ebp+4], 0

; 49   : 			m_szData = NULL;

  00148	c7 45 d0 00 00
	00 00		 mov	 DWORD PTR _szIndicatorName$3[ebp], 0
$LN97@BackUpIndi:

; 51   : 	}

  0014f	8b 75 f0	 mov	 esi, DWORD PTR $T6[ebp]
  00152	e9 fd 00 00 00	 jmp	 $LN80@BackUpIndi
$LN4@BackUpIndi:
; File D:\git\src\IBK\IBK_DRFN\ProjSrc\SrcChartEx\ChartOCX\AddInManager\ChartCommonAddIn\IndicatorInfoUndoRedoManagerAddInImp.cpp

; 104  : 	ILPCSTR szGraphName = p_pIGraphInfo->GetGraphNameString();

  00157	8b 01		 mov	 eax, DWORD PTR [ecx]
  00159	ff 90 98 00 00
	00		 call	 DWORD PTR [eax+152]
; File D:\git\src\IBK\IBK_DRFN\ProjSrc\SrcChartEx\ChartOCX\AddInManager\Include_AddIn\I000000\_IString.h

; 39   : 		m_pIStrData = p_pIString;	// Do not AddRef(). Because It must be Return Value.

  0015f	8b d8		 mov	 ebx, eax
  00161	89 5d cc	 mov	 DWORD PTR _szGraphName$2[ebp+4], ebx

; 40   : 		if( m_pIStrData) m_szData = m_pIStrData->GetData();

  00164	85 db		 test	 ebx, ebx
  00166	74 0b		 je	 SHORT $LN34@BackUpIndi
  00168	8b 03		 mov	 eax, DWORD PTR [ebx]
  0016a	8b cb		 mov	 ecx, ebx
  0016c	ff 50 10	 call	 DWORD PTR [eax+16]
  0016f	8b f8		 mov	 edi, eax
  00171	eb 02		 jmp	 SHORT $LN101@BackUpIndi
$LN34@BackUpIndi:

; 41   : 		else m_szData = NULL;

  00173	33 ff		 xor	 edi, edi
$LN101@BackUpIndi:
; File D:\git\src\IBK\IBK_DRFN\ProjSrc\SrcChartEx\ChartOCX\AddInManager\ChartCommonAddIn\IndicatorInfoUndoRedoManagerAddInImp.cpp

; 104  : 	ILPCSTR szGraphName = p_pIGraphInfo->GetGraphNameString();

  00175	89 7d c8	 mov	 DWORD PTR _szGraphName$2[ebp], edi
  00178	c6 45 fc 02	 mov	 BYTE PTR __$EHRec$[ebp+8], 2

; 275  : 	if( !p_szGraphName) return false;

  0017c	85 ff		 test	 edi, edi
  0017e	74 49		 je	 SHORT $LN94@BackUpIndi

; 276  : 	if( !*p_szGraphName) return false;

  00180	80 3f 00	 cmp	 BYTE PTR [edi], 0
  00183	74 44		 je	 SHORT $LN94@BackUpIndi

; 277  : 
; 278  : 	POSITION pos = m_indiInfoDataList.GetHeadPosition();

  00185	8b 76 0c	 mov	 esi, DWORD PTR [esi+12]

; 279  : 	while(pos != NULL)

  00188	85 f6		 test	 esi, esi
  0018a	74 3d		 je	 SHORT $LN94@BackUpIndi
  0018c	0f 1f 40 00	 npad	 4
$LL38@BackUpIndi:

; 280  : 	{
; 281  : 		CIndiInfoData* pIndiInfoData = m_indiInfoDataList.GetNext(pos);

  00190	8b 4e 08	 mov	 ecx, DWORD PTR [esi+8]
; File C:\Program Files (x86)\Microsoft Visual Studio\2019\Community\VC\Tools\MSVC\14.29.30133\atlmfc\include\afxtempl.h

; 819  : 		rPosition = (POSITION) pNode->pNext;

  00193	8b 36		 mov	 esi, DWORD PTR [esi]
; File D:\git\src\IBK\IBK_DRFN\ProjSrc\SrcChartEx\ChartOCX\AddInManager\ChartCommonAddIn\IndicatorInfoUndoRedoManagerAddInImp.cpp

; 282  : 		if(pIndiInfoData == NULL)

  00195	85 c9		 test	 ecx, ecx
  00197	74 2c		 je	 SHORT $LN43@BackUpIndi

; 285  : 		if(pIndiInfoData->GetIndicatorName() == p_szGraphName)

  00199	8d 45 e0	 lea	 eax, DWORD PTR $T5[ebp]
  0019c	50		 push	 eax
  0019d	e8 00 00 00 00	 call	 ?GetIndicatorName@CIndiInfoData@@QBE?AV?$CStringT@DV?$StrTraitMFC_DLL@DV?$ChTraitsCRT@D@ATL@@@@@ATL@@XZ ; CIndiInfoData::GetIndicatorName
; File C:\Program Files (x86)\Microsoft Visual Studio\2019\Community\VC\Tools\MSVC\14.29.30133\atlmfc\include\cstringt.h

; 2486 : 		return(str1.Compare(psz2) == 0);

  001a2	57		 push	 edi
  001a3	8b c8		 mov	 ecx, eax
; File D:\git\src\IBK\IBK_DRFN\ProjSrc\SrcChartEx\ChartOCX\AddInManager\ChartCommonAddIn\IndicatorInfoUndoRedoManagerAddInImp.cpp

; 285  : 		if(pIndiInfoData->GetIndicatorName() == p_szGraphName)

  001a5	c6 45 fc 03	 mov	 BYTE PTR __$EHRec$[ebp+8], 3
; File C:\Program Files (x86)\Microsoft Visual Studio\2019\Community\VC\Tools\MSVC\14.29.30133\atlmfc\include\cstringt.h

; 2486 : 		return(str1.Compare(psz2) == 0);

  001a9	ff 15 00 00 00
	00		 call	 DWORD PTR __imp_?Compare@?$CStringT@DV?$StrTraitMFC_DLL@DV?$ChTraitsCRT@D@ATL@@@@@ATL@@QBEHPBD@Z
; File D:\git\src\IBK\IBK_DRFN\ProjSrc\SrcChartEx\ChartOCX\AddInManager\ChartCommonAddIn\IndicatorInfoUndoRedoManagerAddInImp.cpp

; 285  : 		if(pIndiInfoData->GetIndicatorName() == p_szGraphName)

  001af	8d 4d e0	 lea	 ecx, DWORD PTR $T5[ebp]
  001b2	c6 45 fc 02	 mov	 BYTE PTR __$EHRec$[ebp+8], 2
; File C:\Program Files (x86)\Microsoft Visual Studio\2019\Community\VC\Tools\MSVC\14.29.30133\atlmfc\include\cstringt.h

; 2486 : 		return(str1.Compare(psz2) == 0);

  001b6	8b f8		 mov	 edi, eax
; File D:\git\src\IBK\IBK_DRFN\ProjSrc\SrcChartEx\ChartOCX\AddInManager\ChartCommonAddIn\IndicatorInfoUndoRedoManagerAddInImp.cpp

; 285  : 		if(pIndiInfoData->GetIndicatorName() == p_szGraphName)

  001b8	ff 15 00 00 00
	00		 call	 DWORD PTR __imp_??1?$CStringT@DV?$StrTraitMFC_DLL@DV?$ChTraitsCRT@D@ATL@@@@@ATL@@QAE@XZ
  001be	85 ff		 test	 edi, edi
  001c0	74 3e		 je	 SHORT $LN93@BackUpIndi
  001c2	8b 7d c8	 mov	 edi, DWORD PTR _szGraphName$2[ebp]
$LN43@BackUpIndi:

; 279  : 	while(pos != NULL)

  001c5	85 f6		 test	 esi, esi
  001c7	75 c7		 jne	 SHORT $LL38@BackUpIndi
$LN94@BackUpIndi:

; 35   : 	return new CIndiInfoData(p_pIGraphInfo, bTheBeginning);

  001c9	6a 0c		 push	 12			; 0000000cH
  001cb	e8 00 00 00 00	 call	 ??2@YAPAXI@Z		; operator new
  001d0	8b f0		 mov	 esi, eax
  001d2	83 c4 04	 add	 esp, 4
  001d5	89 75 d8	 mov	 DWORD PTR $T4[ebp], esi
  001d8	8b 7d ec	 mov	 edi, DWORD PTR _pOrgIndicatorInfo$1$[ebp]
  001db	c6 45 fc 05	 mov	 BYTE PTR __$EHRec$[ebp+8], 5
  001df	85 f6		 test	 esi, esi
  001e1	0f 84 83 00 00
	00		 je	 $LN70@BackUpIndi

; 18   : {

  001e7	c7 06 00 00 00
	00		 mov	 DWORD PTR [esi], OFFSET ??_7CIndiInfoData@@6B@

; 19   : 	m_pIGraphInfo = p_pIGraphInfo->CreateCopyObject();

  001ed	8b cf		 mov	 ecx, edi
  001ef	c6 46 04 01	 mov	 BYTE PTR [esi+4], 1
  001f3	8b 07		 mov	 eax, DWORD PTR [edi]
  001f5	ff 90 ac 00 00
	00		 call	 DWORD PTR [eax+172]
  001fb	89 46 08	 mov	 DWORD PTR [esi+8], eax

; 35   : 	return new CIndiInfoData(p_pIGraphInfo, bTheBeginning);

  001fe	eb 6c		 jmp	 SHORT $LN71@BackUpIndi
$LN93@BackUpIndi:
; File D:\git\src\IBK\IBK_DRFN\ProjSrc\SrcChartEx\ChartOCX\AddInManager\Include_AddIn\I000000\_IString.h

; 44   : 	{

  00200	c6 45 fc 04	 mov	 BYTE PTR __$EHRec$[ebp+8], 4

; 45   : 		if( m_pIStrData)

  00204	85 db		 test	 ebx, ebx
  00206	74 14		 je	 SHORT $LN95@BackUpIndi

; 46   : 		{
; 47   : 			m_pIStrData->Release();

  00208	8b 03		 mov	 eax, DWORD PTR [ebx]
  0020a	53		 push	 ebx
  0020b	ff 50 08	 call	 DWORD PTR [eax+8]

; 48   : 			m_pIStrData = NULL;

  0020e	c7 45 cc 00 00
	00 00		 mov	 DWORD PTR _szGraphName$2[ebp+4], 0

; 49   : 			m_szData = NULL;

  00215	c7 45 c8 00 00
	00 00		 mov	 DWORD PTR _szGraphName$2[ebp], 0
$LN95@BackUpIndi:

; 51   : 	}

  0021c	8b 75 f0	 mov	 esi, DWORD PTR $T6[ebp]
  0021f	8b 7d ec	 mov	 edi, DWORD PTR _pOrgIndicatorInfo$1$[ebp]
$LN76@BackUpIndi:
; File D:\git\src\IBK\IBK_DRFN\ProjSrc\SrcChartEx\ChartOCX\AddInManager\ChartCommonAddIn\IndicatorInfoUndoRedoManagerAddInImp.cpp

; 665  : 		pOrgIndicatorInfo->Release();

  00222	8b 07		 mov	 eax, DWORD PTR [edi]
  00224	57		 push	 edi
; File D:\git\src\IBK\IBK_DRFN\ProjSrc\SrcChartEx\ChartOCX\AddInManager\Include_AddIn\I000000\_IString.h

; 51   : 	}

  00225	c6 45 fc 00	 mov	 BYTE PTR __$EHRec$[ebp+8], 0
; File D:\git\src\IBK\IBK_DRFN\ProjSrc\SrcChartEx\ChartOCX\AddInManager\ChartCommonAddIn\IndicatorInfoUndoRedoManagerAddInImp.cpp

; 665  : 		pOrgIndicatorInfo->Release();

  00229	ff 50 08	 call	 DWORD PTR [eax+8]
; File D:\git\src\IBK\IBK_DRFN\ProjSrc\SrcChartEx\ChartOCX\AddInManager\Include_AddIn\I000000\_IString.h

; 45   : 		if( m_pIStrData)

  0022c	8b 4d d4	 mov	 ecx, DWORD PTR _szIndicatorName$3[ebp+4]
  0022f	c7 45 fc 07 00
	00 00		 mov	 DWORD PTR __$EHRec$[ebp+8], 7
  00236	85 c9		 test	 ecx, ecx
  00238	74 14		 je	 SHORT $LN99@BackUpIndi

; 46   : 		{
; 47   : 			m_pIStrData->Release();

  0023a	8b 01		 mov	 eax, DWORD PTR [ecx]
  0023c	51		 push	 ecx
  0023d	ff 50 08	 call	 DWORD PTR [eax+8]

; 48   : 			m_pIStrData = NULL;

  00240	c7 45 d4 00 00
	00 00		 mov	 DWORD PTR _szIndicatorName$3[ebp+4], 0

; 49   : 			m_szData = NULL;

  00247	c7 45 d0 00 00
	00 00		 mov	 DWORD PTR _szIndicatorName$3[ebp], 0
$LN99@BackUpIndi:

; 51   : 	}

  0024e	8b 5d 08	 mov	 ebx, DWORD PTR _szIndicatorNameList$[ebp]
  00251	8b 7d e8	 mov	 edi, DWORD PTR _this$1$[ebp]
$LN80@BackUpIndi:
; File D:\git\src\IBK\IBK_DRFN\ProjSrc\SrcChartEx\ChartOCX\AddInManager\ChartCommonAddIn\IndicatorInfoUndoRedoManagerAddInImp.cpp

; 655  : 	while(pos)

  00254	83 7d e4 00	 cmp	 DWORD PTR _pos$[ebp], 0
; File D:\git\src\IBK\IBK_DRFN\ProjSrc\SrcChartEx\ChartOCX\AddInManager\Include_AddIn\I000000\_IString.h

; 51   : 	}

  00258	c7 45 fc ff ff
	ff ff		 mov	 DWORD PTR __$EHRec$[ebp+8], -1
; File D:\git\src\IBK\IBK_DRFN\ProjSrc\SrcChartEx\ChartOCX\AddInManager\ChartCommonAddIn\IndicatorInfoUndoRedoManagerAddInImp.cpp

; 655  : 	while(pos)

  0025f	0f 85 8b fe ff
	ff		 jne	 $LL98@BackUpIndi
  00265	e9 56 fe ff ff	 jmp	 $LN3@BackUpIndi
$LN70@BackUpIndi:

; 35   : 	return new CIndiInfoData(p_pIGraphInfo, bTheBeginning);

  0026a	33 f6		 xor	 esi, esi
$LN71@BackUpIndi:

; 107  : 	m_indiInfoDataList.AddTail( CIndiInfoData::Make(p_pIGraphInfo, bTheBeginning));

  0026c	56		 push	 esi
  0026d	8b 75 f0	 mov	 esi, DWORD PTR $T6[ebp]

; 35   : 	return new CIndiInfoData(p_pIGraphInfo, bTheBeginning);

  00270	c6 45 fc 02	 mov	 BYTE PTR __$EHRec$[ebp+8], 2

; 107  : 	m_indiInfoDataList.AddTail( CIndiInfoData::Make(p_pIGraphInfo, bTheBeginning));

  00274	8d 4e 08	 lea	 ecx, DWORD PTR [esi+8]
  00277	e8 00 00 00 00	 call	 ?AddTail@?$CList@PAVCIndiInfoData@@PAV1@@@QAEPAU__POSITION@@PAVCIndiInfoData@@@Z ; CList<CIndiInfoData *,CIndiInfoData *>::AddTail
; File D:\git\src\IBK\IBK_DRFN\ProjSrc\SrcChartEx\ChartOCX\AddInManager\Include_AddIn\I000000\_IString.h

; 44   : 	{

  0027c	c6 45 fc 06	 mov	 BYTE PTR __$EHRec$[ebp+8], 6

; 45   : 		if( m_pIStrData)

  00280	85 db		 test	 ebx, ebx
  00282	74 9e		 je	 SHORT $LN76@BackUpIndi

; 46   : 		{
; 47   : 			m_pIStrData->Release();

  00284	8b 03		 mov	 eax, DWORD PTR [ebx]
  00286	53		 push	 ebx
  00287	ff 50 08	 call	 DWORD PTR [eax+8]

; 48   : 			m_pIStrData = NULL;

  0028a	c7 45 cc 00 00
	00 00		 mov	 DWORD PTR _szGraphName$2[ebp+4], 0

; 49   : 			m_szData = NULL;

  00291	c7 45 c8 00 00
	00 00		 mov	 DWORD PTR _szGraphName$2[ebp], 0

; 45   : 		if( m_pIStrData)

  00298	eb 88		 jmp	 SHORT $LN76@BackUpIndi
_TEXT	ENDS
;	COMDAT text$x
text$x	SEGMENT
__unwindfunclet$?BackUpIndicatorInfo@CIndicatorInfoUndoRedoManagerAddInImp@@QAEPAVCIndicatorInfoBackUp@@PAUIStringList000000@@H@Z$1:
  00000	8d 4d d0	 lea	 ecx, DWORD PTR _szIndicatorName$3[ebp]
  00003	e9 00 00 00 00	 jmp	 ??1ILPCSTR000000@@QAE@XZ ; ILPCSTR000000::~ILPCSTR000000
__unwindfunclet$?BackUpIndicatorInfo@CIndicatorInfoUndoRedoManagerAddInImp@@QAEPAVCIndicatorInfoBackUp@@PAUIStringList000000@@H@Z$3:
  00008	8d 4d c8	 lea	 ecx, DWORD PTR _szGraphName$2[ebp]
  0000b	e9 00 00 00 00	 jmp	 ??1ILPCSTR000000@@QAE@XZ ; ILPCSTR000000::~ILPCSTR000000
__unwindfunclet$?BackUpIndicatorInfo@CIndicatorInfoUndoRedoManagerAddInImp@@QAEPAVCIndicatorInfoBackUp@@PAUIStringList000000@@H@Z$4:
  00010	8d 4d e0	 lea	 ecx, DWORD PTR $T5[ebp]
  00013	ff 25 00 00 00
	00		 jmp	 DWORD PTR __imp_??1?$CStringT@DV?$StrTraitMFC_DLL@DV?$ChTraitsCRT@D@ATL@@@@@ATL@@QAE@XZ
__unwindfunclet$?BackUpIndicatorInfo@CIndicatorInfoUndoRedoManagerAddInImp@@QAEPAVCIndicatorInfoBackUp@@PAUIStringList000000@@H@Z$9:
  00019	6a 0c		 push	 12			; 0000000cH
  0001b	8b 45 d8	 mov	 eax, DWORD PTR $T4[ebp]
  0001e	50		 push	 eax
  0001f	e8 00 00 00 00	 call	 ??3@YAXPAXI@Z		; operator delete
  00024	83 c4 08	 add	 esp, 8
  00027	c3		 ret	 0
  00028	cc		 int	 3
  00029	cc		 int	 3
  0002a	cc		 int	 3
  0002b	cc		 int	 3
  0002c	cc		 int	 3
__ehhandler$?BackUpIndicatorInfo@CIndicatorInfoUndoRedoManagerAddInImp@@QAEPAVCIndicatorInfoBackUp@@PAUIStringList000000@@H@Z:
  0002d	90		 npad	 1
  0002e	90		 npad	 1
  0002f	8b 54 24 08	 mov	 edx, DWORD PTR [esp+8]
  00033	8d 42 0c	 lea	 eax, DWORD PTR [edx+12]
  00036	8b 4a c4	 mov	 ecx, DWORD PTR [edx-60]
  00039	33 c8		 xor	 ecx, eax
  0003b	e8 00 00 00 00	 call	 @__security_check_cookie@4
  00040	b8 00 00 00 00	 mov	 eax, OFFSET __ehfuncinfo$?BackUpIndicatorInfo@CIndicatorInfoUndoRedoManagerAddInImp@@QAEPAVCIndicatorInfoBackUp@@PAUIStringList000000@@H@Z
  00045	e9 00 00 00 00	 jmp	 ___CxxFrameHandler3
text$x	ENDS
?BackUpIndicatorInfo@CIndicatorInfoUndoRedoManagerAddInImp@@QAEPAVCIndicatorInfoBackUp@@PAUIStringList000000@@H@Z ENDP ; CIndicatorInfoUndoRedoManagerAddInImp::BackUpIndicatorInfo
; Function compile flags: /Ogtp
; File C:\Program Files (x86)\Microsoft Visual Studio\2019\Community\VC\Tools\MSVC\14.29.30133\atlmfc\include\afxtempl.h
; File C:\Program Files (x86)\Microsoft Visual Studio\2019\Community\VC\Tools\MSVC\14.29.30133\atlmfc\include\afx.inl
;	COMDAT ??_G?$CList@PAVCIndicatorInfoBackUp@@PAV1@@@UAEPAXI@Z
_TEXT	SEGMENT
__$EHRec$ = -12						; size = 12
___flags$ = 8						; size = 4
??_G?$CList@PAVCIndicatorInfoBackUp@@PAV1@@@UAEPAXI@Z PROC ; CList<CIndicatorInfoBackUp *,CIndicatorInfoBackUp *>::`scalar deleting destructor', COMDAT
; _this$ = ecx
  00000	55		 push	 ebp
  00001	8b ec		 mov	 ebp, esp
  00003	6a ff		 push	 -1
  00005	68 00 00 00 00	 push	 __ehhandler$??_G?$CList@PAVCIndicatorInfoBackUp@@PAV1@@@UAEPAXI@Z
  0000a	64 a1 00 00 00
	00		 mov	 eax, DWORD PTR fs:0
  00010	50		 push	 eax
  00011	56		 push	 esi
  00012	a1 00 00 00 00	 mov	 eax, DWORD PTR ___security_cookie
  00017	33 c5		 xor	 eax, ebp
  00019	50		 push	 eax
  0001a	8d 45 f4	 lea	 eax, DWORD PTR __$EHRec$[ebp]
  0001d	64 a3 00 00 00
	00		 mov	 DWORD PTR fs:0, eax
  00023	8b f1		 mov	 esi, ecx
; File C:\Program Files (x86)\Microsoft Visual Studio\2019\Community\VC\Tools\MSVC\14.29.30133\atlmfc\include\afxtempl.h

; 872  : 	m_pBlocks->FreeDataChain();

  00025	8b 4e 14	 mov	 ecx, DWORD PTR [esi+20]

; 878  : {

  00028	c7 45 fc 00 00
	00 00		 mov	 DWORD PTR __$EHRec$[ebp+8], 0
  0002f	c7 06 00 00 00
	00		 mov	 DWORD PTR [esi], OFFSET ??_7?$CList@PAVCIndicatorInfoBackUp@@PAV1@@@6B@

; 870  : 	m_nCount = 0;

  00035	c7 46 0c 00 00
	00 00		 mov	 DWORD PTR [esi+12], 0

; 871  : 	m_pNodeHead = m_pNodeTail = m_pNodeFree = NULL;

  0003c	c7 46 10 00 00
	00 00		 mov	 DWORD PTR [esi+16], 0
  00043	c7 46 08 00 00
	00 00		 mov	 DWORD PTR [esi+8], 0
  0004a	c7 46 04 00 00
	00 00		 mov	 DWORD PTR [esi+4], 0

; 872  : 	m_pBlocks->FreeDataChain();

  00051	e8 00 00 00 00	 call	 ?FreeDataChain@CPlex@@QAEXXZ ; CPlex::FreeDataChain

; 873  : 	m_pBlocks = NULL;

  00056	8b 45 08	 mov	 eax, DWORD PTR ___flags$[ebp]
  00059	c7 46 14 00 00
	00 00		 mov	 DWORD PTR [esi+20], 0
  00060	a8 01		 test	 al, 1
  00062	74 2c		 je	 SHORT $LN22@scalar
  00064	a8 04		 test	 al, 4
  00066	75 1d		 jne	 SHORT $LN3@scalar
; File C:\Program Files (x86)\Microsoft Visual Studio\2019\Community\VC\Tools\MSVC\14.29.30133\atlmfc\include\afx.inl

; 112  : 	{ ::operator delete(p); }

  00068	56		 push	 esi
  00069	e8 00 00 00 00	 call	 ??3@YAXPAX@Z		; operator delete
  0006e	83 c4 04	 add	 esp, 4
  00071	8b c6		 mov	 eax, esi
  00073	8b 4d f4	 mov	 ecx, DWORD PTR __$EHRec$[ebp]
  00076	64 89 0d 00 00
	00 00		 mov	 DWORD PTR fs:0, ecx
  0007d	59		 pop	 ecx
  0007e	5e		 pop	 esi
  0007f	8b e5		 mov	 esp, ebp
  00081	5d		 pop	 ebp
  00082	c2 04 00	 ret	 4
$LN3@scalar:
  00085	6a 1c		 push	 28			; 0000001cH
  00087	56		 push	 esi
  00088	e8 00 00 00 00	 call	 ?__global_delete@@YAXPAXI@Z ; __global_delete
  0008d	83 c4 08	 add	 esp, 8
$LN22@scalar:
  00090	8b c6		 mov	 eax, esi
  00092	8b 4d f4	 mov	 ecx, DWORD PTR __$EHRec$[ebp]
  00095	64 89 0d 00 00
	00 00		 mov	 DWORD PTR fs:0, ecx
  0009c	59		 pop	 ecx
  0009d	5e		 pop	 esi
  0009e	8b e5		 mov	 esp, ebp
  000a0	5d		 pop	 ebp
  000a1	c2 04 00	 ret	 4
  000a4	cc		 int	 3
  000a5	cc		 int	 3
  000a6	cc		 int	 3
  000a7	cc		 int	 3
  000a8	cc		 int	 3
_TEXT	ENDS
;	COMDAT text$x
text$x	SEGMENT
__ehhandler$??_G?$CList@PAVCIndicatorInfoBackUp@@PAV1@@@UAEPAXI@Z:
  00000	90		 npad	 1
  00001	90		 npad	 1
  00002	8b 54 24 08	 mov	 edx, DWORD PTR [esp+8]
  00006	8d 42 0c	 lea	 eax, DWORD PTR [edx+12]
  00009	8b 4a f8	 mov	 ecx, DWORD PTR [edx-8]
  0000c	33 c8		 xor	 ecx, eax
  0000e	e8 00 00 00 00	 call	 @__security_check_cookie@4
  00013	b8 00 00 00 00	 mov	 eax, OFFSET __ehfuncinfo$??_G?$CList@PAVCIndicatorInfoBackUp@@PAV1@@@UAEPAXI@Z
  00018	e9 00 00 00 00	 jmp	 ___CxxFrameHandler3
text$x	ENDS
??_G?$CList@PAVCIndicatorInfoBackUp@@PAV1@@@UAEPAXI@Z ENDP ; CList<CIndicatorInfoBackUp *,CIndicatorInfoBackUp *>::`scalar deleting destructor'
; Function compile flags: /Ogtp
; File C:\Program Files (x86)\Microsoft Visual Studio\2019\Community\VC\Tools\MSVC\14.29.30133\atlmfc\include\afxtempl.h
; File C:\Program Files (x86)\Microsoft Visual Studio\2019\Community\VC\Tools\MSVC\14.29.30133\atlmfc\include\afx.inl
; File C:\Program Files (x86)\Microsoft Visual Studio\2019\Community\VC\Tools\MSVC\14.29.30133\atlmfc\include\afxtempl.h
; File C:\Program Files (x86)\Microsoft Visual Studio\2019\Community\VC\Tools\MSVC\14.29.30133\atlmfc\include\afx.inl
; File C:\Program Files (x86)\Microsoft Visual Studio\2019\Community\VC\Tools\MSVC\14.29.30133\atlmfc\include\afxtempl.h
; File C:\Program Files (x86)\Microsoft Visual Studio\2019\Community\VC\Tools\MSVC\14.29.30133\atlmfc\include\afx.inl
; File C:\Program Files (x86)\Microsoft Visual Studio\2019\Community\VC\Tools\MSVC\14.29.30133\atlmfc\include\afxtempl.h
; File C:\Program Files (x86)\Microsoft Visual Studio\2019\Community\VC\Tools\MSVC\14.29.30133\atlmfc\include\afx.inl
; File C:\Program Files (x86)\Microsoft Visual Studio\2019\Community\VC\Tools\MSVC\14.29.30133\atlmfc\include\afxtempl.h
; File C:\Program Files (x86)\Microsoft Visual Studio\2019\Community\VC\Tools\MSVC\14.29.30133\atlmfc\include\afx.inl
; File C:\Program Files (x86)\Microsoft Visual Studio\2019\Community\VC\Tools\MSVC\14.29.30133\atlmfc\include\afxtempl.h
; File C:\Program Files (x86)\Microsoft Visual Studio\2019\Community\VC\Tools\MSVC\14.29.30133\atlmfc\include\afx.inl
; File C:\Program Files (x86)\Microsoft Visual Studio\2019\Community\VC\Tools\MSVC\14.29.30133\atlmfc\include\afxtempl.h
;	COMDAT ?Serialize@?$CList@PAVCIndicatorInfoBackUp@@PAV1@@@UAEXAAVCArchive@@@Z
_TEXT	SEGMENT
_nNewCount$1$ = -16					; size = 4
_newData$1 = -12					; size = 4
_pData$1$ = -8						; size = 4
_pNode$1$ = -8						; size = 4
_nElementsLeft$1$ = -4					; size = 4
_this$1$ = -4						; size = 4
_ar$ = 8						; size = 4
?Serialize@?$CList@PAVCIndicatorInfoBackUp@@PAV1@@@UAEXAAVCArchive@@@Z PROC ; CList<CIndicatorInfoBackUp *,CIndicatorInfoBackUp *>::Serialize, COMDAT
; _this$ = ecx

; 1169 : {

  00000	55		 push	 ebp
  00001	8b ec		 mov	 ebp, esp
  00003	83 ec 10	 sub	 esp, 16			; 00000010H
  00006	53		 push	 ebx
  00007	8b d9		 mov	 ebx, ecx
; File C:\Program Files (x86)\Microsoft Visual Studio\2019\Community\VC\Tools\MSVC\14.29.30133\atlmfc\include\afx.inl

; 212  : 	{ return (m_nMode & CArchive::load) == 0; }

  00009	8b 4d 08	 mov	 ecx, DWORD PTR _ar$[ebp]
; File C:\Program Files (x86)\Microsoft Visual Studio\2019\Community\VC\Tools\MSVC\14.29.30133\atlmfc\include\afxtempl.h

; 1169 : {

  0000c	56		 push	 esi
  0000d	57		 push	 edi
  0000e	89 5d fc	 mov	 DWORD PTR _this$1$[ebp], ebx
; File C:\Program Files (x86)\Microsoft Visual Studio\2019\Community\VC\Tools\MSVC\14.29.30133\atlmfc\include\afx.inl

; 212  : 	{ return (m_nMode & CArchive::load) == 0; }

  00011	8b 41 18	 mov	 eax, DWORD PTR [ecx+24]
  00014	f7 d0		 not	 eax
  00016	a8 01		 test	 al, 1
; File C:\Program Files (x86)\Microsoft Visual Studio\2019\Community\VC\Tools\MSVC\14.29.30133\atlmfc\include\afxtempl.h

; 1174 : 	if (ar.IsStoring())

  00018	0f 84 ae 00 00
	00		 je	 $LN7@Serialize

; 1175 : 	{
; 1176 : 		ar.WriteCount(m_nCount);

  0001e	ff 73 0c	 push	 DWORD PTR [ebx+12]
  00021	e8 00 00 00 00	 call	 ?WriteCount@CArchive@@QAEXK@Z ; CArchive::WriteCount

; 1177 : 		for (CNode* pNode = m_pNodeHead; pNode != NULL; pNode = pNode->pNext)

  00026	8b 43 04	 mov	 eax, DWORD PTR [ebx+4]
  00029	89 45 f8	 mov	 DWORD PTR _pNode$1$[ebp], eax
  0002c	85 c0		 test	 eax, eax
  0002e	0f 84 43 01 00
	00		 je	 $LN68@Serialize
$LL4@Serialize:

; 1178 : 		{
; 1179 : 			ASSERT(AfxIsValidAddress(pNode, sizeof(CNode)));
; 1180 : 			TYPE* pData;
; 1181 : 			/*
; 1182 : 			 * in some cases the & operator might be overloaded, and we cannot use it to obtain
; 1183 : 			 * the address of a given object.  We then use the following trick to get the address
; 1184 : 			 */
; 1185 : 			pData = reinterpret_cast< TYPE* >( &reinterpret_cast< int& >( static_cast< TYPE& >( pNode->data ) ) );

  00034	8d 70 08	 lea	 esi, DWORD PTR [eax+8]

; 68   : 	ENSURE(nCount == 0 || pElements != NULL);

  00037	85 f6		 test	 esi, esi
  00039	0f 84 4a 01 00
	00		 je	 $LN60@Serialize
; File C:\Program Files (x86)\Microsoft Visual Studio\2019\Community\VC\Tools\MSVC\14.29.30133\atlmfc\include\afx.inl

; 212  : 	{ return (m_nMode & CArchive::load) == 0; }

  0003f	8b 4d 08	 mov	 ecx, DWORD PTR _ar$[ebp]
  00042	8b 41 18	 mov	 eax, DWORD PTR [ecx+24]
  00045	f7 d0		 not	 eax
  00047	a8 01		 test	 al, 1
; File C:\Program Files (x86)\Microsoft Visual Studio\2019\Community\VC\Tools\MSVC\14.29.30133\atlmfc\include\afxtempl.h

; 73   : 	if (ar.IsStoring())

  00049	74 33		 je	 SHORT $LN21@Serialize

; 74   : 	{
; 75   : 		TYPE* pData;
; 76   : 		UINT_PTR nElementsLeft;
; 77   : 
; 78   : 		nElementsLeft = nCount;

  0004b	b8 01 00 00 00	 mov	 eax, 1
  00050	89 45 fc	 mov	 DWORD PTR _nElementsLeft$1$[ebp], eax
$LL16@Serialize:

; 80   : 		while( nElementsLeft > 0 )
; 81   : 		{
; 82   : 			UINT nElementsToWrite;
; 83   : 
; 84   : 			nElementsToWrite = UINT(__min(nElementsLeft, INT_MAX/sizeof(TYPE)));

  00053	bb ff ff ff 1f	 mov	 ebx, 536870911		; 1fffffffH
  00058	3b c3		 cmp	 eax, ebx
  0005a	0f 42 d8	 cmovb	 ebx, eax

; 85   : 			ar.Write(pData, nElementsToWrite*sizeof(TYPE));

  0005d	8d 3c 9d 00 00
	00 00		 lea	 edi, DWORD PTR [ebx*4]
  00064	57		 push	 edi
  00065	56		 push	 esi
  00066	e8 00 00 00 00	 call	 ?Write@CArchive@@QAEXPBXI@Z ; CArchive::Write

; 86   : 			nElementsLeft -= nElementsToWrite;

  0006b	8b 45 fc	 mov	 eax, DWORD PTR _nElementsLeft$1$[ebp]

; 87   : 			pData += nElementsToWrite;

  0006e	03 f7		 add	 esi, edi
  00070	8b 4d 08	 mov	 ecx, DWORD PTR _ar$[ebp]
  00073	2b c3		 sub	 eax, ebx
  00075	89 45 fc	 mov	 DWORD PTR _nElementsLeft$1$[ebp], eax
  00078	85 c0		 test	 eax, eax
  0007a	75 d7		 jne	 SHORT $LL16@Serialize

; 88   : 		}
; 89   : 	}

  0007c	eb 35		 jmp	 SHORT $LN2@Serialize
$LN21@Serialize:

; 90   : 	else
; 91   : 	{
; 92   : 		TYPE* pData;
; 93   : 		UINT_PTR nElementsLeft;
; 94   : 
; 95   : 		nElementsLeft = nCount;

  0007e	bf 01 00 00 00	 mov	 edi, 1
$LL18@Serialize:

; 98   : 		{
; 99   : 			UINT nElementsToRead;
; 100  : 
; 101  : 			nElementsToRead = UINT(__min(nElementsLeft, INT_MAX/sizeof(TYPE)));

  00083	bb ff ff ff 1f	 mov	 ebx, 536870911		; 1fffffffH
  00088	3b fb		 cmp	 edi, ebx
  0008a	0f 42 df	 cmovb	 ebx, edi

; 102  : 			ar.EnsureRead(pData, nElementsToRead*sizeof(TYPE));

  0008d	8d 04 9d 00 00
	00 00		 lea	 eax, DWORD PTR [ebx*4]
; File C:\Program Files (x86)\Microsoft Visual Studio\2019\Community\VC\Tools\MSVC\14.29.30133\atlmfc\include\afx.inl

; 399  : 	UINT nRead=Read(lpBuf, nCount);

  00094	50		 push	 eax
  00095	56		 push	 esi
  00096	e8 00 00 00 00	 call	 ?Read@CArchive@@QAEIPAXI@Z ; CArchive::Read

; 400  : 	if(nRead!=nCount)

  0009b	8d 0c 9d 00 00
	00 00		 lea	 ecx, DWORD PTR [ebx*4]
  000a2	3b c1		 cmp	 eax, ecx
  000a4	0f 85 d6 00 00
	00		 jne	 $LN59@Serialize
; File C:\Program Files (x86)\Microsoft Visual Studio\2019\Community\VC\Tools\MSVC\14.29.30133\atlmfc\include\afxtempl.h

; 97   : 		while( nElementsLeft > 0 )

  000aa	03 f1		 add	 esi, ecx
  000ac	8b 4d 08	 mov	 ecx, DWORD PTR _ar$[ebp]

; 103  : 			nElementsLeft -= nElementsToRead;

  000af	2b fb		 sub	 edi, ebx
  000b1	75 d0		 jne	 SHORT $LL18@Serialize
$LN2@Serialize:

; 1177 : 		for (CNode* pNode = m_pNodeHead; pNode != NULL; pNode = pNode->pNext)

  000b3	8b 45 f8	 mov	 eax, DWORD PTR _pNode$1$[ebp]
  000b6	8b 00		 mov	 eax, DWORD PTR [eax]
  000b8	89 45 f8	 mov	 DWORD PTR _pNode$1$[ebp], eax
  000bb	85 c0		 test	 eax, eax
  000bd	0f 85 71 ff ff
	ff		 jne	 $LL4@Serialize

; 1197 : 		}
; 1198 : 	}
; 1199 : }

  000c3	5f		 pop	 edi
  000c4	5e		 pop	 esi
  000c5	5b		 pop	 ebx
  000c6	8b e5		 mov	 esp, ebp
  000c8	5d		 pop	 ebp
  000c9	c2 04 00	 ret	 4
$LN7@Serialize:

; 1186 : 			SerializeElements<TYPE>(ar, pData, 1);
; 1187 : 		}
; 1188 : 	}
; 1189 : 	else
; 1190 : 	{
; 1191 : 		DWORD_PTR nNewCount = ar.ReadCount();

  000cc	e8 00 00 00 00	 call	 ?ReadCount@CArchive@@QAEKXZ ; CArchive::ReadCount

; 1192 : 		while (nNewCount--)

  000d1	85 c0		 test	 eax, eax
  000d3	0f 84 9e 00 00
	00		 je	 $LN68@Serialize
  000d9	0f 1f 80 00 00
	00 00		 npad	 7
$LL5@Serialize:
  000e0	48		 dec	 eax
  000e1	89 45 f0	 mov	 DWORD PTR _nNewCount$1$[ebp], eax
; File C:\Program Files (x86)\Microsoft Visual Studio\2019\Community\VC\Tools\MSVC\14.29.30133\atlmfc\include\afx.inl

; 212  : 	{ return (m_nMode & CArchive::load) == 0; }

  000e4	8b 45 08	 mov	 eax, DWORD PTR _ar$[ebp]
  000e7	8b 48 18	 mov	 ecx, DWORD PTR [eax+24]
  000ea	f7 d1		 not	 ecx
  000ec	f6 c1 01	 test	 cl, 1
; File C:\Program Files (x86)\Microsoft Visual Studio\2019\Community\VC\Tools\MSVC\14.29.30133\atlmfc\include\afxtempl.h

; 73   : 	if (ar.IsStoring())

  000ef	74 3a		 je	 SHORT $LN42@Serialize

; 79   : 		pData = pElements;

  000f1	8d 4d f4	 lea	 ecx, DWORD PTR _newData$1[ebp]
  000f4	bb 01 00 00 00	 mov	 ebx, 1
  000f9	89 4d f8	 mov	 DWORD PTR _pData$1$[ebp], ecx
  000fc	0f 1f 40 00	 npad	 4
$LL37@Serialize:

; 80   : 		while( nElementsLeft > 0 )
; 81   : 		{
; 82   : 			UINT nElementsToWrite;
; 83   : 
; 84   : 			nElementsToWrite = UINT(__min(nElementsLeft, INT_MAX/sizeof(TYPE)));

  00100	bf ff ff ff 1f	 mov	 edi, 536870911		; 1fffffffH
  00105	3b df		 cmp	 ebx, edi
  00107	0f 42 fb	 cmovb	 edi, ebx

; 85   : 			ar.Write(pData, nElementsToWrite*sizeof(TYPE));

  0010a	8d 34 bd 00 00
	00 00		 lea	 esi, DWORD PTR [edi*4]
  00111	56		 push	 esi
  00112	51		 push	 ecx
  00113	8b c8		 mov	 ecx, eax
  00115	e8 00 00 00 00	 call	 ?Write@CArchive@@QAEXPBXI@Z ; CArchive::Write

; 87   : 			pData += nElementsToWrite;

  0011a	8b 4d f8	 mov	 ecx, DWORD PTR _pData$1$[ebp]
  0011d	8b 45 08	 mov	 eax, DWORD PTR _ar$[ebp]
  00120	03 ce		 add	 ecx, esi
  00122	89 4d f8	 mov	 DWORD PTR _pData$1$[ebp], ecx
  00125	2b df		 sub	 ebx, edi
  00127	75 d7		 jne	 SHORT $LL37@Serialize

; 88   : 		}
; 89   : 	}

  00129	eb 36		 jmp	 SHORT $LN40@Serialize
$LN42@Serialize:

; 90   : 	else
; 91   : 	{
; 92   : 		TYPE* pData;
; 93   : 		UINT_PTR nElementsLeft;
; 94   : 
; 95   : 		nElementsLeft = nCount;

  0012b	be 01 00 00 00	 mov	 esi, 1

; 96   : 		pData = pElements;

  00130	8d 5d f4	 lea	 ebx, DWORD PTR _newData$1[ebp]
$LL39@Serialize:

; 98   : 		{
; 99   : 			UINT nElementsToRead;
; 100  : 
; 101  : 			nElementsToRead = UINT(__min(nElementsLeft, INT_MAX/sizeof(TYPE)));

  00133	bf ff ff ff 1f	 mov	 edi, 536870911		; 1fffffffH
  00138	3b f7		 cmp	 esi, edi
  0013a	0f 42 fe	 cmovb	 edi, esi

; 102  : 			ar.EnsureRead(pData, nElementsToRead*sizeof(TYPE));

  0013d	8d 0c bd 00 00
	00 00		 lea	 ecx, DWORD PTR [edi*4]
; File C:\Program Files (x86)\Microsoft Visual Studio\2019\Community\VC\Tools\MSVC\14.29.30133\atlmfc\include\afx.inl

; 399  : 	UINT nRead=Read(lpBuf, nCount);

  00144	51		 push	 ecx
  00145	53		 push	 ebx
  00146	8b c8		 mov	 ecx, eax
  00148	e8 00 00 00 00	 call	 ?Read@CArchive@@QAEIPAXI@Z ; CArchive::Read

; 400  : 	if(nRead!=nCount)

  0014d	8d 0c bd 00 00
	00 00		 lea	 ecx, DWORD PTR [edi*4]
  00154	3b c1		 cmp	 eax, ecx
  00156	75 28		 jne	 SHORT $LN59@Serialize
; File C:\Program Files (x86)\Microsoft Visual Studio\2019\Community\VC\Tools\MSVC\14.29.30133\atlmfc\include\afxtempl.h

; 104  : 			pData += nElementsToRead;

  00158	8b 45 08	 mov	 eax, DWORD PTR _ar$[ebp]
  0015b	03 d9		 add	 ebx, ecx
  0015d	2b f7		 sub	 esi, edi
  0015f	75 d2		 jne	 SHORT $LL39@Serialize
$LN40@Serialize:

; 1193 : 		{
; 1194 : 			TYPE newData[1];
; 1195 : 			SerializeElements<TYPE>(ar, newData, 1);
; 1196 : 			AddTail(newData[0]);

  00161	ff 75 f4	 push	 DWORD PTR _newData$1[ebp]
  00164	8b 4d fc	 mov	 ecx, DWORD PTR _this$1$[ebp]
  00167	e8 00 00 00 00	 call	 ?AddTail@?$CList@PAVCIndicatorInfoBackUp@@PAV1@@@QAEPAU__POSITION@@PAVCIndicatorInfoBackUp@@@Z ; CList<CIndicatorInfoBackUp *,CIndicatorInfoBackUp *>::AddTail
  0016c	8b 45 f0	 mov	 eax, DWORD PTR _nNewCount$1$[ebp]
  0016f	85 c0		 test	 eax, eax
  00171	0f 85 69 ff ff
	ff		 jne	 $LL5@Serialize
$LN68@Serialize:
  00177	5f		 pop	 edi

; 1197 : 		}
; 1198 : 	}
; 1199 : }

  00178	5e		 pop	 esi
  00179	5b		 pop	 ebx
  0017a	8b e5		 mov	 esp, ebp
  0017c	5d		 pop	 ebp
  0017d	c2 04 00	 ret	 4
$LN59@Serialize:
  00180	6a 00		 push	 0
  00182	6a 03		 push	 3
  00184	e8 00 00 00 00	 call	 ?AfxThrowArchiveException@@YGXHPBD@Z ; AfxThrowArchiveException
$LN60@Serialize:

; 68   : 	ENSURE(nCount == 0 || pElements != NULL);

  00189	e8 00 00 00 00	 call	 ?AfxThrowInvalidArgException@@YGXXZ ; AfxThrowInvalidArgException
$LN85@Serialize:
  0018e	cc		 int	 3
?Serialize@?$CList@PAVCIndicatorInfoBackUp@@PAV1@@@UAEXAAVCArchive@@@Z ENDP ; CList<CIndicatorInfoBackUp *,CIndicatorInfoBackUp *>::Serialize
_TEXT	ENDS
; Function compile flags: /Ogtp
; File C:\Program Files (x86)\Microsoft Visual Studio\2019\Community\VC\Tools\MSVC\14.29.30133\atlmfc\include\afxtempl.h
;	COMDAT ??1?$CList@PAVCIndicatorInfoBackUp@@PAV1@@@UAE@XZ
_TEXT	SEGMENT
__$EHRec$ = -12						; size = 12
??1?$CList@PAVCIndicatorInfoBackUp@@PAV1@@@UAE@XZ PROC	; CList<CIndicatorInfoBackUp *,CIndicatorInfoBackUp *>::~CList<CIndicatorInfoBackUp *,CIndicatorInfoBackUp *>, COMDAT
; _this$ = ecx

; 878  : {

  00000	55		 push	 ebp
  00001	8b ec		 mov	 ebp, esp
  00003	6a ff		 push	 -1
  00005	68 00 00 00 00	 push	 __ehhandler$??1?$CList@PAVCIndicatorInfoBackUp@@PAV1@@@UAE@XZ
  0000a	64 a1 00 00 00
	00		 mov	 eax, DWORD PTR fs:0
  00010	50		 push	 eax
  00011	56		 push	 esi
  00012	a1 00 00 00 00	 mov	 eax, DWORD PTR ___security_cookie
  00017	33 c5		 xor	 eax, ebp
  00019	50		 push	 eax
  0001a	8d 45 f4	 lea	 eax, DWORD PTR __$EHRec$[ebp]
  0001d	64 a3 00 00 00
	00		 mov	 DWORD PTR fs:0, eax
  00023	8b f1		 mov	 esi, ecx

; 872  : 	m_pBlocks->FreeDataChain();

  00025	8b 4e 14	 mov	 ecx, DWORD PTR [esi+20]

; 878  : {

  00028	c7 06 00 00 00
	00		 mov	 DWORD PTR [esi], OFFSET ??_7?$CList@PAVCIndicatorInfoBackUp@@PAV1@@@6B@

; 870  : 	m_nCount = 0;

  0002e	c7 46 0c 00 00
	00 00		 mov	 DWORD PTR [esi+12], 0

; 871  : 	m_pNodeHead = m_pNodeTail = m_pNodeFree = NULL;

  00035	c7 46 10 00 00
	00 00		 mov	 DWORD PTR [esi+16], 0
  0003c	c7 46 08 00 00
	00 00		 mov	 DWORD PTR [esi+8], 0
  00043	c7 46 04 00 00
	00 00		 mov	 DWORD PTR [esi+4], 0

; 872  : 	m_pBlocks->FreeDataChain();

  0004a	e8 00 00 00 00	 call	 ?FreeDataChain@CPlex@@QAEXXZ ; CPlex::FreeDataChain

; 873  : 	m_pBlocks = NULL;

  0004f	c7 46 14 00 00
	00 00		 mov	 DWORD PTR [esi+20], 0

; 879  : 	RemoveAll();
; 880  : 	ASSERT(m_nCount == 0);
; 881  : }

  00056	8b 4d f4	 mov	 ecx, DWORD PTR __$EHRec$[ebp]
  00059	64 89 0d 00 00
	00 00		 mov	 DWORD PTR fs:0, ecx
  00060	59		 pop	 ecx
  00061	5e		 pop	 esi
  00062	8b e5		 mov	 esp, ebp
  00064	5d		 pop	 ebp
  00065	c3		 ret	 0
  00066	cc		 int	 3
  00067	cc		 int	 3
  00068	cc		 int	 3
  00069	cc		 int	 3
  0006a	cc		 int	 3
_TEXT	ENDS
;	COMDAT text$x
text$x	SEGMENT
__ehhandler$??1?$CList@PAVCIndicatorInfoBackUp@@PAV1@@@UAE@XZ:
  00000	90		 npad	 1
  00001	90		 npad	 1
  00002	8b 54 24 08	 mov	 edx, DWORD PTR [esp+8]
  00006	8d 42 0c	 lea	 eax, DWORD PTR [edx+12]
  00009	8b 4a f8	 mov	 ecx, DWORD PTR [edx-8]
  0000c	33 c8		 xor	 ecx, eax
  0000e	e8 00 00 00 00	 call	 @__security_check_cookie@4
  00013	b8 00 00 00 00	 mov	 eax, OFFSET __ehfuncinfo$??1?$CList@PAVCIndicatorInfoBackUp@@PAV1@@@UAE@XZ
  00018	e9 00 00 00 00	 jmp	 ___CxxFrameHandler3
text$x	ENDS
??1?$CList@PAVCIndicatorInfoBackUp@@PAV1@@@UAE@XZ ENDP	; CList<CIndicatorInfoBackUp *,CIndicatorInfoBackUp *>::~CList<CIndicatorInfoBackUp *,CIndicatorInfoBackUp *>
; Function compile flags: /Ogtp
; File C:\Program Files (x86)\Microsoft Visual Studio\2019\Community\VC\Tools\MSVC\14.29.30133\atlmfc\include\afxtempl.h
;	COMDAT ?FreeNode@?$CList@PAVCIndicatorInfoBackUp@@PAV1@@@IAEXPAUCNode@1@@Z
_TEXT	SEGMENT
_pNode$ = 8						; size = 4
?FreeNode@?$CList@PAVCIndicatorInfoBackUp@@PAV1@@@IAEXPAUCNode@1@@Z PROC ; CList<CIndicatorInfoBackUp *,CIndicatorInfoBackUp *>::FreeNode, COMDAT
; _this$ = ecx

; 936  : {

  00000	55		 push	 ebp
  00001	8b ec		 mov	 ebp, esp

; 937  : 	pNode->data.~TYPE();
; 938  : 	pNode->pNext = m_pNodeFree;

  00003	8b 55 08	 mov	 edx, DWORD PTR _pNode$[ebp]
  00006	56		 push	 esi
  00007	8b f1		 mov	 esi, ecx
  00009	8b 46 10	 mov	 eax, DWORD PTR [esi+16]
  0000c	89 02		 mov	 DWORD PTR [edx], eax

; 939  : 	m_pNodeFree = pNode;
; 940  : 	m_nCount--;

  0000e	83 46 0c ff	 add	 DWORD PTR [esi+12], -1
  00012	89 56 10	 mov	 DWORD PTR [esi+16], edx

; 941  : 	ASSERT(m_nCount >= 0);  // make sure we don't underflow
; 942  : 
; 943  : 	// if no more elements, cleanup completely
; 944  : 	if (m_nCount == 0)

  00015	75 2b		 jne	 SHORT $LN2@FreeNode

; 872  : 	m_pBlocks->FreeDataChain();

  00017	8b 4e 14	 mov	 ecx, DWORD PTR [esi+20]
  0001a	c7 46 0c 00 00
	00 00		 mov	 DWORD PTR [esi+12], 0
  00021	c7 46 10 00 00
	00 00		 mov	 DWORD PTR [esi+16], 0
  00028	c7 46 08 00 00
	00 00		 mov	 DWORD PTR [esi+8], 0
  0002f	c7 46 04 00 00
	00 00		 mov	 DWORD PTR [esi+4], 0
  00036	e8 00 00 00 00	 call	 ?FreeDataChain@CPlex@@QAEXXZ ; CPlex::FreeDataChain

; 873  : 	m_pBlocks = NULL;

  0003b	c7 46 14 00 00
	00 00		 mov	 DWORD PTR [esi+20], 0
$LN2@FreeNode:
  00042	5e		 pop	 esi

; 945  : 		RemoveAll();
; 946  : }

  00043	5d		 pop	 ebp
  00044	c2 04 00	 ret	 4
?FreeNode@?$CList@PAVCIndicatorInfoBackUp@@PAV1@@@IAEXPAUCNode@1@@Z ENDP ; CList<CIndicatorInfoBackUp *,CIndicatorInfoBackUp *>::FreeNode
_TEXT	ENDS
; Function compile flags: /Ogtp
; File C:\Program Files (x86)\Microsoft Visual Studio\2019\Community\VC\Tools\MSVC\14.29.30133\atlmfc\include\afxtempl.h
;	COMDAT ?NewNode@?$CList@PAVCIndicatorInfoBackUp@@PAV1@@@IAEPAUCNode@1@PAU21@0@Z
_TEXT	SEGMENT
_pPrev$ = 8						; size = 4
_pNext$ = 12						; size = 4
?NewNode@?$CList@PAVCIndicatorInfoBackUp@@PAV1@@@IAEPAUCNode@1@PAU21@0@Z PROC ; CList<CIndicatorInfoBackUp *,CIndicatorInfoBackUp *>::NewNode, COMDAT
; _this$ = ecx

; 901  : {

  00000	55		 push	 ebp
  00001	8b ec		 mov	 ebp, esp
  00003	56		 push	 esi
  00004	8b f1		 mov	 esi, ecx

; 902  : 	if (m_pNodeFree == NULL)

  00006	83 7e 10 00	 cmp	 DWORD PTR [esi+16], 0
  0000a	75 34		 jne	 SHORT $LN7@NewNode

; 903  : 	{
; 904  : 		// add another block
; 905  : 		CPlex* pNewBlock = CPlex::Create(m_pBlocks, m_nBlockSize,

  0000c	6a 0c		 push	 12			; 0000000cH
  0000e	ff 76 18	 push	 DWORD PTR [esi+24]
  00011	8d 46 14	 lea	 eax, DWORD PTR [esi+20]
  00014	50		 push	 eax
  00015	e8 00 00 00 00	 call	 ?Create@CPlex@@SGPAU1@AAPAU1@II@Z ; CPlex::Create

; 906  : 				 sizeof(CNode));
; 907  : 
; 908  : 		// chain them into free list
; 909  : 		CNode* pNode = (CNode*) pNewBlock->data();
; 910  : 		// free in reverse order to make it easier to debug
; 911  : 		pNode += m_nBlockSize - 1;

  0001a	8b 56 18	 mov	 edx, DWORD PTR [esi+24]
  0001d	83 c0 08	 add	 eax, 8
  00020	8d 0c 52	 lea	 ecx, DWORD PTR [edx+edx*2]
  00023	8d 04 88	 lea	 eax, DWORD PTR [eax+ecx*4]
  00026	83 c0 f4	 add	 eax, -12		; fffffff4H

; 912  : 		for (INT_PTR i = m_nBlockSize-1; i >= 0; i--, pNode--)

  00029	83 c2 ff	 add	 edx, -1
  0002c	78 12		 js	 SHORT $LN7@NewNode
  0002e	66 90		 npad	 2
$LL4@NewNode:

; 913  : 		{
; 914  : 			pNode->pNext = m_pNodeFree;

  00030	8b 4e 10	 mov	 ecx, DWORD PTR [esi+16]
  00033	89 08		 mov	 DWORD PTR [eax], ecx

; 915  : 			m_pNodeFree = pNode;

  00035	89 46 10	 mov	 DWORD PTR [esi+16], eax
  00038	83 e8 0c	 sub	 eax, 12			; 0000000cH
  0003b	83 ea 01	 sub	 edx, 1
  0003e	79 f0		 jns	 SHORT $LL4@NewNode
$LN7@NewNode:

; 916  : 		}
; 917  : 	}
; 918  : 	ENSURE(m_pNodeFree != NULL);  // we must have something

  00040	8b 46 10	 mov	 eax, DWORD PTR [esi+16]
  00043	85 c0		 test	 eax, eax
  00045	74 18		 je	 SHORT $LN17@NewNode

; 919  : 
; 920  : 	CList::CNode* pNode = m_pNodeFree;
; 921  : 	m_pNodeFree = m_pNodeFree->pNext;

  00047	8b 08		 mov	 ecx, DWORD PTR [eax]
  00049	89 4e 10	 mov	 DWORD PTR [esi+16], ecx

; 922  : 	pNode->pPrev = pPrev;

  0004c	8b 4d 08	 mov	 ecx, DWORD PTR _pPrev$[ebp]
  0004f	89 48 04	 mov	 DWORD PTR [eax+4], ecx

; 923  : 	pNode->pNext = pNext;

  00052	8b 4d 0c	 mov	 ecx, DWORD PTR _pNext$[ebp]
  00055	89 08		 mov	 DWORD PTR [eax], ecx

; 924  : 	m_nCount++;

  00057	ff 46 0c	 inc	 DWORD PTR [esi+12]

; 925  : 	ASSERT(m_nCount > 0);  // make sure we don't overflow
; 926  : 
; 927  : #pragma push_macro("new")
; 928  : #undef new
; 929  : 	::new( (void*)( &pNode->data ) ) TYPE;
; 930  : #pragma pop_macro("new")
; 931  : 	return pNode;

  0005a	5e		 pop	 esi

; 932  : }

  0005b	5d		 pop	 ebp
  0005c	c2 08 00	 ret	 8
$LN17@NewNode:

; 916  : 		}
; 917  : 	}
; 918  : 	ENSURE(m_pNodeFree != NULL);  // we must have something

  0005f	e8 00 00 00 00	 call	 ?AfxThrowInvalidArgException@@YGXXZ ; AfxThrowInvalidArgException
$LN15@NewNode:
  00064	cc		 int	 3
?NewNode@?$CList@PAVCIndicatorInfoBackUp@@PAV1@@@IAEPAUCNode@1@PAU21@0@Z ENDP ; CList<CIndicatorInfoBackUp *,CIndicatorInfoBackUp *>::NewNode
_TEXT	ENDS
; Function compile flags: /Ogtp
; File C:\Program Files (x86)\Microsoft Visual Studio\2019\Community\VC\Tools\MSVC\14.29.30133\atlmfc\include\afxtempl.h
;	COMDAT ?RemoveAll@?$CList@PAVCIndicatorInfoBackUp@@PAV1@@@QAEXXZ
_TEXT	SEGMENT
?RemoveAll@?$CList@PAVCIndicatorInfoBackUp@@PAV1@@@QAEXXZ PROC ; CList<CIndicatorInfoBackUp *,CIndicatorInfoBackUp *>::RemoveAll, COMDAT
; _this$ = ecx

; 862  : {

  00000	56		 push	 esi
  00001	8b f1		 mov	 esi, ecx

; 863  : 	ASSERT_VALID(this);
; 864  : 
; 865  : 	// destroy elements
; 866  : 	CNode* pNode;
; 867  : 	for (pNode = m_pNodeHead; pNode != NULL; pNode = pNode->pNext)
; 868  : 		pNode->data.~TYPE();
; 869  : 
; 870  : 	m_nCount = 0;
; 871  : 	m_pNodeHead = m_pNodeTail = m_pNodeFree = NULL;
; 872  : 	m_pBlocks->FreeDataChain();

  00003	8b 4e 14	 mov	 ecx, DWORD PTR [esi+20]
  00006	c7 46 0c 00 00
	00 00		 mov	 DWORD PTR [esi+12], 0
  0000d	c7 46 10 00 00
	00 00		 mov	 DWORD PTR [esi+16], 0
  00014	c7 46 08 00 00
	00 00		 mov	 DWORD PTR [esi+8], 0
  0001b	c7 46 04 00 00
	00 00		 mov	 DWORD PTR [esi+4], 0
  00022	e8 00 00 00 00	 call	 ?FreeDataChain@CPlex@@QAEXXZ ; CPlex::FreeDataChain

; 873  : 	m_pBlocks = NULL;

  00027	c7 46 14 00 00
	00 00		 mov	 DWORD PTR [esi+20], 0
  0002e	5e		 pop	 esi

; 874  : }

  0002f	c3		 ret	 0
?RemoveAll@?$CList@PAVCIndicatorInfoBackUp@@PAV1@@@QAEXXZ ENDP ; CList<CIndicatorInfoBackUp *,CIndicatorInfoBackUp *>::RemoveAll
_TEXT	ENDS
; Function compile flags: /Ogtp
; File C:\Program Files (x86)\Microsoft Visual Studio\2019\Community\VC\Tools\MSVC\14.29.30133\atlmfc\include\afxtempl.h
;	COMDAT ?AddTail@?$CList@PAVCIndicatorInfoBackUp@@PAV1@@@QAEPAU__POSITION@@PAVCIndicatorInfoBackUp@@@Z
_TEXT	SEGMENT
_newElement$ = 8					; size = 4
?AddTail@?$CList@PAVCIndicatorInfoBackUp@@PAV1@@@QAEPAU__POSITION@@PAVCIndicatorInfoBackUp@@@Z PROC ; CList<CIndicatorInfoBackUp *,CIndicatorInfoBackUp *>::AddTail, COMDAT
; _this$ = ecx

; 965  : {

  00000	55		 push	 ebp
  00001	8b ec		 mov	 ebp, esp
  00003	56		 push	 esi
  00004	8b f1		 mov	 esi, ecx
  00006	57		 push	 edi

; 902  : 	if (m_pNodeFree == NULL)

  00007	83 7e 10 00	 cmp	 DWORD PTR [esi+16], 0

; 966  : 	ASSERT_VALID(this);
; 967  : 
; 968  : 	CNode* pNewNode = NewNode(m_pNodeTail, NULL);

  0000b	8b 7e 08	 mov	 edi, DWORD PTR [esi+8]

; 902  : 	if (m_pNodeFree == NULL)

  0000e	75 32		 jne	 SHORT $LN11@AddTail

; 903  : 	{
; 904  : 		// add another block
; 905  : 		CPlex* pNewBlock = CPlex::Create(m_pBlocks, m_nBlockSize,

  00010	6a 0c		 push	 12			; 0000000cH
  00012	ff 76 18	 push	 DWORD PTR [esi+24]
  00015	8d 46 14	 lea	 eax, DWORD PTR [esi+20]
  00018	50		 push	 eax
  00019	e8 00 00 00 00	 call	 ?Create@CPlex@@SGPAU1@AAPAU1@II@Z ; CPlex::Create

; 906  : 				 sizeof(CNode));
; 907  : 
; 908  : 		// chain them into free list
; 909  : 		CNode* pNode = (CNode*) pNewBlock->data();
; 910  : 		// free in reverse order to make it easier to debug
; 911  : 		pNode += m_nBlockSize - 1;

  0001e	8b 56 18	 mov	 edx, DWORD PTR [esi+24]
  00021	83 c0 08	 add	 eax, 8
  00024	8d 4a ff	 lea	 ecx, DWORD PTR [edx-1]

; 912  : 		for (INT_PTR i = m_nBlockSize-1; i >= 0; i--, pNode--)

  00027	83 c2 ff	 add	 edx, -1
  0002a	8d 0c 49	 lea	 ecx, DWORD PTR [ecx+ecx*2]
  0002d	8d 0c 88	 lea	 ecx, DWORD PTR [eax+ecx*4]
  00030	78 10		 js	 SHORT $LN11@AddTail
$LL8@AddTail:

; 913  : 		{
; 914  : 			pNode->pNext = m_pNodeFree;

  00032	8b 46 10	 mov	 eax, DWORD PTR [esi+16]
  00035	89 01		 mov	 DWORD PTR [ecx], eax

; 915  : 			m_pNodeFree = pNode;

  00037	89 4e 10	 mov	 DWORD PTR [esi+16], ecx
  0003a	83 e9 0c	 sub	 ecx, 12			; 0000000cH
  0003d	83 ea 01	 sub	 edx, 1
  00040	79 f0		 jns	 SHORT $LL8@AddTail
$LN11@AddTail:

; 916  : 		}
; 917  : 	}
; 918  : 	ENSURE(m_pNodeFree != NULL);  // we must have something

  00042	8b 4e 10	 mov	 ecx, DWORD PTR [esi+16]
  00045	85 c9		 test	 ecx, ecx
  00047	74 39		 je	 SHORT $LN22@AddTail

; 919  : 
; 920  : 	CList::CNode* pNode = m_pNodeFree;
; 921  : 	m_pNodeFree = m_pNodeFree->pNext;

  00049	8b 01		 mov	 eax, DWORD PTR [ecx]
  0004b	89 46 10	 mov	 DWORD PTR [esi+16], eax

; 969  : 	pNewNode->data = newElement;

  0004e	8b 45 08	 mov	 eax, DWORD PTR _newElement$[ebp]

; 922  : 	pNode->pPrev = pPrev;

  00051	89 79 04	 mov	 DWORD PTR [ecx+4], edi

; 923  : 	pNode->pNext = pNext;

  00054	c7 01 00 00 00
	00		 mov	 DWORD PTR [ecx], 0

; 924  : 	m_nCount++;

  0005a	ff 46 0c	 inc	 DWORD PTR [esi+12]

; 969  : 	pNewNode->data = newElement;

  0005d	89 41 08	 mov	 DWORD PTR [ecx+8], eax

; 970  : 	if (m_pNodeTail != NULL)

  00060	8b 46 08	 mov	 eax, DWORD PTR [esi+8]
  00063	85 c0		 test	 eax, eax
  00065	74 0d		 je	 SHORT $LN2@AddTail

; 971  : 		m_pNodeTail->pNext = pNewNode;

  00067	89 08		 mov	 DWORD PTR [eax], ecx

; 972  : 	else
; 973  : 		m_pNodeHead = pNewNode;
; 974  : 	m_pNodeTail = pNewNode;
; 975  : 	return (POSITION) pNewNode;

  00069	8b c1		 mov	 eax, ecx
  0006b	5f		 pop	 edi
  0006c	89 4e 08	 mov	 DWORD PTR [esi+8], ecx
  0006f	5e		 pop	 esi

; 976  : }

  00070	5d		 pop	 ebp
  00071	c2 04 00	 ret	 4
$LN2@AddTail:

; 972  : 	else
; 973  : 		m_pNodeHead = pNewNode;
; 974  : 	m_pNodeTail = pNewNode;
; 975  : 	return (POSITION) pNewNode;

  00074	5f		 pop	 edi
  00075	89 4e 04	 mov	 DWORD PTR [esi+4], ecx
  00078	8b c1		 mov	 eax, ecx
  0007a	89 4e 08	 mov	 DWORD PTR [esi+8], ecx
  0007d	5e		 pop	 esi

; 976  : }

  0007e	5d		 pop	 ebp
  0007f	c2 04 00	 ret	 4
$LN22@AddTail:

; 918  : 	ENSURE(m_pNodeFree != NULL);  // we must have something

  00082	e8 00 00 00 00	 call	 ?AfxThrowInvalidArgException@@YGXXZ ; AfxThrowInvalidArgException
$LN20@AddTail:
  00087	cc		 int	 3
?AddTail@?$CList@PAVCIndicatorInfoBackUp@@PAV1@@@QAEPAU__POSITION@@PAVCIndicatorInfoBackUp@@@Z ENDP ; CList<CIndicatorInfoBackUp *,CIndicatorInfoBackUp *>::AddTail
_TEXT	ENDS
; Function compile flags: /Ogtp
; File C:\Program Files (x86)\Microsoft Visual Studio\2019\Community\VC\Tools\MSVC\14.29.30133\atlmfc\include\afxtempl.h
;	COMDAT ?RemoveTail@?$CList@PAVCIndicatorInfoBackUp@@PAV1@@@QAEPAVCIndicatorInfoBackUp@@XZ
_TEXT	SEGMENT
?RemoveTail@?$CList@PAVCIndicatorInfoBackUp@@PAV1@@@QAEPAVCIndicatorInfoBackUp@@XZ PROC ; CList<CIndicatorInfoBackUp *,CIndicatorInfoBackUp *>::RemoveTail, COMDAT
; _this$ = ecx

; 1026 : {

  00000	56		 push	 esi
  00001	8b f1		 mov	 esi, ecx
  00003	57		 push	 edi

; 1027 : 	ASSERT_VALID(this);
; 1028 : 	ENSURE(m_pNodeTail != NULL);  // don't call on empty list !!!

  00004	8b 4e 08	 mov	 ecx, DWORD PTR [esi+8]
  00007	85 c9		 test	 ecx, ecx
  00009	74 5a		 je	 SHORT $LN24@RemoveTail

; 1029 : 	ASSERT(AfxIsValidAddress(m_pNodeTail, sizeof(CNode)));
; 1030 : 
; 1031 : 	CNode* pOldNode = m_pNodeTail;
; 1032 : 	TYPE returnValue = pOldNode->data;
; 1033 : 
; 1034 : 	m_pNodeTail = pOldNode->pPrev;

  0000b	8b 41 04	 mov	 eax, DWORD PTR [ecx+4]
  0000e	8b 79 08	 mov	 edi, DWORD PTR [ecx+8]
  00011	89 46 08	 mov	 DWORD PTR [esi+8], eax

; 1035 : 	if (m_pNodeTail != NULL)

  00014	85 c0		 test	 eax, eax
  00016	74 08		 je	 SHORT $LN6@RemoveTail

; 1036 : 		m_pNodeTail->pNext = NULL;

  00018	c7 00 00 00 00
	00		 mov	 DWORD PTR [eax], 0
  0001e	eb 07		 jmp	 SHORT $LN7@RemoveTail
$LN6@RemoveTail:

; 1037 : 	else
; 1038 : 		m_pNodeHead = NULL;

  00020	c7 46 04 00 00
	00 00		 mov	 DWORD PTR [esi+4], 0
$LN7@RemoveTail:

; 938  : 	pNode->pNext = m_pNodeFree;

  00027	8b 46 10	 mov	 eax, DWORD PTR [esi+16]
  0002a	89 01		 mov	 DWORD PTR [ecx], eax

; 939  : 	m_pNodeFree = pNode;
; 940  : 	m_nCount--;

  0002c	83 46 0c ff	 add	 DWORD PTR [esi+12], -1
  00030	89 4e 10	 mov	 DWORD PTR [esi+16], ecx

; 941  : 	ASSERT(m_nCount >= 0);  // make sure we don't underflow
; 942  : 
; 943  : 	// if no more elements, cleanup completely
; 944  : 	if (m_nCount == 0)

  00033	75 2b		 jne	 SHORT $LN10@RemoveTail

; 872  : 	m_pBlocks->FreeDataChain();

  00035	8b 4e 14	 mov	 ecx, DWORD PTR [esi+20]
  00038	c7 46 0c 00 00
	00 00		 mov	 DWORD PTR [esi+12], 0
  0003f	c7 46 10 00 00
	00 00		 mov	 DWORD PTR [esi+16], 0
  00046	c7 46 08 00 00
	00 00		 mov	 DWORD PTR [esi+8], 0
  0004d	c7 46 04 00 00
	00 00		 mov	 DWORD PTR [esi+4], 0
  00054	e8 00 00 00 00	 call	 ?FreeDataChain@CPlex@@QAEXXZ ; CPlex::FreeDataChain

; 873  : 	m_pBlocks = NULL;

  00059	c7 46 14 00 00
	00 00		 mov	 DWORD PTR [esi+20], 0
$LN10@RemoveTail:

; 1039 : 	FreeNode(pOldNode);
; 1040 : 	return returnValue;

  00060	8b c7		 mov	 eax, edi
  00062	5f		 pop	 edi
  00063	5e		 pop	 esi

; 1041 : }

  00064	c3		 ret	 0
$LN24@RemoveTail:

; 1027 : 	ASSERT_VALID(this);
; 1028 : 	ENSURE(m_pNodeTail != NULL);  // don't call on empty list !!!

  00065	e8 00 00 00 00	 call	 ?AfxThrowInvalidArgException@@YGXXZ ; AfxThrowInvalidArgException
$LN22@RemoveTail:
  0006a	cc		 int	 3
?RemoveTail@?$CList@PAVCIndicatorInfoBackUp@@PAV1@@@QAEPAVCIndicatorInfoBackUp@@XZ ENDP ; CList<CIndicatorInfoBackUp *,CIndicatorInfoBackUp *>::RemoveTail
_TEXT	ENDS
; Function compile flags: /Ogtp
; File C:\Program Files (x86)\Microsoft Visual Studio\2019\Community\VC\Tools\MSVC\14.29.30133\atlmfc\include\afxtempl.h
;	COMDAT ??0?$CList@PAVCIndicatorInfoBackUp@@PAV1@@@QAE@H@Z
_TEXT	SEGMENT
_nBlockSize$ = 8					; size = 4
??0?$CList@PAVCIndicatorInfoBackUp@@PAV1@@@QAE@H@Z PROC	; CList<CIndicatorInfoBackUp *,CIndicatorInfoBackUp *>::CList<CIndicatorInfoBackUp *,CIndicatorInfoBackUp *>, COMDAT
; _this$ = ecx

; 851  : {

  00000	55		 push	 ebp
  00001	8b ec		 mov	 ebp, esp

; 852  : 	ASSERT(nBlockSize > 0);
; 853  : 
; 854  : 	m_nCount = 0;
; 855  : 	m_pNodeHead = m_pNodeTail = m_pNodeFree = NULL;
; 856  : 	m_pBlocks = NULL;
; 857  : 	m_nBlockSize = nBlockSize;

  00003	8b 45 08	 mov	 eax, DWORD PTR _nBlockSize$[ebp]
  00006	89 41 18	 mov	 DWORD PTR [ecx+24], eax

; 858  : }

  00009	8b c1		 mov	 eax, ecx
  0000b	c7 01 00 00 00
	00		 mov	 DWORD PTR [ecx], OFFSET ??_7?$CList@PAVCIndicatorInfoBackUp@@PAV1@@@6B@
  00011	c7 41 0c 00 00
	00 00		 mov	 DWORD PTR [ecx+12], 0
  00018	c7 41 10 00 00
	00 00		 mov	 DWORD PTR [ecx+16], 0
  0001f	c7 41 08 00 00
	00 00		 mov	 DWORD PTR [ecx+8], 0
  00026	c7 41 04 00 00
	00 00		 mov	 DWORD PTR [ecx+4], 0
  0002d	c7 41 14 00 00
	00 00		 mov	 DWORD PTR [ecx+20], 0
  00034	5d		 pop	 ebp
  00035	c2 04 00	 ret	 4
??0?$CList@PAVCIndicatorInfoBackUp@@PAV1@@@QAE@H@Z ENDP	; CList<CIndicatorInfoBackUp *,CIndicatorInfoBackUp *>::CList<CIndicatorInfoBackUp *,CIndicatorInfoBackUp *>
_TEXT	ENDS
; Function compile flags: /Ogtp
; File D:\git\src\IBK\IBK_DRFN\ProjSrc\SrcChartEx\ChartOCX\AddInManager\ChartCommonAddIn\IndicatorInfoUndoRedoManagerAddInImp.h
;	COMDAT ?GetRegisteredEventMap@CIndicatorInfoUndoRedoManagerAddInImp@@MBEPBW4EAddInEventType@IChartAddIn000000@@XZ
_TEXT	SEGMENT
?GetRegisteredEventMap@CIndicatorInfoUndoRedoManagerAddInImp@@MBEPBW4EAddInEventType@IChartAddIn000000@@XZ PROC ; CIndicatorInfoUndoRedoManagerAddInImp::GetRegisteredEventMap, COMDAT
; _this$ = ecx

; 171  : 	DECLARE_ADDIN_EVENT_MAP()

  00000	b8 00 00 00 00	 mov	 eax, OFFSET ?m_eRegisteredEventMap@CIndicatorInfoUndoRedoManagerAddInImp@@1QBW4EAddInEventType@IChartAddIn000000@@B ; CIndicatorInfoUndoRedoManagerAddInImp::m_eRegisteredEventMap
  00005	c3		 ret	 0
?GetRegisteredEventMap@CIndicatorInfoUndoRedoManagerAddInImp@@MBEPBW4EAddInEventType@IChartAddIn000000@@XZ ENDP ; CIndicatorInfoUndoRedoManagerAddInImp::GetRegisteredEventMap
_TEXT	ENDS
; Function compile flags: /Ogtp
; File D:\git\src\IBK\IBK_DRFN\ProjSrc\SrcChartEx\ChartOCX\AddInManager\ChartCommonAddIn\IndicatorInfoUndoRedoManagerAddInImp.cpp
; File C:\Program Files (x86)\Microsoft Visual Studio\2019\Community\VC\Tools\MSVC\14.29.30133\atlmfc\include\afxtempl.h
; File D:\git\src\IBK\IBK_DRFN\ProjSrc\SrcChartEx\ChartOCX\AddInManager\ChartCommonAddIn\IndicatorInfoUndoRedoManagerAddInImp.cpp
; File C:\Program Files (x86)\Microsoft Visual Studio\2019\Community\VC\Tools\MSVC\14.29.30133\atlmfc\include\afxtempl.h
; File D:\git\src\IBK\IBK_DRFN\ProjSrc\SrcChartEx\ChartOCX\AddInManager\ChartCommonAddIn\IndicatorInfoUndoRedoManagerAddInImp.cpp
; File C:\Program Files (x86)\Microsoft Visual Studio\2019\Community\VC\Tools\MSVC\14.29.30133\atlmfc\include\afxtempl.h
; File D:\git\src\IBK\IBK_DRFN\ProjSrc\SrcChartEx\ChartOCX\AddInManager\ChartCommonAddIn\IndicatorInfoUndoRedoManagerAddInImp.cpp
; File C:\Program Files (x86)\Microsoft Visual Studio\2019\Community\VC\Tools\MSVC\14.29.30133\atlmfc\include\afxtempl.h
; File D:\git\src\IBK\IBK_DRFN\ProjSrc\SrcChartEx\ChartOCX\AddInManager\ChartCommonAddIn\IndicatorInfoUndoRedoManagerAddInImp.cpp
;	COMDAT ??1CIndicatorInfoUndoRedoManagerAddInImp@@UAE@XZ
_TEXT	SEGMENT
__$EHRec$ = -12						; size = 12
??1CIndicatorInfoUndoRedoManagerAddInImp@@UAE@XZ PROC	; CIndicatorInfoUndoRedoManagerAddInImp::~CIndicatorInfoUndoRedoManagerAddInImp, COMDAT
; _this$ = ecx

; 459  : {

  00000	55		 push	 ebp
  00001	8b ec		 mov	 ebp, esp
  00003	6a ff		 push	 -1
  00005	68 00 00 00 00	 push	 __ehhandler$??1CIndicatorInfoUndoRedoManagerAddInImp@@UAE@XZ
  0000a	64 a1 00 00 00
	00		 mov	 eax, DWORD PTR fs:0
  00010	50		 push	 eax
  00011	56		 push	 esi
  00012	57		 push	 edi
  00013	a1 00 00 00 00	 mov	 eax, DWORD PTR ___security_cookie
  00018	33 c5		 xor	 eax, ebp
  0001a	50		 push	 eax
  0001b	8d 45 f4	 lea	 eax, DWORD PTR __$EHRec$[ebp]
  0001e	64 a3 00 00 00
	00		 mov	 DWORD PTR fs:0, eax
  00024	8b f9		 mov	 edi, ecx

; 460  : 	if( m_lstIndicatorInfoBackUpUndo.GetCount() > 0 )

  00026	83 7f 4c 00	 cmp	 DWORD PTR [edi+76], 0
  0002a	c7 07 00 00 00
	00		 mov	 DWORD PTR [edi], OFFSET ??_7CIndicatorInfoUndoRedoManagerAddInImp@@6BCIWUnknown@@@
  00030	c7 47 08 00 00
	00 00		 mov	 DWORD PTR [edi+8], OFFSET ??_7CIndicatorInfoUndoRedoManagerAddInImp@@6BIChartAddIn000000@@@
  00037	7e 1a		 jle	 SHORT $LN39@CIndicator

; 461  : 	{
; 462  : 		POSITION pos = m_lstIndicatorInfoBackUpUndo.GetHeadPosition();

  00039	8b 77 44	 mov	 esi, DWORD PTR [edi+68]

; 465  : 		while(pos)

  0003c	85 f6		 test	 esi, esi
  0003e	74 13		 je	 SHORT $LN39@CIndicator
$LL2@CIndicator:

; 466  : 		{
; 467  : 			pIndicatorBackUp = NULL;
; 468  : 			pIndicatorBackUp = m_lstIndicatorInfoBackUpUndo.GetAt(pos);

  00040	8b 4e 08	 mov	 ecx, DWORD PTR [esi+8]

; 469  : 			if( pIndicatorBackUp == NULL ) break;

  00043	85 c9		 test	 ecx, ecx
  00045	74 0c		 je	 SHORT $LN39@CIndicator

; 470  : 				
; 471  : 			delete pIndicatorBackUp;

  00047	8b 01		 mov	 eax, DWORD PTR [ecx]
  00049	6a 01		 push	 1
  0004b	ff 10		 call	 DWORD PTR [eax]
; File C:\Program Files (x86)\Microsoft Visual Studio\2019\Community\VC\Tools\MSVC\14.29.30133\atlmfc\include\afxtempl.h

; 813  : 		rPosition = (POSITION) pNode->pNext;

  0004d	8b 36		 mov	 esi, DWORD PTR [esi]
; File D:\git\src\IBK\IBK_DRFN\ProjSrc\SrcChartEx\ChartOCX\AddInManager\ChartCommonAddIn\IndicatorInfoUndoRedoManagerAddInImp.cpp

; 465  : 		while(pos)

  0004f	85 f6		 test	 esi, esi
  00051	75 ed		 jne	 SHORT $LL2@CIndicator
$LN39@CIndicator:

; 472  : 			
; 473  : 			m_lstIndicatorInfoBackUpUndo.GetNext(pos);
; 474  : 		}
; 475  : 	}
; 476  : 
; 477  : 	if( m_lstIndicatorInfoBackUpRedo.GetCount() > 0 )

  00053	83 7f 68 00	 cmp	 DWORD PTR [edi+104], 0
  00057	7e 1a		 jle	 SHORT $LN40@CIndicator

; 478  : 	{
; 479  : 		POSITION pos = m_lstIndicatorInfoBackUpRedo.GetHeadPosition();

  00059	8b 77 60	 mov	 esi, DWORD PTR [edi+96]

; 482  : 		while(pos)

  0005c	85 f6		 test	 esi, esi
  0005e	74 13		 je	 SHORT $LN40@CIndicator
$LL4@CIndicator:

; 483  : 		{
; 484  : 			pIndicatorBackUp = NULL;
; 485  : 			pIndicatorBackUp = m_lstIndicatorInfoBackUpRedo.GetAt(pos);

  00060	8b 4e 08	 mov	 ecx, DWORD PTR [esi+8]

; 486  : 			if( pIndicatorBackUp == NULL ) break;

  00063	85 c9		 test	 ecx, ecx
  00065	74 0c		 je	 SHORT $LN40@CIndicator

; 487  : 				
; 488  : 			delete pIndicatorBackUp;

  00067	8b 01		 mov	 eax, DWORD PTR [ecx]
  00069	6a 01		 push	 1
  0006b	ff 10		 call	 DWORD PTR [eax]
; File C:\Program Files (x86)\Microsoft Visual Studio\2019\Community\VC\Tools\MSVC\14.29.30133\atlmfc\include\afxtempl.h

; 813  : 		rPosition = (POSITION) pNode->pNext;

  0006d	8b 36		 mov	 esi, DWORD PTR [esi]
; File D:\git\src\IBK\IBK_DRFN\ProjSrc\SrcChartEx\ChartOCX\AddInManager\ChartCommonAddIn\IndicatorInfoUndoRedoManagerAddInImp.cpp

; 482  : 		while(pos)

  0006f	85 f6		 test	 esi, esi
  00071	75 ed		 jne	 SHORT $LL4@CIndicator
$LN40@CIndicator:
; File C:\Program Files (x86)\Microsoft Visual Studio\2019\Community\VC\Tools\MSVC\14.29.30133\atlmfc\include\afxtempl.h

; 872  : 	m_pBlocks->FreeDataChain();

  00073	8b 4f 70	 mov	 ecx, DWORD PTR [edi+112]

; 878  : {

  00076	c7 45 fc 00 00
	00 00		 mov	 DWORD PTR __$EHRec$[ebp+8], 0
  0007d	c7 47 5c 00 00
	00 00		 mov	 DWORD PTR [edi+92], OFFSET ??_7?$CList@PAVCIndicatorInfoBackUp@@PAV1@@@6B@

; 870  : 	m_nCount = 0;

  00084	c7 47 68 00 00
	00 00		 mov	 DWORD PTR [edi+104], 0

; 871  : 	m_pNodeHead = m_pNodeTail = m_pNodeFree = NULL;

  0008b	c7 47 6c 00 00
	00 00		 mov	 DWORD PTR [edi+108], 0
  00092	c7 47 64 00 00
	00 00		 mov	 DWORD PTR [edi+100], 0
  00099	c7 47 60 00 00
	00 00		 mov	 DWORD PTR [edi+96], 0

; 872  : 	m_pBlocks->FreeDataChain();

  000a0	e8 00 00 00 00	 call	 ?FreeDataChain@CPlex@@QAEXXZ ; CPlex::FreeDataChain

; 873  : 	m_pBlocks = NULL;

  000a5	c7 47 70 00 00
	00 00		 mov	 DWORD PTR [edi+112], 0

; 872  : 	m_pBlocks->FreeDataChain();

  000ac	8b 4f 54	 mov	 ecx, DWORD PTR [edi+84]

; 878  : {

  000af	c7 45 fc 01 00
	00 00		 mov	 DWORD PTR __$EHRec$[ebp+8], 1
  000b6	c7 47 40 00 00
	00 00		 mov	 DWORD PTR [edi+64], OFFSET ??_7?$CList@PAVCIndicatorInfoBackUp@@PAV1@@@6B@

; 870  : 	m_nCount = 0;

  000bd	c7 47 4c 00 00
	00 00		 mov	 DWORD PTR [edi+76], 0

; 871  : 	m_pNodeHead = m_pNodeTail = m_pNodeFree = NULL;

  000c4	c7 47 50 00 00
	00 00		 mov	 DWORD PTR [edi+80], 0
  000cb	c7 47 48 00 00
	00 00		 mov	 DWORD PTR [edi+72], 0
  000d2	c7 47 44 00 00
	00 00		 mov	 DWORD PTR [edi+68], 0

; 872  : 	m_pBlocks->FreeDataChain();

  000d9	e8 00 00 00 00	 call	 ?FreeDataChain@CPlex@@QAEXXZ ; CPlex::FreeDataChain
; File D:\git\src\IBK\IBK_DRFN\ProjSrc\SrcChartEx\ChartOCX\AddInManager\ChartCommonAddIn\IndicatorInfoUndoRedoManagerAddInImp.cpp

; 493  : }

  000de	8b cf		 mov	 ecx, edi
; File C:\Program Files (x86)\Microsoft Visual Studio\2019\Community\VC\Tools\MSVC\14.29.30133\atlmfc\include\afxtempl.h

; 873  : 	m_pBlocks = NULL;

  000e0	c7 47 54 00 00
	00 00		 mov	 DWORD PTR [edi+84], 0
; File D:\git\src\IBK\IBK_DRFN\ProjSrc\SrcChartEx\ChartOCX\AddInManager\ChartCommonAddIn\IndicatorInfoUndoRedoManagerAddInImp.cpp

; 493  : }

  000e7	e8 00 00 00 00	 call	 ??1CChartAddInBase000000@@MAE@XZ ; CChartAddInBase000000::~CChartAddInBase000000
  000ec	8b 4d f4	 mov	 ecx, DWORD PTR __$EHRec$[ebp]
  000ef	64 89 0d 00 00
	00 00		 mov	 DWORD PTR fs:0, ecx
  000f6	59		 pop	 ecx
  000f7	5f		 pop	 edi
  000f8	5e		 pop	 esi
  000f9	8b e5		 mov	 esp, ebp
  000fb	5d		 pop	 ebp
  000fc	c3		 ret	 0
  000fd	cc		 int	 3
  000fe	cc		 int	 3
  000ff	cc		 int	 3
  00100	cc		 int	 3
  00101	cc		 int	 3
_TEXT	ENDS
;	COMDAT text$x
text$x	SEGMENT
__ehhandler$??1CIndicatorInfoUndoRedoManagerAddInImp@@UAE@XZ:
  00000	90		 npad	 1
  00001	90		 npad	 1
  00002	8b 54 24 08	 mov	 edx, DWORD PTR [esp+8]
  00006	8d 42 0c	 lea	 eax, DWORD PTR [edx+12]
  00009	8b 4a f4	 mov	 ecx, DWORD PTR [edx-12]
  0000c	33 c8		 xor	 ecx, eax
  0000e	e8 00 00 00 00	 call	 @__security_check_cookie@4
  00013	b8 00 00 00 00	 mov	 eax, OFFSET __ehfuncinfo$??1CIndicatorInfoUndoRedoManagerAddInImp@@UAE@XZ
  00018	e9 00 00 00 00	 jmp	 ___CxxFrameHandler3
text$x	ENDS
??1CIndicatorInfoUndoRedoManagerAddInImp@@UAE@XZ ENDP	; CIndicatorInfoUndoRedoManagerAddInImp::~CIndicatorInfoUndoRedoManagerAddInImp
; Function compile flags: /Ogtp
; File D:\git\src\IBK\IBK_DRFN\ProjSrc\SrcChartEx\ChartOCX\AddInManager\ChartCommonAddIn\IndicatorInfoUndoRedoManagerAddInImp.cpp
; File C:\Program Files (x86)\Microsoft Visual Studio\2019\Community\VC\Tools\MSVC\14.29.30133\atlmfc\include\afxtempl.h
; File D:\git\src\IBK\IBK_DRFN\ProjSrc\SrcChartEx\ChartOCX\AddInManager\ChartCommonAddIn\IndicatorInfoUndoRedoManagerAddInImp.cpp
;	COMDAT ??0CIndicatorInfoUndoRedoManagerAddInImp@@QAE@PAUIChartOCX000000@@PAUIAddInDllBase@@@Z
_TEXT	SEGMENT
_this$ = -4						; size = 4
_p_pIChartOCX$ = 8					; size = 4
_p_pIAddInDllBase$ = 12					; size = 4
??0CIndicatorInfoUndoRedoManagerAddInImp@@QAE@PAUIChartOCX000000@@PAUIAddInDllBase@@@Z PROC ; CIndicatorInfoUndoRedoManagerAddInImp::CIndicatorInfoUndoRedoManagerAddInImp, COMDAT
; _this$ = ecx

; 453  : {

  00000	55		 push	 ebp
  00001	8b ec		 mov	 ebp, esp
  00003	51		 push	 ecx
  00004	56		 push	 esi
  00005	ff 75 0c	 push	 DWORD PTR _p_pIAddInDllBase$[ebp]
  00008	8b f1		 mov	 esi, ecx
  0000a	ff 75 08	 push	 DWORD PTR _p_pIChartOCX$[ebp]
  0000d	89 75 fc	 mov	 DWORD PTR _this$[ebp], esi
  00010	e8 00 00 00 00	 call	 ??0CChartAddInBase000000@@IAE@PAUIChartOCX000000@@PAUIAddInDllBase@@@Z ; CChartAddInBase000000::CChartAddInBase000000
  00015	c7 06 00 00 00
	00		 mov	 DWORD PTR [esi], OFFSET ??_7CIndicatorInfoUndoRedoManagerAddInImp@@6BCIWUnknown@@@

; 455  : }

  0001b	8b c6		 mov	 eax, esi
  0001d	c7 46 08 00 00
	00 00		 mov	 DWORD PTR [esi+8], OFFSET ??_7CIndicatorInfoUndoRedoManagerAddInImp@@6BIChartAddIn000000@@@
; File C:\Program Files (x86)\Microsoft Visual Studio\2019\Community\VC\Tools\MSVC\14.29.30133\atlmfc\include\afxtempl.h

; 851  : {

  00024	c7 46 40 00 00
	00 00		 mov	 DWORD PTR [esi+64], OFFSET ??_7?$CList@PAVCIndicatorInfoBackUp@@PAV1@@@6B@

; 852  : 	ASSERT(nBlockSize > 0);
; 853  : 
; 854  : 	m_nCount = 0;

  0002b	c7 46 4c 00 00
	00 00		 mov	 DWORD PTR [esi+76], 0

; 855  : 	m_pNodeHead = m_pNodeTail = m_pNodeFree = NULL;

  00032	c7 46 50 00 00
	00 00		 mov	 DWORD PTR [esi+80], 0
  00039	c7 46 48 00 00
	00 00		 mov	 DWORD PTR [esi+72], 0
  00040	c7 46 44 00 00
	00 00		 mov	 DWORD PTR [esi+68], 0

; 856  : 	m_pBlocks = NULL;

  00047	c7 46 54 00 00
	00 00		 mov	 DWORD PTR [esi+84], 0

; 857  : 	m_nBlockSize = nBlockSize;

  0004e	c7 46 58 0a 00
	00 00		 mov	 DWORD PTR [esi+88], 10	; 0000000aH

; 851  : {

  00055	c7 46 5c 00 00
	00 00		 mov	 DWORD PTR [esi+92], OFFSET ??_7?$CList@PAVCIndicatorInfoBackUp@@PAV1@@@6B@

; 852  : 	ASSERT(nBlockSize > 0);
; 853  : 
; 854  : 	m_nCount = 0;

  0005c	c7 46 68 00 00
	00 00		 mov	 DWORD PTR [esi+104], 0

; 855  : 	m_pNodeHead = m_pNodeTail = m_pNodeFree = NULL;

  00063	c7 46 6c 00 00
	00 00		 mov	 DWORD PTR [esi+108], 0
  0006a	c7 46 64 00 00
	00 00		 mov	 DWORD PTR [esi+100], 0
  00071	c7 46 60 00 00
	00 00		 mov	 DWORD PTR [esi+96], 0

; 856  : 	m_pBlocks = NULL;

  00078	c7 46 70 00 00
	00 00		 mov	 DWORD PTR [esi+112], 0

; 857  : 	m_nBlockSize = nBlockSize;

  0007f	c7 46 74 0a 00
	00 00		 mov	 DWORD PTR [esi+116], 10	; 0000000aH
; File D:\git\src\IBK\IBK_DRFN\ProjSrc\SrcChartEx\ChartOCX\AddInManager\ChartCommonAddIn\IndicatorInfoUndoRedoManagerAddInImp.cpp

; 454  : 	m_bIsOnlyViewData = false;

  00086	c6 46 7c 00	 mov	 BYTE PTR [esi+124], 0

; 455  : }

  0008a	5e		 pop	 esi
  0008b	8b e5		 mov	 esp, ebp
  0008d	5d		 pop	 ebp
  0008e	c2 08 00	 ret	 8
??0CIndicatorInfoUndoRedoManagerAddInImp@@QAE@PAUIChartOCX000000@@PAUIAddInDllBase@@@Z ENDP ; CIndicatorInfoUndoRedoManagerAddInImp::CIndicatorInfoUndoRedoManagerAddInImp
_TEXT	ENDS
; Function compile flags: /Ogtp
; File D:\git\src\IBK\IBK_DRFN\ProjSrc\SrcChartEx\ChartOCX\AddInManager\ChartCommonAddIn\IndicatorInfoUndoRedoManagerAddInImp.cpp
;	COMDAT ??_GCIndicatorInfoBackUp@@UAEPAXI@Z
_TEXT	SEGMENT
___flags$ = 8						; size = 4
??_GCIndicatorInfoBackUp@@UAEPAXI@Z PROC		; CIndicatorInfoBackUp::`scalar deleting destructor', COMDAT
; _this$ = ecx
  00000	55		 push	 ebp
  00001	8b ec		 mov	 ebp, esp

; 367  : {

  00003	56		 push	 esi
  00004	8b f1		 mov	 esi, ecx
  00006	8d 4e 24	 lea	 ecx, DWORD PTR [esi+36]
  00009	c7 06 00 00 00
	00		 mov	 DWORD PTR [esi], OFFSET ??_7CIndicatorInfoBackUp@@6B@
  0000f	ff 15 00 00 00
	00		 call	 DWORD PTR __imp_??1?$CStringT@DV?$StrTraitMFC_DLL@DV?$ChTraitsCRT@D@ATL@@@@@ATL@@QAE@XZ

; 368  : }

  00015	8d 4e 04	 lea	 ecx, DWORD PTR [esi+4]
  00018	e8 00 00 00 00	 call	 ??1CIndiInfoDataList@@UAE@XZ ; CIndiInfoDataList::~CIndiInfoDataList
  0001d	f6 45 08 01	 test	 BYTE PTR ___flags$[ebp], 1
  00021	74 0b		 je	 SHORT $LN10@scalar
  00023	6a 2c		 push	 44			; 0000002cH
  00025	56		 push	 esi
  00026	e8 00 00 00 00	 call	 ??3@YAXPAXI@Z		; operator delete
  0002b	83 c4 08	 add	 esp, 8
$LN10@scalar:
  0002e	8b c6		 mov	 eax, esi
  00030	5e		 pop	 esi
  00031	5d		 pop	 ebp
  00032	c2 04 00	 ret	 4
??_GCIndicatorInfoBackUp@@UAEPAXI@Z ENDP		; CIndicatorInfoBackUp::`scalar deleting destructor'
_TEXT	ENDS
; Function compile flags: /Ogtp
; File D:\git\src\IBK\IBK_DRFN\ProjSrc\SrcChartEx\ChartOCX\AddInManager\ChartCommonAddIn\IndicatorInfoUndoRedoManagerAddInImp.cpp
; File C:\Program Files (x86)\Microsoft Visual Studio\2019\Community\VC\Tools\MSVC\14.29.30133\atlmfc\include\afxtempl.h
; File D:\git\src\IBK\IBK_DRFN\ProjSrc\SrcChartEx\ChartOCX\AddInManager\ChartCommonAddIn\IndicatorInfoUndoRedoManagerAddInImp.cpp
;	COMDAT ?Initialize@CIndicatorInfoBackUp@@QAEXXZ
_TEXT	SEGMENT
?Initialize@CIndicatorInfoBackUp@@QAEXXZ PROC		; CIndicatorInfoBackUp::Initialize, COMDAT
; _this$ = ecx

; 379  : {

  00000	56		 push	 esi

; 114  : 	POSITION pos = m_indiInfoDataList.GetHeadPosition();

  00001	8b 71 0c	 mov	 esi, DWORD PTR [ecx+12]

; 115  : 
; 116  : 	while(pos != NULL)

  00004	85 f6		 test	 esi, esi
  00006	74 13		 je	 SHORT $LN5@Initialize
$LL4@Initialize:

; 41   : 	delete pIndiInfoData;

  00008	8b 4e 08	 mov	 ecx, DWORD PTR [esi+8]
; File C:\Program Files (x86)\Microsoft Visual Studio\2019\Community\VC\Tools\MSVC\14.29.30133\atlmfc\include\afxtempl.h

; 813  : 		rPosition = (POSITION) pNode->pNext;

  0000b	8b 36		 mov	 esi, DWORD PTR [esi]
; File D:\git\src\IBK\IBK_DRFN\ProjSrc\SrcChartEx\ChartOCX\AddInManager\ChartCommonAddIn\IndicatorInfoUndoRedoManagerAddInImp.cpp

; 41   : 	delete pIndiInfoData;

  0000d	85 c9		 test	 ecx, ecx
  0000f	74 06		 je	 SHORT $LN11@Initialize
  00011	8b 01		 mov	 eax, DWORD PTR [ecx]
  00013	6a 01		 push	 1
  00015	ff 10		 call	 DWORD PTR [eax]
$LN11@Initialize:

; 116  : 	while(pos != NULL)

  00017	85 f6		 test	 esi, esi
  00019	75 ed		 jne	 SHORT $LL4@Initialize
$LN5@Initialize:
  0001b	5e		 pop	 esi

; 380  : 	m_indiInfoDataList.DeleteAll();
; 381  : }

  0001c	c3		 ret	 0
?Initialize@CIndicatorInfoBackUp@@QAEXXZ ENDP		; CIndicatorInfoBackUp::Initialize
_TEXT	ENDS
; Function compile flags: /Ogtp
; File D:\git\src\IBK\IBK_DRFN\ProjSrc\SrcChartEx\ChartOCX\AddInManager\ChartCommonAddIn\IndicatorInfoUndoRedoManagerAddInImp.cpp
; File D:\git\src\IBK\IBK_DRFN\ProjSrc\SrcChartEx\ChartOCX\AddInManager\Include_AddIn\I000000\_IString.h
; File D:\git\src\IBK\IBK_DRFN\ProjSrc\SrcChartEx\ChartOCX\AddInManager\ChartCommonAddIn\IndicatorInfoUndoRedoManagerAddInImp.cpp
; File C:\Program Files (x86)\Microsoft Visual Studio\2019\Community\VC\Tools\MSVC\14.29.30133\atlmfc\include\afxtempl.h
; File D:\git\src\IBK\IBK_DRFN\ProjSrc\SrcChartEx\ChartOCX\AddInManager\ChartCommonAddIn\IndicatorInfoUndoRedoManagerAddInImp.cpp
; File C:\Program Files (x86)\Microsoft Visual Studio\2019\Community\VC\Tools\MSVC\14.29.30133\atlmfc\include\cstringt.h
; File D:\git\src\IBK\IBK_DRFN\ProjSrc\SrcChartEx\ChartOCX\AddInManager\ChartCommonAddIn\IndicatorInfoUndoRedoManagerAddInImp.cpp
; File C:\Program Files (x86)\Microsoft Visual Studio\2019\Community\VC\Tools\MSVC\14.29.30133\atlmfc\include\cstringt.h
; File D:\git\src\IBK\IBK_DRFN\ProjSrc\SrcChartEx\ChartOCX\AddInManager\ChartCommonAddIn\IndicatorInfoUndoRedoManagerAddInImp.cpp
; File C:\Program Files (x86)\Microsoft Visual Studio\2019\Community\VC\Tools\MSVC\14.29.30133\atlmfc\include\cstringt.h
; File D:\git\src\IBK\IBK_DRFN\ProjSrc\SrcChartEx\ChartOCX\AddInManager\ChartCommonAddIn\IndicatorInfoUndoRedoManagerAddInImp.cpp
; File D:\git\src\IBK\IBK_DRFN\ProjSrc\SrcChartEx\ChartOCX\AddInManager\Include_AddIn\I000000\_IString.h
; File D:\git\src\IBK\IBK_DRFN\ProjSrc\SrcChartEx\ChartOCX\AddInManager\ChartCommonAddIn\IndicatorInfoUndoRedoManagerAddInImp.cpp
; File D:\git\src\IBK\IBK_DRFN\ProjSrc\SrcChartEx\ChartOCX\AddInManager\Include_AddIn\I000000\_IString.h
; File D:\git\src\IBK\IBK_DRFN\ProjSrc\SrcChartEx\ChartOCX\AddInManager\ChartCommonAddIn\IndicatorInfoUndoRedoManagerAddInImp.cpp
;	COMDAT ?AddTail@CIndicatorInfoBackUp@@QAE_NPAUIGraphInfo000000@@_N@Z
_TEXT	SEGMENT
_szGraphName$2 = -28					; size = 8
$T3 = -20						; size = 4
_this$1$ = -16						; size = 4
__$EHRec$ = -12						; size = 12
$T4 = 8							; size = 4
_p_pIGraphInfo$ = 8					; size = 4
_bTheBeginning$ = 12					; size = 1
?AddTail@CIndicatorInfoBackUp@@QAE_NPAUIGraphInfo000000@@_N@Z PROC ; CIndicatorInfoBackUp::AddTail, COMDAT
; _this$ = ecx

; 372  : {

  00000	55		 push	 ebp
  00001	8b ec		 mov	 ebp, esp
  00003	6a ff		 push	 -1
  00005	68 00 00 00 00	 push	 __ehhandler$?AddTail@CIndicatorInfoBackUp@@QAE_NPAUIGraphInfo000000@@_N@Z
  0000a	64 a1 00 00 00
	00		 mov	 eax, DWORD PTR fs:0
  00010	50		 push	 eax
  00011	83 ec 10	 sub	 esp, 16			; 00000010H
  00014	53		 push	 ebx
  00015	56		 push	 esi
  00016	57		 push	 edi
  00017	a1 00 00 00 00	 mov	 eax, DWORD PTR ___security_cookie
  0001c	33 c5		 xor	 eax, ebp
  0001e	50		 push	 eax
  0001f	8d 45 f4	 lea	 eax, DWORD PTR __$EHRec$[ebp]
  00022	64 a3 00 00 00
	00		 mov	 DWORD PTR fs:0, eax
  00028	89 4d f0	 mov	 DWORD PTR _this$1$[ebp], ecx

; 101  : 	if(p_pIGraphInfo == NULL)

  0002b	8b 7d 08	 mov	 edi, DWORD PTR _p_pIGraphInfo$[ebp]
  0002e	85 ff		 test	 edi, edi
  00030	0f 84 bc 00 00
	00		 je	 $LN26@AddTail

; 104  : 	ILPCSTR szGraphName = p_pIGraphInfo->GetGraphNameString();

  00036	8b 07		 mov	 eax, DWORD PTR [edi]
  00038	8b cf		 mov	 ecx, edi
  0003a	ff 90 98 00 00
	00		 call	 DWORD PTR [eax+152]
; File D:\git\src\IBK\IBK_DRFN\ProjSrc\SrcChartEx\ChartOCX\AddInManager\Include_AddIn\I000000\_IString.h

; 39   : 		m_pIStrData = p_pIString;	// Do not AddRef(). Because It must be Return Value.

  00040	8b d8		 mov	 ebx, eax
  00042	89 5d e8	 mov	 DWORD PTR _szGraphName$2[ebp+4], ebx

; 40   : 		if( m_pIStrData) m_szData = m_pIStrData->GetData();

  00045	85 db		 test	 ebx, ebx
  00047	74 0b		 je	 SHORT $LN9@AddTail
  00049	8b 13		 mov	 edx, DWORD PTR [ebx]
  0004b	8b cb		 mov	 ecx, ebx
  0004d	ff 52 10	 call	 DWORD PTR [edx+16]
  00050	8b f0		 mov	 esi, eax
  00052	eb 02		 jmp	 SHORT $LN50@AddTail
$LN9@AddTail:

; 41   : 		else m_szData = NULL;

  00054	33 f6		 xor	 esi, esi
$LN50@AddTail:
; File D:\git\src\IBK\IBK_DRFN\ProjSrc\SrcChartEx\ChartOCX\AddInManager\ChartCommonAddIn\IndicatorInfoUndoRedoManagerAddInImp.cpp

; 104  : 	ILPCSTR szGraphName = p_pIGraphInfo->GetGraphNameString();

  00056	89 75 e4	 mov	 DWORD PTR _szGraphName$2[ebp], esi
  00059	c7 45 fc 00 00
	00 00		 mov	 DWORD PTR __$EHRec$[ebp+8], 0

; 275  : 	if( !p_szGraphName) return false;

  00060	85 f6		 test	 esi, esi
  00062	74 4b		 je	 SHORT $LN46@AddTail

; 276  : 	if( !*p_szGraphName) return false;

  00064	80 3e 00	 cmp	 BYTE PTR [esi], 0
  00067	74 46		 je	 SHORT $LN46@AddTail

; 277  : 
; 278  : 	POSITION pos = m_indiInfoDataList.GetHeadPosition();

  00069	8b 7d f0	 mov	 edi, DWORD PTR _this$1$[ebp]
  0006c	8b 7f 0c	 mov	 edi, DWORD PTR [edi+12]

; 279  : 	while(pos != NULL)

  0006f	85 ff		 test	 edi, edi
  00071	74 39		 je	 SHORT $LN48@AddTail
$LL13@AddTail:

; 280  : 	{
; 281  : 		CIndiInfoData* pIndiInfoData = m_indiInfoDataList.GetNext(pos);

  00073	8b 4f 08	 mov	 ecx, DWORD PTR [edi+8]
; File C:\Program Files (x86)\Microsoft Visual Studio\2019\Community\VC\Tools\MSVC\14.29.30133\atlmfc\include\afxtempl.h

; 819  : 		rPosition = (POSITION) pNode->pNext;

  00076	8b 3f		 mov	 edi, DWORD PTR [edi]
; File D:\git\src\IBK\IBK_DRFN\ProjSrc\SrcChartEx\ChartOCX\AddInManager\ChartCommonAddIn\IndicatorInfoUndoRedoManagerAddInImp.cpp

; 282  : 		if(pIndiInfoData == NULL)

  00078	85 c9		 test	 ecx, ecx
  0007a	74 2c		 je	 SHORT $LN18@AddTail

; 285  : 		if(pIndiInfoData->GetIndicatorName() == p_szGraphName)

  0007c	8d 45 ec	 lea	 eax, DWORD PTR $T3[ebp]
  0007f	50		 push	 eax
  00080	e8 00 00 00 00	 call	 ?GetIndicatorName@CIndiInfoData@@QBE?AV?$CStringT@DV?$StrTraitMFC_DLL@DV?$ChTraitsCRT@D@ATL@@@@@ATL@@XZ ; CIndiInfoData::GetIndicatorName
; File C:\Program Files (x86)\Microsoft Visual Studio\2019\Community\VC\Tools\MSVC\14.29.30133\atlmfc\include\cstringt.h

; 2486 : 		return(str1.Compare(psz2) == 0);

  00085	56		 push	 esi
  00086	8b c8		 mov	 ecx, eax
; File D:\git\src\IBK\IBK_DRFN\ProjSrc\SrcChartEx\ChartOCX\AddInManager\ChartCommonAddIn\IndicatorInfoUndoRedoManagerAddInImp.cpp

; 285  : 		if(pIndiInfoData->GetIndicatorName() == p_szGraphName)

  00088	c6 45 fc 01	 mov	 BYTE PTR __$EHRec$[ebp+8], 1
; File C:\Program Files (x86)\Microsoft Visual Studio\2019\Community\VC\Tools\MSVC\14.29.30133\atlmfc\include\cstringt.h

; 2486 : 		return(str1.Compare(psz2) == 0);

  0008c	ff 15 00 00 00
	00		 call	 DWORD PTR __imp_?Compare@?$CStringT@DV?$StrTraitMFC_DLL@DV?$ChTraitsCRT@D@ATL@@@@@ATL@@QBEHPBD@Z
; File D:\git\src\IBK\IBK_DRFN\ProjSrc\SrcChartEx\ChartOCX\AddInManager\ChartCommonAddIn\IndicatorInfoUndoRedoManagerAddInImp.cpp

; 285  : 		if(pIndiInfoData->GetIndicatorName() == p_szGraphName)

  00092	8d 4d ec	 lea	 ecx, DWORD PTR $T3[ebp]
  00095	c6 45 fc 00	 mov	 BYTE PTR __$EHRec$[ebp+8], 0
; File C:\Program Files (x86)\Microsoft Visual Studio\2019\Community\VC\Tools\MSVC\14.29.30133\atlmfc\include\cstringt.h

; 2486 : 		return(str1.Compare(psz2) == 0);

  00099	8b f0		 mov	 esi, eax
; File D:\git\src\IBK\IBK_DRFN\ProjSrc\SrcChartEx\ChartOCX\AddInManager\ChartCommonAddIn\IndicatorInfoUndoRedoManagerAddInImp.cpp

; 285  : 		if(pIndiInfoData->GetIndicatorName() == p_szGraphName)

  0009b	ff 15 00 00 00
	00		 call	 DWORD PTR __imp_??1?$CStringT@DV?$StrTraitMFC_DLL@DV?$ChTraitsCRT@D@ATL@@@@@ATL@@QAE@XZ
  000a1	85 f6		 test	 esi, esi
  000a3	74 3c		 je	 SHORT $LN45@AddTail
  000a5	8b 75 e4	 mov	 esi, DWORD PTR _szGraphName$2[ebp]
$LN18@AddTail:

; 279  : 	while(pos != NULL)

  000a8	85 ff		 test	 edi, edi
  000aa	75 c7		 jne	 SHORT $LL13@AddTail
$LN48@AddTail:

; 35   : 	return new CIndiInfoData(p_pIGraphInfo, bTheBeginning);

  000ac	8b 7d 08	 mov	 edi, DWORD PTR _p_pIGraphInfo$[ebp]
$LN46@AddTail:
  000af	6a 0c		 push	 12			; 0000000cH
  000b1	e8 00 00 00 00	 call	 ??2@YAPAXI@Z		; operator new
  000b6	8b f0		 mov	 esi, eax
  000b8	83 c4 04	 add	 esp, 4
  000bb	89 75 08	 mov	 DWORD PTR $T4[ebp], esi
  000be	c6 45 fc 03	 mov	 BYTE PTR __$EHRec$[ebp+8], 3
  000c2	85 f6		 test	 esi, esi
  000c4	74 42		 je	 SHORT $LN31@AddTail

; 17   : 	m_bTheBeginning(bTheBeginning)

  000c6	8a 55 0c	 mov	 dl, BYTE PTR _bTheBeginning$[ebp]

; 18   : {
; 19   : 	m_pIGraphInfo = p_pIGraphInfo->CreateCopyObject();

  000c9	8b cf		 mov	 ecx, edi
  000cb	c7 06 00 00 00
	00		 mov	 DWORD PTR [esi], OFFSET ??_7CIndiInfoData@@6B@
  000d1	88 56 04	 mov	 BYTE PTR [esi+4], dl
  000d4	8b 07		 mov	 eax, DWORD PTR [edi]
  000d6	ff 90 ac 00 00
	00		 call	 DWORD PTR [eax+172]
  000dc	89 46 08	 mov	 DWORD PTR [esi+8], eax

; 35   : 	return new CIndiInfoData(p_pIGraphInfo, bTheBeginning);

  000df	eb 29		 jmp	 SHORT $LN32@AddTail
$LN45@AddTail:
; File D:\git\src\IBK\IBK_DRFN\ProjSrc\SrcChartEx\ChartOCX\AddInManager\Include_AddIn\I000000\_IString.h

; 44   : 	{

  000e1	c7 45 fc 02 00
	00 00		 mov	 DWORD PTR __$EHRec$[ebp+8], 2

; 45   : 		if( m_pIStrData)

  000e8	85 db		 test	 ebx, ebx
  000ea	74 06		 je	 SHORT $LN26@AddTail

; 46   : 		{
; 47   : 			m_pIStrData->Release();

  000ec	8b 03		 mov	 eax, DWORD PTR [ebx]
  000ee	53		 push	 ebx
  000ef	ff 50 08	 call	 DWORD PTR [eax+8]
$LN26@AddTail:
; File D:\git\src\IBK\IBK_DRFN\ProjSrc\SrcChartEx\ChartOCX\AddInManager\ChartCommonAddIn\IndicatorInfoUndoRedoManagerAddInImp.cpp

; 375  : }

  000f2	32 c0		 xor	 al, al
  000f4	8b 4d f4	 mov	 ecx, DWORD PTR __$EHRec$[ebp]
  000f7	64 89 0d 00 00
	00 00		 mov	 DWORD PTR fs:0, ecx
  000fe	59		 pop	 ecx
  000ff	5f		 pop	 edi
  00100	5e		 pop	 esi
  00101	5b		 pop	 ebx
  00102	8b e5		 mov	 esp, ebp
  00104	5d		 pop	 ebp
  00105	c2 08 00	 ret	 8
$LN31@AddTail:

; 35   : 	return new CIndiInfoData(p_pIGraphInfo, bTheBeginning);

  00108	33 f6		 xor	 esi, esi
$LN32@AddTail:

; 107  : 	m_indiInfoDataList.AddTail( CIndiInfoData::Make(p_pIGraphInfo, bTheBeginning));

  0010a	8b 4d f0	 mov	 ecx, DWORD PTR _this$1$[ebp]
  0010d	56		 push	 esi

; 35   : 	return new CIndiInfoData(p_pIGraphInfo, bTheBeginning);

  0010e	c6 45 fc 00	 mov	 BYTE PTR __$EHRec$[ebp+8], 0

; 107  : 	m_indiInfoDataList.AddTail( CIndiInfoData::Make(p_pIGraphInfo, bTheBeginning));

  00112	8d 49 08	 lea	 ecx, DWORD PTR [ecx+8]
  00115	e8 00 00 00 00	 call	 ?AddTail@?$CList@PAVCIndiInfoData@@PAV1@@@QAEPAU__POSITION@@PAVCIndiInfoData@@@Z ; CList<CIndiInfoData *,CIndiInfoData *>::AddTail
; File D:\git\src\IBK\IBK_DRFN\ProjSrc\SrcChartEx\ChartOCX\AddInManager\Include_AddIn\I000000\_IString.h

; 44   : 	{

  0011a	c7 45 fc 04 00
	00 00		 mov	 DWORD PTR __$EHRec$[ebp+8], 4

; 45   : 		if( m_pIStrData)

  00121	85 db		 test	 ebx, ebx
  00123	74 06		 je	 SHORT $LN37@AddTail

; 46   : 		{
; 47   : 			m_pIStrData->Release();

  00125	8b 03		 mov	 eax, DWORD PTR [ebx]
  00127	53		 push	 ebx
  00128	ff 50 08	 call	 DWORD PTR [eax+8]
$LN37@AddTail:
; File D:\git\src\IBK\IBK_DRFN\ProjSrc\SrcChartEx\ChartOCX\AddInManager\ChartCommonAddIn\IndicatorInfoUndoRedoManagerAddInImp.cpp

; 108  : 	return true;

  0012b	b0 01		 mov	 al, 1

; 375  : }

  0012d	8b 4d f4	 mov	 ecx, DWORD PTR __$EHRec$[ebp]
  00130	64 89 0d 00 00
	00 00		 mov	 DWORD PTR fs:0, ecx
  00137	59		 pop	 ecx
  00138	5f		 pop	 edi
  00139	5e		 pop	 esi
  0013a	5b		 pop	 ebx
  0013b	8b e5		 mov	 esp, ebp
  0013d	5d		 pop	 ebp
  0013e	c2 08 00	 ret	 8
_TEXT	ENDS
;	COMDAT text$x
text$x	SEGMENT
__unwindfunclet$?AddTail@CIndicatorInfoBackUp@@QAE_NPAUIGraphInfo000000@@_N@Z$0:
  00000	8d 4d e4	 lea	 ecx, DWORD PTR _szGraphName$2[ebp]
  00003	e9 00 00 00 00	 jmp	 ??1ILPCSTR000000@@QAE@XZ ; ILPCSTR000000::~ILPCSTR000000
__unwindfunclet$?AddTail@CIndicatorInfoBackUp@@QAE_NPAUIGraphInfo000000@@_N@Z$1:
  00008	8d 4d ec	 lea	 ecx, DWORD PTR $T3[ebp]
  0000b	ff 25 00 00 00
	00		 jmp	 DWORD PTR __imp_??1?$CStringT@DV?$StrTraitMFC_DLL@DV?$ChTraitsCRT@D@ATL@@@@@ATL@@QAE@XZ
__unwindfunclet$?AddTail@CIndicatorInfoBackUp@@QAE_NPAUIGraphInfo000000@@_N@Z$3:
  00011	6a 0c		 push	 12			; 0000000cH
  00013	8b 45 08	 mov	 eax, DWORD PTR $T4[ebp]
  00016	50		 push	 eax
  00017	e8 00 00 00 00	 call	 ??3@YAXPAXI@Z		; operator delete
  0001c	83 c4 08	 add	 esp, 8
  0001f	c3		 ret	 0
  00020	cc		 int	 3
  00021	cc		 int	 3
  00022	cc		 int	 3
  00023	cc		 int	 3
  00024	cc		 int	 3
__ehhandler$?AddTail@CIndicatorInfoBackUp@@QAE_NPAUIGraphInfo000000@@_N@Z:
  00025	90		 npad	 1
  00026	90		 npad	 1
  00027	8b 54 24 08	 mov	 edx, DWORD PTR [esp+8]
  0002b	8d 42 0c	 lea	 eax, DWORD PTR [edx+12]
  0002e	8b 4a e0	 mov	 ecx, DWORD PTR [edx-32]
  00031	33 c8		 xor	 ecx, eax
  00033	e8 00 00 00 00	 call	 @__security_check_cookie@4
  00038	b8 00 00 00 00	 mov	 eax, OFFSET __ehfuncinfo$?AddTail@CIndicatorInfoBackUp@@QAE_NPAUIGraphInfo000000@@_N@Z
  0003d	e9 00 00 00 00	 jmp	 ___CxxFrameHandler3
text$x	ENDS
?AddTail@CIndicatorInfoBackUp@@QAE_NPAUIGraphInfo000000@@_N@Z ENDP ; CIndicatorInfoBackUp::AddTail
; Function compile flags: /Ogtp
; File D:\git\src\IBK\IBK_DRFN\ProjSrc\SrcChartEx\ChartOCX\AddInManager\ChartCommonAddIn\IndicatorInfoUndoRedoManagerAddInImp.cpp
;	COMDAT ?GetIndiInfoDataList@CIndicatorInfoBackUp@@QAEAAVCIndiInfoDataList@@XZ
_TEXT	SEGMENT
?GetIndiInfoDataList@CIndicatorInfoBackUp@@QAEAAVCIndiInfoDataList@@XZ PROC ; CIndicatorInfoBackUp::GetIndiInfoDataList, COMDAT
; _this$ = ecx

; 426  : 	return m_indiInfoDataList;

  00000	8d 41 04	 lea	 eax, DWORD PTR [ecx+4]

; 427  : }

  00003	c3		 ret	 0
?GetIndiInfoDataList@CIndicatorInfoBackUp@@QAEAAVCIndiInfoDataList@@XZ ENDP ; CIndicatorInfoBackUp::GetIndiInfoDataList
_TEXT	ENDS
; Function compile flags: /Ogtp
; File D:\git\src\IBK\IBK_DRFN\ProjSrc\SrcChartEx\ChartOCX\AddInManager\ChartCommonAddIn\IndicatorInfoUndoRedoManagerAddInImp.cpp
;	COMDAT ?GetGraphEtcData@CIndicatorInfoBackUp@@QAEAAVCGraphEtcData@@XZ
_TEXT	SEGMENT
?GetGraphEtcData@CIndicatorInfoBackUp@@QAEAAVCGraphEtcData@@XZ PROC ; CIndicatorInfoBackUp::GetGraphEtcData, COMDAT
; _this$ = ecx

; 420  : 	return m_graphEtcData;

  00000	8d 41 24	 lea	 eax, DWORD PTR [ecx+36]

; 421  : }

  00003	c3		 ret	 0
?GetGraphEtcData@CIndicatorInfoBackUp@@QAEAAVCGraphEtcData@@XZ ENDP ; CIndicatorInfoBackUp::GetGraphEtcData
_TEXT	ENDS
; Function compile flags: /Ogtp
; File D:\git\src\IBK\IBK_DRFN\ProjSrc\SrcChartEx\ChartOCX\AddInManager\ChartCommonAddIn\IndicatorInfoUndoRedoManagerAddInImp.cpp
; File C:\Program Files (x86)\Microsoft Visual Studio\2019\Community\VC\Tools\MSVC\14.29.30133\atlmfc\include\afxtempl.h
; File D:\git\src\IBK\IBK_DRFN\ProjSrc\SrcChartEx\ChartOCX\AddInManager\ChartCommonAddIn\IndicatorInfoUndoRedoManagerAddInImp.cpp
; File D:\git\src\IBK\IBK_DRFN\ProjSrc\SrcChartEx\ChartOCX\AddInManager\Include_AddIn\I000000\_IString.h
; File D:\git\src\IBK\IBK_DRFN\ProjSrc\SrcChartEx\ChartOCX\AddInManager\ChartCommonAddIn\IndicatorInfoUndoRedoManagerAddInImp.cpp
; File C:\Program Files (x86)\Microsoft Visual Studio\2019\Community\VC\Tools\MSVC\14.29.30133\atlmfc\include\cstringt.h
; File D:\git\src\IBK\IBK_DRFN\ProjSrc\SrcChartEx\ChartOCX\AddInManager\ChartCommonAddIn\IndicatorInfoUndoRedoManagerAddInImp.cpp
; File C:\Program Files (x86)\Microsoft Visual Studio\2019\Community\VC\Tools\MSVC\14.29.30133\atlmfc\include\cstringt.h
; File D:\git\src\IBK\IBK_DRFN\ProjSrc\SrcChartEx\ChartOCX\AddInManager\ChartCommonAddIn\IndicatorInfoUndoRedoManagerAddInImp.cpp
; File C:\Program Files (x86)\Microsoft Visual Studio\2019\Community\VC\Tools\MSVC\14.29.30133\atlmfc\include\cstringt.h
; File D:\git\src\IBK\IBK_DRFN\ProjSrc\SrcChartEx\ChartOCX\AddInManager\ChartCommonAddIn\IndicatorInfoUndoRedoManagerAddInImp.cpp
; File D:\git\src\IBK\IBK_DRFN\ProjSrc\SrcChartEx\ChartOCX\AddInManager\Include_AddIn\I000000\_IString.h
; File D:\git\src\IBK\IBK_DRFN\ProjSrc\SrcChartEx\ChartOCX\AddInManager\ChartCommonAddIn\IndicatorInfoUndoRedoManagerAddInImp.cpp
; File D:\git\src\IBK\IBK_DRFN\ProjSrc\SrcChartEx\ChartOCX\AddInManager\Include_AddIn\I000000\_IString.h
; File D:\git\src\IBK\IBK_DRFN\ProjSrc\SrcChartEx\ChartOCX\AddInManager\ChartCommonAddIn\IndicatorInfoUndoRedoManagerAddInImp.cpp
;	COMDAT ?IsIndicatorInfo@CIndicatorInfoBackUp@@QAE_NPAUIGraphInfo000000@@@Z
_TEXT	SEGMENT
_szGraphName$2 = -28					; size = 8
$T3 = -20						; size = 4
tv253 = -16						; size = 4
__$EHRec$ = -12						; size = 12
_p_pIGraphInfo$ = 8					; size = 4
?IsIndicatorInfo@CIndicatorInfoBackUp@@QAE_NPAUIGraphInfo000000@@@Z PROC ; CIndicatorInfoBackUp::IsIndicatorInfo, COMDAT
; _this$ = ecx

; 403  : {

  00000	55		 push	 ebp
  00001	8b ec		 mov	 ebp, esp
  00003	6a ff		 push	 -1
  00005	68 00 00 00 00	 push	 __ehhandler$?IsIndicatorInfo@CIndicatorInfoBackUp@@QAE_NPAUIGraphInfo000000@@@Z
  0000a	64 a1 00 00 00
	00		 mov	 eax, DWORD PTR fs:0
  00010	50		 push	 eax
  00011	83 ec 10	 sub	 esp, 16			; 00000010H
  00014	53		 push	 ebx
  00015	56		 push	 esi
  00016	57		 push	 edi
  00017	a1 00 00 00 00	 mov	 eax, DWORD PTR ___security_cookie
  0001c	33 c5		 xor	 eax, ebp
  0001e	50		 push	 eax
  0001f	8d 45 f4	 lea	 eax, DWORD PTR __$EHRec$[ebp]
  00022	64 a3 00 00 00
	00		 mov	 DWORD PTR fs:0, eax

; 404  : 	POSITION pos = m_indiInfoDataList.GetHeadPosition();

  00028	8b 59 0c	 mov	 ebx, DWORD PTR [ecx+12]

; 406  : 	while(pos)

  0002b	85 db		 test	 ebx, ebx
  0002d	0f 84 89 00 00
	00		 je	 $LN3@IsIndicato
$LL2@IsIndicato:

; 410  : 		ILPCSTR szGraphName = p_pIGraphInfo->GetGraphNameString();

  00033	8b 4d 08	 mov	 ecx, DWORD PTR _p_pIGraphInfo$[ebp]

; 214  : 	return m_indiInfoDataList.GetNext(pos);

  00036	8b 43 08	 mov	 eax, DWORD PTR [ebx+8]
; File C:\Program Files (x86)\Microsoft Visual Studio\2019\Community\VC\Tools\MSVC\14.29.30133\atlmfc\include\afxtempl.h

; 813  : 		rPosition = (POSITION) pNode->pNext;

  00039	8b 1b		 mov	 ebx, DWORD PTR [ebx]
; File D:\git\src\IBK\IBK_DRFN\ProjSrc\SrcChartEx\ChartOCX\AddInManager\ChartCommonAddIn\IndicatorInfoUndoRedoManagerAddInImp.cpp

; 214  : 	return m_indiInfoDataList.GetNext(pos);

  0003b	89 45 f0	 mov	 DWORD PTR tv253[ebp], eax

; 410  : 		ILPCSTR szGraphName = p_pIGraphInfo->GetGraphNameString();

  0003e	8b 01		 mov	 eax, DWORD PTR [ecx]
  00040	ff 90 98 00 00
	00		 call	 DWORD PTR [eax+152]
; File D:\git\src\IBK\IBK_DRFN\ProjSrc\SrcChartEx\ChartOCX\AddInManager\Include_AddIn\I000000\_IString.h

; 39   : 		m_pIStrData = p_pIString;	// Do not AddRef(). Because It must be Return Value.

  00046	8b f8		 mov	 edi, eax
  00048	89 7d e8	 mov	 DWORD PTR _szGraphName$2[ebp+4], edi

; 40   : 		if( m_pIStrData) m_szData = m_pIStrData->GetData();

  0004b	85 ff		 test	 edi, edi
  0004d	74 0b		 je	 SHORT $LN14@IsIndicato
  0004f	8b 17		 mov	 edx, DWORD PTR [edi]
  00051	8b cf		 mov	 ecx, edi
  00053	ff 52 10	 call	 DWORD PTR [edx+16]
  00056	8b f0		 mov	 esi, eax
  00058	eb 02		 jmp	 SHORT $LN47@IsIndicato
$LN14@IsIndicato:

; 41   : 		else m_szData = NULL;

  0005a	33 f6		 xor	 esi, esi
$LN47@IsIndicato:
; File D:\git\src\IBK\IBK_DRFN\ProjSrc\SrcChartEx\ChartOCX\AddInManager\ChartCommonAddIn\IndicatorInfoUndoRedoManagerAddInImp.cpp

; 410  : 		ILPCSTR szGraphName = p_pIGraphInfo->GetGraphNameString();

  0005c	89 75 e4	 mov	 DWORD PTR _szGraphName$2[ebp], esi

; 411  : 		if( pIndiInfoData->GetIndicatorName() == szGraphName) return true;

  0005f	8b 4d f0	 mov	 ecx, DWORD PTR tv253[ebp]
  00062	8d 45 ec	 lea	 eax, DWORD PTR $T3[ebp]
  00065	50		 push	 eax
  00066	c7 45 fc 00 00
	00 00		 mov	 DWORD PTR __$EHRec$[ebp+8], 0
  0006d	e8 00 00 00 00	 call	 ?GetIndicatorName@CIndiInfoData@@QBE?AV?$CStringT@DV?$StrTraitMFC_DLL@DV?$ChTraitsCRT@D@ATL@@@@@ATL@@XZ ; CIndiInfoData::GetIndicatorName
; File C:\Program Files (x86)\Microsoft Visual Studio\2019\Community\VC\Tools\MSVC\14.29.30133\atlmfc\include\cstringt.h

; 2486 : 		return(str1.Compare(psz2) == 0);

  00072	56		 push	 esi
  00073	8b c8		 mov	 ecx, eax
; File D:\git\src\IBK\IBK_DRFN\ProjSrc\SrcChartEx\ChartOCX\AddInManager\ChartCommonAddIn\IndicatorInfoUndoRedoManagerAddInImp.cpp

; 411  : 		if( pIndiInfoData->GetIndicatorName() == szGraphName) return true;

  00075	c6 45 fc 01	 mov	 BYTE PTR __$EHRec$[ebp+8], 1
; File C:\Program Files (x86)\Microsoft Visual Studio\2019\Community\VC\Tools\MSVC\14.29.30133\atlmfc\include\cstringt.h

; 2486 : 		return(str1.Compare(psz2) == 0);

  00079	ff 15 00 00 00
	00		 call	 DWORD PTR __imp_?Compare@?$CStringT@DV?$StrTraitMFC_DLL@DV?$ChTraitsCRT@D@ATL@@@@@ATL@@QBEHPBD@Z
; File D:\git\src\IBK\IBK_DRFN\ProjSrc\SrcChartEx\ChartOCX\AddInManager\ChartCommonAddIn\IndicatorInfoUndoRedoManagerAddInImp.cpp

; 411  : 		if( pIndiInfoData->GetIndicatorName() == szGraphName) return true;

  0007f	8d 4d ec	 lea	 ecx, DWORD PTR $T3[ebp]
; File C:\Program Files (x86)\Microsoft Visual Studio\2019\Community\VC\Tools\MSVC\14.29.30133\atlmfc\include\cstringt.h

; 2486 : 		return(str1.Compare(psz2) == 0);

  00082	8b f0		 mov	 esi, eax
; File D:\git\src\IBK\IBK_DRFN\ProjSrc\SrcChartEx\ChartOCX\AddInManager\ChartCommonAddIn\IndicatorInfoUndoRedoManagerAddInImp.cpp

; 411  : 		if( pIndiInfoData->GetIndicatorName() == szGraphName) return true;

  00084	ff 15 00 00 00
	00		 call	 DWORD PTR __imp_??1?$CStringT@DV?$StrTraitMFC_DLL@DV?$ChTraitsCRT@D@ATL@@@@@ATL@@QAE@XZ
  0008a	85 f6		 test	 esi, esi
  0008c	74 44		 je	 SHORT $LN42@IsIndicato
; File D:\git\src\IBK\IBK_DRFN\ProjSrc\SrcChartEx\ChartOCX\AddInManager\Include_AddIn\I000000\_IString.h

; 44   : 	{

  0008e	c7 45 fc 03 00
	00 00		 mov	 DWORD PTR __$EHRec$[ebp+8], 3

; 45   : 		if( m_pIStrData)

  00095	85 ff		 test	 edi, edi
  00097	74 14		 je	 SHORT $LN38@IsIndicato

; 46   : 		{
; 47   : 			m_pIStrData->Release();

  00099	8b 07		 mov	 eax, DWORD PTR [edi]
  0009b	57		 push	 edi
  0009c	ff 50 08	 call	 DWORD PTR [eax+8]

; 48   : 			m_pIStrData = NULL;

  0009f	c7 45 e8 00 00
	00 00		 mov	 DWORD PTR _szGraphName$2[ebp+4], 0

; 49   : 			m_szData = NULL;

  000a6	c7 45 e4 00 00
	00 00		 mov	 DWORD PTR _szGraphName$2[ebp], 0
$LN38@IsIndicato:

; 50   : 		}
; 51   : 	}

  000ad	c7 45 fc ff ff
	ff ff		 mov	 DWORD PTR __$EHRec$[ebp+8], -1
; File D:\git\src\IBK\IBK_DRFN\ProjSrc\SrcChartEx\ChartOCX\AddInManager\ChartCommonAddIn\IndicatorInfoUndoRedoManagerAddInImp.cpp

; 406  : 	while(pos)

  000b4	85 db		 test	 ebx, ebx
  000b6	0f 85 77 ff ff
	ff		 jne	 $LL2@IsIndicato
$LN3@IsIndicato:

; 412  : 	}
; 413  : 
; 414  : 	return false;

  000bc	32 c0		 xor	 al, al

; 415  : }

  000be	8b 4d f4	 mov	 ecx, DWORD PTR __$EHRec$[ebp]
  000c1	64 89 0d 00 00
	00 00		 mov	 DWORD PTR fs:0, ecx
  000c8	59		 pop	 ecx
  000c9	5f		 pop	 edi
  000ca	5e		 pop	 esi
  000cb	5b		 pop	 ebx
  000cc	8b e5		 mov	 esp, ebp
  000ce	5d		 pop	 ebp
  000cf	c2 04 00	 ret	 4
$LN42@IsIndicato:
; File D:\git\src\IBK\IBK_DRFN\ProjSrc\SrcChartEx\ChartOCX\AddInManager\Include_AddIn\I000000\_IString.h

; 44   : 	{

  000d2	c7 45 fc 02 00
	00 00		 mov	 DWORD PTR __$EHRec$[ebp+8], 2

; 45   : 		if( m_pIStrData)

  000d9	85 ff		 test	 edi, edi
  000db	74 06		 je	 SHORT $LN34@IsIndicato

; 46   : 		{
; 47   : 			m_pIStrData->Release();

  000dd	8b 07		 mov	 eax, DWORD PTR [edi]
  000df	57		 push	 edi
  000e0	ff 50 08	 call	 DWORD PTR [eax+8]
$LN34@IsIndicato:
; File D:\git\src\IBK\IBK_DRFN\ProjSrc\SrcChartEx\ChartOCX\AddInManager\ChartCommonAddIn\IndicatorInfoUndoRedoManagerAddInImp.cpp

; 411  : 		if( pIndiInfoData->GetIndicatorName() == szGraphName) return true;

  000e3	b0 01		 mov	 al, 1

; 415  : }

  000e5	8b 4d f4	 mov	 ecx, DWORD PTR __$EHRec$[ebp]
  000e8	64 89 0d 00 00
	00 00		 mov	 DWORD PTR fs:0, ecx
  000ef	59		 pop	 ecx
  000f0	5f		 pop	 edi
  000f1	5e		 pop	 esi
  000f2	5b		 pop	 ebx
  000f3	8b e5		 mov	 esp, ebp
  000f5	5d		 pop	 ebp
  000f6	c2 04 00	 ret	 4
_TEXT	ENDS
;	COMDAT text$x
text$x	SEGMENT
__unwindfunclet$?IsIndicatorInfo@CIndicatorInfoBackUp@@QAE_NPAUIGraphInfo000000@@@Z$0:
  00000	8d 4d e4	 lea	 ecx, DWORD PTR _szGraphName$2[ebp]
  00003	e9 00 00 00 00	 jmp	 ??1ILPCSTR000000@@QAE@XZ ; ILPCSTR000000::~ILPCSTR000000
__unwindfunclet$?IsIndicatorInfo@CIndicatorInfoBackUp@@QAE_NPAUIGraphInfo000000@@@Z$1:
  00008	8d 4d ec	 lea	 ecx, DWORD PTR $T3[ebp]
  0000b	ff 25 00 00 00
	00		 jmp	 DWORD PTR __imp_??1?$CStringT@DV?$StrTraitMFC_DLL@DV?$ChTraitsCRT@D@ATL@@@@@ATL@@QAE@XZ
  00011	cc		 int	 3
  00012	cc		 int	 3
  00013	cc		 int	 3
  00014	cc		 int	 3
  00015	cc		 int	 3
__ehhandler$?IsIndicatorInfo@CIndicatorInfoBackUp@@QAE_NPAUIGraphInfo000000@@@Z:
  00016	90		 npad	 1
  00017	90		 npad	 1
  00018	8b 54 24 08	 mov	 edx, DWORD PTR [esp+8]
  0001c	8d 42 0c	 lea	 eax, DWORD PTR [edx+12]
  0001f	8b 4a e0	 mov	 ecx, DWORD PTR [edx-32]
  00022	33 c8		 xor	 ecx, eax
  00024	e8 00 00 00 00	 call	 @__security_check_cookie@4
  00029	b8 00 00 00 00	 mov	 eax, OFFSET __ehfuncinfo$?IsIndicatorInfo@CIndicatorInfoBackUp@@QAE_NPAUIGraphInfo000000@@@Z
  0002e	e9 00 00 00 00	 jmp	 ___CxxFrameHandler3
text$x	ENDS
?IsIndicatorInfo@CIndicatorInfoBackUp@@QAE_NPAUIGraphInfo000000@@@Z ENDP ; CIndicatorInfoBackUp::IsIndicatorInfo
; Function compile flags: /Ogtp
; File D:\git\src\IBK\IBK_DRFN\ProjSrc\SrcChartEx\ChartOCX\AddInManager\ChartCommonAddIn\IndicatorInfoUndoRedoManagerAddInImp.cpp
; File C:\Program Files (x86)\Microsoft Visual Studio\2019\Community\VC\Tools\MSVC\14.29.30133\atlmfc\include\afxtempl.h
; File D:\git\src\IBK\IBK_DRFN\ProjSrc\SrcChartEx\ChartOCX\AddInManager\ChartCommonAddIn\IndicatorInfoUndoRedoManagerAddInImp.cpp
; File C:\Program Files (x86)\Microsoft Visual Studio\2019\Community\VC\Tools\MSVC\14.29.30133\atlmfc\include\afxtempl.h
; File D:\git\src\IBK\IBK_DRFN\ProjSrc\SrcChartEx\ChartOCX\AddInManager\ChartCommonAddIn\IndicatorInfoUndoRedoManagerAddInImp.cpp
; File C:\Program Files (x86)\Microsoft Visual Studio\2019\Community\VC\Tools\MSVC\14.29.30133\atlmfc\include\afxtempl.h
; File D:\git\src\IBK\IBK_DRFN\ProjSrc\SrcChartEx\ChartOCX\AddInManager\ChartCommonAddIn\IndicatorInfoUndoRedoManagerAddInImp.cpp
;	COMDAT ?GetIndiInfoIntheSave@CIndicatorInfoBackUp@@QBE_NAAV?$CList@PAUIGraphInfo000000@@PAU1@@@@Z
_TEXT	SEGMENT
_indiInfoList$ = 8					; size = 4
?GetIndiInfoIntheSave@CIndicatorInfoBackUp@@QBE_NAAV?$CList@PAUIGraphInfo000000@@PAU1@@@@Z PROC ; CIndicatorInfoBackUp::GetIndiInfoIntheSave, COMDAT
; _this$ = ecx

; 397  : {

  00000	55		 push	 ebp
  00001	8b ec		 mov	 ebp, esp
  00003	53		 push	 ebx
; File C:\Program Files (x86)\Microsoft Visual Studio\2019\Community\VC\Tools\MSVC\14.29.30133\atlmfc\include\afxtempl.h

; 870  : 	m_nCount = 0;

  00004	8b 5d 08	 mov	 ebx, DWORD PTR _indiInfoList$[ebp]
; File D:\git\src\IBK\IBK_DRFN\ProjSrc\SrcChartEx\ChartOCX\AddInManager\ChartCommonAddIn\IndicatorInfoUndoRedoManagerAddInImp.cpp

; 397  : {

  00007	56		 push	 esi
  00008	8b f1		 mov	 esi, ecx
; File C:\Program Files (x86)\Microsoft Visual Studio\2019\Community\VC\Tools\MSVC\14.29.30133\atlmfc\include\afxtempl.h

; 872  : 	m_pBlocks->FreeDataChain();

  0000a	8b 4b 14	 mov	 ecx, DWORD PTR [ebx+20]
  0000d	c7 43 0c 00 00
	00 00		 mov	 DWORD PTR [ebx+12], 0
  00014	c7 43 10 00 00
	00 00		 mov	 DWORD PTR [ebx+16], 0
  0001b	c7 43 08 00 00
	00 00		 mov	 DWORD PTR [ebx+8], 0
  00022	c7 43 04 00 00
	00 00		 mov	 DWORD PTR [ebx+4], 0
  00029	e8 00 00 00 00	 call	 ?FreeDataChain@CPlex@@QAEXXZ ; CPlex::FreeDataChain

; 873  : 	m_pBlocks = NULL;

  0002e	c7 43 14 00 00
	00 00		 mov	 DWORD PTR [ebx+20], 0
; File D:\git\src\IBK\IBK_DRFN\ProjSrc\SrcChartEx\ChartOCX\AddInManager\ChartCommonAddIn\IndicatorInfoUndoRedoManagerAddInImp.cpp

; 261  : 	POSITION pos = m_indiInfoDataList.GetHeadPosition();

  00035	8b 76 0c	 mov	 esi, DWORD PTR [esi+12]

; 262  : 	while(pos != NULL)

  00038	85 f6		 test	 esi, esi
  0003a	74 2a		 je	 SHORT $LN5@GetIndiInf
  0003c	57		 push	 edi
  0003d	0f 1f 00	 npad	 3
$LL4@GetIndiInf:

; 263  : 	{
; 264  : 		CIndiInfoData* pIndiInfoData = m_indiInfoDataList.GetNext(pos);

  00040	8b 7e 08	 mov	 edi, DWORD PTR [esi+8]
; File C:\Program Files (x86)\Microsoft Visual Studio\2019\Community\VC\Tools\MSVC\14.29.30133\atlmfc\include\afxtempl.h

; 819  : 		rPosition = (POSITION) pNode->pNext;

  00043	8b 36		 mov	 esi, DWORD PTR [esi]
; File D:\git\src\IBK\IBK_DRFN\ProjSrc\SrcChartEx\ChartOCX\AddInManager\ChartCommonAddIn\IndicatorInfoUndoRedoManagerAddInImp.cpp

; 265  : 		if( pIndiInfoData != NULL )

  00045	85 ff		 test	 edi, edi
  00047	74 18		 je	 SHORT $LN6@GetIndiInf

; 66   : 	if( m_pIGraphInfo) m_pIGraphInfo->AddRef();

  00049	8b 4f 08	 mov	 ecx, DWORD PTR [edi+8]
  0004c	85 c9		 test	 ecx, ecx
  0004e	74 09		 je	 SHORT $LN16@GetIndiInf
  00050	8b 01		 mov	 eax, DWORD PTR [ecx]
  00052	51		 push	 ecx
  00053	ff 50 04	 call	 DWORD PTR [eax+4]
  00056	8b 4f 08	 mov	 ecx, DWORD PTR [edi+8]
$LN16@GetIndiInf:

; 266  : 			indiInfoList.AddTail(pIndiInfoData->GetIGraphInfo());

  00059	51		 push	 ecx
  0005a	8b cb		 mov	 ecx, ebx
  0005c	e8 00 00 00 00	 call	 ?AddTail@?$CList@PAUIGraphInfo000000@@PAU1@@@QAEPAU__POSITION@@PAUIGraphInfo000000@@@Z ; CList<IGraphInfo000000 *,IGraphInfo000000 *>::AddTail
$LN6@GetIndiInf:

; 262  : 	while(pos != NULL)

  00061	85 f6		 test	 esi, esi
  00063	75 db		 jne	 SHORT $LL4@GetIndiInf
  00065	5f		 pop	 edi
$LN5@GetIndiInf:

; 267  : 	}
; 268  : 
; 269  : 	return (indiInfoList.GetCount() > 0);

  00066	83 7b 0c 00	 cmp	 DWORD PTR [ebx+12], 0

; 398  : 	return m_indiInfoDataList.GetIndiInfoIntheSave(indiInfoList);

  0006a	5e		 pop	 esi

; 269  : 	return (indiInfoList.GetCount() > 0);

  0006b	0f 9f c0	 setg	 al

; 398  : 	return m_indiInfoDataList.GetIndiInfoIntheSave(indiInfoList);

  0006e	5b		 pop	 ebx

; 399  : }

  0006f	5d		 pop	 ebp
  00070	c2 04 00	 ret	 4
?GetIndiInfoIntheSave@CIndicatorInfoBackUp@@QBE_NAAV?$CList@PAUIGraphInfo000000@@PAU1@@@@Z ENDP ; CIndicatorInfoBackUp::GetIndiInfoIntheSave
_TEXT	ENDS
; Function compile flags: /Ogtp
; File D:\git\src\IBK\IBK_DRFN\ProjSrc\SrcChartEx\ChartOCX\AddInManager\ChartCommonAddIn\IndicatorInfoUndoRedoManagerAddInImp.cpp
; File C:\Program Files (x86)\Microsoft Visual Studio\2019\Community\VC\Tools\MSVC\14.29.30133\atlmfc\include\afxtempl.h
; File D:\git\src\IBK\IBK_DRFN\ProjSrc\SrcChartEx\ChartOCX\AddInManager\ChartCommonAddIn\IndicatorInfoUndoRedoManagerAddInImp.cpp
; File C:\Program Files (x86)\Microsoft Visual Studio\2019\Community\VC\Tools\MSVC\14.29.30133\atlmfc\include\afxtempl.h
; File D:\git\src\IBK\IBK_DRFN\ProjSrc\SrcChartEx\ChartOCX\AddInManager\ChartCommonAddIn\IndicatorInfoUndoRedoManagerAddInImp.cpp
; File C:\Program Files (x86)\Microsoft Visual Studio\2019\Community\VC\Tools\MSVC\14.29.30133\atlmfc\include\afxtempl.h
; File D:\git\src\IBK\IBK_DRFN\ProjSrc\SrcChartEx\ChartOCX\AddInManager\ChartCommonAddIn\IndicatorInfoUndoRedoManagerAddInImp.cpp
;	COMDAT ?GetIndiInfoInTheBeginning@CIndicatorInfoBackUp@@QBE_NAAV?$CList@PAUIGraphInfo000000@@PAU1@@@@Z
_TEXT	SEGMENT
_indiInfoList$ = 8					; size = 4
?GetIndiInfoInTheBeginning@CIndicatorInfoBackUp@@QBE_NAAV?$CList@PAUIGraphInfo000000@@PAU1@@@@Z PROC ; CIndicatorInfoBackUp::GetIndiInfoInTheBeginning, COMDAT
; _this$ = ecx

; 391  : {

  00000	55		 push	 ebp
  00001	8b ec		 mov	 ebp, esp
  00003	53		 push	 ebx
; File C:\Program Files (x86)\Microsoft Visual Studio\2019\Community\VC\Tools\MSVC\14.29.30133\atlmfc\include\afxtempl.h

; 870  : 	m_nCount = 0;

  00004	8b 5d 08	 mov	 ebx, DWORD PTR _indiInfoList$[ebp]
; File D:\git\src\IBK\IBK_DRFN\ProjSrc\SrcChartEx\ChartOCX\AddInManager\ChartCommonAddIn\IndicatorInfoUndoRedoManagerAddInImp.cpp

; 391  : {

  00007	56		 push	 esi
  00008	8b f1		 mov	 esi, ecx
  0000a	57		 push	 edi
; File C:\Program Files (x86)\Microsoft Visual Studio\2019\Community\VC\Tools\MSVC\14.29.30133\atlmfc\include\afxtempl.h

; 872  : 	m_pBlocks->FreeDataChain();

  0000b	8b 4b 14	 mov	 ecx, DWORD PTR [ebx+20]
  0000e	c7 43 0c 00 00
	00 00		 mov	 DWORD PTR [ebx+12], 0
  00015	c7 43 10 00 00
	00 00		 mov	 DWORD PTR [ebx+16], 0
  0001c	c7 43 08 00 00
	00 00		 mov	 DWORD PTR [ebx+8], 0
  00023	c7 43 04 00 00
	00 00		 mov	 DWORD PTR [ebx+4], 0
  0002a	e8 00 00 00 00	 call	 ?FreeDataChain@CPlex@@QAEXXZ ; CPlex::FreeDataChain

; 873  : 	m_pBlocks = NULL;

  0002f	c7 43 14 00 00
	00 00		 mov	 DWORD PTR [ebx+20], 0
; File D:\git\src\IBK\IBK_DRFN\ProjSrc\SrcChartEx\ChartOCX\AddInManager\ChartCommonAddIn\IndicatorInfoUndoRedoManagerAddInImp.cpp

; 242  : 	POSITION pos = m_indiInfoDataList.GetHeadPosition();

  00036	8b 7e 0c	 mov	 edi, DWORD PTR [esi+12]

; 243  : 	while(pos != NULL)

  00039	85 ff		 test	 edi, edi
  0003b	74 30		 je	 SHORT $LN5@GetIndiInf
  0003d	0f 1f 00	 npad	 3
$LL4@GetIndiInf:
; File C:\Program Files (x86)\Microsoft Visual Studio\2019\Community\VC\Tools\MSVC\14.29.30133\atlmfc\include\afxtempl.h

; 817  : 	{ CNode* pNode = (CNode*) rPosition;

  00040	8b c7		 mov	 eax, edi

; 818  : 		ASSERT(AfxIsValidAddress(pNode, sizeof(CNode)));
; 819  : 		rPosition = (POSITION) pNode->pNext;

  00042	8b 3f		 mov	 edi, DWORD PTR [edi]
; File D:\git\src\IBK\IBK_DRFN\ProjSrc\SrcChartEx\ChartOCX\AddInManager\ChartCommonAddIn\IndicatorInfoUndoRedoManagerAddInImp.cpp

; 245  : 		CIndiInfoData* pIndiInfoData = m_indiInfoDataList.GetNext(pos);

  00044	8b 70 08	 mov	 esi, DWORD PTR [eax+8]

; 246  : 		if(pIndiInfoData == NULL)

  00047	85 f6		 test	 esi, esi
  00049	74 30		 je	 SHORT $LN21@GetIndiInf

; 248  : 
; 249  : 		if(pIndiInfoData->IsTheBeginning())

  0004b	80 7e 04 00	 cmp	 BYTE PTR [esi+4], 0
  0004f	74 18		 je	 SHORT $LN7@GetIndiInf

; 66   : 	if( m_pIGraphInfo) m_pIGraphInfo->AddRef();

  00051	8b 4e 08	 mov	 ecx, DWORD PTR [esi+8]
  00054	85 c9		 test	 ecx, ecx
  00056	74 09		 je	 SHORT $LN17@GetIndiInf
  00058	8b 01		 mov	 eax, DWORD PTR [ecx]
  0005a	51		 push	 ecx
  0005b	ff 50 04	 call	 DWORD PTR [eax+4]
  0005e	8b 4e 08	 mov	 ecx, DWORD PTR [esi+8]
$LN17@GetIndiInf:

; 250  : 			indiInfoList.AddTail(pIndiInfoData->GetIGraphInfo());

  00061	51		 push	 ecx
  00062	8b cb		 mov	 ecx, ebx
  00064	e8 00 00 00 00	 call	 ?AddTail@?$CList@PAUIGraphInfo000000@@PAU1@@@QAEPAU__POSITION@@PAUIGraphInfo000000@@@Z ; CList<IGraphInfo000000 *,IGraphInfo000000 *>::AddTail
$LN7@GetIndiInf:

; 243  : 	while(pos != NULL)

  00069	85 ff		 test	 edi, edi
  0006b	75 d3		 jne	 SHORT $LL4@GetIndiInf
$LN5@GetIndiInf:

; 251  : 	}
; 252  : 
; 253  : 	return (indiInfoList.GetCount() > 0);

  0006d	83 7b 0c 00	 cmp	 DWORD PTR [ebx+12], 0
  00071	5f		 pop	 edi

; 392  : 	return m_indiInfoDataList.GetIndiInfoInTheBeginning(indiInfoList);
; 393  : }

  00072	5e		 pop	 esi

; 253  : 	return (indiInfoList.GetCount() > 0);

  00073	0f 9f c0	 setg	 al

; 392  : 	return m_indiInfoDataList.GetIndiInfoInTheBeginning(indiInfoList);
; 393  : }

  00076	5b		 pop	 ebx
  00077	5d		 pop	 ebp
  00078	c2 04 00	 ret	 4
$LN21@GetIndiInf:
  0007b	5f		 pop	 edi
  0007c	5e		 pop	 esi

; 247  : 			return false;

  0007d	32 c0		 xor	 al, al

; 392  : 	return m_indiInfoDataList.GetIndiInfoInTheBeginning(indiInfoList);
; 393  : }

  0007f	5b		 pop	 ebx
  00080	5d		 pop	 ebp
  00081	c2 04 00	 ret	 4
?GetIndiInfoInTheBeginning@CIndicatorInfoBackUp@@QBE_NAAV?$CList@PAUIGraphInfo000000@@PAU1@@@@Z ENDP ; CIndicatorInfoBackUp::GetIndiInfoInTheBeginning
_TEXT	ENDS
; Function compile flags: /Ogtp
; File D:\git\src\IBK\IBK_DRFN\ProjSrc\SrcChartEx\ChartOCX\AddInManager\ChartCommonAddIn\IndicatorInfoUndoRedoManagerAddInImp.cpp
; File C:\Program Files (x86)\Microsoft Visual Studio\2019\Community\VC\Tools\MSVC\14.29.30133\atlmfc\include\afxtempl.h
; File D:\git\src\IBK\IBK_DRFN\ProjSrc\SrcChartEx\ChartOCX\AddInManager\ChartCommonAddIn\IndicatorInfoUndoRedoManagerAddInImp.cpp
; File D:\git\src\IBK\IBK_DRFN\ProjSrc\SrcChartEx\ChartOCX\AddInManager\Include_AddIn\I000000\_IString.h
; File D:\git\src\IBK\IBK_DRFN\ProjSrc\SrcChartEx\ChartOCX\AddInManager\ChartCommonAddIn\IndicatorInfoUndoRedoManagerAddInImp.cpp
; File D:\git\src\IBK\IBK_DRFN\ProjSrc\SrcChartEx\ChartOCX\AddInManager\Include_AddIn\I000000\_IString.h
; File D:\git\src\IBK\IBK_DRFN\ProjSrc\SrcChartEx\ChartOCX\AddInManager\ChartCommonAddIn\IndicatorInfoUndoRedoManagerAddInImp.cpp
; File D:\git\src\IBK\IBK_DRFN\ProjSrc\SrcChartEx\ChartOCX\AddInManager\Include_AddIn\I000000\_IString.h
