; Listing generated by Microsoft (R) Optimizing Compiler Version 19.29.30145.0 

	TITLE	D:\git\src\IBK\IBK_DRFN\#DRfn-CS\_Obj\ChartCommonAddIn\LogAddInImp.obj
	.686P
	.XMM
	include listing.inc
	.model	flat

INCLUDELIB MSVCRT
INCLUDELIB OLDNAMES

PUBLIC	?m_eRegisteredEventMap@CLogAddInImp@@1QBW4EAddInEventType@IChartAddIn000000@@B ; CLogAddInImp::m_eRegisteredEventMap
PUBLIC	??_C@_03MLIHNEFJ@LOG@				; `string'
;	COMDAT ??_C@_03MLIHNEFJ@LOG@
CONST	SEGMENT
??_C@_03MLIHNEFJ@LOG@ DB 'LOG', 00H			; `string'
CONST	ENDS
CONST	SEGMENT
?m_eRegisteredEventMap@CLogAddInImp@@1QBW4EAddInEventType@IChartAddIn000000@@B DD 016H ; CLogAddInImp::m_eRegisteredEventMap
	DD	01cH
	DD	022H
	DD	030H
	DD	031H
	DD	032H
	DD	03H
	DD	05H
	DD	09H
	DD	017H
	DD	019H
	DD	037H
	DD	03cH
	ORG $+192
CONST	ENDS
PUBLIC	?__empty_global_delete@@YAXPAX@Z		; __empty_global_delete
PUBLIC	?__empty_global_delete@@YAXPAXI@Z		; __empty_global_delete
PUBLIC	??1CObject@@UAE@XZ				; CObject::~CObject
PUBLIC	??3CObject@@SGXPAX@Z				; CObject::operator delete
PUBLIC	?Serialize@CObject@@UAEXAAVCArchive@@@Z		; CObject::Serialize
PUBLIC	?AssertValid@CObject@@UBEXXZ			; CObject::AssertValid
PUBLIC	?Dump@CObject@@UBEXAAVCDumpContext@@@Z		; CObject::Dump
PUBLIC	?PostConstruct@CIWUnknown@@MAEXXZ		; CIWUnknown::PostConstruct
PUBLIC	?PreDestructX@CIWUnknown@@MAEXXZ		; CIWUnknown::PreDestructX
PUBLIC	?PreDestruct@CIWUnknown@@MAEXXZ			; CIWUnknown::PreDestruct
PUBLIC	?InvokeAddIn@CChartAddInBase000000@@MAEHHJ@Z	; CChartAddInBase000000::InvokeAddIn
PUBLIC	?AfeterOnOcxDestroyWindow@CChartAddInBase000000@@MAEXXZ ; CChartAddInBase000000::AfeterOnOcxDestroyWindow
PUBLIC	?ChangeChartMode@CChartAddInBase000000@@MAEXW4CHART_MODE@CChartInfo@@@Z ; CChartAddInBase000000::ChangeChartMode
PUBLIC	?OnDrawBeforeGraph@CChartAddInBase000000@@MAEXPAUHDC__@@@Z ; CChartAddInBase000000::OnDrawBeforeGraph
PUBLIC	?OnDrawAfterGraph@CChartAddInBase000000@@MAEXPAUHDC__@@@Z ; CChartAddInBase000000::OnDrawAfterGraph
PUBLIC	?OnTimer@CChartAddInBase000000@@MAEXI@Z		; CChartAddInBase000000::OnTimer
PUBLIC	?OnCaptureChanged@CChartAddInBase000000@@MAEXPAUHWND__@@QAUHBITMAP__@@@Z ; CChartAddInBase000000::OnCaptureChanged
PUBLIC	?OnResetMainBlock@CChartAddInBase000000@@MAEXXZ	; CChartAddInBase000000::OnResetMainBlock
PUBLIC	?OnUserIndiatorConditionLoaded@CChartAddInBase000000@@MAEXXZ ; CChartAddInBase000000::OnUserIndiatorConditionLoaded
PUBLIC	?OnChartItemChanged@CChartAddInBase000000@@MAEXXZ ; CChartAddInBase000000::OnChartItemChanged
PUBLIC	?OnGraphDataChanged@CChartAddInBase000000@@MAEXXZ ; CChartAddInBase000000::OnGraphDataChanged
PUBLIC	?OnBlockRemoved@CChartAddInBase000000@@MAEXHH@Z	; CChartAddInBase000000::OnBlockRemoved
PUBLIC	?OnGraphAdded@CChartAddInBase000000@@MAEXPBD0@Z	; CChartAddInBase000000::OnGraphAdded
PUBLIC	?OnManualRealData@CChartAddInBase000000@@MAEXPBDNH@Z ; CChartAddInBase000000::OnManualRealData
PUBLIC	?OnContextMenu@CChartAddInBase000000@@MAEXPAUHWND__@@AAUtagPOINT@@@Z ; CChartAddInBase000000::OnContextMenu
PUBLIC	?OnGraphDeleted@CChartAddInBase000000@@MAEXPBD0@Z ; CChartAddInBase000000::OnGraphDeleted
PUBLIC	?OnPacketTruncated@CChartAddInBase000000@@MAEXH@Z ; CChartAddInBase000000::OnPacketTruncated
PUBLIC	?OnBlockChanged@CChartAddInBase000000@@MAEXW4BLOCKBEHAVIOR@CBlockBaseData@@HHHH@Z ; CChartAddInBase000000::OnBlockChanged
PUBLIC	?OnToolCommand@CChartAddInBase000000@@MAEXHH@Z	; CChartAddInBase000000::OnToolCommand
PUBLIC	?OnLoadEnvironment@CChartAddInBase000000@@MAEXPAUIPropertyMap@@@Z ; CChartAddInBase000000::OnLoadEnvironment
PUBLIC	?OnSaveEnvironment@CChartAddInBase000000@@MAEXPAUIPropertyMap@@@Z ; CChartAddInBase000000::OnSaveEnvironment
PUBLIC	?DrawCursor@CChartAddInBase000000@@MAE?AUtagRECT@@PAUHDC__@@@Z ; CChartAddInBase000000::DrawCursor
PUBLIC	?OnRecalculationComplete@CChartAddInBase000000@@MAEXXZ ; CChartAddInBase000000::OnRecalculationComplete
PUBLIC	?OnPreRealData@CChartAddInBase000000@@MAEHPBDAAN0H@Z ; CChartAddInBase000000::OnPreRealData
PUBLIC	?OnPreIndexedRealData@CChartAddInBase000000@@MAEHPBDHAANH@Z ; CChartAddInBase000000::OnPreIndexedRealData
PUBLIC	?OnPreRealPacketEnd@CChartAddInBase000000@@MAEHPBDH@Z ; CChartAddInBase000000::OnPreRealPacketEnd
PUBLIC	?OnPreNMTRClock@CChartAddInBase000000@@MAEHAA_J@Z ; CChartAddInBase000000::OnPreNMTRClock
PUBLIC	?OnCmdMsg@CChartAddInBase000000@@MAEHIHPAUICmdUI000000@@@Z ; CChartAddInBase000000::OnCmdMsg
PUBLIC	?OnAddInMsg@CChartAddInBase000000@@MAEHPBDJ@Z	; CChartAddInBase000000::OnAddInMsg
PUBLIC	?OnAddInToolCommand@CChartAddInBase000000@@MAEHW4EAICommandType@@@Z ; CChartAddInBase000000::OnAddInToolCommand
PUBLIC	?OnAddInToolCommand@CChartAddInBase000000@@MAEHW4EAICommandType@@PAUHDC__@@IAAUtagPOINT@@K@Z ; CChartAddInBase000000::OnAddInToolCommand
PUBLIC	?OnAddInToolCommand@CChartAddInBase000000@@MAEHW4EAICommandType@@PBD1@Z ; CChartAddInBase000000::OnAddInToolCommand
PUBLIC	?OnAddInToolCommand@CChartAddInBase000000@@MAEHW4EAICommandType@@PBUIAddInDllBase@@@Z ; CChartAddInBase000000::OnAddInToolCommand
PUBLIC	?OnAddInToolCommand@CChartAddInBase000000@@MAEHW4EAICommandType@@J@Z ; CChartAddInBase000000::OnAddInToolCommand
PUBLIC	?OnAddInToolCommand@CChartAddInBase000000@@MAEHW4EAICommandType@@JPBD@Z ; CChartAddInBase000000::OnAddInToolCommand
PUBLIC	?OnAddInToolCommand@CChartAddInBase000000@@MAEHW4EAICommandType@@JJ@Z ; CChartAddInBase000000::OnAddInToolCommand
PUBLIC	?OnAddInToolCommand@CChartAddInBase000000@@MAEHW4EAICommandType@@JJJJJJJJJ@Z ; CChartAddInBase000000::OnAddInToolCommand
PUBLIC	?OnAddInToolCommand@CChartAddInBase000000@@MAEHAAJW4EAICommandType@@@Z ; CChartAddInBase000000::OnAddInToolCommand
PUBLIC	?OnAddInToolCommand@CChartAddInBase000000@@MAEHAAJW4EAICommandType@@PAUIGraphInfo000000@@@Z ; CChartAddInBase000000::OnAddInToolCommand
PUBLIC	?OnAddInToolCommand@CChartAddInBase000000@@MAEHAAJW4EAICommandType@@PBD@Z ; CChartAddInBase000000::OnAddInToolCommand
PUBLIC	?OnAddInToolCommand@CChartAddInBase000000@@MAEHAAJW4EAICommandType@@PBDPAVCObject@@@Z ; CChartAddInBase000000::OnAddInToolCommand
PUBLIC	?OnAddInToolCommand@CChartAddInBase000000@@MAEHAAJW4EAICommandType@@J@Z ; CChartAddInBase000000::OnAddInToolCommand
PUBLIC	?OnAddInToolCommand@CChartAddInBase000000@@MAEHAAJW4EAICommandType@@JJ@Z ; CChartAddInBase000000::OnAddInToolCommand
PUBLIC	?OnKeyUp@CChartAddInBase000000@@MAEHIII@Z	; CChartAddInBase000000::OnKeyUp
PUBLIC	?OnMouseWheel@CChartAddInBase000000@@MAEHIFUtagPOINT@@K@Z ; CChartAddInBase000000::OnMouseWheel
PUBLIC	?OnMouseMove@CChartAddInBase000000@@MAEHPAUHDC__@@IAAUtagPOINT@@KQAUHBITMAP__@@@Z ; CChartAddInBase000000::OnMouseMove
PUBLIC	?OnLButtonDown@CChartAddInBase000000@@MAEHPAUHDC__@@IAAUtagPOINT@@K@Z ; CChartAddInBase000000::OnLButtonDown
PUBLIC	?OnLButtonUp@CChartAddInBase000000@@MAEHPAUHDC__@@IAAUtagPOINT@@K@Z ; CChartAddInBase000000::OnLButtonUp
PUBLIC	?OnRButtonDown@CChartAddInBase000000@@MAEHPAUHDC__@@IAAUtagPOINT@@K@Z ; CChartAddInBase000000::OnRButtonDown
PUBLIC	?OnRButtonUp@CChartAddInBase000000@@MAEHPAUHDC__@@IAAUtagPOINT@@K@Z ; CChartAddInBase000000::OnRButtonUp
PUBLIC	?OnRButtonDblClk@CChartAddInBase000000@@MAEHPAUHDC__@@IAAUtagPOINT@@K@Z ; CChartAddInBase000000::OnRButtonDblClk
PUBLIC	??0CLogAddInImp@@QAE@PAUIChartOCX000000@@PAUIAddInDllBase@@@Z ; CLogAddInImp::CLogAddInImp
PUBLIC	??1CLogAddInImp@@UAE@XZ				; CLogAddInImp::~CLogAddInImp
PUBLIC	?GetRegisteredEventMap@CLogAddInImp@@MBEPBW4EAddInEventType@IChartAddIn000000@@XZ ; CLogAddInImp::GetRegisteredEventMap
PUBLIC	?GetAddInCustomInterface@CLogAddInImp@@MAEPAUIUnknown@@XZ ; CLogAddInImp::GetAddInCustomInterface
PUBLIC	?AddRef@CLogAddInImp@@MAGKXZ			; CLogAddInImp::AddRef
PUBLIC	?Release@CLogAddInImp@@MAGKXZ			; CLogAddInImp::Release
PUBLIC	?QueryInterface@CLogAddInImp@@MAGJABU_GUID@@PAPAX@Z ; CLogAddInImp::QueryInterface
PUBLIC	?InvokeAddInStr@CLogAddInImp@@MAEHPBD0@Z	; CLogAddInImp::InvokeAddInStr
PUBLIC	?OnGSharedDataChange@CLogAddInImp@@MAEXPBD0H@Z	; CLogAddInImp::OnGSharedDataChange
PUBLIC	?OnLSharedDataChange@CLogAddInImp@@MAEXPBD0@Z	; CLogAddInImp::OnLSharedDataChange
PUBLIC	?OnResetChart@CLogAddInImp@@MAEXXZ		; CLogAddInImp::OnResetChart
PUBLIC	?OnPacketDataMultiItem@CLogAddInImp@@MAEXPBD0H@Z ; CLogAddInImp::OnPacketDataMultiItem
PUBLIC	?OnRealData@CLogAddInImp@@MAEXPBDN0@Z		; CLogAddInImp::OnRealData
PUBLIC	?OnIndexedRealData@CLogAddInImp@@MAEXPBDHN@Z	; CLogAddInImp::OnIndexedRealData
PUBLIC	?OnRealPacketEnd@CLogAddInImp@@MAEXPBD@Z	; CLogAddInImp::OnRealPacketEnd
PUBLIC	?OnDrdsAdvise@CLogAddInImp@@IAEXJPBD00@Z	; CLogAddInImp::OnDrdsAdvise
PUBLIC	?OffDrdsAdvise@CLogAddInImp@@IAEXJPBD00@Z	; CLogAddInImp::OffDrdsAdvise
PUBLIC	?OnRealSettingChanged@CLogAddInImp@@IAEXPBD@Z	; CLogAddInImp::OnRealSettingChanged
PUBLIC	?OnNormalizedMinuteTimeRuleReset@CLogAddInImp@@IAEXH@Z ; CLogAddInImp::OnNormalizedMinuteTimeRuleReset
PUBLIC	?LogAllProperties@CLogAddInImp@@IAEHXZ		; CLogAddInImp::LogAllProperties
PUBLIC	?WriteLogMessage@CLogAddInImp@@IAEXPBD@Z	; CLogAddInImp::WriteLogMessage
PUBLIC	?OnAddInToolCommand@CLogAddInImp@@MAEHW4EAICommandType@@PBD@Z ; CLogAddInImp::OnAddInToolCommand
PUBLIC	?OnAddInToolCommand@CLogAddInImp@@MAEHW4EAICommandType@@PBDJ@Z ; CLogAddInImp::OnAddInToolCommand
PUBLIC	?OnAddInToolCommand@CLogAddInImp@@MAEHW4EAICommandType@@JPBD11@Z ; CLogAddInImp::OnAddInToolCommand
PUBLIC	?OnKeyDown@CLogAddInImp@@MAEHIII@Z		; CLogAddInImp::OnKeyDown
PUBLIC	?OnLButtonDblClk@CLogAddInImp@@MAEHPAUHDC__@@IAAUtagPOINT@@K@Z ; CLogAddInImp::OnLButtonDblClk
PUBLIC	??_GCLogAddInImp@@UAEPAXI@Z			; CLogAddInImp::`scalar deleting destructor'
PUBLIC	??1CDumpLogger@@UAE@XZ				; CDumpLogger::~CDumpLogger
PUBLIC	?WriteToStringLog@CDumpLogger@@QAEXPBD0H@Z	; CDumpLogger::WriteToStringLog
PUBLIC	??_GCDumpLogger@@UAEPAXI@Z			; CDumpLogger::`scalar deleting destructor'
PUBLIC	??1IPropertyMap@@MAE@XZ				; IPropertyMap::~IPropertyMap
PUBLIC	??_GIPropertyMap@@MAEPAXI@Z			; IPropertyMap::`scalar deleting destructor'
PUBLIC	?GetCount@CPropertyMap@@EBEHXZ			; CPropertyMap::GetCount
PUBLIC	?IsEmpty@CPropertyMap@@EBEHXZ			; CPropertyMap::IsEmpty
PUBLIC	?Lookup@CPropertyMap@@EBEHPBDAAPBD@Z		; CPropertyMap::Lookup
PUBLIC	?LookupKey@CPropertyMap@@EBEHPBDAAPBD@Z		; CPropertyMap::LookupKey
PUBLIC	?SetAt@CPropertyMap@@EAEXPBD0@Z			; CPropertyMap::SetAt
PUBLIC	?RemoveKey@CPropertyMap@@EAEHPBD@Z		; CPropertyMap::RemoveKey
PUBLIC	?RemoveAll@CPropertyMap@@EAEXXZ			; CPropertyMap::RemoveAll
PUBLIC	?GetStartPosition@CPropertyMap@@EBEPAU__POSITION@@XZ ; CPropertyMap::GetStartPosition
PUBLIC	?GetNextAssoc@CPropertyMap@@EBEXAAPAU__POSITION@@AAPBD1@Z ; CPropertyMap::GetNextAssoc
PUBLIC	?GetHashTableSize@CPropertyMap@@EBEIXZ		; CPropertyMap::GetHashTableSize
PUBLIC	?InitHashTable@CPropertyMap@@EAEXIH@Z		; CPropertyMap::InitHashTable
PUBLIC	??1CPropertyMap@@UAE@XZ				; CPropertyMap::~CPropertyMap
PUBLIC	??_GCPropertyMap@@UAEPAXI@Z			; CPropertyMap::`scalar deleting destructor'
PUBLIC	??__FstrValue@?1??Lookup@CPropertyMap@@EBEHPBDAAPBD@Z@YAXXZ ; `CPropertyMap::Lookup'::`2'::`dynamic atexit destructor for 'strValue''
PUBLIC	??__FstrKey@?1??GetNextAssoc@CPropertyMap@@EBEXAAPAU__POSITION@@AAPBD1@Z@YAXXZ ; `CPropertyMap::GetNextAssoc'::`2'::`dynamic atexit destructor for 'strKey''
PUBLIC	??__FstrValue@?1??GetNextAssoc@CPropertyMap@@EBEXAAPAU__POSITION@@AAPBD1@Z@YAXXZ ; `CPropertyMap::GetNextAssoc'::`2'::`dynamic atexit destructor for 'strValue''
PUBLIC	??1ILPCSTR000000@@QAE@XZ			; ILPCSTR000000::~ILPCSTR000000
PUBLIC	??1IPacketList000000@@MAE@XZ			; IPacketList000000::~IPacketList000000
PUBLIC	??_GIPacketList000000@@MAEPAXI@Z		; IPacketList000000::`scalar deleting destructor'
PUBLIC	??0?$CList@PAUIPacket000000@@PAU1@@@QAE@H@Z	; CList<IPacket000000 *,IPacket000000 *>::CList<IPacket000000 *,IPacket000000 *>
PUBLIC	?RemoveHead@?$CList@PAUIPacket000000@@PAU1@@@QAEPAUIPacket000000@@XZ ; CList<IPacket000000 *,IPacket000000 *>::RemoveHead
PUBLIC	?RemoveTail@?$CList@PAUIPacket000000@@PAU1@@@QAEPAUIPacket000000@@XZ ; CList<IPacket000000 *,IPacket000000 *>::RemoveTail
PUBLIC	?AddHead@?$CList@PAUIPacket000000@@PAU1@@@QAEPAU__POSITION@@PAUIPacket000000@@@Z ; CList<IPacket000000 *,IPacket000000 *>::AddHead
PUBLIC	?AddTail@?$CList@PAUIPacket000000@@PAU1@@@QAEPAU__POSITION@@PAUIPacket000000@@@Z ; CList<IPacket000000 *,IPacket000000 *>::AddTail
PUBLIC	?AddHead@?$CList@PAUIPacket000000@@PAU1@@@QAEXPAV1@@Z ; CList<IPacket000000 *,IPacket000000 *>::AddHead
PUBLIC	?AddTail@?$CList@PAUIPacket000000@@PAU1@@@QAEXPAV1@@Z ; CList<IPacket000000 *,IPacket000000 *>::AddTail
PUBLIC	?RemoveAll@?$CList@PAUIPacket000000@@PAU1@@@QAEXXZ ; CList<IPacket000000 *,IPacket000000 *>::RemoveAll
PUBLIC	?RemoveAt@?$CList@PAUIPacket000000@@PAU1@@@QAEXPAU__POSITION@@@Z ; CList<IPacket000000 *,IPacket000000 *>::RemoveAt
PUBLIC	?InsertBefore@?$CList@PAUIPacket000000@@PAU1@@@QAEPAU__POSITION@@PAU2@PAUIPacket000000@@@Z ; CList<IPacket000000 *,IPacket000000 *>::InsertBefore
PUBLIC	?InsertAfter@?$CList@PAUIPacket000000@@PAU1@@@QAEPAU__POSITION@@PAU2@PAUIPacket000000@@@Z ; CList<IPacket000000 *,IPacket000000 *>::InsertAfter
PUBLIC	?Find@?$CList@PAUIPacket000000@@PAU1@@@QBEPAU__POSITION@@PAUIPacket000000@@PAU2@@Z ; CList<IPacket000000 *,IPacket000000 *>::Find
PUBLIC	?FindIndex@?$CList@PAUIPacket000000@@PAU1@@@QBEPAU__POSITION@@H@Z ; CList<IPacket000000 *,IPacket000000 *>::FindIndex
PUBLIC	?NewNode@?$CList@PAUIPacket000000@@PAU1@@@IAEPAUCNode@1@PAU21@0@Z ; CList<IPacket000000 *,IPacket000000 *>::NewNode
PUBLIC	?FreeNode@?$CList@PAUIPacket000000@@PAU1@@@IAEXPAUCNode@1@@Z ; CList<IPacket000000 *,IPacket000000 *>::FreeNode
PUBLIC	??1?$CList@PAUIPacket000000@@PAU1@@@UAE@XZ	; CList<IPacket000000 *,IPacket000000 *>::~CList<IPacket000000 *,IPacket000000 *>
PUBLIC	?Serialize@?$CList@PAUIPacket000000@@PAU1@@@UAEXAAVCArchive@@@Z ; CList<IPacket000000 *,IPacket000000 *>::Serialize
PUBLIC	??_G?$CList@PAUIPacket000000@@PAU1@@@UAEPAXI@Z	; CList<IPacket000000 *,IPacket000000 *>::`scalar deleting destructor'
PUBLIC	??1CIPacketList000000@@UAE@XZ			; CIPacketList000000::~CIPacketList000000
PUBLIC	?AddRef@CIPacketList000000@@MAGKXZ		; CIPacketList000000::AddRef
PUBLIC	?Release@CIPacketList000000@@MAGKXZ		; CIPacketList000000::Release
PUBLIC	?QueryInterface@CIPacketList000000@@MAGJABU_GUID@@PAPAX@Z ; CIPacketList000000::QueryInterface
PUBLIC	?GetCount@CIPacketList000000@@UBEHXZ		; CIPacketList000000::GetCount
PUBLIC	?IsEmpty@CIPacketList000000@@UBEHXZ		; CIPacketList000000::IsEmpty
PUBLIC	?GetHead@CIPacketList000000@@UBEPAUIPacket000000@@XZ ; CIPacketList000000::GetHead
PUBLIC	?GetTail@CIPacketList000000@@UBEPAUIPacket000000@@XZ ; CIPacketList000000::GetTail
PUBLIC	?RemoveHead@CIPacketList000000@@UAEPAUIPacket000000@@XZ ; CIPacketList000000::RemoveHead
PUBLIC	?RemoveTail@CIPacketList000000@@UAEPAUIPacket000000@@XZ ; CIPacketList000000::RemoveTail
PUBLIC	?AddHead@CIPacketList000000@@UAEPAU__POSITION@@PAUIPacket000000@@@Z ; CIPacketList000000::AddHead
PUBLIC	?AddTail@CIPacketList000000@@UAEPAU__POSITION@@PAUIPacket000000@@@Z ; CIPacketList000000::AddTail
PUBLIC	?AddHead@CIPacketList000000@@UAEXPAUIPacketList000000@@@Z ; CIPacketList000000::AddHead
PUBLIC	?AddTail@CIPacketList000000@@UAEXPAUIPacketList000000@@@Z ; CIPacketList000000::AddTail
PUBLIC	?RemoveAll@CIPacketList000000@@UAEXXZ		; CIPacketList000000::RemoveAll
PUBLIC	?GetHeadPosition@CIPacketList000000@@UBEPAU__POSITION@@XZ ; CIPacketList000000::GetHeadPosition
PUBLIC	?GetTailPosition@CIPacketList000000@@UBEPAU__POSITION@@XZ ; CIPacketList000000::GetTailPosition
PUBLIC	?GetNext@CIPacketList000000@@UBEPAUIPacket000000@@AAPAU__POSITION@@@Z ; CIPacketList000000::GetNext
PUBLIC	?GetPrev@CIPacketList000000@@UBEPAUIPacket000000@@AAPAU__POSITION@@@Z ; CIPacketList000000::GetPrev
PUBLIC	?GetAt@CIPacketList000000@@UBEPAUIPacket000000@@PAU__POSITION@@@Z ; CIPacketList000000::GetAt
PUBLIC	?SetAt@CIPacketList000000@@UAEXPAU__POSITION@@PAUIPacket000000@@@Z ; CIPacketList000000::SetAt
PUBLIC	?RemoveAt@CIPacketList000000@@UAEXPAU__POSITION@@@Z ; CIPacketList000000::RemoveAt
PUBLIC	?InsertBefore@CIPacketList000000@@UAEPAU__POSITION@@PAU2@PAUIPacket000000@@@Z ; CIPacketList000000::InsertBefore
PUBLIC	?InsertAfter@CIPacketList000000@@UAEPAU__POSITION@@PAU2@PAUIPacket000000@@@Z ; CIPacketList000000::InsertAfter
PUBLIC	?Find@CIPacketList000000@@UBEPAU__POSITION@@PAUIPacket000000@@PAU2@@Z ; CIPacketList000000::Find
PUBLIC	?FindIndex@CIPacketList000000@@UBEPAU__POSITION@@H@Z ; CIPacketList000000::FindIndex
PUBLIC	??_GCIPacketList000000@@UAEPAXI@Z		; CIPacketList000000::`scalar deleting destructor'
PUBLIC	??$CompareElements@PAUIPacket000000@@PAU1@@@YGHPBQAUIPacket000000@@0@Z ; CompareElements<IPacket000000 *,IPacket000000 *>
PUBLIC	??$SerializeElements@PAUIPacket000000@@@@YGXAAVCArchive@@PAPAUIPacket000000@@H@Z ; SerializeElements<IPacket000000 *>
PUBLIC	?QueryInterface@CLogAddInImp@@O7AGJABU_GUID@@PAPAX@Z ; [thunk]:CLogAddInImp::QueryInterface`adjustor{8}'
PUBLIC	?AddRef@CLogAddInImp@@O7AGKXZ			; [thunk]:CLogAddInImp::AddRef`adjustor{8}'
PUBLIC	?Release@CLogAddInImp@@O7AGKXZ			; [thunk]:CLogAddInImp::Release`adjustor{8}'
PUBLIC	??_ECLogAddInImp@@W7AEPAXI@Z			; [thunk]:CLogAddInImp::`vector deleting destructor'
PUBLIC	??_ECPropertyMap@@WBM@AEPAXI@Z			; [thunk]:CPropertyMap::`vector deleting destructor'
PUBLIC	??_ECIPacketList000000@@WBM@AEPAXI@Z		; [thunk]:CIPacketList000000::`vector deleting destructor'
PUBLIC	??_C@_00CNPNBAHC@@				; `string'
PUBLIC	??_R0?AVCObject@@@8				; CObject `RTTI Type Descriptor'
PUBLIC	??_R3CObject@@8					; CObject::`RTTI Class Hierarchy Descriptor'
PUBLIC	??_R2CObject@@8					; CObject::`RTTI Base Class Array'
PUBLIC	??_R1A@?0A@EA@CObject@@8			; CObject::`RTTI Base Class Descriptor at (0,-1,0,64)'
PUBLIC	??_R0?AUIUnknown@@@8				; IUnknown `RTTI Type Descriptor'
PUBLIC	??_R3IUnknown@@8				; IUnknown::`RTTI Class Hierarchy Descriptor'
PUBLIC	??_R2IUnknown@@8				; IUnknown::`RTTI Base Class Array'
PUBLIC	??_R1A@?0A@EA@IUnknown@@8			; IUnknown::`RTTI Base Class Descriptor at (0,-1,0,64)'
PUBLIC	?m_strAddInItemName@CLogAddInImp@@2V?$CStringT@DV?$StrTraitMFC_DLL@DV?$ChTraitsCRT@D@ATL@@@@@ATL@@A ; CLogAddInImp::m_strAddInItemName
PUBLIC	??_7CLogAddInImp@@6BCIWUnknown@@@		; CLogAddInImp::`vftable'
PUBLIC	??_7CLogAddInImp@@6BIChartAddIn000000@@@	; CLogAddInImp::`vftable'
PUBLIC	??_7CDumpLogger@@6B@				; CDumpLogger::`vftable'
PUBLIC	??_C@_07PNFMHCIF@C?3?2Logs@			; `string'
PUBLIC	??_C@_05GDFJMIEM@MDump@				; `string'
PUBLIC	??_C@_0CJ@GKAGEPNM@?$CFs?2?$CFs_?$CF04d?$CF02d?$CF02d_?$CF02d?$CF02d?$CF02d@ ; `string'
PUBLIC	??_C@_0BH@KLLDLFAP@?$CFs?2?$CFs_?$CF04d?$CF02d?$CF02d?4log@ ; `string'
PUBLIC	??_C@_03BFOLIMEF@?$FN?$AN?6@			; `string'
PUBLIC	??_C@_0BN@HKLPFIKN@?$AN?6?$AN?6?$AN?6?$FL?$CF02d?3?$CF02d?3?$CF02d?3?$CF03d?5?5@ ; `string'
PUBLIC	??_C@_0BF@GOEHBEJD@?$CF02d?3?$CF02d?3?$CF02d?3?$CF03d?7@ ; `string'
PUBLIC	??_7IPropertyMap@@6B@				; IPropertyMap::`vftable'
PUBLIC	??_7CPropertyMap@@6BCMapStringToString@@@	; CPropertyMap::`vftable'
PUBLIC	??_7CPropertyMap@@6BIPropertyMap@@@		; CPropertyMap::`vftable'
PUBLIC	?strValue@?1??Lookup@CPropertyMap@@EBEHPBDAAPBD@Z@4V?$CStringT@DV?$StrTraitMFC_DLL@DV?$ChTraitsCRT@D@ATL@@@@@ATL@@A ; `CPropertyMap::Lookup'::`2'::strValue
PUBLIC	?$TSS0@?1??Lookup@CPropertyMap@@EBEHPBDAAPBD@Z@4HA ; `CPropertyMap::Lookup'::`2'::$TSS0
PUBLIC	?strKey@?1??GetNextAssoc@CPropertyMap@@EBEXAAPAU__POSITION@@AAPBD1@Z@4V?$CStringT@DV?$StrTraitMFC_DLL@DV?$ChTraitsCRT@D@ATL@@@@@ATL@@A ; `CPropertyMap::GetNextAssoc'::`2'::strKey
PUBLIC	?$TSS0@?1??GetNextAssoc@CPropertyMap@@EBEXAAPAU__POSITION@@AAPBD1@Z@4HA ; `CPropertyMap::GetNextAssoc'::`2'::$TSS0
PUBLIC	?strValue@?1??GetNextAssoc@CPropertyMap@@EBEXAAPAU__POSITION@@AAPBD1@Z@4V?$CStringT@DV?$StrTraitMFC_DLL@DV?$ChTraitsCRT@D@ATL@@@@@ATL@@A ; `CPropertyMap::GetNextAssoc'::`2'::strValue
PUBLIC	?$TSS1@?1??GetNextAssoc@CPropertyMap@@EBEXAAPAU__POSITION@@AAPBD1@Z@4HA ; `CPropertyMap::GetNextAssoc'::`2'::$TSS1
PUBLIC	??_7IPacketList000000@@6B@			; IPacketList000000::`vftable'
PUBLIC	??_7?$CList@PAUIPacket000000@@PAU1@@@6B@	; CList<IPacket000000 *,IPacket000000 *>::`vftable'
PUBLIC	??_7CIPacketList000000@@6B?$CList@PAUIPacket000000@@PAU1@@@@ ; CIPacketList000000::`vftable'
PUBLIC	??_7CIPacketList000000@@6BIPacketList000000@@@	; CIPacketList000000::`vftable'
PUBLIC	??_C@_07IBNALNMK@LOGFILE@			; `string'
PUBLIC	??_C@_0M@KCNCPKNK@LOGPROPERTY@			; `string'
PUBLIC	??_C@_0BH@KDLBAJON@InvokeAddInStr?7?$CFs?7?$CFs?$AN?6@ ; `string'
PUBLIC	??_C@_0BP@HFGPJKIL@OnGSharedDataChange?7?$CFs?7?$CFs?7?$CFd?$AN?6@ ; `string'
PUBLIC	??_C@_0BM@LLNGPKFK@OnLSharedDataChange?7?$CFs?7?$CFs?$AN?6@ ; `string'
PUBLIC	??_C@_0P@JMOEIKKC@OnResetChart?$AN?6@		; `string'
PUBLIC	??_C@_0CE@GFHPIFHK@OnPacketDataMultiItem?9HelpMessa@ ; `string'
PUBLIC	??_C@_01GPOEFGEJ@?7@				; `string'
PUBLIC	??_C@_01ICJEACDI@?$DL@				; `string'
PUBLIC	??_C@_0CC@BCEEFGNA@OnPacketDataMultiItem?9TrData?7?$CFs@ ; `string'
PUBLIC	??_C@_03KOJCCHED@?7?$CFf@			; `string'
PUBLIC	??_C@_03JJCHMBFH@?7?$CFs@			; `string'
PUBLIC	??_C@_02JKOLDJMA@?7?5@				; `string'
PUBLIC	??_C@_02NJPGOMH@?$CFf@				; `string'
PUBLIC	??_C@_07CMNLJIKL@?$FL?$CFd?$FN?7?$CFf@		; `string'
PUBLIC	??_C@_0BG@ILBABEIL@OnRealPacketEnd?7?3?$CFs?$AN?6@ ; `string'
PUBLIC	??_C@_0BM@IICBOOGN@OnDrdsAdvise?7?$CFu?7?$CFs?4?$CFs?$CI?$CFs?$CJ?$AN?6@ ; `string'
PUBLIC	??_C@_0BN@NBCJMOLF@OffDrdsAdvise?7?$CFu?7?$CFs?4?$CFs?$CI?$CFs?$CJ?$AN?6@ ; `string'
PUBLIC	??_C@_0BK@BKCDMIFI@OnRealSettingChanged?7?$CFs?$AN?6@ ; `string'
PUBLIC	??_C@_04HCDDPBNL@TRUE@				; `string'
PUBLIC	??_C@_05MAJJAKPI@FALSE@				; `string'
PUBLIC	??_C@_0CF@KDOONFGL@OnNormalizedMinuteTimeRuleReset@ ; `string'
PUBLIC	??_C@_0BH@LJIELJFE@?$FLCurrent?5Properties?$FN?$AN?6@ ; `string'
PUBLIC	??_C@_0BF@DGGOINLJ@WriteLogMessage?7?$CFs?$AN?6@ ; `string'
PUBLIC	??_C@_0BI@DCLFLHGC@OnKeyDown?7?$CFud?7?$CFud?7?$CFud?$AN?6@ ; `string'
PUBLIC	??_C@_0BO@FECOABGG@OnLButtonDblClk?7?$CFud?7?$CFld?7?$CFld?$AN?6@ ; `string'
PUBLIC	??_R4IPropertyMap@@6B@				; IPropertyMap::`RTTI Complete Object Locator'
PUBLIC	??_R0?AUIPropertyMap@@@8			; IPropertyMap `RTTI Type Descriptor'
PUBLIC	??_R3IPropertyMap@@8				; IPropertyMap::`RTTI Class Hierarchy Descriptor'
PUBLIC	??_R2IPropertyMap@@8				; IPropertyMap::`RTTI Base Class Array'
PUBLIC	??_R1A@?0A@EA@IPropertyMap@@8			; IPropertyMap::`RTTI Base Class Descriptor at (0,-1,0,64)'
PUBLIC	??_R0?AUIChartAddIn000000@@@8			; IChartAddIn000000 `RTTI Type Descriptor'
PUBLIC	??_R3IChartAddIn000000@@8			; IChartAddIn000000::`RTTI Class Hierarchy Descriptor'
PUBLIC	??_R2IChartAddIn000000@@8			; IChartAddIn000000::`RTTI Base Class Array'
PUBLIC	??_R1A@?0A@EA@IChartAddIn000000@@8		; IChartAddIn000000::`RTTI Base Class Descriptor at (0,-1,0,64)'
PUBLIC	??_R4CDumpLogger@@6B@				; CDumpLogger::`RTTI Complete Object Locator'
PUBLIC	??_R0?AVCDumpLogger@@@8				; CDumpLogger `RTTI Type Descriptor'
PUBLIC	??_R3CDumpLogger@@8				; CDumpLogger::`RTTI Class Hierarchy Descriptor'
PUBLIC	??_R2CDumpLogger@@8				; CDumpLogger::`RTTI Base Class Array'
PUBLIC	??_R1A@?0A@EA@CDumpLogger@@8			; CDumpLogger::`RTTI Base Class Descriptor at (0,-1,0,64)'
PUBLIC	??_R4CLogAddInImp@@6BCIWUnknown@@@		; CLogAddInImp::`RTTI Complete Object Locator'
PUBLIC	??_R0?AVCLogAddInImp@@@8			; CLogAddInImp `RTTI Type Descriptor'
PUBLIC	??_R3CLogAddInImp@@8				; CLogAddInImp::`RTTI Class Hierarchy Descriptor'
PUBLIC	??_R2CLogAddInImp@@8				; CLogAddInImp::`RTTI Base Class Array'
PUBLIC	??_R1A@?0A@EA@CLogAddInImp@@8			; CLogAddInImp::`RTTI Base Class Descriptor at (0,-1,0,64)'
PUBLIC	??_R1A@?0A@EA@CChartAddInBase000000@@8		; CChartAddInBase000000::`RTTI Base Class Descriptor at (0,-1,0,64)'
PUBLIC	??_R0?AVCChartAddInBase000000@@@8		; CChartAddInBase000000 `RTTI Type Descriptor'
PUBLIC	??_R3CChartAddInBase000000@@8			; CChartAddInBase000000::`RTTI Class Hierarchy Descriptor'
PUBLIC	??_R2CChartAddInBase000000@@8			; CChartAddInBase000000::`RTTI Base Class Array'
PUBLIC	??_R1A@?0A@EA@CIWUnknown@@8			; CIWUnknown::`RTTI Base Class Descriptor at (0,-1,0,64)'
PUBLIC	??_R0?AVCIWUnknown@@@8				; CIWUnknown `RTTI Type Descriptor'
PUBLIC	??_R3CIWUnknown@@8				; CIWUnknown::`RTTI Class Hierarchy Descriptor'
PUBLIC	??_R2CIWUnknown@@8				; CIWUnknown::`RTTI Base Class Array'
PUBLIC	??_R17?0A@EA@IChartAddIn000000@@8		; IChartAddIn000000::`RTTI Base Class Descriptor at (8,-1,0,64)'
PUBLIC	??_R17?0A@EA@IUnknown@@8			; IUnknown::`RTTI Base Class Descriptor at (8,-1,0,64)'
PUBLIC	??_R4CLogAddInImp@@6BIChartAddIn000000@@@	; CLogAddInImp::`RTTI Complete Object Locator'
PUBLIC	??_R4CPropertyMap@@6BCMapStringToString@@@	; CPropertyMap::`RTTI Complete Object Locator'
PUBLIC	??_R0?AVCPropertyMap@@@8			; CPropertyMap `RTTI Type Descriptor'
PUBLIC	??_R3CPropertyMap@@8				; CPropertyMap::`RTTI Class Hierarchy Descriptor'
PUBLIC	??_R2CPropertyMap@@8				; CPropertyMap::`RTTI Base Class Array'
PUBLIC	??_R1A@?0A@EA@CPropertyMap@@8			; CPropertyMap::`RTTI Base Class Descriptor at (0,-1,0,64)'
PUBLIC	??_R1A@?0A@EA@CMapStringToString@@8		; CMapStringToString::`RTTI Base Class Descriptor at (0,-1,0,64)'
PUBLIC	??_R0?AVCMapStringToString@@@8			; CMapStringToString `RTTI Type Descriptor'
PUBLIC	??_R3CMapStringToString@@8			; CMapStringToString::`RTTI Class Hierarchy Descriptor'
PUBLIC	??_R2CMapStringToString@@8			; CMapStringToString::`RTTI Base Class Array'
PUBLIC	??_R1BM@?0A@EA@IPropertyMap@@8			; IPropertyMap::`RTTI Base Class Descriptor at (28,-1,0,64)'
PUBLIC	??_R4CPropertyMap@@6BIPropertyMap@@@		; CPropertyMap::`RTTI Complete Object Locator'
PUBLIC	??_R4IPacketList000000@@6B@			; IPacketList000000::`RTTI Complete Object Locator'
PUBLIC	??_R0?AUIPacketList000000@@@8			; IPacketList000000 `RTTI Type Descriptor'
PUBLIC	??_R3IPacketList000000@@8			; IPacketList000000::`RTTI Class Hierarchy Descriptor'
PUBLIC	??_R2IPacketList000000@@8			; IPacketList000000::`RTTI Base Class Array'
PUBLIC	??_R1A@?0A@EA@IPacketList000000@@8		; IPacketList000000::`RTTI Base Class Descriptor at (0,-1,0,64)'
PUBLIC	??_R4?$CList@PAUIPacket000000@@PAU1@@@6B@	; CList<IPacket000000 *,IPacket000000 *>::`RTTI Complete Object Locator'
PUBLIC	??_R0?AV?$CList@PAUIPacket000000@@PAU1@@@@8	; CList<IPacket000000 *,IPacket000000 *> `RTTI Type Descriptor'
PUBLIC	??_R3?$CList@PAUIPacket000000@@PAU1@@@8		; CList<IPacket000000 *,IPacket000000 *>::`RTTI Class Hierarchy Descriptor'
PUBLIC	??_R2?$CList@PAUIPacket000000@@PAU1@@@8		; CList<IPacket000000 *,IPacket000000 *>::`RTTI Base Class Array'
PUBLIC	??_R1A@?0A@EA@?$CList@PAUIPacket000000@@PAU1@@@8 ; CList<IPacket000000 *,IPacket000000 *>::`RTTI Base Class Descriptor at (0,-1,0,64)'
PUBLIC	??_R4CIPacketList000000@@6B?$CList@PAUIPacket000000@@PAU1@@@@ ; CIPacketList000000::`RTTI Complete Object Locator'
PUBLIC	??_R0?AVCIPacketList000000@@@8			; CIPacketList000000 `RTTI Type Descriptor'
PUBLIC	??_R3CIPacketList000000@@8			; CIPacketList000000::`RTTI Class Hierarchy Descriptor'
PUBLIC	??_R2CIPacketList000000@@8			; CIPacketList000000::`RTTI Base Class Array'
PUBLIC	??_R1A@?0A@EA@CIPacketList000000@@8		; CIPacketList000000::`RTTI Base Class Descriptor at (0,-1,0,64)'
PUBLIC	??_R1BM@?0A@EA@IPacketList000000@@8		; IPacketList000000::`RTTI Base Class Descriptor at (28,-1,0,64)'
PUBLIC	??_R1BM@?0A@EA@IUnknown@@8			; IUnknown::`RTTI Base Class Descriptor at (28,-1,0,64)'
PUBLIC	??_R4CIPacketList000000@@6BIPacketList000000@@@	; CIPacketList000000::`RTTI Complete Object Locator'
EXTRN	__purecall:PROC
EXTRN	??2@YAPAXI@Z:PROC				; operator new
EXTRN	??3@YAXPAX@Z:PROC				; operator delete
EXTRN	??3@YAXPAXI@Z:PROC				; operator delete
EXTRN	?__global_delete@@YAXPAXI@Z:PROC		; __global_delete
EXTRN	??_U@YAPAXI@Z:PROC				; operator new[]
EXTRN	??_V@YAXPAX@Z:PROC				; operator delete[]
EXTRN	_atexit:PROC
EXTRN	__Init_thread_header:PROC
EXTRN	__Init_thread_footer:PROC
EXTRN	___std_terminate:PROC
EXTRN	__imp__stricmp:PROC
EXTRN	__imp__CreateDirectoryA@8:PROC
EXTRN	__imp__GetLocalTime@4:PROC
EXTRN	__imp___lopen@8:PROC
EXTRN	__imp___lcreat@8:PROC
EXTRN	__imp___hwrite@12:PROC
EXTRN	__imp___lclose@4:PROC
EXTRN	__imp___llseek@12:PROC
EXTRN	?AfxThrowInvalidArgException@@YGXXZ:PROC	; AfxThrowInvalidArgException
EXTRN	?AfxThrowArchiveException@@YGXHPBD@Z:PROC	; AfxThrowArchiveException
EXTRN	?GetRuntimeClass@CObject@@UBEPAUCRuntimeClass@@XZ:PROC ; CObject::GetRuntimeClass
EXTRN	__imp_?Empty@?$CSimpleStringT@D$00@ATL@@QAEXXZ:PROC
EXTRN	__imp_?GetBufferSetLength@?$CSimpleStringT@D$00@ATL@@QAEPADH@Z:PROC
EXTRN	__imp_?Concatenate@?$CSimpleStringT@D$00@ATL@@KAXAAV12@PBDH1H@Z:PROC
EXTRN	__imp_??0?$CStringT@DV?$StrTraitMFC_DLL@DV?$ChTraitsCRT@D@ATL@@@@@ATL@@QAE@XZ:PROC
EXTRN	__imp_??0?$CStringT@DV?$StrTraitMFC_DLL@DV?$ChTraitsCRT@D@ATL@@@@@ATL@@QAE@PAUIAtlStringMgr@1@@Z:PROC
EXTRN	__imp_??0?$CStringT@DV?$StrTraitMFC_DLL@DV?$ChTraitsCRT@D@ATL@@@@@ATL@@QAE@PBD@Z:PROC
EXTRN	__imp_??1?$CStringT@DV?$StrTraitMFC_DLL@DV?$ChTraitsCRT@D@ATL@@@@@ATL@@QAE@XZ:PROC
EXTRN	__imp_??4?$CStringT@DV?$StrTraitMFC_DLL@DV?$ChTraitsCRT@D@ATL@@@@@ATL@@QAEAAV01@ABV01@@Z:PROC
EXTRN	__imp_??4?$CStringT@DV?$StrTraitMFC_DLL@DV?$ChTraitsCRT@D@ATL@@@@@ATL@@QAEAAV01@PBD@Z:PROC
EXTRN	__imp_??Y?$CStringT@DV?$StrTraitMFC_DLL@DV?$ChTraitsCRT@D@ATL@@@@@ATL@@QAEAAV01@ABV?$CSimpleStringT@D$00@1@@Z:PROC
EXTRN	__imp_?GetManager@?$CStringT@DV?$StrTraitMFC_DLL@DV?$ChTraitsCRT@D@ATL@@@@@ATL@@QBEPAUIAtlStringMgr@2@XZ:PROC
EXTRN	__imp_?Replace@?$CStringT@DV?$StrTraitMFC_DLL@DV?$ChTraitsCRT@D@ATL@@@@@ATL@@QAEHPBD0@Z:PROC
EXTRN	__imp_?Format@?$CStringT@DV?$StrTraitMFC_DLL@DV?$ChTraitsCRT@D@ATL@@@@@ATL@@QAAXPBDZZ:PROC
EXTRN	?Read@CArchive@@QAEIPAXI@Z:PROC			; CArchive::Read
EXTRN	?Write@CArchive@@QAEXPBXI@Z:PROC		; CArchive::Write
EXTRN	?ReadCount@CArchive@@QAEKXZ:PROC		; CArchive::ReadCount
EXTRN	?WriteCount@CArchive@@QAEXK@Z:PROC		; CArchive::WriteCount
EXTRN	??0CStringList@@QAE@H@Z:PROC			; CStringList::CStringList
EXTRN	?AddTail@CStringList@@QAEPAU__POSITION@@ABV?$CStringT@DV?$StrTraitMFC_DLL@DV?$ChTraitsCRT@D@ATL@@@@@ATL@@@Z:PROC ; CStringList::AddTail
EXTRN	??1CStringList@@UAE@XZ:PROC			; CStringList::~CStringList
EXTRN	?GetRuntimeClass@CMapStringToString@@UBEPAUCRuntimeClass@@XZ:PROC ; CMapStringToString::GetRuntimeClass
EXTRN	??0CMapStringToString@@QAE@H@Z:PROC		; CMapStringToString::CMapStringToString
EXTRN	?Lookup@CMapStringToString@@QBEHPBDAAV?$CStringT@DV?$StrTraitMFC_DLL@DV?$ChTraitsCRT@D@ATL@@@@@ATL@@@Z:PROC ; CMapStringToString::Lookup
EXTRN	?LookupKey@CMapStringToString@@QBEHPBDAAPBD@Z:PROC ; CMapStringToString::LookupKey
EXTRN	??ACMapStringToString@@QAEAAV?$CStringT@DV?$StrTraitMFC_DLL@DV?$ChTraitsCRT@D@ATL@@@@@ATL@@PBD@Z:PROC ; CMapStringToString::operator[]
EXTRN	?RemoveKey@CMapStringToString@@QAEHPBD@Z:PROC	; CMapStringToString::RemoveKey
EXTRN	?RemoveAll@CMapStringToString@@QAEXXZ:PROC	; CMapStringToString::RemoveAll
EXTRN	?GetNextAssoc@CMapStringToString@@QBEXAAPAU__POSITION@@AAV?$CStringT@DV?$StrTraitMFC_DLL@DV?$ChTraitsCRT@D@ATL@@@@@ATL@@1@Z:PROC ; CMapStringToString::GetNextAssoc
EXTRN	?InitHashTable@CMapStringToString@@QAEXIH@Z:PROC ; CMapStringToString::InitHashTable
EXTRN	??1CMapStringToString@@UAE@XZ:PROC		; CMapStringToString::~CMapStringToString
EXTRN	?Serialize@CMapStringToString@@UAEXAAVCArchive@@@Z:PROC ; CMapStringToString::Serialize
EXTRN	?Create@CPlex@@SGPAU1@AAPAU1@II@Z:PROC		; CPlex::Create
EXTRN	?FreeDataChain@CPlex@@QAEXXZ:PROC		; CPlex::FreeDataChain
EXTRN	?AddRef@CIWUnknown@@MAGKXZ:PROC			; CIWUnknown::AddRef
EXTRN	?Release@CIWUnknown@@MAGKXZ:PROC		; CIWUnknown::Release
EXTRN	??0CChartAddInBase000000@@IAE@PAUIChartOCX000000@@PAUIAddInDllBase@@@Z:PROC ; CChartAddInBase000000::CChartAddInBase000000
EXTRN	??1CChartAddInBase000000@@MAE@XZ:PROC		; CChartAddInBase000000::~CChartAddInBase000000
EXTRN	?HasFullManager@CChartAddInBase000000@@MAEHXZ:PROC ; CChartAddInBase000000::HasFullManager
EXTRN	?RegisterEventMap@CChartAddInBase000000@@UAEHH@Z:PROC ; CChartAddInBase000000::RegisterEventMap
EXTRN	?UnregisterEventMap@CChartAddInBase000000@@UAEHXZ:PROC ; CChartAddInBase000000::UnregisterEventMap
EXTRN	?OnOcxDestroyWindow@CChartAddInBase000000@@MAEXXZ:PROC ; CChartAddInBase000000::OnOcxDestroyWindow
EXTRN	??_ECLogAddInImp@@UAEPAXI@Z:PROC		; CLogAddInImp::`vector deleting destructor'
EXTRN	??_ECDumpLogger@@UAEPAXI@Z:PROC			; CDumpLogger::`vector deleting destructor'
EXTRN	??_EIPropertyMap@@MAEPAXI@Z:PROC		; IPropertyMap::`vector deleting destructor'
EXTRN	??_ECPropertyMap@@UAEPAXI@Z:PROC		; CPropertyMap::`vector deleting destructor'
EXTRN	??_EIPacketList000000@@MAEPAXI@Z:PROC		; IPacketList000000::`vector deleting destructor'
EXTRN	??_E?$CList@PAUIPacket000000@@PAU1@@@UAEPAXI@Z:PROC ; CList<IPacket000000 *,IPacket000000 *>::`vector deleting destructor'
EXTRN	??_ECIPacketList000000@@UAEPAXI@Z:PROC		; CIPacketList000000::`vector deleting destructor'
EXTRN	@__security_check_cookie@4:PROC
EXTRN	___CxxFrameHandler3:PROC
EXTRN	__Init_thread_epoch:DWORD
EXTRN	??_7type_info@@6B@:QWORD			; type_info::`vftable'
EXTRN	___security_cookie:DWORD
EXTRN	__fltused:DWORD
EXTRN	__tls_array:DWORD
EXTRN	__tls_index:DWORD
_BSS	SEGMENT
?m_strAddInItemName@CLogAddInImp@@2V?$CStringT@DV?$StrTraitMFC_DLL@DV?$ChTraitsCRT@D@ATL@@@@@ATL@@A DD 01H DUP (?) ; CLogAddInImp::m_strAddInItemName
_BSS	ENDS
;	COMDAT ?strValue@?1??Lookup@CPropertyMap@@EBEHPBDAAPBD@Z@4V?$CStringT@DV?$StrTraitMFC_DLL@DV?$ChTraitsCRT@D@ATL@@@@@ATL@@A
_BSS	SEGMENT
?strValue@?1??Lookup@CPropertyMap@@EBEHPBDAAPBD@Z@4V?$CStringT@DV?$StrTraitMFC_DLL@DV?$ChTraitsCRT@D@ATL@@@@@ATL@@A DD 01H DUP (?) ; `CPropertyMap::Lookup'::`2'::strValue
_BSS	ENDS
;	COMDAT ?$TSS0@?1??Lookup@CPropertyMap@@EBEHPBDAAPBD@Z@4HA
_BSS	SEGMENT
?$TSS0@?1??Lookup@CPropertyMap@@EBEHPBDAAPBD@Z@4HA DD 01H DUP (?) ; `CPropertyMap::Lookup'::`2'::$TSS0
_BSS	ENDS
;	COMDAT ?strKey@?1??GetNextAssoc@CPropertyMap@@EBEXAAPAU__POSITION@@AAPBD1@Z@4V?$CStringT@DV?$StrTraitMFC_DLL@DV?$ChTraitsCRT@D@ATL@@@@@ATL@@A
_BSS	SEGMENT
?strKey@?1??GetNextAssoc@CPropertyMap@@EBEXAAPAU__POSITION@@AAPBD1@Z@4V?$CStringT@DV?$StrTraitMFC_DLL@DV?$ChTraitsCRT@D@ATL@@@@@ATL@@A DD 01H DUP (?) ; `CPropertyMap::GetNextAssoc'::`2'::strKey
_BSS	ENDS
;	COMDAT ?$TSS0@?1??GetNextAssoc@CPropertyMap@@EBEXAAPAU__POSITION@@AAPBD1@Z@4HA
_BSS	SEGMENT
?$TSS0@?1??GetNextAssoc@CPropertyMap@@EBEXAAPAU__POSITION@@AAPBD1@Z@4HA DD 01H DUP (?) ; `CPropertyMap::GetNextAssoc'::`2'::$TSS0
_BSS	ENDS
;	COMDAT ?strValue@?1??GetNextAssoc@CPropertyMap@@EBEXAAPAU__POSITION@@AAPBD1@Z@4V?$CStringT@DV?$StrTraitMFC_DLL@DV?$ChTraitsCRT@D@ATL@@@@@ATL@@A
_BSS	SEGMENT
?strValue@?1??GetNextAssoc@CPropertyMap@@EBEXAAPAU__POSITION@@AAPBD1@Z@4V?$CStringT@DV?$StrTraitMFC_DLL@DV?$ChTraitsCRT@D@ATL@@@@@ATL@@A DD 01H DUP (?) ; `CPropertyMap::GetNextAssoc'::`2'::strValue
_BSS	ENDS
;	COMDAT ?$TSS1@?1??GetNextAssoc@CPropertyMap@@EBEXAAPAU__POSITION@@AAPBD1@Z@4HA
_BSS	SEGMENT
?$TSS1@?1??GetNextAssoc@CPropertyMap@@EBEXAAPAU__POSITION@@AAPBD1@Z@4HA DD 01H DUP (?) ; `CPropertyMap::GetNextAssoc'::`2'::$TSS1
_BSS	ENDS
CRT$XCU	SEGMENT
??m_strAddInItemName$initializer$@CLogAddInImp@@2P6AXXZA@@3P6AXXZA DD FLAT:??__E?m_strAddInItemName@CLogAddInImp@@2V?$CStringT@DV?$StrTraitMFC_DLL@DV?$ChTraitsCRT@D@ATL@@@@@ATL@@A@@YAXXZ ; ??m_strAddInItemName$initializer$@CLogAddInImp@@2P6AXXZA@@3P6AXXZA
CRT$XCU	ENDS
;	COMDAT ??_R4CIPacketList000000@@6BIPacketList000000@@@
rdata$r	SEGMENT
??_R4CIPacketList000000@@6BIPacketList000000@@@ DD 00H	; CIPacketList000000::`RTTI Complete Object Locator'
	DD	01cH
	DD	00H
	DD	FLAT:??_R0?AVCIPacketList000000@@@8
	DD	FLAT:??_R3CIPacketList000000@@8
rdata$r	ENDS
;	COMDAT ??_R1BM@?0A@EA@IUnknown@@8
rdata$r	SEGMENT
??_R1BM@?0A@EA@IUnknown@@8 DD FLAT:??_R0?AUIUnknown@@@8	; IUnknown::`RTTI Base Class Descriptor at (28,-1,0,64)'
	DD	00H
	DD	01cH
	DD	0ffffffffH
	DD	00H
	DD	040H
	DD	FLAT:??_R3IUnknown@@8
rdata$r	ENDS
;	COMDAT ??_R1BM@?0A@EA@IPacketList000000@@8
rdata$r	SEGMENT
??_R1BM@?0A@EA@IPacketList000000@@8 DD FLAT:??_R0?AUIPacketList000000@@@8 ; IPacketList000000::`RTTI Base Class Descriptor at (28,-1,0,64)'
	DD	01H
	DD	01cH
	DD	0ffffffffH
	DD	00H
	DD	040H
	DD	FLAT:??_R3IPacketList000000@@8
rdata$r	ENDS
;	COMDAT ??_R1A@?0A@EA@CIPacketList000000@@8
rdata$r	SEGMENT
??_R1A@?0A@EA@CIPacketList000000@@8 DD FLAT:??_R0?AVCIPacketList000000@@@8 ; CIPacketList000000::`RTTI Base Class Descriptor at (0,-1,0,64)'
	DD	04H
	DD	00H
	DD	0ffffffffH
	DD	00H
	DD	040H
	DD	FLAT:??_R3CIPacketList000000@@8
rdata$r	ENDS
;	COMDAT ??_R2CIPacketList000000@@8
rdata$r	SEGMENT
??_R2CIPacketList000000@@8 DD FLAT:??_R1A@?0A@EA@CIPacketList000000@@8 ; CIPacketList000000::`RTTI Base Class Array'
	DD	FLAT:??_R1A@?0A@EA@?$CList@PAUIPacket000000@@PAU1@@@8
	DD	FLAT:??_R1A@?0A@EA@CObject@@8
	DD	FLAT:??_R1BM@?0A@EA@IPacketList000000@@8
	DD	FLAT:??_R1BM@?0A@EA@IUnknown@@8
rdata$r	ENDS
;	COMDAT ??_R3CIPacketList000000@@8
rdata$r	SEGMENT
??_R3CIPacketList000000@@8 DD 00H			; CIPacketList000000::`RTTI Class Hierarchy Descriptor'
	DD	01H
	DD	05H
	DD	FLAT:??_R2CIPacketList000000@@8
rdata$r	ENDS
;	COMDAT ??_R0?AVCIPacketList000000@@@8
data$rs	SEGMENT
??_R0?AVCIPacketList000000@@@8 DD FLAT:??_7type_info@@6B@ ; CIPacketList000000 `RTTI Type Descriptor'
	DD	00H
	DB	'.?AVCIPacketList000000@@', 00H
data$rs	ENDS
;	COMDAT ??_R4CIPacketList000000@@6B?$CList@PAUIPacket000000@@PAU1@@@@
rdata$r	SEGMENT
??_R4CIPacketList000000@@6B?$CList@PAUIPacket000000@@PAU1@@@@ DD 00H ; CIPacketList000000::`RTTI Complete Object Locator'
	DD	00H
	DD	00H
	DD	FLAT:??_R0?AVCIPacketList000000@@@8
	DD	FLAT:??_R3CIPacketList000000@@8
rdata$r	ENDS
;	COMDAT ??_R1A@?0A@EA@?$CList@PAUIPacket000000@@PAU1@@@8
rdata$r	SEGMENT
??_R1A@?0A@EA@?$CList@PAUIPacket000000@@PAU1@@@8 DD FLAT:??_R0?AV?$CList@PAUIPacket000000@@PAU1@@@@8 ; CList<IPacket000000 *,IPacket000000 *>::`RTTI Base Class Descriptor at (0,-1,0,64)'
	DD	01H
	DD	00H
	DD	0ffffffffH
	DD	00H
	DD	040H
	DD	FLAT:??_R3?$CList@PAUIPacket000000@@PAU1@@@8
rdata$r	ENDS
;	COMDAT ??_R2?$CList@PAUIPacket000000@@PAU1@@@8
rdata$r	SEGMENT
??_R2?$CList@PAUIPacket000000@@PAU1@@@8 DD FLAT:??_R1A@?0A@EA@?$CList@PAUIPacket000000@@PAU1@@@8 ; CList<IPacket000000 *,IPacket000000 *>::`RTTI Base Class Array'
	DD	FLAT:??_R1A@?0A@EA@CObject@@8
rdata$r	ENDS
;	COMDAT ??_R3?$CList@PAUIPacket000000@@PAU1@@@8
rdata$r	SEGMENT
??_R3?$CList@PAUIPacket000000@@PAU1@@@8 DD 00H		; CList<IPacket000000 *,IPacket000000 *>::`RTTI Class Hierarchy Descriptor'
	DD	00H
	DD	02H
	DD	FLAT:??_R2?$CList@PAUIPacket000000@@PAU1@@@8
rdata$r	ENDS
;	COMDAT ??_R0?AV?$CList@PAUIPacket000000@@PAU1@@@@8
data$rs	SEGMENT
??_R0?AV?$CList@PAUIPacket000000@@PAU1@@@@8 DD FLAT:??_7type_info@@6B@ ; CList<IPacket000000 *,IPacket000000 *> `RTTI Type Descriptor'
	DD	00H
	DB	'.?AV?$CList@PAUIPacket000000@@PAU1@@@', 00H
data$rs	ENDS
;	COMDAT ??_R4?$CList@PAUIPacket000000@@PAU1@@@6B@
rdata$r	SEGMENT
??_R4?$CList@PAUIPacket000000@@PAU1@@@6B@ DD 00H	; CList<IPacket000000 *,IPacket000000 *>::`RTTI Complete Object Locator'
	DD	00H
	DD	00H
	DD	FLAT:??_R0?AV?$CList@PAUIPacket000000@@PAU1@@@@8
	DD	FLAT:??_R3?$CList@PAUIPacket000000@@PAU1@@@8
rdata$r	ENDS
;	COMDAT ??_R1A@?0A@EA@IPacketList000000@@8
rdata$r	SEGMENT
??_R1A@?0A@EA@IPacketList000000@@8 DD FLAT:??_R0?AUIPacketList000000@@@8 ; IPacketList000000::`RTTI Base Class Descriptor at (0,-1,0,64)'
	DD	01H
	DD	00H
	DD	0ffffffffH
	DD	00H
	DD	040H
	DD	FLAT:??_R3IPacketList000000@@8
rdata$r	ENDS
;	COMDAT ??_R2IPacketList000000@@8
rdata$r	SEGMENT
??_R2IPacketList000000@@8 DD FLAT:??_R1A@?0A@EA@IPacketList000000@@8 ; IPacketList000000::`RTTI Base Class Array'
	DD	FLAT:??_R1A@?0A@EA@IUnknown@@8
rdata$r	ENDS
;	COMDAT ??_R3IPacketList000000@@8
rdata$r	SEGMENT
??_R3IPacketList000000@@8 DD 00H			; IPacketList000000::`RTTI Class Hierarchy Descriptor'
	DD	00H
	DD	02H
	DD	FLAT:??_R2IPacketList000000@@8
rdata$r	ENDS
;	COMDAT ??_R0?AUIPacketList000000@@@8
data$rs	SEGMENT
??_R0?AUIPacketList000000@@@8 DD FLAT:??_7type_info@@6B@ ; IPacketList000000 `RTTI Type Descriptor'
	DD	00H
	DB	'.?AUIPacketList000000@@', 00H
data$rs	ENDS
;	COMDAT ??_R4IPacketList000000@@6B@
rdata$r	SEGMENT
??_R4IPacketList000000@@6B@ DD 00H			; IPacketList000000::`RTTI Complete Object Locator'
	DD	00H
	DD	00H
	DD	FLAT:??_R0?AUIPacketList000000@@@8
	DD	FLAT:??_R3IPacketList000000@@8
rdata$r	ENDS
;	COMDAT ??_R4CPropertyMap@@6BIPropertyMap@@@
rdata$r	SEGMENT
??_R4CPropertyMap@@6BIPropertyMap@@@ DD 00H		; CPropertyMap::`RTTI Complete Object Locator'
	DD	01cH
	DD	00H
	DD	FLAT:??_R0?AVCPropertyMap@@@8
	DD	FLAT:??_R3CPropertyMap@@8
rdata$r	ENDS
;	COMDAT ??_R1BM@?0A@EA@IPropertyMap@@8
rdata$r	SEGMENT
??_R1BM@?0A@EA@IPropertyMap@@8 DD FLAT:??_R0?AUIPropertyMap@@@8 ; IPropertyMap::`RTTI Base Class Descriptor at (28,-1,0,64)'
	DD	00H
	DD	01cH
	DD	0ffffffffH
	DD	00H
	DD	040H
	DD	FLAT:??_R3IPropertyMap@@8
rdata$r	ENDS
;	COMDAT ??_R2CMapStringToString@@8
rdata$r	SEGMENT
??_R2CMapStringToString@@8 DD FLAT:??_R1A@?0A@EA@CMapStringToString@@8 ; CMapStringToString::`RTTI Base Class Array'
	DD	FLAT:??_R1A@?0A@EA@CObject@@8
rdata$r	ENDS
;	COMDAT ??_R3CMapStringToString@@8
rdata$r	SEGMENT
??_R3CMapStringToString@@8 DD 00H			; CMapStringToString::`RTTI Class Hierarchy Descriptor'
	DD	00H
	DD	02H
	DD	FLAT:??_R2CMapStringToString@@8
rdata$r	ENDS
;	COMDAT ??_R0?AVCMapStringToString@@@8
data$rs	SEGMENT
??_R0?AVCMapStringToString@@@8 DD FLAT:??_7type_info@@6B@ ; CMapStringToString `RTTI Type Descriptor'
	DD	00H
	DB	'.?AVCMapStringToString@@', 00H
data$rs	ENDS
;	COMDAT ??_R1A@?0A@EA@CMapStringToString@@8
rdata$r	SEGMENT
??_R1A@?0A@EA@CMapStringToString@@8 DD FLAT:??_R0?AVCMapStringToString@@@8 ; CMapStringToString::`RTTI Base Class Descriptor at (0,-1,0,64)'
	DD	01H
	DD	00H
	DD	0ffffffffH
	DD	00H
	DD	040H
	DD	FLAT:??_R3CMapStringToString@@8
rdata$r	ENDS
;	COMDAT ??_R1A@?0A@EA@CPropertyMap@@8
rdata$r	SEGMENT
??_R1A@?0A@EA@CPropertyMap@@8 DD FLAT:??_R0?AVCPropertyMap@@@8 ; CPropertyMap::`RTTI Base Class Descriptor at (0,-1,0,64)'
	DD	03H
	DD	00H
	DD	0ffffffffH
	DD	00H
	DD	040H
	DD	FLAT:??_R3CPropertyMap@@8
rdata$r	ENDS
;	COMDAT ??_R2CPropertyMap@@8
rdata$r	SEGMENT
??_R2CPropertyMap@@8 DD FLAT:??_R1A@?0A@EA@CPropertyMap@@8 ; CPropertyMap::`RTTI Base Class Array'
	DD	FLAT:??_R1A@?0A@EA@CMapStringToString@@8
	DD	FLAT:??_R1A@?0A@EA@CObject@@8
	DD	FLAT:??_R1BM@?0A@EA@IPropertyMap@@8
rdata$r	ENDS
;	COMDAT ??_R3CPropertyMap@@8
rdata$r	SEGMENT
??_R3CPropertyMap@@8 DD 00H				; CPropertyMap::`RTTI Class Hierarchy Descriptor'
	DD	01H
	DD	04H
	DD	FLAT:??_R2CPropertyMap@@8
rdata$r	ENDS
;	COMDAT ??_R0?AVCPropertyMap@@@8
data$rs	SEGMENT
??_R0?AVCPropertyMap@@@8 DD FLAT:??_7type_info@@6B@	; CPropertyMap `RTTI Type Descriptor'
	DD	00H
	DB	'.?AVCPropertyMap@@', 00H
data$rs	ENDS
;	COMDAT ??_R4CPropertyMap@@6BCMapStringToString@@@
rdata$r	SEGMENT
??_R4CPropertyMap@@6BCMapStringToString@@@ DD 00H	; CPropertyMap::`RTTI Complete Object Locator'
	DD	00H
	DD	00H
	DD	FLAT:??_R0?AVCPropertyMap@@@8
	DD	FLAT:??_R3CPropertyMap@@8
rdata$r	ENDS
;	COMDAT ??_R4CLogAddInImp@@6BIChartAddIn000000@@@
rdata$r	SEGMENT
??_R4CLogAddInImp@@6BIChartAddIn000000@@@ DD 00H	; CLogAddInImp::`RTTI Complete Object Locator'
	DD	08H
	DD	00H
	DD	FLAT:??_R0?AVCLogAddInImp@@@8
	DD	FLAT:??_R3CLogAddInImp@@8
rdata$r	ENDS
;	COMDAT ??_R17?0A@EA@IUnknown@@8
rdata$r	SEGMENT
??_R17?0A@EA@IUnknown@@8 DD FLAT:??_R0?AUIUnknown@@@8	; IUnknown::`RTTI Base Class Descriptor at (8,-1,0,64)'
	DD	00H
	DD	08H
	DD	0ffffffffH
	DD	00H
	DD	040H
	DD	FLAT:??_R3IUnknown@@8
rdata$r	ENDS
;	COMDAT ??_R17?0A@EA@IChartAddIn000000@@8
rdata$r	SEGMENT
??_R17?0A@EA@IChartAddIn000000@@8 DD FLAT:??_R0?AUIChartAddIn000000@@@8 ; IChartAddIn000000::`RTTI Base Class Descriptor at (8,-1,0,64)'
	DD	01H
	DD	08H
	DD	0ffffffffH
	DD	00H
	DD	040H
	DD	FLAT:??_R3IChartAddIn000000@@8
rdata$r	ENDS
;	COMDAT ??_R2CIWUnknown@@8
rdata$r	SEGMENT
??_R2CIWUnknown@@8 DD FLAT:??_R1A@?0A@EA@CIWUnknown@@8	; CIWUnknown::`RTTI Base Class Array'
	DD	FLAT:??_R1A@?0A@EA@CObject@@8
rdata$r	ENDS
;	COMDAT ??_R3CIWUnknown@@8
rdata$r	SEGMENT
??_R3CIWUnknown@@8 DD 00H				; CIWUnknown::`RTTI Class Hierarchy Descriptor'
	DD	00H
	DD	02H
	DD	FLAT:??_R2CIWUnknown@@8
rdata$r	ENDS
;	COMDAT ??_R0?AVCIWUnknown@@@8
data$rs	SEGMENT
??_R0?AVCIWUnknown@@@8 DD FLAT:??_7type_info@@6B@	; CIWUnknown `RTTI Type Descriptor'
	DD	00H
	DB	'.?AVCIWUnknown@@', 00H
data$rs	ENDS
;	COMDAT ??_R1A@?0A@EA@CIWUnknown@@8
rdata$r	SEGMENT
??_R1A@?0A@EA@CIWUnknown@@8 DD FLAT:??_R0?AVCIWUnknown@@@8 ; CIWUnknown::`RTTI Base Class Descriptor at (0,-1,0,64)'
	DD	01H
	DD	00H
	DD	0ffffffffH
	DD	00H
	DD	040H
	DD	FLAT:??_R3CIWUnknown@@8
rdata$r	ENDS
;	COMDAT ??_R2CChartAddInBase000000@@8
rdata$r	SEGMENT
??_R2CChartAddInBase000000@@8 DD FLAT:??_R1A@?0A@EA@CChartAddInBase000000@@8 ; CChartAddInBase000000::`RTTI Base Class Array'
	DD	FLAT:??_R1A@?0A@EA@CIWUnknown@@8
	DD	FLAT:??_R1A@?0A@EA@CObject@@8
	DD	FLAT:??_R17?0A@EA@IChartAddIn000000@@8
	DD	FLAT:??_R17?0A@EA@IUnknown@@8
rdata$r	ENDS
;	COMDAT ??_R3CChartAddInBase000000@@8
rdata$r	SEGMENT
??_R3CChartAddInBase000000@@8 DD 00H			; CChartAddInBase000000::`RTTI Class Hierarchy Descriptor'
	DD	01H
	DD	05H
	DD	FLAT:??_R2CChartAddInBase000000@@8
rdata$r	ENDS
;	COMDAT ??_R0?AVCChartAddInBase000000@@@8
data$rs	SEGMENT
??_R0?AVCChartAddInBase000000@@@8 DD FLAT:??_7type_info@@6B@ ; CChartAddInBase000000 `RTTI Type Descriptor'
	DD	00H
	DB	'.?AVCChartAddInBase000000@@', 00H
data$rs	ENDS
;	COMDAT ??_R1A@?0A@EA@CChartAddInBase000000@@8
rdata$r	SEGMENT
??_R1A@?0A@EA@CChartAddInBase000000@@8 DD FLAT:??_R0?AVCChartAddInBase000000@@@8 ; CChartAddInBase000000::`RTTI Base Class Descriptor at (0,-1,0,64)'
	DD	04H
	DD	00H
	DD	0ffffffffH
	DD	00H
	DD	040H
	DD	FLAT:??_R3CChartAddInBase000000@@8
rdata$r	ENDS
;	COMDAT ??_R1A@?0A@EA@CLogAddInImp@@8
rdata$r	SEGMENT
??_R1A@?0A@EA@CLogAddInImp@@8 DD FLAT:??_R0?AVCLogAddInImp@@@8 ; CLogAddInImp::`RTTI Base Class Descriptor at (0,-1,0,64)'
	DD	05H
	DD	00H
	DD	0ffffffffH
	DD	00H
	DD	040H
	DD	FLAT:??_R3CLogAddInImp@@8
rdata$r	ENDS
;	COMDAT ??_R2CLogAddInImp@@8
rdata$r	SEGMENT
??_R2CLogAddInImp@@8 DD FLAT:??_R1A@?0A@EA@CLogAddInImp@@8 ; CLogAddInImp::`RTTI Base Class Array'
	DD	FLAT:??_R1A@?0A@EA@CChartAddInBase000000@@8
	DD	FLAT:??_R1A@?0A@EA@CIWUnknown@@8
	DD	FLAT:??_R1A@?0A@EA@CObject@@8
	DD	FLAT:??_R17?0A@EA@IChartAddIn000000@@8
	DD	FLAT:??_R17?0A@EA@IUnknown@@8
rdata$r	ENDS
;	COMDAT ??_R3CLogAddInImp@@8
rdata$r	SEGMENT
??_R3CLogAddInImp@@8 DD 00H				; CLogAddInImp::`RTTI Class Hierarchy Descriptor'
	DD	01H
	DD	06H
	DD	FLAT:??_R2CLogAddInImp@@8
rdata$r	ENDS
;	COMDAT ??_R0?AVCLogAddInImp@@@8
data$rs	SEGMENT
??_R0?AVCLogAddInImp@@@8 DD FLAT:??_7type_info@@6B@	; CLogAddInImp `RTTI Type Descriptor'
	DD	00H
	DB	'.?AVCLogAddInImp@@', 00H
data$rs	ENDS
;	COMDAT ??_R4CLogAddInImp@@6BCIWUnknown@@@
rdata$r	SEGMENT
??_R4CLogAddInImp@@6BCIWUnknown@@@ DD 00H		; CLogAddInImp::`RTTI Complete Object Locator'
	DD	00H
	DD	00H
	DD	FLAT:??_R0?AVCLogAddInImp@@@8
	DD	FLAT:??_R3CLogAddInImp@@8
rdata$r	ENDS
;	COMDAT ??_R1A@?0A@EA@CDumpLogger@@8
rdata$r	SEGMENT
??_R1A@?0A@EA@CDumpLogger@@8 DD FLAT:??_R0?AVCDumpLogger@@@8 ; CDumpLogger::`RTTI Base Class Descriptor at (0,-1,0,64)'
	DD	01H
	DD	00H
	DD	0ffffffffH
	DD	00H
	DD	040H
	DD	FLAT:??_R3CDumpLogger@@8
rdata$r	ENDS
;	COMDAT ??_R2CDumpLogger@@8
rdata$r	SEGMENT
??_R2CDumpLogger@@8 DD FLAT:??_R1A@?0A@EA@CDumpLogger@@8 ; CDumpLogger::`RTTI Base Class Array'
	DD	FLAT:??_R1A@?0A@EA@CObject@@8
rdata$r	ENDS
;	COMDAT ??_R3CDumpLogger@@8
rdata$r	SEGMENT
??_R3CDumpLogger@@8 DD 00H				; CDumpLogger::`RTTI Class Hierarchy Descriptor'
	DD	00H
	DD	02H
	DD	FLAT:??_R2CDumpLogger@@8
rdata$r	ENDS
;	COMDAT ??_R0?AVCDumpLogger@@@8
data$rs	SEGMENT
??_R0?AVCDumpLogger@@@8 DD FLAT:??_7type_info@@6B@	; CDumpLogger `RTTI Type Descriptor'
	DD	00H
	DB	'.?AVCDumpLogger@@', 00H
data$rs	ENDS
;	COMDAT ??_R4CDumpLogger@@6B@
rdata$r	SEGMENT
??_R4CDumpLogger@@6B@ DD 00H				; CDumpLogger::`RTTI Complete Object Locator'
	DD	00H
	DD	00H
	DD	FLAT:??_R0?AVCDumpLogger@@@8
	DD	FLAT:??_R3CDumpLogger@@8
rdata$r	ENDS
;	COMDAT ??_R1A@?0A@EA@IChartAddIn000000@@8
rdata$r	SEGMENT
??_R1A@?0A@EA@IChartAddIn000000@@8 DD FLAT:??_R0?AUIChartAddIn000000@@@8 ; IChartAddIn000000::`RTTI Base Class Descriptor at (0,-1,0,64)'
	DD	01H
	DD	00H
	DD	0ffffffffH
	DD	00H
	DD	040H
	DD	FLAT:??_R3IChartAddIn000000@@8
rdata$r	ENDS
;	COMDAT ??_R2IChartAddIn000000@@8
rdata$r	SEGMENT
??_R2IChartAddIn000000@@8 DD FLAT:??_R1A@?0A@EA@IChartAddIn000000@@8 ; IChartAddIn000000::`RTTI Base Class Array'
	DD	FLAT:??_R1A@?0A@EA@IUnknown@@8
rdata$r	ENDS
;	COMDAT ??_R3IChartAddIn000000@@8
rdata$r	SEGMENT
??_R3IChartAddIn000000@@8 DD 00H			; IChartAddIn000000::`RTTI Class Hierarchy Descriptor'
	DD	00H
	DD	02H
	DD	FLAT:??_R2IChartAddIn000000@@8
rdata$r	ENDS
;	COMDAT ??_R0?AUIChartAddIn000000@@@8
data$rs	SEGMENT
??_R0?AUIChartAddIn000000@@@8 DD FLAT:??_7type_info@@6B@ ; IChartAddIn000000 `RTTI Type Descriptor'
	DD	00H
	DB	'.?AUIChartAddIn000000@@', 00H
data$rs	ENDS
;	COMDAT ??_R1A@?0A@EA@IPropertyMap@@8
rdata$r	SEGMENT
??_R1A@?0A@EA@IPropertyMap@@8 DD FLAT:??_R0?AUIPropertyMap@@@8 ; IPropertyMap::`RTTI Base Class Descriptor at (0,-1,0,64)'
	DD	00H
	DD	00H
	DD	0ffffffffH
	DD	00H
	DD	040H
	DD	FLAT:??_R3IPropertyMap@@8
rdata$r	ENDS
;	COMDAT ??_R2IPropertyMap@@8
rdata$r	SEGMENT
??_R2IPropertyMap@@8 DD FLAT:??_R1A@?0A@EA@IPropertyMap@@8 ; IPropertyMap::`RTTI Base Class Array'
rdata$r	ENDS
;	COMDAT ??_R3IPropertyMap@@8
rdata$r	SEGMENT
??_R3IPropertyMap@@8 DD 00H				; IPropertyMap::`RTTI Class Hierarchy Descriptor'
	DD	00H
	DD	01H
	DD	FLAT:??_R2IPropertyMap@@8
rdata$r	ENDS
;	COMDAT ??_R0?AUIPropertyMap@@@8
data$rs	SEGMENT
??_R0?AUIPropertyMap@@@8 DD FLAT:??_7type_info@@6B@	; IPropertyMap `RTTI Type Descriptor'
	DD	00H
	DB	'.?AUIPropertyMap@@', 00H
data$rs	ENDS
;	COMDAT ??_R4IPropertyMap@@6B@
rdata$r	SEGMENT
??_R4IPropertyMap@@6B@ DD 00H				; IPropertyMap::`RTTI Complete Object Locator'
	DD	00H
	DD	00H
	DD	FLAT:??_R0?AUIPropertyMap@@@8
	DD	FLAT:??_R3IPropertyMap@@8
rdata$r	ENDS
;	COMDAT ??_C@_0BO@FECOABGG@OnLButtonDblClk?7?$CFud?7?$CFld?7?$CFld?$AN?6@
CONST	SEGMENT
??_C@_0BO@FECOABGG@OnLButtonDblClk?7?$CFud?7?$CFld?7?$CFld?$AN?6@ DB 'OnL'
	DB	'ButtonDblClk', 09H, '%ud', 09H, '%ld', 09H, '%ld', 0dH, 0aH, 00H ; `string'
CONST	ENDS
;	COMDAT ??_C@_0BI@DCLFLHGC@OnKeyDown?7?$CFud?7?$CFud?7?$CFud?$AN?6@
CONST	SEGMENT
??_C@_0BI@DCLFLHGC@OnKeyDown?7?$CFud?7?$CFud?7?$CFud?$AN?6@ DB 'OnKeyDown'
	DB	09H, '%ud', 09H, '%ud', 09H, '%ud', 0dH, 0aH, 00H ; `string'
CONST	ENDS
;	COMDAT ??_C@_0BF@DGGOINLJ@WriteLogMessage?7?$CFs?$AN?6@
CONST	SEGMENT
??_C@_0BF@DGGOINLJ@WriteLogMessage?7?$CFs?$AN?6@ DB 'WriteLogMessage', 09H
	DB	'%s', 0dH, 0aH, 00H				; `string'
CONST	ENDS
;	COMDAT ??_C@_0BH@LJIELJFE@?$FLCurrent?5Properties?$FN?$AN?6@
CONST	SEGMENT
??_C@_0BH@LJIELJFE@?$FLCurrent?5Properties?$FN?$AN?6@ DB '[Current Proper'
	DB	'ties]', 0dH, 0aH, 00H			; `string'
CONST	ENDS
;	COMDAT ??_C@_0CF@KDOONFGL@OnNormalizedMinuteTimeRuleReset@
CONST	SEGMENT
??_C@_0CF@KDOONFGL@OnNormalizedMinuteTimeRuleReset@ DB 'OnNormalizedMinut'
	DB	'eTimeRuleReset', 09H, '%s', 0dH, 0aH, 00H	; `string'
CONST	ENDS
;	COMDAT ??_C@_05MAJJAKPI@FALSE@
CONST	SEGMENT
??_C@_05MAJJAKPI@FALSE@ DB 'FALSE', 00H			; `string'
CONST	ENDS
;	COMDAT ??_C@_04HCDDPBNL@TRUE@
CONST	SEGMENT
??_C@_04HCDDPBNL@TRUE@ DB 'TRUE', 00H			; `string'
CONST	ENDS
;	COMDAT ??_C@_0BK@BKCDMIFI@OnRealSettingChanged?7?$CFs?$AN?6@
CONST	SEGMENT
??_C@_0BK@BKCDMIFI@OnRealSettingChanged?7?$CFs?$AN?6@ DB 'OnRealSettingCh'
	DB	'anged', 09H, '%s', 0dH, 0aH, 00H		; `string'
CONST	ENDS
;	COMDAT ??_C@_0BN@NBCJMOLF@OffDrdsAdvise?7?$CFu?7?$CFs?4?$CFs?$CI?$CFs?$CJ?$AN?6@
CONST	SEGMENT
??_C@_0BN@NBCJMOLF@OffDrdsAdvise?7?$CFu?7?$CFs?4?$CFs?$CI?$CFs?$CJ?$AN?6@ DB 'O'
	DB	'ffDrdsAdvise', 09H, '%u', 09H, '%s.%s(%s)', 0dH, 0aH, 00H ; `string'
CONST	ENDS
;	COMDAT ??_C@_0BM@IICBOOGN@OnDrdsAdvise?7?$CFu?7?$CFs?4?$CFs?$CI?$CFs?$CJ?$AN?6@
CONST	SEGMENT
??_C@_0BM@IICBOOGN@OnDrdsAdvise?7?$CFu?7?$CFs?4?$CFs?$CI?$CFs?$CJ?$AN?6@ DB 'O'
	DB	'nDrdsAdvise', 09H, '%u', 09H, '%s.%s(%s)', 0dH, 0aH, 00H ; `string'
CONST	ENDS
;	COMDAT ??_C@_0BG@ILBABEIL@OnRealPacketEnd?7?3?$CFs?$AN?6@
CONST	SEGMENT
??_C@_0BG@ILBABEIL@OnRealPacketEnd?7?3?$CFs?$AN?6@ DB 'OnRealPacketEnd', 09H
	DB	':%s', 0dH, 0aH, 00H				; `string'
CONST	ENDS
;	COMDAT ??_C@_07CMNLJIKL@?$FL?$CFd?$FN?7?$CFf@
CONST	SEGMENT
??_C@_07CMNLJIKL@?$FL?$CFd?$FN?7?$CFf@ DB '[%d]', 09H, '%f', 00H ; `string'
CONST	ENDS
;	COMDAT ??_C@_02NJPGOMH@?$CFf@
CONST	SEGMENT
??_C@_02NJPGOMH@?$CFf@ DB '%f', 00H			; `string'
CONST	ENDS
;	COMDAT ??_C@_02JKOLDJMA@?7?5@
CONST	SEGMENT
??_C@_02JKOLDJMA@?7?5@ DB 09H, ' ', 00H			; `string'
CONST	ENDS
;	COMDAT ??_C@_03JJCHMBFH@?7?$CFs@
CONST	SEGMENT
??_C@_03JJCHMBFH@?7?$CFs@ DB 09H, '%s', 00H		; `string'
CONST	ENDS
;	COMDAT ??_C@_03KOJCCHED@?7?$CFf@
CONST	SEGMENT
??_C@_03KOJCCHED@?7?$CFf@ DB 09H, '%f', 00H		; `string'
CONST	ENDS
;	COMDAT ??_C@_0CC@BCEEFGNA@OnPacketDataMultiItem?9TrData?7?$CFs@
CONST	SEGMENT
??_C@_0CC@BCEEFGNA@OnPacketDataMultiItem?9TrData?7?$CFs@ DB 'OnPacketData'
	DB	'MultiItem-TrData', 09H, '%s%d', 00H		; `string'
CONST	ENDS
;	COMDAT ??_C@_01ICJEACDI@?$DL@
CONST	SEGMENT
??_C@_01ICJEACDI@?$DL@ DB ';', 00H			; `string'
CONST	ENDS
;	COMDAT ??_C@_01GPOEFGEJ@?7@
CONST	SEGMENT
??_C@_01GPOEFGEJ@?7@ DB 09H, 00H			; `string'
CONST	ENDS
;	COMDAT ??_C@_0CE@GFHPIFHK@OnPacketDataMultiItem?9HelpMessa@
CONST	SEGMENT
??_C@_0CE@GFHPIFHK@OnPacketDataMultiItem?9HelpMessa@ DB 'OnPacketDataMult'
	DB	'iItem-HelpMessage', 0dH, 0aH, 00H		; `string'
CONST	ENDS
;	COMDAT ??_C@_0P@JMOEIKKC@OnResetChart?$AN?6@
CONST	SEGMENT
??_C@_0P@JMOEIKKC@OnResetChart?$AN?6@ DB 'OnResetChart', 0dH, 0aH, 00H ; `string'
CONST	ENDS
;	COMDAT ??_C@_0BM@LLNGPKFK@OnLSharedDataChange?7?$CFs?7?$CFs?$AN?6@
CONST	SEGMENT
??_C@_0BM@LLNGPKFK@OnLSharedDataChange?7?$CFs?7?$CFs?$AN?6@ DB 'OnLShared'
	DB	'DataChange', 09H, '%s', 09H, '%s', 0dH, 0aH, 00H ; `string'
CONST	ENDS
;	COMDAT ??_C@_0BP@HFGPJKIL@OnGSharedDataChange?7?$CFs?7?$CFs?7?$CFd?$AN?6@
CONST	SEGMENT
??_C@_0BP@HFGPJKIL@OnGSharedDataChange?7?$CFs?7?$CFs?7?$CFd?$AN?6@ DB 'On'
	DB	'GSharedDataChange', 09H, '%s', 09H, '%s', 09H, '%d', 0dH, 0aH
	DB	00H						; `string'
CONST	ENDS
;	COMDAT ??_C@_0BH@KDLBAJON@InvokeAddInStr?7?$CFs?7?$CFs?$AN?6@
CONST	SEGMENT
??_C@_0BH@KDLBAJON@InvokeAddInStr?7?$CFs?7?$CFs?$AN?6@ DB 'InvokeAddInStr'
	DB	09H, '%s', 09H, '%s', 0dH, 0aH, 00H		; `string'
CONST	ENDS
;	COMDAT ??_C@_0M@KCNCPKNK@LOGPROPERTY@
CONST	SEGMENT
??_C@_0M@KCNCPKNK@LOGPROPERTY@ DB 'LOGPROPERTY', 00H	; `string'
CONST	ENDS
;	COMDAT ??_C@_07IBNALNMK@LOGFILE@
CONST	SEGMENT
??_C@_07IBNALNMK@LOGFILE@ DB 'LOGFILE', 00H		; `string'
CONST	ENDS
;	COMDAT ??_7CIPacketList000000@@6BIPacketList000000@@@
CONST	SEGMENT
??_7CIPacketList000000@@6BIPacketList000000@@@ DD FLAT:??_R4CIPacketList000000@@6BIPacketList000000@@@ ; CIPacketList000000::`vftable'
	DD	FLAT:?QueryInterface@CIPacketList000000@@MAGJABU_GUID@@PAPAX@Z
	DD	FLAT:?AddRef@CIPacketList000000@@MAGKXZ
	DD	FLAT:?Release@CIPacketList000000@@MAGKXZ
	DD	FLAT:??_ECIPacketList000000@@WBM@AEPAXI@Z
	DD	FLAT:?GetCount@CIPacketList000000@@UBEHXZ
	DD	FLAT:?IsEmpty@CIPacketList000000@@UBEHXZ
	DD	FLAT:?GetHead@CIPacketList000000@@UBEPAUIPacket000000@@XZ
	DD	FLAT:?GetTail@CIPacketList000000@@UBEPAUIPacket000000@@XZ
	DD	FLAT:?RemoveHead@CIPacketList000000@@UAEPAUIPacket000000@@XZ
	DD	FLAT:?RemoveTail@CIPacketList000000@@UAEPAUIPacket000000@@XZ
	DD	FLAT:?AddHead@CIPacketList000000@@UAEXPAUIPacketList000000@@@Z
	DD	FLAT:?AddHead@CIPacketList000000@@UAEPAU__POSITION@@PAUIPacket000000@@@Z
	DD	FLAT:?AddTail@CIPacketList000000@@UAEXPAUIPacketList000000@@@Z
	DD	FLAT:?AddTail@CIPacketList000000@@UAEPAU__POSITION@@PAUIPacket000000@@@Z
	DD	FLAT:?RemoveAll@CIPacketList000000@@UAEXXZ
	DD	FLAT:?GetHeadPosition@CIPacketList000000@@UBEPAU__POSITION@@XZ
	DD	FLAT:?GetTailPosition@CIPacketList000000@@UBEPAU__POSITION@@XZ
	DD	FLAT:?GetNext@CIPacketList000000@@UBEPAUIPacket000000@@AAPAU__POSITION@@@Z
	DD	FLAT:?GetPrev@CIPacketList000000@@UBEPAUIPacket000000@@AAPAU__POSITION@@@Z
	DD	FLAT:?GetAt@CIPacketList000000@@UBEPAUIPacket000000@@PAU__POSITION@@@Z
	DD	FLAT:?SetAt@CIPacketList000000@@UAEXPAU__POSITION@@PAUIPacket000000@@@Z
	DD	FLAT:?RemoveAt@CIPacketList000000@@UAEXPAU__POSITION@@@Z
	DD	FLAT:?InsertBefore@CIPacketList000000@@UAEPAU__POSITION@@PAU2@PAUIPacket000000@@@Z
	DD	FLAT:?InsertAfter@CIPacketList000000@@UAEPAU__POSITION@@PAU2@PAUIPacket000000@@@Z
	DD	FLAT:?Find@CIPacketList000000@@UBEPAU__POSITION@@PAUIPacket000000@@PAU2@@Z
	DD	FLAT:?FindIndex@CIPacketList000000@@UBEPAU__POSITION@@H@Z
CONST	ENDS
;	COMDAT ??_7CIPacketList000000@@6B?$CList@PAUIPacket000000@@PAU1@@@@
CONST	SEGMENT
??_7CIPacketList000000@@6B?$CList@PAUIPacket000000@@PAU1@@@@ DD FLAT:??_R4CIPacketList000000@@6B?$CList@PAUIPacket000000@@PAU1@@@@ ; CIPacketList000000::`vftable'
	DD	FLAT:?GetRuntimeClass@CObject@@UBEPAUCRuntimeClass@@XZ
	DD	FLAT:??_ECIPacketList000000@@UAEPAXI@Z
	DD	FLAT:?Serialize@?$CList@PAUIPacket000000@@PAU1@@@UAEXAAVCArchive@@@Z
	DD	FLAT:?AssertValid@CObject@@UBEXXZ
	DD	FLAT:?Dump@CObject@@UBEXAAVCDumpContext@@@Z
CONST	ENDS
;	COMDAT ??_7?$CList@PAUIPacket000000@@PAU1@@@6B@
CONST	SEGMENT
??_7?$CList@PAUIPacket000000@@PAU1@@@6B@ DD FLAT:??_R4?$CList@PAUIPacket000000@@PAU1@@@6B@ ; CList<IPacket000000 *,IPacket000000 *>::`vftable'
	DD	FLAT:?GetRuntimeClass@CObject@@UBEPAUCRuntimeClass@@XZ
	DD	FLAT:??_E?$CList@PAUIPacket000000@@PAU1@@@UAEPAXI@Z
	DD	FLAT:?Serialize@?$CList@PAUIPacket000000@@PAU1@@@UAEXAAVCArchive@@@Z
	DD	FLAT:?AssertValid@CObject@@UBEXXZ
	DD	FLAT:?Dump@CObject@@UBEXAAVCDumpContext@@@Z
CONST	ENDS
;	COMDAT ??_7IPacketList000000@@6B@
CONST	SEGMENT
??_7IPacketList000000@@6B@ DD FLAT:??_R4IPacketList000000@@6B@ ; IPacketList000000::`vftable'
	DD	FLAT:__purecall
	DD	FLAT:__purecall
	DD	FLAT:__purecall
	DD	FLAT:??_EIPacketList000000@@MAEPAXI@Z
	DD	FLAT:__purecall
	DD	FLAT:__purecall
	DD	FLAT:__purecall
	DD	FLAT:__purecall
	DD	FLAT:__purecall
	DD	FLAT:__purecall
	DD	FLAT:__purecall
	DD	FLAT:__purecall
	DD	FLAT:__purecall
	DD	FLAT:__purecall
	DD	FLAT:__purecall
	DD	FLAT:__purecall
	DD	FLAT:__purecall
	DD	FLAT:__purecall
	DD	FLAT:__purecall
	DD	FLAT:__purecall
	DD	FLAT:__purecall
	DD	FLAT:__purecall
	DD	FLAT:__purecall
	DD	FLAT:__purecall
	DD	FLAT:__purecall
	DD	FLAT:__purecall
CONST	ENDS
;	COMDAT ??_7CPropertyMap@@6BIPropertyMap@@@
CONST	SEGMENT
??_7CPropertyMap@@6BIPropertyMap@@@ DD FLAT:??_R4CPropertyMap@@6BIPropertyMap@@@ ; CPropertyMap::`vftable'
	DD	FLAT:??_ECPropertyMap@@WBM@AEPAXI@Z
	DD	FLAT:?GetCount@CPropertyMap@@EBEHXZ
	DD	FLAT:?IsEmpty@CPropertyMap@@EBEHXZ
	DD	FLAT:?Lookup@CPropertyMap@@EBEHPBDAAPBD@Z
	DD	FLAT:?LookupKey@CPropertyMap@@EBEHPBDAAPBD@Z
	DD	FLAT:?SetAt@CPropertyMap@@EAEXPBD0@Z
	DD	FLAT:?RemoveKey@CPropertyMap@@EAEHPBD@Z
	DD	FLAT:?RemoveAll@CPropertyMap@@EAEXXZ
	DD	FLAT:?GetStartPosition@CPropertyMap@@EBEPAU__POSITION@@XZ
	DD	FLAT:?GetNextAssoc@CPropertyMap@@EBEXAAPAU__POSITION@@AAPBD1@Z
	DD	FLAT:?GetHashTableSize@CPropertyMap@@EBEIXZ
	DD	FLAT:?InitHashTable@CPropertyMap@@EAEXIH@Z
CONST	ENDS
;	COMDAT ??_7CPropertyMap@@6BCMapStringToString@@@
CONST	SEGMENT
??_7CPropertyMap@@6BCMapStringToString@@@ DD FLAT:??_R4CPropertyMap@@6BCMapStringToString@@@ ; CPropertyMap::`vftable'
	DD	FLAT:?GetRuntimeClass@CMapStringToString@@UBEPAUCRuntimeClass@@XZ
	DD	FLAT:??_ECPropertyMap@@UAEPAXI@Z
	DD	FLAT:?Serialize@CMapStringToString@@UAEXAAVCArchive@@@Z
	DD	FLAT:?AssertValid@CObject@@UBEXXZ
	DD	FLAT:?Dump@CObject@@UBEXAAVCDumpContext@@@Z
CONST	ENDS
;	COMDAT ??_7IPropertyMap@@6B@
CONST	SEGMENT
??_7IPropertyMap@@6B@ DD FLAT:??_R4IPropertyMap@@6B@	; IPropertyMap::`vftable'
	DD	FLAT:??_EIPropertyMap@@MAEPAXI@Z
	DD	FLAT:__purecall
	DD	FLAT:__purecall
	DD	FLAT:__purecall
	DD	FLAT:__purecall
	DD	FLAT:__purecall
	DD	FLAT:__purecall
	DD	FLAT:__purecall
	DD	FLAT:__purecall
	DD	FLAT:__purecall
	DD	FLAT:__purecall
	DD	FLAT:__purecall
CONST	ENDS
;	COMDAT ??_C@_0BF@GOEHBEJD@?$CF02d?3?$CF02d?3?$CF02d?3?$CF03d?7@
CONST	SEGMENT
??_C@_0BF@GOEHBEJD@?$CF02d?3?$CF02d?3?$CF02d?3?$CF03d?7@ DB '%02d:%02d:%0'
	DB	'2d:%03d', 09H, 00H				; `string'
CONST	ENDS
;	COMDAT ??_C@_0BN@HKLPFIKN@?$AN?6?$AN?6?$AN?6?$FL?$CF02d?3?$CF02d?3?$CF02d?3?$CF03d?5?5@
CONST	SEGMENT
??_C@_0BN@HKLPFIKN@?$AN?6?$AN?6?$AN?6?$FL?$CF02d?3?$CF02d?3?$CF02d?3?$CF03d?5?5@ DB 0dH
	DB	0aH, 0dH, 0aH, 0dH, 0aH, '[%02d:%02d:%02d:%03d  ', 00H ; `string'
CONST	ENDS
;	COMDAT ??_C@_03BFOLIMEF@?$FN?$AN?6@
CONST	SEGMENT
??_C@_03BFOLIMEF@?$FN?$AN?6@ DB ']', 0dH, 0aH, 00H	; `string'
CONST	ENDS
;	COMDAT ??_C@_0BH@KLLDLFAP@?$CFs?2?$CFs_?$CF04d?$CF02d?$CF02d?4log@
CONST	SEGMENT
??_C@_0BH@KLLDLFAP@?$CFs?2?$CFs_?$CF04d?$CF02d?$CF02d?4log@ DB '%s\%s_%04'
	DB	'd%02d%02d.log', 00H				; `string'
CONST	ENDS
;	COMDAT ??_C@_0CJ@GKAGEPNM@?$CFs?2?$CFs_?$CF04d?$CF02d?$CF02d_?$CF02d?$CF02d?$CF02d@
CONST	SEGMENT
??_C@_0CJ@GKAGEPNM@?$CFs?2?$CFs_?$CF04d?$CF02d?$CF02d_?$CF02d?$CF02d?$CF02d@ DB '%'
	DB	's\%s_%04d%02d%02d_%02d%02d%02d_%03d.log', 00H ; `string'
CONST	ENDS
;	COMDAT ??_C@_05GDFJMIEM@MDump@
CONST	SEGMENT
??_C@_05GDFJMIEM@MDump@ DB 'MDump', 00H			; `string'
CONST	ENDS
;	COMDAT ??_C@_07PNFMHCIF@C?3?2Logs@
CONST	SEGMENT
??_C@_07PNFMHCIF@C?3?2Logs@ DB 'C:\Logs', 00H		; `string'
CONST	ENDS
;	COMDAT ??_7CDumpLogger@@6B@
CONST	SEGMENT
??_7CDumpLogger@@6B@ DD FLAT:??_R4CDumpLogger@@6B@	; CDumpLogger::`vftable'
	DD	FLAT:?GetRuntimeClass@CObject@@UBEPAUCRuntimeClass@@XZ
	DD	FLAT:??_ECDumpLogger@@UAEPAXI@Z
	DD	FLAT:?Serialize@CObject@@UAEXAAVCArchive@@@Z
	DD	FLAT:?AssertValid@CObject@@UBEXXZ
	DD	FLAT:?Dump@CObject@@UBEXAAVCDumpContext@@@Z
CONST	ENDS
;	COMDAT ??_7CLogAddInImp@@6BIChartAddIn000000@@@
CONST	SEGMENT
??_7CLogAddInImp@@6BIChartAddIn000000@@@ DD FLAT:??_R4CLogAddInImp@@6BIChartAddIn000000@@@ ; CLogAddInImp::`vftable'
	DD	FLAT:?QueryInterface@CLogAddInImp@@O7AGJABU_GUID@@PAPAX@Z
	DD	FLAT:?AddRef@CLogAddInImp@@O7AGKXZ
	DD	FLAT:?Release@CLogAddInImp@@O7AGKXZ
	DD	FLAT:??_ECLogAddInImp@@W7AEPAXI@Z
	DD	FLAT:?HasFullManager@CChartAddInBase000000@@MAEHXZ
	DD	FLAT:?GetAddInCustomInterface@CLogAddInImp@@MAEPAUIUnknown@@XZ
	DD	FLAT:?InvokeAddIn@CChartAddInBase000000@@MAEHHJ@Z
	DD	FLAT:?InvokeAddInStr@CLogAddInImp@@MAEHPBD0@Z
	DD	FLAT:?OnOcxDestroyWindow@CChartAddInBase000000@@MAEXXZ
	DD	FLAT:?ChangeChartMode@CChartAddInBase000000@@MAEXW4CHART_MODE@CChartInfo@@@Z
	DD	FLAT:?RegisterEventMap@CChartAddInBase000000@@UAEHH@Z
	DD	FLAT:?UnregisterEventMap@CChartAddInBase000000@@UAEHXZ
	DD	FLAT:?OnGSharedDataChange@CLogAddInImp@@MAEXPBD0H@Z
	DD	FLAT:?OnLSharedDataChange@CLogAddInImp@@MAEXPBD0@Z
	DD	FLAT:?OnResetChart@CLogAddInImp@@MAEXXZ
	DD	FLAT:?OnDrawBeforeGraph@CChartAddInBase000000@@MAEXPAUHDC__@@@Z
	DD	FLAT:?OnDrawAfterGraph@CChartAddInBase000000@@MAEXPAUHDC__@@@Z
	DD	FLAT:?OnPacketDataMultiItem@CLogAddInImp@@MAEXPBD0H@Z
	DD	FLAT:?OnTimer@CChartAddInBase000000@@MAEXI@Z
	DD	FLAT:?OnCaptureChanged@CChartAddInBase000000@@MAEXPAUHWND__@@QAUHBITMAP__@@@Z
	DD	FLAT:?OnResetMainBlock@CChartAddInBase000000@@MAEXXZ
	DD	FLAT:?OnUserIndiatorConditionLoaded@CChartAddInBase000000@@MAEXXZ
	DD	FLAT:?OnChartItemChanged@CChartAddInBase000000@@MAEXXZ
	DD	FLAT:?OnGraphDataChanged@CChartAddInBase000000@@MAEXXZ
	DD	FLAT:?OnBlockRemoved@CChartAddInBase000000@@MAEXHH@Z
	DD	FLAT:?OnGraphAdded@CChartAddInBase000000@@MAEXPBD0@Z
	DD	FLAT:?OnManualRealData@CChartAddInBase000000@@MAEXPBDNH@Z
	DD	FLAT:?OnContextMenu@CChartAddInBase000000@@MAEXPAUHWND__@@AAUtagPOINT@@@Z
	DD	FLAT:?OnGraphDeleted@CChartAddInBase000000@@MAEXPBD0@Z
	DD	FLAT:?OnPacketTruncated@CChartAddInBase000000@@MAEXH@Z
	DD	FLAT:?OnBlockChanged@CChartAddInBase000000@@MAEXW4BLOCKBEHAVIOR@CBlockBaseData@@HHHH@Z
	DD	FLAT:?OnToolCommand@CChartAddInBase000000@@MAEXHH@Z
	DD	FLAT:?OnRealData@CLogAddInImp@@MAEXPBDN0@Z
	DD	FLAT:?OnIndexedRealData@CLogAddInImp@@MAEXPBDHN@Z
	DD	FLAT:?OnRealPacketEnd@CLogAddInImp@@MAEXPBD@Z
	DD	FLAT:?OnLoadEnvironment@CChartAddInBase000000@@MAEXPAUIPropertyMap@@@Z
	DD	FLAT:?OnSaveEnvironment@CChartAddInBase000000@@MAEXPAUIPropertyMap@@@Z
	DD	FLAT:?DrawCursor@CChartAddInBase000000@@MAE?AUtagRECT@@PAUHDC__@@@Z
	DD	FLAT:?OnRecalculationComplete@CChartAddInBase000000@@MAEXXZ
	DD	FLAT:?OnPreRealData@CChartAddInBase000000@@MAEHPBDAAN0H@Z
	DD	FLAT:?OnPreIndexedRealData@CChartAddInBase000000@@MAEHPBDHAANH@Z
	DD	FLAT:?OnPreRealPacketEnd@CChartAddInBase000000@@MAEHPBDH@Z
	DD	FLAT:?OnPreNMTRClock@CChartAddInBase000000@@MAEHAA_J@Z
	DD	FLAT:?OnCmdMsg@CChartAddInBase000000@@MAEHIHPAUICmdUI000000@@@Z
	DD	FLAT:?OnAddInMsg@CChartAddInBase000000@@MAEHPBDJ@Z
	DD	FLAT:?OnAddInToolCommand@CChartAddInBase000000@@MAEHAAJW4EAICommandType@@JJ@Z
	DD	FLAT:?OnAddInToolCommand@CChartAddInBase000000@@MAEHAAJW4EAICommandType@@J@Z
	DD	FLAT:?OnAddInToolCommand@CChartAddInBase000000@@MAEHAAJW4EAICommandType@@PBDPAVCObject@@@Z
	DD	FLAT:?OnAddInToolCommand@CChartAddInBase000000@@MAEHAAJW4EAICommandType@@PBD@Z
	DD	FLAT:?OnAddInToolCommand@CChartAddInBase000000@@MAEHAAJW4EAICommandType@@PAUIGraphInfo000000@@@Z
	DD	FLAT:?OnAddInToolCommand@CChartAddInBase000000@@MAEHAAJW4EAICommandType@@@Z
	DD	FLAT:?OnAddInToolCommand@CChartAddInBase000000@@MAEHW4EAICommandType@@JJJJJJJJJ@Z
	DD	FLAT:?OnAddInToolCommand@CChartAddInBase000000@@MAEHW4EAICommandType@@JJ@Z
	DD	FLAT:?OnAddInToolCommand@CLogAddInImp@@MAEHW4EAICommandType@@JPBD11@Z
	DD	FLAT:?OnAddInToolCommand@CChartAddInBase000000@@MAEHW4EAICommandType@@JPBD@Z
	DD	FLAT:?OnAddInToolCommand@CChartAddInBase000000@@MAEHW4EAICommandType@@J@Z
	DD	FLAT:?OnAddInToolCommand@CChartAddInBase000000@@MAEHW4EAICommandType@@PBUIAddInDllBase@@@Z
	DD	FLAT:?OnAddInToolCommand@CLogAddInImp@@MAEHW4EAICommandType@@PBDJ@Z
	DD	FLAT:?OnAddInToolCommand@CChartAddInBase000000@@MAEHW4EAICommandType@@PBD1@Z
	DD	FLAT:?OnAddInToolCommand@CLogAddInImp@@MAEHW4EAICommandType@@PBD@Z
	DD	FLAT:?OnAddInToolCommand@CChartAddInBase000000@@MAEHW4EAICommandType@@PAUHDC__@@IAAUtagPOINT@@K@Z
	DD	FLAT:?OnAddInToolCommand@CChartAddInBase000000@@MAEHW4EAICommandType@@@Z
	DD	FLAT:?OnKeyDown@CLogAddInImp@@MAEHIII@Z
	DD	FLAT:?OnKeyUp@CChartAddInBase000000@@MAEHIII@Z
	DD	FLAT:?OnMouseWheel@CChartAddInBase000000@@MAEHIFUtagPOINT@@K@Z
	DD	FLAT:?OnMouseMove@CChartAddInBase000000@@MAEHPAUHDC__@@IAAUtagPOINT@@KQAUHBITMAP__@@@Z
	DD	FLAT:?OnLButtonDown@CChartAddInBase000000@@MAEHPAUHDC__@@IAAUtagPOINT@@K@Z
	DD	FLAT:?OnLButtonUp@CChartAddInBase000000@@MAEHPAUHDC__@@IAAUtagPOINT@@K@Z
	DD	FLAT:?OnLButtonDblClk@CLogAddInImp@@MAEHPAUHDC__@@IAAUtagPOINT@@K@Z
	DD	FLAT:?OnRButtonDown@CChartAddInBase000000@@MAEHPAUHDC__@@IAAUtagPOINT@@K@Z
	DD	FLAT:?OnRButtonUp@CChartAddInBase000000@@MAEHPAUHDC__@@IAAUtagPOINT@@K@Z
	DD	FLAT:?OnRButtonDblClk@CChartAddInBase000000@@MAEHPAUHDC__@@IAAUtagPOINT@@K@Z
CONST	ENDS
;	COMDAT ??_7CLogAddInImp@@6BCIWUnknown@@@
CONST	SEGMENT
??_7CLogAddInImp@@6BCIWUnknown@@@ DD FLAT:??_R4CLogAddInImp@@6BCIWUnknown@@@ ; CLogAddInImp::`vftable'
	DD	FLAT:?GetRuntimeClass@CObject@@UBEPAUCRuntimeClass@@XZ
	DD	FLAT:??_ECLogAddInImp@@UAEPAXI@Z
	DD	FLAT:?Serialize@CObject@@UAEXAAVCArchive@@@Z
	DD	FLAT:?AssertValid@CObject@@UBEXXZ
	DD	FLAT:?Dump@CObject@@UBEXAAVCDumpContext@@@Z
	DD	FLAT:?AddRef@CLogAddInImp@@MAGKXZ
	DD	FLAT:?Release@CLogAddInImp@@MAGKXZ
	DD	FLAT:?QueryInterface@CLogAddInImp@@MAGJABU_GUID@@PAPAX@Z
	DD	FLAT:?PostConstruct@CIWUnknown@@MAEXXZ
	DD	FLAT:?PreDestructX@CIWUnknown@@MAEXXZ
	DD	FLAT:?PreDestruct@CIWUnknown@@MAEXXZ
	DD	FLAT:?GetRegisteredEventMap@CLogAddInImp@@MBEPBW4EAddInEventType@IChartAddIn000000@@XZ
	DD	FLAT:?AfeterOnOcxDestroyWindow@CChartAddInBase000000@@MAEXXZ
CONST	ENDS
;	COMDAT ??_R1A@?0A@EA@IUnknown@@8
rdata$r	SEGMENT
??_R1A@?0A@EA@IUnknown@@8 DD FLAT:??_R0?AUIUnknown@@@8	; IUnknown::`RTTI Base Class Descriptor at (0,-1,0,64)'
	DD	00H
	DD	00H
	DD	0ffffffffH
	DD	00H
	DD	040H
	DD	FLAT:??_R3IUnknown@@8
rdata$r	ENDS
;	COMDAT ??_R2IUnknown@@8
rdata$r	SEGMENT
??_R2IUnknown@@8 DD FLAT:??_R1A@?0A@EA@IUnknown@@8	; IUnknown::`RTTI Base Class Array'
rdata$r	ENDS
;	COMDAT ??_R3IUnknown@@8
rdata$r	SEGMENT
??_R3IUnknown@@8 DD 00H					; IUnknown::`RTTI Class Hierarchy Descriptor'
	DD	00H
	DD	01H
	DD	FLAT:??_R2IUnknown@@8
rdata$r	ENDS
;	COMDAT ??_R0?AUIUnknown@@@8
data$rs	SEGMENT
??_R0?AUIUnknown@@@8 DD FLAT:??_7type_info@@6B@		; IUnknown `RTTI Type Descriptor'
	DD	00H
	DB	'.?AUIUnknown@@', 00H
data$rs	ENDS
;	COMDAT ??_R1A@?0A@EA@CObject@@8
rdata$r	SEGMENT
??_R1A@?0A@EA@CObject@@8 DD FLAT:??_R0?AVCObject@@@8	; CObject::`RTTI Base Class Descriptor at (0,-1,0,64)'
	DD	00H
	DD	00H
	DD	0ffffffffH
	DD	00H
	DD	040H
	DD	FLAT:??_R3CObject@@8
rdata$r	ENDS
;	COMDAT ??_R2CObject@@8
rdata$r	SEGMENT
??_R2CObject@@8 DD FLAT:??_R1A@?0A@EA@CObject@@8	; CObject::`RTTI Base Class Array'
rdata$r	ENDS
;	COMDAT ??_R3CObject@@8
rdata$r	SEGMENT
??_R3CObject@@8 DD 00H					; CObject::`RTTI Class Hierarchy Descriptor'
	DD	00H
	DD	01H
	DD	FLAT:??_R2CObject@@8
rdata$r	ENDS
;	COMDAT ??_R0?AVCObject@@@8
data$rs	SEGMENT
??_R0?AVCObject@@@8 DD FLAT:??_7type_info@@6B@		; CObject `RTTI Type Descriptor'
	DD	00H
	DB	'.?AVCObject@@', 00H
data$rs	ENDS
;	COMDAT ??_C@_00CNPNBAHC@@
CONST	SEGMENT
??_C@_00CNPNBAHC@@ DB 00H				; `string'
CONST	ENDS
;	COMDAT xdata$x
xdata$x	SEGMENT
__unwindtable$??_GCIPacketList000000@@UAEPAXI@Z DD 0ffffffffH
	DD	FLAT:___std_terminate
__ehfuncinfo$??_GCIPacketList000000@@UAEPAXI@Z DD 019930522H
	DD	01H
	DD	FLAT:__unwindtable$??_GCIPacketList000000@@UAEPAXI@Z
	DD	2 DUP(00H)
	DD	2 DUP(00H)
	DD	00H
	DD	05H
xdata$x	ENDS
;	COMDAT xdata$x
xdata$x	SEGMENT
__unwindtable$??1CIPacketList000000@@UAE@XZ DD 0ffffffffH
	DD	FLAT:___std_terminate
__ehfuncinfo$??1CIPacketList000000@@UAE@XZ DD 019930522H
	DD	01H
	DD	FLAT:__unwindtable$??1CIPacketList000000@@UAE@XZ
	DD	2 DUP(00H)
	DD	2 DUP(00H)
	DD	00H
	DD	05H
xdata$x	ENDS
;	COMDAT xdata$x
xdata$x	SEGMENT
__unwindtable$??_G?$CList@PAUIPacket000000@@PAU1@@@UAEPAXI@Z DD 0ffffffffH
	DD	FLAT:___std_terminate
__ehfuncinfo$??_G?$CList@PAUIPacket000000@@PAU1@@@UAEPAXI@Z DD 019930522H
	DD	01H
	DD	FLAT:__unwindtable$??_G?$CList@PAUIPacket000000@@PAU1@@@UAEPAXI@Z
	DD	2 DUP(00H)
	DD	2 DUP(00H)
	DD	00H
	DD	05H
xdata$x	ENDS
;	COMDAT xdata$x
xdata$x	SEGMENT
__ehfuncinfo$??1?$CList@PAUIPacket000000@@PAU1@@@UAE@XZ DD 019930522H
	DD	00H
	DD	00H
	DD	2 DUP(00H)
	DD	2 DUP(00H)
	DD	00H
	DD	05H
xdata$x	ENDS
;	COMDAT xdata$x
xdata$x	SEGMENT
__ehfuncinfo$??1ILPCSTR000000@@QAE@XZ DD 019930522H
	DD	00H
	DD	00H
	DD	2 DUP(00H)
	DD	2 DUP(00H)
	DD	00H
	DD	05H
xdata$x	ENDS
;	COMDAT xdata$x
xdata$x	SEGMENT
__ehfuncinfo$?WriteToStringLog@CDumpLogger@@QAEXPBD0H@Z DD 019930522H
	DD	05H
	DD	FLAT:__unwindtable$?WriteToStringLog@CDumpLogger@@QAEXPBD0H@Z
	DD	2 DUP(00H)
	DD	2 DUP(00H)
	DD	00H
	DD	01H
__unwindtable$?WriteToStringLog@CDumpLogger@@QAEXPBD0H@Z DD 0ffffffffH
	DD	FLAT:__unwindfunclet$?WriteToStringLog@CDumpLogger@@QAEXPBD0H@Z$0
	DD	00H
	DD	FLAT:__unwindfunclet$?WriteToStringLog@CDumpLogger@@QAEXPBD0H@Z$1
	DD	01H
	DD	FLAT:__unwindfunclet$?WriteToStringLog@CDumpLogger@@QAEXPBD0H@Z$5
	DD	02H
	DD	FLAT:__unwindfunclet$?WriteToStringLog@CDumpLogger@@QAEXPBD0H@Z$6
	DD	00H
	DD	FLAT:__unwindfunclet$?WriteToStringLog@CDumpLogger@@QAEXPBD0H@Z$4
xdata$x	ENDS
;	COMDAT xdata$x
xdata$x	SEGMENT
__unwindtable$??0CDumpLogger@@QAE@PBDH0@Z DD 0ffffffffH
	DD	FLAT:__unwindfunclet$??0CDumpLogger@@QAE@PBDH0@Z$0
__ehfuncinfo$??0CDumpLogger@@QAE@PBDH0@Z DD 019930522H
	DD	01H
	DD	FLAT:__unwindtable$??0CDumpLogger@@QAE@PBDH0@Z
	DD	2 DUP(00H)
	DD	2 DUP(00H)
	DD	00H
	DD	01H
xdata$x	ENDS
;	COMDAT xdata$x
xdata$x	SEGMENT
__unwindtable$??_GCLogAddInImp@@UAEPAXI@Z DD 0ffffffffH
	DD	FLAT:___std_terminate
__ehfuncinfo$??_GCLogAddInImp@@UAEPAXI@Z DD 019930522H
	DD	01H
	DD	FLAT:__unwindtable$??_GCLogAddInImp@@UAEPAXI@Z
	DD	2 DUP(00H)
	DD	2 DUP(00H)
	DD	00H
	DD	05H
xdata$x	ENDS
;	COMDAT xdata$x
xdata$x	SEGMENT
__unwindtable$?OnLButtonDblClk@CLogAddInImp@@MAEHPAUHDC__@@IAAUtagPOINT@@K@Z DD 0ffffffffH
	DD	FLAT:__unwindfunclet$?OnLButtonDblClk@CLogAddInImp@@MAEHPAUHDC__@@IAAUtagPOINT@@K@Z$0
__ehfuncinfo$?OnLButtonDblClk@CLogAddInImp@@MAEHPAUHDC__@@IAAUtagPOINT@@K@Z DD 019930522H
	DD	01H
	DD	FLAT:__unwindtable$?OnLButtonDblClk@CLogAddInImp@@MAEHPAUHDC__@@IAAUtagPOINT@@K@Z
	DD	2 DUP(00H)
	DD	2 DUP(00H)
	DD	00H
	DD	01H
xdata$x	ENDS
;	COMDAT xdata$x
xdata$x	SEGMENT
__unwindtable$?OnKeyDown@CLogAddInImp@@MAEHIII@Z DD 0ffffffffH
	DD	FLAT:__unwindfunclet$?OnKeyDown@CLogAddInImp@@MAEHIII@Z$0
__ehfuncinfo$?OnKeyDown@CLogAddInImp@@MAEHIII@Z DD 019930522H
	DD	01H
	DD	FLAT:__unwindtable$?OnKeyDown@CLogAddInImp@@MAEHIII@Z
	DD	2 DUP(00H)
	DD	2 DUP(00H)
	DD	00H
	DD	01H
xdata$x	ENDS
;	COMDAT xdata$x
xdata$x	SEGMENT
__unwindtable$?OnAddInToolCommand@CLogAddInImp@@MAEHW4EAICommandType@@JPBD11@Z DD 0ffffffffH
	DD	FLAT:__unwindfunclet$?OnAddInToolCommand@CLogAddInImp@@MAEHW4EAICommandType@@JPBD11@Z$0
	DD	0ffffffffH
	DD	FLAT:__unwindfunclet$?OnAddInToolCommand@CLogAddInImp@@MAEHW4EAICommandType@@JPBD11@Z$1
__ehfuncinfo$?OnAddInToolCommand@CLogAddInImp@@MAEHW4EAICommandType@@JPBD11@Z DD 019930522H
	DD	02H
	DD	FLAT:__unwindtable$?OnAddInToolCommand@CLogAddInImp@@MAEHW4EAICommandType@@JPBD11@Z
	DD	2 DUP(00H)
	DD	2 DUP(00H)
	DD	00H
	DD	01H
xdata$x	ENDS
;	COMDAT xdata$x
xdata$x	SEGMENT
__unwindtable$?OnAddInToolCommand@CLogAddInImp@@MAEHW4EAICommandType@@PBDJ@Z DD 0ffffffffH
	DD	FLAT:__unwindfunclet$?OnAddInToolCommand@CLogAddInImp@@MAEHW4EAICommandType@@PBDJ@Z$0
	DD	0ffffffffH
	DD	FLAT:__unwindfunclet$?OnAddInToolCommand@CLogAddInImp@@MAEHW4EAICommandType@@PBDJ@Z$1
__ehfuncinfo$?OnAddInToolCommand@CLogAddInImp@@MAEHW4EAICommandType@@PBDJ@Z DD 019930522H
	DD	02H
	DD	FLAT:__unwindtable$?OnAddInToolCommand@CLogAddInImp@@MAEHW4EAICommandType@@PBDJ@Z
	DD	2 DUP(00H)
	DD	2 DUP(00H)
	DD	00H
	DD	01H
xdata$x	ENDS
;	COMDAT xdata$x
xdata$x	SEGMENT
__unwindtable$?OnAddInToolCommand@CLogAddInImp@@MAEHW4EAICommandType@@PBD@Z DD 0ffffffffH
	DD	FLAT:__unwindfunclet$?OnAddInToolCommand@CLogAddInImp@@MAEHW4EAICommandType@@PBD@Z$0
__ehfuncinfo$?OnAddInToolCommand@CLogAddInImp@@MAEHW4EAICommandType@@PBD@Z DD 019930522H
	DD	01H
	DD	FLAT:__unwindtable$?OnAddInToolCommand@CLogAddInImp@@MAEHW4EAICommandType@@PBD@Z
	DD	2 DUP(00H)
	DD	2 DUP(00H)
	DD	00H
	DD	01H
xdata$x	ENDS
;	COMDAT xdata$x
xdata$x	SEGMENT
__unwindtable$?WriteLogMessage@CLogAddInImp@@IAEXPBD@Z DD 0ffffffffH
	DD	FLAT:__unwindfunclet$?WriteLogMessage@CLogAddInImp@@IAEXPBD@Z$0
__ehfuncinfo$?WriteLogMessage@CLogAddInImp@@IAEXPBD@Z DD 019930522H
	DD	01H
	DD	FLAT:__unwindtable$?WriteLogMessage@CLogAddInImp@@IAEXPBD@Z
	DD	2 DUP(00H)
	DD	2 DUP(00H)
	DD	00H
	DD	01H
xdata$x	ENDS
;	COMDAT xdata$x
xdata$x	SEGMENT
__unwindtable$?LogAllProperties@CLogAddInImp@@IAEHXZ DD 0ffffffffH
	DD	FLAT:__unwindfunclet$?LogAllProperties@CLogAddInImp@@IAEHXZ$0
	DD	00H
	DD	FLAT:__unwindfunclet$?LogAllProperties@CLogAddInImp@@IAEHXZ$1
	DD	01H
	DD	FLAT:__unwindfunclet$?LogAllProperties@CLogAddInImp@@IAEHXZ$2
__ehfuncinfo$?LogAllProperties@CLogAddInImp@@IAEHXZ DD 019930522H
	DD	03H
	DD	FLAT:__unwindtable$?LogAllProperties@CLogAddInImp@@IAEHXZ
	DD	2 DUP(00H)
	DD	2 DUP(00H)
	DD	00H
	DD	01H
xdata$x	ENDS
;	COMDAT xdata$x
xdata$x	SEGMENT
__unwindtable$?OnNormalizedMinuteTimeRuleReset@CLogAddInImp@@IAEXH@Z DD 0ffffffffH
	DD	FLAT:__unwindfunclet$?OnNormalizedMinuteTimeRuleReset@CLogAddInImp@@IAEXH@Z$0
__ehfuncinfo$?OnNormalizedMinuteTimeRuleReset@CLogAddInImp@@IAEXH@Z DD 019930522H
	DD	01H
	DD	FLAT:__unwindtable$?OnNormalizedMinuteTimeRuleReset@CLogAddInImp@@IAEXH@Z
	DD	2 DUP(00H)
	DD	2 DUP(00H)
	DD	00H
	DD	01H
xdata$x	ENDS
;	COMDAT xdata$x
xdata$x	SEGMENT
__unwindtable$?OnRealSettingChanged@CLogAddInImp@@IAEXPBD@Z DD 0ffffffffH
	DD	FLAT:__unwindfunclet$?OnRealSettingChanged@CLogAddInImp@@IAEXPBD@Z$0
__ehfuncinfo$?OnRealSettingChanged@CLogAddInImp@@IAEXPBD@Z DD 019930522H
	DD	01H
	DD	FLAT:__unwindtable$?OnRealSettingChanged@CLogAddInImp@@IAEXPBD@Z
	DD	2 DUP(00H)
	DD	2 DUP(00H)
	DD	00H
	DD	01H
xdata$x	ENDS
;	COMDAT xdata$x
xdata$x	SEGMENT
__unwindtable$?OffDrdsAdvise@CLogAddInImp@@IAEXJPBD00@Z DD 0ffffffffH
	DD	FLAT:__unwindfunclet$?OffDrdsAdvise@CLogAddInImp@@IAEXJPBD00@Z$0
__ehfuncinfo$?OffDrdsAdvise@CLogAddInImp@@IAEXJPBD00@Z DD 019930522H
	DD	01H
	DD	FLAT:__unwindtable$?OffDrdsAdvise@CLogAddInImp@@IAEXJPBD00@Z
	DD	2 DUP(00H)
	DD	2 DUP(00H)
	DD	00H
	DD	01H
xdata$x	ENDS
;	COMDAT xdata$x
xdata$x	SEGMENT
__unwindtable$?OnDrdsAdvise@CLogAddInImp@@IAEXJPBD00@Z DD 0ffffffffH
	DD	FLAT:__unwindfunclet$?OnDrdsAdvise@CLogAddInImp@@IAEXJPBD00@Z$0
__ehfuncinfo$?OnDrdsAdvise@CLogAddInImp@@IAEXJPBD00@Z DD 019930522H
	DD	01H
	DD	FLAT:__unwindtable$?OnDrdsAdvise@CLogAddInImp@@IAEXJPBD00@Z
	DD	2 DUP(00H)
	DD	2 DUP(00H)
	DD	00H
	DD	01H
xdata$x	ENDS
;	COMDAT xdata$x
xdata$x	SEGMENT
__unwindtable$?OnRealPacketEnd@CLogAddInImp@@MAEXPBD@Z DD 0ffffffffH
	DD	FLAT:__unwindfunclet$?OnRealPacketEnd@CLogAddInImp@@MAEXPBD@Z$0
__ehfuncinfo$?OnRealPacketEnd@CLogAddInImp@@MAEXPBD@Z DD 019930522H
	DD	01H
	DD	FLAT:__unwindtable$?OnRealPacketEnd@CLogAddInImp@@MAEXPBD@Z
	DD	2 DUP(00H)
	DD	2 DUP(00H)
	DD	00H
	DD	01H
xdata$x	ENDS
;	COMDAT xdata$x
xdata$x	SEGMENT
__ehfuncinfo$?OnIndexedRealData@CLogAddInImp@@MAEXPBDHN@Z DD 019930522H
	DD	05H
	DD	FLAT:__unwindtable$?OnIndexedRealData@CLogAddInImp@@MAEXPBDHN@Z
	DD	2 DUP(00H)
	DD	2 DUP(00H)
	DD	00H
	DD	01H
__unwindtable$?OnIndexedRealData@CLogAddInImp@@MAEXPBDHN@Z DD 0ffffffffH
	DD	FLAT:__unwindfunclet$?OnIndexedRealData@CLogAddInImp@@MAEXPBDHN@Z$0
	DD	00H
	DD	FLAT:__unwindfunclet$?OnIndexedRealData@CLogAddInImp@@MAEXPBDHN@Z$1
	DD	01H
	DD	FLAT:__unwindfunclet$?OnIndexedRealData@CLogAddInImp@@MAEXPBDHN@Z$5
	DD	02H
	DD	FLAT:__unwindfunclet$?OnIndexedRealData@CLogAddInImp@@MAEXPBDHN@Z$6
	DD	03H
	DD	FLAT:__unwindfunclet$?OnIndexedRealData@CLogAddInImp@@MAEXPBDHN@Z$7
xdata$x	ENDS
;	COMDAT xdata$x
xdata$x	SEGMENT
__ehfuncinfo$?OnRealData@CLogAddInImp@@MAEXPBDN0@Z DD 019930522H
	DD	05H
	DD	FLAT:__unwindtable$?OnRealData@CLogAddInImp@@MAEXPBDN0@Z
	DD	2 DUP(00H)
	DD	2 DUP(00H)
	DD	00H
	DD	01H
__unwindtable$?OnRealData@CLogAddInImp@@MAEXPBDN0@Z DD 0ffffffffH
	DD	FLAT:__unwindfunclet$?OnRealData@CLogAddInImp@@MAEXPBDN0@Z$0
	DD	00H
	DD	FLAT:__unwindfunclet$?OnRealData@CLogAddInImp@@MAEXPBDN0@Z$1
	DD	01H
	DD	FLAT:__unwindfunclet$?OnRealData@CLogAddInImp@@MAEXPBDN0@Z$5
	DD	02H
	DD	FLAT:__unwindfunclet$?OnRealData@CLogAddInImp@@MAEXPBDN0@Z$6
	DD	03H
	DD	FLAT:__unwindfunclet$?OnRealData@CLogAddInImp@@MAEXPBDN0@Z$7
xdata$x	ENDS
;	COMDAT xdata$x
xdata$x	SEGMENT
__ehfuncinfo$?OnPacketDataMultiItem@CLogAddInImp@@MAEXPBD0H@Z DD 019930522H
	DD	010H
	DD	FLAT:__unwindtable$?OnPacketDataMultiItem@CLogAddInImp@@MAEXPBD0H@Z
	DD	2 DUP(00H)
	DD	2 DUP(00H)
	DD	00H
	DD	01H
__unwindtable$?OnPacketDataMultiItem@CLogAddInImp@@MAEXPBD0H@Z DD 0ffffffffH
	DD	FLAT:__unwindfunclet$?OnPacketDataMultiItem@CLogAddInImp@@MAEXPBD0H@Z$0
	DD	00H
	DD	FLAT:__unwindfunclet$?OnPacketDataMultiItem@CLogAddInImp@@MAEXPBD0H@Z$1
	DD	01H
	DD	FLAT:__unwindfunclet$?OnPacketDataMultiItem@CLogAddInImp@@MAEXPBD0H@Z$2
	DD	02H
	DD	FLAT:__unwindfunclet$?OnPacketDataMultiItem@CLogAddInImp@@MAEXPBD0H@Z$3
	DD	00H
	DD	00H
	DD	0ffffffffH
	DD	00H
	DD	00H
	DD	00H
	DD	0ffffffffH
	DD	00H
	DD	03H
	DD	FLAT:__unwindfunclet$?OnPacketDataMultiItem@CLogAddInImp@@MAEXPBD0H@Z$4
	DD	08H
	DD	FLAT:__unwindfunclet$?OnPacketDataMultiItem@CLogAddInImp@@MAEXPBD0H@Z$5
	DD	09H
	DD	FLAT:__unwindfunclet$?OnPacketDataMultiItem@CLogAddInImp@@MAEXPBD0H@Z$6
	DD	0aH
	DD	FLAT:__unwindfunclet$?OnPacketDataMultiItem@CLogAddInImp@@MAEXPBD0H@Z$7
	DD	0aH
	DD	FLAT:___std_terminate
	DD	02H
	DD	FLAT:___std_terminate
	DD	00H
	DD	FLAT:___std_terminate
	DD	0ffffffffH
	DD	FLAT:___std_terminate
xdata$x	ENDS
;	COMDAT xdata$x
xdata$x	SEGMENT
__unwindtable$?OnResetChart@CLogAddInImp@@MAEXXZ DD 0ffffffffH
	DD	FLAT:__unwindfunclet$?OnResetChart@CLogAddInImp@@MAEXXZ$0
__ehfuncinfo$?OnResetChart@CLogAddInImp@@MAEXXZ DD 019930522H
	DD	01H
	DD	FLAT:__unwindtable$?OnResetChart@CLogAddInImp@@MAEXXZ
	DD	2 DUP(00H)
	DD	2 DUP(00H)
	DD	00H
	DD	01H
xdata$x	ENDS
;	COMDAT xdata$x
xdata$x	SEGMENT
__unwindtable$?OnLSharedDataChange@CLogAddInImp@@MAEXPBD0@Z DD 0ffffffffH
	DD	FLAT:__unwindfunclet$?OnLSharedDataChange@CLogAddInImp@@MAEXPBD0@Z$0
__ehfuncinfo$?OnLSharedDataChange@CLogAddInImp@@MAEXPBD0@Z DD 019930522H
	DD	01H
	DD	FLAT:__unwindtable$?OnLSharedDataChange@CLogAddInImp@@MAEXPBD0@Z
	DD	2 DUP(00H)
	DD	2 DUP(00H)
	DD	00H
	DD	01H
xdata$x	ENDS
;	COMDAT xdata$x
xdata$x	SEGMENT
__unwindtable$?OnGSharedDataChange@CLogAddInImp@@MAEXPBD0H@Z DD 0ffffffffH
	DD	FLAT:__unwindfunclet$?OnGSharedDataChange@CLogAddInImp@@MAEXPBD0H@Z$0
__ehfuncinfo$?OnGSharedDataChange@CLogAddInImp@@MAEXPBD0H@Z DD 019930522H
	DD	01H
	DD	FLAT:__unwindtable$?OnGSharedDataChange@CLogAddInImp@@MAEXPBD0H@Z
	DD	2 DUP(00H)
	DD	2 DUP(00H)
	DD	00H
	DD	01H
xdata$x	ENDS
;	COMDAT xdata$x
xdata$x	SEGMENT
__unwindtable$?InvokeAddInStr@CLogAddInImp@@MAEHPBD0@Z DD 0ffffffffH
	DD	FLAT:__unwindfunclet$?InvokeAddInStr@CLogAddInImp@@MAEHPBD0@Z$0
	DD	00H
	DD	FLAT:__unwindfunclet$?InvokeAddInStr@CLogAddInImp@@MAEHPBD0@Z$2
	DD	0ffffffffH
	DD	FLAT:__unwindfunclet$?InvokeAddInStr@CLogAddInImp@@MAEHPBD0@Z$1
__ehfuncinfo$?InvokeAddInStr@CLogAddInImp@@MAEHPBD0@Z DD 019930522H
	DD	03H
	DD	FLAT:__unwindtable$?InvokeAddInStr@CLogAddInImp@@MAEHPBD0@Z
	DD	2 DUP(00H)
	DD	2 DUP(00H)
	DD	00H
	DD	01H
xdata$x	ENDS
;	COMDAT xdata$x
xdata$x	SEGMENT
__ehfuncinfo$??1CLogAddInImp@@UAE@XZ DD 019930522H
	DD	00H
	DD	00H
	DD	2 DUP(00H)
	DD	2 DUP(00H)
	DD	00H
	DD	05H
xdata$x	ENDS
;	COMDAT xdata$x
xdata$x	SEGMENT
__unwindtable$??HATL@@YA?AV?$CStringT@DV?$StrTraitMFC_DLL@DV?$ChTraitsCRT@D@ATL@@@@@0@ABV10@PBD@Z DD 0ffffffffH
	DD	FLAT:__unwindfunclet$??HATL@@YA?AV?$CStringT@DV?$StrTraitMFC_DLL@DV?$ChTraitsCRT@D@ATL@@@@@0@ABV10@PBD@Z$0
__ehfuncinfo$??HATL@@YA?AV?$CStringT@DV?$StrTraitMFC_DLL@DV?$ChTraitsCRT@D@ATL@@@@@0@ABV10@PBD@Z DD 019930522H
	DD	01H
	DD	FLAT:__unwindtable$??HATL@@YA?AV?$CStringT@DV?$StrTraitMFC_DLL@DV?$ChTraitsCRT@D@ATL@@@@@0@ABV10@PBD@Z
	DD	2 DUP(00H)
	DD	2 DUP(00H)
	DD	00H
	DD	01H
xdata$x	ENDS
;	COMDAT xdata$x
xdata$x	SEGMENT
__unwindtable$??HATL@@YA?AV?$CStringT@DV?$StrTraitMFC_DLL@DV?$ChTraitsCRT@D@ATL@@@@@0@ABV10@0@Z DD 0ffffffffH
	DD	FLAT:__unwindfunclet$??HATL@@YA?AV?$CStringT@DV?$StrTraitMFC_DLL@DV?$ChTraitsCRT@D@ATL@@@@@0@ABV10@0@Z$0
__ehfuncinfo$??HATL@@YA?AV?$CStringT@DV?$StrTraitMFC_DLL@DV?$ChTraitsCRT@D@ATL@@@@@0@ABV10@0@Z DD 019930522H
	DD	01H
	DD	FLAT:__unwindtable$??HATL@@YA?AV?$CStringT@DV?$StrTraitMFC_DLL@DV?$ChTraitsCRT@D@ATL@@@@@0@ABV10@0@Z
	DD	2 DUP(00H)
	DD	2 DUP(00H)
	DD	00H
	DD	01H
xdata$x	ENDS
; Function compile flags: /Odsp
;	COMDAT ??_ECIPacketList000000@@WBM@AEPAXI@Z
_TEXT	SEGMENT
??_ECIPacketList000000@@WBM@AEPAXI@Z PROC		; [thunk]:CIPacketList000000::`vector deleting destructor', COMDAT
  00000	83 e9 1c	 sub	 ecx, 28			; 0000001cH
  00003	e9 00 00 00 00	 jmp	 ??_ECIPacketList000000@@UAEPAXI@Z
??_ECIPacketList000000@@WBM@AEPAXI@Z ENDP		; [thunk]:CIPacketList000000::`vector deleting destructor'
_TEXT	ENDS
; Function compile flags: /Odsp
;	COMDAT ??_ECPropertyMap@@WBM@AEPAXI@Z
_TEXT	SEGMENT
??_ECPropertyMap@@WBM@AEPAXI@Z PROC			; [thunk]:CPropertyMap::`vector deleting destructor', COMDAT
  00000	83 e9 1c	 sub	 ecx, 28			; 0000001cH
  00003	e9 00 00 00 00	 jmp	 ??_ECPropertyMap@@UAEPAXI@Z
??_ECPropertyMap@@WBM@AEPAXI@Z ENDP			; [thunk]:CPropertyMap::`vector deleting destructor'
_TEXT	ENDS
; Function compile flags: /Odsp
;	COMDAT ??_ECLogAddInImp@@W7AEPAXI@Z
_TEXT	SEGMENT
??_ECLogAddInImp@@W7AEPAXI@Z PROC			; [thunk]:CLogAddInImp::`vector deleting destructor', COMDAT
  00000	83 e9 08	 sub	 ecx, 8
  00003	e9 00 00 00 00	 jmp	 ??_ECLogAddInImp@@UAEPAXI@Z
??_ECLogAddInImp@@W7AEPAXI@Z ENDP			; [thunk]:CLogAddInImp::`vector deleting destructor'
_TEXT	ENDS
; Function compile flags: /Odsp
;	COMDAT ?Release@CLogAddInImp@@O7AGKXZ
_TEXT	SEGMENT
?Release@CLogAddInImp@@O7AGKXZ PROC			; [thunk]:CLogAddInImp::Release`adjustor{8}', COMDAT
  00000	83 6c 24 04 08	 sub	 DWORD PTR [esp+4], 8
  00005	e9 00 00 00 00	 jmp	 ?Release@CLogAddInImp@@MAGKXZ ; CLogAddInImp::Release
?Release@CLogAddInImp@@O7AGKXZ ENDP			; [thunk]:CLogAddInImp::Release`adjustor{8}'
_TEXT	ENDS
; Function compile flags: /Odsp
;	COMDAT ?AddRef@CLogAddInImp@@O7AGKXZ
_TEXT	SEGMENT
?AddRef@CLogAddInImp@@O7AGKXZ PROC			; [thunk]:CLogAddInImp::AddRef`adjustor{8}', COMDAT
  00000	83 6c 24 04 08	 sub	 DWORD PTR [esp+4], 8
  00005	e9 00 00 00 00	 jmp	 ?AddRef@CLogAddInImp@@MAGKXZ ; CLogAddInImp::AddRef
?AddRef@CLogAddInImp@@O7AGKXZ ENDP			; [thunk]:CLogAddInImp::AddRef`adjustor{8}'
_TEXT	ENDS
; Function compile flags: /Odsp
;	COMDAT ?QueryInterface@CLogAddInImp@@O7AGJABU_GUID@@PAPAX@Z
_TEXT	SEGMENT
?QueryInterface@CLogAddInImp@@O7AGJABU_GUID@@PAPAX@Z PROC ; [thunk]:CLogAddInImp::QueryInterface`adjustor{8}', COMDAT
  00000	83 6c 24 04 08	 sub	 DWORD PTR [esp+4], 8
  00005	e9 00 00 00 00	 jmp	 ?QueryInterface@CLogAddInImp@@MAGJABU_GUID@@PAPAX@Z ; CLogAddInImp::QueryInterface
?QueryInterface@CLogAddInImp@@O7AGJABU_GUID@@PAPAX@Z ENDP ; [thunk]:CLogAddInImp::QueryInterface`adjustor{8}'
_TEXT	ENDS
; Function compile flags: /Ogtp
; File C:\Program Files (x86)\Microsoft Visual Studio\2019\Community\VC\Tools\MSVC\14.29.30133\atlmfc\include\afxtempl.h
; File C:\Program Files (x86)\Microsoft Visual Studio\2019\Community\VC\Tools\MSVC\14.29.30133\atlmfc\include\afx.inl
; File C:\Program Files (x86)\Microsoft Visual Studio\2019\Community\VC\Tools\MSVC\14.29.30133\atlmfc\include\afxtempl.h
; File C:\Program Files (x86)\Microsoft Visual Studio\2019\Community\VC\Tools\MSVC\14.29.30133\atlmfc\include\afx.inl
; File C:\Program Files (x86)\Microsoft Visual Studio\2019\Community\VC\Tools\MSVC\14.29.30133\atlmfc\include\afxtempl.h
; File C:\Program Files (x86)\Microsoft Visual Studio\2019\Community\VC\Tools\MSVC\14.29.30133\atlmfc\include\afx.inl
; File C:\Program Files (x86)\Microsoft Visual Studio\2019\Community\VC\Tools\MSVC\14.29.30133\atlmfc\include\afxtempl.h
;	COMDAT ??$SerializeElements@PAUIPacket000000@@@@YGXAAVCArchive@@PAPAUIPacket000000@@H@Z
_TEXT	SEGMENT
_ar$ = 8						; size = 4
_pElements$ = 12					; size = 4
_nCount$ = 16						; size = 4
??$SerializeElements@PAUIPacket000000@@@@YGXAAVCArchive@@PAPAUIPacket000000@@H@Z PROC ; SerializeElements<IPacket000000 *>, COMDAT

; 67   : {

  00000	55		 push	 ebp
  00001	8b ec		 mov	 ebp, esp

; 68   : 	ENSURE(nCount == 0 || pElements != NULL);

  00003	8b 4d 0c	 mov	 ecx, DWORD PTR _pElements$[ebp]
  00006	53		 push	 ebx
  00007	56		 push	 esi
  00008	8b 75 10	 mov	 esi, DWORD PTR _nCount$[ebp]
  0000b	57		 push	 edi
  0000c	85 f6		 test	 esi, esi
  0000e	74 08		 je	 SHORT $LN2@SerializeE
  00010	85 c9		 test	 ecx, ecx
  00012	0f 84 89 00 00
	00		 je	 $LN34@SerializeE
$LN2@SerializeE:
; File C:\Program Files (x86)\Microsoft Visual Studio\2019\Community\VC\Tools\MSVC\14.29.30133\atlmfc\include\afx.inl

; 212  : 	{ return (m_nMode & CArchive::load) == 0; }

  00018	8b 55 08	 mov	 edx, DWORD PTR _ar$[ebp]
  0001b	8b 42 18	 mov	 eax, DWORD PTR [edx+24]
  0001e	f7 d0		 not	 eax
  00020	a8 01		 test	 al, 1
; File C:\Program Files (x86)\Microsoft Visual Studio\2019\Community\VC\Tools\MSVC\14.29.30133\atlmfc\include\afxtempl.h

; 73   : 	if (ar.IsStoring())

  00022	74 3c		 je	 SHORT $LN10@SerializeE

; 74   : 	{
; 75   : 		TYPE* pData;
; 76   : 		UINT_PTR nElementsLeft;
; 77   : 
; 78   : 		nElementsLeft = nCount;
; 79   : 		pData = pElements;
; 80   : 		while( nElementsLeft > 0 )

  00024	85 f6		 test	 esi, esi
  00026	74 31		 je	 SHORT $LN8@SerializeE
  00028	0f 1f 84 00 00
	00 00 00	 npad	 8
$LL5@SerializeE:

; 81   : 		{
; 82   : 			UINT nElementsToWrite;
; 83   : 
; 84   : 			nElementsToWrite = UINT(__min(nElementsLeft, INT_MAX/sizeof(TYPE)));

  00030	bb ff ff ff 1f	 mov	 ebx, 536870911		; 1fffffffH
  00035	3b f3		 cmp	 esi, ebx
  00037	0f 42 de	 cmovb	 ebx, esi

; 85   : 			ar.Write(pData, nElementsToWrite*sizeof(TYPE));

  0003a	8d 3c 9d 00 00
	00 00		 lea	 edi, DWORD PTR [ebx*4]
  00041	57		 push	 edi
  00042	51		 push	 ecx
  00043	8b ca		 mov	 ecx, edx
  00045	e8 00 00 00 00	 call	 ?Write@CArchive@@QAEXPBXI@Z ; CArchive::Write

; 86   : 			nElementsLeft -= nElementsToWrite;
; 87   : 			pData += nElementsToWrite;

  0004a	8b 4d 0c	 mov	 ecx, DWORD PTR _pElements$[ebp]
  0004d	8b 55 08	 mov	 edx, DWORD PTR _ar$[ebp]
  00050	03 cf		 add	 ecx, edi
  00052	89 4d 0c	 mov	 DWORD PTR _pElements$[ebp], ecx
  00055	2b f3		 sub	 esi, ebx
  00057	75 d7		 jne	 SHORT $LL5@SerializeE
$LN8@SerializeE:
  00059	5f		 pop	 edi

; 105  : 		}
; 106  : 	}
; 107  : }

  0005a	5e		 pop	 esi
  0005b	5b		 pop	 ebx
  0005c	5d		 pop	 ebp
  0005d	c2 0c 00	 ret	 12			; 0000000cH
$LN10@SerializeE:

; 97   : 		while( nElementsLeft > 0 )

  00060	85 f6		 test	 esi, esi
  00062	74 f5		 je	 SHORT $LN8@SerializeE
$LL7@SerializeE:

; 98   : 		{
; 99   : 			UINT nElementsToRead;
; 100  : 
; 101  : 			nElementsToRead = UINT(__min(nElementsLeft, INT_MAX/sizeof(TYPE)));

  00064	bf ff ff ff 1f	 mov	 edi, 536870911		; 1fffffffH
  00069	3b f7		 cmp	 esi, edi
  0006b	0f 42 fe	 cmovb	 edi, esi

; 102  : 			ar.EnsureRead(pData, nElementsToRead*sizeof(TYPE));

  0006e	8d 1c bd 00 00
	00 00		 lea	 ebx, DWORD PTR [edi*4]
; File C:\Program Files (x86)\Microsoft Visual Studio\2019\Community\VC\Tools\MSVC\14.29.30133\atlmfc\include\afx.inl

; 399  : 	UINT nRead=Read(lpBuf, nCount);

  00075	53		 push	 ebx
  00076	51		 push	 ecx
  00077	8b ca		 mov	 ecx, edx
  00079	e8 00 00 00 00	 call	 ?Read@CArchive@@QAEIPAXI@Z ; CArchive::Read

; 400  : 	if(nRead!=nCount)

  0007e	3b c3		 cmp	 eax, ebx
  00080	75 16		 jne	 SHORT $LN23@SerializeE
; File C:\Program Files (x86)\Microsoft Visual Studio\2019\Community\VC\Tools\MSVC\14.29.30133\atlmfc\include\afxtempl.h

; 97   : 		while( nElementsLeft > 0 )

  00082	8b 4d 0c	 mov	 ecx, DWORD PTR _pElements$[ebp]
  00085	8b 55 08	 mov	 edx, DWORD PTR _ar$[ebp]

; 103  : 			nElementsLeft -= nElementsToRead;
; 104  : 			pData += nElementsToRead;

  00088	03 cb		 add	 ecx, ebx
  0008a	89 4d 0c	 mov	 DWORD PTR _pElements$[ebp], ecx
  0008d	2b f7		 sub	 esi, edi
  0008f	75 d3		 jne	 SHORT $LL7@SerializeE

; 105  : 		}
; 106  : 	}
; 107  : }

  00091	5f		 pop	 edi
  00092	5e		 pop	 esi
  00093	5b		 pop	 ebx
  00094	5d		 pop	 ebp
  00095	c2 0c 00	 ret	 12			; 0000000cH
$LN23@SerializeE:
; File C:\Program Files (x86)\Microsoft Visual Studio\2019\Community\VC\Tools\MSVC\14.29.30133\atlmfc\include\afx.inl

; 402  : 		AfxThrowArchiveException(CArchiveException::endOfFile);

  00098	6a 00		 push	 0
  0009a	6a 03		 push	 3
  0009c	e8 00 00 00 00	 call	 ?AfxThrowArchiveException@@YGXHPBD@Z ; AfxThrowArchiveException
$LN34@SerializeE:
; File C:\Program Files (x86)\Microsoft Visual Studio\2019\Community\VC\Tools\MSVC\14.29.30133\atlmfc\include\afxtempl.h

; 68   : 	ENSURE(nCount == 0 || pElements != NULL);

  000a1	e8 00 00 00 00	 call	 ?AfxThrowInvalidArgException@@YGXXZ ; AfxThrowInvalidArgException
$LN32@SerializeE:
  000a6	cc		 int	 3
??$SerializeElements@PAUIPacket000000@@@@YGXAAVCArchive@@PAPAUIPacket000000@@H@Z ENDP ; SerializeElements<IPacket000000 *>
_TEXT	ENDS
; Function compile flags: /Ogtp
; File C:\Program Files (x86)\Microsoft Visual Studio\2019\Community\VC\Tools\MSVC\14.29.30133\atlmfc\include\afxtempl.h
;	COMDAT ??$CompareElements@PAUIPacket000000@@PAU1@@@YGHPBQAUIPacket000000@@0@Z
_TEXT	SEGMENT
_pElement1$ = 8						; size = 4
_pElement2$ = 12					; size = 4
??$CompareElements@PAUIPacket000000@@PAU1@@@YGHPBQAUIPacket000000@@0@Z PROC ; CompareElements<IPacket000000 *,IPacket000000 *>, COMDAT

; 151  : {

  00000	55		 push	 ebp
  00001	8b ec		 mov	 ebp, esp

; 152  : 	ENSURE(pElement1 != NULL && pElement2 != NULL);

  00003	8b 4d 08	 mov	 ecx, DWORD PTR _pElement1$[ebp]
  00006	85 c9		 test	 ecx, ecx
  00008	74 14		 je	 SHORT $LN7@CompareEle
  0000a	8b 55 0c	 mov	 edx, DWORD PTR _pElement2$[ebp]
  0000d	85 d2		 test	 edx, edx
  0000f	74 0d		 je	 SHORT $LN7@CompareEle

; 153  : 	ASSERT(AfxIsValidAddress(pElement1, sizeof(TYPE), FALSE));
; 154  : 	ASSERT(AfxIsValidAddress(pElement2, sizeof(ARG_TYPE), FALSE));
; 155  : 
; 156  : 	return *pElement1 == *pElement2;

  00011	8b 09		 mov	 ecx, DWORD PTR [ecx]
  00013	33 c0		 xor	 eax, eax
  00015	3b 0a		 cmp	 ecx, DWORD PTR [edx]
  00017	0f 94 c0	 sete	 al

; 157  : }

  0001a	5d		 pop	 ebp
  0001b	c2 08 00	 ret	 8
$LN7@CompareEle:

; 152  : 	ENSURE(pElement1 != NULL && pElement2 != NULL);

  0001e	e8 00 00 00 00	 call	 ?AfxThrowInvalidArgException@@YGXXZ ; AfxThrowInvalidArgException
$LN10@CompareEle:
  00023	cc		 int	 3
??$CompareElements@PAUIPacket000000@@PAU1@@@YGHPBQAUIPacket000000@@0@Z ENDP ; CompareElements<IPacket000000 *,IPacket000000 *>
_TEXT	ENDS
; Function compile flags: /Ogtp
;	COMDAT ??__F?m_strAddInItemName@CLogAddInImp@@2V?$CStringT@DV?$StrTraitMFC_DLL@DV?$ChTraitsCRT@D@ATL@@@@@ATL@@A@@YAXXZ
text$yd	SEGMENT
??__F?m_strAddInItemName@CLogAddInImp@@2V?$CStringT@DV?$StrTraitMFC_DLL@DV?$ChTraitsCRT@D@ATL@@@@@ATL@@A@@YAXXZ PROC ; `dynamic atexit destructor for 'CLogAddInImp::m_strAddInItemName'', COMDAT
  00000	b9 00 00 00 00	 mov	 ecx, OFFSET ?m_strAddInItemName@CLogAddInImp@@2V?$CStringT@DV?$StrTraitMFC_DLL@DV?$ChTraitsCRT@D@ATL@@@@@ATL@@A ; CLogAddInImp::m_strAddInItemName
  00005	ff 25 00 00 00
	00		 jmp	 DWORD PTR __imp_??1?$CStringT@DV?$StrTraitMFC_DLL@DV?$ChTraitsCRT@D@ATL@@@@@ATL@@QAE@XZ
??__F?m_strAddInItemName@CLogAddInImp@@2V?$CStringT@DV?$StrTraitMFC_DLL@DV?$ChTraitsCRT@D@ATL@@@@@ATL@@A@@YAXXZ ENDP ; `dynamic atexit destructor for 'CLogAddInImp::m_strAddInItemName''
text$yd	ENDS
; Function compile flags: /Ogtp
; File D:\git\src\IBK\IBK_DRFN\ProjSrc\SrcChartEx\ChartOCX\AddInManager\ChartCommonAddIn\LogAddInImp.cpp
;	COMDAT ??__E?m_strAddInItemName@CLogAddInImp@@2V?$CStringT@DV?$StrTraitMFC_DLL@DV?$ChTraitsCRT@D@ATL@@@@@ATL@@A@@YAXXZ
text$di	SEGMENT
??__E?m_strAddInItemName@CLogAddInImp@@2V?$CStringT@DV?$StrTraitMFC_DLL@DV?$ChTraitsCRT@D@ATL@@@@@ATL@@A@@YAXXZ PROC ; `dynamic initializer for 'CLogAddInImp::m_strAddInItemName'', COMDAT

; 53   : CString CLogAddInImp::m_strAddInItemName = "LOG";

  00000	68 00 00 00 00	 push	 OFFSET ??_C@_03MLIHNEFJ@LOG@
  00005	b9 00 00 00 00	 mov	 ecx, OFFSET ?m_strAddInItemName@CLogAddInImp@@2V?$CStringT@DV?$StrTraitMFC_DLL@DV?$ChTraitsCRT@D@ATL@@@@@ATL@@A ; CLogAddInImp::m_strAddInItemName
  0000a	ff 15 00 00 00
	00		 call	 DWORD PTR __imp_??0?$CStringT@DV?$StrTraitMFC_DLL@DV?$ChTraitsCRT@D@ATL@@@@@ATL@@QAE@PBD@Z
  00010	68 00 00 00 00	 push	 OFFSET ??__F?m_strAddInItemName@CLogAddInImp@@2V?$CStringT@DV?$StrTraitMFC_DLL@DV?$ChTraitsCRT@D@ATL@@@@@ATL@@A@@YAXXZ ; `dynamic atexit destructor for 'CLogAddInImp::m_strAddInItemName''
  00015	e8 00 00 00 00	 call	 _atexit
  0001a	59		 pop	 ecx
  0001b	c3		 ret	 0
??__E?m_strAddInItemName@CLogAddInImp@@2V?$CStringT@DV?$StrTraitMFC_DLL@DV?$ChTraitsCRT@D@ATL@@@@@ATL@@A@@YAXXZ ENDP ; `dynamic initializer for 'CLogAddInImp::m_strAddInItemName''
text$di	ENDS
; Function compile flags: /Ogtp
; File D:\git\src\IBK\IBK_DRFN\ProjSrc\SrcChartEx\ChartOCX\AddInManager\Include_AddIn\I000000\_IPacketList.h
; File C:\Program Files (x86)\Microsoft Visual Studio\2019\Community\VC\Tools\MSVC\14.29.30133\atlmfc\include\afxtempl.h
; File C:\Program Files (x86)\Microsoft Visual Studio\2019\Community\VC\Tools\MSVC\14.29.30133\atlmfc\include\afx.inl
;	COMDAT ??_GCIPacketList000000@@UAEPAXI@Z
_TEXT	SEGMENT
__$EHRec$ = -12						; size = 12
___flags$ = 8						; size = 4
??_GCIPacketList000000@@UAEPAXI@Z PROC			; CIPacketList000000::`scalar deleting destructor', COMDAT
; _this$ = ecx
  00000	55		 push	 ebp
  00001	8b ec		 mov	 ebp, esp
  00003	6a ff		 push	 -1
  00005	68 00 00 00 00	 push	 __ehhandler$??_GCIPacketList000000@@UAEPAXI@Z
  0000a	64 a1 00 00 00
	00		 mov	 eax, DWORD PTR fs:0
  00010	50		 push	 eax
  00011	56		 push	 esi
  00012	a1 00 00 00 00	 mov	 eax, DWORD PTR ___security_cookie
  00017	33 c5		 xor	 eax, ebp
  00019	50		 push	 eax
  0001a	8d 45 f4	 lea	 eax, DWORD PTR __$EHRec$[ebp]
  0001d	64 a3 00 00 00
	00		 mov	 DWORD PTR fs:0, eax
  00023	8b f1		 mov	 esi, ecx
; File D:\git\src\IBK\IBK_DRFN\ProjSrc\SrcChartEx\ChartOCX\AddInManager\Include_AddIn\I000000\_IPacketList.h

; 71   : 	~CIPacketList()	{}

  00025	c7 46 1c 00 00
	00 00		 mov	 DWORD PTR [esi+28], OFFSET ??_7IPacketList000000@@6B@
; File C:\Program Files (x86)\Microsoft Visual Studio\2019\Community\VC\Tools\MSVC\14.29.30133\atlmfc\include\afxtempl.h

; 872  : 	m_pBlocks->FreeDataChain();

  0002c	8b 4e 14	 mov	 ecx, DWORD PTR [esi+20]

; 878  : {

  0002f	c7 45 fc 00 00
	00 00		 mov	 DWORD PTR __$EHRec$[ebp+8], 0
  00036	c7 06 00 00 00
	00		 mov	 DWORD PTR [esi], OFFSET ??_7?$CList@PAUIPacket000000@@PAU1@@@6B@

; 870  : 	m_nCount = 0;

  0003c	c7 46 0c 00 00
	00 00		 mov	 DWORD PTR [esi+12], 0

; 871  : 	m_pNodeHead = m_pNodeTail = m_pNodeFree = NULL;

  00043	c7 46 10 00 00
	00 00		 mov	 DWORD PTR [esi+16], 0
  0004a	c7 46 08 00 00
	00 00		 mov	 DWORD PTR [esi+8], 0
  00051	c7 46 04 00 00
	00 00		 mov	 DWORD PTR [esi+4], 0

; 872  : 	m_pBlocks->FreeDataChain();

  00058	e8 00 00 00 00	 call	 ?FreeDataChain@CPlex@@QAEXXZ ; CPlex::FreeDataChain

; 873  : 	m_pBlocks = NULL;

  0005d	8b 45 08	 mov	 eax, DWORD PTR ___flags$[ebp]
  00060	c7 46 14 00 00
	00 00		 mov	 DWORD PTR [esi+20], 0
  00067	a8 01		 test	 al, 1
  00069	74 2c		 je	 SHORT $LN25@scalar
  0006b	a8 04		 test	 al, 4
  0006d	75 1d		 jne	 SHORT $LN3@scalar
; File C:\Program Files (x86)\Microsoft Visual Studio\2019\Community\VC\Tools\MSVC\14.29.30133\atlmfc\include\afx.inl

; 112  : 	{ ::operator delete(p); }

  0006f	56		 push	 esi
  00070	e8 00 00 00 00	 call	 ??3@YAXPAX@Z		; operator delete
  00075	83 c4 04	 add	 esp, 4
  00078	8b c6		 mov	 eax, esi
  0007a	8b 4d f4	 mov	 ecx, DWORD PTR __$EHRec$[ebp]
  0007d	64 89 0d 00 00
	00 00		 mov	 DWORD PTR fs:0, ecx
  00084	59		 pop	 ecx
  00085	5e		 pop	 esi
  00086	8b e5		 mov	 esp, ebp
  00088	5d		 pop	 ebp
  00089	c2 04 00	 ret	 4
$LN3@scalar:
  0008c	6a 20		 push	 32			; 00000020H
  0008e	56		 push	 esi
  0008f	e8 00 00 00 00	 call	 ?__global_delete@@YAXPAXI@Z ; __global_delete
  00094	83 c4 08	 add	 esp, 8
$LN25@scalar:
  00097	8b c6		 mov	 eax, esi
  00099	8b 4d f4	 mov	 ecx, DWORD PTR __$EHRec$[ebp]
  0009c	64 89 0d 00 00
	00 00		 mov	 DWORD PTR fs:0, ecx
  000a3	59		 pop	 ecx
  000a4	5e		 pop	 esi
  000a5	8b e5		 mov	 esp, ebp
  000a7	5d		 pop	 ebp
  000a8	c2 04 00	 ret	 4
  000ab	cc		 int	 3
  000ac	cc		 int	 3
  000ad	cc		 int	 3
  000ae	cc		 int	 3
  000af	cc		 int	 3
_TEXT	ENDS
;	COMDAT text$x
text$x	SEGMENT
__ehhandler$??_GCIPacketList000000@@UAEPAXI@Z:
  00000	90		 npad	 1
  00001	90		 npad	 1
  00002	8b 54 24 08	 mov	 edx, DWORD PTR [esp+8]
  00006	8d 42 0c	 lea	 eax, DWORD PTR [edx+12]
  00009	8b 4a f8	 mov	 ecx, DWORD PTR [edx-8]
  0000c	33 c8		 xor	 ecx, eax
  0000e	e8 00 00 00 00	 call	 @__security_check_cookie@4
  00013	b8 00 00 00 00	 mov	 eax, OFFSET __ehfuncinfo$??_GCIPacketList000000@@UAEPAXI@Z
  00018	e9 00 00 00 00	 jmp	 ___CxxFrameHandler3
text$x	ENDS
??_GCIPacketList000000@@UAEPAXI@Z ENDP			; CIPacketList000000::`scalar deleting destructor'
; Function compile flags: /Ogtp
; File D:\git\src\IBK\IBK_DRFN\ProjSrc\SrcChartEx\ChartOCX\AddInManager\Include_AddIn\I000000\_IPacketList.h
; File C:\Program Files (x86)\Microsoft Visual Studio\2019\Community\VC\Tools\MSVC\14.29.30133\atlmfc\include\afxtempl.h
; File D:\git\src\IBK\IBK_DRFN\ProjSrc\SrcChartEx\ChartOCX\AddInManager\Include_AddIn\I000000\_IPacketList.h
;	COMDAT ?FindIndex@CIPacketList000000@@UBEPAU__POSITION@@H@Z
_TEXT	SEGMENT
_nIndex$ = 8						; size = 4
?FindIndex@CIPacketList000000@@UBEPAU__POSITION@@H@Z PROC ; CIPacketList000000::FindIndex, COMDAT
; _this$ = ecx

; 123  : 	virtual POSITION	FindIndex(int nIndex) const										{	return CIPacketListBase::FindIndex( nIndex);	}

  00000	55		 push	 ebp
  00001	8b ec		 mov	 ebp, esp
  00003	8b 55 08	 mov	 edx, DWORD PTR _nIndex$[ebp]
; File C:\Program Files (x86)\Microsoft Visual Studio\2019\Community\VC\Tools\MSVC\14.29.30133\atlmfc\include\afxtempl.h

; 1133 : 	if (nIndex >= m_nCount || nIndex < 0)

  00006	3b 51 f0	 cmp	 edx, DWORD PTR [ecx-16]
  00009	7d 14		 jge	 SHORT $LN7@FindIndex
  0000b	85 d2		 test	 edx, edx
  0000d	78 10		 js	 SHORT $LN7@FindIndex

; 1134 : 		return NULL;  // went too far
; 1135 : 
; 1136 : 	CNode* pNode = m_pNodeHead;

  0000f	8b 41 e8	 mov	 eax, DWORD PTR [ecx-24]

; 1137 : 	while (nIndex--)

  00012	74 0d		 je	 SHORT $LN3@FindIndex
$LL4@FindIndex:

; 1138 : 	{
; 1139 : 		ASSERT(AfxIsValidAddress(pNode, sizeof(CNode)));
; 1140 : 		pNode = pNode->pNext;

  00014	8b 00		 mov	 eax, DWORD PTR [eax]
  00016	83 ea 01	 sub	 edx, 1
  00019	75 f9		 jne	 SHORT $LL4@FindIndex
; File D:\git\src\IBK\IBK_DRFN\ProjSrc\SrcChartEx\ChartOCX\AddInManager\Include_AddIn\I000000\_IPacketList.h

; 123  : 	virtual POSITION	FindIndex(int nIndex) const										{	return CIPacketListBase::FindIndex( nIndex);	}

  0001b	5d		 pop	 ebp
  0001c	c2 04 00	 ret	 4
$LN7@FindIndex:
  0001f	33 c0		 xor	 eax, eax
$LN3@FindIndex:
  00021	5d		 pop	 ebp
  00022	c2 04 00	 ret	 4
?FindIndex@CIPacketList000000@@UBEPAU__POSITION@@H@Z ENDP ; CIPacketList000000::FindIndex
_TEXT	ENDS
; Function compile flags: /Ogtp
; File D:\git\src\IBK\IBK_DRFN\ProjSrc\SrcChartEx\ChartOCX\AddInManager\Include_AddIn\I000000\_IPacketList.h
; File C:\Program Files (x86)\Microsoft Visual Studio\2019\Community\VC\Tools\MSVC\14.29.30133\atlmfc\include\afxtempl.h
; File D:\git\src\IBK\IBK_DRFN\ProjSrc\SrcChartEx\ChartOCX\AddInManager\Include_AddIn\I000000\_IPacketList.h
; File C:\Program Files (x86)\Microsoft Visual Studio\2019\Community\VC\Tools\MSVC\14.29.30133\atlmfc\include\afxtempl.h
; File D:\git\src\IBK\IBK_DRFN\ProjSrc\SrcChartEx\ChartOCX\AddInManager\Include_AddIn\I000000\_IPacketList.h
;	COMDAT ?Find@CIPacketList000000@@UBEPAU__POSITION@@PAUIPacket000000@@PAU2@@Z
_TEXT	SEGMENT
_searchValue$ = 8					; size = 4
_startAfter$ = 12					; size = 4
?Find@CIPacketList000000@@UBEPAU__POSITION@@PAUIPacket000000@@PAU2@@Z PROC ; CIPacketList000000::Find, COMDAT
; _this$ = ecx

; 121  : 	virtual POSITION	Find(IPacket *searchValue, POSITION startAfter = NULL) const	{	return CIPacketListBase::Find( searchValue, startAfter);	}

  00000	55		 push	 ebp
  00001	8b ec		 mov	 ebp, esp
  00003	8b 45 0c	 mov	 eax, DWORD PTR _startAfter$[ebp]
; File C:\Program Files (x86)\Microsoft Visual Studio\2019\Community\VC\Tools\MSVC\14.29.30133\atlmfc\include\afxtempl.h

; 1151 : 	if (pNode == NULL)

  00006	85 c0		 test	 eax, eax
  00008	75 03		 jne	 SHORT $LN8@Find

; 1152 : 	{
; 1153 : 		pNode = m_pNodeHead;  // start at head

  0000a	8d 41 e8	 lea	 eax, DWORD PTR [ecx-24]
$LN8@Find:

; 1154 : 	}
; 1155 : 	else
; 1156 : 	{
; 1157 : 		ASSERT(AfxIsValidAddress(pNode, sizeof(CNode)));
; 1158 : 		pNode = pNode->pNext;  // start after the one specified
; 1159 : 	}
; 1160 : 
; 1161 : 	for (; pNode != NULL; pNode = pNode->pNext)

  0000d	8b 00		 mov	 eax, DWORD PTR [eax]
  0000f	85 c0		 test	 eax, eax
  00011	74 14		 je	 SHORT $LN5@Find
  00013	8b 55 08	 mov	 edx, DWORD PTR _searchValue$[ebp]
$LL6@Find:

; 1162 : 		if (CompareElements<TYPE>(&pNode->data, &searchValue))

  00016	8d 48 08	 lea	 ecx, DWORD PTR [eax+8]

; 152  : 	ENSURE(pElement1 != NULL && pElement2 != NULL);

  00019	85 c9		 test	 ecx, ecx
  0001b	74 10		 je	 SHORT $LN22@Find

; 153  : 	ASSERT(AfxIsValidAddress(pElement1, sizeof(TYPE), FALSE));
; 154  : 	ASSERT(AfxIsValidAddress(pElement2, sizeof(ARG_TYPE), FALSE));
; 155  : 
; 156  : 	return *pElement1 == *pElement2;

  0001d	39 11		 cmp	 DWORD PTR [ecx], edx

; 1162 : 		if (CompareElements<TYPE>(&pNode->data, &searchValue))

  0001f	74 08		 je	 SHORT $LN20@Find

; 1154 : 	}
; 1155 : 	else
; 1156 : 	{
; 1157 : 		ASSERT(AfxIsValidAddress(pNode, sizeof(CNode)));
; 1158 : 		pNode = pNode->pNext;  // start after the one specified
; 1159 : 	}
; 1160 : 
; 1161 : 	for (; pNode != NULL; pNode = pNode->pNext)

  00021	8b 00		 mov	 eax, DWORD PTR [eax]
  00023	85 c0		 test	 eax, eax
  00025	75 ef		 jne	 SHORT $LL6@Find
$LN5@Find:

; 1163 : 			return (POSITION)pNode;
; 1164 : 	return NULL;

  00027	33 c0		 xor	 eax, eax
$LN20@Find:
; File D:\git\src\IBK\IBK_DRFN\ProjSrc\SrcChartEx\ChartOCX\AddInManager\Include_AddIn\I000000\_IPacketList.h

; 121  : 	virtual POSITION	Find(IPacket *searchValue, POSITION startAfter = NULL) const	{	return CIPacketListBase::Find( searchValue, startAfter);	}

  00029	5d		 pop	 ebp
  0002a	c2 08 00	 ret	 8
$LN22@Find:
; File C:\Program Files (x86)\Microsoft Visual Studio\2019\Community\VC\Tools\MSVC\14.29.30133\atlmfc\include\afxtempl.h

; 152  : 	ENSURE(pElement1 != NULL && pElement2 != NULL);

  0002d	e8 00 00 00 00	 call	 ?AfxThrowInvalidArgException@@YGXXZ ; AfxThrowInvalidArgException
$LN29@Find:
  00032	cc		 int	 3
?Find@CIPacketList000000@@UBEPAU__POSITION@@PAUIPacket000000@@PAU2@@Z ENDP ; CIPacketList000000::Find
_TEXT	ENDS
; Function compile flags: /Ogtp
; File D:\git\src\IBK\IBK_DRFN\ProjSrc\SrcChartEx\ChartOCX\AddInManager\Include_AddIn\I000000\_IPacketList.h
; File C:\Program Files (x86)\Microsoft Visual Studio\2019\Community\VC\Tools\MSVC\14.29.30133\atlmfc\include\afxtempl.h
; File D:\git\src\IBK\IBK_DRFN\ProjSrc\SrcChartEx\ChartOCX\AddInManager\Include_AddIn\I000000\_IPacketList.h
; File C:\Program Files (x86)\Microsoft Visual Studio\2019\Community\VC\Tools\MSVC\14.29.30133\atlmfc\include\afxtempl.h
; File D:\git\src\IBK\IBK_DRFN\ProjSrc\SrcChartEx\ChartOCX\AddInManager\Include_AddIn\I000000\_IPacketList.h
; File C:\Program Files (x86)\Microsoft Visual Studio\2019\Community\VC\Tools\MSVC\14.29.30133\atlmfc\include\afxtempl.h
; File D:\git\src\IBK\IBK_DRFN\ProjSrc\SrcChartEx\ChartOCX\AddInManager\Include_AddIn\I000000\_IPacketList.h
; File C:\Program Files (x86)\Microsoft Visual Studio\2019\Community\VC\Tools\MSVC\14.29.30133\atlmfc\include\afxtempl.h
; File D:\git\src\IBK\IBK_DRFN\ProjSrc\SrcChartEx\ChartOCX\AddInManager\Include_AddIn\I000000\_IPacketList.h
; File C:\Program Files (x86)\Microsoft Visual Studio\2019\Community\VC\Tools\MSVC\14.29.30133\atlmfc\include\afxtempl.h
; File D:\git\src\IBK\IBK_DRFN\ProjSrc\SrcChartEx\ChartOCX\AddInManager\Include_AddIn\I000000\_IPacketList.h
; File C:\Program Files (x86)\Microsoft Visual Studio\2019\Community\VC\Tools\MSVC\14.29.30133\atlmfc\include\afxtempl.h
; File D:\git\src\IBK\IBK_DRFN\ProjSrc\SrcChartEx\ChartOCX\AddInManager\Include_AddIn\I000000\_IPacketList.h
; File C:\Program Files (x86)\Microsoft Visual Studio\2019\Community\VC\Tools\MSVC\14.29.30133\atlmfc\include\afxtempl.h
; File D:\git\src\IBK\IBK_DRFN\ProjSrc\SrcChartEx\ChartOCX\AddInManager\Include_AddIn\I000000\_IPacketList.h
; File C:\Program Files (x86)\Microsoft Visual Studio\2019\Community\VC\Tools\MSVC\14.29.30133\atlmfc\include\afxtempl.h
; File D:\git\src\IBK\IBK_DRFN\ProjSrc\SrcChartEx\ChartOCX\AddInManager\Include_AddIn\I000000\_IPacketList.h
; File C:\Program Files (x86)\Microsoft Visual Studio\2019\Community\VC\Tools\MSVC\14.29.30133\atlmfc\include\afxtempl.h
; File D:\git\src\IBK\IBK_DRFN\ProjSrc\SrcChartEx\ChartOCX\AddInManager\Include_AddIn\I000000\_IPacketList.h
;	COMDAT ?InsertAfter@CIPacketList000000@@UAEPAU__POSITION@@PAU2@PAUIPacket000000@@@Z
_TEXT	SEGMENT
_position$ = 8						; size = 4
_newElement$ = 12					; size = 4
?InsertAfter@CIPacketList000000@@UAEPAU__POSITION@@PAU2@PAUIPacket000000@@@Z PROC ; CIPacketList000000::InsertAfter, COMDAT
; _this$ = ecx

; 118  : 	virtual POSITION	InsertAfter(POSITION position, IPacket *newElement)		{	return CIPacketListBase::InsertAfter( position, newElement);	}

  00000	55		 push	 ebp
  00001	8b ec		 mov	 ebp, esp
  00003	56		 push	 esi
  00004	57		 push	 edi
; File C:\Program Files (x86)\Microsoft Visual Studio\2019\Community\VC\Tools\MSVC\14.29.30133\atlmfc\include\afxtempl.h

; 1075 : 	if (position == NULL)

  00005	8b 7d 08	 mov	 edi, DWORD PTR _position$[ebp]
; File D:\git\src\IBK\IBK_DRFN\ProjSrc\SrcChartEx\ChartOCX\AddInManager\Include_AddIn\I000000\_IPacketList.h

; 118  : 	virtual POSITION	InsertAfter(POSITION position, IPacket *newElement)		{	return CIPacketListBase::InsertAfter( position, newElement);	}

  00008	8d 71 e4	 lea	 esi, DWORD PTR [ecx-28]
; File C:\Program Files (x86)\Microsoft Visual Studio\2019\Community\VC\Tools\MSVC\14.29.30133\atlmfc\include\afxtempl.h

; 1075 : 	if (position == NULL)

  0000b	8b ce		 mov	 ecx, esi
  0000d	85 ff		 test	 edi, edi
  0000f	75 33		 jne	 SHORT $LN4@InsertAfte

; 968  : 	CNode* pNewNode = NewNode(m_pNodeTail, NULL);

  00011	57		 push	 edi
  00012	ff 76 08	 push	 DWORD PTR [esi+8]
  00015	e8 00 00 00 00	 call	 ?NewNode@?$CList@PAUIPacket000000@@PAU1@@@IAEPAUCNode@1@PAU21@0@Z ; CList<IPacket000000 *,IPacket000000 *>::NewNode
  0001a	8b c8		 mov	 ecx, eax

; 969  : 	pNewNode->data = newElement;

  0001c	8b 45 0c	 mov	 eax, DWORD PTR _newElement$[ebp]
  0001f	89 41 08	 mov	 DWORD PTR [ecx+8], eax

; 970  : 	if (m_pNodeTail != NULL)

  00022	8b 46 08	 mov	 eax, DWORD PTR [esi+8]
  00025	85 c0		 test	 eax, eax
  00027	74 0d		 je	 SHORT $LN9@InsertAfte

; 971  : 		m_pNodeTail->pNext = pNewNode;

  00029	89 08		 mov	 DWORD PTR [eax], ecx
; File D:\git\src\IBK\IBK_DRFN\ProjSrc\SrcChartEx\ChartOCX\AddInManager\Include_AddIn\I000000\_IPacketList.h

; 118  : 	virtual POSITION	InsertAfter(POSITION position, IPacket *newElement)		{	return CIPacketListBase::InsertAfter( position, newElement);	}

  0002b	8b c1		 mov	 eax, ecx
  0002d	5f		 pop	 edi
; File C:\Program Files (x86)\Microsoft Visual Studio\2019\Community\VC\Tools\MSVC\14.29.30133\atlmfc\include\afxtempl.h

; 974  : 	m_pNodeTail = pNewNode;

  0002e	89 4e 08	 mov	 DWORD PTR [esi+8], ecx
; File D:\git\src\IBK\IBK_DRFN\ProjSrc\SrcChartEx\ChartOCX\AddInManager\Include_AddIn\I000000\_IPacketList.h

; 118  : 	virtual POSITION	InsertAfter(POSITION position, IPacket *newElement)		{	return CIPacketListBase::InsertAfter( position, newElement);	}

  00031	5e		 pop	 esi
  00032	5d		 pop	 ebp
  00033	c2 08 00	 ret	 8
$LN9@InsertAfte:
  00036	5f		 pop	 edi
; File C:\Program Files (x86)\Microsoft Visual Studio\2019\Community\VC\Tools\MSVC\14.29.30133\atlmfc\include\afxtempl.h

; 973  : 		m_pNodeHead = pNewNode;

  00037	89 4e 04	 mov	 DWORD PTR [esi+4], ecx
; File D:\git\src\IBK\IBK_DRFN\ProjSrc\SrcChartEx\ChartOCX\AddInManager\Include_AddIn\I000000\_IPacketList.h

; 118  : 	virtual POSITION	InsertAfter(POSITION position, IPacket *newElement)		{	return CIPacketListBase::InsertAfter( position, newElement);	}

  0003a	8b c1		 mov	 eax, ecx
; File C:\Program Files (x86)\Microsoft Visual Studio\2019\Community\VC\Tools\MSVC\14.29.30133\atlmfc\include\afxtempl.h

; 974  : 	m_pNodeTail = pNewNode;

  0003c	89 4e 08	 mov	 DWORD PTR [esi+8], ecx
; File D:\git\src\IBK\IBK_DRFN\ProjSrc\SrcChartEx\ChartOCX\AddInManager\Include_AddIn\I000000\_IPacketList.h

; 118  : 	virtual POSITION	InsertAfter(POSITION position, IPacket *newElement)		{	return CIPacketListBase::InsertAfter( position, newElement);	}

  0003f	5e		 pop	 esi
  00040	5d		 pop	 ebp
  00041	c2 08 00	 ret	 8
$LN4@InsertAfte:
; File C:\Program Files (x86)\Microsoft Visual Studio\2019\Community\VC\Tools\MSVC\14.29.30133\atlmfc\include\afxtempl.h

; 1081 : 	CNode* pNewNode = NewNode(pOldNode, pOldNode->pNext);

  00044	ff 37		 push	 DWORD PTR [edi]
  00046	57		 push	 edi
  00047	e8 00 00 00 00	 call	 ?NewNode@?$CList@PAUIPacket000000@@PAU1@@@IAEPAUCNode@1@PAU21@0@Z ; CList<IPacket000000 *,IPacket000000 *>::NewNode
  0004c	8b c8		 mov	 ecx, eax

; 1082 : 	pNewNode->data = newElement;

  0004e	8b 45 0c	 mov	 eax, DWORD PTR _newElement$[ebp]
  00051	89 41 08	 mov	 DWORD PTR [ecx+8], eax

; 1083 : 
; 1084 : 	if (pOldNode->pNext != NULL)

  00054	8b 07		 mov	 eax, DWORD PTR [edi]
  00056	85 c0		 test	 eax, eax
  00058	74 0d		 je	 SHORT $LN5@InsertAfte

; 1085 : 	{
; 1086 : 		ASSERT(AfxIsValidAddress(pOldNode->pNext, sizeof(CNode)));
; 1087 : 		pOldNode->pNext->pPrev = pNewNode;

  0005a	89 48 04	 mov	 DWORD PTR [eax+4], ecx
; File D:\git\src\IBK\IBK_DRFN\ProjSrc\SrcChartEx\ChartOCX\AddInManager\Include_AddIn\I000000\_IPacketList.h

; 118  : 	virtual POSITION	InsertAfter(POSITION position, IPacket *newElement)		{	return CIPacketListBase::InsertAfter( position, newElement);	}

  0005d	8b c1		 mov	 eax, ecx
; File C:\Program Files (x86)\Microsoft Visual Studio\2019\Community\VC\Tools\MSVC\14.29.30133\atlmfc\include\afxtempl.h

; 1094 : 	pOldNode->pNext = pNewNode;

  0005f	89 0f		 mov	 DWORD PTR [edi], ecx
  00061	5f		 pop	 edi
; File D:\git\src\IBK\IBK_DRFN\ProjSrc\SrcChartEx\ChartOCX\AddInManager\Include_AddIn\I000000\_IPacketList.h

; 118  : 	virtual POSITION	InsertAfter(POSITION position, IPacket *newElement)		{	return CIPacketListBase::InsertAfter( position, newElement);	}

  00062	5e		 pop	 esi
  00063	5d		 pop	 ebp
  00064	c2 08 00	 ret	 8
$LN5@InsertAfte:
; File C:\Program Files (x86)\Microsoft Visual Studio\2019\Community\VC\Tools\MSVC\14.29.30133\atlmfc\include\afxtempl.h

; 1092 : 		m_pNodeTail = pNewNode;

  00067	89 4e 08	 mov	 DWORD PTR [esi+8], ecx
; File D:\git\src\IBK\IBK_DRFN\ProjSrc\SrcChartEx\ChartOCX\AddInManager\Include_AddIn\I000000\_IPacketList.h

; 118  : 	virtual POSITION	InsertAfter(POSITION position, IPacket *newElement)		{	return CIPacketListBase::InsertAfter( position, newElement);	}

  0006a	8b c1		 mov	 eax, ecx
; File C:\Program Files (x86)\Microsoft Visual Studio\2019\Community\VC\Tools\MSVC\14.29.30133\atlmfc\include\afxtempl.h

; 1094 : 	pOldNode->pNext = pNewNode;

  0006c	89 0f		 mov	 DWORD PTR [edi], ecx
  0006e	5f		 pop	 edi
; File D:\git\src\IBK\IBK_DRFN\ProjSrc\SrcChartEx\ChartOCX\AddInManager\Include_AddIn\I000000\_IPacketList.h

; 118  : 	virtual POSITION	InsertAfter(POSITION position, IPacket *newElement)		{	return CIPacketListBase::InsertAfter( position, newElement);	}

  0006f	5e		 pop	 esi
  00070	5d		 pop	 ebp
  00071	c2 08 00	 ret	 8
?InsertAfter@CIPacketList000000@@UAEPAU__POSITION@@PAU2@PAUIPacket000000@@@Z ENDP ; CIPacketList000000::InsertAfter
_TEXT	ENDS
; Function compile flags: /Ogtp
; File D:\git\src\IBK\IBK_DRFN\ProjSrc\SrcChartEx\ChartOCX\AddInManager\Include_AddIn\I000000\_IPacketList.h
; File C:\Program Files (x86)\Microsoft Visual Studio\2019\Community\VC\Tools\MSVC\14.29.30133\atlmfc\include\afxtempl.h
; File D:\git\src\IBK\IBK_DRFN\ProjSrc\SrcChartEx\ChartOCX\AddInManager\Include_AddIn\I000000\_IPacketList.h
; File C:\Program Files (x86)\Microsoft Visual Studio\2019\Community\VC\Tools\MSVC\14.29.30133\atlmfc\include\afxtempl.h
; File D:\git\src\IBK\IBK_DRFN\ProjSrc\SrcChartEx\ChartOCX\AddInManager\Include_AddIn\I000000\_IPacketList.h
; File C:\Program Files (x86)\Microsoft Visual Studio\2019\Community\VC\Tools\MSVC\14.29.30133\atlmfc\include\afxtempl.h
; File D:\git\src\IBK\IBK_DRFN\ProjSrc\SrcChartEx\ChartOCX\AddInManager\Include_AddIn\I000000\_IPacketList.h
; File C:\Program Files (x86)\Microsoft Visual Studio\2019\Community\VC\Tools\MSVC\14.29.30133\atlmfc\include\afxtempl.h
; File D:\git\src\IBK\IBK_DRFN\ProjSrc\SrcChartEx\ChartOCX\AddInManager\Include_AddIn\I000000\_IPacketList.h
; File C:\Program Files (x86)\Microsoft Visual Studio\2019\Community\VC\Tools\MSVC\14.29.30133\atlmfc\include\afxtempl.h
; File D:\git\src\IBK\IBK_DRFN\ProjSrc\SrcChartEx\ChartOCX\AddInManager\Include_AddIn\I000000\_IPacketList.h
; File C:\Program Files (x86)\Microsoft Visual Studio\2019\Community\VC\Tools\MSVC\14.29.30133\atlmfc\include\afxtempl.h
; File D:\git\src\IBK\IBK_DRFN\ProjSrc\SrcChartEx\ChartOCX\AddInManager\Include_AddIn\I000000\_IPacketList.h
; File C:\Program Files (x86)\Microsoft Visual Studio\2019\Community\VC\Tools\MSVC\14.29.30133\atlmfc\include\afxtempl.h
; File D:\git\src\IBK\IBK_DRFN\ProjSrc\SrcChartEx\ChartOCX\AddInManager\Include_AddIn\I000000\_IPacketList.h
; File C:\Program Files (x86)\Microsoft Visual Studio\2019\Community\VC\Tools\MSVC\14.29.30133\atlmfc\include\afxtempl.h
; File D:\git\src\IBK\IBK_DRFN\ProjSrc\SrcChartEx\ChartOCX\AddInManager\Include_AddIn\I000000\_IPacketList.h
; File C:\Program Files (x86)\Microsoft Visual Studio\2019\Community\VC\Tools\MSVC\14.29.30133\atlmfc\include\afxtempl.h
; File D:\git\src\IBK\IBK_DRFN\ProjSrc\SrcChartEx\ChartOCX\AddInManager\Include_AddIn\I000000\_IPacketList.h
;	COMDAT ?InsertBefore@CIPacketList000000@@UAEPAU__POSITION@@PAU2@PAUIPacket000000@@@Z
_TEXT	SEGMENT
_position$ = 8						; size = 4
_newElement$ = 12					; size = 4
?InsertBefore@CIPacketList000000@@UAEPAU__POSITION@@PAU2@PAUIPacket000000@@@Z PROC ; CIPacketList000000::InsertBefore, COMDAT
; _this$ = ecx

; 117  : 	virtual POSITION	InsertBefore(POSITION position, IPacket *newElement)	{	return CIPacketListBase::InsertBefore( position, newElement);	}

  00000	55		 push	 ebp
  00001	8b ec		 mov	 ebp, esp
  00003	56		 push	 esi
  00004	57		 push	 edi
; File C:\Program Files (x86)\Microsoft Visual Studio\2019\Community\VC\Tools\MSVC\14.29.30133\atlmfc\include\afxtempl.h

; 1048 : 	if (position == NULL)

  00005	8b 7d 08	 mov	 edi, DWORD PTR _position$[ebp]
; File D:\git\src\IBK\IBK_DRFN\ProjSrc\SrcChartEx\ChartOCX\AddInManager\Include_AddIn\I000000\_IPacketList.h

; 117  : 	virtual POSITION	InsertBefore(POSITION position, IPacket *newElement)	{	return CIPacketListBase::InsertBefore( position, newElement);	}

  00008	8d 71 e4	 lea	 esi, DWORD PTR [ecx-28]
; File C:\Program Files (x86)\Microsoft Visual Studio\2019\Community\VC\Tools\MSVC\14.29.30133\atlmfc\include\afxtempl.h

; 1048 : 	if (position == NULL)

  0000b	8b ce		 mov	 ecx, esi
  0000d	85 ff		 test	 edi, edi
  0000f	75 34		 jne	 SHORT $LN4@InsertBefo

; 953  : 	CNode* pNewNode = NewNode(NULL, m_pNodeHead);

  00011	ff 76 04	 push	 DWORD PTR [esi+4]
  00014	57		 push	 edi
  00015	e8 00 00 00 00	 call	 ?NewNode@?$CList@PAUIPacket000000@@PAU1@@@IAEPAUCNode@1@PAU21@0@Z ; CList<IPacket000000 *,IPacket000000 *>::NewNode
  0001a	8b c8		 mov	 ecx, eax

; 954  : 	pNewNode->data = newElement;

  0001c	8b 45 0c	 mov	 eax, DWORD PTR _newElement$[ebp]
  0001f	89 41 08	 mov	 DWORD PTR [ecx+8], eax

; 955  : 	if (m_pNodeHead != NULL)

  00022	8b 46 04	 mov	 eax, DWORD PTR [esi+4]
  00025	85 c0		 test	 eax, eax
  00027	74 0e		 je	 SHORT $LN9@InsertBefo

; 956  : 		m_pNodeHead->pPrev = pNewNode;

  00029	89 48 04	 mov	 DWORD PTR [eax+4], ecx
; File D:\git\src\IBK\IBK_DRFN\ProjSrc\SrcChartEx\ChartOCX\AddInManager\Include_AddIn\I000000\_IPacketList.h

; 117  : 	virtual POSITION	InsertBefore(POSITION position, IPacket *newElement)	{	return CIPacketListBase::InsertBefore( position, newElement);	}

  0002c	8b c1		 mov	 eax, ecx
  0002e	5f		 pop	 edi
; File C:\Program Files (x86)\Microsoft Visual Studio\2019\Community\VC\Tools\MSVC\14.29.30133\atlmfc\include\afxtempl.h

; 959  : 	m_pNodeHead = pNewNode;

  0002f	89 4e 04	 mov	 DWORD PTR [esi+4], ecx
; File D:\git\src\IBK\IBK_DRFN\ProjSrc\SrcChartEx\ChartOCX\AddInManager\Include_AddIn\I000000\_IPacketList.h

; 117  : 	virtual POSITION	InsertBefore(POSITION position, IPacket *newElement)	{	return CIPacketListBase::InsertBefore( position, newElement);	}

  00032	5e		 pop	 esi
  00033	5d		 pop	 ebp
  00034	c2 08 00	 ret	 8
$LN9@InsertBefo:
  00037	5f		 pop	 edi
; File C:\Program Files (x86)\Microsoft Visual Studio\2019\Community\VC\Tools\MSVC\14.29.30133\atlmfc\include\afxtempl.h

; 958  : 		m_pNodeTail = pNewNode;

  00038	89 4e 08	 mov	 DWORD PTR [esi+8], ecx
; File D:\git\src\IBK\IBK_DRFN\ProjSrc\SrcChartEx\ChartOCX\AddInManager\Include_AddIn\I000000\_IPacketList.h

; 117  : 	virtual POSITION	InsertBefore(POSITION position, IPacket *newElement)	{	return CIPacketListBase::InsertBefore( position, newElement);	}

  0003b	8b c1		 mov	 eax, ecx
; File C:\Program Files (x86)\Microsoft Visual Studio\2019\Community\VC\Tools\MSVC\14.29.30133\atlmfc\include\afxtempl.h

; 959  : 	m_pNodeHead = pNewNode;

  0003d	89 4e 04	 mov	 DWORD PTR [esi+4], ecx
; File D:\git\src\IBK\IBK_DRFN\ProjSrc\SrcChartEx\ChartOCX\AddInManager\Include_AddIn\I000000\_IPacketList.h

; 117  : 	virtual POSITION	InsertBefore(POSITION position, IPacket *newElement)	{	return CIPacketListBase::InsertBefore( position, newElement);	}

  00040	5e		 pop	 esi
  00041	5d		 pop	 ebp
  00042	c2 08 00	 ret	 8
$LN4@InsertBefo:
; File C:\Program Files (x86)\Microsoft Visual Studio\2019\Community\VC\Tools\MSVC\14.29.30133\atlmfc\include\afxtempl.h

; 1053 : 	CNode* pNewNode = NewNode(pOldNode->pPrev, pOldNode);

  00045	57		 push	 edi
  00046	ff 77 04	 push	 DWORD PTR [edi+4]
  00049	e8 00 00 00 00	 call	 ?NewNode@?$CList@PAUIPacket000000@@PAU1@@@IAEPAUCNode@1@PAU21@0@Z ; CList<IPacket000000 *,IPacket000000 *>::NewNode
  0004e	8b c8		 mov	 ecx, eax

; 1054 : 	pNewNode->data = newElement;

  00050	8b 45 0c	 mov	 eax, DWORD PTR _newElement$[ebp]
  00053	89 41 08	 mov	 DWORD PTR [ecx+8], eax

; 1055 : 
; 1056 : 	if (pOldNode->pPrev != NULL)

  00056	8b 47 04	 mov	 eax, DWORD PTR [edi+4]
  00059	85 c0		 test	 eax, eax
  0005b	74 0d		 je	 SHORT $LN5@InsertBefo

; 1057 : 	{
; 1058 : 		ASSERT(AfxIsValidAddress(pOldNode->pPrev, sizeof(CNode)));
; 1059 : 		pOldNode->pPrev->pNext = pNewNode;

  0005d	89 08		 mov	 DWORD PTR [eax], ecx
; File D:\git\src\IBK\IBK_DRFN\ProjSrc\SrcChartEx\ChartOCX\AddInManager\Include_AddIn\I000000\_IPacketList.h

; 117  : 	virtual POSITION	InsertBefore(POSITION position, IPacket *newElement)	{	return CIPacketListBase::InsertBefore( position, newElement);	}

  0005f	8b c1		 mov	 eax, ecx
; File C:\Program Files (x86)\Microsoft Visual Studio\2019\Community\VC\Tools\MSVC\14.29.30133\atlmfc\include\afxtempl.h

; 1066 : 	pOldNode->pPrev = pNewNode;

  00061	89 4f 04	 mov	 DWORD PTR [edi+4], ecx
  00064	5f		 pop	 edi
; File D:\git\src\IBK\IBK_DRFN\ProjSrc\SrcChartEx\ChartOCX\AddInManager\Include_AddIn\I000000\_IPacketList.h

; 117  : 	virtual POSITION	InsertBefore(POSITION position, IPacket *newElement)	{	return CIPacketListBase::InsertBefore( position, newElement);	}

  00065	5e		 pop	 esi
  00066	5d		 pop	 ebp
  00067	c2 08 00	 ret	 8
$LN5@InsertBefo:
; File C:\Program Files (x86)\Microsoft Visual Studio\2019\Community\VC\Tools\MSVC\14.29.30133\atlmfc\include\afxtempl.h

; 1064 : 		m_pNodeHead = pNewNode;

  0006a	89 4e 04	 mov	 DWORD PTR [esi+4], ecx
; File D:\git\src\IBK\IBK_DRFN\ProjSrc\SrcChartEx\ChartOCX\AddInManager\Include_AddIn\I000000\_IPacketList.h

; 117  : 	virtual POSITION	InsertBefore(POSITION position, IPacket *newElement)	{	return CIPacketListBase::InsertBefore( position, newElement);	}

  0006d	8b c1		 mov	 eax, ecx
; File C:\Program Files (x86)\Microsoft Visual Studio\2019\Community\VC\Tools\MSVC\14.29.30133\atlmfc\include\afxtempl.h

; 1066 : 	pOldNode->pPrev = pNewNode;

  0006f	89 4f 04	 mov	 DWORD PTR [edi+4], ecx
  00072	5f		 pop	 edi
; File D:\git\src\IBK\IBK_DRFN\ProjSrc\SrcChartEx\ChartOCX\AddInManager\Include_AddIn\I000000\_IPacketList.h

; 117  : 	virtual POSITION	InsertBefore(POSITION position, IPacket *newElement)	{	return CIPacketListBase::InsertBefore( position, newElement);	}

  00073	5e		 pop	 esi
  00074	5d		 pop	 ebp
  00075	c2 08 00	 ret	 8
?InsertBefore@CIPacketList000000@@UAEPAU__POSITION@@PAU2@PAUIPacket000000@@@Z ENDP ; CIPacketList000000::InsertBefore
_TEXT	ENDS
; Function compile flags: /Ogtp
; File D:\git\src\IBK\IBK_DRFN\ProjSrc\SrcChartEx\ChartOCX\AddInManager\Include_AddIn\I000000\_IPacketList.h
; File C:\Program Files (x86)\Microsoft Visual Studio\2019\Community\VC\Tools\MSVC\14.29.30133\atlmfc\include\afxtempl.h
; File D:\git\src\IBK\IBK_DRFN\ProjSrc\SrcChartEx\ChartOCX\AddInManager\Include_AddIn\I000000\_IPacketList.h
;	COMDAT ?RemoveAt@CIPacketList000000@@UAEXPAU__POSITION@@@Z
_TEXT	SEGMENT
_position$ = 8						; size = 4
?RemoveAt@CIPacketList000000@@UAEXPAU__POSITION@@@Z PROC ; CIPacketList000000::RemoveAt, COMDAT
; _this$ = ecx

; 114  : 	virtual void		RemoveAt(POSITION position)					{	CIPacketListBase::RemoveAt( position);	}

  00000	55		 push	 ebp
  00001	8b ec		 mov	 ebp, esp
  00003	56		 push	 esi
  00004	8b f1		 mov	 esi, ecx
; File C:\Program Files (x86)\Microsoft Visual Studio\2019\Community\VC\Tools\MSVC\14.29.30133\atlmfc\include\afxtempl.h

; 1107 : 	if (pOldNode == m_pNodeHead)

  00006	8b 4d 08	 mov	 ecx, DWORD PTR _position$[ebp]
  00009	8b 11		 mov	 edx, DWORD PTR [ecx]
  0000b	3b 4e e8	 cmp	 ecx, DWORD PTR [esi-24]
  0000e	75 05		 jne	 SHORT $LN4@RemoveAt

; 1108 : 	{
; 1109 : 		m_pNodeHead = pOldNode->pNext;

  00010	89 56 e8	 mov	 DWORD PTR [esi-24], edx

; 1110 : 	}

  00013	eb 05		 jmp	 SHORT $LN5@RemoveAt
$LN4@RemoveAt:

; 1111 : 	else
; 1112 : 	{
; 1113 : 		ASSERT(AfxIsValidAddress(pOldNode->pPrev, sizeof(CNode)));
; 1114 : 		pOldNode->pPrev->pNext = pOldNode->pNext;

  00015	8b 41 04	 mov	 eax, DWORD PTR [ecx+4]
  00018	89 10		 mov	 DWORD PTR [eax], edx
$LN5@RemoveAt:

; 1115 : 	}
; 1116 : 	if (pOldNode == m_pNodeTail)

  0001a	8b 51 04	 mov	 edx, DWORD PTR [ecx+4]
  0001d	3b 4e ec	 cmp	 ecx, DWORD PTR [esi-20]
  00020	75 05		 jne	 SHORT $LN6@RemoveAt

; 1117 : 	{
; 1118 : 		m_pNodeTail = pOldNode->pPrev;

  00022	89 56 ec	 mov	 DWORD PTR [esi-20], edx

; 1119 : 	}

  00025	eb 05		 jmp	 SHORT $LN7@RemoveAt
$LN6@RemoveAt:

; 1120 : 	else
; 1121 : 	{
; 1122 : 		ASSERT(AfxIsValidAddress(pOldNode->pNext, sizeof(CNode)));
; 1123 : 		pOldNode->pNext->pPrev = pOldNode->pPrev;

  00027	8b 01		 mov	 eax, DWORD PTR [ecx]
  00029	89 50 04	 mov	 DWORD PTR [eax+4], edx
$LN7@RemoveAt:

; 938  : 	pNode->pNext = m_pNodeFree;

  0002c	8b 46 f4	 mov	 eax, DWORD PTR [esi-12]
  0002f	89 01		 mov	 DWORD PTR [ecx], eax

; 939  : 	m_pNodeFree = pNode;
; 940  : 	m_nCount--;

  00031	83 46 f0 ff	 add	 DWORD PTR [esi-16], -1
  00035	89 4e f4	 mov	 DWORD PTR [esi-12], ecx

; 941  : 	ASSERT(m_nCount >= 0);  // make sure we don't underflow
; 942  : 
; 943  : 	// if no more elements, cleanup completely
; 944  : 	if (m_nCount == 0)

  00038	75 2b		 jne	 SHORT $LN10@RemoveAt

; 872  : 	m_pBlocks->FreeDataChain();

  0003a	8b 4e f8	 mov	 ecx, DWORD PTR [esi-8]
  0003d	c7 46 f0 00 00
	00 00		 mov	 DWORD PTR [esi-16], 0
  00044	c7 46 f4 00 00
	00 00		 mov	 DWORD PTR [esi-12], 0
  0004b	c7 46 ec 00 00
	00 00		 mov	 DWORD PTR [esi-20], 0
  00052	c7 46 e8 00 00
	00 00		 mov	 DWORD PTR [esi-24], 0
  00059	e8 00 00 00 00	 call	 ?FreeDataChain@CPlex@@QAEXXZ ; CPlex::FreeDataChain

; 873  : 	m_pBlocks = NULL;

  0005e	c7 46 f8 00 00
	00 00		 mov	 DWORD PTR [esi-8], 0
$LN10@RemoveAt:
  00065	5e		 pop	 esi
; File D:\git\src\IBK\IBK_DRFN\ProjSrc\SrcChartEx\ChartOCX\AddInManager\Include_AddIn\I000000\_IPacketList.h

; 114  : 	virtual void		RemoveAt(POSITION position)					{	CIPacketListBase::RemoveAt( position);	}

  00066	5d		 pop	 ebp
  00067	c2 04 00	 ret	 4
?RemoveAt@CIPacketList000000@@UAEXPAU__POSITION@@@Z ENDP ; CIPacketList000000::RemoveAt
_TEXT	ENDS
; Function compile flags: /Ogtp
; File D:\git\src\IBK\IBK_DRFN\ProjSrc\SrcChartEx\ChartOCX\AddInManager\Include_AddIn\I000000\_IPacketList.h
;	COMDAT ?SetAt@CIPacketList000000@@UAEXPAU__POSITION@@PAUIPacket000000@@@Z
_TEXT	SEGMENT
_pos$ = 8						; size = 4
_newElement$ = 12					; size = 4
?SetAt@CIPacketList000000@@UAEXPAU__POSITION@@PAUIPacket000000@@@Z PROC ; CIPacketList000000::SetAt, COMDAT
; _this$ = ecx

; 113  : 	virtual void		SetAt(POSITION pos, IPacket *newElement)	{	CIPacketListBase::SetAt( pos, newElement);	}

  00000	55		 push	 ebp
  00001	8b ec		 mov	 ebp, esp
  00003	8b 45 08	 mov	 eax, DWORD PTR _pos$[ebp]
  00006	8b 4d 0c	 mov	 ecx, DWORD PTR _newElement$[ebp]
  00009	89 48 08	 mov	 DWORD PTR [eax+8], ecx
  0000c	5d		 pop	 ebp
  0000d	c2 08 00	 ret	 8
?SetAt@CIPacketList000000@@UAEXPAU__POSITION@@PAUIPacket000000@@@Z ENDP ; CIPacketList000000::SetAt
_TEXT	ENDS
; Function compile flags: /Ogtp
; File D:\git\src\IBK\IBK_DRFN\ProjSrc\SrcChartEx\ChartOCX\AddInManager\Include_AddIn\I000000\_IPacketList.h
;	COMDAT ?GetAt@CIPacketList000000@@UBEPAUIPacket000000@@PAU__POSITION@@@Z
_TEXT	SEGMENT
_position$ = 8						; size = 4
?GetAt@CIPacketList000000@@UBEPAUIPacket000000@@PAU__POSITION@@@Z PROC ; CIPacketList000000::GetAt, COMDAT
; _this$ = ecx

; 112  : 	virtual IPacket *	GetAt(POSITION position) const				{	return CIPacketListBase::GetAt( position);	}

  00000	55		 push	 ebp
  00001	8b ec		 mov	 ebp, esp
  00003	8b 45 08	 mov	 eax, DWORD PTR _position$[ebp]
  00006	8b 40 08	 mov	 eax, DWORD PTR [eax+8]
  00009	5d		 pop	 ebp
  0000a	c2 04 00	 ret	 4
?GetAt@CIPacketList000000@@UBEPAUIPacket000000@@PAU__POSITION@@@Z ENDP ; CIPacketList000000::GetAt
_TEXT	ENDS
; Function compile flags: /Ogtp
; File D:\git\src\IBK\IBK_DRFN\ProjSrc\SrcChartEx\ChartOCX\AddInManager\Include_AddIn\I000000\_IPacketList.h
; File C:\Program Files (x86)\Microsoft Visual Studio\2019\Community\VC\Tools\MSVC\14.29.30133\atlmfc\include\afxtempl.h
; File D:\git\src\IBK\IBK_DRFN\ProjSrc\SrcChartEx\ChartOCX\AddInManager\Include_AddIn\I000000\_IPacketList.h
;	COMDAT ?GetPrev@CIPacketList000000@@UBEPAUIPacket000000@@AAPAU__POSITION@@@Z
_TEXT	SEGMENT
_rPosition$ = 8						; size = 4
?GetPrev@CIPacketList000000@@UBEPAUIPacket000000@@AAPAU__POSITION@@@Z PROC ; CIPacketList000000::GetPrev, COMDAT
; _this$ = ecx

; 109  : 	virtual IPacket *	GetPrev(POSITION& rPosition) const	{	return CIPacketListBase::GetPrev( rPosition);	} // return *Position--

  00000	55		 push	 ebp
  00001	8b ec		 mov	 ebp, esp
; File C:\Program Files (x86)\Microsoft Visual Studio\2019\Community\VC\Tools\MSVC\14.29.30133\atlmfc\include\afxtempl.h

; 829  : 	{ CNode* pNode = (CNode*) rPosition;

  00003	8b 55 08	 mov	 edx, DWORD PTR _rPosition$[ebp]
  00006	8b 02		 mov	 eax, DWORD PTR [edx]

; 830  : 		ASSERT(AfxIsValidAddress(pNode, sizeof(CNode)));
; 831  : 		rPosition = (POSITION) pNode->pPrev;

  00008	8b 48 04	 mov	 ecx, DWORD PTR [eax+4]
  0000b	89 0a		 mov	 DWORD PTR [edx], ecx
; File D:\git\src\IBK\IBK_DRFN\ProjSrc\SrcChartEx\ChartOCX\AddInManager\Include_AddIn\I000000\_IPacketList.h

; 109  : 	virtual IPacket *	GetPrev(POSITION& rPosition) const	{	return CIPacketListBase::GetPrev( rPosition);	} // return *Position--

  0000d	8b 40 08	 mov	 eax, DWORD PTR [eax+8]
  00010	5d		 pop	 ebp
  00011	c2 04 00	 ret	 4
?GetPrev@CIPacketList000000@@UBEPAUIPacket000000@@AAPAU__POSITION@@@Z ENDP ; CIPacketList000000::GetPrev
_TEXT	ENDS
; Function compile flags: /Ogtp
; File D:\git\src\IBK\IBK_DRFN\ProjSrc\SrcChartEx\ChartOCX\AddInManager\Include_AddIn\I000000\_IPacketList.h
; File C:\Program Files (x86)\Microsoft Visual Studio\2019\Community\VC\Tools\MSVC\14.29.30133\atlmfc\include\afxtempl.h
; File D:\git\src\IBK\IBK_DRFN\ProjSrc\SrcChartEx\ChartOCX\AddInManager\Include_AddIn\I000000\_IPacketList.h
;	COMDAT ?GetNext@CIPacketList000000@@UBEPAUIPacket000000@@AAPAU__POSITION@@@Z
_TEXT	SEGMENT
_rPosition$ = 8						; size = 4
?GetNext@CIPacketList000000@@UBEPAUIPacket000000@@AAPAU__POSITION@@@Z PROC ; CIPacketList000000::GetNext, COMDAT
; _this$ = ecx

; 108  : 	virtual IPacket *	GetNext(POSITION& rPosition) const	{	return CIPacketListBase::GetNext( rPosition);	} // return *Position++

  00000	55		 push	 ebp
  00001	8b ec		 mov	 ebp, esp
; File C:\Program Files (x86)\Microsoft Visual Studio\2019\Community\VC\Tools\MSVC\14.29.30133\atlmfc\include\afxtempl.h

; 817  : 	{ CNode* pNode = (CNode*) rPosition;

  00003	8b 55 08	 mov	 edx, DWORD PTR _rPosition$[ebp]
  00006	8b 02		 mov	 eax, DWORD PTR [edx]

; 818  : 		ASSERT(AfxIsValidAddress(pNode, sizeof(CNode)));
; 819  : 		rPosition = (POSITION) pNode->pNext;

  00008	8b 08		 mov	 ecx, DWORD PTR [eax]
  0000a	89 0a		 mov	 DWORD PTR [edx], ecx
; File D:\git\src\IBK\IBK_DRFN\ProjSrc\SrcChartEx\ChartOCX\AddInManager\Include_AddIn\I000000\_IPacketList.h

; 108  : 	virtual IPacket *	GetNext(POSITION& rPosition) const	{	return CIPacketListBase::GetNext( rPosition);	} // return *Position++

  0000c	8b 40 08	 mov	 eax, DWORD PTR [eax+8]
  0000f	5d		 pop	 ebp
  00010	c2 04 00	 ret	 4
?GetNext@CIPacketList000000@@UBEPAUIPacket000000@@AAPAU__POSITION@@@Z ENDP ; CIPacketList000000::GetNext
_TEXT	ENDS
; Function compile flags: /Ogtp
; File D:\git\src\IBK\IBK_DRFN\ProjSrc\SrcChartEx\ChartOCX\AddInManager\Include_AddIn\I000000\_IPacketList.h
;	COMDAT ?GetTailPosition@CIPacketList000000@@UBEPAU__POSITION@@XZ
_TEXT	SEGMENT
?GetTailPosition@CIPacketList000000@@UBEPAU__POSITION@@XZ PROC ; CIPacketList000000::GetTailPosition, COMDAT
; _this$ = ecx

; 107  : 	virtual POSITION	GetTailPosition() const				{	return CIPacketListBase::GetTailPosition();	}

  00000	8b 41 ec	 mov	 eax, DWORD PTR [ecx-20]
  00003	c3		 ret	 0
?GetTailPosition@CIPacketList000000@@UBEPAU__POSITION@@XZ ENDP ; CIPacketList000000::GetTailPosition
_TEXT	ENDS
; Function compile flags: /Ogtp
; File D:\git\src\IBK\IBK_DRFN\ProjSrc\SrcChartEx\ChartOCX\AddInManager\Include_AddIn\I000000\_IPacketList.h
;	COMDAT ?GetHeadPosition@CIPacketList000000@@UBEPAU__POSITION@@XZ
_TEXT	SEGMENT
?GetHeadPosition@CIPacketList000000@@UBEPAU__POSITION@@XZ PROC ; CIPacketList000000::GetHeadPosition, COMDAT
; _this$ = ecx

; 106  : 	virtual POSITION	GetHeadPosition() const				{	return CIPacketListBase::GetHeadPosition();	}

  00000	8b 41 e8	 mov	 eax, DWORD PTR [ecx-24]
  00003	c3		 ret	 0
?GetHeadPosition@CIPacketList000000@@UBEPAU__POSITION@@XZ ENDP ; CIPacketList000000::GetHeadPosition
_TEXT	ENDS
; Function compile flags: /Ogtp
; File D:\git\src\IBK\IBK_DRFN\ProjSrc\SrcChartEx\ChartOCX\AddInManager\Include_AddIn\I000000\_IPacketList.h
; File C:\Program Files (x86)\Microsoft Visual Studio\2019\Community\VC\Tools\MSVC\14.29.30133\atlmfc\include\afxtempl.h
; File D:\git\src\IBK\IBK_DRFN\ProjSrc\SrcChartEx\ChartOCX\AddInManager\Include_AddIn\I000000\_IPacketList.h
;	COMDAT ?RemoveAll@CIPacketList000000@@UAEXXZ
_TEXT	SEGMENT
?RemoveAll@CIPacketList000000@@UAEXXZ PROC		; CIPacketList000000::RemoveAll, COMDAT
; _this$ = ecx

; 103  : 	virtual void	RemoveAll()	{	CIPacketListBase::RemoveAll();	}

  00000	56		 push	 esi
  00001	8b f1		 mov	 esi, ecx
; File C:\Program Files (x86)\Microsoft Visual Studio\2019\Community\VC\Tools\MSVC\14.29.30133\atlmfc\include\afxtempl.h

; 872  : 	m_pBlocks->FreeDataChain();

  00003	8b 4e f8	 mov	 ecx, DWORD PTR [esi-8]
  00006	c7 46 f0 00 00
	00 00		 mov	 DWORD PTR [esi-16], 0
  0000d	c7 46 f4 00 00
	00 00		 mov	 DWORD PTR [esi-12], 0
  00014	c7 46 ec 00 00
	00 00		 mov	 DWORD PTR [esi-20], 0
  0001b	c7 46 e8 00 00
	00 00		 mov	 DWORD PTR [esi-24], 0
  00022	e8 00 00 00 00	 call	 ?FreeDataChain@CPlex@@QAEXXZ ; CPlex::FreeDataChain

; 873  : 	m_pBlocks = NULL;

  00027	c7 46 f8 00 00
	00 00		 mov	 DWORD PTR [esi-8], 0
  0002e	5e		 pop	 esi
; File D:\git\src\IBK\IBK_DRFN\ProjSrc\SrcChartEx\ChartOCX\AddInManager\Include_AddIn\I000000\_IPacketList.h

; 103  : 	virtual void	RemoveAll()	{	CIPacketListBase::RemoveAll();	}

  0002f	c3		 ret	 0
?RemoveAll@CIPacketList000000@@UAEXXZ ENDP		; CIPacketList000000::RemoveAll
_TEXT	ENDS
; Function compile flags: /Ogtp
; File D:\git\src\IBK\IBK_DRFN\ProjSrc\SrcChartEx\ChartOCX\AddInManager\Include_AddIn\I000000\_IPacketList.h
; File C:\Program Files (x86)\Microsoft Visual Studio\2019\Community\VC\Tools\MSVC\14.29.30133\atlmfc\include\afxtempl.h
; File D:\git\src\IBK\IBK_DRFN\ProjSrc\SrcChartEx\ChartOCX\AddInManager\Include_AddIn\I000000\_IPacketList.h
; File C:\Program Files (x86)\Microsoft Visual Studio\2019\Community\VC\Tools\MSVC\14.29.30133\atlmfc\include\afxtempl.h
; File D:\git\src\IBK\IBK_DRFN\ProjSrc\SrcChartEx\ChartOCX\AddInManager\Include_AddIn\I000000\_IPacketList.h
; File C:\Program Files (x86)\Microsoft Visual Studio\2019\Community\VC\Tools\MSVC\14.29.30133\atlmfc\include\afxtempl.h
; File D:\git\src\IBK\IBK_DRFN\ProjSrc\SrcChartEx\ChartOCX\AddInManager\Include_AddIn\I000000\_IPacketList.h
;	COMDAT ?AddTail@CIPacketList000000@@UAEXPAUIPacketList000000@@@Z
_TEXT	SEGMENT
_newElement$1$ = -4					; size = 4
$T1 = 8							; size = 4
_pNewList$ = 8						; size = 4
?AddTail@CIPacketList000000@@UAEXPAUIPacketList000000@@@Z PROC ; CIPacketList000000::AddTail, COMDAT
; _this$ = ecx

; 100  : 	virtual void	AddTail(IPacketList* pNewList)	{	CIPacketListBase::AddTail( ( CIPacketListBase *)pNewList);	}

  00000	55		 push	 ebp
  00001	8b ec		 mov	 ebp, esp
  00003	51		 push	 ecx
  00004	53		 push	 ebx
; File C:\Program Files (x86)\Microsoft Visual Studio\2019\Community\VC\Tools\MSVC\14.29.30133\atlmfc\include\afxtempl.h

; 996  : 	ENSURE(pNewList != NULL);

  00005	8b 5d 08	 mov	 ebx, DWORD PTR _pNewList$[ebp]
; File D:\git\src\IBK\IBK_DRFN\ProjSrc\SrcChartEx\ChartOCX\AddInManager\Include_AddIn\I000000\_IPacketList.h

; 100  : 	virtual void	AddTail(IPacketList* pNewList)	{	CIPacketListBase::AddTail( ( CIPacketListBase *)pNewList);	}

  00008	56		 push	 esi
  00009	8b f1		 mov	 esi, ecx
; File C:\Program Files (x86)\Microsoft Visual Studio\2019\Community\VC\Tools\MSVC\14.29.30133\atlmfc\include\afxtempl.h

; 996  : 	ENSURE(pNewList != NULL);

  0000b	85 db		 test	 ebx, ebx
  0000d	0f 84 a1 00 00
	00		 je	 $LN32@AddTail

; 997  : 	ASSERT_VALID(pNewList);
; 998  : 
; 999  : 	// add a list of same elements
; 1000 : 	POSITION pos = pNewList->GetHeadPosition();

  00013	8b 5b 04	 mov	 ebx, DWORD PTR [ebx+4]

; 1001 : 	while (pos != NULL)

  00016	85 db		 test	 ebx, ebx
  00018	0f 84 8e 00 00
	00		 je	 $LN42@AddTail
  0001e	8b 4e ec	 mov	 ecx, DWORD PTR [esi-20]
  00021	89 4d 08	 mov	 DWORD PTR $T1[ebp], ecx
  00024	57		 push	 edi
$LL7@AddTail:

; 1002 : 		AddTail(pNewList->GetNext(pos));

  00025	8b 43 08	 mov	 eax, DWORD PTR [ebx+8]

; 902  : 	if (m_pNodeFree == NULL)

  00028	8b 56 f4	 mov	 edx, DWORD PTR [esi-12]

; 813  : 		rPosition = (POSITION) pNode->pNext;

  0002b	8b 1b		 mov	 ebx, DWORD PTR [ebx]

; 1002 : 		AddTail(pNewList->GetNext(pos));

  0002d	89 45 fc	 mov	 DWORD PTR _newElement$1$[ebp], eax

; 902  : 	if (m_pNodeFree == NULL)

  00030	85 d2		 test	 edx, edx
  00032	75 42		 jne	 SHORT $LN40@AddTail

; 903  : 	{
; 904  : 		// add another block
; 905  : 		CPlex* pNewBlock = CPlex::Create(m_pBlocks, m_nBlockSize,

  00034	6a 0c		 push	 12			; 0000000cH
  00036	ff 76 fc	 push	 DWORD PTR [esi-4]
  00039	8d 46 f8	 lea	 eax, DWORD PTR [esi-8]
  0003c	50		 push	 eax
  0003d	e8 00 00 00 00	 call	 ?Create@CPlex@@SGPAU1@AAPAU1@II@Z ; CPlex::Create

; 906  : 				 sizeof(CNode));
; 907  : 
; 908  : 		// chain them into free list
; 909  : 		CNode* pNode = (CNode*) pNewBlock->data();
; 910  : 		// free in reverse order to make it easier to debug
; 911  : 		pNode += m_nBlockSize - 1;

  00042	8b 56 fc	 mov	 edx, DWORD PTR [esi-4]
  00045	83 c0 08	 add	 eax, 8
  00048	8d 0c 52	 lea	 ecx, DWORD PTR [edx+edx*2]
  0004b	8d 04 88	 lea	 eax, DWORD PTR [eax+ecx*4]

; 912  : 		for (INT_PTR i = m_nBlockSize-1; i >= 0; i--, pNode--)

  0004e	8d 7a ff	 lea	 edi, DWORD PTR [edx-1]
  00051	83 c0 f4	 add	 eax, -12		; fffffff4H
  00054	85 ff		 test	 edi, edi
  00056	78 14		 js	 SHORT $LN41@AddTail
$LL20@AddTail:

; 913  : 		{
; 914  : 			pNode->pNext = m_pNodeFree;

  00058	8b 4e f4	 mov	 ecx, DWORD PTR [esi-12]
  0005b	8b d0		 mov	 edx, eax
  0005d	89 08		 mov	 DWORD PTR [eax], ecx

; 915  : 			m_pNodeFree = pNode;

  0005f	89 46 f4	 mov	 DWORD PTR [esi-12], eax
  00062	83 e8 0c	 sub	 eax, 12			; 0000000cH
  00065	83 ef 01	 sub	 edi, 1
  00068	79 ee		 jns	 SHORT $LL20@AddTail
  0006a	eb 03		 jmp	 SHORT $LN23@AddTail
$LN41@AddTail:
  0006c	8b 56 f4	 mov	 edx, DWORD PTR [esi-12]
$LN23@AddTail:

; 918  : 	ENSURE(m_pNodeFree != NULL);  // we must have something

  0006f	85 d2		 test	 edx, edx
  00071	74 41		 je	 SHORT $LN32@AddTail
  00073	8b 4d 08	 mov	 ecx, DWORD PTR $T1[ebp]
$LN40@AddTail:

; 919  : 
; 920  : 	CList::CNode* pNode = m_pNodeFree;
; 921  : 	m_pNodeFree = m_pNodeFree->pNext;

  00076	8b 02		 mov	 eax, DWORD PTR [edx]
  00078	89 46 f4	 mov	 DWORD PTR [esi-12], eax

; 969  : 	pNewNode->data = newElement;

  0007b	8b 45 fc	 mov	 eax, DWORD PTR _newElement$1$[ebp]

; 922  : 	pNode->pPrev = pPrev;

  0007e	89 4a 04	 mov	 DWORD PTR [edx+4], ecx

; 923  : 	pNode->pNext = pNext;

  00081	c7 02 00 00 00
	00		 mov	 DWORD PTR [edx], 0

; 924  : 	m_nCount++;

  00087	ff 46 f0	 inc	 DWORD PTR [esi-16]

; 969  : 	pNewNode->data = newElement;

  0008a	89 42 08	 mov	 DWORD PTR [edx+8], eax

; 970  : 	if (m_pNodeTail != NULL)

  0008d	8b 46 ec	 mov	 eax, DWORD PTR [esi-20]
  00090	85 c0		 test	 eax, eax
  00092	74 04		 je	 SHORT $LN14@AddTail

; 971  : 		m_pNodeTail->pNext = pNewNode;

  00094	89 10		 mov	 DWORD PTR [eax], edx
  00096	eb 03		 jmp	 SHORT $LN15@AddTail
$LN14@AddTail:

; 972  : 	else
; 973  : 		m_pNodeHead = pNewNode;

  00098	89 56 e8	 mov	 DWORD PTR [esi-24], edx
$LN15@AddTail:

; 974  : 	m_pNodeTail = pNewNode;

  0009b	89 56 ec	 mov	 DWORD PTR [esi-20], edx
  0009e	8b ca		 mov	 ecx, edx
  000a0	89 4d 08	 mov	 DWORD PTR $T1[ebp], ecx

; 1001 : 	while (pos != NULL)

  000a3	85 db		 test	 ebx, ebx
  000a5	0f 85 7a ff ff
	ff		 jne	 $LL7@AddTail
  000ab	5f		 pop	 edi
$LN42@AddTail:
  000ac	5e		 pop	 esi
; File D:\git\src\IBK\IBK_DRFN\ProjSrc\SrcChartEx\ChartOCX\AddInManager\Include_AddIn\I000000\_IPacketList.h

; 100  : 	virtual void	AddTail(IPacketList* pNewList)	{	CIPacketListBase::AddTail( ( CIPacketListBase *)pNewList);	}

  000ad	5b		 pop	 ebx
  000ae	8b e5		 mov	 esp, ebp
  000b0	5d		 pop	 ebp
  000b1	c2 04 00	 ret	 4
$LN32@AddTail:
; File C:\Program Files (x86)\Microsoft Visual Studio\2019\Community\VC\Tools\MSVC\14.29.30133\atlmfc\include\afxtempl.h

; 918  : 	ENSURE(m_pNodeFree != NULL);  // we must have something

  000b4	e8 00 00 00 00	 call	 ?AfxThrowInvalidArgException@@YGXXZ ; AfxThrowInvalidArgException
$LN44@AddTail:
  000b9	cc		 int	 3
?AddTail@CIPacketList000000@@UAEXPAUIPacketList000000@@@Z ENDP ; CIPacketList000000::AddTail
_TEXT	ENDS
; Function compile flags: /Ogtp
; File D:\git\src\IBK\IBK_DRFN\ProjSrc\SrcChartEx\ChartOCX\AddInManager\Include_AddIn\I000000\_IPacketList.h
; File C:\Program Files (x86)\Microsoft Visual Studio\2019\Community\VC\Tools\MSVC\14.29.30133\atlmfc\include\afxtempl.h
; File D:\git\src\IBK\IBK_DRFN\ProjSrc\SrcChartEx\ChartOCX\AddInManager\Include_AddIn\I000000\_IPacketList.h
; File C:\Program Files (x86)\Microsoft Visual Studio\2019\Community\VC\Tools\MSVC\14.29.30133\atlmfc\include\afxtempl.h
; File D:\git\src\IBK\IBK_DRFN\ProjSrc\SrcChartEx\ChartOCX\AddInManager\Include_AddIn\I000000\_IPacketList.h
; File C:\Program Files (x86)\Microsoft Visual Studio\2019\Community\VC\Tools\MSVC\14.29.30133\atlmfc\include\afxtempl.h
; File D:\git\src\IBK\IBK_DRFN\ProjSrc\SrcChartEx\ChartOCX\AddInManager\Include_AddIn\I000000\_IPacketList.h
;	COMDAT ?AddHead@CIPacketList000000@@UAEXPAUIPacketList000000@@@Z
_TEXT	SEGMENT
_newElement$1$ = -4					; size = 4
$T1 = 8							; size = 4
_pNewList$ = 8						; size = 4
?AddHead@CIPacketList000000@@UAEXPAUIPacketList000000@@@Z PROC ; CIPacketList000000::AddHead, COMDAT
; _this$ = ecx

; 99   : 	virtual void	AddHead(IPacketList* pNewList)	{	CIPacketListBase::AddHead( ( CIPacketListBase *)pNewList);	}

  00000	55		 push	 ebp
  00001	8b ec		 mov	 ebp, esp
  00003	51		 push	 ecx
  00004	53		 push	 ebx
; File C:\Program Files (x86)\Microsoft Visual Studio\2019\Community\VC\Tools\MSVC\14.29.30133\atlmfc\include\afxtempl.h

; 983  : 	ENSURE(pNewList != NULL);

  00005	8b 5d 08	 mov	 ebx, DWORD PTR _pNewList$[ebp]
; File D:\git\src\IBK\IBK_DRFN\ProjSrc\SrcChartEx\ChartOCX\AddInManager\Include_AddIn\I000000\_IPacketList.h

; 99   : 	virtual void	AddHead(IPacketList* pNewList)	{	CIPacketListBase::AddHead( ( CIPacketListBase *)pNewList);	}

  00008	56		 push	 esi
  00009	8b f1		 mov	 esi, ecx
; File C:\Program Files (x86)\Microsoft Visual Studio\2019\Community\VC\Tools\MSVC\14.29.30133\atlmfc\include\afxtempl.h

; 983  : 	ENSURE(pNewList != NULL);

  0000b	85 db		 test	 ebx, ebx
  0000d	0f 84 aa 00 00
	00		 je	 $LN32@AddHead

; 984  : 	ASSERT_VALID(pNewList);
; 985  : 
; 986  : 	// add a list of same elements to head (maintain order)
; 987  : 	POSITION pos = pNewList->GetTailPosition();

  00013	8b 5b 08	 mov	 ebx, DWORD PTR [ebx+8]

; 988  : 	while (pos != NULL)

  00016	85 db		 test	 ebx, ebx
  00018	0f 84 97 00 00
	00		 je	 $LN42@AddHead
  0001e	8b 4e e8	 mov	 ecx, DWORD PTR [esi-24]
  00021	89 4d 08	 mov	 DWORD PTR $T1[ebp], ecx
  00024	57		 push	 edi
$LL7@AddHead:

; 989  : 		AddHead(pNewList->GetPrev(pos));

  00025	8b 43 08	 mov	 eax, DWORD PTR [ebx+8]

; 902  : 	if (m_pNodeFree == NULL)

  00028	8b 56 f4	 mov	 edx, DWORD PTR [esi-12]

; 825  : 		rPosition = (POSITION) pNode->pPrev;

  0002b	8b 5b 04	 mov	 ebx, DWORD PTR [ebx+4]

; 989  : 		AddHead(pNewList->GetPrev(pos));

  0002e	89 45 fc	 mov	 DWORD PTR _newElement$1$[ebp], eax

; 902  : 	if (m_pNodeFree == NULL)

  00031	85 d2		 test	 edx, edx
  00033	75 49		 jne	 SHORT $LN40@AddHead

; 903  : 	{
; 904  : 		// add another block
; 905  : 		CPlex* pNewBlock = CPlex::Create(m_pBlocks, m_nBlockSize,

  00035	6a 0c		 push	 12			; 0000000cH
  00037	ff 76 fc	 push	 DWORD PTR [esi-4]
  0003a	8d 46 f8	 lea	 eax, DWORD PTR [esi-8]
  0003d	50		 push	 eax
  0003e	e8 00 00 00 00	 call	 ?Create@CPlex@@SGPAU1@AAPAU1@II@Z ; CPlex::Create

; 906  : 				 sizeof(CNode));
; 907  : 
; 908  : 		// chain them into free list
; 909  : 		CNode* pNode = (CNode*) pNewBlock->data();
; 910  : 		// free in reverse order to make it easier to debug
; 911  : 		pNode += m_nBlockSize - 1;

  00043	8b 56 fc	 mov	 edx, DWORD PTR [esi-4]
  00046	83 c0 08	 add	 eax, 8
  00049	8d 0c 52	 lea	 ecx, DWORD PTR [edx+edx*2]
  0004c	8d 04 88	 lea	 eax, DWORD PTR [eax+ecx*4]

; 912  : 		for (INT_PTR i = m_nBlockSize-1; i >= 0; i--, pNode--)

  0004f	8d 7a ff	 lea	 edi, DWORD PTR [edx-1]
  00052	83 c0 f4	 add	 eax, -12		; fffffff4H
  00055	85 ff		 test	 edi, edi
  00057	78 1b		 js	 SHORT $LN41@AddHead
  00059	0f 1f 80 00 00
	00 00		 npad	 7
$LL20@AddHead:

; 913  : 		{
; 914  : 			pNode->pNext = m_pNodeFree;

  00060	8b 4e f4	 mov	 ecx, DWORD PTR [esi-12]
  00063	8b d0		 mov	 edx, eax
  00065	89 08		 mov	 DWORD PTR [eax], ecx

; 915  : 			m_pNodeFree = pNode;

  00067	89 46 f4	 mov	 DWORD PTR [esi-12], eax
  0006a	83 e8 0c	 sub	 eax, 12			; 0000000cH
  0006d	83 ef 01	 sub	 edi, 1
  00070	79 ee		 jns	 SHORT $LL20@AddHead
  00072	eb 03		 jmp	 SHORT $LN23@AddHead
$LN41@AddHead:
  00074	8b 56 f4	 mov	 edx, DWORD PTR [esi-12]
$LN23@AddHead:

; 918  : 	ENSURE(m_pNodeFree != NULL);  // we must have something

  00077	85 d2		 test	 edx, edx
  00079	74 42		 je	 SHORT $LN32@AddHead
  0007b	8b 4d 08	 mov	 ecx, DWORD PTR $T1[ebp]
$LN40@AddHead:

; 919  : 
; 920  : 	CList::CNode* pNode = m_pNodeFree;
; 921  : 	m_pNodeFree = m_pNodeFree->pNext;

  0007e	8b 02		 mov	 eax, DWORD PTR [edx]
  00080	89 46 f4	 mov	 DWORD PTR [esi-12], eax

; 954  : 	pNewNode->data = newElement;

  00083	8b 45 fc	 mov	 eax, DWORD PTR _newElement$1$[ebp]

; 922  : 	pNode->pPrev = pPrev;

  00086	c7 42 04 00 00
	00 00		 mov	 DWORD PTR [edx+4], 0

; 923  : 	pNode->pNext = pNext;

  0008d	89 0a		 mov	 DWORD PTR [edx], ecx

; 924  : 	m_nCount++;

  0008f	ff 46 f0	 inc	 DWORD PTR [esi-16]

; 954  : 	pNewNode->data = newElement;

  00092	89 42 08	 mov	 DWORD PTR [edx+8], eax

; 955  : 	if (m_pNodeHead != NULL)

  00095	8b 46 e8	 mov	 eax, DWORD PTR [esi-24]
  00098	85 c0		 test	 eax, eax
  0009a	74 05		 je	 SHORT $LN14@AddHead

; 956  : 		m_pNodeHead->pPrev = pNewNode;

  0009c	89 50 04	 mov	 DWORD PTR [eax+4], edx
  0009f	eb 03		 jmp	 SHORT $LN15@AddHead
$LN14@AddHead:

; 957  : 	else
; 958  : 		m_pNodeTail = pNewNode;

  000a1	89 56 ec	 mov	 DWORD PTR [esi-20], edx
$LN15@AddHead:

; 959  : 	m_pNodeHead = pNewNode;

  000a4	89 56 e8	 mov	 DWORD PTR [esi-24], edx
  000a7	8b ca		 mov	 ecx, edx
  000a9	89 4d 08	 mov	 DWORD PTR $T1[ebp], ecx

; 988  : 	while (pos != NULL)

  000ac	85 db		 test	 ebx, ebx
  000ae	0f 85 71 ff ff
	ff		 jne	 $LL7@AddHead
  000b4	5f		 pop	 edi
$LN42@AddHead:
  000b5	5e		 pop	 esi
; File D:\git\src\IBK\IBK_DRFN\ProjSrc\SrcChartEx\ChartOCX\AddInManager\Include_AddIn\I000000\_IPacketList.h

; 99   : 	virtual void	AddHead(IPacketList* pNewList)	{	CIPacketListBase::AddHead( ( CIPacketListBase *)pNewList);	}

  000b6	5b		 pop	 ebx
  000b7	8b e5		 mov	 esp, ebp
  000b9	5d		 pop	 ebp
  000ba	c2 04 00	 ret	 4
$LN32@AddHead:
; File C:\Program Files (x86)\Microsoft Visual Studio\2019\Community\VC\Tools\MSVC\14.29.30133\atlmfc\include\afxtempl.h

; 918  : 	ENSURE(m_pNodeFree != NULL);  // we must have something

  000bd	e8 00 00 00 00	 call	 ?AfxThrowInvalidArgException@@YGXXZ ; AfxThrowInvalidArgException
$LN44@AddHead:
  000c2	cc		 int	 3
?AddHead@CIPacketList000000@@UAEXPAUIPacketList000000@@@Z ENDP ; CIPacketList000000::AddHead
_TEXT	ENDS
; Function compile flags: /Ogtp
; File D:\git\src\IBK\IBK_DRFN\ProjSrc\SrcChartEx\ChartOCX\AddInManager\Include_AddIn\I000000\_IPacketList.h
; File C:\Program Files (x86)\Microsoft Visual Studio\2019\Community\VC\Tools\MSVC\14.29.30133\atlmfc\include\afxtempl.h
; File D:\git\src\IBK\IBK_DRFN\ProjSrc\SrcChartEx\ChartOCX\AddInManager\Include_AddIn\I000000\_IPacketList.h
; File C:\Program Files (x86)\Microsoft Visual Studio\2019\Community\VC\Tools\MSVC\14.29.30133\atlmfc\include\afxtempl.h
; File D:\git\src\IBK\IBK_DRFN\ProjSrc\SrcChartEx\ChartOCX\AddInManager\Include_AddIn\I000000\_IPacketList.h
;	COMDAT ?AddTail@CIPacketList000000@@UAEPAU__POSITION@@PAUIPacket000000@@@Z
_TEXT	SEGMENT
_newElement$ = 8					; size = 4
?AddTail@CIPacketList000000@@UAEPAU__POSITION@@PAUIPacket000000@@@Z PROC ; CIPacketList000000::AddTail, COMDAT
; _this$ = ecx

; 96   : 	virtual POSITION	AddTail(IPacket *newElement)	{	return CIPacketListBase::AddTail( newElement);	}

  00000	55		 push	 ebp
  00001	8b ec		 mov	 ebp, esp
  00003	56		 push	 esi
  00004	8d 71 e4	 lea	 esi, DWORD PTR [ecx-28]
; File C:\Program Files (x86)\Microsoft Visual Studio\2019\Community\VC\Tools\MSVC\14.29.30133\atlmfc\include\afxtempl.h

; 968  : 	CNode* pNewNode = NewNode(m_pNodeTail, NULL);

  00007	6a 00		 push	 0
  00009	ff 76 08	 push	 DWORD PTR [esi+8]
  0000c	8b ce		 mov	 ecx, esi
  0000e	e8 00 00 00 00	 call	 ?NewNode@?$CList@PAUIPacket000000@@PAU1@@@IAEPAUCNode@1@PAU21@0@Z ; CList<IPacket000000 *,IPacket000000 *>::NewNode

; 969  : 	pNewNode->data = newElement;

  00013	8b 4d 08	 mov	 ecx, DWORD PTR _newElement$[ebp]
  00016	89 48 08	 mov	 DWORD PTR [eax+8], ecx

; 970  : 	if (m_pNodeTail != NULL)

  00019	8b 4e 08	 mov	 ecx, DWORD PTR [esi+8]
  0001c	85 c9		 test	 ecx, ecx
  0001e	74 0a		 je	 SHORT $LN4@AddTail

; 971  : 		m_pNodeTail->pNext = pNewNode;

  00020	89 01		 mov	 DWORD PTR [ecx], eax
; File D:\git\src\IBK\IBK_DRFN\ProjSrc\SrcChartEx\ChartOCX\AddInManager\Include_AddIn\I000000\_IPacketList.h

; 96   : 	virtual POSITION	AddTail(IPacket *newElement)	{	return CIPacketListBase::AddTail( newElement);	}

  00022	89 46 08	 mov	 DWORD PTR [esi+8], eax
  00025	5e		 pop	 esi
  00026	5d		 pop	 ebp
  00027	c2 04 00	 ret	 4
$LN4@AddTail:
; File C:\Program Files (x86)\Microsoft Visual Studio\2019\Community\VC\Tools\MSVC\14.29.30133\atlmfc\include\afxtempl.h

; 973  : 		m_pNodeHead = pNewNode;

  0002a	89 46 04	 mov	 DWORD PTR [esi+4], eax
; File D:\git\src\IBK\IBK_DRFN\ProjSrc\SrcChartEx\ChartOCX\AddInManager\Include_AddIn\I000000\_IPacketList.h

; 96   : 	virtual POSITION	AddTail(IPacket *newElement)	{	return CIPacketListBase::AddTail( newElement);	}

  0002d	89 46 08	 mov	 DWORD PTR [esi+8], eax
  00030	5e		 pop	 esi
  00031	5d		 pop	 ebp
  00032	c2 04 00	 ret	 4
?AddTail@CIPacketList000000@@UAEPAU__POSITION@@PAUIPacket000000@@@Z ENDP ; CIPacketList000000::AddTail
_TEXT	ENDS
; Function compile flags: /Ogtp
; File D:\git\src\IBK\IBK_DRFN\ProjSrc\SrcChartEx\ChartOCX\AddInManager\Include_AddIn\I000000\_IPacketList.h
; File C:\Program Files (x86)\Microsoft Visual Studio\2019\Community\VC\Tools\MSVC\14.29.30133\atlmfc\include\afxtempl.h
; File D:\git\src\IBK\IBK_DRFN\ProjSrc\SrcChartEx\ChartOCX\AddInManager\Include_AddIn\I000000\_IPacketList.h
; File C:\Program Files (x86)\Microsoft Visual Studio\2019\Community\VC\Tools\MSVC\14.29.30133\atlmfc\include\afxtempl.h
; File D:\git\src\IBK\IBK_DRFN\ProjSrc\SrcChartEx\ChartOCX\AddInManager\Include_AddIn\I000000\_IPacketList.h
; File C:\Program Files (x86)\Microsoft Visual Studio\2019\Community\VC\Tools\MSVC\14.29.30133\atlmfc\include\afxtempl.h
; File D:\git\src\IBK\IBK_DRFN\ProjSrc\SrcChartEx\ChartOCX\AddInManager\Include_AddIn\I000000\_IPacketList.h
;	COMDAT ?AddHead@CIPacketList000000@@UAEPAU__POSITION@@PAUIPacket000000@@@Z
_TEXT	SEGMENT
_newElement$ = 8					; size = 4
?AddHead@CIPacketList000000@@UAEPAU__POSITION@@PAUIPacket000000@@@Z PROC ; CIPacketList000000::AddHead, COMDAT
; _this$ = ecx

; 95   : 	virtual POSITION	AddHead(IPacket *newElement)	{	return CIPacketListBase::AddHead( newElement);	}

  00000	55		 push	 ebp
  00001	8b ec		 mov	 ebp, esp
  00003	56		 push	 esi
; File C:\Program Files (x86)\Microsoft Visual Studio\2019\Community\VC\Tools\MSVC\14.29.30133\atlmfc\include\afxtempl.h

; 953  : 	CNode* pNewNode = NewNode(NULL, m_pNodeHead);

  00004	ff 71 e8	 push	 DWORD PTR [ecx-24]
; File D:\git\src\IBK\IBK_DRFN\ProjSrc\SrcChartEx\ChartOCX\AddInManager\Include_AddIn\I000000\_IPacketList.h

; 95   : 	virtual POSITION	AddHead(IPacket *newElement)	{	return CIPacketListBase::AddHead( newElement);	}

  00007	8d 71 e4	 lea	 esi, DWORD PTR [ecx-28]
; File C:\Program Files (x86)\Microsoft Visual Studio\2019\Community\VC\Tools\MSVC\14.29.30133\atlmfc\include\afxtempl.h

; 953  : 	CNode* pNewNode = NewNode(NULL, m_pNodeHead);

  0000a	6a 00		 push	 0
  0000c	8b ce		 mov	 ecx, esi
  0000e	e8 00 00 00 00	 call	 ?NewNode@?$CList@PAUIPacket000000@@PAU1@@@IAEPAUCNode@1@PAU21@0@Z ; CList<IPacket000000 *,IPacket000000 *>::NewNode

; 954  : 	pNewNode->data = newElement;

  00013	8b 4d 08	 mov	 ecx, DWORD PTR _newElement$[ebp]
  00016	89 48 08	 mov	 DWORD PTR [eax+8], ecx

; 955  : 	if (m_pNodeHead != NULL)

  00019	8b 4e 04	 mov	 ecx, DWORD PTR [esi+4]
  0001c	85 c9		 test	 ecx, ecx
  0001e	74 0b		 je	 SHORT $LN4@AddHead

; 956  : 		m_pNodeHead->pPrev = pNewNode;

  00020	89 41 04	 mov	 DWORD PTR [ecx+4], eax
; File D:\git\src\IBK\IBK_DRFN\ProjSrc\SrcChartEx\ChartOCX\AddInManager\Include_AddIn\I000000\_IPacketList.h

; 95   : 	virtual POSITION	AddHead(IPacket *newElement)	{	return CIPacketListBase::AddHead( newElement);	}

  00023	89 46 04	 mov	 DWORD PTR [esi+4], eax
  00026	5e		 pop	 esi
  00027	5d		 pop	 ebp
  00028	c2 04 00	 ret	 4
$LN4@AddHead:
; File C:\Program Files (x86)\Microsoft Visual Studio\2019\Community\VC\Tools\MSVC\14.29.30133\atlmfc\include\afxtempl.h

; 958  : 		m_pNodeTail = pNewNode;

  0002b	89 46 08	 mov	 DWORD PTR [esi+8], eax
; File D:\git\src\IBK\IBK_DRFN\ProjSrc\SrcChartEx\ChartOCX\AddInManager\Include_AddIn\I000000\_IPacketList.h

; 95   : 	virtual POSITION	AddHead(IPacket *newElement)	{	return CIPacketListBase::AddHead( newElement);	}

  0002e	89 46 04	 mov	 DWORD PTR [esi+4], eax
  00031	5e		 pop	 esi
  00032	5d		 pop	 ebp
  00033	c2 04 00	 ret	 4
?AddHead@CIPacketList000000@@UAEPAU__POSITION@@PAUIPacket000000@@@Z ENDP ; CIPacketList000000::AddHead
_TEXT	ENDS
; Function compile flags: /Ogtp
; File D:\git\src\IBK\IBK_DRFN\ProjSrc\SrcChartEx\ChartOCX\AddInManager\Include_AddIn\I000000\_IPacketList.h
; File C:\Program Files (x86)\Microsoft Visual Studio\2019\Community\VC\Tools\MSVC\14.29.30133\atlmfc\include\afxtempl.h
; File D:\git\src\IBK\IBK_DRFN\ProjSrc\SrcChartEx\ChartOCX\AddInManager\Include_AddIn\I000000\_IPacketList.h
; File C:\Program Files (x86)\Microsoft Visual Studio\2019\Community\VC\Tools\MSVC\14.29.30133\atlmfc\include\afxtempl.h
; File D:\git\src\IBK\IBK_DRFN\ProjSrc\SrcChartEx\ChartOCX\AddInManager\Include_AddIn\I000000\_IPacketList.h
;	COMDAT ?RemoveTail@CIPacketList000000@@UAEPAUIPacket000000@@XZ
_TEXT	SEGMENT
?RemoveTail@CIPacketList000000@@UAEPAUIPacket000000@@XZ PROC ; CIPacketList000000::RemoveTail, COMDAT
; _this$ = ecx

; 92   : 	virtual IPacket *	RemoveTail()	{	return CIPacketListBase::RemoveTail();	}

  00000	56		 push	 esi
  00001	8b f1		 mov	 esi, ecx
  00003	57		 push	 edi
; File C:\Program Files (x86)\Microsoft Visual Studio\2019\Community\VC\Tools\MSVC\14.29.30133\atlmfc\include\afxtempl.h

; 1028 : 	ENSURE(m_pNodeTail != NULL);  // don't call on empty list !!!

  00004	8b 4e ec	 mov	 ecx, DWORD PTR [esi-20]
  00007	85 c9		 test	 ecx, ecx
  00009	74 5a		 je	 SHORT $LN27@RemoveTail

; 1029 : 	ASSERT(AfxIsValidAddress(m_pNodeTail, sizeof(CNode)));
; 1030 : 
; 1031 : 	CNode* pOldNode = m_pNodeTail;
; 1032 : 	TYPE returnValue = pOldNode->data;
; 1033 : 
; 1034 : 	m_pNodeTail = pOldNode->pPrev;

  0000b	8b 41 04	 mov	 eax, DWORD PTR [ecx+4]
  0000e	8b 79 08	 mov	 edi, DWORD PTR [ecx+8]
  00011	89 46 ec	 mov	 DWORD PTR [esi-20], eax

; 1035 : 	if (m_pNodeTail != NULL)

  00014	85 c0		 test	 eax, eax
  00016	74 08		 je	 SHORT $LN8@RemoveTail

; 1036 : 		m_pNodeTail->pNext = NULL;

  00018	c7 00 00 00 00
	00		 mov	 DWORD PTR [eax], 0
  0001e	eb 07		 jmp	 SHORT $LN9@RemoveTail
$LN8@RemoveTail:

; 1037 : 	else
; 1038 : 		m_pNodeHead = NULL;

  00020	c7 46 e8 00 00
	00 00		 mov	 DWORD PTR [esi-24], 0
$LN9@RemoveTail:

; 938  : 	pNode->pNext = m_pNodeFree;

  00027	8b 46 f4	 mov	 eax, DWORD PTR [esi-12]
  0002a	89 01		 mov	 DWORD PTR [ecx], eax

; 939  : 	m_pNodeFree = pNode;
; 940  : 	m_nCount--;

  0002c	83 46 f0 ff	 add	 DWORD PTR [esi-16], -1
  00030	89 4e f4	 mov	 DWORD PTR [esi-12], ecx

; 941  : 	ASSERT(m_nCount >= 0);  // make sure we don't underflow
; 942  : 
; 943  : 	// if no more elements, cleanup completely
; 944  : 	if (m_nCount == 0)

  00033	75 2b		 jne	 SHORT $LN12@RemoveTail

; 872  : 	m_pBlocks->FreeDataChain();

  00035	8b 4e f8	 mov	 ecx, DWORD PTR [esi-8]
  00038	c7 46 f0 00 00
	00 00		 mov	 DWORD PTR [esi-16], 0
  0003f	c7 46 f4 00 00
	00 00		 mov	 DWORD PTR [esi-12], 0
  00046	c7 46 ec 00 00
	00 00		 mov	 DWORD PTR [esi-20], 0
  0004d	c7 46 e8 00 00
	00 00		 mov	 DWORD PTR [esi-24], 0
  00054	e8 00 00 00 00	 call	 ?FreeDataChain@CPlex@@QAEXXZ ; CPlex::FreeDataChain

; 873  : 	m_pBlocks = NULL;

  00059	c7 46 f8 00 00
	00 00		 mov	 DWORD PTR [esi-8], 0
$LN12@RemoveTail:
; File D:\git\src\IBK\IBK_DRFN\ProjSrc\SrcChartEx\ChartOCX\AddInManager\Include_AddIn\I000000\_IPacketList.h

; 92   : 	virtual IPacket *	RemoveTail()	{	return CIPacketListBase::RemoveTail();	}

  00060	8b c7		 mov	 eax, edi
  00062	5f		 pop	 edi
  00063	5e		 pop	 esi
  00064	c3		 ret	 0
$LN27@RemoveTail:
; File C:\Program Files (x86)\Microsoft Visual Studio\2019\Community\VC\Tools\MSVC\14.29.30133\atlmfc\include\afxtempl.h

; 1028 : 	ENSURE(m_pNodeTail != NULL);  // don't call on empty list !!!

  00065	e8 00 00 00 00	 call	 ?AfxThrowInvalidArgException@@YGXXZ ; AfxThrowInvalidArgException
$LN25@RemoveTail:
  0006a	cc		 int	 3
?RemoveTail@CIPacketList000000@@UAEPAUIPacket000000@@XZ ENDP ; CIPacketList000000::RemoveTail
_TEXT	ENDS
; Function compile flags: /Ogtp
; File D:\git\src\IBK\IBK_DRFN\ProjSrc\SrcChartEx\ChartOCX\AddInManager\Include_AddIn\I000000\_IPacketList.h
; File C:\Program Files (x86)\Microsoft Visual Studio\2019\Community\VC\Tools\MSVC\14.29.30133\atlmfc\include\afxtempl.h
; File D:\git\src\IBK\IBK_DRFN\ProjSrc\SrcChartEx\ChartOCX\AddInManager\Include_AddIn\I000000\_IPacketList.h
; File C:\Program Files (x86)\Microsoft Visual Studio\2019\Community\VC\Tools\MSVC\14.29.30133\atlmfc\include\afxtempl.h
; File D:\git\src\IBK\IBK_DRFN\ProjSrc\SrcChartEx\ChartOCX\AddInManager\Include_AddIn\I000000\_IPacketList.h
;	COMDAT ?RemoveHead@CIPacketList000000@@UAEPAUIPacket000000@@XZ
_TEXT	SEGMENT
?RemoveHead@CIPacketList000000@@UAEPAUIPacket000000@@XZ PROC ; CIPacketList000000::RemoveHead, COMDAT
; _this$ = ecx

; 91   : 	virtual IPacket *	RemoveHead()	{	return CIPacketListBase::RemoveHead();	}

  00000	56		 push	 esi
  00001	8b f1		 mov	 esi, ecx
  00003	57		 push	 edi
; File C:\Program Files (x86)\Microsoft Visual Studio\2019\Community\VC\Tools\MSVC\14.29.30133\atlmfc\include\afxtempl.h

; 1009 : 	ENSURE(m_pNodeHead != NULL);  // don't call on empty list !!!

  00004	8b 4e e8	 mov	 ecx, DWORD PTR [esi-24]
  00007	85 c9		 test	 ecx, ecx
  00009	74 5a		 je	 SHORT $LN27@RemoveHead

; 1010 : 	ASSERT(AfxIsValidAddress(m_pNodeHead, sizeof(CNode)));
; 1011 : 
; 1012 : 	CNode* pOldNode = m_pNodeHead;
; 1013 : 	TYPE returnValue = pOldNode->data;
; 1014 : 
; 1015 : 	m_pNodeHead = pOldNode->pNext;

  0000b	8b 01		 mov	 eax, DWORD PTR [ecx]
  0000d	8b 79 08	 mov	 edi, DWORD PTR [ecx+8]
  00010	89 46 e8	 mov	 DWORD PTR [esi-24], eax

; 1016 : 	if (m_pNodeHead != NULL)

  00013	85 c0		 test	 eax, eax
  00015	74 09		 je	 SHORT $LN8@RemoveHead

; 1017 : 		m_pNodeHead->pPrev = NULL;

  00017	c7 40 04 00 00
	00 00		 mov	 DWORD PTR [eax+4], 0
  0001e	eb 07		 jmp	 SHORT $LN9@RemoveHead
$LN8@RemoveHead:

; 1018 : 	else
; 1019 : 		m_pNodeTail = NULL;

  00020	c7 46 ec 00 00
	00 00		 mov	 DWORD PTR [esi-20], 0
$LN9@RemoveHead:

; 938  : 	pNode->pNext = m_pNodeFree;

  00027	8b 46 f4	 mov	 eax, DWORD PTR [esi-12]
  0002a	89 01		 mov	 DWORD PTR [ecx], eax

; 939  : 	m_pNodeFree = pNode;
; 940  : 	m_nCount--;

  0002c	83 46 f0 ff	 add	 DWORD PTR [esi-16], -1
  00030	89 4e f4	 mov	 DWORD PTR [esi-12], ecx

; 941  : 	ASSERT(m_nCount >= 0);  // make sure we don't underflow
; 942  : 
; 943  : 	// if no more elements, cleanup completely
; 944  : 	if (m_nCount == 0)

  00033	75 2b		 jne	 SHORT $LN12@RemoveHead

; 872  : 	m_pBlocks->FreeDataChain();

  00035	8b 4e f8	 mov	 ecx, DWORD PTR [esi-8]
  00038	c7 46 f0 00 00
	00 00		 mov	 DWORD PTR [esi-16], 0
  0003f	c7 46 f4 00 00
	00 00		 mov	 DWORD PTR [esi-12], 0
  00046	c7 46 ec 00 00
	00 00		 mov	 DWORD PTR [esi-20], 0
  0004d	c7 46 e8 00 00
	00 00		 mov	 DWORD PTR [esi-24], 0
  00054	e8 00 00 00 00	 call	 ?FreeDataChain@CPlex@@QAEXXZ ; CPlex::FreeDataChain

; 873  : 	m_pBlocks = NULL;

  00059	c7 46 f8 00 00
	00 00		 mov	 DWORD PTR [esi-8], 0
$LN12@RemoveHead:
; File D:\git\src\IBK\IBK_DRFN\ProjSrc\SrcChartEx\ChartOCX\AddInManager\Include_AddIn\I000000\_IPacketList.h

; 91   : 	virtual IPacket *	RemoveHead()	{	return CIPacketListBase::RemoveHead();	}

  00060	8b c7		 mov	 eax, edi
  00062	5f		 pop	 edi
  00063	5e		 pop	 esi
  00064	c3		 ret	 0
$LN27@RemoveHead:
; File C:\Program Files (x86)\Microsoft Visual Studio\2019\Community\VC\Tools\MSVC\14.29.30133\atlmfc\include\afxtempl.h

; 1009 : 	ENSURE(m_pNodeHead != NULL);  // don't call on empty list !!!

  00065	e8 00 00 00 00	 call	 ?AfxThrowInvalidArgException@@YGXXZ ; AfxThrowInvalidArgException
$LN25@RemoveHead:
  0006a	cc		 int	 3
?RemoveHead@CIPacketList000000@@UAEPAUIPacket000000@@XZ ENDP ; CIPacketList000000::RemoveHead
_TEXT	ENDS
; Function compile flags: /Ogtp
; File D:\git\src\IBK\IBK_DRFN\ProjSrc\SrcChartEx\ChartOCX\AddInManager\Include_AddIn\I000000\_IPacketList.h
; File C:\Program Files (x86)\Microsoft Visual Studio\2019\Community\VC\Tools\MSVC\14.29.30133\atlmfc\include\afxtempl.h
; File D:\git\src\IBK\IBK_DRFN\ProjSrc\SrcChartEx\ChartOCX\AddInManager\Include_AddIn\I000000\_IPacketList.h
;	COMDAT ?GetTail@CIPacketList000000@@UBEPAUIPacket000000@@XZ
_TEXT	SEGMENT
?GetTail@CIPacketList000000@@UBEPAUIPacket000000@@XZ PROC ; CIPacketList000000::GetTail, COMDAT
; _this$ = ecx
; File C:\Program Files (x86)\Microsoft Visual Studio\2019\Community\VC\Tools\MSVC\14.29.30133\atlmfc\include\afxtempl.h

; 801  : 	{ ENSURE(m_pNodeTail != NULL);

  00000	8b 41 ec	 mov	 eax, DWORD PTR [ecx-20]
  00003	85 c0		 test	 eax, eax
  00005	0f 84 00 00 00
	00		 je	 ?AfxThrowInvalidArgException@@YGXXZ ; AfxThrowInvalidArgException
; File D:\git\src\IBK\IBK_DRFN\ProjSrc\SrcChartEx\ChartOCX\AddInManager\Include_AddIn\I000000\_IPacketList.h

; 87   : 	virtual IPacket *	GetTail() const	{	return CIPacketListBase::GetTail();	}

  0000b	8b 40 08	 mov	 eax, DWORD PTR [eax+8]
  0000e	c3		 ret	 0
?GetTail@CIPacketList000000@@UBEPAUIPacket000000@@XZ ENDP ; CIPacketList000000::GetTail
_TEXT	ENDS
; Function compile flags: /Ogtp
; File D:\git\src\IBK\IBK_DRFN\ProjSrc\SrcChartEx\ChartOCX\AddInManager\Include_AddIn\I000000\_IPacketList.h
; File C:\Program Files (x86)\Microsoft Visual Studio\2019\Community\VC\Tools\MSVC\14.29.30133\atlmfc\include\afxtempl.h
; File D:\git\src\IBK\IBK_DRFN\ProjSrc\SrcChartEx\ChartOCX\AddInManager\Include_AddIn\I000000\_IPacketList.h
;	COMDAT ?GetHead@CIPacketList000000@@UBEPAUIPacket000000@@XZ
_TEXT	SEGMENT
?GetHead@CIPacketList000000@@UBEPAUIPacket000000@@XZ PROC ; CIPacketList000000::GetHead, COMDAT
; _this$ = ecx
; File C:\Program Files (x86)\Microsoft Visual Studio\2019\Community\VC\Tools\MSVC\14.29.30133\atlmfc\include\afxtempl.h

; 793  : 	{ ENSURE(m_pNodeHead != NULL);

  00000	8b 41 e8	 mov	 eax, DWORD PTR [ecx-24]
  00003	85 c0		 test	 eax, eax
  00005	0f 84 00 00 00
	00		 je	 ?AfxThrowInvalidArgException@@YGXXZ ; AfxThrowInvalidArgException
; File D:\git\src\IBK\IBK_DRFN\ProjSrc\SrcChartEx\ChartOCX\AddInManager\Include_AddIn\I000000\_IPacketList.h

; 86   : 	virtual IPacket *	GetHead() const	{	return CIPacketListBase::GetHead();	}

  0000b	8b 40 08	 mov	 eax, DWORD PTR [eax+8]
  0000e	c3		 ret	 0
?GetHead@CIPacketList000000@@UBEPAUIPacket000000@@XZ ENDP ; CIPacketList000000::GetHead
_TEXT	ENDS
; Function compile flags: /Ogtp
; File D:\git\src\IBK\IBK_DRFN\ProjSrc\SrcChartEx\ChartOCX\AddInManager\Include_AddIn\I000000\_IPacketList.h
; File C:\Program Files (x86)\Microsoft Visual Studio\2019\Community\VC\Tools\MSVC\14.29.30133\atlmfc\include\afxtempl.h
; File D:\git\src\IBK\IBK_DRFN\ProjSrc\SrcChartEx\ChartOCX\AddInManager\Include_AddIn\I000000\_IPacketList.h
;	COMDAT ?IsEmpty@CIPacketList000000@@UBEHXZ
_TEXT	SEGMENT
?IsEmpty@CIPacketList000000@@UBEHXZ PROC		; CIPacketList000000::IsEmpty, COMDAT
; _this$ = ecx
; File C:\Program Files (x86)\Microsoft Visual Studio\2019\Community\VC\Tools\MSVC\14.29.30133\atlmfc\include\afxtempl.h

; 786  : 	{ return m_nCount == 0; }

  00000	33 c0		 xor	 eax, eax
  00002	39 41 f0	 cmp	 DWORD PTR [ecx-16], eax
  00005	0f 94 c0	 sete	 al
; File D:\git\src\IBK\IBK_DRFN\ProjSrc\SrcChartEx\ChartOCX\AddInManager\Include_AddIn\I000000\_IPacketList.h

; 83   : 	virtual BOOL	IsEmpty() const		{	return CIPacketListBase::IsEmpty();	}

  00008	c3		 ret	 0
?IsEmpty@CIPacketList000000@@UBEHXZ ENDP		; CIPacketList000000::IsEmpty
_TEXT	ENDS
; Function compile flags: /Ogtp
; File D:\git\src\IBK\IBK_DRFN\ProjSrc\SrcChartEx\ChartOCX\AddInManager\Include_AddIn\I000000\_IPacketList.h
;	COMDAT ?GetCount@CIPacketList000000@@UBEHXZ
_TEXT	SEGMENT
?GetCount@CIPacketList000000@@UBEHXZ PROC		; CIPacketList000000::GetCount, COMDAT
; _this$ = ecx

; 82   : 	virtual int		GetCount() const	{	return CIPacketListBase::GetCount();	}

  00000	8b 41 f0	 mov	 eax, DWORD PTR [ecx-16]
  00003	c3		 ret	 0
?GetCount@CIPacketList000000@@UBEHXZ ENDP		; CIPacketList000000::GetCount
_TEXT	ENDS
; Function compile flags: /Ogtp
; File D:\git\src\IBK\IBK_DRFN\ProjSrc\SrcChartEx\ChartOCX\AddInManager\Include_AddIn\I000000\_IPacketList.h
;	COMDAT ?QueryInterface@CIPacketList000000@@MAGJABU_GUID@@PAPAX@Z
_TEXT	SEGMENT
_this$ = 8						; size = 4
_iid$ = 12						; size = 4
_ppvObject$ = 16					; size = 4
?QueryInterface@CIPacketList000000@@MAGJABU_GUID@@PAPAX@Z PROC ; CIPacketList000000::QueryInterface, COMDAT

; 77   : 	virtual HRESULT	STDMETHODCALLTYPE QueryInterface( REFIID iid, void ** ppvObject)	{	return E_NOINTERFACE;	}

  00000	b8 02 40 00 80	 mov	 eax, -2147467262	; 80004002H
  00005	c2 0c 00	 ret	 12			; 0000000cH
?QueryInterface@CIPacketList000000@@MAGJABU_GUID@@PAPAX@Z ENDP ; CIPacketList000000::QueryInterface
_TEXT	ENDS
; Function compile flags: /Ogtp
; File D:\git\src\IBK\IBK_DRFN\ProjSrc\SrcChartEx\ChartOCX\AddInManager\Include_AddIn\I000000\_IPacketList.h
;	COMDAT ?Release@CIPacketList000000@@MAGKXZ
_TEXT	SEGMENT
_this$ = 8						; size = 4
?Release@CIPacketList000000@@MAGKXZ PROC		; CIPacketList000000::Release, COMDAT

; 76   : 	virtual ULONG	STDMETHODCALLTYPE Release(	void)	{	return 1;	}

  00000	b8 01 00 00 00	 mov	 eax, 1
  00005	c2 04 00	 ret	 4
?Release@CIPacketList000000@@MAGKXZ ENDP		; CIPacketList000000::Release
_TEXT	ENDS
; Function compile flags: /Ogtp
; File D:\git\src\IBK\IBK_DRFN\ProjSrc\SrcChartEx\ChartOCX\AddInManager\Include_AddIn\I000000\_IPacketList.h
;	COMDAT ?AddRef@CIPacketList000000@@MAGKXZ
_TEXT	SEGMENT
_this$ = 8						; size = 4
?AddRef@CIPacketList000000@@MAGKXZ PROC			; CIPacketList000000::AddRef, COMDAT

; 75   : 	virtual ULONG	STDMETHODCALLTYPE AddRef(	void)	{	return 1;	}

  00000	b8 01 00 00 00	 mov	 eax, 1
  00005	c2 04 00	 ret	 4
?AddRef@CIPacketList000000@@MAGKXZ ENDP			; CIPacketList000000::AddRef
_TEXT	ENDS
; Function compile flags: /Ogtp
; File D:\git\src\IBK\IBK_DRFN\ProjSrc\SrcChartEx\ChartOCX\AddInManager\Include_AddIn\I000000\_IPacketList.h
; File C:\Program Files (x86)\Microsoft Visual Studio\2019\Community\VC\Tools\MSVC\14.29.30133\atlmfc\include\afxtempl.h
; File D:\git\src\IBK\IBK_DRFN\ProjSrc\SrcChartEx\ChartOCX\AddInManager\Include_AddIn\I000000\_IPacketList.h
;	COMDAT ??1CIPacketList000000@@UAE@XZ
_TEXT	SEGMENT
__$EHRec$ = -12						; size = 12
??1CIPacketList000000@@UAE@XZ PROC			; CIPacketList000000::~CIPacketList000000, COMDAT
; _this$ = ecx

; 71   : 	~CIPacketList()	{}

  00000	55		 push	 ebp
  00001	8b ec		 mov	 ebp, esp
  00003	6a ff		 push	 -1
  00005	68 00 00 00 00	 push	 __ehhandler$??1CIPacketList000000@@UAE@XZ
  0000a	64 a1 00 00 00
	00		 mov	 eax, DWORD PTR fs:0
  00010	50		 push	 eax
  00011	56		 push	 esi
  00012	a1 00 00 00 00	 mov	 eax, DWORD PTR ___security_cookie
  00017	33 c5		 xor	 eax, ebp
  00019	50		 push	 eax
  0001a	8d 45 f4	 lea	 eax, DWORD PTR __$EHRec$[ebp]
  0001d	64 a3 00 00 00
	00		 mov	 DWORD PTR fs:0, eax
  00023	8b f1		 mov	 esi, ecx
  00025	c7 46 1c 00 00
	00 00		 mov	 DWORD PTR [esi+28], OFFSET ??_7IPacketList000000@@6B@
; File C:\Program Files (x86)\Microsoft Visual Studio\2019\Community\VC\Tools\MSVC\14.29.30133\atlmfc\include\afxtempl.h

; 872  : 	m_pBlocks->FreeDataChain();

  0002c	8b 4e 14	 mov	 ecx, DWORD PTR [esi+20]

; 878  : {

  0002f	c7 45 fc 00 00
	00 00		 mov	 DWORD PTR __$EHRec$[ebp+8], 0
  00036	c7 06 00 00 00
	00		 mov	 DWORD PTR [esi], OFFSET ??_7?$CList@PAUIPacket000000@@PAU1@@@6B@

; 870  : 	m_nCount = 0;

  0003c	c7 46 0c 00 00
	00 00		 mov	 DWORD PTR [esi+12], 0

; 871  : 	m_pNodeHead = m_pNodeTail = m_pNodeFree = NULL;

  00043	c7 46 10 00 00
	00 00		 mov	 DWORD PTR [esi+16], 0
  0004a	c7 46 08 00 00
	00 00		 mov	 DWORD PTR [esi+8], 0
  00051	c7 46 04 00 00
	00 00		 mov	 DWORD PTR [esi+4], 0

; 872  : 	m_pBlocks->FreeDataChain();

  00058	e8 00 00 00 00	 call	 ?FreeDataChain@CPlex@@QAEXXZ ; CPlex::FreeDataChain

; 873  : 	m_pBlocks = NULL;

  0005d	c7 46 14 00 00
	00 00		 mov	 DWORD PTR [esi+20], 0
; File D:\git\src\IBK\IBK_DRFN\ProjSrc\SrcChartEx\ChartOCX\AddInManager\Include_AddIn\I000000\_IPacketList.h

; 71   : 	~CIPacketList()	{}

  00064	8b 4d f4	 mov	 ecx, DWORD PTR __$EHRec$[ebp]
  00067	64 89 0d 00 00
	00 00		 mov	 DWORD PTR fs:0, ecx
  0006e	59		 pop	 ecx
  0006f	5e		 pop	 esi
  00070	8b e5		 mov	 esp, ebp
  00072	5d		 pop	 ebp
  00073	c3		 ret	 0
  00074	cc		 int	 3
  00075	cc		 int	 3
  00076	cc		 int	 3
  00077	cc		 int	 3
  00078	cc		 int	 3
_TEXT	ENDS
;	COMDAT text$x
text$x	SEGMENT
__ehhandler$??1CIPacketList000000@@UAE@XZ:
  00000	90		 npad	 1
  00001	90		 npad	 1
  00002	8b 54 24 08	 mov	 edx, DWORD PTR [esp+8]
  00006	8d 42 0c	 lea	 eax, DWORD PTR [edx+12]
  00009	8b 4a f8	 mov	 ecx, DWORD PTR [edx-8]
  0000c	33 c8		 xor	 ecx, eax
  0000e	e8 00 00 00 00	 call	 @__security_check_cookie@4
  00013	b8 00 00 00 00	 mov	 eax, OFFSET __ehfuncinfo$??1CIPacketList000000@@UAE@XZ
  00018	e9 00 00 00 00	 jmp	 ___CxxFrameHandler3
text$x	ENDS
??1CIPacketList000000@@UAE@XZ ENDP			; CIPacketList000000::~CIPacketList000000
; Function compile flags: /Ogtp
; File C:\Program Files (x86)\Microsoft Visual Studio\2019\Community\VC\Tools\MSVC\14.29.30133\atlmfc\include\afxtempl.h
; File C:\Program Files (x86)\Microsoft Visual Studio\2019\Community\VC\Tools\MSVC\14.29.30133\atlmfc\include\afx.inl
;	COMDAT ??_G?$CList@PAUIPacket000000@@PAU1@@@UAEPAXI@Z
_TEXT	SEGMENT
__$EHRec$ = -12						; size = 12
___flags$ = 8						; size = 4
??_G?$CList@PAUIPacket000000@@PAU1@@@UAEPAXI@Z PROC	; CList<IPacket000000 *,IPacket000000 *>::`scalar deleting destructor', COMDAT
; _this$ = ecx
  00000	55		 push	 ebp
  00001	8b ec		 mov	 ebp, esp
  00003	6a ff		 push	 -1
  00005	68 00 00 00 00	 push	 __ehhandler$??_G?$CList@PAUIPacket000000@@PAU1@@@UAEPAXI@Z
  0000a	64 a1 00 00 00
	00		 mov	 eax, DWORD PTR fs:0
  00010	50		 push	 eax
  00011	56		 push	 esi
  00012	a1 00 00 00 00	 mov	 eax, DWORD PTR ___security_cookie
  00017	33 c5		 xor	 eax, ebp
  00019	50		 push	 eax
  0001a	8d 45 f4	 lea	 eax, DWORD PTR __$EHRec$[ebp]
  0001d	64 a3 00 00 00
	00		 mov	 DWORD PTR fs:0, eax
  00023	8b f1		 mov	 esi, ecx
; File C:\Program Files (x86)\Microsoft Visual Studio\2019\Community\VC\Tools\MSVC\14.29.30133\atlmfc\include\afxtempl.h

; 872  : 	m_pBlocks->FreeDataChain();

  00025	8b 4e 14	 mov	 ecx, DWORD PTR [esi+20]

; 878  : {

  00028	c7 45 fc 00 00
	00 00		 mov	 DWORD PTR __$EHRec$[ebp+8], 0
  0002f	c7 06 00 00 00
	00		 mov	 DWORD PTR [esi], OFFSET ??_7?$CList@PAUIPacket000000@@PAU1@@@6B@

; 870  : 	m_nCount = 0;

  00035	c7 46 0c 00 00
	00 00		 mov	 DWORD PTR [esi+12], 0

; 871  : 	m_pNodeHead = m_pNodeTail = m_pNodeFree = NULL;

  0003c	c7 46 10 00 00
	00 00		 mov	 DWORD PTR [esi+16], 0
  00043	c7 46 08 00 00
	00 00		 mov	 DWORD PTR [esi+8], 0
  0004a	c7 46 04 00 00
	00 00		 mov	 DWORD PTR [esi+4], 0

; 872  : 	m_pBlocks->FreeDataChain();

  00051	e8 00 00 00 00	 call	 ?FreeDataChain@CPlex@@QAEXXZ ; CPlex::FreeDataChain

; 873  : 	m_pBlocks = NULL;

  00056	8b 45 08	 mov	 eax, DWORD PTR ___flags$[ebp]
  00059	c7 46 14 00 00
	00 00		 mov	 DWORD PTR [esi+20], 0
  00060	a8 01		 test	 al, 1
  00062	74 2c		 je	 SHORT $LN22@scalar
  00064	a8 04		 test	 al, 4
  00066	75 1d		 jne	 SHORT $LN3@scalar
; File C:\Program Files (x86)\Microsoft Visual Studio\2019\Community\VC\Tools\MSVC\14.29.30133\atlmfc\include\afx.inl

; 112  : 	{ ::operator delete(p); }

  00068	56		 push	 esi
  00069	e8 00 00 00 00	 call	 ??3@YAXPAX@Z		; operator delete
  0006e	83 c4 04	 add	 esp, 4
  00071	8b c6		 mov	 eax, esi
  00073	8b 4d f4	 mov	 ecx, DWORD PTR __$EHRec$[ebp]
  00076	64 89 0d 00 00
	00 00		 mov	 DWORD PTR fs:0, ecx
  0007d	59		 pop	 ecx
  0007e	5e		 pop	 esi
  0007f	8b e5		 mov	 esp, ebp
  00081	5d		 pop	 ebp
  00082	c2 04 00	 ret	 4
$LN3@scalar:
  00085	6a 1c		 push	 28			; 0000001cH
  00087	56		 push	 esi
  00088	e8 00 00 00 00	 call	 ?__global_delete@@YAXPAXI@Z ; __global_delete
  0008d	83 c4 08	 add	 esp, 8
$LN22@scalar:
  00090	8b c6		 mov	 eax, esi
  00092	8b 4d f4	 mov	 ecx, DWORD PTR __$EHRec$[ebp]
  00095	64 89 0d 00 00
	00 00		 mov	 DWORD PTR fs:0, ecx
  0009c	59		 pop	 ecx
  0009d	5e		 pop	 esi
  0009e	8b e5		 mov	 esp, ebp
  000a0	5d		 pop	 ebp
  000a1	c2 04 00	 ret	 4
  000a4	cc		 int	 3
  000a5	cc		 int	 3
  000a6	cc		 int	 3
  000a7	cc		 int	 3
  000a8	cc		 int	 3
_TEXT	ENDS
;	COMDAT text$x
text$x	SEGMENT
__ehhandler$??_G?$CList@PAUIPacket000000@@PAU1@@@UAEPAXI@Z:
  00000	90		 npad	 1
  00001	90		 npad	 1
  00002	8b 54 24 08	 mov	 edx, DWORD PTR [esp+8]
  00006	8d 42 0c	 lea	 eax, DWORD PTR [edx+12]
  00009	8b 4a f8	 mov	 ecx, DWORD PTR [edx-8]
  0000c	33 c8		 xor	 ecx, eax
  0000e	e8 00 00 00 00	 call	 @__security_check_cookie@4
  00013	b8 00 00 00 00	 mov	 eax, OFFSET __ehfuncinfo$??_G?$CList@PAUIPacket000000@@PAU1@@@UAEPAXI@Z
  00018	e9 00 00 00 00	 jmp	 ___CxxFrameHandler3
text$x	ENDS
??_G?$CList@PAUIPacket000000@@PAU1@@@UAEPAXI@Z ENDP	; CList<IPacket000000 *,IPacket000000 *>::`scalar deleting destructor'
; Function compile flags: /Ogtp
; File C:\Program Files (x86)\Microsoft Visual Studio\2019\Community\VC\Tools\MSVC\14.29.30133\atlmfc\include\afxtempl.h
; File C:\Program Files (x86)\Microsoft Visual Studio\2019\Community\VC\Tools\MSVC\14.29.30133\atlmfc\include\afx.inl
; File C:\Program Files (x86)\Microsoft Visual Studio\2019\Community\VC\Tools\MSVC\14.29.30133\atlmfc\include\afxtempl.h
; File C:\Program Files (x86)\Microsoft Visual Studio\2019\Community\VC\Tools\MSVC\14.29.30133\atlmfc\include\afx.inl
; File C:\Program Files (x86)\Microsoft Visual Studio\2019\Community\VC\Tools\MSVC\14.29.30133\atlmfc\include\afxtempl.h
; File C:\Program Files (x86)\Microsoft Visual Studio\2019\Community\VC\Tools\MSVC\14.29.30133\atlmfc\include\afx.inl
; File C:\Program Files (x86)\Microsoft Visual Studio\2019\Community\VC\Tools\MSVC\14.29.30133\atlmfc\include\afxtempl.h
; File C:\Program Files (x86)\Microsoft Visual Studio\2019\Community\VC\Tools\MSVC\14.29.30133\atlmfc\include\afx.inl
; File C:\Program Files (x86)\Microsoft Visual Studio\2019\Community\VC\Tools\MSVC\14.29.30133\atlmfc\include\afxtempl.h
; File C:\Program Files (x86)\Microsoft Visual Studio\2019\Community\VC\Tools\MSVC\14.29.30133\atlmfc\include\afx.inl
; File C:\Program Files (x86)\Microsoft Visual Studio\2019\Community\VC\Tools\MSVC\14.29.30133\atlmfc\include\afxtempl.h
; File C:\Program Files (x86)\Microsoft Visual Studio\2019\Community\VC\Tools\MSVC\14.29.30133\atlmfc\include\afx.inl
; File C:\Program Files (x86)\Microsoft Visual Studio\2019\Community\VC\Tools\MSVC\14.29.30133\atlmfc\include\afxtempl.h
;	COMDAT ?Serialize@?$CList@PAUIPacket000000@@PAU1@@@UAEXAAVCArchive@@@Z
_TEXT	SEGMENT
_nNewCount$1$ = -16					; size = 4
_newData$1 = -12					; size = 4
_pData$1$ = -8						; size = 4
_pData$1$ = -8						; size = 4
_pNode$1$ = -8						; size = 4
_nElementsLeft$1$ = -4					; size = 4
_this$1$ = -4						; size = 4
_ar$ = 8						; size = 4
?Serialize@?$CList@PAUIPacket000000@@PAU1@@@UAEXAAVCArchive@@@Z PROC ; CList<IPacket000000 *,IPacket000000 *>::Serialize, COMDAT
; _this$ = ecx

; 1169 : {

  00000	55		 push	 ebp
  00001	8b ec		 mov	 ebp, esp
  00003	83 ec 10	 sub	 esp, 16			; 00000010H
  00006	53		 push	 ebx
  00007	8b d9		 mov	 ebx, ecx
; File C:\Program Files (x86)\Microsoft Visual Studio\2019\Community\VC\Tools\MSVC\14.29.30133\atlmfc\include\afx.inl

; 212  : 	{ return (m_nMode & CArchive::load) == 0; }

  00009	8b 4d 08	 mov	 ecx, DWORD PTR _ar$[ebp]
; File C:\Program Files (x86)\Microsoft Visual Studio\2019\Community\VC\Tools\MSVC\14.29.30133\atlmfc\include\afxtempl.h

; 1169 : {

  0000c	56		 push	 esi
  0000d	57		 push	 edi
  0000e	89 5d fc	 mov	 DWORD PTR _this$1$[ebp], ebx
; File C:\Program Files (x86)\Microsoft Visual Studio\2019\Community\VC\Tools\MSVC\14.29.30133\atlmfc\include\afx.inl

; 212  : 	{ return (m_nMode & CArchive::load) == 0; }

  00011	8b 41 18	 mov	 eax, DWORD PTR [ecx+24]
  00014	f7 d0		 not	 eax
  00016	a8 01		 test	 al, 1
; File C:\Program Files (x86)\Microsoft Visual Studio\2019\Community\VC\Tools\MSVC\14.29.30133\atlmfc\include\afxtempl.h

; 1174 : 	if (ar.IsStoring())

  00018	0f 84 ae 00 00
	00		 je	 $LN7@Serialize

; 1175 : 	{
; 1176 : 		ar.WriteCount(m_nCount);

  0001e	ff 73 0c	 push	 DWORD PTR [ebx+12]
  00021	e8 00 00 00 00	 call	 ?WriteCount@CArchive@@QAEXK@Z ; CArchive::WriteCount

; 1177 : 		for (CNode* pNode = m_pNodeHead; pNode != NULL; pNode = pNode->pNext)

  00026	8b 43 04	 mov	 eax, DWORD PTR [ebx+4]
  00029	89 45 f8	 mov	 DWORD PTR _pNode$1$[ebp], eax
  0002c	85 c0		 test	 eax, eax
  0002e	0f 84 b9 01 00
	00		 je	 $LN86@Serialize
$LL4@Serialize:

; 1178 : 		{
; 1179 : 			ASSERT(AfxIsValidAddress(pNode, sizeof(CNode)));
; 1180 : 			TYPE* pData;
; 1181 : 			/*
; 1182 : 			 * in some cases the & operator might be overloaded, and we cannot use it to obtain
; 1183 : 			 * the address of a given object.  We then use the following trick to get the address
; 1184 : 			 */
; 1185 : 			pData = reinterpret_cast< TYPE* >( &reinterpret_cast< int& >( static_cast< TYPE& >( pNode->data ) ) );

  00034	8d 70 08	 lea	 esi, DWORD PTR [eax+8]

; 68   : 	ENSURE(nCount == 0 || pElements != NULL);

  00037	85 f6		 test	 esi, esi
  00039	0f 84 c0 01 00
	00		 je	 $LN76@Serialize
; File C:\Program Files (x86)\Microsoft Visual Studio\2019\Community\VC\Tools\MSVC\14.29.30133\atlmfc\include\afx.inl

; 212  : 	{ return (m_nMode & CArchive::load) == 0; }

  0003f	8b 4d 08	 mov	 ecx, DWORD PTR _ar$[ebp]
  00042	8b 41 18	 mov	 eax, DWORD PTR [ecx+24]
  00045	f7 d0		 not	 eax
  00047	a8 01		 test	 al, 1
; File C:\Program Files (x86)\Microsoft Visual Studio\2019\Community\VC\Tools\MSVC\14.29.30133\atlmfc\include\afxtempl.h

; 73   : 	if (ar.IsStoring())

  00049	74 33		 je	 SHORT $LN21@Serialize

; 74   : 	{
; 75   : 		TYPE* pData;
; 76   : 		UINT_PTR nElementsLeft;
; 77   : 
; 78   : 		nElementsLeft = nCount;

  0004b	b8 01 00 00 00	 mov	 eax, 1
  00050	89 45 fc	 mov	 DWORD PTR _nElementsLeft$1$[ebp], eax
$LL16@Serialize:

; 80   : 		while( nElementsLeft > 0 )
; 81   : 		{
; 82   : 			UINT nElementsToWrite;
; 83   : 
; 84   : 			nElementsToWrite = UINT(__min(nElementsLeft, INT_MAX/sizeof(TYPE)));

  00053	bb ff ff ff 1f	 mov	 ebx, 536870911		; 1fffffffH
  00058	3b c3		 cmp	 eax, ebx
  0005a	0f 42 d8	 cmovb	 ebx, eax

; 85   : 			ar.Write(pData, nElementsToWrite*sizeof(TYPE));

  0005d	8d 3c 9d 00 00
	00 00		 lea	 edi, DWORD PTR [ebx*4]
  00064	57		 push	 edi
  00065	56		 push	 esi
  00066	e8 00 00 00 00	 call	 ?Write@CArchive@@QAEXPBXI@Z ; CArchive::Write

; 86   : 			nElementsLeft -= nElementsToWrite;

  0006b	8b 45 fc	 mov	 eax, DWORD PTR _nElementsLeft$1$[ebp]

; 87   : 			pData += nElementsToWrite;

  0006e	03 f7		 add	 esi, edi
  00070	8b 4d 08	 mov	 ecx, DWORD PTR _ar$[ebp]
  00073	2b c3		 sub	 eax, ebx
  00075	89 45 fc	 mov	 DWORD PTR _nElementsLeft$1$[ebp], eax
  00078	85 c0		 test	 eax, eax
  0007a	75 d7		 jne	 SHORT $LL16@Serialize

; 88   : 		}
; 89   : 	}

  0007c	eb 35		 jmp	 SHORT $LN2@Serialize
$LN21@Serialize:

; 90   : 	else
; 91   : 	{
; 92   : 		TYPE* pData;
; 93   : 		UINT_PTR nElementsLeft;
; 94   : 
; 95   : 		nElementsLeft = nCount;

  0007e	bf 01 00 00 00	 mov	 edi, 1
$LL18@Serialize:

; 98   : 		{
; 99   : 			UINT nElementsToRead;
; 100  : 
; 101  : 			nElementsToRead = UINT(__min(nElementsLeft, INT_MAX/sizeof(TYPE)));

  00083	bb ff ff ff 1f	 mov	 ebx, 536870911		; 1fffffffH
  00088	3b fb		 cmp	 edi, ebx
  0008a	0f 42 df	 cmovb	 ebx, edi

; 102  : 			ar.EnsureRead(pData, nElementsToRead*sizeof(TYPE));

  0008d	8d 04 9d 00 00
	00 00		 lea	 eax, DWORD PTR [ebx*4]
; File C:\Program Files (x86)\Microsoft Visual Studio\2019\Community\VC\Tools\MSVC\14.29.30133\atlmfc\include\afx.inl

; 399  : 	UINT nRead=Read(lpBuf, nCount);

  00094	50		 push	 eax
  00095	56		 push	 esi
  00096	e8 00 00 00 00	 call	 ?Read@CArchive@@QAEIPAXI@Z ; CArchive::Read

; 400  : 	if(nRead!=nCount)

  0009b	8d 0c 9d 00 00
	00 00		 lea	 ecx, DWORD PTR [ebx*4]
  000a2	3b c1		 cmp	 eax, ecx
  000a4	0f 85 4c 01 00
	00		 jne	 $LN75@Serialize
; File C:\Program Files (x86)\Microsoft Visual Studio\2019\Community\VC\Tools\MSVC\14.29.30133\atlmfc\include\afxtempl.h

; 97   : 		while( nElementsLeft > 0 )

  000aa	03 f1		 add	 esi, ecx
  000ac	8b 4d 08	 mov	 ecx, DWORD PTR _ar$[ebp]

; 103  : 			nElementsLeft -= nElementsToRead;

  000af	2b fb		 sub	 edi, ebx
  000b1	75 d0		 jne	 SHORT $LL18@Serialize
$LN2@Serialize:

; 1177 : 		for (CNode* pNode = m_pNodeHead; pNode != NULL; pNode = pNode->pNext)

  000b3	8b 45 f8	 mov	 eax, DWORD PTR _pNode$1$[ebp]
  000b6	8b 00		 mov	 eax, DWORD PTR [eax]
  000b8	89 45 f8	 mov	 DWORD PTR _pNode$1$[ebp], eax
  000bb	85 c0		 test	 eax, eax
  000bd	0f 85 71 ff ff
	ff		 jne	 $LL4@Serialize

; 1197 : 		}
; 1198 : 	}
; 1199 : }

  000c3	5f		 pop	 edi
  000c4	5e		 pop	 esi
  000c5	5b		 pop	 ebx
  000c6	8b e5		 mov	 esp, ebp
  000c8	5d		 pop	 ebp
  000c9	c2 04 00	 ret	 4
$LN7@Serialize:

; 1186 : 			SerializeElements<TYPE>(ar, pData, 1);
; 1187 : 		}
; 1188 : 	}
; 1189 : 	else
; 1190 : 	{
; 1191 : 		DWORD_PTR nNewCount = ar.ReadCount();

  000cc	e8 00 00 00 00	 call	 ?ReadCount@CArchive@@QAEKXZ ; CArchive::ReadCount

; 1192 : 		while (nNewCount--)

  000d1	85 c0		 test	 eax, eax
  000d3	0f 84 14 01 00
	00		 je	 $LN86@Serialize
  000d9	0f 1f 80 00 00
	00 00		 npad	 7
$LL5@Serialize:
  000e0	48		 dec	 eax
  000e1	89 45 f0	 mov	 DWORD PTR _nNewCount$1$[ebp], eax
; File C:\Program Files (x86)\Microsoft Visual Studio\2019\Community\VC\Tools\MSVC\14.29.30133\atlmfc\include\afx.inl

; 212  : 	{ return (m_nMode & CArchive::load) == 0; }

  000e4	8b 45 08	 mov	 eax, DWORD PTR _ar$[ebp]
  000e7	8b 48 18	 mov	 ecx, DWORD PTR [eax+24]
  000ea	f7 d1		 not	 ecx
  000ec	f6 c1 01	 test	 cl, 1
; File C:\Program Files (x86)\Microsoft Visual Studio\2019\Community\VC\Tools\MSVC\14.29.30133\atlmfc\include\afxtempl.h

; 73   : 	if (ar.IsStoring())

  000ef	74 3d		 je	 SHORT $LN42@Serialize

; 79   : 		pData = pElements;

  000f1	8d 4d f4	 lea	 ecx, DWORD PTR _newData$1[ebp]
  000f4	bb 01 00 00 00	 mov	 ebx, 1
  000f9	89 4d f8	 mov	 DWORD PTR _pData$1$[ebp], ecx
  000fc	0f 1f 40 00	 npad	 4
$LL37@Serialize:

; 80   : 		while( nElementsLeft > 0 )
; 81   : 		{
; 82   : 			UINT nElementsToWrite;
; 83   : 
; 84   : 			nElementsToWrite = UINT(__min(nElementsLeft, INT_MAX/sizeof(TYPE)));

  00100	bf ff ff ff 1f	 mov	 edi, 536870911		; 1fffffffH
  00105	3b df		 cmp	 ebx, edi
  00107	0f 42 fb	 cmovb	 edi, ebx

; 85   : 			ar.Write(pData, nElementsToWrite*sizeof(TYPE));

  0010a	8d 34 bd 00 00
	00 00		 lea	 esi, DWORD PTR [edi*4]
  00111	56		 push	 esi
  00112	51		 push	 ecx
  00113	8b c8		 mov	 ecx, eax
  00115	e8 00 00 00 00	 call	 ?Write@CArchive@@QAEXPBXI@Z ; CArchive::Write

; 87   : 			pData += nElementsToWrite;

  0011a	8b 4d f8	 mov	 ecx, DWORD PTR _pData$1$[ebp]
  0011d	8b 45 08	 mov	 eax, DWORD PTR _ar$[ebp]
  00120	03 ce		 add	 ecx, esi
  00122	89 4d f8	 mov	 DWORD PTR _pData$1$[ebp], ecx
  00125	2b df		 sub	 ebx, edi
  00127	75 d7		 jne	 SHORT $LL37@Serialize

; 88   : 		}
; 89   : 	}

  00129	8b 5d fc	 mov	 ebx, DWORD PTR _this$1$[ebp]
  0012c	eb 4a		 jmp	 SHORT $LN40@Serialize
$LN42@Serialize:

; 96   : 		pData = pElements;

  0012e	8d 55 f4	 lea	 edx, DWORD PTR _newData$1[ebp]
  00131	be 01 00 00 00	 mov	 esi, 1
  00136	89 55 f8	 mov	 DWORD PTR _pData$1$[ebp], edx
  00139	0f 1f 80 00 00
	00 00		 npad	 7
$LL39@Serialize:

; 98   : 		{
; 99   : 			UINT nElementsToRead;
; 100  : 
; 101  : 			nElementsToRead = UINT(__min(nElementsLeft, INT_MAX/sizeof(TYPE)));

  00140	bf ff ff ff 1f	 mov	 edi, 536870911		; 1fffffffH
  00145	3b f7		 cmp	 esi, edi
  00147	0f 42 fe	 cmovb	 edi, esi

; 102  : 			ar.EnsureRead(pData, nElementsToRead*sizeof(TYPE));

  0014a	8d 0c bd 00 00
	00 00		 lea	 ecx, DWORD PTR [edi*4]
; File C:\Program Files (x86)\Microsoft Visual Studio\2019\Community\VC\Tools\MSVC\14.29.30133\atlmfc\include\afx.inl

; 399  : 	UINT nRead=Read(lpBuf, nCount);

  00151	51		 push	 ecx
  00152	52		 push	 edx
  00153	8b c8		 mov	 ecx, eax
  00155	e8 00 00 00 00	 call	 ?Read@CArchive@@QAEIPAXI@Z ; CArchive::Read

; 400  : 	if(nRead!=nCount)

  0015a	8d 0c bd 00 00
	00 00		 lea	 ecx, DWORD PTR [edi*4]
  00161	3b c1		 cmp	 eax, ecx
  00163	0f 85 8d 00 00
	00		 jne	 $LN75@Serialize
; File C:\Program Files (x86)\Microsoft Visual Studio\2019\Community\VC\Tools\MSVC\14.29.30133\atlmfc\include\afxtempl.h

; 97   : 		while( nElementsLeft > 0 )

  00169	8b 55 f8	 mov	 edx, DWORD PTR _pData$1$[ebp]
  0016c	8b 45 08	 mov	 eax, DWORD PTR _ar$[ebp]

; 104  : 			pData += nElementsToRead;

  0016f	03 d1		 add	 edx, ecx
  00171	89 55 f8	 mov	 DWORD PTR _pData$1$[ebp], edx
  00174	2b f7		 sub	 esi, edi
  00176	75 c8		 jne	 SHORT $LL39@Serialize
$LN40@Serialize:

; 902  : 	if (m_pNodeFree == NULL)

  00178	83 7b 10 00	 cmp	 DWORD PTR [ebx+16], 0

; 1193 : 		{
; 1194 : 			TYPE newData[1];
; 1195 : 			SerializeElements<TYPE>(ar, newData, 1);
; 1196 : 			AddTail(newData[0]);

  0017c	8b 75 f4	 mov	 esi, DWORD PTR _newData$1[ebp]

; 968  : 	CNode* pNewNode = NewNode(m_pNodeTail, NULL);

  0017f	8b 7b 08	 mov	 edi, DWORD PTR [ebx+8]

; 902  : 	if (m_pNodeFree == NULL)

  00182	75 32		 jne	 SHORT $LN63@Serialize

; 903  : 	{
; 904  : 		// add another block
; 905  : 		CPlex* pNewBlock = CPlex::Create(m_pBlocks, m_nBlockSize,

  00184	6a 0c		 push	 12			; 0000000cH
  00186	ff 73 18	 push	 DWORD PTR [ebx+24]
  00189	8d 43 14	 lea	 eax, DWORD PTR [ebx+20]
  0018c	50		 push	 eax
  0018d	e8 00 00 00 00	 call	 ?Create@CPlex@@SGPAU1@AAPAU1@II@Z ; CPlex::Create

; 906  : 				 sizeof(CNode));
; 907  : 
; 908  : 		// chain them into free list
; 909  : 		CNode* pNode = (CNode*) pNewBlock->data();
; 910  : 		// free in reverse order to make it easier to debug
; 911  : 		pNode += m_nBlockSize - 1;

  00192	8b 53 18	 mov	 edx, DWORD PTR [ebx+24]
  00195	83 c0 08	 add	 eax, 8
  00198	8d 4a ff	 lea	 ecx, DWORD PTR [edx-1]

; 912  : 		for (INT_PTR i = m_nBlockSize-1; i >= 0; i--, pNode--)

  0019b	83 c2 ff	 add	 edx, -1
  0019e	8d 0c 49	 lea	 ecx, DWORD PTR [ecx+ecx*2]
  001a1	8d 0c 88	 lea	 ecx, DWORD PTR [eax+ecx*4]
  001a4	78 10		 js	 SHORT $LN63@Serialize
$LL60@Serialize:

; 913  : 		{
; 914  : 			pNode->pNext = m_pNodeFree;

  001a6	8b 43 10	 mov	 eax, DWORD PTR [ebx+16]
  001a9	89 01		 mov	 DWORD PTR [ecx], eax

; 915  : 			m_pNodeFree = pNode;

  001ab	89 4b 10	 mov	 DWORD PTR [ebx+16], ecx
  001ae	83 e9 0c	 sub	 ecx, 12			; 0000000cH
  001b1	83 ea 01	 sub	 edx, 1
  001b4	79 f0		 jns	 SHORT $LL60@Serialize
$LN63@Serialize:

; 916  : 		}
; 917  : 	}
; 918  : 	ENSURE(m_pNodeFree != NULL);  // we must have something

  001b6	8b 4b 10	 mov	 ecx, DWORD PTR [ebx+16]
  001b9	85 c9		 test	 ecx, ecx
  001bb	74 42		 je	 SHORT $LN76@Serialize

; 919  : 
; 920  : 	CList::CNode* pNode = m_pNodeFree;
; 921  : 	m_pNodeFree = m_pNodeFree->pNext;

  001bd	8b 01		 mov	 eax, DWORD PTR [ecx]
  001bf	89 43 10	 mov	 DWORD PTR [ebx+16], eax

; 922  : 	pNode->pPrev = pPrev;

  001c2	89 79 04	 mov	 DWORD PTR [ecx+4], edi

; 923  : 	pNode->pNext = pNext;

  001c5	c7 01 00 00 00
	00		 mov	 DWORD PTR [ecx], 0

; 924  : 	m_nCount++;

  001cb	ff 43 0c	 inc	 DWORD PTR [ebx+12]

; 969  : 	pNewNode->data = newElement;

  001ce	89 71 08	 mov	 DWORD PTR [ecx+8], esi

; 970  : 	if (m_pNodeTail != NULL)

  001d1	8b 43 08	 mov	 eax, DWORD PTR [ebx+8]
  001d4	85 c0		 test	 eax, eax
  001d6	74 04		 je	 SHORT $LN54@Serialize

; 971  : 		m_pNodeTail->pNext = pNewNode;

  001d8	89 08		 mov	 DWORD PTR [eax], ecx
  001da	eb 03		 jmp	 SHORT $LN55@Serialize
$LN54@Serialize:

; 972  : 	else
; 973  : 		m_pNodeHead = pNewNode;

  001dc	89 4b 04	 mov	 DWORD PTR [ebx+4], ecx
$LN55@Serialize:

; 1192 : 		while (nNewCount--)

  001df	8b 45 f0	 mov	 eax, DWORD PTR _nNewCount$1$[ebp]

; 974  : 	m_pNodeTail = pNewNode;

  001e2	89 4b 08	 mov	 DWORD PTR [ebx+8], ecx

; 1192 : 		while (nNewCount--)

  001e5	85 c0		 test	 eax, eax
  001e7	0f 85 f3 fe ff
	ff		 jne	 $LL5@Serialize
$LN86@Serialize:
  001ed	5f		 pop	 edi

; 1197 : 		}
; 1198 : 	}
; 1199 : }

  001ee	5e		 pop	 esi
  001ef	5b		 pop	 ebx
  001f0	8b e5		 mov	 esp, ebp
  001f2	5d		 pop	 ebp
  001f3	c2 04 00	 ret	 4
$LN75@Serialize:
  001f6	6a 00		 push	 0
  001f8	6a 03		 push	 3
  001fa	e8 00 00 00 00	 call	 ?AfxThrowArchiveException@@YGXHPBD@Z ; AfxThrowArchiveException
$LN76@Serialize:
  001ff	e8 00 00 00 00	 call	 ?AfxThrowInvalidArgException@@YGXXZ ; AfxThrowInvalidArgException
$LN105@Serialize:
  00204	cc		 int	 3
?Serialize@?$CList@PAUIPacket000000@@PAU1@@@UAEXAAVCArchive@@@Z ENDP ; CList<IPacket000000 *,IPacket000000 *>::Serialize
_TEXT	ENDS
; Function compile flags: /Ogtp
; File C:\Program Files (x86)\Microsoft Visual Studio\2019\Community\VC\Tools\MSVC\14.29.30133\atlmfc\include\afxtempl.h
;	COMDAT ??1?$CList@PAUIPacket000000@@PAU1@@@UAE@XZ
_TEXT	SEGMENT
__$EHRec$ = -12						; size = 12
??1?$CList@PAUIPacket000000@@PAU1@@@UAE@XZ PROC		; CList<IPacket000000 *,IPacket000000 *>::~CList<IPacket000000 *,IPacket000000 *>, COMDAT
; _this$ = ecx

; 878  : {

  00000	55		 push	 ebp
  00001	8b ec		 mov	 ebp, esp
  00003	6a ff		 push	 -1
  00005	68 00 00 00 00	 push	 __ehhandler$??1?$CList@PAUIPacket000000@@PAU1@@@UAE@XZ
  0000a	64 a1 00 00 00
	00		 mov	 eax, DWORD PTR fs:0
  00010	50		 push	 eax
  00011	56		 push	 esi
  00012	a1 00 00 00 00	 mov	 eax, DWORD PTR ___security_cookie
  00017	33 c5		 xor	 eax, ebp
  00019	50		 push	 eax
  0001a	8d 45 f4	 lea	 eax, DWORD PTR __$EHRec$[ebp]
  0001d	64 a3 00 00 00
	00		 mov	 DWORD PTR fs:0, eax
  00023	8b f1		 mov	 esi, ecx

; 872  : 	m_pBlocks->FreeDataChain();

  00025	8b 4e 14	 mov	 ecx, DWORD PTR [esi+20]

; 878  : {

  00028	c7 06 00 00 00
	00		 mov	 DWORD PTR [esi], OFFSET ??_7?$CList@PAUIPacket000000@@PAU1@@@6B@

; 870  : 	m_nCount = 0;

  0002e	c7 46 0c 00 00
	00 00		 mov	 DWORD PTR [esi+12], 0

; 871  : 	m_pNodeHead = m_pNodeTail = m_pNodeFree = NULL;

  00035	c7 46 10 00 00
	00 00		 mov	 DWORD PTR [esi+16], 0
  0003c	c7 46 08 00 00
	00 00		 mov	 DWORD PTR [esi+8], 0
  00043	c7 46 04 00 00
	00 00		 mov	 DWORD PTR [esi+4], 0

; 872  : 	m_pBlocks->FreeDataChain();

  0004a	e8 00 00 00 00	 call	 ?FreeDataChain@CPlex@@QAEXXZ ; CPlex::FreeDataChain

; 873  : 	m_pBlocks = NULL;

  0004f	c7 46 14 00 00
	00 00		 mov	 DWORD PTR [esi+20], 0

; 879  : 	RemoveAll();
; 880  : 	ASSERT(m_nCount == 0);
; 881  : }

  00056	8b 4d f4	 mov	 ecx, DWORD PTR __$EHRec$[ebp]
  00059	64 89 0d 00 00
	00 00		 mov	 DWORD PTR fs:0, ecx
  00060	59		 pop	 ecx
  00061	5e		 pop	 esi
  00062	8b e5		 mov	 esp, ebp
  00064	5d		 pop	 ebp
  00065	c3		 ret	 0
  00066	cc		 int	 3
  00067	cc		 int	 3
  00068	cc		 int	 3
  00069	cc		 int	 3
  0006a	cc		 int	 3
_TEXT	ENDS
;	COMDAT text$x
text$x	SEGMENT
__ehhandler$??1?$CList@PAUIPacket000000@@PAU1@@@UAE@XZ:
  00000	90		 npad	 1
  00001	90		 npad	 1
  00002	8b 54 24 08	 mov	 edx, DWORD PTR [esp+8]
  00006	8d 42 0c	 lea	 eax, DWORD PTR [edx+12]
  00009	8b 4a f8	 mov	 ecx, DWORD PTR [edx-8]
  0000c	33 c8		 xor	 ecx, eax
  0000e	e8 00 00 00 00	 call	 @__security_check_cookie@4
  00013	b8 00 00 00 00	 mov	 eax, OFFSET __ehfuncinfo$??1?$CList@PAUIPacket000000@@PAU1@@@UAE@XZ
  00018	e9 00 00 00 00	 jmp	 ___CxxFrameHandler3
text$x	ENDS
??1?$CList@PAUIPacket000000@@PAU1@@@UAE@XZ ENDP		; CList<IPacket000000 *,IPacket000000 *>::~CList<IPacket000000 *,IPacket000000 *>
; Function compile flags: /Ogtp
; File C:\Program Files (x86)\Microsoft Visual Studio\2019\Community\VC\Tools\MSVC\14.29.30133\atlmfc\include\afxtempl.h
;	COMDAT ?FreeNode@?$CList@PAUIPacket000000@@PAU1@@@IAEXPAUCNode@1@@Z
_TEXT	SEGMENT
_pNode$ = 8						; size = 4
?FreeNode@?$CList@PAUIPacket000000@@PAU1@@@IAEXPAUCNode@1@@Z PROC ; CList<IPacket000000 *,IPacket000000 *>::FreeNode, COMDAT
; _this$ = ecx

; 936  : {

  00000	55		 push	 ebp
  00001	8b ec		 mov	 ebp, esp

; 937  : 	pNode->data.~TYPE();
; 938  : 	pNode->pNext = m_pNodeFree;

  00003	8b 55 08	 mov	 edx, DWORD PTR _pNode$[ebp]
  00006	56		 push	 esi
  00007	8b f1		 mov	 esi, ecx
  00009	8b 46 10	 mov	 eax, DWORD PTR [esi+16]
  0000c	89 02		 mov	 DWORD PTR [edx], eax

; 939  : 	m_pNodeFree = pNode;
; 940  : 	m_nCount--;

  0000e	83 46 0c ff	 add	 DWORD PTR [esi+12], -1
  00012	89 56 10	 mov	 DWORD PTR [esi+16], edx

; 941  : 	ASSERT(m_nCount >= 0);  // make sure we don't underflow
; 942  : 
; 943  : 	// if no more elements, cleanup completely
; 944  : 	if (m_nCount == 0)

  00015	75 2b		 jne	 SHORT $LN2@FreeNode

; 872  : 	m_pBlocks->FreeDataChain();

  00017	8b 4e 14	 mov	 ecx, DWORD PTR [esi+20]
  0001a	c7 46 0c 00 00
	00 00		 mov	 DWORD PTR [esi+12], 0
  00021	c7 46 10 00 00
	00 00		 mov	 DWORD PTR [esi+16], 0
  00028	c7 46 08 00 00
	00 00		 mov	 DWORD PTR [esi+8], 0
  0002f	c7 46 04 00 00
	00 00		 mov	 DWORD PTR [esi+4], 0
  00036	e8 00 00 00 00	 call	 ?FreeDataChain@CPlex@@QAEXXZ ; CPlex::FreeDataChain

; 873  : 	m_pBlocks = NULL;

  0003b	c7 46 14 00 00
	00 00		 mov	 DWORD PTR [esi+20], 0
$LN2@FreeNode:
  00042	5e		 pop	 esi

; 945  : 		RemoveAll();
; 946  : }

  00043	5d		 pop	 ebp
  00044	c2 04 00	 ret	 4
?FreeNode@?$CList@PAUIPacket000000@@PAU1@@@IAEXPAUCNode@1@@Z ENDP ; CList<IPacket000000 *,IPacket000000 *>::FreeNode
_TEXT	ENDS
; Function compile flags: /Ogtp
; File C:\Program Files (x86)\Microsoft Visual Studio\2019\Community\VC\Tools\MSVC\14.29.30133\atlmfc\include\afxtempl.h
;	COMDAT ?NewNode@?$CList@PAUIPacket000000@@PAU1@@@IAEPAUCNode@1@PAU21@0@Z
_TEXT	SEGMENT
_pPrev$ = 8						; size = 4
_pNext$ = 12						; size = 4
?NewNode@?$CList@PAUIPacket000000@@PAU1@@@IAEPAUCNode@1@PAU21@0@Z PROC ; CList<IPacket000000 *,IPacket000000 *>::NewNode, COMDAT
; _this$ = ecx

; 901  : {

  00000	55		 push	 ebp
  00001	8b ec		 mov	 ebp, esp
  00003	56		 push	 esi
  00004	8b f1		 mov	 esi, ecx

; 902  : 	if (m_pNodeFree == NULL)

  00006	83 7e 10 00	 cmp	 DWORD PTR [esi+16], 0
  0000a	75 34		 jne	 SHORT $LN7@NewNode

; 903  : 	{
; 904  : 		// add another block
; 905  : 		CPlex* pNewBlock = CPlex::Create(m_pBlocks, m_nBlockSize,

  0000c	6a 0c		 push	 12			; 0000000cH
  0000e	ff 76 18	 push	 DWORD PTR [esi+24]
  00011	8d 46 14	 lea	 eax, DWORD PTR [esi+20]
  00014	50		 push	 eax
  00015	e8 00 00 00 00	 call	 ?Create@CPlex@@SGPAU1@AAPAU1@II@Z ; CPlex::Create

; 906  : 				 sizeof(CNode));
; 907  : 
; 908  : 		// chain them into free list
; 909  : 		CNode* pNode = (CNode*) pNewBlock->data();
; 910  : 		// free in reverse order to make it easier to debug
; 911  : 		pNode += m_nBlockSize - 1;

  0001a	8b 56 18	 mov	 edx, DWORD PTR [esi+24]
  0001d	83 c0 08	 add	 eax, 8
  00020	8d 0c 52	 lea	 ecx, DWORD PTR [edx+edx*2]
  00023	8d 04 88	 lea	 eax, DWORD PTR [eax+ecx*4]
  00026	83 c0 f4	 add	 eax, -12		; fffffff4H

; 912  : 		for (INT_PTR i = m_nBlockSize-1; i >= 0; i--, pNode--)

  00029	83 c2 ff	 add	 edx, -1
  0002c	78 12		 js	 SHORT $LN7@NewNode
  0002e	66 90		 npad	 2
$LL4@NewNode:

; 913  : 		{
; 914  : 			pNode->pNext = m_pNodeFree;

  00030	8b 4e 10	 mov	 ecx, DWORD PTR [esi+16]
  00033	89 08		 mov	 DWORD PTR [eax], ecx

; 915  : 			m_pNodeFree = pNode;

  00035	89 46 10	 mov	 DWORD PTR [esi+16], eax
  00038	83 e8 0c	 sub	 eax, 12			; 0000000cH
  0003b	83 ea 01	 sub	 edx, 1
  0003e	79 f0		 jns	 SHORT $LL4@NewNode
$LN7@NewNode:

; 916  : 		}
; 917  : 	}
; 918  : 	ENSURE(m_pNodeFree != NULL);  // we must have something

  00040	8b 46 10	 mov	 eax, DWORD PTR [esi+16]
  00043	85 c0		 test	 eax, eax
  00045	74 18		 je	 SHORT $LN17@NewNode

; 919  : 
; 920  : 	CList::CNode* pNode = m_pNodeFree;
; 921  : 	m_pNodeFree = m_pNodeFree->pNext;

  00047	8b 08		 mov	 ecx, DWORD PTR [eax]
  00049	89 4e 10	 mov	 DWORD PTR [esi+16], ecx

; 922  : 	pNode->pPrev = pPrev;

  0004c	8b 4d 08	 mov	 ecx, DWORD PTR _pPrev$[ebp]
  0004f	89 48 04	 mov	 DWORD PTR [eax+4], ecx

; 923  : 	pNode->pNext = pNext;

  00052	8b 4d 0c	 mov	 ecx, DWORD PTR _pNext$[ebp]
  00055	89 08		 mov	 DWORD PTR [eax], ecx

; 924  : 	m_nCount++;

  00057	ff 46 0c	 inc	 DWORD PTR [esi+12]

; 925  : 	ASSERT(m_nCount > 0);  // make sure we don't overflow
; 926  : 
; 927  : #pragma push_macro("new")
; 928  : #undef new
; 929  : 	::new( (void*)( &pNode->data ) ) TYPE;
; 930  : #pragma pop_macro("new")
; 931  : 	return pNode;

  0005a	5e		 pop	 esi

; 932  : }

  0005b	5d		 pop	 ebp
  0005c	c2 08 00	 ret	 8
$LN17@NewNode:

; 916  : 		}
; 917  : 	}
; 918  : 	ENSURE(m_pNodeFree != NULL);  // we must have something

  0005f	e8 00 00 00 00	 call	 ?AfxThrowInvalidArgException@@YGXXZ ; AfxThrowInvalidArgException
$LN15@NewNode:
  00064	cc		 int	 3
?NewNode@?$CList@PAUIPacket000000@@PAU1@@@IAEPAUCNode@1@PAU21@0@Z ENDP ; CList<IPacket000000 *,IPacket000000 *>::NewNode
_TEXT	ENDS
; Function compile flags: /Ogtp
; File C:\Program Files (x86)\Microsoft Visual Studio\2019\Community\VC\Tools\MSVC\14.29.30133\atlmfc\include\afxtempl.h
;	COMDAT ?FindIndex@?$CList@PAUIPacket000000@@PAU1@@@QBEPAU__POSITION@@H@Z
_TEXT	SEGMENT
_nIndex$ = 8						; size = 4
?FindIndex@?$CList@PAUIPacket000000@@PAU1@@@QBEPAU__POSITION@@H@Z PROC ; CList<IPacket000000 *,IPacket000000 *>::FindIndex, COMDAT
; _this$ = ecx

; 1130 : {

  00000	55		 push	 ebp
  00001	8b ec		 mov	 ebp, esp

; 1131 : 	ASSERT_VALID(this);
; 1132 : 
; 1133 : 	if (nIndex >= m_nCount || nIndex < 0)

  00003	8b 55 08	 mov	 edx, DWORD PTR _nIndex$[ebp]
  00006	3b 51 0c	 cmp	 edx, DWORD PTR [ecx+12]
  00009	7d 14		 jge	 SHORT $LN5@FindIndex
  0000b	85 d2		 test	 edx, edx
  0000d	78 10		 js	 SHORT $LN5@FindIndex

; 1135 : 
; 1136 : 	CNode* pNode = m_pNodeHead;

  0000f	8b 41 04	 mov	 eax, DWORD PTR [ecx+4]

; 1137 : 	while (nIndex--)

  00012	74 0d		 je	 SHORT $LN1@FindIndex
$LL2@FindIndex:

; 1138 : 	{
; 1139 : 		ASSERT(AfxIsValidAddress(pNode, sizeof(CNode)));
; 1140 : 		pNode = pNode->pNext;

  00014	8b 00		 mov	 eax, DWORD PTR [eax]
  00016	83 ea 01	 sub	 edx, 1
  00019	75 f9		 jne	 SHORT $LL2@FindIndex

; 1141 : 	}
; 1142 : 	return (POSITION) pNode;
; 1143 : }

  0001b	5d		 pop	 ebp
  0001c	c2 04 00	 ret	 4
$LN5@FindIndex:

; 1134 : 		return NULL;  // went too far

  0001f	33 c0		 xor	 eax, eax
$LN1@FindIndex:

; 1141 : 	}
; 1142 : 	return (POSITION) pNode;
; 1143 : }

  00021	5d		 pop	 ebp
  00022	c2 04 00	 ret	 4
?FindIndex@?$CList@PAUIPacket000000@@PAU1@@@QBEPAU__POSITION@@H@Z ENDP ; CList<IPacket000000 *,IPacket000000 *>::FindIndex
_TEXT	ENDS
; Function compile flags: /Ogtp
; File C:\Program Files (x86)\Microsoft Visual Studio\2019\Community\VC\Tools\MSVC\14.29.30133\atlmfc\include\afxtempl.h
;	COMDAT ?Find@?$CList@PAUIPacket000000@@PAU1@@@QBEPAU__POSITION@@PAUIPacket000000@@PAU2@@Z
_TEXT	SEGMENT
_searchValue$ = 8					; size = 4
_startAfter$ = 12					; size = 4
?Find@?$CList@PAUIPacket000000@@PAU1@@@QBEPAU__POSITION@@PAUIPacket000000@@PAU2@@Z PROC ; CList<IPacket000000 *,IPacket000000 *>::Find, COMDAT
; _this$ = ecx

; 1147 : {

  00000	55		 push	 ebp
  00001	8b ec		 mov	 ebp, esp
  00003	8b 45 0c	 mov	 eax, DWORD PTR _startAfter$[ebp]

; 1148 : 	ASSERT_VALID(this);
; 1149 : 
; 1150 : 	CNode* pNode = (CNode*) startAfter;
; 1151 : 	if (pNode == NULL)

  00006	85 c0		 test	 eax, eax
  00008	75 03		 jne	 SHORT $LN6@Find

; 1152 : 	{
; 1153 : 		pNode = m_pNodeHead;  // start at head

  0000a	8d 41 04	 lea	 eax, DWORD PTR [ecx+4]
$LN6@Find:

; 1154 : 	}
; 1155 : 	else
; 1156 : 	{
; 1157 : 		ASSERT(AfxIsValidAddress(pNode, sizeof(CNode)));
; 1158 : 		pNode = pNode->pNext;  // start after the one specified
; 1159 : 	}
; 1160 : 
; 1161 : 	for (; pNode != NULL; pNode = pNode->pNext)

  0000d	8b 00		 mov	 eax, DWORD PTR [eax]
  0000f	85 c0		 test	 eax, eax
  00011	74 14		 je	 SHORT $LN3@Find
  00013	8b 55 08	 mov	 edx, DWORD PTR _searchValue$[ebp]
$LL4@Find:

; 1162 : 		if (CompareElements<TYPE>(&pNode->data, &searchValue))

  00016	8d 48 08	 lea	 ecx, DWORD PTR [eax+8]

; 152  : 	ENSURE(pElement1 != NULL && pElement2 != NULL);

  00019	85 c9		 test	 ecx, ecx
  0001b	74 10		 je	 SHORT $LN19@Find

; 153  : 	ASSERT(AfxIsValidAddress(pElement1, sizeof(TYPE), FALSE));
; 154  : 	ASSERT(AfxIsValidAddress(pElement2, sizeof(ARG_TYPE), FALSE));
; 155  : 
; 156  : 	return *pElement1 == *pElement2;

  0001d	39 11		 cmp	 DWORD PTR [ecx], edx

; 1162 : 		if (CompareElements<TYPE>(&pNode->data, &searchValue))

  0001f	74 08		 je	 SHORT $LN1@Find

; 1154 : 	}
; 1155 : 	else
; 1156 : 	{
; 1157 : 		ASSERT(AfxIsValidAddress(pNode, sizeof(CNode)));
; 1158 : 		pNode = pNode->pNext;  // start after the one specified
; 1159 : 	}
; 1160 : 
; 1161 : 	for (; pNode != NULL; pNode = pNode->pNext)

  00021	8b 00		 mov	 eax, DWORD PTR [eax]
  00023	85 c0		 test	 eax, eax
  00025	75 ef		 jne	 SHORT $LL4@Find
$LN3@Find:

; 1163 : 			return (POSITION)pNode;
; 1164 : 	return NULL;

  00027	33 c0		 xor	 eax, eax
$LN1@Find:

; 1165 : }

  00029	5d		 pop	 ebp
  0002a	c2 08 00	 ret	 8
$LN19@Find:

; 152  : 	ENSURE(pElement1 != NULL && pElement2 != NULL);

  0002d	e8 00 00 00 00	 call	 ?AfxThrowInvalidArgException@@YGXXZ ; AfxThrowInvalidArgException
$LN26@Find:
  00032	cc		 int	 3
?Find@?$CList@PAUIPacket000000@@PAU1@@@QBEPAU__POSITION@@PAUIPacket000000@@PAU2@@Z ENDP ; CList<IPacket000000 *,IPacket000000 *>::Find
_TEXT	ENDS
; Function compile flags: /Ogtp
; File C:\Program Files (x86)\Microsoft Visual Studio\2019\Community\VC\Tools\MSVC\14.29.30133\atlmfc\include\afxtempl.h
;	COMDAT ?InsertAfter@?$CList@PAUIPacket000000@@PAU1@@@QAEPAU__POSITION@@PAU2@PAUIPacket000000@@@Z
_TEXT	SEGMENT
_position$ = 8						; size = 4
_newElement$ = 12					; size = 4
?InsertAfter@?$CList@PAUIPacket000000@@PAU1@@@QAEPAU__POSITION@@PAU2@PAUIPacket000000@@@Z PROC ; CList<IPacket000000 *,IPacket000000 *>::InsertAfter, COMDAT
; _this$ = ecx

; 1072 : {

  00000	55		 push	 ebp
  00001	8b ec		 mov	 ebp, esp
  00003	56		 push	 esi
  00004	57		 push	 edi

; 1073 : 	ASSERT_VALID(this);
; 1074 : 
; 1075 : 	if (position == NULL)

  00005	8b 7d 08	 mov	 edi, DWORD PTR _position$[ebp]
  00008	8b f1		 mov	 esi, ecx
  0000a	85 ff		 test	 edi, edi
  0000c	75 2d		 jne	 SHORT $LN2@InsertAfte

; 968  : 	CNode* pNewNode = NewNode(m_pNodeTail, NULL);

  0000e	57		 push	 edi
  0000f	ff 76 08	 push	 DWORD PTR [esi+8]
  00012	e8 00 00 00 00	 call	 ?NewNode@?$CList@PAUIPacket000000@@PAU1@@@IAEPAUCNode@1@PAU21@0@Z ; CList<IPacket000000 *,IPacket000000 *>::NewNode

; 969  : 	pNewNode->data = newElement;

  00017	8b 4d 0c	 mov	 ecx, DWORD PTR _newElement$[ebp]
  0001a	89 48 08	 mov	 DWORD PTR [eax+8], ecx

; 970  : 	if (m_pNodeTail != NULL)

  0001d	8b 4e 08	 mov	 ecx, DWORD PTR [esi+8]
  00020	85 c9		 test	 ecx, ecx
  00022	74 0b		 je	 SHORT $LN7@InsertAfte

; 971  : 		m_pNodeTail->pNext = pNewNode;

  00024	89 01		 mov	 DWORD PTR [ecx], eax
  00026	5f		 pop	 edi

; 974  : 	m_pNodeTail = pNewNode;

  00027	89 46 08	 mov	 DWORD PTR [esi+8], eax

; 1095 : 	return (POSITION) pNewNode;
; 1096 : }

  0002a	5e		 pop	 esi
  0002b	5d		 pop	 ebp
  0002c	c2 08 00	 ret	 8
$LN7@InsertAfte:
  0002f	5f		 pop	 edi

; 973  : 		m_pNodeHead = pNewNode;

  00030	89 46 04	 mov	 DWORD PTR [esi+4], eax

; 974  : 	m_pNodeTail = pNewNode;

  00033	89 46 08	 mov	 DWORD PTR [esi+8], eax

; 1095 : 	return (POSITION) pNewNode;
; 1096 : }

  00036	5e		 pop	 esi
  00037	5d		 pop	 ebp
  00038	c2 08 00	 ret	 8
$LN2@InsertAfte:

; 1076 : 		return AddTail(newElement); // insert after nothing -> tail of the list
; 1077 : 
; 1078 : 	// Insert it before position
; 1079 : 	CNode* pOldNode = (CNode*) position;
; 1080 : 	ASSERT(AfxIsValidAddress(pOldNode, sizeof(CNode)));
; 1081 : 	CNode* pNewNode = NewNode(pOldNode, pOldNode->pNext);

  0003b	ff 37		 push	 DWORD PTR [edi]
  0003d	57		 push	 edi
  0003e	e8 00 00 00 00	 call	 ?NewNode@?$CList@PAUIPacket000000@@PAU1@@@IAEPAUCNode@1@PAU21@0@Z ; CList<IPacket000000 *,IPacket000000 *>::NewNode

; 1082 : 	pNewNode->data = newElement;

  00043	8b 4d 0c	 mov	 ecx, DWORD PTR _newElement$[ebp]
  00046	89 48 08	 mov	 DWORD PTR [eax+8], ecx

; 1083 : 
; 1084 : 	if (pOldNode->pNext != NULL)

  00049	8b 0f		 mov	 ecx, DWORD PTR [edi]
  0004b	85 c9		 test	 ecx, ecx
  0004d	74 0b		 je	 SHORT $LN3@InsertAfte

; 1085 : 	{
; 1086 : 		ASSERT(AfxIsValidAddress(pOldNode->pNext, sizeof(CNode)));
; 1087 : 		pOldNode->pNext->pPrev = pNewNode;

  0004f	89 41 04	 mov	 DWORD PTR [ecx+4], eax

; 1093 : 	}
; 1094 : 	pOldNode->pNext = pNewNode;

  00052	89 07		 mov	 DWORD PTR [edi], eax
  00054	5f		 pop	 edi

; 1095 : 	return (POSITION) pNewNode;
; 1096 : }

  00055	5e		 pop	 esi
  00056	5d		 pop	 ebp
  00057	c2 08 00	 ret	 8
$LN3@InsertAfte:

; 1088 : 	}
; 1089 : 	else
; 1090 : 	{
; 1091 : 		ASSERT(pOldNode == m_pNodeTail);
; 1092 : 		m_pNodeTail = pNewNode;

  0005a	89 46 08	 mov	 DWORD PTR [esi+8], eax

; 1093 : 	}
; 1094 : 	pOldNode->pNext = pNewNode;

  0005d	89 07		 mov	 DWORD PTR [edi], eax
  0005f	5f		 pop	 edi

; 1095 : 	return (POSITION) pNewNode;
; 1096 : }

  00060	5e		 pop	 esi
  00061	5d		 pop	 ebp
  00062	c2 08 00	 ret	 8
?InsertAfter@?$CList@PAUIPacket000000@@PAU1@@@QAEPAU__POSITION@@PAU2@PAUIPacket000000@@@Z ENDP ; CList<IPacket000000 *,IPacket000000 *>::InsertAfter
_TEXT	ENDS
; Function compile flags: /Ogtp
; File C:\Program Files (x86)\Microsoft Visual Studio\2019\Community\VC\Tools\MSVC\14.29.30133\atlmfc\include\afxtempl.h
;	COMDAT ?InsertBefore@?$CList@PAUIPacket000000@@PAU1@@@QAEPAU__POSITION@@PAU2@PAUIPacket000000@@@Z
_TEXT	SEGMENT
_position$ = 8						; size = 4
_newElement$ = 12					; size = 4
?InsertBefore@?$CList@PAUIPacket000000@@PAU1@@@QAEPAU__POSITION@@PAU2@PAUIPacket000000@@@Z PROC ; CList<IPacket000000 *,IPacket000000 *>::InsertBefore, COMDAT
; _this$ = ecx

; 1045 : {

  00000	55		 push	 ebp
  00001	8b ec		 mov	 ebp, esp
  00003	56		 push	 esi
  00004	57		 push	 edi

; 1046 : 	ASSERT_VALID(this);
; 1047 : 
; 1048 : 	if (position == NULL)

  00005	8b 7d 08	 mov	 edi, DWORD PTR _position$[ebp]
  00008	8b f1		 mov	 esi, ecx
  0000a	85 ff		 test	 edi, edi
  0000c	75 2e		 jne	 SHORT $LN2@InsertBefo

; 953  : 	CNode* pNewNode = NewNode(NULL, m_pNodeHead);

  0000e	ff 76 04	 push	 DWORD PTR [esi+4]
  00011	57		 push	 edi
  00012	e8 00 00 00 00	 call	 ?NewNode@?$CList@PAUIPacket000000@@PAU1@@@IAEPAUCNode@1@PAU21@0@Z ; CList<IPacket000000 *,IPacket000000 *>::NewNode

; 954  : 	pNewNode->data = newElement;

  00017	8b 4d 0c	 mov	 ecx, DWORD PTR _newElement$[ebp]
  0001a	89 48 08	 mov	 DWORD PTR [eax+8], ecx

; 955  : 	if (m_pNodeHead != NULL)

  0001d	8b 4e 04	 mov	 ecx, DWORD PTR [esi+4]
  00020	85 c9		 test	 ecx, ecx
  00022	74 0c		 je	 SHORT $LN7@InsertBefo

; 956  : 		m_pNodeHead->pPrev = pNewNode;

  00024	89 41 04	 mov	 DWORD PTR [ecx+4], eax
  00027	5f		 pop	 edi

; 959  : 	m_pNodeHead = pNewNode;

  00028	89 46 04	 mov	 DWORD PTR [esi+4], eax

; 1067 : 	return (POSITION) pNewNode;
; 1068 : }

  0002b	5e		 pop	 esi
  0002c	5d		 pop	 ebp
  0002d	c2 08 00	 ret	 8
$LN7@InsertBefo:
  00030	5f		 pop	 edi

; 958  : 		m_pNodeTail = pNewNode;

  00031	89 46 08	 mov	 DWORD PTR [esi+8], eax

; 959  : 	m_pNodeHead = pNewNode;

  00034	89 46 04	 mov	 DWORD PTR [esi+4], eax

; 1067 : 	return (POSITION) pNewNode;
; 1068 : }

  00037	5e		 pop	 esi
  00038	5d		 pop	 ebp
  00039	c2 08 00	 ret	 8
$LN2@InsertBefo:

; 1049 : 		return AddHead(newElement); // insert before nothing -> head of the list
; 1050 : 
; 1051 : 	// Insert it before position
; 1052 : 	CNode* pOldNode = (CNode*) position;
; 1053 : 	CNode* pNewNode = NewNode(pOldNode->pPrev, pOldNode);

  0003c	57		 push	 edi
  0003d	ff 77 04	 push	 DWORD PTR [edi+4]
  00040	e8 00 00 00 00	 call	 ?NewNode@?$CList@PAUIPacket000000@@PAU1@@@IAEPAUCNode@1@PAU21@0@Z ; CList<IPacket000000 *,IPacket000000 *>::NewNode

; 1054 : 	pNewNode->data = newElement;

  00045	8b 4d 0c	 mov	 ecx, DWORD PTR _newElement$[ebp]
  00048	89 48 08	 mov	 DWORD PTR [eax+8], ecx

; 1055 : 
; 1056 : 	if (pOldNode->pPrev != NULL)

  0004b	8b 4f 04	 mov	 ecx, DWORD PTR [edi+4]
  0004e	85 c9		 test	 ecx, ecx
  00050	74 0b		 je	 SHORT $LN3@InsertBefo

; 1057 : 	{
; 1058 : 		ASSERT(AfxIsValidAddress(pOldNode->pPrev, sizeof(CNode)));
; 1059 : 		pOldNode->pPrev->pNext = pNewNode;

  00052	89 01		 mov	 DWORD PTR [ecx], eax

; 1065 : 	}
; 1066 : 	pOldNode->pPrev = pNewNode;

  00054	89 47 04	 mov	 DWORD PTR [edi+4], eax
  00057	5f		 pop	 edi

; 1067 : 	return (POSITION) pNewNode;
; 1068 : }

  00058	5e		 pop	 esi
  00059	5d		 pop	 ebp
  0005a	c2 08 00	 ret	 8
$LN3@InsertBefo:

; 1060 : 	}
; 1061 : 	else
; 1062 : 	{
; 1063 : 		ASSERT(pOldNode == m_pNodeHead);
; 1064 : 		m_pNodeHead = pNewNode;

  0005d	89 46 04	 mov	 DWORD PTR [esi+4], eax

; 1065 : 	}
; 1066 : 	pOldNode->pPrev = pNewNode;

  00060	89 47 04	 mov	 DWORD PTR [edi+4], eax
  00063	5f		 pop	 edi

; 1067 : 	return (POSITION) pNewNode;
; 1068 : }

  00064	5e		 pop	 esi
  00065	5d		 pop	 ebp
  00066	c2 08 00	 ret	 8
?InsertBefore@?$CList@PAUIPacket000000@@PAU1@@@QAEPAU__POSITION@@PAU2@PAUIPacket000000@@@Z ENDP ; CList<IPacket000000 *,IPacket000000 *>::InsertBefore
_TEXT	ENDS
; Function compile flags: /Ogtp
; File C:\Program Files (x86)\Microsoft Visual Studio\2019\Community\VC\Tools\MSVC\14.29.30133\atlmfc\include\afxtempl.h
;	COMDAT ?RemoveAt@?$CList@PAUIPacket000000@@PAU1@@@QAEXPAU__POSITION@@@Z
_TEXT	SEGMENT
_position$ = 8						; size = 4
?RemoveAt@?$CList@PAUIPacket000000@@PAU1@@@QAEXPAU__POSITION@@@Z PROC ; CList<IPacket000000 *,IPacket000000 *>::RemoveAt, COMDAT
; _this$ = ecx

; 1100 : {

  00000	55		 push	 ebp
  00001	8b ec		 mov	 ebp, esp
  00003	56		 push	 esi
  00004	8b f1		 mov	 esi, ecx

; 1101 : 	ASSERT_VALID(this);
; 1102 : 
; 1103 : 	CNode* pOldNode = (CNode*) position;
; 1104 : 	ASSERT(AfxIsValidAddress(pOldNode, sizeof(CNode)));
; 1105 : 
; 1106 : 	// remove pOldNode from list
; 1107 : 	if (pOldNode == m_pNodeHead)

  00006	8b 4d 08	 mov	 ecx, DWORD PTR _position$[ebp]
  00009	8b 11		 mov	 edx, DWORD PTR [ecx]
  0000b	3b 4e 04	 cmp	 ecx, DWORD PTR [esi+4]
  0000e	75 05		 jne	 SHORT $LN2@RemoveAt

; 1108 : 	{
; 1109 : 		m_pNodeHead = pOldNode->pNext;

  00010	89 56 04	 mov	 DWORD PTR [esi+4], edx

; 1110 : 	}

  00013	eb 05		 jmp	 SHORT $LN3@RemoveAt
$LN2@RemoveAt:

; 1111 : 	else
; 1112 : 	{
; 1113 : 		ASSERT(AfxIsValidAddress(pOldNode->pPrev, sizeof(CNode)));
; 1114 : 		pOldNode->pPrev->pNext = pOldNode->pNext;

  00015	8b 41 04	 mov	 eax, DWORD PTR [ecx+4]
  00018	89 10		 mov	 DWORD PTR [eax], edx
$LN3@RemoveAt:

; 1115 : 	}
; 1116 : 	if (pOldNode == m_pNodeTail)

  0001a	8b 51 04	 mov	 edx, DWORD PTR [ecx+4]
  0001d	3b 4e 08	 cmp	 ecx, DWORD PTR [esi+8]
  00020	75 05		 jne	 SHORT $LN4@RemoveAt

; 1117 : 	{
; 1118 : 		m_pNodeTail = pOldNode->pPrev;

  00022	89 56 08	 mov	 DWORD PTR [esi+8], edx

; 1119 : 	}

  00025	eb 05		 jmp	 SHORT $LN5@RemoveAt
$LN4@RemoveAt:

; 1120 : 	else
; 1121 : 	{
; 1122 : 		ASSERT(AfxIsValidAddress(pOldNode->pNext, sizeof(CNode)));
; 1123 : 		pOldNode->pNext->pPrev = pOldNode->pPrev;

  00027	8b 01		 mov	 eax, DWORD PTR [ecx]
  00029	89 50 04	 mov	 DWORD PTR [eax+4], edx
$LN5@RemoveAt:

; 938  : 	pNode->pNext = m_pNodeFree;

  0002c	8b 46 10	 mov	 eax, DWORD PTR [esi+16]
  0002f	89 01		 mov	 DWORD PTR [ecx], eax

; 939  : 	m_pNodeFree = pNode;
; 940  : 	m_nCount--;

  00031	83 46 0c ff	 add	 DWORD PTR [esi+12], -1
  00035	89 4e 10	 mov	 DWORD PTR [esi+16], ecx

; 941  : 	ASSERT(m_nCount >= 0);  // make sure we don't underflow
; 942  : 
; 943  : 	// if no more elements, cleanup completely
; 944  : 	if (m_nCount == 0)

  00038	75 2b		 jne	 SHORT $LN8@RemoveAt

; 872  : 	m_pBlocks->FreeDataChain();

  0003a	8b 4e 14	 mov	 ecx, DWORD PTR [esi+20]
  0003d	c7 46 0c 00 00
	00 00		 mov	 DWORD PTR [esi+12], 0
  00044	c7 46 10 00 00
	00 00		 mov	 DWORD PTR [esi+16], 0
  0004b	c7 46 08 00 00
	00 00		 mov	 DWORD PTR [esi+8], 0
  00052	c7 46 04 00 00
	00 00		 mov	 DWORD PTR [esi+4], 0
  00059	e8 00 00 00 00	 call	 ?FreeDataChain@CPlex@@QAEXXZ ; CPlex::FreeDataChain

; 873  : 	m_pBlocks = NULL;

  0005e	c7 46 14 00 00
	00 00		 mov	 DWORD PTR [esi+20], 0
$LN8@RemoveAt:
  00065	5e		 pop	 esi

; 1124 : 	}
; 1125 : 	FreeNode(pOldNode);
; 1126 : }

  00066	5d		 pop	 ebp
  00067	c2 04 00	 ret	 4
?RemoveAt@?$CList@PAUIPacket000000@@PAU1@@@QAEXPAU__POSITION@@@Z ENDP ; CList<IPacket000000 *,IPacket000000 *>::RemoveAt
_TEXT	ENDS
; Function compile flags: /Ogtp
; File C:\Program Files (x86)\Microsoft Visual Studio\2019\Community\VC\Tools\MSVC\14.29.30133\atlmfc\include\afxtempl.h
;	COMDAT ?RemoveAll@?$CList@PAUIPacket000000@@PAU1@@@QAEXXZ
_TEXT	SEGMENT
?RemoveAll@?$CList@PAUIPacket000000@@PAU1@@@QAEXXZ PROC	; CList<IPacket000000 *,IPacket000000 *>::RemoveAll, COMDAT
; _this$ = ecx

; 862  : {

  00000	56		 push	 esi
  00001	8b f1		 mov	 esi, ecx

; 863  : 	ASSERT_VALID(this);
; 864  : 
; 865  : 	// destroy elements
; 866  : 	CNode* pNode;
; 867  : 	for (pNode = m_pNodeHead; pNode != NULL; pNode = pNode->pNext)
; 868  : 		pNode->data.~TYPE();
; 869  : 
; 870  : 	m_nCount = 0;
; 871  : 	m_pNodeHead = m_pNodeTail = m_pNodeFree = NULL;
; 872  : 	m_pBlocks->FreeDataChain();

  00003	8b 4e 14	 mov	 ecx, DWORD PTR [esi+20]
  00006	c7 46 0c 00 00
	00 00		 mov	 DWORD PTR [esi+12], 0
  0000d	c7 46 10 00 00
	00 00		 mov	 DWORD PTR [esi+16], 0
  00014	c7 46 08 00 00
	00 00		 mov	 DWORD PTR [esi+8], 0
  0001b	c7 46 04 00 00
	00 00		 mov	 DWORD PTR [esi+4], 0
  00022	e8 00 00 00 00	 call	 ?FreeDataChain@CPlex@@QAEXXZ ; CPlex::FreeDataChain

; 873  : 	m_pBlocks = NULL;

  00027	c7 46 14 00 00
	00 00		 mov	 DWORD PTR [esi+20], 0
  0002e	5e		 pop	 esi

; 874  : }

  0002f	c3		 ret	 0
?RemoveAll@?$CList@PAUIPacket000000@@PAU1@@@QAEXXZ ENDP	; CList<IPacket000000 *,IPacket000000 *>::RemoveAll
_TEXT	ENDS
; Function compile flags: /Ogtp
; File C:\Program Files (x86)\Microsoft Visual Studio\2019\Community\VC\Tools\MSVC\14.29.30133\atlmfc\include\afxtempl.h
;	COMDAT ?AddTail@?$CList@PAUIPacket000000@@PAU1@@@QAEXPAV1@@Z
_TEXT	SEGMENT
_newElement$1$ = -4					; size = 4
$T1 = 8							; size = 4
_pNewList$ = 8						; size = 4
?AddTail@?$CList@PAUIPacket000000@@PAU1@@@QAEXPAV1@@Z PROC ; CList<IPacket000000 *,IPacket000000 *>::AddTail, COMDAT
; _this$ = ecx

; 994  : {

  00000	55		 push	 ebp
  00001	8b ec		 mov	 ebp, esp
  00003	51		 push	 ecx
  00004	53		 push	 ebx

; 995  : 	ASSERT_VALID(this);
; 996  : 	ENSURE(pNewList != NULL);

  00005	8b 5d 08	 mov	 ebx, DWORD PTR _pNewList$[ebp]
  00008	56		 push	 esi
  00009	8b f1		 mov	 esi, ecx
  0000b	85 db		 test	 ebx, ebx
  0000d	0f 84 a1 00 00
	00		 je	 $LN29@AddTail

; 997  : 	ASSERT_VALID(pNewList);
; 998  : 
; 999  : 	// add a list of same elements
; 1000 : 	POSITION pos = pNewList->GetHeadPosition();

  00013	8b 5b 04	 mov	 ebx, DWORD PTR [ebx+4]

; 1001 : 	while (pos != NULL)

  00016	85 db		 test	 ebx, ebx
  00018	0f 84 8e 00 00
	00		 je	 $LN39@AddTail
  0001e	8b 4e 08	 mov	 ecx, DWORD PTR [esi+8]
  00021	89 4d 08	 mov	 DWORD PTR $T1[ebp], ecx
  00024	57		 push	 edi
$LL5@AddTail:

; 1002 : 		AddTail(pNewList->GetNext(pos));

  00025	8b 43 08	 mov	 eax, DWORD PTR [ebx+8]

; 902  : 	if (m_pNodeFree == NULL)

  00028	8b 56 10	 mov	 edx, DWORD PTR [esi+16]

; 813  : 		rPosition = (POSITION) pNode->pNext;

  0002b	8b 1b		 mov	 ebx, DWORD PTR [ebx]

; 1002 : 		AddTail(pNewList->GetNext(pos));

  0002d	89 45 fc	 mov	 DWORD PTR _newElement$1$[ebp], eax

; 902  : 	if (m_pNodeFree == NULL)

  00030	85 d2		 test	 edx, edx
  00032	75 42		 jne	 SHORT $LN37@AddTail

; 903  : 	{
; 904  : 		// add another block
; 905  : 		CPlex* pNewBlock = CPlex::Create(m_pBlocks, m_nBlockSize,

  00034	6a 0c		 push	 12			; 0000000cH
  00036	ff 76 18	 push	 DWORD PTR [esi+24]
  00039	8d 46 14	 lea	 eax, DWORD PTR [esi+20]
  0003c	50		 push	 eax
  0003d	e8 00 00 00 00	 call	 ?Create@CPlex@@SGPAU1@AAPAU1@II@Z ; CPlex::Create

; 906  : 				 sizeof(CNode));
; 907  : 
; 908  : 		// chain them into free list
; 909  : 		CNode* pNode = (CNode*) pNewBlock->data();
; 910  : 		// free in reverse order to make it easier to debug
; 911  : 		pNode += m_nBlockSize - 1;

  00042	8b 56 18	 mov	 edx, DWORD PTR [esi+24]
  00045	83 c0 08	 add	 eax, 8
  00048	8d 0c 52	 lea	 ecx, DWORD PTR [edx+edx*2]
  0004b	8d 04 88	 lea	 eax, DWORD PTR [eax+ecx*4]

; 912  : 		for (INT_PTR i = m_nBlockSize-1; i >= 0; i--, pNode--)

  0004e	8d 7a ff	 lea	 edi, DWORD PTR [edx-1]
  00051	83 c0 f4	 add	 eax, -12		; fffffff4H
  00054	85 ff		 test	 edi, edi
  00056	78 14		 js	 SHORT $LN38@AddTail
$LL18@AddTail:

; 913  : 		{
; 914  : 			pNode->pNext = m_pNodeFree;

  00058	8b 4e 10	 mov	 ecx, DWORD PTR [esi+16]
  0005b	8b d0		 mov	 edx, eax
  0005d	89 08		 mov	 DWORD PTR [eax], ecx

; 915  : 			m_pNodeFree = pNode;

  0005f	89 46 10	 mov	 DWORD PTR [esi+16], eax
  00062	83 e8 0c	 sub	 eax, 12			; 0000000cH
  00065	83 ef 01	 sub	 edi, 1
  00068	79 ee		 jns	 SHORT $LL18@AddTail
  0006a	eb 03		 jmp	 SHORT $LN21@AddTail
$LN38@AddTail:
  0006c	8b 56 10	 mov	 edx, DWORD PTR [esi+16]
$LN21@AddTail:

; 916  : 		}
; 917  : 	}
; 918  : 	ENSURE(m_pNodeFree != NULL);  // we must have something

  0006f	85 d2		 test	 edx, edx
  00071	74 41		 je	 SHORT $LN29@AddTail
  00073	8b 4d 08	 mov	 ecx, DWORD PTR $T1[ebp]
$LN37@AddTail:

; 919  : 
; 920  : 	CList::CNode* pNode = m_pNodeFree;
; 921  : 	m_pNodeFree = m_pNodeFree->pNext;

  00076	8b 02		 mov	 eax, DWORD PTR [edx]
  00078	89 46 10	 mov	 DWORD PTR [esi+16], eax

; 969  : 	pNewNode->data = newElement;

  0007b	8b 45 fc	 mov	 eax, DWORD PTR _newElement$1$[ebp]

; 922  : 	pNode->pPrev = pPrev;

  0007e	89 4a 04	 mov	 DWORD PTR [edx+4], ecx

; 923  : 	pNode->pNext = pNext;

  00081	c7 02 00 00 00
	00		 mov	 DWORD PTR [edx], 0

; 924  : 	m_nCount++;

  00087	ff 46 0c	 inc	 DWORD PTR [esi+12]

; 969  : 	pNewNode->data = newElement;

  0008a	89 42 08	 mov	 DWORD PTR [edx+8], eax

; 970  : 	if (m_pNodeTail != NULL)

  0008d	8b 46 08	 mov	 eax, DWORD PTR [esi+8]
  00090	85 c0		 test	 eax, eax
  00092	74 04		 je	 SHORT $LN12@AddTail

; 971  : 		m_pNodeTail->pNext = pNewNode;

  00094	89 10		 mov	 DWORD PTR [eax], edx
  00096	eb 03		 jmp	 SHORT $LN13@AddTail
$LN12@AddTail:

; 972  : 	else
; 973  : 		m_pNodeHead = pNewNode;

  00098	89 56 04	 mov	 DWORD PTR [esi+4], edx
$LN13@AddTail:

; 974  : 	m_pNodeTail = pNewNode;

  0009b	89 56 08	 mov	 DWORD PTR [esi+8], edx
  0009e	8b ca		 mov	 ecx, edx
  000a0	89 4d 08	 mov	 DWORD PTR $T1[ebp], ecx

; 1001 : 	while (pos != NULL)

  000a3	85 db		 test	 ebx, ebx
  000a5	0f 85 7a ff ff
	ff		 jne	 $LL5@AddTail
  000ab	5f		 pop	 edi
$LN39@AddTail:
  000ac	5e		 pop	 esi

; 1003 : }

  000ad	5b		 pop	 ebx
  000ae	8b e5		 mov	 esp, ebp
  000b0	5d		 pop	 ebp
  000b1	c2 04 00	 ret	 4
$LN29@AddTail:

; 918  : 	ENSURE(m_pNodeFree != NULL);  // we must have something

  000b4	e8 00 00 00 00	 call	 ?AfxThrowInvalidArgException@@YGXXZ ; AfxThrowInvalidArgException
$LN41@AddTail:
  000b9	cc		 int	 3
?AddTail@?$CList@PAUIPacket000000@@PAU1@@@QAEXPAV1@@Z ENDP ; CList<IPacket000000 *,IPacket000000 *>::AddTail
_TEXT	ENDS
; Function compile flags: /Ogtp
; File C:\Program Files (x86)\Microsoft Visual Studio\2019\Community\VC\Tools\MSVC\14.29.30133\atlmfc\include\afxtempl.h
;	COMDAT ?AddHead@?$CList@PAUIPacket000000@@PAU1@@@QAEXPAV1@@Z
_TEXT	SEGMENT
_newElement$1$ = -4					; size = 4
$T1 = 8							; size = 4
_pNewList$ = 8						; size = 4
?AddHead@?$CList@PAUIPacket000000@@PAU1@@@QAEXPAV1@@Z PROC ; CList<IPacket000000 *,IPacket000000 *>::AddHead, COMDAT
; _this$ = ecx

; 980  : {

  00000	55		 push	 ebp
  00001	8b ec		 mov	 ebp, esp
  00003	51		 push	 ecx
  00004	53		 push	 ebx

; 981  : 	ASSERT_VALID(this);
; 982  : 
; 983  : 	ENSURE(pNewList != NULL);

  00005	8b 5d 08	 mov	 ebx, DWORD PTR _pNewList$[ebp]
  00008	56		 push	 esi
  00009	8b f1		 mov	 esi, ecx
  0000b	85 db		 test	 ebx, ebx
  0000d	0f 84 aa 00 00
	00		 je	 $LN29@AddHead

; 984  : 	ASSERT_VALID(pNewList);
; 985  : 
; 986  : 	// add a list of same elements to head (maintain order)
; 987  : 	POSITION pos = pNewList->GetTailPosition();

  00013	8b 5b 08	 mov	 ebx, DWORD PTR [ebx+8]

; 988  : 	while (pos != NULL)

  00016	85 db		 test	 ebx, ebx
  00018	0f 84 97 00 00
	00		 je	 $LN39@AddHead
  0001e	8b 4e 04	 mov	 ecx, DWORD PTR [esi+4]
  00021	89 4d 08	 mov	 DWORD PTR $T1[ebp], ecx
  00024	57		 push	 edi
$LL5@AddHead:

; 989  : 		AddHead(pNewList->GetPrev(pos));

  00025	8b 43 08	 mov	 eax, DWORD PTR [ebx+8]

; 902  : 	if (m_pNodeFree == NULL)

  00028	8b 56 10	 mov	 edx, DWORD PTR [esi+16]

; 825  : 		rPosition = (POSITION) pNode->pPrev;

  0002b	8b 5b 04	 mov	 ebx, DWORD PTR [ebx+4]

; 989  : 		AddHead(pNewList->GetPrev(pos));

  0002e	89 45 fc	 mov	 DWORD PTR _newElement$1$[ebp], eax

; 902  : 	if (m_pNodeFree == NULL)

  00031	85 d2		 test	 edx, edx
  00033	75 49		 jne	 SHORT $LN37@AddHead

; 903  : 	{
; 904  : 		// add another block
; 905  : 		CPlex* pNewBlock = CPlex::Create(m_pBlocks, m_nBlockSize,

  00035	6a 0c		 push	 12			; 0000000cH
  00037	ff 76 18	 push	 DWORD PTR [esi+24]
  0003a	8d 46 14	 lea	 eax, DWORD PTR [esi+20]
  0003d	50		 push	 eax
  0003e	e8 00 00 00 00	 call	 ?Create@CPlex@@SGPAU1@AAPAU1@II@Z ; CPlex::Create

; 906  : 				 sizeof(CNode));
; 907  : 
; 908  : 		// chain them into free list
; 909  : 		CNode* pNode = (CNode*) pNewBlock->data();
; 910  : 		// free in reverse order to make it easier to debug
; 911  : 		pNode += m_nBlockSize - 1;

  00043	8b 56 18	 mov	 edx, DWORD PTR [esi+24]
  00046	83 c0 08	 add	 eax, 8
  00049	8d 0c 52	 lea	 ecx, DWORD PTR [edx+edx*2]
  0004c	8d 04 88	 lea	 eax, DWORD PTR [eax+ecx*4]

; 912  : 		for (INT_PTR i = m_nBlockSize-1; i >= 0; i--, pNode--)

  0004f	8d 7a ff	 lea	 edi, DWORD PTR [edx-1]
  00052	83 c0 f4	 add	 eax, -12		; fffffff4H
  00055	85 ff		 test	 edi, edi
  00057	78 1b		 js	 SHORT $LN38@AddHead
  00059	0f 1f 80 00 00
	00 00		 npad	 7
$LL18@AddHead:

; 913  : 		{
; 914  : 			pNode->pNext = m_pNodeFree;

  00060	8b 4e 10	 mov	 ecx, DWORD PTR [esi+16]
  00063	8b d0		 mov	 edx, eax
  00065	89 08		 mov	 DWORD PTR [eax], ecx

; 915  : 			m_pNodeFree = pNode;

  00067	89 46 10	 mov	 DWORD PTR [esi+16], eax
  0006a	83 e8 0c	 sub	 eax, 12			; 0000000cH
  0006d	83 ef 01	 sub	 edi, 1
  00070	79 ee		 jns	 SHORT $LL18@AddHead
  00072	eb 03		 jmp	 SHORT $LN21@AddHead
$LN38@AddHead:
  00074	8b 56 10	 mov	 edx, DWORD PTR [esi+16]
$LN21@AddHead:

; 916  : 		}
; 917  : 	}
; 918  : 	ENSURE(m_pNodeFree != NULL);  // we must have something

  00077	85 d2		 test	 edx, edx
  00079	74 42		 je	 SHORT $LN29@AddHead
  0007b	8b 4d 08	 mov	 ecx, DWORD PTR $T1[ebp]
$LN37@AddHead:

; 919  : 
; 920  : 	CList::CNode* pNode = m_pNodeFree;
; 921  : 	m_pNodeFree = m_pNodeFree->pNext;

  0007e	8b 02		 mov	 eax, DWORD PTR [edx]
  00080	89 46 10	 mov	 DWORD PTR [esi+16], eax

; 954  : 	pNewNode->data = newElement;

  00083	8b 45 fc	 mov	 eax, DWORD PTR _newElement$1$[ebp]

; 922  : 	pNode->pPrev = pPrev;

  00086	c7 42 04 00 00
	00 00		 mov	 DWORD PTR [edx+4], 0

; 923  : 	pNode->pNext = pNext;

  0008d	89 0a		 mov	 DWORD PTR [edx], ecx

; 924  : 	m_nCount++;

  0008f	ff 46 0c	 inc	 DWORD PTR [esi+12]

; 954  : 	pNewNode->data = newElement;

  00092	89 42 08	 mov	 DWORD PTR [edx+8], eax

; 955  : 	if (m_pNodeHead != NULL)

  00095	8b 46 04	 mov	 eax, DWORD PTR [esi+4]
  00098	85 c0		 test	 eax, eax
  0009a	74 05		 je	 SHORT $LN12@AddHead

; 956  : 		m_pNodeHead->pPrev = pNewNode;

  0009c	89 50 04	 mov	 DWORD PTR [eax+4], edx
  0009f	eb 03		 jmp	 SHORT $LN13@AddHead
$LN12@AddHead:

; 957  : 	else
; 958  : 		m_pNodeTail = pNewNode;

  000a1	89 56 08	 mov	 DWORD PTR [esi+8], edx
$LN13@AddHead:

; 959  : 	m_pNodeHead = pNewNode;

  000a4	89 56 04	 mov	 DWORD PTR [esi+4], edx
  000a7	8b ca		 mov	 ecx, edx
  000a9	89 4d 08	 mov	 DWORD PTR $T1[ebp], ecx

; 988  : 	while (pos != NULL)

  000ac	85 db		 test	 ebx, ebx
  000ae	0f 85 71 ff ff
	ff		 jne	 $LL5@AddHead
  000b4	5f		 pop	 edi
$LN39@AddHead:
  000b5	5e		 pop	 esi

; 990  : }

  000b6	5b		 pop	 ebx
  000b7	8b e5		 mov	 esp, ebp
  000b9	5d		 pop	 ebp
  000ba	c2 04 00	 ret	 4
$LN29@AddHead:

; 918  : 	ENSURE(m_pNodeFree != NULL);  // we must have something

  000bd	e8 00 00 00 00	 call	 ?AfxThrowInvalidArgException@@YGXXZ ; AfxThrowInvalidArgException
$LN41@AddHead:
  000c2	cc		 int	 3
?AddHead@?$CList@PAUIPacket000000@@PAU1@@@QAEXPAV1@@Z ENDP ; CList<IPacket000000 *,IPacket000000 *>::AddHead
_TEXT	ENDS
; Function compile flags: /Ogtp
; File C:\Program Files (x86)\Microsoft Visual Studio\2019\Community\VC\Tools\MSVC\14.29.30133\atlmfc\include\afxtempl.h
;	COMDAT ?AddTail@?$CList@PAUIPacket000000@@PAU1@@@QAEPAU__POSITION@@PAUIPacket000000@@@Z
_TEXT	SEGMENT
_newElement$ = 8					; size = 4
?AddTail@?$CList@PAUIPacket000000@@PAU1@@@QAEPAU__POSITION@@PAUIPacket000000@@@Z PROC ; CList<IPacket000000 *,IPacket000000 *>::AddTail, COMDAT
; _this$ = ecx

; 965  : {

  00000	55		 push	 ebp
  00001	8b ec		 mov	 ebp, esp
  00003	56		 push	 esi
  00004	8b f1		 mov	 esi, ecx

; 966  : 	ASSERT_VALID(this);
; 967  : 
; 968  : 	CNode* pNewNode = NewNode(m_pNodeTail, NULL);

  00006	6a 00		 push	 0
  00008	ff 76 08	 push	 DWORD PTR [esi+8]
  0000b	e8 00 00 00 00	 call	 ?NewNode@?$CList@PAUIPacket000000@@PAU1@@@IAEPAUCNode@1@PAU21@0@Z ; CList<IPacket000000 *,IPacket000000 *>::NewNode

; 969  : 	pNewNode->data = newElement;

  00010	8b 55 08	 mov	 edx, DWORD PTR _newElement$[ebp]
  00013	89 50 08	 mov	 DWORD PTR [eax+8], edx

; 970  : 	if (m_pNodeTail != NULL)

  00016	8b 4e 08	 mov	 ecx, DWORD PTR [esi+8]
  00019	85 c9		 test	 ecx, ecx
  0001b	74 0a		 je	 SHORT $LN2@AddTail

; 971  : 		m_pNodeTail->pNext = pNewNode;

  0001d	89 01		 mov	 DWORD PTR [ecx], eax

; 974  : 	m_pNodeTail = pNewNode;
; 975  : 	return (POSITION) pNewNode;
; 976  : }

  0001f	89 46 08	 mov	 DWORD PTR [esi+8], eax
  00022	5e		 pop	 esi
  00023	5d		 pop	 ebp
  00024	c2 04 00	 ret	 4
$LN2@AddTail:

; 972  : 	else
; 973  : 		m_pNodeHead = pNewNode;

  00027	89 46 04	 mov	 DWORD PTR [esi+4], eax

; 974  : 	m_pNodeTail = pNewNode;
; 975  : 	return (POSITION) pNewNode;
; 976  : }

  0002a	89 46 08	 mov	 DWORD PTR [esi+8], eax
  0002d	5e		 pop	 esi
  0002e	5d		 pop	 ebp
  0002f	c2 04 00	 ret	 4
?AddTail@?$CList@PAUIPacket000000@@PAU1@@@QAEPAU__POSITION@@PAUIPacket000000@@@Z ENDP ; CList<IPacket000000 *,IPacket000000 *>::AddTail
_TEXT	ENDS
; Function compile flags: /Ogtp
; File C:\Program Files (x86)\Microsoft Visual Studio\2019\Community\VC\Tools\MSVC\14.29.30133\atlmfc\include\afxtempl.h
;	COMDAT ?AddHead@?$CList@PAUIPacket000000@@PAU1@@@QAEPAU__POSITION@@PAUIPacket000000@@@Z
_TEXT	SEGMENT
_newElement$ = 8					; size = 4
?AddHead@?$CList@PAUIPacket000000@@PAU1@@@QAEPAU__POSITION@@PAUIPacket000000@@@Z PROC ; CList<IPacket000000 *,IPacket000000 *>::AddHead, COMDAT
; _this$ = ecx

; 950  : {

  00000	55		 push	 ebp
  00001	8b ec		 mov	 ebp, esp
  00003	56		 push	 esi
  00004	8b f1		 mov	 esi, ecx

; 951  : 	ASSERT_VALID(this);
; 952  : 
; 953  : 	CNode* pNewNode = NewNode(NULL, m_pNodeHead);

  00006	ff 76 04	 push	 DWORD PTR [esi+4]
  00009	6a 00		 push	 0
  0000b	e8 00 00 00 00	 call	 ?NewNode@?$CList@PAUIPacket000000@@PAU1@@@IAEPAUCNode@1@PAU21@0@Z ; CList<IPacket000000 *,IPacket000000 *>::NewNode

; 954  : 	pNewNode->data = newElement;

  00010	8b 55 08	 mov	 edx, DWORD PTR _newElement$[ebp]
  00013	89 50 08	 mov	 DWORD PTR [eax+8], edx

; 955  : 	if (m_pNodeHead != NULL)

  00016	8b 4e 04	 mov	 ecx, DWORD PTR [esi+4]
  00019	85 c9		 test	 ecx, ecx
  0001b	74 0b		 je	 SHORT $LN2@AddHead

; 956  : 		m_pNodeHead->pPrev = pNewNode;

  0001d	89 41 04	 mov	 DWORD PTR [ecx+4], eax

; 959  : 	m_pNodeHead = pNewNode;
; 960  : 	return (POSITION) pNewNode;
; 961  : }

  00020	89 46 04	 mov	 DWORD PTR [esi+4], eax
  00023	5e		 pop	 esi
  00024	5d		 pop	 ebp
  00025	c2 04 00	 ret	 4
$LN2@AddHead:

; 957  : 	else
; 958  : 		m_pNodeTail = pNewNode;

  00028	89 46 08	 mov	 DWORD PTR [esi+8], eax

; 959  : 	m_pNodeHead = pNewNode;
; 960  : 	return (POSITION) pNewNode;
; 961  : }

  0002b	89 46 04	 mov	 DWORD PTR [esi+4], eax
  0002e	5e		 pop	 esi
  0002f	5d		 pop	 ebp
  00030	c2 04 00	 ret	 4
?AddHead@?$CList@PAUIPacket000000@@PAU1@@@QAEPAU__POSITION@@PAUIPacket000000@@@Z ENDP ; CList<IPacket000000 *,IPacket000000 *>::AddHead
_TEXT	ENDS
; Function compile flags: /Ogtp
; File C:\Program Files (x86)\Microsoft Visual Studio\2019\Community\VC\Tools\MSVC\14.29.30133\atlmfc\include\afxtempl.h
;	COMDAT ?RemoveTail@?$CList@PAUIPacket000000@@PAU1@@@QAEPAUIPacket000000@@XZ
_TEXT	SEGMENT
?RemoveTail@?$CList@PAUIPacket000000@@PAU1@@@QAEPAUIPacket000000@@XZ PROC ; CList<IPacket000000 *,IPacket000000 *>::RemoveTail, COMDAT
; _this$ = ecx

; 1026 : {

  00000	56		 push	 esi
  00001	8b f1		 mov	 esi, ecx
  00003	57		 push	 edi

; 1027 : 	ASSERT_VALID(this);
; 1028 : 	ENSURE(m_pNodeTail != NULL);  // don't call on empty list !!!

  00004	8b 4e 08	 mov	 ecx, DWORD PTR [esi+8]
  00007	85 c9		 test	 ecx, ecx
  00009	74 5a		 je	 SHORT $LN24@RemoveTail

; 1029 : 	ASSERT(AfxIsValidAddress(m_pNodeTail, sizeof(CNode)));
; 1030 : 
; 1031 : 	CNode* pOldNode = m_pNodeTail;
; 1032 : 	TYPE returnValue = pOldNode->data;
; 1033 : 
; 1034 : 	m_pNodeTail = pOldNode->pPrev;

  0000b	8b 41 04	 mov	 eax, DWORD PTR [ecx+4]
  0000e	8b 79 08	 mov	 edi, DWORD PTR [ecx+8]
  00011	89 46 08	 mov	 DWORD PTR [esi+8], eax

; 1035 : 	if (m_pNodeTail != NULL)

  00014	85 c0		 test	 eax, eax
  00016	74 08		 je	 SHORT $LN6@RemoveTail

; 1036 : 		m_pNodeTail->pNext = NULL;

  00018	c7 00 00 00 00
	00		 mov	 DWORD PTR [eax], 0
  0001e	eb 07		 jmp	 SHORT $LN7@RemoveTail
$LN6@RemoveTail:

; 1037 : 	else
; 1038 : 		m_pNodeHead = NULL;

  00020	c7 46 04 00 00
	00 00		 mov	 DWORD PTR [esi+4], 0
$LN7@RemoveTail:

; 938  : 	pNode->pNext = m_pNodeFree;

  00027	8b 46 10	 mov	 eax, DWORD PTR [esi+16]
  0002a	89 01		 mov	 DWORD PTR [ecx], eax

; 939  : 	m_pNodeFree = pNode;
; 940  : 	m_nCount--;

  0002c	83 46 0c ff	 add	 DWORD PTR [esi+12], -1
  00030	89 4e 10	 mov	 DWORD PTR [esi+16], ecx

; 941  : 	ASSERT(m_nCount >= 0);  // make sure we don't underflow
; 942  : 
; 943  : 	// if no more elements, cleanup completely
; 944  : 	if (m_nCount == 0)

  00033	75 2b		 jne	 SHORT $LN10@RemoveTail

; 872  : 	m_pBlocks->FreeDataChain();

  00035	8b 4e 14	 mov	 ecx, DWORD PTR [esi+20]
  00038	c7 46 0c 00 00
	00 00		 mov	 DWORD PTR [esi+12], 0
  0003f	c7 46 10 00 00
	00 00		 mov	 DWORD PTR [esi+16], 0
  00046	c7 46 08 00 00
	00 00		 mov	 DWORD PTR [esi+8], 0
  0004d	c7 46 04 00 00
	00 00		 mov	 DWORD PTR [esi+4], 0
  00054	e8 00 00 00 00	 call	 ?FreeDataChain@CPlex@@QAEXXZ ; CPlex::FreeDataChain

; 873  : 	m_pBlocks = NULL;

  00059	c7 46 14 00 00
	00 00		 mov	 DWORD PTR [esi+20], 0
$LN10@RemoveTail:

; 1039 : 	FreeNode(pOldNode);
; 1040 : 	return returnValue;

  00060	8b c7		 mov	 eax, edi
  00062	5f		 pop	 edi
  00063	5e		 pop	 esi

; 1041 : }

  00064	c3		 ret	 0
$LN24@RemoveTail:

; 1027 : 	ASSERT_VALID(this);
; 1028 : 	ENSURE(m_pNodeTail != NULL);  // don't call on empty list !!!

  00065	e8 00 00 00 00	 call	 ?AfxThrowInvalidArgException@@YGXXZ ; AfxThrowInvalidArgException
$LN22@RemoveTail:
  0006a	cc		 int	 3
?RemoveTail@?$CList@PAUIPacket000000@@PAU1@@@QAEPAUIPacket000000@@XZ ENDP ; CList<IPacket000000 *,IPacket000000 *>::RemoveTail
_TEXT	ENDS
; Function compile flags: /Ogtp
; File C:\Program Files (x86)\Microsoft Visual Studio\2019\Community\VC\Tools\MSVC\14.29.30133\atlmfc\include\afxtempl.h
;	COMDAT ?RemoveHead@?$CList@PAUIPacket000000@@PAU1@@@QAEPAUIPacket000000@@XZ
_TEXT	SEGMENT
?RemoveHead@?$CList@PAUIPacket000000@@PAU1@@@QAEPAUIPacket000000@@XZ PROC ; CList<IPacket000000 *,IPacket000000 *>::RemoveHead, COMDAT
; _this$ = ecx

; 1007 : {

  00000	56		 push	 esi
  00001	8b f1		 mov	 esi, ecx
  00003	57		 push	 edi

; 1008 : 	ASSERT_VALID(this);
; 1009 : 	ENSURE(m_pNodeHead != NULL);  // don't call on empty list !!!

  00004	8b 4e 04	 mov	 ecx, DWORD PTR [esi+4]
  00007	85 c9		 test	 ecx, ecx
  00009	74 5a		 je	 SHORT $LN24@RemoveHead

; 1010 : 	ASSERT(AfxIsValidAddress(m_pNodeHead, sizeof(CNode)));
; 1011 : 
; 1012 : 	CNode* pOldNode = m_pNodeHead;
; 1013 : 	TYPE returnValue = pOldNode->data;
; 1014 : 
; 1015 : 	m_pNodeHead = pOldNode->pNext;

  0000b	8b 01		 mov	 eax, DWORD PTR [ecx]
  0000d	8b 79 08	 mov	 edi, DWORD PTR [ecx+8]
  00010	89 46 04	 mov	 DWORD PTR [esi+4], eax

; 1016 : 	if (m_pNodeHead != NULL)

  00013	85 c0		 test	 eax, eax
  00015	74 09		 je	 SHORT $LN6@RemoveHead

; 1017 : 		m_pNodeHead->pPrev = NULL;

  00017	c7 40 04 00 00
	00 00		 mov	 DWORD PTR [eax+4], 0
  0001e	eb 07		 jmp	 SHORT $LN7@RemoveHead
$LN6@RemoveHead:

; 1018 : 	else
; 1019 : 		m_pNodeTail = NULL;

  00020	c7 46 08 00 00
	00 00		 mov	 DWORD PTR [esi+8], 0
$LN7@RemoveHead:

; 938  : 	pNode->pNext = m_pNodeFree;

  00027	8b 46 10	 mov	 eax, DWORD PTR [esi+16]
  0002a	89 01		 mov	 DWORD PTR [ecx], eax

; 939  : 	m_pNodeFree = pNode;
; 940  : 	m_nCount--;

  0002c	83 46 0c ff	 add	 DWORD PTR [esi+12], -1
  00030	89 4e 10	 mov	 DWORD PTR [esi+16], ecx

; 941  : 	ASSERT(m_nCount >= 0);  // make sure we don't underflow
; 942  : 
; 943  : 	// if no more elements, cleanup completely
; 944  : 	if (m_nCount == 0)

  00033	75 2b		 jne	 SHORT $LN10@RemoveHead

; 872  : 	m_pBlocks->FreeDataChain();

  00035	8b 4e 14	 mov	 ecx, DWORD PTR [esi+20]
  00038	c7 46 0c 00 00
	00 00		 mov	 DWORD PTR [esi+12], 0
  0003f	c7 46 10 00 00
	00 00		 mov	 DWORD PTR [esi+16], 0
  00046	c7 46 08 00 00
	00 00		 mov	 DWORD PTR [esi+8], 0
  0004d	c7 46 04 00 00
	00 00		 mov	 DWORD PTR [esi+4], 0
  00054	e8 00 00 00 00	 call	 ?FreeDataChain@CPlex@@QAEXXZ ; CPlex::FreeDataChain

; 873  : 	m_pBlocks = NULL;

  00059	c7 46 14 00 00
	00 00		 mov	 DWORD PTR [esi+20], 0
$LN10@RemoveHead:

; 1020 : 	FreeNode(pOldNode);
; 1021 : 	return returnValue;

  00060	8b c7		 mov	 eax, edi
  00062	5f		 pop	 edi
  00063	5e		 pop	 esi

; 1022 : }

  00064	c3		 ret	 0
$LN24@RemoveHead:

; 1008 : 	ASSERT_VALID(this);
; 1009 : 	ENSURE(m_pNodeHead != NULL);  // don't call on empty list !!!

  00065	e8 00 00 00 00	 call	 ?AfxThrowInvalidArgException@@YGXXZ ; AfxThrowInvalidArgException
$LN22@RemoveHead:
  0006a	cc		 int	 3
?RemoveHead@?$CList@PAUIPacket000000@@PAU1@@@QAEPAUIPacket000000@@XZ ENDP ; CList<IPacket000000 *,IPacket000000 *>::RemoveHead
_TEXT	ENDS
; Function compile flags: /Ogtp
; File C:\Program Files (x86)\Microsoft Visual Studio\2019\Community\VC\Tools\MSVC\14.29.30133\atlmfc\include\afxtempl.h
;	COMDAT ??0?$CList@PAUIPacket000000@@PAU1@@@QAE@H@Z
_TEXT	SEGMENT
_nBlockSize$ = 8					; size = 4
??0?$CList@PAUIPacket000000@@PAU1@@@QAE@H@Z PROC	; CList<IPacket000000 *,IPacket000000 *>::CList<IPacket000000 *,IPacket000000 *>, COMDAT
; _this$ = ecx

; 851  : {

  00000	55		 push	 ebp
  00001	8b ec		 mov	 ebp, esp

; 852  : 	ASSERT(nBlockSize > 0);
; 853  : 
; 854  : 	m_nCount = 0;
; 855  : 	m_pNodeHead = m_pNodeTail = m_pNodeFree = NULL;
; 856  : 	m_pBlocks = NULL;
; 857  : 	m_nBlockSize = nBlockSize;

  00003	8b 45 08	 mov	 eax, DWORD PTR _nBlockSize$[ebp]
  00006	89 41 18	 mov	 DWORD PTR [ecx+24], eax

; 858  : }

  00009	8b c1		 mov	 eax, ecx
  0000b	c7 01 00 00 00
	00		 mov	 DWORD PTR [ecx], OFFSET ??_7?$CList@PAUIPacket000000@@PAU1@@@6B@
  00011	c7 41 0c 00 00
	00 00		 mov	 DWORD PTR [ecx+12], 0
  00018	c7 41 10 00 00
	00 00		 mov	 DWORD PTR [ecx+16], 0
  0001f	c7 41 08 00 00
	00 00		 mov	 DWORD PTR [ecx+8], 0
  00026	c7 41 04 00 00
	00 00		 mov	 DWORD PTR [ecx+4], 0
  0002d	c7 41 14 00 00
	00 00		 mov	 DWORD PTR [ecx+20], 0
  00034	5d		 pop	 ebp
  00035	c2 04 00	 ret	 4
??0?$CList@PAUIPacket000000@@PAU1@@@QAE@H@Z ENDP	; CList<IPacket000000 *,IPacket000000 *>::CList<IPacket000000 *,IPacket000000 *>
_TEXT	ENDS
; Function compile flags: /Ogtp
;	COMDAT ??_GIPacketList000000@@MAEPAXI@Z
_TEXT	SEGMENT
___flags$ = 8						; size = 4
??_GIPacketList000000@@MAEPAXI@Z PROC			; IPacketList000000::`scalar deleting destructor', COMDAT
; _this$ = ecx
  00000	55		 push	 ebp
  00001	8b ec		 mov	 ebp, esp
  00003	f6 45 08 01	 test	 BYTE PTR ___flags$[ebp], 1
  00007	56		 push	 esi
  00008	8b f1		 mov	 esi, ecx
  0000a	c7 06 00 00 00
	00		 mov	 DWORD PTR [esi], OFFSET ??_7IPacketList000000@@6B@
  00010	74 0b		 je	 SHORT $LN4@scalar
  00012	6a 04		 push	 4
  00014	56		 push	 esi
  00015	e8 00 00 00 00	 call	 ??3@YAXPAXI@Z		; operator delete
  0001a	83 c4 08	 add	 esp, 8
$LN4@scalar:
  0001d	8b c6		 mov	 eax, esi
  0001f	5e		 pop	 esi
  00020	5d		 pop	 ebp
  00021	c2 04 00	 ret	 4
??_GIPacketList000000@@MAEPAXI@Z ENDP			; IPacketList000000::`scalar deleting destructor'
_TEXT	ENDS
; Function compile flags: /Ogtp
; File D:\git\src\IBK\IBK_DRFN\ProjSrc\SrcChartEx\ChartOCX\AddInManager\Include_AddIn\I000000\_IPacketList.h
;	COMDAT ??1IPacketList000000@@MAE@XZ
_TEXT	SEGMENT
??1IPacketList000000@@MAE@XZ PROC			; IPacketList000000::~IPacketList000000, COMDAT
; _this$ = ecx

; 17   : 	virtual ~IPacketList()	{}

  00000	c7 01 00 00 00
	00		 mov	 DWORD PTR [ecx], OFFSET ??_7IPacketList000000@@6B@
  00006	c3		 ret	 0
??1IPacketList000000@@MAE@XZ ENDP			; IPacketList000000::~IPacketList000000
_TEXT	ENDS
; Function compile flags: /Ogtp
; File D:\git\src\IBK\IBK_DRFN\ProjSrc\SrcChartEx\ChartOCX\AddInManager\Include_AddIn\I000000\_IString.h
;	COMDAT ??1ILPCSTR000000@@QAE@XZ
_TEXT	SEGMENT
__$EHRec$ = -12						; size = 12
??1ILPCSTR000000@@QAE@XZ PROC				; ILPCSTR000000::~ILPCSTR000000, COMDAT
; _this$ = ecx

; 44   : 	{

  00000	55		 push	 ebp
  00001	8b ec		 mov	 ebp, esp
  00003	6a ff		 push	 -1
  00005	68 00 00 00 00	 push	 __ehhandler$??1ILPCSTR000000@@QAE@XZ
  0000a	64 a1 00 00 00
	00		 mov	 eax, DWORD PTR fs:0
  00010	50		 push	 eax
  00011	56		 push	 esi
  00012	a1 00 00 00 00	 mov	 eax, DWORD PTR ___security_cookie
  00017	33 c5		 xor	 eax, ebp
  00019	50		 push	 eax
  0001a	8d 45 f4	 lea	 eax, DWORD PTR __$EHRec$[ebp]
  0001d	64 a3 00 00 00
	00		 mov	 DWORD PTR fs:0, eax
  00023	8b f1		 mov	 esi, ecx

; 45   : 		if( m_pIStrData)

  00025	8b 4e 04	 mov	 ecx, DWORD PTR [esi+4]
  00028	85 c9		 test	 ecx, ecx
  0002a	74 13		 je	 SHORT $LN2@ILPCSTR000

; 46   : 		{
; 47   : 			m_pIStrData->Release();

  0002c	8b 01		 mov	 eax, DWORD PTR [ecx]
  0002e	51		 push	 ecx
  0002f	ff 50 08	 call	 DWORD PTR [eax+8]

; 48   : 			m_pIStrData = NULL;

  00032	c7 46 04 00 00
	00 00		 mov	 DWORD PTR [esi+4], 0

; 49   : 			m_szData = NULL;

  00039	c7 06 00 00 00
	00		 mov	 DWORD PTR [esi], 0
$LN2@ILPCSTR000:

; 50   : 		}
; 51   : 	}

  0003f	8b 4d f4	 mov	 ecx, DWORD PTR __$EHRec$[ebp]
  00042	64 89 0d 00 00
	00 00		 mov	 DWORD PTR fs:0, ecx
  00049	59		 pop	 ecx
  0004a	5e		 pop	 esi
  0004b	8b e5		 mov	 esp, ebp
  0004d	5d		 pop	 ebp
  0004e	c3		 ret	 0
  0004f	cc		 int	 3
  00050	cc		 int	 3
  00051	cc		 int	 3
  00052	cc		 int	 3
  00053	cc		 int	 3
_TEXT	ENDS
;	COMDAT text$x
text$x	SEGMENT
__ehhandler$??1ILPCSTR000000@@QAE@XZ:
  00000	90		 npad	 1
  00001	90		 npad	 1
  00002	8b 54 24 08	 mov	 edx, DWORD PTR [esp+8]
  00006	8d 42 0c	 lea	 eax, DWORD PTR [edx+12]
  00009	8b 4a f8	 mov	 ecx, DWORD PTR [edx-8]
  0000c	33 c8		 xor	 ecx, eax
  0000e	e8 00 00 00 00	 call	 @__security_check_cookie@4
  00013	b8 00 00 00 00	 mov	 eax, OFFSET __ehfuncinfo$??1ILPCSTR000000@@QAE@XZ
  00018	e9 00 00 00 00	 jmp	 ___CxxFrameHandler3
text$x	ENDS
??1ILPCSTR000000@@QAE@XZ ENDP				; ILPCSTR000000::~ILPCSTR000000
; Function compile flags: /Ogtp
;	COMDAT ??__FstrValue@?1??GetNextAssoc@CPropertyMap@@EBEXAAPAU__POSITION@@AAPBD1@Z@YAXXZ
text$yd	SEGMENT
??__FstrValue@?1??GetNextAssoc@CPropertyMap@@EBEXAAPAU__POSITION@@AAPBD1@Z@YAXXZ PROC ; `CPropertyMap::GetNextAssoc'::`2'::`dynamic atexit destructor for 'strValue'', COMDAT
  00000	b9 00 00 00 00	 mov	 ecx, OFFSET ?strValue@?1??GetNextAssoc@CPropertyMap@@EBEXAAPAU__POSITION@@AAPBD1@Z@4V?$CStringT@DV?$StrTraitMFC_DLL@DV?$ChTraitsCRT@D@ATL@@@@@ATL@@A ; `CPropertyMap::GetNextAssoc'::`2'::strValue
  00005	ff 25 00 00 00
	00		 jmp	 DWORD PTR __imp_??1?$CStringT@DV?$StrTraitMFC_DLL@DV?$ChTraitsCRT@D@ATL@@@@@ATL@@QAE@XZ
??__FstrValue@?1??GetNextAssoc@CPropertyMap@@EBEXAAPAU__POSITION@@AAPBD1@Z@YAXXZ ENDP ; `CPropertyMap::GetNextAssoc'::`2'::`dynamic atexit destructor for 'strValue''
text$yd	ENDS
; Function compile flags: /Ogtp
;	COMDAT ??__FstrKey@?1??GetNextAssoc@CPropertyMap@@EBEXAAPAU__POSITION@@AAPBD1@Z@YAXXZ
text$yd	SEGMENT
??__FstrKey@?1??GetNextAssoc@CPropertyMap@@EBEXAAPAU__POSITION@@AAPBD1@Z@YAXXZ PROC ; `CPropertyMap::GetNextAssoc'::`2'::`dynamic atexit destructor for 'strKey'', COMDAT
  00000	b9 00 00 00 00	 mov	 ecx, OFFSET ?strKey@?1??GetNextAssoc@CPropertyMap@@EBEXAAPAU__POSITION@@AAPBD1@Z@4V?$CStringT@DV?$StrTraitMFC_DLL@DV?$ChTraitsCRT@D@ATL@@@@@ATL@@A ; `CPropertyMap::GetNextAssoc'::`2'::strKey
  00005	ff 25 00 00 00
	00		 jmp	 DWORD PTR __imp_??1?$CStringT@DV?$StrTraitMFC_DLL@DV?$ChTraitsCRT@D@ATL@@@@@ATL@@QAE@XZ
??__FstrKey@?1??GetNextAssoc@CPropertyMap@@EBEXAAPAU__POSITION@@AAPBD1@Z@YAXXZ ENDP ; `CPropertyMap::GetNextAssoc'::`2'::`dynamic atexit destructor for 'strKey''
text$yd	ENDS
; Function compile flags: /Ogtp
;	COMDAT ??__FstrValue@?1??Lookup@CPropertyMap@@EBEHPBDAAPBD@Z@YAXXZ
text$yd	SEGMENT
??__FstrValue@?1??Lookup@CPropertyMap@@EBEHPBDAAPBD@Z@YAXXZ PROC ; `CPropertyMap::Lookup'::`2'::`dynamic atexit destructor for 'strValue'', COMDAT
  00000	b9 00 00 00 00	 mov	 ecx, OFFSET ?strValue@?1??Lookup@CPropertyMap@@EBEHPBDAAPBD@Z@4V?$CStringT@DV?$StrTraitMFC_DLL@DV?$ChTraitsCRT@D@ATL@@@@@ATL@@A ; `CPropertyMap::Lookup'::`2'::strValue
  00005	ff 25 00 00 00
	00		 jmp	 DWORD PTR __imp_??1?$CStringT@DV?$StrTraitMFC_DLL@DV?$ChTraitsCRT@D@ATL@@@@@ATL@@QAE@XZ
??__FstrValue@?1??Lookup@CPropertyMap@@EBEHPBDAAPBD@Z@YAXXZ ENDP ; `CPropertyMap::Lookup'::`2'::`dynamic atexit destructor for 'strValue''
text$yd	ENDS
; Function compile flags: /Ogtp
; File C:\Program Files (x86)\Microsoft Visual Studio\2019\Community\VC\Tools\MSVC\14.29.30133\atlmfc\include\afx.inl
;	COMDAT ??_GCPropertyMap@@UAEPAXI@Z
_TEXT	SEGMENT
___flags$ = 8						; size = 4
??_GCPropertyMap@@UAEPAXI@Z PROC			; CPropertyMap::`scalar deleting destructor', COMDAT
; _this$ = ecx
  00000	55		 push	 ebp
  00001	8b ec		 mov	 ebp, esp
  00003	56		 push	 esi
  00004	8b f1		 mov	 esi, ecx
  00006	c7 46 1c 00 00
	00 00		 mov	 DWORD PTR [esi+28], OFFSET ??_7IPropertyMap@@6B@
  0000d	e8 00 00 00 00	 call	 ??1CMapStringToString@@UAE@XZ ; CMapStringToString::~CMapStringToString
  00012	8b 45 08	 mov	 eax, DWORD PTR ___flags$[ebp]
  00015	a8 01		 test	 al, 1
  00017	74 1f		 je	 SHORT $LN12@scalar
  00019	a8 04		 test	 al, 4
  0001b	75 10		 jne	 SHORT $LN3@scalar

; 112  : 	{ ::operator delete(p); }

  0001d	56		 push	 esi
  0001e	e8 00 00 00 00	 call	 ??3@YAXPAX@Z		; operator delete
  00023	83 c4 04	 add	 esp, 4
  00026	8b c6		 mov	 eax, esi
  00028	5e		 pop	 esi
  00029	5d		 pop	 ebp
  0002a	c2 04 00	 ret	 4
$LN3@scalar:
  0002d	6a 20		 push	 32			; 00000020H
  0002f	56		 push	 esi
  00030	e8 00 00 00 00	 call	 ?__global_delete@@YAXPAXI@Z ; __global_delete
  00035	83 c4 08	 add	 esp, 8
$LN12@scalar:
  00038	8b c6		 mov	 eax, esi
  0003a	5e		 pop	 esi
  0003b	5d		 pop	 ebp
  0003c	c2 04 00	 ret	 4
??_GCPropertyMap@@UAEPAXI@Z ENDP			; CPropertyMap::`scalar deleting destructor'
_TEXT	ENDS
; Function compile flags: /Ogtp
;	COMDAT ??1CPropertyMap@@UAE@XZ
_TEXT	SEGMENT
??1CPropertyMap@@UAE@XZ PROC				; CPropertyMap::~CPropertyMap, COMDAT
; _this$ = ecx
  00000	c7 41 1c 00 00
	00 00		 mov	 DWORD PTR [ecx+28], OFFSET ??_7IPropertyMap@@6B@
  00007	e9 00 00 00 00	 jmp	 ??1CMapStringToString@@UAE@XZ ; CMapStringToString::~CMapStringToString
??1CPropertyMap@@UAE@XZ ENDP				; CPropertyMap::~CPropertyMap
_TEXT	ENDS
; Function compile flags: /Ogtp
; File D:\git\src\IBK\IBK_DRFN\ProjSrc\SrcChartEx\ChartOCX\Include_Chart\PropertyMap.h
;	COMDAT ?InitHashTable@CPropertyMap@@EAEXIH@Z
_TEXT	SEGMENT
_hashSize$ = 8						; size = 4
_bAllocNow$ = 12					; size = 4
?InitHashTable@CPropertyMap@@EAEXIH@Z PROC		; CPropertyMap::InitHashTable, COMDAT
; _this$ = ecx

; 63   : 	virtual void InitHashTable(UINT hashSize, BOOL bAllocNow = TRUE)	{	CMapStringToString::InitHashTable( hashSize, bAllocNow);	}

  00000	55		 push	 ebp
  00001	8b ec		 mov	 ebp, esp
  00003	83 c1 e4	 add	 ecx, -28		; ffffffe4H
  00006	5d		 pop	 ebp
  00007	e9 00 00 00 00	 jmp	 ?InitHashTable@CMapStringToString@@QAEXIH@Z ; CMapStringToString::InitHashTable
?InitHashTable@CPropertyMap@@EAEXIH@Z ENDP		; CPropertyMap::InitHashTable
_TEXT	ENDS
; Function compile flags: /Ogtp
; File D:\git\src\IBK\IBK_DRFN\ProjSrc\SrcChartEx\ChartOCX\Include_Chart\PropertyMap.h
;	COMDAT ?GetHashTableSize@CPropertyMap@@EBEIXZ
_TEXT	SEGMENT
?GetHashTableSize@CPropertyMap@@EBEIXZ PROC		; CPropertyMap::GetHashTableSize, COMDAT
; _this$ = ecx

; 62   : 	virtual UINT GetHashTableSize() const								{	return CMapStringToString::GetHashTableSize();	}

  00000	8b 41 ec	 mov	 eax, DWORD PTR [ecx-20]
  00003	c3		 ret	 0
?GetHashTableSize@CPropertyMap@@EBEIXZ ENDP		; CPropertyMap::GetHashTableSize
_TEXT	ENDS
; Function compile flags: /Ogtp
; File D:\git\src\IBK\IBK_DRFN\ProjSrc\SrcChartEx\ChartOCX\Include_Chart\PropertyMap.h
;	COMDAT ?GetNextAssoc@CPropertyMap@@EBEXAAPAU__POSITION@@AAPBD1@Z
_TEXT	SEGMENT
_rNextPosition$ = 8					; size = 4
_rKey$ = 12						; size = 4
_rValue$ = 16						; size = 4
?GetNextAssoc@CPropertyMap@@EBEXAAPAU__POSITION@@AAPBD1@Z PROC ; CPropertyMap::GetNextAssoc, COMDAT
; _this$ = ecx

; 55   : 	{

  00000	55		 push	 ebp
  00001	8b ec		 mov	 ebp, esp

; 56   : 		static CString strKey, strValue;

  00003	64 a1 00 00 00
	00		 mov	 eax, DWORD PTR fs:__tls_array
  00009	8b 15 00 00 00
	00		 mov	 edx, DWORD PTR __tls_index
  0000f	56		 push	 esi
  00010	57		 push	 edi
  00011	8b f9		 mov	 edi, ecx
  00013	8b 34 90	 mov	 esi, DWORD PTR [eax+edx*4]
  00016	a1 00 00 00 00	 mov	 eax, DWORD PTR ?$TSS0@?1??GetNextAssoc@CPropertyMap@@EBEXAAPAU__POSITION@@AAPBD1@Z@4HA ; `CPropertyMap::GetNextAssoc'::`2'::$TSS0
  0001b	3b 86 00 00 00
	00		 cmp	 eax, DWORD PTR __Init_thread_epoch[esi]
  00021	7f 3c		 jg	 SHORT $LN10@GetNextAss
$LN2@GetNextAss:
  00023	a1 00 00 00 00	 mov	 eax, DWORD PTR ?$TSS1@?1??GetNextAssoc@CPropertyMap@@EBEXAAPAU__POSITION@@AAPBD1@Z@4HA ; `CPropertyMap::GetNextAssoc'::`2'::$TSS1
  00028	3b 86 00 00 00
	00		 cmp	 eax, DWORD PTR __Init_thread_epoch[esi]
  0002e	7f 69		 jg	 SHORT $LN11@GetNextAss
$LN3@GetNextAss:

; 57   : 		CMapStringToString::GetNextAssoc( rNextPosition, strKey, strValue);

  00030	68 00 00 00 00	 push	 OFFSET ?strValue@?1??GetNextAssoc@CPropertyMap@@EBEXAAPAU__POSITION@@AAPBD1@Z@4V?$CStringT@DV?$StrTraitMFC_DLL@DV?$ChTraitsCRT@D@ATL@@@@@ATL@@A ; `CPropertyMap::GetNextAssoc'::`2'::strValue
  00035	68 00 00 00 00	 push	 OFFSET ?strKey@?1??GetNextAssoc@CPropertyMap@@EBEXAAPAU__POSITION@@AAPBD1@Z@4V?$CStringT@DV?$StrTraitMFC_DLL@DV?$ChTraitsCRT@D@ATL@@@@@ATL@@A ; `CPropertyMap::GetNextAssoc'::`2'::strKey
  0003a	ff 75 08	 push	 DWORD PTR _rNextPosition$[ebp]
  0003d	8d 4f e4	 lea	 ecx, DWORD PTR [edi-28]
  00040	e8 00 00 00 00	 call	 ?GetNextAssoc@CMapStringToString@@QBEXAAPAU__POSITION@@AAV?$CStringT@DV?$StrTraitMFC_DLL@DV?$ChTraitsCRT@D@ATL@@@@@ATL@@1@Z ; CMapStringToString::GetNextAssoc

; 58   : 		rKey	= strKey;

  00045	8b 4d 0c	 mov	 ecx, DWORD PTR _rKey$[ebp]
  00048	a1 00 00 00 00	 mov	 eax, DWORD PTR ?strKey@?1??GetNextAssoc@CPropertyMap@@EBEXAAPAU__POSITION@@AAPBD1@Z@4V?$CStringT@DV?$StrTraitMFC_DLL@DV?$ChTraitsCRT@D@ATL@@@@@ATL@@A ; `CPropertyMap::GetNextAssoc'::`2'::strKey

; 59   : 		rValue	= strValue;

  0004d	5f		 pop	 edi
  0004e	5e		 pop	 esi
  0004f	89 01		 mov	 DWORD PTR [ecx], eax
  00051	8b 4d 10	 mov	 ecx, DWORD PTR _rValue$[ebp]
  00054	a1 00 00 00 00	 mov	 eax, DWORD PTR ?strValue@?1??GetNextAssoc@CPropertyMap@@EBEXAAPAU__POSITION@@AAPBD1@Z@4V?$CStringT@DV?$StrTraitMFC_DLL@DV?$ChTraitsCRT@D@ATL@@@@@ATL@@A ; `CPropertyMap::GetNextAssoc'::`2'::strValue
  00059	89 01		 mov	 DWORD PTR [ecx], eax

; 60   : 	}

  0005b	5d		 pop	 ebp
  0005c	c2 0c 00	 ret	 12			; 0000000cH
$LN10@GetNextAss:

; 56   : 		static CString strKey, strValue;

  0005f	68 00 00 00 00	 push	 OFFSET ?$TSS0@?1??GetNextAssoc@CPropertyMap@@EBEXAAPAU__POSITION@@AAPBD1@Z@4HA ; `CPropertyMap::GetNextAssoc'::`2'::$TSS0
  00064	e8 00 00 00 00	 call	 __Init_thread_header
  00069	83 c4 04	 add	 esp, 4
  0006c	83 3d 00 00 00
	00 ff		 cmp	 DWORD PTR ?$TSS0@?1??GetNextAssoc@CPropertyMap@@EBEXAAPAU__POSITION@@AAPBD1@Z@4HA, -1 ; `CPropertyMap::GetNextAssoc'::`2'::$TSS0
  00073	75 ae		 jne	 SHORT $LN2@GetNextAss
  00075	b9 00 00 00 00	 mov	 ecx, OFFSET ?strKey@?1??GetNextAssoc@CPropertyMap@@EBEXAAPAU__POSITION@@AAPBD1@Z@4V?$CStringT@DV?$StrTraitMFC_DLL@DV?$ChTraitsCRT@D@ATL@@@@@ATL@@A ; `CPropertyMap::GetNextAssoc'::`2'::strKey
  0007a	ff 15 00 00 00
	00		 call	 DWORD PTR __imp_??0?$CStringT@DV?$StrTraitMFC_DLL@DV?$ChTraitsCRT@D@ATL@@@@@ATL@@QAE@XZ
  00080	68 00 00 00 00	 push	 OFFSET ??__FstrKey@?1??GetNextAssoc@CPropertyMap@@EBEXAAPAU__POSITION@@AAPBD1@Z@YAXXZ ; `CPropertyMap::GetNextAssoc'::`2'::`dynamic atexit destructor for 'strKey''
  00085	e8 00 00 00 00	 call	 _atexit
  0008a	68 00 00 00 00	 push	 OFFSET ?$TSS0@?1??GetNextAssoc@CPropertyMap@@EBEXAAPAU__POSITION@@AAPBD1@Z@4HA ; `CPropertyMap::GetNextAssoc'::`2'::$TSS0
  0008f	e8 00 00 00 00	 call	 __Init_thread_footer
  00094	83 c4 08	 add	 esp, 8
  00097	eb 8a		 jmp	 SHORT $LN2@GetNextAss
$LN11@GetNextAss:
  00099	68 00 00 00 00	 push	 OFFSET ?$TSS1@?1??GetNextAssoc@CPropertyMap@@EBEXAAPAU__POSITION@@AAPBD1@Z@4HA ; `CPropertyMap::GetNextAssoc'::`2'::$TSS1
  0009e	e8 00 00 00 00	 call	 __Init_thread_header
  000a3	83 c4 04	 add	 esp, 4
  000a6	83 3d 00 00 00
	00 ff		 cmp	 DWORD PTR ?$TSS1@?1??GetNextAssoc@CPropertyMap@@EBEXAAPAU__POSITION@@AAPBD1@Z@4HA, -1 ; `CPropertyMap::GetNextAssoc'::`2'::$TSS1
  000ad	75 81		 jne	 SHORT $LN3@GetNextAss
  000af	b9 00 00 00 00	 mov	 ecx, OFFSET ?strValue@?1??GetNextAssoc@CPropertyMap@@EBEXAAPAU__POSITION@@AAPBD1@Z@4V?$CStringT@DV?$StrTraitMFC_DLL@DV?$ChTraitsCRT@D@ATL@@@@@ATL@@A ; `CPropertyMap::GetNextAssoc'::`2'::strValue
  000b4	ff 15 00 00 00
	00		 call	 DWORD PTR __imp_??0?$CStringT@DV?$StrTraitMFC_DLL@DV?$ChTraitsCRT@D@ATL@@@@@ATL@@QAE@XZ
  000ba	68 00 00 00 00	 push	 OFFSET ??__FstrValue@?1??GetNextAssoc@CPropertyMap@@EBEXAAPAU__POSITION@@AAPBD1@Z@YAXXZ ; `CPropertyMap::GetNextAssoc'::`2'::`dynamic atexit destructor for 'strValue''
  000bf	e8 00 00 00 00	 call	 _atexit
  000c4	68 00 00 00 00	 push	 OFFSET ?$TSS1@?1??GetNextAssoc@CPropertyMap@@EBEXAAPAU__POSITION@@AAPBD1@Z@4HA ; `CPropertyMap::GetNextAssoc'::`2'::$TSS1
  000c9	e8 00 00 00 00	 call	 __Init_thread_footer
  000ce	83 c4 08	 add	 esp, 8
  000d1	e9 5a ff ff ff	 jmp	 $LN3@GetNextAss
?GetNextAssoc@CPropertyMap@@EBEXAAPAU__POSITION@@AAPBD1@Z ENDP ; CPropertyMap::GetNextAssoc
_TEXT	ENDS
; Function compile flags: /Ogtp
; File D:\git\src\IBK\IBK_DRFN\ProjSrc\SrcChartEx\ChartOCX\Include_Chart\PropertyMap.h
; File C:\Program Files (x86)\Microsoft Visual Studio\2019\Community\VC\Tools\MSVC\14.29.30133\atlmfc\include\afxcoll.inl
; File D:\git\src\IBK\IBK_DRFN\ProjSrc\SrcChartEx\ChartOCX\Include_Chart\PropertyMap.h
;	COMDAT ?GetStartPosition@CPropertyMap@@EBEPAU__POSITION@@XZ
_TEXT	SEGMENT
?GetStartPosition@CPropertyMap@@EBEPAU__POSITION@@XZ PROC ; CPropertyMap::GetStartPosition, COMDAT
; _this$ = ecx
; File C:\Program Files (x86)\Microsoft Visual Studio\2019\Community\VC\Tools\MSVC\14.29.30133\atlmfc\include\afxcoll.inl

; 660  : 	{ return (m_nCount == 0) ? NULL : BEFORE_START_POSITION; }

  00000	8b 41 f0	 mov	 eax, DWORD PTR [ecx-16]
  00003	f7 d8		 neg	 eax
  00005	1b c0		 sbb	 eax, eax
; File D:\git\src\IBK\IBK_DRFN\ProjSrc\SrcChartEx\ChartOCX\Include_Chart\PropertyMap.h

; 53   : 	virtual POSITION GetStartPosition() const							{	return CMapStringToString::GetStartPosition();	}

  00007	c3		 ret	 0
?GetStartPosition@CPropertyMap@@EBEPAU__POSITION@@XZ ENDP ; CPropertyMap::GetStartPosition
_TEXT	ENDS
; Function compile flags: /Ogtp
; File D:\git\src\IBK\IBK_DRFN\ProjSrc\SrcChartEx\ChartOCX\Include_Chart\PropertyMap.h
;	COMDAT ?RemoveAll@CPropertyMap@@EAEXXZ
_TEXT	SEGMENT
?RemoveAll@CPropertyMap@@EAEXXZ PROC			; CPropertyMap::RemoveAll, COMDAT
; _this$ = ecx

; 50   : 	virtual void RemoveAll()											{	CMapStringToString::RemoveAll();	}

  00000	83 c1 e4	 add	 ecx, -28		; ffffffe4H
  00003	e9 00 00 00 00	 jmp	 ?RemoveAll@CMapStringToString@@QAEXXZ ; CMapStringToString::RemoveAll
?RemoveAll@CPropertyMap@@EAEXXZ ENDP			; CPropertyMap::RemoveAll
_TEXT	ENDS
; Function compile flags: /Ogtp
; File D:\git\src\IBK\IBK_DRFN\ProjSrc\SrcChartEx\ChartOCX\Include_Chart\PropertyMap.h
;	COMDAT ?RemoveKey@CPropertyMap@@EAEHPBD@Z
_TEXT	SEGMENT
_key$ = 8						; size = 4
?RemoveKey@CPropertyMap@@EAEHPBD@Z PROC			; CPropertyMap::RemoveKey, COMDAT
; _this$ = ecx

; 49   : 	virtual BOOL RemoveKey(LPCTSTR key)									{	return CMapStringToString::RemoveKey( key);	}

  00000	55		 push	 ebp
  00001	8b ec		 mov	 ebp, esp
  00003	83 c1 e4	 add	 ecx, -28		; ffffffe4H
  00006	5d		 pop	 ebp
  00007	e9 00 00 00 00	 jmp	 ?RemoveKey@CMapStringToString@@QAEHPBD@Z ; CMapStringToString::RemoveKey
?RemoveKey@CPropertyMap@@EAEHPBD@Z ENDP			; CPropertyMap::RemoveKey
_TEXT	ENDS
; Function compile flags: /Ogtp
; File D:\git\src\IBK\IBK_DRFN\ProjSrc\SrcChartEx\ChartOCX\Include_Chart\PropertyMap.h
; File C:\Program Files (x86)\Microsoft Visual Studio\2019\Community\VC\Tools\MSVC\14.29.30133\atlmfc\include\afxcoll.inl
; File D:\git\src\IBK\IBK_DRFN\ProjSrc\SrcChartEx\ChartOCX\Include_Chart\PropertyMap.h
; File C:\Program Files (x86)\Microsoft Visual Studio\2019\Community\VC\Tools\MSVC\14.29.30133\atlmfc\include\afxcoll.inl
; File D:\git\src\IBK\IBK_DRFN\ProjSrc\SrcChartEx\ChartOCX\Include_Chart\PropertyMap.h
;	COMDAT ?SetAt@CPropertyMap@@EAEXPBD0@Z
_TEXT	SEGMENT
_key$ = 8						; size = 4
_newValue$ = 12						; size = 4
?SetAt@CPropertyMap@@EAEXPBD0@Z PROC			; CPropertyMap::SetAt, COMDAT
; _this$ = ecx

; 46   : 	virtual void SetAt(LPCTSTR key, LPCTSTR newValue)					{	CMapStringToString::SetAt( key, newValue);	}

  00000	55		 push	 ebp
  00001	8b ec		 mov	 ebp, esp
; File C:\Program Files (x86)\Microsoft Visual Studio\2019\Community\VC\Tools\MSVC\14.29.30133\atlmfc\include\afxcoll.inl

; 658  : 	{ (*this)[key] = newValue; }

  00003	ff 75 0c	 push	 DWORD PTR _newValue$[ebp]
; File D:\git\src\IBK\IBK_DRFN\ProjSrc\SrcChartEx\ChartOCX\Include_Chart\PropertyMap.h

; 46   : 	virtual void SetAt(LPCTSTR key, LPCTSTR newValue)					{	CMapStringToString::SetAt( key, newValue);	}

  00006	83 c1 e4	 add	 ecx, -28		; ffffffe4H
; File C:\Program Files (x86)\Microsoft Visual Studio\2019\Community\VC\Tools\MSVC\14.29.30133\atlmfc\include\afxcoll.inl

; 658  : 	{ (*this)[key] = newValue; }

  00009	ff 75 08	 push	 DWORD PTR _key$[ebp]
  0000c	e8 00 00 00 00	 call	 ??ACMapStringToString@@QAEAAV?$CStringT@DV?$StrTraitMFC_DLL@DV?$ChTraitsCRT@D@ATL@@@@@ATL@@PBD@Z ; CMapStringToString::operator[]
  00011	8b c8		 mov	 ecx, eax
  00013	ff 15 00 00 00
	00		 call	 DWORD PTR __imp_??4?$CStringT@DV?$StrTraitMFC_DLL@DV?$ChTraitsCRT@D@ATL@@@@@ATL@@QAEAAV01@PBD@Z
; File D:\git\src\IBK\IBK_DRFN\ProjSrc\SrcChartEx\ChartOCX\Include_Chart\PropertyMap.h

; 46   : 	virtual void SetAt(LPCTSTR key, LPCTSTR newValue)					{	CMapStringToString::SetAt( key, newValue);	}

  00019	5d		 pop	 ebp
  0001a	c2 08 00	 ret	 8
?SetAt@CPropertyMap@@EAEXPBD0@Z ENDP			; CPropertyMap::SetAt
_TEXT	ENDS
; Function compile flags: /Ogtp
; File D:\git\src\IBK\IBK_DRFN\ProjSrc\SrcChartEx\ChartOCX\Include_Chart\PropertyMap.h
;	COMDAT ?LookupKey@CPropertyMap@@EBEHPBDAAPBD@Z
_TEXT	SEGMENT
_key$ = 8						; size = 4
_rKey$ = 12						; size = 4
?LookupKey@CPropertyMap@@EBEHPBDAAPBD@Z PROC		; CPropertyMap::LookupKey, COMDAT
; _this$ = ecx

; 42   : 	virtual BOOL LookupKey(LPCTSTR key, LPCTSTR& rKey) const			{	return CMapStringToString::LookupKey( key, rKey);	}

  00000	55		 push	 ebp
  00001	8b ec		 mov	 ebp, esp
  00003	83 c1 e4	 add	 ecx, -28		; ffffffe4H
  00006	5d		 pop	 ebp
  00007	e9 00 00 00 00	 jmp	 ?LookupKey@CMapStringToString@@QBEHPBDAAPBD@Z ; CMapStringToString::LookupKey
?LookupKey@CPropertyMap@@EBEHPBDAAPBD@Z ENDP		; CPropertyMap::LookupKey
_TEXT	ENDS
; Function compile flags: /Ogtp
; File D:\git\src\IBK\IBK_DRFN\ProjSrc\SrcChartEx\ChartOCX\Include_Chart\PropertyMap.h
;	COMDAT ?Lookup@CPropertyMap@@EBEHPBDAAPBD@Z
_TEXT	SEGMENT
_key$ = 8						; size = 4
_rValue$ = 12						; size = 4
?Lookup@CPropertyMap@@EBEHPBDAAPBD@Z PROC		; CPropertyMap::Lookup, COMDAT
; _this$ = ecx

; 30   : 	{

  00000	55		 push	 ebp
  00001	8b ec		 mov	 ebp, esp

; 31   : 		static CString strValue;

  00003	64 a1 00 00 00
	00		 mov	 eax, DWORD PTR fs:__tls_array
  00009	8b 15 00 00 00
	00		 mov	 edx, DWORD PTR __tls_index
  0000f	56		 push	 esi
  00010	8b f1		 mov	 esi, ecx
  00012	8b 14 90	 mov	 edx, DWORD PTR [eax+edx*4]
  00015	a1 00 00 00 00	 mov	 eax, DWORD PTR ?$TSS0@?1??Lookup@CPropertyMap@@EBEHPBDAAPBD@Z@4HA ; `CPropertyMap::Lookup'::`2'::$TSS0
  0001a	3b 82 00 00 00
	00		 cmp	 eax, DWORD PTR __Init_thread_epoch[edx]
  00020	7f 49		 jg	 SHORT $LN10@Lookup
$LN2@Lookup:

; 32   : 		BOOL bResult = CMapStringToString::Lookup( key, strValue);

  00022	68 00 00 00 00	 push	 OFFSET ?strValue@?1??Lookup@CPropertyMap@@EBEHPBDAAPBD@Z@4V?$CStringT@DV?$StrTraitMFC_DLL@DV?$ChTraitsCRT@D@ATL@@@@@ATL@@A ; `CPropertyMap::Lookup'::`2'::strValue
  00027	ff 75 08	 push	 DWORD PTR _key$[ebp]
  0002a	8d 4e e4	 lea	 ecx, DWORD PTR [esi-28]
  0002d	e8 00 00 00 00	 call	 ?Lookup@CMapStringToString@@QBEHPBDAAV?$CStringT@DV?$StrTraitMFC_DLL@DV?$ChTraitsCRT@D@ATL@@@@@ATL@@@Z ; CMapStringToString::Lookup
  00032	8b f0		 mov	 esi, eax

; 33   : 
; 34   : 		if( bResult == FALSE )

  00034	85 f6		 test	 esi, esi
  00036	75 22		 jne	 SHORT $LN7@Lookup

; 35   : 		{
; 36   : 			strValue = "";

  00038	68 00 00 00 00	 push	 OFFSET ??_C@_00CNPNBAHC@@
  0003d	b9 00 00 00 00	 mov	 ecx, OFFSET ?strValue@?1??Lookup@CPropertyMap@@EBEHPBDAAPBD@Z@4V?$CStringT@DV?$StrTraitMFC_DLL@DV?$ChTraitsCRT@D@ATL@@@@@ATL@@A ; `CPropertyMap::Lookup'::`2'::strValue
  00042	ff 15 00 00 00
	00		 call	 DWORD PTR __imp_??4?$CStringT@DV?$StrTraitMFC_DLL@DV?$ChTraitsCRT@D@ATL@@@@@ATL@@QAEAAV01@PBD@Z

; 37   : 		}
; 38   : 
; 39   : 		rValue = strValue;

  00048	8b 55 0c	 mov	 edx, DWORD PTR _rValue$[ebp]

; 40   : 		return bResult;
; 41   : 	}

  0004b	8b c6		 mov	 eax, esi
  0004d	8b 0d 00 00 00
	00		 mov	 ecx, DWORD PTR ?strValue@?1??Lookup@CPropertyMap@@EBEHPBDAAPBD@Z@4V?$CStringT@DV?$StrTraitMFC_DLL@DV?$ChTraitsCRT@D@ATL@@@@@ATL@@A ; `CPropertyMap::Lookup'::`2'::strValue
  00053	5e		 pop	 esi
  00054	89 0a		 mov	 DWORD PTR [edx], ecx
  00056	5d		 pop	 ebp
  00057	c2 08 00	 ret	 8
$LN7@Lookup:

; 37   : 		}
; 38   : 
; 39   : 		rValue = strValue;

  0005a	8b 4d 0c	 mov	 ecx, DWORD PTR _rValue$[ebp]
  0005d	a1 00 00 00 00	 mov	 eax, DWORD PTR ?strValue@?1??Lookup@CPropertyMap@@EBEHPBDAAPBD@Z@4V?$CStringT@DV?$StrTraitMFC_DLL@DV?$ChTraitsCRT@D@ATL@@@@@ATL@@A ; `CPropertyMap::Lookup'::`2'::strValue
  00062	89 01		 mov	 DWORD PTR [ecx], eax

; 40   : 		return bResult;
; 41   : 	}

  00064	8b c6		 mov	 eax, esi
  00066	5e		 pop	 esi
  00067	5d		 pop	 ebp
  00068	c2 08 00	 ret	 8
$LN10@Lookup:

; 31   : 		static CString strValue;

  0006b	68 00 00 00 00	 push	 OFFSET ?$TSS0@?1??Lookup@CPropertyMap@@EBEHPBDAAPBD@Z@4HA ; `CPropertyMap::Lookup'::`2'::$TSS0
  00070	e8 00 00 00 00	 call	 __Init_thread_header
  00075	83 c4 04	 add	 esp, 4
  00078	83 3d 00 00 00
	00 ff		 cmp	 DWORD PTR ?$TSS0@?1??Lookup@CPropertyMap@@EBEHPBDAAPBD@Z@4HA, -1 ; `CPropertyMap::Lookup'::`2'::$TSS0
  0007f	75 a1		 jne	 SHORT $LN2@Lookup
  00081	b9 00 00 00 00	 mov	 ecx, OFFSET ?strValue@?1??Lookup@CPropertyMap@@EBEHPBDAAPBD@Z@4V?$CStringT@DV?$StrTraitMFC_DLL@DV?$ChTraitsCRT@D@ATL@@@@@ATL@@A ; `CPropertyMap::Lookup'::`2'::strValue
  00086	ff 15 00 00 00
	00		 call	 DWORD PTR __imp_??0?$CStringT@DV?$StrTraitMFC_DLL@DV?$ChTraitsCRT@D@ATL@@@@@ATL@@QAE@XZ
  0008c	68 00 00 00 00	 push	 OFFSET ??__FstrValue@?1??Lookup@CPropertyMap@@EBEHPBDAAPBD@Z@YAXXZ ; `CPropertyMap::Lookup'::`2'::`dynamic atexit destructor for 'strValue''
  00091	e8 00 00 00 00	 call	 _atexit
  00096	68 00 00 00 00	 push	 OFFSET ?$TSS0@?1??Lookup@CPropertyMap@@EBEHPBDAAPBD@Z@4HA ; `CPropertyMap::Lookup'::`2'::$TSS0
  0009b	e8 00 00 00 00	 call	 __Init_thread_footer
  000a0	83 c4 08	 add	 esp, 8
  000a3	e9 7a ff ff ff	 jmp	 $LN2@Lookup
?Lookup@CPropertyMap@@EBEHPBDAAPBD@Z ENDP		; CPropertyMap::Lookup
_TEXT	ENDS
; Function compile flags: /Ogtp
; File D:\git\src\IBK\IBK_DRFN\ProjSrc\SrcChartEx\ChartOCX\Include_Chart\PropertyMap.h
; File C:\Program Files (x86)\Microsoft Visual Studio\2019\Community\VC\Tools\MSVC\14.29.30133\atlmfc\include\afxcoll.inl
; File D:\git\src\IBK\IBK_DRFN\ProjSrc\SrcChartEx\ChartOCX\Include_Chart\PropertyMap.h
;	COMDAT ?IsEmpty@CPropertyMap@@EBEHXZ
_TEXT	SEGMENT
?IsEmpty@CPropertyMap@@EBEHXZ PROC			; CPropertyMap::IsEmpty, COMDAT
; _this$ = ecx
; File C:\Program Files (x86)\Microsoft Visual Studio\2019\Community\VC\Tools\MSVC\14.29.30133\atlmfc\include\afxcoll.inl

; 656  : 	{ return m_nCount == 0; }

  00000	33 c0		 xor	 eax, eax
  00002	39 41 f0	 cmp	 DWORD PTR [ecx-16], eax
  00005	0f 94 c0	 sete	 al
; File D:\git\src\IBK\IBK_DRFN\ProjSrc\SrcChartEx\ChartOCX\Include_Chart\PropertyMap.h

; 26   : 	virtual BOOL IsEmpty() const										{	return CMapStringToString::IsEmpty();	}

  00008	c3		 ret	 0
?IsEmpty@CPropertyMap@@EBEHXZ ENDP			; CPropertyMap::IsEmpty
_TEXT	ENDS
; Function compile flags: /Ogtp
; File D:\git\src\IBK\IBK_DRFN\ProjSrc\SrcChartEx\ChartOCX\Include_Chart\PropertyMap.h
;	COMDAT ?GetCount@CPropertyMap@@EBEHXZ
_TEXT	SEGMENT
?GetCount@CPropertyMap@@EBEHXZ PROC			; CPropertyMap::GetCount, COMDAT
; _this$ = ecx

; 25   : 	virtual int GetCount() const										{	return CMapStringToString::GetCount();	}

  00000	8b 41 f0	 mov	 eax, DWORD PTR [ecx-16]
  00003	c3		 ret	 0
?GetCount@CPropertyMap@@EBEHXZ ENDP			; CPropertyMap::GetCount
_TEXT	ENDS
; Function compile flags: /Ogtp
;	COMDAT ??_GIPropertyMap@@MAEPAXI@Z
_TEXT	SEGMENT
___flags$ = 8						; size = 4
??_GIPropertyMap@@MAEPAXI@Z PROC			; IPropertyMap::`scalar deleting destructor', COMDAT
; _this$ = ecx
  00000	55		 push	 ebp
  00001	8b ec		 mov	 ebp, esp
  00003	f6 45 08 01	 test	 BYTE PTR ___flags$[ebp], 1
  00007	56		 push	 esi
  00008	8b f1		 mov	 esi, ecx
  0000a	c7 06 00 00 00
	00		 mov	 DWORD PTR [esi], OFFSET ??_7IPropertyMap@@6B@
  00010	74 0b		 je	 SHORT $LN4@scalar
  00012	6a 04		 push	 4
  00014	56		 push	 esi
  00015	e8 00 00 00 00	 call	 ??3@YAXPAXI@Z		; operator delete
  0001a	83 c4 08	 add	 esp, 8
$LN4@scalar:
  0001d	8b c6		 mov	 eax, esi
  0001f	5e		 pop	 esi
  00020	5d		 pop	 ebp
  00021	c2 04 00	 ret	 4
??_GIPropertyMap@@MAEPAXI@Z ENDP			; IPropertyMap::`scalar deleting destructor'
_TEXT	ENDS
; Function compile flags: /Ogtp
; File D:\git\src\IBK\IBK_DRFN\ProjSrc\SrcChartEx\ChartOCX\Include_Chart\IPropertyMap.h
;	COMDAT ??1IPropertyMap@@MAE@XZ
_TEXT	SEGMENT
??1IPropertyMap@@MAE@XZ PROC				; IPropertyMap::~IPropertyMap, COMDAT
; _this$ = ecx

; 22   : 	virtual ~IPropertyMap()	{}

  00000	c7 01 00 00 00
	00		 mov	 DWORD PTR [ecx], OFFSET ??_7IPropertyMap@@6B@
  00006	c3		 ret	 0
??1IPropertyMap@@MAE@XZ ENDP				; IPropertyMap::~IPropertyMap
_TEXT	ENDS
; Function compile flags: /Ogtp
; File D:\git\src\IBK\IBK_DRFN\ProjSrc\SrcChartEx\ChartOCX\Include\DumpLogger.h
; File C:\Program Files (x86)\Microsoft Visual Studio\2019\Community\VC\Tools\MSVC\14.29.30133\atlmfc\include\afx.inl
;	COMDAT ??_GCDumpLogger@@UAEPAXI@Z
_TEXT	SEGMENT
___flags$ = 8						; size = 4
??_GCDumpLogger@@UAEPAXI@Z PROC				; CDumpLogger::`scalar deleting destructor', COMDAT
; _this$ = ecx
  00000	55		 push	 ebp
  00001	8b ec		 mov	 ebp, esp
; File D:\git\src\IBK\IBK_DRFN\ProjSrc\SrcChartEx\ChartOCX\Include\DumpLogger.h

; 55   : 	{

  00003	56		 push	 esi
  00004	8b f1		 mov	 esi, ecx

; 56   : 		// 6. Dump File .
; 57   : 		if( m_hLogFile != HFILE_ERROR) _lclose( m_hLogFile);

  00006	8b 46 04	 mov	 eax, DWORD PTR [esi+4]
  00009	c7 06 00 00 00
	00		 mov	 DWORD PTR [esi], OFFSET ??_7CDumpLogger@@6B@
  0000f	83 f8 ff	 cmp	 eax, -1
  00012	74 07		 je	 SHORT $LN8@scalar
  00014	50		 push	 eax
  00015	ff 15 00 00 00
	00		 call	 DWORD PTR __imp___lclose@4
$LN8@scalar:
  0001b	8b 45 08	 mov	 eax, DWORD PTR ___flags$[ebp]
  0001e	a8 01		 test	 al, 1
  00020	74 1f		 je	 SHORT $LN13@scalar
  00022	a8 04		 test	 al, 4
  00024	75 10		 jne	 SHORT $LN3@scalar
; File C:\Program Files (x86)\Microsoft Visual Studio\2019\Community\VC\Tools\MSVC\14.29.30133\atlmfc\include\afx.inl

; 112  : 	{ ::operator delete(p); }

  00026	56		 push	 esi
  00027	e8 00 00 00 00	 call	 ??3@YAXPAX@Z		; operator delete
  0002c	83 c4 04	 add	 esp, 4
  0002f	8b c6		 mov	 eax, esi
  00031	5e		 pop	 esi
  00032	5d		 pop	 ebp
  00033	c2 04 00	 ret	 4
$LN3@scalar:
  00036	6a 08		 push	 8
  00038	56		 push	 esi
  00039	e8 00 00 00 00	 call	 ?__global_delete@@YAXPAXI@Z ; __global_delete
  0003e	83 c4 08	 add	 esp, 8
$LN13@scalar:
  00041	8b c6		 mov	 eax, esi
  00043	5e		 pop	 esi
  00044	5d		 pop	 ebp
  00045	c2 04 00	 ret	 4
??_GCDumpLogger@@UAEPAXI@Z ENDP				; CDumpLogger::`scalar deleting destructor'
_TEXT	ENDS
; Function compile flags: /Ogtp
; File D:\git\src\IBK\IBK_DRFN\ProjSrc\SrcChartEx\ChartOCX\Include\DumpLogger.h
; File C:\Program Files (x86)\Microsoft Visual Studio\2019\Community\VC\Tools\MSVC\14.29.30133\atlmfc\include\cstringt.h
; File D:\git\src\IBK\IBK_DRFN\ProjSrc\SrcChartEx\ChartOCX\Include\DumpLogger.h
; File C:\Program Files (x86)\Microsoft Visual Studio\2019\Community\VC\Tools\MSVC\14.29.30133\atlmfc\include\cstringt.h
; File C:\Program Files (x86)\Microsoft Visual Studio\2019\Community\VC\Tools\MSVC\14.29.30133\atlmfc\include\atlsimpstr.h
; File C:\Program Files (x86)\Microsoft Visual Studio\2019\Community\VC\Tools\MSVC\14.29.30133\atlmfc\include\cstringt.h
; File C:\Program Files (x86)\Microsoft Visual Studio\2019\Community\VC\Tools\MSVC\14.29.30133\atlmfc\include\atlsimpstr.h
; File C:\Program Files (x86)\Microsoft Visual Studio\2019\Community\VC\Tools\MSVC\14.29.30133\atlmfc\include\cstringt.h
; File D:\git\src\IBK\IBK_DRFN\ProjSrc\SrcChartEx\ChartOCX\Include\DumpLogger.h
; File C:\Program Files (x86)\Microsoft Visual Studio\2019\Community\VC\Tools\MSVC\14.29.30133\atlmfc\include\cstringt.h
; File D:\git\src\IBK\IBK_DRFN\ProjSrc\SrcChartEx\ChartOCX\Include\DumpLogger.h
;	COMDAT ?WriteToStringLog@CDumpLogger@@QAEXPBD0H@Z
_TEXT	SEGMENT
$T2 = -52						; size = 4
_strBuffer$ = -48					; size = 4
_strCurTime$3 = -44					; size = 4
$T4 = -40						; size = 4
_strCurTime$5 = -36					; size = 4
$T6 = -36						; size = 4
_sTime$ = -32						; size = 16
__$ArrayPad$ = -16					; size = 4
__$EHRec$ = -12						; size = 12
_p_szSection$ = 8					; size = 4
_p_szData$ = 12						; size = 4
_p_nDataLen$ = 16					; size = 4
?WriteToStringLog@CDumpLogger@@QAEXPBD0H@Z PROC		; CDumpLogger::WriteToStringLog, COMDAT
; _this$ = ecx

; 148  : 	{

  00000	55		 push	 ebp
  00001	8b ec		 mov	 ebp, esp
  00003	6a ff		 push	 -1
  00005	68 00 00 00 00	 push	 __ehhandler$?WriteToStringLog@CDumpLogger@@QAEXPBD0H@Z
  0000a	64 a1 00 00 00
	00		 mov	 eax, DWORD PTR fs:0
  00010	50		 push	 eax
  00011	83 ec 28	 sub	 esp, 40			; 00000028H
  00014	a1 00 00 00 00	 mov	 eax, DWORD PTR ___security_cookie
  00019	33 c5		 xor	 eax, ebp
  0001b	89 45 f0	 mov	 DWORD PTR __$ArrayPad$[ebp], eax
  0001e	53		 push	 ebx
  0001f	56		 push	 esi
  00020	57		 push	 edi
  00021	50		 push	 eax
  00022	8d 45 f4	 lea	 eax, DWORD PTR __$EHRec$[ebp]
  00025	64 a3 00 00 00
	00		 mov	 DWORD PTR fs:0, eax
  0002b	8b f9		 mov	 edi, ecx
  0002d	8b 75 08	 mov	 esi, DWORD PTR _p_szSection$[ebp]
  00030	8b 5d 0c	 mov	 ebx, DWORD PTR _p_szData$[ebp]
  00033	c7 45 cc 00 00
	00 00		 mov	 DWORD PTR $T2[ebp], 0

; 149  : 		if( m_hLogFile == HFILE_ERROR) return;

  0003a	83 7f 04 ff	 cmp	 DWORD PTR [edi+4], -1
  0003e	0f 84 6f 01 00
	00		 je	 $LN1@WriteToStr

; 150  : 
; 151  : 		// 1.  Logging  .
; 152  : 		SYSTEMTIME sTime;
; 153  : 		GetLocalTime(&sTime);

  00044	8d 45 e0	 lea	 eax, DWORD PTR _sTime$[ebp]
  00047	50		 push	 eax
  00048	ff 15 00 00 00
	00		 call	 DWORD PTR __imp__GetLocalTime@4

; 154  : 
; 155  : 		// 4.  Section Value  Section String .
; 156  : 		CString strBuffer;

  0004e	8d 4d d0	 lea	 ecx, DWORD PTR _strBuffer$[ebp]
  00051	ff 15 00 00 00
	00		 call	 DWORD PTR __imp_??0?$CStringT@DV?$StrTraitMFC_DLL@DV?$ChTraitsCRT@D@ATL@@@@@ATL@@QAE@XZ
  00057	c7 45 fc 00 00
	00 00		 mov	 DWORD PTR __$EHRec$[ebp+8], 0

; 157  : 		if( p_szSection && *p_szSection != '\0')

  0005e	85 f6		 test	 esi, esi
  00060	0f 84 ed 00 00
	00		 je	 $LN3@WriteToStr
  00066	80 3e 00	 cmp	 BYTE PTR [esi], 0
  00069	0f 84 e4 00 00
	00		 je	 $LN3@WriteToStr

; 158  : 		{
; 159  : 			CString strCurTime;

  0006f	8d 4d d4	 lea	 ecx, DWORD PTR _strCurTime$3[ebp]
  00072	ff 15 00 00 00
	00		 call	 DWORD PTR __imp_??0?$CStringT@DV?$StrTraitMFC_DLL@DV?$ChTraitsCRT@D@ATL@@@@@ATL@@QAE@XZ

; 160  : 			// (2005/9/1 - Seung-Won, Bae) Line Skip for Only Section.
; 161  : 			strCurTime.Format("\r\n\r\n\r\n[%02d:%02d:%02d:%03d  ", sTime.wHour, sTime.wMinute, sTime.wSecond, 

  00078	0f b7 45 ee	 movzx	 eax, WORD PTR _sTime$[ebp+14]
  0007c	50		 push	 eax
  0007d	0f b7 45 ec	 movzx	 eax, WORD PTR _sTime$[ebp+12]
  00081	50		 push	 eax
  00082	0f b7 45 ea	 movzx	 eax, WORD PTR _sTime$[ebp+10]
  00086	50		 push	 eax
  00087	0f b7 45 e8	 movzx	 eax, WORD PTR _sTime$[ebp+8]
  0008b	50		 push	 eax
  0008c	8d 45 d4	 lea	 eax, DWORD PTR _strCurTime$3[ebp]
  0008f	c6 45 fc 01	 mov	 BYTE PTR __$EHRec$[ebp+8], 1
  00093	68 00 00 00 00	 push	 OFFSET ??_C@_0BN@HKLPFIKN@?$AN?6?$AN?6?$AN?6?$FL?$CF02d?3?$CF02d?3?$CF02d?3?$CF03d?5?5@
  00098	50		 push	 eax
  00099	ff 15 00 00 00
	00		 call	 DWORD PTR __imp_?Format@?$CStringT@DV?$StrTraitMFC_DLL@DV?$ChTraitsCRT@D@ATL@@@@@ATL@@QAAXPBDZZ
  0009f	83 c4 18	 add	 esp, 24			; 00000018H
; File C:\Program Files (x86)\Microsoft Visual Studio\2019\Community\VC\Tools\MSVC\14.29.30133\atlmfc\include\cstringt.h

; 2401 : 		CStringT strResult( str1.GetManager() );

  000a2	8d 4d d4	 lea	 ecx, DWORD PTR _strCurTime$3[ebp]
; File D:\git\src\IBK\IBK_DRFN\ProjSrc\SrcChartEx\ChartOCX\Include\DumpLogger.h

; 163  : 			strBuffer = strCurTime + p_szSection + "]\r\n";

  000a5	c6 45 fc 02	 mov	 BYTE PTR __$EHRec$[ebp+8], 2
; File C:\Program Files (x86)\Microsoft Visual Studio\2019\Community\VC\Tools\MSVC\14.29.30133\atlmfc\include\cstringt.h

; 2401 : 		CStringT strResult( str1.GetManager() );

  000a9	ff 15 00 00 00
	00		 call	 DWORD PTR __imp_?GetManager@?$CStringT@DV?$StrTraitMFC_DLL@DV?$ChTraitsCRT@D@ATL@@@@@ATL@@QBEPAUIAtlStringMgr@2@XZ
  000af	50		 push	 eax
  000b0	8d 4d d8	 lea	 ecx, DWORD PTR $T4[ebp]
  000b3	ff 15 00 00 00
	00		 call	 DWORD PTR __imp_??0?$CStringT@DV?$StrTraitMFC_DLL@DV?$ChTraitsCRT@D@ATL@@@@@ATL@@QAE@PAUIAtlStringMgr@1@@Z
; File C:\Program Files (x86)\Microsoft Visual Studio\2019\Community\VC\Tools\MSVC\14.29.30133\atlmfc\include\atlsimpstr.h

; 726  : 		return( int( strlen( psz ) ) );

  000b9	8b ce		 mov	 ecx, esi
; File C:\Program Files (x86)\Microsoft Visual Studio\2019\Community\VC\Tools\MSVC\14.29.30133\atlmfc\include\cstringt.h

; 2405 : 		return( strResult );

  000bb	c7 45 cc 01 00
	00 00		 mov	 DWORD PTR $T2[ebp], 1
; File C:\Program Files (x86)\Microsoft Visual Studio\2019\Community\VC\Tools\MSVC\14.29.30133\atlmfc\include\atlsimpstr.h

; 726  : 		return( int( strlen( psz ) ) );

  000c2	8d 51 01	 lea	 edx, DWORD PTR [ecx+1]
$LL49@WriteToStr:
  000c5	8a 01		 mov	 al, BYTE PTR [ecx]
  000c7	41		 inc	 ecx
  000c8	84 c0		 test	 al, al
  000ca	75 f9		 jne	 SHORT $LL49@WriteToStr

; 519  : 		return( GetData()->nDataLength );

  000cc	8b 45 d4	 mov	 eax, DWORD PTR _strCurTime$3[ebp]

; 726  : 		return( int( strlen( psz ) ) );

  000cf	2b ca		 sub	 ecx, edx
; File C:\Program Files (x86)\Microsoft Visual Studio\2019\Community\VC\Tools\MSVC\14.29.30133\atlmfc\include\cstringt.h

; 2403 : 		CThisSimpleString::Concatenate( strResult, str1, str1.GetLength(), psz2, CThisSimpleString::StringLength( psz2 ) );

  000d1	51		 push	 ecx
  000d2	56		 push	 esi
  000d3	ff 70 f4	 push	 DWORD PTR [eax-12]
  000d6	50		 push	 eax
  000d7	8d 45 d8	 lea	 eax, DWORD PTR $T4[ebp]
  000da	50		 push	 eax
  000db	ff 15 00 00 00
	00		 call	 DWORD PTR __imp_?Concatenate@?$CSimpleStringT@D$00@ATL@@KAXAAV12@PBDH1H@Z
  000e1	83 c4 14	 add	 esp, 20			; 00000014H

; 2401 : 		CStringT strResult( str1.GetManager() );

  000e4	8d 4d d8	 lea	 ecx, DWORD PTR $T4[ebp]
; File D:\git\src\IBK\IBK_DRFN\ProjSrc\SrcChartEx\ChartOCX\Include\DumpLogger.h

; 163  : 			strBuffer = strCurTime + p_szSection + "]\r\n";

  000e7	c6 45 fc 03	 mov	 BYTE PTR __$EHRec$[ebp+8], 3
; File C:\Program Files (x86)\Microsoft Visual Studio\2019\Community\VC\Tools\MSVC\14.29.30133\atlmfc\include\cstringt.h

; 2401 : 		CStringT strResult( str1.GetManager() );

  000eb	ff 15 00 00 00
	00		 call	 DWORD PTR __imp_?GetManager@?$CStringT@DV?$StrTraitMFC_DLL@DV?$ChTraitsCRT@D@ATL@@@@@ATL@@QBEPAUIAtlStringMgr@2@XZ
  000f1	50		 push	 eax
  000f2	8d 4d dc	 lea	 ecx, DWORD PTR $T6[ebp]
  000f5	ff 15 00 00 00
	00		 call	 DWORD PTR __imp_??0?$CStringT@DV?$StrTraitMFC_DLL@DV?$ChTraitsCRT@D@ATL@@@@@ATL@@QAE@PAUIAtlStringMgr@1@@Z

; 2403 : 		CThisSimpleString::Concatenate( strResult, str1, str1.GetLength(), psz2, CThisSimpleString::StringLength( psz2 ) );

  000fb	8b 45 d8	 mov	 eax, DWORD PTR $T4[ebp]
  000fe	6a 03		 push	 3
  00100	68 00 00 00 00	 push	 OFFSET ??_C@_03BFOLIMEF@?$FN?$AN?6@

; 2405 : 		return( strResult );

  00105	c7 45 cc 03 00
	00 00		 mov	 DWORD PTR $T2[ebp], 3
  0010c	ff 70 f4	 push	 DWORD PTR [eax-12]
  0010f	50		 push	 eax
  00110	8d 45 dc	 lea	 eax, DWORD PTR $T6[ebp]
  00113	50		 push	 eax
  00114	ff 15 00 00 00
	00		 call	 DWORD PTR __imp_?Concatenate@?$CSimpleStringT@D$00@ATL@@KAXAAV12@PBDH1H@Z
  0011a	83 c4 14	 add	 esp, 20			; 00000014H
; File D:\git\src\IBK\IBK_DRFN\ProjSrc\SrcChartEx\ChartOCX\Include\DumpLogger.h

; 163  : 			strBuffer = strCurTime + p_szSection + "]\r\n";

  0011d	8d 45 dc	 lea	 eax, DWORD PTR $T6[ebp]
  00120	8d 4d d0	 lea	 ecx, DWORD PTR _strBuffer$[ebp]
  00123	50		 push	 eax
  00124	ff 15 00 00 00
	00		 call	 DWORD PTR __imp_??4?$CStringT@DV?$StrTraitMFC_DLL@DV?$ChTraitsCRT@D@ATL@@@@@ATL@@QAEAAV01@ABV01@@Z
  0012a	8d 4d dc	 lea	 ecx, DWORD PTR $T6[ebp]
  0012d	ff 15 00 00 00
	00		 call	 DWORD PTR __imp_??1?$CStringT@DV?$StrTraitMFC_DLL@DV?$ChTraitsCRT@D@ATL@@@@@ATL@@QAE@XZ
  00133	8d 4d d8	 lea	 ecx, DWORD PTR $T4[ebp]
  00136	ff 15 00 00 00
	00		 call	 DWORD PTR __imp_??1?$CStringT@DV?$StrTraitMFC_DLL@DV?$ChTraitsCRT@D@ATL@@@@@ATL@@QAE@XZ

; 164  : 			_hwrite( m_hLogFile, ( LPCTSTR)strBuffer, strBuffer.GetLength());

  0013c	8b 45 d0	 mov	 eax, DWORD PTR _strBuffer$[ebp]
  0013f	8b 35 00 00 00
	00		 mov	 esi, DWORD PTR __imp___hwrite@12
  00145	ff 70 f4	 push	 DWORD PTR [eax-12]
  00148	50		 push	 eax
  00149	ff 77 04	 push	 DWORD PTR [edi+4]
  0014c	ff d6		 call	 esi

; 165  : 		}

  0014e	8d 4d d4	 lea	 ecx, DWORD PTR _strCurTime$3[ebp]
  00151	eb 48		 jmp	 SHORT $LN51@WriteToStr
$LN3@WriteToStr:

; 166  : 		// (2005/9/2 - Seung-Won, Bae) in No Section Log, Insert Time in front of Line
; 167  : 		else
; 168  : 		{
; 169  : 			CString strCurTime;

  00153	8d 4d dc	 lea	 ecx, DWORD PTR _strCurTime$5[ebp]
  00156	ff 15 00 00 00
	00		 call	 DWORD PTR __imp_??0?$CStringT@DV?$StrTraitMFC_DLL@DV?$ChTraitsCRT@D@ATL@@@@@ATL@@QAE@XZ

; 170  : 			strCurTime.Format("%02d:%02d:%02d:%03d\t", sTime.wHour, sTime.wMinute, sTime.wSecond, 

  0015c	0f b7 45 ee	 movzx	 eax, WORD PTR _sTime$[ebp+14]
  00160	50		 push	 eax
  00161	0f b7 45 ec	 movzx	 eax, WORD PTR _sTime$[ebp+12]
  00165	50		 push	 eax
  00166	0f b7 45 ea	 movzx	 eax, WORD PTR _sTime$[ebp+10]
  0016a	50		 push	 eax
  0016b	0f b7 45 e8	 movzx	 eax, WORD PTR _sTime$[ebp+8]
  0016f	50		 push	 eax
  00170	8d 45 dc	 lea	 eax, DWORD PTR _strCurTime$5[ebp]
  00173	c6 45 fc 04	 mov	 BYTE PTR __$EHRec$[ebp+8], 4
  00177	68 00 00 00 00	 push	 OFFSET ??_C@_0BF@GOEHBEJD@?$CF02d?3?$CF02d?3?$CF02d?3?$CF03d?7@
  0017c	50		 push	 eax
  0017d	ff 15 00 00 00
	00		 call	 DWORD PTR __imp_?Format@?$CStringT@DV?$StrTraitMFC_DLL@DV?$ChTraitsCRT@D@ATL@@@@@ATL@@QAAXPBDZZ

; 171  : 				sTime.wMilliseconds);
; 172  : 			_hwrite( m_hLogFile, strCurTime, strCurTime.GetLength());

  00183	8b 45 dc	 mov	 eax, DWORD PTR _strCurTime$5[ebp]
  00186	83 c4 18	 add	 esp, 24			; 00000018H
  00189	8b 35 00 00 00
	00		 mov	 esi, DWORD PTR __imp___hwrite@12
  0018f	ff 70 f4	 push	 DWORD PTR [eax-12]
  00192	50		 push	 eax
  00193	ff 77 04	 push	 DWORD PTR [edi+4]
  00196	ff d6		 call	 esi

; 173  : 		}

  00198	8d 4d dc	 lea	 ecx, DWORD PTR _strCurTime$5[ebp]
$LN51@WriteToStr:

; 174  : 
; 175  : 		// 5. Memory Dump.
; 176  : 		_hwrite( m_hLogFile, p_szData, p_nDataLen);

  0019b	ff 15 00 00 00
	00		 call	 DWORD PTR __imp_??1?$CStringT@DV?$StrTraitMFC_DLL@DV?$ChTraitsCRT@D@ATL@@@@@ATL@@QAE@XZ
  001a1	ff 75 10	 push	 DWORD PTR _p_nDataLen$[ebp]
  001a4	53		 push	 ebx
  001a5	ff 77 04	 push	 DWORD PTR [edi+4]
  001a8	ff d6		 call	 esi

; 177  : 	}

  001aa	8d 4d d0	 lea	 ecx, DWORD PTR _strBuffer$[ebp]
  001ad	ff 15 00 00 00
	00		 call	 DWORD PTR __imp_??1?$CStringT@DV?$StrTraitMFC_DLL@DV?$ChTraitsCRT@D@ATL@@@@@ATL@@QAE@XZ
$LN1@WriteToStr:
  001b3	8b 4d f4	 mov	 ecx, DWORD PTR __$EHRec$[ebp]
  001b6	64 89 0d 00 00
	00 00		 mov	 DWORD PTR fs:0, ecx
  001bd	59		 pop	 ecx
  001be	5f		 pop	 edi
  001bf	5e		 pop	 esi
  001c0	5b		 pop	 ebx
  001c1	8b 4d f0	 mov	 ecx, DWORD PTR __$ArrayPad$[ebp]
  001c4	33 cd		 xor	 ecx, ebp
  001c6	e8 00 00 00 00	 call	 @__security_check_cookie@4
  001cb	8b e5		 mov	 esp, ebp
  001cd	5d		 pop	 ebp
  001ce	c2 0c 00	 ret	 12			; 0000000cH
_TEXT	ENDS
;	COMDAT text$x
text$x	SEGMENT
__unwindfunclet$?WriteToStringLog@CDumpLogger@@QAEXPBD0H@Z$0:
  00000	8d 4d d0	 lea	 ecx, DWORD PTR _strBuffer$[ebp]
  00003	ff 25 00 00 00
	00		 jmp	 DWORD PTR __imp_??1?$CStringT@DV?$StrTraitMFC_DLL@DV?$ChTraitsCRT@D@ATL@@@@@ATL@@QAE@XZ
__unwindfunclet$?WriteToStringLog@CDumpLogger@@QAEXPBD0H@Z$1:
  00009	8d 4d d4	 lea	 ecx, DWORD PTR _strCurTime$3[ebp]
  0000c	ff 25 00 00 00
	00		 jmp	 DWORD PTR __imp_??1?$CStringT@DV?$StrTraitMFC_DLL@DV?$ChTraitsCRT@D@ATL@@@@@ATL@@QAE@XZ
__unwindfunclet$?WriteToStringLog@CDumpLogger@@QAEXPBD0H@Z$5:
  00012	8b 45 cc	 mov	 eax, DWORD PTR $T2[ebp]
  00015	83 e0 01	 and	 eax, 1
  00018	0f 84 0d 00 00
	00		 je	 $LN14@WriteToStr
  0001e	83 65 cc fe	 and	 DWORD PTR $T2[ebp], -2	; fffffffeH
  00022	8d 4d d8	 lea	 ecx, DWORD PTR $T4[ebp]
  00025	ff 25 00 00 00
	00		 jmp	 DWORD PTR __imp_??1?$CStringT@DV?$StrTraitMFC_DLL@DV?$ChTraitsCRT@D@ATL@@@@@ATL@@QAE@XZ
$LN14@WriteToStr:
  0002b	c3		 ret	 0
__unwindfunclet$?WriteToStringLog@CDumpLogger@@QAEXPBD0H@Z$6:
  0002c	8b 45 cc	 mov	 eax, DWORD PTR $T2[ebp]
  0002f	83 e0 02	 and	 eax, 2
  00032	0f 84 0d 00 00
	00		 je	 $LN27@WriteToStr
  00038	83 65 cc fd	 and	 DWORD PTR $T2[ebp], -3	; fffffffdH
  0003c	8d 4d dc	 lea	 ecx, DWORD PTR $T6[ebp]
  0003f	ff 25 00 00 00
	00		 jmp	 DWORD PTR __imp_??1?$CStringT@DV?$StrTraitMFC_DLL@DV?$ChTraitsCRT@D@ATL@@@@@ATL@@QAE@XZ
$LN27@WriteToStr:
  00045	c3		 ret	 0
__unwindfunclet$?WriteToStringLog@CDumpLogger@@QAEXPBD0H@Z$4:
  00046	8d 4d dc	 lea	 ecx, DWORD PTR _strCurTime$5[ebp]
  00049	ff 25 00 00 00
	00		 jmp	 DWORD PTR __imp_??1?$CStringT@DV?$StrTraitMFC_DLL@DV?$ChTraitsCRT@D@ATL@@@@@ATL@@QAE@XZ
  0004f	cc		 int	 3
  00050	cc		 int	 3
  00051	cc		 int	 3
  00052	cc		 int	 3
  00053	cc		 int	 3
__ehhandler$?WriteToStringLog@CDumpLogger@@QAEXPBD0H@Z:
  00054	90		 npad	 1
  00055	90		 npad	 1
  00056	8b 54 24 08	 mov	 edx, DWORD PTR [esp+8]
  0005a	8d 42 0c	 lea	 eax, DWORD PTR [edx+12]
  0005d	8b 4a c8	 mov	 ecx, DWORD PTR [edx-56]
  00060	33 c8		 xor	 ecx, eax
  00062	e8 00 00 00 00	 call	 @__security_check_cookie@4
  00067	8b 4a fc	 mov	 ecx, DWORD PTR [edx-4]
  0006a	33 c8		 xor	 ecx, eax
  0006c	e8 00 00 00 00	 call	 @__security_check_cookie@4
  00071	b8 00 00 00 00	 mov	 eax, OFFSET __ehfuncinfo$?WriteToStringLog@CDumpLogger@@QAEXPBD0H@Z
  00076	e9 00 00 00 00	 jmp	 ___CxxFrameHandler3
text$x	ENDS
?WriteToStringLog@CDumpLogger@@QAEXPBD0H@Z ENDP		; CDumpLogger::WriteToStringLog
; Function compile flags: /Ogtp
; File D:\git\src\IBK\IBK_DRFN\ProjSrc\SrcChartEx\ChartOCX\Include\DumpLogger.h
;	COMDAT ??1CDumpLogger@@UAE@XZ
_TEXT	SEGMENT
??1CDumpLogger@@UAE@XZ PROC				; CDumpLogger::~CDumpLogger, COMDAT
; _this$ = ecx

; 56   : 		// 6. Dump File .
; 57   : 		if( m_hLogFile != HFILE_ERROR) _lclose( m_hLogFile);

  00000	8b 41 04	 mov	 eax, DWORD PTR [ecx+4]
  00003	c7 01 00 00 00
	00		 mov	 DWORD PTR [ecx], OFFSET ??_7CDumpLogger@@6B@
  00009	83 f8 ff	 cmp	 eax, -1
  0000c	74 07		 je	 SHORT $LN2@CDumpLogge
  0000e	50		 push	 eax
  0000f	ff 15 00 00 00
	00		 call	 DWORD PTR __imp___lclose@4
$LN2@CDumpLogge:

; 58   : 	}

  00015	c3		 ret	 0
??1CDumpLogger@@UAE@XZ ENDP				; CDumpLogger::~CDumpLogger
_TEXT	ENDS
; Function compile flags: /Ogtp
; File D:\git\src\IBK\IBK_DRFN\ProjSrc\SrcChartEx\ChartOCX\AddInManager\ChartCommonAddIn\LogAddInImp.cpp
; File C:\Program Files (x86)\Microsoft Visual Studio\2019\Community\VC\Tools\MSVC\14.29.30133\atlmfc\include\afx.inl
;	COMDAT ??_GCLogAddInImp@@UAEPAXI@Z
_TEXT	SEGMENT
__$EHRec$ = -12						; size = 12
___flags$ = 8						; size = 4
??_GCLogAddInImp@@UAEPAXI@Z PROC			; CLogAddInImp::`scalar deleting destructor', COMDAT
; _this$ = ecx
  00000	55		 push	 ebp
  00001	8b ec		 mov	 ebp, esp
  00003	6a ff		 push	 -1
  00005	68 00 00 00 00	 push	 __ehhandler$??_GCLogAddInImp@@UAEPAXI@Z
  0000a	64 a1 00 00 00
	00		 mov	 eax, DWORD PTR fs:0
  00010	50		 push	 eax
  00011	56		 push	 esi
  00012	a1 00 00 00 00	 mov	 eax, DWORD PTR ___security_cookie
  00017	33 c5		 xor	 eax, ebp
  00019	50		 push	 eax
  0001a	8d 45 f4	 lea	 eax, DWORD PTR __$EHRec$[ebp]
  0001d	64 a3 00 00 00
	00		 mov	 DWORD PTR fs:0, eax
  00023	8b f1		 mov	 esi, ecx
; File D:\git\src\IBK\IBK_DRFN\ProjSrc\SrcChartEx\ChartOCX\AddInManager\ChartCommonAddIn\LogAddInImp.cpp

; 42   : 	if( m_pIChartOCX) m_pIChartOCX->SetLoggingFlag( FALSE);

  00025	8b 4e 0c	 mov	 ecx, DWORD PTR [esi+12]
  00028	c7 45 fc 00 00
	00 00		 mov	 DWORD PTR __$EHRec$[ebp+8], 0
  0002f	c7 06 00 00 00
	00		 mov	 DWORD PTR [esi], OFFSET ??_7CLogAddInImp@@6BCIWUnknown@@@
  00035	c7 46 08 00 00
	00 00		 mov	 DWORD PTR [esi+8], OFFSET ??_7CLogAddInImp@@6BIChartAddIn000000@@@
  0003c	85 c9		 test	 ecx, ecx
  0003e	74 0a		 je	 SHORT $LN8@scalar
  00040	8b 01		 mov	 eax, DWORD PTR [ecx]
  00042	6a 00		 push	 0
  00044	ff 90 a0 01 00
	00		 call	 DWORD PTR [eax+416]
$LN8@scalar:

; 43   : 
; 44   : 	// (2005/9/2 - Seung-Won, Bae) Manage Logger
; 45   : 	if( m_pDumpLogger)

  0004a	8b 4e 40	 mov	 ecx, DWORD PTR [esi+64]
  0004d	85 c9		 test	 ecx, ecx
  0004f	74 0e		 je	 SHORT $LN9@scalar

; 46   : 	{
; 47   : 		delete m_pDumpLogger;

  00051	8b 01		 mov	 eax, DWORD PTR [ecx]
  00053	6a 01		 push	 1
  00055	ff 50 04	 call	 DWORD PTR [eax+4]

; 48   : 		m_pDumpLogger = NULL;

  00058	c7 46 40 00 00
	00 00		 mov	 DWORD PTR [esi+64], 0
$LN9@scalar:

; 49   : 	}
; 50   : }

  0005f	8d 4e 44	 lea	 ecx, DWORD PTR [esi+68]
  00062	ff 15 00 00 00
	00		 call	 DWORD PTR __imp_??1?$CStringT@DV?$StrTraitMFC_DLL@DV?$ChTraitsCRT@D@ATL@@@@@ATL@@QAE@XZ
  00068	8b ce		 mov	 ecx, esi
  0006a	e8 00 00 00 00	 call	 ??1CChartAddInBase000000@@MAE@XZ ; CChartAddInBase000000::~CChartAddInBase000000
  0006f	8b 45 08	 mov	 eax, DWORD PTR ___flags$[ebp]
  00072	a8 01		 test	 al, 1
  00074	74 2c		 je	 SHORT $LN16@scalar
  00076	a8 04		 test	 al, 4
  00078	75 1d		 jne	 SHORT $LN3@scalar
; File C:\Program Files (x86)\Microsoft Visual Studio\2019\Community\VC\Tools\MSVC\14.29.30133\atlmfc\include\afx.inl

; 112  : 	{ ::operator delete(p); }

  0007a	56		 push	 esi
  0007b	e8 00 00 00 00	 call	 ??3@YAXPAX@Z		; operator delete
  00080	83 c4 04	 add	 esp, 4
  00083	8b c6		 mov	 eax, esi
  00085	8b 4d f4	 mov	 ecx, DWORD PTR __$EHRec$[ebp]
  00088	64 89 0d 00 00
	00 00		 mov	 DWORD PTR fs:0, ecx
  0008f	59		 pop	 ecx
  00090	5e		 pop	 esi
  00091	8b e5		 mov	 esp, ebp
  00093	5d		 pop	 ebp
  00094	c2 04 00	 ret	 4
$LN3@scalar:
  00097	6a 48		 push	 72			; 00000048H
  00099	56		 push	 esi
  0009a	e8 00 00 00 00	 call	 ?__global_delete@@YAXPAXI@Z ; __global_delete
  0009f	83 c4 08	 add	 esp, 8
$LN16@scalar:
  000a2	8b c6		 mov	 eax, esi
  000a4	8b 4d f4	 mov	 ecx, DWORD PTR __$EHRec$[ebp]
  000a7	64 89 0d 00 00
	00 00		 mov	 DWORD PTR fs:0, ecx
  000ae	59		 pop	 ecx
  000af	5e		 pop	 esi
  000b0	8b e5		 mov	 esp, ebp
  000b2	5d		 pop	 ebp
  000b3	c2 04 00	 ret	 4
  000b6	cc		 int	 3
  000b7	cc		 int	 3
  000b8	cc		 int	 3
  000b9	cc		 int	 3
  000ba	cc		 int	 3
_TEXT	ENDS
;	COMDAT text$x
text$x	SEGMENT
__ehhandler$??_GCLogAddInImp@@UAEPAXI@Z:
  00000	90		 npad	 1
  00001	90		 npad	 1
  00002	8b 54 24 08	 mov	 edx, DWORD PTR [esp+8]
  00006	8d 42 0c	 lea	 eax, DWORD PTR [edx+12]
  00009	8b 4a f8	 mov	 ecx, DWORD PTR [edx-8]
  0000c	33 c8		 xor	 ecx, eax
  0000e	e8 00 00 00 00	 call	 @__security_check_cookie@4
  00013	b8 00 00 00 00	 mov	 eax, OFFSET __ehfuncinfo$??_GCLogAddInImp@@UAEPAXI@Z
  00018	e9 00 00 00 00	 jmp	 ___CxxFrameHandler3
text$x	ENDS
??_GCLogAddInImp@@UAEPAXI@Z ENDP			; CLogAddInImp::`scalar deleting destructor'
; Function compile flags: /Ogtp
; File D:\git\src\IBK\IBK_DRFN\ProjSrc\SrcChartEx\ChartOCX\AddInManager\ChartCommonAddIn\LogAddInImp.cpp
;	COMDAT ?OnLButtonDblClk@CLogAddInImp@@MAEHPAUHDC__@@IAAUtagPOINT@@K@Z
_TEXT	SEGMENT
_strLogData$ = -16					; size = 4
__$EHRec$ = -12						; size = 12
_p_hDC$ = 8						; size = 4
_nFlags$ = 12						; size = 4
_point$ = 16						; size = 4
_p_dwMouseActionID$ = 20				; size = 4
?OnLButtonDblClk@CLogAddInImp@@MAEHPAUHDC__@@IAAUtagPOINT@@K@Z PROC ; CLogAddInImp::OnLButtonDblClk, COMDAT
; _this$ = ecx

; 490  : {

  00000	55		 push	 ebp
  00001	8b ec		 mov	 ebp, esp
  00003	6a ff		 push	 -1
  00005	68 00 00 00 00	 push	 __ehhandler$?OnLButtonDblClk@CLogAddInImp@@MAEHPAUHDC__@@IAAUtagPOINT@@K@Z
  0000a	64 a1 00 00 00
	00		 mov	 eax, DWORD PTR fs:0
  00010	50		 push	 eax
  00011	51		 push	 ecx
  00012	56		 push	 esi
  00013	a1 00 00 00 00	 mov	 eax, DWORD PTR ___security_cookie
  00018	33 c5		 xor	 eax, ebp
  0001a	50		 push	 eax
  0001b	8d 45 f4	 lea	 eax, DWORD PTR __$EHRec$[ebp]
  0001e	64 a3 00 00 00
	00		 mov	 DWORD PTR fs:0, eax
  00024	8b f1		 mov	 esi, ecx

; 491  : 	if( !m_pDumpLogger) return FALSE;

  00026	83 7e 38 00	 cmp	 DWORD PTR [esi+56], 0
  0002a	74 47		 je	 SHORT $LN12@OnLButtonD

; 492  : 	CString strLogData;

  0002c	8d 4d f0	 lea	 ecx, DWORD PTR _strLogData$[ebp]
  0002f	ff 15 00 00 00
	00		 call	 DWORD PTR __imp_??0?$CStringT@DV?$StrTraitMFC_DLL@DV?$ChTraitsCRT@D@ATL@@@@@ATL@@QAE@XZ

; 493  : 	strLogData.Format( "OnLButtonDblClk\t%ud\t%ld\t%ld\r\n", nFlags, point.x, point.y);

  00035	8b 45 10	 mov	 eax, DWORD PTR _point$[ebp]
  00038	c7 45 fc 00 00
	00 00		 mov	 DWORD PTR __$EHRec$[ebp+8], 0
  0003f	ff 70 04	 push	 DWORD PTR [eax+4]
  00042	ff 30		 push	 DWORD PTR [eax]
  00044	8d 45 f0	 lea	 eax, DWORD PTR _strLogData$[ebp]
  00047	ff 75 0c	 push	 DWORD PTR _nFlags$[ebp]
  0004a	68 00 00 00 00	 push	 OFFSET ??_C@_0BO@FECOABGG@OnLButtonDblClk?7?$CFud?7?$CFld?7?$CFld?$AN?6@
  0004f	50		 push	 eax
  00050	ff 15 00 00 00
	00		 call	 DWORD PTR __imp_?Format@?$CStringT@DV?$StrTraitMFC_DLL@DV?$ChTraitsCRT@D@ATL@@@@@ATL@@QAAXPBDZZ

; 494  : 	m_pDumpLogger->WriteToStringLog( NULL, strLogData, strLogData.GetLength());

  00056	8b 45 f0	 mov	 eax, DWORD PTR _strLogData$[ebp]
  00059	83 c4 14	 add	 esp, 20			; 00000014H
  0005c	8b 4e 38	 mov	 ecx, DWORD PTR [esi+56]
  0005f	ff 70 f4	 push	 DWORD PTR [eax-12]
  00062	50		 push	 eax
  00063	6a 00		 push	 0
  00065	e8 00 00 00 00	 call	 ?WriteToStringLog@CDumpLogger@@QAEXPBD0H@Z ; CDumpLogger::WriteToStringLog

; 495  : 	return FALSE;

  0006a	8d 4d f0	 lea	 ecx, DWORD PTR _strLogData$[ebp]
  0006d	ff 15 00 00 00
	00		 call	 DWORD PTR __imp_??1?$CStringT@DV?$StrTraitMFC_DLL@DV?$ChTraitsCRT@D@ATL@@@@@ATL@@QAE@XZ
$LN12@OnLButtonD:

; 496  : }

  00073	33 c0		 xor	 eax, eax
  00075	8b 4d f4	 mov	 ecx, DWORD PTR __$EHRec$[ebp]
  00078	64 89 0d 00 00
	00 00		 mov	 DWORD PTR fs:0, ecx
  0007f	59		 pop	 ecx
  00080	5e		 pop	 esi
  00081	8b e5		 mov	 esp, ebp
  00083	5d		 pop	 ebp
  00084	c2 10 00	 ret	 16			; 00000010H
_TEXT	ENDS
;	COMDAT text$x
text$x	SEGMENT
__unwindfunclet$?OnLButtonDblClk@CLogAddInImp@@MAEHPAUHDC__@@IAAUtagPOINT@@K@Z$0:
  00000	8d 4d f0	 lea	 ecx, DWORD PTR _strLogData$[ebp]
  00003	ff 25 00 00 00
	00		 jmp	 DWORD PTR __imp_??1?$CStringT@DV?$StrTraitMFC_DLL@DV?$ChTraitsCRT@D@ATL@@@@@ATL@@QAE@XZ
  00009	cc		 int	 3
  0000a	cc		 int	 3
  0000b	cc		 int	 3
  0000c	cc		 int	 3
  0000d	cc		 int	 3
__ehhandler$?OnLButtonDblClk@CLogAddInImp@@MAEHPAUHDC__@@IAAUtagPOINT@@K@Z:
  0000e	90		 npad	 1
  0000f	90		 npad	 1
  00010	8b 54 24 08	 mov	 edx, DWORD PTR [esp+8]
  00014	8d 42 0c	 lea	 eax, DWORD PTR [edx+12]
  00017	8b 4a f4	 mov	 ecx, DWORD PTR [edx-12]
  0001a	33 c8		 xor	 ecx, eax
  0001c	e8 00 00 00 00	 call	 @__security_check_cookie@4
  00021	b8 00 00 00 00	 mov	 eax, OFFSET __ehfuncinfo$?OnLButtonDblClk@CLogAddInImp@@MAEHPAUHDC__@@IAAUtagPOINT@@K@Z
  00026	e9 00 00 00 00	 jmp	 ___CxxFrameHandler3
text$x	ENDS
?OnLButtonDblClk@CLogAddInImp@@MAEHPAUHDC__@@IAAUtagPOINT@@K@Z ENDP ; CLogAddInImp::OnLButtonDblClk
; Function compile flags: /Ogtp
; File D:\git\src\IBK\IBK_DRFN\ProjSrc\SrcChartEx\ChartOCX\AddInManager\ChartCommonAddIn\LogAddInImp.cpp
;	COMDAT ?OnKeyDown@CLogAddInImp@@MAEHIII@Z
_TEXT	SEGMENT
_strLogData$ = -16					; size = 4
__$EHRec$ = -12						; size = 12
_nChar$ = 8						; size = 4
_nRepCnt$ = 12						; size = 4
_nFlags$ = 16						; size = 4
?OnKeyDown@CLogAddInImp@@MAEHIII@Z PROC			; CLogAddInImp::OnKeyDown, COMDAT
; _this$ = ecx

; 481  : {

  00000	55		 push	 ebp
  00001	8b ec		 mov	 ebp, esp
  00003	6a ff		 push	 -1
  00005	68 00 00 00 00	 push	 __ehhandler$?OnKeyDown@CLogAddInImp@@MAEHIII@Z
  0000a	64 a1 00 00 00
	00		 mov	 eax, DWORD PTR fs:0
  00010	50		 push	 eax
  00011	51		 push	 ecx
  00012	56		 push	 esi
  00013	a1 00 00 00 00	 mov	 eax, DWORD PTR ___security_cookie
  00018	33 c5		 xor	 eax, ebp
  0001a	50		 push	 eax
  0001b	8d 45 f4	 lea	 eax, DWORD PTR __$EHRec$[ebp]
  0001e	64 a3 00 00 00
	00		 mov	 DWORD PTR fs:0, eax
  00024	8b f1		 mov	 esi, ecx

; 482  : 	if( !m_pDumpLogger) return FALSE;

  00026	83 7e 38 00	 cmp	 DWORD PTR [esi+56], 0
  0002a	74 45		 je	 SHORT $LN12@OnKeyDown

; 483  : 	CString strLogData;

  0002c	8d 4d f0	 lea	 ecx, DWORD PTR _strLogData$[ebp]
  0002f	ff 15 00 00 00
	00		 call	 DWORD PTR __imp_??0?$CStringT@DV?$StrTraitMFC_DLL@DV?$ChTraitsCRT@D@ATL@@@@@ATL@@QAE@XZ

; 484  : 	strLogData.Format( "OnKeyDown\t%ud\t%ud\t%ud\r\n", nChar, nRepCnt, nFlags);

  00035	ff 75 10	 push	 DWORD PTR _nFlags$[ebp]
  00038	8d 45 f0	 lea	 eax, DWORD PTR _strLogData$[ebp]
  0003b	c7 45 fc 00 00
	00 00		 mov	 DWORD PTR __$EHRec$[ebp+8], 0
  00042	ff 75 0c	 push	 DWORD PTR _nRepCnt$[ebp]
  00045	ff 75 08	 push	 DWORD PTR _nChar$[ebp]
  00048	68 00 00 00 00	 push	 OFFSET ??_C@_0BI@DCLFLHGC@OnKeyDown?7?$CFud?7?$CFud?7?$CFud?$AN?6@
  0004d	50		 push	 eax
  0004e	ff 15 00 00 00
	00		 call	 DWORD PTR __imp_?Format@?$CStringT@DV?$StrTraitMFC_DLL@DV?$ChTraitsCRT@D@ATL@@@@@ATL@@QAAXPBDZZ

; 485  : 	m_pDumpLogger->WriteToStringLog( NULL, strLogData, strLogData.GetLength());

  00054	8b 45 f0	 mov	 eax, DWORD PTR _strLogData$[ebp]
  00057	83 c4 14	 add	 esp, 20			; 00000014H
  0005a	8b 4e 38	 mov	 ecx, DWORD PTR [esi+56]
  0005d	ff 70 f4	 push	 DWORD PTR [eax-12]
  00060	50		 push	 eax
  00061	6a 00		 push	 0
  00063	e8 00 00 00 00	 call	 ?WriteToStringLog@CDumpLogger@@QAEXPBD0H@Z ; CDumpLogger::WriteToStringLog

; 486  : 	// (2006/1/21 - Seung-Won, Bae) return FALSE to pass the Event to a next AddIn Routine.
; 487  : 	return FALSE;

  00068	8d 4d f0	 lea	 ecx, DWORD PTR _strLogData$[ebp]
  0006b	ff 15 00 00 00
	00		 call	 DWORD PTR __imp_??1?$CStringT@DV?$StrTraitMFC_DLL@DV?$ChTraitsCRT@D@ATL@@@@@ATL@@QAE@XZ
$LN12@OnKeyDown:

; 488  : }

  00071	33 c0		 xor	 eax, eax
  00073	8b 4d f4	 mov	 ecx, DWORD PTR __$EHRec$[ebp]
  00076	64 89 0d 00 00
	00 00		 mov	 DWORD PTR fs:0, ecx
  0007d	59		 pop	 ecx
  0007e	5e		 pop	 esi
  0007f	8b e5		 mov	 esp, ebp
  00081	5d		 pop	 ebp
  00082	c2 0c 00	 ret	 12			; 0000000cH
_TEXT	ENDS
;	COMDAT text$x
text$x	SEGMENT
__unwindfunclet$?OnKeyDown@CLogAddInImp@@MAEHIII@Z$0:
  00000	8d 4d f0	 lea	 ecx, DWORD PTR _strLogData$[ebp]
  00003	ff 25 00 00 00
	00		 jmp	 DWORD PTR __imp_??1?$CStringT@DV?$StrTraitMFC_DLL@DV?$ChTraitsCRT@D@ATL@@@@@ATL@@QAE@XZ
  00009	cc		 int	 3
  0000a	cc		 int	 3
  0000b	cc		 int	 3
  0000c	cc		 int	 3
  0000d	cc		 int	 3
__ehhandler$?OnKeyDown@CLogAddInImp@@MAEHIII@Z:
  0000e	90		 npad	 1
  0000f	90		 npad	 1
  00010	8b 54 24 08	 mov	 edx, DWORD PTR [esp+8]
  00014	8d 42 0c	 lea	 eax, DWORD PTR [edx+12]
  00017	8b 4a f4	 mov	 ecx, DWORD PTR [edx-12]
  0001a	33 c8		 xor	 ecx, eax
  0001c	e8 00 00 00 00	 call	 @__security_check_cookie@4
  00021	b8 00 00 00 00	 mov	 eax, OFFSET __ehfuncinfo$?OnKeyDown@CLogAddInImp@@MAEHIII@Z
  00026	e9 00 00 00 00	 jmp	 ___CxxFrameHandler3
text$x	ENDS
?OnKeyDown@CLogAddInImp@@MAEHIII@Z ENDP			; CLogAddInImp::OnKeyDown
; Function compile flags: /Ogtp
; File D:\git\src\IBK\IBK_DRFN\ProjSrc\SrcChartEx\ChartOCX\AddInManager\ChartCommonAddIn\LogAddInImp.cpp
;	COMDAT ?OnAddInToolCommand@CLogAddInImp@@MAEHW4EAICommandType@@JPBD11@Z
_TEXT	SEGMENT
__$EHRec$ = -12						; size = 12
_strLogData$2 = 8					; size = 4
_strLogData$3 = 8					; size = 4
_p_eCommandID$ = 8					; size = 4
_p_lParam$ = 12						; size = 4
_p_szParam1$ = 16					; size = 4
_p_szParam2$ = 20					; size = 4
_p_szParam3$ = 24					; size = 4
?OnAddInToolCommand@CLogAddInImp@@MAEHW4EAICommandType@@JPBD11@Z PROC ; CLogAddInImp::OnAddInToolCommand, COMDAT
; _this$ = ecx

; 463  : {

  00000	55		 push	 ebp
  00001	8b ec		 mov	 ebp, esp
  00003	6a ff		 push	 -1
  00005	68 00 00 00 00	 push	 __ehhandler$?OnAddInToolCommand@CLogAddInImp@@MAEHW4EAICommandType@@JPBD11@Z
  0000a	64 a1 00 00 00
	00		 mov	 eax, DWORD PTR fs:0
  00010	50		 push	 eax
  00011	56		 push	 esi
  00012	a1 00 00 00 00	 mov	 eax, DWORD PTR ___security_cookie
  00017	33 c5		 xor	 eax, ebp
  00019	50		 push	 eax
  0001a	8d 45 f4	 lea	 eax, DWORD PTR __$EHRec$[ebp]
  0001d	64 a3 00 00 00
	00		 mov	 DWORD PTR fs:0, eax
  00023	8b f1		 mov	 esi, ecx

; 464  : 	switch( p_eCommandID)

  00025	8b 45 08	 mov	 eax, DWORD PTR _p_eCommandID$[ebp]
  00028	83 e8 14	 sub	 eax, 20			; 00000014H
  0002b	74 42		 je	 SHORT $LN4@OnAddInToo
  0002d	83 e8 01	 sub	 eax, 1
  00030	74 14		 je	 SHORT $LN5@OnAddInToo

; 470  : 		default:	return FALSE;

  00032	33 c0		 xor	 eax, eax

; 473  : }

  00034	8b 4d f4	 mov	 ecx, DWORD PTR __$EHRec$[ebp]
  00037	64 89 0d 00 00
	00 00		 mov	 DWORD PTR fs:0, ecx
  0003e	59		 pop	 ecx
  0003f	5e		 pop	 esi
  00040	8b e5		 mov	 esp, ebp
  00042	5d		 pop	 ebp
  00043	c2 14 00	 ret	 20			; 00000014H
$LN5@OnAddInToo:

; 342  : 	if( !m_pDumpLogger) return;

  00046	83 7e 38 00	 cmp	 DWORD PTR [esi+56], 0
  0004a	74 71		 je	 SHORT $LN8@OnAddInToo

; 343  : 	CString strLogData;

  0004c	8d 4d 08	 lea	 ecx, DWORD PTR _strLogData$2[ebp]
  0004f	ff 15 00 00 00
	00		 call	 DWORD PTR __imp_??0?$CStringT@DV?$StrTraitMFC_DLL@DV?$ChTraitsCRT@D@ATL@@@@@ATL@@QAE@XZ

; 344  : 	strLogData.Format( "OffDrdsAdvise\t%u\t%s.%s(%s)\r\n", p_lRequestID, p_szPacket, p_szField, p_szAdviseKey);

  00055	ff 75 18	 push	 DWORD PTR _p_szParam3$[ebp]
  00058	c7 45 fc 01 00
	00 00		 mov	 DWORD PTR __$EHRec$[ebp+8], 1
  0005f	ff 75 14	 push	 DWORD PTR _p_szParam2$[ebp]
  00062	ff 75 10	 push	 DWORD PTR _p_szParam1$[ebp]
  00065	ff 75 0c	 push	 DWORD PTR _p_lParam$[ebp]
  00068	68 00 00 00 00	 push	 OFFSET ??_C@_0BN@NBCJMOLF@OffDrdsAdvise?7?$CFu?7?$CFs?4?$CFs?$CI?$CFs?$CJ?$AN?6@

; 465  : 	{
; 466  : 		case EAI_LOG_DRDS_ADVISE:	OnDrdsAdvise( p_lParam, p_szParam1, p_szParam2, p_szParam3);
; 467  : 									break;
; 468  : 		case EAI_LOG_DRDS_UNADVISE:	OffDrdsAdvise( p_lParam, p_szParam1, p_szParam2, p_szParam3);
; 469  : 									break;

  0006d	eb 27		 jmp	 SHORT $LN29@OnAddInToo
$LN4@OnAddInToo:

; 335  : 	if( !m_pDumpLogger) return;

  0006f	83 7e 38 00	 cmp	 DWORD PTR [esi+56], 0
  00073	74 48		 je	 SHORT $LN8@OnAddInToo

; 336  : 	CString strLogData;

  00075	8d 4d 08	 lea	 ecx, DWORD PTR _strLogData$3[ebp]
  00078	ff 15 00 00 00
	00		 call	 DWORD PTR __imp_??0?$CStringT@DV?$StrTraitMFC_DLL@DV?$ChTraitsCRT@D@ATL@@@@@ATL@@QAE@XZ

; 337  : 	strLogData.Format( "OnDrdsAdvise\t%u\t%s.%s(%s)\r\n", p_lRequestID, p_szPacket, p_szField, p_szAdviseKey);

  0007e	ff 75 18	 push	 DWORD PTR _p_szParam3$[ebp]
  00081	c7 45 fc 00 00
	00 00		 mov	 DWORD PTR __$EHRec$[ebp+8], 0
  00088	ff 75 14	 push	 DWORD PTR _p_szParam2$[ebp]
  0008b	ff 75 10	 push	 DWORD PTR _p_szParam1$[ebp]
  0008e	ff 75 0c	 push	 DWORD PTR _p_lParam$[ebp]
  00091	68 00 00 00 00	 push	 OFFSET ??_C@_0BM@IICBOOGN@OnDrdsAdvise?7?$CFu?7?$CFs?4?$CFs?$CI?$CFs?$CJ?$AN?6@
$LN29@OnAddInToo:

; 471  : 	}
; 472  : 	return TRUE;

  00096	8d 45 08	 lea	 eax, DWORD PTR _strLogData$3[ebp]
  00099	50		 push	 eax
  0009a	ff 15 00 00 00
	00		 call	 DWORD PTR __imp_?Format@?$CStringT@DV?$StrTraitMFC_DLL@DV?$ChTraitsCRT@D@ATL@@@@@ATL@@QAAXPBDZZ
  000a0	8b 45 08	 mov	 eax, DWORD PTR _strLogData$3[ebp]
  000a3	83 c4 18	 add	 esp, 24			; 00000018H
  000a6	8b 4e 38	 mov	 ecx, DWORD PTR [esi+56]
  000a9	ff 70 f4	 push	 DWORD PTR [eax-12]
  000ac	50		 push	 eax
  000ad	6a 00		 push	 0
  000af	e8 00 00 00 00	 call	 ?WriteToStringLog@CDumpLogger@@QAEXPBD0H@Z ; CDumpLogger::WriteToStringLog
  000b4	8d 4d 08	 lea	 ecx, DWORD PTR _strLogData$3[ebp]
  000b7	ff 15 00 00 00
	00		 call	 DWORD PTR __imp_??1?$CStringT@DV?$StrTraitMFC_DLL@DV?$ChTraitsCRT@D@ATL@@@@@ATL@@QAE@XZ
$LN8@OnAddInToo:
  000bd	b8 01 00 00 00	 mov	 eax, 1

; 473  : }

  000c2	8b 4d f4	 mov	 ecx, DWORD PTR __$EHRec$[ebp]
  000c5	64 89 0d 00 00
	00 00		 mov	 DWORD PTR fs:0, ecx
  000cc	59		 pop	 ecx
  000cd	5e		 pop	 esi
  000ce	8b e5		 mov	 esp, ebp
  000d0	5d		 pop	 ebp
  000d1	c2 14 00	 ret	 20			; 00000014H
_TEXT	ENDS
;	COMDAT text$x
text$x	SEGMENT
__unwindfunclet$?OnAddInToolCommand@CLogAddInImp@@MAEHW4EAICommandType@@JPBD11@Z$1:
  00000	8d 4d 08	 lea	 ecx, DWORD PTR _strLogData$2[ebp]
  00003	ff 25 00 00 00
	00		 jmp	 DWORD PTR __imp_??1?$CStringT@DV?$StrTraitMFC_DLL@DV?$ChTraitsCRT@D@ATL@@@@@ATL@@QAE@XZ
__unwindfunclet$?OnAddInToolCommand@CLogAddInImp@@MAEHW4EAICommandType@@JPBD11@Z$0:
  00009	8d 4d 08	 lea	 ecx, DWORD PTR _strLogData$3[ebp]
  0000c	ff 25 00 00 00
	00		 jmp	 DWORD PTR __imp_??1?$CStringT@DV?$StrTraitMFC_DLL@DV?$ChTraitsCRT@D@ATL@@@@@ATL@@QAE@XZ
  00012	cc		 int	 3
  00013	cc		 int	 3
  00014	cc		 int	 3
  00015	cc		 int	 3
  00016	cc		 int	 3
__ehhandler$?OnAddInToolCommand@CLogAddInImp@@MAEHW4EAICommandType@@JPBD11@Z:
  00017	90		 npad	 1
  00018	90		 npad	 1
  00019	8b 54 24 08	 mov	 edx, DWORD PTR [esp+8]
  0001d	8d 42 0c	 lea	 eax, DWORD PTR [edx+12]
  00020	8b 4a f8	 mov	 ecx, DWORD PTR [edx-8]
  00023	33 c8		 xor	 ecx, eax
  00025	e8 00 00 00 00	 call	 @__security_check_cookie@4
  0002a	b8 00 00 00 00	 mov	 eax, OFFSET __ehfuncinfo$?OnAddInToolCommand@CLogAddInImp@@MAEHW4EAICommandType@@JPBD11@Z
  0002f	e9 00 00 00 00	 jmp	 ___CxxFrameHandler3
text$x	ENDS
?OnAddInToolCommand@CLogAddInImp@@MAEHW4EAICommandType@@JPBD11@Z ENDP ; CLogAddInImp::OnAddInToolCommand
; Function compile flags: /Ogtp
; File D:\git\src\IBK\IBK_DRFN\ProjSrc\SrcChartEx\ChartOCX\AddInManager\ChartCommonAddIn\LogAddInImp.cpp
; File C:\Program Files (x86)\Microsoft Visual Studio\2019\Community\VC\Tools\MSVC\14.29.30133\atlmfc\include\atlsimpstr.h
; File D:\git\src\IBK\IBK_DRFN\ProjSrc\SrcChartEx\ChartOCX\AddInManager\ChartCommonAddIn\LogAddInImp.cpp
;	COMDAT ?OnAddInToolCommand@CLogAddInImp@@MAEHW4EAICommandType@@PBDJ@Z
_TEXT	SEGMENT
__$EHRec$ = -12						; size = 12
_strLogData$2 = 8					; size = 4
_p_eCommandID$ = 8					; size = 4
_strLogData$3 = 12					; size = 4
_p_szParam$ = 12					; size = 4
_p_lParam$ = 16						; size = 4
?OnAddInToolCommand@CLogAddInImp@@MAEHW4EAICommandType@@PBDJ@Z PROC ; CLogAddInImp::OnAddInToolCommand, COMDAT
; _this$ = ecx

; 453  : {

  00000	55		 push	 ebp
  00001	8b ec		 mov	 ebp, esp
  00003	6a ff		 push	 -1
  00005	68 00 00 00 00	 push	 __ehhandler$?OnAddInToolCommand@CLogAddInImp@@MAEHW4EAICommandType@@PBDJ@Z
  0000a	64 a1 00 00 00
	00		 mov	 eax, DWORD PTR fs:0
  00010	50		 push	 eax
  00011	56		 push	 esi
  00012	a1 00 00 00 00	 mov	 eax, DWORD PTR ___security_cookie
  00017	33 c5		 xor	 eax, ebp
  00019	50		 push	 eax
  0001a	8d 45 f4	 lea	 eax, DWORD PTR __$EHRec$[ebp]
  0001d	64 a3 00 00 00
	00		 mov	 DWORD PTR fs:0, eax
  00023	8b f1		 mov	 esi, ecx

; 454  : 	if( EAI_LOG_SET_IMAGENARY_CANDLE == p_eCommandID)

  00025	83 7d 08 03	 cmp	 DWORD PTR _p_eCommandID$[ebp], 3
  00029	0f 85 c3 00 00
	00		 jne	 $LN2@OnAddInToo

; 431  : 	if( !m_pDumpLogger || !p_szMsg) return;

  0002f	8b 46 38	 mov	 eax, DWORD PTR [esi+56]
  00032	85 c0		 test	 eax, eax
  00034	0f 84 a1 00 00
	00		 je	 $LN15@OnAddInToo
  0003a	83 7d 0c 00	 cmp	 DWORD PTR _p_szParam$[ebp], 0
  0003e	74 4d		 je	 SHORT $LN25@OnAddInToo

; 432  : 	CString strLogData;

  00040	8d 4d 08	 lea	 ecx, DWORD PTR _strLogData$2[ebp]
  00043	ff 15 00 00 00
	00		 call	 DWORD PTR __imp_??0?$CStringT@DV?$StrTraitMFC_DLL@DV?$ChTraitsCRT@D@ATL@@@@@ATL@@QAE@XZ

; 433  : 	strLogData.Format( "WriteLogMessage\t%s\r\n", p_szMsg);

  00049	ff 75 0c	 push	 DWORD PTR _p_szParam$[ebp]
  0004c	8d 45 08	 lea	 eax, DWORD PTR _strLogData$2[ebp]
  0004f	c7 45 fc 00 00
	00 00		 mov	 DWORD PTR __$EHRec$[ebp+8], 0
  00056	68 00 00 00 00	 push	 OFFSET ??_C@_0BF@DGGOINLJ@WriteLogMessage?7?$CFs?$AN?6@
  0005b	50		 push	 eax
  0005c	ff 15 00 00 00
	00		 call	 DWORD PTR __imp_?Format@?$CStringT@DV?$StrTraitMFC_DLL@DV?$ChTraitsCRT@D@ATL@@@@@ATL@@QAAXPBDZZ
; File C:\Program Files (x86)\Microsoft Visual Studio\2019\Community\VC\Tools\MSVC\14.29.30133\atlmfc\include\atlsimpstr.h

; 519  : 		return( GetData()->nDataLength );

  00062	8b 45 08	 mov	 eax, DWORD PTR _strLogData$2[ebp]
; File D:\git\src\IBK\IBK_DRFN\ProjSrc\SrcChartEx\ChartOCX\AddInManager\ChartCommonAddIn\LogAddInImp.cpp

; 433  : 	strLogData.Format( "WriteLogMessage\t%s\r\n", p_szMsg);

  00065	83 c4 0c	 add	 esp, 12			; 0000000cH

; 434  : 	m_pDumpLogger->WriteToStringLog( NULL, strLogData, strLogData.GetLength());

  00068	8b 4e 38	 mov	 ecx, DWORD PTR [esi+56]
  0006b	ff 70 f4	 push	 DWORD PTR [eax-12]
  0006e	50		 push	 eax
  0006f	6a 00		 push	 0
  00071	e8 00 00 00 00	 call	 ?WriteToStringLog@CDumpLogger@@QAEXPBD0H@Z ; CDumpLogger::WriteToStringLog

; 435  : }

  00076	8d 4d 08	 lea	 ecx, DWORD PTR _strLogData$2[ebp]
  00079	c7 45 fc ff ff
	ff ff		 mov	 DWORD PTR __$EHRec$[ebp+8], -1
  00080	ff 15 00 00 00
	00		 call	 DWORD PTR __imp_??1?$CStringT@DV?$StrTraitMFC_DLL@DV?$ChTraitsCRT@D@ATL@@@@@ATL@@QAE@XZ
  00086	8b 46 38	 mov	 eax, DWORD PTR [esi+56]

; 365  : 	if( !m_pDumpLogger) return;

  00089	85 c0		 test	 eax, eax
  0008b	74 4e		 je	 SHORT $LN15@OnAddInToo
$LN25@OnAddInToo:

; 366  : 	CString strLogData;

  0008d	8d 4d 0c	 lea	 ecx, DWORD PTR _strLogData$3[ebp]
  00090	ff 15 00 00 00
	00		 call	 DWORD PTR __imp_??0?$CStringT@DV?$StrTraitMFC_DLL@DV?$ChTraitsCRT@D@ATL@@@@@ATL@@QAE@XZ

; 367  : 	strLogData.Format( "OnNormalizedMinuteTimeRuleReset\t%s\r\n", ( p_bNormalizedMinuteTimeRule ? "TRUE" : "FALSE"));

  00096	83 7d 10 00	 cmp	 DWORD PTR _p_lParam$[ebp], 0
  0009a	b9 00 00 00 00	 mov	 ecx, OFFSET ??_C@_05MAJJAKPI@FALSE@
  0009f	b8 00 00 00 00	 mov	 eax, OFFSET ??_C@_04HCDDPBNL@TRUE@
  000a4	c7 45 fc 01 00
	00 00		 mov	 DWORD PTR __$EHRec$[ebp+8], 1
  000ab	0f 44 c1	 cmove	 eax, ecx
  000ae	50		 push	 eax
  000af	8d 45 0c	 lea	 eax, DWORD PTR _strLogData$3[ebp]
  000b2	68 00 00 00 00	 push	 OFFSET ??_C@_0CF@KDOONFGL@OnNormalizedMinuteTimeRuleReset@
  000b7	50		 push	 eax
  000b8	ff 15 00 00 00
	00		 call	 DWORD PTR __imp_?Format@?$CStringT@DV?$StrTraitMFC_DLL@DV?$ChTraitsCRT@D@ATL@@@@@ATL@@QAAXPBDZZ

; 368  : 	m_pDumpLogger->WriteToStringLog( NULL, strLogData, strLogData.GetLength());

  000be	8b 45 0c	 mov	 eax, DWORD PTR _strLogData$3[ebp]
  000c1	83 c4 0c	 add	 esp, 12			; 0000000cH
  000c4	8b 4e 38	 mov	 ecx, DWORD PTR [esi+56]
  000c7	ff 70 f4	 push	 DWORD PTR [eax-12]
  000ca	50		 push	 eax
  000cb	6a 00		 push	 0
  000cd	e8 00 00 00 00	 call	 ?WriteToStringLog@CDumpLogger@@QAEXPBD0H@Z ; CDumpLogger::WriteToStringLog

; 369  : }

  000d2	8d 4d 0c	 lea	 ecx, DWORD PTR _strLogData$3[ebp]
  000d5	ff 15 00 00 00
	00		 call	 DWORD PTR __imp_??1?$CStringT@DV?$StrTraitMFC_DLL@DV?$ChTraitsCRT@D@ATL@@@@@ATL@@QAE@XZ
$LN15@OnAddInToo:

; 455  : 	{
; 456  : 		WriteLogMessage( p_szParam);
; 457  : 		OnNormalizedMinuteTimeRuleReset( p_lParam);
; 458  : 		return TRUE;

  000db	b8 01 00 00 00	 mov	 eax, 1

; 461  : }

  000e0	8b 4d f4	 mov	 ecx, DWORD PTR __$EHRec$[ebp]
  000e3	64 89 0d 00 00
	00 00		 mov	 DWORD PTR fs:0, ecx
  000ea	59		 pop	 ecx
  000eb	5e		 pop	 esi
  000ec	8b e5		 mov	 esp, ebp
  000ee	5d		 pop	 ebp
  000ef	c2 0c 00	 ret	 12			; 0000000cH
$LN2@OnAddInToo:

; 459  : 	}
; 460  : 	return FALSE;

  000f2	33 c0		 xor	 eax, eax

; 461  : }

  000f4	8b 4d f4	 mov	 ecx, DWORD PTR __$EHRec$[ebp]
  000f7	64 89 0d 00 00
	00 00		 mov	 DWORD PTR fs:0, ecx
  000fe	59		 pop	 ecx
  000ff	5e		 pop	 esi
  00100	8b e5		 mov	 esp, ebp
  00102	5d		 pop	 ebp
  00103	c2 0c 00	 ret	 12			; 0000000cH
_TEXT	ENDS
;	COMDAT text$x
text$x	SEGMENT
__unwindfunclet$?OnAddInToolCommand@CLogAddInImp@@MAEHW4EAICommandType@@PBDJ@Z$0:
  00000	8d 4d 08	 lea	 ecx, DWORD PTR _strLogData$2[ebp]
  00003	ff 25 00 00 00
	00		 jmp	 DWORD PTR __imp_??1?$CStringT@DV?$StrTraitMFC_DLL@DV?$ChTraitsCRT@D@ATL@@@@@ATL@@QAE@XZ
__unwindfunclet$?OnAddInToolCommand@CLogAddInImp@@MAEHW4EAICommandType@@PBDJ@Z$1:
  00009	8d 4d 0c	 lea	 ecx, DWORD PTR _strLogData$3[ebp]
  0000c	ff 25 00 00 00
	00		 jmp	 DWORD PTR __imp_??1?$CStringT@DV?$StrTraitMFC_DLL@DV?$ChTraitsCRT@D@ATL@@@@@ATL@@QAE@XZ
  00012	cc		 int	 3
  00013	cc		 int	 3
  00014	cc		 int	 3
  00015	cc		 int	 3
  00016	cc		 int	 3
__ehhandler$?OnAddInToolCommand@CLogAddInImp@@MAEHW4EAICommandType@@PBDJ@Z:
  00017	90		 npad	 1
  00018	90		 npad	 1
  00019	8b 54 24 08	 mov	 edx, DWORD PTR [esp+8]
  0001d	8d 42 0c	 lea	 eax, DWORD PTR [edx+12]
  00020	8b 4a f8	 mov	 ecx, DWORD PTR [edx-8]
  00023	33 c8		 xor	 ecx, eax
  00025	e8 00 00 00 00	 call	 @__security_check_cookie@4
  0002a	b8 00 00 00 00	 mov	 eax, OFFSET __ehfuncinfo$?OnAddInToolCommand@CLogAddInImp@@MAEHW4EAICommandType@@PBDJ@Z
  0002f	e9 00 00 00 00	 jmp	 ___CxxFrameHandler3
text$x	ENDS
?OnAddInToolCommand@CLogAddInImp@@MAEHW4EAICommandType@@PBDJ@Z ENDP ; CLogAddInImp::OnAddInToolCommand
; Function compile flags: /Ogtp
; File D:\git\src\IBK\IBK_DRFN\ProjSrc\SrcChartEx\ChartOCX\AddInManager\ChartCommonAddIn\LogAddInImp.cpp
;	COMDAT ?OnAddInToolCommand@CLogAddInImp@@MAEHW4EAICommandType@@PBD@Z
_TEXT	SEGMENT
__$EHRec$ = -12						; size = 12
_strLogData$2 = 8					; size = 4
_p_eCommandID$ = 8					; size = 4
_p_szParam$ = 12					; size = 4
?OnAddInToolCommand@CLogAddInImp@@MAEHW4EAICommandType@@PBD@Z PROC ; CLogAddInImp::OnAddInToolCommand, COMDAT
; _this$ = ecx

; 443  : {

  00000	55		 push	 ebp
  00001	8b ec		 mov	 ebp, esp
  00003	6a ff		 push	 -1
  00005	68 00 00 00 00	 push	 __ehhandler$?OnAddInToolCommand@CLogAddInImp@@MAEHW4EAICommandType@@PBD@Z
  0000a	64 a1 00 00 00
	00		 mov	 eax, DWORD PTR fs:0
  00010	50		 push	 eax
  00011	56		 push	 esi
  00012	a1 00 00 00 00	 mov	 eax, DWORD PTR ___security_cookie
  00017	33 c5		 xor	 eax, ebp
  00019	50		 push	 eax
  0001a	8d 45 f4	 lea	 eax, DWORD PTR __$EHRec$[ebp]
  0001d	64 a3 00 00 00
	00		 mov	 DWORD PTR fs:0, eax
  00023	8b f1		 mov	 esi, ecx

; 444  : 	if( EAI_LOG_REAL_SETTING_CHANGED == p_eCommandID)

  00025	83 7d 08 11	 cmp	 DWORD PTR _p_eCommandID$[ebp], 17 ; 00000011H
  00029	75 5c		 jne	 SHORT $LN2@OnAddInToo

; 353  : 	if( !m_pDumpLogger) return;

  0002b	83 7e 38 00	 cmp	 DWORD PTR [esi+56], 0
  0002f	74 3f		 je	 SHORT $LN4@OnAddInToo

; 354  : 	CString strLogData;

  00031	8d 4d 08	 lea	 ecx, DWORD PTR _strLogData$2[ebp]
  00034	ff 15 00 00 00
	00		 call	 DWORD PTR __imp_??0?$CStringT@DV?$StrTraitMFC_DLL@DV?$ChTraitsCRT@D@ATL@@@@@ATL@@QAE@XZ

; 355  : 	strLogData.Format( "OnRealSettingChanged\t%s\r\n", p_szRealSetting);

  0003a	ff 75 0c	 push	 DWORD PTR _p_szParam$[ebp]
  0003d	8d 45 08	 lea	 eax, DWORD PTR _strLogData$2[ebp]
  00040	c7 45 fc 00 00
	00 00		 mov	 DWORD PTR __$EHRec$[ebp+8], 0
  00047	68 00 00 00 00	 push	 OFFSET ??_C@_0BK@BKCDMIFI@OnRealSettingChanged?7?$CFs?$AN?6@
  0004c	50		 push	 eax
  0004d	ff 15 00 00 00
	00		 call	 DWORD PTR __imp_?Format@?$CStringT@DV?$StrTraitMFC_DLL@DV?$ChTraitsCRT@D@ATL@@@@@ATL@@QAAXPBDZZ

; 356  : 	m_pDumpLogger->WriteToStringLog( NULL, strLogData, strLogData.GetLength());

  00053	8b 45 08	 mov	 eax, DWORD PTR _strLogData$2[ebp]
  00056	83 c4 0c	 add	 esp, 12			; 0000000cH
  00059	8b 4e 38	 mov	 ecx, DWORD PTR [esi+56]
  0005c	ff 70 f4	 push	 DWORD PTR [eax-12]
  0005f	50		 push	 eax
  00060	6a 00		 push	 0
  00062	e8 00 00 00 00	 call	 ?WriteToStringLog@CDumpLogger@@QAEXPBD0H@Z ; CDumpLogger::WriteToStringLog

; 357  : }

  00067	8d 4d 08	 lea	 ecx, DWORD PTR _strLogData$2[ebp]
  0006a	ff 15 00 00 00
	00		 call	 DWORD PTR __imp_??1?$CStringT@DV?$StrTraitMFC_DLL@DV?$ChTraitsCRT@D@ATL@@@@@ATL@@QAE@XZ
$LN4@OnAddInToo:

; 445  : 	{
; 446  : 		OnRealSettingChanged( p_szParam);
; 447  : 		return TRUE;

  00070	b8 01 00 00 00	 mov	 eax, 1

; 450  : }

  00075	8b 4d f4	 mov	 ecx, DWORD PTR __$EHRec$[ebp]
  00078	64 89 0d 00 00
	00 00		 mov	 DWORD PTR fs:0, ecx
  0007f	59		 pop	 ecx
  00080	5e		 pop	 esi
  00081	8b e5		 mov	 esp, ebp
  00083	5d		 pop	 ebp
  00084	c2 08 00	 ret	 8
$LN2@OnAddInToo:

; 448  : 	}
; 449  : 	return FALSE;

  00087	33 c0		 xor	 eax, eax

; 450  : }

  00089	8b 4d f4	 mov	 ecx, DWORD PTR __$EHRec$[ebp]
  0008c	64 89 0d 00 00
	00 00		 mov	 DWORD PTR fs:0, ecx
  00093	59		 pop	 ecx
  00094	5e		 pop	 esi
  00095	8b e5		 mov	 esp, ebp
  00097	5d		 pop	 ebp
  00098	c2 08 00	 ret	 8
_TEXT	ENDS
;	COMDAT text$x
text$x	SEGMENT
__unwindfunclet$?OnAddInToolCommand@CLogAddInImp@@MAEHW4EAICommandType@@PBD@Z$0:
  00000	8d 4d 08	 lea	 ecx, DWORD PTR _strLogData$2[ebp]
  00003	ff 25 00 00 00
	00		 jmp	 DWORD PTR __imp_??1?$CStringT@DV?$StrTraitMFC_DLL@DV?$ChTraitsCRT@D@ATL@@@@@ATL@@QAE@XZ
  00009	cc		 int	 3
  0000a	cc		 int	 3
  0000b	cc		 int	 3
  0000c	cc		 int	 3
  0000d	cc		 int	 3
__ehhandler$?OnAddInToolCommand@CLogAddInImp@@MAEHW4EAICommandType@@PBD@Z:
  0000e	90		 npad	 1
  0000f	90		 npad	 1
  00010	8b 54 24 08	 mov	 edx, DWORD PTR [esp+8]
  00014	8d 42 0c	 lea	 eax, DWORD PTR [edx+12]
  00017	8b 4a f8	 mov	 ecx, DWORD PTR [edx-8]
  0001a	33 c8		 xor	 ecx, eax
  0001c	e8 00 00 00 00	 call	 @__security_check_cookie@4
  00021	b8 00 00 00 00	 mov	 eax, OFFSET __ehfuncinfo$?OnAddInToolCommand@CLogAddInImp@@MAEHW4EAICommandType@@PBD@Z
  00026	e9 00 00 00 00	 jmp	 ___CxxFrameHandler3
text$x	ENDS
?OnAddInToolCommand@CLogAddInImp@@MAEHW4EAICommandType@@PBD@Z ENDP ; CLogAddInImp::OnAddInToolCommand
; Function compile flags: /Ogtp
; File D:\git\src\IBK\IBK_DRFN\ProjSrc\SrcChartEx\ChartOCX\AddInManager\ChartCommonAddIn\LogAddInImp.cpp
;	COMDAT ?WriteLogMessage@CLogAddInImp@@IAEXPBD@Z
_TEXT	SEGMENT
_strLogData$ = -16					; size = 4
__$EHRec$ = -12						; size = 12
_p_szMsg$ = 8						; size = 4
?WriteLogMessage@CLogAddInImp@@IAEXPBD@Z PROC		; CLogAddInImp::WriteLogMessage, COMDAT
; _this$ = ecx

; 430  : {

  00000	55		 push	 ebp
  00001	8b ec		 mov	 ebp, esp
  00003	6a ff		 push	 -1
  00005	68 00 00 00 00	 push	 __ehhandler$?WriteLogMessage@CLogAddInImp@@IAEXPBD@Z
  0000a	64 a1 00 00 00
	00		 mov	 eax, DWORD PTR fs:0
  00010	50		 push	 eax
  00011	51		 push	 ecx
  00012	57		 push	 edi
  00013	a1 00 00 00 00	 mov	 eax, DWORD PTR ___security_cookie
  00018	33 c5		 xor	 eax, ebp
  0001a	50		 push	 eax
  0001b	8d 45 f4	 lea	 eax, DWORD PTR __$EHRec$[ebp]
  0001e	64 a3 00 00 00
	00		 mov	 DWORD PTR fs:0, eax
  00024	8b f9		 mov	 edi, ecx

; 431  : 	if( !m_pDumpLogger || !p_szMsg) return;

  00026	83 7f 40 00	 cmp	 DWORD PTR [edi+64], 0
  0002a	74 45		 je	 SHORT $LN3@WriteLogMe
  0002c	83 7d 08 00	 cmp	 DWORD PTR _p_szMsg$[ebp], 0
  00030	74 3f		 je	 SHORT $LN3@WriteLogMe

; 432  : 	CString strLogData;

  00032	8d 4d f0	 lea	 ecx, DWORD PTR _strLogData$[ebp]
  00035	ff 15 00 00 00
	00		 call	 DWORD PTR __imp_??0?$CStringT@DV?$StrTraitMFC_DLL@DV?$ChTraitsCRT@D@ATL@@@@@ATL@@QAE@XZ

; 433  : 	strLogData.Format( "WriteLogMessage\t%s\r\n", p_szMsg);

  0003b	ff 75 08	 push	 DWORD PTR _p_szMsg$[ebp]
  0003e	8d 45 f0	 lea	 eax, DWORD PTR _strLogData$[ebp]
  00041	c7 45 fc 00 00
	00 00		 mov	 DWORD PTR __$EHRec$[ebp+8], 0
  00048	68 00 00 00 00	 push	 OFFSET ??_C@_0BF@DGGOINLJ@WriteLogMessage?7?$CFs?$AN?6@
  0004d	50		 push	 eax
  0004e	ff 15 00 00 00
	00		 call	 DWORD PTR __imp_?Format@?$CStringT@DV?$StrTraitMFC_DLL@DV?$ChTraitsCRT@D@ATL@@@@@ATL@@QAAXPBDZZ

; 434  : 	m_pDumpLogger->WriteToStringLog( NULL, strLogData, strLogData.GetLength());

  00054	8b 45 f0	 mov	 eax, DWORD PTR _strLogData$[ebp]
  00057	83 c4 0c	 add	 esp, 12			; 0000000cH
  0005a	8b 4f 40	 mov	 ecx, DWORD PTR [edi+64]
  0005d	ff 70 f4	 push	 DWORD PTR [eax-12]
  00060	50		 push	 eax
  00061	6a 00		 push	 0
  00063	e8 00 00 00 00	 call	 ?WriteToStringLog@CDumpLogger@@QAEXPBD0H@Z ; CDumpLogger::WriteToStringLog

; 435  : }

  00068	8d 4d f0	 lea	 ecx, DWORD PTR _strLogData$[ebp]
  0006b	ff 15 00 00 00
	00		 call	 DWORD PTR __imp_??1?$CStringT@DV?$StrTraitMFC_DLL@DV?$ChTraitsCRT@D@ATL@@@@@ATL@@QAE@XZ
$LN3@WriteLogMe:
  00071	8b 4d f4	 mov	 ecx, DWORD PTR __$EHRec$[ebp]
  00074	64 89 0d 00 00
	00 00		 mov	 DWORD PTR fs:0, ecx
  0007b	59		 pop	 ecx
  0007c	5f		 pop	 edi
  0007d	8b e5		 mov	 esp, ebp
  0007f	5d		 pop	 ebp
  00080	c2 04 00	 ret	 4
_TEXT	ENDS
;	COMDAT text$x
text$x	SEGMENT
__unwindfunclet$?WriteLogMessage@CLogAddInImp@@IAEXPBD@Z$0:
  00000	8d 4d f0	 lea	 ecx, DWORD PTR _strLogData$[ebp]
  00003	ff 25 00 00 00
	00		 jmp	 DWORD PTR __imp_??1?$CStringT@DV?$StrTraitMFC_DLL@DV?$ChTraitsCRT@D@ATL@@@@@ATL@@QAE@XZ
  00009	cc		 int	 3
  0000a	cc		 int	 3
  0000b	cc		 int	 3
  0000c	cc		 int	 3
  0000d	cc		 int	 3
__ehhandler$?WriteLogMessage@CLogAddInImp@@IAEXPBD@Z:
  0000e	90		 npad	 1
  0000f	90		 npad	 1
  00010	8b 54 24 08	 mov	 edx, DWORD PTR [esp+8]
  00014	8d 42 0c	 lea	 eax, DWORD PTR [edx+12]
  00017	8b 4a f4	 mov	 ecx, DWORD PTR [edx-12]
  0001a	33 c8		 xor	 ecx, eax
  0001c	e8 00 00 00 00	 call	 @__security_check_cookie@4
  00021	b8 00 00 00 00	 mov	 eax, OFFSET __ehfuncinfo$?WriteLogMessage@CLogAddInImp@@IAEXPBD@Z
  00026	e9 00 00 00 00	 jmp	 ___CxxFrameHandler3
text$x	ENDS
?WriteLogMessage@CLogAddInImp@@IAEXPBD@Z ENDP		; CLogAddInImp::WriteLogMessage
; Function compile flags: /Ogtp
; File D:\git\src\IBK\IBK_DRFN\ProjSrc\SrcChartEx\ChartOCX\AddInManager\ChartCommonAddIn\LogAddInImp.cpp
; File C:\Program Files (x86)\Microsoft Visual Studio\2019\Community\VC\Tools\MSVC\14.29.30133\atlmfc\include\atlsimpstr.h
; File D:\git\src\IBK\IBK_DRFN\ProjSrc\SrcChartEx\ChartOCX\AddInManager\ChartCommonAddIn\LogAddInImp.cpp
; File C:\Program Files (x86)\Microsoft Visual Studio\2019\Community\VC\Tools\MSVC\14.29.30133\atlmfc\include\atlsimpstr.h
; File D:\git\src\IBK\IBK_DRFN\ProjSrc\SrcChartEx\ChartOCX\AddInManager\ChartCommonAddIn\LogAddInImp.cpp
; File C:\Program Files (x86)\Microsoft Visual Studio\2019\Community\VC\Tools\MSVC\14.29.30133\atlmfc\include\atlsimpstr.h
; File D:\git\src\IBK\IBK_DRFN\ProjSrc\SrcChartEx\ChartOCX\AddInManager\ChartCommonAddIn\LogAddInImp.cpp
;	COMDAT ?LogAllProperties@CLogAddInImp@@IAEHXZ
_TEXT	SEGMENT
_mapProperty$ = -68					; size = 32
_this$1$ = -36						; size = 4
_strLogData$ = -32					; size = 4
_strLogKey$ = -28					; size = 4
_szPropertyData$ = -24					; size = 4
_szPropertyKey$ = -20					; size = 4
_posProperties$ = -16					; size = 4
__$EHRec$ = -12						; size = 12
?LogAllProperties@CLogAddInImp@@IAEHXZ PROC		; CLogAddInImp::LogAllProperties, COMDAT
; _this$ = ecx

; 375  : {

  00000	55		 push	 ebp
  00001	8b ec		 mov	 ebp, esp
  00003	6a ff		 push	 -1
  00005	68 00 00 00 00	 push	 __ehhandler$?LogAllProperties@CLogAddInImp@@IAEHXZ
  0000a	64 a1 00 00 00
	00		 mov	 eax, DWORD PTR fs:0
  00010	50		 push	 eax
  00011	83 ec 38	 sub	 esp, 56			; 00000038H
  00014	53		 push	 ebx
  00015	56		 push	 esi
  00016	57		 push	 edi
  00017	a1 00 00 00 00	 mov	 eax, DWORD PTR ___security_cookie
  0001c	33 c5		 xor	 eax, ebp
  0001e	50		 push	 eax
  0001f	8d 45 f4	 lea	 eax, DWORD PTR __$EHRec$[ebp]
  00022	64 a3 00 00 00
	00		 mov	 DWORD PTR fs:0, eax
  00028	8b d9		 mov	 ebx, ecx
  0002a	89 5d dc	 mov	 DWORD PTR _this$1$[ebp], ebx

; 376  : 	if( !m_pDumpLogger) return FALSE;

  0002d	83 7b 40 00	 cmp	 DWORD PTR [ebx+64], 0
  00031	75 14		 jne	 SHORT $LN6@LogAllProp
  00033	33 c0		 xor	 eax, eax

; 424  : }

  00035	8b 4d f4	 mov	 ecx, DWORD PTR __$EHRec$[ebp]
  00038	64 89 0d 00 00
	00 00		 mov	 DWORD PTR fs:0, ecx
  0003f	59		 pop	 ecx
  00040	5f		 pop	 edi
  00041	5e		 pop	 esi
  00042	5b		 pop	 ebx
  00043	8b e5		 mov	 esp, ebp
  00045	5d		 pop	 ebp
  00046	c3		 ret	 0
$LN6@LogAllProp:
  00047	6a 0a		 push	 10			; 0000000aH
  00049	8d 4d bc	 lea	 ecx, DWORD PTR _mapProperty$[ebp]
  0004c	e8 00 00 00 00	 call	 ??0CMapStringToString@@QAE@H@Z ; CMapStringToString::CMapStringToString
  00051	c7 45 bc 00 00
	00 00		 mov	 DWORD PTR _mapProperty$[ebp], OFFSET ??_7CPropertyMap@@6BCMapStringToString@@@
  00058	c7 45 d8 00 00
	00 00		 mov	 DWORD PTR _mapProperty$[ebp+28], OFFSET ??_7CPropertyMap@@6BIPropertyMap@@@

; 377  : 
; 378  : 	CPropertyMap mapProperty;
; 379  : 	if( !m_pIChartOCX->GetAllProperties3( &mapProperty)) return FALSE;

  0005f	8b 4b 0c	 mov	 ecx, DWORD PTR [ebx+12]
  00062	8d 55 d8	 lea	 edx, DWORD PTR _mapProperty$[ebp+28]
  00065	6a 00		 push	 0
  00067	52		 push	 edx
  00068	c7 45 fc 00 00
	00 00		 mov	 DWORD PTR __$EHRec$[ebp+8], 0
  0006f	8b 01		 mov	 eax, DWORD PTR [ecx]
  00071	ff 50 30	 call	 DWORD PTR [eax+48]
  00074	85 c0		 test	 eax, eax
  00076	75 07		 jne	 SHORT $LN7@LogAllProp
  00078	33 f6		 xor	 esi, esi
  0007a	e9 7b 01 00 00	 jmp	 $LN27@LogAllProp
$LN7@LogAllProp:

; 380  : 
; 381  : 	// 0. Set Log Key
; 382  : 	CString strLogKey( "[Current Properties]\r\n");

  0007f	68 00 00 00 00	 push	 OFFSET ??_C@_0BH@LJIELJFE@?$FLCurrent?5Properties?$FN?$AN?6@
  00084	8d 4d e4	 lea	 ecx, DWORD PTR _strLogKey$[ebp]
  00087	ff 15 00 00 00
	00		 call	 DWORD PTR __imp_??0?$CStringT@DV?$StrTraitMFC_DLL@DV?$ChTraitsCRT@D@ATL@@@@@ATL@@QAE@PBD@Z
; File C:\Program Files (x86)\Microsoft Visual Studio\2019\Community\VC\Tools\MSVC\14.29.30133\atlmfc\include\atlsimpstr.h

; 519  : 		return( GetData()->nDataLength );

  0008d	8b 45 e4	 mov	 eax, DWORD PTR _strLogKey$[ebp]
; File D:\git\src\IBK\IBK_DRFN\ProjSrc\SrcChartEx\ChartOCX\AddInManager\ChartCommonAddIn\LogAddInImp.cpp

; 387  : 	POSITION posProperties = pIPropertyMap->GetStartPosition();

  00090	8d 4d d8	 lea	 ecx, DWORD PTR _mapProperty$[ebp+28]
  00093	c6 45 fc 01	 mov	 BYTE PTR __$EHRec$[ebp+8], 1
; File C:\Program Files (x86)\Microsoft Visual Studio\2019\Community\VC\Tools\MSVC\14.29.30133\atlmfc\include\atlsimpstr.h

; 519  : 		return( GetData()->nDataLength );

  00097	8b 78 f4	 mov	 edi, DWORD PTR [eax-12]
; File D:\git\src\IBK\IBK_DRFN\ProjSrc\SrcChartEx\ChartOCX\AddInManager\ChartCommonAddIn\LogAddInImp.cpp

; 387  : 	POSITION posProperties = pIPropertyMap->GetStartPosition();

  0009a	8b 45 d8	 mov	 eax, DWORD PTR _mapProperty$[ebp+28]
  0009d	ff 50 20	 call	 DWORD PTR [eax+32]
  000a0	89 45 f0	 mov	 DWORD PTR _posProperties$[ebp], eax

; 388  : 	while( posProperties) 

  000a3	85 c0		 test	 eax, eax
  000a5	74 5d		 je	 SHORT $LN3@LogAllProp
$LL2@LogAllProp:

; 389  : 	{
; 390  : 		pIPropertyMap->GetNextAssoc( posProperties, szPropertyKey, szPropertyData);

  000a7	8d 45 e8	 lea	 eax, DWORD PTR _szPropertyData$[ebp]
  000aa	50		 push	 eax
  000ab	8d 45 ec	 lea	 eax, DWORD PTR _szPropertyKey$[ebp]
  000ae	50		 push	 eax
  000af	8d 45 f0	 lea	 eax, DWORD PTR _posProperties$[ebp]
  000b2	50		 push	 eax
  000b3	8b 45 d8	 mov	 eax, DWORD PTR _mapProperty$[ebp+28]
  000b6	8d 4d d8	 lea	 ecx, DWORD PTR _mapProperty$[ebp+28]
  000b9	ff 50 24	 call	 DWORD PTR [eax+36]

; 391  : 		if( !szPropertyKey) continue;

  000bc	8b 4d ec	 mov	 ecx, DWORD PTR _szPropertyKey$[ebp]
  000bf	85 c9		 test	 ecx, ecx
  000c1	74 3b		 je	 SHORT $LN59@LogAllProp

; 392  : 		if( !*szPropertyKey) continue;

  000c3	80 39 00	 cmp	 BYTE PTR [ecx], 0
  000c6	74 36		 je	 SHORT $LN59@LogAllProp

; 393  : 		nLogLength += strlen( szPropertyKey);

  000c8	8d 51 01	 lea	 edx, DWORD PTR [ecx+1]
  000cb	0f 1f 44 00 00	 npad	 5
$LL71@LogAllProp:
  000d0	8a 01		 mov	 al, BYTE PTR [ecx]
  000d2	41		 inc	 ecx
  000d3	84 c0		 test	 al, al
  000d5	75 f9		 jne	 SHORT $LL71@LogAllProp
  000d7	2b ca		 sub	 ecx, edx
  000d9	03 f9		 add	 edi, ecx

; 394  : 		if( szPropertyData) if( *szPropertyData) nLogLength += strlen( szPropertyData);

  000db	8b 4d e8	 mov	 ecx, DWORD PTR _szPropertyData$[ebp]
  000de	85 c9		 test	 ecx, ecx
  000e0	74 19		 je	 SHORT $LN11@LogAllProp
  000e2	38 01		 cmp	 BYTE PTR [ecx], al
  000e4	74 15		 je	 SHORT $LN11@LogAllProp
  000e6	8d 51 01	 lea	 edx, DWORD PTR [ecx+1]
  000e9	0f 1f 80 00 00
	00 00		 npad	 7
$LL72@LogAllProp:
  000f0	8a 01		 mov	 al, BYTE PTR [ecx]
  000f2	41		 inc	 ecx
  000f3	84 c0		 test	 al, al
  000f5	75 f9		 jne	 SHORT $LL72@LogAllProp
  000f7	2b ca		 sub	 ecx, edx
  000f9	03 f9		 add	 edi, ecx
$LN11@LogAllProp:

; 395  : 		nLogLength += 1 + 2;	// '=', "\r\n"

  000fb	83 c7 03	 add	 edi, 3
$LN59@LogAllProp:

; 388  : 	while( posProperties) 

  000fe	83 7d f0 00	 cmp	 DWORD PTR _posProperties$[ebp], 0
  00102	75 a3		 jne	 SHORT $LL2@LogAllProp
$LN3@LogAllProp:

; 396  : 	}
; 397  : 	// 2. Get Full Buffer
; 398  : 	CString strLogData;

  00104	8d 4d e0	 lea	 ecx, DWORD PTR _strLogData$[ebp]
  00107	ff 15 00 00 00
	00		 call	 DWORD PTR __imp_??0?$CStringT@DV?$StrTraitMFC_DLL@DV?$ChTraitsCRT@D@ATL@@@@@ATL@@QAE@XZ

; 399  : 	char *szLogData = strLogData.GetBufferSetLength( nLogLength);

  0010d	57		 push	 edi
  0010e	8d 4d e0	 lea	 ecx, DWORD PTR _strLogData$[ebp]
  00111	c6 45 fc 02	 mov	 BYTE PTR __$EHRec$[ebp+8], 2
  00115	ff 15 00 00 00
	00		 call	 DWORD PTR __imp_?GetBufferSetLength@?$CSimpleStringT@D$00@ATL@@QAEPADH@Z
; File C:\Program Files (x86)\Microsoft Visual Studio\2019\Community\VC\Tools\MSVC\14.29.30133\atlmfc\include\atlsimpstr.h

; 377  : 		return( m_pszData );

  0011b	8b 55 e4	 mov	 edx, DWORD PTR _strLogKey$[ebp]
; File D:\git\src\IBK\IBK_DRFN\ProjSrc\SrcChartEx\ChartOCX\AddInManager\ChartCommonAddIn\LogAddInImp.cpp

; 399  : 	char *szLogData = strLogData.GetBufferSetLength( nLogLength);

  0011e	8b d8		 mov	 ebx, eax

; 400  : 	// 3.3 Make One String
; 401  : 	char *szLogPtr = szLogData;
; 402  : 	strcpy( szLogPtr, strLogKey);

  00120	8b f3		 mov	 esi, ebx
$LL21@LogAllProp:
  00122	8a 0a		 mov	 cl, BYTE PTR [edx]
  00124	8d 52 01	 lea	 edx, DWORD PTR [edx+1]
  00127	88 0e		 mov	 BYTE PTR [esi], cl
  00129	8d 76 01	 lea	 esi, DWORD PTR [esi+1]
  0012c	84 c9		 test	 cl, cl
  0012e	75 f2		 jne	 SHORT $LL21@LogAllProp

; 403  : 	szLogPtr += strLogKey.GetLength();

  00130	8b 45 e4	 mov	 eax, DWORD PTR _strLogKey$[ebp]

; 404  : 	posProperties = pIPropertyMap->GetStartPosition();

  00133	8d 4d d8	 lea	 ecx, DWORD PTR _mapProperty$[ebp+28]
  00136	8b 70 f4	 mov	 esi, DWORD PTR [eax-12]
  00139	8b 45 d8	 mov	 eax, DWORD PTR _mapProperty$[ebp+28]
  0013c	03 f3		 add	 esi, ebx
  0013e	ff 50 20	 call	 DWORD PTR [eax+32]
  00141	89 45 f0	 mov	 DWORD PTR _posProperties$[ebp], eax

; 405  : 	while( posProperties)

  00144	85 c0		 test	 eax, eax
  00146	0f 84 88 00 00
	00		 je	 $LN5@LogAllProp
  0014c	0f 1f 40 00	 npad	 4
$LL4@LogAllProp:

; 406  : 	{
; 407  : 		pIPropertyMap->GetNextAssoc( posProperties, szPropertyKey, szPropertyData);

  00150	8d 45 e8	 lea	 eax, DWORD PTR _szPropertyData$[ebp]
  00153	50		 push	 eax
  00154	8d 45 ec	 lea	 eax, DWORD PTR _szPropertyKey$[ebp]
  00157	50		 push	 eax
  00158	8d 45 f0	 lea	 eax, DWORD PTR _posProperties$[ebp]
  0015b	50		 push	 eax
  0015c	8b 45 d8	 mov	 eax, DWORD PTR _mapProperty$[ebp+28]
  0015f	8d 4d d8	 lea	 ecx, DWORD PTR _mapProperty$[ebp+28]
  00162	ff 50 24	 call	 DWORD PTR [eax+36]

; 408  : 		if( !szPropertyKey) continue;

  00165	8b 4d ec	 mov	 ecx, DWORD PTR _szPropertyKey$[ebp]
  00168	85 c9		 test	 ecx, ecx
  0016a	74 5e		 je	 SHORT $LN60@LogAllProp

; 409  : 		if( !*szPropertyKey) continue;

  0016c	80 39 00	 cmp	 BYTE PTR [ecx], 0
  0016f	74 59		 je	 SHORT $LN60@LogAllProp

; 410  : 		strcpy( szLogPtr, szPropertyKey);

  00171	8b d6		 mov	 edx, esi
$LL22@LogAllProp:
  00173	8a 01		 mov	 al, BYTE PTR [ecx]
  00175	8d 49 01	 lea	 ecx, DWORD PTR [ecx+1]
  00178	88 02		 mov	 BYTE PTR [edx], al
  0017a	8d 52 01	 lea	 edx, DWORD PTR [edx+1]
  0017d	84 c0		 test	 al, al
  0017f	75 f2		 jne	 SHORT $LL22@LogAllProp

; 411  : 		szLogPtr += strlen( szPropertyKey);

  00181	8b 4d ec	 mov	 ecx, DWORD PTR _szPropertyKey$[ebp]
  00184	8d 51 01	 lea	 edx, DWORD PTR [ecx+1]
$LL73@LogAllProp:
  00187	8a 01		 mov	 al, BYTE PTR [ecx]
  00189	41		 inc	 ecx
  0018a	84 c0		 test	 al, al
  0018c	75 f9		 jne	 SHORT $LL73@LogAllProp
  0018e	2b ca		 sub	 ecx, edx
  00190	03 f1		 add	 esi, ecx

; 412  : 		*szLogPtr++ = '=';

  00192	c6 06 3d	 mov	 BYTE PTR [esi], 61	; 0000003dH
  00195	46		 inc	 esi

; 413  : 		if( szPropertyData) if( *szPropertyData)

  00196	8b 4d e8	 mov	 ecx, DWORD PTR _szPropertyData$[ebp]
  00199	85 c9		 test	 ecx, ecx
  0019b	74 25		 je	 SHORT $LN15@LogAllProp
  0019d	38 01		 cmp	 BYTE PTR [ecx], al
  0019f	74 21		 je	 SHORT $LN15@LogAllProp

; 414  : 		{
; 415  : 			strcpy( szLogPtr, szPropertyData);

  001a1	8b d6		 mov	 edx, esi
$LL23@LogAllProp:
  001a3	8a 01		 mov	 al, BYTE PTR [ecx]
  001a5	8d 49 01	 lea	 ecx, DWORD PTR [ecx+1]
  001a8	88 02		 mov	 BYTE PTR [edx], al
  001aa	8d 52 01	 lea	 edx, DWORD PTR [edx+1]
  001ad	84 c0		 test	 al, al
  001af	75 f2		 jne	 SHORT $LL23@LogAllProp

; 416  : 			szLogPtr += strlen( szPropertyData);

  001b1	8b 4d e8	 mov	 ecx, DWORD PTR _szPropertyData$[ebp]
  001b4	8d 51 01	 lea	 edx, DWORD PTR [ecx+1]
$LL74@LogAllProp:
  001b7	8a 01		 mov	 al, BYTE PTR [ecx]
  001b9	41		 inc	 ecx
  001ba	84 c0		 test	 al, al
  001bc	75 f9		 jne	 SHORT $LL74@LogAllProp
  001be	2b ca		 sub	 ecx, edx
  001c0	03 f1		 add	 esi, ecx
$LN15@LogAllProp:

; 417  : 		}
; 418  : 		*szLogPtr++ = '\r';

  001c2	66 c7 06 0d 0a	 mov	 WORD PTR [esi], 2573	; 00000a0dH

; 419  : 		*szLogPtr++ = '\n';

  001c7	83 c6 02	 add	 esi, 2
$LN60@LogAllProp:

; 405  : 	while( posProperties)

  001ca	83 7d f0 00	 cmp	 DWORD PTR _posProperties$[ebp], 0
  001ce	0f 85 7c ff ff
	ff		 jne	 $LL4@LogAllProp
$LN5@LogAllProp:

; 420  : 	}
; 421  : 
; 422  : 	m_pDumpLogger->WriteToStringLog( NULL, szLogData, nLogLength);

  001d4	8b 4d dc	 mov	 ecx, DWORD PTR _this$1$[ebp]
  001d7	57		 push	 edi
  001d8	53		 push	 ebx
  001d9	6a 00		 push	 0
  001db	8b 49 40	 mov	 ecx, DWORD PTR [ecx+64]
  001de	e8 00 00 00 00	 call	 ?WriteToStringLog@CDumpLogger@@QAEXPBD0H@Z ; CDumpLogger::WriteToStringLog

; 423  : 	return TRUE;

  001e3	8d 4d e0	 lea	 ecx, DWORD PTR _strLogData$[ebp]
  001e6	be 01 00 00 00	 mov	 esi, 1
  001eb	ff 15 00 00 00
	00		 call	 DWORD PTR __imp_??1?$CStringT@DV?$StrTraitMFC_DLL@DV?$ChTraitsCRT@D@ATL@@@@@ATL@@QAE@XZ
  001f1	8d 4d e4	 lea	 ecx, DWORD PTR _strLogKey$[ebp]
  001f4	ff 15 00 00 00
	00		 call	 DWORD PTR __imp_??1?$CStringT@DV?$StrTraitMFC_DLL@DV?$ChTraitsCRT@D@ATL@@@@@ATL@@QAE@XZ
$LN27@LogAllProp:
  001fa	8d 4d bc	 lea	 ecx, DWORD PTR _mapProperty$[ebp]
  001fd	c7 45 d8 00 00
	00 00		 mov	 DWORD PTR _mapProperty$[ebp+28], OFFSET ??_7IPropertyMap@@6B@
  00204	e8 00 00 00 00	 call	 ??1CMapStringToString@@UAE@XZ ; CMapStringToString::~CMapStringToString
  00209	8b c6		 mov	 eax, esi

; 424  : }

  0020b	8b 4d f4	 mov	 ecx, DWORD PTR __$EHRec$[ebp]
  0020e	64 89 0d 00 00
	00 00		 mov	 DWORD PTR fs:0, ecx
  00215	59		 pop	 ecx
  00216	5f		 pop	 edi
  00217	5e		 pop	 esi
  00218	5b		 pop	 ebx
  00219	8b e5		 mov	 esp, ebp
  0021b	5d		 pop	 ebp
  0021c	c3		 ret	 0
_TEXT	ENDS
;	COMDAT text$x
text$x	SEGMENT
__unwindfunclet$?LogAllProperties@CLogAddInImp@@IAEHXZ$0:
  00000	8d 4d bc	 lea	 ecx, DWORD PTR _mapProperty$[ebp]
  00003	e9 00 00 00 00	 jmp	 ??1CPropertyMap@@UAE@XZ
__unwindfunclet$?LogAllProperties@CLogAddInImp@@IAEHXZ$1:
  00008	8d 4d e4	 lea	 ecx, DWORD PTR _strLogKey$[ebp]
  0000b	ff 25 00 00 00
	00		 jmp	 DWORD PTR __imp_??1?$CStringT@DV?$StrTraitMFC_DLL@DV?$ChTraitsCRT@D@ATL@@@@@ATL@@QAE@XZ
__unwindfunclet$?LogAllProperties@CLogAddInImp@@IAEHXZ$2:
  00011	8d 4d e0	 lea	 ecx, DWORD PTR _strLogData$[ebp]
  00014	ff 25 00 00 00
	00		 jmp	 DWORD PTR __imp_??1?$CStringT@DV?$StrTraitMFC_DLL@DV?$ChTraitsCRT@D@ATL@@@@@ATL@@QAE@XZ
  0001a	cc		 int	 3
  0001b	cc		 int	 3
  0001c	cc		 int	 3
  0001d	cc		 int	 3
  0001e	cc		 int	 3
__ehhandler$?LogAllProperties@CLogAddInImp@@IAEHXZ:
  0001f	90		 npad	 1
  00020	90		 npad	 1
  00021	8b 54 24 08	 mov	 edx, DWORD PTR [esp+8]
  00025	8d 42 0c	 lea	 eax, DWORD PTR [edx+12]
  00028	8b 4a b8	 mov	 ecx, DWORD PTR [edx-72]
  0002b	33 c8		 xor	 ecx, eax
  0002d	e8 00 00 00 00	 call	 @__security_check_cookie@4
  00032	b8 00 00 00 00	 mov	 eax, OFFSET __ehfuncinfo$?LogAllProperties@CLogAddInImp@@IAEHXZ
  00037	e9 00 00 00 00	 jmp	 ___CxxFrameHandler3
text$x	ENDS
?LogAllProperties@CLogAddInImp@@IAEHXZ ENDP		; CLogAddInImp::LogAllProperties
; Function compile flags: /Ogtp
; File D:\git\src\IBK\IBK_DRFN\ProjSrc\SrcChartEx\ChartOCX\AddInManager\ChartCommonAddIn\LogAddInImp.cpp
;	COMDAT ?OnNormalizedMinuteTimeRuleReset@CLogAddInImp@@IAEXH@Z
_TEXT	SEGMENT
_strLogData$ = -16					; size = 4
__$EHRec$ = -12						; size = 12
_p_bNormalizedMinuteTimeRule$ = 8			; size = 4
?OnNormalizedMinuteTimeRuleReset@CLogAddInImp@@IAEXH@Z PROC ; CLogAddInImp::OnNormalizedMinuteTimeRuleReset, COMDAT
; _this$ = ecx

; 364  : {

  00000	55		 push	 ebp
  00001	8b ec		 mov	 ebp, esp
  00003	6a ff		 push	 -1
  00005	68 00 00 00 00	 push	 __ehhandler$?OnNormalizedMinuteTimeRuleReset@CLogAddInImp@@IAEXH@Z
  0000a	64 a1 00 00 00
	00		 mov	 eax, DWORD PTR fs:0
  00010	50		 push	 eax
  00011	51		 push	 ecx
  00012	56		 push	 esi
  00013	a1 00 00 00 00	 mov	 eax, DWORD PTR ___security_cookie
  00018	33 c5		 xor	 eax, ebp
  0001a	50		 push	 eax
  0001b	8d 45 f4	 lea	 eax, DWORD PTR __$EHRec$[ebp]
  0001e	64 a3 00 00 00
	00		 mov	 DWORD PTR fs:0, eax
  00024	8b f1		 mov	 esi, ecx

; 365  : 	if( !m_pDumpLogger) return;

  00026	83 7e 40 00	 cmp	 DWORD PTR [esi+64], 0
  0002a	74 4e		 je	 SHORT $LN1@OnNormaliz

; 366  : 	CString strLogData;

  0002c	8d 4d f0	 lea	 ecx, DWORD PTR _strLogData$[ebp]
  0002f	ff 15 00 00 00
	00		 call	 DWORD PTR __imp_??0?$CStringT@DV?$StrTraitMFC_DLL@DV?$ChTraitsCRT@D@ATL@@@@@ATL@@QAE@XZ

; 367  : 	strLogData.Format( "OnNormalizedMinuteTimeRuleReset\t%s\r\n", ( p_bNormalizedMinuteTimeRule ? "TRUE" : "FALSE"));

  00035	83 7d 08 00	 cmp	 DWORD PTR _p_bNormalizedMinuteTimeRule$[ebp], 0
  00039	b9 00 00 00 00	 mov	 ecx, OFFSET ??_C@_05MAJJAKPI@FALSE@
  0003e	b8 00 00 00 00	 mov	 eax, OFFSET ??_C@_04HCDDPBNL@TRUE@
  00043	c7 45 fc 00 00
	00 00		 mov	 DWORD PTR __$EHRec$[ebp+8], 0
  0004a	0f 44 c1	 cmove	 eax, ecx
  0004d	50		 push	 eax
  0004e	8d 45 f0	 lea	 eax, DWORD PTR _strLogData$[ebp]
  00051	68 00 00 00 00	 push	 OFFSET ??_C@_0CF@KDOONFGL@OnNormalizedMinuteTimeRuleReset@
  00056	50		 push	 eax
  00057	ff 15 00 00 00
	00		 call	 DWORD PTR __imp_?Format@?$CStringT@DV?$StrTraitMFC_DLL@DV?$ChTraitsCRT@D@ATL@@@@@ATL@@QAAXPBDZZ

; 368  : 	m_pDumpLogger->WriteToStringLog( NULL, strLogData, strLogData.GetLength());

  0005d	8b 45 f0	 mov	 eax, DWORD PTR _strLogData$[ebp]
  00060	83 c4 0c	 add	 esp, 12			; 0000000cH
  00063	8b 4e 40	 mov	 ecx, DWORD PTR [esi+64]
  00066	ff 70 f4	 push	 DWORD PTR [eax-12]
  00069	50		 push	 eax
  0006a	6a 00		 push	 0
  0006c	e8 00 00 00 00	 call	 ?WriteToStringLog@CDumpLogger@@QAEXPBD0H@Z ; CDumpLogger::WriteToStringLog

; 369  : }

  00071	8d 4d f0	 lea	 ecx, DWORD PTR _strLogData$[ebp]
  00074	ff 15 00 00 00
	00		 call	 DWORD PTR __imp_??1?$CStringT@DV?$StrTraitMFC_DLL@DV?$ChTraitsCRT@D@ATL@@@@@ATL@@QAE@XZ
$LN1@OnNormaliz:
  0007a	8b 4d f4	 mov	 ecx, DWORD PTR __$EHRec$[ebp]
  0007d	64 89 0d 00 00
	00 00		 mov	 DWORD PTR fs:0, ecx
  00084	59		 pop	 ecx
  00085	5e		 pop	 esi
  00086	8b e5		 mov	 esp, ebp
  00088	5d		 pop	 ebp
  00089	c2 04 00	 ret	 4
_TEXT	ENDS
;	COMDAT text$x
text$x	SEGMENT
__unwindfunclet$?OnNormalizedMinuteTimeRuleReset@CLogAddInImp@@IAEXH@Z$0:
  00000	8d 4d f0	 lea	 ecx, DWORD PTR _strLogData$[ebp]
  00003	ff 25 00 00 00
	00		 jmp	 DWORD PTR __imp_??1?$CStringT@DV?$StrTraitMFC_DLL@DV?$ChTraitsCRT@D@ATL@@@@@ATL@@QAE@XZ
  00009	cc		 int	 3
  0000a	cc		 int	 3
  0000b	cc		 int	 3
  0000c	cc		 int	 3
  0000d	cc		 int	 3
__ehhandler$?OnNormalizedMinuteTimeRuleReset@CLogAddInImp@@IAEXH@Z:
  0000e	90		 npad	 1
  0000f	90		 npad	 1
  00010	8b 54 24 08	 mov	 edx, DWORD PTR [esp+8]
  00014	8d 42 0c	 lea	 eax, DWORD PTR [edx+12]
  00017	8b 4a f4	 mov	 ecx, DWORD PTR [edx-12]
  0001a	33 c8		 xor	 ecx, eax
  0001c	e8 00 00 00 00	 call	 @__security_check_cookie@4
  00021	b8 00 00 00 00	 mov	 eax, OFFSET __ehfuncinfo$?OnNormalizedMinuteTimeRuleReset@CLogAddInImp@@IAEXH@Z
  00026	e9 00 00 00 00	 jmp	 ___CxxFrameHandler3
text$x	ENDS
?OnNormalizedMinuteTimeRuleReset@CLogAddInImp@@IAEXH@Z ENDP ; CLogAddInImp::OnNormalizedMinuteTimeRuleReset
; Function compile flags: /Ogtp
; File D:\git\src\IBK\IBK_DRFN\ProjSrc\SrcChartEx\ChartOCX\AddInManager\ChartCommonAddIn\LogAddInImp.cpp
;	COMDAT ?OnRealSettingChanged@CLogAddInImp@@IAEXPBD@Z
_TEXT	SEGMENT
_strLogData$ = -16					; size = 4
__$EHRec$ = -12						; size = 12
_p_szRealSetting$ = 8					; size = 4
?OnRealSettingChanged@CLogAddInImp@@IAEXPBD@Z PROC	; CLogAddInImp::OnRealSettingChanged, COMDAT
; _this$ = ecx

; 352  : {

  00000	55		 push	 ebp
  00001	8b ec		 mov	 ebp, esp
  00003	6a ff		 push	 -1
  00005	68 00 00 00 00	 push	 __ehhandler$?OnRealSettingChanged@CLogAddInImp@@IAEXPBD@Z
  0000a	64 a1 00 00 00
	00		 mov	 eax, DWORD PTR fs:0
  00010	50		 push	 eax
  00011	51		 push	 ecx
  00012	56		 push	 esi
  00013	a1 00 00 00 00	 mov	 eax, DWORD PTR ___security_cookie
  00018	33 c5		 xor	 eax, ebp
  0001a	50		 push	 eax
  0001b	8d 45 f4	 lea	 eax, DWORD PTR __$EHRec$[ebp]
  0001e	64 a3 00 00 00
	00		 mov	 DWORD PTR fs:0, eax
  00024	8b f1		 mov	 esi, ecx

; 353  : 	if( !m_pDumpLogger) return;

  00026	83 7e 40 00	 cmp	 DWORD PTR [esi+64], 0
  0002a	74 3f		 je	 SHORT $LN1@OnRealSett

; 354  : 	CString strLogData;

  0002c	8d 4d f0	 lea	 ecx, DWORD PTR _strLogData$[ebp]
  0002f	ff 15 00 00 00
	00		 call	 DWORD PTR __imp_??0?$CStringT@DV?$StrTraitMFC_DLL@DV?$ChTraitsCRT@D@ATL@@@@@ATL@@QAE@XZ

; 355  : 	strLogData.Format( "OnRealSettingChanged\t%s\r\n", p_szRealSetting);

  00035	ff 75 08	 push	 DWORD PTR _p_szRealSetting$[ebp]
  00038	8d 45 f0	 lea	 eax, DWORD PTR _strLogData$[ebp]
  0003b	c7 45 fc 00 00
	00 00		 mov	 DWORD PTR __$EHRec$[ebp+8], 0
  00042	68 00 00 00 00	 push	 OFFSET ??_C@_0BK@BKCDMIFI@OnRealSettingChanged?7?$CFs?$AN?6@
  00047	50		 push	 eax
  00048	ff 15 00 00 00
	00		 call	 DWORD PTR __imp_?Format@?$CStringT@DV?$StrTraitMFC_DLL@DV?$ChTraitsCRT@D@ATL@@@@@ATL@@QAAXPBDZZ

; 356  : 	m_pDumpLogger->WriteToStringLog( NULL, strLogData, strLogData.GetLength());

  0004e	8b 45 f0	 mov	 eax, DWORD PTR _strLogData$[ebp]
  00051	83 c4 0c	 add	 esp, 12			; 0000000cH
  00054	8b 4e 40	 mov	 ecx, DWORD PTR [esi+64]
  00057	ff 70 f4	 push	 DWORD PTR [eax-12]
  0005a	50		 push	 eax
  0005b	6a 00		 push	 0
  0005d	e8 00 00 00 00	 call	 ?WriteToStringLog@CDumpLogger@@QAEXPBD0H@Z ; CDumpLogger::WriteToStringLog

; 357  : }

  00062	8d 4d f0	 lea	 ecx, DWORD PTR _strLogData$[ebp]
  00065	ff 15 00 00 00
	00		 call	 DWORD PTR __imp_??1?$CStringT@DV?$StrTraitMFC_DLL@DV?$ChTraitsCRT@D@ATL@@@@@ATL@@QAE@XZ
$LN1@OnRealSett:
  0006b	8b 4d f4	 mov	 ecx, DWORD PTR __$EHRec$[ebp]
  0006e	64 89 0d 00 00
	00 00		 mov	 DWORD PTR fs:0, ecx
  00075	59		 pop	 ecx
  00076	5e		 pop	 esi
  00077	8b e5		 mov	 esp, ebp
  00079	5d		 pop	 ebp
  0007a	c2 04 00	 ret	 4
_TEXT	ENDS
;	COMDAT text$x
text$x	SEGMENT
__unwindfunclet$?OnRealSettingChanged@CLogAddInImp@@IAEXPBD@Z$0:
  00000	8d 4d f0	 lea	 ecx, DWORD PTR _strLogData$[ebp]
  00003	ff 25 00 00 00
	00		 jmp	 DWORD PTR __imp_??1?$CStringT@DV?$StrTraitMFC_DLL@DV?$ChTraitsCRT@D@ATL@@@@@ATL@@QAE@XZ
  00009	cc		 int	 3
  0000a	cc		 int	 3
  0000b	cc		 int	 3
  0000c	cc		 int	 3
  0000d	cc		 int	 3
__ehhandler$?OnRealSettingChanged@CLogAddInImp@@IAEXPBD@Z:
  0000e	90		 npad	 1
  0000f	90		 npad	 1
  00010	8b 54 24 08	 mov	 edx, DWORD PTR [esp+8]
  00014	8d 42 0c	 lea	 eax, DWORD PTR [edx+12]
  00017	8b 4a f4	 mov	 ecx, DWORD PTR [edx-12]
  0001a	33 c8		 xor	 ecx, eax
  0001c	e8 00 00 00 00	 call	 @__security_check_cookie@4
  00021	b8 00 00 00 00	 mov	 eax, OFFSET __ehfuncinfo$?OnRealSettingChanged@CLogAddInImp@@IAEXPBD@Z
  00026	e9 00 00 00 00	 jmp	 ___CxxFrameHandler3
text$x	ENDS
?OnRealSettingChanged@CLogAddInImp@@IAEXPBD@Z ENDP	; CLogAddInImp::OnRealSettingChanged
; Function compile flags: /Ogtp
; File D:\git\src\IBK\IBK_DRFN\ProjSrc\SrcChartEx\ChartOCX\AddInManager\ChartCommonAddIn\LogAddInImp.cpp
;	COMDAT ?OffDrdsAdvise@CLogAddInImp@@IAEXJPBD00@Z
_TEXT	SEGMENT
_strLogData$ = -16					; size = 4
__$EHRec$ = -12						; size = 12
_p_lRequestID$ = 8					; size = 4
_p_szPacket$ = 12					; size = 4
_p_szField$ = 16					; size = 4
_p_szAdviseKey$ = 20					; size = 4
?OffDrdsAdvise@CLogAddInImp@@IAEXJPBD00@Z PROC		; CLogAddInImp::OffDrdsAdvise, COMDAT
; _this$ = ecx

; 341  : {

  00000	55		 push	 ebp
  00001	8b ec		 mov	 ebp, esp
  00003	6a ff		 push	 -1
  00005	68 00 00 00 00	 push	 __ehhandler$?OffDrdsAdvise@CLogAddInImp@@IAEXJPBD00@Z
  0000a	64 a1 00 00 00
	00		 mov	 eax, DWORD PTR fs:0
  00010	50		 push	 eax
  00011	51		 push	 ecx
  00012	56		 push	 esi
  00013	a1 00 00 00 00	 mov	 eax, DWORD PTR ___security_cookie
  00018	33 c5		 xor	 eax, ebp
  0001a	50		 push	 eax
  0001b	8d 45 f4	 lea	 eax, DWORD PTR __$EHRec$[ebp]
  0001e	64 a3 00 00 00
	00		 mov	 DWORD PTR fs:0, eax
  00024	8b f1		 mov	 esi, ecx

; 342  : 	if( !m_pDumpLogger) return;

  00026	83 7e 40 00	 cmp	 DWORD PTR [esi+64], 0
  0002a	74 48		 je	 SHORT $LN1@OffDrdsAdv

; 343  : 	CString strLogData;

  0002c	8d 4d f0	 lea	 ecx, DWORD PTR _strLogData$[ebp]
  0002f	ff 15 00 00 00
	00		 call	 DWORD PTR __imp_??0?$CStringT@DV?$StrTraitMFC_DLL@DV?$ChTraitsCRT@D@ATL@@@@@ATL@@QAE@XZ

; 344  : 	strLogData.Format( "OffDrdsAdvise\t%u\t%s.%s(%s)\r\n", p_lRequestID, p_szPacket, p_szField, p_szAdviseKey);

  00035	ff 75 14	 push	 DWORD PTR _p_szAdviseKey$[ebp]
  00038	8d 45 f0	 lea	 eax, DWORD PTR _strLogData$[ebp]
  0003b	c7 45 fc 00 00
	00 00		 mov	 DWORD PTR __$EHRec$[ebp+8], 0
  00042	ff 75 10	 push	 DWORD PTR _p_szField$[ebp]
  00045	ff 75 0c	 push	 DWORD PTR _p_szPacket$[ebp]
  00048	ff 75 08	 push	 DWORD PTR _p_lRequestID$[ebp]
  0004b	68 00 00 00 00	 push	 OFFSET ??_C@_0BN@NBCJMOLF@OffDrdsAdvise?7?$CFu?7?$CFs?4?$CFs?$CI?$CFs?$CJ?$AN?6@
  00050	50		 push	 eax
  00051	ff 15 00 00 00
	00		 call	 DWORD PTR __imp_?Format@?$CStringT@DV?$StrTraitMFC_DLL@DV?$ChTraitsCRT@D@ATL@@@@@ATL@@QAAXPBDZZ

; 345  : 	m_pDumpLogger->WriteToStringLog( NULL, strLogData, strLogData.GetLength());

  00057	8b 45 f0	 mov	 eax, DWORD PTR _strLogData$[ebp]
  0005a	83 c4 18	 add	 esp, 24			; 00000018H
  0005d	8b 4e 40	 mov	 ecx, DWORD PTR [esi+64]
  00060	ff 70 f4	 push	 DWORD PTR [eax-12]
  00063	50		 push	 eax
  00064	6a 00		 push	 0
  00066	e8 00 00 00 00	 call	 ?WriteToStringLog@CDumpLogger@@QAEXPBD0H@Z ; CDumpLogger::WriteToStringLog

; 346  : }

  0006b	8d 4d f0	 lea	 ecx, DWORD PTR _strLogData$[ebp]
  0006e	ff 15 00 00 00
	00		 call	 DWORD PTR __imp_??1?$CStringT@DV?$StrTraitMFC_DLL@DV?$ChTraitsCRT@D@ATL@@@@@ATL@@QAE@XZ
$LN1@OffDrdsAdv:
  00074	8b 4d f4	 mov	 ecx, DWORD PTR __$EHRec$[ebp]
  00077	64 89 0d 00 00
	00 00		 mov	 DWORD PTR fs:0, ecx
  0007e	59		 pop	 ecx
  0007f	5e		 pop	 esi
  00080	8b e5		 mov	 esp, ebp
  00082	5d		 pop	 ebp
  00083	c2 10 00	 ret	 16			; 00000010H
_TEXT	ENDS
;	COMDAT text$x
text$x	SEGMENT
__unwindfunclet$?OffDrdsAdvise@CLogAddInImp@@IAEXJPBD00@Z$0:
  00000	8d 4d f0	 lea	 ecx, DWORD PTR _strLogData$[ebp]
  00003	ff 25 00 00 00
	00		 jmp	 DWORD PTR __imp_??1?$CStringT@DV?$StrTraitMFC_DLL@DV?$ChTraitsCRT@D@ATL@@@@@ATL@@QAE@XZ
  00009	cc		 int	 3
  0000a	cc		 int	 3
  0000b	cc		 int	 3
  0000c	cc		 int	 3
  0000d	cc		 int	 3
__ehhandler$?OffDrdsAdvise@CLogAddInImp@@IAEXJPBD00@Z:
  0000e	90		 npad	 1
  0000f	90		 npad	 1
  00010	8b 54 24 08	 mov	 edx, DWORD PTR [esp+8]
  00014	8d 42 0c	 lea	 eax, DWORD PTR [edx+12]
  00017	8b 4a f4	 mov	 ecx, DWORD PTR [edx-12]
  0001a	33 c8		 xor	 ecx, eax
  0001c	e8 00 00 00 00	 call	 @__security_check_cookie@4
  00021	b8 00 00 00 00	 mov	 eax, OFFSET __ehfuncinfo$?OffDrdsAdvise@CLogAddInImp@@IAEXJPBD00@Z
  00026	e9 00 00 00 00	 jmp	 ___CxxFrameHandler3
text$x	ENDS
?OffDrdsAdvise@CLogAddInImp@@IAEXJPBD00@Z ENDP		; CLogAddInImp::OffDrdsAdvise
; Function compile flags: /Ogtp
; File D:\git\src\IBK\IBK_DRFN\ProjSrc\SrcChartEx\ChartOCX\AddInManager\ChartCommonAddIn\LogAddInImp.cpp
;	COMDAT ?OnDrdsAdvise@CLogAddInImp@@IAEXJPBD00@Z
_TEXT	SEGMENT
_strLogData$ = -16					; size = 4
__$EHRec$ = -12						; size = 12
_p_lRequestID$ = 8					; size = 4
_p_szPacket$ = 12					; size = 4
_p_szField$ = 16					; size = 4
_p_szAdviseKey$ = 20					; size = 4
?OnDrdsAdvise@CLogAddInImp@@IAEXJPBD00@Z PROC		; CLogAddInImp::OnDrdsAdvise, COMDAT
; _this$ = ecx

; 334  : {

  00000	55		 push	 ebp
  00001	8b ec		 mov	 ebp, esp
  00003	6a ff		 push	 -1
  00005	68 00 00 00 00	 push	 __ehhandler$?OnDrdsAdvise@CLogAddInImp@@IAEXJPBD00@Z
  0000a	64 a1 00 00 00
	00		 mov	 eax, DWORD PTR fs:0
  00010	50		 push	 eax
  00011	51		 push	 ecx
  00012	56		 push	 esi
  00013	a1 00 00 00 00	 mov	 eax, DWORD PTR ___security_cookie
  00018	33 c5		 xor	 eax, ebp
  0001a	50		 push	 eax
  0001b	8d 45 f4	 lea	 eax, DWORD PTR __$EHRec$[ebp]
  0001e	64 a3 00 00 00
	00		 mov	 DWORD PTR fs:0, eax
  00024	8b f1		 mov	 esi, ecx

; 335  : 	if( !m_pDumpLogger) return;

  00026	83 7e 40 00	 cmp	 DWORD PTR [esi+64], 0
  0002a	74 48		 je	 SHORT $LN1@OnDrdsAdvi

; 336  : 	CString strLogData;

  0002c	8d 4d f0	 lea	 ecx, DWORD PTR _strLogData$[ebp]
  0002f	ff 15 00 00 00
	00		 call	 DWORD PTR __imp_??0?$CStringT@DV?$StrTraitMFC_DLL@DV?$ChTraitsCRT@D@ATL@@@@@ATL@@QAE@XZ

; 337  : 	strLogData.Format( "OnDrdsAdvise\t%u\t%s.%s(%s)\r\n", p_lRequestID, p_szPacket, p_szField, p_szAdviseKey);

  00035	ff 75 14	 push	 DWORD PTR _p_szAdviseKey$[ebp]
  00038	8d 45 f0	 lea	 eax, DWORD PTR _strLogData$[ebp]
  0003b	c7 45 fc 00 00
	00 00		 mov	 DWORD PTR __$EHRec$[ebp+8], 0
  00042	ff 75 10	 push	 DWORD PTR _p_szField$[ebp]
  00045	ff 75 0c	 push	 DWORD PTR _p_szPacket$[ebp]
  00048	ff 75 08	 push	 DWORD PTR _p_lRequestID$[ebp]
  0004b	68 00 00 00 00	 push	 OFFSET ??_C@_0BM@IICBOOGN@OnDrdsAdvise?7?$CFu?7?$CFs?4?$CFs?$CI?$CFs?$CJ?$AN?6@
  00050	50		 push	 eax
  00051	ff 15 00 00 00
	00		 call	 DWORD PTR __imp_?Format@?$CStringT@DV?$StrTraitMFC_DLL@DV?$ChTraitsCRT@D@ATL@@@@@ATL@@QAAXPBDZZ

; 338  : 	m_pDumpLogger->WriteToStringLog( NULL, strLogData, strLogData.GetLength());

  00057	8b 45 f0	 mov	 eax, DWORD PTR _strLogData$[ebp]
  0005a	83 c4 18	 add	 esp, 24			; 00000018H
  0005d	8b 4e 40	 mov	 ecx, DWORD PTR [esi+64]
  00060	ff 70 f4	 push	 DWORD PTR [eax-12]
  00063	50		 push	 eax
  00064	6a 00		 push	 0
  00066	e8 00 00 00 00	 call	 ?WriteToStringLog@CDumpLogger@@QAEXPBD0H@Z ; CDumpLogger::WriteToStringLog

; 339  : }

  0006b	8d 4d f0	 lea	 ecx, DWORD PTR _strLogData$[ebp]
  0006e	ff 15 00 00 00
	00		 call	 DWORD PTR __imp_??1?$CStringT@DV?$StrTraitMFC_DLL@DV?$ChTraitsCRT@D@ATL@@@@@ATL@@QAE@XZ
$LN1@OnDrdsAdvi:
  00074	8b 4d f4	 mov	 ecx, DWORD PTR __$EHRec$[ebp]
  00077	64 89 0d 00 00
	00 00		 mov	 DWORD PTR fs:0, ecx
  0007e	59		 pop	 ecx
  0007f	5e		 pop	 esi
  00080	8b e5		 mov	 esp, ebp
  00082	5d		 pop	 ebp
  00083	c2 10 00	 ret	 16			; 00000010H
_TEXT	ENDS
;	COMDAT text$x
text$x	SEGMENT
__unwindfunclet$?OnDrdsAdvise@CLogAddInImp@@IAEXJPBD00@Z$0:
  00000	8d 4d f0	 lea	 ecx, DWORD PTR _strLogData$[ebp]
  00003	ff 25 00 00 00
	00		 jmp	 DWORD PTR __imp_??1?$CStringT@DV?$StrTraitMFC_DLL@DV?$ChTraitsCRT@D@ATL@@@@@ATL@@QAE@XZ
  00009	cc		 int	 3
  0000a	cc		 int	 3
  0000b	cc		 int	 3
  0000c	cc		 int	 3
  0000d	cc		 int	 3
__ehhandler$?OnDrdsAdvise@CLogAddInImp@@IAEXJPBD00@Z:
  0000e	90		 npad	 1
  0000f	90		 npad	 1
  00010	8b 54 24 08	 mov	 edx, DWORD PTR [esp+8]
  00014	8d 42 0c	 lea	 eax, DWORD PTR [edx+12]
  00017	8b 4a f4	 mov	 ecx, DWORD PTR [edx-12]
  0001a	33 c8		 xor	 ecx, eax
  0001c	e8 00 00 00 00	 call	 @__security_check_cookie@4
  00021	b8 00 00 00 00	 mov	 eax, OFFSET __ehfuncinfo$?OnDrdsAdvise@CLogAddInImp@@IAEXJPBD00@Z
  00026	e9 00 00 00 00	 jmp	 ___CxxFrameHandler3
text$x	ENDS
?OnDrdsAdvise@CLogAddInImp@@IAEXJPBD00@Z ENDP		; CLogAddInImp::OnDrdsAdvise
; Function compile flags: /Ogtp
; File D:\git\src\IBK\IBK_DRFN\ProjSrc\SrcChartEx\ChartOCX\AddInManager\ChartCommonAddIn\LogAddInImp.cpp
;	COMDAT ?OnRealPacketEnd@CLogAddInImp@@MAEXPBD@Z
_TEXT	SEGMENT
_strLogData$ = -16					; size = 4
__$EHRec$ = -12						; size = 12
_p_szRQ$ = 8						; size = 4
?OnRealPacketEnd@CLogAddInImp@@MAEXPBD@Z PROC		; CLogAddInImp::OnRealPacketEnd, COMDAT
; _this$ = ecx

; 319  : {

  00000	55		 push	 ebp
  00001	8b ec		 mov	 ebp, esp
  00003	6a ff		 push	 -1
  00005	68 00 00 00 00	 push	 __ehhandler$?OnRealPacketEnd@CLogAddInImp@@MAEXPBD@Z
  0000a	64 a1 00 00 00
	00		 mov	 eax, DWORD PTR fs:0
  00010	50		 push	 eax
  00011	51		 push	 ecx
  00012	56		 push	 esi
  00013	57		 push	 edi
  00014	a1 00 00 00 00	 mov	 eax, DWORD PTR ___security_cookie
  00019	33 c5		 xor	 eax, ebp
  0001b	50		 push	 eax
  0001c	8d 45 f4	 lea	 eax, DWORD PTR __$EHRec$[ebp]
  0001f	64 a3 00 00 00
	00		 mov	 DWORD PTR fs:0, eax
  00025	8b f9		 mov	 edi, ecx

; 320  : 	if( !m_pDumpLogger) return;

  00027	83 7f 38 00	 cmp	 DWORD PTR [edi+56], 0
  0002b	74 48		 je	 SHORT $LN1@OnRealPack

; 321  : 
; 322  : 	CString strLogData;

  0002d	8d 4d f0	 lea	 ecx, DWORD PTR _strLogData$[ebp]
  00030	ff 15 00 00 00
	00		 call	 DWORD PTR __imp_??0?$CStringT@DV?$StrTraitMFC_DLL@DV?$ChTraitsCRT@D@ATL@@@@@ATL@@QAE@XZ

; 323  : 	strLogData.Format( "OnRealPacketEnd\t:%s\r\n", m_strRealLogData);

  00036	ff 77 3c	 push	 DWORD PTR [edi+60]
  00039	8d 45 f0	 lea	 eax, DWORD PTR _strLogData$[ebp]
  0003c	c7 45 fc 00 00
	00 00		 mov	 DWORD PTR __$EHRec$[ebp+8], 0
  00043	68 00 00 00 00	 push	 OFFSET ??_C@_0BG@ILBABEIL@OnRealPacketEnd?7?3?$CFs?$AN?6@
  00048	50		 push	 eax
  00049	ff 15 00 00 00
	00		 call	 DWORD PTR __imp_?Format@?$CStringT@DV?$StrTraitMFC_DLL@DV?$ChTraitsCRT@D@ATL@@@@@ATL@@QAAXPBDZZ

; 324  : 	m_pDumpLogger->WriteToStringLog( NULL, strLogData, strLogData.GetLength());

  0004f	8b 45 f0	 mov	 eax, DWORD PTR _strLogData$[ebp]
  00052	83 c4 0c	 add	 esp, 12			; 0000000cH
  00055	8b 4f 38	 mov	 ecx, DWORD PTR [edi+56]
  00058	ff 70 f4	 push	 DWORD PTR [eax-12]
  0005b	50		 push	 eax
  0005c	6a 00		 push	 0
  0005e	e8 00 00 00 00	 call	 ?WriteToStringLog@CDumpLogger@@QAEXPBD0H@Z ; CDumpLogger::WriteToStringLog

; 325  : 	m_strRealLogData.Empty();

  00063	8d 4f 3c	 lea	 ecx, DWORD PTR [edi+60]
  00066	ff 15 00 00 00
	00		 call	 DWORD PTR __imp_?Empty@?$CSimpleStringT@D$00@ATL@@QAEXXZ

; 326  : }

  0006c	8d 4d f0	 lea	 ecx, DWORD PTR _strLogData$[ebp]
  0006f	ff 15 00 00 00
	00		 call	 DWORD PTR __imp_??1?$CStringT@DV?$StrTraitMFC_DLL@DV?$ChTraitsCRT@D@ATL@@@@@ATL@@QAE@XZ
$LN1@OnRealPack:
  00075	8b 4d f4	 mov	 ecx, DWORD PTR __$EHRec$[ebp]
  00078	64 89 0d 00 00
	00 00		 mov	 DWORD PTR fs:0, ecx
  0007f	59		 pop	 ecx
  00080	5f		 pop	 edi
  00081	5e		 pop	 esi
  00082	8b e5		 mov	 esp, ebp
  00084	5d		 pop	 ebp
  00085	c2 04 00	 ret	 4
_TEXT	ENDS
;	COMDAT text$x
text$x	SEGMENT
__unwindfunclet$?OnRealPacketEnd@CLogAddInImp@@MAEXPBD@Z$0:
  00000	8d 4d f0	 lea	 ecx, DWORD PTR _strLogData$[ebp]
  00003	ff 25 00 00 00
	00		 jmp	 DWORD PTR __imp_??1?$CStringT@DV?$StrTraitMFC_DLL@DV?$ChTraitsCRT@D@ATL@@@@@ATL@@QAE@XZ
  00009	cc		 int	 3
  0000a	cc		 int	 3
  0000b	cc		 int	 3
  0000c	cc		 int	 3
  0000d	cc		 int	 3
__ehhandler$?OnRealPacketEnd@CLogAddInImp@@MAEXPBD@Z:
  0000e	90		 npad	 1
  0000f	90		 npad	 1
  00010	8b 54 24 08	 mov	 edx, DWORD PTR [esp+8]
  00014	8d 42 0c	 lea	 eax, DWORD PTR [edx+12]
  00017	8b 4a f0	 mov	 ecx, DWORD PTR [edx-16]
  0001a	33 c8		 xor	 ecx, eax
  0001c	e8 00 00 00 00	 call	 @__security_check_cookie@4
  00021	b8 00 00 00 00	 mov	 eax, OFFSET __ehfuncinfo$?OnRealPacketEnd@CLogAddInImp@@MAEXPBD@Z
  00026	e9 00 00 00 00	 jmp	 ___CxxFrameHandler3
text$x	ENDS
?OnRealPacketEnd@CLogAddInImp@@MAEXPBD@Z ENDP		; CLogAddInImp::OnRealPacketEnd
; Function compile flags: /Ogtp
; File D:\git\src\IBK\IBK_DRFN\ProjSrc\SrcChartEx\ChartOCX\AddInManager\ChartCommonAddIn\LogAddInImp.cpp
; File C:\Program Files (x86)\Microsoft Visual Studio\2019\Community\VC\Tools\MSVC\14.29.30133\atlmfc\include\cstringt.h
; File D:\git\src\IBK\IBK_DRFN\ProjSrc\SrcChartEx\ChartOCX\AddInManager\ChartCommonAddIn\LogAddInImp.cpp
; File C:\Program Files (x86)\Microsoft Visual Studio\2019\Community\VC\Tools\MSVC\14.29.30133\atlmfc\include\cstringt.h
; File C:\Program Files (x86)\Microsoft Visual Studio\2019\Community\VC\Tools\MSVC\14.29.30133\atlmfc\include\atlsimpstr.h
; File C:\Program Files (x86)\Microsoft Visual Studio\2019\Community\VC\Tools\MSVC\14.29.30133\atlmfc\include\cstringt.h
; File C:\Program Files (x86)\Microsoft Visual Studio\2019\Community\VC\Tools\MSVC\14.29.30133\atlmfc\include\atlsimpstr.h
; File C:\Program Files (x86)\Microsoft Visual Studio\2019\Community\VC\Tools\MSVC\14.29.30133\atlmfc\include\cstringt.h
; File D:\git\src\IBK\IBK_DRFN\ProjSrc\SrcChartEx\ChartOCX\AddInManager\ChartCommonAddIn\LogAddInImp.cpp
; File C:\Program Files (x86)\Microsoft Visual Studio\2019\Community\VC\Tools\MSVC\14.29.30133\atlmfc\include\cstringt.h
; File C:\Program Files (x86)\Microsoft Visual Studio\2019\Community\VC\Tools\MSVC\14.29.30133\atlmfc\include\atlsimpstr.h
; File C:\Program Files (x86)\Microsoft Visual Studio\2019\Community\VC\Tools\MSVC\14.29.30133\atlmfc\include\cstringt.h
; File D:\git\src\IBK\IBK_DRFN\ProjSrc\SrcChartEx\ChartOCX\AddInManager\ChartCommonAddIn\LogAddInImp.cpp
; File C:\Program Files (x86)\Microsoft Visual Studio\2019\Community\VC\Tools\MSVC\14.29.30133\atlmfc\include\cstringt.h
; File D:\git\src\IBK\IBK_DRFN\ProjSrc\SrcChartEx\ChartOCX\AddInManager\ChartCommonAddIn\LogAddInImp.cpp
;	COMDAT ?OnIndexedRealData@CLogAddInImp@@MAEXPBDHN@Z
_TEXT	SEGMENT
$T2 = -28						; size = 4
_strData$ = -24						; size = 4
$T3 = -20						; size = 4
$T4 = -16						; size = 4
__$EHRec$ = -12						; size = 12
_p_szPacketName$ = 8					; size = 4
$T5 = 12						; size = 4
_p_nIndex$ = 12						; size = 4
_p_dData$ = 16						; size = 8
$T6 = 20						; size = 4
?OnIndexedRealData@CLogAddInImp@@MAEXPBDHN@Z PROC	; CLogAddInImp::OnIndexedRealData, COMDAT
; _this$ = ecx

; 310  : {

  00000	55		 push	 ebp
  00001	8b ec		 mov	 ebp, esp
  00003	6a ff		 push	 -1
  00005	68 00 00 00 00	 push	 __ehhandler$?OnIndexedRealData@CLogAddInImp@@MAEXPBDHN@Z
  0000a	64 a1 00 00 00
	00		 mov	 eax, DWORD PTR fs:0
  00010	50		 push	 eax
  00011	83 ec 10	 sub	 esp, 16			; 00000010H
  00014	53		 push	 ebx
  00015	56		 push	 esi
  00016	57		 push	 edi
  00017	a1 00 00 00 00	 mov	 eax, DWORD PTR ___security_cookie
  0001c	33 c5		 xor	 eax, ebp
  0001e	50		 push	 eax
  0001f	8d 45 f4	 lea	 eax, DWORD PTR __$EHRec$[ebp]
  00022	64 a3 00 00 00
	00		 mov	 DWORD PTR fs:0, eax
  00028	8b f1		 mov	 esi, ecx
  0002a	c7 45 f0 00 00
	00 00		 mov	 DWORD PTR $T4[ebp], 0

; 311  : 	if( !m_pDumpLogger) return;

  00031	83 7e 38 00	 cmp	 DWORD PTR [esi+56], 0
  00035	0f 84 3f 01 00
	00		 je	 $LN1@OnIndexedR

; 312  : 
; 313  : 	CString strData;

  0003b	8d 4d e8	 lea	 ecx, DWORD PTR _strData$[ebp]
  0003e	ff 15 00 00 00
	00		 call	 DWORD PTR __imp_??0?$CStringT@DV?$StrTraitMFC_DLL@DV?$ChTraitsCRT@D@ATL@@@@@ATL@@QAE@XZ

; 314  : 	strData.Format( "[%d]\t%f", p_nIndex, p_dData);

  00044	f2 0f 10 45 10	 movsd	 xmm0, QWORD PTR _p_dData$[ebp]
  00049	8d 45 e8	 lea	 eax, DWORD PTR _strData$[ebp]
  0004c	83 ec 08	 sub	 esp, 8
  0004f	c7 45 fc 00 00
	00 00		 mov	 DWORD PTR __$EHRec$[ebp+8], 0
  00056	f2 0f 11 04 24	 movsd	 QWORD PTR [esp], xmm0
  0005b	ff 75 0c	 push	 DWORD PTR _p_nIndex$[ebp]
  0005e	68 00 00 00 00	 push	 OFFSET ??_C@_07CMNLJIKL@?$FL?$CFd?$FN?7?$CFf@
  00063	50		 push	 eax
  00064	ff 15 00 00 00
	00		 call	 DWORD PTR __imp_?Format@?$CStringT@DV?$StrTraitMFC_DLL@DV?$ChTraitsCRT@D@ATL@@@@@ATL@@QAAXPBDZZ
  0006a	83 c4 14	 add	 esp, 20			; 00000014H

; 315  : 	m_strRealLogData += CString( "\t") + p_szPacketName + "\t" + strData;

  0006d	8d 4d e4	 lea	 ecx, DWORD PTR $T2[ebp]
  00070	68 00 00 00 00	 push	 OFFSET ??_C@_01GPOEFGEJ@?7@
  00075	ff 15 00 00 00
	00		 call	 DWORD PTR __imp_??0?$CStringT@DV?$StrTraitMFC_DLL@DV?$ChTraitsCRT@D@ATL@@@@@ATL@@QAE@PBD@Z
  0007b	8b d8		 mov	 ebx, eax
; File C:\Program Files (x86)\Microsoft Visual Studio\2019\Community\VC\Tools\MSVC\14.29.30133\atlmfc\include\cstringt.h

; 2401 : 		CStringT strResult( str1.GetManager() );

  0007d	8b cb		 mov	 ecx, ebx
; File D:\git\src\IBK\IBK_DRFN\ProjSrc\SrcChartEx\ChartOCX\AddInManager\ChartCommonAddIn\LogAddInImp.cpp

; 315  : 	m_strRealLogData += CString( "\t") + p_szPacketName + "\t" + strData;

  0007f	c6 45 fc 02	 mov	 BYTE PTR __$EHRec$[ebp+8], 2
; File C:\Program Files (x86)\Microsoft Visual Studio\2019\Community\VC\Tools\MSVC\14.29.30133\atlmfc\include\cstringt.h

; 2401 : 		CStringT strResult( str1.GetManager() );

  00083	ff 15 00 00 00
	00		 call	 DWORD PTR __imp_?GetManager@?$CStringT@DV?$StrTraitMFC_DLL@DV?$ChTraitsCRT@D@ATL@@@@@ATL@@QBEPAUIAtlStringMgr@2@XZ
  00089	50		 push	 eax
  0008a	8d 4d 14	 lea	 ecx, DWORD PTR $T6[ebp]
  0008d	ff 15 00 00 00
	00		 call	 DWORD PTR __imp_??0?$CStringT@DV?$StrTraitMFC_DLL@DV?$ChTraitsCRT@D@ATL@@@@@ATL@@QAE@PAUIAtlStringMgr@1@@Z
; File C:\Program Files (x86)\Microsoft Visual Studio\2019\Community\VC\Tools\MSVC\14.29.30133\atlmfc\include\atlsimpstr.h

; 722  : 		if( psz == NULL )

  00093	8b 55 08	 mov	 edx, DWORD PTR _p_szPacketName$[ebp]
; File C:\Program Files (x86)\Microsoft Visual Studio\2019\Community\VC\Tools\MSVC\14.29.30133\atlmfc\include\cstringt.h

; 2405 : 		return( strResult );

  00096	c7 45 f0 01 00
	00 00		 mov	 DWORD PTR $T4[ebp], 1
; File C:\Program Files (x86)\Microsoft Visual Studio\2019\Community\VC\Tools\MSVC\14.29.30133\atlmfc\include\atlsimpstr.h

; 722  : 		if( psz == NULL )

  0009d	85 d2		 test	 edx, edx
  0009f	75 04		 jne	 SHORT $LN14@OnIndexedR

; 723  : 		{
; 724  : 			return( 0 );

  000a1	33 c9		 xor	 ecx, ecx
  000a3	eb 14		 jmp	 SHORT $LN13@OnIndexedR
$LN14@OnIndexedR:

; 725  : 		}
; 726  : 		return( int( strlen( psz ) ) );

  000a5	8b ca		 mov	 ecx, edx
  000a7	8d 79 01	 lea	 edi, DWORD PTR [ecx+1]
  000aa	66 0f 1f 44 00
	00		 npad	 6
$LL51@OnIndexedR:
  000b0	8a 01		 mov	 al, BYTE PTR [ecx]
  000b2	41		 inc	 ecx
  000b3	84 c0		 test	 al, al
  000b5	75 f9		 jne	 SHORT $LL51@OnIndexedR
  000b7	2b cf		 sub	 ecx, edi
$LN13@OnIndexedR:

; 519  : 		return( GetData()->nDataLength );

  000b9	8b 03		 mov	 eax, DWORD PTR [ebx]
; File C:\Program Files (x86)\Microsoft Visual Studio\2019\Community\VC\Tools\MSVC\14.29.30133\atlmfc\include\cstringt.h

; 2403 : 		CThisSimpleString::Concatenate( strResult, str1, str1.GetLength(), psz2, CThisSimpleString::StringLength( psz2 ) );

  000bb	51		 push	 ecx
  000bc	52		 push	 edx
  000bd	ff 70 f4	 push	 DWORD PTR [eax-12]
  000c0	50		 push	 eax
  000c1	8d 45 14	 lea	 eax, DWORD PTR $T6[ebp]
  000c4	50		 push	 eax
  000c5	ff 15 00 00 00
	00		 call	 DWORD PTR __imp_?Concatenate@?$CSimpleStringT@D$00@ATL@@KAXAAV12@PBDH1H@Z
  000cb	83 c4 14	 add	 esp, 20			; 00000014H

; 2401 : 		CStringT strResult( str1.GetManager() );

  000ce	8d 4d 14	 lea	 ecx, DWORD PTR $T6[ebp]
; File D:\git\src\IBK\IBK_DRFN\ProjSrc\SrcChartEx\ChartOCX\AddInManager\ChartCommonAddIn\LogAddInImp.cpp

; 315  : 	m_strRealLogData += CString( "\t") + p_szPacketName + "\t" + strData;

  000d1	c6 45 fc 03	 mov	 BYTE PTR __$EHRec$[ebp+8], 3
; File C:\Program Files (x86)\Microsoft Visual Studio\2019\Community\VC\Tools\MSVC\14.29.30133\atlmfc\include\cstringt.h

; 2401 : 		CStringT strResult( str1.GetManager() );

  000d5	ff 15 00 00 00
	00		 call	 DWORD PTR __imp_?GetManager@?$CStringT@DV?$StrTraitMFC_DLL@DV?$ChTraitsCRT@D@ATL@@@@@ATL@@QBEPAUIAtlStringMgr@2@XZ
  000db	50		 push	 eax
  000dc	8d 4d 0c	 lea	 ecx, DWORD PTR $T5[ebp]
  000df	ff 15 00 00 00
	00		 call	 DWORD PTR __imp_??0?$CStringT@DV?$StrTraitMFC_DLL@DV?$ChTraitsCRT@D@ATL@@@@@ATL@@QAE@PAUIAtlStringMgr@1@@Z
; File C:\Program Files (x86)\Microsoft Visual Studio\2019\Community\VC\Tools\MSVC\14.29.30133\atlmfc\include\atlsimpstr.h

; 519  : 		return( GetData()->nDataLength );

  000e5	8b 45 14	 mov	 eax, DWORD PTR $T6[ebp]
; File C:\Program Files (x86)\Microsoft Visual Studio\2019\Community\VC\Tools\MSVC\14.29.30133\atlmfc\include\cstringt.h

; 2403 : 		CThisSimpleString::Concatenate( strResult, str1, str1.GetLength(), psz2, CThisSimpleString::StringLength( psz2 ) );

  000e8	6a 01		 push	 1
  000ea	68 00 00 00 00	 push	 OFFSET ??_C@_01GPOEFGEJ@?7@

; 2405 : 		return( strResult );

  000ef	c7 45 f0 03 00
	00 00		 mov	 DWORD PTR $T4[ebp], 3
  000f6	ff 70 f4	 push	 DWORD PTR [eax-12]
  000f9	50		 push	 eax
  000fa	8d 45 0c	 lea	 eax, DWORD PTR $T5[ebp]
  000fd	50		 push	 eax
  000fe	ff 15 00 00 00
	00		 call	 DWORD PTR __imp_?Concatenate@?$CSimpleStringT@D$00@ATL@@KAXAAV12@PBDH1H@Z
  00104	83 c4 14	 add	 esp, 20			; 00000014H

; 2390 : 		CStringT strResult( str1.GetManager() );

  00107	8d 4d 0c	 lea	 ecx, DWORD PTR $T5[ebp]
; File D:\git\src\IBK\IBK_DRFN\ProjSrc\SrcChartEx\ChartOCX\AddInManager\ChartCommonAddIn\LogAddInImp.cpp

; 315  : 	m_strRealLogData += CString( "\t") + p_szPacketName + "\t" + strData;

  0010a	c6 45 fc 04	 mov	 BYTE PTR __$EHRec$[ebp+8], 4
; File C:\Program Files (x86)\Microsoft Visual Studio\2019\Community\VC\Tools\MSVC\14.29.30133\atlmfc\include\cstringt.h

; 2390 : 		CStringT strResult( str1.GetManager() );

  0010e	ff 15 00 00 00
	00		 call	 DWORD PTR __imp_?GetManager@?$CStringT@DV?$StrTraitMFC_DLL@DV?$ChTraitsCRT@D@ATL@@@@@ATL@@QBEPAUIAtlStringMgr@2@XZ
  00114	50		 push	 eax
  00115	8d 4d ec	 lea	 ecx, DWORD PTR $T3[ebp]
  00118	ff 15 00 00 00
	00		 call	 DWORD PTR __imp_??0?$CStringT@DV?$StrTraitMFC_DLL@DV?$ChTraitsCRT@D@ATL@@@@@ATL@@QAE@PAUIAtlStringMgr@1@@Z

; 2391 : 
; 2392 : 		CThisSimpleString::Concatenate( strResult, str1, str1.GetLength(), str2, str2.GetLength() );

  0011e	8b 45 e8	 mov	 eax, DWORD PTR _strData$[ebp]

; 2393 : 
; 2394 : 		return( strResult );

  00121	c7 45 f0 07 00
	00 00		 mov	 DWORD PTR $T4[ebp], 7
  00128	ff 70 f4	 push	 DWORD PTR [eax-12]
  0012b	50		 push	 eax
  0012c	8b 45 0c	 mov	 eax, DWORD PTR $T5[ebp]
  0012f	ff 70 f4	 push	 DWORD PTR [eax-12]
  00132	50		 push	 eax
  00133	8d 45 ec	 lea	 eax, DWORD PTR $T3[ebp]
  00136	50		 push	 eax
  00137	ff 15 00 00 00
	00		 call	 DWORD PTR __imp_?Concatenate@?$CSimpleStringT@D$00@ATL@@KAXAAV12@PBDH1H@Z
  0013d	83 c4 14	 add	 esp, 20			; 00000014H
; File D:\git\src\IBK\IBK_DRFN\ProjSrc\SrcChartEx\ChartOCX\AddInManager\ChartCommonAddIn\LogAddInImp.cpp

; 315  : 	m_strRealLogData += CString( "\t") + p_szPacketName + "\t" + strData;

  00140	8d 45 ec	 lea	 eax, DWORD PTR $T3[ebp]
  00143	8d 4e 3c	 lea	 ecx, DWORD PTR [esi+60]
  00146	50		 push	 eax
  00147	ff 15 00 00 00
	00		 call	 DWORD PTR __imp_??Y?$CStringT@DV?$StrTraitMFC_DLL@DV?$ChTraitsCRT@D@ATL@@@@@ATL@@QAEAAV01@ABV?$CSimpleStringT@D$00@1@@Z
  0014d	8d 4d ec	 lea	 ecx, DWORD PTR $T3[ebp]
  00150	ff 15 00 00 00
	00		 call	 DWORD PTR __imp_??1?$CStringT@DV?$StrTraitMFC_DLL@DV?$ChTraitsCRT@D@ATL@@@@@ATL@@QAE@XZ
  00156	8d 4d 0c	 lea	 ecx, DWORD PTR $T5[ebp]
  00159	ff 15 00 00 00
	00		 call	 DWORD PTR __imp_??1?$CStringT@DV?$StrTraitMFC_DLL@DV?$ChTraitsCRT@D@ATL@@@@@ATL@@QAE@XZ
  0015f	8d 4d 14	 lea	 ecx, DWORD PTR $T6[ebp]
  00162	ff 15 00 00 00
	00		 call	 DWORD PTR __imp_??1?$CStringT@DV?$StrTraitMFC_DLL@DV?$ChTraitsCRT@D@ATL@@@@@ATL@@QAE@XZ
  00168	8d 4d e4	 lea	 ecx, DWORD PTR $T2[ebp]
  0016b	ff 15 00 00 00
	00		 call	 DWORD PTR __imp_??1?$CStringT@DV?$StrTraitMFC_DLL@DV?$ChTraitsCRT@D@ATL@@@@@ATL@@QAE@XZ

; 316  : }

  00171	8d 4d e8	 lea	 ecx, DWORD PTR _strData$[ebp]
  00174	ff 15 00 00 00
	00		 call	 DWORD PTR __imp_??1?$CStringT@DV?$StrTraitMFC_DLL@DV?$ChTraitsCRT@D@ATL@@@@@ATL@@QAE@XZ
$LN1@OnIndexedR:
  0017a	8b 4d f4	 mov	 ecx, DWORD PTR __$EHRec$[ebp]
  0017d	64 89 0d 00 00
	00 00		 mov	 DWORD PTR fs:0, ecx
  00184	59		 pop	 ecx
  00185	5f		 pop	 edi
  00186	5e		 pop	 esi
  00187	5b		 pop	 ebx
  00188	8b e5		 mov	 esp, ebp
  0018a	5d		 pop	 ebp
  0018b	c2 10 00	 ret	 16			; 00000010H
_TEXT	ENDS
;	COMDAT text$x
text$x	SEGMENT
__unwindfunclet$?OnIndexedRealData@CLogAddInImp@@MAEXPBDHN@Z$0:
  00000	8d 4d e8	 lea	 ecx, DWORD PTR _strData$[ebp]
  00003	ff 25 00 00 00
	00		 jmp	 DWORD PTR __imp_??1?$CStringT@DV?$StrTraitMFC_DLL@DV?$ChTraitsCRT@D@ATL@@@@@ATL@@QAE@XZ
__unwindfunclet$?OnIndexedRealData@CLogAddInImp@@MAEXPBDHN@Z$1:
  00009	8d 4d e4	 lea	 ecx, DWORD PTR $T2[ebp]
  0000c	ff 25 00 00 00
	00		 jmp	 DWORD PTR __imp_??1?$CStringT@DV?$StrTraitMFC_DLL@DV?$ChTraitsCRT@D@ATL@@@@@ATL@@QAE@XZ
__unwindfunclet$?OnIndexedRealData@CLogAddInImp@@MAEXPBDHN@Z$5:
  00012	8b 45 f0	 mov	 eax, DWORD PTR $T4[ebp]
  00015	83 e0 01	 and	 eax, 1
  00018	0f 84 0d 00 00
	00		 je	 $LN12@OnIndexedR
  0001e	83 65 f0 fe	 and	 DWORD PTR $T4[ebp], -2	; fffffffeH
  00022	8d 4d 14	 lea	 ecx, DWORD PTR $T6[ebp]
  00025	ff 25 00 00 00
	00		 jmp	 DWORD PTR __imp_??1?$CStringT@DV?$StrTraitMFC_DLL@DV?$ChTraitsCRT@D@ATL@@@@@ATL@@QAE@XZ
$LN12@OnIndexedR:
  0002b	c3		 ret	 0
__unwindfunclet$?OnIndexedRealData@CLogAddInImp@@MAEXPBDHN@Z$6:
  0002c	8b 45 f0	 mov	 eax, DWORD PTR $T4[ebp]
  0002f	83 e0 02	 and	 eax, 2
  00032	0f 84 0d 00 00
	00		 je	 $LN25@OnIndexedR
  00038	83 65 f0 fd	 and	 DWORD PTR $T4[ebp], -3	; fffffffdH
  0003c	8d 4d 0c	 lea	 ecx, DWORD PTR $T5[ebp]
  0003f	ff 25 00 00 00
	00		 jmp	 DWORD PTR __imp_??1?$CStringT@DV?$StrTraitMFC_DLL@DV?$ChTraitsCRT@D@ATL@@@@@ATL@@QAE@XZ
$LN25@OnIndexedR:
  00045	c3		 ret	 0
__unwindfunclet$?OnIndexedRealData@CLogAddInImp@@MAEXPBDHN@Z$7:
  00046	8b 45 f0	 mov	 eax, DWORD PTR $T4[ebp]
  00049	83 e0 04	 and	 eax, 4
  0004c	0f 84 0d 00 00
	00		 je	 $LN38@OnIndexedR
  00052	83 65 f0 fb	 and	 DWORD PTR $T4[ebp], -5	; fffffffbH
  00056	8d 4d ec	 lea	 ecx, DWORD PTR $T3[ebp]
  00059	ff 25 00 00 00
	00		 jmp	 DWORD PTR __imp_??1?$CStringT@DV?$StrTraitMFC_DLL@DV?$ChTraitsCRT@D@ATL@@@@@ATL@@QAE@XZ
$LN38@OnIndexedR:
  0005f	c3		 ret	 0
  00060	cc		 int	 3
  00061	cc		 int	 3
  00062	cc		 int	 3
  00063	cc		 int	 3
  00064	cc		 int	 3
__ehhandler$?OnIndexedRealData@CLogAddInImp@@MAEXPBDHN@Z:
  00065	90		 npad	 1
  00066	90		 npad	 1
  00067	8b 54 24 08	 mov	 edx, DWORD PTR [esp+8]
  0006b	8d 42 0c	 lea	 eax, DWORD PTR [edx+12]
  0006e	8b 4a e0	 mov	 ecx, DWORD PTR [edx-32]
  00071	33 c8		 xor	 ecx, eax
  00073	e8 00 00 00 00	 call	 @__security_check_cookie@4
  00078	b8 00 00 00 00	 mov	 eax, OFFSET __ehfuncinfo$?OnIndexedRealData@CLogAddInImp@@MAEXPBDHN@Z
  0007d	e9 00 00 00 00	 jmp	 ___CxxFrameHandler3
text$x	ENDS
?OnIndexedRealData@CLogAddInImp@@MAEXPBDHN@Z ENDP	; CLogAddInImp::OnIndexedRealData
; Function compile flags: /Ogtp
; File D:\git\src\IBK\IBK_DRFN\ProjSrc\SrcChartEx\ChartOCX\AddInManager\ChartCommonAddIn\LogAddInImp.cpp
; File C:\Program Files (x86)\Microsoft Visual Studio\2019\Community\VC\Tools\MSVC\14.29.30133\atlmfc\include\cstringt.h
; File D:\git\src\IBK\IBK_DRFN\ProjSrc\SrcChartEx\ChartOCX\AddInManager\ChartCommonAddIn\LogAddInImp.cpp
; File C:\Program Files (x86)\Microsoft Visual Studio\2019\Community\VC\Tools\MSVC\14.29.30133\atlmfc\include\cstringt.h
; File C:\Program Files (x86)\Microsoft Visual Studio\2019\Community\VC\Tools\MSVC\14.29.30133\atlmfc\include\atlsimpstr.h
; File C:\Program Files (x86)\Microsoft Visual Studio\2019\Community\VC\Tools\MSVC\14.29.30133\atlmfc\include\cstringt.h
; File C:\Program Files (x86)\Microsoft Visual Studio\2019\Community\VC\Tools\MSVC\14.29.30133\atlmfc\include\atlsimpstr.h
; File C:\Program Files (x86)\Microsoft Visual Studio\2019\Community\VC\Tools\MSVC\14.29.30133\atlmfc\include\cstringt.h
; File D:\git\src\IBK\IBK_DRFN\ProjSrc\SrcChartEx\ChartOCX\AddInManager\ChartCommonAddIn\LogAddInImp.cpp
; File C:\Program Files (x86)\Microsoft Visual Studio\2019\Community\VC\Tools\MSVC\14.29.30133\atlmfc\include\cstringt.h
; File C:\Program Files (x86)\Microsoft Visual Studio\2019\Community\VC\Tools\MSVC\14.29.30133\atlmfc\include\atlsimpstr.h
; File C:\Program Files (x86)\Microsoft Visual Studio\2019\Community\VC\Tools\MSVC\14.29.30133\atlmfc\include\cstringt.h
; File D:\git\src\IBK\IBK_DRFN\ProjSrc\SrcChartEx\ChartOCX\AddInManager\ChartCommonAddIn\LogAddInImp.cpp
; File C:\Program Files (x86)\Microsoft Visual Studio\2019\Community\VC\Tools\MSVC\14.29.30133\atlmfc\include\cstringt.h
; File D:\git\src\IBK\IBK_DRFN\ProjSrc\SrcChartEx\ChartOCX\AddInManager\ChartCommonAddIn\LogAddInImp.cpp
;	COMDAT ?OnRealData@CLogAddInImp@@MAEXPBDN0@Z
_TEXT	SEGMENT
$T2 = -32						; size = 4
_strData$ = -28						; size = 4
$T3 = -24						; size = 4
$T4 = -20						; size = 4
$T5 = -16						; size = 4
__$EHRec$ = -12						; size = 12
_p_szPacketName$ = 8					; size = 4
_p_dData$ = 12						; size = 8
$T6 = 16						; size = 4
_p_szRQ$ = 20						; size = 4
?OnRealData@CLogAddInImp@@MAEXPBDN0@Z PROC		; CLogAddInImp::OnRealData, COMDAT
; _this$ = ecx

; 302  : {

  00000	55		 push	 ebp
  00001	8b ec		 mov	 ebp, esp
  00003	6a ff		 push	 -1
  00005	68 00 00 00 00	 push	 __ehhandler$?OnRealData@CLogAddInImp@@MAEXPBDN0@Z
  0000a	64 a1 00 00 00
	00		 mov	 eax, DWORD PTR fs:0
  00010	50		 push	 eax
  00011	83 ec 14	 sub	 esp, 20			; 00000014H
  00014	53		 push	 ebx
  00015	56		 push	 esi
  00016	57		 push	 edi
  00017	a1 00 00 00 00	 mov	 eax, DWORD PTR ___security_cookie
  0001c	33 c5		 xor	 eax, ebp
  0001e	50		 push	 eax
  0001f	8d 45 f4	 lea	 eax, DWORD PTR __$EHRec$[ebp]
  00022	64 a3 00 00 00
	00		 mov	 DWORD PTR fs:0, eax
  00028	8b f1		 mov	 esi, ecx
  0002a	c7 45 ec 00 00
	00 00		 mov	 DWORD PTR $T4[ebp], 0

; 303  : 	if( !m_pDumpLogger) return;

  00031	83 7e 38 00	 cmp	 DWORD PTR [esi+56], 0
  00035	0f 84 36 01 00
	00		 je	 $LN1@OnRealData

; 304  : 
; 305  : 	CString strData;

  0003b	8d 4d e4	 lea	 ecx, DWORD PTR _strData$[ebp]
  0003e	ff 15 00 00 00
	00		 call	 DWORD PTR __imp_??0?$CStringT@DV?$StrTraitMFC_DLL@DV?$ChTraitsCRT@D@ATL@@@@@ATL@@QAE@XZ

; 306  : 	strData.Format( "%f", p_dData);

  00044	f2 0f 10 45 0c	 movsd	 xmm0, QWORD PTR _p_dData$[ebp]
  00049	8d 45 e4	 lea	 eax, DWORD PTR _strData$[ebp]
  0004c	83 ec 08	 sub	 esp, 8
  0004f	c7 45 fc 00 00
	00 00		 mov	 DWORD PTR __$EHRec$[ebp+8], 0
  00056	f2 0f 11 04 24	 movsd	 QWORD PTR [esp], xmm0
  0005b	68 00 00 00 00	 push	 OFFSET ??_C@_02NJPGOMH@?$CFf@
  00060	50		 push	 eax
  00061	ff 15 00 00 00
	00		 call	 DWORD PTR __imp_?Format@?$CStringT@DV?$StrTraitMFC_DLL@DV?$ChTraitsCRT@D@ATL@@@@@ATL@@QAAXPBDZZ
  00067	83 c4 10	 add	 esp, 16			; 00000010H

; 307  : 	m_strRealLogData += CString( "\t") + p_szPacketName + "\t" + strData;

  0006a	8d 4d e0	 lea	 ecx, DWORD PTR $T2[ebp]
  0006d	68 00 00 00 00	 push	 OFFSET ??_C@_01GPOEFGEJ@?7@
  00072	ff 15 00 00 00
	00		 call	 DWORD PTR __imp_??0?$CStringT@DV?$StrTraitMFC_DLL@DV?$ChTraitsCRT@D@ATL@@@@@ATL@@QAE@PBD@Z
  00078	8b d8		 mov	 ebx, eax
; File C:\Program Files (x86)\Microsoft Visual Studio\2019\Community\VC\Tools\MSVC\14.29.30133\atlmfc\include\cstringt.h

; 2401 : 		CStringT strResult( str1.GetManager() );

  0007a	8b cb		 mov	 ecx, ebx
; File D:\git\src\IBK\IBK_DRFN\ProjSrc\SrcChartEx\ChartOCX\AddInManager\ChartCommonAddIn\LogAddInImp.cpp

; 307  : 	m_strRealLogData += CString( "\t") + p_szPacketName + "\t" + strData;

  0007c	c6 45 fc 02	 mov	 BYTE PTR __$EHRec$[ebp+8], 2
; File C:\Program Files (x86)\Microsoft Visual Studio\2019\Community\VC\Tools\MSVC\14.29.30133\atlmfc\include\cstringt.h

; 2401 : 		CStringT strResult( str1.GetManager() );

  00080	ff 15 00 00 00
	00		 call	 DWORD PTR __imp_?GetManager@?$CStringT@DV?$StrTraitMFC_DLL@DV?$ChTraitsCRT@D@ATL@@@@@ATL@@QBEPAUIAtlStringMgr@2@XZ
  00086	50		 push	 eax
  00087	8d 4d f0	 lea	 ecx, DWORD PTR $T5[ebp]
  0008a	ff 15 00 00 00
	00		 call	 DWORD PTR __imp_??0?$CStringT@DV?$StrTraitMFC_DLL@DV?$ChTraitsCRT@D@ATL@@@@@ATL@@QAE@PAUIAtlStringMgr@1@@Z
; File C:\Program Files (x86)\Microsoft Visual Studio\2019\Community\VC\Tools\MSVC\14.29.30133\atlmfc\include\atlsimpstr.h

; 722  : 		if( psz == NULL )

  00090	8b 55 08	 mov	 edx, DWORD PTR _p_szPacketName$[ebp]
; File C:\Program Files (x86)\Microsoft Visual Studio\2019\Community\VC\Tools\MSVC\14.29.30133\atlmfc\include\cstringt.h

; 2405 : 		return( strResult );

  00093	c7 45 ec 01 00
	00 00		 mov	 DWORD PTR $T4[ebp], 1
; File C:\Program Files (x86)\Microsoft Visual Studio\2019\Community\VC\Tools\MSVC\14.29.30133\atlmfc\include\atlsimpstr.h

; 722  : 		if( psz == NULL )

  0009a	85 d2		 test	 edx, edx
  0009c	75 04		 jne	 SHORT $LN14@OnRealData

; 723  : 		{
; 724  : 			return( 0 );

  0009e	33 c9		 xor	 ecx, ecx
  000a0	eb 0e		 jmp	 SHORT $LN13@OnRealData
$LN14@OnRealData:

; 725  : 		}
; 726  : 		return( int( strlen( psz ) ) );

  000a2	8b ca		 mov	 ecx, edx
  000a4	8d 79 01	 lea	 edi, DWORD PTR [ecx+1]
$LL51@OnRealData:
  000a7	8a 01		 mov	 al, BYTE PTR [ecx]
  000a9	41		 inc	 ecx
  000aa	84 c0		 test	 al, al
  000ac	75 f9		 jne	 SHORT $LL51@OnRealData
  000ae	2b cf		 sub	 ecx, edi
$LN13@OnRealData:

; 519  : 		return( GetData()->nDataLength );

  000b0	8b 03		 mov	 eax, DWORD PTR [ebx]
; File C:\Program Files (x86)\Microsoft Visual Studio\2019\Community\VC\Tools\MSVC\14.29.30133\atlmfc\include\cstringt.h

; 2403 : 		CThisSimpleString::Concatenate( strResult, str1, str1.GetLength(), psz2, CThisSimpleString::StringLength( psz2 ) );

  000b2	51		 push	 ecx
  000b3	52		 push	 edx
  000b4	ff 70 f4	 push	 DWORD PTR [eax-12]
  000b7	50		 push	 eax
  000b8	8d 45 f0	 lea	 eax, DWORD PTR $T5[ebp]
  000bb	50		 push	 eax
  000bc	ff 15 00 00 00
	00		 call	 DWORD PTR __imp_?Concatenate@?$CSimpleStringT@D$00@ATL@@KAXAAV12@PBDH1H@Z
  000c2	83 c4 14	 add	 esp, 20			; 00000014H

; 2401 : 		CStringT strResult( str1.GetManager() );

  000c5	8d 4d f0	 lea	 ecx, DWORD PTR $T5[ebp]
; File D:\git\src\IBK\IBK_DRFN\ProjSrc\SrcChartEx\ChartOCX\AddInManager\ChartCommonAddIn\LogAddInImp.cpp

; 307  : 	m_strRealLogData += CString( "\t") + p_szPacketName + "\t" + strData;

  000c8	c6 45 fc 03	 mov	 BYTE PTR __$EHRec$[ebp+8], 3
; File C:\Program Files (x86)\Microsoft Visual Studio\2019\Community\VC\Tools\MSVC\14.29.30133\atlmfc\include\cstringt.h

; 2401 : 		CStringT strResult( str1.GetManager() );

  000cc	ff 15 00 00 00
	00		 call	 DWORD PTR __imp_?GetManager@?$CStringT@DV?$StrTraitMFC_DLL@DV?$ChTraitsCRT@D@ATL@@@@@ATL@@QBEPAUIAtlStringMgr@2@XZ
  000d2	50		 push	 eax
  000d3	8d 4d 10	 lea	 ecx, DWORD PTR $T6[ebp]
  000d6	ff 15 00 00 00
	00		 call	 DWORD PTR __imp_??0?$CStringT@DV?$StrTraitMFC_DLL@DV?$ChTraitsCRT@D@ATL@@@@@ATL@@QAE@PAUIAtlStringMgr@1@@Z
; File C:\Program Files (x86)\Microsoft Visual Studio\2019\Community\VC\Tools\MSVC\14.29.30133\atlmfc\include\atlsimpstr.h

; 519  : 		return( GetData()->nDataLength );

  000dc	8b 45 f0	 mov	 eax, DWORD PTR $T5[ebp]
; File C:\Program Files (x86)\Microsoft Visual Studio\2019\Community\VC\Tools\MSVC\14.29.30133\atlmfc\include\cstringt.h

; 2403 : 		CThisSimpleString::Concatenate( strResult, str1, str1.GetLength(), psz2, CThisSimpleString::StringLength( psz2 ) );

  000df	6a 01		 push	 1
  000e1	68 00 00 00 00	 push	 OFFSET ??_C@_01GPOEFGEJ@?7@

; 2405 : 		return( strResult );

  000e6	c7 45 ec 03 00
	00 00		 mov	 DWORD PTR $T4[ebp], 3
  000ed	ff 70 f4	 push	 DWORD PTR [eax-12]
  000f0	50		 push	 eax
  000f1	8d 45 10	 lea	 eax, DWORD PTR $T6[ebp]
  000f4	50		 push	 eax
  000f5	ff 15 00 00 00
	00		 call	 DWORD PTR __imp_?Concatenate@?$CSimpleStringT@D$00@ATL@@KAXAAV12@PBDH1H@Z
  000fb	83 c4 14	 add	 esp, 20			; 00000014H

; 2390 : 		CStringT strResult( str1.GetManager() );

  000fe	8d 4d 10	 lea	 ecx, DWORD PTR $T6[ebp]
; File D:\git\src\IBK\IBK_DRFN\ProjSrc\SrcChartEx\ChartOCX\AddInManager\ChartCommonAddIn\LogAddInImp.cpp

; 307  : 	m_strRealLogData += CString( "\t") + p_szPacketName + "\t" + strData;

  00101	c6 45 fc 04	 mov	 BYTE PTR __$EHRec$[ebp+8], 4
; File C:\Program Files (x86)\Microsoft Visual Studio\2019\Community\VC\Tools\MSVC\14.29.30133\atlmfc\include\cstringt.h

; 2390 : 		CStringT strResult( str1.GetManager() );

  00105	ff 15 00 00 00
	00		 call	 DWORD PTR __imp_?GetManager@?$CStringT@DV?$StrTraitMFC_DLL@DV?$ChTraitsCRT@D@ATL@@@@@ATL@@QBEPAUIAtlStringMgr@2@XZ
  0010b	50		 push	 eax
  0010c	8d 4d e8	 lea	 ecx, DWORD PTR $T3[ebp]
  0010f	ff 15 00 00 00
	00		 call	 DWORD PTR __imp_??0?$CStringT@DV?$StrTraitMFC_DLL@DV?$ChTraitsCRT@D@ATL@@@@@ATL@@QAE@PAUIAtlStringMgr@1@@Z

; 2391 : 
; 2392 : 		CThisSimpleString::Concatenate( strResult, str1, str1.GetLength(), str2, str2.GetLength() );

  00115	8b 45 e4	 mov	 eax, DWORD PTR _strData$[ebp]

; 2393 : 
; 2394 : 		return( strResult );

  00118	c7 45 ec 07 00
	00 00		 mov	 DWORD PTR $T4[ebp], 7
  0011f	ff 70 f4	 push	 DWORD PTR [eax-12]
  00122	50		 push	 eax
  00123	8b 45 10	 mov	 eax, DWORD PTR $T6[ebp]
  00126	ff 70 f4	 push	 DWORD PTR [eax-12]
  00129	50		 push	 eax
  0012a	8d 45 e8	 lea	 eax, DWORD PTR $T3[ebp]
  0012d	50		 push	 eax
  0012e	ff 15 00 00 00
	00		 call	 DWORD PTR __imp_?Concatenate@?$CSimpleStringT@D$00@ATL@@KAXAAV12@PBDH1H@Z
  00134	83 c4 14	 add	 esp, 20			; 00000014H
; File D:\git\src\IBK\IBK_DRFN\ProjSrc\SrcChartEx\ChartOCX\AddInManager\ChartCommonAddIn\LogAddInImp.cpp

; 307  : 	m_strRealLogData += CString( "\t") + p_szPacketName + "\t" + strData;

  00137	8d 45 e8	 lea	 eax, DWORD PTR $T3[ebp]
  0013a	8d 4e 3c	 lea	 ecx, DWORD PTR [esi+60]
  0013d	50		 push	 eax
  0013e	ff 15 00 00 00
	00		 call	 DWORD PTR __imp_??Y?$CStringT@DV?$StrTraitMFC_DLL@DV?$ChTraitsCRT@D@ATL@@@@@ATL@@QAEAAV01@ABV?$CSimpleStringT@D$00@1@@Z
  00144	8d 4d e8	 lea	 ecx, DWORD PTR $T3[ebp]
  00147	ff 15 00 00 00
	00		 call	 DWORD PTR __imp_??1?$CStringT@DV?$StrTraitMFC_DLL@DV?$ChTraitsCRT@D@ATL@@@@@ATL@@QAE@XZ
  0014d	8d 4d 10	 lea	 ecx, DWORD PTR $T6[ebp]
  00150	ff 15 00 00 00
	00		 call	 DWORD PTR __imp_??1?$CStringT@DV?$StrTraitMFC_DLL@DV?$ChTraitsCRT@D@ATL@@@@@ATL@@QAE@XZ
  00156	8d 4d f0	 lea	 ecx, DWORD PTR $T5[ebp]
  00159	ff 15 00 00 00
	00		 call	 DWORD PTR __imp_??1?$CStringT@DV?$StrTraitMFC_DLL@DV?$ChTraitsCRT@D@ATL@@@@@ATL@@QAE@XZ
  0015f	8d 4d e0	 lea	 ecx, DWORD PTR $T2[ebp]
  00162	ff 15 00 00 00
	00		 call	 DWORD PTR __imp_??1?$CStringT@DV?$StrTraitMFC_DLL@DV?$ChTraitsCRT@D@ATL@@@@@ATL@@QAE@XZ

; 308  : }

  00168	8d 4d e4	 lea	 ecx, DWORD PTR _strData$[ebp]
  0016b	ff 15 00 00 00
	00		 call	 DWORD PTR __imp_??1?$CStringT@DV?$StrTraitMFC_DLL@DV?$ChTraitsCRT@D@ATL@@@@@ATL@@QAE@XZ
$LN1@OnRealData:
  00171	8b 4d f4	 mov	 ecx, DWORD PTR __$EHRec$[ebp]
  00174	64 89 0d 00 00
	00 00		 mov	 DWORD PTR fs:0, ecx
  0017b	59		 pop	 ecx
  0017c	5f		 pop	 edi
  0017d	5e		 pop	 esi
  0017e	5b		 pop	 ebx
  0017f	8b e5		 mov	 esp, ebp
  00181	5d		 pop	 ebp
  00182	c2 10 00	 ret	 16			; 00000010H
_TEXT	ENDS
;	COMDAT text$x
text$x	SEGMENT
__unwindfunclet$?OnRealData@CLogAddInImp@@MAEXPBDN0@Z$0:
  00000	8d 4d e4	 lea	 ecx, DWORD PTR _strData$[ebp]
  00003	ff 25 00 00 00
	00		 jmp	 DWORD PTR __imp_??1?$CStringT@DV?$StrTraitMFC_DLL@DV?$ChTraitsCRT@D@ATL@@@@@ATL@@QAE@XZ
__unwindfunclet$?OnRealData@CLogAddInImp@@MAEXPBDN0@Z$1:
  00009	8d 4d e0	 lea	 ecx, DWORD PTR $T2[ebp]
  0000c	ff 25 00 00 00
	00		 jmp	 DWORD PTR __imp_??1?$CStringT@DV?$StrTraitMFC_DLL@DV?$ChTraitsCRT@D@ATL@@@@@ATL@@QAE@XZ
__unwindfunclet$?OnRealData@CLogAddInImp@@MAEXPBDN0@Z$5:
  00012	8b 45 ec	 mov	 eax, DWORD PTR $T4[ebp]
  00015	83 e0 01	 and	 eax, 1
  00018	0f 84 0d 00 00
	00		 je	 $LN12@OnRealData
  0001e	83 65 ec fe	 and	 DWORD PTR $T4[ebp], -2	; fffffffeH
  00022	8d 4d f0	 lea	 ecx, DWORD PTR $T5[ebp]
  00025	ff 25 00 00 00
	00		 jmp	 DWORD PTR __imp_??1?$CStringT@DV?$StrTraitMFC_DLL@DV?$ChTraitsCRT@D@ATL@@@@@ATL@@QAE@XZ
$LN12@OnRealData:
  0002b	c3		 ret	 0
__unwindfunclet$?OnRealData@CLogAddInImp@@MAEXPBDN0@Z$6:
  0002c	8b 45 ec	 mov	 eax, DWORD PTR $T4[ebp]
  0002f	83 e0 02	 and	 eax, 2
  00032	0f 84 0d 00 00
	00		 je	 $LN25@OnRealData
  00038	83 65 ec fd	 and	 DWORD PTR $T4[ebp], -3	; fffffffdH
  0003c	8d 4d 10	 lea	 ecx, DWORD PTR $T6[ebp]
  0003f	ff 25 00 00 00
	00		 jmp	 DWORD PTR __imp_??1?$CStringT@DV?$StrTraitMFC_DLL@DV?$ChTraitsCRT@D@ATL@@@@@ATL@@QAE@XZ
$LN25@OnRealData:
  00045	c3		 ret	 0
__unwindfunclet$?OnRealData@CLogAddInImp@@MAEXPBDN0@Z$7:
  00046	8b 45 ec	 mov	 eax, DWORD PTR $T4[ebp]
  00049	83 e0 04	 and	 eax, 4
  0004c	0f 84 0d 00 00
	00		 je	 $LN38@OnRealData
  00052	83 65 ec fb	 and	 DWORD PTR $T4[ebp], -5	; fffffffbH
  00056	8d 4d e8	 lea	 ecx, DWORD PTR $T3[ebp]
  00059	ff 25 00 00 00
	00		 jmp	 DWORD PTR __imp_??1?$CStringT@DV?$StrTraitMFC_DLL@DV?$ChTraitsCRT@D@ATL@@@@@ATL@@QAE@XZ
$LN38@OnRealData:
  0005f	c3		 ret	 0
  00060	cc		 int	 3
  00061	cc		 int	 3
  00062	cc		 int	 3
  00063	cc		 int	 3
  00064	cc		 int	 3
__ehhandler$?OnRealData@CLogAddInImp@@MAEXPBDN0@Z:
  00065	90		 npad	 1
  00066	90		 npad	 1
  00067	8b 54 24 08	 mov	 edx, DWORD PTR [esp+8]
  0006b	8d 42 0c	 lea	 eax, DWORD PTR [edx+12]
  0006e	8b 4a dc	 mov	 ecx, DWORD PTR [edx-36]
  00071	33 c8		 xor	 ecx, eax
  00073	e8 00 00 00 00	 call	 @__security_check_cookie@4
  00078	b8 00 00 00 00	 mov	 eax, OFFSET __ehfuncinfo$?OnRealData@CLogAddInImp@@MAEXPBDN0@Z
  0007d	e9 00 00 00 00	 jmp	 ___CxxFrameHandler3
text$x	ENDS
?OnRealData@CLogAddInImp@@MAEXPBDN0@Z ENDP		; CLogAddInImp::OnRealData
; Function compile flags: /Ogtp
; File D:\git\src\IBK\IBK_DRFN\ProjSrc\SrcChartEx\ChartOCX\AddInManager\ChartCommonAddIn\LogAddInImp.cpp
; File D:\git\src\IBK\IBK_DRFN\ProjSrc\SrcChartEx\ChartOCX\AddInManager\Include_AddIn\I000000\_IString.h
; File D:\git\src\IBK\IBK_DRFN\ProjSrc\SrcChartEx\ChartOCX\AddInManager\ChartCommonAddIn\LogAddInImp.cpp
; File D:\git\src\IBK\IBK_DRFN\ProjSrc\SrcChartEx\ChartOCX\AddInManager\Include_AddIn\I000000\_IString.h
; File D:\git\src\IBK\IBK_DRFN\ProjSrc\SrcChartEx\ChartOCX\AddInManager\ChartCommonAddIn\LogAddInImp.cpp
; File C:\Program Files (x86)\Microsoft Visual Studio\2019\Community\VC\Tools\MSVC\14.29.30133\atlmfc\include\afxtempl.h
; File D:\git\src\IBK\IBK_DRFN\ProjSrc\SrcChartEx\ChartOCX\AddInManager\ChartCommonAddIn\LogAddInImp.cpp
; File D:\git\src\IBK\IBK_DRFN\ProjSrc\SrcChartEx\ChartOCX\AddInManager\Include_AddIn\I000000\_IPacketList.h
; File D:\git\src\IBK\IBK_DRFN\ProjSrc\SrcChartEx\ChartOCX\AddInManager\ChartCommonAddIn\LogAddInImp.cpp
; File C:\Program Files (x86)\Microsoft Visual Studio\2019\Community\VC\Tools\MSVC\14.29.30133\atlmfc\include\afxtempl.h
; File D:\git\src\IBK\IBK_DRFN\ProjSrc\SrcChartEx\ChartOCX\AddInManager\ChartCommonAddIn\LogAddInImp.cpp
; File D:\git\src\IBK\IBK_DRFN\ProjSrc\SrcChartEx\ChartOCX\AddInManager\Include_AddIn\I000000\_IString.h
; File D:\git\src\IBK\IBK_DRFN\ProjSrc\SrcChartEx\ChartOCX\AddInManager\ChartCommonAddIn\LogAddInImp.cpp
; File D:\git\src\IBK\IBK_DRFN\ProjSrc\SrcChartEx\ChartOCX\AddInManager\Include_AddIn\I000000\_IString.h
; File D:\git\src\IBK\IBK_DRFN\ProjSrc\SrcChartEx\ChartOCX\AddInManager\ChartCommonAddIn\LogAddInImp.cpp
; File C:\Program Files (x86)\Microsoft Visual Studio\2019\Community\VC\Tools\MSVC\14.29.30133\atlmfc\include\afxtempl.h
; File D:\git\src\IBK\IBK_DRFN\ProjSrc\SrcChartEx\ChartOCX\AddInManager\ChartCommonAddIn\LogAddInImp.cpp
; File C:\Program Files (x86)\Microsoft Visual Studio\2019\Community\VC\Tools\MSVC\14.29.30133\atlmfc\include\afxtempl.h
; File D:\git\src\IBK\IBK_DRFN\ProjSrc\SrcChartEx\ChartOCX\AddInManager\ChartCommonAddIn\LogAddInImp.cpp
; File C:\Program Files (x86)\Microsoft Visual Studio\2019\Community\VC\Tools\MSVC\14.29.30133\atlmfc\include\afxtempl.h
; File D:\git\src\IBK\IBK_DRFN\ProjSrc\SrcChartEx\ChartOCX\AddInManager\ChartCommonAddIn\LogAddInImp.cpp
; File C:\Program Files (x86)\Microsoft Visual Studio\2019\Community\VC\Tools\MSVC\14.29.30133\atlmfc\include\atlsimpstr.h
; File D:\git\src\IBK\IBK_DRFN\ProjSrc\SrcChartEx\ChartOCX\AddInManager\ChartCommonAddIn\LogAddInImp.cpp
; File C:\Program Files (x86)\Microsoft Visual Studio\2019\Community\VC\Tools\MSVC\14.29.30133\atlmfc\include\afxcoll.inl
; File C:\Program Files (x86)\Microsoft Visual Studio\2019\Community\VC\Tools\MSVC\14.29.30133\atlmfc\include\atlsimpstr.h
; File D:\git\src\IBK\IBK_DRFN\ProjSrc\SrcChartEx\ChartOCX\AddInManager\ChartCommonAddIn\LogAddInImp.cpp
; File C:\Program Files (x86)\Microsoft Visual Studio\2019\Community\VC\Tools\MSVC\14.29.30133\atlmfc\include\atlsimpstr.h
; File C:\Program Files (x86)\Microsoft Visual Studio\2019\Community\VC\Tools\MSVC\14.29.30133\atlmfc\include\afxcoll.inl
; File D:\git\src\IBK\IBK_DRFN\ProjSrc\SrcChartEx\ChartOCX\AddInManager\ChartCommonAddIn\LogAddInImp.cpp
; File C:\Program Files (x86)\Microsoft Visual Studio\2019\Community\VC\Tools\MSVC\14.29.30133\atlmfc\include\atlsimpstr.h
; File D:\git\src\IBK\IBK_DRFN\ProjSrc\SrcChartEx\ChartOCX\AddInManager\ChartCommonAddIn\LogAddInImp.cpp
; File D:\git\src\IBK\IBK_DRFN\ProjSrc\SrcChartEx\ChartOCX\AddInManager\Include_AddIn\I000000\_IPacketList.h
; File C:\Program Files (x86)\Microsoft Visual Studio\2019\Community\VC\Tools\MSVC\14.29.30133\atlmfc\include\afxtempl.h
; File D:\git\src\IBK\IBK_DRFN\ProjSrc\SrcChartEx\ChartOCX\AddInManager\ChartCommonAddIn\LogAddInImp.cpp
; File C:\Program Files (x86)\Microsoft Visual Studio\2019\Community\VC\Tools\MSVC\14.29.30133\atlmfc\include\afxtempl.h
; File D:\git\src\IBK\IBK_DRFN\ProjSrc\SrcChartEx\ChartOCX\AddInManager\ChartCommonAddIn\LogAddInImp.cpp
; File D:\git\src\IBK\IBK_DRFN\ProjSrc\SrcChartEx\ChartOCX\AddInManager\Include_AddIn\I000000\_IString.h
; File D:\git\src\IBK\IBK_DRFN\ProjSrc\SrcChartEx\ChartOCX\AddInManager\ChartCommonAddIn\LogAddInImp.cpp
; File C:\Program Files (x86)\Microsoft Visual Studio\2019\Community\VC\Tools\MSVC\14.29.30133\atlmfc\include\afxcoll.inl
; File D:\git\src\IBK\IBK_DRFN\ProjSrc\SrcChartEx\ChartOCX\AddInManager\ChartCommonAddIn\LogAddInImp.cpp
;	COMDAT ?OnPacketDataMultiItem@CLogAddInImp@@MAEXPBD0H@Z
_TEXT	SEGMENT
_slPacketLog$ = -152					; size = 28
_dData$2 = -124						; size = 8
tv1852 = -116						; size = 4
tv1856 = -112						; size = 4
_this$1$ = -108						; size = 4
_szData$3 = -104					; size = 8
_szKey$ = -96						; size = 8
_strPacketName$ = -88					; size = 4
_nPacketCount$1$ = -84					; size = 4
_lIPackets$ = -80					; size = 32
_szValue$ = -48						; size = 8
_pPosData$1$ = -40					; size = 4
tv1860 = -36						; size = 4
tv1859 = -36						; size = 4
tv1854 = -36						; size = 4
_pPosStrData$1$ = -32					; size = 4
_szLogData$1$ = -32					; size = 4
_strData$ = -28						; size = 4
_plStrDataList$1$ = -24					; size = 4
_posMsg$ = -20						; size = 4
_strLogData$ = -16					; size = 4
__$EHRec$ = -12						; size = 12
_lpszRQ$ = 8						; size = 4
_plDataList$1$ = 12					; size = 4
_nLogLength$2$ = 12					; size = 4
_p_szPacketNames$ = 12					; size = 4
tv1895 = 16						; size = 4
_szLogData$2$ = 16					; size = 4
_p_bWithReset$ = 16					; size = 4
?OnPacketDataMultiItem@CLogAddInImp@@MAEXPBD0H@Z PROC	; CLogAddInImp::OnPacketDataMultiItem, COMDAT
; _this$ = ecx

; 152  : {

  00000	55		 push	 ebp
  00001	8b ec		 mov	 ebp, esp
  00003	6a ff		 push	 -1
  00005	68 00 00 00 00	 push	 __ehhandler$?OnPacketDataMultiItem@CLogAddInImp@@MAEXPBD0H@Z
  0000a	64 a1 00 00 00
	00		 mov	 eax, DWORD PTR fs:0
  00010	50		 push	 eax
  00011	81 ec 8c 00 00
	00		 sub	 esp, 140		; 0000008cH
  00017	53		 push	 ebx
  00018	56		 push	 esi
  00019	57		 push	 edi
  0001a	a1 00 00 00 00	 mov	 eax, DWORD PTR ___security_cookie
  0001f	33 c5		 xor	 eax, ebp
  00021	50		 push	 eax
  00022	8d 45 f4	 lea	 eax, DWORD PTR __$EHRec$[ebp]
  00025	64 a3 00 00 00
	00		 mov	 DWORD PTR fs:0, eax
  0002b	8b c1		 mov	 eax, ecx
  0002d	89 45 94	 mov	 DWORD PTR _this$1$[ebp], eax

; 153  : 	if( !m_pDumpLogger) return;

  00030	83 78 38 00	 cmp	 DWORD PTR [eax+56], 0
  00034	0f 84 30 06 00
	00		 je	 $LN157@OnPacketDa

; 154  : 
; 155  : 	// (2005/9/29 - Seung-Won, Bae) Log Help Message
; 156  : 	IHelpMessageMap *pIHelpMessageMap = m_pIDefaultPacketManager->GetHelpMessageMap();

  0003a	8b 48 18	 mov	 ecx, DWORD PTR [eax+24]
  0003d	8b 01		 mov	 eax, DWORD PTR [ecx]
  0003f	ff 50 1c	 call	 DWORD PTR [eax+28]
  00042	8b f8		 mov	 edi, eax

; 157  : 	if( !pIHelpMessageMap) return;

  00044	85 ff		 test	 edi, edi
  00046	0f 84 1e 06 00
	00		 je	 $LN157@OnPacketDa

; 158  : 	// 1. Data Len
; 159  : 	const char *szHelpMsgTitle = "OnPacketDataMultiItem-HelpMessage\r\n";
; 160  : 	int nLogLength = strlen( szHelpMsgTitle);

  0004c	bb 23 00 00 00	 mov	 ebx, 35			; 00000023H
; File D:\git\src\IBK\IBK_DRFN\ProjSrc\SrcChartEx\ChartOCX\AddInManager\Include_AddIn\I000000\_IString.h

; 34   : 		m_szData = NULL;

  00051	c7 45 a0 00 00
	00 00		 mov	 DWORD PTR _szKey$[ebp], 0

; 35   : 		m_pIStrData = NULL;

  00058	c7 45 a4 00 00
	00 00		 mov	 DWORD PTR _szKey$[ebp+4], 0
; File D:\git\src\IBK\IBK_DRFN\ProjSrc\SrcChartEx\ChartOCX\AddInManager\ChartCommonAddIn\LogAddInImp.cpp

; 161  : 	ILPCSTR szKey, szValue;

  0005f	c7 45 fc 00 00
	00 00		 mov	 DWORD PTR __$EHRec$[ebp+8], 0
; File D:\git\src\IBK\IBK_DRFN\ProjSrc\SrcChartEx\ChartOCX\AddInManager\Include_AddIn\I000000\_IString.h

; 34   : 		m_szData = NULL;

  00066	c7 45 d0 00 00
	00 00		 mov	 DWORD PTR _szValue$[ebp], 0

; 35   : 		m_pIStrData = NULL;

  0006d	c7 45 d4 00 00
	00 00		 mov	 DWORD PTR _szValue$[ebp+4], 0
; File D:\git\src\IBK\IBK_DRFN\ProjSrc\SrcChartEx\ChartOCX\AddInManager\ChartCommonAddIn\LogAddInImp.cpp

; 162  : 	POSITION posMsg = pIHelpMessageMap->GetStartPosition();

  00074	8b 07		 mov	 eax, DWORD PTR [edi]
  00076	8b cf		 mov	 ecx, edi
  00078	c6 45 fc 01	 mov	 BYTE PTR __$EHRec$[ebp+8], 1
  0007c	ff 50 20	 call	 DWORD PTR [eax+32]
  0007f	89 45 ec	 mov	 DWORD PTR _posMsg$[ebp], eax

; 163  : 	while( posMsg)

  00082	85 c0		 test	 eax, eax
  00084	74 41		 je	 SHORT $LN3@OnPacketDa
$LL2@OnPacketDa:

; 164  : 	{
; 165  : 		pIHelpMessageMap->GetNextAssoc( posMsg, szKey, szValue);

  00086	8b 07		 mov	 eax, DWORD PTR [edi]
  00088	8d 4d d0	 lea	 ecx, DWORD PTR _szValue$[ebp]
  0008b	51		 push	 ecx
  0008c	8d 4d a0	 lea	 ecx, DWORD PTR _szKey$[ebp]
  0008f	51		 push	 ecx
  00090	8d 4d ec	 lea	 ecx, DWORD PTR _posMsg$[ebp]
  00093	51		 push	 ecx
  00094	8b cf		 mov	 ecx, edi
  00096	ff 50 24	 call	 DWORD PTR [eax+36]

; 166  : 		nLogLength += strlen( szKey)	+ 3;	// with '\t\t', '='

  00099	8b 55 a0	 mov	 edx, DWORD PTR _szKey$[ebp]
  0009c	8d 4a 01	 lea	 ecx, DWORD PTR [edx+1]
  0009f	90		 npad	 1
$LL231@OnPacketDa:
  000a0	8a 02		 mov	 al, BYTE PTR [edx]
  000a2	42		 inc	 edx
  000a3	84 c0		 test	 al, al
  000a5	75 f9		 jne	 SHORT $LL231@OnPacketDa
  000a7	2b d1		 sub	 edx, ecx

; 167  : 		nLogLength += strlen( szValue)	+ 2;	// with '\r\n'

  000a9	8b 4d d0	 mov	 ecx, DWORD PTR _szValue$[ebp]
  000ac	8d 71 01	 lea	 esi, DWORD PTR [ecx+1]
  000af	90		 npad	 1
$LL232@OnPacketDa:
  000b0	8a 01		 mov	 al, BYTE PTR [ecx]
  000b2	41		 inc	 ecx
  000b3	84 c0		 test	 al, al
  000b5	75 f9		 jne	 SHORT $LL232@OnPacketDa
  000b7	2b ce		 sub	 ecx, esi
  000b9	83 c3 05	 add	 ebx, 5
  000bc	8d 04 11	 lea	 eax, DWORD PTR [ecx+edx]
  000bf	03 d8		 add	 ebx, eax
  000c1	83 7d ec 00	 cmp	 DWORD PTR _posMsg$[ebp], 0
  000c5	75 bf		 jne	 SHORT $LL2@OnPacketDa
$LN3@OnPacketDa:

; 168  : 	}
; 169  : 	// 2. Log Data
; 170  : 	CString strLogData;

  000c7	8d 4d f0	 lea	 ecx, DWORD PTR _strLogData$[ebp]
  000ca	ff 15 00 00 00
	00		 call	 DWORD PTR __imp_??0?$CStringT@DV?$StrTraitMFC_DLL@DV?$ChTraitsCRT@D@ATL@@@@@ATL@@QAE@XZ

; 171  : 	char *szLogData = strLogData.GetBufferSetLength( nLogLength);

  000d0	53		 push	 ebx
  000d1	8d 4d f0	 lea	 ecx, DWORD PTR _strLogData$[ebp]
  000d4	c6 45 fc 02	 mov	 BYTE PTR __$EHRec$[ebp+8], 2
  000d8	ff 15 00 00 00
	00		 call	 DWORD PTR __imp_?GetBufferSetLength@?$CSimpleStringT@D$00@ATL@@QAEPADH@Z

; 172  : 	char *szLogPtr = szLogData;
; 173  : 	strcpy( szLogPtr, szHelpMsgTitle);

  000de	ba 00 00 00 00	 mov	 edx, OFFSET ??_C@_0CE@GFHPIFHK@OnPacketDataMultiItem?9HelpMessa@
  000e3	89 45 e0	 mov	 DWORD PTR _szLogData$1$[ebp], eax
  000e6	8b f0		 mov	 esi, eax
  000e8	2b f2		 sub	 esi, edx
  000ea	66 0f 1f 44 00
	00		 npad	 6
$LL47@OnPacketDa:
  000f0	8a 0a		 mov	 cl, BYTE PTR [edx]
  000f2	8d 52 01	 lea	 edx, DWORD PTR [edx+1]
  000f5	88 4c 16 ff	 mov	 BYTE PTR [esi+edx-1], cl
  000f9	84 c9		 test	 cl, cl
  000fb	75 f3		 jne	 SHORT $LL47@OnPacketDa

; 174  : 	szLogPtr += strlen( szHelpMsgTitle);

  000fd	8d 70 23	 lea	 esi, DWORD PTR [eax+35]

; 175  : 	posMsg = pIHelpMessageMap->GetStartPosition();

  00100	8b cf		 mov	 ecx, edi
  00102	8b 07		 mov	 eax, DWORD PTR [edi]
  00104	ff 50 20	 call	 DWORD PTR [eax+32]
  00107	89 45 ec	 mov	 DWORD PTR _posMsg$[ebp], eax

; 176  : 	while( posMsg)

  0010a	85 c0		 test	 eax, eax
  0010c	0f 84 7b 00 00
	00		 je	 $LN5@OnPacketDa
$LL4@OnPacketDa:

; 177  : 	{
; 178  : 		pIHelpMessageMap->GetNextAssoc( posMsg, szKey, szValue);

  00112	8b 07		 mov	 eax, DWORD PTR [edi]
  00114	8d 4d d0	 lea	 ecx, DWORD PTR _szValue$[ebp]
  00117	51		 push	 ecx
  00118	8d 4d a0	 lea	 ecx, DWORD PTR _szKey$[ebp]
  0011b	51		 push	 ecx
  0011c	8d 4d ec	 lea	 ecx, DWORD PTR _posMsg$[ebp]
  0011f	51		 push	 ecx
  00120	8b cf		 mov	 ecx, edi
  00122	ff 50 24	 call	 DWORD PTR [eax+36]

; 179  : 		*szLogPtr++ = '\t';

  00125	66 c7 06 09 09	 mov	 WORD PTR [esi], 2313	; 00000909H

; 180  : 		*szLogPtr++ = '\t';

  0012a	83 c6 02	 add	 esi, 2

; 181  : 		strcpy( szLogPtr, szKey);

  0012d	8b 4d a0	 mov	 ecx, DWORD PTR _szKey$[ebp]
  00130	8b d6		 mov	 edx, esi
$LL48@OnPacketDa:
  00132	8a 01		 mov	 al, BYTE PTR [ecx]
  00134	8d 49 01	 lea	 ecx, DWORD PTR [ecx+1]
  00137	88 02		 mov	 BYTE PTR [edx], al
  00139	8d 52 01	 lea	 edx, DWORD PTR [edx+1]
  0013c	84 c0		 test	 al, al
  0013e	75 f2		 jne	 SHORT $LL48@OnPacketDa

; 182  : 		szLogPtr += strlen( szKey);

  00140	8b 4d a0	 mov	 ecx, DWORD PTR _szKey$[ebp]
  00143	8d 51 01	 lea	 edx, DWORD PTR [ecx+1]
$LL233@OnPacketDa:
  00146	8a 01		 mov	 al, BYTE PTR [ecx]
  00148	41		 inc	 ecx
  00149	84 c0		 test	 al, al
  0014b	75 f9		 jne	 SHORT $LL233@OnPacketDa
  0014d	2b ca		 sub	 ecx, edx
  0014f	03 f1		 add	 esi, ecx

; 183  : 		*szLogPtr++ = '=';

  00151	c6 06 3d	 mov	 BYTE PTR [esi], 61	; 0000003dH
  00154	46		 inc	 esi

; 184  : 		strcpy( szLogPtr, szValue);

  00155	8b 4d d0	 mov	 ecx, DWORD PTR _szValue$[ebp]
  00158	8b d6		 mov	 edx, esi
  0015a	66 0f 1f 44 00
	00		 npad	 6
$LL49@OnPacketDa:
  00160	8a 01		 mov	 al, BYTE PTR [ecx]
  00162	8d 49 01	 lea	 ecx, DWORD PTR [ecx+1]
  00165	88 02		 mov	 BYTE PTR [edx], al
  00167	8d 52 01	 lea	 edx, DWORD PTR [edx+1]
  0016a	84 c0		 test	 al, al
  0016c	75 f2		 jne	 SHORT $LL49@OnPacketDa

; 185  : 		szLogPtr += strlen( szValue);

  0016e	8b 4d d0	 mov	 ecx, DWORD PTR _szValue$[ebp]
  00171	8d 51 01	 lea	 edx, DWORD PTR [ecx+1]
$LL234@OnPacketDa:
  00174	8a 01		 mov	 al, BYTE PTR [ecx]
  00176	41		 inc	 ecx
  00177	84 c0		 test	 al, al
  00179	75 f9		 jne	 SHORT $LL234@OnPacketDa
  0017b	2b ca		 sub	 ecx, edx
  0017d	03 f1		 add	 esi, ecx

; 186  : 		*szLogPtr++ = '\r';

  0017f	66 c7 06 0d 0a	 mov	 WORD PTR [esi], 2573	; 00000a0dH

; 187  : 		*szLogPtr++ = '\n';

  00184	83 c6 02	 add	 esi, 2
  00187	83 7d ec 00	 cmp	 DWORD PTR _posMsg$[ebp], 0
  0018b	75 85		 jne	 SHORT $LL4@OnPacketDa
$LN5@OnPacketDa:

; 188  : 	}
; 189  : 	m_pDumpLogger->WriteToStringLog( NULL, szLogData, nLogLength);

  0018d	53		 push	 ebx
  0018e	8b 5d 94	 mov	 ebx, DWORD PTR _this$1$[ebp]
  00191	ff 75 e0	 push	 DWORD PTR _szLogData$1$[ebp]
  00194	6a 00		 push	 0
  00196	8b 4b 38	 mov	 ecx, DWORD PTR [ebx+56]
  00199	e8 00 00 00 00	 call	 ?WriteToStringLog@CDumpLogger@@QAEXPBD0H@Z ; CDumpLogger::WriteToStringLog

; 190  : 	pIHelpMessageMap->Release();

  0019e	8b 07		 mov	 eax, DWORD PTR [edi]
  001a0	57		 push	 edi
  001a1	ff 50 08	 call	 DWORD PTR [eax+8]
; File C:\Program Files (x86)\Microsoft Visual Studio\2019\Community\VC\Tools\MSVC\14.29.30133\atlmfc\include\afxtempl.h

; 854  : 	m_nCount = 0;

  001a4	c7 45 bc 00 00
	00 00		 mov	 DWORD PTR _lIPackets$[ebp+12], 0

; 855  : 	m_pNodeHead = m_pNodeTail = m_pNodeFree = NULL;

  001ab	c7 45 c0 00 00
	00 00		 mov	 DWORD PTR _lIPackets$[ebp+16], 0
  001b2	c7 45 b8 00 00
	00 00		 mov	 DWORD PTR _lIPackets$[ebp+8], 0
  001b9	c7 45 b4 00 00
	00 00		 mov	 DWORD PTR _lIPackets$[ebp+4], 0

; 856  : 	m_pBlocks = NULL;

  001c0	c7 45 c4 00 00
	00 00		 mov	 DWORD PTR _lIPackets$[ebp+20], 0

; 857  : 	m_nBlockSize = nBlockSize;

  001c7	c7 45 c8 0a 00
	00 00		 mov	 DWORD PTR _lIPackets$[ebp+24], 10 ; 0000000aH
  001ce	c7 45 b0 00 00
	00 00		 mov	 DWORD PTR _lIPackets$[ebp], OFFSET ??_7CIPacketList000000@@6B?$CList@PAUIPacket000000@@PAU1@@@@
  001d5	c7 45 cc 00 00
	00 00		 mov	 DWORD PTR _lIPackets$[ebp+28], OFFSET ??_7CIPacketList000000@@6BIPacketList000000@@@
; File D:\git\src\IBK\IBK_DRFN\ProjSrc\SrcChartEx\ChartOCX\AddInManager\ChartCommonAddIn\LogAddInImp.cpp

; 194  : 	if( !m_pIDefaultPacketManager->GetPacketList( p_szPacketNames, &lIPackets)) return;

  001dc	8b 4b 18	 mov	 ecx, DWORD PTR [ebx+24]
  001df	8d 55 cc	 lea	 edx, DWORD PTR _lIPackets$[ebp+28]
  001e2	8b 7d 0c	 mov	 edi, DWORD PTR _p_szPacketNames$[ebp]
  001e5	52		 push	 edx
  001e6	57		 push	 edi
  001e7	8b 01		 mov	 eax, DWORD PTR [ecx]
  001e9	c6 45 fc 03	 mov	 BYTE PTR __$EHRec$[ebp+8], 3
  001ed	ff 50 14	 call	 DWORD PTR [eax+20]
  001f0	85 c0		 test	 eax, eax
  001f2	0f 84 f9 03 00
	00		 je	 $LN62@OnPacketDa

; 195  : 	int nPacketCount = lIPackets.GetCount();

  001f8	8b 5d bc	 mov	 ebx, DWORD PTR _lIPackets$[ebp+12]
  001fb	89 5d ac	 mov	 DWORD PTR _nPacketCount$1$[ebp], ebx
  001fe	83 fb 01	 cmp	 ebx, 1

; 196  : 	if( nPacketCount < 1) return;

  00201	0f 8c ea 03 00
	00		 jl	 $LN62@OnPacketDa

; 197  : 	IDoubleList **plDataList	= new IDoubleList *[ nPacketCount];

  00207	33 c9		 xor	 ecx, ecx
  00209	8b c3		 mov	 eax, ebx
  0020b	be 04 00 00 00	 mov	 esi, 4
  00210	f7 e6		 mul	 esi
  00212	0f 90 c1	 seto	 cl
  00215	f7 d9		 neg	 ecx
  00217	0b c8		 or	 ecx, eax
  00219	51		 push	 ecx
  0021a	e8 00 00 00 00	 call	 ??_U@YAPAXI@Z		; operator new[]
  0021f	89 45 0c	 mov	 DWORD PTR _plDataList$1$[ebp], eax

; 198  : 	IStringList	**plStrDataList	= new IStringList *[ nPacketCount];

  00222	33 c9		 xor	 ecx, ecx
  00224	8b c3		 mov	 eax, ebx
  00226	f7 e6		 mul	 esi
  00228	0f 90 c1	 seto	 cl
  0022b	f7 d9		 neg	 ecx
  0022d	0b c8		 or	 ecx, eax
  0022f	51		 push	 ecx
  00230	e8 00 00 00 00	 call	 ??_U@YAPAXI@Z		; operator new[]
  00235	8b f0		 mov	 esi, eax

; 199  : 	POSITION *pPosData		= new POSITION[ nPacketCount];

  00237	33 c9		 xor	 ecx, ecx
  00239	8b c3		 mov	 eax, ebx
  0023b	89 75 e8	 mov	 DWORD PTR _plStrDataList$1$[ebp], esi
  0023e	ba 04 00 00 00	 mov	 edx, 4
  00243	f7 e2		 mul	 edx
  00245	0f 90 c1	 seto	 cl
  00248	f7 d9		 neg	 ecx
  0024a	0b c8		 or	 ecx, eax
  0024c	51		 push	 ecx
  0024d	e8 00 00 00 00	 call	 ??_U@YAPAXI@Z		; operator new[]
  00252	89 45 d8	 mov	 DWORD PTR _pPosData$1$[ebp], eax

; 200  : 	POSITION *pPosStrData	= new POSITION[ nPacketCount];

  00255	33 c9		 xor	 ecx, ecx
  00257	8b c3		 mov	 eax, ebx
  00259	ba 04 00 00 00	 mov	 edx, 4
  0025e	f7 e2		 mul	 edx
  00260	0f 90 c1	 seto	 cl
  00263	f7 d9		 neg	 ecx
  00265	0b c8		 or	 ecx, eax
  00267	51		 push	 ecx
  00268	e8 00 00 00 00	 call	 ??_U@YAPAXI@Z		; operator new[]
  0026d	83 c4 10	 add	 esp, 16			; 00000010H
  00270	89 45 e0	 mov	 DWORD PTR _pPosStrData$1$[ebp], eax

; 201  : 
; 202  : 	CStringList slPacketLog;

  00273	8d 8d 68 ff ff
	ff		 lea	 ecx, DWORD PTR _slPacketLog$[ebp]
  00279	6a 0a		 push	 10			; 0000000aH
  0027b	e8 00 00 00 00	 call	 ??0CStringList@@QAE@H@Z	; CStringList::CStringList

; 203  : 	// 1. Make Head Log
; 204  : 	CString strPacketName( p_szPacketNames);

  00280	57		 push	 edi
  00281	8d 4d a8	 lea	 ecx, DWORD PTR _strPacketName$[ebp]
  00284	c6 45 fc 08	 mov	 BYTE PTR __$EHRec$[ebp+8], 8
  00288	ff 15 00 00 00
	00		 call	 DWORD PTR __imp_??0?$CStringT@DV?$StrTraitMFC_DLL@DV?$ChTraitsCRT@D@ATL@@@@@ATL@@QAE@PBD@Z

; 205  : 	strPacketName.Replace( ";", "\t");

  0028e	68 00 00 00 00	 push	 OFFSET ??_C@_01GPOEFGEJ@?7@
  00293	68 00 00 00 00	 push	 OFFSET ??_C@_01ICJEACDI@?$DL@
  00298	8d 4d a8	 lea	 ecx, DWORD PTR _strPacketName$[ebp]
  0029b	c6 45 fc 09	 mov	 BYTE PTR __$EHRec$[ebp+8], 9
  0029f	ff 15 00 00 00
	00		 call	 DWORD PTR __imp_?Replace@?$CStringT@DV?$StrTraitMFC_DLL@DV?$ChTraitsCRT@D@ATL@@@@@ATL@@QAEHPBD0@Z

; 206  : 	strLogData.Format( "OnPacketDataMultiItem-TrData\t%s%d", strPacketName, ( int)p_bWithReset);

  002a5	ff 75 10	 push	 DWORD PTR _p_bWithReset$[ebp]
  002a8	8d 45 f0	 lea	 eax, DWORD PTR _strLogData$[ebp]
  002ab	ff 75 a8	 push	 DWORD PTR _strPacketName$[ebp]
  002ae	68 00 00 00 00	 push	 OFFSET ??_C@_0CC@BCEEFGNA@OnPacketDataMultiItem?9TrData?7?$CFs@
  002b3	50		 push	 eax
  002b4	a1 00 00 00 00	 mov	 eax, DWORD PTR __imp_?Format@?$CStringT@DV?$StrTraitMFC_DLL@DV?$ChTraitsCRT@D@ATL@@@@@ATL@@QAAXPBDZZ
  002b9	89 45 10	 mov	 DWORD PTR tv1895[ebp], eax
  002bc	ff d0		 call	 eax
  002be	83 c4 10	 add	 esp, 16			; 00000010H

; 207  : 	slPacketLog.AddTail( strLogData);

  002c1	8d 45 f0	 lea	 eax, DWORD PTR _strLogData$[ebp]
  002c4	8d 8d 68 ff ff
	ff		 lea	 ecx, DWORD PTR _slPacketLog$[ebp]
  002ca	50		 push	 eax
  002cb	e8 00 00 00 00	 call	 ?AddTail@CStringList@@QAEPAU__POSITION@@ABV?$CStringT@DV?$StrTraitMFC_DLL@DV?$ChTraitsCRT@D@ATL@@@@@ATL@@@Z ; CStringList::AddTail

; 208  : 
; 209  : 	// 2. Make Packet for Data
; 210  : 	// 2.1 Get Data List
; 211  : 	int i = 0;
; 212  : 	IPacket *pIPacket = NULL;
; 213  : 	POSITION posIPacket = lIPackets.GetHeadPosition();

  002d0	8b 5d b4	 mov	 ebx, DWORD PTR _lIPackets$[ebp+4]
  002d3	85 db		 test	 ebx, ebx

; 214  : 	while( posIPacket)

  002d5	74 34		 je	 SHORT $LN7@OnPacketDa

; 197  : 	IDoubleList **plDataList	= new IDoubleList *[ nPacketCount];

  002d7	8b 45 0c	 mov	 eax, DWORD PTR _plDataList$1$[ebp]
  002da	8b fe		 mov	 edi, esi
  002dc	2b c6		 sub	 eax, esi
  002de	89 45 dc	 mov	 DWORD PTR tv1860[ebp], eax
$LL6@OnPacketDa:
; File D:\git\src\IBK\IBK_DRFN\ProjSrc\SrcChartEx\ChartOCX\AddInManager\Include_AddIn\I000000\_IPacketList.h

; 108  : 	virtual IPacket *	GetNext(POSITION& rPosition) const	{	return CIPacketListBase::GetNext( rPosition);	} // return *Position++

  002e1	8b 73 08	 mov	 esi, DWORD PTR [ebx+8]
; File D:\git\src\IBK\IBK_DRFN\ProjSrc\SrcChartEx\ChartOCX\AddInManager\ChartCommonAddIn\LogAddInImp.cpp

; 218  : 		plDataList[ i] = pIPacket->GetDataList();

  002e4	8b ce		 mov	 ecx, esi
; File C:\Program Files (x86)\Microsoft Visual Studio\2019\Community\VC\Tools\MSVC\14.29.30133\atlmfc\include\afxtempl.h

; 819  : 		rPosition = (POSITION) pNode->pNext;

  002e6	8b 1b		 mov	 ebx, DWORD PTR [ebx]
; File D:\git\src\IBK\IBK_DRFN\ProjSrc\SrcChartEx\ChartOCX\AddInManager\ChartCommonAddIn\LogAddInImp.cpp

; 218  : 		plDataList[ i] = pIPacket->GetDataList();

  002e8	8b 06		 mov	 eax, DWORD PTR [esi]
  002ea	ff 50 5c	 call	 DWORD PTR [eax+92]
  002ed	8b 4d dc	 mov	 ecx, DWORD PTR tv1860[ebp]
  002f0	89 04 39	 mov	 DWORD PTR [ecx+edi], eax

; 219  : 		if( !plDataList[ i]) plStrDataList[ i] = pIPacket->GetStrDataList();

  002f3	85 c0		 test	 eax, eax
  002f5	75 09		 jne	 SHORT $LN33@OnPacketDa
  002f7	8b 06		 mov	 eax, DWORD PTR [esi]
  002f9	8b ce		 mov	 ecx, esi
  002fb	ff 50 60	 call	 DWORD PTR [eax+96]
  002fe	eb 02		 jmp	 SHORT $LN34@OnPacketDa
$LN33@OnPacketDa:

; 220  : 		else plStrDataList[ i] = NULL;

  00300	33 c0		 xor	 eax, eax
$LN34@OnPacketDa:

; 221  : 		i++;

  00302	89 07		 mov	 DWORD PTR [edi], eax
  00304	83 c7 04	 add	 edi, 4
  00307	85 db		 test	 ebx, ebx
  00309	75 d6		 jne	 SHORT $LL6@OnPacketDa
$LN7@OnPacketDa:

; 222  : 	}
; 223  : 	// 2.2 Get Head Position
; 224  : 	for( i = 0; i < nPacketCount; i++)

  0030b	8b 45 0c	 mov	 eax, DWORD PTR _plDataList$1$[ebp]
  0030e	33 f6		 xor	 esi, esi
  00310	8b 4d e8	 mov	 ecx, DWORD PTR _plStrDataList$1$[ebp]
  00313	2b c1		 sub	 eax, ecx
  00315	8b 5d d8	 mov	 ebx, DWORD PTR _pPosData$1$[ebp]
  00318	89 45 dc	 mov	 DWORD PTR tv1859[ebp], eax
  0031b	0f 1f 44 00 00	 npad	 5
$LL10@OnPacketDa:

; 225  : 	{
; 226  : 		if( plDataList[ i])		pPosData[ i] = plDataList[ i]->GetHeadPosition();

  00320	8d 3c b1	 lea	 edi, DWORD PTR [ecx+esi*4]
  00323	8b 0c 38	 mov	 ecx, DWORD PTR [eax+edi]
  00326	85 c9		 test	 ecx, ecx
  00328	74 07		 je	 SHORT $LN35@OnPacketDa
  0032a	8b 01		 mov	 eax, DWORD PTR [ecx]
  0032c	ff 50 34	 call	 DWORD PTR [eax+52]
  0032f	eb 02		 jmp	 SHORT $LN36@OnPacketDa
$LN35@OnPacketDa:

; 227  : 		else pPosData[ i]	= NULL;

  00331	33 c0		 xor	 eax, eax
$LN36@OnPacketDa:

; 228  : 		if( plStrDataList[ i])	pPosStrData[ i] = plStrDataList[ i]->GetHeadPosition();

  00333	89 04 b3	 mov	 DWORD PTR [ebx+esi*4], eax
  00336	8b 0f		 mov	 ecx, DWORD PTR [edi]
  00338	85 c9		 test	 ecx, ecx
  0033a	74 07		 je	 SHORT $LN37@OnPacketDa
  0033c	8b 01		 mov	 eax, DWORD PTR [ecx]
  0033e	ff 50 34	 call	 DWORD PTR [eax+52]
  00341	eb 02		 jmp	 SHORT $LN8@OnPacketDa
$LN37@OnPacketDa:

; 229  : 		else pPosStrData[ i] = NULL;

  00343	33 c0		 xor	 eax, eax
$LN8@OnPacketDa:

; 222  : 	}
; 223  : 	// 2.2 Get Head Position
; 224  : 	for( i = 0; i < nPacketCount; i++)

  00345	8b 4d e0	 mov	 ecx, DWORD PTR _pPosStrData$1$[ebp]
  00348	8b 7d ac	 mov	 edi, DWORD PTR _nPacketCount$1$[ebp]
  0034b	89 04 b1	 mov	 DWORD PTR [ecx+esi*4], eax
  0034e	46		 inc	 esi
  0034f	8b 45 dc	 mov	 eax, DWORD PTR tv1859[ebp]
  00352	8b 4d e8	 mov	 ecx, DWORD PTR _plStrDataList$1$[ebp]
  00355	3b f7		 cmp	 esi, edi
  00357	7c c7		 jl	 SHORT $LL10@OnPacketDa

; 230  : 	}
; 231  : 	// 2.3 Get All Data String
; 232  : 	CString strData;

  00359	8d 4d e4	 lea	 ecx, DWORD PTR _strData$[ebp]
  0035c	ff 15 00 00 00
	00		 call	 DWORD PTR __imp_??0?$CStringT@DV?$StrTraitMFC_DLL@DV?$ChTraitsCRT@D@ATL@@@@@ATL@@QAE@XZ
  00362	c6 45 fc 0a	 mov	 BYTE PTR __$EHRec$[ebp+8], 10 ; 0000000aH
$LL13@OnPacketDa:

; 233  : 	BOOL bData = FALSE;
; 234  : 	double dData = 0.0;
; 235  : 	do
; 236  : 	{
; 237  : 		bData = FALSE;
; 238  : 		strLogData = "\t";

  00366	68 00 00 00 00	 push	 OFFSET ??_C@_01GPOEFGEJ@?7@
  0036b	8d 4d f0	 lea	 ecx, DWORD PTR _strLogData$[ebp]
  0036e	33 db		 xor	 ebx, ebx
  00370	ff 15 00 00 00
	00		 call	 DWORD PTR __imp_??4?$CStringT@DV?$StrTraitMFC_DLL@DV?$ChTraitsCRT@D@ATL@@@@@ATL@@QAEAAV01@PBD@Z
  00376	8b 55 d8	 mov	 edx, DWORD PTR _pPosData$1$[ebp]
  00379	8b f2		 mov	 esi, edx
  0037b	8b 45 0c	 mov	 eax, DWORD PTR _plDataList$1$[ebp]
  0037e	8b 4d e0	 mov	 ecx, DWORD PTR _pPosStrData$1$[ebp]
  00381	2b c2		 sub	 eax, edx
  00383	2b ca		 sub	 ecx, edx
  00385	89 45 90	 mov	 DWORD PTR tv1856[ebp], eax
  00388	8b 55 e8	 mov	 edx, DWORD PTR _plStrDataList$1$[ebp]
  0038b	2b d6		 sub	 edx, esi
  0038d	89 4d dc	 mov	 DWORD PTR tv1854[ebp], ecx
  00390	89 55 8c	 mov	 DWORD PTR tv1852[ebp], edx
$LL16@OnPacketDa:

; 239  : 		// 2.3.1 Get One Data String for Same Index
; 240  : 		for( i = 0; i < nPacketCount; i++)
; 241  : 		{
; 242  : 			if( plDataList[ i] && pPosData[ i])

  00393	8b 0c 30	 mov	 ecx, DWORD PTR [eax+esi]
  00396	85 c9		 test	 ecx, ecx
  00398	74 32		 je	 SHORT $LN39@OnPacketDa
  0039a	83 3e 00	 cmp	 DWORD PTR [esi], 0
  0039d	74 2d		 je	 SHORT $LN39@OnPacketDa

; 243  : 			{
; 244  : 				double dData;
; 245  : 				plDataList[ i]->GetNext( pPosData[ i], dData);

  0039f	8b 01		 mov	 eax, DWORD PTR [ecx]
  003a1	8d 55 84	 lea	 edx, DWORD PTR _dData$2[ebp]
  003a4	52		 push	 edx
  003a5	56		 push	 esi
  003a6	ff 50 3c	 call	 DWORD PTR [eax+60]

; 246  : 				strData.Format( "\t%f", dData);

  003a9	f2 0f 10 45 84	 movsd	 xmm0, QWORD PTR _dData$2[ebp]
  003ae	8d 45 e4	 lea	 eax, DWORD PTR _strData$[ebp]
  003b1	83 ec 08	 sub	 esp, 8
  003b4	f2 0f 11 04 24	 movsd	 QWORD PTR [esp], xmm0
  003b9	68 00 00 00 00	 push	 OFFSET ??_C@_03KOJCCHED@?7?$CFf@
  003be	50		 push	 eax
  003bf	ff 55 10	 call	 DWORD PTR tv1895[ebp]
  003c2	83 c4 10	 add	 esp, 16			; 00000010H

; 247  : 				bData = TRUE;

  003c5	bb 01 00 00 00	 mov	 ebx, 1

; 248  : 			}

  003ca	eb 77		 jmp	 SHORT $LN42@OnPacketDa
$LN39@OnPacketDa:

; 249  : 			else if( plStrDataList[ i] && pPosStrData[ i])

  003cc	8b 0c 32	 mov	 ecx, DWORD PTR [edx+esi]
  003cf	85 c9		 test	 ecx, ecx
  003d1	74 62		 je	 SHORT $LN41@OnPacketDa
  003d3	8b 55 dc	 mov	 edx, DWORD PTR tv1854[ebp]
  003d6	03 d6		 add	 edx, esi
  003d8	83 3a 00	 cmp	 DWORD PTR [edx], 0
  003db	74 58		 je	 SHORT $LN41@OnPacketDa
; File D:\git\src\IBK\IBK_DRFN\ProjSrc\SrcChartEx\ChartOCX\AddInManager\Include_AddIn\I000000\_IString.h

; 39   : 		m_pIStrData = p_pIString;	// Do not AddRef(). Because It must be Return Value.

  003dd	c7 45 9c 00 00
	00 00		 mov	 DWORD PTR _szData$3[ebp+4], 0

; 40   : 		if( m_pIStrData) m_szData = m_pIStrData->GetData();
; 41   : 		else m_szData = NULL;

  003e4	c7 45 98 00 00
	00 00		 mov	 DWORD PTR _szData$3[ebp], 0
; File D:\git\src\IBK\IBK_DRFN\ProjSrc\SrcChartEx\ChartOCX\AddInManager\ChartCommonAddIn\LogAddInImp.cpp

; 252  : 				plStrDataList[ i]->GetNext( pPosStrData[ i], szData);

  003eb	8b 01		 mov	 eax, DWORD PTR [ecx]
  003ed	8d 5d 98	 lea	 ebx, DWORD PTR _szData$3[ebp]
  003f0	53		 push	 ebx
  003f1	52		 push	 edx
  003f2	c6 45 fc 0b	 mov	 BYTE PTR __$EHRec$[ebp+8], 11 ; 0000000bH
  003f6	ff 50 3c	 call	 DWORD PTR [eax+60]

; 253  : 				strData.Format( "\t%s", ( const char *)szData);

  003f9	ff 75 98	 push	 DWORD PTR _szData$3[ebp]
  003fc	8d 45 e4	 lea	 eax, DWORD PTR _strData$[ebp]
  003ff	68 00 00 00 00	 push	 OFFSET ??_C@_03JJCHMBFH@?7?$CFs@
  00404	50		 push	 eax
  00405	ff 55 10	 call	 DWORD PTR tv1895[ebp]
  00408	83 c4 0c	 add	 esp, 12			; 0000000cH

; 254  : 				bData = TRUE;

  0040b	bb 01 00 00 00	 mov	 ebx, 1
; File D:\git\src\IBK\IBK_DRFN\ProjSrc\SrcChartEx\ChartOCX\AddInManager\Include_AddIn\I000000\_IString.h

; 45   : 		if( m_pIStrData)

  00410	8b 4d 9c	 mov	 ecx, DWORD PTR _szData$3[ebp+4]
  00413	c6 45 fc 0c	 mov	 BYTE PTR __$EHRec$[ebp+8], 12 ; 0000000cH
  00417	85 c9		 test	 ecx, ecx
  00419	74 14		 je	 SHORT $LN98@OnPacketDa

; 46   : 		{
; 47   : 			m_pIStrData->Release();

  0041b	8b 01		 mov	 eax, DWORD PTR [ecx]
  0041d	51		 push	 ecx
  0041e	ff 50 08	 call	 DWORD PTR [eax+8]

; 48   : 			m_pIStrData = NULL;

  00421	c7 45 9c 00 00
	00 00		 mov	 DWORD PTR _szData$3[ebp+4], 0

; 49   : 			m_szData = NULL;

  00428	c7 45 98 00 00
	00 00		 mov	 DWORD PTR _szData$3[ebp], 0
$LN98@OnPacketDa:

; 50   : 		}
; 51   : 	}

  0042f	c6 45 fc 0a	 mov	 BYTE PTR __$EHRec$[ebp+8], 10 ; 0000000aH
; File D:\git\src\IBK\IBK_DRFN\ProjSrc\SrcChartEx\ChartOCX\AddInManager\ChartCommonAddIn\LogAddInImp.cpp

; 255  : 			}

  00433	eb 0e		 jmp	 SHORT $LN42@OnPacketDa
$LN41@OnPacketDa:

; 256  : 			else strData = "\t ";

  00435	68 00 00 00 00	 push	 OFFSET ??_C@_02JKOLDJMA@?7?5@
  0043a	8d 4d e4	 lea	 ecx, DWORD PTR _strData$[ebp]
  0043d	ff 15 00 00 00
	00		 call	 DWORD PTR __imp_??4?$CStringT@DV?$StrTraitMFC_DLL@DV?$ChTraitsCRT@D@ATL@@@@@ATL@@QAEAAV01@PBD@Z
$LN42@OnPacketDa:

; 257  : 			strLogData += strData;

  00443	8d 45 e4	 lea	 eax, DWORD PTR _strData$[ebp]
  00446	50		 push	 eax
  00447	8d 4d f0	 lea	 ecx, DWORD PTR _strLogData$[ebp]
  0044a	ff 15 00 00 00
	00		 call	 DWORD PTR __imp_??Y?$CStringT@DV?$StrTraitMFC_DLL@DV?$ChTraitsCRT@D@ATL@@@@@ATL@@QAEAAV01@ABV?$CSimpleStringT@D$00@1@@Z
  00450	8b 45 90	 mov	 eax, DWORD PTR tv1856[ebp]
  00453	83 c6 04	 add	 esi, 4
  00456	8b 55 8c	 mov	 edx, DWORD PTR tv1852[ebp]
  00459	83 ef 01	 sub	 edi, 1
  0045c	0f 85 31 ff ff
	ff		 jne	 $LL16@OnPacketDa

; 258  : 		}
; 259  : 
; 260  : 		// 2.3.2 Add Data String
; 261  : 		if( bData) slPacketLog.AddTail( strLogData);

  00462	85 db		 test	 ebx, ebx
  00464	74 17		 je	 SHORT $LN226@OnPacketDa
  00466	8d 45 f0	 lea	 eax, DWORD PTR _strLogData$[ebp]
  00469	50		 push	 eax
  0046a	8d 8d 68 ff ff
	ff		 lea	 ecx, DWORD PTR _slPacketLog$[ebp]
  00470	e8 00 00 00 00	 call	 ?AddTail@CStringList@@QAEPAU__POSITION@@ABV?$CStringT@DV?$StrTraitMFC_DLL@DV?$ChTraitsCRT@D@ATL@@@@@ATL@@@Z ; CStringList::AddTail

; 262  : 	} while( bData);

  00475	8b 7d ac	 mov	 edi, DWORD PTR _nPacketCount$1$[ebp]
  00478	e9 e9 fe ff ff	 jmp	 $LL13@OnPacketDa
$LN226@OnPacketDa:
  0047d	8b 5d ac	 mov	 ebx, DWORD PTR _nPacketCount$1$[ebp]

; 263  : 	
; 264  : 	// (2006/7/12 - Seung-Won, Bae) Release IDoubleList
; 265  : 	for( i = 0; i < nPacketCount; i++) if( plDataList[ i]) plDataList[ i]->Release();

  00480	33 f6		 xor	 esi, esi
  00482	8b 45 0c	 mov	 eax, DWORD PTR _plDataList$1$[ebp]
$LL19@OnPacketDa:
  00485	8b 0c b0	 mov	 ecx, DWORD PTR [eax+esi*4]
  00488	85 c9		 test	 ecx, ecx
  0048a	74 09		 je	 SHORT $LN17@OnPacketDa
  0048c	8b 01		 mov	 eax, DWORD PTR [ecx]
  0048e	51		 push	 ecx
  0048f	ff 50 08	 call	 DWORD PTR [eax+8]
  00492	8b 45 0c	 mov	 eax, DWORD PTR _plDataList$1$[ebp]
$LN17@OnPacketDa:
  00495	46		 inc	 esi
  00496	3b f3		 cmp	 esi, ebx
  00498	7c eb		 jl	 SHORT $LL19@OnPacketDa
  0049a	50		 push	 eax
  0049b	e8 00 00 00 00	 call	 ??_V@YAXPAX@Z		; operator delete[]
  004a0	8b 45 e8	 mov	 eax, DWORD PTR _plStrDataList$1$[ebp]
  004a3	83 c4 04	 add	 esp, 4
  004a6	33 f6		 xor	 esi, esi
$LL22@OnPacketDa:

; 266  : 	delete [] plDataList;
; 267  : 
; 268  : 	// (2006/7/12 - Seung-Won, Bae) 
; 269  : 	for( i = 0; i < nPacketCount; i++) if( plStrDataList[ i]) plStrDataList[ i]->Release();

  004a8	8b 0c b0	 mov	 ecx, DWORD PTR [eax+esi*4]
  004ab	85 c9		 test	 ecx, ecx
  004ad	74 09		 je	 SHORT $LN20@OnPacketDa
  004af	8b 01		 mov	 eax, DWORD PTR [ecx]
  004b1	51		 push	 ecx
  004b2	ff 50 08	 call	 DWORD PTR [eax+8]
  004b5	8b 45 e8	 mov	 eax, DWORD PTR _plStrDataList$1$[ebp]
$LN20@OnPacketDa:
  004b8	46		 inc	 esi
  004b9	3b f3		 cmp	 esi, ebx
  004bb	7c eb		 jl	 SHORT $LL22@OnPacketDa

; 270  : 	delete [] plStrDataList;

  004bd	50		 push	 eax
  004be	e8 00 00 00 00	 call	 ??_V@YAXPAX@Z		; operator delete[]

; 271  : 
; 272  : 	delete [] pPosData;

  004c3	ff 75 d8	 push	 DWORD PTR _pPosData$1$[ebp]
  004c6	e8 00 00 00 00	 call	 ??_V@YAXPAX@Z		; operator delete[]

; 273  : 	delete [] pPosStrData;

  004cb	ff 75 e0	 push	 DWORD PTR _pPosStrData$1$[ebp]
  004ce	e8 00 00 00 00	 call	 ??_V@YAXPAX@Z		; operator delete[]
  004d3	83 c4 0c	 add	 esp, 12			; 0000000cH
; File C:\Program Files (x86)\Microsoft Visual Studio\2019\Community\VC\Tools\MSVC\14.29.30133\atlmfc\include\afxtempl.h

; 786  : 	{ return m_nCount == 0; }

  004d6	83 7d bc 00	 cmp	 DWORD PTR _lIPackets$[ebp+12], 0
; File D:\git\src\IBK\IBK_DRFN\ProjSrc\SrcChartEx\ChartOCX\AddInManager\ChartCommonAddIn\LogAddInImp.cpp

; 275  : 	while( !lIPackets.IsEmpty()) lIPackets.RemoveHead()->Release();

  004da	74 70		 je	 SHORT $LN24@OnPacketDa
  004dc	0f 1f 40 00	 npad	 4
$LL23@OnPacketDa:
; File C:\Program Files (x86)\Microsoft Visual Studio\2019\Community\VC\Tools\MSVC\14.29.30133\atlmfc\include\afxtempl.h

; 1009 : 	ENSURE(m_pNodeHead != NULL);  // don't call on empty list !!!

  004e0	8b 4d b4	 mov	 ecx, DWORD PTR _lIPackets$[ebp+4]
  004e3	85 c9		 test	 ecx, ecx
  004e5	0f 84 93 01 00
	00		 je	 $LN179@OnPacketDa

; 1010 : 	ASSERT(AfxIsValidAddress(m_pNodeHead, sizeof(CNode)));
; 1011 : 
; 1012 : 	CNode* pOldNode = m_pNodeHead;
; 1013 : 	TYPE returnValue = pOldNode->data;

  004eb	8b 01		 mov	 eax, DWORD PTR [ecx]
  004ed	8b 71 08	 mov	 esi, DWORD PTR [ecx+8]

; 1014 : 
; 1015 : 	m_pNodeHead = pOldNode->pNext;

  004f0	89 45 b4	 mov	 DWORD PTR _lIPackets$[ebp+4], eax
  004f3	85 c0		 test	 eax, eax

; 1016 : 	if (m_pNodeHead != NULL)

  004f5	74 09		 je	 SHORT $LN112@OnPacketDa

; 1017 : 		m_pNodeHead->pPrev = NULL;

  004f7	c7 40 04 00 00
	00 00		 mov	 DWORD PTR [eax+4], 0
  004fe	eb 07		 jmp	 SHORT $LN113@OnPacketDa
$LN112@OnPacketDa:

; 1018 : 	else
; 1019 : 		m_pNodeTail = NULL;

  00500	c7 45 b8 00 00
	00 00		 mov	 DWORD PTR _lIPackets$[ebp+8], 0
$LN113@OnPacketDa:

; 938  : 	pNode->pNext = m_pNodeFree;

  00507	8b 45 c0	 mov	 eax, DWORD PTR _lIPackets$[ebp+16]
  0050a	89 01		 mov	 DWORD PTR [ecx], eax

; 939  : 	m_pNodeFree = pNode;
; 940  : 	m_nCount--;

  0050c	83 6d bc 01	 sub	 DWORD PTR _lIPackets$[ebp+12], 1
  00510	89 4d c0	 mov	 DWORD PTR _lIPackets$[ebp+16], ecx

; 941  : 	ASSERT(m_nCount >= 0);  // make sure we don't underflow
; 942  : 
; 943  : 	// if no more elements, cleanup completely
; 944  : 	if (m_nCount == 0)

  00513	75 2b		 jne	 SHORT $LN116@OnPacketDa

; 872  : 	m_pBlocks->FreeDataChain();

  00515	8b 4d c4	 mov	 ecx, DWORD PTR _lIPackets$[ebp+20]
  00518	c7 45 bc 00 00
	00 00		 mov	 DWORD PTR _lIPackets$[ebp+12], 0
  0051f	c7 45 c0 00 00
	00 00		 mov	 DWORD PTR _lIPackets$[ebp+16], 0
  00526	c7 45 b8 00 00
	00 00		 mov	 DWORD PTR _lIPackets$[ebp+8], 0
  0052d	c7 45 b4 00 00
	00 00		 mov	 DWORD PTR _lIPackets$[ebp+4], 0
  00534	e8 00 00 00 00	 call	 ?FreeDataChain@CPlex@@QAEXXZ ; CPlex::FreeDataChain

; 873  : 	m_pBlocks = NULL;

  00539	c7 45 c4 00 00
	00 00		 mov	 DWORD PTR _lIPackets$[ebp+20], 0
$LN116@OnPacketDa:
; File D:\git\src\IBK\IBK_DRFN\ProjSrc\SrcChartEx\ChartOCX\AddInManager\ChartCommonAddIn\LogAddInImp.cpp

; 275  : 	while( !lIPackets.IsEmpty()) lIPackets.RemoveHead()->Release();

  00540	8b 06		 mov	 eax, DWORD PTR [esi]
  00542	56		 push	 esi
  00543	ff 50 08	 call	 DWORD PTR [eax+8]
; File C:\Program Files (x86)\Microsoft Visual Studio\2019\Community\VC\Tools\MSVC\14.29.30133\atlmfc\include\afxtempl.h

; 786  : 	{ return m_nCount == 0; }

  00546	83 7d bc 00	 cmp	 DWORD PTR _lIPackets$[ebp+12], 0
; File D:\git\src\IBK\IBK_DRFN\ProjSrc\SrcChartEx\ChartOCX\AddInManager\ChartCommonAddIn\LogAddInImp.cpp

; 275  : 	while( !lIPackets.IsEmpty()) lIPackets.RemoveHead()->Release();

  0054a	75 94		 jne	 SHORT $LL23@OnPacketDa
$LN24@OnPacketDa:

; 276  : 
; 277  : 
; 278  : 	// 3. Make One String
; 279  : 	// 3.1 Get Full Buffer Length
; 280  : 	nLogLength = 0;
; 281  : 	POSITION posLog = slPacketLog.GetHeadPosition();

  0054c	8b 8d 6c ff ff
	ff		 mov	 ecx, DWORD PTR _slPacketLog$[ebp+4]
  00552	33 d2		 xor	 edx, edx
  00554	89 55 0c	 mov	 DWORD PTR _nLogLength$2$[ebp], edx
  00557	85 c9		 test	 ecx, ecx

; 282  : 	while( posLog) nLogLength += slPacketLog.GetNext( posLog).GetLength() + 2;

  00559	74 19		 je	 SHORT $LN26@OnPacketDa
  0055b	0f 1f 44 00 00	 npad	 5
$LL25@OnPacketDa:
; File C:\Program Files (x86)\Microsoft Visual Studio\2019\Community\VC\Tools\MSVC\14.29.30133\atlmfc\include\atlsimpstr.h

; 519  : 		return( GetData()->nDataLength );

  00560	8b 41 08	 mov	 eax, DWORD PTR [ecx+8]
; File D:\git\src\IBK\IBK_DRFN\ProjSrc\SrcChartEx\ChartOCX\AddInManager\ChartCommonAddIn\LogAddInImp.cpp

; 282  : 	while( posLog) nLogLength += slPacketLog.GetNext( posLog).GetLength() + 2;

  00563	83 c2 02	 add	 edx, 2
; File C:\Program Files (x86)\Microsoft Visual Studio\2019\Community\VC\Tools\MSVC\14.29.30133\atlmfc\include\afxcoll.inl

; 505  : 		rPosition = (POSITION) pNode->pNext;

  00566	8b 09		 mov	 ecx, DWORD PTR [ecx]
; File C:\Program Files (x86)\Microsoft Visual Studio\2019\Community\VC\Tools\MSVC\14.29.30133\atlmfc\include\atlsimpstr.h

; 519  : 		return( GetData()->nDataLength );

  00568	8b 40 f4	 mov	 eax, DWORD PTR [eax-12]
; File D:\git\src\IBK\IBK_DRFN\ProjSrc\SrcChartEx\ChartOCX\AddInManager\ChartCommonAddIn\LogAddInImp.cpp

; 282  : 	while( posLog) nLogLength += slPacketLog.GetNext( posLog).GetLength() + 2;

  0056b	03 d0		 add	 edx, eax
  0056d	85 c9		 test	 ecx, ecx
  0056f	75 ef		 jne	 SHORT $LL25@OnPacketDa
  00571	89 55 0c	 mov	 DWORD PTR _nLogLength$2$[ebp], edx
$LN26@OnPacketDa:

; 283  : 	// 3.2 Get Full Buffer
; 284  : 	szLogData = strLogData.GetBufferSetLength( nLogLength);

  00574	52		 push	 edx
  00575	8d 4d f0	 lea	 ecx, DWORD PTR _strLogData$[ebp]
  00578	ff 15 00 00 00
	00		 call	 DWORD PTR __imp_?GetBufferSetLength@?$CSimpleStringT@D$00@ATL@@QAEPADH@Z

; 285  : 	// 3.3 Make One String
; 286  : 	szLogPtr = szLogData;
; 287  : 	posLog = slPacketLog.GetHeadPosition();

  0057e	8b bd 6c ff ff
	ff		 mov	 edi, DWORD PTR _slPacketLog$[ebp+4]
  00584	8b f0		 mov	 esi, eax
  00586	89 45 10	 mov	 DWORD PTR _szLogData$2$[ebp], eax
  00589	85 ff		 test	 edi, edi

; 288  : 	while( posLog)

  0058b	74 36		 je	 SHORT $LN28@OnPacketDa
  0058d	0f 1f 00	 npad	 3
$LL27@OnPacketDa:
; File C:\Program Files (x86)\Microsoft Visual Studio\2019\Community\VC\Tools\MSVC\14.29.30133\atlmfc\include\atlsimpstr.h

; 377  : 		return( m_pszData );

  00590	8b 4f 08	 mov	 ecx, DWORD PTR [edi+8]
; File C:\Program Files (x86)\Microsoft Visual Studio\2019\Community\VC\Tools\MSVC\14.29.30133\atlmfc\include\afxcoll.inl

; 501  : 	{ CNode* pNode = (CNode*) rPosition;

  00593	8d 1f		 lea	 ebx, DWORD PTR [edi]

; 505  : 		rPosition = (POSITION) pNode->pNext;

  00595	8b 3f		 mov	 edi, DWORD PTR [edi]
; File D:\git\src\IBK\IBK_DRFN\ProjSrc\SrcChartEx\ChartOCX\AddInManager\ChartCommonAddIn\LogAddInImp.cpp

; 291  : 		strcpy( szLogPtr, strLog);

  00597	8b d6		 mov	 edx, esi
  00599	0f 1f 80 00 00
	00 00		 npad	 7
$LL52@OnPacketDa:
  005a0	8a 01		 mov	 al, BYTE PTR [ecx]
  005a2	8d 49 01	 lea	 ecx, DWORD PTR [ecx+1]
  005a5	88 02		 mov	 BYTE PTR [edx], al
  005a7	8d 52 01	 lea	 edx, DWORD PTR [edx+1]
  005aa	84 c0		 test	 al, al
  005ac	75 f2		 jne	 SHORT $LL52@OnPacketDa
; File C:\Program Files (x86)\Microsoft Visual Studio\2019\Community\VC\Tools\MSVC\14.29.30133\atlmfc\include\atlsimpstr.h

; 519  : 		return( GetData()->nDataLength );

  005ae	8b 43 08	 mov	 eax, DWORD PTR [ebx+8]
; File D:\git\src\IBK\IBK_DRFN\ProjSrc\SrcChartEx\ChartOCX\AddInManager\ChartCommonAddIn\LogAddInImp.cpp

; 292  : 		szLogPtr += strLog.GetLength();

  005b1	03 70 f4	 add	 esi, DWORD PTR [eax-12]

; 293  : 		*szLogPtr++ = '\r';

  005b4	66 c7 06 0d 0a	 mov	 WORD PTR [esi], 2573	; 00000a0dH

; 294  : 		*szLogPtr++ = '\n';

  005b9	83 c6 02	 add	 esi, 2
  005bc	85 ff		 test	 edi, edi
  005be	75 d0		 jne	 SHORT $LL27@OnPacketDa
  005c0	8b 45 10	 mov	 eax, DWORD PTR _szLogData$2$[ebp]
$LN28@OnPacketDa:

; 295  : 	}
; 296  : 
; 297  : 	m_pDumpLogger->WriteToStringLog( NULL, szLogData, nLogLength);

  005c3	ff 75 0c	 push	 DWORD PTR _nLogLength$2$[ebp]
  005c6	8b 4d 94	 mov	 ecx, DWORD PTR _this$1$[ebp]
  005c9	50		 push	 eax
  005ca	6a 00		 push	 0
  005cc	8b 49 38	 mov	 ecx, DWORD PTR [ecx+56]
  005cf	e8 00 00 00 00	 call	 ?WriteToStringLog@CDumpLogger@@QAEXPBD0H@Z ; CDumpLogger::WriteToStringLog

; 298  : }

  005d4	8d 4d e4	 lea	 ecx, DWORD PTR _strData$[ebp]
  005d7	ff 15 00 00 00
	00		 call	 DWORD PTR __imp_??1?$CStringT@DV?$StrTraitMFC_DLL@DV?$ChTraitsCRT@D@ATL@@@@@ATL@@QAE@XZ
  005dd	8d 4d a8	 lea	 ecx, DWORD PTR _strPacketName$[ebp]
  005e0	ff 15 00 00 00
	00		 call	 DWORD PTR __imp_??1?$CStringT@DV?$StrTraitMFC_DLL@DV?$ChTraitsCRT@D@ATL@@@@@ATL@@QAE@XZ
  005e6	8d 8d 68 ff ff
	ff		 lea	 ecx, DWORD PTR _slPacketLog$[ebp]
  005ec	e8 00 00 00 00	 call	 ??1CStringList@@UAE@XZ	; CStringList::~CStringList
$LN62@OnPacketDa:
; File D:\git\src\IBK\IBK_DRFN\ProjSrc\SrcChartEx\ChartOCX\AddInManager\Include_AddIn\I000000\_IPacketList.h

; 71   : 	~CIPacketList()	{}

  005f1	c7 45 cc 00 00
	00 00		 mov	 DWORD PTR _lIPackets$[ebp+28], OFFSET ??_7IPacketList000000@@6B@
; File C:\Program Files (x86)\Microsoft Visual Studio\2019\Community\VC\Tools\MSVC\14.29.30133\atlmfc\include\afxtempl.h

; 872  : 	m_pBlocks->FreeDataChain();

  005f8	8b 4d c4	 mov	 ecx, DWORD PTR _lIPackets$[ebp+20]

; 878  : {

  005fb	c6 45 fc 0d	 mov	 BYTE PTR __$EHRec$[ebp+8], 13 ; 0000000dH
  005ff	c7 45 b0 00 00
	00 00		 mov	 DWORD PTR _lIPackets$[ebp], OFFSET ??_7?$CList@PAUIPacket000000@@PAU1@@@6B@

; 870  : 	m_nCount = 0;

  00606	c7 45 bc 00 00
	00 00		 mov	 DWORD PTR _lIPackets$[ebp+12], 0

; 871  : 	m_pNodeHead = m_pNodeTail = m_pNodeFree = NULL;

  0060d	c7 45 c0 00 00
	00 00		 mov	 DWORD PTR _lIPackets$[ebp+16], 0
  00614	c7 45 b8 00 00
	00 00		 mov	 DWORD PTR _lIPackets$[ebp+8], 0
  0061b	c7 45 b4 00 00
	00 00		 mov	 DWORD PTR _lIPackets$[ebp+4], 0

; 872  : 	m_pBlocks->FreeDataChain();

  00622	e8 00 00 00 00	 call	 ?FreeDataChain@CPlex@@QAEXXZ ; CPlex::FreeDataChain
; File D:\git\src\IBK\IBK_DRFN\ProjSrc\SrcChartEx\ChartOCX\AddInManager\ChartCommonAddIn\LogAddInImp.cpp

; 298  : }

  00627	8d 4d f0	 lea	 ecx, DWORD PTR _strLogData$[ebp]
; File C:\Program Files (x86)\Microsoft Visual Studio\2019\Community\VC\Tools\MSVC\14.29.30133\atlmfc\include\afxtempl.h

; 873  : 	m_pBlocks = NULL;

  0062a	c7 45 c4 00 00
	00 00		 mov	 DWORD PTR _lIPackets$[ebp+20], 0
; File D:\git\src\IBK\IBK_DRFN\ProjSrc\SrcChartEx\ChartOCX\AddInManager\ChartCommonAddIn\LogAddInImp.cpp

; 298  : }

  00631	ff 15 00 00 00
	00		 call	 DWORD PTR __imp_??1?$CStringT@DV?$StrTraitMFC_DLL@DV?$ChTraitsCRT@D@ATL@@@@@ATL@@QAE@XZ
; File D:\git\src\IBK\IBK_DRFN\ProjSrc\SrcChartEx\ChartOCX\AddInManager\Include_AddIn\I000000\_IString.h

; 45   : 		if( m_pIStrData)

  00637	8b 4d d4	 mov	 ecx, DWORD PTR _szValue$[ebp+4]
  0063a	c6 45 fc 0e	 mov	 BYTE PTR __$EHRec$[ebp+8], 14 ; 0000000eH
  0063e	85 c9		 test	 ecx, ecx
  00640	74 14		 je	 SHORT $LN153@OnPacketDa

; 46   : 		{
; 47   : 			m_pIStrData->Release();

  00642	8b 01		 mov	 eax, DWORD PTR [ecx]
  00644	51		 push	 ecx
  00645	ff 50 08	 call	 DWORD PTR [eax+8]

; 48   : 			m_pIStrData = NULL;

  00648	c7 45 d4 00 00
	00 00		 mov	 DWORD PTR _szValue$[ebp+4], 0

; 49   : 			m_szData = NULL;

  0064f	c7 45 d0 00 00
	00 00		 mov	 DWORD PTR _szValue$[ebp], 0
$LN153@OnPacketDa:

; 45   : 		if( m_pIStrData)

  00656	8b 4d a4	 mov	 ecx, DWORD PTR _szKey$[ebp+4]
  00659	c7 45 fc 0f 00
	00 00		 mov	 DWORD PTR __$EHRec$[ebp+8], 15 ; 0000000fH
  00660	85 c9		 test	 ecx, ecx
  00662	74 06		 je	 SHORT $LN157@OnPacketDa

; 46   : 		{
; 47   : 			m_pIStrData->Release();

  00664	8b 01		 mov	 eax, DWORD PTR [ecx]
  00666	51		 push	 ecx
  00667	ff 50 08	 call	 DWORD PTR [eax+8]
$LN157@OnPacketDa:
; File D:\git\src\IBK\IBK_DRFN\ProjSrc\SrcChartEx\ChartOCX\AddInManager\ChartCommonAddIn\LogAddInImp.cpp

; 298  : }

  0066a	8b 4d f4	 mov	 ecx, DWORD PTR __$EHRec$[ebp]
  0066d	64 89 0d 00 00
	00 00		 mov	 DWORD PTR fs:0, ecx
  00674	59		 pop	 ecx
  00675	5f		 pop	 edi
  00676	5e		 pop	 esi
  00677	5b		 pop	 ebx
  00678	8b e5		 mov	 esp, ebp
  0067a	5d		 pop	 ebp
  0067b	c2 0c 00	 ret	 12			; 0000000cH
$LN179@OnPacketDa:
; File C:\Program Files (x86)\Microsoft Visual Studio\2019\Community\VC\Tools\MSVC\14.29.30133\atlmfc\include\afxcoll.inl

; 504  : 			AfxThrowInvalidArgException();

  0067e	e8 00 00 00 00	 call	 ?AfxThrowInvalidArgException@@YGXXZ ; AfxThrowInvalidArgException
$LN236@OnPacketDa:
  00683	cc		 int	 3
_TEXT	ENDS
;	COMDAT text$x
text$x	SEGMENT
__unwindfunclet$?OnPacketDataMultiItem@CLogAddInImp@@MAEXPBD0H@Z$0:
  00000	8d 4d a0	 lea	 ecx, DWORD PTR _szKey$[ebp]
  00003	e9 00 00 00 00	 jmp	 ??1ILPCSTR000000@@QAE@XZ ; ILPCSTR000000::~ILPCSTR000000
__unwindfunclet$?OnPacketDataMultiItem@CLogAddInImp@@MAEXPBD0H@Z$1:
  00008	8d 4d d0	 lea	 ecx, DWORD PTR _szValue$[ebp]
  0000b	e9 00 00 00 00	 jmp	 ??1ILPCSTR000000@@QAE@XZ ; ILPCSTR000000::~ILPCSTR000000
__unwindfunclet$?OnPacketDataMultiItem@CLogAddInImp@@MAEXPBD0H@Z$2:
  00010	8d 4d f0	 lea	 ecx, DWORD PTR _strLogData$[ebp]
  00013	ff 25 00 00 00
	00		 jmp	 DWORD PTR __imp_??1?$CStringT@DV?$StrTraitMFC_DLL@DV?$ChTraitsCRT@D@ATL@@@@@ATL@@QAE@XZ
__unwindfunclet$?OnPacketDataMultiItem@CLogAddInImp@@MAEXPBD0H@Z$3:
  00019	8d 4d b0	 lea	 ecx, DWORD PTR _lIPackets$[ebp]
  0001c	e9 00 00 00 00	 jmp	 ??1CIPacketList000000@@UAE@XZ ; CIPacketList000000::~CIPacketList000000
__unwindfunclet$?OnPacketDataMultiItem@CLogAddInImp@@MAEXPBD0H@Z$4:
  00021	8d 8d 68 ff ff
	ff		 lea	 ecx, DWORD PTR _slPacketLog$[ebp]
  00027	e9 00 00 00 00	 jmp	 ??1CStringList@@UAE@XZ	; CStringList::~CStringList
__unwindfunclet$?OnPacketDataMultiItem@CLogAddInImp@@MAEXPBD0H@Z$5:
  0002c	8d 4d a8	 lea	 ecx, DWORD PTR _strPacketName$[ebp]
  0002f	ff 25 00 00 00
	00		 jmp	 DWORD PTR __imp_??1?$CStringT@DV?$StrTraitMFC_DLL@DV?$ChTraitsCRT@D@ATL@@@@@ATL@@QAE@XZ
__unwindfunclet$?OnPacketDataMultiItem@CLogAddInImp@@MAEXPBD0H@Z$6:
  00035	8d 4d e4	 lea	 ecx, DWORD PTR _strData$[ebp]
  00038	ff 25 00 00 00
	00		 jmp	 DWORD PTR __imp_??1?$CStringT@DV?$StrTraitMFC_DLL@DV?$ChTraitsCRT@D@ATL@@@@@ATL@@QAE@XZ
__unwindfunclet$?OnPacketDataMultiItem@CLogAddInImp@@MAEXPBD0H@Z$7:
  0003e	8d 4d 98	 lea	 ecx, DWORD PTR _szData$3[ebp]
  00041	e9 00 00 00 00	 jmp	 ??1ILPCSTR000000@@QAE@XZ ; ILPCSTR000000::~ILPCSTR000000
  00046	cc		 int	 3
  00047	cc		 int	 3
  00048	cc		 int	 3
  00049	cc		 int	 3
  0004a	cc		 int	 3
__ehhandler$?OnPacketDataMultiItem@CLogAddInImp@@MAEXPBD0H@Z:
  0004b	90		 npad	 1
  0004c	90		 npad	 1
  0004d	8b 54 24 08	 mov	 edx, DWORD PTR [esp+8]
  00051	8d 42 0c	 lea	 eax, DWORD PTR [edx+12]
  00054	8b 8a 64 ff ff
	ff		 mov	 ecx, DWORD PTR [edx-156]
  0005a	33 c8		 xor	 ecx, eax
  0005c	e8 00 00 00 00	 call	 @__security_check_cookie@4
  00061	b8 00 00 00 00	 mov	 eax, OFFSET __ehfuncinfo$?OnPacketDataMultiItem@CLogAddInImp@@MAEXPBD0H@Z
  00066	e9 00 00 00 00	 jmp	 ___CxxFrameHandler3
text$x	ENDS
?OnPacketDataMultiItem@CLogAddInImp@@MAEXPBD0H@Z ENDP	; CLogAddInImp::OnPacketDataMultiItem
; Function compile flags: /Ogtp
; File D:\git\src\IBK\IBK_DRFN\ProjSrc\SrcChartEx\ChartOCX\AddInManager\ChartCommonAddIn\LogAddInImp.cpp
;	COMDAT ?OnResetChart@CLogAddInImp@@MAEXXZ
_TEXT	SEGMENT
_strLogData$ = -16					; size = 4
__$EHRec$ = -12						; size = 12
?OnResetChart@CLogAddInImp@@MAEXXZ PROC			; CLogAddInImp::OnResetChart, COMDAT
; _this$ = ecx

; 145  : {

  00000	55		 push	 ebp
  00001	8b ec		 mov	 ebp, esp
  00003	6a ff		 push	 -1
  00005	68 00 00 00 00	 push	 __ehhandler$?OnResetChart@CLogAddInImp@@MAEXXZ
  0000a	64 a1 00 00 00
	00		 mov	 eax, DWORD PTR fs:0
  00010	50		 push	 eax
  00011	51		 push	 ecx
  00012	56		 push	 esi
  00013	a1 00 00 00 00	 mov	 eax, DWORD PTR ___security_cookie
  00018	33 c5		 xor	 eax, ebp
  0001a	50		 push	 eax
  0001b	8d 45 f4	 lea	 eax, DWORD PTR __$EHRec$[ebp]
  0001e	64 a3 00 00 00
	00		 mov	 DWORD PTR fs:0, eax
  00024	8b f1		 mov	 esi, ecx

; 146  : 	if( !m_pDumpLogger) return;

  00026	83 7e 38 00	 cmp	 DWORD PTR [esi+56], 0
  0002a	74 2f		 je	 SHORT $LN1@OnResetCha

; 147  : 	CString strLogData( "OnResetChart\r\n");

  0002c	68 00 00 00 00	 push	 OFFSET ??_C@_0P@JMOEIKKC@OnResetChart?$AN?6@
  00031	8d 4d f0	 lea	 ecx, DWORD PTR _strLogData$[ebp]
  00034	ff 15 00 00 00
	00		 call	 DWORD PTR __imp_??0?$CStringT@DV?$StrTraitMFC_DLL@DV?$ChTraitsCRT@D@ATL@@@@@ATL@@QAE@PBD@Z

; 148  : 	m_pDumpLogger->WriteToStringLog( NULL, strLogData, strLogData.GetLength());

  0003a	8b 45 f0	 mov	 eax, DWORD PTR _strLogData$[ebp]
  0003d	8b 4e 38	 mov	 ecx, DWORD PTR [esi+56]
  00040	c7 45 fc 00 00
	00 00		 mov	 DWORD PTR __$EHRec$[ebp+8], 0
  00047	ff 70 f4	 push	 DWORD PTR [eax-12]
  0004a	50		 push	 eax
  0004b	6a 00		 push	 0
  0004d	e8 00 00 00 00	 call	 ?WriteToStringLog@CDumpLogger@@QAEXPBD0H@Z ; CDumpLogger::WriteToStringLog

; 149  : }

  00052	8d 4d f0	 lea	 ecx, DWORD PTR _strLogData$[ebp]
  00055	ff 15 00 00 00
	00		 call	 DWORD PTR __imp_??1?$CStringT@DV?$StrTraitMFC_DLL@DV?$ChTraitsCRT@D@ATL@@@@@ATL@@QAE@XZ
$LN1@OnResetCha:
  0005b	8b 4d f4	 mov	 ecx, DWORD PTR __$EHRec$[ebp]
  0005e	64 89 0d 00 00
	00 00		 mov	 DWORD PTR fs:0, ecx
  00065	59		 pop	 ecx
  00066	5e		 pop	 esi
  00067	8b e5		 mov	 esp, ebp
  00069	5d		 pop	 ebp
  0006a	c3		 ret	 0
_TEXT	ENDS
;	COMDAT text$x
text$x	SEGMENT
__unwindfunclet$?OnResetChart@CLogAddInImp@@MAEXXZ$0:
  00000	8d 4d f0	 lea	 ecx, DWORD PTR _strLogData$[ebp]
  00003	ff 25 00 00 00
	00		 jmp	 DWORD PTR __imp_??1?$CStringT@DV?$StrTraitMFC_DLL@DV?$ChTraitsCRT@D@ATL@@@@@ATL@@QAE@XZ
  00009	cc		 int	 3
  0000a	cc		 int	 3
  0000b	cc		 int	 3
  0000c	cc		 int	 3
  0000d	cc		 int	 3
__ehhandler$?OnResetChart@CLogAddInImp@@MAEXXZ:
  0000e	90		 npad	 1
  0000f	90		 npad	 1
  00010	8b 54 24 08	 mov	 edx, DWORD PTR [esp+8]
  00014	8d 42 0c	 lea	 eax, DWORD PTR [edx+12]
  00017	8b 4a f4	 mov	 ecx, DWORD PTR [edx-12]
  0001a	33 c8		 xor	 ecx, eax
  0001c	e8 00 00 00 00	 call	 @__security_check_cookie@4
  00021	b8 00 00 00 00	 mov	 eax, OFFSET __ehfuncinfo$?OnResetChart@CLogAddInImp@@MAEXXZ
  00026	e9 00 00 00 00	 jmp	 ___CxxFrameHandler3
text$x	ENDS
?OnResetChart@CLogAddInImp@@MAEXXZ ENDP			; CLogAddInImp::OnResetChart
; Function compile flags: /Ogtp
; File D:\git\src\IBK\IBK_DRFN\ProjSrc\SrcChartEx\ChartOCX\AddInManager\ChartCommonAddIn\LogAddInImp.cpp
;	COMDAT ?OnLSharedDataChange@CLogAddInImp@@MAEXPBD0@Z
_TEXT	SEGMENT
_strLogData$ = -16					; size = 4
__$EHRec$ = -12						; size = 12
_p_szLShareKey$ = 8					; size = 4
_p_szLShareValue$ = 12					; size = 4
?OnLSharedDataChange@CLogAddInImp@@MAEXPBD0@Z PROC	; CLogAddInImp::OnLSharedDataChange, COMDAT
; _this$ = ecx

; 137  : {

  00000	55		 push	 ebp
  00001	8b ec		 mov	 ebp, esp
  00003	6a ff		 push	 -1
  00005	68 00 00 00 00	 push	 __ehhandler$?OnLSharedDataChange@CLogAddInImp@@MAEXPBD0@Z
  0000a	64 a1 00 00 00
	00		 mov	 eax, DWORD PTR fs:0
  00010	50		 push	 eax
  00011	51		 push	 ecx
  00012	56		 push	 esi
  00013	a1 00 00 00 00	 mov	 eax, DWORD PTR ___security_cookie
  00018	33 c5		 xor	 eax, ebp
  0001a	50		 push	 eax
  0001b	8d 45 f4	 lea	 eax, DWORD PTR __$EHRec$[ebp]
  0001e	64 a3 00 00 00
	00		 mov	 DWORD PTR fs:0, eax
  00024	8b f1		 mov	 esi, ecx

; 138  : 	if( !m_pDumpLogger) return;

  00026	83 7e 38 00	 cmp	 DWORD PTR [esi+56], 0
  0002a	74 42		 je	 SHORT $LN1@OnLSharedD

; 139  : 	CString strLogData;

  0002c	8d 4d f0	 lea	 ecx, DWORD PTR _strLogData$[ebp]
  0002f	ff 15 00 00 00
	00		 call	 DWORD PTR __imp_??0?$CStringT@DV?$StrTraitMFC_DLL@DV?$ChTraitsCRT@D@ATL@@@@@ATL@@QAE@XZ

; 140  : 	strLogData.Format( "OnLSharedDataChange\t%s\t%s\r\n", p_szLShareKey, p_szLShareValue);

  00035	ff 75 0c	 push	 DWORD PTR _p_szLShareValue$[ebp]
  00038	8d 45 f0	 lea	 eax, DWORD PTR _strLogData$[ebp]
  0003b	c7 45 fc 00 00
	00 00		 mov	 DWORD PTR __$EHRec$[ebp+8], 0
  00042	ff 75 08	 push	 DWORD PTR _p_szLShareKey$[ebp]
  00045	68 00 00 00 00	 push	 OFFSET ??_C@_0BM@LLNGPKFK@OnLSharedDataChange?7?$CFs?7?$CFs?$AN?6@
  0004a	50		 push	 eax
  0004b	ff 15 00 00 00
	00		 call	 DWORD PTR __imp_?Format@?$CStringT@DV?$StrTraitMFC_DLL@DV?$ChTraitsCRT@D@ATL@@@@@ATL@@QAAXPBDZZ

; 141  : 	m_pDumpLogger->WriteToStringLog( NULL, strLogData, strLogData.GetLength());

  00051	8b 45 f0	 mov	 eax, DWORD PTR _strLogData$[ebp]
  00054	83 c4 10	 add	 esp, 16			; 00000010H
  00057	8b 4e 38	 mov	 ecx, DWORD PTR [esi+56]
  0005a	ff 70 f4	 push	 DWORD PTR [eax-12]
  0005d	50		 push	 eax
  0005e	6a 00		 push	 0
  00060	e8 00 00 00 00	 call	 ?WriteToStringLog@CDumpLogger@@QAEXPBD0H@Z ; CDumpLogger::WriteToStringLog

; 142  : }

  00065	8d 4d f0	 lea	 ecx, DWORD PTR _strLogData$[ebp]
  00068	ff 15 00 00 00
	00		 call	 DWORD PTR __imp_??1?$CStringT@DV?$StrTraitMFC_DLL@DV?$ChTraitsCRT@D@ATL@@@@@ATL@@QAE@XZ
$LN1@OnLSharedD:
  0006e	8b 4d f4	 mov	 ecx, DWORD PTR __$EHRec$[ebp]
  00071	64 89 0d 00 00
	00 00		 mov	 DWORD PTR fs:0, ecx
  00078	59		 pop	 ecx
  00079	5e		 pop	 esi
  0007a	8b e5		 mov	 esp, ebp
  0007c	5d		 pop	 ebp
  0007d	c2 08 00	 ret	 8
_TEXT	ENDS
;	COMDAT text$x
text$x	SEGMENT
__unwindfunclet$?OnLSharedDataChange@CLogAddInImp@@MAEXPBD0@Z$0:
  00000	8d 4d f0	 lea	 ecx, DWORD PTR _strLogData$[ebp]
  00003	ff 25 00 00 00
	00		 jmp	 DWORD PTR __imp_??1?$CStringT@DV?$StrTraitMFC_DLL@DV?$ChTraitsCRT@D@ATL@@@@@ATL@@QAE@XZ
  00009	cc		 int	 3
  0000a	cc		 int	 3
  0000b	cc		 int	 3
  0000c	cc		 int	 3
  0000d	cc		 int	 3
__ehhandler$?OnLSharedDataChange@CLogAddInImp@@MAEXPBD0@Z:
  0000e	90		 npad	 1
  0000f	90		 npad	 1
  00010	8b 54 24 08	 mov	 edx, DWORD PTR [esp+8]
  00014	8d 42 0c	 lea	 eax, DWORD PTR [edx+12]
  00017	8b 4a f4	 mov	 ecx, DWORD PTR [edx-12]
  0001a	33 c8		 xor	 ecx, eax
  0001c	e8 00 00 00 00	 call	 @__security_check_cookie@4
  00021	b8 00 00 00 00	 mov	 eax, OFFSET __ehfuncinfo$?OnLSharedDataChange@CLogAddInImp@@MAEXPBD0@Z
  00026	e9 00 00 00 00	 jmp	 ___CxxFrameHandler3
text$x	ENDS
?OnLSharedDataChange@CLogAddInImp@@MAEXPBD0@Z ENDP	; CLogAddInImp::OnLSharedDataChange
; Function compile flags: /Ogtp
; File D:\git\src\IBK\IBK_DRFN\ProjSrc\SrcChartEx\ChartOCX\AddInManager\ChartCommonAddIn\LogAddInImp.cpp
;	COMDAT ?OnGSharedDataChange@CLogAddInImp@@MAEXPBD0H@Z
_TEXT	SEGMENT
_strLogData$ = -16					; size = 4
__$EHRec$ = -12						; size = 12
_p_szGShareKey$ = 8					; size = 4
_p_szGShareValue$ = 12					; size = 4
_p_bStartShare$ = 16					; size = 4
?OnGSharedDataChange@CLogAddInImp@@MAEXPBD0H@Z PROC	; CLogAddInImp::OnGSharedDataChange, COMDAT
; _this$ = ecx

; 129  : {

  00000	55		 push	 ebp
  00001	8b ec		 mov	 ebp, esp
  00003	6a ff		 push	 -1
  00005	68 00 00 00 00	 push	 __ehhandler$?OnGSharedDataChange@CLogAddInImp@@MAEXPBD0H@Z
  0000a	64 a1 00 00 00
	00		 mov	 eax, DWORD PTR fs:0
  00010	50		 push	 eax
  00011	51		 push	 ecx
  00012	56		 push	 esi
  00013	a1 00 00 00 00	 mov	 eax, DWORD PTR ___security_cookie
  00018	33 c5		 xor	 eax, ebp
  0001a	50		 push	 eax
  0001b	8d 45 f4	 lea	 eax, DWORD PTR __$EHRec$[ebp]
  0001e	64 a3 00 00 00
	00		 mov	 DWORD PTR fs:0, eax
  00024	8b f1		 mov	 esi, ecx

; 130  : 	if( !m_pDumpLogger) return;

  00026	83 7e 38 00	 cmp	 DWORD PTR [esi+56], 0
  0002a	74 45		 je	 SHORT $LN1@OnGSharedD

; 131  : 	CString strLogData;

  0002c	8d 4d f0	 lea	 ecx, DWORD PTR _strLogData$[ebp]
  0002f	ff 15 00 00 00
	00		 call	 DWORD PTR __imp_??0?$CStringT@DV?$StrTraitMFC_DLL@DV?$ChTraitsCRT@D@ATL@@@@@ATL@@QAE@XZ

; 132  : 	strLogData.Format( "OnGSharedDataChange\t%s\t%s\t%d\r\n", p_szGShareKey, p_szGShareValue, ( int)p_bStartShare);

  00035	ff 75 10	 push	 DWORD PTR _p_bStartShare$[ebp]
  00038	8d 45 f0	 lea	 eax, DWORD PTR _strLogData$[ebp]
  0003b	c7 45 fc 00 00
	00 00		 mov	 DWORD PTR __$EHRec$[ebp+8], 0
  00042	ff 75 0c	 push	 DWORD PTR _p_szGShareValue$[ebp]
  00045	ff 75 08	 push	 DWORD PTR _p_szGShareKey$[ebp]
  00048	68 00 00 00 00	 push	 OFFSET ??_C@_0BP@HFGPJKIL@OnGSharedDataChange?7?$CFs?7?$CFs?7?$CFd?$AN?6@
  0004d	50		 push	 eax
  0004e	ff 15 00 00 00
	00		 call	 DWORD PTR __imp_?Format@?$CStringT@DV?$StrTraitMFC_DLL@DV?$ChTraitsCRT@D@ATL@@@@@ATL@@QAAXPBDZZ

; 133  : 	m_pDumpLogger->WriteToStringLog( NULL, strLogData, strLogData.GetLength());

  00054	8b 45 f0	 mov	 eax, DWORD PTR _strLogData$[ebp]
  00057	83 c4 14	 add	 esp, 20			; 00000014H
  0005a	8b 4e 38	 mov	 ecx, DWORD PTR [esi+56]
  0005d	ff 70 f4	 push	 DWORD PTR [eax-12]
  00060	50		 push	 eax
  00061	6a 00		 push	 0
  00063	e8 00 00 00 00	 call	 ?WriteToStringLog@CDumpLogger@@QAEXPBD0H@Z ; CDumpLogger::WriteToStringLog

; 134  : }

  00068	8d 4d f0	 lea	 ecx, DWORD PTR _strLogData$[ebp]
  0006b	ff 15 00 00 00
	00		 call	 DWORD PTR __imp_??1?$CStringT@DV?$StrTraitMFC_DLL@DV?$ChTraitsCRT@D@ATL@@@@@ATL@@QAE@XZ
$LN1@OnGSharedD:
  00071	8b 4d f4	 mov	 ecx, DWORD PTR __$EHRec$[ebp]
  00074	64 89 0d 00 00
	00 00		 mov	 DWORD PTR fs:0, ecx
  0007b	59		 pop	 ecx
  0007c	5e		 pop	 esi
  0007d	8b e5		 mov	 esp, ebp
  0007f	5d		 pop	 ebp
  00080	c2 0c 00	 ret	 12			; 0000000cH
_TEXT	ENDS
;	COMDAT text$x
text$x	SEGMENT
__unwindfunclet$?OnGSharedDataChange@CLogAddInImp@@MAEXPBD0H@Z$0:
  00000	8d 4d f0	 lea	 ecx, DWORD PTR _strLogData$[ebp]
  00003	ff 25 00 00 00
	00		 jmp	 DWORD PTR __imp_??1?$CStringT@DV?$StrTraitMFC_DLL@DV?$ChTraitsCRT@D@ATL@@@@@ATL@@QAE@XZ
  00009	cc		 int	 3
  0000a	cc		 int	 3
  0000b	cc		 int	 3
  0000c	cc		 int	 3
  0000d	cc		 int	 3
__ehhandler$?OnGSharedDataChange@CLogAddInImp@@MAEXPBD0H@Z:
  0000e	90		 npad	 1
  0000f	90		 npad	 1
  00010	8b 54 24 08	 mov	 edx, DWORD PTR [esp+8]
  00014	8d 42 0c	 lea	 eax, DWORD PTR [edx+12]
  00017	8b 4a f4	 mov	 ecx, DWORD PTR [edx-12]
  0001a	33 c8		 xor	 ecx, eax
  0001c	e8 00 00 00 00	 call	 @__security_check_cookie@4
  00021	b8 00 00 00 00	 mov	 eax, OFFSET __ehfuncinfo$?OnGSharedDataChange@CLogAddInImp@@MAEXPBD0H@Z
  00026	e9 00 00 00 00	 jmp	 ___CxxFrameHandler3
text$x	ENDS
?OnGSharedDataChange@CLogAddInImp@@MAEXPBD0H@Z ENDP	; CLogAddInImp::OnGSharedDataChange
; Function compile flags: /Ogtp
; File D:\git\src\IBK\IBK_DRFN\ProjSrc\SrcChartEx\ChartOCX\AddInManager\ChartCommonAddIn\LogAddInImp.cpp
; File C:\Program Files (x86)\Microsoft Visual Studio\2019\Community\VC\Tools\MSVC\14.29.30133\atlmfc\include\afx.inl
; File D:\git\src\IBK\IBK_DRFN\ProjSrc\SrcChartEx\ChartOCX\AddInManager\ChartCommonAddIn\LogAddInImp.cpp
; File C:\Program Files (x86)\Microsoft Visual Studio\2019\Community\VC\Tools\MSVC\14.29.30133\atlmfc\include\afx.inl
; File D:\git\src\IBK\IBK_DRFN\ProjSrc\SrcChartEx\ChartOCX\AddInManager\ChartCommonAddIn\LogAddInImp.cpp
; File D:\git\src\IBK\IBK_DRFN\ProjSrc\SrcChartEx\ChartOCX\Include\DumpLogger.h
; File D:\git\src\IBK\IBK_DRFN\ProjSrc\SrcChartEx\ChartOCX\AddInManager\ChartCommonAddIn\LogAddInImp.cpp
; File D:\git\src\IBK\IBK_DRFN\ProjSrc\SrcChartEx\ChartOCX\Include\DumpLogger.h
; File D:\git\src\IBK\IBK_DRFN\ProjSrc\SrcChartEx\ChartOCX\AddInManager\ChartCommonAddIn\LogAddInImp.cpp
;	COMDAT ?InvokeAddInStr@CLogAddInImp@@MAEHPBD0@Z
_TEXT	SEGMENT
$T2 = -44						; size = 4
_strLogData$ = -40					; size = 4
_strFileName$3 = -36					; size = 4
_sTime$4 = -32						; size = 16
__$ArrayPad$ = -16					; size = 4
__$EHRec$ = -12						; size = 12
_p_szCommandName$ = 8					; size = 4
_p_szData$ = 12						; size = 4
?InvokeAddInStr@CLogAddInImp@@MAEHPBD0@Z PROC		; CLogAddInImp::InvokeAddInStr, COMDAT
; _this$ = ecx

; 92   : {

  00000	55		 push	 ebp
  00001	8b ec		 mov	 ebp, esp
  00003	6a ff		 push	 -1
  00005	68 00 00 00 00	 push	 __ehhandler$?InvokeAddInStr@CLogAddInImp@@MAEHPBD0@Z
  0000a	64 a1 00 00 00
	00		 mov	 eax, DWORD PTR fs:0
  00010	50		 push	 eax
  00011	83 ec 20	 sub	 esp, 32			; 00000020H
  00014	a1 00 00 00 00	 mov	 eax, DWORD PTR ___security_cookie
  00019	33 c5		 xor	 eax, ebp
  0001b	89 45 f0	 mov	 DWORD PTR __$ArrayPad$[ebp], eax
  0001e	53		 push	 ebx
  0001f	56		 push	 esi
  00020	57		 push	 edi
  00021	50		 push	 eax
  00022	8d 45 f4	 lea	 eax, DWORD PTR __$EHRec$[ebp]
  00025	64 a3 00 00 00
	00		 mov	 DWORD PTR fs:0, eax
  0002b	8b f9		 mov	 edi, ecx
  0002d	8b 75 08	 mov	 esi, DWORD PTR _p_szCommandName$[ebp]
  00030	8b 5d 0c	 mov	 ebx, DWORD PTR _p_szData$[ebp]

; 93   : 	// (2005/9/2 - Seung-Won, Bae) Process LOGFILE
; 94   : 	if( !stricmp( p_szCommandName, "LOGFILE"))

  00033	68 00 00 00 00	 push	 OFFSET ??_C@_07IBNALNMK@LOGFILE@
  00038	56		 push	 esi
  00039	ff 15 00 00 00
	00		 call	 DWORD PTR __imp__stricmp
  0003f	83 c4 08	 add	 esp, 8
  00042	85 c0		 test	 eax, eax
  00044	0f 85 08 01 00
	00		 jne	 $LN2@InvokeAddI

; 95   : 	{
; 96   : 		if( m_pDumpLogger)

  0004a	8b 4f 38	 mov	 ecx, DWORD PTR [edi+56]
  0004d	85 c9		 test	 ecx, ecx
  0004f	74 0e		 je	 SHORT $LN3@InvokeAddI

; 97   : 		{
; 98   : 			delete m_pDumpLogger;

  00051	8b 01		 mov	 eax, DWORD PTR [ecx]
  00053	6a 01		 push	 1
  00055	ff 50 04	 call	 DWORD PTR [eax+4]

; 99   : 			m_pDumpLogger = NULL;

  00058	c7 47 38 00 00
	00 00		 mov	 DWORD PTR [edi+56], 0
$LN3@InvokeAddI:
; File C:\Program Files (x86)\Microsoft Visual Studio\2019\Community\VC\Tools\MSVC\14.29.30133\atlmfc\include\afx.inl

; 116  : 	{ return ::operator new(nSize); }

  0005f	6a 08		 push	 8
  00061	e8 00 00 00 00	 call	 ??2@YAPAXI@Z		; operator new
; File D:\git\src\IBK\IBK_DRFN\ProjSrc\SrcChartEx\ChartOCX\AddInManager\ChartCommonAddIn\LogAddInImp.cpp

; 101  : 		m_pDumpLogger = new CDumpLogger( p_szData, TRUE);

  00066	8b f0		 mov	 esi, eax
; File C:\Program Files (x86)\Microsoft Visual Studio\2019\Community\VC\Tools\MSVC\14.29.30133\atlmfc\include\afx.inl

; 116  : 	{ return ::operator new(nSize); }

  00068	83 c4 04	 add	 esp, 4
; File D:\git\src\IBK\IBK_DRFN\ProjSrc\SrcChartEx\ChartOCX\AddInManager\ChartCommonAddIn\LogAddInImp.cpp

; 101  : 		m_pDumpLogger = new CDumpLogger( p_szData, TRUE);

  0006b	89 75 d4	 mov	 DWORD PTR $T2[ebp], esi
  0006e	c7 45 fc 00 00
	00 00		 mov	 DWORD PTR __$EHRec$[ebp+8], 0
  00075	85 f6		 test	 esi, esi
  00077	0f 84 b5 00 00
	00		 je	 $LN9@InvokeAddI
; File D:\git\src\IBK\IBK_DRFN\ProjSrc\SrcChartEx\ChartOCX\Include\DumpLogger.h

; 29   : 		GetLocalTime(&sTime);

  0007d	8d 45 e0	 lea	 eax, DWORD PTR _sTime$4[ebp]
  00080	c7 06 00 00 00
	00		 mov	 DWORD PTR [esi], OFFSET ??_7CDumpLogger@@6B@
  00086	50		 push	 eax
  00087	ff 15 00 00 00
	00		 call	 DWORD PTR __imp__GetLocalTime@4

; 30   : 		// 2. Log File Name .
; 31   : 		// 2.1 Log Folder Path .
; 32   : 		if( szLogFolderPath == NULL || *szLogFolderPath == '\0') szLogFolderPath = "C:\\Logs";
; 33   : 		// 2.2 Log File Key .
; 34   : 		if( szLogFileKey == NULL || *szLogFileKey == '\0') szLogFileKey = "MDump";

  0008d	85 db		 test	 ebx, ebx
  0008f	74 05		 je	 SHORT $LN19@InvokeAddI
  00091	80 3b 00	 cmp	 BYTE PTR [ebx], 0
  00094	75 05		 jne	 SHORT $LN18@InvokeAddI
$LN19@InvokeAddI:
  00096	bb 00 00 00 00	 mov	 ebx, OFFSET ??_C@_05GDFJMIEM@MDump@
$LN18@InvokeAddI:

; 35   : 		// 2.3 Log File Name .
; 36   : 		CString strFileName;

  0009b	8d 4d dc	 lea	 ecx, DWORD PTR _strFileName$3[ebp]
  0009e	ff 15 00 00 00
	00		 call	 DWORD PTR __imp_??0?$CStringT@DV?$StrTraitMFC_DLL@DV?$ChTraitsCRT@D@ATL@@@@@ATL@@QAE@XZ

; 37   : 		if( p_bMSecLogFile) strFileName.Format( "%s\\%s_%04d%02d%02d_%02d%02d%02d_%03d.log", szLogFolderPath, szLogFileKey, sTime.wYear, 

  000a4	0f b7 45 ee	 movzx	 eax, WORD PTR _sTime$4[ebp+14]
  000a8	50		 push	 eax
  000a9	0f b7 45 ec	 movzx	 eax, WORD PTR _sTime$4[ebp+12]
  000ad	50		 push	 eax
  000ae	0f b7 45 ea	 movzx	 eax, WORD PTR _sTime$4[ebp+10]
  000b2	50		 push	 eax
  000b3	0f b7 45 e8	 movzx	 eax, WORD PTR _sTime$4[ebp+8]
  000b7	50		 push	 eax
  000b8	0f b7 45 e6	 movzx	 eax, WORD PTR _sTime$4[ebp+6]
  000bc	50		 push	 eax
  000bd	0f b7 45 e2	 movzx	 eax, WORD PTR _sTime$4[ebp+2]
  000c1	50		 push	 eax
  000c2	0f b7 45 e0	 movzx	 eax, WORD PTR _sTime$4[ebp]
  000c6	50		 push	 eax
  000c7	53		 push	 ebx
  000c8	68 00 00 00 00	 push	 OFFSET ??_C@_07PNFMHCIF@C?3?2Logs@
  000cd	8d 45 dc	 lea	 eax, DWORD PTR _strFileName$3[ebp]
  000d0	c6 45 fc 01	 mov	 BYTE PTR __$EHRec$[ebp+8], 1
  000d4	68 00 00 00 00	 push	 OFFSET ??_C@_0CJ@GKAGEPNM@?$CFs?2?$CFs_?$CF04d?$CF02d?$CF02d_?$CF02d?$CF02d?$CF02d@
  000d9	50		 push	 eax
  000da	ff 15 00 00 00
	00		 call	 DWORD PTR __imp_?Format@?$CStringT@DV?$StrTraitMFC_DLL@DV?$ChTraitsCRT@D@ATL@@@@@ATL@@QAAXPBDZZ
  000e0	83 c4 2c	 add	 esp, 44			; 0000002cH

; 38   : 			sTime.wMonth, sTime.wDay, sTime.wHour, sTime.wMinute, sTime.wSecond, sTime.wMilliseconds);
; 39   : 		else strFileName.Format( "%s\\%s_%04d%02d%02d.log", szLogFolderPath, szLogFileKey, sTime.wYear, 
; 40   : 			sTime.wMonth, sTime.wDay);
; 41   : 		// 3. szLogFolderPath     .
; 42   : 		::CreateDirectory( szLogFolderPath, NULL);

  000e3	6a 00		 push	 0
  000e5	68 00 00 00 00	 push	 OFFSET ??_C@_07PNFMHCIF@C?3?2Logs@
  000ea	ff 15 00 00 00
	00		 call	 DWORD PTR __imp__CreateDirectoryA@8

; 43   : 
; 44   : 		// 3. Log File Open.
; 45   : 		m_hLogFile = _lopen( ( LPCTSTR)strFileName, OF_READWRITE);

  000f0	6a 02		 push	 2
  000f2	ff 75 dc	 push	 DWORD PTR _strFileName$3[ebp]
  000f5	ff 15 00 00 00
	00		 call	 DWORD PTR __imp___lopen@8
  000fb	89 46 04	 mov	 DWORD PTR [esi+4], eax

; 46   : 		if( m_hLogFile != HFILE_ERROR)

  000fe	83 f8 ff	 cmp	 eax, -1
  00101	74 16		 je	 SHORT $LN22@InvokeAddI

; 47   : 		{
; 48   : 			// 3.1  File  File  .
; 49   : 			if( _llseek( m_hLogFile, 0L, FILE_END) == HFILE_ERROR) return;

  00103	6a 02		 push	 2
  00105	6a 00		 push	 0
  00107	50		 push	 eax
  00108	ff 15 00 00 00
	00		 call	 DWORD PTR __imp___llseek@12

; 53   : 	}

  0010e	8d 4d dc	 lea	 ecx, DWORD PTR _strFileName$3[ebp]
  00111	ff 15 00 00 00
	00		 call	 DWORD PTR __imp_??1?$CStringT@DV?$StrTraitMFC_DLL@DV?$ChTraitsCRT@D@ATL@@@@@ATL@@QAE@XZ
; File D:\git\src\IBK\IBK_DRFN\ProjSrc\SrcChartEx\ChartOCX\AddInManager\ChartCommonAddIn\LogAddInImp.cpp

; 101  : 		m_pDumpLogger = new CDumpLogger( p_szData, TRUE);

  00117	eb 1b		 jmp	 SHORT $LN10@InvokeAddI
$LN22@InvokeAddI:
; File D:\git\src\IBK\IBK_DRFN\ProjSrc\SrcChartEx\ChartOCX\Include\DumpLogger.h

; 52   : 		else m_hLogFile = _lcreat( ( LPCTSTR)strFileName, 0);

  00119	6a 00		 push	 0
  0011b	ff 75 dc	 push	 DWORD PTR _strFileName$3[ebp]
  0011e	ff 15 00 00 00
	00		 call	 DWORD PTR __imp___lcreat@8

; 53   : 	}

  00124	8d 4d dc	 lea	 ecx, DWORD PTR _strFileName$3[ebp]
  00127	89 46 04	 mov	 DWORD PTR [esi+4], eax
  0012a	ff 15 00 00 00
	00		 call	 DWORD PTR __imp_??1?$CStringT@DV?$StrTraitMFC_DLL@DV?$ChTraitsCRT@D@ATL@@@@@ATL@@QAE@XZ
; File D:\git\src\IBK\IBK_DRFN\ProjSrc\SrcChartEx\ChartOCX\AddInManager\ChartCommonAddIn\LogAddInImp.cpp

; 101  : 		m_pDumpLogger = new CDumpLogger( p_szData, TRUE);

  00130	eb 02		 jmp	 SHORT $LN10@InvokeAddI
$LN9@InvokeAddI:
  00132	33 f6		 xor	 esi, esi
$LN10@InvokeAddI:

; 102  : 
; 103  : 		// (2006/1/23 - Seung-Won, Bae) Set Log Mode to OCX
; 104  : 		m_pIChartOCX->SetLoggingFlag( TRUE);

  00134	8b 4f 04	 mov	 ecx, DWORD PTR [edi+4]
  00137	89 77 38	 mov	 DWORD PTR [edi+56], esi
  0013a	6a 01		 push	 1
  0013c	c7 45 fc ff ff
	ff ff		 mov	 DWORD PTR __$EHRec$[ebp+8], -1
  00143	8b 01		 mov	 eax, DWORD PTR [ecx]
  00145	ff 90 a0 01 00
	00		 call	 DWORD PTR [eax+416]

; 105  : 		return TRUE;

  0014b	b8 01 00 00 00	 mov	 eax, 1
  00150	eb 68		 jmp	 SHORT $LN1@InvokeAddI
$LN2@InvokeAddI:

; 106  : 	}
; 107  : 
; 108  : 	// (2006/4/18 - Seung-Won, Bae) Log AllProperty
; 109  : 	if( !stricmp( p_szCommandName, "LOGPROPERTY"))

  00152	68 00 00 00 00	 push	 OFFSET ??_C@_0M@KCNCPKNK@LOGPROPERTY@
  00157	56		 push	 esi
  00158	ff 15 00 00 00
	00		 call	 DWORD PTR __imp__stricmp
  0015e	83 c4 08	 add	 esp, 8
  00161	85 c0		 test	 eax, eax
  00163	75 0f		 jne	 SHORT $LN4@InvokeAddI

; 110  : 	{
; 111  : 		LogAllProperties();

  00165	8d 4f f8	 lea	 ecx, DWORD PTR [edi-8]
  00168	e8 00 00 00 00	 call	 ?LogAllProperties@CLogAddInImp@@IAEHXZ ; CLogAddInImp::LogAllProperties

; 112  : 		return TRUE;

  0016d	b8 01 00 00 00	 mov	 eax, 1
  00172	eb 46		 jmp	 SHORT $LN1@InvokeAddI
$LN4@InvokeAddI:

; 113  : 	}
; 114  : 
; 115  : 	if( !m_pDumpLogger) return FALSE;

  00174	83 7f 38 00	 cmp	 DWORD PTR [edi+56], 0
  00178	74 3e		 je	 SHORT $LN38@InvokeAddI

; 116  : 	CString strLogData;

  0017a	8d 4d d8	 lea	 ecx, DWORD PTR _strLogData$[ebp]
  0017d	ff 15 00 00 00
	00		 call	 DWORD PTR __imp_??0?$CStringT@DV?$StrTraitMFC_DLL@DV?$ChTraitsCRT@D@ATL@@@@@ATL@@QAE@XZ

; 117  : 	strLogData.Format( "InvokeAddInStr\t%s\t%s\r\n", p_szCommandName, p_szData);

  00183	53		 push	 ebx
  00184	56		 push	 esi
  00185	8d 45 d8	 lea	 eax, DWORD PTR _strLogData$[ebp]
  00188	c7 45 fc 02 00
	00 00		 mov	 DWORD PTR __$EHRec$[ebp+8], 2
  0018f	68 00 00 00 00	 push	 OFFSET ??_C@_0BH@KDLBAJON@InvokeAddInStr?7?$CFs?7?$CFs?$AN?6@
  00194	50		 push	 eax
  00195	ff 15 00 00 00
	00		 call	 DWORD PTR __imp_?Format@?$CStringT@DV?$StrTraitMFC_DLL@DV?$ChTraitsCRT@D@ATL@@@@@ATL@@QAAXPBDZZ

; 118  : 	m_pDumpLogger->WriteToStringLog( NULL, strLogData, strLogData.GetLength());

  0019b	8b 45 d8	 mov	 eax, DWORD PTR _strLogData$[ebp]
  0019e	83 c4 10	 add	 esp, 16			; 00000010H
  001a1	8b 4f 38	 mov	 ecx, DWORD PTR [edi+56]
  001a4	ff 70 f4	 push	 DWORD PTR [eax-12]
  001a7	50		 push	 eax
  001a8	6a 00		 push	 0
  001aa	e8 00 00 00 00	 call	 ?WriteToStringLog@CDumpLogger@@QAEXPBD0H@Z ; CDumpLogger::WriteToStringLog

; 119  : 
; 120  : 	return FALSE;

  001af	8d 4d d8	 lea	 ecx, DWORD PTR _strLogData$[ebp]
  001b2	ff 15 00 00 00
	00		 call	 DWORD PTR __imp_??1?$CStringT@DV?$StrTraitMFC_DLL@DV?$ChTraitsCRT@D@ATL@@@@@ATL@@QAE@XZ
$LN38@InvokeAddI:

; 121  : }

  001b8	33 c0		 xor	 eax, eax
$LN1@InvokeAddI:
  001ba	8b 4d f4	 mov	 ecx, DWORD PTR __$EHRec$[ebp]
  001bd	64 89 0d 00 00
	00 00		 mov	 DWORD PTR fs:0, ecx
  001c4	59		 pop	 ecx
  001c5	5f		 pop	 edi
  001c6	5e		 pop	 esi
  001c7	5b		 pop	 ebx
  001c8	8b 4d f0	 mov	 ecx, DWORD PTR __$ArrayPad$[ebp]
  001cb	33 cd		 xor	 ecx, ebp
  001cd	e8 00 00 00 00	 call	 @__security_check_cookie@4
  001d2	8b e5		 mov	 esp, ebp
  001d4	5d		 pop	 ebp
  001d5	c2 08 00	 ret	 8
_TEXT	ENDS
;	COMDAT text$x
text$x	SEGMENT
__unwindfunclet$?InvokeAddInStr@CLogAddInImp@@MAEHPBD0@Z$0:
  00000	8b 45 d4	 mov	 eax, DWORD PTR $T2[ebp]
  00003	50		 push	 eax
  00004	e8 00 00 00 00	 call	 ??3CObject@@SGXPAX@Z	; CObject::operator delete
  00009	c3		 ret	 0
__unwindfunclet$?InvokeAddInStr@CLogAddInImp@@MAEHPBD0@Z$2:
  0000a	8d 4d dc	 lea	 ecx, DWORD PTR _strFileName$3[ebp]
  0000d	ff 25 00 00 00
	00		 jmp	 DWORD PTR __imp_??1?$CStringT@DV?$StrTraitMFC_DLL@DV?$ChTraitsCRT@D@ATL@@@@@ATL@@QAE@XZ
__unwindfunclet$?InvokeAddInStr@CLogAddInImp@@MAEHPBD0@Z$1:
  00013	8d 4d d8	 lea	 ecx, DWORD PTR _strLogData$[ebp]
  00016	ff 25 00 00 00
	00		 jmp	 DWORD PTR __imp_??1?$CStringT@DV?$StrTraitMFC_DLL@DV?$ChTraitsCRT@D@ATL@@@@@ATL@@QAE@XZ
  0001c	cc		 int	 3
  0001d	cc		 int	 3
  0001e	cc		 int	 3
  0001f	cc		 int	 3
  00020	cc		 int	 3
__ehhandler$?InvokeAddInStr@CLogAddInImp@@MAEHPBD0@Z:
  00021	90		 npad	 1
  00022	90		 npad	 1
  00023	8b 54 24 08	 mov	 edx, DWORD PTR [esp+8]
  00027	8d 42 0c	 lea	 eax, DWORD PTR [edx+12]
  0002a	8b 4a d0	 mov	 ecx, DWORD PTR [edx-48]
  0002d	33 c8		 xor	 ecx, eax
  0002f	e8 00 00 00 00	 call	 @__security_check_cookie@4
  00034	8b 4a fc	 mov	 ecx, DWORD PTR [edx-4]
  00037	33 c8		 xor	 ecx, eax
  00039	e8 00 00 00 00	 call	 @__security_check_cookie@4
  0003e	b8 00 00 00 00	 mov	 eax, OFFSET __ehfuncinfo$?InvokeAddInStr@CLogAddInImp@@MAEHPBD0@Z
  00043	e9 00 00 00 00	 jmp	 ___CxxFrameHandler3
text$x	ENDS
?InvokeAddInStr@CLogAddInImp@@MAEHPBD0@Z ENDP		; CLogAddInImp::InvokeAddInStr
; Function compile flags: /Ogtp
; File D:\git\src\IBK\IBK_DRFN\ProjSrc\SrcChartEx\ChartOCX\AddInManager\ChartCommonAddIn\LogAddInImp.h
;	COMDAT ?QueryInterface@CLogAddInImp@@MAGJABU_GUID@@PAPAX@Z
_TEXT	SEGMENT
_this$ = 8						; size = 4
_iid$ = 12						; size = 4
_ppvObject$ = 16					; size = 4
?QueryInterface@CLogAddInImp@@MAGJABU_GUID@@PAPAX@Z PROC ; CLogAddInImp::QueryInterface, COMDAT

; 44   : 	_IWRAPPER_IUNKNOWN_INTERFACE()

  00000	b8 02 40 00 80	 mov	 eax, -2147467262	; 80004002H
  00005	c2 0c 00	 ret	 12			; 0000000cH
?QueryInterface@CLogAddInImp@@MAGJABU_GUID@@PAPAX@Z ENDP ; CLogAddInImp::QueryInterface
_TEXT	ENDS
; Function compile flags: /Ogtp
; File D:\git\src\IBK\IBK_DRFN\ProjSrc\SrcChartEx\ChartOCX\AddInManager\ChartCommonAddIn\LogAddInImp.h
;	COMDAT ?Release@CLogAddInImp@@MAGKXZ
_TEXT	SEGMENT
_this$ = 8						; size = 4
?Release@CLogAddInImp@@MAGKXZ PROC			; CLogAddInImp::Release, COMDAT

; 44   : 	_IWRAPPER_IUNKNOWN_INTERFACE()

  00000	55		 push	 ebp
  00001	8b ec		 mov	 ebp, esp
  00003	5d		 pop	 ebp
  00004	e9 00 00 00 00	 jmp	 ?Release@CIWUnknown@@MAGKXZ ; CIWUnknown::Release
?Release@CLogAddInImp@@MAGKXZ ENDP			; CLogAddInImp::Release
_TEXT	ENDS
; Function compile flags: /Ogtp
; File D:\git\src\IBK\IBK_DRFN\ProjSrc\SrcChartEx\ChartOCX\AddInManager\ChartCommonAddIn\LogAddInImp.h
;	COMDAT ?AddRef@CLogAddInImp@@MAGKXZ
_TEXT	SEGMENT
_this$ = 8						; size = 4
?AddRef@CLogAddInImp@@MAGKXZ PROC			; CLogAddInImp::AddRef, COMDAT

; 44   : 	_IWRAPPER_IUNKNOWN_INTERFACE()

  00000	55		 push	 ebp
  00001	8b ec		 mov	 ebp, esp
  00003	5d		 pop	 ebp
  00004	e9 00 00 00 00	 jmp	 ?AddRef@CIWUnknown@@MAGKXZ ; CIWUnknown::AddRef
?AddRef@CLogAddInImp@@MAGKXZ ENDP			; CLogAddInImp::AddRef
_TEXT	ENDS
; Function compile flags: /Ogtp
; File D:\git\src\IBK\IBK_DRFN\ProjSrc\SrcChartEx\ChartOCX\AddInManager\ChartCommonAddIn\LogAddInImp.cpp
;	COMDAT ?GetAddInCustomInterface@CLogAddInImp@@MAEPAUIUnknown@@XZ
_TEXT	SEGMENT
?GetAddInCustomInterface@CLogAddInImp@@MAEPAUIUnknown@@XZ PROC ; CLogAddInImp::GetAddInCustomInterface, COMDAT
; _this$ = ecx

; 78   : // (2006/1/23 - Seung-Won, Bae) Do not use it. Use AddIn Command!
; 79   : /*
; 80   : 	IUnknown *pIUnknown = ( IUnknown *)( IChartLogAddIn *)this;
; 81   : 	pIUnknown->AddRef();
; 82   : 	return pIUnknown;
; 83   : */
; 84   : 	return NULL;

  00000	33 c0		 xor	 eax, eax

; 85   : }

  00002	c3		 ret	 0
?GetAddInCustomInterface@CLogAddInImp@@MAEPAUIUnknown@@XZ ENDP ; CLogAddInImp::GetAddInCustomInterface
_TEXT	ENDS
; Function compile flags: /Ogtp
; File D:\git\src\IBK\IBK_DRFN\ProjSrc\SrcChartEx\ChartOCX\AddInManager\ChartCommonAddIn\LogAddInImp.h
;	COMDAT ?GetRegisteredEventMap@CLogAddInImp@@MBEPBW4EAddInEventType@IChartAddIn000000@@XZ
_TEXT	SEGMENT
?GetRegisteredEventMap@CLogAddInImp@@MBEPBW4EAddInEventType@IChartAddIn000000@@XZ PROC ; CLogAddInImp::GetRegisteredEventMap, COMDAT
; _this$ = ecx

; 29   : 	DECLARE_ADDIN_EVENT_MAP()

  00000	b8 00 00 00 00	 mov	 eax, OFFSET ?m_eRegisteredEventMap@CLogAddInImp@@1QBW4EAddInEventType@IChartAddIn000000@@B ; CLogAddInImp::m_eRegisteredEventMap
  00005	c3		 ret	 0
?GetRegisteredEventMap@CLogAddInImp@@MBEPBW4EAddInEventType@IChartAddIn000000@@XZ ENDP ; CLogAddInImp::GetRegisteredEventMap
_TEXT	ENDS
; Function compile flags: /Ogtp
; File D:\git\src\IBK\IBK_DRFN\ProjSrc\SrcChartEx\ChartOCX\AddInManager\ChartCommonAddIn\LogAddInImp.cpp
;	COMDAT ??1CLogAddInImp@@UAE@XZ
_TEXT	SEGMENT
__$EHRec$ = -12						; size = 12
??1CLogAddInImp@@UAE@XZ PROC				; CLogAddInImp::~CLogAddInImp, COMDAT
; _this$ = ecx

; 40   : {

  00000	55		 push	 ebp
  00001	8b ec		 mov	 ebp, esp
  00003	6a ff		 push	 -1
  00005	68 00 00 00 00	 push	 __ehhandler$??1CLogAddInImp@@UAE@XZ
  0000a	64 a1 00 00 00
	00		 mov	 eax, DWORD PTR fs:0
  00010	50		 push	 eax
  00011	56		 push	 esi
  00012	a1 00 00 00 00	 mov	 eax, DWORD PTR ___security_cookie
  00017	33 c5		 xor	 eax, ebp
  00019	50		 push	 eax
  0001a	8d 45 f4	 lea	 eax, DWORD PTR __$EHRec$[ebp]
  0001d	64 a3 00 00 00
	00		 mov	 DWORD PTR fs:0, eax
  00023	8b f1		 mov	 esi, ecx

; 41   : 	// (2006/1/23 - Seung-Won, Bae) Set Log Mode to OCX
; 42   : 	if( m_pIChartOCX) m_pIChartOCX->SetLoggingFlag( FALSE);

  00025	8b 4e 0c	 mov	 ecx, DWORD PTR [esi+12]
  00028	c7 06 00 00 00
	00		 mov	 DWORD PTR [esi], OFFSET ??_7CLogAddInImp@@6BCIWUnknown@@@
  0002e	c7 46 08 00 00
	00 00		 mov	 DWORD PTR [esi+8], OFFSET ??_7CLogAddInImp@@6BIChartAddIn000000@@@
  00035	85 c9		 test	 ecx, ecx
  00037	74 0a		 je	 SHORT $LN2@CLogAddInI
  00039	8b 01		 mov	 eax, DWORD PTR [ecx]
  0003b	6a 00		 push	 0
  0003d	ff 90 a0 01 00
	00		 call	 DWORD PTR [eax+416]
$LN2@CLogAddInI:

; 43   : 
; 44   : 	// (2005/9/2 - Seung-Won, Bae) Manage Logger
; 45   : 	if( m_pDumpLogger)

  00043	8b 4e 40	 mov	 ecx, DWORD PTR [esi+64]
  00046	85 c9		 test	 ecx, ecx
  00048	74 0e		 je	 SHORT $LN3@CLogAddInI

; 46   : 	{
; 47   : 		delete m_pDumpLogger;

  0004a	8b 01		 mov	 eax, DWORD PTR [ecx]
  0004c	6a 01		 push	 1
  0004e	ff 50 04	 call	 DWORD PTR [eax+4]

; 48   : 		m_pDumpLogger = NULL;

  00051	c7 46 40 00 00
	00 00		 mov	 DWORD PTR [esi+64], 0
$LN3@CLogAddInI:

; 49   : 	}
; 50   : }

  00058	8d 4e 44	 lea	 ecx, DWORD PTR [esi+68]
  0005b	ff 15 00 00 00
	00		 call	 DWORD PTR __imp_??1?$CStringT@DV?$StrTraitMFC_DLL@DV?$ChTraitsCRT@D@ATL@@@@@ATL@@QAE@XZ
  00061	8b ce		 mov	 ecx, esi
  00063	e8 00 00 00 00	 call	 ??1CChartAddInBase000000@@MAE@XZ ; CChartAddInBase000000::~CChartAddInBase000000
  00068	8b 4d f4	 mov	 ecx, DWORD PTR __$EHRec$[ebp]
  0006b	64 89 0d 00 00
	00 00		 mov	 DWORD PTR fs:0, ecx
  00072	59		 pop	 ecx
  00073	5e		 pop	 esi
  00074	8b e5		 mov	 esp, ebp
  00076	5d		 pop	 ebp
  00077	c3		 ret	 0
  00078	cc		 int	 3
  00079	cc		 int	 3
  0007a	cc		 int	 3
  0007b	cc		 int	 3
  0007c	cc		 int	 3
_TEXT	ENDS
;	COMDAT text$x
text$x	SEGMENT
__ehhandler$??1CLogAddInImp@@UAE@XZ:
  00000	90		 npad	 1
  00001	90		 npad	 1
  00002	8b 54 24 08	 mov	 edx, DWORD PTR [esp+8]
  00006	8d 42 0c	 lea	 eax, DWORD PTR [edx+12]
  00009	8b 4a f8	 mov	 ecx, DWORD PTR [edx-8]
  0000c	33 c8		 xor	 ecx, eax
  0000e	e8 00 00 00 00	 call	 @__security_check_cookie@4
  00013	b8 00 00 00 00	 mov	 eax, OFFSET __ehfuncinfo$??1CLogAddInImp@@UAE@XZ
  00018	e9 00 00 00 00	 jmp	 ___CxxFrameHandler3
text$x	ENDS
??1CLogAddInImp@@UAE@XZ ENDP				; CLogAddInImp::~CLogAddInImp
; Function compile flags: /Ogtp
; File D:\git\src\IBK\IBK_DRFN\ProjSrc\SrcChartEx\ChartOCX\AddInManager\ChartCommonAddIn\LogAddInImp.cpp
;	COMDAT ??0CLogAddInImp@@QAE@PAUIChartOCX000000@@PAUIAddInDllBase@@@Z
_TEXT	SEGMENT
_this$ = -4						; size = 4
_p_pIChartOCX$ = 8					; size = 4
_p_pIAddInDllBase$ = 12					; size = 4
??0CLogAddInImp@@QAE@PAUIChartOCX000000@@PAUIAddInDllBase@@@Z PROC ; CLogAddInImp::CLogAddInImp, COMDAT
; _this$ = ecx

; 34   : {

  00000	55		 push	 ebp
  00001	8b ec		 mov	 ebp, esp
  00003	51		 push	 ecx
  00004	56		 push	 esi
  00005	ff 75 0c	 push	 DWORD PTR _p_pIAddInDllBase$[ebp]
  00008	8b f1		 mov	 esi, ecx
  0000a	ff 75 08	 push	 DWORD PTR _p_pIChartOCX$[ebp]
  0000d	89 75 fc	 mov	 DWORD PTR _this$[ebp], esi
  00010	e8 00 00 00 00	 call	 ??0CChartAddInBase000000@@IAE@PAUIChartOCX000000@@PAUIAddInDllBase@@@Z ; CChartAddInBase000000::CChartAddInBase000000
  00015	8d 4e 44	 lea	 ecx, DWORD PTR [esi+68]
  00018	c7 06 00 00 00
	00		 mov	 DWORD PTR [esi], OFFSET ??_7CLogAddInImp@@6BCIWUnknown@@@
  0001e	c7 46 08 00 00
	00 00		 mov	 DWORD PTR [esi+8], OFFSET ??_7CLogAddInImp@@6BIChartAddIn000000@@@
  00025	ff 15 00 00 00
	00		 call	 DWORD PTR __imp_??0?$CStringT@DV?$StrTraitMFC_DLL@DV?$ChTraitsCRT@D@ATL@@@@@ATL@@QAE@XZ

; 35   : 	// (2005/9/2 - Seung-Won, Bae) Manage Logger
; 36   : 	m_pDumpLogger = NULL;

  0002b	c7 46 40 00 00
	00 00		 mov	 DWORD PTR [esi+64], 0

; 37   : }

  00032	8b c6		 mov	 eax, esi
  00034	5e		 pop	 esi
  00035	8b e5		 mov	 esp, ebp
  00037	5d		 pop	 ebp
  00038	c2 08 00	 ret	 8
??0CLogAddInImp@@QAE@PAUIChartOCX000000@@PAUIAddInDllBase@@@Z ENDP ; CLogAddInImp::CLogAddInImp
_TEXT	ENDS
; Function compile flags: /Ogtp
; File D:\git\src\IBK\IBK_DRFN\ProjSrc\SrcChartEx\ChartOCX\AddInManager\Include_Addin\I000000\_ChartAddInBase.h
;	COMDAT ?OnRButtonDblClk@CChartAddInBase000000@@MAEHPAUHDC__@@IAAUtagPOINT@@K@Z
_TEXT	SEGMENT
_p_hDC$ = 8						; size = 4
_nFlags$ = 12						; size = 4
_point$ = 16						; size = 4
_p_dwMouseActionID$ = 20				; size = 4
?OnRButtonDblClk@CChartAddInBase000000@@MAEHPAUHDC__@@IAAUtagPOINT@@K@Z PROC ; CChartAddInBase000000::OnRButtonDblClk, COMDAT
; _this$ = ecx

; 221  : 	virtual BOOL	OnRButtonDblClk(	HDC p_hDC, UINT nFlags, POINT &point, const DWORD p_dwMouseActionID)									{	return FALSE;	}

  00000	33 c0		 xor	 eax, eax
  00002	c2 10 00	 ret	 16			; 00000010H
?OnRButtonDblClk@CChartAddInBase000000@@MAEHPAUHDC__@@IAAUtagPOINT@@K@Z ENDP ; CChartAddInBase000000::OnRButtonDblClk
_TEXT	ENDS
; Function compile flags: /Ogtp
; File D:\git\src\IBK\IBK_DRFN\ProjSrc\SrcChartEx\ChartOCX\AddInManager\Include_Addin\I000000\_ChartAddInBase.h
;	COMDAT ?OnRButtonUp@CChartAddInBase000000@@MAEHPAUHDC__@@IAAUtagPOINT@@K@Z
_TEXT	SEGMENT
_p_hDC$ = 8						; size = 4
_nFlags$ = 12						; size = 4
_point$ = 16						; size = 4
_p_dwMouseActionID$ = 20				; size = 4
?OnRButtonUp@CChartAddInBase000000@@MAEHPAUHDC__@@IAAUtagPOINT@@K@Z PROC ; CChartAddInBase000000::OnRButtonUp, COMDAT
; _this$ = ecx

; 220  : 	virtual BOOL	OnRButtonUp(		HDC p_hDC, UINT nFlags, POINT &point, const DWORD p_dwMouseActionID)									{	return FALSE;	}

  00000	33 c0		 xor	 eax, eax
  00002	c2 10 00	 ret	 16			; 00000010H
?OnRButtonUp@CChartAddInBase000000@@MAEHPAUHDC__@@IAAUtagPOINT@@K@Z ENDP ; CChartAddInBase000000::OnRButtonUp
_TEXT	ENDS
; Function compile flags: /Ogtp
; File D:\git\src\IBK\IBK_DRFN\ProjSrc\SrcChartEx\ChartOCX\AddInManager\Include_Addin\I000000\_ChartAddInBase.h
;	COMDAT ?OnRButtonDown@CChartAddInBase000000@@MAEHPAUHDC__@@IAAUtagPOINT@@K@Z
_TEXT	SEGMENT
_p_hDC$ = 8						; size = 4
_nFlags$ = 12						; size = 4
_point$ = 16						; size = 4
_p_dwMouseActionID$ = 20				; size = 4
?OnRButtonDown@CChartAddInBase000000@@MAEHPAUHDC__@@IAAUtagPOINT@@K@Z PROC ; CChartAddInBase000000::OnRButtonDown, COMDAT
; _this$ = ecx

; 219  : 	virtual BOOL	OnRButtonDown(		HDC p_hDC, UINT nFlags, POINT &point, const DWORD p_dwMouseActionID)									{	return FALSE;	}

  00000	33 c0		 xor	 eax, eax
  00002	c2 10 00	 ret	 16			; 00000010H
?OnRButtonDown@CChartAddInBase000000@@MAEHPAUHDC__@@IAAUtagPOINT@@K@Z ENDP ; CChartAddInBase000000::OnRButtonDown
_TEXT	ENDS
; Function compile flags: /Ogtp
; File D:\git\src\IBK\IBK_DRFN\ProjSrc\SrcChartEx\ChartOCX\AddInManager\Include_Addin\I000000\_ChartAddInBase.h
;	COMDAT ?OnLButtonUp@CChartAddInBase000000@@MAEHPAUHDC__@@IAAUtagPOINT@@K@Z
_TEXT	SEGMENT
_p_hDC$ = 8						; size = 4
_nFlags$ = 12						; size = 4
_point$ = 16						; size = 4
_p_dwMouseActionID$ = 20				; size = 4
?OnLButtonUp@CChartAddInBase000000@@MAEHPAUHDC__@@IAAUtagPOINT@@K@Z PROC ; CChartAddInBase000000::OnLButtonUp, COMDAT
; _this$ = ecx

; 217  : 	virtual BOOL	OnLButtonUp(		HDC p_hDC, UINT nFlags, POINT &point, const DWORD p_dwMouseActionID)									{	return FALSE;	}

  00000	33 c0		 xor	 eax, eax
  00002	c2 10 00	 ret	 16			; 00000010H
?OnLButtonUp@CChartAddInBase000000@@MAEHPAUHDC__@@IAAUtagPOINT@@K@Z ENDP ; CChartAddInBase000000::OnLButtonUp
_TEXT	ENDS
; Function compile flags: /Ogtp
; File D:\git\src\IBK\IBK_DRFN\ProjSrc\SrcChartEx\ChartOCX\AddInManager\Include_Addin\I000000\_ChartAddInBase.h
;	COMDAT ?OnLButtonDown@CChartAddInBase000000@@MAEHPAUHDC__@@IAAUtagPOINT@@K@Z
_TEXT	SEGMENT
_p_hDC$ = 8						; size = 4
_nFlags$ = 12						; size = 4
_point$ = 16						; size = 4
_p_dwMouseActionID$ = 20				; size = 4
?OnLButtonDown@CChartAddInBase000000@@MAEHPAUHDC__@@IAAUtagPOINT@@K@Z PROC ; CChartAddInBase000000::OnLButtonDown, COMDAT
; _this$ = ecx

; 216  : 	virtual BOOL	OnLButtonDown(		HDC p_hDC, UINT nFlags, POINT &point, const DWORD p_dwMouseActionID)									{	return FALSE;	}

  00000	33 c0		 xor	 eax, eax
  00002	c2 10 00	 ret	 16			; 00000010H
?OnLButtonDown@CChartAddInBase000000@@MAEHPAUHDC__@@IAAUtagPOINT@@K@Z ENDP ; CChartAddInBase000000::OnLButtonDown
_TEXT	ENDS
; Function compile flags: /Ogtp
; File D:\git\src\IBK\IBK_DRFN\ProjSrc\SrcChartEx\ChartOCX\AddInManager\Include_Addin\I000000\_ChartAddInBase.h
;	COMDAT ?OnMouseMove@CChartAddInBase000000@@MAEHPAUHDC__@@IAAUtagPOINT@@KQAUHBITMAP__@@@Z
_TEXT	SEGMENT
_p_hDC$ = 8						; size = 4
_nFlags$ = 12						; size = 4
_point$ = 16						; size = 4
_p_dwMouseActionID$ = 20				; size = 4
_p_hbmpMainOSB$ = 24					; size = 4
?OnMouseMove@CChartAddInBase000000@@MAEHPAUHDC__@@IAAUtagPOINT@@KQAUHBITMAP__@@@Z PROC ; CChartAddInBase000000::OnMouseMove, COMDAT
; _this$ = ecx

; 215  : 	virtual BOOL	OnMouseMove(		HDC p_hDC, UINT nFlags, POINT &point, const DWORD p_dwMouseActionID, const HBITMAP p_hbmpMainOSB)		{	return FALSE;	}	// (2006/11/5 - Seung-Won, Bae) Support MainOSB

  00000	33 c0		 xor	 eax, eax
  00002	c2 14 00	 ret	 20			; 00000014H
?OnMouseMove@CChartAddInBase000000@@MAEHPAUHDC__@@IAAUtagPOINT@@KQAUHBITMAP__@@@Z ENDP ; CChartAddInBase000000::OnMouseMove
_TEXT	ENDS
; Function compile flags: /Ogtp
; File D:\git\src\IBK\IBK_DRFN\ProjSrc\SrcChartEx\ChartOCX\AddInManager\Include_Addin\I000000\_ChartAddInBase.h
;	COMDAT ?OnMouseWheel@CChartAddInBase000000@@MAEHIFUtagPOINT@@K@Z
_TEXT	SEGMENT
_nFlags$ = 8						; size = 4
_zDelta$ = 12						; size = 2
_pt$ = 16						; size = 8
_p_dwMouseActionID$ = 24				; size = 4
?OnMouseWheel@CChartAddInBase000000@@MAEHIFUtagPOINT@@K@Z PROC ; CChartAddInBase000000::OnMouseWheel, COMDAT
; _this$ = ecx

; 214  : 	virtual BOOL	OnMouseWheel(		UINT nFlags, short zDelta, POINT pt, const DWORD p_dwMouseActionID)										{	return FALSE;	}

  00000	33 c0		 xor	 eax, eax
  00002	c2 14 00	 ret	 20			; 00000014H
?OnMouseWheel@CChartAddInBase000000@@MAEHIFUtagPOINT@@K@Z ENDP ; CChartAddInBase000000::OnMouseWheel
_TEXT	ENDS
; Function compile flags: /Ogtp
; File D:\git\src\IBK\IBK_DRFN\ProjSrc\SrcChartEx\ChartOCX\AddInManager\Include_Addin\I000000\_ChartAddInBase.h
;	COMDAT ?OnKeyUp@CChartAddInBase000000@@MAEHIII@Z
_TEXT	SEGMENT
_nChar$ = 8						; size = 4
_nRepCnt$ = 12						; size = 4
_nFlags$ = 16						; size = 4
?OnKeyUp@CChartAddInBase000000@@MAEHIII@Z PROC		; CChartAddInBase000000::OnKeyUp, COMDAT
; _this$ = ecx

; 213  : 	virtual BOOL	OnKeyUp(			UINT nChar, UINT nRepCnt, UINT nFlags)																	{	return FALSE;	}

  00000	33 c0		 xor	 eax, eax
  00002	c2 0c 00	 ret	 12			; 0000000cH
?OnKeyUp@CChartAddInBase000000@@MAEHIII@Z ENDP		; CChartAddInBase000000::OnKeyUp
_TEXT	ENDS
; Function compile flags: /Ogtp
; File D:\git\src\IBK\IBK_DRFN\ProjSrc\SrcChartEx\ChartOCX\AddInManager\Include_Addin\I000000\_ChartAddInBase.h
;	COMDAT ?OnAddInToolCommand@CChartAddInBase000000@@MAEHAAJW4EAICommandType@@JJ@Z
_TEXT	SEGMENT
_p_lResult$ = 8						; size = 4
_p_eCommandID$ = 12					; size = 4
_p_lParam1$ = 16					; size = 4
_p_lParam2$ = 20					; size = 4
?OnAddInToolCommand@CChartAddInBase000000@@MAEHAAJW4EAICommandType@@JJ@Z PROC ; CChartAddInBase000000::OnAddInToolCommand, COMDAT
; _this$ = ecx

; 210  : 	virtual BOOL	OnAddInToolCommand(	long &p_lResult, const EAICommandType p_eCommandID, const long p_lParam1, const long p_lParam2)			{	return FALSE;	}

  00000	33 c0		 xor	 eax, eax
  00002	c2 10 00	 ret	 16			; 00000010H
?OnAddInToolCommand@CChartAddInBase000000@@MAEHAAJW4EAICommandType@@JJ@Z ENDP ; CChartAddInBase000000::OnAddInToolCommand
_TEXT	ENDS
; Function compile flags: /Ogtp
; File D:\git\src\IBK\IBK_DRFN\ProjSrc\SrcChartEx\ChartOCX\AddInManager\Include_Addin\I000000\_ChartAddInBase.h
;	COMDAT ?OnAddInToolCommand@CChartAddInBase000000@@MAEHAAJW4EAICommandType@@J@Z
_TEXT	SEGMENT
_p_lResult$ = 8						; size = 4
_p_eCommandID$ = 12					; size = 4
_p_lParam$ = 16						; size = 4
?OnAddInToolCommand@CChartAddInBase000000@@MAEHAAJW4EAICommandType@@J@Z PROC ; CChartAddInBase000000::OnAddInToolCommand, COMDAT
; _this$ = ecx

; 209  : 	virtual BOOL	OnAddInToolCommand(	long &p_lResult, const EAICommandType p_eCommandID, const long p_lParam)								{	return FALSE;	}

  00000	33 c0		 xor	 eax, eax
  00002	c2 0c 00	 ret	 12			; 0000000cH
?OnAddInToolCommand@CChartAddInBase000000@@MAEHAAJW4EAICommandType@@J@Z ENDP ; CChartAddInBase000000::OnAddInToolCommand
_TEXT	ENDS
; Function compile flags: /Ogtp
; File D:\git\src\IBK\IBK_DRFN\ProjSrc\SrcChartEx\ChartOCX\AddInManager\Include_Addin\I000000\_ChartAddInBase.h
;	COMDAT ?OnAddInToolCommand@CChartAddInBase000000@@MAEHAAJW4EAICommandType@@PBDPAVCObject@@@Z
_TEXT	SEGMENT
_p_lResult$ = 8						; size = 4
_p_eCommandID$ = 12					; size = 4
_p_szParam$ = 16					; size = 4
_p_pParam$ = 20						; size = 4
?OnAddInToolCommand@CChartAddInBase000000@@MAEHAAJW4EAICommandType@@PBDPAVCObject@@@Z PROC ; CChartAddInBase000000::OnAddInToolCommand, COMDAT
; _this$ = ecx

; 208  : 	virtual BOOL	OnAddInToolCommand(	long &p_lResult, const EAICommandType p_eCommandID, const char *p_szParam, CObject *p_pParam)			{	return FALSE;	}

  00000	33 c0		 xor	 eax, eax
  00002	c2 10 00	 ret	 16			; 00000010H
?OnAddInToolCommand@CChartAddInBase000000@@MAEHAAJW4EAICommandType@@PBDPAVCObject@@@Z ENDP ; CChartAddInBase000000::OnAddInToolCommand
_TEXT	ENDS
; Function compile flags: /Ogtp
; File D:\git\src\IBK\IBK_DRFN\ProjSrc\SrcChartEx\ChartOCX\AddInManager\Include_Addin\I000000\_ChartAddInBase.h
;	COMDAT ?OnAddInToolCommand@CChartAddInBase000000@@MAEHAAJW4EAICommandType@@PBD@Z
_TEXT	SEGMENT
_p_lResult$ = 8						; size = 4
_p_eCommandID$ = 12					; size = 4
_p_szParam$ = 16					; size = 4
?OnAddInToolCommand@CChartAddInBase000000@@MAEHAAJW4EAICommandType@@PBD@Z PROC ; CChartAddInBase000000::OnAddInToolCommand, COMDAT
; _this$ = ecx

; 207  : 	virtual BOOL	OnAddInToolCommand(	long &p_lResult, const EAICommandType p_eCommandID, const char *p_szParam)								{	return FALSE;	}

  00000	33 c0		 xor	 eax, eax
  00002	c2 0c 00	 ret	 12			; 0000000cH
?OnAddInToolCommand@CChartAddInBase000000@@MAEHAAJW4EAICommandType@@PBD@Z ENDP ; CChartAddInBase000000::OnAddInToolCommand
_TEXT	ENDS
; Function compile flags: /Ogtp
; File D:\git\src\IBK\IBK_DRFN\ProjSrc\SrcChartEx\ChartOCX\AddInManager\Include_Addin\I000000\_ChartAddInBase.h
;	COMDAT ?OnAddInToolCommand@CChartAddInBase000000@@MAEHAAJW4EAICommandType@@PAUIGraphInfo000000@@@Z
_TEXT	SEGMENT
_p_lResult$ = 8						; size = 4
_p_eCommandID$ = 12					; size = 4
_p_pIGraphInfo$ = 16					; size = 4
?OnAddInToolCommand@CChartAddInBase000000@@MAEHAAJW4EAICommandType@@PAUIGraphInfo000000@@@Z PROC ; CChartAddInBase000000::OnAddInToolCommand, COMDAT
; _this$ = ecx

; 206  : 	virtual BOOL	OnAddInToolCommand(	long &p_lResult, const EAICommandType p_eCommandID, IGraphInfo *p_pIGraphInfo)							{	return FALSE;	}

  00000	33 c0		 xor	 eax, eax
  00002	c2 0c 00	 ret	 12			; 0000000cH
?OnAddInToolCommand@CChartAddInBase000000@@MAEHAAJW4EAICommandType@@PAUIGraphInfo000000@@@Z ENDP ; CChartAddInBase000000::OnAddInToolCommand
_TEXT	ENDS
; Function compile flags: /Ogtp
; File D:\git\src\IBK\IBK_DRFN\ProjSrc\SrcChartEx\ChartOCX\AddInManager\Include_Addin\I000000\_ChartAddInBase.h
;	COMDAT ?OnAddInToolCommand@CChartAddInBase000000@@MAEHAAJW4EAICommandType@@@Z
_TEXT	SEGMENT
_p_lResult$ = 8						; size = 4
_p_eCommandID$ = 12					; size = 4
?OnAddInToolCommand@CChartAddInBase000000@@MAEHAAJW4EAICommandType@@@Z PROC ; CChartAddInBase000000::OnAddInToolCommand, COMDAT
; _this$ = ecx

; 205  : 	virtual BOOL	OnAddInToolCommand(	long &p_lResult, const EAICommandType p_eCommandID)														{	return FALSE;	}

  00000	33 c0		 xor	 eax, eax
  00002	c2 08 00	 ret	 8
?OnAddInToolCommand@CChartAddInBase000000@@MAEHAAJW4EAICommandType@@@Z ENDP ; CChartAddInBase000000::OnAddInToolCommand
_TEXT	ENDS
; Function compile flags: /Ogtp
; File D:\git\src\IBK\IBK_DRFN\ProjSrc\SrcChartEx\ChartOCX\AddInManager\Include_Addin\I000000\_ChartAddInBase.h
;	COMDAT ?OnAddInToolCommand@CChartAddInBase000000@@MAEHW4EAICommandType@@JJJJJJJJJ@Z
_TEXT	SEGMENT
_p_eCommandID$ = 8					; size = 4
_p_lParam1$ = 12					; size = 4
_p_lParam2$ = 16					; size = 4
_p_lParam3$ = 20					; size = 4
_p_lParam4$ = 24					; size = 4
_p_lParam5$ = 28					; size = 4
_p_lParam6$ = 32					; size = 4
_p_lParam7$ = 36					; size = 4
_p_lParam8$ = 40					; size = 4
_p_lParam9$ = 44					; size = 4
?OnAddInToolCommand@CChartAddInBase000000@@MAEHW4EAICommandType@@JJJJJJJJJ@Z PROC ; CChartAddInBase000000::OnAddInToolCommand, COMDAT
; _this$ = ecx

; 204  : 	virtual BOOL	OnAddInToolCommand(	const EAICommandType p_eCommandID, const long p_lParam1, const long p_lParam2, const long p_lParam3, const long p_lParam4, const long p_lParam5, const long p_lParam6, const long p_lParam7, const long p_lParam8, const long p_lParam9)	{	return FALSE;	}

  00000	33 c0		 xor	 eax, eax
  00002	c2 28 00	 ret	 40			; 00000028H
?OnAddInToolCommand@CChartAddInBase000000@@MAEHW4EAICommandType@@JJJJJJJJJ@Z ENDP ; CChartAddInBase000000::OnAddInToolCommand
_TEXT	ENDS
; Function compile flags: /Ogtp
; File D:\git\src\IBK\IBK_DRFN\ProjSrc\SrcChartEx\ChartOCX\AddInManager\Include_Addin\I000000\_ChartAddInBase.h
;	COMDAT ?OnAddInToolCommand@CChartAddInBase000000@@MAEHW4EAICommandType@@JJ@Z
_TEXT	SEGMENT
_p_eCommandID$ = 8					; size = 4
_p_lParam1$ = 12					; size = 4
_p_lParam2$ = 16					; size = 4
?OnAddInToolCommand@CChartAddInBase000000@@MAEHW4EAICommandType@@JJ@Z PROC ; CChartAddInBase000000::OnAddInToolCommand, COMDAT
; _this$ = ecx

; 203  : 	virtual BOOL	OnAddInToolCommand(	const EAICommandType p_eCommandID, const long p_lParam1, const long p_lParam2)							{	return FALSE;	}

  00000	33 c0		 xor	 eax, eax
  00002	c2 0c 00	 ret	 12			; 0000000cH
?OnAddInToolCommand@CChartAddInBase000000@@MAEHW4EAICommandType@@JJ@Z ENDP ; CChartAddInBase000000::OnAddInToolCommand
_TEXT	ENDS
; Function compile flags: /Ogtp
; File D:\git\src\IBK\IBK_DRFN\ProjSrc\SrcChartEx\ChartOCX\AddInManager\Include_Addin\I000000\_ChartAddInBase.h
;	COMDAT ?OnAddInToolCommand@CChartAddInBase000000@@MAEHW4EAICommandType@@JPBD@Z
_TEXT	SEGMENT
_p_eCommandID$ = 8					; size = 4
_p_lParam$ = 12						; size = 4
_p_szParam$ = 16					; size = 4
?OnAddInToolCommand@CChartAddInBase000000@@MAEHW4EAICommandType@@JPBD@Z PROC ; CChartAddInBase000000::OnAddInToolCommand, COMDAT
; _this$ = ecx

; 201  : 	virtual BOOL	OnAddInToolCommand( const EAICommandType p_eCommandID, const long p_lParam, const char *p_szParam)							{	return FALSE;	}

  00000	33 c0		 xor	 eax, eax
  00002	c2 0c 00	 ret	 12			; 0000000cH
?OnAddInToolCommand@CChartAddInBase000000@@MAEHW4EAICommandType@@JPBD@Z ENDP ; CChartAddInBase000000::OnAddInToolCommand
_TEXT	ENDS
; Function compile flags: /Ogtp
; File D:\git\src\IBK\IBK_DRFN\ProjSrc\SrcChartEx\ChartOCX\AddInManager\Include_Addin\I000000\_ChartAddInBase.h
;	COMDAT ?OnAddInToolCommand@CChartAddInBase000000@@MAEHW4EAICommandType@@J@Z
_TEXT	SEGMENT
_p_eCommandID$ = 8					; size = 4
_p_lParam$ = 12						; size = 4
?OnAddInToolCommand@CChartAddInBase000000@@MAEHW4EAICommandType@@J@Z PROC ; CChartAddInBase000000::OnAddInToolCommand, COMDAT
; _this$ = ecx

; 200  : 	virtual BOOL	OnAddInToolCommand(	const EAICommandType p_eCommandID, const long p_lParam)													{	return FALSE;	}

  00000	33 c0		 xor	 eax, eax
  00002	c2 08 00	 ret	 8
?OnAddInToolCommand@CChartAddInBase000000@@MAEHW4EAICommandType@@J@Z ENDP ; CChartAddInBase000000::OnAddInToolCommand
_TEXT	ENDS
; Function compile flags: /Ogtp
; File D:\git\src\IBK\IBK_DRFN\ProjSrc\SrcChartEx\ChartOCX\AddInManager\Include_Addin\I000000\_ChartAddInBase.h
;	COMDAT ?OnAddInToolCommand@CChartAddInBase000000@@MAEHW4EAICommandType@@PBUIAddInDllBase@@@Z
_TEXT	SEGMENT
_p_eCommandID$ = 8					; size = 4
_p_pParam$ = 12						; size = 4
?OnAddInToolCommand@CChartAddInBase000000@@MAEHW4EAICommandType@@PBUIAddInDllBase@@@Z PROC ; CChartAddInBase000000::OnAddInToolCommand, COMDAT
; _this$ = ecx

; 199  : 	virtual BOOL	OnAddInToolCommand(	const EAICommandType p_eCommandID, const IAddInDllBase *p_pParam)										{	return FALSE;	}

  00000	33 c0		 xor	 eax, eax
  00002	c2 08 00	 ret	 8
?OnAddInToolCommand@CChartAddInBase000000@@MAEHW4EAICommandType@@PBUIAddInDllBase@@@Z ENDP ; CChartAddInBase000000::OnAddInToolCommand
_TEXT	ENDS
; Function compile flags: /Ogtp
; File D:\git\src\IBK\IBK_DRFN\ProjSrc\SrcChartEx\ChartOCX\AddInManager\Include_Addin\I000000\_ChartAddInBase.h
;	COMDAT ?OnAddInToolCommand@CChartAddInBase000000@@MAEHW4EAICommandType@@PBD1@Z
_TEXT	SEGMENT
_p_eCommandID$ = 8					; size = 4
_p_szParam1$ = 12					; size = 4
_p_szParam2$ = 16					; size = 4
?OnAddInToolCommand@CChartAddInBase000000@@MAEHW4EAICommandType@@PBD1@Z PROC ; CChartAddInBase000000::OnAddInToolCommand, COMDAT
; _this$ = ecx

; 197  : 	virtual BOOL	OnAddInToolCommand(	const EAICommandType p_eCommandID, const char *p_szParam1, const char *p_szParam2)						{	return FALSE;	}

  00000	33 c0		 xor	 eax, eax
  00002	c2 0c 00	 ret	 12			; 0000000cH
?OnAddInToolCommand@CChartAddInBase000000@@MAEHW4EAICommandType@@PBD1@Z ENDP ; CChartAddInBase000000::OnAddInToolCommand
_TEXT	ENDS
; Function compile flags: /Ogtp
; File D:\git\src\IBK\IBK_DRFN\ProjSrc\SrcChartEx\ChartOCX\AddInManager\Include_Addin\I000000\_ChartAddInBase.h
;	COMDAT ?OnAddInToolCommand@CChartAddInBase000000@@MAEHW4EAICommandType@@PAUHDC__@@IAAUtagPOINT@@K@Z
_TEXT	SEGMENT
_p_eCommandID$ = 8					; size = 4
_p_hDC$ = 12						; size = 4
_nFlags$ = 16						; size = 4
_point$ = 20						; size = 4
_p_dwMouseActionID$ = 24				; size = 4
?OnAddInToolCommand@CChartAddInBase000000@@MAEHW4EAICommandType@@PAUHDC__@@IAAUtagPOINT@@K@Z PROC ; CChartAddInBase000000::OnAddInToolCommand, COMDAT
; _this$ = ecx

; 195  : 	virtual BOOL	OnAddInToolCommand(	const EAICommandType p_eCommandID, HDC p_hDC, UINT nFlags, POINT &point, const DWORD p_dwMouseActionID)	{	return FALSE;	}

  00000	33 c0		 xor	 eax, eax
  00002	c2 14 00	 ret	 20			; 00000014H
?OnAddInToolCommand@CChartAddInBase000000@@MAEHW4EAICommandType@@PAUHDC__@@IAAUtagPOINT@@K@Z ENDP ; CChartAddInBase000000::OnAddInToolCommand
_TEXT	ENDS
; Function compile flags: /Ogtp
; File D:\git\src\IBK\IBK_DRFN\ProjSrc\SrcChartEx\ChartOCX\AddInManager\Include_Addin\I000000\_ChartAddInBase.h
;	COMDAT ?OnAddInToolCommand@CChartAddInBase000000@@MAEHW4EAICommandType@@@Z
_TEXT	SEGMENT
_p_eCommandID$ = 8					; size = 4
?OnAddInToolCommand@CChartAddInBase000000@@MAEHW4EAICommandType@@@Z PROC ; CChartAddInBase000000::OnAddInToolCommand, COMDAT
; _this$ = ecx

; 194  : 	virtual BOOL	OnAddInToolCommand(	const EAICommandType p_eCommandID)																		{	return FALSE;	}

  00000	33 c0		 xor	 eax, eax
  00002	c2 04 00	 ret	 4
?OnAddInToolCommand@CChartAddInBase000000@@MAEHW4EAICommandType@@@Z ENDP ; CChartAddInBase000000::OnAddInToolCommand
_TEXT	ENDS
; Function compile flags: /Ogtp
; File D:\git\src\IBK\IBK_DRFN\ProjSrc\SrcChartEx\ChartOCX\AddInManager\Include_Addin\I000000\_ChartAddInBase.h
;	COMDAT ?OnAddInMsg@CChartAddInBase000000@@MAEHPBDJ@Z
_TEXT	SEGMENT
_p_szAddInItemName$ = 8					; size = 4
_p_lParam$ = 12						; size = 4
?OnAddInMsg@CChartAddInBase000000@@MAEHPBDJ@Z PROC	; CChartAddInBase000000::OnAddInMsg, COMDAT
; _this$ = ecx

; 193  : 	virtual BOOL	OnAddInMsg(			const char *p_szAddInItemName, const long p_lParam)														{	return FALSE;	}

  00000	33 c0		 xor	 eax, eax
  00002	c2 08 00	 ret	 8
?OnAddInMsg@CChartAddInBase000000@@MAEHPBDJ@Z ENDP	; CChartAddInBase000000::OnAddInMsg
_TEXT	ENDS
; Function compile flags: /Ogtp
; File D:\git\src\IBK\IBK_DRFN\ProjSrc\SrcChartEx\ChartOCX\AddInManager\Include_Addin\I000000\_ChartAddInBase.h
;	COMDAT ?OnCmdMsg@CChartAddInBase000000@@MAEHIHPAUICmdUI000000@@@Z
_TEXT	SEGMENT
_nID$ = 8						; size = 4
_nCode$ = 12						; size = 4
_p_pICmdUI$ = 16					; size = 4
?OnCmdMsg@CChartAddInBase000000@@MAEHIHPAUICmdUI000000@@@Z PROC ; CChartAddInBase000000::OnCmdMsg, COMDAT
; _this$ = ecx

; 192  : 	virtual BOOL	OnCmdMsg(			UINT nID, int nCode, ICmdUI *p_pICmdUI)																	{	return FALSE;	}

  00000	33 c0		 xor	 eax, eax
  00002	c2 0c 00	 ret	 12			; 0000000cH
?OnCmdMsg@CChartAddInBase000000@@MAEHIHPAUICmdUI000000@@@Z ENDP ; CChartAddInBase000000::OnCmdMsg
_TEXT	ENDS
; Function compile flags: /Ogtp
; File D:\git\src\IBK\IBK_DRFN\ProjSrc\SrcChartEx\ChartOCX\AddInManager\Include_Addin\I000000\_ChartAddInBase.h
;	COMDAT ?OnPreNMTRClock@CChartAddInBase000000@@MAEHAA_J@Z
_TEXT	SEGMENT
_p_nRealClockSecs$ = 8					; size = 4
?OnPreNMTRClock@CChartAddInBase000000@@MAEHAA_J@Z PROC	; CChartAddInBase000000::OnPreNMTRClock, COMDAT
; _this$ = ecx

; 186  : 	virtual BOOL	OnPreNMTRClock( __int64 &p_nRealClockSecs)																		{	return TRUE;	}

  00000	b8 01 00 00 00	 mov	 eax, 1
  00005	c2 04 00	 ret	 4
?OnPreNMTRClock@CChartAddInBase000000@@MAEHAA_J@Z ENDP	; CChartAddInBase000000::OnPreNMTRClock
_TEXT	ENDS
; Function compile flags: /Ogtp
; File D:\git\src\IBK\IBK_DRFN\ProjSrc\SrcChartEx\ChartOCX\AddInManager\Include_Addin\I000000\_ChartAddInBase.h
;	COMDAT ?OnPreRealPacketEnd@CChartAddInBase000000@@MAEHPBDH@Z
_TEXT	SEGMENT
_p_szRQ$ = 8						; size = 4
_p_bRealData$ = 12					; size = 4
?OnPreRealPacketEnd@CChartAddInBase000000@@MAEHPBDH@Z PROC ; CChartAddInBase000000::OnPreRealPacketEnd, COMDAT
; _this$ = ecx

; 185  : 	virtual BOOL	OnPreRealPacketEnd( const char *p_szRQ = NULL, BOOL p_bRealData = TRUE)											{	return TRUE;	}

  00000	b8 01 00 00 00	 mov	 eax, 1
  00005	c2 08 00	 ret	 8
?OnPreRealPacketEnd@CChartAddInBase000000@@MAEHPBDH@Z ENDP ; CChartAddInBase000000::OnPreRealPacketEnd
_TEXT	ENDS
; Function compile flags: /Ogtp
; File D:\git\src\IBK\IBK_DRFN\ProjSrc\SrcChartEx\ChartOCX\AddInManager\Include_Addin\I000000\_ChartAddInBase.h
;	COMDAT ?OnPreIndexedRealData@CChartAddInBase000000@@MAEHPBDHAANH@Z
_TEXT	SEGMENT
_p_szPacketName$ = 8					; size = 4
_p_nIndex$ = 12						; size = 4
_p_dData$ = 16						; size = 4
_p_bRealData$ = 20					; size = 4
?OnPreIndexedRealData@CChartAddInBase000000@@MAEHPBDHAANH@Z PROC ; CChartAddInBase000000::OnPreIndexedRealData, COMDAT
; _this$ = ecx

; 184  : 	virtual BOOL	OnPreIndexedRealData( const char *p_szPacketName, const int p_nIndex, double &p_dData, BOOL p_bRealData = TRUE)	{	return TRUE;	}

  00000	b8 01 00 00 00	 mov	 eax, 1
  00005	c2 10 00	 ret	 16			; 00000010H
?OnPreIndexedRealData@CChartAddInBase000000@@MAEHPBDHAANH@Z ENDP ; CChartAddInBase000000::OnPreIndexedRealData
_TEXT	ENDS
; Function compile flags: /Ogtp
; File D:\git\src\IBK\IBK_DRFN\ProjSrc\SrcChartEx\ChartOCX\AddInManager\Include_Addin\I000000\_ChartAddInBase.h
;	COMDAT ?OnPreRealData@CChartAddInBase000000@@MAEHPBDAAN0H@Z
_TEXT	SEGMENT
_p_szPacketName$ = 8					; size = 4
_p_dData$ = 12						; size = 4
_p_szRQ$ = 16						; size = 4
_p_bRealData$ = 20					; size = 4
?OnPreRealData@CChartAddInBase000000@@MAEHPBDAAN0H@Z PROC ; CChartAddInBase000000::OnPreRealData, COMDAT
; _this$ = ecx

; 183  : 	virtual BOOL	OnPreRealData( const char *p_szPacketName, double &p_dData, const char *p_szRQ = NULL, BOOL p_bRealData = TRUE)	{	return TRUE;	}

  00000	b8 01 00 00 00	 mov	 eax, 1
  00005	c2 10 00	 ret	 16			; 00000010H
?OnPreRealData@CChartAddInBase000000@@MAEHPBDAAN0H@Z ENDP ; CChartAddInBase000000::OnPreRealData
_TEXT	ENDS
; Function compile flags: /Ogtp
; File D:\git\src\IBK\IBK_DRFN\ProjSrc\SrcChartEx\ChartOCX\AddInManager\Include_Addin\I000000\_ChartAddInBase.h
;	COMDAT ?OnRecalculationComplete@CChartAddInBase000000@@MAEXXZ
_TEXT	SEGMENT
?OnRecalculationComplete@CChartAddInBase000000@@MAEXXZ PROC ; CChartAddInBase000000::OnRecalculationComplete, COMDAT
; _this$ = ecx

; 179  : 	virtual void	OnRecalculationComplete( void)						{}

  00000	c2 00 00	 ret	 0
?OnRecalculationComplete@CChartAddInBase000000@@MAEXXZ ENDP ; CChartAddInBase000000::OnRecalculationComplete
_TEXT	ENDS
; Function compile flags: /Ogtp
; File D:\git\src\IBK\IBK_DRFN\ProjSrc\SrcChartEx\ChartOCX\AddInManager\Include_Addin\I000000\_ChartAddInBase.h
;	COMDAT ?DrawCursor@CChartAddInBase000000@@MAE?AUtagRECT@@PAUHDC__@@@Z
_TEXT	SEGMENT
___$ReturnUdt$ = 8					; size = 4
_p_hDC$ = 12						; size = 4
?DrawCursor@CChartAddInBase000000@@MAE?AUtagRECT@@PAUHDC__@@@Z PROC ; CChartAddInBase000000::DrawCursor, COMDAT
; _this$ = ecx

; 177  : 	virtual RECT	DrawCursor( HDC p_hDC)								{	RECT rct = { 0, 0, 0, 0};	return rct;		}

  00000	55		 push	 ebp
  00001	8b ec		 mov	 ebp, esp
  00003	8b 45 08	 mov	 eax, DWORD PTR ___$ReturnUdt$[ebp]
  00006	c7 00 00 00 00
	00		 mov	 DWORD PTR [eax], 0
  0000c	c7 40 04 00 00
	00 00		 mov	 DWORD PTR [eax+4], 0
  00013	c7 40 08 00 00
	00 00		 mov	 DWORD PTR [eax+8], 0
  0001a	c7 40 0c 00 00
	00 00		 mov	 DWORD PTR [eax+12], 0
  00021	5d		 pop	 ebp
  00022	c2 08 00	 ret	 8
?DrawCursor@CChartAddInBase000000@@MAE?AUtagRECT@@PAUHDC__@@@Z ENDP ; CChartAddInBase000000::DrawCursor
_TEXT	ENDS
; Function compile flags: /Ogtp
; File D:\git\src\IBK\IBK_DRFN\ProjSrc\SrcChartEx\ChartOCX\AddInManager\Include_Addin\I000000\_ChartAddInBase.h
;	COMDAT ?OnSaveEnvironment@CChartAddInBase000000@@MAEXPAUIPropertyMap@@@Z
_TEXT	SEGMENT
_p_pIAddInEnvMap$ = 8					; size = 4
?OnSaveEnvironment@CChartAddInBase000000@@MAEXPAUIPropertyMap@@@Z PROC ; CChartAddInBase000000::OnSaveEnvironment, COMDAT
; _this$ = ecx

; 175  : 	virtual void	OnSaveEnvironment( IPropertyMap *p_pIAddInEnvMap)	{}

  00000	c2 04 00	 ret	 4
?OnSaveEnvironment@CChartAddInBase000000@@MAEXPAUIPropertyMap@@@Z ENDP ; CChartAddInBase000000::OnSaveEnvironment
_TEXT	ENDS
; Function compile flags: /Ogtp
; File D:\git\src\IBK\IBK_DRFN\ProjSrc\SrcChartEx\ChartOCX\AddInManager\Include_Addin\I000000\_ChartAddInBase.h
;	COMDAT ?OnLoadEnvironment@CChartAddInBase000000@@MAEXPAUIPropertyMap@@@Z
_TEXT	SEGMENT
_p_pIAddInEnvMap$ = 8					; size = 4
?OnLoadEnvironment@CChartAddInBase000000@@MAEXPAUIPropertyMap@@@Z PROC ; CChartAddInBase000000::OnLoadEnvironment, COMDAT
; _this$ = ecx

; 174  : 	virtual void	OnLoadEnvironment( IPropertyMap *p_pIAddInEnvMap)	{}

  00000	c2 04 00	 ret	 4
?OnLoadEnvironment@CChartAddInBase000000@@MAEXPAUIPropertyMap@@@Z ENDP ; CChartAddInBase000000::OnLoadEnvironment
_TEXT	ENDS
; Function compile flags: /Ogtp
; File D:\git\src\IBK\IBK_DRFN\ProjSrc\SrcChartEx\ChartOCX\AddInManager\Include_Addin\I000000\_ChartAddInBase.h
;	COMDAT ?OnToolCommand@CChartAddInBase000000@@MAEXHH@Z
_TEXT	SEGMENT
_p_nToolType$ = 8					; size = 4
_p_nCmdOption$ = 12					; size = 4
?OnToolCommand@CChartAddInBase000000@@MAEXHH@Z PROC	; CChartAddInBase000000::OnToolCommand, COMDAT
; _this$ = ecx

; 167  : 	virtual void	OnToolCommand( const int p_nToolType, const int p_nCmdOption)	{}

  00000	c2 08 00	 ret	 8
?OnToolCommand@CChartAddInBase000000@@MAEXHH@Z ENDP	; CChartAddInBase000000::OnToolCommand
_TEXT	ENDS
; Function compile flags: /Ogtp
; File D:\git\src\IBK\IBK_DRFN\ProjSrc\SrcChartEx\ChartOCX\AddInManager\Include_Addin\I000000\_ChartAddInBase.h
;	COMDAT ?OnBlockChanged@CChartAddInBase000000@@MAEXW4BLOCKBEHAVIOR@CBlockBaseData@@HHHH@Z
_TEXT	SEGMENT
_p_eChangeType$ = 8					; size = 4
_p_nSourceRow$ = 12					; size = 4
_p_nSourceColumn$ = 16					; size = 4
_p_nTargetRow$ = 20					; size = 4
_p_nTargetColumn$ = 24					; size = 4
?OnBlockChanged@CChartAddInBase000000@@MAEXW4BLOCKBEHAVIOR@CBlockBaseData@@HHHH@Z PROC ; CChartAddInBase000000::OnBlockChanged, COMDAT
; _this$ = ecx

; 165  : 	virtual void	OnBlockChanged( const CBlockBaseData::BLOCKBEHAVIOR p_eChangeType, const int p_nSourceRow, const int p_nSourceColumn, const int p_nTargetRow, const int p_nTargetColumn)	{}

  00000	c2 14 00	 ret	 20			; 00000014H
?OnBlockChanged@CChartAddInBase000000@@MAEXW4BLOCKBEHAVIOR@CBlockBaseData@@HHHH@Z ENDP ; CChartAddInBase000000::OnBlockChanged
_TEXT	ENDS
; Function compile flags: /Ogtp
; File D:\git\src\IBK\IBK_DRFN\ProjSrc\SrcChartEx\ChartOCX\AddInManager\Include_Addin\I000000\_ChartAddInBase.h
;	COMDAT ?OnPacketTruncated@CChartAddInBase000000@@MAEXH@Z
_TEXT	SEGMENT
_p_nDataCount$ = 8					; size = 4
?OnPacketTruncated@CChartAddInBase000000@@MAEXH@Z PROC	; CChartAddInBase000000::OnPacketTruncated, COMDAT
; _this$ = ecx

; 163  : 	virtual void	OnPacketTruncated( const int p_nDataCount)			{}

  00000	c2 04 00	 ret	 4
?OnPacketTruncated@CChartAddInBase000000@@MAEXH@Z ENDP	; CChartAddInBase000000::OnPacketTruncated
_TEXT	ENDS
; Function compile flags: /Ogtp
; File D:\git\src\IBK\IBK_DRFN\ProjSrc\SrcChartEx\ChartOCX\AddInManager\Include_Addin\I000000\_ChartAddInBase.h
;	COMDAT ?OnGraphDeleted@CChartAddInBase000000@@MAEXPBD0@Z
_TEXT	SEGMENT
_p_szGraphName$ = 8					; size = 4
_p_szIndicatorName$ = 12				; size = 4
?OnGraphDeleted@CChartAddInBase000000@@MAEXPBD0@Z PROC	; CChartAddInBase000000::OnGraphDeleted, COMDAT
; _this$ = ecx

; 161  : 	virtual void	OnGraphDeleted( const char *p_szGraphName, const char *p_szIndicatorName)			{}

  00000	c2 08 00	 ret	 8
?OnGraphDeleted@CChartAddInBase000000@@MAEXPBD0@Z ENDP	; CChartAddInBase000000::OnGraphDeleted
_TEXT	ENDS
; Function compile flags: /Ogtp
; File D:\git\src\IBK\IBK_DRFN\ProjSrc\SrcChartEx\ChartOCX\AddInManager\Include_Addin\I000000\_ChartAddInBase.h
;	COMDAT ?OnContextMenu@CChartAddInBase000000@@MAEXPAUHWND__@@AAUtagPOINT@@@Z
_TEXT	SEGMENT
_p_hWnd$ = 8						; size = 4
_p_pt$ = 12						; size = 4
?OnContextMenu@CChartAddInBase000000@@MAEXPAUHWND__@@AAUtagPOINT@@@Z PROC ; CChartAddInBase000000::OnContextMenu, COMDAT
; _this$ = ecx

; 159  : 	virtual void	OnContextMenu( HWND p_hWnd, POINT &p_pt)			{}

  00000	c2 08 00	 ret	 8
?OnContextMenu@CChartAddInBase000000@@MAEXPAUHWND__@@AAUtagPOINT@@@Z ENDP ; CChartAddInBase000000::OnContextMenu
_TEXT	ENDS
; Function compile flags: /Ogtp
; File D:\git\src\IBK\IBK_DRFN\ProjSrc\SrcChartEx\ChartOCX\AddInManager\Include_Addin\I000000\_ChartAddInBase.h
;	COMDAT ?OnManualRealData@CChartAddInBase000000@@MAEXPBDNH@Z
_TEXT	SEGMENT
_p_szPacketName$ = 8					; size = 4
_p_dData$ = 12						; size = 8
_p_nOption$ = 20					; size = 4
?OnManualRealData@CChartAddInBase000000@@MAEXPBDNH@Z PROC ; CChartAddInBase000000::OnManualRealData, COMDAT
; _this$ = ecx

; 157  : 	virtual void	OnManualRealData( const char *p_szPacketName, const double p_dData, const int p_nOption)	{}

  00000	c2 10 00	 ret	 16			; 00000010H
?OnManualRealData@CChartAddInBase000000@@MAEXPBDNH@Z ENDP ; CChartAddInBase000000::OnManualRealData
_TEXT	ENDS
; Function compile flags: /Ogtp
; File D:\git\src\IBK\IBK_DRFN\ProjSrc\SrcChartEx\ChartOCX\AddInManager\Include_Addin\I000000\_ChartAddInBase.h
;	COMDAT ?OnGraphAdded@CChartAddInBase000000@@MAEXPBD0@Z
_TEXT	SEGMENT
_p_szGraphName$ = 8					; size = 4
_p_szIndicatorName$ = 12				; size = 4
?OnGraphAdded@CChartAddInBase000000@@MAEXPBD0@Z PROC	; CChartAddInBase000000::OnGraphAdded, COMDAT
; _this$ = ecx

; 155  : 	virtual void	OnGraphAdded( const char *p_szGraphName, const char *p_szIndicatorName)			{}

  00000	c2 08 00	 ret	 8
?OnGraphAdded@CChartAddInBase000000@@MAEXPBD0@Z ENDP	; CChartAddInBase000000::OnGraphAdded
_TEXT	ENDS
; Function compile flags: /Ogtp
; File D:\git\src\IBK\IBK_DRFN\ProjSrc\SrcChartEx\ChartOCX\AddInManager\Include_Addin\I000000\_ChartAddInBase.h
;	COMDAT ?OnBlockRemoved@CChartAddInBase000000@@MAEXHH@Z
_TEXT	SEGMENT
_p_nRow$ = 8						; size = 4
_p_nColumn$ = 12					; size = 4
?OnBlockRemoved@CChartAddInBase000000@@MAEXHH@Z PROC	; CChartAddInBase000000::OnBlockRemoved, COMDAT
; _this$ = ecx

; 153  : 	virtual void	OnBlockRemoved( const int p_nRow, const int p_nColumn)	{}

  00000	c2 08 00	 ret	 8
?OnBlockRemoved@CChartAddInBase000000@@MAEXHH@Z ENDP	; CChartAddInBase000000::OnBlockRemoved
_TEXT	ENDS
; Function compile flags: /Ogtp
; File D:\git\src\IBK\IBK_DRFN\ProjSrc\SrcChartEx\ChartOCX\AddInManager\Include_Addin\I000000\_ChartAddInBase.h
;	COMDAT ?OnGraphDataChanged@CChartAddInBase000000@@MAEXXZ
_TEXT	SEGMENT
?OnGraphDataChanged@CChartAddInBase000000@@MAEXXZ PROC	; CChartAddInBase000000::OnGraphDataChanged, COMDAT
; _this$ = ecx

; 151  : 	virtual void	OnGraphDataChanged( void)							{}

  00000	c2 00 00	 ret	 0
?OnGraphDataChanged@CChartAddInBase000000@@MAEXXZ ENDP	; CChartAddInBase000000::OnGraphDataChanged
_TEXT	ENDS
; Function compile flags: /Ogtp
; File D:\git\src\IBK\IBK_DRFN\ProjSrc\SrcChartEx\ChartOCX\AddInManager\Include_Addin\I000000\_ChartAddInBase.h
;	COMDAT ?OnChartItemChanged@CChartAddInBase000000@@MAEXXZ
_TEXT	SEGMENT
?OnChartItemChanged@CChartAddInBase000000@@MAEXXZ PROC	; CChartAddInBase000000::OnChartItemChanged, COMDAT
; _this$ = ecx

; 149  : 	virtual void	OnChartItemChanged( void)							{}

  00000	c2 00 00	 ret	 0
?OnChartItemChanged@CChartAddInBase000000@@MAEXXZ ENDP	; CChartAddInBase000000::OnChartItemChanged
_TEXT	ENDS
; Function compile flags: /Ogtp
; File D:\git\src\IBK\IBK_DRFN\ProjSrc\SrcChartEx\ChartOCX\AddInManager\Include_Addin\I000000\_ChartAddInBase.h
;	COMDAT ?OnUserIndiatorConditionLoaded@CChartAddInBase000000@@MAEXXZ
_TEXT	SEGMENT
?OnUserIndiatorConditionLoaded@CChartAddInBase000000@@MAEXXZ PROC ; CChartAddInBase000000::OnUserIndiatorConditionLoaded, COMDAT
; _this$ = ecx

; 147  : 	virtual void	OnUserIndiatorConditionLoaded( void)				{}

  00000	c2 00 00	 ret	 0
?OnUserIndiatorConditionLoaded@CChartAddInBase000000@@MAEXXZ ENDP ; CChartAddInBase000000::OnUserIndiatorConditionLoaded
_TEXT	ENDS
; Function compile flags: /Ogtp
; File D:\git\src\IBK\IBK_DRFN\ProjSrc\SrcChartEx\ChartOCX\AddInManager\Include_Addin\I000000\_ChartAddInBase.h
;	COMDAT ?OnResetMainBlock@CChartAddInBase000000@@MAEXXZ
_TEXT	SEGMENT
?OnResetMainBlock@CChartAddInBase000000@@MAEXXZ PROC	; CChartAddInBase000000::OnResetMainBlock, COMDAT
; _this$ = ecx

; 145  : 	virtual void	OnResetMainBlock( void)								{}

  00000	c2 00 00	 ret	 0
?OnResetMainBlock@CChartAddInBase000000@@MAEXXZ ENDP	; CChartAddInBase000000::OnResetMainBlock
_TEXT	ENDS
; Function compile flags: /Ogtp
; File D:\git\src\IBK\IBK_DRFN\ProjSrc\SrcChartEx\ChartOCX\AddInManager\Include_Addin\I000000\_ChartAddInBase.h
;	COMDAT ?OnCaptureChanged@CChartAddInBase000000@@MAEXPAUHWND__@@QAUHBITMAP__@@@Z
_TEXT	SEGMENT
_p_hWnd$ = 8						; size = 4
_p_hbmpMainOSB$ = 12					; size = 4
?OnCaptureChanged@CChartAddInBase000000@@MAEXPAUHWND__@@QAUHBITMAP__@@@Z PROC ; CChartAddInBase000000::OnCaptureChanged, COMDAT
; _this$ = ecx

; 143  : 	virtual void	OnCaptureChanged( HWND p_hWnd, const HBITMAP p_hbmpMainOSB)	{}	// (2006/11/5 - Seung-Won, Bae) Support MainOSB

  00000	c2 08 00	 ret	 8
?OnCaptureChanged@CChartAddInBase000000@@MAEXPAUHWND__@@QAUHBITMAP__@@@Z ENDP ; CChartAddInBase000000::OnCaptureChanged
_TEXT	ENDS
; Function compile flags: /Ogtp
; File D:\git\src\IBK\IBK_DRFN\ProjSrc\SrcChartEx\ChartOCX\AddInManager\Include_Addin\I000000\_ChartAddInBase.h
;	COMDAT ?OnTimer@CChartAddInBase000000@@MAEXI@Z
_TEXT	SEGMENT
_p_uTimerID$ = 8					; size = 4
?OnTimer@CChartAddInBase000000@@MAEXI@Z PROC		; CChartAddInBase000000::OnTimer, COMDAT
; _this$ = ecx

; 138  : 	virtual void	OnTimer( UINT p_uTimerID)	{}

  00000	c2 04 00	 ret	 4
?OnTimer@CChartAddInBase000000@@MAEXI@Z ENDP		; CChartAddInBase000000::OnTimer
_TEXT	ENDS
; Function compile flags: /Ogtp
; File D:\git\src\IBK\IBK_DRFN\ProjSrc\SrcChartEx\ChartOCX\AddInManager\Include_Addin\I000000\_ChartAddInBase.h
;	COMDAT ?OnDrawAfterGraph@CChartAddInBase000000@@MAEXPAUHDC__@@@Z
_TEXT	SEGMENT
_p_hDC$ = 8						; size = 4
?OnDrawAfterGraph@CChartAddInBase000000@@MAEXPAUHDC__@@@Z PROC ; CChartAddInBase000000::OnDrawAfterGraph, COMDAT
; _this$ = ecx

; 134  : 	virtual void	OnDrawAfterGraph( HDC p_hDC)	{}

  00000	c2 04 00	 ret	 4
?OnDrawAfterGraph@CChartAddInBase000000@@MAEXPAUHDC__@@@Z ENDP ; CChartAddInBase000000::OnDrawAfterGraph
_TEXT	ENDS
; Function compile flags: /Ogtp
; File D:\git\src\IBK\IBK_DRFN\ProjSrc\SrcChartEx\ChartOCX\AddInManager\Include_Addin\I000000\_ChartAddInBase.h
;	COMDAT ?OnDrawBeforeGraph@CChartAddInBase000000@@MAEXPAUHDC__@@@Z
_TEXT	SEGMENT
_p_hDC$ = 8						; size = 4
?OnDrawBeforeGraph@CChartAddInBase000000@@MAEXPAUHDC__@@@Z PROC ; CChartAddInBase000000::OnDrawBeforeGraph, COMDAT
; _this$ = ecx

; 132  : 	virtual void	OnDrawBeforeGraph( HDC p_hDC)	{}

  00000	c2 04 00	 ret	 4
?OnDrawBeforeGraph@CChartAddInBase000000@@MAEXPAUHDC__@@@Z ENDP ; CChartAddInBase000000::OnDrawBeforeGraph
_TEXT	ENDS
; Function compile flags: /Ogtp
; File D:\git\src\IBK\IBK_DRFN\ProjSrc\SrcChartEx\ChartOCX\AddInManager\Include_Addin\I000000\_ChartAddInBase.h
;	COMDAT ?ChangeChartMode@CChartAddInBase000000@@MAEXW4CHART_MODE@CChartInfo@@@Z
_TEXT	SEGMENT
_p_eChartMode$ = 8					; size = 4
?ChangeChartMode@CChartAddInBase000000@@MAEXW4CHART_MODE@CChartInfo@@@Z PROC ; CChartAddInBase000000::ChangeChartMode, COMDAT
; _this$ = ecx

; 116  : 	virtual void	ChangeChartMode( CChartInfo::CHART_MODE p_eChartMode)	{	m_eChartMode = p_eChartMode;	}

  00000	55		 push	 ebp
  00001	8b ec		 mov	 ebp, esp
  00003	8b 45 08	 mov	 eax, DWORD PTR _p_eChartMode$[ebp]
  00006	89 41 34	 mov	 DWORD PTR [ecx+52], eax
  00009	5d		 pop	 ebp
  0000a	c2 04 00	 ret	 4
?ChangeChartMode@CChartAddInBase000000@@MAEXW4CHART_MODE@CChartInfo@@@Z ENDP ; CChartAddInBase000000::ChangeChartMode
_TEXT	ENDS
; Function compile flags: /Ogtp
; File D:\git\src\IBK\IBK_DRFN\ProjSrc\SrcChartEx\ChartOCX\AddInManager\Include_Addin\I000000\_ChartAddInBase.h
;	COMDAT ?AfeterOnOcxDestroyWindow@CChartAddInBase000000@@MAEXXZ
_TEXT	SEGMENT
?AfeterOnOcxDestroyWindow@CChartAddInBase000000@@MAEXXZ PROC ; CChartAddInBase000000::AfeterOnOcxDestroyWindow, COMDAT
; _this$ = ecx

; 109  : 	virtual void	AfeterOnOcxDestroyWindow( void)							{}

  00000	c2 00 00	 ret	 0
?AfeterOnOcxDestroyWindow@CChartAddInBase000000@@MAEXXZ ENDP ; CChartAddInBase000000::AfeterOnOcxDestroyWindow
_TEXT	ENDS
; Function compile flags: /Ogtp
; File D:\git\src\IBK\IBK_DRFN\ProjSrc\SrcChartEx\ChartOCX\AddInManager\Include_Addin\I000000\_ChartAddInBase.h
;	COMDAT ?InvokeAddIn@CChartAddInBase000000@@MAEHHJ@Z
_TEXT	SEGMENT
_p_nCommandType$ = 8					; size = 4
_p_lData$ = 12						; size = 4
?InvokeAddIn@CChartAddInBase000000@@MAEHHJ@Z PROC	; CChartAddInBase000000::InvokeAddIn, COMDAT
; _this$ = ecx

; 91   : 	virtual BOOL	InvokeAddIn( int p_nCommandType, long p_lData)	{	return FALSE;	}

  00000	33 c0		 xor	 eax, eax
  00002	c2 08 00	 ret	 8
?InvokeAddIn@CChartAddInBase000000@@MAEHHJ@Z ENDP	; CChartAddInBase000000::InvokeAddIn
_TEXT	ENDS
; Function compile flags: /Ogtp
; File D:\git\src\IBK\IBK_DRFN\ProjSrc\SrcChartEx\ChartOCX\AddInManager\Include_Addin\_IWUnknown.h
;	COMDAT ?PreDestruct@CIWUnknown@@MAEXXZ
_TEXT	SEGMENT
?PreDestruct@CIWUnknown@@MAEXXZ PROC			; CIWUnknown::PreDestruct, COMDAT
; _this$ = ecx

; 49   : 	virtual void	PreDestruct( void)		{}

  00000	c2 00 00	 ret	 0
?PreDestruct@CIWUnknown@@MAEXXZ ENDP			; CIWUnknown::PreDestruct
_TEXT	ENDS
; Function compile flags: /Ogtp
; File D:\git\src\IBK\IBK_DRFN\ProjSrc\SrcChartEx\ChartOCX\AddInManager\Include_Addin\_IWUnknown.h
;	COMDAT ?PreDestructX@CIWUnknown@@MAEXXZ
_TEXT	SEGMENT
?PreDestructX@CIWUnknown@@MAEXXZ PROC			; CIWUnknown::PreDestructX, COMDAT
; _this$ = ecx

; 48   : 	virtual void	PreDestructX( void)		{}

  00000	c2 00 00	 ret	 0
?PreDestructX@CIWUnknown@@MAEXXZ ENDP			; CIWUnknown::PreDestructX
_TEXT	ENDS
; Function compile flags: /Ogtp
; File D:\git\src\IBK\IBK_DRFN\ProjSrc\SrcChartEx\ChartOCX\AddInManager\Include_Addin\_IWUnknown.h
;	COMDAT ?PostConstruct@CIWUnknown@@MAEXXZ
_TEXT	SEGMENT
?PostConstruct@CIWUnknown@@MAEXXZ PROC			; CIWUnknown::PostConstruct, COMDAT
; _this$ = ecx

; 47   : 	virtual void	PostConstruct( void)	{}

  00000	c2 00 00	 ret	 0
?PostConstruct@CIWUnknown@@MAEXXZ ENDP			; CIWUnknown::PostConstruct
_TEXT	ENDS
; Function compile flags: /Ogtp
; File C:\Program Files (x86)\Microsoft Visual Studio\2019\Community\VC\Tools\MSVC\14.29.30133\atlmfc\include\afx.inl
;	COMDAT ?Dump@CObject@@UBEXAAVCDumpContext@@@Z
_TEXT	SEGMENT
___formal$ = 8						; size = 4
?Dump@CObject@@UBEXAAVCDumpContext@@@Z PROC		; CObject::Dump, COMDAT
; _this$ = ecx

; 122  : 	{ /* no dumping in release builds */ }

  00000	c2 04 00	 ret	 4
?Dump@CObject@@UBEXAAVCDumpContext@@@Z ENDP		; CObject::Dump
_TEXT	ENDS
; Function compile flags: /Ogtp
; File C:\Program Files (x86)\Microsoft Visual Studio\2019\Community\VC\Tools\MSVC\14.29.30133\atlmfc\include\afx.inl
;	COMDAT ?AssertValid@CObject@@UBEXXZ
_TEXT	SEGMENT
?AssertValid@CObject@@UBEXXZ PROC			; CObject::AssertValid, COMDAT
; _this$ = ecx

; 120  : 	{ /* no asserts in release builds */ }

  00000	c2 00 00	 ret	 0
?AssertValid@CObject@@UBEXXZ ENDP			; CObject::AssertValid
_TEXT	ENDS
; Function compile flags: /Ogtp
; File C:\Program Files (x86)\Microsoft Visual Studio\2019\Community\VC\Tools\MSVC\14.29.30133\atlmfc\include\afx.inl
;	COMDAT ?Serialize@CObject@@UAEXAAVCArchive@@@Z
_TEXT	SEGMENT
___formal$ = 8						; size = 4
?Serialize@CObject@@UAEXAAVCArchive@@@Z PROC		; CObject::Serialize, COMDAT
; _this$ = ecx

; 106  : 	{ /* CObject does not serialize anything by default */ }

  00000	c2 04 00	 ret	 4
?Serialize@CObject@@UAEXAAVCArchive@@@Z ENDP		; CObject::Serialize
_TEXT	ENDS
; Function compile flags: /Ogtp
; File C:\Program Files (x86)\Microsoft Visual Studio\2019\Community\VC\Tools\MSVC\14.29.30133\atlmfc\include\afx.inl
;	COMDAT ??3CObject@@SGXPAX@Z
_TEXT	SEGMENT
_p$ = 8							; size = 4
??3CObject@@SGXPAX@Z PROC				; CObject::operator delete, COMDAT

; 112  : 	{ ::operator delete(p); }

  00000	55		 push	 ebp
  00001	8b ec		 mov	 ebp, esp
  00003	ff 75 08	 push	 DWORD PTR _p$[ebp]
  00006	e8 00 00 00 00	 call	 ??3@YAXPAX@Z		; operator delete
  0000b	83 c4 04	 add	 esp, 4
  0000e	5d		 pop	 ebp
  0000f	c2 04 00	 ret	 4
??3CObject@@SGXPAX@Z ENDP				; CObject::operator delete
_TEXT	ENDS
; Function compile flags: /Ogtp
; File C:\Program Files (x86)\Microsoft Visual Studio\2019\Community\VC\Tools\MSVC\14.29.30133\atlmfc\include\afx.inl
;	COMDAT ??1CObject@@UAE@XZ
_TEXT	SEGMENT
??1CObject@@UAE@XZ PROC					; CObject::~CObject, COMDAT
; _this$ = ecx

; 104  : 	{ }

  00000	c2 00 00	 ret	 0
??1CObject@@UAE@XZ ENDP					; CObject::~CObject
_TEXT	ENDS
; Function compile flags: /Ogtp
; File D:\git\src\IBK\IBK_DRFN\ProjSrc\SrcChartEx\ChartOCX\AddInManager\ChartCommonAddIn\LogAddInImp.cpp
;	COMDAT ?__empty_global_delete@@YAXPAXI@Z
_TEXT	SEGMENT
___formal$ = 8						; size = 4
___formal$ = 12						; size = 4
?__empty_global_delete@@YAXPAXI@Z PROC			; __empty_global_delete, COMDAT

  00000	c2 00 00	 ret	 0
?__empty_global_delete@@YAXPAXI@Z ENDP			; __empty_global_delete
_TEXT	ENDS
; Function compile flags: /Ogtp
; File D:\git\src\IBK\IBK_DRFN\ProjSrc\SrcChartEx\ChartOCX\AddInManager\ChartCommonAddIn\LogAddInImp.cpp
;	COMDAT ?__empty_global_delete@@YAXPAX@Z
_TEXT	SEGMENT
___formal$ = 8						; size = 4
?__empty_global_delete@@YAXPAX@Z PROC			; __empty_global_delete, COMDAT

  00000	c2 00 00	 ret	 0
?__empty_global_delete@@YAXPAX@Z ENDP			; __empty_global_delete
_TEXT	ENDS
END
