; Listing generated by Microsoft (R) Optimizing Compiler Version 19.29.30145.0 

	TITLE	D:\git\src\IBK\IBK_DRFN\#DRfn-CS\_Obj\ChartCommonAddIn\LogAddInImp.obj
	.686P
	.XMM
	include listing.inc
	.model	flat

INCLUDELIB MSVCRT
INCLUDELIB OLDNAMES

PUBLIC	?m_eRegisteredEventMap@CLogAddInImp@@1QBW4EAddInEventType@IChartAddIn000000@@B ; CLogAddInImp::m_eRegisteredEventMap
PUBLIC	??_C@_03MLIHNEFJ@LOG@				; `string'
;	COMDAT ??_C@_03MLIHNEFJ@LOG@
CONST	SEGMENT
??_C@_03MLIHNEFJ@LOG@ DB 'LOG', 00H			; `string'
CONST	ENDS
CONST	SEGMENT
?m_eRegisteredEventMap@CLogAddInImp@@1QBW4EAddInEventType@IChartAddIn000000@@B DD 016H ; CLogAddInImp::m_eRegisteredEventMap
	DD	01cH
	DD	022H
	DD	030H
	DD	031H
	DD	032H
	DD	03H
	DD	05H
	DD	09H
	DD	017H
	DD	019H
	DD	037H
	DD	03cH
	ORG $+192
CONST	ENDS
PUBLIC	?__empty_global_delete@@YAXPAX@Z		; __empty_global_delete
PUBLIC	?__empty_global_delete@@YAXPAXI@Z		; __empty_global_delete
PUBLIC	??1CObject@@UAE@XZ				; CObject::~CObject
PUBLIC	??3CObject@@SGXPAX@Z				; CObject::operator delete
PUBLIC	?Serialize@CObject@@UAEXAAVCArchive@@@Z		; CObject::Serialize
PUBLIC	?AssertValid@CObject@@UBEXXZ			; CObject::AssertValid
PUBLIC	?Dump@CObject@@UBEXAAVCDumpContext@@@Z		; CObject::Dump
PUBLIC	?PostConstruct@CIWUnknown@@MAEXXZ		; CIWUnknown::PostConstruct
PUBLIC	?PreDestructX@CIWUnknown@@MAEXXZ		; CIWUnknown::PreDestructX
PUBLIC	?PreDestruct@CIWUnknown@@MAEXXZ			; CIWUnknown::PreDestruct
PUBLIC	?InvokeAddIn@CChartAddInBase000000@@MAEHHJ@Z	; CChartAddInBase000000::InvokeAddIn
PUBLIC	?AfeterOnOcxDestroyWindow@CChartAddInBase000000@@MAEXXZ ; CChartAddInBase000000::AfeterOnOcxDestroyWindow
PUBLIC	?ChangeChartMode@CChartAddInBase000000@@MAEXW4CHART_MODE@CChartInfo@@@Z ; CChartAddInBase000000::ChangeChartMode
PUBLIC	?OnDrawBeforeGraph@CChartAddInBase000000@@MAEXPAUHDC__@@@Z ; CChartAddInBase000000::OnDrawBeforeGraph
PUBLIC	?OnDrawAfterGraph@CChartAddInBase000000@@MAEXPAUHDC__@@@Z ; CChartAddInBase000000::OnDrawAfterGraph
PUBLIC	?OnTimer@CChartAddInBase000000@@MAEXI@Z		; CChartAddInBase000000::OnTimer
PUBLIC	?OnCaptureChanged@CChartAddInBase000000@@MAEXPAUHWND__@@QAUHBITMAP__@@@Z ; CChartAddInBase000000::OnCaptureChanged
PUBLIC	?OnResetMainBlock@CChartAddInBase000000@@MAEXXZ	; CChartAddInBase000000::OnResetMainBlock
PUBLIC	?OnUserIndiatorConditionLoaded@CChartAddInBase000000@@MAEXXZ ; CChartAddInBase000000::OnUserIndiatorConditionLoaded
PUBLIC	?OnChartItemChanged@CChartAddInBase000000@@MAEXXZ ; CChartAddInBase000000::OnChartItemChanged
PUBLIC	?OnGraphDataChanged@CChartAddInBase000000@@MAEXXZ ; CChartAddInBase000000::OnGraphDataChanged
PUBLIC	?OnBlockRemoved@CChartAddInBase000000@@MAEXHH@Z	; CChartAddInBase000000::OnBlockRemoved
PUBLIC	?OnGraphAdded@CChartAddInBase000000@@MAEXPBD0@Z	; CChartAddInBase000000::OnGraphAdded
PUBLIC	?OnManualRealData@CChartAddInBase000000@@MAEXPBDNH@Z ; CChartAddInBase000000::OnManualRealData
PUBLIC	?OnContextMenu@CChartAddInBase000000@@MAEXPAUHWND__@@AAUtagPOINT@@@Z ; CChartAddInBase000000::OnContextMenu
PUBLIC	?OnGraphDeleted@CChartAddInBase000000@@MAEXPBD0@Z ; CChartAddInBase000000::OnGraphDeleted
PUBLIC	?OnPacketTruncated@CChartAddInBase000000@@MAEXH@Z ; CChartAddInBase000000::OnPacketTruncated
PUBLIC	?OnBlockChanged@CChartAddInBase000000@@MAEXW4BLOCKBEHAVIOR@CBlockBaseData@@HHHH@Z ; CChartAddInBase000000::OnBlockChanged
PUBLIC	?OnToolCommand@CChartAddInBase000000@@MAEXHH@Z	; CChartAddInBase000000::OnToolCommand
PUBLIC	?OnLoadEnvironment@CChartAddInBase000000@@MAEXPAUIPropertyMap@@@Z ; CChartAddInBase000000::OnLoadEnvironment
PUBLIC	?OnSaveEnvironment@CChartAddInBase000000@@MAEXPAUIPropertyMap@@@Z ; CChartAddInBase000000::OnSaveEnvironment
PUBLIC	?DrawCursor@CChartAddInBase000000@@MAE?AUtagRECT@@PAUHDC__@@@Z ; CChartAddInBase000000::DrawCursor
PUBLIC	?OnRecalculationComplete@CChartAddInBase000000@@MAEXXZ ; CChartAddInBase000000::OnRecalculationComplete
PUBLIC	?OnPreRealData@CChartAddInBase000000@@MAEHPBDAAN0H@Z ; CChartAddInBase000000::OnPreRealData
PUBLIC	?OnPreIndexedRealData@CChartAddInBase000000@@MAEHPBDHAANH@Z ; CChartAddInBase000000::OnPreIndexedRealData
PUBLIC	?OnPreRealPacketEnd@CChartAddInBase000000@@MAEHPBDH@Z ; CChartAddInBase000000::OnPreRealPacketEnd
PUBLIC	?OnPreNMTRClock@CChartAddInBase000000@@MAEHAA_J@Z ; CChartAddInBase000000::OnPreNMTRClock
PUBLIC	?OnCmdMsg@CChartAddInBase000000@@MAEHIHPAUICmdUI000000@@@Z ; CChartAddInBase000000::OnCmdMsg
PUBLIC	?OnAddInMsg@CChartAddInBase000000@@MAEHPBDJ@Z	; CChartAddInBase000000::OnAddInMsg
PUBLIC	?OnAddInToolCommand@CChartAddInBase000000@@MAEHW4EAICommandType@@@Z ; CChartAddInBase000000::OnAddInToolCommand
PUBLIC	?OnAddInToolCommand@CChartAddInBase000000@@MAEHW4EAICommandType@@PAUHDC__@@IAAUtagPOINT@@K@Z ; CChartAddInBase000000::OnAddInToolCommand
PUBLIC	?OnAddInToolCommand@CChartAddInBase000000@@MAEHW4EAICommandType@@PBD1@Z ; CChartAddInBase000000::OnAddInToolCommand
PUBLIC	?OnAddInToolCommand@CChartAddInBase000000@@MAEHW4EAICommandType@@PBUIAddInDllBase@@@Z ; CChartAddInBase000000::OnAddInToolCommand
PUBLIC	?OnAddInToolCommand@CChartAddInBase000000@@MAEHW4EAICommandType@@J@Z ; CChartAddInBase000000::OnAddInToolCommand
PUBLIC	?OnAddInToolCommand@CChartAddInBase000000@@MAEHW4EAICommandType@@JPBD@Z ; CChartAddInBase000000::OnAddInToolCommand
PUBLIC	?OnAddInToolCommand@CChartAddInBase000000@@MAEHW4EAICommandType@@JJ@Z ; CChartAddInBase000000::OnAddInToolCommand
PUBLIC	?OnAddInToolCommand@CChartAddInBase000000@@MAEHW4EAICommandType@@JJJJJJJJJ@Z ; CChartAddInBase000000::OnAddInToolCommand
PUBLIC	?OnAddInToolCommand@CChartAddInBase000000@@MAEHAAJW4EAICommandType@@@Z ; CChartAddInBase000000::OnAddInToolCommand
PUBLIC	?OnAddInToolCommand@CChartAddInBase000000@@MAEHAAJW4EAICommandType@@PAUIGraphInfo000000@@@Z ; CChartAddInBase000000::OnAddInToolCommand
PUBLIC	?OnAddInToolCommand@CChartAddInBase000000@@MAEHAAJW4EAICommandType@@PBD@Z ; CChartAddInBase000000::OnAddInToolCommand
PUBLIC	?OnAddInToolCommand@CChartAddInBase000000@@MAEHAAJW4EAICommandType@@PBDPAVCObject@@@Z ; CChartAddInBase000000::OnAddInToolCommand
PUBLIC	?OnAddInToolCommand@CChartAddInBase000000@@MAEHAAJW4EAICommandType@@J@Z ; CChartAddInBase000000::OnAddInToolCommand
PUBLIC	?OnAddInToolCommand@CChartAddInBase000000@@MAEHAAJW4EAICommandType@@JJ@Z ; CChartAddInBase000000::OnAddInToolCommand
PUBLIC	?OnKeyUp@CChartAddInBase000000@@MAEHIII@Z	; CChartAddInBase000000::OnKeyUp
PUBLIC	?OnMouseWheel@CChartAddInBase000000@@MAEHIFUtagPOINT@@K@Z ; CChartAddInBase000000::OnMouseWheel
PUBLIC	?OnMouseMove@CChartAddInBase000000@@MAEHPAUHDC__@@IAAUtagPOINT@@KQAUHBITMAP__@@@Z ; CChartAddInBase000000::OnMouseMove
PUBLIC	?OnLButtonDown@CChartAddInBase000000@@MAEHPAUHDC__@@IAAUtagPOINT@@K@Z ; CChartAddInBase000000::OnLButtonDown
PUBLIC	?OnLButtonUp@CChartAddInBase000000@@MAEHPAUHDC__@@IAAUtagPOINT@@K@Z ; CChartAddInBase000000::OnLButtonUp
PUBLIC	?OnRButtonDown@CChartAddInBase000000@@MAEHPAUHDC__@@IAAUtagPOINT@@K@Z ; CChartAddInBase000000::OnRButtonDown
PUBLIC	?OnRButtonUp@CChartAddInBase000000@@MAEHPAUHDC__@@IAAUtagPOINT@@K@Z ; CChartAddInBase000000::OnRButtonUp
PUBLIC	?OnRButtonDblClk@CChartAddInBase000000@@MAEHPAUHDC__@@IAAUtagPOINT@@K@Z ; CChartAddInBase000000::OnRButtonDblClk
PUBLIC	??0CLogAddInImp@@QAE@PAUIChartOCX000000@@PAUIAddInDllBase@@@Z ; CLogAddInImp::CLogAddInImp
PUBLIC	??1CLogAddInImp@@UAE@XZ				; CLogAddInImp::~CLogAddInImp
PUBLIC	?GetRegisteredEventMap@CLogAddInImp@@MBEPBW4EAddInEventType@IChartAddIn000000@@XZ ; CLogAddInImp::GetRegisteredEventMap
PUBLIC	?GetAddInCustomInterface@CLogAddInImp@@MAEPAUIUnknown@@XZ ; CLogAddInImp::GetAddInCustomInterface
PUBLIC	?AddRef@CLogAddInImp@@MAGKXZ			; CLogAddInImp::AddRef
PUBLIC	?Release@CLogAddInImp@@MAGKXZ			; CLogAddInImp::Release
PUBLIC	?QueryInterface@CLogAddInImp@@MAGJABU_GUID@@PAPAX@Z ; CLogAddInImp::QueryInterface
PUBLIC	?InvokeAddInStr@CLogAddInImp@@MAEHPBD0@Z	; CLogAddInImp::InvokeAddInStr
PUBLIC	?OnGSharedDataChange@CLogAddInImp@@MAEXPBD0H@Z	; CLogAddInImp::OnGSharedDataChange
PUBLIC	?OnLSharedDataChange@CLogAddInImp@@MAEXPBD0@Z	; CLogAddInImp::OnLSharedDataChange
PUBLIC	?OnResetChart@CLogAddInImp@@MAEXXZ		; CLogAddInImp::OnResetChart
PUBLIC	?OnPacketDataMultiItem@CLogAddInImp@@MAEXPBD0H@Z ; CLogAddInImp::OnPacketDataMultiItem
PUBLIC	?OnRealData@CLogAddInImp@@MAEXPBDN0@Z		; CLogAddInImp::OnRealData
PUBLIC	?OnIndexedRealData@CLogAddInImp@@MAEXPBDHN@Z	; CLogAddInImp::OnIndexedRealData
PUBLIC	?OnRealPacketEnd@CLogAddInImp@@MAEXPBD@Z	; CLogAddInImp::OnRealPacketEnd
PUBLIC	?OnDrdsAdvise@CLogAddInImp@@IAEXJPBD00@Z	; CLogAddInImp::OnDrdsAdvise
PUBLIC	?OffDrdsAdvise@CLogAddInImp@@IAEXJPBD00@Z	; CLogAddInImp::OffDrdsAdvise
PUBLIC	?OnRealSettingChanged@CLogAddInImp@@IAEXPBD@Z	; CLogAddInImp::OnRealSettingChanged
PUBLIC	?OnNormalizedMinuteTimeRuleReset@CLogAddInImp@@IAEXH@Z ; CLogAddInImp::OnNormalizedMinuteTimeRuleReset
PUBLIC	?LogAllProperties@CLogAddInImp@@IAEHXZ		; CLogAddInImp::LogAllProperties
PUBLIC	?WriteLogMessage@CLogAddInImp@@IAEXPBD@Z	; CLogAddInImp::WriteLogMessage
PUBLIC	?OnAddInToolCommand@CLogAddInImp@@MAEHW4EAICommandType@@PBD@Z ; CLogAddInImp::OnAddInToolCommand
PUBLIC	?OnAddInToolCommand@CLogAddInImp@@MAEHW4EAICommandType@@PBDJ@Z ; CLogAddInImp::OnAddInToolCommand
PUBLIC	?OnAddInToolCommand@CLogAddInImp@@MAEHW4EAICommandType@@JPBD11@Z ; CLogAddInImp::OnAddInToolCommand
PUBLIC	?OnKeyDown@CLogAddInImp@@MAEHIII@Z		; CLogAddInImp::OnKeyDown
PUBLIC	?OnLButtonDblClk@CLogAddInImp@@MAEHPAUHDC__@@IAAUtagPOINT@@K@Z ; CLogAddInImp::OnLButtonDblClk
PUBLIC	??_GCLogAddInImp@@UAEPAXI@Z			; CLogAddInImp::`scalar deleting destructor'
PUBLIC	??1CDumpLogger@@UAE@XZ				; CDumpLogger::~CDumpLogger
PUBLIC	?WriteToStringLog@CDumpLogger@@QAEXPBD0H@Z	; CDumpLogger::WriteToStringLog
PUBLIC	??_GCDumpLogger@@UAEPAXI@Z			; CDumpLogger::`scalar deleting destructor'
PUBLIC	??1IPropertyMap@@MAE@XZ				; IPropertyMap::~IPropertyMap
PUBLIC	??_GIPropertyMap@@MAEPAXI@Z			; IPropertyMap::`scalar deleting destructor'
PUBLIC	?GetCount@CPropertyMap@@EBEHXZ			; CPropertyMap::GetCount
PUBLIC	?IsEmpty@CPropertyMap@@EBEHXZ			; CPropertyMap::IsEmpty
PUBLIC	?Lookup@CPropertyMap@@EBEHPBDAAPBD@Z		; CPropertyMap::Lookup
PUBLIC	?LookupKey@CPropertyMap@@EBEHPBDAAPBD@Z		; CPropertyMap::LookupKey
PUBLIC	?SetAt@CPropertyMap@@EAEXPBD0@Z			; CPropertyMap::SetAt
PUBLIC	?RemoveKey@CPropertyMap@@EAEHPBD@Z		; CPropertyMap::RemoveKey
PUBLIC	?RemoveAll@CPropertyMap@@EAEXXZ			; CPropertyMap::RemoveAll
PUBLIC	?GetStartPosition@CPropertyMap@@EBEPAU__POSITION@@XZ ; CPropertyMap::GetStartPosition
PUBLIC	?GetNextAssoc@CPropertyMap@@EBEXAAPAU__POSITION@@AAPBD1@Z ; CPropertyMap::GetNextAssoc
PUBLIC	?GetHashTableSize@CPropertyMap@@EBEIXZ		; CPropertyMap::GetHashTableSize
PUBLIC	?InitHashTable@CPropertyMap@@EAEXIH@Z		; CPropertyMap::InitHashTable
PUBLIC	??1CPropertyMap@@UAE@XZ				; CPropertyMap::~CPropertyMap
PUBLIC	??_GCPropertyMap@@UAEPAXI@Z			; CPropertyMap::`scalar deleting destructor'
PUBLIC	??__FstrValue@?1??Lookup@CPropertyMap@@EBEHPBDAAPBD@Z@YAXXZ ; `CPropertyMap::Lookup'::`2'::`dynamic atexit destructor for 'strValue''
PUBLIC	??__FstrKey@?1??GetNextAssoc@CPropertyMap@@EBEXAAPAU__POSITION@@AAPBD1@Z@YAXXZ ; `CPropertyMap::GetNextAssoc'::`2'::`dynamic atexit destructor for 'strKey''
PUBLIC	??__FstrValue@?1??GetNextAssoc@CPropertyMap@@EBEXAAPAU__POSITION@@AAPBD1@Z@YAXXZ ; `CPropertyMap::GetNextAssoc'::`2'::`dynamic atexit destructor for 'strValue''
PUBLIC	??1ILPCSTR000000@@QAE@XZ			; ILPCSTR000000::~ILPCSTR000000
PUBLIC	??1IPacketList000000@@MAE@XZ			; IPacketList000000::~IPacketList000000
PUBLIC	??_GIPacketList000000@@MAEPAXI@Z		; IPacketList000000::`scalar deleting destructor'
PUBLIC	??0?$CList@PAUIPacket000000@@PAU1@@@QAE@H@Z	; CList<IPacket000000 *,IPacket000000 *>::CList<IPacket000000 *,IPacket000000 *>
PUBLIC	?RemoveHead@?$CList@PAUIPacket000000@@PAU1@@@QAEPAUIPacket000000@@XZ ; CList<IPacket000000 *,IPacket000000 *>::RemoveHead
PUBLIC	?RemoveTail@?$CList@PAUIPacket000000@@PAU1@@@QAEPAUIPacket000000@@XZ ; CList<IPacket000000 *,IPacket000000 *>::RemoveTail
PUBLIC	?AddHead@?$CList@PAUIPacket000000@@PAU1@@@QAEPAU__POSITION@@PAUIPacket000000@@@Z ; CList<IPacket000000 *,IPacket000000 *>::AddHead
PUBLIC	?AddTail@?$CList@PAUIPacket000000@@PAU1@@@QAEPAU__POSITION@@PAUIPacket000000@@@Z ; CList<IPacket000000 *,IPacket000000 *>::AddTail
PUBLIC	?AddHead@?$CList@PAUIPacket000000@@PAU1@@@QAEXPAV1@@Z ; CList<IPacket000000 *,IPacket000000 *>::AddHead
PUBLIC	?AddTail@?$CList@PAUIPacket000000@@PAU1@@@QAEXPAV1@@Z ; CList<IPacket000000 *,IPacket000000 *>::AddTail
PUBLIC	?RemoveAll@?$CList@PAUIPacket000000@@PAU1@@@QAEXXZ ; CList<IPacket000000 *,IPacket000000 *>::RemoveAll
PUBLIC	?RemoveAt@?$CList@PAUIPacket000000@@PAU1@@@QAEXPAU__POSITION@@@Z ; CList<IPacket000000 *,IPacket000000 *>::RemoveAt
PUBLIC	?InsertBefore@?$CList@PAUIPacket000000@@PAU1@@@QAEPAU__POSITION@@PAU2@PAUIPacket000000@@@Z ; CList<IPacket000000 *,IPacket000000 *>::InsertBefore
PUBLIC	?InsertAfter@?$CList@PAUIPacket000000@@PAU1@@@QAEPAU__POSITION@@PAU2@PAUIPacket000000@@@Z ; CList<IPacket000000 *,IPacket000000 *>::InsertAfter
PUBLIC	?Find@?$CList@PAUIPacket000000@@PAU1@@@QBEPAU__POSITION@@PAUIPacket000000@@PAU2@@Z ; CList<IPacket000000 *,IPacket000000 *>::Find
PUBLIC	?FindIndex@?$CList@PAUIPacket000000@@PAU1@@@QBEPAU__POSITION@@H@Z ; CList<IPacket000000 *,IPacket000000 *>::FindIndex
PUBLIC	?NewNode@?$CList@PAUIPacket000000@@PAU1@@@IAEPAUCNode@1@PAU21@0@Z ; CList<IPacket000000 *,IPacket000000 *>::NewNode
PUBLIC	?FreeNode@?$CList@PAUIPacket000000@@PAU1@@@IAEXPAUCNode@1@@Z ; CList<IPacket000000 *,IPacket000000 *>::FreeNode
PUBLIC	??1?$CList@PAUIPacket000000@@PAU1@@@UAE@XZ	; CList<IPacket000000 *,IPacket000000 *>::~CList<IPacket000000 *,IPacket000000 *>
PUBLIC	?Serialize@?$CList@PAUIPacket000000@@PAU1@@@UAEXAAVCArchive@@@Z ; CList<IPacket000000 *,IPacket000000 *>::Serialize
PUBLIC	??_G?$CList@PAUIPacket000000@@PAU1@@@UAEPAXI@Z	; CList<IPacket000000 *,IPacket000000 *>::`scalar deleting destructor'
PUBLIC	??1CIPacketList000000@@UAE@XZ			; CIPacketList000000::~CIPacketList000000
PUBLIC	?AddRef@CIPacketList000000@@MAGKXZ		; CIPacketList000000::AddRef
PUBLIC	?Release@CIPacketList000000@@MAGKXZ		; CIPacketList000000::Release
PUBLIC	?QueryInterface@CIPacketList000000@@MAGJABU_GUID@@PAPAX@Z ; CIPacketList000000::QueryInterface
PUBLIC	?GetCount@CIPacketList000000@@UBEHXZ		; CIPacketList000000::GetCount
PUBLIC	?IsEmpty@CIPacketList000000@@UBEHXZ		; CIPacketList000000::IsEmpty
PUBLIC	?GetHead@CIPacketList000000@@UBEPAUIPacket000000@@XZ ; CIPacketList000000::GetHead
PUBLIC	?GetTail@CIPacketList000000@@UBEPAUIPacket000000@@XZ ; CIPacketList000000::GetTail
PUBLIC	?RemoveHead@CIPacketList000000@@UAEPAUIPacket000000@@XZ ; CIPacketList000000::RemoveHead
PUBLIC	?RemoveTail@CIPacketList000000@@UAEPAUIPacket000000@@XZ ; CIPacketList000000::RemoveTail
PUBLIC	?AddHead@CIPacketList000000@@UAEPAU__POSITION@@PAUIPacket000000@@@Z ; CIPacketList000000::AddHead
PUBLIC	?AddTail@CIPacketList000000@@UAEPAU__POSITION@@PAUIPacket000000@@@Z ; CIPacketList000000::AddTail
PUBLIC	?AddHead@CIPacketList000000@@UAEXPAUIPacketList000000@@@Z ; CIPacketList000000::AddHead
PUBLIC	?AddTail@CIPacketList000000@@UAEXPAUIPacketList000000@@@Z ; CIPacketList000000::AddTail
PUBLIC	?RemoveAll@CIPacketList000000@@UAEXXZ		; CIPacketList000000::RemoveAll
PUBLIC	?GetHeadPosition@CIPacketList000000@@UBEPAU__POSITION@@XZ ; CIPacketList000000::GetHeadPosition
PUBLIC	?GetTailPosition@CIPacketList000000@@UBEPAU__POSITION@@XZ ; CIPacketList000000::GetTailPosition
PUBLIC	?GetNext@CIPacketList000000@@UBEPAUIPacket000000@@AAPAU__POSITION@@@Z ; CIPacketList000000::GetNext
PUBLIC	?GetPrev@CIPacketList000000@@UBEPAUIPacket000000@@AAPAU__POSITION@@@Z ; CIPacketList000000::GetPrev
PUBLIC	?GetAt@CIPacketList000000@@UBEPAUIPacket000000@@PAU__POSITION@@@Z ; CIPacketList000000::GetAt
PUBLIC	?SetAt@CIPacketList000000@@UAEXPAU__POSITION@@PAUIPacket000000@@@Z ; CIPacketList000000::SetAt
PUBLIC	?RemoveAt@CIPacketList000000@@UAEXPAU__POSITION@@@Z ; CIPacketList000000::RemoveAt
PUBLIC	?InsertBefore@CIPacketList000000@@UAEPAU__POSITION@@PAU2@PAUIPacket000000@@@Z ; CIPacketList000000::InsertBefore
PUBLIC	?InsertAfter@CIPacketList000000@@UAEPAU__POSITION@@PAU2@PAUIPacket000000@@@Z ; CIPacketList000000::InsertAfter
PUBLIC	?Find@CIPacketList000000@@UBEPAU__POSITION@@PAUIPacket000000@@PAU2@@Z ; CIPacketList000000::Find
PUBLIC	?FindIndex@CIPacketList000000@@UBEPAU__POSITION@@H@Z ; CIPacketList000000::FindIndex
PUBLIC	??_GCIPacketList000000@@UAEPAXI@Z		; CIPacketList000000::`scalar deleting destructor'
PUBLIC	??$CompareElements@PAUIPacket000000@@PAU1@@@YGHPBQAUIPacket000000@@0@Z ; CompareElements<IPacket000000 *,IPacket000000 *>
PUBLIC	??$SerializeElements@PAUIPacket000000@@@@YGXAAVCArchive@@PAPAUIPacket000000@@H@Z ; SerializeElements<IPacket000000 *>
PUBLIC	?QueryInterface@CLogAddInImp@@O7AGJABU_GUID@@PAPAX@Z ; [thunk]:CLogAddInImp::QueryInterface`adjustor{8}'
PUBLIC	?AddRef@CLogAddInImp@@O7AGKXZ			; [thunk]:CLogAddInImp::AddRef`adjustor{8}'
PUBLIC	?Release@CLogAddInImp@@O7AGKXZ			; [thunk]:CLogAddInImp::Release`adjustor{8}'
PUBLIC	??_ECLogAddInImp@@W7AEPAXI@Z			; [thunk]:CLogAddInImp::`vector deleting destructor'
PUBLIC	??_ECPropertyMap@@WBM@AEPAXI@Z			; [thunk]:CPropertyMap::`vector deleting destructor'
PUBLIC	??_ECIPacketList000000@@WBM@AEPAXI@Z		; [thunk]:CIPacketList000000::`vector deleting destructor'
PUBLIC	??_C@_00CNPNBAHC@@				; `string'
PUBLIC	??_R0?AVCObject@@@8				; CObject `RTTI Type Descriptor'
PUBLIC	??_R3CObject@@8					; CObject::`RTTI Class Hierarchy Descriptor'
PUBLIC	??_R2CObject@@8					; CObject::`RTTI Base Class Array'
PUBLIC	??_R1A@?0A@EA@CObject@@8			; CObject::`RTTI Base Class Descriptor at (0,-1,0,64)'
PUBLIC	??_R0?AUIUnknown@@@8				; IUnknown `RTTI Type Descriptor'
PUBLIC	??_R3IUnknown@@8				; IUnknown::`RTTI Class Hierarchy Descriptor'
PUBLIC	??_R2IUnknown@@8				; IUnknown::`RTTI Base Class Array'
PUBLIC	??_R1A@?0A@EA@IUnknown@@8			; IUnknown::`RTTI Base Class Descriptor at (0,-1,0,64)'
PUBLIC	?m_strAddInItemName@CLogAddInImp@@2V?$CStringT@DV?$StrTraitMFC_DLL@DV?$ChTraitsCRT@D@ATL@@@@@ATL@@A ; CLogAddInImp::m_strAddInItemName
PUBLIC	??_7CLogAddInImp@@6BCIWUnknown@@@		; CLogAddInImp::`vftable'
PUBLIC	??_7CLogAddInImp@@6BIChartAddIn000000@@@	; CLogAddInImp::`vftable'
PUBLIC	??_7CDumpLogger@@6B@				; CDumpLogger::`vftable'
PUBLIC	??_C@_07PNFMHCIF@C?3?2Logs@			; `string'
PUBLIC	??_C@_05GDFJMIEM@MDump@				; `string'
PUBLIC	??_C@_0CJ@GKAGEPNM@?$CFs?2?$CFs_?$CF04d?$CF02d?$CF02d_?$CF02d?$CF02d?$CF02d@ ; `string'
PUBLIC	??_C@_0BH@KLLDLFAP@?$CFs?2?$CFs_?$CF04d?$CF02d?$CF02d?4log@ ; `string'
PUBLIC	??_C@_03BFOLIMEF@?$FN?$AN?6@			; `string'
PUBLIC	??_C@_0BN@HKLPFIKN@?$AN?6?$AN?6?$AN?6?$FL?$CF02d?3?$CF02d?3?$CF02d?3?$CF03d?5?5@ ; `string'
PUBLIC	??_C@_0BF@GOEHBEJD@?$CF02d?3?$CF02d?3?$CF02d?3?$CF03d?7@ ; `string'
PUBLIC	??_7IPropertyMap@@6B@				; IPropertyMap::`vftable'
PUBLIC	??_7CPropertyMap@@6BCMapStringToString@@@	; CPropertyMap::`vftable'
PUBLIC	??_7CPropertyMap@@6BIPropertyMap@@@		; CPropertyMap::`vftable'
PUBLIC	?strValue@?1??Lookup@CPropertyMap@@EBEHPBDAAPBD@Z@4V?$CStringT@DV?$StrTraitMFC_DLL@DV?$ChTraitsCRT@D@ATL@@@@@ATL@@A ; `CPropertyMap::Lookup'::`2'::strValue
PUBLIC	?$TSS0@?1??Lookup@CPropertyMap@@EBEHPBDAAPBD@Z@4HA ; `CPropertyMap::Lookup'::`2'::$TSS0
PUBLIC	?strKey@?1??GetNextAssoc@CPropertyMap@@EBEXAAPAU__POSITION@@AAPBD1@Z@4V?$CStringT@DV?$StrTraitMFC_DLL@DV?$ChTraitsCRT@D@ATL@@@@@ATL@@A ; `CPropertyMap::GetNextAssoc'::`2'::strKey
PUBLIC	?$TSS0@?1??GetNextAssoc@CPropertyMap@@EBEXAAPAU__POSITION@@AAPBD1@Z@4HA ; `CPropertyMap::GetNextAssoc'::`2'::$TSS0
PUBLIC	?strValue@?1??GetNextAssoc@CPropertyMap@@EBEXAAPAU__POSITION@@AAPBD1@Z@4V?$CStringT@DV?$StrTraitMFC_DLL@DV?$ChTraitsCRT@D@ATL@@@@@ATL@@A ; `CPropertyMap::GetNextAssoc'::`2'::strValue
PUBLIC	?$TSS1@?1??GetNextAssoc@CPropertyMap@@EBEXAAPAU__POSITION@@AAPBD1@Z@4HA ; `CPropertyMap::GetNextAssoc'::`2'::$TSS1
PUBLIC	??_7IPacketList000000@@6B@			; IPacketList000000::`vftable'
PUBLIC	??_7?$CList@PAUIPacket000000@@PAU1@@@6B@	; CList<IPacket000000 *,IPacket000000 *>::`vftable'
PUBLIC	??_7CIPacketList000000@@6B?$CList@PAUIPacket000000@@PAU1@@@@ ; CIPacketList000000::`vftable'
PUBLIC	??_7CIPacketList000000@@6BIPacketList000000@@@	; CIPacketList000000::`vftable'
PUBLIC	??_C@_07IBNALNMK@LOGFILE@			; `string'
PUBLIC	??_C@_0M@KCNCPKNK@LOGPROPERTY@			; `string'
PUBLIC	??_C@_0BH@KDLBAJON@InvokeAddInStr?7?$CFs?7?$CFs?$AN?6@ ; `string'
PUBLIC	??_C@_0BP@HFGPJKIL@OnGSharedDataChange?7?$CFs?7?$CFs?7?$CFd?$AN?6@ ; `string'
PUBLIC	??_C@_0BM@LLNGPKFK@OnLSharedDataChange?7?$CFs?7?$CFs?$AN?6@ ; `string'
PUBLIC	??_C@_0P@JMOEIKKC@OnResetChart?$AN?6@		; `string'
PUBLIC	??_C@_0CE@GFHPIFHK@OnPacketDataMultiItem?9HelpMessa@ ; `string'
PUBLIC	??_C@_01GPOEFGEJ@?7@				; `string'
PUBLIC	??_C@_01ICJEACDI@?$DL@				; `string'
PUBLIC	??_C@_0CC@BCEEFGNA@OnPacketDataMultiItem?9TrData?7?$CFs@ ; `string'
PUBLIC	??_C@_03KOJCCHED@?7?$CFf@			; `string'
PUBLIC	??_C@_03JJCHMBFH@?7?$CFs@			; `string'
PUBLIC	??_C@_02JKOLDJMA@?7?5@				; `string'
PUBLIC	??_C@_02NJPGOMH@?$CFf@				; `string'
PUBLIC	??_C@_07CMNLJIKL@?$FL?$CFd?$FN?7?$CFf@		; `string'
PUBLIC	??_C@_0BG@ILBABEIL@OnRealPacketEnd?7?3?$CFs?$AN?6@ ; `string'
PUBLIC	??_C@_0BM@IICBOOGN@OnDrdsAdvise?7?$CFu?7?$CFs?4?$CFs?$CI?$CFs?$CJ?$AN?6@ ; `string'
PUBLIC	??_C@_0BN@NBCJMOLF@OffDrdsAdvise?7?$CFu?7?$CFs?4?$CFs?$CI?$CFs?$CJ?$AN?6@ ; `string'
PUBLIC	??_C@_0BK@BKCDMIFI@OnRealSettingChanged?7?$CFs?$AN?6@ ; `string'
PUBLIC	??_C@_04HCDDPBNL@TRUE@				; `string'
PUBLIC	??_C@_05MAJJAKPI@FALSE@				; `string'
PUBLIC	??_C@_0CF@KDOONFGL@OnNormalizedMinuteTimeRuleReset@ ; `string'
PUBLIC	??_C@_0BH@LJIELJFE@?$FLCurrent?5Properties?$FN?$AN?6@ ; `string'
PUBLIC	??_C@_0BF@DGGOINLJ@WriteLogMessage?7?$CFs?$AN?6@ ; `string'
PUBLIC	??_C@_0BI@DCLFLHGC@OnKeyDown?7?$CFud?7?$CFud?7?$CFud?$AN?6@ ; `string'
PUBLIC	??_C@_0BO@FECOABGG@OnLButtonDblClk?7?$CFud?7?$CFld?7?$CFld?$AN?6@ ; `string'
PUBLIC	??_R4IPropertyMap@@6B@				; IPropertyMap::`RTTI Complete Object Locator'
PUBLIC	??_R0?AUIPropertyMap@@@8			; IPropertyMap `RTTI Type Descriptor'
PUBLIC	??_R3IPropertyMap@@8				; IPropertyMap::`RTTI Class Hierarchy Descriptor'
PUBLIC	??_R2IPropertyMap@@8				; IPropertyMap::`RTTI Base Class Array'
PUBLIC	??_R1A@?0A@EA@IPropertyMap@@8			; IPropertyMap::`RTTI Base Class Descriptor at (0,-1,0,64)'
PUBLIC	??_R0?AUIChartAddIn000000@@@8			; IChartAddIn000000 `RTTI Type Descriptor'
PUBLIC	??_R3IChartAddIn000000@@8			; IChartAddIn000000::`RTTI Class Hierarchy Descriptor'
PUBLIC	??_R2IChartAddIn000000@@8			; IChartAddIn000000::`RTTI Base Class Array'
PUBLIC	??_R1A@?0A@EA@IChartAddIn000000@@8		; IChartAddIn000000::`RTTI Base Class Descriptor at (0,-1,0,64)'
PUBLIC	??_R4CDumpLogger@@6B@				; CDumpLogger::`RTTI Complete Object Locator'
PUBLIC	??_R0?AVCDumpLogger@@@8				; CDumpLogger `RTTI Type Descriptor'
PUBLIC	??_R3CDumpLogger@@8				; CDumpLogger::`RTTI Class Hierarchy Descriptor'
PUBLIC	??_R2CDumpLogger@@8				; CDumpLogger::`RTTI Base Class Array'
PUBLIC	??_R1A@?0A@EA@CDumpLogger@@8			; CDumpLogger::`RTTI Base Class Descriptor at (0,-1,0,64)'
PUBLIC	??_R4CLogAddInImp@@6BCIWUnknown@@@		; CLogAddInImp::`RTTI Complete Object Locator'
PUBLIC	??_R0?AVCLogAddInImp@@@8			; CLogAddInImp `RTTI Type Descriptor'
PUBLIC	??_R3CLogAddInImp@@8				; CLogAddInImp::`RTTI Class Hierarchy Descriptor'
PUBLIC	??_R2CLogAddInImp@@8				; CLogAddInImp::`RTTI Base Class Array'
PUBLIC	??_R1A@?0A@EA@CLogAddInImp@@8			; CLogAddInImp::`RTTI Base Class Descriptor at (0,-1,0,64)'
PUBLIC	??_R1A@?0A@EA@CChartAddInBase000000@@8		; CChartAddInBase000000::`RTTI Base Class Descriptor at (0,-1,0,64)'
PUBLIC	??_R0?AVCChartAddInBase000000@@@8		; CChartAddInBase000000 `RTTI Type Descriptor'
PUBLIC	??_R3CChartAddInBase000000@@8			; CChartAddInBase000000::`RTTI Class Hierarchy Descriptor'
PUBLIC	??_R2CChartAddInBase000000@@8			; CChartAddInBase000000::`RTTI Base Class Array'
PUBLIC	??_R1A@?0A@EA@CIWUnknown@@8			; CIWUnknown::`RTTI Base Class Descriptor at (0,-1,0,64)'
PUBLIC	??_R0?AVCIWUnknown@@@8				; CIWUnknown `RTTI Type Descriptor'
PUBLIC	??_R3CIWUnknown@@8				; CIWUnknown::`RTTI Class Hierarchy Descriptor'
PUBLIC	??_R2CIWUnknown@@8				; CIWUnknown::`RTTI Base Class Array'
PUBLIC	??_R17?0A@EA@IChartAddIn000000@@8		; IChartAddIn000000::`RTTI Base Class Descriptor at (8,-1,0,64)'
PUBLIC	??_R17?0A@EA@IUnknown@@8			; IUnknown::`RTTI Base Class Descriptor at (8,-1,0,64)'
PUBLIC	??_R4CLogAddInImp@@6BIChartAddIn000000@@@	; CLogAddInImp::`RTTI Complete Object Locator'
PUBLIC	??_R4CPropertyMap@@6BCMapStringToString@@@	; CPropertyMap::`RTTI Complete Object Locator'
PUBLIC	??_R0?AVCPropertyMap@@@8			; CPropertyMap `RTTI Type Descriptor'
PUBLIC	??_R3CPropertyMap@@8				; CPropertyMap::`RTTI Class Hierarchy Descriptor'
PUBLIC	??_R2CPropertyMap@@8				; CPropertyMap::`RTTI Base Class Array'
PUBLIC	??_R1A@?0A@EA@CPropertyMap@@8			; CPropertyMap::`RTTI Base Class Descriptor at (0,-1,0,64)'
PUBLIC	??_R1A@?0A@EA@CMapStringToString@@8		; CMapStringToString::`RTTI Base Class Descriptor at (0,-1,0,64)'
PUBLIC	??_R0?AVCMapStringToString@@@8			; CMapStringToString `RTTI Type Descriptor'
PUBLIC	??_R3CMapStringToString@@8			; CMapStringToString::`RTTI Class Hierarchy Descriptor'
PUBLIC	??_R2CMapStringToString@@8			; CMapStringToString::`RTTI Base Class Array'
PUBLIC	??_R1BM@?0A@EA@IPropertyMap@@8			; IPropertyMap::`RTTI Base Class Descriptor at (28,-1,0,64)'
PUBLIC	??_R4CPropertyMap@@6BIPropertyMap@@@		; CPropertyMap::`RTTI Complete Object Locator'
PUBLIC	??_R4IPacketList000000@@6B@			; IPacketList000000::`RTTI Complete Object Locator'
PUBLIC	??_R0?AUIPacketList000000@@@8			; IPacketList000000 `RTTI Type Descriptor'
PUBLIC	??_R3IPacketList000000@@8			; IPacketList000000::`RTTI Class Hierarchy Descriptor'
PUBLIC	??_R2IPacketList000000@@8			; IPacketList000000::`RTTI Base Class Array'
PUBLIC	??_R1A@?0A@EA@IPacketList000000@@8		; IPacketList000000::`RTTI Base Class Descriptor at (0,-1,0,64)'
PUBLIC	??_R4?$CList@PAUIPacket000000@@PAU1@@@6B@	; CList<IPacket000000 *,IPacket000000 *>::`RTTI Complete Object Locator'
PUBLIC	??_R0?AV?$CList@PAUIPacket000000@@PAU1@@@@8	; CList<IPacket000000 *,IPacket000000 *> `RTTI Type Descriptor'
PUBLIC	??_R3?$CList@PAUIPacket000000@@PAU1@@@8		; CList<IPacket000000 *,IPacket000000 *>::`RTTI Class Hierarchy Descriptor'
PUBLIC	??_R2?$CList@PAUIPacket000000@@PAU1@@@8		; CList<IPacket000000 *,IPacket000000 *>::`RTTI Base Class Array'
PUBLIC	??_R1A@?0A@EA@?$CList@PAUIPacket000000@@PAU1@@@8 ; CList<IPacket000000 *,IPacket000000 *>::`RTTI Base Class Descriptor at (0,-1,0,64)'
PUBLIC	??_R4CIPacketList000000@@6B?$CList@PAUIPacket000000@@PAU1@@@@ ; CIPacketList000000::`RTTI Complete Object Locator'
PUBLIC	??_R0?AVCIPacketList000000@@@8			; CIPacketList000000 `RTTI Type Descriptor'
PUBLIC	??_R3CIPacketList000000@@8			; CIPacketList000000::`RTTI Class Hierarchy Descriptor'
PUBLIC	??_R2CIPacketList000000@@8			; CIPacketList000000::`RTTI Base Class Array'
PUBLIC	??_R1A@?0A@EA@CIPacketList000000@@8		; CIPacketList000000::`RTTI Base Class Descriptor at (0,-1,0,64)'
PUBLIC	??_R1BM@?0A@EA@IPacketList000000@@8		; IPacketList000000::`RTTI Base Class Descriptor at (28,-1,0,64)'
PUBLIC	??_R1BM@?0A@EA@IUnknown@@8			; IUnknown::`RTTI Base Class Descriptor at (28,-1,0,64)'
PUBLIC	??_R4CIPacketList000000@@6BIPacketList000000@@@	; CIPacketList000000::`RTTI Complete Object Locator'
EXTRN	__purecall:PROC
EXTRN	??2@YAPAXI@Z:PROC				; operator new
EXTRN	??3@YAXPAX@Z:PROC				; operator delete
EXTRN	??3@YAXPAXI@Z:PROC				; operator delete
EXTRN	?__global_delete@@YAXPAXI@Z:PROC		; __global_delete
EXTRN	??_U@YAPAXI@Z:PROC				; operator new[]
EXTRN	??_V@YAXPAX@Z:PROC				; operator delete[]
EXTRN	_atexit:PROC
EXTRN	__Init_thread_header:PROC
EXTRN	__Init_thread_footer:PROC
EXTRN	___std_terminate:PROC
EXTRN	__imp__stricmp:PROC
EXTRN	__imp__CreateDirectoryA@8:PROC
EXTRN	__imp__GetLocalTime@4:PROC
EXTRN	__imp___lopen@8:PROC
EXTRN	__imp___lcreat@8:PROC
EXTRN	__imp___hwrite@12:PROC
EXTRN	__imp___lclose@4:PROC
EXTRN	__imp___llseek@12:PROC
EXTRN	?AfxThrowInvalidArgException@@YGXXZ:PROC	; AfxThrowInvalidArgException
EXTRN	?AfxThrowArchiveException@@YGXHPBD@Z:PROC	; AfxThrowArchiveException
EXTRN	?GetRuntimeClass@CObject@@UBEPAUCRuntimeClass@@XZ:PROC ; CObject::GetRuntimeClass
EXTRN	__imp_?Empty@?$CSimpleStringT@D$00@ATL@@QAEXXZ:PROC
EXTRN	__imp_?GetBufferSetLength@?$CSimpleStringT@D$00@ATL@@QAEPADH@Z:PROC
EXTRN	__imp_?Concatenate@?$CSimpleStringT@D$00@ATL@@KAXAAV12@PBDH1H@Z:PROC
EXTRN	__imp_??0?$CStringT@DV?$StrTraitMFC_DLL@DV?$ChTraitsCRT@D@ATL@@@@@ATL@@QAE@XZ:PROC
EXTRN	__imp_??0?$CStringT@DV?$StrTraitMFC_DLL@DV?$ChTraitsCRT@D@ATL@@@@@ATL@@QAE@PAUIAtlStringMgr@1@@Z:PROC
EXTRN	__imp_??0?$CStringT@DV?$StrTraitMFC_DLL@DV?$ChTraitsCRT@D@ATL@@@@@ATL@@QAE@PBD@Z:PROC
EXTRN	__imp_??1?$CStringT@DV?$StrTraitMFC_DLL@DV?$ChTraitsCRT@D@ATL@@@@@ATL@@QAE@XZ:PROC
EXTRN	__imp_??4?$CStringT@DV?$StrTraitMFC_DLL@DV?$ChTraitsCRT@D@ATL@@@@@ATL@@QAEAAV01@ABV01@@Z:PROC
EXTRN	__imp_??4?$CStringT@DV?$StrTraitMFC_DLL@DV?$ChTraitsCRT@D@ATL@@@@@ATL@@QAEAAV01@PBD@Z:PROC
EXTRN	__imp_??Y?$CStringT@DV?$StrTraitMFC_DLL@DV?$ChTraitsCRT@D@ATL@@@@@ATL@@QAEAAV01@ABV?$CSimpleStringT@D$00@1@@Z:PROC
EXTRN	__imp_?GetManager@?$CStringT@DV?$StrTraitMFC_DLL@DV?$ChTraitsCRT@D@ATL@@@@@ATL@@QBEPAUIAtlStringMgr@2@XZ:PROC
EXTRN	__imp_?Replace@?$CStringT@DV?$StrTraitMFC_DLL@DV?$ChTraitsCRT@D@ATL@@@@@ATL@@QAEHPBD0@Z:PROC
EXTRN	__imp_?Format@?$CStringT@DV?$StrTraitMFC_DLL@DV?$ChTraitsCRT@D@ATL@@@@@ATL@@QAAXPBDZZ:PROC
EXTRN	?Read@CArchive@@QAEIPAXI@Z:PROC			; CArchive::Read
EXTRN	?Write@CArchive@@QAEXPBXI@Z:PROC		; CArchive::Write
EXTRN	?ReadCount@CArchive@@QAEKXZ:PROC		; CArchive::ReadCount
EXTRN	?WriteCount@CArchive@@QAEXK@Z:PROC		; CArchive::WriteCount
EXTRN	??0CStringList@@QAE@H@Z:PROC			; CStringList::CStringList
EXTRN	?AddTail@CStringList@@QAEPAU__POSITION@@ABV?$CStringT@DV?$StrTraitMFC_DLL@DV?$ChTraitsCRT@D@ATL@@@@@ATL@@@Z:PROC ; CStringList::AddTail
EXTRN	??1CStringList@@UAE@XZ:PROC			; CStringList::~CStringList
EXTRN	?GetRuntimeClass@CMapStringToString@@UBEPAUCRuntimeClass@@XZ:PROC ; CMapStringToString::GetRuntimeClass
EXTRN	??0CMapStringToString@@QAE@H@Z:PROC		; CMapStringToString::CMapStringToString
EXTRN	?Lookup@CMapStringToString@@QBEHPBDAAV?$CStringT@DV?$StrTraitMFC_DLL@DV?$ChTraitsCRT@D@ATL@@@@@ATL@@@Z:PROC ; CMapStringToString::Lookup
EXTRN	?LookupKey@CMapStringToString@@QBEHPBDAAPBD@Z:PROC ; CMapStringToString::LookupKey
EXTRN	??ACMapStringToString@@QAEAAV?$CStringT@DV?$StrTraitMFC_DLL@DV?$ChTraitsCRT@D@ATL@@@@@ATL@@PBD@Z:PROC ; CMapStringToString::operator[]
EXTRN	?RemoveKey@CMapStringToString@@QAEHPBD@Z:PROC	; CMapStringToString::RemoveKey
EXTRN	?RemoveAll@CMapStringToString@@QAEXXZ:PROC	; CMapStringToString::RemoveAll
EXTRN	?GetNextAssoc@CMapStringToString@@QBEXAAPAU__POSITION@@AAV?$CStringT@DV?$StrTraitMFC_DLL@DV?$ChTraitsCRT@D@ATL@@@@@ATL@@1@Z:PROC ; CMapStringToString::GetNextAssoc
EXTRN	?InitHashTable@CMapStringToString@@QAEXIH@Z:PROC ; CMapStringToString::InitHashTable
EXTRN	??1CMapStringToString@@UAE@XZ:PROC		; CMapStringToString::~CMapStringToString
EXTRN	?Serialize@CMapStringToString@@UAEXAAVCArchive@@@Z:PROC ; CMapStringToString::Serialize
EXTRN	?Create@CPlex@@SGPAU1@AAPAU1@II@Z:PROC		; CPlex::Create
EXTRN	?FreeDataChain@CPlex@@QAEXXZ:PROC		; CPlex::FreeDataChain
EXTRN	?AddRef@CIWUnknown@@MAGKXZ:PROC			; CIWUnknown::AddRef
EXTRN	?Release@CIWUnknown@@MAGKXZ:PROC		; CIWUnknown::Release
EXTRN	??0CChartAddInBase000000@@IAE@PAUIChartOCX000000@@PAUIAddInDllBase@@@Z:PROC ; CChartAddInBase000000::CChartAddInBase000000
EXTRN	??1CChartAddInBase000000@@MAE@XZ:PROC		; CChartAddInBase000000::~CChartAddInBase000000
EXTRN	?HasFullManager@CChartAddInBase000000@@MAEHXZ:PROC ; CChartAddInBase000000::HasFullManager
EXTRN	?RegisterEventMap@CChartAddInBase000000@@UAEHH@Z:PROC ; CChartAddInBase000000::RegisterEventMap
EXTRN	?UnregisterEventMap@CChartAddInBase000000@@UAEHXZ:PROC ; CChartAddInBase000000::UnregisterEventMap
EXTRN	?OnOcxDestroyWindow@CChartAddInBase000000@@MAEXXZ:PROC ; CChartAddInBase000000::OnOcxDestroyWindow
EXTRN	??_ECLogAddInImp@@UAEPAXI@Z:PROC		; CLogAddInImp::`vector deleting destructor'
EXTRN	??_ECDumpLogger@@UAEPAXI@Z:PROC			; CDumpLogger::`vector deleting destructor'
EXTRN	??_EIPropertyMap@@MAEPAXI@Z:PROC		; IPropertyMap::`vector deleting destructor'
EXTRN	??_ECPropertyMap@@UAEPAXI@Z:PROC		; CPropertyMap::`vector deleting destructor'
EXTRN	??_EIPacketList000000@@MAEPAXI@Z:PROC		; IPacketList000000::`vector deleting destructor'
EXTRN	??_E?$CList@PAUIPacket000000@@PAU1@@@UAEPAXI@Z:PROC ; CList<IPacket000000 *,IPacket000000 *>::`vector deleting destructor'
EXTRN	??_ECIPacketList000000@@UAEPAXI@Z:PROC		; CIPacketList000000::`vector deleting destructor'
EXTRN	@__security_check_cookie@4:PROC
EXTRN	___CxxFrameHandler3:PROC
EXTRN	__Init_thread_epoch:DWORD
EXTRN	??_7type_info@@6B@:QWORD			; type_info::`vftable'
EXTRN	___security_cookie:DWORD
EXTRN	__fltused:DWORD
EXTRN	__tls_array:DWORD
EXTRN	__tls_index:DWORD
_BSS	SEGMENT
?m_strAddInItemName@CLogAddInImp@@2V?$CStringT@DV?$StrTraitMFC_DLL@DV?$ChTraitsCRT@D@ATL@@@@@ATL@@A DD 01H DUP (?) ; CLogAddInImp::m_strAddInItemName
_BSS	ENDS
;	COMDAT ?strValue@?1??Lookup@CPropertyMap@@EBEHPBDAAPBD@Z@4V?$CStringT@DV?$StrTraitMFC_DLL@DV?$ChTraitsCRT@D@ATL@@@@@ATL@@A
_BSS	SEGMENT
?strValue@?1??Lookup@CPropertyMap@@EBEHPBDAAPBD@Z@4V?$CStringT@DV?$StrTraitMFC_DLL@DV?$ChTraitsCRT@D@ATL@@@@@ATL@@A DD 01H DUP (?) ; `CPropertyMap::Lookup'::`2'::strValue
_BSS	ENDS
;	COMDAT ?$TSS0@?1??Lookup@CPropertyMap@@EBEHPBDAAPBD@Z@4HA
_BSS	SEGMENT
?$TSS0@?1??Lookup@CPropertyMap@@EBEHPBDAAPBD@Z@4HA DD 01H DUP (?) ; `CPropertyMap::Lookup'::`2'::$TSS0
_BSS	ENDS
;	COMDAT ?strKey@?1??GetNextAssoc@CPropertyMap@@EBEXAAPAU__POSITION@@AAPBD1@Z@4V?$CStringT@DV?$StrTraitMFC_DLL@DV?$ChTraitsCRT@D@ATL@@@@@ATL@@A
_BSS	SEGMENT
?strKey@?1??GetNextAssoc@CPropertyMap@@EBEXAAPAU__POSITION@@AAPBD1@Z@4V?$CStringT@DV?$StrTraitMFC_DLL@DV?$ChTraitsCRT@D@ATL@@@@@ATL@@A DD 01H DUP (?) ; `CPropertyMap::GetNextAssoc'::`2'::strKey
_BSS	ENDS
;	COMDAT ?$TSS0@?1??GetNextAssoc@CPropertyMap@@EBEXAAPAU__POSITION@@AAPBD1@Z@4HA
_BSS	SEGMENT
?$TSS0@?1??GetNextAssoc@CPropertyMap@@EBEXAAPAU__POSITION@@AAPBD1@Z@4HA DD 01H DUP (?) ; `CPropertyMap::GetNextAssoc'::`2'::$TSS0
_BSS	ENDS
;	COMDAT ?strValue@?1??GetNextAssoc@CPropertyMap@@EBEXAAPAU__POSITION@@AAPBD1@Z@4V?$CStringT@DV?$StrTraitMFC_DLL@DV?$ChTraitsCRT@D@ATL@@@@@ATL@@A
_BSS	SEGMENT
?strValue@?1??GetNextAssoc@CPropertyMap@@EBEXAAPAU__POSITION@@AAPBD1@Z@4V?$CStringT@DV?$StrTraitMFC_DLL@DV?$ChTraitsCRT@D@ATL@@@@@ATL@@A DD 01H DUP (?) ; `CPropertyMap::GetNextAssoc'::`2'::strValue
_BSS	ENDS
;	COMDAT ?$TSS1@?1??GetNextAssoc@CPropertyMap@@EBEXAAPAU__POSITION@@AAPBD1@Z@4HA
_BSS	SEGMENT
?$TSS1@?1??GetNextAssoc@CPropertyMap@@EBEXAAPAU__POSITION@@AAPBD1@Z@4HA DD 01H DUP (?) ; `CPropertyMap::GetNextAssoc'::`2'::$TSS1
_BSS	ENDS
CRT$XCU	SEGMENT
??m_strAddInItemName$initializer$@CLogAddInImp@@2P6AXXZA@@3P6AXXZA DD FLAT:??__E?m_strAddInItemName@CLogAddInImp@@2V?$CStringT@DV?$StrTraitMFC_DLL@DV?$ChTraitsCRT@D@ATL@@@@@ATL@@A@@YAXXZ ; ??m_strAddInItemName$initializer$@CLogAddInImp@@2P6AXXZA@@3P6AXXZA
CRT$XCU	ENDS
;	COMDAT ??_R4CIPacketList000000@@6BIPacketList000000@@@
rdata$r	SEGMENT
??_R4CIPacketList000000@@6BIPacketList000000@@@ DD 00H	; CIPacketList000000::`RTTI Complete Object Locator'
	DD	01cH
	DD	00H
	DD	FLAT:??_R0?AVCIPacketList000000@@@8
	DD	FLAT:??_R3CIPacketList000000@@8
rdata$r	ENDS
;	COMDAT ??_R1BM@?0A@EA@IUnknown@@8
rdata$r	SEGMENT
??_R1BM@?0A@EA@IUnknown@@8 DD FLAT:??_R0?AUIUnknown@@@8	; IUnknown::`RTTI Base Class Descriptor at (28,-1,0,64)'
	DD	00H
	DD	01cH
	DD	0ffffffffH
	DD	00H
	DD	040H
	DD	FLAT:??_R3IUnknown@@8
rdata$r	ENDS
;	COMDAT ??_R1BM@?0A@EA@IPacketList000000@@8
rdata$r	SEGMENT
??_R1BM@?0A@EA@IPacketList000000@@8 DD FLAT:??_R0?AUIPacketList000000@@@8 ; IPacketList000000::`RTTI Base Class Descriptor at (28,-1,0,64)'
	DD	01H
	DD	01cH
	DD	0ffffffffH
	DD	00H
	DD	040H
	DD	FLAT:??_R3IPacketList000000@@8
rdata$r	ENDS
;	COMDAT ??_R1A@?0A@EA@CIPacketList000000@@8
rdata$r	SEGMENT
??_R1A@?0A@EA@CIPacketList000000@@8 DD FLAT:??_R0?AVCIPacketList000000@@@8 ; CIPacketList000000::`RTTI Base Class Descriptor at (0,-1,0,64)'
	DD	04H
	DD	00H
	DD	0ffffffffH
	DD	00H
	DD	040H
	DD	FLAT:??_R3CIPacketList000000@@8
rdata$r	ENDS
;	COMDAT ??_R2CIPacketList000000@@8
rdata$r	SEGMENT
??_R2CIPacketList000000@@8 DD FLAT:??_R1A@?0A@EA@CIPacketList000000@@8 ; CIPacketList000000::`RTTI Base Class Array'
	DD	FLAT:??_R1A@?0A@EA@?$CList@PAUIPacket000000@@PAU1@@@8
	DD	FLAT:??_R1A@?0A@EA@CObject@@8
	DD	FLAT:??_R1BM@?0A@EA@IPacketList000000@@8
	DD	FLAT:??_R1BM@?0A@EA@IUnknown@@8
rdata$r	ENDS
;	COMDAT ??_R3CIPacketList000000@@8
rdata$r	SEGMENT
??_R3CIPacketList000000@@8 DD 00H			; CIPacketList000000::`RTTI Class Hierarchy Descriptor'
	DD	01H
	DD	05H
	DD	FLAT:??_R2CIPacketList000000@@8
rdata$r	ENDS
;	COMDAT ??_R0?AVCIPacketList000000@@@8
data$rs	SEGMENT
??_R0?AVCIPacketList000000@@@8 DD FLAT:??_7type_info@@6B@ ; CIPacketList000000 `RTTI Type Descriptor'
	DD	00H
	DB	'.?AVCIPacketList000000@@', 00H
data$rs	ENDS
;	COMDAT ??_R4CIPacketList000000@@6B?$CList@PAUIPacket000000@@PAU1@@@@
rdata$r	SEGMENT
??_R4CIPacketList000000@@6B?$CList@PAUIPacket000000@@PAU1@@@@ DD 00H ; CIPacketList000000::`RTTI Complete Object Locator'
	DD	00H
	DD	00H
	DD	FLAT:??_R0?AVCIPacketList000000@@@8
	DD	FLAT:??_R3CIPacketList000000@@8
rdata$r	ENDS
;	COMDAT ??_R1A@?0A@EA@?$CList@PAUIPacket000000@@PAU1@@@8
rdata$r	SEGMENT
??_R1A@?0A@EA@?$CList@PAUIPacket000000@@PAU1@@@8 DD FLAT:??_R0?AV?$CList@PAUIPacket000000@@PAU1@@@@8 ; CList<IPacket000000 *,IPacket000000 *>::`RTTI Base Class Descriptor at (0,-1,0,64)'
	DD	01H
	DD	00H
	DD	0ffffffffH
	DD	00H
	DD	040H
	DD	FLAT:??_R3?$CList@PAUIPacket000000@@PAU1@@@8
rdata$r	ENDS
;	COMDAT ??_R2?$CList@PAUIPacket000000@@PAU1@@@8
rdata$r	SEGMENT
??_R2?$CList@PAUIPacket000000@@PAU1@@@8 DD FLAT:??_R1A@?0A@EA@?$CList@PAUIPacket000000@@PAU1@@@8 ; CList<IPacket000000 *,IPacket000000 *>::`RTTI Base Class Array'
	DD	FLAT:??_R1A@?0A@EA@CObject@@8
rdata$r	ENDS
;	COMDAT ??_R3?$CList@PAUIPacket000000@@PAU1@@@8
rdata$r	SEGMENT
??_R3?$CList@PAUIPacket000000@@PAU1@@@8 DD 00H		; CList<IPacket000000 *,IPacket000000 *>::`RTTI Class Hierarchy Descriptor'
	DD	00H
	DD	02H
	DD	FLAT:??_R2?$CList@PAUIPacket000000@@PAU1@@@8
rdata$r	ENDS
;	COMDAT ??_R0?AV?$CList@PAUIPacket000000@@PAU1@@@@8
data$rs	SEGMENT
??_R0?AV?$CList@PAUIPacket000000@@PAU1@@@@8 DD FLAT:??_7type_info@@6B@ ; CList<IPacket000000 *,IPacket000000 *> `RTTI Type Descriptor'
	DD	00H
	DB	'.?AV?$CList@PAUIPacket000000@@PAU1@@@', 00H
data$rs	ENDS
;	COMDAT ??_R4?$CList@PAUIPacket000000@@PAU1@@@6B@
rdata$r	SEGMENT
??_R4?$CList@PAUIPacket000000@@PAU1@@@6B@ DD 00H	; CList<IPacket000000 *,IPacket000000 *>::`RTTI Complete Object Locator'
	DD	00H
	DD	00H
	DD	FLAT:??_R0?AV?$CList@PAUIPacket000000@@PAU1@@@@8
	DD	FLAT:??_R3?$CList@PAUIPacket000000@@PAU1@@@8
rdata$r	ENDS
;	COMDAT ??_R1A@?0A@EA@IPacketList000000@@8
rdata$r	SEGMENT
??_R1A@?0A@EA@IPacketList000000@@8 DD FLAT:??_R0?AUIPacketList000000@@@8 ; IPacketList000000::`RTTI Base Class Descriptor at (0,-1,0,64)'
	DD	01H
	DD	00H
	DD	0ffffffffH
	DD	00H
	DD	040H
	DD	FLAT:??_R3IPacketList000000@@8
rdata$r	ENDS
;	COMDAT ??_R2IPacketList000000@@8
rdata$r	SEGMENT
??_R2IPacketList000000@@8 DD FLAT:??_R1A@?0A@EA@IPacketList000000@@8 ; IPacketList000000::`RTTI Base Class Array'
	DD	FLAT:??_R1A@?0A@EA@IUnknown@@8
rdata$r	ENDS
;	COMDAT ??_R3IPacketList000000@@8
rdata$r	SEGMENT
??_R3IPacketList000000@@8 DD 00H			; IPacketList000000::`RTTI Class Hierarchy Descriptor'
	DD	00H
	DD	02H
	DD	FLAT:??_R2IPacketList000000@@8
rdata$r	ENDS
;	COMDAT ??_R0?AUIPacketList000000@@@8
data$rs	SEGMENT
??_R0?AUIPacketList000000@@@8 DD FLAT:??_7type_info@@6B@ ; IPacketList000000 `RTTI Type Descriptor'
	DD	00H
	DB	'.?AUIPacketList000000@@', 00H
data$rs	ENDS
;	COMDAT ??_R4IPacketList000000@@6B@
rdata$r	SEGMENT
??_R4IPacketList000000@@6B@ DD 00H			; IPacketList000000::`RTTI Complete Object Locator'
	DD	00H
	DD	00H
	DD	FLAT:??_R0?AUIPacketList000000@@@8
	DD	FLAT:??_R3IPacketList000000@@8
rdata$r	ENDS
;	COMDAT ??_R4CPropertyMap@@6BIPropertyMap@@@
rdata$r	SEGMENT
??_R4CPropertyMap@@6BIPropertyMap@@@ DD 00H		; CPropertyMap::`RTTI Complete Object Locator'
	DD	01cH
	DD	00H
	DD	FLAT:??_R0?AVCPropertyMap@@@8
	DD	FLAT:??_R3CPropertyMap@@8
rdata$r	ENDS
;	COMDAT ??_R1BM@?0A@EA@IPropertyMap@@8
rdata$r	SEGMENT
??_R1BM@?0A@EA@IPropertyMap@@8 DD FLAT:??_R0?AUIPropertyMap@@@8 ; IPropertyMap::`RTTI Base Class Descriptor at (28,-1,0,64)'
	DD	00H
	DD	01cH
	DD	0ffffffffH
	DD	00H
	DD	040H
	DD	FLAT:??_R3IPropertyMap@@8
rdata$r	ENDS
;	COMDAT ??_R2CMapStringToString@@8
rdata$r	SEGMENT
??_R2CMapStringToString@@8 DD FLAT:??_R1A@?0A@EA@CMapStringToString@@8 ; CMapStringToString::`RTTI Base Class Array'
	DD	FLAT:??_R1A@?0A@EA@CObject@@8
rdata$r	ENDS
;	COMDAT ??_R3CMapStringToString@@8
rdata$r	SEGMENT
??_R3CMapStringToString@@8 DD 00H			; CMapStringToString::`RTTI Class Hierarchy Descriptor'
	DD	00H
	DD	02H
	DD	FLAT:??_R2CMapStringToString@@8
rdata$r	ENDS
;	COMDAT ??_R0?AVCMapStringToString@@@8
data$rs	SEGMENT
??_R0?AVCMapStringToString@@@8 DD FLAT:??_7type_info@@6B@ ; CMapStringToString `RTTI Type Descriptor'
	DD	00H
	DB	'.?AVCMapStringToString@@', 00H
data$rs	ENDS
;	COMDAT ??_R1A@?0A@EA@CMapStringToString@@8
rdata$r	SEGMENT
??_R1A@?0A@EA@CMapStringToString@@8 DD FLAT:??_R0?AVCMapStringToString@@@8 ; CMapStringToString::`RTTI Base Class Descriptor at (0,-1,0,64)'
	DD	01H
	DD	00H
	DD	0ffffffffH
	DD	00H
	DD	040H
	DD	FLAT:??_R3CMapStringToString@@8
rdata$r	ENDS
;	COMDAT ??_R1A@?0A@EA@CPropertyMap@@8
rdata$r	SEGMENT
??_R1A@?0A@EA@CPropertyMap@@8 DD FLAT:??_R0?AVCPropertyMap@@@8 ; CPropertyMap::`RTTI Base Class Descriptor at (0,-1,0,64)'
	DD	03H
	DD	00H
	DD	0ffffffffH
	DD	00H
	DD	040H
	DD	FLAT:??_R3CPropertyMap@@8
rdata$r	ENDS
;	COMDAT ??_R2CPropertyMap@@8
rdata$r	SEGMENT
??_R2CPropertyMap@@8 DD FLAT:??_R1A@?0A@EA@CPropertyMap@@8 ; CPropertyMap::`RTTI Base Class Array'
	DD	FLAT:??_R1A@?0A@EA@CMapStringToString@@8
	DD	FLAT:??_R1A@?0A@EA@CObject@@8
	DD	FLAT:??_R1BM@?0A@EA@IPropertyMap@@8
rdata$r	ENDS
;	COMDAT ??_R3CPropertyMap@@8
rdata$r	SEGMENT
??_R3CPropertyMap@@8 DD 00H				; CPropertyMap::`RTTI Class Hierarchy Descriptor'
	DD	01H
	DD	04H
	DD	FLAT:??_R2CPropertyMap@@8
rdata$r	ENDS
;	COMDAT ??_R0?AVCPropertyMap@@@8
data$rs	SEGMENT
??_R0?AVCPropertyMap@@@8 DD FLAT:??_7type_info@@6B@	; CPropertyMap `RTTI Type Descriptor'
	DD	00H
	DB	'.?AVCPropertyMap@@', 00H
data$rs	ENDS
;	COMDAT ??_R4CPropertyMap@@6BCMapStringToString@@@
rdata$r	SEGMENT
??_R4CPropertyMap@@6BCMapStringToString@@@ DD 00H	; CPropertyMap::`RTTI Complete Object Locator'
	DD	00H
	DD	00H
	DD	FLAT:??_R0?AVCPropertyMap@@@8
	DD	FLAT:??_R3CPropertyMap@@8
rdata$r	ENDS
;	COMDAT ??_R4CLogAddInImp@@6BIChartAddIn000000@@@
rdata$r	SEGMENT
??_R4CLogAddInImp@@6BIChartAddIn000000@@@ DD 00H	; CLogAddInImp::`RTTI Complete Object Locator'
	DD	08H
	DD	00H
	DD	FLAT:??_R0?AVCLogAddInImp@@@8
	DD	FLAT:??_R3CLogAddInImp@@8
rdata$r	ENDS
;	COMDAT ??_R17?0A@EA@IUnknown@@8
rdata$r	SEGMENT
??_R17?0A@EA@IUnknown@@8 DD FLAT:??_R0?AUIUnknown@@@8	; IUnknown::`RTTI Base Class Descriptor at (8,-1,0,64)'
	DD	00H
	DD	08H
	DD	0ffffffffH
	DD	00H
	DD	040H
	DD	FLAT:??_R3IUnknown@@8
rdata$r	ENDS
;	COMDAT ??_R17?0A@EA@IChartAddIn000000@@8
rdata$r	SEGMENT
??_R17?0A@EA@IChartAddIn000000@@8 DD FLAT:??_R0?AUIChartAddIn000000@@@8 ; IChartAddIn000000::`RTTI Base Class Descriptor at (8,-1,0,64)'
	DD	01H
	DD	08H
	DD	0ffffffffH
	DD	00H
	DD	040H
	DD	FLAT:??_R3IChartAddIn000000@@8
rdata$r	ENDS
;	COMDAT ??_R2CIWUnknown@@8
rdata$r	SEGMENT
??_R2CIWUnknown@@8 DD FLAT:??_R1A@?0A@EA@CIWUnknown@@8	; CIWUnknown::`RTTI Base Class Array'
	DD	FLAT:??_R1A@?0A@EA@CObject@@8
rdata$r	ENDS
;	COMDAT ??_R3CIWUnknown@@8
rdata$r	SEGMENT
??_R3CIWUnknown@@8 DD 00H				; CIWUnknown::`RTTI Class Hierarchy Descriptor'
	DD	00H
	DD	02H
	DD	FLAT:??_R2CIWUnknown@@8
rdata$r	ENDS
;	COMDAT ??_R0?AVCIWUnknown@@@8
data$rs	SEGMENT
??_R0?AVCIWUnknown@@@8 DD FLAT:??_7type_info@@6B@	; CIWUnknown `RTTI Type Descriptor'
	DD	00H
	DB	'.?AVCIWUnknown@@', 00H
data$rs	ENDS
;	COMDAT ??_R1A@?0A@EA@CIWUnknown@@8
rdata$r	SEGMENT
??_R1A@?0A@EA@CIWUnknown@@8 DD FLAT:??_R0?AVCIWUnknown@@@8 ; CIWUnknown::`RTTI Base Class Descriptor at (0,-1,0,64)'
	DD	01H
	DD	00H
	DD	0ffffffffH
	DD	00H
	DD	040H
	DD	FLAT:??_R3CIWUnknown@@8
rdata$r	ENDS
;	COMDAT ??_R2CChartAddInBase000000@@8
rdata$r	SEGMENT
??_R2CChartAddInBase000000@@8 DD FLAT:??_R1A@?0A@EA@CChartAddInBase000000@@8 ; CChartAddInBase000000::`RTTI Base Class Array'
	DD	FLAT:??_R1A@?0A@EA@CIWUnknown@@8
	DD	FLAT:??_R1A@?0A@EA@CObject@@8
	DD	FLAT:??_R17?0A@EA@IChartAddIn000000@@8
	DD	FLAT:??_R17?0A@EA@IUnknown@@8
rdata$r	ENDS
;	COMDAT ??_R3CChartAddInBase000000@@8
rdata$r	SEGMENT
??_R3CChartAddInBase000000@@8 DD 00H			; CChartAddInBase000000::`RTTI Class Hierarchy Descriptor'
	DD	01H
	DD	05H
	DD	FLAT:??_R2CChartAddInBase000000@@8
rdata$r	ENDS
;	COMDAT ??_R0?AVCChartAddInBase000000@@@8
data$rs	SEGMENT
??_R0?AVCChartAddInBase000000@@@8 DD FLAT:??_7type_info@@6B@ ; CChartAddInBase000000 `RTTI Type Descriptor'
	DD	00H
	DB	'.?AVCChartAddInBase000000@@', 00H
data$rs	ENDS
;	COMDAT ??_R1A@?0A@EA@CChartAddInBase000000@@8
rdata$r	SEGMENT
??_R1A@?0A@EA@CChartAddInBase000000@@8 DD FLAT:??_R0?AVCChartAddInBase000000@@@8 ; CChartAddInBase000000::`RTTI Base Class Descriptor at (0,-1,0,64)'
	DD	04H
	DD	00H
	DD	0ffffffffH
	DD	00H
	DD	040H
	DD	FLAT:??_R3CChartAddInBase000000@@8
rdata$r	ENDS
;	COMDAT ??_R1A@?0A@EA@CLogAddInImp@@8
rdata$r	SEGMENT
??_R1A@?0A@EA@CLogAddInImp@@8 DD FLAT:??_R0?AVCLogAddInImp@@@8 ; CLogAddInImp::`RTTI Base Class Descriptor at (0,-1,0,64)'
	DD	05H
	DD	00H
	DD	0ffffffffH
	DD	00H
	DD	040H
	DD	FLAT:??_R3CLogAddInImp@@8
rdata$r	ENDS
;	COMDAT ??_R2CLogAddInImp@@8
rdata$r	SEGMENT
??_R2CLogAddInImp@@8 DD FLAT:??_R1A@?0A@EA@CLogAddInImp@@8 ; CLogAddInImp::`RTTI Base Class Array'
	DD	FLAT:??_R1A@?0A@EA@CChartAddInBase000000@@8
	DD	FLAT:??_R1A@?0A@EA@CIWUnknown@@8
	DD	FLAT:??_R1A@?0A@EA@CObject@@8
	DD	FLAT:??_R17?0A@EA@IChartAddIn000000@@8
	DD	FLAT:??_R17?0A@EA@IUnknown@@8
rdata$r	ENDS
;	COMDAT ??_R3CLogAddInImp@@8
rdata$r	SEGMENT
??_R3CLogAddInImp@@8 DD 00H				; CLogAddInImp::`RTTI Class Hierarchy Descriptor'
	DD	01H
	DD	06H
	DD	FLAT:??_R2CLogAddInImp@@8
rdata$r	ENDS
;	COMDAT ??_R0?AVCLogAddInImp@@@8
data$rs	SEGMENT
??_R0?AVCLogAddInImp@@@8 DD FLAT:??_7type_info@@6B@	; CLogAddInImp `RTTI Type Descriptor'
	DD	00H
	DB	'.?AVCLogAddInImp@@', 00H
data$rs	ENDS
;	COMDAT ??_R4CLogAddInImp@@6BCIWUnknown@@@
rdata$r	SEGMENT
??_R4CLogAddInImp@@6BCIWUnknown@@@ DD 00H		; CLogAddInImp::`RTTI Complete Object Locator'
	DD	00H
	DD	00H
	DD	FLAT:??_R0?AVCLogAddInImp@@@8
	DD	FLAT:??_R3CLogAddInImp@@8
rdata$r	ENDS
;	COMDAT ??_R1A@?0A@EA@CDumpLogger@@8
rdata$r	SEGMENT
??_R1A@?0A@EA@CDumpLogger@@8 DD FLAT:??_R0?AVCDumpLogger@@@8 ; CDumpLogger::`RTTI Base Class Descriptor at (0,-1,0,64)'
	DD	01H
	DD	00H
	DD	0ffffffffH
	DD	00H
	DD	040H
	DD	FLAT:??_R3CDumpLogger@@8
rdata$r	ENDS
;	COMDAT ??_R2CDumpLogger@@8
rdata$r	SEGMENT
??_R2CDumpLogger@@8 DD FLAT:??_R1A@?0A@EA@CDumpLogger@@8 ; CDumpLogger::`RTTI Base Class Array'
	DD	FLAT:??_R1A@?0A@EA@CObject@@8
rdata$r	ENDS
;	COMDAT ??_R3CDumpLogger@@8
rdata$r	SEGMENT
??_R3CDumpLogger@@8 DD 00H				; CDumpLogger::`RTTI Class Hierarchy Descriptor'
	DD	00H
	DD	02H
	DD	FLAT:??_R2CDumpLogger@@8
rdata$r	ENDS
;	COMDAT ??_R0?AVCDumpLogger@@@8
data$rs	SEGMENT
??_R0?AVCDumpLogger@@@8 DD FLAT:??_7type_info@@6B@	; CDumpLogger `RTTI Type Descriptor'
	DD	00H
	DB	'.?AVCDumpLogger@@', 00H
data$rs	ENDS
;	COMDAT ??_R4CDumpLogger@@6B@
rdata$r	SEGMENT
??_R4CDumpLogger@@6B@ DD 00H				; CDumpLogger::`RTTI Complete Object Locator'
	DD	00H
	DD	00H
	DD	FLAT:??_R0?AVCDumpLogger@@@8
	DD	FLAT:??_R3CDumpLogger@@8
rdata$r	ENDS
;	COMDAT ??_R1A@?0A@EA@IChartAddIn000000@@8
rdata$r	SEGMENT
??_R1A@?0A@EA@IChartAddIn000000@@8 DD FLAT:??_R0?AUIChartAddIn000000@@@8 ; IChartAddIn000000::`RTTI Base Class Descriptor at (0,-1,0,64)'
	DD	01H
	DD	00H
	DD	0ffffffffH
	DD	00H
	DD	040H
	DD	FLAT:??_R3IChartAddIn000000@@8
rdata$r	ENDS
;	COMDAT ??_R2IChartAddIn000000@@8
rdata$r	SEGMENT
??_R2IChartAddIn000000@@8 DD FLAT:??_R1A@?0A@EA@IChartAddIn000000@@8 ; IChartAddIn000000::`RTTI Base Class Array'
	DD	FLAT:??_R1A@?0A@EA@IUnknown@@8
rdata$r	ENDS
;	COMDAT ??_R3IChartAddIn000000@@8
rdata$r	SEGMENT
??_R3IChartAddIn000000@@8 DD 00H			; IChartAddIn000000::`RTTI Class Hierarchy Descriptor'
	DD	00H
	DD	02H
	DD	FLAT:??_R2IChartAddIn000000@@8
rdata$r	ENDS
;	COMDAT ??_R0?AUIChartAddIn000000@@@8
data$rs	SEGMENT
??_R0?AUIChartAddIn000000@@@8 DD FLAT:??_7type_info@@6B@ ; IChartAddIn000000 `RTTI Type Descriptor'
	DD	00H
	DB	'.?AUIChartAddIn000000@@', 00H
data$rs	ENDS
;	COMDAT ??_R1A@?0A@EA@IPropertyMap@@8
rdata$r	SEGMENT
??_R1A@?0A@EA@IPropertyMap@@8 DD FLAT:??_R0?AUIPropertyMap@@@8 ; IPropertyMap::`RTTI Base Class Descriptor at (0,-1,0,64)'
	DD	00H
	DD	00H
	DD	0ffffffffH
	DD	00H
	DD	040H
	DD	FLAT:??_R3IPropertyMap@@8
rdata$r	ENDS
;	COMDAT ??_R2IPropertyMap@@8
rdata$r	SEGMENT
??_R2IPropertyMap@@8 DD FLAT:??_R1A@?0A@EA@IPropertyMap@@8 ; IPropertyMap::`RTTI Base Class Array'
rdata$r	ENDS
;	COMDAT ??_R3IPropertyMap@@8
rdata$r	SEGMENT
??_R3IPropertyMap@@8 DD 00H				; IPropertyMap::`RTTI Class Hierarchy Descriptor'
	DD	00H
	DD	01H
	DD	FLAT:??_R2IPropertyMap@@8
rdata$r	ENDS
;	COMDAT ??_R0?AUIPropertyMap@@@8
data$rs	SEGMENT
??_R0?AUIPropertyMap@@@8 DD FLAT:??_7type_info@@6B@	; IPropertyMap `RTTI Type Descriptor'
	DD	00H
	DB	'.?AUIPropertyMap@@', 00H
data$rs	ENDS
;	COMDAT ??_R4IPropertyMap@@6B@
rdata$r	SEGMENT
??_R4IPropertyMap@@6B@ DD 00H				; IPropertyMap::`RTTI Complete Object Locator'
	DD	00H
	DD	00H
	DD	FLAT:??_R0?AUIPropertyMap@@@8
	DD	FLAT:??_R3IPropertyMap@@8
rdata$r	ENDS
;	COMDAT ??_C@_0BO@FECOABGG@OnLButtonDblClk?7?$CFud?7?$CFld?7?$CFld?$AN?6@
CONST	SEGMENT
??_C@_0BO@FECOABGG@OnLButtonDblClk?7?$CFud?7?$CFld?7?$CFld?$AN?6@ DB 'OnL'
	DB	'ButtonDblClk', 09H, '%ud', 09H, '%ld', 09H, '%ld', 0dH, 0aH, 00H ; `string'
CONST	ENDS
;	COMDAT ??_C@_0BI@DCLFLHGC@OnKeyDown?7?$CFud?7?$CFud?7?$CFud?$AN?6@
CONST	SEGMENT
??_C@_0BI@DCLFLHGC@OnKeyDown?7?$CFud?7?$CFud?7?$CFud?$AN?6@ DB 'OnKeyDown'
	DB	09H, '%ud', 09H, '%ud', 09H, '%ud', 0dH, 0aH, 00H ; `string'
CONST	ENDS
;	COMDAT ??_C@_0BF@DGGOINLJ@WriteLogMessage?7?$CFs?$AN?6@
CONST	SEGMENT
??_C@_0BF@DGGOINLJ@WriteLogMessage?7?$CFs?$AN?6@ DB 'WriteLogMessage', 09H
	DB	'%s', 0dH, 0aH, 00H				; `string'
CONST	ENDS
;	COMDAT ??_C@_0BH@LJIELJFE@?$FLCurrent?5Properties?$FN?$AN?6@
CONST	SEGMENT
??_C@_0BH@LJIELJFE@?$FLCurrent?5Properties?$FN?$AN?6@ DB '[Current Proper'
	DB	'ties]', 0dH, 0aH, 00H			; `string'
CONST	ENDS
;	COMDAT ??_C@_0CF@KDOONFGL@OnNormalizedMinuteTimeRuleReset@
CONST	SEGMENT
??_C@_0CF@KDOONFGL@OnNormalizedMinuteTimeRuleReset@ DB 'OnNormalizedMinut'
	DB	'eTimeRuleReset', 09H, '%s', 0dH, 0aH, 00H	; `string'
CONST	ENDS
;	COMDAT ??_C@_05MAJJAKPI@FALSE@
CONST	SEGMENT
??_C@_05MAJJAKPI@FALSE@ DB 'FALSE', 00H			; `string'
CONST	ENDS
;	COMDAT ??_C@_04HCDDPBNL@TRUE@
CONST	SEGMENT
??_C@_04HCDDPBNL@TRUE@ DB 'TRUE', 00H			; `string'
CONST	ENDS
;	COMDAT ??_C@_0BK@BKCDMIFI@OnRealSettingChanged?7?$CFs?$AN?6@
CONST	SEGMENT
??_C@_0BK@BKCDMIFI@OnRealSettingChanged?7?$CFs?$AN?6@ DB 'OnRealSettingCh'
	DB	'anged', 09H, '%s', 0dH, 0aH, 00H		; `string'
CONST	ENDS
;	COMDAT ??_C@_0BN@NBCJMOLF@OffDrdsAdvise?7?$CFu?7?$CFs?4?$CFs?$CI?$CFs?$CJ?$AN?6@
CONST	SEGMENT
??_C@_0BN@NBCJMOLF@OffDrdsAdvise?7?$CFu?7?$CFs?4?$CFs?$CI?$CFs?$CJ?$AN?6@ DB 'O'
	DB	'ffDrdsAdvise', 09H, '%u', 09H, '%s.%s(%s)', 0dH, 0aH, 00H ; `string'
CONST	ENDS
;	COMDAT ??_C@_0BM@IICBOOGN@OnDrdsAdvise?7?$CFu?7?$CFs?4?$CFs?$CI?$CFs?$CJ?$AN?6@
CONST	SEGMENT
??_C@_0BM@IICBOOGN@OnDrdsAdvise?7?$CFu?7?$CFs?4?$CFs?$CI?$CFs?$CJ?$AN?6@ DB 'O'
	DB	'nDrdsAdvise', 09H, '%u', 09H, '%s.%s(%s)', 0dH, 0aH, 00H ; `string'
CONST	ENDS
;	COMDAT ??_C@_0BG@ILBABEIL@OnRealPacketEnd?7?3?$CFs?$AN?6@
CONST	SEGMENT
??_C@_0BG@ILBABEIL@OnRealPacketEnd?7?3?$CFs?$AN?6@ DB 'OnRealPacketEnd', 09H
	DB	':%s', 0dH, 0aH, 00H				; `string'
CONST	ENDS
;	COMDAT ??_C@_07CMNLJIKL@?$FL?$CFd?$FN?7?$CFf@
CONST	SEGMENT
??_C@_07CMNLJIKL@?$FL?$CFd?$FN?7?$CFf@ DB '[%d]', 09H, '%f', 00H ; `string'
CONST	ENDS
;	COMDAT ??_C@_02NJPGOMH@?$CFf@
CONST	SEGMENT
??_C@_02NJPGOMH@?$CFf@ DB '%f', 00H			; `string'
CONST	ENDS
;	COMDAT ??_C@_02JKOLDJMA@?7?5@
CONST	SEGMENT
??_C@_02JKOLDJMA@?7?5@ DB 09H, ' ', 00H			; `string'
CONST	ENDS
;	COMDAT ??_C@_03JJCHMBFH@?7?$CFs@
CONST	SEGMENT
??_C@_03JJCHMBFH@?7?$CFs@ DB 09H, '%s', 00H		; `string'
CONST	ENDS
;	COMDAT ??_C@_03KOJCCHED@?7?$CFf@
CONST	SEGMENT
??_C@_03KOJCCHED@?7?$CFf@ DB 09H, '%f', 00H		; `string'
CONST	ENDS
;	COMDAT ??_C@_0CC@BCEEFGNA@OnPacketDataMultiItem?9TrData?7?$CFs@
CONST	SEGMENT
??_C@_0CC@BCEEFGNA@OnPacketDataMultiItem?9TrData?7?$CFs@ DB 'OnPacketData'
	DB	'MultiItem-TrData', 09H, '%s%d', 00H		; `string'
CONST	ENDS
;	COMDAT ??_C@_01ICJEACDI@?$DL@
CONST	SEGMENT
??_C@_01ICJEACDI@?$DL@ DB ';', 00H			; `string'
CONST	ENDS
;	COMDAT ??_C@_01GPOEFGEJ@?7@
CONST	SEGMENT
??_C@_01GPOEFGEJ@?7@ DB 09H, 00H			; `string'
CONST	ENDS
;	COMDAT ??_C@_0CE@GFHPIFHK@OnPacketDataMultiItem?9HelpMessa@
CONST	SEGMENT
??_C@_0CE@GFHPIFHK@OnPacketDataMultiItem?9HelpMessa@ DB 'OnPacketDataMult'
	DB	'iItem-HelpMessage', 0dH, 0aH, 00H		; `string'
CONST	ENDS
;	COMDAT ??_C@_0P@JMOEIKKC@OnResetChart?$AN?6@
CONST	SEGMENT
??_C@_0P@JMOEIKKC@OnResetChart?$AN?6@ DB 'OnResetChart', 0dH, 0aH, 00H ; `string'
CONST	ENDS
;	COMDAT ??_C@_0BM@LLNGPKFK@OnLSharedDataChange?7?$CFs?7?$CFs?$AN?6@
CONST	SEGMENT
??_C@_0BM@LLNGPKFK@OnLSharedDataChange?7?$CFs?7?$CFs?$AN?6@ DB 'OnLShared'
	DB	'DataChange', 09H, '%s', 09H, '%s', 0dH, 0aH, 00H ; `string'
CONST	ENDS
;	COMDAT ??_C@_0BP@HFGPJKIL@OnGSharedDataChange?7?$CFs?7?$CFs?7?$CFd?$AN?6@
CONST	SEGMENT
??_C@_0BP@HFGPJKIL@OnGSharedDataChange?7?$CFs?7?$CFs?7?$CFd?$AN?6@ DB 'On'
	DB	'GSharedDataChange', 09H, '%s', 09H, '%s', 09H, '%d', 0dH, 0aH
	DB	00H						; `string'
CONST	ENDS
;	COMDAT ??_C@_0BH@KDLBAJON@InvokeAddInStr?7?$CFs?7?$CFs?$AN?6@
CONST	SEGMENT
??_C@_0BH@KDLBAJON@InvokeAddInStr?7?$CFs?7?$CFs?$AN?6@ DB 'InvokeAddInStr'
	DB	09H, '%s', 09H, '%s', 0dH, 0aH, 00H		; `string'
CONST	ENDS
;	COMDAT ??_C@_0M@KCNCPKNK@LOGPROPERTY@
CONST	SEGMENT
??_C@_0M@KCNCPKNK@LOGPROPERTY@ DB 'LOGPROPERTY', 00H	; `string'
CONST	ENDS
;	COMDAT ??_C@_07IBNALNMK@LOGFILE@
CONST	SEGMENT
??_C@_07IBNALNMK@LOGFILE@ DB 'LOGFILE', 00H		; `string'
CONST	ENDS
;	COMDAT ??_7CIPacketList000000@@6BIPacketList000000@@@
CONST	SEGMENT
??_7CIPacketList000000@@6BIPacketList000000@@@ DD FLAT:??_R4CIPacketList000000@@6BIPacketList000000@@@ ; CIPacketList000000::`vftable'
	DD	FLAT:?QueryInterface@CIPacketList000000@@MAGJABU_GUID@@PAPAX@Z
	DD	FLAT:?AddRef@CIPacketList000000@@MAGKXZ
	DD	FLAT:?Release@CIPacketList000000@@MAGKXZ
	DD	FLAT:??_ECIPacketList000000@@WBM@AEPAXI@Z
	DD	FLAT:?GetCount@CIPacketList000000@@UBEHXZ
	DD	FLAT:?IsEmpty@CIPacketList000000@@UBEHXZ
	DD	FLAT:?GetHead@CIPacketList000000@@UBEPAUIPacket000000@@XZ
	DD	FLAT:?GetTail@CIPacketList000000@@UBEPAUIPacket000000@@XZ
	DD	FLAT:?RemoveHead@CIPacketList000000@@UAEPAUIPacket000000@@XZ
	DD	FLAT:?RemoveTail@CIPacketList000000@@UAEPAUIPacket000000@@XZ
	DD	FLAT:?AddHead@CIPacketList000000@@UAEXPAUIPacketList000000@@@Z
	DD	FLAT:?AddHead@CIPacketList000000@@UAEPAU__POSITION@@PAUIPacket000000@@@Z
	DD	FLAT:?AddTail@CIPacketList000000@@UAEXPAUIPacketList000000@@@Z
	DD	FLAT:?AddTail@CIPacketList000000@@UAEPAU__POSITION@@PAUIPacket000000@@@Z
	DD	FLAT:?RemoveAll@CIPacketList000000@@UAEXXZ
	DD	FLAT:?GetHeadPosition@CIPacketList000000@@UBEPAU__POSITION@@XZ
	DD	FLAT:?GetTailPosition@CIPacketList000000@@UBEPAU__POSITION@@XZ
	DD	FLAT:?GetNext@CIPacketList000000@@UBEPAUIPacket000000@@AAPAU__POSITION@@@Z
	DD	FLAT:?GetPrev@CIPacketList000000@@UBEPAUIPacket000000@@AAPAU__POSITION@@@Z
	DD	FLAT:?GetAt@CIPacketList000000@@UBEPAUIPacket000000@@PAU__POSITION@@@Z
	DD	FLAT:?SetAt@CIPacketList000000@@UAEXPAU__POSITION@@PAUIPacket000000@@@Z
	DD	FLAT:?RemoveAt@CIPacketList000000@@UAEXPAU__POSITION@@@Z
	DD	FLAT:?InsertBefore@CIPacketList000000@@UAEPAU__POSITION@@PAU2@PAUIPacket000000@@@Z
	DD	FLAT:?InsertAfter@CIPacketList000000@@UAEPAU__POSITION@@PAU2@PAUIPacket000000@@@Z
	DD	FLAT:?Find@CIPacketList000000@@UBEPAU__POSITION@@PAUIPacket000000@@PAU2@@Z
	DD	FLAT:?FindIndex@CIPacketList000000@@UBEPAU__POSITION@@H@Z
CONST	ENDS
;	COMDAT ??_7CIPacketList000000@@6B?$CList@PAUIPacket000000@@PAU1@@@@
CONST	SEGMENT
??_7CIPacketList000000@@6B?$CList@PAUIPacket000000@@PAU1@@@@ DD FLAT:??_R4CIPacketList000000@@6B?$CList@PAUIPacket000000@@PAU1@@@@ ; CIPacketList000000::`vftable'
	DD	FLAT:?GetRuntimeClass@CObject@@UBEPAUCRuntimeClass@@XZ
	DD	FLAT:??_ECIPacketList000000@@UAEPAXI@Z
	DD	FLAT:?Serialize@?$CList@PAUIPacket000000@@PAU1@@@UAEXAAVCArchive@@@Z
	DD	FLAT:?AssertValid@CObject@@UBEXXZ
	DD	FLAT:?Dump@CObject@@UBEXAAVCDumpContext@@@Z
CONST	ENDS
;	COMDAT ??_7?$CList@PAUIPacket000000@@PAU1@@@6B@
CONST	SEGMENT
??_7?$CList@PAUIPacket000000@@PAU1@@@6B@ DD FLAT:??_R4?$CList@PAUIPacket000000@@PAU1@@@6B@ ; CList<IPacket000000 *,IPacket000000 *>::`vftable'
	DD	FLAT:?GetRuntimeClass@CObject@@UBEPAUCRuntimeClass@@XZ
	DD	FLAT:??_E?$CList@PAUIPacket000000@@PAU1@@@UAEPAXI@Z
	DD	FLAT:?Serialize@?$CList@PAUIPacket000000@@PAU1@@@UAEXAAVCArchive@@@Z
	DD	FLAT:?AssertValid@CObject@@UBEXXZ
	DD	FLAT:?Dump@CObject@@UBEXAAVCDumpContext@@@Z
CONST	ENDS
;	COMDAT ??_7IPacketList000000@@6B@
CONST	SEGMENT
??_7IPacketList000000@@6B@ DD FLAT:??_R4IPacketList000000@@6B@ ; IPacketList000000::`vftable'
	DD	FLAT:__purecall
	DD	FLAT:__purecall
	DD	FLAT:__purecall
	DD	FLAT:??_EIPacketList000000@@MAEPAXI@Z
	DD	FLAT:__purecall
	DD	FLAT:__purecall
	DD	FLAT:__purecall
	DD	FLAT:__purecall
	DD	FLAT:__purecall
	DD	FLAT:__purecall
	DD	FLAT:__purecall
	DD	FLAT:__purecall
	DD	FLAT:__purecall
	DD	FLAT:__purecall
	DD	FLAT:__purecall
	DD	FLAT:__purecall
	DD	FLAT:__purecall
	DD	FLAT:__purecall
	DD	FLAT:__purecall
	DD	FLAT:__purecall
	DD	FLAT:__purecall
	DD	FLAT:__purecall
	DD	FLAT:__purecall
	DD	FLAT:__purecall
	DD	FLAT:__purecall
	DD	FLAT:__purecall
CONST	ENDS
;	COMDAT ??_7CPropertyMap@@6BIPropertyMap@@@
CONST	SEGMENT
??_7CPropertyMap@@6BIPropertyMap@@@ DD FLAT:??_R4CPropertyMap@@6BIPropertyMap@@@ ; CPropertyMap::`vftable'
	DD	FLAT:??_ECPropertyMap@@WBM@AEPAXI@Z
	DD	FLAT:?GetCount@CPropertyMap@@EBEHXZ
	DD	FLAT:?IsEmpty@CPropertyMap@@EBEHXZ
	DD	FLAT:?Lookup@CPropertyMap@@EBEHPBDAAPBD@Z
	DD	FLAT:?LookupKey@CPropertyMap@@EBEHPBDAAPBD@Z
	DD	FLAT:?SetAt@CPropertyMap@@EAEXPBD0@Z
	DD	FLAT:?RemoveKey@CPropertyMap@@EAEHPBD@Z
	DD	FLAT:?RemoveAll@CPropertyMap@@EAEXXZ
	DD	FLAT:?GetStartPosition@CPropertyMap@@EBEPAU__POSITION@@XZ
	DD	FLAT:?GetNextAssoc@CPropertyMap@@EBEXAAPAU__POSITION@@AAPBD1@Z
	DD	FLAT:?GetHashTableSize@CPropertyMap@@EBEIXZ
	DD	FLAT:?InitHashTable@CPropertyMap@@EAEXIH@Z
CONST	ENDS
;	COMDAT ??_7CPropertyMap@@6BCMapStringToString@@@
CONST	SEGMENT
??_7CPropertyMap@@6BCMapStringToString@@@ DD FLAT:??_R4CPropertyMap@@6BCMapStringToString@@@ ; CPropertyMap::`vftable'
	DD	FLAT:?GetRuntimeClass@CMapStringToString@@UBEPAUCRuntimeClass@@XZ
	DD	FLAT:??_ECPropertyMap@@UAEPAXI@Z
	DD	FLAT:?Serialize@CMapStringToString@@UAEXAAVCArchive@@@Z
	DD	FLAT:?AssertValid@CObject@@UBEXXZ
	DD	FLAT:?Dump@CObject@@UBEXAAVCDumpContext@@@Z
CONST	ENDS
;	COMDAT ??_7IPropertyMap@@6B@
CONST	SEGMENT
??_7IPropertyMap@@6B@ DD FLAT:??_R4IPropertyMap@@6B@	; IPropertyMap::`vftable'
	DD	FLAT:??_EIPropertyMap@@MAEPAXI@Z
	DD	FLAT:__purecall
	DD	FLAT:__purecall
	DD	FLAT:__purecall
	DD	FLAT:__purecall
	DD	FLAT:__purecall
	DD	FLAT:__purecall
	DD	FLAT:__purecall
	DD	FLAT:__purecall
	DD	FLAT:__purecall
	DD	FLAT:__purecall
	DD	FLAT:__purecall
CONST	ENDS
;	COMDAT ??_C@_0BF@GOEHBEJD@?$CF02d?3?$CF02d?3?$CF02d?3?$CF03d?7@
CONST	SEGMENT
??_C@_0BF@GOEHBEJD@?$CF02d?3?$CF02d?3?$CF02d?3?$CF03d?7@ DB '%02d:%02d:%0'
	DB	'2d:%03d', 09H, 00H				; `string'
CONST	ENDS
;	COMDAT ??_C@_0BN@HKLPFIKN@?$AN?6?$AN?6?$AN?6?$FL?$CF02d?3?$CF02d?3?$CF02d?3?$CF03d?5?5@
CONST	SEGMENT
??_C@_0BN@HKLPFIKN@?$AN?6?$AN?6?$AN?6?$FL?$CF02d?3?$CF02d?3?$CF02d?3?$CF03d?5?5@ DB 0dH
	DB	0aH, 0dH, 0aH, 0dH, 0aH, '[%02d:%02d:%02d:%03d  ', 00H ; `string'
CONST	ENDS
;	COMDAT ??_C@_03BFOLIMEF@?$FN?$AN?6@
CONST	SEGMENT
??_C@_03BFOLIMEF@?$FN?$AN?6@ DB ']', 0dH, 0aH, 00H	; `string'
CONST	ENDS
;	COMDAT ??_C@_0BH@KLLDLFAP@?$CFs?2?$CFs_?$CF04d?$CF02d?$CF02d?4log@
CONST	SEGMENT
??_C@_0BH@KLLDLFAP@?$CFs?2?$CFs_?$CF04d?$CF02d?$CF02d?4log@ DB '%s\%s_%04'
	DB	'd%02d%02d.log', 00H				; `string'
CONST	ENDS
;	COMDAT ??_C@_0CJ@GKAGEPNM@?$CFs?2?$CFs_?$CF04d?$CF02d?$CF02d_?$CF02d?$CF02d?$CF02d@
CONST	SEGMENT
??_C@_0CJ@GKAGEPNM@?$CFs?2?$CFs_?$CF04d?$CF02d?$CF02d_?$CF02d?$CF02d?$CF02d@ DB '%'
	DB	's\%s_%04d%02d%02d_%02d%02d%02d_%03d.log', 00H ; `string'
CONST	ENDS
;	COMDAT ??_C@_05GDFJMIEM@MDump@
CONST	SEGMENT
??_C@_05GDFJMIEM@MDump@ DB 'MDump', 00H			; `string'
CONST	ENDS
;	COMDAT ??_C@_07PNFMHCIF@C?3?2Logs@
CONST	SEGMENT
??_C@_07PNFMHCIF@C?3?2Logs@ DB 'C:\Logs', 00H		; `string'
CONST	ENDS
;	COMDAT ??_7CDumpLogger@@6B@
CONST	SEGMENT
??_7CDumpLogger@@6B@ DD FLAT:??_R4CDumpLogger@@6B@	; CDumpLogger::`vftable'
	DD	FLAT:?GetRuntimeClass@CObject@@UBEPAUCRuntimeClass@@XZ
	DD	FLAT:??_ECDumpLogger@@UAEPAXI@Z
	DD	FLAT:?Serialize@CObject@@UAEXAAVCArchive@@@Z
	DD	FLAT:?AssertValid@CObject@@UBEXXZ
	DD	FLAT:?Dump@CObject@@UBEXAAVCDumpContext@@@Z
CONST	ENDS
;	COMDAT ??_7CLogAddInImp@@6BIChartAddIn000000@@@
CONST	SEGMENT
??_7CLogAddInImp@@6BIChartAddIn000000@@@ DD FLAT:??_R4CLogAddInImp@@6BIChartAddIn000000@@@ ; CLogAddInImp::`vftable'
	DD	FLAT:?QueryInterface@CLogAddInImp@@O7AGJABU_GUID@@PAPAX@Z
	DD	FLAT:?AddRef@CLogAddInImp@@O7AGKXZ
	DD	FLAT:?Release@CLogAddInImp@@O7AGKXZ
	DD	FLAT:??_ECLogAddInImp@@W7AEPAXI@Z
	DD	FLAT:?HasFullManager@CChartAddInBase000000@@MAEHXZ
	DD	FLAT:?GetAddInCustomInterface@CLogAddInImp@@MAEPAUIUnknown@@XZ
	DD	FLAT:?InvokeAddIn@CChartAddInBase000000@@MAEHHJ@Z
	DD	FLAT:?InvokeAddInStr@CLogAddInImp@@MAEHPBD0@Z
	DD	FLAT:?OnOcxDestroyWindow@CChartAddInBase000000@@MAEXXZ
	DD	FLAT:?ChangeChartMode@CChartAddInBase000000@@MAEXW4CHART_MODE@CChartInfo@@@Z
	DD	FLAT:?RegisterEventMap@CChartAddInBase000000@@UAEHH@Z
	DD	FLAT:?UnregisterEventMap@CChartAddInBase000000@@UAEHXZ
	DD	FLAT:?OnGSharedDataChange@CLogAddInImp@@MAEXPBD0H@Z
	DD	FLAT:?OnLSharedDataChange@CLogAddInImp@@MAEXPBD0@Z
	DD	FLAT:?OnResetChart@CLogAddInImp@@MAEXXZ
	DD	FLAT:?OnDrawBeforeGraph@CChartAddInBase000000@@MAEXPAUHDC__@@@Z
	DD	FLAT:?OnDrawAfterGraph@CChartAddInBase000000@@MAEXPAUHDC__@@@Z
	DD	FLAT:?OnPacketDataMultiItem@CLogAddInImp@@MAEXPBD0H@Z
	DD	FLAT:?OnTimer@CChartAddInBase000000@@MAEXI@Z
	DD	FLAT:?OnCaptureChanged@CChartAddInBase000000@@MAEXPAUHWND__@@QAUHBITMAP__@@@Z
	DD	FLAT:?OnResetMainBlock@CChartAddInBase000000@@MAEXXZ
	DD	FLAT:?OnUserIndiatorConditionLoaded@CChartAddInBase000000@@MAEXXZ
	DD	FLAT:?OnChartItemChanged@CChartAddInBase000000@@MAEXXZ
	DD	FLAT:?OnGraphDataChanged@CChartAddInBase000000@@MAEXXZ
	DD	FLAT:?OnBlockRemoved@CChartAddInBase000000@@MAEXHH@Z
	DD	FLAT:?OnGraphAdded@CChartAddInBase000000@@MAEXPBD0@Z
	DD	FLAT:?OnManualRealData@CChartAddInBase000000@@MAEXPBDNH@Z
	DD	FLAT:?OnContextMenu@CChartAddInBase000000@@MAEXPAUHWND__@@AAUtagPOINT@@@Z
	DD	FLAT:?OnGraphDeleted@CChartAddInBase000000@@MAEXPBD0@Z
	DD	FLAT:?OnPacketTruncated@CChartAddInBase000000@@MAEXH@Z
	DD	FLAT:?OnBlockChanged@CChartAddInBase000000@@MAEXW4BLOCKBEHAVIOR@CBlockBaseData@@HHHH@Z
	DD	FLAT:?OnToolCommand@CChartAddInBase000000@@MAEXHH@Z
	DD	FLAT:?OnRealData@CLogAddInImp@@MAEXPBDN0@Z
	DD	FLAT:?OnIndexedRealData@CLogAddInImp@@MAEXPBDHN@Z
	DD	FLAT:?OnRealPacketEnd@CLogAddInImp@@MAEXPBD@Z
	DD	FLAT:?OnLoadEnvironment@CChartAddInBase000000@@MAEXPAUIPropertyMap@@@Z
	DD	FLAT:?OnSaveEnvironment@CChartAddInBase000000@@MAEXPAUIPropertyMap@@@Z
	DD	FLAT:?DrawCursor@CChartAddInBase000000@@MAE?AUtagRECT@@PAUHDC__@@@Z
	DD	FLAT:?OnRecalculationComplete@CChartAddInBase000000@@MAEXXZ
	DD	FLAT:?OnPreRealData@CChartAddInBase000000@@MAEHPBDAAN0H@Z
	DD	FLAT:?OnPreIndexedRealData@CChartAddInBase000000@@MAEHPBDHAANH@Z
	DD	FLAT:?OnPreRealPacketEnd@CChartAddInBase000000@@MAEHPBDH@Z
	DD	FLAT:?OnPreNMTRClock@CChartAddInBase000000@@MAEHAA_J@Z
	DD	FLAT:?OnCmdMsg@CChartAddInBase000000@@MAEHIHPAUICmdUI000000@@@Z
	DD	FLAT:?OnAddInMsg@CChartAddInBase000000@@MAEHPBDJ@Z
	DD	FLAT:?OnAddInToolCommand@CChartAddInBase000000@@MAEHAAJW4EAICommandType@@JJ@Z
	DD	FLAT:?OnAddInToolCommand@CChartAddInBase000000@@MAEHAAJW4EAICommandType@@J@Z
	DD	FLAT:?OnAddInToolCommand@CChartAddInBase000000@@MAEHAAJW4EAICommandType@@PBDPAVCObject@@@Z
	DD	FLAT:?OnAddInToolCommand@CChartAddInBase000000@@MAEHAAJW4EAICommandType@@PBD@Z
	DD	FLAT:?OnAddInToolCommand@CChartAddInBase000000@@MAEHAAJW4EAICommandType@@PAUIGraphInfo000000@@@Z
	DD	FLAT:?OnAddInToolCommand@CChartAddInBase000000@@MAEHAAJW4EAICommandType@@@Z
	DD	FLAT:?OnAddInToolCommand@CChartAddInBase000000@@MAEHW4EAICommandType@@JJJJJJJJJ@Z
	DD	FLAT:?OnAddInToolCommand@CChartAddInBase000000@@MAEHW4EAICommandType@@JJ@Z
	DD	FLAT:?OnAddInToolCommand@CLogAddInImp@@MAEHW4EAICommandType@@JPBD11@Z
	DD	FLAT:?OnAddInToolCommand@CChartAddInBase000000@@MAEHW4EAICommandType@@JPBD@Z
	DD	FLAT:?OnAddInToolCommand@CChartAddInBase000000@@MAEHW4EAICommandType@@J@Z
	DD	FLAT:?OnAddInToolCommand@CChartAddInBase000000@@MAEHW4EAICommandType@@PBUIAddInDllBase@@@Z
	DD	FLAT:?OnAddInToolCommand@CLogAddInImp@@MAEHW4EAICommandType@@PBDJ@Z
	DD	FLAT:?OnAddInToolCommand@CChartAddInBase000000@@MAEHW4EAICommandType@@PBD1@Z
	DD	FLAT:?OnAddInToolCommand@CLogAddInImp@@MAEHW4EAICommandType@@PBD@Z
	DD	FLAT:?OnAddInToolCommand@CChartAddInBase000000@@MAEHW4EAICommandType@@PAUHDC__@@IAAUtagPOINT@@K@Z
	DD	FLAT:?OnAddInToolCommand@CChartAddInBase000000@@MAEHW4EAICommandType@@@Z
	DD	FLAT:?OnKeyDown@CLogAddInImp@@MAEHIII@Z
	DD	FLAT:?OnKeyUp@CChartAddInBase000000@@MAEHIII@Z
	DD	FLAT:?OnMouseWheel@CChartAddInBase000000@@MAEHIFUtagPOINT@@K@Z
	DD	FLAT:?OnMouseMove@CChartAddInBase000000@@MAEHPAUHDC__@@IAAUtagPOINT@@KQAUHBITMAP__@@@Z
	DD	FLAT:?OnLButtonDown@CChartAddInBase000000@@MAEHPAUHDC__@@IAAUtagPOINT@@K@Z
	DD	FLAT:?OnLButtonUp@CChartAddInBase000000@@MAEHPAUHDC__@@IAAUtagPOINT@@K@Z
	DD	FLAT:?OnLButtonDblClk@CLogAddInImp@@MAEHPAUHDC__@@IAAUtagPOINT@@K@Z
	DD	FLAT:?OnRButtonDown@CChartAddInBase000000@@MAEHPAUHDC__@@IAAUtagPOINT@@K@Z
	DD	FLAT:?OnRButtonUp@CChartAddInBase000000@@MAEHPAUHDC__@@IAAUtagPOINT@@K@Z
	DD	FLAT:?OnRButtonDblClk@CChartAddInBase000000@@MAEHPAUHDC__@@IAAUtagPOINT@@K@Z
CONST	ENDS
;	COMDAT ??_7CLogAddInImp@@6BCIWUnknown@@@
CONST	SEGMENT
??_7CLogAddInImp@@6BCIWUnknown@@@ DD FLAT:??_R4CLogAddInImp@@6BCIWUnknown@@@ ; CLogAddInImp::`vftable'
	DD	FLAT:?GetRuntimeClass@CObject@@UBEPAUCRuntimeClass@@XZ
	DD	FLAT:??_ECLogAddInImp@@UAEPAXI@Z
	DD	FLAT:?Serialize@CObject@@UAEXAAVCArchive@@@Z
	DD	FLAT:?AssertValid@CObject@@UBEXXZ
	DD	FLAT:?Dump@CObject@@UBEXAAVCDumpContext@@@Z
	DD	FLAT:?AddRef@CLogAddInImp@@MAGKXZ
	DD	FLAT:?Release@CLogAddInImp@@MAGKXZ
	DD	FLAT:?QueryInterface@CLogAddInImp@@MAGJABU_GUID@@PAPAX@Z
	DD	FLAT:?PostConstruct@CIWUnknown@@MAEXXZ
	DD	FLAT:?PreDestructX@CIWUnknown@@MAEXXZ
	DD	FLAT:?PreDestruct@CIWUnknown@@MAEXXZ
	DD	FLAT:?GetRegisteredEventMap@CLogAddInImp@@MBEPBW4EAddInEventType@IChartAddIn000000@@XZ
	DD	FLAT:?AfeterOnOcxDestroyWindow@CChartAddInBase000000@@MAEXXZ
CONST	ENDS
;	COMDAT ??_R1A@?0A@EA@IUnknown@@8
rdata$r	SEGMENT
??_R1A@?0A@EA@IUnknown@@8 DD FLAT:??_R0?AUIUnknown@@@8	; IUnknown::`RTTI Base Class Descriptor at (0,-1,0,64)'
	DD	00H
	DD	00H
	DD	0ffffffffH
	DD	00H
	DD	040H
	DD	FLAT:??_R3IUnknown@@8
rdata$r	ENDS
;	COMDAT ??_R2IUnknown@@8
rdata$r	SEGMENT
??_R2IUnknown@@8 DD FLAT:??_R1A@?0A@EA@IUnknown@@8	; IUnknown::`RTTI Base Class Array'
rdata$r	ENDS
;	COMDAT ??_R3IUnknown@@8
rdata$r	SEGMENT
??_R3IUnknown@@8 DD 00H					; IUnknown::`RTTI Class Hierarchy Descriptor'
	DD	00H
	DD	01H
	DD	FLAT:??_R2IUnknown@@8
rdata$r	ENDS
;	COMDAT ??_R0?AUIUnknown@@@8
data$rs	SEGMENT
??_R0?AUIUnknown@@@8 DD FLAT:??_7type_info@@6B@		; IUnknown `RTTI Type Descriptor'
	DD	00H
	DB	'.?AUIUnknown@@', 00H
data$rs	ENDS
;	COMDAT ??_R1A@?0A@EA@CObject@@8
rdata$r	SEGMENT
??_R1A@?0A@EA@CObject@@8 DD FLAT:??_R0?AVCObject@@@8	; CObject::`RTTI Base Class Descriptor at (0,-1,0,64)'
	DD	00H
	DD	00H
	DD	0ffffffffH
	DD	00H
	DD	040H
	DD	FLAT:??_R3CObject@@8
rdata$r	ENDS
;	COMDAT ??_R2CObject@@8
rdata$r	SEGMENT
??_R2CObject@@8 DD FLAT:??_R1A@?0A@EA@CObject@@8	; CObject::`RTTI Base Class Array'
rdata$r	ENDS
;	COMDAT ??_R3CObject@@8
rdata$r	SEGMENT
??_R3CObject@@8 DD 00H					; CObject::`RTTI Class Hierarchy Descriptor'
	DD	00H
	DD	01H
	DD	FLAT:??_R2CObject@@8
rdata$r	ENDS
;	COMDAT ??_R0?AVCObject@@@8
data$rs	SEGMENT
??_R0?AVCObject@@@8 DD FLAT:??_7type_info@@6B@		; CObject `RTTI Type Descriptor'
	DD	00H
	DB	'.?AVCObject@@', 00H
data$rs	ENDS
;	COMDAT ??_C@_00CNPNBAHC@@
CONST	SEGMENT
??_C@_00CNPNBAHC@@ DB 00H				; `string'
CONST	ENDS
;	COMDAT xdata$x
xdata$x	SEGMENT
__unwindtable$??_GCIPacketList000000@@UAEPAXI@Z DD 0ffffffffH
	DD	FLAT:___std_terminate
__ehfuncinfo$??_GCIPacketList000000@@UAEPAXI@Z DD 019930522H
	DD	01H
	DD	FLAT:__unwindtable$??_GCIPacketList000000@@UAEPAXI@Z
	DD	2 DUP(00H)
	DD	2 DUP(00H)
	DD	00H
	DD	05H
xdata$x	ENDS
;	COMDAT xdata$x
xdata$x	SEGMENT
__unwindtable$??1CIPacketList000000@@UAE@XZ DD 0ffffffffH
	DD	FLAT:___std_terminate
__ehfuncinfo$??1CIPacketList000000@@UAE@XZ DD 019930522H
	DD	01H
	DD	FLAT:__unwindtable$??1CIPacketList000000@@UAE@XZ
	DD	2 DUP(00H)
	DD	2 DUP(00H)
	DD	00H
	DD	05H
xdata$x	ENDS
;	COMDAT xdata$x
xdata$x	SEGMENT
__unwindtable$??_G?$CList@PAUIPacket000000@@PAU1@@@UAEPAXI@Z DD 0ffffffffH
	DD	FLAT:___std_terminate
__ehfuncinfo$??_G?$CList@PAUIPacket000000@@PAU1@@@UAEPAXI@Z DD 019930522H
	DD	01H
	DD	FLAT:__unwindtable$??_G?$CList@PAUIPacket000000@@PAU1@@@UAEPAXI@Z
	DD	2 DUP(00H)
	DD	2 DUP(00H)
	DD	00H
	DD	05H
xdata$x	ENDS
;	COMDAT xdata$x
xdata$x	SEGMENT
__ehfuncinfo$??1?$CList@PAUIPacket000000@@PAU1@@@UAE@XZ DD 019930522H
	DD	00H
	DD	00H
	DD	2 DUP(00H)
	DD	2 DUP(00H)
	DD	00H
	DD	05H
xdata$x	ENDS
;	COMDAT xdata$x
xdata$x	SEGMENT
__ehfuncinfo$??1ILPCSTR000000@@QAE@XZ DD 019930522H
	DD	00H
	DD	00H
	DD	2 DUP(00H)
	DD	2 DUP(00H)
	DD	00H
	DD	05H
xdata$x	ENDS
;	COMDAT xdata$x
xdata$x	SEGMENT
__ehfuncinfo$?WriteToStringLog@CDumpLogger@@QAEXPBD0H@Z DD 019930522H
	DD	05H
	DD	FLAT:__unwindtable$?WriteToStringLog@CDumpLogger@@QAEXPBD0H@Z
	DD	2 DUP(00H)
	DD	2 DUP(00H)
	DD	00H
	DD	01H
__unwindtable$?WriteToStringLog@CDumpLogger@@QAEXPBD0H@Z DD 0ffffffffH
	DD	FLAT:__unwindfunclet$?WriteToStringLog@CDumpLogger@@QAEXPBD0H@Z$0
	DD	00H
	DD	FLAT:__unwindfunclet$?WriteToStringLog@CDumpLogger@@QAEXPBD0H@Z$1
	DD	01H
	DD	FLAT:__unwindfunclet$?WriteToStringLog@CDumpLogger@@QAEXPBD0H@Z$5
	DD	02H
	DD	FLAT:__unwindfunclet$?WriteToStringLog@CDumpLogger@@QAEXPBD0H@Z$6
	DD	00H
	DD	FLAT:__unwindfunclet$?WriteToStringLog@CDumpLogger@@QAEXPBD0H@Z$4
xdata$x	ENDS
;	COMDAT xdata$x
xdata$x	SEGMENT
__unwindtable$??0CDumpLogger@@QAE@PBDH0@Z DD 0ffffffffH
	DD	FLAT:__unwindfunclet$??0CDumpLogger@@QAE@PBDH0@Z$0
__ehfuncinfo$??0CDumpLogger@@QAE@PBDH0@Z DD 019930522H
	DD	01H
	DD	FLAT:__unwindtable$??0CDumpLogger@@QAE@PBDH0@Z
	DD	2 DUP(00H)
	DD	2 DUP(00H)
	DD	00H
	DD	01H
xdata$x	ENDS
;	COMDAT xdata$x
xdata$x	SEGMENT
__unwindtable$??_GCLogAddInImp@@UAEPAXI@Z DD 0ffffffffH
	DD	FLAT:___std_terminate
__ehfuncinfo$??_GCLogAddInImp@@UAEPAXI@Z DD 019930522H
	DD	01H
	DD	FLAT:__unwindtable$??_GCLogAddInImp@@UAEPAXI@Z
	DD	2 DUP(00H)
	DD	2 DUP(00H)
	DD	00H
	DD	05H
xdata$x	ENDS
;	COMDAT xdata$x
xdata$x	SEGMENT
__unwindtable$?OnLButtonDblClk@CLogAddInImp@@MAEHPAUHDC__@@IAAUtagPOINT@@K@Z DD 0ffffffffH
	DD	FLAT:__unwindfunclet$?OnLButtonDblClk@CLogAddInImp@@MAEHPAUHDC__@@IAAUtagPOINT@@K@Z$0
__ehfuncinfo$?OnLButtonDblClk@CLogAddInImp@@MAEHPAUHDC__@@IAAUtagPOINT@@K@Z DD 019930522H
	DD	01H
	DD	FLAT:__unwindtable$?OnLButtonDblClk@CLogAddInImp@@MAEHPAUHDC__@@IAAUtagPOINT@@K@Z
	DD	2 DUP(00H)
	DD	2 DUP(00H)
	DD	00H
	DD	01H
xdata$x	ENDS
;	COMDAT xdata$x
xdata$x	SEGMENT
__unwindtable$?OnKeyDown@CLogAddInImp@@MAEHIII@Z DD 0ffffffffH
	DD	FLAT:__unwindfunclet$?OnKeyDown@CLogAddInImp@@MAEHIII@Z$0
__ehfuncinfo$?OnKeyDown@CLogAddInImp@@MAEHIII@Z DD 019930522H
	DD	01H
	DD	FLAT:__unwindtable$?OnKeyDown@CLogAddInImp@@MAEHIII@Z
	DD	2 DUP(00H)
	DD	2 DUP(00H)
	DD	00H
	DD	01H
xdata$x	ENDS
;	COMDAT xdata$x
xdata$x	SEGMENT
__unwindtable$?OnAddInToolCommand@CLogAddInImp@@MAEHW4EAICommandType@@JPBD11@Z DD 0ffffffffH
	DD	FLAT:__unwindfunclet$?OnAddInToolCommand@CLogAddInImp@@MAEHW4EAICommandType@@JPBD11@Z$0
	DD	0ffffffffH
	DD	FLAT:__unwindfunclet$?OnAddInToolCommand@CLogAddInImp@@MAEHW4EAICommandType@@JPBD11@Z$1
__ehfuncinfo$?OnAddInToolCommand@CLogAddInImp@@MAEHW4EAICommandType@@JPBD11@Z DD 019930522H
	DD	02H
	DD	FLAT:__unwindtable$?OnAddInToolCommand@CLogAddInImp@@MAEHW4EAICommandType@@JPBD11@Z
	DD	2 DUP(00H)
	DD	2 DUP(00H)
	DD	00H
	DD	01H
xdata$x	ENDS
;	COMDAT xdata$x
xdata$x	SEGMENT
__unwindtable$?OnAddInToolCommand@CLogAddInImp@@MAEHW4EAICommandType@@PBDJ@Z DD 0ffffffffH
	DD	FLAT:__unwindfunclet$?OnAddInToolCommand@CLogAddInImp@@MAEHW4EAICommandType@@PBDJ@Z$0
	DD	0ffffffffH
	DD	FLAT:__unwindfunclet$?OnAddInToolCommand@CLogAddInImp@@MAEHW4EAICommandType@@PBDJ@Z$1
__ehfuncinfo$?OnAddInToolCommand@CLogAddInImp@@MAEHW4EAICommandType@@PBDJ@Z DD 019930522H
	DD	02H
	DD	FLAT:__unwindtable$?OnAddInToolCommand@CLogAddInImp@@MAEHW4EAICommandType@@PBDJ@Z
	DD	2 DUP(00H)
	DD	2 DUP(00H)
	DD	00H
	DD	01H
xdata$x	ENDS
;	COMDAT xdata$x
xdata$x	SEGMENT
__unwindtable$?OnAddInToolCommand@CLogAddInImp@@MAEHW4EAICommandType@@PBD@Z DD 0ffffffffH
	DD	FLAT:__unwindfunclet$?OnAddInToolCommand@CLogAddInImp@@MAEHW4EAICommandType@@PBD@Z$0
__ehfuncinfo$?OnAddInToolCommand@CLogAddInImp@@MAEHW4EAICommandType@@PBD@Z DD 019930522H
	DD	01H
	DD	FLAT:__unwindtable$?OnAddInToolCommand@CLogAddInImp@@MAEHW4EAICommandType@@PBD@Z
	DD	2 DUP(00H)
	DD	2 DUP(00H)
	DD	00H
	DD	01H
xdata$x	ENDS
;	COMDAT xdata$x
xdata$x	SEGMENT
__unwindtable$?WriteLogMessage@CLogAddInImp@@IAEXPBD@Z DD 0ffffffffH
	DD	FLAT:__unwindfunclet$?WriteLogMessage@CLogAddInImp@@IAEXPBD@Z$0
__ehfuncinfo$?WriteLogMessage@CLogAddInImp@@IAEXPBD@Z DD 019930522H
	DD	01H
	DD	FLAT:__unwindtable$?WriteLogMessage@CLogAddInImp@@IAEXPBD@Z
	DD	2 DUP(00H)
	DD	2 DUP(00H)
	DD	00H
	DD	01H
xdata$x	ENDS
;	COMDAT xdata$x
xdata$x	SEGMENT
__unwindtable$?LogAllProperties@CLogAddInImp@@IAEHXZ DD 0ffffffffH
	DD	FLAT:__unwindfunclet$?LogAllProperties@CLogAddInImp@@IAEHXZ$0
	DD	00H
	DD	FLAT:__unwindfunclet$?LogAllProperties@CLogAddInImp@@IAEHXZ$1
	DD	01H
	DD	FLAT:__unwindfunclet$?LogAllProperties@CLogAddInImp@@IAEHXZ$2
__ehfuncinfo$?LogAllProperties@CLogAddInImp@@IAEHXZ DD 019930522H
	DD	03H
	DD	FLAT:__unwindtable$?LogAllProperties@CLogAddInImp@@IAEHXZ
	DD	2 DUP(00H)
	DD	2 DUP(00H)
	DD	00H
	DD	01H
xdata$x	ENDS
;	COMDAT xdata$x
xdata$x	SEGMENT
__unwindtable$?OnNormalizedMinuteTimeRuleReset@CLogAddInImp@@IAEXH@Z DD 0ffffffffH
	DD	FLAT:__unwindfunclet$?OnNormalizedMinuteTimeRuleReset@CLogAddInImp@@IAEXH@Z$0
__ehfuncinfo$?OnNormalizedMinuteTimeRuleReset@CLogAddInImp@@IAEXH@Z DD 019930522H
	DD	01H
	DD	FLAT:__unwindtable$?OnNormalizedMinuteTimeRuleReset@CLogAddInImp@@IAEXH@Z
	DD	2 DUP(00H)
	DD	2 DUP(00H)
	DD	00H
	DD	01H
xdata$x	ENDS
;	COMDAT xdata$x
xdata$x	SEGMENT
__unwindtable$?OnRealSettingChanged@CLogAddInImp@@IAEXPBD@Z DD 0ffffffffH
	DD	FLAT:__unwindfunclet$?OnRealSettingChanged@CLogAddInImp@@IAEXPBD@Z$0
__ehfuncinfo$?OnRealSettingChanged@CLogAddInImp@@IAEXPBD@Z DD 019930522H
	DD	01H
	DD	FLAT:__unwindtable$?OnRealSettingChanged@CLogAddInImp@@IAEXPBD@Z
	DD	2 DUP(00H)
	DD	2 DUP(00H)
	DD	00H
	DD	01H
xdata$x	ENDS
;	COMDAT xdata$x
xdata$x	SEGMENT
__unwindtable$?OffDrdsAdvise@CLogAddInImp@@IAEXJPBD00@Z DD 0ffffffffH
	DD	FLAT:__unwindfunclet$?OffDrdsAdvise@CLogAddInImp@@IAEXJPBD00@Z$0
__ehfuncinfo$?OffDrdsAdvise@CLogAddInImp@@IAEXJPBD00@Z DD 019930522H
	DD	01H
	DD	FLAT:__unwindtable$?OffDrdsAdvise@CLogAddInImp@@IAEXJPBD00@Z
	DD	2 DUP(00H)
	DD	2 DUP(00H)
	DD	00H
	DD	01H
xdata$x	ENDS
;	COMDAT xdata$x
xdata$x	SEGMENT
__unwindtable$?OnDrdsAdvise@CLogAddInImp@@IAEXJPBD00@Z DD 0ffffffffH
	DD	FLAT:__unwindfunclet$?OnDrdsAdvise@CLogAddInImp@@IAEXJPBD00@Z$0
__ehfuncinfo$?OnDrdsAdvise@CLogAddInImp@@IAEXJPBD00@Z DD 019930522H
	DD	01H
	DD	FLAT:__unwindtable$?OnDrdsAdvise@CLogAddInImp@@IAEXJPBD00@Z
	DD	2 DUP(00H)
	DD	2 DUP(00H)
	DD	00H
	DD	01H
xdata$x	ENDS
;	COMDAT xdata$x
xdata$x	SEGMENT
__unwindtable$?OnRealPacketEnd@CLogAddInImp@@MAEXPBD@Z DD 0ffffffffH
	DD	FLAT:__unwindfunclet$?OnRealPacketEnd@CLogAddInImp@@MAEXPBD@Z$0
__ehfuncinfo$?OnRealPacketEnd@CLogAddInImp@@MAEXPBD@Z DD 019930522H
	DD	01H
	DD	FLAT:__unwindtable$?OnRealPacketEnd@CLogAddInImp@@MAEXPBD@Z
	DD	2 DUP(00H)
	DD	2 DUP(00H)
	DD	00H
	DD	01H
xdata$x	ENDS
;	COMDAT xdata$x
xdata$x	SEGMENT
__ehfuncinfo$?OnIndexedRealData@CLogAddInImp@@MAEXPBDHN@Z DD 019930522H
	DD	05H
	DD	FLAT:__unwindtable$?OnIndexedRealData@CLogAddInImp@@MAEXPBDHN@Z
	DD	2 DUP(00H)
	DD	2 DUP(00H)
	DD	00H
	DD	01H
__unwindtable$?OnIndexedRealData@CLogAddInImp@@MAEXPBDHN@Z DD 0ffffffffH
	DD	FLAT:__unwindfunclet$?OnIndexedRealData@CLogAddInImp@@MAEXPBDHN@Z$0
	DD	00H
	DD	FLAT:__unwindfunclet$?OnIndexedRealData@CLogAddInImp@@MAEXPBDHN@Z$1
	DD	01H
	DD	FLAT:__unwindfunclet$?OnIndexedRealData@CLogAddInImp@@MAEXPBDHN@Z$5
	DD	02H
	DD	FLAT:__unwindfunclet$?OnIndexedRealData@CLogAddInImp@@MAEXPBDHN@Z$6
	DD	03H
	DD	FLAT:__unwindfunclet$?OnIndexedRealData@CLogAddInImp@@MAEXPBDHN@Z$7
xdata$x	ENDS
;	COMDAT xdata$x
xdata$x	SEGMENT
__ehfuncinfo$?OnRealData@CLogAddInImp@@MAEXPBDN0@Z DD 019930522H
	DD	05H
	DD	FLAT:__unwindtable$?OnRealData@CLogAddInImp@@MAEXPBDN0@Z
	DD	2 DUP(00H)
	DD	2 DUP(00H)
	DD	00H
	DD	01H
__unwindtable$?OnRealData@CLogAddInImp@@MAEXPBDN0@Z DD 0ffffffffH
	DD	FLAT:__unwindfunclet$?OnRealData@CLogAddInImp@@MAEXPBDN0@Z$0
	DD	00H
	DD	FLAT:__unwindfunclet$?OnRealData@CLogAddInImp@@MAEXPBDN0@Z$1
	DD	01H
	DD	FLAT:__unwindfunclet$?OnRealData@CLogAddInImp@@MAEXPBDN0@Z$5
	DD	02H
	DD	FLAT:__unwindfunclet$?OnRealData@CLogAddInImp@@MAEXPBDN0@Z$6
	DD	03H
	DD	FLAT:__unwindfunclet$?OnRealData@CLogAddInImp@@MAEXPBDN0@Z$7
xdata$x	ENDS
;	COMDAT xdata$x
xdata$x	SEGMENT
__ehfuncinfo$?OnPacketDataMultiItem@CLogAddInImp@@MAEXPBD0H@Z DD 019930522H
	DD	010H
	DD	FLAT:__unwindtable$?OnPacketDataMultiItem@CLogAddInImp@@MAEXPBD0H@Z
	DD	2 DUP(00H)
	DD	2 DUP(00H)
	DD	00H
	DD	01H
__unwindtable$?OnPacketDataMultiItem@CLogAddInImp@@MAEXPBD0H@Z DD 0ffffffffH
	DD	FLAT:__unwindfunclet$?OnPacketDataMultiItem@CLogAddInImp@@MAEXPBD0H@Z$0
	DD	00H
	DD	FLAT:__unwindfunclet$?OnPacketDataMultiItem@CLogAddInImp@@MAEXPBD0H@Z$1
	DD	01H
	DD	FLAT:__unwindfunclet$?OnPacketDataMultiItem@CLogAddInImp@@MAEXPBD0H@Z$2
	DD	02H
	DD	FLAT:__unwindfunclet$?OnPacketDataMultiItem@CLogAddInImp@@MAEXPBD0H@Z$3
	DD	00H
	DD	00H
	DD	0ffffffffH
	DD	00H
	DD	00H
	DD	00H
	DD	0ffffffffH
	DD	00H
	DD	03H
	DD	FLAT:__unwindfunclet$?OnPacketDataMultiItem@CLogAddInImp@@MAEXPBD0H@Z$4
	DD	08H
	DD	FLAT:__unwindfunclet$?OnPacketDataMultiItem@CLogAddInImp@@MAEXPBD0H@Z$5
	DD	09H
	DD	FLAT:__unwindfunclet$?OnPacketDataMultiItem@CLogAddInImp@@MAEXPBD0H@Z$6
	DD	0aH
	DD	FLAT:__unwindfunclet$?OnPacketDataMultiItem@CLogAddInImp@@MAEXPBD0H@Z$7
	DD	0aH
	DD	FLAT:___std_terminate
	DD	02H
	DD	FLAT:___std_terminate
	DD	00H
	DD	FLAT:___std_terminate
	DD	0ffffffffH
	DD	FLAT:___std_terminate
xdata$x	ENDS
;	COMDAT xdata$x
xdata$x	SEGMENT
__unwindtable$?OnResetChart@CLogAddInImp@@MAEXXZ DD 0ffffffffH
	DD	FLAT:__unwindfunclet$?OnResetChart@CLogAddInImp@@MAEXXZ$0
__ehfuncinfo$?OnResetChart@CLogAddInImp@@MAEXXZ DD 019930522H
	DD	01H
	DD	FLAT:__unwindtable$?OnResetChart@CLogAddInImp@@MAEXXZ
	DD	2 DUP(00H)
	DD	2 DUP(00H)
	DD	00H
	DD	01H
xdata$x	ENDS
;	COMDAT xdata$x
xdata$x	SEGMENT
__unwindtable$?OnLSharedDataChange@CLogAddInImp@@MAEXPBD0@Z DD 0ffffffffH
	DD	FLAT:__unwindfunclet$?OnLSharedDataChange@CLogAddInImp@@MAEXPBD0@Z$0
__ehfuncinfo$?OnLSharedDataChange@CLogAddInImp@@MAEXPBD0@Z DD 019930522H
	DD	01H
	DD	FLAT:__unwindtable$?OnLSharedDataChange@CLogAddInImp@@MAEXPBD0@Z
	DD	2 DUP(00H)
	DD	2 DUP(00H)
	DD	00H
	DD	01H
xdata$x	ENDS
;	COMDAT xdata$x
xdata$x	SEGMENT
__unwindtable$?OnGSharedDataChange@CLogAddInImp@@MAEXPBD0H@Z DD 0ffffffffH
	DD	FLAT:__unwindfunclet$?OnGSharedDataChange@CLogAddInImp@@MAEXPBD0H@Z$0
__ehfuncinfo$?OnGSharedDataChange@CLogAddInImp@@MAEXPBD0H@Z DD 019930522H
	DD	01H
	DD	FLAT:__unwindtable$?OnGSharedDataChange@CLogAddInImp@@MAEXPBD0H@Z
	DD	2 DUP(00H)
	DD	2 DUP(00H)
	DD	00H
	DD	01H
xdata$x	ENDS
;	COMDAT xdata$x
xdata$x	SEGMENT
__unwindtable$?InvokeAddInStr@CLogAddInImp@@MAEHPBD0@Z DD 0ffffffffH
	DD	FLAT:__unwindfunclet$?InvokeAddInStr@CLogAddInImp@@MAEHPBD0@Z$0
	DD	00H
	DD	FLAT:__unwindfunclet$?InvokeAddInStr@CLogAddInImp@@MAEHPBD0@Z$2
	DD	0ffffffffH
	DD	FLAT:__unwindfunclet$?InvokeAddInStr@CLogAddInImp@@MAEHPBD0@Z$1
__ehfuncinfo$?InvokeAddInStr@CLogAddInImp@@MAEHPBD0@Z DD 019930522H
	DD	03H
	DD	FLAT:__unwindtable$?InvokeAddInStr@CLogAddInImp@@MAEHPBD0@Z
	DD	2 DUP(00H)
	DD	2 DUP(00H)
	DD	00H
	DD	01H
xdata$x	ENDS
;	COMDAT xdata$x
xdata$x	SEGMENT
__ehfuncinfo$??1CLogAddInImp@@UAE@XZ DD 019930522H
	DD	00H
	DD	00H
	DD	2 DUP(00H)
	DD	2 DUP(00H)
	DD	00H
	DD	05H
xdata$x	ENDS
;	COMDAT xdata$x
xdata$x	SEGMENT
__unwindtable$??HATL@@YA?AV?$CStringT@DV?$StrTraitMFC_DLL@DV?$ChTraitsCRT@D@ATL@@@@@0@ABV10@PBD@Z DD 0ffffffffH
	DD	FLAT:__unwindfunclet$??HATL@@YA?AV?$CStringT@DV?$StrTraitMFC_DLL@DV?$ChTraitsCRT@D@ATL@@@@@0@ABV10@PBD@Z$0
__ehfuncinfo$??HATL@@YA?AV?$CStringT@DV?$StrTraitMFC_DLL@DV?$ChTraitsCRT@D@ATL@@@@@0@ABV10@PBD@Z DD 019930522H
	DD	01H
	DD	FLAT:__unwindtable$??HATL@@YA?AV?$CStringT@DV?$StrTraitMFC_DLL@DV?$ChTraitsCRT@D@ATL@@@@@0@ABV10@PBD@Z
	DD	2 DUP(00H)
	DD	2 DUP(00H)
	DD	00H
	DD	01H
xdata$x	ENDS
;	COMDAT xdata$x
xdata$x	SEGMENT
__unwindtable$??HATL@@YA?AV?$CStringT@DV?$StrTraitMFC_DLL@DV?$ChTraitsCRT@D@ATL@@@@@0@ABV10@0@Z DD 0ffffffffH
	DD	FLAT:__unwindfunclet$??HATL@@YA?AV?$CStringT@DV?$StrTraitMFC_DLL@DV?$ChTraitsCRT@D@ATL@@@@@0@ABV10@0@Z$0
__ehfuncinfo$??HATL@@YA?AV?$CStringT@DV?$StrTraitMFC_DLL@DV?$ChTraitsCRT@D@ATL@@@@@0@ABV10@0@Z DD 019930522H
	DD	01H
	DD	FLAT:__unwindtable$??HATL@@YA?AV?$CStringT@DV?$StrTraitMFC_DLL@DV?$ChTraitsCRT@D@ATL@@@@@0@ABV10@0@Z
	DD	2 DUP(00H)
	DD	2 DUP(00H)
	DD	00H
	DD	01H
xdata$x	ENDS
; Function compile flags: /Odsp
;	COMDAT ??_ECIPacketList000000@@WBM@AEPAXI@Z
_TEXT	SEGMENT
??_ECIPacketList000000@@WBM@AEPAXI@Z PROC		; [thunk]:CIPacketList000000::`vector deleting destructor', COMDAT
  00000	83 e9 1c	 sub	 ecx, 28			; 0000001cH
  00003	e9 00 00 00 00	 jmp	 ??_ECIPacketList000000@@UAEPAXI@Z
??_ECIPacketList000000@@WBM@AEPAXI@Z ENDP		; [thunk]:CIPacketList000000::`vector deleting destructor'
_TEXT	ENDS
; Function compile flags: /Odsp
;	COMDAT ??_ECPropertyMap@@WBM@AEPAXI@Z
_TEXT	SEGMENT
??_ECPropertyMap@@WBM@AEPAXI@Z PROC			; [thunk]:CPropertyMap::`vector deleting destructor', COMDAT
  00000	83 e9 1c	 sub	 ecx, 28			; 0000001cH
  00003	e9 00 00 00 00	 jmp	 ??_ECPropertyMap@@UAEPAXI@Z
??_ECPropertyMap@@WBM@AEPAXI@Z ENDP			; [thunk]:CPropertyMap::`vector deleting destructor'
_TEXT	ENDS
; Function compile flags: /Odsp
;	COMDAT ??_ECLogAddInImp@@W7AEPAXI@Z
_TEXT	SEGMENT
??_ECLogAddInImp@@W7AEPAXI@Z PROC			; [thunk]:CLogAddInImp::`vector deleting destructor', COMDAT
  00000	83 e9 08	 sub	 ecx, 8
  00003	e9 00 00 00 00	 jmp	 ??_ECLogAddInImp@@UAEPAXI@Z
??_ECLogAddInImp@@W7AEPAXI@Z ENDP			; [thunk]:CLogAddInImp::`vector deleting destructor'
_TEXT	ENDS
; Function compile flags: /Odsp
;	COMDAT ?Release@CLogAddInImp@@O7AGKXZ
_TEXT	SEGMENT
?Release@CLogAddInImp@@O7AGKXZ PROC			; [thunk]:CLogAddInImp::Release`adjustor{8}', COMDAT
  00000	83 6c 24 04 08	 sub	 DWORD PTR [esp+4], 8
  00005	e9 00 00 00 00	 jmp	 ?Release@CLogAddInImp@@MAGKXZ ; CLogAddInImp::Release
?Release@CLogAddInImp@@O7AGKXZ ENDP			; [thunk]:CLogAddInImp::Release`adjustor{8}'
_TEXT	ENDS
; Function compile flags: /Odsp
;	COMDAT ?AddRef@CLogAddInImp@@O7AGKXZ
_TEXT	SEGMENT
?AddRef@CLogAddInImp@@O7AGKXZ PROC			; [thunk]:CLogAddInImp::AddRef`adjustor{8}', COMDAT
  00000	83 6c 24 04 08	 sub	 DWORD PTR [esp+4], 8
  00005	e9 00 00 00 00	 jmp	 ?AddRef@CLogAddInImp@@MAGKXZ ; CLogAddInImp::AddRef
?AddRef@CLogAddInImp@@O7AGKXZ ENDP			; [thunk]:CLogAddInImp::AddRef`adjustor{8}'
_TEXT	ENDS
; Function compile flags: /Odsp
;	COMDAT ?QueryInterface@CLogAddInImp@@O7AGJABU_GUID@@PAPAX@Z
_TEXT	SEGMENT
?QueryInterface@CLogAddInImp@@O7AGJABU_GUID@@PAPAX@Z PROC ; [thunk]:CLogAddInImp::QueryInterface`adjustor{8}', COMDAT
  00000	83 6c 24 04 08	 sub	 DWORD PTR [esp+4], 8
  00005	e9 00 00 00 00	 jmp	 ?QueryInterface@CLogAddInImp@@MAGJABU_GUID@@PAPAX@Z ; CLogAddInImp::QueryInterface
?QueryInterface@CLogAddInImp@@O7AGJABU_GUID@@PAPAX@Z ENDP ; [thunk]:CLogAddInImp::QueryInterface`adjustor{8}'
_TEXT	ENDS
; Function compile flags: /Ogtp
; File C:\Program Files (x86)\Microsoft Visual Studio\2019\Community\VC\Tools\MSVC\14.29.30133\atlmfc\include\afxtempl.h
; File C:\Program Files (x86)\Microsoft Visual Studio\2019\Community\VC\Tools\MSVC\14.29.30133\atlmfc\include\afx.inl
; File C:\Program Files (x86)\Microsoft Visual Studio\2019\Community\VC\Tools\MSVC\14.29.30133\atlmfc\include\afxtempl.h
; File C:\Program Files (x86)\Microsoft Visual Studio\2019\Community\VC\Tools\MSVC\14.29.30133\atlmfc\include\afx.inl
; File C:\Program Files (x86)\Microsoft Visual Studio\2019\Community\VC\Tools\MSVC\14.29.30133\atlmfc\include\afxtempl.h
; File C:\Program Files (x86)\Microsoft Visual Studio\2019\Community\VC\Tools\MSVC\14.29.30133\atlmfc\include\afx.inl
; File C:\Program Files (x86)\Microsoft Visual Studio\2019\Community\VC\Tools\MSVC\14.29.30133\atlmfc\include\afxtempl.h
;	COMDAT ??$SerializeElements@PAUIPacket000000@@@@YGXAAVCArchive@@PAPAUIPacket000000@@H@Z
_TEXT	SEGMENT
_ar$ = 8						; size = 4
_pElements$ = 12					; size = 4
_nCount$ = 16						; size = 4
??$SerializeElements@PAUIPacket000000@@@@YGXAAVCArchive@@PAPAUIPacket000000@@H@Z PROC ; SerializeElements<IPacket000000 *>, COMDAT

; 67   : {

  00000	55		 push	 ebp
  00001	8b ec		 mov	 ebp, esp

; 68   : 	ENSURE(nCount == 0 || pElements != NULL);

  00003	8b 4d 0c	 mov	 ecx, DWORD PTR _pElements$[ebp]
  00006	53		 push	 ebx
  00007	56		 push	 esi
  00008	8b 75 10	 mov	 esi, DWORD PTR _nCount$[ebp]
  0000b	57		 push	 edi
  0000c	85 f6		 test	 esi, esi
  0000e	74 08		 je	 SHORT $LN2@SerializeE
  00010	85 c9		 test	 ecx, ecx
  00012	0f 84 89 00 00
	00		 je	 $LN34@SerializeE
$LN2@SerializeE:
; File C:\Program Files (x86)\Microsoft Visual Studio\2019\Community\VC\Tools\MSVC\14.29.30133\atlmfc\include\afx.inl

; 212  : 	{ return (m_nMode & CArchive::load) == 0; }

  00018	8b 55 08	 mov	 edx, DWORD PTR _ar$[ebp]
  0001b	8b 42 18	 mov	 eax, DWORD PTR [edx+24]
  0001e	f7 d0		 not	 eax
  00020	a8 01		 test	 al, 1
; File C:\Program Files (x86)\Microsoft Visual Studio\2019\Community\VC\Tools\MSVC\14.29.30133\atlmfc\include\afxtempl.h

; 73   : 	if (ar.IsStoring())

  00022	74 3c		 je	 SHORT $LN10@SerializeE

; 74   : 	{
; 75   : 		TYPE* pData;
; 76   : 		UINT_PTR nElementsLeft;
; 77   : 
; 78   : 		nElementsLeft = nCount;
; 79   : 		pData = pElements;
; 80   : 		while( nElementsLeft > 0 )

  00024	85 f6		 test	 esi, esi
  00026	74 31		 je	 SHORT $LN8@SerializeE
  00028	0f 1f 84 00 00
	00 00 00	 npad	 8
$LL5@SerializeE:

; 81   : 		{
; 82   : 			UINT nElementsToWrite;
; 83   : 
; 84   : 			nElementsToWrite = UINT(__min(nElementsLeft, INT_MAX/sizeof(TYPE)));

  00030	bb ff ff ff 1f	 mov	 ebx, 536870911		; 1fffffffH
  00035	3b f3		 cmp	 esi, ebx
  00037	0f 42 de	 cmovb	 ebx, esi

; 85   : 			ar.Write(pData, nElementsToWrite*sizeof(TYPE));

  0003a	8d 3c 9d 00 00
	00 00		 lea	 edi, DWORD PTR [ebx*4]
  00041	57		 push	 edi
  00042	51		 push	 ecx
  00043	8b ca		 mov	 ecx, edx
  00045	e8 00 00 00 00	 call	 ?Write@CArchive@@QAEXPBXI@Z ; CArchive::Write

; 86   : 			nElementsLeft -= nElementsToWrite;
; 87   : 			pData += nElementsToWrite;

  0004a	8b 4d 0c	 mov	 ecx, DWORD PTR _pElements$[ebp]
  0004d	8b 55 08	 mov	 edx, DWORD PTR _ar$[ebp]
  00050	03 cf		 add	 ecx, edi
  00052	89 4d 0c	 mov	 DWORD PTR _pElements$[ebp], ecx
  00055	2b f3		 sub	 esi, ebx
  00057	75 d7		 jne	 SHORT $LL5@SerializeE
$LN8@SerializeE:
  00059	5f		 pop	 edi

; 105  : 		}
; 106  : 	}
; 107  : }

  0005a	5e		 pop	 esi
  0005b	5b		 pop	 ebx
  0005c	5d		 pop	 ebp
  0005d	c2 0c 00	 ret	 12			; 0000000cH
$LN10@SerializeE:

; 97   : 		while( nElementsLeft > 0 )

  00060	85 f6		 test	 esi, esi
  00062	74 f5		 je	 SHORT $LN8@SerializeE
$LL7@SerializeE:

; 98   : 		{
; 99   : 			UINT nElementsToRead;
; 100  : 
; 101  : 			nElementsToRead = UINT(__min(nElementsLeft, INT_MAX/sizeof(TYPE)));

  00064	bf ff ff ff 1f	 mov	 edi, 536870911		; 1fffffffH
  00069	3b f7		 cmp	 esi, edi
  0006b	0f 42 fe	 cmovb	 edi, esi

; 102  : 			ar.EnsureRead(pData, nElementsToRead*sizeof(TYPE));

  0006e	8d 1c bd 00 00
	00 00		 lea	 ebx, DWORD PTR [edi*4]
; File C:\Program Files (x86)\Microsoft Visual Studio\2019\Community\VC\Tools\MSVC\14.29.30133\atlmfc\include\afx.inl

; 399  : 	UINT nRead=Read(lpBuf, nCount);

  00075	53		 push	 ebx
  00076	51		 push	 ecx
  00077	8b ca		 mov	 ecx, edx
  00079	e8 00 00 00 00	 call	 ?Read@CArchive@@QAEIPAXI@Z ; CArchive::Read

; 400  : 	if(nRead!=nCount)

  0007e	3b c3		 cmp	 eax, ebx
  00080	75 16		 jne	 SHORT $LN23@SerializeE
; File C:\Program Files (x86)\Microsoft Visual Studio\2019\Community\VC\Tools\MSVC\14.29.30133\atlmfc\include\afxtempl.h

; 97   : 		while( nElementsLeft > 0 )

  00082	8b 4d 0c	 mov	 ecx, DWORD PTR _pElements$[ebp]
  00085	8b 55 08	 mov	 edx, DWORD PTR _ar$[ebp]

; 103  : 			nElementsLeft -= nElementsToRead;
; 104  : 			pData += nElementsToRead;

  00088	03 cb		 add	 ecx, ebx
  0008a	89 4d 0c	 mov	 DWORD PTR _pElements$[ebp], ecx
  0008d	2b f7		 sub	 esi, edi
  0008f	75 d3		 jne	 SHORT $LL7@SerializeE

; 105  : 		}
; 106  : 	}
; 107  : }

  00091	5f		 pop	 edi
  00092	5e		 pop	 esi
  00093	5b		 pop	 ebx
  00094	5d		 pop	 ebp
  00095	c2 0c 00	 ret	 12			; 0000000cH
$LN23@SerializeE:
; File C:\Program Files (x86)\Microsoft Visual Studio\2019\Community\VC\Tools\MSVC\14.29.30133\atlmfc\include\afx.inl

; 402  : 		AfxThrowArchiveException(CArchiveException::endOfFile);

  00098	6a 00		 push	 0
  0009a	6a 03		 push	 3
  0009c	e8 00 00 00 00	 call	 ?AfxThrowArchiveException@@YGXHPBD@Z ; AfxThrowArchiveException
$LN34@SerializeE:
; File C:\Program Files (x86)\Microsoft Visual Studio\2019\Community\VC\Tools\MSVC\14.29.30133\atlmfc\include\afxtempl.h

; 68   : 	ENSURE(nCount == 0 || pElements != NULL);

  000a1	e8 00 00 00 00	 call	 ?AfxThrowInvalidArgException@@YGXXZ ; AfxThrowInvalidArgException
$LN32@SerializeE:
  000a6	cc		 int	 3
??$SerializeElements@PAUIPacket000000@@@@YGXAAVCArchive@@PAPAUIPacket000000@@H@Z ENDP ; SerializeElements<IPacket000000 *>
_TEXT	ENDS
; Function compile flags: /Ogtp
; File C:\Program Files (x86)\Microsoft Visual Studio\2019\Community\VC\Tools\MSVC\14.29.30133\atlmfc\include\afxtempl.h
;	COMDAT ??$CompareElements@PAUIPacket000000@@PAU1@@@YGHPBQAUIPacket000000@@0@Z
_TEXT	SEGMENT
_pElement1$ = 8						; size = 4
_pElement2$ = 12					; size = 4
??$CompareElements@PAUIPacket000000@@PAU1@@@YGHPBQAUIPacket000000@@0@Z PROC ; CompareElements<IPacket000000 *,IPacket000000 *>, COMDAT

; 151  : {

  00000	55		 push	 ebp
  00001	8b ec		 mov	 ebp, esp

; 152  : 	ENSURE(pElement1 != NULL && pElement2 != NULL);

  00003	8b 4d 08	 mov	 ecx, DWORD PTR _pElement1$[ebp]
  00006	85 c9		 test	 ecx, ecx
  00008	74 14		 je	 SHORT $LN7@CompareEle
  0000a	8b 55 0c	 mov	 edx, DWORD PTR _pElement2$[ebp]
  0000d	85 d2		 test	 edx, edx
  0000f	74 0d		 je	 SHORT $LN7@CompareEle

; 153  : 	ASSERT(AfxIsValidAddress(pElement1, sizeof(TYPE), FALSE));
; 154  : 	ASSERT(AfxIsValidAddress(pElement2, sizeof(ARG_TYPE), FALSE));
; 155  : 
; 156  : 	return *pElement1 == *pElement2;

  00011	8b 09		 mov	 ecx, DWORD PTR [ecx]
  00013	33 c0		 xor	 eax, eax
  00015	3b 0a		 cmp	 ecx, DWORD PTR [edx]
  00017	0f 94 c0	 sete	 al

; 157  : }

  0001a	5d		 pop	 ebp
  0001b	c2 08 00	 ret	 8
$LN7@CompareEle:

; 152  : 	ENSURE(pElement1 != NULL && pElement2 != NULL);

  0001e	e8 00 00 00 00	 call	 ?AfxThrowInvalidArgException@@YGXXZ ; AfxThrowInvalidArgException
$LN10@CompareEle:
  00023	cc		 int	 3
??$CompareElements@PAUIPacket000000@@PAU1@@@YGHPBQAUIPacket000000@@0@Z ENDP ; CompareElements<IPacket000000 *,IPacket000000 *>
_TEXT	ENDS
; Function compile flags: /Ogtp
;	COMDAT ??__F?m_strAddInItemName@CLogAddInImp@@2V?$CStringT@DV?$StrTraitMFC_DLL@DV?$ChTraitsCRT@D@ATL@@@@@ATL@@A@@YAXXZ
text$yd	SEGMENT
??__F?m_strAddInItemName@CLogAddInImp@@2V?$CStringT@DV?$StrTraitMFC_DLL@DV?$ChTraitsCRT@D@ATL@@@@@ATL@@A@@YAXXZ PROC ; `dynamic atexit destructor for 'CLogAddInImp::m_strAddInItemName'', COMDAT
  00000	b9 00 00 00 00	 mov	 ecx, OFFSET ?m_strAddInItemName@CLogAddInImp@@2V?$CStringT@DV?$StrTraitMFC_DLL@DV?$ChTraitsCRT@D@ATL@@@@@ATL@@A ; CLogAddInImp::m_strAddInItemName
  00005	ff 25 00 00 00
	00		 jmp	 DWORD PTR __imp_??1?$CStringT@DV?$StrTraitMFC_DLL@DV?$ChTraitsCRT@D@ATL@@@@@ATL@@QAE@XZ
??__F?m_strAddInItemName@CLogAddInImp@@2V?$CStringT@DV?$StrTraitMFC_DLL@DV?$ChTraitsCRT@D@ATL@@@@@ATL@@A@@YAXXZ ENDP ; `dynamic atexit destructor for 'CLogAddInImp::m_strAddInItemName''
text$yd	ENDS
; Function compile flags: /Ogtp
; File D:\git\src\IBK\IBK_DRFN\ProjSrc\SrcChartEx\ChartOCX\AddInManager\ChartCommonAddIn\LogAddInImp.cpp
;	COMDAT ??__E?m_strAddInItemName@CLogAddInImp@@2V?$CStringT@DV?$StrTraitMFC_DLL@DV?$ChTraitsCRT@D@ATL@@@@@ATL@@A@@YAXXZ
text$di	SEGMENT
??__E?m_strAddInItemName@CLogAddInImp@@2V?$CStringT@DV?$StrTraitMFC_DLL@DV?$ChTraitsCRT@D@ATL@@@@@ATL@@A@@YAXXZ PROC ; `dynamic initializer for 'CLogAddInImp::m_strAddInItemName'', COMDAT

; 53   : CString CLogAddInImp::m_strAddInItemName = "LOG";

  00000	68 00 00 00 00	 push	 OFFSET ??_C@_03MLIHNEFJ@LOG@
  00005	b9 00 00 00 00	 mov	 ecx, OFFSET ?m_strAddInItemName@CLogAddInImp@@2V?$CStringT@DV?$StrTraitMFC_DLL@DV?$ChTraitsCRT@D@ATL@@@@@ATL@@A ; CLogAddInImp::m_strAddInItemName
  0000a	ff 15 00 00 00
	00		 call	 DWORD PTR __imp_??0?$CStringT@DV?$StrTraitMFC_DLL@DV?$ChTraitsCRT@D@ATL@@@@@ATL@@QAE@PBD@Z
  00010	68 00 00 00 00	 push	 OFFSET ??__F?m_strAddInItemName@CLogAddInImp@@2V?$CStringT@DV?$StrTraitMFC_DLL@DV?$ChTraitsCRT@D@ATL@@@@@ATL@@A@@YAXXZ ; `dynamic atexit destructor for 'CLogAddInImp::m_strAddInItemName''
  00015	e8 00 00 00 00	 call	 _atexit
  0001a	59		 pop	 ecx
  0001b	c3		 ret	 0
??__E?m_strAddInItemName@CLogAddInImp@@2V?$CStringT@DV?$StrTraitMFC_DLL@DV?$ChTraitsCRT@D@ATL@@@@@ATL@@A@@YAXXZ ENDP ; `dynamic initializer for 'CLogAddInImp::m_strAddInItemName''
text$di	ENDS
; Function compile flags: /Ogtp
; File D:\git\src\IBK\IBK_DRFN\ProjSrc\SrcChartEx\ChartOCX\AddInManager\Include_AddIn\I000000\_IPacketList.h
; File C:\Program Files (x86)\Microsoft Visual Studio\2019\Community\VC\Tools\MSVC\14.29.30133\atlmfc\include\afxtempl.h
; File C:\Program Files (x86)\Microsoft Visual Studio\2019\Community\VC\Tools\MSVC\14.29.30133\atlmfc\include\afx.inl
;	COMDAT ??_GCIPacketList000000@@UAEPAXI@Z
_TEXT	SEGMENT
__$EHRec$ = -12						; size = 12
___flags$ = 8						; size = 4
??_GCIPacketList000000@@UAEPAXI@Z PROC			; CIPacketList000000::`scalar deleting destructor', COMDAT
; _this$ = ecx
  00000	55		 push	 ebp
  00001	8b ec		 mov	 ebp, esp
  00003	6a ff		 push	 -1
  00005	68 00 00 00 00	 push	 __ehhandler$??_GCIPacketList000000@@UAEPAXI@Z
  0000a	64 a1 00 00 00
	00		 mov	 eax, DWORD PTR fs:0
  00010	50		 push	 eax
  00011	56		 push	 esi
  00012	a1 00 00 00 00	 mov	 eax, DWORD PTR ___security_cookie
  00017	33 c5		 xor	 eax, ebp
  00019	50		 push	 eax
  0001a	8d 45 f4	 lea	 eax, DWORD PTR __$EHRec$[ebp]
  0001d	64 a3 00 00 00
	00		 mov	 DWORD PTR fs:0, eax
  00023	8b f1		 mov	 esi, ecx
; File D:\git\src\IBK\IBK_DRFN\ProjSrc\SrcChartEx\ChartOCX\AddInManager\Include_AddIn\I000000\_IPacketList.h

; 71   : 	~CIPacketList()	{}

  00025	c7 46 1c 00 00
	00 00		 mov	 DWORD PTR [esi+28], OFFSET ??_7IPacketList000000@@6B@
; File C:\Program Files (x86)\Microsoft Visual Studio\2019\Community\VC\Tools\MSVC\14.29.30133\atlmfc\include\afxtempl.h

; 872  : 	m_pBlocks->FreeDataChain();

  0002c	8b 4e 14	 mov	 ecx, DWORD PTR [esi+20]

; 878  : {

  0002f	c7 45 fc 00 00
	00 00		 mov	 DWORD PTR __$EHRec$[ebp+8], 0
  00036	c7 06 00 00 00
	00		 mov	 DWORD PTR [esi], OFFSET ??_7?$CList@PAUIPacket000000@@PAU1@@@6B@

; 870  : 	m_nCount = 0;

  0003c	c7 46 0c 00 00
	00 00		 mov	 DWORD PTR [esi+12], 0

; 871  : 	m_pNodeHead = m_pNodeTail = m_pNodeFree = NULL;

  00043	c7 46 10 00 00
	00 00		 mov	 DWORD PTR [esi+16], 0
  0004a	c7 46 08 00 00
	00 00		 mov	 DWORD PTR [esi+8], 0
  00051	c7 46 04 00 00
	00 00		 mov	 DWORD PTR [esi+4], 0

; 872  : 	m_pBlocks->FreeDataChain();

  00058	e8 00 00 00 00	 call	 ?FreeDataChain@CPlex@@QAEXXZ ; CPlex::FreeDataChain

; 873  : 	m_pBlocks = NULL;

  0005d	8b 45 08	 mov	 eax, DWORD PTR ___flags$[ebp]
  00060	c7 46 14 00 00
	00 00		 mov	 DWORD PTR [esi+20], 0
  00067	a8 01		 test	 al, 1
  00069	74 2c		 je	 SHORT $LN25@scalar
  0006b	a8 04		 test	 al, 4
  0006d	75 1d		 jne	 SHORT $LN3@scalar
; File C:\Program Files (x86)\Microsoft Visual Studio\2019\Community\VC\Tools\MSVC\14.29.30133\atlmfc\include\afx.inl

; 112  : 	{ ::operator delete(p); }

  0006f	56		 push	 esi
  00070	e8 00 00 00 00	 call	 ??3@YAXPAX@Z		; operator delete
  00075	83 c4 04	 add	 esp, 4
  00078	8b c6		 mov	 eax, esi
  0007a	8b 4d f4	 mov	 ecx, DWORD PTR __$EHRec$[ebp]
  0007d	64 89 0d 00 00
	00 00		 mov	 DWORD PTR fs:0, ecx
  00084	59		 pop	 ecx
  00085	5e		 pop	 esi
  00086	8b e5		 mov	 esp, ebp
  00088	5d		 pop	 ebp
  00089	c2 04 00	 ret	 4
$LN3@scalar:
  0008c	6a 20		 push	 32			; 00000020H
  0008e	56		 push	 esi
  0008f	e8 00 00 00 00	 call	 ?__global_delete@@YAXPAXI@Z ; __global_delete
  00094	83 c4 08	 add	 esp, 8
$LN25@scalar:
  00097	8b c6		 mov	 eax, esi
  00099	8b 4d f4	 mov	 ecx, DWORD PTR __$EHRec$[ebp]
  0009c	64 89 0d 00 00
	00 00		 mov	 DWORD PTR fs:0, ecx
  000a3	59		 pop	 ecx
  000a4	5e		 pop	 esi
  000a5	8b e5		 mov	 esp, ebp
  000a7	5d		 pop	 ebp
  000a8	c2 04 00	 ret	 4
  000ab	cc		 int	 3
  000ac	cc		 int	 3
  000ad	cc		 int	 3
  000ae	cc		 int	 3
  000af	cc		 int	 3
_TEXT	ENDS
;	COMDAT text$x
text$x	SEGMENT
__ehhandler$??_GCIPacketList000000@@UAEPAXI@Z:
  00000	90		 npad	 1
  00001	90		 npad	 1
  00002	8b 54 24 08	 mov	 edx, DWORD PTR [esp+8]
  00006	8d 42 0c	 lea	 eax, DWORD PTR [edx+12]
  00009	8b 4a f8	 mov	 ecx, DWORD PTR [edx-8]
  0000c	33 c8		 xor	 ecx, eax
  0000e	e8 00 00 00 00	 call	 @__security_check_cookie@4
  00013	b8 00 00 00 00	 mov	 eax, OFFSET __ehfuncinfo$??_GCIPacketList000000@@UAEPAXI@Z
  00018	e9 00 00 00 00	 jmp	 ___CxxFrameHandler3
text$x	ENDS
??_GCIPacketList000000@@UAEPAXI@Z ENDP			; CIPacketList000000::`scalar deleting destructor'
; Function compile flags: /Ogtp
; File D:\git\src\IBK\IBK_DRFN\ProjSrc\SrcChartEx\ChartOCX\AddInManager\Include_AddIn\I000000\_IPacketList.h
; File C:\Program Files (x86)\Microsoft Visual Studio\2019\Community\VC\Tools\MSVC\14.29.30133\atlmfc\include\afxtempl.h
; File D:\git\src\IBK\IBK_DRFN\ProjSrc\SrcChartEx\ChartOCX\AddInManager\Include_AddIn\I000000\_IPacketList.h
;	COMDAT ?FindIndex@CIPacketList000000@@UBEPAU__POSITION@@H@Z
_TEXT	SEGMENT
_nIndex$ = 8						; size = 4
?FindIndex@CIPacketList000000@@UBEPAU__POSITION@@H@Z PROC ; CIPacketList000000::FindIndex, COMDAT
; _this$ = ecx

; 123  : 	virtual POSITION	FindIndex(int nIndex) const										{	return CIPacketListBase::FindIndex( nIndex);	}

  00000	55		 push	 ebp
  00001	8b ec		 mov	 ebp, esp
  00003	8b 55 08	 mov	 edx, DWORD PTR _nIndex$[ebp]
; File C:\Program Files (x86)\Microsoft Visual Studio\2019\Community\VC\Tools\MSVC\14.29.30133\atlmfc\include\afxtempl.h

; 1133 : 	if (nIndex >= m_nCount || nIndex < 0)

  00006	3b 51 f0	 cmp	 edx, DWORD PTR [ecx-16]
  00009	7d 14		 jge	 SHORT $LN7@FindIndex
  0000b	85 d2		 test	 edx, edx
  0000d	78 10		 js	 SHORT $LN7@FindIndex

; 1134 : 		return NULL;  // went too far
; 1135 : 
; 1136 : 	CNode* pNode = m_pNodeHead;

  0000f	8b 41 e8	 mov	 eax, DWORD PTR [ecx-24]

; 1137 : 	while (nIndex--)

  00012	74 0d		 je	 SHORT $LN3@FindIndex
$LL4@FindIndex:

; 1138 : 	{
; 1139 : 		ASSERT(AfxIsValidAddress(pNode, sizeof(CNode)));
; 1140 : 		pNode = pNode->pNext;

  00014	8b 00		 mov	 eax, DWORD PTR [eax]
  00016	83 ea 01	 sub	 edx, 1
  00019	75 f9		 jne	 SHORT $LL4@FindIndex
; File D:\git\src\IBK\IBK_DRFN\ProjSrc\SrcChartEx\ChartOCX\AddInManager\Include_AddIn\I000000\_IPacketList.h

; 123  : 	virtual POSITION	FindIndex(int nIndex) const										{	return CIPacketListBase::FindIndex( nIndex);	}

  0001b	5d		 pop	 ebp
  0001c	c2 04 00	 ret	 4
$LN7@FindIndex:
  0001f	33 c0		 xor	 eax, eax
$LN3@FindIndex:
  00021	5d		 pop	 ebp
  00022	c2 04 00	 ret	 4
?FindIndex@CIPacketList000000@@UBEPAU__POSITION@@H@Z ENDP ; CIPacketList000000::FindIndex
_TEXT	ENDS
; Function compile flags: /Ogtp
; File D:\git\src\IBK\IBK_DRFN\ProjSrc\SrcChartEx\ChartOCX\AddInManager\Include_AddIn\I000000\_IPacketList.h
; File C:\Program Files (x86)\Microsoft Visual Studio\2019\Community\VC\Tools\MSVC\14.29.30133\atlmfc\include\afxtempl.h
; File D:\git\src\IBK\IBK_DRFN\ProjSrc\SrcChartEx\ChartOCX\AddInManager\Include_AddIn\I000000\_IPacketList.h
; File C:\Program Files (x86)\Microsoft Visual Studio\2019\Community\VC\Tools\MSVC\14.29.30133\atlmfc\include\afxtempl.h
; File D:\git\src\IBK\IBK_DRFN\ProjSrc\SrcChartEx\ChartOCX\AddInManager\Include_AddIn\I000000\_IPacketList.h
;	COMDAT ?Find@CIPacketList000000@@UBEPAU__POSITION@@PAUIPacket000000@@PAU2@@Z
_TEXT	SEGMENT
_searchValue$ = 8					; size = 4
_startAfter$ = 12					; size = 4
?Find@CIPacketList000000@@UBEPAU__POSITION@@PAUIPacket000000@@PAU2@@Z PROC ; CIPacketList000000::Find, COMDAT
; _this$ = ecx

; 121  : 	virtual POSITION	Find(IPacket *searchValue, POSITION startAfter = NULL) const	{	return CIPacketListBase::Find( searchValue, startAfter);	}

  00000	55		 push	 ebp
  00001	8b ec		 mov	 ebp, esp
  00003	8b 45 0c	 mov	 eax, DWORD PTR _startAfter$[ebp]
; File C:\Program Files (x86)\Microsoft Visual Studio\2019\Community\VC\Tools\MSVC\14.29.30133\atlmfc\include\afxtempl.h

; 1151 : 	if (pNode == NULL)

  00006	85 c0		 test	 eax, eax
  00008	75 03		 jne	 SHORT $LN8@Find

; 1152 : 	{
; 1153 : 		pNode = m_pNodeHead;  // start at head

  0000a	8d 41 e8	 lea	 eax, DWORD PTR [ecx-24]
$LN8@Find:

; 1154 : 	}
; 1155 : 	else
; 1156 : 	{
; 1157 : 		ASSERT(AfxIsValidAddress(pNode, sizeof(CNode)));
; 1158 : 		pNode = pNode->pNext;  // start after the one specified
; 1159 : 	}
; 1160 : 
; 1161 : 	for (; pNode != NULL; pNode = pNode->pNext)

  0000d	8b 00		 mov	 eax, DWORD PTR [eax]
  0000f	85 c0		 test	 eax, eax
  00011	74 14		 je	 SHORT $LN5@Find
  00013	8b 55 08	 mov	 edx, DWORD PTR _searchValue$[ebp]
$LL6@Find:

; 1162 : 		if (CompareElements<TYPE>(&pNode->data, &searchValue))

  00016	8d 48 08	 lea	 ecx, DWORD PTR [eax+8]

; 152  : 	ENSURE(pElement1 != NULL && pElement2 != NULL);

  00019	85 c9		 test	 ecx, ecx
  0001b	74 10		 je	 SHORT $LN22@Find

; 153  : 	ASSERT(AfxIsValidAddress(pElement1, sizeof(TYPE), FALSE));
; 154  : 	ASSERT(AfxIsValidAddress(pElement2, sizeof(ARG_TYPE), FALSE));
; 155  : 
; 156  : 	return *pElement1 == *pElement2;

  0001d	39 11		 cmp	 DWORD PTR [ecx], edx

; 1162 : 		if (CompareElements<TYPE>(&pNode->data, &searchValue))

  0001f	74 08		 je	 SHORT $LN20@Find

; 1154 : 	}
; 1155 : 	else
; 1156 : 	{
; 1157 : 		ASSERT(AfxIsValidAddress(pNode, sizeof(CNode)));
; 1158 : 		pNode = pNode->pNext;  // start after the one specified
; 1159 : 	}
; 1160 : 
; 1161 : 	for (; pNode != NULL; pNode = pNode->pNext)

  00021	8b 00		 mov	 eax, DWORD PTR [eax]
  00023	85 c0		 test	 eax, eax
  00025	75 ef		 jne	 SHORT $LL6@Find
$LN5@Find:

; 1163 : 			return (POSITION)pNode;
; 1164 : 	return NULL;

  00027	33 c0		 xor	 eax, eax
$LN20@Find:
; File D:\git\src\IBK\IBK_DRFN\ProjSrc\SrcChartEx\ChartOCX\AddInManager\Include_AddIn\I000000\_IPacketList.h

; 121  : 	virtual POSITION	Find(IPacket *searchValue, POSITION startAfter = NULL) const	{	return CIPacketListBase::Find( searchValue, startAfter);	}

  00029	5d		 pop	 ebp
  0002a	c2 08 00	 ret	 8
$LN22@Find:
; File C:\Program Files (x86)\Microsoft Visual Studio\2019\Community\VC\Tools\MSVC\14.29.30133\atlmfc\include\afxtempl.h

; 152  : 	ENSURE(pElement1 != NULL && pElement2 != NULL);

  0002d	e8 00 00 00 00	 call	 ?AfxThrowInvalidArgException@@YGXXZ ; AfxThrowInvalidArgException
$LN29@Find:
  00032	cc		 int	 3
?Find@CIPacketList000000@@UBEPAU__POSITION@@PAUIPacket000000@@PAU2@@Z ENDP ; CIPacketList000000::Find
_TEXT	ENDS
; Function compile flags: /Ogtp
; File D:\git\src\IBK\IBK_DRFN\ProjSrc\SrcChartEx\ChartOCX\AddInManager\Include_AddIn\I000000\_IPacketList.h
; File C:\Program Files (x86)\Microsoft Visual Studio\2019\Community\VC\Tools\MSVC\14.29.30133\atlmfc\include\afxtempl.h
; File D:\git\src\IBK\IBK_DRFN\ProjSrc\SrcChartEx\ChartOCX\AddInManager\Include_AddIn\I000000\_IPacketList.h
; File C:\Program Files (x86)\Microsoft Visual Studio\2019\Community\VC\Tools\MSVC\14.29.30133\atlmfc\include\afxtempl.h
; File D:\git\src\IBK\IBK_DRFN\ProjSrc\SrcChartEx\ChartOCX\AddInManager\Include_AddIn\I000000\_IPacketList.h
; File C:\Program Files (x86)\Microsoft Visual Studio\2019\Community\VC\Tools\MSVC\14.29.30133\atlmfc\include\afxtempl.h
; File D:\git\src\IBK\IBK_DRFN\ProjSrc\SrcChartEx\ChartOCX\AddInManager\Include_AddIn\I000000\_IPacketList.h
; File C:\Program Files (x86)\Microsoft Visual Studio\2019\Community\VC\Tools\MSVC\14.29.30133\atlmfc\include\afxtempl.h
; File D:\git\src\IBK\IBK_DRFN\ProjSrc\SrcChartEx\ChartOCX\AddInManager\Include_AddIn\I000000\_IPacketList.h
; File C:\Program Files (x86)\Microsoft Visual Studio\2019\Community\VC\Tools\MSVC\14.29.30133\atlmfc\include\afxtempl.h
; File D:\git\src\IBK\IBK_DRFN\ProjSrc\SrcChartEx\ChartOCX\AddInManager\Include_AddIn\I000000\_IPacketList.h
; File C:\Program Files (x86)\Microsoft Visual Studio\2019\Community\VC\Tools\MSVC\14.29.30133\atlmfc\include\afxtempl.h
; File D:\git\src\IBK\IBK_DRFN\ProjSrc\SrcChartEx\ChartOCX\AddInManager\Include_AddIn\I000000\_IPacketList.h
; File C:\Program Files (x86)\Microsoft Visual Studio\2019\Community\VC\Tools\MSVC\14.29.30133\atlmfc\include\afxtempl.h
; File D:\git\src\IBK\IBK_DRFN\ProjSrc\SrcChartEx\ChartOCX\AddInManager\Include_AddIn\I000000\_IPacketList.h
; File C:\Program Files (x86)\Microsoft Visual Studio\2019\Community\VC\Tools\MSVC\14.29.30133\atlmfc\include\afxtempl.h
; File D:\git\src\IBK\IBK_DRFN\ProjSrc\SrcChartEx\ChartOCX\AddInManager\Include_AddIn\I000000\_IPacketList.h
; File C:\Program Files (x86)\Microsoft Visual Studio\2019\Community\VC\Tools\MSVC\14.29.30133\atlmfc\include\afxtempl.h
; File D:\git\src\IBK\IBK_DRFN\ProjSrc\SrcChartEx\ChartOCX\AddInManager\Include_AddIn\I000000\_IPacketList.h
;	COMDAT ?InsertAfter@CIPacketList000000@@UAEPAU__POSITION@@PAU2@PAUIPacket000000@@@Z
_TEXT	SEGMENT
_position$ = 8						; size = 4
_newElement$ = 12					; size = 4
?InsertAfter@CIPacketList000000@@UAEPAU__POSITION@@PAU2@PAUIPacket000000@@@Z PROC ; CIPacketList000000::InsertAfter, COMDAT
; _this$ = ecx

; 118  : 	virtual POSITION	InsertAfter(POSITION position, IPacket *newElement)		{	return CIPacketListBase::InsertAfter( position, newElement);	}

  00000	55		 push	 ebp
  00001	8b ec		 mov	 ebp, esp
  00003	56		 push	 esi
  00004	57		 push	 edi
; File C:\Program Files (x86)\Microsoft Visual Studio\2019\Community\VC\Tools\MSVC\14.29.30133\atlmfc\include\afxtempl.h

; 1075 : 	if (position == NULL)

  00005	8b 7d 08	 mov	 edi, DWORD PTR _position$[ebp]
; File D:\git\src\IBK\IBK_DRFN\ProjSrc\SrcChartEx\ChartOCX\AddInManager\Include_AddIn\I000000\_IPacketList.h

; 118  : 	virtual POSITION	InsertAfter(POSITION position, IPacket *newElement)		{	return CIPacketListBase::InsertAfter( position, newElement);	}

  00008	8d 71 e4	 lea	 esi, DWORD PTR [ecx-28]
; File C:\Program Files (x86)\Microsoft Visual Studio\2019\Community\VC\Tools\MSVC\14.29.30133\atlmfc\include\afxtempl.h

; 1075 : 	if (position == NULL)

  0000b	8b ce		 mov	 ecx, esi
  0000d	85 ff		 test	 edi, edi
  0000f	75 33		 jne	 SHORT $LN4@InsertAfte

; 968  : 	CNode* pNewNode = NewNode(m_pNodeTail, NULL);

  00011	57		 push	 edi
  00012	ff 76 08	 push	 DWORD PTR [esi+8]
  00015	e8 00 00 00 00	 call	 ?NewNode@?$CList@PAUIPacket000000@@PAU1@@@IAEPAUCNode@1@PAU21@0@Z ; CList<IPacket000000 *,IPacket000000 *>::NewNode
  0001a	8b c8		 mov	 ecx, eax

; 969  : 	pNewNode->data = newElement;

  0001c	8b 45 0c	 mov	 eax, DWORD PTR _newElement$[ebp]
  0001f	89 41 08	 mov	 DWORD PTR [ecx+8], eax

; 970  : 	if (m_pNodeTail != NULL)

  00022	8b 46 08	 mov	 eax, DWORD PTR [esi+8]
  00025	85 c0		 test	 eax, eax
  00027	74 0d		 je	 SHORT $LN9@InsertAfte

; 971  : 		m_pNodeTail->pNext = pNewNode;

  00029	89 08		 mov	 DWORD PTR [eax], ecx
; File D:\git\src\IBK\IBK_DRFN\ProjSrc\SrcChartEx\ChartOCX\AddInManager\Include_AddIn\I000000\_IPacketList.h

; 118  : 	virtual POSITION	InsertAfter(POSITION position, IPacket *newElement)		{	return CIPacketListBase::InsertAfter( position, newElement);	}

  0002b	8b c1		 mov	 eax, ecx
  0002d	5f		 pop	 edi
; File C:\Program Files (x86)\Microsoft Visual Studio\2019\Community\VC\Tools\MSVC\14.29.30133\atlmfc\include\afxtempl.h

; 974  : 	m_pNodeTail = pNewNode;

  0002e	89 4e 08	 mov	 DWORD PTR [esi+8], ecx
; File D:\git\src\IBK\IBK_DRFN\ProjSrc\SrcChartEx\ChartOCX\AddInManager\Include_AddIn\I000000\_IPacketList.h

; 118  : 	virtual POSITION	InsertAfter(POSITION position, IPacket *newElement)		{	return CIPacketListBase::InsertAfter( position, newElement);	}

  00031	5e		 pop	 esi
  00032	5d		 pop	 ebp
  00033	c2 08 00	 ret	 8
$LN9@InsertAfte:
  00036	5f		 pop	 edi
; File C:\Program Files (x86)\Microsoft Visual Studio\2019\Community\VC\Tools\MSVC\14.29.30133\atlmfc\include\afxtempl.h

; 973  : 		m_pNodeHead = pNewNode;

  00037	89 4e 04	 mov	 DWORD PTR [esi+4], ecx
; File D:\git\src\IBK\IBK_DRFN\ProjSrc\SrcChartEx\ChartOCX\AddInManager\Include_AddIn\I000000\_IPacketList.h

; 118  : 	virtual POSITION	InsertAfter(POSITION position, IPacket *newElement)		{	return CIPacketListBase::InsertAfter( position, newElement);	}

  0003a	8b c1		 mov	 eax, ecx
; File C:\Program Files (x86)\Microsoft Visual Studio\2019\Community\VC\Tools\MSVC\14.29.30133\atlmfc\include\afxtempl.h

; 974  : 	m_pNodeTail = pNewNode;

  0003c	89 4e 08	 mov	 DWORD PTR [esi+8], ecx
; File D:\git\src\IBK\IBK_DRFN\ProjSrc\SrcChartEx\ChartOCX\AddInManager\Include_AddIn\I000000\_IPacketList.h

; 118  : 	virtual POSITION	InsertAfter(POSITION position, IPacket *newElement)		{	return CIPacketListBase::InsertAfter( position, newElement);	}

  0003f	5e		 pop	 esi
  00040	5d		 pop	 ebp
  00041	c2 08 00	 ret	 8
$LN4@InsertAfte:
; File C:\Program Files (x86)\Microsoft Visual Studio\2019\Community\VC\Tools\MSVC\14.29.30133\atlmfc\include\afxtempl.h

; 1081 : 	CNode* pNewNode = NewNode(pOldNode, pOldNode->pNext);

  00044	ff 37		 push	 DWORD PTR [edi]
  00046	57		 push	 edi
  00047	e8 00 00 00 00	 call	 ?NewNode@?$CList@PAUIPacket000000@@PAU1@@@IAEPAUCNode@1@PAU21@0@Z ; CList<IPacket000000 *,IPacket000000 *>::NewNode
  0004c	8b c8		 mov	 ecx, eax

; 1082 : 	pNewNode->data = newElement;

  0004e	8b 45 0c	 mov	 eax, DWORD PTR _newElement$[ebp]
  00051	89 41 08	 mov	 DWORD PTR [ecx+8], eax

; 1083 : 
; 1084 : 	if (pOldNode->pNext != NULL)

  00054	8b 07		 mov	 eax, DWORD PTR [edi]
  00056	85 c0		 test	 eax, eax
  00058	74 0d		 je	 SHORT $LN5@InsertAfte

; 1085 : 	{
; 1086 : 		ASSERT(AfxIsValidAddress(pOldNode->pNext, sizeof(CNode)));
; 1087 : 		pOldNode->pNext->pPrev = pNewNode;

  0005a	89 48 04	 mov	 DWORD PTR [eax+4], ecx
; File D:\git\src\IBK\IBK_DRFN\ProjSrc\SrcChartEx\ChartOCX\AddInManager\Include_AddIn\I000000\_IPacketList.h

; 118  : 	virtual POSITION	InsertAfter(POSITION position, IPacket *newElement)		{	return CIPacketListBase::InsertAfter( position, newElement);	}

  0005d	8b c1		 mov	 eax, ecx
; File C:\Program Files (x86)\Microsoft Visual Studio\2019\Community\VC\Tools\MSVC\14.29.30133\atlmfc\include\afxtempl.h

; 1094 : 	pOldNode->pNext = pNewNode;

  0005f	89 0f		 mov	 DWORD PTR [edi], ecx
  00061	5f		 pop	 edi
; File D:\git\src\IBK\IBK_DRFN\ProjSrc\SrcChartEx\ChartOCX\AddInManager\Include_AddIn\I000000\_IPacketList.h

; 118  : 	virtual POSITION	InsertAfter(POSITION position, IPacket *newElement)		{	return CIPacketListBase::InsertAfter( position, newElement);	}

  00062	5e		 pop	 esi
  00063	5d		 pop	 ebp
  00064	c2 08 00	 ret	 8
$LN5@InsertAfte:
; File C:\Program Files (x86)\Microsoft Visual Studio\2019\Community\VC\Tools\MSVC\14.29.30133\atlmfc\include\afxtempl.h

; 1092 : 		m_pNodeTail = pNewNode;

  00067	89 4e 08	 mov	 DWORD PTR [esi+8], ecx
; File D:\git\src\IBK\IBK_DRFN\ProjSrc\SrcChartEx\ChartOCX\AddInManager\Include_AddIn\I000000\_IPacketList.h

; 118  : 	virtual POSITION	InsertAfter(POSITION position, IPacket *newElement)		{	return CIPacketListBase::InsertAfter( position, newElement);	}

  0006a	8b c1		 mov	 eax, ecx
; File C:\Program Files (x86)\Microsoft Visual Studio\2019\Community\VC\Tools\MSVC\14.29.30133\atlmfc\include\afxtempl.h

; 1094 : 	pOldNode->pNext = pNewNode;

  0006c	89 0f		 mov	 DWORD PTR [edi], ecx
  0006e	5f		 pop	 edi
; File D:\git\src\IBK\IBK_DRFN\ProjSrc\SrcChartEx\ChartOCX\AddInManager\Include_AddIn\I000000\_IPacketList.h

; 118  : 	virtual POSITION	InsertAfter(POSITION position, IPacket *newElement)		{	return CIPacketListBase::InsertAfter( position, newElement);	}

  0006f	5e		 pop	 esi
  00070	5d		 pop	 ebp
  00071	c2 08 00	 ret	 8
?InsertAfter@CIPacketList000000@@UAEPAU__POSITION@@PAU2@PAUIPacket000000@@@Z ENDP ; CIPacketList000000::InsertAfter
_TEXT	ENDS
; Function compile flags: /Ogtp
; File D:\git\src\IBK\IBK_DRFN\ProjSrc\SrcChartEx\ChartOCX\AddInManager\Include_AddIn\I000000\_IPacketList.h
; File C:\Program Files (x86)\Microsoft Visual Studio\2019\Community\VC\Tools\MSVC\14.29.30133\atlmfc\include\afxtempl.h
; File D:\git\src\IBK\IBK_DRFN\ProjSrc\SrcChartEx\ChartOCX\AddInManager\Include_AddIn\I000000\_IPacketList.h
; File C:\Program Files (x86)\Microsoft Visual Studio\2019\Community\VC\Tools\MSVC\14.29.30133\atlmfc\include\afxtempl.h
; File D:\git\src\IBK\IBK_DRFN\ProjSrc\SrcChartEx\ChartOCX\AddInManager\Include_AddIn\I000000\_IPacketList.h
; File C:\Program Files (x86)\Microsoft Visual Studio\2019\Community\VC\Tools\MSVC\14.29.30133\atlmfc\include\afxtempl.h
; File D:\git\src\IBK\IBK_DRFN\ProjSrc\SrcChartEx\ChartOCX\AddInManager\Include_AddIn\I000000\_IPacketList.h
; File C:\Program Files (x86)\Microsoft Visual Studio\2019\Community\VC\Tools\MSVC\14.29.30133\atlmfc\include\afxtempl.h
; File D:\git\src\IBK\IBK_DRFN\ProjSrc\SrcChartEx\ChartOCX\AddInManager\Include_AddIn\I000000\_IPacketList.h
; File C:\Program Files (x86)\Microsoft Visual Studio\2019\Community\VC\Tools\MSVC\14.29.30133\atlmfc\include\afxtempl.h
; File D:\git\src\IBK\IBK_DRFN\ProjSrc\SrcChartEx\ChartOCX\AddInManager\Include_AddIn\I000000\_IPacketList.h
; File C:\Program Files (x86)\Microsoft Visual Studio\2019\Community\VC\Tools\MSVC\14.29.30133\atlmfc\include\afxtempl.h
; File D:\git\src\IBK\IBK_DRFN\ProjSrc\SrcChartEx\ChartOCX\AddInManager\Include_AddIn\I000000\_IPacketList.h
; File C:\Program Files (x86)\Microsoft Visual Studio\2019\Community\VC\Tools\MSVC\14.29.30133\atlmfc\include\afxtempl.h
; File D:\git\src\IBK\IBK_DRFN\ProjSrc\SrcChartEx\ChartOCX\AddInManager\Include_AddIn\I000000\_IPacketList.h
; File C:\Program Files (x86)\Microsoft Visual Studio\2019\Community\VC\Tools\MSVC\14.29.30133\atlmfc\include\afxtempl.h
; File D:\git\src\IBK\IBK_DRFN\ProjSrc\SrcChartEx\ChartOCX\AddInManager\Include_AddIn\I000000\_IPacketList.h
; File C:\Program Files (x86)\Microsoft Visual Studio\2019\Community\VC\Tools\MSVC\14.29.30133\atlmfc\include\afxtempl.h
; File D:\git\src\IBK\IBK_DRFN\ProjSrc\SrcChartEx\ChartOCX\AddInManager\Include_AddIn\I000000\_IPacketList.h
;	COMDAT ?InsertBefore@CIPacketList000000@@UAEPAU__POSITION@@PAU2@PAUIPacket000000@@@Z
_TEXT	SEGMENT
_position$ = 8						; size = 4
_newElement$ = 12					; size = 4
?InsertBefore@CIPacketList000000@@UAEPAU__POSITION@@PAU2@PAUIPacket000000@@@Z PROC ; CIPacketList000000::InsertBefore, COMDAT
; _this$ = ecx

; 117  : 	virtual POSITION	InsertBefore(POSITION position, IPacket *newElement)	{	return CIPacketListBase::InsertBefore( position, newElement);	}

  00000	55		 push	 ebp
  00001	8b ec		 mov	 ebp, esp
  00003	56		 push	 esi
  00004	57		 push	 edi
; File C:\Program Files (x86)\Microsoft Visual Studio\2019\Community\VC\Tools\MSVC\14.29.30133\atlmfc\include\afxtempl.h

; 1048 : 	if (position == NULL)

  00005	8b 7d 08	 mov	 edi, DWORD PTR _position$[ebp]
; File D:\git\src\IBK\IBK_DRFN\ProjSrc\SrcChartEx\ChartOCX\AddInManager\Include_AddIn\I000000\_IPacketList.h

; 117  : 	virtual POSITION	InsertBefore(POSITION position, IPacket *newElement)	{	return CIPacketListBase::InsertBefore( position, newElement);	}

  00008	8d 71 e4	 lea	 esi, DWORD PTR [ecx-28]
; File C:\Program Files (x86)\Microsoft Visual Studio\2019\Community\VC\Tools\MSVC\14.29.30133\atlmfc\include\afxtempl.h

; 1048 : 	if (position == NULL)

  0000b	8b ce		 mov	 ecx, esi
  0000d	85 ff		 test	 edi, edi
  0000f	75 34		 jne	 SHORT $LN4@InsertBefo

; 953  : 	CNode* pNewNode = NewNode(NULL, m_pNodeHead);

  00011	ff 76 04	 push	 DWORD PTR [esi+4]
  00014	57		 push	 edi
  00015	e8 00 00 00 00	 call	 ?NewNode@?$CList@PAUIPacket000000@@PAU1@@@IAEPAUCNode@1@PAU21@0@Z ; CList<IPacket000000 *,IPacket000000 *>::NewNode
  0001a	8b c8		 mov	 ecx, eax

; 954  : 	pNewNode->data = newElement;

  0001c	8b 45 0c	 mov	 eax, DWORD PTR _newElement$[ebp]
  0001f	89 41 08	 mov	 DWORD PTR [ecx+8], eax

; 955  : 	if (m_pNodeHead != NULL)

  00022	8b 46 04	 mov	 eax, DWORD PTR [esi+4]
  00025	85 c0		 test	 eax, eax
  00027	74 0e		 je	 SHORT $LN9@InsertBefo

; 956  : 		m_pNodeHead->pPrev = pNewNode;

  00029	89 48 04	 mov	 DWORD PTR [eax+4], ecx
; File D:\git\src\IBK\IBK_DRFN\ProjSrc\SrcChartEx\ChartOCX\AddInManager\Include_AddIn\I000000\_IPacketList.h

; 117  : 	virtual POSITION	InsertBefore(POSITION position, IPacket *newElement)	{	return CIPacketListBase::InsertBefore( position, newElement);	}

  0002c	8b c1		 mov	 eax, ecx
  0002e	5f		 pop	 edi
; File C:\Program Files (x86)\Microsoft Visual Studio\2019\Community\VC\Tools\MSVC\14.29.30133\atlmfc\include\afxtempl.h

; 959  : 	m_pNodeHead = pNewNode;

  0002f	89 4e 04	 mov	 DWORD PTR [esi+4], ecx
; File D:\git\src\IBK\IBK_DRFN\ProjSrc\SrcChartEx\ChartOCX\AddInManager\Include_AddIn\I000000\_IPacketList.h

; 117  : 	virtual POSITION	InsertBefore(POSITION position, IPacket *newElement)	{	return CIPacketListBase::InsertBefore( position, newElement);	}

  00032	5e		 pop	 esi
  00033	5d		 pop	 ebp
  00034	c2 08 00	 ret	 8
$LN9@InsertBefo:
  00037	5f		 pop	 edi
; File C:\Program Files (x86)\Microsoft Visual Studio\2019\Community\VC\Tools\MSVC\14.29.30133\atlmfc\include\afxtempl.h

; 958  : 		m_pNodeTail = pNewNode;

  00038	89 4e 08	 mov	 DWORD PTR [esi+8], ecx
; File D:\git\src\IBK\IBK_DRFN\ProjSrc\SrcChartEx\ChartOCX\AddInManager\Include_AddIn\I000000\_IPacketList.h

; 117  : 	virtual POSITION	InsertBefore(POSITION position, IPacket *newElement)	{	return CIPacketListBase::InsertBefore( position, newElement);	}

  0003b	8b c1		 mov	 eax, ecx
; File C:\Program Files (x86)\Microsoft Visual Studio\2019\Community\VC\Tools\MSVC\14.29.30133\atlmfc\include\afxtempl.h

; 959  : 	m_pNodeHead = pNewNode;

  0003d	89 4e 04	 mov	 DWORD PTR [esi+4], ecx
; File D:\git\src\IBK\IBK_DRFN\ProjSrc\SrcChartEx\ChartOCX\AddInManager\Include_AddIn\I000000\_IPacketList.h

; 117  : 	virtual POSITION	InsertBefore(POSITION position, IPacket *newElement)	{	return CIPacketListBase::InsertBefore( position, newElement);	}

  00040	5e		 pop	 esi
  00041	5d		 pop	 ebp
  00042	c2 08 00	 ret	 8
$LN4@InsertBefo:
; File C:\Program Files (x86)\Microsoft Visual Studio\2019\Community\VC\Tools\MSVC\14.29.30133\atlmfc\include\afxtempl.h

; 1053 : 	CNode* pNewNode = NewNode(pOldNode->pPrev, pOldNode);

  00045	57		 push	 edi
  00046	ff 77 04	 push	 DWORD PTR [edi+4]
  00049	e8 00 00 00 00	 call	 ?NewNode@?$CList@PAUIPacket000000@@PAU1@@@IAEPAUCNode@1@PAU21@0@Z ; CList<IPacket000000 *,IPacket000000 *>::NewNode
  0004e	8b c8		 mov	 ecx, eax

; 1054 : 	pNewNode->data = newElement;

  00050	8b 45 0c	 mov	 eax, DWORD PTR _newElement$[ebp]
  00053	89 41 08	 mov	 DWORD PTR [ecx+8], eax

; 1055 : 
; 1056 : 	if (pOldNode->pPrev != NULL)

  00056	8b 47 04	 mov	 eax, DWORD PTR [edi+4]
  00059	85 c0		 test	 eax, eax
  0005b	74 0d		 je	 SHORT $LN5@InsertBefo

; 1057 : 	{
; 1058 : 		ASSERT(AfxIsValidAddress(pOldNode->pPrev, sizeof(CNode)));
; 1059 : 		pOldNode->pPrev->pNext = pNewNode;

  0005d	89 08		 mov	 DWORD PTR [eax], ecx
; File D:\git\src\IBK\IBK_DRFN\ProjSrc\SrcChartEx\ChartOCX\AddInManager\Include_AddIn\I000000\_IPacketList.h

; 117  : 	virtual POSITION	InsertBefore(POSITION position, IPacket *newElement)	{	return CIPacketListBase::InsertBefore( position, newElement);	}

  0005f	8b c1		 mov	 eax, ecx
; File C:\Program Files (x86)\Microsoft Visual Studio\2019\Community\VC\Tools\MSVC\14.29.30133\atlmfc\include\afxtempl.h

; 1066 : 	pOldNode->pPrev = pNewNode;

  00061	89 4f 04	 mov	 DWORD PTR [edi+4], ecx
  00064	5f		 pop	 edi
; File D:\git\src\IBK\IBK_DRFN\ProjSrc\SrcChartEx\ChartOCX\AddInManager\Include_AddIn\I000000\_IPacketList.h

; 117  : 	virtual POSITION	InsertBefore(POSITION position, IPacket *newElement)	{	return CIPacketListBase::InsertBefore( position, newElement);	}

  00065	5e		 pop	 esi
  00066	5d		 pop	 ebp
  00067	c2 08 00	 ret	 8
$LN5@InsertBefo:
; File C:\Program Files (x86)\Microsoft Visual Studio\2019\Community\VC\Tools\MSVC\14.29.30133\atlmfc\include\afxtempl.h

; 1064 : 		m_pNodeHead = pNewNode;

  0006a	89 4e 04	 mov	 DWORD PTR [esi+4], ecx
; File D:\git\src\IBK\IBK_DRFN\ProjSrc\SrcChartEx\ChartOCX\AddInManager\Include_AddIn\I000000\_IPacketList.h

; 117  : 	virtual POSITION	InsertBefore(POSITION position, IPacket *newElement)	{	return CIPacketListBase::InsertBefore( position, newElement);	}

  0006d	8b c1		 mov	 eax, ecx
; File C:\Program Files (x86)\Microsoft Visual Studio\2019\Community\VC\Tools\MSVC\14.29.30133\atlmfc\include\afxtempl.h

; 1066 : 	pOldNode->pPrev = pNewNode;

  0006f	89 4f 04	 mov	 DWORD PTR [edi+4], ecx
  00072	5f		 pop	 edi
; File D:\git\src\IBK\IBK_DRFN\ProjSrc\SrcChartEx\ChartOCX\AddInManager\Include_AddIn\I000000\_IPacketList.h

; 117  : 	virtual POSITION	InsertBefore(POSITION position, IPacket *newElement)	{	return CIPacketListBase::InsertBefore( position, newElement);	}

  00073	5e		 pop	 esi
  00074	5d		 pop	 ebp
  00075	c2 08 00	 ret	 8
?InsertBefore@CIPacketList000000@@UAEPAU__POSITION@@PAU2@PAUIPacket000000@@@Z ENDP ; CIPacketList000000::InsertBefore
_TEXT	ENDS
; Function compile flags: /Ogtp
; File D:\git\src\IBK\IBK_DRFN\ProjSrc\SrcChartEx\ChartOCX\AddInManager\Include_AddIn\I000000\_IPacketList.h
; File C:\Program Files (x86)\Microsoft Visual Studio\2019\Community\VC\Tools\MSVC\14.29.30133\atlmfc\include\afxtempl.h
; File D:\git\src\IBK\IBK_DRFN\ProjSrc\SrcChartEx\ChartOCX\AddInManager\Include_AddIn\I000000\_IPacketList.h
;	COMDAT ?RemoveAt@CIPacketList000000@@UAEXPAU__POSITION@@@Z
_TEXT	SEGMENT
_position$ = 8						; size = 4
?RemoveAt@CIPacketList000000@@UAEXPAU__POSITION@@@Z PROC ; CIPacketList000000::RemoveAt, COMDAT
; _this$ = ecx

; 114  : 	virtual void		RemoveAt(POSITION position)					{	CIPacketListBase::RemoveAt( position);	}

  00000	55		 push	 ebp
  00001	8b ec		 mov	 ebp, esp
  00003	56		 push	 esi
  00004	8b f1		 mov	 esi, ecx
; File C:\Program Files (x86)\Microsoft Visual Studio\2019\Community\VC\Tools\MSVC\14.29.30133\atlmfc\include\afxtempl.h

; 1107 : 	if (pOldNode == m_pNodeHead)

  00006	8b 4d 08	 mov	 ecx, DWORD PTR _position$[ebp]
  00009	8b 11		 mov	 edx, DWORD PTR [ecx]
  0000b	3b 4e e8	 cmp	 ecx, DWORD PTR [esi-24]
  0000e	75 05		 jne	 SHORT $LN4@RemoveAt

; 1108 : 	{
; 1109 : 		m_pNodeHead = pOldNode->pNext;

  00010	89 56 e8	 mov	 DWORD PTR [esi-24], edx

; 1110 : 	}

  00013	eb 05		 jmp	 SHORT $LN5@RemoveAt
$LN4@RemoveAt:

; 1111 : 	else
; 1112 : 	{
; 1113 : 		ASSERT(AfxIsValidAddress(pOldNode->pPrev, sizeof(CNode)));
; 1114 : 		pOldNode->pPrev->pNext = pOldNode->pNext;

  00015	8b 41 04	 mov	 eax, DWORD PTR [ecx+4]
  00018	89 10		 mov	 DWORD PTR [eax], edx
$LN5@RemoveAt:

; 1115 : 	}
; 1116 : 	if (pOldNode == m_pNodeTail)

  0001a	8b 51 04	 mov	 edx, DWORD PTR [ecx+4]
  0001d	3b 4e ec	 cmp	 ecx, DWORD PTR [esi-20]
  00020	75 05		 jne	 SHORT $LN6@RemoveAt

; 1117 : 	{
; 1118 : 		m_pNodeTail = pOldNode->pPrev;

  00022	89 56 ec	 mov	 DWORD PTR [esi-20], edx

; 1119 : 	}

  00025	eb 05		 jmp	 SHORT $LN7@RemoveAt
$LN6@RemoveAt:

; 1120 : 	else
; 1121 : 	{
; 1122 : 		ASSERT(AfxIsValidAddress(pOldNode->pNext, sizeof(CNode)));
; 1123 : 		pOldNode->pNext->pPrev = pOldNode->pPrev;

  00027	8b 01		 mov	 eax, DWORD PTR [ecx]
  00029	89 50 04	 mov	 DWORD PTR [eax+4], edx
$LN7@RemoveAt:

; 938  : 	pNode->pNext = m_pNodeFree;

  0002c	8b 46 f4	 mov	 eax, DWORD PTR [esi-12]
  0002f	89 01		 mov	 DWORD PTR [ecx], eax

; 939  : 	m_pNodeFree = pNode;
; 940  : 	m_nCount--;

  00031	83 46 f0 ff	 add	 DWORD PTR [esi-16], -1
  00035	89 4e f4	 mov	 DWORD PTR [esi-12], ecx

; 941  : 	ASSERT(m_nCount >= 0);  // make sure we don't underflow
; 942  : 
; 943  : 	// if no more elements, cleanup completely
; 944  : 	if (m_nCount == 0)

  00038	75 2b		 jne	 SHORT $LN10@RemoveAt

; 872  : 	m_pBlocks->FreeDataChain();

  0003a	8b 4e f8	 mov	 ecx, DWORD PTR [esi-8]
  0003d	c7 46 f0 00 00
	00 00		 mov	 DWORD PTR [esi-16], 0
  00044	c7 46 f4 00 00
	00 00		 mov	 DWORD PTR [esi-12], 0
  0004b	c7 46 ec 00 00
	00 00		 mov	 DWORD PTR [esi-20], 0
  00052	c7 46 e8 00 00
	00 00		 mov	 DWORD PTR [esi-24], 0
  00059	e8 00 00 00 00	 call	 ?FreeDataChain@CPlex@@QAEXXZ ; CPlex::FreeDataChain

; 873  : 	m_pBlocks = NULL;

  0005e	c7 46 f8 00 00
	00 00		 mov	 DWORD PTR [esi-8], 0
$LN10@RemoveAt:
  00065	5e		 pop	 esi
; File D:\git\src\IBK\IBK_DRFN\ProjSrc\SrcChartEx\ChartOCX\AddInManager\Include_AddIn\I000000\_IPacketList.h

; 114  : 	virtual void		RemoveAt(POSITION position)					{	CIPacketListBase::RemoveAt( position);	}

  00066	5d		 pop	 ebp
  00067	c2 04 00	 ret	 4
?RemoveAt@CIPacketList000000@@UAEXPAU__POSITION@@@Z ENDP ; CIPacketList000000::RemoveAt
_TEXT	ENDS
; Function compile flags: /Ogtp
; File D:\git\src\IBK\IBK_DRFN\ProjSrc\SrcChartEx\ChartOCX\AddInManager\Include_AddIn\I000000\_IPacketList.h
;	COMDAT ?SetAt@CIPacketList000000@@UAEXPAU__POSITION@@PAUIPacket000000@@@Z
_TEXT	SEGMENT
_pos$ = 8						; size = 4
_newElement$ = 12					; size = 4
?SetAt@CIPacketList000000@@UAEXPAU__POSITION@@PAUIPacket000000@@@Z PROC ; CIPacketList000000::SetAt, COMDAT
; _this$ = ecx

; 113  : 	virtual void		SetAt(POSITION pos, IPacket *newElement)	{	CIPacketListBase::SetAt( pos, newElement);	}

  00000	55		 push	 ebp
  00001	8b ec		 mov	 ebp, esp
  00003	8b 45 08	 mov	 eax, DWORD PTR _pos$[ebp]
  00006	8b 4d 0c	 mov	 ecx, DWORD PTR _newElement$[ebp]
  00009	89 48 08	 mov	 DWORD PTR [eax+8], ecx
  0000c	5d		 pop	 ebp
  0000d	c2 08 00	 ret	 8
?SetAt@CIPacketList000000@@UAEXPAU__POSITION@@PAUIPacket000000@@@Z ENDP ; CIPacketList000000::SetAt
_TEXT	ENDS
; Function compile flags: /Ogtp
; File D:\git\src\IBK\IBK_DRFN\ProjSrc\SrcChartEx\ChartOCX\AddInManager\Include_AddIn\I000000\_IPacketList.h
;	COMDAT ?GetAt@CIPacketList000000@@UBEPAUIPacket000000@@PAU__POSITION@@@Z
_TEXT	SEGMENT
_position$ = 8						; size = 4
?GetAt@CIPacketList000000@@UBEPAUIPacket000000@@PAU__POSITION@@@Z PROC ; CIPacketList000000::GetAt, COMDAT
; _this$ = ecx

; 112  : 	virtual IPacket *	GetAt(POSITION position) const				{	return CIPacketListBase::GetAt( position);	}

  00000	55		 push	 ebp
  00001	8b ec		 mov	 ebp, esp
  00003	8b 45 08	 mov	 eax, DWORD PTR _position$[ebp]
  00006	8b 40 08	 mov	 eax, DWORD PTR [eax+8]
  00009	5d		 pop	 ebp
  0000a	c2 04 00	 ret	 4
?GetAt@CIPacketList000000@@UBEPAUIPacket000000@@PAU__POSITION@@@Z ENDP ; CIPacketList000000::GetAt
_TEXT	ENDS
; Function compile flags: /Ogtp
; File D:\git\src\IBK\IBK_DRFN\ProjSrc\SrcChartEx\ChartOCX\AddInManager\Include_AddIn\I000000\_IPacketList.h
; File C:\Program Files (x86)\Microsoft Visual Studio\2019\Community\VC\Tools\MSVC\14.29.30133\atlmfc\include\afxtempl.h
; File D:\git\src\IBK\IBK_DRFN\ProjSrc\SrcChartEx\ChartOCX\AddInManager\Include_AddIn\I000000\_IPacketList.h
;	COMDAT ?GetPrev@CIPacketList000000@@UBEPAUIPacket000000@@AAPAU__POSITION@@@Z
_TEXT	SEGMENT
_rPosition$ = 8						; size = 4
?GetPrev@CIPacketList000000@@UBEPAUIPacket000000@@AAPAU__POSITION@@@Z PROC ; CIPacketList000000::GetPrev, COMDAT
; _this$ = ecx

; 109  : 	virtual IPacket *	GetPrev(POSITION& rPosition) const	{	return CIPacketListBase::GetPrev( rPosition);	} // return *Position--

  00000	55		 push	 ebp
  00001	8b ec		 mov	 ebp, esp
; File C:\Program Files (x86)\Microsoft Visual Studio\2019\Community\VC\Tools\MSVC\14.29.30133\atlmfc\include\afxtempl.h

; 829  : 	{ CNode* pNode = (CNode*) rPosition;

  00003	8b 55 08	 mov	 edx, DWORD PTR _rPosition$[ebp]
  00006	8b 02		 mov	 eax, DWORD PTR [edx]

; 830  : 		ASSERT(AfxIsValidAddress(pNode, sizeof(CNode)));
; 831  : 		rPosition = (POSITION) pNode->pPrev;

  00008	8b 48 04	 mov	 ecx, DWORD PTR [eax+4]
  0000b	89 0a		 mov	 DWORD PTR [edx], ecx
; File D:\git\src\IBK\IBK_DRFN\ProjSrc\SrcChartEx\ChartOCX\AddInManager\Include_AddIn\I000000\_IPacketList.h

; 109  : 	virtual IPacket *	GetPrev(POSITION& rPosition) const	{	return CIPacketListBase::GetPrev( rPosition);	} // return *Position--

  0000d	8b 40 08	 mov	 eax, DWORD PTR [eax+8]
  00010	5d		 pop	 ebp
  00011	c2 04 00	 ret	 4
?GetPrev@CIPacketList000000@@UBEPAUIPacket000000@@AAPAU__POSITION@@@Z ENDP ; CIPacketList000000::GetPrev
_TEXT	ENDS
; Function compile flags: /Ogtp
; File D:\git\src\IBK\IBK_DRFN\ProjSrc\SrcChartEx\ChartOCX\AddInManager\Include_AddIn\I000000\_IPacketList.h
; File C:\Program Files (x86)\Microsoft Visual Studio\2019\Community\VC\Tools\MSVC\14.29.30133\atlmfc\include\afxtempl.h
; File D:\git\src\IBK\IBK_DRFN\ProjSrc\SrcChartEx\ChartOCX\AddInManager\Include_AddIn\I000000\_IPacketList.h
;	COMDAT ?GetNext@CIPacketList000000@@UBEPAUIPacket000000@@AAPAU__POSITION@@@Z
_TEXT	SEGMENT
_rPosition$ = 8						; size = 4
?GetNext@CIPacketList000000@@UBEPAUIPacket000000@@AAPAU__POSITION@@@Z PROC ; CIPacketList000000::GetNext, COMDAT
; _this$ = ecx

; 108  : 	virtual IPacket *	GetNext(POSITION& rPosition) const	{	return CIPacketListBase::GetNext( rPosition);	} // return *Position++

  00000	55		 push	 ebp
  00001	8b ec		 mov	 ebp, esp
; File C:\Program Files (x86)\Microsoft Visual Studio\2019\Community\VC\Tools\MSVC\14.29.30133\atlmfc\include\afxtempl.h

; 817  : 	{ CNode* pNode = (CNode*) rPosition;

  00003	8b 55 08	 mov	 edx, DWORD PTR _rPosition$[ebp]
  00006	8b 02		 mov	 eax, DWORD PTR [edx]

; 818  : 		ASSERT(AfxIsValidAddress(pNode, sizeof(CNode)));
; 819  : 		rPosition = (POSITION) pNode->pNext;

  00008	8b 08		 mov	 ecx, DWORD PTR [eax]
  0000a	89 0a		 mov	 DWORD PTR [edx], ecx
; File D:\git\src\IBK\IBK_DRFN\ProjSrc\SrcChartEx\ChartOCX\AddInManager\Include_AddIn\I000000\_IPacketList.h

; 108  : 	virtual IPacket *	GetNext(POSITION& rPosition) const	{	return CIPacketListBase::GetNext( rPosition);	} // return *Position++

  0000c	8b 40 08	 mov	 eax, DWORD PTR [eax+8]
  0000f	5d		 pop	 ebp
  00010	c2 04 00	 ret	 4
?GetNext@CIPacketList000000@@UBEPAUIPacket000000@@AAPAU__POSITION@@@Z ENDP ; CIPacketList000000::GetNext
_TEXT	ENDS
; Function compile flags: /Ogtp
; File D:\git\src\IBK\IBK_DRFN\ProjSrc\SrcChartEx\ChartOCX\AddInManager\Include_AddIn\I000000\_IPacketList.h
;	COMDAT ?GetTailPosition@CIPacketList000000@@UBEPAU__POSITION@@XZ
_TEXT	SEGMENT
?GetTailPosition@CIPacketList000000@@UBEPAU__POSITION@@XZ PROC ; CIPacketList000000::GetTailPosition, COMDAT
; _this$ = ecx

; 107  : 	virtual POSITION	GetTailPosition() const				{	return CIPacketListBase::GetTailPosition();	}

  00000	8b 41 ec	 mov	 eax, DWORD PTR [ecx-20]
  00003	c3		 ret	 0
?GetTailPosition@CIPacketList000000@@UBEPAU__POSITION@@XZ ENDP ; CIPacketList000000::GetTailPosition
_TEXT	ENDS
; Function compile flags: /Ogtp
; File D:\git\src\IBK\IBK_DRFN\ProjSrc\SrcChartEx\ChartOCX\AddInManager\Include_AddIn\I000000\_IPacketList.h
;	COMDAT ?GetHeadPosition@CIPacketList000000@@UBEPAU__POSITION@@XZ
_TEXT	SEGMENT
?GetHeadPosition@CIPacketList000000@@UBEPAU__POSITION@@XZ PROC ; CIPacketList000000::GetHeadPosition, COMDAT
; _this$ = ecx

; 106  : 	virtual POSITION	GetHeadPosition() const				{	return CIPacketListBase::GetHeadPosition();	}

  00000	8b 41 e8	 mov	 eax, DWORD PTR [ecx-24]
  00003	c3		 ret	 0
?GetHeadPosition@CIPacketList000000@@UBEPAU__POSITION@@XZ ENDP ; CIPacketList000000::GetHeadPosition
_TEXT	ENDS
; Function compile flags: /Ogtp
; File D:\git\src\IBK\IBK_DRFN\ProjSrc\SrcChartEx\ChartOCX\AddInManager\Include_AddIn\I000000\_IPacketList.h
; File C:\Program Files (x86)\Microsoft Visual Studio\2019\Community\VC\Tools\MSVC\14.29.30133\atlmfc\include\afxtempl.h
; File D:\git\src\IBK\IBK_DRFN\ProjSrc\SrcChartEx\ChartOCX\AddInManager\Include_AddIn\I000000\_IPacketList.h
;	COMDAT ?RemoveAll@CIPacketList000000@@UAEXXZ
_TEXT	SEGMENT
?RemoveAll@CIPacketList000000@@UAEXXZ PROC		; CIPacketList000000::RemoveAll, COMDAT
; _this$ = ecx

; 103  : 	virtual void	RemoveAll()	{	CIPacketListBase::RemoveAll();	}

  00000	56		 push	 esi
  00001	8b f1		 mov	 esi, ecx
; File C:\Program Files (x86)\Microsoft Visual Studio\2019\Community\VC\Tools\MSVC\14.29.30133\atlmfc\include\afxtempl.h

; 872  : 	m_pBlocks->FreeDataChain();

  00003	8b 4e f8	 mov	 ecx, DWORD PTR [esi-8]
  00006	c7 46 f0 00 00
	00 00		 mov	 DWORD PTR [esi-16], 0
  0000d	c7 46 f4 00 00
	00 00		 mov	 DWORD PTR [esi-12], 0
  00014	c7 46 ec 00 00
	00 00		 mov	 DWORD PTR [esi-20], 0
  0001b	c7 46 e8 00 00
	00 00		 mov	 DWORD PTR [esi-24], 0
  00022	e8 00 00 00 00	 call	 ?FreeDataChain@CPlex@@QAEXXZ ; CPlex::FreeDataChain

; 873  : 	m_pBlocks = NULL;

  00027	c7 46 f8 00 00
	00 00		 mov	 DWORD PTR [esi-8], 0
  0002e	5e		 pop	 esi
; File D:\git\src\IBK\IBK_DRFN\ProjSrc\SrcChartEx\ChartOCX\AddInManager\Include_AddIn\I000000\_IPacketList.h

; 103  : 	virtual void	RemoveAll()	{	CIPacketListBase::RemoveAll();	}

  0002f	c3		 ret	 0
?RemoveAll@CIPacketList000000@@UAEXXZ ENDP		; CIPacketList000000::RemoveAll
_TEXT	ENDS
; Function compile flags: /Ogtp
; File D:\git\src\IBK\IBK_DRFN\ProjSrc\SrcChartEx\ChartOCX\AddInManager\Include_AddIn\I000000\_IPacketList.h
; File C:\Program Files (x86)\Microsoft Visual Studio\2019\Community\VC\Tools\MSVC\14.29.30133\atlmfc\include\afxtempl.h
; File D:\git\src\IBK\IBK_DRFN\ProjSrc\SrcChartEx\ChartOCX\AddInManager\Include_AddIn\I000000\_IPacketList.h
; File C:\Program Files (x86)\Microsoft Visual Studio\2019\Community\VC\Tools\MSVC\14.29.30133\atlmfc\include\afxtempl.h
; File D:\git\src\IBK\IBK_DRFN\ProjSrc\SrcChartEx\ChartOCX\AddInManager\Include_AddIn\I000000\_IPacketList.h
; File C:\Program Files (x86)\Microsoft Visual Studio\2019\Community\VC\Tools\MSVC\14.29.30133\atlmfc\include\afxtempl.h
; File D:\git\src\IBK\IBK_DRFN\ProjSrc\SrcChartEx\ChartOCX\AddInManager\Include_AddIn\I000000\_IPacketList.h
;	COMDAT ?AddTail@CIPacketList000000@@UAEXPAUIPacketList000000@@@Z
_TEXT	SEGMENT
_newElement$1$ = -4					; size = 4
$T1 = 8							; size = 4
_pNewList$ = 8						; size = 4
?AddTail@CIPacketList000000@@UAEXPAUIPacketList000000@@@Z PROC ; CIPacketList000000::AddTail, COMDAT
; _this$ = ecx

; 100  : 	virtual void	AddTail(IPacketList* pNewList)	{	CIPacketListBase::AddTail( ( CIPacketListBase *)pNewList);	}

  00000	55		 push	 ebp
  00001	8b ec		 mov	 ebp, esp
  00003	51		 push	 ecx
  00004	53		 push	 ebx
; File C:\Program Files (x86)\Microsoft Visual Studio\2019\Community\VC\Tools\MSVC\14.29.30133\atlmfc\include\afxtempl.h

; 996  : 	ENSURE(pNewList != NULL);

  00005	8b 5d 08	 mov	 ebx, DWORD PTR _pNewList$[ebp]
; File D:\git\src\IBK\IBK_DRFN\ProjSrc\SrcChartEx\ChartOCX\AddInManager\Include_AddIn\I000000\_IPacketList.h

; 100  : 	virtual void	AddTail(IPacketList* pNewList)	{	CIPacketListBase::AddTail( ( CIPacketListBase *)pNewList);	}

  00008	56		 push	 esi
  00009	8b f1		 mov	 esi, ecx
; File C:\Program Files (x86)\Microsoft Visual Studio\2019\Community\VC\Tools\MSVC\14.29.30133\atlmfc\include\afxtempl.h

; 996  : 	ENSURE(pNewList != NULL);

  0000b	85 db		 test	 ebx, ebx
  0000d	0f 84 a1 00 00
	00		 je	 $LN32@AddTail

; 997  : 	ASSERT_VALID(pNewList);
; 998  : 
; 999  : 	// add a list of same elements
; 1000 : 	POSITION pos = pNewList->GetHeadPosition();

  00013	8b 5b 04	 mov	 ebx, DWORD PTR [ebx+4]

; 1001 : 	while (pos != NULL)

  00016	85 db		 test	 ebx, ebx
  00018	0f 84 8e 00 00
	00		 je	 $LN42@AddTail
  0001e	8b 4e ec	 mov	 ecx, DWORD PTR [esi-20]
  00021	89 4d 08	 mov	 DWORD PTR $T1[ebp], ecx
  00024	57		 push	 edi
$LL7@AddTail:

; 1002 : 		AddTail(pNewList->GetNext(pos));

  00025	8b 43 08	 mov	 eax, DWORD PTR [ebx+8]

; 902  : 	if (m_pNodeFree == NULL)

  00028	8b 56 f4	 mov	 edx, DWORD PTR [esi-12]

; 813  : 		rPosition = (POSITION) pNode->pNext;

  0002b	8b 1b		 mov	 ebx, DWORD PTR [ebx]

; 1002 : 		AddTail(pNewList->GetNext(pos));

  0002d	89 45 fc	 mov	 DWORD PTR _newElement$1$[ebp], eax

; 902  : 	if (m_pNodeFree == NULL)

  00030	85 d2		 test	 edx, edx
  00032	75 42		 jne	 SHORT $LN40@AddTail

; 903  : 	{
; 904  : 		// add another block
; 905  : 		CPlex* pNewBlock = CPlex::Create(m_pBlocks, m_nBlockSize,

  00034	6a 0c		 push	 12			; 0000000cH
  00036	ff 76 fc	 push	 DWORD PTR [esi-4]
  00039	8d 46 f8	 lea	 eax, DWORD PTR [esi-8]
  0003c	50		 push	 eax
  0003d	e8 00 00 00 00	 call	 ?Create@CPlex@@SGPAU1@AAPAU1@II@Z ; CPlex::Create

; 906  : 				 sizeof(CNode));
; 907  : 
; 908  : 		// chain them into free list
; 909  : 		CNode* pNode = (CNode*) pNewBlock->data();
; 910  : 		// free in reverse order to make it easier to debug
; 911  : 		pNode += m_nBlockSize - 1;

  00042	8b 56 fc	 mov	 edx, DWORD PTR [esi-4]
  00045	83 c0 08	 add	 eax, 8
  00048	8d 0c 52	 lea	 ecx, DWORD PTR [edx+edx*2]
  0004b	8d 04 88	 lea	 eax, DWORD PTR [eax+ecx*4]

; 912  : 		for (INT_PTR i = m_nBlockSize-1; i >= 0; i--, pNode--)

  0004e	8d 7a ff	 lea	 edi, DWORD PTR [edx-1]
  00051	83 c0 f4	 add	 eax, -12		; fffffff4H
  00054	85 ff		 test	 edi, edi
  00056	78 14		 js	 SHORT $LN41@AddTail
$LL20@AddTail:

; 913  : 		{
; 914  : 			pNode->pNext = m_pNodeFree;

  00058	8b 4e f4	 mov	 ecx, DWORD PTR [esi-12]
  0005b	8b d0		 mov	 edx, eax
  0005d	89 08		 mov	 DWORD PTR [eax], ecx

; 915  : 			m_pNodeFree = pNode;

  0005f	89 46 f4	 mov	 DWORD PTR [esi-12], eax
  00062	83 e8 0c	 sub	 eax, 12			; 0000000cH
  00065	83 ef 01	 sub	 edi, 1
  00068	79 ee		 jns	 SHORT $LL20@AddTail
  0006a	eb 03		 jmp	 SHORT $LN23@AddTail
$LN41@AddTail:
  0006c	8b 56 f4	 mov	 edx, DWORD PTR [esi-12]
$LN23@AddTail:

; 918  : 	ENSURE(m_pNodeFree != NULL);  // we must have something

  0006f	85 d2		 test	 edx, edx
  00071	74 41		 je	 SHORT $LN32@AddTail
  00073	8b 4d 08	 mov	 ecx, DWORD PTR $T1[ebp]
$LN40@AddTail:

; 919  : 
; 920  : 	CList::CNode* pNode = m_pNodeFree;
; 921  : 	m_pNodeFree = m_pNodeFree->pNext;

  00076	8b 02		 mov	 eax, DWORD PTR [edx]
  00078	89 46 f4	 mov	 DWORD PTR [esi-12], eax

; 969  : 	pNewNode->data = newElement;

  0007b	8b 45 fc	 mov	 eax, DWORD PTR _newElement$1$[ebp]

; 922  : 	pNode->pPrev = pPrev;

  0007e	89 4a 04	 mov	 DWORD PTR [edx+4], ecx

; 923  : 	pNode->pNext = pNext;

  00081	c7 02 00 00 00
	00		 mov	 DWORD PTR [edx], 0

; 924  : 	m_nCount++;

  00087	ff 46 f0	 inc	 DWORD PTR [esi-16]

; 969  : 	pNewNode->data = newElement;

  0008a	89 42 08	 mov	 DWORD PTR [edx+8], eax

; 970  : 	if (m_pNodeTail != NULL)

  0008d	8b 46 ec	 mov	 eax, DWORD PTR [esi-20]
  00090	85 c0		 test	 eax, eax
  00092	74 04		 je	 SHORT $LN14@AddTail

; 971  : 		m_pNodeTail->pNext = pNewNode;

  00094	89 10		 mov	 DWORD PTR [eax], edx
  00096	eb 03		 jmp	 SHORT $LN15@AddTail
$LN14@AddTail:

; 972  : 	else
; 973  : 		m_pNodeHead = pNewNode;

  00098	89 56 e8	 mov	 DWORD PTR [esi-24], edx
$LN15@AddTail:

; 974  : 	m_pNodeTail = pNewNode;

  0009b	89 56 ec	 mov	 DWORD PTR [esi-20], edx
  0009e	8b ca		 mov	 ecx, edx
  000a0	89 4d 08	 mov	 DWORD PTR $T1[ebp], ecx

; 1001 : 	while (pos != NULL)

  000a3	85 db		 test	 ebx, ebx
  000a5	0f 85 7a ff ff
	ff		 jne	 $LL7@AddTail
  000ab	5f		 pop	 edi
$LN42@AddTail:
  000ac	5e		 pop	 esi
; File D:\git\src\IBK\IBK_DRFN\ProjSrc\SrcChartEx\ChartOCX\AddInManager\Include_AddIn\I000000\_IPacketList.h

; 100  : 	virtual void	AddTail(IPacketList* pNewList)	{	CIPacketListBase::AddTail( ( CIPacketListBase *)pNewList);	}

  000ad	5b		 pop	 ebx
  000ae	8b e5		 mov	 esp, ebp
  000b0	5d		 pop	 ebp
  000b1	c2 04 00	 ret	 4
$LN32@AddTail:
; File C:\Program Files (x86)\Microsoft Visual Studio\2019\Community\VC\Tools\MSVC\14.29.30133\atlmfc\include\afxtempl.h

; 918  : 	ENSURE(m_pNodeFree != NULL);  // we must have something

  000b4	e8 00 00 00 00	 call	 ?AfxThrowInvalidArgException@@YGXXZ ; AfxThrowInvalidArgException
$LN44@AddTail:
  000b9	cc		 int	 3
?AddTail@CIPacketList000000@@UAEXPAUIPacketList000000@@@Z ENDP ; CIPacketList000000::AddTail
_TEXT	ENDS
; Function compile flags: /Ogtp
; File D:\git\src\IBK\IBK_DRFN\ProjSrc\SrcChartEx\ChartOCX\AddInManager\Include_AddIn\I000000\_IPacketList.h
; File C:\Program Files (x86)\Microsoft Visual Studio\2019\Community\VC\Tools\MSVC\14.29.30133\atlmfc\include\afxtempl.h
; File D:\git\src\IBK\IBK_DRFN\ProjSrc\SrcChartEx\ChartOCX\AddInManager\Include_AddIn\I000000\_IPacketList.h
; File C:\Program Files (x86)\Microsoft Visual Studio\2019\Community\VC\Tools\MSVC\14.29.30133\atlmfc\include\afxtempl.h
; File D:\git\src\IBK\IBK_DRFN\ProjSrc\SrcChartEx\ChartOCX\AddInManager\Include_AddIn\I000000\_IPacketList.h
; File C:\Program Files (x86)\Microsoft Visual Studio\2019\Community\VC\Tools\MSVC\14.29.30133\atlmfc\include\afxtempl.h
; File D:\git\src\IBK\IBK_DRFN\ProjSrc\SrcChartEx\ChartOCX\AddInManager\Include_AddIn\I000000\_IPacketList.h
;	COMDAT ?AddHead@CIPacketList000000@@UAEXPAUIPacketList000000@@@Z
_TEXT	SEGMENT
_newElement$1$ = -4					; size = 4
$T1 = 8							; size = 4
_pNewList$ = 8						; size = 4
?AddHead@CIPacketList000000@@UAEXPAUIPacketList000000@@@Z PROC ; CIPacketList000000::AddHead, COMDAT
; _this$ = ecx

; 99   : 	virtual void	AddHead(IPacketList* pNewList)	{	CIPacketListBase::AddHead( ( CIPacketListBase *)pNewList);	}

  00000	55		 push	 ebp
  00001	8b ec		 mov	 ebp, esp
  00003	51		 push	 ecx
  00004	53		 push	 ebx
; File C:\Program Files (x86)\Microsoft Visual Studio\2019\Community\VC\Tools\MSVC\14.29.30133\atlmfc\include\afxtempl.h

; 983  : 	ENSURE(pNewList != NULL);

  00005	8b 5d 08	 mov	 ebx, DWORD PTR _pNewList$[ebp]
; File D:\git\src\IBK\IBK_DRFN\ProjSrc\SrcChartEx\ChartOCX\AddInManager\Include_AddIn\I000000\_IPacketList.h

; 99   : 	virtual void	AddHead(IPacketList* pNewList)	{	CIPacketListBase::AddHead( ( CIPacketListBase *)pNewList);	}

  00008	56		 push	 esi
  00009	8b f1		 mov	 esi, ecx
; File C:\Program Files (x86)\Microsoft Visual Studio\2019\Community\VC\Tools\MSVC\14.29.30133\atlmfc\include\afxtempl.h

; 983  : 	ENSURE(pNewList != NULL);

  0000b	85 db		 test	 ebx, ebx
  0000d	0f 84 aa 00 00
	00		 je	 $LN32@AddHead

; 984  : 	ASSERT_VALID(pNewList);
; 985  : 
; 986  : 	// add a list of same elements to head (maintain order)
; 987  : 	POSITION pos = pNewList->GetTailPosition();

  00013	8b 5b 08	 mov	 ebx, DWORD PTR [ebx+8]

; 988  : 	while (pos != NULL)

  00016	85 db		 test	 ebx, ebx
  00018	0f 84 97 00 00
	00		 je	 $LN42@AddHead
  0001e	8b 4e e8	 mov	 ecx, DWORD PTR [esi-24]
  00021	89 4d 08	 mov	 DWORD PTR $T1[ebp], ecx
  00024	57		 push	 edi
$LL7@AddHead:

; 989  : 		AddHead(pNewList->GetPrev(pos));

  00025	8b 43 08	 mov	 eax, DWORD PTR [ebx+8]

; 902  : 	if (m_pNodeFree == NULL)

  00028	8b 56 f4	 mov	 edx, DWORD PTR [esi-12]

; 825  : 		rPosition = (POSITION) pNode->pPrev;

  0002b	8b 5b 04	 mov	 ebx, DWORD PTR [ebx+4]

; 989  : 		AddHead(pNewList->GetPrev(pos));

  0002e	89 45 fc	 mov	 DWORD PTR _newElement$1$[ebp], eax

; 902  : 	if (m_pNodeFree == NULL)

  00031	85 d2		 test	 edx, edx
  00033	75 49		 jne	 SHORT $LN40@AddHead

; 903  : 	{
; 904  : 		// add another block
; 905  : 		CPlex* pNewBlock = CPlex::Create(m_pBlocks, m_nBlockSize,

  00035	6a 0c		 push	 12			; 0000000cH
  00037	ff 76 fc	 push	 DWORD PTR [esi-4]
  0003a	8d 46 f8	 lea	 eax, DWORD PTR [esi-8]
  0003d	50		 push	 eax
  0003e	e8 00 00 00 00	 call	 ?Create@CPlex@@SGPAU1@AAPAU1@II@Z ; CPlex::Create

; 906  : 				 sizeof(CNode));
; 907  : 
; 908  : 		// chain them into free list
; 909  : 		CNode* pNode = (CNode*) pNewBlock->data();
; 910  : 		// free in reverse order to make it easier to debug
; 911  : 		pNode += m_nBlockSize - 1;

  00043	8b 56 fc	 mov	 edx, DWORD PTR [esi-4]
  00046	83 c0 08	 add	 eax, 8
  00049	8d 0c 52	 lea	 ecx, DWORD PTR [edx+edx*2]
  0004c	8d 04 88	 lea	 eax, DWORD PTR [eax+ecx*4]

; 912  : 		for (INT_PTR i = m_nBlockSize-1; i >= 0; i--, pNode--)

  0004f	8d 7a ff	 lea	 edi, DWORD PTR [edx-1]
  00052	83 c0 f4	 add	 eax, -12		; fffffff4H
  00055	85 ff		 test	 edi, edi
  00057	78 1b		 js	 SHORT $LN41@AddHead
  00059	0f 1f 80 00 00
	00 00		 npad	 7
$LL20@AddHead:

; 913  : 		{
; 914  : 			pNode->pNext = m_pNodeFree;

  00060	8b 4e f4	 mov	 ecx, DWORD PTR [esi-12]
  00063	8b d0		 mov	 edx, eax
  00065	89 08		 mov	 DWORD PTR [eax], ecx

; 915  : 			m_pNodeFree = pNode;

  00067	89 46 f4	 mov	 DWORD PTR [esi-12], eax
  0006a	83 e8 0c	 sub	 eax, 12			; 0000000cH
  0006d	83 ef 01	 sub	 edi, 1
  00070	79 ee		 jns	 SHORT $LL20@AddHead
  00072	eb 03		 jmp	 SHORT $LN23@AddHead
$LN41@AddHead:
  00074	8b 56 f4	 mov	 edx, DWORD PTR [esi-12]
$LN23@AddHead:

; 918  : 	ENSURE(m_pNodeFree != NULL);  // we must have something

  00077	85 d2		 test	 edx, edx
  00079	74 42		 je	 SHORT $LN32@AddHead
  0007b	8b 4d 08	 mov	 ecx, DWORD PTR $T1[ebp]
$LN40@AddHead:

; 919  : 
; 920  : 	CList::CNode* pNode = m_pNodeFree;
; 921  : 	m_pNodeFree = m_pNodeFree->pNext;

  0007e	8b 02		 mov	 eax, DWORD PTR [edx]
  00080	89 46 f4	 mov	 DWORD PTR [esi-12], eax

; 954  : 	pNewNode->data = newElement;

  00083	8b 45 fc	 mov	 eax, DWORD PTR _newElement$1$[ebp]

; 922  : 	pNode->pPrev = pPrev;

  00086	c7 42 04 00 00
	00 00		 mov	 DWORD PTR [edx+4], 0

; 923  : 	pNode->pNext = pNext;

  0008d	89 0a		 mov	 DWORD PTR [edx], ecx

; 924  : 	m_nCount++;

  0008f	ff 46 f0	 inc	 DWORD PTR [esi-16]

; 954  : 	pNewNode->data = newElement;

  00092	89 42 08	 mov	 DWORD PTR [edx+8], eax

; 955  : 	if (m_pNodeHead != NULL)

  00095	8b 46 e8	 mov	 eax, DWORD PTR [esi-24]
  00098	85 c0		 test	 eax, eax
  0009a	74 05		 je	 SHORT $LN14@AddHead

; 956  : 		m_pNodeHead->pPrev = pNewNode;

  0009c	89 50 04	 mov	 DWORD PTR [eax+4], edx
  0009f	eb 03		 jmp	 SHORT $LN15@AddHead
$LN14@AddHead:

; 957  : 	else
; 958  : 		m_pNodeTail = pNewNode;

  000a1	89 56 ec	 mov	 DWORD PTR [esi-20], edx
$LN15@AddHead:

; 959  : 	m_pNodeHead = pNewNode;

  000a4	89 56 e8	 mov	 DWORD PTR [esi-24], edx
  000a7	8b ca		 mov	 ecx, edx
  000a9	89 4d 08	 mov	 DWORD PTR $T1[ebp], ecx

; 988  : 	while (pos != NULL)

  000ac	85 db		 test	 ebx, ebx
  000ae	0f 85 71 ff ff
	ff		 jne	 $LL7@AddHead
  000b4	5f		 pop	 edi
$LN42@AddHead:
  000b5	5e		 pop	 esi
; File D:\git\src\IBK\IBK_DRFN\ProjSrc\SrcChartEx\ChartOCX\AddInManager\Include_AddIn\I000000\_IPacketList.h

; 99   : 	virtual void	AddHead(IPacketList* pNewList)	{	CIPacketListBase::AddHead( ( CIPacketListBase *)pNewList);	}

  000b6	5b		 pop	 ebx
  000b7	8b e5		 mov	 esp, ebp
  000b9	5d		 pop	 ebp
  000ba	c2 04 00	 ret	 4
$LN32@AddHead:
; File C:\Program Files (x86)\Microsoft Visual Studio\2019\Community\VC\Tools\MSVC\14.29.30133\atlmfc\include\afxtempl.h

; 918  : 	ENSURE(m_pNodeFree != NULL);  // we must have something

  000bd	e8 00 00 00 00	 call	 ?AfxThrowInvalidArgException@@YGXXZ ; AfxThrowInvalidArgException
$LN44@AddHead:
  000c2	cc		 int	 3
?AddHead@CIPacketList000000@@UAEXPAUIPacketList000000@@@Z ENDP ; CIPacketList000000::AddHead
_TEXT	ENDS
; Function compile flags: /Ogtp
; File D:\git\src\IBK\IBK_DRFN\ProjSrc\SrcChartEx\ChartOCX\AddInManager\Include_AddIn\I000000\_IPacketList.h
; File C:\Program Files (x86)\Microsoft Visual Studio\2019\Community\VC\Tools\MSVC\14.29.30133\atlmfc\include\afxtempl.h
; File D:\git\src\IBK\IBK_DRFN\ProjSrc\SrcChartEx\ChartOCX\AddInManager\Include_AddIn\I000000\_IPacketList.h
; File C:\Program Files (x86)\Microsoft Visual Studio\2019\Community\VC\Tools\MSVC\14.29.30133\atlmfc\include\afxtempl.h
; File D:\git\src\IBK\IBK_DRFN\ProjSrc\SrcChartEx\ChartOCX\AddInManager\Include_AddIn\I000000\_IPacketList.h
;	COMDAT ?AddTail@CIPacketList000000@@UAEPAU__POSITION@@PAUIPacket000000@@@Z
_TEXT	SEGMENT
_newElement$ = 8					; size = 4
?AddTail@CIPacketList000000@@UAEPAU__POSITION@@PAUIPacket000000@@@Z PROC ; CIPacketList000000::AddTail, COMDAT
; _this$ = ecx

; 96   : 	virtual POSITION	AddTail(IPacket *newElement)	{	return CIPacketListBase::AddTail( newElement);	}

  00000	55		 push	 ebp
  00001	8b ec		 mov	 ebp, esp
  00003	56		 push	 esi
  00004	8d 71 e4	 lea	 esi, DWORD PTR [ecx-28]
; File C:\Program Files (x86)\Microsoft Visual Studio\2019\Community\VC\Tools\MSVC\14.29.30133\atlmfc\include\afxtempl.h

; 968  : 	CNode* pNewNode = NewNode(m_pNodeTail, NULL);

  00007	6a 00		 push	 0
  00009	ff 76 08	 push	 DWORD PTR [esi+8]
  0000c	8b ce		 mov	 ecx, esi
  0000e	e8 00 00 00 00	 call	 ?NewNode@?$CList@PAUIPacket000000@@PAU1@@@IAEPAUCNode@1@PAU21@0@Z ; CList<IPacket000000 *,IPacket000000 *>::NewNode

; 969  : 	pNewNode->data = newElement;

  00013	8b 4d 08	 mov	 ecx, DWORD PTR _newElement$[ebp]
  00016	89 48 08	 mov	 DWORD PTR [eax+8], ecx

; 970  : 	if (m_pNodeTail != NULL)

  00019	8b 4e 08	 mov	 ecx, DWORD PTR [esi+8]
  0001c	85 c9		 test	 ecx, ecx
  0001e	74 0a		 je	 SHORT $LN4@AddTail

; 971  : 		m_pNodeTail->pNext = pNewNode;

  00020	89 01		 mov	 DWORD PTR [ecx], eax
; File D:\git\src\IBK\IBK_DRFN\ProjSrc\SrcChartEx\ChartOCX\AddInManager\Include_AddIn\I000000\_IPacketList.h

; 96   : 	virtual POSITION	AddTail(IPacket *newElement)	{	return CIPacketListBase::AddTail( newElement);	}

  00022	89 46 08	 mov	 DWORD PTR [esi+8], eax
  00025	5e		 pop	 esi
  00026	5d		 pop	 ebp
  00027	c2 04 00	 ret	 4
$LN4@AddTail:
; File C:\Program Files (x86)\Microsoft Visual Studio\2019\Community\VC\Tools\MSVC\14.29.30133\atlmfc\include\afxtempl.h

; 973  : 		m_pNodeHead = pNewNode;

  0002a	89 46 04	 mov	 DWORD PTR [esi+4], eax
; File D:\git\src\IBK\IBK_DRFN\ProjSrc\SrcChartEx\ChartOCX\AddInManager\Include_AddIn\I000000\_IPacketList.h

; 96   : 	virtual POSITION	AddTail(IPacket *newElement)	{	return CIPacketListBase::AddTail( newElement);	}

  0002d	89 46 08	 mov	 DWORD PTR [esi+8], eax
  00030	5e		 pop	 esi
  00031	5d		 pop	 ebp
  00032	c2 04 00	 ret	 4
?AddTail@CIPacketList000000@@UAEPAU__POSITION@@PAUIPacket000000@@@Z ENDP ; CIPacketList000000::AddTail
_TEXT	ENDS
; Function compile flags: /Ogtp
; File D:\git\src\IBK\IBK_DRFN\ProjSrc\SrcChartEx\ChartOCX\AddInManager\Include_AddIn\I000000\_IPacketList.h
; File C:\Program Files (x86)\Microsoft Visual Studio\2019\Community\VC\Tools\MSVC\14.29.30133\atlmfc\include\afxtempl.h
; File D:\git\src\IBK\IBK_DRFN\ProjSrc\SrcChartEx\ChartOCX\AddInManager\Include_AddIn\I000000\_IPacketList.h
; File C:\Program Files (x86)\Microsoft Visual Studio\2019\Community\VC\Tools\MSVC\14.29.30133\atlmfc\include\afxtempl.h
; File D:\git\src\IBK\IBK_DRFN\ProjSrc\SrcChartEx\ChartOCX\AddInManager\Include_AddIn\I000000\_IPacketList.h
; File C:\Program Files (x86)\Microsoft Visual Studio\2019\Community\VC\Tools\MSVC\14.29.30133\atlmfc\include\afxtempl.h
; File D:\git\src\IBK\IBK_DRFN\ProjSrc\SrcChartEx\ChartOCX\AddInManager\Include_AddIn\I000000\_IPacketList.h
;	COMDAT ?AddHead@CIPacketList000000@@UAEPAU__POSITION@@PAUIPacket000000@@@Z
_TEXT	SEGMENT
_newElement$ = 8					; size = 4
?AddHead@CIPacketList000000@@UAEPAU__POSITION@@PAUIPacket000000@@@Z PROC ; CIPacketList000000::AddHead, COMDAT
; _this$ = ecx

; 95   : 	virtual POSITION	AddHead(IPacket *newElement)	{	return CIPacketListBase::AddHead( newElement);	}

  00000	55		 push	 ebp
  00001	8b ec		 mov	 ebp, esp
  00003	56		 push	 esi
; File C:\Program Files (x86)\Microsoft Visual Studio\2019\Community\VC\Tools\MSVC\14.29.30133\atlmfc\include\afxtempl.h

; 953  : 	CNode* pNewNode = NewNode(NULL, m_pNodeHead);

  00004	ff 71 e8	 push	 DWORD PTR [ecx-24]
; File D:\git\src\IBK\IBK_DRFN\ProjSrc\SrcChartEx\ChartOCX\AddInManager\Include_AddIn\I000000\_IPacketList.h

; 95   : 	virtual POSITION	AddHead(IPacket *newElement)	{	return CIPacketListBase::AddHead( newElement);	}

  00007	8d 71 e4	 lea	 esi, DWORD PTR [ecx-28]
; File C:\Program Files (x86)\Microsoft Visual Studio\2019\Community\VC\Tools\MSVC\14.29.30133\atlmfc\include\afxtempl.h

; 953  : 	CNode* pNewNode = NewNode(NULL, m_pNodeHead);

  0000a	6a 00		 push	 0
  0000c	8b ce		 mov	 ecx, esi
  0000e	e8 00 00 00 00	 call	 ?NewNode@?$CList@PAUIPacket000000@@PAU1@@@IAEPAUCNode@1@PAU21@0@Z ; CList<IPacket000000 *,IPacket000000 *>::NewNode

; 954  : 	pNewNode->data = newElement;

  00013	8b 4d 08	 mov	 ecx, DWORD PTR _newElement$[ebp]
  00016	89 48 08	 mov	 DWORD PTR [eax+8], ecx

; 955  : 	if (m_pNodeHead != NULL)

  00019	8b 4e 04	 mov	 ecx, DWORD PTR [esi+4]
  0001c	85 c9		 test	 ecx, ecx
  0001e	74 0b		 je	 SHORT $LN4@AddHead

; 956  : 		m_pNodeHead->pPrev = pNewNode;

  00020	89 41 04	 mov	 DWORD PTR [ecx+4], eax
; File D:\git\src\IBK\IBK_DRFN\ProjSrc\SrcChartEx\ChartOCX\AddInManager\Include_AddIn\I000000\_IPacketList.h

; 95   : 	virtual POSITION	AddHead(IPacket *newElement)	{	return CIPacketListBase::AddHead( newElement);	}

  00023	89 46 04	 mov	 DWORD PTR [esi+4], eax
  00026	5e		 pop	 esi
  00027	5d		 pop	 ebp
  00028	c2 04 00	 ret	 4
$LN4@AddHead:
; File C:\Program Files (x86)\Microsoft Visual Studio\2019\Community\VC\Tools\MSVC\14.29.30133\atlmfc\include\afxtempl.h

; 958  : 		m_pNodeTail = pNewNode;

  0002b	89 46 08	 mov	 DWORD PTR [esi+8], eax
; File D:\git\src\IBK\IBK_DRFN\ProjSrc\SrcChartEx\ChartOCX\AddInManager\Include_AddIn\I000000\_IPacketList.h

; 95   : 	virtual POSITION	AddHead(IPacket *newElement)	{	return CIPacketListBase::AddHead( newElement);	}

  0002e	89 46 04	 mov	 DWORD PTR [esi+4], eax
  00031	5e		 pop	 esi
  00032	5d		 pop	 ebp
  00033	c2 04 00	 ret	 4
?AddHead@CIPacketList000000@@UAEPAU__POSITION@@PAUIPacket000000@@@Z ENDP ; CIPacketList000000::AddHead
_TEXT	ENDS
; Function compile flags: /Ogtp
; File D:\git\src\IBK\IBK_DRFN\ProjSrc\SrcChartEx\ChartOCX\AddInManager\Include_AddIn\I000000\_IPacketList.h
; File C:\Program Files (x86)\Microsoft Visual Studio\2019\Community\VC\Tools\MSVC\14.29.30133\atlmfc\include\afxtempl.h
; File D:\git\src\IBK\IBK_DRFN\ProjSrc\SrcChartEx\ChartOCX\AddInManager\Include_AddIn\I000000\_IPacketList.h
; File C:\Program Files (x86)\Microsoft Visual Studio\2019\Community\VC\Tools\MSVC\14.29.30133\atlmfc\include\afxtempl.h
; File D:\git\src\IBK\IBK_DRFN\ProjSrc\SrcChartEx\ChartOCX\AddInManager\Include_AddIn\I000000\_IPacketList.h
;	COMDAT ?RemoveTail@CIPacketList000000@@UAEPAUIPacket000000@@XZ
_TEXT	SEGMENT
?RemoveTail@CIPacketList000000@@UAEPAUIPacket000000@@XZ PROC ; CIPacketList000000::RemoveTail, COMDAT
; _this$ = ecx

; 92   : 	virtual IPacket *	RemoveTail()	{	return CIPacketListBase::RemoveTail();	}

  00000	56		 push	 esi
  00001	8b f1		 mov	 esi, ecx
  00003	57		 push	 edi
; File C:\Program Files (x86)\Microsoft Visual Studio\2019\Community\VC\Tools\MSVC\14.29.30133\atlmfc\include\afxtempl.h

; 1028 : 	ENSURE(m_pNodeTail != NULL);  // don't call on empty list !!!

  00004	8b 4e ec	 mov	 ecx, DWORD PTR [esi-20]
  00007	85 c9		 test	 ecx, ecx
  00009	74 5a		 je	 SHORT $LN27@RemoveTail

; 1029 : 	ASSERT(AfxIsValidAddress(m_pNodeTail, sizeof(CNode)));
; 1030 : 
; 1031 : 	CNode* pOldNode = m_pNodeTail;
; 1032 : 	TYPE returnValue = pOldNode->data;
; 1033 : 
; 1034 : 	m_pNodeTail = pOldNode->pPrev;

  0000b	8b 41 04	 mov	 eax, DWORD PTR [ecx+4]
  0000e	8b 79 08	 mov	 edi, DWORD PTR [ecx+8]
  00011	89 46 ec	 mov	 DWORD PTR [esi-20], eax

; 1035 : 	if (m_pNodeTail != NULL)

  00014	85 c0		 test	 eax, eax
  00016	74 08		 je	 SHORT $LN8@RemoveTail

; 1036 : 		m_pNodeTail->pNext = NULL;

  00018	c7 00 00 00 00
	00		 mov	 DWORD PTR [eax], 0
  0001e	eb 07		 jmp	 SHORT $LN9@RemoveTail
$LN8@RemoveTail:

; 1037 : 	else
; 1038 : 		m_pNodeHead = NULL;

  00020	c7 46 e8 00 00
	00 00		 mov	 DWORD PTR [esi-24], 0
$LN9@RemoveTail:

; 938  : 	pNode->pNext = m_pNodeFree;

  00027	8b 46 f4	 mov	 eax, DWORD PTR [esi-12]
  0002a	89 01		 mov	 DWORD PTR [ecx], eax

; 939  : 	m_pNodeFree = pNode;
; 940  : 	m_nCount--;

  0002c	83 46 f0 ff	 add	 DWORD PTR [esi-16], -1
  00030	89 4e f4	 mov	 DWORD PTR [esi-12], ecx

; 941  : 	ASSERT(m_nCount >= 0);  // make sure we don't underflow
; 942  : 
; 943  : 	// if no more elements, cleanup completely
; 944  : 	if (m_nCount == 0)

  00033	75 2b		 jne	 SHORT $LN12@RemoveTail

; 872  : 	m_pBlocks->FreeDataChain();

  00035	8b 4e f8	 mov	 ecx, DWORD PTR [esi-8]
  00038	c7 46 f0 00 00
	00 00		 mov	 DWORD PTR [esi-16], 0
  0003f	c7 46 f4 00 00
	00 00		 mov	 DWORD PTR [esi-12], 0
  00046	c7 46 ec 00 00
	00 00		 mov	 DWORD PTR [esi-20], 0
  0004d	c7 46 e8 00 00
	00 00		 mov	 DWORD PTR [esi-24], 0
  00054	e8 00 00 00 00	 call	 ?FreeDataChain@CPlex@@QAEXXZ ; CPlex::FreeDataChain

; 873  : 	m_pBlocks = NULL;

  00059	c7 46 f8 00 00
	00 00		 mov	 DWORD PTR [esi-8], 0
$LN12@RemoveTail:
; File D:\git\src\IBK\IBK_DRFN\ProjSrc\SrcChartEx\ChartOCX\AddInManager\Include_AddIn\I000000\_IPacketList.h

; 92   : 	virtual IPacket *	RemoveTail()	{	return CIPacketListBase::RemoveTail();	}

  00060	8b c7		 mov	 eax, edi
  00062	5f		 pop	 edi
  00063	5e		 pop	 esi
  00064	c3		 ret	 0
$LN27@RemoveTail:
; File C:\Program Files (x86)\Microsoft Visual Studio\2019\Community\VC\Tools\MSVC\14.29.30133\atlmfc\include\afxtempl.h

; 1028 : 	ENSURE(m_pNodeTail != NULL);  // don't call on empty list !!!

  00065	e8 00 00 00 00	 call	 ?AfxThrowInvalidArgException@@YGXXZ ; AfxThrowInvalidArgException
$LN25@RemoveTail:
  0006a	cc		 int	 3
?RemoveTail@CIPacketList000000@@UAEPAUIPacket000000@@XZ ENDP ; CIPacketList000000::RemoveTail
_TEXT	ENDS
; Function compile flags: /Ogtp
; File D:\git\src\IBK\IBK_DRFN\ProjSrc\SrcChartEx\ChartOCX\AddInManager\Include_AddIn\I000000\_IPacketList.h
; File C:\Program Files (x86)\Microsoft Visual Studio\2019\Community\VC\Tools\MSVC\14.29.30133\atlmfc\include\afxtempl.h
; File D:\git\src\IBK\IBK_DRFN\ProjSrc\SrcChartEx\ChartOCX\AddInManager\Include_AddIn\I000000\_IPacketList.h
; File C:\Program Files (x86)\Microsoft Visual Studio\2019\Community\VC\Tools\MSVC\14.29.30133\atlmfc\include\afxtempl.h
; File D:\git\src\IBK\IBK_DRFN\ProjSrc\SrcChartEx\ChartOCX\AddInManager\Include_AddIn\I000000\_IPacketList.h
;	COMDAT ?RemoveHead@CIPacketList000000@@UAEPAUIPacket000000@@XZ
_TEXT	SEGMENT
?RemoveHead@CIPacketList000000@@UAEPAUIPacket000000@@XZ PROC ; CIPacketList000000::RemoveHead, COMDAT
; _this$ = ecx

; 91   : 	virtual IPacket *	RemoveHead()	{	return CIPacketListBase::RemoveHead();	}

  00000	56		 push	 esi
  00001	8b f1		 mov	 esi, ecx
  00003	57		 push	 edi
; File C:\Program Files (x86)\Microsoft Visual Studio\2019\Community\VC\Tools\MSVC\14.29.30133\atlmfc\include\afxtempl.h

; 1009 : 	ENSURE(m_pNodeHead != NULL);  // don't call on empty list !!!

  00004	8b 4e e8	 mov	 ecx, DWORD PTR [esi-24]
  00007	85 c9		 test	 ecx, ecx
  00009	74 5a		 je	 SHORT $LN27@RemoveHead

; 1010 : 	ASSERT(AfxIsValidAddress(m_pNodeHead, sizeof(CNode)));
; 1011 : 
; 1012 : 	CNode* pOldNode = m_pNodeHead;
; 1013 : 	TYPE returnValue = pOldNode->data;
; 1014 : 
; 1015 : 	m_pNodeHead = pOldNode->pNext;

  0000b	8b 01		 mov	 eax, DWORD PTR [ecx]
  0000d	8b 79 08	 mov	 edi, DWORD PTR [ecx+8]
  00010	89 46 e8	 mov	 DWORD PTR [esi-24], eax

; 1016 : 	if (m_pNodeHead != NULL)

  00013	85 c0		 test	 eax, eax
  00015	74 09		 je	 SHORT $LN8@RemoveHead

; 1017 : 		m_pNodeHead->pPrev = NULL;

  00017	c7 40 04 00 00
	00 00		 mov	 DWORD PTR [eax+4], 0
  0001e	eb 07		 jmp	 SHORT $LN9@RemoveHead
$LN8@RemoveHead:

; 1018 : 	else
; 1019 : 		m_pNodeTail = NULL;

  00020	c7 46 ec 00 00
	00 00		 mov	 DWORD PTR [esi-20], 0
$LN9@RemoveHead:

; 938  : 	pNode->pNext = m_pNodeFree;

  00027	8b 46 f4	 mov	 eax, DWORD PTR [esi-12]
  0002a	89 01		 mov	 DWORD PTR [ecx], eax

; 939  : 	m_pNodeFree = pNode;
; 940  : 	m_nCount--;

  0002c	83 46 f0 ff	 add	 DWORD PTR [esi-16], -1
  00030	89 4e f4	 mov	 DWORD PTR [esi-12], ecx

; 941  : 	ASSERT(m_nCount >= 0);  // make sure we don't underflow
; 942  : 
; 943  : 	// if no more elements, cleanup completely
; 944  : 	if (m_nCount == 0)

  00033	75 2b		 jne	 SHORT $LN12@RemoveHead

; 872  : 	m_pBlocks->FreeDataChain();

  00035	8b 4e f8	 mov	 ecx, DWORD PTR [esi-8]
  00038	c7 46 f0 00 00
	00 00		 mov	 DWORD PTR [esi-16], 0
  0003f	c7 46 f4 00 00
	00 00		 mov	 DWORD PTR [esi-12], 0
  00046	c7 46 ec 00 00
	00 00		 mov	 DWORD PTR [esi-20], 0
  0004d	c7 46 e8 00 00
	00 00		 mov	 DWORD PTR [esi-24], 0
  00054	e8 00 00 00 00	 call	 ?FreeDataChain@CPlex@@QAEXXZ ; CPlex::FreeDataChain

; 873  : 	m_pBlocks = NULL;

  00059	c7 46 f8 00 00
	00 00		 mov	 DWORD PTR [esi-8], 0
$LN12@RemoveHead:
; File D:\git\src\IBK\IBK_DRFN\ProjSrc\SrcChartEx\ChartOCX\AddInManager\Include_AddIn\I000000\_IPacketList.h

; 91   : 	virtual IPacket *	RemoveHead()	{	return CIPacketListBase::RemoveHead();	}

  00060	8b c7		 mov	 eax, edi
  00062	5f		 pop	 edi
  00063	5e		 pop	 esi
  00064	c3		 ret	 0
$LN27@RemoveHead:
; File C:\Program Files (x86)\Microsoft Visual Studio\2019\Community\VC\Tools\MSVC\14.29.30133\atlmfc\include\afxtempl.h

; 1009 : 	ENSURE(m_pNodeHead != NULL);  // don't call on empty list !!!

  00065	e8 00 00 00 00	 call	 ?AfxThrowInvalidArgException@@YGXXZ ; AfxThrowInvalidArgException
$LN25@RemoveHead:
  0006a	cc		 int	 3
?RemoveHead@CIPacketList000000@@UAEPAUIPacket000000@@XZ ENDP ; CIPacketList000000::RemoveHead
_TEXT	ENDS
; Function compile flags: /Ogtp
; File D:\git\src\IBK\IBK_DRFN\ProjSrc\SrcChartEx\ChartOCX\AddInManager\Include_AddIn\I000000\_IPacketList.h
; File C:\Program Files (x86)\Microsoft Visual Studio\2019\Community\VC\Tools\MSVC\14.29.30133\atlmfc\include\afxtempl.h
; File D:\git\src\IBK\IBK_DRFN\ProjSrc\SrcChartEx\ChartOCX\AddInManager\Include_AddIn\I000000\_IPacketList.h
;	COMDAT ?GetTail@CIPacketList000000@@UBEPAUIPacket000000@@XZ
_TEXT	SEGMENT
?GetTail@CIPacketList000000@@UBEPAUIPacket000000@@XZ PROC ; CIPacketList000000::GetTail, COMDAT
; _this$ = ecx
; File C:\Program Files (x86)\Microsoft Visual Studio\2019\Community\VC\Tools\MSVC\14.29.30133\atlmfc\include\afxtempl.h

; 801  : 	{ ENSURE(m_pNodeTail != NULL);

  00000	8b 41 ec	 mov	 eax, DWORD PTR [ecx-20]
  00003	85 c0		 test	 eax, eax
  00005	0f 84 00 00 00
	00		 je	 ?AfxThrowInvalidArgException@@YGXXZ ; AfxThrowInvalidArgException
; File D:\git\src\IBK\IBK_DRFN\ProjSrc\SrcChartEx\ChartOCX\AddInManager\Include_AddIn\I000000\_IPacketList.h

; 87   : 	virtual IPacket *	GetTail() const	{	return CIPacketListBase::GetTail();	}

  0000b	8b 40 08	 mov	 eax, DWORD PTR [eax+8]
  0000e	c3		 ret	 0
?GetTail@CIPacketList000000@@UBEPAUIPacket000000@@XZ ENDP ; CIPacketList000000::GetTail
_TEXT	ENDS
; Function compile flags: /Ogtp
; File D:\git\src\IBK\IBK_DRFN\ProjSrc\SrcChartEx\ChartOCX\AddInManager\Include_AddIn\I000000\_IPacketList.h
; File C:\Program Files (x86)\Microsoft Visual Studio\2019\Community\VC\Tools\MSVC\14.29.30133\atlmfc\include\afxtempl.h
; File D:\git\src\IBK\IBK_DRFN\ProjSrc\SrcChartEx\ChartOCX\AddInManager\Include_AddIn\I000000\_IPacketList.h
;	COMDAT ?GetHead@CIPacketList000000@@UBEPAUIPacket000000@@XZ
_TEXT	SEGMENT
?GetHead@CIPacketList000000@@UBEPAUIPacket000000@@XZ PROC ; CIPacketList000000::GetHead, COMDAT
; _this$ = ecx
; File C:\Program Files (x86)\Microsoft Visual Studio\2019\Community\VC\Tools\MSVC\14.29.30133\atlmfc\include\afxtempl.h

; 793  : 	{ ENSURE(m_pNodeHead != NULL);

  00000	8b 41 e8	 mov	 eax, DWORD PTR [ecx-24]
  00003	85 c0		 test	 eax, eax
  00005	0f 84 00 00 00
	00		 je	 ?AfxThrowInvalidArgException@@YGXXZ ; AfxThrowInvalidArgException
; File D:\git\src\IBK\IBK_DRFN\ProjSrc\SrcChartEx\ChartOCX\AddInManager\Include_AddIn\I000000\_IPacketList.h

; 86   : 	virtual IPacket *	GetHead() const	{	return CIPacketListBase::GetHead();	}

  0000b	8b 40 08	 mov	 eax, DWORD PTR [eax+8]
  0000e	c3		 ret	 0
?GetHead@CIPacketList000000@@UBEPAUIPacket000000@@XZ ENDP ; CIPacketList000000::GetHead
_TEXT	ENDS
; Function compile flags: /Ogtp
; File D:\git\src\IBK\IBK_DRFN\ProjSrc\SrcChartEx\ChartOCX\AddInManager\Include_AddIn\I000000\_IPacketList.h
; File C:\Program Files (x86)\Microsoft Visual Studio\2019\Community\VC\Tools\MSVC\14.29.30133\atlmfc\include\afxtempl.h
; File D:\git\src\IBK\IBK_DRFN\ProjSrc\SrcChartEx\ChartOCX\AddInManager\Include_AddIn\I000000\_IPacketList.h
;	COMDAT ?IsEmpty@CIPacketList000000@@UBEHXZ
_TEXT	SEGMENT
?IsEmpty@CIPacketList000000@@UBEHXZ PROC		; CIPacketList000000::IsEmpty, COMDAT
; _this$ = ecx
; File C:\Program Files (x86)\Microsoft Visual Studio\2019\Community\VC\Tools\MSVC\14.29.30133\atlmfc\include\afxtempl.h

; 786  : 	{ return m_nCount == 0; }

  00000	33 c0		 xor	 eax, eax
  00002	39 41 f0	 cmp	 DWORD PTR [ecx-16], eax
  00005	0f 94 c0	 sete	 al
; File D:\git\src\IBK\IBK_DRFN\ProjSrc\SrcChartEx\ChartOCX\AddInManager\Include_AddIn\I000000\_IPacketList.h

; 83   : 	virtual BOOL	IsEmpty() const		{	return CIPacketListBase::IsEmpty();	}

  00008	c3		 ret	 0
?IsEmpty@CIPacketList000000@@UBEHXZ ENDP		; CIPacketList000000::IsEmpty
_TEXT	ENDS
; Function compile flags: /Ogtp
; File D:\git\src\IBK\IBK_DRFN\ProjSrc\SrcChartEx\ChartOCX\AddInManager\Include_AddIn\I000000\_IPacketList.h
;	COMDAT ?GetCount@CIPacketList000000@@UBEHXZ
_TEXT	SEGMENT
?GetCount@CIPacketList000000@@UBEHXZ PROC		; CIPacketList000000::GetCount, COMDAT
; _this$ = ecx

; 82   : 	virtual int		GetCount() const	{	return CIPacketListBase::GetCount();	}

  00000	8b 41 f0	 mov	 eax, DWORD PTR [ecx-16]
  00003	c3		 ret	 0
?GetCount@CIPacketList000000@@UBEHXZ ENDP		; CIPacketList000000::GetCount
_TEXT	ENDS
; Function compile flags: /Ogtp
; File D:\git\src\IBK\IBK_DRFN\ProjSrc\SrcChartEx\ChartOCX\AddInManager\Include_AddIn\I000000\_IPacketList.h
;	COMDAT ?QueryInterface@CIPacketList000000@@MAGJABU_GUID@@PAPAX@Z
_TEXT	SEGMENT
_this$ = 8						; size = 4
_iid$ = 12						; size = 4
_ppvObject$ = 16					; size = 4
?QueryInterface@CIPacketList000000@@MAGJABU_GUID@@PAPAX@Z PROC ; CIPacketList000000::QueryInterface, COMDAT

; 77   : 	virtual HRESULT	STDMETHODCALLTYPE QueryInterface( REFIID iid, void ** ppvObject)	{	return E_NOINTERFACE;	}

  00000	b8 02 40 00 80	 mov	 eax, -2147467262	; 80004002H
  00005	c2 0c 00	 ret	 12			; 0000000cH
?QueryInterface@CIPacketList000000@@MAGJABU_GUID@@PAPAX@Z ENDP ; CIPacketList000000::QueryInterface
_TEXT	ENDS
; Function compile flags: /Ogtp
; File D:\git\src\IBK\IBK_DRFN\ProjSrc\SrcChartEx\ChartOCX\AddInManager\Include_AddIn\I000000\_IPacketList.h
;	COMDAT ?Release@CIPacketList000000@@MAGKXZ
_TEXT	SEGMENT
_this$ = 8						; size = 4
?Release@CIPacketList000000@@MAGKXZ PROC		; CIPacketList000000::Release, COMDAT

; 76   : 	virtual ULONG	STDMETHODCALLTYPE Release(	void)	{	return 1;	}

  00000	b8 01 00 00 00	 mov	 eax, 1
  00005	c2 04 00	 ret	 4
?Release@CIPacketList000000@@MAGKXZ ENDP		; CIPacketList000000::Release
_TEXT	ENDS
; Function compile flags: /Ogtp
; File D:\git\src\IBK\IBK_DRFN\ProjSrc\SrcChartEx\ChartOCX\AddInManager\Include_AddIn\I000000\_IPacketList.h
;	COMDAT ?AddRef@CIPacketList000000@@MAGKXZ
_TEXT	SEGMENT
_this$ = 8						; size = 4
?AddRef@CIPacketList000000@@MAGKXZ PROC			; CIPacketList000000::AddRef, COMDAT

; 75   : 	virtual ULONG	STDMETHODCALLTYPE AddRef(	void)	{	return 1;	}

  00000	b8 01 00 00 00	 mov	 eax, 1
  00005	c2 04 00	 ret	 4
?AddRef@CIPacketList000000@@MAGKXZ ENDP			; CIPacketList000000::AddRef
_TEXT	ENDS
; Function compile flags: /Ogtp
; File D:\git\src\IBK\IBK_DRFN\ProjSrc\SrcChartEx\ChartOCX\AddInManager\Include_AddIn\I000000\_IPacketList.h
; File C:\Program Files (x86)\Microsoft Visual Studio\2019\Community\VC\Tools\MSVC\14.29.30133\atlmfc\include\afxtempl.h
; File D:\git\src\IBK\IBK_DRFN\ProjSrc\SrcChartEx\ChartOCX\AddInManager\Include_AddIn\I000000\_IPacketList.h
;	COMDAT ??1CIPacketList000000@@UAE@XZ
_TEXT	SEGMENT
__$EHRec$ = -12						; size = 12
??1CIPacketList000000@@UAE@XZ PROC			; CIPacketList000000::~CIPacketList000000, COMDAT
; _this$ = ecx

; 71   : 	~CIPacketList()	{}

  00000	55		 push	 ebp
  00001	8b ec		 mov	 ebp, esp
  00003	6a ff		 push	 -1
  00005	68 00 00 00 00	 push	 __ehhandler$??1CIPacketList000000@@UAE@XZ
  0000a	64 a1 00 00 00
	00		 mov	 eax, DWORD PTR fs:0
  00010	50		 push	 eax
  00011	56		 push	 esi
  00012	a1 00 00 00 00	 mov	 eax, DWORD PTR ___security_cookie
  00017	33 c5		 xor	 eax, ebp
  00019	50		 push	 eax
  0001a	8d 45 f4	 lea	 eax, DWORD PTR __$EHRec$[ebp]
  0001d	64 a3 00 00 00
	00		 mov	 DWORD PTR fs:0, eax
  00023	8b f1		 mov	 esi, ecx
  00025	c7 46 1c 00 00
	00 00		 mov	 DWORD PTR [esi+28], OFFSET ??_7IPacketList000000@@6B@
; File C:\Program Files (x86)\Microsoft Visual Studio\2019\Community\VC\Tools\MSVC\14.29.30133\atlmfc\include\afxtempl.h

; 872  : 	m_pBlocks->FreeDataChain();

  0002c	8b 4e 14	 mov	 ecx, DWORD PTR [esi+20]

; 878  : {

  0002f	c7 45 fc 00 00
	00 00		 mov	 DWORD PTR __$EHRec$[ebp+8], 0
  00036	c7 06 00 00 00
	00		 mov	 DWORD PTR [esi], OFFSET ??_7?$CList@PAUIPacket000000@@PAU1@@@6B@

; 870  : 	m_nCount = 0;

  0003c	c7 46 0c 00 00
	00 00		 mov	 DWORD PTR [esi+12], 0

; 871  : 	m_pNodeHead = m_pNodeTail = m_pNodeFree = NULL;

  00043	c7 46 10 00 00
	00 00		 mov	 DWORD PTR [esi+16], 0
  0004a	c7 46 08 00 00
	00 00		 mov	 DWORD PTR [esi+8], 0
  00051	c7 46 04 00 00
	00 00		 mov	 DWORD PTR [esi+4], 0

; 872  : 	m_pBlocks->FreeDataChain();

  00058	e8 00 00 00 00	 call	 ?FreeDataChain@CPlex@@QAEXXZ ; CPlex::FreeDataChain

; 873  : 	m_pBlocks = NULL;

  0005d	c7 46 14 00 00
	00 00		 mov	 DWORD PTR [esi+20], 0
; File D:\git\src\IBK\IBK_DRFN\ProjSrc\SrcChartEx\ChartOCX\AddInManager\Include_AddIn\I000000\_IPacketList.h

; 71   : 	~CIPacketList()	{}

  00064	8b 4d f4	 mov	 ecx, DWORD PTR __$EHRec$[ebp]
  00067	64 89 0d 00 00
	00 00		 mov	 DWORD PTR fs:0, ecx
  0006e	59		 pop	 ecx
  0006f	5e		 pop	 esi
  00070	8b e5		 mov	 esp, ebp
  00072	5d		 pop	 ebp
  00073	c3		 ret	 0
  00074	cc		 int	 3
  00075	cc		 int	 3
  00076	cc		 int	 3
  00077	cc		 int	 3
  00078	cc		 int	 3
_TEXT	ENDS
;	COMDAT text$x
text$x	SEGMENT
__ehhandler$??1CIPacketList000000@@UAE@XZ:
  00000	90		 npad	 1
  00001	90		 npad	 1
  00002	8b 54 24 08	 mov	 edx, DWORD PTR [esp+8]
  00006	8d 42 0c	 lea	 eax, DWORD PTR [edx+12]
  00009	8b 4a f8	 mov	 ecx, DWORD PTR [edx-8]
  0000c	33 c8		 xor	 ecx, eax
  0000e	e8 00 00 00 00	 call	 @__security_check_cookie@4
  00013	b8 00 00 00 00	 mov	 eax, OFFSET __ehfuncinfo$??1CIPacketList000000@@UAE@XZ
  00018	e9 00 00 00 00	 jmp	 ___CxxFrameHandler3
text$x	ENDS
??1CIPacketList000000@@UAE@XZ ENDP			; CIPacketList000000::~CIPacketList000000
; Function compile flags: /Ogtp
; File C:\Program Files (x86)\Microsoft Visual Studio\2019\Community\VC\Tools\MSVC\14.29.30133\atlmfc\include\afxtempl.h
; File C:\Program Files (x86)\Microsoft Visual Studio\2019\Community\VC\Tools\MSVC\14.29.30133\atlmfc\include\afx.inl
;	COMDAT ??_G?$CList@PAUIPacket000000@@PAU1@@@UAEPAXI@Z
_TEXT	SEGMENT
__$EHRec$ = -12						; size = 12
___flags$ = 8						; size = 4
??_G?$CList@PAUIPacket000000@@PAU1@@@UAEPAXI@Z PROC	; CList<IPacket000000 *,IPacket000000 *>::`scalar deleting destructor', COMDAT
; _this$ = ecx
  00000	55		 push	 ebp
  00001	8b ec		 mov	 ebp, esp
  00003	6a ff		 push	 -1
  00005	68 00 00 00 00	 push	 __ehhandler$??_G?$CList@PAUIPacket000000@@PAU1@@@UAEPAXI@Z
  0000a	64 a1 00 00 00
	00		 mov	 eax, DWORD PTR fs:0
  00010	50		 push	 eax
  00011	56		 push	 esi
  00012	a1 00 00 00 00	 mov	 eax, DWORD PTR ___security_cookie
  00017	33 c5		 xor	 eax, ebp
  00019	50		 push	 eax
  0001a	8d 45 f4	 lea	 eax, DWORD PTR __$EHRec$[ebp]
  0001d	64 a3 00 00 00
	00		 mov	 DWORD PTR fs:0, eax
  00023	8b f1		 mov	 esi, ecx
; File C:\Program Files (x86)\Microsoft Visual Studio\2019\Community\VC\Tools\MSVC\14.29.30133\atlmfc\include\afxtempl.h

; 872  : 	m_pBlocks->FreeDataChain();

  00025	8b 4e 14	 mov	 ecx, DWORD PTR [esi+20]

; 878  : {

  00028	c7 45 fc 00 00
	00 00		 mov	 DWORD PTR __$EHRec$[ebp+8], 0
  0002f	c7 06 00 00 00
	00		 mov	 DWORD PTR [esi], OFFSET ??_7?$CList@PAUIPacket000000@@PAU1@@@6B@

; 870  : 	m_nCount = 0;

  00035	c7 46 0c 00 00
	00 00		 mov	 DWORD PTR [esi+12], 0

; 871  : 	m_pNodeHead = m_pNodeTail = m_pNodeFree = NULL;

  0003c	c7 46 10 00 00
	00 00		 mov	 DWORD PTR [esi+16], 0
  00043	c7 46 08 00 00
	00 00		 mov	 DWORD PTR [esi+8], 0
  0004a	c7 46 04 00 00
	00 00		 mov	 DWORD PTR [esi+4], 0

; 872  : 	m_pBlocks->FreeDataChain();

  00051	e8 00 00 00 00	 call	 ?FreeDataChain@CPlex@@QAEXXZ ; CPlex::FreeDataChain

; 873  : 	m_pBlocks = NULL;

  00056	8b 45 08	 mov	 eax, DWORD PTR ___flags$[ebp]
  00059	c7 46 14 00 00
	00 00		 mov	 DWORD PTR [esi+20], 0
  00060	a8 01		 test	 al, 1
  00062	74 2c		 je	 SHORT $LN22@scalar
  00064	a8 04		 test	 al, 4
  00066	75 1d		 jne	 SHORT $LN3@scalar
; File C:\Program Files (x86)\Microsoft Visual Studio\2019\Community\VC\Tools\MSVC\14.29.30133\atlmfc\include\afx.inl

; 112  : 	{ ::operator delete(p); }

  00068	56		 push	 esi
  00069	e8 00 00 00 00	 call	 ??3@YAXPAX@Z		; operator delete
  0006e	83 c4 04	 add	 esp, 4
  00071	8b c6		 mov	 eax, esi
  00073	8b 4d f4	 mov	 ecx, DWORD PTR __$EHRec$[ebp]
  00076	64 89 0d 00 00
	00 00		 mov	 DWORD PTR fs:0, ecx
  0007d	59		 pop	 ecx
  0007e	5e		 pop	 esi
  0007f	8b e5		 mov	 esp, ebp
  00081	5d		 pop	 ebp
  00082	c2 04 00	 ret	 4
$LN3@scalar:
  00085	6a 1c		 push	 28			; 0000001cH
  00087	56		 push	 esi
  00088	e8 00 00 00 00	 call	 ?__global_delete@@YAXPAXI@Z ; __global_delete
  0008d	83 c4 08	 add	 esp, 8
$LN22@scalar:
  00090	8b c6		 mov	 eax, esi
  00092	8b 4d f4	 mov	 ecx, DWORD PTR __$EHRec$[ebp]
  00095	64 89 0d 00 00
	00 00		 mov	 DWORD PTR fs:0, ecx
  0009c	59		 pop	 ecx
  0009d	5e		 pop	 esi
  0009e	8b e5		 mov	 esp, ebp
  000a0	5d		 pop	 ebp
  000a1	c2 04 00	 ret	 4
  000a4	cc		 int	 3
  000a5	cc		 int	 3
  000a6	cc		 int	 3
  000a7	cc		 int	 3
  000a8	cc		 int	 3
_TEXT	ENDS
;	COMDAT text$x
text$x	SEGMENT
__ehhandler$??_G?$CList@PAUIPacket000000@@PAU1@@@UAEPAXI@Z:
  00000	90		 npad	 1
  00001	90		 npad	 1
  00002	8b 54 24 08	 mov	 edx, DWORD PTR [esp+8]
  00006	8d 42 0c	 lea	 eax, DWORD PTR [edx+12]
  00009	8b 4a f8	 mov	 ecx, DWORD PTR [edx-8]
  0000c	33 c8		 xor	 ecx, eax
  0000e	e8 00 00 00 00	 call	 @__security_check_cookie@4
  00013	b8 00 00 00 00	 mov	 eax, OFFSET __ehfuncinfo$??_G?$CList@PAUIPacket000000@@PAU1@@@UAEPAXI@Z
  00018	e9 00 00 00 00	 jmp	 ___CxxFrameHandler3
text$x	ENDS
??_G?$CList@PAUIPacket000000@@PAU1@@@UAEPAXI@Z ENDP	; CList<IPacket000000 *,IPacket000000 *>::`scalar deleting destructor'
; Function compile flags: /Ogtp
; File C:\Program Files (x86)\Microsoft Visual Studio\2019\Community\VC\Tools\MSVC\14.29.30133\atlmfc\include\afxtempl.h
; File C:\Program Files (x86)\Microsoft Visual Studio\2019\Community\VC\Tools\MSVC\14.29.30133\atlmfc\include\afx.inl
; File C:\Program Files (x86)\Microsoft Visual Studio\2019\Community\VC\Tools\MSVC\14.29.30133\atlmfc\include\afxtempl.h
; File C:\Program Files (x86)\Microsoft Visual Studio\2019\Community\VC\Tools\MSVC\14.29.30133\atlmfc\include\afx.inl
; File C:\Program Files (x86)\Microsoft Visual Studio\2019\Community\VC\Tools\MSVC\14.29.30133\atlmfc\include\afxtempl.h
; File C:\Program Files (x86)\Microsoft Visual Studio\2019\Community\VC\Tools\MSVC\14.29.30133\atlmfc\include\afx.inl
; File C:\Program Files (x86)\Microsoft Visual Studio\2019\Community\VC\Tools\MSVC\14.29.30133\atlmfc\include\afxtempl.h
; File C:\Program Files (x86)\Microsoft Visual Studio\2019\Community\VC\Tools\MSVC\14.29.30133\atlmfc\include\afx.inl
; File C:\Program Files (x86)\Microsoft Visual Studio\2019\Community\VC\Tools\MSVC\14.29.30133\atlmfc\include\afxtempl.h
; File C:\Program Files (x86)\Microsoft Visual Studio\2019\Community\VC\Tools\MSVC\14.29.30133\atlmfc\include\afx.inl
; File C:\Program Files (x86)\Microsoft Visual Studio\2019\Community\VC\Tools\MSVC\14.29.30133\atlmfc\include\afxtempl.h
; File C:\Program Files (x86)\Microsoft Visual Studio\2019\Community\VC\Tools\MSVC\14.29.30133\atlmfc\include\afx.inl
; File C:\Program Files (x86)\Microsoft Visual Studio\2019\Community\VC\Tools\MSVC\14.29.30133\atlmfc\include\afxtempl.h
;	COMDAT ?Serialize@?$CList@PAUIPacket000000@@PAU1@@@UAEXAAVCArchive@@@Z
_TEXT	SEGMENT
_nNewCount$1$ = -16					; size = 4
_newData$1 = -12					; size = 4
_pData$1$ = -8						; size = 4
_pData$1$ = -8						; size = 4
_pNode$1$ = -8						; size = 4
_nElementsLeft$1$ = -4					; size = 4
_this$1$ = -4						; size = 4
_ar$ = 8						; size = 4
?Serialize@?$CList@PAUIPacket000000@@PAU1@@@UAEXAAVCArchive@@@Z PROC ; CList<IPacket000000 *,IPacket000000 *>::Serialize, COMDAT
; _this$ = ecx

; 1169 : {

  00000	55		 push	 ebp
  00001	8b ec		 mov	 ebp, esp
  00003	83 ec 10	 sub	 esp, 16			; 00000010H
  00006	53		 push	 ebx
  00007	8b d9		 mov	 ebx, ecx
; File C:\Program Files (x86)\Microsoft Visual Studio\2019\Community\VC\Tools\MSVC\14.29.30133\atlmfc\include\afx.inl

; 212  : 	{ return (m_nMode & CArchive::load) == 0; }

  00009	8b 4d 08	 mov	 ecx, DWORD PTR _ar$[ebp]
; File C:\Program Files (x86)\Microsoft Visual Studio\2019\Community\VC\Tools\MSVC\14.29.30133\atlmfc\include\afxtempl.h

; 1169 : {

  0000c	56		 push	 esi
  0000d	57		 push	 edi
  0000e	89 5d fc	 mov	 DWORD PTR _this$1$[ebp], ebx
; File C:\Program Files (x86)\Microsoft Visual Studio\2019\Community\VC\Tools\MSVC\14.29.30133\atlmfc\include\afx.inl

; 212  : 	{ return (m_nMode & CArchive::load) == 0; }

  00011	8b 41 18	 mov	 eax, DWORD PTR [ecx+24]
  00014	f7 d0		 not	 eax
  00016	a8 01		 test	 al, 1
; File C:\Program Files (x86)\Microsoft Visual Studio\2019\Community\VC\Tools\MSVC\14.29.30133\atlmfc\include\afxtempl.h

; 1174 : 	if (ar.IsStoring())

  00018	0f 84 ae 00 00
	00		 je	 $LN7@Serialize

; 1175 : 	{
; 1176 : 		ar.WriteCount(m_nCount);

  0001e	ff 73 0c	 push	 DWORD PTR [ebx+12]
  00021	e8 00 00 00 00	 call	 ?WriteCount@CArchive@@QAEXK@Z ; CArchive::WriteCount

; 1177 : 		for (CNode* pNode = m_pNodeHead; pNode != NULL; pNode = pNode->pNext)

  00026	8b 43 04	 mov	 eax, DWORD PTR [ebx+4]
  00029	89 45 f8	 mov	 DWORD PTR _pNode$1$[ebp], eax
  0002c	85 c0		 test	 eax, eax
  0002e	0f 84 b9 01 00
	00		 je	 $LN86@Serialize
$LL4@Serialize:

; 1178 : 		{
; 1179 : 			ASSERT(AfxIsValidAddress(pNode, sizeof(CNode)));
; 1180 : 			TYPE* pData;
; 1181 : 			/*
; 1182 : 			 * in some cases the & operator might be overloaded, and we cannot use it to obtain
; 1183 : 			 * the address of a given object.  We then use the following trick to get the address
; 1184 : 			 */
; 1185 : 			pData = reinterpret_cast< TYPE* >( &reinterpret_cast< int& >( static_cast< TYPE& >( pNode->data ) ) );

  00034	8d 70 08	 lea	 esi, DWORD PTR [eax+8]

; 68   : 	ENSURE(nCount == 0 || pElements != NULL);

  00037	85 f6		 test	 esi, esi
  00039	0f 84 c0 01 00
	00		 je	 $LN76@Serialize
; File C:\Program Files (x86)\Microsoft Visual Studio\2019\Community\VC\Tools\MSVC\14.29.30133\atlmfc\include\afx.inl

; 212  : 	{ return (m_nMode & CArchive::load) == 0; }

  0003f	8b 4d 08	 mov	 ecx, DWORD PTR _ar$[ebp]
  00042	8b 41 18	 mov	 eax, DWORD PTR [ecx+24]
  00045	f7 d0		 not	 eax
  00047	a8 01		 test	 al, 1
; File C:\Program Files (x86)\Microsoft Visual Studio\2019\Community\VC\Tools\MSVC\14.29.30133\atlmfc\include\afxtempl.h

; 73   : 	if (ar.IsStoring())

  00049	74 33		 je	 SHORT $LN21@Serialize

; 74   : 	{
; 75   : 		TYPE* pData;
; 76   : 		UINT_PTR nElementsLeft;
; 77   : 
; 78   : 		nElementsLeft = nCount;

  0004b	b8 01 00 00 00	 mov	 eax, 1
  00050	89 45 fc	 mov	 DWORD PTR _nElementsLeft$1$[ebp], eax
$LL16@Serialize:

; 80   : 		while( nElementsLeft > 0 )
; 81   : 		{
; 82   : 			UINT nElementsToWrite;
; 83   : 
; 84   : 			nElementsToWrite = UINT(__min(nElementsLeft, INT_MAX/sizeof(TYPE)));

  00053	bb ff ff ff 1f	 mov	 ebx, 536870911		; 1fffffffH
  00058	3b c3		 cmp	 eax, ebx
  0005a	0f 42 d8	 cmovb	 ebx, eax

; 85   : 			ar.Write(pData, nElementsToWrite*sizeof(TYPE));

  0005d	8d 3c 9d 00 00
	00 00		 lea	 edi, DWORD PTR [ebx*4]
  00064	57		 push	 edi
  00065	56		 push	 esi
  00066	e8 00 00 00 00	 call	 ?Write@CArchive@@QAEXPBXI@Z ; CArchive::Write

; 86   : 			nElementsLeft -= nElementsToWrite;

  0006b	8b 45 fc	 mov	 eax, DWORD PTR _nElementsLeft$1$[ebp]

; 87   : 			pData += nElementsToWrite;

  0006e	03 f7		 add	 esi, edi
  00070	8b 4d 08	 mov	 ecx, DWORD PTR _ar$[ebp]
  00073	2b c3		 sub	 eax, ebx
  00075	89 45 fc	 mov	 DWORD PTR _nElementsLeft$1$[ebp], eax
  00078	85 c0		 test	 eax, eax
  0007a	75 d7		 jne	 SHORT $LL16@Serialize

; 88   : 		}
; 89   : 	}

  0007c	eb 35		 jmp	 SHORT $LN2@Serialize
$LN21@Serialize:

; 90   : 	else
; 91   : 	{
; 92   : 		TYPE* pData;
; 93   : 		UINT_PTR nElementsLeft;
; 94   : 
; 95   : 		nElementsLeft = nCount;

  0007e	bf 01 00 00 00	 mov	 edi, 1
$LL18@Serialize:

; 98   : 		{
; 99   : 			UINT nElementsToRead;
; 100  : 
; 101  : 			nElementsToRead = UINT(__min(nElementsLeft, INT_MAX/sizeof(TYPE)));

  00083	bb ff ff ff 1f	 mov	 ebx, 536870911		; 1fffffffH
  00088	3b fb		 cmp	 edi, ebx
  0008a	0f 42 df	 cmovb	 ebx, edi

; 102  : 			ar.EnsureRead(pData, nElementsToRead*sizeof(TYPE));

  0008d	8d 04 9d 00 00
	00 00		 lea	 eax, DWORD PTR [ebx*4]
; File C:\Program Files (x86)\Microsoft Visual Studio\2019\Community\VC\Tools\MSVC\14.29.30133\atlmfc\include\afx.inl

; 399  : 	UINT nRead=Read(lpBuf, nCount);

  00094	50		 push	 eax
  00095	56		 push	 esi
  00096	e8 00 00 00 00	 call	 ?Read@CArchive@@QAEIPAXI@Z ; CArchive::Read

; 400  : 	if(nRead!=nCount)

  0009b	8d 0c 9d 00 00
	00 00		 lea	 ecx, DWORD PTR [ebx*4]
  000a2	3b c1		 cmp	 eax, ecx
  000a4	0f 85 4c 01 00
	00		 jne	 $LN75@Serialize
; File C:\Program Files (x86)\Microsoft Visual Studio\2019\Community\VC\Tools\MSVC\14.29.30133\atlmfc\include\afxtempl.h

; 97   : 		while( nElementsLeft > 0 )

  000aa	03 f1		 add	 esi, ecx
  000ac	8b 4d 08	 mov	 ecx, DWORD PTR _ar$[ebp]

; 103  : 			nElementsLeft -= nElementsToRead;

  000af	2b fb		 sub	 edi, ebx
  000b1	75 d0		 jne	 SHORT $LL18@Serialize
$LN2@Serialize:

; 1177 : 		for (CNode* pNode = m_pNodeHead; pNode != NULL; pNode = pNode->pNext)

  000b3	8b 45 f8	 mov	 eax, DWORD PTR _pNode$1$[ebp]
  000b6	8b 00		 mov	 eax, DWORD PTR [eax]
  000b8	89 45 f8	 mov	 DWORD PTR _pNode$1$[ebp], eax
  000bb	85 c0		 test	 eax, eax
  000bd	0f 85 71 ff ff
	ff		 jne	 $LL4@Serialize

; 1197 : 		}
; 1198 : 	}
; 1199 : }

  000c3	5f		 pop	 edi
  000c4	5e		 pop	 esi
  000c5	5b		 pop	 ebx
  000c6	8b e5		 mov	 esp, ebp
  000c8	5d		 pop	 ebp
  000c9	c2 04 00	 ret	 4
$LN7@Serialize:

; 1186 : 			SerializeElements<TYPE>(ar, pData, 1);
; 1187 : 		}
; 1188 : 	}
; 1189 : 	else
; 1190 : 	{
; 1191 : 		DWORD_PTR nNewCount = ar.ReadCount();

  000cc	e8 00 00 00 00	 call	 ?ReadCount@CArchive@@QAEKXZ ; CArchive::ReadCount

; 1192 : 		while (nNewCount--)

  000d1	85 c0		 test	 eax, eax
  000d3	0f 84 14 01 00
	00		 je	 $LN86@Serialize
  000d9	0f 1f 80 00 00
	00 00		 npad	 7
$LL5@Serialize:
  000e0	48		 dec	 eax
  000e1	89 45 f0	 mov	 DWORD PTR _nNewCount$1$[ebp], eax
; File C:\Program Files (x86)\Microsoft Visual Studio\2019\Community\VC\Tools\MSVC\14.29.30133\atlmfc\include\afx.inl

; 212  : 	{ return (m_nMode & CArchive::load) == 0; }

  000e4	8b 45 08	 mov	 eax, DWORD PTR _ar$[ebp]
  000e7	8b 48 18	 mov	 ecx, DWORD PTR [eax+24]
  000ea	f7 d1		 not	 ecx
  000ec	f6 c1 01	 test	 cl, 1
; File C:\Program Files (x86)\Microsoft Visual Studio\2019\Community\VC\Tools\MSVC\14.29.30133\atlmfc\include\afxtempl.h

; 73   : 	if (ar.IsStoring())

  000ef	74 3d		 je	 SHORT $LN42@Serialize

; 79   : 		pData = pElements;

  000f1	8d 4d f4	 lea	 ecx, DWORD PTR _newData$1[ebp]
  000f4	bb 01 00 00 00	 mov	 ebx, 1
  000f9	89 4d f8	 mov	 DWORD PTR _pData$1$[ebp], ecx
  000fc	0f 1f 40 00	 npad	 4
$LL37@Serialize:

; 80   : 		while( nElementsLeft > 0 )
; 81   : 		{
; 82   : 			UINT nElementsToWrite;
; 83   : 
; 84   : 			nElementsToWrite = UINT(__min(nElementsLeft, INT_MAX/sizeof(TYPE)));

  00100	bf ff ff ff 1f	 mov	 edi, 536870911		; 1fffffffH
  00105	3b df		 cmp	 ebx, edi
  00107	0f 42 fb	 cmovb	 edi, ebx

; 85   : 			ar.Write(pData, nElementsToWrite*sizeof(TYPE));

  0010a	8d 34 bd 00 00
	00 00		 lea	 esi, DWORD PTR [edi*4]
  00111	56		 push	 esi
  00112	51		 push	 ecx
  00113	8b c8		 mov	 ecx, eax
  00115	e8 00 00 00 00	 call	 ?Write@CArchive@@QAEXPBXI@Z ; CArchive::Write

; 87   : 			pData += nElementsToWrite;

  0011a	8b 4d f8	 mov	 ecx, DWORD PTR _pData$1$[ebp]
  0011d	8b 45 08	 mov	 eax, DWORD PTR _ar$[ebp]
  00120	03 ce		 add	 ecx, esi
  00122	89 4d f8	 mov	 DWORD PTR _pData$1$[ebp], ecx
  00125	2b df		 sub	 ebx, edi
  00127	75 d7		 jne	 SHORT $LL37@Serialize

; 88   : 		}
; 89   : 	}

  00129	8b 5d fc	 mov	 ebx, DWORD PTR _this$1$[ebp]
  0012c	eb 4a		 jmp	 SHORT $LN40@Serialize
$LN42@Serialize:

; 96   : 		pData = pElements;

  0012e	8d 55 f4	 lea	 edx, DWORD PTR _newData$1[ebp]
  00131	be 01 00 00 00	 mov	 esi, 1
  00136	89 55 f8	 mov	 DWORD PTR _pData$1$[ebp], edx
  00139	0f 1f 80 00 00
	00 00		 npad	 7
$LL39@Serialize:

; 98   : 		{
; 99   : 			UINT nElementsToRead;
; 100  : 
; 101  : 			nElementsToRead = UINT(__min(nElementsLeft, INT_MAX/sizeof(TYPE)));

  00140	bf ff ff ff 1f	 mov	 edi, 536870911		; 1fffffffH
  00145	3b f7		 cmp	 esi, edi
  00147	0f 42 fe	 cmovb	 edi, esi

; 102  : 			ar.EnsureRead(pData, nElementsToRead*sizeof(TYPE));

  0014a	8d 0c bd 00 00
	00 00		 lea	 ecx, DWORD PTR [edi*4]
; File C:\Program Files (x86)\Microsoft Visual Studio\2019\Community\VC\Tools\MSVC\14.29.30133\atlmfc\include\afx.inl

; 399  : 	UINT nRead=Read(lpBuf, nCount);

  00151	51		 push	 ecx
  00152	52		 push	 edx
  00153	8b c8		 mov	 ecx, eax
  00155	e8 00 00 00 00	 call	 ?Read@CArchive@@QAEIPAXI@Z ; CArchive::Read

; 400  : 	if(nRead!=nCount)

  0015a	8d 0c bd 00 00
	00 00		 lea	 ecx, DWORD PTR [edi*4]
  00161	3b c1		 cmp	 eax, ecx
  00163	0f 85 8d 00 00
	00		 jne	 $LN75@Serialize
; File C:\Program Files (x86)\Microsoft Visual Studio\2019\Community\VC\Tools\MSVC\14.29.30133\atlmfc\include\afxtempl.h

; 97   : 		while( nElementsLeft > 0 )

  00169	8b 55 f8	 mov	 edx, DWORD PTR _pData$1$[ebp]
  0016c	8b 45 08	 mov	 eax, DWORD PTR _ar$[ebp]

; 104  : 			pData += nElementsToRead;

  0016f	03 d1		 add	 edx, ecx
  00171	89 55 f8	 mov	 DWORD PTR _pData$1$[ebp], edx
  00174	2b f7		 sub	 esi, edi
  00176	75 c8		 jne	 SHORT $LL39@Serialize
$LN40@Serialize:

; 902  : 	if (m_pNodeFree == NULL)

  00178	83 7b 10 00	 cmp	 DWORD PTR [ebx+16], 0

; 1193 : 		{
; 1194 : 			TYPE newData[1];
; 1195 : 			SerializeElements<TYPE>(ar, newData, 1);
; 1196 : 			AddTail(newData[0]);

  0017c	8b 75 f4	 mov	 esi, DWORD PTR _newData$1[ebp]

; 968  : 	CNode* pNewNode = NewNode(m_pNodeTail, NULL);

  0017f	8b 7b 08	 mov	 edi, DWORD PTR [ebx+8]

; 902  : 	if (m_pNodeFree == NULL)

  00182	75 32		 jne	 SHORT $LN63@Serialize

; 903  : 	{
; 904  : 		// add another block
; 905  : 		CPlex* pNewBlock = CPlex::Create(m_pBlocks, m_nBlockSize,

  00184	6a 0c		 push	 12			; 0000000cH
  00186	ff 73 18	 push	 DWORD PTR [ebx+24]
  00189	8d 43 14	 lea	 eax, DWORD PTR [ebx+20]
  0018c	50		 push	 eax
  0018d	e8 00 00 00 00	 call	 ?Create@CPlex@@SGPAU1@AAPAU1@II@Z ; CPlex::Create

; 906  : 				 sizeof(CNode));
; 907  : 
; 908  : 		// chain them into free list
; 909  : 		CNode* pNode = (CNode*) pNewBlock->data();
; 910  : 		// free in reverse order to make it easier to debug
; 911  : 		pNode += m_nBlockSize - 1;

  00192	8b 53 18	 mov	 edx, DWORD PTR [ebx+24]
  00195	83 c0 08	 add	 eax, 8
  00198	8d 4a ff	 lea	 ecx, DWORD PTR [edx-1]

; 912  : 		for (INT_PTR i = m_nBlockSize-1; i >= 0; i--, pNode--)

  0019b	83 c2 ff	 add	 edx, -1
  0019e	8d 0c 49	 lea	 ecx, DWORD PTR [ecx+ecx*2]
  001a1	8d 0c 88	 lea	 ecx, DWORD PTR [eax+ecx*4]
  001a4	78 10		 js	 SHORT $LN63@Serialize
$LL60@Serialize:

; 913  : 		{
; 914  : 			pNode->pNext = m_pNodeFree;

  001a6	8b 43 10	 mov	 eax, DWORD PTR [ebx+16]
  001a9	89 01		 mov	 DWORD PTR [ecx], eax

; 915  : 			m_pNodeFree = pNode;

  001ab	89 4b 10	 mov	 DWORD PTR [ebx+16], ecx
  001ae	83 e9 0c	 sub	 ecx, 12			; 0000000cH
  001b1	83 ea 01	 sub	 edx, 1
  001b4	79 f0		 jns	 SHORT $LL60@Serialize
$LN63@Serialize:

; 916  : 		}
; 917  : 	}
; 918  : 	ENSURE(m_pNodeFree != NULL);  // we must have something

  001b6	8b 4b 10	 mov	 ecx, DWORD PTR [ebx+16]
  001b9	85 c9		 test	 ecx, ecx
  001bb	74 42		 je	 SHORT $LN76@Serialize

; 919  : 
; 920  : 	CList::CNode* pNode = m_pNodeFree;
; 921  : 	m_pNodeFree = m_pNodeFree->pNext;

  001bd	8b 01		 mov	 eax, DWORD PTR [ecx]
  001bf	89 43 10	 mov	 DWORD PTR [ebx+16], eax

; 922  : 	pNode->pPrev = pPrev;

  001c2	89 79 04	 mov	 DWORD PTR [ecx+4], edi

; 923  : 	pNode->pNext = pNext;

  001c5	c7 01 00 00 00
	00		 mov	 DWORD PTR [ecx], 0

; 924  : 	m_nCount++;

  001cb	ff 43 0c	 inc	 DWORD PTR [ebx+12]

; 969  : 	pNewNode->data = newElement;

  001ce	89 71 08	 mov	 DWORD PTR [ecx+8], esi

; 970  : 	if (m_pNodeTail != NULL)

  001d1	8b 43 08	 mov	 eax, DWORD PTR [ebx+8]
  001d4	85 c0		 test	 eax, eax
  001d6	74 04		 je	 SHORT $LN54@Serialize

; 971  : 		m_pNodeTail->pNext = pNewNode;

  001d8	89 08		 mov	 DWORD PTR [eax], ecx
  001da	eb 03		 jmp	 SHORT $LN55@Serialize
$LN54@Serialize:

; 972  : 	else
; 973  : 		m_pNodeHead = pNewNode;

  001dc	89 4b 04	 mov	 DWORD PTR [ebx+4], ecx
$LN55@Serialize:

; 1192 : 		while (nNewCount--)

  001df	8b 45 f0	 mov	 eax, DWORD PTR _nNewCount$1$[ebp]

; 974  : 	m_pNodeTail = pNewNode;

  001e2	89 4b 08	 mov	 DWORD PTR [ebx+8], ecx

; 1192 : 		while (nNewCount--)

  001e5	85 c0		 test	 eax, eax
  001e7	0f 85 f3 fe ff
	ff		 jne	 $LL5@Serialize
$LN86@Serialize:
  001ed	5f		 pop	 edi

; 1197 : 		}
; 1198 : 	}
; 1199 : }

  001ee	5e		 pop	 esi
  001ef	5b		 pop	 ebx
  001f0	8b e5		 mov	 esp, ebp
  001f2	5d		 pop	 ebp
  001f3	c2 04 00	 ret	 4
$LN75@Serialize:
  001f6	6a 00		 push	 0
  001f8	6a 03		 push	 3
  001fa	e8 00 00 00 00	 call	 ?AfxThrowArchiveException@@YGXHPBD@Z ; AfxThrowArchiveException
$LN76@Serialize:
  001ff	e8 00 00 00 00	 call	 ?AfxThrowInvalidArgException@@YGXXZ ; AfxThrowInvalidArgException
$LN105@Serialize:
  00204	cc		 int	 3
?Serialize@?$CList@PAUIPacket000000@@PAU1@@@UAEXAAVCArchive@@@Z ENDP ; CList<IPacket000000 *,IPacket000000 *>::Serialize
_TEXT	ENDS
; Function compile flags: /Ogtp
; File C:\Program Files (x86)\Microsoft Visual Studio\2019\Community\VC\Tools\MSVC\14.29.30133\atlmfc\include\afxtempl.h
;	COMDAT ??1?$CList@PAUIPacket000000@@PAU1@@@UAE@XZ
_TEXT	SEGMENT
__$EHRec$ = -12						; size = 12
??1?$CList@PAUIPacket000000@@PAU1@@@UAE@XZ PROC		; CList<IPacket000000 *,IPacket000000 *>::~CList<IPacket000000 *,IPacket000000 *>, COMDAT
; _this$ = ecx

; 878  : {

  00000	55		 push	 ebp
  00001	8b ec		 mov	 ebp, esp
  00003	6a ff		 push	 -1
  00005	68 00 00 00 00	 push	 __ehhandler$??1?$CList@PAUIPacket000000@@PAU1@@@UAE@XZ
  0000a	64 a1 00 00 00
	00		 mov	 eax, DWORD PTR fs:0
  00010	50		 push	 eax
  00011	56		 push	 esi
  00012	a1 00 00 00 00	 mov	 eax, DWORD PTR ___security_cookie
  00017	33 c5		 xor	 eax, ebp
  00019	50		 push	 eax
  0001a	8d 45 f4	 lea	 eax, DWORD PTR __$EHRec$[ebp]
  0001d	64 a3 00 00 00
	00		 mov	 DWORD PTR fs:0, eax
  00023	8b f1		 mov	 esi, ecx

; 872  : 	m_pBlocks->FreeDataChain();

  00025	8b 4e 14	 mov	 ecx, DWORD PTR [esi+20]

; 878  : {

  00028	c7 06 00 00 00
	00		 mov	 DWORD PTR [esi], OFFSET ??_7?$CList@PAUIPacket000000@@PAU1@@@6B@

; 870  : 	m_nCount = 0;

  0002e	c7 46 0c 00 00
	00 00		 mov	 DWORD PTR [esi+12], 0

; 871  : 	m_pNodeHead = m_pNodeTail = m_pNodeFree = NULL;

  00035	c7 46 10 00 00
	00 00		 mov	 DWORD PTR [esi+16], 0
  0003c	c7 46 08 00 00
	00 00		 mov	 DWORD PTR [esi+8], 0
  00043	c7 46 04 00 00
	00 00		 mov	 DWORD PTR [esi+4], 0

; 872  : 	m_pBlocks->FreeDataChain();

  0004a	e8 00 00 00 00	 call	 ?FreeDataChain@CPlex@@QAEXXZ ; CPlex::FreeDataChain

; 873  : 	m_pBlocks = NULL;

  0004f	c7 46 14 00 00
	00 00		 mov	 DWORD PTR [esi+20], 0

; 879  : 	RemoveAll();
; 880  : 	ASSERT(m_nCount == 0);
; 881  : }

  00056	8b 4d f4	 mov	 ecx, DWORD PTR __$EHRec$[ebp]
  00059	64 89 0d 00 00
	00 00		 mov	 DWORD PTR fs:0, ecx
  00060	59		 pop	 ecx
  00061	5e		 pop	 esi
  00062	8b e5		 mov	 esp, ebp
  00064	5d		 pop	 ebp
  00065	c3		 ret	 0
  00066	cc		 int	 3
  00067	cc		 int	 3
  00068	cc		 int	 3
  00069	cc		 int	 3
  0006a	cc		 int	 3
_TEXT	ENDS
;	COMDAT text$x
text$x	SEGMENT
__ehhandler$??1?$CList@PAUIPacket000000@@PAU1@@@UAE@XZ:
  00000	90		 npad	 1
  00001	90		 npad	 1
  00002	8b 54 24 08	 mov	 edx, DWORD PTR [esp+8]
  00006	8d 42 0c	 lea	 eax, DWORD PTR [edx+12]
  00009	8b 4a f8	 mov	 ecx, DWORD PTR [edx-8]
  0000c	33 c8		 xor	 ecx, eax
  0000e	e8 00 00 00 00	 call	 @__security_check_cookie@4
  00013	b8 00 00 00 00	 mov	 eax, OFFSET __ehfuncinfo$??1?$CList@PAUIPacket000000@@PAU1@@@UAE@XZ
  00018	e9 00 00 00 00	 jmp	 ___CxxFrameHandler3
text$x	ENDS
??1?$CList@PAUIPacket000000@@PAU1@@@UAE@XZ ENDP		; CList<IPacket000000 *,IPacket000000 *>::~CList<IPacket000000 *,IPacket000000 *>
; Function compile flags: /Ogtp
; File C:\Program Files (x86)\Microsoft Visual Studio\2019\Community\VC\Tools\MSVC\14.29.30133\atlmfc\include\afxtempl.h
;	COMDAT ?FreeNode@?$CList@PAUIPacket000000@@PAU1@@@IAEXPAUCNode@1@@Z
_TEXT	SEGMENT
_pNode$ = 8						; size = 4
?FreeNode@?$CList@PAUIPacket000000@@PAU1@@@IAEXPAUCNode@1@@Z PROC ; CList<IPacket000000 *,IPacket000000 *>::FreeNode, COMDAT
; _this$ = ecx

; 936  : {

  00000	55		 push	 ebp
  00001	8b ec		 mov	 ebp, esp

; 937  : 	pNode->data.~TYPE();
; 938  : 	pNode->pNext = m_pNodeFree;

  00003	8b 55 08	 mov	 edx, DWORD PTR _pNode$[ebp]
  00006	56		 push	 esi
  00007	8b f1		 mov	 esi, ecx
  00009	8b 46 10	 mov	 eax, DWORD PTR [esi+16]
  0000c	89 02		 mov	 DWORD PTR [edx], eax

; 939  : 	m_pNodeFree = pNode;
; 940  : 	m_nCount--;

  0000e	83 46 0c ff	 add	 DWORD PTR [esi+12], -1
  00012	89 56 10	 mov	 DWORD PTR [esi+16], edx

; 941  : 	ASSERT(m_nCount >= 0);  // make sure we don't underflow
; 942  : 
; 943  : 	// if no more elements, cleanup completely
; 944  : 	if (m_nCount == 0)

  00015	75 2b		 jne	 SHORT $LN2@FreeNode

; 872  : 	m_pBlocks->FreeDataChain();

  00017	8b 4e 14	 mov	 ecx, DWORD PTR [esi+20]
  0001a	c7 46 0c 00 00
	00 00		 mov	 DWORD PTR [esi+12], 0
  00021	c7 46 10 00 00
	00 00		 mov	 DWORD PTR [esi+16], 0
  00028	c7 46 08 00 00
	00 00		 mov	 DWORD PTR [esi+8], 0
  0002f	c7 46 04 00 00
	00 00		 mov	 DWORD PTR [esi+4], 0
  00036	e8 00 00 00 00	 call	 ?FreeDataChain@CPlex@@QAEXXZ ; CPlex::FreeDataChain

; 873  : 	m_pBlocks = NULL;

  0003b	c7 46 14 00 00
	00 00		 mov	 DWORD PTR [esi+20], 0
$LN2@FreeNode:
  00042	5e		 pop	 esi

; 945  : 		RemoveAll();
; 946  : }

  00043	5d		 pop	 ebp
  00044	c2 04 00	 ret	 4
?FreeNode@?$CList@PAUIPacket000000@@PAU1@@@IAEXPAUCNode@1@@Z ENDP ; CList<IPacket000000 *,IPacket000000 *>::FreeNode
_TEXT	ENDS
; Function compile flags: /Ogtp
; File C:\Program Files (x86)\Microsoft Visual Studio\2019\Community\VC\Tools\MSVC\14.29.30133\atlmfc\include\afxtempl.h
;	COMDAT ?NewNode@?$CList@PAUIPacket000000@@PAU1@@@IAEPAUCNode@1@PAU21@0@Z
_TEXT	SEGMENT
_pPrev$ = 8						; size = 4
_pNext$ = 12						; size = 4
?NewNode@?$CList@PAUIPacket000000@@PAU1@@@IAEPAUCNode@1@PAU21@0@Z PROC ; CList<IPacket000000 *,IPacket000000 *>::NewNode, COMDAT
; _this$ = ecx

; 901  : {

  00000	55		 push	 ebp
  00001	8b ec		 mov	 ebp, esp
  00003	56		 push	 esi
  00004	8b f1		 mov	 esi, ecx

; 902  : 	if (m_pNodeFree == NULL)

  00006	83 7e 10 00	 cmp	 DWORD PTR [esi+16], 0
  0000a	75 34		 jne	 SHORT $LN7@NewNode

; 903  : 	{
; 904  : 		// add another block
; 905  : 		CPlex* pNewBlock = CPlex::Create(m_pBlocks, m_nBlockSize,

  0000c	6a 0c		 push	 12			; 0000000cH
  0000e	ff 76 18	 push	 DWORD PTR [esi+24]
  00011	8d 46 14	 lea	 eax, DWORD PTR [esi+20]
  00014	50		 push	 eax
  00015	e8 00 00 00 00	 call	 ?Create@CPlex@@SGPAU1@AAPAU1@II@Z ; CPlex::Create

; 906  : 				 sizeof(CNode));
; 907  : 
; 908  : 		// chain them into free list
; 909  : 		CNode* pNode = (CNode*) pNewBlock->data();
; 910  : 		// free in reverse order to make it easier to debug
; 911  : 		pNode += m_nBlockSize - 1;

  0001a	8b 56 18	 mov	 edx, DWORD PTR [esi+24]
  0001d	83 c0 08	 add	 eax, 8
  00020	8d 0c 52	 lea	 ecx, DWORD PTR [edx+edx*2]
  00023	8d 04 88	 lea	 eax, DWORD PTR [eax+ecx*4]
  00026	83 c0 f4	 add	 eax, -12		; fffffff4H

; 912  : 		for (INT_PTR i = m_nBlockSize-1; i >= 0; i--, pNode--)

  00029	83 c2 ff	 add	 edx, -1
  0002c	78 12		 js	 SHORT $LN7@NewNode
  0002e	66 90		 npad	 2
$LL4@NewNode:

; 913  : 		{
; 914  : 			pNode->pNext = m_pNodeFree;

  00030	8b 4e 10	 mov	 ecx, DWORD PTR [esi+16]
  00033	89 08		 mov	 DWORD PTR [eax], ecx

; 915  : 			m_pNodeFree = pNode;

  00035	89 46 10	 mov	 DWORD PTR [esi+16], eax
  00038	83 e8 0c	 sub	 eax, 12			; 0000000cH
  0003b	83 ea 01	 sub	 edx, 1
  0003e	79 f0		 jns	 SHORT $LL4@NewNode
$LN7@NewNode:

; 916  : 		}
; 917  : 	}
; 918  : 	ENSURE(m_pNodeFree != NULL);  // we must have something

  00040	8b 46 10	 mov	 eax, DWORD PTR [esi+16]
  00043	85 c0		 test	 eax, eax
  00045	74 18		 je	 SHORT $LN17@NewNode

; 919  : 
; 920  : 	CList::CNode* pNode = m_pNodeFree;
; 921  : 	m_pNodeFree = m_pNodeFree->pNext;

  00047	8b 08		 mov	 ecx, DWORD PTR [eax]
  00049	89 4e 10	 mov	 DWORD PTR [esi+16], ecx

; 922  : 	pNode->pPrev = pPrev;

  0004c	8b 4d 08	 mov	 ecx, DWORD PTR _pPrev$[ebp]
  0004f	89 48 04	 mov	 DWORD PTR [eax+4], ecx

; 923  : 	pNode->pNext = pNext;

  00052	8b 4d 0c	 mov	 ecx, DWORD PTR _pNext$[ebp]
  00055	89 08		 mov	 DWORD PTR [eax], ecx

; 924  : 	m_nCount++;

  00057	ff 46 0c	 inc	 DWORD PTR [esi+12]

; 925  : 	ASSERT(m_nCount > 0);  // make sure we don't overflow
; 926  : 
; 927  : #pragma push_macro("new")
; 928  : #undef new
; 929  : 	::new( (void*)( &pNode->data ) ) TYPE;
; 930  : #pragma pop_macro("new")
; 931  : 	return pNode;

  0005a	5e		 pop	 esi

; 932  : }

  0005b	5d		 pop	 ebp
  0005c	c2 08 00	 ret	 8
$LN17@NewNode:

; 916  : 		}
; 917  : 	}
; 918  : 	ENSURE(m_pNodeFree != NULL);  // we must have something

  0005f	e8 00 00 00 00	 call	 ?AfxThrowInvalidArgException@@YGXXZ ; AfxThrowInvalidArgException
$LN15@NewNode:
  00064	cc		 int	 3
?NewNode@?$CList@PAUIPacket000000@@PAU1@@@IAEPAUCNode@1@PAU21@0@Z ENDP ; CList<IPacket000000 *,IPacket000000 *>::NewNode
_TEXT	ENDS
; Function compile flags: /Ogtp
; File C:\Program Files (x86)\Microsoft Visual Studio\2019\Community\VC\Tools\MSVC\14.29.30133\atlmfc\include\afxtempl.h
;	COMDAT ?FindIndex@?$CList@PAUIPacket000000@@PAU1@@@QBEPAU__POSITION@@H@Z
_TEXT	SEGMENT
_nIndex$ = 8						; size = 4
?FindIndex@?$CList@PAUIPacket000000@@PAU1@@@QBEPAU__POSITION@@H@Z PROC ; CList<IPacket000000 *,IPacket000000 *>::FindIndex, COMDAT
; _this$ = ecx

; 1130 : {

  00000	55		 push	 ebp
  00001	8b ec		 mov	 ebp, esp

; 1131 : 	ASSERT_VALID(this);
; 1132 : 
; 1133 : 	if (nIndex >= m_nCount || nIndex < 0)

  00003	8b 55 08	 mov	 edx, DWORD PTR _nIndex$[ebp]
  00006	3b 51 0c	 cmp	 edx, DWORD PTR [ecx+12]
  00009	7d 14		 jge	 SHORT $LN5@FindIndex
  0000b	85 d2		 test	 edx, edx
  0000d	78 10		 js	 SHORT $LN5@FindIndex

; 1135 : 
; 1136 : 	CNode* pNode = m_pNodeHead;

  0000f	8b 41 04	 mov	 eax, DWORD PTR [ecx+4]

; 1137 : 	while (nIndex--)

  00012	74 0d		 je	 SHORT $LN1@FindIndex
$LL2@FindIndex:

; 1138 : 	{
; 1139 : 		ASSERT(AfxIsValidAddress(pNode, sizeof(CNode)));
; 1140 : 		pNode = pNode->pNext;

  00014	8b 00		 mov	 eax, DWORD PTR [eax]
  00016	83 ea 01	 sub	 edx, 1
  00019	75 f9		 jne	 SHORT $LL2@FindIndex

; 1141 : 	}
; 1142 : 	return (POSITION) pNode;
; 1143 : }

  0001b	5d		 pop	 ebp
  0001c	c2 04 00	 ret	 4
$LN5@FindIndex:

; 1134 : 		return NULL;  // went too far

  0001f	33 c0		 xor	 eax, eax
$LN1@FindIndex:

; 1141 : 	}
; 1142 : 	return (POSITION) pNode;
; 1143 : }

  00021	5d		 pop	 ebp
  00022	c2 04 00	 ret	 4
?FindIndex@?$CList@PAUIPacket000000@@PAU1@@@QBEPAU__POSITION@@H@Z ENDP ; CList<IPacket000000 *,IPacket000000 *>::FindIndex
_TEXT	ENDS
; Function compile flags: /Ogtp
; File C:\Program Files (x86)\Microsoft Visual Studio\2019\Community\VC\Tools\MSVC\14.29.30133\atlmfc\include\afxtempl.h
;	COMDAT ?Find@?$CList@PAUIPacket000000@@PAU1@@@QBEPAU__POSITION@@PAUIPacket000000@@PAU2@@Z
_TEXT	SEGMENT
_searchValue$ = 8					; size = 4
_startAfter$ = 12					; size = 4
?Find@?$CList@PAUIPacket000000@@PAU1@@@QBEPAU__POSITION@@PAUIPacket000000@@PAU2@@Z PROC ; CList<IPacket000000 *,IPacket000000 *>::Find, COMDAT
; _this$ = ecx

; 1147 : {

  00000	55		 push	 ebp
  00001	8b ec		 mov	 ebp, esp
  00003	8b 45 0c	 mov	 eax, DWORD PTR _startAfter$[ebp]

; 1148 : 	ASSERT_VALID(this);
; 1149 : 
; 1150 : 	CNode* pNode = (CNode*) startAfter;
; 1151 : 	if (pNode == NULL)

  00006	85 c0		 test	 eax, eax
  00008	75 03		 jne	 SHORT $LN6@Find

; 1152 : 	{
; 1153 : 		pNode = m_pNodeHead;  // start at head

  0000a	8d 41 04	 lea	 eax, DWORD PTR [ecx+4]
$LN6@Find:

; 1154 : 	}
; 1155 : 	else
; 1156 : 	{
; 1157 : 		ASSERT(AfxIsValidAddress(pNode, sizeof(CNode)));
; 1158 : 		pNode = pNode->pNext;  // start after the one specified
; 1159 : 	}
; 1160 : 
; 1161 : 	for (; pNode != NULL; pNode = pNode->pNext)

  0000d	8b 00		 mov	 eax, DWORD PTR [eax]
  0000f	85 c0		 test	 eax, eax
  00011	74 14		 je	 SHORT $LN3@Find
  00013	8b 55 08	 mov	 edx, DWORD PTR _searchValue$[ebp]
$LL4@Find:

; 1162 : 		if (CompareElements<TYPE>(&pNode->data, &searchValue))

  00016	8d 48 08	 lea	 ecx, DWORD PTR [eax+8]

; 152  : 	ENSURE(pElement1 != NULL && pElement2 != NULL);

  00019	85 c9		 test	 ecx, ecx
  0001b	74 10		 je	 SHORT $LN19@Find

; 153  : 	ASSERT(AfxIsValidAddress(pElement1, sizeof(TYPE), FALSE));
; 154  : 	ASSERT(AfxIsValidAddress(pElement2, sizeof(ARG_TYPE), FALSE));
; 155  : 
; 156  : 	return *pElement1 == *pElement2;

  0001d	39 11		 cmp	 DWORD PTR [ecx], edx

; 1162 : 		if (CompareElements<TYPE>(&pNode->data, &searchValue))

  0001f	74 08		 je	 SHORT $LN1@Find

; 1154 : 	}
; 1155 : 	else
; 1156 : 	{
; 1157 : 		ASSERT(AfxIsValidAddress(pNode, sizeof(CNode)));
; 1158 : 		pNode = pNode->pNext;  // start after the one specified
; 1159 : 	}
; 1160 : 
; 1161 : 	for (; pNode != NULL; pNode = pNode->pNext)

  00021	8b 00		 mov	 eax, DWORD PTR [eax]
  00023	85 c0		 test	 eax, eax
  00025	75 ef		 jne	 SHORT $LL4@Find
$LN3@Find:

; 1163 : 			return (POSITION)pNode;
; 1164 : 	return NULL;

  00027	33 c0		 xor	 eax, eax
$LN1@Find:

; 1165 : }

  00029	5d		 pop	 ebp
  0002a	c2 08 00	 ret	 8
$LN19@Find:

; 152  : 	ENSURE(pElement1 != NULL && pElement2 != NULL);

  0002d	e8 00 00 00 00	 call	 ?AfxThrowInvalidArgException@@YGXXZ ; AfxThrowInvalidArgException
$LN26@Find:
  00032	cc		 int	 3
?Find@?$CList@PAUIPacket000000@@PAU1@@@QBEPAU__POSITION@@PAUIPacket000000@@PAU2@@Z ENDP ; CList<IPacket000000 *,IPacket000000 *>::Find
_TEXT	ENDS
; Function compile flags: /Ogtp
; File C:\Program Files (x86)\Microsoft Visual Studio\2019\Community\VC\Tools\MSVC\14.29.30133\atlmfc\include\afxtempl.h
;	COMDAT ?InsertAfter@?$CList@PAUIPacket000000@@PAU1@@@QAEPAU__POSITION@@PAU2@PAUIPacket000000@@@Z
_TEXT	SEGMENT
_position$ = 8						; size = 4
_newElement$ = 12					; size = 4
?InsertAfter@?$CList@PAUIPacket000000@@PAU1@@@QAEPAU__POSITION@@PAU2@PAUIPacket000000@@@Z PROC ; CList<IPacket000000 *,IPacket000000 *>::InsertAfter, COMDAT
; _this$ = ecx

; 1072 : {

  00000	55		 push	 ebp
  00001	8b ec		 mov	 ebp, esp
  00003	56		 push	 esi
  00004	57		 push	 edi

; 1073 : 	ASSERT_VALID(this);
; 1074 : 
; 1075 : 	if (position == NULL)

  00005	8b 7d 08	 mov	 edi, DWORD PTR _position$[ebp]
  00008	8b f1		 mov	 esi, ecx
  0000a	85 ff		 test	 edi, edi
  0000c	75 2d		 jne	 SHORT $LN2@InsertAfte

; 968  : 	CNode* pNewNode = NewNode(m_pNodeTail, NULL);

  0000e	57		 push	 edi
  0000f	ff 76 08	 push	 DWORD PTR [esi+8]
  00012	e8 00 00 00 00	 call	 ?NewNode@?$CList@PAUIPacket000000@@PAU1@@@IAEPAUCNode@1@PAU21@0@Z ; CList<IPacket000000 *,IPacket000000 *>::NewNode

; 969  : 	pNewNode->data = newElement;

  00017	8b 4d 0c	 mov	 ecx, DWORD PTR _newElement$[ebp]
  0001a	89 48 08	 mov	 DWORD PTR [eax+8], ecx

; 970  : 	if (m_pNodeTail != NULL)

  0001d	8b 4e 08	 mov	 ecx, DWORD PTR [esi+8]
  00020	85 c9		 test	 ecx, ecx
  00022	74 0b		 je	 SHORT $LN7@InsertAfte

; 971  : 		m_pNodeTail->pNext = pNewNode;

  00024	89 01		 mov	 DWORD PTR [ecx], eax
  00026	5f		 pop	 edi

; 974  : 	m_pNodeTail = pNewNode;

  00027	89 46 08	 mov	 DWORD PTR [esi+8], eax

; 1095 : 	return (POSITION) pNewNode;
; 1096 : }

  0002a	5e		 pop	 esi
  0002b	5d		 pop	 ebp
  0002c	c2 08 00	 ret	 8
$LN7@InsertAfte:
  0002f	5f		 pop	 edi

; 973  : 		m_pNodeHead = pNewNode;

  00030	89 46 04	 mov	 DWORD PTR [esi+4], eax

; 974  : 	m_pNodeTail = pNewNode;

  00033	89 46 08	 mov	 DWORD PTR [esi+8], eax

; 1095 : 	return (POSITION) pNewNode;
; 1096 : }

  00036	5e		 pop	 esi
  00037	5d		 pop	 ebp
  00038	c2 08 00	 ret	 8
$LN2@InsertAfte:

; 1076 : 		return AddTail(newElement); // insert after nothing -> tail of the list
; 1077 : 
; 1078 : 	// Insert it before position
; 1079 : 	CNode* pOldNode = (CNode*) position;
; 1080 : 	ASSERT(AfxIsValidAddress(pOldNode, sizeof(CNode)));
; 1081 : 	CNode* pNewNode = NewNode(pOldNode, pOldNode->pNext);

  0003b	ff 37		 push	 DWORD PTR [edi]
  0003d	57		 push	 edi
  0003e	e8 00 00 00 00	 call	 ?NewNode@?$CList@PAUIPacket000000@@PAU1@@@IAEPAUCNode@1@PAU21@0@Z ; CList<IPacket000000 *,IPacket000000 *>::NewNode

; 1082 : 	pNewNode->data = newElement;

  00043	8b 4d 0c	 mov	 ecx, DWORD PTR _newElement$[ebp]
  00046	89 48 08	 mov	 DWORD PTR [eax+8], ecx

; 1083 : 
; 1084 : 	if (pOldNode->pNext != NULL)

  00049	8b 0f		 mov	 ecx, DWORD PTR [edi]
  0004b	85 c9		 test	 ecx, ecx
  0004d	74 0b		 je	 SHORT $LN3@InsertAfte

; 1085 : 	{
; 1086 : 		ASSERT(AfxIsValidAddress(pOldNode->pNext, sizeof(CNode)));
; 1087 : 		pOldNode->pNext->pPrev = pNewNode;

  0004f	89 41 04	 mov	 DWORD PTR [ecx+4], eax

; 1093 : 	}
; 1094 : 	pOldNode->pNext = pNewNode;

  00052	89 07		 mov	 DWORD PTR [edi], eax
  00054	5f		 pop	 edi

; 1095 : 	return (POSITION) pNewNode;
; 1096 : }

  00055	5e		 pop	 esi
  00056	5d		 pop	 ebp
  00057	c2 08 00	 ret	 8
$LN3@InsertAfte:

; 1088 : 	}
; 1089 : 	else
; 1090 : 	{
; 1091 : 		ASSERT(pOldNode == m_pNodeTail);
; 1092 : 		m_pNodeTail = pNewNode;

  0005a	89 46 08	 mov	 DWORD PTR [esi+8], eax

; 1093 : 	}
; 1094 : 	pOldNode->pNext = pNewNode;

  0005d	89 07		 mov	 DWORD PTR [edi], eax
  0005f	5f		 pop	 edi

; 1095 : 	return (POSITION) pNewNode;
; 1096 : }

  00060	5e		 pop	 esi
  00061	5d		 pop	 ebp
  00062	c2 08 00	 ret	 8
?InsertAfter@?$CList@PAUIPacket000000@@PAU1@@@QAEPAU__POSITION@@PAU2@PAUIPacket000000@@@Z ENDP ; CList<IPacket000000 *,IPacket000000 *>::InsertAfter
_TEXT	ENDS
; Function compile flags: /Ogtp
; File C:\Program Files (x86)\Microsoft Visual Studio\2019\Community\VC\Tools\MSVC\14.29.30133\atlmfc\include\afxtempl.h
;	COMDAT ?InsertBefore@?$CList@PAUIPacket000000@@PAU1@@@QAEPAU__POSITION@@PAU2@PAUIPacket000000@@@Z
_TEXT	SEGMENT
_position$ = 8						; size = 4
_newElement$ = 12					; size = 4
?InsertBefore@?$CList@PAUIPacket000000@@PAU1@@@QAEPAU__POSITION@@PAU2@PAUIPacket000000@@@Z PROC ; CList<IPacket000000 *,IPacket000000 *>::InsertBefore, COMDAT
; _this$ = ecx

; 1045 : {

  00000	55		 push	 ebp
  00001	8b ec		 mov	 ebp, esp
  00003	56		 push	 esi
  00004	57		 push	 edi

; 1046 : 	ASSERT_VALID(this);
; 1047 : 
; 1048 : 	if (position == NULL)

  00005	8b 7d 08	 mov	 edi, DWORD PTR _position$[ebp]
  00008	8b f1		 mov	 esi, ecx
  0000a	85 ff		 test	 edi, edi
  0000c	75 2e		 jne	 SHORT $LN2@InsertBefo

; 953  : 	CNode* pNewNode = NewNode(NULL, m_pNodeHead);

  0000e	ff 76 04	 push	 DWORD PTR [esi+4]
  00011	57		 push	 edi
  00012	e8 00 00 00 00	 call	 ?NewNode@?$CList@PAUIPacket000000@@PAU1@@@IAEPAUCNode@1@PAU21@0@Z ; CList<IPacket000000 *,IPacket000000 *>::NewNode

; 954  : 	pNewNode->data = newElement;

  00017	8b 4d 0c	 mov	 ecx, DWORD PTR _newElement$[ebp]
  0001a	89 48 08	 mov	 DWORD PTR [eax+8], ecx

; 955  : 	if (m_pNodeHead != NULL)

  0001d	8b 4e 04	 mov	 ecx, DWORD PTR [esi+4]
  00020	85 c9		 test	 ecx, ecx
  00022	74 0c		 je	 SHORT $LN7@InsertBefo

; 956  : 		m_pNodeHead->pPrev = pNewNode;

  00024	89 41 04	 mov	 DWORD PTR [ecx+4], eax
  00027	5f		 pop	 edi

; 959  : 	m_pNodeHead = pNewNode;

  00028	89 46 04	 mov	 DWORD PTR [esi+4], eax

; 1067 : 	return (POSITION) pNewNode;
; 1068 : }

  0002b	5e		 pop	 esi
  0002c	5d		 pop	 ebp
  0002d	c2 08 00	 ret	 8
$LN7@InsertBefo:
  00030	5f		 pop	 edi

; 958  : 		m_pNodeTail = pNewNode;

  00031	89 46 08	 mov	 DWORD PTR [esi+8], eax

; 959  : 	m_pNodeHead = pNewNode;

  00034	89 46 04	 mov	 DWORD PTR [esi+4], eax

; 1067 : 	return (POSITION) pNewNode;
; 1068 : }

  00037	5e		 pop	 esi
  00038	5d		 pop	 ebp
  00039	c2 08 00	 ret	 8
$LN2@InsertBefo:

; 1049 : 		return AddHead(newElement); // insert before nothing -> head of the list
; 1050 : 
; 1051 : 	// Insert it before position
; 1052 : 	CNode* pOldNode = (CNode*) position;
; 1053 : 	CNode* pNewNode = NewNode(pOldNode->pPrev, pOldNode);

  0003c	57		 push	 edi
  0003d	ff 77 04	 push	 DWORD PTR [edi+4]
  00040	e8 00 00 00 00	 call	 ?NewNode@?$CList@PAUIPacket000000@@PAU1@@@IAEPAUCNode@1@PAU21@0@Z ; CList<IPacket000000 *,IPacket000000 *>::NewNode

; 1054 : 	pNewNode->data = newElement;

  00045	8b 4d 0c	 mov	 ecx, DWORD PTR _newElement$[ebp]
  00048	89 48 08	 mov	 DWORD PTR [eax+8], ecx

; 1055 : 
; 1056 : 	if (pOldNode->pPrev != NULL)

  0004b	8b 4f 04	 mov	 ecx, DWORD PTR [edi+4]
  0004e	85 c9		 test	 ecx, ecx
  00050	74 0b		 je	 SHORT $LN3@InsertBefo

; 1057 : 	{
; 1058 : 		ASSERT(AfxIsValidAddress(pOldNode->pPrev, sizeof(CNode)));
; 1059 : 		pOldNode->pPrev->pNext = pNewNode;

  00052	89 01		 mov	 DWORD PTR [ecx], eax

; 1065 : 	}
; 1066 : 	pOldNode->pPrev = pNewNode;

  00054	89 47 04	 mov	 DWORD PTR [edi+4], eax
  00057	5f		 pop	 edi

; 1067 : 	return (POSITION) pNewNode;
; 1068 : }

  00058	5e		 pop	 esi
  00059	5d		 pop	 ebp
  0005a	c2 08 00	 ret	 8
$LN3@InsertBefo:

; 1060 : 	}
; 1061 : 	else
; 1062 : 	{
; 1063 : 		ASSERT(pOldNode == m_pNodeHead);
; 1064 : 		m_pNodeHead = pNewNode;

  0005d	89 46 04	 mov	 DWORD PTR [esi+4], eax

; 1065 : 	}
; 1066 : 	pOldNode->pPrev = pNewNode;

  00060	89 47 04	 mov	 DWORD PTR [edi+4], eax
  00063	5f		 pop	 edi

; 1067 : 	return (POSITION) pNewNode;
; 1068 : }

  00064	5e		 pop	 esi
  00065	5d		 pop	 ebp
  00066	c2 08 00	 ret	 8
?InsertBefore@?$CList@PAUIPacket000000@@PAU1@@@QAEPAU__POSITION@@PAU2@PAUIPacket000000@@@Z ENDP ; CList<IPacket000000 *,IPacket000000 *>::InsertBefore
_TEXT	ENDS
; Function compile flags: /Ogtp
; File C:\Program Files (x86)\Microsoft Visual Studio\2019\Community\VC\Tools\MSVC\14.29.30133\atlmfc\include\afxtempl.h
;	COMDAT ?RemoveAt@?$CList@PAUIPacket000000@@PAU1@@@QAEXPAU__POSITION@@@Z
_TEXT	SEGMENT
_position$ = 8						; size = 4
?RemoveAt@?$CList@PAUIPacket000000@@PAU1@@@QAEXPAU__POSITION@@@Z PROC ; CList<IPacket000000 *,IPacket000000 *>::RemoveAt, COMDAT
; _this$ = ecx

; 1100 : {

  00000	55		 push	 ebp
  00001	8b ec		 mov	 ebp, esp
  00003	56		 push	 esi
  00004	8b f1		 mov	 esi, ecx

; 1101 : 	ASSERT_VALID(this);
; 1102 : 
; 1103 : 	CNode* pOldNode = (CNode*) position;
; 1104 : 	ASSERT(AfxIsValidAddress(pOldNode, sizeof(CNode)));
; 1105 : 
; 1106 : 	// remove pOldNode from list
; 1107 : 	if (pOldNode == m_pNodeHead)

  00006	8b 4d 08	 mov	 ecx, DWORD PTR _position$[ebp]
  00009	8b 11		 mov	 edx, DWORD PTR [ecx]
  0000b	3b 4e 04	 cmp	 ecx, DWORD PTR [esi+4]
  0000e	75 05		 jne	 SHORT $LN2@RemoveAt

; 1108 : 	{
; 1109 : 		m_pNodeHead = pOldNode->pNext;

  00010	89 56 04	 mov	 DWORD PTR [esi+4], edx

; 1110 : 	}

  00013	eb 05		 jmp	 SHORT $LN3@RemoveAt
$LN2@RemoveAt:

; 1111 : 	else
; 1112 : 	{
; 1113 : 		ASSERT(AfxIsValidAddress(pOldNode->pPrev, sizeof(CNode)));
; 1114 : 		pOldNode->pPrev->pNext = pOldNode->pNext;

  00015	8b 41 04	 mov	 eax, DWORD PTR [ecx+4]
  00018	89 10		 mov	 DWORD PTR [eax], edx
$LN3@RemoveAt:

; 1115 : 	}
; 1116 : 	if (pOldNode == m_pNodeTail)

  0001a	8b 51 04	 mov	 edx, DWORD PTR [ecx+4]
  0001d	3b 4e 08	 cmp	 ecx, DWORD PTR [esi+8]
  00020	75 05		 jne	 SHORT $LN4@RemoveAt

; 1117 : 	{
; 1118 : 		m_pNodeTail = pOldNode->pPrev;

  00022	89 56 08	 mov	 DWORD PTR [esi+8], edx

; 1119 : 	}

  00025	eb 05		 jmp	 SHORT $LN5@RemoveAt
$LN4@RemoveAt:

; 1120 : 	else
; 1121 : 	{
; 1122 : 		ASSERT(AfxIsValidAddress(pOldNode->pNext, sizeof(CNode)));
; 1123 : 		pOldNode->pNext->pPrev = pOldNode->pPrev;

  00027	8b 01		 mov	 eax, DWORD PTR [ecx]
  00029	89 50 04	 mov	 DWORD PTR [eax+4], edx
$LN5@RemoveAt:

; 938  : 	pNode->pNext = m_pNodeFree;

  0002c	8b 46 10	 mov	 eax, DWORD PTR [esi+16]
  0002f	89 01		 mov	 DWORD PTR [ecx], eax

; 939  : 	m_pNodeFree = pNode;
; 940  : 	m_nCount--;

  00031	83 46 0c ff	 add	 DWORD PTR [esi+12], -1
  00035	89 4e 10	 mov	 DWORD PTR [esi+16], ecx

; 941  : 	ASSERT(m_nCount >= 0);  // make sure we don't underflow
; 942  : 
; 943  : 	// if no more elements, cleanup completely
; 944  : 	if (m_nCount == 0)

  00038	75 2b		 jne	 SHORT $LN8@RemoveAt

; 872  : 	m_pBlocks->FreeDataChain();

  0003a	8b 4e 14	 mov	 ecx, DWORD PTR [esi+20]
  0003d	c7 46 0c 00 00
	00 00		 mov	 DWORD PTR [esi+12], 0
  00044	c7 46 10 00 00
	00 00		 mov	 DWORD PTR [esi+16], 0
  0004b	c7 46 08 00 00
	00 00		 mov	 DWORD PTR [esi+8], 0
  00052	c7 46 04 00 00
	00 00		 mov	 DWORD PTR [esi+4], 0
  00059	e8 00 00 00 00	 call	 ?FreeDataChain@CPlex@@QAEXXZ ; CPlex::FreeDataChain

; 873  : 	m_pBlocks = NULL;

  0005e	c7 46 14 00 00
	00 00		 mov	 DWORD PTR [esi+20], 0
$LN8@RemoveAt:
  00065	5e		 pop	 esi

; 1124 : 	}
; 1125 : 	FreeNode(pOldNode);
; 1126 : }

  00066	5d		 pop	 ebp
  00067	c2 04 00	 ret	 4
?RemoveAt@?$CList@PAUIPacket000000@@PAU1@@@QAEXPAU__POSITION@@@Z ENDP ; CList<IPacket000000 *,IPacket000000 *>::RemoveAt
_TEXT	ENDS
; Function compile flags: /Ogtp
; File C:\Program Files (x86)\Microsoft Visual Studio\2019\Community\VC\Tools\MSVC\14.29.30133\atlmfc\include\afxtempl.h
;	COMDAT ?RemoveAll@?$CList@PAUIPacket000000@@PAU1@@@QAEXXZ
_TEXT	SEGMENT
?RemoveAll@?$CList@PAUIPacket000000@@PAU1@@@QAEXXZ PROC	; CList<IPacket000000 *,IPacket000000 *>::RemoveAll, COMDAT
; _this$ = ecx

; 862  : {

  00000	56		 push	 esi
  00001	8b f1		 mov	 esi, ecx

; 863  : 	ASSERT_VALID(this);
; 864  : 
; 865  : 	// destroy elements
; 866  : 	CNode* pNode;
; 867  : 	for (pNode = m_pNodeHead; pNode != NULL; pNode = pNode->pNext)
; 868  : 		pNode->data.~TYPE();
; 869  : 
; 870  : 	m_nCount = 0;
; 871  : 	m_pNodeHead = m_pNodeTail = m_pNodeFree = NULL;
; 872  : 	m_pBlocks->FreeDataChain();

  00003	8b 4e 14	 mov	 ecx, DWORD PTR [esi+20]
  00006	c7 46 0c 00 00
	00 00		 mov	 DWORD PTR [esi+12], 0
  0000d	c7 46 10 00 00
	00 00		 mov	 DWORD PTR [esi+16], 0
  00014	c7 46 08 00 00
	00 00		 mov	 DWORD PTR [esi+8], 0
  0001b	c7 46 04 00 00
	00 00		 mov	 DWORD PTR [esi+4], 0
  00022	e8 00 00 00 00	 call	 ?FreeDataChain@CPlex@@QAEXXZ ; CPlex::FreeDataChain

; 873  : 	m_pBlocks = NULL;

  00027	c7 46 14 00 00
	00 00		 mov	 DWORD PTR [esi+20], 0
  0002e	5e		 pop	 esi

; 874  : }

  0002f	c3		 ret	 0
?RemoveAll@?$CList@PAUIPacket000000@@PAU1@@@QAEXXZ ENDP	; CList<IPacket000000 *,IPacket000000 *>::RemoveAll
_TEXT	ENDS
; Function compile flags: /Ogtp
; File C:\Program Files (x86)\Microsoft Visual Studio\2019\Community\VC\Tools\MSVC\14.29.30133\atlmfc\include\afxtempl.h
;	COMDAT ?AddTail@?$CList@PAUIPacket000000@@PAU1@@@QAEXPAV1@@Z
_TEXT	SEGMENT
_newElement$1$ = -4					; size = 4
$T1 = 8							; size = 4
_pNewList$ = 8						; size = 4
?AddTail@?$CList@PAUIPacket000000@@PAU1@@@QAEXPAV1@@Z PROC ; CList<IPacket000000 *,IPacket000000 *>::AddTail, COMDAT
; _this$ = ecx

; 994  : {

  00000	55		 push	 ebp
  00001	8b ec		 mov	 ebp, esp
  00003	51		 push	 ecx
  00004	53		 push	 ebx

; 995  : 	ASSERT_VALID(this);
; 996  : 	ENSURE(pNewList != NULL);

  00005	8b 5d 08	 mov	 ebx, DWORD PTR _pNewList$[ebp]
  00008	56		 push	 esi
  00009	8b f1		 mov	 esi, ecx
  0000b	85 db		 test	 ebx, ebx
  0000d	0f 84 a1 00 00
	00		 je	 $LN29@AddTail

; 997  : 	ASSERT_VALID(pNewList);
; 998  : 
; 999  : 	// add a list of same elements
; 1000 : 	POSITION pos = pNewList->GetHeadPosition();

  00013	8b 5b 04	 mov	 ebx, DWORD PTR [ebx+4]

; 1001 : 	while (pos != NULL)

  00016	85 db		 test	 ebx, ebx
  00018	0f 84 8e 00 00
	00		 je	 $LN39@AddTail
  0001e	8b 4e 08	 mov	 ecx, DWORD PTR [esi+8]
  00021	89 4d 08	 mov	 DWORD PTR $T1[ebp], ecx
  00024	57		 push	 edi
$LL5@AddTail:

; 1002 : 		AddTail(pNewList->GetNext(pos));

  00025	8b 43 08	 mov	 eax, DWORD PTR [ebx+8]

; 902  : 	if (m_pNodeFree == NULL)

  00028	8b 56 10	 mov	 edx, DWORD PTR [esi+16]

; 813  : 		rPosition = (POSITION) pNode->pNext;

  0002b	8b 1b		 mov	 ebx, DWORD PTR [ebx]

; 1002 : 		AddTail(pNewList->GetNext(pos));

  0002d	89 45 fc	 mov	 DWORD PTR _newElement$1$[ebp], eax

; 902  : 	if (m_pNodeFree == NULL)

  00030	85 d2		 test	 edx, edx
  00032	75 42		 jne	 SHORT $LN37@AddTail

; 903  : 	{
; 904  : 		// add another block
; 905  : 		CPlex* pNewBlock = CPlex::Create(m_pBlocks, m_nBlockSize,

  00034	6a 0c		 push	 12			; 0000000cH
  00036	ff 76 18	 push	 DWORD PTR [esi+24]
  00039	8d 46 14	 lea	 eax, DWORD PTR [esi+20]
  0003c	50		 push	 eax
  0003d	e8 00 00 00 00	 call	 ?Create@CPlex@@SGPAU1@AAPAU1@II@Z ; CPlex::Create

; 906  : 				 sizeof(CNode));
; 907  : 
; 908  : 		// chain them into free list
; 909  : 		CNode* pNode = (CNode*) pNewBlock->data();
; 910  : 		// free in reverse order to make it easier to debug
; 911  : 		pNode += m_nBlockSize - 1;

  00042	8b 56 18	 mov	 edx, DWORD PTR [esi+24]
  00045	83 c0 08	 add	 eax, 8
  00048	8d 0c 52	 lea	 ecx, DWORD PTR [edx+edx*2]
  0004b	8d 04 88	 lea	 eax, DWORD PTR [eax+ecx*4]

; 912  : 		for (INT_PTR i = m_nBlockSize-1; i >= 0; i--, pNode--)

  0004e	8d 7a ff	 lea	 edi, DWORD PTR [edx-1]
  00051	83 c0 f4	 add	 eax, -12		; fffffff4H
  00054	85 ff		 test	 edi, edi
  00056	78 14		 js	 SHORT $LN38@AddTail
$LL18@AddTail:

; 913  : 		{
; 914  : 			pNode->pNext = m_pNodeFree;

  00058	8b 4e 10	 mov	 ecx, DWORD PTR [esi+16]
  0005b	8b d0		 mov	 edx, eax
  0005d	89 08		 mov	 DWORD PTR [eax], ecx

; 915  : 			m_pNodeFree = pNode;

  0005f	89 46 10	 mov	 DWORD PTR [esi+16], eax
  00062	83 e8 0c	 sub	 eax, 12			; 0000000cH
  00065	83 ef 01	 sub	 edi, 1
  00068	79 ee		 jns	 SHORT $LL18@AddTail
  0006a	eb 03		 jmp	 SHORT $LN21@AddTail
$LN38@AddTail:
  0006c	8b 56 10	 mov	 edx, DWORD PTR [esi+16]
$LN21@AddTail:

; 916  : 		}
; 917  : 	}
; 918  : 	ENSURE(m_pNodeFree != NULL);  // we must have something

  0006f	85 d2		 test	 edx, edx
  00071	74 41		 je	 SHORT $LN29@AddTail
  00073	8b 4d 08	 mov	 ecx, DWORD PTR $T1[ebp]
$LN37@AddTail:

; 919  : 
; 920  : 	CList::CNode* pNode = m_pNodeFree;
; 921  : 	m_pNodeFree = m_pNodeFree->pNext;

  00076	8b 02		 mov	 eax, DWORD PTR [edx]
  00078	89 46 10	 mov	 DWORD PTR [esi+16], eax

; 969  : 	pNewNode->data = newElement;

  0007b	8b 45 fc	 mov	 eax, DWORD PTR _newElement$1$[ebp]

; 922  : 	pNode->pPrev = pPrev;

  0007e	89 4a 04	 mov	 DWORD PTR [edx+4], ecx

; 923  : 	pNode->pNext = pNext;

  00081	c7 02 00 00 00
	00		 mov	 DWORD PTR [edx], 0

; 924  : 	m_nCount++;

  00087	ff 46 0c	 inc	 DWORD PTR [esi+12]

; 969  : 	pNewNode->data = newElement;

  0008a	89 42 08	 mov	 DWORD PTR [edx+8], eax

; 970  : 	if (m_pNodeTail != NULL)

  0008d	8b 46 08	 mov	 eax, DWORD PTR [esi+8]
  00090	85 c0		 test	 eax, eax
  00092	74 04		 je	 SHORT $LN12@AddTail

; 971  : 		m_pNodeTail->pNext = pNewNode;

  00094	89 10		 mov	 DWORD PTR [eax], edx
  00096	eb 03		 jmp	 SHORT $LN13@AddTail
$LN12@AddTail:

; 972  : 	else
; 973  : 		m_pNodeHead = pNewNode;

  00098	89 56 04	 mov	 DWORD PTR [esi+4], edx
$LN13@AddTail:

; 974  : 	m_pNodeTail = pNewNode;

  0009b	89 56 08	 mov	 DWORD PTR [esi+8], edx
  0009e	8b ca		 mov	 ecx, edx
  000a0	89 4d 08	 mov	 DWORD PTR $T1[ebp], ecx

; 1001 : 	while (pos != NULL)

  000a3	85 db		 test	 ebx, ebx
  000a5	0f 85 7a ff ff
	ff		 jne	 $LL5@AddTail
  000ab	5f		 pop	 edi
$LN39@AddTail:
  000ac	5e		 pop	 esi

; 1003 : }

  000ad	5b		 pop	 ebx
  000ae	8b e5		 mov	 esp, ebp
  000b0	5d		 pop	 ebp
  000b1	c2 04 00	 ret	 4
$LN29@AddTail:

; 918  : 	ENSURE(m_pNodeFree != NULL);  // we must have something

  000b4	e8 00 00 00 00	 call	 ?AfxThrowInvalidArgException@@YGXXZ ; AfxThrowInvalidArgException
$LN41@AddTail:
  000b9	cc		 int	 3
?AddTail@?$CList@PAUIPacket000000@@PAU1@@@QAEXPAV1@@Z ENDP ; CList<IPacket000000 *,IPacket000000 *>::AddTail
_TEXT	ENDS
; Function compile flags: /Ogtp
; File C:\Program Files (x86)\Microsoft Visual Studio\2019\Community\VC\Tools\MSVC\14.29.30133\atlmfc\include\afxtempl.h
;	COMDAT ?AddHead@?$CList@PAUIPacket000000@@PAU1@@@QAEXPAV1@@Z
_TEXT	SEGMENT
_newElement$1$ = -4					; size = 4
$T1 = 8							; size = 4
_pNewList$ = 8						; size = 4
?AddHead@?$CList@PAUIPacket000000@@PAU1@@@QAEXPAV1@@Z PROC ; CList<IPacket000000 *,IPacket000000 *>::AddHead, COMDAT
; _this$ = ecx

; 980  : {

  00000	55		 push	 ebp
  00001	8b ec		 mov	 ebp, esp
  00003	51		 push	 ecx
  00004	53		 push	 ebx

; 981  : 	ASSERT_VALID(this);
; 982  : 
; 983  : 	ENSURE(pNewList != NULL);

  00005	8b 5d 08	 mov	 ebx, DWORD PTR _pNewList$[ebp]
  00008	56		 push	 esi
  00009	8b f1		 mov	 esi, ecx
  0000b	85 db		 test	 ebx, ebx
  0000d	0f 84 aa 00 00
	00		 je	 $LN29@AddHead

; 984  : 	ASSERT_VALID(pNewList);
; 985  : 
; 986  : 	// add a list of same elements to head (maintain order)
; 987  : 	POSITION pos = pNewList->GetTailPosition();

  00013	8b 5b 08	 mov	 ebx, DWORD PTR [ebx+8]

; 988  : 	while (pos != NULL)

  00016	85 db		 test	 ebx, ebx
  00018	0f 84 97 00 00
	00		 je	 $LN39@AddHead
  0001e	8b 4e 04	 mov	 ecx, DWORD PTR [esi+4]
  00021	89 4d 08	 mov	 DWORD PTR $T1[ebp], ecx
  00024	57		 push	 edi
$LL5@AddHead:

; 989  : 		AddHead(pNewList->GetPrev(pos));

  00025	8b 43 08	 mov	 eax, DWORD PTR [ebx+8]

; 902  : 	if (m_pNodeFree == NULL)

  00028	8b 56 10	 mov	 edx, DWORD PTR [esi+16]

; 825  : 		rPosition = (POSITION) pNode->pPrev;

  0002b	8b 5b 04	 mov	 ebx, DWORD PTR [ebx+4]

; 989  : 		AddHead(pNewList->GetPrev(pos));

  0002e	89 45 fc	 mov	 DWORD PTR _newElement$1$[ebp], eax

; 902  : 	if (m_pNodeFree == NULL)

  00031	85 d2		 test	 edx, edx
  00033	75 49		 jne	 SHORT $LN37@AddHead

; 903  : 	{
; 904  : 		// add another block
; 905  : 		CPlex* pNewBlock = CPlex::Create(m_pBlocks, m_nBlockSize,

  00035	6a 0c		 push	 12			; 0000000cH
  00037	ff 76 18	 push	 DWORD PTR [esi+24]
  0003a	8d 46 14	 lea	 eax, DWORD PTR [esi+20]
  0003d	50		 push	 eax
  0003e	e8 00 00 00 00	 call	 ?Create@CPlex@@SGPAU1@AAPAU1@II@Z ; CPlex::Create

; 906  : 				 sizeof(CNode));
; 907  : 
; 908  : 		// chain them into free list
; 909  : 		CNode* pNode = (CNode*) pNewBlock->data();
; 910  : 		// free in reverse order to make it easier to debug
; 911  : 		pNode += m_nBlockSize - 1;

  00043	8b 56 18	 mov	 edx, DWORD PTR [esi+24]
  00046	83 c0 08	 add	 eax, 8
  00049	8d 0c 52	 lea	 ecx, DWORD PTR [edx+edx*2]
  0004c	8d 04 88	 lea	 eax, DWORD PTR [eax+ecx*4]

; 912  : 		for (INT_PTR i = m_nBlockSize-1; i >= 0; i--, pNode--)

  0004f	8d 7a ff	 lea	 edi, DWORD PTR [edx-1]
  00052	83 c0 f4	 add	 eax, -12		; fffffff4H
  00055	85 ff		 test	 edi, edi
  00057	78 1b		 js	 SHORT $LN38@AddHead
  00059	0f 1f 80 00 00
	00 00		 npad	 7
$LL18@AddHead:

; 913  : 		{
; 914  : 			pNode->pNext = m_pNodeFree;

  00060	8b 4e 10	 mov	 ecx, DWORD PTR [esi+16]
  00063	8b d0		 mov	 edx, eax
  00065	89 08		 mov	 DWORD PTR [eax], ecx

; 915  : 			m_pNodeFree = pNode;

  00067	89 46 10	 mov	 DWORD PTR [esi+16], eax
  0006a	83 e8 0c	 sub	 eax, 12			; 0000000cH
  0006d	83 ef 01	 sub	 edi, 1
  00070	79 ee		 jns	 SHORT $LL18@AddHead
  00072	eb 03		 jmp	 SHORT $LN21@AddHead
$LN38@AddHead:
  00074	8b 56 10	 mov	 edx, DWORD PTR [esi+16]
$LN21@AddHead:

; 916  : 		}
; 917  : 	}
; 918  : 	ENSURE(m_pNodeFree != NULL);  // we must have something

  00077	85 d2		 test	 edx, edx
  00079	74 42		 je	 SHORT $LN29@AddHead
  0007b	8b 4d 08	 mov	 ecx, DWORD PTR $T1[ebp]
$LN37@AddHead:

; 919  : 
; 920  : 	CList::CNode* pNode = m_pNodeFree;
; 921  : 	m_pNodeFree = m_pNodeFree->pNext;

  0007e	8b 02		 mov	 eax, DWORD PTR [edx]
  00080	89 46 10	 mov	 DWORD PTR [esi+16], eax

; 954  : 	pNewNode->data = newElement;

  00083	8b 45 fc	 mov	 eax, DWORD PTR _newElement$1$[ebp]

; 922  : 	pNode->pPrev = pPrev;

  00086	c7 42 04 00 00
	00 00		 mov	 DWORD PTR [edx+4], 0

; 923  : 	pNode->pNext = pNext;

  0008d	89 0a		 mov	 DWORD PTR [edx], ecx

; 924  : 	m_nCount++;

  0008f	ff 46 0c	 inc	 DWORD PTR [esi+12]

; 954  : 	pNewNode->data = newElement;

  00092	89 42 08	 mov	 DWORD PTR [edx+8], eax

; 955  : 	if (m_pNodeHead != NULL)

  00095	8b 46 04	 mov	 eax, DWORD PTR [esi+4]
  00098	85 c0		 test	 eax, eax
  0009a	74 05		 je	 SHORT $LN12@AddHead

; 956  : 		m_pNodeHead->pPrev = pNewNode;

  0009c	89 50 04	 mov	 DWORD PTR [eax+4], edx
  0009f	eb 03		 jmp	 SHORT $LN13@AddHead
$LN12@AddHead:

; 957  : 	else
; 958  : 		m_pNodeTail = pNewNode;

  000a1	89 56 08	 mov	 DWORD PTR [esi+8], edx
$LN13@AddHead:

; 959  : 	m_pNodeHead = pNewNode;

  000a4	89 56 04	 mov	 DWORD PTR [esi+4], edx
  000a7	8b ca		 mov	 ecx, edx
  000a9	89 4d 08	 mov	 DWORD PTR $T1[ebp], ecx

; 988  : 	while (pos != NULL)

  000ac	85 db		 test	 ebx, ebx
  000ae	0f 85 71 ff ff
	ff		 jne	 $LL5@AddHead
  000b4	5f		 pop	 edi
$LN39@AddHead:
  000b5	5e		 pop	 esi

; 990  : }

  000b6	5b		 pop	 ebx
  000b7	8b e5		 mov	 esp, ebp
  000b9	5d		 pop	 ebp
  000ba	c2 04 00	 ret	 4
$LN29@AddHead:

; 918  : 	ENSURE(m_pNodeFree != NULL);  // we must have something

  000bd	e8 00 00 00 00	 call	 ?AfxThrowInvalidArgException@@YGXXZ ; AfxThrowInvalidArgException
$LN41@AddHead:
  000c2	cc		 int	 3
?AddHead@?$CList@PAUIPacket000000@@PAU1@@@QAEXPAV1@@Z ENDP ; CList<IPacket000000 *,IPacket000000 *>::AddHead
_TEXT	ENDS
; Function compile flags: /Ogtp
; File C:\Program Files (x86)\Microsoft Visual Studio\2019\Community\VC\Tools\MSVC\14.29.30133\atlmfc\include\afxtempl.h
;	COMDAT ?AddTail@?$CList@PAUIPacket000000@@PAU1@@@QAEPAU__POSITION@@PAUIPacket000000@@@Z
_TEXT	SEGMENT
_newElement$ = 8					; size = 4
?AddTail@?$CList@PAUIPacket000000@@PAU1@@@QAEPAU__POSITION@@PAUIPacket000000@@@Z PROC ; CList<IPacket000000 *,IPacket000000 *>::AddTail, COMDAT
; _this$ = ecx

; 965  : {

  00000	55		 push	 ebp
  00001	8b ec		 mov	 ebp, esp
  00003	56		 push	 esi
  00004	8b f1		 mov	 esi, ecx

; 966  : 	ASSERT_VALID(this);
; 967  : 
; 968  : 	CNode* pNewNode = NewNode(m_pNodeTail, NULL);

  00006	6a 00		 push	 0
  00008	ff 76 08	 push	 DWORD PTR [esi+8]
  0000b	e8 00 00 00 00	 call	 ?NewNode@?$CList@PAUIPacket000000@@PAU1@@@IAEPAUCNode@1@PAU21@0@Z ; CList<IPacket000000 *,IPacket000000 *>::NewNode

; 969  : 	pNewNode->data = newElement;

  00010	8b 55 08	 mov	 edx, DWORD PTR _newElement$[ebp]
  00013	89 50 08	 mov	 DWORD PTR [eax+8], edx

; 970  : 	if (m_pNodeTail != NULL)

  00016	8b 4e 08	 mov	 ecx, DWORD PTR [esi+8]
  00019	85 c9		 test	 ecx, ecx
  0001b	74 0a		 je	 SHORT $LN2@AddTail

; 971  : 		m_pNodeTail->pNext = pNewNode;

  0001d	89 01		 mov	 DWORD PTR [ecx], eax

; 974  : 	m_pNodeTail = pNewNode;
; 975  : 	return (POSITION) pNewNode;
; 976  : }

  0001f	89 46 08	 mov	 DWORD PTR [esi+8], eax
  00022	5e		 pop	 esi
  00023	5d		 pop	 ebp
  00024	c2 04 00	 ret	 4
$LN2@AddTail:

; 972  : 	else
; 973  : 		m_pNodeHead = pNewNode;

  00027	89 46 04	 mov	 DWORD PTR [esi+4], eax

; 974  : 	m_pNodeTail = pNewNode;
; 975  : 	return (POSITION) pNewNode;
; 976  : }

  0002a	89 46 08	 mov	 DWORD PTR [esi+8], eax
  0002d	5e		 pop	 esi
  0002e	5d		 pop	 ebp
  0002f	c2 04 00	 ret	 4
?AddTail@?$CList@PAUIPacket000000@@PAU1@@@QAEPAU__POSITION@@PAUIPacket000000@@@Z ENDP ; CList<IPacket000000 *,IPacket000000 *>::AddTail
_TEXT	ENDS
; Function compile flags: /Ogtp
; File C:\Program Files (x86)\Microsoft Visual Studio\2019\Community\VC\Tools\MSVC\14.29.30133\atlmfc\include\afxtempl.h
;	COMDAT ?AddHead@?$CList@PAUIPacket000000@@PAU1@@@QAEPAU__POSITION@@PAUIPacket000000@@@Z
_TEXT	SEGMENT
_newElement$ = 8					; size = 4
?AddHead@?$CList@PAUIPacket000000@@PAU1@@@QAEPAU__POSITION@@PAUIPacket000000@@@Z PROC ; CList<IPacket000000 *,IPacket000000 *>::AddHead, COMDAT
; _this$ = ecx

; 950  : {

  00000	55		 push	 ebp
  00001	8b ec		 mov	 ebp, esp
  00003	56		 push	 esi
  00004	8b f1		 mov	 esi, ecx

; 951  : 	ASSERT_VALID(this);
; 952  : 
; 953  : 	CNode* pNewNode = NewNode(NULL, m_pNodeHead);

  00006	ff 76 04	 push	 DWORD PTR [esi+4]
  00009	6a 00		 push	 0
  0000b	e8 00 00 00 00	 call	 ?NewNode@?$CList@PAUIPacket000000@@PAU1@@@IAEPAUCNode@1@PAU21@0@Z ; CList<IPacket000000 *,IPacket000000 *>::NewNode

; 954  : 	pNewNode->data = newElement;

  00010	8b 55 08	 mov	 edx, DWORD PTR _newElement$[ebp]
  00013	89 50 08	 mov	 DWORD PTR [eax+8], edx

; 955  : 	if (m_pNodeHead != NULL)

  00016	8b 4e 04	 mov	 ecx, DWORD PTR [esi+4]
  00019	85 c9		 test	 ecx, ecx
  0001b	74 0b		 je	 SHORT $LN2@AddHead

; 956  : 		m_pNodeHead->pPrev = pNewNode;

  0001d	89 41 04	 mov	 DWORD PTR [ecx+4], eax

; 959  : 	m_pNodeHead = pNewNode;
; 960  : 	return (POSITION) pNewNode;
; 961  : }

  00020	89 46 04	 mov	 DWORD PTR [esi+4], eax
  00023	5e		 pop	 esi
  00024	5d		 pop	 ebp
  00025	c2 04 00	 ret	 4
$LN2@AddHead:

; 957  : 	else
; 958  : 		m_pNodeTail = pNewNode;

  00028	89 46 08	 mov	 DWORD PTR [esi+8], eax

; 959  : 	m_pNodeHead = pNewNode;
; 960  : 	return (POSITION) pNewNode;
; 961  : }

  0002b	89 46 04	 mov	 DWORD PTR [esi+4], eax
  0002e	5e		 pop	 esi
  0002f	5d		 pop	 ebp
  00030	c2 04 00	 ret	 4
?AddHead@?$CList@PAUIPacket000000@@PAU1@@@QAEPAU__POSITION@@PAUIPacket000000@@@Z ENDP ; CList<IPacket000000 *,IPacket000000 *>::AddHead
_TEXT	ENDS
; Function compile flags: /Ogtp
; File C:\Program Files (x86)\Microsoft Visual Studio\2019\Community\VC\Tools\MSVC\14.29.30133\atlmfc\include\afxtempl.h
;	COMDAT ?RemoveTail@?$CList@PAUIPacket000000@@PAU1@@@QAEPAUIPacket000000@@XZ
_TEXT	SEGMENT
?RemoveTail@?$CList@PAUIPacket000000@@PAU1@@@QAEPAUIPacket000000@@XZ PROC ; CList<IPacket000000 *,IPacket000000 *>::RemoveTail, COMDAT
; _this$ = ecx

; 1026 : {

  00000	56		 push	 esi
  00001	8b f1		 mov	 esi, ecx
  00003	57		 push	 edi

; 1027 : 	ASSERT_VALID(this);
; 1028 : 	ENSURE(m_pNodeTail != NULL);  // don't call on empty list !!!

  00004	8b 4e 08	 mov	 ecx, DWORD PTR [esi+8]
  00007	85 c9		 test	 ecx, ecx
  00009	74 5a		 je	 SHORT $LN24@RemoveTail

; 1029 : 	ASSERT(AfxIsValidAddress(m_pNodeTail, sizeof(CNode)));
; 1030 : 
; 1031 : 	CNode* pOldNode = m_pNodeTail;
; 1032 : 	TYPE returnValue = pOldNode->data;
; 1033 : 
; 1034 : 	m_pNodeTail = pOldNode->pPrev;

  0000b	8b 41 04	 mov	 eax, DWORD PTR [ecx+4]
  0000e	8b 79 08	 mov	 edi, DWORD PTR [ecx+8]
  00011	89 46 08	 mov	 DWORD PTR [esi+8], eax

; 1035 : 	if (m_pNodeTail != NULL)

  00014	85 c0		 test	 eax, eax
  00016	74 08		 je	 SHORT $LN6@RemoveTail

; 1036 : 		m_pNodeTail->pNext = NULL;

  00018	c7 00 00 00 00
	00		 mov	 DWORD PTR [eax], 0
  0001e	eb 07		 jmp	 SHORT $LN7@RemoveTail
$LN6@RemoveTail:

; 1037 : 	else
; 1038 : 		m_pNodeHead = NULL;

  00020	c7 46 04 00 00
	00 00		 mov	 DWORD PTR [esi+4], 0
$LN7@RemoveTail:

; 938  : 	pNode->pNext = m_pNodeFree;

  00027	8b 46 10	 mov	 eax, DWORD PTR [esi+16]
  0002a	89 01		 mov	 DWORD PTR [ecx], eax

; 939  : 	m_pNodeFree = pNode;
; 940  : 	m_nCount--;

  0002c	83 46 0c ff	 add	 DWORD PTR [esi+12], -1
  00030	89 4e 10	 mov	 DWORD PTR [esi+16], ecx

; 941  : 	ASSERT(m_nCount >= 0);  // make sure we don't underflow
; 942  : 
; 943  : 	// if no more elements, cleanup completely
; 944  : 	if (m_nCount == 0)

  00033	75 2b		 jne	 SHORT $LN10@RemoveTail

; 872  : 	m_pBlocks->FreeDataChain();

  00035	8b 4e 14	 mov	 ecx, DWORD PTR [esi+20]
  00038	c7 46 0c 00 00
	00 00		 mov	 DWORD PTR [esi+12], 0
  0003f	c7 46 10 00 00
	00 00		 mov	 DWORD PTR [esi+16], 0
  00046	c7 46 08 00 00
	00 00		 mov	 DWORD PTR [esi+8], 0
  0004d	c7 46 04 00 00
	00 00		 mov	 DWORD PTR [esi+4], 0
  00054	e8 00 00 00 00	 call	 ?FreeDataChain@CPlex@@QAEXXZ ; CPlex::FreeDataChain

; 873  : 	m_pBlocks = NULL;

  00059	c7 46 14 00 00
	00 00		 mov	 DWORD PTR [esi+20], 0
$LN10@RemoveTail:

; 1039 : 	FreeNode(pOldNode);
; 1040 : 	return returnValue;

  00060	8b c7		 mov	 eax, edi
  00062	5f		 pop	 edi
  00063	5e		 pop	 esi

; 1041 : }

  00064	c3		 ret	 0
$LN24@RemoveTail:

; 1027 : 	ASSERT_VALID(this);
; 1028 : 	ENSURE(m_pNodeTail != NULL);  // don't call on empty list !!!

  00065	e8 00 00 00 00	 call	 ?AfxThrowInvalidArgException@@YGXXZ ; AfxThrowInvalidArgException
$LN22@RemoveTail:
  0006a	cc		 int	 3
?RemoveTail@?$CList@PAUIPacket000000@@PAU1@@@QAEPAUIPacket000000@@XZ ENDP ; CList<IPacket000000 *,IPacket000000 *>::RemoveTail
_TEXT	ENDS
; Function compile flags: /Ogtp
; File C:\Program Files (x86)\Microsoft Visual Studio\2019\Community\VC\Tools\MSVC\14.29.30133\atlmfc\include\afxtempl.h
;	COMDAT ?RemoveHead@?$CList@PAUIPacket000000@@PAU1@@@QAEPAUIPacket000000@@XZ
_TEXT	SEGMENT
?RemoveHead@?$CList@PAUIPacket000000@@PAU1@@@QAEPAUIPacket000000@@XZ PROC ; CList<IPacket000000 *,IPacket000000 *>::RemoveHead, COMDAT
; _this$ = ecx

; 1007 : {

  00000	56		 push	 esi
  00001	8b f1		 mov	 esi, ecx
  00003	57		 push	 edi

; 1008 : 	ASSERT_VALID(this);
; 1009 : 	ENSURE(m_pNodeHead != NULL);  // don't call on empty list !!!

  00004	8b 4e 04	 mov	 ecx, DWORD PTR [esi+4]
  00007	85 c9		 test	 ecx, ecx
  00009	74 5a		 je	 SHORT $LN24@RemoveHead

; 1010 : 	ASSERT(AfxIsValidAddress(m_pNodeHead, sizeof(CNode)));
; 1011 : 
; 1012 : 	CNode* pOldNode = m_pNodeHead;
; 1013 : 	TYPE returnValue = pOldNode->data;
; 1014 : 
; 1015 : 	m_pNodeHead = pOldNode->pNext;

  0000b	8b 01		 mov	 eax, DWORD PTR [ecx]
  0000d	8b 79 08	 mov	 edi, DWORD PTR [ecx+8]
  00010	89 46 04	 mov	 DWORD PTR [esi+4], eax

; 1016 : 	if (m_pNodeHead != NULL)

  00013	85 c0		 test	 eax, eax
  00015	74 09		 je	 SHORT $LN6@RemoveHead

; 1017 : 		m_pNodeHead->pPrev = NULL;

  00017	c7 40 04 00 00
	00 00		 mov	 DWORD PTR [eax+4], 0
  0001e	eb 07		 jmp	 SHORT $LN7@RemoveHead
$LN6@RemoveHead:

; 1018 : 	else
; 1019 : 		m_pNodeTail = NULL;

  00020	c7 46 08 00 00
	00 00		 mov	 DWORD PTR [esi+8], 0
$LN7@RemoveHead:

; 938  : 	pNode->pNext = m_pNodeFree;

  00027	8b 46 10	 mov	 eax, DWORD PTR [esi+16]
  0002a	89 01		 mov	 DWORD PTR [ecx], eax

; 939  : 	m_pNodeFree = pNode;
; 940  : 	m_nCount--;

  0002c	83 46 0c ff	 add	 DWORD PTR [esi+12], -1
  00030	89 4e 10	 mov	 DWORD PTR [esi+16], ecx

; 941  : 	ASSERT(m_nCount >= 0);  // make sure we don't underflow
; 942  : 
; 943  : 	// if no more elements, cleanup completely
; 944  : 	if (m_nCount == 0)

  00033	75 2b		 jne	 SHORT $LN10@RemoveHead

; 872  : 	m_pBlocks->FreeDataChain();

  00035	8b 4e 14	 mov	 ecx, DWORD PTR [esi+20]
  00038	c7 46 0c 00 00
	00 00		 mov	 DWORD PTR [esi+12], 0
  0003f	c7 46 10 00 00
	00 00		 mov	 DWORD PTR [esi+16], 0
  00046	c7 46 08 00 00
	00 00		 mov	 DWORD PTR [esi+8], 0
  0004d	c7 46 04 00 00
	00 00		 mov	 DWORD PTR [esi+4], 0
  00054	e8 00 00 00 00	 call	 ?FreeDataChain@CPlex@@QAEXXZ ; CPlex::FreeDataChain

; 873  : 	m_pBlocks = NULL;

  00059	c7 46 14 00 00
	00 00		 mov	 DWORD PTR [esi+20], 0
$LN10@RemoveHead:

; 1020 : 	FreeNode(pOldNode);
; 1021 : 	return returnValue;

  00060	8b c7		 mov	 eax, edi
  00062	5f		 pop	 edi
  00063	5e		 pop	 esi

; 1022 : }

  00064	c3		 ret	 0
$LN24@RemoveHead:

; 1008 : 	ASSERT_VALID(this);
; 1009 : 	ENSURE(m_pNodeHead != NULL);  // don't call on empty list !!!

  00065	e8 00 00 00 00	 call	 ?AfxThrowInvalidArgException@@YGXXZ ; AfxThrowInvalidArgException
$LN22@RemoveHead:
  0006a	cc		 int	 3
?RemoveHead@?$CList@PAUIPacket000000@@PAU1@@@QAEPAUIPacket000000@@XZ ENDP ; CList<IPacket000000 *,IPacket000000 *>::RemoveHead
_TEXT	ENDS
; Function compile flags: /Ogtp
; File C:\Program Files (x86)\Microsoft Visual Studio\2019\Community\VC\Tools\MSVC\14.29.30133\atlmfc\include\afxtempl.h
;	COMDAT ??0?$CList@PAUIPacket000000@@PAU1@@@QAE@H@Z
_TEXT	SEGMENT
_nBlockSize$ = 8					; size = 4
??0?$CList@PAUIPacket000000@@PAU1@@@QAE@H@Z PROC	; CList<IPacket000000 *,IPacket000000 *>::CList<IPacket000000 *,IPacket000000 *>, COMDAT
; _this$ = ecx

; 851  : {

  00000	55		 push	 ebp
  00001	8b ec		 mov	 ebp, esp

; 852  : 	ASSERT(nBlockSize > 0);
; 853  : 
; 854  : 	m_nCount = 0;
; 855  : 	m_pNodeHead = m_pNodeTail = m_pNodeFree = NULL;
; 856  : 	m_pBlocks = NULL;
; 857  : 	m_nBlockSize = nBlockSize;

  00003	8b 45 08	 mov	 eax, DWORD PTR _nBlockSize$[ebp]
  00006	89 41 18	 mov	 DWORD PTR [ecx+24], eax

; 858  : }

  00009	8b c1		 mov	 eax, ecx
  0000b	c7 01 00 00 00
	00		 mov	 DWORD PTR [ecx], OFFSET ??_7?$CList@PAUIPacket000000@@PAU1@@@6B@
  00011	c7 41 0c 00 00
	00 00		 mov	 DWORD PTR [ecx+12], 0
  00018	c7 41 10 00 00
	00 00		 mov	 DWORD PTR [ecx+16], 0
  0001f	c7 41 08 00 00
	00 00		 mov	 DWORD PTR [ecx+8], 0
  00026	c7 41 04 00 00
	00 00		 mov	 DWORD PTR [ecx+4], 0
  0002d	c7 41 14 00 00
	00 00		 mov	 DWORD PTR [ecx+20], 0
  00034	5d		 pop	 ebp
  00035	c2 04 00	 ret	 4
??0?$CList@PAUIPacket000000@@PAU1@@@QAE@H@Z ENDP	; CList<IPacket000000 *,IPacket000000 *>::CList<IPacket000000 *,IPacket000000 *>
_TEXT	ENDS
; Function compile flags: /Ogtp
;	COMDAT ??_GIPacketList000000@@MAEPAXI@Z
_TEXT	SEGMENT
___flags$ = 8						; size = 4
??_GIPacketList000000@@MAEPAXI@Z PROC			; IPacketList000000::`scalar deleting destructor', COMDAT
; _this$ = ecx
  00000	55		 push	 ebp
  00001	8b ec		 mov	 ebp, esp
  00003	f6 45 08 01	 test	 BYTE PTR ___flags$[ebp], 1
  00007	56		 push	 esi
  00008	8b f1		 mov	 esi, ecx
  0000a	c7 06 00 00 00
	00		 mov	 DWORD PTR [esi], OFFSET ??_7IPacketList000000@@6B@
  00010	74 0b		 je	 SHORT $LN4@scalar
  00012	6a 04		 push	 4
  00014	56		 push	 esi
  00015	e8 00 00 00 00	 call	 ??3@YAXPAXI@Z		; operator delete
  0001a	83 c4 08	 add	 esp, 8
$LN4@scalar:
  0001d	8b c6		 mov	 eax, esi
  0001f	5e		 pop	 esi
  00020	5d		 pop	 ebp
  00021	c2 04 00	 ret	 4
??_GIPacketList000000@@MAEPAXI@Z ENDP			; IPacketList000000::`scalar deleting destructor'
_TEXT	ENDS
; Function compile flags: /Ogtp
; File D:\git\src\IBK\IBK_DRFN\ProjSrc\SrcChartEx\ChartOCX\AddInManager\Include_AddIn\I000000\_IPacketList.h
;	COMDAT ??1IPacketList000000@@MAE@XZ
_TEXT	SEGMENT
??1IPacketList000000@@MAE@XZ PROC			; IPacketList000000::~IPacketList000000, COMDAT
; _this$ = ecx

; 17   : 	virtual ~IPacketList()	{}

  00000	c7 01 00 00 00
	00		 mov	 DWORD PTR [ecx], OFFSET ??_7IPacketList000000@@6B@
  00006	c3		 ret	 0
??1IPacketList000000@@MAE@XZ ENDP			; IPacketList000000::~IPacketList000000
_TEXT	ENDS
; Function compile flags: /Ogtp
; File D:\git\src\IBK\IBK_DRFN\ProjSrc\SrcChartEx\ChartOCX\AddInManager\Include_AddIn\I000000\_IString.h
;	COMDAT ??1ILPCSTR000000@@QAE@XZ
_TEXT	SEGMENT
__$EHRec$ = -12						; size = 12
??1ILPCSTR000000@@QAE@XZ PROC				; ILPCSTR000000::~ILPCSTR000000, COMDAT
; _this$ = ecx

; 44   : 	{

  00000	55		 push	 ebp
  00001	8b ec		 mov	 ebp, esp
  00003	6a ff		 push	 -1
  00005	68 00 00 00 00	 push	 __ehhandler$??1ILPCSTR000000@@QAE@XZ
  0000a	64 a1 00 00 00
	00		 mov	 eax, DWORD PTR fs:0
  00010	50		 push	 eax
  00011	56		 push	 esi
  00012	a1 00 00 00 00	 mov	 eax, DWORD PTR ___security_cookie
  00017	33 c5		 xor	 eax, ebp
  00019	50		 push	 eax
  0001a	8d 45 f4	 lea	 eax, DWORD PTR __$EHRec$[ebp]
  0001d	64 a3 00 00 00
	00		 mov	 DWORD PTR fs:0, eax
  00023	8b f1		 mov	 esi, ecx

; 45   : 		if( m_pIStrData)

  00025	8b 4e 04	 mov	 ecx, DWORD PTR [esi+4]
  00028	85 c9		 test	 ecx, ecx
  0002a	74 13		 je	 SHORT $LN2@ILPCSTR000

; 46   : 		{
; 47   : 			m_pIStrData->Release();

  0002c	8b 01		 mov	 eax, DWORD PTR [ecx]
  0002e	51		 push	 ecx
  0002f	ff 50 08	 call	 DWORD PTR [eax+8]

; 48   : 			m_pIStrData = NULL;

  00032	c7 46 04 00 00
	00 00		 mov	 DWORD PTR [esi+4], 0

; 49   : 			m_szData = NULL;

  00039	c7 06 00 00 00
	00		 mov	 DWORD PTR [esi], 0
$LN2@ILPCSTR000:

; 50   : 		}
; 51   : 	}

  0003f	8b 4d f4	 mov	 ecx, DWORD PTR __$EHRec$[ebp]
  00042	64 89 0d 00 00
	00 00		 mov	 DWORD PTR fs:0, ecx
  00049	59		 pop	 ecx
  0004a	5e		 pop	 esi
  0004b	8b e5		 mov	 esp, ebp
  0004d	5d		 pop	 ebp
  0004e	c3		 ret	 0
  0004f	cc		 int	 3
  00050	cc		 int	 3
  00051	cc		 int	 3
  00052	cc		 int	 3
  00053	cc		 int	 3
_TEXT	ENDS
;	COMDAT text$x
text$x	SEGMENT
__ehhandler$??1ILPCSTR000000@@QAE@XZ:
  00000	90		 npad	 1
  00001	90		 npad	 1
  00002	8b 54 24 08	 mov	 edx, DWORD PTR [esp+8]
  00006	8d 42 0c	 lea	 eax, DWORD PTR [edx+12]
  00009	8b 4a f8	 mov	 ecx, DWORD PTR [edx-8]
  0000c	33 c8		 xor	 ecx, eax
  0000e	e8 00 00 00 00	 call	 @__security_check_cookie@4
  00013	b8 00 00 00 00	 mov	 eax, OFFSET __ehfuncinfo$??1ILPCSTR000000@@QAE@XZ
  00018	e9 00 00 00 00	 jmp	 ___CxxFrameHandler3
text$x	ENDS
??1ILPCSTR000000@@QAE@XZ ENDP				; ILPCSTR000000::~ILPCSTR000000
; Function compile flags: /Ogtp
;	COMDAT ??__FstrValue@?1??GetNextAssoc@CPropertyMap@@EBEXAAPAU__POSITION@@AAPBD1@Z@YAXXZ
text$yd	SEGMENT
??__FstrValue@?1??GetNextAssoc@CPropertyMap@@EBEXAAPAU__POSITION@@AAPBD1@Z@YAXXZ PROC ; `CPropertyMap::GetNextAssoc'::`2'::`dynamic atexit destructor for 'strValue'', COMDAT
  00000	b9 00 00 00 00	 mov	 ecx, OFFSET ?strValue@?1??GetNextAssoc@CPropertyMap@@EBEXAAPAU__POSITION@@AAPBD1@Z@4V?$CStringT@DV?$StrTraitMFC_DLL@DV?$ChTraitsCRT@D@ATL@@@@@ATL@@A ; `CPropertyMap::GetNextAssoc'::`2'::strValue
  00005	ff 25 00 00 00
	00		 jmp	 DWORD PTR __imp_??1?$CStringT@DV?$StrTraitMFC_DLL@DV?$ChTraitsCRT@D@ATL@@@@@ATL@@QAE@XZ
??__FstrValue@?1??GetNextAssoc@CPropertyMap@@EBEXAAPAU__POSITION@@AAPBD1@Z@YAXXZ ENDP ; `CPropertyMap::GetNextAssoc'::`2'::`dynamic atexit destructor for 'strValue''
text$yd	ENDS
; Function compile flags: /Ogtp
;	COMDAT ??__FstrKey@?1??GetNextAssoc@CPropertyMap@@EBEXAAPAU__POSITION@@AAPBD1@Z@YAXXZ
text$yd	SEGMENT
??__FstrKey@?1??GetNextAssoc@CPropertyMap@@EBEXAAPAU__POSITION@@AAPBD1@Z@YAXXZ PROC ; `CPropertyMap::GetNextAssoc'::`2'::`dynamic atexit destructor for 'strKey'', COMDAT
  00000	b9 00 00 00 00	 mov	 ecx, OFFSET ?strKey@?1??GetNextAssoc@CPropertyMap@@EBEXAAPAU__POSITION@@AAPBD1@Z@4V?$CStringT@DV?$StrTraitMFC_DLL@DV?$ChTraitsCRT@D@ATL@@@@@ATL@@A ; `CPropertyMap::GetNextAssoc'::`2'::strKey
  00005	ff 25 00 00 00
	00		 jmp	 DWORD PTR __imp_??1?$CStringT@DV?$StrTraitMFC_DLL@DV?$ChTraitsCRT@D@ATL@@@@@ATL@@QAE@XZ
??__FstrKey@?1??GetNextAssoc@CPropertyMap@@EBEXAAPAU__POSITION@@AAPBD1@Z@YAXXZ ENDP ; `CPropertyMap::GetNextAssoc'::`2'::`dynamic atexit destructor for 'strKey''
text$yd	ENDS
; Function compile flags: /Ogtp
;	COMDAT ??__FstrValue@?1??Lookup@CPropertyMap@@EBEHPBDAAPBD@Z@YAXXZ
text$yd	SEGMENT
??__FstrValue@?1??Lookup@CPropertyMap@@EBEHPBDAAPBD@Z@YAXXZ PROC ; `CPropertyMap::Lookup'::`2'::`dynamic atexit destructor for 'strValue'', COMDAT
  00000	b9 00 00 00 00	 mov	 ecx, OFFSET ?strValue@?1??Lookup@CPropertyMap@@EBEHPBDAAPBD@Z@4V?$CStringT@DV?$StrTraitMFC_DLL@DV?$ChTraitsCRT@D@ATL@@@@@ATL@@A ; `CPropertyMap::Lookup'::`2'::strValue
  00005	ff 25 00 00 00
	00		 jmp	 DWORD PTR __imp_??1?$CStringT@DV?$StrTraitMFC_DLL@DV?$ChTraitsCRT@D@ATL@@@@@ATL@@QAE@XZ
??__FstrValue@?1??Lookup@CPropertyMap@@EBEHPBDAAPBD@Z@YAXXZ ENDP ; `CPropertyMap::Lookup'::`2'::`dynamic atexit destructor for 'strValue''
text$yd	ENDS
; Function compile flags: /Ogtp
; File C:\Program Files (x86)\Microsoft Visual Studio\2019\Community\VC\Tools\MSVC\14.29.30133\atlmfc\include\afx.inl
;	COMDAT ??_GCPropertyMap@@UAEPAXI@Z
_TEXT	SEGMENT
___flags$ = 8						; size = 4
??_GCPropertyMap@@UAEPAXI@Z PROC			; CPropertyMap::`scalar deleting destructor', COMDAT
; _this$ = ecx
  00000	55		 push	 ebp
  00001	8b ec		 mov	 ebp, esp
  00003	56		 push	 esi
  00004	8b f1		 mov	 esi, ecx
  00006	c7 46 1c 00 00
	00 00		 mov	 DWORD PTR [esi+28], OFFSET ??_7IPropertyMap@@6B@
  0000d	e8 00 00 00 00	 call	 ??1CMapStringToString@@UAE@XZ ; CMapStringToString::~CMapStringToString
  00012	8b 45 08	 mov	 eax, DWORD PTR ___flags$[ebp]
  00015	a8 01		 test	 al, 1
  00017	74 1f		 je	 SHORT $LN12@scalar
  00019	a8 04		 test	 al, 4
  0001b	75 10		 jne	 SHORT $LN3@scalar

; 112  : 	{ ::operator delete(p); }

  0001d	56		 push	 esi
  0001e	e8 00 00 00 00	 call	 ??3@YAXPAX@Z		; operator delete
  00023	83 c4 04	 add	 esp, 4
  00026	8b c6		 mov	 eax, esi
  00028	5e		 pop	 esi
  00029	5d		 pop	 ebp
  0002a	c2 04 00	 ret	 4
$LN3@scalar:
  0002d	6a 20		 push	 32			; 00000020H
  0002f	56		 push	 esi
  00030	e8 00 00 00 00	 call	 ?__global_delete@@YAXPAXI@Z ; __global_delete
  00035	83 c4 08	 add	 esp, 8
$LN12@scalar:
  00038	8b c6		 mov	 eax, esi
  0003a	5e		 pop	 esi
  0003b	5d		 pop	 ebp
  0003c	c2 04 00	 ret	 4
??_GCPropertyMap@@UAEPAXI@Z ENDP			; CPropertyMap::`scalar deleting destructor'
_TEXT	ENDS
; Function compile flags: /Ogtp
;	COMDAT ??1CPropertyMap@@UAE@XZ
_TEXT	SEGMENT
??1CPropertyMap@@UAE@XZ PROC				; CPropertyMap::~CPropertyMap, COMDAT
; _this$ = ecx
  00000	c7 41 1c 00 00
	00 00		 mov	 DWORD PTR [ecx+28], OFFSET ??_7IPropertyMap@@6B@
  00007	e9 00 00 00 00	 jmp	 ??1CMapStringToString@@UAE@XZ ; CMapStringToString::~CMapStringToString
??1CPropertyMap@@UAE@XZ ENDP				; CPropertyMap::~CPropertyMap
_TEXT	ENDS
; Function compile flags: /Ogtp
; File D:\git\src\IBK\IBK_DRFN\ProjSrc\SrcChartEx\ChartOCX\Include_Chart\PropertyMap.h
;	COMDAT ?InitHashTable@CPropertyMap@@EAEXIH@Z
_TEXT	SEGMENT
_hashSize$ = 8						; size = 4
_bAllocNow$ = 12					; size = 4
?InitHashTable@CPropertyMap@@EAEXIH@Z PROC		; CPropertyMap::InitHashTable, COMDAT
; _this$ = ecx

; 63   : 	virtual void InitHashTable(UINT hashSize, BOOL bAllocNow = TRUE)	{	CMapStringToString::InitHashTable( hashSize, bAllocNow);	}

  00000	55		 push	 ebp
  00001	8b ec		 mov	 ebp, esp
  00003	83 c1 e4	 add	 ecx, -28		; ffffffe4H
  00006	5d		 pop	 ebp
  00007	e9 00 00 00 00	 jmp	 ?InitHashTable@CMapStringToString@@QAEXIH@Z ; CMapStringToString::InitHashTable
?InitHashTable@CPropertyMap@@EAEXIH@Z ENDP		; CPropertyMap::InitHashTable
_TEXT	ENDS
; Function compile flags: /Ogtp
; File D:\git\src\IBK\IBK_DRFN\ProjSrc\SrcChartEx\ChartOCX\Include_Chart\PropertyMap.h
;	COMDAT ?GetHashTableSize@CPropertyMap@@EBEIXZ
_TEXT	SEGMENT
?GetHashTableSize@CPropertyMap@@EBEIXZ PROC		; CPropertyMap::GetHashTableSize, COMDAT
; _this$ = ecx

; 62   : 	virtual UINT GetHashTableSize() const								{	return CMapStringToString::GetHashTableSize();	}

  00000	8b 41 ec	 mov	 eax, DWORD PTR [ecx-20]
  00003	c3		 ret	 0
?GetHashTableSize@CPropertyMap@@EBEIXZ ENDP		; CPropertyMap::GetHashTableSize
_TEXT	ENDS
; Function compile flags: /Ogtp
; File D:\git\src\IBK\IBK_DRFN\ProjSrc\SrcChartEx\ChartOCX\Include_Chart\PropertyMap.h
;	COMDAT ?GetNextAssoc@CPropertyMap@@EBEXAAPAU__POSITION@@AAPBD1@Z
_TEXT	SEGMENT
_rNextPosition$ = 8					; size = 4
_rKey$ = 12						; size = 4
_rValue$ = 16						; size = 4
?GetNextAssoc@CPropertyMap@@EBEXAAPAU__POSITION@@AAPBD1@Z PROC ; CPropertyMap::GetNextAssoc, COMDAT
; _this$ = ecx

; 55   : 	{

  00000	55		 push	 ebp
  00001	8b ec		 mov	 ebp, esp

; 56   : 		static CString strKey, strValue;

  00003	64 a1 00 00 00
	00		 mov	 eax, DWORD PTR fs:__tls_array
  00009	8b 15 00 00 00
	00		 mov	 edx, DWORD PTR __tls_index
  0000f	56		 push	 esi
  00010	57		 push	 edi
  00011	8b f9		 mov	 edi, ecx
  00013	8b 34 90	 mov	 esi, DWORD PTR [eax+edx*4]
  00016	a1 00 00 00 00	 mov	 eax, DWORD PTR ?$TSS0@?1??GetNextAssoc@CPropertyMap@@EBEXAAPAU__POSITION@@AAPBD1@Z@4HA ; `CPropertyMap::GetNextAssoc'::`2'::$TSS0
  0001b	3b 86 00 00 00
	00		 cmp	 eax, DWORD PTR __Init_thread_epoch[esi]
  00021	7f 3c		 jg	 SHORT $LN10@GetNextAss
$LN2@GetNextAss:
  00023	a1 00 00 00 00	 mov	 eax, DWORD PTR ?$TSS1@?1??GetNextAssoc@CPropertyMap@@EBEXAAPAU__POSITION@@AAPBD1@Z@4HA ; `CPropertyMap::GetNextAssoc'::`2'::$TSS1
  00028	3b 86 00 00 00
	00		 cmp	 eax, DWORD PTR __Init_thread_epoch[esi]
  0002e	7f 69		 jg	 SHORT $LN11@GetNextAss
$LN3@GetNextAss:

; 57   : 		CMapStringToString::GetNextAssoc( rNextPosition, strKey, strValue);

  00030	68 00 00 00 00	 push	 OFFSET ?strValue@?1??GetNextAssoc@CPropertyMap@@EBEXAAPAU__POSITION@@AAPBD1@Z@4V?$CStringT@DV?$StrTraitMFC_DLL@DV?$ChTraitsCRT@D@ATL@@@@@ATL@@A ; `CPropertyMap::GetNextAssoc'::`2'::strValue
  00035	68 00 00 00 00	 push	 OFFSET ?strKey@?1??GetNextAssoc@CPropertyMap@@EBEXAAPAU__POSITION@@AAPBD1@Z@4V?$CStringT@DV?$StrTraitMFC_DLL@DV?$ChTraitsCRT@D@ATL@@@@@ATL@@A ; `CPropertyMap::GetNextAssoc'::`2'::strKey
  0003a	ff 75 08	 push	 DWORD PTR _rNextPosition$[ebp]
  0003d	8d 4f e4	 lea	 ecx, DWORD PTR [edi-28]
  00040	e8 00 00 00 00	 call	 ?GetNextAssoc@CMapStringToString@@QBEXAAPAU__POSITION@@AAV?$CStringT@DV?$StrTraitMFC_DLL@DV?$ChTraitsCRT@D@ATL@@@@@ATL@@1@Z ; CMapStringToString::GetNextAssoc

; 58   : 		rKey	= strKey;

  00045	8b 4d 0c	 mov	 ecx, DWORD PTR _rKey$[ebp]
  00048	a1 00 00 00 00	 mov	 eax, DWORD PTR ?strKey@?1??GetNextAssoc@CPropertyMap@@EBEXAAPAU__POSITION@@AAPBD1@Z@4V?$CStringT@DV?$StrTraitMFC_DLL@DV?$ChTraitsCRT@D@ATL@@@@@ATL@@A ; `CPropertyMap::GetNextAssoc'::`2'::strKey

; 59   : 		rValue	= strValue;

  0004d	5f		 pop	 edi
  0004e	5e		 pop	 esi
  0004f	89 01		 mov	 DWORD PTR [ecx], eax
  00051	8b 4d 10	 mov	 ecx, DWORD PTR _rValue$[ebp]
  00054	a1 00 00 00 00	 mov	 eax, DWORD PTR ?strValue@?1??GetNextAssoc@CPropertyMap@@EBEXAAPAU__POSITION@@AAPBD1@Z@4V?$CStringT@DV?$StrTraitMFC_DLL@DV?$ChTraitsCRT@D@ATL@@@@@ATL@@A ; `CPropertyMap::GetNextAssoc'::`2'::strValue
  00059	89 01		 mov	 DWORD PTR [ecx], eax

; 60   : 	}

  0005b	5d		 pop	 ebp
  0005c	c2 0c 00	 ret	 12			; 0000000cH
$LN10@GetNextAss:

; 56   : 		static CString strKey, strValue;

  0005f	68 00 00 00 00	 push	 OFFSET ?$TSS0@?1??GetNextAssoc@CPropertyMap@@EBEXAAPAU__POSITION@@AAPBD1@Z@4HA ; `CPropertyMap::GetNextAssoc'::`2'::$TSS0
  00064	e8 00 00 00 00	 call	 __Init_thread_header
  00069	83 c4 04	 add	 esp, 4
  0006c	83 3d 00 00 00
	00 ff		 cmp	 DWORD PTR ?$TSS0@?1??GetNextAssoc@CPropertyMap@@EBEXAAPAU__POSITION@@AAPBD1@Z@4HA, -1 ; `CPropertyMap::GetNextAssoc'::`2'::$TSS0
  00073	75 ae		 jne	 SHORT $LN2@GetNextAss
  00075	b9 00 00 00 00	 mov	 ecx, OFFSET ?strKey@?1??GetNextAssoc@CPropertyMap@@EBEXAAPAU__POSITION@@AAPBD1@Z@4V?$CStringT@DV?$StrTraitMFC_DLL@DV?$ChTraitsCRT@D@ATL@@@@@ATL@@A ; `CPropertyMap::GetNextAssoc'::`2'::strKey
  0007a	ff 15 00 00 00
	00		 call	 DWORD PTR __imp_??0?$CStringT@DV?$StrTraitMFC_DLL@DV?$ChTraitsCRT@D@ATL@@@@@ATL@@QAE@XZ
  00080	68 00 00 00 00	 push	 OFFSET ??__FstrKey@?1??GetNextAssoc@CPropertyMap@@EBEXAAPAU__POSITION@@AAPBD1@Z@YAXXZ ; `CPropertyMap::GetNextAssoc'::`2'::`dynamic atexit destructor for 'strKey''
  00085	e8 00 00 00 00	 call	 _atexit
  0008a	68 00 00 00 00	 push	 OFFSET ?$TSS0@?1??GetNextAssoc@CPropertyMap@@EBEXAAPAU__POSITION@@AAPBD1@Z@4HA ; `CPropertyMap::GetNextAssoc'::`2'::$TSS0
  0008f	e8 00 00 00 00	 call	 __Init_thread_footer
  00094	83 c4 08	 add	 esp, 8
  00097	eb 8a		 jmp	 SHORT $LN2@GetNextAss
$LN11@GetNextAss:
  00099	68 00 00 00 00	 push	 OFFSET ?$TSS1@?1??GetNextAssoc@CPropertyMap@@EBEXAAPAU__POSITION@@AAPBD1@Z@4HA ; `CPropertyMap::GetNextAssoc'::`2'::$TSS1
  0009e	e8 00 00 00 00	 call	 __Init_thread_header
  000a3	83 c4 04	 add	 esp, 4
  000a6	83 3d 00 00 00
