; Listing generated by Microsoft (R) Optimizing Compiler Version 19.29.30145.0 

	TITLE	D:\git\src\IBK\IBK_DRFN\#DRfn-CS\_Obj\ChartCommonAddIn\LVEdit.obj
	.686P
	.XMM
	include listing.inc
	.model	flat

INCLUDELIB MSVCRT
INCLUDELIB OLDNAMES

PUBLIC	??_C@_0CB@EFDCECKM@RMSG_EDITABLELISTCTRL_CELLEDITE@ ; `string'
;	COMDAT ??_C@_0CB@EFDCECKM@RMSG_EDITABLELISTCTRL_CELLEDITE@
CONST	SEGMENT
??_C@_0CB@EFDCECKM@RMSG_EDITABLELISTCTRL_CELLEDITE@ DB 'RMSG_EDITABLELIST'
	DB	'CTRL_CELLEDITED', 00H			; `string'
CONST	ENDS
PUBLIC	?__empty_global_delete@@YAXPAX@Z		; __empty_global_delete
PUBLIC	?__empty_global_delete@@YAXPAXI@Z		; __empty_global_delete
PUBLIC	?Serialize@CObject@@UAEXAAVCArchive@@@Z		; CObject::Serialize
PUBLIC	?AssertValid@CObject@@UBEXXZ			; CObject::AssertValid
PUBLIC	?Dump@CObject@@UBEXAAVCDumpContext@@@Z		; CObject::Dump
PUBLIC	?DoDataExchange@CWnd@@MAEXPAVCDataExchange@@@Z	; CWnd::DoDataExchange
PUBLIC	?BeginModalState@CWnd@@UAEXXZ			; CWnd::BeginModalState
PUBLIC	?EndModalState@CWnd@@UAEXXZ			; CWnd::EndModalState
PUBLIC	??_GCEdit@@UAEPAXI@Z				; CEdit::`scalar deleting destructor'
PUBLIC	??0CLVEdit@@QAE@XZ				; CLVEdit::CLVEdit
PUBLIC	?PreTranslateMessage@CLVEdit@@UAEHPAUtagMSG@@@Z	; CLVEdit::PreTranslateMessage
PUBLIC	?Create@CLVEdit@@UAEHKABUtagRECT@@PAVCWnd@@I@Z	; CLVEdit::Create
PUBLIC	??1CLVEdit@@UAE@XZ				; CLVEdit::~CLVEdit
PUBLIC	?OnKillFocus@CLVEdit@@IAEXPAVCWnd@@@Z		; CLVEdit::OnKillFocus
PUBLIC	?OnKeyDown@CLVEdit@@IAEXIII@Z			; CLVEdit::OnKeyDown
PUBLIC	?OnKeyUp@CLVEdit@@IAEXIII@Z			; CLVEdit::OnKeyUp
PUBLIC	?GetThisMessageMap@CLVEdit@@KGPBUAFX_MSGMAP@@XZ	; CLVEdit::GetThisMessageMap
PUBLIC	?GetMessageMap@CLVEdit@@MBEPBUAFX_MSGMAP@@XZ	; CLVEdit::GetMessageMap
PUBLIC	?TryEditSubItem@CLVEdit@@IAEHHH@Z		; CLVEdit::TryEditSubItem
PUBLIC	?UpdateToListCtrl@CLVEdit@@IAEXXZ		; CLVEdit::UpdateToListCtrl
PUBLIC	??_GCLVEdit@@UAEPAXI@Z				; CLVEdit::`scalar deleting destructor'
PUBLIC	??_7CEdit@@6B@					; CEdit::`vftable'
PUBLIC	??_R0?AVCObject@@@8				; CObject `RTTI Type Descriptor'
PUBLIC	??_R3CObject@@8					; CObject::`RTTI Class Hierarchy Descriptor'
PUBLIC	??_R2CObject@@8					; CObject::`RTTI Base Class Array'
PUBLIC	??_R1A@?0A@EA@CObject@@8			; CObject::`RTTI Base Class Descriptor at (0,-1,0,64)'
PUBLIC	??_R1A@?0A@EA@CWnd@@8				; CWnd::`RTTI Base Class Descriptor at (0,-1,0,64)'
PUBLIC	??_R0?AVCWnd@@@8				; CWnd `RTTI Type Descriptor'
PUBLIC	??_R3CWnd@@8					; CWnd::`RTTI Class Hierarchy Descriptor'
PUBLIC	??_R2CWnd@@8					; CWnd::`RTTI Base Class Array'
PUBLIC	??_R1A@?0A@EA@CCmdTarget@@8			; CCmdTarget::`RTTI Base Class Descriptor at (0,-1,0,64)'
PUBLIC	??_R0?AVCCmdTarget@@@8				; CCmdTarget `RTTI Type Descriptor'
PUBLIC	??_R3CCmdTarget@@8				; CCmdTarget::`RTTI Class Hierarchy Descriptor'
PUBLIC	??_R2CCmdTarget@@8				; CCmdTarget::`RTTI Base Class Array'
PUBLIC	??_R4CEdit@@6B@					; CEdit::`RTTI Complete Object Locator'
PUBLIC	??_R0?AVCEdit@@@8				; CEdit `RTTI Type Descriptor'
PUBLIC	??_R3CEdit@@8					; CEdit::`RTTI Class Hierarchy Descriptor'
PUBLIC	??_R2CEdit@@8					; CEdit::`RTTI Base Class Array'
PUBLIC	??_R1A@?0A@EA@CEdit@@8				; CEdit::`RTTI Base Class Descriptor at (0,-1,0,64)'
PUBLIC	??_7CLVEdit@@6B@				; CLVEdit::`vftable'
PUBLIC	??_R4CLVEdit@@6B@				; CLVEdit::`RTTI Complete Object Locator'
PUBLIC	??_R0?AVCLVEdit@@@8				; CLVEdit `RTTI Type Descriptor'
PUBLIC	??_R3CLVEdit@@8					; CLVEdit::`RTTI Class Hierarchy Descriptor'
PUBLIC	??_R2CLVEdit@@8					; CLVEdit::`RTTI Base Class Array'
PUBLIC	??_R1A@?0A@EA@CLVEdit@@8			; CLVEdit::`RTTI Base Class Descriptor at (0,-1,0,64)'
EXTRN	??3@YAXPAX@Z:PROC				; operator delete
EXTRN	?__global_delete@@YAXPAXI@Z:PROC		; __global_delete
EXTRN	__imp__RegisterWindowMessageA@4:PROC
EXTRN	__imp__SendMessageA@16:PROC
EXTRN	__imp__EnableWindow@8:PROC
EXTRN	__imp__GetParent@4:PROC
EXTRN	?AfxThrowInvalidArgException@@YGXXZ:PROC	; AfxThrowInvalidArgException
EXTRN	__imp_??0?$CStringT@DV?$StrTraitMFC_DLL@DV?$ChTraitsCRT@D@ATL@@@@@ATL@@QAE@XZ:PROC
EXTRN	__imp_??1?$CStringT@DV?$StrTraitMFC_DLL@DV?$ChTraitsCRT@D@ATL@@@@@ATL@@QAE@XZ:PROC
EXTRN	?OnCmdMsg@CCmdTarget@@UAEHIHPAXPAUAFX_CMDHANDLERINFO@@@Z:PROC ; CCmdTarget::OnCmdMsg
EXTRN	?IsInvokeAllowed@CCmdTarget@@UAEHJ@Z:PROC	; CCmdTarget::IsInvokeAllowed
EXTRN	?GetDispatchIID@CCmdTarget@@UAEHPAU_GUID@@@Z:PROC ; CCmdTarget::GetDispatchIID
EXTRN	?GetTypeInfoCount@CCmdTarget@@UAEIXZ:PROC	; CCmdTarget::GetTypeInfoCount
EXTRN	?GetTypeLibCache@CCmdTarget@@UAEPAVCTypeLibCache@@XZ:PROC ; CCmdTarget::GetTypeLibCache
EXTRN	?GetTypeLib@CCmdTarget@@UAEJKPAPAUITypeLib@@@Z:PROC ; CCmdTarget::GetTypeLib
EXTRN	?GetCommandMap@CCmdTarget@@MBEPBUAFX_OLECMDMAP@@XZ:PROC ; CCmdTarget::GetCommandMap
EXTRN	?GetDispatchMap@CCmdTarget@@MBEPBUAFX_DISPMAP@@XZ:PROC ; CCmdTarget::GetDispatchMap
EXTRN	?GetConnectionMap@CCmdTarget@@MBEPBUAFX_CONNECTIONMAP@@XZ:PROC ; CCmdTarget::GetConnectionMap
EXTRN	?GetEventSinkMap@CCmdTarget@@MBEPBUAFX_EVENTSINKMAP@@XZ:PROC ; CCmdTarget::GetEventSinkMap
EXTRN	?OnCreateAggregates@CCmdTarget@@UAEHXZ:PROC	; CCmdTarget::OnCreateAggregates
EXTRN	?GetInterfaceHook@CCmdTarget@@UAEPAUIUnknown@@PBX@Z:PROC ; CCmdTarget::GetInterfaceHook
EXTRN	?GetExtraConnectionPoints@CCmdTarget@@MAEHPAVCPtrArray@@@Z:PROC ; CCmdTarget::GetExtraConnectionPoints
EXTRN	?GetConnectionHook@CCmdTarget@@MAEPAUIConnectionPoint@@ABU_GUID@@@Z:PROC ; CCmdTarget::GetConnectionHook
EXTRN	??0CWnd@@QAE@XZ:PROC				; CWnd::CWnd
EXTRN	?FromHandle@CWnd@@SGPAV1@PAUHWND__@@@Z:PROC	; CWnd::FromHandle
EXTRN	?PreSubclassWindow@CWnd@@UAEXXZ:PROC		; CWnd::PreSubclassWindow
EXTRN	?Create@CWnd@@UAEHPBD0KABUtagRECT@@PAV1@IPAUCCreateContext@@@Z:PROC ; CWnd::Create
EXTRN	?CreateEx@CWnd@@UAEHKPBD0KHHHHPAUHWND__@@PAUHMENU__@@PAX@Z:PROC ; CWnd::CreateEx
EXTRN	?CreateEx@CWnd@@UAEHKPBD0KABUtagRECT@@PAV1@IPAX@Z:PROC ; CWnd::CreateEx
EXTRN	?DestroyWindow@CWnd@@UAEHXZ:PROC		; CWnd::DestroyWindow
EXTRN	?PreCreateWindow@CWnd@@UAEHAAUtagCREATESTRUCTA@@@Z:PROC ; CWnd::PreCreateWindow
EXTRN	?CalcWindowRect@CWnd@@UAEXPAUtagRECT@@I@Z:PROC	; CWnd::CalcWindowRect
EXTRN	?GetDlgCtrlID@CWnd@@QBEHXZ:PROC			; CWnd::GetDlgCtrlID
EXTRN	?GetWindowTextA@CWnd@@QBEXAAV?$CStringT@DV?$StrTraitMFC_DLL@DV?$ChTraitsCRT@D@ATL@@@@@ATL@@@Z:PROC ; CWnd::GetWindowTextA
EXTRN	?GetMenu@CWnd@@UBEPAVCMenu@@XZ:PROC		; CWnd::GetMenu
EXTRN	?SetMenu@CWnd@@UAEHPAVCMenu@@@Z:PROC		; CWnd::SetMenu
EXTRN	?ShowWindow@CWnd@@QAEHH@Z:PROC			; CWnd::ShowWindow
EXTRN	?OnToolHitTest@CWnd@@UBEHVCPoint@@PAUtagTOOLINFOA@@@Z:PROC ; CWnd::OnToolHitTest
EXTRN	?GetScrollBarCtrl@CWnd@@UBEPAVCScrollBar@@H@Z:PROC ; CWnd::GetScrollBarCtrl
EXTRN	?WinHelpA@CWnd@@UAEXKI@Z:PROC			; CWnd::WinHelpA
EXTRN	?HtmlHelpA@CWnd@@UAEXKI@Z:PROC			; CWnd::HtmlHelpA
EXTRN	?WinHelpInternal@CWnd@@UAEXKI@Z:PROC		; CWnd::WinHelpInternal
EXTRN	?ContinueModal@CWnd@@UAEHXZ:PROC		; CWnd::ContinueModal
EXTRN	?EndModalLoop@CWnd@@UAEXH@Z:PROC		; CWnd::EndModalLoop
EXTRN	?OnDrawIconicThumbnailOrLivePreview@CWnd@@UAEXAAVCDC@@VCRect@@VCSize@@HAAH@Z:PROC ; CWnd::OnDrawIconicThumbnailOrLivePreview
EXTRN	?GetInterfaceMap@CWnd@@MBEPBUAFX_INTERFACEMAP@@XZ:PROC ; CWnd::GetInterfaceMap
EXTRN	?EnsureStdObj@CWnd@@UAEJXZ:PROC			; CWnd::EnsureStdObj
EXTRN	?get_accParent@CWnd@@UAEJPAPAUIDispatch@@@Z:PROC ; CWnd::get_accParent
EXTRN	?get_accChildCount@CWnd@@UAEJPAJ@Z:PROC		; CWnd::get_accChildCount
EXTRN	?get_accChild@CWnd@@UAEJUtagVARIANT@@PAPAUIDispatch@@@Z:PROC ; CWnd::get_accChild
EXTRN	?get_accName@CWnd@@UAEJUtagVARIANT@@PAPA_W@Z:PROC ; CWnd::get_accName
EXTRN	?get_accValue@CWnd@@UAEJUtagVARIANT@@PAPA_W@Z:PROC ; CWnd::get_accValue
EXTRN	?get_accDescription@CWnd@@UAEJUtagVARIANT@@PAPA_W@Z:PROC ; CWnd::get_accDescription
EXTRN	?get_accRole@CWnd@@UAEJUtagVARIANT@@PAU2@@Z:PROC ; CWnd::get_accRole
EXTRN	?get_accState@CWnd@@UAEJUtagVARIANT@@PAU2@@Z:PROC ; CWnd::get_accState
EXTRN	?get_accHelp@CWnd@@UAEJUtagVARIANT@@PAPA_W@Z:PROC ; CWnd::get_accHelp
EXTRN	?get_accHelpTopic@CWnd@@UAEJPAPA_WUtagVARIANT@@PAJ@Z:PROC ; CWnd::get_accHelpTopic
EXTRN	?get_accKeyboardShortcut@CWnd@@UAEJUtagVARIANT@@PAPA_W@Z:PROC ; CWnd::get_accKeyboardShortcut
EXTRN	?get_accFocus@CWnd@@UAEJPAUtagVARIANT@@@Z:PROC	; CWnd::get_accFocus
EXTRN	?get_accSelection@CWnd@@UAEJPAUtagVARIANT@@@Z:PROC ; CWnd::get_accSelection
EXTRN	?get_accDefaultAction@CWnd@@UAEJUtagVARIANT@@PAPA_W@Z:PROC ; CWnd::get_accDefaultAction
EXTRN	?accSelect@CWnd@@UAEJJUtagVARIANT@@@Z:PROC	; CWnd::accSelect
EXTRN	?accLocation@CWnd@@UAEJPAJ000UtagVARIANT@@@Z:PROC ; CWnd::accLocation
EXTRN	?accNavigate@CWnd@@UAEJJUtagVARIANT@@PAU2@@Z:PROC ; CWnd::accNavigate
EXTRN	?accHitTest@CWnd@@UAEJJJPAUtagVARIANT@@@Z:PROC	; CWnd::accHitTest
EXTRN	?accDoDefaultAction@CWnd@@UAEJUtagVARIANT@@@Z:PROC ; CWnd::accDoDefaultAction
EXTRN	?put_accName@CWnd@@UAEJUtagVARIANT@@PA_W@Z:PROC	; CWnd::put_accName
EXTRN	?put_accValue@CWnd@@UAEJUtagVARIANT@@PA_W@Z:PROC ; CWnd::put_accValue
EXTRN	?SetProxy@CWnd@@UAEJPAUIAccessibleProxy@@@Z:PROC ; CWnd::SetProxy
EXTRN	?CreateAccessibleProxy@CWnd@@UAEJIJPAJ@Z:PROC	; CWnd::CreateAccessibleProxy
EXTRN	?OnCommand@CWnd@@MAEHIJ@Z:PROC			; CWnd::OnCommand
EXTRN	?OnNotify@CWnd@@MAEHIJPAJ@Z:PROC		; CWnd::OnNotify
EXTRN	?GetSuperWndProcAddr@CWnd@@MAEPAP6GJPAUHWND__@@IIJ@ZXZ:PROC ; CWnd::GetSuperWndProcAddr
EXTRN	?PreTranslateMessage@CWnd@@UAEHPAUtagMSG@@@Z:PROC ; CWnd::PreTranslateMessage
EXTRN	?OnAmbientProperty@CWnd@@UAEHPAVCOleControlSite@@JPAUtagVARIANT@@@Z:PROC ; CWnd::OnAmbientProperty
EXTRN	?WindowProc@CWnd@@MAEJIIJ@Z:PROC		; CWnd::WindowProc
EXTRN	?OnWndMsg@CWnd@@MAEHIIJPAJ@Z:PROC		; CWnd::OnWndMsg
EXTRN	?Default@CWnd@@IAEJXZ:PROC			; CWnd::Default
EXTRN	?DefWindowProcA@CWnd@@MAEJIIJ@Z:PROC		; CWnd::DefWindowProcA
EXTRN	?PostNcDestroy@CWnd@@MAEXXZ:PROC		; CWnd::PostNcDestroy
EXTRN	?OnChildNotify@CWnd@@MAEHIIJPAJ@Z:PROC		; CWnd::OnChildNotify
EXTRN	?OnTouchInputs@CWnd@@MAEHIPAUtagTOUCHINPUT@@@Z:PROC ; CWnd::OnTouchInputs
EXTRN	?OnTouchInput@CWnd@@MAEHVCPoint@@HHPAUtagTOUCHINPUT@@@Z:PROC ; CWnd::OnTouchInput
EXTRN	?GetGestureStatus@CWnd@@MAEKVCPoint@@@Z:PROC	; CWnd::GetGestureStatus
EXTRN	?OnGestureZoom@CWnd@@MAEHVCPoint@@J@Z:PROC	; CWnd::OnGestureZoom
EXTRN	?OnGesturePan@CWnd@@MAEHVCPoint@@0@Z:PROC	; CWnd::OnGesturePan
EXTRN	?OnGestureRotate@CWnd@@MAEHVCPoint@@N@Z:PROC	; CWnd::OnGestureRotate
EXTRN	?OnGestureTwoFingerTap@CWnd@@MAEHVCPoint@@@Z:PROC ; CWnd::OnGestureTwoFingerTap
EXTRN	?OnGesturePressAndTap@CWnd@@MAEHVCPoint@@J@Z:PROC ; CWnd::OnGesturePressAndTap
EXTRN	?ResizeDynamicLayout@CWnd@@MAEXXZ:PROC		; CWnd::ResizeDynamicLayout
EXTRN	?CheckAutoCenter@CWnd@@UAEHXZ:PROC		; CWnd::CheckAutoCenter
EXTRN	?IsFrameWnd@CWnd@@UBEHXZ:PROC			; CWnd::IsFrameWnd
EXTRN	?OnFinalRelease@CWnd@@UAEXXZ:PROC		; CWnd::OnFinalRelease
EXTRN	?CreateControlContainer@CWnd@@MAEHPAPAVCOleControlContainer@@@Z:PROC ; CWnd::CreateControlContainer
EXTRN	?CreateControlSite@CWnd@@MAEHPAVCOleControlContainer@@PAPAVCOleControlSite@@IABU_GUID@@@Z:PROC ; CWnd::CreateControlSite
EXTRN	?SetOccDialogInfo@CWnd@@MAEHPAU_AFX_OCC_DIALOG_INFO@@@Z:PROC ; CWnd::SetOccDialogInfo
EXTRN	?GetOccDialogInfo@CWnd@@MAEPAU_AFX_OCC_DIALOG_INFO@@XZ:PROC ; CWnd::GetOccDialogInfo
EXTRN	?GetThisMessageMap@CWnd@@KGPBUAFX_MSGMAP@@XZ:PROC ; CWnd::GetThisMessageMap
EXTRN	?GetMessageMap@CWnd@@MBEPBUAFX_MSGMAP@@XZ:PROC	; CWnd::GetMessageMap
EXTRN	?GetRuntimeClass@CEdit@@UBEPAUCRuntimeClass@@XZ:PROC ; CEdit::GetRuntimeClass
EXTRN	?Create@CEdit@@QAEHKABUtagRECT@@PAVCWnd@@I@Z:PROC ; CEdit::Create
EXTRN	??1CEdit@@UAE@XZ:PROC				; CEdit::~CEdit
EXTRN	??_ECEdit@@UAEPAXI@Z:PROC			; CEdit::`vector deleting destructor'
EXTRN	?SetItemState@CListCtrl@@QAEHHII@Z:PROC		; CListCtrl::SetItemState
EXTRN	?GetItemText@CListCtrl@@QBE?AV?$CStringT@DV?$StrTraitMFC_DLL@DV?$ChTraitsCRT@D@ATL@@@@@ATL@@HH@Z:PROC ; CListCtrl::GetItemText
EXTRN	?SetItemText@CListCtrl@@QAEHHHPBD@Z:PROC	; CListCtrl::SetItemText
EXTRN	??_ECLVEdit@@UAEPAXI@Z:PROC			; CLVEdit::`vector deleting destructor'
EXTRN	@__security_check_cookie@4:PROC
EXTRN	___CxxFrameHandler3:PROC
EXTRN	??_7type_info@@6B@:QWORD			; type_info::`vftable'
EXTRN	___security_cookie:DWORD
_BSS	SEGMENT
?RMSG_ELC_CELLEDITED@@3IB DD 01H DUP (?)		; RMSG_ELC_CELLEDITED
_BSS	ENDS
CRT$XCU	SEGMENT
?RMSG_ELC_CELLEDITED$initializer$@@3P6AXXZA DD FLAT:??__ERMSG_ELC_CELLEDITED@@YAXXZ ; RMSG_ELC_CELLEDITED$initializer$
CRT$XCU	ENDS
;	COMDAT ??_R1A@?0A@EA@CLVEdit@@8
rdata$r	SEGMENT
??_R1A@?0A@EA@CLVEdit@@8 DD FLAT:??_R0?AVCLVEdit@@@8	; CLVEdit::`RTTI Base Class Descriptor at (0,-1,0,64)'
	DD	04H
	DD	00H
	DD	0ffffffffH
	DD	00H
	DD	040H
	DD	FLAT:??_R3CLVEdit@@8
rdata$r	ENDS
;	COMDAT ??_R2CLVEdit@@8
rdata$r	SEGMENT
??_R2CLVEdit@@8 DD FLAT:??_R1A@?0A@EA@CLVEdit@@8	; CLVEdit::`RTTI Base Class Array'
	DD	FLAT:??_R1A@?0A@EA@CEdit@@8
	DD	FLAT:??_R1A@?0A@EA@CWnd@@8
	DD	FLAT:??_R1A@?0A@EA@CCmdTarget@@8
	DD	FLAT:??_R1A@?0A@EA@CObject@@8
rdata$r	ENDS
;	COMDAT ??_R3CLVEdit@@8
rdata$r	SEGMENT
??_R3CLVEdit@@8 DD 00H					; CLVEdit::`RTTI Class Hierarchy Descriptor'
	DD	00H
	DD	05H
	DD	FLAT:??_R2CLVEdit@@8
rdata$r	ENDS
;	COMDAT ??_R0?AVCLVEdit@@@8
data$rs	SEGMENT
??_R0?AVCLVEdit@@@8 DD FLAT:??_7type_info@@6B@		; CLVEdit `RTTI Type Descriptor'
	DD	00H
	DB	'.?AVCLVEdit@@', 00H
data$rs	ENDS
;	COMDAT ??_R4CLVEdit@@6B@
rdata$r	SEGMENT
??_R4CLVEdit@@6B@ DD 00H				; CLVEdit::`RTTI Complete Object Locator'
	DD	00H
	DD	00H
	DD	FLAT:??_R0?AVCLVEdit@@@8
	DD	FLAT:??_R3CLVEdit@@8
rdata$r	ENDS
;	COMDAT ?messageMap@?1??GetThisMessageMap@CLVEdit@@KGPBUAFX_MSGMAP@@XZ@4U3@B
CONST	SEGMENT
?messageMap@?1??GetThisMessageMap@CLVEdit@@KGPBUAFX_MSGMAP@@XZ@4U3@B DD FLAT:?GetThisMessageMap@CWnd@@KGPBUAFX_MSGMAP@@XZ ; `CLVEdit::GetThisMessageMap'::`2'::messageMap
	DD	FLAT:?_messageEntries@?1??GetThisMessageMap@CLVEdit@@KGPBUAFX_MSGMAP@@XZ@4QBUAFX_MSGMAP_ENTRY@@B
CONST	ENDS
;	COMDAT ?_messageEntries@?1??GetThisMessageMap@CLVEdit@@KGPBUAFX_MSGMAP@@XZ@4QBUAFX_MSGMAP_ENTRY@@B
CONST	SEGMENT
?_messageEntries@?1??GetThisMessageMap@CLVEdit@@KGPBUAFX_MSGMAP@@XZ@4QBUAFX_MSGMAP_ENTRY@@B DD 08H ; `CLVEdit::GetThisMessageMap'::`2'::_messageEntries
	DD	00H
	DD	00H
	DD	00H
	DD	024H
	DD	FLAT:?OnKillFocus@CLVEdit@@IAEXPAVCWnd@@@Z
	DD	0100H
	DD	00H
	DD	00H
	DD	00H
	DD	019H
	DD	FLAT:?OnKeyDown@CLVEdit@@IAEXIII@Z
	DD	0101H
	DD	00H
	DD	00H
	DD	00H
	DD	019H
	DD	FLAT:?OnKeyUp@CLVEdit@@IAEXIII@Z
	DD	00H
	DD	00H
	DD	00H
	DD	00H
	DD	00H
	DD	00H
CONST	ENDS
;	COMDAT ??_7CLVEdit@@6B@
CONST	SEGMENT
??_7CLVEdit@@6B@ DD FLAT:??_R4CLVEdit@@6B@		; CLVEdit::`vftable'
	DD	FLAT:?GetRuntimeClass@CEdit@@UBEPAUCRuntimeClass@@XZ
	DD	FLAT:??_ECLVEdit@@UAEPAXI@Z
	DD	FLAT:?Serialize@CObject@@UAEXAAVCArchive@@@Z
	DD	FLAT:?AssertValid@CObject@@UBEXXZ
	DD	FLAT:?Dump@CObject@@UBEXAAVCDumpContext@@@Z
	DD	FLAT:?OnCmdMsg@CCmdTarget@@UAEHIHPAXPAUAFX_CMDHANDLERINFO@@@Z
	DD	FLAT:?OnFinalRelease@CWnd@@UAEXXZ
	DD	FLAT:?IsInvokeAllowed@CCmdTarget@@UAEHJ@Z
	DD	FLAT:?GetDispatchIID@CCmdTarget@@UAEHPAU_GUID@@@Z
	DD	FLAT:?GetTypeInfoCount@CCmdTarget@@UAEIXZ
	DD	FLAT:?GetTypeLibCache@CCmdTarget@@UAEPAVCTypeLibCache@@XZ
	DD	FLAT:?GetTypeLib@CCmdTarget@@UAEJKPAPAUITypeLib@@@Z
	DD	FLAT:?GetMessageMap@CLVEdit@@MBEPBUAFX_MSGMAP@@XZ
	DD	FLAT:?GetCommandMap@CCmdTarget@@MBEPBUAFX_OLECMDMAP@@XZ
	DD	FLAT:?GetDispatchMap@CCmdTarget@@MBEPBUAFX_DISPMAP@@XZ
	DD	FLAT:?GetConnectionMap@CCmdTarget@@MBEPBUAFX_CONNECTIONMAP@@XZ
	DD	FLAT:?GetInterfaceMap@CWnd@@MBEPBUAFX_INTERFACEMAP@@XZ
	DD	FLAT:?GetEventSinkMap@CCmdTarget@@MBEPBUAFX_EVENTSINKMAP@@XZ
	DD	FLAT:?OnCreateAggregates@CCmdTarget@@UAEHXZ
	DD	FLAT:?GetInterfaceHook@CCmdTarget@@UAEPAUIUnknown@@PBX@Z
	DD	FLAT:?GetExtraConnectionPoints@CCmdTarget@@MAEHPAVCPtrArray@@@Z
	DD	FLAT:?GetConnectionHook@CCmdTarget@@MAEPAUIConnectionPoint@@ABU_GUID@@@Z
	DD	FLAT:?PreSubclassWindow@CWnd@@UAEXXZ
	DD	FLAT:?Create@CWnd@@UAEHPBD0KABUtagRECT@@PAV1@IPAUCCreateContext@@@Z
	DD	FLAT:?CreateEx@CWnd@@UAEHKPBD0KABUtagRECT@@PAV1@IPAX@Z
	DD	FLAT:?CreateEx@CWnd@@UAEHKPBD0KHHHHPAUHWND__@@PAUHMENU__@@PAX@Z
	DD	FLAT:?DestroyWindow@CWnd@@UAEHXZ
	DD	FLAT:?PreCreateWindow@CWnd@@UAEHAAUtagCREATESTRUCTA@@@Z
	DD	FLAT:?CalcWindowRect@CWnd@@UAEXPAUtagRECT@@I@Z
	DD	FLAT:?GetMenu@CWnd@@UBEPAVCMenu@@XZ
	DD	FLAT:?SetMenu@CWnd@@UAEHPAVCMenu@@@Z
	DD	FLAT:?OnToolHitTest@CWnd@@UBEHVCPoint@@PAUtagTOOLINFOA@@@Z
	DD	FLAT:?GetScrollBarCtrl@CWnd@@UBEPAVCScrollBar@@H@Z
	DD	FLAT:?WinHelpA@CWnd@@UAEXKI@Z
	DD	FLAT:?HtmlHelpA@CWnd@@UAEXKI@Z
	DD	FLAT:?WinHelpInternal@CWnd@@UAEXKI@Z
	DD	FLAT:?ContinueModal@CWnd@@UAEHXZ
	DD	FLAT:?EndModalLoop@CWnd@@UAEXH@Z
	DD	FLAT:?OnDrawIconicThumbnailOrLivePreview@CWnd@@UAEXAAVCDC@@VCRect@@VCSize@@HAAH@Z
	DD	FLAT:?EnsureStdObj@CWnd@@UAEJXZ
	DD	FLAT:?get_accParent@CWnd@@UAEJPAPAUIDispatch@@@Z
	DD	FLAT:?get_accChildCount@CWnd@@UAEJPAJ@Z
	DD	FLAT:?get_accChild@CWnd@@UAEJUtagVARIANT@@PAPAUIDispatch@@@Z
	DD	FLAT:?get_accName@CWnd@@UAEJUtagVARIANT@@PAPA_W@Z
	DD	FLAT:?get_accValue@CWnd@@UAEJUtagVARIANT@@PAPA_W@Z
	DD	FLAT:?get_accDescription@CWnd@@UAEJUtagVARIANT@@PAPA_W@Z
	DD	FLAT:?get_accRole@CWnd@@UAEJUtagVARIANT@@PAU2@@Z
	DD	FLAT:?get_accState@CWnd@@UAEJUtagVARIANT@@PAU2@@Z
	DD	FLAT:?get_accHelp@CWnd@@UAEJUtagVARIANT@@PAPA_W@Z
	DD	FLAT:?get_accHelpTopic@CWnd@@UAEJPAPA_WUtagVARIANT@@PAJ@Z
	DD	FLAT:?get_accKeyboardShortcut@CWnd@@UAEJUtagVARIANT@@PAPA_W@Z
	DD	FLAT:?get_accFocus@CWnd@@UAEJPAUtagVARIANT@@@Z
	DD	FLAT:?get_accSelection@CWnd@@UAEJPAUtagVARIANT@@@Z
	DD	FLAT:?get_accDefaultAction@CWnd@@UAEJUtagVARIANT@@PAPA_W@Z
	DD	FLAT:?accSelect@CWnd@@UAEJJUtagVARIANT@@@Z
	DD	FLAT:?accLocation@CWnd@@UAEJPAJ000UtagVARIANT@@@Z
	DD	FLAT:?accNavigate@CWnd@@UAEJJUtagVARIANT@@PAU2@@Z
	DD	FLAT:?accHitTest@CWnd@@UAEJJJPAUtagVARIANT@@@Z
	DD	FLAT:?accDoDefaultAction@CWnd@@UAEJUtagVARIANT@@@Z
	DD	FLAT:?put_accName@CWnd@@UAEJUtagVARIANT@@PA_W@Z
	DD	FLAT:?put_accValue@CWnd@@UAEJUtagVARIANT@@PA_W@Z
	DD	FLAT:?SetProxy@CWnd@@UAEJPAUIAccessibleProxy@@@Z
	DD	FLAT:?CreateAccessibleProxy@CWnd@@UAEJIJPAJ@Z
	DD	FLAT:?OnCommand@CWnd@@MAEHIJ@Z
	DD	FLAT:?OnNotify@CWnd@@MAEHIJPAJ@Z
	DD	FLAT:?GetSuperWndProcAddr@CWnd@@MAEPAP6GJPAUHWND__@@IIJ@ZXZ
	DD	FLAT:?DoDataExchange@CWnd@@MAEXPAVCDataExchange@@@Z
	DD	FLAT:?BeginModalState@CWnd@@UAEXXZ
	DD	FLAT:?EndModalState@CWnd@@UAEXXZ
	DD	FLAT:?PreTranslateMessage@CLVEdit@@UAEHPAUtagMSG@@@Z
	DD	FLAT:?OnAmbientProperty@CWnd@@UAEHPAVCOleControlSite@@JPAUtagVARIANT@@@Z
	DD	FLAT:?WindowProc@CWnd@@MAEJIIJ@Z
	DD	FLAT:?OnWndMsg@CWnd@@MAEHIIJPAJ@Z
	DD	FLAT:?DefWindowProcA@CWnd@@MAEJIIJ@Z
	DD	FLAT:?PostNcDestroy@CWnd@@MAEXXZ
	DD	FLAT:?OnChildNotify@CWnd@@MAEHIIJPAJ@Z
	DD	FLAT:?OnTouchInputs@CWnd@@MAEHIPAUtagTOUCHINPUT@@@Z
	DD	FLAT:?OnTouchInput@CWnd@@MAEHVCPoint@@HHPAUtagTOUCHINPUT@@@Z
	DD	FLAT:?GetGestureStatus@CWnd@@MAEKVCPoint@@@Z
	DD	FLAT:?OnGestureZoom@CWnd@@MAEHVCPoint@@J@Z
	DD	FLAT:?OnGesturePan@CWnd@@MAEHVCPoint@@0@Z
	DD	FLAT:?OnGestureRotate@CWnd@@MAEHVCPoint@@N@Z
	DD	FLAT:?OnGestureTwoFingerTap@CWnd@@MAEHVCPoint@@@Z
	DD	FLAT:?OnGesturePressAndTap@CWnd@@MAEHVCPoint@@J@Z
	DD	FLAT:?ResizeDynamicLayout@CWnd@@MAEXXZ
	DD	FLAT:?CheckAutoCenter@CWnd@@UAEHXZ
	DD	FLAT:?IsFrameWnd@CWnd@@UBEHXZ
	DD	FLAT:?CreateControlContainer@CWnd@@MAEHPAPAVCOleControlContainer@@@Z
	DD	FLAT:?CreateControlSite@CWnd@@MAEHPAVCOleControlContainer@@PAPAVCOleControlSite@@IABU_GUID@@@Z
	DD	FLAT:?SetOccDialogInfo@CWnd@@MAEHPAU_AFX_OCC_DIALOG_INFO@@@Z
	DD	FLAT:?GetOccDialogInfo@CWnd@@MAEPAU_AFX_OCC_DIALOG_INFO@@XZ
	DD	FLAT:?Create@CLVEdit@@UAEHKABUtagRECT@@PAVCWnd@@I@Z
CONST	ENDS
;	COMDAT ??_R1A@?0A@EA@CEdit@@8
rdata$r	SEGMENT
??_R1A@?0A@EA@CEdit@@8 DD FLAT:??_R0?AVCEdit@@@8	; CEdit::`RTTI Base Class Descriptor at (0,-1,0,64)'
	DD	03H
	DD	00H
	DD	0ffffffffH
	DD	00H
	DD	040H
	DD	FLAT:??_R3CEdit@@8
rdata$r	ENDS
;	COMDAT ??_R2CEdit@@8
rdata$r	SEGMENT
??_R2CEdit@@8 DD FLAT:??_R1A@?0A@EA@CEdit@@8		; CEdit::`RTTI Base Class Array'
	DD	FLAT:??_R1A@?0A@EA@CWnd@@8
	DD	FLAT:??_R1A@?0A@EA@CCmdTarget@@8
	DD	FLAT:??_R1A@?0A@EA@CObject@@8
rdata$r	ENDS
;	COMDAT ??_R3CEdit@@8
rdata$r	SEGMENT
??_R3CEdit@@8 DD 00H					; CEdit::`RTTI Class Hierarchy Descriptor'
	DD	00H
	DD	04H
	DD	FLAT:??_R2CEdit@@8
rdata$r	ENDS
;	COMDAT ??_R0?AVCEdit@@@8
data$rs	SEGMENT
??_R0?AVCEdit@@@8 DD FLAT:??_7type_info@@6B@		; CEdit `RTTI Type Descriptor'
	DD	00H
	DB	'.?AVCEdit@@', 00H
data$rs	ENDS
;	COMDAT ??_R4CEdit@@6B@
rdata$r	SEGMENT
??_R4CEdit@@6B@ DD 00H					; CEdit::`RTTI Complete Object Locator'
	DD	00H
	DD	00H
	DD	FLAT:??_R0?AVCEdit@@@8
	DD	FLAT:??_R3CEdit@@8
rdata$r	ENDS
;	COMDAT ??_R2CCmdTarget@@8
rdata$r	SEGMENT
??_R2CCmdTarget@@8 DD FLAT:??_R1A@?0A@EA@CCmdTarget@@8	; CCmdTarget::`RTTI Base Class Array'
	DD	FLAT:??_R1A@?0A@EA@CObject@@8
rdata$r	ENDS
;	COMDAT ??_R3CCmdTarget@@8
rdata$r	SEGMENT
??_R3CCmdTarget@@8 DD 00H				; CCmdTarget::`RTTI Class Hierarchy Descriptor'
	DD	00H
	DD	02H
	DD	FLAT:??_R2CCmdTarget@@8
rdata$r	ENDS
;	COMDAT ??_R0?AVCCmdTarget@@@8
data$rs	SEGMENT
??_R0?AVCCmdTarget@@@8 DD FLAT:??_7type_info@@6B@	; CCmdTarget `RTTI Type Descriptor'
	DD	00H
	DB	'.?AVCCmdTarget@@', 00H
data$rs	ENDS
;	COMDAT ??_R1A@?0A@EA@CCmdTarget@@8
rdata$r	SEGMENT
??_R1A@?0A@EA@CCmdTarget@@8 DD FLAT:??_R0?AVCCmdTarget@@@8 ; CCmdTarget::`RTTI Base Class Descriptor at (0,-1,0,64)'
	DD	01H
	DD	00H
	DD	0ffffffffH
	DD	00H
	DD	040H
	DD	FLAT:??_R3CCmdTarget@@8
rdata$r	ENDS
;	COMDAT ??_R2CWnd@@8
rdata$r	SEGMENT
??_R2CWnd@@8 DD	FLAT:??_R1A@?0A@EA@CWnd@@8		; CWnd::`RTTI Base Class Array'
	DD	FLAT:??_R1A@?0A@EA@CCmdTarget@@8
	DD	FLAT:??_R1A@?0A@EA@CObject@@8
rdata$r	ENDS
;	COMDAT ??_R3CWnd@@8
rdata$r	SEGMENT
??_R3CWnd@@8 DD	00H					; CWnd::`RTTI Class Hierarchy Descriptor'
	DD	00H
	DD	03H
	DD	FLAT:??_R2CWnd@@8
rdata$r	ENDS
;	COMDAT ??_R0?AVCWnd@@@8
data$rs	SEGMENT
??_R0?AVCWnd@@@8 DD FLAT:??_7type_info@@6B@		; CWnd `RTTI Type Descriptor'
	DD	00H
	DB	'.?AVCWnd@@', 00H
data$rs	ENDS
;	COMDAT ??_R1A@?0A@EA@CWnd@@8
rdata$r	SEGMENT
??_R1A@?0A@EA@CWnd@@8 DD FLAT:??_R0?AVCWnd@@@8		; CWnd::`RTTI Base Class Descriptor at (0,-1,0,64)'
	DD	02H
	DD	00H
	DD	0ffffffffH
	DD	00H
	DD	040H
	DD	FLAT:??_R3CWnd@@8
rdata$r	ENDS
;	COMDAT ??_R1A@?0A@EA@CObject@@8
rdata$r	SEGMENT
??_R1A@?0A@EA@CObject@@8 DD FLAT:??_R0?AVCObject@@@8	; CObject::`RTTI Base Class Descriptor at (0,-1,0,64)'
	DD	00H
	DD	00H
	DD	0ffffffffH
	DD	00H
	DD	040H
	DD	FLAT:??_R3CObject@@8
rdata$r	ENDS
;	COMDAT ??_R2CObject@@8
rdata$r	SEGMENT
??_R2CObject@@8 DD FLAT:??_R1A@?0A@EA@CObject@@8	; CObject::`RTTI Base Class Array'
rdata$r	ENDS
;	COMDAT ??_R3CObject@@8
rdata$r	SEGMENT
??_R3CObject@@8 DD 00H					; CObject::`RTTI Class Hierarchy Descriptor'
	DD	00H
	DD	01H
	DD	FLAT:??_R2CObject@@8
rdata$r	ENDS
;	COMDAT ??_R0?AVCObject@@@8
data$rs	SEGMENT
??_R0?AVCObject@@@8 DD FLAT:??_7type_info@@6B@		; CObject `RTTI Type Descriptor'
	DD	00H
	DB	'.?AVCObject@@', 00H
data$rs	ENDS
;	COMDAT ??_7CEdit@@6B@
CONST	SEGMENT
??_7CEdit@@6B@ DD FLAT:??_R4CEdit@@6B@			; CEdit::`vftable'
	DD	FLAT:?GetRuntimeClass@CEdit@@UBEPAUCRuntimeClass@@XZ
	DD	FLAT:??_ECEdit@@UAEPAXI@Z
	DD	FLAT:?Serialize@CObject@@UAEXAAVCArchive@@@Z
	DD	FLAT:?AssertValid@CObject@@UBEXXZ
	DD	FLAT:?Dump@CObject@@UBEXAAVCDumpContext@@@Z
	DD	FLAT:?OnCmdMsg@CCmdTarget@@UAEHIHPAXPAUAFX_CMDHANDLERINFO@@@Z
	DD	FLAT:?OnFinalRelease@CWnd@@UAEXXZ
	DD	FLAT:?IsInvokeAllowed@CCmdTarget@@UAEHJ@Z
	DD	FLAT:?GetDispatchIID@CCmdTarget@@UAEHPAU_GUID@@@Z
	DD	FLAT:?GetTypeInfoCount@CCmdTarget@@UAEIXZ
	DD	FLAT:?GetTypeLibCache@CCmdTarget@@UAEPAVCTypeLibCache@@XZ
	DD	FLAT:?GetTypeLib@CCmdTarget@@UAEJKPAPAUITypeLib@@@Z
	DD	FLAT:?GetMessageMap@CWnd@@MBEPBUAFX_MSGMAP@@XZ
	DD	FLAT:?GetCommandMap@CCmdTarget@@MBEPBUAFX_OLECMDMAP@@XZ
	DD	FLAT:?GetDispatchMap@CCmdTarget@@MBEPBUAFX_DISPMAP@@XZ
	DD	FLAT:?GetConnectionMap@CCmdTarget@@MBEPBUAFX_CONNECTIONMAP@@XZ
	DD	FLAT:?GetInterfaceMap@CWnd@@MBEPBUAFX_INTERFACEMAP@@XZ
	DD	FLAT:?GetEventSinkMap@CCmdTarget@@MBEPBUAFX_EVENTSINKMAP@@XZ
	DD	FLAT:?OnCreateAggregates@CCmdTarget@@UAEHXZ
	DD	FLAT:?GetInterfaceHook@CCmdTarget@@UAEPAUIUnknown@@PBX@Z
	DD	FLAT:?GetExtraConnectionPoints@CCmdTarget@@MAEHPAVCPtrArray@@@Z
	DD	FLAT:?GetConnectionHook@CCmdTarget@@MAEPAUIConnectionPoint@@ABU_GUID@@@Z
	DD	FLAT:?PreSubclassWindow@CWnd@@UAEXXZ
	DD	FLAT:?Create@CWnd@@UAEHPBD0KABUtagRECT@@PAV1@IPAUCCreateContext@@@Z
	DD	FLAT:?CreateEx@CWnd@@UAEHKPBD0KABUtagRECT@@PAV1@IPAX@Z
	DD	FLAT:?CreateEx@CWnd@@UAEHKPBD0KHHHHPAUHWND__@@PAUHMENU__@@PAX@Z
	DD	FLAT:?DestroyWindow@CWnd@@UAEHXZ
	DD	FLAT:?PreCreateWindow@CWnd@@UAEHAAUtagCREATESTRUCTA@@@Z
	DD	FLAT:?CalcWindowRect@CWnd@@UAEXPAUtagRECT@@I@Z
	DD	FLAT:?GetMenu@CWnd@@UBEPAVCMenu@@XZ
	DD	FLAT:?SetMenu@CWnd@@UAEHPAVCMenu@@@Z
	DD	FLAT:?OnToolHitTest@CWnd@@UBEHVCPoint@@PAUtagTOOLINFOA@@@Z
	DD	FLAT:?GetScrollBarCtrl@CWnd@@UBEPAVCScrollBar@@H@Z
	DD	FLAT:?WinHelpA@CWnd@@UAEXKI@Z
	DD	FLAT:?HtmlHelpA@CWnd@@UAEXKI@Z
	DD	FLAT:?WinHelpInternal@CWnd@@UAEXKI@Z
	DD	FLAT:?ContinueModal@CWnd@@UAEHXZ
	DD	FLAT:?EndModalLoop@CWnd@@UAEXH@Z
	DD	FLAT:?OnDrawIconicThumbnailOrLivePreview@CWnd@@UAEXAAVCDC@@VCRect@@VCSize@@HAAH@Z
	DD	FLAT:?EnsureStdObj@CWnd@@UAEJXZ
	DD	FLAT:?get_accParent@CWnd@@UAEJPAPAUIDispatch@@@Z
	DD	FLAT:?get_accChildCount@CWnd@@UAEJPAJ@Z
	DD	FLAT:?get_accChild@CWnd@@UAEJUtagVARIANT@@PAPAUIDispatch@@@Z
	DD	FLAT:?get_accName@CWnd@@UAEJUtagVARIANT@@PAPA_W@Z
	DD	FLAT:?get_accValue@CWnd@@UAEJUtagVARIANT@@PAPA_W@Z
	DD	FLAT:?get_accDescription@CWnd@@UAEJUtagVARIANT@@PAPA_W@Z
	DD	FLAT:?get_accRole@CWnd@@UAEJUtagVARIANT@@PAU2@@Z
	DD	FLAT:?get_accState@CWnd@@UAEJUtagVARIANT@@PAU2@@Z
	DD	FLAT:?get_accHelp@CWnd@@UAEJUtagVARIANT@@PAPA_W@Z
	DD	FLAT:?get_accHelpTopic@CWnd@@UAEJPAPA_WUtagVARIANT@@PAJ@Z
	DD	FLAT:?get_accKeyboardShortcut@CWnd@@UAEJUtagVARIANT@@PAPA_W@Z
	DD	FLAT:?get_accFocus@CWnd@@UAEJPAUtagVARIANT@@@Z
	DD	FLAT:?get_accSelection@CWnd@@UAEJPAUtagVARIANT@@@Z
	DD	FLAT:?get_accDefaultAction@CWnd@@UAEJUtagVARIANT@@PAPA_W@Z
	DD	FLAT:?accSelect@CWnd@@UAEJJUtagVARIANT@@@Z
	DD	FLAT:?accLocation@CWnd@@UAEJPAJ000UtagVARIANT@@@Z
	DD	FLAT:?accNavigate@CWnd@@UAEJJUtagVARIANT@@PAU2@@Z
	DD	FLAT:?accHitTest@CWnd@@UAEJJJPAUtagVARIANT@@@Z
	DD	FLAT:?accDoDefaultAction@CWnd@@UAEJUtagVARIANT@@@Z
	DD	FLAT:?put_accName@CWnd@@UAEJUtagVARIANT@@PA_W@Z
	DD	FLAT:?put_accValue@CWnd@@UAEJUtagVARIANT@@PA_W@Z
	DD	FLAT:?SetProxy@CWnd@@UAEJPAUIAccessibleProxy@@@Z
	DD	FLAT:?CreateAccessibleProxy@CWnd@@UAEJIJPAJ@Z
	DD	FLAT:?OnCommand@CWnd@@MAEHIJ@Z
	DD	FLAT:?OnNotify@CWnd@@MAEHIJPAJ@Z
	DD	FLAT:?GetSuperWndProcAddr@CWnd@@MAEPAP6GJPAUHWND__@@IIJ@ZXZ
	DD	FLAT:?DoDataExchange@CWnd@@MAEXPAVCDataExchange@@@Z
	DD	FLAT:?BeginModalState@CWnd@@UAEXXZ
	DD	FLAT:?EndModalState@CWnd@@UAEXXZ
	DD	FLAT:?PreTranslateMessage@CWnd@@UAEHPAUtagMSG@@@Z
	DD	FLAT:?OnAmbientProperty@CWnd@@UAEHPAVCOleControlSite@@JPAUtagVARIANT@@@Z
	DD	FLAT:?WindowProc@CWnd@@MAEJIIJ@Z
	DD	FLAT:?OnWndMsg@CWnd@@MAEHIIJPAJ@Z
	DD	FLAT:?DefWindowProcA@CWnd@@MAEJIIJ@Z
	DD	FLAT:?PostNcDestroy@CWnd@@MAEXXZ
	DD	FLAT:?OnChildNotify@CWnd@@MAEHIIJPAJ@Z
	DD	FLAT:?OnTouchInputs@CWnd@@MAEHIPAUtagTOUCHINPUT@@@Z
	DD	FLAT:?OnTouchInput@CWnd@@MAEHVCPoint@@HHPAUtagTOUCHINPUT@@@Z
	DD	FLAT:?GetGestureStatus@CWnd@@MAEKVCPoint@@@Z
	DD	FLAT:?OnGestureZoom@CWnd@@MAEHVCPoint@@J@Z
	DD	FLAT:?OnGesturePan@CWnd@@MAEHVCPoint@@0@Z
	DD	FLAT:?OnGestureRotate@CWnd@@MAEHVCPoint@@N@Z
	DD	FLAT:?OnGestureTwoFingerTap@CWnd@@MAEHVCPoint@@@Z
	DD	FLAT:?OnGesturePressAndTap@CWnd@@MAEHVCPoint@@J@Z
	DD	FLAT:?ResizeDynamicLayout@CWnd@@MAEXXZ
	DD	FLAT:?CheckAutoCenter@CWnd@@UAEHXZ
	DD	FLAT:?IsFrameWnd@CWnd@@UBEHXZ
	DD	FLAT:?CreateControlContainer@CWnd@@MAEHPAPAVCOleControlContainer@@@Z
	DD	FLAT:?CreateControlSite@CWnd@@MAEHPAVCOleControlContainer@@PAPAVCOleControlSite@@IABU_GUID@@@Z
	DD	FLAT:?SetOccDialogInfo@CWnd@@MAEHPAU_AFX_OCC_DIALOG_INFO@@@Z
	DD	FLAT:?GetOccDialogInfo@CWnd@@MAEPAU_AFX_OCC_DIALOG_INFO@@XZ
CONST	ENDS
;	COMDAT xdata$x
xdata$x	SEGMENT
__unwindtable$?UpdateToListCtrl@CLVEdit@@IAEXXZ DD 0ffffffffH
	DD	FLAT:__unwindfunclet$?UpdateToListCtrl@CLVEdit@@IAEXXZ$0
	DD	00H
	DD	FLAT:__unwindfunclet$?UpdateToListCtrl@CLVEdit@@IAEXXZ$1
__ehfuncinfo$?UpdateToListCtrl@CLVEdit@@IAEXXZ DD 019930522H
	DD	02H
	DD	FLAT:__unwindtable$?UpdateToListCtrl@CLVEdit@@IAEXXZ
	DD	2 DUP(00H)
	DD	2 DUP(00H)
	DD	00H
	DD	01H
xdata$x	ENDS
;	COMDAT xdata$x
xdata$x	SEGMENT
__unwindtable$?PreTranslateMessage@CLVEdit@@UAEHPAUtagMSG@@@Z DD 0ffffffffH
	DD	FLAT:__unwindfunclet$?PreTranslateMessage@CLVEdit@@UAEHPAUtagMSG@@@Z$0
	DD	00H
	DD	FLAT:__unwindfunclet$?PreTranslateMessage@CLVEdit@@UAEHPAUtagMSG@@@Z$1
__ehfuncinfo$?PreTranslateMessage@CLVEdit@@UAEHPAUtagMSG@@@Z DD 019930522H
	DD	02H
	DD	FLAT:__unwindtable$?PreTranslateMessage@CLVEdit@@UAEHPAUtagMSG@@@Z
	DD	2 DUP(00H)
	DD	2 DUP(00H)
	DD	00H
	DD	01H
xdata$x	ENDS
; Function compile flags: /Ogtp
; File D:\git\src\IBK\IBK_DRFN\ProjSrc\SrcChartEx\ChartOCX\AddInManager\ChartCommonAddIn\EditableListCtrl.h
;	COMDAT ??__ERMSG_ELC_CELLEDITED@@YAXXZ
text$di	SEGMENT
??__ERMSG_ELC_CELLEDITED@@YAXXZ PROC			; `dynamic initializer for 'RMSG_ELC_CELLEDITED'', COMDAT

; 27   : const UINT RMSG_ELC_CELLEDITED = ::RegisterWindowMessage(_T("RMSG_EDITABLELISTCTRL_CELLEDITED"));

  00000	68 00 00 00 00	 push	 OFFSET ??_C@_0CB@EFDCECKM@RMSG_EDITABLELISTCTRL_CELLEDITE@
  00005	ff 15 00 00 00
	00		 call	 DWORD PTR __imp__RegisterWindowMessageA@4
  0000b	a3 00 00 00 00	 mov	 DWORD PTR ?RMSG_ELC_CELLEDITED@@3IB, eax
  00010	c3		 ret	 0
??__ERMSG_ELC_CELLEDITED@@YAXXZ ENDP			; `dynamic initializer for 'RMSG_ELC_CELLEDITED''
text$di	ENDS
; Function compile flags: /Ogtp
; File D:\git\src\IBK\IBK_DRFN\ProjSrc\SrcChartEx\ChartOCX\AddInManager\ChartCommonAddIn\LVEdit.cpp
; File C:\Program Files (x86)\Microsoft Visual Studio\2019\Community\VC\Tools\MSVC\14.29.30133\atlmfc\include\afx.inl
;	COMDAT ??_GCLVEdit@@UAEPAXI@Z
_TEXT	SEGMENT
___flags$ = 8						; size = 4
??_GCLVEdit@@UAEPAXI@Z PROC				; CLVEdit::`scalar deleting destructor', COMDAT
; _this$ = ecx
  00000	55		 push	 ebp
  00001	8b ec		 mov	 ebp, esp
; File D:\git\src\IBK\IBK_DRFN\ProjSrc\SrcChartEx\ChartOCX\AddInManager\ChartCommonAddIn\LVEdit.cpp

; 44   : {

  00003	56		 push	 esi
  00004	8b f1		 mov	 esi, ecx
  00006	c7 06 00 00 00
	00		 mov	 DWORD PTR [esi], OFFSET ??_7CLVEdit@@6B@

; 45   : }

  0000c	e8 00 00 00 00	 call	 ??1CEdit@@UAE@XZ	; CEdit::~CEdit
  00011	8b 45 08	 mov	 eax, DWORD PTR ___flags$[ebp]
  00014	a8 01		 test	 al, 1
  00016	74 22		 je	 SHORT $LN12@scalar
  00018	a8 04		 test	 al, 4
  0001a	75 10		 jne	 SHORT $LN3@scalar
; File C:\Program Files (x86)\Microsoft Visual Studio\2019\Community\VC\Tools\MSVC\14.29.30133\atlmfc\include\afx.inl

; 112  : 	{ ::operator delete(p); }

  0001c	56		 push	 esi
  0001d	e8 00 00 00 00	 call	 ??3@YAXPAX@Z		; operator delete
  00022	83 c4 04	 add	 esp, 4
  00025	8b c6		 mov	 eax, esi
  00027	5e		 pop	 esi
  00028	5d		 pop	 ebp
  00029	c2 04 00	 ret	 4
$LN3@scalar:
  0002c	68 98 00 00 00	 push	 152			; 00000098H
  00031	56		 push	 esi
  00032	e8 00 00 00 00	 call	 ?__global_delete@@YAXPAXI@Z ; __global_delete
  00037	83 c4 08	 add	 esp, 8
$LN12@scalar:
  0003a	8b c6		 mov	 eax, esi
  0003c	5e		 pop	 esi
  0003d	5d		 pop	 ebp
  0003e	c2 04 00	 ret	 4
??_GCLVEdit@@UAEPAXI@Z ENDP				; CLVEdit::`scalar deleting destructor'
_TEXT	ENDS
; Function compile flags: /Ogtp
; File D:\git\src\IBK\IBK_DRFN\ProjSrc\SrcChartEx\ChartOCX\AddInManager\ChartCommonAddIn\LVEdit.cpp
; File C:\Program Files (x86)\Microsoft Visual Studio\2019\Community\VC\Tools\MSVC\14.29.30133\atlmfc\include\afxcoll.inl
; File D:\git\src\IBK\IBK_DRFN\ProjSrc\SrcChartEx\ChartOCX\AddInManager\ChartCommonAddIn\LVEdit.cpp
; File C:\Program Files (x86)\Microsoft Visual Studio\2019\Community\VC\Tools\MSVC\14.29.30133\atlmfc\include\afxwin2.inl
; File D:\git\src\IBK\IBK_DRFN\ProjSrc\SrcChartEx\ChartOCX\AddInManager\ChartCommonAddIn\LVEdit.cpp
; File C:\Program Files (x86)\Microsoft Visual Studio\2019\Community\VC\Tools\MSVC\14.29.30133\atlmfc\include\afxwin2.inl
; File D:\git\src\IBK\IBK_DRFN\ProjSrc\SrcChartEx\ChartOCX\AddInManager\ChartCommonAddIn\LVEdit.cpp
; File C:\Program Files (x86)\Microsoft Visual Studio\2019\Community\VC\Tools\MSVC\14.29.30133\atlmfc\include\afxwin2.inl
; File D:\git\src\IBK\IBK_DRFN\ProjSrc\SrcChartEx\ChartOCX\AddInManager\ChartCommonAddIn\LVEdit.cpp
; File C:\Program Files (x86)\Microsoft Visual Studio\2019\Community\VC\Tools\MSVC\14.29.30133\atlmfc\include\afxcoll.inl
; File D:\git\src\IBK\IBK_DRFN\ProjSrc\SrcChartEx\ChartOCX\AddInManager\ChartCommonAddIn\LVEdit.cpp
;	COMDAT ?UpdateToListCtrl@CLVEdit@@IAEXXZ
_TEXT	SEGMENT
_nmEditableListCtrl$2 = -36				; size = 16
_strOldValue$3 = -20					; size = 4
_strNewValue$4 = -16					; size = 4
__$EHRec$ = -12						; size = 12
?UpdateToListCtrl@CLVEdit@@IAEXXZ PROC			; CLVEdit::UpdateToListCtrl, COMDAT
; _this$ = ecx

; 229  : {

  00000	55		 push	 ebp
  00001	8b ec		 mov	 ebp, esp
  00003	6a ff		 push	 -1
  00005	68 00 00 00 00	 push	 __ehhandler$?UpdateToListCtrl@CLVEdit@@IAEXXZ
  0000a	64 a1 00 00 00
	00		 mov	 eax, DWORD PTR fs:0
  00010	50		 push	 eax
  00011	83 ec 18	 sub	 esp, 24			; 00000018H
  00014	56		 push	 esi
  00015	57		 push	 edi
  00016	a1 00 00 00 00	 mov	 eax, DWORD PTR ___security_cookie
  0001b	33 c5		 xor	 eax, ebp
  0001d	50		 push	 eax
  0001e	8d 45 f4	 lea	 eax, DWORD PTR __$EHRec$[ebp]
  00021	64 a3 00 00 00
	00		 mov	 DWORD PTR fs:0, eax
  00027	8b f9		 mov	 edi, ecx

; 230  : 	// (2003.02.21) ESC에 의한 Kill Focus시에는 Update가 되지 않도록 m_nSubItem을 확인한다.
; 231  : 	//	m_nSubItem이 -1이면 ESC가 눌린 다음이다.
; 232  : 	if( m_nSubItem < 0) return;

  00029	8b 97 84 00 00
	00		 mov	 edx, DWORD PTR [edi+132]
  0002f	85 d2		 test	 edx, edx
  00031	0f 88 d1 00 00
	00		 js	 $LN3@UpdateToLi

; 236  : 	if( m_pEditableListCtrl->m_bEditableColumn[ m_nSubItem] == 2)

  00037	8b 8f 90 00 00
	00		 mov	 ecx, DWORD PTR [edi+144]
; File C:\Program Files (x86)\Microsoft Visual Studio\2019\Community\VC\Tools\MSVC\14.29.30133\atlmfc\include\afxcoll.inl

; 42   : 		if( nIndex < 0 || nIndex >= m_nSize )

  0003d	3b 91 88 00 00
	00		 cmp	 edx, DWORD PTR [ecx+136]
  00043	0f 8d d0 00 00
	00		 jge	 $LN11@UpdateToLi

; 44   : 		return m_pData[nIndex]; }

  00049	8b 81 84 00 00
	00		 mov	 eax, DWORD PTR [ecx+132]
; File D:\git\src\IBK\IBK_DRFN\ProjSrc\SrcChartEx\ChartOCX\AddInManager\ChartCommonAddIn\LVEdit.cpp

; 236  : 	if( m_pEditableListCtrl->m_bEditableColumn[ m_nSubItem] == 2)

  0004f	80 3c 10 02	 cmp	 BYTE PTR [eax+edx], 2
  00053	0f 85 af 00 00
	00		 jne	 $LN3@UpdateToLi

; 237  : 	{
; 238  : 		// (2003.02.02) Notification에 수정 이전의 Data도 전달하도록 한다.
; 239  : 		CString strOldValue = m_pEditableListCtrl->GetItemText( m_nItem, m_nSubItem);

  00059	52		 push	 edx
  0005a	ff b7 80 00 00
	00		 push	 DWORD PTR [edi+128]
  00060	8d 45 ec	 lea	 eax, DWORD PTR _strOldValue$3[ebp]
  00063	50		 push	 eax
  00064	e8 00 00 00 00	 call	 ?GetItemText@CListCtrl@@QBE?AV?$CStringT@DV?$StrTraitMFC_DLL@DV?$ChTraitsCRT@D@ATL@@@@@ATL@@HH@Z ; CListCtrl::GetItemText

; 240  : 
; 241  : 		CString strNewValue;

  00069	8d 4d f0	 lea	 ecx, DWORD PTR _strNewValue$4[ebp]
  0006c	c7 45 fc 00 00
	00 00		 mov	 DWORD PTR __$EHRec$[ebp+8], 0
  00073	ff 15 00 00 00
	00		 call	 DWORD PTR __imp_??0?$CStringT@DV?$StrTraitMFC_DLL@DV?$ChTraitsCRT@D@ATL@@@@@ATL@@QAE@XZ

; 242  : 		GetWindowText( strNewValue);

  00079	8d 45 f0	 lea	 eax, DWORD PTR _strNewValue$4[ebp]
  0007c	c6 45 fc 01	 mov	 BYTE PTR __$EHRec$[ebp+8], 1
  00080	50		 push	 eax
  00081	8b cf		 mov	 ecx, edi
  00083	e8 00 00 00 00	 call	 ?GetWindowTextA@CWnd@@QBEXAAV?$CStringT@DV?$StrTraitMFC_DLL@DV?$ChTraitsCRT@D@ATL@@@@@ATL@@@Z ; CWnd::GetWindowTextA

; 243  : 		m_pEditableListCtrl->SetItemText( m_nItem, m_nSubItem, strNewValue);

  00088	ff 75 f0	 push	 DWORD PTR _strNewValue$4[ebp]
  0008b	8b 8f 90 00 00
	00		 mov	 ecx, DWORD PTR [edi+144]
  00091	ff b7 84 00 00
	00		 push	 DWORD PTR [edi+132]
  00097	ff b7 80 00 00
	00		 push	 DWORD PTR [edi+128]
  0009d	e8 00 00 00 00	 call	 ?SetItemText@CListCtrl@@QAEHHHPBD@Z ; CListCtrl::SetItemText

; 244  : 
; 245  : 		// (2003.01.31) Parent Window에게 편집완료됨을 알리는 Notification을 처리한다.
; 246  : 		NMEDITABLELISTCTRL nmEditableListCtrl;
; 247  : 		nmEditableListCtrl.m_nItemIndex = m_nItem;

  000a2	8b 87 80 00 00
	00		 mov	 eax, DWORD PTR [edi+128]
  000a8	89 45 dc	 mov	 DWORD PTR _nmEditableListCtrl$2[ebp], eax

; 248  : 		nmEditableListCtrl.m_nColumnIndex = m_nSubItem;

  000ab	8b 87 84 00 00
	00		 mov	 eax, DWORD PTR [edi+132]
  000b1	89 45 e0	 mov	 DWORD PTR _nmEditableListCtrl$2[ebp+4], eax

; 249  : 		nmEditableListCtrl.m_szOldData = strOldValue;

  000b4	8b 45 ec	 mov	 eax, DWORD PTR _strOldValue$3[ebp]
  000b7	89 45 e8	 mov	 DWORD PTR _nmEditableListCtrl$2[ebp+12], eax

; 250  : 		nmEditableListCtrl.m_szNewData = strNewValue;

  000ba	8b 45 f0	 mov	 eax, DWORD PTR _strNewValue$4[ebp]
  000bd	89 45 e4	 mov	 DWORD PTR _nmEditableListCtrl$2[ebp+8], eax

; 251  : 		m_pEditableListCtrl->GetParent()->SendMessage( RMSG_ELC_CELLEDITED, m_pEditableListCtrl->GetDlgCtrlID(), ( LPARAM)&nmEditableListCtrl);

  000c0	8b 87 90 00 00
	00		 mov	 eax, DWORD PTR [edi+144]
; File C:\Program Files (x86)\Microsoft Visual Studio\2019\Community\VC\Tools\MSVC\14.29.30133\atlmfc\include\afxwin2.inl

; 213  : 	{ ASSERT(::IsWindow(m_hWnd)); return CWnd::FromHandle(::GetParent(m_hWnd)); }

  000c6	ff 70 20	 push	 DWORD PTR [eax+32]
  000c9	ff 15 00 00 00
	00		 call	 DWORD PTR __imp__GetParent@4
  000cf	50		 push	 eax
  000d0	e8 00 00 00 00	 call	 ?FromHandle@CWnd@@SGPAV1@PAUHWND__@@@Z ; CWnd::FromHandle
; File D:\git\src\IBK\IBK_DRFN\ProjSrc\SrcChartEx\ChartOCX\AddInManager\ChartCommonAddIn\LVEdit.cpp

; 251  : 		m_pEditableListCtrl->GetParent()->SendMessage( RMSG_ELC_CELLEDITED, m_pEditableListCtrl->GetDlgCtrlID(), ( LPARAM)&nmEditableListCtrl);

  000d5	8b 8f 90 00 00
	00		 mov	 ecx, DWORD PTR [edi+144]
; File C:\Program Files (x86)\Microsoft Visual Studio\2019\Community\VC\Tools\MSVC\14.29.30133\atlmfc\include\afxwin2.inl

; 213  : 	{ ASSERT(::IsWindow(m_hWnd)); return CWnd::FromHandle(::GetParent(m_hWnd)); }

  000db	8b f0		 mov	 esi, eax
; File D:\git\src\IBK\IBK_DRFN\ProjSrc\SrcChartEx\ChartOCX\AddInManager\ChartCommonAddIn\LVEdit.cpp

; 251  : 		m_pEditableListCtrl->GetParent()->SendMessage( RMSG_ELC_CELLEDITED, m_pEditableListCtrl->GetDlgCtrlID(), ( LPARAM)&nmEditableListCtrl);

  000dd	e8 00 00 00 00	 call	 ?GetDlgCtrlID@CWnd@@QBEHXZ ; CWnd::GetDlgCtrlID
; File C:\Program Files (x86)\Microsoft Visual Studio\2019\Community\VC\Tools\MSVC\14.29.30133\atlmfc\include\afxwin2.inl

; 32   : 	{ ASSERT(::IsWindow(m_hWnd)); return ::SendMessage(m_hWnd, message, wParam, lParam); }

  000e2	8d 4d dc	 lea	 ecx, DWORD PTR _nmEditableListCtrl$2[ebp]
  000e5	51		 push	 ecx
  000e6	50		 push	 eax
  000e7	ff 35 00 00 00
	00		 push	 DWORD PTR ?RMSG_ELC_CELLEDITED@@3IB
  000ed	ff 76 20	 push	 DWORD PTR [esi+32]
  000f0	ff 15 00 00 00
	00		 call	 DWORD PTR __imp__SendMessageA@16
; File D:\git\src\IBK\IBK_DRFN\ProjSrc\SrcChartEx\ChartOCX\AddInManager\ChartCommonAddIn\LVEdit.cpp

; 252  : 	}

  000f6	8d 4d f0	 lea	 ecx, DWORD PTR _strNewValue$4[ebp]
  000f9	ff 15 00 00 00
	00		 call	 DWORD PTR __imp_??1?$CStringT@DV?$StrTraitMFC_DLL@DV?$ChTraitsCRT@D@ATL@@@@@ATL@@QAE@XZ
  000ff	8d 4d ec	 lea	 ecx, DWORD PTR _strOldValue$3[ebp]
  00102	ff 15 00 00 00
	00		 call	 DWORD PTR __imp_??1?$CStringT@DV?$StrTraitMFC_DLL@DV?$ChTraitsCRT@D@ATL@@@@@ATL@@QAE@XZ
$LN3@UpdateToLi:

; 253  : }

  00108	8b 4d f4	 mov	 ecx, DWORD PTR __$EHRec$[ebp]
  0010b	64 89 0d 00 00
	00 00		 mov	 DWORD PTR fs:0, ecx
  00112	59		 pop	 ecx
  00113	5f		 pop	 edi
  00114	5e		 pop	 esi
  00115	8b e5		 mov	 esp, ebp
  00117	5d		 pop	 ebp
  00118	c3		 ret	 0
$LN11@UpdateToLi:
; File C:\Program Files (x86)\Microsoft Visual Studio\2019\Community\VC\Tools\MSVC\14.29.30133\atlmfc\include\afxcoll.inl

; 43   : 			AfxThrowInvalidArgException();

  00119	e8 00 00 00 00	 call	 ?AfxThrowInvalidArgException@@YGXXZ ; AfxThrowInvalidArgException
$LN26@UpdateToLi:
  0011e	cc		 int	 3
_TEXT	ENDS
;	COMDAT text$x
text$x	SEGMENT
__unwindfunclet$?UpdateToListCtrl@CLVEdit@@IAEXXZ$0:
  00000	8d 4d ec	 lea	 ecx, DWORD PTR _strOldValue$3[ebp]
  00003	ff 25 00 00 00
	00		 jmp	 DWORD PTR __imp_??1?$CStringT@DV?$StrTraitMFC_DLL@DV?$ChTraitsCRT@D@ATL@@@@@ATL@@QAE@XZ
__unwindfunclet$?UpdateToListCtrl@CLVEdit@@IAEXXZ$1:
  00009	8d 4d f0	 lea	 ecx, DWORD PTR _strNewValue$4[ebp]
  0000c	ff 25 00 00 00
	00		 jmp	 DWORD PTR __imp_??1?$CStringT@DV?$StrTraitMFC_DLL@DV?$ChTraitsCRT@D@ATL@@@@@ATL@@QAE@XZ
  00012	cc		 int	 3
  00013	cc		 int	 3
  00014	cc		 int	 3
  00015	cc		 int	 3
  00016	cc		 int	 3
__ehhandler$?UpdateToListCtrl@CLVEdit@@IAEXXZ:
  00017	90		 npad	 1
  00018	90		 npad	 1
  00019	8b 54 24 08	 mov	 edx, DWORD PTR [esp+8]
  0001d	8d 42 0c	 lea	 eax, DWORD PTR [edx+12]
  00020	8b 4a dc	 mov	 ecx, DWORD PTR [edx-36]
  00023	33 c8		 xor	 ecx, eax
  00025	e8 00 00 00 00	 call	 @__security_check_cookie@4
  0002a	b8 00 00 00 00	 mov	 eax, OFFSET __ehfuncinfo$?UpdateToListCtrl@CLVEdit@@IAEXXZ
  0002f	e9 00 00 00 00	 jmp	 ___CxxFrameHandler3
text$x	ENDS
?UpdateToListCtrl@CLVEdit@@IAEXXZ ENDP			; CLVEdit::UpdateToListCtrl
; Function compile flags: /Ogtp
; File D:\git\src\IBK\IBK_DRFN\ProjSrc\SrcChartEx\ChartOCX\AddInManager\ChartCommonAddIn\LVEdit.cpp
; File C:\Program Files (x86)\Microsoft Visual Studio\2019\Community\VC\Tools\MSVC\14.29.30133\atlmfc\include\afxcmn.inl
; File D:\git\src\IBK\IBK_DRFN\ProjSrc\SrcChartEx\ChartOCX\AddInManager\ChartCommonAddIn\LVEdit.cpp
;	COMDAT ?TryEditSubItem@CLVEdit@@IAEHHH@Z
_TEXT	SEGMENT
_p_nItem$ = 8						; size = 4
_p_nSubItem$ = 12					; size = 4
?TryEditSubItem@CLVEdit@@IAEHHH@Z PROC			; CLVEdit::TryEditSubItem, COMDAT
; _this$ = ecx

; 201  : {

  00000	55		 push	 ebp
  00001	8b ec		 mov	 ebp, esp
  00003	53		 push	 ebx
  00004	56		 push	 esi
  00005	57		 push	 edi

; 203  : 	if( p_nItem < 0 || p_nItem >= m_pEditableListCtrl->GetItemCount() || p_nSubItem < 0 || p_nSubItem >= m_pEditableListCtrl->m_bEditableColumn.GetSize()) return FALSE;

  00006	8b 7d 08	 mov	 edi, DWORD PTR _p_nItem$[ebp]
  00009	8b d9		 mov	 ebx, ecx
  0000b	85 ff		 test	 edi, edi
  0000d	78 5e		 js	 SHORT $LN3@TryEditSub
  0000f	8b 83 90 00 00
	00		 mov	 eax, DWORD PTR [ebx+144]
; File C:\Program Files (x86)\Microsoft Visual Studio\2019\Community\VC\Tools\MSVC\14.29.30133\atlmfc\include\afxcmn.inl

; 155  : 	{ ASSERT(::IsWindow(m_hWnd)); return (int) ::SendMessage(m_hWnd, LVM_GETITEMCOUNT, 0, 0L); }

  00015	6a 00		 push	 0
  00017	6a 00		 push	 0
  00019	68 04 10 00 00	 push	 4100			; 00001004H
  0001e	ff 70 20	 push	 DWORD PTR [eax+32]
  00021	ff 15 00 00 00
	00		 call	 DWORD PTR __imp__SendMessageA@16
; File D:\git\src\IBK\IBK_DRFN\ProjSrc\SrcChartEx\ChartOCX\AddInManager\ChartCommonAddIn\LVEdit.cpp

; 203  : 	if( p_nItem < 0 || p_nItem >= m_pEditableListCtrl->GetItemCount() || p_nSubItem < 0 || p_nSubItem >= m_pEditableListCtrl->m_bEditableColumn.GetSize()) return FALSE;

  00027	3b f8		 cmp	 edi, eax
  00029	7d 42		 jge	 SHORT $LN3@TryEditSub
  0002b	8b 75 0c	 mov	 esi, DWORD PTR _p_nSubItem$[ebp]
  0002e	85 f6		 test	 esi, esi
  00030	78 3b		 js	 SHORT $LN3@TryEditSub
  00032	8b 8b 90 00 00
	00		 mov	 ecx, DWORD PTR [ebx+144]
  00038	3b b1 88 00 00
	00		 cmp	 esi, DWORD PTR [ecx+136]
  0003e	7d 2d		 jge	 SHORT $LN3@TryEditSub

; 204  : 	if( !m_pEditableListCtrl->m_bEditableColumn[ p_nSubItem]) return FALSE;

  00040	8b 81 84 00 00
	00		 mov	 eax, DWORD PTR [ecx+132]
  00046	80 3c 06 00	 cmp	 BYTE PTR [esi+eax], 0
  0004a	74 21		 je	 SHORT $LN3@TryEditSub

; 205  : 
; 206  : 	// 2. 다음 Item을 선택시킨다.
; 207  : 	m_pEditableListCtrl->SetItemState( p_nItem, LVIS_SELECTED | LVIS_FOCUSED, LVIS_SELECTED | LVIS_FOCUSED);

  0004c	6a 03		 push	 3
  0004e	6a 03		 push	 3
  00050	57		 push	 edi
  00051	e8 00 00 00 00	 call	 ?SetItemState@CListCtrl@@QAEHHII@Z ; CListCtrl::SetItemState

; 208  : 	return m_pEditableListCtrl->EditSubItem( p_nItem, p_nSubItem);

  00056	8b 8b 90 00 00
	00		 mov	 ecx, DWORD PTR [ebx+144]
  0005c	56		 push	 esi
  0005d	57		 push	 edi
  0005e	8b 01		 mov	 eax, DWORD PTR [ecx]
  00060	ff 90 70 01 00
	00		 call	 DWORD PTR [eax+368]
  00066	5f		 pop	 edi

; 209  : }

  00067	5e		 pop	 esi
  00068	5b		 pop	 ebx
  00069	5d		 pop	 ebp
  0006a	c2 08 00	 ret	 8
$LN3@TryEditSub:
  0006d	5f		 pop	 edi
  0006e	5e		 pop	 esi
  0006f	33 c0		 xor	 eax, eax
  00071	5b		 pop	 ebx
  00072	5d		 pop	 ebp
  00073	c2 08 00	 ret	 8
?TryEditSubItem@CLVEdit@@IAEHHH@Z ENDP			; CLVEdit::TryEditSubItem
_TEXT	ENDS
; Function compile flags: /Ogtp
; File D:\git\src\IBK\IBK_DRFN\ProjSrc\SrcChartEx\ChartOCX\AddInManager\ChartCommonAddIn\LVEdit.cpp
;	COMDAT ?GetMessageMap@CLVEdit@@MBEPBUAFX_MSGMAP@@XZ
_TEXT	SEGMENT
?GetMessageMap@CLVEdit@@MBEPBUAFX_MSGMAP@@XZ PROC	; CLVEdit::GetMessageMap, COMDAT
; _this$ = ecx

; 48   : BEGIN_MESSAGE_MAP(CLVEdit, CEdit)

  00000	b8 00 00 00 00	 mov	 eax, OFFSET ?messageMap@?1??GetThisMessageMap@CLVEdit@@KGPBUAFX_MSGMAP@@XZ@4U3@B
  00005	c3		 ret	 0
?GetMessageMap@CLVEdit@@MBEPBUAFX_MSGMAP@@XZ ENDP	; CLVEdit::GetMessageMap
_TEXT	ENDS
; Function compile flags: /Ogtp
; File D:\git\src\IBK\IBK_DRFN\ProjSrc\SrcChartEx\ChartOCX\AddInManager\ChartCommonAddIn\LVEdit.cpp
;	COMDAT ?GetThisMessageMap@CLVEdit@@KGPBUAFX_MSGMAP@@XZ
_TEXT	SEGMENT
?GetThisMessageMap@CLVEdit@@KGPBUAFX_MSGMAP@@XZ PROC	; CLVEdit::GetThisMessageMap, COMDAT

; 49   : 	//{{AFX_MSG_MAP(CLVEdit)
; 50   : 	ON_WM_KILLFOCUS()
; 51   : 	ON_WM_KEYDOWN()
; 52   : 	ON_WM_KEYUP()
; 53   : 	//}}AFX_MSG_MAP
; 54   : END_MESSAGE_MAP()

  00000	b8 00 00 00 00	 mov	 eax, OFFSET ?messageMap@?1??GetThisMessageMap@CLVEdit@@KGPBUAFX_MSGMAP@@XZ@4U3@B
  00005	c3		 ret	 0
?GetThisMessageMap@CLVEdit@@KGPBUAFX_MSGMAP@@XZ ENDP	; CLVEdit::GetThisMessageMap
_TEXT	ENDS
; Function compile flags: /Ogtp
; File D:\git\src\IBK\IBK_DRFN\ProjSrc\SrcChartEx\ChartOCX\AddInManager\ChartCommonAddIn\LVEdit.cpp
; File C:\Program Files (x86)\Microsoft Visual Studio\2019\Community\VC\Tools\MSVC\14.29.30133\atlmfc\include\afxwin2.inl
; File D:\git\src\IBK\IBK_DRFN\ProjSrc\SrcChartEx\ChartOCX\AddInManager\ChartCommonAddIn\LVEdit.cpp
;	COMDAT ?OnKeyUp@CLVEdit@@IAEXIII@Z
_TEXT	SEGMENT
_nChar$ = 8						; size = 4
_nRepCnt$ = 12						; size = 4
_nFlags$ = 16						; size = 4
?OnKeyUp@CLVEdit@@IAEXIII@Z PROC			; CLVEdit::OnKeyUp, COMDAT
; _this$ = ecx

; 182  : {

  00000	55		 push	 ebp
  00001	8b ec		 mov	 ebp, esp

; 183  : 	// TODO: Add your message handler code here and/or call default
; 184  : 
; 185  : 	// 0. Ctrl Key를 확인한다.
; 186  : 	if( nChar == VK_CONTROL) m_bCtrl = FALSE;

  00003	83 7d 08 11	 cmp	 DWORD PTR _nChar$[ebp], 17 ; 00000011H
  00007	75 0a		 jne	 SHORT $LN2@OnKeyUp
  00009	c7 81 88 00 00
	00 00 00 00 00	 mov	 DWORD PTR [ecx+136], 0
$LN2@OnKeyUp:
; File C:\Program Files (x86)\Microsoft Visual Studio\2019\Community\VC\Tools\MSVC\14.29.30133\atlmfc\include\afxwin2.inl

; 426  : 	{ Default(); }

  00013	e8 00 00 00 00	 call	 ?Default@CWnd@@IAEJXZ	; CWnd::Default
; File D:\git\src\IBK\IBK_DRFN\ProjSrc\SrcChartEx\ChartOCX\AddInManager\ChartCommonAddIn\LVEdit.cpp

; 189  : }

  00018	5d		 pop	 ebp
  00019	c2 0c 00	 ret	 12			; 0000000cH
?OnKeyUp@CLVEdit@@IAEXIII@Z ENDP			; CLVEdit::OnKeyUp
_TEXT	ENDS
; Function compile flags: /Ogtp
; File D:\git\src\IBK\IBK_DRFN\ProjSrc\SrcChartEx\ChartOCX\AddInManager\ChartCommonAddIn\LVEdit.cpp
; File C:\Program Files (x86)\Microsoft Visual Studio\2019\Community\VC\Tools\MSVC\14.29.30133\atlmfc\include\afxwin2.inl
; File D:\git\src\IBK\IBK_DRFN\ProjSrc\SrcChartEx\ChartOCX\AddInManager\ChartCommonAddIn\LVEdit.cpp
; File C:\Program Files (x86)\Microsoft Visual Studio\2019\Community\VC\Tools\MSVC\14.29.30133\atlmfc\include\afxwin2.inl
; File D:\git\src\IBK\IBK_DRFN\ProjSrc\SrcChartEx\ChartOCX\AddInManager\ChartCommonAddIn\LVEdit.cpp
; File C:\Program Files (x86)\Microsoft Visual Studio\2019\Community\VC\Tools\MSVC\14.29.30133\atlmfc\include\afxcoll.inl
; File D:\git\src\IBK\IBK_DRFN\ProjSrc\SrcChartEx\ChartOCX\AddInManager\ChartCommonAddIn\LVEdit.cpp
; File C:\Program Files (x86)\Microsoft Visual Studio\2019\Community\VC\Tools\MSVC\14.29.30133\atlmfc\include\afxwin2.inl
; File D:\git\src\IBK\IBK_DRFN\ProjSrc\SrcChartEx\ChartOCX\AddInManager\ChartCommonAddIn\LVEdit.cpp
; File C:\Program Files (x86)\Microsoft Visual Studio\2019\Community\VC\Tools\MSVC\14.29.30133\atlmfc\include\afxwin2.inl
; File D:\git\src\IBK\IBK_DRFN\ProjSrc\SrcChartEx\ChartOCX\AddInManager\ChartCommonAddIn\LVEdit.cpp
; File C:\Program Files (x86)\Microsoft Visual Studio\2019\Community\VC\Tools\MSVC\14.29.30133\atlmfc\include\afxcoll.inl
; File D:\git\src\IBK\IBK_DRFN\ProjSrc\SrcChartEx\ChartOCX\AddInManager\ChartCommonAddIn\LVEdit.cpp
; File C:\Program Files (x86)\Microsoft Visual Studio\2019\Community\VC\Tools\MSVC\14.29.30133\atlmfc\include\afxwin2.inl
; File D:\git\src\IBK\IBK_DRFN\ProjSrc\SrcChartEx\ChartOCX\AddInManager\ChartCommonAddIn\LVEdit.cpp
; File C:\Program Files (x86)\Microsoft Visual Studio\2019\Community\VC\Tools\MSVC\14.29.30133\atlmfc\include\afxcoll.inl
; File D:\git\src\IBK\IBK_DRFN\ProjSrc\SrcChartEx\ChartOCX\AddInManager\ChartCommonAddIn\LVEdit.cpp
;	COMDAT ?OnKeyDown@CLVEdit@@IAEXIII@Z
_TEXT	SEGMENT
_nChar$ = 8						; size = 4
_nRepCnt$ = 12						; size = 4
_nFlags$ = 16						; size = 4
?OnKeyDown@CLVEdit@@IAEXIII@Z PROC			; CLVEdit::OnKeyDown, COMDAT
; _this$ = ecx

; 153  : {

  00000	55		 push	 ebp
  00001	8b ec		 mov	 ebp, esp

; 154  : 	// TODO: Add your message handler code here and/or call default
; 155  : 	int i = 0;
; 156  : 	// 0. Ctrl Key를 확인한다.
; 157  : 	if( nChar == VK_CONTROL) m_bCtrl = TRUE;

  00003	8b 45 08	 mov	 eax, DWORD PTR _nChar$[ebp]
  00006	56		 push	 esi
  00007	8b f1		 mov	 esi, ecx
  00009	57		 push	 edi
  0000a	83 f8 11	 cmp	 eax, 17			; 00000011H
  0000d	75 15		 jne	 SHORT $LN8@OnKeyDown
  0000f	c7 86 88 00 00
	00 01 00 00 00	 mov	 DWORD PTR [esi+136], 1
; File C:\Program Files (x86)\Microsoft Visual Studio\2019\Community\VC\Tools\MSVC\14.29.30133\atlmfc\include\afxwin2.inl

; 424  : 	{ Default(); }

  00019	e8 00 00 00 00	 call	 ?Default@CWnd@@IAEJXZ	; CWnd::Default
  0001e	5f		 pop	 edi
; File D:\git\src\IBK\IBK_DRFN\ProjSrc\SrcChartEx\ChartOCX\AddInManager\ChartCommonAddIn\LVEdit.cpp

; 180  : }

  0001f	5e		 pop	 esi
  00020	5d		 pop	 ebp
  00021	c2 0c 00	 ret	 12			; 0000000cH
$LN8@OnKeyDown:

; 158  : 
; 159  : 	// 1. Ctrl+Arrow Key인 경우를 처리한다.
; 160  : 	else if( m_bCtrl)

  00024	83 be 88 00 00
	00 00		 cmp	 DWORD PTR [esi+136], 0
  0002b	74 1c		 je	 SHORT $LN22@OnKeyDown

; 161  : 	{
; 162  : 		if( nChar == VK_UP)		if( TryEditSubItem( m_nItem - 1,	m_nSubItem))		return;

  0002d	83 f8 26	 cmp	 eax, 38			; 00000026H
  00030	75 24		 jne	 SHORT $LN12@OnKeyDown
  00032	8b 86 80 00 00
	00		 mov	 eax, DWORD PTR [esi+128]
  00038	ff b6 84 00 00
	00		 push	 DWORD PTR [esi+132]
  0003e	48		 dec	 eax
$LN55@OnKeyDown:
; File C:\Program Files (x86)\Microsoft Visual Studio\2019\Community\VC\Tools\MSVC\14.29.30133\atlmfc\include\afxwin2.inl

; 424  : 	{ Default(); }

  0003f	50		 push	 eax
$LN57@OnKeyDown:
  00040	e8 00 00 00 00	 call	 ?TryEditSubItem@CLVEdit@@IAEHHH@Z ; CLVEdit::TryEditSubItem
  00045	85 c0		 test	 eax, eax
  00047	75 07		 jne	 SHORT $LN1@OnKeyDown
$LN22@OnKeyDown:
  00049	8b ce		 mov	 ecx, esi
  0004b	e8 00 00 00 00	 call	 ?Default@CWnd@@IAEJXZ	; CWnd::Default
$LN1@OnKeyDown:
  00050	5f		 pop	 edi
; File D:\git\src\IBK\IBK_DRFN\ProjSrc\SrcChartEx\ChartOCX\AddInManager\ChartCommonAddIn\LVEdit.cpp

; 180  : }

  00051	5e		 pop	 esi
  00052	5d		 pop	 ebp
  00053	c2 0c 00	 ret	 12			; 0000000cH
$LN12@OnKeyDown:

; 163  : 		if( nChar == VK_DOWN)	if( TryEditSubItem( m_nItem + 1,	m_nSubItem))		return;

  00056	83 f8 28	 cmp	 eax, 40			; 00000028H
  00059	75 0f		 jne	 SHORT $LN14@OnKeyDown
  0005b	8b 86 80 00 00
	00		 mov	 eax, DWORD PTR [esi+128]
  00061	ff b6 84 00 00
	00		 push	 DWORD PTR [esi+132]
  00067	40		 inc	 eax

; 164  : 
; 165  : 		// 2. Left와 Right는 편집 불가능 Column을 건너뛸 수 있도록 한다.
; 166  : 		if( nChar == VK_LEFT)

  00068	eb d5		 jmp	 SHORT $LN55@OnKeyDown
$LN14@OnKeyDown:
  0006a	83 f8 25	 cmp	 eax, 37			; 00000025H
  0006d	75 46		 jne	 SHORT $LN18@OnKeyDown

; 168  : 			for(  i = m_nSubItem - 1; i >= 0; i--) if( m_pEditableListCtrl->m_bEditableColumn[ i]) break;

  0006f	8b 8e 84 00 00
	00		 mov	 ecx, DWORD PTR [esi+132]
  00075	83 e9 01	 sub	 ecx, 1
  00078	78 cf		 js	 SHORT $LN22@OnKeyDown
  0007a	8b 96 90 00 00
	00		 mov	 edx, DWORD PTR [esi+144]
$LL4@OnKeyDown:
; File C:\Program Files (x86)\Microsoft Visual Studio\2019\Community\VC\Tools\MSVC\14.29.30133\atlmfc\include\afxcoll.inl

; 42   : 		if( nIndex < 0 || nIndex >= m_nSize )

  00080	85 c9		 test	 ecx, ecx
  00082	78 77		 js	 SHORT $LN36@OnKeyDown
  00084	3b 8a 88 00 00
	00		 cmp	 ecx, DWORD PTR [edx+136]
  0008a	7d 6f		 jge	 SHORT $LN36@OnKeyDown
; File D:\git\src\IBK\IBK_DRFN\ProjSrc\SrcChartEx\ChartOCX\AddInManager\ChartCommonAddIn\LVEdit.cpp

; 168  : 			for(  i = m_nSubItem - 1; i >= 0; i--) if( m_pEditableListCtrl->m_bEditableColumn[ i]) break;

  0008c	8b 82 84 00 00
	00		 mov	 eax, DWORD PTR [edx+132]
  00092	80 3c 01 00	 cmp	 BYTE PTR [ecx+eax], 0
  00096	75 12		 jne	 SHORT $LN3@OnKeyDown
  00098	83 e9 01	 sub	 ecx, 1
  0009b	79 e3		 jns	 SHORT $LL4@OnKeyDown
; File C:\Program Files (x86)\Microsoft Visual Studio\2019\Community\VC\Tools\MSVC\14.29.30133\atlmfc\include\afxwin2.inl

; 424  : 	{ Default(); }

  0009d	8b ce		 mov	 ecx, esi
  0009f	e8 00 00 00 00	 call	 ?Default@CWnd@@IAEJXZ	; CWnd::Default
  000a4	5f		 pop	 edi
; File D:\git\src\IBK\IBK_DRFN\ProjSrc\SrcChartEx\ChartOCX\AddInManager\ChartCommonAddIn\LVEdit.cpp

; 180  : }

  000a5	5e		 pop	 esi
  000a6	5d		 pop	 ebp
  000a7	c2 0c 00	 ret	 12			; 0000000cH
$LN3@OnKeyDown:
; File C:\Program Files (x86)\Microsoft Visual Studio\2019\Community\VC\Tools\MSVC\14.29.30133\atlmfc\include\afxwin2.inl

; 424  : 	{ Default(); }

  000aa	51		 push	 ecx
  000ab	ff b6 80 00 00
	00		 push	 DWORD PTR [esi+128]
  000b1	8b ce		 mov	 ecx, esi
  000b3	eb 8b		 jmp	 SHORT $LN57@OnKeyDown
$LN18@OnKeyDown:
; File D:\git\src\IBK\IBK_DRFN\ProjSrc\SrcChartEx\ChartOCX\AddInManager\ChartCommonAddIn\LVEdit.cpp

; 171  : 		if( nChar == VK_RIGHT)

  000b5	83 f8 27	 cmp	 eax, 39			; 00000027H
  000b8	75 8f		 jne	 SHORT $LN22@OnKeyDown

; 172  : 		{
; 173  : 			int nColumn = m_pEditableListCtrl->m_bEditableColumn.GetSize();

  000ba	8b be 90 00 00
	00		 mov	 edi, DWORD PTR [esi+144]

; 174  : 			for(  i = m_nSubItem + 1; i < nColumn; i++) if( m_pEditableListCtrl->m_bEditableColumn[ i]) break;

  000c0	8b 8e 84 00 00
	00		 mov	 ecx, DWORD PTR [esi+132]
  000c6	41		 inc	 ecx
  000c7	8b 97 88 00 00
	00		 mov	 edx, DWORD PTR [edi+136]
  000cd	3b ca		 cmp	 ecx, edx
  000cf	0f 8d 74 ff ff
	ff		 jge	 $LN22@OnKeyDown
$LL7@OnKeyDown:
; File C:\Program Files (x86)\Microsoft Visual Studio\2019\Community\VC\Tools\MSVC\14.29.30133\atlmfc\include\afxcoll.inl

; 42   : 		if( nIndex < 0 || nIndex >= m_nSize )

  000d5	85 c9		 test	 ecx, ecx
  000d7	78 22		 js	 SHORT $LN36@OnKeyDown
  000d9	3b ca		 cmp	 ecx, edx
  000db	7d 1e		 jge	 SHORT $LN36@OnKeyDown
; File D:\git\src\IBK\IBK_DRFN\ProjSrc\SrcChartEx\ChartOCX\AddInManager\ChartCommonAddIn\LVEdit.cpp

; 174  : 			for(  i = m_nSubItem + 1; i < nColumn; i++) if( m_pEditableListCtrl->m_bEditableColumn[ i]) break;

  000dd	8b 87 84 00 00
	00		 mov	 eax, DWORD PTR [edi+132]
  000e3	80 3c 01 00	 cmp	 BYTE PTR [ecx+eax], 0
  000e7	75 c1		 jne	 SHORT $LN3@OnKeyDown
  000e9	41		 inc	 ecx
  000ea	3b ca		 cmp	 ecx, edx
  000ec	7c e7		 jl	 SHORT $LL7@OnKeyDown
; File C:\Program Files (x86)\Microsoft Visual Studio\2019\Community\VC\Tools\MSVC\14.29.30133\atlmfc\include\afxwin2.inl

; 424  : 	{ Default(); }

  000ee	8b ce		 mov	 ecx, esi
  000f0	e8 00 00 00 00	 call	 ?Default@CWnd@@IAEJXZ	; CWnd::Default
  000f5	5f		 pop	 edi
; File D:\git\src\IBK\IBK_DRFN\ProjSrc\SrcChartEx\ChartOCX\AddInManager\ChartCommonAddIn\LVEdit.cpp

; 180  : }

  000f6	5e		 pop	 esi
  000f7	5d		 pop	 ebp
  000f8	c2 0c 00	 ret	 12			; 0000000cH
$LN36@OnKeyDown:
; File C:\Program Files (x86)\Microsoft Visual Studio\2019\Community\VC\Tools\MSVC\14.29.30133\atlmfc\include\afxcoll.inl

; 43   : 			AfxThrowInvalidArgException();

  000fb	e8 00 00 00 00	 call	 ?AfxThrowInvalidArgException@@YGXXZ ; AfxThrowInvalidArgException
$LN54@OnKeyDown:
  00100	cc		 int	 3
?OnKeyDown@CLVEdit@@IAEXIII@Z ENDP			; CLVEdit::OnKeyDown
_TEXT	ENDS
; Function compile flags: /Ogtp
; File D:\git\src\IBK\IBK_DRFN\ProjSrc\SrcChartEx\ChartOCX\AddInManager\ChartCommonAddIn\LVEdit.cpp
; File C:\Program Files (x86)\Microsoft Visual Studio\2019\Community\VC\Tools\MSVC\14.29.30133\atlmfc\include\afxwin2.inl
; File D:\git\src\IBK\IBK_DRFN\ProjSrc\SrcChartEx\ChartOCX\AddInManager\ChartCommonAddIn\LVEdit.cpp
;	COMDAT ?OnKillFocus@CLVEdit@@IAEXPAVCWnd@@@Z
_TEXT	SEGMENT
_pNewWnd$ = 8						; size = 4
?OnKillFocus@CLVEdit@@IAEXPAVCWnd@@@Z PROC		; CLVEdit::OnKillFocus, COMDAT
; _this$ = ecx

; 128  : {

  00000	56		 push	 esi
  00001	8b f1		 mov	 esi, ecx
; File C:\Program Files (x86)\Microsoft Visual Studio\2019\Community\VC\Tools\MSVC\14.29.30133\atlmfc\include\afxwin2.inl

; 308  : 	{ Default(); }

  00003	e8 00 00 00 00	 call	 ?Default@CWnd@@IAEJXZ	; CWnd::Default
; File D:\git\src\IBK\IBK_DRFN\ProjSrc\SrcChartEx\ChartOCX\AddInManager\ChartCommonAddIn\LVEdit.cpp

; 134  : 	if( !m_bUpdateOnlyEnter) UpdateToListCtrl();

  00008	83 be 8c 00 00
	00 00		 cmp	 DWORD PTR [esi+140], 0
  0000f	75 07		 jne	 SHORT $LN2@OnKillFocu
  00011	8b ce		 mov	 ecx, esi
  00013	e8 00 00 00 00	 call	 ?UpdateToListCtrl@CLVEdit@@IAEXXZ ; CLVEdit::UpdateToListCtrl
$LN2@OnKillFocu:

; 135  : 
; 136  : 	ShowWindow( SW_HIDE);

  00018	6a 00		 push	 0
  0001a	8b ce		 mov	 ecx, esi
  0001c	e8 00 00 00 00	 call	 ?ShowWindow@CWnd@@QAEHH@Z ; CWnd::ShowWindow
  00021	5e		 pop	 esi

; 137  : }

  00022	c2 04 00	 ret	 4
?OnKillFocus@CLVEdit@@IAEXPAVCWnd@@@Z ENDP		; CLVEdit::OnKillFocus
_TEXT	ENDS
; Function compile flags: /Ogtp
; File D:\git\src\IBK\IBK_DRFN\ProjSrc\SrcChartEx\ChartOCX\AddInManager\ChartCommonAddIn\LVEdit.cpp
;	COMDAT ??1CLVEdit@@UAE@XZ
_TEXT	SEGMENT
??1CLVEdit@@UAE@XZ PROC					; CLVEdit::~CLVEdit, COMDAT
; _this$ = ecx

; 44   : {

  00000	c7 01 00 00 00
	00		 mov	 DWORD PTR [ecx], OFFSET ??_7CLVEdit@@6B@

; 45   : }

  00006	e9 00 00 00 00	 jmp	 ??1CEdit@@UAE@XZ	; CEdit::~CEdit
??1CLVEdit@@UAE@XZ ENDP					; CLVEdit::~CLVEdit
_TEXT	ENDS
; Function compile flags: /Ogtp
; File D:\git\src\IBK\IBK_DRFN\ProjSrc\SrcChartEx\ChartOCX\AddInManager\ChartCommonAddIn\LVEdit.cpp
;	COMDAT ?Create@CLVEdit@@UAEHKABUtagRECT@@PAVCWnd@@I@Z
_TEXT	SEGMENT
_dwStyle$ = 8						; size = 4
_rect$ = 12						; size = 4
_pParentWnd$ = 16					; size = 4
_nID$ = 20						; size = 4
?Create@CLVEdit@@UAEHKABUtagRECT@@PAVCWnd@@I@Z PROC	; CLVEdit::Create, COMDAT
; _this$ = ecx

; 263  : {

  00000	55		 push	 ebp
  00001	8b ec		 mov	 ebp, esp

; 264  : 	// TODO: Add your specialized code here and/or call the base class
; 265  : 	
; 266  : 	m_pEditableListCtrl = ( CEditableListCtrl *)pParentWnd;

  00003	8b 45 10	 mov	 eax, DWORD PTR _pParentWnd$[ebp]
  00006	89 81 90 00 00
	00		 mov	 DWORD PTR [ecx+144], eax

; 267  : 	
; 268  : 	return CEdit::Create( dwStyle, rect, pParentWnd, nID);

  0000c	89 45 10	 mov	 DWORD PTR _pParentWnd$[ebp], eax

; 269  : }

  0000f	5d		 pop	 ebp

; 267  : 	
; 268  : 	return CEdit::Create( dwStyle, rect, pParentWnd, nID);

  00010	e9 00 00 00 00	 jmp	 ?Create@CEdit@@QAEHKABUtagRECT@@PAVCWnd@@I@Z ; CEdit::Create
?Create@CLVEdit@@UAEHKABUtagRECT@@PAVCWnd@@I@Z ENDP	; CLVEdit::Create
_TEXT	ENDS
; Function compile flags: /Ogtp
; File D:\git\src\IBK\IBK_DRFN\ProjSrc\SrcChartEx\ChartOCX\AddInManager\ChartCommonAddIn\LVEdit.cpp
; File C:\Program Files (x86)\Microsoft Visual Studio\2019\Community\VC\Tools\MSVC\14.29.30133\atlmfc\include\afxcoll.inl
; File D:\git\src\IBK\IBK_DRFN\ProjSrc\SrcChartEx\ChartOCX\AddInManager\ChartCommonAddIn\LVEdit.cpp
; File C:\Program Files (x86)\Microsoft Visual Studio\2019\Community\VC\Tools\MSVC\14.29.30133\atlmfc\include\afxwin2.inl
; File D:\git\src\IBK\IBK_DRFN\ProjSrc\SrcChartEx\ChartOCX\AddInManager\ChartCommonAddIn\LVEdit.cpp
; File C:\Program Files (x86)\Microsoft Visual Studio\2019\Community\VC\Tools\MSVC\14.29.30133\atlmfc\include\afxwin2.inl
; File D:\git\src\IBK\IBK_DRFN\ProjSrc\SrcChartEx\ChartOCX\AddInManager\ChartCommonAddIn\LVEdit.cpp
; File C:\Program Files (x86)\Microsoft Visual Studio\2019\Community\VC\Tools\MSVC\14.29.30133\atlmfc\include\afxwin2.inl
; File D:\git\src\IBK\IBK_DRFN\ProjSrc\SrcChartEx\ChartOCX\AddInManager\ChartCommonAddIn\LVEdit.cpp
; File C:\Program Files (x86)\Microsoft Visual Studio\2019\Community\VC\Tools\MSVC\14.29.30133\atlmfc\include\afxcmn.inl
; File D:\git\src\IBK\IBK_DRFN\ProjSrc\SrcChartEx\ChartOCX\AddInManager\ChartCommonAddIn\LVEdit.cpp
; File C:\Program Files (x86)\Microsoft Visual Studio\2019\Community\VC\Tools\MSVC\14.29.30133\atlmfc\include\afxcmn.inl
; File D:\git\src\IBK\IBK_DRFN\ProjSrc\SrcChartEx\ChartOCX\AddInManager\ChartCommonAddIn\LVEdit.cpp
; File C:\Program Files (x86)\Microsoft Visual Studio\2019\Community\VC\Tools\MSVC\14.29.30133\atlmfc\include\afxcoll.inl
; File D:\git\src\IBK\IBK_DRFN\ProjSrc\SrcChartEx\ChartOCX\AddInManager\ChartCommonAddIn\LVEdit.cpp
;	COMDAT ?PreTranslateMessage@CLVEdit@@UAEHPAUtagMSG@@@Z
_TEXT	SEGMENT
_nmEditableListCtrl$2 = -32				; size = 16
_strOldValue$3 = -16					; size = 4
__$EHRec$ = -12						; size = 12
_strNewValue$4 = 8					; size = 4
_pMsg$ = 8						; size = 4
?PreTranslateMessage@CLVEdit@@UAEHPAUtagMSG@@@Z PROC	; CLVEdit::PreTranslateMessage, COMDAT
; _this$ = ecx

; 77   : {

  00000	55		 push	 ebp
  00001	8b ec		 mov	 ebp, esp
  00003	6a ff		 push	 -1
  00005	68 00 00 00 00	 push	 __ehhandler$?PreTranslateMessage@CLVEdit@@UAEHPAUtagMSG@@@Z
  0000a	64 a1 00 00 00
	00		 mov	 eax, DWORD PTR fs:0
  00010	50		 push	 eax
  00011	83 ec 14	 sub	 esp, 20			; 00000014H
  00014	56		 push	 esi
  00015	57		 push	 edi
  00016	a1 00 00 00 00	 mov	 eax, DWORD PTR ___security_cookie
  0001b	33 c5		 xor	 eax, ebp
  0001d	50		 push	 eax
  0001e	8d 45 f4	 lea	 eax, DWORD PTR __$EHRec$[ebp]
  00021	64 a3 00 00 00
	00		 mov	 DWORD PTR fs:0, eax
  00027	8b f9		 mov	 edi, ecx

; 78   : 	// TODO: Add your specialized code here and/or call the base class
; 79   : 
; 80   : 	// 0. 먼저 ESC인 경우에는 종료시킨다.
; 81   : 	if( pMsg->message == WM_KEYDOWN && pMsg->wParam == VK_ESCAPE)		

  00029	8b 45 08	 mov	 eax, DWORD PTR _pMsg$[ebp]
  0002c	81 78 04 00 01
	00 00		 cmp	 DWORD PTR [eax+4], 256	; 00000100H
  00033	0f 85 8b 01 00
	00		 jne	 $LN3@PreTransla
  00039	8b 48 08	 mov	 ecx, DWORD PTR [eax+8]
  0003c	83 f9 1b	 cmp	 ecx, 27			; 0000001bH
  0003f	75 2b		 jne	 SHORT $LN34@PreTransla

; 82   : 	{
; 83   : 		// (2003.02.21) ESC에 의한 Kill Focus시에는 Update가 되지 않도록 m_nSubItem을 확인한다.
; 84   : 		//	m_nSubItem이 -1이면 ESC가 눌린 다음이다.
; 85   : 		m_nSubItem = -1;
; 86   : 
; 87   : 		ShowWindow( SW_HIDE);

  00041	6a 00		 push	 0
  00043	8b cf		 mov	 ecx, edi
  00045	c7 87 84 00 00
	00 ff ff ff ff	 mov	 DWORD PTR [edi+132], -1
  0004f	e8 00 00 00 00	 call	 ?ShowWindow@CWnd@@QAEHH@Z ; CWnd::ShowWindow

; 88   : 		return TRUE;

  00054	b8 01 00 00 00	 mov	 eax, 1

; 115  : }

  00059	8b 4d f4	 mov	 ecx, DWORD PTR __$EHRec$[ebp]
  0005c	64 89 0d 00 00
	00 00		 mov	 DWORD PTR fs:0, ecx
  00063	59		 pop	 ecx
  00064	5f		 pop	 edi
  00065	5e		 pop	 esi
  00066	8b e5		 mov	 esp, ebp
  00068	5d		 pop	 ebp
  00069	c2 04 00	 ret	 4
$LN34@PreTransla:

; 89   : 	}
; 90   : 
; 91   : 	// 0.5 입력이 완료된 경우를 처리한다.
; 92   : 	if( pMsg->message == WM_KEYDOWN && pMsg->wParam == VK_RETURN)		

  0006c	83 f9 0d	 cmp	 ecx, 13			; 0000000dH
  0006f	0f 85 4f 01 00
	00		 jne	 $LN3@PreTransla

; 232  : 	if( m_nSubItem < 0) return;

  00075	8b 97 84 00 00
	00		 mov	 edx, DWORD PTR [edi+132]
  0007b	85 d2		 test	 edx, edx
  0007d	0f 88 d8 00 00
	00		 js	 $LN8@PreTransla

; 236  : 	if( m_pEditableListCtrl->m_bEditableColumn[ m_nSubItem] == 2)

  00083	8b 8f 90 00 00
	00		 mov	 ecx, DWORD PTR [edi+144]
; File C:\Program Files (x86)\Microsoft Visual Studio\2019\Community\VC\Tools\MSVC\14.29.30133\atlmfc\include\afxcoll.inl

; 42   : 		if( nIndex < 0 || nIndex >= m_nSize )

  00089	3b 91 88 00 00
	00		 cmp	 edx, DWORD PTR [ecx+136]
  0008f	0f 8d 4a 01 00
	00		 jge	 $LN16@PreTransla

; 44   : 		return m_pData[nIndex]; }

  00095	8b 81 84 00 00
	00		 mov	 eax, DWORD PTR [ecx+132]
; File D:\git\src\IBK\IBK_DRFN\ProjSrc\SrcChartEx\ChartOCX\AddInManager\ChartCommonAddIn\LVEdit.cpp

; 236  : 	if( m_pEditableListCtrl->m_bEditableColumn[ m_nSubItem] == 2)

  0009b	80 3c 10 02	 cmp	 BYTE PTR [eax+edx], 2
  0009f	0f 85 b6 00 00
	00		 jne	 $LN8@PreTransla

; 237  : 	{
; 238  : 		// (2003.02.02) Notification에 수정 이전의 Data도 전달하도록 한다.
; 239  : 		CString strOldValue = m_pEditableListCtrl->GetItemText( m_nItem, m_nSubItem);

  000a5	52		 push	 edx
  000a6	ff b7 80 00 00
	00		 push	 DWORD PTR [edi+128]
  000ac	8d 45 f0	 lea	 eax, DWORD PTR _strOldValue$3[ebp]
  000af	50		 push	 eax
  000b0	e8 00 00 00 00	 call	 ?GetItemText@CListCtrl@@QBE?AV?$CStringT@DV?$StrTraitMFC_DLL@DV?$ChTraitsCRT@D@ATL@@@@@ATL@@HH@Z ; CListCtrl::GetItemText

; 240  : 
; 241  : 		CString strNewValue;

  000b5	8d 4d 08	 lea	 ecx, DWORD PTR _strNewValue$4[ebp]
  000b8	c7 45 fc 00 00
	00 00		 mov	 DWORD PTR __$EHRec$[ebp+8], 0
  000bf	ff 15 00 00 00
	00		 call	 DWORD PTR __imp_??0?$CStringT@DV?$StrTraitMFC_DLL@DV?$ChTraitsCRT@D@ATL@@@@@ATL@@QAE@XZ

; 242  : 		GetWindowText( strNewValue);

  000c5	8d 45 08	 lea	 eax, DWORD PTR _strNewValue$4[ebp]
  000c8	c6 45 fc 01	 mov	 BYTE PTR __$EHRec$[ebp+8], 1
  000cc	50		 push	 eax
  000cd	8b cf		 mov	 ecx, edi
  000cf	e8 00 00 00 00	 call	 ?GetWindowTextA@CWnd@@QBEXAAV?$CStringT@DV?$StrTraitMFC_DLL@DV?$ChTraitsCRT@D@ATL@@@@@ATL@@@Z ; CWnd::GetWindowTextA

; 243  : 		m_pEditableListCtrl->SetItemText( m_nItem, m_nSubItem, strNewValue);

  000d4	ff 75 08	 push	 DWORD PTR _strNewValue$4[ebp]
  000d7	8b 8f 90 00 00
	00		 mov	 ecx, DWORD PTR [edi+144]
  000dd	ff b7 84 00 00
	00		 push	 DWORD PTR [edi+132]
  000e3	ff b7 80 00 00
	00		 push	 DWORD PTR [edi+128]
  000e9	e8 00 00 00 00	 call	 ?SetItemText@CListCtrl@@QAEHHHPBD@Z ; CListCtrl::SetItemText

; 244  : 
; 245  : 		// (2003.01.31) Parent Window에게 편집완료됨을 알리는 Notification을 처리한다.
; 246  : 		NMEDITABLELISTCTRL nmEditableListCtrl;
; 247  : 		nmEditableListCtrl.m_nItemIndex = m_nItem;

  000ee	8b 87 80 00 00
	00		 mov	 eax, DWORD PTR [edi+128]
  000f4	89 45 e0	 mov	 DWORD PTR _nmEditableListCtrl$2[ebp], eax

; 248  : 		nmEditableListCtrl.m_nColumnIndex = m_nSubItem;

  000f7	8b 87 84 00 00
	00		 mov	 eax, DWORD PTR [edi+132]
  000fd	89 45 e4	 mov	 DWORD PTR _nmEditableListCtrl$2[ebp+4], eax

; 249  : 		nmEditableListCtrl.m_szOldData = strOldValue;

  00100	8b 45 f0	 mov	 eax, DWORD PTR _strOldValue$3[ebp]
  00103	89 45 ec	 mov	 DWORD PTR _nmEditableListCtrl$2[ebp+12], eax

; 250  : 		nmEditableListCtrl.m_szNewData = strNewValue;

  00106	8b 45 08	 mov	 eax, DWORD PTR _strNewValue$4[ebp]
  00109	89 45 e8	 mov	 DWORD PTR _nmEditableListCtrl$2[ebp+8], eax

; 251  : 		m_pEditableListCtrl->GetParent()->SendMessage( RMSG_ELC_CELLEDITED, m_pEditableListCtrl->GetDlgCtrlID(), ( LPARAM)&nmEditableListCtrl);

  0010c	8b 87 90 00 00
	00		 mov	 eax, DWORD PTR [edi+144]
; File C:\Program Files (x86)\Microsoft Visual Studio\2019\Community\VC\Tools\MSVC\14.29.30133\atlmfc\include\afxwin2.inl

; 213  : 	{ ASSERT(::IsWindow(m_hWnd)); return CWnd::FromHandle(::GetParent(m_hWnd)); }

  00112	ff 70 20	 push	 DWORD PTR [eax+32]
  00115	ff 15 00 00 00
	00		 call	 DWORD PTR __imp__GetParent@4
  0011b	50		 push	 eax
  0011c	e8 00 00 00 00	 call	 ?FromHandle@CWnd@@SGPAV1@PAUHWND__@@@Z ; CWnd::FromHandle
; File D:\git\src\IBK\IBK_DRFN\ProjSrc\SrcChartEx\ChartOCX\AddInManager\ChartCommonAddIn\LVEdit.cpp

; 251  : 		m_pEditableListCtrl->GetParent()->SendMessage( RMSG_ELC_CELLEDITED, m_pEditableListCtrl->GetDlgCtrlID(), ( LPARAM)&nmEditableListCtrl);

  00121	8b 8f 90 00 00
	00		 mov	 ecx, DWORD PTR [edi+144]
; File C:\Program Files (x86)\Microsoft Visual Studio\2019\Community\VC\Tools\MSVC\14.29.30133\atlmfc\include\afxwin2.inl

; 213  : 	{ ASSERT(::IsWindow(m_hWnd)); return CWnd::FromHandle(::GetParent(m_hWnd)); }

  00127	8b f0		 mov	 esi, eax
; File D:\git\src\IBK\IBK_DRFN\ProjSrc\SrcChartEx\ChartOCX\AddInManager\ChartCommonAddIn\LVEdit.cpp

; 251  : 		m_pEditableListCtrl->GetParent()->SendMessage( RMSG_ELC_CELLEDITED, m_pEditableListCtrl->GetDlgCtrlID(), ( LPARAM)&nmEditableListCtrl);

  00129	e8 00 00 00 00	 call	 ?GetDlgCtrlID@CWnd@@QBEHXZ ; CWnd::GetDlgCtrlID
; File C:\Program Files (x86)\Microsoft Visual Studio\2019\Community\VC\Tools\MSVC\14.29.30133\atlmfc\include\afxwin2.inl

; 32   : 	{ ASSERT(::IsWindow(m_hWnd)); return ::SendMessage(m_hWnd, message, wParam, lParam); }

  0012e	8d 4d e0	 lea	 ecx, DWORD PTR _nmEditableListCtrl$2[ebp]
  00131	51		 push	 ecx
  00132	50		 push	 eax
  00133	ff 35 00 00 00
	00		 push	 DWORD PTR ?RMSG_ELC_CELLEDITED@@3IB
  00139	ff 76 20	 push	 DWORD PTR [esi+32]
  0013c	ff 15 00 00 00
	00		 call	 DWORD PTR __imp__SendMessageA@16
; File D:\git\src\IBK\IBK_DRFN\ProjSrc\SrcChartEx\ChartOCX\AddInManager\ChartCommonAddIn\LVEdit.cpp

; 252  : 	}

  00142	8d 4d 08	 lea	 ecx, DWORD PTR _strNewValue$4[ebp]
  00145	ff 15 00 00 00
	00		 call	 DWORD PTR __imp_??1?$CStringT@DV?$StrTraitMFC_DLL@DV?$ChTraitsCRT@D@ATL@@@@@ATL@@QAE@XZ
  0014b	8d 4d f0	 lea	 ecx, DWORD PTR _strOldValue$3[ebp]
  0014e	c7 45 fc ff ff
	ff ff		 mov	 DWORD PTR __$EHRec$[ebp+8], -1
  00155	ff 15 00 00 00
	00		 call	 DWORD PTR __imp_??1?$CStringT@DV?$StrTraitMFC_DLL@DV?$ChTraitsCRT@D@ATL@@@@@ATL@@QAE@XZ
$LN8@PreTransla:

; 93   : 	{
; 94   : 		// 1. 값을 반영한다.
; 95   : 		//	(2003.02.21) UpdateOnlyEnter Option을 제공하기 위하여, Update Routine을 별도로 제공한다.
; 96   : 		UpdateToListCtrl();
; 97   : 
; 98   : 		// 2. Hidden 시킨다.
; 99   : 		ShowWindow( SW_HIDE);

  0015b	6a 00		 push	 0
  0015d	8b cf		 mov	 ecx, edi
  0015f	e8 00 00 00 00	 call	 ?ShowWindow@CWnd@@QAEHH@Z ; CWnd::ShowWindow

; 104  : 		if( nNextItem <= m_pEditableListCtrl->GetItemCount())

  00164	8b 87 90 00 00
	00		 mov	 eax, DWORD PTR [edi+144]
  0016a	8b b7 80 00 00
	00		 mov	 esi, DWORD PTR [edi+128]
; File C:\Program Files (x86)\Microsoft Visual Studio\2019\Community\VC\Tools\MSVC\14.29.30133\atlmfc\include\afxcmn.inl

; 155  : 	{ ASSERT(::IsWindow(m_hWnd)); return (int) ::SendMessage(m_hWnd, LVM_GETITEMCOUNT, 0, 0L); }

  00170	6a 00		 push	 0
  00172	6a 00		 push	 0
  00174	68 04 10 00 00	 push	 4100			; 00001004H
  00179	ff 70 20	 push	 DWORD PTR [eax+32]
; File D:\git\src\IBK\IBK_DRFN\ProjSrc\SrcChartEx\ChartOCX\AddInManager\ChartCommonAddIn\LVEdit.cpp

; 103  : 		int nNextItem = m_nItem + 1;

  0017c	46		 inc	 esi
; File C:\Program Files (x86)\Microsoft Visual Studio\2019\Community\VC\Tools\MSVC\14.29.30133\atlmfc\include\afxcmn.inl

; 155  : 	{ ASSERT(::IsWindow(m_hWnd)); return (int) ::SendMessage(m_hWnd, LVM_GETITEMCOUNT, 0, 0L); }

  0017d	ff 15 00 00 00
	00		 call	 DWORD PTR __imp__SendMessageA@16
; File D:\git\src\IBK\IBK_DRFN\ProjSrc\SrcChartEx\ChartOCX\AddInManager\ChartCommonAddIn\LVEdit.cpp

; 104  : 		if( nNextItem <= m_pEditableListCtrl->GetItemCount())

  00183	3b f0		 cmp	 esi, eax
  00185	7f 25		 jg	 SHORT $LN4@PreTransla

; 105  : 		{
; 106  : 			// 3.2 다음 Item을 선택시킨다.
; 107  : 			m_pEditableListCtrl->SetItemState( nNextItem, LVIS_SELECTED | LVIS_FOCUSED, LVIS_SELECTED | LVIS_FOCUSED);

  00187	8b 8f 90 00 00
	00		 mov	 ecx, DWORD PTR [edi+144]
  0018d	6a 03		 push	 3
  0018f	6a 03		 push	 3
  00191	56		 push	 esi
  00192	e8 00 00 00 00	 call	 ?SetItemState@CListCtrl@@QAEHHII@Z ; CListCtrl::SetItemState

; 108  : 			m_pEditableListCtrl->EditSubItem( nNextItem, m_nSubItem);

  00197	8b 8f 90 00 00
	00		 mov	 ecx, DWORD PTR [edi+144]
  0019d	ff b7 84 00 00
	00		 push	 DWORD PTR [edi+132]
  001a3	56		 push	 esi
  001a4	8b 01		 mov	 eax, DWORD PTR [ecx]
  001a6	ff 90 70 01 00
	00		 call	 DWORD PTR [eax+368]
$LN4@PreTransla:

; 109  : 		}
; 110  : 
; 111  : 		return TRUE;

  001ac	b8 01 00 00 00	 mov	 eax, 1

; 115  : }

  001b1	8b 4d f4	 mov	 ecx, DWORD PTR __$EHRec$[ebp]
  001b4	64 89 0d 00 00
	00 00		 mov	 DWORD PTR fs:0, ecx
  001bb	59		 pop	 ecx
  001bc	5f		 pop	 edi
  001bd	5e		 pop	 esi
  001be	8b e5		 mov	 esp, ebp
  001c0	5d		 pop	 ebp
  001c1	c2 04 00	 ret	 4
$LN3@PreTransla:

; 112  : 	}
; 113  : 	
; 114  : 	return CEdit::PreTranslateMessage(pMsg);

  001c4	50		 push	 eax
  001c5	8b cf		 mov	 ecx, edi
  001c7	e8 00 00 00 00	 call	 ?PreTranslateMessage@CWnd@@UAEHPAUtagMSG@@@Z ; CWnd::PreTranslateMessage

; 115  : }

  001cc	8b 4d f4	 mov	 ecx, DWORD PTR __$EHRec$[ebp]
  001cf	64 89 0d 00 00
	00 00		 mov	 DWORD PTR fs:0, ecx
  001d6	59		 pop	 ecx
  001d7	5f		 pop	 edi
  001d8	5e		 pop	 esi
  001d9	8b e5		 mov	 esp, ebp
  001db	5d		 pop	 ebp
  001dc	c2 04 00	 ret	 4
$LN16@PreTransla:
; File C:\Program Files (x86)\Microsoft Visual Studio\2019\Community\VC\Tools\MSVC\14.29.30133\atlmfc\include\afxcoll.inl

; 43   : 			AfxThrowInvalidArgException();

  001df	e8 00 00 00 00	 call	 ?AfxThrowInvalidArgException@@YGXXZ ; AfxThrowInvalidArgException
$LN36@PreTransla:
  001e4	cc		 int	 3
_TEXT	ENDS
;	COMDAT text$x
text$x	SEGMENT
__unwindfunclet$?PreTranslateMessage@CLVEdit@@UAEHPAUtagMSG@@@Z$0:
  00000	8d 4d f0	 lea	 ecx, DWORD PTR _strOldValue$3[ebp]
  00003	ff 25 00 00 00
	00		 jmp	 DWORD PTR __imp_??1?$CStringT@DV?$StrTraitMFC_DLL@DV?$ChTraitsCRT@D@ATL@@@@@ATL@@QAE@XZ
__unwindfunclet$?PreTranslateMessage@CLVEdit@@UAEHPAUtagMSG@@@Z$1:
  00009	8d 4d 08	 lea	 ecx, DWORD PTR _strNewValue$4[ebp]
  0000c	ff 25 00 00 00
	00		 jmp	 DWORD PTR __imp_??1?$CStringT@DV?$StrTraitMFC_DLL@DV?$ChTraitsCRT@D@ATL@@@@@ATL@@QAE@XZ
  00012	cc		 int	 3
  00013	cc		 int	 3
  00014	cc		 int	 3
  00015	cc		 int	 3
  00016	cc		 int	 3
__ehhandler$?PreTranslateMessage@CLVEdit@@UAEHPAUtagMSG@@@Z:
  00017	90		 npad	 1
  00018	90		 npad	 1
  00019	8b 54 24 08	 mov	 edx, DWORD PTR [esp+8]
  0001d	8d 42 0c	 lea	 eax, DWORD PTR [edx+12]
  00020	8b 4a e0	 mov	 ecx, DWORD PTR [edx-32]
  00023	33 c8		 xor	 ecx, eax
  00025	e8 00 00 00 00	 call	 @__security_check_cookie@4
  0002a	b8 00 00 00 00	 mov	 eax, OFFSET __ehfuncinfo$?PreTranslateMessage@CLVEdit@@UAEHPAUtagMSG@@@Z
  0002f	e9 00 00 00 00	 jmp	 ___CxxFrameHandler3
text$x	ENDS
?PreTranslateMessage@CLVEdit@@UAEHPAUtagMSG@@@Z ENDP	; CLVEdit::PreTranslateMessage
; Function compile flags: /Ogtp
; File D:\git\src\IBK\IBK_DRFN\ProjSrc\SrcChartEx\ChartOCX\AddInManager\ChartCommonAddIn\LVEdit.cpp
; File C:\Program Files (x86)\Microsoft Visual Studio\2019\Community\VC\Tools\MSVC\14.29.30133\atlmfc\include\afxwin2.inl
; File D:\git\src\IBK\IBK_DRFN\ProjSrc\SrcChartEx\ChartOCX\AddInManager\ChartCommonAddIn\LVEdit.cpp
;	COMDAT ??0CLVEdit@@QAE@XZ
_TEXT	SEGMENT
_this$ = -4						; size = 4
??0CLVEdit@@QAE@XZ PROC					; CLVEdit::CLVEdit, COMDAT
; _this$ = ecx

; 19   : {

  00000	55		 push	 ebp
  00001	8b ec		 mov	 ebp, esp
  00003	51		 push	 ecx
  00004	56		 push	 esi
  00005	8b f1		 mov	 esi, ecx
  00007	89 75 fc	 mov	 DWORD PTR _this$[ebp], esi
; File C:\Program Files (x86)\Microsoft Visual Studio\2019\Community\VC\Tools\MSVC\14.29.30133\atlmfc\include\afxwin2.inl

; 851  : 	{ }

  0000a	e8 00 00 00 00	 call	 ??0CWnd@@QAE@XZ		; CWnd::CWnd
; File D:\git\src\IBK\IBK_DRFN\ProjSrc\SrcChartEx\ChartOCX\AddInManager\ChartCommonAddIn\LVEdit.cpp

; 19   : {

  0000f	c7 06 00 00 00
	00		 mov	 DWORD PTR [esi], OFFSET ??_7CLVEdit@@6B@

; 20   : 
; 21   : ///////////////////////////////////////////////////////////////////////////////
; 22   : //	작업자	:	배승원(Seung-Won, Bae)
; 23   : //	E-Mail	:	radox@dooriic.co.kr
; 24   : //	일자	:	2003.01.08
; 25   : //
; 26   : //	목적	:	Ctrl Key의 눌린 상태를 나타내는 Flag을 관리한다.
; 27   : ///////////////////////////////////////////////////////////////////////////////
; 28   : 	m_bCtrl = FALSE;
; 29   : 
; 30   : ///////////////////////////////////////////////////////////////////////////////
; 31   : //	작업자	:	배승원(Seung-Won, Bae)
; 32   : //	E-Mail	:	radox@dooriic.co.kr
; 33   : //	일자	:	2003.02.21
; 34   : //
; 35   : //	목적	:	Enter를 이용하여야만 Update를 지원할지 여부를 나타내는 Flag을 관리한다.
; 36   : //
; 37   : //	내용	:	1. 기본적으로 Flase이며, Enter외에도 단순히 Kill Focus 시점에도 Update된다.
; 38   : //				2. 그렇다 하여도, Esc Key를 이용한 Kill Focus의 시점에는 Update되지 않는다.
; 39   : ///////////////////////////////////////////////////////////////////////////////
; 40   : 	m_bUpdateOnlyEnter = FALSE;
; 41   : }

  00015	8b c6		 mov	 eax, esi
  00017	c7 86 88 00 00
	00 00 00 00 00	 mov	 DWORD PTR [esi+136], 0
  00021	c7 86 8c 00 00
	00 00 00 00 00	 mov	 DWORD PTR [esi+140], 0
  0002b	5e		 pop	 esi
  0002c	8b e5		 mov	 esp, ebp
  0002e	5d		 pop	 ebp
  0002f	c3		 ret	 0
??0CLVEdit@@QAE@XZ ENDP					; CLVEdit::CLVEdit
_TEXT	ENDS
; Function compile flags: /Ogtp
; File C:\Program Files (x86)\Microsoft Visual Studio\2019\Community\VC\Tools\MSVC\14.29.30133\atlmfc\include\afx.inl
;	COMDAT ??_GCEdit@@UAEPAXI@Z
_TEXT	SEGMENT
___flags$ = 8						; size = 4
??_GCEdit@@UAEPAXI@Z PROC				; CEdit::`scalar deleting destructor', COMDAT
; _this$ = ecx
  00000	55		 push	 ebp
  00001	8b ec		 mov	 ebp, esp
  00003	56		 push	 esi
  00004	8b f1		 mov	 esi, ecx
  00006	e8 00 00 00 00	 call	 ??1CEdit@@UAE@XZ	; CEdit::~CEdit
  0000b	8b 45 08	 mov	 eax, DWORD PTR ___flags$[ebp]
  0000e	a8 01		 test	 al, 1
  00010	74 22		 je	 SHORT $LN9@scalar
  00012	a8 04		 test	 al, 4
  00014	75 10		 jne	 SHORT $LN3@scalar

; 112  : 	{ ::operator delete(p); }

  00016	56		 push	 esi
  00017	e8 00 00 00 00	 call	 ??3@YAXPAX@Z		; operator delete
  0001c	83 c4 04	 add	 esp, 4
  0001f	8b c6		 mov	 eax, esi
  00021	5e		 pop	 esi
  00022	5d		 pop	 ebp
  00023	c2 04 00	 ret	 4
$LN3@scalar:
  00026	68 80 00 00 00	 push	 128			; 00000080H
  0002b	56		 push	 esi
  0002c	e8 00 00 00 00	 call	 ?__global_delete@@YAXPAXI@Z ; __global_delete
  00031	83 c4 08	 add	 esp, 8
$LN9@scalar:
  00034	8b c6		 mov	 eax, esi
  00036	5e		 pop	 esi
  00037	5d		 pop	 ebp
  00038	c2 04 00	 ret	 4
??_GCEdit@@UAEPAXI@Z ENDP				; CEdit::`scalar deleting destructor'
_TEXT	ENDS
; Function compile flags: /Ogtp
; File C:\Program Files (x86)\Microsoft Visual Studio\2019\Community\VC\Tools\MSVC\14.29.30133\atlmfc\include\afxwin2.inl
;	COMDAT ?EndModalState@CWnd@@UAEXXZ
_TEXT	SEGMENT
?EndModalState@CWnd@@UAEXXZ PROC			; CWnd::EndModalState, COMDAT
; _this$ = ecx

; 567  : 	{ ::EnableWindow(m_hWnd, TRUE); }

  00000	6a 01		 push	 1
  00002	ff 71 20	 push	 DWORD PTR [ecx+32]
  00005	ff 15 00 00 00
	00		 call	 DWORD PTR __imp__EnableWindow@8
  0000b	c3		 ret	 0
?EndModalState@CWnd@@UAEXXZ ENDP			; CWnd::EndModalState
_TEXT	ENDS
; Function compile flags: /Ogtp
; File C:\Program Files (x86)\Microsoft Visual Studio\2019\Community\VC\Tools\MSVC\14.29.30133\atlmfc\include\afxwin2.inl
;	COMDAT ?BeginModalState@CWnd@@UAEXXZ
_TEXT	SEGMENT
?BeginModalState@CWnd@@UAEXXZ PROC			; CWnd::BeginModalState, COMDAT
; _this$ = ecx

; 565  : 	{ ::EnableWindow(m_hWnd, FALSE); }

  00000	6a 00		 push	 0
  00002	ff 71 20	 push	 DWORD PTR [ecx+32]
  00005	ff 15 00 00 00
	00		 call	 DWORD PTR __imp__EnableWindow@8
  0000b	c3		 ret	 0
?BeginModalState@CWnd@@UAEXXZ ENDP			; CWnd::BeginModalState
_TEXT	ENDS
; Function compile flags: /Ogtp
; File C:\Program Files (x86)\Microsoft Visual Studio\2019\Community\VC\Tools\MSVC\14.29.30133\atlmfc\include\afxwin2.inl
;	COMDAT ?DoDataExchange@CWnd@@MAEXPAVCDataExchange@@@Z
_TEXT	SEGMENT
___formal$ = 8						; size = 4
?DoDataExchange@CWnd@@MAEXPAVCDataExchange@@@Z PROC	; CWnd::DoDataExchange, COMDAT
; _this$ = ecx

; 561  : 	{ } // default does nothing

  00000	c2 04 00	 ret	 4
?DoDataExchange@CWnd@@MAEXPAVCDataExchange@@@Z ENDP	; CWnd::DoDataExchange
_TEXT	ENDS
; Function compile flags: /Ogtp
; File C:\Program Files (x86)\Microsoft Visual Studio\2019\Community\VC\Tools\MSVC\14.29.30133\atlmfc\include\afx.inl
;	COMDAT ?Dump@CObject@@UBEXAAVCDumpContext@@@Z
_TEXT	SEGMENT
___formal$ = 8						; size = 4
?Dump@CObject@@UBEXAAVCDumpContext@@@Z PROC		; CObject::Dump, COMDAT
; _this$ = ecx

; 122  : 	{ /* no dumping in release builds */ }

  00000	c2 04 00	 ret	 4
?Dump@CObject@@UBEXAAVCDumpContext@@@Z ENDP		; CObject::Dump
_TEXT	ENDS
; Function compile flags: /Ogtp
; File C:\Program Files (x86)\Microsoft Visual Studio\2019\Community\VC\Tools\MSVC\14.29.30133\atlmfc\include\afx.inl
;	COMDAT ?AssertValid@CObject@@UBEXXZ
_TEXT	SEGMENT
?AssertValid@CObject@@UBEXXZ PROC			; CObject::AssertValid, COMDAT
; _this$ = ecx

; 120  : 	{ /* no asserts in release builds */ }

  00000	c2 00 00	 ret	 0
?AssertValid@CObject@@UBEXXZ ENDP			; CObject::AssertValid
_TEXT	ENDS
; Function compile flags: /Ogtp
; File C:\Program Files (x86)\Microsoft Visual Studio\2019\Community\VC\Tools\MSVC\14.29.30133\atlmfc\include\afx.inl
;	COMDAT ?Serialize@CObject@@UAEXAAVCArchive@@@Z
_TEXT	SEGMENT
___formal$ = 8						; size = 4
?Serialize@CObject@@UAEXAAVCArchive@@@Z PROC		; CObject::Serialize, COMDAT
; _this$ = ecx

; 106  : 	{ /* CObject does not serialize anything by default */ }

  00000	c2 04 00	 ret	 4
?Serialize@CObject@@UAEXAAVCArchive@@@Z ENDP		; CObject::Serialize
_TEXT	ENDS
; Function compile flags: /Ogtp
; File D:\git\src\IBK\IBK_DRFN\ProjSrc\SrcChartEx\ChartOCX\AddInManager\ChartCommonAddIn\LVEdit.cpp
;	COMDAT ?__empty_global_delete@@YAXPAXI@Z
_TEXT	SEGMENT
___formal$ = 8						; size = 4
___formal$ = 12						; size = 4
?__empty_global_delete@@YAXPAXI@Z PROC			; __empty_global_delete, COMDAT

  00000	c2 00 00	 ret	 0
?__empty_global_delete@@YAXPAXI@Z ENDP			; __empty_global_delete
_TEXT	ENDS
; Function compile flags: /Ogtp
; File D:\git\src\IBK\IBK_DRFN\ProjSrc\SrcChartEx\ChartOCX\AddInManager\ChartCommonAddIn\LVEdit.cpp
;	COMDAT ?__empty_global_delete@@YAXPAX@Z
_TEXT	SEGMENT
___formal$ = 8						; size = 4
?__empty_global_delete@@YAXPAX@Z PROC			; __empty_global_delete, COMDAT

  00000	c2 00 00	 ret	 0
?__empty_global_delete@@YAXPAX@Z ENDP			; __empty_global_delete
_TEXT	ENDS
END
