; Listing generated by Microsoft (R) Optimizing Compiler Version 19.29.30145.0 

	TITLE	D:\git\src\IBK\IBK_DRFN\#DRfn-CS\_Obj\ChartCommonAddIn\MousePositionExportingAddInImp.obj
	.686P
	.XMM
	include listing.inc
	.model	flat

INCLUDELIB MSVCRT
INCLUDELIB OLDNAMES

PUBLIC	?m_eRegisteredEventMap@CMousePositionExportingAddInImp@@1QBW4EAddInEventType@IChartAddIn000000@@B ; CMousePositionExportingAddInImp::m_eRegisteredEventMap
PUBLIC	??_C@_0P@DPICDNOL@MOUSE_POSITION@		; `string'
;	COMDAT ??_C@_0P@DPICDNOL@MOUSE_POSITION@
CONST	SEGMENT
??_C@_0P@DPICDNOL@MOUSE_POSITION@ DB 'MOUSE_POSITION', 00H ; `string'
CONST	ENDS
CONST	SEGMENT
?m_eRegisteredEventMap@CMousePositionExportingAddInImp@@1QBW4EAddInEventType@IChartAddIn000000@@B DD 01dH ; CMousePositionExportingAddInImp::m_eRegisteredEventMap
	DD	03cH
	ORG $+236
CONST	ENDS
PUBLIC	?__empty_global_delete@@YAXPAX@Z		; __empty_global_delete
PUBLIC	?__empty_global_delete@@YAXPAXI@Z		; __empty_global_delete
PUBLIC	?Serialize@CObject@@UAEXAAVCArchive@@@Z		; CObject::Serialize
PUBLIC	?AssertValid@CObject@@UBEXXZ			; CObject::AssertValid
PUBLIC	?Dump@CObject@@UBEXAAVCDumpContext@@@Z		; CObject::Dump
PUBLIC	??HATL@@YA?AV?$CStringT@DV?$StrTraitMFC_DLL@DV?$ChTraitsCRT@D@ATL@@@@@0@ABV10@0@Z ; ATL::operator+
PUBLIC	?_AfxInitManaged@@YAHXZ				; _AfxInitManaged
PUBLIC	?PostConstruct@CIWUnknown@@MAEXXZ		; CIWUnknown::PostConstruct
PUBLIC	?PreDestructX@CIWUnknown@@MAEXXZ		; CIWUnknown::PreDestructX
PUBLIC	?PreDestruct@CIWUnknown@@MAEXXZ			; CIWUnknown::PreDestruct
PUBLIC	?AddRef@CChartAddInBase000000@@MAGKXZ		; CChartAddInBase000000::AddRef
PUBLIC	?Release@CChartAddInBase000000@@MAGKXZ		; CChartAddInBase000000::Release
PUBLIC	?QueryInterface@CChartAddInBase000000@@MAGJABU_GUID@@PAPAX@Z ; CChartAddInBase000000::QueryInterface
PUBLIC	?GetAddInCustomInterface@CChartAddInBase000000@@MAEPAUIUnknown@@XZ ; CChartAddInBase000000::GetAddInCustomInterface
PUBLIC	?InvokeAddInStr@CChartAddInBase000000@@MAEHPBD0@Z ; CChartAddInBase000000::InvokeAddInStr
PUBLIC	?AfeterOnOcxDestroyWindow@CChartAddInBase000000@@MAEXXZ ; CChartAddInBase000000::AfeterOnOcxDestroyWindow
PUBLIC	?ChangeChartMode@CChartAddInBase000000@@MAEXW4CHART_MODE@CChartInfo@@@Z ; CChartAddInBase000000::ChangeChartMode
PUBLIC	?OnGSharedDataChange@CChartAddInBase000000@@MAEXPBD0H@Z ; CChartAddInBase000000::OnGSharedDataChange
PUBLIC	?OnLSharedDataChange@CChartAddInBase000000@@MAEXPBD0@Z ; CChartAddInBase000000::OnLSharedDataChange
PUBLIC	?OnResetChart@CChartAddInBase000000@@MAEXXZ	; CChartAddInBase000000::OnResetChart
PUBLIC	?OnDrawBeforeGraph@CChartAddInBase000000@@MAEXPAUHDC__@@@Z ; CChartAddInBase000000::OnDrawBeforeGraph
PUBLIC	?OnDrawAfterGraph@CChartAddInBase000000@@MAEXPAUHDC__@@@Z ; CChartAddInBase000000::OnDrawAfterGraph
PUBLIC	?OnPacketDataMultiItem@CChartAddInBase000000@@MAEXPBD0H@Z ; CChartAddInBase000000::OnPacketDataMultiItem
PUBLIC	?OnTimer@CChartAddInBase000000@@MAEXI@Z		; CChartAddInBase000000::OnTimer
PUBLIC	?OnCaptureChanged@CChartAddInBase000000@@MAEXPAUHWND__@@QAUHBITMAP__@@@Z ; CChartAddInBase000000::OnCaptureChanged
PUBLIC	?OnResetMainBlock@CChartAddInBase000000@@MAEXXZ	; CChartAddInBase000000::OnResetMainBlock
PUBLIC	?OnUserIndiatorConditionLoaded@CChartAddInBase000000@@MAEXXZ ; CChartAddInBase000000::OnUserIndiatorConditionLoaded
PUBLIC	?OnChartItemChanged@CChartAddInBase000000@@MAEXXZ ; CChartAddInBase000000::OnChartItemChanged
PUBLIC	?OnGraphDataChanged@CChartAddInBase000000@@MAEXXZ ; CChartAddInBase000000::OnGraphDataChanged
PUBLIC	?OnBlockRemoved@CChartAddInBase000000@@MAEXHH@Z	; CChartAddInBase000000::OnBlockRemoved
PUBLIC	?OnGraphAdded@CChartAddInBase000000@@MAEXPBD0@Z	; CChartAddInBase000000::OnGraphAdded
PUBLIC	?OnManualRealData@CChartAddInBase000000@@MAEXPBDNH@Z ; CChartAddInBase000000::OnManualRealData
PUBLIC	?OnContextMenu@CChartAddInBase000000@@MAEXPAUHWND__@@AAUtagPOINT@@@Z ; CChartAddInBase000000::OnContextMenu
PUBLIC	?OnGraphDeleted@CChartAddInBase000000@@MAEXPBD0@Z ; CChartAddInBase000000::OnGraphDeleted
PUBLIC	?OnPacketTruncated@CChartAddInBase000000@@MAEXH@Z ; CChartAddInBase000000::OnPacketTruncated
PUBLIC	?OnBlockChanged@CChartAddInBase000000@@MAEXW4BLOCKBEHAVIOR@CBlockBaseData@@HHHH@Z ; CChartAddInBase000000::OnBlockChanged
PUBLIC	?OnToolCommand@CChartAddInBase000000@@MAEXHH@Z	; CChartAddInBase000000::OnToolCommand
PUBLIC	?OnRealData@CChartAddInBase000000@@MAEXPBDN0@Z	; CChartAddInBase000000::OnRealData
PUBLIC	?OnIndexedRealData@CChartAddInBase000000@@MAEXPBDHN@Z ; CChartAddInBase000000::OnIndexedRealData
PUBLIC	?OnRealPacketEnd@CChartAddInBase000000@@MAEXPBD@Z ; CChartAddInBase000000::OnRealPacketEnd
PUBLIC	?OnLoadEnvironment@CChartAddInBase000000@@MAEXPAUIPropertyMap@@@Z ; CChartAddInBase000000::OnLoadEnvironment
PUBLIC	?OnSaveEnvironment@CChartAddInBase000000@@MAEXPAUIPropertyMap@@@Z ; CChartAddInBase000000::OnSaveEnvironment
PUBLIC	?DrawCursor@CChartAddInBase000000@@MAE?AUtagRECT@@PAUHDC__@@@Z ; CChartAddInBase000000::DrawCursor
PUBLIC	?OnRecalculationComplete@CChartAddInBase000000@@MAEXXZ ; CChartAddInBase000000::OnRecalculationComplete
PUBLIC	?OnPreRealData@CChartAddInBase000000@@MAEHPBDAAN0H@Z ; CChartAddInBase000000::OnPreRealData
PUBLIC	?OnPreIndexedRealData@CChartAddInBase000000@@MAEHPBDHAANH@Z ; CChartAddInBase000000::OnPreIndexedRealData
PUBLIC	?OnPreRealPacketEnd@CChartAddInBase000000@@MAEHPBDH@Z ; CChartAddInBase000000::OnPreRealPacketEnd
PUBLIC	?OnPreNMTRClock@CChartAddInBase000000@@MAEHAA_J@Z ; CChartAddInBase000000::OnPreNMTRClock
PUBLIC	?OnCmdMsg@CChartAddInBase000000@@MAEHIHPAUICmdUI000000@@@Z ; CChartAddInBase000000::OnCmdMsg
PUBLIC	?OnAddInMsg@CChartAddInBase000000@@MAEHPBDJ@Z	; CChartAddInBase000000::OnAddInMsg
PUBLIC	?OnAddInToolCommand@CChartAddInBase000000@@MAEHW4EAICommandType@@@Z ; CChartAddInBase000000::OnAddInToolCommand
PUBLIC	?OnAddInToolCommand@CChartAddInBase000000@@MAEHW4EAICommandType@@PAUHDC__@@IAAUtagPOINT@@K@Z ; CChartAddInBase000000::OnAddInToolCommand
PUBLIC	?OnAddInToolCommand@CChartAddInBase000000@@MAEHW4EAICommandType@@PBD@Z ; CChartAddInBase000000::OnAddInToolCommand
PUBLIC	?OnAddInToolCommand@CChartAddInBase000000@@MAEHW4EAICommandType@@PBD1@Z ; CChartAddInBase000000::OnAddInToolCommand
PUBLIC	?OnAddInToolCommand@CChartAddInBase000000@@MAEHW4EAICommandType@@PBDJ@Z ; CChartAddInBase000000::OnAddInToolCommand
PUBLIC	?OnAddInToolCommand@CChartAddInBase000000@@MAEHW4EAICommandType@@PBUIAddInDllBase@@@Z ; CChartAddInBase000000::OnAddInToolCommand
PUBLIC	?OnAddInToolCommand@CChartAddInBase000000@@MAEHW4EAICommandType@@J@Z ; CChartAddInBase000000::OnAddInToolCommand
PUBLIC	?OnAddInToolCommand@CChartAddInBase000000@@MAEHW4EAICommandType@@JPBD@Z ; CChartAddInBase000000::OnAddInToolCommand
PUBLIC	?OnAddInToolCommand@CChartAddInBase000000@@MAEHW4EAICommandType@@JPBD11@Z ; CChartAddInBase000000::OnAddInToolCommand
PUBLIC	?OnAddInToolCommand@CChartAddInBase000000@@MAEHW4EAICommandType@@JJ@Z ; CChartAddInBase000000::OnAddInToolCommand
PUBLIC	?OnAddInToolCommand@CChartAddInBase000000@@MAEHW4EAICommandType@@JJJJJJJJJ@Z ; CChartAddInBase000000::OnAddInToolCommand
PUBLIC	?OnAddInToolCommand@CChartAddInBase000000@@MAEHAAJW4EAICommandType@@@Z ; CChartAddInBase000000::OnAddInToolCommand
PUBLIC	?OnAddInToolCommand@CChartAddInBase000000@@MAEHAAJW4EAICommandType@@PAUIGraphInfo000000@@@Z ; CChartAddInBase000000::OnAddInToolCommand
PUBLIC	?OnAddInToolCommand@CChartAddInBase000000@@MAEHAAJW4EAICommandType@@PBD@Z ; CChartAddInBase000000::OnAddInToolCommand
PUBLIC	?OnAddInToolCommand@CChartAddInBase000000@@MAEHAAJW4EAICommandType@@PBDPAVCObject@@@Z ; CChartAddInBase000000::OnAddInToolCommand
PUBLIC	?OnAddInToolCommand@CChartAddInBase000000@@MAEHAAJW4EAICommandType@@J@Z ; CChartAddInBase000000::OnAddInToolCommand
PUBLIC	?OnAddInToolCommand@CChartAddInBase000000@@MAEHAAJW4EAICommandType@@JJ@Z ; CChartAddInBase000000::OnAddInToolCommand
PUBLIC	?OnKeyDown@CChartAddInBase000000@@MAEHIII@Z	; CChartAddInBase000000::OnKeyDown
PUBLIC	?OnKeyUp@CChartAddInBase000000@@MAEHIII@Z	; CChartAddInBase000000::OnKeyUp
PUBLIC	?OnMouseWheel@CChartAddInBase000000@@MAEHIFUtagPOINT@@K@Z ; CChartAddInBase000000::OnMouseWheel
PUBLIC	?OnLButtonDown@CChartAddInBase000000@@MAEHPAUHDC__@@IAAUtagPOINT@@K@Z ; CChartAddInBase000000::OnLButtonDown
PUBLIC	?OnLButtonUp@CChartAddInBase000000@@MAEHPAUHDC__@@IAAUtagPOINT@@K@Z ; CChartAddInBase000000::OnLButtonUp
PUBLIC	?OnLButtonDblClk@CChartAddInBase000000@@MAEHPAUHDC__@@IAAUtagPOINT@@K@Z ; CChartAddInBase000000::OnLButtonDblClk
PUBLIC	?OnRButtonDown@CChartAddInBase000000@@MAEHPAUHDC__@@IAAUtagPOINT@@K@Z ; CChartAddInBase000000::OnRButtonDown
PUBLIC	?OnRButtonUp@CChartAddInBase000000@@MAEHPAUHDC__@@IAAUtagPOINT@@K@Z ; CChartAddInBase000000::OnRButtonUp
PUBLIC	?OnRButtonDblClk@CChartAddInBase000000@@MAEHPAUHDC__@@IAAUtagPOINT@@K@Z ; CChartAddInBase000000::OnRButtonDblClk
PUBLIC	??0CMousePositionExportingAddInImp@@QAE@PAUIChartOCX000000@@PAUIAddInDllBase@@@Z ; CMousePositionExportingAddInImp::CMousePositionExportingAddInImp
PUBLIC	??1CMousePositionExportingAddInImp@@UAE@XZ	; CMousePositionExportingAddInImp::~CMousePositionExportingAddInImp
PUBLIC	?GetRegisteredEventMap@CMousePositionExportingAddInImp@@MBEPBW4EAddInEventType@IChartAddIn000000@@XZ ; CMousePositionExportingAddInImp::GetRegisteredEventMap
PUBLIC	?GetScaleData@CMousePositionExportingAddInImp@@IAEHVCPoint@@@Z ; CMousePositionExportingAddInImp::GetScaleData
PUBLIC	?GetStringfromDataIdx@CMousePositionExportingAddInImp@@IAEHH@Z ; CMousePositionExportingAddInImp::GetStringfromDataIdx
PUBLIC	?GetIBlock@CMousePositionExportingAddInImp@@IAEHVCPoint@@@Z ; CMousePositionExportingAddInImp::GetIBlock
PUBLIC	?GetGraphBlockRegion@CMousePositionExportingAddInImp@@IAEHVCPoint@@@Z ; CMousePositionExportingAddInImp::GetGraphBlockRegion
PUBLIC	?GetXScaleDataInPoint@CMousePositionExportingAddInImp@@IAEHVCPoint@@@Z ; CMousePositionExportingAddInImp::GetXScaleDataInPoint
PUBLIC	?GetYScaleDataInPoint@CMousePositionExportingAddInImp@@IAEHVCPoint@@@Z ; CMousePositionExportingAddInImp::GetYScaleDataInPoint
PUBLIC	?InvokeAddIn@CMousePositionExportingAddInImp@@MAEHHJ@Z ; CMousePositionExportingAddInImp::InvokeAddIn
PUBLIC	?OnMouseMove@CMousePositionExportingAddInImp@@MAEHPAUHDC__@@IAAUtagPOINT@@KQAUHBITMAP__@@@Z ; CMousePositionExportingAddInImp::OnMouseMove
PUBLIC	??_GCMousePositionExportingAddInImp@@UAEPAXI@Z	; CMousePositionExportingAddInImp::`scalar deleting destructor'
PUBLIC	??1CMultiLanguageResourceSetter@@QAE@XZ		; CMultiLanguageResourceSetter::~CMultiLanguageResourceSetter
PUBLIC	??1ILPCSTR000000@@QAE@XZ			; ILPCSTR000000::~ILPCSTR000000
PUBLIC	?QueryInterface@CChartAddInBase000000@@O7AGJABU_GUID@@PAPAX@Z ; [thunk]:CChartAddInBase000000::QueryInterface`adjustor{8}'
PUBLIC	?AddRef@CChartAddInBase000000@@O7AGKXZ		; [thunk]:CChartAddInBase000000::AddRef`adjustor{8}'
PUBLIC	?Release@CChartAddInBase000000@@O7AGKXZ		; [thunk]:CChartAddInBase000000::Release`adjustor{8}'
PUBLIC	??_ECMousePositionExportingAddInImp@@W7AEPAXI@Z	; [thunk]:CMousePositionExportingAddInImp::`vector deleting destructor'
PUBLIC	??_C@_02DPKJAMEF@?$CFd@				; `string'
PUBLIC	??_C@_00CNPNBAHC@@				; `string'
PUBLIC	??_R0?AVCObject@@@8				; CObject `RTTI Type Descriptor'
PUBLIC	??_R3CObject@@8					; CObject::`RTTI Class Hierarchy Descriptor'
PUBLIC	??_R2CObject@@8					; CObject::`RTTI Base Class Array'
PUBLIC	??_R1A@?0A@EA@CObject@@8			; CObject::`RTTI Base Class Descriptor at (0,-1,0,64)'
PUBLIC	??_R0?AUIUnknown@@@8				; IUnknown `RTTI Type Descriptor'
PUBLIC	??_R3IUnknown@@8				; IUnknown::`RTTI Class Hierarchy Descriptor'
PUBLIC	??_R2IUnknown@@8				; IUnknown::`RTTI Base Class Array'
PUBLIC	??_R1A@?0A@EA@IUnknown@@8			; IUnknown::`RTTI Base Class Descriptor at (0,-1,0,64)'
PUBLIC	?m_strAddInItemName@CMousePositionExportingAddInImp@@2V?$CStringT@DV?$StrTraitMFC_DLL@DV?$ChTraitsCRT@D@ATL@@@@@ATL@@A ; CMousePositionExportingAddInImp::m_strAddInItemName
PUBLIC	??_7CMousePositionExportingAddInImp@@6BCIWUnknown@@@ ; CMousePositionExportingAddInImp::`vftable'
PUBLIC	??_7CMousePositionExportingAddInImp@@6BIChartAddIn000000@@@ ; CMousePositionExportingAddInImp::`vftable'
PUBLIC	??_C@_0BA@ENJOCHIO@LoadResourceDLL@		; `string'
PUBLIC	??_C@_01DNKMNLPK@?$HM@				; `string'
PUBLIC	??_C@_04GHNNFJCK@?$CF?40f@			; `string'
PUBLIC	??_C@_06DNBDMDIL@?$CF?$CF?4?$CFdf@		; `string'
PUBLIC	??_C@_01GBGANLPD@0@				; `string'
PUBLIC	??_R0?AUIChartAddIn000000@@@8			; IChartAddIn000000 `RTTI Type Descriptor'
PUBLIC	??_R3IChartAddIn000000@@8			; IChartAddIn000000::`RTTI Class Hierarchy Descriptor'
PUBLIC	??_R2IChartAddIn000000@@8			; IChartAddIn000000::`RTTI Base Class Array'
PUBLIC	??_R1A@?0A@EA@IChartAddIn000000@@8		; IChartAddIn000000::`RTTI Base Class Descriptor at (0,-1,0,64)'
PUBLIC	??_R4CMousePositionExportingAddInImp@@6BCIWUnknown@@@ ; CMousePositionExportingAddInImp::`RTTI Complete Object Locator'
PUBLIC	??_R0?AVCMousePositionExportingAddInImp@@@8	; CMousePositionExportingAddInImp `RTTI Type Descriptor'
PUBLIC	??_R3CMousePositionExportingAddInImp@@8		; CMousePositionExportingAddInImp::`RTTI Class Hierarchy Descriptor'
PUBLIC	??_R2CMousePositionExportingAddInImp@@8		; CMousePositionExportingAddInImp::`RTTI Base Class Array'
PUBLIC	??_R1A@?0A@EA@CMousePositionExportingAddInImp@@8 ; CMousePositionExportingAddInImp::`RTTI Base Class Descriptor at (0,-1,0,64)'
PUBLIC	??_R1A@?0A@EA@CChartAddInBase000000@@8		; CChartAddInBase000000::`RTTI Base Class Descriptor at (0,-1,0,64)'
PUBLIC	??_R0?AVCChartAddInBase000000@@@8		; CChartAddInBase000000 `RTTI Type Descriptor'
PUBLIC	??_R3CChartAddInBase000000@@8			; CChartAddInBase000000::`RTTI Class Hierarchy Descriptor'
PUBLIC	??_R2CChartAddInBase000000@@8			; CChartAddInBase000000::`RTTI Base Class Array'
PUBLIC	??_R1A@?0A@EA@CIWUnknown@@8			; CIWUnknown::`RTTI Base Class Descriptor at (0,-1,0,64)'
PUBLIC	??_R0?AVCIWUnknown@@@8				; CIWUnknown `RTTI Type Descriptor'
PUBLIC	??_R3CIWUnknown@@8				; CIWUnknown::`RTTI Class Hierarchy Descriptor'
PUBLIC	??_R2CIWUnknown@@8				; CIWUnknown::`RTTI Base Class Array'
PUBLIC	??_R17?0A@EA@IChartAddIn000000@@8		; IChartAddIn000000::`RTTI Base Class Descriptor at (8,-1,0,64)'
PUBLIC	??_R17?0A@EA@IUnknown@@8			; IUnknown::`RTTI Base Class Descriptor at (8,-1,0,64)'
PUBLIC	??_R4CMousePositionExportingAddInImp@@6BIChartAddIn000000@@@ ; CMousePositionExportingAddInImp::`RTTI Complete Object Locator'
PUBLIC	__real@0000000000000000
PUBLIC	__real@3fe0000000000000
PUBLIC	__real@4059000000000000
EXTRN	??3@YAXPAX@Z:PROC				; operator delete
EXTRN	?__global_delete@@YAXPAXI@Z:PROC		; __global_delete
EXTRN	_atexit:PROC
EXTRN	___std_terminate:PROC
EXTRN	__imp__GetProcAddress@8:PROC
EXTRN	__imp__CopyRect@8:PROC
EXTRN	__imp__PtInRect@12:PROC
EXTRN	?GetRuntimeClass@CObject@@UBEPAUCRuntimeClass@@XZ:PROC ; CObject::GetRuntimeClass
EXTRN	__imp_??A?$CSimpleStringT@D$00@ATL@@QBEDH@Z:PROC
EXTRN	__imp_?GetAt@?$CSimpleStringT@D$00@ATL@@QBEDH@Z:PROC
EXTRN	__imp_?Concatenate@?$CSimpleStringT@D$00@ATL@@KAXAAV12@PBDH1H@Z:PROC
EXTRN	__imp_??0?$CStringT@DV?$StrTraitMFC_DLL@DV?$ChTraitsCRT@D@ATL@@@@@ATL@@QAE@XZ:PROC
EXTRN	__imp_??0?$CStringT@DV?$StrTraitMFC_DLL@DV?$ChTraitsCRT@D@ATL@@@@@ATL@@QAE@PAUIAtlStringMgr@1@@Z:PROC
EXTRN	__imp_??0?$CStringT@DV?$StrTraitMFC_DLL@DV?$ChTraitsCRT@D@ATL@@@@@ATL@@QAE@ABV01@@Z:PROC
EXTRN	__imp_??0?$CStringT@DV?$StrTraitMFC_DLL@DV?$ChTraitsCRT@D@ATL@@@@@ATL@@QAE@PBD@Z:PROC
EXTRN	__imp_??1?$CStringT@DV?$StrTraitMFC_DLL@DV?$ChTraitsCRT@D@ATL@@@@@ATL@@QAE@XZ:PROC
EXTRN	__imp_??4?$CStringT@DV?$StrTraitMFC_DLL@DV?$ChTraitsCRT@D@ATL@@@@@ATL@@QAEAAV01@ABV01@@Z:PROC
EXTRN	__imp_??4?$CStringT@DV?$StrTraitMFC_DLL@DV?$ChTraitsCRT@D@ATL@@@@@ATL@@QAEAAV01@PBD@Z:PROC
EXTRN	__imp_??4?$CStringT@DV?$StrTraitMFC_DLL@DV?$ChTraitsCRT@D@ATL@@@@@ATL@@QAEAAV01@D@Z:PROC
EXTRN	__imp_?GetManager@?$CStringT@DV?$StrTraitMFC_DLL@DV?$ChTraitsCRT@D@ATL@@@@@ATL@@QBEPAUIAtlStringMgr@2@XZ:PROC
EXTRN	__imp_?Format@?$CStringT@DV?$StrTraitMFC_DLL@DV?$ChTraitsCRT@D@ATL@@@@@ATL@@QAAXPBDZZ:PROC
EXTRN	__imp_?LoadStringA@?$CStringT@DV?$StrTraitMFC_DLL@DV?$ChTraitsCRT@D@ATL@@@@@ATL@@QAEHI@Z:PROC
EXTRN	?AfxGetModuleState@@YGPAVAFX_MODULE_STATE@@XZ:PROC ; AfxGetModuleState
EXTRN	?AfxGetStaticModuleState@@YGPAVAFX_MODULE_STATE@@XZ:PROC ; AfxGetStaticModuleState
EXTRN	??0AFX_MAINTAIN_STATE2@@QAE@PAVAFX_MODULE_STATE@@@Z:PROC ; AFX_MAINTAIN_STATE2::AFX_MAINTAIN_STATE2
EXTRN	??1AFX_MAINTAIN_STATE2@@QAE@XZ:PROC		; AFX_MAINTAIN_STATE2::~AFX_MAINTAIN_STATE2
EXTRN	?AddRef@CIWUnknown@@MAGKXZ:PROC			; CIWUnknown::AddRef
EXTRN	?Release@CIWUnknown@@MAGKXZ:PROC		; CIWUnknown::Release
EXTRN	??0CChartAddInBase000000@@IAE@PAUIChartOCX000000@@PAUIAddInDllBase@@@Z:PROC ; CChartAddInBase000000::CChartAddInBase000000
EXTRN	??1CChartAddInBase000000@@MAE@XZ:PROC		; CChartAddInBase000000::~CChartAddInBase000000
EXTRN	?HasFullManager@CChartAddInBase000000@@MAEHXZ:PROC ; CChartAddInBase000000::HasFullManager
EXTRN	?RegisterEventMap@CChartAddInBase000000@@UAEHH@Z:PROC ; CChartAddInBase000000::RegisterEventMap
EXTRN	?UnregisterEventMap@CChartAddInBase000000@@UAEHXZ:PROC ; CChartAddInBase000000::UnregisterEventMap
EXTRN	?OnOcxDestroyWindow@CChartAddInBase000000@@MAEXXZ:PROC ; CChartAddInBase000000::OnOcxDestroyWindow
EXTRN	??_ECMousePositionExportingAddInImp@@UAEPAXI@Z:PROC ; CMousePositionExportingAddInImp::`vector deleting destructor'
EXTRN	@__security_check_cookie@4:PROC
EXTRN	___CxxFrameHandler3:PROC
EXTRN	__libm_sse2_log10_precise:PROC
EXTRN	??_7type_info@@6B@:QWORD			; type_info::`vftable'
EXTRN	?g_iMetaTable@@3VIMetaTable@@A:BYTE		; g_iMetaTable
EXTRN	___security_cookie:DWORD
EXTRN	__fltused:DWORD
_BSS	SEGMENT
?m_strAddInItemName@CMousePositionExportingAddInImp@@2V?$CStringT@DV?$StrTraitMFC_DLL@DV?$ChTraitsCRT@D@ATL@@@@@ATL@@A DD 01H DUP (?) ; CMousePositionExportingAddInImp::m_strAddInItemName
_BSS	ENDS
CRT$XCU	SEGMENT
??m_strAddInItemName$initializer$@CMousePositionExportingAddInImp@@2P6AXXZA@@3P6AXXZA DD FLAT:??__E?m_strAddInItemName@CMousePositionExportingAddInImp@@2V?$CStringT@DV?$StrTraitMFC_DLL@DV?$ChTraitsCRT@D@ATL@@@@@ATL@@A@@YAXXZ ; ??m_strAddInItemName$initializer$@CMousePositionExportingAddInImp@@2P6AXXZA@@3P6AXXZA
CRT$XCU	ENDS
;	COMDAT __real@4059000000000000
CONST	SEGMENT
__real@4059000000000000 DQ 04059000000000000r	; 100
CONST	ENDS
;	COMDAT __real@3fe0000000000000
CONST	SEGMENT
__real@3fe0000000000000 DQ 03fe0000000000000r	; 0.5
CONST	ENDS
;	COMDAT __real@0000000000000000
CONST	SEGMENT
__real@0000000000000000 DQ 00000000000000000r	; 0
CONST	ENDS
;	COMDAT ??_R4CMousePositionExportingAddInImp@@6BIChartAddIn000000@@@
rdata$r	SEGMENT
??_R4CMousePositionExportingAddInImp@@6BIChartAddIn000000@@@ DD 00H ; CMousePositionExportingAddInImp::`RTTI Complete Object Locator'
	DD	08H
	DD	00H
	DD	FLAT:??_R0?AVCMousePositionExportingAddInImp@@@8
	DD	FLAT:??_R3CMousePositionExportingAddInImp@@8
rdata$r	ENDS
;	COMDAT ??_R17?0A@EA@IUnknown@@8
rdata$r	SEGMENT
??_R17?0A@EA@IUnknown@@8 DD FLAT:??_R0?AUIUnknown@@@8	; IUnknown::`RTTI Base Class Descriptor at (8,-1,0,64)'
	DD	00H
	DD	08H
	DD	0ffffffffH
	DD	00H
	DD	040H
	DD	FLAT:??_R3IUnknown@@8
rdata$r	ENDS
;	COMDAT ??_R17?0A@EA@IChartAddIn000000@@8
rdata$r	SEGMENT
??_R17?0A@EA@IChartAddIn000000@@8 DD FLAT:??_R0?AUIChartAddIn000000@@@8 ; IChartAddIn000000::`RTTI Base Class Descriptor at (8,-1,0,64)'
	DD	01H
	DD	08H
	DD	0ffffffffH
	DD	00H
	DD	040H
	DD	FLAT:??_R3IChartAddIn000000@@8
rdata$r	ENDS
;	COMDAT ??_R2CIWUnknown@@8
rdata$r	SEGMENT
??_R2CIWUnknown@@8 DD FLAT:??_R1A@?0A@EA@CIWUnknown@@8	; CIWUnknown::`RTTI Base Class Array'
	DD	FLAT:??_R1A@?0A@EA@CObject@@8
rdata$r	ENDS
;	COMDAT ??_R3CIWUnknown@@8
rdata$r	SEGMENT
??_R3CIWUnknown@@8 DD 00H				; CIWUnknown::`RTTI Class Hierarchy Descriptor'
	DD	00H
	DD	02H
	DD	FLAT:??_R2CIWUnknown@@8
rdata$r	ENDS
;	COMDAT ??_R0?AVCIWUnknown@@@8
data$rs	SEGMENT
??_R0?AVCIWUnknown@@@8 DD FLAT:??_7type_info@@6B@	; CIWUnknown `RTTI Type Descriptor'
	DD	00H
	DB	'.?AVCIWUnknown@@', 00H
data$rs	ENDS
;	COMDAT ??_R1A@?0A@EA@CIWUnknown@@8
rdata$r	SEGMENT
??_R1A@?0A@EA@CIWUnknown@@8 DD FLAT:??_R0?AVCIWUnknown@@@8 ; CIWUnknown::`RTTI Base Class Descriptor at (0,-1,0,64)'
	DD	01H
	DD	00H
	DD	0ffffffffH
	DD	00H
	DD	040H
	DD	FLAT:??_R3CIWUnknown@@8
rdata$r	ENDS
;	COMDAT ??_R2CChartAddInBase000000@@8
rdata$r	SEGMENT
??_R2CChartAddInBase000000@@8 DD FLAT:??_R1A@?0A@EA@CChartAddInBase000000@@8 ; CChartAddInBase000000::`RTTI Base Class Array'
	DD	FLAT:??_R1A@?0A@EA@CIWUnknown@@8
	DD	FLAT:??_R1A@?0A@EA@CObject@@8
	DD	FLAT:??_R17?0A@EA@IChartAddIn000000@@8
	DD	FLAT:??_R17?0A@EA@IUnknown@@8
rdata$r	ENDS
;	COMDAT ??_R3CChartAddInBase000000@@8
rdata$r	SEGMENT
??_R3CChartAddInBase000000@@8 DD 00H			; CChartAddInBase000000::`RTTI Class Hierarchy Descriptor'
	DD	01H
	DD	05H
	DD	FLAT:??_R2CChartAddInBase000000@@8
rdata$r	ENDS
;	COMDAT ??_R0?AVCChartAddInBase000000@@@8
data$rs	SEGMENT
??_R0?AVCChartAddInBase000000@@@8 DD FLAT:??_7type_info@@6B@ ; CChartAddInBase000000 `RTTI Type Descriptor'
	DD	00H
	DB	'.?AVCChartAddInBase000000@@', 00H
data$rs	ENDS
;	COMDAT ??_R1A@?0A@EA@CChartAddInBase000000@@8
rdata$r	SEGMENT
??_R1A@?0A@EA@CChartAddInBase000000@@8 DD FLAT:??_R0?AVCChartAddInBase000000@@@8 ; CChartAddInBase000000::`RTTI Base Class Descriptor at (0,-1,0,64)'
	DD	04H
	DD	00H
	DD	0ffffffffH
	DD	00H
	DD	040H
	DD	FLAT:??_R3CChartAddInBase000000@@8
rdata$r	ENDS
;	COMDAT ??_R1A@?0A@EA@CMousePositionExportingAddInImp@@8
rdata$r	SEGMENT
??_R1A@?0A@EA@CMousePositionExportingAddInImp@@8 DD FLAT:??_R0?AVCMousePositionExportingAddInImp@@@8 ; CMousePositionExportingAddInImp::`RTTI Base Class Descriptor at (0,-1,0,64)'
	DD	05H
	DD	00H
	DD	0ffffffffH
	DD	00H
	DD	040H
	DD	FLAT:??_R3CMousePositionExportingAddInImp@@8
rdata$r	ENDS
;	COMDAT ??_R2CMousePositionExportingAddInImp@@8
rdata$r	SEGMENT
??_R2CMousePositionExportingAddInImp@@8 DD FLAT:??_R1A@?0A@EA@CMousePositionExportingAddInImp@@8 ; CMousePositionExportingAddInImp::`RTTI Base Class Array'
	DD	FLAT:??_R1A@?0A@EA@CChartAddInBase000000@@8
	DD	FLAT:??_R1A@?0A@EA@CIWUnknown@@8
	DD	FLAT:??_R1A@?0A@EA@CObject@@8
	DD	FLAT:??_R17?0A@EA@IChartAddIn000000@@8
	DD	FLAT:??_R17?0A@EA@IUnknown@@8
rdata$r	ENDS
;	COMDAT ??_R3CMousePositionExportingAddInImp@@8
rdata$r	SEGMENT
??_R3CMousePositionExportingAddInImp@@8 DD 00H		; CMousePositionExportingAddInImp::`RTTI Class Hierarchy Descriptor'
	DD	01H
	DD	06H
	DD	FLAT:??_R2CMousePositionExportingAddInImp@@8
rdata$r	ENDS
;	COMDAT ??_R0?AVCMousePositionExportingAddInImp@@@8
data$rs	SEGMENT
??_R0?AVCMousePositionExportingAddInImp@@@8 DD FLAT:??_7type_info@@6B@ ; CMousePositionExportingAddInImp `RTTI Type Descriptor'
	DD	00H
	DB	'.?AVCMousePositionExportingAddInImp@@', 00H
data$rs	ENDS
;	COMDAT ??_R4CMousePositionExportingAddInImp@@6BCIWUnknown@@@
rdata$r	SEGMENT
??_R4CMousePositionExportingAddInImp@@6BCIWUnknown@@@ DD 00H ; CMousePositionExportingAddInImp::`RTTI Complete Object Locator'
	DD	00H
	DD	00H
	DD	FLAT:??_R0?AVCMousePositionExportingAddInImp@@@8
	DD	FLAT:??_R3CMousePositionExportingAddInImp@@8
rdata$r	ENDS
;	COMDAT ??_R1A@?0A@EA@IChartAddIn000000@@8
rdata$r	SEGMENT
??_R1A@?0A@EA@IChartAddIn000000@@8 DD FLAT:??_R0?AUIChartAddIn000000@@@8 ; IChartAddIn000000::`RTTI Base Class Descriptor at (0,-1,0,64)'
	DD	01H
	DD	00H
	DD	0ffffffffH
	DD	00H
	DD	040H
	DD	FLAT:??_R3IChartAddIn000000@@8
rdata$r	ENDS
;	COMDAT ??_R2IChartAddIn000000@@8
rdata$r	SEGMENT
??_R2IChartAddIn000000@@8 DD FLAT:??_R1A@?0A@EA@IChartAddIn000000@@8 ; IChartAddIn000000::`RTTI Base Class Array'
	DD	FLAT:??_R1A@?0A@EA@IUnknown@@8
rdata$r	ENDS
;	COMDAT ??_R3IChartAddIn000000@@8
rdata$r	SEGMENT
??_R3IChartAddIn000000@@8 DD 00H			; IChartAddIn000000::`RTTI Class Hierarchy Descriptor'
	DD	00H
	DD	02H
	DD	FLAT:??_R2IChartAddIn000000@@8
rdata$r	ENDS
;	COMDAT ??_R0?AUIChartAddIn000000@@@8
data$rs	SEGMENT
??_R0?AUIChartAddIn000000@@@8 DD FLAT:??_7type_info@@6B@ ; IChartAddIn000000 `RTTI Type Descriptor'
	DD	00H
	DB	'.?AUIChartAddIn000000@@', 00H
data$rs	ENDS
;	COMDAT ??_C@_01GBGANLPD@0@
CONST	SEGMENT
??_C@_01GBGANLPD@0@ DB '0', 00H				; `string'
CONST	ENDS
;	COMDAT ??_C@_06DNBDMDIL@?$CF?$CF?4?$CFdf@
CONST	SEGMENT
??_C@_06DNBDMDIL@?$CF?$CF?4?$CFdf@ DB '%%.%df', 00H	; `string'
CONST	ENDS
;	COMDAT ??_C@_04GHNNFJCK@?$CF?40f@
CONST	SEGMENT
??_C@_04GHNNFJCK@?$CF?40f@ DB '%.0f', 00H		; `string'
CONST	ENDS
;	COMDAT ??_C@_01DNKMNLPK@?$HM@
CONST	SEGMENT
??_C@_01DNKMNLPK@?$HM@ DB '|', 00H			; `string'
CONST	ENDS
;	COMDAT ??_C@_0BA@ENJOCHIO@LoadResourceDLL@
CONST	SEGMENT
??_C@_0BA@ENJOCHIO@LoadResourceDLL@ DB 'LoadResourceDLL', 00H ; `string'
CONST	ENDS
;	COMDAT ??_7CMousePositionExportingAddInImp@@6BIChartAddIn000000@@@
CONST	SEGMENT
??_7CMousePositionExportingAddInImp@@6BIChartAddIn000000@@@ DD FLAT:??_R4CMousePositionExportingAddInImp@@6BIChartAddIn000000@@@ ; CMousePositionExportingAddInImp::`vftable'
	DD	FLAT:?QueryInterface@CChartAddInBase000000@@O7AGJABU_GUID@@PAPAX@Z
	DD	FLAT:?AddRef@CChartAddInBase000000@@O7AGKXZ
	DD	FLAT:?Release@CChartAddInBase000000@@O7AGKXZ
	DD	FLAT:??_ECMousePositionExportingAddInImp@@W7AEPAXI@Z
	DD	FLAT:?HasFullManager@CChartAddInBase000000@@MAEHXZ
	DD	FLAT:?GetAddInCustomInterface@CChartAddInBase000000@@MAEPAUIUnknown@@XZ
	DD	FLAT:?InvokeAddIn@CMousePositionExportingAddInImp@@MAEHHJ@Z
	DD	FLAT:?InvokeAddInStr@CChartAddInBase000000@@MAEHPBD0@Z
	DD	FLAT:?OnOcxDestroyWindow@CChartAddInBase000000@@MAEXXZ
	DD	FLAT:?ChangeChartMode@CChartAddInBase000000@@MAEXW4CHART_MODE@CChartInfo@@@Z
	DD	FLAT:?RegisterEventMap@CChartAddInBase000000@@UAEHH@Z
	DD	FLAT:?UnregisterEventMap@CChartAddInBase000000@@UAEHXZ
	DD	FLAT:?OnGSharedDataChange@CChartAddInBase000000@@MAEXPBD0H@Z
	DD	FLAT:?OnLSharedDataChange@CChartAddInBase000000@@MAEXPBD0@Z
	DD	FLAT:?OnResetChart@CChartAddInBase000000@@MAEXXZ
	DD	FLAT:?OnDrawBeforeGraph@CChartAddInBase000000@@MAEXPAUHDC__@@@Z
	DD	FLAT:?OnDrawAfterGraph@CChartAddInBase000000@@MAEXPAUHDC__@@@Z
	DD	FLAT:?OnPacketDataMultiItem@CChartAddInBase000000@@MAEXPBD0H@Z
	DD	FLAT:?OnTimer@CChartAddInBase000000@@MAEXI@Z
	DD	FLAT:?OnCaptureChanged@CChartAddInBase000000@@MAEXPAUHWND__@@QAUHBITMAP__@@@Z
	DD	FLAT:?OnResetMainBlock@CChartAddInBase000000@@MAEXXZ
	DD	FLAT:?OnUserIndiatorConditionLoaded@CChartAddInBase000000@@MAEXXZ
	DD	FLAT:?OnChartItemChanged@CChartAddInBase000000@@MAEXXZ
	DD	FLAT:?OnGraphDataChanged@CChartAddInBase000000@@MAEXXZ
	DD	FLAT:?OnBlockRemoved@CChartAddInBase000000@@MAEXHH@Z
	DD	FLAT:?OnGraphAdded@CChartAddInBase000000@@MAEXPBD0@Z
	DD	FLAT:?OnManualRealData@CChartAddInBase000000@@MAEXPBDNH@Z
	DD	FLAT:?OnContextMenu@CChartAddInBase000000@@MAEXPAUHWND__@@AAUtagPOINT@@@Z
	DD	FLAT:?OnGraphDeleted@CChartAddInBase000000@@MAEXPBD0@Z
	DD	FLAT:?OnPacketTruncated@CChartAddInBase000000@@MAEXH@Z
	DD	FLAT:?OnBlockChanged@CChartAddInBase000000@@MAEXW4BLOCKBEHAVIOR@CBlockBaseData@@HHHH@Z
	DD	FLAT:?OnToolCommand@CChartAddInBase000000@@MAEXHH@Z
	DD	FLAT:?OnRealData@CChartAddInBase000000@@MAEXPBDN0@Z
	DD	FLAT:?OnIndexedRealData@CChartAddInBase000000@@MAEXPBDHN@Z
	DD	FLAT:?OnRealPacketEnd@CChartAddInBase000000@@MAEXPBD@Z
	DD	FLAT:?OnLoadEnvironment@CChartAddInBase000000@@MAEXPAUIPropertyMap@@@Z
	DD	FLAT:?OnSaveEnvironment@CChartAddInBase000000@@MAEXPAUIPropertyMap@@@Z
	DD	FLAT:?DrawCursor@CChartAddInBase000000@@MAE?AUtagRECT@@PAUHDC__@@@Z
	DD	FLAT:?OnRecalculationComplete@CChartAddInBase000000@@MAEXXZ
	DD	FLAT:?OnPreRealData@CChartAddInBase000000@@MAEHPBDAAN0H@Z
	DD	FLAT:?OnPreIndexedRealData@CChartAddInBase000000@@MAEHPBDHAANH@Z
	DD	FLAT:?OnPreRealPacketEnd@CChartAddInBase000000@@MAEHPBDH@Z
	DD	FLAT:?OnPreNMTRClock@CChartAddInBase000000@@MAEHAA_J@Z
	DD	FLAT:?OnCmdMsg@CChartAddInBase000000@@MAEHIHPAUICmdUI000000@@@Z
	DD	FLAT:?OnAddInMsg@CChartAddInBase000000@@MAEHPBDJ@Z
	DD	FLAT:?OnAddInToolCommand@CChartAddInBase000000@@MAEHAAJW4EAICommandType@@JJ@Z
	DD	FLAT:?OnAddInToolCommand@CChartAddInBase000000@@MAEHAAJW4EAICommandType@@J@Z
	DD	FLAT:?OnAddInToolCommand@CChartAddInBase000000@@MAEHAAJW4EAICommandType@@PBDPAVCObject@@@Z
	DD	FLAT:?OnAddInToolCommand@CChartAddInBase000000@@MAEHAAJW4EAICommandType@@PBD@Z
	DD	FLAT:?OnAddInToolCommand@CChartAddInBase000000@@MAEHAAJW4EAICommandType@@PAUIGraphInfo000000@@@Z
	DD	FLAT:?OnAddInToolCommand@CChartAddInBase000000@@MAEHAAJW4EAICommandType@@@Z
	DD	FLAT:?OnAddInToolCommand@CChartAddInBase000000@@MAEHW4EAICommandType@@JJJJJJJJJ@Z
	DD	FLAT:?OnAddInToolCommand@CChartAddInBase000000@@MAEHW4EAICommandType@@JJ@Z
	DD	FLAT:?OnAddInToolCommand@CChartAddInBase000000@@MAEHW4EAICommandType@@JPBD11@Z
	DD	FLAT:?OnAddInToolCommand@CChartAddInBase000000@@MAEHW4EAICommandType@@JPBD@Z
	DD	FLAT:?OnAddInToolCommand@CChartAddInBase000000@@MAEHW4EAICommandType@@J@Z
	DD	FLAT:?OnAddInToolCommand@CChartAddInBase000000@@MAEHW4EAICommandType@@PBUIAddInDllBase@@@Z
	DD	FLAT:?OnAddInToolCommand@CChartAddInBase000000@@MAEHW4EAICommandType@@PBDJ@Z
	DD	FLAT:?OnAddInToolCommand@CChartAddInBase000000@@MAEHW4EAICommandType@@PBD1@Z
	DD	FLAT:?OnAddInToolCommand@CChartAddInBase000000@@MAEHW4EAICommandType@@PBD@Z
	DD	FLAT:?OnAddInToolCommand@CChartAddInBase000000@@MAEHW4EAICommandType@@PAUHDC__@@IAAUtagPOINT@@K@Z
	DD	FLAT:?OnAddInToolCommand@CChartAddInBase000000@@MAEHW4EAICommandType@@@Z
	DD	FLAT:?OnKeyDown@CChartAddInBase000000@@MAEHIII@Z
	DD	FLAT:?OnKeyUp@CChartAddInBase000000@@MAEHIII@Z
	DD	FLAT:?OnMouseWheel@CChartAddInBase000000@@MAEHIFUtagPOINT@@K@Z
	DD	FLAT:?OnMouseMove@CMousePositionExportingAddInImp@@MAEHPAUHDC__@@IAAUtagPOINT@@KQAUHBITMAP__@@@Z
	DD	FLAT:?OnLButtonDown@CChartAddInBase000000@@MAEHPAUHDC__@@IAAUtagPOINT@@K@Z
	DD	FLAT:?OnLButtonUp@CChartAddInBase000000@@MAEHPAUHDC__@@IAAUtagPOINT@@K@Z
	DD	FLAT:?OnLButtonDblClk@CChartAddInBase000000@@MAEHPAUHDC__@@IAAUtagPOINT@@K@Z
	DD	FLAT:?OnRButtonDown@CChartAddInBase000000@@MAEHPAUHDC__@@IAAUtagPOINT@@K@Z
	DD	FLAT:?OnRButtonUp@CChartAddInBase000000@@MAEHPAUHDC__@@IAAUtagPOINT@@K@Z
	DD	FLAT:?OnRButtonDblClk@CChartAddInBase000000@@MAEHPAUHDC__@@IAAUtagPOINT@@K@Z
CONST	ENDS
;	COMDAT ??_7CMousePositionExportingAddInImp@@6BCIWUnknown@@@
CONST	SEGMENT
??_7CMousePositionExportingAddInImp@@6BCIWUnknown@@@ DD FLAT:??_R4CMousePositionExportingAddInImp@@6BCIWUnknown@@@ ; CMousePositionExportingAddInImp::`vftable'
	DD	FLAT:?GetRuntimeClass@CObject@@UBEPAUCRuntimeClass@@XZ
	DD	FLAT:??_ECMousePositionExportingAddInImp@@UAEPAXI@Z
	DD	FLAT:?Serialize@CObject@@UAEXAAVCArchive@@@Z
	DD	FLAT:?AssertValid@CObject@@UBEXXZ
	DD	FLAT:?Dump@CObject@@UBEXAAVCDumpContext@@@Z
	DD	FLAT:?AddRef@CChartAddInBase000000@@MAGKXZ
	DD	FLAT:?Release@CChartAddInBase000000@@MAGKXZ
	DD	FLAT:?QueryInterface@CChartAddInBase000000@@MAGJABU_GUID@@PAPAX@Z
	DD	FLAT:?PostConstruct@CIWUnknown@@MAEXXZ
	DD	FLAT:?PreDestructX@CIWUnknown@@MAEXXZ
	DD	FLAT:?PreDestruct@CIWUnknown@@MAEXXZ
	DD	FLAT:?GetRegisteredEventMap@CMousePositionExportingAddInImp@@MBEPBW4EAddInEventType@IChartAddIn000000@@XZ
	DD	FLAT:?AfeterOnOcxDestroyWindow@CChartAddInBase000000@@MAEXXZ
CONST	ENDS
;	COMDAT ??_R1A@?0A@EA@IUnknown@@8
rdata$r	SEGMENT
??_R1A@?0A@EA@IUnknown@@8 DD FLAT:??_R0?AUIUnknown@@@8	; IUnknown::`RTTI Base Class Descriptor at (0,-1,0,64)'
	DD	00H
	DD	00H
	DD	0ffffffffH
	DD	00H
	DD	040H
	DD	FLAT:??_R3IUnknown@@8
rdata$r	ENDS
;	COMDAT ??_R2IUnknown@@8
rdata$r	SEGMENT
??_R2IUnknown@@8 DD FLAT:??_R1A@?0A@EA@IUnknown@@8	; IUnknown::`RTTI Base Class Array'
rdata$r	ENDS
;	COMDAT ??_R3IUnknown@@8
rdata$r	SEGMENT
??_R3IUnknown@@8 DD 00H					; IUnknown::`RTTI Class Hierarchy Descriptor'
	DD	00H
	DD	01H
	DD	FLAT:??_R2IUnknown@@8
rdata$r	ENDS
;	COMDAT ??_R0?AUIUnknown@@@8
data$rs	SEGMENT
??_R0?AUIUnknown@@@8 DD FLAT:??_7type_info@@6B@		; IUnknown `RTTI Type Descriptor'
	DD	00H
	DB	'.?AUIUnknown@@', 00H
data$rs	ENDS
;	COMDAT ??_R1A@?0A@EA@CObject@@8
rdata$r	SEGMENT
??_R1A@?0A@EA@CObject@@8 DD FLAT:??_R0?AVCObject@@@8	; CObject::`RTTI Base Class Descriptor at (0,-1,0,64)'
	DD	00H
	DD	00H
	DD	0ffffffffH
	DD	00H
	DD	040H
	DD	FLAT:??_R3CObject@@8
rdata$r	ENDS
;	COMDAT ??_R2CObject@@8
rdata$r	SEGMENT
??_R2CObject@@8 DD FLAT:??_R1A@?0A@EA@CObject@@8	; CObject::`RTTI Base Class Array'
rdata$r	ENDS
;	COMDAT ??_R3CObject@@8
rdata$r	SEGMENT
??_R3CObject@@8 DD 00H					; CObject::`RTTI Class Hierarchy Descriptor'
	DD	00H
	DD	01H
	DD	FLAT:??_R2CObject@@8
rdata$r	ENDS
;	COMDAT ??_R0?AVCObject@@@8
data$rs	SEGMENT
??_R0?AVCObject@@@8 DD FLAT:??_7type_info@@6B@		; CObject `RTTI Type Descriptor'
	DD	00H
	DB	'.?AVCObject@@', 00H
data$rs	ENDS
;	COMDAT ??_C@_00CNPNBAHC@@
CONST	SEGMENT
??_C@_00CNPNBAHC@@ DB 00H				; `string'
CONST	ENDS
;	COMDAT ??_C@_02DPKJAMEF@?$CFd@
CONST	SEGMENT
??_C@_02DPKJAMEF@?$CFd@ DB '%d', 00H			; `string'
CONST	ENDS
;	COMDAT xdata$x
xdata$x	SEGMENT
__ehfuncinfo$??1ILPCSTR000000@@QAE@XZ DD 019930522H
	DD	00H
	DD	00H
	DD	2 DUP(00H)
	DD	2 DUP(00H)
	DD	00H
	DD	05H
xdata$x	ENDS
;	COMDAT xdata$x
xdata$x	SEGMENT
__ehfuncinfo$??1CMultiLanguageResourceSetter@@QAE@XZ DD 019930522H
	DD	00H
	DD	00H
	DD	2 DUP(00H)
	DD	2 DUP(00H)
	DD	00H
	DD	05H
xdata$x	ENDS
;	COMDAT xdata$x
xdata$x	SEGMENT
__unwindtable$??_GCMousePositionExportingAddInImp@@UAEPAXI@Z DD 0ffffffffH
	DD	FLAT:___std_terminate
__ehfuncinfo$??_GCMousePositionExportingAddInImp@@UAEPAXI@Z DD 019930522H
	DD	01H
	DD	FLAT:__unwindtable$??_GCMousePositionExportingAddInImp@@UAEPAXI@Z
	DD	2 DUP(00H)
	DD	2 DUP(00H)
	DD	00H
	DD	05H
xdata$x	ENDS
;	COMDAT xdata$x
xdata$x	SEGMENT
__unwindtable$?OnMouseMove@CMousePositionExportingAddInImp@@MAEHPAUHDC__@@IAAUtagPOINT@@KQAUHBITMAP__@@@Z DD 0ffffffffH
	DD	FLAT:__unwindfunclet$?OnMouseMove@CMousePositionExportingAddInImp@@MAEHPAUHDC__@@IAAUtagPOINT@@KQAUHBITMAP__@@@Z$0
	DD	00H
	DD	FLAT:__unwindfunclet$?OnMouseMove@CMousePositionExportingAddInImp@@MAEHPAUHDC__@@IAAUtagPOINT@@KQAUHBITMAP__@@@Z$3
	DD	01H
	DD	FLAT:__unwindfunclet$?OnMouseMove@CMousePositionExportingAddInImp@@MAEHPAUHDC__@@IAAUtagPOINT@@KQAUHBITMAP__@@@Z$2
	DD	00H
	DD	FLAT:__unwindfunclet$?OnMouseMove@CMousePositionExportingAddInImp@@MAEHPAUHDC__@@IAAUtagPOINT@@KQAUHBITMAP__@@@Z$2
__ehfuncinfo$?OnMouseMove@CMousePositionExportingAddInImp@@MAEHPAUHDC__@@IAAUtagPOINT@@KQAUHBITMAP__@@@Z DD 019930522H
	DD	04H
	DD	FLAT:__unwindtable$?OnMouseMove@CMousePositionExportingAddInImp@@MAEHPAUHDC__@@IAAUtagPOINT@@KQAUHBITMAP__@@@Z
	DD	2 DUP(00H)
	DD	2 DUP(00H)
	DD	00H
	DD	01H
xdata$x	ENDS
;	COMDAT xdata$x
xdata$x	SEGMENT
__unwindtable$?GetXScaleDataInPoint@CMousePositionExportingAddInImp@@IAEHVCPoint@@@Z DD 0ffffffffH
	DD	FLAT:__unwindfunclet$?GetXScaleDataInPoint@CMousePositionExportingAddInImp@@IAEHVCPoint@@@Z$0
	DD	00H
	DD	FLAT:__unwindfunclet$?GetXScaleDataInPoint@CMousePositionExportingAddInImp@@IAEHVCPoint@@@Z$1
	DD	00H
	DD	FLAT:___std_terminate
	DD	0ffffffffH
	DD	FLAT:___std_terminate
__ehfuncinfo$?GetXScaleDataInPoint@CMousePositionExportingAddInImp@@IAEHVCPoint@@@Z DD 019930522H
	DD	04H
	DD	FLAT:__unwindtable$?GetXScaleDataInPoint@CMousePositionExportingAddInImp@@IAEHVCPoint@@@Z
	DD	2 DUP(00H)
	DD	2 DUP(00H)
	DD	00H
	DD	01H
xdata$x	ENDS
;	COMDAT xdata$x
xdata$x	SEGMENT
__ehfuncinfo$?GetStringfromDataIdx@CMousePositionExportingAddInImp@@IAEHH@Z DD 019930522H
	DD	014H
	DD	FLAT:__unwindtable$?GetStringfromDataIdx@CMousePositionExportingAddInImp@@IAEHH@Z
	DD	2 DUP(00H)
	DD	2 DUP(00H)
	DD	00H
	DD	01H
__unwindtable$?GetStringfromDataIdx@CMousePositionExportingAddInImp@@IAEHH@Z DD 0ffffffffH
	DD	FLAT:__unwindfunclet$?GetStringfromDataIdx@CMousePositionExportingAddInImp@@IAEHH@Z$0
	DD	00H
	DD	FLAT:__unwindfunclet$?GetStringfromDataIdx@CMousePositionExportingAddInImp@@IAEHH@Z$1
	DD	00H
	DD	FLAT:___std_terminate
	DD	0ffffffffH
	DD	FLAT:___std_terminate
	DD	0ffffffffH
	DD	FLAT:__unwindfunclet$?GetStringfromDataIdx@CMousePositionExportingAddInImp@@IAEHH@Z$2
	DD	04H
	DD	FLAT:__unwindfunclet$?GetStringfromDataIdx@CMousePositionExportingAddInImp@@IAEHH@Z$19
	DD	04H
	DD	FLAT:__unwindfunclet$?GetStringfromDataIdx@CMousePositionExportingAddInImp@@IAEHH@Z$4
	DD	06H
	DD	FLAT:__unwindfunclet$?GetStringfromDataIdx@CMousePositionExportingAddInImp@@IAEHH@Z$5
	DD	07H
	DD	FLAT:__unwindfunclet$?GetStringfromDataIdx@CMousePositionExportingAddInImp@@IAEHH@Z$6
	DD	08H
	DD	FLAT:__unwindfunclet$?GetStringfromDataIdx@CMousePositionExportingAddInImp@@IAEHH@Z$20
	DD	09H
	DD	FLAT:__unwindfunclet$?GetStringfromDataIdx@CMousePositionExportingAddInImp@@IAEHH@Z$21
	DD	08H
	DD	FLAT:__unwindfunclet$?GetStringfromDataIdx@CMousePositionExportingAddInImp@@IAEHH@Z$22
	DD	08H
	DD	FLAT:__unwindfunclet$?GetStringfromDataIdx@CMousePositionExportingAddInImp@@IAEHH@Z$10
	DD	0cH
	DD	FLAT:__unwindfunclet$?GetStringfromDataIdx@CMousePositionExportingAddInImp@@IAEHH@Z$23
	DD	0cH
	DD	FLAT:__unwindfunclet$?GetStringfromDataIdx@CMousePositionExportingAddInImp@@IAEHH@Z$24
	DD	0cH
	DD	FLAT:__unwindfunclet$?GetStringfromDataIdx@CMousePositionExportingAddInImp@@IAEHH@Z$25
	DD	0cH
	DD	FLAT:__unwindfunclet$?GetStringfromDataIdx@CMousePositionExportingAddInImp@@IAEHH@Z$26
	DD	0cH
	DD	FLAT:__unwindfunclet$?GetStringfromDataIdx@CMousePositionExportingAddInImp@@IAEHH@Z$27
	DD	0cH
	DD	FLAT:__unwindfunclet$?GetStringfromDataIdx@CMousePositionExportingAddInImp@@IAEHH@Z$28
	DD	07H
	DD	FLAT:___std_terminate
xdata$x	ENDS
;	COMDAT xdata$x
xdata$x	SEGMENT
__unwindtable$?GetScaleData@CMousePositionExportingAddInImp@@IAEHVCPoint@@@Z DD 0ffffffffH
	DD	FLAT:__unwindfunclet$?GetScaleData@CMousePositionExportingAddInImp@@IAEHVCPoint@@@Z$0
__ehfuncinfo$?GetScaleData@CMousePositionExportingAddInImp@@IAEHVCPoint@@@Z DD 019930522H
	DD	01H
	DD	FLAT:__unwindtable$?GetScaleData@CMousePositionExportingAddInImp@@IAEHVCPoint@@@Z
	DD	2 DUP(00H)
	DD	2 DUP(00H)
	DD	00H
	DD	01H
xdata$x	ENDS
;	COMDAT xdata$x
xdata$x	SEGMENT
__ehfuncinfo$??1CMousePositionExportingAddInImp@@UAE@XZ DD 019930522H
	DD	00H
	DD	00H
	DD	2 DUP(00H)
	DD	2 DUP(00H)
	DD	00H
	DD	05H
xdata$x	ENDS
;	COMDAT xdata$x
xdata$x	SEGMENT
__unwindtable$??HATL@@YA?AV?$CStringT@DV?$StrTraitMFC_DLL@DV?$ChTraitsCRT@D@ATL@@@@@0@ABV10@D@Z DD 0ffffffffH
	DD	FLAT:__unwindfunclet$??HATL@@YA?AV?$CStringT@DV?$StrTraitMFC_DLL@DV?$ChTraitsCRT@D@ATL@@@@@0@ABV10@D@Z$0
__ehfuncinfo$??HATL@@YA?AV?$CStringT@DV?$StrTraitMFC_DLL@DV?$ChTraitsCRT@D@ATL@@@@@0@ABV10@D@Z DD 019930522H
	DD	01H
	DD	FLAT:__unwindtable$??HATL@@YA?AV?$CStringT@DV?$StrTraitMFC_DLL@DV?$ChTraitsCRT@D@ATL@@@@@0@ABV10@D@Z
	DD	2 DUP(00H)
	DD	2 DUP(00H)
	DD	00H
	DD	01H
xdata$x	ENDS
;	COMDAT xdata$x
xdata$x	SEGMENT
__unwindtable$??HATL@@YA?AV?$CStringT@DV?$StrTraitMFC_DLL@DV?$ChTraitsCRT@D@ATL@@@@@0@PBDABV10@@Z DD 0ffffffffH
	DD	FLAT:__unwindfunclet$??HATL@@YA?AV?$CStringT@DV?$StrTraitMFC_DLL@DV?$ChTraitsCRT@D@ATL@@@@@0@PBDABV10@@Z$0
__ehfuncinfo$??HATL@@YA?AV?$CStringT@DV?$StrTraitMFC_DLL@DV?$ChTraitsCRT@D@ATL@@@@@0@PBDABV10@@Z DD 019930522H
	DD	01H
	DD	FLAT:__unwindtable$??HATL@@YA?AV?$CStringT@DV?$StrTraitMFC_DLL@DV?$ChTraitsCRT@D@ATL@@@@@0@PBDABV10@@Z
	DD	2 DUP(00H)
	DD	2 DUP(00H)
	DD	00H
	DD	01H
xdata$x	ENDS
;	COMDAT xdata$x
xdata$x	SEGMENT
__unwindtable$??HATL@@YA?AV?$CStringT@DV?$StrTraitMFC_DLL@DV?$ChTraitsCRT@D@ATL@@@@@0@ABV10@PBD@Z DD 0ffffffffH
	DD	FLAT:__unwindfunclet$??HATL@@YA?AV?$CStringT@DV?$StrTraitMFC_DLL@DV?$ChTraitsCRT@D@ATL@@@@@0@ABV10@PBD@Z$0
__ehfuncinfo$??HATL@@YA?AV?$CStringT@DV?$StrTraitMFC_DLL@DV?$ChTraitsCRT@D@ATL@@@@@0@ABV10@PBD@Z DD 019930522H
	DD	01H
	DD	FLAT:__unwindtable$??HATL@@YA?AV?$CStringT@DV?$StrTraitMFC_DLL@DV?$ChTraitsCRT@D@ATL@@@@@0@ABV10@PBD@Z
	DD	2 DUP(00H)
	DD	2 DUP(00H)
	DD	00H
	DD	01H
xdata$x	ENDS
;	COMDAT xdata$x
xdata$x	SEGMENT
__unwindtable$??HATL@@YA?AV?$CStringT@DV?$StrTraitMFC_DLL@DV?$ChTraitsCRT@D@ATL@@@@@0@ABV10@0@Z DD 0ffffffffH
	DD	FLAT:__unwindfunclet$??HATL@@YA?AV?$CStringT@DV?$StrTraitMFC_DLL@DV?$ChTraitsCRT@D@ATL@@@@@0@ABV10@0@Z$0
__ehfuncinfo$??HATL@@YA?AV?$CStringT@DV?$StrTraitMFC_DLL@DV?$ChTraitsCRT@D@ATL@@@@@0@ABV10@0@Z DD 019930522H
	DD	01H
	DD	FLAT:__unwindtable$??HATL@@YA?AV?$CStringT@DV?$StrTraitMFC_DLL@DV?$ChTraitsCRT@D@ATL@@@@@0@ABV10@0@Z
	DD	2 DUP(00H)
	DD	2 DUP(00H)
	DD	00H
	DD	01H
xdata$x	ENDS
; Function compile flags: /Odsp
;	COMDAT ??_ECMousePositionExportingAddInImp@@W7AEPAXI@Z
_TEXT	SEGMENT
??_ECMousePositionExportingAddInImp@@W7AEPAXI@Z PROC	; [thunk]:CMousePositionExportingAddInImp::`vector deleting destructor', COMDAT
  00000	83 e9 08	 sub	 ecx, 8
  00003	e9 00 00 00 00	 jmp	 ??_ECMousePositionExportingAddInImp@@UAEPAXI@Z
??_ECMousePositionExportingAddInImp@@W7AEPAXI@Z ENDP	; [thunk]:CMousePositionExportingAddInImp::`vector deleting destructor'
_TEXT	ENDS
; Function compile flags: /Odsp
;	COMDAT ?Release@CChartAddInBase000000@@O7AGKXZ
_TEXT	SEGMENT
?Release@CChartAddInBase000000@@O7AGKXZ PROC		; [thunk]:CChartAddInBase000000::Release`adjustor{8}', COMDAT
  00000	83 6c 24 04 08	 sub	 DWORD PTR [esp+4], 8
  00005	e9 00 00 00 00	 jmp	 ?Release@CChartAddInBase000000@@MAGKXZ ; CChartAddInBase000000::Release
?Release@CChartAddInBase000000@@O7AGKXZ ENDP		; [thunk]:CChartAddInBase000000::Release`adjustor{8}'
_TEXT	ENDS
; Function compile flags: /Odsp
;	COMDAT ?AddRef@CChartAddInBase000000@@O7AGKXZ
_TEXT	SEGMENT
?AddRef@CChartAddInBase000000@@O7AGKXZ PROC		; [thunk]:CChartAddInBase000000::AddRef`adjustor{8}', COMDAT
  00000	83 6c 24 04 08	 sub	 DWORD PTR [esp+4], 8
  00005	e9 00 00 00 00	 jmp	 ?AddRef@CChartAddInBase000000@@MAGKXZ ; CChartAddInBase000000::AddRef
?AddRef@CChartAddInBase000000@@O7AGKXZ ENDP		; [thunk]:CChartAddInBase000000::AddRef`adjustor{8}'
_TEXT	ENDS
; Function compile flags: /Odsp
;	COMDAT ?QueryInterface@CChartAddInBase000000@@O7AGJABU_GUID@@PAPAX@Z
_TEXT	SEGMENT
?QueryInterface@CChartAddInBase000000@@O7AGJABU_GUID@@PAPAX@Z PROC ; [thunk]:CChartAddInBase000000::QueryInterface`adjustor{8}', COMDAT
  00000	83 6c 24 04 08	 sub	 DWORD PTR [esp+4], 8
  00005	e9 00 00 00 00	 jmp	 ?QueryInterface@CChartAddInBase000000@@MAGJABU_GUID@@PAPAX@Z ; CChartAddInBase000000::QueryInterface
?QueryInterface@CChartAddInBase000000@@O7AGJABU_GUID@@PAPAX@Z ENDP ; [thunk]:CChartAddInBase000000::QueryInterface`adjustor{8}'
_TEXT	ENDS
; Function compile flags: /Ogtp
;	COMDAT ??__F?m_strAddInItemName@CMousePositionExportingAddInImp@@2V?$CStringT@DV?$StrTraitMFC_DLL@DV?$ChTraitsCRT@D@ATL@@@@@ATL@@A@@YAXXZ
text$yd	SEGMENT
??__F?m_strAddInItemName@CMousePositionExportingAddInImp@@2V?$CStringT@DV?$StrTraitMFC_DLL@DV?$ChTraitsCRT@D@ATL@@@@@ATL@@A@@YAXXZ PROC ; `dynamic atexit destructor for 'CMousePositionExportingAddInImp::m_strAddInItemName'', COMDAT
  00000	b9 00 00 00 00	 mov	 ecx, OFFSET ?m_strAddInItemName@CMousePositionExportingAddInImp@@2V?$CStringT@DV?$StrTraitMFC_DLL@DV?$ChTraitsCRT@D@ATL@@@@@ATL@@A ; CMousePositionExportingAddInImp::m_strAddInItemName
  00005	ff 25 00 00 00
	00		 jmp	 DWORD PTR __imp_??1?$CStringT@DV?$StrTraitMFC_DLL@DV?$ChTraitsCRT@D@ATL@@@@@ATL@@QAE@XZ
??__F?m_strAddInItemName@CMousePositionExportingAddInImp@@2V?$CStringT@DV?$StrTraitMFC_DLL@DV?$ChTraitsCRT@D@ATL@@@@@ATL@@A@@YAXXZ ENDP ; `dynamic atexit destructor for 'CMousePositionExportingAddInImp::m_strAddInItemName''
text$yd	ENDS
; Function compile flags: /Ogtp
; File D:\git\src\IBK\IBK_DRFN\ProjSrc\SrcChartEx\ChartOCX\AddInManager\ChartCommonAddIn\MousePositionExportingAddInImp.cpp
;	COMDAT ??__E?m_strAddInItemName@CMousePositionExportingAddInImp@@2V?$CStringT@DV?$StrTraitMFC_DLL@DV?$ChTraitsCRT@D@ATL@@@@@ATL@@A@@YAXXZ
text$di	SEGMENT
??__E?m_strAddInItemName@CMousePositionExportingAddInImp@@2V?$CStringT@DV?$StrTraitMFC_DLL@DV?$ChTraitsCRT@D@ATL@@@@@ATL@@A@@YAXXZ PROC ; `dynamic initializer for 'CMousePositionExportingAddInImp::m_strAddInItemName'', COMDAT

; 52   : CString CMousePositionExportingAddInImp::m_strAddInItemName = "MOUSE_POSITION";

  00000	68 00 00 00 00	 push	 OFFSET ??_C@_0P@DPICDNOL@MOUSE_POSITION@
  00005	b9 00 00 00 00	 mov	 ecx, OFFSET ?m_strAddInItemName@CMousePositionExportingAddInImp@@2V?$CStringT@DV?$StrTraitMFC_DLL@DV?$ChTraitsCRT@D@ATL@@@@@ATL@@A ; CMousePositionExportingAddInImp::m_strAddInItemName
  0000a	ff 15 00 00 00
	00		 call	 DWORD PTR __imp_??0?$CStringT@DV?$StrTraitMFC_DLL@DV?$ChTraitsCRT@D@ATL@@@@@ATL@@QAE@PBD@Z
  00010	68 00 00 00 00	 push	 OFFSET ??__F?m_strAddInItemName@CMousePositionExportingAddInImp@@2V?$CStringT@DV?$StrTraitMFC_DLL@DV?$ChTraitsCRT@D@ATL@@@@@ATL@@A@@YAXXZ ; `dynamic atexit destructor for 'CMousePositionExportingAddInImp::m_strAddInItemName''
  00015	e8 00 00 00 00	 call	 _atexit
  0001a	59		 pop	 ecx
  0001b	c3		 ret	 0
??__E?m_strAddInItemName@CMousePositionExportingAddInImp@@2V?$CStringT@DV?$StrTraitMFC_DLL@DV?$ChTraitsCRT@D@ATL@@@@@ATL@@A@@YAXXZ ENDP ; `dynamic initializer for 'CMousePositionExportingAddInImp::m_strAddInItemName''
text$di	ENDS
; Function compile flags: /Ogtp
; File D:\git\src\IBK\IBK_DRFN\ProjSrc\SrcChartEx\ChartOCX\AddInManager\Include_AddIn\I000000\_IString.h
;	COMDAT ??1ILPCSTR000000@@QAE@XZ
_TEXT	SEGMENT
__$EHRec$ = -12						; size = 12
??1ILPCSTR000000@@QAE@XZ PROC				; ILPCSTR000000::~ILPCSTR000000, COMDAT
; _this$ = ecx

; 44   : 	{

  00000	55		 push	 ebp
  00001	8b ec		 mov	 ebp, esp
  00003	6a ff		 push	 -1
  00005	68 00 00 00 00	 push	 __ehhandler$??1ILPCSTR000000@@QAE@XZ
  0000a	64 a1 00 00 00
	00		 mov	 eax, DWORD PTR fs:0
  00010	50		 push	 eax
  00011	56		 push	 esi
  00012	a1 00 00 00 00	 mov	 eax, DWORD PTR ___security_cookie
  00017	33 c5		 xor	 eax, ebp
  00019	50		 push	 eax
  0001a	8d 45 f4	 lea	 eax, DWORD PTR __$EHRec$[ebp]
  0001d	64 a3 00 00 00
	00		 mov	 DWORD PTR fs:0, eax
  00023	8b f1		 mov	 esi, ecx

; 45   : 		if( m_pIStrData)

  00025	8b 4e 04	 mov	 ecx, DWORD PTR [esi+4]
  00028	85 c9		 test	 ecx, ecx
  0002a	74 13		 je	 SHORT $LN2@ILPCSTR000

; 46   : 		{
; 47   : 			m_pIStrData->Release();

  0002c	8b 01		 mov	 eax, DWORD PTR [ecx]
  0002e	51		 push	 ecx
  0002f	ff 50 08	 call	 DWORD PTR [eax+8]

; 48   : 			m_pIStrData = NULL;

  00032	c7 46 04 00 00
	00 00		 mov	 DWORD PTR [esi+4], 0

; 49   : 			m_szData = NULL;

  00039	c7 06 00 00 00
	00		 mov	 DWORD PTR [esi], 0
$LN2@ILPCSTR000:

; 50   : 		}
; 51   : 	}

  0003f	8b 4d f4	 mov	 ecx, DWORD PTR __$EHRec$[ebp]
  00042	64 89 0d 00 00
	00 00		 mov	 DWORD PTR fs:0, ecx
  00049	59		 pop	 ecx
  0004a	5e		 pop	 esi
  0004b	8b e5		 mov	 esp, ebp
  0004d	5d		 pop	 ebp
  0004e	c3		 ret	 0
  0004f	cc		 int	 3
  00050	cc		 int	 3
  00051	cc		 int	 3
  00052	cc		 int	 3
  00053	cc		 int	 3
_TEXT	ENDS
;	COMDAT text$x
text$x	SEGMENT
__ehhandler$??1ILPCSTR000000@@QAE@XZ:
  00000	90		 npad	 1
  00001	90		 npad	 1
  00002	8b 54 24 08	 mov	 edx, DWORD PTR [esp+8]
  00006	8d 42 0c	 lea	 eax, DWORD PTR [edx+12]
  00009	8b 4a f8	 mov	 ecx, DWORD PTR [edx-8]
  0000c	33 c8		 xor	 ecx, eax
  0000e	e8 00 00 00 00	 call	 @__security_check_cookie@4
  00013	b8 00 00 00 00	 mov	 eax, OFFSET __ehfuncinfo$??1ILPCSTR000000@@QAE@XZ
  00018	e9 00 00 00 00	 jmp	 ___CxxFrameHandler3
text$x	ENDS
??1ILPCSTR000000@@QAE@XZ ENDP				; ILPCSTR000000::~ILPCSTR000000
; Function compile flags: /Ogtp
; File D:\git\src\IBK\IBK_DRFN\ProjSrc\SrcChartEx\ChartOCX\Include_Chart\Dll_Load\IMetaTable.h
; File C:\Program Files (x86)\Microsoft Visual Studio\2019\Community\VC\Tools\MSVC\14.29.30133\atlmfc\include\afxwin1.inl
; File D:\git\src\IBK\IBK_DRFN\ProjSrc\SrcChartEx\ChartOCX\Include_Chart\Dll_Load\IMetaTable.h
;	COMDAT ??1CMultiLanguageResourceSetter@@QAE@XZ
_TEXT	SEGMENT
__$EHRec$ = -12						; size = 12
??1CMultiLanguageResourceSetter@@QAE@XZ PROC		; CMultiLanguageResourceSetter::~CMultiLanguageResourceSetter, COMDAT
; _this$ = ecx

; 1036 : 	{

  00000	55		 push	 ebp
  00001	8b ec		 mov	 ebp, esp
  00003	6a ff		 push	 -1
  00005	68 00 00 00 00	 push	 __ehhandler$??1CMultiLanguageResourceSetter@@QAE@XZ
  0000a	64 a1 00 00 00
	00		 mov	 eax, DWORD PTR fs:0
  00010	50		 push	 eax
  00011	56		 push	 esi
  00012	a1 00 00 00 00	 mov	 eax, DWORD PTR ___security_cookie
  00017	33 c5		 xor	 eax, ebp
  00019	50		 push	 eax
  0001a	8d 45 f4	 lea	 eax, DWORD PTR __$EHRec$[ebp]
  0001d	64 a3 00 00 00
	00		 mov	 DWORD PTR fs:0, eax

; 1037 : 		AfxSetResourceHandle( m_hInstance);

  00023	8b 31		 mov	 esi, DWORD PTR [ecx]
; File C:\Program Files (x86)\Microsoft Visual Studio\2019\Community\VC\Tools\MSVC\14.29.30133\atlmfc\include\afxwin1.inl

; 27   : 	{ ASSERT(hInstResource != NULL); afxCurrentResourceHandle = hInstResource; }

  00025	e8 00 00 00 00	 call	 ?AfxGetModuleState@@YGPAVAFX_MODULE_STATE@@XZ ; AfxGetModuleState
  0002a	89 70 0c	 mov	 DWORD PTR [eax+12], esi
; File D:\git\src\IBK\IBK_DRFN\ProjSrc\SrcChartEx\ChartOCX\Include_Chart\Dll_Load\IMetaTable.h

; 1038 : 	}

  0002d	8b 4d f4	 mov	 ecx, DWORD PTR __$EHRec$[ebp]
  00030	64 89 0d 00 00
	00 00		 mov	 DWORD PTR fs:0, ecx
  00037	59		 pop	 ecx
  00038	5e		 pop	 esi
  00039	8b e5		 mov	 esp, ebp
  0003b	5d		 pop	 ebp
  0003c	c3		 ret	 0
  0003d	cc		 int	 3
  0003e	cc		 int	 3
  0003f	cc		 int	 3
  00040	cc		 int	 3
  00041	cc		 int	 3
_TEXT	ENDS
;	COMDAT text$x
text$x	SEGMENT
__ehhandler$??1CMultiLanguageResourceSetter@@QAE@XZ:
  00000	90		 npad	 1
  00001	90		 npad	 1
  00002	8b 54 24 08	 mov	 edx, DWORD PTR [esp+8]
  00006	8d 42 0c	 lea	 eax, DWORD PTR [edx+12]
  00009	8b 4a f8	 mov	 ecx, DWORD PTR [edx-8]
  0000c	33 c8		 xor	 ecx, eax
  0000e	e8 00 00 00 00	 call	 @__security_check_cookie@4
  00013	b8 00 00 00 00	 mov	 eax, OFFSET __ehfuncinfo$??1CMultiLanguageResourceSetter@@QAE@XZ
  00018	e9 00 00 00 00	 jmp	 ___CxxFrameHandler3
text$x	ENDS
??1CMultiLanguageResourceSetter@@QAE@XZ ENDP		; CMultiLanguageResourceSetter::~CMultiLanguageResourceSetter
; Function compile flags: /Ogtp
; File D:\git\src\IBK\IBK_DRFN\ProjSrc\SrcChartEx\ChartOCX\AddInManager\ChartCommonAddIn\MousePositionExportingAddInImp.cpp
; File C:\Program Files (x86)\Microsoft Visual Studio\2019\Community\VC\Tools\MSVC\14.29.30133\atlmfc\include\afx.inl
;	COMDAT ??_GCMousePositionExportingAddInImp@@UAEPAXI@Z
_TEXT	SEGMENT
__$EHRec$ = -12						; size = 12
___flags$ = 8						; size = 4
??_GCMousePositionExportingAddInImp@@UAEPAXI@Z PROC	; CMousePositionExportingAddInImp::`scalar deleting destructor', COMDAT
; _this$ = ecx
  00000	55		 push	 ebp
  00001	8b ec		 mov	 ebp, esp
  00003	6a ff		 push	 -1
  00005	68 00 00 00 00	 push	 __ehhandler$??_GCMousePositionExportingAddInImp@@UAEPAXI@Z
  0000a	64 a1 00 00 00
	00		 mov	 eax, DWORD PTR fs:0
  00010	50		 push	 eax
  00011	56		 push	 esi
  00012	a1 00 00 00 00	 mov	 eax, DWORD PTR ___security_cookie
  00017	33 c5		 xor	 eax, ebp
  00019	50		 push	 eax
  0001a	8d 45 f4	 lea	 eax, DWORD PTR __$EHRec$[ebp]
  0001d	64 a3 00 00 00
	00		 mov	 DWORD PTR fs:0, eax
  00023	8b f1		 mov	 esi, ecx
; File D:\git\src\IBK\IBK_DRFN\ProjSrc\SrcChartEx\ChartOCX\AddInManager\ChartCommonAddIn\MousePositionExportingAddInImp.cpp

; 43   : 	if( m_pIBlock )

  00025	8b 8e 88 00 00
	00		 mov	 ecx, DWORD PTR [esi+136]
  0002b	c7 45 fc 00 00
	00 00		 mov	 DWORD PTR __$EHRec$[ebp+8], 0
  00032	c7 06 00 00 00
	00		 mov	 DWORD PTR [esi], OFFSET ??_7CMousePositionExportingAddInImp@@6BCIWUnknown@@@
  00038	c7 46 08 00 00
	00 00		 mov	 DWORD PTR [esi+8], OFFSET ??_7CMousePositionExportingAddInImp@@6BIChartAddIn000000@@@
  0003f	85 c9		 test	 ecx, ecx
  00041	74 10		 je	 SHORT $LN8@scalar

; 44   : 	{
; 45   : 		m_pIBlock->Release();

  00043	8b 01		 mov	 eax, DWORD PTR [ecx]
  00045	51		 push	 ecx
  00046	ff 50 08	 call	 DWORD PTR [eax+8]

; 46   : 		m_pIBlock = NULL;

  00049	c7 86 88 00 00
	00 00 00 00 00	 mov	 DWORD PTR [esi+136], 0
$LN8@scalar:

; 47   : 	}
; 48   : }

  00053	8d 8e 80 00 00
	00		 lea	 ecx, DWORD PTR [esi+128]
  00059	ff 15 00 00 00
	00		 call	 DWORD PTR __imp_??1?$CStringT@DV?$StrTraitMFC_DLL@DV?$ChTraitsCRT@D@ATL@@@@@ATL@@QAE@XZ
  0005f	8d 4e 6c	 lea	 ecx, DWORD PTR [esi+108]
  00062	ff 15 00 00 00
	00		 call	 DWORD PTR __imp_??1?$CStringT@DV?$StrTraitMFC_DLL@DV?$ChTraitsCRT@D@ATL@@@@@ATL@@QAE@XZ
  00068	8d 4e 68	 lea	 ecx, DWORD PTR [esi+104]
  0006b	ff 15 00 00 00
	00		 call	 DWORD PTR __imp_??1?$CStringT@DV?$StrTraitMFC_DLL@DV?$ChTraitsCRT@D@ATL@@@@@ATL@@QAE@XZ
  00071	8d 4e 64	 lea	 ecx, DWORD PTR [esi+100]
  00074	ff 15 00 00 00
	00		 call	 DWORD PTR __imp_??1?$CStringT@DV?$StrTraitMFC_DLL@DV?$ChTraitsCRT@D@ATL@@@@@ATL@@QAE@XZ
  0007a	8d 4e 60	 lea	 ecx, DWORD PTR [esi+96]
  0007d	ff 15 00 00 00
	00		 call	 DWORD PTR __imp_??1?$CStringT@DV?$StrTraitMFC_DLL@DV?$ChTraitsCRT@D@ATL@@@@@ATL@@QAE@XZ
  00083	8b ce		 mov	 ecx, esi
  00085	e8 00 00 00 00	 call	 ??1CChartAddInBase000000@@MAE@XZ ; CChartAddInBase000000::~CChartAddInBase000000
  0008a	8b 45 08	 mov	 eax, DWORD PTR ___flags$[ebp]
  0008d	a8 01		 test	 al, 1
  0008f	74 2f		 je	 SHORT $LN13@scalar
  00091	a8 04		 test	 al, 4
  00093	75 1d		 jne	 SHORT $LN3@scalar
; File C:\Program Files (x86)\Microsoft Visual Studio\2019\Community\VC\Tools\MSVC\14.29.30133\atlmfc\include\afx.inl

; 112  : 	{ ::operator delete(p); }

  00095	56		 push	 esi
  00096	e8 00 00 00 00	 call	 ??3@YAXPAX@Z		; operator delete
  0009b	83 c4 04	 add	 esp, 4
  0009e	8b c6		 mov	 eax, esi
  000a0	8b 4d f4	 mov	 ecx, DWORD PTR __$EHRec$[ebp]
  000a3	64 89 0d 00 00
	00 00		 mov	 DWORD PTR fs:0, ecx
  000aa	59		 pop	 ecx
  000ab	5e		 pop	 esi
  000ac	8b e5		 mov	 esp, ebp
  000ae	5d		 pop	 ebp
  000af	c2 04 00	 ret	 4
$LN3@scalar:
  000b2	68 a8 00 00 00	 push	 168			; 000000a8H
  000b7	56		 push	 esi
  000b8	e8 00 00 00 00	 call	 ?__global_delete@@YAXPAXI@Z ; __global_delete
  000bd	83 c4 08	 add	 esp, 8
$LN13@scalar:
  000c0	8b c6		 mov	 eax, esi
  000c2	8b 4d f4	 mov	 ecx, DWORD PTR __$EHRec$[ebp]
  000c5	64 89 0d 00 00
	00 00		 mov	 DWORD PTR fs:0, ecx
  000cc	59		 pop	 ecx
  000cd	5e		 pop	 esi
  000ce	8b e5		 mov	 esp, ebp
  000d0	5d		 pop	 ebp
  000d1	c2 04 00	 ret	 4
  000d4	cc		 int	 3
  000d5	cc		 int	 3
  000d6	cc		 int	 3
  000d7	cc		 int	 3
  000d8	cc		 int	 3
_TEXT	ENDS
;	COMDAT text$x
text$x	SEGMENT
__ehhandler$??_GCMousePositionExportingAddInImp@@UAEPAXI@Z:
  00000	90		 npad	 1
  00001	90		 npad	 1
  00002	8b 54 24 08	 mov	 edx, DWORD PTR [esp+8]
  00006	8d 42 0c	 lea	 eax, DWORD PTR [edx+12]
  00009	8b 4a f8	 mov	 ecx, DWORD PTR [edx-8]
  0000c	33 c8		 xor	 ecx, eax
  0000e	e8 00 00 00 00	 call	 @__security_check_cookie@4
  00013	b8 00 00 00 00	 mov	 eax, OFFSET __ehfuncinfo$??_GCMousePositionExportingAddInImp@@UAEPAXI@Z
  00018	e9 00 00 00 00	 jmp	 ___CxxFrameHandler3
text$x	ENDS
??_GCMousePositionExportingAddInImp@@UAEPAXI@Z ENDP	; CMousePositionExportingAddInImp::`scalar deleting destructor'
; Function compile flags: /Ogtp
; File D:\git\src\IBK\IBK_DRFN\ProjSrc\SrcChartEx\ChartOCX\AddInManager\ChartCommonAddIn\MousePositionExportingAddInImp.cpp
; File C:\Program Files (x86)\Microsoft Visual Studio\2019\Community\VC\Tools\MSVC\14.29.30133\atlmfc\include\atltypes.h
; File D:\git\src\IBK\IBK_DRFN\ProjSrc\SrcChartEx\ChartOCX\AddInManager\ChartCommonAddIn\MousePositionExportingAddInImp.cpp
; File C:\Program Files (x86)\Microsoft Visual Studio\2019\Community\VC\Tools\MSVC\14.29.30133\atlmfc\include\atltypes.h
; File D:\git\src\IBK\IBK_DRFN\ProjSrc\SrcChartEx\ChartOCX\AddInManager\ChartCommonAddIn\MousePositionExportingAddInImp.cpp
; File C:\Program Files (x86)\Microsoft Visual Studio\2019\Community\VC\Tools\MSVC\14.29.30133\atlmfc\include\cstringt.h
; File D:\git\src\IBK\IBK_DRFN\ProjSrc\SrcChartEx\ChartOCX\AddInManager\ChartCommonAddIn\MousePositionExportingAddInImp.cpp
; File C:\Program Files (x86)\Microsoft Visual Studio\2019\Community\VC\Tools\MSVC\14.29.30133\atlmfc\include\cstringt.h
; File C:\Program Files (x86)\Microsoft Visual Studio\2019\Community\VC\Tools\MSVC\14.29.30133\atlmfc\include\atlsimpstr.h
; File C:\Program Files (x86)\Microsoft Visual Studio\2019\Community\VC\Tools\MSVC\14.29.30133\atlmfc\include\cstringt.h
; File D:\git\src\IBK\IBK_DRFN\ProjSrc\SrcChartEx\ChartOCX\AddInManager\ChartCommonAddIn\MousePositionExportingAddInImp.cpp
;	COMDAT ?OnMouseMove@CMousePositionExportingAddInImp@@MAEHPAUHDC__@@IAAUtagPOINT@@KQAUHBITMAP__@@@Z
_TEXT	SEGMENT
__ctlState$ = -28					; size = 8
$T2 = -20						; size = 4
_strXScaleAndYScaleData$ = -16				; size = 4
__$EHRec$ = -12						; size = 12
_p_hDC$ = 8						; size = 4
_nFlags$ = 12						; size = 4
$T3 = 16						; size = 4
_point$ = 16						; size = 4
_p_dwMouseActionID$ = 20				; size = 4
_p_hbmpMainOSB$ = 24					; size = 4
?OnMouseMove@CMousePositionExportingAddInImp@@MAEHPAUHDC__@@IAAUtagPOINT@@KQAUHBITMAP__@@@Z PROC ; CMousePositionExportingAddInImp::OnMouseMove, COMDAT
; _this$ = ecx

; 70   : {

  00000	55		 push	 ebp
  00001	8b ec		 mov	 ebp, esp
  00003	6a ff		 push	 -1
  00005	68 00 00 00 00	 push	 __ehhandler$?OnMouseMove@CMousePositionExportingAddInImp@@MAEHPAUHDC__@@IAAUtagPOINT@@KQAUHBITMAP__@@@Z
  0000a	64 a1 00 00 00
	00		 mov	 eax, DWORD PTR fs:0
  00010	50		 push	 eax
  00011	83 ec 10	 sub	 esp, 16			; 00000010H
  00014	56		 push	 esi
  00015	57		 push	 edi
  00016	a1 00 00 00 00	 mov	 eax, DWORD PTR ___security_cookie
  0001b	33 c5		 xor	 eax, ebp
  0001d	50		 push	 eax
  0001e	8d 45 f4	 lea	 eax, DWORD PTR __$EHRec$[ebp]
  00021	64 a3 00 00 00
	00		 mov	 DWORD PTR fs:0, eax
  00027	8b f9		 mov	 edi, ecx
  00029	c7 45 ec 00 00
	00 00		 mov	 DWORD PTR $T2[ebp], 0

; 71   : 	// (2006/3/2 - Seung-Won, Bae) Manage State for Resource Loading of Cursor 
; 72   : 	AFX_MANAGE_STATE(AfxGetStaticModuleState( ));

  00030	e8 00 00 00 00	 call	 ?AfxGetStaticModuleState@@YGPAVAFX_MODULE_STATE@@XZ ; AfxGetStaticModuleState
  00035	50		 push	 eax
  00036	8d 4d e4	 lea	 ecx, DWORD PTR __ctlState$[ebp]
  00039	e8 00 00 00 00	 call	 ??0AFX_MAINTAIN_STATE2@@QAE@PAVAFX_MODULE_STATE@@@Z ; AFX_MAINTAIN_STATE2::AFX_MAINTAIN_STATE2

; 75   : 	if( !GetScaleData( point ) )

  0003e	8b 45 10	 mov	 eax, DWORD PTR _point$[ebp]
  00041	83 ec 08	 sub	 esp, 8
  00044	c7 45 fc 00 00
	00 00		 mov	 DWORD PTR __$EHRec$[ebp+8], 0
  0004b	8b 08		 mov	 ecx, DWORD PTR [eax]
  0004d	8b 50 04	 mov	 edx, DWORD PTR [eax+4]
  00050	8b c4		 mov	 eax, esp
; File C:\Program Files (x86)\Microsoft Visual Studio\2019\Community\VC\Tools\MSVC\14.29.30133\atlmfc\include\atltypes.h

; 414  : 	*(POINT*)this = initPt;

  00052	89 08		 mov	 DWORD PTR [eax], ecx
; File D:\git\src\IBK\IBK_DRFN\ProjSrc\SrcChartEx\ChartOCX\AddInManager\ChartCommonAddIn\MousePositionExportingAddInImp.cpp

; 75   : 	if( !GetScaleData( point ) )

  00054	8d 4f f8	 lea	 ecx, DWORD PTR [edi-8]
; File C:\Program Files (x86)\Microsoft Visual Studio\2019\Community\VC\Tools\MSVC\14.29.30133\atlmfc\include\atltypes.h

; 414  : 	*(POINT*)this = initPt;

  00057	89 50 04	 mov	 DWORD PTR [eax+4], edx
; File D:\git\src\IBK\IBK_DRFN\ProjSrc\SrcChartEx\ChartOCX\AddInManager\ChartCommonAddIn\MousePositionExportingAddInImp.cpp

; 75   : 	if( !GetScaleData( point ) )

  0005a	e8 00 00 00 00	 call	 ?GetScaleData@CMousePositionExportingAddInImp@@IAEHVCPoint@@@Z ; CMousePositionExportingAddInImp::GetScaleData
  0005f	85 c0		 test	 eax, eax
  00061	0f 84 c6 00 00
	00		 je	 $LN10@OnMouseMov
; File C:\Program Files (x86)\Microsoft Visual Studio\2019\Community\VC\Tools\MSVC\14.29.30133\atlmfc\include\cstringt.h

; 2401 : 		CStringT strResult( str1.GetManager() );

  00067	8d 4f 60	 lea	 ecx, DWORD PTR [edi+96]
; File D:\git\src\IBK\IBK_DRFN\ProjSrc\SrcChartEx\ChartOCX\AddInManager\ChartCommonAddIn\MousePositionExportingAddInImp.cpp

; 78   : 	CString strXScaleAndYScaleData = m_strXScaleFormatedData + "|" + m_strYScaleFormatedData;

  0006a	c6 45 fc 01	 mov	 BYTE PTR __$EHRec$[ebp+8], 1
; File C:\Program Files (x86)\Microsoft Visual Studio\2019\Community\VC\Tools\MSVC\14.29.30133\atlmfc\include\cstringt.h

; 2401 : 		CStringT strResult( str1.GetManager() );

  0006e	ff 15 00 00 00
	00		 call	 DWORD PTR __imp_?GetManager@?$CStringT@DV?$StrTraitMFC_DLL@DV?$ChTraitsCRT@D@ATL@@@@@ATL@@QBEPAUIAtlStringMgr@2@XZ
  00074	50		 push	 eax
  00075	8d 4d 10	 lea	 ecx, DWORD PTR $T3[ebp]
  00078	ff 15 00 00 00
	00		 call	 DWORD PTR __imp_??0?$CStringT@DV?$StrTraitMFC_DLL@DV?$ChTraitsCRT@D@ATL@@@@@ATL@@QAE@PAUIAtlStringMgr@1@@Z
; File C:\Program Files (x86)\Microsoft Visual Studio\2019\Community\VC\Tools\MSVC\14.29.30133\atlmfc\include\atlsimpstr.h

; 519  : 		return( GetData()->nDataLength );

  0007e	8b 47 60	 mov	 eax, DWORD PTR [edi+96]
; File C:\Program Files (x86)\Microsoft Visual Studio\2019\Community\VC\Tools\MSVC\14.29.30133\atlmfc\include\cstringt.h

; 2403 : 		CThisSimpleString::Concatenate( strResult, str1, str1.GetLength(), psz2, CThisSimpleString::StringLength( psz2 ) );

  00081	6a 01		 push	 1
  00083	68 00 00 00 00	 push	 OFFSET ??_C@_01DNKMNLPK@?$HM@

; 2404 : 
; 2405 : 		return( strResult );

  00088	c7 45 ec 01 00
	00 00		 mov	 DWORD PTR $T2[ebp], 1
  0008f	ff 70 f4	 push	 DWORD PTR [eax-12]
  00092	50		 push	 eax
  00093	8d 45 10	 lea	 eax, DWORD PTR $T3[ebp]
  00096	50		 push	 eax
  00097	ff 15 00 00 00
	00		 call	 DWORD PTR __imp_?Concatenate@?$CSimpleStringT@D$00@ATL@@KAXAAV12@PBDH1H@Z
; File D:\git\src\IBK\IBK_DRFN\ProjSrc\SrcChartEx\ChartOCX\AddInManager\ChartCommonAddIn\MousePositionExportingAddInImp.cpp

; 78   : 	CString strXScaleAndYScaleData = m_strXScaleFormatedData + "|" + m_strYScaleFormatedData;

  0009d	8d 47 64	 lea	 eax, DWORD PTR [edi+100]
  000a0	50		 push	 eax
  000a1	8d 45 10	 lea	 eax, DWORD PTR $T3[ebp]
  000a4	50		 push	 eax
  000a5	8d 45 f0	 lea	 eax, DWORD PTR _strXScaleAndYScaleData$[ebp]
  000a8	50		 push	 eax
  000a9	e8 00 00 00 00	 call	 ??HATL@@YA?AV?$CStringT@DV?$StrTraitMFC_DLL@DV?$ChTraitsCRT@D@ATL@@@@@0@ABV10@0@Z ; ATL::operator+
  000ae	83 c4 20	 add	 esp, 32			; 00000020H
  000b1	8d 4d 10	 lea	 ecx, DWORD PTR $T3[ebp]
  000b4	c6 45 fc 03	 mov	 BYTE PTR __$EHRec$[ebp+8], 3
  000b8	ff 15 00 00 00
	00		 call	 DWORD PTR __imp_??1?$CStringT@DV?$StrTraitMFC_DLL@DV?$ChTraitsCRT@D@ATL@@@@@ATL@@QAE@XZ

; 79   : 	
; 80   : 	// Fire Event for Asking Price Data
; 81   : 	if( !m_bSameDataFilter || m_dData != m_dYScaleOriginalData || m_lData != (long)m_dXScaleOriginalData)

  000be	83 bf 8c 00 00
	00 00		 cmp	 DWORD PTR [edi+140], 0
  000c5	74 34		 je	 SHORT $LN5@OnMouseMov
  000c7	f2 0f 10 4f 70	 movsd	 xmm1, QWORD PTR [edi+112]
  000cc	f2 0f 10 87 90
	00 00 00	 movsd	 xmm0, QWORD PTR [edi+144]
  000d4	66 0f 2e c1	 ucomisd xmm0, xmm1
  000d8	9f		 lahf
  000d9	f6 c4 44	 test	 ah, 68			; 00000044H
  000dc	7a 1d		 jp	 SHORT $LN5@OnMouseMov
  000de	f2 0f 2c 47 68	 cvttsd2si eax, QWORD PTR [edi+104]
  000e3	39 87 98 00 00
	00		 cmp	 DWORD PTR [edi+152], eax
  000e9	75 10		 jne	 SHORT $LN5@OnMouseMov

; 83   : 	else
; 84   : 	{
; 85   : 		m_dData = m_dYScaleOriginalData;

  000eb	f2 0f 11 8f 90
	00 00 00	 movsd	 QWORD PTR [edi+144], xmm1

; 86   : 		m_lData = (long)m_dXScaleOriginalData;

  000f3	89 87 98 00 00
	00		 mov	 DWORD PTR [edi+152], eax
  000f9	eb 29		 jmp	 SHORT $LN4@OnMouseMov
$LN5@OnMouseMov:

; 82   : 		m_pIChartOCX->FireAddInEvent( m_strAddInItemName, 0, strXScaleAndYScaleData, m_dYScaleOriginalData, (long)m_dXScaleOriginalData);

  000fb	f2 0f 2c 47 68	 cvttsd2si eax, QWORD PTR [edi+104]
  00100	8b 4f 04	 mov	 ecx, DWORD PTR [edi+4]
  00103	8b 11		 mov	 edx, DWORD PTR [ecx]
  00105	f2 0f 10 47 70	 movsd	 xmm0, QWORD PTR [edi+112]
  0010a	50		 push	 eax
  0010b	83 ec 08	 sub	 esp, 8
  0010e	f2 0f 11 04 24	 movsd	 QWORD PTR [esp], xmm0
  00113	ff 75 f0	 push	 DWORD PTR _strXScaleAndYScaleData$[ebp]
  00116	6a 00		 push	 0
  00118	ff 35 00 00 00
	00		 push	 DWORD PTR ?m_strAddInItemName@CMousePositionExportingAddInImp@@2V?$CStringT@DV?$StrTraitMFC_DLL@DV?$ChTraitsCRT@D@ATL@@@@@ATL@@A ; CMousePositionExportingAddInImp::m_strAddInItemName
  0011e	ff 92 a8 01 00
	00		 call	 DWORD PTR [edx+424]
$LN4@OnMouseMov:

; 87   : 	}
; 88   : 
; 89   : 	return FALSE;

  00124	8d 4d f0	 lea	 ecx, DWORD PTR _strXScaleAndYScaleData$[ebp]
  00127	ff 15 00 00 00
	00		 call	 DWORD PTR __imp_??1?$CStringT@DV?$StrTraitMFC_DLL@DV?$ChTraitsCRT@D@ATL@@@@@ATL@@QAE@XZ
$LN10@OnMouseMov:
  0012d	8d 4d e4	 lea	 ecx, DWORD PTR __ctlState$[ebp]
  00130	e8 00 00 00 00	 call	 ??1AFX_MAINTAIN_STATE2@@QAE@XZ ; AFX_MAINTAIN_STATE2::~AFX_MAINTAIN_STATE2
  00135	33 c0		 xor	 eax, eax

; 90   : }

  00137	8b 4d f4	 mov	 ecx, DWORD PTR __$EHRec$[ebp]
  0013a	64 89 0d 00 00
	00 00		 mov	 DWORD PTR fs:0, ecx
  00141	59		 pop	 ecx
  00142	5f		 pop	 edi
  00143	5e		 pop	 esi
  00144	8b e5		 mov	 esp, ebp
  00146	5d		 pop	 ebp
  00147	c2 14 00	 ret	 20			; 00000014H
_TEXT	ENDS
;	COMDAT text$x
text$x	SEGMENT
__unwindfunclet$?OnMouseMove@CMousePositionExportingAddInImp@@MAEHPAUHDC__@@IAAUtagPOINT@@KQAUHBITMAP__@@@Z$0:
  00000	8d 4d e4	 lea	 ecx, DWORD PTR __ctlState$[ebp]
  00003	e9 00 00 00 00	 jmp	 ??1AFX_MAINTAIN_STATE2@@QAE@XZ ; AFX_MAINTAIN_STATE2::~AFX_MAINTAIN_STATE2
__unwindfunclet$?OnMouseMove@CMousePositionExportingAddInImp@@MAEHPAUHDC__@@IAAUtagPOINT@@KQAUHBITMAP__@@@Z$3:
  00008	8b 45 ec	 mov	 eax, DWORD PTR $T2[ebp]
  0000b	83 e0 01	 and	 eax, 1
  0000e	0f 84 0d 00 00
	00		 je	 $LN16@OnMouseMov
  00014	83 65 ec fe	 and	 DWORD PTR $T2[ebp], -2	; fffffffeH
  00018	8d 4d 10	 lea	 ecx, DWORD PTR $T3[ebp]
  0001b	ff 25 00 00 00
	00		 jmp	 DWORD PTR __imp_??1?$CStringT@DV?$StrTraitMFC_DLL@DV?$ChTraitsCRT@D@ATL@@@@@ATL@@QAE@XZ
$LN16@OnMouseMov:
  00021	c3		 ret	 0
__unwindfunclet$?OnMouseMove@CMousePositionExportingAddInImp@@MAEHPAUHDC__@@IAAUtagPOINT@@KQAUHBITMAP__@@@Z$2:
  00022	8d 4d f0	 lea	 ecx, DWORD PTR _strXScaleAndYScaleData$[ebp]
  00025	ff 25 00 00 00
	00		 jmp	 DWORD PTR __imp_??1?$CStringT@DV?$StrTraitMFC_DLL@DV?$ChTraitsCRT@D@ATL@@@@@ATL@@QAE@XZ
  0002b	cc		 int	 3
  0002c	cc		 int	 3
  0002d	cc		 int	 3
  0002e	cc		 int	 3
  0002f	cc		 int	 3
__ehhandler$?OnMouseMove@CMousePositionExportingAddInImp@@MAEHPAUHDC__@@IAAUtagPOINT@@KQAUHBITMAP__@@@Z:
  00030	90		 npad	 1
  00031	90		 npad	 1
  00032	8b 54 24 08	 mov	 edx, DWORD PTR [esp+8]
  00036	8d 42 0c	 lea	 eax, DWORD PTR [edx+12]
  00039	8b 4a e4	 mov	 ecx, DWORD PTR [edx-28]
  0003c	33 c8		 xor	 ecx, eax
  0003e	e8 00 00 00 00	 call	 @__security_check_cookie@4
  00043	b8 00 00 00 00	 mov	 eax, OFFSET __ehfuncinfo$?OnMouseMove@CMousePositionExportingAddInImp@@MAEHPAUHDC__@@IAAUtagPOINT@@KQAUHBITMAP__@@@Z
  00048	e9 00 00 00 00	 jmp	 ___CxxFrameHandler3
text$x	ENDS
?OnMouseMove@CMousePositionExportingAddInImp@@MAEHPAUHDC__@@IAAUtagPOINT@@KQAUHBITMAP__@@@Z ENDP ; CMousePositionExportingAddInImp::OnMouseMove
; Function compile flags: /Ogtp
; File D:\git\src\IBK\IBK_DRFN\ProjSrc\SrcChartEx\ChartOCX\AddInManager\ChartCommonAddIn\MousePositionExportingAddInImp.cpp
;	COMDAT ?InvokeAddIn@CMousePositionExportingAddInImp@@MAEHHJ@Z
_TEXT	SEGMENT
_p_nCommandType$ = 8					; size = 4
_p_lData$ = 12						; size = 4
?InvokeAddIn@CMousePositionExportingAddInImp@@MAEHHJ@Z PROC ; CMousePositionExportingAddInImp::InvokeAddIn, COMDAT
; _this$ = ecx

; 303  : {

  00000	55		 push	 ebp
  00001	8b ec		 mov	 ebp, esp

; 304  : 	m_bXDataExport = p_lData;

  00003	8b 45 0c	 mov	 eax, DWORD PTR _p_lData$[ebp]
  00006	89 81 88 00 00
	00		 mov	 DWORD PTR [ecx+136], eax

; 305  : 	return TRUE;

  0000c	b8 01 00 00 00	 mov	 eax, 1

; 306  : }

  00011	5d		 pop	 ebp
  00012	c2 08 00	 ret	 8
?InvokeAddIn@CMousePositionExportingAddInImp@@MAEHHJ@Z ENDP ; CMousePositionExportingAddInImp::InvokeAddIn
_TEXT	ENDS
; Function compile flags: /Ogtp
; File D:\git\src\IBK\IBK_DRFN\ProjSrc\SrcChartEx\ChartOCX\AddInManager\ChartCommonAddIn\MousePositionExportingAddInImp.cpp
;	COMDAT ?GetYScaleDataInPoint@CMousePositionExportingAddInImp@@IAEHVCPoint@@@Z
_TEXT	SEGMENT
_dViewMax$ = -16					; size = 8
_dViewMin$ = -8						; size = 8
_ptPoint$ = 8						; size = 8
?GetYScaleDataInPoint@CMousePositionExportingAddInImp@@IAEHVCPoint@@@Z PROC ; CMousePositionExportingAddInImp::GetYScaleDataInPoint, COMDAT
; _this$ = ecx

; 282  : { 

  00000	55		 push	 ebp
  00001	8b ec		 mov	 ebp, esp
  00003	83 ec 10	 sub	 esp, 16			; 00000010H
  00006	56		 push	 esi
  00007	57		 push	 edi
  00008	8b f9		 mov	 edi, ecx

; 283  : 	double	dViewMin;					// View  Graph View Minimun Scale .
; 284  : 	double	dViewMax;					// View  Graph View Maximum Scale .
; 285  : 
; 286  : 	m_nVScaleGroupIndex = m_pIBlock->GetFirstVisibleVScaleIndex();

  0000a	8b 8f 88 00 00
	00		 mov	 ecx, DWORD PTR [edi+136]
  00010	8b 01		 mov	 eax, DWORD PTR [ecx]
  00012	ff 50 40	 call	 DWORD PTR [eax+64]

; 287  : 	m_pIBlock->GetVScaleGroupMinMax( m_nVScaleGroupIndex, dViewMin, dViewMax);

  00015	8b 8f 88 00 00
	00		 mov	 ecx, DWORD PTR [edi+136]
  0001b	8d 75 f0	 lea	 esi, DWORD PTR _dViewMax$[ebp]
  0001e	56		 push	 esi
  0001f	89 87 84 00 00
	00		 mov	 DWORD PTR [edi+132], eax
  00025	8d 75 f8	 lea	 esi, DWORD PTR _dViewMin$[ebp]
  00028	56		 push	 esi
  00029	8b 11		 mov	 edx, DWORD PTR [ecx]
  0002b	50		 push	 eax
  0002c	ff 52 48	 call	 DWORD PTR [edx+72]

; 288  : 
; 289  : 	// Block Log/    Data . (<->Y Pos)
; 290  : 	//  Block Log/  .
; 291  : 	BOOL bLog = m_pIBlock->IsLogScale();

  0002f	8b 8f 88 00 00
	00		 mov	 ecx, DWORD PTR [edi+136]
  00035	8b 01		 mov	 eax, DWORD PTR [ecx]
  00037	ff 50 24	 call	 DWORD PTR [eax+36]

; 292  : 	BOOL bReverse = m_pIBlock->IsVScaleInvert( m_nVScaleGroupIndex);

  0003a	8b 8f 88 00 00
	00		 mov	 ecx, DWORD PTR [edi+136]
  00040	8b f0		 mov	 esi, eax
  00042	ff b7 84 00 00
	00		 push	 DWORD PTR [edi+132]
  00048	8b 11		 mov	 edx, DWORD PTR [ecx]
  0004a	ff 52 58	 call	 DWORD PTR [edx+88]

; 293  : 
; 294  : 	m_dYScaleOriginalData = m_pIChartOCX->ConvertYPositionToData( ptPoint.y,

  0004d	f2 0f 10 45 f8	 movsd	 xmm0, QWORD PTR _dViewMin$[ebp]
  00052	8b 4f 0c	 mov	 ecx, DWORD PTR [edi+12]
  00055	50		 push	 eax
  00056	56		 push	 esi
  00057	83 ec 10	 sub	 esp, 16			; 00000010H
  0005a	8b 11		 mov	 edx, DWORD PTR [ecx]
  0005c	f2 0f 11 44 24
	08		 movsd	 QWORD PTR [esp+8], xmm0
  00062	f2 0f 10 45 f0	 movsd	 xmm0, QWORD PTR _dViewMax$[ebp]
  00067	8b 82 30 01 00
	00		 mov	 eax, DWORD PTR [edx+304]
  0006d	f2 0f 11 04 24	 movsd	 QWORD PTR [esp], xmm0
  00072	ff 77 4c	 push	 DWORD PTR [edi+76]
  00075	ff 77 44	 push	 DWORD PTR [edi+68]
  00078	ff 75 0c	 push	 DWORD PTR _ptPoint$[ebp+4]
  0007b	ff d0		 call	 eax
  0007d	dd 5f 78	 fstp	 QWORD PTR [edi+120]

; 295  : 		m_rctGraphDrawingRegion.top, m_rctGraphDrawingRegion.bottom, dViewMax, dViewMin, bLog, bReverse);
; 296  : 
; 297  : 	return TRUE;

  00080	5f		 pop	 edi
  00081	b8 01 00 00 00	 mov	 eax, 1
  00086	5e		 pop	 esi

; 298  : }

  00087	8b e5		 mov	 esp, ebp
  00089	5d		 pop	 ebp
  0008a	c2 08 00	 ret	 8
?GetYScaleDataInPoint@CMousePositionExportingAddInImp@@IAEHVCPoint@@@Z ENDP ; CMousePositionExportingAddInImp::GetYScaleDataInPoint
_TEXT	ENDS
; Function compile flags: /Ogtp
; File D:\git\src\IBK\IBK_DRFN\ProjSrc\SrcChartEx\ChartOCX\AddInManager\ChartCommonAddIn\MousePositionExportingAddInImp.cpp
; File C:\Program Files (x86)\Microsoft Visual Studio\2019\Community\VC\Tools\MSVC\14.29.30133\atlmfc\include\atltypes.h
; File D:\git\src\IBK\IBK_DRFN\ProjSrc\SrcChartEx\ChartOCX\AddInManager\ChartCommonAddIn\MousePositionExportingAddInImp.cpp
; File C:\Program Files (x86)\Microsoft Visual Studio\2019\Community\VC\Tools\MSVC\14.29.30133\atlmfc\include\atltypes.h
; File D:\git\src\IBK\IBK_DRFN\ProjSrc\SrcChartEx\ChartOCX\AddInManager\ChartCommonAddIn\MousePositionExportingAddInImp.cpp
; File D:\git\src\IBK\IBK_DRFN\ProjSrc\SrcChartEx\ChartOCX\AddInManager\Include_AddIn\I000000\_IString.h
; File D:\git\src\IBK\IBK_DRFN\ProjSrc\SrcChartEx\ChartOCX\AddInManager\ChartCommonAddIn\MousePositionExportingAddInImp.cpp
; File D:\git\src\IBK\IBK_DRFN\ProjSrc\SrcChartEx\ChartOCX\AddInManager\Include_AddIn\I000000\_IString.h
; File D:\git\src\IBK\IBK_DRFN\ProjSrc\SrcChartEx\ChartOCX\AddInManager\ChartCommonAddIn\MousePositionExportingAddInImp.cpp
; File C:\Program Files (x86)\Microsoft Visual Studio\2019\Community\VC\Tools\MSVC\14.29.30133\atlmfc\include\atlsimpstr.h
; File D:\git\src\IBK\IBK_DRFN\ProjSrc\SrcChartEx\ChartOCX\AddInManager\ChartCommonAddIn\MousePositionExportingAddInImp.cpp
; File D:\git\src\IBK\IBK_DRFN\ProjSrc\SrcChartEx\ChartOCX\AddInManager\Include_AddIn\I000000\_IString.h
; File D:\git\src\IBK\IBK_DRFN\ProjSrc\SrcChartEx\ChartOCX\AddInManager\ChartCommonAddIn\MousePositionExportingAddInImp.cpp
;	COMDAT ?GetXScaleDataInPoint@CMousePositionExportingAddInImp@@IAEHVCPoint@@@Z
_TEXT	SEGMENT
_szType$ = -40						; size = 8
_szXScaleData$ = -32					; size = 8
_nStartIndex$ = -24					; size = 4
_nEndIndex$ = -20					; size = 4
_nDataIndex$1$ = -16					; size = 4
__$EHRec$ = -12						; size = 12
_ptPoint$ = 8						; size = 8
?GetXScaleDataInPoint@CMousePositionExportingAddInImp@@IAEHVCPoint@@@Z PROC ; CMousePositionExportingAddInImp::GetXScaleDataInPoint, COMDAT
; _this$ = ecx

; 228  : {

  00000	55		 push	 ebp
  00001	8b ec		 mov	 ebp, esp
  00003	6a ff		 push	 -1
  00005	68 00 00 00 00	 push	 __ehhandler$?GetXScaleDataInPoint@CMousePositionExportingAddInImp@@IAEHVCPoint@@@Z
  0000a	64 a1 00 00 00
	00		 mov	 eax, DWORD PTR fs:0
  00010	50		 push	 eax
  00011	83 ec 1c	 sub	 esp, 28			; 0000001cH
  00014	53		 push	 ebx
  00015	56		 push	 esi
  00016	57		 push	 edi
  00017	a1 00 00 00 00	 mov	 eax, DWORD PTR ___security_cookie
  0001c	33 c5		 xor	 eax, ebp
  0001e	50		 push	 eax
  0001f	8d 45 f4	 lea	 eax, DWORD PTR __$EHRec$[ebp]
  00022	64 a3 00 00 00
	00		 mov	 DWORD PTR fs:0, eax
  00028	8b f9		 mov	 edi, ecx

; 229  : 	// 1.    Data Start / End Index .
; 230  : 	int nStartIndex, nEndIndex;
; 231  : 	if( !m_pIChartOCX->GetViewStartEndIndex( nStartIndex, nEndIndex ) )

  0002a	8b 4f 0c	 mov	 ecx, DWORD PTR [edi+12]
  0002d	8d 55 ec	 lea	 edx, DWORD PTR _nEndIndex$[ebp]
  00030	52		 push	 edx
  00031	8d 55 e8	 lea	 edx, DWORD PTR _nStartIndex$[ebp]
  00034	52		 push	 edx
  00035	8b 01		 mov	 eax, DWORD PTR [ecx]
  00037	ff 90 24 01 00
	00		 call	 DWORD PTR [eax+292]
  0003d	85 c0		 test	 eax, eax
  0003f	0f 84 9d 01 00
	00		 je	 $LN30@GetXScaleD

; 236  : 	int nDataOnPage = nEndIndex - nStartIndex + 1;

  00045	8b 4d ec	 mov	 ecx, DWORD PTR _nEndIndex$[ebp]
  00048	2b 4d e8	 sub	 ecx, DWORD PTR _nStartIndex$[ebp]
; File C:\Program Files (x86)\Microsoft Visual Studio\2019\Community\VC\Tools\MSVC\14.29.30133\atlmfc\include\atltypes.h

; 576  : 	return right - left;

  0004b	8b 47 48	 mov	 eax, DWORD PTR [edi+72]
; File D:\git\src\IBK\IBK_DRFN\ProjSrc\SrcChartEx\ChartOCX\AddInManager\ChartCommonAddIn\MousePositionExportingAddInImp.cpp

; 236  : 	int nDataOnPage = nEndIndex - nStartIndex + 1;

  0004e	41		 inc	 ecx
; File C:\Program Files (x86)\Microsoft Visual Studio\2019\Community\VC\Tools\MSVC\14.29.30133\atlmfc\include\atltypes.h

; 576  : 	return right - left;

  0004f	2b 47 40	 sub	 eax, DWORD PTR [edi+64]
  00052	66 0f 6e c1	 movd	 xmm0, ecx
  00056	66 0f 6e c8	 movd	 xmm1, eax
; File D:\git\src\IBK\IBK_DRFN\ProjSrc\SrcChartEx\ChartOCX\AddInManager\ChartCommonAddIn\MousePositionExportingAddInImp.cpp

; 237  : 	double dBarWidth = double( m_rctGraphDrawingRegion.Width() ) / double( nDataOnPage );

  0005a	f3 0f e6 c0	 cvtdq2pd xmm0, xmm0

; 238  : 	int nDataIndex = nStartIndex + int( double( ptPoint.x - m_rctBlockRegion.left ) / dBarWidth );

  0005e	8b 45 08	 mov	 eax, DWORD PTR _ptPoint$[ebp]
  00061	2b 47 50	 sub	 eax, DWORD PTR [edi+80]

; 239  : 
; 240  : 
; 241  : 	// 3. XScale Data Index Packet Type .
; 242  : 	IPacket *pIPacket = m_pIBlock->GetHorzScaleDataPacket();

  00064	8b 8f 88 00 00
	00		 mov	 ecx, DWORD PTR [edi+136]
  0006a	f3 0f e6 c9	 cvtdq2pd xmm1, xmm1
  0006e	f2 0f 5e c8	 divsd	 xmm1, xmm0
  00072	66 0f 6e c0	 movd	 xmm0, eax
  00076	f3 0f e6 c0	 cvtdq2pd xmm0, xmm0
  0007a	f2 0f 5e c1	 divsd	 xmm0, xmm1
  0007e	f2 0f 2c c0	 cvttsd2si eax, xmm0
  00082	03 45 e8	 add	 eax, DWORD PTR _nStartIndex$[ebp]
  00085	89 45 f0	 mov	 DWORD PTR _nDataIndex$1$[ebp], eax
  00088	8b 01		 mov	 eax, DWORD PTR [ecx]
  0008a	ff 50 20	 call	 DWORD PTR [eax+32]
  0008d	8b f0		 mov	 esi, eax

; 243  : 	if( pIPacket == NULL )

  0008f	85 f6		 test	 esi, esi
  00091	0f 84 4b 01 00
	00		 je	 $LN30@GetXScaleD
; File D:\git\src\IBK\IBK_DRFN\ProjSrc\SrcChartEx\ChartOCX\AddInManager\Include_AddIn\I000000\_IString.h

; 34   : 		m_szData = NULL;

  00097	c7 45 e0 00 00
	00 00		 mov	 DWORD PTR _szXScaleData$[ebp], 0

; 35   : 		m_pIStrData = NULL;

  0009e	c7 45 e4 00 00
	00 00		 mov	 DWORD PTR _szXScaleData$[ebp+4], 0
; File D:\git\src\IBK\IBK_DRFN\ProjSrc\SrcChartEx\ChartOCX\AddInManager\ChartCommonAddIn\MousePositionExportingAddInImp.cpp

; 249  : 	ILPCSTR szType = pIPacket->GetType();

  000a5	8b 16		 mov	 edx, DWORD PTR [esi]
  000a7	8b ce		 mov	 ecx, esi
  000a9	6a 01		 push	 1
  000ab	c7 45 fc 00 00
	00 00		 mov	 DWORD PTR __$EHRec$[ebp+8], 0
  000b2	ff 52 1c	 call	 DWORD PTR [edx+28]
; File D:\git\src\IBK\IBK_DRFN\ProjSrc\SrcChartEx\ChartOCX\AddInManager\Include_AddIn\I000000\_IString.h

; 39   : 		m_pIStrData = p_pIString;	// Do not AddRef(). Because It must be Return Value.

  000b5	8b d8		 mov	 ebx, eax
  000b7	89 5d dc	 mov	 DWORD PTR _szType$[ebp+4], ebx

; 40   : 		if( m_pIStrData) m_szData = m_pIStrData->GetData();

  000ba	85 db		 test	 ebx, ebx
  000bc	74 09		 je	 SHORT $LN17@GetXScaleD
  000be	8b 13		 mov	 edx, DWORD PTR [ebx]
  000c0	8b cb		 mov	 ecx, ebx
  000c2	ff 52 10	 call	 DWORD PTR [edx+16]
  000c5	eb 02		 jmp	 SHORT $LN36@GetXScaleD
$LN17@GetXScaleD:

; 41   : 		else m_szData = NULL;

  000c7	33 c0		 xor	 eax, eax
$LN36@GetXScaleD:
; File D:\git\src\IBK\IBK_DRFN\ProjSrc\SrcChartEx\ChartOCX\AddInManager\ChartCommonAddIn\MousePositionExportingAddInImp.cpp

; 249  : 	ILPCSTR szType = pIPacket->GetType();

  000c9	89 45 d8	 mov	 DWORD PTR _szType$[ebp], eax

; 250  : 	m_strPacketType = szType;

  000cc	8d 8f 80 00 00
	00		 lea	 ecx, DWORD PTR [edi+128]
  000d2	c6 45 fc 01	 mov	 BYTE PTR __$EHRec$[ebp+8], 1
  000d6	50		 push	 eax
  000d7	ff 15 00 00 00
	00		 call	 DWORD PTR __imp_??4?$CStringT@DV?$StrTraitMFC_DLL@DV?$ChTraitsCRT@D@ATL@@@@@ATL@@QAEAAV01@PBD@Z

; 251  : 	
; 252  : 	// (2007/1/17 - Seung-Won, Bae) Support Data Index with Default.
; 253  : 	if( !m_bXDataExport) m_dXScaleOriginalData = nDataIndex;

  000dd	83 bf 90 00 00
	00 00		 cmp	 DWORD PTR [edi+144], 0
  000e4	75 13		 jne	 SHORT $LN4@GetXScaleD
  000e6	66 0f 6e 45 f0	 movd	 xmm0, DWORD PTR _nDataIndex$1$[ebp]
  000eb	f3 0f e6 c0	 cvtdq2pd xmm0, xmm0
  000ef	f2 0f 11 47 70	 movsd	 QWORD PTR [edi+112], xmm0
  000f4	e9 a8 00 00 00	 jmp	 $LN7@GetXScaleD
$LN4@GetXScaleD:

; 254  : 	else if( !strcmp( m_strPacketType, _MTEXT( C6_CHARACTER)) )

  000f9	a1 54 00 00 00	 mov	 eax, DWORD PTR ?g_iMetaTable@@3VIMetaTable@@A+84
; File C:\Program Files (x86)\Microsoft Visual Studio\2019\Community\VC\Tools\MSVC\14.29.30133\atlmfc\include\atlsimpstr.h

; 377  : 		return( m_pszData );

  000fe	8b 8f 80 00 00
	00		 mov	 ecx, DWORD PTR [edi+128]
; File D:\git\src\IBK\IBK_DRFN\ProjSrc\SrcChartEx\ChartOCX\AddInManager\ChartCommonAddIn\MousePositionExportingAddInImp.cpp

; 254  : 	else if( !strcmp( m_strPacketType, _MTEXT( C6_CHARACTER)) )

  00104	8b 80 60 09 00
	00		 mov	 eax, DWORD PTR [eax+2400]
  0010a	66 0f 1f 44 00
	00		 npad	 6
$LL31@GetXScaleD:
  00110	8a 11		 mov	 dl, BYTE PTR [ecx]
  00112	3a 10		 cmp	 dl, BYTE PTR [eax]
  00114	75 1a		 jne	 SHORT $LN32@GetXScaleD
  00116	84 d2		 test	 dl, dl
  00118	74 12		 je	 SHORT $LN33@GetXScaleD
  0011a	8a 51 01	 mov	 dl, BYTE PTR [ecx+1]
  0011d	3a 50 01	 cmp	 dl, BYTE PTR [eax+1]
  00120	75 0e		 jne	 SHORT $LN32@GetXScaleD
  00122	83 c1 02	 add	 ecx, 2
  00125	83 c0 02	 add	 eax, 2
  00128	84 d2		 test	 dl, dl
  0012a	75 e4		 jne	 SHORT $LL31@GetXScaleD
$LN33@GetXScaleD:
  0012c	33 c0		 xor	 eax, eax
  0012e	eb 05		 jmp	 SHORT $LN34@GetXScaleD
$LN32@GetXScaleD:
  00130	1b c0		 sbb	 eax, eax
  00132	83 c8 01	 or	 eax, 1
$LN34@GetXScaleD:
  00135	85 c0		 test	 eax, eax
  00137	75 34		 jne	 SHORT $LN6@GetXScaleD

; 255  : 	{
; 256  : 		m_bPacketTypeIsString = TRUE;
; 257  : 		pIPacket->GetData(nDataIndex, szXScaleData);

  00139	8d 4d e0	 lea	 ecx, DWORD PTR _szXScaleData$[ebp]
  0013c	c7 87 8c 00 00
	00 01 00 00 00	 mov	 DWORD PTR [edi+140], 1
  00146	8b 06		 mov	 eax, DWORD PTR [esi]
  00148	51		 push	 ecx
  00149	ff 75 f0	 push	 DWORD PTR _nDataIndex$1$[ebp]
  0014c	8b ce		 mov	 ecx, esi
  0014e	ff 50 3c	 call	 DWORD PTR [eax+60]

; 258  : 
; 259  : 		m_strXScaleFormatedData = szXScaleData;

  00151	ff 75 e0	 push	 DWORD PTR _szXScaleData$[ebp]
  00154	8d 4f 68	 lea	 ecx, DWORD PTR [edi+104]
  00157	ff 15 00 00 00
	00		 call	 DWORD PTR __imp_??4?$CStringT@DV?$StrTraitMFC_DLL@DV?$ChTraitsCRT@D@ATL@@@@@ATL@@QAEAAV01@PBD@Z
  0015d	66 0f 6e 45 f0	 movd	 xmm0, DWORD PTR _nDataIndex$1$[ebp]

; 260  : 		m_dXScaleOriginalData = nDataIndex;

  00162	f3 0f e6 c0	 cvtdq2pd xmm0, xmm0
  00166	f2 0f 11 47 70	 movsd	 QWORD PTR [edi+112], xmm0

; 261  : 	}

  0016b	eb 34		 jmp	 SHORT $LN7@GetXScaleD
$LN6@GetXScaleD:

; 262  : 
; 263  : 	else
; 264  : 	{
; 265  : 		m_bPacketTypeIsString = FALSE;
; 266  : 		if( !pIPacket->GetData(nDataIndex, m_dXScaleOriginalData) )

  0016d	8d 4f 70	 lea	 ecx, DWORD PTR [edi+112]
  00170	c7 87 8c 00 00
	00 00 00 00 00	 mov	 DWORD PTR [edi+140], 0
  0017a	8b 06		 mov	 eax, DWORD PTR [esi]
  0017c	51		 push	 ecx
  0017d	ff 75 f0	 push	 DWORD PTR _nDataIndex$1$[ebp]
  00180	8b ce		 mov	 ecx, esi
  00182	ff 50 40	 call	 DWORD PTR [eax+64]
  00185	85 c0		 test	 eax, eax
  00187	75 0e		 jne	 SHORT $LN8@GetXScaleD

; 267  : 			pIPacket->GetDataPastandFuture( nDataIndex, m_dXScaleOriginalData );

  00189	8b 06		 mov	 eax, DWORD PTR [esi]
  0018b	8d 4f 70	 lea	 ecx, DWORD PTR [edi+112]
  0018e	51		 push	 ecx
  0018f	ff 75 f0	 push	 DWORD PTR _nDataIndex$1$[ebp]
  00192	8b ce		 mov	 ecx, esi
  00194	ff 50 44	 call	 DWORD PTR [eax+68]
$LN8@GetXScaleD:

; 268  : 
; 269  : 		// 6. Span Data   .
; 270  : 		GetStringfromDataIdx( nDataIndex );

  00197	ff 75 f0	 push	 DWORD PTR _nDataIndex$1$[ebp]
  0019a	8b cf		 mov	 ecx, edi
  0019c	e8 00 00 00 00	 call	 ?GetStringfromDataIdx@CMousePositionExportingAddInImp@@IAEHH@Z ; CMousePositionExportingAddInImp::GetStringfromDataIdx
$LN7@GetXScaleD:

; 271  : 	}
; 272  : 
; 273  : 	pIPacket->Release();

  001a1	8b 06		 mov	 eax, DWORD PTR [esi]
  001a3	56		 push	 esi
  001a4	ff 50 08	 call	 DWORD PTR [eax+8]
; File D:\git\src\IBK\IBK_DRFN\ProjSrc\SrcChartEx\ChartOCX\AddInManager\Include_AddIn\I000000\_IString.h

; 44   : 	{

  001a7	c6 45 fc 02	 mov	 BYTE PTR __$EHRec$[ebp+8], 2

; 45   : 		if( m_pIStrData)

  001ab	85 db		 test	 ebx, ebx
  001ad	74 06		 je	 SHORT $LN23@GetXScaleD

; 46   : 		{
; 47   : 			m_pIStrData->Release();

  001af	8b 03		 mov	 eax, DWORD PTR [ebx]
  001b1	53		 push	 ebx
  001b2	ff 50 08	 call	 DWORD PTR [eax+8]
$LN23@GetXScaleD:

; 45   : 		if( m_pIStrData)

  001b5	8b 4d e4	 mov	 ecx, DWORD PTR _szXScaleData$[ebp+4]
  001b8	c7 45 fc 03 00
	00 00		 mov	 DWORD PTR __$EHRec$[ebp+8], 3
  001bf	85 c9		 test	 ecx, ecx
  001c1	74 06		 je	 SHORT $LN27@GetXScaleD

; 46   : 		{
; 47   : 			m_pIStrData->Release();

  001c3	8b 01		 mov	 eax, DWORD PTR [ecx]
  001c5	51		 push	 ecx
  001c6	ff 50 08	 call	 DWORD PTR [eax+8]
$LN27@GetXScaleD:
; File D:\git\src\IBK\IBK_DRFN\ProjSrc\SrcChartEx\ChartOCX\AddInManager\ChartCommonAddIn\MousePositionExportingAddInImp.cpp

; 276  : 	return TRUE;

  001c9	b8 01 00 00 00	 mov	 eax, 1

; 277  : }

  001ce	8b 4d f4	 mov	 ecx, DWORD PTR __$EHRec$[ebp]
  001d1	64 89 0d 00 00
	00 00		 mov	 DWORD PTR fs:0, ecx
  001d8	59		 pop	 ecx
  001d9	5f		 pop	 edi
  001da	5e		 pop	 esi
  001db	5b		 pop	 ebx
  001dc	8b e5		 mov	 esp, ebp
  001de	5d		 pop	 ebp
  001df	c2 08 00	 ret	 8
$LN30@GetXScaleD:

; 244  : 		return FALSE;

  001e2	33 c0		 xor	 eax, eax

; 277  : }

  001e4	8b 4d f4	 mov	 ecx, DWORD PTR __$EHRec$[ebp]
  001e7	64 89 0d 00 00
	00 00		 mov	 DWORD PTR fs:0, ecx
  001ee	59		 pop	 ecx
  001ef	5f		 pop	 edi
  001f0	5e		 pop	 esi
  001f1	5b		 pop	 ebx
  001f2	8b e5		 mov	 esp, ebp
  001f4	5d		 pop	 ebp
  001f5	c2 08 00	 ret	 8
_TEXT	ENDS
;	COMDAT text$x
text$x	SEGMENT
__unwindfunclet$?GetXScaleDataInPoint@CMousePositionExportingAddInImp@@IAEHVCPoint@@@Z$0:
  00000	8d 4d e0	 lea	 ecx, DWORD PTR _szXScaleData$[ebp]
  00003	e9 00 00 00 00	 jmp	 ??1ILPCSTR000000@@QAE@XZ ; ILPCSTR000000::~ILPCSTR000000
__unwindfunclet$?GetXScaleDataInPoint@CMousePositionExportingAddInImp@@IAEHVCPoint@@@Z$1:
  00008	8d 4d d8	 lea	 ecx, DWORD PTR _szType$[ebp]
  0000b	e9 00 00 00 00	 jmp	 ??1ILPCSTR000000@@QAE@XZ ; ILPCSTR000000::~ILPCSTR000000
  00010	cc		 int	 3
  00011	cc		 int	 3
  00012	cc		 int	 3
  00013	cc		 int	 3
  00014	cc		 int	 3
__ehhandler$?GetXScaleDataInPoint@CMousePositionExportingAddInImp@@IAEHVCPoint@@@Z:
  00015	90		 npad	 1
  00016	90		 npad	 1
  00017	8b 54 24 08	 mov	 edx, DWORD PTR [esp+8]
  0001b	8d 42 0c	 lea	 eax, DWORD PTR [edx+12]
  0001e	8b 4a d4	 mov	 ecx, DWORD PTR [edx-44]
  00021	33 c8		 xor	 ecx, eax
  00023	e8 00 00 00 00	 call	 @__security_check_cookie@4
  00028	b8 00 00 00 00	 mov	 eax, OFFSET __ehfuncinfo$?GetXScaleDataInPoint@CMousePositionExportingAddInImp@@IAEHVCPoint@@@Z
  0002d	e9 00 00 00 00	 jmp	 ___CxxFrameHandler3
text$x	ENDS
?GetXScaleDataInPoint@CMousePositionExportingAddInImp@@IAEHVCPoint@@@Z ENDP ; CMousePositionExportingAddInImp::GetXScaleDataInPoint
; Function compile flags: /Ogtp
; File D:\git\src\IBK\IBK_DRFN\ProjSrc\SrcChartEx\ChartOCX\AddInManager\ChartCommonAddIn\MousePositionExportingAddInImp.cpp
; File C:\Program Files (x86)\Microsoft Visual Studio\2019\Community\VC\Tools\MSVC\14.29.30133\atlmfc\include\atltypes.h
; File D:\git\src\IBK\IBK_DRFN\ProjSrc\SrcChartEx\ChartOCX\AddInManager\ChartCommonAddIn\MousePositionExportingAddInImp.cpp
; File C:\Program Files (x86)\Microsoft Visual Studio\2019\Community\VC\Tools\MSVC\14.29.30133\atlmfc\include\atltypes.h
; File D:\git\src\IBK\IBK_DRFN\ProjSrc\SrcChartEx\ChartOCX\AddInManager\ChartCommonAddIn\MousePositionExportingAddInImp.cpp
; File C:\Program Files (x86)\Microsoft Visual Studio\2019\Community\VC\Tools\MSVC\14.29.30133\atlmfc\include\atltypes.h
; File D:\git\src\IBK\IBK_DRFN\ProjSrc\SrcChartEx\ChartOCX\AddInManager\ChartCommonAddIn\MousePositionExportingAddInImp.cpp
; File C:\Program Files (x86)\Microsoft Visual Studio\2019\Community\VC\Tools\MSVC\14.29.30133\atlmfc\include\atltypes.h
; File D:\git\src\IBK\IBK_DRFN\ProjSrc\SrcChartEx\ChartOCX\AddInManager\ChartCommonAddIn\MousePositionExportingAddInImp.cpp
; File C:\Program Files (x86)\Microsoft Visual Studio\2019\Community\VC\Tools\MSVC\14.29.30133\atlmfc\include\atltypes.h
; File D:\git\src\IBK\IBK_DRFN\ProjSrc\SrcChartEx\ChartOCX\AddInManager\ChartCommonAddIn\MousePositionExportingAddInImp.cpp
; File C:\Program Files (x86)\Microsoft Visual Studio\2019\Community\VC\Tools\MSVC\14.29.30133\atlmfc\include\atltypes.h
; File D:\git\src\IBK\IBK_DRFN\ProjSrc\SrcChartEx\ChartOCX\AddInManager\ChartCommonAddIn\MousePositionExportingAddInImp.cpp
; File C:\Program Files (x86)\Microsoft Visual Studio\2019\Community\VC\Tools\MSVC\14.29.30133\atlmfc\include\atltypes.h
; File D:\git\src\IBK\IBK_DRFN\ProjSrc\SrcChartEx\ChartOCX\AddInManager\ChartCommonAddIn\MousePositionExportingAddInImp.cpp
;	COMDAT ?GetGraphBlockRegion@CMousePositionExportingAddInImp@@IAEHVCPoint@@@Z
_TEXT	SEGMENT
$T1 = -36						; size = 16
_rctNoFrameAndMargin$ = -20				; size = 16
__$ArrayPad$ = -4					; size = 4
_ptPoint$ = 8						; size = 8
?GetGraphBlockRegion@CMousePositionExportingAddInImp@@IAEHVCPoint@@@Z PROC ; CMousePositionExportingAddInImp::GetGraphBlockRegion, COMDAT
; _this$ = ecx

; 197  : {

  00000	55		 push	 ebp
  00001	8b ec		 mov	 ebp, esp
  00003	83 ec 24	 sub	 esp, 36			; 00000024H
  00006	a1 00 00 00 00	 mov	 eax, DWORD PTR ___security_cookie
  0000b	33 c5		 xor	 eax, ebp
  0000d	89 45 fc	 mov	 DWORD PTR __$ArrayPad$[ebp], eax
  00010	53		 push	 ebx
  00011	8b d9		 mov	 ebx, ecx

; 198  : 	// 1. IBlock   Return.
; 199  : 	if( m_pIBlock == NULL )

  00013	8b 8b 88 00 00
	00		 mov	 ecx, DWORD PTR [ebx+136]
  00019	85 c9		 test	 ecx, ecx
  0001b	74 65		 je	 SHORT $LN22@GetGraphBl
; File C:\Program Files (x86)\Microsoft Visual Studio\2019\Community\VC\Tools\MSVC\14.29.30133\atlmfc\include\atltypes.h

; 528  : 	left = 0;

  0001d	56		 push	 esi
  0001e	57		 push	 edi
  0001f	0f 57 c0	 xorps	 xmm0, xmm0
; File D:\git\src\IBK\IBK_DRFN\ProjSrc\SrcChartEx\ChartOCX\AddInManager\ChartCommonAddIn\MousePositionExportingAddInImp.cpp

; 204  : 	m_pIBlock->GetGraphRegions( m_rctBlockRegion, rctNoFrameAndMargin);

  00022	8d 55 ec	 lea	 edx, DWORD PTR _rctNoFrameAndMargin$[ebp]
; File C:\Program Files (x86)\Microsoft Visual Studio\2019\Community\VC\Tools\MSVC\14.29.30133\atlmfc\include\atltypes.h

; 528  : 	left = 0;

  00025	0f 11 45 ec	 movups	 XMMWORD PTR _rctNoFrameAndMargin$[ebp], xmm0
; File D:\git\src\IBK\IBK_DRFN\ProjSrc\SrcChartEx\ChartOCX\AddInManager\ChartCommonAddIn\MousePositionExportingAddInImp.cpp

; 204  : 	m_pIBlock->GetGraphRegions( m_rctBlockRegion, rctNoFrameAndMargin);

  00029	8b 01		 mov	 eax, DWORD PTR [ecx]
  0002b	8d 7b 50	 lea	 edi, DWORD PTR [ebx+80]
  0002e	52		 push	 edx
  0002f	57		 push	 edi
  00030	ff 50 10	 call	 DWORD PTR [eax+16]

; 207  : 	m_rctGraphDrawingRegion = m_pIBlock->GetGraphDrwingRegion();

  00033	8b 8b 88 00 00
	00		 mov	 ecx, DWORD PTR [ebx+136]
  00039	8d 55 dc	 lea	 edx, DWORD PTR $T1[ebp]
  0003c	6a 00		 push	 0
  0003e	52		 push	 edx
  0003f	8b 01		 mov	 eax, DWORD PTR [ecx]
  00041	ff 50 1c	 call	 DWORD PTR [eax+28]
; File C:\Program Files (x86)\Microsoft Visual Studio\2019\Community\VC\Tools\MSVC\14.29.30133\atlmfc\include\atltypes.h

; 765  : 	::CopyRect(this, &srcRect);

  00044	50		 push	 eax
; File D:\git\src\IBK\IBK_DRFN\ProjSrc\SrcChartEx\ChartOCX\AddInManager\ChartCommonAddIn\MousePositionExportingAddInImp.cpp

; 207  : 	m_rctGraphDrawingRegion = m_pIBlock->GetGraphDrwingRegion();

  00045	8d 73 40	 lea	 esi, DWORD PTR [ebx+64]
; File C:\Program Files (x86)\Microsoft Visual Studio\2019\Community\VC\Tools\MSVC\14.29.30133\atlmfc\include\atltypes.h

; 765  : 	::CopyRect(this, &srcRect);

  00048	56		 push	 esi
  00049	ff 15 00 00 00
	00		 call	 DWORD PTR __imp__CopyRect@8

; 648  : 	return ::PtInRect(this, point);

  0004f	ff 75 0c	 push	 DWORD PTR _ptPoint$[ebp+4]
; File D:\git\src\IBK\IBK_DRFN\ProjSrc\SrcChartEx\ChartOCX\AddInManager\ChartCommonAddIn\MousePositionExportingAddInImp.cpp

; 210  : 	m_rctBlockRegion.left = m_rctGraphDrawingRegion.left;

  00052	8b 06		 mov	 eax, DWORD PTR [esi]
; File C:\Program Files (x86)\Microsoft Visual Studio\2019\Community\VC\Tools\MSVC\14.29.30133\atlmfc\include\atltypes.h

; 648  : 	return ::PtInRect(this, point);

  00054	ff 75 08	 push	 DWORD PTR _ptPoint$[ebp]
; File D:\git\src\IBK\IBK_DRFN\ProjSrc\SrcChartEx\ChartOCX\AddInManager\ChartCommonAddIn\MousePositionExportingAddInImp.cpp

; 210  : 	m_rctBlockRegion.left = m_rctGraphDrawingRegion.left;

  00057	89 07		 mov	 DWORD PTR [edi], eax

; 211  : 	m_rctBlockRegion.right = m_rctGraphDrawingRegion.right;

  00059	8b 43 48	 mov	 eax, DWORD PTR [ebx+72]
; File C:\Program Files (x86)\Microsoft Visual Studio\2019\Community\VC\Tools\MSVC\14.29.30133\atlmfc\include\atltypes.h

; 648  : 	return ::PtInRect(this, point);

  0005c	57		 push	 edi
; File D:\git\src\IBK\IBK_DRFN\ProjSrc\SrcChartEx\ChartOCX\AddInManager\ChartCommonAddIn\MousePositionExportingAddInImp.cpp

; 211  : 	m_rctBlockRegion.right = m_rctGraphDrawingRegion.right;

  0005d	89 43 58	 mov	 DWORD PTR [ebx+88], eax
; File C:\Program Files (x86)\Microsoft Visual Studio\2019\Community\VC\Tools\MSVC\14.29.30133\atlmfc\include\atltypes.h

; 648  : 	return ::PtInRect(this, point);

  00060	ff 15 00 00 00
	00		 call	 DWORD PTR __imp__PtInRect@12
  00066	5f		 pop	 edi
  00067	5e		 pop	 esi
; File D:\git\src\IBK\IBK_DRFN\ProjSrc\SrcChartEx\ChartOCX\AddInManager\ChartCommonAddIn\MousePositionExportingAddInImp.cpp

; 214  : 	if( !m_rctBlockRegion.PtInRect(ptPoint) ) 

  00068	85 c0		 test	 eax, eax
  0006a	74 16		 je	 SHORT $LN22@GetGraphBl

; 215  : 		return FALSE;
; 216  : 
; 217  : 	return TRUE;

  0006c	b8 01 00 00 00	 mov	 eax, 1
  00071	5b		 pop	 ebx

; 218  : }

  00072	8b 4d fc	 mov	 ecx, DWORD PTR __$ArrayPad$[ebp]
  00075	33 cd		 xor	 ecx, ebp
  00077	e8 00 00 00 00	 call	 @__security_check_cookie@4
  0007c	8b e5		 mov	 esp, ebp
  0007e	5d		 pop	 ebp
  0007f	c2 08 00	 ret	 8
$LN22@GetGraphBl:
  00082	8b 4d fc	 mov	 ecx, DWORD PTR __$ArrayPad$[ebp]
  00085	33 c0		 xor	 eax, eax
  00087	33 cd		 xor	 ecx, ebp
  00089	5b		 pop	 ebx
  0008a	e8 00 00 00 00	 call	 @__security_check_cookie@4
  0008f	8b e5		 mov	 esp, ebp
  00091	5d		 pop	 ebp
  00092	c2 08 00	 ret	 8
?GetGraphBlockRegion@CMousePositionExportingAddInImp@@IAEHVCPoint@@@Z ENDP ; CMousePositionExportingAddInImp::GetGraphBlockRegion
_TEXT	ENDS
; Function compile flags: /Ogtp
; File D:\git\src\IBK\IBK_DRFN\ProjSrc\SrcChartEx\ChartOCX\AddInManager\ChartCommonAddIn\MousePositionExportingAddInImp.cpp
;	COMDAT ?GetIBlock@CMousePositionExportingAddInImp@@IAEHVCPoint@@@Z
_TEXT	SEGMENT
_nRow$ = -8						; size = 4
_nColumn$ = -4						; size = 4
_ptPoint$ = 8						; size = 8
?GetIBlock@CMousePositionExportingAddInImp@@IAEHVCPoint@@@Z PROC ; CMousePositionExportingAddInImp::GetIBlock, COMDAT
; _this$ = ecx

; 168  : {

  00000	55		 push	 ebp
  00001	8b ec		 mov	 ebp, esp
  00003	83 ec 08	 sub	 esp, 8

; 169  : 	// 1. Mouse Point  Row, Column .
; 170  : 	int nRow, nColumn;
; 171  : 	if( !m_pIChartManager->GetBlockIndex( ptPoint, nRow, nColumn))

  00006	8d 55 fc	 lea	 edx, DWORD PTR _nColumn$[ebp]
  00009	56		 push	 esi
  0000a	8b f1		 mov	 esi, ecx
  0000c	52		 push	 edx
  0000d	8d 55 f8	 lea	 edx, DWORD PTR _nRow$[ebp]
  00010	52		 push	 edx
  00011	8b 4e 24	 mov	 ecx, DWORD PTR [esi+36]
  00014	ff 75 0c	 push	 DWORD PTR _ptPoint$[ebp+4]
  00017	ff 75 08	 push	 DWORD PTR _ptPoint$[ebp]
  0001a	8b 01		 mov	 eax, DWORD PTR [ecx]
  0001c	ff 90 8c 00 00
	00		 call	 DWORD PTR [eax+140]
  00022	85 c0		 test	 eax, eax
  00024	74 3e		 je	 SHORT $LN6@GetIBlock

; 172  : 		return FALSE;
; 173  : 
; 174  : 	if( m_pIBlock )

  00026	8b 8e 88 00 00
	00		 mov	 ecx, DWORD PTR [esi+136]
  0002c	85 c9		 test	 ecx, ecx
  0002e	74 10		 je	 SHORT $LN3@GetIBlock

; 175  : 	{
; 176  : 		m_pIBlock->Release();

  00030	8b 01		 mov	 eax, DWORD PTR [ecx]
  00032	51		 push	 ecx
  00033	ff 50 08	 call	 DWORD PTR [eax+8]

; 177  : 		m_pIBlock= NULL;

  00036	c7 86 88 00 00
	00 00 00 00 00	 mov	 DWORD PTR [esi+136], 0
$LN3@GetIBlock:

; 178  : 	}
; 179  : 
; 180  : 	// 2. Row, Column Block .
; 181  : 	m_pIBlock = m_pIChartManager->GetBlock( nRow, nColumn );

  00040	8b 4e 24	 mov	 ecx, DWORD PTR [esi+36]
  00043	ff 75 fc	 push	 DWORD PTR _nColumn$[ebp]
  00046	ff 75 f8	 push	 DWORD PTR _nRow$[ebp]
  00049	8b 01		 mov	 eax, DWORD PTR [ecx]
  0004b	ff 50 38	 call	 DWORD PTR [eax+56]
  0004e	89 86 88 00 00
	00		 mov	 DWORD PTR [esi+136], eax

; 182  : 	if( !m_pIBlock )

  00054	85 c0		 test	 eax, eax
  00056	74 0c		 je	 SHORT $LN6@GetIBlock

; 184  : 
; 185  : 	return TRUE;

  00058	b8 01 00 00 00	 mov	 eax, 1
  0005d	5e		 pop	 esi

; 186  : }

  0005e	8b e5		 mov	 esp, ebp
  00060	5d		 pop	 ebp
  00061	c2 08 00	 ret	 8
$LN6@GetIBlock:

; 183  : 		return FALSE;

  00064	33 c0		 xor	 eax, eax
  00066	5e		 pop	 esi

; 186  : }

  00067	8b e5		 mov	 esp, ebp
  00069	5d		 pop	 ebp
  0006a	c2 08 00	 ret	 8
?GetIBlock@CMousePositionExportingAddInImp@@IAEHVCPoint@@@Z ENDP ; CMousePositionExportingAddInImp::GetIBlock
_TEXT	ENDS
; Function compile flags: /Ogtp
; File D:\git\src\IBK\IBK_DRFN\ProjSrc\SrcChartEx\ChartOCX\AddInManager\ChartCommonAddIn\MousePositionExportingAddInImp.cpp
; File D:\git\src\IBK\IBK_DRFN\ProjSrc\SrcChartEx\ChartOCX\AddInManager\Include_AddIn\I000000\_IString.h
; File D:\git\src\IBK\IBK_DRFN\ProjSrc\SrcChartEx\ChartOCX\AddInManager\ChartCommonAddIn\MousePositionExportingAddInImp.cpp
; File D:\git\src\IBK\IBK_DRFN\ProjSrc\SrcChartEx\ChartOCX\AddInManager\Include_AddIn\I000000\_IString.h
; File D:\git\src\IBK\IBK_DRFN\ProjSrc\SrcChartEx\ChartOCX\AddInManager\ChartCommonAddIn\MousePositionExportingAddInImp.cpp
; File D:\git\src\IBK\IBK_DRFN\ProjSrc\SrcChartEx\ChartOCX\AddInManager\Include_AddIn\I000000\_IString.h
; File D:\git\src\IBK\IBK_DRFN\ProjSrc\SrcChartEx\ChartOCX\AddInManager\ChartCommonAddIn\MousePositionExportingAddInImp.cpp
; File C:\Program Files (x86)\Microsoft Visual Studio\2019\Community\VC\Tools\MSVC\14.29.30133\atlmfc\include\atlsimpstr.h
; File D:\git\src\IBK\IBK_DRFN\ProjSrc\SrcChartEx\ChartOCX\AddInManager\ChartCommonAddIn\MousePositionExportingAddInImp.cpp
; File C:\Program Files (x86)\Microsoft Visual Studio\2019\Community\VC\Tools\MSVC\14.29.30133\atlmfc\include\atlsimpstr.h
; File D:\git\src\IBK\IBK_DRFN\ProjSrc\SrcChartEx\ChartOCX\AddInManager\ChartCommonAddIn\MousePositionExportingAddInImp.cpp
; File C:\Program Files (x86)\Microsoft Visual Studio\2019\Community\VC\Tools\MSVC\14.29.30133\atlmfc\include\atlsimpstr.h
; File D:\git\src\IBK\IBK_DRFN\ProjSrc\SrcChartEx\ChartOCX\AddInManager\ChartCommonAddIn\MousePositionExportingAddInImp.cpp
; File C:\Program Files (x86)\Microsoft Visual Studio\2019\Community\VC\Tools\MSVC\14.29.30133\atlmfc\include\cstringt.h
; File D:\git\src\IBK\IBK_DRFN\ProjSrc\SrcChartEx\ChartOCX\AddInManager\ChartCommonAddIn\MousePositionExportingAddInImp.cpp
; File C:\Program Files (x86)\Microsoft Visual Studio\2019\Community\VC\Tools\MSVC\14.29.30133\atlmfc\include\cstringt.h
; File C:\Program Files (x86)\Microsoft Visual Studio\2019\Community\VC\Tools\MSVC\14.29.30133\atlmfc\include\atlsimpstr.h
; File C:\Program Files (x86)\Microsoft Visual Studio\2019\Community\VC\Tools\MSVC\14.29.30133\atlmfc\include\cstringt.h
; File D:\git\src\IBK\IBK_DRFN\ProjSrc\SrcChartEx\ChartOCX\AddInManager\ChartCommonAddIn\MousePositionExportingAddInImp.cpp
; File C:\Program Files (x86)\Microsoft Visual Studio\2019\Community\VC\Tools\MSVC\14.29.30133\atlmfc\include\atlsimpstr.h
; File D:\git\src\IBK\IBK_DRFN\ProjSrc\SrcChartEx\ChartOCX\AddInManager\ChartCommonAddIn\MousePositionExportingAddInImp.cpp
; File C:\Program Files (x86)\Microsoft Visual Studio\2019\Community\VC\Tools\MSVC\14.29.30133\atlmfc\include\atlsimpstr.h
; File D:\git\src\IBK\IBK_DRFN\ProjSrc\SrcChartEx\ChartOCX\AddInManager\ChartCommonAddIn\MousePositionExportingAddInImp.cpp
; File C:\Program Files (x86)\Microsoft Visual Studio\2019\Community\VC\Tools\MSVC\14.29.30133\atlmfc\include\atlsimpstr.h
; File D:\git\src\IBK\IBK_DRFN\ProjSrc\SrcChartEx\ChartOCX\AddInManager\ChartCommonAddIn\MousePositionExportingAddInImp.cpp
; File C:\Program Files (x86)\Microsoft Visual Studio\2019\Community\VC\Tools\MSVC\14.29.30133\atlmfc\include\atlsimpstr.h
; File D:\git\src\IBK\IBK_DRFN\ProjSrc\SrcChartEx\ChartOCX\AddInManager\ChartCommonAddIn\MousePositionExportingAddInImp.cpp
; File D:\git\src\IBK\IBK_DRFN\ProjSrc\SrcChartEx\ChartOCX\Include_Chart\Dll_Load\IMetaTable.h
; File D:\git\src\IBK\IBK_DRFN\ProjSrc\SrcChartEx\ChartOCX\AddInManager\ChartCommonAddIn\MousePositionExportingAddInImp.cpp
; File D:\git\src\IBK\IBK_DRFN\ProjSrc\SrcChartEx\ChartOCX\Include_Chart\Dll_Load\IMetaTable.h
; File C:\Program Files (x86)\Microsoft Visual Studio\2019\Community\VC\Tools\MSVC\14.29.30133\atlmfc\include\afxwin1.inl
; File D:\git\src\IBK\IBK_DRFN\ProjSrc\SrcChartEx\ChartOCX\Include_Chart\Dll_Load\IMetaTable.h
; File C:\Program Files (x86)\Microsoft Visual Studio\2019\Community\VC\Tools\MSVC\14.29.30133\atlmfc\include\afxwin1.inl
; File D:\git\src\IBK\IBK_DRFN\ProjSrc\SrcChartEx\ChartOCX\AddInManager\ChartCommonAddIn\MousePositionExportingAddInImp.cpp
; File C:\Program Files (x86)\Microsoft Visual Studio\2019\Community\VC\Tools\MSVC\14.29.30133\atlmfc\include\atlsimpstr.h
; File C:\Program Files (x86)\Microsoft Visual Studio\2019\Community\VC\Tools\MSVC\14.29.30133\atlmfc\include\cstringt.h
; File D:\git\src\IBK\IBK_DRFN\ProjSrc\SrcChartEx\ChartOCX\AddInManager\ChartCommonAddIn\MousePositionExportingAddInImp.cpp
; File C:\Program Files (x86)\Microsoft Visual Studio\2019\Community\VC\Tools\MSVC\14.29.30133\atlmfc\include\cstringt.h
; File D:\git\src\IBK\IBK_DRFN\ProjSrc\SrcChartEx\ChartOCX\AddInManager\ChartCommonAddIn\MousePositionExportingAddInImp.cpp
; File C:\Program Files (x86)\Microsoft Visual Studio\2019\Community\VC\Tools\MSVC\14.29.30133\atlmfc\include\cstringt.h
; File C:\Program Files (x86)\Microsoft Visual Studio\2019\Community\VC\Tools\MSVC\14.29.30133\atlmfc\include\atlsimpstr.h
; File C:\Program Files (x86)\Microsoft Visual Studio\2019\Community\VC\Tools\MSVC\14.29.30133\atlmfc\include\cstringt.h
; File D:\git\src\IBK\IBK_DRFN\ProjSrc\SrcChartEx\ChartOCX\AddInManager\ChartCommonAddIn\MousePositionExportingAddInImp.cpp
; File C:\Program Files (x86)\Microsoft Visual Studio\2019\Community\VC\Tools\MSVC\14.29.30133\atlmfc\include\cstringt.h
; File D:\git\src\IBK\IBK_DRFN\ProjSrc\SrcChartEx\ChartOCX\AddInManager\ChartCommonAddIn\MousePositionExportingAddInImp.cpp
; File C:\Program Files (x86)\Microsoft Visual Studio\2019\Community\VC\Tools\MSVC\14.29.30133\atlmfc\include\cstringt.h
; File C:\Program Files (x86)\Microsoft Visual Studio\2019\Community\VC\Tools\MSVC\14.29.30133\atlmfc\include\atlsimpstr.h
; File C:\Program Files (x86)\Microsoft Visual Studio\2019\Community\VC\Tools\MSVC\14.29.30133\atlmfc\include\cstringt.h
; File C:\Program Files (x86)\Microsoft Visual Studio\2019\Community\VC\Tools\MSVC\14.29.30133\atlmfc\include\atlsimpstr.h
; File C:\Program Files (x86)\Microsoft Visual Studio\2019\Community\VC\Tools\MSVC\14.29.30133\atlmfc\include\cstringt.h
; File D:\git\src\IBK\IBK_DRFN\ProjSrc\SrcChartEx\ChartOCX\AddInManager\ChartCommonAddIn\MousePositionExportingAddInImp.cpp
; File C:\Program Files (x86)\Microsoft Visual Studio\2019\Community\VC\Tools\MSVC\14.29.30133\atlmfc\include\cstringt.h
; File D:\git\src\IBK\IBK_DRFN\ProjSrc\SrcChartEx\ChartOCX\AddInManager\ChartCommonAddIn\MousePositionExportingAddInImp.cpp
; File C:\Program Files (x86)\Microsoft Visual Studio\2019\Community\VC\Tools\MSVC\14.29.30133\atlmfc\include\cstringt.h
; File C:\Program Files (x86)\Microsoft Visual Studio\2019\Community\VC\Tools\MSVC\14.29.30133\atlmfc\include\atlsimpstr.h
; File C:\Program Files (x86)\Microsoft Visual Studio\2019\Community\VC\Tools\MSVC\14.29.30133\atlmfc\include\cstringt.h
; File C:\Program Files (x86)\Microsoft Visual Studio\2019\Community\VC\Tools\MSVC\14.29.30133\atlmfc\include\atlsimpstr.h
; File C:\Program Files (x86)\Microsoft Visual Studio\2019\Community\VC\Tools\MSVC\14.29.30133\atlmfc\include\cstringt.h
; File D:\git\src\IBK\IBK_DRFN\ProjSrc\SrcChartEx\ChartOCX\AddInManager\ChartCommonAddIn\MousePositionExportingAddInImp.cpp
; File C:\Program Files (x86)\Microsoft Visual Studio\2019\Community\VC\Tools\MSVC\14.29.30133\atlmfc\include\cstringt.h
; File D:\git\src\IBK\IBK_DRFN\ProjSrc\SrcChartEx\ChartOCX\AddInManager\ChartCommonAddIn\MousePositionExportingAddInImp.cpp
; File C:\Program Files (x86)\Microsoft Visual Studio\2019\Community\VC\Tools\MSVC\14.29.30133\atlmfc\include\cstringt.h
; File C:\Program Files (x86)\Microsoft Visual Studio\2019\Community\VC\Tools\MSVC\14.29.30133\atlmfc\include\atlsimpstr.h
; File C:\Program Files (x86)\Microsoft Visual Studio\2019\Community\VC\Tools\MSVC\14.29.30133\atlmfc\include\cstringt.h
; File C:\Program Files (x86)\Microsoft Visual Studio\2019\Community\VC\Tools\MSVC\14.29.30133\atlmfc\include\atlsimpstr.h
; File C:\Program Files (x86)\Microsoft Visual Studio\2019\Community\VC\Tools\MSVC\14.29.30133\atlmfc\include\cstringt.h
; File D:\git\src\IBK\IBK_DRFN\ProjSrc\SrcChartEx\ChartOCX\AddInManager\ChartCommonAddIn\MousePositionExportingAddInImp.cpp
; File C:\Program Files (x86)\Microsoft Visual Studio\2019\Community\VC\Tools\MSVC\14.29.30133\atlmfc\include\cstringt.h
; File D:\git\src\IBK\IBK_DRFN\ProjSrc\SrcChartEx\ChartOCX\AddInManager\ChartCommonAddIn\MousePositionExportingAddInImp.cpp
; File C:\Program Files (x86)\Microsoft Visual Studio\2019\Community\VC\Tools\MSVC\14.29.30133\atlmfc\include\cstringt.h
; File C:\Program Files (x86)\Microsoft Visual Studio\2019\Community\VC\Tools\MSVC\14.29.30133\atlmfc\include\atlsimpstr.h
; File C:\Program Files (x86)\Microsoft Visual Studio\2019\Community\VC\Tools\MSVC\14.29.30133\atlmfc\include\cstringt.h
; File C:\Program Files (x86)\Microsoft Visual Studio\2019\Community\VC\Tools\MSVC\14.29.30133\atlmfc\include\atlsimpstr.h
; File C:\Program Files (x86)\Microsoft Visual Studio\2019\Community\VC\Tools\MSVC\14.29.30133\atlmfc\include\cstringt.h
; File D:\git\src\IBK\IBK_DRFN\ProjSrc\SrcChartEx\ChartOCX\AddInManager\ChartCommonAddIn\MousePositionExportingAddInImp.cpp
; File C:\Program Files (x86)\Microsoft Visual Studio\2019\Community\VC\Tools\MSVC\14.29.30133\atlmfc\include\cstringt.h
; File D:\git\src\IBK\IBK_DRFN\ProjSrc\SrcChartEx\ChartOCX\AddInManager\ChartCommonAddIn\MousePositionExportingAddInImp.cpp
; File C:\Program Files (x86)\Microsoft Visual Studio\2019\Community\VC\Tools\MSVC\14.29.30133\atlmfc\include\cstringt.h
; File C:\Program Files (x86)\Microsoft Visual Studio\2019\Community\VC\Tools\MSVC\14.29.30133\atlmfc\include\atlsimpstr.h
; File C:\Program Files (x86)\Microsoft Visual Studio\2019\Community\VC\Tools\MSVC\14.29.30133\atlmfc\include\cstringt.h
; File C:\Program Files (x86)\Microsoft Visual Studio\2019\Community\VC\Tools\MSVC\14.29.30133\atlmfc\include\atlsimpstr.h
; File C:\Program Files (x86)\Microsoft Visual Studio\2019\Community\VC\Tools\MSVC\14.29.30133\atlmfc\include\cstringt.h
; File D:\git\src\IBK\IBK_DRFN\ProjSrc\SrcChartEx\ChartOCX\AddInManager\ChartCommonAddIn\MousePositionExportingAddInImp.cpp
; File C:\Program Files (x86)\Microsoft Visual Studio\2019\Community\VC\Tools\MSVC\14.29.30133\atlmfc\include\cstringt.h
; File D:\git\src\IBK\IBK_DRFN\ProjSrc\SrcChartEx\ChartOCX\AddInManager\ChartCommonAddIn\MousePositionExportingAddInImp.cpp
; File C:\Program Files (x86)\Microsoft Visual Studio\2019\Community\VC\Tools\MSVC\14.29.30133\atlmfc\include\cstringt.h
; File C:\Program Files (x86)\Microsoft Visual Studio\2019\Community\VC\Tools\MSVC\14.29.30133\atlmfc\include\atlsimpstr.h
; File C:\Program Files (x86)\Microsoft Visual Studio\2019\Community\VC\Tools\MSVC\14.29.30133\atlmfc\include\cstringt.h
; File C:\Program Files (x86)\Microsoft Visual Studio\2019\Community\VC\Tools\MSVC\14.29.30133\atlmfc\include\atlsimpstr.h
; File C:\Program Files (x86)\Microsoft Visual Studio\2019\Community\VC\Tools\MSVC\14.29.30133\atlmfc\include\cstringt.h
; File D:\git\src\IBK\IBK_DRFN\ProjSrc\SrcChartEx\ChartOCX\AddInManager\ChartCommonAddIn\MousePositionExportingAddInImp.cpp
; File C:\Program Files (x86)\Microsoft Visual Studio\2019\Community\VC\Tools\MSVC\14.29.30133\atlmfc\include\cstringt.h
; File D:\git\src\IBK\IBK_DRFN\ProjSrc\SrcChartEx\ChartOCX\AddInManager\ChartCommonAddIn\MousePositionExportingAddInImp.cpp
; File C:\Program Files (x86)\Microsoft Visual Studio\2019\Community\VC\Tools\MSVC\14.29.30133\atlmfc\include\cstringt.h
; File D:\git\src\IBK\IBK_DRFN\ProjSrc\SrcChartEx\ChartOCX\AddInManager\ChartCommonAddIn\MousePositionExportingAddInImp.cpp
; File C:\Program Files (x86)\Microsoft Visual Studio\2019\Community\VC\Tools\MSVC\14.29.30133\atlmfc\include\cstringt.h
; File D:\git\src\IBK\IBK_DRFN\ProjSrc\SrcChartEx\ChartOCX\AddInManager\ChartCommonAddIn\MousePositionExportingAddInImp.cpp
; File C:\Program Files (x86)\Microsoft Visual Studio\2019\Community\VC\Tools\MSVC\14.29.30133\atlmfc\include\cstringt.h
; File D:\git\src\IBK\IBK_DRFN\ProjSrc\SrcChartEx\ChartOCX\AddInManager\ChartCommonAddIn\MousePositionExportingAddInImp.cpp
; File C:\Program Files (x86)\Microsoft Visual Studio\2019\Community\VC\Tools\MSVC\14.29.30133\atlmfc\include\cstringt.h
; File D:\git\src\IBK\IBK_DRFN\ProjSrc\SrcChartEx\ChartOCX\AddInManager\ChartCommonAddIn\MousePositionExportingAddInImp.cpp
; File C:\Program Files (x86)\Microsoft Visual Studio\2019\Community\VC\Tools\MSVC\14.29.30133\atlmfc\include\cstringt.h
; File D:\git\src\IBK\IBK_DRFN\ProjSrc\SrcChartEx\ChartOCX\AddInManager\ChartCommonAddIn\MousePositionExportingAddInImp.cpp
; File C:\Program Files (x86)\Microsoft Visual Studio\2019\Community\VC\Tools\MSVC\14.29.30133\atlmfc\include\cstringt.h
; File D:\git\src\IBK\IBK_DRFN\ProjSrc\SrcChartEx\ChartOCX\AddInManager\ChartCommonAddIn\MousePositionExportingAddInImp.cpp
; File C:\Program Files (x86)\Microsoft Visual Studio\2019\Community\VC\Tools\MSVC\14.29.30133\atlmfc\include\cstringt.h
; File D:\git\src\IBK\IBK_DRFN\ProjSrc\SrcChartEx\ChartOCX\AddInManager\ChartCommonAddIn\MousePositionExportingAddInImp.cpp
; File C:\Program Files (x86)\Microsoft Visual Studio\2019\Community\VC\Tools\MSVC\14.29.30133\atlmfc\include\cstringt.h
; File D:\git\src\IBK\IBK_DRFN\ProjSrc\SrcChartEx\ChartOCX\AddInManager\ChartCommonAddIn\MousePositionExportingAddInImp.cpp
; File C:\Program Files (x86)\Microsoft Visual Studio\2019\Community\VC\Tools\MSVC\14.29.30133\atlmfc\include\cstringt.h
; File D:\git\src\IBK\IBK_DRFN\ProjSrc\SrcChartEx\ChartOCX\AddInManager\ChartCommonAddIn\MousePositionExportingAddInImp.cpp
; File C:\Program Files (x86)\Microsoft Visual Studio\2019\Community\VC\Tools\MSVC\14.29.30133\atlmfc\include\cstringt.h
; File C:\Program Files (x86)\Microsoft Visual Studio\2019\Community\VC\Tools\MSVC\14.29.30133\atlmfc\include\atlsimpstr.h
; File C:\Program Files (x86)\Microsoft Visual Studio\2019\Community\VC\Tools\MSVC\14.29.30133\atlmfc\include\cstringt.h
; File C:\Program Files (x86)\Microsoft Visual Studio\2019\Community\VC\Tools\MSVC\14.29.30133\atlmfc\include\atlsimpstr.h
; File C:\Program Files (x86)\Microsoft Visual Studio\2019\Community\VC\Tools\MSVC\14.29.30133\atlmfc\include\cstringt.h
; File D:\git\src\IBK\IBK_DRFN\ProjSrc\SrcChartEx\ChartOCX\AddInManager\ChartCommonAddIn\MousePositionExportingAddInImp.cpp
; File C:\Program Files (x86)\Microsoft Visual Studio\2019\Community\VC\Tools\MSVC\14.29.30133\atlmfc\include\cstringt.h
; File D:\git\src\IBK\IBK_DRFN\ProjSrc\SrcChartEx\ChartOCX\AddInManager\ChartCommonAddIn\MousePositionExportingAddInImp.cpp
; File C:\Program Files (x86)\Microsoft Visual Studio\2019\Community\VC\Tools\MSVC\14.29.30133\atlmfc\include\cstringt.h
; File C:\Program Files (x86)\Microsoft Visual Studio\2019\Community\VC\Tools\MSVC\14.29.30133\atlmfc\include\atlsimpstr.h
; File C:\Program Files (x86)\Microsoft Visual Studio\2019\Community\VC\Tools\MSVC\14.29.30133\atlmfc\include\cstringt.h
; File D:\git\src\IBK\IBK_DRFN\ProjSrc\SrcChartEx\ChartOCX\AddInManager\ChartCommonAddIn\MousePositionExportingAddInImp.cpp
; File D:\git\src\IBK\IBK_DRFN\ProjSrc\SrcChartEx\ChartOCX\Include_Chart\Dll_Load\IMetaTable.h
; File C:\Program Files (x86)\Microsoft Visual Studio\2019\Community\VC\Tools\MSVC\14.29.30133\atlmfc\include\afxwin1.inl
; File D:\git\src\IBK\IBK_DRFN\ProjSrc\SrcChartEx\ChartOCX\AddInManager\ChartCommonAddIn\MousePositionExportingAddInImp.cpp
; File C:\Program Files (x86)\Microsoft Visual Studio\2019\Community\VC\Tools\MSVC\14.29.30133\atlmfc\include\afxwin1.inl
; File D:\git\src\IBK\IBK_DRFN\ProjSrc\SrcChartEx\ChartOCX\AddInManager\ChartCommonAddIn\MousePositionExportingAddInImp.cpp
;	COMDAT ?GetStringfromDataIdx@CMousePositionExportingAddInImp@@IAEHH@Z
_TEXT	SEGMENT
_szTimeCompart$2 = -116					; size = 8
___mlrs__$ = -112					; size = 4
_szDateCompart$3 = -108					; size = 8
___mlrs__$1$ = -104					; size = 4
tv1709 = -100						; size = 4
tv1708 = -96						; size = 4
_nPacketTypeLength$1$ = -92				; size = 4
_p2$1$ = -88						; size = 4
$T4 = -88						; size = 4
$T5 = -88						; size = 4
_str1$1$ = -84						; size = 4
$T6 = -84						; size = 4
$T7 = -80						; size = 4
$T8 = -76						; size = 4
$T9 = -72						; size = 4
$T10 = -68						; size = 4
$T11 = -64						; size = 4
$T12 = -60						; size = 4
$T13 = -56						; size = 4
$T14 = -56						; size = 4
_bIsMonth$1$ = -52					; size = 4
_this$1$ = -52						; size = 4
tv1717 = -48						; size = 4
tv1716 = -44						; size = 4
_nIdx$1$ = -40						; size = 4
_szXScaleOriginalData$ = -36				; size = 4
_strCompartment$ = -32					; size = 4
$T15 = -28						; size = 4
_strComp$16 = -24					; size = 4
_strPacketChar$ = -20					; size = 4
_chTemp$17 = -14					; size = 1
_chTemp$18 = -13					; size = 1
__$EHRec$ = -12						; size = 12
_nDataIdx$ = 8						; size = 4
?GetStringfromDataIdx@CMousePositionExportingAddInImp@@IAEHH@Z PROC ; CMousePositionExportingAddInImp::GetStringfromDataIdx, COMDAT
; _this$ = ecx

; 316  : {

  00000	55		 push	 ebp
  00001	8b ec		 mov	 ebp, esp
  00003	6a ff		 push	 -1
  00005	68 00 00 00 00	 push	 __ehhandler$?GetStringfromDataIdx@CMousePositionExportingAddInImp@@IAEHH@Z
  0000a	64 a1 00 00 00
	00		 mov	 eax, DWORD PTR fs:0
  00010	50		 push	 eax
  00011	83 ec 68	 sub	 esp, 104		; 00000068H
  00014	53		 push	 ebx
  00015	56		 push	 esi
  00016	57		 push	 edi
  00017	a1 00 00 00 00	 mov	 eax, DWORD PTR ___security_cookie
  0001c	33 c5		 xor	 eax, ebp
  0001e	50		 push	 eax
  0001f	8d 45 f4	 lea	 eax, DWORD PTR __$EHRec$[ebp]
  00022	64 a3 00 00 00
	00		 mov	 DWORD PTR fs:0, eax
  00028	8b d9		 mov	 ebx, ecx
  0002a	89 5d cc	 mov	 DWORD PTR _this$1$[ebp], ebx
  0002d	33 ff		 xor	 edi, edi
  0002f	89 7d e4	 mov	 DWORD PTR $T15[ebp], edi

; 317  : 	if( !m_bPacketTypeIsString )

  00032	39 bb 8c 00 00
	00		 cmp	 DWORD PTR [ebx+140], edi
  00038	0f 85 83 00 00
	00		 jne	 $LN67@GetStringf

; 319  : 		ILPCSTR szDateCompart = m_pIBlock->GetDateCompart();

  0003e	8b 8b 88 00 00
	00		 mov	 ecx, DWORD PTR [ebx+136]
  00044	8b 01		 mov	 eax, DWORD PTR [ecx]
  00046	ff 50 70	 call	 DWORD PTR [eax+112]
; File D:\git\src\IBK\IBK_DRFN\ProjSrc\SrcChartEx\ChartOCX\AddInManager\Include_AddIn\I000000\_IString.h

; 39   : 		m_pIStrData = p_pIString;	// Do not AddRef(). Because It must be Return Value.

  00049	8b f0		 mov	 esi, eax
  0004b	89 75 98	 mov	 DWORD PTR _szDateCompart$3[ebp+4], esi

; 40   : 		if( m_pIStrData) m_szData = m_pIStrData->GetData();

  0004e	85 f6		 test	 esi, esi
  00050	74 09		 je	 SHORT $LN55@GetStringf
  00052	8b 16		 mov	 edx, DWORD PTR [esi]
  00054	8b ce		 mov	 ecx, esi
  00056	ff 52 10	 call	 DWORD PTR [edx+16]
  00059	eb 02		 jmp	 SHORT $LN335@GetStringf
$LN55@GetStringf:

; 41   : 		else m_szData = NULL;

  0005b	33 c0		 xor	 eax, eax
$LN335@GetStringf:
; File D:\git\src\IBK\IBK_DRFN\ProjSrc\SrcChartEx\ChartOCX\AddInManager\ChartCommonAddIn\MousePositionExportingAddInImp.cpp

; 319  : 		ILPCSTR szDateCompart = m_pIBlock->GetDateCompart();

  0005d	89 45 94	 mov	 DWORD PTR _szDateCompart$3[ebp], eax

; 320  : 		m_strDateCompartment = szDateCompart;

  00060	50		 push	 eax
  00061	8d 4b 60	 lea	 ecx, DWORD PTR [ebx+96]
  00064	c7 45 fc 00 00
	00 00		 mov	 DWORD PTR __$EHRec$[ebp+8], 0
  0006b	ff 15 00 00 00
	00		 call	 DWORD PTR __imp_??4?$CStringT@DV?$StrTraitMFC_DLL@DV?$ChTraitsCRT@D@ATL@@@@@ATL@@QAEAAV01@PBD@Z

; 322  : 		ILPCSTR szTimeCompart = m_pIBlock->GetTimeCompart();

  00071	8b 8b 88 00 00
	00		 mov	 ecx, DWORD PTR [ebx+136]
  00077	8b 01		 mov	 eax, DWORD PTR [ecx]
  00079	ff 50 74	 call	 DWORD PTR [eax+116]
; File D:\git\src\IBK\IBK_DRFN\ProjSrc\SrcChartEx\ChartOCX\AddInManager\Include_AddIn\I000000\_IString.h

; 39   : 		m_pIStrData = p_pIString;	// Do not AddRef(). Because It must be Return Value.

  0007c	89 45 90	 mov	 DWORD PTR _szTimeCompart$2[ebp+4], eax

; 40   : 		if( m_pIStrData) m_szData = m_pIStrData->GetData();

  0007f	85 c0		 test	 eax, eax
  00081	74 09		 je	 SHORT $LN59@GetStringf
  00083	8b 10		 mov	 edx, DWORD PTR [eax]
  00085	8b c8		 mov	 ecx, eax
  00087	ff 52 10	 call	 DWORD PTR [edx+16]
  0008a	eb 02		 jmp	 SHORT $LN336@GetStringf
$LN59@GetStringf:

; 41   : 		else m_szData = NULL;

  0008c	33 c0		 xor	 eax, eax
$LN336@GetStringf:
; File D:\git\src\IBK\IBK_DRFN\ProjSrc\SrcChartEx\ChartOCX\AddInManager\ChartCommonAddIn\MousePositionExportingAddInImp.cpp

; 322  : 		ILPCSTR szTimeCompart = m_pIBlock->GetTimeCompart();

  0008e	89 45 8c	 mov	 DWORD PTR _szTimeCompart$2[ebp], eax

; 323  : 		m_strTimeCompartment = szTimeCompart;

  00091	50		 push	 eax
  00092	8d 4b 64	 lea	 ecx, DWORD PTR [ebx+100]
  00095	c6 45 fc 01	 mov	 BYTE PTR __$EHRec$[ebp+8], 1
  00099	ff 15 00 00 00
	00		 call	 DWORD PTR __imp_??4?$CStringT@DV?$StrTraitMFC_DLL@DV?$ChTraitsCRT@D@ATL@@@@@ATL@@QAEAAV01@PBD@Z
; File D:\git\src\IBK\IBK_DRFN\ProjSrc\SrcChartEx\ChartOCX\AddInManager\Include_AddIn\I000000\_IString.h

; 45   : 		if( m_pIStrData)

  0009f	8b 4d 90	 mov	 ecx, DWORD PTR _szTimeCompart$2[ebp+4]
  000a2	c6 45 fc 02	 mov	 BYTE PTR __$EHRec$[ebp+8], 2
  000a6	85 c9		 test	 ecx, ecx
  000a8	74 06		 je	 SHORT $LN63@GetStringf

; 46   : 		{
; 47   : 			m_pIStrData->Release();

  000aa	8b 01		 mov	 eax, DWORD PTR [ecx]
  000ac	51		 push	 ecx
  000ad	ff 50 08	 call	 DWORD PTR [eax+8]
$LN63@GetStringf:

; 44   : 	{

  000b0	c7 45 fc 03 00
	00 00		 mov	 DWORD PTR __$EHRec$[ebp+8], 3

; 45   : 		if( m_pIStrData)

  000b7	85 f6		 test	 esi, esi
  000b9	74 06		 je	 SHORT $LN67@GetStringf

; 46   : 		{
; 47   : 			m_pIStrData->Release();

  000bb	8b 06		 mov	 eax, DWORD PTR [esi]
  000bd	56		 push	 esi
  000be	ff 50 08	 call	 DWORD PTR [eax+8]
$LN67@GetStringf:
; File D:\git\src\IBK\IBK_DRFN\ProjSrc\SrcChartEx\ChartOCX\AddInManager\ChartCommonAddIn\MousePositionExportingAddInImp.cpp

; 326  : 	long lXScaleOriginalData = (long)m_dXScaleOriginalData;

  000c1	f2 0f 2c 73 70	 cvttsd2si esi, QWORD PTR [ebx+112]

; 327  : 	CString szXScaleOriginalData;

  000c6	8d 4d dc	 lea	 ecx, DWORD PTR _szXScaleOriginalData$[ebp]
  000c9	ff 15 00 00 00
	00		 call	 DWORD PTR __imp_??0?$CStringT@DV?$StrTraitMFC_DLL@DV?$ChTraitsCRT@D@ATL@@@@@ATL@@QAE@XZ

; 328  : 	szXScaleOriginalData.Format("%d", lXScaleOriginalData);

  000cf	56		 push	 esi
  000d0	8d 45 dc	 lea	 eax, DWORD PTR _szXScaleOriginalData$[ebp]
  000d3	c7 45 fc 04 00
	00 00		 mov	 DWORD PTR __$EHRec$[ebp+8], 4
  000da	68 00 00 00 00	 push	 OFFSET ??_C@_02DPKJAMEF@?$CFd@
  000df	50		 push	 eax
  000e0	ff 15 00 00 00
	00		 call	 DWORD PTR __imp_?Format@?$CStringT@DV?$StrTraitMFC_DLL@DV?$ChTraitsCRT@D@ATL@@@@@ATL@@QAAXPBDZZ
; File C:\Program Files (x86)\Microsoft Visual Studio\2019\Community\VC\Tools\MSVC\14.29.30133\atlmfc\include\atlsimpstr.h

; 519  : 		return( GetData()->nDataLength );

  000e6	8b 83 80 00 00
	00		 mov	 eax, DWORD PTR [ebx+128]

; 800  : 		return( reinterpret_cast< CStringData* >( m_pszData )-1 );

  000ec	83 eb 80	 sub	 ebx, -128		; ffffff80H
; File D:\git\src\IBK\IBK_DRFN\ProjSrc\SrcChartEx\ChartOCX\AddInManager\ChartCommonAddIn\MousePositionExportingAddInImp.cpp

; 328  : 	szXScaleOriginalData.Format("%d", lXScaleOriginalData);

  000ef	83 c4 0c	 add	 esp, 12			; 0000000cH
; File C:\Program Files (x86)\Microsoft Visual Studio\2019\Community\VC\Tools\MSVC\14.29.30133\atlmfc\include\atlsimpstr.h

; 800  : 		return( reinterpret_cast< CStringData* >( m_pszData )-1 );

  000f2	89 5d a0	 mov	 DWORD PTR tv1708[ebp], ebx

; 519  : 		return( GetData()->nDataLength );

  000f5	8b 48 f4	 mov	 ecx, DWORD PTR [eax-12]
; File D:\git\src\IBK\IBK_DRFN\ProjSrc\SrcChartEx\ChartOCX\AddInManager\ChartCommonAddIn\MousePositionExportingAddInImp.cpp

; 334  : 	for( int i = nPacketTypeLength - szXScaleOriginalData.GetLength() ; i ; i-- )

  000f8	8b f1		 mov	 esi, ecx
; File C:\Program Files (x86)\Microsoft Visual Studio\2019\Community\VC\Tools\MSVC\14.29.30133\atlmfc\include\atlsimpstr.h

; 519  : 		return( GetData()->nDataLength );

  000fa	8b 45 dc	 mov	 eax, DWORD PTR _szXScaleOriginalData$[ebp]
  000fd	89 4d a4	 mov	 DWORD PTR _nPacketTypeLength$1$[ebp], ecx
; File D:\git\src\IBK\IBK_DRFN\ProjSrc\SrcChartEx\ChartOCX\AddInManager\ChartCommonAddIn\MousePositionExportingAddInImp.cpp

; 334  : 	for( int i = nPacketTypeLength - szXScaleOriginalData.GetLength() ; i ; i-- )

  00100	2b 70 f4	 sub	 esi, DWORD PTR [eax-12]
  00103	74 65		 je	 SHORT $LN3@GetStringf
  00105	66 66 66 0f 1f
	84 00 00 00 00
	00		 npad	 11
$LL4@GetStringf:
; File C:\Program Files (x86)\Microsoft Visual Studio\2019\Community\VC\Tools\MSVC\14.29.30133\atlmfc\include\cstringt.h

; 2412 : 		CStringT strResult( str2.GetManager() );

  00110	8d 4d dc	 lea	 ecx, DWORD PTR _szXScaleOriginalData$[ebp]
; File D:\git\src\IBK\IBK_DRFN\ProjSrc\SrcChartEx\ChartOCX\AddInManager\ChartCommonAddIn\MousePositionExportingAddInImp.cpp

; 335  : 		szXScaleOriginalData = "0" + szXScaleOriginalData;

  00113	c6 45 fc 05	 mov	 BYTE PTR __$EHRec$[ebp+8], 5
; File C:\Program Files (x86)\Microsoft Visual Studio\2019\Community\VC\Tools\MSVC\14.29.30133\atlmfc\include\cstringt.h

; 2412 : 		CStringT strResult( str2.GetManager() );

  00117	ff 15 00 00 00
	00		 call	 DWORD PTR __imp_?GetManager@?$CStringT@DV?$StrTraitMFC_DLL@DV?$ChTraitsCRT@D@ATL@@@@@ATL@@QBEPAUIAtlStringMgr@2@XZ
  0011d	50		 push	 eax
  0011e	8d 4d c8	 lea	 ecx, DWORD PTR $T14[ebp]
  00121	ff 15 00 00 00
	00		 call	 DWORD PTR __imp_??0?$CStringT@DV?$StrTraitMFC_DLL@DV?$ChTraitsCRT@D@ATL@@@@@ATL@@QAE@PAUIAtlStringMgr@1@@Z
; File C:\Program Files (x86)\Microsoft Visual Studio\2019\Community\VC\Tools\MSVC\14.29.30133\atlmfc\include\atlsimpstr.h

; 519  : 		return( GetData()->nDataLength );

  00127	8b 45 dc	 mov	 eax, DWORD PTR _szXScaleOriginalData$[ebp]
; File C:\Program Files (x86)\Microsoft Visual Studio\2019\Community\VC\Tools\MSVC\14.29.30133\atlmfc\include\cstringt.h

; 2416 : 		return( strResult );

  0012a	83 cf 01	 or	 edi, 1
  0012d	89 7d e4	 mov	 DWORD PTR $T15[ebp], edi
  00130	ff 70 f4	 push	 DWORD PTR [eax-12]
  00133	50		 push	 eax
  00134	6a 01		 push	 1
  00136	8d 45 c8	 lea	 eax, DWORD PTR $T14[ebp]
  00139	68 00 00 00 00	 push	 OFFSET ??_C@_01GBGANLPD@0@
  0013e	50		 push	 eax
  0013f	ff 15 00 00 00
	00		 call	 DWORD PTR __imp_?Concatenate@?$CSimpleStringT@D$00@ATL@@KAXAAV12@PBDH1H@Z
  00145	83 c4 14	 add	 esp, 20			; 00000014H
; File D:\git\src\IBK\IBK_DRFN\ProjSrc\SrcChartEx\ChartOCX\AddInManager\ChartCommonAddIn\MousePositionExportingAddInImp.cpp

; 335  : 		szXScaleOriginalData = "0" + szXScaleOriginalData;

  00148	8d 45 c8	 lea	 eax, DWORD PTR $T14[ebp]
  0014b	8d 4d dc	 lea	 ecx, DWORD PTR _szXScaleOriginalData$[ebp]
  0014e	50		 push	 eax
  0014f	ff 15 00 00 00
	00		 call	 DWORD PTR __imp_??4?$CStringT@DV?$StrTraitMFC_DLL@DV?$ChTraitsCRT@D@ATL@@@@@ATL@@QAEAAV01@ABV01@@Z
  00155	8d 4d c8	 lea	 ecx, DWORD PTR $T14[ebp]
  00158	c6 45 fc 04	 mov	 BYTE PTR __$EHRec$[ebp+8], 4
  0015c	83 e7 fe	 and	 edi, -2			; fffffffeH
  0015f	ff 15 00 00 00
	00		 call	 DWORD PTR __imp_??1?$CStringT@DV?$StrTraitMFC_DLL@DV?$ChTraitsCRT@D@ATL@@@@@ATL@@QAE@XZ
  00165	83 ee 01	 sub	 esi, 1
  00168	75 a6		 jne	 SHORT $LL4@GetStringf
$LN3@GetStringf:

; 336  : 
; 337  : 	char strChar = m_strPacketType.GetAt(0);

  0016a	6a 00		 push	 0
  0016c	8b cb		 mov	 ecx, ebx
  0016e	ff 15 00 00 00
	00		 call	 DWORD PTR __imp_?GetAt@?$CSimpleStringT@D$00@ATL@@QBEDH@Z

; 338  : 	m_strXScaleFormatedData = szXScaleOriginalData.GetAt(0);

  00174	8b 75 cc	 mov	 esi, DWORD PTR _this$1$[ebp]
  00177	8d 4d dc	 lea	 ecx, DWORD PTR _szXScaleOriginalData$[ebp]
  0017a	83 c6 68	 add	 esi, 104		; 00000068H
  0017d	8a f8		 mov	 bh, al
  0017f	6a 00		 push	 0
  00181	89 75 ac	 mov	 DWORD PTR _str1$1$[ebp], esi
  00184	ff 15 00 00 00
	00		 call	 DWORD PTR __imp_?GetAt@?$CSimpleStringT@D$00@ATL@@QBEDH@Z
  0018a	0f b6 c8	 movzx	 ecx, al
  0018d	51		 push	 ecx
  0018e	8b ce		 mov	 ecx, esi
  00190	ff 15 00 00 00
	00		 call	 DWORD PTR __imp_??4?$CStringT@DV?$StrTraitMFC_DLL@DV?$ChTraitsCRT@D@ATL@@@@@ATL@@QAEAAV01@D@Z

; 339  : 
; 340  : 	// 5. XScale    Type .
; 341  : 	CString strCompartment = m_strDateCompartment;

  00196	8b 75 cc	 mov	 esi, DWORD PTR _this$1$[ebp]
  00199	8d 4d e0	 lea	 ecx, DWORD PTR _strCompartment$[ebp]
  0019c	83 c6 60	 add	 esi, 96			; 00000060H
  0019f	56		 push	 esi
  001a0	ff 15 00 00 00
	00		 call	 DWORD PTR __imp_??0?$CStringT@DV?$StrTraitMFC_DLL@DV?$ChTraitsCRT@D@ATL@@@@@ATL@@QAE@ABV01@@Z
; File C:\Program Files (x86)\Microsoft Visual Studio\2019\Community\VC\Tools\MSVC\14.29.30133\atlmfc\include\atlsimpstr.h

; 519  : 		return( GetData()->nDataLength );

  001a6	8b 06		 mov	 eax, DWORD PTR [esi]
; File D:\git\src\IBK\IBK_DRFN\ProjSrc\SrcChartEx\ChartOCX\AddInManager\ChartCommonAddIn\MousePositionExportingAddInImp.cpp

; 348  : 	CString strPacketChar = "";

  001a8	8d 4d ec	 lea	 ecx, DWORD PTR _strPacketChar$[ebp]
; File C:\Program Files (x86)\Microsoft Visual Studio\2019\Community\VC\Tools\MSVC\14.29.30133\atlmfc\include\atlsimpstr.h

; 800  : 		return( reinterpret_cast< CStringData* >( m_pszData )-1 );

  001ab	8b 75 cc	 mov	 esi, DWORD PTR _this$1$[ebp]
; File D:\git\src\IBK\IBK_DRFN\ProjSrc\SrcChartEx\ChartOCX\AddInManager\ChartCommonAddIn\MousePositionExportingAddInImp.cpp

; 348  : 	CString strPacketChar = "";

  001ae	68 00 00 00 00	 push	 OFFSET ??_C@_00CNPNBAHC@@
  001b3	c6 45 fc 06	 mov	 BYTE PTR __$EHRec$[ebp+8], 6
; File C:\Program Files (x86)\Microsoft Visual Studio\2019\Community\VC\Tools\MSVC\14.29.30133\atlmfc\include\atlsimpstr.h

; 519  : 		return( GetData()->nDataLength );

  001b7	8b 40 f4	 mov	 eax, DWORD PTR [eax-12]
  001ba	89 45 d0	 mov	 DWORD PTR tv1717[ebp], eax

; 800  : 		return( reinterpret_cast< CStringData* >( m_pszData )-1 );

  001bd	8d 46 64	 lea	 eax, DWORD PTR [esi+100]
  001c0	89 45 9c	 mov	 DWORD PTR tv1709[ebp], eax

; 519  : 		return( GetData()->nDataLength );

  001c3	8b 00		 mov	 eax, DWORD PTR [eax]
; File D:\git\src\IBK\IBK_DRFN\ProjSrc\SrcChartEx\ChartOCX\AddInManager\ChartCommonAddIn\MousePositionExportingAddInImp.cpp

; 347  : 	BOOL bIsMonth = FALSE;				

  001c5	c7 45 cc 00 00
	00 00		 mov	 DWORD PTR _bIsMonth$1$[ebp], 0
; File C:\Program Files (x86)\Microsoft Visual Studio\2019\Community\VC\Tools\MSVC\14.29.30133\atlmfc\include\atlsimpstr.h

; 519  : 		return( GetData()->nDataLength );

  001cc	8b 40 f4	 mov	 eax, DWORD PTR [eax-12]
  001cf	89 45 d4	 mov	 DWORD PTR tv1716[ebp], eax
; File D:\git\src\IBK\IBK_DRFN\ProjSrc\SrcChartEx\ChartOCX\AddInManager\ChartCommonAddIn\MousePositionExportingAddInImp.cpp

; 348  : 	CString strPacketChar = "";

  001d2	ff 15 00 00 00
	00		 call	 DWORD PTR __imp_??0?$CStringT@DV?$StrTraitMFC_DLL@DV?$ChTraitsCRT@D@ATL@@@@@ATL@@QAE@PBD@Z
  001d8	c6 45 fc 07	 mov	 BYTE PTR __$EHRec$[ebp+8], 7

; 351  : 	ML_SET_LANGUAGE_RES();

  001dc	e8 00 00 00 00	 call	 ?AfxGetStaticModuleState@@YGPAVAFX_MODULE_STATE@@XZ ; AfxGetStaticModuleState
  001e1	8b 76 14	 mov	 esi, DWORD PTR [esi+20]
  001e4	8b 48 08	 mov	 ecx, DWORD PTR [eax+8]
; File D:\git\src\IBK\IBK_DRFN\ProjSrc\SrcChartEx\ChartOCX\Include_Chart\Dll_Load\IMetaTable.h

; 936  : 	DECLARE_FUNCTION2(	LoadResourceDLL,				HMODULE, AfxGetStaticModuleState()->m_hCurrentInstanceHandle, HWND, HMODULE);

  001e7	a1 04 00 00 00	 mov	 eax, DWORD PTR ?g_iMetaTable@@3VIMetaTable@@A+4
; File D:\git\src\IBK\IBK_DRFN\ProjSrc\SrcChartEx\ChartOCX\AddInManager\ChartCommonAddIn\MousePositionExportingAddInImp.cpp

; 351  : 	ML_SET_LANGUAGE_RES();

  001ec	89 4d a8	 mov	 DWORD PTR _p2$1$[ebp], ecx
; File D:\git\src\IBK\IBK_DRFN\ProjSrc\SrcChartEx\ChartOCX\Include_Chart\Dll_Load\IMetaTable.h

; 936  : 	DECLARE_FUNCTION2(	LoadResourceDLL,				HMODULE, AfxGetStaticModuleState()->m_hCurrentInstanceHandle, HWND, HMODULE);

  001ef	85 c0		 test	 eax, eax
  001f1	74 4c		 je	 SHORT $LN102@GetStringf
  001f3	ba 80 0d 00 00	 mov	 edx, 3456		; 00000d80H
  001f8	66 3b 15 94 00
	00 00		 cmp	 dx, WORD PTR ?g_iMetaTable@@3VIMetaTable@@A+148
  001ff	74 2c		 je	 SHORT $LN329@GetStringf
  00201	68 00 00 00 00	 push	 OFFSET ??_C@_0BA@ENJOCHIO@LoadResourceDLL@
  00206	50		 push	 eax
  00207	c7 05 90 00 00
	00 00 00 00 00	 mov	 DWORD PTR ?g_iMetaTable@@3VIMetaTable@@A+144, 0
  00211	ff 15 00 00 00
	00		 call	 DWORD PTR __imp__GetProcAddress@8
  00217	b9 80 0d 00 00	 mov	 ecx, 3456		; 00000d80H
  0021c	a3 90 00 00 00	 mov	 DWORD PTR ?g_iMetaTable@@3VIMetaTable@@A+144, eax
  00221	66 89 0d 94 00
	00 00		 mov	 WORD PTR ?g_iMetaTable@@3VIMetaTable@@A+148, cx
  00228	8b 4d a8	 mov	 ecx, DWORD PTR _p2$1$[ebp]
  0022b	eb 05		 jmp	 SHORT $LN101@GetStringf
$LN329@GetStringf:
  0022d	a1 90 00 00 00	 mov	 eax, DWORD PTR ?g_iMetaTable@@3VIMetaTable@@A+144
$LN101@GetStringf:
  00232	85 c0		 test	 eax, eax
  00234	74 09		 je	 SHORT $LN102@GetStringf
  00236	51		 push	 ecx
  00237	56		 push	 esi
  00238	ff d0		 call	 eax
  0023a	83 c4 08	 add	 esp, 8
  0023d	eb 08		 jmp	 SHORT $LN337@GetStringf
$LN102@GetStringf:
  0023f	e8 00 00 00 00	 call	 ?AfxGetStaticModuleState@@YGPAVAFX_MODULE_STATE@@XZ ; AfxGetStaticModuleState
  00244	8b 40 08	 mov	 eax, DWORD PTR [eax+8]
$LN337@GetStringf:
; File C:\Program Files (x86)\Microsoft Visual Studio\2019\Community\VC\Tools\MSVC\14.29.30133\atlmfc\include\afxwin1.inl

; 25   : 		return afxCurrentResourceHandle; }

  00247	89 45 a8	 mov	 DWORD PTR $T4[ebp], eax
  0024a	e8 00 00 00 00	 call	 ?AfxGetModuleState@@YGPAVAFX_MODULE_STATE@@XZ ; AfxGetModuleState
; File D:\git\src\IBK\IBK_DRFN\ProjSrc\SrcChartEx\ChartOCX\Include_Chart\Dll_Load\IMetaTable.h

; 1032 : 		m_hInstance = AfxGetResourceHandle();

  0024f	8b 70 0c	 mov	 esi, DWORD PTR [eax+12]
  00252	89 75 98	 mov	 DWORD PTR ___mlrs__$1$[ebp], esi
  00255	89 75 90	 mov	 DWORD PTR ___mlrs__$[ebp], esi
; File C:\Program Files (x86)\Microsoft Visual Studio\2019\Community\VC\Tools\MSVC\14.29.30133\atlmfc\include\afxwin1.inl

; 27   : 	{ ASSERT(hInstResource != NULL); afxCurrentResourceHandle = hInstResource; }

  00258	e8 00 00 00 00	 call	 ?AfxGetModuleState@@YGPAVAFX_MODULE_STATE@@XZ ; AfxGetModuleState
  0025d	8b 4d a8	 mov	 ecx, DWORD PTR $T4[ebp]
  00260	89 48 0c	 mov	 DWORD PTR [eax+12], ecx
; File D:\git\src\IBK\IBK_DRFN\ProjSrc\SrcChartEx\ChartOCX\AddInManager\ChartCommonAddIn\MousePositionExportingAddInImp.cpp

; 352  : 	for( int nIdx = 1 ; nPacketTypeLength > nIdx ; nIdx++ )

  00263	b8 01 00 00 00	 mov	 eax, 1
  00268	c6 45 fc 08	 mov	 BYTE PTR __$EHRec$[ebp+8], 8
  0026c	89 45 d8	 mov	 DWORD PTR _nIdx$1$[ebp], eax
  0026f	39 45 a4	 cmp	 DWORD PTR _nPacketTypeLength$1$[ebp], eax
  00272	0f 8e 46 05 00
	00		 jle	 $LN6@GetStringf
  00278	8b 75 ac	 mov	 esi, DWORD PTR _str1$1$[ebp]
  0027b	0f 1f 44 00 00	 npad	 5
$LL7@GetStringf:

; 353  : 	{
; 354  : 		strPacketChar = m_strPacketType.GetAt(nIdx);

  00280	8b 4d a0	 mov	 ecx, DWORD PTR tv1708[ebp]
  00283	50		 push	 eax
  00284	ff 15 00 00 00
	00		 call	 DWORD PTR __imp_?GetAt@?$CSimpleStringT@D$00@ATL@@QBEDH@Z
  0028a	0f b6 c0	 movzx	 eax, al
  0028d	8d 4d ec	 lea	 ecx, DWORD PTR _strPacketChar$[ebp]
  00290	50		 push	 eax
  00291	ff 15 00 00 00
	00		 call	 DWORD PTR __imp_??4?$CStringT@DV?$StrTraitMFC_DLL@DV?$ChTraitsCRT@D@ATL@@@@@ATL@@QAEAAV01@D@Z
; File C:\Program Files (x86)\Microsoft Visual Studio\2019\Community\VC\Tools\MSVC\14.29.30133\atlmfc\include\atlsimpstr.h

; 519  : 		return( GetData()->nDataLength );

  00297	8b 45 ec	 mov	 eax, DWORD PTR _strPacketChar$[ebp]
; File C:\Program Files (x86)\Microsoft Visual Studio\2019\Community\VC\Tools\MSVC\14.29.30133\atlmfc\include\cstringt.h

; 2692 : 		return((str2.GetLength() != 1) || (str2[0] != ch1));

  0029a	83 78 f4 01	 cmp	 DWORD PTR [eax-12], 1
  0029e	0f 85 20 03 00
	00		 jne	 $LN112@GetStringf
  002a4	6a 00		 push	 0
  002a6	8d 4d ec	 lea	 ecx, DWORD PTR _strPacketChar$[ebp]
  002a9	ff 15 00 00 00
	00		 call	 DWORD PTR __imp_??A?$CSimpleStringT@D$00@ATL@@QBEDH@Z
  002af	3a c7		 cmp	 al, bh
  002b1	0f 85 0a 03 00
	00		 jne	 $LN330@GetStringf
; File D:\git\src\IBK\IBK_DRFN\ProjSrc\SrcChartEx\ChartOCX\AddInManager\ChartCommonAddIn\MousePositionExportingAddInImp.cpp

; 399  : 			m_strXScaleFormatedData = m_strXScaleFormatedData + szXScaleOriginalData.GetAt(nIdx);

  002b7	ff 75 d8	 push	 DWORD PTR _nIdx$1$[ebp]
  002ba	8d 4d dc	 lea	 ecx, DWORD PTR _szXScaleOriginalData$[ebp]
  002bd	ff 15 00 00 00
	00		 call	 DWORD PTR __imp_?GetAt@?$CSimpleStringT@D$00@ATL@@QBEDH@Z
  002c3	8a d8		 mov	 bl, al
; File C:\Program Files (x86)\Microsoft Visual Studio\2019\Community\VC\Tools\MSVC\14.29.30133\atlmfc\include\cstringt.h

; 2429 : 		CStringT strResult( str1.GetManager() );

  002c5	8b ce		 mov	 ecx, esi
; File D:\git\src\IBK\IBK_DRFN\ProjSrc\SrcChartEx\ChartOCX\AddInManager\ChartCommonAddIn\MousePositionExportingAddInImp.cpp

; 399  : 			m_strXScaleFormatedData = m_strXScaleFormatedData + szXScaleOriginalData.GetAt(nIdx);

  002c7	c6 45 fc 0b	 mov	 BYTE PTR __$EHRec$[ebp+8], 11 ; 0000000bH
; File C:\Program Files (x86)\Microsoft Visual Studio\2019\Community\VC\Tools\MSVC\14.29.30133\atlmfc\include\cstringt.h

; 2429 : 		CStringT strResult( str1.GetManager() );

  002cb	ff 15 00 00 00
	00		 call	 DWORD PTR __imp_?GetManager@?$CStringT@DV?$StrTraitMFC_DLL@DV?$ChTraitsCRT@D@ATL@@@@@ATL@@QBEPAUIAtlStringMgr@2@XZ
  002d1	50		 push	 eax
  002d2	8d 4d c4	 lea	 ecx, DWORD PTR $T12[ebp]
  002d5	ff 15 00 00 00
	00		 call	 DWORD PTR __imp_??0?$CStringT@DV?$StrTraitMFC_DLL@DV?$ChTraitsCRT@D@ATL@@@@@ATL@@QAE@PAUIAtlStringMgr@1@@Z
; File C:\Program Files (x86)\Microsoft Visual Studio\2019\Community\VC\Tools\MSVC\14.29.30133\atlmfc\include\atlsimpstr.h

; 519  : 		return( GetData()->nDataLength );

  002db	8b 06		 mov	 eax, DWORD PTR [esi]
; File C:\Program Files (x86)\Microsoft Visual Studio\2019\Community\VC\Tools\MSVC\14.29.30133\atlmfc\include\cstringt.h

; 2432 : 		CThisSimpleString::Concatenate( strResult, str1, str1.GetLength(), &chTemp, 1 );

  002dd	8d 4d f3	 lea	 ecx, DWORD PTR _chTemp$18[ebp]
  002e0	6a 01		 push	 1
  002e2	51		 push	 ecx
  002e3	88 5d f3	 mov	 BYTE PTR _chTemp$18[ebp], bl

; 2433 : 
; 2434 : 		return( strResult );

  002e6	83 cf 08	 or	 edi, 8
  002e9	ff 70 f4	 push	 DWORD PTR [eax-12]
  002ec	89 7d e4	 mov	 DWORD PTR $T15[ebp], edi
  002ef	50		 push	 eax
  002f0	8d 45 c4	 lea	 eax, DWORD PTR $T12[ebp]
  002f3	50		 push	 eax
  002f4	ff 15 00 00 00
	00		 call	 DWORD PTR __imp_?Concatenate@?$CSimpleStringT@D$00@ATL@@KAXAAV12@PBDH1H@Z
  002fa	83 c4 14	 add	 esp, 20			; 00000014H
; File D:\git\src\IBK\IBK_DRFN\ProjSrc\SrcChartEx\ChartOCX\AddInManager\ChartCommonAddIn\MousePositionExportingAddInImp.cpp

; 399  : 			m_strXScaleFormatedData = m_strXScaleFormatedData + szXScaleOriginalData.GetAt(nIdx);

  002fd	8d 45 c4	 lea	 eax, DWORD PTR $T12[ebp]
  00300	8b ce		 mov	 ecx, esi
  00302	50		 push	 eax
  00303	ff 15 00 00 00
	00		 call	 DWORD PTR __imp_??4?$CStringT@DV?$StrTraitMFC_DLL@DV?$ChTraitsCRT@D@ATL@@@@@ATL@@QAEAAV01@ABV01@@Z
  00309	8d 4d c4	 lea	 ecx, DWORD PTR $T12[ebp]
  0030c	83 e7 f7	 and	 edi, -9			; fffffff7H
  0030f	ff 15 00 00 00
	00		 call	 DWORD PTR __imp_??1?$CStringT@DV?$StrTraitMFC_DLL@DV?$ChTraitsCRT@D@ATL@@@@@ATL@@QAE@XZ

; 400  : 			
; 401  : 			// 6.2.2 szMarkTime  parsing        .
; 402  : 			CString strComp;

  00315	8d 4d e8	 lea	 ecx, DWORD PTR _strComp$16[ebp]
  00318	ff 15 00 00 00
	00		 call	 DWORD PTR __imp_??0?$CStringT@DV?$StrTraitMFC_DLL@DV?$ChTraitsCRT@D@ATL@@@@@ATL@@QAE@XZ

; 403  : 			if( nPacketTypeLength == ( nIdx + 1 ) )

  0031e	8b 45 d8	 mov	 eax, DWORD PTR _nIdx$1$[ebp]
  00321	40		 inc	 eax
  00322	c6 45 fc 0c	 mov	 BYTE PTR __$EHRec$[ebp+8], 12 ; 0000000cH
  00326	39 45 a4	 cmp	 DWORD PTR _nPacketTypeLength$1$[ebp], eax
  00329	0f 85 80 02 00
	00		 jne	 $LN35@GetStringf

; 404  : 			{
; 405  : 				if( strChar == 'Y' && !bUseOneCharDateCompartment )

  0032f	80 ff 59	 cmp	 bh, 89			; 00000059H
  00332	75 62		 jne	 SHORT $LN25@GetStringf
  00334	83 7d d0 01	 cmp	 DWORD PTR tv1717[ebp], 1
  00338	0f 8e 71 02 00
	00		 jle	 $LN35@GetStringf

; 406  : 				{
; 407  : 					strComp.LoadString( IDS_YEAR);

  0033e	6a 04		 push	 4
  00340	8d 4d e8	 lea	 ecx, DWORD PTR _strComp$16[ebp]
  00343	ff 15 00 00 00
	00		 call	 DWORD PTR __imp_?LoadStringA@?$CStringT@DV?$StrTraitMFC_DLL@DV?$ChTraitsCRT@D@ATL@@@@@ATL@@QAEHI@Z
; File C:\Program Files (x86)\Microsoft Visual Studio\2019\Community\VC\Tools\MSVC\14.29.30133\atlmfc\include\cstringt.h

; 2390 : 		CStringT strResult( str1.GetManager() );

  00349	8b ce		 mov	 ecx, esi
; File D:\git\src\IBK\IBK_DRFN\ProjSrc\SrcChartEx\ChartOCX\AddInManager\ChartCommonAddIn\MousePositionExportingAddInImp.cpp

; 408  : 					m_strXScaleFormatedData = m_strXScaleFormatedData + strComp;

  0034b	c6 45 fc 0d	 mov	 BYTE PTR __$EHRec$[ebp+8], 13 ; 0000000dH
; File C:\Program Files (x86)\Microsoft Visual Studio\2019\Community\VC\Tools\MSVC\14.29.30133\atlmfc\include\cstringt.h

; 2390 : 		CStringT strResult( str1.GetManager() );

  0034f	ff 15 00 00 00
	00		 call	 DWORD PTR __imp_?GetManager@?$CStringT@DV?$StrTraitMFC_DLL@DV?$ChTraitsCRT@D@ATL@@@@@ATL@@QBEPAUIAtlStringMgr@2@XZ
  00355	50		 push	 eax
  00356	8d 4d c0	 lea	 ecx, DWORD PTR $T11[ebp]
  00359	ff 15 00 00 00
	00		 call	 DWORD PTR __imp_??0?$CStringT@DV?$StrTraitMFC_DLL@DV?$ChTraitsCRT@D@ATL@@@@@ATL@@QAE@PAUIAtlStringMgr@1@@Z
; File C:\Program Files (x86)\Microsoft Visual Studio\2019\Community\VC\Tools\MSVC\14.29.30133\atlmfc\include\atlsimpstr.h

; 519  : 		return( GetData()->nDataLength );

  0035f	8b 45 e8	 mov	 eax, DWORD PTR _strComp$16[ebp]
; File C:\Program Files (x86)\Microsoft Visual Studio\2019\Community\VC\Tools\MSVC\14.29.30133\atlmfc\include\cstringt.h

; 2394 : 		return( strResult );

  00362	83 cf 10	 or	 edi, 16			; 00000010H
; File C:\Program Files (x86)\Microsoft Visual Studio\2019\Community\VC\Tools\MSVC\14.29.30133\atlmfc\include\atlsimpstr.h

; 519  : 		return( GetData()->nDataLength );

  00365	8b 0e		 mov	 ecx, DWORD PTR [esi]
; File C:\Program Files (x86)\Microsoft Visual Studio\2019\Community\VC\Tools\MSVC\14.29.30133\atlmfc\include\cstringt.h

; 2394 : 		return( strResult );

  00367	89 7d e4	 mov	 DWORD PTR $T15[ebp], edi
  0036a	ff 70 f4	 push	 DWORD PTR [eax-12]
  0036d	50		 push	 eax
  0036e	ff 71 f4	 push	 DWORD PTR [ecx-12]
  00371	8d 45 c0	 lea	 eax, DWORD PTR $T11[ebp]
  00374	51		 push	 ecx
  00375	50		 push	 eax
  00376	ff 15 00 00 00
	00		 call	 DWORD PTR __imp_?Concatenate@?$CSimpleStringT@D$00@ATL@@KAXAAV12@PBDH1H@Z
  0037c	83 c4 14	 add	 esp, 20			; 00000014H
; File D:\git\src\IBK\IBK_DRFN\ProjSrc\SrcChartEx\ChartOCX\AddInManager\ChartCommonAddIn\MousePositionExportingAddInImp.cpp

; 408  : 					m_strXScaleFormatedData = m_strXScaleFormatedData + strComp;

  0037f	8d 45 c0	 lea	 eax, DWORD PTR $T11[ebp]
  00382	8b ce		 mov	 ecx, esi
  00384	50		 push	 eax
  00385	ff 15 00 00 00
	00		 call	 DWORD PTR __imp_??4?$CStringT@DV?$StrTraitMFC_DLL@DV?$ChTraitsCRT@D@ATL@@@@@ATL@@QAEAAV01@ABV01@@Z
  0038b	83 e7 ef	 and	 edi, -17		; ffffffefH
  0038e	8d 4d c0	 lea	 ecx, DWORD PTR $T11[ebp]

; 409  : 				}

  00391	e9 13 02 00 00	 jmp	 $LN338@GetStringf
$LN25@GetStringf:

; 410  : 				else if( strChar == 'M' && !bUseOneCharDateCompartment && bIsMonth )

  00396	80 ff 4d	 cmp	 bh, 77			; 0000004dH
  00399	0f 85 d5 00 00
	00		 jne	 $LN27@GetStringf
  0039f	83 7d d0 01	 cmp	 DWORD PTR tv1717[ebp], 1
  003a3	8b 45 cc	 mov	 eax, DWORD PTR _bIsMonth$1$[ebp]
  003a6	7e 5c		 jle	 SHORT $LN320@GetStringf
  003a8	85 c0		 test	 eax, eax
  003aa	74 58		 je	 SHORT $LN320@GetStringf

; 411  : 				{
; 412  : 					strComp.LoadString( IDS_MONTH);

  003ac	6a 05		 push	 5
  003ae	8d 4d e8	 lea	 ecx, DWORD PTR _strComp$16[ebp]
  003b1	ff 15 00 00 00
	00		 call	 DWORD PTR __imp_?LoadStringA@?$CStringT@DV?$StrTraitMFC_DLL@DV?$ChTraitsCRT@D@ATL@@@@@ATL@@QAEHI@Z
; File C:\Program Files (x86)\Microsoft Visual Studio\2019\Community\VC\Tools\MSVC\14.29.30133\atlmfc\include\cstringt.h

; 2390 : 		CStringT strResult( str1.GetManager() );

  003b7	8b ce		 mov	 ecx, esi
; File D:\git\src\IBK\IBK_DRFN\ProjSrc\SrcChartEx\ChartOCX\AddInManager\ChartCommonAddIn\MousePositionExportingAddInImp.cpp

; 413  : 					m_strXScaleFormatedData = m_strXScaleFormatedData + strComp;

  003b9	c6 45 fc 0e	 mov	 BYTE PTR __$EHRec$[ebp+8], 14 ; 0000000eH
; File C:\Program Files (x86)\Microsoft Visual Studio\2019\Community\VC\Tools\MSVC\14.29.30133\atlmfc\include\cstringt.h

; 2390 : 		CStringT strResult( str1.GetManager() );

  003bd	ff 15 00 00 00
	00		 call	 DWORD PTR __imp_?GetManager@?$CStringT@DV?$StrTraitMFC_DLL@DV?$ChTraitsCRT@D@ATL@@@@@ATL@@QBEPAUIAtlStringMgr@2@XZ
  003c3	50		 push	 eax
  003c4	8d 4d bc	 lea	 ecx, DWORD PTR $T10[ebp]
  003c7	ff 15 00 00 00
	00		 call	 DWORD PTR __imp_??0?$CStringT@DV?$StrTraitMFC_DLL@DV?$ChTraitsCRT@D@ATL@@@@@ATL@@QAE@PAUIAtlStringMgr@1@@Z
; File C:\Program Files (x86)\Microsoft Visual Studio\2019\Community\VC\Tools\MSVC\14.29.30133\atlmfc\include\atlsimpstr.h

; 519  : 		return( GetData()->nDataLength );

  003cd	8b 45 e8	 mov	 eax, DWORD PTR _strComp$16[ebp]
; File C:\Program Files (x86)\Microsoft Visual Studio\2019\Community\VC\Tools\MSVC\14.29.30133\atlmfc\include\cstringt.h

; 2394 : 		return( strResult );

  003d0	83 cf 20	 or	 edi, 32			; 00000020H
; File C:\Program Files (x86)\Microsoft Visual Studio\2019\Community\VC\Tools\MSVC\14.29.30133\atlmfc\include\atlsimpstr.h

; 519  : 		return( GetData()->nDataLength );

  003d3	8b 0e		 mov	 ecx, DWORD PTR [esi]
; File C:\Program Files (x86)\Microsoft Visual Studio\2019\Community\VC\Tools\MSVC\14.29.30133\atlmfc\include\cstringt.h

; 2394 : 		return( strResult );

  003d5	89 7d e4	 mov	 DWORD PTR $T15[ebp], edi
  003d8	ff 70 f4	 push	 DWORD PTR [eax-12]
  003db	50		 push	 eax
  003dc	ff 71 f4	 push	 DWORD PTR [ecx-12]
  003df	8d 45 bc	 lea	 eax, DWORD PTR $T10[ebp]
  003e2	51		 push	 ecx
  003e3	50		 push	 eax
  003e4	ff 15 00 00 00
	00		 call	 DWORD PTR __imp_?Concatenate@?$CSimpleStringT@D$00@ATL@@KAXAAV12@PBDH1H@Z
  003ea	83 c4 14	 add	 esp, 20			; 00000014H
; File D:\git\src\IBK\IBK_DRFN\ProjSrc\SrcChartEx\ChartOCX\AddInManager\ChartCommonAddIn\MousePositionExportingAddInImp.cpp

; 413  : 					m_strXScaleFormatedData = m_strXScaleFormatedData + strComp;

  003ed	8d 45 bc	 lea	 eax, DWORD PTR $T10[ebp]
  003f0	8b ce		 mov	 ecx, esi
  003f2	50		 push	 eax
  003f3	ff 15 00 00 00
	00		 call	 DWORD PTR __imp_??4?$CStringT@DV?$StrTraitMFC_DLL@DV?$ChTraitsCRT@D@ATL@@@@@ATL@@QAEAAV01@ABV01@@Z
  003f9	83 e7 df	 and	 edi, -33		; ffffffdfH
  003fc	8d 4d bc	 lea	 ecx, DWORD PTR $T10[ebp]

; 414  : 				}

  003ff	e9 a5 01 00 00	 jmp	 $LN338@GetStringf
$LN320@GetStringf:

; 425  : 				else if( strChar == 'M' && !bUseOneCharTimeCompartment && !bIsMonth)

  00404	83 7d d4 01	 cmp	 DWORD PTR tv1716[ebp], 1
  00408	0f 8e a1 01 00
	00		 jle	 $LN35@GetStringf
  0040e	85 c0		 test	 eax, eax
  00410	0f 85 99 01 00
	00		 jne	 $LN35@GetStringf

; 426  : 				{
; 427  : 					strComp.LoadString( IDS_MINUTE);

  00416	6a 08		 push	 8
  00418	8d 4d e8	 lea	 ecx, DWORD PTR _strComp$16[ebp]
  0041b	ff 15 00 00 00
	00		 call	 DWORD PTR __imp_?LoadStringA@?$CStringT@DV?$StrTraitMFC_DLL@DV?$ChTraitsCRT@D@ATL@@@@@ATL@@QAEHI@Z
; File C:\Program Files (x86)\Microsoft Visual Studio\2019\Community\VC\Tools\MSVC\14.29.30133\atlmfc\include\cstringt.h

; 2390 : 		CStringT strResult( str1.GetManager() );

  00421	8b ce		 mov	 ecx, esi
; File D:\git\src\IBK\IBK_DRFN\ProjSrc\SrcChartEx\ChartOCX\AddInManager\ChartCommonAddIn\MousePositionExportingAddInImp.cpp

; 428  : 					m_strXScaleFormatedData = m_strXScaleFormatedData + strComp;

  00423	c6 45 fc 11	 mov	 BYTE PTR __$EHRec$[ebp+8], 17 ; 00000011H
; File C:\Program Files (x86)\Microsoft Visual Studio\2019\Community\VC\Tools\MSVC\14.29.30133\atlmfc\include\cstringt.h

; 2390 : 		CStringT strResult( str1.GetManager() );

  00427	ff 15 00 00 00
	00		 call	 DWORD PTR __imp_?GetManager@?$CStringT@DV?$StrTraitMFC_DLL@DV?$ChTraitsCRT@D@ATL@@@@@ATL@@QBEPAUIAtlStringMgr@2@XZ
  0042d	50		 push	 eax
  0042e	8d 4d b8	 lea	 ecx, DWORD PTR $T9[ebp]
  00431	ff 15 00 00 00
	00		 call	 DWORD PTR __imp_??0?$CStringT@DV?$StrTraitMFC_DLL@DV?$ChTraitsCRT@D@ATL@@@@@ATL@@QAE@PAUIAtlStringMgr@1@@Z
; File C:\Program Files (x86)\Microsoft Visual Studio\2019\Community\VC\Tools\MSVC\14.29.30133\atlmfc\include\atlsimpstr.h

; 519  : 		return( GetData()->nDataLength );

  00437	8b 45 e8	 mov	 eax, DWORD PTR _strComp$16[ebp]
; File C:\Program Files (x86)\Microsoft Visual Studio\2019\Community\VC\Tools\MSVC\14.29.30133\atlmfc\include\cstringt.h

; 2394 : 		return( strResult );

  0043a	81 cf 00 01 00
	00		 or	 edi, 256		; 00000100H
; File C:\Program Files (x86)\Microsoft Visual Studio\2019\Community\VC\Tools\MSVC\14.29.30133\atlmfc\include\atlsimpstr.h

; 519  : 		return( GetData()->nDataLength );

  00440	8b 0e		 mov	 ecx, DWORD PTR [esi]
; File C:\Program Files (x86)\Microsoft Visual Studio\2019\Community\VC\Tools\MSVC\14.29.30133\atlmfc\include\cstringt.h

; 2394 : 		return( strResult );

  00442	89 7d e4	 mov	 DWORD PTR $T15[ebp], edi
  00445	ff 70 f4	 push	 DWORD PTR [eax-12]
  00448	50		 push	 eax
  00449	ff 71 f4	 push	 DWORD PTR [ecx-12]
  0044c	8d 45 b8	 lea	 eax, DWORD PTR $T9[ebp]
  0044f	51		 push	 ecx
  00450	50		 push	 eax
  00451	ff 15 00 00 00
	00		 call	 DWORD PTR __imp_?Concatenate@?$CSimpleStringT@D$00@ATL@@KAXAAV12@PBDH1H@Z
  00457	83 c4 14	 add	 esp, 20			; 00000014H
; File D:\git\src\IBK\IBK_DRFN\ProjSrc\SrcChartEx\ChartOCX\AddInManager\ChartCommonAddIn\MousePositionExportingAddInImp.cpp

; 428  : 					m_strXScaleFormatedData = m_strXScaleFormatedData + strComp;

  0045a	8d 45 b8	 lea	 eax, DWORD PTR $T9[ebp]
  0045d	8b ce		 mov	 ecx, esi
  0045f	50		 push	 eax
  00460	ff 15 00 00 00
	00		 call	 DWORD PTR __imp_??4?$CStringT@DV?$StrTraitMFC_DLL@DV?$ChTraitsCRT@D@ATL@@@@@ATL@@QAEAAV01@ABV01@@Z
  00466	81 e7 ff fe ff
	ff		 and	 edi, -257		; fffffeffH
  0046c	8d 4d b8	 lea	 ecx, DWORD PTR $T9[ebp]

; 429  : 				}

  0046f	e9 35 01 00 00	 jmp	 $LN338@GetStringf
$LN27@GetStringf:

; 415  : 				else if( strChar == 'D' && !bUseOneCharDateCompartment )

  00474	80 ff 44	 cmp	 bh, 68			; 00000044H
  00477	75 62		 jne	 SHORT $LN29@GetStringf
  00479	83 7d d0 01	 cmp	 DWORD PTR tv1717[ebp], 1
  0047d	0f 8e 2c 01 00
	00		 jle	 $LN35@GetStringf

; 416  : 				{
; 417  : 					strComp.LoadString( IDS_DAY);

  00483	6a 06		 push	 6
  00485	8d 4d e8	 lea	 ecx, DWORD PTR _strComp$16[ebp]
  00488	ff 15 00 00 00
	00		 call	 DWORD PTR __imp_?LoadStringA@?$CStringT@DV?$StrTraitMFC_DLL@DV?$ChTraitsCRT@D@ATL@@@@@ATL@@QAEHI@Z
; File C:\Program Files (x86)\Microsoft Visual Studio\2019\Community\VC\Tools\MSVC\14.29.30133\atlmfc\include\cstringt.h

; 2390 : 		CStringT strResult( str1.GetManager() );

  0048e	8b ce		 mov	 ecx, esi
; File D:\git\src\IBK\IBK_DRFN\ProjSrc\SrcChartEx\ChartOCX\AddInManager\ChartCommonAddIn\MousePositionExportingAddInImp.cpp

; 418  : 					m_strXScaleFormatedData = m_strXScaleFormatedData + strComp;

  00490	c6 45 fc 0f	 mov	 BYTE PTR __$EHRec$[ebp+8], 15 ; 0000000fH
; File C:\Program Files (x86)\Microsoft Visual Studio\2019\Community\VC\Tools\MSVC\14.29.30133\atlmfc\include\cstringt.h

; 2390 : 		CStringT strResult( str1.GetManager() );

  00494	ff 15 00 00 00
	00		 call	 DWORD PTR __imp_?GetManager@?$CStringT@DV?$StrTraitMFC_DLL@DV?$ChTraitsCRT@D@ATL@@@@@ATL@@QBEPAUIAtlStringMgr@2@XZ
  0049a	50		 push	 eax
  0049b	8d 4d b4	 lea	 ecx, DWORD PTR $T8[ebp]
  0049e	ff 15 00 00 00
	00		 call	 DWORD PTR __imp_??0?$CStringT@DV?$StrTraitMFC_DLL@DV?$ChTraitsCRT@D@ATL@@@@@ATL@@QAE@PAUIAtlStringMgr@1@@Z
; File C:\Program Files (x86)\Microsoft Visual Studio\2019\Community\VC\Tools\MSVC\14.29.30133\atlmfc\include\atlsimpstr.h

; 519  : 		return( GetData()->nDataLength );

  004a4	8b 45 e8	 mov	 eax, DWORD PTR _strComp$16[ebp]
; File C:\Program Files (x86)\Microsoft Visual Studio\2019\Community\VC\Tools\MSVC\14.29.30133\atlmfc\include\cstringt.h

; 2394 : 		return( strResult );

  004a7	83 cf 40	 or	 edi, 64			; 00000040H
; File C:\Program Files (x86)\Microsoft Visual Studio\2019\Community\VC\Tools\MSVC\14.29.30133\atlmfc\include\atlsimpstr.h

; 519  : 		return( GetData()->nDataLength );

  004aa	8b 0e		 mov	 ecx, DWORD PTR [esi]
; File C:\Program Files (x86)\Microsoft Visual Studio\2019\Community\VC\Tools\MSVC\14.29.30133\atlmfc\include\cstringt.h

; 2394 : 		return( strResult );

  004ac	89 7d e4	 mov	 DWORD PTR $T15[ebp], edi
  004af	ff 70 f4	 push	 DWORD PTR [eax-12]
  004b2	50		 push	 eax
  004b3	ff 71 f4	 push	 DWORD PTR [ecx-12]
  004b6	8d 45 b4	 lea	 eax, DWORD PTR $T8[ebp]
  004b9	51		 push	 ecx
  004ba	50		 push	 eax
  004bb	ff 15 00 00 00
	00		 call	 DWORD PTR __imp_?Concatenate@?$CSimpleStringT@D$00@ATL@@KAXAAV12@PBDH1H@Z
  004c1	83 c4 14	 add	 esp, 20			; 00000014H
; File D:\git\src\IBK\IBK_DRFN\ProjSrc\SrcChartEx\ChartOCX\AddInManager\ChartCommonAddIn\MousePositionExportingAddInImp.cpp

; 418  : 					m_strXScaleFormatedData = m_strXScaleFormatedData + strComp;

  004c4	8d 45 b4	 lea	 eax, DWORD PTR $T8[ebp]
  004c7	8b ce		 mov	 ecx, esi
  004c9	50		 push	 eax
  004ca	ff 15 00 00 00
	00		 call	 DWORD PTR __imp_??4?$CStringT@DV?$StrTraitMFC_DLL@DV?$ChTraitsCRT@D@ATL@@@@@ATL@@QAEAAV01@ABV01@@Z
  004d0	83 e7 bf	 and	 edi, -65		; ffffffbfH
  004d3	8d 4d b4	 lea	 ecx, DWORD PTR $T8[ebp]

; 419  : 				}

  004d6	e9 ce 00 00 00	 jmp	 $LN338@GetStringf
$LN29@GetStringf:

; 420  : 				else if( strChar == 'H' && !bUseOneCharTimeCompartment )

  004db	80 ff 48	 cmp	 bh, 72			; 00000048H
  004de	75 65		 jne	 SHORT $LN33@GetStringf
  004e0	83 7d d4 01	 cmp	 DWORD PTR tv1716[ebp], 1
  004e4	0f 8e c5 00 00
	00		 jle	 $LN35@GetStringf

; 421  : 				{
; 422  : 					strComp.LoadString( IDS_HOUR);

  004ea	6a 07		 push	 7
  004ec	8d 4d e8	 lea	 ecx, DWORD PTR _strComp$16[ebp]
  004ef	ff 15 00 00 00
	00		 call	 DWORD PTR __imp_?LoadStringA@?$CStringT@DV?$StrTraitMFC_DLL@DV?$ChTraitsCRT@D@ATL@@@@@ATL@@QAEHI@Z
; File C:\Program Files (x86)\Microsoft Visual Studio\2019\Community\VC\Tools\MSVC\14.29.30133\atlmfc\include\cstringt.h

; 2390 : 		CStringT strResult( str1.GetManager() );

  004f5	8b ce		 mov	 ecx, esi
; File D:\git\src\IBK\IBK_DRFN\ProjSrc\SrcChartEx\ChartOCX\AddInManager\ChartCommonAddIn\MousePositionExportingAddInImp.cpp

; 423  : 					m_strXScaleFormatedData = m_strXScaleFormatedData + strComp;

  004f7	c6 45 fc 10	 mov	 BYTE PTR __$EHRec$[ebp+8], 16 ; 00000010H
; File C:\Program Files (x86)\Microsoft Visual Studio\2019\Community\VC\Tools\MSVC\14.29.30133\atlmfc\include\cstringt.h

; 2390 : 		CStringT strResult( str1.GetManager() );

  004fb	ff 15 00 00 00
	00		 call	 DWORD PTR __imp_?GetManager@?$CStringT@DV?$StrTraitMFC_DLL@DV?$ChTraitsCRT@D@ATL@@@@@ATL@@QBEPAUIAtlStringMgr@2@XZ
  00501	50		 push	 eax
  00502	8d 4d b0	 lea	 ecx, DWORD PTR $T7[ebp]
  00505	ff 15 00 00 00
	00		 call	 DWORD PTR __imp_??0?$CStringT@DV?$StrTraitMFC_DLL@DV?$ChTraitsCRT@D@ATL@@@@@ATL@@QAE@PAUIAtlStringMgr@1@@Z
; File C:\Program Files (x86)\Microsoft Visual Studio\2019\Community\VC\Tools\MSVC\14.29.30133\atlmfc\include\atlsimpstr.h

; 519  : 		return( GetData()->nDataLength );

  0050b	8b 45 e8	 mov	 eax, DWORD PTR _strComp$16[ebp]
; File C:\Program Files (x86)\Microsoft Visual Studio\2019\Community\VC\Tools\MSVC\14.29.30133\atlmfc\include\cstringt.h

; 2394 : 		return( strResult );

  0050e	81 cf 80 00 00
	00		 or	 edi, 128		; 00000080H
; File C:\Program Files (x86)\Microsoft Visual Studio\2019\Community\VC\Tools\MSVC\14.29.30133\atlmfc\include\atlsimpstr.h

; 519  : 		return( GetData()->nDataLength );

  00514	8b 0e		 mov	 ecx, DWORD PTR [esi]
; File C:\Program Files (x86)\Microsoft Visual Studio\2019\Community\VC\Tools\MSVC\14.29.30133\atlmfc\include\cstringt.h

; 2394 : 		return( strResult );

  00516	89 7d e4	 mov	 DWORD PTR $T15[ebp], edi
  00519	ff 70 f4	 push	 DWORD PTR [eax-12]
  0051c	50		 push	 eax
  0051d	ff 71 f4	 push	 DWORD PTR [ecx-12]
  00520	8d 45 b0	 lea	 eax, DWORD PTR $T7[ebp]
  00523	51		 push	 ecx
  00524	50		 push	 eax
  00525	ff 15 00 00 00
	00		 call	 DWORD PTR __imp_?Concatenate@?$CSimpleStringT@D$00@ATL@@KAXAAV12@PBDH1H@Z
  0052b	83 c4 14	 add	 esp, 20			; 00000014H
; File D:\git\src\IBK\IBK_DRFN\ProjSrc\SrcChartEx\ChartOCX\AddInManager\ChartCommonAddIn\MousePositionExportingAddInImp.cpp

; 423  : 					m_strXScaleFormatedData = m_strXScaleFormatedData + strComp;

  0052e	8d 45 b0	 lea	 eax, DWORD PTR $T7[ebp]
  00531	8b ce		 mov	 ecx, esi
  00533	50		 push	 eax
  00534	ff 15 00 00 00
	00		 call	 DWORD PTR __imp_??4?$CStringT@DV?$StrTraitMFC_DLL@DV?$ChTraitsCRT@D@ATL@@@@@ATL@@QAEAAV01@ABV01@@Z
  0053a	81 e7 7f ff ff
	ff		 and	 edi, -129		; ffffff7fH
  00540	8d 4d b0	 lea	 ecx, DWORD PTR $T7[ebp]

; 424  : 				}

  00543	eb 64		 jmp	 SHORT $LN338@GetStringf
$LN33@GetStringf:

; 430  : 				else if( strChar == 'S' && !bUseOneCharTimeCompartment )

  00545	80 ff 53	 cmp	 bh, 83			; 00000053H
  00548	75 65		 jne	 SHORT $LN35@GetStringf
  0054a	83 7d d4 01	 cmp	 DWORD PTR tv1716[ebp], 1
  0054e	7e 5f		 jle	 SHORT $LN35@GetStringf

; 431  : 				{
; 432  : 					strComp.LoadString( IDS_SECOND);

  00550	6a 09		 push	 9
  00552	8d 4d e8	 lea	 ecx, DWORD PTR _strComp$16[ebp]
  00555	ff 15 00 00 00
	00		 call	 DWORD PTR __imp_?LoadStringA@?$CStringT@DV?$StrTraitMFC_DLL@DV?$ChTraitsCRT@D@ATL@@@@@ATL@@QAEHI@Z
; File C:\Program Files (x86)\Microsoft Visual Studio\2019\Community\VC\Tools\MSVC\14.29.30133\atlmfc\include\cstringt.h

; 2390 : 		CStringT strResult( str1.GetManager() );

  0055b	8b ce		 mov	 ecx, esi
; File D:\git\src\IBK\IBK_DRFN\ProjSrc\SrcChartEx\ChartOCX\AddInManager\ChartCommonAddIn\MousePositionExportingAddInImp.cpp

; 433  : 					m_strXScaleFormatedData = m_strXScaleFormatedData + strComp;

  0055d	c6 45 fc 12	 mov	 BYTE PTR __$EHRec$[ebp+8], 18 ; 00000012H
; File C:\Program Files (x86)\Microsoft Visual Studio\2019\Community\VC\Tools\MSVC\14.29.30133\atlmfc\include\cstringt.h

; 2390 : 		CStringT strResult( str1.GetManager() );

  00561	ff 15 00 00 00
	00		 call	 DWORD PTR __imp_?GetManager@?$CStringT@DV?$StrTraitMFC_DLL@DV?$ChTraitsCRT@D@ATL@@@@@ATL@@QBEPAUIAtlStringMgr@2@XZ
  00567	50		 push	 eax
  00568	8d 4d ac	 lea	 ecx, DWORD PTR $T6[ebp]
  0056b	ff 15 00 00 00
	00		 call	 DWORD PTR __imp_??0?$CStringT@DV?$StrTraitMFC_DLL@DV?$ChTraitsCRT@D@ATL@@@@@ATL@@QAE@PAUIAtlStringMgr@1@@Z
; File C:\Program Files (x86)\Microsoft Visual Studio\2019\Community\VC\Tools\MSVC\14.29.30133\atlmfc\include\atlsimpstr.h

; 519  : 		return( GetData()->nDataLength );

  00571	8b 45 e8	 mov	 eax, DWORD PTR _strComp$16[ebp]
; File C:\Program Files (x86)\Microsoft Visual Studio\2019\Community\VC\Tools\MSVC\14.29.30133\atlmfc\include\cstringt.h

; 2394 : 		return( strResult );

  00574	81 cf 00 02 00
	00		 or	 edi, 512		; 00000200H
; File C:\Program Files (x86)\Microsoft Visual Studio\2019\Community\VC\Tools\MSVC\14.29.30133\atlmfc\include\atlsimpstr.h

; 519  : 		return( GetData()->nDataLength );

  0057a	8b 0e		 mov	 ecx, DWORD PTR [esi]
; File C:\Program Files (x86)\Microsoft Visual Studio\2019\Community\VC\Tools\MSVC\14.29.30133\atlmfc\include\cstringt.h

; 2394 : 		return( strResult );

  0057c	89 7d e4	 mov	 DWORD PTR $T15[ebp], edi
  0057f	ff 70 f4	 push	 DWORD PTR [eax-12]
  00582	50		 push	 eax
  00583	ff 71 f4	 push	 DWORD PTR [ecx-12]
  00586	8d 45 ac	 lea	 eax, DWORD PTR $T6[ebp]
  00589	51		 push	 ecx
  0058a	50		 push	 eax
  0058b	ff 15 00 00 00
	00		 call	 DWORD PTR __imp_?Concatenate@?$CSimpleStringT@D$00@ATL@@KAXAAV12@PBDH1H@Z
  00591	83 c4 14	 add	 esp, 20			; 00000014H
; File D:\git\src\IBK\IBK_DRFN\ProjSrc\SrcChartEx\ChartOCX\AddInManager\ChartCommonAddIn\MousePositionExportingAddInImp.cpp

; 433  : 					m_strXScaleFormatedData = m_strXScaleFormatedData + strComp;

  00594	8d 45 ac	 lea	 eax, DWORD PTR $T6[ebp]
  00597	8b ce		 mov	 ecx, esi
  00599	50		 push	 eax
  0059a	ff 15 00 00 00
	00		 call	 DWORD PTR __imp_??4?$CStringT@DV?$StrTraitMFC_DLL@DV?$ChTraitsCRT@D@ATL@@@@@ATL@@QAEAAV01@ABV01@@Z
  005a0	81 e7 ff fd ff
	ff		 and	 edi, -513		; fffffdffH
  005a6	8d 4d ac	 lea	 ecx, DWORD PTR $T6[ebp]
$LN338@GetStringf:

; 434  : 				}
; 435  : 			}
; 436  : 		}

  005a9	ff 15 00 00 00
	00		 call	 DWORD PTR __imp_??1?$CStringT@DV?$StrTraitMFC_DLL@DV?$ChTraitsCRT@D@ATL@@@@@ATL@@QAE@XZ
$LN35@GetStringf:
  005af	8d 4d e8	 lea	 ecx, DWORD PTR _strComp$16[ebp]
  005b2	c6 45 fc 08	 mov	 BYTE PTR __$EHRec$[ebp+8], 8
  005b6	ff 15 00 00 00
	00		 call	 DWORD PTR __imp_??1?$CStringT@DV?$StrTraitMFC_DLL@DV?$ChTraitsCRT@D@ATL@@@@@ATL@@QAE@XZ
  005bc	e9 ea 01 00 00	 jmp	 $LN5@GetStringf
$LN330@GetStringf:
; File C:\Program Files (x86)\Microsoft Visual Studio\2019\Community\VC\Tools\MSVC\14.29.30133\atlmfc\include\cstringt.h

; 2692 : 		return((str2.GetLength() != 1) || (str2[0] != ch1));

  005c1	8b 45 ec	 mov	 eax, DWORD PTR _strPacketChar$[ebp]
$LN112@GetStringf:
; File D:\git\src\IBK\IBK_DRFN\ProjSrc\SrcChartEx\ChartOCX\AddInManager\ChartCommonAddIn\MousePositionExportingAddInImp.cpp

; 360  : 			if( !bUseOneCharDateCompartment )

  005c4	83 7d d0 01	 cmp	 DWORD PTR tv1717[ebp], 1
  005c8	7e 74		 jle	 SHORT $LN16@GetStringf

; 361  : 			{
; 362  : 				if( strChar == 'Y' && strPacketChar == 'M' )

  005ca	80 ff 59	 cmp	 bh, 89			; 00000059H
  005cd	75 29		 jne	 SHORT $LN12@GetStringf
; File C:\Program Files (x86)\Microsoft Visual Studio\2019\Community\VC\Tools\MSVC\14.29.30133\atlmfc\include\cstringt.h

; 2510 : 		return((str1.GetLength() == 1) && (str1[0] == ch2));

  005cf	83 78 f4 01	 cmp	 DWORD PTR [eax-12], 1
  005d3	75 69		 jne	 SHORT $LN16@GetStringf
  005d5	6a 00		 push	 0
  005d7	8d 4d ec	 lea	 ecx, DWORD PTR _strPacketChar$[ebp]
  005da	ff 15 00 00 00
	00		 call	 DWORD PTR __imp_??A?$CSimpleStringT@D$00@ATL@@QBEDH@Z
  005e0	3c 4d		 cmp	 al, 77			; 0000004dH
  005e2	75 57		 jne	 SHORT $LN331@GetStringf
; File D:\git\src\IBK\IBK_DRFN\ProjSrc\SrcChartEx\ChartOCX\AddInManager\ChartCommonAddIn\MousePositionExportingAddInImp.cpp

; 364  : 					strCompartment.LoadString( IDS_YEAR);

  005e4	6a 04		 push	 4
  005e6	8d 4d e0	 lea	 ecx, DWORD PTR _strCompartment$[ebp]
  005e9	ff 15 00 00 00
	00		 call	 DWORD PTR __imp_?LoadStringA@?$CStringT@DV?$StrTraitMFC_DLL@DV?$ChTraitsCRT@D@ATL@@@@@ATL@@QAEHI@Z

; 365  : 					bIsMonth = TRUE;

  005ef	c7 45 cc 01 00
	00 00		 mov	 DWORD PTR _bIsMonth$1$[ebp], 1

; 366  : 				}

  005f6	eb 43		 jmp	 SHORT $LN331@GetStringf
$LN12@GetStringf:

; 368  : 				else if( strChar == 'M' && strPacketChar == 'D' )		strCompartment.LoadString( IDS_MONTH);

  005f8	80 ff 4d	 cmp	 bh, 77			; 0000004dH
  005fb	75 19		 jne	 SHORT $LN14@GetStringf
; File C:\Program Files (x86)\Microsoft Visual Studio\2019\Community\VC\Tools\MSVC\14.29.30133\atlmfc\include\cstringt.h

; 2510 : 		return((str1.GetLength() == 1) && (str1[0] == ch2));

  005fd	83 78 f4 01	 cmp	 DWORD PTR [eax-12], 1
  00601	75 3b		 jne	 SHORT $LN16@GetStringf
  00603	6a 00		 push	 0
  00605	8d 4d ec	 lea	 ecx, DWORD PTR _strPacketChar$[ebp]
  00608	ff 15 00 00 00
	00		 call	 DWORD PTR __imp_??A?$CSimpleStringT@D$00@ATL@@QBEDH@Z
  0060e	3c 44		 cmp	 al, 68			; 00000044H
  00610	75 29		 jne	 SHORT $LN331@GetStringf
; File D:\git\src\IBK\IBK_DRFN\ProjSrc\SrcChartEx\ChartOCX\AddInManager\ChartCommonAddIn\MousePositionExportingAddInImp.cpp

; 368  : 				else if( strChar == 'M' && strPacketChar == 'D' )		strCompartment.LoadString( IDS_MONTH);

  00612	6a 05		 push	 5
  00614	eb 1c		 jmp	 SHORT $LN340@GetStringf
$LN14@GetStringf:

; 369  : 				else if( strChar == 'D' && strPacketChar == 'H' )		strCompartment.LoadString( IDS_DAY);

  00616	80 ff 44	 cmp	 bh, 68			; 00000044H
  00619	75 23		 jne	 SHORT $LN16@GetStringf
; File C:\Program Files (x86)\Microsoft Visual Studio\2019\Community\VC\Tools\MSVC\14.29.30133\atlmfc\include\cstringt.h

; 2510 : 		return((str1.GetLength() == 1) && (str1[0] == ch2));

  0061b	83 78 f4 01	 cmp	 DWORD PTR [eax-12], 1
  0061f	75 1d		 jne	 SHORT $LN16@GetStringf
  00621	6a 00		 push	 0
  00623	8d 4d ec	 lea	 ecx, DWORD PTR _strPacketChar$[ebp]
  00626	ff 15 00 00 00
	00		 call	 DWORD PTR __imp_??A?$CSimpleStringT@D$00@ATL@@QBEDH@Z
  0062c	3c 48		 cmp	 al, 72			; 00000048H
  0062e	75 0b		 jne	 SHORT $LN331@GetStringf
; File D:\git\src\IBK\IBK_DRFN\ProjSrc\SrcChartEx\ChartOCX\AddInManager\ChartCommonAddIn\MousePositionExportingAddInImp.cpp

; 369  : 				else if( strChar == 'D' && strPacketChar == 'H' )		strCompartment.LoadString( IDS_DAY);

  00630	6a 06		 push	 6
$LN340@GetStringf:

; 370  : 			}
; 371  : 
; 372  : 			// 6.1.2 Time  "  "   
; 373  : 			if( !bUseOneCharTimeCompartment )

  00632	8d 4d e0	 lea	 ecx, DWORD PTR _strCompartment$[ebp]
  00635	ff 15 00 00 00
	00		 call	 DWORD PTR __imp_?LoadStringA@?$CStringT@DV?$StrTraitMFC_DLL@DV?$ChTraitsCRT@D@ATL@@@@@ATL@@QAEHI@Z
$LN331@GetStringf:
  0063b	8b 45 ec	 mov	 eax, DWORD PTR _strPacketChar$[ebp]
$LN16@GetStringf:
  0063e	83 7d d4 01	 cmp	 DWORD PTR tv1716[ebp], 1
  00642	0f 8e 83 00 00
	00		 jle	 $LN22@GetStringf

; 374  : 			{
; 375  : 				if( strChar == 'H' && strPacketChar == 'M' )

  00648	80 ff 48	 cmp	 bh, 72			; 00000048H
  0064b	75 30		 jne	 SHORT $LN18@GetStringf
; File C:\Program Files (x86)\Microsoft Visual Studio\2019\Community\VC\Tools\MSVC\14.29.30133\atlmfc\include\cstringt.h

; 2510 : 		return((str1.GetLength() == 1) && (str1[0] == ch2));

  0064d	83 78 f4 01	 cmp	 DWORD PTR [eax-12], 1
  00651	0f 85 a0 00 00
	00		 jne	 $LN23@GetStringf
  00657	6a 00		 push	 0
  00659	8d 4d ec	 lea	 ecx, DWORD PTR _strPacketChar$[ebp]
  0065c	ff 15 00 00 00
	00		 call	 DWORD PTR __imp_??A?$CSimpleStringT@D$00@ATL@@QBEDH@Z
  00662	3c 4d		 cmp	 al, 77			; 0000004dH
  00664	75 12		 jne	 SHORT $LN332@GetStringf
; File D:\git\src\IBK\IBK_DRFN\ProjSrc\SrcChartEx\ChartOCX\AddInManager\ChartCommonAddIn\MousePositionExportingAddInImp.cpp

; 377  : 					strCompartment.LoadString( IDS_HOUR);

  00666	6a 07		 push	 7
  00668	8d 4d e0	 lea	 ecx, DWORD PTR _strCompartment$[ebp]
  0066b	ff 15 00 00 00
	00		 call	 DWORD PTR __imp_?LoadStringA@?$CStringT@DV?$StrTraitMFC_DLL@DV?$ChTraitsCRT@D@ATL@@@@@ATL@@QAEHI@Z

; 378  : 					bIsMonth = FALSE;

  00671	c7 45 cc 00 00
	00 00		 mov	 DWORD PTR _bIsMonth$1$[ebp], 0
$LN332@GetStringf:
; File C:\Program Files (x86)\Microsoft Visual Studio\2019\Community\VC\Tools\MSVC\14.29.30133\atlmfc\include\cstringt.h

; 2510 : 		return((str1.GetLength() == 1) && (str1[0] == ch2));

  00678	8b 45 ec	 mov	 eax, DWORD PTR _strPacketChar$[ebp]
  0067b	eb 53		 jmp	 SHORT $LN319@GetStringf
$LN18@GetStringf:
; File D:\git\src\IBK\IBK_DRFN\ProjSrc\SrcChartEx\ChartOCX\AddInManager\ChartCommonAddIn\MousePositionExportingAddInImp.cpp

; 381  : 				else if( strChar == 'M' && strPacketChar == 'S' )		strCompartment.LoadString( IDS_MINUTE);

  0067d	80 ff 4d	 cmp	 bh, 77			; 0000004dH
  00680	75 22		 jne	 SHORT $LN20@GetStringf
; File C:\Program Files (x86)\Microsoft Visual Studio\2019\Community\VC\Tools\MSVC\14.29.30133\atlmfc\include\cstringt.h

; 2510 : 		return((str1.GetLength() == 1) && (str1[0] == ch2));

  00682	83 78 f4 01	 cmp	 DWORD PTR [eax-12], 1
  00686	75 6f		 jne	 SHORT $LN23@GetStringf
  00688	6a 00		 push	 0
  0068a	8d 4d ec	 lea	 ecx, DWORD PTR _strPacketChar$[ebp]
  0068d	ff 15 00 00 00
	00		 call	 DWORD PTR __imp_??A?$CSimpleStringT@D$00@ATL@@QBEDH@Z
  00693	3c 53		 cmp	 al, 83			; 00000053H
  00695	75 60		 jne	 SHORT $LN23@GetStringf
; File D:\git\src\IBK\IBK_DRFN\ProjSrc\SrcChartEx\ChartOCX\AddInManager\ChartCommonAddIn\MousePositionExportingAddInImp.cpp

; 381  : 				else if( strChar == 'M' && strPacketChar == 'S' )		strCompartment.LoadString( IDS_MINUTE);

  00697	6a 08		 push	 8
  00699	8d 4d e0	 lea	 ecx, DWORD PTR _strCompartment$[ebp]
  0069c	ff 15 00 00 00
	00		 call	 DWORD PTR __imp_?LoadStringA@?$CStringT@DV?$StrTraitMFC_DLL@DV?$ChTraitsCRT@D@ATL@@@@@ATL@@QAEHI@Z
  006a2	eb 53		 jmp	 SHORT $LN23@GetStringf
$LN20@GetStringf:

; 382  : 				else if( strChar == 'S' && strPacketChar == 'N' )		strCompartment.LoadString( IDS_SECOND);

  006a4	80 ff 53	 cmp	 bh, 83			; 00000053H
  006a7	75 4e		 jne	 SHORT $LN23@GetStringf
; File C:\Program Files (x86)\Microsoft Visual Studio\2019\Community\VC\Tools\MSVC\14.29.30133\atlmfc\include\cstringt.h

; 2510 : 		return((str1.GetLength() == 1) && (str1[0] == ch2));

  006a9	83 78 f4 01	 cmp	 DWORD PTR [eax-12], 1
  006ad	75 48		 jne	 SHORT $LN23@GetStringf
  006af	6a 00		 push	 0
  006b1	8d 4d ec	 lea	 ecx, DWORD PTR _strPacketChar$[ebp]
  006b4	ff 15 00 00 00
	00		 call	 DWORD PTR __imp_??A?$CSimpleStringT@D$00@ATL@@QBEDH@Z
  006ba	3c 4e		 cmp	 al, 78			; 0000004eH
  006bc	75 39		 jne	 SHORT $LN23@GetStringf
; File D:\git\src\IBK\IBK_DRFN\ProjSrc\SrcChartEx\ChartOCX\AddInManager\ChartCommonAddIn\MousePositionExportingAddInImp.cpp

; 382  : 				else if( strChar == 'S' && strPacketChar == 'N' )		strCompartment.LoadString( IDS_SECOND);

  006be	6a 09		 push	 9
  006c0	8d 4d e0	 lea	 ecx, DWORD PTR _strCompartment$[ebp]
  006c3	ff 15 00 00 00
	00		 call	 DWORD PTR __imp_?LoadStringA@?$CStringT@DV?$StrTraitMFC_DLL@DV?$ChTraitsCRT@D@ATL@@@@@ATL@@QAEHI@Z

; 387  : 			if( strChar == 'H' && strPacketChar == 'M' && bUseOneCharTimeCompartment )

  006c9	eb 2c		 jmp	 SHORT $LN23@GetStringf
$LN22@GetStringf:
  006cb	80 ff 48	 cmp	 bh, 72			; 00000048H
  006ce	75 27		 jne	 SHORT $LN23@GetStringf
$LN319@GetStringf:
; File C:\Program Files (x86)\Microsoft Visual Studio\2019\Community\VC\Tools\MSVC\14.29.30133\atlmfc\include\cstringt.h

; 2510 : 		return((str1.GetLength() == 1) && (str1[0] == ch2));

  006d0	83 78 f4 01	 cmp	 DWORD PTR [eax-12], 1
  006d4	75 21		 jne	 SHORT $LN23@GetStringf
  006d6	6a 00		 push	 0
  006d8	8d 4d ec	 lea	 ecx, DWORD PTR _strPacketChar$[ebp]
  006db	ff 15 00 00 00
	00		 call	 DWORD PTR __imp_??A?$CSimpleStringT@D$00@ATL@@QBEDH@Z
  006e1	3c 4d		 cmp	 al, 77			; 0000004dH
  006e3	75 12		 jne	 SHORT $LN23@GetStringf
; File D:\git\src\IBK\IBK_DRFN\ProjSrc\SrcChartEx\ChartOCX\AddInManager\ChartCommonAddIn\MousePositionExportingAddInImp.cpp

; 387  : 			if( strChar == 'H' && strPacketChar == 'M' && bUseOneCharTimeCompartment )

  006e5	83 7d d4 01	 cmp	 DWORD PTR tv1716[ebp], 1
  006e9	7f 0c		 jg	 SHORT $LN23@GetStringf

; 388  : 				strCompartment = m_strTimeCompartment;

  006eb	ff 75 9c	 push	 DWORD PTR tv1709[ebp]
  006ee	8d 4d e0	 lea	 ecx, DWORD PTR _strCompartment$[ebp]
  006f1	ff 15 00 00 00
	00		 call	 DWORD PTR __imp_??4?$CStringT@DV?$StrTraitMFC_DLL@DV?$ChTraitsCRT@D@ATL@@@@@ATL@@QAEAAV01@ABV01@@Z
$LN23@GetStringf:
; File C:\Program Files (x86)\Microsoft Visual Studio\2019\Community\VC\Tools\MSVC\14.29.30133\atlmfc\include\cstringt.h

; 2390 : 		CStringT strResult( str1.GetManager() );

  006f7	8b ce		 mov	 ecx, esi
; File D:\git\src\IBK\IBK_DRFN\ProjSrc\SrcChartEx\ChartOCX\AddInManager\ChartCommonAddIn\MousePositionExportingAddInImp.cpp

; 390  : 			m_strXScaleFormatedData = m_strXScaleFormatedData + strCompartment + szXScaleOriginalData.GetAt(nIdx);

  006f9	c6 45 fc 09	 mov	 BYTE PTR __$EHRec$[ebp+8], 9
; File C:\Program Files (x86)\Microsoft Visual Studio\2019\Community\VC\Tools\MSVC\14.29.30133\atlmfc\include\cstringt.h

; 2390 : 		CStringT strResult( str1.GetManager() );

  006fd	ff 15 00 00 00
	00		 call	 DWORD PTR __imp_?GetManager@?$CStringT@DV?$StrTraitMFC_DLL@DV?$ChTraitsCRT@D@ATL@@@@@ATL@@QBEPAUIAtlStringMgr@2@XZ
  00703	50		 push	 eax
  00704	8d 4d c8	 lea	 ecx, DWORD PTR $T13[ebp]
  00707	ff 15 00 00 00
	00		 call	 DWORD PTR __imp_??0?$CStringT@DV?$StrTraitMFC_DLL@DV?$ChTraitsCRT@D@ATL@@@@@ATL@@QAE@PAUIAtlStringMgr@1@@Z
; File C:\Program Files (x86)\Microsoft Visual Studio\2019\Community\VC\Tools\MSVC\14.29.30133\atlmfc\include\atlsimpstr.h

; 519  : 		return( GetData()->nDataLength );

  0070d	8b 45 e0	 mov	 eax, DWORD PTR _strCompartment$[ebp]
; File C:\Program Files (x86)\Microsoft Visual Studio\2019\Community\VC\Tools\MSVC\14.29.30133\atlmfc\include\cstringt.h

; 2394 : 		return( strResult );

  00710	83 cf 02	 or	 edi, 2
; File C:\Program Files (x86)\Microsoft Visual Studio\2019\Community\VC\Tools\MSVC\14.29.30133\atlmfc\include\atlsimpstr.h

; 519  : 		return( GetData()->nDataLength );

  00713	8b 0e		 mov	 ecx, DWORD PTR [esi]
; File C:\Program Files (x86)\Microsoft Visual Studio\2019\Community\VC\Tools\MSVC\14.29.30133\atlmfc\include\cstringt.h

; 2394 : 		return( strResult );

  00715	89 7d e4	 mov	 DWORD PTR $T15[ebp], edi
  00718	ff 70 f4	 push	 DWORD PTR [eax-12]
  0071b	50		 push	 eax
  0071c	ff 71 f4	 push	 DWORD PTR [ecx-12]
  0071f	8d 45 c8	 lea	 eax, DWORD PTR $T13[ebp]
  00722	51		 push	 ecx
  00723	50		 push	 eax
  00724	ff 15 00 00 00
	00		 call	 DWORD PTR __imp_?Concatenate@?$CSimpleStringT@D$00@ATL@@KAXAAV12@PBDH1H@Z
  0072a	83 c4 14	 add	 esp, 20			; 00000014H
; File D:\git\src\IBK\IBK_DRFN\ProjSrc\SrcChartEx\ChartOCX\AddInManager\ChartCommonAddIn\MousePositionExportingAddInImp.cpp

; 390  : 			m_strXScaleFormatedData = m_strXScaleFormatedData + strCompartment + szXScaleOriginalData.GetAt(nIdx);

  0072d	8d 4d dc	 lea	 ecx, DWORD PTR _szXScaleOriginalData$[ebp]
  00730	ff 75 d8	 push	 DWORD PTR _nIdx$1$[ebp]
  00733	ff 15 00 00 00
	00		 call	 DWORD PTR __imp_?GetAt@?$CSimpleStringT@D$00@ATL@@QBEDH@Z
  00739	8a d8		 mov	 bl, al
; File C:\Program Files (x86)\Microsoft Visual Studio\2019\Community\VC\Tools\MSVC\14.29.30133\atlmfc\include\cstringt.h

; 2429 : 		CStringT strResult( str1.GetManager() );

  0073b	8d 4d c8	 lea	 ecx, DWORD PTR $T13[ebp]
; File D:\git\src\IBK\IBK_DRFN\ProjSrc\SrcChartEx\ChartOCX\AddInManager\ChartCommonAddIn\MousePositionExportingAddInImp.cpp

; 390  : 			m_strXScaleFormatedData = m_strXScaleFormatedData + strCompartment + szXScaleOriginalData.GetAt(nIdx);

  0073e	c6 45 fc 0a	 mov	 BYTE PTR __$EHRec$[ebp+8], 10 ; 0000000aH
; File C:\Program Files (x86)\Microsoft Visual Studio\2019\Community\VC\Tools\MSVC\14.29.30133\atlmfc\include\cstringt.h

; 2429 : 		CStringT strResult( str1.GetManager() );

  00742	ff 15 00 00 00
	00		 call	 DWORD PTR __imp_?GetManager@?$CStringT@DV?$StrTraitMFC_DLL@DV?$ChTraitsCRT@D@ATL@@@@@ATL@@QBEPAUIAtlStringMgr@2@XZ
  00748	50		 push	 eax
  00749	8d 4d a8	 lea	 ecx, DWORD PTR $T5[ebp]
  0074c	ff 15 00 00 00
	00		 call	 DWORD PTR __imp_??0?$CStringT@DV?$StrTraitMFC_DLL@DV?$ChTraitsCRT@D@ATL@@@@@ATL@@QAE@PAUIAtlStringMgr@1@@Z
; File C:\Program Files (x86)\Microsoft Visual Studio\2019\Community\VC\Tools\MSVC\14.29.30133\atlmfc\include\atlsimpstr.h

; 519  : 		return( GetData()->nDataLength );

  00752	8b 45 c8	 mov	 eax, DWORD PTR $T13[ebp]
; File C:\Program Files (x86)\Microsoft Visual Studio\2019\Community\VC\Tools\MSVC\14.29.30133\atlmfc\include\cstringt.h

; 2432 : 		CThisSimpleString::Concatenate( strResult, str1, str1.GetLength(), &chTemp, 1 );

  00755	8d 4d f2	 lea	 ecx, DWORD PTR _chTemp$17[ebp]
  00758	6a 01		 push	 1
  0075a	51		 push	 ecx
  0075b	88 5d f2	 mov	 BYTE PTR _chTemp$17[ebp], bl

; 2433 : 
; 2434 : 		return( strResult );

  0075e	83 cf 04	 or	 edi, 4
  00761	ff 70 f4	 push	 DWORD PTR [eax-12]
  00764	89 7d e4	 mov	 DWORD PTR $T15[ebp], edi
  00767	50		 push	 eax
  00768	8d 45 a8	 lea	 eax, DWORD PTR $T5[ebp]
  0076b	50		 push	 eax
  0076c	ff 15 00 00 00
	00		 call	 DWORD PTR __imp_?Concatenate@?$CSimpleStringT@D$00@ATL@@KAXAAV12@PBDH1H@Z
  00772	83 c4 14	 add	 esp, 20			; 00000014H
; File D:\git\src\IBK\IBK_DRFN\ProjSrc\SrcChartEx\ChartOCX\AddInManager\ChartCommonAddIn\MousePositionExportingAddInImp.cpp

; 390  : 			m_strXScaleFormatedData = m_strXScaleFormatedData + strCompartment + szXScaleOriginalData.GetAt(nIdx);

  00775	8d 45 a8	 lea	 eax, DWORD PTR $T5[ebp]
  00778	8b ce		 mov	 ecx, esi
  0077a	50		 push	 eax
  0077b	ff 15 00 00 00
	00		 call	 DWORD PTR __imp_??4?$CStringT@DV?$StrTraitMFC_DLL@DV?$ChTraitsCRT@D@ATL@@@@@ATL@@QAEAAV01@ABV01@@Z
  00781	8d 4d a8	 lea	 ecx, DWORD PTR $T5[ebp]
  00784	83 e7 fb	 and	 edi, -5			; fffffffbH
  00787	ff 15 00 00 00
	00		 call	 DWORD PTR __imp_??1?$CStringT@DV?$StrTraitMFC_DLL@DV?$ChTraitsCRT@D@ATL@@@@@ATL@@QAE@XZ
  0078d	8d 4d c8	 lea	 ecx, DWORD PTR $T13[ebp]
  00790	c6 45 fc 08	 mov	 BYTE PTR __$EHRec$[ebp+8], 8
  00794	83 e7 fd	 and	 edi, -3			; fffffffdH
  00797	ff 15 00 00 00
	00		 call	 DWORD PTR __imp_??1?$CStringT@DV?$StrTraitMFC_DLL@DV?$ChTraitsCRT@D@ATL@@@@@ATL@@QAE@XZ

; 391  : 
; 392  : 			strChar = m_strPacketType.GetAt(nIdx);

  0079d	ff 75 d8	 push	 DWORD PTR _nIdx$1$[ebp]
  007a0	8b 4d a0	 mov	 ecx, DWORD PTR tv1708[ebp]
  007a3	ff 15 00 00 00
	00		 call	 DWORD PTR __imp_?GetAt@?$CSimpleStringT@D$00@ATL@@QBEDH@Z
  007a9	8a f8		 mov	 bh, al
$LN5@GetStringf:

; 352  : 	for( int nIdx = 1 ; nPacketTypeLength > nIdx ; nIdx++ )

  007ab	8b 45 d8	 mov	 eax, DWORD PTR _nIdx$1$[ebp]
  007ae	40		 inc	 eax
  007af	89 45 d8	 mov	 DWORD PTR _nIdx$1$[ebp], eax
  007b2	3b 45 a4	 cmp	 eax, DWORD PTR _nPacketTypeLength$1$[ebp]
  007b5	0f 8c c5 fa ff
	ff		 jl	 $LL7@GetStringf
  007bb	8b 75 98	 mov	 esi, DWORD PTR ___mlrs__$1$[ebp]
$LN6@GetStringf:
; File D:\git\src\IBK\IBK_DRFN\ProjSrc\SrcChartEx\ChartOCX\Include_Chart\Dll_Load\IMetaTable.h

; 1036 : 	{

  007be	c6 45 fc 13	 mov	 BYTE PTR __$EHRec$[ebp+8], 19 ; 00000013H
; File C:\Program Files (x86)\Microsoft Visual Studio\2019\Community\VC\Tools\MSVC\14.29.30133\atlmfc\include\afxwin1.inl

; 27   : 	{ ASSERT(hInstResource != NULL); afxCurrentResourceHandle = hInstResource; }

  007c2	e8 00 00 00 00	 call	 ?AfxGetModuleState@@YGPAVAFX_MODULE_STATE@@XZ ; AfxGetModuleState
; File D:\git\src\IBK\IBK_DRFN\ProjSrc\SrcChartEx\ChartOCX\AddInManager\ChartCommonAddIn\MousePositionExportingAddInImp.cpp

; 439  : 	return TRUE;

  007c7	8d 4d ec	 lea	 ecx, DWORD PTR _strPacketChar$[ebp]
; File C:\Program Files (x86)\Microsoft Visual Studio\2019\Community\VC\Tools\MSVC\14.29.30133\atlmfc\include\afxwin1.inl

; 27   : 	{ ASSERT(hInstResource != NULL); afxCurrentResourceHandle = hInstResource; }

  007ca	89 70 0c	 mov	 DWORD PTR [eax+12], esi
; File D:\git\src\IBK\IBK_DRFN\ProjSrc\SrcChartEx\ChartOCX\AddInManager\ChartCommonAddIn\MousePositionExportingAddInImp.cpp

; 439  : 	return TRUE;

  007cd	ff 15 00 00 00
	00		 call	 DWORD PTR __imp_??1?$CStringT@DV?$StrTraitMFC_DLL@DV?$ChTraitsCRT@D@ATL@@@@@ATL@@QAE@XZ
  007d3	8d 4d e0	 lea	 ecx, DWORD PTR _strCompartment$[ebp]
  007d6	ff 15 00 00 00
	00		 call	 DWORD PTR __imp_??1?$CStringT@DV?$StrTraitMFC_DLL@DV?$ChTraitsCRT@D@ATL@@@@@ATL@@QAE@XZ
  007dc	8d 4d dc	 lea	 ecx, DWORD PTR _szXScaleOriginalData$[ebp]
  007df	ff 15 00 00 00
	00		 call	 DWORD PTR __imp_??1?$CStringT@DV?$StrTraitMFC_DLL@DV?$ChTraitsCRT@D@ATL@@@@@ATL@@QAE@XZ
  007e5	b8 01 00 00 00	 mov	 eax, 1

; 440  : }

  007ea	8b 4d f4	 mov	 ecx, DWORD PTR __$EHRec$[ebp]
  007ed	64 89 0d 00 00
	00 00		 mov	 DWORD PTR fs:0, ecx
  007f4	59		 pop	 ecx
  007f5	5f		 pop	 edi
  007f6	5e		 pop	 esi
  007f7	5b		 pop	 ebx
  007f8	8b e5		 mov	 esp, ebp
  007fa	5d		 pop	 ebp
  007fb	c2 04 00	 ret	 4
_TEXT	ENDS
;	COMDAT text$x
text$x	SEGMENT
__unwindfunclet$?GetStringfromDataIdx@CMousePositionExportingAddInImp@@IAEHH@Z$0:
  00000	8d 4d 94	 lea	 ecx, DWORD PTR _szDateCompart$3[ebp]
  00003	e9 00 00 00 00	 jmp	 ??1ILPCSTR000000@@QAE@XZ ; ILPCSTR000000::~ILPCSTR000000
__unwindfunclet$?GetStringfromDataIdx@CMousePositionExportingAddInImp@@IAEHH@Z$1:
  00008	8d 4d 8c	 lea	 ecx, DWORD PTR _szTimeCompart$2[ebp]
  0000b	e9 00 00 00 00	 jmp	 ??1ILPCSTR000000@@QAE@XZ ; ILPCSTR000000::~ILPCSTR000000
__unwindfunclet$?GetStringfromDataIdx@CMousePositionExportingAddInImp@@IAEHH@Z$2:
  00010	8d 4d dc	 lea	 ecx, DWORD PTR _szXScaleOriginalData$[ebp]
  00013	ff 25 00 00 00
	00		 jmp	 DWORD PTR __imp_??1?$CStringT@DV?$StrTraitMFC_DLL@DV?$ChTraitsCRT@D@ATL@@@@@ATL@@QAE@XZ
__unwindfunclet$?GetStringfromDataIdx@CMousePositionExportingAddInImp@@IAEHH@Z$19:
  00019	8b 45 e4	 mov	 eax, DWORD PTR $T15[ebp]
  0001c	83 e0 01	 and	 eax, 1
  0001f	0f 84 0d 00 00
	00		 je	 $LN81@GetStringf
  00025	83 65 e4 fe	 and	 DWORD PTR $T15[ebp], -2	; fffffffeH
  00029	8d 4d c8	 lea	 ecx, DWORD PTR $T14[ebp]
  0002c	ff 25 00 00 00
	00		 jmp	 DWORD PTR __imp_??1?$CStringT@DV?$StrTraitMFC_DLL@DV?$ChTraitsCRT@D@ATL@@@@@ATL@@QAE@XZ
$LN81@GetStringf:
  00032	c3		 ret	 0
__unwindfunclet$?GetStringfromDataIdx@CMousePositionExportingAddInImp@@IAEHH@Z$4:
  00033	8d 4d e0	 lea	 ecx, DWORD PTR _strCompartment$[ebp]
  00036	ff 25 00 00 00
	00		 jmp	 DWORD PTR __imp_??1?$CStringT@DV?$StrTraitMFC_DLL@DV?$ChTraitsCRT@D@ATL@@@@@ATL@@QAE@XZ
__unwindfunclet$?GetStringfromDataIdx@CMousePositionExportingAddInImp@@IAEHH@Z$5:
  0003c	8d 4d ec	 lea	 ecx, DWORD PTR _strPacketChar$[ebp]
  0003f	ff 25 00 00 00
	00		 jmp	 DWORD PTR __imp_??1?$CStringT@DV?$StrTraitMFC_DLL@DV?$ChTraitsCRT@D@ATL@@@@@ATL@@QAE@XZ
__unwindfunclet$?GetStringfromDataIdx@CMousePositionExportingAddInImp@@IAEHH@Z$6:
  00045	8d 4d 90	 lea	 ecx, DWORD PTR ___mlrs__$[ebp]
  00048	e9 00 00 00 00	 jmp	 ??1CMultiLanguageResourceSetter@@QAE@XZ ; CMultiLanguageResourceSetter::~CMultiLanguageResourceSetter
__unwindfunclet$?GetStringfromDataIdx@CMousePositionExportingAddInImp@@IAEHH@Z$22:
  0004d	8b 45 e4	 mov	 eax, DWORD PTR $T15[ebp]
  00050	83 e0 08	 and	 eax, 8
  00053	0f 84 0d 00 00
	00		 je	 $LN203@GetStringf
  00059	83 65 e4 f7	 and	 DWORD PTR $T15[ebp], -9	; fffffff7H
  0005d	8d 4d c4	 lea	 ecx, DWORD PTR $T12[ebp]
  00060	ff 25 00 00 00
	00		 jmp	 DWORD PTR __imp_??1?$CStringT@DV?$StrTraitMFC_DLL@DV?$ChTraitsCRT@D@ATL@@@@@ATL@@QAE@XZ
$LN203@GetStringf:
  00066	c3		 ret	 0
__unwindfunclet$?GetStringfromDataIdx@CMousePositionExportingAddInImp@@IAEHH@Z$10:
  00067	8d 4d e8	 lea	 ecx, DWORD PTR _strComp$16[ebp]
  0006a	ff 25 00 00 00
	00		 jmp	 DWORD PTR __imp_??1?$CStringT@DV?$StrTraitMFC_DLL@DV?$ChTraitsCRT@D@ATL@@@@@ATL@@QAE@XZ
__unwindfunclet$?GetStringfromDataIdx@CMousePositionExportingAddInImp@@IAEHH@Z$23:
  00070	8b 45 e4	 mov	 eax, DWORD PTR $T15[ebp]
  00073	83 e0 10	 and	 eax, 16			; 00000010H
  00076	0f 84 0d 00 00
	00		 je	 $LN213@GetStringf
  0007c	83 65 e4 ef	 and	 DWORD PTR $T15[ebp], -17 ; ffffffefH
  00080	8d 4d c0	 lea	 ecx, DWORD PTR $T11[ebp]
  00083	ff 25 00 00 00
	00		 jmp	 DWORD PTR __imp_??1?$CStringT@DV?$StrTraitMFC_DLL@DV?$ChTraitsCRT@D@ATL@@@@@ATL@@QAE@XZ
$LN213@GetStringf:
  00089	c3		 ret	 0
__unwindfunclet$?GetStringfromDataIdx@CMousePositionExportingAddInImp@@IAEHH@Z$24:
  0008a	8b 45 e4	 mov	 eax, DWORD PTR $T15[ebp]
  0008d	83 e0 20	 and	 eax, 32			; 00000020H
  00090	0f 84 0d 00 00
	00		 je	 $LN229@GetStringf
  00096	83 65 e4 df	 and	 DWORD PTR $T15[ebp], -33 ; ffffffdfH
  0009a	8d 4d bc	 lea	 ecx, DWORD PTR $T10[ebp]
  0009d	ff 25 00 00 00
	00		 jmp	 DWORD PTR __imp_??1?$CStringT@DV?$StrTraitMFC_DLL@DV?$ChTraitsCRT@D@ATL@@@@@ATL@@QAE@XZ
$LN229@GetStringf:
  000a3	c3		 ret	 0
__unwindfunclet$?GetStringfromDataIdx@CMousePositionExportingAddInImp@@IAEHH@Z$27:
  000a4	8b 45 e4	 mov	 eax, DWORD PTR $T15[ebp]
  000a7	25 00 01 00 00	 and	 eax, 256		; 00000100H
  000ac	0f 84 10 00 00
	00		 je	 $LN277@GetStringf
  000b2	81 65 e4 ff fe
	ff ff		 and	 DWORD PTR $T15[ebp], -257 ; fffffeffH
  000b9	8d 4d b8	 lea	 ecx, DWORD PTR $T9[ebp]
  000bc	ff 25 00 00 00
	00		 jmp	 DWORD PTR __imp_??1?$CStringT@DV?$StrTraitMFC_DLL@DV?$ChTraitsCRT@D@ATL@@@@@ATL@@QAE@XZ
$LN277@GetStringf:
  000c2	c3		 ret	 0
__unwindfunclet$?GetStringfromDataIdx@CMousePositionExportingAddInImp@@IAEHH@Z$25:
  000c3	8b 45 e4	 mov	 eax, DWORD PTR $T15[ebp]
  000c6	83 e0 40	 and	 eax, 64			; 00000040H
  000c9	0f 84 0d 00 00
	00		 je	 $LN245@GetStringf
  000cf	83 65 e4 bf	 and	 DWORD PTR $T15[ebp], -65 ; ffffffbfH
  000d3	8d 4d b4	 lea	 ecx, DWORD PTR $T8[ebp]
  000d6	ff 25 00 00 00
	00		 jmp	 DWORD PTR __imp_??1?$CStringT@DV?$StrTraitMFC_DLL@DV?$ChTraitsCRT@D@ATL@@@@@ATL@@QAE@XZ
$LN245@GetStringf:
  000dc	c3		 ret	 0
__unwindfunclet$?GetStringfromDataIdx@CMousePositionExportingAddInImp@@IAEHH@Z$26:
  000dd	8b 45 e4	 mov	 eax, DWORD PTR $T15[ebp]
  000e0	25 80 00 00 00	 and	 eax, 128		; 00000080H
  000e5	0f 84 10 00 00
	00		 je	 $LN261@GetStringf
  000eb	81 65 e4 7f ff
	ff ff		 and	 DWORD PTR $T15[ebp], -129 ; ffffff7fH
  000f2	8d 4d b0	 lea	 ecx, DWORD PTR $T7[ebp]
  000f5	ff 25 00 00 00
	00		 jmp	 DWORD PTR __imp_??1?$CStringT@DV?$StrTraitMFC_DLL@DV?$ChTraitsCRT@D@ATL@@@@@ATL@@QAE@XZ
$LN261@GetStringf:
  000fb	c3		 ret	 0
__unwindfunclet$?GetStringfromDataIdx@CMousePositionExportingAddInImp@@IAEHH@Z$28:
  000fc	8b 45 e4	 mov	 eax, DWORD PTR $T15[ebp]
  000ff	25 00 02 00 00	 and	 eax, 512		; 00000200H
  00104	0f 84 10 00 00
	00		 je	 $LN293@GetStringf
  0010a	81 65 e4 ff fd
	ff ff		 and	 DWORD PTR $T15[ebp], -513 ; fffffdffH
  00111	8d 4d ac	 lea	 ecx, DWORD PTR $T6[ebp]
  00114	ff 25 00 00 00
	00		 jmp	 DWORD PTR __imp_??1?$CStringT@DV?$StrTraitMFC_DLL@DV?$ChTraitsCRT@D@ATL@@@@@ATL@@QAE@XZ
$LN293@GetStringf:
  0011a	c3		 ret	 0
__unwindfunclet$?GetStringfromDataIdx@CMousePositionExportingAddInImp@@IAEHH@Z$20:
  0011b	8b 45 e4	 mov	 eax, DWORD PTR $T15[ebp]
  0011e	83 e0 02	 and	 eax, 2
  00121	0f 84 0d 00 00
	00		 je	 $LN177@GetStringf
  00127	83 65 e4 fd	 and	 DWORD PTR $T15[ebp], -3	; fffffffdH
  0012b	8d 4d c8	 lea	 ecx, DWORD PTR $T13[ebp]
  0012e	ff 25 00 00 00
	00		 jmp	 DWORD PTR __imp_??1?$CStringT@DV?$StrTraitMFC_DLL@DV?$ChTraitsCRT@D@ATL@@@@@ATL@@QAE@XZ
$LN177@GetStringf:
  00134	c3		 ret	 0
__unwindfunclet$?GetStringfromDataIdx@CMousePositionExportingAddInImp@@IAEHH@Z$21:
  00135	8b 45 e4	 mov	 eax, DWORD PTR $T15[ebp]
  00138	83 e0 04	 and	 eax, 4
  0013b	0f 84 0d 00 00
	00		 je	 $LN193@GetStringf
  00141	83 65 e4 fb	 and	 DWORD PTR $T15[ebp], -5	; fffffffbH
  00145	8d 4d a8	 lea	 ecx, DWORD PTR $T5[ebp]
  00148	ff 25 00 00 00
	00		 jmp	 DWORD PTR __imp_??1?$CStringT@DV?$StrTraitMFC_DLL@DV?$ChTraitsCRT@D@ATL@@@@@ATL@@QAE@XZ
$LN193@GetStringf:
  0014e	c3		 ret	 0
  0014f	cc		 int	 3
  00150	cc		 int	 3
  00151	cc		 int	 3
  00152	cc		 int	 3
  00153	cc		 int	 3
__ehhandler$?GetStringfromDataIdx@CMousePositionExportingAddInImp@@IAEHH@Z:
  00154	90		 npad	 1
  00155	90		 npad	 1
  00156	8b 54 24 08	 mov	 edx, DWORD PTR [esp+8]
  0015a	8d 42 0c	 lea	 eax, DWORD PTR [edx+12]
  0015d	8b 4a 88	 mov	 ecx, DWORD PTR [edx-120]
  00160	33 c8		 xor	 ecx, eax
  00162	e8 00 00 00 00	 call	 @__security_check_cookie@4
  00167	b8 00 00 00 00	 mov	 eax, OFFSET __ehfuncinfo$?GetStringfromDataIdx@CMousePositionExportingAddInImp@@IAEHH@Z
  0016c	e9 00 00 00 00	 jmp	 ___CxxFrameHandler3
text$x	ENDS
?GetStringfromDataIdx@CMousePositionExportingAddInImp@@IAEHH@Z ENDP ; CMousePositionExportingAddInImp::GetStringfromDataIdx
; Function compile flags: /Ogtp
; File D:\git\src\IBK\IBK_DRFN\ProjSrc\SrcChartEx\ChartOCX\AddInManager\ChartCommonAddIn\MousePositionExportingAddInImp.cpp
; File C:\Program Files (x86)\Microsoft Visual Studio\2019\Community\VC\Tools\MSVC\14.29.30133\atlmfc\include\atltypes.h
; File D:\git\src\IBK\IBK_DRFN\ProjSrc\SrcChartEx\ChartOCX\AddInManager\ChartCommonAddIn\MousePositionExportingAddInImp.cpp
; File C:\Program Files (x86)\Microsoft Visual Studio\2019\Community\VC\Tools\MSVC\14.29.30133\atlmfc\include\atltypes.h
; File D:\git\src\IBK\IBK_DRFN\ProjSrc\SrcChartEx\ChartOCX\AddInManager\ChartCommonAddIn\MousePositionExportingAddInImp.cpp
; File C:\Program Files (x86)\Microsoft Visual Studio\2019\Community\VC\Tools\MSVC\14.29.30133\atlmfc\include\atltypes.h
; File D:\git\src\IBK\IBK_DRFN\ProjSrc\SrcChartEx\ChartOCX\AddInManager\ChartCommonAddIn\MousePositionExportingAddInImp.cpp
; File C:\Program Files (x86)\Microsoft Visual Studio\2019\Community\VC\Tools\MSVC\14.29.30133\atlmfc\include\atltypes.h
; File D:\git\src\IBK\IBK_DRFN\ProjSrc\SrcChartEx\ChartOCX\AddInManager\ChartCommonAddIn\MousePositionExportingAddInImp.cpp
; File C:\Program Files (x86)\Microsoft Visual Studio\2019\Community\VC\Tools\MSVC\14.29.30133\atlmfc\include\atltypes.h
; File D:\git\src\IBK\IBK_DRFN\ProjSrc\SrcChartEx\ChartOCX\AddInManager\ChartCommonAddIn\MousePositionExportingAddInImp.cpp
; File C:\Program Files (x86)\Microsoft Visual Studio\2019\Community\VC\Tools\MSVC\14.29.30133\atlmfc\include\atltypes.h
; File D:\git\src\IBK\IBK_DRFN\ProjSrc\SrcChartEx\ChartOCX\AddInManager\ChartCommonAddIn\MousePositionExportingAddInImp.cpp
;	COMDAT ?GetScaleData@CMousePositionExportingAddInImp@@IAEHVCPoint@@@Z
_TEXT	SEGMENT
_dDataType$ = -68					; size = 8
_this$GSCopy$1$ = -60					; size = 4
_strFormat$2 = -56					; size = 4
_pIPacket$ = -52					; size = 4
$T3 = -48						; size = 16
_dViewMax$4 = -40					; size = 8
_nColumn$5 = -36					; size = 4
_rctNoFrameAndMargin$6 = -32				; size = 16
_dViewMin$7 = -24					; size = 8
_nRow$8 = -20						; size = 4
__$ArrayPad$ = -16					; size = 4
__$EHRec$ = -12						; size = 12
_ptPoint$ = 8						; size = 8
?GetScaleData@CMousePositionExportingAddInImp@@IAEHVCPoint@@@Z PROC ; CMousePositionExportingAddInImp::GetScaleData, COMDAT
; _this$ = ecx

; 100  : {

  00000	55		 push	 ebp
  00001	8b ec		 mov	 ebp, esp
  00003	6a ff		 push	 -1
  00005	68 00 00 00 00	 push	 __ehhandler$?GetScaleData@CMousePositionExportingAddInImp@@IAEHVCPoint@@@Z
  0000a	64 a1 00 00 00
	00		 mov	 eax, DWORD PTR fs:0
  00010	50		 push	 eax
  00011	83 ec 38	 sub	 esp, 56			; 00000038H
  00014	a1 00 00 00 00	 mov	 eax, DWORD PTR ___security_cookie
  00019	33 c5		 xor	 eax, ebp
  0001b	89 45 f0	 mov	 DWORD PTR __$ArrayPad$[ebp], eax
  0001e	56		 push	 esi
  0001f	57		 push	 edi
  00020	50		 push	 eax
  00021	8d 45 f4	 lea	 eax, DWORD PTR __$EHRec$[ebp]
  00024	64 a3 00 00 00
	00		 mov	 DWORD PTR fs:0, eax
  0002a	8b f1		 mov	 esi, ecx
  0002c	89 75 c4	 mov	 DWORD PTR _this$GSCopy$1$[ebp], esi

; 171  : 	if( !m_pIChartManager->GetBlockIndex( ptPoint, nRow, nColumn))

  0002f	8b 4e 24	 mov	 ecx, DWORD PTR [esi+36]
  00032	8d 55 dc	 lea	 edx, DWORD PTR _nColumn$5[ebp]
  00035	52		 push	 edx
  00036	8d 55 ec	 lea	 edx, DWORD PTR _nRow$8[ebp]
  00039	52		 push	 edx
  0003a	8b 01		 mov	 eax, DWORD PTR [ecx]
  0003c	ff 75 0c	 push	 DWORD PTR _ptPoint$[ebp+4]
  0003f	ff 75 08	 push	 DWORD PTR _ptPoint$[ebp]
  00042	8b 80 8c 00 00
	00		 mov	 eax, DWORD PTR [eax+140]
  00048	ff d0		 call	 eax
  0004a	85 c0		 test	 eax, eax
  0004c	0f 84 5d 01 00
	00		 je	 $LN7@GetScaleDa

; 172  : 		return FALSE;
; 173  : 
; 174  : 	if( m_pIBlock )

  00052	8b 8e 88 00 00
	00		 mov	 ecx, DWORD PTR [esi+136]
  00058	85 c9		 test	 ecx, ecx
  0005a	74 10		 je	 SHORT $LN17@GetScaleDa

; 175  : 	{
; 176  : 		m_pIBlock->Release();

  0005c	8b 01		 mov	 eax, DWORD PTR [ecx]
  0005e	51		 push	 ecx
  0005f	ff 50 08	 call	 DWORD PTR [eax+8]

; 177  : 		m_pIBlock= NULL;

  00062	c7 86 88 00 00
	00 00 00 00 00	 mov	 DWORD PTR [esi+136], 0
$LN17@GetScaleDa:

; 178  : 	}
; 179  : 
; 180  : 	// 2. Row, Column Block .
; 181  : 	m_pIBlock = m_pIChartManager->GetBlock( nRow, nColumn );

  0006c	8b 4e 24	 mov	 ecx, DWORD PTR [esi+36]
  0006f	ff 75 dc	 push	 DWORD PTR _nColumn$5[ebp]
  00072	ff 75 ec	 push	 DWORD PTR _nRow$8[ebp]
  00075	8b 01		 mov	 eax, DWORD PTR [ecx]
  00077	8b 40 38	 mov	 eax, DWORD PTR [eax+56]
  0007a	ff d0		 call	 eax
  0007c	89 86 88 00 00
	00		 mov	 DWORD PTR [esi+136], eax

; 182  : 	if( !m_pIBlock )

  00082	85 c0		 test	 eax, eax
  00084	0f 84 25 01 00
	00		 je	 $LN7@GetScaleDa
  0008a	0f 57 c0	 xorps	 xmm0, xmm0

; 204  : 	m_pIBlock->GetGraphRegions( m_rctBlockRegion, rctNoFrameAndMargin);

  0008d	8d 4d e0	 lea	 ecx, DWORD PTR _rctNoFrameAndMargin$6[ebp]
; File C:\Program Files (x86)\Microsoft Visual Studio\2019\Community\VC\Tools\MSVC\14.29.30133\atlmfc\include\atltypes.h

; 528  : 	left = 0;

  00090	0f 11 45 e0	 movups	 XMMWORD PTR _rctNoFrameAndMargin$6[ebp], xmm0
; File D:\git\src\IBK\IBK_DRFN\ProjSrc\SrcChartEx\ChartOCX\AddInManager\ChartCommonAddIn\MousePositionExportingAddInImp.cpp

; 204  : 	m_pIBlock->GetGraphRegions( m_rctBlockRegion, rctNoFrameAndMargin);

  00094	8b 10		 mov	 edx, DWORD PTR [eax]
  00096	8d 7e 50	 lea	 edi, DWORD PTR [esi+80]
  00099	51		 push	 ecx
  0009a	57		 push	 edi
  0009b	8b c8		 mov	 ecx, eax
  0009d	ff 52 10	 call	 DWORD PTR [edx+16]

; 207  : 	m_rctGraphDrawingRegion = m_pIBlock->GetGraphDrwingRegion();

  000a0	8b 8e 88 00 00
	00		 mov	 ecx, DWORD PTR [esi+136]
  000a6	8d 55 d0	 lea	 edx, DWORD PTR $T3[ebp]
  000a9	6a 00		 push	 0
  000ab	52		 push	 edx
  000ac	8b 01		 mov	 eax, DWORD PTR [ecx]
  000ae	8b 40 1c	 mov	 eax, DWORD PTR [eax+28]
  000b1	ff d0		 call	 eax
; File C:\Program Files (x86)\Microsoft Visual Studio\2019\Community\VC\Tools\MSVC\14.29.30133\atlmfc\include\atltypes.h

; 765  : 	::CopyRect(this, &srcRect);

  000b3	50		 push	 eax
; File D:\git\src\IBK\IBK_DRFN\ProjSrc\SrcChartEx\ChartOCX\AddInManager\ChartCommonAddIn\MousePositionExportingAddInImp.cpp

; 207  : 	m_rctGraphDrawingRegion = m_pIBlock->GetGraphDrwingRegion();

  000b4	83 c6 40	 add	 esi, 64			; 00000040H
; File C:\Program Files (x86)\Microsoft Visual Studio\2019\Community\VC\Tools\MSVC\14.29.30133\atlmfc\include\atltypes.h

; 765  : 	::CopyRect(this, &srcRect);

  000b7	56		 push	 esi
  000b8	ff 15 00 00 00
	00		 call	 DWORD PTR __imp__CopyRect@8

; 648  : 	return ::PtInRect(this, point);

  000be	ff 75 0c	 push	 DWORD PTR _ptPoint$[ebp+4]
; File D:\git\src\IBK\IBK_DRFN\ProjSrc\SrcChartEx\ChartOCX\AddInManager\ChartCommonAddIn\MousePositionExportingAddInImp.cpp

; 211  : 	m_rctBlockRegion.right = m_rctGraphDrawingRegion.right;

  000c1	8b 4d c4	 mov	 ecx, DWORD PTR _this$GSCopy$1$[ebp]
  000c4	8b 06		 mov	 eax, DWORD PTR [esi]
; File C:\Program Files (x86)\Microsoft Visual Studio\2019\Community\VC\Tools\MSVC\14.29.30133\atlmfc\include\atltypes.h

; 648  : 	return ::PtInRect(this, point);

  000c6	ff 75 08	 push	 DWORD PTR _ptPoint$[ebp]
; File D:\git\src\IBK\IBK_DRFN\ProjSrc\SrcChartEx\ChartOCX\AddInManager\ChartCommonAddIn\MousePositionExportingAddInImp.cpp

; 210  : 	m_rctBlockRegion.left = m_rctGraphDrawingRegion.left;

  000c9	89 07		 mov	 DWORD PTR [edi], eax

; 211  : 	m_rctBlockRegion.right = m_rctGraphDrawingRegion.right;

  000cb	8b 41 48	 mov	 eax, DWORD PTR [ecx+72]
; File C:\Program Files (x86)\Microsoft Visual Studio\2019\Community\VC\Tools\MSVC\14.29.30133\atlmfc\include\atltypes.h

; 648  : 	return ::PtInRect(this, point);

  000ce	57		 push	 edi
; File D:\git\src\IBK\IBK_DRFN\ProjSrc\SrcChartEx\ChartOCX\AddInManager\ChartCommonAddIn\MousePositionExportingAddInImp.cpp

; 211  : 	m_rctBlockRegion.right = m_rctGraphDrawingRegion.right;

  000cf	89 41 58	 mov	 DWORD PTR [ecx+88], eax
; File C:\Program Files (x86)\Microsoft Visual Studio\2019\Community\VC\Tools\MSVC\14.29.30133\atlmfc\include\atltypes.h

; 648  : 	return ::PtInRect(this, point);

  000d2	ff 15 00 00 00
	00		 call	 DWORD PTR __imp__PtInRect@12
; File D:\git\src\IBK\IBK_DRFN\ProjSrc\SrcChartEx\ChartOCX\AddInManager\ChartCommonAddIn\MousePositionExportingAddInImp.cpp

; 214  : 	if( !m_rctBlockRegion.PtInRect(ptPoint) ) 

  000d8	85 c0		 test	 eax, eax
  000da	0f 84 cf 00 00
	00		 je	 $LN7@GetScaleDa

; 101  : 	// 1. Block .
; 102  : 	if( !GetIBlock( ptPoint ) )
; 103  : 		return FALSE;
; 104  : 
; 105  : 
; 106  : 	// 2. Graph  .
; 107  : 	if( !GetGraphBlockRegion( ptPoint ) )
; 108  : 		return FALSE;
; 109  : 	
; 110  : 
; 111  : 	if( !GetXScaleDataInPoint(ptPoint) )

  000e0	ff 75 0c	 push	 DWORD PTR _ptPoint$[ebp+4]
  000e3	8b 7d c4	 mov	 edi, DWORD PTR _this$GSCopy$1$[ebp]
  000e6	8b cf		 mov	 ecx, edi
  000e8	ff 75 08	 push	 DWORD PTR _ptPoint$[ebp]
  000eb	e8 00 00 00 00	 call	 ?GetXScaleDataInPoint@CMousePositionExportingAddInImp@@IAEHVCPoint@@@Z ; CMousePositionExportingAddInImp::GetXScaleDataInPoint
  000f0	85 c0		 test	 eax, eax
  000f2	0f 84 b7 00 00
	00		 je	 $LN7@GetScaleDa

; 286  : 	m_nVScaleGroupIndex = m_pIBlock->GetFirstVisibleVScaleIndex();

  000f8	8b 8f 88 00 00
	00		 mov	 ecx, DWORD PTR [edi+136]
  000fe	8b 01		 mov	 eax, DWORD PTR [ecx]
  00100	8b 40 40	 mov	 eax, DWORD PTR [eax+64]
  00103	ff d0		 call	 eax

; 287  : 	m_pIBlock->GetVScaleGroupMinMax( m_nVScaleGroupIndex, dViewMin, dViewMax);

  00105	8b 8f 88 00 00
	00		 mov	 ecx, DWORD PTR [edi+136]
  0010b	8d 75 d8	 lea	 esi, DWORD PTR _dViewMax$4[ebp]
  0010e	56		 push	 esi
  0010f	89 87 84 00 00
	00		 mov	 DWORD PTR [edi+132], eax
  00115	8d 75 e8	 lea	 esi, DWORD PTR _dViewMin$7[ebp]
  00118	56		 push	 esi
  00119	8b 11		 mov	 edx, DWORD PTR [ecx]
  0011b	50		 push	 eax
  0011c	ff 52 48	 call	 DWORD PTR [edx+72]

; 288  : 
; 289  : 	// Block Log/    Data . (<->Y Pos)
; 290  : 	//  Block Log/  .
; 291  : 	BOOL bLog = m_pIBlock->IsLogScale();

  0011f	8b 8f 88 00 00
	00		 mov	 ecx, DWORD PTR [edi+136]
  00125	8b 01		 mov	 eax, DWORD PTR [ecx]
  00127	8b 40 24	 mov	 eax, DWORD PTR [eax+36]
  0012a	ff d0		 call	 eax

; 292  : 	BOOL bReverse = m_pIBlock->IsVScaleInvert( m_nVScaleGroupIndex);

  0012c	8b 8f 88 00 00
	00		 mov	 ecx, DWORD PTR [edi+136]
  00132	8b f0		 mov	 esi, eax
  00134	ff b7 84 00 00
	00		 push	 DWORD PTR [edi+132]
  0013a	8b 11		 mov	 edx, DWORD PTR [ecx]
  0013c	8b 52 58	 mov	 edx, DWORD PTR [edx+88]
  0013f	ff d2		 call	 edx

; 293  : 
; 294  : 	m_dYScaleOriginalData = m_pIChartOCX->ConvertYPositionToData( ptPoint.y,

  00141	f2 0f 10 45 e8	 movsd	 xmm0, QWORD PTR _dViewMin$7[ebp]
  00146	8b 4f 0c	 mov	 ecx, DWORD PTR [edi+12]
  00149	50		 push	 eax
  0014a	56		 push	 esi
  0014b	83 ec 10	 sub	 esp, 16			; 00000010H
  0014e	8b 11		 mov	 edx, DWORD PTR [ecx]
  00150	f2 0f 11 44 24
	08		 movsd	 QWORD PTR [esp+8], xmm0
  00156	f2 0f 10 45 d8	 movsd	 xmm0, QWORD PTR _dViewMax$4[ebp]
  0015b	8b 82 30 01 00
	00		 mov	 eax, DWORD PTR [edx+304]
  00161	f2 0f 11 04 24	 movsd	 QWORD PTR [esp], xmm0
  00166	ff 77 4c	 push	 DWORD PTR [edi+76]
  00169	ff 77 44	 push	 DWORD PTR [edi+68]
  0016c	ff 75 0c	 push	 DWORD PTR _ptPoint$[ebp+4]
  0016f	ff d0		 call	 eax

; 119  : 	BOOL bResult = m_pIBlock->GetVScaleGroupHeadPacketAndDataType( m_nVScaleGroupIndex, pIPacket, dDataType);

  00171	8b 8f 88 00 00
	00		 mov	 ecx, DWORD PTR [edi+136]
  00177	8d 55 bc	 lea	 edx, DWORD PTR _dDataType$[ebp]
  0017a	0f 57 c0	 xorps	 xmm0, xmm0
  0017d	c7 45 cc 00 00
	00 00		 mov	 DWORD PTR _pIPacket$[ebp], 0
  00184	52		 push	 edx

; 294  : 	m_dYScaleOriginalData = m_pIChartOCX->ConvertYPositionToData( ptPoint.y,

  00185	dd 5f 78	 fstp	 QWORD PTR [edi+120]

; 112  : 		return FALSE;
; 113  : 	
; 114  : 	if( !GetYScaleDataInPoint(ptPoint) )
; 115  : 		return FALSE;
; 116  : 
; 117  : 	IPacket *pIPacket = NULL;
; 118  : 	double dDataType = 0.0L;

  00188	f2 0f 11 45 bc	 movsd	 QWORD PTR _dDataType$[ebp], xmm0

; 119  : 	BOOL bResult = m_pIBlock->GetVScaleGroupHeadPacketAndDataType( m_nVScaleGroupIndex, pIPacket, dDataType);

  0018d	8d 55 cc	 lea	 edx, DWORD PTR _pIPacket$[ebp]
  00190	8b 01		 mov	 eax, DWORD PTR [ecx]
  00192	52		 push	 edx
  00193	ff b7 84 00 00
	00		 push	 DWORD PTR [edi+132]
  00199	8b 40 4c	 mov	 eax, DWORD PTR [eax+76]
  0019c	ff d0		 call	 eax

; 120  : 	if( !bResult)

  0019e	85 c0		 test	 eax, eax
  001a0	75 2c		 jne	 SHORT $LN6@GetScaleDa

; 121  : 	{
; 122  : 		if( pIPacket) pIPacket->Release();

  001a2	8b 4d cc	 mov	 ecx, DWORD PTR _pIPacket$[ebp]
  001a5	85 c9		 test	 ecx, ecx
  001a7	74 06		 je	 SHORT $LN7@GetScaleDa
  001a9	8b 01		 mov	 eax, DWORD PTR [ecx]
  001ab	51		 push	 ecx
  001ac	ff 50 08	 call	 DWORD PTR [eax+8]
$LN7@GetScaleDa:

; 123  : 		return FALSE;

  001af	33 c0		 xor	 eax, eax
$LN1@GetScaleDa:

; 158  : }

  001b1	8b 4d f4	 mov	 ecx, DWORD PTR __$EHRec$[ebp]
  001b4	64 89 0d 00 00
	00 00		 mov	 DWORD PTR fs:0, ecx
  001bb	59		 pop	 ecx
  001bc	5f		 pop	 edi
  001bd	5e		 pop	 esi
  001be	8b 4d f0	 mov	 ecx, DWORD PTR __$ArrayPad$[ebp]
  001c1	33 cd		 xor	 ecx, ebp
  001c3	e8 00 00 00 00	 call	 @__security_check_cookie@4
  001c8	8b e5		 mov	 esp, ebp
  001ca	5d		 pop	 ebp
  001cb	c2 08 00	 ret	 8
$LN6@GetScaleDa:

; 124  : 	}
; 125  : 
; 126  : 	if( pIPacket)

  001ce	83 7d cc 00	 cmp	 DWORD PTR _pIPacket$[ebp], 0
  001d2	0f 84 c3 00 00
	00		 je	 $LN8@GetScaleDa

; 127  : 	{
; 128  : 		//  (Precision)   String   .
; 129  : 		int nDecimal = 0;
; 130  : 
; 131  : 		if( dDataType != 0)

  001d8	f2 0f 10 45 bc	 movsd	 xmm0, QWORD PTR _dDataType$[ebp]
  001dd	33 f6		 xor	 esi, esi
  001df	66 0f 2e 05 00
	00 00 00	 ucomisd xmm0, QWORD PTR __real@0000000000000000
  001e7	9f		 lahf
  001e8	f6 c4 44	 test	 ah, 68			; 00000044H
  001eb	7b 3f		 jnp	 SHORT $LN48@GetScaleDa

; 132  : 		{
; 133  : 			m_dYScaleOriginalData = int( m_dYScaleOriginalData / dDataType + 0.5) * dDataType;

  001ed	f2 0f 10 4f 78	 movsd	 xmm1, QWORD PTR [edi+120]
  001f2	f2 0f 5e c8	 divsd	 xmm1, xmm0
  001f6	f2 0f 58 0d 00
	00 00 00	 addsd	 xmm1, QWORD PTR __real@3fe0000000000000
  001fe	f2 0f 2c c1	 cvttsd2si eax, xmm1
  00202	66 0f 6e c8	 movd	 xmm1, eax
  00206	f3 0f e6 c9	 cvtdq2pd xmm1, xmm1
  0020a	f2 0f 59 c8	 mulsd	 xmm1, xmm0
  0020e	f2 0f 11 4f 78	 movsd	 QWORD PTR [edi+120], xmm1

; 134  : 			// double Int    Int      100   .
; 135  : 			nDecimal = ( int)( ( log10( dDataType) * 100) / 100);	

  00213	e8 00 00 00 00	 call	 __libm_sse2_log10_precise
  00218	f2 0f 59 05 00
	00 00 00	 mulsd	 xmm0, QWORD PTR __real@4059000000000000
  00220	f2 0f 5e 05 00
	00 00 00	 divsd	 xmm0, QWORD PTR __real@4059000000000000
  00228	f2 0f 2c f0	 cvttsd2si esi, xmm0
$LN48@GetScaleDa:

; 136  : 		}
; 137  : 	
; 138  : 		CString strFormat;

  0022c	8d 4d c8	 lea	 ecx, DWORD PTR _strFormat$2[ebp]
  0022f	ff 15 00 00 00
	00		 call	 DWORD PTR __imp_??0?$CStringT@DV?$StrTraitMFC_DLL@DV?$ChTraitsCRT@D@ATL@@@@@ATL@@QAE@XZ
  00235	c7 45 fc 00 00
	00 00		 mov	 DWORD PTR __$EHRec$[ebp+8], 0

; 139  : 		if( 0 <= nDecimal)

  0023c	85 f6		 test	 esi, esi
  0023e	78 10		 js	 SHORT $LN10@GetScaleDa

; 140  : 			strFormat = "%.0f";

  00240	68 00 00 00 00	 push	 OFFSET ??_C@_04GHNNFJCK@?$CF?40f@
  00245	8d 4d c8	 lea	 ecx, DWORD PTR _strFormat$2[ebp]
  00248	ff 15 00 00 00
	00		 call	 DWORD PTR __imp_??4?$CStringT@DV?$StrTraitMFC_DLL@DV?$ChTraitsCRT@D@ATL@@@@@ATL@@QAEAAV01@PBD@Z
  0024e	eb 15		 jmp	 SHORT $LN11@GetScaleDa
$LN10@GetScaleDa:

; 141  : 		else
; 142  : 			strFormat.Format( "%%.%df", -nDecimal);

  00250	f7 de		 neg	 esi
  00252	8d 45 c8	 lea	 eax, DWORD PTR _strFormat$2[ebp]
  00255	56		 push	 esi
  00256	68 00 00 00 00	 push	 OFFSET ??_C@_06DNBDMDIL@?$CF?$CF?4?$CFdf@
  0025b	50		 push	 eax
  0025c	ff 15 00 00 00
	00		 call	 DWORD PTR __imp_?Format@?$CStringT@DV?$StrTraitMFC_DLL@DV?$ChTraitsCRT@D@ATL@@@@@ATL@@QAAXPBDZZ
  00262	83 c4 0c	 add	 esp, 12			; 0000000cH
$LN11@GetScaleDa:

; 143  : 				
; 144  : 
; 145  : 		m_strYScaleFormatedData.Format( strFormat, m_dYScaleOriginalData);

  00265	f2 0f 10 47 78	 movsd	 xmm0, QWORD PTR [edi+120]
  0026a	8d 47 6c	 lea	 eax, DWORD PTR [edi+108]
  0026d	83 ec 08	 sub	 esp, 8
  00270	f2 0f 11 04 24	 movsd	 QWORD PTR [esp], xmm0
  00275	ff 75 c8	 push	 DWORD PTR _strFormat$2[ebp]
  00278	50		 push	 eax
  00279	ff 15 00 00 00
	00		 call	 DWORD PTR __imp_?Format@?$CStringT@DV?$StrTraitMFC_DLL@DV?$ChTraitsCRT@D@ATL@@@@@ATL@@QAAXPBDZZ

; 146  : 		
; 147  : #ifdef _DEBUG
; 148  : 	TRACE( "%s : %f\r\n", m_strYScaleFormatedData, m_dYScaleOriginalData);
; 149  : #endif
; 150  : 
; 151  : 		pIPacket->Release();

  0027f	8b 45 cc	 mov	 eax, DWORD PTR _pIPacket$[ebp]
  00282	83 c4 10	 add	 esp, 16			; 00000010H
  00285	8b 08		 mov	 ecx, DWORD PTR [eax]
  00287	50		 push	 eax
  00288	ff 51 08	 call	 DWORD PTR [ecx+8]

; 152  : 	}

  0028b	8d 4d c8	 lea	 ecx, DWORD PTR _strFormat$2[ebp]
  0028e	c7 45 fc ff ff
	ff ff		 mov	 DWORD PTR __$EHRec$[ebp+8], -1
  00295	ff 15 00 00 00
	00		 call	 DWORD PTR __imp_??1?$CStringT@DV?$StrTraitMFC_DLL@DV?$ChTraitsCRT@D@ATL@@@@@ATL@@QAE@XZ
$LN8@GetScaleDa:

; 153  : 
; 154  : 	if( m_pIBlock) m_pIBlock->Release();

  0029b	8b 8f 88 00 00
	00		 mov	 ecx, DWORD PTR [edi+136]
  002a1	85 c9		 test	 ecx, ecx
  002a3	74 06		 je	 SHORT $LN12@GetScaleDa
  002a5	8b 01		 mov	 eax, DWORD PTR [ecx]
  002a7	51		 push	 ecx
  002a8	ff 50 08	 call	 DWORD PTR [eax+8]
$LN12@GetScaleDa:

; 155  : 	m_pIBlock = NULL;

  002ab	c7 87 88 00 00
	00 00 00 00 00	 mov	 DWORD PTR [edi+136], 0

; 156  : 
; 157  : 	return TRUE;

  002b5	b8 01 00 00 00	 mov	 eax, 1
  002ba	e9 f2 fe ff ff	 jmp	 $LN1@GetScaleDa
_TEXT	ENDS
;	COMDAT text$x
text$x	SEGMENT
__unwindfunclet$?GetScaleData@CMousePositionExportingAddInImp@@IAEHVCPoint@@@Z$0:
  00000	8d 4d c8	 lea	 ecx, DWORD PTR _strFormat$2[ebp]
  00003	ff 25 00 00 00
	00		 jmp	 DWORD PTR __imp_??1?$CStringT@DV?$StrTraitMFC_DLL@DV?$ChTraitsCRT@D@ATL@@@@@ATL@@QAE@XZ
  00009	cc		 int	 3
  0000a	cc		 int	 3
  0000b	cc		 int	 3
  0000c	cc		 int	 3
  0000d	cc		 int	 3
__ehhandler$?GetScaleData@CMousePositionExportingAddInImp@@IAEHVCPoint@@@Z:
  0000e	90		 npad	 1
  0000f	90		 npad	 1
  00010	8b 54 24 08	 mov	 edx, DWORD PTR [esp+8]
  00014	8d 42 0c	 lea	 eax, DWORD PTR [edx+12]
  00017	8b 4a bc	 mov	 ecx, DWORD PTR [edx-68]
  0001a	33 c8		 xor	 ecx, eax
  0001c	e8 00 00 00 00	 call	 @__security_check_cookie@4
  00021	8b 4a fc	 mov	 ecx, DWORD PTR [edx-4]
  00024	33 c8		 xor	 ecx, eax
  00026	e8 00 00 00 00	 call	 @__security_check_cookie@4
  0002b	b8 00 00 00 00	 mov	 eax, OFFSET __ehfuncinfo$?GetScaleData@CMousePositionExportingAddInImp@@IAEHVCPoint@@@Z
  00030	e9 00 00 00 00	 jmp	 ___CxxFrameHandler3
text$x	ENDS
?GetScaleData@CMousePositionExportingAddInImp@@IAEHVCPoint@@@Z ENDP ; CMousePositionExportingAddInImp::GetScaleData
; Function compile flags: /Ogtp
; File D:\git\src\IBK\IBK_DRFN\ProjSrc\SrcChartEx\ChartOCX\AddInManager\ChartCommonAddIn\MousePositionExportingAddInImp.h
;	COMDAT ?GetRegisteredEventMap@CMousePositionExportingAddInImp@@MBEPBW4EAddInEventType@IChartAddIn000000@@XZ
_TEXT	SEGMENT
?GetRegisteredEventMap@CMousePositionExportingAddInImp@@MBEPBW4EAddInEventType@IChartAddIn000000@@XZ PROC ; CMousePositionExportingAddInImp::GetRegisteredEventMap, COMDAT
; _this$ = ecx

; 27   : 	DECLARE_ADDIN_EVENT_MAP()

  00000	b8 00 00 00 00	 mov	 eax, OFFSET ?m_eRegisteredEventMap@CMousePositionExportingAddInImp@@1QBW4EAddInEventType@IChartAddIn000000@@B ; CMousePositionExportingAddInImp::m_eRegisteredEventMap
  00005	c3		 ret	 0
?GetRegisteredEventMap@CMousePositionExportingAddInImp@@MBEPBW4EAddInEventType@IChartAddIn000000@@XZ ENDP ; CMousePositionExportingAddInImp::GetRegisteredEventMap
_TEXT	ENDS
; Function compile flags: /Ogtp
; File D:\git\src\IBK\IBK_DRFN\ProjSrc\SrcChartEx\ChartOCX\AddInManager\ChartCommonAddIn\MousePositionExportingAddInImp.cpp
;	COMDAT ??1CMousePositionExportingAddInImp@@UAE@XZ
_TEXT	SEGMENT
__$EHRec$ = -12						; size = 12
??1CMousePositionExportingAddInImp@@UAE@XZ PROC		; CMousePositionExportingAddInImp::~CMousePositionExportingAddInImp, COMDAT
; _this$ = ecx

; 42   : {

  00000	55		 push	 ebp
  00001	8b ec		 mov	 ebp, esp
  00003	6a ff		 push	 -1
  00005	68 00 00 00 00	 push	 __ehhandler$??1CMousePositionExportingAddInImp@@UAE@XZ
  0000a	64 a1 00 00 00
	00		 mov	 eax, DWORD PTR fs:0
  00010	50		 push	 eax
  00011	56		 push	 esi
  00012	a1 00 00 00 00	 mov	 eax, DWORD PTR ___security_cookie
  00017	33 c5		 xor	 eax, ebp
  00019	50		 push	 eax
  0001a	8d 45 f4	 lea	 eax, DWORD PTR __$EHRec$[ebp]
  0001d	64 a3 00 00 00
	00		 mov	 DWORD PTR fs:0, eax
  00023	8b f1		 mov	 esi, ecx

; 43   : 	if( m_pIBlock )

  00025	8b 8e 88 00 00
	00		 mov	 ecx, DWORD PTR [esi+136]
  0002b	c7 06 00 00 00
	00		 mov	 DWORD PTR [esi], OFFSET ??_7CMousePositionExportingAddInImp@@6BCIWUnknown@@@
  00031	c7 46 08 00 00
	00 00		 mov	 DWORD PTR [esi+8], OFFSET ??_7CMousePositionExportingAddInImp@@6BIChartAddIn000000@@@
  00038	85 c9		 test	 ecx, ecx
  0003a	74 10		 je	 SHORT $LN2@CMousePosi

; 44   : 	{
; 45   : 		m_pIBlock->Release();

  0003c	8b 01		 mov	 eax, DWORD PTR [ecx]
  0003e	51		 push	 ecx
  0003f	ff 50 08	 call	 DWORD PTR [eax+8]

; 46   : 		m_pIBlock = NULL;

  00042	c7 86 88 00 00
	00 00 00 00 00	 mov	 DWORD PTR [esi+136], 0
$LN2@CMousePosi:

; 47   : 	}
; 48   : }

  0004c	8d 8e 80 00 00
	00		 lea	 ecx, DWORD PTR [esi+128]
  00052	ff 15 00 00 00
	00		 call	 DWORD PTR __imp_??1?$CStringT@DV?$StrTraitMFC_DLL@DV?$ChTraitsCRT@D@ATL@@@@@ATL@@QAE@XZ
  00058	8d 4e 6c	 lea	 ecx, DWORD PTR [esi+108]
  0005b	ff 15 00 00 00
	00		 call	 DWORD PTR __imp_??1?$CStringT@DV?$StrTraitMFC_DLL@DV?$ChTraitsCRT@D@ATL@@@@@ATL@@QAE@XZ
  00061	8d 4e 68	 lea	 ecx, DWORD PTR [esi+104]
  00064	ff 15 00 00 00
	00		 call	 DWORD PTR __imp_??1?$CStringT@DV?$StrTraitMFC_DLL@DV?$ChTraitsCRT@D@ATL@@@@@ATL@@QAE@XZ
  0006a	8d 4e 64	 lea	 ecx, DWORD PTR [esi+100]
  0006d	ff 15 00 00 00
	00		 call	 DWORD PTR __imp_??1?$CStringT@DV?$StrTraitMFC_DLL@DV?$ChTraitsCRT@D@ATL@@@@@ATL@@QAE@XZ
  00073	8d 4e 60	 lea	 ecx, DWORD PTR [esi+96]
  00076	ff 15 00 00 00
	00		 call	 DWORD PTR __imp_??1?$CStringT@DV?$StrTraitMFC_DLL@DV?$ChTraitsCRT@D@ATL@@@@@ATL@@QAE@XZ
  0007c	8b ce		 mov	 ecx, esi
  0007e	e8 00 00 00 00	 call	 ??1CChartAddInBase000000@@MAE@XZ ; CChartAddInBase000000::~CChartAddInBase000000
  00083	8b 4d f4	 mov	 ecx, DWORD PTR __$EHRec$[ebp]
  00086	64 89 0d 00 00
	00 00		 mov	 DWORD PTR fs:0, ecx
  0008d	59		 pop	 ecx
  0008e	5e		 pop	 esi
  0008f	8b e5		 mov	 esp, ebp
  00091	5d		 pop	 ebp
  00092	c3		 ret	 0
  00093	cc		 int	 3
  00094	cc		 int	 3
  00095	cc		 int	 3
  00096	cc		 int	 3
  00097	cc		 int	 3
_TEXT	ENDS
;	COMDAT text$x
text$x	SEGMENT
__ehhandler$??1CMousePositionExportingAddInImp@@UAE@XZ:
  00000	90		 npad	 1
  00001	90		 npad	 1
  00002	8b 54 24 08	 mov	 edx, DWORD PTR [esp+8]
  00006	8d 42 0c	 lea	 eax, DWORD PTR [edx+12]
  00009	8b 4a f8	 mov	 ecx, DWORD PTR [edx-8]
  0000c	33 c8		 xor	 ecx, eax
  0000e	e8 00 00 00 00	 call	 @__security_check_cookie@4
  00013	b8 00 00 00 00	 mov	 eax, OFFSET __ehfuncinfo$??1CMousePositionExportingAddInImp@@UAE@XZ
  00018	e9 00 00 00 00	 jmp	 ___CxxFrameHandler3
text$x	ENDS
??1CMousePositionExportingAddInImp@@UAE@XZ ENDP		; CMousePositionExportingAddInImp::~CMousePositionExportingAddInImp
; Function compile flags: /Ogtp
; File D:\git\src\IBK\IBK_DRFN\ProjSrc\SrcChartEx\ChartOCX\AddInManager\ChartCommonAddIn\MousePositionExportingAddInImp.cpp
; File C:\Program Files (x86)\Microsoft Visual Studio\2019\Community\VC\Tools\MSVC\14.29.30133\atlmfc\include\atltypes.h
; File D:\git\src\IBK\IBK_DRFN\ProjSrc\SrcChartEx\ChartOCX\AddInManager\ChartCommonAddIn\MousePositionExportingAddInImp.cpp
;	COMDAT ??0CMousePositionExportingAddInImp@@QAE@PAUIChartOCX000000@@PAUIAddInDllBase@@@Z
_TEXT	SEGMENT
_this$ = -4						; size = 4
_p_pIChartOCX$ = 8					; size = 4
_p_pIAddInDllBase$ = 12					; size = 4
??0CMousePositionExportingAddInImp@@QAE@PAUIChartOCX000000@@PAUIAddInDllBase@@@Z PROC ; CMousePositionExportingAddInImp::CMousePositionExportingAddInImp, COMDAT
; _this$ = ecx

; 30   : {

  00000	55		 push	 ebp
  00001	8b ec		 mov	 ebp, esp
  00003	51		 push	 ecx
  00004	56		 push	 esi
  00005	ff 75 0c	 push	 DWORD PTR _p_pIAddInDllBase$[ebp]
  00008	8b f1		 mov	 esi, ecx
  0000a	ff 75 08	 push	 DWORD PTR _p_pIChartOCX$[ebp]
  0000d	89 75 fc	 mov	 DWORD PTR _this$[ebp], esi
  00010	e8 00 00 00 00	 call	 ??0CChartAddInBase000000@@IAE@PAUIChartOCX000000@@PAUIAddInDllBase@@@Z ; CChartAddInBase000000::CChartAddInBase000000
  00015	c7 06 00 00 00
	00		 mov	 DWORD PTR [esi], OFFSET ??_7CMousePositionExportingAddInImp@@6BCIWUnknown@@@
  0001b	8d 4e 60	 lea	 ecx, DWORD PTR [esi+96]
  0001e	c7 46 08 00 00
	00 00		 mov	 DWORD PTR [esi+8], OFFSET ??_7CMousePositionExportingAddInImp@@6BIChartAddIn000000@@@
; File C:\Program Files (x86)\Microsoft Visual Studio\2019\Community\VC\Tools\MSVC\14.29.30133\atlmfc\include\atltypes.h

; 528  : 	left = 0;

  00025	c7 46 40 00 00
	00 00		 mov	 DWORD PTR [esi+64], 0

; 529  : 	top = 0;

  0002c	c7 46 44 00 00
	00 00		 mov	 DWORD PTR [esi+68], 0

; 530  : 	right = 0;

  00033	c7 46 48 00 00
	00 00		 mov	 DWORD PTR [esi+72], 0

; 531  : 	bottom = 0;

  0003a	c7 46 4c 00 00
	00 00		 mov	 DWORD PTR [esi+76], 0

; 528  : 	left = 0;

  00041	c7 46 50 00 00
	00 00		 mov	 DWORD PTR [esi+80], 0

; 529  : 	top = 0;

  00048	c7 46 54 00 00
	00 00		 mov	 DWORD PTR [esi+84], 0

; 530  : 	right = 0;

  0004f	c7 46 58 00 00
	00 00		 mov	 DWORD PTR [esi+88], 0

; 531  : 	bottom = 0;

  00056	c7 46 5c 00 00
	00 00		 mov	 DWORD PTR [esi+92], 0
; File D:\git\src\IBK\IBK_DRFN\ProjSrc\SrcChartEx\ChartOCX\AddInManager\ChartCommonAddIn\MousePositionExportingAddInImp.cpp

; 30   : {

  0005d	ff 15 00 00 00
	00		 call	 DWORD PTR __imp_??0?$CStringT@DV?$StrTraitMFC_DLL@DV?$ChTraitsCRT@D@ATL@@@@@ATL@@QAE@XZ
  00063	8d 4e 64	 lea	 ecx, DWORD PTR [esi+100]
  00066	ff 15 00 00 00
	00		 call	 DWORD PTR __imp_??0?$CStringT@DV?$StrTraitMFC_DLL@DV?$ChTraitsCRT@D@ATL@@@@@ATL@@QAE@XZ
  0006c	8d 4e 68	 lea	 ecx, DWORD PTR [esi+104]
  0006f	ff 15 00 00 00
	00		 call	 DWORD PTR __imp_??0?$CStringT@DV?$StrTraitMFC_DLL@DV?$ChTraitsCRT@D@ATL@@@@@ATL@@QAE@XZ
  00075	8d 4e 6c	 lea	 ecx, DWORD PTR [esi+108]
  00078	ff 15 00 00 00
	00		 call	 DWORD PTR __imp_??0?$CStringT@DV?$StrTraitMFC_DLL@DV?$ChTraitsCRT@D@ATL@@@@@ATL@@QAE@XZ
  0007e	8d 8e 80 00 00
	00		 lea	 ecx, DWORD PTR [esi+128]
  00084	ff 15 00 00 00
	00		 call	 DWORD PTR __imp_??0?$CStringT@DV?$StrTraitMFC_DLL@DV?$ChTraitsCRT@D@ATL@@@@@ATL@@QAE@XZ

; 31   : 	m_pIBlock = NULL;

  0008a	c7 86 88 00 00
	00 00 00 00 00	 mov	 DWORD PTR [esi+136], 0

; 32   : 
; 33   : 	// (2007/1/17 - Seung-Won, Bae) Support Data Index with Default.
; 34   : 	m_bXDataExport = FALSE;
; 35   : 
; 36   : 	// (2007/1/19 - Seung-Won, Bae) Support Not-Change Data Filter
; 37   : 	m_bSameDataFilter = TRUE;
; 38   : }

  00094	8b c6		 mov	 eax, esi
  00096	c7 86 90 00 00
	00 00 00 00 00	 mov	 DWORD PTR [esi+144], 0
  000a0	c7 86 94 00 00
	00 01 00 00 00	 mov	 DWORD PTR [esi+148], 1
  000aa	5e		 pop	 esi
  000ab	8b e5		 mov	 esp, ebp
  000ad	5d		 pop	 ebp
  000ae	c2 08 00	 ret	 8
??0CMousePositionExportingAddInImp@@QAE@PAUIChartOCX000000@@PAUIAddInDllBase@@@Z ENDP ; CMousePositionExportingAddInImp::CMousePositionExportingAddInImp
_TEXT	ENDS
; Function compile flags: /Ogtp
; File D:\git\src\IBK\IBK_DRFN\ProjSrc\SrcChartEx\ChartOCX\AddInManager\Include_AddIn\I000000\_ChartAddInBase.h
;	COMDAT ?OnRButtonDblClk@CChartAddInBase000000@@MAEHPAUHDC__@@IAAUtagPOINT@@K@Z
_TEXT	SEGMENT
_p_hDC$ = 8						; size = 4
_nFlags$ = 12						; size = 4
_point$ = 16						; size = 4
_p_dwMouseActionID$ = 20				; size = 4
?OnRButtonDblClk@CChartAddInBase000000@@MAEHPAUHDC__@@IAAUtagPOINT@@K@Z PROC ; CChartAddInBase000000::OnRButtonDblClk, COMDAT
; _this$ = ecx

; 221  : 	virtual BOOL	OnRButtonDblClk(	HDC p_hDC, UINT nFlags, POINT &point, const DWORD p_dwMouseActionID)									{	return FALSE;	}

  00000	33 c0		 xor	 eax, eax
  00002	c2 10 00	 ret	 16			; 00000010H
?OnRButtonDblClk@CChartAddInBase000000@@MAEHPAUHDC__@@IAAUtagPOINT@@K@Z ENDP ; CChartAddInBase000000::OnRButtonDblClk
_TEXT	ENDS
; Function compile flags: /Ogtp
; File D:\git\src\IBK\IBK_DRFN\ProjSrc\SrcChartEx\ChartOCX\AddInManager\Include_AddIn\I000000\_ChartAddInBase.h
;	COMDAT ?OnRButtonUp@CChartAddInBase000000@@MAEHPAUHDC__@@IAAUtagPOINT@@K@Z
_TEXT	SEGMENT
_p_hDC$ = 8						; size = 4
_nFlags$ = 12						; size = 4
_point$ = 16						; size = 4
_p_dwMouseActionID$ = 20				; size = 4
?OnRButtonUp@CChartAddInBase000000@@MAEHPAUHDC__@@IAAUtagPOINT@@K@Z PROC ; CChartAddInBase000000::OnRButtonUp, COMDAT
; _this$ = ecx

; 220  : 	virtual BOOL	OnRButtonUp(		HDC p_hDC, UINT nFlags, POINT &point, const DWORD p_dwMouseActionID)									{	return FALSE;	}

  00000	33 c0		 xor	 eax, eax
  00002	c2 10 00	 ret	 16			; 00000010H
?OnRButtonUp@CChartAddInBase000000@@MAEHPAUHDC__@@IAAUtagPOINT@@K@Z ENDP ; CChartAddInBase000000::OnRButtonUp
_TEXT	ENDS
; Function compile flags: /Ogtp
; File D:\git\src\IBK\IBK_DRFN\ProjSrc\SrcChartEx\ChartOCX\AddInManager\Include_AddIn\I000000\_ChartAddInBase.h
;	COMDAT ?OnRButtonDown@CChartAddInBase000000@@MAEHPAUHDC__@@IAAUtagPOINT@@K@Z
_TEXT	SEGMENT
_p_hDC$ = 8						; size = 4
_nFlags$ = 12						; size = 4
_point$ = 16						; size = 4
_p_dwMouseActionID$ = 20				; size = 4
?OnRButtonDown@CChartAddInBase000000@@MAEHPAUHDC__@@IAAUtagPOINT@@K@Z PROC ; CChartAddInBase000000::OnRButtonDown, COMDAT
; _this$ = ecx

; 219  : 	virtual BOOL	OnRButtonDown(		HDC p_hDC, UINT nFlags, POINT &point, const DWORD p_dwMouseActionID)									{	return FALSE;	}

  00000	33 c0		 xor	 eax, eax
  00002	c2 10 00	 ret	 16			; 00000010H
?OnRButtonDown@CChartAddInBase000000@@MAEHPAUHDC__@@IAAUtagPOINT@@K@Z ENDP ; CChartAddInBase000000::OnRButtonDown
_TEXT	ENDS
; Function compile flags: /Ogtp
; File D:\git\src\IBK\IBK_DRFN\ProjSrc\SrcChartEx\ChartOCX\AddInManager\Include_AddIn\I000000\_ChartAddInBase.h
;	COMDAT ?OnLButtonDblClk@CChartAddInBase000000@@MAEHPAUHDC__@@IAAUtagPOINT@@K@Z
_TEXT	SEGMENT
_p_hDC$ = 8						; size = 4
_nFlags$ = 12						; size = 4
_point$ = 16						; size = 4
_p_dwMouseActionID$ = 20				; size = 4
?OnLButtonDblClk@CChartAddInBase000000@@MAEHPAUHDC__@@IAAUtagPOINT@@K@Z PROC ; CChartAddInBase000000::OnLButtonDblClk, COMDAT
; _this$ = ecx

; 218  : 	virtual BOOL	OnLButtonDblClk(	HDC p_hDC, UINT nFlags, POINT &point, const DWORD p_dwMouseActionID)									{	return FALSE;	}

  00000	33 c0		 xor	 eax, eax
  00002	c2 10 00	 ret	 16			; 00000010H
?OnLButtonDblClk@CChartAddInBase000000@@MAEHPAUHDC__@@IAAUtagPOINT@@K@Z ENDP ; CChartAddInBase000000::OnLButtonDblClk
_TEXT	ENDS
; Function compile flags: /Ogtp
; File D:\git\src\IBK\IBK_DRFN\ProjSrc\SrcChartEx\ChartOCX\AddInManager\Include_AddIn\I000000\_ChartAddInBase.h
;	COMDAT ?OnLButtonUp@CChartAddInBase000000@@MAEHPAUHDC__@@IAAUtagPOINT@@K@Z
_TEXT	SEGMENT
_p_hDC$ = 8						; size = 4
_nFlags$ = 12						; size = 4
_point$ = 16						; size = 4
_p_dwMouseActionID$ = 20				; size = 4
?OnLButtonUp@CChartAddInBase000000@@MAEHPAUHDC__@@IAAUtagPOINT@@K@Z PROC ; CChartAddInBase000000::OnLButtonUp, COMDAT
; _this$ = ecx

; 217  : 	virtual BOOL	OnLButtonUp(		HDC p_hDC, UINT nFlags, POINT &point, const DWORD p_dwMouseActionID)									{	return FALSE;	}

  00000	33 c0		 xor	 eax, eax
  00002	c2 10 00	 ret	 16			; 00000010H
?OnLButtonUp@CChartAddInBase000000@@MAEHPAUHDC__@@IAAUtagPOINT@@K@Z ENDP ; CChartAddInBase000000::OnLButtonUp
_TEXT	ENDS
; Function compile flags: /Ogtp
; File D:\git\src\IBK\IBK_DRFN\ProjSrc\SrcChartEx\ChartOCX\AddInManager\Include_AddIn\I000000\_ChartAddInBase.h
;	COMDAT ?OnLButtonDown@CChartAddInBase000000@@MAEHPAUHDC__@@IAAUtagPOINT@@K@Z
_TEXT	SEGMENT
_p_hDC$ = 8						; size = 4
_nFlags$ = 12						; size = 4
_point$ = 16						; size = 4
_p_dwMouseActionID$ = 20				; size = 4
?OnLButtonDown@CChartAddInBase000000@@MAEHPAUHDC__@@IAAUtagPOINT@@K@Z PROC ; CChartAddInBase000000::OnLButtonDown, COMDAT
; _this$ = ecx

; 216  : 	virtual BOOL	OnLButtonDown(		HDC p_hDC, UINT nFlags, POINT &point, const DWORD p_dwMouseActionID)									{	return FALSE;	}

  00000	33 c0		 xor	 eax, eax
  00002	c2 10 00	 ret	 16			; 00000010H
?OnLButtonDown@CChartAddInBase000000@@MAEHPAUHDC__@@IAAUtagPOINT@@K@Z ENDP ; CChartAddInBase000000::OnLButtonDown
_TEXT	ENDS
; Function compile flags: /Ogtp
; File D:\git\src\IBK\IBK_DRFN\ProjSrc\SrcChartEx\ChartOCX\AddInManager\Include_AddIn\I000000\_ChartAddInBase.h
;	COMDAT ?OnMouseWheel@CChartAddInBase000000@@MAEHIFUtagPOINT@@K@Z
_TEXT	SEGMENT
_nFlags$ = 8						; size = 4
_zDelta$ = 12						; size = 2
_pt$ = 16						; size = 8
_p_dwMouseActionID$ = 24				; size = 4
?OnMouseWheel@CChartAddInBase000000@@MAEHIFUtagPOINT@@K@Z PROC ; CChartAddInBase000000::OnMouseWheel, COMDAT
; _this$ = ecx

; 214  : 	virtual BOOL	OnMouseWheel(		UINT nFlags, short zDelta, POINT pt, const DWORD p_dwMouseActionID)										{	return FALSE;	}

  00000	33 c0		 xor	 eax, eax
  00002	c2 14 00	 ret	 20			; 00000014H
?OnMouseWheel@CChartAddInBase000000@@MAEHIFUtagPOINT@@K@Z ENDP ; CChartAddInBase000000::OnMouseWheel
_TEXT	ENDS
; Function compile flags: /Ogtp
; File D:\git\src\IBK\IBK_DRFN\ProjSrc\SrcChartEx\ChartOCX\AddInManager\Include_AddIn\I000000\_ChartAddInBase.h
;	COMDAT ?OnKeyUp@CChartAddInBase000000@@MAEHIII@Z
_TEXT	SEGMENT
_nChar$ = 8						; size = 4
_nRepCnt$ = 12						; size = 4
_nFlags$ = 16						; size = 4
?OnKeyUp@CChartAddInBase000000@@MAEHIII@Z PROC		; CChartAddInBase000000::OnKeyUp, COMDAT
; _this$ = ecx

; 213  : 	virtual BOOL	OnKeyUp(			UINT nChar, UINT nRepCnt, UINT nFlags)																	{	return FALSE;	}

  00000	33 c0		 xor	 eax, eax
  00002	c2 0c 00	 ret	 12			; 0000000cH
?OnKeyUp@CChartAddInBase000000@@MAEHIII@Z ENDP		; CChartAddInBase000000::OnKeyUp
_TEXT	ENDS
; Function compile flags: /Ogtp
; File D:\git\src\IBK\IBK_DRFN\ProjSrc\SrcChartEx\ChartOCX\AddInManager\Include_AddIn\I000000\_ChartAddInBase.h
;	COMDAT ?OnKeyDown@CChartAddInBase000000@@MAEHIII@Z
_TEXT	SEGMENT
_nChar$ = 8						; size = 4
_nRepCnt$ = 12						; size = 4
_nFlags$ = 16						; size = 4
?OnKeyDown@CChartAddInBase000000@@MAEHIII@Z PROC	; CChartAddInBase000000::OnKeyDown, COMDAT
; _this$ = ecx

; 212  : 	virtual BOOL	OnKeyDown(			UINT nChar, UINT nRepCnt, UINT nFlags)																	{	return FALSE;	}

  00000	33 c0		 xor	 eax, eax
  00002	c2 0c 00	 ret	 12			; 0000000cH
?OnKeyDown@CChartAddInBase000000@@MAEHIII@Z ENDP	; CChartAddInBase000000::OnKeyDown
_TEXT	ENDS
; Function compile flags: /Ogtp
; File D:\git\src\IBK\IBK_DRFN\ProjSrc\SrcChartEx\ChartOCX\AddInManager\Include_AddIn\I000000\_ChartAddInBase.h
;	COMDAT ?OnAddInToolCommand@CChartAddInBase000000@@MAEHAAJW4EAICommandType@@JJ@Z
_TEXT	SEGMENT
_p_lResult$ = 8						; size = 4
_p_eCommandID$ = 12					; size = 4
_p_lParam1$ = 16					; size = 4
_p_lParam2$ = 20					; size = 4
?OnAddInToolCommand@CChartAddInBase000000@@MAEHAAJW4EAICommandType@@JJ@Z PROC ; CChartAddInBase000000::OnAddInToolCommand, COMDAT
; _this$ = ecx

; 210  : 	virtual BOOL	OnAddInToolCommand(	long &p_lResult, const EAICommandType p_eCommandID, const long p_lParam1, const long p_lParam2)			{	return FALSE;	}

  00000	33 c0		 xor	 eax, eax
  00002	c2 10 00	 ret	 16			; 00000010H
?OnAddInToolCommand@CChartAddInBase000000@@MAEHAAJW4EAICommandType@@JJ@Z ENDP ; CChartAddInBase000000::OnAddInToolCommand
_TEXT	ENDS
; Function compile flags: /Ogtp
; File D:\git\src\IBK\IBK_DRFN\ProjSrc\SrcChartEx\ChartOCX\AddInManager\Include_AddIn\I000000\_ChartAddInBase.h
;	COMDAT ?OnAddInToolCommand@CChartAddInBase000000@@MAEHAAJW4EAICommandType@@J@Z
_TEXT	SEGMENT
_p_lResult$ = 8						; size = 4
_p_eCommandID$ = 12					; size = 4
_p_lParam$ = 16						; size = 4
?OnAddInToolCommand@CChartAddInBase000000@@MAEHAAJW4EAICommandType@@J@Z PROC ; CChartAddInBase000000::OnAddInToolCommand, COMDAT
; _this$ = ecx

; 209  : 	virtual BOOL	OnAddInToolCommand(	long &p_lResult, const EAICommandType p_eCommandID, const long p_lParam)								{	return FALSE;	}

  00000	33 c0		 xor	 eax, eax
  00002	c2 0c 00	 ret	 12			; 0000000cH
?OnAddInToolCommand@CChartAddInBase000000@@MAEHAAJW4EAICommandType@@J@Z ENDP ; CChartAddInBase000000::OnAddInToolCommand
_TEXT	ENDS
; Function compile flags: /Ogtp
; File D:\git\src\IBK\IBK_DRFN\ProjSrc\SrcChartEx\ChartOCX\AddInManager\Include_AddIn\I000000\_ChartAddInBase.h
;	COMDAT ?OnAddInToolCommand@CChartAddInBase000000@@MAEHAAJW4EAICommandType@@PBDPAVCObject@@@Z
_TEXT	SEGMENT
_p_lResult$ = 8						; size = 4
_p_eCommandID$ = 12					; size = 4
_p_szParam$ = 16					; size = 4
_p_pParam$ = 20						; size = 4
?OnAddInToolCommand@CChartAddInBase000000@@MAEHAAJW4EAICommandType@@PBDPAVCObject@@@Z PROC ; CChartAddInBase000000::OnAddInToolCommand, COMDAT
; _this$ = ecx

; 208  : 	virtual BOOL	OnAddInToolCommand(	long &p_lResult, const EAICommandType p_eCommandID, const char *p_szParam, CObject *p_pParam)			{	return FALSE;	}

  00000	33 c0		 xor	 eax, eax
  00002	c2 10 00	 ret	 16			; 00000010H
?OnAddInToolCommand@CChartAddInBase000000@@MAEHAAJW4EAICommandType@@PBDPAVCObject@@@Z ENDP ; CChartAddInBase000000::OnAddInToolCommand
_TEXT	ENDS
; Function compile flags: /Ogtp
; File D:\git\src\IBK\IBK_DRFN\ProjSrc\SrcChartEx\ChartOCX\AddInManager\Include_AddIn\I000000\_ChartAddInBase.h
;	COMDAT ?OnAddInToolCommand@CChartAddInBase000000@@MAEHAAJW4EAICommandType@@PBD@Z
_TEXT	SEGMENT
_p_lResult$ = 8						; size = 4
_p_eCommandID$ = 12					; size = 4
_p_szParam$ = 16					; size = 4
?OnAddInToolCommand@CChartAddInBase000000@@MAEHAAJW4EAICommandType@@PBD@Z PROC ; CChartAddInBase000000::OnAddInToolCommand, COMDAT
; _this$ = ecx

; 207  : 	virtual BOOL	OnAddInToolCommand(	long &p_lResult, const EAICommandType p_eCommandID, const char *p_szParam)								{	return FALSE;	}

  00000	33 c0		 xor	 eax, eax
  00002	c2 0c 00	 ret	 12			; 0000000cH
?OnAddInToolCommand@CChartAddInBase000000@@MAEHAAJW4EAICommandType@@PBD@Z ENDP ; CChartAddInBase000000::OnAddInToolCommand
_TEXT	ENDS
; Function compile flags: /Ogtp
; File D:\git\src\IBK\IBK_DRFN\ProjSrc\SrcChartEx\ChartOCX\AddInManager\Include_AddIn\I000000\_ChartAddInBase.h
;	COMDAT ?OnAddInToolCommand@CChartAddInBase000000@@MAEHAAJW4EAICommandType@@PAUIGraphInfo000000@@@Z
_TEXT	SEGMENT
_p_lResult$ = 8						; size = 4
_p_eCommandID$ = 12					; size = 4
_p_pIGraphInfo$ = 16					; size = 4
?OnAddInToolCommand@CChartAddInBase000000@@MAEHAAJW4EAICommandType@@PAUIGraphInfo000000@@@Z PROC ; CChartAddInBase000000::OnAddInToolCommand, COMDAT
; _this$ = ecx

; 206  : 	virtual BOOL	OnAddInToolCommand(	long &p_lResult, const EAICommandType p_eCommandID, IGraphInfo *p_pIGraphInfo)							{	return FALSE;	}

  00000	33 c0		 xor	 eax, eax
  00002	c2 0c 00	 ret	 12			; 0000000cH
?OnAddInToolCommand@CChartAddInBase000000@@MAEHAAJW4EAICommandType@@PAUIGraphInfo000000@@@Z ENDP ; CChartAddInBase000000::OnAddInToolCommand
_TEXT	ENDS
; Function compile flags: /Ogtp
; File D:\git\src\IBK\IBK_DRFN\ProjSrc\SrcChartEx\ChartOCX\AddInManager\Include_AddIn\I000000\_ChartAddInBase.h
;	COMDAT ?OnAddInToolCommand@CChartAddInBase000000@@MAEHAAJW4EAICommandType@@@Z
_TEXT	SEGMENT
_p_lResult$ = 8						; size = 4
_p_eCommandID$ = 12					; size = 4
?OnAddInToolCommand@CChartAddInBase000000@@MAEHAAJW4EAICommandType@@@Z PROC ; CChartAddInBase000000::OnAddInToolCommand, COMDAT
; _this$ = ecx

; 205  : 	virtual BOOL	OnAddInToolCommand(	long &p_lResult, const EAICommandType p_eCommandID)														{	return FALSE;	}

  00000	33 c0		 xor	 eax, eax
  00002	c2 08 00	 ret	 8
?OnAddInToolCommand@CChartAddInBase000000@@MAEHAAJW4EAICommandType@@@Z ENDP ; CChartAddInBase000000::OnAddInToolCommand
_TEXT	ENDS
; Function compile flags: /Ogtp
; File D:\git\src\IBK\IBK_DRFN\ProjSrc\SrcChartEx\ChartOCX\AddInManager\Include_AddIn\I000000\_ChartAddInBase.h
;	COMDAT ?OnAddInToolCommand@CChartAddInBase000000@@MAEHW4EAICommandType@@JJJJJJJJJ@Z
_TEXT	SEGMENT
_p_eCommandID$ = 8					; size = 4
_p_lParam1$ = 12					; size = 4
_p_lParam2$ = 16					; size = 4
_p_lParam3$ = 20					; size = 4
_p_lParam4$ = 24					; size = 4
_p_lParam5$ = 28					; size = 4
_p_lParam6$ = 32					; size = 4
_p_lParam7$ = 36					; size = 4
_p_lParam8$ = 40					; size = 4
_p_lParam9$ = 44					; size = 4
?OnAddInToolCommand@CChartAddInBase000000@@MAEHW4EAICommandType@@JJJJJJJJJ@Z PROC ; CChartAddInBase000000::OnAddInToolCommand, COMDAT
; _this$ = ecx

; 204  : 	virtual BOOL	OnAddInToolCommand(	const EAICommandType p_eCommandID, const long p_lParam1, const long p_lParam2, const long p_lParam3, const long p_lParam4, const long p_lParam5, const long p_lParam6, const long p_lParam7, const long p_lParam8, const long p_lParam9)	{	return FALSE;	}

  00000	33 c0		 xor	 eax, eax
  00002	c2 28 00	 ret	 40			; 00000028H
?OnAddInToolCommand@CChartAddInBase000000@@MAEHW4EAICommandType@@JJJJJJJJJ@Z ENDP ; CChartAddInBase000000::OnAddInToolCommand
_TEXT	ENDS
; Function compile flags: /Ogtp
; File D:\git\src\IBK\IBK_DRFN\ProjSrc\SrcChartEx\ChartOCX\AddInManager\Include_AddIn\I000000\_ChartAddInBase.h
;	COMDAT ?OnAddInToolCommand@CChartAddInBase000000@@MAEHW4EAICommandType@@JJ@Z
_TEXT	SEGMENT
_p_eCommandID$ = 8					; size = 4
_p_lParam1$ = 12					; size = 4
_p_lParam2$ = 16					; size = 4
?OnAddInToolCommand@CChartAddInBase000000@@MAEHW4EAICommandType@@JJ@Z PROC ; CChartAddInBase000000::OnAddInToolCommand, COMDAT
; _this$ = ecx

; 203  : 	virtual BOOL	OnAddInToolCommand(	const EAICommandType p_eCommandID, const long p_lParam1, const long p_lParam2)							{	return FALSE;	}

  00000	33 c0		 xor	 eax, eax
  00002	c2 0c 00	 ret	 12			; 0000000cH
?OnAddInToolCommand@CChartAddInBase000000@@MAEHW4EAICommandType@@JJ@Z ENDP ; CChartAddInBase000000::OnAddInToolCommand
_TEXT	ENDS
; Function compile flags: /Ogtp
; File D:\git\src\IBK\IBK_DRFN\ProjSrc\SrcChartEx\ChartOCX\AddInManager\Include_AddIn\I000000\_ChartAddInBase.h
;	COMDAT ?OnAddInToolCommand@CChartAddInBase000000@@MAEHW4EAICommandType@@JPBD11@Z
_TEXT	SEGMENT
_p_eCommandID$ = 8					; size = 4
_p_lParam$ = 12						; size = 4
_p_szParam1$ = 16					; size = 4
_p_szParam2$ = 20					; size = 4
_p_szParam3$ = 24					; size = 4
?OnAddInToolCommand@CChartAddInBase000000@@MAEHW4EAICommandType@@JPBD11@Z PROC ; CChartAddInBase000000::OnAddInToolCommand, COMDAT
; _this$ = ecx

; 202  : 	virtual BOOL	OnAddInToolCommand( const EAICommandType p_eCommandID, const long p_lParam, const char *p_szParam1, const char *p_szParam2, const char *p_szParam3)	{	return FALSE;	}

  00000	33 c0		 xor	 eax, eax
  00002	c2 14 00	 ret	 20			; 00000014H
?OnAddInToolCommand@CChartAddInBase000000@@MAEHW4EAICommandType@@JPBD11@Z ENDP ; CChartAddInBase000000::OnAddInToolCommand
_TEXT	ENDS
; Function compile flags: /Ogtp
; File D:\git\src\IBK\IBK_DRFN\ProjSrc\SrcChartEx\ChartOCX\AddInManager\Include_AddIn\I000000\_ChartAddInBase.h
;	COMDAT ?OnAddInToolCommand@CChartAddInBase000000@@MAEHW4EAICommandType@@JPBD@Z
_TEXT	SEGMENT
_p_eCommandID$ = 8					; size = 4
_p_lParam$ = 12						; size = 4
_p_szParam$ = 16					; size = 4
?OnAddInToolCommand@CChartAddInBase000000@@MAEHW4EAICommandType@@JPBD@Z PROC ; CChartAddInBase000000::OnAddInToolCommand, COMDAT
; _this$ = ecx

; 201  : 	virtual BOOL	OnAddInToolCommand( const EAICommandType p_eCommandID, const long p_lParam, const char *p_szParam)							{	return FALSE;	}

  00000	33 c0		 xor	 eax, eax
  00002	c2 0c 00	 ret	 12			; 0000000cH
?OnAddInToolCommand@CChartAddInBase000000@@MAEHW4EAICommandType@@JPBD@Z ENDP ; CChartAddInBase000000::OnAddInToolCommand
_TEXT	ENDS
; Function compile flags: /Ogtp
; File D:\git\src\IBK\IBK_DRFN\ProjSrc\SrcChartEx\ChartOCX\AddInManager\Include_AddIn\I000000\_ChartAddInBase.h
;	COMDAT ?OnAddInToolCommand@CChartAddInBase000000@@MAEHW4EAICommandType@@J@Z
_TEXT	SEGMENT
_p_eCommandID$ = 8					; size = 4
_p_lParam$ = 12						; size = 4
?OnAddInToolCommand@CChartAddInBase000000@@MAEHW4EAICommandType@@J@Z PROC ; CChartAddInBase000000::OnAddInToolCommand, COMDAT
; _this$ = ecx

; 200  : 	virtual BOOL	OnAddInToolCommand(	const EAICommandType p_eCommandID, const long p_lParam)													{	return FALSE;	}

  00000	33 c0		 xor	 eax, eax
  00002	c2 08 00	 ret	 8
?OnAddInToolCommand@CChartAddInBase000000@@MAEHW4EAICommandType@@J@Z ENDP ; CChartAddInBase000000::OnAddInToolCommand
_TEXT	ENDS
; Function compile flags: /Ogtp
; File D:\git\src\IBK\IBK_DRFN\ProjSrc\SrcChartEx\ChartOCX\AddInManager\Include_AddIn\I000000\_ChartAddInBase.h
;	COMDAT ?OnAddInToolCommand@CChartAddInBase000000@@MAEHW4EAICommandType@@PBUIAddInDllBase@@@Z
_TEXT	SEGMENT
_p_eCommandID$ = 8					; size = 4
_p_pParam$ = 12						; size = 4
?OnAddInToolCommand@CChartAddInBase000000@@MAEHW4EAICommandType@@PBUIAddInDllBase@@@Z PROC ; CChartAddInBase000000::OnAddInToolCommand, COMDAT
; _this$ = ecx

; 199  : 	virtual BOOL	OnAddInToolCommand(	const EAICommandType p_eCommandID, const IAddInDllBase *p_pParam)										{	return FALSE;	}

  00000	33 c0		 xor	 eax, eax
  00002	c2 08 00	 ret	 8
?OnAddInToolCommand@CChartAddInBase000000@@MAEHW4EAICommandType@@PBUIAddInDllBase@@@Z ENDP ; CChartAddInBase000000::OnAddInToolCommand
_TEXT	ENDS
; Function compile flags: /Ogtp
; File D:\git\src\IBK\IBK_DRFN\ProjSrc\SrcChartEx\ChartOCX\AddInManager\Include_AddIn\I000000\_ChartAddInBase.h
;	COMDAT ?OnAddInToolCommand@CChartAddInBase000000@@MAEHW4EAICommandType@@PBDJ@Z
_TEXT	SEGMENT
_p_eCommandID$ = 8					; size = 4
_p_szParam$ = 12					; size = 4
_p_lParam$ = 16						; size = 4
?OnAddInToolCommand@CChartAddInBase000000@@MAEHW4EAICommandType@@PBDJ@Z PROC ; CChartAddInBase000000::OnAddInToolCommand, COMDAT
; _this$ = ecx

; 198  : 	virtual BOOL	OnAddInToolCommand( const EAICommandType p_eCommandID, const char *p_szParam, const long p_lParam)							{	return FALSE;	}

  00000	33 c0		 xor	 eax, eax
  00002	c2 0c 00	 ret	 12			; 0000000cH
?OnAddInToolCommand@CChartAddInBase000000@@MAEHW4EAICommandType@@PBDJ@Z ENDP ; CChartAddInBase000000::OnAddInToolCommand
_TEXT	ENDS
; Function compile flags: /Ogtp
; File D:\git\src\IBK\IBK_DRFN\ProjSrc\SrcChartEx\ChartOCX\AddInManager\Include_AddIn\I000000\_ChartAddInBase.h
;	COMDAT ?OnAddInToolCommand@CChartAddInBase000000@@MAEHW4EAICommandType@@PBD1@Z
_TEXT	SEGMENT
_p_eCommandID$ = 8					; size = 4
_p_szParam1$ = 12					; size = 4
_p_szParam2$ = 16					; size = 4
?OnAddInToolCommand@CChartAddInBase000000@@MAEHW4EAICommandType@@PBD1@Z PROC ; CChartAddInBase000000::OnAddInToolCommand, COMDAT
; _this$ = ecx

; 197  : 	virtual BOOL	OnAddInToolCommand(	const EAICommandType p_eCommandID, const char *p_szParam1, const char *p_szParam2)						{	return FALSE;	}

  00000	33 c0		 xor	 eax, eax
  00002	c2 0c 00	 ret	 12			; 0000000cH
?OnAddInToolCommand@CChartAddInBase000000@@MAEHW4EAICommandType@@PBD1@Z ENDP ; CChartAddInBase000000::OnAddInToolCommand
_TEXT	ENDS
; Function compile flags: /Ogtp
; File D:\git\src\IBK\IBK_DRFN\ProjSrc\SrcChartEx\ChartOCX\AddInManager\Include_AddIn\I000000\_ChartAddInBase.h
;	COMDAT ?OnAddInToolCommand@CChartAddInBase000000@@MAEHW4EAICommandType@@PBD@Z
_TEXT	SEGMENT
_p_eCommandID$ = 8					; size = 4
_p_szParam$ = 12					; size = 4
?OnAddInToolCommand@CChartAddInBase000000@@MAEHW4EAICommandType@@PBD@Z PROC ; CChartAddInBase000000::OnAddInToolCommand, COMDAT
; _this$ = ecx

; 196  : 	virtual BOOL	OnAddInToolCommand(	const EAICommandType p_eCommandID, const char *p_szParam)												{	return FALSE;	}

  00000	33 c0		 xor	 eax, eax
  00002	c2 08 00	 ret	 8
?OnAddInToolCommand@CChartAddInBase000000@@MAEHW4EAICommandType@@PBD@Z ENDP ; CChartAddInBase000000::OnAddInToolCommand
_TEXT	ENDS
; Function compile flags: /Ogtp
; File D:\git\src\IBK\IBK_DRFN\ProjSrc\SrcChartEx\ChartOCX\AddInManager\Include_AddIn\I000000\_ChartAddInBase.h
;	COMDAT ?OnAddInToolCommand@CChartAddInBase000000@@MAEHW4EAICommandType@@PAUHDC__@@IAAUtagPOINT@@K@Z
_TEXT	SEGMENT
_p_eCommandID$ = 8					; size = 4
_p_hDC$ = 12						; size = 4
_nFlags$ = 16						; size = 4
_point$ = 20						; size = 4
_p_dwMouseActionID$ = 24				; size = 4
?OnAddInToolCommand@CChartAddInBase000000@@MAEHW4EAICommandType@@PAUHDC__@@IAAUtagPOINT@@K@Z PROC ; CChartAddInBase000000::OnAddInToolCommand, COMDAT
; _this$ = ecx

; 195  : 	virtual BOOL	OnAddInToolCommand(	const EAICommandType p_eCommandID, HDC p_hDC, UINT nFlags, POINT &point, const DWORD p_dwMouseActionID)	{	return FALSE;	}

  00000	33 c0		 xor	 eax, eax
  00002	c2 14 00	 ret	 20			; 00000014H
?OnAddInToolCommand@CChartAddInBase000000@@MAEHW4EAICommandType@@PAUHDC__@@IAAUtagPOINT@@K@Z ENDP ; CChartAddInBase000000::OnAddInToolCommand
_TEXT	ENDS
; Function compile flags: /Ogtp
; File D:\git\src\IBK\IBK_DRFN\ProjSrc\SrcChartEx\ChartOCX\AddInManager\Include_AddIn\I000000\_ChartAddInBase.h
;	COMDAT ?OnAddInToolCommand@CChartAddInBase000000@@MAEHW4EAICommandType@@@Z
_TEXT	SEGMENT
_p_eCommandID$ = 8					; size = 4
?OnAddInToolCommand@CChartAddInBase000000@@MAEHW4EAICommandType@@@Z PROC ; CChartAddInBase000000::OnAddInToolCommand, COMDAT
; _this$ = ecx

; 194  : 	virtual BOOL	OnAddInToolCommand(	const EAICommandType p_eCommandID)																		{	return FALSE;	}

  00000	33 c0		 xor	 eax, eax
  00002	c2 04 00	 ret	 4
?OnAddInToolCommand@CChartAddInBase000000@@MAEHW4EAICommandType@@@Z ENDP ; CChartAddInBase000000::OnAddInToolCommand
_TEXT	ENDS
; Function compile flags: /Ogtp
; File D:\git\src\IBK\IBK_DRFN\ProjSrc\SrcChartEx\ChartOCX\AddInManager\Include_AddIn\I000000\_ChartAddInBase.h
;	COMDAT ?OnAddInMsg@CChartAddInBase000000@@MAEHPBDJ@Z
_TEXT	SEGMENT
_p_szAddInItemName$ = 8					; size = 4
_p_lParam$ = 12						; size = 4
?OnAddInMsg@CChartAddInBase000000@@MAEHPBDJ@Z PROC	; CChartAddInBase000000::OnAddInMsg, COMDAT
; _this$ = ecx

; 193  : 	virtual BOOL	OnAddInMsg(			const char *p_szAddInItemName, const long p_lParam)														{	return FALSE;	}

  00000	33 c0		 xor	 eax, eax
  00002	c2 08 00	 ret	 8
?OnAddInMsg@CChartAddInBase000000@@MAEHPBDJ@Z ENDP	; CChartAddInBase000000::OnAddInMsg
_TEXT	ENDS
; Function compile flags: /Ogtp
; File D:\git\src\IBK\IBK_DRFN\ProjSrc\SrcChartEx\ChartOCX\AddInManager\Include_AddIn\I000000\_ChartAddInBase.h
;	COMDAT ?OnCmdMsg@CChartAddInBase000000@@MAEHIHPAUICmdUI000000@@@Z
_TEXT	SEGMENT
_nID$ = 8						; size = 4
_nCode$ = 12						; size = 4
_p_pICmdUI$ = 16					; size = 4
?OnCmdMsg@CChartAddInBase000000@@MAEHIHPAUICmdUI000000@@@Z PROC ; CChartAddInBase000000::OnCmdMsg, COMDAT
; _this$ = ecx

; 192  : 	virtual BOOL	OnCmdMsg(			UINT nID, int nCode, ICmdUI *p_pICmdUI)																	{	return FALSE;	}

  00000	33 c0		 xor	 eax, eax
  00002	c2 0c 00	 ret	 12			; 0000000cH
?OnCmdMsg@CChartAddInBase000000@@MAEHIHPAUICmdUI000000@@@Z ENDP ; CChartAddInBase000000::OnCmdMsg
_TEXT	ENDS
; Function compile flags: /Ogtp
; File D:\git\src\IBK\IBK_DRFN\ProjSrc\SrcChartEx\ChartOCX\AddInManager\Include_AddIn\I000000\_ChartAddInBase.h
;	COMDAT ?OnPreNMTRClock@CChartAddInBase000000@@MAEHAA_J@Z
_TEXT	SEGMENT
_p_nRealClockSecs$ = 8					; size = 4
?OnPreNMTRClock@CChartAddInBase000000@@MAEHAA_J@Z PROC	; CChartAddInBase000000::OnPreNMTRClock, COMDAT
; _this$ = ecx

; 186  : 	virtual BOOL	OnPreNMTRClock( __int64 &p_nRealClockSecs)																		{	return TRUE;	}

  00000	b8 01 00 00 00	 mov	 eax, 1
  00005	c2 04 00	 ret	 4
?OnPreNMTRClock@CChartAddInBase000000@@MAEHAA_J@Z ENDP	; CChartAddInBase000000::OnPreNMTRClock
_TEXT	ENDS
; Function compile flags: /Ogtp
; File D:\git\src\IBK\IBK_DRFN\ProjSrc\SrcChartEx\ChartOCX\AddInManager\Include_AddIn\I000000\_ChartAddInBase.h
;	COMDAT ?OnPreRealPacketEnd@CChartAddInBase000000@@MAEHPBDH@Z
_TEXT	SEGMENT
_p_szRQ$ = 8						; size = 4
_p_bRealData$ = 12					; size = 4
?OnPreRealPacketEnd@CChartAddInBase000000@@MAEHPBDH@Z PROC ; CChartAddInBase000000::OnPreRealPacketEnd, COMDAT
; _this$ = ecx

; 185  : 	virtual BOOL	OnPreRealPacketEnd( const char *p_szRQ = NULL, BOOL p_bRealData = TRUE)											{	return TRUE;	}

  00000	b8 01 00 00 00	 mov	 eax, 1
  00005	c2 08 00	 ret	 8
?OnPreRealPacketEnd@CChartAddInBase000000@@MAEHPBDH@Z ENDP ; CChartAddInBase000000::OnPreRealPacketEnd
_TEXT	ENDS
; Function compile flags: /Ogtp
; File D:\git\src\IBK\IBK_DRFN\ProjSrc\SrcChartEx\ChartOCX\AddInManager\Include_AddIn\I000000\_ChartAddInBase.h
;	COMDAT ?OnPreIndexedRealData@CChartAddInBase000000@@MAEHPBDHAANH@Z
_TEXT	SEGMENT
_p_szPacketName$ = 8					; size = 4
_p_nIndex$ = 12						; size = 4
_p_dData$ = 16						; size = 4
_p_bRealData$ = 20					; size = 4
?OnPreIndexedRealData@CChartAddInBase000000@@MAEHPBDHAANH@Z PROC ; CChartAddInBase000000::OnPreIndexedRealData, COMDAT
; _this$ = ecx

; 184  : 	virtual BOOL	OnPreIndexedRealData( const char *p_szPacketName, const int p_nIndex, double &p_dData, BOOL p_bRealData = TRUE)	{	return TRUE;	}

  00000	b8 01 00 00 00	 mov	 eax, 1
  00005	c2 10 00	 ret	 16			; 00000010H
?OnPreIndexedRealData@CChartAddInBase000000@@MAEHPBDHAANH@Z ENDP ; CChartAddInBase000000::OnPreIndexedRealData
_TEXT	ENDS
; Function compile flags: /Ogtp
; File D:\git\src\IBK\IBK_DRFN\ProjSrc\SrcChartEx\ChartOCX\AddInManager\Include_AddIn\I000000\_ChartAddInBase.h
;	COMDAT ?OnPreRealData@CChartAddInBase000000@@MAEHPBDAAN0H@Z
_TEXT	SEGMENT
_p_szPacketName$ = 8					; size = 4
_p_dData$ = 12						; size = 4
_p_szRQ$ = 16						; size = 4
_p_bRealData$ = 20					; size = 4
?OnPreRealData@CChartAddInBase000000@@MAEHPBDAAN0H@Z PROC ; CChartAddInBase000000::OnPreRealData, COMDAT
; _this$ = ecx

; 183  : 	virtual BOOL	OnPreRealData( const char *p_szPacketName, double &p_dData, const char *p_szRQ = NULL, BOOL p_bRealData = TRUE)	{	return TRUE;	}

  00000	b8 01 00 00 00	 mov	 eax, 1
  00005	c2 10 00	 ret	 16			; 00000010H
?OnPreRealData@CChartAddInBase000000@@MAEHPBDAAN0H@Z ENDP ; CChartAddInBase000000::OnPreRealData
_TEXT	ENDS
; Function compile flags: /Ogtp
; File D:\git\src\IBK\IBK_DRFN\ProjSrc\SrcChartEx\ChartOCX\AddInManager\Include_AddIn\I000000\_ChartAddInBase.h
;	COMDAT ?OnRecalculationComplete@CChartAddInBase000000@@MAEXXZ
_TEXT	SEGMENT
?OnRecalculationComplete@CChartAddInBase000000@@MAEXXZ PROC ; CChartAddInBase000000::OnRecalculationComplete, COMDAT
; _this$ = ecx

; 179  : 	virtual void	OnRecalculationComplete( void)						{}

  00000	c2 00 00	 ret	 0
?OnRecalculationComplete@CChartAddInBase000000@@MAEXXZ ENDP ; CChartAddInBase000000::OnRecalculationComplete
_TEXT	ENDS
; Function compile flags: /Ogtp
; File D:\git\src\IBK\IBK_DRFN\ProjSrc\SrcChartEx\ChartOCX\AddInManager\Include_AddIn\I000000\_ChartAddInBase.h
;	COMDAT ?DrawCursor@CChartAddInBase000000@@MAE?AUtagRECT@@PAUHDC__@@@Z
_TEXT	SEGMENT
___$ReturnUdt$ = 8					; size = 4
_p_hDC$ = 12						; size = 4
?DrawCursor@CChartAddInBase000000@@MAE?AUtagRECT@@PAUHDC__@@@Z PROC ; CChartAddInBase000000::DrawCursor, COMDAT
; _this$ = ecx

; 177  : 	virtual RECT	DrawCursor( HDC p_hDC)								{	RECT rct = { 0, 0, 0, 0};	return rct;		}

  00000	55		 push	 ebp
  00001	8b ec		 mov	 ebp, esp
  00003	8b 45 08	 mov	 eax, DWORD PTR ___$ReturnUdt$[ebp]
  00006	c7 00 00 00 00
	00		 mov	 DWORD PTR [eax], 0
  0000c	c7 40 04 00 00
	00 00		 mov	 DWORD PTR [eax+4], 0
  00013	c7 40 08 00 00
	00 00		 mov	 DWORD PTR [eax+8], 0
  0001a	c7 40 0c 00 00
	00 00		 mov	 DWORD PTR [eax+12], 0
  00021	5d		 pop	 ebp
  00022	c2 08 00	 ret	 8
?DrawCursor@CChartAddInBase000000@@MAE?AUtagRECT@@PAUHDC__@@@Z ENDP ; CChartAddInBase000000::DrawCursor
_TEXT	ENDS
; Function compile flags: /Ogtp
; File D:\git\src\IBK\IBK_DRFN\ProjSrc\SrcChartEx\ChartOCX\AddInManager\Include_AddIn\I000000\_ChartAddInBase.h
;	COMDAT ?OnSaveEnvironment@CChartAddInBase000000@@MAEXPAUIPropertyMap@@@Z
_TEXT	SEGMENT
_p_pIAddInEnvMap$ = 8					; size = 4
?OnSaveEnvironment@CChartAddInBase000000@@MAEXPAUIPropertyMap@@@Z PROC ; CChartAddInBase000000::OnSaveEnvironment, COMDAT
; _this$ = ecx

; 175  : 	virtual void	OnSaveEnvironment( IPropertyMap *p_pIAddInEnvMap)	{}

  00000	c2 04 00	 ret	 4
?OnSaveEnvironment@CChartAddInBase000000@@MAEXPAUIPropertyMap@@@Z ENDP ; CChartAddInBase000000::OnSaveEnvironment
_TEXT	ENDS
; Function compile flags: /Ogtp
; File D:\git\src\IBK\IBK_DRFN\ProjSrc\SrcChartEx\ChartOCX\AddInManager\Include_AddIn\I000000\_ChartAddInBase.h
;	COMDAT ?OnLoadEnvironment@CChartAddInBase000000@@MAEXPAUIPropertyMap@@@Z
_TEXT	SEGMENT
_p_pIAddInEnvMap$ = 8					; size = 4
?OnLoadEnvironment@CChartAddInBase000000@@MAEXPAUIPropertyMap@@@Z PROC ; CChartAddInBase000000::OnLoadEnvironment, COMDAT
; _this$ = ecx

; 174  : 	virtual void	OnLoadEnvironment( IPropertyMap *p_pIAddInEnvMap)	{}

  00000	c2 04 00	 ret	 4
?OnLoadEnvironment@CChartAddInBase000000@@MAEXPAUIPropertyMap@@@Z ENDP ; CChartAddInBase000000::OnLoadEnvironment
_TEXT	ENDS
; Function compile flags: /Ogtp
; File D:\git\src\IBK\IBK_DRFN\ProjSrc\SrcChartEx\ChartOCX\AddInManager\Include_AddIn\I000000\_ChartAddInBase.h
;	COMDAT ?OnRealPacketEnd@CChartAddInBase000000@@MAEXPBD@Z
_TEXT	SEGMENT
_p_szRQ$ = 8						; size = 4
?OnRealPacketEnd@CChartAddInBase000000@@MAEXPBD@Z PROC	; CChartAddInBase000000::OnRealPacketEnd, COMDAT
; _this$ = ecx

; 172  : 	virtual void	OnRealPacketEnd( const char *p_szRQ)								{}

  00000	c2 04 00	 ret	 4
?OnRealPacketEnd@CChartAddInBase000000@@MAEXPBD@Z ENDP	; CChartAddInBase000000::OnRealPacketEnd
_TEXT	ENDS
; Function compile flags: /Ogtp
; File D:\git\src\IBK\IBK_DRFN\ProjSrc\SrcChartEx\ChartOCX\AddInManager\Include_AddIn\I000000\_ChartAddInBase.h
;	COMDAT ?OnIndexedRealData@CChartAddInBase000000@@MAEXPBDHN@Z
_TEXT	SEGMENT
_p_szPacketName$ = 8					; size = 4
_p_nIndex$ = 12						; size = 4
_p_dData$ = 16						; size = 8
?OnIndexedRealData@CChartAddInBase000000@@MAEXPBDHN@Z PROC ; CChartAddInBase000000::OnIndexedRealData, COMDAT
; _this$ = ecx

; 170  : 	virtual void	OnIndexedRealData( const char *p_szPacketName, const int p_nIndex, double p_dData)		{}

  00000	c2 10 00	 ret	 16			; 00000010H
?OnIndexedRealData@CChartAddInBase000000@@MAEXPBDHN@Z ENDP ; CChartAddInBase000000::OnIndexedRealData
_TEXT	ENDS
; Function compile flags: /Ogtp
; File D:\git\src\IBK\IBK_DRFN\ProjSrc\SrcChartEx\ChartOCX\AddInManager\Include_AddIn\I000000\_ChartAddInBase.h
;	COMDAT ?OnRealData@CChartAddInBase000000@@MAEXPBDN0@Z
_TEXT	SEGMENT
_p_szPacketName$ = 8					; size = 4
_p_dData$ = 12						; size = 8
_p_szRQ$ = 20						; size = 4
?OnRealData@CChartAddInBase000000@@MAEXPBDN0@Z PROC	; CChartAddInBase000000::OnRealData, COMDAT
; _this$ = ecx

; 169  : 	virtual void	OnRealData( const char *p_szPacketName, double p_dData, const char *p_szRQ)			{}

  00000	c2 10 00	 ret	 16			; 00000010H
?OnRealData@CChartAddInBase000000@@MAEXPBDN0@Z ENDP	; CChartAddInBase000000::OnRealData
_TEXT	ENDS
; Function compile flags: /Ogtp
; File D:\git\src\IBK\IBK_DRFN\ProjSrc\SrcChartEx\ChartOCX\AddInManager\Include_AddIn\I000000\_ChartAddInBase.h
;	COMDAT ?OnToolCommand@CChartAddInBase000000@@MAEXHH@Z
_TEXT	SEGMENT
_p_nToolType$ = 8					; size = 4
_p_nCmdOption$ = 12					; size = 4
?OnToolCommand@CChartAddInBase000000@@MAEXHH@Z PROC	; CChartAddInBase000000::OnToolCommand, COMDAT
; _this$ = ecx

; 167  : 	virtual void	OnToolCommand( const int p_nToolType, const int p_nCmdOption)	{}

  00000	c2 08 00	 ret	 8
?OnToolCommand@CChartAddInBase000000@@MAEXHH@Z ENDP	; CChartAddInBase000000::OnToolCommand
_TEXT	ENDS
; Function compile flags: /Ogtp
; File D:\git\src\IBK\IBK_DRFN\ProjSrc\SrcChartEx\ChartOCX\AddInManager\Include_AddIn\I000000\_ChartAddInBase.h
;	COMDAT ?OnBlockChanged@CChartAddInBase000000@@MAEXW4BLOCKBEHAVIOR@CBlockBaseData@@HHHH@Z
_TEXT	SEGMENT
_p_eChangeType$ = 8					; size = 4
_p_nSourceRow$ = 12					; size = 4
_p_nSourceColumn$ = 16					; size = 4
_p_nTargetRow$ = 20					; size = 4
_p_nTargetColumn$ = 24					; size = 4
?OnBlockChanged@CChartAddInBase000000@@MAEXW4BLOCKBEHAVIOR@CBlockBaseData@@HHHH@Z PROC ; CChartAddInBase000000::OnBlockChanged, COMDAT
; _this$ = ecx

; 165  : 	virtual void	OnBlockChanged( const CBlockBaseData::BLOCKBEHAVIOR p_eChangeType, const int p_nSourceRow, const int p_nSourceColumn, const int p_nTargetRow, const int p_nTargetColumn)	{}

  00000	c2 14 00	 ret	 20			; 00000014H
?OnBlockChanged@CChartAddInBase000000@@MAEXW4BLOCKBEHAVIOR@CBlockBaseData@@HHHH@Z ENDP ; CChartAddInBase000000::OnBlockChanged
_TEXT	ENDS
; Function compile flags: /Ogtp
; File D:\git\src\IBK\IBK_DRFN\ProjSrc\SrcChartEx\ChartOCX\AddInManager\Include_AddIn\I000000\_ChartAddInBase.h
;	COMDAT ?OnPacketTruncated@CChartAddInBase000000@@MAEXH@Z
_TEXT	SEGMENT
_p_nDataCount$ = 8					; size = 4
?OnPacketTruncated@CChartAddInBase000000@@MAEXH@Z PROC	; CChartAddInBase000000::OnPacketTruncated, COMDAT
; _this$ = ecx

; 163  : 	virtual void	OnPacketTruncated( const int p_nDataCount)			{}

  00000	c2 04 00	 ret	 4
?OnPacketTruncated@CChartAddInBase000000@@MAEXH@Z ENDP	; CChartAddInBase000000::OnPacketTruncated
_TEXT	ENDS
; Function compile flags: /Ogtp
; File D:\git\src\IBK\IBK_DRFN\ProjSrc\SrcChartEx\ChartOCX\AddInManager\Include_AddIn\I000000\_ChartAddInBase.h
;	COMDAT ?OnGraphDeleted@CChartAddInBase000000@@MAEXPBD0@Z
_TEXT	SEGMENT
_p_szGraphName$ = 8					; size = 4
_p_szIndicatorName$ = 12				; size = 4
?OnGraphDeleted@CChartAddInBase000000@@MAEXPBD0@Z PROC	; CChartAddInBase000000::OnGraphDeleted, COMDAT
; _this$ = ecx

; 161  : 	virtual void	OnGraphDeleted( const char *p_szGraphName, const char *p_szIndicatorName)			{}

  00000	c2 08 00	 ret	 8
?OnGraphDeleted@CChartAddInBase000000@@MAEXPBD0@Z ENDP	; CChartAddInBase000000::OnGraphDeleted
_TEXT	ENDS
; Function compile flags: /Ogtp
; File D:\git\src\IBK\IBK_DRFN\ProjSrc\SrcChartEx\ChartOCX\AddInManager\Include_AddIn\I000000\_ChartAddInBase.h
;	COMDAT ?OnContextMenu@CChartAddInBase000000@@MAEXPAUHWND__@@AAUtagPOINT@@@Z
_TEXT	SEGMENT
_p_hWnd$ = 8						; size = 4
_p_pt$ = 12						; size = 4
?OnContextMenu@CChartAddInBase000000@@MAEXPAUHWND__@@AAUtagPOINT@@@Z PROC ; CChartAddInBase000000::OnContextMenu, COMDAT
; _this$ = ecx

; 159  : 	virtual void	OnContextMenu( HWND p_hWnd, POINT &p_pt)			{}

  00000	c2 08 00	 ret	 8
?OnContextMenu@CChartAddInBase000000@@MAEXPAUHWND__@@AAUtagPOINT@@@Z ENDP ; CChartAddInBase000000::OnContextMenu
_TEXT	ENDS
; Function compile flags: /Ogtp
; File D:\git\src\IBK\IBK_DRFN\ProjSrc\SrcChartEx\ChartOCX\AddInManager\Include_AddIn\I000000\_ChartAddInBase.h
;	COMDAT ?OnManualRealData@CChartAddInBase000000@@MAEXPBDNH@Z
_TEXT	SEGMENT
_p_szPacketName$ = 8					; size = 4
_p_dData$ = 12						; size = 8
_p_nOption$ = 20					; size = 4
?OnManualRealData@CChartAddInBase000000@@MAEXPBDNH@Z PROC ; CChartAddInBase000000::OnManualRealData, COMDAT
; _this$ = ecx

; 157  : 	virtual void	OnManualRealData( const char *p_szPacketName, const double p_dData, const int p_nOption)	{}

  00000	c2 10 00	 ret	 16			; 00000010H
?OnManualRealData@CChartAddInBase000000@@MAEXPBDNH@Z ENDP ; CChartAddInBase000000::OnManualRealData
_TEXT	ENDS
; Function compile flags: /Ogtp
; File D:\git\src\IBK\IBK_DRFN\ProjSrc\SrcChartEx\ChartOCX\AddInManager\Include_AddIn\I000000\_ChartAddInBase.h
;	COMDAT ?OnGraphAdded@CChartAddInBase000000@@MAEXPBD0@Z
_TEXT	SEGMENT
_p_szGraphName$ = 8					; size = 4
_p_szIndicatorName$ = 12				; size = 4
?OnGraphAdded@CChartAddInBase000000@@MAEXPBD0@Z PROC	; CChartAddInBase000000::OnGraphAdded, COMDAT
; _this$ = ecx

; 155  : 	virtual void	OnGraphAdded( const char *p_szGraphName, const char *p_szIndicatorName)			{}

  00000	c2 08 00	 ret	 8
?OnGraphAdded@CChartAddInBase000000@@MAEXPBD0@Z ENDP	; CChartAddInBase000000::OnGraphAdded
_TEXT	ENDS
; Function compile flags: /Ogtp
; File D:\git\src\IBK\IBK_DRFN\ProjSrc\SrcChartEx\ChartOCX\AddInManager\Include_AddIn\I000000\_ChartAddInBase.h
;	COMDAT ?OnBlockRemoved@CChartAddInBase000000@@MAEXHH@Z
_TEXT	SEGMENT
_p_nRow$ = 8						; size = 4
_p_nColumn$ = 12					; size = 4
?OnBlockRemoved@CChartAddInBase000000@@MAEXHH@Z PROC	; CChartAddInBase000000::OnBlockRemoved, COMDAT
; _this$ = ecx

; 153  : 	virtual void	OnBlockRemoved( const int p_nRow, const int p_nColumn)	{}

  00000	c2 08 00	 ret	 8
?OnBlockRemoved@CChartAddInBase000000@@MAEXHH@Z ENDP	; CChartAddInBase000000::OnBlockRemoved
_TEXT	ENDS
; Function compile flags: /Ogtp
; File D:\git\src\IBK\IBK_DRFN\ProjSrc\SrcChartEx\ChartOCX\AddInManager\Include_AddIn\I000000\_ChartAddInBase.h
;	COMDAT ?OnGraphDataChanged@CChartAddInBase000000@@MAEXXZ
_TEXT	SEGMENT
?OnGraphDataChanged@CChartAddInBase000000@@MAEXXZ PROC	; CChartAddInBase000000::OnGraphDataChanged, COMDAT
; _this$ = ecx

; 151  : 	virtual void	OnGraphDataChanged( void)							{}

  00000	c2 00 00	 ret	 0
?OnGraphDataChanged@CChartAddInBase000000@@MAEXXZ ENDP	; CChartAddInBase000000::OnGraphDataChanged
_TEXT	ENDS
; Function compile flags: /Ogtp
; File D:\git\src\IBK\IBK_DRFN\ProjSrc\SrcChartEx\ChartOCX\AddInManager\Include_AddIn\I000000\_ChartAddInBase.h
;	COMDAT ?OnChartItemChanged@CChartAddInBase000000@@MAEXXZ
_TEXT	SEGMENT
?OnChartItemChanged@CChartAddInBase000000@@MAEXXZ PROC	; CChartAddInBase000000::OnChartItemChanged, COMDAT
; _this$ = ecx

; 149  : 	virtual void	OnChartItemChanged( void)							{}

  00000	c2 00 00	 ret	 0
?OnChartItemChanged@CChartAddInBase000000@@MAEXXZ ENDP	; CChartAddInBase000000::OnChartItemChanged
_TEXT	ENDS
; Function compile flags: /Ogtp
; File D:\git\src\IBK\IBK_DRFN\ProjSrc\SrcChartEx\ChartOCX\AddInManager\Include_AddIn\I000000\_ChartAddInBase.h
;	COMDAT ?OnUserIndiatorConditionLoaded@CChartAddInBase000000@@MAEXXZ
_TEXT	SEGMENT
?OnUserIndiatorConditionLoaded@CChartAddInBase000000@@MAEXXZ PROC ; CChartAddInBase000000::OnUserIndiatorConditionLoaded, COMDAT
; _this$ = ecx

; 147  : 	virtual void	OnUserIndiatorConditionLoaded( void)				{}

  00000	c2 00 00	 ret	 0
?OnUserIndiatorConditionLoaded@CChartAddInBase000000@@MAEXXZ ENDP ; CChartAddInBase000000::OnUserIndiatorConditionLoaded
_TEXT	ENDS
; Function compile flags: /Ogtp
; File D:\git\src\IBK\IBK_DRFN\ProjSrc\SrcChartEx\ChartOCX\AddInManager\Include_AddIn\I000000\_ChartAddInBase.h
;	COMDAT ?OnResetMainBlock@CChartAddInBase000000@@MAEXXZ
_TEXT	SEGMENT
?OnResetMainBlock@CChartAddInBase000000@@MAEXXZ PROC	; CChartAddInBase000000::OnResetMainBlock, COMDAT
; _this$ = ecx

; 145  : 	virtual void	OnResetMainBlock( void)								{}

  00000	c2 00 00	 ret	 0
?OnResetMainBlock@CChartAddInBase000000@@MAEXXZ ENDP	; CChartAddInBase000000::OnResetMainBlock
_TEXT	ENDS
; Function compile flags: /Ogtp
; File D:\git\src\IBK\IBK_DRFN\ProjSrc\SrcChartEx\ChartOCX\AddInManager\Include_AddIn\I000000\_ChartAddInBase.h
;	COMDAT ?OnCaptureChanged@CChartAddInBase000000@@MAEXPAUHWND__@@QAUHBITMAP__@@@Z
_TEXT	SEGMENT
_p_hWnd$ = 8						; size = 4
_p_hbmpMainOSB$ = 12					; size = 4
?OnCaptureChanged@CChartAddInBase000000@@MAEXPAUHWND__@@QAUHBITMAP__@@@Z PROC ; CChartAddInBase000000::OnCaptureChanged, COMDAT
; _this$ = ecx

; 143  : 	virtual void	OnCaptureChanged( HWND p_hWnd, const HBITMAP p_hbmpMainOSB)	{}	// (2006/11/5 - Seung-Won, Bae) Support MainOSB

  00000	c2 08 00	 ret	 8
?OnCaptureChanged@CChartAddInBase000000@@MAEXPAUHWND__@@QAUHBITMAP__@@@Z ENDP ; CChartAddInBase000000::OnCaptureChanged
_TEXT	ENDS
; Function compile flags: /Ogtp
; File D:\git\src\IBK\IBK_DRFN\ProjSrc\SrcChartEx\ChartOCX\AddInManager\Include_AddIn\I000000\_ChartAddInBase.h
;	COMDAT ?OnTimer@CChartAddInBase000000@@MAEXI@Z
_TEXT	SEGMENT
_p_uTimerID$ = 8					; size = 4
?OnTimer@CChartAddInBase000000@@MAEXI@Z PROC		; CChartAddInBase000000::OnTimer, COMDAT
; _this$ = ecx

; 138  : 	virtual void	OnTimer( UINT p_uTimerID)	{}

  00000	c2 04 00	 ret	 4
?OnTimer@CChartAddInBase000000@@MAEXI@Z ENDP		; CChartAddInBase000000::OnTimer
_TEXT	ENDS
; Function compile flags: /Ogtp
; File D:\git\src\IBK\IBK_DRFN\ProjSrc\SrcChartEx\ChartOCX\AddInManager\Include_AddIn\I000000\_ChartAddInBase.h
;	COMDAT ?OnPacketDataMultiItem@CChartAddInBase000000@@MAEXPBD0H@Z
_TEXT	SEGMENT
_lpszRQ$ = 8						; size = 4
_p_szPacketNames$ = 12					; size = 4
_p_bWithReset$ = 16					; size = 4
?OnPacketDataMultiItem@CChartAddInBase000000@@MAEXPBD0H@Z PROC ; CChartAddInBase000000::OnPacketDataMultiItem, COMDAT
; _this$ = ecx

; 136  : 	virtual void	OnPacketDataMultiItem(LPCTSTR lpszRQ, const char *p_szPacketNames, BOOL p_bWithReset)	{}

  00000	c2 0c 00	 ret	 12			; 0000000cH
?OnPacketDataMultiItem@CChartAddInBase000000@@MAEXPBD0H@Z ENDP ; CChartAddInBase000000::OnPacketDataMultiItem
_TEXT	ENDS
; Function compile flags: /Ogtp
; File D:\git\src\IBK\IBK_DRFN\ProjSrc\SrcChartEx\ChartOCX\AddInManager\Include_AddIn\I000000\_ChartAddInBase.h
;	COMDAT ?OnDrawAfterGraph@CChartAddInBase000000@@MAEXPAUHDC__@@@Z
_TEXT	SEGMENT
_p_hDC$ = 8						; size = 4
?OnDrawAfterGraph@CChartAddInBase000000@@MAEXPAUHDC__@@@Z PROC ; CChartAddInBase000000::OnDrawAfterGraph, COMDAT
; _this$ = ecx

; 134  : 	virtual void	OnDrawAfterGraph( HDC p_hDC)	{}

  00000	c2 04 00	 ret	 4
?OnDrawAfterGraph@CChartAddInBase000000@@MAEXPAUHDC__@@@Z ENDP ; CChartAddInBase000000::OnDrawAfterGraph
_TEXT	ENDS
; Function compile flags: /Ogtp
; File D:\git\src\IBK\IBK_DRFN\ProjSrc\SrcChartEx\ChartOCX\AddInManager\Include_AddIn\I000000\_ChartAddInBase.h
;	COMDAT ?OnDrawBeforeGraph@CChartAddInBase000000@@MAEXPAUHDC__@@@Z
_TEXT	SEGMENT
_p_hDC$ = 8						; size = 4
?OnDrawBeforeGraph@CChartAddInBase000000@@MAEXPAUHDC__@@@Z PROC ; CChartAddInBase000000::OnDrawBeforeGraph, COMDAT
; _this$ = ecx

; 132  : 	virtual void	OnDrawBeforeGraph( HDC p_hDC)	{}

  00000	c2 04 00	 ret	 4
?OnDrawBeforeGraph@CChartAddInBase000000@@MAEXPAUHDC__@@@Z ENDP ; CChartAddInBase000000::OnDrawBeforeGraph
_TEXT	ENDS
; Function compile flags: /Ogtp
; File D:\git\src\IBK\IBK_DRFN\ProjSrc\SrcChartEx\ChartOCX\AddInManager\Include_AddIn\I000000\_ChartAddInBase.h
;	COMDAT ?OnResetChart@CChartAddInBase000000@@MAEXXZ
_TEXT	SEGMENT
?OnResetChart@CChartAddInBase000000@@MAEXXZ PROC	; CChartAddInBase000000::OnResetChart, COMDAT
; _this$ = ecx

; 130  : 	virtual void	OnResetChart( void)	{}

  00000	c2 00 00	 ret	 0
?OnResetChart@CChartAddInBase000000@@MAEXXZ ENDP	; CChartAddInBase000000::OnResetChart
_TEXT	ENDS
; Function compile flags: /Ogtp
; File D:\git\src\IBK\IBK_DRFN\ProjSrc\SrcChartEx\ChartOCX\AddInManager\Include_AddIn\I000000\_ChartAddInBase.h
;	COMDAT ?OnLSharedDataChange@CChartAddInBase000000@@MAEXPBD0@Z
_TEXT	SEGMENT
_p_szLShareKey$ = 8					; size = 4
_p_szLShareValue$ = 12					; size = 4
