; Listing generated by Microsoft (R) Optimizing Compiler Version 19.29.30145.0 

	TITLE	D:\git\src\IBK\IBK_DRFN\#DRfn-CS\_Obj\ChartCommonAddIn\ObjectAddInImp.obj
	.686P
	.XMM
	include listing.inc
	.model	flat

INCLUDELIB MSVCRT
INCLUDELIB OLDNAMES

PUBLIC	??_C@_0BC@MMPGLPDH@RMS_ANALYSIS_FUNC@		; `string'
PUBLIC	??_C@_0M@PBNKDJAC@OBJECT_TOOL@			; `string'
PUBLIC	?m_eRegisteredEventMap@CObjectAddInImp@@1QBW4EAddInEventType@IChartAddIn000000@@B ; CObjectAddInImp::m_eRegisteredEventMap
CONST	SEGMENT
?m_eRegisteredEventMap@CObjectAddInImp@@1QBW4EAddInEventType@IChartAddIn000000@@B DD 014H ; CObjectAddInImp::m_eRegisteredEventMap
	DD	037H
	DD	024H
	DD	026H
	DD	027H
	DD	028H
	DD	029H
	DD	02cH
	DD	013H
	DD	06H
	DD	0aH
	DD	0bH
	DD	011H
	DD	0eH
	DD	017H
	DD	01dH
	DD	01aH
	DD	01bH
	DD	019H
	DD	021H
	DD	03cH
	ORG $+160
CONST	ENDS
;	COMDAT ??_C@_0M@PBNKDJAC@OBJECT_TOOL@
CONST	SEGMENT
??_C@_0M@PBNKDJAC@OBJECT_TOOL@ DB 'OBJECT_TOOL', 00H	; `string'
CONST	ENDS
;	COMDAT ??_C@_0BC@MMPGLPDH@RMS_ANALYSIS_FUNC@
CONST	SEGMENT
??_C@_0BC@MMPGLPDH@RMS_ANALYSIS_FUNC@ DB 'RMS_ANALYSIS_FUNC', 00H ; `string'
CONST	ENDS
PUBLIC	?__empty_global_delete@@YAXPAX@Z		; __empty_global_delete
PUBLIC	?__empty_global_delete@@YAXPAXI@Z		; __empty_global_delete
PUBLIC	??1CObject@@UAE@XZ				; CObject::~CObject
PUBLIC	?Serialize@CObject@@UAEXAAVCArchive@@@Z		; CObject::Serialize
PUBLIC	?AssertValid@CObject@@UBEXXZ			; CObject::AssertValid
PUBLIC	?Dump@CObject@@UBEXAAVCDumpContext@@@Z		; CObject::Dump
PUBLIC	?GetSubMenu@CMenu@@QBEPAV1@H@Z			; CMenu::GetSubMenu
PUBLIC	??1CMenu@@UAE@XZ				; CMenu::~CMenu
PUBLIC	??_GCMenu@@UAEPAXI@Z				; CMenu::`scalar deleting destructor'
PUBLIC	?PostConstruct@CIWUnknown@@MAEXXZ		; CIWUnknown::PostConstruct
PUBLIC	?PreDestructX@CIWUnknown@@MAEXXZ		; CIWUnknown::PreDestructX
PUBLIC	?PreDestruct@CIWUnknown@@MAEXXZ			; CIWUnknown::PreDestruct
PUBLIC	?InvokeAddIn@CChartAddInBase000000@@MAEHHJ@Z	; CChartAddInBase000000::InvokeAddIn
PUBLIC	?InvokeAddInStr@CChartAddInBase000000@@MAEHPBD0@Z ; CChartAddInBase000000::InvokeAddInStr
PUBLIC	?AfeterOnOcxDestroyWindow@CChartAddInBase000000@@MAEXXZ ; CChartAddInBase000000::AfeterOnOcxDestroyWindow
PUBLIC	?ChangeChartMode@CChartAddInBase000000@@MAEXW4CHART_MODE@CChartInfo@@@Z ; CChartAddInBase000000::ChangeChartMode
PUBLIC	?OnGSharedDataChange@CChartAddInBase000000@@MAEXPBD0H@Z ; CChartAddInBase000000::OnGSharedDataChange
PUBLIC	?OnLSharedDataChange@CChartAddInBase000000@@MAEXPBD0@Z ; CChartAddInBase000000::OnLSharedDataChange
PUBLIC	?OnResetChart@CChartAddInBase000000@@MAEXXZ	; CChartAddInBase000000::OnResetChart
PUBLIC	?OnDrawBeforeGraph@CChartAddInBase000000@@MAEXPAUHDC__@@@Z ; CChartAddInBase000000::OnDrawBeforeGraph
PUBLIC	?OnTimer@CChartAddInBase000000@@MAEXI@Z		; CChartAddInBase000000::OnTimer
PUBLIC	?OnCaptureChanged@CChartAddInBase000000@@MAEXPAUHWND__@@QAUHBITMAP__@@@Z ; CChartAddInBase000000::OnCaptureChanged
PUBLIC	?OnUserIndiatorConditionLoaded@CChartAddInBase000000@@MAEXXZ ; CChartAddInBase000000::OnUserIndiatorConditionLoaded
PUBLIC	?OnManualRealData@CChartAddInBase000000@@MAEXPBDNH@Z ; CChartAddInBase000000::OnManualRealData
PUBLIC	?OnContextMenu@CChartAddInBase000000@@MAEXPAUHWND__@@AAUtagPOINT@@@Z ; CChartAddInBase000000::OnContextMenu
PUBLIC	?OnPacketTruncated@CChartAddInBase000000@@MAEXH@Z ; CChartAddInBase000000::OnPacketTruncated
PUBLIC	?OnToolCommand@CChartAddInBase000000@@MAEXHH@Z	; CChartAddInBase000000::OnToolCommand
PUBLIC	?OnRealData@CChartAddInBase000000@@MAEXPBDN0@Z	; CChartAddInBase000000::OnRealData
PUBLIC	?OnIndexedRealData@CChartAddInBase000000@@MAEXPBDHN@Z ; CChartAddInBase000000::OnIndexedRealData
PUBLIC	?OnRealPacketEnd@CChartAddInBase000000@@MAEXPBD@Z ; CChartAddInBase000000::OnRealPacketEnd
PUBLIC	?OnLoadEnvironment@CChartAddInBase000000@@MAEXPAUIPropertyMap@@@Z ; CChartAddInBase000000::OnLoadEnvironment
PUBLIC	?OnSaveEnvironment@CChartAddInBase000000@@MAEXPAUIPropertyMap@@@Z ; CChartAddInBase000000::OnSaveEnvironment
PUBLIC	?DrawCursor@CChartAddInBase000000@@MAE?AUtagRECT@@PAUHDC__@@@Z ; CChartAddInBase000000::DrawCursor
PUBLIC	?OnRecalculationComplete@CChartAddInBase000000@@MAEXXZ ; CChartAddInBase000000::OnRecalculationComplete
PUBLIC	?OnPreRealData@CChartAddInBase000000@@MAEHPBDAAN0H@Z ; CChartAddInBase000000::OnPreRealData
PUBLIC	?OnPreIndexedRealData@CChartAddInBase000000@@MAEHPBDHAANH@Z ; CChartAddInBase000000::OnPreIndexedRealData
PUBLIC	?OnPreRealPacketEnd@CChartAddInBase000000@@MAEHPBDH@Z ; CChartAddInBase000000::OnPreRealPacketEnd
PUBLIC	?OnPreNMTRClock@CChartAddInBase000000@@MAEHAA_J@Z ; CChartAddInBase000000::OnPreNMTRClock
PUBLIC	?OnAddInMsg@CChartAddInBase000000@@MAEHPBDJ@Z	; CChartAddInBase000000::OnAddInMsg
PUBLIC	?OnAddInToolCommand@CChartAddInBase000000@@MAEHW4EAICommandType@@@Z ; CChartAddInBase000000::OnAddInToolCommand
PUBLIC	?OnAddInToolCommand@CChartAddInBase000000@@MAEHW4EAICommandType@@PAUHDC__@@IAAUtagPOINT@@K@Z ; CChartAddInBase000000::OnAddInToolCommand
PUBLIC	?OnAddInToolCommand@CChartAddInBase000000@@MAEHW4EAICommandType@@PBD@Z ; CChartAddInBase000000::OnAddInToolCommand
PUBLIC	?OnAddInToolCommand@CChartAddInBase000000@@MAEHW4EAICommandType@@PBD1@Z ; CChartAddInBase000000::OnAddInToolCommand
PUBLIC	?OnAddInToolCommand@CChartAddInBase000000@@MAEHW4EAICommandType@@PBDJ@Z ; CChartAddInBase000000::OnAddInToolCommand
PUBLIC	?OnAddInToolCommand@CChartAddInBase000000@@MAEHW4EAICommandType@@J@Z ; CChartAddInBase000000::OnAddInToolCommand
PUBLIC	?OnAddInToolCommand@CChartAddInBase000000@@MAEHW4EAICommandType@@JPBD@Z ; CChartAddInBase000000::OnAddInToolCommand
PUBLIC	?OnAddInToolCommand@CChartAddInBase000000@@MAEHW4EAICommandType@@JPBD11@Z ; CChartAddInBase000000::OnAddInToolCommand
PUBLIC	?OnAddInToolCommand@CChartAddInBase000000@@MAEHAAJW4EAICommandType@@@Z ; CChartAddInBase000000::OnAddInToolCommand
PUBLIC	?OnAddInToolCommand@CChartAddInBase000000@@MAEHAAJW4EAICommandType@@PAUIGraphInfo000000@@@Z ; CChartAddInBase000000::OnAddInToolCommand
PUBLIC	?OnAddInToolCommand@CChartAddInBase000000@@MAEHAAJW4EAICommandType@@PBDPAVCObject@@@Z ; CChartAddInBase000000::OnAddInToolCommand
PUBLIC	?OnAddInToolCommand@CChartAddInBase000000@@MAEHAAJW4EAICommandType@@J@Z ; CChartAddInBase000000::OnAddInToolCommand
PUBLIC	?OnKeyUp@CChartAddInBase000000@@MAEHIII@Z	; CChartAddInBase000000::OnKeyUp
PUBLIC	?OnMouseWheel@CChartAddInBase000000@@MAEHIFUtagPOINT@@K@Z ; CChartAddInBase000000::OnMouseWheel
PUBLIC	?OnRButtonDown@CChartAddInBase000000@@MAEHPAUHDC__@@IAAUtagPOINT@@K@Z ; CChartAddInBase000000::OnRButtonDown
PUBLIC	?OnRButtonDblClk@CChartAddInBase000000@@MAEHPAUHDC__@@IAAUtagPOINT@@K@Z ; CChartAddInBase000000::OnRButtonDblClk
PUBLIC	??0CObjectAddInImp@@QAE@PAUIChartOCX000000@@PAUIAddInDllBase@@@Z ; CObjectAddInImp::CObjectAddInImp
PUBLIC	??1CObjectAddInImp@@UAE@XZ			; CObjectAddInImp::~CObjectAddInImp
PUBLIC	?GetRegisteredEventMap@CObjectAddInImp@@MBEPBW4EAddInEventType@IChartAddIn000000@@XZ ; CObjectAddInImp::GetRegisteredEventMap
PUBLIC	?MakeConfigMenu@CObjectAddInImp@@IAEHPAVCMenu@@@Z ; CObjectAddInImp::MakeConfigMenu
PUBLIC	?LoadTimeDiffConf@CObjectAddInImp@@IAEXXZ	; CObjectAddInImp::LoadTimeDiffConf
PUBLIC	?GetSubMenuIndex@CObjectAddInImp@@IAEHPAVCMenu@@PBD@Z ; CObjectAddInImp::GetSubMenuIndex
PUBLIC	?GetSubMenu@CObjectAddInImp@@IAEPAVCMenu@@PAV2@PBD@Z ; CObjectAddInImp::GetSubMenu
PUBLIC	?GetAddInCustomInterface@CObjectAddInImp@@MAEPAUIUnknown@@XZ ; CObjectAddInImp::GetAddInCustomInterface
PUBLIC	?AddRef@CObjectAddInImp@@MAGKXZ			; CObjectAddInImp::AddRef
PUBLIC	?Release@CObjectAddInImp@@MAGKXZ		; CObjectAddInImp::Release
PUBLIC	?QueryInterface@CObjectAddInImp@@MAGJABU_GUID@@PAPAX@Z ; CObjectAddInImp::QueryInterface
PUBLIC	?OnDrawAfterGraph@CObjectAddInImp@@MAEXPAUHDC__@@@Z ; CObjectAddInImp::OnDrawAfterGraph
PUBLIC	?OnPacketDataMultiItem@CObjectAddInImp@@MAEXPBD0H@Z ; CObjectAddInImp::OnPacketDataMultiItem
PUBLIC	?OnResetMainBlock@CObjectAddInImp@@MAEXXZ	; CObjectAddInImp::OnResetMainBlock
PUBLIC	?OnChartItemChanged@CObjectAddInImp@@MAEXXZ	; CObjectAddInImp::OnChartItemChanged
PUBLIC	?OnGraphDataChanged@CObjectAddInImp@@MAEXXZ	; CObjectAddInImp::OnGraphDataChanged
PUBLIC	?OnBlockRemoved@CObjectAddInImp@@MAEXHH@Z	; CObjectAddInImp::OnBlockRemoved
PUBLIC	?OnGraphAdded@CObjectAddInImp@@MAEXPBD0@Z	; CObjectAddInImp::OnGraphAdded
PUBLIC	?OnGraphDeleted@CObjectAddInImp@@MAEXPBD0@Z	; CObjectAddInImp::OnGraphDeleted
PUBLIC	?OnBlockChanged@CObjectAddInImp@@MAEXW4BLOCKBEHAVIOR@CBlockBaseData@@HHHH@Z ; CObjectAddInImp::OnBlockChanged
PUBLIC	?OnCmdMsg@CObjectAddInImp@@MAEHIHPAUICmdUI000000@@@Z ; CObjectAddInImp::OnCmdMsg
PUBLIC	?OnAddInToolCommand@CObjectAddInImp@@MAEHW4EAICommandType@@PBUIAddInDllBase@@@Z ; CObjectAddInImp::OnAddInToolCommand
PUBLIC	?OnAddInToolCommand@CObjectAddInImp@@MAEHW4EAICommandType@@JJ@Z ; CObjectAddInImp::OnAddInToolCommand
PUBLIC	?OnAddInToolCommand@CObjectAddInImp@@MAEHW4EAICommandType@@JJJJJJJJJ@Z ; CObjectAddInImp::OnAddInToolCommand
PUBLIC	?OnAddInToolCommand@CObjectAddInImp@@MAEHAAJW4EAICommandType@@JJ@Z ; CObjectAddInImp::OnAddInToolCommand
PUBLIC	?OnAddInToolCommand@CObjectAddInImp@@MAEHAAJW4EAICommandType@@PBD@Z ; CObjectAddInImp::OnAddInToolCommand
PUBLIC	?OnKeyDown@CObjectAddInImp@@UAEHIII@Z		; CObjectAddInImp::OnKeyDown
PUBLIC	?OnMouseMove@CObjectAddInImp@@UAEHPAUHDC__@@IAAUtagPOINT@@KQAUHBITMAP__@@@Z ; CObjectAddInImp::OnMouseMove
PUBLIC	?OnLButtonDown@CObjectAddInImp@@UAEHPAUHDC__@@IAAUtagPOINT@@K@Z ; CObjectAddInImp::OnLButtonDown
PUBLIC	?OnLButtonUp@CObjectAddInImp@@UAEHPAUHDC__@@IAAUtagPOINT@@K@Z ; CObjectAddInImp::OnLButtonUp
PUBLIC	?OnLButtonDblClk@CObjectAddInImp@@UAEHPAUHDC__@@IAAUtagPOINT@@K@Z ; CObjectAddInImp::OnLButtonDblClk
PUBLIC	?OnRButtonUp@CObjectAddInImp@@UAEHPAUHDC__@@IAAUtagPOINT@@K@Z ; CObjectAddInImp::OnRButtonUp
PUBLIC	??_GCObjectAddInImp@@UAEPAXI@Z			; CObjectAddInImp::`scalar deleting destructor'
PUBLIC	?LoadResourceDLL@IMetaTable@@QAEPAUHINSTANCE__@@PAUHWND__@@PAU2@@Z ; IMetaTable::LoadResourceDLL
PUBLIC	??1CMultiLanguageResourceSetter@@QAE@XZ		; CMultiLanguageResourceSetter::~CMultiLanguageResourceSetter
PUBLIC	??1CTimeDiffInfo@@QAE@XZ			; CTimeDiffInfo::~CTimeDiffInfo
PUBLIC	??1ILPCSTR000000@@QAE@XZ			; ILPCSTR000000::~ILPCSTR000000
PUBLIC	?QueryInterface@CObjectAddInImp@@O7AGJABU_GUID@@PAPAX@Z ; [thunk]:CObjectAddInImp::QueryInterface`adjustor{8}'
PUBLIC	?AddRef@CObjectAddInImp@@O7AGKXZ		; [thunk]:CObjectAddInImp::AddRef`adjustor{8}'
PUBLIC	?Release@CObjectAddInImp@@O7AGKXZ		; [thunk]:CObjectAddInImp::Release`adjustor{8}'
PUBLIC	??_ECObjectAddInImp@@W7AEPAXI@Z			; [thunk]:CObjectAddInImp::`vector deleting destructor'
PUBLIC	??_C@_00CNPNBAHC@@				; `string'
PUBLIC	??_7CMenu@@6B@					; CMenu::`vftable'
PUBLIC	??_R0?AVCObject@@@8				; CObject `RTTI Type Descriptor'
PUBLIC	??_R3CObject@@8					; CObject::`RTTI Class Hierarchy Descriptor'
PUBLIC	??_R2CObject@@8					; CObject::`RTTI Base Class Array'
PUBLIC	??_R1A@?0A@EA@CObject@@8			; CObject::`RTTI Base Class Descriptor at (0,-1,0,64)'
PUBLIC	??_R0?AUIUnknown@@@8				; IUnknown `RTTI Type Descriptor'
PUBLIC	??_R3IUnknown@@8				; IUnknown::`RTTI Class Hierarchy Descriptor'
PUBLIC	??_R2IUnknown@@8				; IUnknown::`RTTI Base Class Array'
PUBLIC	??_R1A@?0A@EA@IUnknown@@8			; IUnknown::`RTTI Base Class Descriptor at (0,-1,0,64)'
PUBLIC	??_R4CMenu@@6B@					; CMenu::`RTTI Complete Object Locator'
PUBLIC	??_R0?AVCMenu@@@8				; CMenu `RTTI Type Descriptor'
PUBLIC	??_R3CMenu@@8					; CMenu::`RTTI Class Hierarchy Descriptor'
PUBLIC	??_R2CMenu@@8					; CMenu::`RTTI Base Class Array'
PUBLIC	??_R1A@?0A@EA@CMenu@@8				; CMenu::`RTTI Base Class Descriptor at (0,-1,0,64)'
PUBLIC	?m_strAddInItemName@CObjectAddInImp@@2V?$CStringT@DV?$StrTraitMFC_DLL@DV?$ChTraitsCRT@D@ATL@@@@@ATL@@A ; CObjectAddInImp::m_strAddInItemName
PUBLIC	??_7CObjectAddInImp@@6BCIWUnknown@@@		; CObjectAddInImp::`vftable'
PUBLIC	??_7CObjectAddInImp@@6BIChartAddIn000000@@@	; CObjectAddInImp::`vftable'
PUBLIC	??_C@_0BA@ENJOCHIO@LoadResourceDLL@		; `string'
PUBLIC	??_C@_0BA@NMEKAACN@ChartObject?4dll@		; `string'
PUBLIC	??_C@_0BA@LCFHGHMC@CreateBlockTool@		; `string'
PUBLIC	??_C@_0CE@PDPKGGGH@ChartEnvSetupDlgAddIn?4dll?3ENV_S@ ; `string'
PUBLIC	??_C@_0BA@GMAPBMFI@?$CFs?$CIGMT?$CF?$CL03d?300?$CJ@ ; `string'
PUBLIC	??_C@_05BLKEAIDJ@?2Icss@			; `string'
PUBLIC	??_C@_0P@FGNAICMF@?2timesetup?4ini@		; `string'
PUBLIC	??_C@_01NEMOKFLO@?$DN@				; `string'
PUBLIC	??_C@_0P@POJHAMHN@?5?5?$LM?$LG?$LI?S?E?$LI?$MA?S?$MA?$PL?$LP?k@ ; `string'
PUBLIC	??_R0?AUIChartAddIn000000@@@8			; IChartAddIn000000 `RTTI Type Descriptor'
PUBLIC	??_R3IChartAddIn000000@@8			; IChartAddIn000000::`RTTI Class Hierarchy Descriptor'
PUBLIC	??_R2IChartAddIn000000@@8			; IChartAddIn000000::`RTTI Base Class Array'
PUBLIC	??_R1A@?0A@EA@IChartAddIn000000@@8		; IChartAddIn000000::`RTTI Base Class Descriptor at (0,-1,0,64)'
PUBLIC	??_R4CObjectAddInImp@@6BCIWUnknown@@@		; CObjectAddInImp::`RTTI Complete Object Locator'
PUBLIC	??_R0?AVCObjectAddInImp@@@8			; CObjectAddInImp `RTTI Type Descriptor'
PUBLIC	??_R3CObjectAddInImp@@8				; CObjectAddInImp::`RTTI Class Hierarchy Descriptor'
PUBLIC	??_R2CObjectAddInImp@@8				; CObjectAddInImp::`RTTI Base Class Array'
PUBLIC	??_R1A@?0A@EA@CObjectAddInImp@@8		; CObjectAddInImp::`RTTI Base Class Descriptor at (0,-1,0,64)'
PUBLIC	??_R1A@?0A@EA@CChartAddInBase000000@@8		; CChartAddInBase000000::`RTTI Base Class Descriptor at (0,-1,0,64)'
PUBLIC	??_R0?AVCChartAddInBase000000@@@8		; CChartAddInBase000000 `RTTI Type Descriptor'
PUBLIC	??_R3CChartAddInBase000000@@8			; CChartAddInBase000000::`RTTI Class Hierarchy Descriptor'
PUBLIC	??_R2CChartAddInBase000000@@8			; CChartAddInBase000000::`RTTI Base Class Array'
PUBLIC	??_R1A@?0A@EA@CIWUnknown@@8			; CIWUnknown::`RTTI Base Class Descriptor at (0,-1,0,64)'
PUBLIC	??_R0?AVCIWUnknown@@@8				; CIWUnknown `RTTI Type Descriptor'
PUBLIC	??_R3CIWUnknown@@8				; CIWUnknown::`RTTI Class Hierarchy Descriptor'
PUBLIC	??_R2CIWUnknown@@8				; CIWUnknown::`RTTI Base Class Array'
PUBLIC	??_R17?0A@EA@IChartAddIn000000@@8		; IChartAddIn000000::`RTTI Base Class Descriptor at (8,-1,0,64)'
PUBLIC	??_R17?0A@EA@IUnknown@@8			; IUnknown::`RTTI Base Class Descriptor at (8,-1,0,64)'
PUBLIC	??_R4CObjectAddInImp@@6BIChartAddIn000000@@@	; CObjectAddInImp::`RTTI Complete Object Locator'
EXTRN	??2@YAPAXI@Z:PROC				; operator new
EXTRN	??3@YAXPAX@Z:PROC				; operator delete
EXTRN	??3@YAXPAXI@Z:PROC				; operator delete
EXTRN	?__global_delete@@YAXPAXI@Z:PROC		; __global_delete
EXTRN	_atexit:PROC
EXTRN	___std_terminate:PROC
EXTRN	_strchr:PROC
EXTRN	_strstr:PROC
EXTRN	__imp__FreeLibrary@4:PROC
EXTRN	__imp__GetProcAddress@8:PROC
EXTRN	__imp__LoadLibraryExA@12:PROC
EXTRN	__imp__GetPrivateProfileSectionA@16:PROC
EXTRN	__imp__RegisterWindowMessageA@4:PROC
EXTRN	__imp__SendMessageA@16:PROC
EXTRN	__imp__LoadMenuW@8:PROC
EXTRN	__imp__GetMenuState@12:PROC
EXTRN	__imp__GetSubMenu@8:PROC
EXTRN	__imp__GetMenuItemID@8:PROC
EXTRN	__imp__GetMenuItemCount@4:PROC
EXTRN	__imp__AppendMenuA@16:PROC
EXTRN	__imp__ModifyMenuA@20:PROC
EXTRN	__imp__DeleteMenu@12:PROC
EXTRN	__imp__GetMenuItemInfoA@16:PROC
EXTRN	__imp__ClientToScreen@8:PROC
EXTRN	__imp__atoi:PROC
EXTRN	?AfxThrowInvalidArgException@@YGXXZ:PROC	; AfxThrowInvalidArgException
EXTRN	?GetRuntimeClass@CObject@@UBEPAUCRuntimeClass@@XZ:PROC ; CObject::GetRuntimeClass
EXTRN	__imp_?Concatenate@?$CSimpleStringT@D$00@ATL@@KAXAAV12@PBDH1H@Z:PROC
EXTRN	__imp_??0?$CStringT@DV?$StrTraitMFC_DLL@DV?$ChTraitsCRT@D@ATL@@@@@ATL@@QAE@XZ:PROC
EXTRN	__imp_??0?$CStringT@DV?$StrTraitMFC_DLL@DV?$ChTraitsCRT@D@ATL@@@@@ATL@@QAE@PAUIAtlStringMgr@1@@Z:PROC
EXTRN	__imp_??0?$CStringT@DV?$StrTraitMFC_DLL@DV?$ChTraitsCRT@D@ATL@@@@@ATL@@QAE@PBD@Z:PROC
EXTRN	__imp_??1?$CStringT@DV?$StrTraitMFC_DLL@DV?$ChTraitsCRT@D@ATL@@@@@ATL@@QAE@XZ:PROC
EXTRN	__imp_??4?$CStringT@DV?$StrTraitMFC_DLL@DV?$ChTraitsCRT@D@ATL@@@@@ATL@@QAEAAV01@ABV01@@Z:PROC
EXTRN	__imp_??4?$CStringT@DV?$StrTraitMFC_DLL@DV?$ChTraitsCRT@D@ATL@@@@@ATL@@QAEAAV01@PBD@Z:PROC
EXTRN	__imp_??Y?$CStringT@DV?$StrTraitMFC_DLL@DV?$ChTraitsCRT@D@ATL@@@@@ATL@@QAEAAV01@PBD@Z:PROC
EXTRN	__imp_?GetManager@?$CStringT@DV?$StrTraitMFC_DLL@DV?$ChTraitsCRT@D@ATL@@@@@ATL@@QBEPAUIAtlStringMgr@2@XZ:PROC
EXTRN	__imp_?Compare@?$CStringT@DV?$StrTraitMFC_DLL@DV?$ChTraitsCRT@D@ATL@@@@@ATL@@QBEHPBD@Z:PROC
EXTRN	__imp_?CollateNoCase@?$CStringT@DV?$StrTraitMFC_DLL@DV?$ChTraitsCRT@D@ATL@@@@@ATL@@QBEHPBD@Z:PROC
EXTRN	__imp_?Format@?$CStringT@DV?$StrTraitMFC_DLL@DV?$ChTraitsCRT@D@ATL@@@@@ATL@@QAAXPBDZZ:PROC
EXTRN	__imp_?LoadStringA@?$CStringT@DV?$StrTraitMFC_DLL@DV?$ChTraitsCRT@D@ATL@@@@@ATL@@QAEHI@Z:PROC
EXTRN	??0CPtrList@@QAE@H@Z:PROC			; CPtrList::CPtrList
EXTRN	?AddTail@CPtrList@@QAEPAU__POSITION@@PAX@Z:PROC	; CPtrList::AddTail
EXTRN	?RemoveAll@CPtrList@@QAEXXZ:PROC		; CPtrList::RemoveAll
EXTRN	?FindIndex@CPtrList@@QBEPAU__POSITION@@H@Z:PROC	; CPtrList::FindIndex
EXTRN	??1CPtrList@@UAE@XZ:PROC			; CPtrList::~CPtrList
EXTRN	?AfxGetModuleState@@YGPAVAFX_MODULE_STATE@@XZ:PROC ; AfxGetModuleState
EXTRN	?AfxGetStaticModuleState@@YGPAVAFX_MODULE_STATE@@XZ:PROC ; AfxGetStaticModuleState
EXTRN	?FromHandle@CDC@@SGPAV1@PAUHDC__@@@Z:PROC	; CDC::FromHandle
EXTRN	?GetRuntimeClass@CMenu@@UBEPAUCRuntimeClass@@XZ:PROC ; CMenu::GetRuntimeClass
EXTRN	?DestroyMenu@CMenu@@QAEHXZ:PROC			; CMenu::DestroyMenu
EXTRN	?FromHandle@CMenu@@SGPAV1@PAUHMENU__@@@Z:PROC	; CMenu::FromHandle
EXTRN	?Attach@CMenu@@QAEHPAUHMENU__@@@Z:PROC		; CMenu::Attach
EXTRN	?TrackPopupMenu@CMenu@@QAEHIHHPAVCWnd@@PBUtagRECT@@@Z:PROC ; CMenu::TrackPopupMenu
EXTRN	?GetMenuStringA@CMenu@@QBEHIAAV?$CStringT@DV?$StrTraitMFC_DLL@DV?$ChTraitsCRT@D@ATL@@@@@ATL@@I@Z:PROC ; CMenu::GetMenuStringA
EXTRN	?DrawItem@CMenu@@UAEXPAUtagDRAWITEMSTRUCT@@@Z:PROC ; CMenu::DrawItem
EXTRN	?MeasureItem@CMenu@@UAEXPAUtagMEASUREITEMSTRUCT@@@Z:PROC ; CMenu::MeasureItem
EXTRN	??_ECMenu@@UAEPAXI@Z:PROC			; CMenu::`vector deleting destructor'
EXTRN	?AfxFindResourceHandle@@YGPAUHINSTANCE__@@PBD0@Z:PROC ; AfxFindResourceHandle
EXTRN	?AddRef@CIWUnknown@@MAGKXZ:PROC			; CIWUnknown::AddRef
EXTRN	?Release@CIWUnknown@@MAGKXZ:PROC		; CIWUnknown::Release
EXTRN	??0CChartAddInBase000000@@IAE@PAUIChartOCX000000@@PAUIAddInDllBase@@@Z:PROC ; CChartAddInBase000000::CChartAddInBase000000
EXTRN	??1CChartAddInBase000000@@MAE@XZ:PROC		; CChartAddInBase000000::~CChartAddInBase000000
EXTRN	?HasFullManager@CChartAddInBase000000@@MAEHXZ:PROC ; CChartAddInBase000000::HasFullManager
EXTRN	?RegisterEventMap@CChartAddInBase000000@@UAEHH@Z:PROC ; CChartAddInBase000000::RegisterEventMap
EXTRN	?UnregisterEventMap@CChartAddInBase000000@@UAEHXZ:PROC ; CChartAddInBase000000::UnregisterEventMap
EXTRN	?OnOcxDestroyWindow@CChartAddInBase000000@@MAEXXZ:PROC ; CChartAddInBase000000::OnOcxDestroyWindow
EXTRN	??_ECObjectAddInImp@@UAEPAXI@Z:PROC		; CObjectAddInImp::`vector deleting destructor'
EXTRN	@__security_check_cookie@4:PROC
EXTRN	___CxxFrameHandler3:PROC
EXTRN	__chkstk:PROC
EXTRN	??_7type_info@@6B@:QWORD			; type_info::`vftable'
EXTRN	?g_iMetaTable@@3VIMetaTable@@A:BYTE		; g_iMetaTable
EXTRN	___security_cookie:DWORD
_BSS	SEGMENT
?m_strAddInItemName@CObjectAddInImp@@2V?$CStringT@DV?$StrTraitMFC_DLL@DV?$ChTraitsCRT@D@ATL@@@@@ATL@@A DD 01H DUP (?) ; CObjectAddInImp::m_strAddInItemName
?RMS_ANALYSIS_FUNC@@3IB DD 01H DUP (?)			; RMS_ANALYSIS_FUNC
_BSS	ENDS
CRT$XCU	SEGMENT
?RMS_ANALYSIS_FUNC$initializer$@@3P6AXXZA DD FLAT:??__ERMS_ANALYSIS_FUNC@@YAXXZ ; RMS_ANALYSIS_FUNC$initializer$
CRT$XCU	ENDS
;	COMDAT ??_R4CObjectAddInImp@@6BIChartAddIn000000@@@
rdata$r	SEGMENT
??_R4CObjectAddInImp@@6BIChartAddIn000000@@@ DD 00H	; CObjectAddInImp::`RTTI Complete Object Locator'
	DD	08H
	DD	00H
	DD	FLAT:??_R0?AVCObjectAddInImp@@@8
	DD	FLAT:??_R3CObjectAddInImp@@8
rdata$r	ENDS
;	COMDAT ??_R17?0A@EA@IUnknown@@8
rdata$r	SEGMENT
??_R17?0A@EA@IUnknown@@8 DD FLAT:??_R0?AUIUnknown@@@8	; IUnknown::`RTTI Base Class Descriptor at (8,-1,0,64)'
	DD	00H
	DD	08H
	DD	0ffffffffH
	DD	00H
	DD	040H
	DD	FLAT:??_R3IUnknown@@8
rdata$r	ENDS
;	COMDAT ??_R17?0A@EA@IChartAddIn000000@@8
rdata$r	SEGMENT
??_R17?0A@EA@IChartAddIn000000@@8 DD FLAT:??_R0?AUIChartAddIn000000@@@8 ; IChartAddIn000000::`RTTI Base Class Descriptor at (8,-1,0,64)'
	DD	01H
	DD	08H
	DD	0ffffffffH
	DD	00H
	DD	040H
	DD	FLAT:??_R3IChartAddIn000000@@8
rdata$r	ENDS
;	COMDAT ??_R2CIWUnknown@@8
rdata$r	SEGMENT
??_R2CIWUnknown@@8 DD FLAT:??_R1A@?0A@EA@CIWUnknown@@8	; CIWUnknown::`RTTI Base Class Array'
	DD	FLAT:??_R1A@?0A@EA@CObject@@8
rdata$r	ENDS
;	COMDAT ??_R3CIWUnknown@@8
rdata$r	SEGMENT
??_R3CIWUnknown@@8 DD 00H				; CIWUnknown::`RTTI Class Hierarchy Descriptor'
	DD	00H
	DD	02H
	DD	FLAT:??_R2CIWUnknown@@8
rdata$r	ENDS
;	COMDAT ??_R0?AVCIWUnknown@@@8
data$rs	SEGMENT
??_R0?AVCIWUnknown@@@8 DD FLAT:??_7type_info@@6B@	; CIWUnknown `RTTI Type Descriptor'
	DD	00H
	DB	'.?AVCIWUnknown@@', 00H
data$rs	ENDS
;	COMDAT ??_R1A@?0A@EA@CIWUnknown@@8
rdata$r	SEGMENT
??_R1A@?0A@EA@CIWUnknown@@8 DD FLAT:??_R0?AVCIWUnknown@@@8 ; CIWUnknown::`RTTI Base Class Descriptor at (0,-1,0,64)'
	DD	01H
	DD	00H
	DD	0ffffffffH
	DD	00H
	DD	040H
	DD	FLAT:??_R3CIWUnknown@@8
rdata$r	ENDS
;	COMDAT ??_R2CChartAddInBase000000@@8
rdata$r	SEGMENT
??_R2CChartAddInBase000000@@8 DD FLAT:??_R1A@?0A@EA@CChartAddInBase000000@@8 ; CChartAddInBase000000::`RTTI Base Class Array'
	DD	FLAT:??_R1A@?0A@EA@CIWUnknown@@8
	DD	FLAT:??_R1A@?0A@EA@CObject@@8
	DD	FLAT:??_R17?0A@EA@IChartAddIn000000@@8
	DD	FLAT:??_R17?0A@EA@IUnknown@@8
rdata$r	ENDS
;	COMDAT ??_R3CChartAddInBase000000@@8
rdata$r	SEGMENT
??_R3CChartAddInBase000000@@8 DD 00H			; CChartAddInBase000000::`RTTI Class Hierarchy Descriptor'
	DD	01H
	DD	05H
	DD	FLAT:??_R2CChartAddInBase000000@@8
rdata$r	ENDS
;	COMDAT ??_R0?AVCChartAddInBase000000@@@8
data$rs	SEGMENT
??_R0?AVCChartAddInBase000000@@@8 DD FLAT:??_7type_info@@6B@ ; CChartAddInBase000000 `RTTI Type Descriptor'
	DD	00H
	DB	'.?AVCChartAddInBase000000@@', 00H
data$rs	ENDS
;	COMDAT ??_R1A@?0A@EA@CChartAddInBase000000@@8
rdata$r	SEGMENT
??_R1A@?0A@EA@CChartAddInBase000000@@8 DD FLAT:??_R0?AVCChartAddInBase000000@@@8 ; CChartAddInBase000000::`RTTI Base Class Descriptor at (0,-1,0,64)'
	DD	04H
	DD	00H
	DD	0ffffffffH
	DD	00H
	DD	040H
	DD	FLAT:??_R3CChartAddInBase000000@@8
rdata$r	ENDS
;	COMDAT ??_R1A@?0A@EA@CObjectAddInImp@@8
rdata$r	SEGMENT
??_R1A@?0A@EA@CObjectAddInImp@@8 DD FLAT:??_R0?AVCObjectAddInImp@@@8 ; CObjectAddInImp::`RTTI Base Class Descriptor at (0,-1,0,64)'
	DD	05H
	DD	00H
	DD	0ffffffffH
	DD	00H
	DD	040H
	DD	FLAT:??_R3CObjectAddInImp@@8
rdata$r	ENDS
;	COMDAT ??_R2CObjectAddInImp@@8
rdata$r	SEGMENT
??_R2CObjectAddInImp@@8 DD FLAT:??_R1A@?0A@EA@CObjectAddInImp@@8 ; CObjectAddInImp::`RTTI Base Class Array'
	DD	FLAT:??_R1A@?0A@EA@CChartAddInBase000000@@8
	DD	FLAT:??_R1A@?0A@EA@CIWUnknown@@8
	DD	FLAT:??_R1A@?0A@EA@CObject@@8
	DD	FLAT:??_R17?0A@EA@IChartAddIn000000@@8
	DD	FLAT:??_R17?0A@EA@IUnknown@@8
rdata$r	ENDS
;	COMDAT ??_R3CObjectAddInImp@@8
rdata$r	SEGMENT
??_R3CObjectAddInImp@@8 DD 00H				; CObjectAddInImp::`RTTI Class Hierarchy Descriptor'
	DD	01H
	DD	06H
	DD	FLAT:??_R2CObjectAddInImp@@8
rdata$r	ENDS
;	COMDAT ??_R0?AVCObjectAddInImp@@@8
data$rs	SEGMENT
??_R0?AVCObjectAddInImp@@@8 DD FLAT:??_7type_info@@6B@	; CObjectAddInImp `RTTI Type Descriptor'
	DD	00H
	DB	'.?AVCObjectAddInImp@@', 00H
data$rs	ENDS
;	COMDAT ??_R4CObjectAddInImp@@6BCIWUnknown@@@
rdata$r	SEGMENT
??_R4CObjectAddInImp@@6BCIWUnknown@@@ DD 00H		; CObjectAddInImp::`RTTI Complete Object Locator'
	DD	00H
	DD	00H
	DD	FLAT:??_R0?AVCObjectAddInImp@@@8
	DD	FLAT:??_R3CObjectAddInImp@@8
rdata$r	ENDS
;	COMDAT ??_R1A@?0A@EA@IChartAddIn000000@@8
rdata$r	SEGMENT
??_R1A@?0A@EA@IChartAddIn000000@@8 DD FLAT:??_R0?AUIChartAddIn000000@@@8 ; IChartAddIn000000::`RTTI Base Class Descriptor at (0,-1,0,64)'
	DD	01H
	DD	00H
	DD	0ffffffffH
	DD	00H
	DD	040H
	DD	FLAT:??_R3IChartAddIn000000@@8
rdata$r	ENDS
;	COMDAT ??_R2IChartAddIn000000@@8
rdata$r	SEGMENT
??_R2IChartAddIn000000@@8 DD FLAT:??_R1A@?0A@EA@IChartAddIn000000@@8 ; IChartAddIn000000::`RTTI Base Class Array'
	DD	FLAT:??_R1A@?0A@EA@IUnknown@@8
rdata$r	ENDS
;	COMDAT ??_R3IChartAddIn000000@@8
rdata$r	SEGMENT
??_R3IChartAddIn000000@@8 DD 00H			; IChartAddIn000000::`RTTI Class Hierarchy Descriptor'
	DD	00H
	DD	02H
	DD	FLAT:??_R2IChartAddIn000000@@8
rdata$r	ENDS
;	COMDAT ??_R0?AUIChartAddIn000000@@@8
data$rs	SEGMENT
??_R0?AUIChartAddIn000000@@@8 DD FLAT:??_7type_info@@6B@ ; IChartAddIn000000 `RTTI Type Descriptor'
	DD	00H
	DB	'.?AUIChartAddIn000000@@', 00H
data$rs	ENDS
;	COMDAT ??_C@_0P@POJHAMHN@?5?5?$LM?$LG?$LI?S?E?$LI?$MA?S?$MA?$PL?$LP?k@
CONST	SEGMENT
??_C@_0P@POJHAMHN@?5?5?$LM?$LG?$LI?S?E?$LI?$MA?S?$MA?$PL?$LP?k@ DB '  ', 0bcH
	DB	0b6H, 0b8H, 0d3H, 0c5H, 0b8H, 0c0H, 0d3H, 0c0H, 0fbH, 0bfH, 0ebH
	DB	00H						; `string'
CONST	ENDS
;	COMDAT ??_C@_01NEMOKFLO@?$DN@
CONST	SEGMENT
??_C@_01NEMOKFLO@?$DN@ DB '=', 00H			; `string'
CONST	ENDS
;	COMDAT ??_C@_0P@FGNAICMF@?2timesetup?4ini@
CONST	SEGMENT
??_C@_0P@FGNAICMF@?2timesetup?4ini@ DB '\timesetup.ini', 00H ; `string'
CONST	ENDS
;	COMDAT ??_C@_05BLKEAIDJ@?2Icss@
CONST	SEGMENT
??_C@_05BLKEAIDJ@?2Icss@ DB '\Icss', 00H		; `string'
CONST	ENDS
;	COMDAT ??_C@_0BA@GMAPBMFI@?$CFs?$CIGMT?$CF?$CL03d?300?$CJ@
CONST	SEGMENT
??_C@_0BA@GMAPBMFI@?$CFs?$CIGMT?$CF?$CL03d?300?$CJ@ DB '%s(GMT%+03d:00)', 00H ; `string'
CONST	ENDS
;	COMDAT ??_C@_0CE@PDPKGGGH@ChartEnvSetupDlgAddIn?4dll?3ENV_S@
CONST	SEGMENT
??_C@_0CE@PDPKGGGH@ChartEnvSetupDlgAddIn?4dll?3ENV_S@ DB 'ChartEnvSetupDl'
	DB	'gAddIn.dll:ENV_SETUP', 00H			; `string'
CONST	ENDS
;	COMDAT ??_C@_0BA@LCFHGHMC@CreateBlockTool@
CONST	SEGMENT
??_C@_0BA@LCFHGHMC@CreateBlockTool@ DB 'CreateBlockTool', 00H ; `string'
CONST	ENDS
;	COMDAT ??_C@_0BA@NMEKAACN@ChartObject?4dll@
CONST	SEGMENT
??_C@_0BA@NMEKAACN@ChartObject?4dll@ DB 'ChartObject.dll', 00H ; `string'
CONST	ENDS
;	COMDAT ??_C@_0BA@ENJOCHIO@LoadResourceDLL@
CONST	SEGMENT
??_C@_0BA@ENJOCHIO@LoadResourceDLL@ DB 'LoadResourceDLL', 00H ; `string'
CONST	ENDS
;	COMDAT ??_7CObjectAddInImp@@6BIChartAddIn000000@@@
CONST	SEGMENT
??_7CObjectAddInImp@@6BIChartAddIn000000@@@ DD FLAT:??_R4CObjectAddInImp@@6BIChartAddIn000000@@@ ; CObjectAddInImp::`vftable'
	DD	FLAT:?QueryInterface@CObjectAddInImp@@O7AGJABU_GUID@@PAPAX@Z
	DD	FLAT:?AddRef@CObjectAddInImp@@O7AGKXZ
	DD	FLAT:?Release@CObjectAddInImp@@O7AGKXZ
	DD	FLAT:??_ECObjectAddInImp@@W7AEPAXI@Z
	DD	FLAT:?HasFullManager@CChartAddInBase000000@@MAEHXZ
	DD	FLAT:?GetAddInCustomInterface@CObjectAddInImp@@MAEPAUIUnknown@@XZ
	DD	FLAT:?InvokeAddIn@CChartAddInBase000000@@MAEHHJ@Z
	DD	FLAT:?InvokeAddInStr@CChartAddInBase000000@@MAEHPBD0@Z
	DD	FLAT:?OnOcxDestroyWindow@CChartAddInBase000000@@MAEXXZ
	DD	FLAT:?ChangeChartMode@CChartAddInBase000000@@MAEXW4CHART_MODE@CChartInfo@@@Z
	DD	FLAT:?RegisterEventMap@CChartAddInBase000000@@UAEHH@Z
	DD	FLAT:?UnregisterEventMap@CChartAddInBase000000@@UAEHXZ
	DD	FLAT:?OnGSharedDataChange@CChartAddInBase000000@@MAEXPBD0H@Z
	DD	FLAT:?OnLSharedDataChange@CChartAddInBase000000@@MAEXPBD0@Z
	DD	FLAT:?OnResetChart@CChartAddInBase000000@@MAEXXZ
	DD	FLAT:?OnDrawBeforeGraph@CChartAddInBase000000@@MAEXPAUHDC__@@@Z
	DD	FLAT:?OnDrawAfterGraph@CObjectAddInImp@@MAEXPAUHDC__@@@Z
	DD	FLAT:?OnPacketDataMultiItem@CObjectAddInImp@@MAEXPBD0H@Z
	DD	FLAT:?OnTimer@CChartAddInBase000000@@MAEXI@Z
	DD	FLAT:?OnCaptureChanged@CChartAddInBase000000@@MAEXPAUHWND__@@QAUHBITMAP__@@@Z
	DD	FLAT:?OnResetMainBlock@CObjectAddInImp@@MAEXXZ
	DD	FLAT:?OnUserIndiatorConditionLoaded@CChartAddInBase000000@@MAEXXZ
	DD	FLAT:?OnChartItemChanged@CObjectAddInImp@@MAEXXZ
	DD	FLAT:?OnGraphDataChanged@CObjectAddInImp@@MAEXXZ
	DD	FLAT:?OnBlockRemoved@CObjectAddInImp@@MAEXHH@Z
	DD	FLAT:?OnGraphAdded@CObjectAddInImp@@MAEXPBD0@Z
	DD	FLAT:?OnManualRealData@CChartAddInBase000000@@MAEXPBDNH@Z
	DD	FLAT:?OnContextMenu@CChartAddInBase000000@@MAEXPAUHWND__@@AAUtagPOINT@@@Z
	DD	FLAT:?OnGraphDeleted@CObjectAddInImp@@MAEXPBD0@Z
	DD	FLAT:?OnPacketTruncated@CChartAddInBase000000@@MAEXH@Z
	DD	FLAT:?OnBlockChanged@CObjectAddInImp@@MAEXW4BLOCKBEHAVIOR@CBlockBaseData@@HHHH@Z
	DD	FLAT:?OnToolCommand@CChartAddInBase000000@@MAEXHH@Z
	DD	FLAT:?OnRealData@CChartAddInBase000000@@MAEXPBDN0@Z
	DD	FLAT:?OnIndexedRealData@CChartAddInBase000000@@MAEXPBDHN@Z
	DD	FLAT:?OnRealPacketEnd@CChartAddInBase000000@@MAEXPBD@Z
	DD	FLAT:?OnLoadEnvironment@CChartAddInBase000000@@MAEXPAUIPropertyMap@@@Z
	DD	FLAT:?OnSaveEnvironment@CChartAddInBase000000@@MAEXPAUIPropertyMap@@@Z
	DD	FLAT:?DrawCursor@CChartAddInBase000000@@MAE?AUtagRECT@@PAUHDC__@@@Z
	DD	FLAT:?OnRecalculationComplete@CChartAddInBase000000@@MAEXXZ
	DD	FLAT:?OnPreRealData@CChartAddInBase000000@@MAEHPBDAAN0H@Z
	DD	FLAT:?OnPreIndexedRealData@CChartAddInBase000000@@MAEHPBDHAANH@Z
	DD	FLAT:?OnPreRealPacketEnd@CChartAddInBase000000@@MAEHPBDH@Z
	DD	FLAT:?OnPreNMTRClock@CChartAddInBase000000@@MAEHAA_J@Z
	DD	FLAT:?OnCmdMsg@CObjectAddInImp@@MAEHIHPAUICmdUI000000@@@Z
	DD	FLAT:?OnAddInMsg@CChartAddInBase000000@@MAEHPBDJ@Z
	DD	FLAT:?OnAddInToolCommand@CObjectAddInImp@@MAEHAAJW4EAICommandType@@JJ@Z
	DD	FLAT:?OnAddInToolCommand@CChartAddInBase000000@@MAEHAAJW4EAICommandType@@J@Z
	DD	FLAT:?OnAddInToolCommand@CChartAddInBase000000@@MAEHAAJW4EAICommandType@@PBDPAVCObject@@@Z
	DD	FLAT:?OnAddInToolCommand@CObjectAddInImp@@MAEHAAJW4EAICommandType@@PBD@Z
	DD	FLAT:?OnAddInToolCommand@CChartAddInBase000000@@MAEHAAJW4EAICommandType@@PAUIGraphInfo000000@@@Z
	DD	FLAT:?OnAddInToolCommand@CChartAddInBase000000@@MAEHAAJW4EAICommandType@@@Z
	DD	FLAT:?OnAddInToolCommand@CObjectAddInImp@@MAEHW4EAICommandType@@JJJJJJJJJ@Z
	DD	FLAT:?OnAddInToolCommand@CObjectAddInImp@@MAEHW4EAICommandType@@JJ@Z
	DD	FLAT:?OnAddInToolCommand@CChartAddInBase000000@@MAEHW4EAICommandType@@JPBD11@Z
	DD	FLAT:?OnAddInToolCommand@CChartAddInBase000000@@MAEHW4EAICommandType@@JPBD@Z
	DD	FLAT:?OnAddInToolCommand@CChartAddInBase000000@@MAEHW4EAICommandType@@J@Z
	DD	FLAT:?OnAddInToolCommand@CObjectAddInImp@@MAEHW4EAICommandType@@PBUIAddInDllBase@@@Z
	DD	FLAT:?OnAddInToolCommand@CChartAddInBase000000@@MAEHW4EAICommandType@@PBDJ@Z
	DD	FLAT:?OnAddInToolCommand@CChartAddInBase000000@@MAEHW4EAICommandType@@PBD1@Z
	DD	FLAT:?OnAddInToolCommand@CChartAddInBase000000@@MAEHW4EAICommandType@@PBD@Z
	DD	FLAT:?OnAddInToolCommand@CChartAddInBase000000@@MAEHW4EAICommandType@@PAUHDC__@@IAAUtagPOINT@@K@Z
	DD	FLAT:?OnAddInToolCommand@CChartAddInBase000000@@MAEHW4EAICommandType@@@Z
	DD	FLAT:?OnKeyDown@CObjectAddInImp@@UAEHIII@Z
	DD	FLAT:?OnKeyUp@CChartAddInBase000000@@MAEHIII@Z
	DD	FLAT:?OnMouseWheel@CChartAddInBase000000@@MAEHIFUtagPOINT@@K@Z
	DD	FLAT:?OnMouseMove@CObjectAddInImp@@UAEHPAUHDC__@@IAAUtagPOINT@@KQAUHBITMAP__@@@Z
	DD	FLAT:?OnLButtonDown@CObjectAddInImp@@UAEHPAUHDC__@@IAAUtagPOINT@@K@Z
	DD	FLAT:?OnLButtonUp@CObjectAddInImp@@UAEHPAUHDC__@@IAAUtagPOINT@@K@Z
	DD	FLAT:?OnLButtonDblClk@CObjectAddInImp@@UAEHPAUHDC__@@IAAUtagPOINT@@K@Z
	DD	FLAT:?OnRButtonDown@CChartAddInBase000000@@MAEHPAUHDC__@@IAAUtagPOINT@@K@Z
	DD	FLAT:?OnRButtonUp@CObjectAddInImp@@UAEHPAUHDC__@@IAAUtagPOINT@@K@Z
	DD	FLAT:?OnRButtonDblClk@CChartAddInBase000000@@MAEHPAUHDC__@@IAAUtagPOINT@@K@Z
CONST	ENDS
;	COMDAT ??_7CObjectAddInImp@@6BCIWUnknown@@@
CONST	SEGMENT
??_7CObjectAddInImp@@6BCIWUnknown@@@ DD FLAT:??_R4CObjectAddInImp@@6BCIWUnknown@@@ ; CObjectAddInImp::`vftable'
	DD	FLAT:?GetRuntimeClass@CObject@@UBEPAUCRuntimeClass@@XZ
	DD	FLAT:??_ECObjectAddInImp@@UAEPAXI@Z
	DD	FLAT:?Serialize@CObject@@UAEXAAVCArchive@@@Z
	DD	FLAT:?AssertValid@CObject@@UBEXXZ
	DD	FLAT:?Dump@CObject@@UBEXAAVCDumpContext@@@Z
	DD	FLAT:?AddRef@CObjectAddInImp@@MAGKXZ
	DD	FLAT:?Release@CObjectAddInImp@@MAGKXZ
	DD	FLAT:?QueryInterface@CObjectAddInImp@@MAGJABU_GUID@@PAPAX@Z
	DD	FLAT:?PostConstruct@CIWUnknown@@MAEXXZ
	DD	FLAT:?PreDestructX@CIWUnknown@@MAEXXZ
	DD	FLAT:?PreDestruct@CIWUnknown@@MAEXXZ
	DD	FLAT:?GetRegisteredEventMap@CObjectAddInImp@@MBEPBW4EAddInEventType@IChartAddIn000000@@XZ
	DD	FLAT:?AfeterOnOcxDestroyWindow@CChartAddInBase000000@@MAEXXZ
CONST	ENDS
;	COMDAT ??_R1A@?0A@EA@CMenu@@8
rdata$r	SEGMENT
??_R1A@?0A@EA@CMenu@@8 DD FLAT:??_R0?AVCMenu@@@8	; CMenu::`RTTI Base Class Descriptor at (0,-1,0,64)'
	DD	01H
	DD	00H
	DD	0ffffffffH
	DD	00H
	DD	040H
	DD	FLAT:??_R3CMenu@@8
rdata$r	ENDS
;	COMDAT ??_R2CMenu@@8
rdata$r	SEGMENT
??_R2CMenu@@8 DD FLAT:??_R1A@?0A@EA@CMenu@@8		; CMenu::`RTTI Base Class Array'
	DD	FLAT:??_R1A@?0A@EA@CObject@@8
rdata$r	ENDS
;	COMDAT ??_R3CMenu@@8
rdata$r	SEGMENT
??_R3CMenu@@8 DD 00H					; CMenu::`RTTI Class Hierarchy Descriptor'
	DD	00H
	DD	02H
	DD	FLAT:??_R2CMenu@@8
rdata$r	ENDS
;	COMDAT ??_R0?AVCMenu@@@8
data$rs	SEGMENT
??_R0?AVCMenu@@@8 DD FLAT:??_7type_info@@6B@		; CMenu `RTTI Type Descriptor'
	DD	00H
	DB	'.?AVCMenu@@', 00H
data$rs	ENDS
;	COMDAT ??_R4CMenu@@6B@
rdata$r	SEGMENT
??_R4CMenu@@6B@ DD 00H					; CMenu::`RTTI Complete Object Locator'
	DD	00H
	DD	00H
	DD	FLAT:??_R0?AVCMenu@@@8
	DD	FLAT:??_R3CMenu@@8
rdata$r	ENDS
;	COMDAT ??_R1A@?0A@EA@IUnknown@@8
rdata$r	SEGMENT
??_R1A@?0A@EA@IUnknown@@8 DD FLAT:??_R0?AUIUnknown@@@8	; IUnknown::`RTTI Base Class Descriptor at (0,-1,0,64)'
	DD	00H
	DD	00H
	DD	0ffffffffH
	DD	00H
	DD	040H
	DD	FLAT:??_R3IUnknown@@8
rdata$r	ENDS
;	COMDAT ??_R2IUnknown@@8
rdata$r	SEGMENT
??_R2IUnknown@@8 DD FLAT:??_R1A@?0A@EA@IUnknown@@8	; IUnknown::`RTTI Base Class Array'
rdata$r	ENDS
;	COMDAT ??_R3IUnknown@@8
rdata$r	SEGMENT
??_R3IUnknown@@8 DD 00H					; IUnknown::`RTTI Class Hierarchy Descriptor'
	DD	00H
	DD	01H
	DD	FLAT:??_R2IUnknown@@8
rdata$r	ENDS
;	COMDAT ??_R0?AUIUnknown@@@8
data$rs	SEGMENT
??_R0?AUIUnknown@@@8 DD FLAT:??_7type_info@@6B@		; IUnknown `RTTI Type Descriptor'
	DD	00H
	DB	'.?AUIUnknown@@', 00H
data$rs	ENDS
;	COMDAT ??_R1A@?0A@EA@CObject@@8
rdata$r	SEGMENT
??_R1A@?0A@EA@CObject@@8 DD FLAT:??_R0?AVCObject@@@8	; CObject::`RTTI Base Class Descriptor at (0,-1,0,64)'
	DD	00H
	DD	00H
	DD	0ffffffffH
	DD	00H
	DD	040H
	DD	FLAT:??_R3CObject@@8
rdata$r	ENDS
;	COMDAT ??_R2CObject@@8
rdata$r	SEGMENT
??_R2CObject@@8 DD FLAT:??_R1A@?0A@EA@CObject@@8	; CObject::`RTTI Base Class Array'
rdata$r	ENDS
;	COMDAT ??_R3CObject@@8
rdata$r	SEGMENT
??_R3CObject@@8 DD 00H					; CObject::`RTTI Class Hierarchy Descriptor'
	DD	00H
	DD	01H
	DD	FLAT:??_R2CObject@@8
rdata$r	ENDS
;	COMDAT ??_R0?AVCObject@@@8
data$rs	SEGMENT
??_R0?AVCObject@@@8 DD FLAT:??_7type_info@@6B@		; CObject `RTTI Type Descriptor'
	DD	00H
	DB	'.?AVCObject@@', 00H
data$rs	ENDS
;	COMDAT ??_7CMenu@@6B@
CONST	SEGMENT
??_7CMenu@@6B@ DD FLAT:??_R4CMenu@@6B@			; CMenu::`vftable'
	DD	FLAT:?GetRuntimeClass@CMenu@@UBEPAUCRuntimeClass@@XZ
	DD	FLAT:??_ECMenu@@UAEPAXI@Z
	DD	FLAT:?Serialize@CObject@@UAEXAAVCArchive@@@Z
	DD	FLAT:?AssertValid@CObject@@UBEXXZ
	DD	FLAT:?Dump@CObject@@UBEXAAVCDumpContext@@@Z
	DD	FLAT:?DrawItem@CMenu@@UAEXPAUtagDRAWITEMSTRUCT@@@Z
	DD	FLAT:?MeasureItem@CMenu@@UAEXPAUtagMEASUREITEMSTRUCT@@@Z
CONST	ENDS
;	COMDAT ??_C@_00CNPNBAHC@@
CONST	SEGMENT
??_C@_00CNPNBAHC@@ DB 00H				; `string'
CONST	ENDS
;	COMDAT xdata$x
xdata$x	SEGMENT
__ehfuncinfo$??1ILPCSTR000000@@QAE@XZ DD 019930522H
	DD	00H
	DD	00H
	DD	2 DUP(00H)
	DD	2 DUP(00H)
	DD	00H
	DD	05H
xdata$x	ENDS
;	COMDAT xdata$x
xdata$x	SEGMENT
__unwindtable$??0CTimeDiffInfo@@QAE@V?$CStringT@DV?$StrTraitMFC_DLL@DV?$ChTraitsCRT@D@ATL@@@@@ATL@@H@Z DD 0ffffffffH
	DD	FLAT:__unwindfunclet$??0CTimeDiffInfo@@QAE@V?$CStringT@DV?$StrTraitMFC_DLL@DV?$ChTraitsCRT@D@ATL@@@@@ATL@@H@Z$0
	DD	00H
	DD	FLAT:__unwindfunclet$??0CTimeDiffInfo@@QAE@V?$CStringT@DV?$StrTraitMFC_DLL@DV?$ChTraitsCRT@D@ATL@@@@@ATL@@H@Z$1
__ehfuncinfo$??0CTimeDiffInfo@@QAE@V?$CStringT@DV?$StrTraitMFC_DLL@DV?$ChTraitsCRT@D@ATL@@@@@ATL@@H@Z DD 019930522H
	DD	02H
	DD	FLAT:__unwindtable$??0CTimeDiffInfo@@QAE@V?$CStringT@DV?$StrTraitMFC_DLL@DV?$ChTraitsCRT@D@ATL@@@@@ATL@@H@Z
	DD	2 DUP(00H)
	DD	2 DUP(00H)
	DD	00H
	DD	01H
xdata$x	ENDS
;	COMDAT xdata$x
xdata$x	SEGMENT
__ehfuncinfo$??1CMultiLanguageResourceSetter@@QAE@XZ DD 019930522H
	DD	00H
	DD	00H
	DD	2 DUP(00H)
	DD	2 DUP(00H)
	DD	00H
	DD	05H
xdata$x	ENDS
;	COMDAT xdata$x
xdata$x	SEGMENT
__unwindtable$??_GCObjectAddInImp@@UAEPAXI@Z DD 0ffffffffH
	DD	FLAT:___std_terminate
__ehfuncinfo$??_GCObjectAddInImp@@UAEPAXI@Z DD 019930522H
	DD	01H
	DD	FLAT:__unwindtable$??_GCObjectAddInImp@@UAEPAXI@Z
	DD	2 DUP(00H)
	DD	2 DUP(00H)
	DD	00H
	DD	05H
xdata$x	ENDS
;	COMDAT xdata$x
xdata$x	SEGMENT
__ehfuncinfo$?OnRButtonUp@CObjectAddInImp@@UAEHPAUHDC__@@IAAUtagPOINT@@K@Z DD 019930522H
	DD	06H
	DD	FLAT:__unwindtable$?OnRButtonUp@CObjectAddInImp@@UAEHPAUHDC__@@IAAUtagPOINT@@K@Z
	DD	2 DUP(00H)
	DD	2 DUP(00H)
	DD	00H
	DD	01H
__unwindtable$?OnRButtonUp@CObjectAddInImp@@UAEHPAUHDC__@@IAAUtagPOINT@@K@Z DD 0ffffffffH
	DD	FLAT:__unwindfunclet$?OnRButtonUp@CObjectAddInImp@@UAEHPAUHDC__@@IAAUtagPOINT@@K@Z$0
	DD	00H
	DD	FLAT:__unwindfunclet$?OnRButtonUp@CObjectAddInImp@@UAEHPAUHDC__@@IAAUtagPOINT@@K@Z$1
	DD	00H
	DD	00H
	DD	0ffffffffH
	DD	00H
	DD	00H
	DD	FLAT:___std_terminate
	DD	0ffffffffH
	DD	FLAT:___std_terminate
xdata$x	ENDS
;	COMDAT xdata$x
xdata$x	SEGMENT
__unwindtable$?OnLButtonUp@CObjectAddInImp@@UAEHPAUHDC__@@IAAUtagPOINT@@K@Z DD 0ffffffffH
	DD	FLAT:__unwindfunclet$?OnLButtonUp@CObjectAddInImp@@UAEHPAUHDC__@@IAAUtagPOINT@@K@Z$0
__ehfuncinfo$?OnLButtonUp@CObjectAddInImp@@UAEHPAUHDC__@@IAAUtagPOINT@@K@Z DD 019930522H
	DD	01H
	DD	FLAT:__unwindtable$?OnLButtonUp@CObjectAddInImp@@UAEHPAUHDC__@@IAAUtagPOINT@@K@Z
	DD	2 DUP(00H)
	DD	2 DUP(00H)
	DD	00H
	DD	01H
xdata$x	ENDS
;	COMDAT xdata$x
xdata$x	SEGMENT
__unwindtable$?GetSubMenuIndex@CObjectAddInImp@@IAEHPAVCMenu@@PBD@Z DD 0ffffffffH
	DD	FLAT:__unwindfunclet$?GetSubMenuIndex@CObjectAddInImp@@IAEHPAVCMenu@@PBD@Z$0
__ehfuncinfo$?GetSubMenuIndex@CObjectAddInImp@@IAEHPAVCMenu@@PBD@Z DD 019930522H
	DD	01H
	DD	FLAT:__unwindtable$?GetSubMenuIndex@CObjectAddInImp@@IAEHPAVCMenu@@PBD@Z
	DD	2 DUP(00H)
	DD	2 DUP(00H)
	DD	00H
	DD	01H
xdata$x	ENDS
;	COMDAT xdata$x
xdata$x	SEGMENT
__ehfuncinfo$?LoadTimeDiffConf@CObjectAddInImp@@IAEXXZ DD 019930522H
	DD	08H
	DD	FLAT:__unwindtable$?LoadTimeDiffConf@CObjectAddInImp@@IAEXXZ
	DD	2 DUP(00H)
	DD	2 DUP(00H)
	DD	00H
	DD	01H
__unwindtable$?LoadTimeDiffConf@CObjectAddInImp@@IAEXXZ DD 0ffffffffH
	DD	FLAT:__unwindfunclet$?LoadTimeDiffConf@CObjectAddInImp@@IAEXXZ$0
	DD	00H
	DD	FLAT:__unwindfunclet$?LoadTimeDiffConf@CObjectAddInImp@@IAEXXZ$1
	DD	01H
	DD	FLAT:__unwindfunclet$?LoadTimeDiffConf@CObjectAddInImp@@IAEXXZ$2
	DD	02H
	DD	FLAT:__unwindfunclet$?LoadTimeDiffConf@CObjectAddInImp@@IAEXXZ$3
	DD	03H
	DD	FLAT:__unwindfunclet$?LoadTimeDiffConf@CObjectAddInImp@@IAEXXZ$7
	DD	03H
	DD	FLAT:__unwindfunclet$?LoadTimeDiffConf@CObjectAddInImp@@IAEXXZ$8
	DD	01H
	DD	FLAT:___std_terminate
	DD	0ffffffffH
	DD	FLAT:___std_terminate
xdata$x	ENDS
;	COMDAT xdata$x
xdata$x	SEGMENT
__ehfuncinfo$?MakeConfigMenu@CObjectAddInImp@@IAEHPAVCMenu@@@Z DD 019930522H
	DD	0cH
	DD	FLAT:__unwindtable$?MakeConfigMenu@CObjectAddInImp@@IAEHPAVCMenu@@@Z
	DD	2 DUP(00H)
	DD	2 DUP(00H)
	DD	00H
	DD	01H
__unwindtable$?MakeConfigMenu@CObjectAddInImp@@IAEHPAVCMenu@@@Z DD 0ffffffffH
	DD	FLAT:__unwindfunclet$?MakeConfigMenu@CObjectAddInImp@@IAEHPAVCMenu@@@Z$0
	DD	00H
	DD	FLAT:__unwindfunclet$?MakeConfigMenu@CObjectAddInImp@@IAEHPAVCMenu@@@Z$1
	DD	0ffffffffH
	DD	00H
	DD	0ffffffffH
	DD	00H
	DD	0ffffffffH
	DD	00H
	DD	01H
	DD	FLAT:__unwindfunclet$?MakeConfigMenu@CObjectAddInImp@@IAEHPAVCMenu@@@Z$9
	DD	05H
	DD	FLAT:__unwindfunclet$?MakeConfigMenu@CObjectAddInImp@@IAEHPAVCMenu@@@Z$10
	DD	01H
	DD	FLAT:__unwindfunclet$?MakeConfigMenu@CObjectAddInImp@@IAEHPAVCMenu@@@Z$3
	DD	07H
	DD	FLAT:__unwindfunclet$?MakeConfigMenu@CObjectAddInImp@@IAEHPAVCMenu@@@Z$4
	DD	08H
	DD	FLAT:__unwindfunclet$?MakeConfigMenu@CObjectAddInImp@@IAEHPAVCMenu@@@Z$5
	DD	0ffffffffH
	DD	00H
	DD	0ffffffffH
	DD	FLAT:___std_terminate
xdata$x	ENDS
;	COMDAT xdata$x
xdata$x	SEGMENT
__ehfuncinfo$??1CObjectAddInImp@@UAE@XZ DD 019930522H
	DD	00H
	DD	00H
	DD	2 DUP(00H)
	DD	2 DUP(00H)
	DD	00H
	DD	05H
xdata$x	ENDS
;	COMDAT xdata$x
xdata$x	SEGMENT
__ehfuncinfo$??0CObjectAddInImp@@QAE@PAUIChartOCX000000@@PAUIAddInDllBase@@@Z DD 019930522H
	DD	06H
	DD	FLAT:__unwindtable$??0CObjectAddInImp@@QAE@PAUIChartOCX000000@@PAUIAddInDllBase@@@Z
	DD	2 DUP(00H)
	DD	2 DUP(00H)
	DD	00H
	DD	01H
__unwindtable$??0CObjectAddInImp@@QAE@PAUIChartOCX000000@@PAUIAddInDllBase@@@Z DD 0ffffffffH
	DD	FLAT:__unwindfunclet$??0CObjectAddInImp@@QAE@PAUIChartOCX000000@@PAUIAddInDllBase@@@Z$0
	DD	00H
	DD	FLAT:__unwindfunclet$??0CObjectAddInImp@@QAE@PAUIChartOCX000000@@PAUIAddInDllBase@@@Z$1
	DD	01H
	DD	FLAT:__unwindfunclet$??0CObjectAddInImp@@QAE@PAUIChartOCX000000@@PAUIAddInDllBase@@@Z$2
	DD	02H
	DD	FLAT:__unwindfunclet$??0CObjectAddInImp@@QAE@PAUIChartOCX000000@@PAUIAddInDllBase@@@Z$3
	DD	03H
	DD	FLAT:__unwindfunclet$??0CObjectAddInImp@@QAE@PAUIChartOCX000000@@PAUIAddInDllBase@@@Z$5
	DD	01H
	DD	FLAT:___std_terminate
xdata$x	ENDS
;	COMDAT xdata$x
xdata$x	SEGMENT
__unwindtable$??_GCMenu@@UAEPAXI@Z DD 0ffffffffH
	DD	FLAT:___std_terminate
__ehfuncinfo$??_GCMenu@@UAEPAXI@Z DD 019930522H
	DD	01H
	DD	FLAT:__unwindtable$??_GCMenu@@UAEPAXI@Z
	DD	2 DUP(00H)
	DD	2 DUP(00H)
	DD	00H
	DD	05H
xdata$x	ENDS
;	COMDAT xdata$x
xdata$x	SEGMENT
__ehfuncinfo$??1CMenu@@UAE@XZ DD 019930522H
	DD	00H
	DD	00H
	DD	2 DUP(00H)
	DD	2 DUP(00H)
	DD	00H
	DD	05H
xdata$x	ENDS
;	COMDAT xdata$x
xdata$x	SEGMENT
__unwindtable$??HATL@@YA?AV?$CStringT@DV?$StrTraitMFC_DLL@DV?$ChTraitsCRT@D@ATL@@@@@0@ABV10@PBD@Z DD 0ffffffffH
	DD	FLAT:__unwindfunclet$??HATL@@YA?AV?$CStringT@DV?$StrTraitMFC_DLL@DV?$ChTraitsCRT@D@ATL@@@@@0@ABV10@PBD@Z$0
__ehfuncinfo$??HATL@@YA?AV?$CStringT@DV?$StrTraitMFC_DLL@DV?$ChTraitsCRT@D@ATL@@@@@0@ABV10@PBD@Z DD 019930522H
	DD	01H
	DD	FLAT:__unwindtable$??HATL@@YA?AV?$CStringT@DV?$StrTraitMFC_DLL@DV?$ChTraitsCRT@D@ATL@@@@@0@ABV10@PBD@Z
	DD	2 DUP(00H)
	DD	2 DUP(00H)
	DD	00H
	DD	01H
xdata$x	ENDS
CRT$XCU	SEGMENT
??m_strAddInItemName$initializer$@CObjectAddInImp@@2P6AXXZA@@3P6AXXZA DD FLAT:??__E?m_strAddInItemName@CObjectAddInImp@@2V?$CStringT@DV?$StrTraitMFC_DLL@DV?$ChTraitsCRT@D@ATL@@@@@ATL@@A@@YAXXZ ; ??m_strAddInItemName$initializer$@CObjectAddInImp@@2P6AXXZA@@3P6AXXZA
CRT$XCU	ENDS
; Function compile flags: /Odsp
;	COMDAT ??_ECObjectAddInImp@@W7AEPAXI@Z
_TEXT	SEGMENT
??_ECObjectAddInImp@@W7AEPAXI@Z PROC			; [thunk]:CObjectAddInImp::`vector deleting destructor', COMDAT
  00000	83 e9 08	 sub	 ecx, 8
  00003	e9 00 00 00 00	 jmp	 ??_ECObjectAddInImp@@UAEPAXI@Z
??_ECObjectAddInImp@@W7AEPAXI@Z ENDP			; [thunk]:CObjectAddInImp::`vector deleting destructor'
_TEXT	ENDS
; Function compile flags: /Odsp
;	COMDAT ?Release@CObjectAddInImp@@O7AGKXZ
_TEXT	SEGMENT
?Release@CObjectAddInImp@@O7AGKXZ PROC			; [thunk]:CObjectAddInImp::Release`adjustor{8}', COMDAT
  00000	83 6c 24 04 08	 sub	 DWORD PTR [esp+4], 8
  00005	e9 00 00 00 00	 jmp	 ?Release@CObjectAddInImp@@MAGKXZ ; CObjectAddInImp::Release
?Release@CObjectAddInImp@@O7AGKXZ ENDP			; [thunk]:CObjectAddInImp::Release`adjustor{8}'
_TEXT	ENDS
; Function compile flags: /Odsp
;	COMDAT ?AddRef@CObjectAddInImp@@O7AGKXZ
_TEXT	SEGMENT
?AddRef@CObjectAddInImp@@O7AGKXZ PROC			; [thunk]:CObjectAddInImp::AddRef`adjustor{8}', COMDAT
  00000	83 6c 24 04 08	 sub	 DWORD PTR [esp+4], 8
  00005	e9 00 00 00 00	 jmp	 ?AddRef@CObjectAddInImp@@MAGKXZ ; CObjectAddInImp::AddRef
?AddRef@CObjectAddInImp@@O7AGKXZ ENDP			; [thunk]:CObjectAddInImp::AddRef`adjustor{8}'
_TEXT	ENDS
; Function compile flags: /Odsp
;	COMDAT ?QueryInterface@CObjectAddInImp@@O7AGJABU_GUID@@PAPAX@Z
_TEXT	SEGMENT
?QueryInterface@CObjectAddInImp@@O7AGJABU_GUID@@PAPAX@Z PROC ; [thunk]:CObjectAddInImp::QueryInterface`adjustor{8}', COMDAT
  00000	83 6c 24 04 08	 sub	 DWORD PTR [esp+4], 8
  00005	e9 00 00 00 00	 jmp	 ?QueryInterface@CObjectAddInImp@@MAGJABU_GUID@@PAPAX@Z ; CObjectAddInImp::QueryInterface
?QueryInterface@CObjectAddInImp@@O7AGJABU_GUID@@PAPAX@Z ENDP ; [thunk]:CObjectAddInImp::QueryInterface`adjustor{8}'
_TEXT	ENDS
; Function compile flags: /Ogtp
;	COMDAT ??__F?m_strAddInItemName@CObjectAddInImp@@2V?$CStringT@DV?$StrTraitMFC_DLL@DV?$ChTraitsCRT@D@ATL@@@@@ATL@@A@@YAXXZ
text$yd	SEGMENT
??__F?m_strAddInItemName@CObjectAddInImp@@2V?$CStringT@DV?$StrTraitMFC_DLL@DV?$ChTraitsCRT@D@ATL@@@@@ATL@@A@@YAXXZ PROC ; `dynamic atexit destructor for 'CObjectAddInImp::m_strAddInItemName'', COMDAT
  00000	b9 00 00 00 00	 mov	 ecx, OFFSET ?m_strAddInItemName@CObjectAddInImp@@2V?$CStringT@DV?$StrTraitMFC_DLL@DV?$ChTraitsCRT@D@ATL@@@@@ATL@@A ; CObjectAddInImp::m_strAddInItemName
  00005	ff 25 00 00 00
	00		 jmp	 DWORD PTR __imp_??1?$CStringT@DV?$StrTraitMFC_DLL@DV?$ChTraitsCRT@D@ATL@@@@@ATL@@QAE@XZ
??__F?m_strAddInItemName@CObjectAddInImp@@2V?$CStringT@DV?$StrTraitMFC_DLL@DV?$ChTraitsCRT@D@ATL@@@@@ATL@@A@@YAXXZ ENDP ; `dynamic atexit destructor for 'CObjectAddInImp::m_strAddInItemName''
text$yd	ENDS
; Function compile flags: /Ogtp
; File D:\git\src\IBK\IBK_DRFN\ProjSrc\SrcChartEx\ChartOCX\AddInManager\ChartCommonAddIn\ObjectAddInImp.cpp
;	COMDAT ??__E?m_strAddInItemName@CObjectAddInImp@@2V?$CStringT@DV?$StrTraitMFC_DLL@DV?$ChTraitsCRT@D@ATL@@@@@ATL@@A@@YAXXZ
text$di	SEGMENT
??__E?m_strAddInItemName@CObjectAddInImp@@2V?$CStringT@DV?$StrTraitMFC_DLL@DV?$ChTraitsCRT@D@ATL@@@@@ATL@@A@@YAXXZ PROC ; `dynamic initializer for 'CObjectAddInImp::m_strAddInItemName'', COMDAT

; 76   : CString CObjectAddInImp::m_strAddInItemName = "OBJECT_TOOL";

  00000	68 00 00 00 00	 push	 OFFSET ??_C@_0M@PBNKDJAC@OBJECT_TOOL@
  00005	b9 00 00 00 00	 mov	 ecx, OFFSET ?m_strAddInItemName@CObjectAddInImp@@2V?$CStringT@DV?$StrTraitMFC_DLL@DV?$ChTraitsCRT@D@ATL@@@@@ATL@@A ; CObjectAddInImp::m_strAddInItemName
  0000a	ff 15 00 00 00
	00		 call	 DWORD PTR __imp_??0?$CStringT@DV?$StrTraitMFC_DLL@DV?$ChTraitsCRT@D@ATL@@@@@ATL@@QAE@PBD@Z
  00010	68 00 00 00 00	 push	 OFFSET ??__F?m_strAddInItemName@CObjectAddInImp@@2V?$CStringT@DV?$StrTraitMFC_DLL@DV?$ChTraitsCRT@D@ATL@@@@@ATL@@A@@YAXXZ ; `dynamic atexit destructor for 'CObjectAddInImp::m_strAddInItemName''
  00015	e8 00 00 00 00	 call	 _atexit
  0001a	59		 pop	 ecx
  0001b	c3		 ret	 0
??__E?m_strAddInItemName@CObjectAddInImp@@2V?$CStringT@DV?$StrTraitMFC_DLL@DV?$ChTraitsCRT@D@ATL@@@@@ATL@@A@@YAXXZ ENDP ; `dynamic initializer for 'CObjectAddInImp::m_strAddInItemName''
text$di	ENDS
; Function compile flags: /Ogtp
; File D:\git\src\IBK\IBK_DRFN\ProjSrc\SrcChartEx\ChartOCX\AddInManager\Include_AddIn\I000000\_IString.h
;	COMDAT ??1ILPCSTR000000@@QAE@XZ
_TEXT	SEGMENT
__$EHRec$ = -12						; size = 12
??1ILPCSTR000000@@QAE@XZ PROC				; ILPCSTR000000::~ILPCSTR000000, COMDAT
; _this$ = ecx

; 44   : 	{

  00000	55		 push	 ebp
  00001	8b ec		 mov	 ebp, esp
  00003	6a ff		 push	 -1
  00005	68 00 00 00 00	 push	 __ehhandler$??1ILPCSTR000000@@QAE@XZ
  0000a	64 a1 00 00 00
	00		 mov	 eax, DWORD PTR fs:0
  00010	50		 push	 eax
  00011	56		 push	 esi
  00012	a1 00 00 00 00	 mov	 eax, DWORD PTR ___security_cookie
  00017	33 c5		 xor	 eax, ebp
  00019	50		 push	 eax
  0001a	8d 45 f4	 lea	 eax, DWORD PTR __$EHRec$[ebp]
  0001d	64 a3 00 00 00
	00		 mov	 DWORD PTR fs:0, eax
  00023	8b f1		 mov	 esi, ecx

; 45   : 		if( m_pIStrData)

  00025	8b 4e 04	 mov	 ecx, DWORD PTR [esi+4]
  00028	85 c9		 test	 ecx, ecx
  0002a	74 13		 je	 SHORT $LN2@ILPCSTR000

; 46   : 		{
; 47   : 			m_pIStrData->Release();

  0002c	8b 01		 mov	 eax, DWORD PTR [ecx]
  0002e	51		 push	 ecx
  0002f	ff 50 08	 call	 DWORD PTR [eax+8]

; 48   : 			m_pIStrData = NULL;

  00032	c7 46 04 00 00
	00 00		 mov	 DWORD PTR [esi+4], 0

; 49   : 			m_szData = NULL;

  00039	c7 06 00 00 00
	00		 mov	 DWORD PTR [esi], 0
$LN2@ILPCSTR000:

; 50   : 		}
; 51   : 	}

  0003f	8b 4d f4	 mov	 ecx, DWORD PTR __$EHRec$[ebp]
  00042	64 89 0d 00 00
	00 00		 mov	 DWORD PTR fs:0, ecx
  00049	59		 pop	 ecx
  0004a	5e		 pop	 esi
  0004b	8b e5		 mov	 esp, ebp
  0004d	5d		 pop	 ebp
  0004e	c3		 ret	 0
  0004f	cc		 int	 3
  00050	cc		 int	 3
  00051	cc		 int	 3
  00052	cc		 int	 3
  00053	cc		 int	 3
_TEXT	ENDS
;	COMDAT text$x
text$x	SEGMENT
__ehhandler$??1ILPCSTR000000@@QAE@XZ:
  00000	90		 npad	 1
  00001	90		 npad	 1
  00002	8b 54 24 08	 mov	 edx, DWORD PTR [esp+8]
  00006	8d 42 0c	 lea	 eax, DWORD PTR [edx+12]
  00009	8b 4a f8	 mov	 ecx, DWORD PTR [edx-8]
  0000c	33 c8		 xor	 ecx, eax
  0000e	e8 00 00 00 00	 call	 @__security_check_cookie@4
  00013	b8 00 00 00 00	 mov	 eax, OFFSET __ehfuncinfo$??1ILPCSTR000000@@QAE@XZ
  00018	e9 00 00 00 00	 jmp	 ___CxxFrameHandler3
text$x	ENDS
??1ILPCSTR000000@@QAE@XZ ENDP				; ILPCSTR000000::~ILPCSTR000000
; Function compile flags: /Ogtp
; File D:\git\src\IBK\IBK_DRFN\ProjSrc\SrcChartEx\ChartOCX\Include_Chart\MessageDefine.h
;	COMDAT ??__ERMS_ANALYSIS_FUNC@@YAXXZ
text$di	SEGMENT
??__ERMS_ANALYSIS_FUNC@@YAXXZ PROC			; `dynamic initializer for 'RMS_ANALYSIS_FUNC'', COMDAT

; 5    : const UINT RMS_ANALYSIS_FUNC = ::RegisterWindowMessage(_T("RMS_ANALYSIS_FUNC"));

  00000	68 00 00 00 00	 push	 OFFSET ??_C@_0BC@MMPGLPDH@RMS_ANALYSIS_FUNC@
  00005	ff 15 00 00 00
	00		 call	 DWORD PTR __imp__RegisterWindowMessageA@4
  0000b	a3 00 00 00 00	 mov	 DWORD PTR ?RMS_ANALYSIS_FUNC@@3IB, eax
  00010	c3		 ret	 0
??__ERMS_ANALYSIS_FUNC@@YAXXZ ENDP			; `dynamic initializer for 'RMS_ANALYSIS_FUNC''
text$di	ENDS
; Function compile flags: /Ogtp
;	COMDAT ??1CTimeDiffInfo@@QAE@XZ
_TEXT	SEGMENT
??1CTimeDiffInfo@@QAE@XZ PROC				; CTimeDiffInfo::~CTimeDiffInfo, COMDAT
; _this$ = ecx
  00000	83 c1 04	 add	 ecx, 4
  00003	ff 25 00 00 00
	00		 jmp	 DWORD PTR __imp_??1?$CStringT@DV?$StrTraitMFC_DLL@DV?$ChTraitsCRT@D@ATL@@@@@ATL@@QAE@XZ
??1CTimeDiffInfo@@QAE@XZ ENDP				; CTimeDiffInfo::~CTimeDiffInfo
_TEXT	ENDS
; Function compile flags: /Ogtp
; File D:\git\src\IBK\IBK_DRFN\ProjSrc\SrcChartEx\ChartOCX\Include_Chart\DLL_Load\IMetaTable.h
; File C:\Program Files (x86)\Microsoft Visual Studio\2019\Community\VC\Tools\MSVC\14.29.30133\atlmfc\include\afxwin1.inl
; File D:\git\src\IBK\IBK_DRFN\ProjSrc\SrcChartEx\ChartOCX\Include_Chart\DLL_Load\IMetaTable.h
;	COMDAT ??1CMultiLanguageResourceSetter@@QAE@XZ
_TEXT	SEGMENT
__$EHRec$ = -12						; size = 12
??1CMultiLanguageResourceSetter@@QAE@XZ PROC		; CMultiLanguageResourceSetter::~CMultiLanguageResourceSetter, COMDAT
; _this$ = ecx

; 1036 : 	{

  00000	55		 push	 ebp
  00001	8b ec		 mov	 ebp, esp
  00003	6a ff		 push	 -1
  00005	68 00 00 00 00	 push	 __ehhandler$??1CMultiLanguageResourceSetter@@QAE@XZ
  0000a	64 a1 00 00 00
	00		 mov	 eax, DWORD PTR fs:0
  00010	50		 push	 eax
  00011	56		 push	 esi
  00012	a1 00 00 00 00	 mov	 eax, DWORD PTR ___security_cookie
  00017	33 c5		 xor	 eax, ebp
  00019	50		 push	 eax
  0001a	8d 45 f4	 lea	 eax, DWORD PTR __$EHRec$[ebp]
  0001d	64 a3 00 00 00
	00		 mov	 DWORD PTR fs:0, eax

; 1037 : 		AfxSetResourceHandle( m_hInstance);

  00023	8b 31		 mov	 esi, DWORD PTR [ecx]
; File C:\Program Files (x86)\Microsoft Visual Studio\2019\Community\VC\Tools\MSVC\14.29.30133\atlmfc\include\afxwin1.inl

; 27   : 	{ ASSERT(hInstResource != NULL); afxCurrentResourceHandle = hInstResource; }

  00025	e8 00 00 00 00	 call	 ?AfxGetModuleState@@YGPAVAFX_MODULE_STATE@@XZ ; AfxGetModuleState
  0002a	89 70 0c	 mov	 DWORD PTR [eax+12], esi
; File D:\git\src\IBK\IBK_DRFN\ProjSrc\SrcChartEx\ChartOCX\Include_Chart\DLL_Load\IMetaTable.h

; 1038 : 	}

  0002d	8b 4d f4	 mov	 ecx, DWORD PTR __$EHRec$[ebp]
  00030	64 89 0d 00 00
	00 00		 mov	 DWORD PTR fs:0, ecx
  00037	59		 pop	 ecx
  00038	5e		 pop	 esi
  00039	8b e5		 mov	 esp, ebp
  0003b	5d		 pop	 ebp
  0003c	c3		 ret	 0
  0003d	cc		 int	 3
  0003e	cc		 int	 3
  0003f	cc		 int	 3
  00040	cc		 int	 3
  00041	cc		 int	 3
_TEXT	ENDS
;	COMDAT text$x
text$x	SEGMENT
__ehhandler$??1CMultiLanguageResourceSetter@@QAE@XZ:
  00000	90		 npad	 1
  00001	90		 npad	 1
  00002	8b 54 24 08	 mov	 edx, DWORD PTR [esp+8]
  00006	8d 42 0c	 lea	 eax, DWORD PTR [edx+12]
  00009	8b 4a f8	 mov	 ecx, DWORD PTR [edx-8]
  0000c	33 c8		 xor	 ecx, eax
  0000e	e8 00 00 00 00	 call	 @__security_check_cookie@4
  00013	b8 00 00 00 00	 mov	 eax, OFFSET __ehfuncinfo$??1CMultiLanguageResourceSetter@@QAE@XZ
  00018	e9 00 00 00 00	 jmp	 ___CxxFrameHandler3
text$x	ENDS
??1CMultiLanguageResourceSetter@@QAE@XZ ENDP		; CMultiLanguageResourceSetter::~CMultiLanguageResourceSetter
; Function compile flags: /Ogtp
; File D:\git\src\IBK\IBK_DRFN\ProjSrc\SrcChartEx\ChartOCX\Include_Chart\DLL_Load\IMetaTable.h
;	COMDAT ?LoadResourceDLL@IMetaTable@@QAEPAUHINSTANCE__@@PAUHWND__@@PAU2@@Z
_TEXT	SEGMENT
_p1$ = 8						; size = 4
_p2$ = 12						; size = 4
?LoadResourceDLL@IMetaTable@@QAEPAUHINSTANCE__@@PAUHWND__@@PAU2@@Z PROC ; IMetaTable::LoadResourceDLL, COMDAT
; _this$ = ecx

; 936  : 	DECLARE_FUNCTION2(	LoadResourceDLL,				HMODULE, AfxGetStaticModuleState()->m_hCurrentInstanceHandle, HWND, HMODULE);

  00000	55		 push	 ebp
  00001	8b ec		 mov	 ebp, esp
  00003	56		 push	 esi
  00004	8b f1		 mov	 esi, ecx
  00006	8b 46 04	 mov	 eax, DWORD PTR [esi+4]
  00009	85 c0		 test	 eax, eax
  0000b	74 4d		 je	 SHORT $LN4@LoadResour
  0000d	57		 push	 edi
  0000e	bf 80 0d 00 00	 mov	 edi, 3456		; 00000d80H
  00013	66 3b be 94 00
	00 00		 cmp	 di, WORD PTR [esi+148]
  0001a	74 23		 je	 SHORT $LN3@LoadResour
  0001c	68 00 00 00 00	 push	 OFFSET ??_C@_0BA@ENJOCHIO@LoadResourceDLL@
  00021	50		 push	 eax
  00022	c7 86 90 00 00
	00 00 00 00 00	 mov	 DWORD PTR [esi+144], 0
  0002c	ff 15 00 00 00
	00		 call	 DWORD PTR __imp__GetProcAddress@8
  00032	89 86 90 00 00
	00		 mov	 DWORD PTR [esi+144], eax
  00038	66 89 be 94 00
	00 00		 mov	 WORD PTR [esi+148], di
$LN3@LoadResour:
  0003f	8b 86 90 00 00
	00		 mov	 eax, DWORD PTR [esi+144]
  00045	5f		 pop	 edi
  00046	85 c0		 test	 eax, eax
  00048	74 10		 je	 SHORT $LN4@LoadResour
  0004a	ff 75 0c	 push	 DWORD PTR _p2$[ebp]
  0004d	ff 75 08	 push	 DWORD PTR _p1$[ebp]
  00050	ff d0		 call	 eax
  00052	83 c4 08	 add	 esp, 8
  00055	5e		 pop	 esi
  00056	5d		 pop	 ebp
  00057	c2 08 00	 ret	 8
$LN4@LoadResour:
  0005a	e8 00 00 00 00	 call	 ?AfxGetStaticModuleState@@YGPAVAFX_MODULE_STATE@@XZ ; AfxGetStaticModuleState
  0005f	5e		 pop	 esi
  00060	8b 40 08	 mov	 eax, DWORD PTR [eax+8]
  00063	5d		 pop	 ebp
  00064	c2 08 00	 ret	 8
?LoadResourceDLL@IMetaTable@@QAEPAUHINSTANCE__@@PAUHWND__@@PAU2@@Z ENDP ; IMetaTable::LoadResourceDLL
_TEXT	ENDS
; Function compile flags: /Ogtp
; File D:\git\src\IBK\IBK_DRFN\ProjSrc\SrcChartEx\ChartOCX\AddInManager\ChartCommonAddIn\ObjectAddInImp.cpp
; File C:\Program Files (x86)\Microsoft Visual Studio\2019\Community\VC\Tools\MSVC\14.29.30133\atlmfc\include\afxcoll.inl
; File D:\git\src\IBK\IBK_DRFN\ProjSrc\SrcChartEx\ChartOCX\AddInManager\ChartCommonAddIn\ObjectAddInImp.cpp
; File C:\Program Files (x86)\Microsoft Visual Studio\2019\Community\VC\Tools\MSVC\14.29.30133\atlmfc\include\afx.inl
;	COMDAT ??_GCObjectAddInImp@@UAEPAXI@Z
_TEXT	SEGMENT
__$EHRec$ = -12						; size = 12
___flags$ = 8						; size = 4
??_GCObjectAddInImp@@UAEPAXI@Z PROC			; CObjectAddInImp::`scalar deleting destructor', COMDAT
; _this$ = ecx
  00000	55		 push	 ebp
  00001	8b ec		 mov	 ebp, esp
  00003	6a ff		 push	 -1
  00005	68 00 00 00 00	 push	 __ehhandler$??_GCObjectAddInImp@@UAEPAXI@Z
  0000a	64 a1 00 00 00
	00		 mov	 eax, DWORD PTR fs:0
  00010	50		 push	 eax
  00011	53		 push	 ebx
  00012	56		 push	 esi
  00013	57		 push	 edi
  00014	a1 00 00 00 00	 mov	 eax, DWORD PTR ___security_cookie
  00019	33 c5		 xor	 eax, ebp
  0001b	50		 push	 eax
  0001c	8d 45 f4	 lea	 eax, DWORD PTR __$EHRec$[ebp]
  0001f	64 a3 00 00 00
	00		 mov	 DWORD PTR fs:0, eax
  00025	8b f9		 mov	 edi, ecx
; File D:\git\src\IBK\IBK_DRFN\ProjSrc\SrcChartEx\ChartOCX\AddInManager\ChartCommonAddIn\ObjectAddInImp.cpp

; 53   : 	if( m_pBlockTool)

  00027	8b 4f 44	 mov	 ecx, DWORD PTR [edi+68]
  0002a	c7 45 fc 00 00
	00 00		 mov	 DWORD PTR __$EHRec$[ebp+8], 0
  00031	c7 07 00 00 00
	00		 mov	 DWORD PTR [edi], OFFSET ??_7CObjectAddInImp@@6BCIWUnknown@@@
  00037	c7 47 08 00 00
	00 00		 mov	 DWORD PTR [edi+8], OFFSET ??_7CObjectAddInImp@@6BIChartAddIn000000@@@
  0003e	85 c9		 test	 ecx, ecx
  00040	74 0d		 je	 SHORT $LN10@scalar

; 54   : 	{
; 55   : 		delete m_pBlockTool;

  00042	8b 01		 mov	 eax, DWORD PTR [ecx]
  00044	6a 01		 push	 1
  00046	ff 10		 call	 DWORD PTR [eax]

; 56   : 		m_pBlockTool = NULL;

  00048	c7 47 44 00 00
	00 00		 mov	 DWORD PTR [edi+68], 0
$LN10@scalar:

; 57   : 	}
; 58   : 	if( m_hBlockTool)

  0004f	8b 47 40	 mov	 eax, DWORD PTR [edi+64]
  00052	85 c0		 test	 eax, eax
  00054	74 0e		 je	 SHORT $LN11@scalar

; 59   : 	{
; 60   : 		FreeLibrary( m_hBlockTool);

  00056	50		 push	 eax
  00057	ff 15 00 00 00
	00		 call	 DWORD PTR __imp__FreeLibrary@4

; 61   : 		m_hBlockTool = NULL;

  0005d	c7 47 40 00 00
	00 00		 mov	 DWORD PTR [edi+64], 0
$LN11@scalar:

; 62   : 	}
; 63   : 
; 64   : 	// 20081007 JS.Kim	 
; 65   : 	CTimeDiffInfo *pTimeInfo;
; 66   : 	POSITION pos = m_lstTimeDiffInfo.GetHeadPosition();

  00064	8b 77 4c	 mov	 esi, DWORD PTR [edi+76]

; 67   : 	while( pos )

  00067	85 f6		 test	 esi, esi
  00069	74 26		 je	 SHORT $LN9@scalar
  0006b	0f 1f 44 00 00	 npad	 5
$LL8@scalar:

; 68   : 	{
; 69   : 		pTimeInfo = (CTimeDiffInfo *)m_lstTimeDiffInfo.GetNext(pos);

  00070	8b 5e 08	 mov	 ebx, DWORD PTR [esi+8]
; File C:\Program Files (x86)\Microsoft Visual Studio\2019\Community\VC\Tools\MSVC\14.29.30133\atlmfc\include\afxcoll.inl

; 359  : 		rPosition = (POSITION) pNode->pNext;

  00073	8b 36		 mov	 esi, DWORD PTR [esi]
; File D:\git\src\IBK\IBK_DRFN\ProjSrc\SrcChartEx\ChartOCX\AddInManager\ChartCommonAddIn\ObjectAddInImp.cpp

; 70   : 		if( pTimeInfo )		delete pTimeInfo;

  00075	85 db		 test	 ebx, ebx
  00077	74 14		 je	 SHORT $LN24@scalar
  00079	8d 4b 04	 lea	 ecx, DWORD PTR [ebx+4]
  0007c	ff 15 00 00 00
	00		 call	 DWORD PTR __imp_??1?$CStringT@DV?$StrTraitMFC_DLL@DV?$ChTraitsCRT@D@ATL@@@@@ATL@@QAE@XZ
  00082	6a 0c		 push	 12			; 0000000cH
  00084	53		 push	 ebx
  00085	e8 00 00 00 00	 call	 ??3@YAXPAXI@Z		; operator delete
  0008a	83 c4 08	 add	 esp, 8
$LN24@scalar:

; 67   : 	while( pos )

  0008d	85 f6		 test	 esi, esi
  0008f	75 df		 jne	 SHORT $LL8@scalar
$LN9@scalar:

; 71   : 	}
; 72   : 	m_lstTimeDiffInfo.RemoveAll();

  00091	8d 4f 48	 lea	 ecx, DWORD PTR [edi+72]
  00094	e8 00 00 00 00	 call	 ?RemoveAll@CPtrList@@QAEXXZ ; CPtrList::RemoveAll

; 73   : }

  00099	8d 4f 48	 lea	 ecx, DWORD PTR [edi+72]
  0009c	e8 00 00 00 00	 call	 ??1CPtrList@@UAE@XZ	; CPtrList::~CPtrList
  000a1	8b cf		 mov	 ecx, edi
  000a3	e8 00 00 00 00	 call	 ??1CChartAddInBase000000@@MAE@XZ ; CChartAddInBase000000::~CChartAddInBase000000
  000a8	8b 45 08	 mov	 eax, DWORD PTR ___flags$[ebp]
  000ab	a8 01		 test	 al, 1
  000ad	74 1a		 je	 SHORT $LN36@scalar
  000af	a8 04		 test	 al, 4
  000b1	75 0b		 jne	 SHORT $LN3@scalar
; File C:\Program Files (x86)\Microsoft Visual Studio\2019\Community\VC\Tools\MSVC\14.29.30133\atlmfc\include\afx.inl

; 112  : 	{ ::operator delete(p); }

  000b3	57		 push	 edi
  000b4	e8 00 00 00 00	 call	 ??3@YAXPAX@Z		; operator delete
  000b9	83 c4 04	 add	 esp, 4
  000bc	eb 0b		 jmp	 SHORT $LN36@scalar
$LN3@scalar:
  000be	6a 6c		 push	 108			; 0000006cH
  000c0	57		 push	 edi
  000c1	e8 00 00 00 00	 call	 ?__global_delete@@YAXPAXI@Z ; __global_delete
  000c6	83 c4 08	 add	 esp, 8
$LN36@scalar:
  000c9	8b c7		 mov	 eax, edi
  000cb	8b 4d f4	 mov	 ecx, DWORD PTR __$EHRec$[ebp]
  000ce	64 89 0d 00 00
	00 00		 mov	 DWORD PTR fs:0, ecx
  000d5	59		 pop	 ecx
  000d6	5f		 pop	 edi
  000d7	5e		 pop	 esi
  000d8	5b		 pop	 ebx
  000d9	8b e5		 mov	 esp, ebp
  000db	5d		 pop	 ebp
  000dc	c2 04 00	 ret	 4
  000df	cc		 int	 3
  000e0	cc		 int	 3
  000e1	cc		 int	 3
  000e2	cc		 int	 3
  000e3	cc		 int	 3
_TEXT	ENDS
;	COMDAT text$x
text$x	SEGMENT
__ehhandler$??_GCObjectAddInImp@@UAEPAXI@Z:
  00000	90		 npad	 1
  00001	90		 npad	 1
  00002	8b 54 24 08	 mov	 edx, DWORD PTR [esp+8]
  00006	8d 42 0c	 lea	 eax, DWORD PTR [edx+12]
  00009	8b 4a f0	 mov	 ecx, DWORD PTR [edx-16]
  0000c	33 c8		 xor	 ecx, eax
  0000e	e8 00 00 00 00	 call	 @__security_check_cookie@4
  00013	b8 00 00 00 00	 mov	 eax, OFFSET __ehfuncinfo$??_GCObjectAddInImp@@UAEPAXI@Z
  00018	e9 00 00 00 00	 jmp	 ___CxxFrameHandler3
text$x	ENDS
??_GCObjectAddInImp@@UAEPAXI@Z ENDP			; CObjectAddInImp::`scalar deleting destructor'
; Function compile flags: /Ogtp
; File D:\git\src\IBK\IBK_DRFN\ProjSrc\SrcChartEx\ChartOCX\AddInManager\ChartCommonAddIn\ObjectAddInImp.cpp
; File C:\Program Files (x86)\Microsoft Visual Studio\2019\Community\VC\Tools\MSVC\14.29.30133\atlmfc\include\atltypes.h
; File D:\git\src\IBK\IBK_DRFN\ProjSrc\SrcChartEx\ChartOCX\AddInManager\ChartCommonAddIn\ObjectAddInImp.cpp
; File C:\Program Files (x86)\Microsoft Visual Studio\2019\Community\VC\Tools\MSVC\14.29.30133\atlmfc\include\atltypes.h
; File D:\git\src\IBK\IBK_DRFN\ProjSrc\SrcChartEx\ChartOCX\AddInManager\ChartCommonAddIn\ObjectAddInImp.cpp
; File C:\Program Files (x86)\Microsoft Visual Studio\2019\Community\VC\Tools\MSVC\14.29.30133\atlmfc\include\afxwin1.inl
; File D:\git\src\IBK\IBK_DRFN\ProjSrc\SrcChartEx\ChartOCX\AddInManager\ChartCommonAddIn\ObjectAddInImp.cpp
; File C:\Program Files (x86)\Microsoft Visual Studio\2019\Community\VC\Tools\MSVC\14.29.30133\atlmfc\include\afxwin1.inl
; File D:\git\src\IBK\IBK_DRFN\ProjSrc\SrcChartEx\ChartOCX\Include_Chart\DLL_Load\IMetaTable.h
; File C:\Program Files (x86)\Microsoft Visual Studio\2019\Community\VC\Tools\MSVC\14.29.30133\atlmfc\include\afxwin1.inl
; File D:\git\src\IBK\IBK_DRFN\ProjSrc\SrcChartEx\ChartOCX\AddInManager\ChartCommonAddIn\ObjectAddInImp.cpp
; File C:\Program Files (x86)\Microsoft Visual Studio\2019\Community\VC\Tools\MSVC\14.29.30133\atlmfc\include\afxwin1.inl
; File D:\git\src\IBK\IBK_DRFN\ProjSrc\SrcChartEx\ChartOCX\AddInManager\ChartCommonAddIn\ObjectAddInImp.cpp
; File C:\Program Files (x86)\Microsoft Visual Studio\2019\Community\VC\Tools\MSVC\14.29.30133\atlmfc\include\afxwin1.inl
; File D:\git\src\IBK\IBK_DRFN\ProjSrc\SrcChartEx\ChartOCX\AddInManager\ChartCommonAddIn\ObjectAddInImp.cpp
; File C:\Program Files (x86)\Microsoft Visual Studio\2019\Community\VC\Tools\MSVC\14.29.30133\atlmfc\include\afxwin1.inl
; File D:\git\src\IBK\IBK_DRFN\ProjSrc\SrcChartEx\ChartOCX\AddInManager\ChartCommonAddIn\ObjectAddInImp.cpp
; File C:\Program Files (x86)\Microsoft Visual Studio\2019\Community\VC\Tools\MSVC\14.29.30133\atlmfc\include\afxwin1.inl
; File D:\git\src\IBK\IBK_DRFN\ProjSrc\SrcChartEx\ChartOCX\AddInManager\ChartCommonAddIn\ObjectAddInImp.cpp
; File C:\Program Files (x86)\Microsoft Visual Studio\2019\Community\VC\Tools\MSVC\14.29.30133\atlmfc\include\afxwin1.inl
; File D:\git\src\IBK\IBK_DRFN\ProjSrc\SrcChartEx\ChartOCX\AddInManager\ChartCommonAddIn\ObjectAddInImp.cpp
; File C:\Program Files (x86)\Microsoft Visual Studio\2019\Community\VC\Tools\MSVC\14.29.30133\atlmfc\include\afxwin1.inl
; File D:\git\src\IBK\IBK_DRFN\ProjSrc\SrcChartEx\ChartOCX\AddInManager\ChartCommonAddIn\ObjectAddInImp.cpp
; File C:\Program Files (x86)\Microsoft Visual Studio\2019\Community\VC\Tools\MSVC\14.29.30133\atlmfc\include\afxwin1.inl
; File D:\git\src\IBK\IBK_DRFN\ProjSrc\SrcChartEx\ChartOCX\AddInManager\ChartCommonAddIn\ObjectAddInImp.cpp
; File C:\Program Files (x86)\Microsoft Visual Studio\2019\Community\VC\Tools\MSVC\14.29.30133\atlmfc\include\afxwin1.inl
; File D:\git\src\IBK\IBK_DRFN\ProjSrc\SrcChartEx\ChartOCX\AddInManager\ChartCommonAddIn\ObjectAddInImp.cpp
; File C:\Program Files (x86)\Microsoft Visual Studio\2019\Community\VC\Tools\MSVC\14.29.30133\atlmfc\include\afxwin1.inl
; File D:\git\src\IBK\IBK_DRFN\ProjSrc\SrcChartEx\ChartOCX\AddInManager\ChartCommonAddIn\ObjectAddInImp.cpp
; File C:\Program Files (x86)\Microsoft Visual Studio\2019\Community\VC\Tools\MSVC\14.29.30133\atlmfc\include\afxwin1.inl
; File D:\git\src\IBK\IBK_DRFN\ProjSrc\SrcChartEx\ChartOCX\AddInManager\ChartCommonAddIn\ObjectAddInImp.cpp
; File C:\Program Files (x86)\Microsoft Visual Studio\2019\Community\VC\Tools\MSVC\14.29.30133\atlmfc\include\afxwin1.inl
; File D:\git\src\IBK\IBK_DRFN\ProjSrc\SrcChartEx\ChartOCX\AddInManager\ChartCommonAddIn\ObjectAddInImp.cpp
; File C:\Program Files (x86)\Microsoft Visual Studio\2019\Community\VC\Tools\MSVC\14.29.30133\atlmfc\include\afxwin2.inl
; File D:\git\src\IBK\IBK_DRFN\ProjSrc\SrcChartEx\ChartOCX\AddInManager\ChartCommonAddIn\ObjectAddInImp.cpp
; File C:\Program Files (x86)\Microsoft Visual Studio\2019\Community\VC\Tools\MSVC\14.29.30133\atlmfc\include\afxwin2.inl
; File D:\git\src\IBK\IBK_DRFN\ProjSrc\SrcChartEx\ChartOCX\AddInManager\ChartCommonAddIn\ObjectAddInImp.cpp
; File D:\git\src\IBK\IBK_DRFN\ProjSrc\SrcChartEx\ChartOCX\Include_Chart\DLL_Load\IMetaTable.h
; File C:\Program Files (x86)\Microsoft Visual Studio\2019\Community\VC\Tools\MSVC\14.29.30133\atlmfc\include\afxwin1.inl
; File D:\git\src\IBK\IBK_DRFN\ProjSrc\SrcChartEx\ChartOCX\AddInManager\ChartCommonAddIn\ObjectAddInImp.cpp
;	COMDAT ?OnRButtonUp@CObjectAddInImp@@UAEHPAUHDC__@@IAAUtagPOINT@@K@Z
_TEXT	SEGMENT
_mii$2 = -84						; size = 48
_Context$ = -36						; size = 8
$T3 = -28						; size = 8
___mlrs__$ = -24					; size = 4
___mlrs__$1$ = -20					; size = 4
_this$1$ = -16						; size = 4
__$EHRec$ = -12						; size = 12
_nMenuCount$1$ = 8					; size = 4
_nMenuID$1$ = 8						; size = 4
_nMenuType$1$ = 8					; size = 4
_p_hDC$ = 8						; size = 4
_nFlags$ = 12						; size = 4
_point$ = 16						; size = 4
_p_dwMouseActionID$ = 20				; size = 4
?OnRButtonUp@CObjectAddInImp@@UAEHPAUHDC__@@IAAUtagPOINT@@K@Z PROC ; CObjectAddInImp::OnRButtonUp, COMDAT
; _this$ = ecx

; 492  : {

  00000	55		 push	 ebp
  00001	8b ec		 mov	 ebp, esp
  00003	6a ff		 push	 -1
  00005	68 00 00 00 00	 push	 __ehhandler$?OnRButtonUp@CObjectAddInImp@@UAEHPAUHDC__@@IAAUtagPOINT@@K@Z
  0000a	64 a1 00 00 00
	00		 mov	 eax, DWORD PTR fs:0
  00010	50		 push	 eax
  00011	83 ec 48	 sub	 esp, 72			; 00000048H
  00014	53		 push	 ebx
  00015	56		 push	 esi
  00016	57		 push	 edi
  00017	a1 00 00 00 00	 mov	 eax, DWORD PTR ___security_cookie
  0001c	33 c5		 xor	 eax, ebp
  0001e	50		 push	 eax
  0001f	8d 45 f4	 lea	 eax, DWORD PTR __$EHRec$[ebp]
  00022	64 a3 00 00 00
	00		 mov	 DWORD PTR fs:0, eax
  00028	8b d9		 mov	 ebx, ecx
  0002a	89 5d f0	 mov	 DWORD PTR _this$1$[ebp], ebx

; 493  : 	CDC *pDC = CDC::FromHandle( p_hDC);

  0002d	ff 75 08	 push	 DWORD PTR _p_hDC$[ebp]
  00030	e8 00 00 00 00	 call	 ?FromHandle@CDC@@SGPAV1@PAUHDC__@@@Z ; CDC::FromHandle
  00035	8b f8		 mov	 edi, eax

; 494  : 	if( !pDC || !m_pBlockTool) return FALSE;

  00037	85 ff		 test	 edi, edi
  00039	0f 84 3c 02 00
	00		 je	 $LN6@OnRButtonU
  0003f	83 7b 3c 00	 cmp	 DWORD PTR [ebx+60], 0
  00043	0f 84 32 02 00
	00		 je	 $LN6@OnRButtonU

; 495  : 
; 496  : 	// (2006/10/30 - Seung-Won, Bae) Support Design Time Graph Menu.
; 497  : 	if( m_pIChartOCX->IsRuntimeMode() && !m_pIChartOCX->IsGraphMenuShow()) return FALSE;

  00049	8b 4b 04	 mov	 ecx, DWORD PTR [ebx+4]
  0004c	8b 01		 mov	 eax, DWORD PTR [ecx]
  0004e	ff 90 98 00 00
	00		 call	 DWORD PTR [eax+152]
  00054	85 c0		 test	 eax, eax
  00056	74 13		 je	 SHORT $LN7@OnRButtonU
  00058	8b 4b 04	 mov	 ecx, DWORD PTR [ebx+4]
  0005b	8b 01		 mov	 eax, DWORD PTR [ecx]
  0005d	ff 90 9c 00 00
	00		 call	 DWORD PTR [eax+156]
  00063	85 c0		 test	 eax, eax
  00065	0f 84 10 02 00
	00		 je	 $LN6@OnRButtonU
$LN7@OnRButtonU:
; File C:\Program Files (x86)\Microsoft Visual Studio\2019\Community\VC\Tools\MSVC\14.29.30133\atlmfc\include\atltypes.h

; 414  : 	*(POINT*)this = initPt;

  0006b	8b 4d 10	 mov	 ecx, DWORD PTR _point$[ebp]
  0006e	8b 01		 mov	 eax, DWORD PTR [ecx]
  00070	8b 49 04	 mov	 ecx, DWORD PTR [ecx+4]
  00073	89 45 e4	 mov	 DWORD PTR $T3[ebp], eax
; File D:\git\src\IBK\IBK_DRFN\ProjSrc\SrcChartEx\ChartOCX\AddInManager\ChartCommonAddIn\ObjectAddInImp.cpp

; 499  : 	CMenuType::MENUTYPE nMenuType = m_pBlockTool->OnRButtonUp( pDC, m_pIChartManager->GetObjectAddress(), 0, point);

  00076	8b 43 3c	 mov	 eax, DWORD PTR [ebx+60]
; File C:\Program Files (x86)\Microsoft Visual Studio\2019\Community\VC\Tools\MSVC\14.29.30133\atlmfc\include\atltypes.h

; 414  : 	*(POINT*)this = initPt;

  00079	89 4d e8	 mov	 DWORD PTR $T3[ebp+4], ecx
; File D:\git\src\IBK\IBK_DRFN\ProjSrc\SrcChartEx\ChartOCX\AddInManager\ChartCommonAddIn\ObjectAddInImp.cpp

; 499  : 	CMenuType::MENUTYPE nMenuType = m_pBlockTool->OnRButtonUp( pDC, m_pIChartManager->GetObjectAddress(), 0, point);

  0007c	8b 4b 1c	 mov	 ecx, DWORD PTR [ebx+28]
  0007f	8b 30		 mov	 esi, DWORD PTR [eax]
  00081	8d 45 e4	 lea	 eax, DWORD PTR $T3[ebp]
  00084	50		 push	 eax
  00085	8b 01		 mov	 eax, DWORD PTR [ecx]
  00087	6a 00		 push	 0
  00089	ff 50 14	 call	 DWORD PTR [eax+20]
  0008c	8b 4b 3c	 mov	 ecx, DWORD PTR [ebx+60]
  0008f	50		 push	 eax
  00090	57		 push	 edi
  00091	ff 56 24	 call	 DWORD PTR [esi+36]
  00094	89 45 08	 mov	 DWORD PTR _nMenuType$1$[ebp], eax
; File C:\Program Files (x86)\Microsoft Visual Studio\2019\Community\VC\Tools\MSVC\14.29.30133\atlmfc\include\afxwin1.inl

; 903  : 	{ m_hMenu = NULL; }

  00097	c7 45 dc 00 00
	00 00		 mov	 DWORD PTR _Context$[ebp], OFFSET ??_7CMenu@@6B@
  0009e	c7 45 e0 00 00
	00 00		 mov	 DWORD PTR _Context$[ebp+4], 0
; File D:\git\src\IBK\IBK_DRFN\ProjSrc\SrcChartEx\ChartOCX\AddInManager\ChartCommonAddIn\ObjectAddInImp.cpp

; 501  : 	CMenu Context;

  000a5	c7 45 fc 00 00
	00 00		 mov	 DWORD PTR __$EHRec$[ebp+8], 0

; 502  : 	BOOL bResult = FALSE;
; 503  : 	// (2009/6/5 - Seung-Won, Bae) Set resource handle after CMainBlockTool::OnRButtonUp().
; 504  : 	ML_SET_LANGUAGE_RES();

  000ac	e8 00 00 00 00	 call	 ?AfxGetStaticModuleState@@YGPAVAFX_MODULE_STATE@@XZ ; AfxGetStaticModuleState
  000b1	8b 48 08	 mov	 ecx, DWORD PTR [eax+8]
  000b4	51		 push	 ecx
  000b5	ff 73 0c	 push	 DWORD PTR [ebx+12]
  000b8	b9 00 00 00 00	 mov	 ecx, OFFSET ?g_iMetaTable@@3VIMetaTable@@A ; g_iMetaTable
  000bd	e8 00 00 00 00	 call	 ?LoadResourceDLL@IMetaTable@@QAEPAUHINSTANCE__@@PAUHWND__@@PAU2@@Z ; IMetaTable::LoadResourceDLL
  000c2	8b f8		 mov	 edi, eax
; File C:\Program Files (x86)\Microsoft Visual Studio\2019\Community\VC\Tools\MSVC\14.29.30133\atlmfc\include\afxwin1.inl

; 25   : 		return afxCurrentResourceHandle; }

  000c4	e8 00 00 00 00	 call	 ?AfxGetModuleState@@YGPAVAFX_MODULE_STATE@@XZ ; AfxGetModuleState
; File D:\git\src\IBK\IBK_DRFN\ProjSrc\SrcChartEx\ChartOCX\Include_Chart\DLL_Load\IMetaTable.h

; 1032 : 		m_hInstance = AfxGetResourceHandle();

  000c9	8b 70 0c	 mov	 esi, DWORD PTR [eax+12]
  000cc	89 75 ec	 mov	 DWORD PTR ___mlrs__$1$[ebp], esi
  000cf	89 75 e8	 mov	 DWORD PTR ___mlrs__$[ebp], esi
; File C:\Program Files (x86)\Microsoft Visual Studio\2019\Community\VC\Tools\MSVC\14.29.30133\atlmfc\include\afxwin1.inl

; 27   : 	{ ASSERT(hInstResource != NULL); afxCurrentResourceHandle = hInstResource; }

  000d2	e8 00 00 00 00	 call	 ?AfxGetModuleState@@YGPAVAFX_MODULE_STATE@@XZ ; AfxGetModuleState
  000d7	89 78 0c	 mov	 DWORD PTR [eax+12], edi
; File D:\git\src\IBK\IBK_DRFN\ProjSrc\SrcChartEx\ChartOCX\AddInManager\ChartCommonAddIn\ObjectAddInImp.cpp

; 505  : 	if( nMenuType == CMenuType::MENU_HORZ_SCALE) bResult = Context.LoadMenu(IDR_SCALE_X);

  000da	8b 45 08	 mov	 eax, DWORD PTR _nMenuType$1$[ebp]
  000dd	c6 45 fc 01	 mov	 BYTE PTR __$EHRec$[ebp+8], 1
  000e1	83 f8 03	 cmp	 eax, 3
  000e4	75 0e		 jne	 SHORT $LN8@OnRButtonU
; File C:\Program Files (x86)\Microsoft Visual Studio\2019\Community\VC\Tools\MSVC\14.29.30133\atlmfc\include\afxwin1.inl

; 977  : 	{ return Attach(::LoadMenuW(AfxFindResourceHandle(

  000e6	68 ed 00 00 00	 push	 237			; 000000edH
  000eb	6a 04		 push	 4
  000ed	68 ed 00 00 00	 push	 237			; 000000edH
; File D:\git\src\IBK\IBK_DRFN\ProjSrc\SrcChartEx\ChartOCX\AddInManager\ChartCommonAddIn\ObjectAddInImp.cpp

; 505  : 	if( nMenuType == CMenuType::MENU_HORZ_SCALE) bResult = Context.LoadMenu(IDR_SCALE_X);

  000f2	eb 23		 jmp	 SHORT $LN80@OnRButtonU
$LN8@OnRButtonU:

; 506  : 	else if(nMenuType == CMenuType::MENU_VERT_SCALE) bResult = Context.LoadMenu(IDR_SCALE_Y);

  000f4	83 f8 04	 cmp	 eax, 4
  000f7	75 0d		 jne	 SHORT $LN10@OnRButtonU
; File C:\Program Files (x86)\Microsoft Visual Studio\2019\Community\VC\Tools\MSVC\14.29.30133\atlmfc\include\afxwin1.inl

; 977  : 	{ return Attach(::LoadMenuW(AfxFindResourceHandle(

  000f9	68 ee 00 00 00	 push	 238			; 000000eeH
  000fe	50		 push	 eax
  000ff	68 ee 00 00 00	 push	 238			; 000000eeH
; File D:\git\src\IBK\IBK_DRFN\ProjSrc\SrcChartEx\ChartOCX\AddInManager\ChartCommonAddIn\ObjectAddInImp.cpp

; 506  : 	else if(nMenuType == CMenuType::MENU_VERT_SCALE) bResult = Context.LoadMenu(IDR_SCALE_Y);

  00104	eb 11		 jmp	 SHORT $LN80@OnRButtonU
$LN10@OnRButtonU:

; 507  : 	// 04.03.2002  x scale  block
; 508  : 	// (2004.07.28, )  ID IDR_SCALE_NONE_X  .
; 509  : 	else if(nMenuType == CMenuType::MENU_VERT_HORZ_SCALE) bResult = Context.LoadMenu(IDR_SCALE_Y_NONE_X);

  00106	83 f8 05	 cmp	 eax, 5
  00109	75 23		 jne	 SHORT $LN12@OnRButtonU
; File C:\Program Files (x86)\Microsoft Visual Studio\2019\Community\VC\Tools\MSVC\14.29.30133\atlmfc\include\afxwin1.inl

; 977  : 	{ return Attach(::LoadMenuW(AfxFindResourceHandle(

  0010b	68 ea 00 00 00	 push	 234			; 000000eaH
  00110	6a 04		 push	 4
  00112	68 ea 00 00 00	 push	 234			; 000000eaH
$LN80@OnRButtonU:
; File D:\git\src\IBK\IBK_DRFN\ProjSrc\SrcChartEx\ChartOCX\AddInManager\ChartCommonAddIn\ObjectAddInImp.cpp

; 512  : 	if( !bResult) return FALSE;

  00117	e8 00 00 00 00	 call	 ?AfxFindResourceHandle@@YGPAUHINSTANCE__@@PBD0@Z ; AfxFindResourceHandle
  0011c	50		 push	 eax
  0011d	ff 15 00 00 00
	00		 call	 DWORD PTR __imp__LoadMenuW@8
  00123	50		 push	 eax
  00124	8d 4d dc	 lea	 ecx, DWORD PTR _Context$[ebp]
  00127	e8 00 00 00 00	 call	 ?Attach@CMenu@@QAEHPAUHMENU__@@@Z ; CMenu::Attach
  0012c	eb 15		 jmp	 SHORT $LN14@OnRButtonU
$LN12@OnRButtonU:

; 510  : 	// 20081007 JS.Kim	 
; 511  : 	else if( nMenuType != CMenuType::MENU_NONE) bResult = MakeConfigMenu(&Context);

  0012e	83 f8 ff	 cmp	 eax, -1
  00131	0f 84 0a 01 00
	00		 je	 $LN78@OnRButtonU
  00137	8d 45 dc	 lea	 eax, DWORD PTR _Context$[ebp]
  0013a	50		 push	 eax
  0013b	8d 4b f8	 lea	 ecx, DWORD PTR [ebx-8]
  0013e	e8 00 00 00 00	 call	 ?MakeConfigMenu@CObjectAddInImp@@IAEHPAVCMenu@@@Z ; CObjectAddInImp::MakeConfigMenu
$LN14@OnRButtonU:

; 512  : 	if( !bResult) return FALSE;

  00143	85 c0		 test	 eax, eax
  00145	0f 84 f6 00 00
	00		 je	 $LN78@OnRButtonU
; File C:\Program Files (x86)\Microsoft Visual Studio\2019\Community\VC\Tools\MSVC\14.29.30133\atlmfc\include\afxwin1.inl

; 951  : 	{ ASSERT(::IsMenu(m_hMenu)); return CMenu::FromHandle(::GetSubMenu(m_hMenu, nPos)); }

  0014b	6a 00		 push	 0
  0014d	ff 75 e0	 push	 DWORD PTR _Context$[ebp+4]
  00150	ff 15 00 00 00
	00		 call	 DWORD PTR __imp__GetSubMenu@8
  00156	50		 push	 eax
  00157	e8 00 00 00 00	 call	 ?FromHandle@CMenu@@SGPAV1@PAUHMENU__@@@Z ; CMenu::FromHandle
; File D:\git\src\IBK\IBK_DRFN\ProjSrc\SrcChartEx\ChartOCX\AddInManager\ChartCommonAddIn\ObjectAddInImp.cpp

; 514  : 	CMenu * pPopup = Context.GetSubMenu( 0);

  0015c	8b d8		 mov	 ebx, eax
; File C:\Program Files (x86)\Microsoft Visual Studio\2019\Community\VC\Tools\MSVC\14.29.30133\atlmfc\include\afxwin1.inl

; 937  : 	{ ASSERT(::IsMenu(m_hMenu)); return ::GetMenuItemCount(m_hMenu); }

  0015e	ff 73 04	 push	 DWORD PTR [ebx+4]
  00161	ff 15 00 00 00
	00		 call	 DWORD PTR __imp__GetMenuItemCount@4
; File D:\git\src\IBK\IBK_DRFN\ProjSrc\SrcChartEx\ChartOCX\AddInManager\ChartCommonAddIn\ObjectAddInImp.cpp

; 518  : 	int nMenuCount = pPopup->GetMenuItemCount();

  00167	89 45 08	 mov	 DWORD PTR _nMenuCount$1$[ebp], eax

; 519  : 	for( int i = nMenuCount - 1; 0 <= i; i--)

  0016a	8d 78 ff	 lea	 edi, DWORD PTR [eax-1]
  0016d	85 ff		 test	 edi, edi
  0016f	0f 88 95 00 00
	00		 js	 $LN3@OnRButtonU
  00175	8b f0		 mov	 esi, eax
  00177	66 0f 1f 84 00
	00 00 00 00	 npad	 9
$LL4@OnRButtonU:
; File C:\Program Files (x86)\Microsoft Visual Studio\2019\Community\VC\Tools\MSVC\14.29.30133\atlmfc\include\afxwin1.inl

; 939  : 	{ ASSERT(::IsMenu(m_hMenu)); return ::GetMenuItemID(m_hMenu, nPos); }

  00180	57		 push	 edi
  00181	ff 73 04	 push	 DWORD PTR [ebx+4]
  00184	ff 15 00 00 00
	00		 call	 DWORD PTR __imp__GetMenuItemID@8
; File D:\git\src\IBK\IBK_DRFN\ProjSrc\SrcChartEx\ChartOCX\AddInManager\ChartCommonAddIn\ObjectAddInImp.cpp

; 521  : 		nMenuID = pPopup->GetMenuItemID( i);

  0018a	89 45 08	 mov	 DWORD PTR _nMenuID$1$[ebp], eax

; 522  : 		if( nMenuID < 0) continue;

  0018d	85 c0		 test	 eax, eax
  0018f	78 6d		 js	 SHORT $LN2@OnRButtonU

; 523  : 		if( ID_PLM_ADD_MENU <= nMenuID && nMenuID <= ID_PLM_ADD_MENU_END) continue;

  00191	3d 1c a2 00 00	 cmp	 eax, 41500		; 0000a21cH
  00196	7c 07		 jl	 SHORT $LN17@OnRButtonU
  00198	3d e3 a2 00 00	 cmp	 eax, 41699		; 0000a2e3H
  0019d	7e 5f		 jle	 SHORT $LN2@OnRButtonU
$LN17@OnRButtonU:
; File C:\Program Files (x86)\Microsoft Visual Studio\2019\Community\VC\Tools\MSVC\14.29.30133\atlmfc\include\afxwin1.inl

; 941  : 	{ ASSERT(::IsMenu(m_hMenu)); return ::GetMenuState(m_hMenu, nID, nFlags); }

  0019f	68 00 04 00 00	 push	 1024			; 00000400H
  001a4	57		 push	 edi
  001a5	ff 73 04	 push	 DWORD PTR [ebx+4]
  001a8	ff 15 00 00 00
	00		 call	 DWORD PTR __imp__GetMenuState@12
; File D:\git\src\IBK\IBK_DRFN\ProjSrc\SrcChartEx\ChartOCX\AddInManager\ChartCommonAddIn\ObjectAddInImp.cpp

; 524  : 		if( !( pPopup->GetMenuState( i, MF_BYPOSITION) & MF_DISABLED)) continue;

  001ae	a8 02		 test	 al, 2
  001b0	74 4c		 je	 SHORT $LN2@OnRButtonU

; 525  : 
; 526  : 		m_pIChartOCX->OnCmdMsg( pPopup->GetSafeHmenu(), nMenuID, i, nMenuCount, CN_UPDATE_COMMAND_UI);

  001b2	8b 45 f0	 mov	 eax, DWORD PTR _this$1$[ebp]
  001b5	6a ff		 push	 -1
  001b7	56		 push	 esi
  001b8	57		 push	 edi
  001b9	8b 48 04	 mov	 ecx, DWORD PTR [eax+4]
  001bc	ff 75 08	 push	 DWORD PTR _nMenuID$1$[ebp]
  001bf	ff 73 04	 push	 DWORD PTR [ebx+4]
  001c2	8b 01		 mov	 eax, DWORD PTR [ecx]
  001c4	ff 50 60	 call	 DWORD PTR [eax+96]
; File C:\Program Files (x86)\Microsoft Visual Studio\2019\Community\VC\Tools\MSVC\14.29.30133\atlmfc\include\afxwin1.inl

; 946  : 		return ::GetMenuItemInfo(m_hMenu, uItem, fByPos, lpMenuItemInfo); }

  001c7	8d 45 ac	 lea	 eax, DWORD PTR _mii$2[ebp]
; File D:\git\src\IBK\IBK_DRFN\ProjSrc\SrcChartEx\ChartOCX\AddInManager\ChartCommonAddIn\ObjectAddInImp.cpp

; 528  : 		mii.cbSize = sizeof( MENUITEMINFO); // must fill up this field

  001ca	c7 45 ac 30 00
	00 00		 mov	 DWORD PTR _mii$2[ebp], 48 ; 00000030H
; File C:\Program Files (x86)\Microsoft Visual Studio\2019\Community\VC\Tools\MSVC\14.29.30133\atlmfc\include\afxwin1.inl

; 946  : 		return ::GetMenuItemInfo(m_hMenu, uItem, fByPos, lpMenuItemInfo); }

  001d1	50		 push	 eax
  001d2	6a 01		 push	 1
  001d4	57		 push	 edi
  001d5	ff 73 04	 push	 DWORD PTR [ebx+4]
; File D:\git\src\IBK\IBK_DRFN\ProjSrc\SrcChartEx\ChartOCX\AddInManager\ChartCommonAddIn\ObjectAddInImp.cpp

; 529  : 		mii.fMask = MIIM_DATA;             // get the state of the menu item

  001d8	c7 45 b0 20 00
	00 00		 mov	 DWORD PTR _mii$2[ebp+4], 32 ; 00000020H
; File C:\Program Files (x86)\Microsoft Visual Studio\2019\Community\VC\Tools\MSVC\14.29.30133\atlmfc\include\afxwin1.inl

; 946  : 		return ::GetMenuItemInfo(m_hMenu, uItem, fByPos, lpMenuItemInfo); }

  001df	ff 15 00 00 00
	00		 call	 DWORD PTR __imp__GetMenuItemInfoA@16
; File D:\git\src\IBK\IBK_DRFN\ProjSrc\SrcChartEx\ChartOCX\AddInManager\ChartCommonAddIn\ObjectAddInImp.cpp

; 531  : 		if( mii.dwItemData != 9999)

  001e5	81 7d cc 0f 27
	00 00		 cmp	 DWORD PTR _mii$2[ebp+32], 9999 ; 0000270fH
  001ec	74 10		 je	 SHORT $LN2@OnRButtonU
; File C:\Program Files (x86)\Microsoft Visual Studio\2019\Community\VC\Tools\MSVC\14.29.30133\atlmfc\include\afxwin1.inl

; 921  : 	{ ASSERT(::IsMenu(m_hMenu)); return ::DeleteMenu(m_hMenu, nPosition, nFlags); }

  001ee	68 00 04 00 00	 push	 1024			; 00000400H
  001f3	57		 push	 edi
  001f4	ff 73 04	 push	 DWORD PTR [ebx+4]
  001f7	ff 15 00 00 00
	00		 call	 DWORD PTR __imp__DeleteMenu@12
; File D:\git\src\IBK\IBK_DRFN\ProjSrc\SrcChartEx\ChartOCX\AddInManager\ChartCommonAddIn\ObjectAddInImp.cpp

; 534  : 			nMenuCount--;

  001fd	4e		 dec	 esi
$LN2@OnRButtonU:

; 519  : 	for( int i = nMenuCount - 1; 0 <= i; i--)

  001fe	83 ef 01	 sub	 edi, 1
  00201	0f 89 79 ff ff
	ff		 jns	 $LL4@OnRButtonU
  00207	8b 75 ec	 mov	 esi, DWORD PTR ___mlrs__$1$[ebp]
$LN3@OnRButtonU:

; 538  : 	m_pChartCWnd->ClientToScreen( &point);

  0020a	8b 7d f0	 mov	 edi, DWORD PTR _this$1$[ebp]
; File C:\Program Files (x86)\Microsoft Visual Studio\2019\Community\VC\Tools\MSVC\14.29.30133\atlmfc\include\afxwin2.inl

; 92   : 	{ ASSERT(::IsWindow(m_hWnd)); ::ClientToScreen(m_hWnd, lpPoint); }

  0020d	ff 75 10	 push	 DWORD PTR _point$[ebp]
; File D:\git\src\IBK\IBK_DRFN\ProjSrc\SrcChartEx\ChartOCX\AddInManager\ChartCommonAddIn\ObjectAddInImp.cpp

; 538  : 	m_pChartCWnd->ClientToScreen( &point);

  00210	8b 47 08	 mov	 eax, DWORD PTR [edi+8]
; File C:\Program Files (x86)\Microsoft Visual Studio\2019\Community\VC\Tools\MSVC\14.29.30133\atlmfc\include\afxwin2.inl

; 92   : 	{ ASSERT(::IsWindow(m_hWnd)); ::ClientToScreen(m_hWnd, lpPoint); }

  00213	ff 70 20	 push	 DWORD PTR [eax+32]
  00216	ff 15 00 00 00
	00		 call	 DWORD PTR __imp__ClientToScreen@8
; File D:\git\src\IBK\IBK_DRFN\ProjSrc\SrcChartEx\ChartOCX\AddInManager\ChartCommonAddIn\ObjectAddInImp.cpp

; 539  : 	pPopup->TrackPopupMenu( TPM_LEFTALIGN | TPM_RIGHTBUTTON, point.x, point.y, m_pChartCWnd, NULL);

  0021c	8b 45 10	 mov	 eax, DWORD PTR _point$[ebp]
  0021f	8b cb		 mov	 ecx, ebx
  00221	6a 00		 push	 0
  00223	ff 77 08	 push	 DWORD PTR [edi+8]
  00226	ff 70 04	 push	 DWORD PTR [eax+4]
  00229	ff 30		 push	 DWORD PTR [eax]
  0022b	6a 02		 push	 2
  0022d	e8 00 00 00 00	 call	 ?TrackPopupMenu@CMenu@@QAEHIHHPAVCWnd@@PBUtagRECT@@@Z ; CMenu::TrackPopupMenu

; 540  : 	Context.DestroyMenu();

  00232	8d 4d dc	 lea	 ecx, DWORD PTR _Context$[ebp]
  00235	e8 00 00 00 00	 call	 ?DestroyMenu@CMenu@@QAEHXZ ; CMenu::DestroyMenu

; 541  : 	return TRUE;

  0023a	bf 01 00 00 00	 mov	 edi, 1
  0023f	eb 02		 jmp	 SHORT $LN23@OnRButtonU
$LN78@OnRButtonU:
  00241	33 ff		 xor	 edi, edi
$LN23@OnRButtonU:
; File D:\git\src\IBK\IBK_DRFN\ProjSrc\SrcChartEx\ChartOCX\Include_Chart\DLL_Load\IMetaTable.h

; 1036 : 	{

  00243	c6 45 fc 04	 mov	 BYTE PTR __$EHRec$[ebp+8], 4
; File C:\Program Files (x86)\Microsoft Visual Studio\2019\Community\VC\Tools\MSVC\14.29.30133\atlmfc\include\afxwin1.inl

; 27   : 	{ ASSERT(hInstResource != NULL); afxCurrentResourceHandle = hInstResource; }

  00247	e8 00 00 00 00	 call	 ?AfxGetModuleState@@YGPAVAFX_MODULE_STATE@@XZ ; AfxGetModuleState
  0024c	89 70 0c	 mov	 DWORD PTR [eax+12], esi

; 905  : 	{ DestroyMenu(); }

  0024f	8d 4d dc	 lea	 ecx, DWORD PTR _Context$[ebp]
  00252	c7 45 fc 05 00
	00 00		 mov	 DWORD PTR __$EHRec$[ebp+8], 5
  00259	c7 45 dc 00 00
	00 00		 mov	 DWORD PTR _Context$[ebp], OFFSET ??_7CMenu@@6B@
  00260	e8 00 00 00 00	 call	 ?DestroyMenu@CMenu@@QAEHXZ ; CMenu::DestroyMenu
; File D:\git\src\IBK\IBK_DRFN\ProjSrc\SrcChartEx\ChartOCX\AddInManager\ChartCommonAddIn\ObjectAddInImp.cpp

; 541  : 	return TRUE;

  00265	8b c7		 mov	 eax, edi

; 542  : }

  00267	8b 4d f4	 mov	 ecx, DWORD PTR __$EHRec$[ebp]
  0026a	64 89 0d 00 00
	00 00		 mov	 DWORD PTR fs:0, ecx
  00271	59		 pop	 ecx
  00272	5f		 pop	 edi
  00273	5e		 pop	 esi
  00274	5b		 pop	 ebx
  00275	8b e5		 mov	 esp, ebp
  00277	5d		 pop	 ebp
  00278	c2 10 00	 ret	 16			; 00000010H
$LN6@OnRButtonU:

; 494  : 	if( !pDC || !m_pBlockTool) return FALSE;

  0027b	33 c0		 xor	 eax, eax

; 542  : }

  0027d	8b 4d f4	 mov	 ecx, DWORD PTR __$EHRec$[ebp]
  00280	64 89 0d 00 00
	00 00		 mov	 DWORD PTR fs:0, ecx
  00287	59		 pop	 ecx
  00288	5f		 pop	 edi
  00289	5e		 pop	 esi
  0028a	5b		 pop	 ebx
  0028b	8b e5		 mov	 esp, ebp
  0028d	5d		 pop	 ebp
  0028e	c2 10 00	 ret	 16			; 00000010H
_TEXT	ENDS
;	COMDAT text$x
text$x	SEGMENT
__unwindfunclet$?OnRButtonUp@CObjectAddInImp@@UAEHPAUHDC__@@IAAUtagPOINT@@K@Z$0:
  00000	8d 4d dc	 lea	 ecx, DWORD PTR _Context$[ebp]
  00003	e9 00 00 00 00	 jmp	 ??1CMenu@@UAE@XZ	; CMenu::~CMenu
__unwindfunclet$?OnRButtonUp@CObjectAddInImp@@UAEHPAUHDC__@@IAAUtagPOINT@@K@Z$1:
  00008	8d 4d e8	 lea	 ecx, DWORD PTR ___mlrs__$[ebp]
  0000b	e9 00 00 00 00	 jmp	 ??1CMultiLanguageResourceSetter@@QAE@XZ ; CMultiLanguageResourceSetter::~CMultiLanguageResourceSetter
  00010	cc		 int	 3
  00011	cc		 int	 3
  00012	cc		 int	 3
  00013	cc		 int	 3
  00014	cc		 int	 3
__ehhandler$?OnRButtonUp@CObjectAddInImp@@UAEHPAUHDC__@@IAAUtagPOINT@@K@Z:
  00015	90		 npad	 1
  00016	90		 npad	 1
  00017	8b 54 24 08	 mov	 edx, DWORD PTR [esp+8]
  0001b	8d 42 0c	 lea	 eax, DWORD PTR [edx+12]
  0001e	8b 4a a8	 mov	 ecx, DWORD PTR [edx-88]
  00021	33 c8		 xor	 ecx, eax
  00023	e8 00 00 00 00	 call	 @__security_check_cookie@4
  00028	b8 00 00 00 00	 mov	 eax, OFFSET __ehfuncinfo$?OnRButtonUp@CObjectAddInImp@@UAEHPAUHDC__@@IAAUtagPOINT@@K@Z
  0002d	e9 00 00 00 00	 jmp	 ___CxxFrameHandler3
text$x	ENDS
?OnRButtonUp@CObjectAddInImp@@UAEHPAUHDC__@@IAAUtagPOINT@@K@Z ENDP ; CObjectAddInImp::OnRButtonUp
; Function compile flags: /Ogtp
; File D:\git\src\IBK\IBK_DRFN\ProjSrc\SrcChartEx\ChartOCX\AddInManager\ChartCommonAddIn\ObjectAddInImp.cpp
; File C:\Program Files (x86)\Microsoft Visual Studio\2019\Community\VC\Tools\MSVC\14.29.30133\atlmfc\include\atltypes.h
; File D:\git\src\IBK\IBK_DRFN\ProjSrc\SrcChartEx\ChartOCX\AddInManager\ChartCommonAddIn\ObjectAddInImp.cpp
; File C:\Program Files (x86)\Microsoft Visual Studio\2019\Community\VC\Tools\MSVC\14.29.30133\atlmfc\include\atltypes.h
; File D:\git\src\IBK\IBK_DRFN\ProjSrc\SrcChartEx\ChartOCX\AddInManager\ChartCommonAddIn\ObjectAddInImp.cpp
;	COMDAT ?OnLButtonDblClk@CObjectAddInImp@@UAEHPAUHDC__@@IAAUtagPOINT@@K@Z
_TEXT	SEGMENT
$T1 = -8						; size = 8
_p_hDC$ = 8						; size = 4
_nFlags$ = 12						; size = 4
_point$ = 16						; size = 4
_p_dwMouseActionID$ = 20				; size = 4
?OnLButtonDblClk@CObjectAddInImp@@UAEHPAUHDC__@@IAAUtagPOINT@@K@Z PROC ; CObjectAddInImp::OnLButtonDblClk, COMDAT
; _this$ = ecx

; 473  : {

  00000	55		 push	 ebp
  00001	8b ec		 mov	 ebp, esp
  00003	83 ec 08	 sub	 esp, 8
  00006	53		 push	 ebx
  00007	57		 push	 edi

; 474  : 	CDC *pDC = CDC::FromHandle( p_hDC);

  00008	ff 75 08	 push	 DWORD PTR _p_hDC$[ebp]
  0000b	8b f9		 mov	 edi, ecx
  0000d	e8 00 00 00 00	 call	 ?FromHandle@CDC@@SGPAV1@PAUHDC__@@@Z ; CDC::FromHandle
  00012	8b d8		 mov	 ebx, eax

; 475  : 	if( !pDC || !m_pBlockTool) return FALSE;

  00014	85 db		 test	 ebx, ebx
  00016	74 4a		 je	 SHORT $LN3@OnLButtonD
  00018	83 7f 3c 00	 cmp	 DWORD PTR [edi+60], 0
  0001c	74 44		 je	 SHORT $LN3@OnLButtonD

; 476  : 
; 477  : 	// (2004.06.28, ) Graph    ,
; 478  : 	//		   .
; 479  : 	// (2004.07.07. )  Graph      ,
; 480  : 	//		DLL Container   .
; 481  : 	//		( Map    Graph   .)
; 482  : // (2006/1/22 - Seung-Won, Bae) why not ? 
; 483  : //	if( m_hContainerDllWnd && !m_pMainBlock->IsExistenceGraph( _CHARTDLL_CHARTTYPE_PRICE))
; 484  : //		return FALSE;
; 485  : 
; 486  : 	m_pIAddInToolMgr->ReleaseLButtonExclusive( m_pIAddInDllBase);

  0001e	8b 4f 24	 mov	 ecx, DWORD PTR [edi+36]
  00021	56		 push	 esi
  00022	ff 77 10	 push	 DWORD PTR [edi+16]
  00025	8b 11		 mov	 edx, DWORD PTR [ecx]
  00027	ff 52 38	 call	 DWORD PTR [edx+56]
; File C:\Program Files (x86)\Microsoft Visual Studio\2019\Community\VC\Tools\MSVC\14.29.30133\atlmfc\include\atltypes.h

; 414  : 	*(POINT*)this = initPt;

  0002a	8b 45 10	 mov	 eax, DWORD PTR _point$[ebp]
  0002d	8b 08		 mov	 ecx, DWORD PTR [eax]
  0002f	8b 40 04	 mov	 eax, DWORD PTR [eax+4]
  00032	89 45 fc	 mov	 DWORD PTR $T1[ebp+4], eax
; File D:\git\src\IBK\IBK_DRFN\ProjSrc\SrcChartEx\ChartOCX\AddInManager\ChartCommonAddIn\ObjectAddInImp.cpp

; 487  : 	return m_pBlockTool->OnLButtonDblClk( pDC, m_pIChartManager->GetObjectAddress(), nFlags, point);

  00035	8b 47 3c	 mov	 eax, DWORD PTR [edi+60]
; File C:\Program Files (x86)\Microsoft Visual Studio\2019\Community\VC\Tools\MSVC\14.29.30133\atlmfc\include\atltypes.h

; 414  : 	*(POINT*)this = initPt;

  00038	89 4d f8	 mov	 DWORD PTR $T1[ebp], ecx
; File D:\git\src\IBK\IBK_DRFN\ProjSrc\SrcChartEx\ChartOCX\AddInManager\ChartCommonAddIn\ObjectAddInImp.cpp

; 487  : 	return m_pBlockTool->OnLButtonDblClk( pDC, m_pIChartManager->GetObjectAddress(), nFlags, point);

  0003b	8b 4f 1c	 mov	 ecx, DWORD PTR [edi+28]
  0003e	8b 30		 mov	 esi, DWORD PTR [eax]
  00040	8d 45 f8	 lea	 eax, DWORD PTR $T1[ebp]
  00043	50		 push	 eax
  00044	8b 01		 mov	 eax, DWORD PTR [ecx]
  00046	ff 75 0c	 push	 DWORD PTR _nFlags$[ebp]
  00049	ff 50 14	 call	 DWORD PTR [eax+20]
  0004c	8b 4f 3c	 mov	 ecx, DWORD PTR [edi+60]
  0004f	50		 push	 eax
  00050	8b 46 20	 mov	 eax, DWORD PTR [esi+32]
  00053	53		 push	 ebx
  00054	ff d0		 call	 eax
  00056	5e		 pop	 esi
  00057	5f		 pop	 edi
  00058	0f b6 c0	 movzx	 eax, al

; 488  : }

  0005b	5b		 pop	 ebx
  0005c	8b e5		 mov	 esp, ebp
  0005e	5d		 pop	 ebp
  0005f	c2 10 00	 ret	 16			; 00000010H
$LN3@OnLButtonD:
  00062	5f		 pop	 edi

; 475  : 	if( !pDC || !m_pBlockTool) return FALSE;

  00063	33 c0		 xor	 eax, eax

; 488  : }

  00065	5b		 pop	 ebx
  00066	8b e5		 mov	 esp, ebp
  00068	5d		 pop	 ebp
  00069	c2 10 00	 ret	 16			; 00000010H
?OnLButtonDblClk@CObjectAddInImp@@UAEHPAUHDC__@@IAAUtagPOINT@@K@Z ENDP ; CObjectAddInImp::OnLButtonDblClk
_TEXT	ENDS
; Function compile flags: /Ogtp
; File D:\git\src\IBK\IBK_DRFN\ProjSrc\SrcChartEx\ChartOCX\AddInManager\ChartCommonAddIn\ObjectAddInImp.cpp
; File C:\Program Files (x86)\Microsoft Visual Studio\2019\Community\VC\Tools\MSVC\14.29.30133\atlmfc\include\atltypes.h
; File D:\git\src\IBK\IBK_DRFN\ProjSrc\SrcChartEx\ChartOCX\AddInManager\ChartCommonAddIn\ObjectAddInImp.cpp
; File C:\Program Files (x86)\Microsoft Visual Studio\2019\Community\VC\Tools\MSVC\14.29.30133\atlmfc\include\atltypes.h
; File D:\git\src\IBK\IBK_DRFN\ProjSrc\SrcChartEx\ChartOCX\AddInManager\ChartCommonAddIn\ObjectAddInImp.cpp
; File C:\Program Files (x86)\Microsoft Visual Studio\2019\Community\VC\Tools\MSVC\14.29.30133\atlmfc\include\atltypes.h
; File D:\git\src\IBK\IBK_DRFN\ProjSrc\SrcChartEx\ChartOCX\AddInManager\ChartCommonAddIn\ObjectAddInImp.cpp
; File D:\git\src\IBK\IBK_DRFN\ProjSrc\SrcChartEx\ChartOCX\AddInManager\Include_AddIn\I000000\_IString.h
; File D:\git\src\IBK\IBK_DRFN\ProjSrc\SrcChartEx\ChartOCX\AddInManager\ChartCommonAddIn\ObjectAddInImp.cpp
;	COMDAT ?OnLButtonUp@CObjectAddInImp@@UAEHPAUHDC__@@IAAUtagPOINT@@K@Z
_TEXT	SEGMENT
$T2 = -32						; size = 8
_szBlockPosition$3 = -24				; size = 8
_eToolType$1$ = -20					; size = 4
_pDC$1$ = -16						; size = 4
__$EHRec$ = -12						; size = 12
_p_hDC$ = 8						; size = 4
_nFlags$ = 12						; size = 4
_point$ = 16						; size = 4
_p_dwMouseActionID$ = 20				; size = 4
?OnLButtonUp@CObjectAddInImp@@UAEHPAUHDC__@@IAAUtagPOINT@@K@Z PROC ; CObjectAddInImp::OnLButtonUp, COMDAT
; _this$ = ecx

; 441  : {

  00000	55		 push	 ebp
  00001	8b ec		 mov	 ebp, esp
  00003	6a ff		 push	 -1
  00005	68 00 00 00 00	 push	 __ehhandler$?OnLButtonUp@CObjectAddInImp@@UAEHPAUHDC__@@IAAUtagPOINT@@K@Z
  0000a	64 a1 00 00 00
	00		 mov	 eax, DWORD PTR fs:0
  00010	50		 push	 eax
  00011	83 ec 14	 sub	 esp, 20			; 00000014H
  00014	56		 push	 esi
  00015	57		 push	 edi
  00016	a1 00 00 00 00	 mov	 eax, DWORD PTR ___security_cookie
  0001b	33 c5		 xor	 eax, ebp
  0001d	50		 push	 eax
  0001e	8d 45 f4	 lea	 eax, DWORD PTR __$EHRec$[ebp]
  00021	64 a3 00 00 00
	00		 mov	 DWORD PTR fs:0, eax
  00027	8b f9		 mov	 edi, ecx

; 442  : 	CDC *pDC = CDC::FromHandle( p_hDC);

  00029	ff 75 08	 push	 DWORD PTR _p_hDC$[ebp]
  0002c	e8 00 00 00 00	 call	 ?FromHandle@CDC@@SGPAV1@PAUHDC__@@@Z ; CDC::FromHandle
  00031	89 45 f0	 mov	 DWORD PTR _pDC$1$[ebp], eax

; 443  : 	if( !pDC || !m_pBlockTool) return FALSE;

  00034	85 c0		 test	 eax, eax
  00036	0f 84 51 01 00
	00		 je	 $LN3@OnLButtonU
  0003c	83 7f 3c 00	 cmp	 DWORD PTR [edi+60], 0
  00040	0f 84 47 01 00
	00		 je	 $LN3@OnLButtonU

; 444  : 
; 445  : 	if( !m_pIAddInToolMgr->IsLButtonExclusive( m_pIAddInDllBase)) return FALSE;

  00046	8b 4f 24	 mov	 ecx, DWORD PTR [edi+36]
  00049	ff 77 10	 push	 DWORD PTR [edi+16]
  0004c	8b 01		 mov	 eax, DWORD PTR [ecx]
  0004e	ff 50 34	 call	 DWORD PTR [eax+52]
  00051	85 c0		 test	 eax, eax
  00053	0f 84 34 01 00
	00		 je	 $LN3@OnLButtonU

; 446  : 	// (2006/1/17 - Seung-Won, Bae) Support Design & Run Mode
; 447  : 	CBlockBaseData::TOOLTYPE eToolType = m_pBlockTool->GetCurrentToolType();

  00059	8b 4f 3c	 mov	 ecx, DWORD PTR [edi+60]
  0005c	8b 01		 mov	 eax, DWORD PTR [ecx]
  0005e	ff 50 14	 call	 DWORD PTR [eax+20]
  00061	89 45 ec	 mov	 DWORD PTR _eToolType$1$[ebp], eax
; File C:\Program Files (x86)\Microsoft Visual Studio\2019\Community\VC\Tools\MSVC\14.29.30133\atlmfc\include\atltypes.h

; 414  : 	*(POINT*)this = initPt;

  00064	8b 45 10	 mov	 eax, DWORD PTR _point$[ebp]
  00067	8b 08		 mov	 ecx, DWORD PTR [eax]
  00069	8b 50 04	 mov	 edx, DWORD PTR [eax+4]
; File D:\git\src\IBK\IBK_DRFN\ProjSrc\SrcChartEx\ChartOCX\AddInManager\ChartCommonAddIn\ObjectAddInImp.cpp

; 448  : 	BOOL bResult = m_pBlockTool->OnLButtonUp( pDC, m_pIChartManager->GetObjectAddress(), nFlags, point);

  0006c	8d 45 e0	 lea	 eax, DWORD PTR $T2[ebp]
; File C:\Program Files (x86)\Microsoft Visual Studio\2019\Community\VC\Tools\MSVC\14.29.30133\atlmfc\include\atltypes.h

; 414  : 	*(POINT*)this = initPt;

  0006f	89 4d e0	 mov	 DWORD PTR $T2[ebp], ecx
; File D:\git\src\IBK\IBK_DRFN\ProjSrc\SrcChartEx\ChartOCX\AddInManager\ChartCommonAddIn\ObjectAddInImp.cpp

; 448  : 	BOOL bResult = m_pBlockTool->OnLButtonUp( pDC, m_pIChartManager->GetObjectAddress(), nFlags, point);

  00072	8b 4f 3c	 mov	 ecx, DWORD PTR [edi+60]
; File C:\Program Files (x86)\Microsoft Visual Studio\2019\Community\VC\Tools\MSVC\14.29.30133\atlmfc\include\atltypes.h

; 414  : 	*(POINT*)this = initPt;

  00075	89 55 e4	 mov	 DWORD PTR $T2[ebp+4], edx
; File D:\git\src\IBK\IBK_DRFN\ProjSrc\SrcChartEx\ChartOCX\AddInManager\ChartCommonAddIn\ObjectAddInImp.cpp

; 448  : 	BOOL bResult = m_pBlockTool->OnLButtonUp( pDC, m_pIChartManager->GetObjectAddress(), nFlags, point);

  00078	50		 push	 eax
  00079	ff 75 0c	 push	 DWORD PTR _nFlags$[ebp]
  0007c	8b 31		 mov	 esi, DWORD PTR [ecx]
  0007e	8b 4f 1c	 mov	 ecx, DWORD PTR [edi+28]
  00081	8b 01		 mov	 eax, DWORD PTR [ecx]
  00083	ff 50 14	 call	 DWORD PTR [eax+20]
  00086	8b 4f 3c	 mov	 ecx, DWORD PTR [edi+60]
  00089	50		 push	 eax
  0008a	ff 75 f0	 push	 DWORD PTR _pDC$1$[ebp]
  0008d	8b 46 1c	 mov	 eax, DWORD PTR [esi+28]
  00090	ff d0		 call	 eax
  00092	0f b6 f0	 movzx	 esi, al

; 449  : 	if(bResult)

  00095	84 c0		 test	 al, al
  00097	0f 84 d0 00 00
	00		 je	 $LN11@OnLButtonU

; 450  : 	{
; 451  : 		if(eToolType == CBlockBaseData::TOOL_COMPARTLINE)

  0009d	8b 45 ec	 mov	 eax, DWORD PTR _eToolType$1$[ebp]
  000a0	85 c0		 test	 eax, eax
  000a2	0f 85 a7 00 00
	00		 jne	 $LN6@OnLButtonU

; 452  : 		{
; 453  : 			if(!m_pIChartOCX->IsRuntimeMode())

  000a8	8b 4f 04	 mov	 ecx, DWORD PTR [edi+4]
  000ab	8b 01		 mov	 eax, DWORD PTR [ecx]
  000ad	ff 90 98 00 00
	00		 call	 DWORD PTR [eax+152]
  000b3	85 c0		 test	 eax, eax
  000b5	75 5e		 jne	 SHORT $LN8@OnLButtonU

; 455  : 				ILPCSTR szBlockPosition = m_pIChartManager->GetBlocksPositionString();

  000b7	8b 4f 1c	 mov	 ecx, DWORD PTR [edi+28]
  000ba	8b 01		 mov	 eax, DWORD PTR [ecx]
  000bc	ff 50 28	 call	 DWORD PTR [eax+40]
; File D:\git\src\IBK\IBK_DRFN\ProjSrc\SrcChartEx\ChartOCX\AddInManager\Include_AddIn\I000000\_IString.h

; 39   : 		m_pIStrData = p_pIString;	// Do not AddRef(). Because It must be Return Value.

  000bf	89 45 ec	 mov	 DWORD PTR _szBlockPosition$3[ebp+4], eax

; 40   : 		if( m_pIStrData) m_szData = m_pIStrData->GetData();

  000c2	85 c0		 test	 eax, eax
  000c4	74 0b		 je	 SHORT $LN17@OnLButtonU
  000c6	8b 10		 mov	 edx, DWORD PTR [eax]
  000c8	8b c8		 mov	 ecx, eax
  000ca	ff 52 10	 call	 DWORD PTR [edx+16]
  000cd	8b d0		 mov	 edx, eax
  000cf	eb 02		 jmp	 SHORT $LN21@OnLButtonU
$LN17@OnLButtonU:

; 41   : 		else m_szData = NULL;

  000d1	33 d2		 xor	 edx, edx
$LN21@OnLButtonU:
; File D:\git\src\IBK\IBK_DRFN\ProjSrc\SrcChartEx\ChartOCX\AddInManager\ChartCommonAddIn\ObjectAddInImp.cpp

; 455  : 				ILPCSTR szBlockPosition = m_pIChartManager->GetBlocksPositionString();

  000d3	89 55 e8	 mov	 DWORD PTR _szBlockPosition$3[ebp], edx

; 456  : 				m_pIChartOCX->SetStrBlockRegion( szBlockPosition);

  000d6	8b 4f 04	 mov	 ecx, DWORD PTR [edi+4]
  000d9	52		 push	 edx
  000da	c7 45 fc 00 00
	00 00		 mov	 DWORD PTR __$EHRec$[ebp+8], 0
  000e1	8b 01		 mov	 eax, DWORD PTR [ecx]
  000e3	ff 50 78	 call	 DWORD PTR [eax+120]

; 457  : 			}

  000e6	8d 4d e8	 lea	 ecx, DWORD PTR _szBlockPosition$3[ebp]
  000e9	c7 45 fc ff ff
	ff ff		 mov	 DWORD PTR __$EHRec$[ebp+8], -1
  000f0	e8 00 00 00 00	 call	 ??1ILPCSTR000000@@QAE@XZ ; ILPCSTR000000::~ILPCSTR000000

; 465  : 		}
; 466  : 	}
; 467  : 
; 468  : 	m_pIAddInToolMgr->ReleaseLButtonExclusive( m_pIAddInDllBase);

  000f5	8b 4f 24	 mov	 ecx, DWORD PTR [edi+36]
  000f8	ff 77 10	 push	 DWORD PTR [edi+16]
  000fb	8b 11		 mov	 edx, DWORD PTR [ecx]
  000fd	ff 52 38	 call	 DWORD PTR [edx+56]

; 469  : 	return bResult;

  00100	8b c6		 mov	 eax, esi

; 470  : }

  00102	8b 4d f4	 mov	 ecx, DWORD PTR __$EHRec$[ebp]
  00105	64 89 0d 00 00
	00 00		 mov	 DWORD PTR fs:0, ecx
  0010c	59		 pop	 ecx
  0010d	5f		 pop	 edi
  0010e	5e		 pop	 esi
  0010f	8b e5		 mov	 esp, ebp
  00111	5d		 pop	 ebp
  00112	c2 10 00	 ret	 16			; 00000010H
$LN8@OnLButtonU:

; 458  : 			// (2006/1/20 - Seung-Won, Bae) Support RunTime Mode
; 459  : 			else if( !m_pIChartOCX->IsOnSpecialChart()) m_pIChartOCX->SaveChartCFG_SaveNow();

  00115	8b 4f 04	 mov	 ecx, DWORD PTR [edi+4]
  00118	8b 01		 mov	 eax, DWORD PTR [ecx]
  0011a	ff 90 84 00 00
	00		 call	 DWORD PTR [eax+132]
  00120	85 c0		 test	 eax, eax
  00122	75 49		 jne	 SHORT $LN11@OnLButtonU
  00124	8b 4f 04	 mov	 ecx, DWORD PTR [edi+4]
  00127	8b 01		 mov	 eax, DWORD PTR [ecx]
  00129	ff 90 30 02 00
	00		 call	 DWORD PTR [eax+560]

; 465  : 		}
; 466  : 	}
; 467  : 
; 468  : 	m_pIAddInToolMgr->ReleaseLButtonExclusive( m_pIAddInDllBase);

  0012f	8b 4f 24	 mov	 ecx, DWORD PTR [edi+36]
  00132	ff 77 10	 push	 DWORD PTR [edi+16]
  00135	8b 11		 mov	 edx, DWORD PTR [ecx]
  00137	ff 52 38	 call	 DWORD PTR [edx+56]

; 469  : 	return bResult;

  0013a	8b c6		 mov	 eax, esi

; 470  : }

  0013c	8b 4d f4	 mov	 ecx, DWORD PTR __$EHRec$[ebp]
  0013f	64 89 0d 00 00
	00 00		 mov	 DWORD PTR fs:0, ecx
  00146	59		 pop	 ecx
  00147	5f		 pop	 edi
  00148	5e		 pop	 esi
  00149	8b e5		 mov	 esp, ebp
  0014b	5d		 pop	 ebp
  0014c	c2 10 00	 ret	 16			; 00000010H
$LN6@OnLButtonU:

; 460  : 		}
; 461  : 		else if(eToolType == CBlockBaseData::TOOL_SUBGRAPH)

  0014f	83 f8 06	 cmp	 eax, 6
  00152	75 19		 jne	 SHORT $LN11@OnLButtonU

; 462  : 		{
; 463  : 			// (2006/2/15 - Seung-Won, Bae) Show Tooltip
; 464  : 			m_pIAddInToolMgr->OnAddInToolCommand( EAI_TOOLTIP_ONLBUTTONUP, p_hDC, nFlags, point, p_dwMouseActionID);

  00154	ff 75 14	 push	 DWORD PTR _p_dwMouseActionID$[ebp]
  00157	8b 4f 24	 mov	 ecx, DWORD PTR [edi+36]
  0015a	ff 75 10	 push	 DWORD PTR _point$[ebp]
  0015d	ff 75 0c	 push	 DWORD PTR _nFlags$[ebp]
  00160	8b 01		 mov	 eax, DWORD PTR [ecx]
  00162	ff 75 08	 push	 DWORD PTR _p_hDC$[ebp]
  00165	6a 20		 push	 32			; 00000020H
  00167	ff 90 ac 00 00
	00		 call	 DWORD PTR [eax+172]
$LN11@OnLButtonU:

; 465  : 		}
; 466  : 	}
; 467  : 
; 468  : 	m_pIAddInToolMgr->ReleaseLButtonExclusive( m_pIAddInDllBase);

  0016d	8b 4f 24	 mov	 ecx, DWORD PTR [edi+36]
  00170	ff 77 10	 push	 DWORD PTR [edi+16]
  00173	8b 11		 mov	 edx, DWORD PTR [ecx]
  00175	ff 52 38	 call	 DWORD PTR [edx+56]

; 469  : 	return bResult;

  00178	8b c6		 mov	 eax, esi

; 470  : }

  0017a	8b 4d f4	 mov	 ecx, DWORD PTR __$EHRec$[ebp]
  0017d	64 89 0d 00 00
	00 00		 mov	 DWORD PTR fs:0, ecx
  00184	59		 pop	 ecx
  00185	5f		 pop	 edi
  00186	5e		 pop	 esi
  00187	8b e5		 mov	 esp, ebp
  00189	5d		 pop	 ebp
  0018a	c2 10 00	 ret	 16			; 00000010H
$LN3@OnLButtonU:

; 443  : 	if( !pDC || !m_pBlockTool) return FALSE;

  0018d	33 c0		 xor	 eax, eax

; 470  : }

  0018f	8b 4d f4	 mov	 ecx, DWORD PTR __$EHRec$[ebp]
  00192	64 89 0d 00 00
	00 00		 mov	 DWORD PTR fs:0, ecx
  00199	59		 pop	 ecx
  0019a	5f		 pop	 edi
  0019b	5e		 pop	 esi
  0019c	8b e5		 mov	 esp, ebp
  0019e	5d		 pop	 ebp
  0019f	c2 10 00	 ret	 16			; 00000010H
_TEXT	ENDS
;	COMDAT text$x
text$x	SEGMENT
__unwindfunclet$?OnLButtonUp@CObjectAddInImp@@UAEHPAUHDC__@@IAAUtagPOINT@@K@Z$0:
  00000	8d 4d e8	 lea	 ecx, DWORD PTR _szBlockPosition$3[ebp]
  00003	e9 00 00 00 00	 jmp	 ??1ILPCSTR000000@@QAE@XZ ; ILPCSTR000000::~ILPCSTR000000
  00008	cc		 int	 3
  00009	cc		 int	 3
  0000a	cc		 int	 3
  0000b	cc		 int	 3
  0000c	cc		 int	 3
__ehhandler$?OnLButtonUp@CObjectAddInImp@@UAEHPAUHDC__@@IAAUtagPOINT@@K@Z:
  0000d	90		 npad	 1
  0000e	90		 npad	 1
  0000f	8b 54 24 08	 mov	 edx, DWORD PTR [esp+8]
  00013	8d 42 0c	 lea	 eax, DWORD PTR [edx+12]
  00016	8b 4a e0	 mov	 ecx, DWORD PTR [edx-32]
  00019	33 c8		 xor	 ecx, eax
  0001b	e8 00 00 00 00	 call	 @__security_check_cookie@4
  00020	b8 00 00 00 00	 mov	 eax, OFFSET __ehfuncinfo$?OnLButtonUp@CObjectAddInImp@@UAEHPAUHDC__@@IAAUtagPOINT@@K@Z
  00025	e9 00 00 00 00	 jmp	 ___CxxFrameHandler3
text$x	ENDS
?OnLButtonUp@CObjectAddInImp@@UAEHPAUHDC__@@IAAUtagPOINT@@K@Z ENDP ; CObjectAddInImp::OnLButtonUp
; Function compile flags: /Ogtp
; File D:\git\src\IBK\IBK_DRFN\ProjSrc\SrcChartEx\ChartOCX\AddInManager\ChartCommonAddIn\ObjectAddInImp.cpp
; File C:\Program Files (x86)\Microsoft Visual Studio\2019\Community\VC\Tools\MSVC\14.29.30133\atlmfc\include\atltypes.h
; File D:\git\src\IBK\IBK_DRFN\ProjSrc\SrcChartEx\ChartOCX\AddInManager\ChartCommonAddIn\ObjectAddInImp.cpp
; File C:\Program Files (x86)\Microsoft Visual Studio\2019\Community\VC\Tools\MSVC\14.29.30133\atlmfc\include\atltypes.h
; File D:\git\src\IBK\IBK_DRFN\ProjSrc\SrcChartEx\ChartOCX\AddInManager\ChartCommonAddIn\ObjectAddInImp.cpp
;	COMDAT ?OnLButtonDown@CObjectAddInImp@@UAEHPAUHDC__@@IAAUtagPOINT@@K@Z
_TEXT	SEGMENT
$T1 = -12						; size = 8
_pDC$1$ = -4						; size = 4
_p_hDC$ = 8						; size = 4
_nFlags$ = 12						; size = 4
_point$ = 16						; size = 4
_p_dwMouseActionID$ = 20				; size = 4
?OnLButtonDown@CObjectAddInImp@@UAEHPAUHDC__@@IAAUtagPOINT@@K@Z PROC ; CObjectAddInImp::OnLButtonDown, COMDAT
; _this$ = ecx

; 418  : {

  00000	55		 push	 ebp
  00001	8b ec		 mov	 ebp, esp
  00003	83 ec 0c	 sub	 esp, 12			; 0000000cH
  00006	56		 push	 esi
  00007	57		 push	 edi

; 419  : 	CDC *pDC = CDC::FromHandle( p_hDC);

  00008	ff 75 08	 push	 DWORD PTR _p_hDC$[ebp]
  0000b	8b f9		 mov	 edi, ecx
  0000d	e8 00 00 00 00	 call	 ?FromHandle@CDC@@SGPAV1@PAUHDC__@@@Z ; CDC::FromHandle
  00012	89 45 fc	 mov	 DWORD PTR _pDC$1$[ebp], eax

; 420  : 	if( !pDC || !m_pBlockTool) return FALSE;

  00015	85 c0		 test	 eax, eax
  00017	0f 84 84 00 00
	00		 je	 $LN3@OnLButtonD
  0001d	8b 77 3c	 mov	 esi, DWORD PTR [edi+60]
  00020	85 f6		 test	 esi, esi
  00022	74 7d		 je	 SHORT $LN3@OnLButtonD
; File C:\Program Files (x86)\Microsoft Visual Studio\2019\Community\VC\Tools\MSVC\14.29.30133\atlmfc\include\atltypes.h

; 414  : 	*(POINT*)this = initPt;

  00024	8b 4d 10	 mov	 ecx, DWORD PTR _point$[ebp]
  00027	8b 01		 mov	 eax, DWORD PTR [ecx]
  00029	8b 49 04	 mov	 ecx, DWORD PTR [ecx+4]
  0002c	89 4d f8	 mov	 DWORD PTR $T1[ebp+4], ecx
; File D:\git\src\IBK\IBK_DRFN\ProjSrc\SrcChartEx\ChartOCX\AddInManager\ChartCommonAddIn\ObjectAddInImp.cpp

; 424  : 	if( !m_pBlockTool->OnLButtonDown( pDC, m_pIChartManager->GetObjectAddress(), nFlags, point)) return FALSE;

  0002f	8b 4f 1c	 mov	 ecx, DWORD PTR [edi+28]
; File C:\Program Files (x86)\Microsoft Visual Studio\2019\Community\VC\Tools\MSVC\14.29.30133\atlmfc\include\atltypes.h

; 414  : 	*(POINT*)this = initPt;

  00032	89 45 f4	 mov	 DWORD PTR $T1[ebp], eax
; File D:\git\src\IBK\IBK_DRFN\ProjSrc\SrcChartEx\ChartOCX\AddInManager\ChartCommonAddIn\ObjectAddInImp.cpp

; 424  : 	if( !m_pBlockTool->OnLButtonDown( pDC, m_pIChartManager->GetObjectAddress(), nFlags, point)) return FALSE;

  00035	8d 45 f4	 lea	 eax, DWORD PTR $T1[ebp]
  00038	8b 36		 mov	 esi, DWORD PTR [esi]
  0003a	50		 push	 eax
  0003b	8b 01		 mov	 eax, DWORD PTR [ecx]
  0003d	ff 75 0c	 push	 DWORD PTR _nFlags$[ebp]
  00040	ff 50 14	 call	 DWORD PTR [eax+20]
  00043	8b 4f 3c	 mov	 ecx, DWORD PTR [edi+60]
  00046	50		 push	 eax
  00047	ff 75 fc	 push	 DWORD PTR _pDC$1$[ebp]
  0004a	8b 46 18	 mov	 eax, DWORD PTR [esi+24]
  0004d	ff d0		 call	 eax
  0004f	84 c0		 test	 al, al
  00051	74 4e		 je	 SHORT $LN3@OnLButtonD

; 425  : 	m_pIAddInToolMgr->GetLButtonExclusive( m_pIAddInDllBase);

  00053	8b 4f 24	 mov	 ecx, DWORD PTR [edi+36]
  00056	ff 77 10	 push	 DWORD PTR [edi+16]
  00059	8b 01		 mov	 eax, DWORD PTR [ecx]
  0005b	ff 50 30	 call	 DWORD PTR [eax+48]

; 426  : 	
; 427  : 	// (2006/2/1 - Seung-Won, Bae) Release Other Tools Selection
; 428  : 	m_pIAddInToolMgr->OnAddInToolCommand( EAI_ALL_RELEASE_SELECTION_EXCEPT_ONE, m_pIAddInDllBase);

  0005e	8b 4f 24	 mov	 ecx, DWORD PTR [edi+36]
  00061	ff 77 10	 push	 DWORD PTR [edi+16]
  00064	6a 1c		 push	 28			; 0000001cH
  00066	8b 01		 mov	 eax, DWORD PTR [ecx]
  00068	ff 90 a0 00 00
	00		 call	 DWORD PTR [eax+160]

; 429  : 
; 430  : 	// (2006/3/21 - Seung-Won, Bae) Tooltip must work in Only Graph. (not GraphTitle)
; 431  : 	if( m_pBlockTool->GetCurrentToolType() == CBlockBaseData::TOOL_SUBGRAPH)

  0006e	8b 4f 3c	 mov	 ecx, DWORD PTR [edi+60]
  00071	8b 01		 mov	 eax, DWORD PTR [ecx]
  00073	ff 50 14	 call	 DWORD PTR [eax+20]
  00076	83 f8 06	 cmp	 eax, 6
  00079	75 19		 jne	 SHORT $LN5@OnLButtonD

; 432  : 	{
; 433  : 		// (2006/2/15 - Seung-Won, Bae) Show Tooltip
; 434  : 		m_pIAddInToolMgr->OnAddInToolCommand( EAI_TOOLTIP_ONLBUTTONDOWN, p_hDC, nFlags, point, p_dwMouseActionID);

  0007b	ff 75 14	 push	 DWORD PTR _p_dwMouseActionID$[ebp]
  0007e	8b 4f 24	 mov	 ecx, DWORD PTR [edi+36]
  00081	ff 75 10	 push	 DWORD PTR _point$[ebp]
  00084	ff 75 0c	 push	 DWORD PTR _nFlags$[ebp]
  00087	8b 01		 mov	 eax, DWORD PTR [ecx]
  00089	ff 75 08	 push	 DWORD PTR _p_hDC$[ebp]
  0008c	6a 1f		 push	 31			; 0000001fH
  0008e	ff 90 ac 00 00
	00		 call	 DWORD PTR [eax+172]
$LN5@OnLButtonD:

; 435  : 	}
; 436  : 
; 437  : 	return TRUE;

  00094	5f		 pop	 edi
  00095	b8 01 00 00 00	 mov	 eax, 1

; 438  : }

  0009a	5e		 pop	 esi
  0009b	8b e5		 mov	 esp, ebp
  0009d	5d		 pop	 ebp
  0009e	c2 10 00	 ret	 16			; 00000010H
$LN3@OnLButtonD:
  000a1	5f		 pop	 edi

; 420  : 	if( !pDC || !m_pBlockTool) return FALSE;

  000a2	33 c0		 xor	 eax, eax

; 438  : }

  000a4	5e		 pop	 esi
  000a5	8b e5		 mov	 esp, ebp
  000a7	5d		 pop	 ebp
  000a8	c2 10 00	 ret	 16			; 00000010H
?OnLButtonDown@CObjectAddInImp@@UAEHPAUHDC__@@IAAUtagPOINT@@K@Z ENDP ; CObjectAddInImp::OnLButtonDown
_TEXT	ENDS
; Function compile flags: /Ogtp
; File D:\git\src\IBK\IBK_DRFN\ProjSrc\SrcChartEx\ChartOCX\AddInManager\ChartCommonAddIn\ObjectAddInImp.cpp
; File C:\Program Files (x86)\Microsoft Visual Studio\2019\Community\VC\Tools\MSVC\14.29.30133\atlmfc\include\atltypes.h
; File D:\git\src\IBK\IBK_DRFN\ProjSrc\SrcChartEx\ChartOCX\AddInManager\ChartCommonAddIn\ObjectAddInImp.cpp
; File C:\Program Files (x86)\Microsoft Visual Studio\2019\Community\VC\Tools\MSVC\14.29.30133\atlmfc\include\atltypes.h
; File D:\git\src\IBK\IBK_DRFN\ProjSrc\SrcChartEx\ChartOCX\AddInManager\ChartCommonAddIn\ObjectAddInImp.cpp
;	COMDAT ?OnMouseMove@CObjectAddInImp@@UAEHPAUHDC__@@IAAUtagPOINT@@KQAUHBITMAP__@@@Z
_TEXT	SEGMENT
$T1 = -8						; size = 8
_p_hDC$ = 8						; size = 4
_nFlags$ = 12						; size = 4
_point$ = 16						; size = 4
_p_dwMouseActionID$ = 20				; size = 4
_p_hbmpMainOSB$ = 24					; size = 4
?OnMouseMove@CObjectAddInImp@@UAEHPAUHDC__@@IAAUtagPOINT@@KQAUHBITMAP__@@@Z PROC ; CObjectAddInImp::OnMouseMove, COMDAT
; _this$ = ecx

; 407  : {

  00000	55		 push	 ebp
  00001	8b ec		 mov	 ebp, esp
  00003	83 ec 08	 sub	 esp, 8
  00006	53		 push	 ebx
  00007	56		 push	 esi
  00008	57		 push	 edi

; 408  : 	CDC *pDC = CDC::FromHandle( p_hDC);

  00009	ff 75 08	 push	 DWORD PTR _p_hDC$[ebp]
  0000c	8b f9		 mov	 edi, ecx
  0000e	e8 00 00 00 00	 call	 ?FromHandle@CDC@@SGPAV1@PAUHDC__@@@Z ; CDC::FromHandle
  00013	8b d8		 mov	 ebx, eax

; 409  : 	if( !pDC || !m_pBlockTool) return FALSE;

  00015	85 db		 test	 ebx, ebx
  00017	74 3c		 je	 SHORT $LN3@OnMouseMov
  00019	8b 77 3c	 mov	 esi, DWORD PTR [edi+60]
  0001c	85 f6		 test	 esi, esi
  0001e	74 35		 je	 SHORT $LN3@OnMouseMov
; File C:\Program Files (x86)\Microsoft Visual Studio\2019\Community\VC\Tools\MSVC\14.29.30133\atlmfc\include\atltypes.h

; 414  : 	*(POINT*)this = initPt;

  00020	8b 4d 10	 mov	 ecx, DWORD PTR _point$[ebp]
  00023	8b 01		 mov	 eax, DWORD PTR [ecx]
  00025	8b 49 04	 mov	 ecx, DWORD PTR [ecx+4]
  00028	89 4d fc	 mov	 DWORD PTR $T1[ebp+4], ecx
; File D:\git\src\IBK\IBK_DRFN\ProjSrc\SrcChartEx\ChartOCX\AddInManager\ChartCommonAddIn\ObjectAddInImp.cpp

; 414  : 	return m_pBlockTool->OnMouseMove( pDC, m_pIChartManager->GetObjectAddress(), nFlags, point);

  0002b	8b 4f 1c	 mov	 ecx, DWORD PTR [edi+28]
; File C:\Program Files (x86)\Microsoft Visual Studio\2019\Community\VC\Tools\MSVC\14.29.30133\atlmfc\include\atltypes.h

; 414  : 	*(POINT*)this = initPt;

  0002e	89 45 f8	 mov	 DWORD PTR $T1[ebp], eax
; File D:\git\src\IBK\IBK_DRFN\ProjSrc\SrcChartEx\ChartOCX\AddInManager\ChartCommonAddIn\ObjectAddInImp.cpp

; 414  : 	return m_pBlockTool->OnMouseMove( pDC, m_pIChartManager->GetObjectAddress(), nFlags, point);

  00031	8d 45 f8	 lea	 eax, DWORD PTR $T1[ebp]
  00034	8b 36		 mov	 esi, DWORD PTR [esi]
  00036	50		 push	 eax
  00037	8b 01		 mov	 eax, DWORD PTR [ecx]
  00039	ff 75 0c	 push	 DWORD PTR _nFlags$[ebp]
  0003c	ff 50 14	 call	 DWORD PTR [eax+20]
  0003f	8b 4f 3c	 mov	 ecx, DWORD PTR [edi+60]
  00042	50		 push	 eax
  00043	8b 46 28	 mov	 eax, DWORD PTR [esi+40]
  00046	53		 push	 ebx
  00047	ff d0		 call	 eax
  00049	5f		 pop	 edi

; 415  : }

  0004a	5e		 pop	 esi
  0004b	0f b6 c0	 movzx	 eax, al
  0004e	5b		 pop	 ebx
  0004f	8b e5		 mov	 esp, ebp
  00051	5d		 pop	 ebp
  00052	c2 14 00	 ret	 20			; 00000014H
$LN3@OnMouseMov:
  00055	5f		 pop	 edi
  00056	5e		 pop	 esi
  00057	33 c0		 xor	 eax, eax
  00059	5b		 pop	 ebx
  0005a	8b e5		 mov	 esp, ebp
  0005c	5d		 pop	 ebp
  0005d	c2 14 00	 ret	 20			; 00000014H
?OnMouseMove@CObjectAddInImp@@UAEHPAUHDC__@@IAAUtagPOINT@@KQAUHBITMAP__@@@Z ENDP ; CObjectAddInImp::OnMouseMove
_TEXT	ENDS
; Function compile flags: /Ogtp
; File D:\git\src\IBK\IBK_DRFN\ProjSrc\SrcChartEx\ChartOCX\AddInManager\ChartCommonAddIn\ObjectAddInImp.cpp
;	COMDAT ?OnKeyDown@CObjectAddInImp@@UAEHIII@Z
_TEXT	SEGMENT
_nChar$ = 8						; size = 4
_nRepCnt$ = 12						; size = 4
_nFlags$ = 16						; size = 4
?OnKeyDown@CObjectAddInImp@@UAEHIII@Z PROC		; CObjectAddInImp::OnKeyDown, COMDAT
; _this$ = ecx

; 397  : {

  00000	55		 push	 ebp
  00001	8b ec		 mov	 ebp, esp
  00003	56		 push	 esi
  00004	57		 push	 edi
  00005	8b f9		 mov	 edi, ecx

; 398  : 	// (2006/10/26 - Seung-Won, Bae) Deny in DesignTime.
; 399  : 	if( !m_pIChartOCX->IsRuntimeMode()) return FALSE;

  00007	8b 4f 04	 mov	 ecx, DWORD PTR [edi+4]
  0000a	8b 01		 mov	 eax, DWORD PTR [ecx]
  0000c	ff 90 98 00 00
	00		 call	 DWORD PTR [eax+152]
  00012	85 c0		 test	 eax, eax
  00014	74 2d		 je	 SHORT $LN3@OnKeyDown

; 400  : 
; 401  : 	// (2006/1/22 - Seung-Won, Bae) Delete Selected Object
; 402  : 	if( VK_DELETE == nChar && m_pBlockTool) return m_pBlockTool->OnMenu( m_pIChartManager->GetObjectAddress(), CMenuType::MENU_DELETE, TRUE);

  00016	83 7d 08 2e	 cmp	 DWORD PTR _nChar$[ebp], 46 ; 0000002eH
  0001a	75 27		 jne	 SHORT $LN3@OnKeyDown
  0001c	8b 77 3c	 mov	 esi, DWORD PTR [edi+60]
  0001f	85 f6		 test	 esi, esi
  00021	74 20		 je	 SHORT $LN3@OnKeyDown
  00023	8b 4f 1c	 mov	 ecx, DWORD PTR [edi+28]
  00026	8b 36		 mov	 esi, DWORD PTR [esi]
  00028	6a 01		 push	 1
  0002a	6a 00		 push	 0
  0002c	8b 01		 mov	 eax, DWORD PTR [ecx]
  0002e	ff 50 14	 call	 DWORD PTR [eax+20]
  00031	8b 4f 3c	 mov	 ecx, DWORD PTR [edi+60]
  00034	50		 push	 eax
  00035	8b 46 2c	 mov	 eax, DWORD PTR [esi+44]
  00038	ff d0		 call	 eax
  0003a	5f		 pop	 edi
  0003b	0f b6 c0	 movzx	 eax, al

; 404  : }

  0003e	5e		 pop	 esi
  0003f	5d		 pop	 ebp
  00040	c2 0c 00	 ret	 12			; 0000000cH
$LN3@OnKeyDown:
  00043	5f		 pop	 edi

; 403  : 	return FALSE;

  00044	33 c0		 xor	 eax, eax

; 404  : }

  00046	5e		 pop	 esi
  00047	5d		 pop	 ebp
  00048	c2 0c 00	 ret	 12			; 0000000cH
?OnKeyDown@CObjectAddInImp@@UAEHIII@Z ENDP		; CObjectAddInImp::OnKeyDown
_TEXT	ENDS
; Function compile flags: /Ogtp
; File D:\git\src\IBK\IBK_DRFN\ProjSrc\SrcChartEx\ChartOCX\AddInManager\ChartCommonAddIn\ObjectAddInImp.cpp
; File C:\Program Files (x86)\Microsoft Visual Studio\2019\Community\VC\Tools\MSVC\14.29.30133\atlmfc\include\afxcoll.inl
; File D:\git\src\IBK\IBK_DRFN\ProjSrc\SrcChartEx\ChartOCX\AddInManager\ChartCommonAddIn\ObjectAddInImp.cpp
;	COMDAT ?OnAddInToolCommand@CObjectAddInImp@@MAEHAAJW4EAICommandType@@PBD@Z
_TEXT	SEGMENT
_p_lResult$ = 8						; size = 4
tv67 = 12						; size = 4
_p_eCommandID$ = 12					; size = 4
_p_szParam$ = 16					; size = 4
?OnAddInToolCommand@CObjectAddInImp@@MAEHAAJW4EAICommandType@@PBD@Z PROC ; CObjectAddInImp::OnAddInToolCommand, COMDAT
; _this$ = ecx

; 367  : {

  00000	55		 push	 ebp
  00001	8b ec		 mov	 ebp, esp

; 368  : 	if( EAI_USER_CHANGE_TIMEDIFF == p_eCommandID)		//      Index .

  00003	83 7d 0c 3d	 cmp	 DWORD PTR _p_eCommandID$[ebp], 61 ; 0000003dH
  00007	56		 push	 esi
  00008	8b f1		 mov	 esi, ecx
  0000a	75 7c		 jne	 SHORT $LN4@OnAddInToo

; 369  : 	{
; 370  : 		if( strlen(p_szParam) == 0 )		

  0000c	53		 push	 ebx
  0000d	8b 5d 10	 mov	 ebx, DWORD PTR _p_szParam$[ebp]
  00010	8b d3		 mov	 edx, ebx
  00012	8d 4a 01	 lea	 ecx, DWORD PTR [edx+1]
$LL19@OnAddInToo:
  00015	8a 02		 mov	 al, BYTE PTR [edx]
  00017	42		 inc	 edx
  00018	84 c0		 test	 al, al
  0001a	75 f9		 jne	 SHORT $LL19@OnAddInToo
  0001c	2b d1		 sub	 edx, ecx
  0001e	75 14		 jne	 SHORT $LN5@OnAddInToo

; 371  : 		{
; 372  : 			p_lResult = -1;

  00020	8b 45 08	 mov	 eax, DWORD PTR _p_lResult$[ebp]
  00023	c7 00 ff ff ff
	ff		 mov	 DWORD PTR [eax], -1
$LN18@OnAddInToo:

; 373  : 			return TRUE;

  00029	5b		 pop	 ebx
  0002a	b8 01 00 00 00	 mov	 eax, 1
  0002f	5e		 pop	 esi

; 394  : }

  00030	5d		 pop	 ebp
  00031	c2 0c 00	 ret	 12			; 0000000cH
$LN5@OnAddInToo:

; 374  : 		}
; 375  : 
; 376  : 		if( !m_bReadInfo )			LoadTimeDiffConf();

  00034	80 7e 5c 00	 cmp	 BYTE PTR [esi+92], 0
  00038	75 08		 jne	 SHORT $LN6@OnAddInToo
  0003a	8d 4e f8	 lea	 ecx, DWORD PTR [esi-8]
  0003d	e8 00 00 00 00	 call	 ?LoadTimeDiffConf@CObjectAddInImp@@IAEXXZ ; CObjectAddInImp::LoadTimeDiffConf
$LN6@OnAddInToo:

; 377  : 
; 378  : 		CTimeDiffInfo *pTimeInfo;
; 379  : 		POSITION pos = m_lstTimeDiffInfo.GetHeadPosition();

  00042	8b 76 44	 mov	 esi, DWORD PTR [esi+68]

; 380  : 		while(pos)

  00045	85 f6		 test	 esi, esi
  00047	74 e0		 je	 SHORT $LN18@OnAddInToo
  00049	57		 push	 edi
  0004a	66 0f 1f 44 00
	00		 npad	 6
$LL2@OnAddInToo:

; 381  : 		{
; 382  : 			pTimeInfo = (CTimeDiffInfo *)m_lstTimeDiffInfo.GetNext(pos);

  00050	8b 7e 08	 mov	 edi, DWORD PTR [esi+8]
; File C:\Program Files (x86)\Microsoft Visual Studio\2019\Community\VC\Tools\MSVC\14.29.30133\atlmfc\include\afxcoll.inl

; 359  : 		rPosition = (POSITION) pNode->pNext;

  00053	8b 36		 mov	 esi, DWORD PTR [esi]
; File D:\git\src\IBK\IBK_DRFN\ProjSrc\SrcChartEx\ChartOCX\AddInManager\ChartCommonAddIn\ObjectAddInImp.cpp

; 383  : 			if( pTimeInfo && pTimeInfo->m_strName.CollateNoCase(p_szParam) == 0 )

  00055	85 ff		 test	 edi, edi
  00057	74 0e		 je	 SHORT $LN7@OnAddInToo
  00059	53		 push	 ebx
  0005a	8d 4f 04	 lea	 ecx, DWORD PTR [edi+4]
  0005d	ff 15 00 00 00
	00		 call	 DWORD PTR __imp_?CollateNoCase@?$CStringT@DV?$StrTraitMFC_DLL@DV?$ChTraitsCRT@D@ATL@@@@@ATL@@QBEHPBD@Z
  00063	85 c0		 test	 eax, eax
  00065	74 0e		 je	 SHORT $LN15@OnAddInToo
$LN7@OnAddInToo:

; 380  : 		while(pos)

  00067	85 f6		 test	 esi, esi
  00069	75 e5		 jne	 SHORT $LL2@OnAddInToo

; 373  : 			return TRUE;

  0006b	5f		 pop	 edi
  0006c	5b		 pop	 ebx
  0006d	8d 46 01	 lea	 eax, DWORD PTR [esi+1]
  00070	5e		 pop	 esi

; 394  : }

  00071	5d		 pop	 ebp
  00072	c2 0c 00	 ret	 12			; 0000000cH
$LN15@OnAddInToo:

; 384  : 			{
; 385  : 				p_lResult = pTimeInfo->m_nIndex;

  00075	8b 45 08	 mov	 eax, DWORD PTR _p_lResult$[ebp]
  00078	8b 0f		 mov	 ecx, DWORD PTR [edi]
  0007a	5f		 pop	 edi
  0007b	5b		 pop	 ebx
  0007c	89 08		 mov	 DWORD PTR [eax], ecx
  0007e	b8 01 00 00 00	 mov	 eax, 1
  00083	5e		 pop	 esi

; 394  : }

  00084	5d		 pop	 ebp
  00085	c2 0c 00	 ret	 12			; 0000000cH
$LN4@OnAddInToo:

; 386  : 				break;
; 387  : 			}
; 388  : 		}
; 389  : 		return TRUE;
; 390  : 	}
; 391  : 
; 392  : 	// return FALSE to pass the Event to a next AddIn Routine.
; 393  : 	return FALSE;

  00088	33 c0		 xor	 eax, eax
  0008a	5e		 pop	 esi

; 394  : }

  0008b	5d		 pop	 ebp
  0008c	c2 0c 00	 ret	 12			; 0000000cH
?OnAddInToolCommand@CObjectAddInImp@@MAEHAAJW4EAICommandType@@PBD@Z ENDP ; CObjectAddInImp::OnAddInToolCommand
_TEXT	ENDS
; Function compile flags: /Ogtp
; File D:\git\src\IBK\IBK_DRFN\ProjSrc\SrcChartEx\ChartOCX\AddInManager\ChartCommonAddIn\ObjectAddInImp.cpp
; File C:\Program Files (x86)\Microsoft Visual Studio\2019\Community\VC\Tools\MSVC\14.29.30133\atlmfc\include\afxcoll.inl
; File D:\git\src\IBK\IBK_DRFN\ProjSrc\SrcChartEx\ChartOCX\AddInManager\ChartCommonAddIn\ObjectAddInImp.cpp
;	COMDAT ?OnAddInToolCommand@CObjectAddInImp@@MAEHAAJW4EAICommandType@@JJ@Z
_TEXT	SEGMENT
_p_lResult$ = 8						; size = 4
_p_eCommandID$ = 12					; size = 4
_p_lParam1$ = 16					; size = 4
_p_lParam2$ = 20					; size = 4
?OnAddInToolCommand@CObjectAddInImp@@MAEHAAJW4EAICommandType@@JJ@Z PROC ; CObjectAddInImp::OnAddInToolCommand, COMDAT
; _this$ = ecx

; 332  : {

  00000	55		 push	 ebp
  00001	8b ec		 mov	 ebp, esp

; 333  : 	if( EAI_BAS_OCXELEMENTMENU == p_eCommandID && m_pBlockTool) return m_pBlockTool->OnMenu( m_pIChartManager->GetObjectAddress(), ( CMenuType::ELEMENTMENU)p_lParam1, p_lParam2);

  00003	8b 45 0c	 mov	 eax, DWORD PTR _p_eCommandID$[ebp]
  00006	56		 push	 esi
  00007	57		 push	 edi
  00008	8b f9		 mov	 edi, ecx
  0000a	83 f8 02	 cmp	 eax, 2
  0000d	75 2d		 jne	 SHORT $LN4@OnAddInToo
  0000f	8b 77 3c	 mov	 esi, DWORD PTR [edi+60]
  00012	85 f6		 test	 esi, esi
  00014	0f 84 83 00 00
	00		 je	 $LN6@OnAddInToo
  0001a	8b 4f 1c	 mov	 ecx, DWORD PTR [edi+28]
  0001d	ff 75 14	 push	 DWORD PTR _p_lParam2$[ebp]
  00020	8b 36		 mov	 esi, DWORD PTR [esi]
  00022	ff 75 10	 push	 DWORD PTR _p_lParam1$[ebp]
  00025	8b 01		 mov	 eax, DWORD PTR [ecx]
  00027	ff 50 14	 call	 DWORD PTR [eax+20]
  0002a	8b 4f 3c	 mov	 ecx, DWORD PTR [edi+60]
  0002d	50		 push	 eax
  0002e	8b 46 2c	 mov	 eax, DWORD PTR [esi+44]
  00031	ff d0		 call	 eax
  00033	5f		 pop	 edi
  00034	0f b6 c0	 movzx	 eax, al

; 364  : }

  00037	5e		 pop	 esi
  00038	5d		 pop	 ebp
  00039	c2 10 00	 ret	 16			; 00000010H
$LN4@OnAddInToo:

; 334  : 
; 335  : 	// 20081007 JS.Kim	 .	//   Index  CTimeDiffInfo pointer 
; 336  : 	else if( EAI_USER_CHANGE_TIMEDIFF == p_eCommandID)

  0003c	83 f8 3d	 cmp	 eax, 61			; 0000003dH
  0003f	75 5c		 jne	 SHORT $LN6@OnAddInToo

; 337  : 	{
; 338  : 		const int nID = (const int)p_lParam1;
; 339  : 		if( nID < 0 )

  00041	8b 75 10	 mov	 esi, DWORD PTR _p_lParam1$[ebp]
  00044	85 f6		 test	 esi, esi
  00046	79 14		 jns	 SHORT $LN7@OnAddInToo

; 340  : 		{
; 341  : 			p_lResult = 0;

  00048	8b 45 08	 mov	 eax, DWORD PTR _p_lResult$[ebp]
  0004b	5f		 pop	 edi

; 364  : }

  0004c	5e		 pop	 esi
  0004d	c7 00 00 00 00
	00		 mov	 DWORD PTR [eax], 0
  00053	b8 01 00 00 00	 mov	 eax, 1
  00058	5d		 pop	 ebp
  00059	c2 10 00	 ret	 16			; 00000010H
$LN7@OnAddInToo:

; 342  : 		}
; 343  : 		else
; 344  : 		{
; 345  : 			if( !m_bReadInfo )			LoadTimeDiffConf();

  0005c	80 7f 5c 00	 cmp	 BYTE PTR [edi+92], 0
  00060	75 08		 jne	 SHORT $LN9@OnAddInToo
  00062	8d 4f f8	 lea	 ecx, DWORD PTR [edi-8]
  00065	e8 00 00 00 00	 call	 ?LoadTimeDiffConf@CObjectAddInImp@@IAEXXZ ; CObjectAddInImp::LoadTimeDiffConf
$LN9@OnAddInToo:

; 346  : 
; 347  : 			CTimeDiffInfo *pTimeInfo;
; 348  : 			POSITION pos = m_lstTimeDiffInfo.GetHeadPosition();

  0006a	8b 47 44	 mov	 eax, DWORD PTR [edi+68]

; 349  : 			while(pos)

  0006d	85 c0		 test	 eax, eax
  0006f	74 21		 je	 SHORT $LN21@OnAddInToo
$LL2@OnAddInToo:

; 350  : 			{
; 351  : 				pTimeInfo = (CTimeDiffInfo *)m_lstTimeDiffInfo.GetNext(pos);

  00071	8b 48 08	 mov	 ecx, DWORD PTR [eax+8]
; File C:\Program Files (x86)\Microsoft Visual Studio\2019\Community\VC\Tools\MSVC\14.29.30133\atlmfc\include\afxcoll.inl

; 359  : 		rPosition = (POSITION) pNode->pNext;

  00074	8b 00		 mov	 eax, DWORD PTR [eax]
; File D:\git\src\IBK\IBK_DRFN\ProjSrc\SrcChartEx\ChartOCX\AddInManager\ChartCommonAddIn\ObjectAddInImp.cpp

; 352  : 				if( pTimeInfo && pTimeInfo->m_nIndex == nID )

  00076	85 c9		 test	 ecx, ecx
  00078	74 04		 je	 SHORT $LN10@OnAddInToo
  0007a	39 31		 cmp	 DWORD PTR [ecx], esi
  0007c	74 0f		 je	 SHORT $LN18@OnAddInToo
$LN10@OnAddInToo:

; 349  : 			while(pos)

  0007e	85 c0		 test	 eax, eax
  00080	75 ef		 jne	 SHORT $LL2@OnAddInToo

; 355  : 					break;
; 356  : 				}
; 357  : 			}
; 358  : 		}
; 359  : 		return TRUE;

  00082	5f		 pop	 edi
  00083	b8 01 00 00 00	 mov	 eax, 1

; 364  : }

  00088	5e		 pop	 esi
  00089	5d		 pop	 ebp
  0008a	c2 10 00	 ret	 16			; 00000010H
$LN18@OnAddInToo:

; 353  : 				{
; 354  : 					p_lResult = (long)pTimeInfo;

  0008d	8b 45 08	 mov	 eax, DWORD PTR _p_lResult$[ebp]
  00090	89 08		 mov	 DWORD PTR [eax], ecx
$LN21@OnAddInToo:

; 355  : 					break;
; 356  : 				}
; 357  : 			}
; 358  : 		}
; 359  : 		return TRUE;

  00092	5f		 pop	 edi
  00093	b8 01 00 00 00	 mov	 eax, 1

; 364  : }

  00098	5e		 pop	 esi
  00099	5d		 pop	 ebp
  0009a	c2 10 00	 ret	 16			; 00000010H
$LN6@OnAddInToo:
  0009d	5f		 pop	 edi

; 360  : 	}
; 361  : 	
; 362  : 	// return FALSE to pass the Event to a next AddIn Routine.
; 363  : 	return FALSE;

  0009e	33 c0		 xor	 eax, eax

; 364  : }

  000a0	5e		 pop	 esi
  000a1	5d		 pop	 ebp
  000a2	c2 10 00	 ret	 16			; 00000010H
?OnAddInToolCommand@CObjectAddInImp@@MAEHAAJW4EAICommandType@@JJ@Z ENDP ; CObjectAddInImp::OnAddInToolCommand
_TEXT	ENDS
; Function compile flags: /Ogtp
; File D:\git\src\IBK\IBK_DRFN\ProjSrc\SrcChartEx\ChartOCX\AddInManager\ChartCommonAddIn\ObjectAddInImp.cpp
;	COMDAT ?OnAddInToolCommand@CObjectAddInImp@@MAEHW4EAICommandType@@JJJJJJJJJ@Z
_TEXT	SEGMENT
_p_eCommandID$ = 8					; size = 4
_p_lParam1$ = 12					; size = 4
_p_lParam2$ = 16					; size = 4
_p_lParam3$ = 20					; size = 4
_p_lParam4$ = 24					; size = 4
_p_lParam5$ = 28					; size = 4
_p_lParam6$ = 32					; size = 4
_p_lParam7$ = 36					; size = 4
_p_lParam8$ = 40					; size = 4
_p_lParam9$ = 44					; size = 4
?OnAddInToolCommand@CObjectAddInImp@@MAEHW4EAICommandType@@JJJJJJJJJ@Z PROC ; CObjectAddInImp::OnAddInToolCommand, COMDAT
; _this$ = ecx

; 312  : {

  00000	55		 push	 ebp
  00001	8b ec		 mov	 ebp, esp

; 313  : 	if( EAI_OBJECT_SET_USING_TOOL2 == p_eCommandID)

  00003	83 7d 08 07	 cmp	 DWORD PTR _p_eCommandID$[ebp], 7
  00007	75 76		 jne	 SHORT $LN2@OnAddInToo

; 314  : 	{
; 315  : 		if( m_pBlockTool) m_pBlockTool->SetUsingTool(	( 0 == p_lParam1 ? false : true),

  00009	8b 49 3c	 mov	 ecx, DWORD PTR [ecx+60]
  0000c	85 c9		 test	 ecx, ecx
  0000e	74 66		 je	 SHORT $LN3@OnAddInToo
  00010	83 7d 2c 00	 cmp	 DWORD PTR _p_lParam9$[ebp], 0
  00014	8b 11		 mov	 edx, DWORD PTR [ecx]
  00016	0f 95 c0	 setne	 al
  00019	83 7d 28 00	 cmp	 DWORD PTR _p_lParam8$[ebp], 0
  0001d	50		 push	 eax
  0001e	50		 push	 eax
  0001f	0f 95 c0	 setne	 al
  00022	83 7d 24 00	 cmp	 DWORD PTR _p_lParam7$[ebp], 0
  00026	0f b6 c0	 movzx	 eax, al
  00029	50		 push	 eax
  0002a	0f 95 c0	 setne	 al
  0002d	83 7d 20 00	 cmp	 DWORD PTR _p_lParam6$[ebp], 0
  00031	0f b6 c0	 movzx	 eax, al
  00034	50		 push	 eax
  00035	0f 95 c0	 setne	 al
  00038	83 7d 1c 00	 cmp	 DWORD PTR _p_lParam5$[ebp], 0
  0003c	0f b6 c0	 movzx	 eax, al
  0003f	50		 push	 eax
  00040	0f 95 c0	 setne	 al
  00043	83 7d 18 00	 cmp	 DWORD PTR _p_lParam4$[ebp], 0
  00047	0f b6 c0	 movzx	 eax, al
  0004a	50		 push	 eax
  0004b	0f 95 c0	 setne	 al
  0004e	83 7d 14 00	 cmp	 DWORD PTR _p_lParam3$[ebp], 0
  00052	0f b6 c0	 movzx	 eax, al
  00055	50		 push	 eax
  00056	0f 95 c0	 setne	 al
  00059	83 7d 10 00	 cmp	 DWORD PTR _p_lParam2$[ebp], 0
  0005d	0f b6 c0	 movzx	 eax, al
  00060	50		 push	 eax
  00061	0f 95 c0	 setne	 al
  00064	83 7d 0c 00	 cmp	 DWORD PTR _p_lParam1$[ebp], 0
  00068	0f b6 c0	 movzx	 eax, al
  0006b	50		 push	 eax
  0006c	0f 95 c0	 setne	 al
  0006f	0f b6 c0	 movzx	 eax, al
  00072	50		 push	 eax
  00073	ff 52 0c	 call	 DWORD PTR [edx+12]
$LN3@OnAddInToo:

; 316  : 									( 0 == p_lParam2 ? false : true),
; 317  : 									( 0 == p_lParam3 ? false : true),
; 318  : 									( 0 == p_lParam4 ? false : true),
; 319  : 									( 0 == p_lParam5 ? false : true),
; 320  : 									( 0 == p_lParam6 ? false : true),
; 321  : 									( 0 == p_lParam7 ? false : true),
; 322  : 									( 0 == p_lParam8 ? false : true),
; 323  : 									( 0 == p_lParam9 ? false : true),
; 324  : 									( 0 == p_lParam9 ? false : true));	//    - ojtaso (20080519)
; 325  : 		return TRUE;

  00076	b8 01 00 00 00	 mov	 eax, 1

; 329  : }

  0007b	5d		 pop	 ebp
  0007c	c2 28 00	 ret	 40			; 00000028H
$LN2@OnAddInToo:

; 326  : 	}
; 327  : 	// return FALSE to pass the Event to a next AddIn Routine.
; 328  : 	return FALSE;

  0007f	33 c0		 xor	 eax, eax

; 329  : }

  00081	5d		 pop	 ebp
  00082	c2 28 00	 ret	 40			; 00000028H
?OnAddInToolCommand@CObjectAddInImp@@MAEHW4EAICommandType@@JJJJJJJJJ@Z ENDP ; CObjectAddInImp::OnAddInToolCommand
_TEXT	ENDS
; Function compile flags: /Ogtp
; File D:\git\src\IBK\IBK_DRFN\ProjSrc\SrcChartEx\ChartOCX\AddInManager\ChartCommonAddIn\ObjectAddInImp.cpp
;	COMDAT ?OnAddInToolCommand@CObjectAddInImp@@MAEHW4EAICommandType@@JJ@Z
_TEXT	SEGMENT
_p_eCommandID$ = 8					; size = 4
_p_lParam1$ = 12					; size = 4
_p_lParam2$ = 16					; size = 4
?OnAddInToolCommand@CObjectAddInImp@@MAEHW4EAICommandType@@JJ@Z PROC ; CObjectAddInImp::OnAddInToolCommand, COMDAT
; _this$ = ecx

; 301  : {

  00000	55		 push	 ebp
  00001	8b ec		 mov	 ebp, esp

; 302  : 	if( EAI_OBJECT_SET_USING_TOOL1 == p_eCommandID)

  00003	83 7d 08 06	 cmp	 DWORD PTR _p_eCommandID$[ebp], 6
  00007	75 23		 jne	 SHORT $LN2@OnAddInToo

; 303  : 	{
; 304  : 		if( m_pBlockTool) m_pBlockTool->SetUsingTool( ( CBlockBaseData::TOOLTYPE)p_lParam1, ( 0 == p_lParam2 ? false : true));

  00009	8b 49 3c	 mov	 ecx, DWORD PTR [ecx+60]
  0000c	85 c9		 test	 ecx, ecx
  0000e	74 13		 je	 SHORT $LN3@OnAddInToo
  00010	83 7d 10 00	 cmp	 DWORD PTR _p_lParam2$[ebp], 0
  00014	8b 11		 mov	 edx, DWORD PTR [ecx]
  00016	0f 95 c0	 setne	 al
  00019	0f b6 c0	 movzx	 eax, al
  0001c	50		 push	 eax
  0001d	ff 75 0c	 push	 DWORD PTR _p_lParam1$[ebp]
  00020	ff 52 08	 call	 DWORD PTR [edx+8]
$LN3@OnAddInToo:

; 305  : 		return TRUE;

  00023	b8 01 00 00 00	 mov	 eax, 1

; 309  : }

  00028	5d		 pop	 ebp
  00029	c2 0c 00	 ret	 12			; 0000000cH
$LN2@OnAddInToo:

; 306  : 	}
; 307  : 	// return FALSE to pass the Event to a next AddIn Routine.
; 308  : 	return FALSE;

  0002c	33 c0		 xor	 eax, eax

; 309  : }

  0002e	5d		 pop	 ebp
  0002f	c2 0c 00	 ret	 12			; 0000000cH
?OnAddInToolCommand@CObjectAddInImp@@MAEHW4EAICommandType@@JJ@Z ENDP ; CObjectAddInImp::OnAddInToolCommand
_TEXT	ENDS
; Function compile flags: /Ogtp
; File D:\git\src\IBK\IBK_DRFN\ProjSrc\SrcChartEx\ChartOCX\AddInManager\ChartCommonAddIn\ObjectAddInImp.cpp
;	COMDAT ?OnAddInToolCommand@CObjectAddInImp@@MAEHW4EAICommandType@@PBUIAddInDllBase@@@Z
_TEXT	SEGMENT
_p_eCommandID$ = 8					; size = 4
_p_pParam$ = 12						; size = 4
?OnAddInToolCommand@CObjectAddInImp@@MAEHW4EAICommandType@@PBUIAddInDllBase@@@Z PROC ; CObjectAddInImp::OnAddInToolCommand, COMDAT
; _this$ = ecx

; 293  : {

  00000	55		 push	 ebp
  00001	8b ec		 mov	 ebp, esp

; 294  : 	if( EAI_ALL_RELEASE_SELECTION_EXCEPT_ONE == p_eCommandID && p_pParam != m_pIAddInDllBase && m_pBlockTool)

  00003	83 7d 08 1c	 cmp	 DWORD PTR _p_eCommandID$[ebp], 28 ; 0000001cH
  00007	75 14		 jne	 SHORT $LN4@OnAddInToo
  00009	8b 45 0c	 mov	 eax, DWORD PTR _p_pParam$[ebp]
  0000c	3b 41 10	 cmp	 eax, DWORD PTR [ecx+16]
  0000f	74 0c		 je	 SHORT $LN4@OnAddInToo
  00011	8b 49 3c	 mov	 ecx, DWORD PTR [ecx+60]
  00014	85 c9		 test	 ecx, ecx
  00016	74 05		 je	 SHORT $LN4@OnAddInToo

; 295  : 			m_pBlockTool->ResetCurrentTool();

  00018	8b 01		 mov	 eax, DWORD PTR [ecx]
  0001a	ff 50 10	 call	 DWORD PTR [eax+16]
$LN4@OnAddInToo:

; 296  : 
; 297  : 	return FALSE;
; 298  : }

  0001d	33 c0		 xor	 eax, eax
  0001f	5d		 pop	 ebp
  00020	c2 08 00	 ret	 8
?OnAddInToolCommand@CObjectAddInImp@@MAEHW4EAICommandType@@PBUIAddInDllBase@@@Z ENDP ; CObjectAddInImp::OnAddInToolCommand
_TEXT	ENDS
; Function compile flags: /Ogtp
; File D:\git\src\IBK\IBK_DRFN\ProjSrc\SrcChartEx\ChartOCX\AddInManager\ChartCommonAddIn\ObjectAddInImp.cpp
;	COMDAT ?OnCmdMsg@CObjectAddInImp@@MAEHIHPAUICmdUI000000@@@Z
_TEXT	SEGMENT
_nID$ = 8						; size = 4
_nCode$ = 12						; size = 4
_p_pICmdUI$ = 16					; size = 4
?OnCmdMsg@CObjectAddInImp@@MAEHIHPAUICmdUI000000@@@Z PROC ; CObjectAddInImp::OnCmdMsg, COMDAT
; _this$ = ecx

; 183  : {

  00000	55		 push	 ebp
  00001	8b ec		 mov	 ebp, esp

; 184  : 	if( CN_UPDATE_COMMAND_UI == nCode)

  00003	8b 45 0c	 mov	 eax, DWORD PTR _nCode$[ebp]
  00006	53		 push	 ebx
  00007	8b d9		 mov	 ebx, ecx
  00009	56		 push	 esi
  0000a	57		 push	 edi
  0000b	83 f8 ff	 cmp	 eax, -1
  0000e	0f 85 b6 01 00
	00		 jne	 $LN6@OnCmdMsg

; 185  : 	{
; 186  : 		switch( nID)

  00014	8b 75 08	 mov	 esi, DWORD PTR _nID$[ebp]
  00017	81 fe 41 9c 00
	00		 cmp	 esi, 40001		; 00009c41H
  0001d	0f 87 96 00 00
	00		 ja	 $LN49@OnCmdMsg
  00023	74 68		 je	 SHORT $LN7@OnCmdMsg
  00025	81 fe 04 80 00
	00		 cmp	 esi, 32772		; 00008004H
  0002b	0f 85 ad 03 00
	00		 jne	 $LN25@OnCmdMsg

; 191  : 				break;
; 192  : 
; 193  : 			// (2009/6/5 - Seung-Won, Bae) Support invert on only complex r-button menu type.
; 194  : 			case ID_COA_INVERT:		//   - ojtaso (20071023)
; 195  : 				if( m_pBlockTool && p_pICmdUI)

  00031	8b 73 3c	 mov	 esi, DWORD PTR [ebx+60]
  00034	85 f6		 test	 esi, esi
  00036	0f 84 96 03 00
	00		 je	 $LN45@OnCmdMsg
  0003c	8b 45 10	 mov	 eax, DWORD PTR _p_pICmdUI$[ebp]
  0003f	85 c0		 test	 eax, eax
  00041	0f 84 8b 03 00
	00		 je	 $LN45@OnCmdMsg

; 196  : 				{
; 197  : 					p_pICmdUI->SetCheck( m_pBlockTool->GetMenuCheck( m_pIChartManager->GetObjectAddress(), CMenuType::MENU_INVERTSCALE,				TRUE));

  00047	8b 4b 1c	 mov	 ecx, DWORD PTR [ebx+28]
  0004a	8b 38		 mov	 edi, DWORD PTR [eax]
  0004c	8b 36		 mov	 esi, DWORD PTR [esi]
  0004e	6a 01		 push	 1
  00050	8b 01		 mov	 eax, DWORD PTR [ecx]
  00052	6a 08		 push	 8
  00054	ff 50 14	 call	 DWORD PTR [eax+20]
  00057	8b 4b 3c	 mov	 ecx, DWORD PTR [ebx+60]
  0005a	50		 push	 eax
  0005b	8b 46 30	 mov	 eax, DWORD PTR [esi+48]
  0005e	ff d0		 call	 eax
  00060	8b 75 10	 mov	 esi, DWORD PTR _p_pICmdUI$[ebp]
  00063	8b ce		 mov	 ecx, esi
  00065	0f b6 c0	 movzx	 eax, al
  00068	50		 push	 eax
  00069	ff 57 14	 call	 DWORD PTR [edi+20]

; 198  : 					p_pICmdUI->Enable( m_pIChartOCX->GetGraphRButtonType());

  0006c	8b 4b 04	 mov	 ecx, DWORD PTR [ebx+4]
  0006f	8b 36		 mov	 esi, DWORD PTR [esi]
  00071	8b 01		 mov	 eax, DWORD PTR [ecx]
  00073	ff 90 a8 00 00
	00		 call	 DWORD PTR [eax+168]
  00079	8b 4d 10	 mov	 ecx, DWORD PTR _p_pICmdUI$[ebp]
  0007c	98		 cwde
  0007d	50		 push	 eax
  0007e	ff 56 10	 call	 DWORD PTR [esi+16]
  00081	5f		 pop	 edi

; 282  : 				}
; 283  : 				return FALSE;
; 284  : 		}
; 285  : 
; 286  : 		return TRUE;
; 287  : 	}
; 288  : 
; 289  : 	return FALSE;
; 290  : }

  00082	5e		 pop	 esi
  00083	b8 01 00 00 00	 mov	 eax, 1
  00088	5b		 pop	 ebx
  00089	5d		 pop	 ebp
  0008a	c2 0c 00	 ret	 12			; 0000000cH
$LN7@OnCmdMsg:

; 187  : 		{
; 188  : 			// (2009/6/5 - Seung-Won, Bae) Support on ENV_SETUP addin.
; 189  : 			case ID_COA_CONFIG:
; 190  : 				if( p_pICmdUI) p_pICmdUI->Enable( m_pIAddInToolMgr->IsAddInLoaded( "ChartEnvSetupDlgAddIn.dll:ENV_SETUP"));

  0008d	8b 7d 10	 mov	 edi, DWORD PTR _p_pICmdUI$[ebp]
  00090	85 ff		 test	 edi, edi
  00092	0f 84 3a 03 00
	00		 je	 $LN45@OnCmdMsg
  00098	8b 4b 24	 mov	 ecx, DWORD PTR [ebx+36]
  0009b	8b 37		 mov	 esi, DWORD PTR [edi]
  0009d	68 00 00 00 00	 push	 OFFSET ??_C@_0CE@PDPKGGGH@ChartEnvSetupDlgAddIn?4dll?3ENV_S@
  000a2	8b 01		 mov	 eax, DWORD PTR [ecx]
  000a4	ff 50 64	 call	 DWORD PTR [eax+100]
  000a7	50		 push	 eax
  000a8	8b cf		 mov	 ecx, edi
  000aa	ff 56 10	 call	 DWORD PTR [esi+16]
  000ad	5f		 pop	 edi

; 282  : 				}
; 283  : 				return FALSE;
; 284  : 		}
; 285  : 
; 286  : 		return TRUE;
; 287  : 	}
; 288  : 
; 289  : 	return FALSE;
; 290  : }

  000ae	5e		 pop	 esi
  000af	b8 01 00 00 00	 mov	 eax, 1
  000b4	5b		 pop	 ebx
  000b5	5d		 pop	 ebp
  000b6	c2 0c 00	 ret	 12			; 0000000cH
$LN49@OnCmdMsg:

; 185  : 	{
; 186  : 		switch( nID)

  000b9	81 fe 48 a3 00
	00		 cmp	 esi, 41800		; 0000a348H
  000bf	0f 87 8f 00 00
	00		 ja	 $LN62@OnCmdMsg
  000c5	74 6f		 je	 SHORT $LN14@OnCmdMsg
  000c7	81 c6 be 63 ff
	ff		 add	 esi, -40002		; ffff63beH
  000cd	83 fe 04	 cmp	 esi, 4
  000d0	0f 87 08 03 00
	00		 ja	 $LN25@OnCmdMsg
  000d6	ff 24 b5 00 00
	00 00		 jmp	 DWORD PTR $LN64@OnCmdMsg[esi*4]
$LN11@OnCmdMsg:

; 199  : 				}
; 200  : 				break;
; 201  : 
; 202  : 			// (2009/6/5 - Seung-Won, Bae) Support invert on only complex r-button menu type and on supporting mode
; 203  : 			case ID_COA_DELETE:
; 204  : 			case ID_COA_DELETE_ALL:
; 205  : 				if( p_pICmdUI) p_pICmdUI->Enable( m_pIChartOCX->GetGraphRButtonType() && m_pIChartOCX->CanGraphMoveAndDelete());

  000dd	8b 75 10	 mov	 esi, DWORD PTR _p_pICmdUI$[ebp]
  000e0	85 f6		 test	 esi, esi
  000e2	0f 84 ea 02 00
	00		 je	 $LN45@OnCmdMsg
  000e8	8b 4b 04	 mov	 ecx, DWORD PTR [ebx+4]
  000eb	8b 01		 mov	 eax, DWORD PTR [ecx]
  000ed	ff 90 a8 00 00
	00		 call	 DWORD PTR [eax+168]
  000f3	66 85 c0	 test	 ax, ax
  000f6	74 28		 je	 SHORT $LN47@OnCmdMsg
  000f8	8b 4b 04	 mov	 ecx, DWORD PTR [ebx+4]
  000fb	8b 01		 mov	 eax, DWORD PTR [ecx]
  000fd	ff 90 f8 00 00
	00		 call	 DWORD PTR [eax+248]
  00103	85 c0		 test	 eax, eax
  00105	74 19		 je	 SHORT $LN47@OnCmdMsg
  00107	8b 06		 mov	 eax, DWORD PTR [esi]
  00109	b9 01 00 00 00	 mov	 ecx, 1
  0010e	51		 push	 ecx
  0010f	8b ce		 mov	 ecx, esi
  00111	ff 50 10	 call	 DWORD PTR [eax+16]
  00114	5f		 pop	 edi

; 282  : 				}
; 283  : 				return FALSE;
; 284  : 		}
; 285  : 
; 286  : 		return TRUE;
; 287  : 	}
; 288  : 
; 289  : 	return FALSE;
; 290  : }

  00115	5e		 pop	 esi
  00116	b8 01 00 00 00	 mov	 eax, 1
  0011b	5b		 pop	 ebx
  0011c	5d		 pop	 ebp
  0011d	c2 0c 00	 ret	 12			; 0000000cH
$LN47@OnCmdMsg:

; 199  : 				}
; 200  : 				break;
; 201  : 
; 202  : 			// (2009/6/5 - Seung-Won, Bae) Support invert on only complex r-button menu type and on supporting mode
; 203  : 			case ID_COA_DELETE:
; 204  : 			case ID_COA_DELETE_ALL:
; 205  : 				if( p_pICmdUI) p_pICmdUI->Enable( m_pIChartOCX->GetGraphRButtonType() && m_pIChartOCX->CanGraphMoveAndDelete());

  00120	8b 06		 mov	 eax, DWORD PTR [esi]
  00122	33 c9		 xor	 ecx, ecx
  00124	51		 push	 ecx
  00125	8b ce		 mov	 ecx, esi
  00127	ff 50 10	 call	 DWORD PTR [eax+16]
  0012a	5f		 pop	 edi

; 282  : 				}
; 283  : 				return FALSE;
; 284  : 		}
; 285  : 
; 286  : 		return TRUE;
; 287  : 	}
; 288  : 
; 289  : 	return FALSE;
; 290  : }

  0012b	5e		 pop	 esi
  0012c	b8 01 00 00 00	 mov	 eax, 1
  00131	5b		 pop	 ebx
  00132	5d		 pop	 ebp
  00133	c2 0c 00	 ret	 12			; 0000000cH
$LN14@OnCmdMsg:

; 280  : 					}
; 281  : 					return TRUE;

  00136	8b 4d 10	 mov	 ecx, DWORD PTR _p_pICmdUI$[ebp]
  00139	85 c9		 test	 ecx, ecx
  0013b	0f 84 91 02 00
	00		 je	 $LN45@OnCmdMsg
  00141	8b 01		 mov	 eax, DWORD PTR [ecx]
  00143	6a 01		 push	 1
  00145	ff 50 10	 call	 DWORD PTR [eax+16]
  00148	5f		 pop	 edi

; 282  : 				}
; 283  : 				return FALSE;
; 284  : 		}
; 285  : 
; 286  : 		return TRUE;
; 287  : 	}
; 288  : 
; 289  : 	return FALSE;
; 290  : }

  00149	5e		 pop	 esi
  0014a	b8 01 00 00 00	 mov	 eax, 1
  0014f	5b		 pop	 ebx
  00150	5d		 pop	 ebp
  00151	c2 0c 00	 ret	 12			; 0000000cH
$LN62@OnCmdMsg:

; 206  : 				break;
; 207  : 
; 208  : 			case ID_COA_SCALE_X_SHOW:
; 209  : 			case ID_COA_SCALE_X_HIDE:
; 210  : 			// (2009/6/5 - Seung-Won, Bae) Use Other id for graph config option.
; 211  : 			case ID_COA_CONFIG_SCALE:
; 212  : 				if( p_pICmdUI) p_pICmdUI->Enable( TRUE);
; 213  : 				break;
; 214  : 
; 215  : 			// 20081007 JS.Kim	 .	        ID
; 216  : 			//default: return FALSE;
; 217  : 			case ID_COA_TIMEDIFF_0:
; 218  : 				if( p_pICmdUI) p_pICmdUI->Enable( TRUE );
; 219  : 				break;
; 220  : 			default: 
; 221  : 				if( ( unsigned int)ID_COA_TIMEDIFF_0 < nID && nID <= ( unsigned int)( ID_COA_TIMEDIFF_0 + m_nCountTimeDiff))

  00154	8b 43 60	 mov	 eax, DWORD PTR [ebx+96]
  00157	05 48 a3 00 00	 add	 eax, 41800		; 0000a348H
  0015c	3b f0		 cmp	 esi, eax
  0015e	0f 87 7a 02 00
	00		 ja	 $LN25@OnCmdMsg

; 222  : 				{
; 223  : 					if( p_pICmdUI) p_pICmdUI->Enable(TRUE);

  00164	8b 7d 10	 mov	 edi, DWORD PTR _p_pICmdUI$[ebp]
  00167	85 ff		 test	 edi, edi
  00169	74 09		 je	 SHORT $LN22@OnCmdMsg
  0016b	8b 07		 mov	 eax, DWORD PTR [edi]
  0016d	8b cf		 mov	 ecx, edi
  0016f	6a 01		 push	 1
  00171	ff 50 10	 call	 DWORD PTR [eax+16]
$LN22@OnCmdMsg:

; 224  : 					if( m_pBlockTool) 

  00174	83 7b 3c 00	 cmp	 DWORD PTR [ebx+60], 0
  00178	0f 84 54 02 00
	00		 je	 $LN45@OnCmdMsg

; 225  : 					{
; 226  : 						POSITION pos = m_lstTimeDiffInfo.FindIndex(nID-ID_COA_TIMEDIFF_0 - 1);

  0017e	8d 86 b7 5c ff
	ff		 lea	 eax, DWORD PTR [esi-41801]
  00184	50		 push	 eax
  00185	8d 4b 40	 lea	 ecx, DWORD PTR [ebx+64]
  00188	e8 00 00 00 00	 call	 ?FindIndex@CPtrList@@QBEPAU__POSITION@@H@Z ; CPtrList::FindIndex
  0018d	8b d0		 mov	 edx, eax

; 227  : 						if( pos )

  0018f	85 d2		 test	 edx, edx
  00191	0f 84 3b 02 00
	00		 je	 $LN45@OnCmdMsg

; 228  : 						{
; 229  : 							CTimeDiffInfo *pTimeInfo = (CTimeDiffInfo *)m_lstTimeDiffInfo.GetAt(pos);
; 230  : 							p_pICmdUI->SetCheck(m_pBlockTool->GetMenuCheck( m_pIChartManager->GetObjectAddress(), 

  00197	8b 43 3c	 mov	 eax, DWORD PTR [ebx+60]
  0019a	8b 4b 1c	 mov	 ecx, DWORD PTR [ebx+28]
  0019d	ff 72 08	 push	 DWORD PTR [edx+8]
  001a0	8b 3f		 mov	 edi, DWORD PTR [edi]
  001a2	8b 30		 mov	 esi, DWORD PTR [eax]
  001a4	8b 01		 mov	 eax, DWORD PTR [ecx]
  001a6	6a 0a		 push	 10			; 0000000aH
  001a8	ff 50 14	 call	 DWORD PTR [eax+20]
  001ab	8b 4b 3c	 mov	 ecx, DWORD PTR [ebx+60]
  001ae	50		 push	 eax
  001af	8b 46 30	 mov	 eax, DWORD PTR [esi+48]
  001b2	ff d0		 call	 eax
  001b4	8b 4d 10	 mov	 ecx, DWORD PTR _p_pICmdUI$[ebp]
  001b7	0f b6 c0	 movzx	 eax, al
  001ba	50		 push	 eax
  001bb	ff 57 14	 call	 DWORD PTR [edi+20]
  001be	5f		 pop	 edi

; 282  : 				}
; 283  : 				return FALSE;
; 284  : 		}
; 285  : 
; 286  : 		return TRUE;
; 287  : 	}
; 288  : 
; 289  : 	return FALSE;
; 290  : }

  001bf	5e		 pop	 esi
  001c0	b8 01 00 00 00	 mov	 eax, 1
  001c5	5b		 pop	 ebx
  001c6	5d		 pop	 ebp
  001c7	c2 0c 00	 ret	 12			; 0000000cH
$LN6@OnCmdMsg:

; 231  : 												CMenuType::MENU_TIME_DIFF, 
; 232  : 												WPARAM(pTimeInfo)));
; 233  : 						}
; 234  : 					}
; 235  : 					break;
; 236  : 				}
; 237  : 				return FALSE;
; 238  : 		}
; 239  : 		return TRUE;
; 240  : 	}
; 241  : 
; 242  : 	if( CN_COMMAND == nCode)

  001ca	85 c0		 test	 eax, eax
  001cc	0f 85 0c 02 00
	00		 jne	 $LN25@OnCmdMsg

; 243  : 	{
; 244  : 		switch( nID)

  001d2	8b 4d 08	 mov	 ecx, DWORD PTR _nID$[ebp]
  001d5	81 f9 41 9c 00
	00		 cmp	 ecx, 40001		; 00009c41H
  001db	77 3a		 ja	 SHORT $LN51@OnCmdMsg
  001dd	74 60		 je	 SHORT $LN26@OnCmdMsg
  001df	81 f9 04 80 00
	00		 cmp	 ecx, 32772		; 00008004H
  001e5	0f 85 f3 01 00
	00		 jne	 $LN25@OnCmdMsg

; 249  : 										break;
; 250  : 			//   - ojtaso (20071023)
; 251  : 			case ID_COA_INVERT:			if( m_pBlockTool) m_pBlockTool->OnMenu( m_pIChartManager->GetObjectAddress(), CMenuType::MENU_INVERTSCALE,				TRUE);

  001eb	8b 73 3c	 mov	 esi, DWORD PTR [ebx+60]
  001ee	85 f6		 test	 esi, esi
  001f0	0f 84 dc 01 00
	00		 je	 $LN45@OnCmdMsg
  001f6	8b 4b 1c	 mov	 ecx, DWORD PTR [ebx+28]
  001f9	8b 36		 mov	 esi, DWORD PTR [esi]
  001fb	6a 01		 push	 1
  001fd	6a 08		 push	 8
  001ff	8b 01		 mov	 eax, DWORD PTR [ecx]
  00201	ff 50 14	 call	 DWORD PTR [eax+20]
  00204	8b 4b 3c	 mov	 ecx, DWORD PTR [ebx+60]
  00207	50		 push	 eax
  00208	ff 56 2c	 call	 DWORD PTR [esi+44]
  0020b	5f		 pop	 edi

; 282  : 				}
; 283  : 				return FALSE;
; 284  : 		}
; 285  : 
; 286  : 		return TRUE;
; 287  : 	}
; 288  : 
; 289  : 	return FALSE;
; 290  : }

  0020c	5e		 pop	 esi
  0020d	b8 01 00 00 00	 mov	 eax, 1
  00212	5b		 pop	 ebx
  00213	5d		 pop	 ebp
  00214	c2 0c 00	 ret	 12			; 0000000cH
$LN51@OnCmdMsg:

; 243  : 	{
; 244  : 		switch( nID)

  00217	81 f9 48 a3 00
	00		 cmp	 ecx, 41800		; 0000a348H
  0021d	0f 87 41 01 00
	00		 ja	 $LN63@OnCmdMsg
  00223	0f 84 fe 00 00
	00		 je	 $LN39@OnCmdMsg
  00229	81 c1 be 63 ff
	ff		 add	 ecx, -40002		; ffff63beH
  0022f	83 f9 04	 cmp	 ecx, 4
  00232	0f 87 a6 01 00
	00		 ja	 $LN25@OnCmdMsg
  00238	ff 24 8d 00 00
	00 00		 jmp	 DWORD PTR $LN65@OnCmdMsg[ecx*4]
$LN26@OnCmdMsg:

; 245  : 		{
; 246  : 			// (2009/6/5 - Seung-Won, Bae) Use Other id for graph config option.
; 247  : 			case ID_COA_CONFIG:
; 248  : 			case ID_COA_CONFIG_SCALE:	if( m_pBlockTool) m_pBlockTool->OnMenu( m_pIChartManager->GetObjectAddress(), CMenuType::MENU_SET,					m_pIChartOCX->GetBongCountMargin());

  0023f	8b 7b 3c	 mov	 edi, DWORD PTR [ebx+60]
  00242	85 ff		 test	 edi, edi
  00244	0f 84 88 01 00
	00		 je	 $LN45@OnCmdMsg
  0024a	8b 4b 04	 mov	 ecx, DWORD PTR [ebx+4]
  0024d	8b 3f		 mov	 edi, DWORD PTR [edi]
  0024f	8b 73 1c	 mov	 esi, DWORD PTR [ebx+28]
  00252	8b 01		 mov	 eax, DWORD PTR [ecx]
  00254	ff 90 a0 00 00
	00		 call	 DWORD PTR [eax+160]
  0025a	50		 push	 eax
  0025b	8b 06		 mov	 eax, DWORD PTR [esi]
  0025d	8b ce		 mov	 ecx, esi
  0025f	6a 01		 push	 1
  00261	ff 50 14	 call	 DWORD PTR [eax+20]
  00264	8b 4b 3c	 mov	 ecx, DWORD PTR [ebx+60]
  00267	50		 push	 eax
  00268	ff 57 2c	 call	 DWORD PTR [edi+44]
  0026b	5f		 pop	 edi

; 282  : 				}
; 283  : 				return FALSE;
; 284  : 		}
; 285  : 
; 286  : 		return TRUE;
; 287  : 	}
; 288  : 
; 289  : 	return FALSE;
; 290  : }

  0026c	5e		 pop	 esi
  0026d	b8 01 00 00 00	 mov	 eax, 1
  00272	5b		 pop	 ebx
  00273	5d		 pop	 ebp
  00274	c2 0c 00	 ret	 12			; 0000000cH
$LN31@OnCmdMsg:

; 252  : 										break;
; 253  : 			case ID_COA_DELETE:			if( m_pBlockTool) m_pBlockTool->OnMenu( m_pIChartManager->GetObjectAddress(), CMenuType::MENU_DELETE,				TRUE);

  00277	8b 73 3c	 mov	 esi, DWORD PTR [ebx+60]
  0027a	85 f6		 test	 esi, esi
  0027c	0f 84 50 01 00
	00		 je	 $LN45@OnCmdMsg
  00282	8b 4b 1c	 mov	 ecx, DWORD PTR [ebx+28]
  00285	8b 36		 mov	 esi, DWORD PTR [esi]
  00287	6a 01		 push	 1
  00289	6a 00		 push	 0
  0028b	8b 01		 mov	 eax, DWORD PTR [ecx]
  0028d	ff 50 14	 call	 DWORD PTR [eax+20]
  00290	8b 4b 3c	 mov	 ecx, DWORD PTR [ebx+60]
  00293	50		 push	 eax
  00294	ff 56 2c	 call	 DWORD PTR [esi+44]
  00297	5f		 pop	 edi

; 282  : 				}
; 283  : 				return FALSE;
; 284  : 		}
; 285  : 
; 286  : 		return TRUE;
; 287  : 	}
; 288  : 
; 289  : 	return FALSE;
; 290  : }

  00298	5e		 pop	 esi
  00299	b8 01 00 00 00	 mov	 eax, 1
  0029e	5b		 pop	 ebx
  0029f	5d		 pop	 ebp
  002a0	c2 0c 00	 ret	 12			; 0000000cH
$LN33@OnCmdMsg:

; 254  : 										break;
; 255  : 			case ID_COA_DELETE_ALL:		if( m_pBlockTool) m_pBlockTool->OnMenu( m_pIChartManager->GetObjectAddress(), CMenuType::MENU_DELETE_ALL,				TRUE);

  002a3	8b 73 3c	 mov	 esi, DWORD PTR [ebx+60]
  002a6	85 f6		 test	 esi, esi
  002a8	0f 84 24 01 00
	00		 je	 $LN45@OnCmdMsg
  002ae	8b 4b 1c	 mov	 ecx, DWORD PTR [ebx+28]
  002b1	8b 36		 mov	 esi, DWORD PTR [esi]
  002b3	6a 01		 push	 1
  002b5	6a 0b		 push	 11			; 0000000bH
  002b7	8b 01		 mov	 eax, DWORD PTR [ecx]
  002b9	ff 50 14	 call	 DWORD PTR [eax+20]
  002bc	8b 4b 3c	 mov	 ecx, DWORD PTR [ebx+60]
  002bf	50		 push	 eax
  002c0	ff 56 2c	 call	 DWORD PTR [esi+44]
  002c3	5f		 pop	 edi

; 282  : 				}
; 283  : 				return FALSE;
; 284  : 		}
; 285  : 
; 286  : 		return TRUE;
; 287  : 	}
; 288  : 
; 289  : 	return FALSE;
; 290  : }

  002c4	5e		 pop	 esi
  002c5	b8 01 00 00 00	 mov	 eax, 1
  002ca	5b		 pop	 ebx
  002cb	5d		 pop	 ebp
  002cc	c2 0c 00	 ret	 12			; 0000000cH
$LN35@OnCmdMsg:

; 256  : 										break;
; 257  : 			case ID_COA_SCALE_X_SHOW:	if( m_pBlockTool) m_pBlockTool->OnMenu( m_pIChartManager->GetObjectAddress(), CMenuType::MENU_HORZSCALE_POSITION,	CScaleBaseData::HORZ_BOTTOM);

  002cf	8b 73 3c	 mov	 esi, DWORD PTR [ebx+60]
  002d2	85 f6		 test	 esi, esi
  002d4	0f 84 f8 00 00
	00		 je	 $LN45@OnCmdMsg
  002da	8b 4b 1c	 mov	 ecx, DWORD PTR [ebx+28]
  002dd	8b 36		 mov	 esi, DWORD PTR [esi]
  002df	6a 01		 push	 1
  002e1	6a 07		 push	 7
  002e3	8b 01		 mov	 eax, DWORD PTR [ecx]
  002e5	ff 50 14	 call	 DWORD PTR [eax+20]
  002e8	8b 4b 3c	 mov	 ecx, DWORD PTR [ebx+60]
  002eb	50		 push	 eax
  002ec	ff 56 2c	 call	 DWORD PTR [esi+44]
  002ef	5f		 pop	 edi

; 282  : 				}
; 283  : 				return FALSE;
; 284  : 		}
; 285  : 
; 286  : 		return TRUE;
; 287  : 	}
; 288  : 
; 289  : 	return FALSE;
; 290  : }

  002f0	5e		 pop	 esi
  002f1	b8 01 00 00 00	 mov	 eax, 1
  002f6	5b		 pop	 ebx
  002f7	5d		 pop	 ebp
  002f8	c2 0c 00	 ret	 12			; 0000000cH
$LN37@OnCmdMsg:

; 258  : 										break;
; 259  : 			case ID_COA_SCALE_X_HIDE:	if( m_pBlockTool) m_pBlockTool->OnMenu( m_pIChartManager->GetObjectAddress(), CMenuType::MENU_HORZSCALE_POSITION,	CScaleBaseData::HORZ_HIDE);

  002fb	8b 73 3c	 mov	 esi, DWORD PTR [ebx+60]
  002fe	85 f6		 test	 esi, esi
  00300	0f 84 cc 00 00
	00		 je	 $LN45@OnCmdMsg
  00306	8b 4b 1c	 mov	 ecx, DWORD PTR [ebx+28]
  00309	8b 36		 mov	 esi, DWORD PTR [esi]
  0030b	6a 03		 push	 3
  0030d	6a 07		 push	 7
  0030f	8b 01		 mov	 eax, DWORD PTR [ecx]
  00311	ff 50 14	 call	 DWORD PTR [eax+20]
  00314	8b 4b 3c	 mov	 ecx, DWORD PTR [ebx+60]
  00317	50		 push	 eax
  00318	ff 56 2c	 call	 DWORD PTR [esi+44]
  0031b	5f		 pop	 edi

; 282  : 				}
; 283  : 				return FALSE;
; 284  : 		}
; 285  : 
; 286  : 		return TRUE;
; 287  : 	}
; 288  : 
; 289  : 	return FALSE;
; 290  : }

  0031c	5e		 pop	 esi
  0031d	b8 01 00 00 00	 mov	 eax, 1
  00322	5b		 pop	 ebx
  00323	5d		 pop	 ebp
  00324	c2 0c 00	 ret	 12			; 0000000cH
$LN39@OnCmdMsg:

; 260  : 										break;
; 261  : 			// 20081007 JS.Kim	 .	        ID
; 262  : 			//default:	return FALSE;
; 263  : 			case ID_COA_TIMEDIFF_0 :
; 264  : 				m_pIAddInToolMgr->OnAddInToolCommand( EAI_USER_CHANGE_TIMEDIFF, (const char *)"", (long)0);

  00327	8b 4b 24	 mov	 ecx, DWORD PTR [ebx+36]
  0032a	6a 00		 push	 0
  0032c	68 00 00 00 00	 push	 OFFSET ??_C@_00CNPNBAHC@@
  00331	6a 3d		 push	 61			; 0000003dH
  00333	8b 01		 mov	 eax, DWORD PTR [ecx]
  00335	ff 90 a4 00 00
	00		 call	 DWORD PTR [eax+164]

; 265  : 				if( m_pBlockTool)  m_pBlockTool->OnMenu( m_pIChartManager->GetObjectAddress(), CMenuType::MENU_TIME_DIFF, NULL);

  0033b	8b 73 3c	 mov	 esi, DWORD PTR [ebx+60]
  0033e	85 f6		 test	 esi, esi
  00340	74 15		 je	 SHORT $LN40@OnCmdMsg
  00342	8b 4b 1c	 mov	 ecx, DWORD PTR [ebx+28]
  00345	8b 36		 mov	 esi, DWORD PTR [esi]
  00347	6a 00		 push	 0
  00349	6a 0a		 push	 10			; 0000000aH
  0034b	8b 01		 mov	 eax, DWORD PTR [ecx]
  0034d	ff 50 14	 call	 DWORD PTR [eax+20]
  00350	8b 4b 3c	 mov	 ecx, DWORD PTR [ebx+60]
  00353	50		 push	 eax
  00354	ff 56 2c	 call	 DWORD PTR [esi+44]
$LN40@OnCmdMsg:

; 266  : 				//     
; 267  : 				if( m_pIChartOCX ) ::SendMessage( m_pIChartOCX->GetOcxHwnd(), UDM_NOTIFY_TIMEDIFF, -1, -1);

  00357	8b 4b 04	 mov	 ecx, DWORD PTR [ebx+4]
  0035a	85 c9		 test	 ecx, ecx
  0035c	74 74		 je	 SHORT $LN45@OnCmdMsg
  0035e	6a ff		 push	 -1
  00360	6a ff		 push	 -1
  00362	eb 5d		 jmp	 SHORT $LN66@OnCmdMsg
$LN63@OnCmdMsg:

; 268  : 				break;
; 269  : 			default: 
; 270  : 				if( ( unsigned int)ID_COA_TIMEDIFF_0 < nID && nID <= ( unsigned int)( ID_COA_TIMEDIFF_0 + m_nCountTimeDiff))

  00364	8b 43 60	 mov	 eax, DWORD PTR [ebx+96]
  00367	05 48 a3 00 00	 add	 eax, 41800		; 0000a348H
  0036c	3b c8		 cmp	 ecx, eax
  0036e	77 6e		 ja	 SHORT $LN25@OnCmdMsg

; 271  : 				{
; 272  : 					POSITION pos = m_lstTimeDiffInfo.FindIndex(nID-ID_COA_TIMEDIFF_0 - 1);

  00370	8d 81 b7 5c ff
	ff		 lea	 eax, DWORD PTR [ecx-41801]
  00376	50		 push	 eax
  00377	8d 4b 40	 lea	 ecx, DWORD PTR [ebx+64]
  0037a	e8 00 00 00 00	 call	 ?FindIndex@CPtrList@@QBEPAU__POSITION@@H@Z ; CPtrList::FindIndex

; 273  : 					if( pos && m_pBlockTool )

  0037f	85 c0		 test	 eax, eax
  00381	74 4f		 je	 SHORT $LN45@OnCmdMsg
  00383	83 7b 3c 00	 cmp	 DWORD PTR [ebx+60], 0
  00387	74 49		 je	 SHORT $LN45@OnCmdMsg

; 274  : 					{
; 275  : 						CTimeDiffInfo *pTimeInfo = (CTimeDiffInfo *)m_lstTimeDiffInfo.GetAt(pos);

  00389	8b 78 08	 mov	 edi, DWORD PTR [eax+8]

; 276  : 						m_pIAddInToolMgr->OnAddInToolCommand( EAI_USER_CHANGE_TIMEDIFF, (const char *)pTimeInfo->m_strName, (long)pTimeInfo->m_nDiffTime);

  0038c	8b 4b 24	 mov	 ecx, DWORD PTR [ebx+36]
  0038f	ff 77 08	 push	 DWORD PTR [edi+8]
  00392	8b 01		 mov	 eax, DWORD PTR [ecx]
  00394	ff 77 04	 push	 DWORD PTR [edi+4]
  00397	6a 3d		 push	 61			; 0000003dH
  00399	ff 90 a4 00 00
	00		 call	 DWORD PTR [eax+164]

; 277  : 						m_pBlockTool->OnMenu( m_pIChartManager->GetObjectAddress(), CMenuType::MENU_TIME_DIFF, WPARAM(pTimeInfo));

  0039f	8b 43 3c	 mov	 eax, DWORD PTR [ebx+60]
  003a2	8b 4b 1c	 mov	 ecx, DWORD PTR [ebx+28]
  003a5	57		 push	 edi
  003a6	6a 0a		 push	 10			; 0000000aH
  003a8	8b 30		 mov	 esi, DWORD PTR [eax]
  003aa	8b 01		 mov	 eax, DWORD PTR [ecx]
  003ac	ff 50 14	 call	 DWORD PTR [eax+20]
  003af	8b 4b 3c	 mov	 ecx, DWORD PTR [ebx+60]
  003b2	50		 push	 eax
  003b3	ff 56 2c	 call	 DWORD PTR [esi+44]

; 278  : 						//     
; 279  : 						if( m_pIChartOCX ) ::SendMessage(m_pIChartOCX->GetOcxHwnd(), UDM_NOTIFY_TIMEDIFF, pTimeInfo->m_nIndex, -1);

  003b6	8b 4b 04	 mov	 ecx, DWORD PTR [ebx+4]
  003b9	85 c9		 test	 ecx, ecx
  003bb	74 15		 je	 SHORT $LN45@OnCmdMsg
  003bd	6a ff		 push	 -1
  003bf	ff 37		 push	 DWORD PTR [edi]
$LN66@OnCmdMsg:

; 280  : 					}
; 281  : 					return TRUE;

  003c1	8b 01		 mov	 eax, DWORD PTR [ecx]
  003c3	68 6b 06 00 00	 push	 1643			; 0000066bH
  003c8	ff 50 40	 call	 DWORD PTR [eax+64]
  003cb	50		 push	 eax
  003cc	ff 15 00 00 00
	00		 call	 DWORD PTR __imp__SendMessageA@16
$LN45@OnCmdMsg:

; 282  : 				}
; 283  : 				return FALSE;
; 284  : 		}
; 285  : 
; 286  : 		return TRUE;
; 287  : 	}
; 288  : 
; 289  : 	return FALSE;
; 290  : }

  003d2	5f		 pop	 edi
  003d3	5e		 pop	 esi
  003d4	b8 01 00 00 00	 mov	 eax, 1
  003d9	5b		 pop	 ebx
  003da	5d		 pop	 ebp
  003db	c2 0c 00	 ret	 12			; 0000000cH
$LN25@OnCmdMsg:
  003de	5f		 pop	 edi
  003df	5e		 pop	 esi
  003e0	33 c0		 xor	 eax, eax
  003e2	5b		 pop	 ebx
  003e3	5d		 pop	 ebp
  003e4	c2 0c 00	 ret	 12			; 0000000cH
  003e7	90		 npad	 1
$LN64@OnCmdMsg:
  003e8	00 00 00 00	 DD	 $LN11@OnCmdMsg
  003ec	00 00 00 00	 DD	 $LN14@OnCmdMsg
  003f0	00 00 00 00	 DD	 $LN14@OnCmdMsg
  003f4	00 00 00 00	 DD	 $LN14@OnCmdMsg
  003f8	00 00 00 00	 DD	 $LN11@OnCmdMsg
$LN65@OnCmdMsg:
  003fc	00 00 00 00	 DD	 $LN31@OnCmdMsg
  00400	00 00 00 00	 DD	 $LN35@OnCmdMsg
  00404	00 00 00 00	 DD	 $LN37@OnCmdMsg
  00408	00 00 00 00	 DD	 $LN26@OnCmdMsg
  0040c	00 00 00 00	 DD	 $LN33@OnCmdMsg
?OnCmdMsg@CObjectAddInImp@@MAEHIHPAUICmdUI000000@@@Z ENDP ; CObjectAddInImp::OnCmdMsg
_TEXT	ENDS
; Function compile flags: /Ogtp
; File D:\git\src\IBK\IBK_DRFN\ProjSrc\SrcChartEx\ChartOCX\AddInManager\ChartCommonAddIn\ObjectAddInImp.cpp
;	COMDAT ?OnBlockChanged@CObjectAddInImp@@MAEXW4BLOCKBEHAVIOR@CBlockBaseData@@HHHH@Z
_TEXT	SEGMENT
_p_eChangeType$ = 8					; size = 4
_p_nSourceRow$ = 12					; size = 4
_p_nSourceColumn$ = 16					; size = 4
_p_nTargetRow$ = 20					; size = 4
_p_nTargetColumn$ = 24					; size = 4
?OnBlockChanged@CObjectAddInImp@@MAEXW4BLOCKBEHAVIOR@CBlockBaseData@@HHHH@Z PROC ; CObjectAddInImp::OnBlockChanged, COMDAT
; _this$ = ecx

; 172  : {

  00000	55		 push	 ebp
  00001	8b ec		 mov	 ebp, esp

; 173  : 	if( CBlockBaseData::BLOCK_DELETE == p_eChangeType && m_pBlockTool) m_pBlockTool->ResetCurrentTool();

  00003	83 7d 08 00	 cmp	 DWORD PTR _p_eChangeType$[ebp], 0
  00007	75 0c		 jne	 SHORT $LN2@OnBlockCha
  00009	8b 49 3c	 mov	 ecx, DWORD PTR [ecx+60]
  0000c	85 c9		 test	 ecx, ecx
  0000e	74 05		 je	 SHORT $LN2@OnBlockCha
  00010	8b 01		 mov	 eax, DWORD PTR [ecx]
  00012	ff 50 10	 call	 DWORD PTR [eax+16]
$LN2@OnBlockCha:

; 174  : }

  00015	5d		 pop	 ebp
  00016	c2 14 00	 ret	 20			; 00000014H
?OnBlockChanged@CObjectAddInImp@@MAEXW4BLOCKBEHAVIOR@CBlockBaseData@@HHHH@Z ENDP ; CObjectAddInImp::OnBlockChanged
_TEXT	ENDS
; Function compile flags: /Ogtp
; File D:\git\src\IBK\IBK_DRFN\ProjSrc\SrcChartEx\ChartOCX\AddInManager\ChartCommonAddIn\ObjectAddInImp.cpp
;	COMDAT ?OnGraphDeleted@CObjectAddInImp@@MAEXPBD0@Z
_TEXT	SEGMENT
_p_szGraphName$ = 8					; size = 4
_p_szIndicatorName$ = 12				; size = 4
?OnGraphDeleted@CObjectAddInImp@@MAEXPBD0@Z PROC	; CObjectAddInImp::OnGraphDeleted, COMDAT
; _this$ = ecx

; 167  : 	if( m_pBlockTool) m_pBlockTool->ResetCurrentTool();

  00000	8b 49 3c	 mov	 ecx, DWORD PTR [ecx+60]
  00003	85 c9		 test	 ecx, ecx
  00005	74 05		 je	 SHORT $LN2@OnGraphDel
  00007	8b 01		 mov	 eax, DWORD PTR [ecx]
  00009	ff 50 10	 call	 DWORD PTR [eax+16]
$LN2@OnGraphDel:

; 168  : }

  0000c	c2 08 00	 ret	 8
?OnGraphDeleted@CObjectAddInImp@@MAEXPBD0@Z ENDP	; CObjectAddInImp::OnGraphDeleted
_TEXT	ENDS
; Function compile flags: /Ogtp
; File D:\git\src\IBK\IBK_DRFN\ProjSrc\SrcChartEx\ChartOCX\AddInManager\ChartCommonAddIn\ObjectAddInImp.cpp
;	COMDAT ?OnGraphAdded@CObjectAddInImp@@MAEXPBD0@Z
_TEXT	SEGMENT
_p_szGraphName$ = 8					; size = 4
_p_szIndicatorName$ = 12				; size = 4
?OnGraphAdded@CObjectAddInImp@@MAEXPBD0@Z PROC		; CObjectAddInImp::OnGraphAdded, COMDAT
; _this$ = ecx

; 161  : 	if( m_pBlockTool) m_pBlockTool->ResetCurrentTool();

  00000	8b 49 3c	 mov	 ecx, DWORD PTR [ecx+60]
  00003	85 c9		 test	 ecx, ecx
  00005	74 05		 je	 SHORT $LN2@OnGraphAdd
  00007	8b 01		 mov	 eax, DWORD PTR [ecx]
  00009	ff 50 10	 call	 DWORD PTR [eax+16]
$LN2@OnGraphAdd:

; 162  : }

  0000c	c2 08 00	 ret	 8
?OnGraphAdded@CObjectAddInImp@@MAEXPBD0@Z ENDP		; CObjectAddInImp::OnGraphAdded
_TEXT	ENDS
; Function compile flags: /Ogtp
; File D:\git\src\IBK\IBK_DRFN\ProjSrc\SrcChartEx\ChartOCX\AddInManager\ChartCommonAddIn\ObjectAddInImp.cpp
;	COMDAT ?OnBlockRemoved@CObjectAddInImp@@MAEXHH@Z
_TEXT	SEGMENT
_p_nRow$ = 8						; size = 4
_p_nColumn$ = 12					; size = 4
?OnBlockRemoved@CObjectAddInImp@@MAEXHH@Z PROC		; CObjectAddInImp::OnBlockRemoved, COMDAT
; _this$ = ecx

; 155  : 	if( m_pBlockTool) m_pBlockTool->ResetCurrentTool();

  00000	8b 49 3c	 mov	 ecx, DWORD PTR [ecx+60]
  00003	85 c9		 test	 ecx, ecx
  00005	74 05		 je	 SHORT $LN2@OnBlockRem
  00007	8b 01		 mov	 eax, DWORD PTR [ecx]
  00009	ff 50 10	 call	 DWORD PTR [eax+16]
$LN2@OnBlockRem:

; 156  : }

  0000c	c2 08 00	 ret	 8
?OnBlockRemoved@CObjectAddInImp@@MAEXHH@Z ENDP		; CObjectAddInImp::OnBlockRemoved
_TEXT	ENDS
; Function compile flags: /Ogtp
; File D:\git\src\IBK\IBK_DRFN\ProjSrc\SrcChartEx\ChartOCX\AddInManager\ChartCommonAddIn\ObjectAddInImp.cpp
;	COMDAT ?OnGraphDataChanged@CObjectAddInImp@@MAEXXZ
_TEXT	SEGMENT
?OnGraphDataChanged@CObjectAddInImp@@MAEXXZ PROC	; CObjectAddInImp::OnGraphDataChanged, COMDAT
; _this$ = ecx

; 149  : 	if( m_pBlockTool) m_pBlockTool->ResetCurrentTool();

  00000	8b 49 3c	 mov	 ecx, DWORD PTR [ecx+60]
  00003	85 c9		 test	 ecx, ecx
  00005	74 05		 je	 SHORT $LN2@OnGraphDat
  00007	8b 01		 mov	 eax, DWORD PTR [ecx]
  00009	ff 60 10	 jmp	 DWORD PTR [eax+16]
$LN2@OnGraphDat:

; 150  : }

  0000c	c3		 ret	 0
?OnGraphDataChanged@CObjectAddInImp@@MAEXXZ ENDP	; CObjectAddInImp::OnGraphDataChanged
_TEXT	ENDS
; Function compile flags: /Ogtp
; File D:\git\src\IBK\IBK_DRFN\ProjSrc\SrcChartEx\ChartOCX\AddInManager\ChartCommonAddIn\ObjectAddInImp.cpp
;	COMDAT ?OnChartItemChanged@CObjectAddInImp@@MAEXXZ
_TEXT	SEGMENT
?OnChartItemChanged@CObjectAddInImp@@MAEXXZ PROC	; CObjectAddInImp::OnChartItemChanged, COMDAT
; _this$ = ecx

; 143  : 	if( m_pBlockTool) m_pBlockTool->ResetCurrentTool();

  00000	8b 49 3c	 mov	 ecx, DWORD PTR [ecx+60]
  00003	85 c9		 test	 ecx, ecx
  00005	74 05		 je	 SHORT $LN2@OnChartIte
  00007	8b 01		 mov	 eax, DWORD PTR [ecx]
  00009	ff 60 10	 jmp	 DWORD PTR [eax+16]
$LN2@OnChartIte:

; 144  : }

  0000c	c3		 ret	 0
?OnChartItemChanged@CObjectAddInImp@@MAEXXZ ENDP	; CObjectAddInImp::OnChartItemChanged
_TEXT	ENDS
; Function compile flags: /Ogtp
; File D:\git\src\IBK\IBK_DRFN\ProjSrc\SrcChartEx\ChartOCX\AddInManager\ChartCommonAddIn\ObjectAddInImp.cpp
;	COMDAT ?OnResetMainBlock@CObjectAddInImp@@MAEXXZ
_TEXT	SEGMENT
?OnResetMainBlock@CObjectAddInImp@@MAEXXZ PROC		; CObjectAddInImp::OnResetMainBlock, COMDAT
; _this$ = ecx

; 137  : 	if( m_pBlockTool) m_pBlockTool->ResetCurrentTool();

  00000	8b 49 3c	 mov	 ecx, DWORD PTR [ecx+60]
  00003	85 c9		 test	 ecx, ecx
  00005	74 05		 je	 SHORT $LN2@OnResetMai
  00007	8b 01		 mov	 eax, DWORD PTR [ecx]
  00009	ff 60 10	 jmp	 DWORD PTR [eax+16]
$LN2@OnResetMai:

; 138  : }

  0000c	c3		 ret	 0
?OnResetMainBlock@CObjectAddInImp@@MAEXXZ ENDP		; CObjectAddInImp::OnResetMainBlock
_TEXT	ENDS
; Function compile flags: /Ogtp
; File D:\git\src\IBK\IBK_DRFN\ProjSrc\SrcChartEx\ChartOCX\AddInManager\ChartCommonAddIn\ObjectAddInImp.cpp
;	COMDAT ?OnPacketDataMultiItem@CObjectAddInImp@@MAEXPBD0H@Z
_TEXT	SEGMENT
_lpszRQ$ = 8						; size = 4
_p_szPacketNames$ = 12					; size = 4
_p_bWithReset$ = 16					; size = 4
?OnPacketDataMultiItem@CObjectAddInImp@@MAEXPBD0H@Z PROC ; CObjectAddInImp::OnPacketDataMultiItem, COMDAT
; _this$ = ecx

; 131  : 	if( m_pBlockTool) m_pBlockTool->ResetCurrentTool();

  00000	8b 49 3c	 mov	 ecx, DWORD PTR [ecx+60]
  00003	85 c9		 test	 ecx, ecx
  00005	74 05		 je	 SHORT $LN2@OnPacketDa
  00007	8b 01		 mov	 eax, DWORD PTR [ecx]
  00009	ff 50 10	 call	 DWORD PTR [eax+16]
$LN2@OnPacketDa:

; 132  : }

  0000c	c2 0c 00	 ret	 12			; 0000000cH
?OnPacketDataMultiItem@CObjectAddInImp@@MAEXPBD0H@Z ENDP ; CObjectAddInImp::OnPacketDataMultiItem
_TEXT	ENDS
; Function compile flags: /Ogtp
; File D:\git\src\IBK\IBK_DRFN\ProjSrc\SrcChartEx\ChartOCX\AddInManager\ChartCommonAddIn\ObjectAddInImp.cpp
;	COMDAT ?OnDrawAfterGraph@CObjectAddInImp@@MAEXPAUHDC__@@@Z
_TEXT	SEGMENT
_p_hDC$ = 8						; size = 4
?OnDrawAfterGraph@CObjectAddInImp@@MAEXPAUHDC__@@@Z PROC ; CObjectAddInImp::OnDrawAfterGraph, COMDAT
; _this$ = ecx

; 124  : {

  00000	55		 push	 ebp
  00001	8b ec		 mov	 ebp, esp
  00003	56		 push	 esi
  00004	57		 push	 edi
  00005	8b f9		 mov	 edi, ecx

; 125  : 	if( m_pBlockTool) m_pBlockTool->OnDraw( CDC::FromHandle( p_hDC), m_pIChartManager->GetObjectAddress());

  00007	8b 77 3c	 mov	 esi, DWORD PTR [edi+60]
  0000a	85 f6		 test	 esi, esi
  0000c	74 1a		 je	 SHORT $LN2@OnDrawAfte
  0000e	8b 4f 1c	 mov	 ecx, DWORD PTR [edi+28]
  00011	8b 36		 mov	 esi, DWORD PTR [esi]
  00013	8b 01		 mov	 eax, DWORD PTR [ecx]
  00015	ff 50 14	 call	 DWORD PTR [eax+20]
  00018	50		 push	 eax
  00019	ff 75 08	 push	 DWORD PTR _p_hDC$[ebp]
  0001c	e8 00 00 00 00	 call	 ?FromHandle@CDC@@SGPAV1@PAUHDC__@@@Z ; CDC::FromHandle
  00021	8b 4f 3c	 mov	 ecx, DWORD PTR [edi+60]
  00024	50		 push	 eax
  00025	ff 56 34	 call	 DWORD PTR [esi+52]
$LN2@OnDrawAfte:

; 126  : }

  00028	5f		 pop	 edi
  00029	5e		 pop	 esi
  0002a	5d		 pop	 ebp
  0002b	c2 04 00	 ret	 4
?OnDrawAfterGraph@CObjectAddInImp@@MAEXPAUHDC__@@@Z ENDP ; CObjectAddInImp::OnDrawAfterGraph
_TEXT	ENDS
; Function compile flags: /Ogtp
; File D:\git\src\IBK\IBK_DRFN\ProjSrc\SrcChartEx\ChartOCX\AddInManager\ChartCommonAddIn\ObjectAddInImp.h
;	COMDAT ?QueryInterface@CObjectAddInImp@@MAGJABU_GUID@@PAPAX@Z
_TEXT	SEGMENT
_this$ = 8						; size = 4
_iid$ = 12						; size = 4
_ppvObject$ = 16					; size = 4
?QueryInterface@CObjectAddInImp@@MAGJABU_GUID@@PAPAX@Z PROC ; CObjectAddInImp::QueryInterface, COMDAT

; 61   : 	_IWRAPPER_IUNKNOWN_INTERFACE()

  00000	b8 02 40 00 80	 mov	 eax, -2147467262	; 80004002H
  00005	c2 0c 00	 ret	 12			; 0000000cH
?QueryInterface@CObjectAddInImp@@MAGJABU_GUID@@PAPAX@Z ENDP ; CObjectAddInImp::QueryInterface
_TEXT	ENDS
; Function compile flags: /Ogtp
; File D:\git\src\IBK\IBK_DRFN\ProjSrc\SrcChartEx\ChartOCX\AddInManager\ChartCommonAddIn\ObjectAddInImp.h
;	COMDAT ?Release@CObjectAddInImp@@MAGKXZ
_TEXT	SEGMENT
_this$ = 8						; size = 4
?Release@CObjectAddInImp@@MAGKXZ PROC			; CObjectAddInImp::Release, COMDAT

; 61   : 	_IWRAPPER_IUNKNOWN_INTERFACE()

  00000	55		 push	 ebp
  00001	8b ec		 mov	 ebp, esp
  00003	5d		 pop	 ebp
  00004	e9 00 00 00 00	 jmp	 ?Release@CIWUnknown@@MAGKXZ ; CIWUnknown::Release
?Release@CObjectAddInImp@@MAGKXZ ENDP			; CObjectAddInImp::Release
_TEXT	ENDS
; Function compile flags: /Ogtp
; File D:\git\src\IBK\IBK_DRFN\ProjSrc\SrcChartEx\ChartOCX\AddInManager\ChartCommonAddIn\ObjectAddInImp.h
;	COMDAT ?AddRef@CObjectAddInImp@@MAGKXZ
_TEXT	SEGMENT
_this$ = 8						; size = 4
?AddRef@CObjectAddInImp@@MAGKXZ PROC			; CObjectAddInImp::AddRef, COMDAT

; 61   : 	_IWRAPPER_IUNKNOWN_INTERFACE()

  00000	55		 push	 ebp
  00001	8b ec		 mov	 ebp, esp
  00003	5d		 pop	 ebp
  00004	e9 00 00 00 00	 jmp	 ?AddRef@CIWUnknown@@MAGKXZ ; CIWUnknown::AddRef
?AddRef@CObjectAddInImp@@MAGKXZ ENDP			; CObjectAddInImp::AddRef
_TEXT	ENDS
; Function compile flags: /Ogtp
; File D:\git\src\IBK\IBK_DRFN\ProjSrc\SrcChartEx\ChartOCX\AddInManager\ChartCommonAddIn\ObjectAddInImp.cpp
;	COMDAT ?GetAddInCustomInterface@CObjectAddInImp@@MAEPAUIUnknown@@XZ
_TEXT	SEGMENT
?GetAddInCustomInterface@CObjectAddInImp@@MAEPAUIUnknown@@XZ PROC ; CObjectAddInImp::GetAddInCustomInterface, COMDAT
; _this$ = ecx

; 109  : // (2006/1/23 - Seung-Won, Bae) Do not use it. Use AddIn Command!
; 110  : /*
; 111  : 	IUnknown *pIUnknown = ( IUnknown *)( IChartObjectAddIn *)this;
; 112  : 	pIUnknown->AddRef();
; 113  : 	return pIUnknown;
; 114  : */
; 115  : 	return NULL;

  00000	33 c0		 xor	 eax, eax

; 116  : }

  00002	c3		 ret	 0
?GetAddInCustomInterface@CObjectAddInImp@@MAEPAUIUnknown@@XZ ENDP ; CObjectAddInImp::GetAddInCustomInterface
_TEXT	ENDS
; Function compile flags: /Ogtp
; File D:\git\src\IBK\IBK_DRFN\ProjSrc\SrcChartEx\ChartOCX\AddInManager\ChartCommonAddIn\ObjectAddInImp.cpp
; File C:\Program Files (x86)\Microsoft Visual Studio\2019\Community\VC\Tools\MSVC\14.29.30133\atlmfc\include\afxwin1.inl
; File D:\git\src\IBK\IBK_DRFN\ProjSrc\SrcChartEx\ChartOCX\AddInManager\ChartCommonAddIn\ObjectAddInImp.cpp
;	COMDAT ?GetSubMenu@CObjectAddInImp@@IAEPAVCMenu@@PAV2@PBD@Z
_TEXT	SEGMENT
_p_pMainMenu$ = 8					; size = 4
_p_szMenuString$ = 12					; size = 4
?GetSubMenu@CObjectAddInImp@@IAEPAVCMenu@@PAV2@PBD@Z PROC ; CObjectAddInImp::GetSubMenu, COMDAT
; _this$ = ecx

; 560  : {

  00000	55		 push	 ebp
  00001	8b ec		 mov	 ebp, esp
  00003	56		 push	 esi

; 561  : 	int nMenuIndex = GetSubMenuIndex( p_pMainMenu, p_szMenuString);

  00004	ff 75 0c	 push	 DWORD PTR _p_szMenuString$[ebp]
  00007	8b 75 08	 mov	 esi, DWORD PTR _p_pMainMenu$[ebp]
  0000a	56		 push	 esi
  0000b	e8 00 00 00 00	 call	 ?GetSubMenuIndex@CObjectAddInImp@@IAEHPAVCMenu@@PBD@Z ; CObjectAddInImp::GetSubMenuIndex

; 562  : 	if( nMenuIndex <= 0) return NULL;

  00010	85 c0		 test	 eax, eax
  00012	7f 07		 jg	 SHORT $LN2@GetSubMenu
  00014	33 c0		 xor	 eax, eax
  00016	5e		 pop	 esi

; 564  : }

  00017	5d		 pop	 ebp
  00018	c2 08 00	 ret	 8
$LN2@GetSubMenu:
; File C:\Program Files (x86)\Microsoft Visual Studio\2019\Community\VC\Tools\MSVC\14.29.30133\atlmfc\include\afxwin1.inl

; 951  : 	{ ASSERT(::IsMenu(m_hMenu)); return CMenu::FromHandle(::GetSubMenu(m_hMenu, nPos)); }

  0001b	50		 push	 eax
  0001c	ff 76 04	 push	 DWORD PTR [esi+4]
  0001f	ff 15 00 00 00
	00		 call	 DWORD PTR __imp__GetSubMenu@8
  00025	50		 push	 eax
  00026	e8 00 00 00 00	 call	 ?FromHandle@CMenu@@SGPAV1@PAUHMENU__@@@Z ; CMenu::FromHandle
  0002b	5e		 pop	 esi
; File D:\git\src\IBK\IBK_DRFN\ProjSrc\SrcChartEx\ChartOCX\AddInManager\ChartCommonAddIn\ObjectAddInImp.cpp

; 564  : }

  0002c	5d		 pop	 ebp
  0002d	c2 08 00	 ret	 8
?GetSubMenu@CObjectAddInImp@@IAEPAVCMenu@@PAV2@PBD@Z ENDP ; CObjectAddInImp::GetSubMenu
_TEXT	ENDS
; Function compile flags: /Ogtp
; File D:\git\src\IBK\IBK_DRFN\ProjSrc\SrcChartEx\ChartOCX\AddInManager\ChartCommonAddIn\ObjectAddInImp.cpp
; File C:\Program Files (x86)\Microsoft Visual Studio\2019\Community\VC\Tools\MSVC\14.29.30133\atlmfc\include\afxwin1.inl
; File D:\git\src\IBK\IBK_DRFN\ProjSrc\SrcChartEx\ChartOCX\AddInManager\ChartCommonAddIn\ObjectAddInImp.cpp
; File C:\Program Files (x86)\Microsoft Visual Studio\2019\Community\VC\Tools\MSVC\14.29.30133\atlmfc\include\cstringt.h
; File D:\git\src\IBK\IBK_DRFN\ProjSrc\SrcChartEx\ChartOCX\AddInManager\ChartCommonAddIn\ObjectAddInImp.cpp
;	COMDAT ?GetSubMenuIndex@CObjectAddInImp@@IAEHPAVCMenu@@PBD@Z
_TEXT	SEGMENT
__$EHRec$ = -12						; size = 12
_strMenuString$ = 8					; size = 4
_p_pMainMenu$ = 8					; size = 4
_nMenuItemCount$1$ = 12					; size = 4
_p_szMenuString$ = 12					; size = 4
?GetSubMenuIndex@CObjectAddInImp@@IAEHPAVCMenu@@PBD@Z PROC ; CObjectAddInImp::GetSubMenuIndex, COMDAT
; _this$ = ecx

; 546  : {

  00000	55		 push	 ebp
  00001	8b ec		 mov	 ebp, esp
  00003	6a ff		 push	 -1
  00005	68 00 00 00 00	 push	 __ehhandler$?GetSubMenuIndex@CObjectAddInImp@@IAEHPAVCMenu@@PBD@Z
  0000a	64 a1 00 00 00
	00		 mov	 eax, DWORD PTR fs:0
  00010	50		 push	 eax
  00011	53		 push	 ebx
  00012	56		 push	 esi
  00013	57		 push	 edi
  00014	a1 00 00 00 00	 mov	 eax, DWORD PTR ___security_cookie
  00019	33 c5		 xor	 eax, ebp
  0001b	50		 push	 eax
  0001c	8d 45 f4	 lea	 eax, DWORD PTR __$EHRec$[ebp]
  0001f	64 a3 00 00 00
	00		 mov	 DWORD PTR fs:0, eax

; 547  : 	if( !p_pMainMenu || !p_szMenuString) return -1;

  00025	8b 7d 08	 mov	 edi, DWORD PTR _p_pMainMenu$[ebp]
  00028	85 ff		 test	 edi, edi
  0002a	74 7b		 je	 SHORT $LN6@GetSubMenu
  0002c	8b 5d 0c	 mov	 ebx, DWORD PTR _p_szMenuString$[ebp]
  0002f	85 db		 test	 ebx, ebx
  00031	74 74		 je	 SHORT $LN6@GetSubMenu
; File C:\Program Files (x86)\Microsoft Visual Studio\2019\Community\VC\Tools\MSVC\14.29.30133\atlmfc\include\afxwin1.inl

; 937  : 	{ ASSERT(::IsMenu(m_hMenu)); return ::GetMenuItemCount(m_hMenu); }

  00033	ff 77 04	 push	 DWORD PTR [edi+4]
  00036	ff 15 00 00 00
	00		 call	 DWORD PTR __imp__GetMenuItemCount@4
; File D:\git\src\IBK\IBK_DRFN\ProjSrc\SrcChartEx\ChartOCX\AddInManager\ChartCommonAddIn\ObjectAddInImp.cpp

; 548  : 	int nMenuItemCount = p_pMainMenu->GetMenuItemCount();

  0003c	89 45 0c	 mov	 DWORD PTR _nMenuItemCount$1$[ebp], eax

; 549  : 	if( nMenuItemCount <= 0 || !*p_szMenuString) return -1;

  0003f	85 c0		 test	 eax, eax
  00041	7e 64		 jle	 SHORT $LN6@GetSubMenu
  00043	80 3b 00	 cmp	 BYTE PTR [ebx], 0
  00046	74 5f		 je	 SHORT $LN6@GetSubMenu

; 550  : 
; 551  : 	CString strMenuString;

  00048	8d 4d 08	 lea	 ecx, DWORD PTR _strMenuString$[ebp]
  0004b	ff 15 00 00 00
	00		 call	 DWORD PTR __imp_??0?$CStringT@DV?$StrTraitMFC_DLL@DV?$ChTraitsCRT@D@ATL@@@@@ATL@@QAE@XZ
  00051	c7 45 fc 00 00
	00 00		 mov	 DWORD PTR __$EHRec$[ebp+8], 0

; 552  : 	for( int i = 0; i < nMenuItemCount; i++)

  00058	33 f6		 xor	 esi, esi
  0005a	66 0f 1f 44 00
	00		 npad	 6
$LL4@GetSubMenu:

; 553  : 	{
; 554  : 		p_pMainMenu->GetMenuString( i, strMenuString, MF_BYPOSITION);

  00060	68 00 04 00 00	 push	 1024			; 00000400H
  00065	8d 45 08	 lea	 eax, DWORD PTR _strMenuString$[ebp]
  00068	8b cf		 mov	 ecx, edi
  0006a	50		 push	 eax
  0006b	56		 push	 esi
  0006c	e8 00 00 00 00	 call	 ?GetMenuStringA@CMenu@@QBEHIAAV?$CStringT@DV?$StrTraitMFC_DLL@DV?$ChTraitsCRT@D@ATL@@@@@ATL@@I@Z ; CMenu::GetMenuStringA
; File C:\Program Files (x86)\Microsoft Visual Studio\2019\Community\VC\Tools\MSVC\14.29.30133\atlmfc\include\cstringt.h

; 2486 : 		return(str1.Compare(psz2) == 0);

  00071	53		 push	 ebx
  00072	8d 4d 08	 lea	 ecx, DWORD PTR _strMenuString$[ebp]
  00075	ff 15 00 00 00
	00		 call	 DWORD PTR __imp_?Compare@?$CStringT@DV?$StrTraitMFC_DLL@DV?$ChTraitsCRT@D@ATL@@@@@ATL@@QBEHPBD@Z
  0007b	85 c0		 test	 eax, eax
; File D:\git\src\IBK\IBK_DRFN\ProjSrc\SrcChartEx\ChartOCX\AddInManager\ChartCommonAddIn\ObjectAddInImp.cpp

; 555  : 		if( strMenuString == p_szMenuString) return i;

  0007d	74 09		 je	 SHORT $LN12@GetSubMenu

; 552  : 	for( int i = 0; i < nMenuItemCount; i++)

  0007f	46		 inc	 esi
  00080	3b 75 0c	 cmp	 esi, DWORD PTR _nMenuItemCount$1$[ebp]
  00083	7c db		 jl	 SHORT $LL4@GetSubMenu

; 556  : 	}
; 557  : 	return -1;

  00085	83 ce ff	 or	 esi, -1
$LN12@GetSubMenu:
  00088	8d 4d 08	 lea	 ecx, DWORD PTR _strMenuString$[ebp]
  0008b	ff 15 00 00 00
	00		 call	 DWORD PTR __imp_??1?$CStringT@DV?$StrTraitMFC_DLL@DV?$ChTraitsCRT@D@ATL@@@@@ATL@@QAE@XZ
  00091	8b c6		 mov	 eax, esi

; 558  : }

  00093	8b 4d f4	 mov	 ecx, DWORD PTR __$EHRec$[ebp]
  00096	64 89 0d 00 00
	00 00		 mov	 DWORD PTR fs:0, ecx
  0009d	59		 pop	 ecx
  0009e	5f		 pop	 edi
  0009f	5e		 pop	 esi
  000a0	5b		 pop	 ebx
  000a1	8b e5		 mov	 esp, ebp
  000a3	5d		 pop	 ebp
  000a4	c2 08 00	 ret	 8
$LN6@GetSubMenu:

; 547  : 	if( !p_pMainMenu || !p_szMenuString) return -1;

  000a7	83 c8 ff	 or	 eax, -1

; 558  : }

  000aa	8b 4d f4	 mov	 ecx, DWORD PTR __$EHRec$[ebp]
  000ad	64 89 0d 00 00
	00 00		 mov	 DWORD PTR fs:0, ecx
  000b4	59		 pop	 ecx
  000b5	5f		 pop	 edi
  000b6	5e		 pop	 esi
  000b7	5b		 pop	 ebx
  000b8	8b e5		 mov	 esp, ebp
  000ba	5d		 pop	 ebp
  000bb	c2 08 00	 ret	 8
_TEXT	ENDS
;	COMDAT text$x
text$x	SEGMENT
__unwindfunclet$?GetSubMenuIndex@CObjectAddInImp@@IAEHPAVCMenu@@PBD@Z$0:
  00000	8d 4d 08	 lea	 ecx, DWORD PTR _strMenuString$[ebp]
  00003	ff 25 00 00 00
	00		 jmp	 DWORD PTR __imp_??1?$CStringT@DV?$StrTraitMFC_DLL@DV?$ChTraitsCRT@D@ATL@@@@@ATL@@QAE@XZ
  00009	cc		 int	 3
  0000a	cc		 int	 3
  0000b	cc		 int	 3
  0000c	cc		 int	 3
  0000d	cc		 int	 3
__ehhandler$?GetSubMenuIndex@CObjectAddInImp@@IAEHPAVCMenu@@PBD@Z:
  0000e	90		 npad	 1
  0000f	90		 npad	 1
  00010	8b 54 24 08	 mov	 edx, DWORD PTR [esp+8]
  00014	8d 42 0c	 lea	 eax, DWORD PTR [edx+12]
  00017	8b 4a f0	 mov	 ecx, DWORD PTR [edx-16]
  0001a	33 c8		 xor	 ecx, eax
  0001c	e8 00 00 00 00	 call	 @__security_check_cookie@4
  00021	b8 00 00 00 00	 mov	 eax, OFFSET __ehfuncinfo$?GetSubMenuIndex@CObjectAddInImp@@IAEHPAVCMenu@@PBD@Z
  00026	e9 00 00 00 00	 jmp	 ___CxxFrameHandler3
text$x	ENDS
?GetSubMenuIndex@CObjectAddInImp@@IAEHPAVCMenu@@PBD@Z ENDP ; CObjectAddInImp::GetSubMenuIndex
; Function compile flags: /Ogtp
; File D:\git\src\IBK\IBK_DRFN\ProjSrc\SrcChartEx\ChartOCX\AddInManager\ChartCommonAddIn\ObjectAddInImp.cpp
; File D:\git\src\IBK\IBK_DRFN\ProjSrc\SrcChartEx\ChartOCX\AddInManager\Include_AddIn\I000000\_IString.h
; File D:\git\src\IBK\IBK_DRFN\ProjSrc\SrcChartEx\ChartOCX\AddInManager\ChartCommonAddIn\ObjectAddInImp.cpp
; File C:\Program Files (x86)\Microsoft Visual Studio\2019\Community\VC\Tools\MSVC\14.29.30133\atlmfc\include\afxwin1.inl
; File D:\git\src\IBK\IBK_DRFN\ProjSrc\SrcChartEx\ChartOCX\Include_Chart\DLL_Load\IMetaTable.h
; File C:\Program Files (x86)\Microsoft Visual Studio\2019\Community\VC\Tools\MSVC\14.29.30133\atlmfc\include\afxwin1.inl
; File D:\git\src\IBK\IBK_DRFN\ProjSrc\SrcChartEx\ChartOCX\AddInManager\ChartCommonAddIn\ObjectAddInImp.cpp
; File C:\Program Files (x86)\Microsoft Visual Studio\2019\Community\VC\Tools\MSVC\14.29.30133\atlmfc\include\cstringt.h
; File D:\git\src\IBK\IBK_DRFN\ProjSrc\SrcChartEx\ChartOCX\AddInManager\ChartCommonAddIn\ObjectAddInImp.cpp
; File C:\Program Files (x86)\Microsoft Visual Studio\2019\Community\VC\Tools\MSVC\14.29.30133\atlmfc\include\cstringt.h
; File C:\Program Files (x86)\Microsoft Visual Studio\2019\Community\VC\Tools\MSVC\14.29.30133\atlmfc\include\atlsimpstr.h
; File C:\Program Files (x86)\Microsoft Visual Studio\2019\Community\VC\Tools\MSVC\14.29.30133\atlmfc\include\cstringt.h
; File D:\git\src\IBK\IBK_DRFN\ProjSrc\SrcChartEx\ChartOCX\AddInManager\ChartCommonAddIn\ObjectAddInImp.cpp
; File C:\Program Files (x86)\Windows Kits\10\Include\10.0.22000.0\ucrt\string.h
; File D:\git\src\IBK\IBK_DRFN\ProjSrc\SrcChartEx\ChartOCX\AddInManager\ChartCommonAddIn\ObjectAddInImp.cpp
; File C:\Program Files (x86)\Windows Kits\10\Include\10.0.22000.0\ucrt\string.h
; File D:\git\src\IBK\IBK_DRFN\ProjSrc\SrcChartEx\ChartOCX\AddInManager\ChartCommonAddIn\ObjectAddInImp.cpp
; File C:\Program Files (x86)\Windows Kits\10\Include\10.0.22000.0\ucrt\string.h
; File D:\git\src\IBK\IBK_DRFN\ProjSrc\SrcChartEx\ChartOCX\AddInManager\ChartCommonAddIn\ObjectAddInImp.cpp
; File C:\Program Files (x86)\Windows Kits\10\Include\10.0.22000.0\ucrt\string.h
; File D:\git\src\IBK\IBK_DRFN\ProjSrc\SrcChartEx\ChartOCX\AddInManager\ChartCommonAddIn\ObjectAddInImp.cpp
; File C:\Program Files (x86)\Windows Kits\10\Include\10.0.22000.0\ucrt\string.h
; File D:\git\src\IBK\IBK_DRFN\ProjSrc\SrcChartEx\ChartOCX\AddInManager\ChartCommonAddIn\ObjectAddInImp.cpp
; File C:\Program Files (x86)\Windows Kits\10\Include\10.0.22000.0\ucrt\string.h
; File D:\git\src\IBK\IBK_DRFN\ProjSrc\SrcChartEx\ChartOCX\AddInManager\ChartCommonAddIn\ObjectAddInImp.cpp
; File C:\Program Files (x86)\Windows Kits\10\Include\10.0.22000.0\ucrt\string.h
; File D:\git\src\IBK\IBK_DRFN\ProjSrc\SrcChartEx\ChartOCX\AddInManager\ChartCommonAddIn\ObjectAddInImp.cpp
; File D:\git\src\IBK\IBK_DRFN\ProjSrc\SrcChartEx\ChartOCX\Include_Chart\BaseData.h
; File D:\git\src\IBK\IBK_DRFN\ProjSrc\SrcChartEx\ChartOCX\AddInManager\ChartCommonAddIn\ObjectAddInImp.cpp
; File C:\Program Files (x86)\Microsoft Visual Studio\2019\Community\VC\Tools\MSVC\14.29.30133\atlmfc\include\cstringt.h
; File D:\git\src\IBK\IBK_DRFN\ProjSrc\SrcChartEx\ChartOCX\AddInManager\ChartCommonAddIn\ObjectAddInImp.cpp
; File C:\Program Files (x86)\Microsoft Visual Studio\2019\Community\VC\Tools\MSVC\14.29.30133\atlmfc\include\cstringt.h
; File C:\Program Files (x86)\Microsoft Visual Studio\2019\Community\VC\Tools\MSVC\14.29.30133\atlmfc\include\atlsimpstr.h
; File C:\Program Files (x86)\Microsoft Visual Studio\2019\Community\VC\Tools\MSVC\14.29.30133\atlmfc\include\cstringt.h
; File D:\git\src\IBK\IBK_DRFN\ProjSrc\SrcChartEx\ChartOCX\AddInManager\ChartCommonAddIn\ObjectAddInImp.cpp
; File D:\git\src\IBK\IBK_DRFN\ProjSrc\SrcChartEx\ChartOCX\Include_Chart\DLL_Load\IMetaTable.h
; File C:\Program Files (x86)\Microsoft Visual Studio\2019\Community\VC\Tools\MSVC\14.29.30133\atlmfc\include\afxwin1.inl
; File D:\git\src\IBK\IBK_DRFN\ProjSrc\SrcChartEx\ChartOCX\AddInManager\ChartCommonAddIn\ObjectAddInImp.cpp
; File C:\Program Files (x86)\Microsoft Visual Studio\2019\Community\VC\Tools\MSVC\14.29.30133\atlmfc\include\afxwin1.inl
; File D:\git\src\IBK\IBK_DRFN\ProjSrc\SrcChartEx\ChartOCX\AddInManager\ChartCommonAddIn\ObjectAddInImp.cpp
; File D:\git\src\IBK\IBK_DRFN\ProjSrc\SrcChartEx\ChartOCX\AddInManager\Include_AddIn\I000000\_IString.h
; File D:\git\src\IBK\IBK_DRFN\ProjSrc\SrcChartEx\ChartOCX\AddInManager\ChartCommonAddIn\ObjectAddInImp.cpp
;	COMDAT ?LoadTimeDiffConf@CObjectAddInImp@@IAEXXZ
_TEXT	SEGMENT
___mlrs__$ = -10312					; size = 4
_szDataPath$ = -10308					; size = 8
___mlrs__$1$ = -10300					; size = 4
_pszNextKey$1$ = -10296					; size = 4
_this$GSCopy$1$ = -10292				; size = 4
tv584 = -10288						; size = 4
_pszKey$1$ = -10284					; size = 4
_nIndex$1$ = -10280					; size = 4
_nSTime$1$ = -10276					; size = 4
_strSection$ = -10272					; size = 4
_strPath$ = -10268					; size = 4
_p$1$ = -10264						; size = 4
_pszValue$1$ = -10264					; size = 4
$T2 = -10264						; size = 4
$T3 = -10264						; size = 4
$T4 = -10260						; size = 4
$T5 = -10260						; size = 4
_szBuffer$ = -10256					; size = 10240
__$ArrayPad$ = -16					; size = 4
__$EHRec$ = -12						; size = 12
?LoadTimeDiffConf@CObjectAddInImp@@IAEXXZ PROC		; CObjectAddInImp::LoadTimeDiffConf, COMDAT
; _this$ = ecx

; 654  : {

  00000	55		 push	 ebp
  00001	8b ec		 mov	 ebp, esp
  00003	6a ff		 push	 -1
  00005	68 00 00 00 00	 push	 __ehhandler$?LoadTimeDiffConf@CObjectAddInImp@@IAEXXZ
  0000a	64 a1 00 00 00
	00		 mov	 eax, DWORD PTR fs:0
  00010	50		 push	 eax
  00011	b8 3c 28 00 00	 mov	 eax, 10300		; 0000283cH
  00016	e8 00 00 00 00	 call	 __chkstk
  0001b	a1 00 00 00 00	 mov	 eax, DWORD PTR ___security_cookie
  00020	33 c5		 xor	 eax, ebp
  00022	89 45 f0	 mov	 DWORD PTR __$ArrayPad$[ebp], eax
  00025	53		 push	 ebx
  00026	56		 push	 esi
  00027	57		 push	 edi
  00028	50		 push	 eax
  00029	8d 45 f4	 lea	 eax, DWORD PTR __$EHRec$[ebp]
  0002c	64 a3 00 00 00
	00		 mov	 DWORD PTR fs:0, eax
  00032	8b d9		 mov	 ebx, ecx
  00034	89 9d cc d7 ff
	ff		 mov	 DWORD PTR _this$GSCopy$1$[ebp], ebx
  0003a	c7 85 e8 d7 ff
	ff 00 00 00 00	 mov	 DWORD PTR $T2[ebp], 0

; 660  : 	ILPCSTR szDataPath = m_pIChartOCX->GetHtsPathString();

  00044	8b 4b 0c	 mov	 ecx, DWORD PTR [ebx+12]
  00047	c6 43 64 01	 mov	 BYTE PTR [ebx+100], 1
  0004b	8b 01		 mov	 eax, DWORD PTR [ecx]
  0004d	ff 50 68	 call	 DWORD PTR [eax+104]
; File D:\git\src\IBK\IBK_DRFN\ProjSrc\SrcChartEx\ChartOCX\AddInManager\Include_AddIn\I000000\_IString.h

; 39   : 		m_pIStrData = p_pIString;	// Do not AddRef(). Because It must be Return Value.

  00050	89 85 c0 d7 ff
	ff		 mov	 DWORD PTR _szDataPath$[ebp+4], eax

; 40   : 		if( m_pIStrData) m_szData = m_pIStrData->GetData();

  00056	85 c0		 test	 eax, eax
  00058	74 09		 je	 SHORT $LN24@LoadTimeDi
  0005a	8b 10		 mov	 edx, DWORD PTR [eax]
  0005c	8b c8		 mov	 ecx, eax
  0005e	ff 52 10	 call	 DWORD PTR [edx+16]
  00061	eb 02		 jmp	 SHORT $LN100@LoadTimeDi
$LN24@LoadTimeDi:

; 41   : 		else m_szData = NULL;

  00063	33 c0		 xor	 eax, eax
$LN100@LoadTimeDi:
; File D:\git\src\IBK\IBK_DRFN\ProjSrc\SrcChartEx\ChartOCX\AddInManager\ChartCommonAddIn\ObjectAddInImp.cpp

; 660  : 	ILPCSTR szDataPath = m_pIChartOCX->GetHtsPathString();

  00065	89 85 bc d7 ff
	ff		 mov	 DWORD PTR _szDataPath$[ebp], eax

; 661  : 	CString strPath = CString( szDataPath);

  0006b	50		 push	 eax
  0006c	8d 8d e4 d7 ff
	ff		 lea	 ecx, DWORD PTR _strPath$[ebp]
  00072	c7 45 fc 00 00
	00 00		 mov	 DWORD PTR __$EHRec$[ebp+8], 0
  00079	ff 15 00 00 00
	00		 call	 DWORD PTR __imp_??0?$CStringT@DV?$StrTraitMFC_DLL@DV?$ChTraitsCRT@D@ATL@@@@@ATL@@QAE@PBD@Z

; 662  : 
; 663  : //	
; 664  : //	strPath += "\\System";
; 665  : 	strPath += "\\Icss";	//	WINIX.

  0007f	68 00 00 00 00	 push	 OFFSET ??_C@_05BLKEAIDJ@?2Icss@
  00084	8d 8d e4 d7 ff
	ff		 lea	 ecx, DWORD PTR _strPath$[ebp]
  0008a	c6 45 fc 01	 mov	 BYTE PTR __$EHRec$[ebp+8], 1
  0008e	ff 15 00 00 00
	00		 call	 DWORD PTR __imp_??Y?$CStringT@DV?$StrTraitMFC_DLL@DV?$ChTraitsCRT@D@ATL@@@@@ATL@@QAEAAV01@PBD@Z

; 666  : 
; 667  : 	m_lstTimeDiffInfo.RemoveAll();

  00094	8d 43 48	 lea	 eax, DWORD PTR [ebx+72]
  00097	8b c8		 mov	 ecx, eax
  00099	89 85 d0 d7 ff
	ff		 mov	 DWORD PTR tv584[ebp], eax
  0009f	e8 00 00 00 00	 call	 ?RemoveAll@CPtrList@@QAEXXZ ; CPtrList::RemoveAll

; 668  : 	m_nCountTimeDiff = 0;

  000a4	c7 43 68 00 00
	00 00		 mov	 DWORD PTR [ebx+104], 0

; 669  : 
; 670  : 	int nTimeDiff = 0, nSTime = 0, nIndex = -1;

  000ab	c7 85 dc d7 ff
	ff 00 00 00 00	 mov	 DWORD PTR _nSTime$1$[ebp], 0

; 671  : 	CTimeDiffInfo	*pTimeInfo;
; 672  : 	unsigned int m_nTestEnvBufferSize = 1024 * 10;
; 673  : 	char szBuffer[ 1024 * 10];
; 674  : 
; 675  : 	ML_SET_LANGUAGE_RES();

  000b5	e8 00 00 00 00	 call	 ?AfxGetStaticModuleState@@YGPAVAFX_MODULE_STATE@@XZ ; AfxGetStaticModuleState
  000ba	b9 00 00 00 00	 mov	 ecx, OFFSET ?g_iMetaTable@@3VIMetaTable@@A ; g_iMetaTable
  000bf	8b 40 08	 mov	 eax, DWORD PTR [eax+8]
  000c2	50		 push	 eax
  000c3	ff 73 14	 push	 DWORD PTR [ebx+20]
  000c6	e8 00 00 00 00	 call	 ?LoadResourceDLL@IMetaTable@@QAEPAUHINSTANCE__@@PAUHWND__@@PAU2@@Z ; IMetaTable::LoadResourceDLL
  000cb	8b f8		 mov	 edi, eax
; File C:\Program Files (x86)\Microsoft Visual Studio\2019\Community\VC\Tools\MSVC\14.29.30133\atlmfc\include\afxwin1.inl

; 25   : 		return afxCurrentResourceHandle; }

  000cd	e8 00 00 00 00	 call	 ?AfxGetModuleState@@YGPAVAFX_MODULE_STATE@@XZ ; AfxGetModuleState
; File D:\git\src\IBK\IBK_DRFN\ProjSrc\SrcChartEx\ChartOCX\Include_Chart\DLL_Load\IMetaTable.h

; 1032 : 		m_hInstance = AfxGetResourceHandle();

  000d2	8b 70 0c	 mov	 esi, DWORD PTR [eax+12]
  000d5	89 b5 c4 d7 ff
	ff		 mov	 DWORD PTR ___mlrs__$1$[ebp], esi
  000db	89 b5 b8 d7 ff
	ff		 mov	 DWORD PTR ___mlrs__$[ebp], esi
; File C:\Program Files (x86)\Microsoft Visual Studio\2019\Community\VC\Tools\MSVC\14.29.30133\atlmfc\include\afxwin1.inl

; 27   : 	{ ASSERT(hInstResource != NULL); afxCurrentResourceHandle = hInstResource; }

  000e1	e8 00 00 00 00	 call	 ?AfxGetModuleState@@YGPAVAFX_MODULE_STATE@@XZ ; AfxGetModuleState
  000e6	89 78 0c	 mov	 DWORD PTR [eax+12], edi
; File D:\git\src\IBK\IBK_DRFN\ProjSrc\SrcChartEx\ChartOCX\AddInManager\ChartCommonAddIn\ObjectAddInImp.cpp

; 676  : 	CString strSection;

  000e9	8d 8d e0 d7 ff
	ff		 lea	 ecx, DWORD PTR _strSection$[ebp]
  000ef	ff 15 00 00 00
	00		 call	 DWORD PTR __imp_??0?$CStringT@DV?$StrTraitMFC_DLL@DV?$ChTraitsCRT@D@ATL@@@@@ATL@@QAE@XZ

; 677  : 	strSection.LoadString( IDS_SET_TIMEDIFF);

  000f5	6a 10		 push	 16			; 00000010H
  000f7	8d 8d e0 d7 ff
	ff		 lea	 ecx, DWORD PTR _strSection$[ebp]
  000fd	c6 45 fc 03	 mov	 BYTE PTR __$EHRec$[ebp+8], 3
  00101	ff 15 00 00 00
	00		 call	 DWORD PTR __imp_?LoadStringA@?$CStringT@DV?$StrTraitMFC_DLL@DV?$ChTraitsCRT@D@ATL@@@@@ATL@@QAEHI@Z
; File C:\Program Files (x86)\Microsoft Visual Studio\2019\Community\VC\Tools\MSVC\14.29.30133\atlmfc\include\cstringt.h

; 2401 : 		CStringT strResult( str1.GetManager() );

  00107	8d 8d e4 d7 ff
	ff		 lea	 ecx, DWORD PTR _strPath$[ebp]
; File D:\git\src\IBK\IBK_DRFN\ProjSrc\SrcChartEx\ChartOCX\AddInManager\ChartCommonAddIn\ObjectAddInImp.cpp

; 678  : 	DWORD dwRead = GetPrivateProfileSection( strSection, szBuffer, m_nTestEnvBufferSize, strPath + "\\timesetup.ini");

  0010d	c6 45 fc 04	 mov	 BYTE PTR __$EHRec$[ebp+8], 4
; File C:\Program Files (x86)\Microsoft Visual Studio\2019\Community\VC\Tools\MSVC\14.29.30133\atlmfc\include\cstringt.h

; 2401 : 		CStringT strResult( str1.GetManager() );

  00111	ff 15 00 00 00
	00		 call	 DWORD PTR __imp_?GetManager@?$CStringT@DV?$StrTraitMFC_DLL@DV?$ChTraitsCRT@D@ATL@@@@@ATL@@QBEPAUIAtlStringMgr@2@XZ
  00117	50		 push	 eax
  00118	8d 8d ec d7 ff
	ff		 lea	 ecx, DWORD PTR $T5[ebp]
  0011e	ff 15 00 00 00
	00		 call	 DWORD PTR __imp_??0?$CStringT@DV?$StrTraitMFC_DLL@DV?$ChTraitsCRT@D@ATL@@@@@ATL@@QAE@PAUIAtlStringMgr@1@@Z
; File C:\Program Files (x86)\Microsoft Visual Studio\2019\Community\VC\Tools\MSVC\14.29.30133\atlmfc\include\atlsimpstr.h

; 519  : 		return( GetData()->nDataLength );

  00124	8b 85 e4 d7 ff
	ff		 mov	 eax, DWORD PTR _strPath$[ebp]
; File C:\Program Files (x86)\Microsoft Visual Studio\2019\Community\VC\Tools\MSVC\14.29.30133\atlmfc\include\cstringt.h

; 2403 : 		CThisSimpleString::Concatenate( strResult, str1, str1.GetLength(), psz2, CThisSimpleString::StringLength( psz2 ) );

  0012a	6a 0e		 push	 14			; 0000000eH
  0012c	68 00 00 00 00	 push	 OFFSET ??_C@_0P@FGNAICMF@?2timesetup?4ini@

; 2405 : 		return( strResult );

  00131	c7 85 e8 d7 ff
	ff 01 00 00 00	 mov	 DWORD PTR $T2[ebp], 1
  0013b	ff 70 f4	 push	 DWORD PTR [eax-12]
  0013e	50		 push	 eax
  0013f	8d 85 ec d7 ff
	ff		 lea	 eax, DWORD PTR $T5[ebp]
  00145	50		 push	 eax
  00146	ff 15 00 00 00
	00		 call	 DWORD PTR __imp_?Concatenate@?$CSimpleStringT@D$00@ATL@@KAXAAV12@PBDH1H@Z
  0014c	83 c4 14	 add	 esp, 20			; 00000014H
; File D:\git\src\IBK\IBK_DRFN\ProjSrc\SrcChartEx\ChartOCX\AddInManager\ChartCommonAddIn\ObjectAddInImp.cpp

; 678  : 	DWORD dwRead = GetPrivateProfileSection( strSection, szBuffer, m_nTestEnvBufferSize, strPath + "\\timesetup.ini");

  0014f	8d 85 f0 d7 ff
	ff		 lea	 eax, DWORD PTR _szBuffer$[ebp]
  00155	ff b5 ec d7 ff
	ff		 push	 DWORD PTR $T5[ebp]
  0015b	68 00 28 00 00	 push	 10240			; 00002800H
  00160	50		 push	 eax
  00161	ff b5 e0 d7 ff
	ff		 push	 DWORD PTR _strSection$[ebp]
  00167	ff 15 00 00 00
	00		 call	 DWORD PTR __imp__GetPrivateProfileSectionA@16
  0016d	8d 8d ec d7 ff
	ff		 lea	 ecx, DWORD PTR $T5[ebp]
  00173	c6 45 fc 03	 mov	 BYTE PTR __$EHRec$[ebp+8], 3
  00177	8b d8		 mov	 ebx, eax
  00179	ff 15 00 00 00
	00		 call	 DWORD PTR __imp_??1?$CStringT@DV?$StrTraitMFC_DLL@DV?$ChTraitsCRT@D@ATL@@@@@ATL@@QAE@XZ

; 679  : 	char *pszKey = szBuffer;

  0017f	8d bd f0 d7 ff
	ff		 lea	 edi, DWORD PTR _szBuffer$[ebp]

; 680  : 	if( 0 < dwRead && dwRead < m_nTestEnvBufferSize - 2)

  00185	85 db		 test	 ebx, ebx
  00187	0f 84 cb 01 00
	00		 je	 $LN98@LoadTimeDi
  0018d	81 fb fe 27 00
	00		 cmp	 ebx, 10238		; 000027feH
  00193	0f 83 bf 01 00
	00		 jae	 $LN98@LoadTimeDi

; 681  : 	{
; 682  : 		//  Info Parsing.
; 683  : 		char *pszRTrim = NULL, *pszNextKey = NULL, *pszValue = NULL, *p = NULL;
; 684  : 		while( *pszKey)

  00199	80 bd f0 d7 ff
	ff 00		 cmp	 BYTE PTR _szBuffer$[ebp], 0
  001a0	0f 84 b2 01 00
	00		 je	 $LN98@LoadTimeDi
  001a6	33 f6		 xor	 esi, esi
$LL2@LoadTimeDi:

; 685  : 		{
; 686  : 			pszNextKey = pszKey + strlen(pszKey) + 1;

  001a8	8b c7		 mov	 eax, edi
  001aa	8d 50 01	 lea	 edx, DWORD PTR [eax+1]
  001ad	0f 1f 00	 npad	 3
$LL94@LoadTimeDi:
  001b0	8a 08		 mov	 cl, BYTE PTR [eax]
  001b2	40		 inc	 eax
  001b3	84 c9		 test	 cl, cl
  001b5	75 f9		 jne	 SHORT $LL94@LoadTimeDi
  001b7	2b c2		 sub	 eax, edx
  001b9	40		 inc	 eax
  001ba	03 c7		 add	 eax, edi
  001bc	89 85 c8 d7 ff
	ff		 mov	 DWORD PTR _pszNextKey$1$[ebp], eax

; 687  : 
; 688  : 			pszRTrim = pszNextKey - 2;

  001c2	83 c0 fe	 add	 eax, -2			; fffffffeH
$LL4@LoadTimeDi:

; 689  : 			while(*pszRTrim == ' ' || *pszRTrim == '\t') pszRTrim--;

  001c5	8a 08		 mov	 cl, BYTE PTR [eax]
  001c7	80 f9 20	 cmp	 cl, 32			; 00000020H
  001ca	74 05		 je	 SHORT $LN87@LoadTimeDi
  001cc	80 f9 09	 cmp	 cl, 9
  001cf	75 03		 jne	 SHORT $LN5@LoadTimeDi
$LN87@LoadTimeDi:
  001d1	48		 dec	 eax
  001d2	eb f1		 jmp	 SHORT $LL4@LoadTimeDi
$LN5@LoadTimeDi:
; File C:\Program Files (x86)\Windows Kits\10\Include\10.0.22000.0\ucrt\string.h

; 520  :         return const_cast<char*>(strstr(static_cast<char const*>(_String), _SubString));

  001d4	68 00 00 00 00	 push	 OFFSET ??_C@_01NEMOKFLO@?$DN@
  001d9	57		 push	 edi
; File D:\git\src\IBK\IBK_DRFN\ProjSrc\SrcChartEx\ChartOCX\AddInManager\ChartCommonAddIn\ObjectAddInImp.cpp

; 690  : 			*(pszRTrim + 1) = '\0';

  001da	c6 40 01 00	 mov	 BYTE PTR [eax+1], 0

; 691  : 			
; 692  : 			nTimeDiff = 0;

  001de	33 db		 xor	 ebx, ebx
; File C:\Program Files (x86)\Windows Kits\10\Include\10.0.22000.0\ucrt\string.h

; 520  :         return const_cast<char*>(strstr(static_cast<char const*>(_String), _SubString));

  001e0	e8 00 00 00 00	 call	 _strstr
  001e5	83 c4 08	 add	 esp, 8
; File D:\git\src\IBK\IBK_DRFN\ProjSrc\SrcChartEx\ChartOCX\AddInManager\ChartCommonAddIn\ObjectAddInImp.cpp

; 693  : 			pszValue = strstr( pszKey, "=");

  001e8	89 85 e8 d7 ff
	ff		 mov	 DWORD PTR _pszValue$1$[ebp], eax

; 694  : 			if( pszValue)

  001ee	85 c0		 test	 eax, eax
  001f0	0f 84 4b 01 00
	00		 je	 $LN9@LoadTimeDi

; 695  : 			{
; 696  : 				*pszValue = '\0';
; 697  : 				nIndex = atoi(pszKey);	// Index

  001f6	57		 push	 edi
  001f7	88 18		 mov	 BYTE PTR [eax], bl
  001f9	ff 15 00 00 00
	00		 call	 DWORD PTR __imp__atoi
  001ff	89 85 d8 d7 ff
	ff		 mov	 DWORD PTR _nIndex$1$[ebp], eax

; 699  : 				pszValue ++;

  00205	8b 85 e8 d7 ff
	ff		 mov	 eax, DWORD PTR _pszValue$1$[ebp]
  0020b	40		 inc	 eax
; File C:\Program Files (x86)\Windows Kits\10\Include\10.0.22000.0\ucrt\string.h

; 502  :         return const_cast<char*>(strchr(static_cast<char const*>(_String), _Ch));

  0020c	6a 2c		 push	 44			; 0000002cH
  0020e	50		 push	 eax
; File D:\git\src\IBK\IBK_DRFN\ProjSrc\SrcChartEx\ChartOCX\AddInManager\ChartCommonAddIn\ObjectAddInImp.cpp

; 699  : 				pszValue ++;

  0020f	89 85 d4 d7 ff
	ff		 mov	 DWORD PTR _pszKey$1$[ebp], eax
; File C:\Program Files (x86)\Windows Kits\10\Include\10.0.22000.0\ucrt\string.h

; 502  :         return const_cast<char*>(strchr(static_cast<char const*>(_String), _Ch));

  00215	e8 00 00 00 00	 call	 _strchr
; File D:\git\src\IBK\IBK_DRFN\ProjSrc\SrcChartEx\ChartOCX\AddInManager\ChartCommonAddIn\ObjectAddInImp.cpp

; 701  : 				pszValue = strchr(pszKey, ',');

  0021a	8b f8		 mov	 edi, eax
; File C:\Program Files (x86)\Windows Kits\10\Include\10.0.22000.0\ucrt\string.h

; 502  :         return const_cast<char*>(strchr(static_cast<char const*>(_String), _Ch));

  0021c	83 c4 0c	 add	 esp, 12			; 0000000cH
; File D:\git\src\IBK\IBK_DRFN\ProjSrc\SrcChartEx\ChartOCX\AddInManager\ChartCommonAddIn\ObjectAddInImp.cpp

; 702  : 				if( pszValue )

  0021f	85 ff		 test	 edi, edi
  00221	0f 84 1a 01 00
	00		 je	 $LN9@LoadTimeDi

; 703  : 				{
; 704  : 					*pszValue = '\0';

  00227	88 1f		 mov	 BYTE PTR [edi], bl

; 705  : 					pszValue++;

  00229	47		 inc	 edi
; File C:\Program Files (x86)\Windows Kits\10\Include\10.0.22000.0\ucrt\string.h

; 502  :         return const_cast<char*>(strchr(static_cast<char const*>(_String), _Ch));

  0022a	6a 2c		 push	 44			; 0000002cH
  0022c	57		 push	 edi
  0022d	e8 00 00 00 00	 call	 _strchr
  00232	83 c4 08	 add	 esp, 8
; File D:\git\src\IBK\IBK_DRFN\ProjSrc\SrcChartEx\ChartOCX\AddInManager\ChartCommonAddIn\ObjectAddInImp.cpp

; 706  : 					p = strchr(pszValue, ',');

  00235	89 85 e8 d7 ff
	ff		 mov	 DWORD PTR _p$1$[ebp], eax

; 707  : 					if( p )		

  0023b	85 c0		 test	 eax, eax
  0023d	74 36		 je	 SHORT $LN10@LoadTimeDi

; 708  : 					{
; 709  : 						*p = '\0';
; 710  : 						nTimeDiff = atoi(pszValue);

  0023f	57		 push	 edi
  00240	88 18		 mov	 BYTE PTR [eax], bl
  00242	ff 15 00 00 00
	00		 call	 DWORD PTR __imp__atoi

; 711  : 						
; 712  : 						pszValue = p+1;

  00248	8b bd e8 d7 ff
	ff		 mov	 edi, DWORD PTR _p$1$[ebp]
  0024e	8b d8		 mov	 ebx, eax
  00250	47		 inc	 edi
; File C:\Program Files (x86)\Windows Kits\10\Include\10.0.22000.0\ucrt\string.h

; 502  :         return const_cast<char*>(strchr(static_cast<char const*>(_String), _Ch));

  00251	6a 2c		 push	 44			; 0000002cH
  00253	57		 push	 edi
  00254	e8 00 00 00 00	 call	 _strchr
  00259	83 c4 0c	 add	 esp, 12			; 0000000cH
; File D:\git\src\IBK\IBK_DRFN\ProjSrc\SrcChartEx\ChartOCX\AddInManager\ChartCommonAddIn\ObjectAddInImp.cpp

; 714  : 						if( p )		*p = '\0';

  0025c	85 c0		 test	 eax, eax
  0025e	74 03		 je	 SHORT $LN11@LoadTimeDi
  00260	c6 00 00	 mov	 BYTE PTR [eax], 0
$LN11@LoadTimeDi:

; 715  : 						nSTime = atoi(pszValue);

  00263	57		 push	 edi
  00264	ff 15 00 00 00
	00		 call	 DWORD PTR __imp__atoi
  0026a	83 c4 04	 add	 esp, 4
  0026d	89 85 dc d7 ff
	ff		 mov	 DWORD PTR _nSTime$1$[ebp], eax

; 716  : 
; 717  : 						nTimeDiff += nSTime;

  00273	03 d8		 add	 ebx, eax
$LN10@LoadTimeDi:

; 719  : 					pTimeInfo = new CTimeDiffInfo;

  00275	6a 0c		 push	 12			; 0000000cH
  00277	e8 00 00 00 00	 call	 ??2@YAPAXI@Z		; operator new
  0027c	8b f8		 mov	 edi, eax
  0027e	83 c4 04	 add	 esp, 4
  00281	89 bd e8 d7 ff
	ff		 mov	 DWORD PTR $T3[ebp], edi
  00287	85 ff		 test	 edi, edi
  00289	74 18		 je	 SHORT $LN14@LoadTimeDi
; File D:\git\src\IBK\IBK_DRFN\ProjSrc\SrcChartEx\ChartOCX\Include_Chart\BaseData.h

; 443  : 	CTimeDiffInfo()

  0028b	8d 4f 04	 lea	 ecx, DWORD PTR [edi+4]
  0028e	ff 15 00 00 00
	00		 call	 DWORD PTR __imp_??0?$CStringT@DV?$StrTraitMFC_DLL@DV?$ChTraitsCRT@D@ATL@@@@@ATL@@QAE@XZ

; 444  : 	{
; 445  : 		m_nIndex = -1;

  00294	c7 07 ff ff ff
	ff		 mov	 DWORD PTR [edi], -1

; 446  : 		m_nDiffTime = 0;

  0029a	c7 47 08 00 00
	00 00		 mov	 DWORD PTR [edi+8], 0
; File D:\git\src\IBK\IBK_DRFN\ProjSrc\SrcChartEx\ChartOCX\AddInManager\ChartCommonAddIn\ObjectAddInImp.cpp

; 719  : 					pTimeInfo = new CTimeDiffInfo;

  002a1	eb 02		 jmp	 SHORT $LN15@LoadTimeDi
$LN14@LoadTimeDi:
  002a3	33 ff		 xor	 edi, edi
$LN15@LoadTimeDi:

; 720  : 					pTimeInfo->m_nIndex = nIndex;

  002a5	8b 85 d8 d7 ff
	ff		 mov	 eax, DWORD PTR _nIndex$1$[ebp]

; 721  : 					pTimeInfo->m_strName = pszKey;

  002ab	8d 4f 04	 lea	 ecx, DWORD PTR [edi+4]
  002ae	ff b5 d4 d7 ff
	ff		 push	 DWORD PTR _pszKey$1$[ebp]
  002b4	89 07		 mov	 DWORD PTR [edi], eax
  002b6	ff 15 00 00 00
	00		 call	 DWORD PTR __imp_??4?$CStringT@DV?$StrTraitMFC_DLL@DV?$ChTraitsCRT@D@ATL@@@@@ATL@@QAEAAV01@PBD@Z

; 722  : 					if( nSTime == 1 )	pTimeInfo->m_strName = pTimeInfo->m_strName + "  ";		// Summer Time

  002bc	83 bd dc d7 ff
	ff 01		 cmp	 DWORD PTR _nSTime$1$[ebp], 1
  002c3	75 64		 jne	 SHORT $LN12@LoadTimeDi
; File C:\Program Files (x86)\Microsoft Visual Studio\2019\Community\VC\Tools\MSVC\14.29.30133\atlmfc\include\cstringt.h

; 2401 : 		CStringT strResult( str1.GetManager() );

  002c5	8d 4f 04	 lea	 ecx, DWORD PTR [edi+4]
; File D:\git\src\IBK\IBK_DRFN\ProjSrc\SrcChartEx\ChartOCX\AddInManager\ChartCommonAddIn\ObjectAddInImp.cpp

; 722  : 					if( nSTime == 1 )	pTimeInfo->m_strName = pTimeInfo->m_strName + "  ";		// Summer Time

  002c8	c6 45 fc 05	 mov	 BYTE PTR __$EHRec$[ebp+8], 5
; File C:\Program Files (x86)\Microsoft Visual Studio\2019\Community\VC\Tools\MSVC\14.29.30133\atlmfc\include\cstringt.h

; 2401 : 		CStringT strResult( str1.GetManager() );

  002cc	ff 15 00 00 00
	00		 call	 DWORD PTR __imp_?GetManager@?$CStringT@DV?$StrTraitMFC_DLL@DV?$ChTraitsCRT@D@ATL@@@@@ATL@@QBEPAUIAtlStringMgr@2@XZ
  002d2	50		 push	 eax
  002d3	8d 8d ec d7 ff
	ff		 lea	 ecx, DWORD PTR $T4[ebp]
  002d9	ff 15 00 00 00
	00		 call	 DWORD PTR __imp_??0?$CStringT@DV?$StrTraitMFC_DLL@DV?$ChTraitsCRT@D@ATL@@@@@ATL@@QAE@PAUIAtlStringMgr@1@@Z
; File C:\Program Files (x86)\Microsoft Visual Studio\2019\Community\VC\Tools\MSVC\14.29.30133\atlmfc\include\atlsimpstr.h

; 519  : 		return( GetData()->nDataLength );

  002df	8b 47 04	 mov	 eax, DWORD PTR [edi+4]
; File C:\Program Files (x86)\Microsoft Visual Studio\2019\Community\VC\Tools\MSVC\14.29.30133\atlmfc\include\cstringt.h

; 2405 : 		return( strResult );

  002e2	83 ce 02	 or	 esi, 2
  002e5	6a 0e		 push	 14			; 0000000eH
  002e7	68 00 00 00 00	 push	 OFFSET ??_C@_0P@POJHAMHN@?5?5?$LM?$LG?$LI?S?E?$LI?$MA?S?$MA?$PL?$LP?k@
  002ec	89 b5 e8 d7 ff
	ff		 mov	 DWORD PTR $T2[ebp], esi
  002f2	ff 70 f4	 push	 DWORD PTR [eax-12]
  002f5	50		 push	 eax
  002f6	8d 85 ec d7 ff
	ff		 lea	 eax, DWORD PTR $T4[ebp]
  002fc	50		 push	 eax
  002fd	ff 15 00 00 00
	00		 call	 DWORD PTR __imp_?Concatenate@?$CSimpleStringT@D$00@ATL@@KAXAAV12@PBDH1H@Z
  00303	83 c4 14	 add	 esp, 20			; 00000014H
; File D:\git\src\IBK\IBK_DRFN\ProjSrc\SrcChartEx\ChartOCX\AddInManager\ChartCommonAddIn\ObjectAddInImp.cpp

; 722  : 					if( nSTime == 1 )	pTimeInfo->m_strName = pTimeInfo->m_strName + "  ";		// Summer Time

  00306	8d 85 ec d7 ff
	ff		 lea	 eax, DWORD PTR $T4[ebp]
  0030c	8d 4f 04	 lea	 ecx, DWORD PTR [edi+4]
  0030f	50		 push	 eax
  00310	ff 15 00 00 00
	00		 call	 DWORD PTR __imp_??4?$CStringT@DV?$StrTraitMFC_DLL@DV?$ChTraitsCRT@D@ATL@@@@@ATL@@QAEAAV01@ABV01@@Z
  00316	8d 8d ec d7 ff
	ff		 lea	 ecx, DWORD PTR $T4[ebp]
  0031c	c6 45 fc 03	 mov	 BYTE PTR __$EHRec$[ebp+8], 3
  00320	83 e6 fd	 and	 esi, -3			; fffffffdH
  00323	ff 15 00 00 00
	00		 call	 DWORD PTR __imp_??1?$CStringT@DV?$StrTraitMFC_DLL@DV?$ChTraitsCRT@D@ATL@@@@@ATL@@QAE@XZ
$LN12@LoadTimeDi:

; 723  : 					pTimeInfo->m_nDiffTime = nTimeDiff;
; 724  : 					m_lstTimeDiffInfo.AddTail(pTimeInfo);

  00329	8b 8d d0 d7 ff
	ff		 mov	 ecx, DWORD PTR tv584[ebp]
  0032f	57		 push	 edi
  00330	89 5f 08	 mov	 DWORD PTR [edi+8], ebx
  00333	e8 00 00 00 00	 call	 ?AddTail@CPtrList@@QAEPAU__POSITION@@PAX@Z ; CPtrList::AddTail

; 725  : 
; 726  : 					m_nCountTimeDiff++;

  00338	8b 9d cc d7 ff
	ff		 mov	 ebx, DWORD PTR _this$GSCopy$1$[ebp]
  0033e	ff 43 68	 inc	 DWORD PTR [ebx+104]
$LN9@LoadTimeDi:

; 727  : 				}
; 728  : 			}
; 729  : 			pszKey = pszNextKey;

  00341	8b 85 c8 d7 ff
	ff		 mov	 eax, DWORD PTR _pszNextKey$1$[ebp]
  00347	8b f8		 mov	 edi, eax
  00349	80 38 00	 cmp	 BYTE PTR [eax], 0
  0034c	0f 85 56 fe ff
	ff		 jne	 $LL2@LoadTimeDi
  00352	8b b5 c4 d7 ff
	ff		 mov	 esi, DWORD PTR ___mlrs__$1$[ebp]
$LN98@LoadTimeDi:

; 732  : }

  00358	8d 8d e0 d7 ff
	ff		 lea	 ecx, DWORD PTR _strSection$[ebp]
  0035e	ff 15 00 00 00
	00		 call	 DWORD PTR __imp_??1?$CStringT@DV?$StrTraitMFC_DLL@DV?$ChTraitsCRT@D@ATL@@@@@ATL@@QAE@XZ
; File D:\git\src\IBK\IBK_DRFN\ProjSrc\SrcChartEx\ChartOCX\Include_Chart\DLL_Load\IMetaTable.h

; 1036 : 	{

  00364	c6 45 fc 06	 mov	 BYTE PTR __$EHRec$[ebp+8], 6
; File C:\Program Files (x86)\Microsoft Visual Studio\2019\Community\VC\Tools\MSVC\14.29.30133\atlmfc\include\afxwin1.inl

; 27   : 	{ ASSERT(hInstResource != NULL); afxCurrentResourceHandle = hInstResource; }

  00368	e8 00 00 00 00	 call	 ?AfxGetModuleState@@YGPAVAFX_MODULE_STATE@@XZ ; AfxGetModuleState
; File D:\git\src\IBK\IBK_DRFN\ProjSrc\SrcChartEx\ChartOCX\AddInManager\ChartCommonAddIn\ObjectAddInImp.cpp

; 732  : }

  0036d	8d 8d e4 d7 ff
	ff		 lea	 ecx, DWORD PTR _strPath$[ebp]
; File C:\Program Files (x86)\Microsoft Visual Studio\2019\Community\VC\Tools\MSVC\14.29.30133\atlmfc\include\afxwin1.inl

; 27   : 	{ ASSERT(hInstResource != NULL); afxCurrentResourceHandle = hInstResource; }

  00373	89 70 0c	 mov	 DWORD PTR [eax+12], esi
; File D:\git\src\IBK\IBK_DRFN\ProjSrc\SrcChartEx\ChartOCX\AddInManager\ChartCommonAddIn\ObjectAddInImp.cpp

; 732  : }

  00376	ff 15 00 00 00
	00		 call	 DWORD PTR __imp_??1?$CStringT@DV?$StrTraitMFC_DLL@DV?$ChTraitsCRT@D@ATL@@@@@ATL@@QAE@XZ
; File D:\git\src\IBK\IBK_DRFN\ProjSrc\SrcChartEx\ChartOCX\AddInManager\Include_AddIn\I000000\_IString.h

; 45   : 		if( m_pIStrData)

  0037c	8b 8d c0 d7 ff
	ff		 mov	 ecx, DWORD PTR _szDataPath$[ebp+4]
  00382	c7 45 fc 07 00
	00 00		 mov	 DWORD PTR __$EHRec$[ebp+8], 7
  00389	85 c9		 test	 ecx, ecx
  0038b	74 06		 je	 SHORT $LN79@LoadTimeDi

; 46   : 		{
; 47   : 			m_pIStrData->Release();

  0038d	8b 01		 mov	 eax, DWORD PTR [ecx]
  0038f	51		 push	 ecx
  00390	ff 50 08	 call	 DWORD PTR [eax+8]
$LN79@LoadTimeDi:
; File D:\git\src\IBK\IBK_DRFN\ProjSrc\SrcChartEx\ChartOCX\AddInManager\ChartCommonAddIn\ObjectAddInImp.cpp

; 732  : }

  00393	8b 4d f4	 mov	 ecx, DWORD PTR __$EHRec$[ebp]
  00396	64 89 0d 00 00
	00 00		 mov	 DWORD PTR fs:0, ecx
  0039d	59		 pop	 ecx
  0039e	5f		 pop	 edi
  0039f	5e		 pop	 esi
  003a0	5b		 pop	 ebx
  003a1	8b 4d f0	 mov	 ecx, DWORD PTR __$ArrayPad$[ebp]
  003a4	33 cd		 xor	 ecx, ebp
  003a6	e8 00 00 00 00	 call	 @__security_check_cookie@4
  003ab	8b e5		 mov	 esp, ebp
  003ad	5d		 pop	 ebp
  003ae	c3		 ret	 0
_TEXT	ENDS
;	COMDAT text$x
text$x	SEGMENT
__unwindfunclet$?LoadTimeDiffConf@CObjectAddInImp@@IAEXXZ$0:
  00000	8d 8d bc d7 ff
	ff		 lea	 ecx, DWORD PTR _szDataPath$[ebp]
  00006	e9 00 00 00 00	 jmp	 ??1ILPCSTR000000@@QAE@XZ ; ILPCSTR000000::~ILPCSTR000000
__unwindfunclet$?LoadTimeDiffConf@CObjectAddInImp@@IAEXXZ$1:
  0000b	8d 8d e4 d7 ff
	ff		 lea	 ecx, DWORD PTR _strPath$[ebp]
  00011	ff 25 00 00 00
	00		 jmp	 DWORD PTR __imp_??1?$CStringT@DV?$StrTraitMFC_DLL@DV?$ChTraitsCRT@D@ATL@@@@@ATL@@QAE@XZ
__unwindfunclet$?LoadTimeDiffConf@CObjectAddInImp@@IAEXXZ$2:
  00017	8d 8d b8 d7 ff
	ff		 lea	 ecx, DWORD PTR ___mlrs__$[ebp]
  0001d	e9 00 00 00 00	 jmp	 ??1CMultiLanguageResourceSetter@@QAE@XZ ; CMultiLanguageResourceSetter::~CMultiLanguageResourceSetter
__unwindfunclet$?LoadTimeDiffConf@CObjectAddInImp@@IAEXXZ$3:
  00022	8d 8d e0 d7 ff
	ff		 lea	 ecx, DWORD PTR _strSection$[ebp]
  00028	ff 25 00 00 00
	00		 jmp	 DWORD PTR __imp_??1?$CStringT@DV?$StrTraitMFC_DLL@DV?$ChTraitsCRT@D@ATL@@@@@ATL@@QAE@XZ
__unwindfunclet$?LoadTimeDiffConf@CObjectAddInImp@@IAEXXZ$7:
  0002e	8b 85 e8 d7 ff
	ff		 mov	 eax, DWORD PTR $T2[ebp]
  00034	83 e0 01	 and	 eax, 1
  00037	0f 84 13 00 00
	00		 je	 $LN36@LoadTimeDi
  0003d	83 a5 e8 d7 ff
	ff fe		 and	 DWORD PTR $T2[ebp], -2	; fffffffeH
  00044	8d 8d ec d7 ff
	ff		 lea	 ecx, DWORD PTR $T5[ebp]
  0004a	ff 25 00 00 00
	00		 jmp	 DWORD PTR __imp_??1?$CStringT@DV?$StrTraitMFC_DLL@DV?$ChTraitsCRT@D@ATL@@@@@ATL@@QAE@XZ
$LN36@LoadTimeDi:
  00050	c3		 ret	 0
__unwindfunclet$?LoadTimeDiffConf@CObjectAddInImp@@IAEXXZ$8:
  00051	8b 85 e8 d7 ff
	ff		 mov	 eax, DWORD PTR $T2[ebp]
  00057	83 e0 02	 and	 eax, 2
  0005a	0f 84 13 00 00
	00		 je	 $LN63@LoadTimeDi
  00060	83 a5 e8 d7 ff
	ff fd		 and	 DWORD PTR $T2[ebp], -3	; fffffffdH
  00067	8d 8d ec d7 ff
	ff		 lea	 ecx, DWORD PTR $T4[ebp]
  0006d	ff 25 00 00 00
	00		 jmp	 DWORD PTR __imp_??1?$CStringT@DV?$StrTraitMFC_DLL@DV?$ChTraitsCRT@D@ATL@@@@@ATL@@QAE@XZ
$LN63@LoadTimeDi:
  00073	c3		 ret	 0
  00074	cc		 int	 3
  00075	cc		 int	 3
  00076	cc		 int	 3
  00077	cc		 int	 3
  00078	cc		 int	 3
__ehhandler$?LoadTimeDiffConf@CObjectAddInImp@@IAEXXZ:
  00079	90		 npad	 1
  0007a	90		 npad	 1
  0007b	8b 54 24 08	 mov	 edx, DWORD PTR [esp+8]
  0007f	8d 42 0c	 lea	 eax, DWORD PTR [edx+12]
  00082	8b 8a b4 d7 ff
	ff		 mov	 ecx, DWORD PTR [edx-10316]
  00088	33 c8		 xor	 ecx, eax
  0008a	e8 00 00 00 00	 call	 @__security_check_cookie@4
  0008f	8b 4a fc	 mov	 ecx, DWORD PTR [edx-4]
  00092	33 c8		 xor	 ecx, eax
  00094	e8 00 00 00 00	 call	 @__security_check_cookie@4
  00099	b8 00 00 00 00	 mov	 eax, OFFSET __ehfuncinfo$?LoadTimeDiffConf@CObjectAddInImp@@IAEXXZ
  0009e	e9 00 00 00 00	 jmp	 ___CxxFrameHandler3
text$x	ENDS
?LoadTimeDiffConf@CObjectAddInImp@@IAEXXZ ENDP		; CObjectAddInImp::LoadTimeDiffConf
; Function compile flags: /Ogtp
; File D:\git\src\IBK\IBK_DRFN\ProjSrc\SrcChartEx\ChartOCX\AddInManager\ChartCommonAddIn\ObjectAddInImp.cpp
; File C:\Program Files (x86)\Microsoft Visual Studio\2019\Community\VC\Tools\MSVC\14.29.30133\atlmfc\include\afxwin1.inl
; File D:\git\src\IBK\IBK_DRFN\ProjSrc\SrcChartEx\ChartOCX\AddInManager\ChartCommonAddIn\ObjectAddInImp.cpp
; File C:\Program Files (x86)\Microsoft Visual Studio\2019\Community\VC\Tools\MSVC\14.29.30133\atlmfc\include\afxwin1.inl
; File D:\git\src\IBK\IBK_DRFN\ProjSrc\SrcChartEx\ChartOCX\Include_Chart\DLL_Load\IMetaTable.h
; File C:\Program Files (x86)\Microsoft Visual Studio\2019\Community\VC\Tools\MSVC\14.29.30133\atlmfc\include\afxwin1.inl
; File D:\git\src\IBK\IBK_DRFN\ProjSrc\SrcChartEx\ChartOCX\AddInManager\ChartCommonAddIn\ObjectAddInImp.cpp
; File D:\git\src\IBK\IBK_DRFN\ProjSrc\SrcChartEx\ChartOCX\Include_Chart\BaseData.h
; File D:\git\src\IBK\IBK_DRFN\ProjSrc\SrcChartEx\ChartOCX\AddInManager\ChartCommonAddIn\ObjectAddInImp.cpp
; File C:\Program Files (x86)\Microsoft Visual Studio\2019\Community\VC\Tools\MSVC\14.29.30133\atlmfc\include\afxwin1.inl
; File D:\git\src\IBK\IBK_DRFN\ProjSrc\SrcChartEx\ChartOCX\AddInManager\ChartCommonAddIn\ObjectAddInImp.cpp
; File C:\Program Files (x86)\Microsoft Visual Studio\2019\Community\VC\Tools\MSVC\14.29.30133\atlmfc\include\afxwin1.inl
; File D:\git\src\IBK\IBK_DRFN\ProjSrc\SrcChartEx\ChartOCX\AddInManager\ChartCommonAddIn\ObjectAddInImp.cpp
; File C:\Program Files (x86)\Microsoft Visual Studio\2019\Community\VC\Tools\MSVC\14.29.30133\atlmfc\include\afxwin1.inl
; File D:\git\src\IBK\IBK_DRFN\ProjSrc\SrcChartEx\ChartOCX\AddInManager\ChartCommonAddIn\ObjectAddInImp.cpp
; File C:\Program Files (x86)\Microsoft Visual Studio\2019\Community\VC\Tools\MSVC\14.29.30133\atlmfc\include\afxcoll.inl
; File D:\git\src\IBK\IBK_DRFN\ProjSrc\SrcChartEx\ChartOCX\AddInManager\ChartCommonAddIn\ObjectAddInImp.cpp
; File C:\Program Files (x86)\Microsoft Visual Studio\2019\Community\VC\Tools\MSVC\14.29.30133\atlmfc\include\afxwin1.inl
; File D:\git\src\IBK\IBK_DRFN\ProjSrc\SrcChartEx\ChartOCX\AddInManager\ChartCommonAddIn\ObjectAddInImp.cpp
; File C:\Program Files (x86)\Microsoft Visual Studio\2019\Community\VC\Tools\MSVC\14.29.30133\atlmfc\include\afxwin1.inl
; File D:\git\src\IBK\IBK_DRFN\ProjSrc\SrcChartEx\ChartOCX\AddInManager\ChartCommonAddIn\ObjectAddInImp.cpp
; File C:\Program Files (x86)\Microsoft Visual Studio\2019\Community\VC\Tools\MSVC\14.29.30133\atlmfc\include\afxwin1.inl
; File D:\git\src\IBK\IBK_DRFN\ProjSrc\SrcChartEx\ChartOCX\AddInManager\ChartCommonAddIn\ObjectAddInImp.cpp
; File D:\git\src\IBK\IBK_DRFN\ProjSrc\SrcChartEx\ChartOCX\Include_Chart\DLL_Load\IMetaTable.h
; File C:\Program Files (x86)\Microsoft Visual Studio\2019\Community\VC\Tools\MSVC\14.29.30133\atlmfc\include\afxwin1.inl
; File D:\git\src\IBK\IBK_DRFN\ProjSrc\SrcChartEx\ChartOCX\AddInManager\ChartCommonAddIn\ObjectAddInImp.cpp
;	COMDAT ?MakeConfigMenu@CObjectAddInImp@@IAEHPAVCMenu@@@Z
_TEXT	SEGMENT
_TimeInfo$2 = -52					; size = 12
___mlrs__$ = -40					; size = 4
___mlrs__$1$ = -36					; size = 4
_pSettingPopup$1$ = -32					; size = 4
$T3 = -28						; size = 4
_strUserTime$ = -24					; size = 4
_pPopup$1$ = -20					; size = 4
_strTimeInfo$4 = -16					; size = 4
__$EHRec$ = -12						; size = 12
_strMenuItem$5 = 8					; size = 4
_pMenu$ = 8						; size = 4
?MakeConfigMenu@CObjectAddInImp@@IAEHPAVCMenu@@@Z PROC	; CObjectAddInImp::MakeConfigMenu, COMDAT
; _this$ = ecx

; 569  : {

  00000	55		 push	 ebp
  00001	8b ec		 mov	 ebp, esp
  00003	6a ff		 push	 -1
  00005	68 00 00 00 00	 push	 __ehhandler$?MakeConfigMenu@CObjectAddInImp@@IAEHPAVCMenu@@@Z
  0000a	64 a1 00 00 00
	00		 mov	 eax, DWORD PTR fs:0
  00010	50		 push	 eax
  00011	83 ec 28	 sub	 esp, 40			; 00000028H
  00014	53		 push	 ebx
  00015	56		 push	 esi
  00016	57		 push	 edi
  00017	a1 00 00 00 00	 mov	 eax, DWORD PTR ___security_cookie
  0001c	33 c5		 xor	 eax, ebp
  0001e	50		 push	 eax
  0001f	8d 45 f4	 lea	 eax, DWORD PTR __$EHRec$[ebp]
  00022	64 a3 00 00 00
	00		 mov	 DWORD PTR fs:0, eax
  00028	8b d9		 mov	 ebx, ecx

; 570  : 	if( !pMenu) return FALSE;

  0002a	8b 75 08	 mov	 esi, DWORD PTR _pMenu$[ebp]
  0002d	85 f6		 test	 esi, esi
  0002f	0f 84 95 02 00
	00		 je	 $LN110@MakeConfig
; File C:\Program Files (x86)\Microsoft Visual Studio\2019\Community\VC\Tools\MSVC\14.29.30133\atlmfc\include\afxwin1.inl

; 977  : 	{ return Attach(::LoadMenuW(AfxFindResourceHandle(

  00035	68 ec 00 00 00	 push	 236			; 000000ecH
  0003a	6a 04		 push	 4
  0003c	68 ec 00 00 00	 push	 236			; 000000ecH
  00041	e8 00 00 00 00	 call	 ?AfxFindResourceHandle@@YGPAUHINSTANCE__@@PBD0@Z ; AfxFindResourceHandle
  00046	50		 push	 eax
  00047	ff 15 00 00 00
	00		 call	 DWORD PTR __imp__LoadMenuW@8
  0004d	50		 push	 eax
  0004e	8b ce		 mov	 ecx, esi
  00050	e8 00 00 00 00	 call	 ?Attach@CMenu@@QAEHPAUHMENU__@@@Z ; CMenu::Attach

; 951  : 	{ ASSERT(::IsMenu(m_hMenu)); return CMenu::FromHandle(::GetSubMenu(m_hMenu, nPos)); }

  00055	6a 00		 push	 0
  00057	ff 76 04	 push	 DWORD PTR [esi+4]
  0005a	ff 15 00 00 00
	00		 call	 DWORD PTR __imp__GetSubMenu@8
  00060	50		 push	 eax
  00061	e8 00 00 00 00	 call	 ?FromHandle@CMenu@@SGPAV1@PAUHMENU__@@@Z ; CMenu::FromHandle
; File D:\git\src\IBK\IBK_DRFN\ProjSrc\SrcChartEx\ChartOCX\AddInManager\ChartCommonAddIn\ObjectAddInImp.cpp

; 573  : 	CMenu * pSettingPopup = pMenu->GetSubMenu( 0);

  00066	89 45 e0	 mov	 DWORD PTR _pSettingPopup$1$[ebp], eax

; 574  : 	if( pSettingPopup == NULL )	return FALSE;

  00069	85 c0		 test	 eax, eax
  0006b	0f 84 59 02 00
	00		 je	 $LN110@MakeConfig

; 575  : 
; 576  : 	ML_SET_LANGUAGE_RES();

  00071	e8 00 00 00 00	 call	 ?AfxGetStaticModuleState@@YGPAVAFX_MODULE_STATE@@XZ ; AfxGetStaticModuleState
  00076	8b 48 08	 mov	 ecx, DWORD PTR [eax+8]
  00079	51		 push	 ecx
  0007a	ff 73 14	 push	 DWORD PTR [ebx+20]
  0007d	b9 00 00 00 00	 mov	 ecx, OFFSET ?g_iMetaTable@@3VIMetaTable@@A ; g_iMetaTable
  00082	e8 00 00 00 00	 call	 ?LoadResourceDLL@IMetaTable@@QAEPAUHINSTANCE__@@PAUHWND__@@PAU2@@Z ; IMetaTable::LoadResourceDLL
  00087	8b f8		 mov	 edi, eax
; File C:\Program Files (x86)\Microsoft Visual Studio\2019\Community\VC\Tools\MSVC\14.29.30133\atlmfc\include\afxwin1.inl

; 25   : 		return afxCurrentResourceHandle; }

  00089	e8 00 00 00 00	 call	 ?AfxGetModuleState@@YGPAVAFX_MODULE_STATE@@XZ ; AfxGetModuleState
; File D:\git\src\IBK\IBK_DRFN\ProjSrc\SrcChartEx\ChartOCX\Include_Chart\DLL_Load\IMetaTable.h

; 1032 : 		m_hInstance = AfxGetResourceHandle();

  0008e	8b 70 0c	 mov	 esi, DWORD PTR [eax+12]
  00091	89 75 dc	 mov	 DWORD PTR ___mlrs__$1$[ebp], esi
  00094	89 75 d8	 mov	 DWORD PTR ___mlrs__$[ebp], esi
; File C:\Program Files (x86)\Microsoft Visual Studio\2019\Community\VC\Tools\MSVC\14.29.30133\atlmfc\include\afxwin1.inl

; 27   : 	{ ASSERT(hInstResource != NULL); afxCurrentResourceHandle = hInstResource; }

  00097	e8 00 00 00 00	 call	 ?AfxGetModuleState@@YGPAVAFX_MODULE_STATE@@XZ ; AfxGetModuleState
  0009c	89 78 0c	 mov	 DWORD PTR [eax+12], edi
; File D:\git\src\IBK\IBK_DRFN\ProjSrc\SrcChartEx\ChartOCX\AddInManager\ChartCommonAddIn\ObjectAddInImp.cpp

; 577  : 	CString strUserTime;

  0009f	8d 4d e8	 lea	 ecx, DWORD PTR _strUserTime$[ebp]
  000a2	c7 45 fc 00 00
	00 00		 mov	 DWORD PTR __$EHRec$[ebp+8], 0
  000a9	ff 15 00 00 00
	00		 call	 DWORD PTR __imp_??0?$CStringT@DV?$StrTraitMFC_DLL@DV?$ChTraitsCRT@D@ATL@@@@@ATL@@QAE@XZ

; 578  : 	strUserTime.LoadString( IDS_USER_TIME);

  000af	6a 11		 push	 17			; 00000011H
  000b1	8d 4d e8	 lea	 ecx, DWORD PTR _strUserTime$[ebp]
  000b4	c6 45 fc 01	 mov	 BYTE PTR __$EHRec$[ebp+8], 1
  000b8	ff 15 00 00 00
	00		 call	 DWORD PTR __imp_?LoadStringA@?$CStringT@DV?$StrTraitMFC_DLL@DV?$ChTraitsCRT@D@ATL@@@@@ATL@@QAEHI@Z

; 579  : 	int nMenuIndex = GetSubMenuIndex( pSettingPopup, strUserTime);

  000be	ff 75 e8	 push	 DWORD PTR _strUserTime$[ebp]
  000c1	8b 7d e0	 mov	 edi, DWORD PTR _pSettingPopup$1$[ebp]
  000c4	8b cb		 mov	 ecx, ebx
  000c6	57		 push	 edi
  000c7	e8 00 00 00 00	 call	 ?GetSubMenuIndex@CObjectAddInImp@@IAEHPAVCMenu@@PBD@Z ; CObjectAddInImp::GetSubMenuIndex

; 580  : 	if( nMenuIndex < 0) return FALSE;

  000cc	85 c0		 test	 eax, eax
  000ce	78 36		 js	 SHORT $LN113@MakeConfig

; 581  : 
; 582  : 	// (2009/9/30 - Seung-Won, Bae) for WorldOn
; 583  : 	if( CChartInfo::HTS == m_eChartMode || CChartInfo::FX == m_eChartMode
; 584  : 		//  Configure       [ ]  
; 585  : 		|| ( m_bReadInfo && m_nCountTimeDiff == 0 ))

  000d0	8b 4b 3c	 mov	 ecx, DWORD PTR [ebx+60]
  000d3	83 f9 01	 cmp	 ecx, 1
  000d6	0f 84 ac 01 00
	00		 je	 $LN11@MakeConfig
  000dc	83 f9 02	 cmp	 ecx, 2
  000df	0f 84 a3 01 00
	00		 je	 $LN11@MakeConfig
  000e5	80 7b 64 00	 cmp	 BYTE PTR [ebx+100], 0
  000e9	74 0a		 je	 SHORT $LN109@MakeConfig
  000eb	83 7b 68 00	 cmp	 DWORD PTR [ebx+104], 0
  000ef	0f 84 93 01 00
	00		 je	 $LN11@MakeConfig
$LN109@MakeConfig:

; 586  : 	{
; 587  : 		pSettingPopup->DeleteMenu( nMenuIndex, MF_BYPOSITION);	// Remove User Time Scale.
; 588  : 		return TRUE;
; 589  : 	}
; 590  : 
; 591  : 	//   
; 592  : 	CMenu* pPopup = pSettingPopup->GetSubMenu( nMenuIndex);

  000f5	50		 push	 eax
  000f6	8b cf		 mov	 ecx, edi
  000f8	e8 00 00 00 00	 call	 ?GetSubMenu@CMenu@@QBEPAV1@H@Z ; CMenu::GetSubMenu
  000fd	8b f8		 mov	 edi, eax
  000ff	89 7d ec	 mov	 DWORD PTR _pPopup$1$[ebp], edi

; 593  : 	if( pPopup == NULL )	return FALSE;

  00102	85 ff		 test	 edi, edi
  00104	75 07		 jne	 SHORT $LN12@MakeConfig
$LN113@MakeConfig:

; 649  : 	return TRUE;

  00106	33 ff		 xor	 edi, edi
  00108	e9 8f 01 00 00	 jmp	 $LN30@MakeConfig
$LN12@MakeConfig:

; 594  : 
; 595  : 	// ..   
; 596  : 	//CMenu* pOrgMenu = pPopup->GetSubMenu(0);
; 597  : 	if( m_pBlockTool )

  0010d	83 7b 44 00	 cmp	 DWORD PTR [ebx+68], 0
  00111	0f 84 d7 00 00
	00		 je	 $LN69@MakeConfig

; 598  : 	{
; 599  : 		CTimeDiffInfo TimeInfo("", 0);

  00117	68 00 00 00 00	 push	 OFFSET ??_C@_00CNPNBAHC@@
  0011c	8d 4d e4	 lea	 ecx, DWORD PTR $T3[ebp]
  0011f	ff 15 00 00 00
	00		 call	 DWORD PTR __imp_??0?$CStringT@DV?$StrTraitMFC_DLL@DV?$ChTraitsCRT@D@ATL@@@@@ATL@@QAE@PBD@Z
; File D:\git\src\IBK\IBK_DRFN\ProjSrc\SrcChartEx\ChartOCX\Include_Chart\BaseData.h

; 448  : 	CTimeDiffInfo(CString strName, int nDiffTime)

  00125	8d 4d d0	 lea	 ecx, DWORD PTR _TimeInfo$2[ebp+4]
  00128	ff 15 00 00 00
	00		 call	 DWORD PTR __imp_??0?$CStringT@DV?$StrTraitMFC_DLL@DV?$ChTraitsCRT@D@ATL@@@@@ATL@@QAE@XZ

; 449  : 	{
; 450  : 		m_nIndex = -1;
; 451  : 		m_strName = strName;

  0012e	8d 45 e4	 lea	 eax, DWORD PTR $T3[ebp]
  00131	c6 45 fc 06	 mov	 BYTE PTR __$EHRec$[ebp+8], 6
  00135	50		 push	 eax
  00136	8d 4d d0	 lea	 ecx, DWORD PTR _TimeInfo$2[ebp+4]
  00139	c7 45 cc ff ff
	ff ff		 mov	 DWORD PTR _TimeInfo$2[ebp], -1
  00140	ff 15 00 00 00
	00		 call	 DWORD PTR __imp_??4?$CStringT@DV?$StrTraitMFC_DLL@DV?$ChTraitsCRT@D@ATL@@@@@ATL@@QAEAAV01@ABV01@@Z

; 452  : 		m_nDiffTime = nDiffTime;
; 453  : 	}

  00146	8d 4d e4	 lea	 ecx, DWORD PTR $T3[ebp]
  00149	c7 45 d4 00 00
	00 00		 mov	 DWORD PTR _TimeInfo$2[ebp+8], 0
  00150	ff 15 00 00 00
	00		 call	 DWORD PTR __imp_??1?$CStringT@DV?$StrTraitMFC_DLL@DV?$ChTraitsCRT@D@ATL@@@@@ATL@@QAE@XZ
; File D:\git\src\IBK\IBK_DRFN\ProjSrc\SrcChartEx\ChartOCX\AddInManager\ChartCommonAddIn\ObjectAddInImp.cpp

; 600  : 		m_pBlockTool->GetMenuCheck( m_pIChartManager->GetObjectAddress(), 

  00156	8b 43 44	 mov	 eax, DWORD PTR [ebx+68]
  00159	8b 4b 24	 mov	 ecx, DWORD PTR [ebx+36]
  0015c	c6 45 fc 07	 mov	 BYTE PTR __$EHRec$[ebp+8], 7
  00160	8b 38		 mov	 edi, DWORD PTR [eax]
  00162	8d 45 cc	 lea	 eax, DWORD PTR _TimeInfo$2[ebp]
  00165	50		 push	 eax
  00166	8b 01		 mov	 eax, DWORD PTR [ecx]
  00168	6a 0a		 push	 10			; 0000000aH
  0016a	ff 50 14	 call	 DWORD PTR [eax+20]
  0016d	8b 4b 44	 mov	 ecx, DWORD PTR [ebx+68]
  00170	50		 push	 eax
  00171	ff 57 30	 call	 DWORD PTR [edi+48]

; 601  : 														CMenuType::MENU_TIME_DIFF, 
; 602  : 														WPARAM(&TimeInfo));
; 603  : 		CString strTimeInfo, strMenuItem;

  00174	8d 4d f0	 lea	 ecx, DWORD PTR _strTimeInfo$4[ebp]
  00177	ff 15 00 00 00
	00		 call	 DWORD PTR __imp_??0?$CStringT@DV?$StrTraitMFC_DLL@DV?$ChTraitsCRT@D@ATL@@@@@ATL@@QAE@XZ
  0017d	8d 4d 08	 lea	 ecx, DWORD PTR _strMenuItem$5[ebp]
  00180	ff 15 00 00 00
	00		 call	 DWORD PTR __imp_??0?$CStringT@DV?$StrTraitMFC_DLL@DV?$ChTraitsCRT@D@ATL@@@@@ATL@@QAE@XZ

; 604  : 		pPopup->GetMenuString(0, strMenuItem, MF_BYPOSITION);

  00186	8b 7d ec	 mov	 edi, DWORD PTR _pPopup$1$[ebp]
  00189	8d 45 08	 lea	 eax, DWORD PTR _strMenuItem$5[ebp]
  0018c	68 00 04 00 00	 push	 1024			; 00000400H
  00191	50		 push	 eax
  00192	6a 00		 push	 0
  00194	8b cf		 mov	 ecx, edi
  00196	c6 45 fc 09	 mov	 BYTE PTR __$EHRec$[ebp+8], 9
  0019a	e8 00 00 00 00	 call	 ?GetMenuStringA@CMenu@@QBEHIAAV?$CStringT@DV?$StrTraitMFC_DLL@DV?$ChTraitsCRT@D@ATL@@@@@ATL@@I@Z ; CMenu::GetMenuStringA

; 605  : 		strTimeInfo.Format("%s(GMT%+03d:00)", strMenuItem, TimeInfo.m_nDiffTime);

  0019f	ff 75 d4	 push	 DWORD PTR _TimeInfo$2[ebp+8]
  001a2	8d 45 f0	 lea	 eax, DWORD PTR _strTimeInfo$4[ebp]
  001a5	ff 75 08	 push	 DWORD PTR _strMenuItem$5[ebp]
  001a8	68 00 00 00 00	 push	 OFFSET ??_C@_0BA@GMAPBMFI@?$CFs?$CIGMT?$CF?$CL03d?300?$CJ@
  001ad	50		 push	 eax
  001ae	ff 15 00 00 00
	00		 call	 DWORD PTR __imp_?Format@?$CStringT@DV?$StrTraitMFC_DLL@DV?$ChTraitsCRT@D@ATL@@@@@ATL@@QAAXPBDZZ
  001b4	83 c4 10	 add	 esp, 16			; 00000010H
; File C:\Program Files (x86)\Microsoft Visual Studio\2019\Community\VC\Tools\MSVC\14.29.30133\atlmfc\include\afxwin1.inl

; 962  : 	{ ASSERT(::IsMenu(m_hMenu)); return ::ModifyMenu(m_hMenu, nPosition, nFlags, nIDNewItem, lpszNewItem); }

  001b7	ff 75 f0	 push	 DWORD PTR _strTimeInfo$4[ebp]
  001ba	68 48 a3 00 00	 push	 41800			; 0000a348H
  001bf	68 00 04 00 00	 push	 1024			; 00000400H
  001c4	6a 00		 push	 0
  001c6	ff 77 04	 push	 DWORD PTR [edi+4]
  001c9	ff 15 00 00 00
	00		 call	 DWORD PTR __imp__ModifyMenuA@20
; File D:\git\src\IBK\IBK_DRFN\ProjSrc\SrcChartEx\ChartOCX\AddInManager\ChartCommonAddIn\ObjectAddInImp.cpp

; 607  : 	}

  001cf	8d 4d 08	 lea	 ecx, DWORD PTR _strMenuItem$5[ebp]
  001d2	ff 15 00 00 00
	00		 call	 DWORD PTR __imp_??1?$CStringT@DV?$StrTraitMFC_DLL@DV?$ChTraitsCRT@D@ATL@@@@@ATL@@QAE@XZ
  001d8	8d 4d f0	 lea	 ecx, DWORD PTR _strTimeInfo$4[ebp]
  001db	ff 15 00 00 00
	00		 call	 DWORD PTR __imp_??1?$CStringT@DV?$StrTraitMFC_DLL@DV?$ChTraitsCRT@D@ATL@@@@@ATL@@QAE@XZ
  001e1	8d 4d d0	 lea	 ecx, DWORD PTR _TimeInfo$2[ebp+4]
  001e4	c6 45 fc 01	 mov	 BYTE PTR __$EHRec$[ebp+8], 1
  001e8	ff 15 00 00 00
	00		 call	 DWORD PTR __imp_??1?$CStringT@DV?$StrTraitMFC_DLL@DV?$ChTraitsCRT@D@ATL@@@@@ATL@@QAE@XZ
$LN69@MakeConfig:

; 608  : 
; 609  : 	if( m_bReadInfo )

  001ee	80 7b 64 00	 cmp	 BYTE PTR [ebx+100], 0
  001f2	74 47		 je	 SHORT $LN14@MakeConfig

; 613  : 		for( int i=0; i<m_nCountTimeDiff; i++ )

  001f4	33 ff		 xor	 edi, edi
  001f6	39 7b 68	 cmp	 DWORD PTR [ebx+104], edi
  001f9	0f 8e 98 00 00
	00		 jle	 $LN100@MakeConfig
  001ff	8b 75 ec	 mov	 esi, DWORD PTR _pPopup$1$[ebp]
  00202	8d 43 48	 lea	 eax, DWORD PTR [ebx+72]
$LL4@MakeConfig:

; 614  : 		{
; 615  : 			pos = m_lstTimeDiffInfo.FindIndex(i);

  00205	57		 push	 edi
  00206	8b c8		 mov	 ecx, eax
  00208	e8 00 00 00 00	 call	 ?FindIndex@CPtrList@@QBEPAU__POSITION@@H@Z ; CPtrList::FindIndex

; 616  : 			if( !pos )

  0020d	85 c0		 test	 eax, eax
  0020f	74 25		 je	 SHORT $LN111@MakeConfig

; 617  : 				break;
; 618  : 
; 619  : 			pTimeInfo = (CTimeDiffInfo *)m_lstTimeDiffInfo.GetAt(pos);

  00211	8b 40 08	 mov	 eax, DWORD PTR [eax+8]

; 620  : 			if( pTimeInfo )

  00214	85 c0		 test	 eax, eax
  00216	74 15		 je	 SHORT $LN2@MakeConfig
; File C:\Program Files (x86)\Microsoft Visual Studio\2019\Community\VC\Tools\MSVC\14.29.30133\atlmfc\include\afxwin1.inl

; 924  : 	{ ASSERT(::IsMenu(m_hMenu)); return ::AppendMenu(m_hMenu, nFlags, nIDNewItem, lpszNewItem); }

  00218	ff 70 04	 push	 DWORD PTR [eax+4]
  0021b	8d 87 49 a3 00
	00		 lea	 eax, DWORD PTR [edi+41801]
  00221	50		 push	 eax
  00222	6a 00		 push	 0
  00224	ff 76 04	 push	 DWORD PTR [esi+4]
  00227	ff 15 00 00 00
	00		 call	 DWORD PTR __imp__AppendMenuA@16
$LN2@MakeConfig:
; File D:\git\src\IBK\IBK_DRFN\ProjSrc\SrcChartEx\ChartOCX\AddInManager\ChartCommonAddIn\ObjectAddInImp.cpp

; 613  : 		for( int i=0; i<m_nCountTimeDiff; i++ )

  0022d	47		 inc	 edi
  0022e	8d 43 48	 lea	 eax, DWORD PTR [ebx+72]
  00231	3b 7b 68	 cmp	 edi, DWORD PTR [ebx+104]
  00234	7c cf		 jl	 SHORT $LL4@MakeConfig
$LN111@MakeConfig:
  00236	8b 75 dc	 mov	 esi, DWORD PTR ___mlrs__$1$[ebp]

; 621  : 				pPopup->AppendMenu(MF_STRING, ID_COA_TIMEDIFF_0+1 + i, pTimeInfo->m_strName);
; 622  : 		}
; 623  : 
; 624  : 		return TRUE;

  00239	eb 5c		 jmp	 SHORT $LN100@MakeConfig
$LN14@MakeConfig:

; 625  : 	}
; 626  : 
; 627  : 	LoadTimeDiffConf();

  0023b	8b cb		 mov	 ecx, ebx
  0023d	e8 00 00 00 00	 call	 ?LoadTimeDiffConf@CObjectAddInImp@@IAEXXZ ; CObjectAddInImp::LoadTimeDiffConf

; 628  : 
; 629  : 	if( m_nCountTimeDiff == 0 )

  00242	83 7b 68 00	 cmp	 DWORD PTR [ebx+104], 0
  00246	75 0f		 jne	 SHORT $LN17@MakeConfig
; File C:\Program Files (x86)\Microsoft Visual Studio\2019\Community\VC\Tools\MSVC\14.29.30133\atlmfc\include\afxwin1.inl

; 921  : 	{ ASSERT(::IsMenu(m_hMenu)); return ::DeleteMenu(m_hMenu, nPosition, nFlags); }

  00248	8b 45 e0	 mov	 eax, DWORD PTR _pSettingPopup$1$[ebp]
  0024b	68 00 04 00 00	 push	 1024			; 00000400H
  00250	6a 01		 push	 1
  00252	ff 70 04	 push	 DWORD PTR [eax+4]
; File D:\git\src\IBK\IBK_DRFN\ProjSrc\SrcChartEx\ChartOCX\AddInManager\ChartCommonAddIn\ObjectAddInImp.cpp

; 632  : 	}

  00255	eb 3a		 jmp	 SHORT $LN114@MakeConfig
$LN17@MakeConfig:

; 637  : 		POSITION pos = m_lstTimeDiffInfo.GetHeadPosition();

  00257	8b 7b 4c	 mov	 edi, DWORD PTR [ebx+76]

; 638  : 		while(pos)

  0025a	85 ff		 test	 edi, edi
  0025c	74 39		 je	 SHORT $LN100@MakeConfig

; 633  : 	else
; 634  : 	{
; 635  : 		CTimeDiffInfo *pTimeInfo;
; 636  : 		int nCnt = 0;

  0025e	8b 75 ec	 mov	 esi, DWORD PTR _pPopup$1$[ebp]
  00261	bb 48 a3 00 00	 mov	 ebx, 41800		; 0000a348H
$LL5@MakeConfig:

; 639  : 		{
; 640  : 			pTimeInfo = (CTimeDiffInfo *)m_lstTimeDiffInfo.GetNext(pos);

  00266	8b 47 08	 mov	 eax, DWORD PTR [edi+8]
; File C:\Program Files (x86)\Microsoft Visual Studio\2019\Community\VC\Tools\MSVC\14.29.30133\atlmfc\include\afxcoll.inl

; 359  : 		rPosition = (POSITION) pNode->pNext;

  00269	8b 3f		 mov	 edi, DWORD PTR [edi]
; File D:\git\src\IBK\IBK_DRFN\ProjSrc\SrcChartEx\ChartOCX\AddInManager\ChartCommonAddIn\ObjectAddInImp.cpp

; 641  : 			if( pTimeInfo )

  0026b	85 c0		 test	 eax, eax
  0026d	74 10		 je	 SHORT $LN19@MakeConfig
; File C:\Program Files (x86)\Microsoft Visual Studio\2019\Community\VC\Tools\MSVC\14.29.30133\atlmfc\include\afxwin1.inl

; 924  : 	{ ASSERT(::IsMenu(m_hMenu)); return ::AppendMenu(m_hMenu, nFlags, nIDNewItem, lpszNewItem); }

  0026f	ff 70 04	 push	 DWORD PTR [eax+4]
; File D:\git\src\IBK\IBK_DRFN\ProjSrc\SrcChartEx\ChartOCX\AddInManager\ChartCommonAddIn\ObjectAddInImp.cpp

; 643  : 				nCnt ++;

  00272	43		 inc	 ebx
; File C:\Program Files (x86)\Microsoft Visual Studio\2019\Community\VC\Tools\MSVC\14.29.30133\atlmfc\include\afxwin1.inl

; 924  : 	{ ASSERT(::IsMenu(m_hMenu)); return ::AppendMenu(m_hMenu, nFlags, nIDNewItem, lpszNewItem); }

  00273	53		 push	 ebx
  00274	6a 00		 push	 0
  00276	ff 76 04	 push	 DWORD PTR [esi+4]
  00279	ff 15 00 00 00
	00		 call	 DWORD PTR __imp__AppendMenuA@16
$LN19@MakeConfig:
; File D:\git\src\IBK\IBK_DRFN\ProjSrc\SrcChartEx\ChartOCX\AddInManager\ChartCommonAddIn\ObjectAddInImp.cpp

; 638  : 		while(pos)

  0027f	85 ff		 test	 edi, edi
  00281	75 e3		 jne	 SHORT $LL5@MakeConfig

; 649  : 	return TRUE;

  00283	8b 75 dc	 mov	 esi, DWORD PTR ___mlrs__$1$[ebp]
  00286	eb 0f		 jmp	 SHORT $LN100@MakeConfig
$LN11@MakeConfig:
; File C:\Program Files (x86)\Microsoft Visual Studio\2019\Community\VC\Tools\MSVC\14.29.30133\atlmfc\include\afxwin1.inl

; 921  : 	{ ASSERT(::IsMenu(m_hMenu)); return ::DeleteMenu(m_hMenu, nPosition, nFlags); }

  00288	68 00 04 00 00	 push	 1024			; 00000400H
  0028d	50		 push	 eax
  0028e	ff 77 04	 push	 DWORD PTR [edi+4]
$LN114@MakeConfig:
; File D:\git\src\IBK\IBK_DRFN\ProjSrc\SrcChartEx\ChartOCX\AddInManager\ChartCommonAddIn\ObjectAddInImp.cpp

; 649  : 	return TRUE;

  00291	ff 15 00 00 00
	00		 call	 DWORD PTR __imp__DeleteMenu@12
$LN100@MakeConfig:
  00297	bf 01 00 00 00	 mov	 edi, 1
$LN30@MakeConfig:
  0029c	8d 4d e8	 lea	 ecx, DWORD PTR _strUserTime$[ebp]
  0029f	ff 15 00 00 00
	00		 call	 DWORD PTR __imp_??1?$CStringT@DV?$StrTraitMFC_DLL@DV?$ChTraitsCRT@D@ATL@@@@@ATL@@QAE@XZ
; File D:\git\src\IBK\IBK_DRFN\ProjSrc\SrcChartEx\ChartOCX\Include_Chart\DLL_Load\IMetaTable.h

; 1036 : 	{

  002a5	c7 45 fc 0b 00
	00 00		 mov	 DWORD PTR __$EHRec$[ebp+8], 11 ; 0000000bH
; File C:\Program Files (x86)\Microsoft Visual Studio\2019\Community\VC\Tools\MSVC\14.29.30133\atlmfc\include\afxwin1.inl

; 27   : 	{ ASSERT(hInstResource != NULL); afxCurrentResourceHandle = hInstResource; }

  002ac	e8 00 00 00 00	 call	 ?AfxGetModuleState@@YGPAVAFX_MODULE_STATE@@XZ ; AfxGetModuleState
  002b1	89 70 0c	 mov	 DWORD PTR [eax+12], esi
; File D:\git\src\IBK\IBK_DRFN\ProjSrc\SrcChartEx\ChartOCX\AddInManager\ChartCommonAddIn\ObjectAddInImp.cpp

; 649  : 	return TRUE;

  002b4	8b c7		 mov	 eax, edi

; 650  : }

  002b6	8b 4d f4	 mov	 ecx, DWORD PTR __$EHRec$[ebp]
  002b9	64 89 0d 00 00
	00 00		 mov	 DWORD PTR fs:0, ecx
  002c0	59		 pop	 ecx
  002c1	5f		 pop	 edi
  002c2	5e		 pop	 esi
  002c3	5b		 pop	 ebx
  002c4	8b e5		 mov	 esp, ebp
  002c6	5d		 pop	 ebp
  002c7	c2 04 00	 ret	 4
$LN110@MakeConfig:

; 574  : 	if( pSettingPopup == NULL )	return FALSE;

  002ca	33 c0		 xor	 eax, eax

; 650  : }

  002cc	8b 4d f4	 mov	 ecx, DWORD PTR __$EHRec$[ebp]
  002cf	64 89 0d 00 00
	00 00		 mov	 DWORD PTR fs:0, ecx
  002d6	59		 pop	 ecx
  002d7	5f		 pop	 edi
  002d8	5e		 pop	 esi
  002d9	5b		 pop	 ebx
  002da	8b e5		 mov	 esp, ebp
  002dc	5d		 pop	 ebp
  002dd	c2 04 00	 ret	 4
_TEXT	ENDS
;	COMDAT text$x
text$x	SEGMENT
__unwindfunclet$?MakeConfigMenu@CObjectAddInImp@@IAEHPAVCMenu@@@Z$0:
  00000	8d 4d d8	 lea	 ecx, DWORD PTR ___mlrs__$[ebp]
  00003	e9 00 00 00 00	 jmp	 ??1CMultiLanguageResourceSetter@@QAE@XZ ; CMultiLanguageResourceSetter::~CMultiLanguageResourceSetter
__unwindfunclet$?MakeConfigMenu@CObjectAddInImp@@IAEHPAVCMenu@@@Z$1:
  00008	8d 4d e8	 lea	 ecx, DWORD PTR _strUserTime$[ebp]
  0000b	ff 25 00 00 00
	00		 jmp	 DWORD PTR __imp_??1?$CStringT@DV?$StrTraitMFC_DLL@DV?$ChTraitsCRT@D@ATL@@@@@ATL@@QAE@XZ
__unwindfunclet$?MakeConfigMenu@CObjectAddInImp@@IAEHPAVCMenu@@@Z$9:
  00011	8d 4d e4	 lea	 ecx, DWORD PTR $T3[ebp]
  00014	ff 25 00 00 00
	00		 jmp	 DWORD PTR __imp_??1?$CStringT@DV?$StrTraitMFC_DLL@DV?$ChTraitsCRT@D@ATL@@@@@ATL@@QAE@XZ
__unwindfunclet$?MakeConfigMenu@CObjectAddInImp@@IAEHPAVCMenu@@@Z$10:
  0001a	8d 4d d0	 lea	 ecx, DWORD PTR _TimeInfo$2[ebp+4]
  0001d	ff 25 00 00 00
	00		 jmp	 DWORD PTR __imp_??1?$CStringT@DV?$StrTraitMFC_DLL@DV?$ChTraitsCRT@D@ATL@@@@@ATL@@QAE@XZ
__unwindfunclet$?MakeConfigMenu@CObjectAddInImp@@IAEHPAVCMenu@@@Z$3:
  00023	8d 4d cc	 lea	 ecx, DWORD PTR _TimeInfo$2[ebp]
  00026	e9 00 00 00 00	 jmp	 ??1CTimeDiffInfo@@QAE@XZ
__unwindfunclet$?MakeConfigMenu@CObjectAddInImp@@IAEHPAVCMenu@@@Z$4:
  0002b	8d 4d f0	 lea	 ecx, DWORD PTR _strTimeInfo$4[ebp]
  0002e	ff 25 00 00 00
	00		 jmp	 DWORD PTR __imp_??1?$CStringT@DV?$StrTraitMFC_DLL@DV?$ChTraitsCRT@D@ATL@@@@@ATL@@QAE@XZ
__unwindfunclet$?MakeConfigMenu@CObjectAddInImp@@IAEHPAVCMenu@@@Z$5:
  00034	8d 4d 08	 lea	 ecx, DWORD PTR _strMenuItem$5[ebp]
  00037	ff 25 00 00 00
	00		 jmp	 DWORD PTR __imp_??1?$CStringT@DV?$StrTraitMFC_DLL@DV?$ChTraitsCRT@D@ATL@@@@@ATL@@QAE@XZ
  0003d	cc		 int	 3
  0003e	cc		 int	 3
  0003f	cc		 int	 3
  00040	cc		 int	 3
  00041	cc		 int	 3
__ehhandler$?MakeConfigMenu@CObjectAddInImp@@IAEHPAVCMenu@@@Z:
  00042	90		 npad	 1
  00043	90		 npad	 1
  00044	8b 54 24 08	 mov	 edx, DWORD PTR [esp+8]
  00048	8d 42 0c	 lea	 eax, DWORD PTR [edx+12]
  0004b	8b 4a c8	 mov	 ecx, DWORD PTR [edx-56]
  0004e	33 c8		 xor	 ecx, eax
  00050	e8 00 00 00 00	 call	 @__security_check_cookie@4
  00055	b8 00 00 00 00	 mov	 eax, OFFSET __ehfuncinfo$?MakeConfigMenu@CObjectAddInImp@@IAEHPAVCMenu@@@Z
  0005a	e9 00 00 00 00	 jmp	 ___CxxFrameHandler3
text$x	ENDS
?MakeConfigMenu@CObjectAddInImp@@IAEHPAVCMenu@@@Z ENDP	; CObjectAddInImp::MakeConfigMenu
; Function compile flags: /Ogtp
; File D:\git\src\IBK\IBK_DRFN\ProjSrc\SrcChartEx\ChartOCX\AddInManager\ChartCommonAddIn\ObjectAddInImp.h
;	COMDAT ?GetRegisteredEventMap@CObjectAddInImp@@MBEPBW4EAddInEventType@IChartAddIn000000@@XZ
_TEXT	SEGMENT
?GetRegisteredEventMap@CObjectAddInImp@@MBEPBW4EAddInEventType@IChartAddIn000000@@XZ PROC ; CObjectAddInImp::GetRegisteredEventMap, COMDAT
; _this$ = ecx

; 29   : 	DECLARE_ADDIN_EVENT_MAP()

  00000	b8 00 00 00 00	 mov	 eax, OFFSET ?m_eRegisteredEventMap@CObjectAddInImp@@1QBW4EAddInEventType@IChartAddIn000000@@B ; CObjectAddInImp::m_eRegisteredEventMap
  00005	c3		 ret	 0
?GetRegisteredEventMap@CObjectAddInImp@@MBEPBW4EAddInEventType@IChartAddIn000000@@XZ ENDP ; CObjectAddInImp::GetRegisteredEventMap
_TEXT	ENDS
; Function compile flags: /Ogtp
; File D:\git\src\IBK\IBK_DRFN\ProjSrc\SrcChartEx\ChartOCX\AddInManager\ChartCommonAddIn\ObjectAddInImp.cpp
; File C:\Program Files (x86)\Microsoft Visual Studio\2019\Community\VC\Tools\MSVC\14.29.30133\atlmfc\include\afxcoll.inl
; File D:\git\src\IBK\IBK_DRFN\ProjSrc\SrcChartEx\ChartOCX\AddInManager\ChartCommonAddIn\ObjectAddInImp.cpp
;	COMDAT ??1CObjectAddInImp@@UAE@XZ
_TEXT	SEGMENT
__$EHRec$ = -12						; size = 12
??1CObjectAddInImp@@UAE@XZ PROC				; CObjectAddInImp::~CObjectAddInImp, COMDAT
; _this$ = ecx

; 51   : {

  00000	55		 push	 ebp
  00001	8b ec		 mov	 ebp, esp
  00003	6a ff		 push	 -1
  00005	68 00 00 00 00	 push	 __ehhandler$??1CObjectAddInImp@@UAE@XZ
  0000a	64 a1 00 00 00
	00		 mov	 eax, DWORD PTR fs:0
  00010	50		 push	 eax
  00011	53		 push	 ebx
  00012	56		 push	 esi
  00013	57		 push	 edi
  00014	a1 00 00 00 00	 mov	 eax, DWORD PTR ___security_cookie
  00019	33 c5		 xor	 eax, ebp
  0001b	50		 push	 eax
  0001c	8d 45 f4	 lea	 eax, DWORD PTR __$EHRec$[ebp]
  0001f	64 a3 00 00 00
	00		 mov	 DWORD PTR fs:0, eax
  00025	8b d9		 mov	 ebx, ecx

; 52   : 	// (2007/6/25 - Seung-Won, Bae) Support Dynamic Loading of ChartObject.dll
; 53   : 	if( m_pBlockTool)

  00027	8b 4b 44	 mov	 ecx, DWORD PTR [ebx+68]
  0002a	c7 03 00 00 00
	00		 mov	 DWORD PTR [ebx], OFFSET ??_7CObjectAddInImp@@6BCIWUnknown@@@
  00030	c7 43 08 00 00
	00 00		 mov	 DWORD PTR [ebx+8], OFFSET ??_7CObjectAddInImp@@6BIChartAddIn000000@@@
  00037	85 c9		 test	 ecx, ecx
  00039	74 0d		 je	 SHORT $LN4@CObjectAdd

; 54   : 	{
; 55   : 		delete m_pBlockTool;

  0003b	8b 01		 mov	 eax, DWORD PTR [ecx]
  0003d	6a 01		 push	 1
  0003f	ff 10		 call	 DWORD PTR [eax]

; 56   : 		m_pBlockTool = NULL;

  00041	c7 43 44 00 00
	00 00		 mov	 DWORD PTR [ebx+68], 0
$LN4@CObjectAdd:

; 57   : 	}
; 58   : 	if( m_hBlockTool)

  00048	8b 43 40	 mov	 eax, DWORD PTR [ebx+64]
  0004b	85 c0		 test	 eax, eax
  0004d	74 0e		 je	 SHORT $LN5@CObjectAdd

; 59   : 	{
; 60   : 		FreeLibrary( m_hBlockTool);

  0004f	50		 push	 eax
  00050	ff 15 00 00 00
	00		 call	 DWORD PTR __imp__FreeLibrary@4

; 61   : 		m_hBlockTool = NULL;

  00056	c7 43 40 00 00
	00 00		 mov	 DWORD PTR [ebx+64], 0
$LN5@CObjectAdd:

; 62   : 	}
; 63   : 
; 64   : 	// 20081007 JS.Kim	 
; 65   : 	CTimeDiffInfo *pTimeInfo;
; 66   : 	POSITION pos = m_lstTimeDiffInfo.GetHeadPosition();

  0005d	8b 73 4c	 mov	 esi, DWORD PTR [ebx+76]

; 67   : 	while( pos )

  00060	85 f6		 test	 esi, esi
  00062	74 21		 je	 SHORT $LN3@CObjectAdd
$LL2@CObjectAdd:

; 68   : 	{
; 69   : 		pTimeInfo = (CTimeDiffInfo *)m_lstTimeDiffInfo.GetNext(pos);

  00064	8b 7e 08	 mov	 edi, DWORD PTR [esi+8]
; File C:\Program Files (x86)\Microsoft Visual Studio\2019\Community\VC\Tools\MSVC\14.29.30133\atlmfc\include\afxcoll.inl

; 359  : 		rPosition = (POSITION) pNode->pNext;

  00067	8b 36		 mov	 esi, DWORD PTR [esi]
; File D:\git\src\IBK\IBK_DRFN\ProjSrc\SrcChartEx\ChartOCX\AddInManager\ChartCommonAddIn\ObjectAddInImp.cpp

; 70   : 		if( pTimeInfo )		delete pTimeInfo;

  00069	85 ff		 test	 edi, edi
  0006b	74 14		 je	 SHORT $LN17@CObjectAdd
  0006d	8d 4f 04	 lea	 ecx, DWORD PTR [edi+4]
  00070	ff 15 00 00 00
	00		 call	 DWORD PTR __imp_??1?$CStringT@DV?$StrTraitMFC_DLL@DV?$ChTraitsCRT@D@ATL@@@@@ATL@@QAE@XZ
  00076	6a 0c		 push	 12			; 0000000cH
  00078	57		 push	 edi
  00079	e8 00 00 00 00	 call	 ??3@YAXPAXI@Z		; operator delete
  0007e	83 c4 08	 add	 esp, 8
$LN17@CObjectAdd:

; 67   : 	while( pos )

  00081	85 f6		 test	 esi, esi
  00083	75 df		 jne	 SHORT $LL2@CObjectAdd
$LN3@CObjectAdd:

; 71   : 	}
; 72   : 	m_lstTimeDiffInfo.RemoveAll();

  00085	8d 4b 48	 lea	 ecx, DWORD PTR [ebx+72]
  00088	e8 00 00 00 00	 call	 ?RemoveAll@CPtrList@@QAEXXZ ; CPtrList::RemoveAll

; 73   : }

  0008d	8d 4b 48	 lea	 ecx, DWORD PTR [ebx+72]
  00090	e8 00 00 00 00	 call	 ??1CPtrList@@UAE@XZ	; CPtrList::~CPtrList
  00095	8b cb		 mov	 ecx, ebx
  00097	e8 00 00 00 00	 call	 ??1CChartAddInBase000000@@MAE@XZ ; CChartAddInBase000000::~CChartAddInBase000000
  0009c	8b 4d f4	 mov	 ecx, DWORD PTR __$EHRec$[ebp]
  0009f	64 89 0d 00 00
	00 00		 mov	 DWORD PTR fs:0, ecx
  000a6	59		 pop	 ecx
  000a7	5f		 pop	 edi
  000a8	5e		 pop	 esi
  000a9	5b		 pop	 ebx
  000aa	8b e5		 mov	 esp, ebp
  000ac	5d		 pop	 ebp
  000ad	c3		 ret	 0
  000ae	cc		 int	 3
  000af	cc		 int	 3
  000b0	cc		 int	 3
  000b1	cc		 int	 3
  000b2	cc		 int	 3
_TEXT	ENDS
;	COMDAT text$x
text$x	SEGMENT
__ehhandler$??1CObjectAddInImp@@UAE@XZ:
  00000	90		 npad	 1
  00001	90		 npad	 1
  00002	8b 54 24 08	 mov	 edx, DWORD PTR [esp+8]
  00006	8d 42 0c	 lea	 eax, DWORD PTR [edx+12]
  00009	8b 4a f0	 mov	 ecx, DWORD PTR [edx-16]
  0000c	33 c8		 xor	 ecx, eax
  0000e	e8 00 00 00 00	 call	 @__security_check_cookie@4
  00013	b8 00 00 00 00	 mov	 eax, OFFSET __ehfuncinfo$??1CObjectAddInImp@@UAE@XZ
  00018	e9 00 00 00 00	 jmp	 ___CxxFrameHandler3
text$x	ENDS
??1CObjectAddInImp@@UAE@XZ ENDP				; CObjectAddInImp::~CObjectAddInImp
; Function compile flags: /Ogtp
; File D:\git\src\IBK\IBK_DRFN\ProjSrc\SrcChartEx\ChartOCX\AddInManager\ChartCommonAddIn\ObjectAddInImp.cpp
; File D:\git\src\IBK\IBK_DRFN\ProjSrc\SrcChartEx\ChartOCX\AddInManager\Include_AddIn\I000000\_IString.h
; File D:\git\src\IBK\IBK_DRFN\ProjSrc\SrcChartEx\ChartOCX\AddInManager\ChartCommonAddIn\ObjectAddInImp.cpp
; File C:\Program Files (x86)\Microsoft Visual Studio\2019\Community\VC\Tools\MSVC\14.29.30133\atlmfc\include\cstringt.h
; File D:\git\src\IBK\IBK_DRFN\ProjSrc\SrcChartEx\ChartOCX\AddInManager\ChartCommonAddIn\ObjectAddInImp.cpp
; File C:\Program Files (x86)\Microsoft Visual Studio\2019\Community\VC\Tools\MSVC\14.29.30133\atlmfc\include\cstringt.h
; File C:\Program Files (x86)\Microsoft Visual Studio\2019\Community\VC\Tools\MSVC\14.29.30133\atlmfc\include\atlsimpstr.h
; File C:\Program Files (x86)\Microsoft Visual Studio\2019\Community\VC\Tools\MSVC\14.29.30133\atlmfc\include\cstringt.h
; File D:\git\src\IBK\IBK_DRFN\ProjSrc\SrcChartEx\ChartOCX\AddInManager\ChartCommonAddIn\ObjectAddInImp.cpp
; File D:\git\src\IBK\IBK_DRFN\ProjSrc\SrcChartEx\ChartOCX\AddInManager\Include_AddIn\I000000\_IString.h
; File D:\git\src\IBK\IBK_DRFN\ProjSrc\SrcChartEx\ChartOCX\AddInManager\ChartCommonAddIn\ObjectAddInImp.cpp
;	COMDAT ??0CObjectAddInImp@@QAE@PAUIChartOCX000000@@PAUIAddInDllBase@@@Z
_TEXT	SEGMENT
_szOCXPath$ = -28					; size = 8
_this$ = -20						; size = 4
$T2 = -16						; size = 4
__$EHRec$ = -12						; size = 12
$T3 = 8							; size = 4
_p_pIChartOCX$ = 8					; size = 4
$T4 = 12						; size = 4
_p_pIAddInDllBase$ = 12					; size = 4
??0CObjectAddInImp@@QAE@PAUIChartOCX000000@@PAUIAddInDllBase@@@Z PROC ; CObjectAddInImp::CObjectAddInImp, COMDAT
; _this$ = ecx

; 32   : {

  00000	55		 push	 ebp
  00001	8b ec		 mov	 ebp, esp
  00003	6a ff		 push	 -1
  00005	68 00 00 00 00	 push	 __ehhandler$??0CObjectAddInImp@@QAE@PAUIChartOCX000000@@PAUIAddInDllBase@@@Z
  0000a	64 a1 00 00 00
	00		 mov	 eax, DWORD PTR fs:0
  00010	50		 push	 eax
  00011	83 ec 10	 sub	 esp, 16			; 00000010H
  00014	53		 push	 ebx
  00015	56		 push	 esi
  00016	57		 push	 edi
  00017	a1 00 00 00 00	 mov	 eax, DWORD PTR ___security_cookie
  0001c	33 c5		 xor	 eax, ebp
  0001e	50		 push	 eax
  0001f	8d 45 f4	 lea	 eax, DWORD PTR __$EHRec$[ebp]
  00022	64 a3 00 00 00
	00		 mov	 DWORD PTR fs:0, eax
  00028	8b f9		 mov	 edi, ecx
  0002a	89 7d ec	 mov	 DWORD PTR _this$[ebp], edi
  0002d	c7 45 f0 00 00
	00 00		 mov	 DWORD PTR $T2[ebp], 0
  00034	ff 75 0c	 push	 DWORD PTR _p_pIAddInDllBase$[ebp]
  00037	8b 75 08	 mov	 esi, DWORD PTR _p_pIChartOCX$[ebp]
  0003a	56		 push	 esi
  0003b	e8 00 00 00 00	 call	 ??0CChartAddInBase000000@@IAE@PAUIChartOCX000000@@PAUIAddInDllBase@@@Z ; CChartAddInBase000000::CChartAddInBase000000
  00040	6a 0a		 push	 10			; 0000000aH
  00042	8d 4f 48	 lea	 ecx, DWORD PTR [edi+72]
  00045	c7 45 fc 00 00
	00 00		 mov	 DWORD PTR __$EHRec$[ebp+8], 0
  0004c	c7 07 00 00 00
	00		 mov	 DWORD PTR [edi], OFFSET ??_7CObjectAddInImp@@6BCIWUnknown@@@
  00052	c7 47 08 00 00
	00 00		 mov	 DWORD PTR [edi+8], OFFSET ??_7CObjectAddInImp@@6BIChartAddIn000000@@@
  00059	e8 00 00 00 00	 call	 ??0CPtrList@@QAE@H@Z	; CPtrList::CPtrList

; 33   : 	// (2007/6/25 - Seung-Won, Bae) Support Dynamic Loading of ChartObject.dll
; 34   : 	m_pBlockTool = NULL;

  0005e	c7 47 44 00 00
	00 00		 mov	 DWORD PTR [edi+68], 0

; 35   : 	ILPCSTR szOCXPath = p_pIChartOCX->GetOCXPathString();

  00065	8b ce		 mov	 ecx, esi
  00067	8b 06		 mov	 eax, DWORD PTR [esi]
  00069	c6 45 fc 01	 mov	 BYTE PTR __$EHRec$[ebp+8], 1
  0006d	ff 50 6c	 call	 DWORD PTR [eax+108]
; File D:\git\src\IBK\IBK_DRFN\ProjSrc\SrcChartEx\ChartOCX\AddInManager\Include_AddIn\I000000\_IString.h

; 39   : 		m_pIStrData = p_pIString;	// Do not AddRef(). Because It must be Return Value.

  00070	8b d8		 mov	 ebx, eax
  00072	89 5d e8	 mov	 DWORD PTR _szOCXPath$[ebp+4], ebx

; 40   : 		if( m_pIStrData) m_szData = m_pIStrData->GetData();

  00075	85 db		 test	 ebx, ebx
  00077	74 09		 je	 SHORT $LN12@CObjectAdd
  00079	8b 13		 mov	 edx, DWORD PTR [ebx]
  0007b	8b cb		 mov	 ecx, ebx
  0007d	ff 52 10	 call	 DWORD PTR [edx+16]
  00080	eb 02		 jmp	 SHORT $LN36@CObjectAdd
$LN12@CObjectAdd:

; 41   : 		else m_szData = NULL;

  00082	33 c0		 xor	 eax, eax
$LN36@CObjectAdd:
; File D:\git\src\IBK\IBK_DRFN\ProjSrc\SrcChartEx\ChartOCX\AddInManager\ChartCommonAddIn\ObjectAddInImp.cpp

; 35   : 	ILPCSTR szOCXPath = p_pIChartOCX->GetOCXPathString();

  00084	89 45 e4	 mov	 DWORD PTR _szOCXPath$[ebp], eax

; 36   : 	m_hBlockTool = LoadLibraryEx( CString( szOCXPath) + "ChartObject.dll", NULL, LOAD_WITH_ALTERED_SEARCH_PATH);

  00087	50		 push	 eax
  00088	8d 4d 08	 lea	 ecx, DWORD PTR $T3[ebp]
  0008b	c6 45 fc 02	 mov	 BYTE PTR __$EHRec$[ebp+8], 2
  0008f	ff 15 00 00 00
	00		 call	 DWORD PTR __imp_??0?$CStringT@DV?$StrTraitMFC_DLL@DV?$ChTraitsCRT@D@ATL@@@@@ATL@@QAE@PBD@Z
  00095	8b f0		 mov	 esi, eax
; File C:\Program Files (x86)\Microsoft Visual Studio\2019\Community\VC\Tools\MSVC\14.29.30133\atlmfc\include\cstringt.h

; 2401 : 		CStringT strResult( str1.GetManager() );

  00097	8b ce		 mov	 ecx, esi
; File D:\git\src\IBK\IBK_DRFN\ProjSrc\SrcChartEx\ChartOCX\AddInManager\ChartCommonAddIn\ObjectAddInImp.cpp

; 36   : 	m_hBlockTool = LoadLibraryEx( CString( szOCXPath) + "ChartObject.dll", NULL, LOAD_WITH_ALTERED_SEARCH_PATH);

  00099	c6 45 fc 04	 mov	 BYTE PTR __$EHRec$[ebp+8], 4
; File C:\Program Files (x86)\Microsoft Visual Studio\2019\Community\VC\Tools\MSVC\14.29.30133\atlmfc\include\cstringt.h

; 2401 : 		CStringT strResult( str1.GetManager() );

  0009d	ff 15 00 00 00
	00		 call	 DWORD PTR __imp_?GetManager@?$CStringT@DV?$StrTraitMFC_DLL@DV?$ChTraitsCRT@D@ATL@@@@@ATL@@QBEPAUIAtlStringMgr@2@XZ
  000a3	50		 push	 eax
  000a4	8d 4d 0c	 lea	 ecx, DWORD PTR $T4[ebp]
  000a7	ff 15 00 00 00
	00		 call	 DWORD PTR __imp_??0?$CStringT@DV?$StrTraitMFC_DLL@DV?$ChTraitsCRT@D@ATL@@@@@ATL@@QAE@PAUIAtlStringMgr@1@@Z
; File C:\Program Files (x86)\Microsoft Visual Studio\2019\Community\VC\Tools\MSVC\14.29.30133\atlmfc\include\atlsimpstr.h

; 519  : 		return( GetData()->nDataLength );

  000ad	8b 06		 mov	 eax, DWORD PTR [esi]
; File C:\Program Files (x86)\Microsoft Visual Studio\2019\Community\VC\Tools\MSVC\14.29.30133\atlmfc\include\cstringt.h

; 2403 : 		CThisSimpleString::Concatenate( strResult, str1, str1.GetLength(), psz2, CThisSimpleString::StringLength( psz2 ) );

  000af	6a 0f		 push	 15			; 0000000fH
  000b1	68 00 00 00 00	 push	 OFFSET ??_C@_0BA@NMEKAACN@ChartObject?4dll@

; 2404 : 
; 2405 : 		return( strResult );

  000b6	c7 45 f0 01 00
	00 00		 mov	 DWORD PTR $T2[ebp], 1
  000bd	ff 70 f4	 push	 DWORD PTR [eax-12]
  000c0	50		 push	 eax
  000c1	8d 45 0c	 lea	 eax, DWORD PTR $T4[ebp]
  000c4	50		 push	 eax
  000c5	ff 15 00 00 00
	00		 call	 DWORD PTR __imp_?Concatenate@?$CSimpleStringT@D$00@ATL@@KAXAAV12@PBDH1H@Z
  000cb	83 c4 14	 add	 esp, 20			; 00000014H
; File D:\git\src\IBK\IBK_DRFN\ProjSrc\SrcChartEx\ChartOCX\AddInManager\ChartCommonAddIn\ObjectAddInImp.cpp

; 36   : 	m_hBlockTool = LoadLibraryEx( CString( szOCXPath) + "ChartObject.dll", NULL, LOAD_WITH_ALTERED_SEARCH_PATH);

  000ce	6a 08		 push	 8
  000d0	6a 00		 push	 0
  000d2	ff 75 0c	 push	 DWORD PTR $T4[ebp]
  000d5	ff 15 00 00 00
	00		 call	 DWORD PTR __imp__LoadLibraryExA@12
  000db	8d 4d 0c	 lea	 ecx, DWORD PTR $T4[ebp]
  000de	89 47 40	 mov	 DWORD PTR [edi+64], eax
  000e1	ff 15 00 00 00
	00		 call	 DWORD PTR __imp_??1?$CStringT@DV?$StrTraitMFC_DLL@DV?$ChTraitsCRT@D@ATL@@@@@ATL@@QAE@XZ
  000e7	8d 4d 08	 lea	 ecx, DWORD PTR $T3[ebp]
  000ea	c6 45 fc 02	 mov	 BYTE PTR __$EHRec$[ebp+8], 2
  000ee	ff 15 00 00 00
	00		 call	 DWORD PTR __imp_??1?$CStringT@DV?$StrTraitMFC_DLL@DV?$ChTraitsCRT@D@ATL@@@@@ATL@@QAE@XZ

; 37   : 	if( m_hBlockTool)

  000f4	8b 47 40	 mov	 eax, DWORD PTR [edi+64]
  000f7	85 c0		 test	 eax, eax
  000f9	74 15		 je	 SHORT $LN3@CObjectAdd

; 38   : 	{
; 39   : 		FN_CreateBlockTool fnCreateBlockTool = ( FN_CreateBlockTool)GetProcAddress( m_hBlockTool, "CreateBlockTool");

  000fb	68 00 00 00 00	 push	 OFFSET ??_C@_0BA@LCFHGHMC@CreateBlockTool@
  00100	50		 push	 eax
  00101	ff 15 00 00 00
	00		 call	 DWORD PTR __imp__GetProcAddress@8

; 40   : 		if( fnCreateBlockTool) m_pBlockTool = fnCreateBlockTool();

  00107	85 c0		 test	 eax, eax
  00109	74 05		 je	 SHORT $LN3@CObjectAdd
  0010b	ff d0		 call	 eax
  0010d	89 47 44	 mov	 DWORD PTR [edi+68], eax
$LN3@CObjectAdd:

; 41   : 	}
; 42   : 
; 43   : 	if( m_pBlockTool) m_pBlockTool->SetIChartCtrl( m_pIChartOCX->GetIChartCtrl());

  00110	8b 77 44	 mov	 esi, DWORD PTR [edi+68]
  00113	85 f6		 test	 esi, esi
  00115	74 11		 je	 SHORT $LN4@CObjectAdd
  00117	8b 4f 0c	 mov	 ecx, DWORD PTR [edi+12]
  0011a	8b 36		 mov	 esi, DWORD PTR [esi]
  0011c	8b 01		 mov	 eax, DWORD PTR [ecx]
  0011e	ff 50 10	 call	 DWORD PTR [eax+16]
  00121	8b 4f 44	 mov	 ecx, DWORD PTR [edi+68]
  00124	50		 push	 eax
  00125	ff 56 04	 call	 DWORD PTR [esi+4]
$LN4@CObjectAdd:

; 44   : 
; 45   : 	// 20081007 JS.Kim	 .	
; 46   : 	m_nCountTimeDiff = 0;	//    

  00128	c7 47 68 00 00
	00 00		 mov	 DWORD PTR [edi+104], 0

; 47   : 	m_bReadInfo = false;

  0012f	c6 47 64 00	 mov	 BYTE PTR [edi+100], 0
; File D:\git\src\IBK\IBK_DRFN\ProjSrc\SrcChartEx\ChartOCX\AddInManager\Include_AddIn\I000000\_IString.h

; 44   : 	{

  00133	c6 45 fc 05	 mov	 BYTE PTR __$EHRec$[ebp+8], 5

; 45   : 		if( m_pIStrData)

  00137	85 db		 test	 ebx, ebx
  00139	74 06		 je	 SHORT $LN34@CObjectAdd

; 46   : 		{
; 47   : 			m_pIStrData->Release();

  0013b	8b 03		 mov	 eax, DWORD PTR [ebx]
  0013d	53		 push	 ebx
  0013e	ff 50 08	 call	 DWORD PTR [eax+8]
$LN34@CObjectAdd:
; File D:\git\src\IBK\IBK_DRFN\ProjSrc\SrcChartEx\ChartOCX\AddInManager\ChartCommonAddIn\ObjectAddInImp.cpp

; 48   : }

  00141	8b c7		 mov	 eax, edi
  00143	8b 4d f4	 mov	 ecx, DWORD PTR __$EHRec$[ebp]
  00146	64 89 0d 00 00
	00 00		 mov	 DWORD PTR fs:0, ecx
  0014d	59		 pop	 ecx
  0014e	5f		 pop	 edi
  0014f	5e		 pop	 esi
  00150	5b		 pop	 ebx
  00151	8b e5		 mov	 esp, ebp
  00153	5d		 pop	 ebp
  00154	c2 08 00	 ret	 8
_TEXT	ENDS
;	COMDAT text$x
text$x	SEGMENT
__unwindfunclet$??0CObjectAddInImp@@QAE@PAUIChartOCX000000@@PAUIAddInDllBase@@@Z$0:
  00000	8b 4d ec	 mov	 ecx, DWORD PTR _this$[ebp]
  00003	e9 00 00 00 00	 jmp	 ??1CChartAddInBase000000@@MAE@XZ ; CChartAddInBase000000::~CChartAddInBase000000
__unwindfunclet$??0CObjectAddInImp@@QAE@PAUIChartOCX000000@@PAUIAddInDllBase@@@Z$1:
  00008	8b 4d ec	 mov	 ecx, DWORD PTR _this$[ebp]
  0000b	83 c1 48	 add	 ecx, 72			; 00000048H
  0000e	e9 00 00 00 00	 jmp	 ??1CPtrList@@UAE@XZ	; CPtrList::~CPtrList
__unwindfunclet$??0CObjectAddInImp@@QAE@PAUIChartOCX000000@@PAUIAddInDllBase@@@Z$2:
  00013	8d 4d e4	 lea	 ecx, DWORD PTR _szOCXPath$[ebp]
  00016	e9 00 00 00 00	 jmp	 ??1ILPCSTR000000@@QAE@XZ ; ILPCSTR000000::~ILPCSTR000000
__unwindfunclet$??0CObjectAddInImp@@QAE@PAUIChartOCX000000@@PAUIAddInDllBase@@@Z$3:
  0001b	8d 4d 08	 lea	 ecx, DWORD PTR $T3[ebp]
  0001e	ff 25 00 00 00
	00		 jmp	 DWORD PTR __imp_??1?$CStringT@DV?$StrTraitMFC_DLL@DV?$ChTraitsCRT@D@ATL@@@@@ATL@@QAE@XZ
__unwindfunclet$??0CObjectAddInImp@@QAE@PAUIChartOCX000000@@PAUIAddInDllBase@@@Z$5:
  00024	8b 45 f0	 mov	 eax, DWORD PTR $T2[ebp]
  00027	83 e0 01	 and	 eax, 1
  0002a	0f 84 0d 00 00
	00		 je	 $LN18@CObjectAdd
  00030	83 65 f0 fe	 and	 DWORD PTR $T2[ebp], -2	; fffffffeH
  00034	8d 4d 0c	 lea	 ecx, DWORD PTR $T4[ebp]
  00037	ff 25 00 00 00
	00		 jmp	 DWORD PTR __imp_??1?$CStringT@DV?$StrTraitMFC_DLL@DV?$ChTraitsCRT@D@ATL@@@@@ATL@@QAE@XZ
$LN18@CObjectAdd:
  0003d	c3		 ret	 0
  0003e	cc		 int	 3
  0003f	cc		 int	 3
  00040	cc		 int	 3
  00041	cc		 int	 3
  00042	cc		 int	 3
__ehhandler$??0CObjectAddInImp@@QAE@PAUIChartOCX000000@@PAUIAddInDllBase@@@Z:
  00043	90		 npad	 1
  00044	90		 npad	 1
  00045	8b 54 24 08	 mov	 edx, DWORD PTR [esp+8]
  00049	8d 42 0c	 lea	 eax, DWORD PTR [edx+12]
  0004c	8b 4a e0	 mov	 ecx, DWORD PTR [edx-32]
  0004f	33 c8		 xor	 ecx, eax
  00051	e8 00 00 00 00	 call	 @__security_check_cookie@4
  00056	b8 00 00 00 00	 mov	 eax, OFFSET __ehfuncinfo$??0CObjectAddInImp@@QAE@PAUIChartOCX000000@@PAUIAddInDllBase@@@Z
  0005b	e9 00 00 00 00	 jmp	 ___CxxFrameHandler3
text$x	ENDS
??0CObjectAddInImp@@QAE@PAUIChartOCX000000@@PAUIAddInDllBase@@@Z ENDP ; CObjectAddInImp::CObjectAddInImp
; Function compile flags: /Ogtp
; File D:\git\src\IBK\IBK_DRFN\ProjSrc\SrcChartEx\ChartOCX\AddInManager\Include_AddIn\I000000\_ChartAddInBase.h
;	COMDAT ?OnRButtonDblClk@CChartAddInBase000000@@MAEHPAUHDC__@@IAAUtagPOINT@@K@Z
_TEXT	SEGMENT
_p_hDC$ = 8						; size = 4
_nFlags$ = 12						; size = 4
_point$ = 16						; size = 4
_p_dwMouseActionID$ = 20				; size = 4
?OnRButtonDblClk@CChartAddInBase000000@@MAEHPAUHDC__@@IAAUtagPOINT@@K@Z PROC ; CChartAddInBase000000::OnRButtonDblClk, COMDAT
; _this$ = ecx

; 221  : 	virtual BOOL	OnRButtonDblClk(	HDC p_hDC, UINT nFlags, POINT &point, const DWORD p_dwMouseActionID)									{	return FALSE;	}

  00000	33 c0		 xor	 eax, eax
  00002	c2 10 00	 ret	 16			; 00000010H
?OnRButtonDblClk@CChartAddInBase000000@@MAEHPAUHDC__@@IAAUtagPOINT@@K@Z ENDP ; CChartAddInBase000000::OnRButtonDblClk
_TEXT	ENDS
; Function compile flags: /Ogtp
; File D:\git\src\IBK\IBK_DRFN\ProjSrc\SrcChartEx\ChartOCX\AddInManager\Include_AddIn\I000000\_ChartAddInBase.h
;	COMDAT ?OnRButtonDown@CChartAddInBase000000@@MAEHPAUHDC__@@IAAUtagPOINT@@K@Z
_TEXT	SEGMENT
_p_hDC$ = 8						; size = 4
_nFlags$ = 12						; size = 4
_point$ = 16						; size = 4
_p_dwMouseActionID$ = 20				; size = 4
?OnRButtonDown@CChartAddInBase000000@@MAEHPAUHDC__@@IAAUtagPOINT@@K@Z PROC ; CChartAddInBase000000::OnRButtonDown, COMDAT
; _this$ = ecx

; 219  : 	virtual BOOL	OnRButtonDown(		HDC p_hDC, UINT nFlags, POINT &point, const DWORD p_dwMouseActionID)									{	return FALSE;	}

  00000	33 c0		 xor	 eax, eax
  00002	c2 10 00	 ret	 16			; 00000010H
?OnRButtonDown@CChartAddInBase000000@@MAEHPAUHDC__@@IAAUtagPOINT@@K@Z ENDP ; CChartAddInBase000000::OnRButtonDown
_TEXT	ENDS
; Function compile flags: /Ogtp
; File D:\git\src\IBK\IBK_DRFN\ProjSrc\SrcChartEx\ChartOCX\AddInManager\Include_AddIn\I000000\_ChartAddInBase.h
;	COMDAT ?OnMouseWheel@CChartAddInBase000000@@MAEHIFUtagPOINT@@K@Z
_TEXT	SEGMENT
_nFlags$ = 8						; size = 4
_zDelta$ = 12						; size = 2
_pt$ = 16						; size = 8
_p_dwMouseActionID$ = 24				; size = 4
?OnMouseWheel@CChartAddInBase000000@@MAEHIFUtagPOINT@@K@Z PROC ; CChartAddInBase000000::OnMouseWheel, COMDAT
; _this$ = ecx

; 214  : 	virtual BOOL	OnMouseWheel(		UINT nFlags, short zDelta, POINT pt, const DWORD p_dwMouseActionID)										{	return FALSE;	}

  00000	33 c0		 xor	 eax, eax
  00002	c2 14 00	 ret	 20			; 00000014H
?OnMouseWheel@CChartAddInBase000000@@MAEHIFUtagPOINT@@K@Z ENDP ; CChartAddInBase000000::OnMouseWheel
_TEXT	ENDS
; Function compile flags: /Ogtp
; File D:\git\src\IBK\IBK_DRFN\ProjSrc\SrcChartEx\ChartOCX\AddInManager\Include_AddIn\I000000\_ChartAddInBase.h
;	COMDAT ?OnKeyUp@CChartAddInBase000000@@MAEHIII@Z
_TEXT	SEGMENT
_nChar$ = 8						; size = 4
_nRepCnt$ = 12						; size = 4
_nFlags$ = 16						; size = 4
?OnKeyUp@CChartAddInBase000000@@MAEHIII@Z PROC		; CChartAddInBase000000::OnKeyUp, COMDAT
; _this$ = ecx

; 213  : 	virtual BOOL	OnKeyUp(			UINT nChar, UINT nRepCnt, UINT nFlags)																	{	return FALSE;	}

  00000	33 c0		 xor	 eax, eax
  00002	c2 0c 00	 ret	 12			; 0000000cH
?OnKeyUp@CChartAddInBase000000@@MAEHIII@Z ENDP		; CChartAddInBase000000::OnKeyUp
_TEXT	ENDS
; Function compile flags: /Ogtp
; File D:\git\src\IBK\IBK_DRFN\ProjSrc\SrcChartEx\ChartOCX\AddInManager\Include_AddIn\I000000\_ChartAddInBase.h
;	COMDAT ?OnAddInToolCommand@CChartAddInBase000000@@MAEHAAJW4EAICommandType@@J@Z
_TEXT	SEGMENT
_p_lResult$ = 8						; size = 4
_p_eCommandID$ = 12					; size = 4
_p_lParam$ = 16						; size = 4
?OnAddInToolCommand@CChartAddInBase000000@@MAEHAAJW4EAICommandType@@J@Z PROC ; CChartAddInBase000000::OnAddInToolCommand, COMDAT
; _this$ = ecx

; 209  : 	virtual BOOL	OnAddInToolCommand(	long &p_lResult, const EAICommandType p_eCommandID, const long p_lParam)								{	return FALSE;	}

  00000	33 c0		 xor	 eax, eax
  00002	c2 0c 00	 ret	 12			; 0000000cH
?OnAddInToolCommand@CChartAddInBase000000@@MAEHAAJW4EAICommandType@@J@Z ENDP ; CChartAddInBase000000::OnAddInToolCommand
_TEXT	ENDS
; Function compile flags: /Ogtp
; File D:\git\src\IBK\IBK_DRFN\ProjSrc\SrcChartEx\ChartOCX\AddInManager\Include_AddIn\I000000\_ChartAddInBase.h
;	COMDAT ?OnAddInToolCommand@CChartAddInBase000000@@MAEHAAJW4EAICommandType@@PBDPAVCObject@@@Z
_TEXT	SEGMENT
_p_lResult$ = 8						; size = 4
_p_eCommandID$ = 12					; size = 4
_p_szParam$ = 16					; size = 4
_p_pParam$ = 20						; size = 4
?OnAddInToolCommand@CChartAddInBase000000@@MAEHAAJW4EAICommandType@@PBDPAVCObject@@@Z PROC ; CChartAddInBase000000::OnAddInToolCommand, COMDAT
; _this$ = ecx

; 208  : 	virtual BOOL	OnAddInToolCommand(	long &p_lResult, const EAICommandType p_eCommandID, const char *p_szParam, CObject *p_pParam)			{	return FALSE;	}

  00000	33 c0		 xor	 eax, eax
  00002	c2 10 00	 ret	 16			; 00000010H
?OnAddInToolCommand@CChartAddInBase000000@@MAEHAAJW4EAICommandType@@PBDPAVCObject@@@Z ENDP ; CChartAddInBase000000::OnAddInToolCommand
_TEXT	ENDS
; Function compile flags: /Ogtp
; File D:\git\src\IBK\IBK_DRFN\ProjSrc\SrcChartEx\ChartOCX\AddInManager\Include_AddIn\I000000\_ChartAddInBase.h
;	COMDAT ?OnAddInToolCommand@CChartAddInBase000000@@MAEHAAJW4EAICommandType@@PAUIGraphInfo000000@@@Z
_TEXT	SEGMENT
_p_lResult$ = 8						; size = 4
_p_eCommandID$ = 12					; size = 4
_p_pIGraphInfo$ = 16					; size = 4
?OnAddInToolCommand@CChartAddInBase000000@@MAEHAAJW4EAICommandType@@PAUIGraphInfo000000@@@Z PROC ; CChartAddInBase000000::OnAddInToolCommand, COMDAT
; _this$ = ecx

; 206  : 	virtual BOOL	OnAddInToolCommand(	long &p_lResult, const EAICommandType p_eCommandID, IGraphInfo *p_pIGraphInfo)							{	return FALSE;	}

  00000	33 c0		 xor	 eax, eax
  00002	c2 0c 00	 ret	 12			; 0000000cH
?OnAddInToolCommand@CChartAddInBase000000@@MAEHAAJW4EAICommandType@@PAUIGraphInfo000000@@@Z ENDP ; CChartAddInBase000000::OnAddInToolCommand
_TEXT	ENDS
; Function compile flags: /Ogtp
; File D:\git\src\IBK\IBK_DRFN\ProjSrc\SrcChartEx\ChartOCX\AddInManager\Include_AddIn\I000000\_ChartAddInBase.h
;	COMDAT ?OnAddInToolCommand@CChartAddInBase000000@@MAEHAAJW4EAICommandType@@@Z
_TEXT	SEGMENT
_p_lResult$ = 8						; size = 4
_p_eCommandID$ = 12					; size = 4
?OnAddInToolCommand@CChartAddInBase000000@@MAEHAAJW4EAICommandType@@@Z PROC ; CChartAddInBase000000::OnAddInToolCommand, COMDAT
; _this$ = ecx

; 205  : 	virtual BOOL	OnAddInToolCommand(	long &p_lResult, const EAICommandType p_eCommandID)														{	return FALSE;	}

  00000	33 c0		 xor	 eax, eax
  00002	c2 08 00	 ret	 8
?OnAddInToolCommand@CChartAddInBase000000@@MAEHAAJW4EAICommandType@@@Z ENDP ; CChartAddInBase000000::OnAddInToolCommand
_TEXT	ENDS
; Function compile flags: /Ogtp
; File D:\git\src\IBK\IBK_DRFN\ProjSrc\SrcChartEx\ChartOCX\AddInManager\Include_AddIn\I000000\_ChartAddInBase.h
;	COMDAT ?OnAddInToolCommand@CChartAddInBase000000@@MAEHW4EAICommandType@@JPBD11@Z
_TEXT	SEGMENT
_p_eCommandID$ = 8					; size = 4
_p_lParam$ = 12						; size = 4
