; Listing generated by Microsoft (R) Optimizing Compiler Version 19.29.30145.0 

	TITLE	D:\git\src\IBK\IBK_DRFN\#DRfn-CS\_Obj\ChartCommonAddIn\OrderLinkAddInImp.obj
	.686P
	.XMM
	include listing.inc
	.model	flat

INCLUDELIB MSVCRT
INCLUDELIB OLDNAMES

PUBLIC	??_C@_0L@NFCOLNIK@ORDER_LINK@			; `string'
PUBLIC	?m_eRegisteredEventMap@COrderLinkAddInImp@@1QBW4EAddInEventType@IChartAddIn000000@@B ; COrderLinkAddInImp::m_eRegisteredEventMap
CONST	SEGMENT
?m_eRegisteredEventMap@COrderLinkAddInImp@@1QBW4EAddInEventType@IChartAddIn000000@@B DD 022H ; COrderLinkAddInImp::m_eRegisteredEventMap
	DD	015H
	DD	014H
	DD	035H
	DD	07H
	DD	0cH
	DD	019H
	DD	01dH
	DD	033H
	DD	034H
	DD	037H
	DD	02fH
	DD	03cH
	ORG $+192
CONST	ENDS
;	COMDAT ??_C@_0L@NFCOLNIK@ORDER_LINK@
CONST	SEGMENT
??_C@_0L@NFCOLNIK@ORDER_LINK@ DB 'ORDER_LINK', 00H	; `string'
CONST	ENDS
PUBLIC	?__empty_global_delete@@YAXPAX@Z		; __empty_global_delete
PUBLIC	?__empty_global_delete@@YAXPAXI@Z		; __empty_global_delete
PUBLIC	?Serialize@CObject@@UAEXAAVCArchive@@@Z		; CObject::Serialize
PUBLIC	?AssertValid@CObject@@UBEXXZ			; CObject::AssertValid
PUBLIC	?Dump@CObject@@UBEXAAVCDumpContext@@@Z		; CObject::Dump
PUBLIC	?PostConstruct@CIWUnknown@@MAEXXZ		; CIWUnknown::PostConstruct
PUBLIC	?PreDestructX@CIWUnknown@@MAEXXZ		; CIWUnknown::PreDestructX
PUBLIC	?PreDestruct@CIWUnknown@@MAEXXZ			; CIWUnknown::PreDestruct
PUBLIC	?AddRef@CChartAddInBase000000@@MAGKXZ		; CChartAddInBase000000::AddRef
PUBLIC	?Release@CChartAddInBase000000@@MAGKXZ		; CChartAddInBase000000::Release
PUBLIC	?QueryInterface@CChartAddInBase000000@@MAGJABU_GUID@@PAPAX@Z ; CChartAddInBase000000::QueryInterface
PUBLIC	?GetAddInCustomInterface@CChartAddInBase000000@@MAEPAUIUnknown@@XZ ; CChartAddInBase000000::GetAddInCustomInterface
PUBLIC	?InvokeAddIn@CChartAddInBase000000@@MAEHHJ@Z	; CChartAddInBase000000::InvokeAddIn
PUBLIC	?AfeterOnOcxDestroyWindow@CChartAddInBase000000@@MAEXXZ ; CChartAddInBase000000::AfeterOnOcxDestroyWindow
PUBLIC	?ChangeChartMode@CChartAddInBase000000@@MAEXW4CHART_MODE@CChartInfo@@@Z ; CChartAddInBase000000::ChangeChartMode
PUBLIC	?OnGSharedDataChange@CChartAddInBase000000@@MAEXPBD0H@Z ; CChartAddInBase000000::OnGSharedDataChange
PUBLIC	?OnLSharedDataChange@CChartAddInBase000000@@MAEXPBD0@Z ; CChartAddInBase000000::OnLSharedDataChange
PUBLIC	?OnTimer@CChartAddInBase000000@@MAEXI@Z		; CChartAddInBase000000::OnTimer
PUBLIC	?OnCaptureChanged@CChartAddInBase000000@@MAEXPAUHWND__@@QAUHBITMAP__@@@Z ; CChartAddInBase000000::OnCaptureChanged
PUBLIC	?OnResetMainBlock@CChartAddInBase000000@@MAEXXZ	; CChartAddInBase000000::OnResetMainBlock
PUBLIC	?OnUserIndiatorConditionLoaded@CChartAddInBase000000@@MAEXXZ ; CChartAddInBase000000::OnUserIndiatorConditionLoaded
PUBLIC	?OnChartItemChanged@CChartAddInBase000000@@MAEXXZ ; CChartAddInBase000000::OnChartItemChanged
PUBLIC	?OnGraphDataChanged@CChartAddInBase000000@@MAEXXZ ; CChartAddInBase000000::OnGraphDataChanged
PUBLIC	?OnBlockRemoved@CChartAddInBase000000@@MAEXHH@Z	; CChartAddInBase000000::OnBlockRemoved
PUBLIC	?OnGraphAdded@CChartAddInBase000000@@MAEXPBD0@Z	; CChartAddInBase000000::OnGraphAdded
PUBLIC	?OnManualRealData@CChartAddInBase000000@@MAEXPBDNH@Z ; CChartAddInBase000000::OnManualRealData
PUBLIC	?OnContextMenu@CChartAddInBase000000@@MAEXPAUHWND__@@AAUtagPOINT@@@Z ; CChartAddInBase000000::OnContextMenu
PUBLIC	?OnGraphDeleted@CChartAddInBase000000@@MAEXPBD0@Z ; CChartAddInBase000000::OnGraphDeleted
PUBLIC	?OnPacketTruncated@CChartAddInBase000000@@MAEXH@Z ; CChartAddInBase000000::OnPacketTruncated
PUBLIC	?OnBlockChanged@CChartAddInBase000000@@MAEXW4BLOCKBEHAVIOR@CBlockBaseData@@HHHH@Z ; CChartAddInBase000000::OnBlockChanged
PUBLIC	?OnRealData@CChartAddInBase000000@@MAEXPBDN0@Z	; CChartAddInBase000000::OnRealData
PUBLIC	?OnIndexedRealData@CChartAddInBase000000@@MAEXPBDHN@Z ; CChartAddInBase000000::OnIndexedRealData
PUBLIC	?OnRealPacketEnd@CChartAddInBase000000@@MAEXPBD@Z ; CChartAddInBase000000::OnRealPacketEnd
PUBLIC	?OnRecalculationComplete@CChartAddInBase000000@@MAEXXZ ; CChartAddInBase000000::OnRecalculationComplete
PUBLIC	?OnPreRealData@CChartAddInBase000000@@MAEHPBDAAN0H@Z ; CChartAddInBase000000::OnPreRealData
PUBLIC	?OnPreIndexedRealData@CChartAddInBase000000@@MAEHPBDHAANH@Z ; CChartAddInBase000000::OnPreIndexedRealData
PUBLIC	?OnPreRealPacketEnd@CChartAddInBase000000@@MAEHPBDH@Z ; CChartAddInBase000000::OnPreRealPacketEnd
PUBLIC	?OnPreNMTRClock@CChartAddInBase000000@@MAEHAA_J@Z ; CChartAddInBase000000::OnPreNMTRClock
PUBLIC	?OnCmdMsg@CChartAddInBase000000@@MAEHIHPAUICmdUI000000@@@Z ; CChartAddInBase000000::OnCmdMsg
PUBLIC	?OnAddInMsg@CChartAddInBase000000@@MAEHPBDJ@Z	; CChartAddInBase000000::OnAddInMsg
PUBLIC	?OnAddInToolCommand@CChartAddInBase000000@@MAEHW4EAICommandType@@@Z ; CChartAddInBase000000::OnAddInToolCommand
PUBLIC	?OnAddInToolCommand@CChartAddInBase000000@@MAEHW4EAICommandType@@PAUHDC__@@IAAUtagPOINT@@K@Z ; CChartAddInBase000000::OnAddInToolCommand
PUBLIC	?OnAddInToolCommand@CChartAddInBase000000@@MAEHW4EAICommandType@@PBD@Z ; CChartAddInBase000000::OnAddInToolCommand
PUBLIC	?OnAddInToolCommand@CChartAddInBase000000@@MAEHW4EAICommandType@@PBD1@Z ; CChartAddInBase000000::OnAddInToolCommand
PUBLIC	?OnAddInToolCommand@CChartAddInBase000000@@MAEHW4EAICommandType@@PBDJ@Z ; CChartAddInBase000000::OnAddInToolCommand
PUBLIC	?OnAddInToolCommand@CChartAddInBase000000@@MAEHW4EAICommandType@@PBUIAddInDllBase@@@Z ; CChartAddInBase000000::OnAddInToolCommand
PUBLIC	?OnAddInToolCommand@CChartAddInBase000000@@MAEHW4EAICommandType@@JPBD@Z ; CChartAddInBase000000::OnAddInToolCommand
PUBLIC	?OnAddInToolCommand@CChartAddInBase000000@@MAEHW4EAICommandType@@JPBD11@Z ; CChartAddInBase000000::OnAddInToolCommand
PUBLIC	?OnAddInToolCommand@CChartAddInBase000000@@MAEHW4EAICommandType@@JJ@Z ; CChartAddInBase000000::OnAddInToolCommand
PUBLIC	?OnAddInToolCommand@CChartAddInBase000000@@MAEHW4EAICommandType@@JJJJJJJJJ@Z ; CChartAddInBase000000::OnAddInToolCommand
PUBLIC	?OnAddInToolCommand@CChartAddInBase000000@@MAEHAAJW4EAICommandType@@PAUIGraphInfo000000@@@Z ; CChartAddInBase000000::OnAddInToolCommand
PUBLIC	?OnAddInToolCommand@CChartAddInBase000000@@MAEHAAJW4EAICommandType@@PBD@Z ; CChartAddInBase000000::OnAddInToolCommand
PUBLIC	?OnAddInToolCommand@CChartAddInBase000000@@MAEHAAJW4EAICommandType@@PBDPAVCObject@@@Z ; CChartAddInBase000000::OnAddInToolCommand
PUBLIC	?OnAddInToolCommand@CChartAddInBase000000@@MAEHAAJW4EAICommandType@@J@Z ; CChartAddInBase000000::OnAddInToolCommand
PUBLIC	?OnAddInToolCommand@CChartAddInBase000000@@MAEHAAJW4EAICommandType@@JJ@Z ; CChartAddInBase000000::OnAddInToolCommand
PUBLIC	?OnKeyDown@CChartAddInBase000000@@MAEHIII@Z	; CChartAddInBase000000::OnKeyDown
PUBLIC	?OnKeyUp@CChartAddInBase000000@@MAEHIII@Z	; CChartAddInBase000000::OnKeyUp
PUBLIC	?OnMouseWheel@CChartAddInBase000000@@MAEHIFUtagPOINT@@K@Z ; CChartAddInBase000000::OnMouseWheel
PUBLIC	?OnLButtonDown@CChartAddInBase000000@@MAEHPAUHDC__@@IAAUtagPOINT@@K@Z ; CChartAddInBase000000::OnLButtonDown
PUBLIC	?OnLButtonUp@CChartAddInBase000000@@MAEHPAUHDC__@@IAAUtagPOINT@@K@Z ; CChartAddInBase000000::OnLButtonUp
PUBLIC	?OnRButtonDown@CChartAddInBase000000@@MAEHPAUHDC__@@IAAUtagPOINT@@K@Z ; CChartAddInBase000000::OnRButtonDown
PUBLIC	?OnRButtonUp@CChartAddInBase000000@@MAEHPAUHDC__@@IAAUtagPOINT@@K@Z ; CChartAddInBase000000::OnRButtonUp
PUBLIC	?OnRButtonDblClk@CChartAddInBase000000@@MAEHPAUHDC__@@IAAUtagPOINT@@K@Z ; CChartAddInBase000000::OnRButtonDblClk
PUBLIC	??0COrderLinkAddInImp@@QAE@PAUIChartOCX000000@@PAUIAddInDllBase@@@Z ; COrderLinkAddInImp::COrderLinkAddInImp
PUBLIC	??1COrderLinkAddInImp@@UAE@XZ			; COrderLinkAddInImp::~COrderLinkAddInImp
PUBLIC	?GetRegisteredEventMap@COrderLinkAddInImp@@MBEPBW4EAddInEventType@IChartAddIn000000@@XZ ; COrderLinkAddInImp::GetRegisteredEventMap
PUBLIC	?ResetBound@COrderLinkAddInImp@@MAEXPBD@Z	; COrderLinkAddInImp::ResetBound
PUBLIC	?OnResetChart@COrderLinkAddInImp@@MAEXXZ	; COrderLinkAddInImp::OnResetChart
PUBLIC	?OnDrawBeforeGraph@COrderLinkAddInImp@@MAEXPAUHDC__@@@Z ; COrderLinkAddInImp::OnDrawBeforeGraph
PUBLIC	?OnPacketDataMultiItem@COrderLinkAddInImp@@MAEXPBD0H@Z ; COrderLinkAddInImp::OnPacketDataMultiItem
PUBLIC	?OnDrawAfterGraph@COrderLinkAddInImp@@MAEXPAUHDC__@@@Z ; COrderLinkAddInImp::OnDrawAfterGraph
PUBLIC	?OnLoadEnvironment@COrderLinkAddInImp@@MAEXPAUIPropertyMap@@@Z ; COrderLinkAddInImp::OnLoadEnvironment
PUBLIC	?OnSaveEnvironment@COrderLinkAddInImp@@MAEXPAUIPropertyMap@@@Z ; COrderLinkAddInImp::OnSaveEnvironment
PUBLIC	?DrawCursor@COrderLinkAddInImp@@MAE?AUtagRECT@@PAUHDC__@@@Z ; COrderLinkAddInImp::DrawCursor
PUBLIC	?GetChartBasicData@COrderLinkAddInImp@@IAEHXZ	; COrderLinkAddInImp::GetChartBasicData
PUBLIC	?InvokeAddInStr@COrderLinkAddInImp@@MAEHPBD0@Z	; COrderLinkAddInImp::InvokeAddInStr
PUBLIC	?OnToolCommand@COrderLinkAddInImp@@MAEXHH@Z	; COrderLinkAddInImp::OnToolCommand
PUBLIC	?OnAddInToolCommand@COrderLinkAddInImp@@MAEHW4EAICommandType@@J@Z ; COrderLinkAddInImp::OnAddInToolCommand
PUBLIC	?OnAddInToolCommand@COrderLinkAddInImp@@MAEHAAJW4EAICommandType@@@Z ; COrderLinkAddInImp::OnAddInToolCommand
PUBLIC	?OnLButtonDblClk@COrderLinkAddInImp@@MAEHPAUHDC__@@IAAUtagPOINT@@K@Z ; COrderLinkAddInImp::OnLButtonDblClk
PUBLIC	?OnMouseMove@COrderLinkAddInImp@@MAEHPAUHDC__@@IAAUtagPOINT@@KQAUHBITMAP__@@@Z ; COrderLinkAddInImp::OnMouseMove
PUBLIC	??_GCOrderLinkAddInImp@@UAEPAXI@Z		; COrderLinkAddInImp::`scalar deleting destructor'
PUBLIC	??1CMultiLanguageResourceSetter@@QAE@XZ		; CMultiLanguageResourceSetter::~CMultiLanguageResourceSetter
PUBLIC	??1ILPCSTR000000@@QAE@XZ			; ILPCSTR000000::~ILPCSTR000000
PUBLIC	?QueryInterface@CChartAddInBase000000@@O7AGJABU_GUID@@PAPAX@Z ; [thunk]:CChartAddInBase000000::QueryInterface`adjustor{8}'
PUBLIC	?AddRef@CChartAddInBase000000@@O7AGKXZ		; [thunk]:CChartAddInBase000000::AddRef`adjustor{8}'
PUBLIC	?Release@CChartAddInBase000000@@O7AGKXZ		; [thunk]:CChartAddInBase000000::Release`adjustor{8}'
PUBLIC	??_ECOrderLinkAddInImp@@W7AEPAXI@Z		; [thunk]:COrderLinkAddInImp::`vector deleting destructor'
PUBLIC	??_C@_00CNPNBAHC@@				; `string'
PUBLIC	??_R0?AVCObject@@@8				; CObject `RTTI Type Descriptor'
PUBLIC	??_R3CObject@@8					; CObject::`RTTI Class Hierarchy Descriptor'
PUBLIC	??_R2CObject@@8					; CObject::`RTTI Base Class Array'
PUBLIC	??_R1A@?0A@EA@CObject@@8			; CObject::`RTTI Base Class Descriptor at (0,-1,0,64)'
PUBLIC	??_R0?AUIUnknown@@@8				; IUnknown `RTTI Type Descriptor'
PUBLIC	??_R3IUnknown@@8				; IUnknown::`RTTI Class Hierarchy Descriptor'
PUBLIC	??_R2IUnknown@@8				; IUnknown::`RTTI Base Class Array'
PUBLIC	??_R1A@?0A@EA@IUnknown@@8			; IUnknown::`RTTI Base Class Descriptor at (0,-1,0,64)'
PUBLIC	?m_strAddInItemName@COrderLinkAddInImp@@2V?$CStringT@DV?$StrTraitMFC_DLL@DV?$ChTraitsCRT@D@ATL@@@@@ATL@@A ; COrderLinkAddInImp::m_strAddInItemName
PUBLIC	??_7COrderLinkAddInImp@@6BCIWUnknown@@@		; COrderLinkAddInImp::`vftable'
PUBLIC	??_7COrderLinkAddInImp@@6BIChartAddIn000000@@@	; COrderLinkAddInImp::`vftable'
PUBLIC	??_C@_02LIELOMNJ@on@				; `string'
PUBLIC	??_C@_04GHNNFJCK@?$CF?40f@			; `string'
PUBLIC	??_C@_06DNBDMDIL@?$CF?$CF?4?$CFdf@		; `string'
PUBLIC	??_C@_07OEKCJGKM@HBPRICE@			; `string'
PUBLIC	??_C@_01GEODFPGF@?8@				; `string'
PUBLIC	??_C@_07MGCPDNLD@DEFAULT@			; `string'
PUBLIC	??_C@_05HHFOOOHO@?$CFs?0?$CFs@			; `string'
PUBLIC	??_C@_0CA@HIKIOJEN@ChartCommonAddIn?4dll?3ORDER_LINK@ ; `string'
PUBLIC	??_R0?AUIChartAddIn000000@@@8			; IChartAddIn000000 `RTTI Type Descriptor'
PUBLIC	??_R3IChartAddIn000000@@8			; IChartAddIn000000::`RTTI Class Hierarchy Descriptor'
PUBLIC	??_R2IChartAddIn000000@@8			; IChartAddIn000000::`RTTI Base Class Array'
PUBLIC	??_R1A@?0A@EA@IChartAddIn000000@@8		; IChartAddIn000000::`RTTI Base Class Descriptor at (0,-1,0,64)'
PUBLIC	??_R4COrderLinkAddInImp@@6BCIWUnknown@@@	; COrderLinkAddInImp::`RTTI Complete Object Locator'
PUBLIC	??_R0?AVCOrderLinkAddInImp@@@8			; COrderLinkAddInImp `RTTI Type Descriptor'
PUBLIC	??_R3COrderLinkAddInImp@@8			; COrderLinkAddInImp::`RTTI Class Hierarchy Descriptor'
PUBLIC	??_R2COrderLinkAddInImp@@8			; COrderLinkAddInImp::`RTTI Base Class Array'
PUBLIC	??_R1A@?0A@EA@COrderLinkAddInImp@@8		; COrderLinkAddInImp::`RTTI Base Class Descriptor at (0,-1,0,64)'
PUBLIC	??_R1A@?0A@EA@CBoundMarkerAddInImp@@8		; CBoundMarkerAddInImp::`RTTI Base Class Descriptor at (0,-1,0,64)'
PUBLIC	??_R0?AVCBoundMarkerAddInImp@@@8		; CBoundMarkerAddInImp `RTTI Type Descriptor'
PUBLIC	??_R3CBoundMarkerAddInImp@@8			; CBoundMarkerAddInImp::`RTTI Class Hierarchy Descriptor'
PUBLIC	??_R2CBoundMarkerAddInImp@@8			; CBoundMarkerAddInImp::`RTTI Base Class Array'
PUBLIC	??_R1A@?0A@EA@CChartAddInBase000000@@8		; CChartAddInBase000000::`RTTI Base Class Descriptor at (0,-1,0,64)'
PUBLIC	??_R0?AVCChartAddInBase000000@@@8		; CChartAddInBase000000 `RTTI Type Descriptor'
PUBLIC	??_R3CChartAddInBase000000@@8			; CChartAddInBase000000::`RTTI Class Hierarchy Descriptor'
PUBLIC	??_R2CChartAddInBase000000@@8			; CChartAddInBase000000::`RTTI Base Class Array'
PUBLIC	??_R1A@?0A@EA@CIWUnknown@@8			; CIWUnknown::`RTTI Base Class Descriptor at (0,-1,0,64)'
PUBLIC	??_R0?AVCIWUnknown@@@8				; CIWUnknown `RTTI Type Descriptor'
PUBLIC	??_R3CIWUnknown@@8				; CIWUnknown::`RTTI Class Hierarchy Descriptor'
PUBLIC	??_R2CIWUnknown@@8				; CIWUnknown::`RTTI Base Class Array'
PUBLIC	??_R17?0A@EA@IChartAddIn000000@@8		; IChartAddIn000000::`RTTI Base Class Descriptor at (8,-1,0,64)'
PUBLIC	??_R17?0A@EA@IUnknown@@8			; IUnknown::`RTTI Base Class Descriptor at (8,-1,0,64)'
PUBLIC	??_R4COrderLinkAddInImp@@6BIChartAddIn000000@@@	; COrderLinkAddInImp::`RTTI Complete Object Locator'
PUBLIC	__real@0000000000000000
PUBLIC	__real@3fe0000000000000
PUBLIC	__real@4059000000000000
EXTRN	??3@YAXPAX@Z:PROC				; operator delete
EXTRN	?__global_delete@@YAXPAXI@Z:PROC		; __global_delete
EXTRN	_atexit:PROC
EXTRN	___std_terminate:PROC
EXTRN	_strchr:PROC
EXTRN	__imp__stricmp:PROC
EXTRN	__imp__GetTextExtentPoint32A@16:PROC
EXTRN	__imp__Rectangle@20:PROC
EXTRN	__imp__GetClientRect@8:PROC
EXTRN	__imp__SetRectEmpty@4:PROC
EXTRN	__imp__CopyRect@8:PROC
EXTRN	__imp__InflateRect@12:PROC
EXTRN	__imp__UnionRect@12:PROC
EXTRN	__imp__PtInRect@12:PROC
EXTRN	__imp__LoadCursorW@8:PROC
EXTRN	__imp__atof:PROC
EXTRN	__imp__atol:PROC
EXTRN	?GetRuntimeClass@CObject@@UBEPAUCRuntimeClass@@XZ:PROC ; CObject::GetRuntimeClass
EXTRN	__imp_?Empty@?$CSimpleStringT@D$00@ATL@@QAEXXZ:PROC
EXTRN	__imp_?GetBuffer@?$CSimpleStringT@D$00@ATL@@QAEPADH@Z:PROC
EXTRN	__imp_?ReleaseBuffer@?$CSimpleStringT@D$00@ATL@@QAEXH@Z:PROC
EXTRN	__imp_??0?$CStringT@DV?$StrTraitMFC_DLL@DV?$ChTraitsCRT@D@ATL@@@@@ATL@@QAE@XZ:PROC
EXTRN	__imp_??0?$CStringT@DV?$StrTraitMFC_DLL@DV?$ChTraitsCRT@D@ATL@@@@@ATL@@QAE@PBD@Z:PROC
EXTRN	__imp_??1?$CStringT@DV?$StrTraitMFC_DLL@DV?$ChTraitsCRT@D@ATL@@@@@ATL@@QAE@XZ:PROC
EXTRN	__imp_??4?$CStringT@DV?$StrTraitMFC_DLL@DV?$ChTraitsCRT@D@ATL@@@@@ATL@@QAEAAV01@ABV01@@Z:PROC
EXTRN	__imp_??4?$CStringT@DV?$StrTraitMFC_DLL@DV?$ChTraitsCRT@D@ATL@@@@@ATL@@QAEAAV01@PBD@Z:PROC
EXTRN	__imp_?Find@?$CStringT@DV?$StrTraitMFC_DLL@DV?$ChTraitsCRT@D@ATL@@@@@ATL@@QBEHDH@Z:PROC
EXTRN	__imp_?Find@?$CStringT@DV?$StrTraitMFC_DLL@DV?$ChTraitsCRT@D@ATL@@@@@ATL@@QBEHPBDH@Z:PROC
EXTRN	__imp_?TrimRight@?$CStringT@DV?$StrTraitMFC_DLL@DV?$ChTraitsCRT@D@ATL@@@@@ATL@@QAEAAV12@XZ:PROC
EXTRN	__imp_?Left@?$CStringT@DV?$StrTraitMFC_DLL@DV?$ChTraitsCRT@D@ATL@@@@@ATL@@QBE?AV12@H@Z:PROC
EXTRN	__imp_?Format@?$CStringT@DV?$StrTraitMFC_DLL@DV?$ChTraitsCRT@D@ATL@@@@@ATL@@QAAXPBDZZ:PROC
EXTRN	?AfxGetModuleState@@YGPAVAFX_MODULE_STATE@@XZ:PROC ; AfxGetModuleState
EXTRN	?AfxGetStaticModuleState@@YGPAVAFX_MODULE_STATE@@XZ:PROC ; AfxGetStaticModuleState
EXTRN	?FromHandle@CDC@@SGPAV1@PAUHDC__@@@Z:PROC	; CDC::FromHandle
EXTRN	?SelectObject@CDC@@QAEPAVCPen@@PAV2@@Z:PROC	; CDC::SelectObject
EXTRN	?SelectObject@CDC@@QAEPAVCBrush@@PAV2@@Z:PROC	; CDC::SelectObject
EXTRN	?SetROP2@CDC@@QAEHH@Z:PROC			; CDC::SetROP2
EXTRN	?MoveTo@CDC@@QAE?AVCPoint@@HH@Z:PROC		; CDC::MoveTo
EXTRN	?LineTo@CDC@@QAEHHH@Z:PROC			; CDC::LineTo
EXTRN	?AfxFindResourceHandle@@YGPAUHINSTANCE__@@PBD0@Z:PROC ; AfxFindResourceHandle
EXTRN	?AddRef@CIWUnknown@@MAGKXZ:PROC			; CIWUnknown::AddRef
EXTRN	?Release@CIWUnknown@@MAGKXZ:PROC		; CIWUnknown::Release
EXTRN	?HasFullManager@CChartAddInBase000000@@MAEHXZ:PROC ; CChartAddInBase000000::HasFullManager
EXTRN	?RegisterEventMap@CChartAddInBase000000@@UAEHH@Z:PROC ; CChartAddInBase000000::RegisterEventMap
EXTRN	?UnregisterEventMap@CChartAddInBase000000@@UAEHXZ:PROC ; CChartAddInBase000000::UnregisterEventMap
EXTRN	?OnOcxDestroyWindow@CChartAddInBase000000@@MAEXXZ:PROC ; CChartAddInBase000000::OnOcxDestroyWindow
EXTRN	??0CBoundMarkerAddInImp@@QAE@PAUIChartOCX000000@@PAUIAddInDllBase@@@Z:PROC ; CBoundMarkerAddInImp::CBoundMarkerAddInImp
EXTRN	??1CBoundMarkerAddInImp@@UAE@XZ:PROC		; CBoundMarkerAddInImp::~CBoundMarkerAddInImp
EXTRN	?ResetBound@CBoundMarkerAddInImp@@MAEXPBD@Z:PROC ; CBoundMarkerAddInImp::ResetBound
EXTRN	?EnableBoundMark@CBoundMarkerAddInImp@@IAEXH@Z:PROC ; CBoundMarkerAddInImp::EnableBoundMark
EXTRN	?OnDrawBeforeGraph@CBoundMarkerAddInImp@@MAEXPAUHDC__@@@Z:PROC ; CBoundMarkerAddInImp::OnDrawBeforeGraph
EXTRN	?OnPacketDataMultiItem@CBoundMarkerAddInImp@@MAEXPBD0H@Z:PROC ; CBoundMarkerAddInImp::OnPacketDataMultiItem
EXTRN	?OnLoadEnvironment@CBoundMarkerAddInImp@@MAEXPAUIPropertyMap@@@Z:PROC ; CBoundMarkerAddInImp::OnLoadEnvironment
EXTRN	?OnSaveEnvironment@CBoundMarkerAddInImp@@MAEXPAUIPropertyMap@@@Z:PROC ; CBoundMarkerAddInImp::OnSaveEnvironment
EXTRN	??_ECOrderLinkAddInImp@@UAEPAXI@Z:PROC		; COrderLinkAddInImp::`vector deleting destructor'
EXTRN	?DoubleToString@CDataConversion@@SA?AV?$CStringT@DV?$StrTraitMFC_DLL@DV?$ChTraitsCRT@D@ATL@@@@@ATL@@ABNABV23@@Z:PROC ; CDataConversion::DoubleToString
EXTRN	@__security_check_cookie@4:PROC
EXTRN	___CxxFrameHandler3:PROC
EXTRN	__libm_sse2_log10_precise:PROC
EXTRN	??_7type_info@@6B@:QWORD			; type_info::`vftable'
EXTRN	?g_iMetaTable@@3VIMetaTable@@A:BYTE		; g_iMetaTable
EXTRN	___security_cookie:DWORD
EXTRN	__fltused:DWORD
_BSS	SEGMENT
?m_strAddInItemName@COrderLinkAddInImp@@2V?$CStringT@DV?$StrTraitMFC_DLL@DV?$ChTraitsCRT@D@ATL@@@@@ATL@@A DD 01H DUP (?) ; COrderLinkAddInImp::m_strAddInItemName
_BSS	ENDS
CRT$XCU	SEGMENT
??m_strAddInItemName$initializer$@COrderLinkAddInImp@@2P6AXXZA@@3P6AXXZA DD FLAT:??__E?m_strAddInItemName@COrderLinkAddInImp@@2V?$CStringT@DV?$StrTraitMFC_DLL@DV?$ChTraitsCRT@D@ATL@@@@@ATL@@A@@YAXXZ ; ??m_strAddInItemName$initializer$@COrderLinkAddInImp@@2P6AXXZA@@3P6AXXZA
CRT$XCU	ENDS
;	COMDAT __real@4059000000000000
CONST	SEGMENT
__real@4059000000000000 DQ 04059000000000000r	; 100
CONST	ENDS
;	COMDAT __real@3fe0000000000000
CONST	SEGMENT
__real@3fe0000000000000 DQ 03fe0000000000000r	; 0.5
CONST	ENDS
;	COMDAT __real@0000000000000000
CONST	SEGMENT
__real@0000000000000000 DQ 00000000000000000r	; 0
CONST	ENDS
;	COMDAT ??_R4COrderLinkAddInImp@@6BIChartAddIn000000@@@
rdata$r	SEGMENT
??_R4COrderLinkAddInImp@@6BIChartAddIn000000@@@ DD 00H	; COrderLinkAddInImp::`RTTI Complete Object Locator'
	DD	08H
	DD	00H
	DD	FLAT:??_R0?AVCOrderLinkAddInImp@@@8
	DD	FLAT:??_R3COrderLinkAddInImp@@8
rdata$r	ENDS
;	COMDAT ??_R17?0A@EA@IUnknown@@8
rdata$r	SEGMENT
??_R17?0A@EA@IUnknown@@8 DD FLAT:??_R0?AUIUnknown@@@8	; IUnknown::`RTTI Base Class Descriptor at (8,-1,0,64)'
	DD	00H
	DD	08H
	DD	0ffffffffH
	DD	00H
	DD	040H
	DD	FLAT:??_R3IUnknown@@8
rdata$r	ENDS
;	COMDAT ??_R17?0A@EA@IChartAddIn000000@@8
rdata$r	SEGMENT
??_R17?0A@EA@IChartAddIn000000@@8 DD FLAT:??_R0?AUIChartAddIn000000@@@8 ; IChartAddIn000000::`RTTI Base Class Descriptor at (8,-1,0,64)'
	DD	01H
	DD	08H
	DD	0ffffffffH
	DD	00H
	DD	040H
	DD	FLAT:??_R3IChartAddIn000000@@8
rdata$r	ENDS
;	COMDAT ??_R2CIWUnknown@@8
rdata$r	SEGMENT
??_R2CIWUnknown@@8 DD FLAT:??_R1A@?0A@EA@CIWUnknown@@8	; CIWUnknown::`RTTI Base Class Array'
	DD	FLAT:??_R1A@?0A@EA@CObject@@8
rdata$r	ENDS
;	COMDAT ??_R3CIWUnknown@@8
rdata$r	SEGMENT
??_R3CIWUnknown@@8 DD 00H				; CIWUnknown::`RTTI Class Hierarchy Descriptor'
	DD	00H
	DD	02H
	DD	FLAT:??_R2CIWUnknown@@8
rdata$r	ENDS
;	COMDAT ??_R0?AVCIWUnknown@@@8
data$rs	SEGMENT
??_R0?AVCIWUnknown@@@8 DD FLAT:??_7type_info@@6B@	; CIWUnknown `RTTI Type Descriptor'
	DD	00H
	DB	'.?AVCIWUnknown@@', 00H
data$rs	ENDS
;	COMDAT ??_R1A@?0A@EA@CIWUnknown@@8
rdata$r	SEGMENT
??_R1A@?0A@EA@CIWUnknown@@8 DD FLAT:??_R0?AVCIWUnknown@@@8 ; CIWUnknown::`RTTI Base Class Descriptor at (0,-1,0,64)'
	DD	01H
	DD	00H
	DD	0ffffffffH
	DD	00H
	DD	040H
	DD	FLAT:??_R3CIWUnknown@@8
rdata$r	ENDS
;	COMDAT ??_R2CChartAddInBase000000@@8
rdata$r	SEGMENT
??_R2CChartAddInBase000000@@8 DD FLAT:??_R1A@?0A@EA@CChartAddInBase000000@@8 ; CChartAddInBase000000::`RTTI Base Class Array'
	DD	FLAT:??_R1A@?0A@EA@CIWUnknown@@8
	DD	FLAT:??_R1A@?0A@EA@CObject@@8
	DD	FLAT:??_R17?0A@EA@IChartAddIn000000@@8
	DD	FLAT:??_R17?0A@EA@IUnknown@@8
rdata$r	ENDS
;	COMDAT ??_R3CChartAddInBase000000@@8
rdata$r	SEGMENT
??_R3CChartAddInBase000000@@8 DD 00H			; CChartAddInBase000000::`RTTI Class Hierarchy Descriptor'
	DD	01H
	DD	05H
	DD	FLAT:??_R2CChartAddInBase000000@@8
rdata$r	ENDS
;	COMDAT ??_R0?AVCChartAddInBase000000@@@8
data$rs	SEGMENT
??_R0?AVCChartAddInBase000000@@@8 DD FLAT:??_7type_info@@6B@ ; CChartAddInBase000000 `RTTI Type Descriptor'
	DD	00H
	DB	'.?AVCChartAddInBase000000@@', 00H
data$rs	ENDS
;	COMDAT ??_R1A@?0A@EA@CChartAddInBase000000@@8
rdata$r	SEGMENT
??_R1A@?0A@EA@CChartAddInBase000000@@8 DD FLAT:??_R0?AVCChartAddInBase000000@@@8 ; CChartAddInBase000000::`RTTI Base Class Descriptor at (0,-1,0,64)'
	DD	04H
	DD	00H
	DD	0ffffffffH
	DD	00H
	DD	040H
	DD	FLAT:??_R3CChartAddInBase000000@@8
rdata$r	ENDS
;	COMDAT ??_R2CBoundMarkerAddInImp@@8
rdata$r	SEGMENT
??_R2CBoundMarkerAddInImp@@8 DD FLAT:??_R1A@?0A@EA@CBoundMarkerAddInImp@@8 ; CBoundMarkerAddInImp::`RTTI Base Class Array'
	DD	FLAT:??_R1A@?0A@EA@CChartAddInBase000000@@8
	DD	FLAT:??_R1A@?0A@EA@CIWUnknown@@8
	DD	FLAT:??_R1A@?0A@EA@CObject@@8
	DD	FLAT:??_R17?0A@EA@IChartAddIn000000@@8
	DD	FLAT:??_R17?0A@EA@IUnknown@@8
rdata$r	ENDS
;	COMDAT ??_R3CBoundMarkerAddInImp@@8
rdata$r	SEGMENT
??_R3CBoundMarkerAddInImp@@8 DD 00H			; CBoundMarkerAddInImp::`RTTI Class Hierarchy Descriptor'
	DD	01H
	DD	06H
	DD	FLAT:??_R2CBoundMarkerAddInImp@@8
rdata$r	ENDS
;	COMDAT ??_R0?AVCBoundMarkerAddInImp@@@8
data$rs	SEGMENT
??_R0?AVCBoundMarkerAddInImp@@@8 DD FLAT:??_7type_info@@6B@ ; CBoundMarkerAddInImp `RTTI Type Descriptor'
	DD	00H
	DB	'.?AVCBoundMarkerAddInImp@@', 00H
data$rs	ENDS
;	COMDAT ??_R1A@?0A@EA@CBoundMarkerAddInImp@@8
rdata$r	SEGMENT
??_R1A@?0A@EA@CBoundMarkerAddInImp@@8 DD FLAT:??_R0?AVCBoundMarkerAddInImp@@@8 ; CBoundMarkerAddInImp::`RTTI Base Class Descriptor at (0,-1,0,64)'
	DD	05H
	DD	00H
	DD	0ffffffffH
	DD	00H
	DD	040H
	DD	FLAT:??_R3CBoundMarkerAddInImp@@8
rdata$r	ENDS
;	COMDAT ??_R1A@?0A@EA@COrderLinkAddInImp@@8
rdata$r	SEGMENT
??_R1A@?0A@EA@COrderLinkAddInImp@@8 DD FLAT:??_R0?AVCOrderLinkAddInImp@@@8 ; COrderLinkAddInImp::`RTTI Base Class Descriptor at (0,-1,0,64)'
	DD	06H
	DD	00H
	DD	0ffffffffH
	DD	00H
	DD	040H
	DD	FLAT:??_R3COrderLinkAddInImp@@8
rdata$r	ENDS
;	COMDAT ??_R2COrderLinkAddInImp@@8
rdata$r	SEGMENT
??_R2COrderLinkAddInImp@@8 DD FLAT:??_R1A@?0A@EA@COrderLinkAddInImp@@8 ; COrderLinkAddInImp::`RTTI Base Class Array'
	DD	FLAT:??_R1A@?0A@EA@CBoundMarkerAddInImp@@8
	DD	FLAT:??_R1A@?0A@EA@CChartAddInBase000000@@8
	DD	FLAT:??_R1A@?0A@EA@CIWUnknown@@8
	DD	FLAT:??_R1A@?0A@EA@CObject@@8
	DD	FLAT:??_R17?0A@EA@IChartAddIn000000@@8
	DD	FLAT:??_R17?0A@EA@IUnknown@@8
rdata$r	ENDS
;	COMDAT ??_R3COrderLinkAddInImp@@8
rdata$r	SEGMENT
??_R3COrderLinkAddInImp@@8 DD 00H			; COrderLinkAddInImp::`RTTI Class Hierarchy Descriptor'
	DD	01H
	DD	07H
	DD	FLAT:??_R2COrderLinkAddInImp@@8
rdata$r	ENDS
;	COMDAT ??_R0?AVCOrderLinkAddInImp@@@8
data$rs	SEGMENT
??_R0?AVCOrderLinkAddInImp@@@8 DD FLAT:??_7type_info@@6B@ ; COrderLinkAddInImp `RTTI Type Descriptor'
	DD	00H
	DB	'.?AVCOrderLinkAddInImp@@', 00H
data$rs	ENDS
;	COMDAT ??_R4COrderLinkAddInImp@@6BCIWUnknown@@@
rdata$r	SEGMENT
??_R4COrderLinkAddInImp@@6BCIWUnknown@@@ DD 00H		; COrderLinkAddInImp::`RTTI Complete Object Locator'
	DD	00H
	DD	00H
	DD	FLAT:??_R0?AVCOrderLinkAddInImp@@@8
	DD	FLAT:??_R3COrderLinkAddInImp@@8
rdata$r	ENDS
;	COMDAT ??_R1A@?0A@EA@IChartAddIn000000@@8
rdata$r	SEGMENT
??_R1A@?0A@EA@IChartAddIn000000@@8 DD FLAT:??_R0?AUIChartAddIn000000@@@8 ; IChartAddIn000000::`RTTI Base Class Descriptor at (0,-1,0,64)'
	DD	01H
	DD	00H
	DD	0ffffffffH
	DD	00H
	DD	040H
	DD	FLAT:??_R3IChartAddIn000000@@8
rdata$r	ENDS
;	COMDAT ??_R2IChartAddIn000000@@8
rdata$r	SEGMENT
??_R2IChartAddIn000000@@8 DD FLAT:??_R1A@?0A@EA@IChartAddIn000000@@8 ; IChartAddIn000000::`RTTI Base Class Array'
	DD	FLAT:??_R1A@?0A@EA@IUnknown@@8
rdata$r	ENDS
;	COMDAT ??_R3IChartAddIn000000@@8
rdata$r	SEGMENT
??_R3IChartAddIn000000@@8 DD 00H			; IChartAddIn000000::`RTTI Class Hierarchy Descriptor'
	DD	00H
	DD	02H
	DD	FLAT:??_R2IChartAddIn000000@@8
rdata$r	ENDS
;	COMDAT ??_R0?AUIChartAddIn000000@@@8
data$rs	SEGMENT
??_R0?AUIChartAddIn000000@@@8 DD FLAT:??_7type_info@@6B@ ; IChartAddIn000000 `RTTI Type Descriptor'
	DD	00H
	DB	'.?AUIChartAddIn000000@@', 00H
data$rs	ENDS
;	COMDAT ??_C@_0CA@HIKIOJEN@ChartCommonAddIn?4dll?3ORDER_LINK@
CONST	SEGMENT
??_C@_0CA@HIKIOJEN@ChartCommonAddIn?4dll?3ORDER_LINK@ DB 'ChartCommonAddI'
	DB	'n.dll:ORDER_LINK', 00H			; `string'
CONST	ENDS
;	COMDAT ??_C@_05HHFOOOHO@?$CFs?0?$CFs@
CONST	SEGMENT
??_C@_05HHFOOOHO@?$CFs?0?$CFs@ DB '%s,%s', 00H		; `string'
CONST	ENDS
;	COMDAT ??_C@_07MGCPDNLD@DEFAULT@
CONST	SEGMENT
??_C@_07MGCPDNLD@DEFAULT@ DB 'DEFAULT', 00H		; `string'
CONST	ENDS
;	COMDAT ??_C@_01GEODFPGF@?8@
CONST	SEGMENT
??_C@_01GEODFPGF@?8@ DB '''', 00H			; `string'
CONST	ENDS
;	COMDAT ??_C@_07OEKCJGKM@HBPRICE@
CONST	SEGMENT
??_C@_07OEKCJGKM@HBPRICE@ DB 'HBPRICE', 00H		; `string'
CONST	ENDS
;	COMDAT ??_C@_06DNBDMDIL@?$CF?$CF?4?$CFdf@
CONST	SEGMENT
??_C@_06DNBDMDIL@?$CF?$CF?4?$CFdf@ DB '%%.%df', 00H	; `string'
CONST	ENDS
;	COMDAT ??_C@_04GHNNFJCK@?$CF?40f@
CONST	SEGMENT
??_C@_04GHNNFJCK@?$CF?40f@ DB '%.0f', 00H		; `string'
CONST	ENDS
;	COMDAT ??_C@_02LIELOMNJ@on@
CONST	SEGMENT
??_C@_02LIELOMNJ@on@ DB 'on', 00H			; `string'
CONST	ENDS
;	COMDAT ??_7COrderLinkAddInImp@@6BIChartAddIn000000@@@
CONST	SEGMENT
??_7COrderLinkAddInImp@@6BIChartAddIn000000@@@ DD FLAT:??_R4COrderLinkAddInImp@@6BIChartAddIn000000@@@ ; COrderLinkAddInImp::`vftable'
	DD	FLAT:?QueryInterface@CChartAddInBase000000@@O7AGJABU_GUID@@PAPAX@Z
	DD	FLAT:?AddRef@CChartAddInBase000000@@O7AGKXZ
	DD	FLAT:?Release@CChartAddInBase000000@@O7AGKXZ
	DD	FLAT:??_ECOrderLinkAddInImp@@W7AEPAXI@Z
	DD	FLAT:?HasFullManager@CChartAddInBase000000@@MAEHXZ
	DD	FLAT:?GetAddInCustomInterface@CChartAddInBase000000@@MAEPAUIUnknown@@XZ
	DD	FLAT:?InvokeAddIn@CChartAddInBase000000@@MAEHHJ@Z
	DD	FLAT:?InvokeAddInStr@COrderLinkAddInImp@@MAEHPBD0@Z
	DD	FLAT:?OnOcxDestroyWindow@CChartAddInBase000000@@MAEXXZ
	DD	FLAT:?ChangeChartMode@CChartAddInBase000000@@MAEXW4CHART_MODE@CChartInfo@@@Z
	DD	FLAT:?RegisterEventMap@CChartAddInBase000000@@UAEHH@Z
	DD	FLAT:?UnregisterEventMap@CChartAddInBase000000@@UAEHXZ
	DD	FLAT:?OnGSharedDataChange@CChartAddInBase000000@@MAEXPBD0H@Z
	DD	FLAT:?OnLSharedDataChange@CChartAddInBase000000@@MAEXPBD0@Z
	DD	FLAT:?OnResetChart@COrderLinkAddInImp@@MAEXXZ
	DD	FLAT:?OnDrawBeforeGraph@COrderLinkAddInImp@@MAEXPAUHDC__@@@Z
	DD	FLAT:?OnDrawAfterGraph@COrderLinkAddInImp@@MAEXPAUHDC__@@@Z
	DD	FLAT:?OnPacketDataMultiItem@COrderLinkAddInImp@@MAEXPBD0H@Z
	DD	FLAT:?OnTimer@CChartAddInBase000000@@MAEXI@Z
	DD	FLAT:?OnCaptureChanged@CChartAddInBase000000@@MAEXPAUHWND__@@QAUHBITMAP__@@@Z
	DD	FLAT:?OnResetMainBlock@CChartAddInBase000000@@MAEXXZ
	DD	FLAT:?OnUserIndiatorConditionLoaded@CChartAddInBase000000@@MAEXXZ
	DD	FLAT:?OnChartItemChanged@CChartAddInBase000000@@MAEXXZ
	DD	FLAT:?OnGraphDataChanged@CChartAddInBase000000@@MAEXXZ
	DD	FLAT:?OnBlockRemoved@CChartAddInBase000000@@MAEXHH@Z
	DD	FLAT:?OnGraphAdded@CChartAddInBase000000@@MAEXPBD0@Z
	DD	FLAT:?OnManualRealData@CChartAddInBase000000@@MAEXPBDNH@Z
	DD	FLAT:?OnContextMenu@CChartAddInBase000000@@MAEXPAUHWND__@@AAUtagPOINT@@@Z
	DD	FLAT:?OnGraphDeleted@CChartAddInBase000000@@MAEXPBD0@Z
	DD	FLAT:?OnPacketTruncated@CChartAddInBase000000@@MAEXH@Z
	DD	FLAT:?OnBlockChanged@CChartAddInBase000000@@MAEXW4BLOCKBEHAVIOR@CBlockBaseData@@HHHH@Z
	DD	FLAT:?OnToolCommand@COrderLinkAddInImp@@MAEXHH@Z
	DD	FLAT:?OnRealData@CChartAddInBase000000@@MAEXPBDN0@Z
	DD	FLAT:?OnIndexedRealData@CChartAddInBase000000@@MAEXPBDHN@Z
	DD	FLAT:?OnRealPacketEnd@CChartAddInBase000000@@MAEXPBD@Z
	DD	FLAT:?OnLoadEnvironment@COrderLinkAddInImp@@MAEXPAUIPropertyMap@@@Z
	DD	FLAT:?OnSaveEnvironment@COrderLinkAddInImp@@MAEXPAUIPropertyMap@@@Z
	DD	FLAT:?DrawCursor@COrderLinkAddInImp@@MAE?AUtagRECT@@PAUHDC__@@@Z
	DD	FLAT:?OnRecalculationComplete@CChartAddInBase000000@@MAEXXZ
	DD	FLAT:?OnPreRealData@CChartAddInBase000000@@MAEHPBDAAN0H@Z
	DD	FLAT:?OnPreIndexedRealData@CChartAddInBase000000@@MAEHPBDHAANH@Z
	DD	FLAT:?OnPreRealPacketEnd@CChartAddInBase000000@@MAEHPBDH@Z
	DD	FLAT:?OnPreNMTRClock@CChartAddInBase000000@@MAEHAA_J@Z
	DD	FLAT:?OnCmdMsg@CChartAddInBase000000@@MAEHIHPAUICmdUI000000@@@Z
	DD	FLAT:?OnAddInMsg@CChartAddInBase000000@@MAEHPBDJ@Z
	DD	FLAT:?OnAddInToolCommand@CChartAddInBase000000@@MAEHAAJW4EAICommandType@@JJ@Z
	DD	FLAT:?OnAddInToolCommand@CChartAddInBase000000@@MAEHAAJW4EAICommandType@@J@Z
	DD	FLAT:?OnAddInToolCommand@CChartAddInBase000000@@MAEHAAJW4EAICommandType@@PBDPAVCObject@@@Z
	DD	FLAT:?OnAddInToolCommand@CChartAddInBase000000@@MAEHAAJW4EAICommandType@@PBD@Z
	DD	FLAT:?OnAddInToolCommand@CChartAddInBase000000@@MAEHAAJW4EAICommandType@@PAUIGraphInfo000000@@@Z
	DD	FLAT:?OnAddInToolCommand@COrderLinkAddInImp@@MAEHAAJW4EAICommandType@@@Z
	DD	FLAT:?OnAddInToolCommand@CChartAddInBase000000@@MAEHW4EAICommandType@@JJJJJJJJJ@Z
	DD	FLAT:?OnAddInToolCommand@CChartAddInBase000000@@MAEHW4EAICommandType@@JJ@Z
	DD	FLAT:?OnAddInToolCommand@CChartAddInBase000000@@MAEHW4EAICommandType@@JPBD11@Z
	DD	FLAT:?OnAddInToolCommand@CChartAddInBase000000@@MAEHW4EAICommandType@@JPBD@Z
	DD	FLAT:?OnAddInToolCommand@COrderLinkAddInImp@@MAEHW4EAICommandType@@J@Z
	DD	FLAT:?OnAddInToolCommand@CChartAddInBase000000@@MAEHW4EAICommandType@@PBUIAddInDllBase@@@Z
	DD	FLAT:?OnAddInToolCommand@CChartAddInBase000000@@MAEHW4EAICommandType@@PBDJ@Z
	DD	FLAT:?OnAddInToolCommand@CChartAddInBase000000@@MAEHW4EAICommandType@@PBD1@Z
	DD	FLAT:?OnAddInToolCommand@CChartAddInBase000000@@MAEHW4EAICommandType@@PBD@Z
	DD	FLAT:?OnAddInToolCommand@CChartAddInBase000000@@MAEHW4EAICommandType@@PAUHDC__@@IAAUtagPOINT@@K@Z
	DD	FLAT:?OnAddInToolCommand@CChartAddInBase000000@@MAEHW4EAICommandType@@@Z
	DD	FLAT:?OnKeyDown@CChartAddInBase000000@@MAEHIII@Z
	DD	FLAT:?OnKeyUp@CChartAddInBase000000@@MAEHIII@Z
	DD	FLAT:?OnMouseWheel@CChartAddInBase000000@@MAEHIFUtagPOINT@@K@Z
	DD	FLAT:?OnMouseMove@COrderLinkAddInImp@@MAEHPAUHDC__@@IAAUtagPOINT@@KQAUHBITMAP__@@@Z
	DD	FLAT:?OnLButtonDown@CChartAddInBase000000@@MAEHPAUHDC__@@IAAUtagPOINT@@K@Z
	DD	FLAT:?OnLButtonUp@CChartAddInBase000000@@MAEHPAUHDC__@@IAAUtagPOINT@@K@Z
	DD	FLAT:?OnLButtonDblClk@COrderLinkAddInImp@@MAEHPAUHDC__@@IAAUtagPOINT@@K@Z
	DD	FLAT:?OnRButtonDown@CChartAddInBase000000@@MAEHPAUHDC__@@IAAUtagPOINT@@K@Z
	DD	FLAT:?OnRButtonUp@CChartAddInBase000000@@MAEHPAUHDC__@@IAAUtagPOINT@@K@Z
	DD	FLAT:?OnRButtonDblClk@CChartAddInBase000000@@MAEHPAUHDC__@@IAAUtagPOINT@@K@Z
CONST	ENDS
;	COMDAT ??_7COrderLinkAddInImp@@6BCIWUnknown@@@
CONST	SEGMENT
??_7COrderLinkAddInImp@@6BCIWUnknown@@@ DD FLAT:??_R4COrderLinkAddInImp@@6BCIWUnknown@@@ ; COrderLinkAddInImp::`vftable'
	DD	FLAT:?GetRuntimeClass@CObject@@UBEPAUCRuntimeClass@@XZ
	DD	FLAT:??_ECOrderLinkAddInImp@@UAEPAXI@Z
	DD	FLAT:?Serialize@CObject@@UAEXAAVCArchive@@@Z
	DD	FLAT:?AssertValid@CObject@@UBEXXZ
	DD	FLAT:?Dump@CObject@@UBEXAAVCDumpContext@@@Z
	DD	FLAT:?AddRef@CChartAddInBase000000@@MAGKXZ
	DD	FLAT:?Release@CChartAddInBase000000@@MAGKXZ
	DD	FLAT:?QueryInterface@CChartAddInBase000000@@MAGJABU_GUID@@PAPAX@Z
	DD	FLAT:?PostConstruct@CIWUnknown@@MAEXXZ
	DD	FLAT:?PreDestructX@CIWUnknown@@MAEXXZ
	DD	FLAT:?PreDestruct@CIWUnknown@@MAEXXZ
	DD	FLAT:?GetRegisteredEventMap@COrderLinkAddInImp@@MBEPBW4EAddInEventType@IChartAddIn000000@@XZ
	DD	FLAT:?AfeterOnOcxDestroyWindow@CChartAddInBase000000@@MAEXXZ
	DD	FLAT:?ResetBound@COrderLinkAddInImp@@MAEXPBD@Z
CONST	ENDS
;	COMDAT ??_R1A@?0A@EA@IUnknown@@8
rdata$r	SEGMENT
??_R1A@?0A@EA@IUnknown@@8 DD FLAT:??_R0?AUIUnknown@@@8	; IUnknown::`RTTI Base Class Descriptor at (0,-1,0,64)'
	DD	00H
	DD	00H
	DD	0ffffffffH
	DD	00H
	DD	040H
	DD	FLAT:??_R3IUnknown@@8
rdata$r	ENDS
;	COMDAT ??_R2IUnknown@@8
rdata$r	SEGMENT
??_R2IUnknown@@8 DD FLAT:??_R1A@?0A@EA@IUnknown@@8	; IUnknown::`RTTI Base Class Array'
rdata$r	ENDS
;	COMDAT ??_R3IUnknown@@8
rdata$r	SEGMENT
??_R3IUnknown@@8 DD 00H					; IUnknown::`RTTI Class Hierarchy Descriptor'
	DD	00H
	DD	01H
	DD	FLAT:??_R2IUnknown@@8
rdata$r	ENDS
;	COMDAT ??_R0?AUIUnknown@@@8
data$rs	SEGMENT
??_R0?AUIUnknown@@@8 DD FLAT:??_7type_info@@6B@		; IUnknown `RTTI Type Descriptor'
	DD	00H
	DB	'.?AUIUnknown@@', 00H
data$rs	ENDS
;	COMDAT ??_R1A@?0A@EA@CObject@@8
rdata$r	SEGMENT
??_R1A@?0A@EA@CObject@@8 DD FLAT:??_R0?AVCObject@@@8	; CObject::`RTTI Base Class Descriptor at (0,-1,0,64)'
	DD	00H
	DD	00H
	DD	0ffffffffH
	DD	00H
	DD	040H
	DD	FLAT:??_R3CObject@@8
rdata$r	ENDS
;	COMDAT ??_R2CObject@@8
rdata$r	SEGMENT
??_R2CObject@@8 DD FLAT:??_R1A@?0A@EA@CObject@@8	; CObject::`RTTI Base Class Array'
rdata$r	ENDS
;	COMDAT ??_R3CObject@@8
rdata$r	SEGMENT
??_R3CObject@@8 DD 00H					; CObject::`RTTI Class Hierarchy Descriptor'
	DD	00H
	DD	01H
	DD	FLAT:??_R2CObject@@8
rdata$r	ENDS
;	COMDAT ??_R0?AVCObject@@@8
data$rs	SEGMENT
??_R0?AVCObject@@@8 DD FLAT:??_7type_info@@6B@		; CObject `RTTI Type Descriptor'
	DD	00H
	DB	'.?AVCObject@@', 00H
data$rs	ENDS
;	COMDAT ??_C@_00CNPNBAHC@@
CONST	SEGMENT
??_C@_00CNPNBAHC@@ DB 00H				; `string'
CONST	ENDS
;	COMDAT xdata$x
xdata$x	SEGMENT
__ehfuncinfo$??1ILPCSTR000000@@QAE@XZ DD 019930522H
	DD	00H
	DD	00H
	DD	2 DUP(00H)
	DD	2 DUP(00H)
	DD	00H
	DD	05H
xdata$x	ENDS
;	COMDAT xdata$x
xdata$x	SEGMENT
__ehfuncinfo$??1CMultiLanguageResourceSetter@@QAE@XZ DD 019930522H
	DD	00H
	DD	00H
	DD	2 DUP(00H)
	DD	2 DUP(00H)
	DD	00H
	DD	05H
xdata$x	ENDS
;	COMDAT xdata$x
xdata$x	SEGMENT
__ehfuncinfo$?OnMouseMove@COrderLinkAddInImp@@MAEHPAUHDC__@@IAAUtagPOINT@@KQAUHBITMAP__@@@Z DD 019930522H
	DD	06H
	DD	FLAT:__unwindtable$?OnMouseMove@COrderLinkAddInImp@@MAEHPAUHDC__@@IAAUtagPOINT@@KQAUHBITMAP__@@@Z
	DD	2 DUP(00H)
	DD	2 DUP(00H)
	DD	00H
	DD	01H
__unwindtable$?OnMouseMove@COrderLinkAddInImp@@MAEHPAUHDC__@@IAAUtagPOINT@@KQAUHBITMAP__@@@Z DD 0ffffffffH
	DD	FLAT:__unwindfunclet$?OnMouseMove@COrderLinkAddInImp@@MAEHPAUHDC__@@IAAUtagPOINT@@KQAUHBITMAP__@@@Z$0
	DD	00H
	DD	FLAT:__unwindfunclet$?OnMouseMove@COrderLinkAddInImp@@MAEHPAUHDC__@@IAAUtagPOINT@@KQAUHBITMAP__@@@Z$1
	DD	01H
	DD	FLAT:__unwindfunclet$?OnMouseMove@COrderLinkAddInImp@@MAEHPAUHDC__@@IAAUtagPOINT@@KQAUHBITMAP__@@@Z$2
	DD	01H
	DD	FLAT:___std_terminate
	DD	00H
	DD	FLAT:___std_terminate
	DD	0ffffffffH
	DD	FLAT:___std_terminate
xdata$x	ENDS
;	COMDAT xdata$x
xdata$x	SEGMENT
__ehfuncinfo$?OnLButtonDblClk@COrderLinkAddInImp@@MAEHPAUHDC__@@IAAUtagPOINT@@K@Z DD 019930522H
	DD	0bH
	DD	FLAT:__unwindtable$?OnLButtonDblClk@COrderLinkAddInImp@@MAEHPAUHDC__@@IAAUtagPOINT@@K@Z
	DD	2 DUP(00H)
	DD	2 DUP(00H)
	DD	00H
	DD	01H
__unwindtable$?OnLButtonDblClk@COrderLinkAddInImp@@MAEHPAUHDC__@@IAAUtagPOINT@@K@Z DD 0ffffffffH
	DD	FLAT:__unwindfunclet$?OnLButtonDblClk@COrderLinkAddInImp@@MAEHPAUHDC__@@IAAUtagPOINT@@K@Z$0
	DD	00H
	DD	FLAT:__unwindfunclet$?OnLButtonDblClk@COrderLinkAddInImp@@MAEHPAUHDC__@@IAAUtagPOINT@@K@Z$1
	DD	01H
	DD	FLAT:__unwindfunclet$?OnLButtonDblClk@COrderLinkAddInImp@@MAEHPAUHDC__@@IAAUtagPOINT@@K@Z$2
	DD	02H
	DD	FLAT:__unwindfunclet$?OnLButtonDblClk@COrderLinkAddInImp@@MAEHPAUHDC__@@IAAUtagPOINT@@K@Z$3
	DD	03H
	DD	FLAT:__unwindfunclet$?OnLButtonDblClk@COrderLinkAddInImp@@MAEHPAUHDC__@@IAAUtagPOINT@@K@Z$4
	DD	04H
	DD	FLAT:__unwindfunclet$?OnLButtonDblClk@COrderLinkAddInImp@@MAEHPAUHDC__@@IAAUtagPOINT@@K@Z$5
	DD	02H
	DD	FLAT:___std_terminate
	DD	01H
	DD	FLAT:___std_terminate
	DD	01H
	DD	FLAT:__unwindfunclet$?OnLButtonDblClk@COrderLinkAddInImp@@MAEHPAUHDC__@@IAAUtagPOINT@@K@Z$6
	DD	00H
	DD	FLAT:__unwindfunclet$?OnLButtonDblClk@COrderLinkAddInImp@@MAEHPAUHDC__@@IAAUtagPOINT@@K@Z$7
	DD	0ffffffffH
	DD	FLAT:___std_terminate
xdata$x	ENDS
;	COMDAT xdata$x
xdata$x	SEGMENT
__unwindtable$?GetChartBasicData@COrderLinkAddInImp@@IAEHXZ DD 0ffffffffH
	DD	FLAT:__unwindfunclet$?GetChartBasicData@COrderLinkAddInImp@@IAEHXZ$0
	DD	0ffffffffH
	DD	FLAT:___std_terminate
__ehfuncinfo$?GetChartBasicData@COrderLinkAddInImp@@IAEHXZ DD 019930522H
	DD	02H
	DD	FLAT:__unwindtable$?GetChartBasicData@COrderLinkAddInImp@@IAEHXZ
	DD	2 DUP(00H)
	DD	2 DUP(00H)
	DD	00H
	DD	01H
xdata$x	ENDS
;	COMDAT xdata$x
xdata$x	SEGMENT
__ehfuncinfo$?DrawCursor@COrderLinkAddInImp@@MAE?AUtagRECT@@PAUHDC__@@@Z DD 019930522H
	DD	0aH
	DD	FLAT:__unwindtable$?DrawCursor@COrderLinkAddInImp@@MAE?AUtagRECT@@PAUHDC__@@@Z
	DD	2 DUP(00H)
	DD	2 DUP(00H)
	DD	00H
	DD	01H
__unwindtable$?DrawCursor@COrderLinkAddInImp@@MAE?AUtagRECT@@PAUHDC__@@@Z DD 0ffffffffH
	DD	FLAT:__unwindfunclet$?DrawCursor@COrderLinkAddInImp@@MAE?AUtagRECT@@PAUHDC__@@@Z$0
	DD	00H
	DD	FLAT:__unwindfunclet$?DrawCursor@COrderLinkAddInImp@@MAE?AUtagRECT@@PAUHDC__@@@Z$1
	DD	01H
	DD	FLAT:__unwindfunclet$?DrawCursor@COrderLinkAddInImp@@MAE?AUtagRECT@@PAUHDC__@@@Z$2
	DD	02H
	DD	FLAT:__unwindfunclet$?DrawCursor@COrderLinkAddInImp@@MAE?AUtagRECT@@PAUHDC__@@@Z$3
	DD	02H
	DD	FLAT:___std_terminate
	DD	02H
	DD	FLAT:__unwindfunclet$?DrawCursor@COrderLinkAddInImp@@MAE?AUtagRECT@@PAUHDC__@@@Z$4
	DD	05H
	DD	FLAT:__unwindfunclet$?DrawCursor@COrderLinkAddInImp@@MAE?AUtagRECT@@PAUHDC__@@@Z$5
	DD	05H
	DD	FLAT:__unwindfunclet$?DrawCursor@COrderLinkAddInImp@@MAE?AUtagRECT@@PAUHDC__@@@Z$6
	DD	07H
	DD	FLAT:__unwindfunclet$?DrawCursor@COrderLinkAddInImp@@MAE?AUtagRECT@@PAUHDC__@@@Z$7
	DD	01H
	DD	FLAT:___std_terminate
xdata$x	ENDS
;	COMDAT xdata$x
xdata$x	SEGMENT
__unwindtable$?OnDrawAfterGraph@COrderLinkAddInImp@@MAEXPAUHDC__@@@Z DD 0ffffffffH
	DD	FLAT:__unwindfunclet$?OnDrawAfterGraph@COrderLinkAddInImp@@MAEXPAUHDC__@@@Z$0
	DD	0ffffffffH
	DD	FLAT:___std_terminate
	DD	0ffffffffH
	DD	FLAT:___std_terminate
__ehfuncinfo$?OnDrawAfterGraph@COrderLinkAddInImp@@MAEXPAUHDC__@@@Z DD 019930522H
	DD	03H
	DD	FLAT:__unwindtable$?OnDrawAfterGraph@COrderLinkAddInImp@@MAEXPAUHDC__@@@Z
	DD	2 DUP(00H)
	DD	2 DUP(00H)
	DD	00H
	DD	01H
xdata$x	ENDS
;	COMDAT xdata$x
xdata$x	SEGMENT
__ehfuncinfo$?ResetBound@COrderLinkAddInImp@@MAEXPBD@Z DD 019930522H
	DD	05H
	DD	FLAT:__unwindtable$?ResetBound@COrderLinkAddInImp@@MAEXPBD@Z
	DD	2 DUP(00H)
	DD	2 DUP(00H)
	DD	00H
	DD	01H
__unwindtable$?ResetBound@COrderLinkAddInImp@@MAEXPBD@Z DD 0ffffffffH
	DD	FLAT:__unwindfunclet$?ResetBound@COrderLinkAddInImp@@MAEXPBD@Z$0
	DD	00H
	DD	FLAT:__unwindfunclet$?ResetBound@COrderLinkAddInImp@@MAEXPBD@Z$1
	DD	01H
	DD	FLAT:__unwindfunclet$?ResetBound@COrderLinkAddInImp@@MAEXPBD@Z$2
	DD	02H
	DD	FLAT:__unwindfunclet$?ResetBound@COrderLinkAddInImp@@MAEXPBD@Z$3
	DD	00H
	DD	FLAT:___std_terminate
xdata$x	ENDS
; Function compile flags: /Odsp
;	COMDAT ??_ECOrderLinkAddInImp@@W7AEPAXI@Z
_TEXT	SEGMENT
??_ECOrderLinkAddInImp@@W7AEPAXI@Z PROC			; [thunk]:COrderLinkAddInImp::`vector deleting destructor', COMDAT
  00000	83 e9 08	 sub	 ecx, 8
  00003	e9 00 00 00 00	 jmp	 ??_ECOrderLinkAddInImp@@UAEPAXI@Z
??_ECOrderLinkAddInImp@@W7AEPAXI@Z ENDP			; [thunk]:COrderLinkAddInImp::`vector deleting destructor'
_TEXT	ENDS
; Function compile flags: /Odsp
;	COMDAT ?Release@CChartAddInBase000000@@O7AGKXZ
_TEXT	SEGMENT
?Release@CChartAddInBase000000@@O7AGKXZ PROC		; [thunk]:CChartAddInBase000000::Release`adjustor{8}', COMDAT
  00000	83 6c 24 04 08	 sub	 DWORD PTR [esp+4], 8
  00005	e9 00 00 00 00	 jmp	 ?Release@CChartAddInBase000000@@MAGKXZ ; CChartAddInBase000000::Release
?Release@CChartAddInBase000000@@O7AGKXZ ENDP		; [thunk]:CChartAddInBase000000::Release`adjustor{8}'
_TEXT	ENDS
; Function compile flags: /Odsp
;	COMDAT ?AddRef@CChartAddInBase000000@@O7AGKXZ
_TEXT	SEGMENT
?AddRef@CChartAddInBase000000@@O7AGKXZ PROC		; [thunk]:CChartAddInBase000000::AddRef`adjustor{8}', COMDAT
  00000	83 6c 24 04 08	 sub	 DWORD PTR [esp+4], 8
  00005	e9 00 00 00 00	 jmp	 ?AddRef@CChartAddInBase000000@@MAGKXZ ; CChartAddInBase000000::AddRef
?AddRef@CChartAddInBase000000@@O7AGKXZ ENDP		; [thunk]:CChartAddInBase000000::AddRef`adjustor{8}'
_TEXT	ENDS
; Function compile flags: /Odsp
;	COMDAT ?QueryInterface@CChartAddInBase000000@@O7AGJABU_GUID@@PAPAX@Z
_TEXT	SEGMENT
?QueryInterface@CChartAddInBase000000@@O7AGJABU_GUID@@PAPAX@Z PROC ; [thunk]:CChartAddInBase000000::QueryInterface`adjustor{8}', COMDAT
  00000	83 6c 24 04 08	 sub	 DWORD PTR [esp+4], 8
  00005	e9 00 00 00 00	 jmp	 ?QueryInterface@CChartAddInBase000000@@MAGJABU_GUID@@PAPAX@Z ; CChartAddInBase000000::QueryInterface
?QueryInterface@CChartAddInBase000000@@O7AGJABU_GUID@@PAPAX@Z ENDP ; [thunk]:CChartAddInBase000000::QueryInterface`adjustor{8}'
_TEXT	ENDS
; Function compile flags: /Ogtp
;	COMDAT ??__F?m_strAddInItemName@COrderLinkAddInImp@@2V?$CStringT@DV?$StrTraitMFC_DLL@DV?$ChTraitsCRT@D@ATL@@@@@ATL@@A@@YAXXZ
text$yd	SEGMENT
??__F?m_strAddInItemName@COrderLinkAddInImp@@2V?$CStringT@DV?$StrTraitMFC_DLL@DV?$ChTraitsCRT@D@ATL@@@@@ATL@@A@@YAXXZ PROC ; `dynamic atexit destructor for 'COrderLinkAddInImp::m_strAddInItemName'', COMDAT
  00000	b9 00 00 00 00	 mov	 ecx, OFFSET ?m_strAddInItemName@COrderLinkAddInImp@@2V?$CStringT@DV?$StrTraitMFC_DLL@DV?$ChTraitsCRT@D@ATL@@@@@ATL@@A ; COrderLinkAddInImp::m_strAddInItemName
  00005	ff 25 00 00 00
	00		 jmp	 DWORD PTR __imp_??1?$CStringT@DV?$StrTraitMFC_DLL@DV?$ChTraitsCRT@D@ATL@@@@@ATL@@QAE@XZ
??__F?m_strAddInItemName@COrderLinkAddInImp@@2V?$CStringT@DV?$StrTraitMFC_DLL@DV?$ChTraitsCRT@D@ATL@@@@@ATL@@A@@YAXXZ ENDP ; `dynamic atexit destructor for 'COrderLinkAddInImp::m_strAddInItemName''
text$yd	ENDS
; Function compile flags: /Ogtp
; File D:\git\src\IBK\IBK_DRFN\ProjSrc\SrcChartEx\ChartOCX\AddInManager\ChartCommonAddIn\OrderLinkAddInImp.cpp
;	COMDAT ??__E?m_strAddInItemName@COrderLinkAddInImp@@2V?$CStringT@DV?$StrTraitMFC_DLL@DV?$ChTraitsCRT@D@ATL@@@@@ATL@@A@@YAXXZ
text$di	SEGMENT
??__E?m_strAddInItemName@COrderLinkAddInImp@@2V?$CStringT@DV?$StrTraitMFC_DLL@DV?$ChTraitsCRT@D@ATL@@@@@ATL@@A@@YAXXZ PROC ; `dynamic initializer for 'COrderLinkAddInImp::m_strAddInItemName'', COMDAT

; 57   : CString COrderLinkAddInImp::m_strAddInItemName = "ORDER_LINK";

  00000	68 00 00 00 00	 push	 OFFSET ??_C@_0L@NFCOLNIK@ORDER_LINK@
  00005	b9 00 00 00 00	 mov	 ecx, OFFSET ?m_strAddInItemName@COrderLinkAddInImp@@2V?$CStringT@DV?$StrTraitMFC_DLL@DV?$ChTraitsCRT@D@ATL@@@@@ATL@@A ; COrderLinkAddInImp::m_strAddInItemName
  0000a	ff 15 00 00 00
	00		 call	 DWORD PTR __imp_??0?$CStringT@DV?$StrTraitMFC_DLL@DV?$ChTraitsCRT@D@ATL@@@@@ATL@@QAE@PBD@Z
  00010	68 00 00 00 00	 push	 OFFSET ??__F?m_strAddInItemName@COrderLinkAddInImp@@2V?$CStringT@DV?$StrTraitMFC_DLL@DV?$ChTraitsCRT@D@ATL@@@@@ATL@@A@@YAXXZ ; `dynamic atexit destructor for 'COrderLinkAddInImp::m_strAddInItemName''
  00015	e8 00 00 00 00	 call	 _atexit
  0001a	59		 pop	 ecx
  0001b	c3		 ret	 0
??__E?m_strAddInItemName@COrderLinkAddInImp@@2V?$CStringT@DV?$StrTraitMFC_DLL@DV?$ChTraitsCRT@D@ATL@@@@@ATL@@A@@YAXXZ ENDP ; `dynamic initializer for 'COrderLinkAddInImp::m_strAddInItemName''
text$di	ENDS
; Function compile flags: /Ogtp
; File D:\git\src\IBK\IBK_DRFN\ProjSrc\SrcChartEx\ChartOCX\AddInManager\Include_AddIn\I000000\_IString.h
;	COMDAT ??1ILPCSTR000000@@QAE@XZ
_TEXT	SEGMENT
__$EHRec$ = -12						; size = 12
??1ILPCSTR000000@@QAE@XZ PROC				; ILPCSTR000000::~ILPCSTR000000, COMDAT
; _this$ = ecx

; 44   : 	{

  00000	55		 push	 ebp
  00001	8b ec		 mov	 ebp, esp
  00003	6a ff		 push	 -1
  00005	68 00 00 00 00	 push	 __ehhandler$??1ILPCSTR000000@@QAE@XZ
  0000a	64 a1 00 00 00
	00		 mov	 eax, DWORD PTR fs:0
  00010	50		 push	 eax
  00011	56		 push	 esi
  00012	a1 00 00 00 00	 mov	 eax, DWORD PTR ___security_cookie
  00017	33 c5		 xor	 eax, ebp
  00019	50		 push	 eax
  0001a	8d 45 f4	 lea	 eax, DWORD PTR __$EHRec$[ebp]
  0001d	64 a3 00 00 00
	00		 mov	 DWORD PTR fs:0, eax
  00023	8b f1		 mov	 esi, ecx

; 45   : 		if( m_pIStrData)

  00025	8b 4e 04	 mov	 ecx, DWORD PTR [esi+4]
  00028	85 c9		 test	 ecx, ecx
  0002a	74 13		 je	 SHORT $LN2@ILPCSTR000

; 46   : 		{
; 47   : 			m_pIStrData->Release();

  0002c	8b 01		 mov	 eax, DWORD PTR [ecx]
  0002e	51		 push	 ecx
  0002f	ff 50 08	 call	 DWORD PTR [eax+8]

; 48   : 			m_pIStrData = NULL;

  00032	c7 46 04 00 00
	00 00		 mov	 DWORD PTR [esi+4], 0

; 49   : 			m_szData = NULL;

  00039	c7 06 00 00 00
	00		 mov	 DWORD PTR [esi], 0
$LN2@ILPCSTR000:

; 50   : 		}
; 51   : 	}

  0003f	8b 4d f4	 mov	 ecx, DWORD PTR __$EHRec$[ebp]
  00042	64 89 0d 00 00
	00 00		 mov	 DWORD PTR fs:0, ecx
  00049	59		 pop	 ecx
  0004a	5e		 pop	 esi
  0004b	8b e5		 mov	 esp, ebp
  0004d	5d		 pop	 ebp
  0004e	c3		 ret	 0
  0004f	cc		 int	 3
  00050	cc		 int	 3
  00051	cc		 int	 3
  00052	cc		 int	 3
  00053	cc		 int	 3
_TEXT	ENDS
;	COMDAT text$x
text$x	SEGMENT
__ehhandler$??1ILPCSTR000000@@QAE@XZ:
  00000	90		 npad	 1
  00001	90		 npad	 1
  00002	8b 54 24 08	 mov	 edx, DWORD PTR [esp+8]
  00006	8d 42 0c	 lea	 eax, DWORD PTR [edx+12]
  00009	8b 4a f8	 mov	 ecx, DWORD PTR [edx-8]
  0000c	33 c8		 xor	 ecx, eax
  0000e	e8 00 00 00 00	 call	 @__security_check_cookie@4
  00013	b8 00 00 00 00	 mov	 eax, OFFSET __ehfuncinfo$??1ILPCSTR000000@@QAE@XZ
  00018	e9 00 00 00 00	 jmp	 ___CxxFrameHandler3
text$x	ENDS
??1ILPCSTR000000@@QAE@XZ ENDP				; ILPCSTR000000::~ILPCSTR000000
; Function compile flags: /Ogtp
; File D:\git\src\IBK\IBK_DRFN\ProjSrc\SrcChartEx\ChartOCX\Include_Chart\Dll_Load\IMetaTable.h
; File C:\Program Files (x86)\Microsoft Visual Studio\2019\Community\VC\Tools\MSVC\14.29.30133\atlmfc\include\afxwin1.inl
; File D:\git\src\IBK\IBK_DRFN\ProjSrc\SrcChartEx\ChartOCX\Include_Chart\Dll_Load\IMetaTable.h
;	COMDAT ??1CMultiLanguageResourceSetter@@QAE@XZ
_TEXT	SEGMENT
__$EHRec$ = -12						; size = 12
??1CMultiLanguageResourceSetter@@QAE@XZ PROC		; CMultiLanguageResourceSetter::~CMultiLanguageResourceSetter, COMDAT
; _this$ = ecx

; 1036 : 	{

  00000	55		 push	 ebp
  00001	8b ec		 mov	 ebp, esp
  00003	6a ff		 push	 -1
  00005	68 00 00 00 00	 push	 __ehhandler$??1CMultiLanguageResourceSetter@@QAE@XZ
  0000a	64 a1 00 00 00
	00		 mov	 eax, DWORD PTR fs:0
  00010	50		 push	 eax
  00011	56		 push	 esi
  00012	a1 00 00 00 00	 mov	 eax, DWORD PTR ___security_cookie
  00017	33 c5		 xor	 eax, ebp
  00019	50		 push	 eax
  0001a	8d 45 f4	 lea	 eax, DWORD PTR __$EHRec$[ebp]
  0001d	64 a3 00 00 00
	00		 mov	 DWORD PTR fs:0, eax

; 1037 : 		AfxSetResourceHandle( m_hInstance);

  00023	8b 31		 mov	 esi, DWORD PTR [ecx]
; File C:\Program Files (x86)\Microsoft Visual Studio\2019\Community\VC\Tools\MSVC\14.29.30133\atlmfc\include\afxwin1.inl

; 27   : 	{ ASSERT(hInstResource != NULL); afxCurrentResourceHandle = hInstResource; }

  00025	e8 00 00 00 00	 call	 ?AfxGetModuleState@@YGPAVAFX_MODULE_STATE@@XZ ; AfxGetModuleState
  0002a	89 70 0c	 mov	 DWORD PTR [eax+12], esi
; File D:\git\src\IBK\IBK_DRFN\ProjSrc\SrcChartEx\ChartOCX\Include_Chart\Dll_Load\IMetaTable.h

; 1038 : 	}

  0002d	8b 4d f4	 mov	 ecx, DWORD PTR __$EHRec$[ebp]
  00030	64 89 0d 00 00
	00 00		 mov	 DWORD PTR fs:0, ecx
  00037	59		 pop	 ecx
  00038	5e		 pop	 esi
  00039	8b e5		 mov	 esp, ebp
  0003b	5d		 pop	 ebp
  0003c	c3		 ret	 0
  0003d	cc		 int	 3
  0003e	cc		 int	 3
  0003f	cc		 int	 3
  00040	cc		 int	 3
  00041	cc		 int	 3
_TEXT	ENDS
;	COMDAT text$x
text$x	SEGMENT
__ehhandler$??1CMultiLanguageResourceSetter@@QAE@XZ:
  00000	90		 npad	 1
  00001	90		 npad	 1
  00002	8b 54 24 08	 mov	 edx, DWORD PTR [esp+8]
  00006	8d 42 0c	 lea	 eax, DWORD PTR [edx+12]
  00009	8b 4a f8	 mov	 ecx, DWORD PTR [edx-8]
  0000c	33 c8		 xor	 ecx, eax
  0000e	e8 00 00 00 00	 call	 @__security_check_cookie@4
  00013	b8 00 00 00 00	 mov	 eax, OFFSET __ehfuncinfo$??1CMultiLanguageResourceSetter@@QAE@XZ
  00018	e9 00 00 00 00	 jmp	 ___CxxFrameHandler3
text$x	ENDS
??1CMultiLanguageResourceSetter@@QAE@XZ ENDP		; CMultiLanguageResourceSetter::~CMultiLanguageResourceSetter
; Function compile flags: /Ogtp
; File D:\git\src\IBK\IBK_DRFN\ProjSrc\SrcChartEx\ChartOCX\AddInManager\ChartCommonAddIn\OrderLinkAddInImp.cpp
; File C:\Program Files (x86)\Microsoft Visual Studio\2019\Community\VC\Tools\MSVC\14.29.30133\atlmfc\include\afx.inl
;	COMDAT ??_GCOrderLinkAddInImp@@UAEPAXI@Z
_TEXT	SEGMENT
___flags$ = 8						; size = 4
??_GCOrderLinkAddInImp@@UAEPAXI@Z PROC			; COrderLinkAddInImp::`scalar deleting destructor', COMDAT
; _this$ = ecx
  00000	55		 push	 ebp
  00001	8b ec		 mov	 ebp, esp
; File D:\git\src\IBK\IBK_DRFN\ProjSrc\SrcChartEx\ChartOCX\AddInManager\ChartCommonAddIn\OrderLinkAddInImp.cpp

; 52   : {

  00003	56		 push	 esi
  00004	8b f1		 mov	 esi, ecx

; 53   : }

  00006	8d 8e 44 01 00
	00		 lea	 ecx, DWORD PTR [esi+324]
  0000c	c7 06 00 00 00
	00		 mov	 DWORD PTR [esi], OFFSET ??_7COrderLinkAddInImp@@6BCIWUnknown@@@
  00012	c7 46 08 00 00
	00 00		 mov	 DWORD PTR [esi+8], OFFSET ??_7COrderLinkAddInImp@@6BIChartAddIn000000@@@
  00019	ff 15 00 00 00
	00		 call	 DWORD PTR __imp_??1?$CStringT@DV?$StrTraitMFC_DLL@DV?$ChTraitsCRT@D@ATL@@@@@ATL@@QAE@XZ
  0001f	8d 8e 40 01 00
	00		 lea	 ecx, DWORD PTR [esi+320]
  00025	ff 15 00 00 00
	00		 call	 DWORD PTR __imp_??1?$CStringT@DV?$StrTraitMFC_DLL@DV?$ChTraitsCRT@D@ATL@@@@@ATL@@QAE@XZ
  0002b	8d 8e 34 01 00
	00		 lea	 ecx, DWORD PTR [esi+308]
  00031	ff 15 00 00 00
	00		 call	 DWORD PTR __imp_??1?$CStringT@DV?$StrTraitMFC_DLL@DV?$ChTraitsCRT@D@ATL@@@@@ATL@@QAE@XZ
  00037	8b ce		 mov	 ecx, esi
  00039	e8 00 00 00 00	 call	 ??1CBoundMarkerAddInImp@@UAE@XZ ; CBoundMarkerAddInImp::~CBoundMarkerAddInImp
  0003e	8b 45 08	 mov	 eax, DWORD PTR ___flags$[ebp]
  00041	a8 01		 test	 al, 1
  00043	74 22		 je	 SHORT $LN12@scalar
  00045	a8 04		 test	 al, 4
  00047	75 10		 jne	 SHORT $LN3@scalar
; File C:\Program Files (x86)\Microsoft Visual Studio\2019\Community\VC\Tools\MSVC\14.29.30133\atlmfc\include\afx.inl

; 112  : 	{ ::operator delete(p); }

  00049	56		 push	 esi
  0004a	e8 00 00 00 00	 call	 ??3@YAXPAX@Z		; operator delete
  0004f	83 c4 04	 add	 esp, 4
  00052	8b c6		 mov	 eax, esi
  00054	5e		 pop	 esi
  00055	5d		 pop	 ebp
  00056	c2 04 00	 ret	 4
$LN3@scalar:
  00059	68 58 01 00 00	 push	 344			; 00000158H
  0005e	56		 push	 esi
  0005f	e8 00 00 00 00	 call	 ?__global_delete@@YAXPAXI@Z ; __global_delete
  00064	83 c4 08	 add	 esp, 8
$LN12@scalar:
  00067	8b c6		 mov	 eax, esi
  00069	5e		 pop	 esi
  0006a	5d		 pop	 ebp
  0006b	c2 04 00	 ret	 4
??_GCOrderLinkAddInImp@@UAEPAXI@Z ENDP			; COrderLinkAddInImp::`scalar deleting destructor'
_TEXT	ENDS
; Function compile flags: /Ogtp
; File D:\git\src\IBK\IBK_DRFN\ProjSrc\SrcChartEx\ChartOCX\AddInManager\ChartCommonAddIn\OrderLinkAddInImp.cpp
; File D:\git\src\IBK\IBK_DRFN\ProjSrc\SrcChartEx\ChartOCX\AddInManager\Include_AddIn\I000000\_IString.h
; File D:\git\src\IBK\IBK_DRFN\ProjSrc\SrcChartEx\ChartOCX\AddInManager\ChartCommonAddIn\OrderLinkAddInImp.cpp
; File D:\git\src\IBK\IBK_DRFN\ProjSrc\SrcChartEx\ChartOCX\AddInManager\Include_AddIn\I000000\_IString.h
; File D:\git\src\IBK\IBK_DRFN\ProjSrc\SrcChartEx\ChartOCX\AddInManager\ChartCommonAddIn\OrderLinkAddInImp.cpp
; File D:\git\src\IBK\IBK_DRFN\ProjSrc\SrcChartEx\ChartOCX\AddInManager\Include_AddIn\I000000\_IString.h
; File D:\git\src\IBK\IBK_DRFN\ProjSrc\SrcChartEx\ChartOCX\AddInManager\ChartCommonAddIn\OrderLinkAddInImp.cpp
; File D:\git\src\IBK\IBK_DRFN\ProjSrc\SrcChartEx\ChartOCX\AddInManager\Include_AddIn\I000000\_IString.h
; File D:\git\src\IBK\IBK_DRFN\ProjSrc\SrcChartEx\ChartOCX\AddInManager\ChartCommonAddIn\OrderLinkAddInImp.cpp
; File C:\Program Files (x86)\Microsoft Visual Studio\2019\Community\VC\Tools\MSVC\14.29.30133\atlmfc\include\atltypes.h
; File D:\git\src\IBK\IBK_DRFN\ProjSrc\SrcChartEx\ChartOCX\AddInManager\ChartCommonAddIn\OrderLinkAddInImp.cpp
; File C:\Program Files (x86)\Microsoft Visual Studio\2019\Community\VC\Tools\MSVC\14.29.30133\atlmfc\include\atltypes.h
; File D:\git\src\IBK\IBK_DRFN\ProjSrc\SrcChartEx\ChartOCX\AddInManager\ChartCommonAddIn\OrderLinkAddInImp.cpp
; File C:\Program Files (x86)\Microsoft Visual Studio\2019\Community\VC\Tools\MSVC\14.29.30133\atlmfc\include\atltypes.h
; File D:\git\src\IBK\IBK_DRFN\ProjSrc\SrcChartEx\ChartOCX\AddInManager\ChartCommonAddIn\OrderLinkAddInImp.cpp
; File C:\Program Files (x86)\Microsoft Visual Studio\2019\Community\VC\Tools\MSVC\14.29.30133\atlmfc\include\afxwin1.inl
; File D:\git\src\IBK\IBK_DRFN\ProjSrc\SrcChartEx\ChartOCX\Include_Chart\Dll_Load\IMetaTable.h
; File C:\Program Files (x86)\Microsoft Visual Studio\2019\Community\VC\Tools\MSVC\14.29.30133\atlmfc\include\afxwin1.inl
; File D:\git\src\IBK\IBK_DRFN\ProjSrc\SrcChartEx\ChartOCX\AddInManager\ChartCommonAddIn\OrderLinkAddInImp.cpp
; File C:\Program Files (x86)\Microsoft Visual Studio\2019\Community\VC\Tools\MSVC\14.29.30133\atlmfc\include\afxwin1.inl
; File C:\Program Files (x86)\Microsoft Visual Studio\2019\Community\VC\Tools\MSVC\14.29.30133\atlmfc\include\afxwin2.inl
; File D:\git\src\IBK\IBK_DRFN\ProjSrc\SrcChartEx\ChartOCX\AddInManager\ChartCommonAddIn\OrderLinkAddInImp.cpp
; File D:\git\src\IBK\IBK_DRFN\ProjSrc\SrcChartEx\ChartOCX\Include_Chart\Dll_Load\IMetaTable.h
; File C:\Program Files (x86)\Microsoft Visual Studio\2019\Community\VC\Tools\MSVC\14.29.30133\atlmfc\include\afxwin1.inl
; File D:\git\src\IBK\IBK_DRFN\ProjSrc\SrcChartEx\ChartOCX\Include_Chart\Dll_Load\IMetaTable.h
; File C:\Program Files (x86)\Microsoft Visual Studio\2019\Community\VC\Tools\MSVC\14.29.30133\atlmfc\include\afxwin1.inl
; File D:\git\src\IBK\IBK_DRFN\ProjSrc\SrcChartEx\ChartOCX\Include_Chart\Dll_Load\IMetaTable.h
; File D:\git\src\IBK\IBK_DRFN\ProjSrc\SrcChartEx\ChartOCX\AddInManager\ChartCommonAddIn\OrderLinkAddInImp.cpp
; File D:\git\src\IBK\IBK_DRFN\ProjSrc\SrcChartEx\ChartOCX\AddInManager\Include_AddIn\I000000\_IString.h
; File D:\git\src\IBK\IBK_DRFN\ProjSrc\SrcChartEx\ChartOCX\AddInManager\ChartCommonAddIn\OrderLinkAddInImp.cpp
;	COMDAT ?OnMouseMove@COrderLinkAddInImp@@MAEHPAUHDC__@@IAAUtagPOINT@@KQAUHBITMAP__@@@Z
_TEXT	SEGMENT
___mlrs__$2 = -72					; size = 4
_szRQ$ = -68						; size = 8
_szGraphName$ = -60					; size = 8
_p_nV$ = -52						; size = 4
_p_nG$ = -48						; size = 4
_point$GSCopy$1$ = -44					; size = 4
_nRow$ = -40						; size = 4
_nCol$ = -36						; size = 4
$T3 = -32						; size = 16
__$ArrayPad$ = -16					; size = 4
__$EHRec$ = -12						; size = 12
_p_hDC$ = 8						; size = 4
_nFlags$ = 12						; size = 4
_point$ = 16						; size = 4
_p_dwMouseActionID$ = 20				; size = 4
_p_hbmpMainOSB$ = 24					; size = 4
?OnMouseMove@COrderLinkAddInImp@@MAEHPAUHDC__@@IAAUtagPOINT@@KQAUHBITMAP__@@@Z PROC ; COrderLinkAddInImp::OnMouseMove, COMDAT
; _this$ = ecx

; 531  : {

  00000	55		 push	 ebp
  00001	8b ec		 mov	 ebp, esp
  00003	6a ff		 push	 -1
  00005	68 00 00 00 00	 push	 __ehhandler$?OnMouseMove@COrderLinkAddInImp@@MAEHPAUHDC__@@IAAUtagPOINT@@KQAUHBITMAP__@@@Z
  0000a	64 a1 00 00 00
	00		 mov	 eax, DWORD PTR fs:0
  00010	50		 push	 eax
  00011	83 ec 3c	 sub	 esp, 60			; 0000003cH
  00014	a1 00 00 00 00	 mov	 eax, DWORD PTR ___security_cookie
  00019	33 c5		 xor	 eax, ebp
  0001b	89 45 f0	 mov	 DWORD PTR __$ArrayPad$[ebp], eax
  0001e	53		 push	 ebx
  0001f	56		 push	 esi
  00020	57		 push	 edi
  00021	50		 push	 eax
  00022	8d 45 f4	 lea	 eax, DWORD PTR __$EHRec$[ebp]
  00025	64 a3 00 00 00
	00		 mov	 DWORD PTR fs:0, eax
  0002b	8b d9		 mov	 ebx, ecx

; 532  : 	if( !m_bRun)	return FALSE;

  0002d	80 bb b0 00 00
	00 00		 cmp	 BYTE PTR [ebx+176], 0
  00034	8b 55 10	 mov	 edx, DWORD PTR _point$[ebp]
  00037	89 55 d4	 mov	 DWORD PTR _point$GSCopy$1$[ebp], edx
  0003a	0f 84 1c 02 00
	00		 je	 $LN4@OnMouseMov

; 533  : 
; 534  : 	// 20081031  >>
; 535  : 	int nRow, nCol;
; 536  : 	m_pIChartManager->GetBlockIndex(point, nRow, nCol);

  00040	8b 4b 1c	 mov	 ecx, DWORD PTR [ebx+28]
  00043	8d 75 dc	 lea	 esi, DWORD PTR _nCol$[ebp]
  00046	56		 push	 esi
  00047	8d 75 d8	 lea	 esi, DWORD PTR _nRow$[ebp]
  0004a	56		 push	 esi
  0004b	ff 72 04	 push	 DWORD PTR [edx+4]
  0004e	8b 01		 mov	 eax, DWORD PTR [ecx]
  00050	ff 32		 push	 DWORD PTR [edx]
  00052	ff 90 8c 00 00
	00		 call	 DWORD PTR [eax+140]

; 537  : 	if( nRow < 0 || nCol < 0) return FALSE;

  00058	8b 75 d8	 mov	 esi, DWORD PTR _nRow$[ebp]
  0005b	85 f6		 test	 esi, esi
  0005d	0f 88 f9 01 00
	00		 js	 $LN4@OnMouseMov
  00063	8b 55 dc	 mov	 edx, DWORD PTR _nCol$[ebp]
  00066	85 d2		 test	 edx, edx
  00068	0f 88 ee 01 00
	00		 js	 $LN4@OnMouseMov

; 538  : 
; 539  : 	IBlock *pIBlock = m_pIChartManager->GetBlock( nRow, nCol);

  0006e	8b 4b 1c	 mov	 ecx, DWORD PTR [ebx+28]
  00071	52		 push	 edx
  00072	56		 push	 esi
  00073	8b 01		 mov	 eax, DWORD PTR [ecx]
  00075	ff 50 38	 call	 DWORD PTR [eax+56]
  00078	8b f8		 mov	 edi, eax

; 540  : 	if( !pIBlock) return FALSE;

  0007a	85 ff		 test	 edi, edi
  0007c	0f 84 da 01 00
	00		 je	 $LN4@OnMouseMov

; 542  : 	ILPCSTR szRQ = m_pIChartManager->GetMainRQofBlock( nRow, nCol);

  00082	8b 4b 1c	 mov	 ecx, DWORD PTR [ebx+28]
  00085	ff 75 dc	 push	 DWORD PTR _nCol$[ebp]
  00088	ff 75 d8	 push	 DWORD PTR _nRow$[ebp]
  0008b	8b 11		 mov	 edx, DWORD PTR [ecx]
  0008d	ff 92 30 01 00
	00		 call	 DWORD PTR [edx+304]
; File D:\git\src\IBK\IBK_DRFN\ProjSrc\SrcChartEx\ChartOCX\AddInManager\Include_AddIn\I000000\_IString.h

; 39   : 		m_pIStrData = p_pIString;	// Do not AddRef(). Because It must be Return Value.

  00093	89 45 c0	 mov	 DWORD PTR _szRQ$[ebp+4], eax

; 40   : 		if( m_pIStrData) m_szData = m_pIStrData->GetData();

  00096	85 c0		 test	 eax, eax
  00098	74 09		 je	 SHORT $LN18@OnMouseMov
  0009a	8b 10		 mov	 edx, DWORD PTR [eax]
  0009c	8b c8		 mov	 ecx, eax
  0009e	ff 52 10	 call	 DWORD PTR [edx+16]
  000a1	eb 02		 jmp	 SHORT $LN59@OnMouseMov
$LN18@OnMouseMov:

; 41   : 		else m_szData = NULL;

  000a3	33 c0		 xor	 eax, eax
$LN59@OnMouseMov:
; File D:\git\src\IBK\IBK_DRFN\ProjSrc\SrcChartEx\ChartOCX\AddInManager\ChartCommonAddIn\OrderLinkAddInImp.cpp

; 542  : 	ILPCSTR szRQ = m_pIChartManager->GetMainRQofBlock( nRow, nCol);

  000a5	89 45 bc	 mov	 DWORD PTR _szRQ$[ebp], eax

; 543  : 	m_strRQ = szRQ;

  000a8	50		 push	 eax
  000a9	8d 8b 3c 01 00
	00		 lea	 ecx, DWORD PTR [ebx+316]
  000af	c7 45 fc 00 00
	00 00		 mov	 DWORD PTR __$EHRec$[ebp+8], 0
  000b6	ff 15 00 00 00
	00		 call	 DWORD PTR __imp_??4?$CStringT@DV?$StrTraitMFC_DLL@DV?$ChTraitsCRT@D@ATL@@@@@ATL@@QAEAAV01@PBD@Z

; 546  : 	ILPCSTR szGraphName = pIBlock->FindFirstIndicator( _MTEXT( C2_PRICE_CHART), p_nV, p_nG, m_strRQ);

  000bc	ff b3 3c 01 00
	00		 push	 DWORD PTR [ebx+316]
  000c2	8d 45 d0	 lea	 eax, DWORD PTR _p_nG$[ebp]
  000c5	c7 45 cc ff ff
	ff ff		 mov	 DWORD PTR _p_nV$[ebp], -1
  000cc	50		 push	 eax
  000cd	8d 45 cc	 lea	 eax, DWORD PTR _p_nV$[ebp]
  000d0	c7 45 d0 ff ff
	ff ff		 mov	 DWORD PTR _p_nG$[ebp], -1
  000d7	8b 17		 mov	 edx, DWORD PTR [edi]
  000d9	8b cf		 mov	 ecx, edi
  000db	50		 push	 eax
  000dc	a1 54 00 00 00	 mov	 eax, DWORD PTR ?g_iMetaTable@@3VIMetaTable@@A+84
  000e1	ff b0 28 03 00
	00		 push	 DWORD PTR [eax+808]
  000e7	ff 52 38	 call	 DWORD PTR [edx+56]
; File D:\git\src\IBK\IBK_DRFN\ProjSrc\SrcChartEx\ChartOCX\AddInManager\Include_AddIn\I000000\_IString.h

; 39   : 		m_pIStrData = p_pIString;	// Do not AddRef(). Because It must be Return Value.

  000ea	89 45 c8	 mov	 DWORD PTR _szGraphName$[ebp+4], eax

; 40   : 		if( m_pIStrData) m_szData = m_pIStrData->GetData();

  000ed	85 c0		 test	 eax, eax
  000ef	74 09		 je	 SHORT $LN24@OnMouseMov
  000f1	8b 10		 mov	 edx, DWORD PTR [eax]
  000f3	8b c8		 mov	 ecx, eax
  000f5	ff 52 10	 call	 DWORD PTR [edx+16]
  000f8	eb 02		 jmp	 SHORT $LN60@OnMouseMov
$LN24@OnMouseMov:

; 41   : 		else m_szData = NULL;

  000fa	33 c0		 xor	 eax, eax
$LN60@OnMouseMov:
; File D:\git\src\IBK\IBK_DRFN\ProjSrc\SrcChartEx\ChartOCX\AddInManager\ChartCommonAddIn\OrderLinkAddInImp.cpp

; 546  : 	ILPCSTR szGraphName = pIBlock->FindFirstIndicator( _MTEXT( C2_PRICE_CHART), p_nV, p_nG, m_strRQ);

  000fc	89 45 c4	 mov	 DWORD PTR _szGraphName$[ebp], eax
; File D:\git\src\IBK\IBK_DRFN\ProjSrc\SrcChartEx\ChartOCX\AddInManager\Include_AddIn\I000000\_IString.h

; 57   : 		if( !m_szData) return TRUE;

  000ff	8b 17		 mov	 edx, DWORD PTR [edi]
; File D:\git\src\IBK\IBK_DRFN\ProjSrc\SrcChartEx\ChartOCX\AddInManager\ChartCommonAddIn\OrderLinkAddInImp.cpp

; 546  : 	ILPCSTR szGraphName = pIBlock->FindFirstIndicator( _MTEXT( C2_PRICE_CHART), p_nV, p_nG, m_strRQ);

  00101	c6 45 fc 01	 mov	 BYTE PTR __$EHRec$[ebp+8], 1
; File D:\git\src\IBK\IBK_DRFN\ProjSrc\SrcChartEx\ChartOCX\AddInManager\Include_AddIn\I000000\_IString.h

; 57   : 		if( !m_szData) return TRUE;

  00105	85 c0		 test	 eax, eax
  00107	74 05		 je	 SHORT $LN57@OnMouseMov
; File D:\git\src\IBK\IBK_DRFN\ProjSrc\SrcChartEx\ChartOCX\AddInManager\ChartCommonAddIn\OrderLinkAddInImp.cpp

; 547  : 	if( szGraphName.IsEmpty())

  00109	80 38 00	 cmp	 BYTE PTR [eax], 0
  0010c	75 0b		 jne	 SHORT $LN6@OnMouseMov
$LN57@OnMouseMov:

; 548  : 	{
; 549  : 		pIBlock->Release();

  0010e	57		 push	 edi
  0010f	ff 52 08	 call	 DWORD PTR [edx+8]
  00112	33 f6		 xor	 esi, esi
  00114	e9 1a 01 00 00	 jmp	 $LN16@OnMouseMov
$LN6@OnMouseMov:

; 550  : 		return FALSE;
; 551  : 	}
; 552  : 
; 553  : 	m_bLog = pIBlock->IsLogScale();

  00119	8b cf		 mov	 ecx, edi
  0011b	ff 52 24	 call	 DWORD PTR [edx+36]
  0011e	89 83 d8 00 00
	00		 mov	 DWORD PTR [ebx+216], eax

; 554  : 	m_bReverse = pIBlock->IsVScaleInvert( 0);

  00124	8b cf		 mov	 ecx, edi
  00126	8b 07		 mov	 eax, DWORD PTR [edi]
  00128	6a 00		 push	 0
  0012a	ff 50 58	 call	 DWORD PTR [eax+88]
  0012d	89 83 dc 00 00
	00		 mov	 DWORD PTR [ebx+220], eax

; 555  : 	pIBlock->GetVScaleGroupMinMax( 0, m_dViewMin, m_dViewMax);

  00133	8b cf		 mov	 ecx, edi
  00135	8b 17		 mov	 edx, DWORD PTR [edi]
  00137	8d 83 e8 00 00
	00		 lea	 eax, DWORD PTR [ebx+232]
  0013d	50		 push	 eax
  0013e	8d 83 e0 00 00
	00		 lea	 eax, DWORD PTR [ebx+224]
  00144	50		 push	 eax
  00145	6a 00		 push	 0
  00147	ff 52 48	 call	 DWORD PTR [edx+72]

; 556  : 	pIBlock->GetGraphRegions( m_rctGraphRegion, m_rctBlockRegion);

  0014a	8b 17		 mov	 edx, DWORD PTR [edi]
  0014c	8d 83 f0 00 00
	00		 lea	 eax, DWORD PTR [ebx+240]
  00152	50		 push	 eax
  00153	8d b3 00 01 00
	00		 lea	 esi, DWORD PTR [ebx+256]
  00159	8b cf		 mov	 ecx, edi
  0015b	56		 push	 esi
  0015c	ff 52 10	 call	 DWORD PTR [edx+16]

; 557  : 	m_rctGraphDrawingRegion = pIBlock->GetGraphDrwingRegion();

  0015f	8b 07		 mov	 eax, DWORD PTR [edi]
  00161	8d 4d e0	 lea	 ecx, DWORD PTR $T3[ebp]
  00164	6a 00		 push	 0
  00166	51		 push	 ecx
  00167	8b cf		 mov	 ecx, edi
  00169	ff 50 1c	 call	 DWORD PTR [eax+28]
; File C:\Program Files (x86)\Microsoft Visual Studio\2019\Community\VC\Tools\MSVC\14.29.30133\atlmfc\include\atltypes.h

; 765  : 	::CopyRect(this, &srcRect);

  0016c	50		 push	 eax
; File D:\git\src\IBK\IBK_DRFN\ProjSrc\SrcChartEx\ChartOCX\AddInManager\ChartCommonAddIn\OrderLinkAddInImp.cpp

; 557  : 	m_rctGraphDrawingRegion = pIBlock->GetGraphDrwingRegion();

  0016d	8d 83 84 00 00
	00		 lea	 eax, DWORD PTR [ebx+132]
; File C:\Program Files (x86)\Microsoft Visual Studio\2019\Community\VC\Tools\MSVC\14.29.30133\atlmfc\include\atltypes.h

; 765  : 	::CopyRect(this, &srcRect);

  00173	50		 push	 eax
  00174	ff 15 00 00 00
	00		 call	 DWORD PTR __imp__CopyRect@8
; File D:\git\src\IBK\IBK_DRFN\ProjSrc\SrcChartEx\ChartOCX\AddInManager\ChartCommonAddIn\OrderLinkAddInImp.cpp

; 559  : 	pIBlock->Release();

  0017a	8b 07		 mov	 eax, DWORD PTR [edi]
  0017c	57		 push	 edi
  0017d	ff 50 08	 call	 DWORD PTR [eax+8]
; File C:\Program Files (x86)\Microsoft Visual Studio\2019\Community\VC\Tools\MSVC\14.29.30133\atlmfc\include\atltypes.h

; 648  : 	return ::PtInRect(this, point);

  00180	8b 7d d4	 mov	 edi, DWORD PTR _point$GSCopy$1$[ebp]
  00183	ff 77 04	 push	 DWORD PTR [edi+4]
  00186	ff 37		 push	 DWORD PTR [edi]
  00188	56		 push	 esi
  00189	ff 15 00 00 00
	00		 call	 DWORD PTR __imp__PtInRect@12
; File D:\git\src\IBK\IBK_DRFN\ProjSrc\SrcChartEx\ChartOCX\AddInManager\ChartCommonAddIn\OrderLinkAddInImp.cpp

; 563  : 	if( !m_rctGraphRegion.PtInRect(point))		return FALSE;

  0018f	85 c0		 test	 eax, eax
  00191	75 07		 jne	 SHORT $LN7@OnMouseMov
  00193	33 f6		 xor	 esi, esi
  00195	e9 99 00 00 00	 jmp	 $LN16@OnMouseMov
$LN7@OnMouseMov:

; 564  : 
; 565  : 	// 2.1    .
; 566  : 	//	( ,  Mouse Button   ,  Cursor Mode  )
; 567  : 	//		,       .)
; 568  : 	if( !m_bOnSetCaprture && !nFlags )//&& !m_strItemCode.IsEmpty())

  0019a	8b 83 b8 00 00
	00		 mov	 eax, DWORD PTR [ebx+184]
  001a0	85 c0		 test	 eax, eax
  001a2	75 6e		 jne	 SHORT $LN62@OnMouseMov
  001a4	39 45 0c	 cmp	 DWORD PTR _nFlags$[ebp], eax
  001a7	75 72		 jne	 SHORT $LN9@OnMouseMov

; 569  : 	{
; 570  : 		// 2. Mouse Capturing Flag TRUE .
; 571  : 		m_bOnSetCaprture = TRUE;

  001a9	c7 83 b8 00 00
	00 01 00 00 00	 mov	 DWORD PTR [ebx+184], 1

; 577  : 		ML_SET_DEFAULT_RES();

  001b3	e8 00 00 00 00	 call	 ?AfxGetStaticModuleState@@YGPAVAFX_MODULE_STATE@@XZ ; AfxGetStaticModuleState
  001b8	8b 78 08	 mov	 edi, DWORD PTR [eax+8]
; File C:\Program Files (x86)\Microsoft Visual Studio\2019\Community\VC\Tools\MSVC\14.29.30133\atlmfc\include\afxwin1.inl

; 25   : 		return afxCurrentResourceHandle; }

  001bb	e8 00 00 00 00	 call	 ?AfxGetModuleState@@YGPAVAFX_MODULE_STATE@@XZ ; AfxGetModuleState
; File D:\git\src\IBK\IBK_DRFN\ProjSrc\SrcChartEx\ChartOCX\Include_Chart\Dll_Load\IMetaTable.h

; 1032 : 		m_hInstance = AfxGetResourceHandle();

  001c0	8b 70 0c	 mov	 esi, DWORD PTR [eax+12]
  001c3	89 75 b8	 mov	 DWORD PTR ___mlrs__$2[ebp], esi
; File C:\Program Files (x86)\Microsoft Visual Studio\2019\Community\VC\Tools\MSVC\14.29.30133\atlmfc\include\afxwin1.inl

; 27   : 	{ ASSERT(hInstResource != NULL); afxCurrentResourceHandle = hInstResource; }

  001c6	e8 00 00 00 00	 call	 ?AfxGetModuleState@@YGPAVAFX_MODULE_STATE@@XZ ; AfxGetModuleState
  001cb	89 78 0c	 mov	 DWORD PTR [eax+12], edi
; File D:\git\src\IBK\IBK_DRFN\ProjSrc\SrcChartEx\ChartOCX\AddInManager\ChartCommonAddIn\OrderLinkAddInImp.cpp

; 577  : 		ML_SET_DEFAULT_RES();

  001ce	c6 45 fc 02	 mov	 BYTE PTR __$EHRec$[ebp+8], 2
; File C:\Program Files (x86)\Microsoft Visual Studio\2019\Community\VC\Tools\MSVC\14.29.30133\atlmfc\include\afxwin1.inl

; 19   : 	{ return afxCurrentWinApp; }

  001d2	e8 00 00 00 00	 call	 ?AfxGetModuleState@@YGPAVAFX_MODULE_STATE@@XZ ; AfxGetModuleState
; File C:\Program Files (x86)\Microsoft Visual Studio\2019\Community\VC\Tools\MSVC\14.29.30133\atlmfc\include\afxwin2.inl

; 1044 : 	{ return ::LoadCursorW(AfxFindResourceHandle(ATL_MAKEINTRESOURCE(nIDResource),

  001d7	68 48 71 00 00	 push	 29000			; 00007148H
  001dc	6a 0c		 push	 12			; 0000000cH
  001de	68 48 71 00 00	 push	 29000			; 00007148H
  001e3	e8 00 00 00 00	 call	 ?AfxFindResourceHandle@@YGPAUHINSTANCE__@@PBD0@Z ; AfxFindResourceHandle
  001e8	50		 push	 eax
  001e9	ff 15 00 00 00
	00		 call	 DWORD PTR __imp__LoadCursorW@8
; File D:\git\src\IBK\IBK_DRFN\ProjSrc\SrcChartEx\ChartOCX\AddInManager\ChartCommonAddIn\OrderLinkAddInImp.cpp

; 578  : 		m_hAPCursor = AfxGetApp()->LoadCursor( IDC_AP_INDICATOR);

  001ef	89 83 28 01 00
	00		 mov	 DWORD PTR [ebx+296], eax
; File D:\git\src\IBK\IBK_DRFN\ProjSrc\SrcChartEx\ChartOCX\Include_Chart\Dll_Load\IMetaTable.h

; 1036 : 	{

  001f5	c6 45 fc 03	 mov	 BYTE PTR __$EHRec$[ebp+8], 3
; File C:\Program Files (x86)\Microsoft Visual Studio\2019\Community\VC\Tools\MSVC\14.29.30133\atlmfc\include\afxwin1.inl

; 27   : 	{ ASSERT(hInstResource != NULL); afxCurrentResourceHandle = hInstResource; }

  001f9	e8 00 00 00 00	 call	 ?AfxGetModuleState@@YGPAVAFX_MODULE_STATE@@XZ ; AfxGetModuleState
  001fe	8b 7d d4	 mov	 edi, DWORD PTR _point$GSCopy$1$[ebp]
; File D:\git\src\IBK\IBK_DRFN\ProjSrc\SrcChartEx\ChartOCX\Include_Chart\Dll_Load\IMetaTable.h

; 1038 : 	}

  00201	c6 45 fc 01	 mov	 BYTE PTR __$EHRec$[ebp+8], 1
; File C:\Program Files (x86)\Microsoft Visual Studio\2019\Community\VC\Tools\MSVC\14.29.30133\atlmfc\include\afxwin1.inl

; 27   : 	{ ASSERT(hInstResource != NULL); afxCurrentResourceHandle = hInstResource; }

  00205	89 70 0c	 mov	 DWORD PTR [eax+12], esi
; File D:\git\src\IBK\IBK_DRFN\ProjSrc\SrcChartEx\ChartOCX\Include_Chart\Dll_Load\IMetaTable.h

; 1038 : 	}

  00208	8b 83 b8 00 00
	00		 mov	 eax, DWORD PTR [ebx+184]
; File D:\git\src\IBK\IBK_DRFN\ProjSrc\SrcChartEx\ChartOCX\AddInManager\ChartCommonAddIn\OrderLinkAddInImp.cpp

; 584  : 	if( m_bOnSetCaprture) m_nIndicatorPosY = point.y;	// Set Indicator Drawing Position			(IndicatorPosition)

  0020e	85 c0		 test	 eax, eax
  00210	74 09		 je	 SHORT $LN9@OnMouseMov
$LN62@OnMouseMov:
  00212	8b 47 04	 mov	 eax, DWORD PTR [edi+4]
  00215	89 83 b4 00 00
	00		 mov	 DWORD PTR [ebx+180], eax
$LN9@OnMouseMov:

; 585  : 	// (2004.10.25, ) SetCapture(),   Cursor ,
; 586  : 	//		ReleaseCapture()   OCX Cursor .
; 587  : 	//		(         .  ...)
; 588  : 	if( m_hAPCursor) m_pIChartOCX->SetCursorHandle( m_hAPCursor);

  0021b	8b 93 28 01 00
	00		 mov	 edx, DWORD PTR [ebx+296]
  00221	85 d2		 test	 edx, edx
  00223	74 09		 je	 SHORT $LN10@OnMouseMov
  00225	8b 4b 04	 mov	 ecx, DWORD PTR [ebx+4]
  00228	52		 push	 edx
  00229	8b 01		 mov	 eax, DWORD PTR [ecx]
  0022b	ff 50 4c	 call	 DWORD PTR [eax+76]
$LN10@OnMouseMov:

; 591  : 	return TRUE;

  0022e	be 01 00 00 00	 mov	 esi, 1
$LN16@OnMouseMov:
; File D:\git\src\IBK\IBK_DRFN\ProjSrc\SrcChartEx\ChartOCX\AddInManager\Include_AddIn\I000000\_IString.h

; 45   : 		if( m_pIStrData)

  00233	8b 4d c8	 mov	 ecx, DWORD PTR _szGraphName$[ebp+4]
  00236	c6 45 fc 04	 mov	 BYTE PTR __$EHRec$[ebp+8], 4
  0023a	85 c9		 test	 ecx, ecx
  0023c	74 06		 je	 SHORT $LN50@OnMouseMov

; 46   : 		{
; 47   : 			m_pIStrData->Release();

  0023e	8b 01		 mov	 eax, DWORD PTR [ecx]
  00240	51		 push	 ecx
  00241	ff 50 08	 call	 DWORD PTR [eax+8]
$LN50@OnMouseMov:

; 45   : 		if( m_pIStrData)

  00244	8b 45 c0	 mov	 eax, DWORD PTR _szRQ$[ebp+4]
  00247	c7 45 fc 05 00
	00 00		 mov	 DWORD PTR __$EHRec$[ebp+8], 5
  0024e	85 c0		 test	 eax, eax
  00250	74 06		 je	 SHORT $LN54@OnMouseMov

; 46   : 		{
; 47   : 			m_pIStrData->Release();

  00252	8b 08		 mov	 ecx, DWORD PTR [eax]
  00254	50		 push	 eax
  00255	ff 51 08	 call	 DWORD PTR [ecx+8]
$LN54@OnMouseMov:
; File D:\git\src\IBK\IBK_DRFN\ProjSrc\SrcChartEx\ChartOCX\AddInManager\ChartCommonAddIn\OrderLinkAddInImp.cpp

; 591  : 	return TRUE;

  00258	8b c6		 mov	 eax, esi
  0025a	eb 02		 jmp	 SHORT $LN1@OnMouseMov
$LN4@OnMouseMov:

; 537  : 	if( nRow < 0 || nCol < 0) return FALSE;

  0025c	33 c0		 xor	 eax, eax
$LN1@OnMouseMov:

; 592  : }

  0025e	8b 4d f4	 mov	 ecx, DWORD PTR __$EHRec$[ebp]
  00261	64 89 0d 00 00
	00 00		 mov	 DWORD PTR fs:0, ecx
  00268	59		 pop	 ecx
  00269	5f		 pop	 edi
  0026a	5e		 pop	 esi
  0026b	5b		 pop	 ebx
  0026c	8b 4d f0	 mov	 ecx, DWORD PTR __$ArrayPad$[ebp]
  0026f	33 cd		 xor	 ecx, ebp
  00271	e8 00 00 00 00	 call	 @__security_check_cookie@4
  00276	8b e5		 mov	 esp, ebp
  00278	5d		 pop	 ebp
  00279	c2 14 00	 ret	 20			; 00000014H
_TEXT	ENDS
;	COMDAT text$x
text$x	SEGMENT
__unwindfunclet$?OnMouseMove@COrderLinkAddInImp@@MAEHPAUHDC__@@IAAUtagPOINT@@KQAUHBITMAP__@@@Z$0:
  00000	8d 4d bc	 lea	 ecx, DWORD PTR _szRQ$[ebp]
  00003	e9 00 00 00 00	 jmp	 ??1ILPCSTR000000@@QAE@XZ ; ILPCSTR000000::~ILPCSTR000000
__unwindfunclet$?OnMouseMove@COrderLinkAddInImp@@MAEHPAUHDC__@@IAAUtagPOINT@@KQAUHBITMAP__@@@Z$1:
  00008	8d 4d c4	 lea	 ecx, DWORD PTR _szGraphName$[ebp]
  0000b	e9 00 00 00 00	 jmp	 ??1ILPCSTR000000@@QAE@XZ ; ILPCSTR000000::~ILPCSTR000000
__unwindfunclet$?OnMouseMove@COrderLinkAddInImp@@MAEHPAUHDC__@@IAAUtagPOINT@@KQAUHBITMAP__@@@Z$2:
  00010	8d 4d b8	 lea	 ecx, DWORD PTR ___mlrs__$2[ebp]
  00013	e9 00 00 00 00	 jmp	 ??1CMultiLanguageResourceSetter@@QAE@XZ ; CMultiLanguageResourceSetter::~CMultiLanguageResourceSetter
  00018	cc		 int	 3
  00019	cc		 int	 3
  0001a	cc		 int	 3
  0001b	cc		 int	 3
  0001c	cc		 int	 3
__ehhandler$?OnMouseMove@COrderLinkAddInImp@@MAEHPAUHDC__@@IAAUtagPOINT@@KQAUHBITMAP__@@@Z:
  0001d	90		 npad	 1
  0001e	90		 npad	 1
  0001f	8b 54 24 08	 mov	 edx, DWORD PTR [esp+8]
  00023	8d 42 0c	 lea	 eax, DWORD PTR [edx+12]
  00026	8b 4a b4	 mov	 ecx, DWORD PTR [edx-76]
  00029	33 c8		 xor	 ecx, eax
  0002b	e8 00 00 00 00	 call	 @__security_check_cookie@4
  00030	8b 4a fc	 mov	 ecx, DWORD PTR [edx-4]
  00033	33 c8		 xor	 ecx, eax
  00035	e8 00 00 00 00	 call	 @__security_check_cookie@4
  0003a	b8 00 00 00 00	 mov	 eax, OFFSET __ehfuncinfo$?OnMouseMove@COrderLinkAddInImp@@MAEHPAUHDC__@@IAAUtagPOINT@@KQAUHBITMAP__@@@Z
  0003f	e9 00 00 00 00	 jmp	 ___CxxFrameHandler3
text$x	ENDS
?OnMouseMove@COrderLinkAddInImp@@MAEHPAUHDC__@@IAAUtagPOINT@@KQAUHBITMAP__@@@Z ENDP ; COrderLinkAddInImp::OnMouseMove
; Function compile flags: /Ogtp
; File D:\git\src\IBK\IBK_DRFN\ProjSrc\SrcChartEx\ChartOCX\AddInManager\ChartCommonAddIn\OrderLinkAddInImp.cpp
; File C:\Program Files (x86)\Microsoft Visual Studio\2019\Community\VC\Tools\MSVC\14.29.30133\atlmfc\include\atltypes.h
; File D:\git\src\IBK\IBK_DRFN\ProjSrc\SrcChartEx\ChartOCX\AddInManager\ChartCommonAddIn\OrderLinkAddInImp.cpp
; File C:\Program Files (x86)\Microsoft Visual Studio\2019\Community\VC\Tools\MSVC\14.29.30133\atlmfc\include\atltypes.h
; File D:\git\src\IBK\IBK_DRFN\ProjSrc\SrcChartEx\ChartOCX\AddInManager\ChartCommonAddIn\OrderLinkAddInImp.cpp
; File C:\Program Files (x86)\Microsoft Visual Studio\2019\Community\VC\Tools\MSVC\14.29.30133\atlmfc\include\afxwin1.inl
; File D:\git\src\IBK\IBK_DRFN\ProjSrc\SrcChartEx\ChartOCX\Include_Chart\Dll_Load\IMetaTable.h
; File C:\Program Files (x86)\Microsoft Visual Studio\2019\Community\VC\Tools\MSVC\14.29.30133\atlmfc\include\afxwin1.inl
; File D:\git\src\IBK\IBK_DRFN\ProjSrc\SrcChartEx\ChartOCX\AddInManager\ChartCommonAddIn\OrderLinkAddInImp.cpp
; File C:\Program Files (x86)\Microsoft Visual Studio\2019\Community\VC\Tools\MSVC\14.29.30133\atlmfc\include\afxwin1.inl
; File C:\Program Files (x86)\Microsoft Visual Studio\2019\Community\VC\Tools\MSVC\14.29.30133\atlmfc\include\afxwin2.inl
; File D:\git\src\IBK\IBK_DRFN\ProjSrc\SrcChartEx\ChartOCX\AddInManager\ChartCommonAddIn\OrderLinkAddInImp.cpp
; File D:\git\src\IBK\IBK_DRFN\ProjSrc\SrcChartEx\ChartOCX\AddInManager\Include_AddIn\I000000\_IString.h
; File D:\git\src\IBK\IBK_DRFN\ProjSrc\SrcChartEx\ChartOCX\AddInManager\ChartCommonAddIn\OrderLinkAddInImp.cpp
; File D:\git\src\IBK\IBK_DRFN\ProjSrc\SrcChartEx\ChartOCX\AddInManager\Include_AddIn\I000000\_IString.h
; File D:\git\src\IBK\IBK_DRFN\ProjSrc\SrcChartEx\ChartOCX\AddInManager\ChartCommonAddIn\OrderLinkAddInImp.cpp
; File D:\git\src\IBK\IBK_DRFN\ProjSrc\SrcChartEx\ChartOCX\AddInManager\Include_AddIn\I000000\_IString.h
; File D:\git\src\IBK\IBK_DRFN\ProjSrc\SrcChartEx\ChartOCX\AddInManager\ChartCommonAddIn\OrderLinkAddInImp.cpp
; File D:\git\src\IBK\IBK_DRFN\ProjSrc\SrcChartEx\ChartOCX\AddInManager\Include_AddIn\I000000\_IString.h
; File D:\git\src\IBK\IBK_DRFN\ProjSrc\SrcChartEx\ChartOCX\AddInManager\ChartCommonAddIn\OrderLinkAddInImp.cpp
; File D:\git\src\IBK\IBK_DRFN\ProjSrc\SrcChartEx\ChartOCX\Include_Chart\Dll_Load\IMetaTable.h
; File C:\Program Files (x86)\Microsoft Visual Studio\2019\Community\VC\Tools\MSVC\14.29.30133\atlmfc\include\afxwin1.inl
; File D:\git\src\IBK\IBK_DRFN\ProjSrc\SrcChartEx\ChartOCX\AddInManager\ChartCommonAddIn\OrderLinkAddInImp.cpp
;	COMDAT ?OnLButtonDblClk@COrderLinkAddInImp@@MAEHPAUHDC__@@IAAUtagPOINT@@K@Z
_TEXT	SEGMENT
tv396 = -60						; size = 8
_strType$2 = -60					; size = 8
_szHelpMsg$3 = -52					; size = 8
___mlrs__$ = -44					; size = 4
_szItemName$4 = -40					; size = 4
_dHoga$5 = -36						; size = 8
_pIPacket$1$ = -32					; size = 4
$T6 = -32						; size = 4
_szItemCode$7 = -28					; size = 4
_strUnit$8 = -24					; size = 4
_pIPacketManager$1$ = -20				; size = 4
_strPacketType$9 = -16					; size = 4
__$EHRec$ = -12						; size = 12
_p_hDC$ = 8						; size = 4
_nFlags$ = 12						; size = 4
_strFormat$10 = 16					; size = 4
_strData$11 = 16					; size = 4
_point$ = 16						; size = 4
_p_dwMouseActionID$ = 20				; size = 4
?OnLButtonDblClk@COrderLinkAddInImp@@MAEHPAUHDC__@@IAAUtagPOINT@@K@Z PROC ; COrderLinkAddInImp::OnLButtonDblClk, COMDAT
; _this$ = ecx

; 454  : {

  00000	55		 push	 ebp
  00001	8b ec		 mov	 ebp, esp
  00003	6a ff		 push	 -1
  00005	68 00 00 00 00	 push	 __ehhandler$?OnLButtonDblClk@COrderLinkAddInImp@@MAEHPAUHDC__@@IAAUtagPOINT@@K@Z
  0000a	64 a1 00 00 00
	00		 mov	 eax, DWORD PTR fs:0
  00010	50		 push	 eax
  00011	83 ec 30	 sub	 esp, 48			; 00000030H
  00014	53		 push	 ebx
  00015	56		 push	 esi
  00016	57		 push	 edi
  00017	a1 00 00 00 00	 mov	 eax, DWORD PTR ___security_cookie
  0001c	33 c5		 xor	 eax, ebp
  0001e	50		 push	 eax
  0001f	8d 45 f4	 lea	 eax, DWORD PTR __$EHRec$[ebp]
  00022	64 a3 00 00 00
	00		 mov	 DWORD PTR fs:0, eax
  00028	8b d9		 mov	 ebx, ecx

; 455  : 	// 1.     
; 456  : 	if( !m_bRun) return FALSE;

  0002a	80 bb b0 00 00
	00 00		 cmp	 BYTE PTR [ebx+176], 0
  00031	0f 84 ac 03 00
	00		 je	 $LN70@OnLButtonD
; File C:\Program Files (x86)\Microsoft Visual Studio\2019\Community\VC\Tools\MSVC\14.29.30133\atlmfc\include\atltypes.h

; 648  : 	return ::PtInRect(this, point);

  00037	8b 45 10	 mov	 eax, DWORD PTR _point$[ebp]
  0003a	ff 70 04	 push	 DWORD PTR [eax+4]
  0003d	ff 30		 push	 DWORD PTR [eax]
; File D:\git\src\IBK\IBK_DRFN\ProjSrc\SrcChartEx\ChartOCX\AddInManager\ChartCommonAddIn\OrderLinkAddInImp.cpp

; 457  : 	if( !m_rctGraphRegion.PtInRect(point) )		return FALSE;

  0003f	8d 83 00 01 00
	00		 lea	 eax, DWORD PTR [ebx+256]
; File C:\Program Files (x86)\Microsoft Visual Studio\2019\Community\VC\Tools\MSVC\14.29.30133\atlmfc\include\atltypes.h

; 648  : 	return ::PtInRect(this, point);

  00045	50		 push	 eax
  00046	ff 15 00 00 00
	00		 call	 DWORD PTR __imp__PtInRect@12
; File D:\git\src\IBK\IBK_DRFN\ProjSrc\SrcChartEx\ChartOCX\AddInManager\ChartCommonAddIn\OrderLinkAddInImp.cpp

; 457  : 	if( !m_rctGraphRegion.PtInRect(point) )		return FALSE;

  0004c	85 c0		 test	 eax, eax
  0004e	0f 84 8f 03 00
	00		 je	 $LN70@OnLButtonD

; 463  : 	ML_SET_DEFAULT_RES();

  00054	e8 00 00 00 00	 call	 ?AfxGetStaticModuleState@@YGPAVAFX_MODULE_STATE@@XZ ; AfxGetStaticModuleState
  00059	8b 78 08	 mov	 edi, DWORD PTR [eax+8]
; File C:\Program Files (x86)\Microsoft Visual Studio\2019\Community\VC\Tools\MSVC\14.29.30133\atlmfc\include\afxwin1.inl

; 25   : 		return afxCurrentResourceHandle; }

  0005c	e8 00 00 00 00	 call	 ?AfxGetModuleState@@YGPAVAFX_MODULE_STATE@@XZ ; AfxGetModuleState
; File D:\git\src\IBK\IBK_DRFN\ProjSrc\SrcChartEx\ChartOCX\Include_Chart\Dll_Load\IMetaTable.h

; 1032 : 		m_hInstance = AfxGetResourceHandle();

  00061	8b 70 0c	 mov	 esi, DWORD PTR [eax+12]
  00064	89 75 d4	 mov	 DWORD PTR ___mlrs__$[ebp], esi
; File C:\Program Files (x86)\Microsoft Visual Studio\2019\Community\VC\Tools\MSVC\14.29.30133\atlmfc\include\afxwin1.inl

; 27   : 	{ ASSERT(hInstResource != NULL); afxCurrentResourceHandle = hInstResource; }

  00067	e8 00 00 00 00	 call	 ?AfxGetModuleState@@YGPAVAFX_MODULE_STATE@@XZ ; AfxGetModuleState
  0006c	89 78 0c	 mov	 DWORD PTR [eax+12], edi
; File D:\git\src\IBK\IBK_DRFN\ProjSrc\SrcChartEx\ChartOCX\AddInManager\ChartCommonAddIn\OrderLinkAddInImp.cpp

; 463  : 	ML_SET_DEFAULT_RES();

  0006f	c7 45 fc 00 00
	00 00		 mov	 DWORD PTR __$EHRec$[ebp+8], 0
; File C:\Program Files (x86)\Microsoft Visual Studio\2019\Community\VC\Tools\MSVC\14.29.30133\atlmfc\include\afxwin1.inl

; 19   : 	{ return afxCurrentWinApp; }

  00076	e8 00 00 00 00	 call	 ?AfxGetModuleState@@YGPAVAFX_MODULE_STATE@@XZ ; AfxGetModuleState
; File C:\Program Files (x86)\Microsoft Visual Studio\2019\Community\VC\Tools\MSVC\14.29.30133\atlmfc\include\afxwin2.inl

; 1044 : 	{ return ::LoadCursorW(AfxFindResourceHandle(ATL_MAKEINTRESOURCE(nIDResource),

  0007b	68 48 71 00 00	 push	 29000			; 00007148H
  00080	6a 0c		 push	 12			; 0000000cH
  00082	68 48 71 00 00	 push	 29000			; 00007148H
  00087	e8 00 00 00 00	 call	 ?AfxFindResourceHandle@@YGPAUHINSTANCE__@@PBD0@Z ; AfxFindResourceHandle
  0008c	50		 push	 eax
  0008d	ff 15 00 00 00
	00		 call	 DWORD PTR __imp__LoadCursorW@8
; File D:\git\src\IBK\IBK_DRFN\ProjSrc\SrcChartEx\ChartOCX\AddInManager\ChartCommonAddIn\OrderLinkAddInImp.cpp

; 466  : 	m_pIChartOCX->SetCursorHandle( m_hAPCursor);

  00093	8b 4b 04	 mov	 ecx, DWORD PTR [ebx+4]
  00096	89 83 28 01 00
	00		 mov	 DWORD PTR [ebx+296], eax
  0009c	50		 push	 eax
  0009d	8b 11		 mov	 edx, DWORD PTR [ecx]
  0009f	ff 52 4c	 call	 DWORD PTR [edx+76]

; 467  : 
; 468  : 	m_dIndicatedPrice = m_pIChartOCX->ConvertYPositionToData( point.y, m_rctGraphDrawingRegion.top, m_rctGraphDrawingRegion.bottom, m_dViewMax, m_dViewMin, m_bLog, m_bReverse);

  000a2	ff b3 dc 00 00
	00		 push	 DWORD PTR [ebx+220]
  000a8	f2 0f 10 83 e0
	00 00 00	 movsd	 xmm0, QWORD PTR [ebx+224]
  000b0	ff b3 d8 00 00
	00		 push	 DWORD PTR [ebx+216]
  000b6	8b 4b 04	 mov	 ecx, DWORD PTR [ebx+4]
  000b9	8b 55 10	 mov	 edx, DWORD PTR _point$[ebp]
  000bc	83 ec 10	 sub	 esp, 16			; 00000010H
  000bf	8b 01		 mov	 eax, DWORD PTR [ecx]
  000c1	f2 0f 11 44 24
	08		 movsd	 QWORD PTR [esp+8], xmm0
  000c7	f2 0f 10 83 e8
	00 00 00	 movsd	 xmm0, QWORD PTR [ebx+232]
  000cf	f2 0f 11 04 24	 movsd	 QWORD PTR [esp], xmm0
  000d4	ff b3 90 00 00
	00		 push	 DWORD PTR [ebx+144]
  000da	8b 80 30 01 00
	00		 mov	 eax, DWORD PTR [eax+304]
  000e0	ff b3 88 00 00
	00		 push	 DWORD PTR [ebx+136]
  000e6	ff 72 04	 push	 DWORD PTR [edx+4]
  000e9	ff d0		 call	 eax

; 469  : 
; 470  : 	// (2004.10.26, )  (Precision)   String   .
; 471  : 	int nDecimal = 0;
; 472  : 	// (2004.10.26, , !) double Int    Int      100   .
; 473  : 	if( m_dPacketUnitValue != 0) nDecimal = ( int)( ( log10( m_dPacketUnitValue) * 100) / 100);	

  000eb	f2 0f 10 83 30
	01 00 00	 movsd	 xmm0, QWORD PTR [ebx+304]
  000f3	33 ff		 xor	 edi, edi
  000f5	66 0f 2e 05 00
	00 00 00	 ucomisd xmm0, QWORD PTR __real@0000000000000000
  000fd	dd 9b d0 00 00
	00		 fstp	 QWORD PTR [ebx+208]
  00103	9f		 lahf
  00104	f6 c4 44	 test	 ah, 68			; 00000044H
  00107	7b 19		 jnp	 SHORT $LN4@OnLButtonD
  00109	e8 00 00 00 00	 call	 __libm_sse2_log10_precise
  0010e	f2 0f 59 05 00
	00 00 00	 mulsd	 xmm0, QWORD PTR __real@4059000000000000
  00116	f2 0f 5e 05 00
	00 00 00	 divsd	 xmm0, QWORD PTR __real@4059000000000000
  0011e	f2 0f 2c f8	 cvttsd2si edi, xmm0
$LN4@OnLButtonD:

; 474  : 
; 475  : 	if( CChartInfo::WORLD_ON == m_eChartMode)

  00122	83 7b 34 03	 cmp	 DWORD PTR [ebx+52], 3
  00126	0f 85 f4 01 00
	00		 jne	 $LN5@OnLButtonD

; 476  : 	{
; 477  : 		// 20081020  >>
; 478  : 		CString strPacketType;

  0012c	8d 4d f0	 lea	 ecx, DWORD PTR _strPacketType$9[ebp]
  0012f	ff 15 00 00 00
	00		 call	 DWORD PTR __imp_??0?$CStringT@DV?$StrTraitMFC_DLL@DV?$ChTraitsCRT@D@ATL@@@@@ATL@@QAE@XZ

; 479  : 		IPacketManager *pIPacketManager = m_pIPacketListManager->GetPacketManager( m_strRQ);

  00135	8b 4b 14	 mov	 ecx, DWORD PTR [ebx+20]
  00138	ff b3 3c 01 00
	00		 push	 DWORD PTR [ebx+316]
  0013e	c6 45 fc 01	 mov	 BYTE PTR __$EHRec$[ebp+8], 1
  00142	8b 01		 mov	 eax, DWORD PTR [ecx]
  00144	ff 50 10	 call	 DWORD PTR [eax+16]
  00147	8b c8		 mov	 ecx, eax
  00149	89 4d ec	 mov	 DWORD PTR _pIPacketManager$1$[ebp], ecx

; 480  : 		if( pIPacketManager)

  0014c	85 c9		 test	 ecx, ecx
  0014e	0f 84 4b 01 00
	00		 je	 $LN69@OnLButtonD
; File D:\git\src\IBK\IBK_DRFN\ProjSrc\SrcChartEx\ChartOCX\AddInManager\Include_AddIn\I000000\_IString.h

; 35   : 		m_pIStrData = NULL;

  00154	33 ff		 xor	 edi, edi
  00156	c7 45 c4 00 00
	00 00		 mov	 DWORD PTR _strType$2[ebp], 0
  0015d	89 7d c8	 mov	 DWORD PTR _strType$2[ebp+4], edi
; File D:\git\src\IBK\IBK_DRFN\ProjSrc\SrcChartEx\ChartOCX\AddInManager\ChartCommonAddIn\OrderLinkAddInImp.cpp

; 483  : 			IPacket *pIPacket = pIPacketManager->GetPacket( _MTEXT( C0_CLOSE));

  00160	a1 54 00 00 00	 mov	 eax, DWORD PTR ?g_iMetaTable@@3VIMetaTable@@A+84
  00165	8b 11		 mov	 edx, DWORD PTR [ecx]
  00167	c6 45 fc 02	 mov	 BYTE PTR __$EHRec$[ebp+8], 2
  0016b	ff 70 14	 push	 DWORD PTR [eax+20]
  0016e	ff 52 10	 call	 DWORD PTR [edx+16]
  00171	89 45 e0	 mov	 DWORD PTR _pIPacket$1$[ebp], eax

; 484  : 			if( pIPacket)

  00174	85 c0		 test	 eax, eax
  00176	74 2e		 je	 SHORT $LN8@OnLButtonD

; 485  : 			{
; 486  : 				strType = pIPacket->GetType();

  00178	8b 10		 mov	 edx, DWORD PTR [eax]
  0017a	8b c8		 mov	 ecx, eax
  0017c	6a 01		 push	 1
  0017e	ff 52 1c	 call	 DWORD PTR [edx+28]
  00181	8b f8		 mov	 edi, eax
; File D:\git\src\IBK\IBK_DRFN\ProjSrc\SrcChartEx\ChartOCX\AddInManager\Include_AddIn\I000000\_IString.h

; 68   : 		m_pIStrData = stringSrc;	// Do not AddRef(). Because It must be Return Value.

  00183	89 7d c8	 mov	 DWORD PTR _strType$2[ebp+4], edi
  00186	85 ff		 test	 edi, edi

; 69   : 		if( m_pIStrData) m_szData = m_pIStrData->GetData();

  00188	74 0c		 je	 SHORT $LN39@OnLButtonD
  0018a	8b 17		 mov	 edx, DWORD PTR [edi]
  0018c	8b cf		 mov	 ecx, edi
  0018e	ff 52 10	 call	 DWORD PTR [edx+16]
  00191	89 45 c4	 mov	 DWORD PTR _strType$2[ebp], eax
  00194	eb 07		 jmp	 SHORT $LN40@OnLButtonD
$LN39@OnLButtonD:

; 70   : 		else m_szData = NULL;

  00196	c7 45 c4 00 00
	00 00		 mov	 DWORD PTR _strType$2[ebp], 0
$LN40@OnLButtonD:
; File D:\git\src\IBK\IBK_DRFN\ProjSrc\SrcChartEx\ChartOCX\AddInManager\ChartCommonAddIn\OrderLinkAddInImp.cpp

; 487  : 				pIPacket->Release();

  0019d	8b 4d e0	 mov	 ecx, DWORD PTR _pIPacket$1$[ebp]
  001a0	51		 push	 ecx
  001a1	8b 01		 mov	 eax, DWORD PTR [ecx]
  001a3	ff 50 08	 call	 DWORD PTR [eax+8]
$LN8@OnLButtonD:

; 488  : 			}
; 489  : 			strPacketType = strType;

  001a6	ff 75 c4	 push	 DWORD PTR _strType$2[ebp]
  001a9	8d 4d f0	 lea	 ecx, DWORD PTR _strPacketType$9[ebp]
  001ac	ff 15 00 00 00
	00		 call	 DWORD PTR __imp_??4?$CStringT@DV?$StrTraitMFC_DLL@DV?$ChTraitsCRT@D@ATL@@@@@ATL@@QAEAAV01@PBD@Z
; File D:\git\src\IBK\IBK_DRFN\ProjSrc\SrcChartEx\ChartOCX\AddInManager\Include_AddIn\I000000\_IString.h

; 39   : 		m_pIStrData = p_pIString;	// Do not AddRef(). Because It must be Return Value.

  001b2	c7 45 d0 00 00
	00 00		 mov	 DWORD PTR _szHelpMsg$3[ebp+4], 0

; 40   : 		if( m_pIStrData) m_szData = m_pIStrData->GetData();
; 41   : 		else m_szData = NULL;

  001b9	c7 45 cc 00 00
	00 00		 mov	 DWORD PTR _szHelpMsg$3[ebp], 0
; File D:\git\src\IBK\IBK_DRFN\ProjSrc\SrcChartEx\ChartOCX\AddInManager\ChartCommonAddIn\OrderLinkAddInImp.cpp

; 492  : 			pIPacketManager->GetHelpMessageItem( "HBPRICE", szHelpMsg);

  001c0	8b 4d ec	 mov	 ecx, DWORD PTR _pIPacketManager$1$[ebp]
  001c3	8d 55 cc	 lea	 edx, DWORD PTR _szHelpMsg$3[ebp]
  001c6	52		 push	 edx
  001c7	68 00 00 00 00	 push	 OFFSET ??_C@_07OEKCJGKM@HBPRICE@
  001cc	c6 45 fc 03	 mov	 BYTE PTR __$EHRec$[ebp+8], 3
  001d0	8b 01		 mov	 eax, DWORD PTR [ecx]
  001d2	ff 50 18	 call	 DWORD PTR [eax+24]

; 493  : 			CString strUnit( szHelpMsg);

  001d5	ff 75 cc	 push	 DWORD PTR _szHelpMsg$3[ebp]
  001d8	8d 4d e8	 lea	 ecx, DWORD PTR _strUnit$8[ebp]
  001db	ff 15 00 00 00
	00		 call	 DWORD PTR __imp_??0?$CStringT@DV?$StrTraitMFC_DLL@DV?$ChTraitsCRT@D@ATL@@@@@ATL@@QAE@PBD@Z

; 494  : 			double dHoga = atof( strUnit);

  001e1	ff 75 e8	 push	 DWORD PTR _strUnit$8[ebp]
  001e4	c6 45 fc 04	 mov	 BYTE PTR __$EHRec$[ebp+8], 4
  001e8	ff 15 00 00 00
	00		 call	 DWORD PTR __imp__atof
  001ee	dd 5d dc	 fstp	 QWORD PTR _dHoga$5[ebp]

; 495  : 			if( 0 < dHoga) m_dIndicatedPrice = long( m_dIndicatedPrice / dHoga + 0.5) * dHoga;

  001f1	f2 0f 10 4d dc	 movsd	 xmm1, QWORD PTR _dHoga$5[ebp]
  001f6	8d 8b d0 00 00
	00		 lea	 ecx, DWORD PTR [ebx+208]
  001fc	83 c4 04	 add	 esp, 4
  001ff	66 0f 2f 0d 00
	00 00 00	 comisd	 xmm1, QWORD PTR __real@0000000000000000
  00207	76 24		 jbe	 SHORT $LN9@OnLButtonD
  00209	f2 0f 10 01	 movsd	 xmm0, QWORD PTR [ecx]
  0020d	f2 0f 5e c1	 divsd	 xmm0, xmm1
  00211	f2 0f 58 05 00
	00 00 00	 addsd	 xmm0, QWORD PTR __real@3fe0000000000000
  00219	f2 0f 2c c0	 cvttsd2si eax, xmm0
  0021d	66 0f 6e c0	 movd	 xmm0, eax
  00221	f3 0f e6 c0	 cvtdq2pd xmm0, xmm0
  00225	f2 0f 59 c1	 mulsd	 xmm0, xmm1
  00229	f2 0f 11 01	 movsd	 QWORD PTR [ecx], xmm0
$LN9@OnLButtonD:

; 496  : 			m_strAskingPrice = CDataConversion::DoubleToString( m_dIndicatedPrice, strPacketType);

  0022d	8d 45 f0	 lea	 eax, DWORD PTR _strPacketType$9[ebp]
  00230	50		 push	 eax
  00231	51		 push	 ecx
  00232	8d 45 e0	 lea	 eax, DWORD PTR $T6[ebp]
  00235	50		 push	 eax
  00236	e8 00 00 00 00	 call	 ?DoubleToString@CDataConversion@@SA?AV?$CStringT@DV?$StrTraitMFC_DLL@DV?$ChTraitsCRT@D@ATL@@@@@ATL@@ABNABV23@@Z ; CDataConversion::DoubleToString
  0023b	83 c4 0c	 add	 esp, 12			; 0000000cH
  0023e	8d 8b 38 01 00
	00		 lea	 ecx, DWORD PTR [ebx+312]
  00244	c6 45 fc 05	 mov	 BYTE PTR __$EHRec$[ebp+8], 5
  00248	50		 push	 eax
  00249	ff 15 00 00 00
	00		 call	 DWORD PTR __imp_??4?$CStringT@DV?$StrTraitMFC_DLL@DV?$ChTraitsCRT@D@ATL@@@@@ATL@@QAEAAV01@ABV01@@Z
  0024f	8d 4d e0	 lea	 ecx, DWORD PTR $T6[ebp]
  00252	c6 45 fc 04	 mov	 BYTE PTR __$EHRec$[ebp+8], 4
  00256	ff 15 00 00 00
	00		 call	 DWORD PTR __imp_??1?$CStringT@DV?$StrTraitMFC_DLL@DV?$ChTraitsCRT@D@ATL@@@@@ATL@@QAE@XZ

; 497  : 			// 20081020  <<
; 498  : 			
; 499  : 			pIPacketManager->Release();

  0025c	8b 4d ec	 mov	 ecx, DWORD PTR _pIPacketManager$1$[ebp]
  0025f	51		 push	 ecx
  00260	8b 01		 mov	 eax, DWORD PTR [ecx]
  00262	ff 50 08	 call	 DWORD PTR [eax+8]

; 500  : 		}

  00265	8d 4d e8	 lea	 ecx, DWORD PTR _strUnit$8[ebp]
  00268	ff 15 00 00 00
	00		 call	 DWORD PTR __imp_??1?$CStringT@DV?$StrTraitMFC_DLL@DV?$ChTraitsCRT@D@ATL@@@@@ATL@@QAE@XZ
; File D:\git\src\IBK\IBK_DRFN\ProjSrc\SrcChartEx\ChartOCX\AddInManager\Include_AddIn\I000000\_IString.h

; 45   : 		if( m_pIStrData)

  0026e	8b 4d d0	 mov	 ecx, DWORD PTR _szHelpMsg$3[ebp+4]
  00271	c6 45 fc 06	 mov	 BYTE PTR __$EHRec$[ebp+8], 6
  00275	85 c9		 test	 ecx, ecx
  00277	74 14		 je	 SHORT $LN49@OnLButtonD

; 46   : 		{
; 47   : 			m_pIStrData->Release();

  00279	8b 01		 mov	 eax, DWORD PTR [ecx]
  0027b	51		 push	 ecx
  0027c	ff 50 08	 call	 DWORD PTR [eax+8]

; 48   : 			m_pIStrData = NULL;

  0027f	c7 45 d0 00 00
	00 00		 mov	 DWORD PTR _szHelpMsg$3[ebp+4], 0

; 49   : 			m_szData = NULL;

  00286	c7 45 cc 00 00
	00 00		 mov	 DWORD PTR _szHelpMsg$3[ebp], 0
$LN49@OnLButtonD:

; 44   : 	{

  0028d	c6 45 fc 07	 mov	 BYTE PTR __$EHRec$[ebp+8], 7

; 45   : 		if( m_pIStrData)

  00291	85 ff		 test	 edi, edi
  00293	74 06		 je	 SHORT $LN53@OnLButtonD

; 46   : 		{
; 47   : 			m_pIStrData->Release();

  00295	8b 07		 mov	 eax, DWORD PTR [edi]
  00297	57		 push	 edi
  00298	ff 50 08	 call	 DWORD PTR [eax+8]
$LN53@OnLButtonD:

; 50   : 		}
; 51   : 	}

  0029b	c6 45 fc 01	 mov	 BYTE PTR __$EHRec$[ebp+8], 1
$LN69@OnLButtonD:
; File D:\git\src\IBK\IBK_DRFN\ProjSrc\SrcChartEx\ChartOCX\AddInManager\ChartCommonAddIn\OrderLinkAddInImp.cpp

; 504  : 		m_pIPacketListManager->GetItemCode( m_strRQ, szItemCode, szItemName);

  0029f	8b 4b 14	 mov	 ecx, DWORD PTR [ebx+20]
  002a2	8d 55 d8	 lea	 edx, DWORD PTR _szItemName$4[ebp]
  002a5	52		 push	 edx
  002a6	8d 55 e4	 lea	 edx, DWORD PTR _szItemCode$7[ebp]
  002a9	c7 45 e4 00 00
	00 00		 mov	 DWORD PTR _szItemCode$7[ebp], 0
  002b0	c7 45 d8 00 00
	00 00		 mov	 DWORD PTR _szItemName$4[ebp], 0
  002b7	8d bb 38 01 00
	00		 lea	 edi, DWORD PTR [ebx+312]
  002bd	8b 01		 mov	 eax, DWORD PTR [ecx]
  002bf	52		 push	 edx
  002c0	ff b3 3c 01 00
	00		 push	 DWORD PTR [ebx+316]
  002c6	ff 50 24	 call	 DWORD PTR [eax+36]

; 505  : 		CString strData;

  002c9	8d 4d 10	 lea	 ecx, DWORD PTR _strData$11[ebp]
  002cc	ff 15 00 00 00
	00		 call	 DWORD PTR __imp_??0?$CStringT@DV?$StrTraitMFC_DLL@DV?$ChTraitsCRT@D@ATL@@@@@ATL@@QAE@XZ

; 506  : 		strData.Format( "%s,%s", szItemCode, m_strAskingPrice);

  002d2	ff 37		 push	 DWORD PTR [edi]
  002d4	8d 45 10	 lea	 eax, DWORD PTR _strData$11[ebp]
  002d7	c6 45 fc 08	 mov	 BYTE PTR __$EHRec$[ebp+8], 8
  002db	ff 75 e4	 push	 DWORD PTR _szItemCode$7[ebp]
  002de	68 00 00 00 00	 push	 OFFSET ??_C@_05HHFOOOHO@?$CFs?0?$CFs@
  002e3	50		 push	 eax
  002e4	ff 15 00 00 00
	00		 call	 DWORD PTR __imp_?Format@?$CStringT@DV?$StrTraitMFC_DLL@DV?$ChTraitsCRT@D@ATL@@@@@ATL@@QAAXPBDZZ

; 507  : 		// 20081031  <<
; 508  : 
; 509  : 		// (2005/8/18 - Seung-Won, Bae) Fire Event for Asking Price Data
; 510  : 		m_pIChartOCX->FireAddInEvent( "ChartCommonAddIn.dll:ORDER_LINK", 1, strData, 0, 0);

  002ea	8b 4b 04	 mov	 ecx, DWORD PTR [ebx+4]
  002ed	83 c4 10	 add	 esp, 16			; 00000010H
  002f0	0f 57 c0	 xorps	 xmm0, xmm0
  002f3	8b 01		 mov	 eax, DWORD PTR [ecx]
  002f5	6a 00		 push	 0
  002f7	83 ec 08	 sub	 esp, 8
  002fa	f2 0f 11 04 24	 movsd	 QWORD PTR [esp], xmm0
  002ff	ff 75 10	 push	 DWORD PTR _strData$11[ebp]
  00302	6a 01		 push	 1
  00304	68 00 00 00 00	 push	 OFFSET ??_C@_0CA@HIKIOJEN@ChartCommonAddIn?4dll?3ORDER_LINK@
  00309	ff 90 a8 01 00
	00		 call	 DWORD PTR [eax+424]

; 511  : 	}

  0030f	8d 4d 10	 lea	 ecx, DWORD PTR _strData$11[ebp]
  00312	ff 15 00 00 00
	00		 call	 DWORD PTR __imp_??1?$CStringT@DV?$StrTraitMFC_DLL@DV?$ChTraitsCRT@D@ATL@@@@@ATL@@QAE@XZ
  00318	8d 4d f0	 lea	 ecx, DWORD PTR _strPacketType$9[ebp]
  0031b	e9 95 00 00 00	 jmp	 $LN73@OnLButtonD
$LN5@OnLButtonD:

; 512  : 	else
; 513  : 	{
; 514  : 		CString strFormat;

  00320	8d 4d 10	 lea	 ecx, DWORD PTR _strFormat$10[ebp]
  00323	ff 15 00 00 00
	00		 call	 DWORD PTR __imp_??0?$CStringT@DV?$StrTraitMFC_DLL@DV?$ChTraitsCRT@D@ATL@@@@@ATL@@QAE@XZ
  00329	c6 45 fc 09	 mov	 BYTE PTR __$EHRec$[ebp+8], 9

; 515  : 		if( 0 <= nDecimal) strFormat = "%.0f";

  0032d	85 ff		 test	 edi, edi
  0032f	78 10		 js	 SHORT $LN10@OnLButtonD
  00331	68 00 00 00 00	 push	 OFFSET ??_C@_04GHNNFJCK@?$CF?40f@
  00336	8d 4d 10	 lea	 ecx, DWORD PTR _strFormat$10[ebp]
  00339	ff 15 00 00 00
	00		 call	 DWORD PTR __imp_??4?$CStringT@DV?$StrTraitMFC_DLL@DV?$ChTraitsCRT@D@ATL@@@@@ATL@@QAEAAV01@PBD@Z
  0033f	eb 15		 jmp	 SHORT $LN11@OnLButtonD
$LN10@OnLButtonD:

; 516  : 		else strFormat.Format( "%%.%df", -nDecimal);

  00341	f7 df		 neg	 edi
  00343	8d 45 10	 lea	 eax, DWORD PTR _strFormat$10[ebp]
  00346	57		 push	 edi
  00347	68 00 00 00 00	 push	 OFFSET ??_C@_06DNBDMDIL@?$CF?$CF?4?$CFdf@
  0034c	50		 push	 eax
  0034d	ff 15 00 00 00
	00		 call	 DWORD PTR __imp_?Format@?$CStringT@DV?$StrTraitMFC_DLL@DV?$ChTraitsCRT@D@ATL@@@@@ATL@@QAAXPBDZZ
  00353	83 c4 0c	 add	 esp, 12			; 0000000cH
$LN11@OnLButtonD:

; 517  : 
; 518  : 		// 3.1 Asking Price Text .
; 519  : 		m_strAskingPrice.Format( strFormat, m_dIndicatedPrice);

  00356	f2 0f 10 83 d0
	00 00 00	 movsd	 xmm0, QWORD PTR [ebx+208]
  0035e	8d bb 38 01 00
	00		 lea	 edi, DWORD PTR [ebx+312]
  00364	83 ec 08	 sub	 esp, 8
  00367	f2 0f 11 04 24	 movsd	 QWORD PTR [esp], xmm0
  0036c	ff 75 10	 push	 DWORD PTR _strFormat$10[ebp]
  0036f	57		 push	 edi
  00370	ff 15 00 00 00
	00		 call	 DWORD PTR __imp_?Format@?$CStringT@DV?$StrTraitMFC_DLL@DV?$ChTraitsCRT@D@ATL@@@@@ATL@@QAAXPBDZZ

; 520  : 		m_dIndicatedPrice = atof(m_strAskingPrice);

  00376	ff 37		 push	 DWORD PTR [edi]
  00378	ff 15 00 00 00
	00		 call	 DWORD PTR __imp__atof

; 521  : 
; 522  : 		// (2005/8/18 - Seung-Won, Bae) Fire Event for Asking Price Data
; 523  : 		m_pIChartOCX->FireAddInEvent( "ChartCommonAddIn.dll:ORDER_LINK", 1, "", m_dIndicatedPrice, 0);

  0037e	8b 4b 04	 mov	 ecx, DWORD PTR [ebx+4]
  00381	83 c4 14	 add	 esp, 20			; 00000014H
  00384	dd 5d c4	 fstp	 QWORD PTR tv396[ebp]
  00387	f2 0f 10 45 c4	 movsd	 xmm0, QWORD PTR tv396[ebp]
  0038c	f2 0f 11 83 d0
	00 00 00	 movsd	 QWORD PTR [ebx+208], xmm0
  00394	8b 01		 mov	 eax, DWORD PTR [ecx]
  00396	6a 00		 push	 0
  00398	83 ec 08	 sub	 esp, 8
  0039b	f2 0f 11 04 24	 movsd	 QWORD PTR [esp], xmm0
  003a0	68 00 00 00 00	 push	 OFFSET ??_C@_00CNPNBAHC@@
  003a5	6a 01		 push	 1
  003a7	68 00 00 00 00	 push	 OFFSET ??_C@_0CA@HIKIOJEN@ChartCommonAddIn?4dll?3ORDER_LINK@
  003ac	ff 90 a8 01 00
	00		 call	 DWORD PTR [eax+424]

; 524  : 	}

  003b2	8d 4d 10	 lea	 ecx, DWORD PTR _strFormat$10[ebp]
$LN73@OnLButtonD:
; File D:\git\src\IBK\IBK_DRFN\ProjSrc\SrcChartEx\ChartOCX\Include_Chart\Dll_Load\IMetaTable.h

; 1036 : 	{

  003b5	ff 15 00 00 00
	00		 call	 DWORD PTR __imp_??1?$CStringT@DV?$StrTraitMFC_DLL@DV?$ChTraitsCRT@D@ATL@@@@@ATL@@QAE@XZ
  003bb	c7 45 fc 0a 00
	00 00		 mov	 DWORD PTR __$EHRec$[ebp+8], 10 ; 0000000aH
; File C:\Program Files (x86)\Microsoft Visual Studio\2019\Community\VC\Tools\MSVC\14.29.30133\atlmfc\include\afxwin1.inl

; 27   : 	{ ASSERT(hInstResource != NULL); afxCurrentResourceHandle = hInstResource; }

  003c2	e8 00 00 00 00	 call	 ?AfxGetModuleState@@YGPAVAFX_MODULE_STATE@@XZ ; AfxGetModuleState
  003c7	89 70 0c	 mov	 DWORD PTR [eax+12], esi
; File D:\git\src\IBK\IBK_DRFN\ProjSrc\SrcChartEx\ChartOCX\AddInManager\ChartCommonAddIn\OrderLinkAddInImp.cpp

; 526  : 	return TRUE;	//    Mouse Action   .

  003ca	b8 01 00 00 00	 mov	 eax, 1

; 527  : }

  003cf	8b 4d f4	 mov	 ecx, DWORD PTR __$EHRec$[ebp]
  003d2	64 89 0d 00 00
	00 00		 mov	 DWORD PTR fs:0, ecx
  003d9	59		 pop	 ecx
  003da	5f		 pop	 edi
  003db	5e		 pop	 esi
  003dc	5b		 pop	 ebx
  003dd	8b e5		 mov	 esp, ebp
  003df	5d		 pop	 ebp
  003e0	c2 10 00	 ret	 16			; 00000010H
$LN70@OnLButtonD:

; 457  : 	if( !m_rctGraphRegion.PtInRect(point) )		return FALSE;

  003e3	33 c0		 xor	 eax, eax

; 527  : }

  003e5	8b 4d f4	 mov	 ecx, DWORD PTR __$EHRec$[ebp]
  003e8	64 89 0d 00 00
	00 00		 mov	 DWORD PTR fs:0, ecx
  003ef	59		 pop	 ecx
  003f0	5f		 pop	 edi
  003f1	5e		 pop	 esi
  003f2	5b		 pop	 ebx
  003f3	8b e5		 mov	 esp, ebp
  003f5	5d		 pop	 ebp
  003f6	c2 10 00	 ret	 16			; 00000010H
_TEXT	ENDS
;	COMDAT text$x
text$x	SEGMENT
__unwindfunclet$?OnLButtonDblClk@COrderLinkAddInImp@@MAEHPAUHDC__@@IAAUtagPOINT@@K@Z$0:
  00000	8d 4d d4	 lea	 ecx, DWORD PTR ___mlrs__$[ebp]
  00003	e9 00 00 00 00	 jmp	 ??1CMultiLanguageResourceSetter@@QAE@XZ ; CMultiLanguageResourceSetter::~CMultiLanguageResourceSetter
__unwindfunclet$?OnLButtonDblClk@COrderLinkAddInImp@@MAEHPAUHDC__@@IAAUtagPOINT@@K@Z$1:
  00008	8d 4d f0	 lea	 ecx, DWORD PTR _strPacketType$9[ebp]
  0000b	ff 25 00 00 00
	00		 jmp	 DWORD PTR __imp_??1?$CStringT@DV?$StrTraitMFC_DLL@DV?$ChTraitsCRT@D@ATL@@@@@ATL@@QAE@XZ
__unwindfunclet$?OnLButtonDblClk@COrderLinkAddInImp@@MAEHPAUHDC__@@IAAUtagPOINT@@K@Z$2:
  00011	8d 4d c4	 lea	 ecx, DWORD PTR _strType$2[ebp]
  00014	e9 00 00 00 00	 jmp	 ??1ILPCSTR000000@@QAE@XZ ; ILPCSTR000000::~ILPCSTR000000
__unwindfunclet$?OnLButtonDblClk@COrderLinkAddInImp@@MAEHPAUHDC__@@IAAUtagPOINT@@K@Z$3:
  00019	8d 4d cc	 lea	 ecx, DWORD PTR _szHelpMsg$3[ebp]
  0001c	e9 00 00 00 00	 jmp	 ??1ILPCSTR000000@@QAE@XZ ; ILPCSTR000000::~ILPCSTR000000
__unwindfunclet$?OnLButtonDblClk@COrderLinkAddInImp@@MAEHPAUHDC__@@IAAUtagPOINT@@K@Z$4:
  00021	8d 4d e8	 lea	 ecx, DWORD PTR _strUnit$8[ebp]
  00024	ff 25 00 00 00
	00		 jmp	 DWORD PTR __imp_??1?$CStringT@DV?$StrTraitMFC_DLL@DV?$ChTraitsCRT@D@ATL@@@@@ATL@@QAE@XZ
__unwindfunclet$?OnLButtonDblClk@COrderLinkAddInImp@@MAEHPAUHDC__@@IAAUtagPOINT@@K@Z$5:
  0002a	8d 4d e0	 lea	 ecx, DWORD PTR $T6[ebp]
  0002d	ff 25 00 00 00
	00		 jmp	 DWORD PTR __imp_??1?$CStringT@DV?$StrTraitMFC_DLL@DV?$ChTraitsCRT@D@ATL@@@@@ATL@@QAE@XZ
__unwindfunclet$?OnLButtonDblClk@COrderLinkAddInImp@@MAEHPAUHDC__@@IAAUtagPOINT@@K@Z$6:
  00033	8d 4d 10	 lea	 ecx, DWORD PTR _strData$11[ebp]
  00036	ff 25 00 00 00
	00		 jmp	 DWORD PTR __imp_??1?$CStringT@DV?$StrTraitMFC_DLL@DV?$ChTraitsCRT@D@ATL@@@@@ATL@@QAE@XZ
__unwindfunclet$?OnLButtonDblClk@COrderLinkAddInImp@@MAEHPAUHDC__@@IAAUtagPOINT@@K@Z$7:
  0003c	8d 4d 10	 lea	 ecx, DWORD PTR _strFormat$10[ebp]
  0003f	ff 25 00 00 00
	00		 jmp	 DWORD PTR __imp_??1?$CStringT@DV?$StrTraitMFC_DLL@DV?$ChTraitsCRT@D@ATL@@@@@ATL@@QAE@XZ
  00045	cc		 int	 3
  00046	cc		 int	 3
  00047	cc		 int	 3
  00048	cc		 int	 3
  00049	cc		 int	 3
__ehhandler$?OnLButtonDblClk@COrderLinkAddInImp@@MAEHPAUHDC__@@IAAUtagPOINT@@K@Z:
  0004a	90		 npad	 1
  0004b	90		 npad	 1
  0004c	8b 54 24 08	 mov	 edx, DWORD PTR [esp+8]
  00050	8d 42 0c	 lea	 eax, DWORD PTR [edx+12]
  00053	8b 4a c0	 mov	 ecx, DWORD PTR [edx-64]
  00056	33 c8		 xor	 ecx, eax
  00058	e8 00 00 00 00	 call	 @__security_check_cookie@4
  0005d	b8 00 00 00 00	 mov	 eax, OFFSET __ehfuncinfo$?OnLButtonDblClk@COrderLinkAddInImp@@MAEHPAUHDC__@@IAAUtagPOINT@@K@Z
  00062	e9 00 00 00 00	 jmp	 ___CxxFrameHandler3
text$x	ENDS
?OnLButtonDblClk@COrderLinkAddInImp@@MAEHPAUHDC__@@IAAUtagPOINT@@K@Z ENDP ; COrderLinkAddInImp::OnLButtonDblClk
; Function compile flags: /Ogtp
; File D:\git\src\IBK\IBK_DRFN\ProjSrc\SrcChartEx\ChartOCX\AddInManager\ChartCommonAddIn\OrderLinkAddInImp.cpp
;	COMDAT ?OnAddInToolCommand@COrderLinkAddInImp@@MAEHAAJW4EAICommandType@@@Z
_TEXT	SEGMENT
_p_lResult$ = 8						; size = 4
_p_eCommandID$ = 12					; size = 4
?OnAddInToolCommand@COrderLinkAddInImp@@MAEHAAJW4EAICommandType@@@Z PROC ; COrderLinkAddInImp::OnAddInToolCommand, COMDAT
; _this$ = ecx

; 406  : {

  00000	55		 push	 ebp
  00001	8b ec		 mov	 ebp, esp

; 407  : 	switch( p_eCommandID)

  00003	8b 45 0c	 mov	 eax, DWORD PTR _p_eCommandID$[ebp]
  00006	83 e8 0a	 sub	 eax, 10			; 0000000aH
  00009	74 1d		 je	 SHORT $LN4@OnAddInToo
  0000b	83 e8 01	 sub	 eax, 1
  0000e	74 06		 je	 SHORT $LN5@OnAddInToo

; 408  : 	{
; 409  : 		case EAI_CUSTOM_GET_BOUNDMARK_FLAG:	p_lResult = GetBoundMarkFlag();
; 410  : 											break;
; 411  : 		case EAI_CUSTOM_GET_EXISTENCE_BOUNDMARK:	p_lResult = IsExistenceBoundMark();
; 412  : 													break;
; 413  : 		default:	return FALSE;

  00010	33 c0		 xor	 eax, eax

; 416  : }

  00012	5d		 pop	 ebp
  00013	c2 08 00	 ret	 8
$LN5@OnAddInToo:

; 414  : 	}
; 415  : 	return TRUE;

  00016	8b 45 08	 mov	 eax, DWORD PTR _p_lResult$[ebp]
  00019	0f b6 49 54	 movzx	 ecx, BYTE PTR [ecx+84]
  0001d	89 08		 mov	 DWORD PTR [eax], ecx
  0001f	b8 01 00 00 00	 mov	 eax, 1

; 416  : }

  00024	5d		 pop	 ebp
  00025	c2 08 00	 ret	 8
$LN4@OnAddInToo:

; 414  : 	}
; 415  : 	return TRUE;

  00028	8b 45 08	 mov	 eax, DWORD PTR _p_lResult$[ebp]
  0002b	8b 49 58	 mov	 ecx, DWORD PTR [ecx+88]
  0002e	89 08		 mov	 DWORD PTR [eax], ecx
  00030	b8 01 00 00 00	 mov	 eax, 1

; 416  : }

  00035	5d		 pop	 ebp
  00036	c2 08 00	 ret	 8
?OnAddInToolCommand@COrderLinkAddInImp@@MAEHAAJW4EAICommandType@@@Z ENDP ; COrderLinkAddInImp::OnAddInToolCommand
_TEXT	ENDS
; Function compile flags: /Ogtp
; File D:\git\src\IBK\IBK_DRFN\ProjSrc\SrcChartEx\ChartOCX\AddInManager\ChartCommonAddIn\OrderLinkAddInImp.cpp
;	COMDAT ?OnAddInToolCommand@COrderLinkAddInImp@@MAEHW4EAICommandType@@J@Z
_TEXT	SEGMENT
_p_eCommandID$ = 8					; size = 4
_p_lParam$ = 12						; size = 4
?OnAddInToolCommand@COrderLinkAddInImp@@MAEHW4EAICommandType@@J@Z PROC ; COrderLinkAddInImp::OnAddInToolCommand, COMDAT
; _this$ = ecx

; 392  : {

  00000	55		 push	 ebp
  00001	8b ec		 mov	 ebp, esp

; 393  : 	if( EAI_CUSTOM_ENABLE_BOUNDMARK != p_eCommandID) return FALSE;

  00003	83 7d 08 09	 cmp	 DWORD PTR _p_eCommandID$[ebp], 9
  00007	56		 push	 esi
  00008	8b f1		 mov	 esi, ecx
  0000a	74 07		 je	 SHORT $LN2@OnAddInToo
  0000c	33 c0		 xor	 eax, eax
  0000e	5e		 pop	 esi

; 403  : }

  0000f	5d		 pop	 ebp
  00010	c2 08 00	 ret	 8
$LN2@OnAddInToo:

; 394  : 
; 395  : 	// (2004.10.22, ) /    .
; 396  : 	EnableBoundMark( p_lParam);	

  00013	ff 75 0c	 push	 DWORD PTR _p_lParam$[ebp]
  00016	8d 4e f8	 lea	 ecx, DWORD PTR [esi-8]
  00019	e8 00 00 00 00	 call	 ?EnableBoundMark@CBoundMarkerAddInImp@@IAEXH@Z ; CBoundMarkerAddInImp::EnableBoundMark

; 397  : 
; 398  : 	// (2004.10.06, )     Redraw.
; 399  : 	// (2004.12.13, ) NULL Pointer .
; 400  : 	m_pIChartOCX->InvalidateControl();

  0001e	8b 4e 04	 mov	 ecx, DWORD PTR [esi+4]
  00021	8b 01		 mov	 eax, DWORD PTR [ecx]
  00023	ff 50 38	 call	 DWORD PTR [eax+56]

; 401  : 
; 402  : 	return TRUE;

  00026	b8 01 00 00 00	 mov	 eax, 1
  0002b	5e		 pop	 esi

; 403  : }

  0002c	5d		 pop	 ebp
  0002d	c2 08 00	 ret	 8
?OnAddInToolCommand@COrderLinkAddInImp@@MAEHW4EAICommandType@@J@Z ENDP ; COrderLinkAddInImp::OnAddInToolCommand
_TEXT	ENDS
; Function compile flags: /Ogtp
; File D:\git\src\IBK\IBK_DRFN\ProjSrc\SrcChartEx\ChartOCX\AddInManager\ChartCommonAddIn\OrderLinkAddInImp.cpp
;	COMDAT ?OnToolCommand@COrderLinkAddInImp@@MAEXHH@Z
_TEXT	SEGMENT
_p_nToolType$ = 8					; size = 4
_p_nCmdOption$ = 12					; size = 4
?OnToolCommand@COrderLinkAddInImp@@MAEXHH@Z PROC	; COrderLinkAddInImp::OnToolCommand, COMDAT
; _this$ = ecx

; 205  : {

  00000	55		 push	 ebp
  00001	8b ec		 mov	 ebp, esp

; 206  : 	// (2007/1/29 - Seung-Won, Bae) Re-Notify the State to Tool UI
; 207  : 	if( CToolOptionInfo::T_ORDER_LINK == p_nToolType)

  00003	83 7d 08 74	 cmp	 DWORD PTR _p_nToolType$[ebp], 116 ; 00000074H
  00007	75 26		 jne	 SHORT $LN2@OnToolComm

; 208  : 	{
; 209  : 		if( p_nCmdOption == 1 )			m_bRun = true;
; 210  : 		else							m_bRun = false;
; 211  : 		m_pIChartOCX->OnToolStateChanged( CToolOptionInfo::T_ORDER_LINK, m_bRun);

  00009	83 7d 0c 01	 cmp	 DWORD PTR _p_nCmdOption$[ebp], 1
  0000d	0f 94 c0	 sete	 al
  00010	88 81 b0 00 00
	00		 mov	 BYTE PTR [ecx+176], al
  00016	8b 49 04	 mov	 ecx, DWORD PTR [ecx+4]
  00019	0f b6 c0	 movzx	 eax, al
  0001c	8b 11		 mov	 edx, DWORD PTR [ecx]
  0001e	89 45 0c	 mov	 DWORD PTR _p_nCmdOption$[ebp], eax
  00021	c7 45 08 74 00
	00 00		 mov	 DWORD PTR _p_nToolType$[ebp], 116 ; 00000074H

; 212  : 	}
; 213  : }

  00028	5d		 pop	 ebp

; 208  : 	{
; 209  : 		if( p_nCmdOption == 1 )			m_bRun = true;
; 210  : 		else							m_bRun = false;
; 211  : 		m_pIChartOCX->OnToolStateChanged( CToolOptionInfo::T_ORDER_LINK, m_bRun);

  00029	ff a2 b0 01 00
	00		 jmp	 DWORD PTR [edx+432]
$LN2@OnToolComm:

; 212  : 	}
; 213  : }

  0002f	5d		 pop	 ebp
  00030	c2 08 00	 ret	 8
?OnToolCommand@COrderLinkAddInImp@@MAEXHH@Z ENDP	; COrderLinkAddInImp::OnToolCommand
_TEXT	ENDS
; Function compile flags: /Ogtp
; File D:\git\src\IBK\IBK_DRFN\ProjSrc\SrcChartEx\ChartOCX\AddInManager\ChartCommonAddIn\OrderLinkAddInImp.cpp
;	COMDAT ?InvokeAddInStr@COrderLinkAddInImp@@MAEHPBD0@Z
_TEXT	SEGMENT
_p_szCommandName$ = 8					; size = 4
_p_szData$ = 12						; size = 4
?InvokeAddInStr@COrderLinkAddInImp@@MAEHPBD0@Z PROC	; COrderLinkAddInImp::InvokeAddInStr, COMDAT
; _this$ = ecx

; 180  : {

  00000	55		 push	 ebp
  00001	8b ec		 mov	 ebp, esp
  00003	56		 push	 esi

; 181  : 	// Load Chart Data Info I
; 182  : 	if( stricmp(p_szData, "on") == 0 )

  00004	68 00 00 00 00	 push	 OFFSET ??_C@_02LIELOMNJ@on@
  00009	ff 75 0c	 push	 DWORD PTR _p_szData$[ebp]
  0000c	8b f1		 mov	 esi, ecx
  0000e	ff 15 00 00 00
	00		 call	 DWORD PTR __imp__stricmp
  00014	8b 4e 24	 mov	 ecx, DWORD PTR [esi+36]
  00017	83 c4 08	 add	 esp, 8
  0001a	ff 76 10	 push	 DWORD PTR [esi+16]
  0001d	85 c0		 test	 eax, eax
  0001f	75 16		 jne	 SHORT $LN2@InvokeAddI

; 183  : 	{
; 184  : 		m_bRun = true;

  00021	c6 86 b0 00 00
	00 01		 mov	 BYTE PTR [esi+176], 1

; 185  : 		// (2008/9/13 - Seung-Won, Bae) Set Mouse Exclusive
; 186  : 		m_pIAddInToolMgr->GetAllMouseExclusive( m_pIAddInDllBase);

  00028	8b 01		 mov	 eax, DWORD PTR [ecx]
  0002a	ff 50 24	 call	 DWORD PTR [eax+36]

; 193  : 	}
; 194  : 
; 195  : 	return TRUE;
; 196  : }

  0002d	b8 01 00 00 00	 mov	 eax, 1
  00032	5e		 pop	 esi
  00033	5d		 pop	 ebp
  00034	c2 08 00	 ret	 8
$LN2@InvokeAddI:

; 187  : 	}
; 188  : 	else
; 189  : 	{
; 190  : 		m_bRun = false;

  00037	c6 86 b0 00 00
	00 00		 mov	 BYTE PTR [esi+176], 0

; 191  : 		// (2008/9/13 - Seung-Won, Bae) Set Mouse Exclusive
; 192  : 		m_pIAddInToolMgr->ReleaseAllMouseExclusive( m_pIAddInDllBase);

  0003e	8b 01		 mov	 eax, DWORD PTR [ecx]
  00040	ff 50 2c	 call	 DWORD PTR [eax+44]

; 193  : 	}
; 194  : 
; 195  : 	return TRUE;
; 196  : }

  00043	b8 01 00 00 00	 mov	 eax, 1
  00048	5e		 pop	 esi
  00049	5d		 pop	 ebp
  0004a	c2 08 00	 ret	 8
?InvokeAddInStr@COrderLinkAddInImp@@MAEHPBD0@Z ENDP	; COrderLinkAddInImp::InvokeAddInStr
_TEXT	ENDS
; Function compile flags: /Ogtp
; File D:\git\src\IBK\IBK_DRFN\ProjSrc\SrcChartEx\ChartOCX\AddInManager\ChartCommonAddIn\OrderLinkAddInImp.cpp
; File D:\git\src\IBK\IBK_DRFN\ProjSrc\SrcChartEx\ChartOCX\AddInManager\Include_AddIn\I000000\_IString.h
; File D:\git\src\IBK\IBK_DRFN\ProjSrc\SrcChartEx\ChartOCX\AddInManager\ChartCommonAddIn\OrderLinkAddInImp.cpp
; File D:\git\src\IBK\IBK_DRFN\ProjSrc\SrcChartEx\ChartOCX\AddInManager\Include_AddIn\I000000\_IString.h
; File D:\git\src\IBK\IBK_DRFN\ProjSrc\SrcChartEx\ChartOCX\AddInManager\ChartCommonAddIn\OrderLinkAddInImp.cpp
; File D:\git\src\IBK\IBK_DRFN\ProjSrc\SrcChartEx\ChartOCX\AddInManager\Include_AddIn\I000000\_IString.h
; File D:\git\src\IBK\IBK_DRFN\ProjSrc\SrcChartEx\ChartOCX\AddInManager\ChartCommonAddIn\OrderLinkAddInImp.cpp
;	COMDAT ?GetChartBasicData@COrderLinkAddInImp@@IAEHXZ
_TEXT	SEGMENT
_szGraphName$ = -36					; size = 8
_nG$ = -28						; size = 4
_nR$ = -24						; size = 4
_nC$ = -20						; size = 4
_nV$ = -16						; size = 4
__$EHRec$ = -12						; size = 12
?GetChartBasicData@COrderLinkAddInImp@@IAEHXZ PROC	; COrderLinkAddInImp::GetChartBasicData, COMDAT
; _this$ = ecx

; 420  : {

  00000	55		 push	 ebp
  00001	8b ec		 mov	 ebp, esp
  00003	6a ff		 push	 -1
  00005	68 00 00 00 00	 push	 __ehhandler$?GetChartBasicData@COrderLinkAddInImp@@IAEHXZ
  0000a	64 a1 00 00 00
	00		 mov	 eax, DWORD PTR fs:0
  00010	50		 push	 eax
  00011	83 ec 18	 sub	 esp, 24			; 00000018H
  00014	53		 push	 ebx
  00015	56		 push	 esi
  00016	57		 push	 edi
  00017	a1 00 00 00 00	 mov	 eax, DWORD PTR ___security_cookie
  0001c	33 c5		 xor	 eax, ebp
  0001e	50		 push	 eax
  0001f	8d 45 f4	 lea	 eax, DWORD PTR __$EHRec$[ebp]
  00022	64 a3 00 00 00
	00		 mov	 DWORD PTR fs:0, eax
  00028	8b f9		 mov	 edi, ecx

; 421  : 	//  Data View Start/End Index .
; 422  : 	if( !m_pIChartOCX->GetViewStartEndIndex( m_nStartIndex, m_nEndIndex)) return FALSE;

  0002a	8b 4f 0c	 mov	 ecx, DWORD PTR [edi+12]
  0002d	8d 87 2c 01 00
	00		 lea	 eax, DWORD PTR [edi+300]
  00033	50		 push	 eax
  00034	8d 87 28 01 00
	00		 lea	 eax, DWORD PTR [edi+296]
  0003a	50		 push	 eax
  0003b	8b 11		 mov	 edx, DWORD PTR [ecx]
  0003d	ff 92 24 01 00
	00		 call	 DWORD PTR [edx+292]
  00043	85 c0		 test	 eax, eax
  00045	75 12		 jne	 SHORT $LN2@GetChartBa

; 445  : }

  00047	8b 4d f4	 mov	 ecx, DWORD PTR __$EHRec$[ebp]
  0004a	64 89 0d 00 00
	00 00		 mov	 DWORD PTR fs:0, ecx
  00051	59		 pop	 ecx
  00052	5f		 pop	 edi
  00053	5e		 pop	 esi
  00054	5b		 pop	 ebx
  00055	8b e5		 mov	 esp, ebp
  00057	5d		 pop	 ebp
  00058	c3		 ret	 0
$LN2@GetChartBa:

; 426  : 	ILPCSTR szGraphName = m_pIChartManager->FindFirstIndicator( _MTEXT( C2_PRICE_CHART), nR, nC, nV, nG, "DEFAULT");

  00059	8b 4f 24	 mov	 ecx, DWORD PTR [edi+36]
  0005c	8d 45 e4	 lea	 eax, DWORD PTR _nG$[ebp]
  0005f	68 00 00 00 00	 push	 OFFSET ??_C@_07MGCPDNLD@DEFAULT@
  00064	50		 push	 eax
  00065	8d 45 f0	 lea	 eax, DWORD PTR _nV$[ebp]
  00068	c7 45 e8 00 00
	00 00		 mov	 DWORD PTR _nR$[ebp], 0
  0006f	50		 push	 eax
  00070	8d 45 ec	 lea	 eax, DWORD PTR _nC$[ebp]
  00073	c7 45 ec 00 00
	00 00		 mov	 DWORD PTR _nC$[ebp], 0
  0007a	50		 push	 eax
  0007b	8d 45 e8	 lea	 eax, DWORD PTR _nR$[ebp]
  0007e	c7 45 f0 00 00
	00 00		 mov	 DWORD PTR _nV$[ebp], 0
  00085	50		 push	 eax
  00086	a1 54 00 00 00	 mov	 eax, DWORD PTR ?g_iMetaTable@@3VIMetaTable@@A+84
  0008b	c7 45 e4 00 00
	00 00		 mov	 DWORD PTR _nG$[ebp], 0
  00092	8b 11		 mov	 edx, DWORD PTR [ecx]
  00094	ff b0 28 03 00
	00		 push	 DWORD PTR [eax+808]
  0009a	ff 52 70	 call	 DWORD PTR [edx+112]
; File D:\git\src\IBK\IBK_DRFN\ProjSrc\SrcChartEx\ChartOCX\AddInManager\Include_AddIn\I000000\_IString.h

; 39   : 		m_pIStrData = p_pIString;	// Do not AddRef(). Because It must be Return Value.

  0009d	8b f0		 mov	 esi, eax
  0009f	89 75 e0	 mov	 DWORD PTR _szGraphName$[ebp+4], esi

; 40   : 		if( m_pIStrData) m_szData = m_pIStrData->GetData();

  000a2	85 f6		 test	 esi, esi
  000a4	74 09		 je	 SHORT $LN9@GetChartBa
  000a6	8b 16		 mov	 edx, DWORD PTR [esi]
  000a8	8b ce		 mov	 ecx, esi
  000aa	ff 52 10	 call	 DWORD PTR [edx+16]
  000ad	eb 02		 jmp	 SHORT $LN21@GetChartBa
$LN9@GetChartBa:

; 41   : 		else m_szData = NULL;

  000af	33 c0		 xor	 eax, eax
$LN21@GetChartBa:
; File D:\git\src\IBK\IBK_DRFN\ProjSrc\SrcChartEx\ChartOCX\AddInManager\ChartCommonAddIn\OrderLinkAddInImp.cpp

; 426  : 	ILPCSTR szGraphName = m_pIChartManager->FindFirstIndicator( _MTEXT( C2_PRICE_CHART), nR, nC, nV, nG, "DEFAULT");

  000b1	89 45 dc	 mov	 DWORD PTR _szGraphName$[ebp], eax
  000b4	c7 45 fc 00 00
	00 00		 mov	 DWORD PTR __$EHRec$[ebp+8], 0
; File D:\git\src\IBK\IBK_DRFN\ProjSrc\SrcChartEx\ChartOCX\AddInManager\Include_AddIn\I000000\_IString.h

; 57   : 		if( !m_szData) return TRUE;

  000bb	85 c0		 test	 eax, eax
  000bd	74 5b		 je	 SHORT $LN19@GetChartBa
; File D:\git\src\IBK\IBK_DRFN\ProjSrc\SrcChartEx\ChartOCX\AddInManager\ChartCommonAddIn\OrderLinkAddInImp.cpp

; 427  : 	if( szGraphName.IsEmpty()) return FALSE;

  000bf	80 38 00	 cmp	 BYTE PTR [eax], 0
  000c2	74 56		 je	 SHORT $LN19@GetChartBa

; 428  : 
; 429  : 	// Block Log/    Data . (<->Y Pos)
; 430  : 	IBlock *pIBlock = m_pIChartManager->GetBlock( nR, nC);

  000c4	8b 4f 24	 mov	 ecx, DWORD PTR [edi+36]
  000c7	ff 75 ec	 push	 DWORD PTR _nC$[ebp]
  000ca	ff 75 e8	 push	 DWORD PTR _nR$[ebp]
  000cd	8b 01		 mov	 eax, DWORD PTR [ecx]
  000cf	ff 50 38	 call	 DWORD PTR [eax+56]
  000d2	8b d8		 mov	 ebx, eax

; 431  : 	if( pIBlock)

  000d4	85 db		 test	 ebx, ebx
  000d6	74 3b		 je	 SHORT $LN4@GetChartBa

; 432  : 	{
; 433  : 		m_bLog = pIBlock->IsLogScale();

  000d8	8b 13		 mov	 edx, DWORD PTR [ebx]
  000da	8b cb		 mov	 ecx, ebx
  000dc	ff 52 24	 call	 DWORD PTR [edx+36]

; 434  : 		m_bReverse = pIBlock->IsVScaleInvert( nV);

  000df	ff 75 f0	 push	 DWORD PTR _nV$[ebp]
  000e2	89 87 e0 00 00
	00		 mov	 DWORD PTR [edi+224], eax
  000e8	8b cb		 mov	 ecx, ebx
  000ea	8b 13		 mov	 edx, DWORD PTR [ebx]
  000ec	ff 52 58	 call	 DWORD PTR [edx+88]
  000ef	89 87 e4 00 00
	00		 mov	 DWORD PTR [edi+228], eax

; 435  : 
; 436  : 		pIBlock->GetVScaleGroupMinMax( nV, m_dViewMin, m_dViewMax);

  000f5	8b cb		 mov	 ecx, ebx
  000f7	8b 13		 mov	 edx, DWORD PTR [ebx]
  000f9	8d 87 f0 00 00
	00		 lea	 eax, DWORD PTR [edi+240]
  000ff	50		 push	 eax
  00100	8d 87 e8 00 00
	00		 lea	 eax, DWORD PTR [edi+232]
  00106	50		 push	 eax
  00107	ff 75 f0	 push	 DWORD PTR _nV$[ebp]
  0010a	ff 52 48	 call	 DWORD PTR [edx+72]

; 437  : //	   	pIBlock->GetGraphRegions( m_rctGraphRegion, m_rctBlockRegion);
; 438  : //		m_rctGraphDrawingRegion = pIBlock->GetGraphDrwingRegion();
; 439  : 
; 440  : 		pIBlock->Release();

  0010d	8b 03		 mov	 eax, DWORD PTR [ebx]
  0010f	53		 push	 ebx
  00110	ff 50 08	 call	 DWORD PTR [eax+8]
$LN4@GetChartBa:

; 444  : 	return TRUE;

  00113	bf 01 00 00 00	 mov	 edi, 1
  00118	eb 02		 jmp	 SHORT $LN7@GetChartBa
$LN19@GetChartBa:
  0011a	33 ff		 xor	 edi, edi
$LN7@GetChartBa:
; File D:\git\src\IBK\IBK_DRFN\ProjSrc\SrcChartEx\ChartOCX\AddInManager\Include_AddIn\I000000\_IString.h

; 44   : 	{

  0011c	c7 45 fc 01 00
	00 00		 mov	 DWORD PTR __$EHRec$[ebp+8], 1

; 45   : 		if( m_pIStrData)

  00123	85 f6		 test	 esi, esi
  00125	74 06		 je	 SHORT $LN16@GetChartBa

; 46   : 		{
; 47   : 			m_pIStrData->Release();

  00127	8b 0e		 mov	 ecx, DWORD PTR [esi]
  00129	56		 push	 esi
  0012a	ff 51 08	 call	 DWORD PTR [ecx+8]
$LN16@GetChartBa:
; File D:\git\src\IBK\IBK_DRFN\ProjSrc\SrcChartEx\ChartOCX\AddInManager\ChartCommonAddIn\OrderLinkAddInImp.cpp

; 444  : 	return TRUE;

  0012d	8b c7		 mov	 eax, edi

; 445  : }

  0012f	8b 4d f4	 mov	 ecx, DWORD PTR __$EHRec$[ebp]
  00132	64 89 0d 00 00
	00 00		 mov	 DWORD PTR fs:0, ecx
  00139	59		 pop	 ecx
  0013a	5f		 pop	 edi
  0013b	5e		 pop	 esi
  0013c	5b		 pop	 ebx
  0013d	8b e5		 mov	 esp, ebp
  0013f	5d		 pop	 ebp
  00140	c3		 ret	 0
_TEXT	ENDS
;	COMDAT text$x
text$x	SEGMENT
__unwindfunclet$?GetChartBasicData@COrderLinkAddInImp@@IAEHXZ$0:
  00000	8d 4d dc	 lea	 ecx, DWORD PTR _szGraphName$[ebp]
  00003	e9 00 00 00 00	 jmp	 ??1ILPCSTR000000@@QAE@XZ ; ILPCSTR000000::~ILPCSTR000000
  00008	cc		 int	 3
  00009	cc		 int	 3
  0000a	cc		 int	 3
  0000b	cc		 int	 3
  0000c	cc		 int	 3
__ehhandler$?GetChartBasicData@COrderLinkAddInImp@@IAEHXZ:
  0000d	90		 npad	 1
  0000e	90		 npad	 1
  0000f	8b 54 24 08	 mov	 edx, DWORD PTR [esp+8]
  00013	8d 42 0c	 lea	 eax, DWORD PTR [edx+12]
  00016	8b 4a d8	 mov	 ecx, DWORD PTR [edx-40]
  00019	33 c8		 xor	 ecx, eax
  0001b	e8 00 00 00 00	 call	 @__security_check_cookie@4
  00020	b8 00 00 00 00	 mov	 eax, OFFSET __ehfuncinfo$?GetChartBasicData@COrderLinkAddInImp@@IAEHXZ
  00025	e9 00 00 00 00	 jmp	 ___CxxFrameHandler3
text$x	ENDS
?GetChartBasicData@COrderLinkAddInImp@@IAEHXZ ENDP	; COrderLinkAddInImp::GetChartBasicData
; Function compile flags: /Ogtp
; File D:\git\src\IBK\IBK_DRFN\ProjSrc\SrcChartEx\ChartOCX\AddInManager\ChartCommonAddIn\OrderLinkAddInImp.cpp
; File C:\Program Files (x86)\Microsoft Visual Studio\2019\Community\VC\Tools\MSVC\14.29.30133\atlmfc\include\atltypes.h
; File D:\git\src\IBK\IBK_DRFN\ProjSrc\SrcChartEx\ChartOCX\AddInManager\ChartCommonAddIn\OrderLinkAddInImp.cpp
; File C:\Program Files (x86)\Microsoft Visual Studio\2019\Community\VC\Tools\MSVC\14.29.30133\atlmfc\include\atltypes.h
; File D:\git\src\IBK\IBK_DRFN\ProjSrc\SrcChartEx\ChartOCX\AddInManager\ChartCommonAddIn\OrderLinkAddInImp.cpp
; File D:\git\src\IBK\IBK_DRFN\ProjSrc\SrcChartEx\ChartOCX\AddInManager\Include_AddIn\I000000\_IString.h
; File D:\git\src\IBK\IBK_DRFN\ProjSrc\SrcChartEx\ChartOCX\AddInManager\ChartCommonAddIn\OrderLinkAddInImp.cpp
; File D:\git\src\IBK\IBK_DRFN\ProjSrc\SrcChartEx\ChartOCX\AddInManager\Include_AddIn\I000000\_IString.h
; File D:\git\src\IBK\IBK_DRFN\ProjSrc\SrcChartEx\ChartOCX\AddInManager\ChartCommonAddIn\OrderLinkAddInImp.cpp
; File D:\git\src\IBK\IBK_DRFN\ProjSrc\SrcChartEx\ChartOCX\AddInManager\Include_AddIn\I000000\_IString.h
; File D:\git\src\IBK\IBK_DRFN\ProjSrc\SrcChartEx\ChartOCX\AddInManager\ChartCommonAddIn\OrderLinkAddInImp.cpp
; File D:\git\src\IBK\IBK_DRFN\ProjSrc\SrcChartEx\ChartOCX\AddInManager\Include_AddIn\I000000\_IString.h
; File D:\git\src\IBK\IBK_DRFN\ProjSrc\SrcChartEx\ChartOCX\AddInManager\ChartCommonAddIn\OrderLinkAddInImp.cpp
; File C:\Program Files (x86)\Microsoft Visual Studio\2019\Community\VC\Tools\MSVC\14.29.30133\atlmfc\include\atlsimpstr.h
; File D:\git\src\IBK\IBK_DRFN\ProjSrc\SrcChartEx\ChartOCX\AddInManager\ChartCommonAddIn\OrderLinkAddInImp.cpp
; File C:\Program Files (x86)\Microsoft Visual Studio\2019\Community\VC\Tools\MSVC\14.29.30133\atlmfc\include\atlsimpstr.h
; File D:\git\src\IBK\IBK_DRFN\ProjSrc\SrcChartEx\ChartOCX\AddInManager\ChartCommonAddIn\OrderLinkAddInImp.cpp
; File C:\Program Files (x86)\Microsoft Visual Studio\2019\Community\VC\Tools\MSVC\14.29.30133\atlmfc\include\atlsimpstr.h
; File D:\git\src\IBK\IBK_DRFN\ProjSrc\SrcChartEx\ChartOCX\AddInManager\ChartCommonAddIn\OrderLinkAddInImp.cpp
; File C:\Program Files (x86)\Microsoft Visual Studio\2019\Community\VC\Tools\MSVC\14.29.30133\atlmfc\include\atlsimpstr.h
; File D:\git\src\IBK\IBK_DRFN\ProjSrc\SrcChartEx\ChartOCX\AddInManager\ChartCommonAddIn\OrderLinkAddInImp.cpp
; File C:\Program Files (x86)\Microsoft Visual Studio\2019\Community\VC\Tools\MSVC\14.29.30133\atlmfc\include\atlsimpstr.h
; File D:\git\src\IBK\IBK_DRFN\ProjSrc\SrcChartEx\ChartOCX\AddInManager\ChartCommonAddIn\OrderLinkAddInImp.cpp
; File C:\Program Files (x86)\Microsoft Visual Studio\2019\Community\VC\Tools\MSVC\14.29.30133\atlmfc\include\atlsimpstr.h
; File D:\git\src\IBK\IBK_DRFN\ProjSrc\SrcChartEx\ChartOCX\AddInManager\ChartCommonAddIn\OrderLinkAddInImp.cpp
; File C:\Program Files (x86)\Microsoft Visual Studio\2019\Community\VC\Tools\MSVC\14.29.30133\atlmfc\include\atlsimpstr.h
; File D:\git\src\IBK\IBK_DRFN\ProjSrc\SrcChartEx\ChartOCX\AddInManager\ChartCommonAddIn\OrderLinkAddInImp.cpp
; File C:\Program Files (x86)\Microsoft Visual Studio\2019\Community\VC\Tools\MSVC\14.29.30133\atlmfc\include\atlsimpstr.h
; File C:\Program Files (x86)\Microsoft Visual Studio\2019\Community\VC\Tools\MSVC\14.29.30133\atlmfc\include\afxwin1.inl
; File D:\git\src\IBK\IBK_DRFN\ProjSrc\SrcChartEx\ChartOCX\AddInManager\ChartCommonAddIn\OrderLinkAddInImp.cpp
; File C:\Program Files (x86)\Microsoft Visual Studio\2019\Community\VC\Tools\MSVC\14.29.30133\atlmfc\include\atltypes.h
; File D:\git\src\IBK\IBK_DRFN\ProjSrc\SrcChartEx\ChartOCX\AddInManager\ChartCommonAddIn\OrderLinkAddInImp.cpp
; File C:\Program Files (x86)\Microsoft Visual Studio\2019\Community\VC\Tools\MSVC\14.29.30133\atlmfc\include\afxwin2.inl
; File C:\Program Files (x86)\Microsoft Visual Studio\2019\Community\VC\Tools\MSVC\14.29.30133\atlmfc\include\atltypes.h
; File C:\Program Files (x86)\Microsoft Visual Studio\2019\Community\VC\Tools\MSVC\14.29.30133\atlmfc\include\afxwin2.inl
; File C:\Program Files (x86)\Microsoft Visual Studio\2019\Community\VC\Tools\MSVC\14.29.30133\atlmfc\include\atltypes.h
; File D:\git\src\IBK\IBK_DRFN\ProjSrc\SrcChartEx\ChartOCX\AddInManager\ChartCommonAddIn\OrderLinkAddInImp.cpp
; File C:\Program Files (x86)\Microsoft Visual Studio\2019\Community\VC\Tools\MSVC\14.29.30133\atlmfc\include\afxwin1.inl
; File D:\git\src\IBK\IBK_DRFN\ProjSrc\SrcChartEx\ChartOCX\AddInManager\ChartCommonAddIn\OrderLinkAddInImp.cpp
; File C:\Program Files (x86)\Microsoft Visual Studio\2019\Community\VC\Tools\MSVC\14.29.30133\atlmfc\include\afxwin1.inl
; File D:\git\src\IBK\IBK_DRFN\ProjSrc\SrcChartEx\ChartOCX\AddInManager\ChartCommonAddIn\OrderLinkAddInImp.cpp
; File C:\Program Files (x86)\Microsoft Visual Studio\2019\Community\VC\Tools\MSVC\14.29.30133\atlmfc\include\atlsimpstr.h
; File D:\git\src\IBK\IBK_DRFN\ProjSrc\SrcChartEx\ChartOCX\AddInManager\ChartCommonAddIn\OrderLinkAddInImp.cpp
; File C:\Program Files (x86)\Microsoft Visual Studio\2019\Community\VC\Tools\MSVC\14.29.30133\atlmfc\include\afxwin1.inl
; File D:\git\src\IBK\IBK_DRFN\ProjSrc\SrcChartEx\ChartOCX\AddInManager\ChartCommonAddIn\OrderLinkAddInImp.cpp
; File C:\Program Files (x86)\Microsoft Visual Studio\2019\Community\VC\Tools\MSVC\14.29.30133\atlmfc\include\atlsimpstr.h
; File C:\Program Files (x86)\Microsoft Visual Studio\2019\Community\VC\Tools\MSVC\14.29.30133\atlmfc\include\afxwin1.inl
; File D:\git\src\IBK\IBK_DRFN\ProjSrc\SrcChartEx\ChartOCX\AddInManager\ChartCommonAddIn\OrderLinkAddInImp.cpp
; File C:\Program Files (x86)\Microsoft Visual Studio\2019\Community\VC\Tools\MSVC\14.29.30133\atlmfc\include\atltypes.h
; File D:\git\src\IBK\IBK_DRFN\ProjSrc\SrcChartEx\ChartOCX\AddInManager\ChartCommonAddIn\OrderLinkAddInImp.cpp
; File C:\Program Files (x86)\Microsoft Visual Studio\2019\Community\VC\Tools\MSVC\14.29.30133\atlmfc\include\atltypes.h
; File D:\git\src\IBK\IBK_DRFN\ProjSrc\SrcChartEx\ChartOCX\AddInManager\ChartCommonAddIn\OrderLinkAddInImp.cpp
; File D:\git\src\IBK\IBK_DRFN\ProjSrc\SrcChartEx\ChartOCX\AddInManager\Include_AddIn\I000000\_IString.h
; File D:\git\src\IBK\IBK_DRFN\ProjSrc\SrcChartEx\ChartOCX\AddInManager\ChartCommonAddIn\OrderLinkAddInImp.cpp
;	COMDAT ?DrawCursor@COrderLinkAddInImp@@MAE?AUtagRECT@@PAUHDC__@@@Z
_TEXT	SEGMENT
___$ReturnUdt$GSCopy$1$ = -120				; size = 4
_strUnit$ = -116					; size = 4
_this$GSCopy$1$ = -112					; size = 4
_szHelpMsg$ = -108					; size = 8
_strFormat$ = -100					; size = 4
_strPacketType$ = -96					; size = 4
_szBuffer1$1$ = -92					; size = 4
_size$4 = -88						; size = 8
$T5 = -88						; size = 8
_szBuffer2$1$ = -84					; size = 4
_strBuffer3$6 = -80					; size = 4
_nFixedDecimalLen$1$ = -76				; size = 4
_pIPacket$1$ = -76					; size = 4
_pDC$1$ = -72						; size = 4
$T7 = -68						; size = 4
_p_hDC$GSCopy$1$ = -68					; size = 4
_pIPacketManager$1$ = -68				; size = 4
_strBuffer$8 = -68					; size = 4
$T9 = -68						; size = 4
_rctChartOcx$ = -64					; size = 16
$T10 = -48						; size = 16
_dHoga$ = -40						; size = 8
_strType$11 = -40					; size = 8
_str$1$ = -36						; size = 4
_rct$ = -32						; size = 16
__$ArrayPad$ = -16					; size = 4
__$EHRec$ = -12						; size = 12
___$ReturnUdt$ = 8					; size = 4
_p_hDC$ = 12						; size = 4
?DrawCursor@COrderLinkAddInImp@@MAE?AUtagRECT@@PAUHDC__@@@Z PROC ; COrderLinkAddInImp::DrawCursor, COMDAT
; _this$ = ecx

; 258  : {

  00000	55		 push	 ebp
  00001	8b ec		 mov	 ebp, esp
  00003	6a ff		 push	 -1
  00005	68 00 00 00 00	 push	 __ehhandler$?DrawCursor@COrderLinkAddInImp@@MAE?AUtagRECT@@PAUHDC__@@@Z
  0000a	64 a1 00 00 00
	00		 mov	 eax, DWORD PTR fs:0
  00010	50		 push	 eax
  00011	83 ec 6c	 sub	 esp, 108		; 0000006cH
  00014	a1 00 00 00 00	 mov	 eax, DWORD PTR ___security_cookie
  00019	33 c5		 xor	 eax, ebp
  0001b	89 45 f0	 mov	 DWORD PTR __$ArrayPad$[ebp], eax
  0001e	56		 push	 esi
  0001f	57		 push	 edi
  00020	50		 push	 eax
  00021	8d 45 f4	 lea	 eax, DWORD PTR __$EHRec$[ebp]
  00024	64 a3 00 00 00
	00		 mov	 DWORD PTR fs:0, eax
  0002a	8b f9		 mov	 edi, ecx
  0002c	89 7d 90	 mov	 DWORD PTR _this$GSCopy$1$[ebp], edi
  0002f	8b 45 0c	 mov	 eax, DWORD PTR _p_hDC$[ebp]
  00032	0f 57 c0	 xorps	 xmm0, xmm0
  00035	8b 75 08	 mov	 esi, DWORD PTR ___$ReturnUdt$[ebp]
  00038	89 45 bc	 mov	 DWORD PTR _p_hDC$GSCopy$1$[ebp], eax
; File C:\Program Files (x86)\Microsoft Visual Studio\2019\Community\VC\Tools\MSVC\14.29.30133\atlmfc\include\atltypes.h

; 669  : 	::SetRectEmpty(this);

  0003b	8d 45 e0	 lea	 eax, DWORD PTR _rct$[ebp]
  0003e	50		 push	 eax
; File D:\git\src\IBK\IBK_DRFN\ProjSrc\SrcChartEx\ChartOCX\AddInManager\ChartCommonAddIn\OrderLinkAddInImp.cpp

; 258  : {

  0003f	89 75 88	 mov	 DWORD PTR ___$ReturnUdt$GSCopy$1$[ebp], esi
; File C:\Program Files (x86)\Microsoft Visual Studio\2019\Community\VC\Tools\MSVC\14.29.30133\atlmfc\include\atltypes.h

; 528  : 	left = 0;

  00042	0f 11 45 e0	 movups	 XMMWORD PTR _rct$[ebp], xmm0

; 669  : 	::SetRectEmpty(this);

  00046	ff 15 00 00 00
	00		 call	 DWORD PTR __imp__SetRectEmpty@4
; File D:\git\src\IBK\IBK_DRFN\ProjSrc\SrcChartEx\ChartOCX\AddInManager\ChartCommonAddIn\OrderLinkAddInImp.cpp

; 262  : 	if( !m_bRun )	return rct;

  0004c	80 bf b0 00 00
	00 00		 cmp	 BYTE PTR [edi+176], 0
  00053	0f 84 2a 05 00
	00		 je	 $LN155@DrawCursor

; 263  : 
; 264  : 	if( 0 == m_nIndicatorPosY) return rct;

  00059	83 bf b4 00 00
	00 00		 cmp	 DWORD PTR [edi+180], 0
  00060	0f 84 1d 05 00
	00		 je	 $LN155@DrawCursor

; 265  : 
; 266  : 	CDC *pDC = CDC::FromHandle( p_hDC);

  00066	ff 75 bc	 push	 DWORD PTR _p_hDC$GSCopy$1$[ebp]
  00069	e8 00 00 00 00	 call	 ?FromHandle@CDC@@SGPAV1@PAUHDC__@@@Z ; CDC::FromHandle
  0006e	89 45 b8	 mov	 DWORD PTR _pDC$1$[ebp], eax

; 267  : 	if( !pDC) return rct;

  00071	85 c0		 test	 eax, eax
  00073	0f 84 0a 05 00
	00		 je	 $LN155@DrawCursor

; 268  : 
; 269  : 	// 2. Price Value . (View Data Min/Max Graph Region .)
; 270  : 	// (2004.10.27, ) Block Log/    Data . (<->Y Pos)
; 271  : 	TRACE( "\r\n[ORDER_LINK] : %d", m_nIndicatorPosY);
; 272  : 	m_dIndicatedPrice = m_pIChartOCX->ConvertYPositionToData( m_nIndicatorPosY, m_rctGraphDrawingRegion.top, m_rctGraphDrawingRegion.bottom, m_dViewMax, m_dViewMin, m_bLog, m_bReverse);

  00079	ff b7 dc 00 00
	00		 push	 DWORD PTR [edi+220]
  0007f	f2 0f 10 87 e0
	00 00 00	 movsd	 xmm0, QWORD PTR [edi+224]
  00087	ff b7 d8 00 00
	00		 push	 DWORD PTR [edi+216]
  0008d	8b 4f 04	 mov	 ecx, DWORD PTR [edi+4]
  00090	83 ec 10	 sub	 esp, 16			; 00000010H
  00093	8b 01		 mov	 eax, DWORD PTR [ecx]
  00095	f2 0f 11 44 24
	08		 movsd	 QWORD PTR [esp+8], xmm0
  0009b	f2 0f 10 87 e8
	00 00 00	 movsd	 xmm0, QWORD PTR [edi+232]
  000a3	f2 0f 11 04 24	 movsd	 QWORD PTR [esp], xmm0
  000a8	ff b7 90 00 00
	00		 push	 DWORD PTR [edi+144]
  000ae	8b 80 30 01 00
	00		 mov	 eax, DWORD PTR [eax+304]
  000b4	ff b7 88 00 00
	00		 push	 DWORD PTR [edi+136]
  000ba	ff b7 b4 00 00
	00		 push	 DWORD PTR [edi+180]
  000c0	ff d0		 call	 eax

; 273  : 
; 274  : 	// 3. Asking Price Text   .
; 275  : 	// (2004.10.26, )  (Precision)   String   .
; 276  : 	int nDecimal = 0;
; 277  : 	// (2004.10.26, , !) double Int    Int      100   .
; 278  : 	if( m_dPacketUnitValue != 0) nDecimal = ( int)( ( log10( m_dPacketUnitValue) * 100) / 100);	

  000c2	f2 0f 10 87 30
	01 00 00	 movsd	 xmm0, QWORD PTR [edi+304]
  000ca	33 f6		 xor	 esi, esi
  000cc	0f 57 c9	 xorps	 xmm1, xmm1
  000cf	66 0f 2e c1	 ucomisd xmm0, xmm1
  000d3	dd 9f d0 00 00
	00		 fstp	 QWORD PTR [edi+208]
  000d9	9f		 lahf
  000da	f6 c4 44	 test	 ah, 68			; 00000044H
  000dd	7b 19		 jnp	 SHORT $LN14@DrawCursor
  000df	e8 00 00 00 00	 call	 __libm_sse2_log10_precise
  000e4	f2 0f 59 05 00
	00 00 00	 mulsd	 xmm0, QWORD PTR __real@4059000000000000
  000ec	f2 0f 5e 05 00
	00 00 00	 divsd	 xmm0, QWORD PTR __real@4059000000000000
  000f4	f2 0f 2c f0	 cvttsd2si esi, xmm0
$LN14@DrawCursor:

; 279  : 	CString strFormat;

  000f8	8d 4d 9c	 lea	 ecx, DWORD PTR _strFormat$[ebp]
  000fb	ff 15 00 00 00
	00		 call	 DWORD PTR __imp_??0?$CStringT@DV?$StrTraitMFC_DLL@DV?$ChTraitsCRT@D@ATL@@@@@ATL@@QAE@XZ
  00101	c7 45 fc 00 00
	00 00		 mov	 DWORD PTR __$EHRec$[ebp+8], 0

; 280  : 	if( 0 <= nDecimal) strFormat = "%.0f";

  00108	85 f6		 test	 esi, esi
  0010a	78 10		 js	 SHORT $LN15@DrawCursor
  0010c	68 00 00 00 00	 push	 OFFSET ??_C@_04GHNNFJCK@?$CF?40f@
  00111	8d 4d 9c	 lea	 ecx, DWORD PTR _strFormat$[ebp]
  00114	ff 15 00 00 00
	00		 call	 DWORD PTR __imp_??4?$CStringT@DV?$StrTraitMFC_DLL@DV?$ChTraitsCRT@D@ATL@@@@@ATL@@QAEAAV01@PBD@Z
  0011a	eb 15		 jmp	 SHORT $LN16@DrawCursor
$LN15@DrawCursor:

; 281  : 	else strFormat.Format( "%%.%df", -nDecimal);

  0011c	f7 de		 neg	 esi
  0011e	8d 45 9c	 lea	 eax, DWORD PTR _strFormat$[ebp]
  00121	56		 push	 esi
  00122	68 00 00 00 00	 push	 OFFSET ??_C@_06DNBDMDIL@?$CF?$CF?4?$CFdf@
  00127	50		 push	 eax
  00128	ff 15 00 00 00
	00		 call	 DWORD PTR __imp_?Format@?$CStringT@DV?$StrTraitMFC_DLL@DV?$ChTraitsCRT@D@ATL@@@@@ATL@@QAAXPBDZZ
  0012e	83 c4 0c	 add	 esp, 12			; 0000000cH
$LN16@DrawCursor:

; 282  : 	// 3.1 Asking Price Text .
; 283  : 	// (2004.10.26, )   String ,     .
; 284  : 
; 285  : 	// 20081016  8/32  >>
; 286  : //	m_strAskingPrice.Format( strFormat, m_dIndicatedPrice);
; 287  : 	CString strPacketType;

  00131	8d 4d a0	 lea	 ecx, DWORD PTR _strPacketType$[ebp]
  00134	ff 15 00 00 00
	00		 call	 DWORD PTR __imp_??0?$CStringT@DV?$StrTraitMFC_DLL@DV?$ChTraitsCRT@D@ATL@@@@@ATL@@QAE@XZ
; File D:\git\src\IBK\IBK_DRFN\ProjSrc\SrcChartEx\ChartOCX\AddInManager\Include_AddIn\I000000\_IString.h

; 39   : 		m_pIStrData = p_pIString;	// Do not AddRef(). Because It must be Return Value.

  0013a	c7 45 98 00 00
	00 00		 mov	 DWORD PTR _szHelpMsg$[ebp+4], 0

; 40   : 		if( m_pIStrData) m_szData = m_pIStrData->GetData();
; 41   : 		else m_szData = NULL;

  00141	c7 45 94 00 00
	00 00		 mov	 DWORD PTR _szHelpMsg$[ebp], 0
; File D:\git\src\IBK\IBK_DRFN\ProjSrc\SrcChartEx\ChartOCX\AddInManager\ChartCommonAddIn\OrderLinkAddInImp.cpp

; 289  : 	IPacketManager *pIPacketManager = m_pIPacketListManager->GetPacketManager( m_strRQ);

  00148	8b 4f 14	 mov	 ecx, DWORD PTR [edi+20]
  0014b	ff b7 3c 01 00
	00		 push	 DWORD PTR [edi+316]
  00151	c6 45 fc 02	 mov	 BYTE PTR __$EHRec$[ebp+8], 2
  00155	8b 01		 mov	 eax, DWORD PTR [ecx]
  00157	8b 40 10	 mov	 eax, DWORD PTR [eax+16]
  0015a	ff d0		 call	 eax
  0015c	8b c8		 mov	 ecx, eax
  0015e	89 4d bc	 mov	 DWORD PTR _pIPacketManager$1$[ebp], ecx

; 290  : 	if( pIPacketManager)

  00161	85 c9		 test	 ecx, ecx
  00163	0f 84 90 00 00
	00		 je	 $LN55@DrawCursor
; File D:\git\src\IBK\IBK_DRFN\ProjSrc\SrcChartEx\ChartOCX\AddInManager\Include_AddIn\I000000\_IString.h

; 35   : 		m_pIStrData = NULL;

  00169	33 f6		 xor	 esi, esi
  0016b	c7 45 d8 00 00
	00 00		 mov	 DWORD PTR _strType$11[ebp], 0
  00172	89 75 dc	 mov	 DWORD PTR _strType$11[ebp+4], esi
; File D:\git\src\IBK\IBK_DRFN\ProjSrc\SrcChartEx\ChartOCX\AddInManager\ChartCommonAddIn\OrderLinkAddInImp.cpp

; 293  : 		IPacket *pIPacket = pIPacketManager->GetPacket( _MTEXT( C0_CLOSE));

  00175	a1 54 00 00 00	 mov	 eax, DWORD PTR ?g_iMetaTable@@3VIMetaTable@@A+84
  0017a	8b 11		 mov	 edx, DWORD PTR [ecx]
  0017c	c6 45 fc 03	 mov	 BYTE PTR __$EHRec$[ebp+8], 3
  00180	ff 70 14	 push	 DWORD PTR [eax+20]
  00183	8b 42 10	 mov	 eax, DWORD PTR [edx+16]
  00186	ff d0		 call	 eax
  00188	8b c8		 mov	 ecx, eax
  0018a	89 4d b4	 mov	 DWORD PTR _pIPacket$1$[ebp], ecx

; 294  : 		if( pIPacket)

  0018d	85 c9		 test	 ecx, ecx
  0018f	74 30		 je	 SHORT $LN18@DrawCursor

; 295  : 		{
; 296  : 			strType = pIPacket->GetType();

  00191	8b 01		 mov	 eax, DWORD PTR [ecx]
  00193	6a 01		 push	 1
  00195	8b 40 1c	 mov	 eax, DWORD PTR [eax+28]
  00198	ff d0		 call	 eax
  0019a	8b f0		 mov	 esi, eax
; File D:\git\src\IBK\IBK_DRFN\ProjSrc\SrcChartEx\ChartOCX\AddInManager\Include_AddIn\I000000\_IString.h

; 68   : 		m_pIStrData = stringSrc;	// Do not AddRef(). Because It must be Return Value.

  0019c	89 75 dc	 mov	 DWORD PTR _strType$11[ebp+4], esi
  0019f	85 f6		 test	 esi, esi

; 69   : 		if( m_pIStrData) m_szData = m_pIStrData->GetData();

  001a1	74 0e		 je	 SHORT $LN50@DrawCursor
  001a3	8b 06		 mov	 eax, DWORD PTR [esi]
  001a5	8b ce		 mov	 ecx, esi
  001a7	8b 40 10	 mov	 eax, DWORD PTR [eax+16]
  001aa	ff d0		 call	 eax
  001ac	89 45 d8	 mov	 DWORD PTR _strType$11[ebp], eax
  001af	eb 07		 jmp	 SHORT $LN51@DrawCursor
$LN50@DrawCursor:

; 70   : 		else m_szData = NULL;

  001b1	c7 45 d8 00 00
	00 00		 mov	 DWORD PTR _strType$11[ebp], 0
$LN51@DrawCursor:
; File D:\git\src\IBK\IBK_DRFN\ProjSrc\SrcChartEx\ChartOCX\AddInManager\ChartCommonAddIn\OrderLinkAddInImp.cpp

; 297  : 			pIPacket->Release();

  001b8	8b 4d b4	 mov	 ecx, DWORD PTR _pIPacket$1$[ebp]
  001bb	51		 push	 ecx
  001bc	8b 01		 mov	 eax, DWORD PTR [ecx]
  001be	ff 50 08	 call	 DWORD PTR [eax+8]
$LN18@DrawCursor:

; 298  : 		}
; 299  : 		strPacketType = strType;

  001c1	ff 75 d8	 push	 DWORD PTR _strType$11[ebp]
  001c4	8d 4d a0	 lea	 ecx, DWORD PTR _strPacketType$[ebp]
  001c7	ff 15 00 00 00
	00		 call	 DWORD PTR __imp_??4?$CStringT@DV?$StrTraitMFC_DLL@DV?$ChTraitsCRT@D@ATL@@@@@ATL@@QAEAAV01@PBD@Z

; 300  : 
; 301  : 		pIPacketManager->GetHelpMessageItem( "HBPRICE", szHelpMsg);

  001cd	8b 4d bc	 mov	 ecx, DWORD PTR _pIPacketManager$1$[ebp]
  001d0	8d 55 94	 lea	 edx, DWORD PTR _szHelpMsg$[ebp]
  001d3	52		 push	 edx
  001d4	68 00 00 00 00	 push	 OFFSET ??_C@_07OEKCJGKM@HBPRICE@
  001d9	8b 01		 mov	 eax, DWORD PTR [ecx]
  001db	ff 50 18	 call	 DWORD PTR [eax+24]

; 302  : 		pIPacketManager->Release();

  001de	8b 4d bc	 mov	 ecx, DWORD PTR _pIPacketManager$1$[ebp]
  001e1	51		 push	 ecx
  001e2	8b 01		 mov	 eax, DWORD PTR [ecx]
  001e4	ff 50 08	 call	 DWORD PTR [eax+8]
; File D:\git\src\IBK\IBK_DRFN\ProjSrc\SrcChartEx\ChartOCX\AddInManager\Include_AddIn\I000000\_IString.h

; 44   : 	{

  001e7	c6 45 fc 04	 mov	 BYTE PTR __$EHRec$[ebp+8], 4

; 45   : 		if( m_pIStrData)

  001eb	85 f6		 test	 esi, esi
  001ed	74 06		 je	 SHORT $LN54@DrawCursor

; 46   : 		{
; 47   : 			m_pIStrData->Release();

  001ef	8b 06		 mov	 eax, DWORD PTR [esi]
  001f1	56		 push	 esi
  001f2	ff 50 08	 call	 DWORD PTR [eax+8]
$LN54@DrawCursor:

; 50   : 		}
; 51   : 	}

  001f5	c6 45 fc 02	 mov	 BYTE PTR __$EHRec$[ebp+8], 2
$LN55@DrawCursor:
; File D:\git\src\IBK\IBK_DRFN\ProjSrc\SrcChartEx\ChartOCX\AddInManager\ChartCommonAddIn\OrderLinkAddInImp.cpp

; 306  : 	CString strUnit(szHelpMsg);

  001f9	ff 75 94	 push	 DWORD PTR _szHelpMsg$[ebp]
  001fc	8d 4d 8c	 lea	 ecx, DWORD PTR _strUnit$[ebp]
  001ff	ff 15 00 00 00
	00		 call	 DWORD PTR __imp_??0?$CStringT@DV?$StrTraitMFC_DLL@DV?$ChTraitsCRT@D@ATL@@@@@ATL@@QAE@PBD@Z

; 307  : 	double dHoga = atof(strUnit);

  00205	ff 75 8c	 push	 DWORD PTR _strUnit$[ebp]
  00208	c6 45 fc 05	 mov	 BYTE PTR __$EHRec$[ebp+8], 5
  0020c	ff 15 00 00 00
	00		 call	 DWORD PTR __imp__atof
  00212	dd 5d d8	 fstp	 QWORD PTR _dHoga$[ebp]

; 308  : 	if( 0 < dHoga) m_dIndicatedPrice = long( m_dIndicatedPrice / dHoga + 0.5) * dHoga;

  00215	f2 0f 10 4d d8	 movsd	 xmm1, QWORD PTR _dHoga$[ebp]
  0021a	8d 8f d0 00 00
	00		 lea	 ecx, DWORD PTR [edi+208]
  00220	0f 57 c0	 xorps	 xmm0, xmm0
  00223	83 c4 04	 add	 esp, 4
  00226	66 0f 2f c8	 comisd	 xmm1, xmm0
  0022a	76 24		 jbe	 SHORT $LN19@DrawCursor
  0022c	f2 0f 10 01	 movsd	 xmm0, QWORD PTR [ecx]
  00230	f2 0f 5e c1	 divsd	 xmm0, xmm1
  00234	f2 0f 58 05 00
	00 00 00	 addsd	 xmm0, QWORD PTR __real@3fe0000000000000
  0023c	f2 0f 2c c0	 cvttsd2si eax, xmm0
  00240	66 0f 6e c0	 movd	 xmm0, eax
  00244	f3 0f e6 c0	 cvtdq2pd xmm0, xmm0
  00248	f2 0f 59 c1	 mulsd	 xmm0, xmm1
  0024c	f2 0f 11 01	 movsd	 QWORD PTR [ecx], xmm0
$LN19@DrawCursor:

; 309  : 	// 20081106  <<
; 310  : 	m_strAskingPrice = CDataConversion::DoubleToString( m_dIndicatedPrice, strPacketType);

  00250	8d 45 a0	 lea	 eax, DWORD PTR _strPacketType$[ebp]
  00253	50		 push	 eax
  00254	51		 push	 ecx
  00255	8d 45 bc	 lea	 eax, DWORD PTR $T9[ebp]
  00258	50		 push	 eax
  00259	e8 00 00 00 00	 call	 ?DoubleToString@CDataConversion@@SA?AV?$CStringT@DV?$StrTraitMFC_DLL@DV?$ChTraitsCRT@D@ATL@@@@@ATL@@ABNABV23@@Z ; CDataConversion::DoubleToString
  0025e	83 c4 0c	 add	 esp, 12			; 0000000cH
  00261	8d b7 38 01 00
	00		 lea	 esi, DWORD PTR [edi+312]
  00267	c6 45 fc 06	 mov	 BYTE PTR __$EHRec$[ebp+8], 6
  0026b	50		 push	 eax
  0026c	8b ce		 mov	 ecx, esi
  0026e	89 75 dc	 mov	 DWORD PTR _str$1$[ebp], esi
  00271	ff 15 00 00 00
	00		 call	 DWORD PTR __imp_??4?$CStringT@DV?$StrTraitMFC_DLL@DV?$ChTraitsCRT@D@ATL@@@@@ATL@@QAEAAV01@ABV01@@Z
  00277	8d 4d bc	 lea	 ecx, DWORD PTR $T9[ebp]
  0027a	c6 45 fc 05	 mov	 BYTE PTR __$EHRec$[ebp+8], 5
  0027e	ff 15 00 00 00
	00		 call	 DWORD PTR __imp_??1?$CStringT@DV?$StrTraitMFC_DLL@DV?$ChTraitsCRT@D@ATL@@@@@ATL@@QAE@XZ

; 311  : 	// 20081016  <<
; 312  : 
; 313  : 	// (2004.10.26, ) Comma .
; 314  : 	// 3.1.1 ','    .
; 315  : 	int nFixedDecimalLen = m_strAskingPrice.Find( '.');

  00284	6a 00		 push	 0
  00286	6a 2e		 push	 46			; 0000002eH
  00288	8b ce		 mov	 ecx, esi
  0028a	ff 15 00 00 00
	00		 call	 DWORD PTR __imp_?Find@?$CStringT@DV?$StrTraitMFC_DLL@DV?$ChTraitsCRT@D@ATL@@@@@ATL@@QBEHDH@Z
  00290	89 45 b4	 mov	 DWORD PTR _nFixedDecimalLen$1$[ebp], eax

; 316  : 	if( nFixedDecimalLen < 0) nFixedDecimalLen = m_strAskingPrice.GetLength();

  00293	85 c0		 test	 eax, eax
  00295	79 08		 jns	 SHORT $LN154@DrawCursor
; File C:\Program Files (x86)\Microsoft Visual Studio\2019\Community\VC\Tools\MSVC\14.29.30133\atlmfc\include\atlsimpstr.h

; 519  : 		return( GetData()->nDataLength );

  00297	8b 06		 mov	 eax, DWORD PTR [esi]
  00299	8b 40 f4	 mov	 eax, DWORD PTR [eax-12]
  0029c	89 45 b4	 mov	 DWORD PTR _nFixedDecimalLen$1$[ebp], eax
$LN154@DrawCursor:
; File D:\git\src\IBK\IBK_DRFN\ProjSrc\SrcChartEx\ChartOCX\AddInManager\ChartCommonAddIn\OrderLinkAddInImp.cpp

; 317  : 	if( 3 < nFixedDecimalLen)

  0029f	83 f8 03	 cmp	 eax, 3
  002a2	0f 8e 38 01 00
	00		 jle	 $LN21@DrawCursor
; File C:\Program Files (x86)\Microsoft Visual Studio\2019\Community\VC\Tools\MSVC\14.29.30133\atlmfc\include\atlsimpstr.h

; 377  : 		return( m_pszData );

  002a8	8b 06		 mov	 eax, DWORD PTR [esi]
; File D:\git\src\IBK\IBK_DRFN\ProjSrc\SrcChartEx\ChartOCX\AddInManager\ChartCommonAddIn\OrderLinkAddInImp.cpp

; 321  : 		CString strBuffer;

  002aa	8d 4d bc	 lea	 ecx, DWORD PTR _strBuffer$8[ebp]
; File C:\Program Files (x86)\Microsoft Visual Studio\2019\Community\VC\Tools\MSVC\14.29.30133\atlmfc\include\atlsimpstr.h

; 377  : 		return( m_pszData );

  002ad	89 45 a4	 mov	 DWORD PTR _szBuffer1$1$[ebp], eax
; File D:\git\src\IBK\IBK_DRFN\ProjSrc\SrcChartEx\ChartOCX\AddInManager\ChartCommonAddIn\OrderLinkAddInImp.cpp

; 321  : 		CString strBuffer;

  002b0	ff 15 00 00 00
	00		 call	 DWORD PTR __imp_??0?$CStringT@DV?$StrTraitMFC_DLL@DV?$ChTraitsCRT@D@ATL@@@@@ATL@@QAE@XZ
; File C:\Program Files (x86)\Microsoft Visual Studio\2019\Community\VC\Tools\MSVC\14.29.30133\atlmfc\include\atlsimpstr.h

; 519  : 		return( GetData()->nDataLength );

  002b6	8b 06		 mov	 eax, DWORD PTR [esi]
; File D:\git\src\IBK\IBK_DRFN\ProjSrc\SrcChartEx\ChartOCX\AddInManager\ChartCommonAddIn\OrderLinkAddInImp.cpp

; 322  : 		char *szBuffer2 = strBuffer.GetBuffer( m_strAskingPrice.GetLength() * 2);

  002b8	8d 4d bc	 lea	 ecx, DWORD PTR _strBuffer$8[ebp]
  002bb	c6 45 fc 07	 mov	 BYTE PTR __$EHRec$[ebp+8], 7
; File C:\Program Files (x86)\Microsoft Visual Studio\2019\Community\VC\Tools\MSVC\14.29.30133\atlmfc\include\atlsimpstr.h

; 519  : 		return( GetData()->nDataLength );

  002bf	8b 40 f4	 mov	 eax, DWORD PTR [eax-12]
; File D:\git\src\IBK\IBK_DRFN\ProjSrc\SrcChartEx\ChartOCX\AddInManager\ChartCommonAddIn\OrderLinkAddInImp.cpp

; 322  : 		char *szBuffer2 = strBuffer.GetBuffer( m_strAskingPrice.GetLength() * 2);

  002c2	03 c0		 add	 eax, eax
  002c4	50		 push	 eax
  002c5	ff 15 00 00 00
	00		 call	 DWORD PTR __imp_?GetBuffer@?$CSimpleStringT@D$00@ATL@@QAEPADH@Z

; 323  : 		// 3.1.3 Data  '.' , ',' .
; 324  : 		// 20081016 
; 325  : 		if( m_strAskingPrice.Find( "'") < 0)

  002cb	6a 00		 push	 0
  002cd	8b f0		 mov	 esi, eax
  002cf	8d 8f 38 01 00
	00		 lea	 ecx, DWORD PTR [edi+312]
  002d5	68 00 00 00 00	 push	 OFFSET ??_C@_01GEODFPGF@?8@
  002da	89 75 ac	 mov	 DWORD PTR _szBuffer2$1$[ebp], esi
  002dd	ff 15 00 00 00
	00		 call	 DWORD PTR __imp_?Find@?$CStringT@DV?$StrTraitMFC_DLL@DV?$ChTraitsCRT@D@ATL@@@@@ATL@@QBEHPBDH@Z
  002e3	85 c0		 test	 eax, eax
  002e5	79 40		 jns	 SHORT $LN22@DrawCursor

; 326  : 		{
; 327  : 			int i, j;
; 328  : 			for( i = 0, j = nFixedDecimalLen - 1; j >= 0; i++)

  002e7	8b 55 b4	 mov	 edx, DWORD PTR _nFixedDecimalLen$1$[ebp]
  002ea	33 c9		 xor	 ecx, ecx
  002ec	8b 7d a4	 mov	 edi, DWORD PTR _szBuffer1$1$[ebp]
  002ef	4a		 dec	 edx
$LL4@DrawCursor:

; 329  : 			{
; 330  : 				szBuffer2[ i] = szBuffer1[ j--];

  002f0	8a 04 3a	 mov	 al, BYTE PTR [edx+edi]
  002f3	4a		 dec	 edx
  002f4	88 04 31	 mov	 BYTE PTR [ecx+esi], al

; 331  : 				if( i % 4 == 2 && j >= 0 && szBuffer1[ j] != '-') szBuffer2[ ++i] = ',';

  002f7	8b c1		 mov	 eax, ecx
  002f9	25 03 00 00 80	 and	 eax, -2147483645	; 80000003H
  002fe	79 05		 jns	 SHORT $LN159@DrawCursor
  00300	48		 dec	 eax
  00301	83 c8 fc	 or	 eax, -4			; fffffffcH
  00304	40		 inc	 eax
$LN159@DrawCursor:
  00305	83 f8 02	 cmp	 eax, 2
  00308	75 0f		 jne	 SHORT $LN2@DrawCursor
  0030a	85 d2		 test	 edx, edx
  0030c	78 0b		 js	 SHORT $LN2@DrawCursor
  0030e	80 3c 3a 2d	 cmp	 BYTE PTR [edx+edi], 45	; 0000002dH
  00312	74 05		 je	 SHORT $LN2@DrawCursor
  00314	41		 inc	 ecx
  00315	c6 04 31 2c	 mov	 BYTE PTR [ecx+esi], 44	; 0000002cH
$LN2@DrawCursor:

; 326  : 		{
; 327  : 			int i, j;
; 328  : 			for( i = 0, j = nFixedDecimalLen - 1; j >= 0; i++)

  00319	41		 inc	 ecx
  0031a	85 d2		 test	 edx, edx
  0031c	79 d2		 jns	 SHORT $LL4@DrawCursor

; 332  : 			}
; 333  : 			szBuffer2[ i] = '\0';
; 334  : 		}

  0031e	8b 7d 90	 mov	 edi, DWORD PTR _this$GSCopy$1$[ebp]
  00321	c6 04 31 00	 mov	 BYTE PTR [ecx+esi], 0
  00325	eb 16		 jmp	 SHORT $LN23@DrawCursor
$LN22@DrawCursor:

; 335  : 		else strcpy( szBuffer2, szBuffer1);

  00327	8b 4d a4	 mov	 ecx, DWORD PTR _szBuffer1$1$[ebp]
  0032a	8b d6		 mov	 edx, esi
  0032c	2b d1		 sub	 edx, ecx
  0032e	66 90		 npad	 2
$LL27@DrawCursor:
  00330	8a 01		 mov	 al, BYTE PTR [ecx]
  00332	8d 49 01	 lea	 ecx, DWORD PTR [ecx+1]
  00335	88 44 0a ff	 mov	 BYTE PTR [edx+ecx-1], al
  00339	84 c0		 test	 al, al
  0033b	75 f3		 jne	 SHORT $LL27@DrawCursor
$LN23@DrawCursor:

; 336  : 		// 3.1.4  Data Revere .
; 337  : 		int nIntLen = strlen( szBuffer2);

  0033d	8d 4e 01	 lea	 ecx, DWORD PTR [esi+1]
$LL156@DrawCursor:
  00340	8a 06		 mov	 al, BYTE PTR [esi]
  00342	46		 inc	 esi
  00343	84 c0		 test	 al, al
  00345	75 f9		 jne	 SHORT $LL156@DrawCursor
  00347	2b f1		 sub	 esi, ecx

; 338  : 		CString strBuffer3;

  00349	8d 4d b0	 lea	 ecx, DWORD PTR _strBuffer3$6[ebp]
  0034c	ff 15 00 00 00
	00		 call	 DWORD PTR __imp_??0?$CStringT@DV?$StrTraitMFC_DLL@DV?$ChTraitsCRT@D@ATL@@@@@ATL@@QAE@XZ
; File C:\Program Files (x86)\Microsoft Visual Studio\2019\Community\VC\Tools\MSVC\14.29.30133\atlmfc\include\atlsimpstr.h

; 519  : 		return( GetData()->nDataLength );

  00352	8b 87 38 01 00
	00		 mov	 eax, DWORD PTR [edi+312]
; File D:\git\src\IBK\IBK_DRFN\ProjSrc\SrcChartEx\ChartOCX\AddInManager\ChartCommonAddIn\OrderLinkAddInImp.cpp

; 339  : 		char *szFormatData = strBuffer3.GetBuffer( m_strAskingPrice.GetLength() * 2);

  00358	8d 4d b0	 lea	 ecx, DWORD PTR _strBuffer3$6[ebp]
  0035b	c6 45 fc 08	 mov	 BYTE PTR __$EHRec$[ebp+8], 8
; File C:\Program Files (x86)\Microsoft Visual Studio\2019\Community\VC\Tools\MSVC\14.29.30133\atlmfc\include\atlsimpstr.h

; 519  : 		return( GetData()->nDataLength );

  0035f	8b 40 f4	 mov	 eax, DWORD PTR [eax-12]
; File D:\git\src\IBK\IBK_DRFN\ProjSrc\SrcChartEx\ChartOCX\AddInManager\ChartCommonAddIn\OrderLinkAddInImp.cpp

; 339  : 		char *szFormatData = strBuffer3.GetBuffer( m_strAskingPrice.GetLength() * 2);

  00362	03 c0		 add	 eax, eax
  00364	50		 push	 eax
  00365	ff 15 00 00 00
	00		 call	 DWORD PTR __imp_?GetBuffer@?$CSimpleStringT@D$00@ATL@@QAEPADH@Z

; 340  : 		szBuffer2 += nIntLen - 1;

  0036b	8b 55 ac	 mov	 edx, DWORD PTR _szBuffer2$1$[ebp]
  0036e	8b c8		 mov	 ecx, eax
  00370	4a		 dec	 edx
  00371	03 d6		 add	 edx, esi

; 341  : 		for( int i = 0; i < nIntLen; i++) *( szFormatData++) = *( szBuffer2--);

  00373	85 f6		 test	 esi, esi
  00375	7e 0d		 jle	 SHORT $LN153@DrawCursor
$LL7@DrawCursor:
  00377	8a 02		 mov	 al, BYTE PTR [edx]
  00379	8d 52 ff	 lea	 edx, DWORD PTR [edx-1]
  0037c	88 01		 mov	 BYTE PTR [ecx], al
  0037e	41		 inc	 ecx
  0037f	83 ee 01	 sub	 esi, 1
  00382	75 f3		 jne	 SHORT $LL7@DrawCursor
$LN153@DrawCursor:
  00384	8b 55 b4	 mov	 edx, DWORD PTR _nFixedDecimalLen$1$[ebp]
  00387	03 55 a4	 add	 edx, DWORD PTR _szBuffer1$1$[ebp]
  0038a	66 0f 1f 44 00
	00		 npad	 6
$LL10@DrawCursor:

; 342  : 		// 3.1.5    .
; 343  : 		do *( szFormatData++) = szBuffer1[ nFixedDecimalLen];	while( szBuffer1[ nFixedDecimalLen++] != '\0');

  00390	8a 02		 mov	 al, BYTE PTR [edx]
  00392	8d 49 01	 lea	 ecx, DWORD PTR [ecx+1]
  00395	88 41 ff	 mov	 BYTE PTR [ecx-1], al
  00398	8d 52 01	 lea	 edx, DWORD PTR [edx+1]
  0039b	8a 42 ff	 mov	 al, BYTE PTR [edx-1]
  0039e	84 c0		 test	 al, al
  003a0	75 ee		 jne	 SHORT $LL10@DrawCursor

; 344  : 		strBuffer3.ReleaseBuffer();

  003a2	6a ff		 push	 -1
  003a4	8d 4d b0	 lea	 ecx, DWORD PTR _strBuffer3$6[ebp]
  003a7	ff 15 00 00 00
	00		 call	 DWORD PTR __imp_?ReleaseBuffer@?$CSimpleStringT@D$00@ATL@@QAEXH@Z

; 345  : 		// 3.1.6 Buffer .
; 346  : 		strBuffer.ReleaseBuffer();

  003ad	6a ff		 push	 -1
  003af	8d 4d bc	 lea	 ecx, DWORD PTR _strBuffer$8[ebp]
  003b2	ff 15 00 00 00
	00		 call	 DWORD PTR __imp_?ReleaseBuffer@?$CSimpleStringT@D$00@ATL@@QAEXH@Z

; 347  : 		// 3.1.7 Format Data .
; 348  : 		m_strAskingPrice = strBuffer3;

  003b8	8d 45 b0	 lea	 eax, DWORD PTR _strBuffer3$6[ebp]
  003bb	8d b7 38 01 00
	00		 lea	 esi, DWORD PTR [edi+312]
  003c1	50		 push	 eax
  003c2	8b ce		 mov	 ecx, esi
  003c4	ff 15 00 00 00
	00		 call	 DWORD PTR __imp_??4?$CStringT@DV?$StrTraitMFC_DLL@DV?$ChTraitsCRT@D@ATL@@@@@ATL@@QAEAAV01@ABV01@@Z

; 349  : 	}

  003ca	8d 4d b0	 lea	 ecx, DWORD PTR _strBuffer3$6[ebp]
  003cd	ff 15 00 00 00
	00		 call	 DWORD PTR __imp_??1?$CStringT@DV?$StrTraitMFC_DLL@DV?$ChTraitsCRT@D@ATL@@@@@ATL@@QAE@XZ
  003d3	8d 4d bc	 lea	 ecx, DWORD PTR _strBuffer$8[ebp]
  003d6	c6 45 fc 05	 mov	 BYTE PTR __$EHRec$[ebp+8], 5
  003da	ff 15 00 00 00
	00		 call	 DWORD PTR __imp_??1?$CStringT@DV?$StrTraitMFC_DLL@DV?$ChTraitsCRT@D@ATL@@@@@ATL@@QAE@XZ
$LN21@DrawCursor:
; File C:\Program Files (x86)\Microsoft Visual Studio\2019\Community\VC\Tools\MSVC\14.29.30133\atlmfc\include\atlsimpstr.h

; 519  : 		return( GetData()->nDataLength );

  003e0	8b 06		 mov	 eax, DWORD PTR [esi]
; File C:\Program Files (x86)\Microsoft Visual Studio\2019\Community\VC\Tools\MSVC\14.29.30133\atlmfc\include\afxwin1.inl

; 639  : 		VERIFY(::GetTextExtentPoint32(m_hAttribDC, str, (int)str.GetLength(), &size));

  003e2	8d 4d a8	 lea	 ecx, DWORD PTR _size$4[ebp]
  003e5	51		 push	 ecx
  003e6	ff 70 f4	 push	 DWORD PTR [eax-12]
  003e9	50		 push	 eax
  003ea	8b 45 b8	 mov	 eax, DWORD PTR _pDC$1$[ebp]
  003ed	ff 70 08	 push	 DWORD PTR [eax+8]
  003f0	ff 15 00 00 00
	00		 call	 DWORD PTR __imp__GetTextExtentPoint32A@16
; File D:\git\src\IBK\IBK_DRFN\ProjSrc\SrcChartEx\ChartOCX\AddInManager\ChartCommonAddIn\OrderLinkAddInImp.cpp

; 355  : 	CPoint ptPrice( m_rctBoundMark.right, m_nIndicatorPosY - szPriceText.cy / 2);

  003f6	8b 45 ac	 mov	 eax, DWORD PTR _size$4[ebp+4]
  003f9	0f 57 c0	 xorps	 xmm0, xmm0
  003fc	8b 8f b4 00 00
	00		 mov	 ecx, DWORD PTR [edi+180]
; File C:\Program Files (x86)\Microsoft Visual Studio\2019\Community\VC\Tools\MSVC\14.29.30133\atlmfc\include\atltypes.h

; 408  : 	x = initX;

  00402	8b 77 6c	 mov	 esi, DWORD PTR [edi+108]
; File D:\git\src\IBK\IBK_DRFN\ProjSrc\SrcChartEx\ChartOCX\AddInManager\ChartCommonAddIn\OrderLinkAddInImp.cpp

; 355  : 	CPoint ptPrice( m_rctBoundMark.right, m_nIndicatorPosY - szPriceText.cy / 2);

  00405	99		 cdq
  00406	2b c2		 sub	 eax, edx
  00408	d1 f8		 sar	 eax, 1
  0040a	2b c8		 sub	 ecx, eax

; 356  : 	// (2004.10.27, )  Scale  , ( BoundMark   , Text   .
; 357  : 	CRect rctChartOcx;
; 358  : 	m_pChartCWnd->GetClientRect( &rctChartOcx);

  0040c	8b 47 08	 mov	 eax, DWORD PTR [edi+8]
  0040f	89 4d bc	 mov	 DWORD PTR $T7[ebp], ecx
; File C:\Program Files (x86)\Microsoft Visual Studio\2019\Community\VC\Tools\MSVC\14.29.30133\atlmfc\include\afxwin2.inl

; 86   : 	{ ASSERT(::IsWindow(m_hWnd)); ::GetClientRect(m_hWnd, lpRect); }

  00412	8d 4d c0	 lea	 ecx, DWORD PTR _rctChartOcx$[ebp]
  00415	51		 push	 ecx
; File C:\Program Files (x86)\Microsoft Visual Studio\2019\Community\VC\Tools\MSVC\14.29.30133\atlmfc\include\atltypes.h

; 528  : 	left = 0;

  00416	0f 11 45 c0	 movups	 XMMWORD PTR _rctChartOcx$[ebp], xmm0
; File C:\Program Files (x86)\Microsoft Visual Studio\2019\Community\VC\Tools\MSVC\14.29.30133\atlmfc\include\afxwin2.inl

; 86   : 	{ ASSERT(::IsWindow(m_hWnd)); ::GetClientRect(m_hWnd, lpRect); }

  0041a	ff 70 20	 push	 DWORD PTR [eax+32]
  0041d	ff 15 00 00 00
	00		 call	 DWORD PTR __imp__GetClientRect@8
; File C:\Program Files (x86)\Microsoft Visual Studio\2019\Community\VC\Tools\MSVC\14.29.30133\atlmfc\include\atltypes.h

; 648  : 	return ::PtInRect(this, point);

  00423	ff 75 bc	 push	 DWORD PTR $T7[ebp]

; 492  : 	return CPoint(x + size.cx, y + size.cy);

  00426	8b 45 a8	 mov	 eax, DWORD PTR _size$4[ebp]
  00429	03 c6		 add	 eax, esi

; 648  : 	return ::PtInRect(this, point);

  0042b	50		 push	 eax
  0042c	8d 45 c0	 lea	 eax, DWORD PTR _rctChartOcx$[ebp]
  0042f	50		 push	 eax
  00430	ff 15 00 00 00
	00		 call	 DWORD PTR __imp__PtInRect@12
; File D:\git\src\IBK\IBK_DRFN\ProjSrc\SrcChartEx\ChartOCX\AddInManager\ChartCommonAddIn\OrderLinkAddInImp.cpp

; 359  : 	if( !rctChartOcx.PtInRect( ptPrice + CSize( szPriceText.cx, 0)))

  00436	85 c0		 test	 eax, eax
  00438	75 09		 jne	 SHORT $LN25@DrawCursor

; 360  : 		ptPrice.x = m_rctBoundMark.left - szPriceText.cx - 10;

  0043a	8b 77 64	 mov	 esi, DWORD PTR [edi+100]
  0043d	2b 75 a8	 sub	 esi, DWORD PTR _size$4[ebp]
  00440	83 ee 0a	 sub	 esi, 10			; 0000000aH
$LN25@DrawCursor:

; 361  : 
; 362  : 	// (2004.10.25, ) TEXT  Left  ,      .
; 363  : 	rct = CRect( ptPrice.x, ptPrice.y - 2, ptPrice.x + szPriceText.cx + 5, ptPrice.y + szPriceText.cy + 1);

  00443	8b 4d a8	 mov	 ecx, DWORD PTR _size$4[ebp]
  00446	8b 55 ac	 mov	 edx, DWORD PTR _size$4[ebp+4]
  00449	83 c1 05	 add	 ecx, 5
  0044c	8b 45 bc	 mov	 eax, DWORD PTR $T7[ebp]
  0044f	42		 inc	 edx
  00450	03 ce		 add	 ecx, esi
  00452	89 75 e0	 mov	 DWORD PTR _rct$[ebp], esi
  00455	03 d0		 add	 edx, eax
  00457	89 4d e8	 mov	 DWORD PTR _rct$[ebp+8], ecx

; 364  : 	// (2006/11/5 - Seung-Won, Bae) Use MainOSB
; 365  : 
; 366  : 	// 5.    .
; 367  : 	// 5.1 NOT Line .
; 368  : 	int nPreROP = pDC->SetROP2( R2_NOT);

  0045a	8b 4d b8	 mov	 ecx, DWORD PTR _pDC$1$[ebp]
  0045d	83 c0 fe	 add	 eax, -2			; fffffffeH
  00460	6a 06		 push	 6
  00462	89 45 e4	 mov	 DWORD PTR _rct$[ebp+4], eax
  00465	89 55 ec	 mov	 DWORD PTR _rct$[ebp+12], edx
  00468	e8 00 00 00 00	 call	 ?SetROP2@CDC@@QAEHH@Z	; CDC::SetROP2

; 369  : 	pDC->MoveTo( m_rctGraphRegion.left,		m_nIndicatorPosY);

  0046d	ff b7 b4 00 00
	00		 push	 DWORD PTR [edi+180]
  00473	8b 4d b8	 mov	 ecx, DWORD PTR _pDC$1$[ebp]
  00476	8b f0		 mov	 esi, eax
  00478	ff b7 00 01 00
	00		 push	 DWORD PTR [edi+256]
  0047e	8d 45 a8	 lea	 eax, DWORD PTR $T5[ebp]
  00481	50		 push	 eax
  00482	e8 00 00 00 00	 call	 ?MoveTo@CDC@@QAE?AVCPoint@@HH@Z ; CDC::MoveTo

; 370  : 	pDC->LineTo( m_rctGraphRegion.right,	m_nIndicatorPosY);

  00487	ff b7 b4 00 00
	00		 push	 DWORD PTR [edi+180]
  0048d	8b 4d b8	 mov	 ecx, DWORD PTR _pDC$1$[ebp]
  00490	ff b7 08 01 00
	00		 push	 DWORD PTR [edi+264]
  00496	e8 00 00 00 00	 call	 ?LineTo@CDC@@QAEHHH@Z	; CDC::LineTo

; 371  : 	pDC->SetROP2( nPreROP);

  0049b	56		 push	 esi
  0049c	8b 75 b8	 mov	 esi, DWORD PTR _pDC$1$[ebp]
  0049f	8b ce		 mov	 ecx, esi
  004a1	e8 00 00 00 00	 call	 ?SetROP2@CDC@@QAEHH@Z	; CDC::SetROP2

; 372  : 	// 5.2  TEXT .
; 373  : 	CPen *	pOldPen		= ( CPen *)pDC->SelectStockObject( BLACK_PEN);

  004a6	8b 06		 mov	 eax, DWORD PTR [esi]
  004a8	8b ce		 mov	 ecx, esi
  004aa	6a 07		 push	 7
  004ac	8b 40 2c	 mov	 eax, DWORD PTR [eax+44]
  004af	ff d0		 call	 eax
  004b1	8b f8		 mov	 edi, eax

; 374  : 	CBrush *pOldBrush	= ( CBrush *)pDC->SelectStockObject( WHITE_BRUSH);

  004b3	8b ce		 mov	 ecx, esi
  004b5	8b 06		 mov	 eax, DWORD PTR [esi]
  004b7	6a 00		 push	 0
  004b9	8b 40 2c	 mov	 eax, DWORD PTR [eax+44]
  004bc	ff d0		 call	 eax
; File C:\Program Files (x86)\Microsoft Visual Studio\2019\Community\VC\Tools\MSVC\14.29.30133\atlmfc\include\afxwin1.inl

; 541  : 	{ ASSERT(m_hDC != NULL); return ::Rectangle(m_hDC, lpRect->left, lpRect->top,

  004be	ff 75 ec	 push	 DWORD PTR _rct$[ebp+12]
; File D:\git\src\IBK\IBK_DRFN\ProjSrc\SrcChartEx\ChartOCX\AddInManager\ChartCommonAddIn\OrderLinkAddInImp.cpp

; 374  : 	CBrush *pOldBrush	= ( CBrush *)pDC->SelectStockObject( WHITE_BRUSH);

  004c1	8b f0		 mov	 esi, eax
; File C:\Program Files (x86)\Microsoft Visual Studio\2019\Community\VC\Tools\MSVC\14.29.30133\atlmfc\include\afxwin1.inl

; 541  : 	{ ASSERT(m_hDC != NULL); return ::Rectangle(m_hDC, lpRect->left, lpRect->top,

  004c3	8b 45 b8	 mov	 eax, DWORD PTR _pDC$1$[ebp]
  004c6	ff 75 e8	 push	 DWORD PTR _rct$[ebp+8]
  004c9	ff 75 e4	 push	 DWORD PTR _rct$[ebp+4]
  004cc	ff 75 e0	 push	 DWORD PTR _rct$[ebp]
  004cf	ff 70 04	 push	 DWORD PTR [eax+4]
  004d2	ff 15 00 00 00
	00		 call	 DWORD PTR __imp__Rectangle@20
; File D:\git\src\IBK\IBK_DRFN\ProjSrc\SrcChartEx\ChartOCX\AddInManager\ChartCommonAddIn\OrderLinkAddInImp.cpp

; 376  : 	pDC->SelectObject( pOldBrush);

  004d8	8b 4d b8	 mov	 ecx, DWORD PTR _pDC$1$[ebp]
  004db	56		 push	 esi
  004dc	e8 00 00 00 00	 call	 ?SelectObject@CDC@@QAEPAVCBrush@@PAV2@@Z ; CDC::SelectObject

; 377  : 	pDC->SelectObject( pOldPen);

  004e1	57		 push	 edi
  004e2	8b 7d b8	 mov	 edi, DWORD PTR _pDC$1$[ebp]
  004e5	8b cf		 mov	 ecx, edi
  004e7	e8 00 00 00 00	 call	 ?SelectObject@CDC@@QAEPAVCPen@@PAV2@@Z ; CDC::SelectObject
; File C:\Program Files (x86)\Microsoft Visual Studio\2019\Community\VC\Tools\MSVC\14.29.30133\atlmfc\include\atlsimpstr.h

; 519  : 		return( GetData()->nDataLength );

  004ec	8b 45 dc	 mov	 eax, DWORD PTR _str$1$[ebp]
; File D:\git\src\IBK\IBK_DRFN\ProjSrc\SrcChartEx\ChartOCX\AddInManager\ChartCommonAddIn\OrderLinkAddInImp.cpp

; 378  : 	pDC->TextOut( rct.left + 3, rct.top + 2, m_strAskingPrice);	// Border   .

  004ef	8b 75 e4	 mov	 esi, DWORD PTR _rct$[ebp+4]
  004f2	8b 4d e0	 mov	 ecx, DWORD PTR _rct$[ebp]
  004f5	83 c6 02	 add	 esi, 2
; File C:\Program Files (x86)\Microsoft Visual Studio\2019\Community\VC\Tools\MSVC\14.29.30133\atlmfc\include\afxwin1.inl

; 574  : 	{ ASSERT(m_hDC != NULL); return TextOut(x, y, (LPCTSTR)str, (int)str.GetLength()); } // call virtual

  004f8	8b 17		 mov	 edx, DWORD PTR [edi]
; File D:\git\src\IBK\IBK_DRFN\ProjSrc\SrcChartEx\ChartOCX\AddInManager\ChartCommonAddIn\OrderLinkAddInImp.cpp

; 378  : 	pDC->TextOut( rct.left + 3, rct.top + 2, m_strAskingPrice);	// Border   .

  004fa	83 c1 03	 add	 ecx, 3
; File C:\Program Files (x86)\Microsoft Visual Studio\2019\Community\VC\Tools\MSVC\14.29.30133\atlmfc\include\atlsimpstr.h

; 519  : 		return( GetData()->nDataLength );

  004fd	8b 00		 mov	 eax, DWORD PTR [eax]
; File C:\Program Files (x86)\Microsoft Visual Studio\2019\Community\VC\Tools\MSVC\14.29.30133\atlmfc\include\afxwin1.inl

; 574  : 	{ ASSERT(m_hDC != NULL); return TextOut(x, y, (LPCTSTR)str, (int)str.GetLength()); } // call virtual

  004ff	ff 70 f4	 push	 DWORD PTR [eax-12]
  00502	50		 push	 eax
  00503	56		 push	 esi
  00504	51		 push	 ecx
  00505	8b cf		 mov	 ecx, edi
  00507	ff 52 64	 call	 DWORD PTR [edx+100]
; File D:\git\src\IBK\IBK_DRFN\ProjSrc\SrcChartEx\ChartOCX\AddInManager\ChartCommonAddIn\OrderLinkAddInImp.cpp

; 380  : 	rct.UnionRect( rct, CRect( m_rctGraphRegion.left, m_nIndicatorPosY, m_rctGraphRegion.right,	m_nIndicatorPosY + 1));

  0050a	8b 45 90	 mov	 eax, DWORD PTR _this$GSCopy$1$[ebp]
  0050d	8b 90 b4 00 00
	00		 mov	 edx, DWORD PTR [eax+180]
  00513	8b 88 08 01 00
	00		 mov	 ecx, DWORD PTR [eax+264]
; File C:\Program Files (x86)\Microsoft Visual Studio\2019\Community\VC\Tools\MSVC\14.29.30133\atlmfc\include\atltypes.h

; 540  : 	left = l;

  00519	8b 80 00 01 00
	00		 mov	 eax, DWORD PTR [eax+256]
  0051f	89 45 d0	 mov	 DWORD PTR $T10[ebp], eax

; 760  : 	return ::UnionRect(this, lpRect1, lpRect2);

  00522	8d 45 d0	 lea	 eax, DWORD PTR $T10[ebp]
; File D:\git\src\IBK\IBK_DRFN\ProjSrc\SrcChartEx\ChartOCX\AddInManager\ChartCommonAddIn\OrderLinkAddInImp.cpp

; 380  : 	rct.UnionRect( rct, CRect( m_rctGraphRegion.left, m_nIndicatorPosY, m_rctGraphRegion.right,	m_nIndicatorPosY + 1));

  00525	8d 72 01	 lea	 esi, DWORD PTR [edx+1]
; File C:\Program Files (x86)\Microsoft Visual Studio\2019\Community\VC\Tools\MSVC\14.29.30133\atlmfc\include\atltypes.h

; 541  : 	top = t;

  00528	89 55 d4	 mov	 DWORD PTR $T10[ebp+4], edx

; 760  : 	return ::UnionRect(this, lpRect1, lpRect2);

  0052b	50		 push	 eax

; 542  : 	right = r;

  0052c	89 4d d8	 mov	 DWORD PTR $T10[ebp+8], ecx

; 760  : 	return ::UnionRect(this, lpRect1, lpRect2);

  0052f	8d 45 e0	 lea	 eax, DWORD PTR _rct$[ebp]

; 543  : 	bottom = b;

  00532	89 75 dc	 mov	 DWORD PTR $T10[ebp+12], esi

; 760  : 	return ::UnionRect(this, lpRect1, lpRect2);

  00535	50		 push	 eax
  00536	50		 push	 eax
  00537	ff 15 00 00 00
	00		 call	 DWORD PTR __imp__UnionRect@12
; File D:\git\src\IBK\IBK_DRFN\ProjSrc\SrcChartEx\ChartOCX\AddInManager\ChartCommonAddIn\OrderLinkAddInImp.cpp

; 381  : 	return rct;

  0053d	0f 10 45 e0	 movups	 xmm0, XMMWORD PTR _rct$[ebp]
  00541	8b 75 88	 mov	 esi, DWORD PTR ___$ReturnUdt$GSCopy$1$[ebp]
  00544	8d 4d 8c	 lea	 ecx, DWORD PTR _strUnit$[ebp]
  00547	0f 11 06	 movups	 XMMWORD PTR [esi], xmm0
  0054a	ff 15 00 00 00
	00		 call	 DWORD PTR __imp_??1?$CStringT@DV?$StrTraitMFC_DLL@DV?$ChTraitsCRT@D@ATL@@@@@ATL@@QAE@XZ
; File D:\git\src\IBK\IBK_DRFN\ProjSrc\SrcChartEx\ChartOCX\AddInManager\Include_AddIn\I000000\_IString.h

; 45   : 		if( m_pIStrData)

  00550	8b 45 98	 mov	 eax, DWORD PTR _szHelpMsg$[ebp+4]
  00553	c6 45 fc 09	 mov	 BYTE PTR __$EHRec$[ebp+8], 9
  00557	85 c0		 test	 eax, eax
  00559	74 14		 je	 SHORT $LN114@DrawCursor

; 46   : 		{
; 47   : 			m_pIStrData->Release();

  0055b	8b 08		 mov	 ecx, DWORD PTR [eax]
  0055d	50		 push	 eax
  0055e	ff 51 08	 call	 DWORD PTR [ecx+8]

; 48   : 			m_pIStrData = NULL;

  00561	c7 45 98 00 00
	00 00		 mov	 DWORD PTR _szHelpMsg$[ebp+4], 0

; 49   : 			m_szData = NULL;

  00568	c7 45 94 00 00
	00 00		 mov	 DWORD PTR _szHelpMsg$[ebp], 0
$LN114@DrawCursor:
; File D:\git\src\IBK\IBK_DRFN\ProjSrc\SrcChartEx\ChartOCX\AddInManager\ChartCommonAddIn\OrderLinkAddInImp.cpp

; 381  : 	return rct;

  0056f	8d 4d a0	 lea	 ecx, DWORD PTR _strPacketType$[ebp]
  00572	ff 15 00 00 00
	00		 call	 DWORD PTR __imp_??1?$CStringT@DV?$StrTraitMFC_DLL@DV?$ChTraitsCRT@D@ATL@@@@@ATL@@QAE@XZ
  00578	8d 4d 9c	 lea	 ecx, DWORD PTR _strFormat$[ebp]
  0057b	ff 15 00 00 00
	00		 call	 DWORD PTR __imp_??1?$CStringT@DV?$StrTraitMFC_DLL@DV?$ChTraitsCRT@D@ATL@@@@@ATL@@QAE@XZ
  00581	eb 07		 jmp	 SHORT $LN160@DrawCursor
$LN155@DrawCursor:

; 267  : 	if( !pDC) return rct;

  00583	0f 10 45 e0	 movups	 xmm0, XMMWORD PTR _rct$[ebp]
  00587	0f 11 06	 movups	 XMMWORD PTR [esi], xmm0
$LN160@DrawCursor:

; 382  : }

  0058a	8b c6		 mov	 eax, esi
  0058c	8b 4d f4	 mov	 ecx, DWORD PTR __$EHRec$[ebp]
  0058f	64 89 0d 00 00
	00 00		 mov	 DWORD PTR fs:0, ecx
  00596	59		 pop	 ecx
  00597	5f		 pop	 edi
  00598	5e		 pop	 esi
  00599	8b 4d f0	 mov	 ecx, DWORD PTR __$ArrayPad$[ebp]
  0059c	33 cd		 xor	 ecx, ebp
  0059e	e8 00 00 00 00	 call	 @__security_check_cookie@4
  005a3	8b e5		 mov	 esp, ebp
  005a5	5d		 pop	 ebp
  005a6	c2 08 00	 ret	 8
_TEXT	ENDS
;	COMDAT text$x
text$x	SEGMENT
__unwindfunclet$?DrawCursor@COrderLinkAddInImp@@MAE?AUtagRECT@@PAUHDC__@@@Z$0:
  00000	8d 4d 9c	 lea	 ecx, DWORD PTR _strFormat$[ebp]
  00003	ff 25 00 00 00
	00		 jmp	 DWORD PTR __imp_??1?$CStringT@DV?$StrTraitMFC_DLL@DV?$ChTraitsCRT@D@ATL@@@@@ATL@@QAE@XZ
__unwindfunclet$?DrawCursor@COrderLinkAddInImp@@MAE?AUtagRECT@@PAUHDC__@@@Z$1:
  00009	8d 4d a0	 lea	 ecx, DWORD PTR _strPacketType$[ebp]
  0000c	ff 25 00 00 00
	00		 jmp	 DWORD PTR __imp_??1?$CStringT@DV?$StrTraitMFC_DLL@DV?$ChTraitsCRT@D@ATL@@@@@ATL@@QAE@XZ
__unwindfunclet$?DrawCursor@COrderLinkAddInImp@@MAE?AUtagRECT@@PAUHDC__@@@Z$2:
  00012	8d 4d 94	 lea	 ecx, DWORD PTR _szHelpMsg$[ebp]
  00015	e9 00 00 00 00	 jmp	 ??1ILPCSTR000000@@QAE@XZ ; ILPCSTR000000::~ILPCSTR000000
__unwindfunclet$?DrawCursor@COrderLinkAddInImp@@MAE?AUtagRECT@@PAUHDC__@@@Z$3:
  0001a	8d 4d d8	 lea	 ecx, DWORD PTR _strType$11[ebp]
  0001d	e9 00 00 00 00	 jmp	 ??1ILPCSTR000000@@QAE@XZ ; ILPCSTR000000::~ILPCSTR000000
__unwindfunclet$?DrawCursor@COrderLinkAddInImp@@MAE?AUtagRECT@@PAUHDC__@@@Z$4:
  00022	8d 4d 8c	 lea	 ecx, DWORD PTR _strUnit$[ebp]
  00025	ff 25 00 00 00
	00		 jmp	 DWORD PTR __imp_??1?$CStringT@DV?$StrTraitMFC_DLL@DV?$ChTraitsCRT@D@ATL@@@@@ATL@@QAE@XZ
__unwindfunclet$?DrawCursor@COrderLinkAddInImp@@MAE?AUtagRECT@@PAUHDC__@@@Z$5:
  0002b	8d 4d bc	 lea	 ecx, DWORD PTR $T9[ebp]
  0002e	ff 25 00 00 00
	00		 jmp	 DWORD PTR __imp_??1?$CStringT@DV?$StrTraitMFC_DLL@DV?$ChTraitsCRT@D@ATL@@@@@ATL@@QAE@XZ
__unwindfunclet$?DrawCursor@COrderLinkAddInImp@@MAE?AUtagRECT@@PAUHDC__@@@Z$6:
  00034	8d 4d bc	 lea	 ecx, DWORD PTR _strBuffer$8[ebp]
  00037	ff 25 00 00 00
	00		 jmp	 DWORD PTR __imp_??1?$CStringT@DV?$StrTraitMFC_DLL@DV?$ChTraitsCRT@D@ATL@@@@@ATL@@QAE@XZ
__unwindfunclet$?DrawCursor@COrderLinkAddInImp@@MAE?AUtagRECT@@PAUHDC__@@@Z$7:
  0003d	8d 4d b0	 lea	 ecx, DWORD PTR _strBuffer3$6[ebp]
  00040	ff 25 00 00 00
	00		 jmp	 DWORD PTR __imp_??1?$CStringT@DV?$StrTraitMFC_DLL@DV?$ChTraitsCRT@D@ATL@@@@@ATL@@QAE@XZ
  00046	cc		 int	 3
  00047	cc		 int	 3
  00048	cc		 int	 3
  00049	cc		 int	 3
  0004a	cc		 int	 3
__ehhandler$?DrawCursor@COrderLinkAddInImp@@MAE?AUtagRECT@@PAUHDC__@@@Z:
  0004b	90		 npad	 1
  0004c	90		 npad	 1
  0004d	8b 54 24 08	 mov	 edx, DWORD PTR [esp+8]
  00051	8d 42 0c	 lea	 eax, DWORD PTR [edx+12]
  00054	8b 4a 88	 mov	 ecx, DWORD PTR [edx-120]
  00057	33 c8		 xor	 ecx, eax
  00059	e8 00 00 00 00	 call	 @__security_check_cookie@4
  0005e	8b 4a fc	 mov	 ecx, DWORD PTR [edx-4]
  00061	33 c8		 xor	 ecx, eax
  00063	e8 00 00 00 00	 call	 @__security_check_cookie@4
  00068	b8 00 00 00 00	 mov	 eax, OFFSET __ehfuncinfo$?DrawCursor@COrderLinkAddInImp@@MAE?AUtagRECT@@PAUHDC__@@@Z
  0006d	e9 00 00 00 00	 jmp	 ___CxxFrameHandler3
text$x	ENDS
?DrawCursor@COrderLinkAddInImp@@MAE?AUtagRECT@@PAUHDC__@@@Z ENDP ; COrderLinkAddInImp::DrawCursor
; Function compile flags: /Ogtp
; File D:\git\src\IBK\IBK_DRFN\ProjSrc\SrcChartEx\ChartOCX\AddInManager\ChartCommonAddIn\OrderLinkAddInImp.cpp
;	COMDAT ?OnSaveEnvironment@COrderLinkAddInImp@@MAEXPAUIPropertyMap@@@Z
_TEXT	SEGMENT
_p_pIAddInEnvMap$ = 8					; size = 4
?OnSaveEnvironment@COrderLinkAddInImp@@MAEXPAUIPropertyMap@@@Z PROC ; COrderLinkAddInImp::OnSaveEnvironment, COMDAT
; _this$ = ecx

; 248  : {

  00000	55		 push	 ebp
  00001	8b ec		 mov	 ebp, esp

; 250  : }

  00003	5d		 pop	 ebp

; 249  : 	CBoundMarkerAddInImp::OnSaveEnvironment( p_pIAddInEnvMap);

  00004	e9 00 00 00 00	 jmp	 ?OnSaveEnvironment@CBoundMarkerAddInImp@@MAEXPAUIPropertyMap@@@Z ; CBoundMarkerAddInImp::OnSaveEnvironment
?OnSaveEnvironment@COrderLinkAddInImp@@MAEXPAUIPropertyMap@@@Z ENDP ; COrderLinkAddInImp::OnSaveEnvironment
_TEXT	ENDS
; Function compile flags: /Ogtp
; File D:\git\src\IBK\IBK_DRFN\ProjSrc\SrcChartEx\ChartOCX\AddInManager\ChartCommonAddIn\OrderLinkAddInImp.cpp
;	COMDAT ?OnLoadEnvironment@COrderLinkAddInImp@@MAEXPAUIPropertyMap@@@Z
_TEXT	SEGMENT
_p_pIAddInEnvMap$ = 8					; size = 4
?OnLoadEnvironment@COrderLinkAddInImp@@MAEXPAUIPropertyMap@@@Z PROC ; COrderLinkAddInImp::OnLoadEnvironment, COMDAT
; _this$ = ecx

; 244  : {

  00000	55		 push	 ebp
  00001	8b ec		 mov	 ebp, esp

; 246  : }

  00003	5d		 pop	 ebp

; 245  : 	CBoundMarkerAddInImp::OnLoadEnvironment( p_pIAddInEnvMap);

  00004	e9 00 00 00 00	 jmp	 ?OnLoadEnvironment@CBoundMarkerAddInImp@@MAEXPAUIPropertyMap@@@Z ; CBoundMarkerAddInImp::OnLoadEnvironment
?OnLoadEnvironment@COrderLinkAddInImp@@MAEXPAUIPropertyMap@@@Z ENDP ; COrderLinkAddInImp::OnLoadEnvironment
_TEXT	ENDS
; Function compile flags: /Ogtp
; File D:\git\src\IBK\IBK_DRFN\ProjSrc\SrcChartEx\ChartOCX\AddInManager\ChartCommonAddIn\OrderLinkAddInImp.cpp
; File D:\git\src\IBK\IBK_DRFN\ProjSrc\SrcChartEx\ChartOCX\AddInManager\Include_AddIn\I000000\_IString.h
; File D:\git\src\IBK\IBK_DRFN\ProjSrc\SrcChartEx\ChartOCX\AddInManager\ChartCommonAddIn\OrderLinkAddInImp.cpp
; File D:\git\src\IBK\IBK_DRFN\ProjSrc\SrcChartEx\ChartOCX\AddInManager\Include_AddIn\I000000\_IString.h
; File D:\git\src\IBK\IBK_DRFN\ProjSrc\SrcChartEx\ChartOCX\AddInManager\ChartCommonAddIn\OrderLinkAddInImp.cpp
; File D:\git\src\IBK\IBK_DRFN\ProjSrc\SrcChartEx\ChartOCX\AddInManager\Include_AddIn\I000000\_IString.h
; File D:\git\src\IBK\IBK_DRFN\ProjSrc\SrcChartEx\ChartOCX\AddInManager\ChartCommonAddIn\OrderLinkAddInImp.cpp
;	COMDAT ?OnDrawAfterGraph@COrderLinkAddInImp@@MAEXPAUHDC__@@@Z
_TEXT	SEGMENT
_szGraphName$2 = -36					; size = 8
_nG$3 = -28						; size = 4
_nR$4 = -24						; size = 4
_nC$5 = -20						; size = 4
_nV$6 = -16						; size = 4
__$EHRec$ = -12						; size = 12
_p_hDC$ = 8						; size = 4
?OnDrawAfterGraph@COrderLinkAddInImp@@MAEXPAUHDC__@@@Z PROC ; COrderLinkAddInImp::OnDrawAfterGraph, COMDAT
; _this$ = ecx

; 449  : {

  00000	55		 push	 ebp
  00001	8b ec		 mov	 ebp, esp
  00003	6a ff		 push	 -1
  00005	68 00 00 00 00	 push	 __ehhandler$?OnDrawAfterGraph@COrderLinkAddInImp@@MAEXPAUHDC__@@@Z
  0000a	64 a1 00 00 00
	00		 mov	 eax, DWORD PTR fs:0
  00010	50		 push	 eax
  00011	83 ec 18	 sub	 esp, 24			; 00000018H
  00014	53		 push	 ebx
  00015	56		 push	 esi
  00016	57		 push	 edi
  00017	a1 00 00 00 00	 mov	 eax, DWORD PTR ___security_cookie
  0001c	33 c5		 xor	 eax, ebp
  0001e	50		 push	 eax
  0001f	8d 45 f4	 lea	 eax, DWORD PTR __$EHRec$[ebp]
  00022	64 a3 00 00 00
	00		 mov	 DWORD PTR fs:0, eax
  00028	8b f9		 mov	 edi, ecx

; 422  : 	if( !m_pIChartOCX->GetViewStartEndIndex( m_nStartIndex, m_nEndIndex)) return FALSE;

  0002a	8b 4f 04	 mov	 ecx, DWORD PTR [edi+4]
  0002d	8d 87 24 01 00
	00		 lea	 eax, DWORD PTR [edi+292]
  00033	50		 push	 eax
  00034	8d 87 20 01 00
	00		 lea	 eax, DWORD PTR [edi+288]
  0003a	50		 push	 eax
  0003b	8b 11		 mov	 edx, DWORD PTR [ecx]
  0003d	ff 92 24 01 00
	00		 call	 DWORD PTR [edx+292]
  00043	85 c0		 test	 eax, eax
  00045	0f 84 d4 00 00
	00		 je	 $LN21@OnDrawAfte

; 426  : 	ILPCSTR szGraphName = m_pIChartManager->FindFirstIndicator( _MTEXT( C2_PRICE_CHART), nR, nC, nV, nG, "DEFAULT");

  0004b	8b 4f 1c	 mov	 ecx, DWORD PTR [edi+28]
  0004e	8d 45 e4	 lea	 eax, DWORD PTR _nG$3[ebp]
  00051	68 00 00 00 00	 push	 OFFSET ??_C@_07MGCPDNLD@DEFAULT@
  00056	50		 push	 eax
  00057	8d 45 f0	 lea	 eax, DWORD PTR _nV$6[ebp]
  0005a	c7 45 e8 00 00
	00 00		 mov	 DWORD PTR _nR$4[ebp], 0
  00061	50		 push	 eax
  00062	8d 45 ec	 lea	 eax, DWORD PTR _nC$5[ebp]
  00065	c7 45 ec 00 00
	00 00		 mov	 DWORD PTR _nC$5[ebp], 0
  0006c	50		 push	 eax
  0006d	8d 45 e8	 lea	 eax, DWORD PTR _nR$4[ebp]
  00070	c7 45 f0 00 00
	00 00		 mov	 DWORD PTR _nV$6[ebp], 0
  00077	50		 push	 eax
  00078	a1 54 00 00 00	 mov	 eax, DWORD PTR ?g_iMetaTable@@3VIMetaTable@@A+84
  0007d	c7 45 e4 00 00
	00 00		 mov	 DWORD PTR _nG$3[ebp], 0
  00084	8b 11		 mov	 edx, DWORD PTR [ecx]
  00086	ff b0 28 03 00
	00		 push	 DWORD PTR [eax+808]
  0008c	ff 52 70	 call	 DWORD PTR [edx+112]
; File D:\git\src\IBK\IBK_DRFN\ProjSrc\SrcChartEx\ChartOCX\AddInManager\Include_AddIn\I000000\_IString.h

; 39   : 		m_pIStrData = p_pIString;	// Do not AddRef(). Because It must be Return Value.

  0008f	8b f0		 mov	 esi, eax
  00091	89 75 e0	 mov	 DWORD PTR _szGraphName$2[ebp+4], esi

; 40   : 		if( m_pIStrData) m_szData = m_pIStrData->GetData();

  00094	85 f6		 test	 esi, esi
  00096	74 09		 je	 SHORT $LN10@OnDrawAfte
  00098	8b 16		 mov	 edx, DWORD PTR [esi]
  0009a	8b ce		 mov	 ecx, esi
  0009c	ff 52 10	 call	 DWORD PTR [edx+16]
  0009f	eb 02		 jmp	 SHORT $LN26@OnDrawAfte
$LN10@OnDrawAfte:

; 41   : 		else m_szData = NULL;

  000a1	33 c0		 xor	 eax, eax
$LN26@OnDrawAfte:
; File D:\git\src\IBK\IBK_DRFN\ProjSrc\SrcChartEx\ChartOCX\AddInManager\ChartCommonAddIn\OrderLinkAddInImp.cpp

; 426  : 	ILPCSTR szGraphName = m_pIChartManager->FindFirstIndicator( _MTEXT( C2_PRICE_CHART), nR, nC, nV, nG, "DEFAULT");

  000a3	89 45 dc	 mov	 DWORD PTR _szGraphName$2[ebp], eax
  000a6	c7 45 fc 00 00
	00 00		 mov	 DWORD PTR __$EHRec$[ebp+8], 0
; File D:\git\src\IBK\IBK_DRFN\ProjSrc\SrcChartEx\ChartOCX\AddInManager\Include_AddIn\I000000\_IString.h

; 57   : 		if( !m_szData) return TRUE;

  000ad	85 c0		 test	 eax, eax
  000af	74 5d		 je	 SHORT $LN24@OnDrawAfte
; File D:\git\src\IBK\IBK_DRFN\ProjSrc\SrcChartEx\ChartOCX\AddInManager\ChartCommonAddIn\OrderLinkAddInImp.cpp

; 427  : 	if( szGraphName.IsEmpty()) return FALSE;

  000b1	80 38 00	 cmp	 BYTE PTR [eax], 0
  000b4	74 58		 je	 SHORT $LN24@OnDrawAfte

; 428  : 
; 429  : 	// Block Log/    Data . (<->Y Pos)
; 430  : 	IBlock *pIBlock = m_pIChartManager->GetBlock( nR, nC);

  000b6	8b 4f 1c	 mov	 ecx, DWORD PTR [edi+28]
  000b9	ff 75 ec	 push	 DWORD PTR _nC$5[ebp]
  000bc	ff 75 e8	 push	 DWORD PTR _nR$4[ebp]
  000bf	8b 01		 mov	 eax, DWORD PTR [ecx]
  000c1	ff 50 38	 call	 DWORD PTR [eax+56]
  000c4	8b d8		 mov	 ebx, eax

; 431  : 	if( pIBlock)

  000c6	85 db		 test	 ebx, ebx
  000c8	74 3b		 je	 SHORT $LN6@OnDrawAfte

; 432  : 	{
; 433  : 		m_bLog = pIBlock->IsLogScale();

  000ca	8b 13		 mov	 edx, DWORD PTR [ebx]
  000cc	8b cb		 mov	 ecx, ebx
  000ce	ff 52 24	 call	 DWORD PTR [edx+36]

; 434  : 		m_bReverse = pIBlock->IsVScaleInvert( nV);

  000d1	ff 75 f0	 push	 DWORD PTR _nV$6[ebp]
  000d4	89 87 d8 00 00
	00		 mov	 DWORD PTR [edi+216], eax
  000da	8b cb		 mov	 ecx, ebx
  000dc	8b 13		 mov	 edx, DWORD PTR [ebx]
  000de	ff 52 58	 call	 DWORD PTR [edx+88]
  000e1	89 87 dc 00 00
	00		 mov	 DWORD PTR [edi+220], eax

; 435  : 
; 436  : 		pIBlock->GetVScaleGroupMinMax( nV, m_dViewMin, m_dViewMax);

  000e7	8b cb		 mov	 ecx, ebx
  000e9	8b 13		 mov	 edx, DWORD PTR [ebx]
  000eb	8d 87 e8 00 00
	00		 lea	 eax, DWORD PTR [edi+232]
  000f1	50		 push	 eax
  000f2	8d 87 e0 00 00
	00		 lea	 eax, DWORD PTR [edi+224]
  000f8	50		 push	 eax
  000f9	ff 75 f0	 push	 DWORD PTR _nV$6[ebp]
  000fc	ff 52 48	 call	 DWORD PTR [edx+72]

; 437  : //	   	pIBlock->GetGraphRegions( m_rctGraphRegion, m_rctBlockRegion);
; 438  : //		m_rctGraphDrawingRegion = pIBlock->GetGraphDrwingRegion();
; 439  : 
; 440  : 		pIBlock->Release();

  000ff	8b 03		 mov	 eax, DWORD PTR [ebx]
  00101	53		 push	 ebx
  00102	ff 50 08	 call	 DWORD PTR [eax+8]
$LN6@OnDrawAfte:
; File D:\git\src\IBK\IBK_DRFN\ProjSrc\SrcChartEx\ChartOCX\AddInManager\Include_AddIn\I000000\_IString.h

; 44   : 	{

  00105	c7 45 fc 02 00
	00 00		 mov	 DWORD PTR __$EHRec$[ebp+8], 2

; 45   : 		if( m_pIStrData)
; 46   : 		{
; 47   : 			m_pIStrData->Release();

  0010c	eb 07		 jmp	 SHORT $LN28@OnDrawAfte
$LN24@OnDrawAfte:

; 44   : 	{

  0010e	c7 45 fc 01 00
	00 00		 mov	 DWORD PTR __$EHRec$[ebp+8], 1
$LN28@OnDrawAfte:
; File D:\git\src\IBK\IBK_DRFN\ProjSrc\SrcChartEx\ChartOCX\AddInManager\ChartCommonAddIn\OrderLinkAddInImp.cpp

; 451  : }

  00115	85 f6		 test	 esi, esi
  00117	74 06		 je	 SHORT $LN21@OnDrawAfte
  00119	8b 06		 mov	 eax, DWORD PTR [esi]
  0011b	56		 push	 esi
  0011c	ff 50 08	 call	 DWORD PTR [eax+8]
$LN21@OnDrawAfte:
  0011f	8b 4d f4	 mov	 ecx, DWORD PTR __$EHRec$[ebp]
  00122	64 89 0d 00 00
	00 00		 mov	 DWORD PTR fs:0, ecx
  00129	59		 pop	 ecx
  0012a	5f		 pop	 edi
  0012b	5e		 pop	 esi
  0012c	5b		 pop	 ebx
  0012d	8b e5		 mov	 esp, ebp
  0012f	5d		 pop	 ebp
  00130	c2 04 00	 ret	 4
_TEXT	ENDS
;	COMDAT text$x
text$x	SEGMENT
__unwindfunclet$?OnDrawAfterGraph@COrderLinkAddInImp@@MAEXPAUHDC__@@@Z$0:
  00000	8d 4d dc	 lea	 ecx, DWORD PTR _szGraphName$2[ebp]
  00003	e9 00 00 00 00	 jmp	 ??1ILPCSTR000000@@QAE@XZ ; ILPCSTR000000::~ILPCSTR000000
  00008	cc		 int	 3
  00009	cc		 int	 3
  0000a	cc		 int	 3
  0000b	cc		 int	 3
  0000c	cc		 int	 3
__ehhandler$?OnDrawAfterGraph@COrderLinkAddInImp@@MAEXPAUHDC__@@@Z:
  0000d	90		 npad	 1
  0000e	90		 npad	 1
  0000f	8b 54 24 08	 mov	 edx, DWORD PTR [esp+8]
  00013	8d 42 0c	 lea	 eax, DWORD PTR [edx+12]
  00016	8b 4a d8	 mov	 ecx, DWORD PTR [edx-40]
  00019	33 c8		 xor	 ecx, eax
  0001b	e8 00 00 00 00	 call	 @__security_check_cookie@4
  00020	b8 00 00 00 00	 mov	 eax, OFFSET __ehfuncinfo$?OnDrawAfterGraph@COrderLinkAddInImp@@MAEXPAUHDC__@@@Z
  00025	e9 00 00 00 00	 jmp	 ___CxxFrameHandler3
text$x	ENDS
?OnDrawAfterGraph@COrderLinkAddInImp@@MAEXPAUHDC__@@@Z ENDP ; COrderLinkAddInImp::OnDrawAfterGraph
; Function compile flags: /Ogtp
; File D:\git\src\IBK\IBK_DRFN\ProjSrc\SrcChartEx\ChartOCX\AddInManager\ChartCommonAddIn\OrderLinkAddInImp.cpp
;	COMDAT ?OnPacketDataMultiItem@COrderLinkAddInImp@@MAEXPBD0H@Z
_TEXT	SEGMENT
_lpszRQ$ = 8						; size = 4
_p_szPacketNames$ = 12					; size = 4
_p_bWithReset$ = 16					; size = 4
?OnPacketDataMultiItem@COrderLinkAddInImp@@MAEXPBD0H@Z PROC ; COrderLinkAddInImp::OnPacketDataMultiItem, COMDAT
; _this$ = ecx

; 237  : {

  00000	55		 push	 ebp
  00001	8b ec		 mov	 ebp, esp

; 240  : }

  00003	5d		 pop	 ebp

; 238  : 	// 0.  Base  Message  .
; 239  : 	CBoundMarkerAddInImp::OnPacketDataMultiItem(lpszRQ, p_szPacketNames, p_bWithReset);

  00004	e9 00 00 00 00	 jmp	 ?OnPacketDataMultiItem@CBoundMarkerAddInImp@@MAEXPBD0H@Z ; CBoundMarkerAddInImp::OnPacketDataMultiItem
?OnPacketDataMultiItem@COrderLinkAddInImp@@MAEXPBD0H@Z ENDP ; COrderLinkAddInImp::OnPacketDataMultiItem
_TEXT	ENDS
; Function compile flags: /Ogtp
; File D:\git\src\IBK\IBK_DRFN\ProjSrc\SrcChartEx\ChartOCX\AddInManager\ChartCommonAddIn\OrderLinkAddInImp.cpp
; File C:\Program Files (x86)\Microsoft Visual Studio\2019\Community\VC\Tools\MSVC\14.29.30133\atlmfc\include\atltypes.h
; File D:\git\src\IBK\IBK_DRFN\ProjSrc\SrcChartEx\ChartOCX\AddInManager\ChartCommonAddIn\OrderLinkAddInImp.cpp
; File C:\Program Files (x86)\Microsoft Visual Studio\2019\Community\VC\Tools\MSVC\14.29.30133\atlmfc\include\atltypes.h
; File D:\git\src\IBK\IBK_DRFN\ProjSrc\SrcChartEx\ChartOCX\AddInManager\ChartCommonAddIn\OrderLinkAddInImp.cpp
; File C:\Program Files (x86)\Microsoft Visual Studio\2019\Community\VC\Tools\MSVC\14.29.30133\atlmfc\include\atltypes.h
; File D:\git\src\IBK\IBK_DRFN\ProjSrc\SrcChartEx\ChartOCX\AddInManager\ChartCommonAddIn\OrderLinkAddInImp.cpp
;	COMDAT ?OnDrawBeforeGraph@COrderLinkAddInImp@@MAEXPAUHDC__@@@Z
_TEXT	SEGMENT
_p_hDC$ = 8						; size = 4
?OnDrawBeforeGraph@COrderLinkAddInImp@@MAEXPAUHDC__@@@Z PROC ; COrderLinkAddInImp::OnDrawBeforeGraph, COMDAT
; _this$ = ecx

; 224  : {

  00000	55		 push	 ebp
  00001	8b ec		 mov	 ebp, esp
  00003	56		 push	 esi
  00004	8b f1		 mov	 esi, ecx

; 225  : 	if( !m_bRun )	return;

  00006	80 be b0 00 00
	00 00		 cmp	 BYTE PTR [esi+176], 0
  0000d	74 20		 je	 SHORT $LN1@OnDrawBefo

; 226  : 
; 227  : 	// 0.  Base Drawing .
; 228  : 	CBoundMarkerAddInImp::OnDrawBeforeGraph( p_hDC);

  0000f	ff 75 08	 push	 DWORD PTR _p_hDC$[ebp]
  00012	e8 00 00 00 00	 call	 ?OnDrawBeforeGraph@CBoundMarkerAddInImp@@MAEXPAUHDC__@@@Z ; CBoundMarkerAddInImp::OnDrawBeforeGraph

; 231  : 	m_rctAskingPriceMark = m_rctBoundMark;

  00017	0f 10 46 64	 movups	 xmm0, XMMWORD PTR [esi+100]
; File C:\Program Files (x86)\Microsoft Visual Studio\2019\Community\VC\Tools\MSVC\14.29.30133\atlmfc\include\atltypes.h

; 686  : 	::InflateRect(this, x, y);

  0001b	6a 00		 push	 0
; File D:\git\src\IBK\IBK_DRFN\ProjSrc\SrcChartEx\ChartOCX\AddInManager\ChartCommonAddIn\OrderLinkAddInImp.cpp

; 231  : 	m_rctAskingPriceMark = m_rctBoundMark;

  0001d	8d 86 bc 00 00
	00		 lea	 eax, DWORD PTR [esi+188]
; File C:\Program Files (x86)\Microsoft Visual Studio\2019\Community\VC\Tools\MSVC\14.29.30133\atlmfc\include\atltypes.h

; 686  : 	::InflateRect(this, x, y);

  00023	6a 02		 push	 2
  00025	50		 push	 eax
; File D:\git\src\IBK\IBK_DRFN\ProjSrc\SrcChartEx\ChartOCX\AddInManager\ChartCommonAddIn\OrderLinkAddInImp.cpp

; 231  : 	m_rctAskingPriceMark = m_rctBoundMark;

  00026	0f 11 00	 movups	 XMMWORD PTR [eax], xmm0
; File C:\Program Files (x86)\Microsoft Visual Studio\2019\Community\VC\Tools\MSVC\14.29.30133\atlmfc\include\atltypes.h

; 686  : 	::InflateRect(this, x, y);

  00029	ff 15 00 00 00
	00		 call	 DWORD PTR __imp__InflateRect@12
$LN1@OnDrawBefo:
  0002f	5e		 pop	 esi
; File D:\git\src\IBK\IBK_DRFN\ProjSrc\SrcChartEx\ChartOCX\AddInManager\ChartCommonAddIn\OrderLinkAddInImp.cpp

; 233  : }

  00030	5d		 pop	 ebp
  00031	c2 04 00	 ret	 4
?OnDrawBeforeGraph@COrderLinkAddInImp@@MAEXPAUHDC__@@@Z ENDP ; COrderLinkAddInImp::OnDrawBeforeGraph
_TEXT	ENDS
; Function compile flags: /Ogtp
; File D:\git\src\IBK\IBK_DRFN\ProjSrc\SrcChartEx\ChartOCX\AddInManager\ChartCommonAddIn\OrderLinkAddInImp.cpp
;	COMDAT ?OnResetChart@COrderLinkAddInImp@@MAEXXZ
_TEXT	SEGMENT
?OnResetChart@COrderLinkAddInImp@@MAEXXZ PROC		; COrderLinkAddInImp::OnResetChart, COMDAT
; _this$ = ecx

; 218  : 	// (2005/9/29 - Seung-Won, Bae) Reset BoundMark Flag
; 219  : 	OnAddInToolCommand( EAI_CUSTOM_ENABLE_BOUNDMARK, TRUE);

  00000	8b 01		 mov	 eax, DWORD PTR [ecx]
  00002	6a 01		 push	 1
  00004	6a 09		 push	 9
  00006	ff 90 dc 00 00
	00		 call	 DWORD PTR [eax+220]

; 220  : }

  0000c	c3		 ret	 0
?OnResetChart@COrderLinkAddInImp@@MAEXXZ ENDP		; COrderLinkAddInImp::OnResetChart
_TEXT	ENDS
; Function compile flags: /Ogtp
; File D:\git\src\IBK\IBK_DRFN\ProjSrc\SrcChartEx\ChartOCX\AddInManager\ChartCommonAddIn\OrderLinkAddInImp.cpp
; File C:\Program Files (x86)\Microsoft Visual Studio\2019\Community\VC\Tools\MSVC\14.29.30133\atlmfc\include\atlsimpstr.h
; File D:\git\src\IBK\IBK_DRFN\ProjSrc\SrcChartEx\ChartOCX\AddInManager\ChartCommonAddIn\OrderLinkAddInImp.cpp
; File C:\Program Files (x86)\Microsoft Visual Studio\2019\Community\VC\Tools\MSVC\14.29.30133\atlmfc\include\atlsimpstr.h
; File D:\git\src\IBK\IBK_DRFN\ProjSrc\SrcChartEx\ChartOCX\AddInManager\ChartCommonAddIn\OrderLinkAddInImp.cpp
; File C:\Program Files (x86)\Microsoft Visual Studio\2019\Community\VC\Tools\MSVC\14.29.30133\atlmfc\include\atlsimpstr.h
; File D:\git\src\IBK\IBK_DRFN\ProjSrc\SrcChartEx\ChartOCX\AddInManager\ChartCommonAddIn\OrderLinkAddInImp.cpp
; File C:\Program Files (x86)\Windows Kits\10\Include\10.0.22000.0\ucrt\string.h
; File D:\git\src\IBK\IBK_DRFN\ProjSrc\SrcChartEx\ChartOCX\AddInManager\ChartCommonAddIn\OrderLinkAddInImp.cpp
; File C:\Program Files (x86)\Windows Kits\10\Include\10.0.22000.0\ucrt\string.h
; File D:\git\src\IBK\IBK_DRFN\ProjSrc\SrcChartEx\ChartOCX\AddInManager\ChartCommonAddIn\OrderLinkAddInImp.cpp
; File C:\Program Files (x86)\Windows Kits\10\Include\10.0.22000.0\ucrt\string.h
; File D:\git\src\IBK\IBK_DRFN\ProjSrc\SrcChartEx\ChartOCX\AddInManager\ChartCommonAddIn\OrderLinkAddInImp.cpp
; File C:\Program Files (x86)\Windows Kits\10\Include\10.0.22000.0\ucrt\string.h
; File D:\git\src\IBK\IBK_DRFN\ProjSrc\SrcChartEx\ChartOCX\AddInManager\ChartCommonAddIn\OrderLinkAddInImp.cpp
; File C:\Program Files (x86)\Windows Kits\10\Include\10.0.22000.0\ucrt\string.h
; File D:\git\src\IBK\IBK_DRFN\ProjSrc\SrcChartEx\ChartOCX\AddInManager\ChartCommonAddIn\OrderLinkAddInImp.cpp
; File C:\Program Files (x86)\Windows Kits\10\Include\10.0.22000.0\ucrt\string.h
; File D:\git\src\IBK\IBK_DRFN\ProjSrc\SrcChartEx\ChartOCX\AddInManager\ChartCommonAddIn\OrderLinkAddInImp.cpp
; File C:\Program Files (x86)\Windows Kits\10\Include\10.0.22000.0\ucrt\string.h
; File D:\git\src\IBK\IBK_DRFN\ProjSrc\SrcChartEx\ChartOCX\AddInManager\ChartCommonAddIn\OrderLinkAddInImp.cpp
; File C:\Program Files (x86)\Windows Kits\10\Include\10.0.22000.0\ucrt\string.h
; File D:\git\src\IBK\IBK_DRFN\ProjSrc\SrcChartEx\ChartOCX\AddInManager\ChartCommonAddIn\OrderLinkAddInImp.cpp
; File C:\Program Files (x86)\Windows Kits\10\Include\10.0.22000.0\ucrt\string.h
; File D:\git\src\IBK\IBK_DRFN\ProjSrc\SrcChartEx\ChartOCX\AddInManager\ChartCommonAddIn\OrderLinkAddInImp.cpp
; File D:\git\src\IBK\IBK_DRFN\ProjSrc\SrcChartEx\ChartOCX\AddInManager\Include_AddIn\I000000\_IString.h
; File D:\git\src\IBK\IBK_DRFN\ProjSrc\SrcChartEx\ChartOCX\AddInManager\ChartCommonAddIn\OrderLinkAddInImp.cpp
; File D:\git\src\IBK\IBK_DRFN\ProjSrc\SrcChartEx\ChartOCX\AddInManager\Include_AddIn\I000000\_IString.h
; File D:\git\src\IBK\IBK_DRFN\ProjSrc\SrcChartEx\ChartOCX\AddInManager\ChartCommonAddIn\OrderLinkAddInImp.cpp
;	COMDAT ?ResetBound@COrderLinkAddInImp@@MAEXPBD@Z
_TEXT	SEGMENT
_szPacketName$ = -28					; size = 8
_szYClosePrice$1$ = -20					; size = 4
_szMarketType$1$ = -20					; size = 4
$T2 = -20						; size = 4
_strMsg$ = -16						; size = 4
__$EHRec$ = -12						; size = 12
_strPacketName$ = 8					; size = 4
_p_szBound$ = 8						; size = 4
?ResetBound@COrderLinkAddInImp@@MAEXPBD@Z PROC		; COrderLinkAddInImp::ResetBound, COMDAT
; _this$ = ecx

; 83   : {

  00000	55		 push	 ebp
  00001	8b ec		 mov	 ebp, esp
  00003	6a ff		 push	 -1
  00005	68 00 00 00 00	 push	 __ehhandler$?ResetBound@COrderLinkAddInImp@@MAEXPBD@Z
  0000a	64 a1 00 00 00
	00		 mov	 eax, DWORD PTR fs:0
  00010	50		 push	 eax
  00011	83 ec 10	 sub	 esp, 16			; 00000010H
  00014	53		 push	 ebx
  00015	56		 push	 esi
  00016	57		 push	 edi
  00017	a1 00 00 00 00	 mov	 eax, DWORD PTR ___security_cookie
  0001c	33 c5		 xor	 eax, ebp
  0001e	50		 push	 eax
  0001f	8d 45 f4	 lea	 eax, DWORD PTR __$EHRec$[ebp]
  00022	64 a3 00 00 00
	00		 mov	 DWORD PTR fs:0, eax
  00028	8b f9		 mov	 edi, ecx

; 84   : 	// 0.  Base Bound Info  .
; 85   : 	CBoundMarkerAddInImp::ResetBound( p_szBound);

  0002a	ff 75 08	 push	 DWORD PTR _p_szBound$[ebp]
  0002d	e8 00 00 00 00	 call	 ?ResetBound@CBoundMarkerAddInImp@@MAEXPBD@Z ; CBoundMarkerAddInImp::ResetBound

; 86   : 
; 87   : 	// 0.5     Item Code Clear.
; 88   : 	m_strItemCode.Empty();

  00032	8d 8f 34 01 00
	00		 lea	 ecx, DWORD PTR [edi+308]
  00038	ff 15 00 00 00
	00		 call	 DWORD PTR __imp_?Empty@?$CSimpleStringT@D$00@ATL@@QAEXXZ

; 89   : 
; 90   : 	// 0.6 Packet Packet Unit Value (Precision) .
; 91   : 	IPacketManager *pIPacketManager = m_pIPacketListManager->GetPacketManager( m_strRQ);

  0003e	8b 4f 1c	 mov	 ecx, DWORD PTR [edi+28]
  00041	ff b7 44 01 00
	00		 push	 DWORD PTR [edi+324]
  00047	8b 01		 mov	 eax, DWORD PTR [ecx]
  00049	ff 50 10	 call	 DWORD PTR [eax+16]
  0004c	8b d8		 mov	 ebx, eax

; 92   : 	if( pIPacketManager)

  0004e	85 db		 test	 ebx, ebx
  00050	74 3d		 je	 SHORT $LN2@ResetBound

; 93   : 	{
; 94   : 		IPacket *pIPacket = m_pIDefaultPacketManager->GetPacket( _MTEXT( C0_CLOSE));

  00052	8b 4f 20	 mov	 ecx, DWORD PTR [edi+32]
  00055	8b 15 54 00 00
	00		 mov	 edx, DWORD PTR ?g_iMetaTable@@3VIMetaTable@@A+84
  0005b	8b 31		 mov	 esi, DWORD PTR [ecx]
  0005d	ff 72 14	 push	 DWORD PTR [edx+20]
  00060	ff 56 10	 call	 DWORD PTR [esi+16]
  00063	8b f0		 mov	 esi, eax
  00065	0f 57 c0	 xorps	 xmm0, xmm0

; 95   : 		// 0.6 Packet Packet Unit Value (Precision) .
; 96   : 		m_dPacketUnitValue = 0;

  00068	f2 0f 11 87 38
	01 00 00	 movsd	 QWORD PTR [edi+312], xmm0

; 97   : 		if( pIPacket)

  00070	85 f6		 test	 esi, esi
  00072	74 15		 je	 SHORT $LN3@ResetBound

; 98   : 		{
; 99   : 			m_dPacketUnitValue = pIPacket->GetPacketTypeUnitValue();

  00074	8b 16		 mov	 edx, DWORD PTR [esi]
  00076	8b ce		 mov	 ecx, esi
  00078	8b 52 10	 mov	 edx, DWORD PTR [edx+16]
  0007b	ff d2		 call	 edx
  0007d	dd 9f 38 01 00
	00		 fstp	 QWORD PTR [edi+312]

; 100  : 			pIPacket->Release();

  00083	8b 06		 mov	 eax, DWORD PTR [esi]
  00085	56		 push	 esi
  00086	ff 50 08	 call	 DWORD PTR [eax+8]
$LN3@ResetBound:

; 101  : 		}
; 102  : 		pIPacketManager->Release();

  00089	8b 03		 mov	 eax, DWORD PTR [ebx]
  0008b	53		 push	 ebx
  0008c	ff 50 08	 call	 DWORD PTR [eax+8]
$LN2@ResetBound:
; File C:\Program Files (x86)\Microsoft Visual Studio\2019\Community\VC\Tools\MSVC\14.29.30133\atlmfc\include\atlsimpstr.h

; 519  : 		return( GetData()->nDataLength );

  0008f	8b 47 58	 mov	 eax, DWORD PTR [edi+88]

; 533  : 		return( GetLength() == 0 );

  00092	83 78 f4 00	 cmp	 DWORD PTR [eax-12], 0
; File D:\git\src\IBK\IBK_DRFN\ProjSrc\SrcChartEx\ChartOCX\AddInManager\ChartCommonAddIn\OrderLinkAddInImp.cpp

; 106  : 	if( m_strIndicatorName.IsEmpty()) return;

  00096	0f 84 91 01 00
	00		 je	 $LN1@ResetBound

; 107  : 
; 108  : 	// (2004.11.01, ) ,     .
; 109  : 	// 2.1 Buffer .
; 110  : 	CString strMsg;

  0009c	8d 4d f0	 lea	 ecx, DWORD PTR _strMsg$[ebp]
  0009f	ff 15 00 00 00
	00		 call	 DWORD PTR __imp_??0?$CStringT@DV?$StrTraitMFC_DLL@DV?$ChTraitsCRT@D@ATL@@@@@ATL@@QAE@XZ
; File C:\Program Files (x86)\Microsoft Visual Studio\2019\Community\VC\Tools\MSVC\14.29.30133\atlmfc\include\atlsimpstr.h

; 519  : 		return( GetData()->nDataLength );

  000a5	8b 87 b0 00 00
	00		 mov	 eax, DWORD PTR [edi+176]
; File D:\git\src\IBK\IBK_DRFN\ProjSrc\SrcChartEx\ChartOCX\AddInManager\ChartCommonAddIn\OrderLinkAddInImp.cpp

; 111  : 	char *szBuffer = strMsg.GetBuffer( m_strExtMsg.GetLength());

  000ab	8d 4d f0	 lea	 ecx, DWORD PTR _strMsg$[ebp]
  000ae	c7 45 fc 00 00
	00 00		 mov	 DWORD PTR __$EHRec$[ebp+8], 0
  000b5	ff 70 f4	 push	 DWORD PTR [eax-12]
  000b8	ff 15 00 00 00
	00		 call	 DWORD PTR __imp_?GetBuffer@?$CSimpleStringT@D$00@ATL@@QAEPADH@Z
; File C:\Program Files (x86)\Microsoft Visual Studio\2019\Community\VC\Tools\MSVC\14.29.30133\atlmfc\include\atlsimpstr.h

; 377  : 		return( m_pszData );

  000be	8b 97 b0 00 00
	00		 mov	 edx, DWORD PTR [edi+176]
; File D:\git\src\IBK\IBK_DRFN\ProjSrc\SrcChartEx\ChartOCX\AddInManager\ChartCommonAddIn\OrderLinkAddInImp.cpp

; 111  : 	char *szBuffer = strMsg.GetBuffer( m_strExtMsg.GetLength());

  000c4	8b d8		 mov	 ebx, eax

; 112  : 	strcpy( szBuffer, m_strExtMsg);

  000c6	8b f3		 mov	 esi, ebx
$LL14@ResetBound:
  000c8	8a 0a		 mov	 cl, BYTE PTR [edx]
  000ca	8d 52 01	 lea	 edx, DWORD PTR [edx+1]
  000cd	88 0e		 mov	 BYTE PTR [esi], cl
  000cf	8d 76 01	 lea	 esi, DWORD PTR [esi+1]
  000d2	84 c9		 test	 cl, cl
  000d4	75 f2		 jne	 SHORT $LL14@ResetBound
; File C:\Program Files (x86)\Windows Kits\10\Include\10.0.22000.0\ucrt\string.h

; 502  :         return const_cast<char*>(strchr(static_cast<char const*>(_String), _Ch));

  000d6	6a 3a		 push	 58			; 0000003aH
  000d8	53		 push	 ebx
  000d9	e8 00 00 00 00	 call	 _strchr
; File D:\git\src\IBK\IBK_DRFN\ProjSrc\SrcChartEx\ChartOCX\AddInManager\ChartCommonAddIn\OrderLinkAddInImp.cpp

; 115  : 	szBuffer = strchr( szBuffer, ':');

  000de	8b f0		 mov	 esi, eax
; File C:\Program Files (x86)\Windows Kits\10\Include\10.0.22000.0\ucrt\string.h

; 502  :         return const_cast<char*>(strchr(static_cast<char const*>(_String), _Ch));

  000e0	83 c4 08	 add	 esp, 8
; File D:\git\src\IBK\IBK_DRFN\ProjSrc\SrcChartEx\ChartOCX\AddInManager\ChartCommonAddIn\OrderLinkAddInImp.cpp

; 116  : 	if( szBuffer) *szBuffer++ = '\0';

  000e3	85 f6		 test	 esi, esi
  000e5	74 04		 je	 SHORT $LN5@ResetBound
  000e7	c6 06 00	 mov	 BYTE PTR [esi], 0
  000ea	46		 inc	 esi
$LN5@ResetBound:

; 117  : 	m_strItemCode = szItemCode;

  000eb	53		 push	 ebx
  000ec	8d 8f 34 01 00
	00		 lea	 ecx, DWORD PTR [edi+308]
  000f2	ff 15 00 00 00
	00		 call	 DWORD PTR __imp_??4?$CStringT@DV?$StrTraitMFC_DLL@DV?$ChTraitsCRT@D@ATL@@@@@ATL@@QAEAAV01@PBD@Z

; 118  : 	// (2004.11.01, )  RTime . Server  7  .
; 119  : 	m_strItemCode.TrimRight();

  000f8	8d 8f 34 01 00
	00		 lea	 ecx, DWORD PTR [edi+308]
  000fe	ff 15 00 00 00
	00		 call	 DWORD PTR __imp_?TrimRight@?$CStringT@DV?$StrTraitMFC_DLL@DV?$ChTraitsCRT@D@ATL@@@@@ATL@@QAEAAV12@XZ

; 120  : 	// 2.3  .
; 121  : 	m_nMarketType = -1;
; 122  : 	if( szBuffer)

  00104	8b 1d 00 00 00
	00		 mov	 ebx, DWORD PTR __imp__atol
  0010a	c7 87 48 01 00
	00 ff ff ff ff	 mov	 DWORD PTR [edi+328], -1
  00114	85 f6		 test	 esi, esi
  00116	74 26		 je	 SHORT $LN6@ResetBound
; File C:\Program Files (x86)\Windows Kits\10\Include\10.0.22000.0\ucrt\string.h

; 502  :         return const_cast<char*>(strchr(static_cast<char const*>(_String), _Ch));

  00118	6a 3a		 push	 58			; 0000003aH
  0011a	56		 push	 esi
; File D:\git\src\IBK\IBK_DRFN\ProjSrc\SrcChartEx\ChartOCX\AddInManager\ChartCommonAddIn\OrderLinkAddInImp.cpp

; 124  : 		char *szMarketType = szBuffer;

  0011b	89 75 ec	 mov	 DWORD PTR _szMarketType$1$[ebp], esi
; File C:\Program Files (x86)\Windows Kits\10\Include\10.0.22000.0\ucrt\string.h

; 502  :         return const_cast<char*>(strchr(static_cast<char const*>(_String), _Ch));

  0011e	e8 00 00 00 00	 call	 _strchr
; File D:\git\src\IBK\IBK_DRFN\ProjSrc\SrcChartEx\ChartOCX\AddInManager\ChartCommonAddIn\OrderLinkAddInImp.cpp

; 125  : 		szBuffer = strchr( szBuffer, ':');

  00123	8b f0		 mov	 esi, eax
; File C:\Program Files (x86)\Windows Kits\10\Include\10.0.22000.0\ucrt\string.h

; 502  :         return const_cast<char*>(strchr(static_cast<char const*>(_String), _Ch));

  00125	83 c4 08	 add	 esp, 8
; File D:\git\src\IBK\IBK_DRFN\ProjSrc\SrcChartEx\ChartOCX\AddInManager\ChartCommonAddIn\OrderLinkAddInImp.cpp

; 126  : 		if( szBuffer) *szBuffer++ = '\0';

  00128	85 f6		 test	 esi, esi
  0012a	74 04		 je	 SHORT $LN7@ResetBound
  0012c	c6 06 00	 mov	 BYTE PTR [esi], 0
  0012f	46		 inc	 esi
$LN7@ResetBound:

; 127  : 		m_nMarketType = atol( szMarketType);

  00130	ff 75 ec	 push	 DWORD PTR _szMarketType$1$[ebp]
  00133	ff d3		 call	 ebx
  00135	83 c4 04	 add	 esp, 4
  00138	89 87 48 01 00
	00		 mov	 DWORD PTR [edi+328], eax
$LN6@ResetBound:

; 128  : 	}
; 129  : 	// 2.4  .
; 130  : 	m_dYClosePrice = 0;

  0013e	0f 57 c0	 xorps	 xmm0, xmm0
  00141	f2 0f 11 87 50
	01 00 00	 movsd	 QWORD PTR [edi+336], xmm0

; 131  : 	if( szBuffer)

  00149	85 f6		 test	 esi, esi
  0014b	74 2a		 je	 SHORT $LN8@ResetBound
; File C:\Program Files (x86)\Windows Kits\10\Include\10.0.22000.0\ucrt\string.h

; 502  :         return const_cast<char*>(strchr(static_cast<char const*>(_String), _Ch));

  0014d	6a 3a		 push	 58			; 0000003aH
  0014f	56		 push	 esi
; File D:\git\src\IBK\IBK_DRFN\ProjSrc\SrcChartEx\ChartOCX\AddInManager\ChartCommonAddIn\OrderLinkAddInImp.cpp

; 133  : 		char *szYClosePrice = szBuffer;

  00150	89 75 ec	 mov	 DWORD PTR _szYClosePrice$1$[ebp], esi
; File C:\Program Files (x86)\Windows Kits\10\Include\10.0.22000.0\ucrt\string.h

; 502  :         return const_cast<char*>(strchr(static_cast<char const*>(_String), _Ch));

  00153	e8 00 00 00 00	 call	 _strchr
; File D:\git\src\IBK\IBK_DRFN\ProjSrc\SrcChartEx\ChartOCX\AddInManager\ChartCommonAddIn\OrderLinkAddInImp.cpp

; 134  : 		szBuffer = strchr( szBuffer, ':');

  00158	8b f0		 mov	 esi, eax
; File C:\Program Files (x86)\Windows Kits\10\Include\10.0.22000.0\ucrt\string.h

; 502  :         return const_cast<char*>(strchr(static_cast<char const*>(_String), _Ch));

  0015a	83 c4 08	 add	 esp, 8
; File D:\git\src\IBK\IBK_DRFN\ProjSrc\SrcChartEx\ChartOCX\AddInManager\ChartCommonAddIn\OrderLinkAddInImp.cpp

; 135  : 		if( szBuffer) *szBuffer++ = '\0';

  0015d	85 f6		 test	 esi, esi
  0015f	74 04		 je	 SHORT $LN9@ResetBound
  00161	c6 06 00	 mov	 BYTE PTR [esi], 0
  00164	46		 inc	 esi
$LN9@ResetBound:

; 136  : 		m_dYClosePrice = atof( szYClosePrice);

  00165	ff 75 ec	 push	 DWORD PTR _szYClosePrice$1$[ebp]
  00168	ff 15 00 00 00
	00		 call	 DWORD PTR __imp__atof
  0016e	dd 9f 50 01 00
	00		 fstp	 QWORD PTR [edi+336]
  00174	83 c4 04	 add	 esp, 4
$LN8@ResetBound:

; 137  : 	}
; 138  : 	// (2004.11.02, ) ()  Flag  .
; 139  : 	m_nRatioByYCP = 0;

  00177	c7 87 4c 01 00
	00 00 00 00 00	 mov	 DWORD PTR [edi+332], 0

; 140  : 	if( szBuffer)

  00181	85 f6		 test	 esi, esi
  00183	74 1e		 je	 SHORT $LN10@ResetBound
; File C:\Program Files (x86)\Windows Kits\10\Include\10.0.22000.0\ucrt\string.h

; 502  :         return const_cast<char*>(strchr(static_cast<char const*>(_String), _Ch));

  00185	6a 3a		 push	 58			; 0000003aH
  00187	56		 push	 esi
  00188	e8 00 00 00 00	 call	 _strchr
  0018d	83 c4 08	 add	 esp, 8
; File D:\git\src\IBK\IBK_DRFN\ProjSrc\SrcChartEx\ChartOCX\AddInManager\ChartCommonAddIn\OrderLinkAddInImp.cpp

; 144  : 		if( szBuffer) *szBuffer++ = '\0';

  00190	85 c0		 test	 eax, eax
  00192	74 03		 je	 SHORT $LN11@ResetBound
  00194	c6 00 00	 mov	 BYTE PTR [eax], 0
$LN11@ResetBound:

; 145  : 		m_nRatioByYCP = atol( szRatioByYCP);

  00197	56		 push	 esi
  00198	ff d3		 call	 ebx
  0019a	83 c4 04	 add	 esp, 4
  0019d	89 87 4c 01 00
	00		 mov	 DWORD PTR [edi+332], eax
$LN10@ResetBound:

; 151  : 	ILPCSTR szPacketName = m_pIChartManager->GetPacketNameStringOfGraph( m_strIndicatorName);

  001a3	8b 4f 24	 mov	 ecx, DWORD PTR [edi+36]
  001a6	ff 77 58	 push	 DWORD PTR [edi+88]
  001a9	8b 01		 mov	 eax, DWORD PTR [ecx]
  001ab	ff 50 5c	 call	 DWORD PTR [eax+92]
; File D:\git\src\IBK\IBK_DRFN\ProjSrc\SrcChartEx\ChartOCX\AddInManager\Include_AddIn\I000000\_IString.h

; 39   : 		m_pIStrData = p_pIString;	// Do not AddRef(). Because It must be Return Value.

  001ae	8b f0		 mov	 esi, eax
  001b0	89 75 e8	 mov	 DWORD PTR _szPacketName$[ebp+4], esi

; 40   : 		if( m_pIStrData) m_szData = m_pIStrData->GetData();

  001b3	85 f6		 test	 esi, esi
  001b5	74 09		 je	 SHORT $LN44@ResetBound
  001b7	8b 16		 mov	 edx, DWORD PTR [esi]
  001b9	8b ce		 mov	 ecx, esi
  001bb	ff 52 10	 call	 DWORD PTR [edx+16]
  001be	eb 02		 jmp	 SHORT $LN55@ResetBound
$LN44@ResetBound:

; 41   : 		else m_szData = NULL;

  001c0	33 c0		 xor	 eax, eax
$LN55@ResetBound:
; File D:\git\src\IBK\IBK_DRFN\ProjSrc\SrcChartEx\ChartOCX\AddInManager\ChartCommonAddIn\OrderLinkAddInImp.cpp

; 151  : 	ILPCSTR szPacketName = m_pIChartManager->GetPacketNameStringOfGraph( m_strIndicatorName);

  001c2	89 45 e4	 mov	 DWORD PTR _szPacketName$[ebp], eax

; 152  : 	CString strPacketName( szPacketName);

  001c5	50		 push	 eax
  001c6	8d 4d 08	 lea	 ecx, DWORD PTR _strPacketName$[ebp]
  001c9	c6 45 fc 01	 mov	 BYTE PTR __$EHRec$[ebp+8], 1
  001cd	ff 15 00 00 00
	00		 call	 DWORD PTR __imp_??0?$CStringT@DV?$StrTraitMFC_DLL@DV?$ChTraitsCRT@D@ATL@@@@@ATL@@QAE@PBD@Z

; 153  : 	int nNextPacketIndex = strPacketName.Find( ',');

  001d3	6a 00		 push	 0
  001d5	6a 2c		 push	 44			; 0000002cH
  001d7	8d 4d 08	 lea	 ecx, DWORD PTR _strPacketName$[ebp]
  001da	c6 45 fc 02	 mov	 BYTE PTR __$EHRec$[ebp+8], 2
  001de	ff 15 00 00 00
	00		 call	 DWORD PTR __imp_?Find@?$CStringT@DV?$StrTraitMFC_DLL@DV?$ChTraitsCRT@D@ATL@@@@@ATL@@QBEHDH@Z

; 154  : 	if( 0 < nNextPacketIndex) strPacketName = strPacketName.Left( nNextPacketIndex);

  001e4	85 c0		 test	 eax, eax
  001e6	7e 25		 jle	 SHORT $LN12@ResetBound
  001e8	50		 push	 eax
  001e9	8d 45 ec	 lea	 eax, DWORD PTR $T2[ebp]
  001ec	50		 push	 eax
  001ed	8d 4d 08	 lea	 ecx, DWORD PTR _strPacketName$[ebp]
  001f0	ff 15 00 00 00
	00		 call	 DWORD PTR __imp_?Left@?$CStringT@DV?$StrTraitMFC_DLL@DV?$ChTraitsCRT@D@ATL@@@@@ATL@@QBE?AV12@H@Z
  001f6	50		 push	 eax
  001f7	8d 4d 08	 lea	 ecx, DWORD PTR _strPacketName$[ebp]
  001fa	c6 45 fc 03	 mov	 BYTE PTR __$EHRec$[ebp+8], 3
  001fe	ff 15 00 00 00
	00		 call	 DWORD PTR __imp_??4?$CStringT@DV?$StrTraitMFC_DLL@DV?$ChTraitsCRT@D@ATL@@@@@ATL@@QAEAAV01@ABV01@@Z
  00204	8d 4d ec	 lea	 ecx, DWORD PTR $T2[ebp]
  00207	ff 15 00 00 00
	00		 call	 DWORD PTR __imp_??1?$CStringT@DV?$StrTraitMFC_DLL@DV?$ChTraitsCRT@D@ATL@@@@@ATL@@QAE@XZ
$LN12@ResetBound:

; 173  : }

  0020d	8d 4d 08	 lea	 ecx, DWORD PTR _strPacketName$[ebp]
  00210	ff 15 00 00 00
	00		 call	 DWORD PTR __imp_??1?$CStringT@DV?$StrTraitMFC_DLL@DV?$ChTraitsCRT@D@ATL@@@@@ATL@@QAE@XZ
; File D:\git\src\IBK\IBK_DRFN\ProjSrc\SrcChartEx\ChartOCX\AddInManager\Include_AddIn\I000000\_IString.h

; 44   : 	{

  00216	c6 45 fc 04	 mov	 BYTE PTR __$EHRec$[ebp+8], 4

; 45   : 		if( m_pIStrData)

  0021a	85 f6		 test	 esi, esi
  0021c	74 06		 je	 SHORT $LN48@ResetBound

; 46   : 		{
; 47   : 			m_pIStrData->Release();

  0021e	8b 06		 mov	 eax, DWORD PTR [esi]
  00220	56		 push	 esi
  00221	ff 50 08	 call	 DWORD PTR [eax+8]
$LN48@ResetBound:
; File D:\git\src\IBK\IBK_DRFN\ProjSrc\SrcChartEx\ChartOCX\AddInManager\ChartCommonAddIn\OrderLinkAddInImp.cpp

; 173  : }

  00224	8d 4d f0	 lea	 ecx, DWORD PTR _strMsg$[ebp]
  00227	ff 15 00 00 00
	00		 call	 DWORD PTR __imp_??1?$CStringT@DV?$StrTraitMFC_DLL@DV?$ChTraitsCRT@D@ATL@@@@@ATL@@QAE@XZ
$LN1@ResetBound:
  0022d	8b 4d f4	 mov	 ecx, DWORD PTR __$EHRec$[ebp]
  00230	64 89 0d 00 00
	00 00		 mov	 DWORD PTR fs:0, ecx
  00237	59		 pop	 ecx
  00238	5f		 pop	 edi
  00239	5e		 pop	 esi
  0023a	5b		 pop	 ebx
  0023b	8b e5		 mov	 esp, ebp
  0023d	5d		 pop	 ebp
  0023e	c2 04 00	 ret	 4
_TEXT	ENDS
;	COMDAT text$x
text$x	SEGMENT
__unwindfunclet$?ResetBound@COrderLinkAddInImp@@MAEXPBD@Z$0:
  00000	8d 4d f0	 lea	 ecx, DWORD PTR _strMsg$[ebp]
  00003	ff 25 00 00 00
	00		 jmp	 DWORD PTR __imp_??1?$CStringT@DV?$StrTraitMFC_DLL@DV?$ChTraitsCRT@D@ATL@@@@@ATL@@QAE@XZ
__unwindfunclet$?ResetBound@COrderLinkAddInImp@@MAEXPBD@Z$1:
  00009	8d 4d e4	 lea	 ecx, DWORD PTR _szPacketName$[ebp]
  0000c	e9 00 00 00 00	 jmp	 ??1ILPCSTR000000@@QAE@XZ ; ILPCSTR000000::~ILPCSTR000000
__unwindfunclet$?ResetBound@COrderLinkAddInImp@@MAEXPBD@Z$2:
  00011	8d 4d 08	 lea	 ecx, DWORD PTR _strPacketName$[ebp]
  00014	ff 25 00 00 00
	00		 jmp	 DWORD PTR __imp_??1?$CStringT@DV?$StrTraitMFC_DLL@DV?$ChTraitsCRT@D@ATL@@@@@ATL@@QAE@XZ
__unwindfunclet$?ResetBound@COrderLinkAddInImp@@MAEXPBD@Z$3:
  0001a	8d 4d ec	 lea	 ecx, DWORD PTR $T2[ebp]
  0001d	ff 25 00 00 00
	00		 jmp	 DWORD PTR __imp_??1?$CStringT@DV?$StrTraitMFC_DLL@DV?$ChTraitsCRT@D@ATL@@@@@ATL@@QAE@XZ
  00023	cc		 int	 3
  00024	cc		 int	 3
  00025	cc		 int	 3
  00026	cc		 int	 3
  00027	cc		 int	 3
__ehhandler$?ResetBound@COrderLinkAddInImp@@MAEXPBD@Z:
  00028	90		 npad	 1
  00029	90		 npad	 1
  0002a	8b 54 24 08	 mov	 edx, DWORD PTR [esp+8]
  0002e	8d 42 0c	 lea	 eax, DWORD PTR [edx+12]
  00031	8b 4a e0	 mov	 ecx, DWORD PTR [edx-32]
  00034	33 c8		 xor	 ecx, eax
  00036	e8 00 00 00 00	 call	 @__security_check_cookie@4
  0003b	b8 00 00 00 00	 mov	 eax, OFFSET __ehfuncinfo$?ResetBound@COrderLinkAddInImp@@MAEXPBD@Z
  00040	e9 00 00 00 00	 jmp	 ___CxxFrameHandler3
text$x	ENDS
?ResetBound@COrderLinkAddInImp@@MAEXPBD@Z ENDP		; COrderLinkAddInImp::ResetBound
; Function compile flags: /Ogtp
; File D:\git\src\IBK\IBK_DRFN\ProjSrc\SrcChartEx\ChartOCX\AddInManager\ChartCommonAddIn\OrderLinkAddInImp.h
;	COMDAT ?GetRegisteredEventMap@COrderLinkAddInImp@@MBEPBW4EAddInEventType@IChartAddIn000000@@XZ
_TEXT	SEGMENT
?GetRegisteredEventMap@COrderLinkAddInImp@@MBEPBW4EAddInEventType@IChartAddIn000000@@XZ PROC ; COrderLinkAddInImp::GetRegisteredEventMap, COMDAT
; _this$ = ecx

; 23   : 	DECLARE_ADDIN_EVENT_MAP()

  00000	b8 00 00 00 00	 mov	 eax, OFFSET ?m_eRegisteredEventMap@COrderLinkAddInImp@@1QBW4EAddInEventType@IChartAddIn000000@@B ; COrderLinkAddInImp::m_eRegisteredEventMap
  00005	c3		 ret	 0
?GetRegisteredEventMap@COrderLinkAddInImp@@MBEPBW4EAddInEventType@IChartAddIn000000@@XZ ENDP ; COrderLinkAddInImp::GetRegisteredEventMap
_TEXT	ENDS
; Function compile flags: /Ogtp
; File D:\git\src\IBK\IBK_DRFN\ProjSrc\SrcChartEx\ChartOCX\AddInManager\ChartCommonAddIn\OrderLinkAddInImp.cpp
;	COMDAT ??1COrderLinkAddInImp@@UAE@XZ
_TEXT	SEGMENT
??1COrderLinkAddInImp@@UAE@XZ PROC			; COrderLinkAddInImp::~COrderLinkAddInImp, COMDAT
; _this$ = ecx

; 52   : {

  00000	56		 push	 esi
  00001	8b f1		 mov	 esi, ecx

; 53   : }

  00003	8d 8e 44 01 00
	00		 lea	 ecx, DWORD PTR [esi+324]
  00009	c7 06 00 00 00
	00		 mov	 DWORD PTR [esi], OFFSET ??_7COrderLinkAddInImp@@6BCIWUnknown@@@
  0000f	c7 46 08 00 00
	00 00		 mov	 DWORD PTR [esi+8], OFFSET ??_7COrderLinkAddInImp@@6BIChartAddIn000000@@@
  00016	ff 15 00 00 00
	00		 call	 DWORD PTR __imp_??1?$CStringT@DV?$StrTraitMFC_DLL@DV?$ChTraitsCRT@D@ATL@@@@@ATL@@QAE@XZ
  0001c	8d 8e 40 01 00
	00		 lea	 ecx, DWORD PTR [esi+320]
  00022	ff 15 00 00 00
	00		 call	 DWORD PTR __imp_??1?$CStringT@DV?$StrTraitMFC_DLL@DV?$ChTraitsCRT@D@ATL@@@@@ATL@@QAE@XZ
  00028	8d 8e 34 01 00
	00		 lea	 ecx, DWORD PTR [esi+308]
  0002e	ff 15 00 00 00
	00		 call	 DWORD PTR __imp_??1?$CStringT@DV?$StrTraitMFC_DLL@DV?$ChTraitsCRT@D@ATL@@@@@ATL@@QAE@XZ
  00034	8b ce		 mov	 ecx, esi
  00036	5e		 pop	 esi
  00037	e9 00 00 00 00	 jmp	 ??1CBoundMarkerAddInImp@@UAE@XZ ; CBoundMarkerAddInImp::~CBoundMarkerAddInImp
??1COrderLinkAddInImp@@UAE@XZ ENDP			; COrderLinkAddInImp::~COrderLinkAddInImp
_TEXT	ENDS
; Function compile flags: /Ogtp
; File D:\git\src\IBK\IBK_DRFN\ProjSrc\SrcChartEx\ChartOCX\AddInManager\ChartCommonAddIn\OrderLinkAddInImp.cpp
; File C:\Program Files (x86)\Microsoft Visual Studio\2019\Community\VC\Tools\MSVC\14.29.30133\atlmfc\include\atltypes.h
; File D:\git\src\IBK\IBK_DRFN\ProjSrc\SrcChartEx\ChartOCX\AddInManager\ChartCommonAddIn\OrderLinkAddInImp.cpp
;	COMDAT ??0COrderLinkAddInImp@@QAE@PAUIChartOCX000000@@PAUIAddInDllBase@@@Z
_TEXT	SEGMENT
_this$ = -4						; size = 4
_p_pIChartOCX$ = 8					; size = 4
_p_pIAddInDllBase$ = 12					; size = 4
??0COrderLinkAddInImp@@QAE@PAUIChartOCX000000@@PAUIAddInDllBase@@@Z PROC ; COrderLinkAddInImp::COrderLinkAddInImp, COMDAT
; _this$ = ecx

; 30   : {

  00000	55		 push	 ebp
  00001	8b ec		 mov	 ebp, esp
  00003	51		 push	 ecx
  00004	56		 push	 esi
  00005	ff 75 0c	 push	 DWORD PTR _p_pIAddInDllBase$[ebp]
  00008	8b f1		 mov	 esi, ecx
  0000a	ff 75 08	 push	 DWORD PTR _p_pIChartOCX$[ebp]
  0000d	89 75 fc	 mov	 DWORD PTR _this$[ebp], esi
  00010	e8 00 00 00 00	 call	 ??0CBoundMarkerAddInImp@@QAE@PAUIChartOCX000000@@PAUIAddInDllBase@@@Z ; CBoundMarkerAddInImp::CBoundMarkerAddInImp
  00015	c7 06 00 00 00
	00		 mov	 DWORD PTR [esi], OFFSET ??_7COrderLinkAddInImp@@6BCIWUnknown@@@
  0001b	8d 8e 34 01 00
	00		 lea	 ecx, DWORD PTR [esi+308]
  00021	c7 46 08 00 00
	00 00		 mov	 DWORD PTR [esi+8], OFFSET ??_7COrderLinkAddInImp@@6BIChartAddIn000000@@@
; File C:\Program Files (x86)\Microsoft Visual Studio\2019\Community\VC\Tools\MSVC\14.29.30133\atlmfc\include\atltypes.h

; 528  : 	left = 0;

  00028	c7 86 c4 00 00
	00 00 00 00 00	 mov	 DWORD PTR [esi+196], 0

; 529  : 	top = 0;

  00032	c7 86 c8 00 00
	00 00 00 00 00	 mov	 DWORD PTR [esi+200], 0

; 530  : 	right = 0;

  0003c	c7 86 cc 00 00
	00 00 00 00 00	 mov	 DWORD PTR [esi+204], 0

; 531  : 	bottom = 0;

  00046	c7 86 d0 00 00
	00 00 00 00 00	 mov	 DWORD PTR [esi+208], 0

; 528  : 	left = 0;

  00050	c7 86 f8 00 00
	00 00 00 00 00	 mov	 DWORD PTR [esi+248], 0

; 529  : 	top = 0;

  0005a	c7 86 fc 00 00
	00 00 00 00 00	 mov	 DWORD PTR [esi+252], 0

; 530  : 	right = 0;

  00064	c7 86 00 01 00
	00 00 00 00 00	 mov	 DWORD PTR [esi+256], 0

; 531  : 	bottom = 0;

  0006e	c7 86 04 01 00
	00 00 00 00 00	 mov	 DWORD PTR [esi+260], 0

; 528  : 	left = 0;

  00078	c7 86 08 01 00
	00 00 00 00 00	 mov	 DWORD PTR [esi+264], 0

; 529  : 	top = 0;

  00082	c7 86 0c 01 00
	00 00 00 00 00	 mov	 DWORD PTR [esi+268], 0

; 530  : 	right = 0;

  0008c	c7 86 10 01 00
	00 00 00 00 00	 mov	 DWORD PTR [esi+272], 0

; 531  : 	bottom = 0;

  00096	c7 86 14 01 00
	00 00 00 00 00	 mov	 DWORD PTR [esi+276], 0

; 528  : 	left = 0;

  000a0	c7 86 18 01 00
	00 00 00 00 00	 mov	 DWORD PTR [esi+280], 0

; 529  : 	top = 0;

  000aa	c7 86 1c 01 00
	00 00 00 00 00	 mov	 DWORD PTR [esi+284], 0

; 530  : 	right = 0;

  000b4	c7 86 20 01 00
	00 00 00 00 00	 mov	 DWORD PTR [esi+288], 0

; 531  : 	bottom = 0;

  000be	c7 86 24 01 00
	00 00 00 00 00	 mov	 DWORD PTR [esi+292], 0
; File D:\git\src\IBK\IBK_DRFN\ProjSrc\SrcChartEx\ChartOCX\AddInManager\ChartCommonAddIn\OrderLinkAddInImp.cpp

; 30   : {

  000c8	ff 15 00 00 00
	00		 call	 DWORD PTR __imp_??0?$CStringT@DV?$StrTraitMFC_DLL@DV?$ChTraitsCRT@D@ATL@@@@@ATL@@QAE@XZ
  000ce	8d 8e 40 01 00
	00		 lea	 ecx, DWORD PTR [esi+320]
  000d4	ff 15 00 00 00
	00		 call	 DWORD PTR __imp_??0?$CStringT@DV?$StrTraitMFC_DLL@DV?$ChTraitsCRT@D@ATL@@@@@ATL@@QAE@XZ
  000da	8d 8e 44 01 00
	00		 lea	 ecx, DWORD PTR [esi+324]
  000e0	ff 15 00 00 00
	00		 call	 DWORD PTR __imp_??0?$CStringT@DV?$StrTraitMFC_DLL@DV?$ChTraitsCRT@D@ATL@@@@@ATL@@QAE@XZ
  000e6	0f 57 c0	 xorps	 xmm0, xmm0

; 31   : 	// (2004.10.25, )   Member Variable .
; 32   : 	m_bRun						= false;

  000e9	c6 86 b8 00 00
	00 00		 mov	 BYTE PTR [esi+184], 0

; 33   : 	m_nIndicatorPosY			= 0;				// Current Indicator Drawing Position			(IndicatorPosition)

  000f0	c7 86 bc 00 00
	00 00 00 00 00	 mov	 DWORD PTR [esi+188], 0

; 34   : 	m_bOnSetCaprture			= FALSE;			// Indicator Drawing Situation Flag			(SetCaptureFlag)
; 35   : 	m_dIndicatedPrice			= 0.0;				// Indicated Price							(IndicatedPrice)
; 36   : 
; 37   : 	// (2004.10.25, ) SetCapture(),   Cursor ,
; 38   : 	//		ReleaseCapture()   OCX Cursor .
; 39   : 	//		(         .  ...)
; 40   : 	m_hAPCursor = NULL;
; 41   : 
; 42   : 	// (2004.10.26, )  (Precision)   String   .
; 43   : 	m_dPacketUnitValue = 0;
; 44   : 
; 45   : 	// (2004.11.01, )   DLL ,   .
; 46   : 	m_nMarketType	= -1;
; 47   : 	m_nRatioByYCP	= 0;			// (2004.11.02, ) ()  Flag  .
; 48   : 	m_dYClosePrice	= 0;
; 49   : }

  000fa	8b c6		 mov	 eax, esi
  000fc	c7 86 c0 00 00
	00 00 00 00 00	 mov	 DWORD PTR [esi+192], 0
  00106	f2 0f 11 86 d8
	00 00 00	 movsd	 QWORD PTR [esi+216], xmm0
  0010e	c7 86 30 01 00
	00 00 00 00 00	 mov	 DWORD PTR [esi+304], 0
  00118	f2 0f 11 86 38
	01 00 00	 movsd	 QWORD PTR [esi+312], xmm0
  00120	c7 86 48 01 00
	00 ff ff ff ff	 mov	 DWORD PTR [esi+328], -1
  0012a	c7 86 4c 01 00
	00 00 00 00 00	 mov	 DWORD PTR [esi+332], 0
  00134	f2 0f 11 86 50
	01 00 00	 movsd	 QWORD PTR [esi+336], xmm0
  0013c	5e		 pop	 esi
  0013d	8b e5		 mov	 esp, ebp
  0013f	5d		 pop	 ebp
  00140	c2 08 00	 ret	 8
??0COrderLinkAddInImp@@QAE@PAUIChartOCX000000@@PAUIAddInDllBase@@@Z ENDP ; COrderLinkAddInImp::COrderLinkAddInImp
_TEXT	ENDS
; Function compile flags: /Ogtp
; File D:\git\src\IBK\IBK_DRFN\ProjSrc\SrcChartEx\ChartOCX\AddInManager\Include_AddIn\I000000\_ChartAddInBase.h
;	COMDAT ?OnRButtonDblClk@CChartAddInBase000000@@MAEHPAUHDC__@@IAAUtagPOINT@@K@Z
_TEXT	SEGMENT
_p_hDC$ = 8						; size = 4
_nFlags$ = 12						; size = 4
_point$ = 16						; size = 4
_p_dwMouseActionID$ = 20				; size = 4
?OnRButtonDblClk@CChartAddInBase000000@@MAEHPAUHDC__@@IAAUtagPOINT@@K@Z PROC ; CChartAddInBase000000::OnRButtonDblClk, COMDAT
; _this$ = ecx

; 221  : 	virtual BOOL	OnRButtonDblClk(	HDC p_hDC, UINT nFlags, POINT &point, const DWORD p_dwMouseActionID)									{	return FALSE;	}

  00000	33 c0		 xor	 eax, eax
  00002	c2 10 00	 ret	 16			; 00000010H
?OnRButtonDblClk@CChartAddInBase000000@@MAEHPAUHDC__@@IAAUtagPOINT@@K@Z ENDP ; CChartAddInBase000000::OnRButtonDblClk
_TEXT	ENDS
; Function compile flags: /Ogtp
; File D:\git\src\IBK\IBK_DRFN\ProjSrc\SrcChartEx\ChartOCX\AddInManager\Include_AddIn\I000000\_ChartAddInBase.h
;	COMDAT ?OnRButtonUp@CChartAddInBase000000@@MAEHPAUHDC__@@IAAUtagPOINT@@K@Z
_TEXT	SEGMENT
_p_hDC$ = 8						; size = 4
_nFlags$ = 12						; size = 4
_point$ = 16						; size = 4
_p_dwMouseActionID$ = 20				; size = 4
?OnRButtonUp@CChartAddInBase000000@@MAEHPAUHDC__@@IAAUtagPOINT@@K@Z PROC ; CChartAddInBase000000::OnRButtonUp, COMDAT
; _this$ = ecx

; 220  : 	virtual BOOL	OnRButtonUp(		HDC p_hDC, UINT nFlags, POINT &point, const DWORD p_dwMouseActionID)									{	return FALSE;	}

  00000	33 c0		 xor	 eax, eax
  00002	c2 10 00	 ret	 16			; 00000010H
?OnRButtonUp@CChartAddInBase000000@@MAEHPAUHDC__@@IAAUtagPOINT@@K@Z ENDP ; CChartAddInBase000000::OnRButtonUp
_TEXT	ENDS
; Function compile flags: /Ogtp
; File D:\git\src\IBK\IBK_DRFN\ProjSrc\SrcChartEx\ChartOCX\AddInManager\Include_AddIn\I000000\_ChartAddInBase.h
;	COMDAT ?OnRButtonDown@CChartAddInBase000000@@MAEHPAUHDC__@@IAAUtagPOINT@@K@Z
_TEXT	SEGMENT
_p_hDC$ = 8						; size = 4
_nFlags$ = 12						; size = 4
_point$ = 16						; size = 4
_p_dwMouseActionID$ = 20				; size = 4
?OnRButtonDown@CChartAddInBase000000@@MAEHPAUHDC__@@IAAUtagPOINT@@K@Z PROC ; CChartAddInBase000000::OnRButtonDown, COMDAT
; _this$ = ecx

; 219  : 	virtual BOOL	OnRButtonDown(		HDC p_hDC, UINT nFlags, POINT &point, const DWORD p_dwMouseActionID)									{	return FALSE;	}

  00000	33 c0		 xor	 eax, eax
  00002	c2 10 00	 ret	 16			; 00000010H
?OnRButtonDown@CChartAddInBase000000@@MAEHPAUHDC__@@IAAUtagPOINT@@K@Z ENDP ; CChartAddInBase000000::OnRButtonDown
_TEXT	ENDS
; Function compile flags: /Ogtp
; File D:\git\src\IBK\IBK_DRFN\ProjSrc\SrcChartEx\ChartOCX\AddInManager\Include_AddIn\I000000\_ChartAddInBase.h
;	COMDAT ?OnLButtonUp@CChartAddInBase000000@@MAEHPAUHDC__@@IAAUtagPOINT@@K@Z
_TEXT	SEGMENT
_p_hDC$ = 8						; size = 4
_nFlags$ = 12						; size = 4
_point$ = 16						; size = 4
_p_dwMouseActionID$ = 20				; size = 4
?OnLButtonUp@CChartAddInBase000000@@MAEHPAUHDC__@@IAAUtagPOINT@@K@Z PROC ; CChartAddInBase000000::OnLButtonUp, COMDAT
; _this$ = ecx

; 217  : 	virtual BOOL	OnLButtonUp(		HDC p_hDC, UINT nFlags, POINT &point, const DWORD p_dwMouseActionID)									{	return FALSE;	}

  00000	33 c0		 xor	 eax, eax
  00002	c2 10 00	 ret	 16			; 00000010H
?OnLButtonUp@CChartAddInBase000000@@MAEHPAUHDC__@@IAAUtagPOINT@@K@Z ENDP ; CChartAddInBase000000::OnLButtonUp
_TEXT	ENDS
; Function compile flags: /Ogtp
; File D:\git\src\IBK\IBK_DRFN\ProjSrc\SrcChartEx\ChartOCX\AddInManager\Include_AddIn\I000000\_ChartAddInBase.h
;	COMDAT ?OnLButtonDown@CChartAddInBase000000@@MAEHPAUHDC__@@IAAUtagPOINT@@K@Z
_TEXT	SEGMENT
_p_hDC$ = 8						; size = 4
_nFlags$ = 12						; size = 4
_point$ = 16						; size = 4
_p_dwMouseActionID$ = 20				; size = 4
?OnLButtonDown@CChartAddInBase000000@@MAEHPAUHDC__@@IAAUtagPOINT@@K@Z PROC ; CChartAddInBase000000::OnLButtonDown, COMDAT
; _this$ = ecx

; 216  : 	virtual BOOL	OnLButtonDown(		HDC p_hDC, UINT nFlags, POINT &point, const DWORD p_dwMouseActionID)									{	return FALSE;	}

  00000	33 c0		 xor	 eax, eax
  00002	c2 10 00	 ret	 16			; 00000010H
?OnLButtonDown@CChartAddInBase000000@@MAEHPAUHDC__@@IAAUtagPOINT@@K@Z ENDP ; CChartAddInBase000000::OnLButtonDown
_TEXT	ENDS
; Function compile flags: /Ogtp
; File D:\git\src\IBK\IBK_DRFN\ProjSrc\SrcChartEx\ChartOCX\AddInManager\Include_AddIn\I000000\_ChartAddInBase.h
;	COMDAT ?OnMouseWheel@CChartAddInBase000000@@MAEHIFUtagPOINT@@K@Z
_TEXT	SEGMENT
_nFlags$ = 8						; size = 4
_zDelta$ = 12						; size = 2
_pt$ = 16						; size = 8
_p_dwMouseActionID$ = 24				; size = 4
?OnMouseWheel@CChartAddInBase000000@@MAEHIFUtagPOINT@@K@Z PROC ; CChartAddInBase000000::OnMouseWheel, COMDAT
; _this$ = ecx

; 214  : 	virtual BOOL	OnMouseWheel(		UINT nFlags, short zDelta, POINT pt, const DWORD p_dwMouseActionID)										{	return FALSE;	}

  00000	33 c0		 xor	 eax, eax
  00002	c2 14 00	 ret	 20			; 00000014H
?OnMouseWheel@CChartAddInBase000000@@MAEHIFUtagPOINT@@K@Z ENDP ; CChartAddInBase000000::OnMouseWheel
_TEXT	ENDS
; Function compile flags: /Ogtp
; File D:\git\src\IBK\IBK_DRFN\ProjSrc\SrcChartEx\ChartOCX\AddInManager\Include_AddIn\I000000\_ChartAddInBase.h
;	COMDAT ?OnKeyUp@CChartAddInBase000000@@MAEHIII@Z
_TEXT	SEGMENT
_nChar$ = 8						; size = 4
_nRepCnt$ = 12						; size = 4
_nFlags$ = 16						; size = 4
?OnKeyUp@CChartAddInBase000000@@MAEHIII@Z PROC		; CChartAddInBase000000::OnKeyUp, COMDAT
; _this$ = ecx

; 213  : 	virtual BOOL	OnKeyUp(			UINT nChar, UINT nRepCnt, UINT nFlags)																	{	return FALSE;	}

  00000	33 c0		 xor	 eax, eax
  00002	c2 0c 00	 ret	 12			; 0000000cH
?OnKeyUp@CChartAddInBase000000@@MAEHIII@Z ENDP		; CChartAddInBase000000::OnKeyUp
_TEXT	ENDS
; Function compile flags: /Ogtp
; File D:\git\src\IBK\IBK_DRFN\ProjSrc\SrcChartEx\ChartOCX\AddInManager\Include_AddIn\I000000\_ChartAddInBase.h
;	COMDAT ?OnKeyDown@CChartAddInBase000000@@MAEHIII@Z
_TEXT	SEGMENT
_nChar$ = 8						; size = 4
_nRepCnt$ = 12						; size = 4
_nFlags$ = 16						; size = 4
?OnKeyDown@CChartAddInBase000000@@MAEHIII@Z PROC	; CChartAddInBase000000::OnKeyDown, COMDAT
; _this$ = ecx

; 212  : 	virtual BOOL	OnKeyDown(			UINT nChar, UINT nRepCnt, UINT nFlags)																	{	return FALSE;	}

  00000	33 c0		 xor	 eax, eax
  00002	c2 0c 00	 ret	 12			; 0000000cH
?OnKeyDown@CChartAddInBase000000@@MAEHIII@Z ENDP	; CChartAddInBase000000::OnKeyDown
_TEXT	ENDS
; Function compile flags: /Ogtp
; File D:\git\src\IBK\IBK_DRFN\ProjSrc\SrcChartEx\ChartOCX\AddInManager\Include_AddIn\I000000\_ChartAddInBase.h
;	COMDAT ?OnAddInToolCommand@CChartAddInBase000000@@MAEHAAJW4EAICommandType@@JJ@Z
_TEXT	SEGMENT
_p_lResult$ = 8						; size = 4
_p_eCommandID$ = 12					; size = 4
_p_lParam1$ = 16					; size = 4
_p_lParam2$ = 20					; size = 4
?OnAddInToolCommand@CChartAddInBase000000@@MAEHAAJW4EAICommandType@@JJ@Z PROC ; CChartAddInBase000000::OnAddInToolCommand, COMDAT
; _this$ = ecx

; 210  : 	virtual BOOL	OnAddInToolCommand(	long &p_lResult, const EAICommandType p_eCommandID, const long p_lParam1, const long p_lParam2)			{	return FALSE;	}

  00000	33 c0		 xor	 eax, eax
  00002	c2 10 00	 ret	 16			; 00000010H
?OnAddInToolCommand@CChartAddInBase000000@@MAEHAAJW4EAICommandType@@JJ@Z ENDP ; CChartAddInBase000000::OnAddInToolCommand
_TEXT	ENDS
; Function compile flags: /Ogtp
; File D:\git\src\IBK\IBK_DRFN\ProjSrc\SrcChartEx\ChartOCX\AddInManager\Include_AddIn\I000000\_ChartAddInBase.h
;	COMDAT ?OnAddInToolCommand@CChartAddInBase000000@@MAEHAAJW4EAICommandType@@J@Z
_TEXT	SEGMENT
_p_lResult$ = 8						; size = 4
_p_eCommandID$ = 12					; size = 4
_p_lParam$ = 16						; size = 4
?OnAddInToolCommand@CChartAddInBase000000@@MAEHAAJW4EAICommandType@@J@Z PROC ; CChartAddInBase000000::OnAddInToolCommand, COMDAT
; _this$ = ecx

; 209  : 	virtual BOOL	OnAddInToolCommand(	long &p_lResult, const EAICommandType p_eCommandID, const long p_lParam)								{	return FALSE;	}

  00000	33 c0		 xor	 eax, eax
  00002	c2 0c 00	 ret	 12			; 0000000cH
?OnAddInToolCommand@CChartAddInBase000000@@MAEHAAJW4EAICommandType@@J@Z ENDP ; CChartAddInBase000000::OnAddInToolCommand
_TEXT	ENDS
; Function compile flags: /Ogtp
; File D:\git\src\IBK\IBK_DRFN\ProjSrc\SrcChartEx\ChartOCX\AddInManager\Include_AddIn\I000000\_ChartAddInBase.h
;	COMDAT ?OnAddInToolCommand@CChartAddInBase000000@@MAEHAAJW4EAICommandType@@PBDPAVCObject@@@Z
_TEXT	SEGMENT
_p_lResult$ = 8						; size = 4
_p_eCommandID$ = 12					; size = 4
_p_szParam$ = 16					; size = 4
_p_pParam$ = 20						; size = 4
?OnAddInToolCommand@CChartAddInBase000000@@MAEHAAJW4EAICommandType@@PBDPAVCObject@@@Z PROC ; CChartAddInBase000000::OnAddInToolCommand, COMDAT
; _this$ = ecx

; 208  : 	virtual BOOL	OnAddInToolCommand(	long &p_lResult, const EAICommandType p_eCommandID, const char *p_szParam, CObject *p_pParam)			{	return FALSE;	}

  00000	33 c0		 xor	 eax, eax
  00002	c2 10 00	 ret	 16			; 00000010H
?OnAddInToolCommand@CChartAddInBase000000@@MAEHAAJW4EAICommandType@@PBDPAVCObject@@@Z ENDP ; CChartAddInBase000000::OnAddInToolCommand
_TEXT	ENDS
; Function compile flags: /Ogtp
; File D:\git\src\IBK\IBK_DRFN\ProjSrc\SrcChartEx\ChartOCX\AddInManager\Include_AddIn\I000000\_ChartAddInBase.h
;	COMDAT ?OnAddInToolCommand@CChartAddInBase000000@@MAEHAAJW4EAICommandType@@PBD@Z
_TEXT	SEGMENT
_p_lResult$ = 8						; size = 4
_p_eCommandID$ = 12					; size = 4
_p_szParam$ = 16					; size = 4
?OnAddInToolCommand@CChartAddInBase000000@@MAEHAAJW4EAICommandType@@PBD@Z PROC ; CChartAddInBase000000::OnAddInToolCommand, COMDAT
; _this$ = ecx

; 207  : 	virtual BOOL	OnAddInToolCommand(	long &p_lResult, const EAICommandType p_eCommandID, const char *p_szParam)								{	return FALSE;	}

  00000	33 c0		 xor	 eax, eax
  00002	c2 0c 00	 ret	 12			; 0000000cH
?OnAddInToolCommand@CChartAddInBase000000@@MAEHAAJW4EAICommandType@@PBD@Z ENDP ; CChartAddInBase000000::OnAddInToolCommand
_TEXT	ENDS
; Function compile flags: /Ogtp
; File D:\git\src\IBK\IBK_DRFN\ProjSrc\SrcChartEx\ChartOCX\AddInManager\Include_AddIn\I000000\_ChartAddInBase.h
;	COMDAT ?OnAddInToolCommand@CChartAddInBase000000@@MAEHAAJW4EAICommandType@@PAUIGraphInfo000000@@@Z
_TEXT	SEGMENT
_p_lResult$ = 8						; size = 4
_p_eCommandID$ = 12					; size = 4
_p_pIGraphInfo$ = 16					; size = 4
?OnAddInToolCommand@CChartAddInBase000000@@MAEHAAJW4EAICommandType@@PAUIGraphInfo000000@@@Z PROC ; CChartAddInBase000000::OnAddInToolCommand, COMDAT
; _this$ = ecx

; 206  : 	virtual BOOL	OnAddInToolCommand(	long &p_lResult, const EAICommandType p_eCommandID, IGraphInfo *p_pIGraphInfo)							{	return FALSE;	}

  00000	33 c0		 xor	 eax, eax
  00002	c2 0c 00	 ret	 12			; 0000000cH
?OnAddInToolCommand@CChartAddInBase000000@@MAEHAAJW4EAICommandType@@PAUIGraphInfo000000@@@Z ENDP ; CChartAddInBase000000::OnAddInToolCommand
_TEXT	ENDS
; Function compile flags: /Ogtp
; File D:\git\src\IBK\IBK_DRFN\ProjSrc\SrcChartEx\ChartOCX\AddInManager\Include_AddIn\I000000\_ChartAddInBase.h
;	COMDAT ?OnAddInToolCommand@CChartAddInBase000000@@MAEHW4EAICommandType@@JJJJJJJJJ@Z
_TEXT	SEGMENT
_p_eCommandID$ = 8					; size = 4
_p_lParam1$ = 12					; size = 4
_p_lParam2$ = 16					; size = 4
_p_lParam3$ = 20					; size = 4
_p_lParam4$ = 24					; size = 4
_p_lParam5$ = 28					; size = 4
_p_lParam6$ = 32					; size = 4
_p_lParam7$ = 36					; size = 4
_p_lParam8$ = 40					; size = 4
_p_lParam9$ = 44					; size = 4
?OnAddInToolCommand@CChartAddInBase000000@@MAEHW4EAICommandType@@JJJJJJJJJ@Z PROC ; CChartAddInBase000000::OnAddInToolCommand, COMDAT
; _this$ = ecx

; 204  : 	virtual BOOL	OnAddInToolCommand(	const EAICommandType p_eCommandID, const long p_lParam1, const long p_lParam2, const long p_lParam3, const long p_lParam4, const long p_lParam5, const long p_lParam6, const long p_lParam7, const long p_lParam8, const long p_lParam9)	{	return FALSE;	}

  00000	33 c0		 xor	 eax, eax
  00002	c2 28 00	 ret	 40			; 00000028H
?OnAddInToolCommand@CChartAddInBase000000@@MAEHW4EAICommandType@@JJJJJJJJJ@Z ENDP ; CChartAddInBase000000::OnAddInToolCommand
_TEXT	ENDS
; Function compile flags: /Ogtp
; File D:\git\src\IBK\IBK_DRFN\ProjSrc\SrcChartEx\ChartOCX\AddInManager\Include_AddIn\I000000\_ChartAddInBase.h
;	COMDAT ?OnAddInToolCommand@CChartAddInBase000000@@MAEHW4EAICommandType@@JJ@Z
_TEXT	SEGMENT
_p_eCommandID$ = 8					; size = 4
_p_lParam1$ = 12					; size = 4
_p_lParam2$ = 16					; size = 4
?OnAddInToolCommand@CChartAddInBase000000@@MAEHW4EAICommandType@@JJ@Z PROC ; CChartAddInBase000000::OnAddInToolCommand, COMDAT
; _this$ = ecx

; 203  : 	virtual BOOL	OnAddInToolCommand(	const EAICommandType p_eCommandID, const long p_lParam1, const long p_lParam2)							{	return FALSE;	}

  00000	33 c0		 xor	 eax, eax
  00002	c2 0c 00	 ret	 12			; 0000000cH
?OnAddInToolCommand@CChartAddInBase000000@@MAEHW4EAICommandType@@JJ@Z ENDP ; CChartAddInBase000000::OnAddInToolCommand
_TEXT	ENDS
; Function compile flags: /Ogtp
; File D:\git\src\IBK\IBK_DRFN\ProjSrc\SrcChartEx\ChartOCX\AddInManager\Include_AddIn\I000000\_ChartAddInBase.h
;	COMDAT ?OnAddInToolCommand@CChartAddInBase000000@@MAEHW4EAICommandType@@JPBD11@Z
_TEXT	SEGMENT
_p_eCommandID$ = 8					; size = 4
_p_lParam$ = 12						; size = 4
_p_szParam1$ = 16					; size = 4
_p_szParam2$ = 20					; size = 4
_p_szParam3$ = 24					; size = 4
?OnAddInToolCommand@CChartAddInBase000000@@MAEHW4EAICommandType@@JPBD11@Z PROC ; CChartAddInBase000000::OnAddInToolCommand, COMDAT
; _this$ = ecx

; 202  : 	virtual BOOL	OnAddInToolCommand( const EAICommandType p_eCommandID, const long p_lParam, const char *p_szParam1, const char *p_szParam2, const char *p_szParam3)	{	return FALSE;	}

  00000	33 c0		 xor	 eax, eax
  00002	c2 14 00	 ret	 20			; 00000014H
?OnAddInToolCommand@CChartAddInBase000000@@MAEHW4EAICommandType@@JPBD11@Z ENDP ; CChartAddInBase000000::OnAddInToolCommand
_TEXT	ENDS
; Function compile flags: /Ogtp
; File D:\git\src\IBK\IBK_DRFN\ProjSrc\SrcChartEx\ChartOCX\AddInManager\Include_AddIn\I000000\_ChartAddInBase.h
;	COMDAT ?OnAddInToolCommand@CChartAddInBase000000@@MAEHW4EAICommandType@@JPBD@Z
_TEXT	SEGMENT
_p_eCommandID$ = 8					; size = 4
_p_lParam$ = 12						; size = 4
_p_szParam$ = 16					; size = 4
?OnAddInToolCommand@CChartAddInBase000000@@MAEHW4EAICommandType@@JPBD@Z PROC ; CChartAddInBase000000::OnAddInToolCommand, COMDAT
; _this$ = ecx

; 201  : 	virtual BOOL	OnAddInToolCommand( const EAICommandType p_eCommandID, const long p_lParam, const char *p_szParam)							{	return FALSE;	}

  00000	33 c0		 xor	 eax, eax
  00002	c2 0c 00	 ret	 12			; 0000000cH
?OnAddInToolCommand@CChartAddInBase000000@@MAEHW4EAICommandType@@JPBD@Z ENDP ; CChartAddInBase000000::OnAddInToolCommand
_TEXT	ENDS
; Function compile flags: /Ogtp
; File D:\git\src\IBK\IBK_DRFN\ProjSrc\SrcChartEx\ChartOCX\AddInManager\Include_AddIn\I000000\_ChartAddInBase.h
;	COMDAT ?OnAddInToolCommand@CChartAddInBase000000@@MAEHW4EAICommandType@@PBUIAddInDllBase@@@Z
_TEXT	SEGMENT
_p_eCommandID$ = 8					; size = 4
_p_pParam$ = 12						; size = 4
?OnAddInToolCommand@CChartAddInBase000000@@MAEHW4EAICommandType@@PBUIAddInDllBase@@@Z PROC ; CChartAddInBase000000::OnAddInToolCommand, COMDAT
; _this$ = ecx

; 199  : 	virtual BOOL	OnAddInToolCommand(	const EAICommandType p_eCommandID, const IAddInDllBase *p_pParam)										{	return FALSE;	}

  00000	33 c0		 xor	 eax, eax
  00002	c2 08 00	 ret	 8
?OnAddInToolCommand@CChartAddInBase000000@@MAEHW4EAICommandType@@PBUIAddInDllBase@@@Z ENDP ; CChartAddInBase000000::OnAddInToolCommand
_TEXT	ENDS
; Function compile flags: /Ogtp
; File D:\git\src\IBK\IBK_DRFN\ProjSrc\SrcChartEx\ChartOCX\AddInManager\Include_AddIn\I000000\_ChartAddInBase.h
;	COMDAT ?OnAddInToolCommand@CChartAddInBase000000@@MAEHW4EAICommandType@@PBDJ@Z
_TEXT	SEGMENT
_p_eCommandID$ = 8					; size = 4
_p_szParam$ = 12					; size = 4
_p_lParam$ = 16						; size = 4
?OnAddInToolCommand@CChartAddInBase000000@@MAEHW4EAICommandType@@PBDJ@Z PROC ; CChartAddInBase000000::OnAddInToolCommand, COMDAT
; _this$ = ecx

; 198  : 	virtual BOOL	OnAddInToolCommand( const EAICommandType p_eCommandID, const char *p_szParam, const long p_lParam)							{	return FALSE;	}

  00000	33 c0		 xor	 eax, eax
  00002	c2 0c 00	 ret	 12			; 0000000cH
?OnAddInToolCommand@CChartAddInBase000000@@MAEHW4EAICommandType@@PBDJ@Z ENDP ; CChartAddInBase000000::OnAddInToolCommand
_TEXT	ENDS
; Function compile flags: /Ogtp
; File D:\git\src\IBK\IBK_DRFN\ProjSrc\SrcChartEx\ChartOCX\AddInManager\Include_AddIn\I000000\_ChartAddInBase.h
;	COMDAT ?OnAddInToolCommand@CChartAddInBase000000@@MAEHW4EAICommandType@@PBD1@Z
_TEXT	SEGMENT
_p_eCommandID$ = 8					; size = 4
_p_szParam1$ = 12					; size = 4
_p_szParam2$ = 16					; size = 4
?OnAddInToolCommand@CChartAddInBase000000@@MAEHW4EAICommandType@@PBD1@Z PROC ; CChartAddInBase000000::OnAddInToolCommand, COMDAT
; _this$ = ecx

; 197  : 	virtual BOOL	OnAddInToolCommand(	const EAICommandType p_eCommandID, const char *p_szParam1, const char *p_szParam2)						{	return FALSE;	}

  00000	33 c0		 xor	 eax, eax
  00002	c2 0c 00	 ret	 12			; 0000000cH
?OnAddInToolCommand@CChartAddInBase000000@@MAEHW4EAICommandType@@PBD1@Z ENDP ; CChartAddInBase000000::OnAddInToolCommand
_TEXT	ENDS
; Function compile flags: /Ogtp
; File D:\git\src\IBK\IBK_DRFN\ProjSrc\SrcChartEx\ChartOCX\AddInManager\Include_AddIn\I000000\_ChartAddInBase.h
;	COMDAT ?OnAddInToolCommand@CChartAddInBase000000@@MAEHW4EAICommandType@@PBD@Z
_TEXT	SEGMENT
_p_eCommandID$ = 8					; size = 4
_p_szParam$ = 12					; size = 4
?OnAddInToolCommand@CChartAddInBase000000@@MAEHW4EAICommandType@@PBD@Z PROC ; CChartAddInBase000000::OnAddInToolCommand, COMDAT
; _this$ = ecx

; 196  : 	virtual BOOL	OnAddInToolCommand(	const EAICommandType p_eCommandID, const char *p_szParam)												{	return FALSE;	}

  00000	33 c0		 xor	 eax, eax
  00002	c2 08 00	 ret	 8
?OnAddInToolCommand@CChartAddInBase000000@@MAEHW4EAICommandType@@PBD@Z ENDP ; CChartAddInBase000000::OnAddInToolCommand
_TEXT	ENDS
; Function compile flags: /Ogtp
; File D:\git\src\IBK\IBK_DRFN\ProjSrc\SrcChartEx\ChartOCX\AddInManager\Include_AddIn\I000000\_ChartAddInBase.h
;	COMDAT ?OnAddInToolCommand@CChartAddInBase000000@@MAEHW4EAICommandType@@PAUHDC__@@IAAUtagPOINT@@K@Z
_TEXT	SEGMENT
_p_eCommandID$ = 8					; size = 4
_p_hDC$ = 12						; size = 4
_nFlags$ = 16						; size = 4
_point$ = 20						; size = 4
_p_dwMouseActionID$ = 24				; size = 4
?OnAddInToolCommand@CChartAddInBase000000@@MAEHW4EAICommandType@@PAUHDC__@@IAAUtagPOINT@@K@Z PROC ; CChartAddInBase000000::OnAddInToolCommand, COMDAT
; _this$ = ecx

; 195  : 	virtual BOOL	OnAddInToolCommand(	const EAICommandType p_eCommandID, HDC p_hDC, UINT nFlags, POINT &point, const DWORD p_dwMouseActionID)	{	return FALSE;	}

  00000	33 c0		 xor	 eax, eax
  00002	c2 14 00	 ret	 20			; 00000014H
?OnAddInToolCommand@CChartAddInBase000000@@MAEHW4EAICommandType@@PAUHDC__@@IAAUtagPOINT@@K@Z ENDP ; CChartAddInBase000000::OnAddInToolCommand
_TEXT	ENDS
; Function compile flags: /Ogtp
; File D:\git\src\IBK\IBK_DRFN\ProjSrc\SrcChartEx\ChartOCX\AddInManager\Include_AddIn\I000000\_ChartAddInBase.h
;	COMDAT ?OnAddInToolCommand@CChartAddInBase000000@@MAEHW4EAICommandType@@@Z
_TEXT	SEGMENT
_p_eCommandID$ = 8					; size = 4
?OnAddInToolCommand@CChartAddInBase000000@@MAEHW4EAICommandType@@@Z PROC ; CChartAddInBase000000::OnAddInToolCommand, COMDAT
; _this$ = ecx

; 194  : 	virtual BOOL	OnAddInToolCommand(	const EAICommandType p_eCommandID)																		{	return FALSE;	}

  00000	33 c0		 xor	 eax, eax
  00002	c2 04 00	 ret	 4
?OnAddInToolCommand@CChartAddInBase000000@@MAEHW4EAICommandType@@@Z ENDP ; CChartAddInBase000000::OnAddInToolCommand
_TEXT	ENDS
; Function compile flags: /Ogtp
; File D:\git\src\IBK\IBK_DRFN\ProjSrc\SrcChartEx\ChartOCX\AddInManager\Include_AddIn\I000000\_ChartAddInBase.h
;	COMDAT ?OnAddInMsg@CChartAddInBase000000@@MAEHPBDJ@Z
_TEXT	SEGMENT
_p_szAddInItemName$ = 8					; size = 4
_p_lParam$ = 12						; size = 4
?OnAddInMsg@CChartAddInBase000000@@MAEHPBDJ@Z PROC	; CChartAddInBase000000::OnAddInMsg, COMDAT
; _this$ = ecx

; 193  : 	virtual BOOL	OnAddInMsg(			const char *p_szAddInItemName, const long p_lParam)														{	return FALSE;	}

  00000	33 c0		 xor	 eax, eax
  00002	c2 08 00	 ret	 8
?OnAddInMsg@CChartAddInBase000000@@MAEHPBDJ@Z ENDP	; CChartAddInBase000000::OnAddInMsg
_TEXT	ENDS
; Function compile flags: /Ogtp
; File D:\git\src\IBK\IBK_DRFN\ProjSrc\SrcChartEx\ChartOCX\AddInManager\Include_AddIn\I000000\_ChartAddInBase.h
;	COMDAT ?OnCmdMsg@CChartAddInBase000000@@MAEHIHPAUICmdUI000000@@@Z
_TEXT	SEGMENT
_nID$ = 8						; size = 4
_nCode$ = 12						; size = 4
_p_pICmdUI$ = 16					; size = 4
?OnCmdMsg@CChartAddInBase000000@@MAEHIHPAUICmdUI000000@@@Z PROC ; CChartAddInBase000000::OnCmdMsg, COMDAT
; _this$ = ecx

; 192  : 	virtual BOOL	OnCmdMsg(			UINT nID, int nCode, ICmdUI *p_pICmdUI)																	{	return FALSE;	}

  00000	33 c0		 xor	 eax, eax
  00002	c2 0c 00	 ret	 12			; 0000000cH
?OnCmdMsg@CChartAddInBase000000@@MAEHIHPAUICmdUI000000@@@Z ENDP ; CChartAddInBase000000::OnCmdMsg
_TEXT	ENDS
; Function compile flags: /Ogtp
; File D:\git\src\IBK\IBK_DRFN\ProjSrc\SrcChartEx\ChartOCX\AddInManager\Include_AddIn\I000000\_ChartAddInBase.h
;	COMDAT ?OnPreNMTRClock@CChartAddInBase000000@@MAEHAA_J@Z
_TEXT	SEGMENT
_p_nRealClockSecs$ = 8					; size = 4
?OnPreNMTRClock@CChartAddInBase000000@@MAEHAA_J@Z PROC	; CChartAddInBase000000::OnPreNMTRClock, COMDAT
; _this$ = ecx

; 186  : 	virtual BOOL	OnPreNMTRClock( __int64 &p_nRealClockSecs)																		{	return TRUE;	}

  00000	b8 01 00 00 00	 mov	 eax, 1
  00005	c2 04 00	 ret	 4
?OnPreNMTRClock@CChartAddInBase000000@@MAEHAA_J@Z ENDP	; CChartAddInBase000000::OnPreNMTRClock
_TEXT	ENDS
; Function compile flags: /Ogtp
; File D:\git\src\IBK\IBK_DRFN\ProjSrc\SrcChartEx\ChartOCX\AddInManager\Include_AddIn\I000000\_ChartAddInBase.h
;	COMDAT ?OnPreRealPacketEnd@CChartAddInBase000000@@MAEHPBDH@Z
_TEXT	SEGMENT
_p_szRQ$ = 8						; size = 4
_p_bRealData$ = 12					; size = 4
?OnPreRealPacketEnd@CChartAddInBase000000@@MAEHPBDH@Z PROC ; CChartAddInBase000000::OnPreRealPacketEnd, COMDAT
; _this$ = ecx

; 185  : 	virtual BOOL	OnPreRealPacketEnd( const char *p_szRQ = NULL, BOOL p_bRealData = TRUE)											{	return TRUE;	}

  00000	b8 01 00 00 00	 mov	 eax, 1
  00005	c2 08 00	 ret	 8
?OnPreRealPacketEnd@CChartAddInBase000000@@MAEHPBDH@Z ENDP ; CChartAddInBase000000::OnPreRealPacketEnd
_TEXT	ENDS
; Function compile flags: /Ogtp
; File D:\git\src\IBK\IBK_DRFN\ProjSrc\SrcChartEx\ChartOCX\AddInManager\Include_AddIn\I000000\_ChartAddInBase.h
;	COMDAT ?OnPreIndexedRealData@CChartAddInBase000000@@MAEHPBDHAANH@Z
_TEXT	SEGMENT
_p_szPacketName$ = 8					; size = 4
_p_nIndex$ = 12						; size = 4
_p_dData$ = 16						; size = 4
_p_bRealData$ = 20					; size = 4
?OnPreIndexedRealData@CChartAddInBase000000@@MAEHPBDHAANH@Z PROC ; CChartAddInBase000000::OnPreIndexedRealData, COMDAT
; _this$ = ecx

; 184  : 	virtual BOOL	OnPreIndexedRealData( const char *p_szPacketName, const int p_nIndex, double &p_dData, BOOL p_bRealData = TRUE)	{	return TRUE;	}

  00000	b8 01 00 00 00	 mov	 eax, 1
  00005	c2 10 00	 ret	 16			; 00000010H
?OnPreIndexedRealData@CChartAddInBase000000@@MAEHPBDHAANH@Z ENDP ; CChartAddInBase000000::OnPreIndexedRealData
_TEXT	ENDS
; Function compile flags: /Ogtp
; File D:\git\src\IBK\IBK_DRFN\ProjSrc\SrcChartEx\ChartOCX\AddInManager\Include_AddIn\I000000\_ChartAddInBase.h
;	COMDAT ?OnPreRealData@CChartAddInBase000000@@MAEHPBDAAN0H@Z
_TEXT	SEGMENT
_p_szPacketName$ = 8					; size = 4
_p_dData$ = 12						; size = 4
_p_szRQ$ = 16						; size = 4
_p_bRealData$ = 20					; size = 4
?OnPreRealData@CChartAddInBase000000@@MAEHPBDAAN0H@Z PROC ; CChartAddInBase000000::OnPreRealData, COMDAT
; _this$ = ecx

; 183  : 	virtual BOOL	OnPreRealData( const char *p_szPacketName, double &p_dData, const char *p_szRQ = NULL, BOOL p_bRealData = TRUE)	{	return TRUE;	}

  00000	b8 01 00 00 00	 mov	 eax, 1
  00005	c2 10 00	 ret	 16			; 00000010H
?OnPreRealData@CChartAddInBase000000@@MAEHPBDAAN0H@Z ENDP ; CChartAddInBase000000::OnPreRealData
_TEXT	ENDS
; Function compile flags: /Ogtp
; File D:\git\src\IBK\IBK_DRFN\ProjSrc\SrcChartEx\ChartOCX\AddInManager\Include_AddIn\I000000\_ChartAddInBase.h
;	COMDAT ?OnRecalculationComplete@CChartAddInBase000000@@MAEXXZ
_TEXT	SEGMENT
?OnRecalculationComplete@CChartAddInBase000000@@MAEXXZ PROC ; CChartAddInBase000000::OnRecalculationComplete, COMDAT
; _this$ = ecx

; 179  : 	virtual void	OnRecalculationComplete( void)						{}

  00000	c2 00 00	 ret	 0
?OnRecalculationComplete@CChartAddInBase000000@@MAEXXZ ENDP ; CChartAddInBase000000::OnRecalculationComplete
_TEXT	ENDS
; Function compile flags: /Ogtp
; File D:\git\src\IBK\IBK_DRFN\ProjSrc\SrcChartEx\ChartOCX\AddInManager\Include_AddIn\I000000\_ChartAddInBase.h
;	COMDAT ?OnRealPacketEnd@CChartAddInBase000000@@MAEXPBD@Z
_TEXT	SEGMENT
_p_szRQ$ = 8						; size = 4
?OnRealPacketEnd@CChartAddInBase000000@@MAEXPBD@Z PROC	; CChartAddInBase000000::OnRealPacketEnd, COMDAT
; _this$ = ecx

; 172  : 	virtual void	OnRealPacketEnd( const char *p_szRQ)								{}

  00000	c2 04 00	 ret	 4
?OnRealPacketEnd@CChartAddInBase000000@@MAEXPBD@Z ENDP	; CChartAddInBase000000::OnRealPacketEnd
_TEXT	ENDS
; Function compile flags: /Ogtp
; File D:\git\src\IBK\IBK_DRFN\ProjSrc\SrcChartEx\ChartOCX\AddInManager\Include_AddIn\I000000\_ChartAddInBase.h
;	COMDAT ?OnIndexedRealData@CChartAddInBase000000@@MAEXPBDHN@Z
_TEXT	SEGMENT
_p_szPacketName$ = 8					; size = 4
_p_nIndex$ = 12						; size = 4
_p_dData$ = 16						; size = 8
?OnIndexedRealData@CChartAddInBase000000@@MAEXPBDHN@Z PROC ; CChartAddInBase000000::OnIndexedRealData, COMDAT
; _this$ = ecx

; 170  : 	virtual void	OnIndexedRealData( const char *p_szPacketName, const int p_nIndex, double p_dData)		{}

  00000	c2 10 00	 ret	 16			; 00000010H
?OnIndexedRealData@CChartAddInBase000000@@MAEXPBDHN@Z ENDP ; CChartAddInBase000000::OnIndexedRealData
_TEXT	ENDS
; Function compile flags: /Ogtp
; File D:\git\src\IBK\IBK_DRFN\ProjSrc\SrcChartEx\ChartOCX\AddInManager\Include_AddIn\I000000\_ChartAddInBase.h
;	COMDAT ?OnRealData@CChartAddInBase000000@@MAEXPBDN0@Z
_TEXT	SEGMENT
_p_szPacketName$ = 8					; size = 4
_p_dData$ = 12						; size = 8
_p_szRQ$ = 20						; size = 4
?OnRealData@CChartAddInBase000000@@MAEXPBDN0@Z PROC	; CChartAddInBase000000::OnRealData, COMDAT
; _this$ = ecx

; 169  : 	virtual void	OnRealData( const char *p_szPacketName, double p_dData, const char *p_szRQ)			{}

  00000	c2 10 00	 ret	 16			; 00000010H
?OnRealData@CChartAddInBase000000@@MAEXPBDN0@Z ENDP	; CChartAddInBase000000::OnRealData
_TEXT	ENDS
; Function compile flags: /Ogtp
; File D:\git\src\IBK\IBK_DRFN\ProjSrc\SrcChartEx\ChartOCX\AddInManager\Include_AddIn\I000000\_ChartAddInBase.h
;	COMDAT ?OnBlockChanged@CChartAddInBase000000@@MAEXW4BLOCKBEHAVIOR@CBlockBaseData@@HHHH@Z
_TEXT	SEGMENT
_p_eChangeType$ = 8					; size = 4
_p_nSourceRow$ = 12					; size = 4
_p_nSourceColumn$ = 16					; size = 4
_p_nTargetRow$ = 20					; size = 4
_p_nTargetColumn$ = 24					; size = 4
?OnBlockChanged@CChartAddInBase000000@@MAEXW4BLOCKBEHAVIOR@CBlockBaseData@@HHHH@Z PROC ; CChartAddInBase000000::OnBlockChanged, COMDAT
; _this$ = ecx

; 165  : 	virtual void	OnBlockChanged( const CBlockBaseData::BLOCKBEHAVIOR p_eChangeType, const int p_nSourceRow, const int p_nSourceColumn, const int p_nTargetRow, const int p_nTargetColumn)	{}

  00000	c2 14 00	 ret	 20			; 00000014H
?OnBlockChanged@CChartAddInBase000000@@MAEXW4BLOCKBEHAVIOR@CBlockBaseData@@HHHH@Z ENDP ; CChartAddInBase000000::OnBlockChanged
_TEXT	ENDS
; Function compile flags: /Ogtp
; File D:\git\src\IBK\IBK_DRFN\ProjSrc\SrcChartEx\ChartOCX\AddInManager\Include_AddIn\I000000\_ChartAddInBase.h
;	COMDAT ?OnPacketTruncated@CChartAddInBase000000@@MAEXH@Z
_TEXT	SEGMENT
_p_nDataCount$ = 8					; size = 4
?OnPacketTruncated@CChartAddInBase000000@@MAEXH@Z PROC	; CChartAddInBase000000::OnPacketTruncated, COMDAT
; _this$ = ecx

; 163  : 	virtual void	OnPacketTruncated( const int p_nDataCount)			{}

  00000	c2 04 00	 ret	 4
?OnPacketTruncated@CChartAddInBase000000@@MAEXH@Z ENDP	; CChartAddInBase000000::OnPacketTruncated
_TEXT	ENDS
; Function compile flags: /Ogtp
; File D:\git\src\IBK\IBK_DRFN\ProjSrc\SrcChartEx\ChartOCX\AddInManager\Include_AddIn\I000000\_ChartAddInBase.h
;	COMDAT ?OnGraphDeleted@CChartAddInBase000000@@MAEXPBD0@Z
_TEXT	SEGMENT
_p_szGraphName$ = 8					; size = 4
_p_szIndicatorName$ = 12				; size = 4
?OnGraphDeleted@CChartAddInBase000000@@MAEXPBD0@Z PROC	; CChartAddInBase000000::OnGraphDeleted, COMDAT
; _this$ = ecx

; 161  : 	virtual void	OnGraphDeleted( const char *p_szGraphName, const char *p_szIndicatorName)			{}

  00000	c2 08 00	 ret	 8
?OnGraphDeleted@CChartAddInBase000000@@MAEXPBD0@Z ENDP	; CChartAddInBase000000::OnGraphDeleted
_TEXT	ENDS
; Function compile flags: /Ogtp
; File D:\git\src\IBK\IBK_DRFN\ProjSrc\SrcChartEx\ChartOCX\AddInManager\Include_AddIn\I000000\_ChartAddInBase.h
;	COMDAT ?OnContextMenu@CChartAddInBase000000@@MAEXPAUHWND__@@AAUtagPOINT@@@Z
_TEXT	SEGMENT
_p_hWnd$ = 8						; size = 4
_p_pt$ = 12						; size = 4
?OnContextMenu@CChartAddInBase000000@@MAEXPAUHWND__@@AAUtagPOINT@@@Z PROC ; CChartAddInBase000000::OnContextMenu, COMDAT
; _this$ = ecx

; 159  : 	virtual void	OnContextMenu( HWND p_hWnd, POINT &p_pt)			{}

  00000	c2 08 00	 ret	 8
?OnContextMenu@CChartAddInBase000000@@MAEXPAUHWND__@@AAUtagPOINT@@@Z ENDP ; CChartAddInBase000000::OnContextMenu
_TEXT	ENDS
; Function compile flags: /Ogtp
; File D:\git\src\IBK\IBK_DRFN\ProjSrc\SrcChartEx\ChartOCX\AddInManager\Include_AddIn\I000000\_ChartAddInBase.h
;	COMDAT ?OnManualRealData@CChartAddInBase000000@@MAEXPBDNH@Z
_TEXT	SEGMENT
_p_szPacketName$ = 8					; size = 4
_p_dData$ = 12						; size = 8
_p_nOption$ = 20					; size = 4
?OnManualRealData@CChartAddInBase000000@@MAEXPBDNH@Z PROC ; CChartAddInBase000000::OnManualRealData, COMDAT
; _this$ = ecx

; 157  : 	virtual void	OnManualRealData( const char *p_szPacketName, const double p_dData, const int p_nOption)	{}

  00000	c2 10 00	 ret	 16			; 00000010H
?OnManualRealData@CChartAddInBase000000@@MAEXPBDNH@Z ENDP ; CChartAddInBase000000::OnManualRealData
_TEXT	ENDS
; Function compile flags: /Ogtp
; File D:\git\src\IBK\IBK_DRFN\ProjSrc\SrcChartEx\ChartOCX\AddInManager\Include_AddIn\I000000\_ChartAddInBase.h
;	COMDAT ?OnGraphAdded@CChartAddInBase000000@@MAEXPBD0@Z
_TEXT	SEGMENT
_p_szGraphName$ = 8					; size = 4
_p_szIndicatorName$ = 12				; size = 4
?OnGraphAdded@CChartAddInBase000000@@MAEXPBD0@Z PROC	; CChartAddInBase000000::OnGraphAdded, COMDAT
; _this$ = ecx

; 155  : 	virtual void	OnGraphAdded( const char *p_szGraphName, const char *p_szIndicatorName)			{}

  00000	c2 08 00	 ret	 8
?OnGraphAdded@CChartAddInBase000000@@MAEXPBD0@Z ENDP	; CChartAddInBase000000::OnGraphAdded
_TEXT	ENDS
; Function compile flags: /Ogtp
; File D:\git\src\IBK\IBK_DRFN\ProjSrc\SrcChartEx\ChartOCX\AddInManager\Include_AddIn\I000000\_ChartAddInBase.h
;	COMDAT ?OnBlockRemoved@CChartAddInBase000000@@MAEXHH@Z
_TEXT	SEGMENT
_p_nRow$ = 8						; size = 4
_p_nColumn$ = 12					; size = 4
?OnBlockRemoved@CChartAddInBase000000@@MAEXHH@Z PROC	; CChartAddInBase000000::OnBlockRemoved, COMDAT
; _this$ = ecx

; 153  : 	virtual void	OnBlockRemoved( const int p_nRow, const int p_nColumn)	{}

  00000	c2 08 00	 ret	 8
?OnBlockRemoved@CChartAddInBase000000@@MAEXHH@Z ENDP	; CChartAddInBase000000::OnBlockRemoved
_TEXT	ENDS
; Function compile flags: /Ogtp
; File D:\git\src\IBK\IBK_DRFN\ProjSrc\SrcChartEx\ChartOCX\AddInManager\Include_AddIn\I000000\_ChartAddInBase.h
;	COMDAT ?OnGraphDataChanged@CChartAddInBase000000@@MAEXXZ
_TEXT	SEGMENT
?OnGraphDataChanged@CChartAddInBase000000@@MAEXXZ PROC	; CChartAddInBase000000::OnGraphDataChanged, COMDAT
; _this$ = ecx

; 151  : 	virtual void	OnGraphDataChanged( void)							{}

  00000	c2 00 00	 ret	 0
?OnGraphDataChanged@CChartAddInBase000000@@MAEXXZ ENDP	; CChartAddInBase000000::OnGraphDataChanged
_TEXT	ENDS
; Function compile flags: /Ogtp
; File D:\git\src\IBK\IBK_DRFN\ProjSrc\SrcChartEx\ChartOCX\AddInManager\Include_AddIn\I000000\_ChartAddInBase.h
;	COMDAT ?OnChartItemChanged@CChartAddInBase000000@@MAEXXZ
_TEXT	SEGMENT
?OnChartItemChanged@CChartAddInBase000000@@MAEXXZ PROC	; CChartAddInBase000000::OnChartItemChanged, COMDAT
; _this$ = ecx

; 149  : 	virtual void	OnChartItemChanged( void)							{}

  00000	c2 00 00	 ret	 0
?OnChartItemChanged@CChartAddInBase000000@@MAEXXZ ENDP	; CChartAddInBase000000::OnChartItemChanged
_TEXT	ENDS
; Function compile flags: /Ogtp
; File D:\git\src\IBK\IBK_DRFN\ProjSrc\SrcChartEx\ChartOCX\AddInManager\Include_AddIn\I000000\_ChartAddInBase.h
;	COMDAT ?OnUserIndiatorConditionLoaded@CChartAddInBase000000@@MAEXXZ
_TEXT	SEGMENT
?OnUserIndiatorConditionLoaded@CChartAddInBase000000@@MAEXXZ PROC ; CChartAddInBase000000::OnUserIndiatorConditionLoaded, COMDAT
; _this$ = ecx

; 147  : 	virtual void	OnUserIndiatorConditionLoaded( void)				{}

  00000	c2 00 00	 ret	 0
?OnUserIndiatorConditionLoaded@CChartAddInBase000000@@MAEXXZ ENDP ; CChartAddInBase000000::OnUserIndiatorConditionLoaded
_TEXT	ENDS
; Function compile flags: /Ogtp
; File D:\git\src\IBK\IBK_DRFN\ProjSrc\SrcChartEx\ChartOCX\AddInManager\Include_AddIn\I000000\_ChartAddInBase.h
;	COMDAT ?OnResetMainBlock@CChartAddInBase000000@@MAEXXZ
_TEXT	SEGMENT
?OnResetMainBlock@CChartAddInBase000000@@MAEXXZ PROC	; CChartAddInBase000000::OnResetMainBlock, COMDAT
; _this$ = ecx

; 145  : 	virtual void	OnResetMainBlock( void)								{}

  00000	c2 00 00	 ret	 0
?OnResetMainBlock@CChartAddInBase000000@@MAEXXZ ENDP	; CChartAddInBase000000::OnResetMainBlock
_TEXT	ENDS
; Function compile flags: /Ogtp
; File D:\git\src\IBK\IBK_DRFN\ProjSrc\SrcChartEx\ChartOCX\AddInManager\Include_AddIn\I000000\_ChartAddInBase.h
;	COMDAT ?OnCaptureChanged@CChartAddInBase000000@@MAEXPAUHWND__@@QAUHBITMAP__@@@Z
_TEXT	SEGMENT
_p_hWnd$ = 8						; size = 4
_p_hbmpMainOSB$ = 12					; size = 4
?OnCaptureChanged@CChartAddInBase000000@@MAEXPAUHWND__@@QAUHBITMAP__@@@Z PROC ; CChartAddInBase000000::OnCaptureChanged, COMDAT
; _this$ = ecx

; 143  : 	virtual void	OnCaptureChanged( HWND p_hWnd, const HBITMAP p_hbmpMainOSB)	{}	// (2006/11/5 - Seung-Won, Bae) Support MainOSB

  00000	c2 08 00	 ret	 8
?OnCaptureChanged@CChartAddInBase000000@@MAEXPAUHWND__@@QAUHBITMAP__@@@Z ENDP ; CChartAddInBase000000::OnCaptureChanged
_TEXT	ENDS
; Function compile flags: /Ogtp
; File D:\git\src\IBK\IBK_DRFN\ProjSrc\SrcChartEx\ChartOCX\AddInManager\Include_AddIn\I000000\_ChartAddInBase.h
;	COMDAT ?OnTimer@CChartAddInBase000000@@MAEXI@Z
_TEXT	SEGMENT
_p_uTimerID$ = 8					; size = 4
?OnTimer@CChartAddInBase000000@@MAEXI@Z PROC		; CChartAddInBase000000::OnTimer, COMDAT
; _this$ = ecx

; 138  : 	virtual void	OnTimer( UINT p_uTimerID)	{}

  00000	c2 04 00	 ret	 4
?OnTimer@CChartAddInBase000000@@MAEXI@Z ENDP		; CChartAddInBase000000::OnTimer
_TEXT	ENDS
; Function compile flags: /Ogtp
; File D:\git\src\IBK\IBK_DRFN\ProjSrc\SrcChartEx\ChartOCX\AddInManager\Include_AddIn\I000000\_ChartAddInBase.h
;	COMDAT ?OnLSharedDataChange@CChartAddInBase000000@@MAEXPBD0@Z
_TEXT	SEGMENT
_p_szLShareKey$ = 8					; size = 4
_p_szLShareValue$ = 12					; size = 4
?OnLSharedDataChange@CChartAddInBase000000@@MAEXPBD0@Z PROC ; CChartAddInBase000000::OnLSharedDataChange, COMDAT
; _this$ = ecx

; 128  : 	virtual void	OnLSharedDataChange( const char *p_szLShareKey, const char *p_szLShareValue)	{}

  00000	c2 08 00	 ret	 8
?OnLSharedDataChange@CChartAddInBase000000@@MAEXPBD0@Z ENDP ; CChartAddInBase000000::OnLSharedDataChange
_TEXT	ENDS
; Function compile flags: /Ogtp
; File D:\git\src\IBK\IBK_DRFN\ProjSrc\SrcChartEx\ChartOCX\AddInManager\Include_AddIn\I000000\_ChartAddInBase.h
;	COMDAT ?OnGSharedDataChange@CChartAddInBase000000@@MAEXPBD0H@Z
_TEXT	SEGMENT
_p_szGShareKey$ = 8					; size = 4
_p_szGShareValue$ = 12					; size = 4
_p_bStartShare$ = 16					; size = 4
?OnGSharedDataChange@CChartAddInBase000000@@MAEXPBD0H@Z PROC ; CChartAddInBase000000::OnGSharedDataChange, COMDAT
; _this$ = ecx

; 126  : 	virtual void	OnGSharedDataChange( const char *p_szGShareKey, const char *p_szGShareValue, BOOL p_bStartShare)	{}

  00000	c2 0c 00	 ret	 12			; 0000000cH
?OnGSharedDataChange@CChartAddInBase000000@@MAEXPBD0H@Z ENDP ; CChartAddInBase000000::OnGSharedDataChange
_TEXT	ENDS
; Function compile flags: /Ogtp
; File D:\git\src\IBK\IBK_DRFN\ProjSrc\SrcChartEx\ChartOCX\AddInManager\Include_AddIn\I000000\_ChartAddInBase.h
;	COMDAT ?ChangeChartMode@CChartAddInBase000000@@MAEXW4CHART_MODE@CChartInfo@@@Z
_TEXT	SEGMENT
_p_eChartMode$ = 8					; size = 4
?ChangeChartMode@CChartAddInBase000000@@MAEXW4CHART_MODE@CChartInfo@@@Z PROC ; CChartAddInBase000000::ChangeChartMode, COMDAT
; _this$ = ecx

; 116  : 	virtual void	ChangeChartMode( CChartInfo::CHART_MODE p_eChartMode)	{	m_eChartMode = p_eChartMode;	}

  00000	55		 push	 ebp
  00001	8b ec		 mov	 ebp, esp
  00003	8b 45 08	 mov	 eax, DWORD PTR _p_eChartMode$[ebp]
  00006	89 41 34	 mov	 DWORD PTR [ecx+52], eax
  00009	5d		 pop	 ebp
  0000a	c2 04 00	 ret	 4
?ChangeChartMode@CChartAddInBase000000@@MAEXW4CHART_MODE@CChartInfo@@@Z ENDP ; CChartAddInBase000000::ChangeChartMode
_TEXT	ENDS
; Function compile flags: /Ogtp
; File D:\git\src\IBK\IBK_DRFN\ProjSrc\SrcChartEx\ChartOCX\AddInManager\Include_AddIn\I000000\_ChartAddInBase.h
;	COMDAT ?AfeterOnOcxDestroyWindow@CChartAddInBase000000@@MAEXXZ
_TEXT	SEGMENT
?AfeterOnOcxDestroyWindow@CChartAddInBase000000@@MAEXXZ PROC ; CChartAddInBase000000::AfeterOnOcxDestroyWindow, COMDAT
; _this$ = ecx

; 109  : 	virtual void	AfeterOnOcxDestroyWindow( void)							{}

  00000	c2 00 00	 ret	 0
?AfeterOnOcxDestroyWindow@CChartAddInBase000000@@MAEXXZ ENDP ; CChartAddInBase000000::AfeterOnOcxDestroyWindow
_TEXT	ENDS
; Function compile flags: /Ogtp
; File D:\git\src\IBK\IBK_DRFN\ProjSrc\SrcChartEx\ChartOCX\AddInManager\Include_AddIn\I000000\_ChartAddInBase.h
;	COMDAT ?InvokeAddIn@CChartAddInBase000000@@MAEHHJ@Z
_TEXT	SEGMENT
_p_nCommandType$ = 8					; size = 4
_p_lData$ = 12						; size = 4
?InvokeAddIn@CChartAddInBase000000@@MAEHHJ@Z PROC	; CChartAddInBase000000::InvokeAddIn, COMDAT
; _this$ = ecx

; 91   : 	virtual BOOL	InvokeAddIn( int p_nCommandType, long p_lData)	{	return FALSE;	}

  00000	33 c0		 xor	 eax, eax
  00002	c2 08 00	 ret	 8
?InvokeAddIn@CChartAddInBase000000@@MAEHHJ@Z ENDP	; CChartAddInBase000000::InvokeAddIn
_TEXT	ENDS
; Function compile flags: /Ogtp
; File D:\git\src\IBK\IBK_DRFN\ProjSrc\SrcChartEx\ChartOCX\AddInManager\Include_AddIn\I000000\_ChartAddInBase.h
;	COMDAT ?GetAddInCustomInterface@CChartAddInBase000000@@MAEPAUIUnknown@@XZ
_TEXT	SEGMENT
?GetAddInCustomInterface@CChartAddInBase000000@@MAEPAUIUnknown@@XZ PROC ; CChartAddInBase000000::GetAddInCustomInterface, COMDAT
; _this$ = ecx

; 87   : 	virtual IUnknown *	GetAddInCustomInterface( void)				{	return NULL;	}

  00000	33 c0		 xor	 eax, eax
  00002	c3		 ret	 0
?GetAddInCustomInterface@CChartAddInBase000000@@MAEPAUIUnknown@@XZ ENDP ; CChartAddInBase000000::GetAddInCustomInterface
_TEXT	ENDS
; Function compile flags: /Ogtp
; File D:\git\src\IBK\IBK_DRFN\ProjSrc\SrcChartEx\ChartOCX\AddInManager\Include_AddIn\I000000\_ChartAddInBase.h
;	COMDAT ?QueryInterface@CChartAddInBase000000@@MAGJABU_GUID@@PAPAX@Z
_TEXT	SEGMENT
_this$ = 8						; size = 4
_iid$ = 12						; size = 4
_ppvObject$ = 16					; size = 4
?QueryInterface@CChartAddInBase000000@@MAGJABU_GUID@@PAPAX@Z PROC ; CChartAddInBase000000::QueryInterface, COMDAT

; 54   : 	_IWRAPPER_IUNKNOWN_INTERFACE()

  00000	b8 02 40 00 80	 mov	 eax, -2147467262	; 80004002H
  00005	c2 0c 00	 ret	 12			; 0000000cH
?QueryInterface@CChartAddInBase000000@@MAGJABU_GUID@@PAPAX@Z ENDP ; CChartAddInBase000000::QueryInterface
_TEXT	ENDS
; Function compile flags: /Ogtp
; File D:\git\src\IBK\IBK_DRFN\ProjSrc\SrcChartEx\ChartOCX\AddInManager\Include_AddIn\I000000\_ChartAddInBase.h
;	COMDAT ?Release@CChartAddInBase000000@@MAGKXZ
_TEXT	SEGMENT
_this$ = 8						; size = 4
?Release@CChartAddInBase000000@@MAGKXZ PROC		; CChartAddInBase000000::Release, COMDAT

; 54   : 	_IWRAPPER_IUNKNOWN_INTERFACE()

  00000	55		 push	 ebp
  00001	8b ec		 mov	 ebp, esp
  00003	5d		 pop	 ebp
  00004	e9 00 00 00 00	 jmp	 ?Release@CIWUnknown@@MAGKXZ ; CIWUnknown::Release
?Release@CChartAddInBase000000@@MAGKXZ ENDP		; CChartAddInBase000000::Release
_TEXT	ENDS
; Function compile flags: /Ogtp
; File D:\git\src\IBK\IBK_DRFN\ProjSrc\SrcChartEx\ChartOCX\AddInManager\Include_AddIn\I000000\_ChartAddInBase.h
;	COMDAT ?AddRef@CChartAddInBase000000@@MAGKXZ
_TEXT	SEGMENT
_this$ = 8						; size = 4
?AddRef@CChartAddInBase000000@@MAGKXZ PROC		; CChartAddInBase000000::AddRef, COMDAT

; 54   : 	_IWRAPPER_IUNKNOWN_INTERFACE()

  00000	55		 push	 ebp
  00001	8b ec		 mov	 ebp, esp
  00003	5d		 pop	 ebp
  00004	e9 00 00 00 00	 jmp	 ?AddRef@CIWUnknown@@MAGKXZ ; CIWUnknown::AddRef
?AddRef@CChartAddInBase000000@@MAGKXZ ENDP		; CChartAddInBase000000::AddRef
_TEXT	ENDS
; Function compile flags: /Ogtp
; File D:\git\src\IBK\IBK_DRFN\ProjSrc\SrcChartEx\ChartOCX\AddInManager\Include_AddIn\_IWUnknown.h
;	COMDAT ?PreDestruct@CIWUnknown@@MAEXXZ
_TEXT	SEGMENT
?PreDestruct@CIWUnknown@@MAEXXZ PROC			; CIWUnknown::PreDestruct, COMDAT
; _this$ = ecx

; 49   : 	virtual void	PreDestruct( void)		{}

  00000	c2 00 00	 ret	 0
?PreDestruct@CIWUnknown@@MAEXXZ ENDP			; CIWUnknown::PreDestruct
_TEXT	ENDS
; Function compile flags: /Ogtp
; File D:\git\src\IBK\IBK_DRFN\ProjSrc\SrcChartEx\ChartOCX\AddInManager\Include_AddIn\_IWUnknown.h
;	COMDAT ?PreDestructX@CIWUnknown@@MAEXXZ
_TEXT	SEGMENT
?PreDestructX@CIWUnknown@@MAEXXZ PROC			; CIWUnknown::PreDestructX, COMDAT
; _this$ = ecx

; 48   : 	virtual void	PreDestructX( void)		{}

  00000	c2 00 00	 ret	 0
?PreDestructX@CIWUnknown@@MAEXXZ ENDP			; CIWUnknown::PreDestructX
_TEXT	ENDS
; Function compile flags: /Ogtp
; File D:\git\src\IBK\IBK_DRFN\ProjSrc\SrcChartEx\ChartOCX\AddInManager\Include_AddIn\_IWUnknown.h
;	COMDAT ?PostConstruct@CIWUnknown@@MAEXXZ
_TEXT	SEGMENT
?PostConstruct@CIWUnknown@@MAEXXZ PROC			; CIWUnknown::PostConstruct, COMDAT
; _this$ = ecx

; 47   : 	virtual void	PostConstruct( void)	{}

  00000	c2 00 00	 ret	 0
?PostConstruct@CIWUnknown@@MAEXXZ ENDP			; CIWUnknown::PostConstruct
_TEXT	ENDS
; Function compile flags: /Ogtp
; File C:\Program Files (x86)\Microsoft Visual Studio\2019\Community\VC\Tools\MSVC\14.29.30133\atlmfc\include\afx.inl
;	COMDAT ?Dump@CObject@@UBEXAAVCDumpContext@@@Z
_TEXT	SEGMENT
___formal$ = 8						; size = 4
?Dump@CObject@@UBEXAAVCDumpContext@@@Z PROC		; CObject::Dump, COMDAT
; _this$ = ecx

; 122  : 	{ /* no dumping in release builds */ }

  00000	c2 04 00	 ret	 4
?Dump@CObject@@UBEXAAVCDumpContext@@@Z ENDP		; CObject::Dump
_TEXT	ENDS
; Function compile flags: /Ogtp
; File C:\Program Files (x86)\Microsoft Visual Studio\2019\Community\VC\Tools\MSVC\14.29.30133\atlmfc\include\afx.inl
;	COMDAT ?AssertValid@CObject@@UBEXXZ
_TEXT	SEGMENT
?AssertValid@CObject@@UBEXXZ PROC			; CObject::AssertValid, COMDAT
; _this$ = ecx

; 120  : 	{ /* no asserts in release builds */ }

  00000	c2 00 00	 ret	 0
?AssertValid@CObject@@UBEXXZ ENDP			; CObject::AssertValid
_TEXT	ENDS
; Function compile flags: /Ogtp
; File C:\Program Files (x86)\Microsoft Visual Studio\2019\Community\VC\Tools\MSVC\14.29.30133\atlmfc\include\afx.inl
;	COMDAT ?Serialize@CObject@@UAEXAAVCArchive@@@Z
_TEXT	SEGMENT
___formal$ = 8						; size = 4
?Serialize@CObject@@UAEXAAVCArchive@@@Z PROC		; CObject::Serialize, COMDAT
; _this$ = ecx

; 106  : 	{ /* CObject does not serialize anything by default */ }

  00000	c2 04 00	 ret	 4
?Serialize@CObject@@UAEXAAVCArchive@@@Z ENDP		; CObject::Serialize
_TEXT	ENDS
; Function compile flags: /Ogtp
; File D:\git\src\IBK\IBK_DRFN\ProjSrc\SrcChartEx\ChartOCX\AddInManager\ChartCommonAddIn\OrderLinkAddInImp.cpp
;	COMDAT ?__empty_global_delete@@YAXPAXI@Z
_TEXT	SEGMENT
___formal$ = 8						; size = 4
___formal$ = 12						; size = 4
?__empty_global_delete@@YAXPAXI@Z PROC			; __empty_global_delete, COMDAT

  00000	c2 00 00	 ret	 0
?__empty_global_delete@@YAXPAXI@Z ENDP			; __empty_global_delete
_TEXT	ENDS
; Function compile flags: /Ogtp
; File D:\git\src\IBK\IBK_DRFN\ProjSrc\SrcChartEx\ChartOCX\AddInManager\ChartCommonAddIn\OrderLinkAddInImp.cpp
;	COMDAT ?__empty_global_delete@@YAXPAX@Z
_TEXT	SEGMENT
___formal$ = 8						; size = 4
?__empty_global_delete@@YAXPAX@Z PROC			; __empty_global_delete, COMDAT

  00000	c2 00 00	 ret	 0
?__empty_global_delete@@YAXPAX@Z ENDP			; __empty_global_delete
_TEXT	ENDS
END
