; Listing generated by Microsoft (R) Optimizing Compiler Version 19.29.30145.0 

	TITLE	D:\git\src\IBK\IBK_DRFN\#DRfn-CS\_Obj\ChartCommonAddIn\OrderLineAddinImp.obj
	.686P
	.XMM
	include listing.inc
	.model	flat

INCLUDELIB MSVCRT
INCLUDELIB OLDNAMES

PUBLIC	??_C@_0L@ELKNJAAE@ORDER_LINE@			; `string'
PUBLIC	?m_eRegisteredEventMap@COrderLineAddInImp@@1QBW4EAddInEventType@IChartAddIn000000@@B ; COrderLineAddInImp::m_eRegisteredEventMap
PUBLIC	??_C@_0BC@MMPGLPDH@RMS_ANALYSIS_FUNC@		; `string'
;	COMDAT ??_C@_0BC@MMPGLPDH@RMS_ANALYSIS_FUNC@
CONST	SEGMENT
??_C@_0BC@MMPGLPDH@RMS_ANALYSIS_FUNC@ DB 'RMS_ANALYSIS_FUNC', 00H ; `string'
CONST	ENDS
CONST	SEGMENT
?m_eRegisteredEventMap@COrderLineAddInImp@@1QBW4EAddInEventType@IChartAddIn000000@@B DD 014H ; COrderLineAddInImp::m_eRegisteredEventMap
	DD	015H
	DD	035H
	DD	022H
	DD	01dH
	DD	01aH
	DD	01bH
	DD	021H
	DD	02fH
	DD	022H
	DD	030H
	DD	03cH
	ORG $+196
CONST	ENDS
;	COMDAT ??_C@_0L@ELKNJAAE@ORDER_LINE@
CONST	SEGMENT
??_C@_0L@ELKNJAAE@ORDER_LINE@ DB 'ORDER_LINE', 00H	; `string'
CONST	ENDS
PUBLIC	??_H@YGXPAXIIP6EPAX0@Z@Z			; `vector constructor iterator'
PUBLIC	?__empty_global_delete@@YAXPAX@Z		; __empty_global_delete
PUBLIC	?__empty_global_delete@@YAXPAXI@Z		; __empty_global_delete
PUBLIC	??1CObject@@UAE@XZ				; CObject::~CObject
PUBLIC	?Serialize@CObject@@UAEXAAVCArchive@@@Z		; CObject::Serialize
PUBLIC	?AssertValid@CObject@@UBEXXZ			; CObject::AssertValid
PUBLIC	?Dump@CObject@@UBEXAAVCDumpContext@@@Z		; CObject::Dump
PUBLIC	??0CPoint@@QAE@XZ				; CPoint::CPoint
PUBLIC	??8CPoint@@QBEHUtagPOINT@@@Z			; CPoint::operator==
PUBLIC	??1CGdiObject@@UAE@XZ				; CGdiObject::~CGdiObject
PUBLIC	??_GCGdiObject@@UAEPAXI@Z			; CGdiObject::`scalar deleting destructor'
PUBLIC	??1CPen@@UAE@XZ					; CPen::~CPen
PUBLIC	??_GCPen@@UAEPAXI@Z				; CPen::`scalar deleting destructor'
PUBLIC	??1CBrush@@UAE@XZ				; CBrush::~CBrush
PUBLIC	??_GCBrush@@UAEPAXI@Z				; CBrush::`scalar deleting destructor'
PUBLIC	??1CMenu@@UAE@XZ				; CMenu::~CMenu
PUBLIC	??_GCMenu@@UAEPAXI@Z				; CMenu::`scalar deleting destructor'
PUBLIC	?PostConstruct@CIWUnknown@@MAEXXZ		; CIWUnknown::PostConstruct
PUBLIC	?PreDestructX@CIWUnknown@@MAEXXZ		; CIWUnknown::PreDestructX
PUBLIC	?PreDestruct@CIWUnknown@@MAEXXZ			; CIWUnknown::PreDestruct
PUBLIC	?AddRef@CChartAddInBase000000@@MAGKXZ		; CChartAddInBase000000::AddRef
PUBLIC	?Release@CChartAddInBase000000@@MAGKXZ		; CChartAddInBase000000::Release
PUBLIC	?QueryInterface@CChartAddInBase000000@@MAGJABU_GUID@@PAPAX@Z ; CChartAddInBase000000::QueryInterface
PUBLIC	?GetAddInCustomInterface@CChartAddInBase000000@@MAEPAUIUnknown@@XZ ; CChartAddInBase000000::GetAddInCustomInterface
PUBLIC	?AfeterOnOcxDestroyWindow@CChartAddInBase000000@@MAEXXZ ; CChartAddInBase000000::AfeterOnOcxDestroyWindow
PUBLIC	?ChangeChartMode@CChartAddInBase000000@@MAEXW4CHART_MODE@CChartInfo@@@Z ; CChartAddInBase000000::ChangeChartMode
PUBLIC	?OnGSharedDataChange@CChartAddInBase000000@@MAEXPBD0H@Z ; CChartAddInBase000000::OnGSharedDataChange
PUBLIC	?OnLSharedDataChange@CChartAddInBase000000@@MAEXPBD0@Z ; CChartAddInBase000000::OnLSharedDataChange
PUBLIC	?OnPacketDataMultiItem@CChartAddInBase000000@@MAEXPBD0H@Z ; CChartAddInBase000000::OnPacketDataMultiItem
PUBLIC	?OnTimer@CChartAddInBase000000@@MAEXI@Z		; CChartAddInBase000000::OnTimer
PUBLIC	?OnCaptureChanged@CChartAddInBase000000@@MAEXPAUHWND__@@QAUHBITMAP__@@@Z ; CChartAddInBase000000::OnCaptureChanged
PUBLIC	?OnResetMainBlock@CChartAddInBase000000@@MAEXXZ	; CChartAddInBase000000::OnResetMainBlock
PUBLIC	?OnUserIndiatorConditionLoaded@CChartAddInBase000000@@MAEXXZ ; CChartAddInBase000000::OnUserIndiatorConditionLoaded
PUBLIC	?OnChartItemChanged@CChartAddInBase000000@@MAEXXZ ; CChartAddInBase000000::OnChartItemChanged
PUBLIC	?OnGraphDataChanged@CChartAddInBase000000@@MAEXXZ ; CChartAddInBase000000::OnGraphDataChanged
PUBLIC	?OnBlockRemoved@CChartAddInBase000000@@MAEXHH@Z	; CChartAddInBase000000::OnBlockRemoved
PUBLIC	?OnGraphAdded@CChartAddInBase000000@@MAEXPBD0@Z	; CChartAddInBase000000::OnGraphAdded
PUBLIC	?OnManualRealData@CChartAddInBase000000@@MAEXPBDNH@Z ; CChartAddInBase000000::OnManualRealData
PUBLIC	?OnContextMenu@CChartAddInBase000000@@MAEXPAUHWND__@@AAUtagPOINT@@@Z ; CChartAddInBase000000::OnContextMenu
PUBLIC	?OnGraphDeleted@CChartAddInBase000000@@MAEXPBD0@Z ; CChartAddInBase000000::OnGraphDeleted
PUBLIC	?OnPacketTruncated@CChartAddInBase000000@@MAEXH@Z ; CChartAddInBase000000::OnPacketTruncated
PUBLIC	?OnBlockChanged@CChartAddInBase000000@@MAEXW4BLOCKBEHAVIOR@CBlockBaseData@@HHHH@Z ; CChartAddInBase000000::OnBlockChanged
PUBLIC	?OnIndexedRealData@CChartAddInBase000000@@MAEXPBDHN@Z ; CChartAddInBase000000::OnIndexedRealData
PUBLIC	?OnRealPacketEnd@CChartAddInBase000000@@MAEXPBD@Z ; CChartAddInBase000000::OnRealPacketEnd
PUBLIC	?OnLoadEnvironment@CChartAddInBase000000@@MAEXPAUIPropertyMap@@@Z ; CChartAddInBase000000::OnLoadEnvironment
PUBLIC	?OnSaveEnvironment@CChartAddInBase000000@@MAEXPAUIPropertyMap@@@Z ; CChartAddInBase000000::OnSaveEnvironment
PUBLIC	?OnRecalculationComplete@CChartAddInBase000000@@MAEXXZ ; CChartAddInBase000000::OnRecalculationComplete
PUBLIC	?OnPreRealData@CChartAddInBase000000@@MAEHPBDAAN0H@Z ; CChartAddInBase000000::OnPreRealData
PUBLIC	?OnPreIndexedRealData@CChartAddInBase000000@@MAEHPBDHAANH@Z ; CChartAddInBase000000::OnPreIndexedRealData
PUBLIC	?OnPreRealPacketEnd@CChartAddInBase000000@@MAEHPBDH@Z ; CChartAddInBase000000::OnPreRealPacketEnd
PUBLIC	?OnPreNMTRClock@CChartAddInBase000000@@MAEHAA_J@Z ; CChartAddInBase000000::OnPreNMTRClock
PUBLIC	?OnCmdMsg@CChartAddInBase000000@@MAEHIHPAUICmdUI000000@@@Z ; CChartAddInBase000000::OnCmdMsg
PUBLIC	?OnAddInMsg@CChartAddInBase000000@@MAEHPBDJ@Z	; CChartAddInBase000000::OnAddInMsg
PUBLIC	?OnAddInToolCommand@CChartAddInBase000000@@MAEHW4EAICommandType@@@Z ; CChartAddInBase000000::OnAddInToolCommand
PUBLIC	?OnAddInToolCommand@CChartAddInBase000000@@MAEHW4EAICommandType@@PAUHDC__@@IAAUtagPOINT@@K@Z ; CChartAddInBase000000::OnAddInToolCommand
PUBLIC	?OnAddInToolCommand@CChartAddInBase000000@@MAEHW4EAICommandType@@PBD@Z ; CChartAddInBase000000::OnAddInToolCommand
PUBLIC	?OnAddInToolCommand@CChartAddInBase000000@@MAEHW4EAICommandType@@PBD1@Z ; CChartAddInBase000000::OnAddInToolCommand
PUBLIC	?OnAddInToolCommand@CChartAddInBase000000@@MAEHW4EAICommandType@@PBDJ@Z ; CChartAddInBase000000::OnAddInToolCommand
PUBLIC	?OnAddInToolCommand@CChartAddInBase000000@@MAEHW4EAICommandType@@PBUIAddInDllBase@@@Z ; CChartAddInBase000000::OnAddInToolCommand
PUBLIC	?OnAddInToolCommand@CChartAddInBase000000@@MAEHW4EAICommandType@@J@Z ; CChartAddInBase000000::OnAddInToolCommand
PUBLIC	?OnAddInToolCommand@CChartAddInBase000000@@MAEHW4EAICommandType@@JPBD@Z ; CChartAddInBase000000::OnAddInToolCommand
PUBLIC	?OnAddInToolCommand@CChartAddInBase000000@@MAEHW4EAICommandType@@JPBD11@Z ; CChartAddInBase000000::OnAddInToolCommand
PUBLIC	?OnAddInToolCommand@CChartAddInBase000000@@MAEHW4EAICommandType@@JJ@Z ; CChartAddInBase000000::OnAddInToolCommand
PUBLIC	?OnAddInToolCommand@CChartAddInBase000000@@MAEHW4EAICommandType@@JJJJJJJJJ@Z ; CChartAddInBase000000::OnAddInToolCommand
PUBLIC	?OnAddInToolCommand@CChartAddInBase000000@@MAEHAAJW4EAICommandType@@@Z ; CChartAddInBase000000::OnAddInToolCommand
PUBLIC	?OnAddInToolCommand@CChartAddInBase000000@@MAEHAAJW4EAICommandType@@PAUIGraphInfo000000@@@Z ; CChartAddInBase000000::OnAddInToolCommand
PUBLIC	?OnAddInToolCommand@CChartAddInBase000000@@MAEHAAJW4EAICommandType@@PBD@Z ; CChartAddInBase000000::OnAddInToolCommand
PUBLIC	?OnAddInToolCommand@CChartAddInBase000000@@MAEHAAJW4EAICommandType@@PBDPAVCObject@@@Z ; CChartAddInBase000000::OnAddInToolCommand
PUBLIC	?OnAddInToolCommand@CChartAddInBase000000@@MAEHAAJW4EAICommandType@@J@Z ; CChartAddInBase000000::OnAddInToolCommand
PUBLIC	?OnAddInToolCommand@CChartAddInBase000000@@MAEHAAJW4EAICommandType@@JJ@Z ; CChartAddInBase000000::OnAddInToolCommand
PUBLIC	?OnKeyDown@CChartAddInBase000000@@MAEHIII@Z	; CChartAddInBase000000::OnKeyDown
PUBLIC	?OnKeyUp@CChartAddInBase000000@@MAEHIII@Z	; CChartAddInBase000000::OnKeyUp
PUBLIC	?OnMouseWheel@CChartAddInBase000000@@MAEHIFUtagPOINT@@K@Z ; CChartAddInBase000000::OnMouseWheel
PUBLIC	?OnLButtonDblClk@CChartAddInBase000000@@MAEHPAUHDC__@@IAAUtagPOINT@@K@Z ; CChartAddInBase000000::OnLButtonDblClk
PUBLIC	?OnRButtonDown@CChartAddInBase000000@@MAEHPAUHDC__@@IAAUtagPOINT@@K@Z ; CChartAddInBase000000::OnRButtonDown
PUBLIC	?OnRButtonDblClk@CChartAddInBase000000@@MAEHPAUHDC__@@IAAUtagPOINT@@K@Z ; CChartAddInBase000000::OnRButtonDblClk
PUBLIC	??0COrderLine@@QAE@XZ				; COrderLine::COrderLine
PUBLIC	??0COrderLine@@QAE@VCPoint@@0N@Z		; COrderLine::COrderLine
PUBLIC	??1COrderLine@@UAE@XZ				; COrderLine::~COrderLine
PUBLIC	?GetPrevPoint@COrderLine@@QAE?AVCPoint@@XZ	; COrderLine::GetPrevPoint
PUBLIC	?GetEndPoint@COrderLine@@QAE?AVCPoint@@XZ	; COrderLine::GetEndPoint
PUBLIC	?ShowOrderLine@COrderLine@@QAEXPAVCDC@@@Z	; COrderLine::ShowOrderLine
PUBLIC	?HideOrderLine@COrderLine@@QAEXPAVCDC@@@Z	; COrderLine::HideOrderLine
PUBLIC	?IsInRegion@COrderLine@@QAEHVCPoint@@@Z		; COrderLine::IsInRegion
PUBLIC	?IsOnLine@COrderLine@@QAEHVCPoint@@@Z		; COrderLine::IsOnLine
PUBLIC	?IsOnTable@COrderLine@@QAEHVCPoint@@@Z		; COrderLine::IsOnTable
PUBLIC	?GetRect@COrderLine@@QAE?AVCRect@@XZ		; COrderLine::GetRect
PUBLIC	?GetPostion@COrderLine@@QAE?AVCPoint@@XZ	; COrderLine::GetPostion
PUBLIC	?SetPosition@COrderLine@@QAEXVCPoint@@H@Z	; COrderLine::SetPosition
PUBLIC	?MouseLButtonDown@COrderLine@@QAEXABVCPoint@@@Z	; COrderLine::MouseLButtonDown
PUBLIC	?MouseLButtonUp@COrderLine@@QAEXABVCPoint@@@Z	; COrderLine::MouseLButtonUp
PUBLIC	?MouseRButtonUp@COrderLine@@QAEXABVCPoint@@@Z	; COrderLine::MouseRButtonUp
PUBLIC	?Draw@COrderLine@@QAEXPAVCDC@@@Z		; COrderLine::Draw
PUBLIC	?DrawOrderLine@COrderLine@@QAEXPAVCDC@@@Z	; COrderLine::DrawOrderLine
PUBLIC	?DrawChgLine@COrderLine@@QAEXPAVCDC@@@Z		; COrderLine::DrawChgLine
PUBLIC	?DrawOrderLineOnMouseOver@COrderLine@@QAEXPAVCDC@@@Z ; COrderLine::DrawOrderLineOnMouseOver
PUBLIC	?DrawOrderText@COrderLine@@QAEXPAVCDC@@@Z	; COrderLine::DrawOrderText
PUBLIC	?DrawOrderTable@COrderLine@@QAEXPAVCDC@@@Z	; COrderLine::DrawOrderTable
PUBLIC	?DrawEscapeTriangle@COrderLine@@QAEXPAVCDC@@@Z	; COrderLine::DrawEscapeTriangle
PUBLIC	??_GCOrderLine@@UAEPAXI@Z			; COrderLine::`scalar deleting destructor'
PUBLIC	??0COrderLineAddInImp@@QAE@PAUIChartOCX000000@@PAUIAddInDllBase@@@Z ; COrderLineAddInImp::COrderLineAddInImp
PUBLIC	??1COrderLineAddInImp@@UAE@XZ			; COrderLineAddInImp::~COrderLineAddInImp
PUBLIC	?GetRegisteredEventMap@COrderLineAddInImp@@MBEPBW4EAddInEventType@IChartAddIn000000@@XZ ; COrderLineAddInImp::GetRegisteredEventMap
PUBLIC	?SetMouseCursor@COrderLineAddInImp@@QAEXH@Z	; COrderLineAddInImp::SetMouseCursor
PUBLIC	?SetOpenPosition@COrderLineAddInImp@@QAEXPAUFX_CHE_STRUCT@@@Z ; COrderLineAddInImp::SetOpenPosition
PUBLIC	?SetPendingPosition@COrderLineAddInImp@@QAEXPAUFX_CHE_STRUCT@@@Z ; COrderLineAddInImp::SetPendingPosition
PUBLIC	?AddOpenPosition@COrderLineAddInImp@@QAEXPAUFX_CHE_STRUCT@@@Z ; COrderLineAddInImp::AddOpenPosition
PUBLIC	?AddPendingPosition@COrderLineAddInImp@@QAEXPAUFX_CHE_STRUCT@@@Z ; COrderLineAddInImp::AddPendingPosition
PUBLIC	?CheckIsLineInScreen@COrderLineAddInImp@@QAEXPAVCOrderLine@@@Z ; COrderLineAddInImp::CheckIsLineInScreen
PUBLIC	?SetData@COrderLineAddInImp@@QAEXPAVCOrderLine@@PAUFX_CHE_STRUCT@@H@Z ; COrderLineAddInImp::SetData
PUBLIC	?SetOrderInfomation@COrderLineAddInImp@@QAEXXZ	; COrderLineAddInImp::SetOrderInfomation
PUBLIC	?GetGraphBlockRegion@COrderLineAddInImp@@IAEHXZ	; COrderLineAddInImp::GetGraphBlockRegion
PUBLIC	?GetGraphVScaleRegion@COrderLineAddInImp@@IAEHXZ ; COrderLineAddInImp::GetGraphVScaleRegion
PUBLIC	?SetRemove_OrderLine@COrderLineAddInImp@@IAEXXZ	; COrderLineAddInImp::SetRemove_OrderLine
PUBLIC	?OnLButtonDownForYZoom@COrderLineAddInImp@@IAEHPAUHDC__@@IAAUtagPOINT@@K@Z ; COrderLineAddInImp::OnLButtonDownForYZoom
PUBLIC	?OnMouseMoveForYZoom@COrderLineAddInImp@@IAEHPAUHDC__@@IAAUtagPOINT@@KQAUHBITMAP__@@@Z ; COrderLineAddInImp::OnMouseMoveForYZoom
PUBLIC	?OnLButtonUpForYZoom@COrderLineAddInImp@@IAEHPAUHDC__@@IAAUtagPOINT@@K@Z ; COrderLineAddInImp::OnLButtonUpForYZoom
PUBLIC	?InvokeAddInStr@COrderLineAddInImp@@MAEHPBD0@Z	; COrderLineAddInImp::InvokeAddInStr
PUBLIC	?OnResetChart@COrderLineAddInImp@@MAEXXZ	; COrderLineAddInImp::OnResetChart
PUBLIC	?OnDrawAfterGraph@COrderLineAddInImp@@MAEXPAUHDC__@@@Z ; COrderLineAddInImp::OnDrawAfterGraph
PUBLIC	?OnDrawBeforeGraph@COrderLineAddInImp@@MAEXPAUHDC__@@@Z ; COrderLineAddInImp::OnDrawBeforeGraph
PUBLIC	?DrawCursor@COrderLineAddInImp@@MAE?AUtagRECT@@PAUHDC__@@@Z ; COrderLineAddInImp::DrawCursor
PUBLIC	?OnMouseMove@COrderLineAddInImp@@MAEHPAUHDC__@@IAAUtagPOINT@@KQAUHBITMAP__@@@Z ; COrderLineAddInImp::OnMouseMove
PUBLIC	?OnLButtonDown@COrderLineAddInImp@@MAEHPAUHDC__@@IAAUtagPOINT@@K@Z ; COrderLineAddInImp::OnLButtonDown
PUBLIC	?OnLButtonUp@COrderLineAddInImp@@MAEHPAUHDC__@@IAAUtagPOINT@@K@Z ; COrderLineAddInImp::OnLButtonUp
PUBLIC	?OnRButtonUp@COrderLineAddInImp@@MAEHPAUHDC__@@IAAUtagPOINT@@K@Z ; COrderLineAddInImp::OnRButtonUp
PUBLIC	?OnToolCommand@COrderLineAddInImp@@MAEXHH@Z	; COrderLineAddInImp::OnToolCommand
PUBLIC	?OnRealData@COrderLineAddInImp@@MAEXPBDN0@Z	; COrderLineAddInImp::OnRealData
PUBLIC	?InvokeAddIn@COrderLineAddInImp@@MAEHHJ@Z	; COrderLineAddInImp::InvokeAddIn
PUBLIC	??_GCOrderLineAddInImp@@UAEPAXI@Z		; COrderLineAddInImp::`scalar deleting destructor'
PUBLIC	??1CMultiLanguageResourceSetter@@QAE@XZ		; CMultiLanguageResourceSetter::~CMultiLanguageResourceSetter
PUBLIC	??1ILPCSTR000000@@QAE@XZ			; ILPCSTR000000::~ILPCSTR000000
PUBLIC	?QueryInterface@CChartAddInBase000000@@O7AGJABU_GUID@@PAPAX@Z ; [thunk]:CChartAddInBase000000::QueryInterface`adjustor{8}'
PUBLIC	?AddRef@CChartAddInBase000000@@O7AGKXZ		; [thunk]:CChartAddInBase000000::AddRef`adjustor{8}'
PUBLIC	?Release@CChartAddInBase000000@@O7AGKXZ		; [thunk]:CChartAddInBase000000::Release`adjustor{8}'
PUBLIC	??_ECOrderLineAddInImp@@W7AEPAXI@Z		; [thunk]:COrderLineAddInImp::`vector deleting destructor'
PUBLIC	??_R0PAVCException@@@8				; CException * `RTTI Type Descriptor'
PUBLIC	??_C@_00CNPNBAHC@@				; `string'
PUBLIC	??_7CGdiObject@@6B@				; CGdiObject::`vftable'
PUBLIC	??_7CPen@@6B@					; CPen::`vftable'
PUBLIC	??_7CBrush@@6B@					; CBrush::`vftable'
PUBLIC	??_7CMenu@@6B@					; CMenu::`vftable'
PUBLIC	??_C@_0HD@JJCHHHNK@C?3?2Program?5Files?5?$CIx86?$CJ?2Microsof@ ; `string'
PUBLIC	??_C@_0BP@OIEOKIDM@Exception?5thrown?5in?5destructor@ ; `string'
PUBLIC	??_C@_0BB@HBOOMJBF@?$CFTs?5?$CI?$CFTs?3?$CFd?$CJ?6?$CFTs@ ; `string'
PUBLIC	??_C@_0N@OMEMOKLE@?$CFTs?5?$CI?$CFTs?3?$CFd?$CJ@ ; `string'
PUBLIC	??_R0?AVCObject@@@8				; CObject `RTTI Type Descriptor'
PUBLIC	??_R3CObject@@8					; CObject::`RTTI Class Hierarchy Descriptor'
PUBLIC	??_R2CObject@@8					; CObject::`RTTI Base Class Array'
PUBLIC	??_R1A@?0A@EA@CObject@@8			; CObject::`RTTI Base Class Descriptor at (0,-1,0,64)'
PUBLIC	??_R0?AUIUnknown@@@8				; IUnknown `RTTI Type Descriptor'
PUBLIC	??_R3IUnknown@@8				; IUnknown::`RTTI Class Hierarchy Descriptor'
PUBLIC	??_R2IUnknown@@8				; IUnknown::`RTTI Base Class Array'
PUBLIC	??_R1A@?0A@EA@IUnknown@@8			; IUnknown::`RTTI Base Class Descriptor at (0,-1,0,64)'
PUBLIC	??_R4CGdiObject@@6B@				; CGdiObject::`RTTI Complete Object Locator'
PUBLIC	??_R0?AVCGdiObject@@@8				; CGdiObject `RTTI Type Descriptor'
PUBLIC	??_R3CGdiObject@@8				; CGdiObject::`RTTI Class Hierarchy Descriptor'
PUBLIC	??_R2CGdiObject@@8				; CGdiObject::`RTTI Base Class Array'
PUBLIC	??_R1A@?0A@EA@CGdiObject@@8			; CGdiObject::`RTTI Base Class Descriptor at (0,-1,0,64)'
PUBLIC	??_R4CPen@@6B@					; CPen::`RTTI Complete Object Locator'
PUBLIC	??_R0?AVCPen@@@8				; CPen `RTTI Type Descriptor'
PUBLIC	??_R3CPen@@8					; CPen::`RTTI Class Hierarchy Descriptor'
PUBLIC	??_R2CPen@@8					; CPen::`RTTI Base Class Array'
PUBLIC	??_R1A@?0A@EA@CPen@@8				; CPen::`RTTI Base Class Descriptor at (0,-1,0,64)'
PUBLIC	??_R4CBrush@@6B@				; CBrush::`RTTI Complete Object Locator'
PUBLIC	??_R0?AVCBrush@@@8				; CBrush `RTTI Type Descriptor'
PUBLIC	??_R3CBrush@@8					; CBrush::`RTTI Class Hierarchy Descriptor'
PUBLIC	??_R2CBrush@@8					; CBrush::`RTTI Base Class Array'
PUBLIC	??_R1A@?0A@EA@CBrush@@8				; CBrush::`RTTI Base Class Descriptor at (0,-1,0,64)'
PUBLIC	??_R4CMenu@@6B@					; CMenu::`RTTI Complete Object Locator'
PUBLIC	??_R0?AVCMenu@@@8				; CMenu `RTTI Type Descriptor'
PUBLIC	??_R3CMenu@@8					; CMenu::`RTTI Class Hierarchy Descriptor'
PUBLIC	??_R2CMenu@@8					; CMenu::`RTTI Base Class Array'
PUBLIC	??_R1A@?0A@EA@CMenu@@8				; CMenu::`RTTI Base Class Descriptor at (0,-1,0,64)'
PUBLIC	??_7COrderLine@@6B@				; COrderLine::`vftable'
PUBLIC	?m_strAddInItemName@COrderLineAddInImp@@2V?$CStringT@DV?$StrTraitMFC_DLL@DV?$ChTraitsCRT@D@ATL@@@@@ATL@@A ; COrderLineAddInImp::m_strAddInItemName
PUBLIC	??_7COrderLineAddInImp@@6BCIWUnknown@@@		; COrderLineAddInImp::`vftable'
PUBLIC	??_7COrderLineAddInImp@@6BIChartAddIn000000@@@	; COrderLineAddInImp::`vftable'
PUBLIC	??_C@_0BM@BMIJCGLB@Entry?$CIB?$CJ?$CI10?901?507?310?0?543?41?$CJ@ ; `string'
PUBLIC	??_C@_07MGCPDNLD@DEFAULT@			; `string'
PUBLIC	??_C@_0BE@ILPILJFK@Create?5Market?5Order@	; `string'
PUBLIC	??_C@_0BE@LPJNJHO@Create?5Entry?5?5Order@	; `string'
PUBLIC	??_C@_0N@HFBPCBAG@Change?5Order@		; `string'
PUBLIC	??_C@_0N@NMECPAHM@Remove?5Order@		; `string'
PUBLIC	??_C@_02BFICIOJL@ON@				; `string'
PUBLIC	??_R0?AUIChartAddIn000000@@@8			; IChartAddIn000000 `RTTI Type Descriptor'
PUBLIC	??_R3IChartAddIn000000@@8			; IChartAddIn000000::`RTTI Class Hierarchy Descriptor'
PUBLIC	??_R2IChartAddIn000000@@8			; IChartAddIn000000::`RTTI Base Class Array'
PUBLIC	??_R1A@?0A@EA@IChartAddIn000000@@8		; IChartAddIn000000::`RTTI Base Class Descriptor at (0,-1,0,64)'
PUBLIC	??_R4COrderLine@@6B@				; COrderLine::`RTTI Complete Object Locator'
PUBLIC	??_R0?AVCOrderLine@@@8				; COrderLine `RTTI Type Descriptor'
PUBLIC	??_R3COrderLine@@8				; COrderLine::`RTTI Class Hierarchy Descriptor'
PUBLIC	??_R2COrderLine@@8				; COrderLine::`RTTI Base Class Array'
PUBLIC	??_R1A@?0A@EA@COrderLine@@8			; COrderLine::`RTTI Base Class Descriptor at (0,-1,0,64)'
PUBLIC	??_R4COrderLineAddInImp@@6BCIWUnknown@@@	; COrderLineAddInImp::`RTTI Complete Object Locator'
PUBLIC	??_R0?AVCOrderLineAddInImp@@@8			; COrderLineAddInImp `RTTI Type Descriptor'
PUBLIC	??_R3COrderLineAddInImp@@8			; COrderLineAddInImp::`RTTI Class Hierarchy Descriptor'
PUBLIC	??_R2COrderLineAddInImp@@8			; COrderLineAddInImp::`RTTI Base Class Array'
PUBLIC	??_R1A@?0A@EA@COrderLineAddInImp@@8		; COrderLineAddInImp::`RTTI Base Class Descriptor at (0,-1,0,64)'
PUBLIC	??_R1A@?0A@EA@CChartAddInBase000000@@8		; CChartAddInBase000000::`RTTI Base Class Descriptor at (0,-1,0,64)'
PUBLIC	??_R0?AVCChartAddInBase000000@@@8		; CChartAddInBase000000 `RTTI Type Descriptor'
PUBLIC	??_R3CChartAddInBase000000@@8			; CChartAddInBase000000::`RTTI Class Hierarchy Descriptor'
PUBLIC	??_R2CChartAddInBase000000@@8			; CChartAddInBase000000::`RTTI Base Class Array'
PUBLIC	??_R1A@?0A@EA@CIWUnknown@@8			; CIWUnknown::`RTTI Base Class Descriptor at (0,-1,0,64)'
PUBLIC	??_R0?AVCIWUnknown@@@8				; CIWUnknown `RTTI Type Descriptor'
PUBLIC	??_R3CIWUnknown@@8				; CIWUnknown::`RTTI Class Hierarchy Descriptor'
PUBLIC	??_R2CIWUnknown@@8				; CIWUnknown::`RTTI Base Class Array'
PUBLIC	??_R17?0A@EA@IChartAddIn000000@@8		; IChartAddIn000000::`RTTI Base Class Descriptor at (8,-1,0,64)'
PUBLIC	??_R17?0A@EA@IUnknown@@8			; IUnknown::`RTTI Base Class Descriptor at (8,-1,0,64)'
PUBLIC	??_R4COrderLineAddInImp@@6BIChartAddIn000000@@@	; COrderLineAddInImp::`RTTI Complete Object Locator'
PUBLIC	__real@0000000000000000
PUBLIC	__real@3fe0000000000000
PUBLIC	__real@4024000000000000
PUBLIC	__real@41efffffffe00000
PUBLIC	__xmm@41f00000000000000000000000000000
EXTRN	??2@YAPAXI@Z:PROC				; operator new
EXTRN	??3@YAXPAX@Z:PROC				; operator delete
EXTRN	??3@YAXPAXI@Z:PROC				; operator delete
EXTRN	?__global_delete@@YAXPAXI@Z:PROC		; __global_delete
EXTRN	_atexit:PROC
EXTRN	___std_terminate:PROC
EXTRN	__imp__stricmp:PROC
EXTRN	__imp__Rectangle@20:PROC
EXTRN	__imp__SelectObject@8:PROC
EXTRN	__imp__Polygon@12:PROC
EXTRN	__imp__RegisterWindowMessageA@4:PROC
EXTRN	__imp__SendMessageA@16:PROC
EXTRN	__imp__CreatePopupMenu@0:PROC
EXTRN	__imp__AppendMenuA@16:PROC
EXTRN	__imp__SetRectEmpty@4:PROC
EXTRN	__imp__CopyRect@8:PROC
EXTRN	__imp__IsRectEmpty@4:PROC
EXTRN	__imp__PtInRect@12:PROC
EXTRN	__imp__LoadCursorW@8:PROC
EXTRN	__imp__atof:PROC
EXTRN	?AfxThrowInvalidArgException@@YGXXZ:PROC	; AfxThrowInvalidArgException
EXTRN	?GetRuntimeClass@CObject@@UBEPAUCRuntimeClass@@XZ:PROC ; CObject::GetRuntimeClass
EXTRN	__imp_??0?$CStringT@DV?$StrTraitMFC_DLL@DV?$ChTraitsCRT@D@ATL@@@@@ATL@@QAE@XZ:PROC
EXTRN	__imp_??0?$CStringT@DV?$StrTraitMFC_DLL@DV?$ChTraitsCRT@D@ATL@@@@@ATL@@QAE@PBD@Z:PROC
EXTRN	__imp_??0?$CStringT@DV?$StrTraitMFC_DLL@DV?$ChTraitsCRT@D@ATL@@@@@ATL@@QAE@PBDH@Z:PROC
EXTRN	__imp_??1?$CStringT@DV?$StrTraitMFC_DLL@DV?$ChTraitsCRT@D@ATL@@@@@ATL@@QAE@XZ:PROC
EXTRN	__imp_??4?$CStringT@DV?$StrTraitMFC_DLL@DV?$ChTraitsCRT@D@ATL@@@@@ATL@@QAEAAV01@ABV01@@Z:PROC
EXTRN	__imp_??4?$CStringT@DV?$StrTraitMFC_DLL@DV?$ChTraitsCRT@D@ATL@@@@@ATL@@QAEAAV01@PBD@Z:PROC
EXTRN	__imp_?Format@?$CStringT@DV?$StrTraitMFC_DLL@DV?$ChTraitsCRT@D@ATL@@@@@ATL@@QAAXPBDZZ:PROC
EXTRN	??0CObList@@QAE@H@Z:PROC			; CObList::CObList
EXTRN	?AddTail@CObList@@QAEPAU__POSITION@@PAVCObject@@@Z:PROC ; CObList::AddTail
EXTRN	?RemoveAll@CObList@@QAEXXZ:PROC			; CObList::RemoveAll
EXTRN	?RemoveAt@CObList@@QAEXPAU__POSITION@@@Z:PROC	; CObList::RemoveAt
EXTRN	?Find@CObList@@QBEPAU__POSITION@@PAVCObject@@PAU2@@Z:PROC ; CObList::Find
EXTRN	??1CObList@@UAE@XZ:PROC				; CObList::~CObList
EXTRN	??0CMapStringToPtr@@QAE@H@Z:PROC		; CMapStringToPtr::CMapStringToPtr
EXTRN	??1CMapStringToPtr@@UAE@XZ:PROC			; CMapStringToPtr::~CMapStringToPtr
EXTRN	?AfxGetModuleState@@YGPAVAFX_MODULE_STATE@@XZ:PROC ; AfxGetModuleState
EXTRN	?AfxGetStaticModuleState@@YGPAVAFX_MODULE_STATE@@XZ:PROC ; AfxGetStaticModuleState
EXTRN	?GetRuntimeClass@CGdiObject@@UBEPAUCRuntimeClass@@XZ:PROC ; CGdiObject::GetRuntimeClass
EXTRN	?DeleteObject@CGdiObject@@QAEHXZ:PROC		; CGdiObject::DeleteObject
EXTRN	??_ECGdiObject@@UAEPAXI@Z:PROC			; CGdiObject::`vector deleting destructor'
EXTRN	?GetRuntimeClass@CPen@@UBEPAUCRuntimeClass@@XZ:PROC ; CPen::GetRuntimeClass
EXTRN	??0CPen@@QAE@HHK@Z:PROC				; CPen::CPen
EXTRN	??_ECPen@@UAEPAXI@Z:PROC			; CPen::`vector deleting destructor'
EXTRN	?GetRuntimeClass@CBrush@@UBEPAUCRuntimeClass@@XZ:PROC ; CBrush::GetRuntimeClass
EXTRN	??0CBrush@@QAE@K@Z:PROC				; CBrush::CBrush
EXTRN	??_ECBrush@@UAEPAXI@Z:PROC			; CBrush::`vector deleting destructor'
EXTRN	?FromHandle@CDC@@SGPAV1@PAUHDC__@@@Z:PROC	; CDC::FromHandle
EXTRN	?SelectObject@CDC@@QAEPAVCPen@@PAV2@@Z:PROC	; CDC::SelectObject
EXTRN	?SelectObject@CDC@@QAEPAVCBrush@@PAV2@@Z:PROC	; CDC::SelectObject
EXTRN	?MoveTo@CDC@@QAE?AVCPoint@@HH@Z:PROC		; CDC::MoveTo
EXTRN	?LineTo@CDC@@QAEHHH@Z:PROC			; CDC::LineTo
EXTRN	?GetRuntimeClass@CMenu@@UBEPAUCRuntimeClass@@XZ:PROC ; CMenu::GetRuntimeClass
EXTRN	?DestroyMenu@CMenu@@QAEHXZ:PROC			; CMenu::DestroyMenu
EXTRN	?Attach@CMenu@@QAEHPAUHMENU__@@@Z:PROC		; CMenu::Attach
EXTRN	?TrackPopupMenu@CMenu@@QAEHIHHPAVCWnd@@PBUtagRECT@@@Z:PROC ; CMenu::TrackPopupMenu
EXTRN	?DrawItem@CMenu@@UAEXPAUtagDRAWITEMSTRUCT@@@Z:PROC ; CMenu::DrawItem
EXTRN	?MeasureItem@CMenu@@UAEXPAUtagMEASUREITEMSTRUCT@@@Z:PROC ; CMenu::MeasureItem
EXTRN	??_ECMenu@@UAEPAXI@Z:PROC			; CMenu::`vector deleting destructor'
EXTRN	?AfxFindResourceHandle@@YGPAUHINSTANCE__@@PBD0@Z:PROC ; AfxFindResourceHandle
EXTRN	?AfxMessageBox@@YGHPBDII@Z:PROC			; AfxMessageBox
EXTRN	?AddRef@CIWUnknown@@MAGKXZ:PROC			; CIWUnknown::AddRef
EXTRN	?Release@CIWUnknown@@MAGKXZ:PROC		; CIWUnknown::Release
EXTRN	??0CChartAddInBase000000@@IAE@PAUIChartOCX000000@@PAUIAddInDllBase@@@Z:PROC ; CChartAddInBase000000::CChartAddInBase000000
EXTRN	??1CChartAddInBase000000@@MAE@XZ:PROC		; CChartAddInBase000000::~CChartAddInBase000000
EXTRN	?HasFullManager@CChartAddInBase000000@@MAEHXZ:PROC ; CChartAddInBase000000::HasFullManager
EXTRN	?RegisterEventMap@CChartAddInBase000000@@UAEHH@Z:PROC ; CChartAddInBase000000::RegisterEventMap
EXTRN	?UnregisterEventMap@CChartAddInBase000000@@UAEHXZ:PROC ; CChartAddInBase000000::UnregisterEventMap
EXTRN	?OnOcxDestroyWindow@CChartAddInBase000000@@MAEXXZ:PROC ; CChartAddInBase000000::OnOcxDestroyWindow
EXTRN	??_ECOrderLine@@UAEPAXI@Z:PROC			; COrderLine::`vector deleting destructor'
EXTRN	??_ECOrderLineAddInImp@@UAEPAXI@Z:PROC		; COrderLineAddInImp::`vector deleting destructor'
EXTRN	@__security_check_cookie@4:PROC
EXTRN	___CxxFrameHandler3:PROC
EXTRN	__libm_sse2_pow_precise:PROC
EXTRN	??_7type_info@@6B@:QWORD			; type_info::`vftable'
EXTRN	?g_iMetaTable@@3VIMetaTable@@A:BYTE		; g_iMetaTable
EXTRN	___security_cookie:DWORD
EXTRN	__fltused:DWORD
_BSS	SEGMENT
?m_strAddInItemName@COrderLineAddInImp@@2V?$CStringT@DV?$StrTraitMFC_DLL@DV?$ChTraitsCRT@D@ATL@@@@@ATL@@A DD 01H DUP (?) ; COrderLineAddInImp::m_strAddInItemName
?RMS_ANALYSIS_FUNC@@3IB DD 01H DUP (?)			; RMS_ANALYSIS_FUNC
_BSS	ENDS
CRT$XCU	SEGMENT
?RMS_ANALYSIS_FUNC$initializer$@@3P6AXXZA DD FLAT:??__ERMS_ANALYSIS_FUNC@@YAXXZ ; RMS_ANALYSIS_FUNC$initializer$
CRT$XCU	ENDS
;	COMDAT __xmm@41f00000000000000000000000000000
CONST	SEGMENT
__xmm@41f00000000000000000000000000000 DB 00H, 00H, 00H, 00H, 00H, 00H, 00H
	DB	00H, 00H, 00H, 00H, 00H, 00H, 00H, 0f0H, 'A'
CONST	ENDS
;	COMDAT __real@41efffffffe00000
CONST	SEGMENT
__real@41efffffffe00000 DQ 041efffffffe00000r	; 4.29497e+09
CONST	ENDS
;	COMDAT __real@4024000000000000
CONST	SEGMENT
__real@4024000000000000 DQ 04024000000000000r	; 10
CONST	ENDS
;	COMDAT __real@3fe0000000000000
CONST	SEGMENT
__real@3fe0000000000000 DQ 03fe0000000000000r	; 0.5
CONST	ENDS
;	COMDAT __real@0000000000000000
CONST	SEGMENT
__real@0000000000000000 DQ 00000000000000000r	; 0
CONST	ENDS
;	COMDAT ??_R4COrderLineAddInImp@@6BIChartAddIn000000@@@
rdata$r	SEGMENT
??_R4COrderLineAddInImp@@6BIChartAddIn000000@@@ DD 00H	; COrderLineAddInImp::`RTTI Complete Object Locator'
	DD	08H
	DD	00H
	DD	FLAT:??_R0?AVCOrderLineAddInImp@@@8
	DD	FLAT:??_R3COrderLineAddInImp@@8
rdata$r	ENDS
;	COMDAT ??_R17?0A@EA@IUnknown@@8
rdata$r	SEGMENT
??_R17?0A@EA@IUnknown@@8 DD FLAT:??_R0?AUIUnknown@@@8	; IUnknown::`RTTI Base Class Descriptor at (8,-1,0,64)'
	DD	00H
	DD	08H
	DD	0ffffffffH
	DD	00H
	DD	040H
	DD	FLAT:??_R3IUnknown@@8
rdata$r	ENDS
;	COMDAT ??_R17?0A@EA@IChartAddIn000000@@8
rdata$r	SEGMENT
??_R17?0A@EA@IChartAddIn000000@@8 DD FLAT:??_R0?AUIChartAddIn000000@@@8 ; IChartAddIn000000::`RTTI Base Class Descriptor at (8,-1,0,64)'
	DD	01H
	DD	08H
	DD	0ffffffffH
	DD	00H
	DD	040H
	DD	FLAT:??_R3IChartAddIn000000@@8
rdata$r	ENDS
;	COMDAT ??_R2CIWUnknown@@8
rdata$r	SEGMENT
??_R2CIWUnknown@@8 DD FLAT:??_R1A@?0A@EA@CIWUnknown@@8	; CIWUnknown::`RTTI Base Class Array'
	DD	FLAT:??_R1A@?0A@EA@CObject@@8
rdata$r	ENDS
;	COMDAT ??_R3CIWUnknown@@8
rdata$r	SEGMENT
??_R3CIWUnknown@@8 DD 00H				; CIWUnknown::`RTTI Class Hierarchy Descriptor'
	DD	00H
	DD	02H
	DD	FLAT:??_R2CIWUnknown@@8
rdata$r	ENDS
;	COMDAT ??_R0?AVCIWUnknown@@@8
data$rs	SEGMENT
??_R0?AVCIWUnknown@@@8 DD FLAT:??_7type_info@@6B@	; CIWUnknown `RTTI Type Descriptor'
	DD	00H
	DB	'.?AVCIWUnknown@@', 00H
data$rs	ENDS
;	COMDAT ??_R1A@?0A@EA@CIWUnknown@@8
rdata$r	SEGMENT
??_R1A@?0A@EA@CIWUnknown@@8 DD FLAT:??_R0?AVCIWUnknown@@@8 ; CIWUnknown::`RTTI Base Class Descriptor at (0,-1,0,64)'
	DD	01H
	DD	00H
	DD	0ffffffffH
	DD	00H
	DD	040H
	DD	FLAT:??_R3CIWUnknown@@8
rdata$r	ENDS
;	COMDAT ??_R2CChartAddInBase000000@@8
rdata$r	SEGMENT
??_R2CChartAddInBase000000@@8 DD FLAT:??_R1A@?0A@EA@CChartAddInBase000000@@8 ; CChartAddInBase000000::`RTTI Base Class Array'
	DD	FLAT:??_R1A@?0A@EA@CIWUnknown@@8
	DD	FLAT:??_R1A@?0A@EA@CObject@@8
	DD	FLAT:??_R17?0A@EA@IChartAddIn000000@@8
	DD	FLAT:??_R17?0A@EA@IUnknown@@8
rdata$r	ENDS
;	COMDAT ??_R3CChartAddInBase000000@@8
rdata$r	SEGMENT
??_R3CChartAddInBase000000@@8 DD 00H			; CChartAddInBase000000::`RTTI Class Hierarchy Descriptor'
	DD	01H
	DD	05H
	DD	FLAT:??_R2CChartAddInBase000000@@8
rdata$r	ENDS
;	COMDAT ??_R0?AVCChartAddInBase000000@@@8
data$rs	SEGMENT
??_R0?AVCChartAddInBase000000@@@8 DD FLAT:??_7type_info@@6B@ ; CChartAddInBase000000 `RTTI Type Descriptor'
	DD	00H
	DB	'.?AVCChartAddInBase000000@@', 00H
data$rs	ENDS
;	COMDAT ??_R1A@?0A@EA@CChartAddInBase000000@@8
rdata$r	SEGMENT
??_R1A@?0A@EA@CChartAddInBase000000@@8 DD FLAT:??_R0?AVCChartAddInBase000000@@@8 ; CChartAddInBase000000::`RTTI Base Class Descriptor at (0,-1,0,64)'
	DD	04H
	DD	00H
	DD	0ffffffffH
	DD	00H
	DD	040H
	DD	FLAT:??_R3CChartAddInBase000000@@8
rdata$r	ENDS
;	COMDAT ??_R1A@?0A@EA@COrderLineAddInImp@@8
rdata$r	SEGMENT
??_R1A@?0A@EA@COrderLineAddInImp@@8 DD FLAT:??_R0?AVCOrderLineAddInImp@@@8 ; COrderLineAddInImp::`RTTI Base Class Descriptor at (0,-1,0,64)'
	DD	05H
	DD	00H
	DD	0ffffffffH
	DD	00H
	DD	040H
	DD	FLAT:??_R3COrderLineAddInImp@@8
rdata$r	ENDS
;	COMDAT ??_R2COrderLineAddInImp@@8
rdata$r	SEGMENT
??_R2COrderLineAddInImp@@8 DD FLAT:??_R1A@?0A@EA@COrderLineAddInImp@@8 ; COrderLineAddInImp::`RTTI Base Class Array'
	DD	FLAT:??_R1A@?0A@EA@CChartAddInBase000000@@8
	DD	FLAT:??_R1A@?0A@EA@CIWUnknown@@8
	DD	FLAT:??_R1A@?0A@EA@CObject@@8
	DD	FLAT:??_R17?0A@EA@IChartAddIn000000@@8
	DD	FLAT:??_R17?0A@EA@IUnknown@@8
rdata$r	ENDS
;	COMDAT ??_R3COrderLineAddInImp@@8
rdata$r	SEGMENT
??_R3COrderLineAddInImp@@8 DD 00H			; COrderLineAddInImp::`RTTI Class Hierarchy Descriptor'
	DD	01H
	DD	06H
	DD	FLAT:??_R2COrderLineAddInImp@@8
rdata$r	ENDS
;	COMDAT ??_R0?AVCOrderLineAddInImp@@@8
data$rs	SEGMENT
??_R0?AVCOrderLineAddInImp@@@8 DD FLAT:??_7type_info@@6B@ ; COrderLineAddInImp `RTTI Type Descriptor'
	DD	00H
	DB	'.?AVCOrderLineAddInImp@@', 00H
data$rs	ENDS
;	COMDAT ??_R4COrderLineAddInImp@@6BCIWUnknown@@@
rdata$r	SEGMENT
??_R4COrderLineAddInImp@@6BCIWUnknown@@@ DD 00H		; COrderLineAddInImp::`RTTI Complete Object Locator'
	DD	00H
	DD	00H
	DD	FLAT:??_R0?AVCOrderLineAddInImp@@@8
	DD	FLAT:??_R3COrderLineAddInImp@@8
rdata$r	ENDS
;	COMDAT ??_R1A@?0A@EA@COrderLine@@8
rdata$r	SEGMENT
??_R1A@?0A@EA@COrderLine@@8 DD FLAT:??_R0?AVCOrderLine@@@8 ; COrderLine::`RTTI Base Class Descriptor at (0,-1,0,64)'
	DD	00H
	DD	00H
	DD	0ffffffffH
	DD	00H
	DD	040H
	DD	FLAT:??_R3COrderLine@@8
rdata$r	ENDS
;	COMDAT ??_R2COrderLine@@8
rdata$r	SEGMENT
??_R2COrderLine@@8 DD FLAT:??_R1A@?0A@EA@COrderLine@@8	; COrderLine::`RTTI Base Class Array'
rdata$r	ENDS
;	COMDAT ??_R3COrderLine@@8
rdata$r	SEGMENT
??_R3COrderLine@@8 DD 00H				; COrderLine::`RTTI Class Hierarchy Descriptor'
	DD	00H
	DD	01H
	DD	FLAT:??_R2COrderLine@@8
rdata$r	ENDS
;	COMDAT ??_R0?AVCOrderLine@@@8
data$rs	SEGMENT
??_R0?AVCOrderLine@@@8 DD FLAT:??_7type_info@@6B@	; COrderLine `RTTI Type Descriptor'
	DD	00H
	DB	'.?AVCOrderLine@@', 00H
data$rs	ENDS
;	COMDAT ??_R4COrderLine@@6B@
rdata$r	SEGMENT
??_R4COrderLine@@6B@ DD 00H				; COrderLine::`RTTI Complete Object Locator'
	DD	00H
	DD	00H
	DD	FLAT:??_R0?AVCOrderLine@@@8
	DD	FLAT:??_R3COrderLine@@8
rdata$r	ENDS
;	COMDAT ??_R1A@?0A@EA@IChartAddIn000000@@8
rdata$r	SEGMENT
??_R1A@?0A@EA@IChartAddIn000000@@8 DD FLAT:??_R0?AUIChartAddIn000000@@@8 ; IChartAddIn000000::`RTTI Base Class Descriptor at (0,-1,0,64)'
	DD	01H
	DD	00H
	DD	0ffffffffH
	DD	00H
	DD	040H
	DD	FLAT:??_R3IChartAddIn000000@@8
rdata$r	ENDS
;	COMDAT ??_R2IChartAddIn000000@@8
rdata$r	SEGMENT
??_R2IChartAddIn000000@@8 DD FLAT:??_R1A@?0A@EA@IChartAddIn000000@@8 ; IChartAddIn000000::`RTTI Base Class Array'
	DD	FLAT:??_R1A@?0A@EA@IUnknown@@8
rdata$r	ENDS
;	COMDAT ??_R3IChartAddIn000000@@8
rdata$r	SEGMENT
??_R3IChartAddIn000000@@8 DD 00H			; IChartAddIn000000::`RTTI Class Hierarchy Descriptor'
	DD	00H
	DD	02H
	DD	FLAT:??_R2IChartAddIn000000@@8
rdata$r	ENDS
;	COMDAT ??_R0?AUIChartAddIn000000@@@8
data$rs	SEGMENT
??_R0?AUIChartAddIn000000@@@8 DD FLAT:??_7type_info@@6B@ ; IChartAddIn000000 `RTTI Type Descriptor'
	DD	00H
	DB	'.?AUIChartAddIn000000@@', 00H
data$rs	ENDS
;	COMDAT ??_C@_02BFICIOJL@ON@
CONST	SEGMENT
??_C@_02BFICIOJL@ON@ DB 'ON', 00H			; `string'
CONST	ENDS
;	COMDAT ??_C@_0N@NMECPAHM@Remove?5Order@
CONST	SEGMENT
??_C@_0N@NMECPAHM@Remove?5Order@ DB 'Remove Order', 00H	; `string'
CONST	ENDS
;	COMDAT ??_C@_0N@HFBPCBAG@Change?5Order@
CONST	SEGMENT
??_C@_0N@HFBPCBAG@Change?5Order@ DB 'Change Order', 00H	; `string'
CONST	ENDS
;	COMDAT ??_C@_0BE@LPJNJHO@Create?5Entry?5?5Order@
CONST	SEGMENT
??_C@_0BE@LPJNJHO@Create?5Entry?5?5Order@ DB 'Create Entry  Order', 00H ; `string'
CONST	ENDS
;	COMDAT ??_C@_0BE@ILPILJFK@Create?5Market?5Order@
CONST	SEGMENT
??_C@_0BE@ILPILJFK@Create?5Market?5Order@ DB 'Create Market Order', 00H ; `string'
CONST	ENDS
;	COMDAT ??_C@_07MGCPDNLD@DEFAULT@
CONST	SEGMENT
??_C@_07MGCPDNLD@DEFAULT@ DB 'DEFAULT', 00H		; `string'
CONST	ENDS
;	COMDAT ??_C@_0BM@BMIJCGLB@Entry?$CIB?$CJ?$CI10?901?507?310?0?543?41?$CJ@
CONST	SEGMENT
??_C@_0BM@BMIJCGLB@Entry?$CIB?$CJ?$CI10?901?507?310?0?543?41?$CJ@ DB 'Ent'
	DB	'ry(B)(10-01 07:10, 43.1)', 00H		; `string'
CONST	ENDS
;	COMDAT ??_7COrderLineAddInImp@@6BIChartAddIn000000@@@
CONST	SEGMENT
??_7COrderLineAddInImp@@6BIChartAddIn000000@@@ DD FLAT:??_R4COrderLineAddInImp@@6BIChartAddIn000000@@@ ; COrderLineAddInImp::`vftable'
	DD	FLAT:?QueryInterface@CChartAddInBase000000@@O7AGJABU_GUID@@PAPAX@Z
	DD	FLAT:?AddRef@CChartAddInBase000000@@O7AGKXZ
	DD	FLAT:?Release@CChartAddInBase000000@@O7AGKXZ
	DD	FLAT:??_ECOrderLineAddInImp@@W7AEPAXI@Z
	DD	FLAT:?HasFullManager@CChartAddInBase000000@@MAEHXZ
	DD	FLAT:?GetAddInCustomInterface@CChartAddInBase000000@@MAEPAUIUnknown@@XZ
	DD	FLAT:?InvokeAddIn@COrderLineAddInImp@@MAEHHJ@Z
	DD	FLAT:?InvokeAddInStr@COrderLineAddInImp@@MAEHPBD0@Z
	DD	FLAT:?OnOcxDestroyWindow@CChartAddInBase000000@@MAEXXZ
	DD	FLAT:?ChangeChartMode@CChartAddInBase000000@@MAEXW4CHART_MODE@CChartInfo@@@Z
	DD	FLAT:?RegisterEventMap@CChartAddInBase000000@@UAEHH@Z
	DD	FLAT:?UnregisterEventMap@CChartAddInBase000000@@UAEHXZ
	DD	FLAT:?OnGSharedDataChange@CChartAddInBase000000@@MAEXPBD0H@Z
	DD	FLAT:?OnLSharedDataChange@CChartAddInBase000000@@MAEXPBD0@Z
	DD	FLAT:?OnResetChart@COrderLineAddInImp@@MAEXXZ
	DD	FLAT:?OnDrawBeforeGraph@COrderLineAddInImp@@MAEXPAUHDC__@@@Z
	DD	FLAT:?OnDrawAfterGraph@COrderLineAddInImp@@MAEXPAUHDC__@@@Z
	DD	FLAT:?OnPacketDataMultiItem@CChartAddInBase000000@@MAEXPBD0H@Z
	DD	FLAT:?OnTimer@CChartAddInBase000000@@MAEXI@Z
	DD	FLAT:?OnCaptureChanged@CChartAddInBase000000@@MAEXPAUHWND__@@QAUHBITMAP__@@@Z
	DD	FLAT:?OnResetMainBlock@CChartAddInBase000000@@MAEXXZ
	DD	FLAT:?OnUserIndiatorConditionLoaded@CChartAddInBase000000@@MAEXXZ
	DD	FLAT:?OnChartItemChanged@CChartAddInBase000000@@MAEXXZ
	DD	FLAT:?OnGraphDataChanged@CChartAddInBase000000@@MAEXXZ
	DD	FLAT:?OnBlockRemoved@CChartAddInBase000000@@MAEXHH@Z
	DD	FLAT:?OnGraphAdded@CChartAddInBase000000@@MAEXPBD0@Z
	DD	FLAT:?OnManualRealData@CChartAddInBase000000@@MAEXPBDNH@Z
	DD	FLAT:?OnContextMenu@CChartAddInBase000000@@MAEXPAUHWND__@@AAUtagPOINT@@@Z
	DD	FLAT:?OnGraphDeleted@CChartAddInBase000000@@MAEXPBD0@Z
	DD	FLAT:?OnPacketTruncated@CChartAddInBase000000@@MAEXH@Z
	DD	FLAT:?OnBlockChanged@CChartAddInBase000000@@MAEXW4BLOCKBEHAVIOR@CBlockBaseData@@HHHH@Z
	DD	FLAT:?OnToolCommand@COrderLineAddInImp@@MAEXHH@Z
	DD	FLAT:?OnRealData@COrderLineAddInImp@@MAEXPBDN0@Z
	DD	FLAT:?OnIndexedRealData@CChartAddInBase000000@@MAEXPBDHN@Z
	DD	FLAT:?OnRealPacketEnd@CChartAddInBase000000@@MAEXPBD@Z
	DD	FLAT:?OnLoadEnvironment@CChartAddInBase000000@@MAEXPAUIPropertyMap@@@Z
	DD	FLAT:?OnSaveEnvironment@CChartAddInBase000000@@MAEXPAUIPropertyMap@@@Z
	DD	FLAT:?DrawCursor@COrderLineAddInImp@@MAE?AUtagRECT@@PAUHDC__@@@Z
	DD	FLAT:?OnRecalculationComplete@CChartAddInBase000000@@MAEXXZ
	DD	FLAT:?OnPreRealData@CChartAddInBase000000@@MAEHPBDAAN0H@Z
	DD	FLAT:?OnPreIndexedRealData@CChartAddInBase000000@@MAEHPBDHAANH@Z
	DD	FLAT:?OnPreRealPacketEnd@CChartAddInBase000000@@MAEHPBDH@Z
	DD	FLAT:?OnPreNMTRClock@CChartAddInBase000000@@MAEHAA_J@Z
	DD	FLAT:?OnCmdMsg@CChartAddInBase000000@@MAEHIHPAUICmdUI000000@@@Z
	DD	FLAT:?OnAddInMsg@CChartAddInBase000000@@MAEHPBDJ@Z
	DD	FLAT:?OnAddInToolCommand@CChartAddInBase000000@@MAEHAAJW4EAICommandType@@JJ@Z
	DD	FLAT:?OnAddInToolCommand@CChartAddInBase000000@@MAEHAAJW4EAICommandType@@J@Z
	DD	FLAT:?OnAddInToolCommand@CChartAddInBase000000@@MAEHAAJW4EAICommandType@@PBDPAVCObject@@@Z
	DD	FLAT:?OnAddInToolCommand@CChartAddInBase000000@@MAEHAAJW4EAICommandType@@PBD@Z
	DD	FLAT:?OnAddInToolCommand@CChartAddInBase000000@@MAEHAAJW4EAICommandType@@PAUIGraphInfo000000@@@Z
	DD	FLAT:?OnAddInToolCommand@CChartAddInBase000000@@MAEHAAJW4EAICommandType@@@Z
	DD	FLAT:?OnAddInToolCommand@CChartAddInBase000000@@MAEHW4EAICommandType@@JJJJJJJJJ@Z
	DD	FLAT:?OnAddInToolCommand@CChartAddInBase000000@@MAEHW4EAICommandType@@JJ@Z
	DD	FLAT:?OnAddInToolCommand@CChartAddInBase000000@@MAEHW4EAICommandType@@JPBD11@Z
	DD	FLAT:?OnAddInToolCommand@CChartAddInBase000000@@MAEHW4EAICommandType@@JPBD@Z
	DD	FLAT:?OnAddInToolCommand@CChartAddInBase000000@@MAEHW4EAICommandType@@J@Z
	DD	FLAT:?OnAddInToolCommand@CChartAddInBase000000@@MAEHW4EAICommandType@@PBUIAddInDllBase@@@Z
	DD	FLAT:?OnAddInToolCommand@CChartAddInBase000000@@MAEHW4EAICommandType@@PBDJ@Z
	DD	FLAT:?OnAddInToolCommand@CChartAddInBase000000@@MAEHW4EAICommandType@@PBD1@Z
	DD	FLAT:?OnAddInToolCommand@CChartAddInBase000000@@MAEHW4EAICommandType@@PBD@Z
	DD	FLAT:?OnAddInToolCommand@CChartAddInBase000000@@MAEHW4EAICommandType@@PAUHDC__@@IAAUtagPOINT@@K@Z
	DD	FLAT:?OnAddInToolCommand@CChartAddInBase000000@@MAEHW4EAICommandType@@@Z
	DD	FLAT:?OnKeyDown@CChartAddInBase000000@@MAEHIII@Z
	DD	FLAT:?OnKeyUp@CChartAddInBase000000@@MAEHIII@Z
	DD	FLAT:?OnMouseWheel@CChartAddInBase000000@@MAEHIFUtagPOINT@@K@Z
	DD	FLAT:?OnMouseMove@COrderLineAddInImp@@MAEHPAUHDC__@@IAAUtagPOINT@@KQAUHBITMAP__@@@Z
	DD	FLAT:?OnLButtonDown@COrderLineAddInImp@@MAEHPAUHDC__@@IAAUtagPOINT@@K@Z
	DD	FLAT:?OnLButtonUp@COrderLineAddInImp@@MAEHPAUHDC__@@IAAUtagPOINT@@K@Z
	DD	FLAT:?OnLButtonDblClk@CChartAddInBase000000@@MAEHPAUHDC__@@IAAUtagPOINT@@K@Z
	DD	FLAT:?OnRButtonDown@CChartAddInBase000000@@MAEHPAUHDC__@@IAAUtagPOINT@@K@Z
	DD	FLAT:?OnRButtonUp@COrderLineAddInImp@@MAEHPAUHDC__@@IAAUtagPOINT@@K@Z
	DD	FLAT:?OnRButtonDblClk@CChartAddInBase000000@@MAEHPAUHDC__@@IAAUtagPOINT@@K@Z
CONST	ENDS
;	COMDAT ??_7COrderLineAddInImp@@6BCIWUnknown@@@
CONST	SEGMENT
??_7COrderLineAddInImp@@6BCIWUnknown@@@ DD FLAT:??_R4COrderLineAddInImp@@6BCIWUnknown@@@ ; COrderLineAddInImp::`vftable'
	DD	FLAT:?GetRuntimeClass@CObject@@UBEPAUCRuntimeClass@@XZ
	DD	FLAT:??_ECOrderLineAddInImp@@UAEPAXI@Z
	DD	FLAT:?Serialize@CObject@@UAEXAAVCArchive@@@Z
	DD	FLAT:?AssertValid@CObject@@UBEXXZ
	DD	FLAT:?Dump@CObject@@UBEXAAVCDumpContext@@@Z
	DD	FLAT:?AddRef@CChartAddInBase000000@@MAGKXZ
	DD	FLAT:?Release@CChartAddInBase000000@@MAGKXZ
	DD	FLAT:?QueryInterface@CChartAddInBase000000@@MAGJABU_GUID@@PAPAX@Z
	DD	FLAT:?PostConstruct@CIWUnknown@@MAEXXZ
	DD	FLAT:?PreDestructX@CIWUnknown@@MAEXXZ
	DD	FLAT:?PreDestruct@CIWUnknown@@MAEXXZ
	DD	FLAT:?GetRegisteredEventMap@COrderLineAddInImp@@MBEPBW4EAddInEventType@IChartAddIn000000@@XZ
	DD	FLAT:?AfeterOnOcxDestroyWindow@CChartAddInBase000000@@MAEXXZ
CONST	ENDS
;	COMDAT ??_7COrderLine@@6B@
CONST	SEGMENT
??_7COrderLine@@6B@ DD FLAT:??_R4COrderLine@@6B@	; COrderLine::`vftable'
	DD	FLAT:??_ECOrderLine@@UAEPAXI@Z
CONST	ENDS
;	COMDAT ??_R1A@?0A@EA@CMenu@@8
rdata$r	SEGMENT
??_R1A@?0A@EA@CMenu@@8 DD FLAT:??_R0?AVCMenu@@@8	; CMenu::`RTTI Base Class Descriptor at (0,-1,0,64)'
	DD	01H
	DD	00H
	DD	0ffffffffH
	DD	00H
	DD	040H
	DD	FLAT:??_R3CMenu@@8
rdata$r	ENDS
;	COMDAT ??_R2CMenu@@8
rdata$r	SEGMENT
??_R2CMenu@@8 DD FLAT:??_R1A@?0A@EA@CMenu@@8		; CMenu::`RTTI Base Class Array'
	DD	FLAT:??_R1A@?0A@EA@CObject@@8
rdata$r	ENDS
;	COMDAT ??_R3CMenu@@8
rdata$r	SEGMENT
??_R3CMenu@@8 DD 00H					; CMenu::`RTTI Class Hierarchy Descriptor'
	DD	00H
	DD	02H
	DD	FLAT:??_R2CMenu@@8
rdata$r	ENDS
;	COMDAT ??_R0?AVCMenu@@@8
data$rs	SEGMENT
??_R0?AVCMenu@@@8 DD FLAT:??_7type_info@@6B@		; CMenu `RTTI Type Descriptor'
	DD	00H
	DB	'.?AVCMenu@@', 00H
data$rs	ENDS
;	COMDAT ??_R4CMenu@@6B@
rdata$r	SEGMENT
??_R4CMenu@@6B@ DD 00H					; CMenu::`RTTI Complete Object Locator'
	DD	00H
	DD	00H
	DD	FLAT:??_R0?AVCMenu@@@8
	DD	FLAT:??_R3CMenu@@8
rdata$r	ENDS
;	COMDAT ??_R1A@?0A@EA@CBrush@@8
rdata$r	SEGMENT
??_R1A@?0A@EA@CBrush@@8 DD FLAT:??_R0?AVCBrush@@@8	; CBrush::`RTTI Base Class Descriptor at (0,-1,0,64)'
	DD	02H
	DD	00H
	DD	0ffffffffH
	DD	00H
	DD	040H
	DD	FLAT:??_R3CBrush@@8
rdata$r	ENDS
;	COMDAT ??_R2CBrush@@8
rdata$r	SEGMENT
??_R2CBrush@@8 DD FLAT:??_R1A@?0A@EA@CBrush@@8		; CBrush::`RTTI Base Class Array'
	DD	FLAT:??_R1A@?0A@EA@CGdiObject@@8
	DD	FLAT:??_R1A@?0A@EA@CObject@@8
rdata$r	ENDS
;	COMDAT ??_R3CBrush@@8
rdata$r	SEGMENT
??_R3CBrush@@8 DD 00H					; CBrush::`RTTI Class Hierarchy Descriptor'
	DD	00H
	DD	03H
	DD	FLAT:??_R2CBrush@@8
rdata$r	ENDS
;	COMDAT ??_R0?AVCBrush@@@8
data$rs	SEGMENT
??_R0?AVCBrush@@@8 DD FLAT:??_7type_info@@6B@		; CBrush `RTTI Type Descriptor'
	DD	00H
	DB	'.?AVCBrush@@', 00H
data$rs	ENDS
;	COMDAT ??_R4CBrush@@6B@
rdata$r	SEGMENT
??_R4CBrush@@6B@ DD 00H					; CBrush::`RTTI Complete Object Locator'
	DD	00H
	DD	00H
	DD	FLAT:??_R0?AVCBrush@@@8
	DD	FLAT:??_R3CBrush@@8
rdata$r	ENDS
;	COMDAT ??_R1A@?0A@EA@CPen@@8
rdata$r	SEGMENT
??_R1A@?0A@EA@CPen@@8 DD FLAT:??_R0?AVCPen@@@8		; CPen::`RTTI Base Class Descriptor at (0,-1,0,64)'
	DD	02H
	DD	00H
	DD	0ffffffffH
	DD	00H
	DD	040H
	DD	FLAT:??_R3CPen@@8
rdata$r	ENDS
;	COMDAT ??_R2CPen@@8
rdata$r	SEGMENT
??_R2CPen@@8 DD	FLAT:??_R1A@?0A@EA@CPen@@8		; CPen::`RTTI Base Class Array'
	DD	FLAT:??_R1A@?0A@EA@CGdiObject@@8
	DD	FLAT:??_R1A@?0A@EA@CObject@@8
rdata$r	ENDS
;	COMDAT ??_R3CPen@@8
rdata$r	SEGMENT
??_R3CPen@@8 DD	00H					; CPen::`RTTI Class Hierarchy Descriptor'
	DD	00H
	DD	03H
	DD	FLAT:??_R2CPen@@8
rdata$r	ENDS
;	COMDAT ??_R0?AVCPen@@@8
data$rs	SEGMENT
??_R0?AVCPen@@@8 DD FLAT:??_7type_info@@6B@		; CPen `RTTI Type Descriptor'
	DD	00H
	DB	'.?AVCPen@@', 00H
data$rs	ENDS
;	COMDAT ??_R4CPen@@6B@
rdata$r	SEGMENT
??_R4CPen@@6B@ DD 00H					; CPen::`RTTI Complete Object Locator'
	DD	00H
	DD	00H
	DD	FLAT:??_R0?AVCPen@@@8
	DD	FLAT:??_R3CPen@@8
rdata$r	ENDS
;	COMDAT ??_R1A@?0A@EA@CGdiObject@@8
rdata$r	SEGMENT
??_R1A@?0A@EA@CGdiObject@@8 DD FLAT:??_R0?AVCGdiObject@@@8 ; CGdiObject::`RTTI Base Class Descriptor at (0,-1,0,64)'
	DD	01H
	DD	00H
	DD	0ffffffffH
	DD	00H
	DD	040H
	DD	FLAT:??_R3CGdiObject@@8
rdata$r	ENDS
;	COMDAT ??_R2CGdiObject@@8
rdata$r	SEGMENT
??_R2CGdiObject@@8 DD FLAT:??_R1A@?0A@EA@CGdiObject@@8	; CGdiObject::`RTTI Base Class Array'
	DD	FLAT:??_R1A@?0A@EA@CObject@@8
rdata$r	ENDS
;	COMDAT ??_R3CGdiObject@@8
rdata$r	SEGMENT
??_R3CGdiObject@@8 DD 00H				; CGdiObject::`RTTI Class Hierarchy Descriptor'
	DD	00H
	DD	02H
	DD	FLAT:??_R2CGdiObject@@8
rdata$r	ENDS
;	COMDAT ??_R0?AVCGdiObject@@@8
data$rs	SEGMENT
??_R0?AVCGdiObject@@@8 DD FLAT:??_7type_info@@6B@	; CGdiObject `RTTI Type Descriptor'
	DD	00H
	DB	'.?AVCGdiObject@@', 00H
data$rs	ENDS
;	COMDAT ??_R4CGdiObject@@6B@
rdata$r	SEGMENT
??_R4CGdiObject@@6B@ DD 00H				; CGdiObject::`RTTI Complete Object Locator'
	DD	00H
	DD	00H
	DD	FLAT:??_R0?AVCGdiObject@@@8
	DD	FLAT:??_R3CGdiObject@@8
rdata$r	ENDS
;	COMDAT ??_R1A@?0A@EA@IUnknown@@8
rdata$r	SEGMENT
??_R1A@?0A@EA@IUnknown@@8 DD FLAT:??_R0?AUIUnknown@@@8	; IUnknown::`RTTI Base Class Descriptor at (0,-1,0,64)'
	DD	00H
	DD	00H
	DD	0ffffffffH
	DD	00H
	DD	040H
	DD	FLAT:??_R3IUnknown@@8
rdata$r	ENDS
;	COMDAT ??_R2IUnknown@@8
rdata$r	SEGMENT
??_R2IUnknown@@8 DD FLAT:??_R1A@?0A@EA@IUnknown@@8	; IUnknown::`RTTI Base Class Array'
rdata$r	ENDS
;	COMDAT ??_R3IUnknown@@8
rdata$r	SEGMENT
??_R3IUnknown@@8 DD 00H					; IUnknown::`RTTI Class Hierarchy Descriptor'
	DD	00H
	DD	01H
	DD	FLAT:??_R2IUnknown@@8
rdata$r	ENDS
;	COMDAT ??_R0?AUIUnknown@@@8
data$rs	SEGMENT
??_R0?AUIUnknown@@@8 DD FLAT:??_7type_info@@6B@		; IUnknown `RTTI Type Descriptor'
	DD	00H
	DB	'.?AUIUnknown@@', 00H
data$rs	ENDS
;	COMDAT ??_R1A@?0A@EA@CObject@@8
rdata$r	SEGMENT
??_R1A@?0A@EA@CObject@@8 DD FLAT:??_R0?AVCObject@@@8	; CObject::`RTTI Base Class Descriptor at (0,-1,0,64)'
	DD	00H
	DD	00H
	DD	0ffffffffH
	DD	00H
	DD	040H
	DD	FLAT:??_R3CObject@@8
rdata$r	ENDS
;	COMDAT ??_R2CObject@@8
rdata$r	SEGMENT
??_R2CObject@@8 DD FLAT:??_R1A@?0A@EA@CObject@@8	; CObject::`RTTI Base Class Array'
rdata$r	ENDS
;	COMDAT ??_R3CObject@@8
rdata$r	SEGMENT
??_R3CObject@@8 DD 00H					; CObject::`RTTI Class Hierarchy Descriptor'
	DD	00H
	DD	01H
	DD	FLAT:??_R2CObject@@8
rdata$r	ENDS
;	COMDAT ??_R0?AVCObject@@@8
data$rs	SEGMENT
??_R0?AVCObject@@@8 DD FLAT:??_7type_info@@6B@		; CObject `RTTI Type Descriptor'
	DD	00H
	DB	'.?AVCObject@@', 00H
data$rs	ENDS
;	COMDAT ??_C@_0N@OMEMOKLE@?$CFTs?5?$CI?$CFTs?3?$CFd?$CJ@
CONST	SEGMENT
??_C@_0N@OMEMOKLE@?$CFTs?5?$CI?$CFTs?3?$CFd?$CJ@ DB '%Ts (%Ts:%d)', 00H ; `string'
CONST	ENDS
;	COMDAT ??_C@_0BB@HBOOMJBF@?$CFTs?5?$CI?$CFTs?3?$CFd?$CJ?6?$CFTs@
CONST	SEGMENT
??_C@_0BB@HBOOMJBF@?$CFTs?5?$CI?$CFTs?3?$CFd?$CJ?6?$CFTs@ DB '%Ts (%Ts:%d'
	DB	')', 0aH, '%Ts', 00H				; `string'
CONST	ENDS
;	COMDAT ??_C@_0BP@OIEOKIDM@Exception?5thrown?5in?5destructor@
CONST	SEGMENT
??_C@_0BP@OIEOKIDM@Exception?5thrown?5in?5destructor@ DB 'Exception throw'
	DB	'n in destructor', 00H			; `string'
CONST	ENDS
;	COMDAT ??_C@_0HD@JJCHHHNK@C?3?2Program?5Files?5?$CIx86?$CJ?2Microsof@
CONST	SEGMENT
??_C@_0HD@JJCHHHNK@C?3?2Program?5Files?5?$CIx86?$CJ?2Microsof@ DB 'C:\Pro'
	DB	'gram Files (x86)\Microsoft Visual Studio\2019\Community\VC\To'
	DB	'ols\MSVC\14.29.30133\atlmfc\include\afxwin1.inl', 00H ; `string'
CONST	ENDS
;	COMDAT ??_7CMenu@@6B@
CONST	SEGMENT
??_7CMenu@@6B@ DD FLAT:??_R4CMenu@@6B@			; CMenu::`vftable'
	DD	FLAT:?GetRuntimeClass@CMenu@@UBEPAUCRuntimeClass@@XZ
	DD	FLAT:??_ECMenu@@UAEPAXI@Z
	DD	FLAT:?Serialize@CObject@@UAEXAAVCArchive@@@Z
	DD	FLAT:?AssertValid@CObject@@UBEXXZ
	DD	FLAT:?Dump@CObject@@UBEXAAVCDumpContext@@@Z
	DD	FLAT:?DrawItem@CMenu@@UAEXPAUtagDRAWITEMSTRUCT@@@Z
	DD	FLAT:?MeasureItem@CMenu@@UAEXPAUtagMEASUREITEMSTRUCT@@@Z
CONST	ENDS
;	COMDAT ??_7CBrush@@6B@
CONST	SEGMENT
??_7CBrush@@6B@ DD FLAT:??_R4CBrush@@6B@		; CBrush::`vftable'
	DD	FLAT:?GetRuntimeClass@CBrush@@UBEPAUCRuntimeClass@@XZ
	DD	FLAT:??_ECBrush@@UAEPAXI@Z
	DD	FLAT:?Serialize@CObject@@UAEXAAVCArchive@@@Z
	DD	FLAT:?AssertValid@CObject@@UBEXXZ
	DD	FLAT:?Dump@CObject@@UBEXAAVCDumpContext@@@Z
CONST	ENDS
;	COMDAT ??_7CPen@@6B@
CONST	SEGMENT
??_7CPen@@6B@ DD FLAT:??_R4CPen@@6B@			; CPen::`vftable'
	DD	FLAT:?GetRuntimeClass@CPen@@UBEPAUCRuntimeClass@@XZ
	DD	FLAT:??_ECPen@@UAEPAXI@Z
	DD	FLAT:?Serialize@CObject@@UAEXAAVCArchive@@@Z
	DD	FLAT:?AssertValid@CObject@@UBEXXZ
	DD	FLAT:?Dump@CObject@@UBEXAAVCDumpContext@@@Z
CONST	ENDS
;	COMDAT ??_7CGdiObject@@6B@
CONST	SEGMENT
??_7CGdiObject@@6B@ DD FLAT:??_R4CGdiObject@@6B@	; CGdiObject::`vftable'
	DD	FLAT:?GetRuntimeClass@CGdiObject@@UBEPAUCRuntimeClass@@XZ
	DD	FLAT:??_ECGdiObject@@UAEPAXI@Z
	DD	FLAT:?Serialize@CObject@@UAEXAAVCArchive@@@Z
	DD	FLAT:?AssertValid@CObject@@UBEXXZ
	DD	FLAT:?Dump@CObject@@UBEXAAVCDumpContext@@@Z
CONST	ENDS
;	COMDAT ??_C@_00CNPNBAHC@@
CONST	SEGMENT
??_C@_00CNPNBAHC@@ DB 00H				; `string'
CONST	ENDS
;	COMDAT ??_R0PAVCException@@@8
data$r	SEGMENT
??_R0PAVCException@@@8 DD FLAT:??_7type_info@@6B@	; CException * `RTTI Type Descriptor'
	DD	00H
	DB	'.PAVCException@@', 00H
data$r	ENDS
;	COMDAT xdata$x
xdata$x	SEGMENT
__ehfuncinfo$??1ILPCSTR000000@@QAE@XZ DD 019930522H
	DD	00H
	DD	00H
	DD	2 DUP(00H)
	DD	2 DUP(00H)
	DD	00H
	DD	05H
xdata$x	ENDS
;	COMDAT xdata$x
xdata$x	SEGMENT
__ehfuncinfo$??1CMultiLanguageResourceSetter@@QAE@XZ DD 019930522H
	DD	00H
	DD	00H
	DD	2 DUP(00H)
	DD	2 DUP(00H)
	DD	00H
	DD	05H
xdata$x	ENDS
;	COMDAT xdata$x
xdata$x	SEGMENT
__unwindtable$??_GCOrderLineAddInImp@@UAEPAXI@Z DD 0ffffffffH
	DD	FLAT:___std_terminate
__ehfuncinfo$??_GCOrderLineAddInImp@@UAEPAXI@Z DD 019930522H
	DD	01H
	DD	FLAT:__unwindtable$??_GCOrderLineAddInImp@@UAEPAXI@Z
	DD	2 DUP(00H)
	DD	2 DUP(00H)
	DD	00H
	DD	05H
xdata$x	ENDS
;	COMDAT xdata$x
xdata$x	SEGMENT
__unwindtable$?InvokeAddIn@COrderLineAddInImp@@MAEHHJ@Z DD 0ffffffffH
	DD	FLAT:__unwindfunclet$?InvokeAddIn@COrderLineAddInImp@@MAEHHJ@Z$0
	DD	0ffffffffH
	DD	FLAT:__unwindfunclet$?InvokeAddIn@COrderLineAddInImp@@MAEHHJ@Z$1
	DD	0ffffffffH
	DD	FLAT:__unwindfunclet$?InvokeAddIn@COrderLineAddInImp@@MAEHHJ@Z$2
	DD	0ffffffffH
	DD	FLAT:__unwindfunclet$?InvokeAddIn@COrderLineAddInImp@@MAEHHJ@Z$3
__ehfuncinfo$?InvokeAddIn@COrderLineAddInImp@@MAEHHJ@Z DD 019930522H
	DD	04H
	DD	FLAT:__unwindtable$?InvokeAddIn@COrderLineAddInImp@@MAEHHJ@Z
	DD	2 DUP(00H)
	DD	2 DUP(00H)
	DD	00H
	DD	01H
xdata$x	ENDS
;	COMDAT xdata$x
xdata$x	SEGMENT
__ehfuncinfo$?OnRButtonUp@COrderLineAddInImp@@MAEHPAUHDC__@@IAAUtagPOINT@@K@Z DD 019930522H
	DD	06H
	DD	FLAT:__unwindtable$?OnRButtonUp@COrderLineAddInImp@@MAEHPAUHDC__@@IAAUtagPOINT@@K@Z
	DD	2 DUP(00H)
	DD	2 DUP(00H)
	DD	00H
	DD	01H
__unwindtable$?OnRButtonUp@COrderLineAddInImp@@MAEHPAUHDC__@@IAAUtagPOINT@@K@Z DD 0ffffffffH
	DD	FLAT:__unwindfunclet$?OnRButtonUp@COrderLineAddInImp@@MAEHPAUHDC__@@IAAUtagPOINT@@K@Z$0
	DD	00H
	DD	FLAT:__unwindfunclet$?OnRButtonUp@COrderLineAddInImp@@MAEHPAUHDC__@@IAAUtagPOINT@@K@Z$1
	DD	00H
	DD	FLAT:___std_terminate
	DD	00H
	DD	FLAT:__unwindfunclet$?OnRButtonUp@COrderLineAddInImp@@MAEHPAUHDC__@@IAAUtagPOINT@@K@Z$2
	DD	00H
	DD	FLAT:___std_terminate
	DD	0ffffffffH
	DD	FLAT:___std_terminate
xdata$x	ENDS
;	COMDAT xdata$x
xdata$x	SEGMENT
__unwindtable$?OnLButtonDown@COrderLineAddInImp@@MAEHPAUHDC__@@IAAUtagPOINT@@K@Z DD 0ffffffffH
	DD	FLAT:__unwindfunclet$?OnLButtonDown@COrderLineAddInImp@@MAEHPAUHDC__@@IAAUtagPOINT@@K@Z$0
	DD	0ffffffffH
	DD	FLAT:___std_terminate
__ehfuncinfo$?OnLButtonDown@COrderLineAddInImp@@MAEHPAUHDC__@@IAAUtagPOINT@@K@Z DD 019930522H
	DD	02H
	DD	FLAT:__unwindtable$?OnLButtonDown@COrderLineAddInImp@@MAEHPAUHDC__@@IAAUtagPOINT@@K@Z
	DD	2 DUP(00H)
	DD	2 DUP(00H)
	DD	00H
	DD	01H
xdata$x	ENDS
;	COMDAT xdata$x
xdata$x	SEGMENT
__unwindtable$?OnMouseMove@COrderLineAddInImp@@MAEHPAUHDC__@@IAAUtagPOINT@@KQAUHBITMAP__@@@Z DD 0ffffffffH
	DD	FLAT:__unwindfunclet$?OnMouseMove@COrderLineAddInImp@@MAEHPAUHDC__@@IAAUtagPOINT@@KQAUHBITMAP__@@@Z$0
__ehfuncinfo$?OnMouseMove@COrderLineAddInImp@@MAEHPAUHDC__@@IAAUtagPOINT@@KQAUHBITMAP__@@@Z DD 019930522H
	DD	01H
	DD	FLAT:__unwindtable$?OnMouseMove@COrderLineAddInImp@@MAEHPAUHDC__@@IAAUtagPOINT@@KQAUHBITMAP__@@@Z
	DD	2 DUP(00H)
	DD	2 DUP(00H)
	DD	00H
	DD	01H
xdata$x	ENDS
;	COMDAT xdata$x
xdata$x	SEGMENT
__unwindtable$?OnDrawAfterGraph@COrderLineAddInImp@@MAEXPAUHDC__@@@Z DD 0ffffffffH
	DD	FLAT:__unwindfunclet$?OnDrawAfterGraph@COrderLineAddInImp@@MAEXPAUHDC__@@@Z$0
	DD	0ffffffffH
	DD	FLAT:___std_terminate
	DD	0ffffffffH
	DD	FLAT:___std_terminate
	DD	0ffffffffH
	DD	FLAT:___std_terminate
__ehfuncinfo$?OnDrawAfterGraph@COrderLineAddInImp@@MAEXPAUHDC__@@@Z DD 019930522H
	DD	04H
	DD	FLAT:__unwindtable$?OnDrawAfterGraph@COrderLineAddInImp@@MAEXPAUHDC__@@@Z
	DD	2 DUP(00H)
	DD	2 DUP(00H)
	DD	00H
	DD	01H
xdata$x	ENDS
;	COMDAT xdata$x
xdata$x	SEGMENT
__unwindtable$?GetGraphVScaleRegion@COrderLineAddInImp@@IAEHXZ DD 0ffffffffH
	DD	FLAT:__unwindfunclet$?GetGraphVScaleRegion@COrderLineAddInImp@@IAEHXZ$0
	DD	0ffffffffH
	DD	FLAT:___std_terminate
__ehfuncinfo$?GetGraphVScaleRegion@COrderLineAddInImp@@IAEHXZ DD 019930522H
	DD	02H
	DD	FLAT:__unwindtable$?GetGraphVScaleRegion@COrderLineAddInImp@@IAEHXZ
	DD	2 DUP(00H)
	DD	2 DUP(00H)
	DD	00H
	DD	01H
xdata$x	ENDS
;	COMDAT xdata$x
xdata$x	SEGMENT
__unwindtable$?GetGraphBlockRegion@COrderLineAddInImp@@IAEHXZ DD 0ffffffffH
	DD	FLAT:__unwindfunclet$?GetGraphBlockRegion@COrderLineAddInImp@@IAEHXZ$0
	DD	0ffffffffH
	DD	FLAT:___std_terminate
__ehfuncinfo$?GetGraphBlockRegion@COrderLineAddInImp@@IAEHXZ DD 019930522H
	DD	02H
	DD	FLAT:__unwindtable$?GetGraphBlockRegion@COrderLineAddInImp@@IAEHXZ
	DD	2 DUP(00H)
	DD	2 DUP(00H)
	DD	00H
	DD	01H
xdata$x	ENDS
;	COMDAT xdata$x
xdata$x	SEGMENT
__unwindtable$?SetData@COrderLineAddInImp@@QAEXPAVCOrderLine@@PAUFX_CHE_STRUCT@@H@Z DD 0ffffffffH
	DD	FLAT:__unwindfunclet$?SetData@COrderLineAddInImp@@QAEXPAVCOrderLine@@PAUFX_CHE_STRUCT@@H@Z$0
	DD	00H
	DD	FLAT:__unwindfunclet$?SetData@COrderLineAddInImp@@QAEXPAVCOrderLine@@PAUFX_CHE_STRUCT@@H@Z$1
__ehfuncinfo$?SetData@COrderLineAddInImp@@QAEXPAVCOrderLine@@PAUFX_CHE_STRUCT@@H@Z DD 019930522H
	DD	02H
	DD	FLAT:__unwindtable$?SetData@COrderLineAddInImp@@QAEXPAVCOrderLine@@PAUFX_CHE_STRUCT@@H@Z
	DD	2 DUP(00H)
	DD	2 DUP(00H)
	DD	00H
	DD	01H
xdata$x	ENDS
;	COMDAT xdata$x
xdata$x	SEGMENT
__unwindtable$?CheckIsLineInScreen@COrderLineAddInImp@@QAEXPAVCOrderLine@@@Z DD 0ffffffffH
	DD	FLAT:__unwindfunclet$?CheckIsLineInScreen@COrderLineAddInImp@@QAEXPAVCOrderLine@@@Z$0
	DD	0ffffffffH
	DD	FLAT:___std_terminate
__ehfuncinfo$?CheckIsLineInScreen@COrderLineAddInImp@@QAEXPAVCOrderLine@@@Z DD 019930522H
	DD	02H
	DD	FLAT:__unwindtable$?CheckIsLineInScreen@COrderLineAddInImp@@QAEXPAVCOrderLine@@@Z
	DD	2 DUP(00H)
	DD	2 DUP(00H)
	DD	00H
	DD	01H
xdata$x	ENDS
;	COMDAT xdata$x
xdata$x	SEGMENT
__unwindtable$?AddPendingPosition@COrderLineAddInImp@@QAEXPAUFX_CHE_STRUCT@@@Z DD 0ffffffffH
	DD	FLAT:__unwindfunclet$?AddPendingPosition@COrderLineAddInImp@@QAEXPAUFX_CHE_STRUCT@@@Z$0
__ehfuncinfo$?AddPendingPosition@COrderLineAddInImp@@QAEXPAUFX_CHE_STRUCT@@@Z DD 019930522H
	DD	01H
	DD	FLAT:__unwindtable$?AddPendingPosition@COrderLineAddInImp@@QAEXPAUFX_CHE_STRUCT@@@Z
	DD	2 DUP(00H)
	DD	2 DUP(00H)
	DD	00H
	DD	01H
xdata$x	ENDS
;	COMDAT xdata$x
xdata$x	SEGMENT
__unwindtable$?AddOpenPosition@COrderLineAddInImp@@QAEXPAUFX_CHE_STRUCT@@@Z DD 0ffffffffH
	DD	FLAT:__unwindfunclet$?AddOpenPosition@COrderLineAddInImp@@QAEXPAUFX_CHE_STRUCT@@@Z$0
__ehfuncinfo$?AddOpenPosition@COrderLineAddInImp@@QAEXPAUFX_CHE_STRUCT@@@Z DD 019930522H
	DD	01H
	DD	FLAT:__unwindtable$?AddOpenPosition@COrderLineAddInImp@@QAEXPAUFX_CHE_STRUCT@@@Z
	DD	2 DUP(00H)
	DD	2 DUP(00H)
	DD	00H
	DD	01H
xdata$x	ENDS
;	COMDAT xdata$x
xdata$x	SEGMENT
__unwindtable$?SetPendingPosition@COrderLineAddInImp@@QAEXPAUFX_CHE_STRUCT@@@Z DD 0ffffffffH
	DD	FLAT:__unwindfunclet$?SetPendingPosition@COrderLineAddInImp@@QAEXPAUFX_CHE_STRUCT@@@Z$0
	DD	0ffffffffH
	DD	FLAT:__unwindfunclet$?SetPendingPosition@COrderLineAddInImp@@QAEXPAUFX_CHE_STRUCT@@@Z$1
__ehfuncinfo$?SetPendingPosition@COrderLineAddInImp@@QAEXPAUFX_CHE_STRUCT@@@Z DD 019930522H
	DD	02H
	DD	FLAT:__unwindtable$?SetPendingPosition@COrderLineAddInImp@@QAEXPAUFX_CHE_STRUCT@@@Z
	DD	2 DUP(00H)
	DD	2 DUP(00H)
	DD	00H
	DD	01H
xdata$x	ENDS
;	COMDAT xdata$x
xdata$x	SEGMENT
__unwindtable$?SetOpenPosition@COrderLineAddInImp@@QAEXPAUFX_CHE_STRUCT@@@Z DD 0ffffffffH
	DD	FLAT:__unwindfunclet$?SetOpenPosition@COrderLineAddInImp@@QAEXPAUFX_CHE_STRUCT@@@Z$0
	DD	0ffffffffH
	DD	FLAT:__unwindfunclet$?SetOpenPosition@COrderLineAddInImp@@QAEXPAUFX_CHE_STRUCT@@@Z$1
__ehfuncinfo$?SetOpenPosition@COrderLineAddInImp@@QAEXPAUFX_CHE_STRUCT@@@Z DD 019930522H
	DD	02H
	DD	FLAT:__unwindtable$?SetOpenPosition@COrderLineAddInImp@@QAEXPAUFX_CHE_STRUCT@@@Z
	DD	2 DUP(00H)
	DD	2 DUP(00H)
	DD	00H
	DD	01H
xdata$x	ENDS
;	COMDAT xdata$x
xdata$x	SEGMENT
__unwindtable$?SetMouseCursor@COrderLineAddInImp@@QAEXH@Z DD 0ffffffffH
	DD	FLAT:__unwindfunclet$?SetMouseCursor@COrderLineAddInImp@@QAEXH@Z$0
	DD	0ffffffffH
	DD	FLAT:___std_terminate
__ehfuncinfo$?SetMouseCursor@COrderLineAddInImp@@QAEXH@Z DD 019930522H
	DD	02H
	DD	FLAT:__unwindtable$?SetMouseCursor@COrderLineAddInImp@@QAEXH@Z
	DD	2 DUP(00H)
	DD	2 DUP(00H)
	DD	00H
	DD	01H
xdata$x	ENDS
;	COMDAT xdata$x
xdata$x	SEGMENT
__ehfuncinfo$??1COrderLineAddInImp@@UAE@XZ DD 019930522H
	DD	00H
	DD	00H
	DD	2 DUP(00H)
	DD	2 DUP(00H)
	DD	00H
	DD	05H
xdata$x	ENDS
;	COMDAT xdata$x
xdata$x	SEGMENT
__unwindtable$??0COrderLineAddInImp@@QAE@PAUIChartOCX000000@@PAUIAddInDllBase@@@Z DD 0ffffffffH
	DD	FLAT:__unwindfunclet$??0COrderLineAddInImp@@QAE@PAUIChartOCX000000@@PAUIAddInDllBase@@@Z$0
	DD	00H
	DD	FLAT:__unwindfunclet$??0COrderLineAddInImp@@QAE@PAUIChartOCX000000@@PAUIAddInDllBase@@@Z$1
__ehfuncinfo$??0COrderLineAddInImp@@QAE@PAUIChartOCX000000@@PAUIAddInDllBase@@@Z DD 019930522H
	DD	02H
	DD	FLAT:__unwindtable$??0COrderLineAddInImp@@QAE@PAUIChartOCX000000@@PAUIAddInDllBase@@@Z
	DD	2 DUP(00H)
	DD	2 DUP(00H)
	DD	00H
	DD	01H
xdata$x	ENDS
;	COMDAT xdata$x
xdata$x	SEGMENT
__unwindtable$?DrawOrderText@COrderLine@@QAEXPAVCDC@@@Z DD 0ffffffffH
	DD	FLAT:__unwindfunclet$?DrawOrderText@COrderLine@@QAEXPAVCDC@@@Z$0
__ehfuncinfo$?DrawOrderText@COrderLine@@QAEXPAVCDC@@@Z DD 019930522H
	DD	01H
	DD	FLAT:__unwindtable$?DrawOrderText@COrderLine@@QAEXPAVCDC@@@Z
	DD	2 DUP(00H)
	DD	2 DUP(00H)
	DD	00H
	DD	01H
xdata$x	ENDS
;	COMDAT xdata$x
xdata$x	SEGMENT
__unwindtable$?DrawOrderLineOnMouseOver@COrderLine@@QAEXPAVCDC@@@Z DD 0ffffffffH
	DD	FLAT:__unwindfunclet$?DrawOrderLineOnMouseOver@COrderLine@@QAEXPAVCDC@@@Z$0
__ehfuncinfo$?DrawOrderLineOnMouseOver@COrderLine@@QAEXPAVCDC@@@Z DD 019930522H
	DD	01H
	DD	FLAT:__unwindtable$?DrawOrderLineOnMouseOver@COrderLine@@QAEXPAVCDC@@@Z
	DD	2 DUP(00H)
	DD	2 DUP(00H)
	DD	00H
	DD	01H
xdata$x	ENDS
;	COMDAT xdata$x
xdata$x	SEGMENT
__ehfuncinfo$?Draw@COrderLine@@QAEXPAVCDC@@@Z DD 019930522H
	DD	06H
	DD	FLAT:__unwindtable$?Draw@COrderLine@@QAEXPAVCDC@@@Z
	DD	2 DUP(00H)
	DD	2 DUP(00H)
	DD	00H
	DD	01H
__unwindtable$?Draw@COrderLine@@QAEXPAVCDC@@@Z DD 0ffffffffH
	DD	FLAT:__unwindfunclet$?Draw@COrderLine@@QAEXPAVCDC@@@Z$0
	DD	00H
	DD	FLAT:__unwindfunclet$?Draw@COrderLine@@QAEXPAVCDC@@@Z$4
	DD	00H
	DD	FLAT:__unwindfunclet$?Draw@COrderLine@@QAEXPAVCDC@@@Z$1
	DD	02H
	DD	FLAT:__unwindfunclet$?Draw@COrderLine@@QAEXPAVCDC@@@Z$6
	DD	0ffffffffH
	DD	FLAT:__unwindfunclet$?Draw@COrderLine@@QAEXPAVCDC@@@Z$2
	DD	04H
	DD	FLAT:__unwindfunclet$?Draw@COrderLine@@QAEXPAVCDC@@@Z$3
xdata$x	ENDS
;	COMDAT xdata$x
xdata$x	SEGMENT
__unwindtable$??0COrderLine@@QAE@VCPoint@@0N@Z DD 0ffffffffH
	DD	FLAT:__unwindfunclet$??0COrderLine@@QAE@VCPoint@@0N@Z$0
	DD	00H
	DD	FLAT:__unwindfunclet$??0COrderLine@@QAE@VCPoint@@0N@Z$1
	DD	01H
	DD	FLAT:__unwindfunclet$??0COrderLine@@QAE@VCPoint@@0N@Z$2
	DD	02H
	DD	FLAT:__unwindfunclet$??0COrderLine@@QAE@VCPoint@@0N@Z$3
__ehfuncinfo$??0COrderLine@@QAE@VCPoint@@0N@Z DD 019930522H
	DD	04H
	DD	FLAT:__unwindtable$??0COrderLine@@QAE@VCPoint@@0N@Z
	DD	2 DUP(00H)
	DD	2 DUP(00H)
	DD	00H
	DD	01H
xdata$x	ENDS
;	COMDAT xdata$x
xdata$x	SEGMENT
__unwindtable$??0COrderLine@@QAE@XZ DD 0ffffffffH
	DD	FLAT:__unwindfunclet$??0COrderLine@@QAE@XZ$0
	DD	00H
	DD	FLAT:__unwindfunclet$??0COrderLine@@QAE@XZ$1
	DD	01H
	DD	FLAT:__unwindfunclet$??0COrderLine@@QAE@XZ$2
	DD	02H
	DD	FLAT:__unwindfunclet$??0COrderLine@@QAE@XZ$3
__ehfuncinfo$??0COrderLine@@QAE@XZ DD 019930522H
	DD	04H
	DD	FLAT:__unwindtable$??0COrderLine@@QAE@XZ
	DD	2 DUP(00H)
	DD	2 DUP(00H)
	DD	00H
	DD	01H
xdata$x	ENDS
;	COMDAT xdata$x
xdata$x	SEGMENT
__unwindtable$??_GCMenu@@UAEPAXI@Z DD 0ffffffffH
	DD	FLAT:___std_terminate
__ehfuncinfo$??_GCMenu@@UAEPAXI@Z DD 019930522H
	DD	01H
	DD	FLAT:__unwindtable$??_GCMenu@@UAEPAXI@Z
	DD	2 DUP(00H)
	DD	2 DUP(00H)
	DD	00H
	DD	05H
xdata$x	ENDS
;	COMDAT xdata$x
xdata$x	SEGMENT
__ehfuncinfo$??1CMenu@@UAE@XZ DD 019930522H
	DD	00H
	DD	00H
	DD	2 DUP(00H)
	DD	2 DUP(00H)
	DD	00H
	DD	05H
xdata$x	ENDS
;	COMDAT xdata$x
xdata$x	SEGMENT
__catchsym$??1CGdiObject@@UAE@XZ$3 DD 00H
	DD	FLAT:??_R0PAVCException@@@8
	DD	0fffffde4H
	DD	FLAT:__catch$??1CGdiObject@@UAE@XZ$0
__tryblocktable$??1CGdiObject@@UAE@XZ DD 00H
	DD	00H
	DD	02H
	DD	01H
	DD	FLAT:__catchsym$??1CGdiObject@@UAE@XZ$3
__unwindtable$??1CGdiObject@@UAE@XZ DD 0ffffffffH
	DD	00H
	DD	0ffffffffH
	DD	00H
	DD	01H
	DD	FLAT:__unwindfunclet$??1CGdiObject@@UAE@XZ$2
__ehfuncinfo$??1CGdiObject@@UAE@XZ DD 019930522H
	DD	03H
	DD	FLAT:__unwindtable$??1CGdiObject@@UAE@XZ
	DD	01H
	DD	FLAT:__tryblocktable$??1CGdiObject@@UAE@XZ
	DD	2 DUP(00H)
	DD	00H
	DD	05H
xdata$x	ENDS
CRT$XCU	SEGMENT
??m_strAddInItemName$initializer$@COrderLineAddInImp@@2P6AXXZA@@3P6AXXZA DD FLAT:??__E?m_strAddInItemName@COrderLineAddInImp@@2V?$CStringT@DV?$StrTraitMFC_DLL@DV?$ChTraitsCRT@D@ATL@@@@@ATL@@A@@YAXXZ ; ??m_strAddInItemName$initializer$@COrderLineAddInImp@@2P6AXXZA@@3P6AXXZA
CRT$XCU	ENDS
; Function compile flags: /Odsp
;	COMDAT ??_ECOrderLineAddInImp@@W7AEPAXI@Z
_TEXT	SEGMENT
??_ECOrderLineAddInImp@@W7AEPAXI@Z PROC			; [thunk]:COrderLineAddInImp::`vector deleting destructor', COMDAT
  00000	83 e9 08	 sub	 ecx, 8
  00003	e9 00 00 00 00	 jmp	 ??_ECOrderLineAddInImp@@UAEPAXI@Z
??_ECOrderLineAddInImp@@W7AEPAXI@Z ENDP			; [thunk]:COrderLineAddInImp::`vector deleting destructor'
_TEXT	ENDS
; Function compile flags: /Odsp
;	COMDAT ?Release@CChartAddInBase000000@@O7AGKXZ
_TEXT	SEGMENT
?Release@CChartAddInBase000000@@O7AGKXZ PROC		; [thunk]:CChartAddInBase000000::Release`adjustor{8}', COMDAT
  00000	83 6c 24 04 08	 sub	 DWORD PTR [esp+4], 8
  00005	e9 00 00 00 00	 jmp	 ?Release@CChartAddInBase000000@@MAGKXZ ; CChartAddInBase000000::Release
?Release@CChartAddInBase000000@@O7AGKXZ ENDP		; [thunk]:CChartAddInBase000000::Release`adjustor{8}'
_TEXT	ENDS
; Function compile flags: /Odsp
;	COMDAT ?AddRef@CChartAddInBase000000@@O7AGKXZ
_TEXT	SEGMENT
?AddRef@CChartAddInBase000000@@O7AGKXZ PROC		; [thunk]:CChartAddInBase000000::AddRef`adjustor{8}', COMDAT
  00000	83 6c 24 04 08	 sub	 DWORD PTR [esp+4], 8
  00005	e9 00 00 00 00	 jmp	 ?AddRef@CChartAddInBase000000@@MAGKXZ ; CChartAddInBase000000::AddRef
?AddRef@CChartAddInBase000000@@O7AGKXZ ENDP		; [thunk]:CChartAddInBase000000::AddRef`adjustor{8}'
_TEXT	ENDS
; Function compile flags: /Odsp
;	COMDAT ?QueryInterface@CChartAddInBase000000@@O7AGJABU_GUID@@PAPAX@Z
_TEXT	SEGMENT
?QueryInterface@CChartAddInBase000000@@O7AGJABU_GUID@@PAPAX@Z PROC ; [thunk]:CChartAddInBase000000::QueryInterface`adjustor{8}', COMDAT
  00000	83 6c 24 04 08	 sub	 DWORD PTR [esp+4], 8
  00005	e9 00 00 00 00	 jmp	 ?QueryInterface@CChartAddInBase000000@@MAGJABU_GUID@@PAPAX@Z ; CChartAddInBase000000::QueryInterface
?QueryInterface@CChartAddInBase000000@@O7AGJABU_GUID@@PAPAX@Z ENDP ; [thunk]:CChartAddInBase000000::QueryInterface`adjustor{8}'
_TEXT	ENDS
; Function compile flags: /Ogtp
;	COMDAT ??__F?m_strAddInItemName@COrderLineAddInImp@@2V?$CStringT@DV?$StrTraitMFC_DLL@DV?$ChTraitsCRT@D@ATL@@@@@ATL@@A@@YAXXZ
text$yd	SEGMENT
??__F?m_strAddInItemName@COrderLineAddInImp@@2V?$CStringT@DV?$StrTraitMFC_DLL@DV?$ChTraitsCRT@D@ATL@@@@@ATL@@A@@YAXXZ PROC ; `dynamic atexit destructor for 'COrderLineAddInImp::m_strAddInItemName'', COMDAT
  00000	b9 00 00 00 00	 mov	 ecx, OFFSET ?m_strAddInItemName@COrderLineAddInImp@@2V?$CStringT@DV?$StrTraitMFC_DLL@DV?$ChTraitsCRT@D@ATL@@@@@ATL@@A ; COrderLineAddInImp::m_strAddInItemName
  00005	ff 25 00 00 00
	00		 jmp	 DWORD PTR __imp_??1?$CStringT@DV?$StrTraitMFC_DLL@DV?$ChTraitsCRT@D@ATL@@@@@ATL@@QAE@XZ
??__F?m_strAddInItemName@COrderLineAddInImp@@2V?$CStringT@DV?$StrTraitMFC_DLL@DV?$ChTraitsCRT@D@ATL@@@@@ATL@@A@@YAXXZ ENDP ; `dynamic atexit destructor for 'COrderLineAddInImp::m_strAddInItemName''
text$yd	ENDS
; Function compile flags: /Ogtp
; File D:\git\src\IBK\IBK_DRFN\ProjSrc\SrcChartEx\ChartOCX\AddInManager\ChartCommonAddIn\OrderLineAddinImp.cpp
;	COMDAT ??__E?m_strAddInItemName@COrderLineAddInImp@@2V?$CStringT@DV?$StrTraitMFC_DLL@DV?$ChTraitsCRT@D@ATL@@@@@ATL@@A@@YAXXZ
text$di	SEGMENT
??__E?m_strAddInItemName@COrderLineAddInImp@@2V?$CStringT@DV?$StrTraitMFC_DLL@DV?$ChTraitsCRT@D@ATL@@@@@ATL@@A@@YAXXZ PROC ; `dynamic initializer for 'COrderLineAddInImp::m_strAddInItemName'', COMDAT

; 389  : CString COrderLineAddInImp::m_strAddInItemName = "ORDER_LINE";

  00000	68 00 00 00 00	 push	 OFFSET ??_C@_0L@ELKNJAAE@ORDER_LINE@
  00005	b9 00 00 00 00	 mov	 ecx, OFFSET ?m_strAddInItemName@COrderLineAddInImp@@2V?$CStringT@DV?$StrTraitMFC_DLL@DV?$ChTraitsCRT@D@ATL@@@@@ATL@@A ; COrderLineAddInImp::m_strAddInItemName
  0000a	ff 15 00 00 00
	00		 call	 DWORD PTR __imp_??0?$CStringT@DV?$StrTraitMFC_DLL@DV?$ChTraitsCRT@D@ATL@@@@@ATL@@QAE@PBD@Z
  00010	68 00 00 00 00	 push	 OFFSET ??__F?m_strAddInItemName@COrderLineAddInImp@@2V?$CStringT@DV?$StrTraitMFC_DLL@DV?$ChTraitsCRT@D@ATL@@@@@ATL@@A@@YAXXZ ; `dynamic atexit destructor for 'COrderLineAddInImp::m_strAddInItemName''
  00015	e8 00 00 00 00	 call	 _atexit
  0001a	59		 pop	 ecx
  0001b	c3		 ret	 0
??__E?m_strAddInItemName@COrderLineAddInImp@@2V?$CStringT@DV?$StrTraitMFC_DLL@DV?$ChTraitsCRT@D@ATL@@@@@ATL@@A@@YAXXZ ENDP ; `dynamic initializer for 'COrderLineAddInImp::m_strAddInItemName''
text$di	ENDS
; Function compile flags: /Ogtp
; File D:\git\src\IBK\IBK_DRFN\ProjSrc\SrcChartEx\ChartOCX\AddInManager\Include_AddIn\I000000\_IString.h
;	COMDAT ??1ILPCSTR000000@@QAE@XZ
_TEXT	SEGMENT
__$EHRec$ = -12						; size = 12
??1ILPCSTR000000@@QAE@XZ PROC				; ILPCSTR000000::~ILPCSTR000000, COMDAT
; _this$ = ecx

; 44   : 	{

  00000	55		 push	 ebp
  00001	8b ec		 mov	 ebp, esp
  00003	6a ff		 push	 -1
  00005	68 00 00 00 00	 push	 __ehhandler$??1ILPCSTR000000@@QAE@XZ
  0000a	64 a1 00 00 00
	00		 mov	 eax, DWORD PTR fs:0
  00010	50		 push	 eax
  00011	56		 push	 esi
  00012	a1 00 00 00 00	 mov	 eax, DWORD PTR ___security_cookie
  00017	33 c5		 xor	 eax, ebp
  00019	50		 push	 eax
  0001a	8d 45 f4	 lea	 eax, DWORD PTR __$EHRec$[ebp]
  0001d	64 a3 00 00 00
	00		 mov	 DWORD PTR fs:0, eax
  00023	8b f1		 mov	 esi, ecx

; 45   : 		if( m_pIStrData)

  00025	8b 4e 04	 mov	 ecx, DWORD PTR [esi+4]
  00028	85 c9		 test	 ecx, ecx
  0002a	74 13		 je	 SHORT $LN2@ILPCSTR000

; 46   : 		{
; 47   : 			m_pIStrData->Release();

  0002c	8b 01		 mov	 eax, DWORD PTR [ecx]
  0002e	51		 push	 ecx
  0002f	ff 50 08	 call	 DWORD PTR [eax+8]

; 48   : 			m_pIStrData = NULL;

  00032	c7 46 04 00 00
	00 00		 mov	 DWORD PTR [esi+4], 0

; 49   : 			m_szData = NULL;

  00039	c7 06 00 00 00
	00		 mov	 DWORD PTR [esi], 0
$LN2@ILPCSTR000:

; 50   : 		}
; 51   : 	}

  0003f	8b 4d f4	 mov	 ecx, DWORD PTR __$EHRec$[ebp]
  00042	64 89 0d 00 00
	00 00		 mov	 DWORD PTR fs:0, ecx
  00049	59		 pop	 ecx
  0004a	5e		 pop	 esi
  0004b	8b e5		 mov	 esp, ebp
  0004d	5d		 pop	 ebp
  0004e	c3		 ret	 0
  0004f	cc		 int	 3
  00050	cc		 int	 3
  00051	cc		 int	 3
  00052	cc		 int	 3
  00053	cc		 int	 3
_TEXT	ENDS
;	COMDAT text$x
text$x	SEGMENT
__ehhandler$??1ILPCSTR000000@@QAE@XZ:
  00000	90		 npad	 1
  00001	90		 npad	 1
  00002	8b 54 24 08	 mov	 edx, DWORD PTR [esp+8]
  00006	8d 42 0c	 lea	 eax, DWORD PTR [edx+12]
  00009	8b 4a f8	 mov	 ecx, DWORD PTR [edx-8]
  0000c	33 c8		 xor	 ecx, eax
  0000e	e8 00 00 00 00	 call	 @__security_check_cookie@4
  00013	b8 00 00 00 00	 mov	 eax, OFFSET __ehfuncinfo$??1ILPCSTR000000@@QAE@XZ
  00018	e9 00 00 00 00	 jmp	 ___CxxFrameHandler3
text$x	ENDS
??1ILPCSTR000000@@QAE@XZ ENDP				; ILPCSTR000000::~ILPCSTR000000
; Function compile flags: /Ogtp
; File D:\git\src\IBK\IBK_DRFN\ProjSrc\SrcChartEx\ChartOCX\Include_Chart\MessageDefine.h
;	COMDAT ??__ERMS_ANALYSIS_FUNC@@YAXXZ
text$di	SEGMENT
??__ERMS_ANALYSIS_FUNC@@YAXXZ PROC			; `dynamic initializer for 'RMS_ANALYSIS_FUNC'', COMDAT

; 5    : const UINT RMS_ANALYSIS_FUNC = ::RegisterWindowMessage(_T("RMS_ANALYSIS_FUNC"));

  00000	68 00 00 00 00	 push	 OFFSET ??_C@_0BC@MMPGLPDH@RMS_ANALYSIS_FUNC@
  00005	ff 15 00 00 00
	00		 call	 DWORD PTR __imp__RegisterWindowMessageA@4
  0000b	a3 00 00 00 00	 mov	 DWORD PTR ?RMS_ANALYSIS_FUNC@@3IB, eax
  00010	c3		 ret	 0
??__ERMS_ANALYSIS_FUNC@@YAXXZ ENDP			; `dynamic initializer for 'RMS_ANALYSIS_FUNC''
text$di	ENDS
; Function compile flags: /Ogtp
; File D:\git\src\IBK\IBK_DRFN\ProjSrc\SrcChartEx\ChartOCX\Include_Chart\Dll_Load\IMetaTable.h
; File C:\Program Files (x86)\Microsoft Visual Studio\2019\Community\VC\Tools\MSVC\14.29.30133\atlmfc\include\afxwin1.inl
; File D:\git\src\IBK\IBK_DRFN\ProjSrc\SrcChartEx\ChartOCX\Include_Chart\Dll_Load\IMetaTable.h
;	COMDAT ??1CMultiLanguageResourceSetter@@QAE@XZ
_TEXT	SEGMENT
__$EHRec$ = -12						; size = 12
??1CMultiLanguageResourceSetter@@QAE@XZ PROC		; CMultiLanguageResourceSetter::~CMultiLanguageResourceSetter, COMDAT
; _this$ = ecx

; 1036 : 	{

  00000	55		 push	 ebp
  00001	8b ec		 mov	 ebp, esp
  00003	6a ff		 push	 -1
  00005	68 00 00 00 00	 push	 __ehhandler$??1CMultiLanguageResourceSetter@@QAE@XZ
  0000a	64 a1 00 00 00
	00		 mov	 eax, DWORD PTR fs:0
  00010	50		 push	 eax
  00011	56		 push	 esi
  00012	a1 00 00 00 00	 mov	 eax, DWORD PTR ___security_cookie
  00017	33 c5		 xor	 eax, ebp
  00019	50		 push	 eax
  0001a	8d 45 f4	 lea	 eax, DWORD PTR __$EHRec$[ebp]
  0001d	64 a3 00 00 00
	00		 mov	 DWORD PTR fs:0, eax

; 1037 : 		AfxSetResourceHandle( m_hInstance);

  00023	8b 31		 mov	 esi, DWORD PTR [ecx]
; File C:\Program Files (x86)\Microsoft Visual Studio\2019\Community\VC\Tools\MSVC\14.29.30133\atlmfc\include\afxwin1.inl

; 27   : 	{ ASSERT(hInstResource != NULL); afxCurrentResourceHandle = hInstResource; }

  00025	e8 00 00 00 00	 call	 ?AfxGetModuleState@@YGPAVAFX_MODULE_STATE@@XZ ; AfxGetModuleState
  0002a	89 70 0c	 mov	 DWORD PTR [eax+12], esi
; File D:\git\src\IBK\IBK_DRFN\ProjSrc\SrcChartEx\ChartOCX\Include_Chart\Dll_Load\IMetaTable.h

; 1038 : 	}

  0002d	8b 4d f4	 mov	 ecx, DWORD PTR __$EHRec$[ebp]
  00030	64 89 0d 00 00
	00 00		 mov	 DWORD PTR fs:0, ecx
  00037	59		 pop	 ecx
  00038	5e		 pop	 esi
  00039	8b e5		 mov	 esp, ebp
  0003b	5d		 pop	 ebp
  0003c	c3		 ret	 0
  0003d	cc		 int	 3
  0003e	cc		 int	 3
  0003f	cc		 int	 3
  00040	cc		 int	 3
  00041	cc		 int	 3
_TEXT	ENDS
;	COMDAT text$x
text$x	SEGMENT
__ehhandler$??1CMultiLanguageResourceSetter@@QAE@XZ:
  00000	90		 npad	 1
  00001	90		 npad	 1
  00002	8b 54 24 08	 mov	 edx, DWORD PTR [esp+8]
  00006	8d 42 0c	 lea	 eax, DWORD PTR [edx+12]
  00009	8b 4a f8	 mov	 ecx, DWORD PTR [edx-8]
  0000c	33 c8		 xor	 ecx, eax
  0000e	e8 00 00 00 00	 call	 @__security_check_cookie@4
  00013	b8 00 00 00 00	 mov	 eax, OFFSET __ehfuncinfo$??1CMultiLanguageResourceSetter@@QAE@XZ
  00018	e9 00 00 00 00	 jmp	 ___CxxFrameHandler3
text$x	ENDS
??1CMultiLanguageResourceSetter@@QAE@XZ ENDP		; CMultiLanguageResourceSetter::~CMultiLanguageResourceSetter
; Function compile flags: /Ogtp
; File D:\git\src\IBK\IBK_DRFN\ProjSrc\SrcChartEx\ChartOCX\AddInManager\ChartCommonAddIn\OrderLineAddinImp.cpp
; File C:\Program Files (x86)\Microsoft Visual Studio\2019\Community\VC\Tools\MSVC\14.29.30133\atlmfc\include\afxcoll.inl
; File D:\git\src\IBK\IBK_DRFN\ProjSrc\SrcChartEx\ChartOCX\AddInManager\ChartCommonAddIn\OrderLineAddinImp.cpp
; File C:\Program Files (x86)\Microsoft Visual Studio\2019\Community\VC\Tools\MSVC\14.29.30133\atlmfc\include\afx.inl
;	COMDAT ??_GCOrderLineAddInImp@@UAEPAXI@Z
_TEXT	SEGMENT
__$EHRec$ = -12						; size = 12
___flags$ = 8						; size = 4
??_GCOrderLineAddInImp@@UAEPAXI@Z PROC			; COrderLineAddInImp::`scalar deleting destructor', COMDAT
; _this$ = ecx
  00000	55		 push	 ebp
  00001	8b ec		 mov	 ebp, esp
  00003	6a ff		 push	 -1
  00005	68 00 00 00 00	 push	 __ehhandler$??_GCOrderLineAddInImp@@UAEPAXI@Z
  0000a	64 a1 00 00 00
	00		 mov	 eax, DWORD PTR fs:0
  00010	50		 push	 eax
  00011	56		 push	 esi
  00012	57		 push	 edi
  00013	a1 00 00 00 00	 mov	 eax, DWORD PTR ___security_cookie
  00018	33 c5		 xor	 eax, ebp
  0001a	50		 push	 eax
  0001b	8d 45 f4	 lea	 eax, DWORD PTR __$EHRec$[ebp]
  0001e	64 a3 00 00 00
	00		 mov	 DWORD PTR fs:0, eax
  00024	8b f9		 mov	 edi, ecx
; File D:\git\src\IBK\IBK_DRFN\ProjSrc\SrcChartEx\ChartOCX\AddInManager\ChartCommonAddIn\OrderLineAddinImp.cpp

; 378  : 	POSITION pos = m_OrderLineList.GetHeadPosition();

  00026	8b 77 64	 mov	 esi, DWORD PTR [edi+100]
  00029	c7 45 fc 00 00
	00 00		 mov	 DWORD PTR __$EHRec$[ebp+8], 0
  00030	c7 07 00 00 00
	00		 mov	 DWORD PTR [edi], OFFSET ??_7COrderLineAddInImp@@6BCIWUnknown@@@
  00036	c7 47 08 00 00
	00 00		 mov	 DWORD PTR [edi+8], OFFSET ??_7COrderLineAddInImp@@6BIChartAddIn000000@@@

; 379  : 	while (pos)

  0003d	85 f6		 test	 esi, esi
  0003f	74 13		 je	 SHORT $LN9@scalar
$LL8@scalar:

; 382  : 		delete pLineOrder;

  00041	8b 4e 08	 mov	 ecx, DWORD PTR [esi+8]
; File C:\Program Files (x86)\Microsoft Visual Studio\2019\Community\VC\Tools\MSVC\14.29.30133\atlmfc\include\afxcoll.inl

; 432  : 		rPosition = (POSITION) pNode->pNext;

  00044	8b 36		 mov	 esi, DWORD PTR [esi]
; File D:\git\src\IBK\IBK_DRFN\ProjSrc\SrcChartEx\ChartOCX\AddInManager\ChartCommonAddIn\OrderLineAddinImp.cpp

; 382  : 		delete pLineOrder;

  00046	85 c9		 test	 ecx, ecx
  00048	74 06		 je	 SHORT $LN11@scalar
  0004a	8b 01		 mov	 eax, DWORD PTR [ecx]
  0004c	6a 01		 push	 1
  0004e	ff 10		 call	 DWORD PTR [eax]
$LN11@scalar:

; 379  : 	while (pos)

  00050	85 f6		 test	 esi, esi
  00052	75 ed		 jne	 SHORT $LL8@scalar
$LN9@scalar:

; 383  : 		pLineOrder = NULL;
; 384  : 	}
; 385  : 	m_OrderLineList.RemoveAll();

  00054	8d 4f 60	 lea	 ecx, DWORD PTR [edi+96]
  00057	e8 00 00 00 00	 call	 ?RemoveAll@CObList@@QAEXXZ ; CObList::RemoveAll

; 386  : }

  0005c	8d 4f 60	 lea	 ecx, DWORD PTR [edi+96]
  0005f	e8 00 00 00 00	 call	 ??1CObList@@UAE@XZ	; CObList::~CObList
  00064	8d 4f 44	 lea	 ecx, DWORD PTR [edi+68]
  00067	e8 00 00 00 00	 call	 ??1CMapStringToPtr@@UAE@XZ ; CMapStringToPtr::~CMapStringToPtr
  0006c	8b cf		 mov	 ecx, edi
  0006e	e8 00 00 00 00	 call	 ??1CChartAddInBase000000@@MAE@XZ ; CChartAddInBase000000::~CChartAddInBase000000
  00073	8b 45 08	 mov	 eax, DWORD PTR ___flags$[ebp]
  00076	a8 01		 test	 al, 1
  00078	74 1d		 je	 SHORT $LN26@scalar
  0007a	a8 04		 test	 al, 4
  0007c	75 0b		 jne	 SHORT $LN3@scalar
; File C:\Program Files (x86)\Microsoft Visual Studio\2019\Community\VC\Tools\MSVC\14.29.30133\atlmfc\include\afx.inl

; 112  : 	{ ::operator delete(p); }

  0007e	57		 push	 edi
  0007f	e8 00 00 00 00	 call	 ??3@YAXPAX@Z		; operator delete
  00084	83 c4 04	 add	 esp, 4
  00087	eb 0e		 jmp	 SHORT $LN26@scalar
$LN3@scalar:
  00089	68 40 01 00 00	 push	 320			; 00000140H
  0008e	57		 push	 edi
  0008f	e8 00 00 00 00	 call	 ?__global_delete@@YAXPAXI@Z ; __global_delete
  00094	83 c4 08	 add	 esp, 8
$LN26@scalar:
  00097	8b c7		 mov	 eax, edi
  00099	8b 4d f4	 mov	 ecx, DWORD PTR __$EHRec$[ebp]
  0009c	64 89 0d 00 00
	00 00		 mov	 DWORD PTR fs:0, ecx
  000a3	59		 pop	 ecx
  000a4	5f		 pop	 edi
  000a5	5e		 pop	 esi
  000a6	8b e5		 mov	 esp, ebp
  000a8	5d		 pop	 ebp
  000a9	c2 04 00	 ret	 4
  000ac	cc		 int	 3
  000ad	cc		 int	 3
  000ae	cc		 int	 3
  000af	cc		 int	 3
  000b0	cc		 int	 3
_TEXT	ENDS
;	COMDAT text$x
text$x	SEGMENT
__ehhandler$??_GCOrderLineAddInImp@@UAEPAXI@Z:
  00000	90		 npad	 1
  00001	90		 npad	 1
  00002	8b 54 24 08	 mov	 edx, DWORD PTR [esp+8]
  00006	8d 42 0c	 lea	 eax, DWORD PTR [edx+12]
  00009	8b 4a f4	 mov	 ecx, DWORD PTR [edx-12]
  0000c	33 c8		 xor	 ecx, eax
  0000e	e8 00 00 00 00	 call	 @__security_check_cookie@4
  00013	b8 00 00 00 00	 mov	 eax, OFFSET __ehfuncinfo$??_GCOrderLineAddInImp@@UAEPAXI@Z
  00018	e9 00 00 00 00	 jmp	 ___CxxFrameHandler3
text$x	ENDS
??_GCOrderLineAddInImp@@UAEPAXI@Z ENDP			; COrderLineAddInImp::`scalar deleting destructor'
; Function compile flags: /Ogtp
; File D:\git\src\IBK\IBK_DRFN\ProjSrc\SrcChartEx\ChartOCX\AddInManager\ChartCommonAddIn\OrderLineAddinImp.cpp
; File C:\Program Files (x86)\Microsoft Visual Studio\2019\Community\VC\Tools\MSVC\14.29.30133\atlmfc\include\afxcoll.inl
; File D:\git\src\IBK\IBK_DRFN\ProjSrc\SrcChartEx\ChartOCX\AddInManager\ChartCommonAddIn\OrderLineAddinImp.cpp
; File C:\Program Files (x86)\Microsoft Visual Studio\2019\Community\VC\Tools\MSVC\14.29.30133\atlmfc\include\atlsimpstr.h
; File D:\git\src\IBK\IBK_DRFN\ProjSrc\SrcChartEx\ChartOCX\AddInManager\ChartCommonAddIn\OrderLineAddinImp.cpp
; File C:\Program Files (x86)\Microsoft Visual Studio\2019\Community\VC\Tools\MSVC\14.29.30133\atlmfc\include\atltypes.h
; File D:\git\src\IBK\IBK_DRFN\ProjSrc\SrcChartEx\ChartOCX\AddInManager\ChartCommonAddIn\OrderLineAddinImp.cpp
; File C:\Program Files (x86)\Microsoft Visual Studio\2019\Community\VC\Tools\MSVC\14.29.30133\atlmfc\include\atltypes.h
; File D:\git\src\IBK\IBK_DRFN\ProjSrc\SrcChartEx\ChartOCX\AddInManager\ChartCommonAddIn\OrderLineAddinImp.cpp
; File C:\Program Files (x86)\Microsoft Visual Studio\2019\Community\VC\Tools\MSVC\14.29.30133\atlmfc\include\afxcoll.inl
; File D:\git\src\IBK\IBK_DRFN\ProjSrc\SrcChartEx\ChartOCX\AddInManager\ChartCommonAddIn\OrderLineAddinImp.cpp
; File C:\Program Files (x86)\Microsoft Visual Studio\2019\Community\VC\Tools\MSVC\14.29.30133\atlmfc\include\atlsimpstr.h
; File D:\git\src\IBK\IBK_DRFN\ProjSrc\SrcChartEx\ChartOCX\AddInManager\ChartCommonAddIn\OrderLineAddinImp.cpp
; File C:\Program Files (x86)\Microsoft Visual Studio\2019\Community\VC\Tools\MSVC\14.29.30133\atlmfc\include\atltypes.h
; File D:\git\src\IBK\IBK_DRFN\ProjSrc\SrcChartEx\ChartOCX\AddInManager\ChartCommonAddIn\OrderLineAddinImp.cpp
; File C:\Program Files (x86)\Microsoft Visual Studio\2019\Community\VC\Tools\MSVC\14.29.30133\atlmfc\include\atltypes.h
; File D:\git\src\IBK\IBK_DRFN\ProjSrc\SrcChartEx\ChartOCX\AddInManager\ChartCommonAddIn\OrderLineAddinImp.cpp
;	COMDAT ?InvokeAddIn@COrderLineAddInImp@@MAEHHJ@Z
_TEXT	SEGMENT
tv309 = -24						; size = 8
tv155 = -24						; size = 8
_pPendingPosition$1$ = -16				; size = 4
_pOpenPosition$1$ = -16					; size = 4
__$EHRec$ = -12						; size = 12
_pos2$1$ = 8						; size = 4
_this$1$ = 8						; size = 4
_strOrderPrice$2 = 8					; size = 4
_p_nCommandType$ = 8					; size = 4
_pos2$1$ = 12						; size = 4
_this$1$ = 12						; size = 4
$T3 = 12						; size = 4
$T4 = 12						; size = 4
_strOrderPrice$5 = 12					; size = 4
_p_lData$ = 12						; size = 4
?InvokeAddIn@COrderLineAddInImp@@MAEHHJ@Z PROC		; COrderLineAddInImp::InvokeAddIn, COMDAT
; _this$ = ecx

; 1261 : {

  00000	55		 push	 ebp
  00001	8b ec		 mov	 ebp, esp
  00003	6a ff		 push	 -1
  00005	68 00 00 00 00	 push	 __ehhandler$?InvokeAddIn@COrderLineAddInImp@@MAEHHJ@Z
  0000a	64 a1 00 00 00
	00		 mov	 eax, DWORD PTR fs:0
  00010	50		 push	 eax
  00011	83 ec 0c	 sub	 esp, 12			; 0000000cH
  00014	53		 push	 ebx
  00015	56		 push	 esi
  00016	57		 push	 edi
  00017	a1 00 00 00 00	 mov	 eax, DWORD PTR ___security_cookie
  0001c	33 c5		 xor	 eax, ebp
  0001e	50		 push	 eax
  0001f	8d 45 f4	 lea	 eax, DWORD PTR __$EHRec$[ebp]
  00022	64 a3 00 00 00
	00		 mov	 DWORD PTR fs:0, eax

; 1262 : 	if(!p_lData) return FALSE;

  00028	8b 5d 0c	 mov	 ebx, DWORD PTR _p_lData$[ebp]
  0002b	85 db		 test	 ebx, ebx
  0002d	75 16		 jne	 SHORT $LN2@InvokeAddI
  0002f	33 c0		 xor	 eax, eax

; 1279 : }

  00031	8b 4d f4	 mov	 ecx, DWORD PTR __$EHRec$[ebp]
  00034	64 89 0d 00 00
	00 00		 mov	 DWORD PTR fs:0, ecx
  0003b	59		 pop	 ecx
  0003c	5f		 pop	 edi
  0003d	5e		 pop	 esi
  0003e	5b		 pop	 ebx
  0003f	8b e5		 mov	 esp, ebp
  00041	5d		 pop	 ebp
  00042	c2 08 00	 ret	 8
$LN2@InvokeAddI:

; 1263 : 
; 1264 : 	FX_CHE_STRUCT* pDataPosition = (FX_CHE_STRUCT*)p_lData;
; 1265 : 
; 1266 : 	if(p_nCommandType == 1)			// ADD OPEN_POSITION after Seach

  00045	8b 45 08	 mov	 eax, DWORD PTR _p_nCommandType$[ebp]
  00048	83 f8 01	 cmp	 eax, 1
  0004b	0f 85 6b 01 00
	00		 jne	 $LN3@InvokeAddI

; 1078 : 	POSITION pos = m_OrderLineList.GetHeadPosition();

  00051	8b 79 5c	 mov	 edi, DWORD PTR [ecx+92]

; 1267 : 		SetOpenPosition(pDataPosition);

  00054	8d 71 f8	 lea	 esi, DWORD PTR [ecx-8]
  00057	89 75 08	 mov	 DWORD PTR _this$1$[ebp], esi

; 1081 : 	while(pos)

  0005a	85 ff		 test	 edi, edi
  0005c	74 42		 je	 SHORT $LN85@InvokeAddI
  0005e	66 90		 npad	 2
$LL14@InvokeAddI:

; 1084 : 		COrderLine* pOpenPosition = (COrderLine*)m_OrderLineList.GetNext(pos);

  00060	8b 47 08	 mov	 eax, DWORD PTR [edi+8]

; 1085 : 		if(!::memcmp(pStOpenPosition->szOrgCustItem2, pOpenPosition->m_strOrderID, sizeof(pStOpenPosition->szOrgCustItem2)))

  00063	8d 93 d9 00 00
	00		 lea	 edx, DWORD PTR [ebx+217]
  00069	89 7d 0c	 mov	 DWORD PTR _pos2$1$[ebp], edi
  0006c	be 0a 00 00 00	 mov	 esi, 10			; 0000000aH
; File C:\Program Files (x86)\Microsoft Visual Studio\2019\Community\VC\Tools\MSVC\14.29.30133\atlmfc\include\afxcoll.inl

; 432  : 		rPosition = (POSITION) pNode->pNext;

  00071	8b 3f		 mov	 edi, DWORD PTR [edi]
; File D:\git\src\IBK\IBK_DRFN\ProjSrc\SrcChartEx\ChartOCX\AddInManager\ChartCommonAddIn\OrderLineAddinImp.cpp

; 1084 : 		COrderLine* pOpenPosition = (COrderLine*)m_OrderLineList.GetNext(pos);

  00073	89 45 f0	 mov	 DWORD PTR _pOpenPosition$1$[ebp], eax
; File C:\Program Files (x86)\Microsoft Visual Studio\2019\Community\VC\Tools\MSVC\14.29.30133\atlmfc\include\atlsimpstr.h

; 377  : 		return( m_pszData );

  00076	8b 88 e0 00 00
	00		 mov	 ecx, DWORD PTR [eax+224]
  0007c	0f 1f 40 00	 npad	 4
$LL80@InvokeAddI:
; File D:\git\src\IBK\IBK_DRFN\ProjSrc\SrcChartEx\ChartOCX\AddInManager\ChartCommonAddIn\OrderLineAddinImp.cpp

; 1085 : 		if(!::memcmp(pStOpenPosition->szOrgCustItem2, pOpenPosition->m_strOrderID, sizeof(pStOpenPosition->szOrgCustItem2)))

  00080	8b 02		 mov	 eax, DWORD PTR [edx]
  00082	3b 01		 cmp	 eax, DWORD PTR [ecx]
  00084	75 13		 jne	 SHORT $LN79@InvokeAddI
  00086	83 c2 04	 add	 edx, 4
  00089	83 c1 04	 add	 ecx, 4
  0008c	83 ee 04	 sub	 esi, 4
  0008f	73 ef		 jae	 SHORT $LL80@InvokeAddI
  00091	66 8b 02	 mov	 ax, WORD PTR [edx]
  00094	66 3b 01	 cmp	 ax, WORD PTR [ecx]
  00097	74 36		 je	 SHORT $LN84@InvokeAddI
$LN79@InvokeAddI:

; 1079 : 	POSITION pos2;
; 1080 : 
; 1081 : 	while(pos)

  00099	85 ff		 test	 edi, edi
  0009b	75 c3		 jne	 SHORT $LL14@InvokeAddI
  0009d	8b 75 08	 mov	 esi, DWORD PTR _this$1$[ebp]
$LN85@InvokeAddI:

; 1115 : 	COrderLine* pOrderLine = new COrderLine();

  000a0	68 08 01 00 00	 push	 264			; 00000108H
  000a5	e8 00 00 00 00	 call	 ??2@YAPAXI@Z		; operator new
  000aa	83 c4 04	 add	 esp, 4
  000ad	89 45 0c	 mov	 DWORD PTR $T4[ebp], eax
  000b0	c7 45 fc 01 00
	00 00		 mov	 DWORD PTR __$EHRec$[ebp+8], 1
  000b7	85 c0		 test	 eax, eax
  000b9	0f 84 f5 00 00
	00		 je	 $LN37@InvokeAddI
  000bf	8b c8		 mov	 ecx, eax
  000c1	e8 00 00 00 00	 call	 ??0COrderLine@@QAE@XZ	; COrderLine::COrderLine
  000c6	8b f8		 mov	 edi, eax

; 1116 : 
; 1117 : 	SetData(pOrderLine, pStOpenPosition, CONCLUSION_YES);

  000c8	6a 00		 push	 0

; 1267 : 		SetOpenPosition(pDataPosition);

  000ca	e9 54 02 00 00	 jmp	 $LN92@InvokeAddI
$LN84@InvokeAddI:

; 1087 : 			if(pStOpenPosition->fAmount == 0.)

  000cf	f2 0f 10 83 50
	03 00 00	 movsd	 xmm0, QWORD PTR [ebx+848]
  000d7	66 0f 2e 05 00
	00 00 00	 ucomisd xmm0, QWORD PTR __real@0000000000000000
  000df	9f		 lahf
  000e0	f6 c4 44	 test	 ah, 68			; 00000044H
  000e3	7a 1e		 jp	 SHORT $LN17@InvokeAddI

; 1088 : 			{
; 1089 : 				delete pOpenPosition;

  000e5	8b 7d f0	 mov	 edi, DWORD PTR _pOpenPosition$1$[ebp]
  000e8	8b cf		 mov	 ecx, edi
  000ea	6a 01		 push	 1
  000ec	8b 07		 mov	 eax, DWORD PTR [edi]
  000ee	ff 10		 call	 DWORD PTR [eax]

; 1090 : 				pOpenPosition = NULL;
; 1091 : 
; 1092 : 				m_OrderLineList.RemoveAt(pos2);

  000f0	8b 4d 08	 mov	 ecx, DWORD PTR _this$1$[ebp]
  000f3	ff 75 0c	 push	 DWORD PTR _pos2$1$[ebp]
  000f6	83 c1 60	 add	 ecx, 96			; 00000060H
  000f9	e8 00 00 00 00	 call	 ?RemoveAt@CObList@@QAEXPAU__POSITION@@@Z ; CObList::RemoveAt

; 1093 : 			}

  000fe	e9 59 02 00 00	 jmp	 $LN9@InvokeAddI
$LN17@InvokeAddI:

; 1094 : 			else
; 1095 : 			{
; 1096 : 				CString strOrderPrice(pStOpenPosition->szRate, sizeof(pStOpenPosition->szRate));

  00103	6a 0a		 push	 10			; 0000000aH
  00105	8d 43 38	 lea	 eax, DWORD PTR [ebx+56]
  00108	50		 push	 eax
  00109	8d 4d 0c	 lea	 ecx, DWORD PTR _strOrderPrice$5[ebp]
  0010c	ff 15 00 00 00
	00		 call	 DWORD PTR __imp_??0?$CStringT@DV?$StrTraitMFC_DLL@DV?$ChTraitsCRT@D@ATL@@@@@ATL@@QAE@PBDH@Z

; 1097 : 
; 1098 : 				pOpenPosition->m_dOrderPrice = atof(strOrderPrice);

  00112	ff 75 0c	 push	 DWORD PTR _strOrderPrice$5[ebp]
  00115	c7 45 fc 00 00
	00 00		 mov	 DWORD PTR __$EHRec$[ebp+8], 0
  0011c	ff 15 00 00 00
	00		 call	 DWORD PTR __imp__atof

; 1099 : 				int nYPoint = m_pIChartOCX->ConvertDataToYPosition( pOpenPosition->m_dOrderPrice, m_dViewMax, m_dViewMin, m_rctGraphDrawingRegion.top, m_rctGraphDrawingRegion.bottom, m_bLog, m_bReverse);

  00122	8b 5d 08	 mov	 ebx, DWORD PTR _this$1$[ebp]
  00125	83 c4 04	 add	 esp, 4
  00128	8b 7d f0	 mov	 edi, DWORD PTR _pOpenPosition$1$[ebp]
  0012b	dd 5d e8	 fstp	 QWORD PTR tv155[ebp]
  0012e	f2 0f 10 4d e8	 movsd	 xmm1, QWORD PTR tv155[ebp]
  00133	f2 0f 11 4f 40	 movsd	 QWORD PTR [edi+64], xmm1
  00138	ff b3 80 00 00
	00		 push	 DWORD PTR [ebx+128]
  0013e	8b 4b 0c	 mov	 ecx, DWORD PTR [ebx+12]
  00141	ff 73 7c	 push	 DWORD PTR [ebx+124]
  00144	f2 0f 10 83 d8
	00 00 00	 movsd	 xmm0, QWORD PTR [ebx+216]
  0014c	ff b3 b0 00 00
	00		 push	 DWORD PTR [ebx+176]
  00152	8b 01		 mov	 eax, DWORD PTR [ecx]
  00154	ff b3 a8 00 00
	00		 push	 DWORD PTR [ebx+168]
  0015a	83 ec 18	 sub	 esp, 24			; 00000018H
  0015d	f2 0f 11 44 24
	10		 movsd	 QWORD PTR [esp+16], xmm0
  00163	f2 0f 10 83 e0
	00 00 00	 movsd	 xmm0, QWORD PTR [ebx+224]
  0016b	f2 0f 11 44 24
	08		 movsd	 QWORD PTR [esp+8], xmm0
  00171	f2 0f 11 0c 24	 movsd	 QWORD PTR [esp], xmm1
  00176	ff 90 2c 01 00
	00		 call	 DWORD PTR [eax+300]
  0017c	8b f0		 mov	 esi, eax

; 1100 : 
; 1101 : 				pOpenPosition->m_strRate = strOrderPrice;

  0017e	8d 8f e4 00 00
	00		 lea	 ecx, DWORD PTR [edi+228]
  00184	8d 45 0c	 lea	 eax, DWORD PTR _strOrderPrice$5[ebp]
  00187	50		 push	 eax
  00188	ff 15 00 00 00
	00		 call	 DWORD PTR __imp_??4?$CStringT@DV?$StrTraitMFC_DLL@DV?$ChTraitsCRT@D@ATL@@@@@ATL@@QAEAAV01@ABV01@@Z
; File C:\Program Files (x86)\Microsoft Visual Studio\2019\Community\VC\Tools\MSVC\14.29.30133\atlmfc\include\atltypes.h

; 408  : 	x = initX;

  0018e	8b 8b 94 00 00
	00		 mov	 ecx, DWORD PTR [ebx+148]
; File D:\git\src\IBK\IBK_DRFN\ProjSrc\SrcChartEx\ChartOCX\AddInManager\ChartCommonAddIn\OrderLineAddinImp.cpp

; 1102 : 				pOpenPosition->m_ptStart = CPoint(m_rctGraphRegion.left, nYPoint);

  00194	89 4f 50	 mov	 DWORD PTR [edi+80], ecx

; 1104 : 			}

  00197	8d 4d 0c	 lea	 ecx, DWORD PTR _strOrderPrice$5[ebp]
  0019a	89 77 54	 mov	 DWORD PTR [edi+84], esi
; File C:\Program Files (x86)\Microsoft Visual Studio\2019\Community\VC\Tools\MSVC\14.29.30133\atlmfc\include\atltypes.h

; 408  : 	x = initX;

  0019d	8b 83 9c 00 00
	00		 mov	 eax, DWORD PTR [ebx+156]
; File D:\git\src\IBK\IBK_DRFN\ProjSrc\SrcChartEx\ChartOCX\AddInManager\ChartCommonAddIn\OrderLineAddinImp.cpp

; 1103 : 				pOpenPosition->m_ptEnd = CPoint(m_rctGraphRegion.right, nYPoint);

  001a3	89 47 58	 mov	 DWORD PTR [edi+88], eax
  001a6	89 77 5c	 mov	 DWORD PTR [edi+92], esi

; 1104 : 			}

  001a9	ff 15 00 00 00
	00		 call	 DWORD PTR __imp_??1?$CStringT@DV?$StrTraitMFC_DLL@DV?$ChTraitsCRT@D@ATL@@@@@ATL@@QAE@XZ

; 1105 : 			
; 1106 : 			return;

  001af	e9 a8 01 00 00	 jmp	 $LN9@InvokeAddI
$LN37@InvokeAddI:

; 1115 : 	COrderLine* pOrderLine = new COrderLine();

  001b4	33 ff		 xor	 edi, edi

; 1116 : 
; 1117 : 	SetData(pOrderLine, pStOpenPosition, CONCLUSION_YES);

  001b6	57		 push	 edi

; 1267 : 		SetOpenPosition(pDataPosition);

  001b7	e9 67 01 00 00	 jmp	 $LN92@InvokeAddI
$LN3@InvokeAddI:

; 1268 : 	else if(p_nCommandType == 2)	// ADDPENDING_ORDER after Seach

  001bc	83 f8 02	 cmp	 eax, 2
  001bf	0f 85 79 01 00
	00		 jne	 $LN5@InvokeAddI

; 1123 : 	POSITION pos = m_OrderLineList.GetHeadPosition();

  001c5	8b 79 5c	 mov	 edi, DWORD PTR [ecx+92]

; 1269 : 		SetPendingPosition(pDataPosition);	

  001c8	8d 71 f8	 lea	 esi, DWORD PTR [ecx-8]
  001cb	89 75 0c	 mov	 DWORD PTR _this$1$[ebp], esi

; 1126 : 	while(pos)

  001ce	85 ff		 test	 edi, edi
  001d0	74 3e		 je	 SHORT $LN87@InvokeAddI
$LL42@InvokeAddI:

; 1129 : 		COrderLine* pPendingPosition = (COrderLine*)m_OrderLineList.GetNext(pos);

  001d2	8b 47 08	 mov	 eax, DWORD PTR [edi+8]

; 1130 : 		if(!::memcmp(pStPendingPosition->szOrgCustItem2, pPendingPosition->m_strOrderID, sizeof(pStPendingPosition->szOrgCustItem2)))

  001d5	8d 93 d9 00 00
	00		 lea	 edx, DWORD PTR [ebx+217]
  001db	89 7d 08	 mov	 DWORD PTR _pos2$1$[ebp], edi
  001de	be 0a 00 00 00	 mov	 esi, 10			; 0000000aH
; File C:\Program Files (x86)\Microsoft Visual Studio\2019\Community\VC\Tools\MSVC\14.29.30133\atlmfc\include\afxcoll.inl

; 432  : 		rPosition = (POSITION) pNode->pNext;

  001e3	8b 3f		 mov	 edi, DWORD PTR [edi]
; File D:\git\src\IBK\IBK_DRFN\ProjSrc\SrcChartEx\ChartOCX\AddInManager\ChartCommonAddIn\OrderLineAddinImp.cpp

; 1129 : 		COrderLine* pPendingPosition = (COrderLine*)m_OrderLineList.GetNext(pos);

  001e5	89 45 f0	 mov	 DWORD PTR _pPendingPosition$1$[ebp], eax
; File C:\Program Files (x86)\Microsoft Visual Studio\2019\Community\VC\Tools\MSVC\14.29.30133\atlmfc\include\atlsimpstr.h

; 377  : 		return( m_pszData );

  001e8	8b 88 e0 00 00
	00		 mov	 ecx, DWORD PTR [eax+224]
  001ee	66 90		 npad	 2
$LL83@InvokeAddI:
; File D:\git\src\IBK\IBK_DRFN\ProjSrc\SrcChartEx\ChartOCX\AddInManager\ChartCommonAddIn\OrderLineAddinImp.cpp

; 1130 : 		if(!::memcmp(pStPendingPosition->szOrgCustItem2, pPendingPosition->m_strOrderID, sizeof(pStPendingPosition->szOrgCustItem2)))

  001f0	8b 02		 mov	 eax, DWORD PTR [edx]
  001f2	3b 01		 cmp	 eax, DWORD PTR [ecx]
  001f4	75 13		 jne	 SHORT $LN82@InvokeAddI
  001f6	83 c2 04	 add	 edx, 4
  001f9	83 c1 04	 add	 ecx, 4
  001fc	83 ee 04	 sub	 esi, 4
  001ff	73 ef		 jae	 SHORT $LL83@InvokeAddI
  00201	66 8b 02	 mov	 ax, WORD PTR [edx]
  00204	66 3b 01	 cmp	 ax, WORD PTR [ecx]
  00207	74 34		 je	 SHORT $LN86@InvokeAddI
$LN82@InvokeAddI:

; 1124 : 	POSITION pos2;
; 1125 : 
; 1126 : 	while(pos)

  00209	85 ff		 test	 edi, edi
  0020b	75 c5		 jne	 SHORT $LL42@InvokeAddI
  0020d	8b 75 0c	 mov	 esi, DWORD PTR _this$1$[ebp]
$LN87@InvokeAddI:

; 1164 : 	COrderLine* pOrderLine = new COrderLine();

  00210	68 08 01 00 00	 push	 264			; 00000108H
  00215	e8 00 00 00 00	 call	 ??2@YAPAXI@Z		; operator new
  0021a	83 c4 04	 add	 esp, 4
  0021d	89 45 0c	 mov	 DWORD PTR $T3[ebp], eax
  00220	c7 45 fc 03 00
	00 00		 mov	 DWORD PTR __$EHRec$[ebp+8], 3
  00227	85 c0		 test	 eax, eax
  00229	0f 84 f0 00 00
	00		 je	 $LN65@InvokeAddI
  0022f	8b c8		 mov	 ecx, eax
  00231	e8 00 00 00 00	 call	 ??0COrderLine@@QAE@XZ	; COrderLine::COrderLine
  00236	8b f8		 mov	 edi, eax
  00238	e9 e4 00 00 00	 jmp	 $LN66@InvokeAddI
$LN86@InvokeAddI:

; 1132 : 			if(pStPendingPosition->fOrderAmt == 0.)

  0023d	f2 0f 10 83 58
	03 00 00	 movsd	 xmm0, QWORD PTR [ebx+856]
  00245	66 0f 2e 05 00
	00 00 00	 ucomisd xmm0, QWORD PTR __real@0000000000000000
  0024d	9f		 lahf
  0024e	f6 c4 44	 test	 ah, 68			; 00000044H
  00251	7a 1e		 jp	 SHORT $LN45@InvokeAddI

; 1133 : 			{
; 1134 : 				delete pPendingPosition;

  00253	8b 7d f0	 mov	 edi, DWORD PTR _pPendingPosition$1$[ebp]
  00256	8b cf		 mov	 ecx, edi
  00258	6a 01		 push	 1
  0025a	8b 07		 mov	 eax, DWORD PTR [edi]
  0025c	ff 10		 call	 DWORD PTR [eax]

; 1135 : 				pPendingPosition = NULL;
; 1136 : 
; 1137 : 				m_OrderLineList.RemoveAt(pos2);

  0025e	8b 4d 0c	 mov	 ecx, DWORD PTR _this$1$[ebp]
  00261	ff 75 08	 push	 DWORD PTR _pos2$1$[ebp]
  00264	83 c1 60	 add	 ecx, 96			; 00000060H
  00267	e8 00 00 00 00	 call	 ?RemoveAt@CObList@@QAEXPAU__POSITION@@@Z ; CObList::RemoveAt

; 1138 : 			}

  0026c	e9 eb 00 00 00	 jmp	 $LN9@InvokeAddI
$LN45@InvokeAddI:

; 1139 : 			else
; 1140 : 			{
; 1141 : 				CString strOrderPrice(pStPendingPosition->szRate, sizeof(pStPendingPosition->szRate));

  00271	6a 0a		 push	 10			; 0000000aH
  00273	8d 43 38	 lea	 eax, DWORD PTR [ebx+56]
  00276	50		 push	 eax
  00277	8d 4d 08	 lea	 ecx, DWORD PTR _strOrderPrice$2[ebp]
  0027a	ff 15 00 00 00
	00		 call	 DWORD PTR __imp_??0?$CStringT@DV?$StrTraitMFC_DLL@DV?$ChTraitsCRT@D@ATL@@@@@ATL@@QAE@PBDH@Z

; 1142 : 
; 1143 : 				pPendingPosition->m_dOrderPrice = atof(strOrderPrice);

  00280	ff 75 08	 push	 DWORD PTR _strOrderPrice$2[ebp]
  00283	c7 45 fc 02 00
	00 00		 mov	 DWORD PTR __$EHRec$[ebp+8], 2
  0028a	ff 15 00 00 00
	00		 call	 DWORD PTR __imp__atof

; 1144 : 				int nYPoint = m_pIChartOCX->ConvertDataToYPosition( pPendingPosition->m_dOrderPrice, m_dViewMax, m_dViewMin, m_rctGraphDrawingRegion.top, m_rctGraphDrawingRegion.bottom, m_bLog, m_bReverse);

  00290	8b 5d 0c	 mov	 ebx, DWORD PTR _this$1$[ebp]
  00293	83 c4 04	 add	 esp, 4
  00296	8b 7d f0	 mov	 edi, DWORD PTR _pPendingPosition$1$[ebp]
  00299	dd 5d e8	 fstp	 QWORD PTR tv309[ebp]
  0029c	f2 0f 10 4d e8	 movsd	 xmm1, QWORD PTR tv309[ebp]
  002a1	f2 0f 11 4f 40	 movsd	 QWORD PTR [edi+64], xmm1
  002a6	ff b3 80 00 00
	00		 push	 DWORD PTR [ebx+128]
  002ac	8b 4b 0c	 mov	 ecx, DWORD PTR [ebx+12]
  002af	ff 73 7c	 push	 DWORD PTR [ebx+124]
  002b2	f2 0f 10 83 d8
	00 00 00	 movsd	 xmm0, QWORD PTR [ebx+216]
  002ba	ff b3 b0 00 00
	00		 push	 DWORD PTR [ebx+176]
  002c0	8b 01		 mov	 eax, DWORD PTR [ecx]
  002c2	ff b3 a8 00 00
	00		 push	 DWORD PTR [ebx+168]
  002c8	83 ec 18	 sub	 esp, 24			; 00000018H
  002cb	f2 0f 11 44 24
	10		 movsd	 QWORD PTR [esp+16], xmm0
  002d1	f2 0f 10 83 e0
	00 00 00	 movsd	 xmm0, QWORD PTR [ebx+224]
  002d9	f2 0f 11 44 24
	08		 movsd	 QWORD PTR [esp+8], xmm0
  002df	f2 0f 11 0c 24	 movsd	 QWORD PTR [esp], xmm1
  002e4	ff 90 2c 01 00
	00		 call	 DWORD PTR [eax+300]
  002ea	8b f0		 mov	 esi, eax

; 1145 : 
; 1146 : 				pPendingPosition->m_strRate = strOrderPrice;

  002ec	8d 8f e4 00 00
	00		 lea	 ecx, DWORD PTR [edi+228]
  002f2	8d 45 08	 lea	 eax, DWORD PTR _strOrderPrice$2[ebp]
  002f5	50		 push	 eax
  002f6	ff 15 00 00 00
	00		 call	 DWORD PTR __imp_??4?$CStringT@DV?$StrTraitMFC_DLL@DV?$ChTraitsCRT@D@ATL@@@@@ATL@@QAEAAV01@ABV01@@Z
; File C:\Program Files (x86)\Microsoft Visual Studio\2019\Community\VC\Tools\MSVC\14.29.30133\atlmfc\include\atltypes.h

; 408  : 	x = initX;

  002fc	8b 8b 94 00 00
	00		 mov	 ecx, DWORD PTR [ebx+148]
; File D:\git\src\IBK\IBK_DRFN\ProjSrc\SrcChartEx\ChartOCX\AddInManager\ChartCommonAddIn\OrderLineAddinImp.cpp

; 1147 : 				pPendingPosition->m_ptStart = CPoint(m_rctGraphRegion.left, nYPoint);

  00302	89 4f 50	 mov	 DWORD PTR [edi+80], ecx

; 1149 : 			}

  00305	8d 4d 08	 lea	 ecx, DWORD PTR _strOrderPrice$2[ebp]
  00308	89 77 54	 mov	 DWORD PTR [edi+84], esi
; File C:\Program Files (x86)\Microsoft Visual Studio\2019\Community\VC\Tools\MSVC\14.29.30133\atlmfc\include\atltypes.h

; 408  : 	x = initX;

  0030b	8b 83 9c 00 00
	00		 mov	 eax, DWORD PTR [ebx+156]
; File D:\git\src\IBK\IBK_DRFN\ProjSrc\SrcChartEx\ChartOCX\AddInManager\ChartCommonAddIn\OrderLineAddinImp.cpp

; 1148 : 				pPendingPosition->m_ptEnd = CPoint(m_rctGraphRegion.right, nYPoint);

  00311	89 47 58	 mov	 DWORD PTR [edi+88], eax
  00314	89 77 5c	 mov	 DWORD PTR [edi+92], esi

; 1149 : 			}

  00317	ff 15 00 00 00
	00		 call	 DWORD PTR __imp_??1?$CStringT@DV?$StrTraitMFC_DLL@DV?$ChTraitsCRT@D@ATL@@@@@ATL@@QAE@XZ

; 1150 : 			
; 1151 : 			return;

  0031d	eb 3d		 jmp	 SHORT $LN9@InvokeAddI
$LN65@InvokeAddI:

; 1164 : 	COrderLine* pOrderLine = new COrderLine();

  0031f	33 ff		 xor	 edi, edi
$LN66@InvokeAddI:

; 1165 : 	SetData(pOrderLine, pStPendingPosition, CONCLUSION_NO);

  00321	6a 01		 push	 1
$LN92@InvokeAddI:

; 1274 : 	else if(p_nCommandType == 5)	// reset
; 1275 : 	{
; 1276 : 
; 1277 : 	}
; 1278 : 	return TRUE;

  00323	53		 push	 ebx
  00324	57		 push	 edi
  00325	8b ce		 mov	 ecx, esi
  00327	c7 45 fc ff ff
	ff ff		 mov	 DWORD PTR __$EHRec$[ebp+8], -1
  0032e	e8 00 00 00 00	 call	 ?SetData@COrderLineAddInImp@@QAEXPAVCOrderLine@@PAUFX_CHE_STRUCT@@H@Z ; COrderLineAddInImp::SetData
  00333	57		 push	 edi
  00334	8d 4e 60	 lea	 ecx, DWORD PTR [esi+96]
  00337	e8 00 00 00 00	 call	 ?AddTail@CObList@@QAEPAU__POSITION@@PAVCObject@@@Z ; CObList::AddTail
  0033c	eb 1e		 jmp	 SHORT $LN9@InvokeAddI
$LN5@InvokeAddI:

; 1270 : 	else if(p_nCommandType == 3)	// ADD OPEN_POSITION

  0033e	83 f8 03	 cmp	 eax, 3
  00341	75 0b		 jne	 SHORT $LN7@InvokeAddI

; 1271 : 		AddOpenPosition(pDataPosition);	

  00343	53		 push	 ebx
  00344	83 c1 f8	 add	 ecx, -8			; fffffff8H
  00347	e8 00 00 00 00	 call	 ?AddOpenPosition@COrderLineAddInImp@@QAEXPAUFX_CHE_STRUCT@@@Z ; COrderLineAddInImp::AddOpenPosition
  0034c	eb 0e		 jmp	 SHORT $LN9@InvokeAddI
$LN7@InvokeAddI:

; 1272 : 	else if(p_nCommandType == 4)	// ADD PENDING_ORDER

  0034e	83 f8 04	 cmp	 eax, 4
  00351	75 09		 jne	 SHORT $LN9@InvokeAddI

; 1273 : 		AddPendingPosition(pDataPosition);	

  00353	53		 push	 ebx
  00354	83 c1 f8	 add	 ecx, -8			; fffffff8H
  00357	e8 00 00 00 00	 call	 ?AddPendingPosition@COrderLineAddInImp@@QAEXPAUFX_CHE_STRUCT@@@Z ; COrderLineAddInImp::AddPendingPosition
$LN9@InvokeAddI:

; 1274 : 	else if(p_nCommandType == 5)	// reset
; 1275 : 	{
; 1276 : 
; 1277 : 	}
; 1278 : 	return TRUE;

  0035c	b8 01 00 00 00	 mov	 eax, 1

; 1279 : }

  00361	8b 4d f4	 mov	 ecx, DWORD PTR __$EHRec$[ebp]
  00364	64 89 0d 00 00
	00 00		 mov	 DWORD PTR fs:0, ecx
  0036b	59		 pop	 ecx
  0036c	5f		 pop	 edi
  0036d	5e		 pop	 esi
  0036e	5b		 pop	 ebx
  0036f	8b e5		 mov	 esp, ebp
  00371	5d		 pop	 ebp
  00372	c2 08 00	 ret	 8
_TEXT	ENDS
;	COMDAT text$x
text$x	SEGMENT
__unwindfunclet$?InvokeAddIn@COrderLineAddInImp@@MAEHHJ@Z$1:
  00000	68 08 01 00 00	 push	 264			; 00000108H
  00005	8b 45 0c	 mov	 eax, DWORD PTR $T4[ebp]
  00008	50		 push	 eax
  00009	e8 00 00 00 00	 call	 ??3@YAXPAXI@Z		; operator delete
  0000e	83 c4 08	 add	 esp, 8
  00011	c3		 ret	 0
__unwindfunclet$?InvokeAddIn@COrderLineAddInImp@@MAEHHJ@Z$0:
  00012	8d 4d 0c	 lea	 ecx, DWORD PTR _strOrderPrice$5[ebp]
  00015	ff 25 00 00 00
	00		 jmp	 DWORD PTR __imp_??1?$CStringT@DV?$StrTraitMFC_DLL@DV?$ChTraitsCRT@D@ATL@@@@@ATL@@QAE@XZ
__unwindfunclet$?InvokeAddIn@COrderLineAddInImp@@MAEHHJ@Z$3:
  0001b	68 08 01 00 00	 push	 264			; 00000108H
  00020	8b 45 0c	 mov	 eax, DWORD PTR $T3[ebp]
  00023	50		 push	 eax
  00024	e8 00 00 00 00	 call	 ??3@YAXPAXI@Z		; operator delete
  00029	83 c4 08	 add	 esp, 8
  0002c	c3		 ret	 0
__unwindfunclet$?InvokeAddIn@COrderLineAddInImp@@MAEHHJ@Z$2:
  0002d	8d 4d 08	 lea	 ecx, DWORD PTR _strOrderPrice$2[ebp]
  00030	ff 25 00 00 00
	00		 jmp	 DWORD PTR __imp_??1?$CStringT@DV?$StrTraitMFC_DLL@DV?$ChTraitsCRT@D@ATL@@@@@ATL@@QAE@XZ
  00036	cc		 int	 3
  00037	cc		 int	 3
  00038	cc		 int	 3
  00039	cc		 int	 3
  0003a	cc		 int	 3
__ehhandler$?InvokeAddIn@COrderLineAddInImp@@MAEHHJ@Z:
  0003b	90		 npad	 1
  0003c	90		 npad	 1
  0003d	8b 54 24 08	 mov	 edx, DWORD PTR [esp+8]
  00041	8d 42 0c	 lea	 eax, DWORD PTR [edx+12]
  00044	8b 4a e4	 mov	 ecx, DWORD PTR [edx-28]
  00047	33 c8		 xor	 ecx, eax
  00049	e8 00 00 00 00	 call	 @__security_check_cookie@4
  0004e	b8 00 00 00 00	 mov	 eax, OFFSET __ehfuncinfo$?InvokeAddIn@COrderLineAddInImp@@MAEHHJ@Z
  00053	e9 00 00 00 00	 jmp	 ___CxxFrameHandler3
text$x	ENDS
?InvokeAddIn@COrderLineAddInImp@@MAEHHJ@Z ENDP		; COrderLineAddInImp::InvokeAddIn
; Function compile flags: /Ogtp
; File D:\git\src\IBK\IBK_DRFN\ProjSrc\SrcChartEx\ChartOCX\AddInManager\ChartCommonAddIn\OrderLineAddinImp.cpp
;	COMDAT ?OnRealData@COrderLineAddInImp@@MAEXPBDN0@Z
_TEXT	SEGMENT
_p_szPacketName$ = 8					; size = 4
_p_dData$ = 12						; size = 8
_p_szRQ$ = 20						; size = 4
?OnRealData@COrderLineAddInImp@@MAEXPBDN0@Z PROC	; COrderLineAddInImp::OnRealData, COMDAT
; _this$ = ecx

; 1073 : 	
; 1074 : }

  00000	c2 10 00	 ret	 16			; 00000010H
?OnRealData@COrderLineAddInImp@@MAEXPBDN0@Z ENDP	; COrderLineAddInImp::OnRealData
_TEXT	ENDS
; Function compile flags: /Ogtp
; File D:\git\src\IBK\IBK_DRFN\ProjSrc\SrcChartEx\ChartOCX\AddInManager\ChartCommonAddIn\OrderLineAddinImp.cpp
;	COMDAT ?OnToolCommand@COrderLineAddInImp@@MAEXHH@Z
_TEXT	SEGMENT
_p_nToolType$ = 8					; size = 4
_p_nCmdOption$ = 12					; size = 4
?OnToolCommand@COrderLineAddInImp@@MAEXHH@Z PROC	; COrderLineAddInImp::OnToolCommand, COMDAT
; _this$ = ecx

; 979  : 	CToolOptionInfo::TOOLOPTION eToolOption = (CToolOptionInfo::TOOLOPTION)p_nToolType;
; 980  : 
; 981  : 
; 982  : //	if( eToolOption == CToolOptionInfo::T_DRAG_X_ZOOM || eToolOption == CToolOptionInfo::T_DRAG_Y_ZOOM )
; 983  : //		m_bRun = FALSE;
; 984  : //	else if( eToolOption == CToolOptionInfo::T_TOOL_SELECTION)
; 985  : //	{
; 986  : //		m_bRun = FALSE;
; 987  : //		return;
; 988  : //	}
; 989  : //	else
; 990  : 		return;
; 991  : 
; 992  : //	m_pIChartOCX->OnToolStateChanged( CToolOptionInfo::T_DRAG_Y_ZOOM, m_bRun);
; 993  : 	
; 994  : }

  00000	c2 08 00	 ret	 8
?OnToolCommand@COrderLineAddInImp@@MAEXHH@Z ENDP	; COrderLineAddInImp::OnToolCommand
_TEXT	ENDS
; Function compile flags: /Ogtp
; File D:\git\src\IBK\IBK_DRFN\ProjSrc\SrcChartEx\ChartOCX\AddInManager\ChartCommonAddIn\OrderLineAddinImp.cpp
; File D:\git\src\IBK\IBK_DRFN\ProjSrc\SrcChartEx\ChartOCX\AddInManager\Include_AddIn\I000000\_IString.h
; File D:\git\src\IBK\IBK_DRFN\ProjSrc\SrcChartEx\ChartOCX\AddInManager\ChartCommonAddIn\OrderLineAddinImp.cpp
; File D:\git\src\IBK\IBK_DRFN\ProjSrc\SrcChartEx\ChartOCX\AddInManager\Include_AddIn\I000000\_IString.h
; File D:\git\src\IBK\IBK_DRFN\ProjSrc\SrcChartEx\ChartOCX\AddInManager\ChartCommonAddIn\OrderLineAddinImp.cpp
; File C:\Program Files (x86)\Microsoft Visual Studio\2019\Community\VC\Tools\MSVC\14.29.30133\atlmfc\include\atltypes.h
; File D:\git\src\IBK\IBK_DRFN\ProjSrc\SrcChartEx\ChartOCX\AddInManager\ChartCommonAddIn\OrderLineAddinImp.cpp
; File C:\Program Files (x86)\Microsoft Visual Studio\2019\Community\VC\Tools\MSVC\14.29.30133\atlmfc\include\atltypes.h
; File D:\git\src\IBK\IBK_DRFN\ProjSrc\SrcChartEx\ChartOCX\AddInManager\ChartCommonAddIn\OrderLineAddinImp.cpp
; File C:\Program Files (x86)\Microsoft Visual Studio\2019\Community\VC\Tools\MSVC\14.29.30133\atlmfc\include\atltypes.h
; File D:\git\src\IBK\IBK_DRFN\ProjSrc\SrcChartEx\ChartOCX\AddInManager\ChartCommonAddIn\OrderLineAddinImp.cpp
; File C:\Program Files (x86)\Microsoft Visual Studio\2019\Community\VC\Tools\MSVC\14.29.30133\atlmfc\include\atltypes.h
; File D:\git\src\IBK\IBK_DRFN\ProjSrc\SrcChartEx\ChartOCX\AddInManager\ChartCommonAddIn\OrderLineAddinImp.cpp
; File C:\Program Files (x86)\Microsoft Visual Studio\2019\Community\VC\Tools\MSVC\14.29.30133\atlmfc\include\atltypes.h
; File D:\git\src\IBK\IBK_DRFN\ProjSrc\SrcChartEx\ChartOCX\AddInManager\ChartCommonAddIn\OrderLineAddinImp.cpp
; File C:\Program Files (x86)\Microsoft Visual Studio\2019\Community\VC\Tools\MSVC\14.29.30133\atlmfc\include\atltypes.h
; File D:\git\src\IBK\IBK_DRFN\ProjSrc\SrcChartEx\ChartOCX\AddInManager\ChartCommonAddIn\OrderLineAddinImp.cpp
; File C:\Program Files (x86)\Microsoft Visual Studio\2019\Community\VC\Tools\MSVC\14.29.30133\atlmfc\include\atltypes.h
; File D:\git\src\IBK\IBK_DRFN\ProjSrc\SrcChartEx\ChartOCX\AddInManager\ChartCommonAddIn\OrderLineAddinImp.cpp
; File C:\Program Files (x86)\Microsoft Visual Studio\2019\Community\VC\Tools\MSVC\14.29.30133\atlmfc\include\atltypes.h
; File D:\git\src\IBK\IBK_DRFN\ProjSrc\SrcChartEx\ChartOCX\AddInManager\ChartCommonAddIn\OrderLineAddinImp.cpp
; File C:\Program Files (x86)\Microsoft Visual Studio\2019\Community\VC\Tools\MSVC\14.29.30133\atlmfc\include\atltypes.h
; File D:\git\src\IBK\IBK_DRFN\ProjSrc\SrcChartEx\ChartOCX\AddInManager\ChartCommonAddIn\OrderLineAddinImp.cpp
; File C:\Program Files (x86)\Microsoft Visual Studio\2019\Community\VC\Tools\MSVC\14.29.30133\atlmfc\include\afxcoll.inl
; File D:\git\src\IBK\IBK_DRFN\ProjSrc\SrcChartEx\ChartOCX\AddInManager\ChartCommonAddIn\OrderLineAddinImp.cpp
; File C:\Program Files (x86)\Microsoft Visual Studio\2019\Community\VC\Tools\MSVC\14.29.30133\atlmfc\include\atltypes.h
; File D:\git\src\IBK\IBK_DRFN\ProjSrc\SrcChartEx\ChartOCX\AddInManager\ChartCommonAddIn\OrderLineAddinImp.cpp
; File C:\Program Files (x86)\Microsoft Visual Studio\2019\Community\VC\Tools\MSVC\14.29.30133\atlmfc\include\atltypes.h
; File D:\git\src\IBK\IBK_DRFN\ProjSrc\SrcChartEx\ChartOCX\AddInManager\ChartCommonAddIn\OrderLineAddinImp.cpp
; File C:\Program Files (x86)\Microsoft Visual Studio\2019\Community\VC\Tools\MSVC\14.29.30133\atlmfc\include\atltypes.h
; File D:\git\src\IBK\IBK_DRFN\ProjSrc\SrcChartEx\ChartOCX\AddInManager\ChartCommonAddIn\OrderLineAddinImp.cpp
; File C:\Program Files (x86)\Microsoft Visual Studio\2019\Community\VC\Tools\MSVC\14.29.30133\atlmfc\include\atltypes.h
; File D:\git\src\IBK\IBK_DRFN\ProjSrc\SrcChartEx\ChartOCX\AddInManager\ChartCommonAddIn\OrderLineAddinImp.cpp
; File C:\Program Files (x86)\Microsoft Visual Studio\2019\Community\VC\Tools\MSVC\14.29.30133\atlmfc\include\atltypes.h
; File D:\git\src\IBK\IBK_DRFN\ProjSrc\SrcChartEx\ChartOCX\AddInManager\ChartCommonAddIn\OrderLineAddinImp.cpp
; File C:\Program Files (x86)\Microsoft Visual Studio\2019\Community\VC\Tools\MSVC\14.29.30133\atlmfc\include\atltypes.h
; File D:\git\src\IBK\IBK_DRFN\ProjSrc\SrcChartEx\ChartOCX\AddInManager\ChartCommonAddIn\OrderLineAddinImp.cpp
; File C:\Program Files (x86)\Microsoft Visual Studio\2019\Community\VC\Tools\MSVC\14.29.30133\atlmfc\include\atltypes.h
; File D:\git\src\IBK\IBK_DRFN\ProjSrc\SrcChartEx\ChartOCX\AddInManager\ChartCommonAddIn\OrderLineAddinImp.cpp
; File C:\Program Files (x86)\Microsoft Visual Studio\2019\Community\VC\Tools\MSVC\14.29.30133\atlmfc\include\atltypes.h
; File D:\git\src\IBK\IBK_DRFN\ProjSrc\SrcChartEx\ChartOCX\AddInManager\ChartCommonAddIn\OrderLineAddinImp.cpp
; File C:\Program Files (x86)\Microsoft Visual Studio\2019\Community\VC\Tools\MSVC\14.29.30133\atlmfc\include\atltypes.h
; File D:\git\src\IBK\IBK_DRFN\ProjSrc\SrcChartEx\ChartOCX\AddInManager\ChartCommonAddIn\OrderLineAddinImp.cpp
; File C:\Program Files (x86)\Microsoft Visual Studio\2019\Community\VC\Tools\MSVC\14.29.30133\atlmfc\include\afxwin1.inl
; File D:\git\src\IBK\IBK_DRFN\ProjSrc\SrcChartEx\ChartOCX\AddInManager\ChartCommonAddIn\OrderLineAddinImp.cpp
; File C:\Program Files (x86)\Microsoft Visual Studio\2019\Community\VC\Tools\MSVC\14.29.30133\atlmfc\include\afxwin1.inl
; File D:\git\src\IBK\IBK_DRFN\ProjSrc\SrcChartEx\ChartOCX\AddInManager\ChartCommonAddIn\OrderLineAddinImp.cpp
; File C:\Program Files (x86)\Microsoft Visual Studio\2019\Community\VC\Tools\MSVC\14.29.30133\atlmfc\include\atlsimpstr.h
; File D:\git\src\IBK\IBK_DRFN\ProjSrc\SrcChartEx\ChartOCX\AddInManager\ChartCommonAddIn\OrderLineAddinImp.cpp
; File C:\Program Files (x86)\Microsoft Visual Studio\2019\Community\VC\Tools\MSVC\14.29.30133\atlmfc\include\atlsimpstr.h
; File D:\git\src\IBK\IBK_DRFN\ProjSrc\SrcChartEx\ChartOCX\AddInManager\ChartCommonAddIn\OrderLineAddinImp.cpp
; File C:\Program Files (x86)\Microsoft Visual Studio\2019\Community\VC\Tools\MSVC\14.29.30133\atlmfc\include\afxwin1.inl
; File D:\git\src\IBK\IBK_DRFN\ProjSrc\SrcChartEx\ChartOCX\AddInManager\ChartCommonAddIn\OrderLineAddinImp.cpp
; File C:\Program Files (x86)\Microsoft Visual Studio\2019\Community\VC\Tools\MSVC\14.29.30133\atlmfc\include\afxwin1.inl
; File D:\git\src\IBK\IBK_DRFN\ProjSrc\SrcChartEx\ChartOCX\AddInManager\ChartCommonAddIn\OrderLineAddinImp.cpp
; File C:\Program Files (x86)\Microsoft Visual Studio\2019\Community\VC\Tools\MSVC\14.29.30133\atlmfc\include\afxwin1.inl
; File D:\git\src\IBK\IBK_DRFN\ProjSrc\SrcChartEx\ChartOCX\AddInManager\ChartCommonAddIn\OrderLineAddinImp.cpp
; File D:\git\src\IBK\IBK_DRFN\ProjSrc\SrcChartEx\ChartOCX\AddInManager\Include_AddIn\I000000\_IString.h
; File D:\git\src\IBK\IBK_DRFN\ProjSrc\SrcChartEx\ChartOCX\AddInManager\ChartCommonAddIn\OrderLineAddinImp.cpp
;	COMDAT ?OnRButtonUp@COrderLineAddInImp@@MAEHPAUHDC__@@IAAUtagPOINT@@K@Z
_TEXT	SEGMENT
_eMinMaxType$ = -96					; size = 4
_nG$ = -92						; size = 4
_szGraphName$ = -88					; size = 8
_nR$ = -80						; size = 4
_nC$ = -76						; size = 4
_nV$ = -72						; size = 4
$T2 = -68						; size = 4
tv1145 = -68						; size = 4
$T3 = -64						; size = 4
tv1144 = -64						; size = 4
_pIBlock$1$ = -64					; size = 4
_menu$4 = -60						; size = 8
_menu$5 = -60						; size = 8
_point$GSCopy$1$ = -52					; size = 4
_this$1$ = -52						; size = 4
_rctNoFrameAndMargin$ = -48				; size = 16
$T6 = -32						; size = 16
_dYValue$ = -24						; size = 8
__$ArrayPad$ = -16					; size = 4
__$EHRec$ = -12						; size = 12
_p_hDC$ = 8						; size = 4
_nFlags$ = 12						; size = 4
_point$ = 16						; size = 4
_p_dwMouseActionID$ = 20				; size = 4
?OnRButtonUp@COrderLineAddInImp@@MAEHPAUHDC__@@IAAUtagPOINT@@K@Z PROC ; COrderLineAddInImp::OnRButtonUp, COMDAT
; _this$ = ecx

; 836  : {

  00000	55		 push	 ebp
  00001	8b ec		 mov	 ebp, esp
  00003	6a ff		 push	 -1
  00005	68 00 00 00 00	 push	 __ehhandler$?OnRButtonUp@COrderLineAddInImp@@MAEHPAUHDC__@@IAAUtagPOINT@@K@Z
  0000a	64 a1 00 00 00
	00		 mov	 eax, DWORD PTR fs:0
  00010	50		 push	 eax
  00011	83 ec 54	 sub	 esp, 84			; 00000054H
  00014	a1 00 00 00 00	 mov	 eax, DWORD PTR ___security_cookie
  00019	33 c5		 xor	 eax, ebp
  0001b	89 45 f0	 mov	 DWORD PTR __$ArrayPad$[ebp], eax
  0001e	53		 push	 ebx
  0001f	56		 push	 esi
  00020	57		 push	 edi
  00021	50		 push	 eax
  00022	8d 45 f4	 lea	 eax, DWORD PTR __$EHRec$[ebp]
  00025	64 a3 00 00 00
	00		 mov	 DWORD PTR fs:0, eax
  0002b	8b d9		 mov	 ebx, ecx

; 837  : //	m_bRun = !m_bRun;
; 838  : //	m_pIChartOCX->RunToolCommand( CToolOptionInfo::T_TOOL_SELECTION, 1);
; 839  : 
; 840  : //	m_pIChartOCX->OnOrderInfomationChanged(0.0, 0, 0, "");
; 841  : 
; 842  : 	// 1.       .
; 843  : 	if(!m_bRun)		return FALSE;

  0002d	83 7b 7c 00	 cmp	 DWORD PTR [ebx+124], 0
  00031	8b 45 10	 mov	 eax, DWORD PTR _point$[ebp]
  00034	89 45 cc	 mov	 DWORD PTR _point$GSCopy$1$[ebp], eax
  00037	0f 84 87 04 00
	00		 je	 $LN10@OnRButtonU

; 844  : 
; 845  : 	// 2. Check Empty Chart!
; 846  : 	if( !m_pIChartOCX->IsUseToolScrollBar() || m_pIChartOCX->IsOnSpecialChart() || m_pIChartManager->IsEmpty())

  0003d	8b 4b 04	 mov	 ecx, DWORD PTR [ebx+4]
  00040	8b 01		 mov	 eax, DWORD PTR [ecx]
  00042	ff 90 b0 00 00
	00		 call	 DWORD PTR [eax+176]
  00048	85 c0		 test	 eax, eax
  0004a	0f 84 74 04 00
	00		 je	 $LN10@OnRButtonU
  00050	8b 4b 04	 mov	 ecx, DWORD PTR [ebx+4]
  00053	8b 01		 mov	 eax, DWORD PTR [ecx]
  00055	ff 90 84 00 00
	00		 call	 DWORD PTR [eax+132]
  0005b	85 c0		 test	 eax, eax
  0005d	0f 85 61 04 00
	00		 jne	 $LN10@OnRButtonU
  00063	8b 4b 1c	 mov	 ecx, DWORD PTR [ebx+28]
  00066	8b 01		 mov	 eax, DWORD PTR [ecx]
  00068	ff 50 2c	 call	 DWORD PTR [eax+44]
  0006b	85 c0		 test	 eax, eax
  0006d	0f 85 51 04 00
	00		 jne	 $LN10@OnRButtonU

; 851  : 	ILPCSTR szGraphName = m_pIChartManager->FindFirstIndicator( _MTEXT( C2_PRICE_CHART), nR, nC, nV, nG, "DEFAULT");

  00073	8b 4b 1c	 mov	 ecx, DWORD PTR [ebx+28]
  00076	8d 45 a4	 lea	 eax, DWORD PTR _nG$[ebp]
  00079	68 00 00 00 00	 push	 OFFSET ??_C@_07MGCPDNLD@DEFAULT@
  0007e	50		 push	 eax
  0007f	8d 45 b8	 lea	 eax, DWORD PTR _nV$[ebp]
  00082	8b 11		 mov	 edx, DWORD PTR [ecx]
  00084	50		 push	 eax
  00085	8d 45 b4	 lea	 eax, DWORD PTR _nC$[ebp]
  00088	50		 push	 eax
  00089	8d 45 b0	 lea	 eax, DWORD PTR _nR$[ebp]
  0008c	50		 push	 eax
  0008d	a1 54 00 00 00	 mov	 eax, DWORD PTR ?g_iMetaTable@@3VIMetaTable@@A+84
  00092	ff b0 28 03 00
	00		 push	 DWORD PTR [eax+808]
  00098	ff 52 70	 call	 DWORD PTR [edx+112]
; File D:\git\src\IBK\IBK_DRFN\ProjSrc\SrcChartEx\ChartOCX\AddInManager\Include_AddIn\I000000\_IString.h

; 39   : 		m_pIStrData = p_pIString;	// Do not AddRef(). Because It must be Return Value.

  0009b	89 45 ac	 mov	 DWORD PTR _szGraphName$[ebp+4], eax

; 40   : 		if( m_pIStrData) m_szData = m_pIStrData->GetData();

  0009e	85 c0		 test	 eax, eax
  000a0	74 09		 je	 SHORT $LN39@OnRButtonU
  000a2	8b 10		 mov	 edx, DWORD PTR [eax]
  000a4	8b c8		 mov	 ecx, eax
  000a6	ff 52 10	 call	 DWORD PTR [edx+16]
  000a9	eb 02		 jmp	 SHORT $LN158@OnRButtonU
$LN39@OnRButtonU:

; 41   : 		else m_szData = NULL;

  000ab	33 c0		 xor	 eax, eax
$LN158@OnRButtonU:
; File D:\git\src\IBK\IBK_DRFN\ProjSrc\SrcChartEx\ChartOCX\AddInManager\ChartCommonAddIn\OrderLineAddinImp.cpp

; 851  : 	ILPCSTR szGraphName = m_pIChartManager->FindFirstIndicator( _MTEXT( C2_PRICE_CHART), nR, nC, nV, nG, "DEFAULT");

  000ad	89 45 a8	 mov	 DWORD PTR _szGraphName$[ebp], eax
  000b0	c7 45 fc 00 00
	00 00		 mov	 DWORD PTR __$EHRec$[ebp+8], 0
; File D:\git\src\IBK\IBK_DRFN\ProjSrc\SrcChartEx\ChartOCX\AddInManager\Include_AddIn\I000000\_IString.h

; 57   : 		if( !m_szData) return TRUE;

  000b7	85 c0		 test	 eax, eax
  000b9	0f 84 eb 03 00
	00		 je	 $LN16@OnRButtonU
; File D:\git\src\IBK\IBK_DRFN\ProjSrc\SrcChartEx\ChartOCX\AddInManager\ChartCommonAddIn\OrderLineAddinImp.cpp

; 852  : 	if( szGraphName.IsEmpty()) return FALSE;

  000bf	80 38 00	 cmp	 BYTE PTR [eax], 0
  000c2	0f 84 e2 03 00
	00		 je	 $LN16@OnRButtonU

; 853  : 
; 854  : 	// 4. Block  .
; 855  : 	IBlock *pIBlock = NULL;
; 856  : 	pIBlock = m_pIChartManager->GetBlock( nR, nC );

  000c8	8b 4b 1c	 mov	 ecx, DWORD PTR [ebx+28]
  000cb	ff 75 b4	 push	 DWORD PTR _nC$[ebp]
  000ce	ff 75 b0	 push	 DWORD PTR _nR$[ebp]
  000d1	8b 01		 mov	 eax, DWORD PTR [ecx]
  000d3	ff 50 38	 call	 DWORD PTR [eax+56]
  000d6	8b f8		 mov	 edi, eax
  000d8	89 7d c0	 mov	 DWORD PTR _pIBlock$1$[ebp], edi

; 857  : 	if( !pIBlock )

  000db	85 ff		 test	 edi, edi
  000dd	0f 84 c7 03 00
	00		 je	 $LN16@OnRButtonU

; 862  : 	pIBlock->GetGraphRegions(m_rctGraphRegion, rctNoFrameAndMargin);

  000e3	0f 57 c0	 xorps	 xmm0, xmm0
  000e6	8d 45 d0	 lea	 eax, DWORD PTR _rctNoFrameAndMargin$[ebp]
; File C:\Program Files (x86)\Microsoft Visual Studio\2019\Community\VC\Tools\MSVC\14.29.30133\atlmfc\include\atltypes.h

; 528  : 	left = 0;

  000e9	0f 11 45 d0	 movups	 XMMWORD PTR _rctNoFrameAndMargin$[ebp], xmm0
; File D:\git\src\IBK\IBK_DRFN\ProjSrc\SrcChartEx\ChartOCX\AddInManager\ChartCommonAddIn\OrderLineAddinImp.cpp

; 862  : 	pIBlock->GetGraphRegions(m_rctGraphRegion, rctNoFrameAndMargin);

  000ed	8b 17		 mov	 edx, DWORD PTR [edi]
  000ef	8d b3 8c 00 00
	00		 lea	 esi, DWORD PTR [ebx+140]
  000f5	50		 push	 eax
  000f6	56		 push	 esi
  000f7	8b cf		 mov	 ecx, edi
  000f9	ff 52 10	 call	 DWORD PTR [edx+16]
; File C:\Program Files (x86)\Microsoft Visual Studio\2019\Community\VC\Tools\MSVC\14.29.30133\atlmfc\include\atltypes.h

; 638  : 	return ::IsRectEmpty(this);

  000fc	56		 push	 esi
  000fd	ff 15 00 00 00
	00		 call	 DWORD PTR __imp__IsRectEmpty@4
; File D:\git\src\IBK\IBK_DRFN\ProjSrc\SrcChartEx\ChartOCX\AddInManager\ChartCommonAddIn\OrderLineAddinImp.cpp

; 863  : 	if( m_rctGraphRegion.IsRectEmpty() )

  00103	85 c0		 test	 eax, eax
  00105	0f 85 9f 03 00
	00		 jne	 $LN16@OnRButtonU

; 867  : 	m_rctGraphDrawingRegion = pIBlock->GetGraphDrwingRegion();

  0010b	8b 07		 mov	 eax, DWORD PTR [edi]
  0010d	8d 4d e0	 lea	 ecx, DWORD PTR $T6[ebp]
  00110	6a 00		 push	 0
  00112	51		 push	 ecx
  00113	8b cf		 mov	 ecx, edi
  00115	ff 50 1c	 call	 DWORD PTR [eax+28]
; File C:\Program Files (x86)\Microsoft Visual Studio\2019\Community\VC\Tools\MSVC\14.29.30133\atlmfc\include\atltypes.h

; 765  : 	::CopyRect(this, &srcRect);

  00118	50		 push	 eax
; File D:\git\src\IBK\IBK_DRFN\ProjSrc\SrcChartEx\ChartOCX\AddInManager\ChartCommonAddIn\OrderLineAddinImp.cpp

; 867  : 	m_rctGraphDrawingRegion = pIBlock->GetGraphDrwingRegion();

  00119	8d b3 9c 00 00
	00		 lea	 esi, DWORD PTR [ebx+156]
; File C:\Program Files (x86)\Microsoft Visual Studio\2019\Community\VC\Tools\MSVC\14.29.30133\atlmfc\include\atltypes.h

; 765  : 	::CopyRect(this, &srcRect);

  0011f	56		 push	 esi
  00120	ff 15 00 00 00
	00		 call	 DWORD PTR __imp__CopyRect@8

; 638  : 	return ::IsRectEmpty(this);

  00126	56		 push	 esi
  00127	ff 15 00 00 00
	00		 call	 DWORD PTR __imp__IsRectEmpty@4
; File D:\git\src\IBK\IBK_DRFN\ProjSrc\SrcChartEx\ChartOCX\AddInManager\ChartCommonAddIn\OrderLineAddinImp.cpp

; 868  : 	if( m_rctGraphDrawingRegion.IsRectEmpty() )

  0012d	85 c0		 test	 eax, eax
  0012f	0f 85 75 03 00
	00		 jne	 $LN16@OnRButtonU

; 869  : 		return FALSE;
; 870  : 
; 871  : 	// 7.  Block Log/  .
; 872  : 	m_bLog = pIBlock->IsLogScale();

  00135	8b 07		 mov	 eax, DWORD PTR [edi]
  00137	8b cf		 mov	 ecx, edi
  00139	ff 50 24	 call	 DWORD PTR [eax+36]

; 873  : 	m_bReverse = pIBlock->IsVScaleInvert( nV);

  0013c	ff 75 b8	 push	 DWORD PTR _nV$[ebp]
  0013f	89 43 74	 mov	 DWORD PTR [ebx+116], eax
  00142	8b cf		 mov	 ecx, edi
  00144	8b 07		 mov	 eax, DWORD PTR [edi]
  00146	ff 50 58	 call	 DWORD PTR [eax+88]

; 874  : 	
; 875  : 
; 876  : 	CScaleBaseData::VERTMINMAXTYPE eMinMaxType;
; 877  : 	pIBlock->GetVScaleMinMaxSetting( nV, m_bIsLock, eMinMaxType, m_dViewMin, m_dViewMax);	

  00149	8b 4d c0	 mov	 ecx, DWORD PTR _pIBlock$1$[ebp]
  0014c	8d bb d8 00 00
	00		 lea	 edi, DWORD PTR [ebx+216]
  00152	57		 push	 edi
  00153	89 43 78	 mov	 DWORD PTR [ebx+120], eax
  00156	8d b3 d0 00 00
	00		 lea	 esi, DWORD PTR [ebx+208]
  0015c	56		 push	 esi
  0015d	8b 11		 mov	 edx, DWORD PTR [ecx]
  0015f	8d 45 a0	 lea	 eax, DWORD PTR _eMinMaxType$[ebp]
  00162	50		 push	 eax
  00163	8d 83 80 00 00
	00		 lea	 eax, DWORD PTR [ebx+128]
  00169	50		 push	 eax
  0016a	ff 75 b8	 push	 DWORD PTR _nV$[ebp]
  0016d	ff 52 50	 call	 DWORD PTR [edx+80]

; 878  : 	
; 879  : 	
; 880  : 	double dYValue;
; 881  : 	dYValue = m_pIChartOCX->ConvertYPositionToData( point.y, m_rctGraphDrawingRegion.top, m_rctGraphDrawingRegion.bottom, m_dViewMax, m_dViewMin, m_bLog, m_bReverse);

  00170	ff 73 78	 push	 DWORD PTR [ebx+120]
  00173	f2 0f 10 06	 movsd	 xmm0, QWORD PTR [esi]
  00177	ff 73 74	 push	 DWORD PTR [ebx+116]
  0017a	8b 4b 04	 mov	 ecx, DWORD PTR [ebx+4]
  0017d	83 ec 10	 sub	 esp, 16			; 00000010H
  00180	8b 01		 mov	 eax, DWORD PTR [ecx]
  00182	f2 0f 11 44 24
	08		 movsd	 QWORD PTR [esp+8], xmm0
  00188	f2 0f 10 07	 movsd	 xmm0, QWORD PTR [edi]
  0018c	8b 7d cc	 mov	 edi, DWORD PTR _point$GSCopy$1$[ebp]
  0018f	8b 80 30 01 00
	00		 mov	 eax, DWORD PTR [eax+304]
  00195	f2 0f 11 04 24	 movsd	 QWORD PTR [esp], xmm0
  0019a	ff b3 a8 00 00
	00		 push	 DWORD PTR [ebx+168]
  001a0	ff b3 a0 00 00
	00		 push	 DWORD PTR [ebx+160]
  001a6	ff 77 04	 push	 DWORD PTR [edi+4]
  001a9	ff d0		 call	 eax

; 882  : 	m_nSelecteYValue = point.y;

  001ab	8b 47 04	 mov	 eax, DWORD PTR [edi+4]
  001ae	dd 5d e8	 fstp	 QWORD PTR _dYValue$[ebp]
  001b1	89 83 e0 00 00
	00		 mov	 DWORD PTR [ebx+224], eax

; 883  : 
; 884  : 	
; 885  : //	BOOL bDoOrder = FALSE;	
; 886  : 	
; 887  : 	if(m_nSelecteYValue < m_rctGraphRegion.top || m_nSelecteYValue > m_rctGraphRegion.bottom)

  001b7	3b 83 90 00 00
	00		 cmp	 eax, DWORD PTR [ebx+144]
  001bd	0f 8c e7 02 00
	00		 jl	 $LN16@OnRButtonU
  001c3	3b 83 98 00 00
	00		 cmp	 eax, DWORD PTR [ebx+152]
  001c9	0f 8f db 02 00
	00		 jg	 $LN16@OnRButtonU
; File C:\Program Files (x86)\Microsoft Visual Studio\2019\Community\VC\Tools\MSVC\14.29.30133\atlmfc\include\atltypes.h

; 648  : 	return ::PtInRect(this, point);

  001cf	ff 77 04	 push	 DWORD PTR [edi+4]
  001d2	8b 35 00 00 00
	00		 mov	 esi, DWORD PTR __imp__PtInRect@12
; File D:\git\src\IBK\IBK_DRFN\ProjSrc\SrcChartEx\ChartOCX\AddInManager\ChartCommonAddIn\OrderLineAddinImp.cpp

; 890  : 	if(/*bDoOrder &&*/ (m_rctLVScaleRegion.PtInRect( point) || m_rctRVScaleRegion.PtInRect( point)))//  

  001d8	8d 83 ac 00 00
	00		 lea	 eax, DWORD PTR [ebx+172]
; File C:\Program Files (x86)\Microsoft Visual Studio\2019\Community\VC\Tools\MSVC\14.29.30133\atlmfc\include\atltypes.h

; 648  : 	return ::PtInRect(this, point);

  001de	ff 37		 push	 DWORD PTR [edi]
  001e0	50		 push	 eax
  001e1	ff d6		 call	 esi
; File D:\git\src\IBK\IBK_DRFN\ProjSrc\SrcChartEx\ChartOCX\AddInManager\ChartCommonAddIn\OrderLineAddinImp.cpp

; 890  : 	if(/*bDoOrder &&*/ (m_rctLVScaleRegion.PtInRect( point) || m_rctRVScaleRegion.PtInRect( point)))//  

  001e3	85 c0		 test	 eax, eax
  001e5	0f 85 e9 01 00
	00		 jne	 $LN19@OnRButtonU
; File C:\Program Files (x86)\Microsoft Visual Studio\2019\Community\VC\Tools\MSVC\14.29.30133\atlmfc\include\atltypes.h

; 648  : 	return ::PtInRect(this, point);

  001eb	ff 77 04	 push	 DWORD PTR [edi+4]
; File D:\git\src\IBK\IBK_DRFN\ProjSrc\SrcChartEx\ChartOCX\AddInManager\ChartCommonAddIn\OrderLineAddinImp.cpp

; 890  : 	if(/*bDoOrder &&*/ (m_rctLVScaleRegion.PtInRect( point) || m_rctRVScaleRegion.PtInRect( point)))//  

  001ee	8d 83 bc 00 00
	00		 lea	 eax, DWORD PTR [ebx+188]
; File C:\Program Files (x86)\Microsoft Visual Studio\2019\Community\VC\Tools\MSVC\14.29.30133\atlmfc\include\atltypes.h

; 648  : 	return ::PtInRect(this, point);

  001f4	ff 37		 push	 DWORD PTR [edi]
  001f6	50		 push	 eax
  001f7	ff d6		 call	 esi
; File D:\git\src\IBK\IBK_DRFN\ProjSrc\SrcChartEx\ChartOCX\AddInManager\ChartCommonAddIn\OrderLineAddinImp.cpp

; 890  : 	if(/*bDoOrder &&*/ (m_rctLVScaleRegion.PtInRect( point) || m_rctRVScaleRegion.PtInRect( point)))//  

  001f9	85 c0		 test	 eax, eax
  001fb	0f 85 d3 01 00
	00		 jne	 $LN19@OnRButtonU
; File C:\Program Files (x86)\Microsoft Visual Studio\2019\Community\VC\Tools\MSVC\14.29.30133\atlmfc\include\atltypes.h

; 648  : 	return ::PtInRect(this, point);

  00201	ff 77 04	 push	 DWORD PTR [edi+4]
  00204	8d 83 8c 00 00
	00		 lea	 eax, DWORD PTR [ebx+140]
  0020a	ff 37		 push	 DWORD PTR [edi]
  0020c	50		 push	 eax
  0020d	ff d6		 call	 esi
; File D:\git\src\IBK\IBK_DRFN\ProjSrc\SrcChartEx\ChartOCX\AddInManager\ChartCommonAddIn\OrderLineAddinImp.cpp

; 917  : 		if( m_rctGraphRegion.PtInRect( point) ) //  

  0020f	85 c0		 test	 eax, eax
  00211	0f 84 93 02 00
	00		 je	 $LN16@OnRButtonU

; 918  : 		{	
; 919  : 			COrderLine* pOrderLine_Find = NULL;
; 920  : 			POSITION pos = m_OrderLineList.GetHeadPosition();

  00217	8b 73 5c	 mov	 esi, DWORD PTR [ebx+92]

; 921  : 			BOOL bOnLine = FALSE;
; 922  : 			while(pos)

  0021a	85 f6		 test	 esi, esi
  0021c	0f 84 7f 00 00
	00		 je	 $LN5@OnRButtonU
$LL4@OnRButtonU:

; 923  : 			{
; 924  : 				pOrderLine_Find = (COrderLine*)m_OrderLineList.GetNext(pos);

  00222	8b 7e 08	 mov	 edi, DWORD PTR [esi+8]
; File C:\Program Files (x86)\Microsoft Visual Studio\2019\Community\VC\Tools\MSVC\14.29.30133\atlmfc\include\afxcoll.inl

; 432  : 		rPosition = (POSITION) pNode->pNext;

  00225	8b 36		 mov	 esi, DWORD PTR [esi]
; File D:\git\src\IBK\IBK_DRFN\ProjSrc\SrcChartEx\ChartOCX\AddInManager\ChartCommonAddIn\OrderLineAddinImp.cpp

; 925  : 				if(pOrderLine_Find && pOrderLine_Find->IsInRegion(point))

  00227	85 ff		 test	 edi, edi
  00229	74 38		 je	 SHORT $LN23@OnRButtonU
; File C:\Program Files (x86)\Microsoft Visual Studio\2019\Community\VC\Tools\MSVC\14.29.30133\atlmfc\include\atltypes.h

; 414  : 	*(POINT*)this = initPt;

  0022b	8b 45 cc	 mov	 eax, DWORD PTR _point$GSCopy$1$[ebp]
  0022e	8b 08		 mov	 ecx, DWORD PTR [eax]
  00230	8b 40 04	 mov	 eax, DWORD PTR [eax+4]

; 648  : 	return ::PtInRect(this, point);

  00233	50		 push	 eax

; 414  : 	*(POINT*)this = initPt;

  00234	89 45 c0	 mov	 DWORD PTR tv1144[ebp], eax
; File D:\git\src\IBK\IBK_DRFN\ProjSrc\SrcChartEx\ChartOCX\AddInManager\ChartCommonAddIn\OrderLineAddinImp.cpp

; 243  : 	if(m_rctLine.PtInRect(pt))

  00237	8d 87 80 00 00
	00		 lea	 eax, DWORD PTR [edi+128]
; File C:\Program Files (x86)\Microsoft Visual Studio\2019\Community\VC\Tools\MSVC\14.29.30133\atlmfc\include\atltypes.h

; 648  : 	return ::PtInRect(this, point);

  0023d	51		 push	 ecx
  0023e	50		 push	 eax

; 414  : 	*(POINT*)this = initPt;

  0023f	89 4d bc	 mov	 DWORD PTR tv1145[ebp], ecx

; 648  : 	return ::PtInRect(this, point);

  00242	ff 15 00 00 00
	00		 call	 DWORD PTR __imp__PtInRect@12
; File D:\git\src\IBK\IBK_DRFN\ProjSrc\SrcChartEx\ChartOCX\AddInManager\ChartCommonAddIn\OrderLineAddinImp.cpp

; 243  : 	if(m_rctLine.PtInRect(pt))

  00248	85 c0		 test	 eax, eax
  0024a	75 1d		 jne	 SHORT $LN134@OnRButtonU
; File C:\Program Files (x86)\Microsoft Visual Studio\2019\Community\VC\Tools\MSVC\14.29.30133\atlmfc\include\atltypes.h

; 648  : 	return ::PtInRect(this, point);

  0024c	ff 75 c0	 push	 DWORD PTR tv1144[ebp]
; File D:\git\src\IBK\IBK_DRFN\ProjSrc\SrcChartEx\ChartOCX\AddInManager\ChartCommonAddIn\OrderLineAddinImp.cpp

; 250  : 	if(m_rctTable.PtInRect(pt))

  0024f	8d 87 90 00 00
	00		 lea	 eax, DWORD PTR [edi+144]
; File C:\Program Files (x86)\Microsoft Visual Studio\2019\Community\VC\Tools\MSVC\14.29.30133\atlmfc\include\atltypes.h

; 648  : 	return ::PtInRect(this, point);

  00255	ff 75 bc	 push	 DWORD PTR tv1145[ebp]
  00258	50		 push	 eax
  00259	ff 15 00 00 00
	00		 call	 DWORD PTR __imp__PtInRect@12
; File D:\git\src\IBK\IBK_DRFN\ProjSrc\SrcChartEx\ChartOCX\AddInManager\ChartCommonAddIn\OrderLineAddinImp.cpp

; 250  : 	if(m_rctTable.PtInRect(pt))

  0025f	85 c0		 test	 eax, eax
  00261	75 06		 jne	 SHORT $LN134@OnRButtonU
$LN23@OnRButtonU:

; 921  : 			BOOL bOnLine = FALSE;
; 922  : 			while(pos)

  00263	85 f6		 test	 esi, esi
  00265	75 bb		 jne	 SHORT $LL4@OnRButtonU
  00267	eb 35		 jmp	 SHORT $LN156@OnRButtonU
$LN134@OnRButtonU:

; 926  : 				{
; 927  : 					bOnLine = TRUE;
; 928  : 					m_pSelectedOrderLine = pOrderLine_Find;			

  00269	89 7b 38	 mov	 DWORD PTR [ebx+56], edi

; 929  : 
; 930  : 					if(m_pSelectedOrderLine)
; 931  : 						m_pSelectedOrderLine->m_bSelected = FALSE;
; 932  : 					POSITION posCur = m_OrderLineList.Find((CObject*)m_pSelectedOrderLine);

  0026c	8d 4b 58	 lea	 ecx, DWORD PTR [ebx+88]
  0026f	6a 00		 push	 0
  00271	c7 47 18 00 00
	00 00		 mov	 DWORD PTR [edi+24], 0
  00278	ff 73 38	 push	 DWORD PTR [ebx+56]
  0027b	e8 00 00 00 00	 call	 ?Find@CObList@@QBEPAU__POSITION@@PAVCObject@@PAU2@@Z ; CObList::Find

; 933  : 					m_OrderLineList.RemoveAt(posCur);

  00280	50		 push	 eax
  00281	8d 4b 58	 lea	 ecx, DWORD PTR [ebx+88]
  00284	e8 00 00 00 00	 call	 ?RemoveAt@CObList@@QAEXPAU__POSITION@@@Z ; CObList::RemoveAt

; 934  : 					m_OrderLineList.AddTail((CObject*)m_pSelectedOrderLine);

  00289	ff 73 38	 push	 DWORD PTR [ebx+56]
  0028c	8d 4b 58	 lea	 ecx, DWORD PTR [ebx+88]
  0028f	e8 00 00 00 00	 call	 ?AddTail@CObList@@QAEPAU__POSITION@@PAVCObject@@@Z ; CObList::AddTail

; 935  : 					m_pSelectedOrderLine->m_bSelected = TRUE;				

  00294	8b 43 38	 mov	 eax, DWORD PTR [ebx+56]
  00297	c7 40 18 01 00
	00 00		 mov	 DWORD PTR [eax+24], 1
$LN156@OnRButtonU:

; 936  : 					break;
; 937  : 				}
; 938  : 			}			
; 939  : 			
; 940  : 			if(!m_pSelectedOrderLine)

  0029e	8b 7d cc	 mov	 edi, DWORD PTR _point$GSCopy$1$[ebp]
$LN5@OnRButtonU:
  002a1	8b 43 38	 mov	 eax, DWORD PTR [ebx+56]
  002a4	89 45 cc	 mov	 DWORD PTR _this$1$[ebp], eax
  002a7	85 c0		 test	 eax, eax
  002a9	75 08		 jne	 SHORT $LN25@OnRButtonU

; 941  : 				return TRUE;

  002ab	8d 70 01	 lea	 esi, DWORD PTR [eax+1]
  002ae	e9 f9 01 00 00	 jmp	 $LN36@OnRButtonU
$LN25@OnRButtonU:
; File C:\Program Files (x86)\Microsoft Visual Studio\2019\Community\VC\Tools\MSVC\14.29.30133\atlmfc\include\atltypes.h

; 414  : 	*(POINT*)this = initPt;

  002b3	8b 57 04	 mov	 edx, DWORD PTR [edi+4]
; File D:\git\src\IBK\IBK_DRFN\ProjSrc\SrcChartEx\ChartOCX\AddInManager\ChartCommonAddIn\OrderLineAddinImp.cpp

; 250  : 	if(m_rctTable.PtInRect(pt))

  002b6	05 90 00 00 00	 add	 eax, 144		; 00000090H
; File C:\Program Files (x86)\Microsoft Visual Studio\2019\Community\VC\Tools\MSVC\14.29.30133\atlmfc\include\atltypes.h

; 414  : 	*(POINT*)this = initPt;

  002bb	8b 0f		 mov	 ecx, DWORD PTR [edi]

; 648  : 	return ::PtInRect(this, point);

  002bd	8b 35 00 00 00
	00		 mov	 esi, DWORD PTR __imp__PtInRect@12
  002c3	52		 push	 edx
  002c4	51		 push	 ecx
  002c5	50		 push	 eax

; 414  : 	*(POINT*)this = initPt;

  002c6	89 4d c0	 mov	 DWORD PTR $T3[ebp], ecx
  002c9	89 55 bc	 mov	 DWORD PTR $T2[ebp], edx

; 648  : 	return ::PtInRect(this, point);

  002cc	ff d6		 call	 esi
; File D:\git\src\IBK\IBK_DRFN\ProjSrc\SrcChartEx\ChartOCX\AddInManager\ChartCommonAddIn\OrderLineAddinImp.cpp

; 250  : 	if(m_rctTable.PtInRect(pt))

  002ce	85 c0		 test	 eax, eax
  002d0	74 0f		 je	 SHORT $LN96@OnRButtonU

; 330  : 		m_nCurClickedPos = CLICKEDPOS_TABLE;

  002d2	8b 4d cc	 mov	 ecx, DWORD PTR _this$1$[ebp]
  002d5	c7 81 00 01 00
	00 02 00 00 00	 mov	 DWORD PTR [ecx+256], 2
  002df	eb 1e		 jmp	 SHORT $LN98@OnRButtonU
$LN96@OnRButtonU:
; File C:\Program Files (x86)\Microsoft Visual Studio\2019\Community\VC\Tools\MSVC\14.29.30133\atlmfc\include\atltypes.h

; 648  : 	return ::PtInRect(this, point);

  002e1	ff 75 bc	 push	 DWORD PTR $T2[ebp]
; File D:\git\src\IBK\IBK_DRFN\ProjSrc\SrcChartEx\ChartOCX\AddInManager\ChartCommonAddIn\OrderLineAddinImp.cpp

; 243  : 	if(m_rctLine.PtInRect(pt))

  002e4	8b 45 cc	 mov	 eax, DWORD PTR _this$1$[ebp]
; File C:\Program Files (x86)\Microsoft Visual Studio\2019\Community\VC\Tools\MSVC\14.29.30133\atlmfc\include\atltypes.h

; 648  : 	return ::PtInRect(this, point);

  002e7	ff 75 c0	 push	 DWORD PTR $T3[ebp]
; File D:\git\src\IBK\IBK_DRFN\ProjSrc\SrcChartEx\ChartOCX\AddInManager\ChartCommonAddIn\OrderLineAddinImp.cpp

; 243  : 	if(m_rctLine.PtInRect(pt))

  002ea	83 e8 80	 sub	 eax, -128		; ffffff80H
; File C:\Program Files (x86)\Microsoft Visual Studio\2019\Community\VC\Tools\MSVC\14.29.30133\atlmfc\include\atltypes.h

; 648  : 	return ::PtInRect(this, point);

  002ed	50		 push	 eax
  002ee	ff d6		 call	 esi
; File D:\git\src\IBK\IBK_DRFN\ProjSrc\SrcChartEx\ChartOCX\AddInManager\ChartCommonAddIn\OrderLineAddinImp.cpp

; 243  : 	if(m_rctLine.PtInRect(pt))

  002f0	8b 4d cc	 mov	 ecx, DWORD PTR _this$1$[ebp]
  002f3	f7 d8		 neg	 eax
  002f5	1b c0		 sbb	 eax, eax
  002f7	f7 d8		 neg	 eax
  002f9	89 81 00 01 00
	00		 mov	 DWORD PTR [ecx+256], eax
$LN98@OnRButtonU:
; File C:\Program Files (x86)\Microsoft Visual Studio\2019\Community\VC\Tools\MSVC\14.29.30133\atlmfc\include\afxwin1.inl

; 903  : 	{ m_hMenu = NULL; }

  002ff	c7 45 c4 00 00
	00 00		 mov	 DWORD PTR _menu$4[ebp], OFFSET ??_7CMenu@@6B@
  00306	c7 45 c8 00 00
	00 00		 mov	 DWORD PTR _menu$4[ebp+4], 0
; File D:\git\src\IBK\IBK_DRFN\ProjSrc\SrcChartEx\ChartOCX\AddInManager\ChartCommonAddIn\OrderLineAddinImp.cpp

; 947  : 				CMenu	menu;

  0030d	c6 45 fc 03	 mov	 BYTE PTR __$EHRec$[ebp+8], 3
; File C:\Program Files (x86)\Microsoft Visual Studio\2019\Community\VC\Tools\MSVC\14.29.30133\atlmfc\include\afxwin1.inl

; 909  : 	{ return Attach(::CreatePopupMenu()); }

  00311	ff 15 00 00 00
	00		 call	 DWORD PTR __imp__CreatePopupMenu@0
  00317	50		 push	 eax
  00318	8d 4d c4	 lea	 ecx, DWORD PTR _menu$4[ebp]
  0031b	e8 00 00 00 00	 call	 ?Attach@CMenu@@QAEHPAUHMENU__@@@Z ; CMenu::Attach

; 924  : 	{ ASSERT(::IsMenu(m_hMenu)); return ::AppendMenu(m_hMenu, nFlags, nIDNewItem, lpszNewItem); }

  00320	8b 35 00 00 00
	00		 mov	 esi, DWORD PTR __imp__AppendMenuA@16
  00326	68 00 00 00 00	 push	 OFFSET ??_C@_0N@HFBPCBAG@Change?5Order@
  0032b	6a 66		 push	 102			; 00000066H
  0032d	6a 00		 push	 0
  0032f	ff 75 c8	 push	 DWORD PTR _menu$4[ebp+4]
  00332	ff d6		 call	 esi
  00334	68 00 00 00 00	 push	 OFFSET ??_C@_0N@NMECPAHM@Remove?5Order@
  00339	6a 67		 push	 103			; 00000067H
  0033b	6a 00		 push	 0
  0033d	ff 75 c8	 push	 DWORD PTR _menu$4[ebp+4]
  00340	ff d6		 call	 esi
; File D:\git\src\IBK\IBK_DRFN\ProjSrc\SrcChartEx\ChartOCX\AddInManager\ChartCommonAddIn\OrderLineAddinImp.cpp

; 955  : 				int nRet = menu.TrackPopupMenu(flags, point.x + 40, point.y + 250, m_pChartCWnd);

  00342	8b 47 04	 mov	 eax, DWORD PTR [edi+4]
  00345	8d 4d c4	 lea	 ecx, DWORD PTR _menu$4[ebp]
  00348	6a 00		 push	 0
  0034a	ff 73 08	 push	 DWORD PTR [ebx+8]
  0034d	05 fa 00 00 00	 add	 eax, 250		; 000000faH
  00352	50		 push	 eax
  00353	8b 07		 mov	 eax, DWORD PTR [edi]
  00355	83 c0 28	 add	 eax, 40			; 00000028H
  00358	50		 push	 eax
  00359	68 82 01 00 00	 push	 386			; 00000182H
  0035e	e8 00 00 00 00	 call	 ?TrackPopupMenu@CMenu@@QAEHIHHPAVCWnd@@PBUtagRECT@@@Z ; CMenu::TrackPopupMenu

; 956  : 				menu.DestroyMenu();

  00363	8d 4d c4	 lea	 ecx, DWORD PTR _menu$4[ebp]
  00366	8b f0		 mov	 esi, eax
  00368	e8 00 00 00 00	 call	 ?DestroyMenu@CMenu@@QAEHXZ ; CMenu::DestroyMenu

; 957  : 
; 958  : 				switch(nRet) {

  0036d	83 ee 66	 sub	 esi, 102		; 00000066H
  00370	74 21		 je	 SHORT $LN26@OnRButtonU
  00372	83 ee 01	 sub	 esi, 1
  00375	75 54		 jne	 SHORT $LN6@OnRButtonU
; File C:\Program Files (x86)\Microsoft Visual Studio\2019\Community\VC\Tools\MSVC\14.29.30133\atlmfc\include\atlsimpstr.h

; 377  : 		return( m_pszData );

  00377	8b 43 38	 mov	 eax, DWORD PTR [ebx+56]
; File D:\git\src\IBK\IBK_DRFN\ProjSrc\SrcChartEx\ChartOCX\AddInManager\ChartCommonAddIn\OrderLineAddinImp.cpp

; 966  : 					m_pIChartOCX->OnOrderInfomationChanged(dYValue, (int)m_pSelectedOrderLine->m_dAmount, ORDERTYPE_CANCEL, 

  0037a	68 00 00 00 00	 push	 OFFSET ??_C@_00CNPNBAHC@@
  0037f	68 00 00 00 00	 push	 OFFSET ??_C@_00CNPNBAHC@@
  00384	68 00 00 00 00	 push	 OFFSET ??_C@_00CNPNBAHC@@
  00389	ff b0 e0 00 00
	00		 push	 DWORD PTR [eax+224]
  0038f	6a 03		 push	 3
  00391	eb 1a		 jmp	 SHORT $LN159@OnRButtonU
$LN26@OnRButtonU:
; File C:\Program Files (x86)\Microsoft Visual Studio\2019\Community\VC\Tools\MSVC\14.29.30133\atlmfc\include\atlsimpstr.h

; 377  : 		return( m_pszData );

  00393	8b 43 38	 mov	 eax, DWORD PTR [ebx+56]
; File D:\git\src\IBK\IBK_DRFN\ProjSrc\SrcChartEx\ChartOCX\AddInManager\ChartCommonAddIn\OrderLineAddinImp.cpp

; 961  : 						m_pIChartOCX->OnOrderInfomationChanged(dYValue, (int)m_pSelectedOrderLine->m_dAmount, ORDERTYPE_CHANGE, 

  00396	68 00 00 00 00	 push	 OFFSET ??_C@_00CNPNBAHC@@
  0039b	68 00 00 00 00	 push	 OFFSET ??_C@_00CNPNBAHC@@
  003a0	68 00 00 00 00	 push	 OFFSET ??_C@_00CNPNBAHC@@
  003a5	ff b0 e0 00 00
	00		 push	 DWORD PTR [eax+224]
  003ab	6a 02		 push	 2
$LN159@OnRButtonU:
; File C:\Program Files (x86)\Microsoft Visual Studio\2019\Community\VC\Tools\MSVC\14.29.30133\atlmfc\include\afxwin1.inl

; 905  : 	{ DestroyMenu(); }

  003ad	f2 0f 2c 40 30	 cvttsd2si eax, QWORD PTR [eax+48]
  003b2	8b 4b 04	 mov	 ecx, DWORD PTR [ebx+4]
  003b5	8b 11		 mov	 edx, DWORD PTR [ecx]
  003b7	f2 0f 10 45 e8	 movsd	 xmm0, QWORD PTR _dYValue$[ebp]
  003bc	50		 push	 eax
  003bd	83 ec 08	 sub	 esp, 8
  003c0	f2 0f 11 04 24	 movsd	 QWORD PTR [esp], xmm0
  003c5	ff 92 64 02 00
	00		 call	 DWORD PTR [edx+612]
$LN6@OnRButtonU:
  003cb	c6 45 fc 04	 mov	 BYTE PTR __$EHRec$[ebp+8], 4
  003cf	e9 c7 00 00 00	 jmp	 $LN160@OnRButtonU
$LN19@OnRButtonU:

; 903  : 	{ m_hMenu = NULL; }

  003d4	c7 45 c4 00 00
	00 00		 mov	 DWORD PTR _menu$5[ebp], OFFSET ??_7CMenu@@6B@
  003db	c7 45 c8 00 00
	00 00		 mov	 DWORD PTR _menu$5[ebp+4], 0
; File D:\git\src\IBK\IBK_DRFN\ProjSrc\SrcChartEx\ChartOCX\AddInManager\ChartCommonAddIn\OrderLineAddinImp.cpp

; 892  : 		CMenu	menu;

  003e2	c6 45 fc 01	 mov	 BYTE PTR __$EHRec$[ebp+8], 1
; File C:\Program Files (x86)\Microsoft Visual Studio\2019\Community\VC\Tools\MSVC\14.29.30133\atlmfc\include\afxwin1.inl

; 909  : 	{ return Attach(::CreatePopupMenu()); }

  003e6	ff 15 00 00 00
	00		 call	 DWORD PTR __imp__CreatePopupMenu@0
  003ec	50		 push	 eax
  003ed	8d 4d c4	 lea	 ecx, DWORD PTR _menu$5[ebp]
  003f0	e8 00 00 00 00	 call	 ?Attach@CMenu@@QAEHPAUHMENU__@@@Z ; CMenu::Attach

; 924  : 	{ ASSERT(::IsMenu(m_hMenu)); return ::AppendMenu(m_hMenu, nFlags, nIDNewItem, lpszNewItem); }

  003f5	8b 35 00 00 00
	00		 mov	 esi, DWORD PTR __imp__AppendMenuA@16
  003fb	68 00 00 00 00	 push	 OFFSET ??_C@_0BE@ILPILJFK@Create?5Market?5Order@
  00400	6a 64		 push	 100			; 00000064H
  00402	6a 00		 push	 0
  00404	ff 75 c8	 push	 DWORD PTR _menu$5[ebp+4]
  00407	ff d6		 call	 esi
  00409	68 00 00 00 00	 push	 OFFSET ??_C@_0BE@LPJNJHO@Create?5Entry?5?5Order@
  0040e	6a 65		 push	 101			; 00000065H
  00410	6a 00		 push	 0
  00412	ff 75 c8	 push	 DWORD PTR _menu$5[ebp+4]
  00415	ff d6		 call	 esi
; File D:\git\src\IBK\IBK_DRFN\ProjSrc\SrcChartEx\ChartOCX\AddInManager\ChartCommonAddIn\OrderLineAddinImp.cpp

; 900  : 		int nRet = menu.TrackPopupMenu(flags, point.x + 115, point.y + 260, m_pChartCWnd);

  00417	8b 47 04	 mov	 eax, DWORD PTR [edi+4]
  0041a	8d 4d c4	 lea	 ecx, DWORD PTR _menu$5[ebp]
  0041d	6a 00		 push	 0
  0041f	ff 73 08	 push	 DWORD PTR [ebx+8]
  00422	05 04 01 00 00	 add	 eax, 260		; 00000104H
  00427	50		 push	 eax
  00428	8b 07		 mov	 eax, DWORD PTR [edi]
  0042a	83 c0 73	 add	 eax, 115		; 00000073H
  0042d	50		 push	 eax
  0042e	68 82 01 00 00	 push	 386			; 00000182H
  00433	e8 00 00 00 00	 call	 ?TrackPopupMenu@CMenu@@QAEHIHHPAVCWnd@@PBUtagRECT@@@Z ; CMenu::TrackPopupMenu

; 901  : 		menu.DestroyMenu();

  00438	8d 4d c4	 lea	 ecx, DWORD PTR _menu$5[ebp]
  0043b	8b f0		 mov	 esi, eax
  0043d	e8 00 00 00 00	 call	 ?DestroyMenu@CMenu@@QAEHXZ ; CMenu::DestroyMenu

; 902  : 
; 903  : 		switch(nRet) {

  00442	83 ee 64	 sub	 esi, 100		; 00000064H
  00445	74 22		 je	 SHORT $LN20@OnRButtonU
  00447	83 ee 01	 sub	 esi, 1
  0044a	75 4b		 jne	 SHORT $LN2@OnRButtonU

; 907  : 				break;
; 908  : 			}
; 909  : 		case 101:
; 910  : 			m_pIChartOCX->OnOrderInfomationChanged(dYValue, 10, ORDERTYPE_ENTRY, "", "", "", "");

  0044c	f2 0f 10 45 e8	 movsd	 xmm0, QWORD PTR _dYValue$[ebp]
  00451	68 00 00 00 00	 push	 OFFSET ??_C@_00CNPNBAHC@@
  00456	68 00 00 00 00	 push	 OFFSET ??_C@_00CNPNBAHC@@
  0045b	68 00 00 00 00	 push	 OFFSET ??_C@_00CNPNBAHC@@
  00460	68 00 00 00 00	 push	 OFFSET ??_C@_00CNPNBAHC@@
  00465	6a 01		 push	 1
  00467	eb 19		 jmp	 SHORT $LN161@OnRButtonU
$LN20@OnRButtonU:

; 904  : 		case 100:
; 905  : 			{						
; 906  : 				m_pIChartOCX->OnOrderInfomationChanged(0, 10, ORDERTYPE_MARKET, "", "", "", "");

  00469	68 00 00 00 00	 push	 OFFSET ??_C@_00CNPNBAHC@@
  0046e	68 00 00 00 00	 push	 OFFSET ??_C@_00CNPNBAHC@@
  00473	68 00 00 00 00	 push	 OFFSET ??_C@_00CNPNBAHC@@
  00478	68 00 00 00 00	 push	 OFFSET ??_C@_00CNPNBAHC@@
  0047d	6a 00		 push	 0
  0047f	0f 57 c0	 xorps	 xmm0, xmm0
$LN161@OnRButtonU:
; File C:\Program Files (x86)\Microsoft Visual Studio\2019\Community\VC\Tools\MSVC\14.29.30133\atlmfc\include\afxwin1.inl

; 905  : 	{ DestroyMenu(); }

  00482	8b 4b 04	 mov	 ecx, DWORD PTR [ebx+4]
  00485	6a 0a		 push	 10			; 0000000aH
  00487	83 ec 08	 sub	 esp, 8
  0048a	8b 01		 mov	 eax, DWORD PTR [ecx]
  0048c	f2 0f 11 04 24	 movsd	 QWORD PTR [esp], xmm0
  00491	ff 90 64 02 00
	00		 call	 DWORD PTR [eax+612]
$LN2@OnRButtonU:
  00497	c6 45 fc 02	 mov	 BYTE PTR __$EHRec$[ebp+8], 2
$LN160@OnRButtonU:
; File D:\git\src\IBK\IBK_DRFN\ProjSrc\SrcChartEx\ChartOCX\AddInManager\ChartCommonAddIn\OrderLineAddinImp.cpp

; 974  : 	return FALSE;

  0049b	8d 4d c4	 lea	 ecx, DWORD PTR _menu$5[ebp]
  0049e	c7 45 c4 00 00
	00 00		 mov	 DWORD PTR _menu$5[ebp], OFFSET ??_7CMenu@@6B@
  004a5	e8 00 00 00 00	 call	 ?DestroyMenu@CMenu@@QAEHXZ ; CMenu::DestroyMenu
$LN16@OnRButtonU:
; File D:\git\src\IBK\IBK_DRFN\ProjSrc\SrcChartEx\ChartOCX\AddInManager\Include_AddIn\I000000\_IString.h

; 44   : 	{

  004aa	33 f6		 xor	 esi, esi
$LN36@OnRButtonU:

; 45   : 		if( m_pIStrData)

  004ac	8b 45 ac	 mov	 eax, DWORD PTR _szGraphName$[ebp+4]
  004af	c7 45 fc 05 00
	00 00		 mov	 DWORD PTR __$EHRec$[ebp+8], 5
  004b6	85 c0		 test	 eax, eax
  004b8	74 06		 je	 SHORT $LN129@OnRButtonU

; 46   : 		{
; 47   : 			m_pIStrData->Release();

  004ba	8b 08		 mov	 ecx, DWORD PTR [eax]
  004bc	50		 push	 eax
  004bd	ff 51 08	 call	 DWORD PTR [ecx+8]
$LN129@OnRButtonU:
; File D:\git\src\IBK\IBK_DRFN\ProjSrc\SrcChartEx\ChartOCX\AddInManager\ChartCommonAddIn\OrderLineAddinImp.cpp

; 974  : 	return FALSE;

  004c0	8b c6		 mov	 eax, esi
  004c2	eb 02		 jmp	 SHORT $LN1@OnRButtonU
$LN10@OnRButtonU:

; 847  : 		return FALSE;

  004c4	33 c0		 xor	 eax, eax
$LN1@OnRButtonU:

; 975  : }

  004c6	8b 4d f4	 mov	 ecx, DWORD PTR __$EHRec$[ebp]
  004c9	64 89 0d 00 00
	00 00		 mov	 DWORD PTR fs:0, ecx
  004d0	59		 pop	 ecx
  004d1	5f		 pop	 edi
  004d2	5e		 pop	 esi
  004d3	5b		 pop	 ebx
  004d4	8b 4d f0	 mov	 ecx, DWORD PTR __$ArrayPad$[ebp]
  004d7	33 cd		 xor	 ecx, ebp
  004d9	e8 00 00 00 00	 call	 @__security_check_cookie@4
  004de	8b e5		 mov	 esp, ebp
  004e0	5d		 pop	 ebp
  004e1	c2 10 00	 ret	 16			; 00000010H
_TEXT	ENDS
;	COMDAT text$x
text$x	SEGMENT
__unwindfunclet$?OnRButtonUp@COrderLineAddInImp@@MAEHPAUHDC__@@IAAUtagPOINT@@K@Z$0:
  00000	8d 4d a8	 lea	 ecx, DWORD PTR _szGraphName$[ebp]
  00003	e9 00 00 00 00	 jmp	 ??1ILPCSTR000000@@QAE@XZ ; ILPCSTR000000::~ILPCSTR000000
__unwindfunclet$?OnRButtonUp@COrderLineAddInImp@@MAEHPAUHDC__@@IAAUtagPOINT@@K@Z$2:
  00008	8d 4d c4	 lea	 ecx, DWORD PTR _menu$4[ebp]
  0000b	e9 00 00 00 00	 jmp	 ??1CMenu@@UAE@XZ	; CMenu::~CMenu
__unwindfunclet$?OnRButtonUp@COrderLineAddInImp@@MAEHPAUHDC__@@IAAUtagPOINT@@K@Z$1:
  00010	8d 4d c4	 lea	 ecx, DWORD PTR _menu$5[ebp]
  00013	e9 00 00 00 00	 jmp	 ??1CMenu@@UAE@XZ	; CMenu::~CMenu
  00018	cc		 int	 3
  00019	cc		 int	 3
  0001a	cc		 int	 3
  0001b	cc		 int	 3
  0001c	cc		 int	 3
__ehhandler$?OnRButtonUp@COrderLineAddInImp@@MAEHPAUHDC__@@IAAUtagPOINT@@K@Z:
  0001d	90		 npad	 1
  0001e	90		 npad	 1
  0001f	8b 54 24 08	 mov	 edx, DWORD PTR [esp+8]
  00023	8d 42 0c	 lea	 eax, DWORD PTR [edx+12]
  00026	8b 4a 9c	 mov	 ecx, DWORD PTR [edx-100]
  00029	33 c8		 xor	 ecx, eax
  0002b	e8 00 00 00 00	 call	 @__security_check_cookie@4
  00030	8b 4a fc	 mov	 ecx, DWORD PTR [edx-4]
  00033	33 c8		 xor	 ecx, eax
  00035	e8 00 00 00 00	 call	 @__security_check_cookie@4
  0003a	b8 00 00 00 00	 mov	 eax, OFFSET __ehfuncinfo$?OnRButtonUp@COrderLineAddInImp@@MAEHPAUHDC__@@IAAUtagPOINT@@K@Z
  0003f	e9 00 00 00 00	 jmp	 ___CxxFrameHandler3
text$x	ENDS
?OnRButtonUp@COrderLineAddInImp@@MAEHPAUHDC__@@IAAUtagPOINT@@K@Z ENDP ; COrderLineAddInImp::OnRButtonUp
; Function compile flags: /Ogtp
; File D:\git\src\IBK\IBK_DRFN\ProjSrc\SrcChartEx\ChartOCX\AddInManager\ChartCommonAddIn\OrderLineAddinImp.cpp
;	COMDAT ?OnLButtonUp@COrderLineAddInImp@@MAEHPAUHDC__@@IAAUtagPOINT@@K@Z
_TEXT	SEGMENT
_p_hDC$ = 8						; size = 4
_nFlags$ = 12						; size = 4
_point$ = 16						; size = 4
_p_dwMouseActionID$ = 20				; size = 4
?OnLButtonUp@COrderLineAddInImp@@MAEHPAUHDC__@@IAAUtagPOINT@@K@Z PROC ; COrderLineAddInImp::OnLButtonUp, COMDAT
; _this$ = ecx

; 575  : {

  00000	56		 push	 esi
  00001	8b f1		 mov	 esi, ecx

; 576  : 	if(!m_bRun)		return FALSE;	

  00003	83 7e 7c 00	 cmp	 DWORD PTR [esi+124], 0
  00007	75 06		 jne	 SHORT $LN2@OnLButtonU
  00009	33 c0		 xor	 eax, eax
  0000b	5e		 pop	 esi

; 599  : 
; 600  : 	if( OnLButtonUpForYZoom( p_hDC, nFlags, point, p_dwMouseActionID))
; 601  : 		return TRUE;
; 602  : 
; 603  : 	return TRUE;
; 604  : }

  0000c	c2 10 00	 ret	 16			; 00000010H
$LN2@OnLButtonU:

; 577  : 
; 578  : 	if(m_bOnSetCaprture)

  0000f	83 be 84 00 00
	00 00		 cmp	 DWORD PTR [esi+132], 0
  00016	74 5d		 je	 SHORT $LN3@OnLButtonU

; 579  : 	{	
; 580  : 		m_hAPCursor = NULL;	
; 581  : 		if( m_pIChartOCX) m_pIChartOCX->SetCursorHandle( m_hAPCursor);

  00018	8b 4e 04	 mov	 ecx, DWORD PTR [esi+4]
  0001b	c7 86 cc 00 00
	00 00 00 00 00	 mov	 DWORD PTR [esi+204], 0
  00025	85 c9		 test	 ecx, ecx
  00027	74 07		 je	 SHORT $LN4@OnLButtonU
  00029	8b 01		 mov	 eax, DWORD PTR [ecx]
  0002b	6a 00		 push	 0
  0002d	ff 50 4c	 call	 DWORD PTR [eax+76]
$LN4@OnLButtonU:

; 582  : 		if(m_pSelectedOrderLine)

  00030	8b 56 38	 mov	 edx, DWORD PTR [esi+56]
  00033	85 d2		 test	 edx, edx
  00035	74 2c		 je	 SHORT $LN5@OnLButtonU

; 323  : 	m_ptBackupTalbeOffset = m_ptTableOffset;

  00037	8b 82 c0 00 00
	00		 mov	 eax, DWORD PTR [edx+192]
  0003d	8b 8a c4 00 00
	00		 mov	 ecx, DWORD PTR [edx+196]
  00043	89 82 d0 00 00
	00		 mov	 DWORD PTR [edx+208], eax
  00049	89 8a d4 00 00
	00		 mov	 DWORD PTR [edx+212], ecx

; 324  : 	m_ptLineOffset  = CPoint(0,0);

  0004f	c7 82 d8 00 00
	00 00 00 00 00	 mov	 DWORD PTR [edx+216], 0
  00059	c7 82 dc 00 00
	00 00 00 00 00	 mov	 DWORD PTR [edx+220], 0
$LN5@OnLButtonU:

; 583  : 			m_pSelectedOrderLine->MouseLButtonUp(point);
; 584  : 		m_bOnSetCaprture = FALSE;
; 585  : 		m_pIChartOCX->InvalidateControl();

  00063	8b 4e 04	 mov	 ecx, DWORD PTR [esi+4]
  00066	c7 86 84 00 00
	00 00 00 00 00	 mov	 DWORD PTR [esi+132], 0
  00070	8b 01		 mov	 eax, DWORD PTR [ecx]
  00072	ff 50 38	 call	 DWORD PTR [eax+56]
$LN3@OnLButtonU:

; 586  : 
; 587  : 		SetOrderInfomation();		
; 588  : 	}
; 589  : 	
; 590  : 	// 5. Make Real Effect Gap 5 Pixel.
; 591  : //	if( abs(m_ptPanStart.x - point.x) < m_dBarWidth )
; 592  : //		return TRUE;
; 593  : 
; 594  : 	// 6. Drag  Mouse Cursor .
; 595  : //	m_pChartCWnd->SendMessage( UM_CURSOR_EXCHANGE, ( WPARAM)CCursorShape::OBJECT_NONE, NULL);
; 596  : 
; 597  : 	m_ptPanStart = CPoint(-1, -1);	

  00075	c7 86 14 01 00
	00 ff ff ff ff	 mov	 DWORD PTR [esi+276], -1
  0007f	c7 86 18 01 00
	00 ff ff ff ff	 mov	 DWORD PTR [esi+280], -1

; 598  : 	m_bLButtonDown = FALSE;

  00089	c7 86 10 01 00
	00 00 00 00 00	 mov	 DWORD PTR [esi+272], 0

; 823  : 	if( m_ptYZoomStart.x < 0 && m_ptYZoomStart.y < 0) return FALSE;

  00093	83 be 24 01 00
	00 00		 cmp	 DWORD PTR [esi+292], 0
  0009a	7d 09		 jge	 SHORT $LN17@OnLButtonU
  0009c	83 be 28 01 00
	00 00		 cmp	 DWORD PTR [esi+296], 0
  000a3	7c 29		 jl	 SHORT $LN20@OnLButtonU
$LN17@OnLButtonU:

; 824  : 
; 825  : 	m_pIAddInToolMgr->ReleaseLButtonExclusive( m_pIAddInDllBase);

  000a5	8b 4e 24	 mov	 ecx, DWORD PTR [esi+36]
  000a8	ff 76 10	 push	 DWORD PTR [esi+16]
  000ab	8b 01		 mov	 eax, DWORD PTR [ecx]
  000ad	ff 50 38	 call	 DWORD PTR [eax+56]

; 826  : //	m_pChartCWnd->SendMessage( UM_CURSOR_EXCHANGE, ( WPARAM)CCursorShape::OBJECT_NONE, NULL);
; 827  : 
; 828  : 	m_ptYZoomStart.x = -1;

  000b0	c7 86 24 01 00
	00 ff ff ff ff	 mov	 DWORD PTR [esi+292], -1

; 829  : 	m_ptYZoomStart.y = -1;

  000ba	c7 86 28 01 00
	00 ff ff ff ff	 mov	 DWORD PTR [esi+296], -1

; 830  : 
; 831  : 	m_bSplit = FALSE;

  000c4	c7 86 88 00 00
	00 00 00 00 00	 mov	 DWORD PTR [esi+136], 0
$LN20@OnLButtonU:

; 599  : 
; 600  : 	if( OnLButtonUpForYZoom( p_hDC, nFlags, point, p_dwMouseActionID))
; 601  : 		return TRUE;
; 602  : 
; 603  : 	return TRUE;
; 604  : }

  000ce	b8 01 00 00 00	 mov	 eax, 1
  000d3	5e		 pop	 esi
  000d4	c2 10 00	 ret	 16			; 00000010H
?OnLButtonUp@COrderLineAddInImp@@MAEHPAUHDC__@@IAAUtagPOINT@@K@Z ENDP ; COrderLineAddInImp::OnLButtonUp
_TEXT	ENDS
; Function compile flags: /Ogtp
; File D:\git\src\IBK\IBK_DRFN\ProjSrc\SrcChartEx\ChartOCX\AddInManager\ChartCommonAddIn\OrderLineAddinImp.cpp
; File D:\git\src\IBK\IBK_DRFN\ProjSrc\SrcChartEx\ChartOCX\AddInManager\Include_AddIn\I000000\_IString.h
; File D:\git\src\IBK\IBK_DRFN\ProjSrc\SrcChartEx\ChartOCX\AddInManager\ChartCommonAddIn\OrderLineAddinImp.cpp
; File D:\git\src\IBK\IBK_DRFN\ProjSrc\SrcChartEx\ChartOCX\AddInManager\Include_AddIn\I000000\_IString.h
; File D:\git\src\IBK\IBK_DRFN\ProjSrc\SrcChartEx\ChartOCX\AddInManager\ChartCommonAddIn\OrderLineAddinImp.cpp
; File C:\Program Files (x86)\Microsoft Visual Studio\2019\Community\VC\Tools\MSVC\14.29.30133\atlmfc\include\atltypes.h
; File D:\git\src\IBK\IBK_DRFN\ProjSrc\SrcChartEx\ChartOCX\AddInManager\ChartCommonAddIn\OrderLineAddinImp.cpp
; File C:\Program Files (x86)\Microsoft Visual Studio\2019\Community\VC\Tools\MSVC\14.29.30133\atlmfc\include\atltypes.h
; File D:\git\src\IBK\IBK_DRFN\ProjSrc\SrcChartEx\ChartOCX\AddInManager\ChartCommonAddIn\OrderLineAddinImp.cpp
; File C:\Program Files (x86)\Microsoft Visual Studio\2019\Community\VC\Tools\MSVC\14.29.30133\atlmfc\include\atltypes.h
; File D:\git\src\IBK\IBK_DRFN\ProjSrc\SrcChartEx\ChartOCX\AddInManager\ChartCommonAddIn\OrderLineAddinImp.cpp
; File C:\Program Files (x86)\Microsoft Visual Studio\2019\Community\VC\Tools\MSVC\14.29.30133\atlmfc\include\atltypes.h
; File D:\git\src\IBK\IBK_DRFN\ProjSrc\SrcChartEx\ChartOCX\AddInManager\ChartCommonAddIn\OrderLineAddinImp.cpp
; File C:\Program Files (x86)\Microsoft Visual Studio\2019\Community\VC\Tools\MSVC\14.29.30133\atlmfc\include\afxcoll.inl
; File D:\git\src\IBK\IBK_DRFN\ProjSrc\SrcChartEx\ChartOCX\AddInManager\ChartCommonAddIn\OrderLineAddinImp.cpp
; File C:\Program Files (x86)\Microsoft Visual Studio\2019\Community\VC\Tools\MSVC\14.29.30133\atlmfc\include\atltypes.h
; File D:\git\src\IBK\IBK_DRFN\ProjSrc\SrcChartEx\ChartOCX\AddInManager\ChartCommonAddIn\OrderLineAddinImp.cpp
; File C:\Program Files (x86)\Microsoft Visual Studio\2019\Community\VC\Tools\MSVC\14.29.30133\atlmfc\include\atltypes.h
; File D:\git\src\IBK\IBK_DRFN\ProjSrc\SrcChartEx\ChartOCX\AddInManager\ChartCommonAddIn\OrderLineAddinImp.cpp
; File C:\Program Files (x86)\Microsoft Visual Studio\2019\Community\VC\Tools\MSVC\14.29.30133\atlmfc\include\atltypes.h
; File D:\git\src\IBK\IBK_DRFN\ProjSrc\SrcChartEx\ChartOCX\AddInManager\ChartCommonAddIn\OrderLineAddinImp.cpp
; File C:\Program Files (x86)\Microsoft Visual Studio\2019\Community\VC\Tools\MSVC\14.29.30133\atlmfc\include\atltypes.h
; File D:\git\src\IBK\IBK_DRFN\ProjSrc\SrcChartEx\ChartOCX\AddInManager\ChartCommonAddIn\OrderLineAddinImp.cpp
; File C:\Program Files (x86)\Microsoft Visual Studio\2019\Community\VC\Tools\MSVC\14.29.30133\atlmfc\include\atltypes.h
; File D:\git\src\IBK\IBK_DRFN\ProjSrc\SrcChartEx\ChartOCX\AddInManager\ChartCommonAddIn\OrderLineAddinImp.cpp
; File C:\Program Files (x86)\Microsoft Visual Studio\2019\Community\VC\Tools\MSVC\14.29.30133\atlmfc\include\atltypes.h
; File D:\git\src\IBK\IBK_DRFN\ProjSrc\SrcChartEx\ChartOCX\AddInManager\ChartCommonAddIn\OrderLineAddinImp.cpp
; File C:\Program Files (x86)\Microsoft Visual Studio\2019\Community\VC\Tools\MSVC\14.29.30133\atlmfc\include\atltypes.h
; File D:\git\src\IBK\IBK_DRFN\ProjSrc\SrcChartEx\ChartOCX\AddInManager\ChartCommonAddIn\OrderLineAddinImp.cpp
; File C:\Program Files (x86)\Microsoft Visual Studio\2019\Community\VC\Tools\MSVC\14.29.30133\atlmfc\include\atltypes.h
; File D:\git\src\IBK\IBK_DRFN\ProjSrc\SrcChartEx\ChartOCX\AddInManager\ChartCommonAddIn\OrderLineAddinImp.cpp
; File C:\Program Files (x86)\Microsoft Visual Studio\2019\Community\VC\Tools\MSVC\14.29.30133\atlmfc\include\atltypes.h
; File D:\git\src\IBK\IBK_DRFN\ProjSrc\SrcChartEx\ChartOCX\AddInManager\ChartCommonAddIn\OrderLineAddinImp.cpp
; File C:\Program Files (x86)\Microsoft Visual Studio\2019\Community\VC\Tools\MSVC\14.29.30133\atlmfc\include\atltypes.h
; File D:\git\src\IBK\IBK_DRFN\ProjSrc\SrcChartEx\ChartOCX\AddInManager\ChartCommonAddIn\OrderLineAddinImp.cpp
; File C:\Program Files (x86)\Microsoft Visual Studio\2019\Community\VC\Tools\MSVC\14.29.30133\atlmfc\include\atltypes.h
; File D:\git\src\IBK\IBK_DRFN\ProjSrc\SrcChartEx\ChartOCX\AddInManager\ChartCommonAddIn\OrderLineAddinImp.cpp
; File C:\Program Files (x86)\Microsoft Visual Studio\2019\Community\VC\Tools\MSVC\14.29.30133\atlmfc\include\atltypes.h
; File D:\git\src\IBK\IBK_DRFN\ProjSrc\SrcChartEx\ChartOCX\AddInManager\ChartCommonAddIn\OrderLineAddinImp.cpp
; File C:\Program Files (x86)\Microsoft Visual Studio\2019\Community\VC\Tools\MSVC\14.29.30133\atlmfc\include\atltypes.h
; File D:\git\src\IBK\IBK_DRFN\ProjSrc\SrcChartEx\ChartOCX\AddInManager\ChartCommonAddIn\OrderLineAddinImp.cpp
; File C:\Program Files (x86)\Microsoft Visual Studio\2019\Community\VC\Tools\MSVC\14.29.30133\atlmfc\include\atltypes.h
; File D:\git\src\IBK\IBK_DRFN\ProjSrc\SrcChartEx\ChartOCX\AddInManager\ChartCommonAddIn\OrderLineAddinImp.cpp
; File C:\Program Files (x86)\Microsoft Visual Studio\2019\Community\VC\Tools\MSVC\14.29.30133\atlmfc\include\atltypes.h
; File D:\git\src\IBK\IBK_DRFN\ProjSrc\SrcChartEx\ChartOCX\AddInManager\ChartCommonAddIn\OrderLineAddinImp.cpp
; File C:\Program Files (x86)\Microsoft Visual Studio\2019\Community\VC\Tools\MSVC\14.29.30133\atlmfc\include\atltypes.h
; File D:\git\src\IBK\IBK_DRFN\ProjSrc\SrcChartEx\ChartOCX\AddInManager\ChartCommonAddIn\OrderLineAddinImp.cpp
; File D:\git\src\IBK\IBK_DRFN\ProjSrc\SrcChartEx\ChartOCX\AddInManager\Include_AddIn\I000000\_IString.h
; File D:\git\src\IBK\IBK_DRFN\ProjSrc\SrcChartEx\ChartOCX\AddInManager\ChartCommonAddIn\OrderLineAddinImp.cpp
;	COMDAT ?OnLButtonDown@COrderLineAddInImp@@MAEHPAUHDC__@@IAAUtagPOINT@@K@Z
_TEXT	SEGMENT
_eMinMaxType$ = -92					; size = 4
_nG$ = -88						; size = 4
_szGraphName$ = -84					; size = 8
_pIBlock$1$ = -76					; size = 4
_nR$ = -72						; size = 4
_nC$ = -68						; size = 4
_nV$ = -64						; size = 4
$T2 = -60						; size = 4
tv1016 = -60						; size = 4
$T3 = -56						; size = 4
tv1015 = -56						; size = 4
_point$GSCopy$1$ = -52					; size = 4
$T4 = -48						; size = 16
_rctNoFrameAndMargin$ = -32				; size = 16
__$ArrayPad$ = -16					; size = 4
__$EHRec$ = -12						; size = 12
_p_hDC$ = 8						; size = 4
_nFlags$ = 12						; size = 4
_point$ = 16						; size = 4
_p_dwMouseActionID$ = 20				; size = 4
?OnLButtonDown@COrderLineAddInImp@@MAEHPAUHDC__@@IAAUtagPOINT@@K@Z PROC ; COrderLineAddInImp::OnLButtonDown, COMDAT
; _this$ = ecx

; 453  : {

  00000	55		 push	 ebp
  00001	8b ec		 mov	 ebp, esp
  00003	6a ff		 push	 -1
  00005	68 00 00 00 00	 push	 __ehhandler$?OnLButtonDown@COrderLineAddInImp@@MAEHPAUHDC__@@IAAUtagPOINT@@K@Z
  0000a	64 a1 00 00 00
	00		 mov	 eax, DWORD PTR fs:0
  00010	50		 push	 eax
  00011	83 ec 50	 sub	 esp, 80			; 00000050H
  00014	a1 00 00 00 00	 mov	 eax, DWORD PTR ___security_cookie
  00019	33 c5		 xor	 eax, ebp
  0001b	89 45 f0	 mov	 DWORD PTR __$ArrayPad$[ebp], eax
  0001e	53		 push	 ebx
  0001f	56		 push	 esi
  00020	57		 push	 edi
  00021	50		 push	 eax
  00022	8d 45 f4	 lea	 eax, DWORD PTR __$EHRec$[ebp]
  00025	64 a3 00 00 00
	00		 mov	 DWORD PTR fs:0, eax
  0002b	8b f9		 mov	 edi, ecx

; 454  : 	// 1.       .
; 455  : 	if(!m_bRun)		return FALSE;

  0002d	83 7f 7c 00	 cmp	 DWORD PTR [edi+124], 0
  00031	8b 75 10	 mov	 esi, DWORD PTR _point$[ebp]
  00034	89 75 cc	 mov	 DWORD PTR _point$GSCopy$1$[ebp], esi
  00037	0f 84 09 04 00
	00		 je	 $LN6@OnLButtonD

; 456  : 
; 457  : 	// 2. Check Empty Chart!
; 458  : 	if( !m_pIChartOCX->IsUseToolScrollBar() || m_pIChartOCX->IsOnSpecialChart() || m_pIChartManager->IsEmpty())

  0003d	8b 4f 04	 mov	 ecx, DWORD PTR [edi+4]
  00040	8b 01		 mov	 eax, DWORD PTR [ecx]
  00042	ff 90 b0 00 00
	00		 call	 DWORD PTR [eax+176]
  00048	85 c0		 test	 eax, eax
  0004a	0f 84 f6 03 00
	00		 je	 $LN6@OnLButtonD
  00050	8b 4f 04	 mov	 ecx, DWORD PTR [edi+4]
  00053	8b 01		 mov	 eax, DWORD PTR [ecx]
  00055	ff 90 84 00 00
	00		 call	 DWORD PTR [eax+132]
  0005b	85 c0		 test	 eax, eax
  0005d	0f 85 e3 03 00
	00		 jne	 $LN6@OnLButtonD
  00063	8b 4f 1c	 mov	 ecx, DWORD PTR [edi+28]
  00066	8b 01		 mov	 eax, DWORD PTR [ecx]
  00068	ff 50 2c	 call	 DWORD PTR [eax+44]
  0006b	85 c0		 test	 eax, eax
  0006d	0f 85 d3 03 00
	00		 jne	 $LN6@OnLButtonD

; 463  : 	ILPCSTR szGraphName = m_pIChartManager->FindFirstIndicator( _MTEXT( C2_PRICE_CHART), nR, nC, nV, nG, "DEFAULT");

  00073	8b 4f 1c	 mov	 ecx, DWORD PTR [edi+28]
  00076	8d 45 a8	 lea	 eax, DWORD PTR _nG$[ebp]
  00079	68 00 00 00 00	 push	 OFFSET ??_C@_07MGCPDNLD@DEFAULT@
  0007e	50		 push	 eax
  0007f	8d 45 c0	 lea	 eax, DWORD PTR _nV$[ebp]
  00082	8b 11		 mov	 edx, DWORD PTR [ecx]
  00084	50		 push	 eax
  00085	8d 45 bc	 lea	 eax, DWORD PTR _nC$[ebp]
  00088	50		 push	 eax
  00089	8d 45 b8	 lea	 eax, DWORD PTR _nR$[ebp]
  0008c	50		 push	 eax
  0008d	a1 54 00 00 00	 mov	 eax, DWORD PTR ?g_iMetaTable@@3VIMetaTable@@A+84
  00092	ff b0 28 03 00
	00		 push	 DWORD PTR [eax+808]
  00098	ff 52 70	 call	 DWORD PTR [edx+112]
; File D:\git\src\IBK\IBK_DRFN\ProjSrc\SrcChartEx\ChartOCX\AddInManager\Include_AddIn\I000000\_IString.h

; 39   : 		m_pIStrData = p_pIString;	// Do not AddRef(). Because It must be Return Value.

  0009b	89 45 b0	 mov	 DWORD PTR _szGraphName$[ebp+4], eax

; 40   : 		if( m_pIStrData) m_szData = m_pIStrData->GetData();

  0009e	85 c0		 test	 eax, eax
  000a0	74 09		 je	 SHORT $LN32@OnLButtonD
  000a2	8b 10		 mov	 edx, DWORD PTR [eax]
  000a4	8b c8		 mov	 ecx, eax
  000a6	ff 52 10	 call	 DWORD PTR [edx+16]
  000a9	eb 02		 jmp	 SHORT $LN132@OnLButtonD
$LN32@OnLButtonD:

; 41   : 		else m_szData = NULL;

  000ab	33 c0		 xor	 eax, eax
$LN132@OnLButtonD:
; File D:\git\src\IBK\IBK_DRFN\ProjSrc\SrcChartEx\ChartOCX\AddInManager\ChartCommonAddIn\OrderLineAddinImp.cpp

; 463  : 	ILPCSTR szGraphName = m_pIChartManager->FindFirstIndicator( _MTEXT( C2_PRICE_CHART), nR, nC, nV, nG, "DEFAULT");

  000ad	89 45 ac	 mov	 DWORD PTR _szGraphName$[ebp], eax
  000b0	c7 45 fc 00 00
	00 00		 mov	 DWORD PTR __$EHRec$[ebp+8], 0
; File D:\git\src\IBK\IBK_DRFN\ProjSrc\SrcChartEx\ChartOCX\AddInManager\Include_AddIn\I000000\_IString.h

; 57   : 		if( !m_szData) return TRUE;

  000b7	85 c0		 test	 eax, eax
  000b9	0f 84 6d 03 00
	00		 je	 $LN25@OnLButtonD
; File D:\git\src\IBK\IBK_DRFN\ProjSrc\SrcChartEx\ChartOCX\AddInManager\ChartCommonAddIn\OrderLineAddinImp.cpp

; 464  : 	if( szGraphName.IsEmpty()) return FALSE;

  000bf	80 38 00	 cmp	 BYTE PTR [eax], 0
  000c2	0f 84 64 03 00
	00		 je	 $LN25@OnLButtonD

; 465  : 
; 466  : 	// 4. Block  .
; 467  : 	IBlock *pIBlock = NULL;
; 468  : 	pIBlock = m_pIChartManager->GetBlock( nR, nC );

  000c8	8b 4f 1c	 mov	 ecx, DWORD PTR [edi+28]
  000cb	ff 75 bc	 push	 DWORD PTR _nC$[ebp]
  000ce	ff 75 b8	 push	 DWORD PTR _nR$[ebp]
  000d1	8b 01		 mov	 eax, DWORD PTR [ecx]
  000d3	ff 50 38	 call	 DWORD PTR [eax+56]
  000d6	8b d8		 mov	 ebx, eax
  000d8	89 5d b4	 mov	 DWORD PTR _pIBlock$1$[ebp], ebx

; 469  : 	if( !pIBlock )

  000db	85 db		 test	 ebx, ebx
  000dd	0f 84 49 03 00
	00		 je	 $LN25@OnLButtonD

; 474  : 	pIBlock->GetGraphRegions(m_rctGraphRegion, rctNoFrameAndMargin);

  000e3	0f 57 c0	 xorps	 xmm0, xmm0
  000e6	8d 4d e0	 lea	 ecx, DWORD PTR _rctNoFrameAndMargin$[ebp]
; File C:\Program Files (x86)\Microsoft Visual Studio\2019\Community\VC\Tools\MSVC\14.29.30133\atlmfc\include\atltypes.h

; 528  : 	left = 0;

  000e9	0f 11 45 e0	 movups	 XMMWORD PTR _rctNoFrameAndMargin$[ebp], xmm0
; File D:\git\src\IBK\IBK_DRFN\ProjSrc\SrcChartEx\ChartOCX\AddInManager\ChartCommonAddIn\OrderLineAddinImp.cpp

; 474  : 	pIBlock->GetGraphRegions(m_rctGraphRegion, rctNoFrameAndMargin);

  000ed	8b 13		 mov	 edx, DWORD PTR [ebx]
  000ef	8d 87 8c 00 00
	00		 lea	 eax, DWORD PTR [edi+140]
  000f5	51		 push	 ecx
  000f6	50		 push	 eax
  000f7	8b cb		 mov	 ecx, ebx
  000f9	ff 52 10	 call	 DWORD PTR [edx+16]
; File C:\Program Files (x86)\Microsoft Visual Studio\2019\Community\VC\Tools\MSVC\14.29.30133\atlmfc\include\atltypes.h

; 638  : 	return ::IsRectEmpty(this);

  000fc	8d 87 8c 00 00
	00		 lea	 eax, DWORD PTR [edi+140]
  00102	50		 push	 eax
  00103	ff 15 00 00 00
	00		 call	 DWORD PTR __imp__IsRectEmpty@4
; File D:\git\src\IBK\IBK_DRFN\ProjSrc\SrcChartEx\ChartOCX\AddInManager\ChartCommonAddIn\OrderLineAddinImp.cpp

; 475  : 	if( m_rctGraphRegion.IsRectEmpty() )

  00109	85 c0		 test	 eax, eax
  0010b	0f 85 1b 03 00
	00		 jne	 $LN25@OnLButtonD

; 476  : 		return FALSE;
; 477  : 
; 478  : 	// 6. Block Graph Resion .
; 479  : 	m_rctGraphDrawingRegion = pIBlock->GetGraphDrwingRegion();

  00111	8b 03		 mov	 eax, DWORD PTR [ebx]
  00113	8d 4d d0	 lea	 ecx, DWORD PTR $T4[ebp]
  00116	6a 00		 push	 0
  00118	51		 push	 ecx
  00119	8b cb		 mov	 ecx, ebx
  0011b	ff 50 1c	 call	 DWORD PTR [eax+28]
  0011e	8d 8f 9c 00 00
	00		 lea	 ecx, DWORD PTR [edi+156]
; File C:\Program Files (x86)\Microsoft Visual Studio\2019\Community\VC\Tools\MSVC\14.29.30133\atlmfc\include\atltypes.h

; 765  : 	::CopyRect(this, &srcRect);

  00124	50		 push	 eax
  00125	51		 push	 ecx
  00126	ff 15 00 00 00
	00		 call	 DWORD PTR __imp__CopyRect@8

; 638  : 	return ::IsRectEmpty(this);

  0012c	8d 87 9c 00 00
	00		 lea	 eax, DWORD PTR [edi+156]
  00132	50		 push	 eax
  00133	ff 15 00 00 00
	00		 call	 DWORD PTR __imp__IsRectEmpty@4
; File D:\git\src\IBK\IBK_DRFN\ProjSrc\SrcChartEx\ChartOCX\AddInManager\ChartCommonAddIn\OrderLineAddinImp.cpp

; 480  : 	if( m_rctGraphDrawingRegion.IsRectEmpty() )

  00139	85 c0		 test	 eax, eax
  0013b	0f 85 eb 02 00
	00		 jne	 $LN25@OnLButtonD

; 481  : 		return FALSE;
; 482  : 
; 483  : 	// 7.  Block Log/  .
; 484  : 	m_bLog = pIBlock->IsLogScale();

  00141	8b 03		 mov	 eax, DWORD PTR [ebx]
  00143	8b cb		 mov	 ecx, ebx
  00145	ff 50 24	 call	 DWORD PTR [eax+36]

; 485  : 	m_bReverse = pIBlock->IsVScaleInvert( nV);

  00148	ff 75 c0	 push	 DWORD PTR _nV$[ebp]
  0014b	89 47 74	 mov	 DWORD PTR [edi+116], eax
  0014e	8b cb		 mov	 ecx, ebx
  00150	8b 03		 mov	 eax, DWORD PTR [ebx]
  00152	ff 50 58	 call	 DWORD PTR [eax+88]
  00155	89 47 78	 mov	 DWORD PTR [edi+120], eax

; 486  : 	
; 487  : 
; 488  : 	CScaleBaseData::VERTMINMAXTYPE eMinMaxType;
; 489  : 	pIBlock->GetVScaleMinMaxSetting( nV, m_bIsLock, eMinMaxType, m_dViewMin, m_dViewMax);		

  00158	8d 8f d0 00 00
	00		 lea	 ecx, DWORD PTR [edi+208]
  0015e	8b 13		 mov	 edx, DWORD PTR [ebx]
  00160	8d 87 d8 00 00
	00		 lea	 eax, DWORD PTR [edi+216]
  00166	50		 push	 eax
  00167	51		 push	 ecx
  00168	8d 45 a4	 lea	 eax, DWORD PTR _eMinMaxType$[ebp]
  0016b	8b cb		 mov	 ecx, ebx
  0016d	50		 push	 eax
  0016e	8d 87 80 00 00
	00		 lea	 eax, DWORD PTR [edi+128]
  00174	50		 push	 eax
  00175	ff 75 c0	 push	 DWORD PTR _nV$[ebp]
  00178	ff 52 50	 call	 DWORD PTR [edx+80]
; File C:\Program Files (x86)\Microsoft Visual Studio\2019\Community\VC\Tools\MSVC\14.29.30133\atlmfc\include\atltypes.h

; 648  : 	return ::PtInRect(this, point);

  0017b	ff 76 04	 push	 DWORD PTR [esi+4]
  0017e	8b 1d 00 00 00
	00		 mov	 ebx, DWORD PTR __imp__PtInRect@12
  00184	8d 87 8c 00 00
	00		 lea	 eax, DWORD PTR [edi+140]
  0018a	ff 36		 push	 DWORD PTR [esi]
  0018c	50		 push	 eax
  0018d	ff d3		 call	 ebx
; File D:\git\src\IBK\IBK_DRFN\ProjSrc\SrcChartEx\ChartOCX\AddInManager\ChartCommonAddIn\OrderLineAddinImp.cpp

; 492  : 	if( m_rctGraphRegion.PtInRect( point) ) //  

  0018f	85 c0		 test	 eax, eax
  00191	74 63		 je	 SHORT $LN14@OnLButtonD

; 493  : 	{			
; 494  : 		COrderLine* pOrderLine_Find = NULL;
; 495  : 		POSITION pos = m_OrderLineList.GetHeadPosition();

  00193	8b 5f 5c	 mov	 ebx, DWORD PTR [edi+92]

; 496  : 		BOOL bOnLine = FALSE;
; 497  : 		while(pos)

  00196	85 db		 test	 ebx, ebx
  00198	74 56		 je	 SHORT $LN130@OnLButtonD
  0019a	66 0f 1f 44 00
	00		 npad	 6
$LL2@OnLButtonD:

; 498  : 		{
; 499  : 			pOrderLine_Find = (COrderLine*)m_OrderLineList.GetNext(pos);

  001a0	8b 73 08	 mov	 esi, DWORD PTR [ebx+8]
; File C:\Program Files (x86)\Microsoft Visual Studio\2019\Community\VC\Tools\MSVC\14.29.30133\atlmfc\include\afxcoll.inl

; 432  : 		rPosition = (POSITION) pNode->pNext;

  001a3	8b 1b		 mov	 ebx, DWORD PTR [ebx]
; File D:\git\src\IBK\IBK_DRFN\ProjSrc\SrcChartEx\ChartOCX\AddInManager\ChartCommonAddIn\OrderLineAddinImp.cpp

; 500  : 			if(pOrderLine_Find && pOrderLine_Find->IsInRegion(point))

  001a5	85 f6		 test	 esi, esi
  001a7	74 40		 je	 SHORT $LN12@OnLButtonD
; File C:\Program Files (x86)\Microsoft Visual Studio\2019\Community\VC\Tools\MSVC\14.29.30133\atlmfc\include\atltypes.h

; 414  : 	*(POINT*)this = initPt;

  001a9	8b 45 cc	 mov	 eax, DWORD PTR _point$GSCopy$1$[ebp]
; File D:\git\src\IBK\IBK_DRFN\ProjSrc\SrcChartEx\ChartOCX\AddInManager\ChartCommonAddIn\OrderLineAddinImp.cpp

; 243  : 	if(m_rctLine.PtInRect(pt))

  001ac	8d 96 80 00 00
	00		 lea	 edx, DWORD PTR [esi+128]
; File C:\Program Files (x86)\Microsoft Visual Studio\2019\Community\VC\Tools\MSVC\14.29.30133\atlmfc\include\atltypes.h

; 414  : 	*(POINT*)this = initPt;

  001b2	8b 08		 mov	 ecx, DWORD PTR [eax]
  001b4	8b 40 04	 mov	 eax, DWORD PTR [eax+4]

; 648  : 	return ::PtInRect(this, point);

  001b7	50		 push	 eax
  001b8	51		 push	 ecx
  001b9	52		 push	 edx

; 414  : 	*(POINT*)this = initPt;

  001ba	89 4d c4	 mov	 DWORD PTR tv1016[ebp], ecx
  001bd	89 45 c8	 mov	 DWORD PTR tv1015[ebp], eax

; 648  : 	return ::PtInRect(this, point);

  001c0	ff 15 00 00 00
	00		 call	 DWORD PTR __imp__PtInRect@12
; File D:\git\src\IBK\IBK_DRFN\ProjSrc\SrcChartEx\ChartOCX\AddInManager\ChartCommonAddIn\OrderLineAddinImp.cpp

; 243  : 	if(m_rctLine.PtInRect(pt))

  001c6	85 c0		 test	 eax, eax
  001c8	0f 85 e3 00 00
	00		 jne	 $LN126@OnLButtonD
; File C:\Program Files (x86)\Microsoft Visual Studio\2019\Community\VC\Tools\MSVC\14.29.30133\atlmfc\include\atltypes.h

; 648  : 	return ::PtInRect(this, point);

  001ce	ff 75 c8	 push	 DWORD PTR tv1015[ebp]
; File D:\git\src\IBK\IBK_DRFN\ProjSrc\SrcChartEx\ChartOCX\AddInManager\ChartCommonAddIn\OrderLineAddinImp.cpp

; 250  : 	if(m_rctTable.PtInRect(pt))

  001d1	8d 86 90 00 00
	00		 lea	 eax, DWORD PTR [esi+144]
; File C:\Program Files (x86)\Microsoft Visual Studio\2019\Community\VC\Tools\MSVC\14.29.30133\atlmfc\include\atltypes.h

; 648  : 	return ::PtInRect(this, point);

  001d7	ff 75 c4	 push	 DWORD PTR tv1016[ebp]
  001da	50		 push	 eax
  001db	ff 15 00 00 00
	00		 call	 DWORD PTR __imp__PtInRect@12
; File D:\git\src\IBK\IBK_DRFN\ProjSrc\SrcChartEx\ChartOCX\AddInManager\ChartCommonAddIn\OrderLineAddinImp.cpp

; 250  : 	if(m_rctTable.PtInRect(pt))

  001e1	85 c0		 test	 eax, eax
  001e3	0f 85 c8 00 00
	00		 jne	 $LN126@OnLButtonD
$LN12@OnLButtonD:

; 496  : 		BOOL bOnLine = FALSE;
; 497  : 		while(pos)

  001e9	85 db		 test	 ebx, ebx
  001eb	75 b3		 jne	 SHORT $LL2@OnLButtonD
  001ed	8b 75 cc	 mov	 esi, DWORD PTR _point$GSCopy$1$[ebp]
$LN130@OnLButtonD:

; 520  : 	}	
; 521  : 	double dYValue;
; 522  : 	dYValue = m_pIChartOCX->ConvertYPositionToData( point.y, m_rctGraphDrawingRegion.top, m_rctGraphDrawingRegion.bottom, m_dViewMax, m_dViewMin, m_bLog, m_bReverse);

  001f0	8b 1d 00 00 00
	00		 mov	 ebx, DWORD PTR __imp__PtInRect@12
$LN14@OnLButtonD:
  001f6	ff 77 78	 push	 DWORD PTR [edi+120]
  001f9	f2 0f 10 87 d0
	00 00 00	 movsd	 xmm0, QWORD PTR [edi+208]
  00201	ff 77 74	 push	 DWORD PTR [edi+116]
  00204	8b 4f 04	 mov	 ecx, DWORD PTR [edi+4]
  00207	83 ec 10	 sub	 esp, 16			; 00000010H
  0020a	8b 01		 mov	 eax, DWORD PTR [ecx]
  0020c	f2 0f 11 44 24
	08		 movsd	 QWORD PTR [esp+8], xmm0
  00212	f2 0f 10 87 d8
	00 00 00	 movsd	 xmm0, QWORD PTR [edi+216]
  0021a	f2 0f 11 04 24	 movsd	 QWORD PTR [esp], xmm0
  0021f	ff b7 a8 00 00
	00		 push	 DWORD PTR [edi+168]
  00225	8b 80 30 01 00
	00		 mov	 eax, DWORD PTR [eax+304]
  0022b	ff b7 a0 00 00
	00		 push	 DWORD PTR [edi+160]
  00231	ff 76 04	 push	 DWORD PTR [esi+4]
  00234	ff d0		 call	 eax

; 523  : 	m_nSelecteYValue = point.y;

  00236	8b 46 04	 mov	 eax, DWORD PTR [esi+4]
  00239	dd d8		 fstp	 ST(0)
  0023b	89 87 e0 00 00
	00		 mov	 DWORD PTR [edi+224], eax

; 524  : 
; 525  : 	
; 526  : //	BOOL bDoOrder = FALSE;	
; 527  : 	
; 528  : 	if(m_nSelecteYValue < m_rctGraphRegion.top || m_nSelecteYValue > m_rctGraphRegion.bottom)

  00241	3b 87 90 00 00
	00		 cmp	 eax, DWORD PTR [edi+144]
  00247	0f 8c df 01 00
	00		 jl	 $LN25@OnLButtonD
  0024d	3b 87 98 00 00
	00		 cmp	 eax, DWORD PTR [edi+152]
  00253	0f 8f d3 01 00
	00		 jg	 $LN25@OnLButtonD
; File C:\Program Files (x86)\Microsoft Visual Studio\2019\Community\VC\Tools\MSVC\14.29.30133\atlmfc\include\atltypes.h

; 648  : 	return ::PtInRect(this, point);

  00259	ff 76 04	 push	 DWORD PTR [esi+4]
; File D:\git\src\IBK\IBK_DRFN\ProjSrc\SrcChartEx\ChartOCX\AddInManager\ChartCommonAddIn\OrderLineAddinImp.cpp

; 531  : 	if(/*bDoOrder &&*/ (m_rctLVScaleRegion.PtInRect( point) || m_rctRVScaleRegion.PtInRect( point)))//  

  0025c	8d 87 ac 00 00
	00		 lea	 eax, DWORD PTR [edi+172]
; File C:\Program Files (x86)\Microsoft Visual Studio\2019\Community\VC\Tools\MSVC\14.29.30133\atlmfc\include\atltypes.h

; 648  : 	return ::PtInRect(this, point);

  00262	ff 36		 push	 DWORD PTR [esi]
  00264	50		 push	 eax
  00265	ff d3		 call	 ebx
; File D:\git\src\IBK\IBK_DRFN\ProjSrc\SrcChartEx\ChartOCX\AddInManager\ChartCommonAddIn\OrderLineAddinImp.cpp

; 531  : 	if(/*bDoOrder &&*/ (m_rctLVScaleRegion.PtInRect( point) || m_rctRVScaleRegion.PtInRect( point)))//  

  00267	85 c0		 test	 eax, eax
  00269	75 0e		 jne	 SHORT $LN18@OnLButtonD
; File C:\Program Files (x86)\Microsoft Visual Studio\2019\Community\VC\Tools\MSVC\14.29.30133\atlmfc\include\atltypes.h

; 648  : 	return ::PtInRect(this, point);

  0026b	ff 76 04	 push	 DWORD PTR [esi+4]
; File D:\git\src\IBK\IBK_DRFN\ProjSrc\SrcChartEx\ChartOCX\AddInManager\ChartCommonAddIn\OrderLineAddinImp.cpp

; 531  : 	if(/*bDoOrder &&*/ (m_rctLVScaleRegion.PtInRect( point) || m_rctRVScaleRegion.PtInRect( point)))//  

  0026e	8d 87 bc 00 00
	00		 lea	 eax, DWORD PTR [edi+188]
; File C:\Program Files (x86)\Microsoft Visual Studio\2019\Community\VC\Tools\MSVC\14.29.30133\atlmfc\include\atltypes.h

; 648  : 	return ::PtInRect(this, point);

  00274	ff 36		 push	 DWORD PTR [esi]
  00276	50		 push	 eax
  00277	ff d3		 call	 ebx
$LN18@OnLButtonD:
; File D:\git\src\IBK\IBK_DRFN\ProjSrc\SrcChartEx\ChartOCX\AddInManager\ChartCommonAddIn\OrderLineAddinImp.cpp

; 550  : 	pIBlock->Release();

  00279	8b 4d b4	 mov	 ecx, DWORD PTR _pIBlock$1$[ebp]
  0027c	51		 push	 ecx
  0027d	8b 01		 mov	 eax, DWORD PTR [ecx]
  0027f	ff 50 08	 call	 DWORD PTR [eax+8]

; 551  : 	pIBlock = NULL;	
; 552  : 
; 553  : 
; 554  : 	//PAN//////////	
; 555  : 	m_bLButtonDown = TRUE;
; 556  : 	if( OnLButtonDownForYZoom( p_hDC, nFlags, point, p_dwMouseActionID))

  00282	8b 5d 14	 mov	 ebx, DWORD PTR _p_dwMouseActionID$[ebp]
  00285	8d 4f f8	 lea	 ecx, DWORD PTR [edi-8]
  00288	53		 push	 ebx
  00289	56		 push	 esi
  0028a	ff 75 0c	 push	 DWORD PTR _nFlags$[ebp]
  0028d	c7 87 10 01 00
	00 01 00 00 00	 mov	 DWORD PTR [edi+272], 1
  00297	ff 75 08	 push	 DWORD PTR _p_hDC$[ebp]
  0029a	e8 00 00 00 00	 call	 ?OnLButtonDownForYZoom@COrderLineAddInImp@@IAEHPAUHDC__@@IAAUtagPOINT@@K@Z ; COrderLineAddInImp::OnLButtonDownForYZoom
  0029f	85 c0		 test	 eax, eax
  002a1	0f 84 be 00 00
	00		 je	 $LN19@OnLButtonD

; 557  : 		return TRUE;

  002a7	be 01 00 00 00	 mov	 esi, 1
  002ac	e9 7d 01 00 00	 jmp	 $LN26@OnLButtonD
$LN126@OnLButtonD:
; File C:\Program Files (x86)\Microsoft Visual Studio\2019\Community\VC\Tools\MSVC\14.29.30133\atlmfc\include\atltypes.h

; 414  : 	*(POINT*)this = initPt;

  002b1	8b 45 cc	 mov	 eax, DWORD PTR _point$GSCopy$1$[ebp]
; File D:\git\src\IBK\IBK_DRFN\ProjSrc\SrcChartEx\ChartOCX\AddInManager\ChartCommonAddIn\OrderLineAddinImp.cpp

; 503  : 				m_pSelectedOrderLine = pOrderLine_Find;

  002b4	8d 8e 90 00 00
	00		 lea	 ecx, DWORD PTR [esi+144]
; File C:\Program Files (x86)\Microsoft Visual Studio\2019\Community\VC\Tools\MSVC\14.29.30133\atlmfc\include\atltypes.h

; 648  : 	return ::PtInRect(this, point);

  002ba	8b 1d 00 00 00
	00		 mov	 ebx, DWORD PTR __imp__PtInRect@12
; File D:\git\src\IBK\IBK_DRFN\ProjSrc\SrcChartEx\ChartOCX\AddInManager\ChartCommonAddIn\OrderLineAddinImp.cpp

; 503  : 				m_pSelectedOrderLine = pOrderLine_Find;

  002c0	89 77 38	 mov	 DWORD PTR [edi+56], esi
; File C:\Program Files (x86)\Microsoft Visual Studio\2019\Community\VC\Tools\MSVC\14.29.30133\atlmfc\include\atltypes.h

; 414  : 	*(POINT*)this = initPt;

  002c3	8b 10		 mov	 edx, DWORD PTR [eax]
  002c5	8b 40 04	 mov	 eax, DWORD PTR [eax+4]

; 648  : 	return ::PtInRect(this, point);

  002c8	50		 push	 eax
  002c9	52		 push	 edx
  002ca	51		 push	 ecx

; 414  : 	*(POINT*)this = initPt;

  002cb	89 55 c8	 mov	 DWORD PTR $T3[ebp], edx
  002ce	89 45 c4	 mov	 DWORD PTR $T2[ebp], eax
; File D:\git\src\IBK\IBK_DRFN\ProjSrc\SrcChartEx\ChartOCX\AddInManager\ChartCommonAddIn\OrderLineAddinImp.cpp

; 311  : 	m_ptLBtnDown = pt;

  002d1	89 96 c8 00 00
	00		 mov	 DWORD PTR [esi+200], edx
  002d7	89 86 cc 00 00
	00		 mov	 DWORD PTR [esi+204], eax
; File C:\Program Files (x86)\Microsoft Visual Studio\2019\Community\VC\Tools\MSVC\14.29.30133\atlmfc\include\atltypes.h

; 648  : 	return ::PtInRect(this, point);

  002dd	ff d3		 call	 ebx
; File D:\git\src\IBK\IBK_DRFN\ProjSrc\SrcChartEx\ChartOCX\AddInManager\ChartCommonAddIn\OrderLineAddinImp.cpp

; 250  : 	if(m_rctTable.PtInRect(pt))

  002df	85 c0		 test	 eax, eax
  002e1	74 0c		 je	 SHORT $LN74@OnLButtonD

; 314  : 		m_nCurClickedPos = CLICKEDPOS_TABLE;

  002e3	c7 86 00 01 00
	00 02 00 00 00	 mov	 DWORD PTR [esi+256], 2
  002ed	eb 1b		 jmp	 SHORT $LN76@OnLButtonD
$LN74@OnLButtonD:
; File C:\Program Files (x86)\Microsoft Visual Studio\2019\Community\VC\Tools\MSVC\14.29.30133\atlmfc\include\atltypes.h

; 648  : 	return ::PtInRect(this, point);

  002ef	ff 75 c4	 push	 DWORD PTR $T2[ebp]
  002f2	8d 86 80 00 00
	00		 lea	 eax, DWORD PTR [esi+128]
  002f8	ff 75 c8	 push	 DWORD PTR $T3[ebp]
  002fb	50		 push	 eax
  002fc	ff d3		 call	 ebx
; File D:\git\src\IBK\IBK_DRFN\ProjSrc\SrcChartEx\ChartOCX\AddInManager\ChartCommonAddIn\OrderLineAddinImp.cpp

; 243  : 	if(m_rctLine.PtInRect(pt))

  002fe	f7 d8		 neg	 eax
  00300	1b c0		 sbb	 eax, eax
  00302	f7 d8		 neg	 eax
  00304	89 86 00 01 00
	00		 mov	 DWORD PTR [esi+256], eax
$LN76@OnLButtonD:

; 504  : 				m_pSelectedOrderLine->MouseLButtonDown(point);
; 505  : 				
; 506  : 				m_bOnSetCaprture = TRUE;
; 507  : 				SetMouseCursor(IDC_MOVE4WAY);

  0030a	68 d4 00 00 00	 push	 212			; 000000d4H
  0030f	8d 4f f8	 lea	 ecx, DWORD PTR [edi-8]
  00312	c7 87 84 00 00
	00 01 00 00 00	 mov	 DWORD PTR [edi+132], 1
  0031c	e8 00 00 00 00	 call	 ?SetMouseCursor@COrderLineAddInImp@@QAEXH@Z ; COrderLineAddInImp::SetMouseCursor

; 508  : 
; 509  : 				if(m_pSelectedOrderLine)

  00321	8b 47 38	 mov	 eax, DWORD PTR [edi+56]
  00324	85 c0		 test	 eax, eax
  00326	74 0a		 je	 SHORT $LN13@OnLButtonD

; 510  : 					m_pSelectedOrderLine->m_bSelected = FALSE;

  00328	c7 40 18 00 00
	00 00		 mov	 DWORD PTR [eax+24], 0
  0032f	8b 47 38	 mov	 eax, DWORD PTR [edi+56]
$LN13@OnLButtonD:

; 511  : 				POSITION posCur = m_OrderLineList.Find((CObject*)m_pSelectedOrderLine);

  00332	6a 00		 push	 0
  00334	50		 push	 eax
  00335	8d 4f 58	 lea	 ecx, DWORD PTR [edi+88]
  00338	e8 00 00 00 00	 call	 ?Find@CObList@@QBEPAU__POSITION@@PAVCObject@@PAU2@@Z ; CObList::Find

; 512  : 				m_OrderLineList.RemoveAt(posCur);

  0033d	50		 push	 eax
  0033e	8d 4f 58	 lea	 ecx, DWORD PTR [edi+88]
  00341	e8 00 00 00 00	 call	 ?RemoveAt@CObList@@QAEXPAU__POSITION@@@Z ; CObList::RemoveAt

; 513  : 				m_OrderLineList.AddTail((CObject*)m_pSelectedOrderLine);

  00346	ff 77 38	 push	 DWORD PTR [edi+56]
  00349	8d 4f 58	 lea	 ecx, DWORD PTR [edi+88]
  0034c	e8 00 00 00 00	 call	 ?AddTail@CObList@@QAEPAU__POSITION@@PAVCObject@@@Z ; CObList::AddTail

; 514  : 				m_pSelectedOrderLine->m_bSelected = TRUE;				

  00351	8b 47 38	 mov	 eax, DWORD PTR [edi+56]

; 515  : 				break;
; 516  : 			}
; 517  : 		}		
; 518  : 		if(bOnLine)
; 519  : 		return TRUE;

  00354	be 01 00 00 00	 mov	 esi, 1
  00359	c7 40 18 01 00
	00 00		 mov	 DWORD PTR [eax+24], 1
  00360	e9 c9 00 00 00	 jmp	 $LN26@OnLButtonD
$LN19@OnLButtonD:
  00365	66 0f 6e c3	 movd	 xmm0, ebx

; 558  : 
; 559  : 	m_dwMouseActionID = p_dwMouseActionID;

  00369	f3 0f e6 c0	 cvtdq2pd xmm0, xmm0
  0036d	c1 eb 1f	 shr	 ebx, 31			; 0000001fH
  00370	f2 0f 58 04 dd
	00 00 00 00	 addsd	 xmm0, QWORD PTR __xmm@41f00000000000000000000000000000[ebx*8]

; 562  : 	if( !m_pIChartOCX->GetViewStartEndIndex( m_nStartIndex, m_nEndIndex ))

  00379	8d 9f 08 01 00
	00		 lea	 ebx, DWORD PTR [edi+264]
  0037f	f2 0f 11 87 f0
	00 00 00	 movsd	 QWORD PTR [edi+240], xmm0
; File C:\Program Files (x86)\Microsoft Visual Studio\2019\Community\VC\Tools\MSVC\14.29.30133\atlmfc\include\atltypes.h

; 414  : 	*(POINT*)this = initPt;

  00387	8b 06		 mov	 eax, DWORD PTR [esi]
  00389	8b 4e 04	 mov	 ecx, DWORD PTR [esi+4]
; File D:\git\src\IBK\IBK_DRFN\ProjSrc\SrcChartEx\ChartOCX\AddInManager\ChartCommonAddIn\OrderLineAddinImp.cpp

; 562  : 	if( !m_pIChartOCX->GetViewStartEndIndex( m_nStartIndex, m_nEndIndex ))

  0038c	8d b7 0c 01 00
	00		 lea	 esi, DWORD PTR [edi+268]
  00392	89 8f 18 01 00
	00		 mov	 DWORD PTR [edi+280], ecx
  00398	8b 4f 04	 mov	 ecx, DWORD PTR [edi+4]
  0039b	89 87 14 01 00
	00		 mov	 DWORD PTR [edi+276], eax
  003a1	56		 push	 esi
  003a2	53		 push	 ebx
  003a3	8b 01		 mov	 eax, DWORD PTR [ecx]
  003a5	ff 90 24 01 00
	00		 call	 DWORD PTR [eax+292]
  003ab	85 c0		 test	 eax, eax
  003ad	74 7d		 je	 SHORT $LN25@OnLButtonD

; 565  : 	int nDataOnPage = m_nEndIndex - m_nStartIndex + 1;

  003af	8b 0e		 mov	 ecx, DWORD PTR [esi]
  003b1	2b 0b		 sub	 ecx, DWORD PTR [ebx]
; File C:\Program Files (x86)\Microsoft Visual Studio\2019\Community\VC\Tools\MSVC\14.29.30133\atlmfc\include\atltypes.h

; 576  : 	return right - left;

  003b3	8b 87 a4 00 00
	00		 mov	 eax, DWORD PTR [edi+164]
; File D:\git\src\IBK\IBK_DRFN\ProjSrc\SrcChartEx\ChartOCX\AddInManager\ChartCommonAddIn\OrderLineAddinImp.cpp

; 565  : 	int nDataOnPage = m_nEndIndex - m_nStartIndex + 1;

  003b9	41		 inc	 ecx
; File C:\Program Files (x86)\Microsoft Visual Studio\2019\Community\VC\Tools\MSVC\14.29.30133\atlmfc\include\atltypes.h

; 576  : 	return right - left;

  003ba	2b 87 9c 00 00
	00		 sub	 eax, DWORD PTR [edi+156]
; File D:\git\src\IBK\IBK_DRFN\ProjSrc\SrcChartEx\ChartOCX\AddInManager\ChartCommonAddIn\OrderLineAddinImp.cpp

; 568  : 	m_dPanStart = m_pIChartOCX->ConvertYPositionToData( m_ptPanStart.y, m_rctGraphDrawingRegion.top, m_rctGraphDrawingRegion.bottom, m_dViewMax, m_dViewMin, m_bLog, m_bReverse);

  003c0	ff 77 78	 push	 DWORD PTR [edi+120]
  003c3	66 0f 6e c1	 movd	 xmm0, ecx
  003c7	66 0f 6e c8	 movd	 xmm1, eax
  003cb	f3 0f e6 c0	 cvtdq2pd xmm0, xmm0
  003cf	8b 4f 04	 mov	 ecx, DWORD PTR [edi+4]
  003d2	f3 0f e6 c9	 cvtdq2pd xmm1, xmm1
  003d6	ff 77 74	 push	 DWORD PTR [edi+116]
  003d9	f2 0f 5e c8	 divsd	 xmm1, xmm0
  003dd	83 ec 10	 sub	 esp, 16			; 00000010H
  003e0	f2 0f 10 87 d0
	00 00 00	 movsd	 xmm0, QWORD PTR [edi+208]
  003e8	f2 0f 11 44 24
	08		 movsd	 QWORD PTR [esp+8], xmm0
  003ee	f2 0f 10 87 d8
	00 00 00	 movsd	 xmm0, QWORD PTR [edi+216]
  003f6	f2 0f 11 04 24	 movsd	 QWORD PTR [esp], xmm0
  003fb	ff b7 a8 00 00
	00		 push	 DWORD PTR [edi+168]
  00401	f2 0f 11 8f 00
	01 00 00	 movsd	 QWORD PTR [edi+256], xmm1
  00409	8b 01		 mov	 eax, DWORD PTR [ecx]
  0040b	ff b7 a0 00 00
	00		 push	 DWORD PTR [edi+160]
  00411	ff b7 18 01 00
	00		 push	 DWORD PTR [edi+280]
  00417	8b 80 30 01 00
	00		 mov	 eax, DWORD PTR [eax+304]
  0041d	ff d0		 call	 eax
  0041f	dd 9f f8 00 00
	00		 fstp	 QWORD PTR [edi+248]

; 571  : 	return TRUE;

  00425	be 01 00 00 00	 mov	 esi, 1
  0042a	eb 02		 jmp	 SHORT $LN26@OnLButtonD
$LN25@OnLButtonD:
; File D:\git\src\IBK\IBK_DRFN\ProjSrc\SrcChartEx\ChartOCX\AddInManager\Include_AddIn\I000000\_IString.h

; 44   : 	{

  0042c	33 f6		 xor	 esi, esi
$LN26@OnLButtonD:

; 45   : 		if( m_pIStrData)

  0042e	8b 45 b0	 mov	 eax, DWORD PTR _szGraphName$[ebp+4]
  00431	c7 45 fc 01 00
	00 00		 mov	 DWORD PTR __$EHRec$[ebp+8], 1
  00438	85 c0		 test	 eax, eax
  0043a	74 06		 je	 SHORT $LN100@OnLButtonD

; 46   : 		{
; 47   : 			m_pIStrData->Release();

  0043c	8b 08		 mov	 ecx, DWORD PTR [eax]
  0043e	50		 push	 eax
  0043f	ff 51 08	 call	 DWORD PTR [ecx+8]
$LN100@OnLButtonD:
; File D:\git\src\IBK\IBK_DRFN\ProjSrc\SrcChartEx\ChartOCX\AddInManager\ChartCommonAddIn\OrderLineAddinImp.cpp

; 571  : 	return TRUE;

  00442	8b c6		 mov	 eax, esi
  00444	eb 02		 jmp	 SHORT $LN1@OnLButtonD
$LN6@OnLButtonD:

; 459  : 		return FALSE;

  00446	33 c0		 xor	 eax, eax
$LN1@OnLButtonD:

; 572  : }

  00448	8b 4d f4	 mov	 ecx, DWORD PTR __$EHRec$[ebp]
  0044b	64 89 0d 00 00
	00 00		 mov	 DWORD PTR fs:0, ecx
  00452	59		 pop	 ecx
  00453	5f		 pop	 edi
  00454	5e		 pop	 esi
  00455	5b		 pop	 ebx
  00456	8b 4d f0	 mov	 ecx, DWORD PTR __$ArrayPad$[ebp]
  00459	33 cd		 xor	 ecx, ebp
  0045b	e8 00 00 00 00	 call	 @__security_check_cookie@4
  00460	8b e5		 mov	 esp, ebp
  00462	5d		 pop	 ebp
  00463	c2 10 00	 ret	 16			; 00000010H
_TEXT	ENDS
;	COMDAT text$x
text$x	SEGMENT
__unwindfunclet$?OnLButtonDown@COrderLineAddInImp@@MAEHPAUHDC__@@IAAUtagPOINT@@K@Z$0:
  00000	8d 4d ac	 lea	 ecx, DWORD PTR _szGraphName$[ebp]
  00003	e9 00 00 00 00	 jmp	 ??1ILPCSTR000000@@QAE@XZ ; ILPCSTR000000::~ILPCSTR000000
  00008	cc		 int	 3
  00009	cc		 int	 3
  0000a	cc		 int	 3
  0000b	cc		 int	 3
  0000c	cc		 int	 3
__ehhandler$?OnLButtonDown@COrderLineAddInImp@@MAEHPAUHDC__@@IAAUtagPOINT@@K@Z:
  0000d	90		 npad	 1
  0000e	90		 npad	 1
  0000f	8b 54 24 08	 mov	 edx, DWORD PTR [esp+8]
  00013	8d 42 0c	 lea	 eax, DWORD PTR [edx+12]
  00016	8b 4a a0	 mov	 ecx, DWORD PTR [edx-96]
  00019	33 c8		 xor	 ecx, eax
  0001b	e8 00 00 00 00	 call	 @__security_check_cookie@4
  00020	8b 4a fc	 mov	 ecx, DWORD PTR [edx-4]
  00023	33 c8		 xor	 ecx, eax
  00025	e8 00 00 00 00	 call	 @__security_check_cookie@4
  0002a	b8 00 00 00 00	 mov	 eax, OFFSET __ehfuncinfo$?OnLButtonDown@COrderLineAddInImp@@MAEHPAUHDC__@@IAAUtagPOINT@@K@Z
  0002f	e9 00 00 00 00	 jmp	 ___CxxFrameHandler3
text$x	ENDS
?OnLButtonDown@COrderLineAddInImp@@MAEHPAUHDC__@@IAAUtagPOINT@@K@Z ENDP ; COrderLineAddInImp::OnLButtonDown
; Function compile flags: /Ogtp
; File D:\git\src\IBK\IBK_DRFN\ProjSrc\SrcChartEx\ChartOCX\AddInManager\ChartCommonAddIn\OrderLineAddinImp.cpp
; File C:\Program Files (x86)\Microsoft Visual Studio\2019\Community\VC\Tools\MSVC\14.29.30133\atlmfc\include\afxwin2.inl
; File D:\git\src\IBK\IBK_DRFN\ProjSrc\SrcChartEx\ChartOCX\AddInManager\ChartCommonAddIn\OrderLineAddinImp.cpp
; File C:\Program Files (x86)\Microsoft Visual Studio\2019\Community\VC\Tools\MSVC\14.29.30133\atlmfc\include\atltypes.h
; File D:\git\src\IBK\IBK_DRFN\ProjSrc\SrcChartEx\ChartOCX\AddInManager\ChartCommonAddIn\OrderLineAddinImp.cpp
; File D:\git\src\IBK\IBK_DRFN\ProjSrc\SrcChartEx\ChartOCX\AddInManager\Include_AddIn\I000000\_IString.h
; File D:\git\src\IBK\IBK_DRFN\ProjSrc\SrcChartEx\ChartOCX\AddInManager\ChartCommonAddIn\OrderLineAddinImp.cpp
; File D:\git\src\IBK\IBK_DRFN\ProjSrc\SrcChartEx\ChartOCX\AddInManager\Include_AddIn\I000000\_IString.h
; File D:\git\src\IBK\IBK_DRFN\ProjSrc\SrcChartEx\ChartOCX\AddInManager\ChartCommonAddIn\OrderLineAddinImp.cpp
; File C:\Program Files (x86)\Microsoft Visual Studio\2019\Community\VC\Tools\MSVC\14.29.30133\atlmfc\include\atltypes.h
; File D:\git\src\IBK\IBK_DRFN\ProjSrc\SrcChartEx\ChartOCX\AddInManager\ChartCommonAddIn\OrderLineAddinImp.cpp
; File C:\Program Files (x86)\Microsoft Visual Studio\2019\Community\VC\Tools\MSVC\14.29.30133\atlmfc\include\atltypes.h
; File D:\git\src\IBK\IBK_DRFN\ProjSrc\SrcChartEx\ChartOCX\AddInManager\ChartCommonAddIn\OrderLineAddinImp.cpp
; File C:\Program Files (x86)\Microsoft Visual Studio\2019\Community\VC\Tools\MSVC\14.29.30133\atlmfc\include\atltypes.h
; File D:\git\src\IBK\IBK_DRFN\ProjSrc\SrcChartEx\ChartOCX\AddInManager\ChartCommonAddIn\OrderLineAddinImp.cpp
; File C:\Program Files (x86)\Microsoft Visual Studio\2019\Community\VC\Tools\MSVC\14.29.30133\atlmfc\include\atltypes.h
; File D:\git\src\IBK\IBK_DRFN\ProjSrc\SrcChartEx\ChartOCX\AddInManager\ChartCommonAddIn\OrderLineAddinImp.cpp
; File C:\Program Files (x86)\Microsoft Visual Studio\2019\Community\VC\Tools\MSVC\14.29.30133\atlmfc\include\afxwin2.inl
; File D:\git\src\IBK\IBK_DRFN\ProjSrc\SrcChartEx\ChartOCX\AddInManager\ChartCommonAddIn\OrderLineAddinImp.cpp
; File C:\Program Files (x86)\Microsoft Visual Studio\2019\Community\VC\Tools\MSVC\14.29.30133\atlmfc\include\atltypes.h
; File D:\git\src\IBK\IBK_DRFN\ProjSrc\SrcChartEx\ChartOCX\AddInManager\ChartCommonAddIn\OrderLineAddinImp.cpp
; File C:\Program Files (x86)\Microsoft Visual Studio\2019\Community\VC\Tools\MSVC\14.29.30133\atlmfc\include\atltypes.h
; File D:\git\src\IBK\IBK_DRFN\ProjSrc\SrcChartEx\ChartOCX\AddInManager\ChartCommonAddIn\OrderLineAddinImp.cpp
; File C:\Program Files (x86)\Microsoft Visual Studio\2019\Community\VC\Tools\MSVC\14.29.30133\atlmfc\include\atltypes.h
; File D:\git\src\IBK\IBK_DRFN\ProjSrc\SrcChartEx\ChartOCX\AddInManager\ChartCommonAddIn\OrderLineAddinImp.cpp
; File C:\Program Files (x86)\Microsoft Visual Studio\2019\Community\VC\Tools\MSVC\14.29.30133\atlmfc\include\atltypes.h
; File D:\git\src\IBK\IBK_DRFN\ProjSrc\SrcChartEx\ChartOCX\AddInManager\ChartCommonAddIn\OrderLineAddinImp.cpp
; File C:\Program Files (x86)\Microsoft Visual Studio\2019\Community\VC\Tools\MSVC\14.29.30133\atlmfc\include\afxcoll.inl
; File D:\git\src\IBK\IBK_DRFN\ProjSrc\SrcChartEx\ChartOCX\AddInManager\ChartCommonAddIn\OrderLineAddinImp.cpp
; File C:\Program Files (x86)\Microsoft Visual Studio\2019\Community\VC\Tools\MSVC\14.29.30133\atlmfc\include\atltypes.h
; File D:\git\src\IBK\IBK_DRFN\ProjSrc\SrcChartEx\ChartOCX\AddInManager\ChartCommonAddIn\OrderLineAddinImp.cpp
; File C:\Program Files (x86)\Microsoft Visual Studio\2019\Community\VC\Tools\MSVC\14.29.30133\atlmfc\include\atltypes.h
; File D:\git\src\IBK\IBK_DRFN\ProjSrc\SrcChartEx\ChartOCX\AddInManager\ChartCommonAddIn\OrderLineAddinImp.cpp
; File C:\Program Files (x86)\Microsoft Visual Studio\2019\Community\VC\Tools\MSVC\14.29.30133\atlmfc\include\atltypes.h
; File D:\git\src\IBK\IBK_DRFN\ProjSrc\SrcChartEx\ChartOCX\AddInManager\ChartCommonAddIn\OrderLineAddinImp.cpp
; File C:\Program Files (x86)\Microsoft Visual Studio\2019\Community\VC\Tools\MSVC\14.29.30133\atlmfc\include\atltypes.h
; File D:\git\src\IBK\IBK_DRFN\ProjSrc\SrcChartEx\ChartOCX\AddInManager\ChartCommonAddIn\OrderLineAddinImp.cpp
; File C:\Program Files (x86)\Microsoft Visual Studio\2019\Community\VC\Tools\MSVC\14.29.30133\atlmfc\include\atltypes.h
; File D:\git\src\IBK\IBK_DRFN\ProjSrc\SrcChartEx\ChartOCX\AddInManager\ChartCommonAddIn\OrderLineAddinImp.cpp
; File C:\Program Files (x86)\Microsoft Visual Studio\2019\Community\VC\Tools\MSVC\14.29.30133\atlmfc\include\afxcoll.inl
; File D:\git\src\IBK\IBK_DRFN\ProjSrc\SrcChartEx\ChartOCX\AddInManager\ChartCommonAddIn\OrderLineAddinImp.cpp
; File C:\Program Files (x86)\Microsoft Visual Studio\2019\Community\VC\Tools\MSVC\14.29.30133\atlmfc\include\afxcoll.inl
; File D:\git\src\IBK\IBK_DRFN\ProjSrc\SrcChartEx\ChartOCX\AddInManager\ChartCommonAddIn\OrderLineAddinImp.cpp
; File C:\Program Files (x86)\Microsoft Visual Studio\2019\Community\VC\Tools\MSVC\14.29.30133\atlmfc\include\afxcoll.inl
; File D:\git\src\IBK\IBK_DRFN\ProjSrc\SrcChartEx\ChartOCX\AddInManager\ChartCommonAddIn\OrderLineAddinImp.cpp
; File C:\Program Files (x86)\Windows Kits\10\Include\10.0.22000.0\ucrt\stdlib.h
; File D:\git\src\IBK\IBK_DRFN\ProjSrc\SrcChartEx\ChartOCX\AddInManager\ChartCommonAddIn\OrderLineAddinImp.cpp
;	COMDAT ?OnMouseMove@COrderLineAddInImp@@MAEHPAUHDC__@@IAAUtagPOINT@@KQAUHBITMAP__@@@Z
_TEXT	SEGMENT
_dViewMin$1$ = -84					; size = 8
_nG$2 = -80						; size = 4
_nR$3 = -76						; size = 4
_nC$4 = -72						; size = 4
tv1693 = -68						; size = 4
_nV$5 = -68						; size = 4
_dViewRange$2$ = -64					; size = 8
tv368 = -64						; size = 8
_szGraphName$6 = -64					; size = 8
_pOrderLine$1$ = -56					; size = 4
_pIBlock$1$ = -56					; size = 4
_point$GSCopy$1$ = -52					; size = 4
_pIBlock$1$ = -52					; size = 4
_nXMove$1$ = -52					; size = 4
tv1757 = -52						; size = 4
_rctNoFrameAndMargin$7 = -48				; size = 16
$T8 = -32						; size = 16
_dDragCur$9 = -24					; size = 8
tv1694 = -20						; size = 4
_nLast$10 = -20						; size = 4
__$ArrayPad$ = -16					; size = 4
__$EHRec$ = -12						; size = 12
_p_hDC$ = 8						; size = 4
_nFlags$ = 12						; size = 4
_point$ = 16						; size = 4
_p_dwMouseActionID$ = 20				; size = 4
_p_hbmpMainOSB$ = 24					; size = 4
?OnMouseMove@COrderLineAddInImp@@MAEHPAUHDC__@@IAAUtagPOINT@@KQAUHBITMAP__@@@Z PROC ; COrderLineAddInImp::OnMouseMove, COMDAT
; _this$ = ecx

; 607  : {

  00000	55		 push	 ebp
  00001	8b ec		 mov	 ebp, esp
  00003	6a ff		 push	 -1
  00005	68 00 00 00 00	 push	 __ehhandler$?OnMouseMove@COrderLineAddInImp@@MAEHPAUHDC__@@IAAUtagPOINT@@KQAUHBITMAP__@@@Z
  0000a	64 a1 00 00 00
	00		 mov	 eax, DWORD PTR fs:0
  00010	50		 push	 eax
  00011	83 ec 48	 sub	 esp, 72			; 00000048H
  00014	a1 00 00 00 00	 mov	 eax, DWORD PTR ___security_cookie
  00019	33 c5		 xor	 eax, ebp
  0001b	89 45 f0	 mov	 DWORD PTR __$ArrayPad$[ebp], eax
  0001e	56		 push	 esi
  0001f	57		 push	 edi
  00020	50		 push	 eax
  00021	8d 45 f4	 lea	 eax, DWORD PTR __$EHRec$[ebp]
  00024	64 a3 00 00 00
	00		 mov	 DWORD PTR fs:0, eax
  0002a	8b f9		 mov	 edi, ecx

; 608  : 	if(!m_bRun)		return FALSE;

  0002c	83 7f 7c 00	 cmp	 DWORD PTR [edi+124], 0
  00030	8b 75 10	 mov	 esi, DWORD PTR _point$[ebp]
  00033	89 75 cc	 mov	 DWORD PTR _point$GSCopy$1$[ebp], esi
  00036	0f 84 f0 05 00
	00		 je	 $LN153@OnMouseMov

; 609  : 
; 610  : 	if(m_bSplit)

  0003c	83 bf 88 00 00
	00 00		 cmp	 DWORD PTR [edi+136], 0
  00043	74 15		 je	 SHORT $LN9@OnMouseMov

; 611  : 	{
; 612  : 		m_pChartCWnd->SendMessage( UM_CURSOR_EXCHANGE, ( WPARAM)CCursorShape::BLOCKPOS_SPLITH, NULL);

  00045	8b 47 08	 mov	 eax, DWORD PTR [edi+8]
; File C:\Program Files (x86)\Microsoft Visual Studio\2019\Community\VC\Tools\MSVC\14.29.30133\atlmfc\include\afxwin2.inl

; 32   : 	{ ASSERT(::IsWindow(m_hWnd)); return ::SendMessage(m_hWnd, message, wParam, lParam); }

  00048	6a 00		 push	 0
  0004a	6a 01		 push	 1
  0004c	68 09 06 00 00	 push	 1545			; 00000609H
  00051	ff 70 20	 push	 DWORD PTR [eax+32]
  00054	ff 15 00 00 00
	00		 call	 DWORD PTR __imp__SendMessageA@16
$LN9@OnMouseMov:
; File D:\git\src\IBK\IBK_DRFN\ProjSrc\SrcChartEx\ChartOCX\AddInManager\ChartCommonAddIn\OrderLineAddinImp.cpp

; 793  : 	if( m_ptYZoomStart.x < 0 && m_ptYZoomStart.y < 0) return FALSE;

  0005a	83 bf 24 01 00
	00 00		 cmp	 DWORD PTR [edi+292], 0
  00061	0f 8d 9e 04 00
	00		 jge	 $LN152@OnMouseMov
  00067	83 bf 28 01 00
	00 00		 cmp	 DWORD PTR [edi+296], 0
  0006e	0f 8d 91 04 00
	00		 jge	 $LN152@OnMouseMov

; 613  : 	}
; 614  : 
; 615  : 	if( OnMouseMoveForYZoom( p_hDC, nFlags, point, p_dwMouseActionID, p_hbmpMainOSB))
; 616  : 		return TRUE;	
; 617  : 
; 618  : 	BOOL	 bLineOver = FALSE;
; 619  : //1.  
; 620  : //2.    
; 621  : 
; 622  : 	if(m_bOnSetCaprture)

  00074	83 bf 84 00 00
	00 00		 cmp	 DWORD PTR [edi+132], 0
  0007b	74 77		 je	 SHORT $LN11@OnMouseMov

; 623  : 	{	
; 624  : 		if(m_pSelectedOrderLine)

  0007d	8b 4f 38	 mov	 ecx, DWORD PTR [edi+56]
  00080	85 c9		 test	 ecx, ecx
  00082	0f 84 6b 04 00
	00		 je	 $LN41@OnMouseMov
; File C:\Program Files (x86)\Microsoft Visual Studio\2019\Community\VC\Tools\MSVC\14.29.30133\atlmfc\include\atltypes.h

; 414  : 	*(POINT*)this = initPt;

  00088	8b 06		 mov	 eax, DWORD PTR [esi]
  0008a	8b 56 04	 mov	 edx, DWORD PTR [esi+4]
  0008d	89 45 c0	 mov	 DWORD PTR tv368[ebp], eax
; File D:\git\src\IBK\IBK_DRFN\ProjSrc\SrcChartEx\ChartOCX\AddInManager\ChartCommonAddIn\OrderLineAddinImp.cpp

; 296  : 	if(m_nCurClickedPos == CLICKEDPOS_ORDERLINE)

  00090	8b 81 00 01 00
	00		 mov	 eax, DWORD PTR [ecx+256]
  00096	83 f8 01	 cmp	 eax, 1
  00099	75 18		 jne	 SHORT $LN63@OnMouseMov

; 297  : 	{
; 298  : 		m_ptStart.y = pt.y ;

  0009b	89 51 54	 mov	 DWORD PTR [ecx+84], edx

; 299  : 		m_ptEnd.y = pt.y ;

  0009e	89 51 5c	 mov	 DWORD PTR [ecx+92], edx

; 754  : 	}	
; 755  : 		
; 756  : 
; 757  : 	m_pIChartOCX->InvalidateControl();

  000a1	8b 4f 04	 mov	 ecx, DWORD PTR [edi+4]
  000a4	8b 01		 mov	 eax, DWORD PTR [ecx]
  000a6	ff 50 38	 call	 DWORD PTR [eax+56]

; 758  : 	return TRUE;

  000a9	b8 01 00 00 00	 mov	 eax, 1
  000ae	e9 7b 05 00 00	 jmp	 $LN1@OnMouseMov
$LN63@OnMouseMov:

; 301  : 	else if(m_nCurClickedPos == CLICKEDPOS_TABLE)

  000b3	83 f8 02	 cmp	 eax, 2
  000b6	0f 85 37 04 00
	00		 jne	 $LN41@OnMouseMov

; 302  : 	{
; 303  : 		m_ptTableOffset.x = pt.x - m_ptLBtnDown.x + m_ptBackupTalbeOffset.x;

  000bc	8b 81 d0 00 00
	00		 mov	 eax, DWORD PTR [ecx+208]
  000c2	2b 81 c8 00 00
	00		 sub	 eax, DWORD PTR [ecx+200]

; 304  : 		m_ptTableOffset.y = pt.y - m_ptLBtnDown.y + m_ptBackupTalbeOffset.y;

  000c8	2b 91 cc 00 00
	00		 sub	 edx, DWORD PTR [ecx+204]
  000ce	03 06		 add	 eax, DWORD PTR [esi]
  000d0	03 91 d4 00 00
	00		 add	 edx, DWORD PTR [ecx+212]
  000d6	89 81 c0 00 00
	00		 mov	 DWORD PTR [ecx+192], eax
  000dc	89 91 c4 00 00
	00		 mov	 DWORD PTR [ecx+196], edx

; 754  : 	}	
; 755  : 		
; 756  : 
; 757  : 	m_pIChartOCX->InvalidateControl();

  000e2	8b 4f 04	 mov	 ecx, DWORD PTR [edi+4]
  000e5	8b 01		 mov	 eax, DWORD PTR [ecx]
  000e7	ff 50 38	 call	 DWORD PTR [eax+56]

; 758  : 	return TRUE;

  000ea	b8 01 00 00 00	 mov	 eax, 1
  000ef	e9 3a 05 00 00	 jmp	 $LN1@OnMouseMov
$LN11@OnMouseMov:

; 625  : 			m_pSelectedOrderLine->SetPosition(point);
; 626  : 	}
; 627  : 	else if(m_bLButtonDown) //PAN

  000f4	83 bf 10 01 00
	00 00		 cmp	 DWORD PTR [edi+272], 0
  000fb	0f 84 d5 02 00
	00		 je	 $LN14@OnMouseMov

; 628  : 	{	
; 629  : 		if( !m_pIAddInToolMgr->IsLButtonExclusive( m_pIAddInDllBase))

  00101	8b 4f 24	 mov	 ecx, DWORD PTR [edi+36]
  00104	ff 77 10	 push	 DWORD PTR [edi+16]
  00107	8b 01		 mov	 eax, DWORD PTR [ecx]
  00109	8b 40 34	 mov	 eax, DWORD PTR [eax+52]
  0010c	ff d0		 call	 eax
  0010e	85 c0		 test	 eax, eax
  00110	75 3e		 jne	 SHORT $LN18@OnMouseMov

; 630  : 		{
; 631  : 			if( p_dwMouseActionID != m_dwMouseActionID)

  00112	8b 45 14	 mov	 eax, DWORD PTR _p_dwMouseActionID$[ebp]
  00115	66 0f 6e c0	 movd	 xmm0, eax
  00119	f3 0f e6 c0	 cvtdq2pd xmm0, xmm0
  0011d	c1 e8 1f	 shr	 eax, 31			; 0000001fH
  00120	f2 0f 58 04 c5
	00 00 00 00	 addsd	 xmm0, QWORD PTR __xmm@41f00000000000000000000000000000[eax*8]
  00129	66 0f 2e 87 f0
	00 00 00	 ucomisd xmm0, QWORD PTR [edi+240]
  00131	9f		 lahf
  00132	f6 c4 44	 test	 ah, 68			; 00000044H
  00135	0f 8a f1 04 00
	00		 jp	 $LN153@OnMouseMov

; 632  : 				return FALSE;		
; 633  : 			if( !m_pIAddInToolMgr->GetLButtonExclusive( m_pIAddInDllBase))

  0013b	8b 4f 24	 mov	 ecx, DWORD PTR [edi+36]
  0013e	ff 77 10	 push	 DWORD PTR [edi+16]
  00141	8b 01		 mov	 eax, DWORD PTR [ecx]
  00143	8b 40 30	 mov	 eax, DWORD PTR [eax+48]
  00146	ff d0		 call	 eax
  00148	85 c0		 test	 eax, eax
  0014a	0f 84 dc 04 00
	00		 je	 $LN153@OnMouseMov
$LN18@OnMouseMov:

; 635  : 		}
; 636  : 		// point Drag  point  return.
; 637  : 		if( m_ptPanStart == point )

  00150	ff 76 04	 push	 DWORD PTR [esi+4]
  00153	8d 8f 14 01 00
	00		 lea	 ecx, DWORD PTR [edi+276]
  00159	ff 36		 push	 DWORD PTR [esi]
  0015b	e8 00 00 00 00	 call	 ??8CPoint@@QBEHUtagPOINT@@@Z ; CPoint::operator==
  00160	85 c0		 test	 eax, eax
  00162	0f 85 bd 04 00
	00		 jne	 $LN154@OnMouseMov

; 642  : 		ILPCSTR szGraphName = m_pIChartManager->FindFirstIndicator( _MTEXT( C2_PRICE_CHART), nR, nC, nV, nG, "DEFAULT");

  00168	8b 4f 1c	 mov	 ecx, DWORD PTR [edi+28]
  0016b	8d 45 b0	 lea	 eax, DWORD PTR _nG$2[ebp]
  0016e	68 00 00 00 00	 push	 OFFSET ??_C@_07MGCPDNLD@DEFAULT@
  00173	50		 push	 eax
  00174	8d 45 bc	 lea	 eax, DWORD PTR _nV$5[ebp]
  00177	8b 11		 mov	 edx, DWORD PTR [ecx]
  00179	50		 push	 eax
  0017a	8d 45 b8	 lea	 eax, DWORD PTR _nC$4[ebp]
  0017d	50		 push	 eax
  0017e	8d 45 b4	 lea	 eax, DWORD PTR _nR$3[ebp]
  00181	50		 push	 eax
  00182	a1 54 00 00 00	 mov	 eax, DWORD PTR ?g_iMetaTable@@3VIMetaTable@@A+84
  00187	ff b0 28 03 00
	00		 push	 DWORD PTR [eax+808]
  0018d	8b 42 70	 mov	 eax, DWORD PTR [edx+112]
  00190	ff d0		 call	 eax
; File D:\git\src\IBK\IBK_DRFN\ProjSrc\SrcChartEx\ChartOCX\AddInManager\Include_AddIn\I000000\_IString.h

; 39   : 		m_pIStrData = p_pIString;	// Do not AddRef(). Because It must be Return Value.

  00192	8b c8		 mov	 ecx, eax
  00194	89 4d c4	 mov	 DWORD PTR _szGraphName$6[ebp+4], ecx

; 40   : 		if( m_pIStrData) m_szData = m_pIStrData->GetData();

  00197	85 c9		 test	 ecx, ecx
  00199	74 09		 je	 SHORT $LN68@OnMouseMov
  0019b	8b 01		 mov	 eax, DWORD PTR [ecx]
  0019d	8b 40 10	 mov	 eax, DWORD PTR [eax+16]
  001a0	ff d0		 call	 eax
  001a2	eb 02		 jmp	 SHORT $LN156@OnMouseMov
$LN68@OnMouseMov:

; 41   : 		else m_szData = NULL;

  001a4	33 c0		 xor	 eax, eax
$LN156@OnMouseMov:
; File D:\git\src\IBK\IBK_DRFN\ProjSrc\SrcChartEx\ChartOCX\AddInManager\ChartCommonAddIn\OrderLineAddinImp.cpp

; 642  : 		ILPCSTR szGraphName = m_pIChartManager->FindFirstIndicator( _MTEXT( C2_PRICE_CHART), nR, nC, nV, nG, "DEFAULT");

  001a6	89 45 c0	 mov	 DWORD PTR _szGraphName$6[ebp], eax
  001a9	c7 45 fc 00 00
	00 00		 mov	 DWORD PTR __$EHRec$[ebp+8], 0
; File D:\git\src\IBK\IBK_DRFN\ProjSrc\SrcChartEx\ChartOCX\AddInManager\Include_AddIn\I000000\_IString.h

; 57   : 		if( !m_szData) return TRUE;

  001b0	85 c0		 test	 eax, eax
  001b2	0f 84 0a 02 00
	00		 je	 $LN44@OnMouseMov
; File D:\git\src\IBK\IBK_DRFN\ProjSrc\SrcChartEx\ChartOCX\AddInManager\ChartCommonAddIn\OrderLineAddinImp.cpp

; 643  : 		if( szGraphName.IsEmpty()) return TRUE;

  001b8	80 38 00	 cmp	 BYTE PTR [eax], 0
  001bb	0f 84 01 02 00
	00		 je	 $LN44@OnMouseMov

; 644  : 
; 645  : 		IBlock *pIBlock = m_pIChartManager->GetBlock( nR, nC );

  001c1	8b 4f 1c	 mov	 ecx, DWORD PTR [edi+28]
  001c4	ff 75 b8	 push	 DWORD PTR _nC$4[ebp]
  001c7	ff 75 b4	 push	 DWORD PTR _nR$3[ebp]
  001ca	8b 01		 mov	 eax, DWORD PTR [ecx]
  001cc	8b 40 38	 mov	 eax, DWORD PTR [eax+56]
  001cf	ff d0		 call	 eax
  001d1	89 45 c8	 mov	 DWORD PTR _pIBlock$1$[ebp], eax

; 646  : 		if( !pIBlock) return TRUE;

  001d4	85 c0		 test	 eax, eax
  001d6	0f 84 e6 01 00
	00		 je	 $LN44@OnMouseMov

; 649  : 		pIBlock->GetGraphRegions(m_rctGraphRegion, rctNoFrameAndMargin);

  001dc	0f 57 c0	 xorps	 xmm0, xmm0
  001df	8d 4d d0	 lea	 ecx, DWORD PTR _rctNoFrameAndMargin$7[ebp]
; File C:\Program Files (x86)\Microsoft Visual Studio\2019\Community\VC\Tools\MSVC\14.29.30133\atlmfc\include\atltypes.h

; 528  : 	left = 0;

  001e2	0f 11 45 d0	 movups	 XMMWORD PTR _rctNoFrameAndMargin$7[ebp], xmm0
; File D:\git\src\IBK\IBK_DRFN\ProjSrc\SrcChartEx\ChartOCX\AddInManager\ChartCommonAddIn\OrderLineAddinImp.cpp

; 649  : 		pIBlock->GetGraphRegions(m_rctGraphRegion, rctNoFrameAndMargin);

  001e6	8b 10		 mov	 edx, DWORD PTR [eax]
  001e8	8d b7 8c 00 00
	00		 lea	 esi, DWORD PTR [edi+140]
  001ee	51		 push	 ecx
  001ef	56		 push	 esi
  001f0	8b c8		 mov	 ecx, eax
  001f2	ff 52 10	 call	 DWORD PTR [edx+16]
; File C:\Program Files (x86)\Microsoft Visual Studio\2019\Community\VC\Tools\MSVC\14.29.30133\atlmfc\include\atltypes.h

; 638  : 	return ::IsRectEmpty(this);

  001f5	56		 push	 esi
  001f6	ff 15 00 00 00
	00		 call	 DWORD PTR __imp__IsRectEmpty@4
; File D:\git\src\IBK\IBK_DRFN\ProjSrc\SrcChartEx\ChartOCX\AddInManager\ChartCommonAddIn\OrderLineAddinImp.cpp

; 650  : 		if( m_rctGraphRegion.IsRectEmpty() )

  001fc	85 c0		 test	 eax, eax
  001fe	74 11		 je	 SHORT $LN22@OnMouseMov
$LN157@OnMouseMov:

; 655  : 			return FALSE;

  00200	8d 4d c0	 lea	 ecx, DWORD PTR _szGraphName$6[ebp]
  00203	33 f6		 xor	 esi, esi
  00205	e8 00 00 00 00	 call	 ??1ILPCSTR000000@@QAE@XZ ; ILPCSTR000000::~ILPCSTR000000
  0020a	8b c6		 mov	 eax, esi
  0020c	e9 1d 04 00 00	 jmp	 $LN1@OnMouseMov
$LN22@OnMouseMov:

; 653  : 		m_rctGraphDrawingRegion	= pIBlock->GetGraphDrwingRegion();

  00211	8b 4d c8	 mov	 ecx, DWORD PTR _pIBlock$1$[ebp]
  00214	8d 55 e0	 lea	 edx, DWORD PTR $T8[ebp]
  00217	6a 00		 push	 0
  00219	52		 push	 edx
  0021a	8b 01		 mov	 eax, DWORD PTR [ecx]
  0021c	8b 40 1c	 mov	 eax, DWORD PTR [eax+28]
  0021f	ff d0		 call	 eax
; File C:\Program Files (x86)\Microsoft Visual Studio\2019\Community\VC\Tools\MSVC\14.29.30133\atlmfc\include\atltypes.h

; 765  : 	::CopyRect(this, &srcRect);

  00221	50		 push	 eax
; File D:\git\src\IBK\IBK_DRFN\ProjSrc\SrcChartEx\ChartOCX\AddInManager\ChartCommonAddIn\OrderLineAddinImp.cpp

; 653  : 		m_rctGraphDrawingRegion	= pIBlock->GetGraphDrwingRegion();

  00222	8d b7 9c 00 00
	00		 lea	 esi, DWORD PTR [edi+156]
; File C:\Program Files (x86)\Microsoft Visual Studio\2019\Community\VC\Tools\MSVC\14.29.30133\atlmfc\include\atltypes.h

; 765  : 	::CopyRect(this, &srcRect);

  00228	56		 push	 esi
  00229	ff 15 00 00 00
	00		 call	 DWORD PTR __imp__CopyRect@8

; 638  : 	return ::IsRectEmpty(this);

  0022f	56		 push	 esi
  00230	ff 15 00 00 00
	00		 call	 DWORD PTR __imp__IsRectEmpty@4
; File D:\git\src\IBK\IBK_DRFN\ProjSrc\SrcChartEx\ChartOCX\AddInManager\ChartCommonAddIn\OrderLineAddinImp.cpp

; 654  : 		if( m_rctGraphDrawingRegion.IsRectEmpty() )

  00236	85 c0		 test	 eax, eax
  00238	75 c6		 jne	 SHORT $LN157@OnMouseMov

; 656  : 
; 657  : 		// 4. GraphRegion   GraphRegion .
; 658  : 		if( m_rctGraphRegion.top >= point.y )

  0023a	8b 75 cc	 mov	 esi, DWORD PTR _point$GSCopy$1$[ebp]
  0023d	8b 8f 90 00 00
	00		 mov	 ecx, DWORD PTR [edi+144]
  00243	8b 46 04	 mov	 eax, DWORD PTR [esi+4]
  00246	3b c8		 cmp	 ecx, eax
  00248	7c 05		 jl	 SHORT $LN24@OnMouseMov

; 659  : 			point.y = m_rctGraphRegion.top;

  0024a	89 4e 04	 mov	 DWORD PTR [esi+4], ecx
  0024d	8b c1		 mov	 eax, ecx
$LN24@OnMouseMov:

; 660  : 
; 661  : 		if( m_rctGraphRegion.bottom <= point.y )

  0024f	8b 8f 98 00 00
	00		 mov	 ecx, DWORD PTR [edi+152]
  00255	3b c8		 cmp	 ecx, eax
  00257	7f 03		 jg	 SHORT $LN25@OnMouseMov

; 662  : 			point.y = m_rctGraphRegion.bottom;

  00259	89 4e 04	 mov	 DWORD PTR [esi+4], ecx
$LN25@OnMouseMov:

; 663  : 
; 664  : 		// point   .
; 665  : 		int nXGap = m_ptPanStart.x - point.x;

  0025c	8b 8f 14 01 00
	00		 mov	 ecx, DWORD PTR [edi+276]
  00262	2b 0e		 sub	 ecx, DWORD PTR [esi]

; 666  : 		BOOL bInvalidate = FALSE;
; 667  : 		int nXMove = 0;
; 668  : 		if( abs(nXGap) > m_dBarWidth )

  00264	f2 0f 10 8f 00
	01 00 00	 movsd	 xmm1, QWORD PTR [edi+256]
  0026c	8b c1		 mov	 eax, ecx
  0026e	99		 cdq
  0026f	33 c2		 xor	 eax, edx
  00271	2b c2		 sub	 eax, edx
  00273	66 0f 6e c0	 movd	 xmm0, eax
  00277	f3 0f e6 c0	 cvtdq2pd xmm0, xmm0
  0027b	66 0f 2f c1	 comisd	 xmm0, xmm1
  0027f	76 4e		 jbe	 SHORT $LN27@OnMouseMov

; 669  : 		{
; 670  : 			nXMove = (int)(nXGap / m_dBarWidth);
; 671  : 
; 672  : 			int nLast;
; 673  : 			m_pIChartOCX->GetMaxScrollRange(nLast);

  00281	66 0f 6e c1	 movd	 xmm0, ecx
  00285	8d 55 ec	 lea	 edx, DWORD PTR _nLast$10[ebp]
  00288	f3 0f e6 c0	 cvtdq2pd xmm0, xmm0
  0028c	8b 4f 04	 mov	 ecx, DWORD PTR [edi+4]
  0028f	52		 push	 edx
  00290	f2 0f 5e c1	 divsd	 xmm0, xmm1
  00294	f2 0f 2c c0	 cvttsd2si eax, xmm0
  00298	89 45 cc	 mov	 DWORD PTR _nXMove$1$[ebp], eax
  0029b	8b 01		 mov	 eax, DWORD PTR [ecx]
  0029d	ff 90 20 01 00
	00		 call	 DWORD PTR [eax+288]

; 674  : 
; 675  : 			if( (m_nStartIndex + nXMove >= 0) && (m_nEndIndex + nXMove <= nLast ) )

  002a3	8b 87 08 01 00
	00		 mov	 eax, DWORD PTR [edi+264]
  002a9	8b 4d cc	 mov	 ecx, DWORD PTR _nXMove$1$[ebp]
  002ac	03 c1		 add	 eax, ecx
  002ae	89 45 cc	 mov	 DWORD PTR tv1757[ebp], eax
  002b1	78 1c		 js	 SHORT $LN27@OnMouseMov
  002b3	8b 97 0c 01 00
	00		 mov	 edx, DWORD PTR [edi+268]
  002b9	03 d1		 add	 edx, ecx
  002bb	3b 55 ec	 cmp	 edx, DWORD PTR _nLast$10[ebp]
  002be	7f 0f		 jg	 SHORT $LN27@OnMouseMov

; 676  : 				m_pIChartOCX->SetViewStartEndIndex( m_nStartIndex + nXMove, m_nEndIndex + nXMove );

  002c0	8b 4f 04	 mov	 ecx, DWORD PTR [edi+4]
  002c3	52		 push	 edx
  002c4	ff 75 cc	 push	 DWORD PTR tv1757[ebp]
  002c7	8b 01		 mov	 eax, DWORD PTR [ecx]
  002c9	ff 90 28 01 00
	00		 call	 DWORD PTR [eax+296]
$LN27@OnMouseMov:

; 677  : 			bInvalidate = TRUE;
; 678  : 		}
; 679  : 
; 680  : 		// Block  .
; 681  : 		if( !m_bIsLock )

  002cf	83 bf 80 00 00
	00 00		 cmp	 DWORD PTR [edi+128], 0
  002d6	0f 85 a7 00 00
	00		 jne	 $LN29@OnMouseMov

; 682  : 		{
; 683  : 			double dDragCur = 0;
; 684  : 			dDragCur = m_pIChartOCX->ConvertYPositionToData( point.y, m_rctGraphDrawingRegion.top, m_rctGraphDrawingRegion.bottom, m_dViewMax, m_dViewMin, m_bLog, m_bReverse);

  002dc	ff 77 78	 push	 DWORD PTR [edi+120]
  002df	f2 0f 10 87 d0
	00 00 00	 movsd	 xmm0, QWORD PTR [edi+208]
  002e7	ff 77 74	 push	 DWORD PTR [edi+116]
  002ea	8b 4f 04	 mov	 ecx, DWORD PTR [edi+4]
  002ed	83 ec 10	 sub	 esp, 16			; 00000010H
  002f0	8b 01		 mov	 eax, DWORD PTR [ecx]
  002f2	f2 0f 11 44 24
	08		 movsd	 QWORD PTR [esp+8], xmm0
  002f8	f2 0f 10 87 d8
	00 00 00	 movsd	 xmm0, QWORD PTR [edi+216]
  00300	f2 0f 11 04 24	 movsd	 QWORD PTR [esp], xmm0
  00305	ff b7 a8 00 00
	00		 push	 DWORD PTR [edi+168]
  0030b	8b 80 30 01 00
	00		 mov	 eax, DWORD PTR [eax+304]
  00311	ff b7 a0 00 00
	00		 push	 DWORD PTR [edi+160]
  00317	ff 76 04	 push	 DWORD PTR [esi+4]
  0031a	ff d0		 call	 eax

; 685  : 
; 686  : 			if( ( m_dViewMin + ( m_dPanStart - dDragCur ) > 0 ) && ( m_dPanStart - dDragCur ) != 0 )

  0031c	f2 0f 10 87 f8
	00 00 00	 movsd	 xmm0, QWORD PTR [edi+248]
  00324	0f 57 d2	 xorps	 xmm2, xmm2
  00327	dd 5d e8	 fstp	 QWORD PTR _dDragCur$9[ebp]
  0032a	f2 0f 5c 45 e8	 subsd	 xmm0, QWORD PTR _dDragCur$9[ebp]
  0032f	0f 28 c8	 movaps	 xmm1, xmm0
  00332	f2 0f 58 8f d0
	00 00 00	 addsd	 xmm1, QWORD PTR [edi+208]
  0033a	66 0f 2f ca	 comisd	 xmm1, xmm2
  0033e	76 43		 jbe	 SHORT $LN29@OnMouseMov
  00340	66 0f 2e c2	 ucomisd xmm0, xmm2
  00344	9f		 lahf
  00345	f6 c4 44	 test	 ah, 68			; 00000044H
  00348	7b 39		 jnp	 SHORT $LN29@OnMouseMov

; 687  : 			{
; 688  : 				m_dViewMin = m_dViewMin + ( m_dPanStart - dDragCur );
; 689  : 				m_dViewMax = m_dViewMax + ( m_dPanStart - dDragCur );

  0034a	f2 0f 58 87 d8
	00 00 00	 addsd	 xmm0, QWORD PTR [edi+216]

; 690  : 				pIBlock->SetVScaleMinMaxSetting( nV, m_bIsLock,

  00352	8b 4d c8	 mov	 ecx, DWORD PTR _pIBlock$1$[ebp]
  00355	83 ec 10	 sub	 esp, 16			; 00000010H
  00358	f2 0f 11 8f d0
	00 00 00	 movsd	 QWORD PTR [edi+208], xmm1
  00360	f2 0f 11 44 24
	08		 movsd	 QWORD PTR [esp+8], xmm0
  00366	f2 0f 11 0c 24	 movsd	 QWORD PTR [esp], xmm1
  0036b	6a 02		 push	 2
  0036d	ff b7 80 00 00
	00		 push	 DWORD PTR [edi+128]
  00373	f2 0f 11 87 d8
	00 00 00	 movsd	 QWORD PTR [edi+216], xmm0
  0037b	8b 01		 mov	 eax, DWORD PTR [ecx]
  0037d	ff 75 bc	 push	 DWORD PTR _nV$5[ebp]
  00380	ff 50 54	 call	 DWORD PTR [eax+84]
$LN29@OnMouseMov:

; 691  : 												 CScaleBaseData::VERTMINMAXTYPE::VERT_MINMAX_OF_USER,
; 692  : 												 m_dViewMin, m_dViewMax);
; 693  : 
; 694  : 				bInvalidate = TRUE;
; 695  : 			}
; 696  : 		}
; 697  : 		if( pIBlock )
; 698  : 		pIBlock->Release();

  00383	8b 4d c8	 mov	 ecx, DWORD PTR _pIBlock$1$[ebp]
  00386	51		 push	 ecx
  00387	8b 01		 mov	 eax, DWORD PTR [ecx]
  00389	ff 50 08	 call	 DWORD PTR [eax+8]

; 699  : 		pIBlock = NULL;
; 700  : 		m_pChartCWnd->SendMessage( UM_CURSOR_EXCHANGE, ( WPARAM)CCursorShape::OBJECT_MOVE, NULL);

  0038c	8b 47 08	 mov	 eax, DWORD PTR [edi+8]
; File C:\Program Files (x86)\Microsoft Visual Studio\2019\Community\VC\Tools\MSVC\14.29.30133\atlmfc\include\afxwin2.inl

; 32   : 	{ ASSERT(::IsWindow(m_hWnd)); return ::SendMessage(m_hWnd, message, wParam, lParam); }

  0038f	6a 00		 push	 0
  00391	6a 05		 push	 5
  00393	68 09 06 00 00	 push	 1545			; 00000609H
  00398	ff 70 20	 push	 DWORD PTR [eax+32]
  0039b	ff 15 00 00 00
	00		 call	 DWORD PTR __imp__SendMessageA@16
; File D:\git\src\IBK\IBK_DRFN\ProjSrc\SrcChartEx\ChartOCX\AddInManager\ChartCommonAddIn\OrderLineAddinImp.cpp

; 702  : 	}

  003a1	8d 4d c0	 lea	 ecx, DWORD PTR _szGraphName$6[ebp]
  003a4	c7 45 fc ff ff
	ff ff		 mov	 DWORD PTR __$EHRec$[ebp+8], -1
  003ab	e8 00 00 00 00	 call	 ??1ILPCSTR000000@@QAE@XZ ; ILPCSTR000000::~ILPCSTR000000

; 754  : 	}	
; 755  : 		
; 756  : 
; 757  : 	m_pIChartOCX->InvalidateControl();

  003b0	8b 4f 04	 mov	 ecx, DWORD PTR [edi+4]
  003b3	8b 01		 mov	 eax, DWORD PTR [ecx]
  003b5	ff 50 38	 call	 DWORD PTR [eax+56]

; 758  : 	return TRUE;

  003b8	b8 01 00 00 00	 mov	 eax, 1
  003bd	e9 6c 02 00 00	 jmp	 $LN1@OnMouseMov
$LN44@OnMouseMov:

; 655  : 			return FALSE;

  003c2	8d 4d c0	 lea	 ecx, DWORD PTR _szGraphName$6[ebp]
  003c5	be 01 00 00 00	 mov	 esi, 1
  003ca	e8 00 00 00 00	 call	 ??1ILPCSTR000000@@QAE@XZ ; ILPCSTR000000::~ILPCSTR000000
  003cf	8b c6		 mov	 eax, esi
  003d1	e9 58 02 00 00	 jmp	 $LN1@OnMouseMov
$LN14@OnMouseMov:
; File C:\Program Files (x86)\Microsoft Visual Studio\2019\Community\VC\Tools\MSVC\14.29.30133\atlmfc\include\atltypes.h

; 648  : 	return ::PtInRect(this, point);

  003d6	ff 76 04	 push	 DWORD PTR [esi+4]
; File D:\git\src\IBK\IBK_DRFN\ProjSrc\SrcChartEx\ChartOCX\AddInManager\ChartCommonAddIn\OrderLineAddinImp.cpp

; 703  : 	else if( m_rctLVScaleRegion.PtInRect( point) || m_rctRVScaleRegion.PtInRect( point))

  003d9	8d 87 ac 00 00
	00		 lea	 eax, DWORD PTR [edi+172]
; File C:\Program Files (x86)\Microsoft Visual Studio\2019\Community\VC\Tools\MSVC\14.29.30133\atlmfc\include\atltypes.h

; 648  : 	return ::PtInRect(this, point);

  003df	ff 36		 push	 DWORD PTR [esi]
  003e1	50		 push	 eax
  003e2	ff 15 00 00 00
	00		 call	 DWORD PTR __imp__PtInRect@12
; File D:\git\src\IBK\IBK_DRFN\ProjSrc\SrcChartEx\ChartOCX\AddInManager\ChartCommonAddIn\OrderLineAddinImp.cpp

; 703  : 	else if( m_rctLVScaleRegion.PtInRect( point) || m_rctRVScaleRegion.PtInRect( point))

  003e8	85 c0		 test	 eax, eax
  003ea	0f 85 f6 00 00
	00		 jne	 $LN33@OnMouseMov
; File C:\Program Files (x86)\Microsoft Visual Studio\2019\Community\VC\Tools\MSVC\14.29.30133\atlmfc\include\atltypes.h

; 648  : 	return ::PtInRect(this, point);

  003f0	ff 76 04	 push	 DWORD PTR [esi+4]
; File D:\git\src\IBK\IBK_DRFN\ProjSrc\SrcChartEx\ChartOCX\AddInManager\ChartCommonAddIn\OrderLineAddinImp.cpp

; 703  : 	else if( m_rctLVScaleRegion.PtInRect( point) || m_rctRVScaleRegion.PtInRect( point))

  003f3	8d 87 bc 00 00
	00		 lea	 eax, DWORD PTR [edi+188]
; File C:\Program Files (x86)\Microsoft Visual Studio\2019\Community\VC\Tools\MSVC\14.29.30133\atlmfc\include\atltypes.h

; 648  : 	return ::PtInRect(this, point);

  003f9	ff 36		 push	 DWORD PTR [esi]
  003fb	50		 push	 eax
  003fc	ff 15 00 00 00
	00		 call	 DWORD PTR __imp__PtInRect@12
; File D:\git\src\IBK\IBK_DRFN\ProjSrc\SrcChartEx\ChartOCX\AddInManager\ChartCommonAddIn\OrderLineAddinImp.cpp

; 703  : 	else if( m_rctLVScaleRegion.PtInRect( point) || m_rctRVScaleRegion.PtInRect( point))

  00402	85 c0		 test	 eax, eax
  00404	0f 85 dc 00 00
	00		 jne	 $LN33@OnMouseMov

; 706  : 	}
; 707  : 	else
; 708  : 	{
; 709  : 		POSITION pos = m_OrderLineList.GetHeadPosition();

  0040a	8b 77 5c	 mov	 esi, DWORD PTR [edi+92]

; 710  : 		COrderLine* pOrderLine = NULL;
; 711  : 		while(pos)

  0040d	85 f6		 test	 esi, esi
  0040f	74 47		 je	 SHORT $LN36@OnMouseMov
$LL2@OnMouseMov:

; 713  : 			pOrderLine = (COrderLine*)m_OrderLineList.GetNext(pos);

  00411	8b 46 08	 mov	 eax, DWORD PTR [esi+8]
; File C:\Program Files (x86)\Microsoft Visual Studio\2019\Community\VC\Tools\MSVC\14.29.30133\atlmfc\include\afxcoll.inl

; 432  : 		rPosition = (POSITION) pNode->pNext;

  00414	8b 36		 mov	 esi, DWORD PTR [esi]
; File D:\git\src\IBK\IBK_DRFN\ProjSrc\SrcChartEx\ChartOCX\AddInManager\ChartCommonAddIn\OrderLineAddinImp.cpp

; 713  : 			pOrderLine = (COrderLine*)m_OrderLineList.GetNext(pos);

  00416	89 45 c8	 mov	 DWORD PTR _pOrderLine$1$[ebp], eax

; 714  : 			if(pOrderLine) 

  00419	85 c0		 test	 eax, eax
  0041b	74 37		 je	 SHORT $LN35@OnMouseMov
; File C:\Program Files (x86)\Microsoft Visual Studio\2019\Community\VC\Tools\MSVC\14.29.30133\atlmfc\include\atltypes.h

; 414  : 	*(POINT*)this = initPt;

  0041d	8b 4d cc	 mov	 ecx, DWORD PTR _point$GSCopy$1$[ebp]
; File D:\git\src\IBK\IBK_DRFN\ProjSrc\SrcChartEx\ChartOCX\AddInManager\ChartCommonAddIn\OrderLineAddinImp.cpp

; 243  : 	if(m_rctLine.PtInRect(pt))

  00420	83 e8 80	 sub	 eax, -128		; ffffff80H
; File C:\Program Files (x86)\Microsoft Visual Studio\2019\Community\VC\Tools\MSVC\14.29.30133\atlmfc\include\atltypes.h

; 414  : 	*(POINT*)this = initPt;

  00423	8b 11		 mov	 edx, DWORD PTR [ecx]
  00425	8b 49 04	 mov	 ecx, DWORD PTR [ecx+4]

; 648  : 	return ::PtInRect(this, point);

  00428	51		 push	 ecx
  00429	52		 push	 edx
  0042a	50		 push	 eax

; 414  : 	*(POINT*)this = initPt;

  0042b	89 55 ec	 mov	 DWORD PTR tv1694[ebp], edx
  0042e	89 4d bc	 mov	 DWORD PTR tv1693[ebp], ecx

; 648  : 	return ::PtInRect(this, point);

  00431	ff 15 00 00 00
	00		 call	 DWORD PTR __imp__PtInRect@12
; File D:\git\src\IBK\IBK_DRFN\ProjSrc\SrcChartEx\ChartOCX\AddInManager\ChartCommonAddIn\OrderLineAddinImp.cpp

; 243  : 	if(m_rctLine.PtInRect(pt))

  00437	85 c0		 test	 eax, eax
  00439	75 72		 jne	 SHORT $LN121@OnMouseMov
; File C:\Program Files (x86)\Microsoft Visual Studio\2019\Community\VC\Tools\MSVC\14.29.30133\atlmfc\include\atltypes.h

; 648  : 	return ::PtInRect(this, point);

  0043b	ff 75 bc	 push	 DWORD PTR tv1693[ebp]
; File D:\git\src\IBK\IBK_DRFN\ProjSrc\SrcChartEx\ChartOCX\AddInManager\ChartCommonAddIn\OrderLineAddinImp.cpp

; 250  : 	if(m_rctTable.PtInRect(pt))

  0043e	8b 45 c8	 mov	 eax, DWORD PTR _pOrderLine$1$[ebp]
; File C:\Program Files (x86)\Microsoft Visual Studio\2019\Community\VC\Tools\MSVC\14.29.30133\atlmfc\include\atltypes.h

; 648  : 	return ::PtInRect(this, point);

  00441	ff 75 ec	 push	 DWORD PTR tv1694[ebp]
; File D:\git\src\IBK\IBK_DRFN\ProjSrc\SrcChartEx\ChartOCX\AddInManager\ChartCommonAddIn\OrderLineAddinImp.cpp

; 250  : 	if(m_rctTable.PtInRect(pt))

  00444	05 90 00 00 00	 add	 eax, 144		; 00000090H
; File C:\Program Files (x86)\Microsoft Visual Studio\2019\Community\VC\Tools\MSVC\14.29.30133\atlmfc\include\atltypes.h

; 648  : 	return ::PtInRect(this, point);

  00449	50		 push	 eax
  0044a	ff 15 00 00 00
	00		 call	 DWORD PTR __imp__PtInRect@12
; File D:\git\src\IBK\IBK_DRFN\ProjSrc\SrcChartEx\ChartOCX\AddInManager\ChartCommonAddIn\OrderLineAddinImp.cpp

; 250  : 	if(m_rctTable.PtInRect(pt))

  00450	85 c0		 test	 eax, eax
  00452	75 59		 jne	 SHORT $LN121@OnMouseMov
$LN35@OnMouseMov:

; 710  : 		COrderLine* pOrderLine = NULL;
; 711  : 		while(pos)

  00454	85 f6		 test	 esi, esi
  00456	75 b9		 jne	 SHORT $LL2@OnMouseMov
$LN36@OnMouseMov:

; 736  : 				}			
; 737  : 			}	
; 738  : 		}
; 739  : 		else if(!m_bOnSetCaprture)

  00458	83 bf 84 00 00
	00 00		 cmp	 DWORD PTR [edi+132], 0
  0045f	75 22		 jne	 SHORT $LN7@OnMouseMov

; 740  : 		{
; 741  : 			POSITION posOtherLine = m_OrderLineList.GetHeadPosition();

  00461	8b 4f 5c	 mov	 ecx, DWORD PTR [edi+92]

; 742  : 			while(posOtherLine)

  00464	85 c9		 test	 ecx, ecx
  00466	74 1b		 je	 SHORT $LN7@OnMouseMov
$LL6@OnMouseMov:

; 743  : 			{
; 744  : 				COrderLine* potherOrderLine = (COrderLine*)m_OrderLineList.GetNext(posOtherLine);

  00468	8b 41 08	 mov	 eax, DWORD PTR [ecx+8]
; File C:\Program Files (x86)\Microsoft Visual Studio\2019\Community\VC\Tools\MSVC\14.29.30133\atlmfc\include\afxcoll.inl

; 432  : 		rPosition = (POSITION) pNode->pNext;

  0046b	8b 09		 mov	 ecx, DWORD PTR [ecx]
; File D:\git\src\IBK\IBK_DRFN\ProjSrc\SrcChartEx\ChartOCX\AddInManager\ChartCommonAddIn\OrderLineAddinImp.cpp

; 745  : 				if(potherOrderLine ) 

  0046d	85 c0		 test	 eax, eax
  0046f	74 0e		 je	 SHORT $LN40@OnMouseMov

; 746  : 				{
; 747  : 					potherOrderLine->m_bShow = TRUE;

  00471	c7 40 1c 01 00
	00 00		 mov	 DWORD PTR [eax+28], 1

; 748  : 					potherOrderLine->m_bMouseOver = FALSE;

  00478	c7 40 20 00 00
	00 00		 mov	 DWORD PTR [eax+32], 0
$LN40@OnMouseMov:

; 742  : 			while(posOtherLine)

  0047f	85 c9		 test	 ecx, ecx
  00481	75 e5		 jne	 SHORT $LL6@OnMouseMov
$LN7@OnMouseMov:

; 749  : 				}
; 750  : 			}		
; 751  : 		}
; 752  : 		m_hAPCursor = NULL;	
; 753  : 		if( m_pIChartOCX) m_pIChartOCX->SetCursorHandle( m_hAPCursor);

  00483	8b 4f 04	 mov	 ecx, DWORD PTR [edi+4]
  00486	c7 87 cc 00 00
	00 00 00 00 00	 mov	 DWORD PTR [edi+204], 0
  00490	85 c9		 test	 ecx, ecx
  00492	74 5f		 je	 SHORT $LN41@OnMouseMov
  00494	8b 01		 mov	 eax, DWORD PTR [ecx]
  00496	6a 00		 push	 0
  00498	ff 50 4c	 call	 DWORD PTR [eax+76]

; 754  : 	}	
; 755  : 		
; 756  : 
; 757  : 	m_pIChartOCX->InvalidateControl();

  0049b	8b 4f 04	 mov	 ecx, DWORD PTR [edi+4]
  0049e	8b 01		 mov	 eax, DWORD PTR [ecx]
  004a0	ff 50 38	 call	 DWORD PTR [eax+56]

; 758  : 	return TRUE;

  004a3	b8 01 00 00 00	 mov	 eax, 1
  004a8	e9 81 01 00 00	 jmp	 $LN1@OnMouseMov
$LN121@OnMouseMov:

; 715  : 			{
; 716  : 				if(pOrderLine->IsInRegion(point))
; 717  : 				{
; 718  : 					bLineOver = TRUE;
; 719  : 					pOrderLine->m_bShow = TRUE;

  004ad	8b 45 c8	 mov	 eax, DWORD PTR _pOrderLine$1$[ebp]
  004b0	c7 40 1c 01 00
	00 00		 mov	 DWORD PTR [eax+28], 1

; 720  : 					pOrderLine->m_bMouseOver = TRUE;

  004b7	c7 40 20 01 00
	00 00		 mov	 DWORD PTR [eax+32], 1

; 721  : 					break;
; 722  : 				}
; 723  : 			}
; 724  : 		}
; 725  : 
; 726  : 		if(bLineOver)
; 727  : 		{			
; 728  : 			POSITION posOtherLine = m_OrderLineList.GetHeadPosition();

  004be	8b 4f 5c	 mov	 ecx, DWORD PTR [edi+92]

; 729  : 			while(posOtherLine)

  004c1	85 c9		 test	 ecx, ecx
  004c3	74 be		 je	 SHORT $LN7@OnMouseMov
$LL4@OnMouseMov:

; 730  : 			{
; 731  : 				COrderLine* potherOrderLine = (COrderLine*)m_OrderLineList.GetNext(posOtherLine);

  004c5	8b 41 08	 mov	 eax, DWORD PTR [ecx+8]
; File C:\Program Files (x86)\Microsoft Visual Studio\2019\Community\VC\Tools\MSVC\14.29.30133\atlmfc\include\afxcoll.inl

; 432  : 		rPosition = (POSITION) pNode->pNext;

  004c8	8b 09		 mov	 ecx, DWORD PTR [ecx]
; File D:\git\src\IBK\IBK_DRFN\ProjSrc\SrcChartEx\ChartOCX\AddInManager\ChartCommonAddIn\OrderLineAddinImp.cpp

; 732  : 				if(pos != posOtherLine && potherOrderLine ) 

  004ca	3b f1		 cmp	 esi, ecx
  004cc	74 12		 je	 SHORT $LN38@OnMouseMov
  004ce	85 c0		 test	 eax, eax
  004d0	74 0e		 je	 SHORT $LN38@OnMouseMov

; 733  : 				{
; 734  : 					potherOrderLine->m_bShow = FALSE;

  004d2	c7 40 1c 00 00
	00 00		 mov	 DWORD PTR [eax+28], 0

; 735  : 					potherOrderLine->m_bMouseOver = FALSE;

  004d9	c7 40 20 00 00
	00 00		 mov	 DWORD PTR [eax+32], 0
$LN38@OnMouseMov:

; 729  : 			while(posOtherLine)

  004e0	85 c9		 test	 ecx, ecx
  004e2	75 e1		 jne	 SHORT $LL4@OnMouseMov
; File C:\Program Files (x86)\Microsoft Visual Studio\2019\Community\VC\Tools\MSVC\14.29.30133\atlmfc\include\afxcoll.inl

; 430  : 		if( pNode == NULL )

  004e4	eb 9d		 jmp	 SHORT $LN7@OnMouseMov
$LN33@OnMouseMov:
; File D:\git\src\IBK\IBK_DRFN\ProjSrc\SrcChartEx\ChartOCX\AddInManager\ChartCommonAddIn\OrderLineAddinImp.cpp

; 705  : 		SetMouseCursor(IDC_AP_INDICATOR);

  004e6	68 48 71 00 00	 push	 29000			; 00007148H
  004eb	8d 4f f8	 lea	 ecx, DWORD PTR [edi-8]
  004ee	e8 00 00 00 00	 call	 ?SetMouseCursor@COrderLineAddInImp@@QAEXH@Z ; COrderLineAddInImp::SetMouseCursor
$LN41@OnMouseMov:

; 754  : 	}	
; 755  : 		
; 756  : 
; 757  : 	m_pIChartOCX->InvalidateControl();

  004f3	8b 4f 04	 mov	 ecx, DWORD PTR [edi+4]
  004f6	8b 01		 mov	 eax, DWORD PTR [ecx]
  004f8	ff 50 38	 call	 DWORD PTR [eax+56]

; 758  : 	return TRUE;

  004fb	b8 01 00 00 00	 mov	 eax, 1
  00500	e9 29 01 00 00	 jmp	 $LN1@OnMouseMov
$LN152@OnMouseMov:

; 794  : 	if( m_nRow < 0 || m_nColumn < 0) return TRUE;

  00505	8b 97 1c 01 00
	00		 mov	 edx, DWORD PTR [edi+284]
  0050b	85 d2		 test	 edx, edx
  0050d	0f 88 12 01 00
	00		 js	 $LN154@OnMouseMov
  00513	83 bf 20 01 00
	00 00		 cmp	 DWORD PTR [edi+288], 0
  0051a	0f 8c 05 01 00
	00		 jl	 $LN154@OnMouseMov

; 795  : 
; 796  : 	IBlock *pIBlock = m_pIChartManager->GetBlock( m_nRow, m_nColumn);

  00520	8b 4f 1c	 mov	 ecx, DWORD PTR [edi+28]
  00523	ff b7 20 01 00
	00		 push	 DWORD PTR [edi+288]
  00529	52		 push	 edx
  0052a	8b 01		 mov	 eax, DWORD PTR [ecx]
  0052c	8b 40 38	 mov	 eax, DWORD PTR [eax+56]
  0052f	ff d0		 call	 eax
  00531	8b c8		 mov	 ecx, eax
  00533	89 4d cc	 mov	 DWORD PTR _pIBlock$1$[ebp], ecx

; 797  : 	if( !pIBlock) return TRUE;

  00536	85 c9		 test	 ecx, ecx
  00538	0f 84 e7 00 00
	00		 je	 $LN154@OnMouseMov

; 798  : 
; 799  : 	double dViewMin = m_dViewMin;

  0053e	f2 0f 10 97 d0
	00 00 00	 movsd	 xmm2, QWORD PTR [edi+208]

; 800  : 	double dViewMax = m_dViewMax;

  00546	f2 0f 10 87 d8
	00 00 00	 movsd	 xmm0, QWORD PTR [edi+216]

; 801  : 	if( m_dViewMin != m_dViewMax && point.y != m_ptYZoomStart.y)

  0054e	66 0f 2e d0	 ucomisd xmm2, xmm0
  00552	f2 0f 11 55 ac	 movsd	 QWORD PTR _dViewMin$1$[ebp], xmm2
  00557	9f		 lahf
  00558	f6 c4 44	 test	 ah, 68			; 00000044H
  0055b	0f 8b 92 00 00
	00		 jnp	 $LN54@OnMouseMov
  00561	8b 76 04	 mov	 esi, DWORD PTR [esi+4]
  00564	8b 97 28 01 00
	00		 mov	 edx, DWORD PTR [edi+296]
  0056a	3b f2		 cmp	 esi, edx
  0056c	0f 84 81 00 00
	00		 je	 $LN54@OnMouseMov

; 804  : 		double dFactor = pow( 10, ( double( abs(point.y - m_ptYZoomStart.y)) / m_nScaleHeight) / ( 200. / 100.));

  00572	8b c6		 mov	 eax, esi
  00574	f2 0f 5c c2	 subsd	 xmm0, xmm2
  00578	66 0f 6e 97 30
	01 00 00	 movd	 xmm2, DWORD PTR [edi+304]
  00580	2b c2		 sub	 eax, edx
; File C:\Program Files (x86)\Windows Kits\10\Include\10.0.22000.0\ucrt\stdlib.h

; 365  :         return labs(_X);

  00582	99		 cdq
  00583	33 c2		 xor	 eax, edx
  00585	2b c2		 sub	 eax, edx
; File D:\git\src\IBK\IBK_DRFN\ProjSrc\SrcChartEx\ChartOCX\AddInManager\ChartCommonAddIn\OrderLineAddinImp.cpp

; 804  : 		double dFactor = pow( 10, ( double( abs(point.y - m_ptYZoomStart.y)) / m_nScaleHeight) / ( 200. / 100.));

  00587	f3 0f e6 d2	 cvtdq2pd xmm2, xmm2
  0058b	66 0f 6e c8	 movd	 xmm1, eax
  0058f	f3 0f e6 c9	 cvtdq2pd xmm1, xmm1
  00593	f2 0f 59 05 00
	00 00 00	 mulsd	 xmm0, QWORD PTR __real@3fe0000000000000
  0059b	f2 0f 5e ca	 divsd	 xmm1, xmm2
  0059f	f2 0f 11 45 c0	 movsd	 QWORD PTR _dViewRange$2$[ebp], xmm0
  005a4	f2 0f 59 0d 00
	00 00 00	 mulsd	 xmm1, QWORD PTR __real@3fe0000000000000
  005ac	f2 0f 10 05 00
	00 00 00	 movsd	 xmm0, QWORD PTR __real@4024000000000000
  005b4	e8 00 00 00 00	 call	 __libm_sse2_pow_precise

; 805  : 		if( m_ptYZoomStart.y < point.y) dViewRange /= dFactor;

  005b9	f2 0f 10 4d c0	 movsd	 xmm1, QWORD PTR _dViewRange$2$[ebp]
  005be	39 b7 28 01 00
	00		 cmp	 DWORD PTR [edi+296], esi
  005c4	7d 06		 jge	 SHORT $LN55@OnMouseMov
  005c6	f2 0f 5e c8	 divsd	 xmm1, xmm0
  005ca	eb 04		 jmp	 SHORT $LN56@OnMouseMov
$LN55@OnMouseMov:

; 806  : 		else							dViewRange *= dFactor;

  005cc	f2 0f 59 c8	 mulsd	 xmm1, xmm0
$LN56@OnMouseMov:

; 807  : 
; 808  : 		dViewMin = ( m_dViewMax + m_dViewMin) / 2  - dViewRange;

  005d0	f2 0f 10 87 d8
	00 00 00	 movsd	 xmm0, QWORD PTR [edi+216]
  005d8	f2 0f 58 45 ac	 addsd	 xmm0, QWORD PTR _dViewMin$1$[ebp]
  005dd	8b 4d cc	 mov	 ecx, DWORD PTR _pIBlock$1$[ebp]
  005e0	f2 0f 59 05 00
	00 00 00	 mulsd	 xmm0, QWORD PTR __real@3fe0000000000000
  005e8	0f 28 d0	 movaps	 xmm2, xmm0

; 809  : 		dViewMax = ( m_dViewMax + m_dViewMin) / 2  + dViewRange;

  005eb	f2 0f 58 c1	 addsd	 xmm0, xmm1
  005ef	f2 0f 5c d1	 subsd	 xmm2, xmm1
$LN54@OnMouseMov:

; 810  : 	}
; 811  : 
; 812  : 	pIBlock->SetVScaleMinMaxSetting( m_nVScaleIndex, m_bIsLock,

  005f3	8b 01		 mov	 eax, DWORD PTR [ecx]
  005f5	83 ec 10	 sub	 esp, 16			; 00000010H
  005f8	f2 0f 11 44 24
	08		 movsd	 QWORD PTR [esp+8], xmm0
  005fe	f2 0f 11 14 24	 movsd	 QWORD PTR [esp], xmm2
  00603	6a 02		 push	 2
  00605	ff b7 80 00 00
	00		 push	 DWORD PTR [edi+128]
  0060b	ff b7 2c 01 00
	00		 push	 DWORD PTR [edi+300]
  00611	ff 50 54	 call	 DWORD PTR [eax+84]

; 813  : 									 CScaleBaseData::VERTMINMAXTYPE::VERT_MINMAX_OF_USER,
; 814  : 									 dViewMin, dViewMax);
; 815  : 	pIBlock->Release();

  00614	8b 4d cc	 mov	 ecx, DWORD PTR _pIBlock$1$[ebp]
  00617	51		 push	 ecx
  00618	8b 01		 mov	 eax, DWORD PTR [ecx]
  0061a	ff 50 08	 call	 DWORD PTR [eax+8]

; 816  : 
; 817  : 	m_pIChartOCX->InvalidateControl();

  0061d	8b 4f 04	 mov	 ecx, DWORD PTR [edi+4]
  00620	8b 01		 mov	 eax, DWORD PTR [ecx]
  00622	ff 50 38	 call	 DWORD PTR [eax+56]
$LN154@OnMouseMov:

; 638  : 			return TRUE;

  00625	b8 01 00 00 00	 mov	 eax, 1
  0062a	eb 02		 jmp	 SHORT $LN1@OnMouseMov
$LN153@OnMouseMov:

; 634  : 				return FALSE;

  0062c	33 c0		 xor	 eax, eax
$LN1@OnMouseMov:

; 759  : }

  0062e	8b 4d f4	 mov	 ecx, DWORD PTR __$EHRec$[ebp]
  00631	64 89 0d 00 00
	00 00		 mov	 DWORD PTR fs:0, ecx
  00638	59		 pop	 ecx
  00639	5f		 pop	 edi
  0063a	5e		 pop	 esi
  0063b	8b 4d f0	 mov	 ecx, DWORD PTR __$ArrayPad$[ebp]
  0063e	33 cd		 xor	 ecx, ebp
  00640	e8 00 00 00 00	 call	 @__security_check_cookie@4
  00645	8b e5		 mov	 esp, ebp
  00647	5d		 pop	 ebp
  00648	c2 14 00	 ret	 20			; 00000014H
_TEXT	ENDS
;	COMDAT text$x
text$x	SEGMENT
__unwindfunclet$?OnMouseMove@COrderLineAddInImp@@MAEHPAUHDC__@@IAAUtagPOINT@@KQAUHBITMAP__@@@Z$0:
  00000	8d 4d c0	 lea	 ecx, DWORD PTR _szGraphName$6[ebp]
  00003	e9 00 00 00 00	 jmp	 ??1ILPCSTR000000@@QAE@XZ ; ILPCSTR000000::~ILPCSTR000000
  00008	cc		 int	 3
  00009	cc		 int	 3
  0000a	cc		 int	 3
  0000b	cc		 int	 3
  0000c	cc		 int	 3
__ehhandler$?OnMouseMove@COrderLineAddInImp@@MAEHPAUHDC__@@IAAUtagPOINT@@KQAUHBITMAP__@@@Z:
  0000d	90		 npad	 1
  0000e	90		 npad	 1
  0000f	8b 54 24 08	 mov	 edx, DWORD PTR [esp+8]
  00013	8d 42 0c	 lea	 eax, DWORD PTR [edx+12]
  00016	8b 4a ac	 mov	 ecx, DWORD PTR [edx-84]
  00019	33 c8		 xor	 ecx, eax
  0001b	e8 00 00 00 00	 call	 @__security_check_cookie@4
  00020	8b 4a fc	 mov	 ecx, DWORD PTR [edx-4]
  00023	33 c8		 xor	 ecx, eax
  00025	e8 00 00 00 00	 call	 @__security_check_cookie@4
  0002a	b8 00 00 00 00	 mov	 eax, OFFSET __ehfuncinfo$?OnMouseMove@COrderLineAddInImp@@MAEHPAUHDC__@@IAAUtagPOINT@@KQAUHBITMAP__@@@Z
  0002f	e9 00 00 00 00	 jmp	 ___CxxFrameHandler3
text$x	ENDS
?OnMouseMove@COrderLineAddInImp@@MAEHPAUHDC__@@IAAUtagPOINT@@KQAUHBITMAP__@@@Z ENDP ; COrderLineAddInImp::OnMouseMove
; Function compile flags: /Ogtp
; File D:\git\src\IBK\IBK_DRFN\ProjSrc\SrcChartEx\ChartOCX\AddInManager\ChartCommonAddIn\OrderLineAddinImp.cpp
; File C:\Program Files (x86)\Microsoft Visual Studio\2019\Community\VC\Tools\MSVC\14.29.30133\atlmfc\include\atltypes.h
; File D:\git\src\IBK\IBK_DRFN\ProjSrc\SrcChartEx\ChartOCX\AddInManager\ChartCommonAddIn\OrderLineAddinImp.cpp
;	COMDAT ?DrawCursor@COrderLineAddInImp@@MAE?AUtagRECT@@PAUHDC__@@@Z
_TEXT	SEGMENT
_rt$ = -20						; size = 16
__$ArrayPad$ = -4					; size = 4
___$ReturnUdt$ = 8					; size = 4
_p_hDC$ = 12						; size = 4
?DrawCursor@COrderLineAddInImp@@MAE?AUtagRECT@@PAUHDC__@@@Z PROC ; COrderLineAddInImp::DrawCursor, COMDAT
; _this$ = ecx

; 442  : {

  00000	55		 push	 ebp
  00001	8b ec		 mov	 ebp, esp
  00003	83 ec 14	 sub	 esp, 20			; 00000014H
  00006	a1 00 00 00 00	 mov	 eax, DWORD PTR ___security_cookie
  0000b	33 c5		 xor	 eax, ebp
  0000d	89 45 fc	 mov	 DWORD PTR __$ArrayPad$[ebp], eax
  00010	56		 push	 esi
  00011	8b 75 08	 mov	 esi, DWORD PTR ___$ReturnUdt$[ebp]
; File C:\Program Files (x86)\Microsoft Visual Studio\2019\Community\VC\Tools\MSVC\14.29.30133\atlmfc\include\atltypes.h

; 669  : 	::SetRectEmpty(this);

  00014	8d 45 ec	 lea	 eax, DWORD PTR _rt$[ebp]
  00017	0f 57 c0	 xorps	 xmm0, xmm0
  0001a	50		 push	 eax

; 528  : 	left = 0;

  0001b	0f 11 45 ec	 movups	 XMMWORD PTR _rt$[ebp], xmm0

; 669  : 	::SetRectEmpty(this);

  0001f	ff 15 00 00 00
	00		 call	 DWORD PTR __imp__SetRectEmpty@4
; File D:\git\src\IBK\IBK_DRFN\ProjSrc\SrcChartEx\ChartOCX\AddInManager\ChartCommonAddIn\OrderLineAddinImp.cpp

; 448  : 	return rt;

  00025	0f 10 45 ec	 movups	 xmm0, XMMWORD PTR _rt$[ebp]

; 449  : }

  00029	8b 4d fc	 mov	 ecx, DWORD PTR __$ArrayPad$[ebp]
  0002c	8b c6		 mov	 eax, esi
  0002e	33 cd		 xor	 ecx, ebp
  00030	0f 11 06	 movups	 XMMWORD PTR [esi], xmm0
  00033	5e		 pop	 esi
  00034	e8 00 00 00 00	 call	 @__security_check_cookie@4
  00039	8b e5		 mov	 esp, ebp
  0003b	5d		 pop	 ebp
  0003c	c2 08 00	 ret	 8
?DrawCursor@COrderLineAddInImp@@MAE?AUtagRECT@@PAUHDC__@@@Z ENDP ; COrderLineAddInImp::DrawCursor
_TEXT	ENDS
; Function compile flags: /Ogtp
; File D:\git\src\IBK\IBK_DRFN\ProjSrc\SrcChartEx\ChartOCX\AddInManager\ChartCommonAddIn\OrderLineAddinImp.cpp
;	COMDAT ?OnDrawBeforeGraph@COrderLineAddInImp@@MAEXPAUHDC__@@@Z
_TEXT	SEGMENT
_p_hDC$ = 8						; size = 4
?OnDrawBeforeGraph@COrderLineAddInImp@@MAEXPAUHDC__@@@Z PROC ; COrderLineAddInImp::OnDrawBeforeGraph, COMDAT
; _this$ = ecx

; 438  : 	if( !m_bRun )	return;	
; 439  : }

  00000	c2 04 00	 ret	 4
?OnDrawBeforeGraph@COrderLineAddInImp@@MAEXPAUHDC__@@@Z ENDP ; COrderLineAddInImp::OnDrawBeforeGraph
_TEXT	ENDS
; Function compile flags: /Ogtp
; File D:\git\src\IBK\IBK_DRFN\ProjSrc\SrcChartEx\ChartOCX\AddInManager\ChartCommonAddIn\OrderLineAddinImp.cpp
; File D:\git\src\IBK\IBK_DRFN\ProjSrc\SrcChartEx\ChartOCX\AddInManager\Include_AddIn\I000000\_IString.h
; File D:\git\src\IBK\IBK_DRFN\ProjSrc\SrcChartEx\ChartOCX\AddInManager\ChartCommonAddIn\OrderLineAddinImp.cpp
; File D:\git\src\IBK\IBK_DRFN\ProjSrc\SrcChartEx\ChartOCX\AddInManager\Include_AddIn\I000000\_IString.h
; File D:\git\src\IBK\IBK_DRFN\ProjSrc\SrcChartEx\ChartOCX\AddInManager\ChartCommonAddIn\OrderLineAddinImp.cpp
; File D:\git\src\IBK\IBK_DRFN\ProjSrc\SrcChartEx\ChartOCX\AddInManager\Include_AddIn\I000000\_IString.h
; File D:\git\src\IBK\IBK_DRFN\ProjSrc\SrcChartEx\ChartOCX\AddInManager\ChartCommonAddIn\OrderLineAddinImp.cpp
; File D:\git\src\IBK\IBK_DRFN\ProjSrc\SrcChartEx\ChartOCX\AddInManager\Include_AddIn\I000000\_IString.h
; File D:\git\src\IBK\IBK_DRFN\ProjSrc\SrcChartEx\ChartOCX\AddInManager\ChartCommonAddIn\OrderLineAddinImp.cpp
; File D:\git\src\IBK\IBK_DRFN\ProjSrc\SrcChartEx\ChartOCX\AddInManager\Include_AddIn\I000000\_IString.h
; File D:\git\src\IBK\IBK_DRFN\ProjSrc\SrcChartEx\ChartOCX\AddInManager\ChartCommonAddIn\OrderLineAddinImp.cpp
; File C:\Program Files (x86)\Microsoft Visual Studio\2019\Community\VC\Tools\MSVC\14.29.30133\atlmfc\include\afxcoll.inl
; File D:\git\src\IBK\IBK_DRFN\ProjSrc\SrcChartEx\ChartOCX\AddInManager\ChartCommonAddIn\OrderLineAddinImp.cpp
;	COMDAT ?OnDrawAfterGraph@COrderLineAddInImp@@MAEXPAUHDC__@@@Z
_TEXT	SEGMENT
_szGraphName$2 = -36					; size = 8
_nV$3 = -28						; size = 4
_nG$4 = -24						; size = 4
_nR$5 = -20						; size = 4
_nC$6 = -16						; size = 4
__$EHRec$ = -12						; size = 12
_pDC$1$ = 8						; size = 4
_p_hDC$ = 8						; size = 4
?OnDrawAfterGraph@COrderLineAddInImp@@MAEXPAUHDC__@@@Z PROC ; COrderLineAddInImp::OnDrawAfterGraph, COMDAT
; _this$ = ecx

; 411  : {

  00000	55		 push	 ebp
  00001	8b ec		 mov	 ebp, esp
  00003	6a ff		 push	 -1
  00005	68 00 00 00 00	 push	 __ehhandler$?OnDrawAfterGraph@COrderLineAddInImp@@MAEXPAUHDC__@@@Z
  0000a	64 a1 00 00 00
	00		 mov	 eax, DWORD PTR fs:0
  00010	50		 push	 eax
  00011	83 ec 18	 sub	 esp, 24			; 00000018H
  00014	53		 push	 ebx
  00015	56		 push	 esi
  00016	57		 push	 edi
  00017	a1 00 00 00 00	 mov	 eax, DWORD PTR ___security_cookie
  0001c	33 c5		 xor	 eax, ebp
  0001e	50		 push	 eax
  0001f	8d 45 f4	 lea	 eax, DWORD PTR __$EHRec$[ebp]
  00022	64 a3 00 00 00
	00		 mov	 DWORD PTR fs:0, eax
  00028	8b d9		 mov	 ebx, ecx

; 412  : 	if( !m_bRun )	return;

  0002a	83 7b 7c 00	 cmp	 DWORD PTR [ebx+124], 0
  0002e	0f 84 f1 00 00
	00		 je	 $LN40@OnDrawAfte

; 413  : 
; 414  : 	// 2. ""    .
; 415  : 	if( m_pIChartOCX->IsOnSpecialChart()) return;

  00034	8b 4b 04	 mov	 ecx, DWORD PTR [ebx+4]
  00037	8b 01		 mov	 eax, DWORD PTR [ecx]
  00039	ff 90 84 00 00
	00		 call	 DWORD PTR [eax+132]
  0003f	85 c0		 test	 eax, eax
  00041	0f 85 de 00 00
	00		 jne	 $LN40@OnDrawAfte

; 1000 : 	ILPCSTR szGraphName = m_pIChartManager->FindFirstIndicator( _MTEXT( C2_PRICE_CHART), nR, nC, nV, nG, "DEFAULT");

  00047	8b 4b 1c	 mov	 ecx, DWORD PTR [ebx+28]
  0004a	8d 45 e8	 lea	 eax, DWORD PTR _nG$4[ebp]
  0004d	68 00 00 00 00	 push	 OFFSET ??_C@_07MGCPDNLD@DEFAULT@
  00052	50		 push	 eax
  00053	8d 45 e4	 lea	 eax, DWORD PTR _nV$3[ebp]
  00056	8b 11		 mov	 edx, DWORD PTR [ecx]
  00058	50		 push	 eax
  00059	8d 45 f0	 lea	 eax, DWORD PTR _nC$6[ebp]
  0005c	50		 push	 eax
  0005d	8d 45 ec	 lea	 eax, DWORD PTR _nR$5[ebp]
  00060	50		 push	 eax
  00061	a1 54 00 00 00	 mov	 eax, DWORD PTR ?g_iMetaTable@@3VIMetaTable@@A+84
  00066	ff b0 28 03 00
	00		 push	 DWORD PTR [eax+808]
  0006c	ff 52 70	 call	 DWORD PTR [edx+112]
; File D:\git\src\IBK\IBK_DRFN\ProjSrc\SrcChartEx\ChartOCX\AddInManager\Include_AddIn\I000000\_IString.h

; 39   : 		m_pIStrData = p_pIString;	// Do not AddRef(). Because It must be Return Value.

  0006f	8b f0		 mov	 esi, eax
  00071	89 75 e0	 mov	 DWORD PTR _szGraphName$2[ebp+4], esi

; 40   : 		if( m_pIStrData) m_szData = m_pIStrData->GetData();

  00074	85 f6		 test	 esi, esi
  00076	74 09		 je	 SHORT $LN16@OnDrawAfte
  00078	8b 16		 mov	 edx, DWORD PTR [esi]
  0007a	8b ce		 mov	 ecx, esi
  0007c	ff 52 10	 call	 DWORD PTR [edx+16]
  0007f	eb 02		 jmp	 SHORT $LN47@OnDrawAfte
$LN16@OnDrawAfte:

; 41   : 		else m_szData = NULL;

  00081	33 c0		 xor	 eax, eax
$LN47@OnDrawAfte:
; File D:\git\src\IBK\IBK_DRFN\ProjSrc\SrcChartEx\ChartOCX\AddInManager\ChartCommonAddIn\OrderLineAddinImp.cpp

; 1000 : 	ILPCSTR szGraphName = m_pIChartManager->FindFirstIndicator( _MTEXT( C2_PRICE_CHART), nR, nC, nV, nG, "DEFAULT");

  00083	89 45 dc	 mov	 DWORD PTR _szGraphName$2[ebp], eax
  00086	c7 45 fc 00 00
	00 00		 mov	 DWORD PTR __$EHRec$[ebp+8], 0
; File D:\git\src\IBK\IBK_DRFN\ProjSrc\SrcChartEx\ChartOCX\AddInManager\Include_AddIn\I000000\_IString.h

; 57   : 		if( !m_szData) return TRUE;

  0008d	85 c0		 test	 eax, eax
  0008f	74 46		 je	 SHORT $LN44@OnDrawAfte
; File D:\git\src\IBK\IBK_DRFN\ProjSrc\SrcChartEx\ChartOCX\AddInManager\ChartCommonAddIn\OrderLineAddinImp.cpp

; 1001 : 	if( szGraphName.IsEmpty()) return FALSE;

  00091	80 38 00	 cmp	 BYTE PTR [eax], 0
  00094	74 41		 je	 SHORT $LN44@OnDrawAfte

; 1002 : 
; 1003 : 	IBlock *pIBlock = m_pIChartManager->GetBlock( nR, nC );

  00096	8b 4b 1c	 mov	 ecx, DWORD PTR [ebx+28]
  00099	ff 75 f0	 push	 DWORD PTR _nC$6[ebp]
  0009c	ff 75 ec	 push	 DWORD PTR _nR$5[ebp]
  0009f	8b 01		 mov	 eax, DWORD PTR [ecx]
  000a1	ff 50 38	 call	 DWORD PTR [eax+56]
  000a4	8b f8		 mov	 edi, eax

; 1004 : 	if( !pIBlock )

  000a6	85 ff		 test	 edi, edi
  000a8	75 09		 jne	 SHORT $LN12@OnDrawAfte
; File D:\git\src\IBK\IBK_DRFN\ProjSrc\SrcChartEx\ChartOCX\AddInManager\Include_AddIn\I000000\_IString.h

; 44   : 	{

  000aa	c7 45 fc 02 00
	00 00		 mov	 DWORD PTR __$EHRec$[ebp+8], 2
  000b1	eb 2b		 jmp	 SHORT $LN49@OnDrawAfte
$LN12@OnDrawAfte:
; File D:\git\src\IBK\IBK_DRFN\ProjSrc\SrcChartEx\ChartOCX\AddInManager\ChartCommonAddIn\OrderLineAddinImp.cpp

; 1008 : 	pIBlock->GetVertScaleRegion(m_rctLVScaleRegion, m_rctRVScaleRegion);

  000b3	8b 17		 mov	 edx, DWORD PTR [edi]
  000b5	8d 83 bc 00 00
	00		 lea	 eax, DWORD PTR [ebx+188]
  000bb	50		 push	 eax
  000bc	8d 83 ac 00 00
	00		 lea	 eax, DWORD PTR [ebx+172]
  000c2	8b cf		 mov	 ecx, edi
  000c4	50		 push	 eax
  000c5	ff 52 18	 call	 DWORD PTR [edx+24]

; 1009 : 	pIBlock->Release();

  000c8	8b 07		 mov	 eax, DWORD PTR [edi]
  000ca	57		 push	 edi
  000cb	ff 50 08	 call	 DWORD PTR [eax+8]
; File D:\git\src\IBK\IBK_DRFN\ProjSrc\SrcChartEx\ChartOCX\AddInManager\Include_AddIn\I000000\_IString.h

; 44   : 	{

  000ce	c7 45 fc 03 00
	00 00		 mov	 DWORD PTR __$EHRec$[ebp+8], 3

; 45   : 		if( m_pIStrData)
; 46   : 		{
; 47   : 			m_pIStrData->Release();

  000d5	eb 07		 jmp	 SHORT $LN49@OnDrawAfte
$LN44@OnDrawAfte:

; 44   : 	{

  000d7	c7 45 fc 01 00
	00 00		 mov	 DWORD PTR __$EHRec$[ebp+8], 1
$LN49@OnDrawAfte:

; 51   : 	}

  000de	85 f6		 test	 esi, esi
  000e0	74 06		 je	 SHORT $LN31@OnDrawAfte
  000e2	8b 06		 mov	 eax, DWORD PTR [esi]
  000e4	56		 push	 esi
  000e5	ff 50 08	 call	 DWORD PTR [eax+8]
$LN31@OnDrawAfte:
; File D:\git\src\IBK\IBK_DRFN\ProjSrc\SrcChartEx\ChartOCX\AddInManager\ChartCommonAddIn\OrderLineAddinImp.cpp

; 421  : 	CDC *pDC = CDC::FromHandle( p_hDC);

  000e8	ff 75 08	 push	 DWORD PTR _p_hDC$[ebp]
; File D:\git\src\IBK\IBK_DRFN\ProjSrc\SrcChartEx\ChartOCX\AddInManager\Include_AddIn\I000000\_IString.h

; 51   : 	}

  000eb	c7 45 fc ff ff
	ff ff		 mov	 DWORD PTR __$EHRec$[ebp+8], -1
; File D:\git\src\IBK\IBK_DRFN\ProjSrc\SrcChartEx\ChartOCX\AddInManager\ChartCommonAddIn\OrderLineAddinImp.cpp

; 421  : 	CDC *pDC = CDC::FromHandle( p_hDC);

  000f2	e8 00 00 00 00	 call	 ?FromHandle@CDC@@SGPAV1@PAUHDC__@@@Z ; CDC::FromHandle
  000f7	89 45 08	 mov	 DWORD PTR _pDC$1$[ebp], eax

; 422  : 	if( !pDC) return;

  000fa	85 c0		 test	 eax, eax
  000fc	74 27		 je	 SHORT $LN40@OnDrawAfte

; 423  : 
; 424  : 	POSITION pos;
; 425  : 	COrderLine* pOrderLine;
; 426  : 	for (pos = m_OrderLineList.GetHeadPosition(); pos != NULL;)

  000fe	8b 73 5c	 mov	 esi, DWORD PTR [ebx+92]
  00101	85 f6		 test	 esi, esi
  00103	74 20		 je	 SHORT $LN40@OnDrawAfte
$LL2@OnDrawAfte:

; 427  : 	{
; 428  : 		pOrderLine = (COrderLine*)m_OrderLineList.GetNext(pos);

  00105	8b 7e 08	 mov	 edi, DWORD PTR [esi+8]
; File C:\Program Files (x86)\Microsoft Visual Studio\2019\Community\VC\Tools\MSVC\14.29.30133\atlmfc\include\afxcoll.inl

; 432  : 		rPosition = (POSITION) pNode->pNext;

  00108	8b 36		 mov	 esi, DWORD PTR [esi]
; File D:\git\src\IBK\IBK_DRFN\ProjSrc\SrcChartEx\ChartOCX\AddInManager\ChartCommonAddIn\OrderLineAddinImp.cpp

; 429  : 		if(!pOrderLine) return;

  0010a	85 ff		 test	 edi, edi
  0010c	74 17		 je	 SHORT $LN40@OnDrawAfte

; 430  : 
; 431  : 		CheckIsLineInScreen(pOrderLine);

  0010e	57		 push	 edi
  0010f	8d 4b f8	 lea	 ecx, DWORD PTR [ebx-8]
  00112	e8 00 00 00 00	 call	 ?CheckIsLineInScreen@COrderLineAddInImp@@QAEXPAVCOrderLine@@@Z ; COrderLineAddInImp::CheckIsLineInScreen

; 432  : 		pOrderLine->Draw(pDC);		

  00117	ff 75 08	 push	 DWORD PTR _pDC$1$[ebp]
  0011a	8b cf		 mov	 ecx, edi
  0011c	e8 00 00 00 00	 call	 ?Draw@COrderLine@@QAEXPAVCDC@@@Z ; COrderLine::Draw
  00121	85 f6		 test	 esi, esi
  00123	75 e0		 jne	 SHORT $LL2@OnDrawAfte
$LN40@OnDrawAfte:

; 433  : 	}	
; 434  : }

  00125	8b 4d f4	 mov	 ecx, DWORD PTR __$EHRec$[ebp]
  00128	64 89 0d 00 00
	00 00		 mov	 DWORD PTR fs:0, ecx
  0012f	59		 pop	 ecx
  00130	5f		 pop	 edi
  00131	5e		 pop	 esi
  00132	5b		 pop	 ebx
  00133	8b e5		 mov	 esp, ebp
  00135	5d		 pop	 ebp
  00136	c2 04 00	 ret	 4
_TEXT	ENDS
;	COMDAT text$x
text$x	SEGMENT
__unwindfunclet$?OnDrawAfterGraph@COrderLineAddInImp@@MAEXPAUHDC__@@@Z$0:
  00000	8d 4d dc	 lea	 ecx, DWORD PTR _szGraphName$2[ebp]
  00003	e9 00 00 00 00	 jmp	 ??1ILPCSTR000000@@QAE@XZ ; ILPCSTR000000::~ILPCSTR000000
  00008	cc		 int	 3
  00009	cc		 int	 3
  0000a	cc		 int	 3
  0000b	cc		 int	 3
  0000c	cc		 int	 3
__ehhandler$?OnDrawAfterGraph@COrderLineAddInImp@@MAEXPAUHDC__@@@Z:
  0000d	90		 npad	 1
  0000e	90		 npad	 1
  0000f	8b 54 24 08	 mov	 edx, DWORD PTR [esp+8]
  00013	8d 42 0c	 lea	 eax, DWORD PTR [edx+12]
  00016	8b 4a d8	 mov	 ecx, DWORD PTR [edx-40]
  00019	33 c8		 xor	 ecx, eax
  0001b	e8 00 00 00 00	 call	 @__security_check_cookie@4
  00020	b8 00 00 00 00	 mov	 eax, OFFSET __ehfuncinfo$?OnDrawAfterGraph@COrderLineAddInImp@@MAEXPAUHDC__@@@Z
  00025	e9 00 00 00 00	 jmp	 ___CxxFrameHandler3
text$x	ENDS
?OnDrawAfterGraph@COrderLineAddInImp@@MAEXPAUHDC__@@@Z ENDP ; COrderLineAddInImp::OnDrawAfterGraph
; Function compile flags: /Ogtp
; File D:\git\src\IBK\IBK_DRFN\ProjSrc\SrcChartEx\ChartOCX\AddInManager\ChartCommonAddIn\OrderLineAddinImp.cpp
; File C:\Program Files (x86)\Microsoft Visual Studio\2019\Community\VC\Tools\MSVC\14.29.30133\atlmfc\include\afxcoll.inl
; File D:\git\src\IBK\IBK_DRFN\ProjSrc\SrcChartEx\ChartOCX\AddInManager\ChartCommonAddIn\OrderLineAddinImp.cpp
;	COMDAT ?OnResetChart@COrderLineAddInImp@@MAEXXZ
_TEXT	SEGMENT
?OnResetChart@COrderLineAddInImp@@MAEXXZ PROC		; COrderLineAddInImp::OnResetChart, COMDAT
; _this$ = ecx

; 1043 : {

  00000	56		 push	 esi
  00001	57		 push	 edi
  00002	8b f9		 mov	 edi, ecx

; 1051 : 	POSITION pos = m_OrderLineList.GetHeadPosition();

  00004	8b 77 5c	 mov	 esi, DWORD PTR [edi+92]

; 1052 : 	while (pos)

  00007	85 f6		 test	 esi, esi
  00009	74 18		 je	 SHORT $LN5@OnResetCha
  0000b	0f 1f 44 00 00	 npad	 5
$LL4@OnResetCha:

; 1055 : 		delete pLineOrder;

  00010	8b 4e 08	 mov	 ecx, DWORD PTR [esi+8]
; File C:\Program Files (x86)\Microsoft Visual Studio\2019\Community\VC\Tools\MSVC\14.29.30133\atlmfc\include\afxcoll.inl

; 432  : 		rPosition = (POSITION) pNode->pNext;

  00013	8b 36		 mov	 esi, DWORD PTR [esi]
; File D:\git\src\IBK\IBK_DRFN\ProjSrc\SrcChartEx\ChartOCX\AddInManager\ChartCommonAddIn\OrderLineAddinImp.cpp

; 1055 : 		delete pLineOrder;

  00015	85 c9		 test	 ecx, ecx
  00017	74 06		 je	 SHORT $LN7@OnResetCha
  00019	8b 01		 mov	 eax, DWORD PTR [ecx]
  0001b	6a 01		 push	 1
  0001d	ff 10		 call	 DWORD PTR [eax]
$LN7@OnResetCha:

; 1052 : 	while (pos)

  0001f	85 f6		 test	 esi, esi
  00021	75 ed		 jne	 SHORT $LL4@OnResetCha
$LN5@OnResetCha:

; 1056 : 		pLineOrder = NULL;
; 1057 : 	}
; 1058 : 	m_OrderLineList.RemoveAll();

  00023	8d 4f 58	 lea	 ecx, DWORD PTR [edi+88]
  00026	e8 00 00 00 00	 call	 ?RemoveAll@CObList@@QAEXXZ ; CObList::RemoveAll

; 1059 : 	m_pSelectedOrderLine = NULL;

  0002b	c7 47 38 00 00
	00 00		 mov	 DWORD PTR [edi+56], 0
  00032	5f		 pop	 edi
  00033	5e		 pop	 esi

; 1044 : //	OnAddInToolCommand( EAI_CUSTOM_ENABLE_BOUNDMARK, TRUE);
; 1045 : 	SetRemove_OrderLine();
; 1046 : }

  00034	c3		 ret	 0
?OnResetChart@COrderLineAddInImp@@MAEXXZ ENDP		; COrderLineAddInImp::OnResetChart
_TEXT	ENDS
; Function compile flags: /Ogtp
; File D:\git\src\IBK\IBK_DRFN\ProjSrc\SrcChartEx\ChartOCX\AddInManager\ChartCommonAddIn\OrderLineAddinImp.cpp
;	COMDAT ?InvokeAddInStr@COrderLineAddInImp@@MAEHPBD0@Z
_TEXT	SEGMENT
_p_szCommandName$ = 8					; size = 4
_p_szData$ = 12						; size = 4
?InvokeAddInStr@COrderLineAddInImp@@MAEHPBD0@Z PROC	; COrderLineAddInImp::InvokeAddInStr, COMDAT
; _this$ = ecx

; 1241 : {

  00000	55		 push	 ebp
  00001	8b ec		 mov	 ebp, esp
  00003	56		 push	 esi

; 1242 : 	// Load Chart Data Info I
; 1243 : 	if( stricmp(p_szData, "ON") == 0 )

  00004	68 00 00 00 00	 push	 OFFSET ??_C@_02BFICIOJL@ON@
  00009	ff 75 0c	 push	 DWORD PTR _p_szData$[ebp]
  0000c	8b f1		 mov	 esi, ecx
  0000e	ff 15 00 00 00
	00		 call	 DWORD PTR __imp__stricmp
  00014	8b 4e 24	 mov	 ecx, DWORD PTR [esi+36]
  00017	83 c4 08	 add	 esp, 8
  0001a	ff 76 10	 push	 DWORD PTR [esi+16]
  0001d	85 c0		 test	 eax, eax
  0001f	75 0e		 jne	 SHORT $LN2@InvokeAddI

; 1244 : 	{
; 1245 : 		m_bRun = TRUE;

  00021	c7 46 7c 01 00
	00 00		 mov	 DWORD PTR [esi+124], 1

; 1246 : 		// (2008/9/13 - Seung-Won, Bae) Set Mouse Exclusive
; 1247 : 		m_pIAddInToolMgr->GetAllMouseExclusive( m_pIAddInDllBase);

  00028	8b 01		 mov	 eax, DWORD PTR [ecx]
  0002a	ff 50 24	 call	 DWORD PTR [eax+36]

; 1248 : 	}

  0002d	eb 0c		 jmp	 SHORT $LN3@InvokeAddI
$LN2@InvokeAddI:

; 1249 : 	else
; 1250 : 	{
; 1251 : 		m_bRun = FALSE;

  0002f	c7 46 7c 00 00
	00 00		 mov	 DWORD PTR [esi+124], 0

; 1252 : 		// (2008/9/13 - Seung-Won, Bae) Set Mouse Exclusive
; 1253 : 		m_pIAddInToolMgr->ReleaseAllMouseExclusive( m_pIAddInDllBase);

  00036	8b 01		 mov	 eax, DWORD PTR [ecx]
  00038	ff 50 2c	 call	 DWORD PTR [eax+44]
$LN3@InvokeAddI:

; 1254 : 	}
; 1255 : 
; 1256 : 	m_pIChartOCX->RunToolCommand( CToolOptionInfo::T_TOOL_SELECTION, 1);

  0003b	8b 4e 04	 mov	 ecx, DWORD PTR [esi+4]
  0003e	6a 01		 push	 1
  00040	6a 20		 push	 32			; 00000020H
  00042	8b 01		 mov	 eax, DWORD PTR [ecx]
  00044	ff 90 b4 01 00
	00		 call	 DWORD PTR [eax+436]

; 1257 : 	return TRUE;

  0004a	b8 01 00 00 00	 mov	 eax, 1
  0004f	5e		 pop	 esi

; 1258 : }

  00050	5d		 pop	 ebp
  00051	c2 08 00	 ret	 8
?InvokeAddInStr@COrderLineAddInImp@@MAEHPBD0@Z ENDP	; COrderLineAddInImp::InvokeAddInStr
_TEXT	ENDS
; Function compile flags: /Ogtp
; File D:\git\src\IBK\IBK_DRFN\ProjSrc\SrcChartEx\ChartOCX\AddInManager\ChartCommonAddIn\OrderLineAddinImp.cpp
;	COMDAT ?OnLButtonUpForYZoom@COrderLineAddInImp@@IAEHPAUHDC__@@IAAUtagPOINT@@K@Z
_TEXT	SEGMENT
_p_hDC$ = 8						; size = 4
_nFlags$ = 12						; size = 4
_point$ = 16						; size = 4
_p_dwMouseActionID$ = 20				; size = 4
?OnLButtonUpForYZoom@COrderLineAddInImp@@IAEHPAUHDC__@@IAAUtagPOINT@@K@Z PROC ; COrderLineAddInImp::OnLButtonUpForYZoom, COMDAT
; _this$ = ecx

; 822  : {

  00000	56		 push	 esi
  00001	8b f1		 mov	 esi, ecx

; 823  : 	if( m_ptYZoomStart.x < 0 && m_ptYZoomStart.y < 0) return FALSE;

  00003	83 be 2c 01 00
	00 00		 cmp	 DWORD PTR [esi+300], 0
  0000a	7d 0f		 jge	 SHORT $LN2@OnLButtonU
  0000c	83 be 30 01 00
	00 00		 cmp	 DWORD PTR [esi+304], 0
  00013	7d 06		 jge	 SHORT $LN2@OnLButtonU
  00015	33 c0		 xor	 eax, eax
  00017	5e		 pop	 esi

; 833  : }

  00018	c2 10 00	 ret	 16			; 00000010H
$LN2@OnLButtonU:

; 824  : 
; 825  : 	m_pIAddInToolMgr->ReleaseLButtonExclusive( m_pIAddInDllBase);

  0001b	8b 4e 2c	 mov	 ecx, DWORD PTR [esi+44]
  0001e	ff 76 18	 push	 DWORD PTR [esi+24]
  00021	8b 01		 mov	 eax, DWORD PTR [ecx]
  00023	ff 50 38	 call	 DWORD PTR [eax+56]

; 826  : //	m_pChartCWnd->SendMessage( UM_CURSOR_EXCHANGE, ( WPARAM)CCursorShape::OBJECT_NONE, NULL);
; 827  : 
; 828  : 	m_ptYZoomStart.x = -1;

  00026	c7 86 2c 01 00
	00 ff ff ff ff	 mov	 DWORD PTR [esi+300], -1

; 829  : 	m_ptYZoomStart.y = -1;
; 830  : 
; 831  : 	m_bSplit = FALSE;
; 832  : 	return TRUE;

  00030	b8 01 00 00 00	 mov	 eax, 1
  00035	c7 86 30 01 00
	00 ff ff ff ff	 mov	 DWORD PTR [esi+304], -1
  0003f	c7 86 90 00 00
	00 00 00 00 00	 mov	 DWORD PTR [esi+144], 0
  00049	5e		 pop	 esi

; 833  : }

  0004a	c2 10 00	 ret	 16			; 00000010H
?OnLButtonUpForYZoom@COrderLineAddInImp@@IAEHPAUHDC__@@IAAUtagPOINT@@K@Z ENDP ; COrderLineAddInImp::OnLButtonUpForYZoom
_TEXT	ENDS
; Function compile flags: /Ogtp
; File D:\git\src\IBK\IBK_DRFN\ProjSrc\SrcChartEx\ChartOCX\AddInManager\ChartCommonAddIn\OrderLineAddinImp.cpp
; File C:\Program Files (x86)\Windows Kits\10\Include\10.0.22000.0\ucrt\stdlib.h
; File D:\git\src\IBK\IBK_DRFN\ProjSrc\SrcChartEx\ChartOCX\AddInManager\ChartCommonAddIn\OrderLineAddinImp.cpp
;	COMDAT ?OnMouseMoveForYZoom@COrderLineAddInImp@@IAEHPAUHDC__@@IAAUtagPOINT@@KQAUHBITMAP__@@@Z
_TEXT	SEGMENT
_dViewMin$1$ = -16					; size = 8
_dViewRange$2$ = -8					; size = 8
_p_hDC$ = 8						; size = 4
_nFlags$ = 12						; size = 4
_point$ = 16						; size = 4
_p_dwMouseActionID$ = 20				; size = 4
_p_hbmpMainOSB$ = 24					; size = 4
?OnMouseMoveForYZoom@COrderLineAddInImp@@IAEHPAUHDC__@@IAAUtagPOINT@@KQAUHBITMAP__@@@Z PROC ; COrderLineAddInImp::OnMouseMoveForYZoom, COMDAT
; _this$ = ecx

; 792  : {

  00000	55		 push	 ebp
  00001	8b ec		 mov	 ebp, esp
  00003	83 ec 10	 sub	 esp, 16			; 00000010H
  00006	56		 push	 esi
  00007	8b f1		 mov	 esi, ecx

; 793  : 	if( m_ptYZoomStart.x < 0 && m_ptYZoomStart.y < 0) return FALSE;

  00009	83 be 2c 01 00
	00 00		 cmp	 DWORD PTR [esi+300], 0
  00010	7d 12		 jge	 SHORT $LN13@OnMouseMov
  00012	83 be 30 01 00
	00 00		 cmp	 DWORD PTR [esi+304], 0
  00019	7d 09		 jge	 SHORT $LN13@OnMouseMov
  0001b	33 c0		 xor	 eax, eax
  0001d	5e		 pop	 esi

; 818  : 	return TRUE;
; 819  : }

  0001e	8b e5		 mov	 esp, ebp
  00020	5d		 pop	 ebp
  00021	c2 14 00	 ret	 20			; 00000014H
$LN13@OnMouseMov:

; 794  : 	if( m_nRow < 0 || m_nColumn < 0) return TRUE;

  00024	8b 96 24 01 00
	00		 mov	 edx, DWORD PTR [esi+292]
  0002a	57		 push	 edi
  0002b	85 d2		 test	 edx, edx
  0002d	0f 88 06 01 00
	00		 js	 $LN4@OnMouseMov
  00033	8b be 28 01 00
	00		 mov	 edi, DWORD PTR [esi+296]
  00039	85 ff		 test	 edi, edi
  0003b	0f 88 f8 00 00
	00		 js	 $LN4@OnMouseMov

; 795  : 
; 796  : 	IBlock *pIBlock = m_pIChartManager->GetBlock( m_nRow, m_nColumn);

  00041	8b 4e 24	 mov	 ecx, DWORD PTR [esi+36]
  00044	57		 push	 edi
  00045	52		 push	 edx
  00046	8b 01		 mov	 eax, DWORD PTR [ecx]
  00048	ff 50 38	 call	 DWORD PTR [eax+56]
  0004b	8b f8		 mov	 edi, eax

; 797  : 	if( !pIBlock) return TRUE;

  0004d	85 ff		 test	 edi, edi
  0004f	0f 84 e4 00 00
	00		 je	 $LN4@OnMouseMov

; 798  : 
; 799  : 	double dViewMin = m_dViewMin;

  00055	f2 0f 10 96 d8
	00 00 00	 movsd	 xmm2, QWORD PTR [esi+216]

; 800  : 	double dViewMax = m_dViewMax;

  0005d	f2 0f 10 86 e0
	00 00 00	 movsd	 xmm0, QWORD PTR [esi+224]

; 801  : 	if( m_dViewMin != m_dViewMax && point.y != m_ptYZoomStart.y)

  00065	66 0f 2e d0	 ucomisd xmm2, xmm0
  00069	f2 0f 11 55 f0	 movsd	 QWORD PTR _dViewMin$1$[ebp], xmm2
  0006e	9f		 lahf
  0006f	f6 c4 44	 test	 ah, 68			; 00000044H
  00072	0f 8b 90 00 00
	00		 jnp	 $LN6@OnMouseMov
  00078	8b 45 10	 mov	 eax, DWORD PTR _point$[ebp]
  0007b	8b 8e 30 01 00
	00		 mov	 ecx, DWORD PTR [esi+304]
  00081	53		 push	 ebx
  00082	8b 58 04	 mov	 ebx, DWORD PTR [eax+4]
  00085	3b d9		 cmp	 ebx, ecx
  00087	74 7e		 je	 SHORT $LN15@OnMouseMov

; 804  : 		double dFactor = pow( 10, ( double( abs(point.y - m_ptYZoomStart.y)) / m_nScaleHeight) / ( 200. / 100.));

  00089	8b c3		 mov	 eax, ebx
  0008b	f2 0f 5c c2	 subsd	 xmm0, xmm2
  0008f	66 0f 6e 96 38
	01 00 00	 movd	 xmm2, DWORD PTR [esi+312]
  00097	2b c1		 sub	 eax, ecx
; File C:\Program Files (x86)\Windows Kits\10\Include\10.0.22000.0\ucrt\stdlib.h

; 365  :         return labs(_X);

  00099	99		 cdq
  0009a	33 c2		 xor	 eax, edx
  0009c	2b c2		 sub	 eax, edx
; File D:\git\src\IBK\IBK_DRFN\ProjSrc\SrcChartEx\ChartOCX\AddInManager\ChartCommonAddIn\OrderLineAddinImp.cpp

; 804  : 		double dFactor = pow( 10, ( double( abs(point.y - m_ptYZoomStart.y)) / m_nScaleHeight) / ( 200. / 100.));

  0009e	f3 0f e6 d2	 cvtdq2pd xmm2, xmm2
  000a2	66 0f 6e c8	 movd	 xmm1, eax
  000a6	f3 0f e6 c9	 cvtdq2pd xmm1, xmm1
  000aa	f2 0f 59 05 00
	00 00 00	 mulsd	 xmm0, QWORD PTR __real@3fe0000000000000
  000b2	f2 0f 5e ca	 divsd	 xmm1, xmm2
  000b6	f2 0f 11 45 f8	 movsd	 QWORD PTR _dViewRange$2$[ebp], xmm0
  000bb	f2 0f 59 0d 00
	00 00 00	 mulsd	 xmm1, QWORD PTR __real@3fe0000000000000
  000c3	f2 0f 10 05 00
	00 00 00	 movsd	 xmm0, QWORD PTR __real@4024000000000000
  000cb	e8 00 00 00 00	 call	 __libm_sse2_pow_precise

; 805  : 		if( m_ptYZoomStart.y < point.y) dViewRange /= dFactor;

  000d0	f2 0f 10 4d f8	 movsd	 xmm1, QWORD PTR _dViewRange$2$[ebp]
  000d5	39 9e 30 01 00
	00		 cmp	 DWORD PTR [esi+304], ebx
  000db	7d 06		 jge	 SHORT $LN7@OnMouseMov
  000dd	f2 0f 5e c8	 divsd	 xmm1, xmm0
  000e1	eb 04		 jmp	 SHORT $LN8@OnMouseMov
$LN7@OnMouseMov:

; 806  : 		else							dViewRange *= dFactor;

  000e3	f2 0f 59 c8	 mulsd	 xmm1, xmm0
$LN8@OnMouseMov:

; 807  : 
; 808  : 		dViewMin = ( m_dViewMax + m_dViewMin) / 2  - dViewRange;

  000e7	f2 0f 10 86 e0
	00 00 00	 movsd	 xmm0, QWORD PTR [esi+224]
  000ef	f2 0f 58 45 f0	 addsd	 xmm0, QWORD PTR _dViewMin$1$[ebp]
  000f4	f2 0f 59 05 00
	00 00 00	 mulsd	 xmm0, QWORD PTR __real@3fe0000000000000
  000fc	0f 28 d0	 movaps	 xmm2, xmm0

; 809  : 		dViewMax = ( m_dViewMax + m_dViewMin) / 2  + dViewRange;

  000ff	f2 0f 58 c1	 addsd	 xmm0, xmm1
  00103	f2 0f 5c d1	 subsd	 xmm2, xmm1
$LN15@OnMouseMov:
  00107	5b		 pop	 ebx
$LN6@OnMouseMov:

; 810  : 	}
; 811  : 
; 812  : 	pIBlock->SetVScaleMinMaxSetting( m_nVScaleIndex, m_bIsLock,

  00108	8b 07		 mov	 eax, DWORD PTR [edi]
  0010a	83 ec 10	 sub	 esp, 16			; 00000010H
  0010d	8b cf		 mov	 ecx, edi
  0010f	f2 0f 11 44 24
	08		 movsd	 QWORD PTR [esp+8], xmm0
  00115	f2 0f 11 14 24	 movsd	 QWORD PTR [esp], xmm2
  0011a	6a 02		 push	 2
  0011c	ff b6 88 00 00
	00		 push	 DWORD PTR [esi+136]
  00122	ff b6 34 01 00
	00		 push	 DWORD PTR [esi+308]
  00128	ff 50 54	 call	 DWORD PTR [eax+84]

; 813  : 									 CScaleBaseData::VERTMINMAXTYPE::VERT_MINMAX_OF_USER,
; 814  : 									 dViewMin, dViewMax);
; 815  : 	pIBlock->Release();

  0012b	8b 07		 mov	 eax, DWORD PTR [edi]
  0012d	57		 push	 edi
  0012e	ff 50 08	 call	 DWORD PTR [eax+8]

; 816  : 
; 817  : 	m_pIChartOCX->InvalidateControl();

  00131	8b 4e 0c	 mov	 ecx, DWORD PTR [esi+12]
  00134	8b 01		 mov	 eax, DWORD PTR [ecx]
  00136	ff 50 38	 call	 DWORD PTR [eax+56]
$LN4@OnMouseMov:

; 794  : 	if( m_nRow < 0 || m_nColumn < 0) return TRUE;

  00139	5f		 pop	 edi
  0013a	b8 01 00 00 00	 mov	 eax, 1
  0013f	5e		 pop	 esi

; 818  : 	return TRUE;
; 819  : }

  00140	8b e5		 mov	 esp, ebp
  00142	5d		 pop	 ebp
  00143	c2 14 00	 ret	 20			; 00000014H
?OnMouseMoveForYZoom@COrderLineAddInImp@@IAEHPAUHDC__@@IAAUtagPOINT@@KQAUHBITMAP__@@@Z ENDP ; COrderLineAddInImp::OnMouseMoveForYZoom
_TEXT	ENDS
; Function compile flags: /Ogtp
; File D:\git\src\IBK\IBK_DRFN\ProjSrc\SrcChartEx\ChartOCX\AddInManager\ChartCommonAddIn\OrderLineAddinImp.cpp
; File C:\Program Files (x86)\Microsoft Visual Studio\2019\Community\VC\Tools\MSVC\14.29.30133\atlmfc\include\atltypes.h
; File D:\git\src\IBK\IBK_DRFN\ProjSrc\SrcChartEx\ChartOCX\AddInManager\ChartCommonAddIn\OrderLineAddinImp.cpp
; File C:\Program Files (x86)\Microsoft Visual Studio\2019\Community\VC\Tools\MSVC\14.29.30133\atlmfc\include\atltypes.h
; File D:\git\src\IBK\IBK_DRFN\ProjSrc\SrcChartEx\ChartOCX\AddInManager\ChartCommonAddIn\OrderLineAddinImp.cpp
; File C:\Program Files (x86)\Microsoft Visual Studio\2019\Community\VC\Tools\MSVC\14.29.30133\atlmfc\include\atltypes.h
; File D:\git\src\IBK\IBK_DRFN\ProjSrc\SrcChartEx\ChartOCX\AddInManager\ChartCommonAddIn\OrderLineAddinImp.cpp
; File C:\Program Files (x86)\Microsoft Visual Studio\2019\Community\VC\Tools\MSVC\14.29.30133\atlmfc\include\atltypes.h
