; Listing generated by Microsoft (R) Optimizing Compiler Version 19.29.30145.0 

	TITLE	D:\git\src\IBK\IBK_DRFN\#DRfn-CS\_Obj\ChartCommonAddIn\RealTimeTransducerDlg.obj
	.686P
	.XMM
	include listing.inc
	.model	flat

INCLUDELIB MSVCRT
INCLUDELIB OLDNAMES

PUBLIC	??_C@_0CB@EFDCECKM@RMSG_EDITABLELISTCTRL_CELLEDITE@ ; `string'
;	COMDAT ??_C@_0CB@EFDCECKM@RMSG_EDITABLELISTCTRL_CELLEDITE@
CONST	SEGMENT
??_C@_0CB@EFDCECKM@RMSG_EDITABLELISTCTRL_CELLEDITE@ DB 'RMSG_EDITABLELIST'
	DB	'CTRL_CELLEDITED', 00H			; `string'
CONST	ENDS
PUBLIC	?__empty_global_delete@@YAXPAX@Z		; __empty_global_delete
PUBLIC	?__empty_global_delete@@YAXPAXI@Z		; __empty_global_delete
PUBLIC	?Serialize@CObject@@UAEXAAVCArchive@@@Z		; CObject::Serialize
PUBLIC	?AssertValid@CObject@@UBEXXZ			; CObject::AssertValid
PUBLIC	?Dump@CObject@@UBEXAAVCDumpContext@@@Z		; CObject::Dump
PUBLIC	?DoDataExchange@CWnd@@MAEXPAVCDataExchange@@@Z	; CWnd::DoDataExchange
PUBLIC	?BeginModalState@CWnd@@UAEXXZ			; CWnd::BeginModalState
PUBLIC	?EndModalState@CWnd@@UAEXXZ			; CWnd::EndModalState
PUBLIC	?Create@CDialog@@UAEHIPAVCWnd@@@Z		; CDialog::Create
PUBLIC	??_GCStatic@@UAEPAXI@Z				; CStatic::`scalar deleting destructor'
PUBLIC	??_GCButton@@UAEPAXI@Z				; CButton::`scalar deleting destructor'
PUBLIC	??_GCComboBox@@UAEPAXI@Z			; CComboBox::`scalar deleting destructor'
PUBLIC	??_GCEdit@@UAEPAXI@Z				; CEdit::`scalar deleting destructor'
PUBLIC	??1ILPCSTR000000@@QAE@XZ			; ILPCSTR000000::~ILPCSTR000000
PUBLIC	??0CRealTimeTransducerDlg@@QAE@AA_J00AAVCTimeTypeConvert@@1PAVCWnd@@@Z ; CRealTimeTransducerDlg::CRealTimeTransducerDlg
PUBLIC	??1CRealTimeTransducerDlg@@UAE@XZ		; CRealTimeTransducerDlg::~CRealTimeTransducerDlg
PUBLIC	?DoDataExchange@CRealTimeTransducerDlg@@MAEXPAVCDataExchange@@@Z ; CRealTimeTransducerDlg::DoDataExchange
PUBLIC	?OnCancel@CRealTimeTransducerDlg@@MAEXXZ	; CRealTimeTransducerDlg::OnCancel
PUBLIC	?OnOK@CRealTimeTransducerDlg@@MAEXXZ		; CRealTimeTransducerDlg::OnOK
PUBLIC	?OnBtnSecond@CRealTimeTransducerDlg@@IAEXXZ	; CRealTimeTransducerDlg::OnBtnSecond
PUBLIC	?OnBtnMinute@CRealTimeTransducerDlg@@IAEXXZ	; CRealTimeTransducerDlg::OnBtnMinute
PUBLIC	?OnBtnHour@CRealTimeTransducerDlg@@IAEXXZ	; CRealTimeTransducerDlg::OnBtnHour
PUBLIC	?OnBtnDay@CRealTimeTransducerDlg@@IAEXXZ	; CRealTimeTransducerDlg::OnBtnDay
PUBLIC	?OnBtnMonth@CRealTimeTransducerDlg@@IAEXXZ	; CRealTimeTransducerDlg::OnBtnMonth
PUBLIC	?OnBtnYear@CRealTimeTransducerDlg@@IAEXXZ	; CRealTimeTransducerDlg::OnBtnYear
PUBLIC	?OnInitDialog@CRealTimeTransducerDlg@@MAEHXZ	; CRealTimeTransducerDlg::OnInitDialog
PUBLIC	?OnChkFakeRealOn@CRealTimeTransducerDlg@@IAEXXZ	; CRealTimeTransducerDlg::OnChkFakeRealOn
PUBLIC	?OnDestroy@CRealTimeTransducerDlg@@IAEXXZ	; CRealTimeTransducerDlg::OnDestroy
PUBLIC	?OnTimer@CRealTimeTransducerDlg@@IAEXI@Z	; CRealTimeTransducerDlg::OnTimer
PUBLIC	?OnBtnFireFixedRealtime@CRealTimeTransducerDlg@@IAEXXZ ; CRealTimeTransducerDlg::OnBtnFireFixedRealtime
PUBLIC	?OnSelendokCmbSpeed@CRealTimeTransducerDlg@@IAEXXZ ; CRealTimeTransducerDlg::OnSelendokCmbSpeed
PUBLIC	?OnSelendokCmbPricetype@CRealTimeTransducerDlg@@IAEXXZ ; CRealTimeTransducerDlg::OnSelendokCmbPricetype
PUBLIC	?GetThisMessageMap@CRealTimeTransducerDlg@@KGPBUAFX_MSGMAP@@XZ ; CRealTimeTransducerDlg::GetThisMessageMap
PUBLIC	?GetMessageMap@CRealTimeTransducerDlg@@MBEPBUAFX_MSGMAP@@XZ ; CRealTimeTransducerDlg::GetMessageMap
PUBLIC	?GetTimeString@CRealTimeTransducerDlg@@IAE?AV?$CStringT@DV?$StrTraitMFC_DLL@DV?$ChTraitsCRT@D@ATL@@@@@ATL@@_J@Z ; CRealTimeTransducerDlg::GetTimeString
PUBLIC	?GetLastPacketValue@CRealTimeTransducerDlg@@IAENPBDH@Z ; CRealTimeTransducerDlg::GetLastPacketValue
PUBLIC	?FireFakeReal@CRealTimeTransducerDlg@@IAEXH@Z	; CRealTimeTransducerDlg::FireFakeReal
PUBLIC	?UpdateTime@CRealTimeTransducerDlg@@QAEXPAUIPacketManager000000@@PAUIRealReceiver@@@Z ; CRealTimeTransducerDlg::UpdateTime
PUBLIC	?UpdateReal@CRealTimeTransducerDlg@@QAEXXZ	; CRealTimeTransducerDlg::UpdateReal
PUBLIC	?IsClockTimeOnly@CRealTimeTransducerDlg@@QAEHXZ	; CRealTimeTransducerDlg::IsClockTimeOnly
PUBLIC	?IsNoClockTime@CRealTimeTransducerDlg@@QAEHAA_J@Z ; CRealTimeTransducerDlg::IsNoClockTime
PUBLIC	?UpdateClockTime@CRealTimeTransducerDlg@@QAEXAA_J@Z ; CRealTimeTransducerDlg::UpdateClockTime
PUBLIC	??_GCRealTimeTransducerDlg@@UAEPAXI@Z		; CRealTimeTransducerDlg::`scalar deleting destructor'
PUBLIC	??_C@_02DPKJAMEF@?$CFd@				; `string'
PUBLIC	??_C@_05LLAMLEHD@?$CFI64d@			; `string'
PUBLIC	??_7CStatic@@6B@				; CStatic::`vftable'
PUBLIC	??_7CButton@@6B@				; CButton::`vftable'
PUBLIC	??_7CComboBox@@6B@				; CComboBox::`vftable'
PUBLIC	??_7CEdit@@6B@					; CEdit::`vftable'
PUBLIC	??_R0?AVCObject@@@8				; CObject `RTTI Type Descriptor'
PUBLIC	??_R3CObject@@8					; CObject::`RTTI Class Hierarchy Descriptor'
PUBLIC	??_R2CObject@@8					; CObject::`RTTI Base Class Array'
PUBLIC	??_R1A@?0A@EA@CObject@@8			; CObject::`RTTI Base Class Descriptor at (0,-1,0,64)'
PUBLIC	??_R4CStatic@@6B@				; CStatic::`RTTI Complete Object Locator'
PUBLIC	??_R0?AVCStatic@@@8				; CStatic `RTTI Type Descriptor'
PUBLIC	??_R3CStatic@@8					; CStatic::`RTTI Class Hierarchy Descriptor'
PUBLIC	??_R2CStatic@@8					; CStatic::`RTTI Base Class Array'
PUBLIC	??_R1A@?0A@EA@CStatic@@8			; CStatic::`RTTI Base Class Descriptor at (0,-1,0,64)'
PUBLIC	??_R1A@?0A@EA@CWnd@@8				; CWnd::`RTTI Base Class Descriptor at (0,-1,0,64)'
PUBLIC	??_R0?AVCWnd@@@8				; CWnd `RTTI Type Descriptor'
PUBLIC	??_R3CWnd@@8					; CWnd::`RTTI Class Hierarchy Descriptor'
PUBLIC	??_R2CWnd@@8					; CWnd::`RTTI Base Class Array'
PUBLIC	??_R1A@?0A@EA@CCmdTarget@@8			; CCmdTarget::`RTTI Base Class Descriptor at (0,-1,0,64)'
PUBLIC	??_R0?AVCCmdTarget@@@8				; CCmdTarget `RTTI Type Descriptor'
PUBLIC	??_R3CCmdTarget@@8				; CCmdTarget::`RTTI Class Hierarchy Descriptor'
PUBLIC	??_R2CCmdTarget@@8				; CCmdTarget::`RTTI Base Class Array'
PUBLIC	??_R4CButton@@6B@				; CButton::`RTTI Complete Object Locator'
PUBLIC	??_R0?AVCButton@@@8				; CButton `RTTI Type Descriptor'
PUBLIC	??_R3CButton@@8					; CButton::`RTTI Class Hierarchy Descriptor'
PUBLIC	??_R2CButton@@8					; CButton::`RTTI Base Class Array'
PUBLIC	??_R1A@?0A@EA@CButton@@8			; CButton::`RTTI Base Class Descriptor at (0,-1,0,64)'
PUBLIC	??_R4CComboBox@@6B@				; CComboBox::`RTTI Complete Object Locator'
PUBLIC	??_R0?AVCComboBox@@@8				; CComboBox `RTTI Type Descriptor'
PUBLIC	??_R3CComboBox@@8				; CComboBox::`RTTI Class Hierarchy Descriptor'
PUBLIC	??_R2CComboBox@@8				; CComboBox::`RTTI Base Class Array'
PUBLIC	??_R1A@?0A@EA@CComboBox@@8			; CComboBox::`RTTI Base Class Descriptor at (0,-1,0,64)'
PUBLIC	??_R4CEdit@@6B@					; CEdit::`RTTI Complete Object Locator'
PUBLIC	??_R0?AVCEdit@@@8				; CEdit `RTTI Type Descriptor'
PUBLIC	??_R3CEdit@@8					; CEdit::`RTTI Class Hierarchy Descriptor'
PUBLIC	??_R2CEdit@@8					; CEdit::`RTTI Base Class Array'
PUBLIC	??_R1A@?0A@EA@CEdit@@8				; CEdit::`RTTI Base Class Descriptor at (0,-1,0,64)'
PUBLIC	??_R1A@?0A@EA@CDialog@@8			; CDialog::`RTTI Base Class Descriptor at (0,-1,0,64)'
PUBLIC	??_R0?AVCDialog@@@8				; CDialog `RTTI Type Descriptor'
PUBLIC	??_R3CDialog@@8					; CDialog::`RTTI Class Hierarchy Descriptor'
PUBLIC	??_R2CDialog@@8					; CDialog::`RTTI Base Class Array'
PUBLIC	??_7CRealTimeTransducerDlg@@6B@			; CRealTimeTransducerDlg::`vftable'
PUBLIC	??_C@_0BP@FAOJNMMP@?$CF04d?1?$CF02d?1?$CF02d?0?5?$CF02d?3?$CF02d?3?$CF02d@ ; `string'
PUBLIC	??_C@_01ICJEACDI@?$DL@				; `string'
PUBLIC	??_C@_05OJJHEBAI@?$CF0?45f@			; `string'
PUBLIC	??_C@_01MHEDDDHA@v@				; `string'
PUBLIC	??_C@_01HIHLOKLC@1@				; `string'
PUBLIC	??_C@_02PJNFELNH@30@				; `string'
PUBLIC	??_C@_01BMBHCPLG@5@				; `string'
PUBLIC	??_C@_07FDLIFBIG@0?400005@			; `string'
PUBLIC	??_C@_06MCNKBKIO@100000@			; `string'
PUBLIC	??_C@_02PKFBJPLJ@10@				; `string'
PUBLIC	??_C@_06OGBBMCPL@?F?P?E?$LG?$LI?m@		; `string'
PUBLIC	??_C@_02JBAIIMJO@?$LA?$KK@			; `string'
PUBLIC	??_C@_06ODAHLMJK@?$LN?G?$LN?C?$LA?$KD@		; `string'
PUBLIC	??_C@_05NFMIDMMK@Delta@				; `string'
PUBLIC	??_C@_03BDHINOBA@RDC@				; `string'
PUBLIC	??_C@_04IMIHFAMF@?A?V?$LN?D@			; `string'
PUBLIC	??_C@_02GMLAAMD@FX@				; `string'
PUBLIC	??_C@_07MGCPDNLD@DEFAULT@			; `string'
PUBLIC	??_R4CRealTimeTransducerDlg@@6B@		; CRealTimeTransducerDlg::`RTTI Complete Object Locator'
PUBLIC	??_R0?AVCRealTimeTransducerDlg@@@8		; CRealTimeTransducerDlg `RTTI Type Descriptor'
PUBLIC	??_R3CRealTimeTransducerDlg@@8			; CRealTimeTransducerDlg::`RTTI Class Hierarchy Descriptor'
PUBLIC	??_R2CRealTimeTransducerDlg@@8			; CRealTimeTransducerDlg::`RTTI Base Class Array'
PUBLIC	??_R1A@?0A@EA@CRealTimeTransducerDlg@@8		; CRealTimeTransducerDlg::`RTTI Base Class Descriptor at (0,-1,0,64)'
PUBLIC	__real@0000000000000000
PUBLIC	__real@3ff0000000000000
PUBLIC	__real@4000000000000000
PUBLIC	__real@40dfffc000000000
PUBLIC	__xmm@0000000f0000000a0000000500000001
PUBLIC	__xmm@0000003c000000280000001e00000014
PUBLIC	__xmm@000000f0000000b4000000780000005a
PUBLIC	__xmm@000001e0000001a4000001680000012c
PUBLIC	__xmm@00000708000004b0000002580000021c
PUBLIC	__xmm@0000384000002a3000001c2000000e10
PUBLIC	__xmm@0002a300000151800000a8c000005460
EXTRN	??3@YAXPAX@Z:PROC				; operator delete
EXTRN	?__global_delete@@YAXPAXI@Z:PROC		; __global_delete
EXTRN	___std_terminate:PROC
EXTRN	__imp__RegisterWindowMessageA@4:PROC
EXTRN	__imp__SendMessageA@16:PROC
EXTRN	__imp__SetTimer@16:PROC
EXTRN	__imp__KillTimer@8:PROC
EXTRN	__imp__EnableWindow@8:PROC
EXTRN	__imp__GetParent@4:PROC
EXTRN	__imp__srand:PROC
EXTRN	__imp__rand:PROC
EXTRN	__imp__atof:PROC
EXTRN	__imp__atol:PROC
EXTRN	__imp___time64:PROC
EXTRN	?AfxThrowInvalidArgException@@YGXXZ:PROC	; AfxThrowInvalidArgException
EXTRN	__imp_?Empty@?$CSimpleStringT@D$00@ATL@@QAEXXZ:PROC
EXTRN	__imp_??0?$CStringT@DV?$StrTraitMFC_DLL@DV?$ChTraitsCRT@D@ATL@@@@@ATL@@QAE@XZ:PROC
EXTRN	__imp_??0?$CStringT@DV?$StrTraitMFC_DLL@DV?$ChTraitsCRT@D@ATL@@@@@ATL@@QAE@PBD@Z:PROC
EXTRN	__imp_??1?$CStringT@DV?$StrTraitMFC_DLL@DV?$ChTraitsCRT@D@ATL@@@@@ATL@@QAE@XZ:PROC
EXTRN	__imp_??4?$CStringT@DV?$StrTraitMFC_DLL@DV?$ChTraitsCRT@D@ATL@@@@@ATL@@QAEAAV01@ABV01@@Z:PROC
EXTRN	__imp_??4?$CStringT@DV?$StrTraitMFC_DLL@DV?$ChTraitsCRT@D@ATL@@@@@ATL@@QAEAAV01@PBD@Z:PROC
EXTRN	__imp_?Compare@?$CStringT@DV?$StrTraitMFC_DLL@DV?$ChTraitsCRT@D@ATL@@@@@ATL@@QBEHPBD@Z:PROC
EXTRN	__imp_?Find@?$CStringT@DV?$StrTraitMFC_DLL@DV?$ChTraitsCRT@D@ATL@@@@@ATL@@QBEHDH@Z:PROC
EXTRN	__imp_?TrimLeft@?$CStringT@DV?$StrTraitMFC_DLL@DV?$ChTraitsCRT@D@ATL@@@@@ATL@@QAEAAV12@XZ:PROC
EXTRN	__imp_?Mid@?$CStringT@DV?$StrTraitMFC_DLL@DV?$ChTraitsCRT@D@ATL@@@@@ATL@@QBE?AV12@H@Z:PROC
EXTRN	__imp_?Left@?$CStringT@DV?$StrTraitMFC_DLL@DV?$ChTraitsCRT@D@ATL@@@@@ATL@@QBE?AV12@H@Z:PROC
EXTRN	__imp_?Format@?$CStringT@DV?$StrTraitMFC_DLL@DV?$ChTraitsCRT@D@ATL@@@@@ATL@@QAAXPBDZZ:PROC
EXTRN	?SetAtGrow@CByteArray@@QAEXHE@Z:PROC		; CByteArray::SetAtGrow
EXTRN	?DDX_Control@@YGXPAVCDataExchange@@HAAVCWnd@@@Z:PROC ; DDX_Control
EXTRN	?OnCmdMsg@CCmdTarget@@UAEHIHPAXPAUAFX_CMDHANDLERINFO@@@Z:PROC ; CCmdTarget::OnCmdMsg
EXTRN	?IsInvokeAllowed@CCmdTarget@@UAEHJ@Z:PROC	; CCmdTarget::IsInvokeAllowed
EXTRN	?GetDispatchIID@CCmdTarget@@UAEHPAU_GUID@@@Z:PROC ; CCmdTarget::GetDispatchIID
EXTRN	?GetTypeInfoCount@CCmdTarget@@UAEIXZ:PROC	; CCmdTarget::GetTypeInfoCount
EXTRN	?GetTypeLibCache@CCmdTarget@@UAEPAVCTypeLibCache@@XZ:PROC ; CCmdTarget::GetTypeLibCache
EXTRN	?GetTypeLib@CCmdTarget@@UAEJKPAPAUITypeLib@@@Z:PROC ; CCmdTarget::GetTypeLib
EXTRN	?GetCommandMap@CCmdTarget@@MBEPBUAFX_OLECMDMAP@@XZ:PROC ; CCmdTarget::GetCommandMap
EXTRN	?GetDispatchMap@CCmdTarget@@MBEPBUAFX_DISPMAP@@XZ:PROC ; CCmdTarget::GetDispatchMap
EXTRN	?GetConnectionMap@CCmdTarget@@MBEPBUAFX_CONNECTIONMAP@@XZ:PROC ; CCmdTarget::GetConnectionMap
EXTRN	?GetEventSinkMap@CCmdTarget@@MBEPBUAFX_EVENTSINKMAP@@XZ:PROC ; CCmdTarget::GetEventSinkMap
EXTRN	?OnCreateAggregates@CCmdTarget@@UAEHXZ:PROC	; CCmdTarget::OnCreateAggregates
EXTRN	?GetInterfaceHook@CCmdTarget@@UAEPAUIUnknown@@PBX@Z:PROC ; CCmdTarget::GetInterfaceHook
EXTRN	?GetExtraConnectionPoints@CCmdTarget@@MAEHPAVCPtrArray@@@Z:PROC ; CCmdTarget::GetExtraConnectionPoints
EXTRN	?GetConnectionHook@CCmdTarget@@MAEPAUIConnectionPoint@@ABU_GUID@@@Z:PROC ; CCmdTarget::GetConnectionHook
EXTRN	??0CWnd@@QAE@XZ:PROC				; CWnd::CWnd
EXTRN	?FromHandle@CWnd@@SGPAV1@PAUHWND__@@@Z:PROC	; CWnd::FromHandle
EXTRN	?PreSubclassWindow@CWnd@@UAEXXZ:PROC		; CWnd::PreSubclassWindow
EXTRN	?Create@CWnd@@UAEHPBD0KABUtagRECT@@PAV1@IPAUCCreateContext@@@Z:PROC ; CWnd::Create
EXTRN	?CreateEx@CWnd@@UAEHKPBD0KHHHHPAUHWND__@@PAUHMENU__@@PAX@Z:PROC ; CWnd::CreateEx
EXTRN	?CreateEx@CWnd@@UAEHKPBD0KABUtagRECT@@PAV1@IPAX@Z:PROC ; CWnd::CreateEx
EXTRN	?DestroyWindow@CWnd@@UAEHXZ:PROC		; CWnd::DestroyWindow
EXTRN	?PreCreateWindow@CWnd@@UAEHAAUtagCREATESTRUCTA@@@Z:PROC ; CWnd::PreCreateWindow
EXTRN	?CalcWindowRect@CWnd@@UAEXPAUtagRECT@@I@Z:PROC	; CWnd::CalcWindowRect
EXTRN	?SetWindowTextA@CWnd@@QAEXPBD@Z:PROC		; CWnd::SetWindowTextA
EXTRN	?GetWindowTextA@CWnd@@QBEXAAV?$CStringT@DV?$StrTraitMFC_DLL@DV?$ChTraitsCRT@D@ATL@@@@@ATL@@@Z:PROC ; CWnd::GetWindowTextA
EXTRN	?GetMenu@CWnd@@UBEPAVCMenu@@XZ:PROC		; CWnd::GetMenu
EXTRN	?SetMenu@CWnd@@UAEHPAVCMenu@@@Z:PROC		; CWnd::SetMenu
EXTRN	?OnToolHitTest@CWnd@@UBEHVCPoint@@PAUtagTOOLINFOA@@@Z:PROC ; CWnd::OnToolHitTest
EXTRN	?GetScrollBarCtrl@CWnd@@UBEPAVCScrollBar@@H@Z:PROC ; CWnd::GetScrollBarCtrl
EXTRN	?WinHelpA@CWnd@@UAEXKI@Z:PROC			; CWnd::WinHelpA
EXTRN	?HtmlHelpA@CWnd@@UAEXKI@Z:PROC			; CWnd::HtmlHelpA
EXTRN	?WinHelpInternal@CWnd@@UAEXKI@Z:PROC		; CWnd::WinHelpInternal
EXTRN	?ContinueModal@CWnd@@UAEHXZ:PROC		; CWnd::ContinueModal
EXTRN	?EndModalLoop@CWnd@@UAEXH@Z:PROC		; CWnd::EndModalLoop
EXTRN	?OnDrawIconicThumbnailOrLivePreview@CWnd@@UAEXAAVCDC@@VCRect@@VCSize@@HAAH@Z:PROC ; CWnd::OnDrawIconicThumbnailOrLivePreview
EXTRN	?GetInterfaceMap@CWnd@@MBEPBUAFX_INTERFACEMAP@@XZ:PROC ; CWnd::GetInterfaceMap
EXTRN	?EnsureStdObj@CWnd@@UAEJXZ:PROC			; CWnd::EnsureStdObj
EXTRN	?get_accParent@CWnd@@UAEJPAPAUIDispatch@@@Z:PROC ; CWnd::get_accParent
EXTRN	?get_accChildCount@CWnd@@UAEJPAJ@Z:PROC		; CWnd::get_accChildCount
EXTRN	?get_accChild@CWnd@@UAEJUtagVARIANT@@PAPAUIDispatch@@@Z:PROC ; CWnd::get_accChild
EXTRN	?get_accName@CWnd@@UAEJUtagVARIANT@@PAPA_W@Z:PROC ; CWnd::get_accName
EXTRN	?get_accValue@CWnd@@UAEJUtagVARIANT@@PAPA_W@Z:PROC ; CWnd::get_accValue
EXTRN	?get_accDescription@CWnd@@UAEJUtagVARIANT@@PAPA_W@Z:PROC ; CWnd::get_accDescription
EXTRN	?get_accRole@CWnd@@UAEJUtagVARIANT@@PAU2@@Z:PROC ; CWnd::get_accRole
EXTRN	?get_accState@CWnd@@UAEJUtagVARIANT@@PAU2@@Z:PROC ; CWnd::get_accState
EXTRN	?get_accHelp@CWnd@@UAEJUtagVARIANT@@PAPA_W@Z:PROC ; CWnd::get_accHelp
EXTRN	?get_accHelpTopic@CWnd@@UAEJPAPA_WUtagVARIANT@@PAJ@Z:PROC ; CWnd::get_accHelpTopic
EXTRN	?get_accKeyboardShortcut@CWnd@@UAEJUtagVARIANT@@PAPA_W@Z:PROC ; CWnd::get_accKeyboardShortcut
EXTRN	?get_accFocus@CWnd@@UAEJPAUtagVARIANT@@@Z:PROC	; CWnd::get_accFocus
EXTRN	?get_accSelection@CWnd@@UAEJPAUtagVARIANT@@@Z:PROC ; CWnd::get_accSelection
EXTRN	?get_accDefaultAction@CWnd@@UAEJUtagVARIANT@@PAPA_W@Z:PROC ; CWnd::get_accDefaultAction
EXTRN	?accSelect@CWnd@@UAEJJUtagVARIANT@@@Z:PROC	; CWnd::accSelect
EXTRN	?accLocation@CWnd@@UAEJPAJ000UtagVARIANT@@@Z:PROC ; CWnd::accLocation
EXTRN	?accNavigate@CWnd@@UAEJJUtagVARIANT@@PAU2@@Z:PROC ; CWnd::accNavigate
EXTRN	?accHitTest@CWnd@@UAEJJJPAUtagVARIANT@@@Z:PROC	; CWnd::accHitTest
EXTRN	?accDoDefaultAction@CWnd@@UAEJUtagVARIANT@@@Z:PROC ; CWnd::accDoDefaultAction
EXTRN	?put_accName@CWnd@@UAEJUtagVARIANT@@PA_W@Z:PROC	; CWnd::put_accName
EXTRN	?put_accValue@CWnd@@UAEJUtagVARIANT@@PA_W@Z:PROC ; CWnd::put_accValue
EXTRN	?SetProxy@CWnd@@UAEJPAUIAccessibleProxy@@@Z:PROC ; CWnd::SetProxy
EXTRN	?CreateAccessibleProxy@CWnd@@UAEJIJPAJ@Z:PROC	; CWnd::CreateAccessibleProxy
EXTRN	?OnCommand@CWnd@@MAEHIJ@Z:PROC			; CWnd::OnCommand
EXTRN	?OnNotify@CWnd@@MAEHIJPAJ@Z:PROC		; CWnd::OnNotify
EXTRN	?OnDestroy@CWnd@@IAEXXZ:PROC			; CWnd::OnDestroy
EXTRN	?GetSuperWndProcAddr@CWnd@@MAEPAP6GJPAUHWND__@@IIJ@ZXZ:PROC ; CWnd::GetSuperWndProcAddr
EXTRN	?PreTranslateMessage@CWnd@@UAEHPAUtagMSG@@@Z:PROC ; CWnd::PreTranslateMessage
EXTRN	?OnAmbientProperty@CWnd@@UAEHPAVCOleControlSite@@JPAUtagVARIANT@@@Z:PROC ; CWnd::OnAmbientProperty
EXTRN	?WindowProc@CWnd@@MAEJIIJ@Z:PROC		; CWnd::WindowProc
EXTRN	?OnWndMsg@CWnd@@MAEHIIJPAJ@Z:PROC		; CWnd::OnWndMsg
EXTRN	?Default@CWnd@@IAEJXZ:PROC			; CWnd::Default
EXTRN	?DefWindowProcA@CWnd@@MAEJIIJ@Z:PROC		; CWnd::DefWindowProcA
EXTRN	?PostNcDestroy@CWnd@@MAEXXZ:PROC		; CWnd::PostNcDestroy
EXTRN	?OnChildNotify@CWnd@@MAEHIIJPAJ@Z:PROC		; CWnd::OnChildNotify
EXTRN	?OnTouchInputs@CWnd@@MAEHIPAUtagTOUCHINPUT@@@Z:PROC ; CWnd::OnTouchInputs
EXTRN	?OnTouchInput@CWnd@@MAEHVCPoint@@HHPAUtagTOUCHINPUT@@@Z:PROC ; CWnd::OnTouchInput
EXTRN	?GetGestureStatus@CWnd@@MAEKVCPoint@@@Z:PROC	; CWnd::GetGestureStatus
EXTRN	?OnGestureZoom@CWnd@@MAEHVCPoint@@J@Z:PROC	; CWnd::OnGestureZoom
EXTRN	?OnGesturePan@CWnd@@MAEHVCPoint@@0@Z:PROC	; CWnd::OnGesturePan
EXTRN	?OnGestureRotate@CWnd@@MAEHVCPoint@@N@Z:PROC	; CWnd::OnGestureRotate
EXTRN	?OnGestureTwoFingerTap@CWnd@@MAEHVCPoint@@@Z:PROC ; CWnd::OnGestureTwoFingerTap
EXTRN	?OnGesturePressAndTap@CWnd@@MAEHVCPoint@@J@Z:PROC ; CWnd::OnGesturePressAndTap
EXTRN	?ResizeDynamicLayout@CWnd@@MAEXXZ:PROC		; CWnd::ResizeDynamicLayout
EXTRN	?CheckAutoCenter@CWnd@@UAEHXZ:PROC		; CWnd::CheckAutoCenter
EXTRN	?IsFrameWnd@CWnd@@UBEHXZ:PROC			; CWnd::IsFrameWnd
EXTRN	?OnFinalRelease@CWnd@@UAEXXZ:PROC		; CWnd::OnFinalRelease
EXTRN	?CreateControlContainer@CWnd@@MAEHPAPAVCOleControlContainer@@@Z:PROC ; CWnd::CreateControlContainer
EXTRN	?CreateControlSite@CWnd@@MAEHPAVCOleControlContainer@@PAPAVCOleControlSite@@IABU_GUID@@@Z:PROC ; CWnd::CreateControlSite
EXTRN	?SetOccDialogInfo@CWnd@@MAEHPAU_AFX_OCC_DIALOG_INFO@@@Z:PROC ; CWnd::SetOccDialogInfo
EXTRN	?GetOccDialogInfo@CWnd@@MAEPAU_AFX_OCC_DIALOG_INFO@@XZ:PROC ; CWnd::GetOccDialogInfo
EXTRN	?GetMessageMap@CWnd@@MBEPBUAFX_MSGMAP@@XZ:PROC	; CWnd::GetMessageMap
EXTRN	?GetRuntimeClass@CDialog@@UBEPAUCRuntimeClass@@XZ:PROC ; CDialog::GetRuntimeClass
EXTRN	?Create@CDialog@@UAEHPBDPAVCWnd@@@Z:PROC	; CDialog::Create
EXTRN	?CreateIndirect@CDialog@@UAEHPBUDLGTEMPLATE@@PAVCWnd@@PAX@Z:PROC ; CDialog::CreateIndirect
EXTRN	?CreateIndirect@CDialog@@UAEHPAXPAVCWnd@@@Z:PROC ; CDialog::CreateIndirect
EXTRN	??0CDialog@@QAE@IPAVCWnd@@@Z:PROC		; CDialog::CDialog
EXTRN	?DoModal@CDialog@@UAEHXZ:PROC			; CDialog::DoModal
EXTRN	?OnInitDialog@CDialog@@UAEHXZ:PROC		; CDialog::OnInitDialog
EXTRN	?OnSetFont@CDialog@@UAEXPAVCFont@@@Z:PROC	; CDialog::OnSetFont
EXTRN	?OnOK@CDialog@@MAEXXZ:PROC			; CDialog::OnOK
EXTRN	?OnCancel@CDialog@@MAEXXZ:PROC			; CDialog::OnCancel
EXTRN	??1CDialog@@UAE@XZ:PROC				; CDialog::~CDialog
EXTRN	?PreTranslateMessage@CDialog@@UAEHPAUtagMSG@@@Z:PROC ; CDialog::PreTranslateMessage
EXTRN	?OnCmdMsg@CDialog@@UAEHIHPAXPAUAFX_CMDHANDLERINFO@@@Z:PROC ; CDialog::OnCmdMsg
EXTRN	?CheckAutoCenter@CDialog@@UAEHXZ:PROC		; CDialog::CheckAutoCenter
EXTRN	?SetOccDialogInfo@CDialog@@MAEHPAU_AFX_OCC_DIALOG_INFO@@@Z:PROC ; CDialog::SetOccDialogInfo
EXTRN	?GetOccDialogInfo@CDialog@@MAEPAU_AFX_OCC_DIALOG_INFO@@XZ:PROC ; CDialog::GetOccDialogInfo
EXTRN	?PreInitDialog@CDialog@@MAEXXZ:PROC		; CDialog::PreInitDialog
EXTRN	?GetThisMessageMap@CDialog@@KGPBUAFX_MSGMAP@@XZ:PROC ; CDialog::GetThisMessageMap
EXTRN	?GetRuntimeClass@CStatic@@UBEPAUCRuntimeClass@@XZ:PROC ; CStatic::GetRuntimeClass
EXTRN	?Create@CStatic@@UAEHPBDKABUtagRECT@@PAVCWnd@@I@Z:PROC ; CStatic::Create
EXTRN	?DrawItem@CStatic@@UAEXPAUtagDRAWITEMSTRUCT@@@Z:PROC ; CStatic::DrawItem
EXTRN	??1CStatic@@UAE@XZ:PROC				; CStatic::~CStatic
EXTRN	?OnChildNotify@CStatic@@MAEHIIJPAJ@Z:PROC	; CStatic::OnChildNotify
EXTRN	??_ECStatic@@UAEPAXI@Z:PROC			; CStatic::`vector deleting destructor'
EXTRN	?GetRuntimeClass@CButton@@UBEPAUCRuntimeClass@@XZ:PROC ; CButton::GetRuntimeClass
EXTRN	?Create@CButton@@UAEHPBDKABUtagRECT@@PAVCWnd@@I@Z:PROC ; CButton::Create
EXTRN	?DrawItem@CButton@@UAEXPAUtagDRAWITEMSTRUCT@@@Z:PROC ; CButton::DrawItem
EXTRN	??1CButton@@UAE@XZ:PROC				; CButton::~CButton
EXTRN	?OnChildNotify@CButton@@MAEHIIJPAJ@Z:PROC	; CButton::OnChildNotify
EXTRN	??_ECButton@@UAEPAXI@Z:PROC			; CButton::`vector deleting destructor'
EXTRN	?GetRuntimeClass@CComboBox@@UBEPAUCRuntimeClass@@XZ:PROC ; CComboBox::GetRuntimeClass
EXTRN	?Create@CComboBox@@UAEHKABUtagRECT@@PAVCWnd@@I@Z:PROC ; CComboBox::Create
EXTRN	?DrawItem@CComboBox@@UAEXPAUtagDRAWITEMSTRUCT@@@Z:PROC ; CComboBox::DrawItem
EXTRN	?MeasureItem@CComboBox@@UAEXPAUtagMEASUREITEMSTRUCT@@@Z:PROC ; CComboBox::MeasureItem
EXTRN	?CompareItem@CComboBox@@UAEHPAUtagCOMPAREITEMSTRUCT@@@Z:PROC ; CComboBox::CompareItem
EXTRN	?DeleteItem@CComboBox@@UAEXPAUtagDELETEITEMSTRUCT@@@Z:PROC ; CComboBox::DeleteItem
EXTRN	??1CComboBox@@UAE@XZ:PROC			; CComboBox::~CComboBox
EXTRN	?OnChildNotify@CComboBox@@MAEHIIJPAJ@Z:PROC	; CComboBox::OnChildNotify
EXTRN	??_ECComboBox@@UAEPAXI@Z:PROC			; CComboBox::`vector deleting destructor'
EXTRN	?GetRuntimeClass@CEdit@@UBEPAUCRuntimeClass@@XZ:PROC ; CEdit::GetRuntimeClass
EXTRN	??1CEdit@@UAE@XZ:PROC				; CEdit::~CEdit
EXTRN	??_ECEdit@@UAEPAXI@Z:PROC			; CEdit::`vector deleting destructor'
EXTRN	?GetItemText@CListCtrl@@QBE?AV?$CStringT@DV?$StrTraitMFC_DLL@DV?$ChTraitsCRT@D@ATL@@@@@ATL@@HH@Z:PROC ; CListCtrl::GetItemText
EXTRN	?SetItemText@CListCtrl@@QAEHHHPBD@Z:PROC	; CListCtrl::SetItemText
EXTRN	?InsertColumn@CListCtrl@@QAEHHPBDHHH@Z:PROC	; CListCtrl::InsertColumn
EXTRN	?InsertItem@CListCtrl@@QAEHIHPBDIIHJ@Z:PROC	; CListCtrl::InsertItem
EXTRN	?GetPacketTypeTime@CTimeTypeConvert@@QBE_J_JH@Z:PROC ; CTimeTypeConvert::GetPacketTypeTime
EXTRN	??0CEditableListCtrl@@QAE@XZ:PROC		; CEditableListCtrl::CEditableListCtrl
EXTRN	??1CEditableListCtrl@@UAE@XZ:PROC		; CEditableListCtrl::~CEditableListCtrl
EXTRN	??_ECRealTimeTransducerDlg@@UAEPAXI@Z:PROC	; CRealTimeTransducerDlg::`vector deleting destructor'
EXTRN	?GetMetaText@IMetaTable@@QAEPBDPAUHWND__@@W4E_CODEPAGE@1@PBDH@Z:PROC ; IMetaTable::GetMetaText
EXTRN	?GetLanguageText@IMetaTable@@QAEPBDPAUHWND__@@W4E_CODEPAGE@1@PBDH@Z:PROC ; IMetaTable::GetLanguageText
EXTRN	?IsSpecialTime@IMetaTable@@QAEHH@Z:PROC		; IMetaTable::IsSpecialTime
EXTRN	?CalcTimeSum@CDataConversion@@SA_J_J0H@Z:PROC	; CDataConversion::CalcTimeSum
EXTRN	@__security_check_cookie@4:PROC
EXTRN	___CxxFrameHandler3:PROC
EXTRN	__alldiv:PROC
EXTRN	__allmul:PROC
EXTRN	__allrem:PROC
EXTRN	__dtol3:PROC
EXTRN	__ltod3:PROC
EXTRN	??_7type_info@@6B@:QWORD			; type_info::`vftable'
EXTRN	?g_iMetaTable@@3VIMetaTable@@A:BYTE		; g_iMetaTable
EXTRN	___security_cookie:DWORD
EXTRN	__fltused:DWORD
_BSS	SEGMENT
?RMSG_ELC_CELLEDITED@@3IB DD 01H DUP (?)		; RMSG_ELC_CELLEDITED
_BSS	ENDS
CRT$XCU	SEGMENT
?RMSG_ELC_CELLEDITED$initializer$@@3P6AXXZA DD FLAT:??__ERMSG_ELC_CELLEDITED@@YAXXZ ; RMSG_ELC_CELLEDITED$initializer$
CRT$XCU	ENDS
;	COMDAT __xmm@0002a300000151800000a8c000005460
CONST	SEGMENT
__xmm@0002a300000151800000a8c000005460 DB '`T', 00H, 00H, 0c0H, 0a8H, 00H
	DB	00H, 080H, 'Q', 01H, 00H, 00H, 0a3H, 02H, 00H
CONST	ENDS
;	COMDAT __xmm@0000384000002a3000001c2000000e10
CONST	SEGMENT
__xmm@0000384000002a3000001c2000000e10 DB 010H, 0eH, 00H, 00H, ' ', 01cH, 00H
	DB	00H, '0*', 00H, 00H, '@8', 00H, 00H
CONST	ENDS
;	COMDAT __xmm@00000708000004b0000002580000021c
CONST	SEGMENT
__xmm@00000708000004b0000002580000021c DB 01cH, 02H, 00H, 00H, 'X', 02H, 00H
	DB	00H, 0b0H, 04H, 00H, 00H, 08H, 07H, 00H, 00H
CONST	ENDS
;	COMDAT __xmm@000001e0000001a4000001680000012c
CONST	SEGMENT
__xmm@000001e0000001a4000001680000012c DB ',', 01H, 00H, 00H, 'h', 01H, 00H
	DB	00H, 0a4H, 01H, 00H, 00H, 0e0H, 01H, 00H, 00H
CONST	ENDS
;	COMDAT __xmm@000000f0000000b4000000780000005a
CONST	SEGMENT
__xmm@000000f0000000b4000000780000005a DB 'Z', 00H, 00H, 00H, 'x', 00H, 00H
	DB	00H, 0b4H, 00H, 00H, 00H, 0f0H, 00H, 00H, 00H
CONST	ENDS
;	COMDAT __xmm@0000003c000000280000001e00000014
CONST	SEGMENT
__xmm@0000003c000000280000001e00000014 DB 014H, 00H, 00H, 00H, 01eH, 00H, 00H
	DB	00H, '(', 00H, 00H, 00H, '<', 00H, 00H, 00H
CONST	ENDS
;	COMDAT __xmm@0000000f0000000a0000000500000001
CONST	SEGMENT
__xmm@0000000f0000000a0000000500000001 DB 01H, 00H, 00H, 00H, 05H, 00H, 00H
	DB	00H, 0aH, 00H, 00H, 00H, 0fH, 00H, 00H, 00H
CONST	ENDS
;	COMDAT __real@40dfffc000000000
CONST	SEGMENT
__real@40dfffc000000000 DQ 040dfffc000000000r	; 32767
CONST	ENDS
;	COMDAT __real@4000000000000000
CONST	SEGMENT
__real@4000000000000000 DQ 04000000000000000r	; 2
CONST	ENDS
;	COMDAT __real@3ff0000000000000
CONST	SEGMENT
__real@3ff0000000000000 DQ 03ff0000000000000r	; 1
CONST	ENDS
;	COMDAT __real@0000000000000000
CONST	SEGMENT
__real@0000000000000000 DQ 00000000000000000r	; 0
CONST	ENDS
;	COMDAT ??_R1A@?0A@EA@CRealTimeTransducerDlg@@8
rdata$r	SEGMENT
??_R1A@?0A@EA@CRealTimeTransducerDlg@@8 DD FLAT:??_R0?AVCRealTimeTransducerDlg@@@8 ; CRealTimeTransducerDlg::`RTTI Base Class Descriptor at (0,-1,0,64)'
	DD	04H
	DD	00H
	DD	0ffffffffH
	DD	00H
	DD	040H
	DD	FLAT:??_R3CRealTimeTransducerDlg@@8
rdata$r	ENDS
;	COMDAT ??_R2CRealTimeTransducerDlg@@8
rdata$r	SEGMENT
??_R2CRealTimeTransducerDlg@@8 DD FLAT:??_R1A@?0A@EA@CRealTimeTransducerDlg@@8 ; CRealTimeTransducerDlg::`RTTI Base Class Array'
	DD	FLAT:??_R1A@?0A@EA@CDialog@@8
	DD	FLAT:??_R1A@?0A@EA@CWnd@@8
	DD	FLAT:??_R1A@?0A@EA@CCmdTarget@@8
	DD	FLAT:??_R1A@?0A@EA@CObject@@8
rdata$r	ENDS
;	COMDAT ??_R3CRealTimeTransducerDlg@@8
rdata$r	SEGMENT
??_R3CRealTimeTransducerDlg@@8 DD 00H			; CRealTimeTransducerDlg::`RTTI Class Hierarchy Descriptor'
	DD	00H
	DD	05H
	DD	FLAT:??_R2CRealTimeTransducerDlg@@8
rdata$r	ENDS
;	COMDAT ??_R0?AVCRealTimeTransducerDlg@@@8
data$rs	SEGMENT
??_R0?AVCRealTimeTransducerDlg@@@8 DD FLAT:??_7type_info@@6B@ ; CRealTimeTransducerDlg `RTTI Type Descriptor'
	DD	00H
	DB	'.?AVCRealTimeTransducerDlg@@', 00H
data$rs	ENDS
;	COMDAT ??_R4CRealTimeTransducerDlg@@6B@
rdata$r	SEGMENT
??_R4CRealTimeTransducerDlg@@6B@ DD 00H			; CRealTimeTransducerDlg::`RTTI Complete Object Locator'
	DD	00H
	DD	00H
	DD	FLAT:??_R0?AVCRealTimeTransducerDlg@@@8
	DD	FLAT:??_R3CRealTimeTransducerDlg@@8
rdata$r	ENDS
;	COMDAT ??_C@_07MGCPDNLD@DEFAULT@
CONST	SEGMENT
??_C@_07MGCPDNLD@DEFAULT@ DB 'DEFAULT', 00H		; `string'
CONST	ENDS
;	COMDAT ??_C@_02GMLAAMD@FX@
CONST	SEGMENT
??_C@_02GMLAAMD@FX@ DB 'FX', 00H			; `string'
CONST	ENDS
;	COMDAT ??_C@_04IMIHFAMF@?A?V?$LN?D@
CONST	SEGMENT
??_C@_04IMIHFAMF@?A?V?$LN?D@ DB 0c1H, 0d6H, 0bdH, 0c4H, 00H ; `string'
CONST	ENDS
;	COMDAT ??_C@_03BDHINOBA@RDC@
CONST	SEGMENT
??_C@_03BDHINOBA@RDC@ DB 'RDC', 00H			; `string'
CONST	ENDS
;	COMDAT ??_C@_05NFMIDMMK@Delta@
CONST	SEGMENT
??_C@_05NFMIDMMK@Delta@ DB 'Delta', 00H			; `string'
CONST	ENDS
;	COMDAT ??_C@_06ODAHLMJK@?$LN?G?$LN?C?$LA?$KD@
CONST	SEGMENT
??_C@_06ODAHLMJK@?$LN?G?$LN?C?$LA?$KD@ DB 0bdH, 0c7H, 0bdH, 0c3H, 0b0H, 0a3H
	DB	00H						; `string'
CONST	ENDS
;	COMDAT ??_C@_02JBAIIMJO@?$LA?$KK@
CONST	SEGMENT
??_C@_02JBAIIMJO@?$LA?$KK@ DB 0b0H, 0aaH, 00H		; `string'
CONST	ENDS
;	COMDAT ??_C@_06OGBBMCPL@?F?P?E?$LG?$LI?m@
CONST	SEGMENT
??_C@_06OGBBMCPL@?F?P?E?$LG?$LI?m@ DB 0c6H, 0d0H, 0c5H, 0b6H, 0b8H, 0edH, 00H ; `string'
CONST	ENDS
;	COMDAT ??_C@_02PKFBJPLJ@10@
CONST	SEGMENT
??_C@_02PKFBJPLJ@10@ DB '10', 00H			; `string'
CONST	ENDS
;	COMDAT ??_C@_06MCNKBKIO@100000@
CONST	SEGMENT
??_C@_06MCNKBKIO@100000@ DB '100000', 00H		; `string'
CONST	ENDS
;	COMDAT ??_C@_07FDLIFBIG@0?400005@
CONST	SEGMENT
??_C@_07FDLIFBIG@0?400005@ DB '0.00005', 00H		; `string'
CONST	ENDS
;	COMDAT ??_C@_01BMBHCPLG@5@
CONST	SEGMENT
??_C@_01BMBHCPLG@5@ DB '5', 00H				; `string'
CONST	ENDS
;	COMDAT ??_C@_02PJNFELNH@30@
CONST	SEGMENT
??_C@_02PJNFELNH@30@ DB '30', 00H			; `string'
CONST	ENDS
;	COMDAT ??_C@_01HIHLOKLC@1@
CONST	SEGMENT
??_C@_01HIHLOKLC@1@ DB '1', 00H				; `string'
CONST	ENDS
;	COMDAT ??_C@_01MHEDDDHA@v@
CONST	SEGMENT
??_C@_01MHEDDDHA@v@ DB 'v', 00H				; `string'
CONST	ENDS
;	COMDAT ??_C@_05OJJHEBAI@?$CF0?45f@
CONST	SEGMENT
??_C@_05OJJHEBAI@?$CF0?45f@ DB '%0.5f', 00H		; `string'
CONST	ENDS
;	COMDAT ??_C@_01ICJEACDI@?$DL@
CONST	SEGMENT
??_C@_01ICJEACDI@?$DL@ DB ';', 00H			; `string'
CONST	ENDS
;	COMDAT ??_C@_0BP@FAOJNMMP@?$CF04d?1?$CF02d?1?$CF02d?0?5?$CF02d?3?$CF02d?3?$CF02d@
CONST	SEGMENT
??_C@_0BP@FAOJNMMP@?$CF04d?1?$CF02d?1?$CF02d?0?5?$CF02d?3?$CF02d?3?$CF02d@ DB '%'
	DB	'04d/%02d/%02d, %02d:%02d:%02d', 00H		; `string'
CONST	ENDS
;	COMDAT ?messageMap@?1??GetThisMessageMap@CRealTimeTransducerDlg@@KGPBUAFX_MSGMAP@@XZ@4U3@B
CONST	SEGMENT
?messageMap@?1??GetThisMessageMap@CRealTimeTransducerDlg@@KGPBUAFX_MSGMAP@@XZ@4U3@B DD FLAT:?GetThisMessageMap@CDialog@@KGPBUAFX_MSGMAP@@XZ ; `CRealTimeTransducerDlg::GetThisMessageMap'::`2'::messageMap
	DD	FLAT:?_messageEntries@?1??GetThisMessageMap@CRealTimeTransducerDlg@@KGPBUAFX_MSGMAP@@XZ@4QBUAFX_MSGMAP_ENTRY@@B
CONST	ENDS
;	COMDAT ?_messageEntries@?1??GetThisMessageMap@CRealTimeTransducerDlg@@KGPBUAFX_MSGMAP@@XZ@4QBUAFX_MSGMAP_ENTRY@@B
CONST	SEGMENT
?_messageEntries@?1??GetThisMessageMap@CRealTimeTransducerDlg@@KGPBUAFX_MSGMAP@@XZ@4QBUAFX_MSGMAP_ENTRY@@B DD 0111H ; `CRealTimeTransducerDlg::GetThisMessageMap'::`2'::_messageEntries
	DD	00H
	DD	05dd7H
	DD	05dd7H
	DD	03aH
	DD	FLAT:?OnBtnSecond@CRealTimeTransducerDlg@@IAEXXZ
	DD	0111H
	DD	00H
	DD	05dd6H
	DD	05dd6H
	DD	03aH
	DD	FLAT:?OnBtnMinute@CRealTimeTransducerDlg@@IAEXXZ
	DD	0111H
	DD	00H
	DD	05dd5H
	DD	05dd5H
	DD	03aH
	DD	FLAT:?OnBtnHour@CRealTimeTransducerDlg@@IAEXXZ
	DD	0111H
	DD	00H
	DD	05dd4H
	DD	05dd4H
	DD	03aH
	DD	FLAT:?OnBtnDay@CRealTimeTransducerDlg@@IAEXXZ
	DD	0111H
	DD	00H
	DD	05dd3H
	DD	05dd3H
	DD	03aH
	DD	FLAT:?OnBtnMonth@CRealTimeTransducerDlg@@IAEXXZ
	DD	0111H
	DD	00H
	DD	05dd2H
	DD	05dd2H
	DD	03aH
	DD	FLAT:?OnBtnYear@CRealTimeTransducerDlg@@IAEXXZ
	DD	0111H
	DD	00H
	DD	05ddbH
	DD	05ddbH
	DD	03aH
	DD	FLAT:?OnChkFakeRealOn@CRealTimeTransducerDlg@@IAEXXZ
	DD	02H
	DD	00H
	DD	00H
	DD	00H
	DD	013H
	DD	FLAT:?OnDestroy@CRealTimeTransducerDlg@@IAEXXZ
	DD	0113H
	DD	00H
	DD	00H
	DD	00H
	DD	015H
	DD	FLAT:?OnTimer@CRealTimeTransducerDlg@@IAEXI@Z
	DD	0111H
	DD	00H
	DD	05ddcH
	DD	05ddcH
	DD	03aH
	DD	FLAT:?OnBtnFireFixedRealtime@CRealTimeTransducerDlg@@IAEXXZ
	DD	0111H
	DD	09H
	DD	05ddeH
	DD	05ddeH
	DD	03aH
	DD	FLAT:?OnSelendokCmbSpeed@CRealTimeTransducerDlg@@IAEXXZ
	DD	0111H
	DD	09H
	DD	05ddfH
	DD	05ddfH
	DD	03aH
	DD	FLAT:?OnSelendokCmbPricetype@CRealTimeTransducerDlg@@IAEXXZ
	DD	00H
	DD	00H
	DD	00H
	DD	00H
	DD	00H
	DD	00H
CONST	ENDS
;	COMDAT ??_7CRealTimeTransducerDlg@@6B@
CONST	SEGMENT
??_7CRealTimeTransducerDlg@@6B@ DD FLAT:??_R4CRealTimeTransducerDlg@@6B@ ; CRealTimeTransducerDlg::`vftable'
	DD	FLAT:?GetRuntimeClass@CDialog@@UBEPAUCRuntimeClass@@XZ
	DD	FLAT:??_ECRealTimeTransducerDlg@@UAEPAXI@Z
	DD	FLAT:?Serialize@CObject@@UAEXAAVCArchive@@@Z
	DD	FLAT:?AssertValid@CObject@@UBEXXZ
	DD	FLAT:?Dump@CObject@@UBEXAAVCDumpContext@@@Z
	DD	FLAT:?OnCmdMsg@CDialog@@UAEHIHPAXPAUAFX_CMDHANDLERINFO@@@Z
	DD	FLAT:?OnFinalRelease@CWnd@@UAEXXZ
	DD	FLAT:?IsInvokeAllowed@CCmdTarget@@UAEHJ@Z
	DD	FLAT:?GetDispatchIID@CCmdTarget@@UAEHPAU_GUID@@@Z
	DD	FLAT:?GetTypeInfoCount@CCmdTarget@@UAEIXZ
	DD	FLAT:?GetTypeLibCache@CCmdTarget@@UAEPAVCTypeLibCache@@XZ
	DD	FLAT:?GetTypeLib@CCmdTarget@@UAEJKPAPAUITypeLib@@@Z
	DD	FLAT:?GetMessageMap@CRealTimeTransducerDlg@@MBEPBUAFX_MSGMAP@@XZ
	DD	FLAT:?GetCommandMap@CCmdTarget@@MBEPBUAFX_OLECMDMAP@@XZ
	DD	FLAT:?GetDispatchMap@CCmdTarget@@MBEPBUAFX_DISPMAP@@XZ
	DD	FLAT:?GetConnectionMap@CCmdTarget@@MBEPBUAFX_CONNECTIONMAP@@XZ
	DD	FLAT:?GetInterfaceMap@CWnd@@MBEPBUAFX_INTERFACEMAP@@XZ
	DD	FLAT:?GetEventSinkMap@CCmdTarget@@MBEPBUAFX_EVENTSINKMAP@@XZ
	DD	FLAT:?OnCreateAggregates@CCmdTarget@@UAEHXZ
	DD	FLAT:?GetInterfaceHook@CCmdTarget@@UAEPAUIUnknown@@PBX@Z
	DD	FLAT:?GetExtraConnectionPoints@CCmdTarget@@MAEHPAVCPtrArray@@@Z
	DD	FLAT:?GetConnectionHook@CCmdTarget@@MAEPAUIConnectionPoint@@ABU_GUID@@@Z
	DD	FLAT:?PreSubclassWindow@CWnd@@UAEXXZ
	DD	FLAT:?Create@CWnd@@UAEHPBD0KABUtagRECT@@PAV1@IPAUCCreateContext@@@Z
	DD	FLAT:?CreateEx@CWnd@@UAEHKPBD0KABUtagRECT@@PAV1@IPAX@Z
	DD	FLAT:?CreateEx@CWnd@@UAEHKPBD0KHHHHPAUHWND__@@PAUHMENU__@@PAX@Z
	DD	FLAT:?DestroyWindow@CWnd@@UAEHXZ
	DD	FLAT:?PreCreateWindow@CWnd@@UAEHAAUtagCREATESTRUCTA@@@Z
	DD	FLAT:?CalcWindowRect@CWnd@@UAEXPAUtagRECT@@I@Z
	DD	FLAT:?GetMenu@CWnd@@UBEPAVCMenu@@XZ
	DD	FLAT:?SetMenu@CWnd@@UAEHPAVCMenu@@@Z
	DD	FLAT:?OnToolHitTest@CWnd@@UBEHVCPoint@@PAUtagTOOLINFOA@@@Z
	DD	FLAT:?GetScrollBarCtrl@CWnd@@UBEPAVCScrollBar@@H@Z
	DD	FLAT:?WinHelpA@CWnd@@UAEXKI@Z
	DD	FLAT:?HtmlHelpA@CWnd@@UAEXKI@Z
	DD	FLAT:?WinHelpInternal@CWnd@@UAEXKI@Z
	DD	FLAT:?ContinueModal@CWnd@@UAEHXZ
	DD	FLAT:?EndModalLoop@CWnd@@UAEXH@Z
	DD	FLAT:?OnDrawIconicThumbnailOrLivePreview@CWnd@@UAEXAAVCDC@@VCRect@@VCSize@@HAAH@Z
	DD	FLAT:?EnsureStdObj@CWnd@@UAEJXZ
	DD	FLAT:?get_accParent@CWnd@@UAEJPAPAUIDispatch@@@Z
	DD	FLAT:?get_accChildCount@CWnd@@UAEJPAJ@Z
	DD	FLAT:?get_accChild@CWnd@@UAEJUtagVARIANT@@PAPAUIDispatch@@@Z
	DD	FLAT:?get_accName@CWnd@@UAEJUtagVARIANT@@PAPA_W@Z
	DD	FLAT:?get_accValue@CWnd@@UAEJUtagVARIANT@@PAPA_W@Z
	DD	FLAT:?get_accDescription@CWnd@@UAEJUtagVARIANT@@PAPA_W@Z
	DD	FLAT:?get_accRole@CWnd@@UAEJUtagVARIANT@@PAU2@@Z
	DD	FLAT:?get_accState@CWnd@@UAEJUtagVARIANT@@PAU2@@Z
	DD	FLAT:?get_accHelp@CWnd@@UAEJUtagVARIANT@@PAPA_W@Z
	DD	FLAT:?get_accHelpTopic@CWnd@@UAEJPAPA_WUtagVARIANT@@PAJ@Z
	DD	FLAT:?get_accKeyboardShortcut@CWnd@@UAEJUtagVARIANT@@PAPA_W@Z
	DD	FLAT:?get_accFocus@CWnd@@UAEJPAUtagVARIANT@@@Z
	DD	FLAT:?get_accSelection@CWnd@@UAEJPAUtagVARIANT@@@Z
	DD	FLAT:?get_accDefaultAction@CWnd@@UAEJUtagVARIANT@@PAPA_W@Z
	DD	FLAT:?accSelect@CWnd@@UAEJJUtagVARIANT@@@Z
	DD	FLAT:?accLocation@CWnd@@UAEJPAJ000UtagVARIANT@@@Z
	DD	FLAT:?accNavigate@CWnd@@UAEJJUtagVARIANT@@PAU2@@Z
	DD	FLAT:?accHitTest@CWnd@@UAEJJJPAUtagVARIANT@@@Z
	DD	FLAT:?accDoDefaultAction@CWnd@@UAEJUtagVARIANT@@@Z
	DD	FLAT:?put_accName@CWnd@@UAEJUtagVARIANT@@PA_W@Z
	DD	FLAT:?put_accValue@CWnd@@UAEJUtagVARIANT@@PA_W@Z
	DD	FLAT:?SetProxy@CWnd@@UAEJPAUIAccessibleProxy@@@Z
	DD	FLAT:?CreateAccessibleProxy@CWnd@@UAEJIJPAJ@Z
	DD	FLAT:?OnCommand@CWnd@@MAEHIJ@Z
	DD	FLAT:?OnNotify@CWnd@@MAEHIJPAJ@Z
	DD	FLAT:?GetSuperWndProcAddr@CWnd@@MAEPAP6GJPAUHWND__@@IIJ@ZXZ
	DD	FLAT:?DoDataExchange@CRealTimeTransducerDlg@@MAEXPAVCDataExchange@@@Z
	DD	FLAT:?BeginModalState@CWnd@@UAEXXZ
	DD	FLAT:?EndModalState@CWnd@@UAEXXZ
	DD	FLAT:?PreTranslateMessage@CDialog@@UAEHPAUtagMSG@@@Z
	DD	FLAT:?OnAmbientProperty@CWnd@@UAEHPAVCOleControlSite@@JPAUtagVARIANT@@@Z
	DD	FLAT:?WindowProc@CWnd@@MAEJIIJ@Z
	DD	FLAT:?OnWndMsg@CWnd@@MAEHIIJPAJ@Z
	DD	FLAT:?DefWindowProcA@CWnd@@MAEJIIJ@Z
	DD	FLAT:?PostNcDestroy@CWnd@@MAEXXZ
	DD	FLAT:?OnChildNotify@CWnd@@MAEHIIJPAJ@Z
	DD	FLAT:?OnTouchInputs@CWnd@@MAEHIPAUtagTOUCHINPUT@@@Z
	DD	FLAT:?OnTouchInput@CWnd@@MAEHVCPoint@@HHPAUtagTOUCHINPUT@@@Z
	DD	FLAT:?GetGestureStatus@CWnd@@MAEKVCPoint@@@Z
	DD	FLAT:?OnGestureZoom@CWnd@@MAEHVCPoint@@J@Z
	DD	FLAT:?OnGesturePan@CWnd@@MAEHVCPoint@@0@Z
	DD	FLAT:?OnGestureRotate@CWnd@@MAEHVCPoint@@N@Z
	DD	FLAT:?OnGestureTwoFingerTap@CWnd@@MAEHVCPoint@@@Z
	DD	FLAT:?OnGesturePressAndTap@CWnd@@MAEHVCPoint@@J@Z
	DD	FLAT:?ResizeDynamicLayout@CWnd@@MAEXXZ
	DD	FLAT:?CheckAutoCenter@CDialog@@UAEHXZ
	DD	FLAT:?IsFrameWnd@CWnd@@UBEHXZ
	DD	FLAT:?CreateControlContainer@CWnd@@MAEHPAPAVCOleControlContainer@@@Z
	DD	FLAT:?CreateControlSite@CWnd@@MAEHPAVCOleControlContainer@@PAPAVCOleControlSite@@IABU_GUID@@@Z
	DD	FLAT:?SetOccDialogInfo@CDialog@@MAEHPAU_AFX_OCC_DIALOG_INFO@@@Z
	DD	FLAT:?GetOccDialogInfo@CDialog@@MAEPAU_AFX_OCC_DIALOG_INFO@@XZ
	DD	FLAT:?Create@CDialog@@UAEHIPAVCWnd@@@Z
	DD	FLAT:?Create@CDialog@@UAEHPBDPAVCWnd@@@Z
	DD	FLAT:?CreateIndirect@CDialog@@UAEHPAXPAVCWnd@@@Z
	DD	FLAT:?CreateIndirect@CDialog@@UAEHPBUDLGTEMPLATE@@PAVCWnd@@PAX@Z
	DD	FLAT:?DoModal@CDialog@@UAEHXZ
	DD	FLAT:?OnInitDialog@CRealTimeTransducerDlg@@MAEHXZ
	DD	FLAT:?OnSetFont@CDialog@@UAEXPAVCFont@@@Z
	DD	FLAT:?OnOK@CRealTimeTransducerDlg@@MAEXXZ
	DD	FLAT:?OnCancel@CRealTimeTransducerDlg@@MAEXXZ
	DD	FLAT:?PreInitDialog@CDialog@@MAEXXZ
CONST	ENDS
;	COMDAT ??_R2CDialog@@8
rdata$r	SEGMENT
??_R2CDialog@@8 DD FLAT:??_R1A@?0A@EA@CDialog@@8	; CDialog::`RTTI Base Class Array'
	DD	FLAT:??_R1A@?0A@EA@CWnd@@8
	DD	FLAT:??_R1A@?0A@EA@CCmdTarget@@8
	DD	FLAT:??_R1A@?0A@EA@CObject@@8
rdata$r	ENDS
;	COMDAT ??_R3CDialog@@8
rdata$r	SEGMENT
??_R3CDialog@@8 DD 00H					; CDialog::`RTTI Class Hierarchy Descriptor'
	DD	00H
	DD	04H
	DD	FLAT:??_R2CDialog@@8
rdata$r	ENDS
;	COMDAT ??_R0?AVCDialog@@@8
data$rs	SEGMENT
??_R0?AVCDialog@@@8 DD FLAT:??_7type_info@@6B@		; CDialog `RTTI Type Descriptor'
	DD	00H
	DB	'.?AVCDialog@@', 00H
data$rs	ENDS
;	COMDAT ??_R1A@?0A@EA@CDialog@@8
rdata$r	SEGMENT
??_R1A@?0A@EA@CDialog@@8 DD FLAT:??_R0?AVCDialog@@@8	; CDialog::`RTTI Base Class Descriptor at (0,-1,0,64)'
	DD	03H
	DD	00H
	DD	0ffffffffH
	DD	00H
	DD	040H
	DD	FLAT:??_R3CDialog@@8
rdata$r	ENDS
;	COMDAT ??_R1A@?0A@EA@CEdit@@8
rdata$r	SEGMENT
??_R1A@?0A@EA@CEdit@@8 DD FLAT:??_R0?AVCEdit@@@8	; CEdit::`RTTI Base Class Descriptor at (0,-1,0,64)'
	DD	03H
	DD	00H
	DD	0ffffffffH
	DD	00H
	DD	040H
	DD	FLAT:??_R3CEdit@@8
rdata$r	ENDS
;	COMDAT ??_R2CEdit@@8
rdata$r	SEGMENT
??_R2CEdit@@8 DD FLAT:??_R1A@?0A@EA@CEdit@@8		; CEdit::`RTTI Base Class Array'
	DD	FLAT:??_R1A@?0A@EA@CWnd@@8
	DD	FLAT:??_R1A@?0A@EA@CCmdTarget@@8
	DD	FLAT:??_R1A@?0A@EA@CObject@@8
rdata$r	ENDS
;	COMDAT ??_R3CEdit@@8
rdata$r	SEGMENT
??_R3CEdit@@8 DD 00H					; CEdit::`RTTI Class Hierarchy Descriptor'
	DD	00H
	DD	04H
	DD	FLAT:??_R2CEdit@@8
rdata$r	ENDS
;	COMDAT ??_R0?AVCEdit@@@8
data$rs	SEGMENT
??_R0?AVCEdit@@@8 DD FLAT:??_7type_info@@6B@		; CEdit `RTTI Type Descriptor'
	DD	00H
	DB	'.?AVCEdit@@', 00H
data$rs	ENDS
;	COMDAT ??_R4CEdit@@6B@
rdata$r	SEGMENT
??_R4CEdit@@6B@ DD 00H					; CEdit::`RTTI Complete Object Locator'
	DD	00H
	DD	00H
	DD	FLAT:??_R0?AVCEdit@@@8
	DD	FLAT:??_R3CEdit@@8
rdata$r	ENDS
;	COMDAT ??_R1A@?0A@EA@CComboBox@@8
rdata$r	SEGMENT
??_R1A@?0A@EA@CComboBox@@8 DD FLAT:??_R0?AVCComboBox@@@8 ; CComboBox::`RTTI Base Class Descriptor at (0,-1,0,64)'
	DD	03H
	DD	00H
	DD	0ffffffffH
	DD	00H
	DD	040H
	DD	FLAT:??_R3CComboBox@@8
rdata$r	ENDS
;	COMDAT ??_R2CComboBox@@8
rdata$r	SEGMENT
??_R2CComboBox@@8 DD FLAT:??_R1A@?0A@EA@CComboBox@@8	; CComboBox::`RTTI Base Class Array'
	DD	FLAT:??_R1A@?0A@EA@CWnd@@8
	DD	FLAT:??_R1A@?0A@EA@CCmdTarget@@8
	DD	FLAT:??_R1A@?0A@EA@CObject@@8
rdata$r	ENDS
;	COMDAT ??_R3CComboBox@@8
rdata$r	SEGMENT
??_R3CComboBox@@8 DD 00H				; CComboBox::`RTTI Class Hierarchy Descriptor'
	DD	00H
	DD	04H
	DD	FLAT:??_R2CComboBox@@8
rdata$r	ENDS
;	COMDAT ??_R0?AVCComboBox@@@8
data$rs	SEGMENT
??_R0?AVCComboBox@@@8 DD FLAT:??_7type_info@@6B@	; CComboBox `RTTI Type Descriptor'
	DD	00H
	DB	'.?AVCComboBox@@', 00H
data$rs	ENDS
;	COMDAT ??_R4CComboBox@@6B@
rdata$r	SEGMENT
??_R4CComboBox@@6B@ DD 00H				; CComboBox::`RTTI Complete Object Locator'
	DD	00H
	DD	00H
	DD	FLAT:??_R0?AVCComboBox@@@8
	DD	FLAT:??_R3CComboBox@@8
rdata$r	ENDS
;	COMDAT ??_R1A@?0A@EA@CButton@@8
rdata$r	SEGMENT
??_R1A@?0A@EA@CButton@@8 DD FLAT:??_R0?AVCButton@@@8	; CButton::`RTTI Base Class Descriptor at (0,-1,0,64)'
	DD	03H
	DD	00H
	DD	0ffffffffH
	DD	00H
	DD	040H
	DD	FLAT:??_R3CButton@@8
rdata$r	ENDS
;	COMDAT ??_R2CButton@@8
rdata$r	SEGMENT
??_R2CButton@@8 DD FLAT:??_R1A@?0A@EA@CButton@@8	; CButton::`RTTI Base Class Array'
	DD	FLAT:??_R1A@?0A@EA@CWnd@@8
	DD	FLAT:??_R1A@?0A@EA@CCmdTarget@@8
	DD	FLAT:??_R1A@?0A@EA@CObject@@8
rdata$r	ENDS
;	COMDAT ??_R3CButton@@8
rdata$r	SEGMENT
??_R3CButton@@8 DD 00H					; CButton::`RTTI Class Hierarchy Descriptor'
	DD	00H
	DD	04H
	DD	FLAT:??_R2CButton@@8
rdata$r	ENDS
;	COMDAT ??_R0?AVCButton@@@8
data$rs	SEGMENT
??_R0?AVCButton@@@8 DD FLAT:??_7type_info@@6B@		; CButton `RTTI Type Descriptor'
	DD	00H
	DB	'.?AVCButton@@', 00H
data$rs	ENDS
;	COMDAT ??_R4CButton@@6B@
rdata$r	SEGMENT
??_R4CButton@@6B@ DD 00H				; CButton::`RTTI Complete Object Locator'
	DD	00H
	DD	00H
	DD	FLAT:??_R0?AVCButton@@@8
	DD	FLAT:??_R3CButton@@8
rdata$r	ENDS
;	COMDAT ??_R2CCmdTarget@@8
rdata$r	SEGMENT
??_R2CCmdTarget@@8 DD FLAT:??_R1A@?0A@EA@CCmdTarget@@8	; CCmdTarget::`RTTI Base Class Array'
	DD	FLAT:??_R1A@?0A@EA@CObject@@8
rdata$r	ENDS
;	COMDAT ??_R3CCmdTarget@@8
rdata$r	SEGMENT
??_R3CCmdTarget@@8 DD 00H				; CCmdTarget::`RTTI Class Hierarchy Descriptor'
	DD	00H
	DD	02H
	DD	FLAT:??_R2CCmdTarget@@8
rdata$r	ENDS
;	COMDAT ??_R0?AVCCmdTarget@@@8
data$rs	SEGMENT
??_R0?AVCCmdTarget@@@8 DD FLAT:??_7type_info@@6B@	; CCmdTarget `RTTI Type Descriptor'
	DD	00H
	DB	'.?AVCCmdTarget@@', 00H
data$rs	ENDS
;	COMDAT ??_R1A@?0A@EA@CCmdTarget@@8
rdata$r	SEGMENT
??_R1A@?0A@EA@CCmdTarget@@8 DD FLAT:??_R0?AVCCmdTarget@@@8 ; CCmdTarget::`RTTI Base Class Descriptor at (0,-1,0,64)'
	DD	01H
	DD	00H
	DD	0ffffffffH
	DD	00H
	DD	040H
	DD	FLAT:??_R3CCmdTarget@@8
rdata$r	ENDS
;	COMDAT ??_R2CWnd@@8
rdata$r	SEGMENT
??_R2CWnd@@8 DD	FLAT:??_R1A@?0A@EA@CWnd@@8		; CWnd::`RTTI Base Class Array'
	DD	FLAT:??_R1A@?0A@EA@CCmdTarget@@8
	DD	FLAT:??_R1A@?0A@EA@CObject@@8
rdata$r	ENDS
;	COMDAT ??_R3CWnd@@8
rdata$r	SEGMENT
??_R3CWnd@@8 DD	00H					; CWnd::`RTTI Class Hierarchy Descriptor'
	DD	00H
	DD	03H
	DD	FLAT:??_R2CWnd@@8
rdata$r	ENDS
;	COMDAT ??_R0?AVCWnd@@@8
data$rs	SEGMENT
??_R0?AVCWnd@@@8 DD FLAT:??_7type_info@@6B@		; CWnd `RTTI Type Descriptor'
	DD	00H
	DB	'.?AVCWnd@@', 00H
data$rs	ENDS
;	COMDAT ??_R1A@?0A@EA@CWnd@@8
rdata$r	SEGMENT
??_R1A@?0A@EA@CWnd@@8 DD FLAT:??_R0?AVCWnd@@@8		; CWnd::`RTTI Base Class Descriptor at (0,-1,0,64)'
	DD	02H
	DD	00H
	DD	0ffffffffH
	DD	00H
	DD	040H
	DD	FLAT:??_R3CWnd@@8
rdata$r	ENDS
;	COMDAT ??_R1A@?0A@EA@CStatic@@8
rdata$r	SEGMENT
??_R1A@?0A@EA@CStatic@@8 DD FLAT:??_R0?AVCStatic@@@8	; CStatic::`RTTI Base Class Descriptor at (0,-1,0,64)'
	DD	03H
	DD	00H
	DD	0ffffffffH
	DD	00H
	DD	040H
	DD	FLAT:??_R3CStatic@@8
rdata$r	ENDS
;	COMDAT ??_R2CStatic@@8
rdata$r	SEGMENT
??_R2CStatic@@8 DD FLAT:??_R1A@?0A@EA@CStatic@@8	; CStatic::`RTTI Base Class Array'
	DD	FLAT:??_R1A@?0A@EA@CWnd@@8
	DD	FLAT:??_R1A@?0A@EA@CCmdTarget@@8
	DD	FLAT:??_R1A@?0A@EA@CObject@@8
rdata$r	ENDS
;	COMDAT ??_R3CStatic@@8
rdata$r	SEGMENT
??_R3CStatic@@8 DD 00H					; CStatic::`RTTI Class Hierarchy Descriptor'
	DD	00H
	DD	04H
	DD	FLAT:??_R2CStatic@@8
rdata$r	ENDS
;	COMDAT ??_R0?AVCStatic@@@8
data$rs	SEGMENT
??_R0?AVCStatic@@@8 DD FLAT:??_7type_info@@6B@		; CStatic `RTTI Type Descriptor'
	DD	00H
	DB	'.?AVCStatic@@', 00H
data$rs	ENDS
;	COMDAT ??_R4CStatic@@6B@
rdata$r	SEGMENT
??_R4CStatic@@6B@ DD 00H				; CStatic::`RTTI Complete Object Locator'
	DD	00H
	DD	00H
	DD	FLAT:??_R0?AVCStatic@@@8
	DD	FLAT:??_R3CStatic@@8
rdata$r	ENDS
;	COMDAT ??_R1A@?0A@EA@CObject@@8
rdata$r	SEGMENT
??_R1A@?0A@EA@CObject@@8 DD FLAT:??_R0?AVCObject@@@8	; CObject::`RTTI Base Class Descriptor at (0,-1,0,64)'
	DD	00H
	DD	00H
	DD	0ffffffffH
	DD	00H
	DD	040H
	DD	FLAT:??_R3CObject@@8
rdata$r	ENDS
;	COMDAT ??_R2CObject@@8
rdata$r	SEGMENT
??_R2CObject@@8 DD FLAT:??_R1A@?0A@EA@CObject@@8	; CObject::`RTTI Base Class Array'
rdata$r	ENDS
;	COMDAT ??_R3CObject@@8
rdata$r	SEGMENT
??_R3CObject@@8 DD 00H					; CObject::`RTTI Class Hierarchy Descriptor'
	DD	00H
	DD	01H
	DD	FLAT:??_R2CObject@@8
rdata$r	ENDS
;	COMDAT ??_R0?AVCObject@@@8
data$rs	SEGMENT
??_R0?AVCObject@@@8 DD FLAT:??_7type_info@@6B@		; CObject `RTTI Type Descriptor'
	DD	00H
	DB	'.?AVCObject@@', 00H
data$rs	ENDS
;	COMDAT ??_7CEdit@@6B@
CONST	SEGMENT
??_7CEdit@@6B@ DD FLAT:??_R4CEdit@@6B@			; CEdit::`vftable'
	DD	FLAT:?GetRuntimeClass@CEdit@@UBEPAUCRuntimeClass@@XZ
	DD	FLAT:??_ECEdit@@UAEPAXI@Z
	DD	FLAT:?Serialize@CObject@@UAEXAAVCArchive@@@Z
	DD	FLAT:?AssertValid@CObject@@UBEXXZ
	DD	FLAT:?Dump@CObject@@UBEXAAVCDumpContext@@@Z
	DD	FLAT:?OnCmdMsg@CCmdTarget@@UAEHIHPAXPAUAFX_CMDHANDLERINFO@@@Z
	DD	FLAT:?OnFinalRelease@CWnd@@UAEXXZ
	DD	FLAT:?IsInvokeAllowed@CCmdTarget@@UAEHJ@Z
	DD	FLAT:?GetDispatchIID@CCmdTarget@@UAEHPAU_GUID@@@Z
	DD	FLAT:?GetTypeInfoCount@CCmdTarget@@UAEIXZ
	DD	FLAT:?GetTypeLibCache@CCmdTarget@@UAEPAVCTypeLibCache@@XZ
	DD	FLAT:?GetTypeLib@CCmdTarget@@UAEJKPAPAUITypeLib@@@Z
	DD	FLAT:?GetMessageMap@CWnd@@MBEPBUAFX_MSGMAP@@XZ
	DD	FLAT:?GetCommandMap@CCmdTarget@@MBEPBUAFX_OLECMDMAP@@XZ
	DD	FLAT:?GetDispatchMap@CCmdTarget@@MBEPBUAFX_DISPMAP@@XZ
	DD	FLAT:?GetConnectionMap@CCmdTarget@@MBEPBUAFX_CONNECTIONMAP@@XZ
	DD	FLAT:?GetInterfaceMap@CWnd@@MBEPBUAFX_INTERFACEMAP@@XZ
	DD	FLAT:?GetEventSinkMap@CCmdTarget@@MBEPBUAFX_EVENTSINKMAP@@XZ
	DD	FLAT:?OnCreateAggregates@CCmdTarget@@UAEHXZ
	DD	FLAT:?GetInterfaceHook@CCmdTarget@@UAEPAUIUnknown@@PBX@Z
	DD	FLAT:?GetExtraConnectionPoints@CCmdTarget@@MAEHPAVCPtrArray@@@Z
	DD	FLAT:?GetConnectionHook@CCmdTarget@@MAEPAUIConnectionPoint@@ABU_GUID@@@Z
	DD	FLAT:?PreSubclassWindow@CWnd@@UAEXXZ
	DD	FLAT:?Create@CWnd@@UAEHPBD0KABUtagRECT@@PAV1@IPAUCCreateContext@@@Z
	DD	FLAT:?CreateEx@CWnd@@UAEHKPBD0KABUtagRECT@@PAV1@IPAX@Z
	DD	FLAT:?CreateEx@CWnd@@UAEHKPBD0KHHHHPAUHWND__@@PAUHMENU__@@PAX@Z
	DD	FLAT:?DestroyWindow@CWnd@@UAEHXZ
	DD	FLAT:?PreCreateWindow@CWnd@@UAEHAAUtagCREATESTRUCTA@@@Z
	DD	FLAT:?CalcWindowRect@CWnd@@UAEXPAUtagRECT@@I@Z
	DD	FLAT:?GetMenu@CWnd@@UBEPAVCMenu@@XZ
	DD	FLAT:?SetMenu@CWnd@@UAEHPAVCMenu@@@Z
	DD	FLAT:?OnToolHitTest@CWnd@@UBEHVCPoint@@PAUtagTOOLINFOA@@@Z
	DD	FLAT:?GetScrollBarCtrl@CWnd@@UBEPAVCScrollBar@@H@Z
	DD	FLAT:?WinHelpA@CWnd@@UAEXKI@Z
	DD	FLAT:?HtmlHelpA@CWnd@@UAEXKI@Z
	DD	FLAT:?WinHelpInternal@CWnd@@UAEXKI@Z
	DD	FLAT:?ContinueModal@CWnd@@UAEHXZ
	DD	FLAT:?EndModalLoop@CWnd@@UAEXH@Z
	DD	FLAT:?OnDrawIconicThumbnailOrLivePreview@CWnd@@UAEXAAVCDC@@VCRect@@VCSize@@HAAH@Z
	DD	FLAT:?EnsureStdObj@CWnd@@UAEJXZ
	DD	FLAT:?get_accParent@CWnd@@UAEJPAPAUIDispatch@@@Z
	DD	FLAT:?get_accChildCount@CWnd@@UAEJPAJ@Z
	DD	FLAT:?get_accChild@CWnd@@UAEJUtagVARIANT@@PAPAUIDispatch@@@Z
	DD	FLAT:?get_accName@CWnd@@UAEJUtagVARIANT@@PAPA_W@Z
	DD	FLAT:?get_accValue@CWnd@@UAEJUtagVARIANT@@PAPA_W@Z
	DD	FLAT:?get_accDescription@CWnd@@UAEJUtagVARIANT@@PAPA_W@Z
	DD	FLAT:?get_accRole@CWnd@@UAEJUtagVARIANT@@PAU2@@Z
	DD	FLAT:?get_accState@CWnd@@UAEJUtagVARIANT@@PAU2@@Z
	DD	FLAT:?get_accHelp@CWnd@@UAEJUtagVARIANT@@PAPA_W@Z
	DD	FLAT:?get_accHelpTopic@CWnd@@UAEJPAPA_WUtagVARIANT@@PAJ@Z
	DD	FLAT:?get_accKeyboardShortcut@CWnd@@UAEJUtagVARIANT@@PAPA_W@Z
	DD	FLAT:?get_accFocus@CWnd@@UAEJPAUtagVARIANT@@@Z
	DD	FLAT:?get_accSelection@CWnd@@UAEJPAUtagVARIANT@@@Z
	DD	FLAT:?get_accDefaultAction@CWnd@@UAEJUtagVARIANT@@PAPA_W@Z
	DD	FLAT:?accSelect@CWnd@@UAEJJUtagVARIANT@@@Z
	DD	FLAT:?accLocation@CWnd@@UAEJPAJ000UtagVARIANT@@@Z
	DD	FLAT:?accNavigate@CWnd@@UAEJJUtagVARIANT@@PAU2@@Z
	DD	FLAT:?accHitTest@CWnd@@UAEJJJPAUtagVARIANT@@@Z
	DD	FLAT:?accDoDefaultAction@CWnd@@UAEJUtagVARIANT@@@Z
	DD	FLAT:?put_accName@CWnd@@UAEJUtagVARIANT@@PA_W@Z
	DD	FLAT:?put_accValue@CWnd@@UAEJUtagVARIANT@@PA_W@Z
	DD	FLAT:?SetProxy@CWnd@@UAEJPAUIAccessibleProxy@@@Z
	DD	FLAT:?CreateAccessibleProxy@CWnd@@UAEJIJPAJ@Z
	DD	FLAT:?OnCommand@CWnd@@MAEHIJ@Z
	DD	FLAT:?OnNotify@CWnd@@MAEHIJPAJ@Z
	DD	FLAT:?GetSuperWndProcAddr@CWnd@@MAEPAP6GJPAUHWND__@@IIJ@ZXZ
	DD	FLAT:?DoDataExchange@CWnd@@MAEXPAVCDataExchange@@@Z
	DD	FLAT:?BeginModalState@CWnd@@UAEXXZ
	DD	FLAT:?EndModalState@CWnd@@UAEXXZ
	DD	FLAT:?PreTranslateMessage@CWnd@@UAEHPAUtagMSG@@@Z
	DD	FLAT:?OnAmbientProperty@CWnd@@UAEHPAVCOleControlSite@@JPAUtagVARIANT@@@Z
	DD	FLAT:?WindowProc@CWnd@@MAEJIIJ@Z
	DD	FLAT:?OnWndMsg@CWnd@@MAEHIIJPAJ@Z
	DD	FLAT:?DefWindowProcA@CWnd@@MAEJIIJ@Z
	DD	FLAT:?PostNcDestroy@CWnd@@MAEXXZ
	DD	FLAT:?OnChildNotify@CWnd@@MAEHIIJPAJ@Z
	DD	FLAT:?OnTouchInputs@CWnd@@MAEHIPAUtagTOUCHINPUT@@@Z
	DD	FLAT:?OnTouchInput@CWnd@@MAEHVCPoint@@HHPAUtagTOUCHINPUT@@@Z
	DD	FLAT:?GetGestureStatus@CWnd@@MAEKVCPoint@@@Z
	DD	FLAT:?OnGestureZoom@CWnd@@MAEHVCPoint@@J@Z
	DD	FLAT:?OnGesturePan@CWnd@@MAEHVCPoint@@0@Z
	DD	FLAT:?OnGestureRotate@CWnd@@MAEHVCPoint@@N@Z
	DD	FLAT:?OnGestureTwoFingerTap@CWnd@@MAEHVCPoint@@@Z
	DD	FLAT:?OnGesturePressAndTap@CWnd@@MAEHVCPoint@@J@Z
	DD	FLAT:?ResizeDynamicLayout@CWnd@@MAEXXZ
	DD	FLAT:?CheckAutoCenter@CWnd@@UAEHXZ
	DD	FLAT:?IsFrameWnd@CWnd@@UBEHXZ
	DD	FLAT:?CreateControlContainer@CWnd@@MAEHPAPAVCOleControlContainer@@@Z
	DD	FLAT:?CreateControlSite@CWnd@@MAEHPAVCOleControlContainer@@PAPAVCOleControlSite@@IABU_GUID@@@Z
	DD	FLAT:?SetOccDialogInfo@CWnd@@MAEHPAU_AFX_OCC_DIALOG_INFO@@@Z
	DD	FLAT:?GetOccDialogInfo@CWnd@@MAEPAU_AFX_OCC_DIALOG_INFO@@XZ
CONST	ENDS
;	COMDAT ??_7CComboBox@@6B@
CONST	SEGMENT
??_7CComboBox@@6B@ DD FLAT:??_R4CComboBox@@6B@		; CComboBox::`vftable'
	DD	FLAT:?GetRuntimeClass@CComboBox@@UBEPAUCRuntimeClass@@XZ
	DD	FLAT:??_ECComboBox@@UAEPAXI@Z
	DD	FLAT:?Serialize@CObject@@UAEXAAVCArchive@@@Z
	DD	FLAT:?AssertValid@CObject@@UBEXXZ
	DD	FLAT:?Dump@CObject@@UBEXAAVCDumpContext@@@Z
	DD	FLAT:?OnCmdMsg@CCmdTarget@@UAEHIHPAXPAUAFX_CMDHANDLERINFO@@@Z
	DD	FLAT:?OnFinalRelease@CWnd@@UAEXXZ
	DD	FLAT:?IsInvokeAllowed@CCmdTarget@@UAEHJ@Z
	DD	FLAT:?GetDispatchIID@CCmdTarget@@UAEHPAU_GUID@@@Z
	DD	FLAT:?GetTypeInfoCount@CCmdTarget@@UAEIXZ
	DD	FLAT:?GetTypeLibCache@CCmdTarget@@UAEPAVCTypeLibCache@@XZ
	DD	FLAT:?GetTypeLib@CCmdTarget@@UAEJKPAPAUITypeLib@@@Z
	DD	FLAT:?GetMessageMap@CWnd@@MBEPBUAFX_MSGMAP@@XZ
	DD	FLAT:?GetCommandMap@CCmdTarget@@MBEPBUAFX_OLECMDMAP@@XZ
	DD	FLAT:?GetDispatchMap@CCmdTarget@@MBEPBUAFX_DISPMAP@@XZ
	DD	FLAT:?GetConnectionMap@CCmdTarget@@MBEPBUAFX_CONNECTIONMAP@@XZ
	DD	FLAT:?GetInterfaceMap@CWnd@@MBEPBUAFX_INTERFACEMAP@@XZ
	DD	FLAT:?GetEventSinkMap@CCmdTarget@@MBEPBUAFX_EVENTSINKMAP@@XZ
	DD	FLAT:?OnCreateAggregates@CCmdTarget@@UAEHXZ
	DD	FLAT:?GetInterfaceHook@CCmdTarget@@UAEPAUIUnknown@@PBX@Z
	DD	FLAT:?GetExtraConnectionPoints@CCmdTarget@@MAEHPAVCPtrArray@@@Z
	DD	FLAT:?GetConnectionHook@CCmdTarget@@MAEPAUIConnectionPoint@@ABU_GUID@@@Z
	DD	FLAT:?PreSubclassWindow@CWnd@@UAEXXZ
	DD	FLAT:?Create@CWnd@@UAEHPBD0KABUtagRECT@@PAV1@IPAUCCreateContext@@@Z
	DD	FLAT:?CreateEx@CWnd@@UAEHKPBD0KABUtagRECT@@PAV1@IPAX@Z
	DD	FLAT:?CreateEx@CWnd@@UAEHKPBD0KHHHHPAUHWND__@@PAUHMENU__@@PAX@Z
	DD	FLAT:?DestroyWindow@CWnd@@UAEHXZ
	DD	FLAT:?PreCreateWindow@CWnd@@UAEHAAUtagCREATESTRUCTA@@@Z
	DD	FLAT:?CalcWindowRect@CWnd@@UAEXPAUtagRECT@@I@Z
	DD	FLAT:?GetMenu@CWnd@@UBEPAVCMenu@@XZ
	DD	FLAT:?SetMenu@CWnd@@UAEHPAVCMenu@@@Z
	DD	FLAT:?OnToolHitTest@CWnd@@UBEHVCPoint@@PAUtagTOOLINFOA@@@Z
	DD	FLAT:?GetScrollBarCtrl@CWnd@@UBEPAVCScrollBar@@H@Z
	DD	FLAT:?WinHelpA@CWnd@@UAEXKI@Z
	DD	FLAT:?HtmlHelpA@CWnd@@UAEXKI@Z
	DD	FLAT:?WinHelpInternal@CWnd@@UAEXKI@Z
	DD	FLAT:?ContinueModal@CWnd@@UAEHXZ
	DD	FLAT:?EndModalLoop@CWnd@@UAEXH@Z
	DD	FLAT:?OnDrawIconicThumbnailOrLivePreview@CWnd@@UAEXAAVCDC@@VCRect@@VCSize@@HAAH@Z
	DD	FLAT:?EnsureStdObj@CWnd@@UAEJXZ
	DD	FLAT:?get_accParent@CWnd@@UAEJPAPAUIDispatch@@@Z
	DD	FLAT:?get_accChildCount@CWnd@@UAEJPAJ@Z
	DD	FLAT:?get_accChild@CWnd@@UAEJUtagVARIANT@@PAPAUIDispatch@@@Z
	DD	FLAT:?get_accName@CWnd@@UAEJUtagVARIANT@@PAPA_W@Z
	DD	FLAT:?get_accValue@CWnd@@UAEJUtagVARIANT@@PAPA_W@Z
	DD	FLAT:?get_accDescription@CWnd@@UAEJUtagVARIANT@@PAPA_W@Z
	DD	FLAT:?get_accRole@CWnd@@UAEJUtagVARIANT@@PAU2@@Z
	DD	FLAT:?get_accState@CWnd@@UAEJUtagVARIANT@@PAU2@@Z
	DD	FLAT:?get_accHelp@CWnd@@UAEJUtagVARIANT@@PAPA_W@Z
	DD	FLAT:?get_accHelpTopic@CWnd@@UAEJPAPA_WUtagVARIANT@@PAJ@Z
	DD	FLAT:?get_accKeyboardShortcut@CWnd@@UAEJUtagVARIANT@@PAPA_W@Z
	DD	FLAT:?get_accFocus@CWnd@@UAEJPAUtagVARIANT@@@Z
	DD	FLAT:?get_accSelection@CWnd@@UAEJPAUtagVARIANT@@@Z
	DD	FLAT:?get_accDefaultAction@CWnd@@UAEJUtagVARIANT@@PAPA_W@Z
	DD	FLAT:?accSelect@CWnd@@UAEJJUtagVARIANT@@@Z
	DD	FLAT:?accLocation@CWnd@@UAEJPAJ000UtagVARIANT@@@Z
	DD	FLAT:?accNavigate@CWnd@@UAEJJUtagVARIANT@@PAU2@@Z
	DD	FLAT:?accHitTest@CWnd@@UAEJJJPAUtagVARIANT@@@Z
	DD	FLAT:?accDoDefaultAction@CWnd@@UAEJUtagVARIANT@@@Z
	DD	FLAT:?put_accName@CWnd@@UAEJUtagVARIANT@@PA_W@Z
	DD	FLAT:?put_accValue@CWnd@@UAEJUtagVARIANT@@PA_W@Z
	DD	FLAT:?SetProxy@CWnd@@UAEJPAUIAccessibleProxy@@@Z
	DD	FLAT:?CreateAccessibleProxy@CWnd@@UAEJIJPAJ@Z
	DD	FLAT:?OnCommand@CWnd@@MAEHIJ@Z
	DD	FLAT:?OnNotify@CWnd@@MAEHIJPAJ@Z
	DD	FLAT:?GetSuperWndProcAddr@CWnd@@MAEPAP6GJPAUHWND__@@IIJ@ZXZ
	DD	FLAT:?DoDataExchange@CWnd@@MAEXPAVCDataExchange@@@Z
	DD	FLAT:?BeginModalState@CWnd@@UAEXXZ
	DD	FLAT:?EndModalState@CWnd@@UAEXXZ
	DD	FLAT:?PreTranslateMessage@CWnd@@UAEHPAUtagMSG@@@Z
	DD	FLAT:?OnAmbientProperty@CWnd@@UAEHPAVCOleControlSite@@JPAUtagVARIANT@@@Z
	DD	FLAT:?WindowProc@CWnd@@MAEJIIJ@Z
	DD	FLAT:?OnWndMsg@CWnd@@MAEHIIJPAJ@Z
	DD	FLAT:?DefWindowProcA@CWnd@@MAEJIIJ@Z
	DD	FLAT:?PostNcDestroy@CWnd@@MAEXXZ
	DD	FLAT:?OnChildNotify@CComboBox@@MAEHIIJPAJ@Z
	DD	FLAT:?OnTouchInputs@CWnd@@MAEHIPAUtagTOUCHINPUT@@@Z
	DD	FLAT:?OnTouchInput@CWnd@@MAEHVCPoint@@HHPAUtagTOUCHINPUT@@@Z
	DD	FLAT:?GetGestureStatus@CWnd@@MAEKVCPoint@@@Z
	DD	FLAT:?OnGestureZoom@CWnd@@MAEHVCPoint@@J@Z
	DD	FLAT:?OnGesturePan@CWnd@@MAEHVCPoint@@0@Z
	DD	FLAT:?OnGestureRotate@CWnd@@MAEHVCPoint@@N@Z
	DD	FLAT:?OnGestureTwoFingerTap@CWnd@@MAEHVCPoint@@@Z
	DD	FLAT:?OnGesturePressAndTap@CWnd@@MAEHVCPoint@@J@Z
	DD	FLAT:?ResizeDynamicLayout@CWnd@@MAEXXZ
	DD	FLAT:?CheckAutoCenter@CWnd@@UAEHXZ
	DD	FLAT:?IsFrameWnd@CWnd@@UBEHXZ
	DD	FLAT:?CreateControlContainer@CWnd@@MAEHPAPAVCOleControlContainer@@@Z
	DD	FLAT:?CreateControlSite@CWnd@@MAEHPAVCOleControlContainer@@PAPAVCOleControlSite@@IABU_GUID@@@Z
	DD	FLAT:?SetOccDialogInfo@CWnd@@MAEHPAU_AFX_OCC_DIALOG_INFO@@@Z
	DD	FLAT:?GetOccDialogInfo@CWnd@@MAEPAU_AFX_OCC_DIALOG_INFO@@XZ
	DD	FLAT:?Create@CComboBox@@UAEHKABUtagRECT@@PAVCWnd@@I@Z
	DD	FLAT:?DrawItem@CComboBox@@UAEXPAUtagDRAWITEMSTRUCT@@@Z
	DD	FLAT:?MeasureItem@CComboBox@@UAEXPAUtagMEASUREITEMSTRUCT@@@Z
	DD	FLAT:?CompareItem@CComboBox@@UAEHPAUtagCOMPAREITEMSTRUCT@@@Z
	DD	FLAT:?DeleteItem@CComboBox@@UAEXPAUtagDELETEITEMSTRUCT@@@Z
CONST	ENDS
;	COMDAT ??_7CButton@@6B@
CONST	SEGMENT
??_7CButton@@6B@ DD FLAT:??_R4CButton@@6B@		; CButton::`vftable'
	DD	FLAT:?GetRuntimeClass@CButton@@UBEPAUCRuntimeClass@@XZ
	DD	FLAT:??_ECButton@@UAEPAXI@Z
	DD	FLAT:?Serialize@CObject@@UAEXAAVCArchive@@@Z
	DD	FLAT:?AssertValid@CObject@@UBEXXZ
	DD	FLAT:?Dump@CObject@@UBEXAAVCDumpContext@@@Z
	DD	FLAT:?OnCmdMsg@CCmdTarget@@UAEHIHPAXPAUAFX_CMDHANDLERINFO@@@Z
	DD	FLAT:?OnFinalRelease@CWnd@@UAEXXZ
	DD	FLAT:?IsInvokeAllowed@CCmdTarget@@UAEHJ@Z
	DD	FLAT:?GetDispatchIID@CCmdTarget@@UAEHPAU_GUID@@@Z
	DD	FLAT:?GetTypeInfoCount@CCmdTarget@@UAEIXZ
	DD	FLAT:?GetTypeLibCache@CCmdTarget@@UAEPAVCTypeLibCache@@XZ
	DD	FLAT:?GetTypeLib@CCmdTarget@@UAEJKPAPAUITypeLib@@@Z
	DD	FLAT:?GetMessageMap@CWnd@@MBEPBUAFX_MSGMAP@@XZ
	DD	FLAT:?GetCommandMap@CCmdTarget@@MBEPBUAFX_OLECMDMAP@@XZ
	DD	FLAT:?GetDispatchMap@CCmdTarget@@MBEPBUAFX_DISPMAP@@XZ
	DD	FLAT:?GetConnectionMap@CCmdTarget@@MBEPBUAFX_CONNECTIONMAP@@XZ
	DD	FLAT:?GetInterfaceMap@CWnd@@MBEPBUAFX_INTERFACEMAP@@XZ
	DD	FLAT:?GetEventSinkMap@CCmdTarget@@MBEPBUAFX_EVENTSINKMAP@@XZ
	DD	FLAT:?OnCreateAggregates@CCmdTarget@@UAEHXZ
	DD	FLAT:?GetInterfaceHook@CCmdTarget@@UAEPAUIUnknown@@PBX@Z
	DD	FLAT:?GetExtraConnectionPoints@CCmdTarget@@MAEHPAVCPtrArray@@@Z
	DD	FLAT:?GetConnectionHook@CCmdTarget@@MAEPAUIConnectionPoint@@ABU_GUID@@@Z
	DD	FLAT:?PreSubclassWindow@CWnd@@UAEXXZ
	DD	FLAT:?Create@CWnd@@UAEHPBD0KABUtagRECT@@PAV1@IPAUCCreateContext@@@Z
	DD	FLAT:?CreateEx@CWnd@@UAEHKPBD0KABUtagRECT@@PAV1@IPAX@Z
	DD	FLAT:?CreateEx@CWnd@@UAEHKPBD0KHHHHPAUHWND__@@PAUHMENU__@@PAX@Z
	DD	FLAT:?DestroyWindow@CWnd@@UAEHXZ
	DD	FLAT:?PreCreateWindow@CWnd@@UAEHAAUtagCREATESTRUCTA@@@Z
	DD	FLAT:?CalcWindowRect@CWnd@@UAEXPAUtagRECT@@I@Z
	DD	FLAT:?GetMenu@CWnd@@UBEPAVCMenu@@XZ
	DD	FLAT:?SetMenu@CWnd@@UAEHPAVCMenu@@@Z
	DD	FLAT:?OnToolHitTest@CWnd@@UBEHVCPoint@@PAUtagTOOLINFOA@@@Z
	DD	FLAT:?GetScrollBarCtrl@CWnd@@UBEPAVCScrollBar@@H@Z
	DD	FLAT:?WinHelpA@CWnd@@UAEXKI@Z
	DD	FLAT:?HtmlHelpA@CWnd@@UAEXKI@Z
	DD	FLAT:?WinHelpInternal@CWnd@@UAEXKI@Z
	DD	FLAT:?ContinueModal@CWnd@@UAEHXZ
	DD	FLAT:?EndModalLoop@CWnd@@UAEXH@Z
	DD	FLAT:?OnDrawIconicThumbnailOrLivePreview@CWnd@@UAEXAAVCDC@@VCRect@@VCSize@@HAAH@Z
	DD	FLAT:?EnsureStdObj@CWnd@@UAEJXZ
	DD	FLAT:?get_accParent@CWnd@@UAEJPAPAUIDispatch@@@Z
	DD	FLAT:?get_accChildCount@CWnd@@UAEJPAJ@Z
	DD	FLAT:?get_accChild@CWnd@@UAEJUtagVARIANT@@PAPAUIDispatch@@@Z
	DD	FLAT:?get_accName@CWnd@@UAEJUtagVARIANT@@PAPA_W@Z
	DD	FLAT:?get_accValue@CWnd@@UAEJUtagVARIANT@@PAPA_W@Z
	DD	FLAT:?get_accDescription@CWnd@@UAEJUtagVARIANT@@PAPA_W@Z
	DD	FLAT:?get_accRole@CWnd@@UAEJUtagVARIANT@@PAU2@@Z
	DD	FLAT:?get_accState@CWnd@@UAEJUtagVARIANT@@PAU2@@Z
	DD	FLAT:?get_accHelp@CWnd@@UAEJUtagVARIANT@@PAPA_W@Z
	DD	FLAT:?get_accHelpTopic@CWnd@@UAEJPAPA_WUtagVARIANT@@PAJ@Z
	DD	FLAT:?get_accKeyboardShortcut@CWnd@@UAEJUtagVARIANT@@PAPA_W@Z
	DD	FLAT:?get_accFocus@CWnd@@UAEJPAUtagVARIANT@@@Z
	DD	FLAT:?get_accSelection@CWnd@@UAEJPAUtagVARIANT@@@Z
	DD	FLAT:?get_accDefaultAction@CWnd@@UAEJUtagVARIANT@@PAPA_W@Z
	DD	FLAT:?accSelect@CWnd@@UAEJJUtagVARIANT@@@Z
	DD	FLAT:?accLocation@CWnd@@UAEJPAJ000UtagVARIANT@@@Z
	DD	FLAT:?accNavigate@CWnd@@UAEJJUtagVARIANT@@PAU2@@Z
	DD	FLAT:?accHitTest@CWnd@@UAEJJJPAUtagVARIANT@@@Z
	DD	FLAT:?accDoDefaultAction@CWnd@@UAEJUtagVARIANT@@@Z
	DD	FLAT:?put_accName@CWnd@@UAEJUtagVARIANT@@PA_W@Z
	DD	FLAT:?put_accValue@CWnd@@UAEJUtagVARIANT@@PA_W@Z
	DD	FLAT:?SetProxy@CWnd@@UAEJPAUIAccessibleProxy@@@Z
	DD	FLAT:?CreateAccessibleProxy@CWnd@@UAEJIJPAJ@Z
	DD	FLAT:?OnCommand@CWnd@@MAEHIJ@Z
	DD	FLAT:?OnNotify@CWnd@@MAEHIJPAJ@Z
	DD	FLAT:?GetSuperWndProcAddr@CWnd@@MAEPAP6GJPAUHWND__@@IIJ@ZXZ
	DD	FLAT:?DoDataExchange@CWnd@@MAEXPAVCDataExchange@@@Z
	DD	FLAT:?BeginModalState@CWnd@@UAEXXZ
	DD	FLAT:?EndModalState@CWnd@@UAEXXZ
	DD	FLAT:?PreTranslateMessage@CWnd@@UAEHPAUtagMSG@@@Z
	DD	FLAT:?OnAmbientProperty@CWnd@@UAEHPAVCOleControlSite@@JPAUtagVARIANT@@@Z
	DD	FLAT:?WindowProc@CWnd@@MAEJIIJ@Z
	DD	FLAT:?OnWndMsg@CWnd@@MAEHIIJPAJ@Z
	DD	FLAT:?DefWindowProcA@CWnd@@MAEJIIJ@Z
	DD	FLAT:?PostNcDestroy@CWnd@@MAEXXZ
	DD	FLAT:?OnChildNotify@CButton@@MAEHIIJPAJ@Z
	DD	FLAT:?OnTouchInputs@CWnd@@MAEHIPAUtagTOUCHINPUT@@@Z
	DD	FLAT:?OnTouchInput@CWnd@@MAEHVCPoint@@HHPAUtagTOUCHINPUT@@@Z
	DD	FLAT:?GetGestureStatus@CWnd@@MAEKVCPoint@@@Z
	DD	FLAT:?OnGestureZoom@CWnd@@MAEHVCPoint@@J@Z
	DD	FLAT:?OnGesturePan@CWnd@@MAEHVCPoint@@0@Z
	DD	FLAT:?OnGestureRotate@CWnd@@MAEHVCPoint@@N@Z
	DD	FLAT:?OnGestureTwoFingerTap@CWnd@@MAEHVCPoint@@@Z
	DD	FLAT:?OnGesturePressAndTap@CWnd@@MAEHVCPoint@@J@Z
	DD	FLAT:?ResizeDynamicLayout@CWnd@@MAEXXZ
	DD	FLAT:?CheckAutoCenter@CWnd@@UAEHXZ
	DD	FLAT:?IsFrameWnd@CWnd@@UBEHXZ
	DD	FLAT:?CreateControlContainer@CWnd@@MAEHPAPAVCOleControlContainer@@@Z
	DD	FLAT:?CreateControlSite@CWnd@@MAEHPAVCOleControlContainer@@PAPAVCOleControlSite@@IABU_GUID@@@Z
	DD	FLAT:?SetOccDialogInfo@CWnd@@MAEHPAU_AFX_OCC_DIALOG_INFO@@@Z
	DD	FLAT:?GetOccDialogInfo@CWnd@@MAEPAU_AFX_OCC_DIALOG_INFO@@XZ
	DD	FLAT:?Create@CButton@@UAEHPBDKABUtagRECT@@PAVCWnd@@I@Z
	DD	FLAT:?DrawItem@CButton@@UAEXPAUtagDRAWITEMSTRUCT@@@Z
CONST	ENDS
;	COMDAT ??_7CStatic@@6B@
CONST	SEGMENT
??_7CStatic@@6B@ DD FLAT:??_R4CStatic@@6B@		; CStatic::`vftable'
	DD	FLAT:?GetRuntimeClass@CStatic@@UBEPAUCRuntimeClass@@XZ
	DD	FLAT:??_ECStatic@@UAEPAXI@Z
	DD	FLAT:?Serialize@CObject@@UAEXAAVCArchive@@@Z
	DD	FLAT:?AssertValid@CObject@@UBEXXZ
	DD	FLAT:?Dump@CObject@@UBEXAAVCDumpContext@@@Z
	DD	FLAT:?OnCmdMsg@CCmdTarget@@UAEHIHPAXPAUAFX_CMDHANDLERINFO@@@Z
	DD	FLAT:?OnFinalRelease@CWnd@@UAEXXZ
	DD	FLAT:?IsInvokeAllowed@CCmdTarget@@UAEHJ@Z
	DD	FLAT:?GetDispatchIID@CCmdTarget@@UAEHPAU_GUID@@@Z
	DD	FLAT:?GetTypeInfoCount@CCmdTarget@@UAEIXZ
	DD	FLAT:?GetTypeLibCache@CCmdTarget@@UAEPAVCTypeLibCache@@XZ
	DD	FLAT:?GetTypeLib@CCmdTarget@@UAEJKPAPAUITypeLib@@@Z
	DD	FLAT:?GetMessageMap@CWnd@@MBEPBUAFX_MSGMAP@@XZ
	DD	FLAT:?GetCommandMap@CCmdTarget@@MBEPBUAFX_OLECMDMAP@@XZ
	DD	FLAT:?GetDispatchMap@CCmdTarget@@MBEPBUAFX_DISPMAP@@XZ
	DD	FLAT:?GetConnectionMap@CCmdTarget@@MBEPBUAFX_CONNECTIONMAP@@XZ
	DD	FLAT:?GetInterfaceMap@CWnd@@MBEPBUAFX_INTERFACEMAP@@XZ
	DD	FLAT:?GetEventSinkMap@CCmdTarget@@MBEPBUAFX_EVENTSINKMAP@@XZ
	DD	FLAT:?OnCreateAggregates@CCmdTarget@@UAEHXZ
	DD	FLAT:?GetInterfaceHook@CCmdTarget@@UAEPAUIUnknown@@PBX@Z
	DD	FLAT:?GetExtraConnectionPoints@CCmdTarget@@MAEHPAVCPtrArray@@@Z
	DD	FLAT:?GetConnectionHook@CCmdTarget@@MAEPAUIConnectionPoint@@ABU_GUID@@@Z
	DD	FLAT:?PreSubclassWindow@CWnd@@UAEXXZ
	DD	FLAT:?Create@CWnd@@UAEHPBD0KABUtagRECT@@PAV1@IPAUCCreateContext@@@Z
	DD	FLAT:?CreateEx@CWnd@@UAEHKPBD0KABUtagRECT@@PAV1@IPAX@Z
	DD	FLAT:?CreateEx@CWnd@@UAEHKPBD0KHHHHPAUHWND__@@PAUHMENU__@@PAX@Z
	DD	FLAT:?DestroyWindow@CWnd@@UAEHXZ
	DD	FLAT:?PreCreateWindow@CWnd@@UAEHAAUtagCREATESTRUCTA@@@Z
	DD	FLAT:?CalcWindowRect@CWnd@@UAEXPAUtagRECT@@I@Z
	DD	FLAT:?GetMenu@CWnd@@UBEPAVCMenu@@XZ
	DD	FLAT:?SetMenu@CWnd@@UAEHPAVCMenu@@@Z
	DD	FLAT:?OnToolHitTest@CWnd@@UBEHVCPoint@@PAUtagTOOLINFOA@@@Z
	DD	FLAT:?GetScrollBarCtrl@CWnd@@UBEPAVCScrollBar@@H@Z
	DD	FLAT:?WinHelpA@CWnd@@UAEXKI@Z
	DD	FLAT:?HtmlHelpA@CWnd@@UAEXKI@Z
	DD	FLAT:?WinHelpInternal@CWnd@@UAEXKI@Z
	DD	FLAT:?ContinueModal@CWnd@@UAEHXZ
	DD	FLAT:?EndModalLoop@CWnd@@UAEXH@Z
	DD	FLAT:?OnDrawIconicThumbnailOrLivePreview@CWnd@@UAEXAAVCDC@@VCRect@@VCSize@@HAAH@Z
	DD	FLAT:?EnsureStdObj@CWnd@@UAEJXZ
	DD	FLAT:?get_accParent@CWnd@@UAEJPAPAUIDispatch@@@Z
	DD	FLAT:?get_accChildCount@CWnd@@UAEJPAJ@Z
	DD	FLAT:?get_accChild@CWnd@@UAEJUtagVARIANT@@PAPAUIDispatch@@@Z
	DD	FLAT:?get_accName@CWnd@@UAEJUtagVARIANT@@PAPA_W@Z
	DD	FLAT:?get_accValue@CWnd@@UAEJUtagVARIANT@@PAPA_W@Z
	DD	FLAT:?get_accDescription@CWnd@@UAEJUtagVARIANT@@PAPA_W@Z
	DD	FLAT:?get_accRole@CWnd@@UAEJUtagVARIANT@@PAU2@@Z
	DD	FLAT:?get_accState@CWnd@@UAEJUtagVARIANT@@PAU2@@Z
	DD	FLAT:?get_accHelp@CWnd@@UAEJUtagVARIANT@@PAPA_W@Z
	DD	FLAT:?get_accHelpTopic@CWnd@@UAEJPAPA_WUtagVARIANT@@PAJ@Z
	DD	FLAT:?get_accKeyboardShortcut@CWnd@@UAEJUtagVARIANT@@PAPA_W@Z
	DD	FLAT:?get_accFocus@CWnd@@UAEJPAUtagVARIANT@@@Z
	DD	FLAT:?get_accSelection@CWnd@@UAEJPAUtagVARIANT@@@Z
	DD	FLAT:?get_accDefaultAction@CWnd@@UAEJUtagVARIANT@@PAPA_W@Z
	DD	FLAT:?accSelect@CWnd@@UAEJJUtagVARIANT@@@Z
	DD	FLAT:?accLocation@CWnd@@UAEJPAJ000UtagVARIANT@@@Z
	DD	FLAT:?accNavigate@CWnd@@UAEJJUtagVARIANT@@PAU2@@Z
	DD	FLAT:?accHitTest@CWnd@@UAEJJJPAUtagVARIANT@@@Z
	DD	FLAT:?accDoDefaultAction@CWnd@@UAEJUtagVARIANT@@@Z
	DD	FLAT:?put_accName@CWnd@@UAEJUtagVARIANT@@PA_W@Z
	DD	FLAT:?put_accValue@CWnd@@UAEJUtagVARIANT@@PA_W@Z
	DD	FLAT:?SetProxy@CWnd@@UAEJPAUIAccessibleProxy@@@Z
	DD	FLAT:?CreateAccessibleProxy@CWnd@@UAEJIJPAJ@Z
	DD	FLAT:?OnCommand@CWnd@@MAEHIJ@Z
	DD	FLAT:?OnNotify@CWnd@@MAEHIJPAJ@Z
	DD	FLAT:?GetSuperWndProcAddr@CWnd@@MAEPAP6GJPAUHWND__@@IIJ@ZXZ
	DD	FLAT:?DoDataExchange@CWnd@@MAEXPAVCDataExchange@@@Z
	DD	FLAT:?BeginModalState@CWnd@@UAEXXZ
	DD	FLAT:?EndModalState@CWnd@@UAEXXZ
	DD	FLAT:?PreTranslateMessage@CWnd@@UAEHPAUtagMSG@@@Z
	DD	FLAT:?OnAmbientProperty@CWnd@@UAEHPAVCOleControlSite@@JPAUtagVARIANT@@@Z
	DD	FLAT:?WindowProc@CWnd@@MAEJIIJ@Z
	DD	FLAT:?OnWndMsg@CWnd@@MAEHIIJPAJ@Z
	DD	FLAT:?DefWindowProcA@CWnd@@MAEJIIJ@Z
	DD	FLAT:?PostNcDestroy@CWnd@@MAEXXZ
	DD	FLAT:?OnChildNotify@CStatic@@MAEHIIJPAJ@Z
	DD	FLAT:?OnTouchInputs@CWnd@@MAEHIPAUtagTOUCHINPUT@@@Z
	DD	FLAT:?OnTouchInput@CWnd@@MAEHVCPoint@@HHPAUtagTOUCHINPUT@@@Z
	DD	FLAT:?GetGestureStatus@CWnd@@MAEKVCPoint@@@Z
	DD	FLAT:?OnGestureZoom@CWnd@@MAEHVCPoint@@J@Z
	DD	FLAT:?OnGesturePan@CWnd@@MAEHVCPoint@@0@Z
	DD	FLAT:?OnGestureRotate@CWnd@@MAEHVCPoint@@N@Z
	DD	FLAT:?OnGestureTwoFingerTap@CWnd@@MAEHVCPoint@@@Z
	DD	FLAT:?OnGesturePressAndTap@CWnd@@MAEHVCPoint@@J@Z
	DD	FLAT:?ResizeDynamicLayout@CWnd@@MAEXXZ
	DD	FLAT:?CheckAutoCenter@CWnd@@UAEHXZ
	DD	FLAT:?IsFrameWnd@CWnd@@UBEHXZ
	DD	FLAT:?CreateControlContainer@CWnd@@MAEHPAPAVCOleControlContainer@@@Z
	DD	FLAT:?CreateControlSite@CWnd@@MAEHPAVCOleControlContainer@@PAPAVCOleControlSite@@IABU_GUID@@@Z
	DD	FLAT:?SetOccDialogInfo@CWnd@@MAEHPAU_AFX_OCC_DIALOG_INFO@@@Z
	DD	FLAT:?GetOccDialogInfo@CWnd@@MAEPAU_AFX_OCC_DIALOG_INFO@@XZ
	DD	FLAT:?Create@CStatic@@UAEHPBDKABUtagRECT@@PAVCWnd@@I@Z
	DD	FLAT:?DrawItem@CStatic@@UAEXPAUtagDRAWITEMSTRUCT@@@Z
CONST	ENDS
;	COMDAT ??_C@_05LLAMLEHD@?$CFI64d@
CONST	SEGMENT
??_C@_05LLAMLEHD@?$CFI64d@ DB '%I64d', 00H		; `string'
CONST	ENDS
;	COMDAT ??_C@_02DPKJAMEF@?$CFd@
CONST	SEGMENT
??_C@_02DPKJAMEF@?$CFd@ DB '%d', 00H			; `string'
CONST	ENDS
;	COMDAT xdata$x
xdata$x	SEGMENT
__unwindtable$??_GCRealTimeTransducerDlg@@UAEPAXI@Z DD 0ffffffffH
	DD	FLAT:___std_terminate
__ehfuncinfo$??_GCRealTimeTransducerDlg@@UAEPAXI@Z DD 019930522H
	DD	01H
	DD	FLAT:__unwindtable$??_GCRealTimeTransducerDlg@@UAEPAXI@Z
	DD	2 DUP(00H)
	DD	2 DUP(00H)
	DD	00H
	DD	05H
xdata$x	ENDS
;	COMDAT xdata$x
xdata$x	SEGMENT
__unwindtable$?UpdateClockTime@CRealTimeTransducerDlg@@QAEXAA_J@Z DD 0ffffffffH
	DD	FLAT:__unwindfunclet$?UpdateClockTime@CRealTimeTransducerDlg@@QAEXAA_J@Z$0
	DD	00H
	DD	FLAT:__unwindfunclet$?UpdateClockTime@CRealTimeTransducerDlg@@QAEXAA_J@Z$1
	DD	01H
	DD	FLAT:__unwindfunclet$?UpdateClockTime@CRealTimeTransducerDlg@@QAEXAA_J@Z$2
__ehfuncinfo$?UpdateClockTime@CRealTimeTransducerDlg@@QAEXAA_J@Z DD 019930522H
	DD	03H
	DD	FLAT:__unwindtable$?UpdateClockTime@CRealTimeTransducerDlg@@QAEXAA_J@Z
	DD	2 DUP(00H)
	DD	2 DUP(00H)
	DD	00H
	DD	01H
xdata$x	ENDS
;	COMDAT xdata$x
xdata$x	SEGMENT
__unwindtable$?IsNoClockTime@CRealTimeTransducerDlg@@QAEHAA_J@Z DD 0ffffffffH
	DD	FLAT:__unwindfunclet$?IsNoClockTime@CRealTimeTransducerDlg@@QAEHAA_J@Z$0
__ehfuncinfo$?IsNoClockTime@CRealTimeTransducerDlg@@QAEHAA_J@Z DD 019930522H
	DD	01H
	DD	FLAT:__unwindtable$?IsNoClockTime@CRealTimeTransducerDlg@@QAEHAA_J@Z
	DD	2 DUP(00H)
	DD	2 DUP(00H)
	DD	00H
	DD	01H
xdata$x	ENDS
;	COMDAT xdata$x
xdata$x	SEGMENT
__unwindtable$?UpdateReal@CRealTimeTransducerDlg@@QAEXXZ DD 0ffffffffH
	DD	FLAT:__unwindfunclet$?UpdateReal@CRealTimeTransducerDlg@@QAEXXZ$0
	DD	00H
	DD	FLAT:__unwindfunclet$?UpdateReal@CRealTimeTransducerDlg@@QAEXXZ$1
	DD	01H
	DD	FLAT:__unwindfunclet$?UpdateReal@CRealTimeTransducerDlg@@QAEXXZ$2
__ehfuncinfo$?UpdateReal@CRealTimeTransducerDlg@@QAEXXZ DD 019930522H
	DD	03H
	DD	FLAT:__unwindtable$?UpdateReal@CRealTimeTransducerDlg@@QAEXXZ
	DD	2 DUP(00H)
	DD	2 DUP(00H)
	DD	00H
	DD	01H
xdata$x	ENDS
;	COMDAT xdata$x
xdata$x	SEGMENT
__ehfuncinfo$?UpdateTime@CRealTimeTransducerDlg@@QAEXPAUIPacketManager000000@@PAUIRealReceiver@@@Z DD 019930522H
	DD	0dH
	DD	FLAT:__unwindtable$?UpdateTime@CRealTimeTransducerDlg@@QAEXPAUIPacketManager000000@@PAUIRealReceiver@@@Z
	DD	2 DUP(00H)
	DD	2 DUP(00H)
	DD	00H
	DD	01H
__unwindtable$?UpdateTime@CRealTimeTransducerDlg@@QAEXPAUIPacketManager000000@@PAUIRealReceiver@@@Z DD 0ffffffffH
	DD	FLAT:__unwindfunclet$?UpdateTime@CRealTimeTransducerDlg@@QAEXPAUIPacketManager000000@@PAUIRealReceiver@@@Z$0
	DD	0ffffffffH
	DD	FLAT:__unwindfunclet$?UpdateTime@CRealTimeTransducerDlg@@QAEXPAUIPacketManager000000@@PAUIRealReceiver@@@Z$1
	DD	0ffffffffH
	DD	FLAT:__unwindfunclet$?UpdateTime@CRealTimeTransducerDlg@@QAEXPAUIPacketManager000000@@PAUIRealReceiver@@@Z$2
	DD	0ffffffffH
	DD	FLAT:__unwindfunclet$?UpdateTime@CRealTimeTransducerDlg@@QAEXPAUIPacketManager000000@@PAUIRealReceiver@@@Z$3
	DD	03H
	DD	FLAT:__unwindfunclet$?UpdateTime@CRealTimeTransducerDlg@@QAEXPAUIPacketManager000000@@PAUIRealReceiver@@@Z$4
	DD	04H
	DD	FLAT:__unwindfunclet$?UpdateTime@CRealTimeTransducerDlg@@QAEXPAUIPacketManager000000@@PAUIRealReceiver@@@Z$5
	DD	05H
	DD	FLAT:__unwindfunclet$?UpdateTime@CRealTimeTransducerDlg@@QAEXPAUIPacketManager000000@@PAUIRealReceiver@@@Z$6
	DD	06H
	DD	FLAT:__unwindfunclet$?UpdateTime@CRealTimeTransducerDlg@@QAEXPAUIPacketManager000000@@PAUIRealReceiver@@@Z$7
	DD	07H
	DD	FLAT:__unwindfunclet$?UpdateTime@CRealTimeTransducerDlg@@QAEXPAUIPacketManager000000@@PAUIRealReceiver@@@Z$8
	DD	08H
	DD	FLAT:__unwindfunclet$?UpdateTime@CRealTimeTransducerDlg@@QAEXPAUIPacketManager000000@@PAUIRealReceiver@@@Z$9
	DD	09H
	DD	FLAT:__unwindfunclet$?UpdateTime@CRealTimeTransducerDlg@@QAEXPAUIPacketManager000000@@PAUIRealReceiver@@@Z$10
	DD	09H
	DD	FLAT:__unwindfunclet$?UpdateTime@CRealTimeTransducerDlg@@QAEXPAUIPacketManager000000@@PAUIRealReceiver@@@Z$11
	DD	07H
	DD	FLAT:___std_terminate
xdata$x	ENDS
;	COMDAT xdata$x
xdata$x	SEGMENT
__ehfuncinfo$?FireFakeReal@CRealTimeTransducerDlg@@IAEXH@Z DD 019930522H
	DD	06H
	DD	FLAT:__unwindtable$?FireFakeReal@CRealTimeTransducerDlg@@IAEXH@Z
	DD	2 DUP(00H)
	DD	2 DUP(00H)
	DD	00H
	DD	01H
__unwindtable$?FireFakeReal@CRealTimeTransducerDlg@@IAEXH@Z DD 0ffffffffH
	DD	FLAT:__unwindfunclet$?FireFakeReal@CRealTimeTransducerDlg@@IAEXH@Z$0
	DD	00H
	DD	FLAT:__unwindfunclet$?FireFakeReal@CRealTimeTransducerDlg@@IAEXH@Z$1
	DD	01H
	DD	FLAT:__unwindfunclet$?FireFakeReal@CRealTimeTransducerDlg@@IAEXH@Z$2
	DD	02H
	DD	FLAT:__unwindfunclet$?FireFakeReal@CRealTimeTransducerDlg@@IAEXH@Z$3
	DD	02H
	DD	FLAT:__unwindfunclet$?FireFakeReal@CRealTimeTransducerDlg@@IAEXH@Z$4
	DD	02H
	DD	FLAT:__unwindfunclet$?FireFakeReal@CRealTimeTransducerDlg@@IAEXH@Z$8
xdata$x	ENDS
;	COMDAT xdata$x
xdata$x	SEGMENT
__unwindtable$?GetTimeString@CRealTimeTransducerDlg@@IAE?AV?$CStringT@DV?$StrTraitMFC_DLL@DV?$ChTraitsCRT@D@ATL@@@@@ATL@@_J@Z DD 0ffffffffH
	DD	FLAT:__unwindfunclet$?GetTimeString@CRealTimeTransducerDlg@@IAE?AV?$CStringT@DV?$StrTraitMFC_DLL@DV?$ChTraitsCRT@D@ATL@@@@@ATL@@_J@Z$0
__ehfuncinfo$?GetTimeString@CRealTimeTransducerDlg@@IAE?AV?$CStringT@DV?$StrTraitMFC_DLL@DV?$ChTraitsCRT@D@ATL@@@@@ATL@@_J@Z DD 019930522H
	DD	01H
	DD	FLAT:__unwindtable$?GetTimeString@CRealTimeTransducerDlg@@IAE?AV?$CStringT@DV?$StrTraitMFC_DLL@DV?$ChTraitsCRT@D@ATL@@@@@ATL@@_J@Z
	DD	2 DUP(00H)
	DD	2 DUP(00H)
	DD	00H
	DD	01H
xdata$x	ENDS
;	COMDAT xdata$x
xdata$x	SEGMENT
__unwindtable$?OnChkFakeRealOn@CRealTimeTransducerDlg@@IAEXXZ DD 0ffffffffH
	DD	FLAT:__unwindfunclet$?OnChkFakeRealOn@CRealTimeTransducerDlg@@IAEXXZ$0
__ehfuncinfo$?OnChkFakeRealOn@CRealTimeTransducerDlg@@IAEXXZ DD 019930522H
	DD	01H
	DD	FLAT:__unwindtable$?OnChkFakeRealOn@CRealTimeTransducerDlg@@IAEXXZ
	DD	2 DUP(00H)
	DD	2 DUP(00H)
	DD	00H
	DD	01H
xdata$x	ENDS
;	COMDAT xdata$x
xdata$x	SEGMENT
__unwindtable$?OnInitDialog@CRealTimeTransducerDlg@@MAEHXZ DD 0ffffffffH
	DD	FLAT:__unwindfunclet$?OnInitDialog@CRealTimeTransducerDlg@@MAEHXZ$0
__ehfuncinfo$?OnInitDialog@CRealTimeTransducerDlg@@MAEHXZ DD 019930522H
	DD	01H
	DD	FLAT:__unwindtable$?OnInitDialog@CRealTimeTransducerDlg@@MAEHXZ
	DD	2 DUP(00H)
	DD	2 DUP(00H)
	DD	00H
	DD	01H
xdata$x	ENDS
;	COMDAT xdata$x
xdata$x	SEGMENT
__ehfuncinfo$??1CRealTimeTransducerDlg@@UAE@XZ DD 019930522H
	DD	00H
	DD	00H
	DD	2 DUP(00H)
	DD	2 DUP(00H)
	DD	00H
	DD	05H
xdata$x	ENDS
;	COMDAT xdata$x
xdata$x	SEGMENT
__ehfuncinfo$??0CRealTimeTransducerDlg@@QAE@AA_J00AAVCTimeTypeConvert@@1PAVCWnd@@@Z DD 019930522H
	DD	0dH
	DD	FLAT:__unwindtable$??0CRealTimeTransducerDlg@@QAE@AA_J00AAVCTimeTypeConvert@@1PAVCWnd@@@Z
	DD	2 DUP(00H)
	DD	2 DUP(00H)
	DD	00H
	DD	01H
__unwindtable$??0CRealTimeTransducerDlg@@QAE@AA_J00AAVCTimeTypeConvert@@1PAVCWnd@@@Z DD 0ffffffffH
	DD	FLAT:__unwindfunclet$??0CRealTimeTransducerDlg@@QAE@AA_J00AAVCTimeTypeConvert@@1PAVCWnd@@@Z$0
	DD	00H
	DD	FLAT:__unwindfunclet$??0CRealTimeTransducerDlg@@QAE@AA_J00AAVCTimeTypeConvert@@1PAVCWnd@@@Z$1
	DD	01H
	DD	FLAT:__unwindfunclet$??0CRealTimeTransducerDlg@@QAE@AA_J00AAVCTimeTypeConvert@@1PAVCWnd@@@Z$2
	DD	02H
	DD	FLAT:__unwindfunclet$??0CRealTimeTransducerDlg@@QAE@AA_J00AAVCTimeTypeConvert@@1PAVCWnd@@@Z$3
	DD	03H
	DD	FLAT:__unwindfunclet$??0CRealTimeTransducerDlg@@QAE@AA_J00AAVCTimeTypeConvert@@1PAVCWnd@@@Z$4
	DD	04H
	DD	FLAT:__unwindfunclet$??0CRealTimeTransducerDlg@@QAE@AA_J00AAVCTimeTypeConvert@@1PAVCWnd@@@Z$5
	DD	05H
	DD	FLAT:__unwindfunclet$??0CRealTimeTransducerDlg@@QAE@AA_J00AAVCTimeTypeConvert@@1PAVCWnd@@@Z$6
	DD	06H
	DD	FLAT:__unwindfunclet$??0CRealTimeTransducerDlg@@QAE@AA_J00AAVCTimeTypeConvert@@1PAVCWnd@@@Z$7
	DD	07H
	DD	FLAT:__unwindfunclet$??0CRealTimeTransducerDlg@@QAE@AA_J00AAVCTimeTypeConvert@@1PAVCWnd@@@Z$8
	DD	08H
	DD	FLAT:__unwindfunclet$??0CRealTimeTransducerDlg@@QAE@AA_J00AAVCTimeTypeConvert@@1PAVCWnd@@@Z$9
	DD	09H
	DD	FLAT:__unwindfunclet$??0CRealTimeTransducerDlg@@QAE@AA_J00AAVCTimeTypeConvert@@1PAVCWnd@@@Z$10
	DD	0aH
	DD	FLAT:__unwindfunclet$??0CRealTimeTransducerDlg@@QAE@AA_J00AAVCTimeTypeConvert@@1PAVCWnd@@@Z$11
	DD	0bH
	DD	FLAT:__unwindfunclet$??0CRealTimeTransducerDlg@@QAE@AA_J00AAVCTimeTypeConvert@@1PAVCWnd@@@Z$12
xdata$x	ENDS
;	COMDAT xdata$x
xdata$x	SEGMENT
__ehfuncinfo$??1ILPCSTR000000@@QAE@XZ DD 019930522H
	DD	00H
	DD	00H
	DD	2 DUP(00H)
	DD	2 DUP(00H)
	DD	00H
	DD	05H
xdata$x	ENDS
; Function compile flags: /Ogtp
; File D:\git\src\IBK\IBK_DRFN\ProjSrc\SrcChartEx\ChartOCX\AddInManager\ChartCommonAddIn\RealTimeTransducerDlg.cpp
; File C:\Program Files (x86)\Microsoft Visual Studio\2019\Community\VC\Tools\MSVC\14.29.30133\atlmfc\include\afx.inl
;	COMDAT ??_GCRealTimeTransducerDlg@@UAEPAXI@Z
_TEXT	SEGMENT
__$EHRec$ = -12						; size = 12
___flags$ = 8						; size = 4
??_GCRealTimeTransducerDlg@@UAEPAXI@Z PROC		; CRealTimeTransducerDlg::`scalar deleting destructor', COMDAT
; _this$ = ecx
  00000	55		 push	 ebp
  00001	8b ec		 mov	 ebp, esp
  00003	6a ff		 push	 -1
  00005	68 00 00 00 00	 push	 __ehhandler$??_GCRealTimeTransducerDlg@@UAEPAXI@Z
  0000a	64 a1 00 00 00
	00		 mov	 eax, DWORD PTR fs:0
  00010	50		 push	 eax
  00011	56		 push	 esi
  00012	a1 00 00 00 00	 mov	 eax, DWORD PTR ___security_cookie
  00017	33 c5		 xor	 eax, ebp
  00019	50		 push	 eax
  0001a	8d 45 f4	 lea	 eax, DWORD PTR __$EHRec$[ebp]
  0001d	64 a3 00 00 00
	00		 mov	 DWORD PTR fs:0, eax
  00023	8b f1		 mov	 esi, ecx
; File D:\git\src\IBK\IBK_DRFN\ProjSrc\SrcChartEx\ChartOCX\AddInManager\ChartCommonAddIn\RealTimeTransducerDlg.cpp

; 42   : 	if( m_pIPacketManager) m_pIPacketManager->Release();

  00025	8b 8e 4c 07 00
	00		 mov	 ecx, DWORD PTR [esi+1868]
  0002b	c7 45 fc 00 00
	00 00		 mov	 DWORD PTR __$EHRec$[ebp+8], 0
  00032	c7 06 00 00 00
	00		 mov	 DWORD PTR [esi], OFFSET ??_7CRealTimeTransducerDlg@@6B@
  00038	85 c9		 test	 ecx, ecx
  0003a	74 06		 je	 SHORT $LN8@scalar
  0003c	8b 01		 mov	 eax, DWORD PTR [ecx]
  0003e	51		 push	 ecx
  0003f	ff 50 08	 call	 DWORD PTR [eax+8]
$LN8@scalar:

; 43   : 	m_pIPacketManager = NULL;
; 44   : 	if( m_pIRealReceiver) m_pIRealReceiver->Release();

  00042	8b 8e 58 07 00
	00		 mov	 ecx, DWORD PTR [esi+1880]
  00048	c7 86 4c 07 00
	00 00 00 00 00	 mov	 DWORD PTR [esi+1868], 0
  00052	85 c9		 test	 ecx, ecx
  00054	74 06		 je	 SHORT $LN9@scalar
  00056	8b 01		 mov	 eax, DWORD PTR [ecx]
  00058	51		 push	 ecx
  00059	ff 50 08	 call	 DWORD PTR [eax+8]
$LN9@scalar:

; 45   : 	m_pIRealReceiver = NULL;
; 46   : }

  0005c	8d 8e c0 06 00
	00		 lea	 ecx, DWORD PTR [esi+1728]
  00062	c7 86 58 07 00
	00 00 00 00 00	 mov	 DWORD PTR [esi+1880], 0
  0006c	e8 00 00 00 00	 call	 ??1CStatic@@UAE@XZ	; CStatic::~CStatic
  00071	8d 8e 40 06 00
	00		 lea	 ecx, DWORD PTR [esi+1600]
  00077	e8 00 00 00 00	 call	 ??1CStatic@@UAE@XZ	; CStatic::~CStatic
  0007c	8d 8e c0 05 00
	00		 lea	 ecx, DWORD PTR [esi+1472]
  00082	e8 00 00 00 00	 call	 ??1CStatic@@UAE@XZ	; CStatic::~CStatic
  00087	8d 8e 28 05 00
	00		 lea	 ecx, DWORD PTR [esi+1320]
  0008d	e8 00 00 00 00	 call	 ??1CEditableListCtrl@@UAE@XZ ; CEditableListCtrl::~CEditableListCtrl
  00092	8d 8e a8 04 00
	00		 lea	 ecx, DWORD PTR [esi+1192]
  00098	e8 00 00 00 00	 call	 ??1CEdit@@UAE@XZ	; CEdit::~CEdit
  0009d	8d 8e 28 04 00
	00		 lea	 ecx, DWORD PTR [esi+1064]
  000a3	e8 00 00 00 00	 call	 ??1CButton@@UAE@XZ	; CButton::~CButton
  000a8	8d 8e a8 03 00
	00		 lea	 ecx, DWORD PTR [esi+936]
  000ae	e8 00 00 00 00	 call	 ??1CComboBox@@UAE@XZ	; CComboBox::~CComboBox
  000b3	8d 8e 28 03 00
	00		 lea	 ecx, DWORD PTR [esi+808]
  000b9	e8 00 00 00 00	 call	 ??1CComboBox@@UAE@XZ	; CComboBox::~CComboBox
  000be	8d 8e a8 02 00
	00		 lea	 ecx, DWORD PTR [esi+680]
  000c4	e8 00 00 00 00	 call	 ??1CButton@@UAE@XZ	; CButton::~CButton
  000c9	8d 8e 28 02 00
	00		 lea	 ecx, DWORD PTR [esi+552]
  000cf	e8 00 00 00 00	 call	 ??1CStatic@@UAE@XZ	; CStatic::~CStatic
  000d4	8d 8e a8 01 00
	00		 lea	 ecx, DWORD PTR [esi+424]
  000da	e8 00 00 00 00	 call	 ??1CComboBox@@UAE@XZ	; CComboBox::~CComboBox
  000df	8d 8e 28 01 00
	00		 lea	 ecx, DWORD PTR [esi+296]
  000e5	e8 00 00 00 00	 call	 ??1CStatic@@UAE@XZ	; CStatic::~CStatic
  000ea	8d 8e a8 00 00
	00		 lea	 ecx, DWORD PTR [esi+168]
  000f0	e8 00 00 00 00	 call	 ??1CButton@@UAE@XZ	; CButton::~CButton
  000f5	8b ce		 mov	 ecx, esi
  000f7	e8 00 00 00 00	 call	 ??1CDialog@@UAE@XZ	; CDialog::~CDialog
  000fc	8b 45 08	 mov	 eax, DWORD PTR ___flags$[ebp]
  000ff	a8 01		 test	 al, 1
  00101	74 2f		 je	 SHORT $LN14@scalar
  00103	a8 04		 test	 al, 4
  00105	75 1d		 jne	 SHORT $LN3@scalar
; File C:\Program Files (x86)\Microsoft Visual Studio\2019\Community\VC\Tools\MSVC\14.29.30133\atlmfc\include\afx.inl

; 112  : 	{ ::operator delete(p); }

  00107	56		 push	 esi
  00108	e8 00 00 00 00	 call	 ??3@YAXPAX@Z		; operator delete
  0010d	83 c4 04	 add	 esp, 4
  00110	8b c6		 mov	 eax, esi
  00112	8b 4d f4	 mov	 ecx, DWORD PTR __$EHRec$[ebp]
  00115	64 89 0d 00 00
	00 00		 mov	 DWORD PTR fs:0, ecx
  0011c	59		 pop	 ecx
  0011d	5e		 pop	 esi
  0011e	8b e5		 mov	 esp, ebp
  00120	5d		 pop	 ebp
  00121	c2 04 00	 ret	 4
$LN3@scalar:
  00124	68 60 07 00 00	 push	 1888			; 00000760H
  00129	56		 push	 esi
  0012a	e8 00 00 00 00	 call	 ?__global_delete@@YAXPAXI@Z ; __global_delete
  0012f	83 c4 08	 add	 esp, 8
$LN14@scalar:
  00132	8b c6		 mov	 eax, esi
  00134	8b 4d f4	 mov	 ecx, DWORD PTR __$EHRec$[ebp]
  00137	64 89 0d 00 00
	00 00		 mov	 DWORD PTR fs:0, ecx
  0013e	59		 pop	 ecx
  0013f	5e		 pop	 esi
  00140	8b e5		 mov	 esp, ebp
  00142	5d		 pop	 ebp
  00143	c2 04 00	 ret	 4
  00146	cc		 int	 3
  00147	cc		 int	 3
  00148	cc		 int	 3
  00149	cc		 int	 3
  0014a	cc		 int	 3
_TEXT	ENDS
;	COMDAT text$x
text$x	SEGMENT
__ehhandler$??_GCRealTimeTransducerDlg@@UAEPAXI@Z:
  00000	90		 npad	 1
  00001	90		 npad	 1
  00002	8b 54 24 08	 mov	 edx, DWORD PTR [esp+8]
  00006	8d 42 0c	 lea	 eax, DWORD PTR [edx+12]
  00009	8b 4a f8	 mov	 ecx, DWORD PTR [edx-8]
  0000c	33 c8		 xor	 ecx, eax
  0000e	e8 00 00 00 00	 call	 @__security_check_cookie@4
  00013	b8 00 00 00 00	 mov	 eax, OFFSET __ehfuncinfo$??_GCRealTimeTransducerDlg@@UAEPAXI@Z
  00018	e9 00 00 00 00	 jmp	 ___CxxFrameHandler3
text$x	ENDS
??_GCRealTimeTransducerDlg@@UAEPAXI@Z ENDP		; CRealTimeTransducerDlg::`scalar deleting destructor'
; Function compile flags: /Ogtp
; File D:\git\src\IBK\IBK_DRFN\ProjSrc\SrcChartEx\ChartOCX\AddInManager\ChartCommonAddIn\RealTimeTransducerDlg.cpp
; File C:\Program Files (x86)\Microsoft Visual Studio\2019\Community\VC\Tools\MSVC\14.29.30133\atlmfc\include\afxwin2.inl
; File D:\git\src\IBK\IBK_DRFN\ProjSrc\SrcChartEx\ChartOCX\AddInManager\ChartCommonAddIn\RealTimeTransducerDlg.cpp
;	COMDAT ?UpdateClockTime@CRealTimeTransducerDlg@@QAEXAA_J@Z
_TEXT	SEGMENT
_nLastClockTime$ = -52					; size = 8
_nLastRealTime$ = -44					; size = 8
_nMod5$1$ = -36						; size = 4
_lClockAccelerator$1$ = -32				; size = 4
tv417 = -28						; size = 4
tv418 = -24						; size = 4
_strClockAccelerator$ = -20				; size = 4
_strRealClockSecs$ = -16				; size = 4
__$EHRec$ = -12						; size = 12
$T2 = 8							; size = 4
_p_nRealClockSecs$ = 8					; size = 4
?UpdateClockTime@CRealTimeTransducerDlg@@QAEXAA_J@Z PROC ; CRealTimeTransducerDlg::UpdateClockTime, COMDAT
; _this$ = ecx

; 487  : {

  00000	55		 push	 ebp
  00001	8b ec		 mov	 ebp, esp
  00003	6a ff		 push	 -1
  00005	68 00 00 00 00	 push	 __ehhandler$?UpdateClockTime@CRealTimeTransducerDlg@@QAEXAA_J@Z
  0000a	64 a1 00 00 00
	00		 mov	 eax, DWORD PTR fs:0
  00010	50		 push	 eax
  00011	83 ec 28	 sub	 esp, 40			; 00000028H
  00014	53		 push	 ebx
  00015	56		 push	 esi
  00016	57		 push	 edi
  00017	a1 00 00 00 00	 mov	 eax, DWORD PTR ___security_cookie
  0001c	33 c5		 xor	 eax, ebp
  0001e	50		 push	 eax
  0001f	8d 45 f4	 lea	 eax, DWORD PTR __$EHRec$[ebp]
  00022	64 a3 00 00 00
	00		 mov	 DWORD PTR fs:0, eax
  00028	8b d9		 mov	 ebx, ecx
; File C:\Program Files (x86)\Microsoft Visual Studio\2019\Community\VC\Tools\MSVC\14.29.30133\atlmfc\include\afxwin2.inl

; 25   : 	{ return this == NULL ? NULL : m_hWnd; }

  0002a	85 db		 test	 ebx, ebx
  0002c	0f 84 5d 01 00
	00		 je	 $LN1@UpdateCloc
; File D:\git\src\IBK\IBK_DRFN\ProjSrc\SrcChartEx\ChartOCX\AddInManager\ChartCommonAddIn\RealTimeTransducerDlg.cpp

; 488  : 	if( !GetSafeHwnd()) return;

  00032	83 7b 20 00	 cmp	 DWORD PTR [ebx+32], 0
  00036	0f 84 53 01 00
	00		 je	 $LN1@UpdateCloc

; 489  : 	
; 490  : 	CString strClockAccelerator;

  0003c	8d 4d ec	 lea	 ecx, DWORD PTR _strClockAccelerator$[ebp]
  0003f	ff 15 00 00 00
	00		 call	 DWORD PTR __imp_??0?$CStringT@DV?$StrTraitMFC_DLL@DV?$ChTraitsCRT@D@ATL@@@@@ATL@@QAE@XZ

; 491  : 	m_cmbClockAccelerator.GetWindowText( strClockAccelerator);

  00045	8d 45 ec	 lea	 eax, DWORD PTR _strClockAccelerator$[ebp]
  00048	c7 45 fc 00 00
	00 00		 mov	 DWORD PTR __$EHRec$[ebp+8], 0
  0004f	50		 push	 eax
  00050	8d 8b a8 01 00
	00		 lea	 ecx, DWORD PTR [ebx+424]
  00056	e8 00 00 00 00	 call	 ?GetWindowTextA@CWnd@@QBEXAAV?$CStringT@DV?$StrTraitMFC_DLL@DV?$ChTraitsCRT@D@ATL@@@@@ATL@@@Z ; CWnd::GetWindowTextA

; 492  : 	long lClockAccelerator = atol( strClockAccelerator);

  0005b	ff 75 ec	 push	 DWORD PTR _strClockAccelerator$[ebp]
  0005e	ff 15 00 00 00
	00		 call	 DWORD PTR __imp__atol

; 493  : 	int nMod5 = int( p_nRealClockSecs % 5);

  00064	8b 4d 08	 mov	 ecx, DWORD PTR _p_nRealClockSecs$[ebp]
  00067	83 c4 04	 add	 esp, 4
  0006a	89 45 e0	 mov	 DWORD PTR _lClockAccelerator$1$[ebp], eax
  0006d	8b 79 04	 mov	 edi, DWORD PTR [ecx+4]
  00070	8b 31		 mov	 esi, DWORD PTR [ecx]
  00072	6a 00		 push	 0
  00074	6a 05		 push	 5
  00076	57		 push	 edi
  00077	56		 push	 esi
  00078	89 75 e8	 mov	 DWORD PTR tv418[ebp], esi
  0007b	89 7d e4	 mov	 DWORD PTR tv417[ebp], edi
  0007e	e8 00 00 00 00	 call	 __allrem

; 494  : 	if( 1 < lClockAccelerator && 0 != nMod5)

  00083	8b 4d e0	 mov	 ecx, DWORD PTR _lClockAccelerator$1$[ebp]
  00086	89 45 dc	 mov	 DWORD PTR _nMod5$1$[ebp], eax
  00089	83 f9 01	 cmp	 ecx, 1
  0008c	7e 3d		 jle	 SHORT $LN4@UpdateCloc
  0008e	85 c0		 test	 eax, eax
  00090	74 39		 je	 SHORT $LN4@UpdateCloc

; 495  : 	{
; 496  : 		p_nRealClockSecs += lClockAccelerator - 1;

  00092	49		 dec	 ecx
  00093	8b c1		 mov	 eax, ecx
  00095	99		 cdq
  00096	8b f0		 mov	 esi, eax
  00098	8b fa		 mov	 edi, edx
  0009a	03 75 e8	 add	 esi, DWORD PTR tv418[ebp]
  0009d	8b 45 08	 mov	 eax, DWORD PTR _p_nRealClockSecs$[ebp]
  000a0	13 7d e4	 adc	 edi, DWORD PTR tv417[ebp]
  000a3	89 30		 mov	 DWORD PTR [eax], esi
  000a5	89 78 04	 mov	 DWORD PTR [eax+4], edi

; 497  : 		if( 5 - nMod5 < lClockAccelerator - 1)

  000a8	b8 05 00 00 00	 mov	 eax, 5
  000ad	2b 45 dc	 sub	 eax, DWORD PTR _nMod5$1$[ebp]
  000b0	3b c1		 cmp	 eax, ecx
  000b2	7d 17		 jge	 SHORT $LN4@UpdateCloc

; 498  : 			p_nRealClockSecs -= p_nRealClockSecs % 5;

  000b4	6a 00		 push	 0
  000b6	6a 05		 push	 5
  000b8	57		 push	 edi
  000b9	56		 push	 esi
  000ba	e8 00 00 00 00	 call	 __allrem
  000bf	2b f0		 sub	 esi, eax
  000c1	8b 45 08	 mov	 eax, DWORD PTR _p_nRealClockSecs$[ebp]
  000c4	1b fa		 sbb	 edi, edx
  000c6	89 30		 mov	 DWORD PTR [eax], esi
  000c8	89 78 04	 mov	 DWORD PTR [eax+4], edi
$LN4@UpdateCloc:

; 499  : 	}
; 500  : 
; 501  : 	if( p_nRealClockSecs % 5) return;

  000cb	6a 00		 push	 0
  000cd	6a 05		 push	 5
  000cf	57		 push	 edi
  000d0	56		 push	 esi
  000d1	e8 00 00 00 00	 call	 __allrem
  000d6	0b c2		 or	 eax, edx
  000d8	0f 85 a8 00 00
	00		 jne	 $LN10@UpdateCloc

; 502  : 
; 503  : 	CString strRealClockSecs;

  000de	8d 4d f0	 lea	 ecx, DWORD PTR _strRealClockSecs$[ebp]
  000e1	ff 15 00 00 00
	00		 call	 DWORD PTR __imp_??0?$CStringT@DV?$StrTraitMFC_DLL@DV?$ChTraitsCRT@D@ATL@@@@@ATL@@QAE@XZ

; 504  : 	strRealClockSecs.Format( "%I64d", p_nRealClockSecs);

  000e7	8b 75 08	 mov	 esi, DWORD PTR _p_nRealClockSecs$[ebp]
  000ea	8d 45 f0	 lea	 eax, DWORD PTR _strRealClockSecs$[ebp]
  000ed	c6 45 fc 01	 mov	 BYTE PTR __$EHRec$[ebp+8], 1
  000f1	ff 76 04	 push	 DWORD PTR [esi+4]
  000f4	ff 36		 push	 DWORD PTR [esi]
  000f6	68 00 00 00 00	 push	 OFFSET ??_C@_05LLAMLEHD@?$CFI64d@
  000fb	50		 push	 eax
  000fc	ff 15 00 00 00
	00		 call	 DWORD PTR __imp_?Format@?$CStringT@DV?$StrTraitMFC_DLL@DV?$ChTraitsCRT@D@ATL@@@@@ATL@@QAAXPBDZZ
  00102	83 c4 10	 add	 esp, 16			; 00000010H

; 505  : 	m_stcNMTRClock.SetWindowText( strRealClockSecs);

  00105	8d 8b 28 02 00
	00		 lea	 ecx, DWORD PTR [ebx+552]
  0010b	ff 75 f0	 push	 DWORD PTR _strRealClockSecs$[ebp]
  0010e	e8 00 00 00 00	 call	 ?SetWindowTextA@CWnd@@QAEXPBD@Z ; CWnd::SetWindowTextA

; 506  : 
; 507  : 	__int64	nLastClockTime = 0, nLastRealTime = 0;
; 508  : 	m_pIPacketManager->GetLastClockAndRealTime( nLastClockTime, nLastRealTime);

  00113	8b 8b 4c 07 00
	00		 mov	 ecx, DWORD PTR [ebx+1868]
  00119	8d 55 d4	 lea	 edx, DWORD PTR _nLastRealTime$[ebp]
  0011c	0f 57 c0	 xorps	 xmm0, xmm0
  0011f	66 0f 13 45 cc	 movlpd	 QWORD PTR _nLastClockTime$[ebp], xmm0
  00124	66 0f 13 45 d4	 movlpd	 QWORD PTR _nLastRealTime$[ebp], xmm0
  00129	8b 01		 mov	 eax, DWORD PTR [ecx]
  0012b	52		 push	 edx
  0012c	8d 55 cc	 lea	 edx, DWORD PTR _nLastClockTime$[ebp]
  0012f	52		 push	 edx
  00130	ff 50 4c	 call	 DWORD PTR [eax+76]

; 509  : 	nLastRealTime = CDataConversion::CalcTimeSum( nLastRealTime, p_nRealClockSecs - nLastClockTime, TRUE);

  00133	8b 0e		 mov	 ecx, DWORD PTR [esi]
  00135	2b 4d cc	 sub	 ecx, DWORD PTR _nLastClockTime$[ebp]
  00138	8b 46 04	 mov	 eax, DWORD PTR [esi+4]
  0013b	1b 45 d0	 sbb	 eax, DWORD PTR _nLastClockTime$[ebp+4]
  0013e	6a 01		 push	 1
  00140	50		 push	 eax
  00141	51		 push	 ecx
  00142	ff 75 d8	 push	 DWORD PTR _nLastRealTime$[ebp+4]
  00145	ff 75 d4	 push	 DWORD PTR _nLastRealTime$[ebp]
  00148	e8 00 00 00 00	 call	 ?CalcTimeSum@CDataConversion@@SA_J_J0H@Z ; CDataConversion::CalcTimeSum
  0014d	83 c4 14	 add	 esp, 20			; 00000014H
  00150	89 45 d4	 mov	 DWORD PTR _nLastRealTime$[ebp], eax

; 510  : 	m_stcNMTRTime.SetWindowText( GetTimeString( nLastRealTime));

  00153	8b cb		 mov	 ecx, ebx
  00155	89 55 d8	 mov	 DWORD PTR _nLastRealTime$[ebp+4], edx
  00158	52		 push	 edx
  00159	50		 push	 eax
  0015a	8d 45 08	 lea	 eax, DWORD PTR $T2[ebp]
  0015d	50		 push	 eax
  0015e	e8 00 00 00 00	 call	 ?GetTimeString@CRealTimeTransducerDlg@@IAE?AV?$CStringT@DV?$StrTraitMFC_DLL@DV?$ChTraitsCRT@D@ATL@@@@@ATL@@_J@Z ; CRealTimeTransducerDlg::GetTimeString
  00163	ff 30		 push	 DWORD PTR [eax]
  00165	8d 8b 28 01 00
	00		 lea	 ecx, DWORD PTR [ebx+296]
  0016b	c6 45 fc 02	 mov	 BYTE PTR __$EHRec$[ebp+8], 2
  0016f	e8 00 00 00 00	 call	 ?SetWindowTextA@CWnd@@QAEXPBD@Z ; CWnd::SetWindowTextA
  00174	8d 4d 08	 lea	 ecx, DWORD PTR $T2[ebp]
  00177	ff 15 00 00 00
	00		 call	 DWORD PTR __imp_??1?$CStringT@DV?$StrTraitMFC_DLL@DV?$ChTraitsCRT@D@ATL@@@@@ATL@@QAE@XZ

; 511  : }

  0017d	8d 4d f0	 lea	 ecx, DWORD PTR _strRealClockSecs$[ebp]
  00180	ff 15 00 00 00
	00		 call	 DWORD PTR __imp_??1?$CStringT@DV?$StrTraitMFC_DLL@DV?$ChTraitsCRT@D@ATL@@@@@ATL@@QAE@XZ
$LN10@UpdateCloc:
  00186	8d 4d ec	 lea	 ecx, DWORD PTR _strClockAccelerator$[ebp]
  00189	ff 15 00 00 00
	00		 call	 DWORD PTR __imp_??1?$CStringT@DV?$StrTraitMFC_DLL@DV?$ChTraitsCRT@D@ATL@@@@@ATL@@QAE@XZ
$LN1@UpdateCloc:
  0018f	8b 4d f4	 mov	 ecx, DWORD PTR __$EHRec$[ebp]
  00192	64 89 0d 00 00
	00 00		 mov	 DWORD PTR fs:0, ecx
  00199	59		 pop	 ecx
  0019a	5f		 pop	 edi
  0019b	5e		 pop	 esi
  0019c	5b		 pop	 ebx
  0019d	8b e5		 mov	 esp, ebp
  0019f	5d		 pop	 ebp
  001a0	c2 04 00	 ret	 4
_TEXT	ENDS
;	COMDAT text$x
text$x	SEGMENT
__unwindfunclet$?UpdateClockTime@CRealTimeTransducerDlg@@QAEXAA_J@Z$0:
  00000	8d 4d ec	 lea	 ecx, DWORD PTR _strClockAccelerator$[ebp]
  00003	ff 25 00 00 00
	00		 jmp	 DWORD PTR __imp_??1?$CStringT@DV?$StrTraitMFC_DLL@DV?$ChTraitsCRT@D@ATL@@@@@ATL@@QAE@XZ
__unwindfunclet$?UpdateClockTime@CRealTimeTransducerDlg@@QAEXAA_J@Z$1:
  00009	8d 4d f0	 lea	 ecx, DWORD PTR _strRealClockSecs$[ebp]
  0000c	ff 25 00 00 00
	00		 jmp	 DWORD PTR __imp_??1?$CStringT@DV?$StrTraitMFC_DLL@DV?$ChTraitsCRT@D@ATL@@@@@ATL@@QAE@XZ
__unwindfunclet$?UpdateClockTime@CRealTimeTransducerDlg@@QAEXAA_J@Z$2:
  00012	8d 4d 08	 lea	 ecx, DWORD PTR $T2[ebp]
  00015	ff 25 00 00 00
	00		 jmp	 DWORD PTR __imp_??1?$CStringT@DV?$StrTraitMFC_DLL@DV?$ChTraitsCRT@D@ATL@@@@@ATL@@QAE@XZ
  0001b	cc		 int	 3
  0001c	cc		 int	 3
  0001d	cc		 int	 3
  0001e	cc		 int	 3
  0001f	cc		 int	 3
__ehhandler$?UpdateClockTime@CRealTimeTransducerDlg@@QAEXAA_J@Z:
  00020	90		 npad	 1
  00021	90		 npad	 1
  00022	8b 54 24 08	 mov	 edx, DWORD PTR [esp+8]
  00026	8d 42 0c	 lea	 eax, DWORD PTR [edx+12]
  00029	8b 4a c8	 mov	 ecx, DWORD PTR [edx-56]
  0002c	33 c8		 xor	 ecx, eax
  0002e	e8 00 00 00 00	 call	 @__security_check_cookie@4
  00033	b8 00 00 00 00	 mov	 eax, OFFSET __ehfuncinfo$?UpdateClockTime@CRealTimeTransducerDlg@@QAEXAA_J@Z
  00038	e9 00 00 00 00	 jmp	 ___CxxFrameHandler3
text$x	ENDS
?UpdateClockTime@CRealTimeTransducerDlg@@QAEXAA_J@Z ENDP ; CRealTimeTransducerDlg::UpdateClockTime
; Function compile flags: /Ogtp
; File D:\git\src\IBK\IBK_DRFN\ProjSrc\SrcChartEx\ChartOCX\AddInManager\ChartCommonAddIn\RealTimeTransducerDlg.cpp
; File C:\Program Files (x86)\Microsoft Visual Studio\2019\Community\VC\Tools\MSVC\14.29.30133\atlmfc\include\afxwin2.inl
; File D:\git\src\IBK\IBK_DRFN\ProjSrc\SrcChartEx\ChartOCX\AddInManager\ChartCommonAddIn\RealTimeTransducerDlg.cpp
; File C:\Program Files (x86)\Microsoft Visual Studio\2019\Community\VC\Tools\MSVC\14.29.30133\atlmfc\include\afxwin2.inl
; File D:\git\src\IBK\IBK_DRFN\ProjSrc\SrcChartEx\ChartOCX\AddInManager\ChartCommonAddIn\RealTimeTransducerDlg.cpp
;	COMDAT ?IsNoClockTime@CRealTimeTransducerDlg@@QAEHAA_J@Z
_TEXT	SEGMENT
__$EHRec$ = -12						; size = 12
_strRealClockSecs$2 = 8					; size = 4
_p_nRealClockSecs$ = 8					; size = 4
?IsNoClockTime@CRealTimeTransducerDlg@@QAEHAA_J@Z PROC	; CRealTimeTransducerDlg::IsNoClockTime, COMDAT
; _this$ = ecx

; 470  : {

  00000	55		 push	 ebp
  00001	8b ec		 mov	 ebp, esp
  00003	6a ff		 push	 -1
  00005	68 00 00 00 00	 push	 __ehhandler$?IsNoClockTime@CRealTimeTransducerDlg@@QAEHAA_J@Z
  0000a	64 a1 00 00 00
	00		 mov	 eax, DWORD PTR fs:0
  00010	50		 push	 eax
  00011	56		 push	 esi
  00012	57		 push	 edi
  00013	a1 00 00 00 00	 mov	 eax, DWORD PTR ___security_cookie
  00018	33 c5		 xor	 eax, ebp
  0001a	50		 push	 eax
  0001b	8d 45 f4	 lea	 eax, DWORD PTR __$EHRec$[ebp]
  0001e	64 a3 00 00 00
	00		 mov	 DWORD PTR fs:0, eax
  00024	8b f1		 mov	 esi, ecx
; File C:\Program Files (x86)\Microsoft Visual Studio\2019\Community\VC\Tools\MSVC\14.29.30133\atlmfc\include\afxwin2.inl

; 25   : 	{ return this == NULL ? NULL : m_hWnd; }

  00026	85 f6		 test	 esi, esi
  00028	0f 84 92 00 00
	00		 je	 $LN3@IsNoClockT
; File D:\git\src\IBK\IBK_DRFN\ProjSrc\SrcChartEx\ChartOCX\AddInManager\ChartCommonAddIn\RealTimeTransducerDlg.cpp

; 471  : 	if( !GetSafeHwnd()) return FALSE;

  0002e	83 7e 20 00	 cmp	 DWORD PTR [esi+32], 0
  00032	0f 84 88 00 00
	00		 je	 $LN3@IsNoClockT
; File C:\Program Files (x86)\Microsoft Visual Studio\2019\Community\VC\Tools\MSVC\14.29.30133\atlmfc\include\afxwin2.inl

; 628  : 	{ ASSERT(::IsWindow(m_hWnd)); return (int)::SendMessage(m_hWnd, BM_GETCHECK, 0, 0); }

  00038	6a 00		 push	 0
  0003a	6a 00		 push	 0
  0003c	68 f0 00 00 00	 push	 240			; 000000f0H
  00041	ff b6 c8 00 00
	00		 push	 DWORD PTR [esi+200]
  00047	ff 15 00 00 00
	00		 call	 DWORD PTR __imp__SendMessageA@16
; File D:\git\src\IBK\IBK_DRFN\ProjSrc\SrcChartEx\ChartOCX\AddInManager\ChartCommonAddIn\RealTimeTransducerDlg.cpp

; 473  : 	if( m_btnRealOnly.GetCheck())

  0004d	85 c0		 test	 eax, eax
  0004f	74 6f		 je	 SHORT $LN3@IsNoClockT

; 474  : 	{
; 475  : 		if( 0 == p_nRealClockSecs % 5)

  00051	8b 7d 08	 mov	 edi, DWORD PTR _p_nRealClockSecs$[ebp]
  00054	6a 00		 push	 0
  00056	6a 05		 push	 5
  00058	ff 77 04	 push	 DWORD PTR [edi+4]
  0005b	ff 37		 push	 DWORD PTR [edi]
  0005d	e8 00 00 00 00	 call	 __allrem
  00062	85 c0		 test	 eax, eax
  00064	75 42		 jne	 SHORT $LN4@IsNoClockT
  00066	85 d2		 test	 edx, edx
  00068	75 3e		 jne	 SHORT $LN4@IsNoClockT

; 476  : 		{
; 477  : 			CString strRealClockSecs;

  0006a	8d 4d 08	 lea	 ecx, DWORD PTR _strRealClockSecs$2[ebp]
  0006d	ff 15 00 00 00
	00		 call	 DWORD PTR __imp_??0?$CStringT@DV?$StrTraitMFC_DLL@DV?$ChTraitsCRT@D@ATL@@@@@ATL@@QAE@XZ

; 478  : 			strRealClockSecs.Format( "%I64d", p_nRealClockSecs);

  00073	ff 77 04	 push	 DWORD PTR [edi+4]
  00076	8d 45 08	 lea	 eax, DWORD PTR _strRealClockSecs$2[ebp]
  00079	c7 45 fc 00 00
	00 00		 mov	 DWORD PTR __$EHRec$[ebp+8], 0
  00080	ff 37		 push	 DWORD PTR [edi]
  00082	68 00 00 00 00	 push	 OFFSET ??_C@_05LLAMLEHD@?$CFI64d@
  00087	50		 push	 eax
  00088	ff 15 00 00 00
	00		 call	 DWORD PTR __imp_?Format@?$CStringT@DV?$StrTraitMFC_DLL@DV?$ChTraitsCRT@D@ATL@@@@@ATL@@QAAXPBDZZ
  0008e	83 c4 10	 add	 esp, 16			; 00000010H

; 479  : 			m_stcNMTRClock.SetWindowText( strRealClockSecs);

  00091	8d 8e 28 02 00
	00		 lea	 ecx, DWORD PTR [esi+552]
  00097	ff 75 08	 push	 DWORD PTR _strRealClockSecs$2[ebp]
  0009a	e8 00 00 00 00	 call	 ?SetWindowTextA@CWnd@@QAEXPBD@Z ; CWnd::SetWindowTextA

; 480  : 		}

  0009f	8d 4d 08	 lea	 ecx, DWORD PTR _strRealClockSecs$2[ebp]
  000a2	ff 15 00 00 00
	00		 call	 DWORD PTR __imp_??1?$CStringT@DV?$StrTraitMFC_DLL@DV?$ChTraitsCRT@D@ATL@@@@@ATL@@QAE@XZ
$LN4@IsNoClockT:

; 481  : 		return TRUE;

  000a8	b8 01 00 00 00	 mov	 eax, 1

; 485  : }

  000ad	8b 4d f4	 mov	 ecx, DWORD PTR __$EHRec$[ebp]
  000b0	64 89 0d 00 00
	00 00		 mov	 DWORD PTR fs:0, ecx
  000b7	59		 pop	 ecx
  000b8	5f		 pop	 edi
  000b9	5e		 pop	 esi
  000ba	8b e5		 mov	 esp, ebp
  000bc	5d		 pop	 ebp
  000bd	c2 04 00	 ret	 4
$LN3@IsNoClockT:

; 482  : 	}
; 483  : 
; 484  : 	return FALSE;

  000c0	33 c0		 xor	 eax, eax

; 485  : }

  000c2	8b 4d f4	 mov	 ecx, DWORD PTR __$EHRec$[ebp]
  000c5	64 89 0d 00 00
	00 00		 mov	 DWORD PTR fs:0, ecx
  000cc	59		 pop	 ecx
  000cd	5f		 pop	 edi
  000ce	5e		 pop	 esi
  000cf	8b e5		 mov	 esp, ebp
  000d1	5d		 pop	 ebp
  000d2	c2 04 00	 ret	 4
_TEXT	ENDS
;	COMDAT text$x
text$x	SEGMENT
__unwindfunclet$?IsNoClockTime@CRealTimeTransducerDlg@@QAEHAA_J@Z$0:
  00000	8d 4d 08	 lea	 ecx, DWORD PTR _strRealClockSecs$2[ebp]
  00003	ff 25 00 00 00
	00		 jmp	 DWORD PTR __imp_??1?$CStringT@DV?$StrTraitMFC_DLL@DV?$ChTraitsCRT@D@ATL@@@@@ATL@@QAE@XZ
  00009	cc		 int	 3
  0000a	cc		 int	 3
  0000b	cc		 int	 3
  0000c	cc		 int	 3
  0000d	cc		 int	 3
__ehhandler$?IsNoClockTime@CRealTimeTransducerDlg@@QAEHAA_J@Z:
  0000e	90		 npad	 1
  0000f	90		 npad	 1
  00010	8b 54 24 08	 mov	 edx, DWORD PTR [esp+8]
  00014	8d 42 0c	 lea	 eax, DWORD PTR [edx+12]
  00017	8b 4a f4	 mov	 ecx, DWORD PTR [edx-12]
  0001a	33 c8		 xor	 ecx, eax
  0001c	e8 00 00 00 00	 call	 @__security_check_cookie@4
  00021	b8 00 00 00 00	 mov	 eax, OFFSET __ehfuncinfo$?IsNoClockTime@CRealTimeTransducerDlg@@QAEHAA_J@Z
  00026	e9 00 00 00 00	 jmp	 ___CxxFrameHandler3
text$x	ENDS
?IsNoClockTime@CRealTimeTransducerDlg@@QAEHAA_J@Z ENDP	; CRealTimeTransducerDlg::IsNoClockTime
; Function compile flags: /Ogtp
; File D:\git\src\IBK\IBK_DRFN\ProjSrc\SrcChartEx\ChartOCX\AddInManager\ChartCommonAddIn\RealTimeTransducerDlg.cpp
; File C:\Program Files (x86)\Microsoft Visual Studio\2019\Community\VC\Tools\MSVC\14.29.30133\atlmfc\include\afxwin2.inl
; File D:\git\src\IBK\IBK_DRFN\ProjSrc\SrcChartEx\ChartOCX\AddInManager\ChartCommonAddIn\RealTimeTransducerDlg.cpp
; File C:\Program Files (x86)\Microsoft Visual Studio\2019\Community\VC\Tools\MSVC\14.29.30133\atlmfc\include\afxwin2.inl
; File D:\git\src\IBK\IBK_DRFN\ProjSrc\SrcChartEx\ChartOCX\AddInManager\ChartCommonAddIn\RealTimeTransducerDlg.cpp
;	COMDAT ?IsClockTimeOnly@CRealTimeTransducerDlg@@QAEHXZ
_TEXT	SEGMENT
?IsClockTimeOnly@CRealTimeTransducerDlg@@QAEHXZ PROC	; CRealTimeTransducerDlg::IsClockTimeOnly, COMDAT
; _this$ = ecx
; File C:\Program Files (x86)\Microsoft Visual Studio\2019\Community\VC\Tools\MSVC\14.29.30133\atlmfc\include\afxwin2.inl

; 25   : 	{ return this == NULL ? NULL : m_hWnd; }

  00000	85 c9		 test	 ecx, ecx
  00002	74 1c		 je	 SHORT $LN10@IsClockTim
; File D:\git\src\IBK\IBK_DRFN\ProjSrc\SrcChartEx\ChartOCX\AddInManager\ChartCommonAddIn\RealTimeTransducerDlg.cpp

; 463  : 	if( !GetSafeHwnd()) return FALSE;

  00004	83 79 20 00	 cmp	 DWORD PTR [ecx+32], 0
  00008	74 16		 je	 SHORT $LN10@IsClockTim
; File C:\Program Files (x86)\Microsoft Visual Studio\2019\Community\VC\Tools\MSVC\14.29.30133\atlmfc\include\afxwin2.inl

; 628  : 	{ ASSERT(::IsWindow(m_hWnd)); return (int)::SendMessage(m_hWnd, BM_GETCHECK, 0, 0); }

  0000a	6a 00		 push	 0
  0000c	6a 00		 push	 0
  0000e	68 f0 00 00 00	 push	 240			; 000000f0H
  00013	ff b1 c8 02 00
	00		 push	 DWORD PTR [ecx+712]
  00019	ff 15 00 00 00
	00		 call	 DWORD PTR __imp__SendMessageA@16
; File D:\git\src\IBK\IBK_DRFN\ProjSrc\SrcChartEx\ChartOCX\AddInManager\ChartCommonAddIn\RealTimeTransducerDlg.cpp

; 465  : }

  0001f	c3		 ret	 0
$LN10@IsClockTim:

; 463  : 	if( !GetSafeHwnd()) return FALSE;

  00020	33 c0		 xor	 eax, eax

; 465  : }

  00022	c3		 ret	 0
?IsClockTimeOnly@CRealTimeTransducerDlg@@QAEHXZ ENDP	; CRealTimeTransducerDlg::IsClockTimeOnly
_TEXT	ENDS
; Function compile flags: /Ogtp
; File D:\git\src\IBK\IBK_DRFN\ProjSrc\SrcChartEx\ChartOCX\AddInManager\ChartCommonAddIn\RealTimeTransducerDlg.cpp
; File C:\Program Files (x86)\Microsoft Visual Studio\2019\Community\VC\Tools\MSVC\14.29.30133\atlmfc\include\afxwin2.inl
; File D:\git\src\IBK\IBK_DRFN\ProjSrc\SrcChartEx\ChartOCX\AddInManager\ChartCommonAddIn\RealTimeTransducerDlg.cpp
; File C:\Program Files (x86)\Microsoft Visual Studio\2019\Community\VC\Tools\MSVC\14.29.30133\atlmfc\include\afxcmn.inl
; File D:\git\src\IBK\IBK_DRFN\ProjSrc\SrcChartEx\ChartOCX\AddInManager\ChartCommonAddIn\RealTimeTransducerDlg.cpp
; File C:\Program Files (x86)\Microsoft Visual Studio\2019\Community\VC\Tools\MSVC\14.29.30133\atlmfc\include\afxcmn.inl
; File D:\git\src\IBK\IBK_DRFN\ProjSrc\SrcChartEx\ChartOCX\AddInManager\ChartCommonAddIn\RealTimeTransducerDlg.cpp
; File C:\Program Files (x86)\Microsoft Visual Studio\2019\Community\VC\Tools\MSVC\14.29.30133\atlmfc\include\afxcmn.inl
; File D:\git\src\IBK\IBK_DRFN\ProjSrc\SrcChartEx\ChartOCX\AddInManager\ChartCommonAddIn\RealTimeTransducerDlg.cpp
;	COMDAT ?UpdateReal@CRealTimeTransducerDlg@@QAEXXZ
_TEXT	SEGMENT
_dValue$2 = -36						; size = 8
$T3 = -28						; size = 4
_strPacketName$ = -24					; size = 4
_strValue$ = -20					; size = 4
_m_hOcxWnd$1$ = -16					; size = 4
__$EHRec$ = -12						; size = 12
?UpdateReal@CRealTimeTransducerDlg@@QAEXXZ PROC		; CRealTimeTransducerDlg::UpdateReal, COMDAT
; _this$ = ecx

; 366  : {

  00000	55		 push	 ebp
  00001	8b ec		 mov	 ebp, esp
  00003	6a ff		 push	 -1
  00005	68 00 00 00 00	 push	 __ehhandler$?UpdateReal@CRealTimeTransducerDlg@@QAEXXZ
  0000a	64 a1 00 00 00
	00		 mov	 eax, DWORD PTR fs:0
  00010	50		 push	 eax
  00011	83 ec 18	 sub	 esp, 24			; 00000018H
  00014	53		 push	 ebx
  00015	56		 push	 esi
  00016	57		 push	 edi
  00017	a1 00 00 00 00	 mov	 eax, DWORD PTR ___security_cookie
  0001c	33 c5		 xor	 eax, ebp
  0001e	50		 push	 eax
  0001f	8d 45 f4	 lea	 eax, DWORD PTR __$EHRec$[ebp]
  00022	64 a3 00 00 00
	00		 mov	 DWORD PTR fs:0, eax
  00028	8b d9		 mov	 ebx, ecx
; File C:\Program Files (x86)\Microsoft Visual Studio\2019\Community\VC\Tools\MSVC\14.29.30133\atlmfc\include\afxwin2.inl

; 213  : 	{ ASSERT(::IsWindow(m_hWnd)); return CWnd::FromHandle(::GetParent(m_hWnd)); }

  0002a	ff 73 20	 push	 DWORD PTR [ebx+32]
  0002d	ff 15 00 00 00
	00		 call	 DWORD PTR __imp__GetParent@4
  00033	50		 push	 eax
  00034	e8 00 00 00 00	 call	 ?FromHandle@CWnd@@SGPAV1@PAUHWND__@@@Z ; CWnd::FromHandle

; 25   : 	{ return this == NULL ? NULL : m_hWnd; }

  00039	85 c0		 test	 eax, eax
  0003b	75 04		 jne	 SHORT $LN13@UpdateReal
  0003d	33 f6		 xor	 esi, esi
  0003f	eb 03		 jmp	 SHORT $LN34@UpdateReal
$LN13@UpdateReal:
  00041	8b 70 20	 mov	 esi, DWORD PTR [eax+32]
$LN34@UpdateReal:
; File D:\git\src\IBK\IBK_DRFN\ProjSrc\SrcChartEx\ChartOCX\AddInManager\ChartCommonAddIn\RealTimeTransducerDlg.cpp

; 368  : 	CString strPacketName, strValue;

  00044	8d 4d e8	 lea	 ecx, DWORD PTR _strPacketName$[ebp]
  00047	89 75 f0	 mov	 DWORD PTR _m_hOcxWnd$1$[ebp], esi
  0004a	ff 15 00 00 00
	00		 call	 DWORD PTR __imp_??0?$CStringT@DV?$StrTraitMFC_DLL@DV?$ChTraitsCRT@D@ATL@@@@@ATL@@QAE@XZ
  00050	8d 4d ec	 lea	 ecx, DWORD PTR _strValue$[ebp]
  00053	c7 45 fc 00 00
	00 00		 mov	 DWORD PTR __$EHRec$[ebp+8], 0
  0005a	ff 15 00 00 00
	00		 call	 DWORD PTR __imp_??0?$CStringT@DV?$StrTraitMFC_DLL@DV?$ChTraitsCRT@D@ATL@@@@@ATL@@QAE@XZ

; 370  : 	for( int i = 0; i < m_lcRealState.GetItemCount(); i++)

  00060	33 ff		 xor	 edi, edi
  00062	c6 45 fc 01	 mov	 BYTE PTR __$EHRec$[ebp+8], 1
; File C:\Program Files (x86)\Microsoft Visual Studio\2019\Community\VC\Tools\MSVC\14.29.30133\atlmfc\include\afxcmn.inl

; 155  : 	{ ASSERT(::IsWindow(m_hWnd)); return (int) ::SendMessage(m_hWnd, LVM_GETITEMCOUNT, 0, 0L); }

  00066	57		 push	 edi
  00067	57		 push	 edi
  00068	68 04 10 00 00	 push	 4100			; 00001004H
  0006d	ff b3 48 05 00
	00		 push	 DWORD PTR [ebx+1352]
  00073	ff 15 00 00 00
	00		 call	 DWORD PTR __imp__SendMessageA@16
; File D:\git\src\IBK\IBK_DRFN\ProjSrc\SrcChartEx\ChartOCX\AddInManager\ChartCommonAddIn\RealTimeTransducerDlg.cpp

; 370  : 	for( int i = 0; i < m_lcRealState.GetItemCount(); i++)

  00079	85 c0		 test	 eax, eax
  0007b	0f 8e df 00 00
	00		 jle	 $LN3@UpdateReal
  00081	8d 83 28 05 00
	00		 lea	 eax, DWORD PTR [ebx+1320]
$LL4@UpdateReal:

; 371  : 	{
; 372  : 		strPacketName = _LTOM0( m_lcRealState.GetItemText( i, 0));

  00087	6a 00		 push	 0
  00089	57		 push	 edi
  0008a	8d 4d e4	 lea	 ecx, DWORD PTR $T3[ebp]
  0008d	51		 push	 ecx
  0008e	8b c8		 mov	 ecx, eax
  00090	e8 00 00 00 00	 call	 ?GetItemText@CListCtrl@@QBE?AV?$CStringT@DV?$StrTraitMFC_DLL@DV?$ChTraitsCRT@D@ATL@@@@@ATL@@HH@Z ; CListCtrl::GetItemText
  00095	6a 00		 push	 0
  00097	ff 30		 push	 DWORD PTR [eax]
  00099	b9 00 00 00 00	 mov	 ecx, OFFSET ?g_iMetaTable@@3VIMetaTable@@A ; g_iMetaTable
  0009e	c6 45 fc 02	 mov	 BYTE PTR __$EHRec$[ebp+8], 2
  000a2	6a 00		 push	 0
  000a4	56		 push	 esi
  000a5	e8 00 00 00 00	 call	 ?GetMetaText@IMetaTable@@QAEPBDPAUHWND__@@W4E_CODEPAGE@1@PBDH@Z ; IMetaTable::GetMetaText
  000aa	50		 push	 eax
  000ab	8d 4d e8	 lea	 ecx, DWORD PTR _strPacketName$[ebp]
  000ae	ff 15 00 00 00
	00		 call	 DWORD PTR __imp_??4?$CStringT@DV?$StrTraitMFC_DLL@DV?$ChTraitsCRT@D@ATL@@@@@ATL@@QAEAAV01@PBD@Z
  000b4	8d 4d e4	 lea	 ecx, DWORD PTR $T3[ebp]
  000b7	c6 45 fc 01	 mov	 BYTE PTR __$EHRec$[ebp+8], 1
  000bb	ff 15 00 00 00
	00		 call	 DWORD PTR __imp_??1?$CStringT@DV?$StrTraitMFC_DLL@DV?$ChTraitsCRT@D@ATL@@@@@ATL@@QAE@XZ

; 351  : 	if( !m_pIPacketManager) return 0.0;

  000c1	8b 8b 4c 07 00
	00		 mov	 ecx, DWORD PTR [ebx+1868]
  000c7	85 c9		 test	 ecx, ecx
  000c9	75 05		 jne	 SHORT $LN22@UpdateReal
  000cb	0f 57 c0	 xorps	 xmm0, xmm0
  000ce	eb 41		 jmp	 SHORT $LN21@UpdateReal
$LN22@UpdateReal:

; 352  : 
; 353  : 	IPacket *pIPacket = m_pIPacketManager->GetPacket( p_szPacketName);

  000d0	8b 01		 mov	 eax, DWORD PTR [ecx]
  000d2	ff 75 e8	 push	 DWORD PTR _strPacketName$[ebp]
  000d5	ff 50 10	 call	 DWORD PTR [eax+16]
  000d8	8b f0		 mov	 esi, eax

; 354  : 	if( !pIPacket) return 0.0;

  000da	85 f6		 test	 esi, esi
  000dc	75 05		 jne	 SHORT $LN23@UpdateReal
  000de	0f 57 c0	 xorps	 xmm0, xmm0
  000e1	eb 2b		 jmp	 SHORT $LN35@UpdateReal
$LN23@UpdateReal:

; 355  : 
; 356  : 	int nDataCount = pIPacket->GetDataCount();

  000e3	8b 06		 mov	 eax, DWORD PTR [esi]
  000e5	8b ce		 mov	 ecx, esi
  000e7	ff 50 2c	 call	 DWORD PTR [eax+44]
  000ea	0f 57 c0	 xorps	 xmm0, xmm0

; 357  : 	if( p_bPrev) nDataCount--;
; 358  : 	double dValue = 0;

  000ed	f2 0f 11 45 dc	 movsd	 QWORD PTR _dValue$2[ebp], xmm0

; 359  : 	if( 0 < nDataCount) pIPacket->GetData( nDataCount - 1, dValue);

  000f2	85 c0		 test	 eax, eax
  000f4	7e 0d		 jle	 SHORT $LN25@UpdateReal
  000f6	8b 16		 mov	 edx, DWORD PTR [esi]
  000f8	8d 4d dc	 lea	 ecx, DWORD PTR _dValue$2[ebp]
  000fb	51		 push	 ecx
  000fc	48		 dec	 eax
  000fd	8b ce		 mov	 ecx, esi
  000ff	50		 push	 eax
  00100	ff 52 40	 call	 DWORD PTR [edx+64]
$LN25@UpdateReal:

; 360  : 	pIPacket->Release();

  00103	8b 06		 mov	 eax, DWORD PTR [esi]
  00105	56		 push	 esi
  00106	ff 50 08	 call	 DWORD PTR [eax+8]

; 361  : 	return dValue;

  00109	f2 0f 10 45 dc	 movsd	 xmm0, QWORD PTR _dValue$2[ebp]
$LN35@UpdateReal:

; 373  : 		dValue = GetLastPacketValue( strPacketName);
; 374  : 		strValue.Format( "%0.5f", dValue);

  0010e	8b 75 f0	 mov	 esi, DWORD PTR _m_hOcxWnd$1$[ebp]
$LN21@UpdateReal:
  00111	83 ec 08	 sub	 esp, 8
  00114	8d 45 ec	 lea	 eax, DWORD PTR _strValue$[ebp]
  00117	f2 0f 11 04 24	 movsd	 QWORD PTR [esp], xmm0
  0011c	68 00 00 00 00	 push	 OFFSET ??_C@_05OJJHEBAI@?$CF0?45f@
  00121	50		 push	 eax
  00122	ff 15 00 00 00
	00		 call	 DWORD PTR __imp_?Format@?$CStringT@DV?$StrTraitMFC_DLL@DV?$ChTraitsCRT@D@ATL@@@@@ATL@@QAAXPBDZZ
  00128	83 c4 10	 add	 esp, 16			; 00000010H

; 375  : 		m_lcRealState.SetItemText( i, 1, strValue);

  0012b	8d 8b 28 05 00
	00		 lea	 ecx, DWORD PTR [ebx+1320]
  00131	ff 75 ec	 push	 DWORD PTR _strValue$[ebp]
  00134	6a 01		 push	 1
  00136	57		 push	 edi
  00137	e8 00 00 00 00	 call	 ?SetItemText@CListCtrl@@QAEHHHPBD@Z ; CListCtrl::SetItemText
; File C:\Program Files (x86)\Microsoft Visual Studio\2019\Community\VC\Tools\MSVC\14.29.30133\atlmfc\include\afxcmn.inl

; 155  : 	{ ASSERT(::IsWindow(m_hWnd)); return (int) ::SendMessage(m_hWnd, LVM_GETITEMCOUNT, 0, 0L); }

  0013c	6a 00		 push	 0
  0013e	6a 00		 push	 0
  00140	68 04 10 00 00	 push	 4100			; 00001004H
  00145	ff b3 48 05 00
	00		 push	 DWORD PTR [ebx+1352]
; File D:\git\src\IBK\IBK_DRFN\ProjSrc\SrcChartEx\ChartOCX\AddInManager\ChartCommonAddIn\RealTimeTransducerDlg.cpp

; 370  : 	for( int i = 0; i < m_lcRealState.GetItemCount(); i++)

  0014b	47		 inc	 edi
; File C:\Program Files (x86)\Microsoft Visual Studio\2019\Community\VC\Tools\MSVC\14.29.30133\atlmfc\include\afxcmn.inl

; 155  : 	{ ASSERT(::IsWindow(m_hWnd)); return (int) ::SendMessage(m_hWnd, LVM_GETITEMCOUNT, 0, 0L); }

  0014c	ff 15 00 00 00
	00		 call	 DWORD PTR __imp__SendMessageA@16
; File D:\git\src\IBK\IBK_DRFN\ProjSrc\SrcChartEx\ChartOCX\AddInManager\ChartCommonAddIn\RealTimeTransducerDlg.cpp

; 370  : 	for( int i = 0; i < m_lcRealState.GetItemCount(); i++)

  00152	3b f8		 cmp	 edi, eax
  00154	8d 83 28 05 00
	00		 lea	 eax, DWORD PTR [ebx+1320]
  0015a	0f 8c 27 ff ff
	ff		 jl	 $LL4@UpdateReal
$LN3@UpdateReal:

; 376  : 	}
; 377  : }

  00160	8d 4d ec	 lea	 ecx, DWORD PTR _strValue$[ebp]
  00163	ff 15 00 00 00
	00		 call	 DWORD PTR __imp_??1?$CStringT@DV?$StrTraitMFC_DLL@DV?$ChTraitsCRT@D@ATL@@@@@ATL@@QAE@XZ
  00169	8d 4d e8	 lea	 ecx, DWORD PTR _strPacketName$[ebp]
  0016c	ff 15 00 00 00
	00		 call	 DWORD PTR __imp_??1?$CStringT@DV?$StrTraitMFC_DLL@DV?$ChTraitsCRT@D@ATL@@@@@ATL@@QAE@XZ
  00172	8b 4d f4	 mov	 ecx, DWORD PTR __$EHRec$[ebp]
  00175	64 89 0d 00 00
	00 00		 mov	 DWORD PTR fs:0, ecx
  0017c	59		 pop	 ecx
  0017d	5f		 pop	 edi
  0017e	5e		 pop	 esi
  0017f	5b		 pop	 ebx
  00180	8b e5		 mov	 esp, ebp
  00182	5d		 pop	 ebp
  00183	c3		 ret	 0
_TEXT	ENDS
;	COMDAT text$x
text$x	SEGMENT
__unwindfunclet$?UpdateReal@CRealTimeTransducerDlg@@QAEXXZ$0:
  00000	8d 4d e8	 lea	 ecx, DWORD PTR _strPacketName$[ebp]
  00003	ff 25 00 00 00
	00		 jmp	 DWORD PTR __imp_??1?$CStringT@DV?$StrTraitMFC_DLL@DV?$ChTraitsCRT@D@ATL@@@@@ATL@@QAE@XZ
__unwindfunclet$?UpdateReal@CRealTimeTransducerDlg@@QAEXXZ$1:
  00009	8d 4d ec	 lea	 ecx, DWORD PTR _strValue$[ebp]
  0000c	ff 25 00 00 00
	00		 jmp	 DWORD PTR __imp_??1?$CStringT@DV?$StrTraitMFC_DLL@DV?$ChTraitsCRT@D@ATL@@@@@ATL@@QAE@XZ
__unwindfunclet$?UpdateReal@CRealTimeTransducerDlg@@QAEXXZ$2:
  00012	8d 4d e4	 lea	 ecx, DWORD PTR $T3[ebp]
  00015	ff 25 00 00 00
	00		 jmp	 DWORD PTR __imp_??1?$CStringT@DV?$StrTraitMFC_DLL@DV?$ChTraitsCRT@D@ATL@@@@@ATL@@QAE@XZ
  0001b	cc		 int	 3
  0001c	cc		 int	 3
  0001d	cc		 int	 3
  0001e	cc		 int	 3
  0001f	cc		 int	 3
__ehhandler$?UpdateReal@CRealTimeTransducerDlg@@QAEXXZ:
  00020	90		 npad	 1
  00021	90		 npad	 1
  00022	8b 54 24 08	 mov	 edx, DWORD PTR [esp+8]
  00026	8d 42 0c	 lea	 eax, DWORD PTR [edx+12]
  00029	8b 4a d8	 mov	 ecx, DWORD PTR [edx-40]
  0002c	33 c8		 xor	 ecx, eax
  0002e	e8 00 00 00 00	 call	 @__security_check_cookie@4
  00033	b8 00 00 00 00	 mov	 eax, OFFSET __ehfuncinfo$?UpdateReal@CRealTimeTransducerDlg@@QAEXXZ
  00038	e9 00 00 00 00	 jmp	 ___CxxFrameHandler3
text$x	ENDS
?UpdateReal@CRealTimeTransducerDlg@@QAEXXZ ENDP		; CRealTimeTransducerDlg::UpdateReal
; Function compile flags: /Ogtp
; File D:\git\src\IBK\IBK_DRFN\ProjSrc\SrcChartEx\ChartOCX\AddInManager\ChartCommonAddIn\RealTimeTransducerDlg.cpp
; File C:\Program Files (x86)\Microsoft Visual Studio\2019\Community\VC\Tools\MSVC\14.29.30133\atlmfc\include\afxwin2.inl
; File D:\git\src\IBK\IBK_DRFN\ProjSrc\SrcChartEx\ChartOCX\AddInManager\ChartCommonAddIn\RealTimeTransducerDlg.cpp
; File C:\Program Files (x86)\Microsoft Visual Studio\2019\Community\VC\Tools\MSVC\14.29.30133\atlmfc\include\afxwin2.inl
; File D:\git\src\IBK\IBK_DRFN\ProjSrc\SrcChartEx\ChartOCX\AddInManager\ChartCommonAddIn\RealTimeTransducerDlg.cpp
; File C:\Program Files (x86)\Microsoft Visual Studio\2019\Community\VC\Tools\MSVC\14.29.30133\atlmfc\include\afxwin2.inl
; File C:\Program Files (x86)\Microsoft Visual Studio\2019\Community\VC\Tools\MSVC\14.29.30133\atlmfc\include\afxcmn.inl
; File D:\git\src\IBK\IBK_DRFN\ProjSrc\SrcChartEx\ChartOCX\AddInManager\ChartCommonAddIn\RealTimeTransducerDlg.cpp
; File C:\Program Files (x86)\Microsoft Visual Studio\2019\Community\VC\Tools\MSVC\14.29.30133\atlmfc\include\afxwin2.inl
; File D:\git\src\IBK\IBK_DRFN\ProjSrc\SrcChartEx\ChartOCX\AddInManager\ChartCommonAddIn\RealTimeTransducerDlg.cpp
; File C:\Program Files (x86)\Microsoft Visual Studio\2019\Community\VC\Tools\MSVC\14.29.30133\atlmfc\include\afxwin2.inl
; File D:\git\src\IBK\IBK_DRFN\ProjSrc\SrcChartEx\ChartOCX\AddInManager\ChartCommonAddIn\RealTimeTransducerDlg.cpp
; File C:\Program Files (x86)\Microsoft Visual Studio\2019\Community\VC\Tools\MSVC\14.29.30133\atlmfc\include\atlsimpstr.h
; File D:\git\src\IBK\IBK_DRFN\ProjSrc\SrcChartEx\ChartOCX\AddInManager\ChartCommonAddIn\RealTimeTransducerDlg.cpp
; File C:\Program Files (x86)\Microsoft Visual Studio\2019\Community\VC\Tools\MSVC\14.29.30133\atlmfc\include\atlsimpstr.h
; File D:\git\src\IBK\IBK_DRFN\ProjSrc\SrcChartEx\ChartOCX\AddInManager\ChartCommonAddIn\RealTimeTransducerDlg.cpp
; File C:\Program Files (x86)\Microsoft Visual Studio\2019\Community\VC\Tools\MSVC\14.29.30133\atlmfc\include\atlsimpstr.h
; File D:\git\src\IBK\IBK_DRFN\ProjSrc\SrcChartEx\ChartOCX\AddInManager\ChartCommonAddIn\RealTimeTransducerDlg.cpp
; File C:\Program Files (x86)\Microsoft Visual Studio\2019\Community\VC\Tools\MSVC\14.29.30133\atlmfc\include\afxcmn.inl
; File D:\git\src\IBK\IBK_DRFN\ProjSrc\SrcChartEx\ChartOCX\AddInManager\ChartCommonAddIn\RealTimeTransducerDlg.cpp
; File C:\Program Files (x86)\Microsoft Visual Studio\2019\Community\VC\Tools\MSVC\14.29.30133\atlmfc\include\afxcmn.inl
; File C:\Program Files (x86)\Microsoft Visual Studio\2019\Community\VC\Tools\MSVC\14.29.30133\atlmfc\include\atlsimpstr.h
; File D:\git\src\IBK\IBK_DRFN\ProjSrc\SrcChartEx\ChartOCX\AddInManager\ChartCommonAddIn\RealTimeTransducerDlg.cpp
; File C:\Program Files (x86)\Microsoft Visual Studio\2019\Community\VC\Tools\MSVC\14.29.30133\atlmfc\include\cstringt.h
; File D:\git\src\IBK\IBK_DRFN\ProjSrc\SrcChartEx\ChartOCX\AddInManager\ChartCommonAddIn\RealTimeTransducerDlg.cpp
; File C:\Program Files (x86)\Microsoft Visual Studio\2019\Community\VC\Tools\MSVC\14.29.30133\atlmfc\include\cstringt.h
; File D:\git\src\IBK\IBK_DRFN\ProjSrc\SrcChartEx\ChartOCX\AddInManager\ChartCommonAddIn\RealTimeTransducerDlg.cpp
; File C:\Program Files (x86)\Microsoft Visual Studio\2019\Community\VC\Tools\MSVC\14.29.30133\atlmfc\include\afxwin2.inl
; File D:\git\src\IBK\IBK_DRFN\ProjSrc\SrcChartEx\ChartOCX\AddInManager\ChartCommonAddIn\RealTimeTransducerDlg.cpp
; File C:\Program Files (x86)\Microsoft Visual Studio\2019\Community\VC\Tools\MSVC\14.29.30133\atlmfc\include\cstringt.h
; File D:\git\src\IBK\IBK_DRFN\ProjSrc\SrcChartEx\ChartOCX\AddInManager\ChartCommonAddIn\RealTimeTransducerDlg.cpp
; File C:\Program Files (x86)\Microsoft Visual Studio\2019\Community\VC\Tools\MSVC\14.29.30133\atlmfc\include\atlsimpstr.h
; File D:\git\src\IBK\IBK_DRFN\ProjSrc\SrcChartEx\ChartOCX\AddInManager\ChartCommonAddIn\RealTimeTransducerDlg.cpp
; File D:\git\src\IBK\IBK_DRFN\ProjSrc\SrcChartEx\ChartOCX\AddInManager\Include_AddIn\I000000\_IString.h
; File D:\git\src\IBK\IBK_DRFN\ProjSrc\SrcChartEx\ChartOCX\AddInManager\ChartCommonAddIn\RealTimeTransducerDlg.cpp
;	COMDAT ?UpdateTime@CRealTimeTransducerDlg@@QAEXPAUIPacketManager000000@@PAUIRealReceiver@@@Z
_TEXT	SEGMENT
_dValue$2 = -180					; size = 8
$T3 = -172						; size = 4
$T4 = -168						; size = 4
_szPacketNames$5 = -164					; size = 8
_strAccelerator$6 = -156				; size = 4
_strCheck$7 = -152					; size = 4
_strRDC$8 = -148					; size = 4
_strPacketName$9 = -144					; size = 4
_m_hOcxWnd$1$ = -140					; size = 4
$T10 = -140						; size = 4
$T11 = -140						; size = 4
$T12 = -140						; size = 4
_strValue$13 = -136					; size = 4
_strPacketNames$14 = -132				; size = 4
_nAccelerators$15 = -128				; size = 112
__$ArrayPad$ = -16					; size = 4
__$EHRec$ = -12						; size = 12
_p_pIPacketManager$ = 8					; size = 4
_p_pIRealReceiver$ = 12					; size = 4
?UpdateTime@CRealTimeTransducerDlg@@QAEXPAUIPacketManager000000@@PAUIRealReceiver@@@Z PROC ; CRealTimeTransducerDlg::UpdateTime, COMDAT
; _this$ = ecx

; 126  : {

  00000	55		 push	 ebp
  00001	8b ec		 mov	 ebp, esp
  00003	6a ff		 push	 -1
  00005	68 00 00 00 00	 push	 __ehhandler$?UpdateTime@CRealTimeTransducerDlg@@QAEXPAUIPacketManager000000@@PAUIRealReceiver@@@Z
  0000a	64 a1 00 00 00
	00		 mov	 eax, DWORD PTR fs:0
  00010	50		 push	 eax
  00011	81 ec a8 00 00
	00		 sub	 esp, 168		; 000000a8H
  00017	a1 00 00 00 00	 mov	 eax, DWORD PTR ___security_cookie
  0001c	33 c5		 xor	 eax, ebp
  0001e	89 45 f0	 mov	 DWORD PTR __$ArrayPad$[ebp], eax
  00021	53		 push	 ebx
  00022	56		 push	 esi
  00023	57		 push	 edi
  00024	50		 push	 eax
  00025	8d 45 f4	 lea	 eax, DWORD PTR __$EHRec$[ebp]
  00028	64 a3 00 00 00
	00		 mov	 DWORD PTR fs:0, eax
  0002e	8b f9		 mov	 edi, ecx

; 127  : 	int i = 0;
; 128  : 	if( p_pIRealReceiver)

  00030	8b 75 0c	 mov	 esi, DWORD PTR _p_pIRealReceiver$[ebp]
  00033	85 f6		 test	 esi, esi
  00035	74 1c		 je	 SHORT $LN7@UpdateTime

; 129  : 	{
; 130  : 		if( m_pIRealReceiver) m_pIRealReceiver->Release();

  00037	8b 8f 58 07 00
	00		 mov	 ecx, DWORD PTR [edi+1880]
  0003d	85 c9		 test	 ecx, ecx
  0003f	74 06		 je	 SHORT $LN8@UpdateTime
  00041	8b 01		 mov	 eax, DWORD PTR [ecx]
  00043	51		 push	 ecx
  00044	ff 50 08	 call	 DWORD PTR [eax+8]
$LN8@UpdateTime:

; 131  : 		m_pIRealReceiver = p_pIRealReceiver;

  00047	89 b7 58 07 00
	00		 mov	 DWORD PTR [edi+1880], esi

; 132  : 		m_pIRealReceiver->AddRef();

  0004d	8b 06		 mov	 eax, DWORD PTR [esi]
  0004f	56		 push	 esi
  00050	ff 50 04	 call	 DWORD PTR [eax+4]
$LN7@UpdateTime:

; 133  : 	}
; 134  : 
; 135  : 	if( g_iMetaTable.IsSpecialTime( int( m_nRealTime % 1000000)))	m_nFakeTime = m_nRealTime;

  00053	8b 87 40 07 00
	00		 mov	 eax, DWORD PTR [edi+1856]
  00059	6a 00		 push	 0
  0005b	68 40 42 0f 00	 push	 1000000			; 000f4240H
  00060	ff 70 04	 push	 DWORD PTR [eax+4]
  00063	ff 30		 push	 DWORD PTR [eax]
  00065	e8 00 00 00 00	 call	 __allrem
  0006a	50		 push	 eax
  0006b	b9 00 00 00 00	 mov	 ecx, OFFSET ?g_iMetaTable@@3VIMetaTable@@A ; g_iMetaTable
  00070	e8 00 00 00 00	 call	 ?IsSpecialTime@IMetaTable@@QAEHH@Z ; IMetaTable::IsSpecialTime
  00075	85 c0		 test	 eax, eax
  00077	74 18		 je	 SHORT $LN9@UpdateTime
  00079	8b 87 40 07 00
	00		 mov	 eax, DWORD PTR [edi+1856]
  0007f	8b 08		 mov	 ecx, DWORD PTR [eax]
  00081	8b 50 04	 mov	 edx, DWORD PTR [eax+4]
  00084	8b 87 48 07 00
	00		 mov	 eax, DWORD PTR [edi+1864]
  0008a	89 08		 mov	 DWORD PTR [eax], ecx
  0008c	89 50 04	 mov	 DWORD PTR [eax+4], edx
  0008f	eb 2b		 jmp	 SHORT $LN10@UpdateTime
$LN9@UpdateTime:

; 136  : 	else															m_nFakeTime = CDataConversion::CalcTimeSum( m_nRealTime, m_nAddTime);

  00091	8b 87 44 07 00
	00		 mov	 eax, DWORD PTR [edi+1860]
  00097	6a 00		 push	 0
  00099	ff 70 04	 push	 DWORD PTR [eax+4]
  0009c	ff 30		 push	 DWORD PTR [eax]
  0009e	8b 87 40 07 00
	00		 mov	 eax, DWORD PTR [edi+1856]
  000a4	ff 70 04	 push	 DWORD PTR [eax+4]
  000a7	ff 30		 push	 DWORD PTR [eax]
  000a9	e8 00 00 00 00	 call	 ?CalcTimeSum@CDataConversion@@SA_J_J0H@Z ; CDataConversion::CalcTimeSum
  000ae	8b 8f 48 07 00
	00		 mov	 ecx, DWORD PTR [edi+1864]
  000b4	83 c4 14	 add	 esp, 20			; 00000014H
  000b7	89 01		 mov	 DWORD PTR [ecx], eax
  000b9	89 51 04	 mov	 DWORD PTR [ecx+4], edx
$LN10@UpdateTime:

; 137  : 
; 138  : 	if( GetSafeHwnd())

  000bc	83 7f 20 00	 cmp	 DWORD PTR [edi+32], 0
  000c0	0f 84 79 05 00
	00		 je	 $LN12@UpdateTime

; 139  : 	{
; 140  : 		m_stcRealTime.SetWindowText(	GetTimeString( m_nRealTime));

  000c6	8b 87 40 07 00
	00		 mov	 eax, DWORD PTR [edi+1856]
  000cc	8b cf		 mov	 ecx, edi
  000ce	ff 70 04	 push	 DWORD PTR [eax+4]
  000d1	ff 30		 push	 DWORD PTR [eax]
  000d3	8d 85 74 ff ff
	ff		 lea	 eax, DWORD PTR $T12[ebp]
  000d9	50		 push	 eax
  000da	e8 00 00 00 00	 call	 ?GetTimeString@CRealTimeTransducerDlg@@IAE?AV?$CStringT@DV?$StrTraitMFC_DLL@DV?$ChTraitsCRT@D@ATL@@@@@ATL@@_J@Z ; CRealTimeTransducerDlg::GetTimeString
  000df	ff 30		 push	 DWORD PTR [eax]
  000e1	8d 8f c0 06 00
	00		 lea	 ecx, DWORD PTR [edi+1728]
  000e7	c7 45 fc 00 00
	00 00		 mov	 DWORD PTR __$EHRec$[ebp+8], 0
  000ee	e8 00 00 00 00	 call	 ?SetWindowTextA@CWnd@@QAEXPBD@Z ; CWnd::SetWindowTextA
  000f3	8d 8d 74 ff ff
	ff		 lea	 ecx, DWORD PTR $T12[ebp]
  000f9	c7 45 fc ff ff
	ff ff		 mov	 DWORD PTR __$EHRec$[ebp+8], -1
  00100	ff 15 00 00 00
	00		 call	 DWORD PTR __imp_??1?$CStringT@DV?$StrTraitMFC_DLL@DV?$ChTraitsCRT@D@ATL@@@@@ATL@@QAE@XZ

; 141  : 		m_stcAddTime.SetWindowText(		GetTimeString( m_nAddTime));

  00106	8b 87 44 07 00
	00		 mov	 eax, DWORD PTR [edi+1860]
  0010c	8b cf		 mov	 ecx, edi
  0010e	ff 70 04	 push	 DWORD PTR [eax+4]
  00111	ff 30		 push	 DWORD PTR [eax]
  00113	8d 85 74 ff ff
	ff		 lea	 eax, DWORD PTR $T11[ebp]
  00119	50		 push	 eax
  0011a	e8 00 00 00 00	 call	 ?GetTimeString@CRealTimeTransducerDlg@@IAE?AV?$CStringT@DV?$StrTraitMFC_DLL@DV?$ChTraitsCRT@D@ATL@@@@@ATL@@_J@Z ; CRealTimeTransducerDlg::GetTimeString
  0011f	ff 30		 push	 DWORD PTR [eax]
  00121	8d 8f 40 06 00
	00		 lea	 ecx, DWORD PTR [edi+1600]
  00127	c7 45 fc 01 00
	00 00		 mov	 DWORD PTR __$EHRec$[ebp+8], 1
  0012e	e8 00 00 00 00	 call	 ?SetWindowTextA@CWnd@@QAEXPBD@Z ; CWnd::SetWindowTextA
  00133	8d 8d 74 ff ff
	ff		 lea	 ecx, DWORD PTR $T11[ebp]
  00139	c7 45 fc ff ff
	ff ff		 mov	 DWORD PTR __$EHRec$[ebp+8], -1
  00140	ff 15 00 00 00
	00		 call	 DWORD PTR __imp_??1?$CStringT@DV?$StrTraitMFC_DLL@DV?$ChTraitsCRT@D@ATL@@@@@ATL@@QAE@XZ

; 142  : 		m_stcFakeTime.SetWindowText(	GetTimeString( m_nFakeTime));

  00146	8b 87 48 07 00
	00		 mov	 eax, DWORD PTR [edi+1864]
  0014c	8b cf		 mov	 ecx, edi
  0014e	ff 70 04	 push	 DWORD PTR [eax+4]
  00151	ff 30		 push	 DWORD PTR [eax]
  00153	8d 85 74 ff ff
	ff		 lea	 eax, DWORD PTR $T10[ebp]
  00159	50		 push	 eax
  0015a	e8 00 00 00 00	 call	 ?GetTimeString@CRealTimeTransducerDlg@@IAE?AV?$CStringT@DV?$StrTraitMFC_DLL@DV?$ChTraitsCRT@D@ATL@@@@@ATL@@_J@Z ; CRealTimeTransducerDlg::GetTimeString
  0015f	ff 30		 push	 DWORD PTR [eax]
  00161	8d 8f c0 05 00
	00		 lea	 ecx, DWORD PTR [edi+1472]
  00167	c7 45 fc 02 00
	00 00		 mov	 DWORD PTR __$EHRec$[ebp+8], 2
  0016e	e8 00 00 00 00	 call	 ?SetWindowTextA@CWnd@@QAEXPBD@Z ; CWnd::SetWindowTextA
  00173	8d 8d 74 ff ff
	ff		 lea	 ecx, DWORD PTR $T10[ebp]
  00179	c7 45 fc ff ff
	ff ff		 mov	 DWORD PTR __$EHRec$[ebp+8], -1
  00180	ff 15 00 00 00
	00		 call	 DWORD PTR __imp_??1?$CStringT@DV?$StrTraitMFC_DLL@DV?$ChTraitsCRT@D@ATL@@@@@ATL@@QAE@XZ

; 143  : 
; 144  : 		if( p_pIPacketManager)

  00186	8b 75 08	 mov	 esi, DWORD PTR _p_pIPacketManager$[ebp]
  00189	85 f6		 test	 esi, esi
  0018b	0f 84 ae 04 00
	00		 je	 $LN12@UpdateTime

; 145  : 		{
; 146  : 			if( m_pIPacketManager) m_pIPacketManager->Release();

  00191	8b 8f 4c 07 00
	00		 mov	 ecx, DWORD PTR [edi+1868]
  00197	85 c9		 test	 ecx, ecx
  00199	74 06		 je	 SHORT $LN13@UpdateTime
  0019b	8b 01		 mov	 eax, DWORD PTR [ecx]
  0019d	51		 push	 ecx
  0019e	ff 50 08	 call	 DWORD PTR [eax+8]
$LN13@UpdateTime:

; 147  : 			m_pIPacketManager = p_pIPacketManager;

  001a1	89 b7 4c 07 00
	00		 mov	 DWORD PTR [edi+1868], esi

; 148  : 			m_pIPacketManager->AddRef();

  001a7	8b 06		 mov	 eax, DWORD PTR [esi]
  001a9	56		 push	 esi
  001aa	ff 50 04	 call	 DWORD PTR [eax+4]
; File C:\Program Files (x86)\Microsoft Visual Studio\2019\Community\VC\Tools\MSVC\14.29.30133\atlmfc\include\afxwin2.inl

; 801  : 	{ ASSERT(::IsWindow(m_hWnd)); ::SendMessage(m_hWnd, CB_RESETCONTENT, 0, 0); }

  001ad	8b 1d 00 00 00
	00		 mov	 ebx, DWORD PTR __imp__SendMessageA@16
  001b3	6a 00		 push	 0
  001b5	6a 00		 push	 0
  001b7	68 4b 01 00 00	 push	 331			; 0000014bH
  001bc	ff b7 c8 01 00
	00		 push	 DWORD PTR [edi+456]
  001c2	ff d3		 call	 ebx
; File D:\git\src\IBK\IBK_DRFN\ProjSrc\SrcChartEx\ChartOCX\AddInManager\ChartCommonAddIn\RealTimeTransducerDlg.cpp

; 154  : 				1, 5, 10, 15, 20, 30, 40, 60,					// 8

  001c4	0f 28 05 00 00
	00 00		 movaps	 xmm0, XMMWORD PTR __xmm@0000000f0000000a0000000500000001

; 155  : 				90, 120,										// 2
; 156  : 				180, 240, 300, 360, 420, 480, 540, 600,			// 8
; 157  : 				1200, 1800, 3600,								// 3
; 158  : 				7200, 10800, 14400, 21600, 43200, 86400, 172800	// 7
; 159  : 			};
; 160  : 			__int64 nSecInterval = m_pIPacketManager->GetTimeIntervalWithSecond();

  001cb	8b 8f 4c 07 00
	00		 mov	 ecx, DWORD PTR [edi+1868]
  001d1	0f 11 45 80	 movups	 XMMWORD PTR _nAccelerators$15[ebp], xmm0
  001d5	0f 28 05 00 00
	00 00		 movaps	 xmm0, XMMWORD PTR __xmm@0000003c000000280000001e00000014
  001dc	8b 01		 mov	 eax, DWORD PTR [ecx]
  001de	0f 11 45 90	 movups	 XMMWORD PTR _nAccelerators$15[ebp+16], xmm0
  001e2	0f 28 05 00 00
	00 00		 movaps	 xmm0, XMMWORD PTR __xmm@000000f0000000b4000000780000005a
  001e9	0f 11 45 a0	 movups	 XMMWORD PTR _nAccelerators$15[ebp+32], xmm0
  001ed	0f 28 05 00 00
	00 00		 movaps	 xmm0, XMMWORD PTR __xmm@000001e0000001a4000001680000012c
  001f4	0f 11 45 b0	 movups	 XMMWORD PTR _nAccelerators$15[ebp+48], xmm0
  001f8	0f 28 05 00 00
	00 00		 movaps	 xmm0, XMMWORD PTR __xmm@00000708000004b0000002580000021c
  001ff	0f 11 45 c0	 movups	 XMMWORD PTR _nAccelerators$15[ebp+64], xmm0
  00203	0f 28 05 00 00
	00 00		 movaps	 xmm0, XMMWORD PTR __xmm@0000384000002a3000001c2000000e10
  0020a	0f 11 45 d0	 movups	 XMMWORD PTR _nAccelerators$15[ebp+80], xmm0
  0020e	0f 28 05 00 00
	00 00		 movaps	 xmm0, XMMWORD PTR __xmm@0002a300000151800000a8c000005460
  00215	0f 11 45 e0	 movups	 XMMWORD PTR _nAccelerators$15[ebp+96], xmm0
  00219	ff 50 50	 call	 DWORD PTR [eax+80]

; 161  : 			CString strAccelerator;

  0021c	8d 8d 64 ff ff
	ff		 lea	 ecx, DWORD PTR _strAccelerator$6[ebp]
  00222	ff 15 00 00 00
	00		 call	 DWORD PTR __imp_??0?$CStringT@DV?$StrTraitMFC_DLL@DV?$ChTraitsCRT@D@ATL@@@@@ATL@@QAE@XZ
  00228	c7 45 fc 03 00
	00 00		 mov	 DWORD PTR __$EHRec$[ebp+8], 3
  0022f	33 f6		 xor	 esi, esi
$LL4@UpdateTime:

; 163  : 			{
; 164  : //				if( nSecInterval < nAccelerators[ i]) continue;
; 165  : 				strAccelerator.Format( "%d", nAccelerators[ i]);

  00231	ff 74 b5 80	 push	 DWORD PTR _nAccelerators$15[ebp+esi*4]
  00235	8d 85 64 ff ff
	ff		 lea	 eax, DWORD PTR _strAccelerator$6[ebp]
  0023b	68 00 00 00 00	 push	 OFFSET ??_C@_02DPKJAMEF@?$CFd@
  00240	50		 push	 eax
  00241	ff 15 00 00 00
	00		 call	 DWORD PTR __imp_?Format@?$CStringT@DV?$StrTraitMFC_DLL@DV?$ChTraitsCRT@D@ATL@@@@@ATL@@QAAXPBDZZ
  00247	83 c4 0c	 add	 esp, 12			; 0000000cH
; File C:\Program Files (x86)\Microsoft Visual Studio\2019\Community\VC\Tools\MSVC\14.29.30133\atlmfc\include\afxwin2.inl

; 795  : 	{ ASSERT(::IsWindow(m_hWnd)); return (int)::SendMessage(m_hWnd, CB_ADDSTRING, 0, (LPARAM)lpszString); }

  0024a	ff b5 64 ff ff
	ff		 push	 DWORD PTR _strAccelerator$6[ebp]
  00250	6a 00		 push	 0
  00252	68 43 01 00 00	 push	 323			; 00000143H
  00257	ff b7 c8 01 00
	00		 push	 DWORD PTR [edi+456]
  0025d	ff d3		 call	 ebx
; File D:\git\src\IBK\IBK_DRFN\ProjSrc\SrcChartEx\ChartOCX\AddInManager\ChartCommonAddIn\RealTimeTransducerDlg.cpp

; 162  : 			for(  i = 0; i < 28; i++)

  0025f	46		 inc	 esi
  00260	83 fe 1c	 cmp	 esi, 28			; 0000001cH
  00263	7c cc		 jl	 SHORT $LL4@UpdateTime
; File C:\Program Files (x86)\Microsoft Visual Studio\2019\Community\VC\Tools\MSVC\14.29.30133\atlmfc\include\afxwin2.inl

; 767  : 	{ ASSERT(::IsWindow(m_hWnd)); return (int)::SendMessage(m_hWnd, CB_SETCURSEL, nSelect, 0); }

  00265	6a 00		 push	 0
  00267	6a 00		 push	 0
  00269	68 4e 01 00 00	 push	 334			; 0000014eH
  0026e	ff b7 c8 01 00
	00		 push	 DWORD PTR [edi+456]
  00274	ff d3		 call	 ebx
; File C:\Program Files (x86)\Microsoft Visual Studio\2019\Community\VC\Tools\MSVC\14.29.30133\atlmfc\include\afxcmn.inl

; 171  : 	{ ASSERT(::IsWindow(m_hWnd)); return (BOOL) ::SendMessage(m_hWnd, LVM_DELETEALLITEMS, 0, 0L); }

  00276	6a 00		 push	 0
  00278	6a 00		 push	 0
  0027a	68 09 10 00 00	 push	 4105			; 00001009H
  0027f	ff b7 48 05 00
	00		 push	 DWORD PTR [edi+1352]
  00285	ff d3		 call	 ebx
; File D:\git\src\IBK\IBK_DRFN\ProjSrc\SrcChartEx\ChartOCX\AddInManager\ChartCommonAddIn\RealTimeTransducerDlg.cpp

; 172  : 			CString strPacketName, strValue, strCheck, strRDC;

  00287	8d 8d 70 ff ff
	ff		 lea	 ecx, DWORD PTR _strPacketName$9[ebp]
  0028d	ff 15 00 00 00
	00		 call	 DWORD PTR __imp_??0?$CStringT@DV?$StrTraitMFC_DLL@DV?$ChTraitsCRT@D@ATL@@@@@ATL@@QAE@XZ
  00293	8d 8d 78 ff ff
	ff		 lea	 ecx, DWORD PTR _strValue$13[ebp]
  00299	ff 15 00 00 00
	00		 call	 DWORD PTR __imp_??0?$CStringT@DV?$StrTraitMFC_DLL@DV?$ChTraitsCRT@D@ATL@@@@@ATL@@QAE@XZ
  0029f	8d 8d 68 ff ff
	ff		 lea	 ecx, DWORD PTR _strCheck$7[ebp]
  002a5	ff 15 00 00 00
	00		 call	 DWORD PTR __imp_??0?$CStringT@DV?$StrTraitMFC_DLL@DV?$ChTraitsCRT@D@ATL@@@@@ATL@@QAE@XZ
  002ab	8d 8d 6c ff ff
	ff		 lea	 ecx, DWORD PTR _strRDC$8[ebp]
  002b1	ff 15 00 00 00
	00		 call	 DWORD PTR __imp_??0?$CStringT@DV?$StrTraitMFC_DLL@DV?$ChTraitsCRT@D@ATL@@@@@ATL@@QAE@XZ
; File C:\Program Files (x86)\Microsoft Visual Studio\2019\Community\VC\Tools\MSVC\14.29.30133\atlmfc\include\afxwin2.inl

; 213  : 	{ ASSERT(::IsWindow(m_hWnd)); return CWnd::FromHandle(::GetParent(m_hWnd)); }

  002b7	ff 77 20	 push	 DWORD PTR [edi+32]
  002ba	0f 57 c0	 xorps	 xmm0, xmm0
; File D:\git\src\IBK\IBK_DRFN\ProjSrc\SrcChartEx\ChartOCX\AddInManager\ChartCommonAddIn\RealTimeTransducerDlg.cpp

; 172  : 			CString strPacketName, strValue, strCheck, strRDC;

  002bd	c6 45 fc 07	 mov	 BYTE PTR __$EHRec$[ebp+8], 7

; 173  : 			int nDataCount = 0;
; 174  : 			double dValue = 0;

  002c1	f2 0f 11 85 4c
	ff ff ff	 movsd	 QWORD PTR _dValue$2[ebp], xmm0
; File C:\Program Files (x86)\Microsoft Visual Studio\2019\Community\VC\Tools\MSVC\14.29.30133\atlmfc\include\afxwin2.inl

; 213  : 	{ ASSERT(::IsWindow(m_hWnd)); return CWnd::FromHandle(::GetParent(m_hWnd)); }

  002c9	ff 15 00 00 00
	00		 call	 DWORD PTR __imp__GetParent@4
  002cf	50		 push	 eax
  002d0	e8 00 00 00 00	 call	 ?FromHandle@CWnd@@SGPAV1@PAUHWND__@@@Z ; CWnd::FromHandle

; 25   : 	{ return this == NULL ? NULL : m_hWnd; }

  002d5	85 c0		 test	 eax, eax
  002d7	75 08		 jne	 SHORT $LN65@UpdateTime
  002d9	89 85 74 ff ff
	ff		 mov	 DWORD PTR _m_hOcxWnd$1$[ebp], eax
  002df	eb 09		 jmp	 SHORT $LN66@UpdateTime
$LN65@UpdateTime:
  002e1	8b 40 20	 mov	 eax, DWORD PTR [eax+32]
  002e4	89 85 74 ff ff
	ff		 mov	 DWORD PTR _m_hOcxWnd$1$[ebp], eax
$LN66@UpdateTime:
; File D:\git\src\IBK\IBK_DRFN\ProjSrc\SrcChartEx\ChartOCX\AddInManager\ChartCommonAddIn\RealTimeTransducerDlg.cpp

; 177  : 			ILPCSTR szPacketNames = m_pIPacketManager->GetTRPacketNames();

  002ea	8b 8f 4c 07 00
	00		 mov	 ecx, DWORD PTR [edi+1868]
  002f0	8d 95 5c ff ff
	ff		 lea	 edx, DWORD PTR _szPacketNames$5[ebp]
  002f6	68 00 00 00 00	 push	 OFFSET ??_C@_01ICJEACDI@?$DL@
  002fb	52		 push	 edx
  002fc	8b 01		 mov	 eax, DWORD PTR [ecx]
  002fe	ff 50 3c	 call	 DWORD PTR [eax+60]

; 178  : 			CString strPacketNames( szPacketNames);

  00301	ff b5 5c ff ff
	ff		 push	 DWORD PTR _szPacketNames$5[ebp]
  00307	8d 8d 7c ff ff
	ff		 lea	 ecx, DWORD PTR _strPacketNames$14[ebp]
  0030d	c6 45 fc 08	 mov	 BYTE PTR __$EHRec$[ebp+8], 8
  00311	ff 15 00 00 00
	00		 call	 DWORD PTR __imp_??0?$CStringT@DV?$StrTraitMFC_DLL@DV?$ChTraitsCRT@D@ATL@@@@@ATL@@QAE@PBD@Z
; File C:\Program Files (x86)\Microsoft Visual Studio\2019\Community\VC\Tools\MSVC\14.29.30133\atlmfc\include\atlsimpstr.h

; 519  : 		return( GetData()->nDataLength );

  00317	8b 85 7c ff ff
	ff		 mov	 eax, DWORD PTR _strPacketNames$14[ebp]
; File D:\git\src\IBK\IBK_DRFN\ProjSrc\SrcChartEx\ChartOCX\AddInManager\ChartCommonAddIn\RealTimeTransducerDlg.cpp

; 179  : 			i = 0;

  0031d	33 db		 xor	 ebx, ebx
  0031f	c6 45 fc 09	 mov	 BYTE PTR __$EHRec$[ebp+8], 9
; File C:\Program Files (x86)\Microsoft Visual Studio\2019\Community\VC\Tools\MSVC\14.29.30133\atlmfc\include\atlsimpstr.h

; 533  : 		return( GetLength() == 0 );

  00323	39 58 f4	 cmp	 DWORD PTR [eax-12], ebx
; File D:\git\src\IBK\IBK_DRFN\ProjSrc\SrcChartEx\ChartOCX\AddInManager\ChartCommonAddIn\RealTimeTransducerDlg.cpp

; 180  : 			while( !strPacketNames.IsEmpty())

  00326	0f 84 a3 02 00
	00		 je	 $LN6@UpdateTime
  0032c	0f 1f 40 00	 npad	 4
$LL5@UpdateTime:

; 181  : 			{
; 182  : 				int nLen = strPacketNames.Find( ';');

  00330	6a 00		 push	 0
  00332	6a 3b		 push	 59			; 0000003bH
  00334	8d 8d 7c ff ff
	ff		 lea	 ecx, DWORD PTR _strPacketNames$14[ebp]
  0033a	ff 15 00 00 00
	00		 call	 DWORD PTR __imp_?Find@?$CStringT@DV?$StrTraitMFC_DLL@DV?$ChTraitsCRT@D@ATL@@@@@ATL@@QBEHDH@Z

; 183  : 				if( nLen < 0) nLen = strPacketNames.GetLength();

  00340	8b 8d 7c ff ff
	ff		 mov	 ecx, DWORD PTR _strPacketNames$14[ebp]
  00346	8b f0		 mov	 esi, eax
  00348	85 f6		 test	 esi, esi
  0034a	79 05		 jns	 SHORT $LN115@UpdateTime
; File C:\Program Files (x86)\Microsoft Visual Studio\2019\Community\VC\Tools\MSVC\14.29.30133\atlmfc\include\atlsimpstr.h

; 519  : 		return( GetData()->nDataLength );

  0034c	8b 71 f4	 mov	 esi, DWORD PTR [ecx-12]
; File D:\git\src\IBK\IBK_DRFN\ProjSrc\SrcChartEx\ChartOCX\AddInManager\ChartCommonAddIn\RealTimeTransducerDlg.cpp

; 184  : 				if( 0 < nLen)

  0034f	85 f6		 test	 esi, esi
$LN115@UpdateTime:
  00351	0f 8e 6e 02 00
	00		 jle	 $LN15@UpdateTime

; 185  : 				{
; 186  : 					strPacketName = strPacketNames.Left( nLen);

  00357	56		 push	 esi
  00358	8d 85 58 ff ff
	ff		 lea	 eax, DWORD PTR $T4[ebp]
  0035e	50		 push	 eax
  0035f	8d 8d 7c ff ff
	ff		 lea	 ecx, DWORD PTR _strPacketNames$14[ebp]
  00365	ff 15 00 00 00
	00		 call	 DWORD PTR __imp_?Left@?$CStringT@DV?$StrTraitMFC_DLL@DV?$ChTraitsCRT@D@ATL@@@@@ATL@@QBE?AV12@H@Z
  0036b	50		 push	 eax
  0036c	8d 8d 70 ff ff
	ff		 lea	 ecx, DWORD PTR _strPacketName$9[ebp]
  00372	c6 45 fc 0a	 mov	 BYTE PTR __$EHRec$[ebp+8], 10 ; 0000000aH
  00376	ff 15 00 00 00
	00		 call	 DWORD PTR __imp_??4?$CStringT@DV?$StrTraitMFC_DLL@DV?$ChTraitsCRT@D@ATL@@@@@ATL@@QAEAAV01@ABV01@@Z
  0037c	8d 8d 58 ff ff
	ff		 lea	 ecx, DWORD PTR $T4[ebp]
  00382	c6 45 fc 09	 mov	 BYTE PTR __$EHRec$[ebp+8], 9
  00386	ff 15 00 00 00
	00		 call	 DWORD PTR __imp_??1?$CStringT@DV?$StrTraitMFC_DLL@DV?$ChTraitsCRT@D@ATL@@@@@ATL@@QAE@XZ

; 187  : 					m_lcRealState.InsertItem( i, _MTOL0( strPacketName));

  0038c	6a 00		 push	 0
  0038e	ff b5 70 ff ff
	ff		 push	 DWORD PTR _strPacketName$9[ebp]
  00394	b9 00 00 00 00	 mov	 ecx, OFFSET ?g_iMetaTable@@3VIMetaTable@@A ; g_iMetaTable
  00399	6a 00		 push	 0
  0039b	ff b5 74 ff ff
	ff		 push	 DWORD PTR _m_hOcxWnd$1$[ebp]
  003a1	e8 00 00 00 00	 call	 ?GetLanguageText@IMetaTable@@QAEPBDPAUHWND__@@W4E_CODEPAGE@1@PBDH@Z ; IMetaTable::GetLanguageText
; File C:\Program Files (x86)\Microsoft Visual Studio\2019\Community\VC\Tools\MSVC\14.29.30133\atlmfc\include\afxcmn.inl

; 165  : 	{ ASSERT(::IsWindow(m_hWnd)); return InsertItem(LVIF_TEXT, nItem, lpszItem, 0, 0, 0, 0); }

  003a6	6a 00		 push	 0
  003a8	6a 00		 push	 0
  003aa	6a 00		 push	 0
  003ac	6a 00		 push	 0
  003ae	50		 push	 eax
  003af	53		 push	 ebx
; File D:\git\src\IBK\IBK_DRFN\ProjSrc\SrcChartEx\ChartOCX\AddInManager\ChartCommonAddIn\RealTimeTransducerDlg.cpp

; 187  : 					m_lcRealState.InsertItem( i, _MTOL0( strPacketName));

  003b0	8d 8f 28 05 00
	00		 lea	 ecx, DWORD PTR [edi+1320]
; File C:\Program Files (x86)\Microsoft Visual Studio\2019\Community\VC\Tools\MSVC\14.29.30133\atlmfc\include\afxcmn.inl

; 165  : 	{ ASSERT(::IsWindow(m_hWnd)); return InsertItem(LVIF_TEXT, nItem, lpszItem, 0, 0, 0, 0); }

  003b6	6a 01		 push	 1
  003b8	e8 00 00 00 00	 call	 ?InsertItem@CListCtrl@@QAEHIHPBDIIHJ@Z ; CListCtrl::InsertItem
; File C:\Program Files (x86)\Microsoft Visual Studio\2019\Community\VC\Tools\MSVC\14.29.30133\atlmfc\include\atlsimpstr.h

; 519  : 		return( GetData()->nDataLength );

  003bd	8b 85 7c ff ff
	ff		 mov	 eax, DWORD PTR _strPacketNames$14[ebp]
; File D:\git\src\IBK\IBK_DRFN\ProjSrc\SrcChartEx\ChartOCX\AddInManager\ChartCommonAddIn\RealTimeTransducerDlg.cpp

; 188  : 					if( nLen == strPacketNames.GetLength()) strPacketNames.Empty();

  003c3	8d 8d 7c ff ff
	ff		 lea	 ecx, DWORD PTR _strPacketNames$14[ebp]
  003c9	3b 70 f4	 cmp	 esi, DWORD PTR [eax-12]
  003cc	75 08		 jne	 SHORT $LN16@UpdateTime
  003ce	ff 15 00 00 00
	00		 call	 DWORD PTR __imp_?Empty@?$CSimpleStringT@D$00@ATL@@QAEXXZ
  003d4	eb 32		 jmp	 SHORT $LN17@UpdateTime
$LN16@UpdateTime:

; 189  : 					else									strPacketNames = strPacketNames.Mid( nLen + 1);

  003d6	8d 46 01	 lea	 eax, DWORD PTR [esi+1]
  003d9	50		 push	 eax
  003da	8d 85 54 ff ff
	ff		 lea	 eax, DWORD PTR $T3[ebp]
  003e0	50		 push	 eax
  003e1	ff 15 00 00 00
	00		 call	 DWORD PTR __imp_?Mid@?$CStringT@DV?$StrTraitMFC_DLL@DV?$ChTraitsCRT@D@ATL@@@@@ATL@@QBE?AV12@H@Z
  003e7	50		 push	 eax
  003e8	8d 8d 7c ff ff
	ff		 lea	 ecx, DWORD PTR _strPacketNames$14[ebp]
  003ee	c6 45 fc 0b	 mov	 BYTE PTR __$EHRec$[ebp+8], 11 ; 0000000bH
  003f2	ff 15 00 00 00
	00		 call	 DWORD PTR __imp_??4?$CStringT@DV?$StrTraitMFC_DLL@DV?$ChTraitsCRT@D@ATL@@@@@ATL@@QAEAAV01@ABV01@@Z
  003f8	8d 8d 54 ff ff
	ff		 lea	 ecx, DWORD PTR $T3[ebp]
  003fe	c6 45 fc 09	 mov	 BYTE PTR __$EHRec$[ebp+8], 9
  00402	ff 15 00 00 00
	00		 call	 DWORD PTR __imp_??1?$CStringT@DV?$StrTraitMFC_DLL@DV?$ChTraitsCRT@D@ATL@@@@@ATL@@QAE@XZ
$LN17@UpdateTime:

; 190  : 
; 191  : 					IPacket *pIPacket = m_pIPacketManager->GetPacket( strPacketName);

  00408	8b 8f 4c 07 00
	00		 mov	 ecx, DWORD PTR [edi+1868]
  0040e	ff b5 70 ff ff
	ff		 push	 DWORD PTR _strPacketName$9[ebp]
  00414	8b 01		 mov	 eax, DWORD PTR [ecx]
  00416	ff 50 10	 call	 DWORD PTR [eax+16]
  00419	8b f0		 mov	 esi, eax

; 192  : 					if( pIPacket)

  0041b	85 f6		 test	 esi, esi
  0041d	74 5e		 je	 SHORT $LN18@UpdateTime

; 193  : 					{
; 194  : 						nDataCount = pIPacket->GetDataCount();

  0041f	8b 16		 mov	 edx, DWORD PTR [esi]
  00421	8b ce		 mov	 ecx, esi
  00423	ff 52 2c	 call	 DWORD PTR [edx+44]

; 195  : 						if( 0 < nDataCount)

  00426	85 c0		 test	 eax, eax
  00428	7e 4d		 jle	 SHORT $LN20@UpdateTime

; 196  : 						{
; 197  : 							if( pIPacket->GetData( nDataCount - 1, dValue))

  0042a	8b 16		 mov	 edx, DWORD PTR [esi]
  0042c	8d 8d 4c ff ff
	ff		 lea	 ecx, DWORD PTR _dValue$2[ebp]
  00432	51		 push	 ecx
  00433	48		 dec	 eax
  00434	8b ce		 mov	 ecx, esi
  00436	50		 push	 eax
  00437	ff 52 40	 call	 DWORD PTR [edx+64]
  0043a	85 c0		 test	 eax, eax
  0043c	74 39		 je	 SHORT $LN20@UpdateTime

; 198  : 							{
; 199  : 								strValue.Format( "%0.5f", dValue);

  0043e	f2 0f 10 85 4c
	ff ff ff	 movsd	 xmm0, QWORD PTR _dValue$2[ebp]
  00446	8d 85 78 ff ff
	ff		 lea	 eax, DWORD PTR _strValue$13[ebp]
  0044c	83 ec 08	 sub	 esp, 8
  0044f	f2 0f 11 04 24	 movsd	 QWORD PTR [esp], xmm0
  00454	68 00 00 00 00	 push	 OFFSET ??_C@_05OJJHEBAI@?$CF0?45f@
  00459	50		 push	 eax
  0045a	ff 15 00 00 00
	00		 call	 DWORD PTR __imp_?Format@?$CStringT@DV?$StrTraitMFC_DLL@DV?$ChTraitsCRT@D@ATL@@@@@ATL@@QAAXPBDZZ
  00460	83 c4 10	 add	 esp, 16			; 00000010H

; 200  : 								m_lcRealState.SetItemText( i, 1, strValue);

  00463	8d 8f 28 05 00
	00		 lea	 ecx, DWORD PTR [edi+1320]
  00469	ff b5 78 ff ff
	ff		 push	 DWORD PTR _strValue$13[ebp]
  0046f	6a 01		 push	 1
  00471	53		 push	 ebx
  00472	e8 00 00 00 00	 call	 ?SetItemText@CListCtrl@@QAEHHHPBD@Z ; CListCtrl::SetItemText
$LN20@UpdateTime:

; 201  : 							}
; 202  : 						}
; 203  : 						
; 204  : 						pIPacket->Release();

  00477	8b 06		 mov	 eax, DWORD PTR [esi]
  00479	56		 push	 esi
  0047a	ff 50 08	 call	 DWORD PTR [eax+8]
$LN18@UpdateTime:

; 205  : 					}
; 206  : 
; 207  : 					strCheck = "v";

  0047d	68 00 00 00 00	 push	 OFFSET ??_C@_01MHEDDDHA@v@
  00482	8d 8d 68 ff ff
	ff		 lea	 ecx, DWORD PTR _strCheck$7[ebp]
  00488	ff 15 00 00 00
	00		 call	 DWORD PTR __imp_??4?$CStringT@DV?$StrTraitMFC_DLL@DV?$ChTraitsCRT@D@ATL@@@@@ATL@@QAEAAV01@PBD@Z

; 208  : 					strRDC = "1";

  0048e	68 00 00 00 00	 push	 OFFSET ??_C@_01HIHLOKLC@1@
  00493	8d 8d 6c ff ff
	ff		 lea	 ecx, DWORD PTR _strRDC$8[ebp]
  00499	ff 15 00 00 00
	00		 call	 DWORD PTR __imp_??4?$CStringT@DV?$StrTraitMFC_DLL@DV?$ChTraitsCRT@D@ATL@@@@@ATL@@QAEAAV01@PBD@Z

; 209  : 					strValue.Empty();

  0049f	8d 8d 78 ff ff
	ff		 lea	 ecx, DWORD PTR _strValue$13[ebp]
  004a5	ff 15 00 00 00
	00		 call	 DWORD PTR __imp_?Empty@?$CSimpleStringT@D$00@ATL@@QAEXXZ

; 210  : 					if( _MTEXT( C0_DATE_TIME) == strPacketName)

  004ab	a1 54 00 00 00	 mov	 eax, DWORD PTR ?g_iMetaTable@@3VIMetaTable@@A+84
; File C:\Program Files (x86)\Microsoft Visual Studio\2019\Community\VC\Tools\MSVC\14.29.30133\atlmfc\include\cstringt.h

; 2493 : 		return(str2.Compare(psz1) == 0);

  004b0	8d 8d 70 ff ff
	ff		 lea	 ecx, DWORD PTR _strPacketName$9[ebp]
  004b6	ff 30		 push	 DWORD PTR [eax]
  004b8	ff 15 00 00 00
	00		 call	 DWORD PTR __imp_?Compare@?$CStringT@DV?$StrTraitMFC_DLL@DV?$ChTraitsCRT@D@ATL@@@@@ATL@@QBEHPBD@Z
  004be	85 c0		 test	 eax, eax
; File D:\git\src\IBK\IBK_DRFN\ProjSrc\SrcChartEx\ChartOCX\AddInManager\ChartCommonAddIn\RealTimeTransducerDlg.cpp

; 210  : 					if( _MTEXT( C0_DATE_TIME) == strPacketName)

  004c0	75 16		 jne	 SHORT $LN21@UpdateTime

; 211  : 						strValue = "30";

  004c2	68 00 00 00 00	 push	 OFFSET ??_C@_02PJNFELNH@30@
  004c7	8d 8d 78 ff ff
	ff		 lea	 ecx, DWORD PTR _strValue$13[ebp]
  004cd	ff 15 00 00 00
	00		 call	 DWORD PTR __imp_??4?$CStringT@DV?$StrTraitMFC_DLL@DV?$ChTraitsCRT@D@ATL@@@@@ATL@@QAEAAV01@PBD@Z
  004d3	e9 aa 00 00 00	 jmp	 $LN27@UpdateTime
$LN21@UpdateTime:

; 212  : 					else if( _MTEXT( C0_CLOSE) == strPacketName)

  004d8	a1 54 00 00 00	 mov	 eax, DWORD PTR ?g_iMetaTable@@3VIMetaTable@@A+84
; File C:\Program Files (x86)\Microsoft Visual Studio\2019\Community\VC\Tools\MSVC\14.29.30133\atlmfc\include\cstringt.h

; 2493 : 		return(str2.Compare(psz1) == 0);

  004dd	8d 8d 70 ff ff
	ff		 lea	 ecx, DWORD PTR _strPacketName$9[ebp]
  004e3	ff 70 14	 push	 DWORD PTR [eax+20]
  004e6	ff 15 00 00 00
	00		 call	 DWORD PTR __imp_?Compare@?$CStringT@DV?$StrTraitMFC_DLL@DV?$ChTraitsCRT@D@ATL@@@@@ATL@@QBEHPBD@Z
  004ec	85 c0		 test	 eax, eax
; File D:\git\src\IBK\IBK_DRFN\ProjSrc\SrcChartEx\ChartOCX\AddInManager\ChartCommonAddIn\RealTimeTransducerDlg.cpp

; 212  : 					else if( _MTEXT( C0_CLOSE) == strPacketName)

  004ee	75 4f		 jne	 SHORT $LN23@UpdateTime

; 213  : 					{
; 214  : 						strValue = "5";

  004f0	68 00 00 00 00	 push	 OFFSET ??_C@_01BMBHCPLG@5@
  004f5	8d 8d 78 ff ff
	ff		 lea	 ecx, DWORD PTR _strValue$13[ebp]
  004fb	ff 15 00 00 00
	00		 call	 DWORD PTR __imp_??4?$CStringT@DV?$StrTraitMFC_DLL@DV?$ChTraitsCRT@D@ATL@@@@@ATL@@QAEAAV01@PBD@Z
; File C:\Program Files (x86)\Microsoft Visual Studio\2019\Community\VC\Tools\MSVC\14.29.30133\atlmfc\include\afxwin2.inl

; 765  : 	{ ASSERT(::IsWindow(m_hWnd)); return (int)::SendMessage(m_hWnd, CB_GETCURSEL, 0, 0); }

  00501	6a 00		 push	 0
  00503	6a 00		 push	 0
  00505	68 47 01 00 00	 push	 327			; 00000147H
  0050a	ff b7 48 03 00
	00		 push	 DWORD PTR [edi+840]
  00510	ff 15 00 00 00
	00		 call	 DWORD PTR __imp__SendMessageA@16
; File D:\git\src\IBK\IBK_DRFN\ProjSrc\SrcChartEx\ChartOCX\AddInManager\ChartCommonAddIn\RealTimeTransducerDlg.cpp

; 215  : 						if( 1 == m_cbPriceType.GetCurSel())

  00516	83 f8 01	 cmp	 eax, 1
  00519	75 67		 jne	 SHORT $LN27@UpdateTime

; 216  : 						{
; 217  : 							strValue = "0.00005";

  0051b	68 00 00 00 00	 push	 OFFSET ??_C@_07FDLIFBIG@0?400005@
  00520	8d 8d 78 ff ff
	ff		 lea	 ecx, DWORD PTR _strValue$13[ebp]
  00526	ff 15 00 00 00
	00		 call	 DWORD PTR __imp_??4?$CStringT@DV?$StrTraitMFC_DLL@DV?$ChTraitsCRT@D@ATL@@@@@ATL@@QAEAAV01@PBD@Z

; 218  : 							strRDC = "100000";

  0052c	68 00 00 00 00	 push	 OFFSET ??_C@_06MCNKBKIO@100000@
  00531	8d 8d 6c ff ff
	ff		 lea	 ecx, DWORD PTR _strRDC$8[ebp]
  00537	ff 15 00 00 00
	00		 call	 DWORD PTR __imp_??4?$CStringT@DV?$StrTraitMFC_DLL@DV?$ChTraitsCRT@D@ATL@@@@@ATL@@QAEAAV01@PBD@Z

; 219  : 						}
; 220  : 					}

  0053d	eb 43		 jmp	 SHORT $LN27@UpdateTime
$LN23@UpdateTime:

; 221  : 					else if( _MTEXT( C0_VOLUME) == strPacketName)

  0053f	a1 54 00 00 00	 mov	 eax, DWORD PTR ?g_iMetaTable@@3VIMetaTable@@A+84
; File C:\Program Files (x86)\Microsoft Visual Studio\2019\Community\VC\Tools\MSVC\14.29.30133\atlmfc\include\cstringt.h

; 2493 : 		return(str2.Compare(psz1) == 0);

  00544	8d 8d 70 ff ff
	ff		 lea	 ecx, DWORD PTR _strPacketName$9[ebp]
  0054a	ff 70 1c	 push	 DWORD PTR [eax+28]
  0054d	ff 15 00 00 00
	00		 call	 DWORD PTR __imp_?Compare@?$CStringT@DV?$StrTraitMFC_DLL@DV?$ChTraitsCRT@D@ATL@@@@@ATL@@QBEHPBD@Z
  00553	85 c0		 test	 eax, eax
; File D:\git\src\IBK\IBK_DRFN\ProjSrc\SrcChartEx\ChartOCX\AddInManager\ChartCommonAddIn\RealTimeTransducerDlg.cpp

; 221  : 					else if( _MTEXT( C0_VOLUME) == strPacketName)

  00555	75 13		 jne	 SHORT $LN26@UpdateTime

; 222  : 						strValue = "10";

  00557	68 00 00 00 00	 push	 OFFSET ??_C@_02PKFBJPLJ@10@
  0055c	8d 8d 78 ff ff
	ff		 lea	 ecx, DWORD PTR _strValue$13[ebp]
  00562	ff 15 00 00 00
	00		 call	 DWORD PTR __imp_??4?$CStringT@DV?$StrTraitMFC_DLL@DV?$ChTraitsCRT@D@ATL@@@@@ATL@@QAEAAV01@PBD@Z
  00568	eb 18		 jmp	 SHORT $LN27@UpdateTime
$LN26@UpdateTime:

; 223  : 					else
; 224  : 					{
; 225  : 						strCheck.Empty();

  0056a	8d 8d 68 ff ff
	ff		 lea	 ecx, DWORD PTR _strCheck$7[ebp]
  00570	ff 15 00 00 00
	00		 call	 DWORD PTR __imp_?Empty@?$CSimpleStringT@D$00@ATL@@QAEXXZ

; 226  : 						strRDC.Empty();

  00576	8d 8d 6c ff ff
	ff		 lea	 ecx, DWORD PTR _strRDC$8[ebp]
  0057c	ff 15 00 00 00
	00		 call	 DWORD PTR __imp_?Empty@?$CSimpleStringT@D$00@ATL@@QAEXXZ
$LN27@UpdateTime:

; 227  : 					}
; 228  : 					m_lcRealState.SetItemText( i, 2, strCheck);

  00582	ff b5 68 ff ff
	ff		 push	 DWORD PTR _strCheck$7[ebp]
  00588	8d 8f 28 05 00
	00		 lea	 ecx, DWORD PTR [edi+1320]
  0058e	6a 02		 push	 2
  00590	53		 push	 ebx
  00591	e8 00 00 00 00	 call	 ?SetItemText@CListCtrl@@QAEHHHPBD@Z ; CListCtrl::SetItemText

; 229  : 					m_lcRealState.SetItemText( i, 3, strValue);

  00596	ff b5 78 ff ff
	ff		 push	 DWORD PTR _strValue$13[ebp]
  0059c	8d 8f 28 05 00
	00		 lea	 ecx, DWORD PTR [edi+1320]
  005a2	6a 03		 push	 3
  005a4	53		 push	 ebx
  005a5	e8 00 00 00 00	 call	 ?SetItemText@CListCtrl@@QAEHHHPBD@Z ; CListCtrl::SetItemText

; 230  : 					m_lcRealState.SetItemText( i, 4, strRDC);

  005aa	ff b5 6c ff ff
	ff		 push	 DWORD PTR _strRDC$8[ebp]
  005b0	8d 8f 28 05 00
	00		 lea	 ecx, DWORD PTR [edi+1320]
  005b6	6a 04		 push	 4
  005b8	53		 push	 ebx
  005b9	e8 00 00 00 00	 call	 ?SetItemText@CListCtrl@@QAEHHHPBD@Z ; CListCtrl::SetItemText

; 231  : 
; 232  : 					i++;

  005be	8b 8d 7c ff ff
	ff		 mov	 ecx, DWORD PTR _strPacketNames$14[ebp]
  005c4	43		 inc	 ebx
$LN15@UpdateTime:
; File C:\Program Files (x86)\Microsoft Visual Studio\2019\Community\VC\Tools\MSVC\14.29.30133\atlmfc\include\atlsimpstr.h

; 533  : 		return( GetLength() == 0 );

  005c5	83 79 f4 00	 cmp	 DWORD PTR [ecx-12], 0
; File D:\git\src\IBK\IBK_DRFN\ProjSrc\SrcChartEx\ChartOCX\AddInManager\ChartCommonAddIn\RealTimeTransducerDlg.cpp

; 180  : 			while( !strPacketNames.IsEmpty())

  005c9	0f 85 61 fd ff
	ff		 jne	 $LL5@UpdateTime
$LN6@UpdateTime:

; 235  : 		}

  005cf	8d 8d 7c ff ff
	ff		 lea	 ecx, DWORD PTR _strPacketNames$14[ebp]
  005d5	ff 15 00 00 00
	00		 call	 DWORD PTR __imp_??1?$CStringT@DV?$StrTraitMFC_DLL@DV?$ChTraitsCRT@D@ATL@@@@@ATL@@QAE@XZ
; File D:\git\src\IBK\IBK_DRFN\ProjSrc\SrcChartEx\ChartOCX\AddInManager\Include_AddIn\I000000\_IString.h

; 45   : 		if( m_pIStrData)

  005db	8b 8d 60 ff ff
	ff		 mov	 ecx, DWORD PTR _szPacketNames$5[ebp+4]
  005e1	c6 45 fc 0c	 mov	 BYTE PTR __$EHRec$[ebp+8], 12 ; 0000000cH
  005e5	85 c9		 test	 ecx, ecx
  005e7	74 1a		 je	 SHORT $LN104@UpdateTime

; 46   : 		{
; 47   : 			m_pIStrData->Release();

  005e9	8b 01		 mov	 eax, DWORD PTR [ecx]
  005eb	51		 push	 ecx
  005ec	ff 50 08	 call	 DWORD PTR [eax+8]

; 48   : 			m_pIStrData = NULL;

  005ef	c7 85 60 ff ff
	ff 00 00 00 00	 mov	 DWORD PTR _szPacketNames$5[ebp+4], 0

; 49   : 			m_szData = NULL;

  005f9	c7 85 5c ff ff
	ff 00 00 00 00	 mov	 DWORD PTR _szPacketNames$5[ebp], 0
$LN104@UpdateTime:
; File D:\git\src\IBK\IBK_DRFN\ProjSrc\SrcChartEx\ChartOCX\AddInManager\ChartCommonAddIn\RealTimeTransducerDlg.cpp

; 235  : 		}

  00603	8d 8d 6c ff ff
	ff		 lea	 ecx, DWORD PTR _strRDC$8[ebp]
  00609	ff 15 00 00 00
	00		 call	 DWORD PTR __imp_??1?$CStringT@DV?$StrTraitMFC_DLL@DV?$ChTraitsCRT@D@ATL@@@@@ATL@@QAE@XZ
  0060f	8d 8d 68 ff ff
	ff		 lea	 ecx, DWORD PTR _strCheck$7[ebp]
  00615	ff 15 00 00 00
	00		 call	 DWORD PTR __imp_??1?$CStringT@DV?$StrTraitMFC_DLL@DV?$ChTraitsCRT@D@ATL@@@@@ATL@@QAE@XZ
  0061b	8d 8d 78 ff ff
	ff		 lea	 ecx, DWORD PTR _strValue$13[ebp]
  00621	ff 15 00 00 00
	00		 call	 DWORD PTR __imp_??1?$CStringT@DV?$StrTraitMFC_DLL@DV?$ChTraitsCRT@D@ATL@@@@@ATL@@QAE@XZ
  00627	8d 8d 70 ff ff
	ff		 lea	 ecx, DWORD PTR _strPacketName$9[ebp]
  0062d	ff 15 00 00 00
	00		 call	 DWORD PTR __imp_??1?$CStringT@DV?$StrTraitMFC_DLL@DV?$ChTraitsCRT@D@ATL@@@@@ATL@@QAE@XZ
  00633	8d 8d 64 ff ff
	ff		 lea	 ecx, DWORD PTR _strAccelerator$6[ebp]
  00639	ff 15 00 00 00
	00		 call	 DWORD PTR __imp_??1?$CStringT@DV?$StrTraitMFC_DLL@DV?$ChTraitsCRT@D@ATL@@@@@ATL@@QAE@XZ
$LN12@UpdateTime:

; 236  : 	}
; 237  : }

  0063f	8b 4d f4	 mov	 ecx, DWORD PTR __$EHRec$[ebp]
  00642	64 89 0d 00 00
	00 00		 mov	 DWORD PTR fs:0, ecx
  00649	59		 pop	 ecx
  0064a	5f		 pop	 edi
  0064b	5e		 pop	 esi
  0064c	5b		 pop	 ebx
  0064d	8b 4d f0	 mov	 ecx, DWORD PTR __$ArrayPad$[ebp]
  00650	33 cd		 xor	 ecx, ebp
  00652	e8 00 00 00 00	 call	 @__security_check_cookie@4
  00657	8b e5		 mov	 esp, ebp
  00659	5d		 pop	 ebp
  0065a	c2 08 00	 ret	 8
_TEXT	ENDS
;	COMDAT text$x
text$x	SEGMENT
__unwindfunclet$?UpdateTime@CRealTimeTransducerDlg@@QAEXPAUIPacketManager000000@@PAUIRealReceiver@@@Z$0:
  00000	8d 8d 74 ff ff
	ff		 lea	 ecx, DWORD PTR $T12[ebp]
  00006	ff 25 00 00 00
	00		 jmp	 DWORD PTR __imp_??1?$CStringT@DV?$StrTraitMFC_DLL@DV?$ChTraitsCRT@D@ATL@@@@@ATL@@QAE@XZ
__unwindfunclet$?UpdateTime@CRealTimeTransducerDlg@@QAEXPAUIPacketManager000000@@PAUIRealReceiver@@@Z$1:
  0000c	8d 8d 74 ff ff
	ff		 lea	 ecx, DWORD PTR $T11[ebp]
  00012	ff 25 00 00 00
	00		 jmp	 DWORD PTR __imp_??1?$CStringT@DV?$StrTraitMFC_DLL@DV?$ChTraitsCRT@D@ATL@@@@@ATL@@QAE@XZ
__unwindfunclet$?UpdateTime@CRealTimeTransducerDlg@@QAEXPAUIPacketManager000000@@PAUIRealReceiver@@@Z$2:
  00018	8d 8d 74 ff ff
	ff		 lea	 ecx, DWORD PTR $T10[ebp]
  0001e	ff 25 00 00 00
	00		 jmp	 DWORD PTR __imp_??1?$CStringT@DV?$StrTraitMFC_DLL@DV?$ChTraitsCRT@D@ATL@@@@@ATL@@QAE@XZ
__unwindfunclet$?UpdateTime@CRealTimeTransducerDlg@@QAEXPAUIPacketManager000000@@PAUIRealReceiver@@@Z$3:
  00024	8d 8d 64 ff ff
	ff		 lea	 ecx, DWORD PTR _strAccelerator$6[ebp]
  0002a	ff 25 00 00 00
	00		 jmp	 DWORD PTR __imp_??1?$CStringT@DV?$StrTraitMFC_DLL@DV?$ChTraitsCRT@D@ATL@@@@@ATL@@QAE@XZ
__unwindfunclet$?UpdateTime@CRealTimeTransducerDlg@@QAEXPAUIPacketManager000000@@PAUIRealReceiver@@@Z$4:
  00030	8d 8d 70 ff ff
	ff		 lea	 ecx, DWORD PTR _strPacketName$9[ebp]
  00036	ff 25 00 00 00
	00		 jmp	 DWORD PTR __imp_??1?$CStringT@DV?$StrTraitMFC_DLL@DV?$ChTraitsCRT@D@ATL@@@@@ATL@@QAE@XZ
__unwindfunclet$?UpdateTime@CRealTimeTransducerDlg@@QAEXPAUIPacketManager000000@@PAUIRealReceiver@@@Z$5:
  0003c	8d 8d 78 ff ff
	ff		 lea	 ecx, DWORD PTR _strValue$13[ebp]
  00042	ff 25 00 00 00
	00		 jmp	 DWORD PTR __imp_??1?$CStringT@DV?$StrTraitMFC_DLL@DV?$ChTraitsCRT@D@ATL@@@@@ATL@@QAE@XZ
__unwindfunclet$?UpdateTime@CRealTimeTransducerDlg@@QAEXPAUIPacketManager000000@@PAUIRealReceiver@@@Z$6:
  00048	8d 8d 68 ff ff
	ff		 lea	 ecx, DWORD PTR _strCheck$7[ebp]
  0004e	ff 25 00 00 00
	00		 jmp	 DWORD PTR __imp_??1?$CStringT@DV?$StrTraitMFC_DLL@DV?$ChTraitsCRT@D@ATL@@@@@ATL@@QAE@XZ
__unwindfunclet$?UpdateTime@CRealTimeTransducerDlg@@QAEXPAUIPacketManager000000@@PAUIRealReceiver@@@Z$7:
  00054	8d 8d 6c ff ff
	ff		 lea	 ecx, DWORD PTR _strRDC$8[ebp]
  0005a	ff 25 00 00 00
	00		 jmp	 DWORD PTR __imp_??1?$CStringT@DV?$StrTraitMFC_DLL@DV?$ChTraitsCRT@D@ATL@@@@@ATL@@QAE@XZ
__unwindfunclet$?UpdateTime@CRealTimeTransducerDlg@@QAEXPAUIPacketManager000000@@PAUIRealReceiver@@@Z$8:
  00060	8d 8d 5c ff ff
	ff		 lea	 ecx, DWORD PTR _szPacketNames$5[ebp]
  00066	e9 00 00 00 00	 jmp	 ??1ILPCSTR000000@@QAE@XZ ; ILPCSTR000000::~ILPCSTR000000
__unwindfunclet$?UpdateTime@CRealTimeTransducerDlg@@QAEXPAUIPacketManager000000@@PAUIRealReceiver@@@Z$9:
  0006b	8d 8d 7c ff ff
	ff		 lea	 ecx, DWORD PTR _strPacketNames$14[ebp]
  00071	ff 25 00 00 00
	00		 jmp	 DWORD PTR __imp_??1?$CStringT@DV?$StrTraitMFC_DLL@DV?$ChTraitsCRT@D@ATL@@@@@ATL@@QAE@XZ
__unwindfunclet$?UpdateTime@CRealTimeTransducerDlg@@QAEXPAUIPacketManager000000@@PAUIRealReceiver@@@Z$10:
  00077	8d 8d 58 ff ff
	ff		 lea	 ecx, DWORD PTR $T4[ebp]
  0007d	ff 25 00 00 00
	00		 jmp	 DWORD PTR __imp_??1?$CStringT@DV?$StrTraitMFC_DLL@DV?$ChTraitsCRT@D@ATL@@@@@ATL@@QAE@XZ
__unwindfunclet$?UpdateTime@CRealTimeTransducerDlg@@QAEXPAUIPacketManager000000@@PAUIRealReceiver@@@Z$11:
  00083	8d 8d 54 ff ff
	ff		 lea	 ecx, DWORD PTR $T3[ebp]
  00089	ff 25 00 00 00
	00		 jmp	 DWORD PTR __imp_??1?$CStringT@DV?$StrTraitMFC_DLL@DV?$ChTraitsCRT@D@ATL@@@@@ATL@@QAE@XZ
  0008f	cc		 int	 3
  00090	cc		 int	 3
  00091	cc		 int	 3
  00092	cc		 int	 3
  00093	cc		 int	 3
__ehhandler$?UpdateTime@CRealTimeTransducerDlg@@QAEXPAUIPacketManager000000@@PAUIRealReceiver@@@Z:
  00094	90		 npad	 1
  00095	90		 npad	 1
  00096	8b 54 24 08	 mov	 edx, DWORD PTR [esp+8]
  0009a	8d 42 0c	 lea	 eax, DWORD PTR [edx+12]
  0009d	8b 8a 48 ff ff
	ff		 mov	 ecx, DWORD PTR [edx-184]
  000a3	33 c8		 xor	 ecx, eax
  000a5	e8 00 00 00 00	 call	 @__security_check_cookie@4
  000aa	8b 4a fc	 mov	 ecx, DWORD PTR [edx-4]
  000ad	33 c8		 xor	 ecx, eax
  000af	e8 00 00 00 00	 call	 @__security_check_cookie@4
  000b4	b8 00 00 00 00	 mov	 eax, OFFSET __ehfuncinfo$?UpdateTime@CRealTimeTransducerDlg@@QAEXPAUIPacketManager000000@@PAUIRealReceiver@@@Z
  000b9	e9 00 00 00 00	 jmp	 ___CxxFrameHandler3
text$x	ENDS
?UpdateTime@CRealTimeTransducerDlg@@QAEXPAUIPacketManager000000@@PAUIRealReceiver@@@Z ENDP ; CRealTimeTransducerDlg::UpdateTime
; Function compile flags: /Ogtp
; File D:\git\src\IBK\IBK_DRFN\ProjSrc\SrcChartEx\ChartOCX\AddInManager\ChartCommonAddIn\RealTimeTransducerDlg.cpp
; File C:\Program Files (x86)\Microsoft Visual Studio\2019\Community\VC\Tools\MSVC\14.29.30133\atlmfc\include\afxwin2.inl
; File D:\git\src\IBK\IBK_DRFN\ProjSrc\SrcChartEx\ChartOCX\AddInManager\ChartCommonAddIn\RealTimeTransducerDlg.cpp
; File C:\Program Files (x86)\Microsoft Visual Studio\2019\Community\VC\Tools\MSVC\14.29.30133\atlmfc\include\afxcmn.inl
; File D:\git\src\IBK\IBK_DRFN\ProjSrc\SrcChartEx\ChartOCX\AddInManager\ChartCommonAddIn\RealTimeTransducerDlg.cpp
; File C:\Program Files (x86)\Microsoft Visual Studio\2019\Community\VC\Tools\MSVC\14.29.30133\atlmfc\include\afxcmn.inl
; File D:\git\src\IBK\IBK_DRFN\ProjSrc\SrcChartEx\ChartOCX\AddInManager\ChartCommonAddIn\RealTimeTransducerDlg.cpp
; File C:\Program Files (x86)\Microsoft Visual Studio\2019\Community\VC\Tools\MSVC\14.29.30133\atlmfc\include\atlsimpstr.h
; File D:\git\src\IBK\IBK_DRFN\ProjSrc\SrcChartEx\ChartOCX\AddInManager\ChartCommonAddIn\RealTimeTransducerDlg.cpp
; File C:\Program Files (x86)\Microsoft Visual Studio\2019\Community\VC\Tools\MSVC\14.29.30133\atlmfc\include\cstringt.h
; File D:\git\src\IBK\IBK_DRFN\ProjSrc\SrcChartEx\ChartOCX\AddInManager\ChartCommonAddIn\RealTimeTransducerDlg.cpp
; File D:\git\src\IBK\IBK_DRFN\ProjSrc\SrcChartEx\ChartOCX\Include_Chart\TimeTypeConvert.h
; File D:\git\src\IBK\IBK_DRFN\ProjSrc\SrcChartEx\ChartOCX\AddInManager\ChartCommonAddIn\RealTimeTransducerDlg.cpp
; File C:\Program Files (x86)\Microsoft Visual Studio\2019\Community\VC\Tools\MSVC\14.29.30133\atlmfc\include\cstringt.h
; File D:\git\src\IBK\IBK_DRFN\ProjSrc\SrcChartEx\ChartOCX\AddInManager\ChartCommonAddIn\RealTimeTransducerDlg.cpp
; File C:\Program Files (x86)\Microsoft Visual Studio\2019\Community\VC\Tools\MSVC\14.29.30133\atlmfc\include\cstringt.h
; File D:\git\src\IBK\IBK_DRFN\ProjSrc\SrcChartEx\ChartOCX\AddInManager\ChartCommonAddIn\RealTimeTransducerDlg.cpp
; File C:\Program Files (x86)\Microsoft Visual Studio\2019\Community\VC\Tools\MSVC\14.29.30133\atlmfc\include\afxcmn.inl
; File D:\git\src\IBK\IBK_DRFN\ProjSrc\SrcChartEx\ChartOCX\AddInManager\ChartCommonAddIn\RealTimeTransducerDlg.cpp
; File C:\Program Files (x86)\Microsoft Visual Studio\2019\Community\VC\Tools\MSVC\14.29.30133\atlmfc\include\afxcmn.inl
; File D:\git\src\IBK\IBK_DRFN\ProjSrc\SrcChartEx\ChartOCX\AddInManager\ChartCommonAddIn\RealTimeTransducerDlg.cpp
;	COMDAT ?FireFakeReal@CRealTimeTransducerDlg@@IAEXH@Z
_TEXT	SEGMENT
_dRDC$1$ = -92						; size = 8
_dRDC$ = -92						; size = 8
_dValue$2 = -84						; size = 8
_dValue$3 = -76						; size = 8
_dDelta$ = -68						; size = 8
_strPacketType$ = -60					; size = 4
$T4 = -56						; size = 4
$T5 = -52						; size = 4
$T6 = -48						; size = 4
$T7 = -44						; size = 4
$T8 = -40						; size = 4
_dValue$4$ = -36					; size = 8
_dValue$3$ = -36					; size = 8
_dValue$ = -36						; size = 8
$T9 = -32						; size = 4
_m_hOcxWnd$1$ = -28					; size = 4
_strValue$10 = -24					; size = 4
_strUseReal$ = -20					; size = 4
_strPacketName$ = -16					; size = 4
__$EHRec$ = -12						; size = 12
_p_bWithFixedTime$ = 8					; size = 4
?FireFakeReal@CRealTimeTransducerDlg@@IAEXH@Z PROC	; CRealTimeTransducerDlg::FireFakeReal, COMDAT
; _this$ = ecx

; 386  : {

  00000	55		 push	 ebp
  00001	8b ec		 mov	 ebp, esp
  00003	6a ff		 push	 -1
  00005	68 00 00 00 00	 push	 __ehhandler$?FireFakeReal@CRealTimeTransducerDlg@@IAEXH@Z
  0000a	64 a1 00 00 00
	00		 mov	 eax, DWORD PTR fs:0
  00010	50		 push	 eax
  00011	83 ec 50	 sub	 esp, 80			; 00000050H
  00014	53		 push	 ebx
  00015	56		 push	 esi
  00016	57		 push	 edi
  00017	a1 00 00 00 00	 mov	 eax, DWORD PTR ___security_cookie
  0001c	33 c5		 xor	 eax, ebp
  0001e	50		 push	 eax
  0001f	8d 45 f4	 lea	 eax, DWORD PTR __$EHRec$[ebp]
  00022	64 a3 00 00 00
	00		 mov	 DWORD PTR fs:0, eax
  00028	8b f1		 mov	 esi, ecx

; 387  : 	if( !m_pIRealReceiver) return;

  0002a	83 be 58 07 00
	00 00		 cmp	 DWORD PTR [esi+1880], 0
  00031	0f 84 6d 04 00
	00		 je	 $LN1@FireFakeRe
; File C:\Program Files (x86)\Microsoft Visual Studio\2019\Community\VC\Tools\MSVC\14.29.30133\atlmfc\include\afxwin2.inl

; 213  : 	{ ASSERT(::IsWindow(m_hWnd)); return CWnd::FromHandle(::GetParent(m_hWnd)); }

  00037	ff 76 20	 push	 DWORD PTR [esi+32]
  0003a	ff 15 00 00 00
	00		 call	 DWORD PTR __imp__GetParent@4
  00040	50		 push	 eax
  00041	e8 00 00 00 00	 call	 ?FromHandle@CWnd@@SGPAV1@PAUHWND__@@@Z ; CWnd::FromHandle

; 25   : 	{ return this == NULL ? NULL : m_hWnd; }

  00046	85 c0		 test	 eax, eax
  00048	75 05		 jne	 SHORT $LN32@FireFakeRe
  0004a	89 45 e4	 mov	 DWORD PTR _m_hOcxWnd$1$[ebp], eax
  0004d	eb 06		 jmp	 SHORT $LN33@FireFakeRe
$LN32@FireFakeRe:
  0004f	8b 40 20	 mov	 eax, DWORD PTR [eax+32]
  00052	89 45 e4	 mov	 DWORD PTR _m_hOcxWnd$1$[ebp], eax
$LN33@FireFakeRe:
; File D:\git\src\IBK\IBK_DRFN\ProjSrc\SrcChartEx\ChartOCX\AddInManager\ChartCommonAddIn\RealTimeTransducerDlg.cpp

; 390  : 	CString strUseReal, strPacketName, strPacketType;

  00055	8d 4d ec	 lea	 ecx, DWORD PTR _strUseReal$[ebp]
  00058	ff 15 00 00 00
	00		 call	 DWORD PTR __imp_??0?$CStringT@DV?$StrTraitMFC_DLL@DV?$ChTraitsCRT@D@ATL@@@@@ATL@@QAE@XZ
  0005e	8d 4d f0	 lea	 ecx, DWORD PTR _strPacketName$[ebp]
  00061	c7 45 fc 00 00
	00 00		 mov	 DWORD PTR __$EHRec$[ebp+8], 0
  00068	ff 15 00 00 00
	00		 call	 DWORD PTR __imp_??0?$CStringT@DV?$StrTraitMFC_DLL@DV?$ChTraitsCRT@D@ATL@@@@@ATL@@QAE@XZ
  0006e	8d 4d c4	 lea	 ecx, DWORD PTR _strPacketType$[ebp]
  00071	ff 15 00 00 00
	00		 call	 DWORD PTR __imp_??0?$CStringT@DV?$StrTraitMFC_DLL@DV?$ChTraitsCRT@D@ATL@@@@@ATL@@QAE@XZ

; 392  : 	for( int i = 0; i < m_lcRealState.GetItemCount(); i++)

  00077	33 db		 xor	 ebx, ebx
  00079	c6 45 fc 02	 mov	 BYTE PTR __$EHRec$[ebp+8], 2
; File C:\Program Files (x86)\Microsoft Visual Studio\2019\Community\VC\Tools\MSVC\14.29.30133\atlmfc\include\afxcmn.inl

; 155  : 	{ ASSERT(::IsWindow(m_hWnd)); return (int) ::SendMessage(m_hWnd, LVM_GETITEMCOUNT, 0, 0L); }

  0007d	53		 push	 ebx
  0007e	53		 push	 ebx
  0007f	68 04 10 00 00	 push	 4100			; 00001004H
  00084	ff b6 48 05 00
	00		 push	 DWORD PTR [esi+1352]
  0008a	0f 57 c0	 xorps	 xmm0, xmm0
; File D:\git\src\IBK\IBK_DRFN\ProjSrc\SrcChartEx\ChartOCX\AddInManager\ChartCommonAddIn\RealTimeTransducerDlg.cpp

; 391  : 	double dValue = 0, dDelta = 0, dRDC = 1;

  0008d	f2 0f 11 45 dc	 movsd	 QWORD PTR _dValue$4$[ebp], xmm0
; File C:\Program Files (x86)\Microsoft Visual Studio\2019\Community\VC\Tools\MSVC\14.29.30133\atlmfc\include\afxcmn.inl

; 155  : 	{ ASSERT(::IsWindow(m_hWnd)); return (int) ::SendMessage(m_hWnd, LVM_GETITEMCOUNT, 0, 0L); }

  00092	ff 15 00 00 00
	00		 call	 DWORD PTR __imp__SendMessageA@16
; File D:\git\src\IBK\IBK_DRFN\ProjSrc\SrcChartEx\ChartOCX\AddInManager\ChartCommonAddIn\RealTimeTransducerDlg.cpp

; 392  : 	for( int i = 0; i < m_lcRealState.GetItemCount(); i++)

  00098	85 c0		 test	 eax, eax
  0009a	0f 8e d7 03 00
	00		 jle	 $LN3@FireFakeRe
  000a0	8d be 28 05 00
	00		 lea	 edi, DWORD PTR [esi+1320]
$LL4@FireFakeRe:

; 393  : 	{
; 394  : 		strUseReal = m_lcRealState.GetItemText( i, 2);

  000a6	6a 02		 push	 2
  000a8	53		 push	 ebx
  000a9	8d 45 d8	 lea	 eax, DWORD PTR $T8[ebp]
  000ac	8b cf		 mov	 ecx, edi
  000ae	50		 push	 eax
  000af	e8 00 00 00 00	 call	 ?GetItemText@CListCtrl@@QBE?AV?$CStringT@DV?$StrTraitMFC_DLL@DV?$ChTraitsCRT@D@ATL@@@@@ATL@@HH@Z ; CListCtrl::GetItemText
  000b4	50		 push	 eax
  000b5	8d 4d ec	 lea	 ecx, DWORD PTR _strUseReal$[ebp]
  000b8	c6 45 fc 03	 mov	 BYTE PTR __$EHRec$[ebp+8], 3
  000bc	ff 15 00 00 00
	00		 call	 DWORD PTR __imp_??4?$CStringT@DV?$StrTraitMFC_DLL@DV?$ChTraitsCRT@D@ATL@@@@@ATL@@QAEAAV01@ABV01@@Z
  000c2	8d 4d d8	 lea	 ecx, DWORD PTR $T8[ebp]
  000c5	c6 45 fc 02	 mov	 BYTE PTR __$EHRec$[ebp+8], 2
  000c9	ff 15 00 00 00
	00		 call	 DWORD PTR __imp_??1?$CStringT@DV?$StrTraitMFC_DLL@DV?$ChTraitsCRT@D@ATL@@@@@ATL@@QAE@XZ

; 395  : 		strUseReal.TrimLeft();

  000cf	8d 4d ec	 lea	 ecx, DWORD PTR _strUseReal$[ebp]
  000d2	ff 15 00 00 00
	00		 call	 DWORD PTR __imp_?TrimLeft@?$CStringT@DV?$StrTraitMFC_DLL@DV?$ChTraitsCRT@D@ATL@@@@@ATL@@QAEAAV12@XZ
; File C:\Program Files (x86)\Microsoft Visual Studio\2019\Community\VC\Tools\MSVC\14.29.30133\atlmfc\include\atlsimpstr.h

; 519  : 		return( GetData()->nDataLength );

  000d8	8b 45 ec	 mov	 eax, DWORD PTR _strUseReal$[ebp]

; 533  : 		return( GetLength() == 0 );

  000db	83 78 f4 00	 cmp	 DWORD PTR [eax-12], 0
; File D:\git\src\IBK\IBK_DRFN\ProjSrc\SrcChartEx\ChartOCX\AddInManager\ChartCommonAddIn\RealTimeTransducerDlg.cpp

; 396  : 		if( strUseReal.IsEmpty()) continue;

  000df	0f 84 74 03 00
	00		 je	 $LN2@FireFakeRe

; 397  : 
; 398  : 		strPacketName = _LTOM0( m_lcRealState.GetItemText( i, 0));

  000e5	6a 00		 push	 0
  000e7	53		 push	 ebx
  000e8	8d 45 d4	 lea	 eax, DWORD PTR $T7[ebp]
  000eb	8b cf		 mov	 ecx, edi
  000ed	50		 push	 eax
  000ee	e8 00 00 00 00	 call	 ?GetItemText@CListCtrl@@QBE?AV?$CStringT@DV?$StrTraitMFC_DLL@DV?$ChTraitsCRT@D@ATL@@@@@ATL@@HH@Z ; CListCtrl::GetItemText
  000f3	6a 00		 push	 0
  000f5	ff 30		 push	 DWORD PTR [eax]
  000f7	b9 00 00 00 00	 mov	 ecx, OFFSET ?g_iMetaTable@@3VIMetaTable@@A ; g_iMetaTable
  000fc	c6 45 fc 04	 mov	 BYTE PTR __$EHRec$[ebp+8], 4
  00100	6a 00		 push	 0
  00102	ff 75 e4	 push	 DWORD PTR _m_hOcxWnd$1$[ebp]
  00105	e8 00 00 00 00	 call	 ?GetMetaText@IMetaTable@@QAEPBDPAUHWND__@@W4E_CODEPAGE@1@PBDH@Z ; IMetaTable::GetMetaText
  0010a	50		 push	 eax
  0010b	8d 4d f0	 lea	 ecx, DWORD PTR _strPacketName$[ebp]
  0010e	ff 15 00 00 00
	00		 call	 DWORD PTR __imp_??4?$CStringT@DV?$StrTraitMFC_DLL@DV?$ChTraitsCRT@D@ATL@@@@@ATL@@QAEAAV01@PBD@Z
  00114	8d 4d d4	 lea	 ecx, DWORD PTR $T7[ebp]
  00117	c6 45 fc 02	 mov	 BYTE PTR __$EHRec$[ebp+8], 2
  0011b	ff 15 00 00 00
	00		 call	 DWORD PTR __imp_??1?$CStringT@DV?$StrTraitMFC_DLL@DV?$ChTraitsCRT@D@ATL@@@@@ATL@@QAE@XZ

; 399  : 		dDelta = atof( m_lcRealState.GetItemText( i, 3));

  00121	6a 03		 push	 3
  00123	53		 push	 ebx
  00124	8d 45 d0	 lea	 eax, DWORD PTR $T6[ebp]
  00127	8b cf		 mov	 ecx, edi
  00129	50		 push	 eax
  0012a	e8 00 00 00 00	 call	 ?GetItemText@CListCtrl@@QBE?AV?$CStringT@DV?$StrTraitMFC_DLL@DV?$ChTraitsCRT@D@ATL@@@@@ATL@@HH@Z ; CListCtrl::GetItemText
  0012f	ff 30		 push	 DWORD PTR [eax]
  00131	ff 15 00 00 00
	00		 call	 DWORD PTR __imp__atof
  00137	83 c4 04	 add	 esp, 4
  0013a	8d 4d d0	 lea	 ecx, DWORD PTR $T6[ebp]
  0013d	dd d8		 fstp	 ST(0)
  0013f	ff 15 00 00 00
	00		 call	 DWORD PTR __imp_??1?$CStringT@DV?$StrTraitMFC_DLL@DV?$ChTraitsCRT@D@ATL@@@@@ATL@@QAE@XZ

; 400  : 		dDelta = atof( m_lcRealState.GetItemText( i, 3));

  00145	6a 03		 push	 3
  00147	53		 push	 ebx
  00148	8d 45 cc	 lea	 eax, DWORD PTR $T5[ebp]
  0014b	8b cf		 mov	 ecx, edi
  0014d	50		 push	 eax
  0014e	e8 00 00 00 00	 call	 ?GetItemText@CListCtrl@@QBE?AV?$CStringT@DV?$StrTraitMFC_DLL@DV?$ChTraitsCRT@D@ATL@@@@@ATL@@HH@Z ; CListCtrl::GetItemText
  00153	ff 30		 push	 DWORD PTR [eax]
  00155	ff 15 00 00 00
	00		 call	 DWORD PTR __imp__atof
  0015b	83 c4 04	 add	 esp, 4
  0015e	8d 4d cc	 lea	 ecx, DWORD PTR $T5[ebp]
  00161	dd 5d bc	 fstp	 QWORD PTR _dDelta$[ebp]
  00164	ff 15 00 00 00
	00		 call	 DWORD PTR __imp_??1?$CStringT@DV?$StrTraitMFC_DLL@DV?$ChTraitsCRT@D@ATL@@@@@ATL@@QAE@XZ

; 401  : 		dRDC = atof( m_lcRealState.GetItemText( i, 4));

  0016a	6a 04		 push	 4
  0016c	53		 push	 ebx
  0016d	8d 45 c8	 lea	 eax, DWORD PTR $T4[ebp]
  00170	8b cf		 mov	 ecx, edi
  00172	50		 push	 eax
  00173	e8 00 00 00 00	 call	 ?GetItemText@CListCtrl@@QBE?AV?$CStringT@DV?$StrTraitMFC_DLL@DV?$ChTraitsCRT@D@ATL@@@@@ATL@@HH@Z ; CListCtrl::GetItemText
  00178	ff 30		 push	 DWORD PTR [eax]
  0017a	ff 15 00 00 00
	00		 call	 DWORD PTR __imp__atof
  00180	83 c4 04	 add	 esp, 4
  00183	8d 4d c8	 lea	 ecx, DWORD PTR $T4[ebp]
  00186	dd 5d a4	 fstp	 QWORD PTR _dRDC$[ebp]
  00189	ff 15 00 00 00
	00		 call	 DWORD PTR __imp_??1?$CStringT@DV?$StrTraitMFC_DLL@DV?$ChTraitsCRT@D@ATL@@@@@ATL@@QAE@XZ

; 402  : 		if( 0 == dRDC) dRDC = 1;

  0018f	f2 0f 10 4d a4	 movsd	 xmm1, QWORD PTR _dRDC$[ebp]
  00194	0f 57 c0	 xorps	 xmm0, xmm0
  00197	66 0f 2e c1	 ucomisd xmm0, xmm1
  0019b	f2 0f 11 4d a4	 movsd	 QWORD PTR _dRDC$1$[ebp], xmm1
  001a0	9f		 lahf
  001a1	f6 c4 44	 test	 ah, 68			; 00000044H
  001a4	7a 0d		 jp	 SHORT $LN7@FireFakeRe
  001a6	f2 0f 10 05 00
	00 00 00	 movsd	 xmm0, QWORD PTR __real@3ff0000000000000
  001ae	f2 0f 11 45 a4	 movsd	 QWORD PTR _dRDC$1$[ebp], xmm0
$LN7@FireFakeRe:

; 404  : 		if( _MTEXT( C0_DATE_TIME) == strPacketName)

  001b3	a1 54 00 00 00	 mov	 eax, DWORD PTR ?g_iMetaTable@@3VIMetaTable@@A+84
; File C:\Program Files (x86)\Microsoft Visual Studio\2019\Community\VC\Tools\MSVC\14.29.30133\atlmfc\include\cstringt.h

; 2493 : 		return(str2.Compare(psz1) == 0);

  001b8	8d 4d f0	 lea	 ecx, DWORD PTR _strPacketName$[ebp]
  001bb	ff 30		 push	 DWORD PTR [eax]
  001bd	ff 15 00 00 00
	00		 call	 DWORD PTR __imp_?Compare@?$CStringT@DV?$StrTraitMFC_DLL@DV?$ChTraitsCRT@D@ATL@@@@@ATL@@QBEHPBD@Z
  001c3	85 c0		 test	 eax, eax
; File D:\git\src\IBK\IBK_DRFN\ProjSrc\SrcChartEx\ChartOCX\AddInManager\ChartCommonAddIn\RealTimeTransducerDlg.cpp

; 404  : 		if( _MTEXT( C0_DATE_TIME) == strPacketName)

  001c5	0f 85 5b 01 00
	00		 jne	 $LN8@FireFakeRe

; 405  : 		{
; 406  : 			if( p_bWithFixedTime)

  001cb	39 45 08	 cmp	 DWORD PTR _p_bWithFixedTime$[ebp], eax
  001ce	74 42		 je	 SHORT $LN10@FireFakeRe

; 407  : 			{
; 408  : 				CString strValue;

  001d0	8d 4d e8	 lea	 ecx, DWORD PTR _strValue$10[ebp]
  001d3	ff 15 00 00 00
	00		 call	 DWORD PTR __imp_??0?$CStringT@DV?$StrTraitMFC_DLL@DV?$ChTraitsCRT@D@ATL@@@@@ATL@@QAE@XZ

; 409  : 				m_edtFixedRealTime.GetWindowText( strValue);

  001d9	8d 45 e8	 lea	 eax, DWORD PTR _strValue$10[ebp]
  001dc	c6 45 fc 05	 mov	 BYTE PTR __$EHRec$[ebp+8], 5
  001e0	50		 push	 eax
  001e1	8d 8e a8 04 00
	00		 lea	 ecx, DWORD PTR [esi+1192]
  001e7	e8 00 00 00 00	 call	 ?GetWindowTextA@CWnd@@QBEXAAV?$CStringT@DV?$StrTraitMFC_DLL@DV?$ChTraitsCRT@D@ATL@@@@@ATL@@@Z ; CWnd::GetWindowTextA

; 410  : 				dValue = atof( strValue);

  001ec	ff 75 e8	 push	 DWORD PTR _strValue$10[ebp]
  001ef	ff 15 00 00 00
	00		 call	 DWORD PTR __imp__atof
  001f5	83 c4 04	 add	 esp, 4

; 411  : 			}

  001f8	c6 45 fc 02	 mov	 BYTE PTR __$EHRec$[ebp+8], 2
  001fc	8d 4d e8	 lea	 ecx, DWORD PTR _strValue$10[ebp]
  001ff	dd 5d dc	 fstp	 QWORD PTR _dValue$[ebp]
  00202	ff 15 00 00 00
	00		 call	 DWORD PTR __imp_??1?$CStringT@DV?$StrTraitMFC_DLL@DV?$ChTraitsCRT@D@ATL@@@@@ATL@@QAE@XZ
  00208	f2 0f 10 55 dc	 movsd	 xmm2, QWORD PTR _dValue$[ebp]
  0020d	e9 1f 02 00 00	 jmp	 $LN83@FireFakeRe
$LN10@FireFakeRe:

; 412  : 			else
; 413  : 			{
; 414  : 				if( g_iMetaTable.IsSpecialTime( int( m_nRealTime % 1000000)))

  00212	8b 86 40 07 00
	00		 mov	 eax, DWORD PTR [esi+1856]
  00218	6a 00		 push	 0
  0021a	68 40 42 0f 00	 push	 1000000			; 000f4240H
  0021f	ff 70 04	 push	 DWORD PTR [eax+4]
  00222	ff 30		 push	 DWORD PTR [eax]
  00224	e8 00 00 00 00	 call	 __allrem
  00229	50		 push	 eax
  0022a	b9 00 00 00 00	 mov	 ecx, OFFSET ?g_iMetaTable@@3VIMetaTable@@A ; g_iMetaTable
  0022f	e8 00 00 00 00	 call	 ?IsSpecialTime@IMetaTable@@QAEHH@Z ; IMetaTable::IsSpecialTime
  00234	85 c0		 test	 eax, eax
  00236	74 6d		 je	 SHORT $LN12@FireFakeRe

; 351  : 	if( !m_pIPacketManager) return 0.0;

  00238	8b 8e 4c 07 00
	00		 mov	 ecx, DWORD PTR [esi+1868]
  0023e	85 c9		 test	 ecx, ecx
  00240	75 05		 jne	 SHORT $LN57@FireFakeRe
  00242	0f 57 c0	 xorps	 xmm0, xmm0
  00245	eb 3f		 jmp	 SHORT $LN56@FireFakeRe
$LN57@FireFakeRe:

; 352  : 
; 353  : 	IPacket *pIPacket = m_pIPacketManager->GetPacket( p_szPacketName);

  00247	8b 01		 mov	 eax, DWORD PTR [ecx]
  00249	ff 75 f0	 push	 DWORD PTR _strPacketName$[ebp]
  0024c	ff 50 10	 call	 DWORD PTR [eax+16]
  0024f	8b f8		 mov	 edi, eax

; 354  : 	if( !pIPacket) return 0.0;

  00251	85 ff		 test	 edi, edi
  00253	75 05		 jne	 SHORT $LN58@FireFakeRe
  00255	0f 57 c0	 xorps	 xmm0, xmm0
  00258	eb 2c		 jmp	 SHORT $LN56@FireFakeRe
$LN58@FireFakeRe:

; 355  : 
; 356  : 	int nDataCount = pIPacket->GetDataCount();

  0025a	8b 07		 mov	 eax, DWORD PTR [edi]
  0025c	8b cf		 mov	 ecx, edi
  0025e	ff 50 2c	 call	 DWORD PTR [eax+44]

; 357  : 	if( p_bPrev) nDataCount--;

  00261	48		 dec	 eax
  00262	0f 57 c0	 xorps	 xmm0, xmm0

; 358  : 	double dValue = 0;

  00265	f2 0f 11 45 b4	 movsd	 QWORD PTR _dValue$3[ebp], xmm0

; 359  : 	if( 0 < nDataCount) pIPacket->GetData( nDataCount - 1, dValue);

  0026a	85 c0		 test	 eax, eax
  0026c	7e 0d		 jle	 SHORT $LN60@FireFakeRe
  0026e	8b 17		 mov	 edx, DWORD PTR [edi]
  00270	8d 4d b4	 lea	 ecx, DWORD PTR _dValue$3[ebp]
  00273	51		 push	 ecx
  00274	48		 dec	 eax
  00275	8b cf		 mov	 ecx, edi
  00277	50		 push	 eax
  00278	ff 52 40	 call	 DWORD PTR [edx+64]
$LN60@FireFakeRe:

; 360  : 	pIPacket->Release();

  0027b	8b 07		 mov	 eax, DWORD PTR [edi]
  0027d	57		 push	 edi
  0027e	ff 50 08	 call	 DWORD PTR [eax+8]

; 361  : 	return dValue;

  00281	f2 0f 10 45 b4	 movsd	 xmm0, QWORD PTR _dValue$3[ebp]
$LN56@FireFakeRe:

; 417  : 					dValue = ( double)m_tcTR.GetFullTypeTime( ( __int64)dValue);

  00286	e8 00 00 00 00	 call	 __dtol3
; File D:\git\src\IBK\IBK_DRFN\ProjSrc\SrcChartEx\ChartOCX\Include_Chart\TimeTypeConvert.h

; 48   : 						return p_nTime *= m_nMinimumUnitTime;	

  0028b	52		 push	 edx
  0028c	50		 push	 eax
  0028d	8b 86 50 07 00
	00		 mov	 eax, DWORD PTR [esi+1872]
  00293	ff 70 34	 push	 DWORD PTR [eax+52]
  00296	ff 70 30	 push	 DWORD PTR [eax+48]
  00299	e8 00 00 00 00	 call	 __allmul
; File D:\git\src\IBK\IBK_DRFN\ProjSrc\SrcChartEx\ChartOCX\AddInManager\ChartCommonAddIn\RealTimeTransducerDlg.cpp

; 417  : 					dValue = ( double)m_tcTR.GetFullTypeTime( ( __int64)dValue);

  0029e	8b f8		 mov	 edi, eax
  002a0	89 55 e0	 mov	 DWORD PTR $T9[ebp], edx

; 418  : 				}

  002a3	eb 0e		 jmp	 SHORT $LN13@FireFakeRe
$LN12@FireFakeRe:

; 419  : 				else dValue = double( m_nRealTime);

  002a5	8b 86 40 07 00
	00		 mov	 eax, DWORD PTR [esi+1856]
  002ab	8b 38		 mov	 edi, DWORD PTR [eax]
  002ad	8b 40 04	 mov	 eax, DWORD PTR [eax+4]
  002b0	89 45 e0	 mov	 DWORD PTR $T9[ebp], eax
$LN13@FireFakeRe:

; 420  : 				dValue = ( double)CDataConversion::CalcTimeSum( ( __int64)dValue, __int64( ( dDelta + 1) * rand() / RAND_MAX));

  002b3	6a 00		 push	 0
  002b5	ff 15 00 00 00
	00		 call	 DWORD PTR __imp__rand
  002bb	f2 0f 10 45 bc	 movsd	 xmm0, QWORD PTR _dDelta$[ebp]
  002c0	f2 0f 58 05 00
	00 00 00	 addsd	 xmm0, QWORD PTR __real@3ff0000000000000
  002c8	66 0f 6e c8	 movd	 xmm1, eax
  002cc	f3 0f e6 c9	 cvtdq2pd xmm1, xmm1
  002d0	f2 0f 59 c1	 mulsd	 xmm0, xmm1
  002d4	f2 0f 5e 05 00
	00 00 00	 divsd	 xmm0, QWORD PTR __real@40dfffc000000000
  002dc	e8 00 00 00 00	 call	 __dtol3
  002e1	52		 push	 edx
  002e2	8b 55 e0	 mov	 edx, DWORD PTR $T9[ebp]
  002e5	8b cf		 mov	 ecx, edi
  002e7	50		 push	 eax
  002e8	e8 00 00 00 00	 call	 __ltod3
  002ed	e8 00 00 00 00	 call	 __dtol3
  002f2	52		 push	 edx
  002f3	50		 push	 eax
  002f4	e8 00 00 00 00	 call	 ?CalcTimeSum@CDataConversion@@SA_J_J0H@Z ; CDataConversion::CalcTimeSum
  002f9	83 c4 14	 add	 esp, 20			; 00000014H
  002fc	8b c8		 mov	 ecx, eax
  002fe	e8 00 00 00 00	 call	 __ltod3

; 421  : 				dValue = ( double)m_tcReal.GetPacketTypeTime( ( __int64)dValue);

  00303	6a 00		 push	 0
  00305	e8 00 00 00 00	 call	 __dtol3
  0030a	8b 8e 54 07 00
	00		 mov	 ecx, DWORD PTR [esi+1876]
  00310	52		 push	 edx
  00311	50		 push	 eax
  00312	e8 00 00 00 00	 call	 ?GetPacketTypeTime@CTimeTypeConvert@@QBE_J_JH@Z ; CTimeTypeConvert::GetPacketTypeTime
  00317	8b c8		 mov	 ecx, eax
  00319	e8 00 00 00 00	 call	 __ltod3
  0031e	0f 28 d0	 movaps	 xmm2, xmm0

; 422  : 			}
; 423  : 		}

  00321	e9 0b 01 00 00	 jmp	 $LN83@FireFakeRe
$LN8@FireFakeRe:

; 424  : 		else if( _MTEXT( C0_VOLUME) == strPacketName)

  00326	a1 54 00 00 00	 mov	 eax, DWORD PTR ?g_iMetaTable@@3VIMetaTable@@A+84
; File C:\Program Files (x86)\Microsoft Visual Studio\2019\Community\VC\Tools\MSVC\14.29.30133\atlmfc\include\cstringt.h

; 2493 : 		return(str2.Compare(psz1) == 0);

  0032b	8d 4d f0	 lea	 ecx, DWORD PTR _strPacketName$[ebp]
  0032e	ff 70 1c	 push	 DWORD PTR [eax+28]
  00331	ff 15 00 00 00
	00		 call	 DWORD PTR __imp_?Compare@?$CStringT@DV?$StrTraitMFC_DLL@DV?$ChTraitsCRT@D@ATL@@@@@ATL@@QBEHPBD@Z
; File D:\git\src\IBK\IBK_DRFN\ProjSrc\SrcChartEx\ChartOCX\AddInManager\ChartCommonAddIn\RealTimeTransducerDlg.cpp

; 424  : 		else if( _MTEXT( C0_VOLUME) == strPacketName)

  00337	8b 8e 4c 07 00
	00		 mov	 ecx, DWORD PTR [esi+1868]
; File C:\Program Files (x86)\Microsoft Visual Studio\2019\Community\VC\Tools\MSVC\14.29.30133\atlmfc\include\cstringt.h

; 2493 : 		return(str2.Compare(psz1) == 0);

  0033d	85 c0		 test	 eax, eax
; File D:\git\src\IBK\IBK_DRFN\ProjSrc\SrcChartEx\ChartOCX\AddInManager\ChartCommonAddIn\RealTimeTransducerDlg.cpp

; 424  : 		else if( _MTEXT( C0_VOLUME) == strPacketName)

  0033f	75 6e		 jne	 SHORT $LN14@FireFakeRe

; 425  : 		{
; 426  : 			IPacket *pIPacket = m_pIPacketManager->GetPacket( strPacketName);

  00341	8b 01		 mov	 eax, DWORD PTR [ecx]
  00343	ff 75 f0	 push	 DWORD PTR _strPacketName$[ebp]
  00346	ff 50 10	 call	 DWORD PTR [eax+16]
  00349	8b f8		 mov	 edi, eax

; 427  : 			if( pIPacket)

  0034b	85 ff		 test	 edi, edi
  0034d	74 2b		 je	 SHORT $LN16@FireFakeRe

; 428  : 			{
; 429  : 				if( pIPacket->IsUseStandardValue( 0))

  0034f	8b 17		 mov	 edx, DWORD PTR [edi]
  00351	8b cf		 mov	 ecx, edi
  00353	6a 00		 push	 0
  00355	ff 52 54	 call	 DWORD PTR [edx+84]
  00358	85 c0		 test	 eax, eax
  0035a	74 18		 je	 SHORT $LN17@FireFakeRe

; 430  : 					dValue = pIPacket->GetStandardValue( 0);

  0035c	8b 07		 mov	 eax, DWORD PTR [edi]
  0035e	8b cf		 mov	 ecx, edi
  00360	6a 00		 push	 0
  00362	8b 40 58	 mov	 eax, DWORD PTR [eax+88]
  00365	ff d0		 call	 eax
  00367	dd 5d dc	 fstp	 QWORD PTR _dValue$[ebp]
  0036a	f2 0f 10 45 dc	 movsd	 xmm0, QWORD PTR _dValue$[ebp]
  0036f	f2 0f 11 45 dc	 movsd	 QWORD PTR _dValue$4$[ebp], xmm0
$LN17@FireFakeRe:

; 431  : 				pIPacket->Release();

  00374	8b 07		 mov	 eax, DWORD PTR [edi]
  00376	57		 push	 edi
  00377	ff 50 08	 call	 DWORD PTR [eax+8]
$LN16@FireFakeRe:

; 432  : 			}
; 433  : 			dValue += 1 + dDelta * rand() / RAND_MAX;

  0037a	ff 15 00 00 00
	00		 call	 DWORD PTR __imp__rand
  00380	66 0f 6e c0	 movd	 xmm0, eax
  00384	f3 0f e6 c0	 cvtdq2pd xmm0, xmm0
  00388	f2 0f 59 45 bc	 mulsd	 xmm0, QWORD PTR _dDelta$[ebp]
  0038d	f2 0f 5e 05 00
	00 00 00	 divsd	 xmm0, QWORD PTR __real@40dfffc000000000
  00395	f2 0f 58 05 00
	00 00 00	 addsd	 xmm0, QWORD PTR __real@3ff0000000000000
  0039d	f2 0f 58 45 dc	 addsd	 xmm0, QWORD PTR _dValue$4$[ebp]
  003a2	0f 28 d0	 movaps	 xmm2, xmm0
  003a5	f2 0f 11 45 dc	 movsd	 QWORD PTR _dValue$4$[ebp], xmm0

; 434  : 		}

  003aa	e9 87 00 00 00	 jmp	 $LN15@FireFakeRe
$LN14@FireFakeRe:

; 351  : 	if( !m_pIPacketManager) return 0.0;

  003af	85 c9		 test	 ecx, ecx
  003b1	75 05		 jne	 SHORT $LN71@FireFakeRe
  003b3	0f 57 c0	 xorps	 xmm0, xmm0
  003b6	eb 3e		 jmp	 SHORT $LN84@FireFakeRe
$LN71@FireFakeRe:

; 352  : 
; 353  : 	IPacket *pIPacket = m_pIPacketManager->GetPacket( p_szPacketName);

  003b8	8b 01		 mov	 eax, DWORD PTR [ecx]
  003ba	ff 75 f0	 push	 DWORD PTR _strPacketName$[ebp]
  003bd	ff 50 10	 call	 DWORD PTR [eax+16]
  003c0	8b f8		 mov	 edi, eax

; 354  : 	if( !pIPacket) return 0.0;

  003c2	85 ff		 test	 edi, edi
  003c4	75 05		 jne	 SHORT $LN72@FireFakeRe
  003c6	0f 57 c0	 xorps	 xmm0, xmm0
  003c9	eb 2b		 jmp	 SHORT $LN84@FireFakeRe
$LN72@FireFakeRe:

; 355  : 
; 356  : 	int nDataCount = pIPacket->GetDataCount();

  003cb	8b 07		 mov	 eax, DWORD PTR [edi]
  003cd	8b cf		 mov	 ecx, edi
  003cf	ff 50 2c	 call	 DWORD PTR [eax+44]
  003d2	0f 57 c0	 xorps	 xmm0, xmm0

; 358  : 	double dValue = 0;

  003d5	f2 0f 11 45 ac	 movsd	 QWORD PTR _dValue$2[ebp], xmm0

; 359  : 	if( 0 < nDataCount) pIPacket->GetData( nDataCount - 1, dValue);

  003da	85 c0		 test	 eax, eax
  003dc	7e 0d		 jle	 SHORT $LN74@FireFakeRe
  003de	8b 17		 mov	 edx, DWORD PTR [edi]
  003e0	8d 4d ac	 lea	 ecx, DWORD PTR _dValue$2[ebp]
  003e3	51		 push	 ecx
  003e4	48		 dec	 eax
  003e5	8b cf		 mov	 ecx, edi
  003e7	50		 push	 eax
  003e8	ff 52 40	 call	 DWORD PTR [edx+64]
$LN74@FireFakeRe:

; 360  : 	pIPacket->Release();

  003eb	8b 07		 mov	 eax, DWORD PTR [edi]
  003ed	57		 push	 edi
  003ee	ff 50 08	 call	 DWORD PTR [eax+8]

; 361  : 	return dValue;

  003f1	f2 0f 10 45 ac	 movsd	 xmm0, QWORD PTR _dValue$2[ebp]
$LN84@FireFakeRe:

; 435  : 		else
; 436  : 		{
; 437  : 			dValue = GetLastPacketValue( strPacketName);
; 438  : 			dValue += ( dDelta * 2) * rand() / RAND_MAX - dDelta;

  003f6	f2 0f 11 45 dc	 movsd	 QWORD PTR _dValue$3$[ebp], xmm0
  003fb	ff 15 00 00 00
	00		 call	 DWORD PTR __imp__rand
  00401	f2 0f 10 45 bc	 movsd	 xmm0, QWORD PTR _dDelta$[ebp]
  00406	f2 0f 59 05 00
	00 00 00	 mulsd	 xmm0, QWORD PTR __real@4000000000000000
  0040e	66 0f 6e d0	 movd	 xmm2, eax
  00412	f3 0f e6 d2	 cvtdq2pd xmm2, xmm2
  00416	f2 0f 59 d0	 mulsd	 xmm2, xmm0
  0041a	f2 0f 5e 15 00
	00 00 00	 divsd	 xmm2, QWORD PTR __real@40dfffc000000000
  00422	f2 0f 5c 55 bc	 subsd	 xmm2, QWORD PTR _dDelta$[ebp]
  00427	f2 0f 58 55 dc	 addsd	 xmm2, QWORD PTR _dValue$3$[ebp]

; 439  : 			dValue *= dRDC;

  0042c	f2 0f 59 55 a4	 mulsd	 xmm2, QWORD PTR _dRDC$1$[ebp]
$LN83@FireFakeRe:

; 440  : 		}
; 441  : 
; 442  : 		m_pIRealReceiver->SetRealDataRQ( "DEFAULT", strPacketName, dValue, TRUE);

  00431	f2 0f 11 55 dc	 movsd	 QWORD PTR _dValue$4$[ebp], xmm2
$LN15@FireFakeRe:
  00436	8b 8e 58 07 00
	00		 mov	 ecx, DWORD PTR [esi+1880]
  0043c	6a 01		 push	 1
  0043e	83 ec 08	 sub	 esp, 8
  00441	8b 01		 mov	 eax, DWORD PTR [ecx]
  00443	f2 0f 11 14 24	 movsd	 QWORD PTR [esp], xmm2
  00448	ff 75 f0	 push	 DWORD PTR _strPacketName$[ebp]
  0044b	68 00 00 00 00	 push	 OFFSET ??_C@_07MGCPDNLD@DEFAULT@
  00450	ff 50 48	 call	 DWORD PTR [eax+72]
  00453	8d be 28 05 00
	00		 lea	 edi, DWORD PTR [esi+1320]
$LN2@FireFakeRe:
; File C:\Program Files (x86)\Microsoft Visual Studio\2019\Community\VC\Tools\MSVC\14.29.30133\atlmfc\include\afxcmn.inl

; 155  : 	{ ASSERT(::IsWindow(m_hWnd)); return (int) ::SendMessage(m_hWnd, LVM_GETITEMCOUNT, 0, 0L); }

  00459	6a 00		 push	 0
  0045b	6a 00		 push	 0
  0045d	68 04 10 00 00	 push	 4100			; 00001004H
  00462	ff b6 48 05 00
	00		 push	 DWORD PTR [esi+1352]
; File D:\git\src\IBK\IBK_DRFN\ProjSrc\SrcChartEx\ChartOCX\AddInManager\ChartCommonAddIn\RealTimeTransducerDlg.cpp

; 392  : 	for( int i = 0; i < m_lcRealState.GetItemCount(); i++)

  00468	43		 inc	 ebx
; File C:\Program Files (x86)\Microsoft Visual Studio\2019\Community\VC\Tools\MSVC\14.29.30133\atlmfc\include\afxcmn.inl

; 155  : 	{ ASSERT(::IsWindow(m_hWnd)); return (int) ::SendMessage(m_hWnd, LVM_GETITEMCOUNT, 0, 0L); }

  00469	ff 15 00 00 00
	00		 call	 DWORD PTR __imp__SendMessageA@16
; File D:\git\src\IBK\IBK_DRFN\ProjSrc\SrcChartEx\ChartOCX\AddInManager\ChartCommonAddIn\RealTimeTransducerDlg.cpp

; 392  : 	for( int i = 0; i < m_lcRealState.GetItemCount(); i++)

  0046f	3b d8		 cmp	 ebx, eax
  00471	0f 8c 2f fc ff
	ff		 jl	 $LL4@FireFakeRe
$LN3@FireFakeRe:

; 443  : 	}
; 444  : 	m_pIRealReceiver->SetRealPacketEndRQ( "DEFAULT", TRUE);

  00477	8b 8e 58 07 00
	00		 mov	 ecx, DWORD PTR [esi+1880]
  0047d	6a 01		 push	 1
  0047f	68 00 00 00 00	 push	 OFFSET ??_C@_07MGCPDNLD@DEFAULT@
  00484	8b 01		 mov	 eax, DWORD PTR [ecx]
  00486	ff 50 4c	 call	 DWORD PTR [eax+76]

; 445  : }

  00489	8d 4d c4	 lea	 ecx, DWORD PTR _strPacketType$[ebp]
  0048c	ff 15 00 00 00
	00		 call	 DWORD PTR __imp_??1?$CStringT@DV?$StrTraitMFC_DLL@DV?$ChTraitsCRT@D@ATL@@@@@ATL@@QAE@XZ
  00492	8d 4d f0	 lea	 ecx, DWORD PTR _strPacketName$[ebp]
  00495	ff 15 00 00 00
	00		 call	 DWORD PTR __imp_??1?$CStringT@DV?$StrTraitMFC_DLL@DV?$ChTraitsCRT@D@ATL@@@@@ATL@@QAE@XZ
  0049b	8d 4d ec	 lea	 ecx, DWORD PTR _strUseReal$[ebp]
  0049e	ff 15 00 00 00
	00		 call	 DWORD PTR __imp_??1?$CStringT@DV?$StrTraitMFC_DLL@DV?$ChTraitsCRT@D@ATL@@@@@ATL@@QAE@XZ
$LN1@FireFakeRe:
  004a4	8b 4d f4	 mov	 ecx, DWORD PTR __$EHRec$[ebp]
  004a7	64 89 0d 00 00
	00 00		 mov	 DWORD PTR fs:0, ecx
  004ae	59		 pop	 ecx
  004af	5f		 pop	 edi
  004b0	5e		 pop	 esi
  004b1	5b		 pop	 ebx
  004b2	8b e5		 mov	 esp, ebp
  004b4	5d		 pop	 ebp
  004b5	c2 04 00	 ret	 4
_TEXT	ENDS
;	COMDAT text$x
text$x	SEGMENT
__unwindfunclet$?FireFakeReal@CRealTimeTransducerDlg@@IAEXH@Z$0:
  00000	8d 4d ec	 lea	 ecx, DWORD PTR _strUseReal$[ebp]
  00003	ff 25 00 00 00
	00		 jmp	 DWORD PTR __imp_??1?$CStringT@DV?$StrTraitMFC_DLL@DV?$ChTraitsCRT@D@ATL@@@@@ATL@@QAE@XZ
__unwindfunclet$?FireFakeReal@CRealTimeTransducerDlg@@IAEXH@Z$1:
  00009	8d 4d f0	 lea	 ecx, DWORD PTR _strPacketName$[ebp]
  0000c	ff 25 00 00 00
	00		 jmp	 DWORD PTR __imp_??1?$CStringT@DV?$StrTraitMFC_DLL@DV?$ChTraitsCRT@D@ATL@@@@@ATL@@QAE@XZ
__unwindfunclet$?FireFakeReal@CRealTimeTransducerDlg@@IAEXH@Z$2:
  00012	8d 4d c4	 lea	 ecx, DWORD PTR _strPacketType$[ebp]
  00015	ff 25 00 00 00
	00		 jmp	 DWORD PTR __imp_??1?$CStringT@DV?$StrTraitMFC_DLL@DV?$ChTraitsCRT@D@ATL@@@@@ATL@@QAE@XZ
__unwindfunclet$?FireFakeReal@CRealTimeTransducerDlg@@IAEXH@Z$3:
  0001b	8d 4d d8	 lea	 ecx, DWORD PTR $T8[ebp]
  0001e	ff 25 00 00 00
	00		 jmp	 DWORD PTR __imp_??1?$CStringT@DV?$StrTraitMFC_DLL@DV?$ChTraitsCRT@D@ATL@@@@@ATL@@QAE@XZ
__unwindfunclet$?FireFakeReal@CRealTimeTransducerDlg@@IAEXH@Z$4:
  00024	8d 4d d4	 lea	 ecx, DWORD PTR $T7[ebp]
  00027	ff 25 00 00 00
	00		 jmp	 DWORD PTR __imp_??1?$CStringT@DV?$StrTraitMFC_DLL@DV?$ChTraitsCRT@D@ATL@@@@@ATL@@QAE@XZ
__unwindfunclet$?FireFakeReal@CRealTimeTransducerDlg@@IAEXH@Z$8:
  0002d	8d 4d e8	 lea	 ecx, DWORD PTR _strValue$10[ebp]
  00030	ff 25 00 00 00
	00		 jmp	 DWORD PTR __imp_??1?$CStringT@DV?$StrTraitMFC_DLL@DV?$ChTraitsCRT@D@ATL@@@@@ATL@@QAE@XZ
  00036	cc		 int	 3
  00037	cc		 int	 3
  00038	cc		 int	 3
  00039	cc		 int	 3
  0003a	cc		 int	 3
__ehhandler$?FireFakeReal@CRealTimeTransducerDlg@@IAEXH@Z:
  0003b	90		 npad	 1
  0003c	90		 npad	 1
  0003d	8b 54 24 08	 mov	 edx, DWORD PTR [esp+8]
  00041	8d 42 0c	 lea	 eax, DWORD PTR [edx+12]
  00044	8b 4a a0	 mov	 ecx, DWORD PTR [edx-96]
  00047	33 c8		 xor	 ecx, eax
  00049	e8 00 00 00 00	 call	 @__security_check_cookie@4
  0004e	b8 00 00 00 00	 mov	 eax, OFFSET __ehfuncinfo$?FireFakeReal@CRealTimeTransducerDlg@@IAEXH@Z
  00053	e9 00 00 00 00	 jmp	 ___CxxFrameHandler3
text$x	ENDS
?FireFakeReal@CRealTimeTransducerDlg@@IAEXH@Z ENDP	; CRealTimeTransducerDlg::FireFakeReal
; Function compile flags: /Ogtp
; File D:\git\src\IBK\IBK_DRFN\ProjSrc\SrcChartEx\ChartOCX\AddInManager\ChartCommonAddIn\RealTimeTransducerDlg.cpp
;	COMDAT ?GetLastPacketValue@CRealTimeTransducerDlg@@IAENPBDH@Z
_TEXT	SEGMENT
_dValue$ = -8						; size = 8
_p_szPacketName$ = 8					; size = 4
_p_bPrev$ = 12						; size = 4
?GetLastPacketValue@CRealTimeTransducerDlg@@IAENPBDH@Z PROC ; CRealTimeTransducerDlg::GetLastPacketValue, COMDAT
; _this$ = ecx

; 350  : {

  00000	55		 push	 ebp
  00001	8b ec		 mov	 ebp, esp

; 351  : 	if( !m_pIPacketManager) return 0.0;

  00003	8b 89 4c 07 00
	00		 mov	 ecx, DWORD PTR [ecx+1868]
  00009	83 ec 08	 sub	 esp, 8
  0000c	56		 push	 esi
  0000d	85 c9		 test	 ecx, ecx
  0000f	74 45		 je	 SHORT $LN7@GetLastPac

; 352  : 
; 353  : 	IPacket *pIPacket = m_pIPacketManager->GetPacket( p_szPacketName);

  00011	8b 01		 mov	 eax, DWORD PTR [ecx]
  00013	ff 75 08	 push	 DWORD PTR _p_szPacketName$[ebp]
  00016	ff 50 10	 call	 DWORD PTR [eax+16]
  00019	8b f0		 mov	 esi, eax

; 354  : 	if( !pIPacket) return 0.0;

  0001b	85 f6		 test	 esi, esi
  0001d	74 37		 je	 SHORT $LN7@GetLastPac

; 355  : 
; 356  : 	int nDataCount = pIPacket->GetDataCount();

  0001f	8b 16		 mov	 edx, DWORD PTR [esi]
  00021	8b ce		 mov	 ecx, esi
  00023	ff 52 2c	 call	 DWORD PTR [edx+44]

; 357  : 	if( p_bPrev) nDataCount--;

  00026	83 7d 0c 00	 cmp	 DWORD PTR _p_bPrev$[ebp], 0
  0002a	74 01		 je	 SHORT $LN4@GetLastPac
  0002c	48		 dec	 eax
$LN4@GetLastPac:
  0002d	0f 57 c0	 xorps	 xmm0, xmm0

; 358  : 	double dValue = 0;

  00030	f2 0f 11 45 f8	 movsd	 QWORD PTR _dValue$[ebp], xmm0

; 359  : 	if( 0 < nDataCount) pIPacket->GetData( nDataCount - 1, dValue);

  00035	85 c0		 test	 eax, eax
  00037	7e 0d		 jle	 SHORT $LN5@GetLastPac
  00039	8b 16		 mov	 edx, DWORD PTR [esi]
  0003b	8d 4d f8	 lea	 ecx, DWORD PTR _dValue$[ebp]
  0003e	51		 push	 ecx
  0003f	48		 dec	 eax
  00040	8b ce		 mov	 ecx, esi
  00042	50		 push	 eax
  00043	ff 52 40	 call	 DWORD PTR [edx+64]
$LN5@GetLastPac:

; 360  : 	pIPacket->Release();

  00046	8b 06		 mov	 eax, DWORD PTR [esi]
  00048	56		 push	 esi
  00049	ff 50 08	 call	 DWORD PTR [eax+8]

; 361  : 	return dValue;

  0004c	dd 45 f8	 fld	 QWORD PTR _dValue$[ebp]
  0004f	5e		 pop	 esi

; 362  : }

  00050	8b e5		 mov	 esp, ebp
  00052	5d		 pop	 ebp
  00053	c2 08 00	 ret	 8
$LN7@GetLastPac:

; 354  : 	if( !pIPacket) return 0.0;

  00056	d9 ee		 fldz
  00058	5e		 pop	 esi

; 362  : }

  00059	8b e5		 mov	 esp, ebp
  0005b	5d		 pop	 ebp
  0005c	c2 08 00	 ret	 8
?GetLastPacketValue@CRealTimeTransducerDlg@@IAENPBDH@Z ENDP ; CRealTimeTransducerDlg::GetLastPacketValue
_TEXT	ENDS
; Function compile flags: /Ogtp
; File D:\git\src\IBK\IBK_DRFN\ProjSrc\SrcChartEx\ChartOCX\AddInManager\ChartCommonAddIn\RealTimeTransducerDlg.cpp
;	COMDAT ?GetTimeString@CRealTimeTransducerDlg@@IAE?AV?$CStringT@DV?$StrTraitMFC_DLL@DV?$ChTraitsCRT@D@ATL@@@@@ATL@@_J@Z
_TEXT	SEGMENT
_nHour$1$ = -28						; size = 4
_nMinute$1$ = -24					; size = 4
_nSecond$1$ = -20					; size = 4
$T2 = -16						; size = 4
__$EHRec$ = -12						; size = 12
___$ReturnUdt$ = 8					; size = 4
_p_nTime$ = 12						; size = 8
_nDay$1$ = 16						; size = 4
?GetTimeString@CRealTimeTransducerDlg@@IAE?AV?$CStringT@DV?$StrTraitMFC_DLL@DV?$ChTraitsCRT@D@ATL@@@@@ATL@@_J@Z PROC ; CRealTimeTransducerDlg::GetTimeString, COMDAT
; _this$ = ecx

; 107  : {

  00000	55		 push	 ebp
  00001	8b ec		 mov	 ebp, esp
  00003	6a ff		 push	 -1
  00005	68 00 00 00 00	 push	 __ehhandler$?GetTimeString@CRealTimeTransducerDlg@@IAE?AV?$CStringT@DV?$StrTraitMFC_DLL@DV?$ChTraitsCRT@D@ATL@@@@@ATL@@_J@Z
  0000a	64 a1 00 00 00
	00		 mov	 eax, DWORD PTR fs:0
  00010	50		 push	 eax
  00011	83 ec 10	 sub	 esp, 16			; 00000010H
  00014	53		 push	 ebx
  00015	56		 push	 esi
  00016	57		 push	 edi
  00017	a1 00 00 00 00	 mov	 eax, DWORD PTR ___security_cookie
  0001c	33 c5		 xor	 eax, ebp
  0001e	50		 push	 eax
  0001f	8d 45 f4	 lea	 eax, DWORD PTR __$EHRec$[ebp]
  00022	64 a3 00 00 00
	00		 mov	 DWORD PTR fs:0, eax

; 108  : 	int nSecond = int( p_nTime % 100);

  00028	8b 7d 10	 mov	 edi, DWORD PTR _p_nTime$[ebp+4]
  0002b	8b 75 0c	 mov	 esi, DWORD PTR _p_nTime$[ebp]
  0002e	6a 00		 push	 0
  00030	6a 64		 push	 100			; 00000064H
  00032	57		 push	 edi
  00033	56		 push	 esi
  00034	c7 45 f0 00 00
	00 00		 mov	 DWORD PTR $T2[ebp], 0
  0003b	e8 00 00 00 00	 call	 __alldiv
  00040	8b d8		 mov	 ebx, eax
  00042	8b c6		 mov	 eax, esi

; 109  : 	p_nTime /= 100;
; 110  : 	int nMinute = int( p_nTime % 100);

  00044	6a 00		 push	 0
  00046	6b cb 64	 imul	 ecx, ebx, 100
  00049	68 10 27 00 00	 push	 10000			; 00002710H
  0004e	57		 push	 edi
  0004f	56		 push	 esi
  00050	2b c1		 sub	 eax, ecx
  00052	89 45 ec	 mov	 DWORD PTR _nSecond$1$[ebp], eax
  00055	e8 00 00 00 00	 call	 __alldiv
  0005a	8b f8		 mov	 edi, eax
  0005c	8b f2		 mov	 esi, edx

; 111  : 	p_nTime /= 100;
; 112  : 	int nHour = int( p_nTime % 100);

  0005e	6a 00		 push	 0
  00060	6b cf 64	 imul	 ecx, edi, 100
  00063	6a 64		 push	 100			; 00000064H
  00065	56		 push	 esi
  00066	57		 push	 edi
  00067	2b d9		 sub	 ebx, ecx
  00069	89 5d e8	 mov	 DWORD PTR _nMinute$1$[ebp], ebx
  0006c	e8 00 00 00 00	 call	 __alldiv
  00071	6b c8 64	 imul	 ecx, eax, 100

; 113  : 	p_nTime /= 100;
; 114  : 	int nDay = int( p_nTime % 100);

  00074	6a 00		 push	 0
  00076	89 45 10	 mov	 DWORD PTR _nDay$1$[ebp], eax
  00079	8b c7		 mov	 eax, edi
  0007b	68 10 27 00 00	 push	 10000			; 00002710H
  00080	56		 push	 esi
  00081	2b c1		 sub	 eax, ecx
  00083	57		 push	 edi
  00084	89 45 e4	 mov	 DWORD PTR _nHour$1$[ebp], eax
  00087	e8 00 00 00 00	 call	 __alldiv
  0008c	8b d8		 mov	 ebx, eax

; 115  : 	p_nTime /= 100;
; 116  : 	int nMonth = int( p_nTime % 100);

  0008e	6a 00		 push	 0
  00090	6b cb 64	 imul	 ecx, ebx, 100
  00093	6a 64		 push	 100			; 00000064H
  00095	52		 push	 edx
  00096	53		 push	 ebx
  00097	29 4d 10	 sub	 DWORD PTR _nDay$1$[ebp], ecx
  0009a	e8 00 00 00 00	 call	 __alldiv

; 117  : 	int nYear = int( p_nTime / 100);
; 118  : 
; 119  : 	CString strTime;

  0009f	8b 75 08	 mov	 esi, DWORD PTR ___$ReturnUdt$[ebp]
  000a2	8b f8		 mov	 edi, eax
  000a4	6b cf 64	 imul	 ecx, edi, 100
  000a7	2b d9		 sub	 ebx, ecx
  000a9	8b ce		 mov	 ecx, esi
  000ab	ff 15 00 00 00
	00		 call	 DWORD PTR __imp_??0?$CStringT@DV?$StrTraitMFC_DLL@DV?$ChTraitsCRT@D@ATL@@@@@ATL@@QAE@XZ

; 120  : 	strTime.Format( "%04d/%02d/%02d, %02d:%02d:%02d", nYear, nMonth, nDay, nHour, nMinute, nSecond);
; 121  : 	return strTime;

  000b1	ff 75 ec	 push	 DWORD PTR _nSecond$1$[ebp]
  000b4	c7 45 fc 00 00
	00 00		 mov	 DWORD PTR __$EHRec$[ebp+8], 0
  000bb	ff 75 e8	 push	 DWORD PTR _nMinute$1$[ebp]
  000be	c7 45 f0 01 00
	00 00		 mov	 DWORD PTR $T2[ebp], 1
  000c5	ff 75 e4	 push	 DWORD PTR _nHour$1$[ebp]
  000c8	ff 75 10	 push	 DWORD PTR _nDay$1$[ebp]
  000cb	53		 push	 ebx
  000cc	57		 push	 edi
  000cd	68 00 00 00 00	 push	 OFFSET ??_C@_0BP@FAOJNMMP@?$CF04d?1?$CF02d?1?$CF02d?0?5?$CF02d?3?$CF02d?3?$CF02d@
  000d2	56		 push	 esi
  000d3	ff 15 00 00 00
	00		 call	 DWORD PTR __imp_?Format@?$CStringT@DV?$StrTraitMFC_DLL@DV?$ChTraitsCRT@D@ATL@@@@@ATL@@QAAXPBDZZ
  000d9	83 c4 20	 add	 esp, 32			; 00000020H
  000dc	8b c6		 mov	 eax, esi

; 122  : }

  000de	8b 4d f4	 mov	 ecx, DWORD PTR __$EHRec$[ebp]
  000e1	64 89 0d 00 00
	00 00		 mov	 DWORD PTR fs:0, ecx
  000e8	59		 pop	 ecx
  000e9	5f		 pop	 edi
  000ea	5e		 pop	 esi
  000eb	5b		 pop	 ebx
  000ec	8b e5		 mov	 esp, ebp
  000ee	5d		 pop	 ebp
  000ef	c2 0c 00	 ret	 12			; 0000000cH
_TEXT	ENDS
;	COMDAT text$x
text$x	SEGMENT
__unwindfunclet$?GetTimeString@CRealTimeTransducerDlg@@IAE?AV?$CStringT@DV?$StrTraitMFC_DLL@DV?$ChTraitsCRT@D@ATL@@@@@ATL@@_J@Z$0:
  00000	8b 45 f0	 mov	 eax, DWORD PTR $T2[ebp]
  00003	83 e0 01	 and	 eax, 1
  00006	0f 84 0d 00 00
	00		 je	 $LN4@GetTimeStr
  0000c	83 65 f0 fe	 and	 DWORD PTR $T2[ebp], -2	; fffffffeH
  00010	8b 4d 08	 mov	 ecx, DWORD PTR ___$ReturnUdt$[ebp]
  00013	ff 25 00 00 00
	00		 jmp	 DWORD PTR __imp_??1?$CStringT@DV?$StrTraitMFC_DLL@DV?$ChTraitsCRT@D@ATL@@@@@ATL@@QAE@XZ
$LN4@GetTimeStr:
  00019	c3		 ret	 0
  0001a	cc		 int	 3
  0001b	cc		 int	 3
  0001c	cc		 int	 3
  0001d	cc		 int	 3
  0001e	cc		 int	 3
__ehhandler$?GetTimeString@CRealTimeTransducerDlg@@IAE?AV?$CStringT@DV?$StrTraitMFC_DLL@DV?$ChTraitsCRT@D@ATL@@@@@ATL@@_J@Z:
  0001f	90		 npad	 1
  00020	90		 npad	 1
  00021	8b 54 24 08	 mov	 edx, DWORD PTR [esp+8]
  00025	8d 42 0c	 lea	 eax, DWORD PTR [edx+12]
  00028	8b 4a e0	 mov	 ecx, DWORD PTR [edx-32]
  0002b	33 c8		 xor	 ecx, eax
  0002d	e8 00 00 00 00	 call	 @__security_check_cookie@4
  00032	b8 00 00 00 00	 mov	 eax, OFFSET __ehfuncinfo$?GetTimeString@CRealTimeTransducerDlg@@IAE?AV?$CStringT@DV?$StrTraitMFC_DLL@DV?$ChTraitsCRT@D@ATL@@@@@ATL@@_J@Z
  00037	e9 00 00 00 00	 jmp	 ___CxxFrameHandler3
text$x	ENDS
?GetTimeString@CRealTimeTransducerDlg@@IAE?AV?$CStringT@DV?$StrTraitMFC_DLL@DV?$ChTraitsCRT@D@ATL@@@@@ATL@@_J@Z ENDP ; CRealTimeTransducerDlg::GetTimeString
; Function compile flags: /Ogtp
; File D:\git\src\IBK\IBK_DRFN\ProjSrc\SrcChartEx\ChartOCX\AddInManager\ChartCommonAddIn\RealTimeTransducerDlg.cpp
;	COMDAT ?GetMessageMap@CRealTimeTransducerDlg@@MBEPBUAFX_MSGMAP@@XZ
_TEXT	SEGMENT
?GetMessageMap@CRealTimeTransducerDlg@@MBEPBUAFX_MSGMAP@@XZ PROC ; CRealTimeTransducerDlg::GetMessageMap, COMDAT
; _this$ = ecx

; 70   : BEGIN_MESSAGE_MAP(CRealTimeTransducerDlg, CDialog)

  00000	b8 00 00 00 00	 mov	 eax, OFFSET ?messageMap@?1??GetThisMessageMap@CRealTimeTransducerDlg@@KGPBUAFX_MSGMAP@@XZ@4U3@B
  00005	c3		 ret	 0
?GetMessageMap@CRealTimeTransducerDlg@@MBEPBUAFX_MSGMAP@@XZ ENDP ; CRealTimeTransducerDlg::GetMessageMap
_TEXT	ENDS
; Function compile flags: /Ogtp
; File D:\git\src\IBK\IBK_DRFN\ProjSrc\SrcChartEx\ChartOCX\AddInManager\ChartCommonAddIn\RealTimeTransducerDlg.cpp
;	COMDAT ?GetThisMessageMap@CRealTimeTransducerDlg@@KGPBUAFX_MSGMAP@@XZ
_TEXT	SEGMENT
?GetThisMessageMap@CRealTimeTransducerDlg@@KGPBUAFX_MSGMAP@@XZ PROC ; CRealTimeTransducerDlg::GetThisMessageMap, COMDAT

; 71   : 	//{{AFX_MSG_MAP(CRealTimeTransducerDlg)
; 72   : 	ON_BN_CLICKED(IDC_BTN_SECOND, OnBtnSecond)
; 73   : 	ON_BN_CLICKED(IDC_BTN_MINUTE, OnBtnMinute)
; 74   : 	ON_BN_CLICKED(IDC_BTN_HOUR, OnBtnHour)
; 75   : 	ON_BN_CLICKED(IDC_BTN_DAY, OnBtnDay)
; 76   : 	ON_BN_CLICKED(IDC_BTN_MONTH, OnBtnMonth)
; 77   : 	ON_BN_CLICKED(IDC_BTN_YEAR, OnBtnYear)
; 78   : 	ON_BN_CLICKED(IDC_CHK_FAKE_REAL_ON, OnChkFakeRealOn)
; 79   : 	ON_WM_DESTROY()
; 80   : 	ON_WM_TIMER()
; 81   : 	ON_BN_CLICKED(IDC_BTN_FIRE_FIXED_REALTIME, OnBtnFireFixedRealtime)
; 82   : 	ON_CBN_SELENDOK(IDC_CMB_SPEED, OnSelendokCmbSpeed)
; 83   : 	ON_CBN_SELENDOK(IDC_CMB_PRICETYPE, OnSelendokCmbPricetype)
; 84   : 	//}}AFX_MSG_MAP
; 85   : END_MESSAGE_MAP()

  00000	b8 00 00 00 00	 mov	 eax, OFFSET ?messageMap@?1??GetThisMessageMap@CRealTimeTransducerDlg@@KGPBUAFX_MSGMAP@@XZ@4U3@B
  00005	c3		 ret	 0
?GetThisMessageMap@CRealTimeTransducerDlg@@KGPBUAFX_MSGMAP@@XZ ENDP ; CRealTimeTransducerDlg::GetThisMessageMap
_TEXT	ENDS
; Function compile flags: /Ogtp
; File D:\git\src\IBK\IBK_DRFN\ProjSrc\SrcChartEx\ChartOCX\AddInManager\ChartCommonAddIn\RealTimeTransducerDlg.cpp
;	COMDAT ?OnSelendokCmbPricetype@CRealTimeTransducerDlg@@IAEXXZ
_TEXT	SEGMENT
?OnSelendokCmbPricetype@CRealTimeTransducerDlg@@IAEXXZ PROC ; CRealTimeTransducerDlg::OnSelendokCmbPricetype, COMDAT
; _this$ = ecx

; 457  : 	// TODO: Add your control notification handler code here
; 458  : 	UpdateTime( m_pIPacketManager);	

  00000	6a 00		 push	 0
  00002	ff b1 4c 07 00
	00		 push	 DWORD PTR [ecx+1868]
  00008	e8 00 00 00 00	 call	 ?UpdateTime@CRealTimeTransducerDlg@@QAEXPAUIPacketManager000000@@PAUIRealReceiver@@@Z ; CRealTimeTransducerDlg::UpdateTime

; 459  : }

  0000d	c3		 ret	 0
?OnSelendokCmbPricetype@CRealTimeTransducerDlg@@IAEXXZ ENDP ; CRealTimeTransducerDlg::OnSelendokCmbPricetype
_TEXT	ENDS
; Function compile flags: /Ogtp
; File D:\git\src\IBK\IBK_DRFN\ProjSrc\SrcChartEx\ChartOCX\AddInManager\ChartCommonAddIn\RealTimeTransducerDlg.cpp
;	COMDAT ?OnSelendokCmbSpeed@CRealTimeTransducerDlg@@IAEXXZ
_TEXT	SEGMENT
?OnSelendokCmbSpeed@CRealTimeTransducerDlg@@IAEXXZ PROC	; CRealTimeTransducerDlg::OnSelendokCmbSpeed, COMDAT
; _this$ = ecx

; 449  : 	// TODO: Add your control notification handler code here
; 450  : 
; 451  : 	OnChkFakeRealOn();

  00000	e9 00 00 00 00	 jmp	 ?OnChkFakeRealOn@CRealTimeTransducerDlg@@IAEXXZ ; CRealTimeTransducerDlg::OnChkFakeRealOn
?OnSelendokCmbSpeed@CRealTimeTransducerDlg@@IAEXXZ ENDP	; CRealTimeTransducerDlg::OnSelendokCmbSpeed
_TEXT	ENDS
; Function compile flags: /Ogtp
; File D:\git\src\IBK\IBK_DRFN\ProjSrc\SrcChartEx\ChartOCX\AddInManager\ChartCommonAddIn\RealTimeTransducerDlg.cpp
;	COMDAT ?OnBtnFireFixedRealtime@CRealTimeTransducerDlg@@IAEXXZ
_TEXT	SEGMENT
?OnBtnFireFixedRealtime@CRealTimeTransducerDlg@@IAEXXZ PROC ; CRealTimeTransducerDlg::OnBtnFireFixedRealtime, COMDAT
; _this$ = ecx

; 382  : 	// TODO: Add your control notification handler code here
; 383  : 	FireFakeReal( TRUE);

  00000	6a 01		 push	 1
  00002	e8 00 00 00 00	 call	 ?FireFakeReal@CRealTimeTransducerDlg@@IAEXH@Z ; CRealTimeTransducerDlg::FireFakeReal

; 384  : }

  00007	c3		 ret	 0
?OnBtnFireFixedRealtime@CRealTimeTransducerDlg@@IAEXXZ ENDP ; CRealTimeTransducerDlg::OnBtnFireFixedRealtime
_TEXT	ENDS
; Function compile flags: /Ogtp
; File D:\git\src\IBK\IBK_DRFN\ProjSrc\SrcChartEx\ChartOCX\AddInManager\ChartCommonAddIn\RealTimeTransducerDlg.cpp
; File C:\Program Files (x86)\Microsoft Visual Studio\2019\Community\VC\Tools\MSVC\14.29.30133\atlmfc\include\afxwin2.inl
; File D:\git\src\IBK\IBK_DRFN\ProjSrc\SrcChartEx\ChartOCX\AddInManager\ChartCommonAddIn\RealTimeTransducerDlg.cpp
;	COMDAT ?OnTimer@CRealTimeTransducerDlg@@IAEXI@Z
_TEXT	SEGMENT
_nIDEvent$ = 8						; size = 4
?OnTimer@CRealTimeTransducerDlg@@IAEXI@Z PROC		; CRealTimeTransducerDlg::OnTimer, COMDAT
; _this$ = ecx

; 339  : {

  00000	55		 push	 ebp
  00001	8b ec		 mov	 ebp, esp
  00003	56		 push	 esi
  00004	8b f1		 mov	 esi, ecx
; File C:\Program Files (x86)\Microsoft Visual Studio\2019\Community\VC\Tools\MSVC\14.29.30133\atlmfc\include\afxwin2.inl

; 466  : 	{ Default(); }

  00006	e8 00 00 00 00	 call	 ?Default@CWnd@@IAEJXZ	; CWnd::Default
; File D:\git\src\IBK\IBK_DRFN\ProjSrc\SrcChartEx\ChartOCX\AddInManager\ChartCommonAddIn\RealTimeTransducerDlg.cpp

; 344  : 	if( 1023 != nIDEvent) return;

  0000b	81 7d 08 ff 03
	00 00		 cmp	 DWORD PTR _nIDEvent$[ebp], 1023 ; 000003ffH
  00012	75 09		 jne	 SHORT $LN1@OnTimer

; 345  : 	FireFakeReal();

  00014	6a 00		 push	 0
  00016	8b ce		 mov	 ecx, esi
  00018	e8 00 00 00 00	 call	 ?FireFakeReal@CRealTimeTransducerDlg@@IAEXH@Z ; CRealTimeTransducerDlg::FireFakeReal
$LN1@OnTimer:
  0001d	5e		 pop	 esi

; 346  : }

  0001e	5d		 pop	 ebp
  0001f	c2 04 00	 ret	 4
?OnTimer@CRealTimeTransducerDlg@@IAEXI@Z ENDP		; CRealTimeTransducerDlg::OnTimer
_TEXT	ENDS
; Function compile flags: /Ogtp
; File D:\git\src\IBK\IBK_DRFN\ProjSrc\SrcChartEx\ChartOCX\AddInManager\ChartCommonAddIn\RealTimeTransducerDlg.cpp
; File C:\Program Files (x86)\Microsoft Visual Studio\2019\Community\VC\Tools\MSVC\14.29.30133\atlmfc\include\afxwin2.inl
; File D:\git\src\IBK\IBK_DRFN\ProjSrc\SrcChartEx\ChartOCX\AddInManager\ChartCommonAddIn\RealTimeTransducerDlg.cpp
;	COMDAT ?OnDestroy@CRealTimeTransducerDlg@@IAEXXZ
_TEXT	SEGMENT
?OnDestroy@CRealTimeTransducerDlg@@IAEXXZ PROC		; CRealTimeTransducerDlg::OnDestroy, COMDAT
; _this$ = ecx

; 330  : {

  00000	56		 push	 esi
  00001	8b f1		 mov	 esi, ecx

; 331  : 	CDialog::OnDestroy();

  00003	e8 00 00 00 00	 call	 ?OnDestroy@CWnd@@IAEXXZ	; CWnd::OnDestroy
; File C:\Program Files (x86)\Microsoft Visual Studio\2019\Community\VC\Tools\MSVC\14.29.30133\atlmfc\include\afxwin2.inl

; 155  : 	{ ASSERT(::IsWindow(m_hWnd)); return ::KillTimer(m_hWnd, nIDEvent); }

  00008	68 ff 03 00 00	 push	 1023			; 000003ffH
  0000d	ff 76 20	 push	 DWORD PTR [esi+32]
  00010	ff 15 00 00 00
	00		 call	 DWORD PTR __imp__KillTimer@8
  00016	5e		 pop	 esi
; File D:\git\src\IBK\IBK_DRFN\ProjSrc\SrcChartEx\ChartOCX\AddInManager\ChartCommonAddIn\RealTimeTransducerDlg.cpp

; 335  : }

  00017	c3		 ret	 0
?OnDestroy@CRealTimeTransducerDlg@@IAEXXZ ENDP		; CRealTimeTransducerDlg::OnDestroy
_TEXT	ENDS
; Function compile flags: /Ogtp
; File D:\git\src\IBK\IBK_DRFN\ProjSrc\SrcChartEx\ChartOCX\AddInManager\ChartCommonAddIn\RealTimeTransducerDlg.cpp
; File C:\Program Files (x86)\Windows Kits\10\Include\10.0.22000.0\ucrt\time.h
; File D:\git\src\IBK\IBK_DRFN\ProjSrc\SrcChartEx\ChartOCX\AddInManager\ChartCommonAddIn\RealTimeTransducerDlg.cpp
; File C:\Program Files (x86)\Windows Kits\10\Include\10.0.22000.0\ucrt\time.h
; File D:\git\src\IBK\IBK_DRFN\ProjSrc\SrcChartEx\ChartOCX\AddInManager\ChartCommonAddIn\RealTimeTransducerDlg.cpp
; File C:\Program Files (x86)\Microsoft Visual Studio\2019\Community\VC\Tools\MSVC\14.29.30133\atlmfc\include\afxwin2.inl
; File D:\git\src\IBK\IBK_DRFN\ProjSrc\SrcChartEx\ChartOCX\AddInManager\ChartCommonAddIn\RealTimeTransducerDlg.cpp
; File C:\Program Files (x86)\Microsoft Visual Studio\2019\Community\VC\Tools\MSVC\14.29.30133\atlmfc\include\afxwin2.inl
; File D:\git\src\IBK\IBK_DRFN\ProjSrc\SrcChartEx\ChartOCX\AddInManager\ChartCommonAddIn\RealTimeTransducerDlg.cpp
; File C:\Program Files (x86)\Microsoft Visual Studio\2019\Community\VC\Tools\MSVC\14.29.30133\atlmfc\include\afxwin2.inl
; File D:\git\src\IBK\IBK_DRFN\ProjSrc\SrcChartEx\ChartOCX\AddInManager\ChartCommonAddIn\RealTimeTransducerDlg.cpp
;	COMDAT ?OnChkFakeRealOn@CRealTimeTransducerDlg@@IAEXXZ
_TEXT	SEGMENT
_strSpeed$ = -16					; size = 4
__$EHRec$ = -12						; size = 12
?OnChkFakeRealOn@CRealTimeTransducerDlg@@IAEXXZ PROC	; CRealTimeTransducerDlg::OnChkFakeRealOn, COMDAT
; _this$ = ecx

; 316  : {

  00000	55		 push	 ebp
  00001	8b ec		 mov	 ebp, esp
  00003	6a ff		 push	 -1
  00005	68 00 00 00 00	 push	 __ehhandler$?OnChkFakeRealOn@CRealTimeTransducerDlg@@IAEXXZ
  0000a	64 a1 00 00 00
	00		 mov	 eax, DWORD PTR fs:0
  00010	50		 push	 eax
  00011	51		 push	 ecx
  00012	56		 push	 esi
  00013	57		 push	 edi
  00014	a1 00 00 00 00	 mov	 eax, DWORD PTR ___security_cookie
  00019	33 c5		 xor	 eax, ebp
  0001b	50		 push	 eax
  0001c	8d 45 f4	 lea	 eax, DWORD PTR __$EHRec$[ebp]
  0001f	64 a3 00 00 00
	00		 mov	 DWORD PTR fs:0, eax
  00025	8b f1		 mov	 esi, ecx

; 317  : 	// TODO: Add your control notification handler code here
; 318  : 
; 319  : 	CString strSpeed;

  00027	8d 4d f0	 lea	 ecx, DWORD PTR _strSpeed$[ebp]
  0002a	ff 15 00 00 00
	00		 call	 DWORD PTR __imp_??0?$CStringT@DV?$StrTraitMFC_DLL@DV?$ChTraitsCRT@D@ATL@@@@@ATL@@QAE@XZ

; 320  : 	m_cbRealSpeed.GetWindowText( strSpeed);

  00030	8d 45 f0	 lea	 eax, DWORD PTR _strSpeed$[ebp]
  00033	c7 45 fc 00 00
	00 00		 mov	 DWORD PTR __$EHRec$[ebp+8], 0
  0003a	50		 push	 eax
  0003b	8d 8e a8 03 00
	00		 lea	 ecx, DWORD PTR [esi+936]
  00041	e8 00 00 00 00	 call	 ?GetWindowTextA@CWnd@@QBEXAAV?$CStringT@DV?$StrTraitMFC_DLL@DV?$ChTraitsCRT@D@ATL@@@@@ATL@@@Z ; CWnd::GetWindowTextA

; 321  : 	int nSpeed = atol( strSpeed);

  00046	ff 75 f0	 push	 DWORD PTR _strSpeed$[ebp]
  00049	ff 15 00 00 00
	00		 call	 DWORD PTR __imp__atol
  0004f	8b f8		 mov	 edi, eax

; 322  : 	if( nSpeed < 1) nSpeed = 1;

  00051	b8 01 00 00 00	 mov	 eax, 1
  00056	3b f8		 cmp	 edi, eax
; File C:\Program Files (x86)\Windows Kits\10\Include\10.0.22000.0\ucrt\time.h

; 522  :             return _time64(_Time);

  00058	6a 00		 push	 0
; File D:\git\src\IBK\IBK_DRFN\ProjSrc\SrcChartEx\ChartOCX\AddInManager\ChartCommonAddIn\RealTimeTransducerDlg.cpp

; 322  : 	if( nSpeed < 1) nSpeed = 1;

  0005a	0f 4c f8	 cmovl	 edi, eax
; File C:\Program Files (x86)\Windows Kits\10\Include\10.0.22000.0\ucrt\time.h

; 522  :             return _time64(_Time);

  0005d	ff 15 00 00 00
	00		 call	 DWORD PTR __imp___time64
; File D:\git\src\IBK\IBK_DRFN\ProjSrc\SrcChartEx\ChartOCX\AddInManager\ChartCommonAddIn\RealTimeTransducerDlg.cpp

; 324  : 	srand( (unsigned)time( NULL));

  00063	50		 push	 eax
  00064	ff 15 00 00 00
	00		 call	 DWORD PTR __imp__srand
  0006a	83 c4 0c	 add	 esp, 12			; 0000000cH
; File C:\Program Files (x86)\Microsoft Visual Studio\2019\Community\VC\Tools\MSVC\14.29.30133\atlmfc\include\afxwin2.inl

; 628  : 	{ ASSERT(::IsWindow(m_hWnd)); return (int)::SendMessage(m_hWnd, BM_GETCHECK, 0, 0); }

  0006d	6a 00		 push	 0
  0006f	6a 00		 push	 0
  00071	68 f0 00 00 00	 push	 240			; 000000f0H
  00076	ff b6 48 04 00
	00		 push	 DWORD PTR [esi+1096]
  0007c	ff 15 00 00 00
	00		 call	 DWORD PTR __imp__SendMessageA@16
  00082	8b 4e 20	 mov	 ecx, DWORD PTR [esi+32]
; File D:\git\src\IBK\IBK_DRFN\ProjSrc\SrcChartEx\ChartOCX\AddInManager\ChartCommonAddIn\RealTimeTransducerDlg.cpp

; 325  : 	if( m_btnOnFakeReal.GetCheck())

  00085	85 c0		 test	 eax, eax
  00087	74 1a		 je	 SHORT $LN3@OnChkFakeR

; 326  : 			SetTimer( 1023, 1000 / nSpeed, NULL);

  00089	33 d2		 xor	 edx, edx
  0008b	b8 e8 03 00 00	 mov	 eax, 1000		; 000003e8H
  00090	f7 f7		 div	 edi
; File C:\Program Files (x86)\Microsoft Visual Studio\2019\Community\VC\Tools\MSVC\14.29.30133\atlmfc\include\afxwin2.inl

; 152  : 	{ ASSERT(::IsWindow(m_hWnd)); return ::SetTimer(m_hWnd, nIDEvent, nElapse,

  00092	6a 00		 push	 0
  00094	50		 push	 eax
  00095	68 ff 03 00 00	 push	 1023			; 000003ffH
  0009a	51		 push	 ecx
  0009b	ff 15 00 00 00
	00		 call	 DWORD PTR __imp__SetTimer@16
; File D:\git\src\IBK\IBK_DRFN\ProjSrc\SrcChartEx\ChartOCX\AddInManager\ChartCommonAddIn\RealTimeTransducerDlg.cpp

; 326  : 			SetTimer( 1023, 1000 / nSpeed, NULL);

  000a1	eb 0c		 jmp	 SHORT $LN4@OnChkFakeR
$LN3@OnChkFakeR:
; File C:\Program Files (x86)\Microsoft Visual Studio\2019\Community\VC\Tools\MSVC\14.29.30133\atlmfc\include\afxwin2.inl

; 155  : 	{ ASSERT(::IsWindow(m_hWnd)); return ::KillTimer(m_hWnd, nIDEvent); }

  000a3	68 ff 03 00 00	 push	 1023			; 000003ffH
  000a8	51		 push	 ecx
  000a9	ff 15 00 00 00
	00		 call	 DWORD PTR __imp__KillTimer@8
$LN4@OnChkFakeR:
; File D:\git\src\IBK\IBK_DRFN\ProjSrc\SrcChartEx\ChartOCX\AddInManager\ChartCommonAddIn\RealTimeTransducerDlg.cpp

; 328  : }

  000af	8d 4d f0	 lea	 ecx, DWORD PTR _strSpeed$[ebp]
  000b2	ff 15 00 00 00
	00		 call	 DWORD PTR __imp_??1?$CStringT@DV?$StrTraitMFC_DLL@DV?$ChTraitsCRT@D@ATL@@@@@ATL@@QAE@XZ
  000b8	8b 4d f4	 mov	 ecx, DWORD PTR __$EHRec$[ebp]
  000bb	64 89 0d 00 00
	00 00		 mov	 DWORD PTR fs:0, ecx
  000c2	59		 pop	 ecx
  000c3	5f		 pop	 edi
  000c4	5e		 pop	 esi
  000c5	8b e5		 mov	 esp, ebp
  000c7	5d		 pop	 ebp
  000c8	c3		 ret	 0
_TEXT	ENDS
;	COMDAT text$x
text$x	SEGMENT
__unwindfunclet$?OnChkFakeRealOn@CRealTimeTransducerDlg@@IAEXXZ$0:
  00000	8d 4d f0	 lea	 ecx, DWORD PTR _strSpeed$[ebp]
  00003	ff 25 00 00 00
	00		 jmp	 DWORD PTR __imp_??1?$CStringT@DV?$StrTraitMFC_DLL@DV?$ChTraitsCRT@D@ATL@@@@@ATL@@QAE@XZ
  00009	cc		 int	 3
  0000a	cc		 int	 3
  0000b	cc		 int	 3
  0000c	cc		 int	 3
  0000d	cc		 int	 3
__ehhandler$?OnChkFakeRealOn@CRealTimeTransducerDlg@@IAEXXZ:
  0000e	90		 npad	 1
  0000f	90		 npad	 1
  00010	8b 54 24 08	 mov	 edx, DWORD PTR [esp+8]
  00014	8d 42 0c	 lea	 eax, DWORD PTR [edx+12]
  00017	8b 4a f0	 mov	 ecx, DWORD PTR [edx-16]
  0001a	33 c8		 xor	 ecx, eax
  0001c	e8 00 00 00 00	 call	 @__security_check_cookie@4
  00021	b8 00 00 00 00	 mov	 eax, OFFSET __ehfuncinfo$?OnChkFakeRealOn@CRealTimeTransducerDlg@@IAEXXZ
  00026	e9 00 00 00 00	 jmp	 ___CxxFrameHandler3
text$x	ENDS
?OnChkFakeRealOn@CRealTimeTransducerDlg@@IAEXXZ ENDP	; CRealTimeTransducerDlg::OnChkFakeRealOn
; Function compile flags: /Ogtp
; File D:\git\src\IBK\IBK_DRFN\ProjSrc\SrcChartEx\ChartOCX\AddInManager\ChartCommonAddIn\RealTimeTransducerDlg.cpp
; File D:\git\src\IBK\IBK_DRFN\ProjSrc\SrcChartEx\ChartOCX\AddInManager\ChartCommonAddIn\EditableListCtrl.h
; File C:\Program Files (x86)\Microsoft Visual Studio\2019\Community\VC\Tools\MSVC\14.29.30133\atlmfc\include\afxcoll.inl
; File D:\git\src\IBK\IBK_DRFN\ProjSrc\SrcChartEx\ChartOCX\AddInManager\ChartCommonAddIn\EditableListCtrl.h
; File C:\Program Files (x86)\Microsoft Visual Studio\2019\Community\VC\Tools\MSVC\14.29.30133\atlmfc\include\afxcoll.inl
; File D:\git\src\IBK\IBK_DRFN\ProjSrc\SrcChartEx\ChartOCX\AddInManager\ChartCommonAddIn\EditableListCtrl.h
; File C:\Program Files (x86)\Microsoft Visual Studio\2019\Community\VC\Tools\MSVC\14.29.30133\atlmfc\include\afxcoll.inl
; File D:\git\src\IBK\IBK_DRFN\ProjSrc\SrcChartEx\ChartOCX\AddInManager\ChartCommonAddIn\RealTimeTransducerDlg.cpp
; File C:\Program Files (x86)\Microsoft Visual Studio\2019\Community\VC\Tools\MSVC\14.29.30133\atlmfc\include\afxcoll.inl
; File D:\git\src\IBK\IBK_DRFN\ProjSrc\SrcChartEx\ChartOCX\AddInManager\ChartCommonAddIn\EditableListCtrl.h
; File C:\Program Files (x86)\Microsoft Visual Studio\2019\Community\VC\Tools\MSVC\14.29.30133\atlmfc\include\afxcoll.inl
; File D:\git\src\IBK\IBK_DRFN\ProjSrc\SrcChartEx\ChartOCX\AddInManager\ChartCommonAddIn\EditableListCtrl.h
; File C:\Program Files (x86)\Microsoft Visual Studio\2019\Community\VC\Tools\MSVC\14.29.30133\atlmfc\include\afxcoll.inl
; File D:\git\src\IBK\IBK_DRFN\ProjSrc\SrcChartEx\ChartOCX\AddInManager\ChartCommonAddIn\EditableListCtrl.h
; File C:\Program Files (x86)\Microsoft Visual Studio\2019\Community\VC\Tools\MSVC\14.29.30133\atlmfc\include\afxcoll.inl
; File D:\git\src\IBK\IBK_DRFN\ProjSrc\SrcChartEx\ChartOCX\AddInManager\ChartCommonAddIn\EditableListCtrl.h
; File D:\git\src\IBK\IBK_DRFN\ProjSrc\SrcChartEx\ChartOCX\AddInManager\ChartCommonAddIn\RealTimeTransducerDlg.cpp
; File C:\Program Files (x86)\Microsoft Visual Studio\2019\Community\VC\Tools\MSVC\14.29.30133\atlmfc\include\afxcoll.inl
; File D:\git\src\IBK\IBK_DRFN\ProjSrc\SrcChartEx\ChartOCX\AddInManager\ChartCommonAddIn\RealTimeTransducerDlg.cpp
; File C:\Program Files (x86)\Microsoft Visual Studio\2019\Community\VC\Tools\MSVC\14.29.30133\atlmfc\include\afxwin2.inl
; File D:\git\src\IBK\IBK_DRFN\ProjSrc\SrcChartEx\ChartOCX\AddInManager\ChartCommonAddIn\RealTimeTransducerDlg.cpp
; File C:\Program Files (x86)\Microsoft Visual Studio\2019\Community\VC\Tools\MSVC\14.29.30133\atlmfc\include\afxwin2.inl
; File D:\git\src\IBK\IBK_DRFN\ProjSrc\SrcChartEx\ChartOCX\AddInManager\ChartCommonAddIn\RealTimeTransducerDlg.cpp
; File C:\Program Files (x86)\Microsoft Visual Studio\2019\Community\VC\Tools\MSVC\14.29.30133\atlmfc\include\afxcoll.inl
; File D:\git\src\IBK\IBK_DRFN\ProjSrc\SrcChartEx\ChartOCX\AddInManager\ChartCommonAddIn\RealTimeTransducerDlg.cpp
;	COMDAT ?OnInitDialog@CRealTimeTransducerDlg@@MAEHXZ
_TEXT	SEGMENT
_strSpeed$ = -16					; size = 4
__$EHRec$ = -12						; size = 12
?OnInitDialog@CRealTimeTransducerDlg@@MAEHXZ PROC	; CRealTimeTransducerDlg::OnInitDialog, COMDAT
; _this$ = ecx

; 287  : {

  00000	55		 push	 ebp
  00001	8b ec		 mov	 ebp, esp
  00003	6a ff		 push	 -1
  00005	68 00 00 00 00	 push	 __ehhandler$?OnInitDialog@CRealTimeTransducerDlg@@MAEHXZ
  0000a	64 a1 00 00 00
	00		 mov	 eax, DWORD PTR fs:0
  00010	50		 push	 eax
  00011	51		 push	 ecx
  00012	53		 push	 ebx
  00013	56		 push	 esi
  00014	57		 push	 edi
  00015	a1 00 00 00 00	 mov	 eax, DWORD PTR ___security_cookie
  0001a	33 c5		 xor	 eax, ebp
  0001c	50		 push	 eax
  0001d	8d 45 f4	 lea	 eax, DWORD PTR __$EHRec$[ebp]
  00020	64 a3 00 00 00
	00		 mov	 DWORD PTR fs:0, eax
  00026	8b f9		 mov	 edi, ecx

; 288  : 	CDialog::OnInitDialog();

  00028	e8 00 00 00 00	 call	 ?OnInitDialog@CDialog@@UAEHXZ ; CDialog::OnInitDialog

; 289  : 	
; 290  : 	// TODO: Add extra initialization here
; 291  : 
; 292  : 	// Init Real State
; 293  : 	m_lcRealState.InsertColumn( 0, "", LVCFMT_LEFT, 100);

  0002d	8d b7 28 05 00
	00		 lea	 esi, DWORD PTR [edi+1320]
; File D:\git\src\IBK\IBK_DRFN\ProjSrc\SrcChartEx\ChartOCX\AddInManager\ChartCommonAddIn\EditableListCtrl.h

; 130  : 			{	m_bEditableColumn.Add( 2);	return CListCtrl::InsertColumn( nCol, lpszColumnHeading, nFormat, nWidth, nSubItem);	}

  00033	8d 8e 80 00 00
	00		 lea	 ecx, DWORD PTR [esi+128]
; File C:\Program Files (x86)\Microsoft Visual Studio\2019\Community\VC\Tools\MSVC\14.29.30133\atlmfc\include\afxcoll.inl

; 51   : 		SetAtGrow(nIndex, newElement);

  00039	6a 02		 push	 2
  0003b	ff 71 08	 push	 DWORD PTR [ecx+8]
  0003e	e8 00 00 00 00	 call	 ?SetAtGrow@CByteArray@@QAEXHE@Z ; CByteArray::SetAtGrow
; File D:\git\src\IBK\IBK_DRFN\ProjSrc\SrcChartEx\ChartOCX\AddInManager\ChartCommonAddIn\EditableListCtrl.h

; 130  : 			{	m_bEditableColumn.Add( 2);	return CListCtrl::InsertColumn( nCol, lpszColumnHeading, nFormat, nWidth, nSubItem);	}

  00043	6a ff		 push	 -1
  00045	6a 64		 push	 100			; 00000064H
  00047	6a 00		 push	 0
  00049	68 00 00 00 00	 push	 OFFSET ??_C@_06OGBBMCPL@?F?P?E?$LG?$LI?m@
  0004e	6a 00		 push	 0
  00050	8b ce		 mov	 ecx, esi
  00052	e8 00 00 00 00	 call	 ?InsertColumn@CListCtrl@@QAEHHPBDHHH@Z ; CListCtrl::InsertColumn
; File C:\Program Files (x86)\Microsoft Visual Studio\2019\Community\VC\Tools\MSVC\14.29.30133\atlmfc\include\afxcoll.inl

; 42   : 		if( nIndex < 0 || nIndex >= m_nSize )

  00057	83 bf b0 05 00
	00 00		 cmp	 DWORD PTR [edi+1456], 0
  0005e	0f 8e 51 01 00
	00		 jle	 $LN54@OnInitDial

; 57   : 	{ return ElementAt(nIndex); }

  00064	8b 87 ac 05 00
	00		 mov	 eax, DWORD PTR [edi+1452]
; File D:\git\src\IBK\IBK_DRFN\ProjSrc\SrcChartEx\ChartOCX\AddInManager\ChartCommonAddIn\EditableListCtrl.h

; 130  : 			{	m_bEditableColumn.Add( 2);	return CListCtrl::InsertColumn( nCol, lpszColumnHeading, nFormat, nWidth, nSubItem);	}

  0006a	8d 8e 80 00 00
	00		 lea	 ecx, DWORD PTR [esi+128]
; File C:\Program Files (x86)\Microsoft Visual Studio\2019\Community\VC\Tools\MSVC\14.29.30133\atlmfc\include\afxcoll.inl

; 51   : 		SetAtGrow(nIndex, newElement);

  00070	6a 02		 push	 2
; File D:\git\src\IBK\IBK_DRFN\ProjSrc\SrcChartEx\ChartOCX\AddInManager\ChartCommonAddIn\RealTimeTransducerDlg.cpp

; 294  : 	m_lcRealState.m_bEditableColumn[ 0] = 0;

  00072	c6 00 00	 mov	 BYTE PTR [eax], 0
; File C:\Program Files (x86)\Microsoft Visual Studio\2019\Community\VC\Tools\MSVC\14.29.30133\atlmfc\include\afxcoll.inl

; 51   : 		SetAtGrow(nIndex, newElement);

  00075	ff 71 08	 push	 DWORD PTR [ecx+8]
  00078	e8 00 00 00 00	 call	 ?SetAtGrow@CByteArray@@QAEXHE@Z ; CByteArray::SetAtGrow
; File D:\git\src\IBK\IBK_DRFN\ProjSrc\SrcChartEx\ChartOCX\AddInManager\ChartCommonAddIn\EditableListCtrl.h

; 130  : 			{	m_bEditableColumn.Add( 2);	return CListCtrl::InsertColumn( nCol, lpszColumnHeading, nFormat, nWidth, nSubItem);	}

  0007d	6a ff		 push	 -1
  0007f	6a 64		 push	 100			; 00000064H
  00081	6a 01		 push	 1
  00083	68 00 00 00 00	 push	 OFFSET ??_C@_02JBAIIMJO@?$LA?$KK@
  00088	6a 01		 push	 1
  0008a	8b ce		 mov	 ecx, esi
  0008c	e8 00 00 00 00	 call	 ?InsertColumn@CListCtrl@@QAEHHPBDHHH@Z ; CListCtrl::InsertColumn
  00091	8d 8e 80 00 00
	00		 lea	 ecx, DWORD PTR [esi+128]
; File C:\Program Files (x86)\Microsoft Visual Studio\2019\Community\VC\Tools\MSVC\14.29.30133\atlmfc\include\afxcoll.inl

; 51   : 		SetAtGrow(nIndex, newElement);

  00097	6a 02		 push	 2
  00099	ff 71 08	 push	 DWORD PTR [ecx+8]
  0009c	e8 00 00 00 00	 call	 ?SetAtGrow@CByteArray@@QAEXHE@Z ; CByteArray::SetAtGrow
; File D:\git\src\IBK\IBK_DRFN\ProjSrc\SrcChartEx\ChartOCX\AddInManager\ChartCommonAddIn\EditableListCtrl.h

; 130  : 			{	m_bEditableColumn.Add( 2);	return CListCtrl::InsertColumn( nCol, lpszColumnHeading, nFormat, nWidth, nSubItem);	}

  000a1	6a ff		 push	 -1
  000a3	6a 32		 push	 50			; 00000032H
  000a5	6a 02		 push	 2
  000a7	68 00 00 00 00	 push	 OFFSET ??_C@_06ODAHLMJK@?$LN?G?$LN?C?$LA?$KD@
  000ac	6a 02		 push	 2
  000ae	8b ce		 mov	 ecx, esi
  000b0	e8 00 00 00 00	 call	 ?InsertColumn@CListCtrl@@QAEHHPBDHHH@Z ; CListCtrl::InsertColumn
  000b5	8d 8e 80 00 00
	00		 lea	 ecx, DWORD PTR [esi+128]
; File C:\Program Files (x86)\Microsoft Visual Studio\2019\Community\VC\Tools\MSVC\14.29.30133\atlmfc\include\afxcoll.inl

; 51   : 		SetAtGrow(nIndex, newElement);

  000bb	6a 02		 push	 2
  000bd	ff 71 08	 push	 DWORD PTR [ecx+8]
  000c0	e8 00 00 00 00	 call	 ?SetAtGrow@CByteArray@@QAEXHE@Z ; CByteArray::SetAtGrow
; File D:\git\src\IBK\IBK_DRFN\ProjSrc\SrcChartEx\ChartOCX\AddInManager\ChartCommonAddIn\EditableListCtrl.h

; 130  : 			{	m_bEditableColumn.Add( 2);	return CListCtrl::InsertColumn( nCol, lpszColumnHeading, nFormat, nWidth, nSubItem);	}

  000c5	6a ff		 push	 -1
  000c7	6a 3c		 push	 60			; 0000003cH
  000c9	6a 01		 push	 1
  000cb	68 00 00 00 00	 push	 OFFSET ??_C@_05NFMIDMMK@Delta@
  000d0	6a 03		 push	 3
  000d2	8b ce		 mov	 ecx, esi
  000d4	e8 00 00 00 00	 call	 ?InsertColumn@CListCtrl@@QAEHHPBDHHH@Z ; CListCtrl::InsertColumn
  000d9	8d 8e 80 00 00
	00		 lea	 ecx, DWORD PTR [esi+128]
; File C:\Program Files (x86)\Microsoft Visual Studio\2019\Community\VC\Tools\MSVC\14.29.30133\atlmfc\include\afxcoll.inl

; 51   : 		SetAtGrow(nIndex, newElement);

  000df	6a 02		 push	 2
  000e1	ff 71 08	 push	 DWORD PTR [ecx+8]
  000e4	e8 00 00 00 00	 call	 ?SetAtGrow@CByteArray@@QAEXHE@Z ; CByteArray::SetAtGrow
; File D:\git\src\IBK\IBK_DRFN\ProjSrc\SrcChartEx\ChartOCX\AddInManager\ChartCommonAddIn\EditableListCtrl.h

; 130  : 			{	m_bEditableColumn.Add( 2);	return CListCtrl::InsertColumn( nCol, lpszColumnHeading, nFormat, nWidth, nSubItem);	}

  000e9	6a ff		 push	 -1
  000eb	6a 32		 push	 50			; 00000032H
  000ed	6a 01		 push	 1
  000ef	68 00 00 00 00	 push	 OFFSET ??_C@_03BDHINOBA@RDC@
  000f4	6a 04		 push	 4
  000f6	8b ce		 mov	 ecx, esi
  000f8	e8 00 00 00 00	 call	 ?InsertColumn@CListCtrl@@QAEHHPBDHHH@Z ; CListCtrl::InsertColumn
; File D:\git\src\IBK\IBK_DRFN\ProjSrc\SrcChartEx\ChartOCX\AddInManager\ChartCommonAddIn\RealTimeTransducerDlg.cpp

; 300  : 	CString strSpeed;

  000fd	8d 4d f0	 lea	 ecx, DWORD PTR _strSpeed$[ebp]
  00100	ff 15 00 00 00
	00		 call	 DWORD PTR __imp_??0?$CStringT@DV?$StrTraitMFC_DLL@DV?$ChTraitsCRT@D@ATL@@@@@ATL@@QAE@XZ
; File C:\Program Files (x86)\Microsoft Visual Studio\2019\Community\VC\Tools\MSVC\14.29.30133\atlmfc\include\afxcoll.inl

; 44   : 		return m_pData[nIndex]; }

  00106	8b 1d 00 00 00
	00		 mov	 ebx, DWORD PTR __imp__SendMessageA@16
  0010c	be 01 00 00 00	 mov	 esi, 1
; File D:\git\src\IBK\IBK_DRFN\ProjSrc\SrcChartEx\ChartOCX\AddInManager\ChartCommonAddIn\RealTimeTransducerDlg.cpp

; 300  : 	CString strSpeed;

  00111	c7 45 fc 00 00
	00 00		 mov	 DWORD PTR __$EHRec$[ebp+8], 0
  00118	0f 1f 84 00 00
	00 00 00	 npad	 8
$LL4@OnInitDial:

; 302  : 	{
; 303  : 		strSpeed.Format( "%d", i);

  00120	56		 push	 esi
  00121	8d 45 f0	 lea	 eax, DWORD PTR _strSpeed$[ebp]
  00124	68 00 00 00 00	 push	 OFFSET ??_C@_02DPKJAMEF@?$CFd@
  00129	50		 push	 eax
  0012a	ff 15 00 00 00
	00		 call	 DWORD PTR __imp_?Format@?$CStringT@DV?$StrTraitMFC_DLL@DV?$ChTraitsCRT@D@ATL@@@@@ATL@@QAAXPBDZZ
  00130	83 c4 0c	 add	 esp, 12			; 0000000cH
; File C:\Program Files (x86)\Microsoft Visual Studio\2019\Community\VC\Tools\MSVC\14.29.30133\atlmfc\include\afxwin2.inl

; 795  : 	{ ASSERT(::IsWindow(m_hWnd)); return (int)::SendMessage(m_hWnd, CB_ADDSTRING, 0, (LPARAM)lpszString); }

  00133	ff 75 f0	 push	 DWORD PTR _strSpeed$[ebp]
  00136	6a 00		 push	 0
  00138	68 43 01 00 00	 push	 323			; 00000143H
  0013d	ff b7 c8 03 00
	00		 push	 DWORD PTR [edi+968]
  00143	ff d3		 call	 ebx
; File D:\git\src\IBK\IBK_DRFN\ProjSrc\SrcChartEx\ChartOCX\AddInManager\ChartCommonAddIn\RealTimeTransducerDlg.cpp

; 301  : 	for( int i = 1; i < 11; i++)

  00145	46		 inc	 esi
  00146	83 fe 0b	 cmp	 esi, 11			; 0000000bH
  00149	7c d5		 jl	 SHORT $LL4@OnInitDial
; File C:\Program Files (x86)\Microsoft Visual Studio\2019\Community\VC\Tools\MSVC\14.29.30133\atlmfc\include\afxwin2.inl

; 767  : 	{ ASSERT(::IsWindow(m_hWnd)); return (int)::SendMessage(m_hWnd, CB_SETCURSEL, nSelect, 0); }

  0014b	6a 00		 push	 0
  0014d	6a 00		 push	 0
  0014f	68 4e 01 00 00	 push	 334			; 0000014eH
  00154	ff b7 c8 03 00
	00		 push	 DWORD PTR [edi+968]
  0015a	ff d3		 call	 ebx

; 795  : 	{ ASSERT(::IsWindow(m_hWnd)); return (int)::SendMessage(m_hWnd, CB_ADDSTRING, 0, (LPARAM)lpszString); }

  0015c	68 00 00 00 00	 push	 OFFSET ??_C@_04IMIHFAMF@?A?V?$LN?D@
  00161	6a 00		 push	 0
  00163	68 43 01 00 00	 push	 323			; 00000143H
  00168	ff b7 48 03 00
	00		 push	 DWORD PTR [edi+840]
  0016e	ff d3		 call	 ebx
  00170	68 00 00 00 00	 push	 OFFSET ??_C@_02GMLAAMD@FX@
  00175	6a 00		 push	 0
  00177	68 43 01 00 00	 push	 323			; 00000143H
  0017c	ff b7 48 03 00
	00		 push	 DWORD PTR [edi+840]
  00182	ff d3		 call	 ebx

; 767  : 	{ ASSERT(::IsWindow(m_hWnd)); return (int)::SendMessage(m_hWnd, CB_SETCURSEL, nSelect, 0); }

  00184	6a 00		 push	 0
  00186	6a 00		 push	 0
  00188	68 4e 01 00 00	 push	 334			; 0000014eH
  0018d	ff b7 48 03 00
	00		 push	 DWORD PTR [edi+840]
  00193	ff d3		 call	 ebx
; File D:\git\src\IBK\IBK_DRFN\ProjSrc\SrcChartEx\ChartOCX\AddInManager\ChartCommonAddIn\RealTimeTransducerDlg.cpp

; 311  : 	return TRUE;  // return TRUE unless you set the focus to a control

  00195	8d 4d f0	 lea	 ecx, DWORD PTR _strSpeed$[ebp]
  00198	ff 15 00 00 00
	00		 call	 DWORD PTR __imp_??1?$CStringT@DV?$StrTraitMFC_DLL@DV?$ChTraitsCRT@D@ATL@@@@@ATL@@QAE@XZ
  0019e	b8 01 00 00 00	 mov	 eax, 1

; 313  : }

  001a3	8b 4d f4	 mov	 ecx, DWORD PTR __$EHRec$[ebp]
  001a6	64 89 0d 00 00
	00 00		 mov	 DWORD PTR fs:0, ecx
  001ad	59		 pop	 ecx
  001ae	5f		 pop	 edi
  001af	5e		 pop	 esi
  001b0	5b		 pop	 ebx
  001b1	8b e5		 mov	 esp, ebp
  001b3	5d		 pop	 ebp
  001b4	c3		 ret	 0
$LN54@OnInitDial:
; File C:\Program Files (x86)\Microsoft Visual Studio\2019\Community\VC\Tools\MSVC\14.29.30133\atlmfc\include\afxcoll.inl

; 43   : 			AfxThrowInvalidArgException();

  001b5	e8 00 00 00 00	 call	 ?AfxThrowInvalidArgException@@YGXXZ ; AfxThrowInvalidArgException
$LN52@OnInitDial:
  001ba	cc		 int	 3
_TEXT	ENDS
;	COMDAT text$x
text$x	SEGMENT
__unwindfunclet$?OnInitDialog@CRealTimeTransducerDlg@@MAEHXZ$0:
  00000	8d 4d f0	 lea	 ecx, DWORD PTR _strSpeed$[ebp]
  00003	ff 25 00 00 00
	00		 jmp	 DWORD PTR __imp_??1?$CStringT@DV?$StrTraitMFC_DLL@DV?$ChTraitsCRT@D@ATL@@@@@ATL@@QAE@XZ
  00009	cc		 int	 3
  0000a	cc		 int	 3
  0000b	cc		 int	 3
  0000c	cc		 int	 3
  0000d	cc		 int	 3
__ehhandler$?OnInitDialog@CRealTimeTransducerDlg@@MAEHXZ:
  0000e	90		 npad	 1
  0000f	90		 npad	 1
  00010	8b 54 24 08	 mov	 edx, DWORD PTR [esp+8]
  00014	8d 42 0c	 lea	 eax, DWORD PTR [edx+12]
  00017	8b 4a ec	 mov	 ecx, DWORD PTR [edx-20]
  0001a	33 c8		 xor	 ecx, eax
  0001c	e8 00 00 00 00	 call	 @__security_check_cookie@4
  00021	b8 00 00 00 00	 mov	 eax, OFFSET __ehfuncinfo$?OnInitDialog@CRealTimeTransducerDlg@@MAEHXZ
  00026	e9 00 00 00 00	 jmp	 ___CxxFrameHandler3
text$x	ENDS
?OnInitDialog@CRealTimeTransducerDlg@@MAEHXZ ENDP	; CRealTimeTransducerDlg::OnInitDialog
; Function compile flags: /Ogtp
; File D:\git\src\IBK\IBK_DRFN\ProjSrc\SrcChartEx\ChartOCX\AddInManager\ChartCommonAddIn\RealTimeTransducerDlg.cpp
;	COMDAT ?OnBtnYear@CRealTimeTransducerDlg@@IAEXXZ
_TEXT	SEGMENT
_this$1$ = -4						; size = 4
?OnBtnYear@CRealTimeTransducerDlg@@IAEXXZ PROC		; CRealTimeTransducerDlg::OnBtnYear, COMDAT
; _this$ = ecx

; 279  : {

  00000	55		 push	 ebp
  00001	8b ec		 mov	 ebp, esp
  00003	51		 push	 ecx
  00004	53		 push	 ebx
  00005	56		 push	 esi
  00006	8b c1		 mov	 eax, ecx
  00008	57		 push	 edi

; 280  : 	// TODO: Add your control notification handler code here
; 281  : 	m_nAddTime -= m_nAddTime % 10000000000;

  00009	6a 02		 push	 2
  0000b	68 00 e4 0b 54	 push	 1410065408		; 540be400H
  00010	8b 98 44 07 00
	00		 mov	 ebx, DWORD PTR [eax+1860]
  00016	89 45 fc	 mov	 DWORD PTR _this$1$[ebp], eax
  00019	8b 7b 04	 mov	 edi, DWORD PTR [ebx+4]
  0001c	8b 33		 mov	 esi, DWORD PTR [ebx]
  0001e	57		 push	 edi
  0001f	56		 push	 esi
  00020	e8 00 00 00 00	 call	 __allrem
  00025	2b f0		 sub	 esi, eax
  00027	89 33		 mov	 DWORD PTR [ebx], esi

; 282  : 	m_nAddTime = CDataConversion::CalcTimeSum( m_nAddTime, 10000000000);

  00029	8b 75 fc	 mov	 esi, DWORD PTR _this$1$[ebp]
  0002c	1b fa		 sbb	 edi, edx
  0002e	6a 00		 push	 0
  00030	89 7b 04	 mov	 DWORD PTR [ebx+4], edi
  00033	6a 02		 push	 2
  00035	8b 86 44 07 00
	00		 mov	 eax, DWORD PTR [esi+1860]
  0003b	68 00 e4 0b 54	 push	 1410065408		; 540be400H
  00040	ff 70 04	 push	 DWORD PTR [eax+4]
  00043	ff 30		 push	 DWORD PTR [eax]
  00045	e8 00 00 00 00	 call	 ?CalcTimeSum@CDataConversion@@SA_J_J0H@Z ; CDataConversion::CalcTimeSum
  0004a	8b 8e 44 07 00
	00		 mov	 ecx, DWORD PTR [esi+1860]
  00050	83 c4 14	 add	 esp, 20			; 00000014H
  00053	89 01		 mov	 DWORD PTR [ecx], eax

; 283  : 	UpdateTime();

  00055	6a 00		 push	 0
  00057	89 51 04	 mov	 DWORD PTR [ecx+4], edx
  0005a	8b ce		 mov	 ecx, esi
  0005c	6a 00		 push	 0
  0005e	e8 00 00 00 00	 call	 ?UpdateTime@CRealTimeTransducerDlg@@QAEXPAUIPacketManager000000@@PAUIRealReceiver@@@Z ; CRealTimeTransducerDlg::UpdateTime
  00063	5f		 pop	 edi
  00064	5e		 pop	 esi
  00065	5b		 pop	 ebx

; 284  : }

  00066	8b e5		 mov	 esp, ebp
  00068	5d		 pop	 ebp
  00069	c3		 ret	 0
?OnBtnYear@CRealTimeTransducerDlg@@IAEXXZ ENDP		; CRealTimeTransducerDlg::OnBtnYear
_TEXT	ENDS
; Function compile flags: /Ogtp
; File D:\git\src\IBK\IBK_DRFN\ProjSrc\SrcChartEx\ChartOCX\AddInManager\ChartCommonAddIn\RealTimeTransducerDlg.cpp
;	COMDAT ?OnBtnMonth@CRealTimeTransducerDlg@@IAEXXZ
_TEXT	SEGMENT
_this$1$ = -4						; size = 4
?OnBtnMonth@CRealTimeTransducerDlg@@IAEXXZ PROC		; CRealTimeTransducerDlg::OnBtnMonth, COMDAT
; _this$ = ecx

; 271  : {

  00000	55		 push	 ebp
  00001	8b ec		 mov	 ebp, esp
  00003	51		 push	 ecx
  00004	53		 push	 ebx
  00005	56		 push	 esi
  00006	8b c1		 mov	 eax, ecx
  00008	57		 push	 edi

; 272  : 	// TODO: Add your control notification handler code here
; 273  : 	m_nAddTime -= m_nAddTime % 100000000;

  00009	6a 00		 push	 0
  0000b	68 00 e1 f5 05	 push	 100000000		; 05f5e100H
  00010	8b 98 44 07 00
	00		 mov	 ebx, DWORD PTR [eax+1860]
  00016	89 45 fc	 mov	 DWORD PTR _this$1$[ebp], eax
  00019	8b 7b 04	 mov	 edi, DWORD PTR [ebx+4]
  0001c	8b 33		 mov	 esi, DWORD PTR [ebx]
  0001e	57		 push	 edi
  0001f	56		 push	 esi
  00020	e8 00 00 00 00	 call	 __allrem
  00025	2b f0		 sub	 esi, eax
  00027	89 33		 mov	 DWORD PTR [ebx], esi

; 274  : 	m_nAddTime = CDataConversion::CalcTimeSum( m_nAddTime, 100000000);

  00029	8b 75 fc	 mov	 esi, DWORD PTR _this$1$[ebp]
  0002c	1b fa		 sbb	 edi, edx
  0002e	6a 00		 push	 0
  00030	89 7b 04	 mov	 DWORD PTR [ebx+4], edi
  00033	6a 00		 push	 0
  00035	8b 86 44 07 00
	00		 mov	 eax, DWORD PTR [esi+1860]
  0003b	68 00 e1 f5 05	 push	 100000000		; 05f5e100H
  00040	ff 70 04	 push	 DWORD PTR [eax+4]
  00043	ff 30		 push	 DWORD PTR [eax]
  00045	e8 00 00 00 00	 call	 ?CalcTimeSum@CDataConversion@@SA_J_J0H@Z ; CDataConversion::CalcTimeSum
  0004a	8b 8e 44 07 00
	00		 mov	 ecx, DWORD PTR [esi+1860]
  00050	83 c4 14	 add	 esp, 20			; 00000014H
  00053	89 01		 mov	 DWORD PTR [ecx], eax

; 275  : 	UpdateTime();

  00055	6a 00		 push	 0
  00057	89 51 04	 mov	 DWORD PTR [ecx+4], edx
  0005a	8b ce		 mov	 ecx, esi
  0005c	6a 00		 push	 0
  0005e	e8 00 00 00 00	 call	 ?UpdateTime@CRealTimeTransducerDlg@@QAEXPAUIPacketManager000000@@PAUIRealReceiver@@@Z ; CRealTimeTransducerDlg::UpdateTime
  00063	5f		 pop	 edi
  00064	5e		 pop	 esi
  00065	5b		 pop	 ebx

; 276  : }

  00066	8b e5		 mov	 esp, ebp
  00068	5d		 pop	 ebp
  00069	c3		 ret	 0
?OnBtnMonth@CRealTimeTransducerDlg@@IAEXXZ ENDP		; CRealTimeTransducerDlg::OnBtnMonth
_TEXT	ENDS
; Function compile flags: /Ogtp
; File D:\git\src\IBK\IBK_DRFN\ProjSrc\SrcChartEx\ChartOCX\AddInManager\ChartCommonAddIn\RealTimeTransducerDlg.cpp
;	COMDAT ?OnBtnDay@CRealTimeTransducerDlg@@IAEXXZ
_TEXT	SEGMENT
_this$1$ = -4						; size = 4
?OnBtnDay@CRealTimeTransducerDlg@@IAEXXZ PROC		; CRealTimeTransducerDlg::OnBtnDay, COMDAT
; _this$ = ecx

; 263  : {

  00000	55		 push	 ebp
  00001	8b ec		 mov	 ebp, esp
  00003	51		 push	 ecx
  00004	53		 push	 ebx
  00005	56		 push	 esi
  00006	8b c1		 mov	 eax, ecx
  00008	57		 push	 edi

; 264  : 	// TODO: Add your control notification handler code here
; 265  : 	m_nAddTime -= m_nAddTime % 1000000;

  00009	6a 00		 push	 0
  0000b	68 40 42 0f 00	 push	 1000000			; 000f4240H
  00010	8b 98 44 07 00
	00		 mov	 ebx, DWORD PTR [eax+1860]
  00016	89 45 fc	 mov	 DWORD PTR _this$1$[ebp], eax
  00019	8b 7b 04	 mov	 edi, DWORD PTR [ebx+4]
  0001c	8b 33		 mov	 esi, DWORD PTR [ebx]
  0001e	57		 push	 edi
  0001f	56		 push	 esi
  00020	e8 00 00 00 00	 call	 __allrem
  00025	2b f0		 sub	 esi, eax
  00027	89 33		 mov	 DWORD PTR [ebx], esi

; 266  : 	m_nAddTime = CDataConversion::CalcTimeSum( m_nAddTime, 1000000);

  00029	8b 75 fc	 mov	 esi, DWORD PTR _this$1$[ebp]
  0002c	1b fa		 sbb	 edi, edx
  0002e	6a 00		 push	 0
  00030	89 7b 04	 mov	 DWORD PTR [ebx+4], edi
  00033	6a 00		 push	 0
  00035	8b 86 44 07 00
	00		 mov	 eax, DWORD PTR [esi+1860]
  0003b	68 40 42 0f 00	 push	 1000000			; 000f4240H
  00040	ff 70 04	 push	 DWORD PTR [eax+4]
  00043	ff 30		 push	 DWORD PTR [eax]
  00045	e8 00 00 00 00	 call	 ?CalcTimeSum@CDataConversion@@SA_J_J0H@Z ; CDataConversion::CalcTimeSum
  0004a	8b 8e 44 07 00
	00		 mov	 ecx, DWORD PTR [esi+1860]
  00050	83 c4 14	 add	 esp, 20			; 00000014H
  00053	89 01		 mov	 DWORD PTR [ecx], eax

; 267  : 	UpdateTime();

  00055	6a 00		 push	 0
  00057	89 51 04	 mov	 DWORD PTR [ecx+4], edx
  0005a	8b ce		 mov	 ecx, esi
  0005c	6a 00		 push	 0
  0005e	e8 00 00 00 00	 call	 ?UpdateTime@CRealTimeTransducerDlg@@QAEXPAUIPacketManager000000@@PAUIRealReceiver@@@Z ; CRealTimeTransducerDlg::UpdateTime
  00063	5f		 pop	 edi
  00064	5e		 pop	 esi
  00065	5b		 pop	 ebx

; 268  : }

  00066	8b e5		 mov	 esp, ebp
  00068	5d		 pop	 ebp
  00069	c3		 ret	 0
?OnBtnDay@CRealTimeTransducerDlg@@IAEXXZ ENDP		; CRealTimeTransducerDlg::OnBtnDay
_TEXT	ENDS
; Function compile flags: /Ogtp
; File D:\git\src\IBK\IBK_DRFN\ProjSrc\SrcChartEx\ChartOCX\AddInManager\ChartCommonAddIn\RealTimeTransducerDlg.cpp
;	COMDAT ?OnBtnHour@CRealTimeTransducerDlg@@IAEXXZ
_TEXT	SEGMENT
_this$1$ = -4						; size = 4
?OnBtnHour@CRealTimeTransducerDlg@@IAEXXZ PROC		; CRealTimeTransducerDlg::OnBtnHour, COMDAT
; _this$ = ecx

; 255  : {

  00000	55		 push	 ebp
  00001	8b ec		 mov	 ebp, esp
  00003	51		 push	 ecx
  00004	53		 push	 ebx
  00005	56		 push	 esi
  00006	8b c1		 mov	 eax, ecx
  00008	57		 push	 edi

; 256  : 	// TODO: Add your control notification handler code here
; 257  : 	m_nAddTime -= m_nAddTime % 10000;

  00009	6a 00		 push	 0
  0000b	68 10 27 00 00	 push	 10000			; 00002710H
  00010	8b 98 44 07 00
	00		 mov	 ebx, DWORD PTR [eax+1860]
  00016	89 45 fc	 mov	 DWORD PTR _this$1$[ebp], eax
  00019	8b 7b 04	 mov	 edi, DWORD PTR [ebx+4]
  0001c	8b 33		 mov	 esi, DWORD PTR [ebx]
  0001e	57		 push	 edi
  0001f	56		 push	 esi
  00020	e8 00 00 00 00	 call	 __allrem
  00025	2b f0		 sub	 esi, eax
  00027	89 33		 mov	 DWORD PTR [ebx], esi

; 258  : 	m_nAddTime = CDataConversion::CalcTimeSum( m_nAddTime, 10000);

  00029	8b 75 fc	 mov	 esi, DWORD PTR _this$1$[ebp]
  0002c	1b fa		 sbb	 edi, edx
  0002e	6a 00		 push	 0
  00030	89 7b 04	 mov	 DWORD PTR [ebx+4], edi
  00033	6a 00		 push	 0
  00035	8b 86 44 07 00
	00		 mov	 eax, DWORD PTR [esi+1860]
  0003b	68 10 27 00 00	 push	 10000			; 00002710H
  00040	ff 70 04	 push	 DWORD PTR [eax+4]
  00043	ff 30		 push	 DWORD PTR [eax]
  00045	e8 00 00 00 00	 call	 ?CalcTimeSum@CDataConversion@@SA_J_J0H@Z ; CDataConversion::CalcTimeSum
  0004a	8b 8e 44 07 00
	00		 mov	 ecx, DWORD PTR [esi+1860]
  00050	83 c4 14	 add	 esp, 20			; 00000014H
  00053	89 01		 mov	 DWORD PTR [ecx], eax

; 259  : 	UpdateTime();

  00055	6a 00		 push	 0
  00057	89 51 04	 mov	 DWORD PTR [ecx+4], edx
  0005a	8b ce		 mov	 ecx, esi
  0005c	6a 00		 push	 0
  0005e	e8 00 00 00 00	 call	 ?UpdateTime@CRealTimeTransducerDlg@@QAEXPAUIPacketManager000000@@PAUIRealReceiver@@@Z ; CRealTimeTransducerDlg::UpdateTime
  00063	5f		 pop	 edi
  00064	5e		 pop	 esi
  00065	5b		 pop	 ebx

; 260  : }

  00066	8b e5		 mov	 esp, ebp
  00068	5d		 pop	 ebp
  00069	c3		 ret	 0
?OnBtnHour@CRealTimeTransducerDlg@@IAEXXZ ENDP		; CRealTimeTransducerDlg::OnBtnHour
_TEXT	ENDS
; Function compile flags: /Ogtp
; File D:\git\src\IBK\IBK_DRFN\ProjSrc\SrcChartEx\ChartOCX\AddInManager\ChartCommonAddIn\RealTimeTransducerDlg.cpp
;	COMDAT ?OnBtnMinute@CRealTimeTransducerDlg@@IAEXXZ
_TEXT	SEGMENT
_this$1$ = -4						; size = 4
?OnBtnMinute@CRealTimeTransducerDlg@@IAEXXZ PROC	; CRealTimeTransducerDlg::OnBtnMinute, COMDAT
; _this$ = ecx

; 247  : {

  00000	55		 push	 ebp
  00001	8b ec		 mov	 ebp, esp
  00003	51		 push	 ecx
  00004	53		 push	 ebx
  00005	56		 push	 esi
  00006	8b c1		 mov	 eax, ecx
  00008	57		 push	 edi

; 248  : 	// TODO: Add your control notification handler code here
; 249  : 	m_nAddTime -= m_nAddTime % 100;

  00009	6a 00		 push	 0
  0000b	6a 64		 push	 100			; 00000064H
  0000d	8b 98 44 07 00
	00		 mov	 ebx, DWORD PTR [eax+1860]
  00013	89 45 fc	 mov	 DWORD PTR _this$1$[ebp], eax
  00016	8b 7b 04	 mov	 edi, DWORD PTR [ebx+4]
  00019	8b 33		 mov	 esi, DWORD PTR [ebx]
  0001b	57		 push	 edi
  0001c	56		 push	 esi
  0001d	e8 00 00 00 00	 call	 __allrem
  00022	2b f0		 sub	 esi, eax
  00024	89 33		 mov	 DWORD PTR [ebx], esi

; 250  : 	m_nAddTime = CDataConversion::CalcTimeSum( m_nAddTime, 100);

  00026	8b 75 fc	 mov	 esi, DWORD PTR _this$1$[ebp]
  00029	1b fa		 sbb	 edi, edx
  0002b	6a 00		 push	 0
  0002d	89 7b 04	 mov	 DWORD PTR [ebx+4], edi
  00030	6a 00		 push	 0
  00032	8b 86 44 07 00
	00		 mov	 eax, DWORD PTR [esi+1860]
  00038	6a 64		 push	 100			; 00000064H
  0003a	ff 70 04	 push	 DWORD PTR [eax+4]
  0003d	ff 30		 push	 DWORD PTR [eax]
  0003f	e8 00 00 00 00	 call	 ?CalcTimeSum@CDataConversion@@SA_J_J0H@Z ; CDataConversion::CalcTimeSum
  00044	8b 8e 44 07 00
	00		 mov	 ecx, DWORD PTR [esi+1860]
  0004a	83 c4 14	 add	 esp, 20			; 00000014H
  0004d	89 01		 mov	 DWORD PTR [ecx], eax

; 251  : 	UpdateTime();

  0004f	6a 00		 push	 0
  00051	89 51 04	 mov	 DWORD PTR [ecx+4], edx
  00054	8b ce		 mov	 ecx, esi
  00056	6a 00		 push	 0
  00058	e8 00 00 00 00	 call	 ?UpdateTime@CRealTimeTransducerDlg@@QAEXPAUIPacketManager000000@@PAUIRealReceiver@@@Z ; CRealTimeTransducerDlg::UpdateTime
  0005d	5f		 pop	 edi
  0005e	5e		 pop	 esi
  0005f	5b		 pop	 ebx

; 252  : }

  00060	8b e5		 mov	 esp, ebp
  00062	5d		 pop	 ebp
  00063	c3		 ret	 0
?OnBtnMinute@CRealTimeTransducerDlg@@IAEXXZ ENDP	; CRealTimeTransducerDlg::OnBtnMinute
_TEXT	ENDS
; Function compile flags: /Ogtp
; File D:\git\src\IBK\IBK_DRFN\ProjSrc\SrcChartEx\ChartOCX\AddInManager\ChartCommonAddIn\RealTimeTransducerDlg.cpp
;	COMDAT ?OnBtnSecond@CRealTimeTransducerDlg@@IAEXXZ
_TEXT	SEGMENT
?OnBtnSecond@CRealTimeTransducerDlg@@IAEXXZ PROC	; CRealTimeTransducerDlg::OnBtnSecond, COMDAT
; _this$ = ecx

; 240  : {

  00000	56		 push	 esi
  00001	8b f1		 mov	 esi, ecx

; 241  : 	// TODO: Add your control notification handler code here
; 242  : 	m_nAddTime = CDataConversion::CalcTimeSum( m_nAddTime, 1);

  00003	6a 00		 push	 0
  00005	6a 00		 push	 0
  00007	6a 01		 push	 1
  00009	8b 86 44 07 00
	00		 mov	 eax, DWORD PTR [esi+1860]
  0000f	ff 70 04	 push	 DWORD PTR [eax+4]
  00012	ff 30		 push	 DWORD PTR [eax]
  00014	e8 00 00 00 00	 call	 ?CalcTimeSum@CDataConversion@@SA_J_J0H@Z ; CDataConversion::CalcTimeSum
  00019	8b 8e 44 07 00
	00		 mov	 ecx, DWORD PTR [esi+1860]
  0001f	83 c4 14	 add	 esp, 20			; 00000014H
  00022	89 01		 mov	 DWORD PTR [ecx], eax

; 243  : 	UpdateTime();

  00024	6a 00		 push	 0
  00026	89 51 04	 mov	 DWORD PTR [ecx+4], edx
  00029	8b ce		 mov	 ecx, esi
  0002b	6a 00		 push	 0
  0002d	e8 00 00 00 00	 call	 ?UpdateTime@CRealTimeTransducerDlg@@QAEXPAUIPacketManager000000@@PAUIRealReceiver@@@Z ; CRealTimeTransducerDlg::UpdateTime
  00032	5e		 pop	 esi

; 244  : }

  00033	c3		 ret	 0
?OnBtnSecond@CRealTimeTransducerDlg@@IAEXXZ ENDP	; CRealTimeTransducerDlg::OnBtnSecond
_TEXT	ENDS
; Function compile flags: /Ogtp
; File D:\git\src\IBK\IBK_DRFN\ProjSrc\SrcChartEx\ChartOCX\AddInManager\ChartCommonAddIn\RealTimeTransducerDlg.cpp
;	COMDAT ?OnOK@CRealTimeTransducerDlg@@MAEXXZ
_TEXT	SEGMENT
?OnOK@CRealTimeTransducerDlg@@MAEXXZ PROC		; CRealTimeTransducerDlg::OnOK, COMDAT
; _this$ = ecx

; 98   : {

  00000	56		 push	 esi
  00001	8b f1		 mov	 esi, ecx

; 99   : 	// TODO: Add extra validation here
; 100  : 	
; 101  : 	CDialog::OnOK();

  00003	e8 00 00 00 00	 call	 ?OnOK@CDialog@@MAEXXZ	; CDialog::OnOK

; 102  : 	DestroyWindow();

  00008	8b 06		 mov	 eax, DWORD PTR [esi]
  0000a	8b ce		 mov	 ecx, esi
  0000c	5e		 pop	 esi
  0000d	ff 60 68	 jmp	 DWORD PTR [eax+104]
?OnOK@CRealTimeTransducerDlg@@MAEXXZ ENDP		; CRealTimeTransducerDlg::OnOK
_TEXT	ENDS
; Function compile flags: /Ogtp
; File D:\git\src\IBK\IBK_DRFN\ProjSrc\SrcChartEx\ChartOCX\AddInManager\ChartCommonAddIn\RealTimeTransducerDlg.cpp
;	COMDAT ?OnCancel@CRealTimeTransducerDlg@@MAEXXZ
_TEXT	SEGMENT
?OnCancel@CRealTimeTransducerDlg@@MAEXXZ PROC		; CRealTimeTransducerDlg::OnCancel, COMDAT
; _this$ = ecx

; 91   : {

  00000	56		 push	 esi
  00001	8b f1		 mov	 esi, ecx

; 92   : 	// TODO: Add extra cleanup here
; 93   : 	
; 94   : 	CDialog::OnCancel();

  00003	e8 00 00 00 00	 call	 ?OnCancel@CDialog@@MAEXXZ ; CDialog::OnCancel

; 95   : 	DestroyWindow();

  00008	8b 06		 mov	 eax, DWORD PTR [esi]
  0000a	8b ce		 mov	 ecx, esi
  0000c	5e		 pop	 esi
  0000d	ff 60 68	 jmp	 DWORD PTR [eax+104]
?OnCancel@CRealTimeTransducerDlg@@MAEXXZ ENDP		; CRealTimeTransducerDlg::OnCancel
_TEXT	ENDS
; Function compile flags: /Ogtp
; File D:\git\src\IBK\IBK_DRFN\ProjSrc\SrcChartEx\ChartOCX\AddInManager\ChartCommonAddIn\RealTimeTransducerDlg.cpp
;	COMDAT ?DoDataExchange@CRealTimeTransducerDlg@@MAEXPAVCDataExchange@@@Z
_TEXT	SEGMENT
_pDX$ = 8						; size = 4
?DoDataExchange@CRealTimeTransducerDlg@@MAEXPAVCDataExchange@@@Z PROC ; CRealTimeTransducerDlg::DoDataExchange, COMDAT
; _this$ = ecx

; 50   : {

  00000	55		 push	 ebp
  00001	8b ec		 mov	 ebp, esp
  00003	56		 push	 esi

; 51   : 	CDialog::DoDataExchange(pDX);
; 52   : 	//{{AFX_DATA_MAP(CRealTimeTransducerDlg)
; 53   : 	DDX_Control(pDX, IDC_CHK_REAL_ONLY, m_btnRealOnly);

  00004	8b 75 08	 mov	 esi, DWORD PTR _pDX$[ebp]
  00007	57		 push	 edi
  00008	8b f9		 mov	 edi, ecx
  0000a	8d 87 a8 00 00
	00		 lea	 eax, DWORD PTR [edi+168]
  00010	50		 push	 eax
  00011	68 e0 5d 00 00	 push	 24032			; 00005de0H
  00016	56		 push	 esi
  00017	e8 00 00 00 00	 call	 ?DDX_Control@@YGXPAVCDataExchange@@HAAVCWnd@@@Z ; DDX_Control

; 54   : 	DDX_Control(pDX, IDC_STC_NMTR_TIME, m_stcNMTRTime);

  0001c	8d 87 28 01 00
	00		 lea	 eax, DWORD PTR [edi+296]
  00022	50		 push	 eax
  00023	68 e2 5d 00 00	 push	 24034			; 00005de2H
  00028	56		 push	 esi
  00029	e8 00 00 00 00	 call	 ?DDX_Control@@YGXPAVCDataExchange@@HAAVCWnd@@@Z ; DDX_Control

; 55   : 	DDX_Control(pDX, IDC_CMB_CLOCK_ACCELERATOR, m_cmbClockAccelerator);

  0002e	8d 87 a8 01 00
	00		 lea	 eax, DWORD PTR [edi+424]
  00034	50		 push	 eax
  00035	68 e1 5d 00 00	 push	 24033			; 00005de1H
  0003a	56		 push	 esi
  0003b	e8 00 00 00 00	 call	 ?DDX_Control@@YGXPAVCDataExchange@@HAAVCWnd@@@Z ; DDX_Control

; 56   : 	DDX_Control(pDX, IDC_STC_NMTR_CLOCK, m_stcNMTRClock);

  00040	8d 87 28 02 00
	00		 lea	 eax, DWORD PTR [edi+552]
  00046	50		 push	 eax
  00047	68 da 5d 00 00	 push	 24026			; 00005ddaH
  0004c	56		 push	 esi
  0004d	e8 00 00 00 00	 call	 ?DDX_Control@@YGXPAVCDataExchange@@HAAVCWnd@@@Z ; DDX_Control

; 57   : 	DDX_Control(pDX, IDC_CHK_CLOCK_ONLY, m_btnClockOnly);

  00052	8d 87 a8 02 00
	00		 lea	 eax, DWORD PTR [edi+680]
  00058	50		 push	 eax
  00059	68 d8 5d 00 00	 push	 24024			; 00005dd8H
  0005e	56		 push	 esi
  0005f	e8 00 00 00 00	 call	 ?DDX_Control@@YGXPAVCDataExchange@@HAAVCWnd@@@Z ; DDX_Control

; 58   : 	DDX_Control(pDX, IDC_CMB_PRICETYPE, m_cbPriceType);

  00064	8d 87 28 03 00
	00		 lea	 eax, DWORD PTR [edi+808]
  0006a	50		 push	 eax
  0006b	68 df 5d 00 00	 push	 24031			; 00005ddfH
  00070	56		 push	 esi
  00071	e8 00 00 00 00	 call	 ?DDX_Control@@YGXPAVCDataExchange@@HAAVCWnd@@@Z ; DDX_Control

; 59   : 	DDX_Control(pDX, IDC_CMB_SPEED, m_cbRealSpeed);

  00076	8d 87 a8 03 00
	00		 lea	 eax, DWORD PTR [edi+936]
  0007c	50		 push	 eax
  0007d	68 de 5d 00 00	 push	 24030			; 00005ddeH
  00082	56		 push	 esi
  00083	e8 00 00 00 00	 call	 ?DDX_Control@@YGXPAVCDataExchange@@HAAVCWnd@@@Z ; DDX_Control

; 60   : 	DDX_Control(pDX, IDC_CHK_FAKE_REAL_ON, m_btnOnFakeReal);

  00088	8d 87 28 04 00
	00		 lea	 eax, DWORD PTR [edi+1064]
  0008e	50		 push	 eax
  0008f	68 db 5d 00 00	 push	 24027			; 00005ddbH
  00094	56		 push	 esi
  00095	e8 00 00 00 00	 call	 ?DDX_Control@@YGXPAVCDataExchange@@HAAVCWnd@@@Z ; DDX_Control

; 61   : 	DDX_Control(pDX, IDC_EDT_FIXED_REALTIME, m_edtFixedRealTime);

  0009a	8d 87 a8 04 00
	00		 lea	 eax, DWORD PTR [edi+1192]
  000a0	50		 push	 eax
  000a1	68 dd 5d 00 00	 push	 24029			; 00005dddH
  000a6	56		 push	 esi
  000a7	e8 00 00 00 00	 call	 ?DDX_Control@@YGXPAVCDataExchange@@HAAVCWnd@@@Z ; DDX_Control

; 62   : 	DDX_Control(pDX, IDC_LST_REAL_PACKET, m_lcRealState);

  000ac	8d 87 28 05 00
	00		 lea	 eax, DWORD PTR [edi+1320]
  000b2	50		 push	 eax
  000b3	68 d9 5d 00 00	 push	 24025			; 00005dd9H
  000b8	56		 push	 esi
  000b9	e8 00 00 00 00	 call	 ?DDX_Control@@YGXPAVCDataExchange@@HAAVCWnd@@@Z ; DDX_Control

; 63   : 	DDX_Control(pDX, IDC_STC_FAKE_TIME, m_stcFakeTime);

  000be	8d 87 c0 05 00
	00		 lea	 eax, DWORD PTR [edi+1472]
  000c4	50		 push	 eax
  000c5	68 d0 5d 00 00	 push	 24016			; 00005dd0H
  000ca	56		 push	 esi
  000cb	e8 00 00 00 00	 call	 ?DDX_Control@@YGXPAVCDataExchange@@HAAVCWnd@@@Z ; DDX_Control

; 64   : 	DDX_Control(pDX, IDC_STC_ADD_TIME, m_stcAddTime);

  000d0	8d 87 40 06 00
	00		 lea	 eax, DWORD PTR [edi+1600]
  000d6	50		 push	 eax
  000d7	68 d1 5d 00 00	 push	 24017			; 00005dd1H
  000dc	56		 push	 esi
  000dd	e8 00 00 00 00	 call	 ?DDX_Control@@YGXPAVCDataExchange@@HAAVCWnd@@@Z ; DDX_Control

; 65   : 	DDX_Control(pDX, IDC_STC_REAL_TIME, m_stcRealTime);

  000e2	8d 87 c0 06 00
	00		 lea	 eax, DWORD PTR [edi+1728]
  000e8	50		 push	 eax
  000e9	68 cf 5d 00 00	 push	 24015			; 00005dcfH
  000ee	56		 push	 esi
  000ef	e8 00 00 00 00	 call	 ?DDX_Control@@YGXPAVCDataExchange@@HAAVCWnd@@@Z ; DDX_Control
  000f4	5f		 pop	 edi
  000f5	5e		 pop	 esi

; 66   : 	//}}AFX_DATA_MAP
; 67   : }

  000f6	5d		 pop	 ebp
  000f7	c2 04 00	 ret	 4
?DoDataExchange@CRealTimeTransducerDlg@@MAEXPAVCDataExchange@@@Z ENDP ; CRealTimeTransducerDlg::DoDataExchange
_TEXT	ENDS
; Function compile flags: /Ogtp
; File D:\git\src\IBK\IBK_DRFN\ProjSrc\SrcChartEx\ChartOCX\AddInManager\ChartCommonAddIn\RealTimeTransducerDlg.cpp
;	COMDAT ??1CRealTimeTransducerDlg@@UAE@XZ
_TEXT	SEGMENT
__$EHRec$ = -12						; size = 12
??1CRealTimeTransducerDlg@@UAE@XZ PROC			; CRealTimeTransducerDlg::~CRealTimeTransducerDlg, COMDAT
; _this$ = ecx

; 41   : {

  00000	55		 push	 ebp
  00001	8b ec		 mov	 ebp, esp
  00003	6a ff		 push	 -1
  00005	68 00 00 00 00	 push	 __ehhandler$??1CRealTimeTransducerDlg@@UAE@XZ
  0000a	64 a1 00 00 00
	00		 mov	 eax, DWORD PTR fs:0
  00010	50		 push	 eax
  00011	56		 push	 esi
  00012	a1 00 00 00 00	 mov	 eax, DWORD PTR ___security_cookie
  00017	33 c5		 xor	 eax, ebp
  00019	50		 push	 eax
  0001a	8d 45 f4	 lea	 eax, DWORD PTR __$EHRec$[ebp]
  0001d	64 a3 00 00 00
	00		 mov	 DWORD PTR fs:0, eax
  00023	8b f1		 mov	 esi, ecx

; 42   : 	if( m_pIPacketManager) m_pIPacketManager->Release();

  00025	8b 8e 4c 07 00
	00		 mov	 ecx, DWORD PTR [esi+1868]
  0002b	c7 06 00 00 00
	00		 mov	 DWORD PTR [esi], OFFSET ??_7CRealTimeTransducerDlg@@6B@
  00031	85 c9		 test	 ecx, ecx
  00033	74 06		 je	 SHORT $LN2@CRealTimeT
  00035	8b 01		 mov	 eax, DWORD PTR [ecx]
  00037	51		 push	 ecx
  00038	ff 50 08	 call	 DWORD PTR [eax+8]
$LN2@CRealTimeT:

; 43   : 	m_pIPacketManager = NULL;
; 44   : 	if( m_pIRealReceiver) m_pIRealReceiver->Release();

  0003b	8b 8e 58 07 00
	00		 mov	 ecx, DWORD PTR [esi+1880]
  00041	c7 86 4c 07 00
	00 00 00 00 00	 mov	 DWORD PTR [esi+1868], 0
  0004b	85 c9		 test	 ecx, ecx
  0004d	74 06		 je	 SHORT $LN3@CRealTimeT
  0004f	8b 01		 mov	 eax, DWORD PTR [ecx]
  00051	51		 push	 ecx
  00052	ff 50 08	 call	 DWORD PTR [eax+8]
$LN3@CRealTimeT:

; 45   : 	m_pIRealReceiver = NULL;
; 46   : }

  00055	8d 8e c0 06 00
	00		 lea	 ecx, DWORD PTR [esi+1728]
  0005b	c7 86 58 07 00
	00 00 00 00 00	 mov	 DWORD PTR [esi+1880], 0
  00065	e8 00 00 00 00	 call	 ??1CStatic@@UAE@XZ	; CStatic::~CStatic
  0006a	8d 8e 40 06 00
	00		 lea	 ecx, DWORD PTR [esi+1600]
  00070	e8 00 00 00 00	 call	 ??1CStatic@@UAE@XZ	; CStatic::~CStatic
  00075	8d 8e c0 05 00
	00		 lea	 ecx, DWORD PTR [esi+1472]
  0007b	e8 00 00 00 00	 call	 ??1CStatic@@UAE@XZ	; CStatic::~CStatic
  00080	8d 8e 28 05 00
	00		 lea	 ecx, DWORD PTR [esi+1320]
  00086	e8 00 00 00 00	 call	 ??1CEditableListCtrl@@UAE@XZ ; CEditableListCtrl::~CEditableListCtrl
  0008b	8d 8e a8 04 00
	00		 lea	 ecx, DWORD PTR [esi+1192]
  00091	e8 00 00 00 00	 call	 ??1CEdit@@UAE@XZ	; CEdit::~CEdit
  00096	8d 8e 28 04 00
	00		 lea	 ecx, DWORD PTR [esi+1064]
  0009c	e8 00 00 00 00	 call	 ??1CButton@@UAE@XZ	; CButton::~CButton
  000a1	8d 8e a8 03 00
	00		 lea	 ecx, DWORD PTR [esi+936]
  000a7	e8 00 00 00 00	 call	 ??1CComboBox@@UAE@XZ	; CComboBox::~CComboBox
  000ac	8d 8e 28 03 00
	00		 lea	 ecx, DWORD PTR [esi+808]
  000b2	e8 00 00 00 00	 call	 ??1CComboBox@@UAE@XZ	; CComboBox::~CComboBox
  000b7	8d 8e a8 02 00
	00		 lea	 ecx, DWORD PTR [esi+680]
  000bd	e8 00 00 00 00	 call	 ??1CButton@@UAE@XZ	; CButton::~CButton
  000c2	8d 8e 28 02 00
	00		 lea	 ecx, DWORD PTR [esi+552]
  000c8	e8 00 00 00 00	 call	 ??1CStatic@@UAE@XZ	; CStatic::~CStatic
  000cd	8d 8e a8 01 00
	00		 lea	 ecx, DWORD PTR [esi+424]
  000d3	e8 00 00 00 00	 call	 ??1CComboBox@@UAE@XZ	; CComboBox::~CComboBox
  000d8	8d 8e 28 01 00
	00		 lea	 ecx, DWORD PTR [esi+296]
  000de	e8 00 00 00 00	 call	 ??1CStatic@@UAE@XZ	; CStatic::~CStatic
  000e3	8d 8e a8 00 00
	00		 lea	 ecx, DWORD PTR [esi+168]
  000e9	e8 00 00 00 00	 call	 ??1CButton@@UAE@XZ	; CButton::~CButton
  000ee	8b ce		 mov	 ecx, esi
  000f0	e8 00 00 00 00	 call	 ??1CDialog@@UAE@XZ	; CDialog::~CDialog
  000f5	8b 4d f4	 mov	 ecx, DWORD PTR __$EHRec$[ebp]
  000f8	64 89 0d 00 00
	00 00		 mov	 DWORD PTR fs:0, ecx
  000ff	59		 pop	 ecx
  00100	5e		 pop	 esi
  00101	8b e5		 mov	 esp, ebp
  00103	5d		 pop	 ebp
  00104	c3		 ret	 0
  00105	cc		 int	 3
  00106	cc		 int	 3
  00107	cc		 int	 3
  00108	cc		 int	 3
  00109	cc		 int	 3
_TEXT	ENDS
;	COMDAT text$x
text$x	SEGMENT
__ehhandler$??1CRealTimeTransducerDlg@@UAE@XZ:
  00000	90		 npad	 1
  00001	90		 npad	 1
  00002	8b 54 24 08	 mov	 edx, DWORD PTR [esp+8]
  00006	8d 42 0c	 lea	 eax, DWORD PTR [edx+12]
  00009	8b 4a f8	 mov	 ecx, DWORD PTR [edx-8]
  0000c	33 c8		 xor	 ecx, eax
  0000e	e8 00 00 00 00	 call	 @__security_check_cookie@4
  00013	b8 00 00 00 00	 mov	 eax, OFFSET __ehfuncinfo$??1CRealTimeTransducerDlg@@UAE@XZ
  00018	e9 00 00 00 00	 jmp	 ___CxxFrameHandler3
text$x	ENDS
??1CRealTimeTransducerDlg@@UAE@XZ ENDP			; CRealTimeTransducerDlg::~CRealTimeTransducerDlg
; Function compile flags: /Ogtp
; File D:\git\src\IBK\IBK_DRFN\ProjSrc\SrcChartEx\ChartOCX\AddInManager\ChartCommonAddIn\RealTimeTransducerDlg.cpp
; File C:\Program Files (x86)\Microsoft Visual Studio\2019\Community\VC\Tools\MSVC\14.29.30133\atlmfc\include\afxwin2.inl
; File D:\git\src\IBK\IBK_DRFN\ProjSrc\SrcChartEx\ChartOCX\AddInManager\ChartCommonAddIn\RealTimeTransducerDlg.cpp
; File C:\Program Files (x86)\Microsoft Visual Studio\2019\Community\VC\Tools\MSVC\14.29.30133\atlmfc\include\afxwin2.inl
; File D:\git\src\IBK\IBK_DRFN\ProjSrc\SrcChartEx\ChartOCX\AddInManager\ChartCommonAddIn\RealTimeTransducerDlg.cpp
; File C:\Program Files (x86)\Microsoft Visual Studio\2019\Community\VC\Tools\MSVC\14.29.30133\atlmfc\include\afxwin2.inl
; File D:\git\src\IBK\IBK_DRFN\ProjSrc\SrcChartEx\ChartOCX\AddInManager\ChartCommonAddIn\RealTimeTransducerDlg.cpp
; File C:\Program Files (x86)\Microsoft Visual Studio\2019\Community\VC\Tools\MSVC\14.29.30133\atlmfc\include\afxwin2.inl
; File D:\git\src\IBK\IBK_DRFN\ProjSrc\SrcChartEx\ChartOCX\AddInManager\ChartCommonAddIn\RealTimeTransducerDlg.cpp
; File C:\Program Files (x86)\Microsoft Visual Studio\2019\Community\VC\Tools\MSVC\14.29.30133\atlmfc\include\afxwin2.inl
; File D:\git\src\IBK\IBK_DRFN\ProjSrc\SrcChartEx\ChartOCX\AddInManager\ChartCommonAddIn\RealTimeTransducerDlg.cpp
; File C:\Program Files (x86)\Microsoft Visual Studio\2019\Community\VC\Tools\MSVC\14.29.30133\atlmfc\include\afxwin2.inl
; File D:\git\src\IBK\IBK_DRFN\ProjSrc\SrcChartEx\ChartOCX\AddInManager\ChartCommonAddIn\RealTimeTransducerDlg.cpp
; File C:\Program Files (x86)\Microsoft Visual Studio\2019\Community\VC\Tools\MSVC\14.29.30133\atlmfc\include\afxwin2.inl
; File D:\git\src\IBK\IBK_DRFN\ProjSrc\SrcChartEx\ChartOCX\AddInManager\ChartCommonAddIn\RealTimeTransducerDlg.cpp
; File C:\Program Files (x86)\Microsoft Visual Studio\2019\Community\VC\Tools\MSVC\14.29.30133\atlmfc\include\afxwin2.inl
; File D:\git\src\IBK\IBK_DRFN\ProjSrc\SrcChartEx\ChartOCX\AddInManager\ChartCommonAddIn\RealTimeTransducerDlg.cpp
; File C:\Program Files (x86)\Microsoft Visual Studio\2019\Community\VC\Tools\MSVC\14.29.30133\atlmfc\include\afxwin2.inl
; File D:\git\src\IBK\IBK_DRFN\ProjSrc\SrcChartEx\ChartOCX\AddInManager\ChartCommonAddIn\RealTimeTransducerDlg.cpp
; File C:\Program Files (x86)\Microsoft Visual Studio\2019\Community\VC\Tools\MSVC\14.29.30133\atlmfc\include\afxwin2.inl
; File D:\git\src\IBK\IBK_DRFN\ProjSrc\SrcChartEx\ChartOCX\AddInManager\ChartCommonAddIn\RealTimeTransducerDlg.cpp
; File C:\Program Files (x86)\Microsoft Visual Studio\2019\Community\VC\Tools\MSVC\14.29.30133\atlmfc\include\afxwin2.inl
; File D:\git\src\IBK\IBK_DRFN\ProjSrc\SrcChartEx\ChartOCX\AddInManager\ChartCommonAddIn\RealTimeTransducerDlg.cpp
; File C:\Program Files (x86)\Microsoft Visual Studio\2019\Community\VC\Tools\MSVC\14.29.30133\atlmfc\include\afxwin2.inl
; File D:\git\src\IBK\IBK_DRFN\ProjSrc\SrcChartEx\ChartOCX\AddInManager\ChartCommonAddIn\RealTimeTransducerDlg.cpp
; File C:\Program Files (x86)\Microsoft Visual Studio\2019\Community\VC\Tools\MSVC\14.29.30133\atlmfc\include\afxwin2.inl
; File D:\git\src\IBK\IBK_DRFN\ProjSrc\SrcChartEx\ChartOCX\AddInManager\ChartCommonAddIn\RealTimeTransducerDlg.cpp
; File C:\Program Files (x86)\Microsoft Visual Studio\2019\Community\VC\Tools\MSVC\14.29.30133\atlmfc\include\afxwin2.inl
; File D:\git\src\IBK\IBK_DRFN\ProjSrc\SrcChartEx\ChartOCX\AddInManager\ChartCommonAddIn\RealTimeTransducerDlg.cpp
; File C:\Program Files (x86)\Microsoft Visual Studio\2019\Community\VC\Tools\MSVC\14.29.30133\atlmfc\include\afxwin2.inl
; File D:\git\src\IBK\IBK_DRFN\ProjSrc\SrcChartEx\ChartOCX\AddInManager\ChartCommonAddIn\RealTimeTransducerDlg.cpp
; File C:\Program Files (x86)\Microsoft Visual Studio\2019\Community\VC\Tools\MSVC\14.29.30133\atlmfc\include\afxwin2.inl
; File D:\git\src\IBK\IBK_DRFN\ProjSrc\SrcChartEx\ChartOCX\AddInManager\ChartCommonAddIn\RealTimeTransducerDlg.cpp
; File C:\Program Files (x86)\Microsoft Visual Studio\2019\Community\VC\Tools\MSVC\14.29.30133\atlmfc\include\afxwin2.inl
; File D:\git\src\IBK\IBK_DRFN\ProjSrc\SrcChartEx\ChartOCX\AddInManager\ChartCommonAddIn\RealTimeTransducerDlg.cpp
; File C:\Program Files (x86)\Microsoft Visual Studio\2019\Community\VC\Tools\MSVC\14.29.30133\atlmfc\include\afxwin2.inl
; File D:\git\src\IBK\IBK_DRFN\ProjSrc\SrcChartEx\ChartOCX\AddInManager\ChartCommonAddIn\RealTimeTransducerDlg.cpp
; File C:\Program Files (x86)\Microsoft Visual Studio\2019\Community\VC\Tools\MSVC\14.29.30133\atlmfc\include\afxwin2.inl
; File D:\git\src\IBK\IBK_DRFN\ProjSrc\SrcChartEx\ChartOCX\AddInManager\ChartCommonAddIn\RealTimeTransducerDlg.cpp
; File C:\Program Files (x86)\Microsoft Visual Studio\2019\Community\VC\Tools\MSVC\14.29.30133\atlmfc\include\afxwin2.inl
; File D:\git\src\IBK\IBK_DRFN\ProjSrc\SrcChartEx\ChartOCX\AddInManager\ChartCommonAddIn\RealTimeTransducerDlg.cpp
; File C:\Program Files (x86)\Microsoft Visual Studio\2019\Community\VC\Tools\MSVC\14.29.30133\atlmfc\include\afxwin2.inl
; File D:\git\src\IBK\IBK_DRFN\ProjSrc\SrcChartEx\ChartOCX\AddInManager\ChartCommonAddIn\RealTimeTransducerDlg.cpp
; File C:\Program Files (x86)\Microsoft Visual Studio\2019\Community\VC\Tools\MSVC\14.29.30133\atlmfc\include\afxwin2.inl
; File D:\git\src\IBK\IBK_DRFN\ProjSrc\SrcChartEx\ChartOCX\AddInManager\ChartCommonAddIn\RealTimeTransducerDlg.cpp
; File C:\Program Files (x86)\Microsoft Visual Studio\2019\Community\VC\Tools\MSVC\14.29.30133\atlmfc\include\afxwin2.inl
; File D:\git\src\IBK\IBK_DRFN\ProjSrc\SrcChartEx\ChartOCX\AddInManager\ChartCommonAddIn\RealTimeTransducerDlg.cpp
; File C:\Program Files (x86)\Microsoft Visual Studio\2019\Community\VC\Tools\MSVC\14.29.30133\atlmfc\include\afxwin2.inl
; File D:\git\src\IBK\IBK_DRFN\ProjSrc\SrcChartEx\ChartOCX\AddInManager\ChartCommonAddIn\RealTimeTransducerDlg.cpp
; File C:\Program Files (x86)\Microsoft Visual Studio\2019\Community\VC\Tools\MSVC\14.29.30133\atlmfc\include\afxwin2.inl
; File D:\git\src\IBK\IBK_DRFN\ProjSrc\SrcChartEx\ChartOCX\AddInManager\ChartCommonAddIn\RealTimeTransducerDlg.cpp
