; Listing generated by Microsoft (R) Optimizing Compiler Version 19.29.30145.0 

	TITLE	D:\git\src\IBK\IBK_DRFN\#DRfn-CS\_Obj\ChartCommonAddIn\SimpleCompareChartAddInImp.obj
	.686P
	.XMM
	include listing.inc
	.model	flat

INCLUDELIB MSVCRT
INCLUDELIB OLDNAMES

PUBLIC	?m_eRegisteredEventMap@CSimpleCompareChartAddInImp@@1QBW4EAddInEventType@IChartAddIn000000@@B ; CSimpleCompareChartAddInImp::m_eRegisteredEventMap
PUBLIC	??_C@_0P@MIMNHAHB@SIMPLE_COMPARE@		; `string'
;	COMDAT ??_C@_0P@MIMNHAHB@SIMPLE_COMPARE@
CONST	SEGMENT
??_C@_0P@MIMNHAHB@SIMPLE_COMPARE@ DB 'SIMPLE_COMPARE', 00H ; `string'
CONST	ENDS
CONST	SEGMENT
?m_eRegisteredEventMap@CSimpleCompareChartAddInImp@@1QBW4EAddInEventType@IChartAddIn000000@@B DD 03cH ; CSimpleCompareChartAddInImp::m_eRegisteredEventMap
	ORG $+240
CONST	ENDS
PUBLIC	?__empty_global_delete@@YAXPAX@Z		; __empty_global_delete
PUBLIC	?__empty_global_delete@@YAXPAXI@Z		; __empty_global_delete
PUBLIC	?Serialize@CObject@@UAEXAAVCArchive@@@Z		; CObject::Serialize
PUBLIC	?AssertValid@CObject@@UBEXXZ			; CObject::AssertValid
PUBLIC	?Dump@CObject@@UBEXAAVCDumpContext@@@Z		; CObject::Dump
PUBLIC	?PostConstruct@CIWUnknown@@MAEXXZ		; CIWUnknown::PostConstruct
PUBLIC	?PreDestructX@CIWUnknown@@MAEXXZ		; CIWUnknown::PreDestructX
PUBLIC	?PreDestruct@CIWUnknown@@MAEXXZ			; CIWUnknown::PreDestruct
PUBLIC	?AddRef@CChartAddInBase000000@@MAGKXZ		; CChartAddInBase000000::AddRef
PUBLIC	?Release@CChartAddInBase000000@@MAGKXZ		; CChartAddInBase000000::Release
PUBLIC	?QueryInterface@CChartAddInBase000000@@MAGJABU_GUID@@PAPAX@Z ; CChartAddInBase000000::QueryInterface
PUBLIC	?GetAddInCustomInterface@CChartAddInBase000000@@MAEPAUIUnknown@@XZ ; CChartAddInBase000000::GetAddInCustomInterface
PUBLIC	?AfeterOnOcxDestroyWindow@CChartAddInBase000000@@MAEXXZ ; CChartAddInBase000000::AfeterOnOcxDestroyWindow
PUBLIC	?ChangeChartMode@CChartAddInBase000000@@MAEXW4CHART_MODE@CChartInfo@@@Z ; CChartAddInBase000000::ChangeChartMode
PUBLIC	?OnGSharedDataChange@CChartAddInBase000000@@MAEXPBD0H@Z ; CChartAddInBase000000::OnGSharedDataChange
PUBLIC	?OnLSharedDataChange@CChartAddInBase000000@@MAEXPBD0@Z ; CChartAddInBase000000::OnLSharedDataChange
PUBLIC	?OnResetChart@CChartAddInBase000000@@MAEXXZ	; CChartAddInBase000000::OnResetChart
PUBLIC	?OnDrawBeforeGraph@CChartAddInBase000000@@MAEXPAUHDC__@@@Z ; CChartAddInBase000000::OnDrawBeforeGraph
PUBLIC	?OnDrawAfterGraph@CChartAddInBase000000@@MAEXPAUHDC__@@@Z ; CChartAddInBase000000::OnDrawAfterGraph
PUBLIC	?OnPacketDataMultiItem@CChartAddInBase000000@@MAEXPBD0H@Z ; CChartAddInBase000000::OnPacketDataMultiItem
PUBLIC	?OnTimer@CChartAddInBase000000@@MAEXI@Z		; CChartAddInBase000000::OnTimer
PUBLIC	?OnCaptureChanged@CChartAddInBase000000@@MAEXPAUHWND__@@QAUHBITMAP__@@@Z ; CChartAddInBase000000::OnCaptureChanged
PUBLIC	?OnResetMainBlock@CChartAddInBase000000@@MAEXXZ	; CChartAddInBase000000::OnResetMainBlock
PUBLIC	?OnUserIndiatorConditionLoaded@CChartAddInBase000000@@MAEXXZ ; CChartAddInBase000000::OnUserIndiatorConditionLoaded
PUBLIC	?OnChartItemChanged@CChartAddInBase000000@@MAEXXZ ; CChartAddInBase000000::OnChartItemChanged
PUBLIC	?OnGraphDataChanged@CChartAddInBase000000@@MAEXXZ ; CChartAddInBase000000::OnGraphDataChanged
PUBLIC	?OnBlockRemoved@CChartAddInBase000000@@MAEXHH@Z	; CChartAddInBase000000::OnBlockRemoved
PUBLIC	?OnGraphAdded@CChartAddInBase000000@@MAEXPBD0@Z	; CChartAddInBase000000::OnGraphAdded
PUBLIC	?OnManualRealData@CChartAddInBase000000@@MAEXPBDNH@Z ; CChartAddInBase000000::OnManualRealData
PUBLIC	?OnContextMenu@CChartAddInBase000000@@MAEXPAUHWND__@@AAUtagPOINT@@@Z ; CChartAddInBase000000::OnContextMenu
PUBLIC	?OnGraphDeleted@CChartAddInBase000000@@MAEXPBD0@Z ; CChartAddInBase000000::OnGraphDeleted
PUBLIC	?OnPacketTruncated@CChartAddInBase000000@@MAEXH@Z ; CChartAddInBase000000::OnPacketTruncated
PUBLIC	?OnBlockChanged@CChartAddInBase000000@@MAEXW4BLOCKBEHAVIOR@CBlockBaseData@@HHHH@Z ; CChartAddInBase000000::OnBlockChanged
PUBLIC	?OnToolCommand@CChartAddInBase000000@@MAEXHH@Z	; CChartAddInBase000000::OnToolCommand
PUBLIC	?OnRealData@CChartAddInBase000000@@MAEXPBDN0@Z	; CChartAddInBase000000::OnRealData
PUBLIC	?OnIndexedRealData@CChartAddInBase000000@@MAEXPBDHN@Z ; CChartAddInBase000000::OnIndexedRealData
PUBLIC	?OnRealPacketEnd@CChartAddInBase000000@@MAEXPBD@Z ; CChartAddInBase000000::OnRealPacketEnd
PUBLIC	?OnLoadEnvironment@CChartAddInBase000000@@MAEXPAUIPropertyMap@@@Z ; CChartAddInBase000000::OnLoadEnvironment
PUBLIC	?OnSaveEnvironment@CChartAddInBase000000@@MAEXPAUIPropertyMap@@@Z ; CChartAddInBase000000::OnSaveEnvironment
PUBLIC	?DrawCursor@CChartAddInBase000000@@MAE?AUtagRECT@@PAUHDC__@@@Z ; CChartAddInBase000000::DrawCursor
PUBLIC	?OnRecalculationComplete@CChartAddInBase000000@@MAEXXZ ; CChartAddInBase000000::OnRecalculationComplete
PUBLIC	?OnPreRealData@CChartAddInBase000000@@MAEHPBDAAN0H@Z ; CChartAddInBase000000::OnPreRealData
PUBLIC	?OnPreIndexedRealData@CChartAddInBase000000@@MAEHPBDHAANH@Z ; CChartAddInBase000000::OnPreIndexedRealData
PUBLIC	?OnPreRealPacketEnd@CChartAddInBase000000@@MAEHPBDH@Z ; CChartAddInBase000000::OnPreRealPacketEnd
PUBLIC	?OnPreNMTRClock@CChartAddInBase000000@@MAEHAA_J@Z ; CChartAddInBase000000::OnPreNMTRClock
PUBLIC	?OnCmdMsg@CChartAddInBase000000@@MAEHIHPAUICmdUI000000@@@Z ; CChartAddInBase000000::OnCmdMsg
PUBLIC	?OnAddInMsg@CChartAddInBase000000@@MAEHPBDJ@Z	; CChartAddInBase000000::OnAddInMsg
PUBLIC	?OnAddInToolCommand@CChartAddInBase000000@@MAEHW4EAICommandType@@@Z ; CChartAddInBase000000::OnAddInToolCommand
PUBLIC	?OnAddInToolCommand@CChartAddInBase000000@@MAEHW4EAICommandType@@PAUHDC__@@IAAUtagPOINT@@K@Z ; CChartAddInBase000000::OnAddInToolCommand
PUBLIC	?OnAddInToolCommand@CChartAddInBase000000@@MAEHW4EAICommandType@@PBD@Z ; CChartAddInBase000000::OnAddInToolCommand
PUBLIC	?OnAddInToolCommand@CChartAddInBase000000@@MAEHW4EAICommandType@@PBD1@Z ; CChartAddInBase000000::OnAddInToolCommand
PUBLIC	?OnAddInToolCommand@CChartAddInBase000000@@MAEHW4EAICommandType@@PBDJ@Z ; CChartAddInBase000000::OnAddInToolCommand
PUBLIC	?OnAddInToolCommand@CChartAddInBase000000@@MAEHW4EAICommandType@@PBUIAddInDllBase@@@Z ; CChartAddInBase000000::OnAddInToolCommand
PUBLIC	?OnAddInToolCommand@CChartAddInBase000000@@MAEHW4EAICommandType@@J@Z ; CChartAddInBase000000::OnAddInToolCommand
PUBLIC	?OnAddInToolCommand@CChartAddInBase000000@@MAEHW4EAICommandType@@JPBD@Z ; CChartAddInBase000000::OnAddInToolCommand
PUBLIC	?OnAddInToolCommand@CChartAddInBase000000@@MAEHW4EAICommandType@@JPBD11@Z ; CChartAddInBase000000::OnAddInToolCommand
PUBLIC	?OnAddInToolCommand@CChartAddInBase000000@@MAEHW4EAICommandType@@JJ@Z ; CChartAddInBase000000::OnAddInToolCommand
PUBLIC	?OnAddInToolCommand@CChartAddInBase000000@@MAEHW4EAICommandType@@JJJJJJJJJ@Z ; CChartAddInBase000000::OnAddInToolCommand
PUBLIC	?OnAddInToolCommand@CChartAddInBase000000@@MAEHAAJW4EAICommandType@@@Z ; CChartAddInBase000000::OnAddInToolCommand
PUBLIC	?OnAddInToolCommand@CChartAddInBase000000@@MAEHAAJW4EAICommandType@@PAUIGraphInfo000000@@@Z ; CChartAddInBase000000::OnAddInToolCommand
PUBLIC	?OnAddInToolCommand@CChartAddInBase000000@@MAEHAAJW4EAICommandType@@PBD@Z ; CChartAddInBase000000::OnAddInToolCommand
PUBLIC	?OnAddInToolCommand@CChartAddInBase000000@@MAEHAAJW4EAICommandType@@PBDPAVCObject@@@Z ; CChartAddInBase000000::OnAddInToolCommand
PUBLIC	?OnAddInToolCommand@CChartAddInBase000000@@MAEHAAJW4EAICommandType@@J@Z ; CChartAddInBase000000::OnAddInToolCommand
PUBLIC	?OnAddInToolCommand@CChartAddInBase000000@@MAEHAAJW4EAICommandType@@JJ@Z ; CChartAddInBase000000::OnAddInToolCommand
PUBLIC	?OnKeyDown@CChartAddInBase000000@@MAEHIII@Z	; CChartAddInBase000000::OnKeyDown
PUBLIC	?OnKeyUp@CChartAddInBase000000@@MAEHIII@Z	; CChartAddInBase000000::OnKeyUp
PUBLIC	?OnMouseWheel@CChartAddInBase000000@@MAEHIFUtagPOINT@@K@Z ; CChartAddInBase000000::OnMouseWheel
PUBLIC	?OnMouseMove@CChartAddInBase000000@@MAEHPAUHDC__@@IAAUtagPOINT@@KQAUHBITMAP__@@@Z ; CChartAddInBase000000::OnMouseMove
PUBLIC	?OnLButtonDown@CChartAddInBase000000@@MAEHPAUHDC__@@IAAUtagPOINT@@K@Z ; CChartAddInBase000000::OnLButtonDown
PUBLIC	?OnLButtonUp@CChartAddInBase000000@@MAEHPAUHDC__@@IAAUtagPOINT@@K@Z ; CChartAddInBase000000::OnLButtonUp
PUBLIC	?OnLButtonDblClk@CChartAddInBase000000@@MAEHPAUHDC__@@IAAUtagPOINT@@K@Z ; CChartAddInBase000000::OnLButtonDblClk
PUBLIC	?OnRButtonDown@CChartAddInBase000000@@MAEHPAUHDC__@@IAAUtagPOINT@@K@Z ; CChartAddInBase000000::OnRButtonDown
PUBLIC	?OnRButtonUp@CChartAddInBase000000@@MAEHPAUHDC__@@IAAUtagPOINT@@K@Z ; CChartAddInBase000000::OnRButtonUp
PUBLIC	?OnRButtonDblClk@CChartAddInBase000000@@MAEHPAUHDC__@@IAAUtagPOINT@@K@Z ; CChartAddInBase000000::OnRButtonDblClk
PUBLIC	??0CSimpleCompareChartAddInImp@@QAE@PAUIChartOCX000000@@PAUIAddInDllBase@@@Z ; CSimpleCompareChartAddInImp::CSimpleCompareChartAddInImp
PUBLIC	??1CSimpleCompareChartAddInImp@@UAE@XZ		; CSimpleCompareChartAddInImp::~CSimpleCompareChartAddInImp
PUBLIC	?GetRegisteredEventMap@CSimpleCompareChartAddInImp@@MBEPBW4EAddInEventType@IChartAddIn000000@@XZ ; CSimpleCompareChartAddInImp::GetRegisteredEventMap
PUBLIC	?InvokeAddIn@CSimpleCompareChartAddInImp@@MAEHHJ@Z ; CSimpleCompareChartAddInImp::InvokeAddIn
PUBLIC	?InvokeAddInStr@CSimpleCompareChartAddInImp@@MAEHPBD0@Z ; CSimpleCompareChartAddInImp::InvokeAddInStr
PUBLIC	?GetAndParseChartListInfo@CSimpleCompareChartAddInImp@@IAEXXZ ; CSimpleCompareChartAddInImp::GetAndParseChartListInfo
PUBLIC	?GenerateAndSetChartListInfo@CSimpleCompareChartAddInImp@@IAEXXZ ; CSimpleCompareChartAddInImp::GenerateAndSetChartListInfo
PUBLIC	??_GCSimpleCompareChartAddInImp@@UAEPAXI@Z	; CSimpleCompareChartAddInImp::`scalar deleting destructor'
PUBLIC	??1ILPCSTR000000@@QAE@XZ			; ILPCSTR000000::~ILPCSTR000000
PUBLIC	?QueryInterface@CChartAddInBase000000@@O7AGJABU_GUID@@PAPAX@Z ; [thunk]:CChartAddInBase000000::QueryInterface`adjustor{8}'
PUBLIC	?AddRef@CChartAddInBase000000@@O7AGKXZ		; [thunk]:CChartAddInBase000000::AddRef`adjustor{8}'
PUBLIC	?Release@CChartAddInBase000000@@O7AGKXZ		; [thunk]:CChartAddInBase000000::Release`adjustor{8}'
PUBLIC	??_ECSimpleCompareChartAddInImp@@W7AEPAXI@Z	; [thunk]:CSimpleCompareChartAddInImp::`vector deleting destructor'
PUBLIC	??_C@_02DPKJAMEF@?$CFd@				; `string'
PUBLIC	??_R0?AVCObject@@@8				; CObject `RTTI Type Descriptor'
PUBLIC	??_R3CObject@@8					; CObject::`RTTI Class Hierarchy Descriptor'
PUBLIC	??_R2CObject@@8					; CObject::`RTTI Base Class Array'
PUBLIC	??_R1A@?0A@EA@CObject@@8			; CObject::`RTTI Base Class Descriptor at (0,-1,0,64)'
PUBLIC	??_R0?AUIUnknown@@@8				; IUnknown `RTTI Type Descriptor'
PUBLIC	??_R3IUnknown@@8				; IUnknown::`RTTI Class Hierarchy Descriptor'
PUBLIC	??_R2IUnknown@@8				; IUnknown::`RTTI Base Class Array'
PUBLIC	??_R1A@?0A@EA@IUnknown@@8			; IUnknown::`RTTI Base Class Descriptor at (0,-1,0,64)'
PUBLIC	?m_strAddInItemName@CSimpleCompareChartAddInImp@@2V?$CStringT@DV?$StrTraitMFC_DLL@DV?$ChTraitsCRT@D@ATL@@@@@ATL@@A ; CSimpleCompareChartAddInImp::m_strAddInItemName
PUBLIC	??_7CSimpleCompareChartAddInImp@@6BCIWUnknown@@@ ; CSimpleCompareChartAddInImp::`vftable'
PUBLIC	??_7CSimpleCompareChartAddInImp@@6BIChartAddIn000000@@@ ; CSimpleCompareChartAddInImp::`vftable'
PUBLIC	??_C@_05DMCAHJJE@TITLE@				; `string'
PUBLIC	??_C@_08KGLHHGPJ@Block?$DL?$AN?6@		; `string'
PUBLIC	??_C@_0M@FHFNKLHB@BlockEnd?$DL?$AN?6@		; `string'
PUBLIC	??_C@_02PCIJFNDE@?$AN?6@			; `string'
PUBLIC	??_C@_0BC@DJOHDNOJ@VertScaleGroup?$DL?$AN?6@	; `string'
PUBLIC	??_C@_0BF@DDJNMPKE@VertScaleGroupEnd?$DL?$AN?6@	; `string'
PUBLIC	??_C@_08BHMMGBBH@Graph?$DL?$AN?6@		; `string'
PUBLIC	??_C@_0M@DGHFHKEI@GraphEnd?$DL?$AN?6@		; `string'
PUBLIC	??_C@_02PHMGBKGP@?$DL0@				; `string'
PUBLIC	??_C@_02OONNCLCO@?$DL1@				; `string'
PUBLIC	??_C@_0BC@DENBEKI@BlockColumnEnd?$DL?$AN?6@	; `string'
PUBLIC	??_C@_0P@GBPFOBGA@BlockColumn?$DL?$AN?6@	; `string'
PUBLIC	??_R0?AUIChartAddIn000000@@@8			; IChartAddIn000000 `RTTI Type Descriptor'
PUBLIC	??_R3IChartAddIn000000@@8			; IChartAddIn000000::`RTTI Class Hierarchy Descriptor'
PUBLIC	??_R2IChartAddIn000000@@8			; IChartAddIn000000::`RTTI Base Class Array'
PUBLIC	??_R1A@?0A@EA@IChartAddIn000000@@8		; IChartAddIn000000::`RTTI Base Class Descriptor at (0,-1,0,64)'
PUBLIC	??_R4CSimpleCompareChartAddInImp@@6BCIWUnknown@@@ ; CSimpleCompareChartAddInImp::`RTTI Complete Object Locator'
PUBLIC	??_R0?AVCSimpleCompareChartAddInImp@@@8		; CSimpleCompareChartAddInImp `RTTI Type Descriptor'
PUBLIC	??_R3CSimpleCompareChartAddInImp@@8		; CSimpleCompareChartAddInImp::`RTTI Class Hierarchy Descriptor'
PUBLIC	??_R2CSimpleCompareChartAddInImp@@8		; CSimpleCompareChartAddInImp::`RTTI Base Class Array'
PUBLIC	??_R1A@?0A@EA@CSimpleCompareChartAddInImp@@8	; CSimpleCompareChartAddInImp::`RTTI Base Class Descriptor at (0,-1,0,64)'
PUBLIC	??_R1A@?0A@EA@CChartAddInBase000000@@8		; CChartAddInBase000000::`RTTI Base Class Descriptor at (0,-1,0,64)'
PUBLIC	??_R0?AVCChartAddInBase000000@@@8		; CChartAddInBase000000 `RTTI Type Descriptor'
PUBLIC	??_R3CChartAddInBase000000@@8			; CChartAddInBase000000::`RTTI Class Hierarchy Descriptor'
PUBLIC	??_R2CChartAddInBase000000@@8			; CChartAddInBase000000::`RTTI Base Class Array'
PUBLIC	??_R1A@?0A@EA@CIWUnknown@@8			; CIWUnknown::`RTTI Base Class Descriptor at (0,-1,0,64)'
PUBLIC	??_R0?AVCIWUnknown@@@8				; CIWUnknown `RTTI Type Descriptor'
PUBLIC	??_R3CIWUnknown@@8				; CIWUnknown::`RTTI Class Hierarchy Descriptor'
PUBLIC	??_R2CIWUnknown@@8				; CIWUnknown::`RTTI Base Class Array'
PUBLIC	??_R17?0A@EA@IChartAddIn000000@@8		; IChartAddIn000000::`RTTI Base Class Descriptor at (8,-1,0,64)'
PUBLIC	??_R17?0A@EA@IUnknown@@8			; IUnknown::`RTTI Base Class Descriptor at (8,-1,0,64)'
PUBLIC	??_R4CSimpleCompareChartAddInImp@@6BIChartAddIn000000@@@ ; CSimpleCompareChartAddInImp::`RTTI Complete Object Locator'
EXTRN	??3@YAXPAX@Z:PROC				; operator delete
EXTRN	?__global_delete@@YAXPAXI@Z:PROC		; __global_delete
EXTRN	_atexit:PROC
EXTRN	___std_terminate:PROC
EXTRN	__imp__atoi:PROC
EXTRN	?AfxThrowInvalidArgException@@YGXXZ:PROC	; AfxThrowInvalidArgException
EXTRN	?GetRuntimeClass@CObject@@UBEPAUCRuntimeClass@@XZ:PROC ; CObject::GetRuntimeClass
EXTRN	__imp_?Empty@?$CSimpleStringT@D$00@ATL@@QAEXXZ:PROC
EXTRN	__imp_?Concatenate@?$CSimpleStringT@D$00@ATL@@KAXAAV12@PBDH1H@Z:PROC
EXTRN	__imp_??0?$CStringT@DV?$StrTraitMFC_DLL@DV?$ChTraitsCRT@D@ATL@@@@@ATL@@QAE@XZ:PROC
EXTRN	__imp_??0?$CStringT@DV?$StrTraitMFC_DLL@DV?$ChTraitsCRT@D@ATL@@@@@ATL@@QAE@PAUIAtlStringMgr@1@@Z:PROC
EXTRN	__imp_??0?$CStringT@DV?$StrTraitMFC_DLL@DV?$ChTraitsCRT@D@ATL@@@@@ATL@@QAE@ABV01@@Z:PROC
EXTRN	__imp_??0?$CStringT@DV?$StrTraitMFC_DLL@DV?$ChTraitsCRT@D@ATL@@@@@ATL@@QAE@PBD@Z:PROC
EXTRN	__imp_??1?$CStringT@DV?$StrTraitMFC_DLL@DV?$ChTraitsCRT@D@ATL@@@@@ATL@@QAE@XZ:PROC
EXTRN	__imp_??4?$CStringT@DV?$StrTraitMFC_DLL@DV?$ChTraitsCRT@D@ATL@@@@@ATL@@QAEAAV01@ABV01@@Z:PROC
EXTRN	__imp_??4?$CStringT@DV?$StrTraitMFC_DLL@DV?$ChTraitsCRT@D@ATL@@@@@ATL@@QAEAAV01@PBD@Z:PROC
EXTRN	__imp_??Y?$CStringT@DV?$StrTraitMFC_DLL@DV?$ChTraitsCRT@D@ATL@@@@@ATL@@QAEAAV01@ABV?$CSimpleStringT@D$00@1@@Z:PROC
EXTRN	__imp_?GetManager@?$CStringT@DV?$StrTraitMFC_DLL@DV?$ChTraitsCRT@D@ATL@@@@@ATL@@QBEPAUIAtlStringMgr@2@XZ:PROC
EXTRN	__imp_?Compare@?$CStringT@DV?$StrTraitMFC_DLL@DV?$ChTraitsCRT@D@ATL@@@@@ATL@@QBEHPBD@Z:PROC
EXTRN	__imp_?Find@?$CStringT@DV?$StrTraitMFC_DLL@DV?$ChTraitsCRT@D@ATL@@@@@ATL@@QBEHDH@Z:PROC
EXTRN	__imp_?Find@?$CStringT@DV?$StrTraitMFC_DLL@DV?$ChTraitsCRT@D@ATL@@@@@ATL@@QBEHPBDH@Z:PROC
EXTRN	__imp_?Mid@?$CStringT@DV?$StrTraitMFC_DLL@DV?$ChTraitsCRT@D@ATL@@@@@ATL@@QBE?AV12@H@Z:PROC
EXTRN	__imp_?Mid@?$CStringT@DV?$StrTraitMFC_DLL@DV?$ChTraitsCRT@D@ATL@@@@@ATL@@QBE?AV12@HH@Z:PROC
EXTRN	__imp_?Left@?$CStringT@DV?$StrTraitMFC_DLL@DV?$ChTraitsCRT@D@ATL@@@@@ATL@@QBE?AV12@H@Z:PROC
EXTRN	__imp_?Format@?$CStringT@DV?$StrTraitMFC_DLL@DV?$ChTraitsCRT@D@ATL@@@@@ATL@@QAAXPBDZZ:PROC
EXTRN	??0CStringList@@QAE@H@Z:PROC			; CStringList::CStringList
EXTRN	?AddTail@CStringList@@QAEPAU__POSITION@@ABV?$CStringT@DV?$StrTraitMFC_DLL@DV?$ChTraitsCRT@D@ATL@@@@@ATL@@@Z:PROC ; CStringList::AddTail
EXTRN	?RemoveAll@CStringList@@QAEXXZ:PROC		; CStringList::RemoveAll
EXTRN	??1CStringList@@UAE@XZ:PROC			; CStringList::~CStringList
EXTRN	?AddRef@CIWUnknown@@MAGKXZ:PROC			; CIWUnknown::AddRef
EXTRN	?Release@CIWUnknown@@MAGKXZ:PROC		; CIWUnknown::Release
EXTRN	??0CChartAddInBase000000@@IAE@PAUIChartOCX000000@@PAUIAddInDllBase@@@Z:PROC ; CChartAddInBase000000::CChartAddInBase000000
EXTRN	??1CChartAddInBase000000@@MAE@XZ:PROC		; CChartAddInBase000000::~CChartAddInBase000000
EXTRN	?HasFullManager@CChartAddInBase000000@@MAEHXZ:PROC ; CChartAddInBase000000::HasFullManager
EXTRN	?RegisterEventMap@CChartAddInBase000000@@UAEHH@Z:PROC ; CChartAddInBase000000::RegisterEventMap
EXTRN	?UnregisterEventMap@CChartAddInBase000000@@UAEHXZ:PROC ; CChartAddInBase000000::UnregisterEventMap
EXTRN	?OnOcxDestroyWindow@CChartAddInBase000000@@MAEXXZ:PROC ; CChartAddInBase000000::OnOcxDestroyWindow
EXTRN	??_ECSimpleCompareChartAddInImp@@UAEPAXI@Z:PROC	; CSimpleCompareChartAddInImp::`vector deleting destructor'
EXTRN	@__security_check_cookie@4:PROC
EXTRN	___CxxFrameHandler3:PROC
EXTRN	??_7type_info@@6B@:QWORD			; type_info::`vftable'
EXTRN	___security_cookie:DWORD
_BSS	SEGMENT
?m_strAddInItemName@CSimpleCompareChartAddInImp@@2V?$CStringT@DV?$StrTraitMFC_DLL@DV?$ChTraitsCRT@D@ATL@@@@@ATL@@A DD 01H DUP (?) ; CSimpleCompareChartAddInImp::m_strAddInItemName
_BSS	ENDS
CRT$XCU	SEGMENT
??m_strAddInItemName$initializer$@CSimpleCompareChartAddInImp@@2P6AXXZA@@3P6AXXZA DD FLAT:??__E?m_strAddInItemName@CSimpleCompareChartAddInImp@@2V?$CStringT@DV?$StrTraitMFC_DLL@DV?$ChTraitsCRT@D@ATL@@@@@ATL@@A@@YAXXZ ; ??m_strAddInItemName$initializer$@CSimpleCompareChartAddInImp@@2P6AXXZA@@3P6AXXZA
CRT$XCU	ENDS
;	COMDAT ??_R4CSimpleCompareChartAddInImp@@6BIChartAddIn000000@@@
rdata$r	SEGMENT
??_R4CSimpleCompareChartAddInImp@@6BIChartAddIn000000@@@ DD 00H ; CSimpleCompareChartAddInImp::`RTTI Complete Object Locator'
	DD	08H
	DD	00H
	DD	FLAT:??_R0?AVCSimpleCompareChartAddInImp@@@8
	DD	FLAT:??_R3CSimpleCompareChartAddInImp@@8
rdata$r	ENDS
;	COMDAT ??_R17?0A@EA@IUnknown@@8
rdata$r	SEGMENT
??_R17?0A@EA@IUnknown@@8 DD FLAT:??_R0?AUIUnknown@@@8	; IUnknown::`RTTI Base Class Descriptor at (8,-1,0,64)'
	DD	00H
	DD	08H
	DD	0ffffffffH
	DD	00H
	DD	040H
	DD	FLAT:??_R3IUnknown@@8
rdata$r	ENDS
;	COMDAT ??_R17?0A@EA@IChartAddIn000000@@8
rdata$r	SEGMENT
??_R17?0A@EA@IChartAddIn000000@@8 DD FLAT:??_R0?AUIChartAddIn000000@@@8 ; IChartAddIn000000::`RTTI Base Class Descriptor at (8,-1,0,64)'
	DD	01H
	DD	08H
	DD	0ffffffffH
	DD	00H
	DD	040H
	DD	FLAT:??_R3IChartAddIn000000@@8
rdata$r	ENDS
;	COMDAT ??_R2CIWUnknown@@8
rdata$r	SEGMENT
??_R2CIWUnknown@@8 DD FLAT:??_R1A@?0A@EA@CIWUnknown@@8	; CIWUnknown::`RTTI Base Class Array'
	DD	FLAT:??_R1A@?0A@EA@CObject@@8
rdata$r	ENDS
;	COMDAT ??_R3CIWUnknown@@8
rdata$r	SEGMENT
??_R3CIWUnknown@@8 DD 00H				; CIWUnknown::`RTTI Class Hierarchy Descriptor'
	DD	00H
	DD	02H
	DD	FLAT:??_R2CIWUnknown@@8
rdata$r	ENDS
;	COMDAT ??_R0?AVCIWUnknown@@@8
data$rs	SEGMENT
??_R0?AVCIWUnknown@@@8 DD FLAT:??_7type_info@@6B@	; CIWUnknown `RTTI Type Descriptor'
	DD	00H
	DB	'.?AVCIWUnknown@@', 00H
data$rs	ENDS
;	COMDAT ??_R1A@?0A@EA@CIWUnknown@@8
rdata$r	SEGMENT
??_R1A@?0A@EA@CIWUnknown@@8 DD FLAT:??_R0?AVCIWUnknown@@@8 ; CIWUnknown::`RTTI Base Class Descriptor at (0,-1,0,64)'
	DD	01H
	DD	00H
	DD	0ffffffffH
	DD	00H
	DD	040H
	DD	FLAT:??_R3CIWUnknown@@8
rdata$r	ENDS
;	COMDAT ??_R2CChartAddInBase000000@@8
rdata$r	SEGMENT
??_R2CChartAddInBase000000@@8 DD FLAT:??_R1A@?0A@EA@CChartAddInBase000000@@8 ; CChartAddInBase000000::`RTTI Base Class Array'
	DD	FLAT:??_R1A@?0A@EA@CIWUnknown@@8
	DD	FLAT:??_R1A@?0A@EA@CObject@@8
	DD	FLAT:??_R17?0A@EA@IChartAddIn000000@@8
	DD	FLAT:??_R17?0A@EA@IUnknown@@8
rdata$r	ENDS
;	COMDAT ??_R3CChartAddInBase000000@@8
rdata$r	SEGMENT
??_R3CChartAddInBase000000@@8 DD 00H			; CChartAddInBase000000::`RTTI Class Hierarchy Descriptor'
	DD	01H
	DD	05H
	DD	FLAT:??_R2CChartAddInBase000000@@8
rdata$r	ENDS
;	COMDAT ??_R0?AVCChartAddInBase000000@@@8
data$rs	SEGMENT
??_R0?AVCChartAddInBase000000@@@8 DD FLAT:??_7type_info@@6B@ ; CChartAddInBase000000 `RTTI Type Descriptor'
	DD	00H
	DB	'.?AVCChartAddInBase000000@@', 00H
data$rs	ENDS
;	COMDAT ??_R1A@?0A@EA@CChartAddInBase000000@@8
rdata$r	SEGMENT
??_R1A@?0A@EA@CChartAddInBase000000@@8 DD FLAT:??_R0?AVCChartAddInBase000000@@@8 ; CChartAddInBase000000::`RTTI Base Class Descriptor at (0,-1,0,64)'
	DD	04H
	DD	00H
	DD	0ffffffffH
	DD	00H
	DD	040H
	DD	FLAT:??_R3CChartAddInBase000000@@8
rdata$r	ENDS
;	COMDAT ??_R1A@?0A@EA@CSimpleCompareChartAddInImp@@8
rdata$r	SEGMENT
??_R1A@?0A@EA@CSimpleCompareChartAddInImp@@8 DD FLAT:??_R0?AVCSimpleCompareChartAddInImp@@@8 ; CSimpleCompareChartAddInImp::`RTTI Base Class Descriptor at (0,-1,0,64)'
	DD	05H
	DD	00H
	DD	0ffffffffH
	DD	00H
	DD	040H
	DD	FLAT:??_R3CSimpleCompareChartAddInImp@@8
rdata$r	ENDS
;	COMDAT ??_R2CSimpleCompareChartAddInImp@@8
rdata$r	SEGMENT
??_R2CSimpleCompareChartAddInImp@@8 DD FLAT:??_R1A@?0A@EA@CSimpleCompareChartAddInImp@@8 ; CSimpleCompareChartAddInImp::`RTTI Base Class Array'
	DD	FLAT:??_R1A@?0A@EA@CChartAddInBase000000@@8
	DD	FLAT:??_R1A@?0A@EA@CIWUnknown@@8
	DD	FLAT:??_R1A@?0A@EA@CObject@@8
	DD	FLAT:??_R17?0A@EA@IChartAddIn000000@@8
	DD	FLAT:??_R17?0A@EA@IUnknown@@8
rdata$r	ENDS
;	COMDAT ??_R3CSimpleCompareChartAddInImp@@8
rdata$r	SEGMENT
??_R3CSimpleCompareChartAddInImp@@8 DD 00H		; CSimpleCompareChartAddInImp::`RTTI Class Hierarchy Descriptor'
	DD	01H
	DD	06H
	DD	FLAT:??_R2CSimpleCompareChartAddInImp@@8
rdata$r	ENDS
;	COMDAT ??_R0?AVCSimpleCompareChartAddInImp@@@8
data$rs	SEGMENT
??_R0?AVCSimpleCompareChartAddInImp@@@8 DD FLAT:??_7type_info@@6B@ ; CSimpleCompareChartAddInImp `RTTI Type Descriptor'
	DD	00H
	DB	'.?AVCSimpleCompareChartAddInImp@@', 00H
data$rs	ENDS
;	COMDAT ??_R4CSimpleCompareChartAddInImp@@6BCIWUnknown@@@
rdata$r	SEGMENT
??_R4CSimpleCompareChartAddInImp@@6BCIWUnknown@@@ DD 00H ; CSimpleCompareChartAddInImp::`RTTI Complete Object Locator'
	DD	00H
	DD	00H
	DD	FLAT:??_R0?AVCSimpleCompareChartAddInImp@@@8
	DD	FLAT:??_R3CSimpleCompareChartAddInImp@@8
rdata$r	ENDS
;	COMDAT ??_R1A@?0A@EA@IChartAddIn000000@@8
rdata$r	SEGMENT
??_R1A@?0A@EA@IChartAddIn000000@@8 DD FLAT:??_R0?AUIChartAddIn000000@@@8 ; IChartAddIn000000::`RTTI Base Class Descriptor at (0,-1,0,64)'
	DD	01H
	DD	00H
	DD	0ffffffffH
	DD	00H
	DD	040H
	DD	FLAT:??_R3IChartAddIn000000@@8
rdata$r	ENDS
;	COMDAT ??_R2IChartAddIn000000@@8
rdata$r	SEGMENT
??_R2IChartAddIn000000@@8 DD FLAT:??_R1A@?0A@EA@IChartAddIn000000@@8 ; IChartAddIn000000::`RTTI Base Class Array'
	DD	FLAT:??_R1A@?0A@EA@IUnknown@@8
rdata$r	ENDS
;	COMDAT ??_R3IChartAddIn000000@@8
rdata$r	SEGMENT
??_R3IChartAddIn000000@@8 DD 00H			; IChartAddIn000000::`RTTI Class Hierarchy Descriptor'
	DD	00H
	DD	02H
	DD	FLAT:??_R2IChartAddIn000000@@8
rdata$r	ENDS
;	COMDAT ??_R0?AUIChartAddIn000000@@@8
data$rs	SEGMENT
??_R0?AUIChartAddIn000000@@@8 DD FLAT:??_7type_info@@6B@ ; IChartAddIn000000 `RTTI Type Descriptor'
	DD	00H
	DB	'.?AUIChartAddIn000000@@', 00H
data$rs	ENDS
;	COMDAT ??_C@_0P@GBPFOBGA@BlockColumn?$DL?$AN?6@
CONST	SEGMENT
??_C@_0P@GBPFOBGA@BlockColumn?$DL?$AN?6@ DB 'BlockColumn;', 0dH, 0aH, 00H ; `string'
CONST	ENDS
;	COMDAT ??_C@_0BC@DENBEKI@BlockColumnEnd?$DL?$AN?6@
CONST	SEGMENT
??_C@_0BC@DENBEKI@BlockColumnEnd?$DL?$AN?6@ DB 'BlockColumnEnd;', 0dH, 0aH
	DB	00H						; `string'
CONST	ENDS
;	COMDAT ??_C@_02OONNCLCO@?$DL1@
CONST	SEGMENT
??_C@_02OONNCLCO@?$DL1@ DB ';1', 00H			; `string'
CONST	ENDS
;	COMDAT ??_C@_02PHMGBKGP@?$DL0@
CONST	SEGMENT
??_C@_02PHMGBKGP@?$DL0@ DB ';0', 00H			; `string'
CONST	ENDS
;	COMDAT ??_C@_0M@DGHFHKEI@GraphEnd?$DL?$AN?6@
CONST	SEGMENT
??_C@_0M@DGHFHKEI@GraphEnd?$DL?$AN?6@ DB 'GraphEnd;', 0dH, 0aH, 00H ; `string'
CONST	ENDS
;	COMDAT ??_C@_08BHMMGBBH@Graph?$DL?$AN?6@
CONST	SEGMENT
??_C@_08BHMMGBBH@Graph?$DL?$AN?6@ DB 'Graph;', 0dH, 0aH, 00H ; `string'
CONST	ENDS
;	COMDAT ??_C@_0BF@DDJNMPKE@VertScaleGroupEnd?$DL?$AN?6@
CONST	SEGMENT
??_C@_0BF@DDJNMPKE@VertScaleGroupEnd?$DL?$AN?6@ DB 'VertScaleGroupEnd;', 0dH
	DB	0aH, 00H					; `string'
CONST	ENDS
;	COMDAT ??_C@_0BC@DJOHDNOJ@VertScaleGroup?$DL?$AN?6@
CONST	SEGMENT
??_C@_0BC@DJOHDNOJ@VertScaleGroup?$DL?$AN?6@ DB 'VertScaleGroup;', 0dH, 0aH
	DB	00H						; `string'
CONST	ENDS
;	COMDAT ??_C@_02PCIJFNDE@?$AN?6@
CONST	SEGMENT
??_C@_02PCIJFNDE@?$AN?6@ DB 0dH, 0aH, 00H		; `string'
CONST	ENDS
;	COMDAT ??_C@_0M@FHFNKLHB@BlockEnd?$DL?$AN?6@
CONST	SEGMENT
??_C@_0M@FHFNKLHB@BlockEnd?$DL?$AN?6@ DB 'BlockEnd;', 0dH, 0aH, 00H ; `string'
CONST	ENDS
;	COMDAT ??_C@_08KGLHHGPJ@Block?$DL?$AN?6@
CONST	SEGMENT
??_C@_08KGLHHGPJ@Block?$DL?$AN?6@ DB 'Block;', 0dH, 0aH, 00H ; `string'
CONST	ENDS
;	COMDAT ??_C@_05DMCAHJJE@TITLE@
CONST	SEGMENT
??_C@_05DMCAHJJE@TITLE@ DB 'TITLE', 00H			; `string'
CONST	ENDS
;	COMDAT ??_7CSimpleCompareChartAddInImp@@6BIChartAddIn000000@@@
CONST	SEGMENT
??_7CSimpleCompareChartAddInImp@@6BIChartAddIn000000@@@ DD FLAT:??_R4CSimpleCompareChartAddInImp@@6BIChartAddIn000000@@@ ; CSimpleCompareChartAddInImp::`vftable'
	DD	FLAT:?QueryInterface@CChartAddInBase000000@@O7AGJABU_GUID@@PAPAX@Z
	DD	FLAT:?AddRef@CChartAddInBase000000@@O7AGKXZ
	DD	FLAT:?Release@CChartAddInBase000000@@O7AGKXZ
	DD	FLAT:??_ECSimpleCompareChartAddInImp@@W7AEPAXI@Z
	DD	FLAT:?HasFullManager@CChartAddInBase000000@@MAEHXZ
	DD	FLAT:?GetAddInCustomInterface@CChartAddInBase000000@@MAEPAUIUnknown@@XZ
	DD	FLAT:?InvokeAddIn@CSimpleCompareChartAddInImp@@MAEHHJ@Z
	DD	FLAT:?InvokeAddInStr@CSimpleCompareChartAddInImp@@MAEHPBD0@Z
	DD	FLAT:?OnOcxDestroyWindow@CChartAddInBase000000@@MAEXXZ
	DD	FLAT:?ChangeChartMode@CChartAddInBase000000@@MAEXW4CHART_MODE@CChartInfo@@@Z
	DD	FLAT:?RegisterEventMap@CChartAddInBase000000@@UAEHH@Z
	DD	FLAT:?UnregisterEventMap@CChartAddInBase000000@@UAEHXZ
	DD	FLAT:?OnGSharedDataChange@CChartAddInBase000000@@MAEXPBD0H@Z
	DD	FLAT:?OnLSharedDataChange@CChartAddInBase000000@@MAEXPBD0@Z
	DD	FLAT:?OnResetChart@CChartAddInBase000000@@MAEXXZ
	DD	FLAT:?OnDrawBeforeGraph@CChartAddInBase000000@@MAEXPAUHDC__@@@Z
	DD	FLAT:?OnDrawAfterGraph@CChartAddInBase000000@@MAEXPAUHDC__@@@Z
	DD	FLAT:?OnPacketDataMultiItem@CChartAddInBase000000@@MAEXPBD0H@Z
	DD	FLAT:?OnTimer@CChartAddInBase000000@@MAEXI@Z
	DD	FLAT:?OnCaptureChanged@CChartAddInBase000000@@MAEXPAUHWND__@@QAUHBITMAP__@@@Z
	DD	FLAT:?OnResetMainBlock@CChartAddInBase000000@@MAEXXZ
	DD	FLAT:?OnUserIndiatorConditionLoaded@CChartAddInBase000000@@MAEXXZ
	DD	FLAT:?OnChartItemChanged@CChartAddInBase000000@@MAEXXZ
	DD	FLAT:?OnGraphDataChanged@CChartAddInBase000000@@MAEXXZ
	DD	FLAT:?OnBlockRemoved@CChartAddInBase000000@@MAEXHH@Z
	DD	FLAT:?OnGraphAdded@CChartAddInBase000000@@MAEXPBD0@Z
	DD	FLAT:?OnManualRealData@CChartAddInBase000000@@MAEXPBDNH@Z
	DD	FLAT:?OnContextMenu@CChartAddInBase000000@@MAEXPAUHWND__@@AAUtagPOINT@@@Z
	DD	FLAT:?OnGraphDeleted@CChartAddInBase000000@@MAEXPBD0@Z
	DD	FLAT:?OnPacketTruncated@CChartAddInBase000000@@MAEXH@Z
	DD	FLAT:?OnBlockChanged@CChartAddInBase000000@@MAEXW4BLOCKBEHAVIOR@CBlockBaseData@@HHHH@Z
	DD	FLAT:?OnToolCommand@CChartAddInBase000000@@MAEXHH@Z
	DD	FLAT:?OnRealData@CChartAddInBase000000@@MAEXPBDN0@Z
	DD	FLAT:?OnIndexedRealData@CChartAddInBase000000@@MAEXPBDHN@Z
	DD	FLAT:?OnRealPacketEnd@CChartAddInBase000000@@MAEXPBD@Z
	DD	FLAT:?OnLoadEnvironment@CChartAddInBase000000@@MAEXPAUIPropertyMap@@@Z
	DD	FLAT:?OnSaveEnvironment@CChartAddInBase000000@@MAEXPAUIPropertyMap@@@Z
	DD	FLAT:?DrawCursor@CChartAddInBase000000@@MAE?AUtagRECT@@PAUHDC__@@@Z
	DD	FLAT:?OnRecalculationComplete@CChartAddInBase000000@@MAEXXZ
	DD	FLAT:?OnPreRealData@CChartAddInBase000000@@MAEHPBDAAN0H@Z
	DD	FLAT:?OnPreIndexedRealData@CChartAddInBase000000@@MAEHPBDHAANH@Z
	DD	FLAT:?OnPreRealPacketEnd@CChartAddInBase000000@@MAEHPBDH@Z
	DD	FLAT:?OnPreNMTRClock@CChartAddInBase000000@@MAEHAA_J@Z
	DD	FLAT:?OnCmdMsg@CChartAddInBase000000@@MAEHIHPAUICmdUI000000@@@Z
	DD	FLAT:?OnAddInMsg@CChartAddInBase000000@@MAEHPBDJ@Z
	DD	FLAT:?OnAddInToolCommand@CChartAddInBase000000@@MAEHAAJW4EAICommandType@@JJ@Z
	DD	FLAT:?OnAddInToolCommand@CChartAddInBase000000@@MAEHAAJW4EAICommandType@@J@Z
	DD	FLAT:?OnAddInToolCommand@CChartAddInBase000000@@MAEHAAJW4EAICommandType@@PBDPAVCObject@@@Z
	DD	FLAT:?OnAddInToolCommand@CChartAddInBase000000@@MAEHAAJW4EAICommandType@@PBD@Z
	DD	FLAT:?OnAddInToolCommand@CChartAddInBase000000@@MAEHAAJW4EAICommandType@@PAUIGraphInfo000000@@@Z
	DD	FLAT:?OnAddInToolCommand@CChartAddInBase000000@@MAEHAAJW4EAICommandType@@@Z
	DD	FLAT:?OnAddInToolCommand@CChartAddInBase000000@@MAEHW4EAICommandType@@JJJJJJJJJ@Z
	DD	FLAT:?OnAddInToolCommand@CChartAddInBase000000@@MAEHW4EAICommandType@@JJ@Z
	DD	FLAT:?OnAddInToolCommand@CChartAddInBase000000@@MAEHW4EAICommandType@@JPBD11@Z
	DD	FLAT:?OnAddInToolCommand@CChartAddInBase000000@@MAEHW4EAICommandType@@JPBD@Z
	DD	FLAT:?OnAddInToolCommand@CChartAddInBase000000@@MAEHW4EAICommandType@@J@Z
	DD	FLAT:?OnAddInToolCommand@CChartAddInBase000000@@MAEHW4EAICommandType@@PBUIAddInDllBase@@@Z
	DD	FLAT:?OnAddInToolCommand@CChartAddInBase000000@@MAEHW4EAICommandType@@PBDJ@Z
	DD	FLAT:?OnAddInToolCommand@CChartAddInBase000000@@MAEHW4EAICommandType@@PBD1@Z
	DD	FLAT:?OnAddInToolCommand@CChartAddInBase000000@@MAEHW4EAICommandType@@PBD@Z
	DD	FLAT:?OnAddInToolCommand@CChartAddInBase000000@@MAEHW4EAICommandType@@PAUHDC__@@IAAUtagPOINT@@K@Z
	DD	FLAT:?OnAddInToolCommand@CChartAddInBase000000@@MAEHW4EAICommandType@@@Z
	DD	FLAT:?OnKeyDown@CChartAddInBase000000@@MAEHIII@Z
	DD	FLAT:?OnKeyUp@CChartAddInBase000000@@MAEHIII@Z
	DD	FLAT:?OnMouseWheel@CChartAddInBase000000@@MAEHIFUtagPOINT@@K@Z
	DD	FLAT:?OnMouseMove@CChartAddInBase000000@@MAEHPAUHDC__@@IAAUtagPOINT@@KQAUHBITMAP__@@@Z
	DD	FLAT:?OnLButtonDown@CChartAddInBase000000@@MAEHPAUHDC__@@IAAUtagPOINT@@K@Z
	DD	FLAT:?OnLButtonUp@CChartAddInBase000000@@MAEHPAUHDC__@@IAAUtagPOINT@@K@Z
	DD	FLAT:?OnLButtonDblClk@CChartAddInBase000000@@MAEHPAUHDC__@@IAAUtagPOINT@@K@Z
	DD	FLAT:?OnRButtonDown@CChartAddInBase000000@@MAEHPAUHDC__@@IAAUtagPOINT@@K@Z
	DD	FLAT:?OnRButtonUp@CChartAddInBase000000@@MAEHPAUHDC__@@IAAUtagPOINT@@K@Z
	DD	FLAT:?OnRButtonDblClk@CChartAddInBase000000@@MAEHPAUHDC__@@IAAUtagPOINT@@K@Z
CONST	ENDS
;	COMDAT ??_7CSimpleCompareChartAddInImp@@6BCIWUnknown@@@
CONST	SEGMENT
??_7CSimpleCompareChartAddInImp@@6BCIWUnknown@@@ DD FLAT:??_R4CSimpleCompareChartAddInImp@@6BCIWUnknown@@@ ; CSimpleCompareChartAddInImp::`vftable'
	DD	FLAT:?GetRuntimeClass@CObject@@UBEPAUCRuntimeClass@@XZ
	DD	FLAT:??_ECSimpleCompareChartAddInImp@@UAEPAXI@Z
	DD	FLAT:?Serialize@CObject@@UAEXAAVCArchive@@@Z
	DD	FLAT:?AssertValid@CObject@@UBEXXZ
	DD	FLAT:?Dump@CObject@@UBEXAAVCDumpContext@@@Z
	DD	FLAT:?AddRef@CChartAddInBase000000@@MAGKXZ
	DD	FLAT:?Release@CChartAddInBase000000@@MAGKXZ
	DD	FLAT:?QueryInterface@CChartAddInBase000000@@MAGJABU_GUID@@PAPAX@Z
	DD	FLAT:?PostConstruct@CIWUnknown@@MAEXXZ
	DD	FLAT:?PreDestructX@CIWUnknown@@MAEXXZ
	DD	FLAT:?PreDestruct@CIWUnknown@@MAEXXZ
	DD	FLAT:?GetRegisteredEventMap@CSimpleCompareChartAddInImp@@MBEPBW4EAddInEventType@IChartAddIn000000@@XZ
	DD	FLAT:?AfeterOnOcxDestroyWindow@CChartAddInBase000000@@MAEXXZ
CONST	ENDS
;	COMDAT ??_R1A@?0A@EA@IUnknown@@8
rdata$r	SEGMENT
??_R1A@?0A@EA@IUnknown@@8 DD FLAT:??_R0?AUIUnknown@@@8	; IUnknown::`RTTI Base Class Descriptor at (0,-1,0,64)'
	DD	00H
	DD	00H
	DD	0ffffffffH
	DD	00H
	DD	040H
	DD	FLAT:??_R3IUnknown@@8
rdata$r	ENDS
;	COMDAT ??_R2IUnknown@@8
rdata$r	SEGMENT
??_R2IUnknown@@8 DD FLAT:??_R1A@?0A@EA@IUnknown@@8	; IUnknown::`RTTI Base Class Array'
rdata$r	ENDS
;	COMDAT ??_R3IUnknown@@8
rdata$r	SEGMENT
??_R3IUnknown@@8 DD 00H					; IUnknown::`RTTI Class Hierarchy Descriptor'
	DD	00H
	DD	01H
	DD	FLAT:??_R2IUnknown@@8
rdata$r	ENDS
;	COMDAT ??_R0?AUIUnknown@@@8
data$rs	SEGMENT
??_R0?AUIUnknown@@@8 DD FLAT:??_7type_info@@6B@		; IUnknown `RTTI Type Descriptor'
	DD	00H
	DB	'.?AUIUnknown@@', 00H
data$rs	ENDS
;	COMDAT ??_R1A@?0A@EA@CObject@@8
rdata$r	SEGMENT
??_R1A@?0A@EA@CObject@@8 DD FLAT:??_R0?AVCObject@@@8	; CObject::`RTTI Base Class Descriptor at (0,-1,0,64)'
	DD	00H
	DD	00H
	DD	0ffffffffH
	DD	00H
	DD	040H
	DD	FLAT:??_R3CObject@@8
rdata$r	ENDS
;	COMDAT ??_R2CObject@@8
rdata$r	SEGMENT
??_R2CObject@@8 DD FLAT:??_R1A@?0A@EA@CObject@@8	; CObject::`RTTI Base Class Array'
rdata$r	ENDS
;	COMDAT ??_R3CObject@@8
rdata$r	SEGMENT
??_R3CObject@@8 DD 00H					; CObject::`RTTI Class Hierarchy Descriptor'
	DD	00H
	DD	01H
	DD	FLAT:??_R2CObject@@8
rdata$r	ENDS
;	COMDAT ??_R0?AVCObject@@@8
data$rs	SEGMENT
??_R0?AVCObject@@@8 DD FLAT:??_7type_info@@6B@		; CObject `RTTI Type Descriptor'
	DD	00H
	DB	'.?AVCObject@@', 00H
data$rs	ENDS
;	COMDAT ??_C@_02DPKJAMEF@?$CFd@
CONST	SEGMENT
??_C@_02DPKJAMEF@?$CFd@ DB '%d', 00H			; `string'
CONST	ENDS
;	COMDAT xdata$x
xdata$x	SEGMENT
__ehfuncinfo$??1ILPCSTR000000@@QAE@XZ DD 019930522H
	DD	00H
	DD	00H
	DD	2 DUP(00H)
	DD	2 DUP(00H)
	DD	00H
	DD	05H
xdata$x	ENDS
;	COMDAT xdata$x
xdata$x	SEGMENT
__ehfuncinfo$?GenerateAndSetChartListInfo@CSimpleCompareChartAddInImp@@IAEXXZ DD 019930522H
	DD	035H
	DD	FLAT:__unwindtable$?GenerateAndSetChartListInfo@CSimpleCompareChartAddInImp@@IAEXXZ
	DD	2 DUP(00H)
	DD	2 DUP(00H)
	DD	00H
	DD	01H
__unwindtable$?GenerateAndSetChartListInfo@CSimpleCompareChartAddInImp@@IAEXXZ DD 0ffffffffH
	DD	FLAT:__unwindfunclet$?GenerateAndSetChartListInfo@CSimpleCompareChartAddInImp@@IAEXXZ$0
	DD	00H
	DD	FLAT:__unwindfunclet$?GenerateAndSetChartListInfo@CSimpleCompareChartAddInImp@@IAEXXZ$1
	DD	01H
	DD	FLAT:__unwindfunclet$?GenerateAndSetChartListInfo@CSimpleCompareChartAddInImp@@IAEXXZ$2
	DD	02H
	DD	FLAT:__unwindfunclet$?GenerateAndSetChartListInfo@CSimpleCompareChartAddInImp@@IAEXXZ$3
	DD	03H
	DD	FLAT:__unwindfunclet$?GenerateAndSetChartListInfo@CSimpleCompareChartAddInImp@@IAEXXZ$4
	DD	04H
	DD	FLAT:__unwindfunclet$?GenerateAndSetChartListInfo@CSimpleCompareChartAddInImp@@IAEXXZ$5
	DD	05H
	DD	FLAT:__unwindfunclet$?GenerateAndSetChartListInfo@CSimpleCompareChartAddInImp@@IAEXXZ$6
	DD	06H
	DD	FLAT:__unwindfunclet$?GenerateAndSetChartListInfo@CSimpleCompareChartAddInImp@@IAEXXZ$53
	DD	07H
	DD	FLAT:__unwindfunclet$?GenerateAndSetChartListInfo@CSimpleCompareChartAddInImp@@IAEXXZ$54
	DD	08H
	DD	FLAT:__unwindfunclet$?GenerateAndSetChartListInfo@CSimpleCompareChartAddInImp@@IAEXXZ$55
	DD	09H
	DD	FLAT:__unwindfunclet$?GenerateAndSetChartListInfo@CSimpleCompareChartAddInImp@@IAEXXZ$56
	DD	0aH
	DD	FLAT:__unwindfunclet$?GenerateAndSetChartListInfo@CSimpleCompareChartAddInImp@@IAEXXZ$57
	DD	0bH
	DD	FLAT:__unwindfunclet$?GenerateAndSetChartListInfo@CSimpleCompareChartAddInImp@@IAEXXZ$58
	DD	00H
	DD	FLAT:__unwindfunclet$?GenerateAndSetChartListInfo@CSimpleCompareChartAddInImp@@IAEXXZ$13
	DD	0dH
	DD	FLAT:__unwindfunclet$?GenerateAndSetChartListInfo@CSimpleCompareChartAddInImp@@IAEXXZ$14
	DD	0eH
	DD	FLAT:__unwindfunclet$?GenerateAndSetChartListInfo@CSimpleCompareChartAddInImp@@IAEXXZ$15
	DD	0fH
	DD	FLAT:__unwindfunclet$?GenerateAndSetChartListInfo@CSimpleCompareChartAddInImp@@IAEXXZ$16
	DD	010H
	DD	FLAT:__unwindfunclet$?GenerateAndSetChartListInfo@CSimpleCompareChartAddInImp@@IAEXXZ$17
	DD	011H
	DD	FLAT:__unwindfunclet$?GenerateAndSetChartListInfo@CSimpleCompareChartAddInImp@@IAEXXZ$18
	DD	012H
	DD	FLAT:__unwindfunclet$?GenerateAndSetChartListInfo@CSimpleCompareChartAddInImp@@IAEXXZ$19
	DD	013H
	DD	FLAT:__unwindfunclet$?GenerateAndSetChartListInfo@CSimpleCompareChartAddInImp@@IAEXXZ$59
	DD	014H
	DD	FLAT:__unwindfunclet$?GenerateAndSetChartListInfo@CSimpleCompareChartAddInImp@@IAEXXZ$60
	DD	015H
	DD	FLAT:__unwindfunclet$?GenerateAndSetChartListInfo@CSimpleCompareChartAddInImp@@IAEXXZ$61
	DD	016H
	DD	FLAT:__unwindfunclet$?GenerateAndSetChartListInfo@CSimpleCompareChartAddInImp@@IAEXXZ$62
	DD	013H
	DD	FLAT:__unwindfunclet$?GenerateAndSetChartListInfo@CSimpleCompareChartAddInImp@@IAEXXZ$63
	DD	018H
	DD	FLAT:__unwindfunclet$?GenerateAndSetChartListInfo@CSimpleCompareChartAddInImp@@IAEXXZ$64
	DD	00H
	DD	FLAT:__unwindfunclet$?GenerateAndSetChartListInfo@CSimpleCompareChartAddInImp@@IAEXXZ$26
	DD	01aH
	DD	FLAT:__unwindfunclet$?GenerateAndSetChartListInfo@CSimpleCompareChartAddInImp@@IAEXXZ$27
	DD	01bH
	DD	FLAT:__unwindfunclet$?GenerateAndSetChartListInfo@CSimpleCompareChartAddInImp@@IAEXXZ$28
	DD	01bH
	DD	FLAT:__unwindfunclet$?GenerateAndSetChartListInfo@CSimpleCompareChartAddInImp@@IAEXXZ$65
	DD	01dH
	DD	FLAT:__unwindfunclet$?GenerateAndSetChartListInfo@CSimpleCompareChartAddInImp@@IAEXXZ$66
	DD	01eH
	DD	FLAT:__unwindfunclet$?GenerateAndSetChartListInfo@CSimpleCompareChartAddInImp@@IAEXXZ$67
	DD	01aH
	DD	FLAT:__unwindfunclet$?GenerateAndSetChartListInfo@CSimpleCompareChartAddInImp@@IAEXXZ$32
	DD	020H
	DD	FLAT:__unwindfunclet$?GenerateAndSetChartListInfo@CSimpleCompareChartAddInImp@@IAEXXZ$68
	DD	021H
	DD	FLAT:__unwindfunclet$?GenerateAndSetChartListInfo@CSimpleCompareChartAddInImp@@IAEXXZ$69
	DD	022H
	DD	FLAT:__unwindfunclet$?GenerateAndSetChartListInfo@CSimpleCompareChartAddInImp@@IAEXXZ$70
	DD	01aH
	DD	FLAT:__unwindfunclet$?GenerateAndSetChartListInfo@CSimpleCompareChartAddInImp@@IAEXXZ$36
	DD	024H
	DD	FLAT:__unwindfunclet$?GenerateAndSetChartListInfo@CSimpleCompareChartAddInImp@@IAEXXZ$37
	DD	025H
	DD	FLAT:__unwindfunclet$?GenerateAndSetChartListInfo@CSimpleCompareChartAddInImp@@IAEXXZ$38
	DD	026H
	DD	FLAT:__unwindfunclet$?GenerateAndSetChartListInfo@CSimpleCompareChartAddInImp@@IAEXXZ$71
	DD	027H
	DD	FLAT:__unwindfunclet$?GenerateAndSetChartListInfo@CSimpleCompareChartAddInImp@@IAEXXZ$72
	DD	026H
	DD	FLAT:__unwindfunclet$?GenerateAndSetChartListInfo@CSimpleCompareChartAddInImp@@IAEXXZ$73
	DD	029H
	DD	FLAT:__unwindfunclet$?GenerateAndSetChartListInfo@CSimpleCompareChartAddInImp@@IAEXXZ$74
	DD	02aH
	DD	FLAT:__unwindfunclet$?GenerateAndSetChartListInfo@CSimpleCompareChartAddInImp@@IAEXXZ$75
	DD	024H
	DD	FLAT:__unwindfunclet$?GenerateAndSetChartListInfo@CSimpleCompareChartAddInImp@@IAEXXZ$44
	DD	02cH
	DD	FLAT:__unwindfunclet$?GenerateAndSetChartListInfo@CSimpleCompareChartAddInImp@@IAEXXZ$76
	DD	02dH
	DD	FLAT:__unwindfunclet$?GenerateAndSetChartListInfo@CSimpleCompareChartAddInImp@@IAEXXZ$77
	DD	02cH
	DD	FLAT:__unwindfunclet$?GenerateAndSetChartListInfo@CSimpleCompareChartAddInImp@@IAEXXZ$47
	DD	02cH
	DD	FLAT:__unwindfunclet$?GenerateAndSetChartListInfo@CSimpleCompareChartAddInImp@@IAEXXZ$78
	DD	030H
	DD	FLAT:__unwindfunclet$?GenerateAndSetChartListInfo@CSimpleCompareChartAddInImp@@IAEXXZ$79
	DD	031H
	DD	FLAT:__unwindfunclet$?GenerateAndSetChartListInfo@CSimpleCompareChartAddInImp@@IAEXXZ$80
	DD	024H
	DD	FLAT:__unwindfunclet$?GenerateAndSetChartListInfo@CSimpleCompareChartAddInImp@@IAEXXZ$81
	DD	033H
	DD	FLAT:__unwindfunclet$?GenerateAndSetChartListInfo@CSimpleCompareChartAddInImp@@IAEXXZ$82
xdata$x	ENDS
;	COMDAT xdata$x
xdata$x	SEGMENT
__ehfuncinfo$?GetAndParseChartListInfo@CSimpleCompareChartAddInImp@@IAEXXZ DD 019930522H
	DD	023H
	DD	FLAT:__unwindtable$?GetAndParseChartListInfo@CSimpleCompareChartAddInImp@@IAEXXZ
	DD	2 DUP(00H)
	DD	2 DUP(00H)
	DD	00H
	DD	01H
__unwindtable$?GetAndParseChartListInfo@CSimpleCompareChartAddInImp@@IAEXXZ DD 0ffffffffH
	DD	FLAT:__unwindfunclet$?GetAndParseChartListInfo@CSimpleCompareChartAddInImp@@IAEXXZ$0
	DD	00H
	DD	FLAT:__unwindfunclet$?GetAndParseChartListInfo@CSimpleCompareChartAddInImp@@IAEXXZ$1
	DD	01H
	DD	FLAT:__unwindfunclet$?GetAndParseChartListInfo@CSimpleCompareChartAddInImp@@IAEXXZ$2
	DD	01H
	DD	FLAT:__unwindfunclet$?GetAndParseChartListInfo@CSimpleCompareChartAddInImp@@IAEXXZ$3
	DD	03H
	DD	FLAT:__unwindfunclet$?GetAndParseChartListInfo@CSimpleCompareChartAddInImp@@IAEXXZ$4
	DD	04H
	DD	FLAT:__unwindfunclet$?GetAndParseChartListInfo@CSimpleCompareChartAddInImp@@IAEXXZ$5
	DD	04H
	DD	FLAT:__unwindfunclet$?GetAndParseChartListInfo@CSimpleCompareChartAddInImp@@IAEXXZ$6
	DD	06H
	DD	FLAT:__unwindfunclet$?GetAndParseChartListInfo@CSimpleCompareChartAddInImp@@IAEXXZ$7
	DD	06H
	DD	FLAT:__unwindfunclet$?GetAndParseChartListInfo@CSimpleCompareChartAddInImp@@IAEXXZ$8
	DD	06H
	DD	FLAT:__unwindfunclet$?GetAndParseChartListInfo@CSimpleCompareChartAddInImp@@IAEXXZ$9
	DD	09H
	DD	FLAT:__unwindfunclet$?GetAndParseChartListInfo@CSimpleCompareChartAddInImp@@IAEXXZ$10
	DD	09H
	DD	FLAT:__unwindfunclet$?GetAndParseChartListInfo@CSimpleCompareChartAddInImp@@IAEXXZ$11
	DD	09H
	DD	FLAT:__unwindfunclet$?GetAndParseChartListInfo@CSimpleCompareChartAddInImp@@IAEXXZ$12
	DD	09H
	DD	FLAT:__unwindfunclet$?GetAndParseChartListInfo@CSimpleCompareChartAddInImp@@IAEXXZ$13
	DD	09H
	DD	FLAT:__unwindfunclet$?GetAndParseChartListInfo@CSimpleCompareChartAddInImp@@IAEXXZ$14
	DD	04H
	DD	FLAT:__unwindfunclet$?GetAndParseChartListInfo@CSimpleCompareChartAddInImp@@IAEXXZ$15
	DD	0fH
	DD	FLAT:__unwindfunclet$?GetAndParseChartListInfo@CSimpleCompareChartAddInImp@@IAEXXZ$16
	DD	010H
	DD	FLAT:__unwindfunclet$?GetAndParseChartListInfo@CSimpleCompareChartAddInImp@@IAEXXZ$17
	DD	010H
	DD	FLAT:__unwindfunclet$?GetAndParseChartListInfo@CSimpleCompareChartAddInImp@@IAEXXZ$18
	DD	012H
	DD	FLAT:__unwindfunclet$?GetAndParseChartListInfo@CSimpleCompareChartAddInImp@@IAEXXZ$19
	DD	012H
	DD	FLAT:__unwindfunclet$?GetAndParseChartListInfo@CSimpleCompareChartAddInImp@@IAEXXZ$20
	DD	012H
	DD	FLAT:__unwindfunclet$?GetAndParseChartListInfo@CSimpleCompareChartAddInImp@@IAEXXZ$21
	DD	012H
	DD	FLAT:__unwindfunclet$?GetAndParseChartListInfo@CSimpleCompareChartAddInImp@@IAEXXZ$22
	DD	0fH
	DD	FLAT:__unwindfunclet$?GetAndParseChartListInfo@CSimpleCompareChartAddInImp@@IAEXXZ$23
	DD	017H
	DD	FLAT:__unwindfunclet$?GetAndParseChartListInfo@CSimpleCompareChartAddInImp@@IAEXXZ$24
	DD	017H
	DD	FLAT:__unwindfunclet$?GetAndParseChartListInfo@CSimpleCompareChartAddInImp@@IAEXXZ$25
	DD	019H
	DD	FLAT:__unwindfunclet$?GetAndParseChartListInfo@CSimpleCompareChartAddInImp@@IAEXXZ$26
	DD	019H
	DD	FLAT:__unwindfunclet$?GetAndParseChartListInfo@CSimpleCompareChartAddInImp@@IAEXXZ$27
	DD	019H
	DD	FLAT:__unwindfunclet$?GetAndParseChartListInfo@CSimpleCompareChartAddInImp@@IAEXXZ$28
	DD	01cH
	DD	FLAT:__unwindfunclet$?GetAndParseChartListInfo@CSimpleCompareChartAddInImp@@IAEXXZ$29
	DD	01cH
	DD	FLAT:__unwindfunclet$?GetAndParseChartListInfo@CSimpleCompareChartAddInImp@@IAEXXZ$30
	DD	01eH
	DD	FLAT:__unwindfunclet$?GetAndParseChartListInfo@CSimpleCompareChartAddInImp@@IAEXXZ$31
	DD	01eH
	DD	FLAT:__unwindfunclet$?GetAndParseChartListInfo@CSimpleCompareChartAddInImp@@IAEXXZ$32
	DD	020H
	DD	FLAT:__unwindfunclet$?GetAndParseChartListInfo@CSimpleCompareChartAddInImp@@IAEXXZ$33
	DD	0ffffffffH
	DD	FLAT:___std_terminate
xdata$x	ENDS
;	COMDAT xdata$x
xdata$x	SEGMENT
__unwindtable$?InvokeAddInStr@CSimpleCompareChartAddInImp@@MAEHPBD0@Z DD 0ffffffffH
	DD	FLAT:__unwindfunclet$?InvokeAddInStr@CSimpleCompareChartAddInImp@@MAEHPBD0@Z$0
	DD	0ffffffffH
	DD	FLAT:__unwindfunclet$?InvokeAddInStr@CSimpleCompareChartAddInImp@@MAEHPBD0@Z$1
	DD	01H
	DD	FLAT:__unwindfunclet$?InvokeAddInStr@CSimpleCompareChartAddInImp@@MAEHPBD0@Z$2
	DD	02H
	DD	FLAT:__unwindfunclet$?InvokeAddInStr@CSimpleCompareChartAddInImp@@MAEHPBD0@Z$3
__ehfuncinfo$?InvokeAddInStr@CSimpleCompareChartAddInImp@@MAEHPBD0@Z DD 019930522H
	DD	04H
	DD	FLAT:__unwindtable$?InvokeAddInStr@CSimpleCompareChartAddInImp@@MAEHPBD0@Z
	DD	2 DUP(00H)
	DD	2 DUP(00H)
	DD	00H
	DD	01H
xdata$x	ENDS
;	COMDAT xdata$x
xdata$x	SEGMENT
__ehfuncinfo$??0CSimpleCompareChartAddInImp@@QAE@PAUIChartOCX000000@@PAUIAddInDllBase@@@Z DD 019930522H
	DD	07H
	DD	FLAT:__unwindtable$??0CSimpleCompareChartAddInImp@@QAE@PAUIChartOCX000000@@PAUIAddInDllBase@@@Z
	DD	2 DUP(00H)
	DD	2 DUP(00H)
	DD	00H
	DD	01H
__unwindtable$??0CSimpleCompareChartAddInImp@@QAE@PAUIChartOCX000000@@PAUIAddInDllBase@@@Z DD 0ffffffffH
	DD	FLAT:__unwindfunclet$??0CSimpleCompareChartAddInImp@@QAE@PAUIChartOCX000000@@PAUIAddInDllBase@@@Z$0
	DD	00H
	DD	FLAT:__unwindfunclet$??0CSimpleCompareChartAddInImp@@QAE@PAUIChartOCX000000@@PAUIAddInDllBase@@@Z$1
	DD	01H
	DD	FLAT:__unwindfunclet$??0CSimpleCompareChartAddInImp@@QAE@PAUIChartOCX000000@@PAUIAddInDllBase@@@Z$2
	DD	02H
	DD	FLAT:__unwindfunclet$??0CSimpleCompareChartAddInImp@@QAE@PAUIChartOCX000000@@PAUIAddInDllBase@@@Z$3
	DD	03H
	DD	FLAT:__unwindfunclet$??0CSimpleCompareChartAddInImp@@QAE@PAUIChartOCX000000@@PAUIAddInDllBase@@@Z$4
	DD	04H
	DD	FLAT:__unwindfunclet$??0CSimpleCompareChartAddInImp@@QAE@PAUIChartOCX000000@@PAUIAddInDllBase@@@Z$5
	DD	05H
	DD	FLAT:__unwindfunclet$??0CSimpleCompareChartAddInImp@@QAE@PAUIChartOCX000000@@PAUIAddInDllBase@@@Z$6
xdata$x	ENDS
;	COMDAT xdata$x
xdata$x	SEGMENT
__unwindtable$??HATL@@YA?AV?$CStringT@DV?$StrTraitMFC_DLL@DV?$ChTraitsCRT@D@ATL@@@@@0@PBDABV10@@Z DD 0ffffffffH
	DD	FLAT:__unwindfunclet$??HATL@@YA?AV?$CStringT@DV?$StrTraitMFC_DLL@DV?$ChTraitsCRT@D@ATL@@@@@0@PBDABV10@@Z$0
__ehfuncinfo$??HATL@@YA?AV?$CStringT@DV?$StrTraitMFC_DLL@DV?$ChTraitsCRT@D@ATL@@@@@0@PBDABV10@@Z DD 019930522H
	DD	01H
	DD	FLAT:__unwindtable$??HATL@@YA?AV?$CStringT@DV?$StrTraitMFC_DLL@DV?$ChTraitsCRT@D@ATL@@@@@0@PBDABV10@@Z
	DD	2 DUP(00H)
	DD	2 DUP(00H)
	DD	00H
	DD	01H
xdata$x	ENDS
;	COMDAT xdata$x
xdata$x	SEGMENT
__unwindtable$??HATL@@YA?AV?$CStringT@DV?$StrTraitMFC_DLL@DV?$ChTraitsCRT@D@ATL@@@@@0@ABV10@PBD@Z DD 0ffffffffH
	DD	FLAT:__unwindfunclet$??HATL@@YA?AV?$CStringT@DV?$StrTraitMFC_DLL@DV?$ChTraitsCRT@D@ATL@@@@@0@ABV10@PBD@Z$0
__ehfuncinfo$??HATL@@YA?AV?$CStringT@DV?$StrTraitMFC_DLL@DV?$ChTraitsCRT@D@ATL@@@@@0@ABV10@PBD@Z DD 019930522H
	DD	01H
	DD	FLAT:__unwindtable$??HATL@@YA?AV?$CStringT@DV?$StrTraitMFC_DLL@DV?$ChTraitsCRT@D@ATL@@@@@0@ABV10@PBD@Z
	DD	2 DUP(00H)
	DD	2 DUP(00H)
	DD	00H
	DD	01H
xdata$x	ENDS
;	COMDAT xdata$x
xdata$x	SEGMENT
__unwindtable$??HATL@@YA?AV?$CStringT@DV?$StrTraitMFC_DLL@DV?$ChTraitsCRT@D@ATL@@@@@0@ABV10@0@Z DD 0ffffffffH
	DD	FLAT:__unwindfunclet$??HATL@@YA?AV?$CStringT@DV?$StrTraitMFC_DLL@DV?$ChTraitsCRT@D@ATL@@@@@0@ABV10@0@Z$0
__ehfuncinfo$??HATL@@YA?AV?$CStringT@DV?$StrTraitMFC_DLL@DV?$ChTraitsCRT@D@ATL@@@@@0@ABV10@0@Z DD 019930522H
	DD	01H
	DD	FLAT:__unwindtable$??HATL@@YA?AV?$CStringT@DV?$StrTraitMFC_DLL@DV?$ChTraitsCRT@D@ATL@@@@@0@ABV10@0@Z
	DD	2 DUP(00H)
	DD	2 DUP(00H)
	DD	00H
	DD	01H
xdata$x	ENDS
; Function compile flags: /Odsp
;	COMDAT ??_ECSimpleCompareChartAddInImp@@W7AEPAXI@Z
_TEXT	SEGMENT
??_ECSimpleCompareChartAddInImp@@W7AEPAXI@Z PROC	; [thunk]:CSimpleCompareChartAddInImp::`vector deleting destructor', COMDAT
  00000	83 e9 08	 sub	 ecx, 8
  00003	e9 00 00 00 00	 jmp	 ??_ECSimpleCompareChartAddInImp@@UAEPAXI@Z
??_ECSimpleCompareChartAddInImp@@W7AEPAXI@Z ENDP	; [thunk]:CSimpleCompareChartAddInImp::`vector deleting destructor'
_TEXT	ENDS
; Function compile flags: /Odsp
;	COMDAT ?Release@CChartAddInBase000000@@O7AGKXZ
_TEXT	SEGMENT
?Release@CChartAddInBase000000@@O7AGKXZ PROC		; [thunk]:CChartAddInBase000000::Release`adjustor{8}', COMDAT
  00000	83 6c 24 04 08	 sub	 DWORD PTR [esp+4], 8
  00005	e9 00 00 00 00	 jmp	 ?Release@CChartAddInBase000000@@MAGKXZ ; CChartAddInBase000000::Release
?Release@CChartAddInBase000000@@O7AGKXZ ENDP		; [thunk]:CChartAddInBase000000::Release`adjustor{8}'
_TEXT	ENDS
; Function compile flags: /Odsp
;	COMDAT ?AddRef@CChartAddInBase000000@@O7AGKXZ
_TEXT	SEGMENT
?AddRef@CChartAddInBase000000@@O7AGKXZ PROC		; [thunk]:CChartAddInBase000000::AddRef`adjustor{8}', COMDAT
  00000	83 6c 24 04 08	 sub	 DWORD PTR [esp+4], 8
  00005	e9 00 00 00 00	 jmp	 ?AddRef@CChartAddInBase000000@@MAGKXZ ; CChartAddInBase000000::AddRef
?AddRef@CChartAddInBase000000@@O7AGKXZ ENDP		; [thunk]:CChartAddInBase000000::AddRef`adjustor{8}'
_TEXT	ENDS
; Function compile flags: /Odsp
;	COMDAT ?QueryInterface@CChartAddInBase000000@@O7AGJABU_GUID@@PAPAX@Z
_TEXT	SEGMENT
?QueryInterface@CChartAddInBase000000@@O7AGJABU_GUID@@PAPAX@Z PROC ; [thunk]:CChartAddInBase000000::QueryInterface`adjustor{8}', COMDAT
  00000	83 6c 24 04 08	 sub	 DWORD PTR [esp+4], 8
  00005	e9 00 00 00 00	 jmp	 ?QueryInterface@CChartAddInBase000000@@MAGJABU_GUID@@PAPAX@Z ; CChartAddInBase000000::QueryInterface
?QueryInterface@CChartAddInBase000000@@O7AGJABU_GUID@@PAPAX@Z ENDP ; [thunk]:CChartAddInBase000000::QueryInterface`adjustor{8}'
_TEXT	ENDS
; Function compile flags: /Ogtp
;	COMDAT ??__F?m_strAddInItemName@CSimpleCompareChartAddInImp@@2V?$CStringT@DV?$StrTraitMFC_DLL@DV?$ChTraitsCRT@D@ATL@@@@@ATL@@A@@YAXXZ
text$yd	SEGMENT
??__F?m_strAddInItemName@CSimpleCompareChartAddInImp@@2V?$CStringT@DV?$StrTraitMFC_DLL@DV?$ChTraitsCRT@D@ATL@@@@@ATL@@A@@YAXXZ PROC ; `dynamic atexit destructor for 'CSimpleCompareChartAddInImp::m_strAddInItemName'', COMDAT
  00000	b9 00 00 00 00	 mov	 ecx, OFFSET ?m_strAddInItemName@CSimpleCompareChartAddInImp@@2V?$CStringT@DV?$StrTraitMFC_DLL@DV?$ChTraitsCRT@D@ATL@@@@@ATL@@A ; CSimpleCompareChartAddInImp::m_strAddInItemName
  00005	ff 25 00 00 00
	00		 jmp	 DWORD PTR __imp_??1?$CStringT@DV?$StrTraitMFC_DLL@DV?$ChTraitsCRT@D@ATL@@@@@ATL@@QAE@XZ
??__F?m_strAddInItemName@CSimpleCompareChartAddInImp@@2V?$CStringT@DV?$StrTraitMFC_DLL@DV?$ChTraitsCRT@D@ATL@@@@@ATL@@A@@YAXXZ ENDP ; `dynamic atexit destructor for 'CSimpleCompareChartAddInImp::m_strAddInItemName''
text$yd	ENDS
; Function compile flags: /Ogtp
; File D:\git\src\IBK\IBK_DRFN\ProjSrc\SrcChartEx\ChartOCX\AddInManager\ChartCommonAddIn\SimpleCompareChartAddInImp.cpp
;	COMDAT ??__E?m_strAddInItemName@CSimpleCompareChartAddInImp@@2V?$CStringT@DV?$StrTraitMFC_DLL@DV?$ChTraitsCRT@D@ATL@@@@@ATL@@A@@YAXXZ
text$di	SEGMENT
??__E?m_strAddInItemName@CSimpleCompareChartAddInImp@@2V?$CStringT@DV?$StrTraitMFC_DLL@DV?$ChTraitsCRT@D@ATL@@@@@ATL@@A@@YAXXZ PROC ; `dynamic initializer for 'CSimpleCompareChartAddInImp::m_strAddInItemName'', COMDAT

; 49   : CString CSimpleCompareChartAddInImp::m_strAddInItemName = "SIMPLE_COMPARE";

  00000	68 00 00 00 00	 push	 OFFSET ??_C@_0P@MIMNHAHB@SIMPLE_COMPARE@
  00005	b9 00 00 00 00	 mov	 ecx, OFFSET ?m_strAddInItemName@CSimpleCompareChartAddInImp@@2V?$CStringT@DV?$StrTraitMFC_DLL@DV?$ChTraitsCRT@D@ATL@@@@@ATL@@A ; CSimpleCompareChartAddInImp::m_strAddInItemName
  0000a	ff 15 00 00 00
	00		 call	 DWORD PTR __imp_??0?$CStringT@DV?$StrTraitMFC_DLL@DV?$ChTraitsCRT@D@ATL@@@@@ATL@@QAE@PBD@Z
  00010	68 00 00 00 00	 push	 OFFSET ??__F?m_strAddInItemName@CSimpleCompareChartAddInImp@@2V?$CStringT@DV?$StrTraitMFC_DLL@DV?$ChTraitsCRT@D@ATL@@@@@ATL@@A@@YAXXZ ; `dynamic atexit destructor for 'CSimpleCompareChartAddInImp::m_strAddInItemName''
  00015	e8 00 00 00 00	 call	 _atexit
  0001a	59		 pop	 ecx
  0001b	c3		 ret	 0
??__E?m_strAddInItemName@CSimpleCompareChartAddInImp@@2V?$CStringT@DV?$StrTraitMFC_DLL@DV?$ChTraitsCRT@D@ATL@@@@@ATL@@A@@YAXXZ ENDP ; `dynamic initializer for 'CSimpleCompareChartAddInImp::m_strAddInItemName''
text$di	ENDS
; Function compile flags: /Ogtp
; File D:\git\src\IBK\IBK_DRFN\ProjSrc\SrcChartEx\ChartOCX\AddInManager\Include_AddIn\I000000\_IString.h
;	COMDAT ??1ILPCSTR000000@@QAE@XZ
_TEXT	SEGMENT
__$EHRec$ = -12						; size = 12
??1ILPCSTR000000@@QAE@XZ PROC				; ILPCSTR000000::~ILPCSTR000000, COMDAT
; _this$ = ecx

; 44   : 	{

  00000	55		 push	 ebp
  00001	8b ec		 mov	 ebp, esp
  00003	6a ff		 push	 -1
  00005	68 00 00 00 00	 push	 __ehhandler$??1ILPCSTR000000@@QAE@XZ
  0000a	64 a1 00 00 00
	00		 mov	 eax, DWORD PTR fs:0
  00010	50		 push	 eax
  00011	56		 push	 esi
  00012	a1 00 00 00 00	 mov	 eax, DWORD PTR ___security_cookie
  00017	33 c5		 xor	 eax, ebp
  00019	50		 push	 eax
  0001a	8d 45 f4	 lea	 eax, DWORD PTR __$EHRec$[ebp]
  0001d	64 a3 00 00 00
	00		 mov	 DWORD PTR fs:0, eax
  00023	8b f1		 mov	 esi, ecx

; 45   : 		if( m_pIStrData)

  00025	8b 4e 04	 mov	 ecx, DWORD PTR [esi+4]
  00028	85 c9		 test	 ecx, ecx
  0002a	74 13		 je	 SHORT $LN2@ILPCSTR000

; 46   : 		{
; 47   : 			m_pIStrData->Release();

  0002c	8b 01		 mov	 eax, DWORD PTR [ecx]
  0002e	51		 push	 ecx
  0002f	ff 50 08	 call	 DWORD PTR [eax+8]

; 48   : 			m_pIStrData = NULL;

  00032	c7 46 04 00 00
	00 00		 mov	 DWORD PTR [esi+4], 0

; 49   : 			m_szData = NULL;

  00039	c7 06 00 00 00
	00		 mov	 DWORD PTR [esi], 0
$LN2@ILPCSTR000:

; 50   : 		}
; 51   : 	}

  0003f	8b 4d f4	 mov	 ecx, DWORD PTR __$EHRec$[ebp]
  00042	64 89 0d 00 00
	00 00		 mov	 DWORD PTR fs:0, ecx
  00049	59		 pop	 ecx
  0004a	5e		 pop	 esi
  0004b	8b e5		 mov	 esp, ebp
  0004d	5d		 pop	 ebp
  0004e	c3		 ret	 0
  0004f	cc		 int	 3
  00050	cc		 int	 3
  00051	cc		 int	 3
  00052	cc		 int	 3
  00053	cc		 int	 3
_TEXT	ENDS
;	COMDAT text$x
text$x	SEGMENT
__ehhandler$??1ILPCSTR000000@@QAE@XZ:
  00000	90		 npad	 1
  00001	90		 npad	 1
  00002	8b 54 24 08	 mov	 edx, DWORD PTR [esp+8]
  00006	8d 42 0c	 lea	 eax, DWORD PTR [edx+12]
  00009	8b 4a f8	 mov	 ecx, DWORD PTR [edx-8]
  0000c	33 c8		 xor	 ecx, eax
  0000e	e8 00 00 00 00	 call	 @__security_check_cookie@4
  00013	b8 00 00 00 00	 mov	 eax, OFFSET __ehfuncinfo$??1ILPCSTR000000@@QAE@XZ
  00018	e9 00 00 00 00	 jmp	 ___CxxFrameHandler3
text$x	ENDS
??1ILPCSTR000000@@QAE@XZ ENDP				; ILPCSTR000000::~ILPCSTR000000
; Function compile flags: /Ogtp
; File D:\git\src\IBK\IBK_DRFN\ProjSrc\SrcChartEx\ChartOCX\AddInManager\ChartCommonAddIn\SimpleCompareChartAddInImp.cpp
; File C:\Program Files (x86)\Microsoft Visual Studio\2019\Community\VC\Tools\MSVC\14.29.30133\atlmfc\include\afx.inl
;	COMDAT ??_GCSimpleCompareChartAddInImp@@UAEPAXI@Z
_TEXT	SEGMENT
___flags$ = 8						; size = 4
??_GCSimpleCompareChartAddInImp@@UAEPAXI@Z PROC		; CSimpleCompareChartAddInImp::`scalar deleting destructor', COMDAT
; _this$ = ecx
  00000	55		 push	 ebp
  00001	8b ec		 mov	 ebp, esp
; File D:\git\src\IBK\IBK_DRFN\ProjSrc\SrcChartEx\ChartOCX\AddInManager\ChartCommonAddIn\SimpleCompareChartAddInImp.cpp

; 45   : {

  00003	56		 push	 esi
  00004	8b f1		 mov	 esi, ecx

; 46   : }

  00006	8d 8e c8 00 00
	00		 lea	 ecx, DWORD PTR [esi+200]
  0000c	c7 06 00 00 00
	00		 mov	 DWORD PTR [esi], OFFSET ??_7CSimpleCompareChartAddInImp@@6BCIWUnknown@@@
  00012	c7 46 08 00 00
	00 00		 mov	 DWORD PTR [esi+8], OFFSET ??_7CSimpleCompareChartAddInImp@@6BIChartAddIn000000@@@
  00019	e8 00 00 00 00	 call	 ??1CStringList@@UAE@XZ	; CStringList::~CStringList
  0001e	8d 8e ac 00 00
	00		 lea	 ecx, DWORD PTR [esi+172]
  00024	e8 00 00 00 00	 call	 ??1CStringList@@UAE@XZ	; CStringList::~CStringList
  00029	8d 8e 90 00 00
	00		 lea	 ecx, DWORD PTR [esi+144]
  0002f	e8 00 00 00 00	 call	 ??1CStringList@@UAE@XZ	; CStringList::~CStringList
  00034	8d 4e 74	 lea	 ecx, DWORD PTR [esi+116]
  00037	e8 00 00 00 00	 call	 ??1CStringList@@UAE@XZ	; CStringList::~CStringList
  0003c	8d 4e 70	 lea	 ecx, DWORD PTR [esi+112]
  0003f	ff 15 00 00 00
	00		 call	 DWORD PTR __imp_??1?$CStringT@DV?$StrTraitMFC_DLL@DV?$ChTraitsCRT@D@ATL@@@@@ATL@@QAE@XZ
  00045	8d 4e 6c	 lea	 ecx, DWORD PTR [esi+108]
  00048	ff 15 00 00 00
	00		 call	 DWORD PTR __imp_??1?$CStringT@DV?$StrTraitMFC_DLL@DV?$ChTraitsCRT@D@ATL@@@@@ATL@@QAE@XZ
  0004e	8d 4e 64	 lea	 ecx, DWORD PTR [esi+100]
  00051	ff 15 00 00 00
	00		 call	 DWORD PTR __imp_??1?$CStringT@DV?$StrTraitMFC_DLL@DV?$ChTraitsCRT@D@ATL@@@@@ATL@@QAE@XZ
  00057	8b ce		 mov	 ecx, esi
  00059	e8 00 00 00 00	 call	 ??1CChartAddInBase000000@@MAE@XZ ; CChartAddInBase000000::~CChartAddInBase000000
  0005e	8b 45 08	 mov	 eax, DWORD PTR ___flags$[ebp]
  00061	a8 01		 test	 al, 1
  00063	74 22		 je	 SHORT $LN12@scalar
  00065	a8 04		 test	 al, 4
  00067	75 10		 jne	 SHORT $LN3@scalar
; File C:\Program Files (x86)\Microsoft Visual Studio\2019\Community\VC\Tools\MSVC\14.29.30133\atlmfc\include\afx.inl

; 112  : 	{ ::operator delete(p); }

  00069	56		 push	 esi
  0006a	e8 00 00 00 00	 call	 ??3@YAXPAX@Z		; operator delete
  0006f	83 c4 04	 add	 esp, 4
  00072	8b c6		 mov	 eax, esi
  00074	5e		 pop	 esi
  00075	5d		 pop	 ebp
  00076	c2 04 00	 ret	 4
$LN3@scalar:
  00079	68 e4 00 00 00	 push	 228			; 000000e4H
  0007e	56		 push	 esi
  0007f	e8 00 00 00 00	 call	 ?__global_delete@@YAXPAXI@Z ; __global_delete
  00084	83 c4 08	 add	 esp, 8
$LN12@scalar:
  00087	8b c6		 mov	 eax, esi
  00089	5e		 pop	 esi
  0008a	5d		 pop	 ebp
  0008b	c2 04 00	 ret	 4
??_GCSimpleCompareChartAddInImp@@UAEPAXI@Z ENDP		; CSimpleCompareChartAddInImp::`scalar deleting destructor'
_TEXT	ENDS
; Function compile flags: /Ogtp
; File D:\git\src\IBK\IBK_DRFN\ProjSrc\SrcChartEx\ChartOCX\AddInManager\ChartCommonAddIn\SimpleCompareChartAddInImp.cpp
; File C:\Program Files (x86)\Microsoft Visual Studio\2019\Community\VC\Tools\MSVC\14.29.30133\atlmfc\include\afxcoll.inl
; File D:\git\src\IBK\IBK_DRFN\ProjSrc\SrcChartEx\ChartOCX\AddInManager\ChartCommonAddIn\SimpleCompareChartAddInImp.cpp
; File C:\Program Files (x86)\Microsoft Visual Studio\2019\Community\VC\Tools\MSVC\14.29.30133\atlmfc\include\afxcoll.inl
; File D:\git\src\IBK\IBK_DRFN\ProjSrc\SrcChartEx\ChartOCX\AddInManager\ChartCommonAddIn\SimpleCompareChartAddInImp.cpp
; File C:\Program Files (x86)\Microsoft Visual Studio\2019\Community\VC\Tools\MSVC\14.29.30133\atlmfc\include\afxcoll.inl
; File D:\git\src\IBK\IBK_DRFN\ProjSrc\SrcChartEx\ChartOCX\AddInManager\ChartCommonAddIn\SimpleCompareChartAddInImp.cpp
; File C:\Program Files (x86)\Microsoft Visual Studio\2019\Community\VC\Tools\MSVC\14.29.30133\atlmfc\include\afxcoll.inl
; File D:\git\src\IBK\IBK_DRFN\ProjSrc\SrcChartEx\ChartOCX\AddInManager\ChartCommonAddIn\SimpleCompareChartAddInImp.cpp
; File C:\Program Files (x86)\Microsoft Visual Studio\2019\Community\VC\Tools\MSVC\14.29.30133\atlmfc\include\afxcoll.inl
; File D:\git\src\IBK\IBK_DRFN\ProjSrc\SrcChartEx\ChartOCX\AddInManager\ChartCommonAddIn\SimpleCompareChartAddInImp.cpp
; File C:\Program Files (x86)\Microsoft Visual Studio\2019\Community\VC\Tools\MSVC\14.29.30133\atlmfc\include\afxcoll.inl
; File D:\git\src\IBK\IBK_DRFN\ProjSrc\SrcChartEx\ChartOCX\AddInManager\ChartCommonAddIn\SimpleCompareChartAddInImp.cpp
; File C:\Program Files (x86)\Microsoft Visual Studio\2019\Community\VC\Tools\MSVC\14.29.30133\atlmfc\include\afxcoll.inl
; File D:\git\src\IBK\IBK_DRFN\ProjSrc\SrcChartEx\ChartOCX\AddInManager\ChartCommonAddIn\SimpleCompareChartAddInImp.cpp
; File C:\Program Files (x86)\Microsoft Visual Studio\2019\Community\VC\Tools\MSVC\14.29.30133\atlmfc\include\afxcoll.inl
; File D:\git\src\IBK\IBK_DRFN\ProjSrc\SrcChartEx\ChartOCX\AddInManager\ChartCommonAddIn\SimpleCompareChartAddInImp.cpp
; File C:\Program Files (x86)\Microsoft Visual Studio\2019\Community\VC\Tools\MSVC\14.29.30133\atlmfc\include\atlsimpstr.h
; File D:\git\src\IBK\IBK_DRFN\ProjSrc\SrcChartEx\ChartOCX\AddInManager\ChartCommonAddIn\SimpleCompareChartAddInImp.cpp
; File C:\Program Files (x86)\Microsoft Visual Studio\2019\Community\VC\Tools\MSVC\14.29.30133\atlmfc\include\atlsimpstr.h
; File D:\git\src\IBK\IBK_DRFN\ProjSrc\SrcChartEx\ChartOCX\AddInManager\ChartCommonAddIn\SimpleCompareChartAddInImp.cpp
; File C:\Program Files (x86)\Microsoft Visual Studio\2019\Community\VC\Tools\MSVC\14.29.30133\atlmfc\include\cstringt.h
; File D:\git\src\IBK\IBK_DRFN\ProjSrc\SrcChartEx\ChartOCX\AddInManager\ChartCommonAddIn\SimpleCompareChartAddInImp.cpp
; File C:\Program Files (x86)\Microsoft Visual Studio\2019\Community\VC\Tools\MSVC\14.29.30133\atlmfc\include\cstringt.h
; File C:\Program Files (x86)\Microsoft Visual Studio\2019\Community\VC\Tools\MSVC\14.29.30133\atlmfc\include\atlsimpstr.h
; File C:\Program Files (x86)\Microsoft Visual Studio\2019\Community\VC\Tools\MSVC\14.29.30133\atlmfc\include\cstringt.h
; File D:\git\src\IBK\IBK_DRFN\ProjSrc\SrcChartEx\ChartOCX\AddInManager\ChartCommonAddIn\SimpleCompareChartAddInImp.cpp
; File C:\Program Files (x86)\Microsoft Visual Studio\2019\Community\VC\Tools\MSVC\14.29.30133\atlmfc\include\cstringt.h
; File C:\Program Files (x86)\Microsoft Visual Studio\2019\Community\VC\Tools\MSVC\14.29.30133\atlmfc\include\atlsimpstr.h
; File C:\Program Files (x86)\Microsoft Visual Studio\2019\Community\VC\Tools\MSVC\14.29.30133\atlmfc\include\cstringt.h
; File C:\Program Files (x86)\Microsoft Visual Studio\2019\Community\VC\Tools\MSVC\14.29.30133\atlmfc\include\atlsimpstr.h
; File C:\Program Files (x86)\Microsoft Visual Studio\2019\Community\VC\Tools\MSVC\14.29.30133\atlmfc\include\cstringt.h
; File D:\git\src\IBK\IBK_DRFN\ProjSrc\SrcChartEx\ChartOCX\AddInManager\ChartCommonAddIn\SimpleCompareChartAddInImp.cpp
; File C:\Program Files (x86)\Microsoft Visual Studio\2019\Community\VC\Tools\MSVC\14.29.30133\atlmfc\include\cstringt.h
; File C:\Program Files (x86)\Microsoft Visual Studio\2019\Community\VC\Tools\MSVC\14.29.30133\atlmfc\include\atlsimpstr.h
; File C:\Program Files (x86)\Microsoft Visual Studio\2019\Community\VC\Tools\MSVC\14.29.30133\atlmfc\include\cstringt.h
; File C:\Program Files (x86)\Microsoft Visual Studio\2019\Community\VC\Tools\MSVC\14.29.30133\atlmfc\include\atlsimpstr.h
; File C:\Program Files (x86)\Microsoft Visual Studio\2019\Community\VC\Tools\MSVC\14.29.30133\atlmfc\include\cstringt.h
; File D:\git\src\IBK\IBK_DRFN\ProjSrc\SrcChartEx\ChartOCX\AddInManager\ChartCommonAddIn\SimpleCompareChartAddInImp.cpp
; File C:\Program Files (x86)\Microsoft Visual Studio\2019\Community\VC\Tools\MSVC\14.29.30133\atlmfc\include\cstringt.h
; File C:\Program Files (x86)\Microsoft Visual Studio\2019\Community\VC\Tools\MSVC\14.29.30133\atlmfc\include\atlsimpstr.h
; File C:\Program Files (x86)\Microsoft Visual Studio\2019\Community\VC\Tools\MSVC\14.29.30133\atlmfc\include\cstringt.h
; File C:\Program Files (x86)\Microsoft Visual Studio\2019\Community\VC\Tools\MSVC\14.29.30133\atlmfc\include\atlsimpstr.h
; File C:\Program Files (x86)\Microsoft Visual Studio\2019\Community\VC\Tools\MSVC\14.29.30133\atlmfc\include\cstringt.h
; File D:\git\src\IBK\IBK_DRFN\ProjSrc\SrcChartEx\ChartOCX\AddInManager\ChartCommonAddIn\SimpleCompareChartAddInImp.cpp
; File C:\Program Files (x86)\Microsoft Visual Studio\2019\Community\VC\Tools\MSVC\14.29.30133\atlmfc\include\cstringt.h
; File C:\Program Files (x86)\Microsoft Visual Studio\2019\Community\VC\Tools\MSVC\14.29.30133\atlmfc\include\atlsimpstr.h
; File C:\Program Files (x86)\Microsoft Visual Studio\2019\Community\VC\Tools\MSVC\14.29.30133\atlmfc\include\cstringt.h
; File C:\Program Files (x86)\Microsoft Visual Studio\2019\Community\VC\Tools\MSVC\14.29.30133\atlmfc\include\atlsimpstr.h
; File C:\Program Files (x86)\Microsoft Visual Studio\2019\Community\VC\Tools\MSVC\14.29.30133\atlmfc\include\cstringt.h
; File D:\git\src\IBK\IBK_DRFN\ProjSrc\SrcChartEx\ChartOCX\AddInManager\ChartCommonAddIn\SimpleCompareChartAddInImp.cpp
; File C:\Program Files (x86)\Microsoft Visual Studio\2019\Community\VC\Tools\MSVC\14.29.30133\atlmfc\include\cstringt.h
; File C:\Program Files (x86)\Microsoft Visual Studio\2019\Community\VC\Tools\MSVC\14.29.30133\atlmfc\include\atlsimpstr.h
; File C:\Program Files (x86)\Microsoft Visual Studio\2019\Community\VC\Tools\MSVC\14.29.30133\atlmfc\include\cstringt.h
; File D:\git\src\IBK\IBK_DRFN\ProjSrc\SrcChartEx\ChartOCX\AddInManager\ChartCommonAddIn\SimpleCompareChartAddInImp.cpp
; File C:\Program Files (x86)\Microsoft Visual Studio\2019\Community\VC\Tools\MSVC\14.29.30133\atlmfc\include\afxcoll.inl
; File D:\git\src\IBK\IBK_DRFN\ProjSrc\SrcChartEx\ChartOCX\AddInManager\ChartCommonAddIn\SimpleCompareChartAddInImp.cpp
; File C:\Program Files (x86)\Microsoft Visual Studio\2019\Community\VC\Tools\MSVC\14.29.30133\atlmfc\include\afxcoll.inl
; File D:\git\src\IBK\IBK_DRFN\ProjSrc\SrcChartEx\ChartOCX\AddInManager\ChartCommonAddIn\SimpleCompareChartAddInImp.cpp
; File C:\Program Files (x86)\Microsoft Visual Studio\2019\Community\VC\Tools\MSVC\14.29.30133\atlmfc\include\afxcoll.inl
; File D:\git\src\IBK\IBK_DRFN\ProjSrc\SrcChartEx\ChartOCX\AddInManager\ChartCommonAddIn\SimpleCompareChartAddInImp.cpp
; File C:\Program Files (x86)\Microsoft Visual Studio\2019\Community\VC\Tools\MSVC\14.29.30133\atlmfc\include\afxcoll.inl
; File D:\git\src\IBK\IBK_DRFN\ProjSrc\SrcChartEx\ChartOCX\AddInManager\ChartCommonAddIn\SimpleCompareChartAddInImp.cpp
; File C:\Program Files (x86)\Microsoft Visual Studio\2019\Community\VC\Tools\MSVC\14.29.30133\atlmfc\include\afxcoll.inl
; File D:\git\src\IBK\IBK_DRFN\ProjSrc\SrcChartEx\ChartOCX\AddInManager\ChartCommonAddIn\SimpleCompareChartAddInImp.cpp
; File C:\Program Files (x86)\Microsoft Visual Studio\2019\Community\VC\Tools\MSVC\14.29.30133\atlmfc\include\afxcoll.inl
; File D:\git\src\IBK\IBK_DRFN\ProjSrc\SrcChartEx\ChartOCX\AddInManager\ChartCommonAddIn\SimpleCompareChartAddInImp.cpp
; File C:\Program Files (x86)\Microsoft Visual Studio\2019\Community\VC\Tools\MSVC\14.29.30133\atlmfc\include\afxcoll.inl
; File D:\git\src\IBK\IBK_DRFN\ProjSrc\SrcChartEx\ChartOCX\AddInManager\ChartCommonAddIn\SimpleCompareChartAddInImp.cpp
; File C:\Program Files (x86)\Microsoft Visual Studio\2019\Community\VC\Tools\MSVC\14.29.30133\atlmfc\include\afxcoll.inl
; File D:\git\src\IBK\IBK_DRFN\ProjSrc\SrcChartEx\ChartOCX\AddInManager\ChartCommonAddIn\SimpleCompareChartAddInImp.cpp
; File C:\Program Files (x86)\Microsoft Visual Studio\2019\Community\VC\Tools\MSVC\14.29.30133\atlmfc\include\atlsimpstr.h
; File D:\git\src\IBK\IBK_DRFN\ProjSrc\SrcChartEx\ChartOCX\AddInManager\ChartCommonAddIn\SimpleCompareChartAddInImp.cpp
; File C:\Program Files (x86)\Microsoft Visual Studio\2019\Community\VC\Tools\MSVC\14.29.30133\atlmfc\include\atlsimpstr.h
; File D:\git\src\IBK\IBK_DRFN\ProjSrc\SrcChartEx\ChartOCX\AddInManager\ChartCommonAddIn\SimpleCompareChartAddInImp.cpp
; File C:\Program Files (x86)\Microsoft Visual Studio\2019\Community\VC\Tools\MSVC\14.29.30133\atlmfc\include\atlsimpstr.h
; File D:\git\src\IBK\IBK_DRFN\ProjSrc\SrcChartEx\ChartOCX\AddInManager\ChartCommonAddIn\SimpleCompareChartAddInImp.cpp
; File C:\Program Files (x86)\Microsoft Visual Studio\2019\Community\VC\Tools\MSVC\14.29.30133\atlmfc\include\cstringt.h
; File D:\git\src\IBK\IBK_DRFN\ProjSrc\SrcChartEx\ChartOCX\AddInManager\ChartCommonAddIn\SimpleCompareChartAddInImp.cpp
; File C:\Program Files (x86)\Microsoft Visual Studio\2019\Community\VC\Tools\MSVC\14.29.30133\atlmfc\include\cstringt.h
; File C:\Program Files (x86)\Microsoft Visual Studio\2019\Community\VC\Tools\MSVC\14.29.30133\atlmfc\include\atlsimpstr.h
; File C:\Program Files (x86)\Microsoft Visual Studio\2019\Community\VC\Tools\MSVC\14.29.30133\atlmfc\include\cstringt.h
; File C:\Program Files (x86)\Microsoft Visual Studio\2019\Community\VC\Tools\MSVC\14.29.30133\atlmfc\include\atlsimpstr.h
; File C:\Program Files (x86)\Microsoft Visual Studio\2019\Community\VC\Tools\MSVC\14.29.30133\atlmfc\include\cstringt.h
; File D:\git\src\IBK\IBK_DRFN\ProjSrc\SrcChartEx\ChartOCX\AddInManager\ChartCommonAddIn\SimpleCompareChartAddInImp.cpp
; File C:\Program Files (x86)\Microsoft Visual Studio\2019\Community\VC\Tools\MSVC\14.29.30133\atlmfc\include\cstringt.h
; File C:\Program Files (x86)\Microsoft Visual Studio\2019\Community\VC\Tools\MSVC\14.29.30133\atlmfc\include\atlsimpstr.h
; File C:\Program Files (x86)\Microsoft Visual Studio\2019\Community\VC\Tools\MSVC\14.29.30133\atlmfc\include\cstringt.h
; File C:\Program Files (x86)\Microsoft Visual Studio\2019\Community\VC\Tools\MSVC\14.29.30133\atlmfc\include\atlsimpstr.h
; File C:\Program Files (x86)\Microsoft Visual Studio\2019\Community\VC\Tools\MSVC\14.29.30133\atlmfc\include\cstringt.h
; File D:\git\src\IBK\IBK_DRFN\ProjSrc\SrcChartEx\ChartOCX\AddInManager\ChartCommonAddIn\SimpleCompareChartAddInImp.cpp
; File C:\Program Files (x86)\Microsoft Visual Studio\2019\Community\VC\Tools\MSVC\14.29.30133\atlmfc\include\cstringt.h
; File C:\Program Files (x86)\Microsoft Visual Studio\2019\Community\VC\Tools\MSVC\14.29.30133\atlmfc\include\atlsimpstr.h
; File C:\Program Files (x86)\Microsoft Visual Studio\2019\Community\VC\Tools\MSVC\14.29.30133\atlmfc\include\cstringt.h
; File C:\Program Files (x86)\Microsoft Visual Studio\2019\Community\VC\Tools\MSVC\14.29.30133\atlmfc\include\atlsimpstr.h
; File C:\Program Files (x86)\Microsoft Visual Studio\2019\Community\VC\Tools\MSVC\14.29.30133\atlmfc\include\cstringt.h
; File D:\git\src\IBK\IBK_DRFN\ProjSrc\SrcChartEx\ChartOCX\AddInManager\ChartCommonAddIn\SimpleCompareChartAddInImp.cpp
; File C:\Program Files (x86)\Microsoft Visual Studio\2019\Community\VC\Tools\MSVC\14.29.30133\atlmfc\include\cstringt.h
; File C:\Program Files (x86)\Microsoft Visual Studio\2019\Community\VC\Tools\MSVC\14.29.30133\atlmfc\include\atlsimpstr.h
; File C:\Program Files (x86)\Microsoft Visual Studio\2019\Community\VC\Tools\MSVC\14.29.30133\atlmfc\include\cstringt.h
; File C:\Program Files (x86)\Microsoft Visual Studio\2019\Community\VC\Tools\MSVC\14.29.30133\atlmfc\include\atlsimpstr.h
; File C:\Program Files (x86)\Microsoft Visual Studio\2019\Community\VC\Tools\MSVC\14.29.30133\atlmfc\include\cstringt.h
; File D:\git\src\IBK\IBK_DRFN\ProjSrc\SrcChartEx\ChartOCX\AddInManager\ChartCommonAddIn\SimpleCompareChartAddInImp.cpp
; File C:\Program Files (x86)\Microsoft Visual Studio\2019\Community\VC\Tools\MSVC\14.29.30133\atlmfc\include\cstringt.h
; File D:\git\src\IBK\IBK_DRFN\ProjSrc\SrcChartEx\ChartOCX\AddInManager\ChartCommonAddIn\SimpleCompareChartAddInImp.cpp
; File C:\Program Files (x86)\Microsoft Visual Studio\2019\Community\VC\Tools\MSVC\14.29.30133\atlmfc\include\cstringt.h
; File C:\Program Files (x86)\Microsoft Visual Studio\2019\Community\VC\Tools\MSVC\14.29.30133\atlmfc\include\atlsimpstr.h
; File C:\Program Files (x86)\Microsoft Visual Studio\2019\Community\VC\Tools\MSVC\14.29.30133\atlmfc\include\cstringt.h
; File D:\git\src\IBK\IBK_DRFN\ProjSrc\SrcChartEx\ChartOCX\AddInManager\ChartCommonAddIn\SimpleCompareChartAddInImp.cpp
; File C:\Program Files (x86)\Microsoft Visual Studio\2019\Community\VC\Tools\MSVC\14.29.30133\atlmfc\include\cstringt.h
; File C:\Program Files (x86)\Microsoft Visual Studio\2019\Community\VC\Tools\MSVC\14.29.30133\atlmfc\include\atlsimpstr.h
; File C:\Program Files (x86)\Microsoft Visual Studio\2019\Community\VC\Tools\MSVC\14.29.30133\atlmfc\include\cstringt.h
; File D:\git\src\IBK\IBK_DRFN\ProjSrc\SrcChartEx\ChartOCX\AddInManager\ChartCommonAddIn\SimpleCompareChartAddInImp.cpp
; File C:\Program Files (x86)\Microsoft Visual Studio\2019\Community\VC\Tools\MSVC\14.29.30133\atlmfc\include\atlsimpstr.h
; File D:\git\src\IBK\IBK_DRFN\ProjSrc\SrcChartEx\ChartOCX\AddInManager\ChartCommonAddIn\SimpleCompareChartAddInImp.cpp
; File C:\Program Files (x86)\Microsoft Visual Studio\2019\Community\VC\Tools\MSVC\14.29.30133\atlmfc\include\atlsimpstr.h
; File D:\git\src\IBK\IBK_DRFN\ProjSrc\SrcChartEx\ChartOCX\AddInManager\ChartCommonAddIn\SimpleCompareChartAddInImp.cpp
; File C:\Program Files (x86)\Microsoft Visual Studio\2019\Community\VC\Tools\MSVC\14.29.30133\atlmfc\include\atlsimpstr.h
; File D:\git\src\IBK\IBK_DRFN\ProjSrc\SrcChartEx\ChartOCX\AddInManager\ChartCommonAddIn\SimpleCompareChartAddInImp.cpp
; File C:\Program Files (x86)\Microsoft Visual Studio\2019\Community\VC\Tools\MSVC\14.29.30133\atlmfc\include\afxcoll.inl
; File D:\git\src\IBK\IBK_DRFN\ProjSrc\SrcChartEx\ChartOCX\AddInManager\ChartCommonAddIn\SimpleCompareChartAddInImp.cpp
; File C:\Program Files (x86)\Microsoft Visual Studio\2019\Community\VC\Tools\MSVC\14.29.30133\atlmfc\include\afxcoll.inl
; File D:\git\src\IBK\IBK_DRFN\ProjSrc\SrcChartEx\ChartOCX\AddInManager\ChartCommonAddIn\SimpleCompareChartAddInImp.cpp
; File C:\Program Files (x86)\Microsoft Visual Studio\2019\Community\VC\Tools\MSVC\14.29.30133\atlmfc\include\cstringt.h
; File D:\git\src\IBK\IBK_DRFN\ProjSrc\SrcChartEx\ChartOCX\AddInManager\ChartCommonAddIn\SimpleCompareChartAddInImp.cpp
; File C:\Program Files (x86)\Microsoft Visual Studio\2019\Community\VC\Tools\MSVC\14.29.30133\atlmfc\include\cstringt.h
; File C:\Program Files (x86)\Microsoft Visual Studio\2019\Community\VC\Tools\MSVC\14.29.30133\atlmfc\include\atlsimpstr.h
; File C:\Program Files (x86)\Microsoft Visual Studio\2019\Community\VC\Tools\MSVC\14.29.30133\atlmfc\include\cstringt.h
; File D:\git\src\IBK\IBK_DRFN\ProjSrc\SrcChartEx\ChartOCX\AddInManager\ChartCommonAddIn\SimpleCompareChartAddInImp.cpp
; File C:\Program Files (x86)\Microsoft Visual Studio\2019\Community\VC\Tools\MSVC\14.29.30133\atlmfc\include\cstringt.h
; File C:\Program Files (x86)\Microsoft Visual Studio\2019\Community\VC\Tools\MSVC\14.29.30133\atlmfc\include\atlsimpstr.h
; File C:\Program Files (x86)\Microsoft Visual Studio\2019\Community\VC\Tools\MSVC\14.29.30133\atlmfc\include\cstringt.h
; File C:\Program Files (x86)\Microsoft Visual Studio\2019\Community\VC\Tools\MSVC\14.29.30133\atlmfc\include\atlsimpstr.h
; File C:\Program Files (x86)\Microsoft Visual Studio\2019\Community\VC\Tools\MSVC\14.29.30133\atlmfc\include\cstringt.h
; File D:\git\src\IBK\IBK_DRFN\ProjSrc\SrcChartEx\ChartOCX\AddInManager\ChartCommonAddIn\SimpleCompareChartAddInImp.cpp
; File C:\Program Files (x86)\Microsoft Visual Studio\2019\Community\VC\Tools\MSVC\14.29.30133\atlmfc\include\cstringt.h
; File C:\Program Files (x86)\Microsoft Visual Studio\2019\Community\VC\Tools\MSVC\14.29.30133\atlmfc\include\atlsimpstr.h
; File C:\Program Files (x86)\Microsoft Visual Studio\2019\Community\VC\Tools\MSVC\14.29.30133\atlmfc\include\cstringt.h
; File D:\git\src\IBK\IBK_DRFN\ProjSrc\SrcChartEx\ChartOCX\AddInManager\ChartCommonAddIn\SimpleCompareChartAddInImp.cpp
; File C:\Program Files (x86)\Microsoft Visual Studio\2019\Community\VC\Tools\MSVC\14.29.30133\atlmfc\include\afxcoll.inl
; File D:\git\src\IBK\IBK_DRFN\ProjSrc\SrcChartEx\ChartOCX\AddInManager\ChartCommonAddIn\SimpleCompareChartAddInImp.cpp
; File C:\Program Files (x86)\Microsoft Visual Studio\2019\Community\VC\Tools\MSVC\14.29.30133\atlmfc\include\cstringt.h
; File D:\git\src\IBK\IBK_DRFN\ProjSrc\SrcChartEx\ChartOCX\AddInManager\ChartCommonAddIn\SimpleCompareChartAddInImp.cpp
; File C:\Program Files (x86)\Microsoft Visual Studio\2019\Community\VC\Tools\MSVC\14.29.30133\atlmfc\include\cstringt.h
; File C:\Program Files (x86)\Microsoft Visual Studio\2019\Community\VC\Tools\MSVC\14.29.30133\atlmfc\include\atlsimpstr.h
; File C:\Program Files (x86)\Microsoft Visual Studio\2019\Community\VC\Tools\MSVC\14.29.30133\atlmfc\include\cstringt.h
; File D:\git\src\IBK\IBK_DRFN\ProjSrc\SrcChartEx\ChartOCX\AddInManager\ChartCommonAddIn\SimpleCompareChartAddInImp.cpp
; File C:\Program Files (x86)\Microsoft Visual Studio\2019\Community\VC\Tools\MSVC\14.29.30133\atlmfc\include\cstringt.h
; File C:\Program Files (x86)\Microsoft Visual Studio\2019\Community\VC\Tools\MSVC\14.29.30133\atlmfc\include\atlsimpstr.h
; File C:\Program Files (x86)\Microsoft Visual Studio\2019\Community\VC\Tools\MSVC\14.29.30133\atlmfc\include\cstringt.h
; File C:\Program Files (x86)\Microsoft Visual Studio\2019\Community\VC\Tools\MSVC\14.29.30133\atlmfc\include\atlsimpstr.h
; File C:\Program Files (x86)\Microsoft Visual Studio\2019\Community\VC\Tools\MSVC\14.29.30133\atlmfc\include\cstringt.h
; File D:\git\src\IBK\IBK_DRFN\ProjSrc\SrcChartEx\ChartOCX\AddInManager\ChartCommonAddIn\SimpleCompareChartAddInImp.cpp
; File C:\Program Files (x86)\Microsoft Visual Studio\2019\Community\VC\Tools\MSVC\14.29.30133\atlmfc\include\cstringt.h
; File C:\Program Files (x86)\Microsoft Visual Studio\2019\Community\VC\Tools\MSVC\14.29.30133\atlmfc\include\atlsimpstr.h
; File C:\Program Files (x86)\Microsoft Visual Studio\2019\Community\VC\Tools\MSVC\14.29.30133\atlmfc\include\cstringt.h
; File D:\git\src\IBK\IBK_DRFN\ProjSrc\SrcChartEx\ChartOCX\AddInManager\ChartCommonAddIn\SimpleCompareChartAddInImp.cpp
; File C:\Program Files (x86)\Microsoft Visual Studio\2019\Community\VC\Tools\MSVC\14.29.30133\atlmfc\include\afxcoll.inl
; File D:\git\src\IBK\IBK_DRFN\ProjSrc\SrcChartEx\ChartOCX\AddInManager\ChartCommonAddIn\SimpleCompareChartAddInImp.cpp
; File C:\Program Files (x86)\Microsoft Visual Studio\2019\Community\VC\Tools\MSVC\14.29.30133\atlmfc\include\cstringt.h
; File D:\git\src\IBK\IBK_DRFN\ProjSrc\SrcChartEx\ChartOCX\AddInManager\ChartCommonAddIn\SimpleCompareChartAddInImp.cpp
; File C:\Program Files (x86)\Microsoft Visual Studio\2019\Community\VC\Tools\MSVC\14.29.30133\atlmfc\include\cstringt.h
; File C:\Program Files (x86)\Microsoft Visual Studio\2019\Community\VC\Tools\MSVC\14.29.30133\atlmfc\include\atlsimpstr.h
; File C:\Program Files (x86)\Microsoft Visual Studio\2019\Community\VC\Tools\MSVC\14.29.30133\atlmfc\include\cstringt.h
; File C:\Program Files (x86)\Microsoft Visual Studio\2019\Community\VC\Tools\MSVC\14.29.30133\atlmfc\include\atlsimpstr.h
; File C:\Program Files (x86)\Microsoft Visual Studio\2019\Community\VC\Tools\MSVC\14.29.30133\atlmfc\include\cstringt.h
; File D:\git\src\IBK\IBK_DRFN\ProjSrc\SrcChartEx\ChartOCX\AddInManager\ChartCommonAddIn\SimpleCompareChartAddInImp.cpp
; File C:\Program Files (x86)\Microsoft Visual Studio\2019\Community\VC\Tools\MSVC\14.29.30133\atlmfc\include\cstringt.h
; File C:\Program Files (x86)\Microsoft Visual Studio\2019\Community\VC\Tools\MSVC\14.29.30133\atlmfc\include\atlsimpstr.h
; File C:\Program Files (x86)\Microsoft Visual Studio\2019\Community\VC\Tools\MSVC\14.29.30133\atlmfc\include\cstringt.h
; File C:\Program Files (x86)\Microsoft Visual Studio\2019\Community\VC\Tools\MSVC\14.29.30133\atlmfc\include\atlsimpstr.h
; File C:\Program Files (x86)\Microsoft Visual Studio\2019\Community\VC\Tools\MSVC\14.29.30133\atlmfc\include\cstringt.h
; File D:\git\src\IBK\IBK_DRFN\ProjSrc\SrcChartEx\ChartOCX\AddInManager\ChartCommonAddIn\SimpleCompareChartAddInImp.cpp
; File C:\Program Files (x86)\Microsoft Visual Studio\2019\Community\VC\Tools\MSVC\14.29.30133\atlmfc\include\cstringt.h
; File D:\git\src\IBK\IBK_DRFN\ProjSrc\SrcChartEx\ChartOCX\AddInManager\ChartCommonAddIn\SimpleCompareChartAddInImp.cpp
; File C:\Program Files (x86)\Microsoft Visual Studio\2019\Community\VC\Tools\MSVC\14.29.30133\atlmfc\include\cstringt.h
; File C:\Program Files (x86)\Microsoft Visual Studio\2019\Community\VC\Tools\MSVC\14.29.30133\atlmfc\include\atlsimpstr.h
; File C:\Program Files (x86)\Microsoft Visual Studio\2019\Community\VC\Tools\MSVC\14.29.30133\atlmfc\include\cstringt.h
; File D:\git\src\IBK\IBK_DRFN\ProjSrc\SrcChartEx\ChartOCX\AddInManager\ChartCommonAddIn\SimpleCompareChartAddInImp.cpp
; File C:\Program Files (x86)\Microsoft Visual Studio\2019\Community\VC\Tools\MSVC\14.29.30133\atlmfc\include\cstringt.h
; File C:\Program Files (x86)\Microsoft Visual Studio\2019\Community\VC\Tools\MSVC\14.29.30133\atlmfc\include\atlsimpstr.h
; File C:\Program Files (x86)\Microsoft Visual Studio\2019\Community\VC\Tools\MSVC\14.29.30133\atlmfc\include\cstringt.h
; File D:\git\src\IBK\IBK_DRFN\ProjSrc\SrcChartEx\ChartOCX\AddInManager\ChartCommonAddIn\SimpleCompareChartAddInImp.cpp
; File C:\Program Files (x86)\Microsoft Visual Studio\2019\Community\VC\Tools\MSVC\14.29.30133\atlmfc\include\cstringt.h
; File C:\Program Files (x86)\Microsoft Visual Studio\2019\Community\VC\Tools\MSVC\14.29.30133\atlmfc\include\atlsimpstr.h
; File C:\Program Files (x86)\Microsoft Visual Studio\2019\Community\VC\Tools\MSVC\14.29.30133\atlmfc\include\cstringt.h
; File D:\git\src\IBK\IBK_DRFN\ProjSrc\SrcChartEx\ChartOCX\AddInManager\ChartCommonAddIn\SimpleCompareChartAddInImp.cpp
; File C:\Program Files (x86)\Microsoft Visual Studio\2019\Community\VC\Tools\MSVC\14.29.30133\atlmfc\include\cstringt.h
; File D:\git\src\IBK\IBK_DRFN\ProjSrc\SrcChartEx\ChartOCX\AddInManager\ChartCommonAddIn\SimpleCompareChartAddInImp.cpp
; File C:\Program Files (x86)\Microsoft Visual Studio\2019\Community\VC\Tools\MSVC\14.29.30133\atlmfc\include\cstringt.h
; File C:\Program Files (x86)\Microsoft Visual Studio\2019\Community\VC\Tools\MSVC\14.29.30133\atlmfc\include\atlsimpstr.h
; File C:\Program Files (x86)\Microsoft Visual Studio\2019\Community\VC\Tools\MSVC\14.29.30133\atlmfc\include\cstringt.h
; File C:\Program Files (x86)\Microsoft Visual Studio\2019\Community\VC\Tools\MSVC\14.29.30133\atlmfc\include\atlsimpstr.h
; File C:\Program Files (x86)\Microsoft Visual Studio\2019\Community\VC\Tools\MSVC\14.29.30133\atlmfc\include\cstringt.h
; File D:\git\src\IBK\IBK_DRFN\ProjSrc\SrcChartEx\ChartOCX\AddInManager\ChartCommonAddIn\SimpleCompareChartAddInImp.cpp
; File C:\Program Files (x86)\Microsoft Visual Studio\2019\Community\VC\Tools\MSVC\14.29.30133\atlmfc\include\cstringt.h
; File C:\Program Files (x86)\Microsoft Visual Studio\2019\Community\VC\Tools\MSVC\14.29.30133\atlmfc\include\atlsimpstr.h
; File C:\Program Files (x86)\Microsoft Visual Studio\2019\Community\VC\Tools\MSVC\14.29.30133\atlmfc\include\cstringt.h
; File C:\Program Files (x86)\Microsoft Visual Studio\2019\Community\VC\Tools\MSVC\14.29.30133\atlmfc\include\atlsimpstr.h
; File C:\Program Files (x86)\Microsoft Visual Studio\2019\Community\VC\Tools\MSVC\14.29.30133\atlmfc\include\cstringt.h
; File D:\git\src\IBK\IBK_DRFN\ProjSrc\SrcChartEx\ChartOCX\AddInManager\ChartCommonAddIn\SimpleCompareChartAddInImp.cpp
; File C:\Program Files (x86)\Microsoft Visual Studio\2019\Community\VC\Tools\MSVC\14.29.30133\atlmfc\include\afxcoll.inl
; File D:\git\src\IBK\IBK_DRFN\ProjSrc\SrcChartEx\ChartOCX\AddInManager\ChartCommonAddIn\SimpleCompareChartAddInImp.cpp
; File C:\Program Files (x86)\Microsoft Visual Studio\2019\Community\VC\Tools\MSVC\14.29.30133\atlmfc\include\afxcoll.inl
; File D:\git\src\IBK\IBK_DRFN\ProjSrc\SrcChartEx\ChartOCX\AddInManager\ChartCommonAddIn\SimpleCompareChartAddInImp.cpp
; File C:\Program Files (x86)\Microsoft Visual Studio\2019\Community\VC\Tools\MSVC\14.29.30133\atlmfc\include\cstringt.h
; File D:\git\src\IBK\IBK_DRFN\ProjSrc\SrcChartEx\ChartOCX\AddInManager\ChartCommonAddIn\SimpleCompareChartAddInImp.cpp
; File C:\Program Files (x86)\Microsoft Visual Studio\2019\Community\VC\Tools\MSVC\14.29.30133\atlmfc\include\cstringt.h
; File C:\Program Files (x86)\Microsoft Visual Studio\2019\Community\VC\Tools\MSVC\14.29.30133\atlmfc\include\atlsimpstr.h
; File C:\Program Files (x86)\Microsoft Visual Studio\2019\Community\VC\Tools\MSVC\14.29.30133\atlmfc\include\cstringt.h
; File D:\git\src\IBK\IBK_DRFN\ProjSrc\SrcChartEx\ChartOCX\AddInManager\ChartCommonAddIn\SimpleCompareChartAddInImp.cpp
; File C:\Program Files (x86)\Microsoft Visual Studio\2019\Community\VC\Tools\MSVC\14.29.30133\atlmfc\include\cstringt.h
; File C:\Program Files (x86)\Microsoft Visual Studio\2019\Community\VC\Tools\MSVC\14.29.30133\atlmfc\include\atlsimpstr.h
; File C:\Program Files (x86)\Microsoft Visual Studio\2019\Community\VC\Tools\MSVC\14.29.30133\atlmfc\include\cstringt.h
; File C:\Program Files (x86)\Microsoft Visual Studio\2019\Community\VC\Tools\MSVC\14.29.30133\atlmfc\include\atlsimpstr.h
; File C:\Program Files (x86)\Microsoft Visual Studio\2019\Community\VC\Tools\MSVC\14.29.30133\atlmfc\include\cstringt.h
; File D:\git\src\IBK\IBK_DRFN\ProjSrc\SrcChartEx\ChartOCX\AddInManager\ChartCommonAddIn\SimpleCompareChartAddInImp.cpp
; File C:\Program Files (x86)\Microsoft Visual Studio\2019\Community\VC\Tools\MSVC\14.29.30133\atlmfc\include\cstringt.h
; File C:\Program Files (x86)\Microsoft Visual Studio\2019\Community\VC\Tools\MSVC\14.29.30133\atlmfc\include\atlsimpstr.h
; File C:\Program Files (x86)\Microsoft Visual Studio\2019\Community\VC\Tools\MSVC\14.29.30133\atlmfc\include\cstringt.h
; File D:\git\src\IBK\IBK_DRFN\ProjSrc\SrcChartEx\ChartOCX\AddInManager\ChartCommonAddIn\SimpleCompareChartAddInImp.cpp
; File C:\Program Files (x86)\Microsoft Visual Studio\2019\Community\VC\Tools\MSVC\14.29.30133\atlmfc\include\cstringt.h
; File D:\git\src\IBK\IBK_DRFN\ProjSrc\SrcChartEx\ChartOCX\AddInManager\ChartCommonAddIn\SimpleCompareChartAddInImp.cpp
; File C:\Program Files (x86)\Microsoft Visual Studio\2019\Community\VC\Tools\MSVC\14.29.30133\atlmfc\include\cstringt.h
; File C:\Program Files (x86)\Microsoft Visual Studio\2019\Community\VC\Tools\MSVC\14.29.30133\atlmfc\include\atlsimpstr.h
; File C:\Program Files (x86)\Microsoft Visual Studio\2019\Community\VC\Tools\MSVC\14.29.30133\atlmfc\include\cstringt.h
; File D:\git\src\IBK\IBK_DRFN\ProjSrc\SrcChartEx\ChartOCX\AddInManager\ChartCommonAddIn\SimpleCompareChartAddInImp.cpp
; File C:\Program Files (x86)\Microsoft Visual Studio\2019\Community\VC\Tools\MSVC\14.29.30133\atlmfc\include\cstringt.h
; File C:\Program Files (x86)\Microsoft Visual Studio\2019\Community\VC\Tools\MSVC\14.29.30133\atlmfc\include\atlsimpstr.h
; File C:\Program Files (x86)\Microsoft Visual Studio\2019\Community\VC\Tools\MSVC\14.29.30133\atlmfc\include\cstringt.h
; File D:\git\src\IBK\IBK_DRFN\ProjSrc\SrcChartEx\ChartOCX\AddInManager\ChartCommonAddIn\SimpleCompareChartAddInImp.cpp
;	COMDAT ?GenerateAndSetChartListInfo@CSimpleCompareChartAddInImp@@IAEXXZ
_TEXT	SEGMENT
_slVertScaleGroupList$ = -144				; size = 28
_slBlock$ = -116					; size = 28
_psnBlock$1$ = -88					; size = 4
_strGraph3$2 = -88					; size = 4
_psnGraphTitle$1$ = -84					; size = 4
_psnGraph3$1$ = -84					; size = 4
_psnGraph3$1$ = -80					; size = 4
_psnGraphTitle$1$ = -80					; size = 4
_psnGraph2$1$ = -76					; size = 4
$T3 = -76						; size = 4
$T4 = -72						; size = 4
_strGraph1$5 = -72					; size = 4
_i$1$ = -68						; size = 4
_psnGraph2$1$ = -68					; size = 4
_strVertScaleGroup$6 = -68				; size = 4
$T7 = -64						; size = 4
$T8 = -64						; size = 4
$T9 = -60						; size = 4
$T10 = -60						; size = 4
_strChartList$ = -56					; size = 4
$T11 = -52						; size = 4
_strGraphShow$12 = -52					; size = 4
_strGraph2$13 = -52					; size = 4
_nRowCount$1$ = -48					; size = 4
_psnVertScaleGroup$1$ = -48				; size = 4
_strBlock$14 = -48					; size = 4
_strVertScaleGroup$15 = -48				; size = 4
_strGraph2$16 = -48					; size = 4
_strPreGraphs$17 = -44					; size = 4
$T18 = -44						; size = 4
_strBlock$19 = -40					; size = 4
$T20 = -40						; size = 4
$T21 = -40						; size = 4
$T22 = -36						; size = 4
_strVertScaleGroup$23 = -36				; size = 4
$T24 = -36						; size = 4
_strGraphTitle$25 = -36					; size = 4
_bAddedVisible$1$ = -32					; size = 4
$T26 = -32						; size = 4
$T27 = -32						; size = 4
$T28 = -32						; size = 4
$T29 = -32						; size = 4
_strGraphShow$30 = -32					; size = 4
$T31 = -28						; size = 4
$T32 = -28						; size = 4
$T33 = -28						; size = 4
$T34 = -28						; size = 4
$T35 = -28						; size = 4
$T36 = -28						; size = 4
_strGraph1$37 = -28					; size = 4
_strGraph3$38 = -28					; size = 4
$T39 = -24						; size = 4
_strBlockInfo$40 = -20					; size = 4
_strBlockInfo$41 = -20					; size = 4
_strBlock$42 = -20					; size = 4
_strGraph$43 = -20					; size = 4
$T44 = -20						; size = 4
$T45 = -16						; size = 4
$T46 = -16						; size = 4
$T47 = -16						; size = 4
$T48 = -16						; size = 4
$T49 = -16						; size = 4
$T50 = -16						; size = 4
_strGraphTitle$51 = -16					; size = 4
$T52 = -16						; size = 4
__$EHRec$ = -12						; size = 12
?GenerateAndSetChartListInfo@CSimpleCompareChartAddInImp@@IAEXXZ PROC ; CSimpleCompareChartAddInImp::GenerateAndSetChartListInfo, COMDAT
; _this$ = ecx

; 176  : {

  00000	55		 push	 ebp
  00001	8b ec		 mov	 ebp, esp
  00003	6a ff		 push	 -1
  00005	68 00 00 00 00	 push	 __ehhandler$?GenerateAndSetChartListInfo@CSimpleCompareChartAddInImp@@IAEXXZ
  0000a	64 a1 00 00 00
	00		 mov	 eax, DWORD PTR fs:0
  00010	50		 push	 eax
  00011	81 ec 84 00 00
	00		 sub	 esp, 132		; 00000084H
  00017	53		 push	 ebx
  00018	56		 push	 esi
  00019	57		 push	 edi
  0001a	a1 00 00 00 00	 mov	 eax, DWORD PTR ___security_cookie
  0001f	33 c5		 xor	 eax, ebp
  00021	50		 push	 eax
  00022	8d 45 f4	 lea	 eax, DWORD PTR __$EHRec$[ebp]
  00025	64 a3 00 00 00
	00		 mov	 DWORD PTR fs:0, eax
  0002b	8b d9		 mov	 ebx, ecx
  0002d	33 ff		 xor	 edi, edi

; 177  : 	// 4. Devide to each Graph
; 178  : 	CStringList slVertScaleGroupList;

  0002f	8d 8d 70 ff ff
	ff		 lea	 ecx, DWORD PTR _slVertScaleGroupList$[ebp]
  00035	6a 0a		 push	 10			; 0000000aH
  00037	89 7d e8	 mov	 DWORD PTR $T39[ebp], edi
  0003a	e8 00 00 00 00	 call	 ??0CStringList@@QAE@H@Z	; CStringList::CStringList
  0003f	89 7d fc	 mov	 DWORD PTR __$EHRec$[ebp+8], edi

; 179  : 	if( m_nChartCompareType == 0)	// Ratio

  00042	39 7b 60	 cmp	 DWORD PTR [ebx+96], edi
  00045	0f 85 e2 02 00
	00		 jne	 $LN14@GenerateAn

; 180  : 	{
; 181  : 		CString strVertScaleGroup;

  0004b	8d 4d bc	 lea	 ecx, DWORD PTR _strVertScaleGroup$6[ebp]
  0004e	ff 15 00 00 00
	00		 call	 DWORD PTR __imp_??0?$CStringT@DV?$StrTraitMFC_DLL@DV?$ChTraitsCRT@D@ATL@@@@@ATL@@QAE@XZ

; 182  : 		POSITION psnGraph1		= m_slGraph1.GetHeadPosition();

  00054	8b 73 78	 mov	 esi, DWORD PTR [ebx+120]

; 183  : 		POSITION psnGraph2		= m_slGraph2.GetHeadPosition();

  00057	8b 83 94 00 00
	00		 mov	 eax, DWORD PTR [ebx+148]

; 184  : 		POSITION psnGraphTitle	= m_slGraphTitle.GetHeadPosition();

  0005d	8b 8b b0 00 00
	00		 mov	 ecx, DWORD PTR [ebx+176]

; 185  : 		POSITION psnGraph3		= m_slGraph3.GetHeadPosition();

  00063	8b 93 cc 00 00
	00		 mov	 edx, DWORD PTR [ebx+204]
  00069	c6 45 fc 01	 mov	 BYTE PTR __$EHRec$[ebp+8], 1
  0006d	89 45 b4	 mov	 DWORD PTR _psnGraph2$1$[ebp], eax
  00070	89 4d b0	 mov	 DWORD PTR _psnGraphTitle$1$[ebp], ecx
  00073	89 55 ac	 mov	 DWORD PTR _psnGraph3$1$[ebp], edx

; 186  : 		while( psnGraph1 && psnGraph2 && psnGraphTitle && psnGraph3)

  00076	85 f6		 test	 esi, esi
  00078	0f 84 98 02 00
	00		 je	 $LN3@GenerateAn
  0007e	66 90		 npad	 2
$LL2@GenerateAn:
  00080	85 c0		 test	 eax, eax
  00082	0f 84 8e 02 00
	00		 je	 $LN3@GenerateAn
  00088	85 c9		 test	 ecx, ecx
  0008a	0f 84 86 02 00
	00		 je	 $LN3@GenerateAn
  00090	85 d2		 test	 edx, edx
  00092	0f 84 7e 02 00
	00		 je	 $LN3@GenerateAn
; File C:\Program Files (x86)\Microsoft Visual Studio\2019\Community\VC\Tools\MSVC\14.29.30133\atlmfc\include\afxcoll.inl

; 501  : 	{ CNode* pNode = (CNode*) rPosition;

  00098	8b c6		 mov	 eax, esi

; 502  : 		ASSERT(AfxIsValidAddress(pNode, sizeof(CNode)));
; 503  : 		if( pNode == NULL )

  0009a	85 f6		 test	 esi, esi
  0009c	0f 84 32 0e 00
	00		 je	 $LN597@GenerateAn

; 505  : 		rPosition = (POSITION) pNode->pNext;

  000a2	8b 36		 mov	 esi, DWORD PTR [esi]
; File D:\git\src\IBK\IBK_DRFN\ProjSrc\SrcChartEx\ChartOCX\AddInManager\ChartCommonAddIn\SimpleCompareChartAddInImp.cpp

; 188  : 			CString strGraph1		= m_slGraph1.GetNext( psnGraph1);

  000a4	8d 4d b8	 lea	 ecx, DWORD PTR _strGraph1$5[ebp]
; File C:\Program Files (x86)\Microsoft Visual Studio\2019\Community\VC\Tools\MSVC\14.29.30133\atlmfc\include\afxcoll.inl

; 506  : 		return pNode->data; }

  000a7	83 c0 08	 add	 eax, 8
; File D:\git\src\IBK\IBK_DRFN\ProjSrc\SrcChartEx\ChartOCX\AddInManager\ChartCommonAddIn\SimpleCompareChartAddInImp.cpp

; 188  : 			CString strGraph1		= m_slGraph1.GetNext( psnGraph1);

  000aa	50		 push	 eax
  000ab	ff 15 00 00 00
	00		 call	 DWORD PTR __imp_??0?$CStringT@DV?$StrTraitMFC_DLL@DV?$ChTraitsCRT@D@ATL@@@@@ATL@@QAE@ABV01@@Z
; File C:\Program Files (x86)\Microsoft Visual Studio\2019\Community\VC\Tools\MSVC\14.29.30133\atlmfc\include\afxcoll.inl

; 501  : 	{ CNode* pNode = (CNode*) rPosition;

  000b1	8b 4d b4	 mov	 ecx, DWORD PTR _psnGraph2$1$[ebp]
  000b4	8b c1		 mov	 eax, ecx

; 506  : 		return pNode->data; }

  000b6	83 c0 08	 add	 eax, 8
; File D:\git\src\IBK\IBK_DRFN\ProjSrc\SrcChartEx\ChartOCX\AddInManager\ChartCommonAddIn\SimpleCompareChartAddInImp.cpp

; 188  : 			CString strGraph1		= m_slGraph1.GetNext( psnGraph1);

  000b9	c6 45 fc 02	 mov	 BYTE PTR __$EHRec$[ebp+8], 2

; 189  : 			CString strGraph2		= m_slGraph2.GetNext( psnGraph2);

  000bd	50		 push	 eax
; File C:\Program Files (x86)\Microsoft Visual Studio\2019\Community\VC\Tools\MSVC\14.29.30133\atlmfc\include\afxcoll.inl

; 505  : 		rPosition = (POSITION) pNode->pNext;

  000be	8b 09		 mov	 ecx, DWORD PTR [ecx]
  000c0	89 4d b4	 mov	 DWORD PTR _psnGraph2$1$[ebp], ecx
; File D:\git\src\IBK\IBK_DRFN\ProjSrc\SrcChartEx\ChartOCX\AddInManager\ChartCommonAddIn\SimpleCompareChartAddInImp.cpp

; 189  : 			CString strGraph2		= m_slGraph2.GetNext( psnGraph2);

  000c3	8d 4d cc	 lea	 ecx, DWORD PTR _strGraph2$13[ebp]
  000c6	ff 15 00 00 00
	00		 call	 DWORD PTR __imp_??0?$CStringT@DV?$StrTraitMFC_DLL@DV?$ChTraitsCRT@D@ATL@@@@@ATL@@QAE@ABV01@@Z
; File C:\Program Files (x86)\Microsoft Visual Studio\2019\Community\VC\Tools\MSVC\14.29.30133\atlmfc\include\afxcoll.inl

; 501  : 	{ CNode* pNode = (CNode*) rPosition;

  000cc	8b 4d b0	 mov	 ecx, DWORD PTR _psnGraphTitle$1$[ebp]
  000cf	8b c1		 mov	 eax, ecx

; 506  : 		return pNode->data; }

  000d1	83 c0 08	 add	 eax, 8
; File D:\git\src\IBK\IBK_DRFN\ProjSrc\SrcChartEx\ChartOCX\AddInManager\ChartCommonAddIn\SimpleCompareChartAddInImp.cpp

; 189  : 			CString strGraph2		= m_slGraph2.GetNext( psnGraph2);

  000d4	c6 45 fc 03	 mov	 BYTE PTR __$EHRec$[ebp+8], 3

; 190  : 			CString strGraphTitle	= m_slGraphTitle.GetNext( psnGraphTitle);

  000d8	50		 push	 eax
; File C:\Program Files (x86)\Microsoft Visual Studio\2019\Community\VC\Tools\MSVC\14.29.30133\atlmfc\include\afxcoll.inl

; 505  : 		rPosition = (POSITION) pNode->pNext;

  000d9	8b 09		 mov	 ecx, DWORD PTR [ecx]
  000db	89 4d b0	 mov	 DWORD PTR _psnGraphTitle$1$[ebp], ecx
; File D:\git\src\IBK\IBK_DRFN\ProjSrc\SrcChartEx\ChartOCX\AddInManager\ChartCommonAddIn\SimpleCompareChartAddInImp.cpp

; 190  : 			CString strGraphTitle	= m_slGraphTitle.GetNext( psnGraphTitle);

  000de	8d 4d dc	 lea	 ecx, DWORD PTR _strGraphTitle$25[ebp]
  000e1	ff 15 00 00 00
	00		 call	 DWORD PTR __imp_??0?$CStringT@DV?$StrTraitMFC_DLL@DV?$ChTraitsCRT@D@ATL@@@@@ATL@@QAE@ABV01@@Z

; 191  : 			CString strGraphShow	= ";0";

  000e7	68 00 00 00 00	 push	 OFFSET ??_C@_02PHMGBKGP@?$DL0@
  000ec	8d 4d e0	 lea	 ecx, DWORD PTR _strGraphShow$30[ebp]
  000ef	c6 45 fc 04	 mov	 BYTE PTR __$EHRec$[ebp+8], 4
  000f3	ff 15 00 00 00
	00		 call	 DWORD PTR __imp_??0?$CStringT@DV?$StrTraitMFC_DLL@DV?$ChTraitsCRT@D@ATL@@@@@ATL@@QAE@PBD@Z
; File C:\Program Files (x86)\Microsoft Visual Studio\2019\Community\VC\Tools\MSVC\14.29.30133\atlmfc\include\afxcoll.inl

; 501  : 	{ CNode* pNode = (CNode*) rPosition;

  000f9	8b 4d ac	 mov	 ecx, DWORD PTR _psnGraph3$1$[ebp]
  000fc	8b c1		 mov	 eax, ecx

; 506  : 		return pNode->data; }

  000fe	83 c0 08	 add	 eax, 8
; File D:\git\src\IBK\IBK_DRFN\ProjSrc\SrcChartEx\ChartOCX\AddInManager\ChartCommonAddIn\SimpleCompareChartAddInImp.cpp

; 191  : 			CString strGraphShow	= ";0";

  00101	c6 45 fc 05	 mov	 BYTE PTR __$EHRec$[ebp+8], 5

; 192  : 			CString strGraph3		= m_slGraph2.GetNext( psnGraph3);

  00105	50		 push	 eax
; File C:\Program Files (x86)\Microsoft Visual Studio\2019\Community\VC\Tools\MSVC\14.29.30133\atlmfc\include\afxcoll.inl

; 505  : 		rPosition = (POSITION) pNode->pNext;

  00106	8b 09		 mov	 ecx, DWORD PTR [ecx]
  00108	89 4d ac	 mov	 DWORD PTR _psnGraph3$1$[ebp], ecx
; File D:\git\src\IBK\IBK_DRFN\ProjSrc\SrcChartEx\ChartOCX\AddInManager\ChartCommonAddIn\SimpleCompareChartAddInImp.cpp

; 192  : 			CString strGraph3		= m_slGraph2.GetNext( psnGraph3);

  0010b	8d 4d e4	 lea	 ecx, DWORD PTR _strGraph3$38[ebp]
  0010e	ff 15 00 00 00
	00		 call	 DWORD PTR __imp_??0?$CStringT@DV?$StrTraitMFC_DLL@DV?$ChTraitsCRT@D@ATL@@@@@ATL@@QAE@ABV01@@Z
; File C:\Program Files (x86)\Microsoft Visual Studio\2019\Community\VC\Tools\MSVC\14.29.30133\atlmfc\include\atlsimpstr.h

; 519  : 		return( GetData()->nDataLength );

  00114	8b 45 dc	 mov	 eax, DWORD PTR _strGraphTitle$25[ebp]
; File D:\git\src\IBK\IBK_DRFN\ProjSrc\SrcChartEx\ChartOCX\AddInManager\ChartCommonAddIn\SimpleCompareChartAddInImp.cpp

; 192  : 			CString strGraph3		= m_slGraph2.GetNext( psnGraph3);

  00117	c6 45 fc 06	 mov	 BYTE PTR __$EHRec$[ebp+8], 6
; File C:\Program Files (x86)\Microsoft Visual Studio\2019\Community\VC\Tools\MSVC\14.29.30133\atlmfc\include\atlsimpstr.h

; 533  : 		return( GetLength() == 0 );

  0011b	83 78 f4 00	 cmp	 DWORD PTR [eax-12], 0
; File D:\git\src\IBK\IBK_DRFN\ProjSrc\SrcChartEx\ChartOCX\AddInManager\ChartCommonAddIn\SimpleCompareChartAddInImp.cpp

; 193  : 			if( strGraphTitle.IsEmpty()) strGraphShow = ";1";

  0011f	75 0e		 jne	 SHORT $LN16@GenerateAn
  00121	68 00 00 00 00	 push	 OFFSET ??_C@_02OONNCLCO@?$DL1@
  00126	8d 4d e0	 lea	 ecx, DWORD PTR _strGraphShow$30[ebp]
  00129	ff 15 00 00 00
	00		 call	 DWORD PTR __imp_??4?$CStringT@DV?$StrTraitMFC_DLL@DV?$ChTraitsCRT@D@ATL@@@@@ATL@@QAEAAV01@PBD@Z
$LN16@GenerateAn:
; File C:\Program Files (x86)\Microsoft Visual Studio\2019\Community\VC\Tools\MSVC\14.29.30133\atlmfc\include\cstringt.h

; 2412 : 		CStringT strResult( str2.GetManager() );

  0012f	8d 4d b8	 lea	 ecx, DWORD PTR _strGraph1$5[ebp]
; File D:\git\src\IBK\IBK_DRFN\ProjSrc\SrcChartEx\ChartOCX\AddInManager\ChartCommonAddIn\SimpleCompareChartAddInImp.cpp

; 195  : 			strVertScaleGroup += _GRAPH_HEADER + strGraph1 + strGraph2 + strGraphTitle + strGraphShow + strGraph3 + _GRAPH_FOOTER;

  00132	c6 45 fc 07	 mov	 BYTE PTR __$EHRec$[ebp+8], 7
; File C:\Program Files (x86)\Microsoft Visual Studio\2019\Community\VC\Tools\MSVC\14.29.30133\atlmfc\include\cstringt.h

; 2412 : 		CStringT strResult( str2.GetManager() );

  00136	ff 15 00 00 00
	00		 call	 DWORD PTR __imp_?GetManager@?$CStringT@DV?$StrTraitMFC_DLL@DV?$ChTraitsCRT@D@ATL@@@@@ATL@@QBEPAUIAtlStringMgr@2@XZ
  0013c	50		 push	 eax
  0013d	8d 4d d8	 lea	 ecx, DWORD PTR $T21[ebp]
  00140	ff 15 00 00 00
	00		 call	 DWORD PTR __imp_??0?$CStringT@DV?$StrTraitMFC_DLL@DV?$ChTraitsCRT@D@ATL@@@@@ATL@@QAE@PAUIAtlStringMgr@1@@Z
; File C:\Program Files (x86)\Microsoft Visual Studio\2019\Community\VC\Tools\MSVC\14.29.30133\atlmfc\include\atlsimpstr.h

; 519  : 		return( GetData()->nDataLength );

  00146	8b 45 b8	 mov	 eax, DWORD PTR _strGraph1$5[ebp]
; File C:\Program Files (x86)\Microsoft Visual Studio\2019\Community\VC\Tools\MSVC\14.29.30133\atlmfc\include\cstringt.h

; 2416 : 		return( strResult );

  00149	83 cf 01	 or	 edi, 1
  0014c	89 7d e8	 mov	 DWORD PTR $T39[ebp], edi
  0014f	ff 70 f4	 push	 DWORD PTR [eax-12]
  00152	50		 push	 eax
  00153	6a 08		 push	 8
  00155	8d 45 d8	 lea	 eax, DWORD PTR $T21[ebp]
  00158	68 00 00 00 00	 push	 OFFSET ??_C@_08BHMMGBBH@Graph?$DL?$AN?6@
  0015d	50		 push	 eax
  0015e	ff 15 00 00 00
	00		 call	 DWORD PTR __imp_?Concatenate@?$CSimpleStringT@D$00@ATL@@KAXAAV12@PBDH1H@Z
  00164	83 c4 14	 add	 esp, 20			; 00000014H

; 2390 : 		CStringT strResult( str1.GetManager() );

  00167	8d 4d d8	 lea	 ecx, DWORD PTR $T21[ebp]
; File D:\git\src\IBK\IBK_DRFN\ProjSrc\SrcChartEx\ChartOCX\AddInManager\ChartCommonAddIn\SimpleCompareChartAddInImp.cpp

; 195  : 			strVertScaleGroup += _GRAPH_HEADER + strGraph1 + strGraph2 + strGraphTitle + strGraphShow + strGraph3 + _GRAPH_FOOTER;

  0016a	c6 45 fc 08	 mov	 BYTE PTR __$EHRec$[ebp+8], 8
; File C:\Program Files (x86)\Microsoft Visual Studio\2019\Community\VC\Tools\MSVC\14.29.30133\atlmfc\include\cstringt.h

; 2390 : 		CStringT strResult( str1.GetManager() );

  0016e	ff 15 00 00 00
	00		 call	 DWORD PTR __imp_?GetManager@?$CStringT@DV?$StrTraitMFC_DLL@DV?$ChTraitsCRT@D@ATL@@@@@ATL@@QBEPAUIAtlStringMgr@2@XZ
  00174	50		 push	 eax
  00175	8d 4d c0	 lea	 ecx, DWORD PTR $T8[ebp]
  00178	ff 15 00 00 00
	00		 call	 DWORD PTR __imp_??0?$CStringT@DV?$StrTraitMFC_DLL@DV?$ChTraitsCRT@D@ATL@@@@@ATL@@QAE@PAUIAtlStringMgr@1@@Z
; File C:\Program Files (x86)\Microsoft Visual Studio\2019\Community\VC\Tools\MSVC\14.29.30133\atlmfc\include\atlsimpstr.h

; 519  : 		return( GetData()->nDataLength );

  0017e	8b 45 cc	 mov	 eax, DWORD PTR _strGraph2$13[ebp]
; File C:\Program Files (x86)\Microsoft Visual Studio\2019\Community\VC\Tools\MSVC\14.29.30133\atlmfc\include\cstringt.h

; 2394 : 		return( strResult );

  00181	83 cf 02	 or	 edi, 2
; File C:\Program Files (x86)\Microsoft Visual Studio\2019\Community\VC\Tools\MSVC\14.29.30133\atlmfc\include\atlsimpstr.h

; 519  : 		return( GetData()->nDataLength );

  00184	8b 4d d8	 mov	 ecx, DWORD PTR $T21[ebp]
; File C:\Program Files (x86)\Microsoft Visual Studio\2019\Community\VC\Tools\MSVC\14.29.30133\atlmfc\include\cstringt.h

; 2394 : 		return( strResult );

  00187	89 7d e8	 mov	 DWORD PTR $T39[ebp], edi
  0018a	ff 70 f4	 push	 DWORD PTR [eax-12]
  0018d	50		 push	 eax
  0018e	ff 71 f4	 push	 DWORD PTR [ecx-12]
  00191	8d 45 c0	 lea	 eax, DWORD PTR $T8[ebp]
  00194	51		 push	 ecx
  00195	50		 push	 eax
  00196	ff 15 00 00 00
	00		 call	 DWORD PTR __imp_?Concatenate@?$CSimpleStringT@D$00@ATL@@KAXAAV12@PBDH1H@Z
  0019c	83 c4 14	 add	 esp, 20			; 00000014H

; 2390 : 		CStringT strResult( str1.GetManager() );

  0019f	8d 4d c0	 lea	 ecx, DWORD PTR $T8[ebp]
; File D:\git\src\IBK\IBK_DRFN\ProjSrc\SrcChartEx\ChartOCX\AddInManager\ChartCommonAddIn\SimpleCompareChartAddInImp.cpp

; 195  : 			strVertScaleGroup += _GRAPH_HEADER + strGraph1 + strGraph2 + strGraphTitle + strGraphShow + strGraph3 + _GRAPH_FOOTER;

  001a2	c6 45 fc 09	 mov	 BYTE PTR __$EHRec$[ebp+8], 9
; File C:\Program Files (x86)\Microsoft Visual Studio\2019\Community\VC\Tools\MSVC\14.29.30133\atlmfc\include\cstringt.h

; 2390 : 		CStringT strResult( str1.GetManager() );

  001a6	ff 15 00 00 00
	00		 call	 DWORD PTR __imp_?GetManager@?$CStringT@DV?$StrTraitMFC_DLL@DV?$ChTraitsCRT@D@ATL@@@@@ATL@@QBEPAUIAtlStringMgr@2@XZ
  001ac	50		 push	 eax
  001ad	8d 4d c4	 lea	 ecx, DWORD PTR $T10[ebp]
  001b0	ff 15 00 00 00
	00		 call	 DWORD PTR __imp_??0?$CStringT@DV?$StrTraitMFC_DLL@DV?$ChTraitsCRT@D@ATL@@@@@ATL@@QAE@PAUIAtlStringMgr@1@@Z
; File C:\Program Files (x86)\Microsoft Visual Studio\2019\Community\VC\Tools\MSVC\14.29.30133\atlmfc\include\atlsimpstr.h

; 519  : 		return( GetData()->nDataLength );

  001b6	8b 45 dc	 mov	 eax, DWORD PTR _strGraphTitle$25[ebp]
; File C:\Program Files (x86)\Microsoft Visual Studio\2019\Community\VC\Tools\MSVC\14.29.30133\atlmfc\include\cstringt.h

; 2394 : 		return( strResult );

  001b9	83 cf 04	 or	 edi, 4
; File C:\Program Files (x86)\Microsoft Visual Studio\2019\Community\VC\Tools\MSVC\14.29.30133\atlmfc\include\atlsimpstr.h

; 519  : 		return( GetData()->nDataLength );

  001bc	8b 4d c0	 mov	 ecx, DWORD PTR $T8[ebp]
; File C:\Program Files (x86)\Microsoft Visual Studio\2019\Community\VC\Tools\MSVC\14.29.30133\atlmfc\include\cstringt.h

; 2394 : 		return( strResult );

  001bf	89 7d e8	 mov	 DWORD PTR $T39[ebp], edi
  001c2	ff 70 f4	 push	 DWORD PTR [eax-12]
  001c5	50		 push	 eax
  001c6	ff 71 f4	 push	 DWORD PTR [ecx-12]
  001c9	8d 45 c4	 lea	 eax, DWORD PTR $T10[ebp]
  001cc	51		 push	 ecx
  001cd	50		 push	 eax
  001ce	ff 15 00 00 00
	00		 call	 DWORD PTR __imp_?Concatenate@?$CSimpleStringT@D$00@ATL@@KAXAAV12@PBDH1H@Z
  001d4	83 c4 14	 add	 esp, 20			; 00000014H

; 2390 : 		CStringT strResult( str1.GetManager() );

  001d7	8d 4d c4	 lea	 ecx, DWORD PTR $T10[ebp]
; File D:\git\src\IBK\IBK_DRFN\ProjSrc\SrcChartEx\ChartOCX\AddInManager\ChartCommonAddIn\SimpleCompareChartAddInImp.cpp

; 195  : 			strVertScaleGroup += _GRAPH_HEADER + strGraph1 + strGraph2 + strGraphTitle + strGraphShow + strGraph3 + _GRAPH_FOOTER;

  001da	c6 45 fc 0a	 mov	 BYTE PTR __$EHRec$[ebp+8], 10 ; 0000000aH
; File C:\Program Files (x86)\Microsoft Visual Studio\2019\Community\VC\Tools\MSVC\14.29.30133\atlmfc\include\cstringt.h

; 2390 : 		CStringT strResult( str1.GetManager() );

  001de	ff 15 00 00 00
	00		 call	 DWORD PTR __imp_?GetManager@?$CStringT@DV?$StrTraitMFC_DLL@DV?$ChTraitsCRT@D@ATL@@@@@ATL@@QBEPAUIAtlStringMgr@2@XZ
  001e4	50		 push	 eax
  001e5	8d 4d d4	 lea	 ecx, DWORD PTR $T18[ebp]
  001e8	ff 15 00 00 00
	00		 call	 DWORD PTR __imp_??0?$CStringT@DV?$StrTraitMFC_DLL@DV?$ChTraitsCRT@D@ATL@@@@@ATL@@QAE@PAUIAtlStringMgr@1@@Z
; File C:\Program Files (x86)\Microsoft Visual Studio\2019\Community\VC\Tools\MSVC\14.29.30133\atlmfc\include\atlsimpstr.h

; 519  : 		return( GetData()->nDataLength );

  001ee	8b 45 e0	 mov	 eax, DWORD PTR _strGraphShow$30[ebp]
; File C:\Program Files (x86)\Microsoft Visual Studio\2019\Community\VC\Tools\MSVC\14.29.30133\atlmfc\include\cstringt.h

; 2394 : 		return( strResult );

  001f1	83 cf 08	 or	 edi, 8
; File C:\Program Files (x86)\Microsoft Visual Studio\2019\Community\VC\Tools\MSVC\14.29.30133\atlmfc\include\atlsimpstr.h

; 519  : 		return( GetData()->nDataLength );

  001f4	8b 4d c4	 mov	 ecx, DWORD PTR $T10[ebp]
; File C:\Program Files (x86)\Microsoft Visual Studio\2019\Community\VC\Tools\MSVC\14.29.30133\atlmfc\include\cstringt.h

; 2394 : 		return( strResult );

  001f7	89 7d e8	 mov	 DWORD PTR $T39[ebp], edi
  001fa	ff 70 f4	 push	 DWORD PTR [eax-12]
  001fd	50		 push	 eax
  001fe	ff 71 f4	 push	 DWORD PTR [ecx-12]
  00201	8d 45 d4	 lea	 eax, DWORD PTR $T18[ebp]
  00204	51		 push	 ecx
  00205	50		 push	 eax
  00206	ff 15 00 00 00
	00		 call	 DWORD PTR __imp_?Concatenate@?$CSimpleStringT@D$00@ATL@@KAXAAV12@PBDH1H@Z
  0020c	83 c4 14	 add	 esp, 20			; 00000014H

; 2390 : 		CStringT strResult( str1.GetManager() );

  0020f	8d 4d d4	 lea	 ecx, DWORD PTR $T18[ebp]
; File D:\git\src\IBK\IBK_DRFN\ProjSrc\SrcChartEx\ChartOCX\AddInManager\ChartCommonAddIn\SimpleCompareChartAddInImp.cpp

; 195  : 			strVertScaleGroup += _GRAPH_HEADER + strGraph1 + strGraph2 + strGraphTitle + strGraphShow + strGraph3 + _GRAPH_FOOTER;

  00212	c6 45 fc 0b	 mov	 BYTE PTR __$EHRec$[ebp+8], 11 ; 0000000bH
; File C:\Program Files (x86)\Microsoft Visual Studio\2019\Community\VC\Tools\MSVC\14.29.30133\atlmfc\include\cstringt.h

; 2390 : 		CStringT strResult( str1.GetManager() );

  00216	ff 15 00 00 00
	00		 call	 DWORD PTR __imp_?GetManager@?$CStringT@DV?$StrTraitMFC_DLL@DV?$ChTraitsCRT@D@ATL@@@@@ATL@@QBEPAUIAtlStringMgr@2@XZ
  0021c	50		 push	 eax
  0021d	8d 4d ec	 lea	 ecx, DWORD PTR $T44[ebp]
  00220	ff 15 00 00 00
	00		 call	 DWORD PTR __imp_??0?$CStringT@DV?$StrTraitMFC_DLL@DV?$ChTraitsCRT@D@ATL@@@@@ATL@@QAE@PAUIAtlStringMgr@1@@Z
; File C:\Program Files (x86)\Microsoft Visual Studio\2019\Community\VC\Tools\MSVC\14.29.30133\atlmfc\include\atlsimpstr.h

; 519  : 		return( GetData()->nDataLength );

  00226	8b 45 e4	 mov	 eax, DWORD PTR _strGraph3$38[ebp]
; File C:\Program Files (x86)\Microsoft Visual Studio\2019\Community\VC\Tools\MSVC\14.29.30133\atlmfc\include\cstringt.h

; 2394 : 		return( strResult );

  00229	83 cf 10	 or	 edi, 16			; 00000010H
; File C:\Program Files (x86)\Microsoft Visual Studio\2019\Community\VC\Tools\MSVC\14.29.30133\atlmfc\include\atlsimpstr.h

; 519  : 		return( GetData()->nDataLength );

  0022c	8b 4d d4	 mov	 ecx, DWORD PTR $T18[ebp]
; File C:\Program Files (x86)\Microsoft Visual Studio\2019\Community\VC\Tools\MSVC\14.29.30133\atlmfc\include\cstringt.h

; 2394 : 		return( strResult );

  0022f	89 7d e8	 mov	 DWORD PTR $T39[ebp], edi
  00232	ff 70 f4	 push	 DWORD PTR [eax-12]
  00235	50		 push	 eax
  00236	ff 71 f4	 push	 DWORD PTR [ecx-12]
  00239	8d 45 ec	 lea	 eax, DWORD PTR $T44[ebp]
  0023c	51		 push	 ecx
  0023d	50		 push	 eax
  0023e	ff 15 00 00 00
	00		 call	 DWORD PTR __imp_?Concatenate@?$CSimpleStringT@D$00@ATL@@KAXAAV12@PBDH1H@Z
  00244	83 c4 14	 add	 esp, 20			; 00000014H

; 2401 : 		CStringT strResult( str1.GetManager() );

  00247	8d 4d ec	 lea	 ecx, DWORD PTR $T44[ebp]
; File D:\git\src\IBK\IBK_DRFN\ProjSrc\SrcChartEx\ChartOCX\AddInManager\ChartCommonAddIn\SimpleCompareChartAddInImp.cpp

; 195  : 			strVertScaleGroup += _GRAPH_HEADER + strGraph1 + strGraph2 + strGraphTitle + strGraphShow + strGraph3 + _GRAPH_FOOTER;

  0024a	c6 45 fc 0c	 mov	 BYTE PTR __$EHRec$[ebp+8], 12 ; 0000000cH
; File C:\Program Files (x86)\Microsoft Visual Studio\2019\Community\VC\Tools\MSVC\14.29.30133\atlmfc\include\cstringt.h

; 2401 : 		CStringT strResult( str1.GetManager() );

  0024e	ff 15 00 00 00
	00		 call	 DWORD PTR __imp_?GetManager@?$CStringT@DV?$StrTraitMFC_DLL@DV?$ChTraitsCRT@D@ATL@@@@@ATL@@QBEPAUIAtlStringMgr@2@XZ
  00254	50		 push	 eax
  00255	8d 4d f0	 lea	 ecx, DWORD PTR $T52[ebp]
  00258	ff 15 00 00 00
	00		 call	 DWORD PTR __imp_??0?$CStringT@DV?$StrTraitMFC_DLL@DV?$ChTraitsCRT@D@ATL@@@@@ATL@@QAE@PAUIAtlStringMgr@1@@Z
; File C:\Program Files (x86)\Microsoft Visual Studio\2019\Community\VC\Tools\MSVC\14.29.30133\atlmfc\include\atlsimpstr.h

; 519  : 		return( GetData()->nDataLength );

  0025e	8b 45 ec	 mov	 eax, DWORD PTR $T44[ebp]
; File C:\Program Files (x86)\Microsoft Visual Studio\2019\Community\VC\Tools\MSVC\14.29.30133\atlmfc\include\cstringt.h

; 2405 : 		return( strResult );

  00261	83 cf 20	 or	 edi, 32			; 00000020H
  00264	6a 0b		 push	 11			; 0000000bH
  00266	68 00 00 00 00	 push	 OFFSET ??_C@_0M@DGHFHKEI@GraphEnd?$DL?$AN?6@
  0026b	89 7d e8	 mov	 DWORD PTR $T39[ebp], edi
  0026e	ff 70 f4	 push	 DWORD PTR [eax-12]
  00271	50		 push	 eax
  00272	8d 45 f0	 lea	 eax, DWORD PTR $T52[ebp]
  00275	50		 push	 eax
  00276	ff 15 00 00 00
	00		 call	 DWORD PTR __imp_?Concatenate@?$CSimpleStringT@D$00@ATL@@KAXAAV12@PBDH1H@Z
  0027c	83 c4 14	 add	 esp, 20			; 00000014H
; File D:\git\src\IBK\IBK_DRFN\ProjSrc\SrcChartEx\ChartOCX\AddInManager\ChartCommonAddIn\SimpleCompareChartAddInImp.cpp

; 195  : 			strVertScaleGroup += _GRAPH_HEADER + strGraph1 + strGraph2 + strGraphTitle + strGraphShow + strGraph3 + _GRAPH_FOOTER;

  0027f	8d 45 f0	 lea	 eax, DWORD PTR $T52[ebp]
  00282	8d 4d bc	 lea	 ecx, DWORD PTR _strVertScaleGroup$6[ebp]
  00285	50		 push	 eax
  00286	ff 15 00 00 00
	00		 call	 DWORD PTR __imp_??Y?$CStringT@DV?$StrTraitMFC_DLL@DV?$ChTraitsCRT@D@ATL@@@@@ATL@@QAEAAV01@ABV?$CSimpleStringT@D$00@1@@Z
  0028c	8d 4d f0	 lea	 ecx, DWORD PTR $T52[ebp]
  0028f	83 e7 df	 and	 edi, -33		; ffffffdfH
  00292	ff 15 00 00 00
	00		 call	 DWORD PTR __imp_??1?$CStringT@DV?$StrTraitMFC_DLL@DV?$ChTraitsCRT@D@ATL@@@@@ATL@@QAE@XZ
  00298	8d 4d ec	 lea	 ecx, DWORD PTR $T44[ebp]
  0029b	83 e7 ef	 and	 edi, -17		; ffffffefH
  0029e	ff 15 00 00 00
	00		 call	 DWORD PTR __imp_??1?$CStringT@DV?$StrTraitMFC_DLL@DV?$ChTraitsCRT@D@ATL@@@@@ATL@@QAE@XZ
  002a4	8d 4d d4	 lea	 ecx, DWORD PTR $T18[ebp]
  002a7	83 e7 f7	 and	 edi, -9			; fffffff7H
  002aa	ff 15 00 00 00
	00		 call	 DWORD PTR __imp_??1?$CStringT@DV?$StrTraitMFC_DLL@DV?$ChTraitsCRT@D@ATL@@@@@ATL@@QAE@XZ
  002b0	8d 4d c4	 lea	 ecx, DWORD PTR $T10[ebp]
  002b3	83 e7 fb	 and	 edi, -5			; fffffffbH
  002b6	ff 15 00 00 00
	00		 call	 DWORD PTR __imp_??1?$CStringT@DV?$StrTraitMFC_DLL@DV?$ChTraitsCRT@D@ATL@@@@@ATL@@QAE@XZ
  002bc	8d 4d c0	 lea	 ecx, DWORD PTR $T8[ebp]
  002bf	83 e7 fd	 and	 edi, -3			; fffffffdH
  002c2	ff 15 00 00 00
	00		 call	 DWORD PTR __imp_??1?$CStringT@DV?$StrTraitMFC_DLL@DV?$ChTraitsCRT@D@ATL@@@@@ATL@@QAE@XZ
  002c8	8d 4d d8	 lea	 ecx, DWORD PTR $T21[ebp]
  002cb	83 e7 fe	 and	 edi, -2			; fffffffeH
  002ce	ff 15 00 00 00
	00		 call	 DWORD PTR __imp_??1?$CStringT@DV?$StrTraitMFC_DLL@DV?$ChTraitsCRT@D@ATL@@@@@ATL@@QAE@XZ

; 196  : 		}

  002d4	8d 4d e4	 lea	 ecx, DWORD PTR _strGraph3$38[ebp]
  002d7	ff 15 00 00 00
	00		 call	 DWORD PTR __imp_??1?$CStringT@DV?$StrTraitMFC_DLL@DV?$ChTraitsCRT@D@ATL@@@@@ATL@@QAE@XZ
  002dd	8d 4d e0	 lea	 ecx, DWORD PTR _strGraphShow$30[ebp]
  002e0	ff 15 00 00 00
	00		 call	 DWORD PTR __imp_??1?$CStringT@DV?$StrTraitMFC_DLL@DV?$ChTraitsCRT@D@ATL@@@@@ATL@@QAE@XZ
  002e6	8d 4d dc	 lea	 ecx, DWORD PTR _strGraphTitle$25[ebp]
  002e9	ff 15 00 00 00
	00		 call	 DWORD PTR __imp_??1?$CStringT@DV?$StrTraitMFC_DLL@DV?$ChTraitsCRT@D@ATL@@@@@ATL@@QAE@XZ
  002ef	8d 4d cc	 lea	 ecx, DWORD PTR _strGraph2$13[ebp]
  002f2	ff 15 00 00 00
	00		 call	 DWORD PTR __imp_??1?$CStringT@DV?$StrTraitMFC_DLL@DV?$ChTraitsCRT@D@ATL@@@@@ATL@@QAE@XZ
  002f8	8d 4d b8	 lea	 ecx, DWORD PTR _strGraph1$5[ebp]
  002fb	c6 45 fc 01	 mov	 BYTE PTR __$EHRec$[ebp+8], 1
  002ff	ff 15 00 00 00
	00		 call	 DWORD PTR __imp_??1?$CStringT@DV?$StrTraitMFC_DLL@DV?$ChTraitsCRT@D@ATL@@@@@ATL@@QAE@XZ
  00305	8b 45 b4	 mov	 eax, DWORD PTR _psnGraph2$1$[ebp]
  00308	8b 4d b0	 mov	 ecx, DWORD PTR _psnGraphTitle$1$[ebp]
  0030b	8b 55 ac	 mov	 edx, DWORD PTR _psnGraph3$1$[ebp]
  0030e	85 f6		 test	 esi, esi
  00310	0f 85 6a fd ff
	ff		 jne	 $LL2@GenerateAn
$LN3@GenerateAn:

; 197  : 		slVertScaleGroupList.AddTail( strVertScaleGroup);

  00316	8d 45 bc	 lea	 eax, DWORD PTR _strVertScaleGroup$6[ebp]
  00319	50		 push	 eax
  0031a	8d 8d 70 ff ff
	ff		 lea	 ecx, DWORD PTR _slVertScaleGroupList$[ebp]
  00320	e8 00 00 00 00	 call	 ?AddTail@CStringList@@QAEPAU__POSITION@@ABV?$CStringT@DV?$StrTraitMFC_DLL@DV?$ChTraitsCRT@D@ATL@@@@@ATL@@@Z ; CStringList::AddTail

; 198  : 	}

  00325	8d 4d bc	 lea	 ecx, DWORD PTR _strVertScaleGroup$6[ebp]
  00328	e9 91 03 00 00	 jmp	 $LN629@GenerateAn
$LN14@GenerateAn:

; 199  : 	else	// Simple and Overlay
; 200  : 	{
; 201  : 		POSITION psnGraph1		= m_slGraph1.GetHeadPosition();
; 202  : 		POSITION psnGraph2		= m_slGraph2.GetHeadPosition();

  0032d	8b 83 94 00 00
	00		 mov	 eax, DWORD PTR [ebx+148]

; 203  : 		POSITION psnGraphTitle	= m_slGraphTitle.GetHeadPosition();
; 204  : 		POSITION psnGraph3		= m_slGraph3.GetHeadPosition();
; 205  : 		CString strPreGraphs;

  00333	8d 4d d4	 lea	 ecx, DWORD PTR _strPreGraphs$17[ebp]
  00336	8b 73 78	 mov	 esi, DWORD PTR [ebx+120]
  00339	89 45 bc	 mov	 DWORD PTR _psnGraph2$1$[ebp], eax
  0033c	8b 83 b0 00 00
	00		 mov	 eax, DWORD PTR [ebx+176]
  00342	89 45 ac	 mov	 DWORD PTR _psnGraphTitle$1$[ebp], eax
  00345	8b 83 cc 00 00
	00		 mov	 eax, DWORD PTR [ebx+204]
  0034b	89 45 b0	 mov	 DWORD PTR _psnGraph3$1$[ebp], eax
  0034e	ff 15 00 00 00
	00		 call	 DWORD PTR __imp_??0?$CStringT@DV?$StrTraitMFC_DLL@DV?$ChTraitsCRT@D@ATL@@@@@ATL@@QAE@XZ
  00354	c6 45 fc 0d	 mov	 BYTE PTR __$EHRec$[ebp+8], 13 ; 0000000dH

; 206  : 		// (2009/6/25 - Seung-Won, Bae) for Hiden Graphs before the first visible Graph.
; 207  : 		BOOL bAddedVisible = FALSE;

  00358	c7 45 e0 00 00
	00 00		 mov	 DWORD PTR _bAddedVisible$1$[ebp], 0

; 208  : 		while( psnGraph1 && psnGraph2 && psnGraphTitle && psnGraph3)

  0035f	85 f6		 test	 esi, esi
  00361	0f 84 33 03 00
	00		 je	 $LN5@GenerateAn
  00367	66 0f 1f 84 00
	00 00 00 00	 npad	 9
$LL4@GenerateAn:
  00370	83 7d bc 00	 cmp	 DWORD PTR _psnGraph2$1$[ebp], 0
  00374	0f 84 20 03 00
	00		 je	 $LN5@GenerateAn
  0037a	83 7d ac 00	 cmp	 DWORD PTR _psnGraphTitle$1$[ebp], 0
  0037e	0f 84 16 03 00
	00		 je	 $LN5@GenerateAn
  00384	83 7d b0 00	 cmp	 DWORD PTR _psnGraph3$1$[ebp], 0
  00388	0f 84 0c 03 00
	00		 je	 $LN5@GenerateAn

; 209  : 		{
; 210  : 			CString strGraph;

  0038e	8d 4d ec	 lea	 ecx, DWORD PTR _strGraph$43[ebp]
  00391	ff 15 00 00 00
	00		 call	 DWORD PTR __imp_??0?$CStringT@DV?$StrTraitMFC_DLL@DV?$ChTraitsCRT@D@ATL@@@@@ATL@@QAE@XZ
  00397	c6 45 fc 0e	 mov	 BYTE PTR __$EHRec$[ebp+8], 14 ; 0000000eH
; File C:\Program Files (x86)\Microsoft Visual Studio\2019\Community\VC\Tools\MSVC\14.29.30133\atlmfc\include\afxcoll.inl

; 501  : 	{ CNode* pNode = (CNode*) rPosition;

  0039b	8b c6		 mov	 eax, esi

; 502  : 		ASSERT(AfxIsValidAddress(pNode, sizeof(CNode)));
; 503  : 		if( pNode == NULL )

  0039d	85 f6		 test	 esi, esi
  0039f	0f 84 2f 0b 00
	00		 je	 $LN597@GenerateAn

; 505  : 		rPosition = (POSITION) pNode->pNext;

  003a5	8b 36		 mov	 esi, DWORD PTR [esi]
; File D:\git\src\IBK\IBK_DRFN\ProjSrc\SrcChartEx\ChartOCX\AddInManager\ChartCommonAddIn\SimpleCompareChartAddInImp.cpp

; 211  : 			CString strGraph1		= m_slGraph1.GetNext( psnGraph1);

  003a7	8d 4d e4	 lea	 ecx, DWORD PTR _strGraph1$37[ebp]
; File C:\Program Files (x86)\Microsoft Visual Studio\2019\Community\VC\Tools\MSVC\14.29.30133\atlmfc\include\afxcoll.inl

; 506  : 		return pNode->data; }

  003aa	83 c0 08	 add	 eax, 8
; File D:\git\src\IBK\IBK_DRFN\ProjSrc\SrcChartEx\ChartOCX\AddInManager\ChartCommonAddIn\SimpleCompareChartAddInImp.cpp

; 211  : 			CString strGraph1		= m_slGraph1.GetNext( psnGraph1);

  003ad	50		 push	 eax
  003ae	ff 15 00 00 00
	00		 call	 DWORD PTR __imp_??0?$CStringT@DV?$StrTraitMFC_DLL@DV?$ChTraitsCRT@D@ATL@@@@@ATL@@QAE@ABV01@@Z
; File C:\Program Files (x86)\Microsoft Visual Studio\2019\Community\VC\Tools\MSVC\14.29.30133\atlmfc\include\afxcoll.inl

; 501  : 	{ CNode* pNode = (CNode*) rPosition;

  003b4	8b 4d bc	 mov	 ecx, DWORD PTR _psnGraph2$1$[ebp]
  003b7	8b c1		 mov	 eax, ecx

; 506  : 		return pNode->data; }

  003b9	83 c0 08	 add	 eax, 8
; File D:\git\src\IBK\IBK_DRFN\ProjSrc\SrcChartEx\ChartOCX\AddInManager\ChartCommonAddIn\SimpleCompareChartAddInImp.cpp

; 211  : 			CString strGraph1		= m_slGraph1.GetNext( psnGraph1);

  003bc	c6 45 fc 0f	 mov	 BYTE PTR __$EHRec$[ebp+8], 15 ; 0000000fH

; 212  : 			CString strGraph2		= m_slGraph2.GetNext( psnGraph2);

  003c0	50		 push	 eax
; File C:\Program Files (x86)\Microsoft Visual Studio\2019\Community\VC\Tools\MSVC\14.29.30133\atlmfc\include\afxcoll.inl

; 505  : 		rPosition = (POSITION) pNode->pNext;

  003c1	8b 09		 mov	 ecx, DWORD PTR [ecx]
  003c3	89 4d bc	 mov	 DWORD PTR _psnGraph2$1$[ebp], ecx
; File D:\git\src\IBK\IBK_DRFN\ProjSrc\SrcChartEx\ChartOCX\AddInManager\ChartCommonAddIn\SimpleCompareChartAddInImp.cpp

; 212  : 			CString strGraph2		= m_slGraph2.GetNext( psnGraph2);

  003c6	8d 4d d0	 lea	 ecx, DWORD PTR _strGraph2$16[ebp]
  003c9	ff 15 00 00 00
	00		 call	 DWORD PTR __imp_??0?$CStringT@DV?$StrTraitMFC_DLL@DV?$ChTraitsCRT@D@ATL@@@@@ATL@@QAE@ABV01@@Z
; File C:\Program Files (x86)\Microsoft Visual Studio\2019\Community\VC\Tools\MSVC\14.29.30133\atlmfc\include\afxcoll.inl

; 501  : 	{ CNode* pNode = (CNode*) rPosition;

  003cf	8b 4d ac	 mov	 ecx, DWORD PTR _psnGraphTitle$1$[ebp]
  003d2	8b c1		 mov	 eax, ecx

; 506  : 		return pNode->data; }

  003d4	83 c0 08	 add	 eax, 8
; File D:\git\src\IBK\IBK_DRFN\ProjSrc\SrcChartEx\ChartOCX\AddInManager\ChartCommonAddIn\SimpleCompareChartAddInImp.cpp

; 212  : 			CString strGraph2		= m_slGraph2.GetNext( psnGraph2);

  003d7	c6 45 fc 10	 mov	 BYTE PTR __$EHRec$[ebp+8], 16 ; 00000010H

; 213  : 			CString strGraphTitle	= m_slGraphTitle.GetNext( psnGraphTitle);

  003db	50		 push	 eax
; File C:\Program Files (x86)\Microsoft Visual Studio\2019\Community\VC\Tools\MSVC\14.29.30133\atlmfc\include\afxcoll.inl

; 505  : 		rPosition = (POSITION) pNode->pNext;

  003dc	8b 09		 mov	 ecx, DWORD PTR [ecx]
  003de	89 4d ac	 mov	 DWORD PTR _psnGraphTitle$1$[ebp], ecx
; File D:\git\src\IBK\IBK_DRFN\ProjSrc\SrcChartEx\ChartOCX\AddInManager\ChartCommonAddIn\SimpleCompareChartAddInImp.cpp

; 213  : 			CString strGraphTitle	= m_slGraphTitle.GetNext( psnGraphTitle);

  003e1	8d 4d f0	 lea	 ecx, DWORD PTR _strGraphTitle$51[ebp]
  003e4	ff 15 00 00 00
	00		 call	 DWORD PTR __imp_??0?$CStringT@DV?$StrTraitMFC_DLL@DV?$ChTraitsCRT@D@ATL@@@@@ATL@@QAE@ABV01@@Z

; 214  : 			CString strGraphShow	= ";0";

  003ea	68 00 00 00 00	 push	 OFFSET ??_C@_02PHMGBKGP@?$DL0@
  003ef	8d 4d cc	 lea	 ecx, DWORD PTR _strGraphShow$12[ebp]
  003f2	c6 45 fc 11	 mov	 BYTE PTR __$EHRec$[ebp+8], 17 ; 00000011H
  003f6	ff 15 00 00 00
	00		 call	 DWORD PTR __imp_??0?$CStringT@DV?$StrTraitMFC_DLL@DV?$ChTraitsCRT@D@ATL@@@@@ATL@@QAE@PBD@Z
; File C:\Program Files (x86)\Microsoft Visual Studio\2019\Community\VC\Tools\MSVC\14.29.30133\atlmfc\include\afxcoll.inl

; 501  : 	{ CNode* pNode = (CNode*) rPosition;

  003fc	8b 4d b0	 mov	 ecx, DWORD PTR _psnGraph3$1$[ebp]
  003ff	8b c1		 mov	 eax, ecx

; 506  : 		return pNode->data; }

  00401	83 c0 08	 add	 eax, 8
; File D:\git\src\IBK\IBK_DRFN\ProjSrc\SrcChartEx\ChartOCX\AddInManager\ChartCommonAddIn\SimpleCompareChartAddInImp.cpp

; 214  : 			CString strGraphShow	= ";0";

  00404	c6 45 fc 12	 mov	 BYTE PTR __$EHRec$[ebp+8], 18 ; 00000012H

; 215  : 			CString strGraph3		= m_slGraph2.GetNext( psnGraph3);

  00408	50		 push	 eax
; File C:\Program Files (x86)\Microsoft Visual Studio\2019\Community\VC\Tools\MSVC\14.29.30133\atlmfc\include\afxcoll.inl

; 505  : 		rPosition = (POSITION) pNode->pNext;

  00409	8b 09		 mov	 ecx, DWORD PTR [ecx]
  0040b	89 4d b0	 mov	 DWORD PTR _psnGraph3$1$[ebp], ecx
; File D:\git\src\IBK\IBK_DRFN\ProjSrc\SrcChartEx\ChartOCX\AddInManager\ChartCommonAddIn\SimpleCompareChartAddInImp.cpp

; 215  : 			CString strGraph3		= m_slGraph2.GetNext( psnGraph3);

  0040e	8d 4d a8	 lea	 ecx, DWORD PTR _strGraph3$2[ebp]
  00411	ff 15 00 00 00
	00		 call	 DWORD PTR __imp_??0?$CStringT@DV?$StrTraitMFC_DLL@DV?$ChTraitsCRT@D@ATL@@@@@ATL@@QAE@ABV01@@Z
; File C:\Program Files (x86)\Microsoft Visual Studio\2019\Community\VC\Tools\MSVC\14.29.30133\atlmfc\include\atlsimpstr.h

; 519  : 		return( GetData()->nDataLength );

  00417	8b 45 f0	 mov	 eax, DWORD PTR _strGraphTitle$51[ebp]
; File D:\git\src\IBK\IBK_DRFN\ProjSrc\SrcChartEx\ChartOCX\AddInManager\ChartCommonAddIn\SimpleCompareChartAddInImp.cpp

; 215  : 			CString strGraph3		= m_slGraph2.GetNext( psnGraph3);

  0041a	c6 45 fc 13	 mov	 BYTE PTR __$EHRec$[ebp+8], 19 ; 00000013H
; File C:\Program Files (x86)\Microsoft Visual Studio\2019\Community\VC\Tools\MSVC\14.29.30133\atlmfc\include\atlsimpstr.h

; 533  : 		return( GetLength() == 0 );

  0041e	83 78 f4 00	 cmp	 DWORD PTR [eax-12], 0
; File D:\git\src\IBK\IBK_DRFN\ProjSrc\SrcChartEx\ChartOCX\AddInManager\ChartCommonAddIn\SimpleCompareChartAddInImp.cpp

; 216  : 			if( strGraphTitle.IsEmpty())		strGraphShow = ";1";

  00422	75 10		 jne	 SHORT $LN17@GenerateAn
  00424	68 00 00 00 00	 push	 OFFSET ??_C@_02OONNCLCO@?$DL1@
  00429	8d 4d cc	 lea	 ecx, DWORD PTR _strGraphShow$12[ebp]
  0042c	ff 15 00 00 00
	00		 call	 DWORD PTR __imp_??4?$CStringT@DV?$StrTraitMFC_DLL@DV?$ChTraitsCRT@D@ATL@@@@@ATL@@QAEAAV01@PBD@Z
  00432	eb 2e		 jmp	 SHORT $LN19@GenerateAn
$LN17@GenerateAn:
; File C:\Program Files (x86)\Microsoft Visual Studio\2019\Community\VC\Tools\MSVC\14.29.30133\atlmfc\include\atlsimpstr.h

; 519  : 		return( GetData()->nDataLength );

  00434	8b 45 d4	 mov	 eax, DWORD PTR _strPreGraphs$17[ebp]

; 533  : 		return( GetLength() == 0 );

  00437	83 78 f4 00	 cmp	 DWORD PTR [eax-12], 0
; File D:\git\src\IBK\IBK_DRFN\ProjSrc\SrcChartEx\ChartOCX\AddInManager\ChartCommonAddIn\SimpleCompareChartAddInImp.cpp

; 217  : 			else if( !strPreGraphs.IsEmpty() && bAddedVisible)

  0043b	74 25		 je	 SHORT $LN19@GenerateAn
  0043d	83 7d e0 00	 cmp	 DWORD PTR _bAddedVisible$1$[ebp], 0
  00441	74 1f		 je	 SHORT $LN19@GenerateAn

; 218  : 			{
; 219  : 				slVertScaleGroupList.AddTail( strPreGraphs);

  00443	8d 45 d4	 lea	 eax, DWORD PTR _strPreGraphs$17[ebp]
  00446	50		 push	 eax
  00447	8d 8d 70 ff ff
	ff		 lea	 ecx, DWORD PTR _slVertScaleGroupList$[ebp]
  0044d	e8 00 00 00 00	 call	 ?AddTail@CStringList@@QAEPAU__POSITION@@ABV?$CStringT@DV?$StrTraitMFC_DLL@DV?$ChTraitsCRT@D@ATL@@@@@ATL@@@Z ; CStringList::AddTail

; 220  : 				strPreGraphs.Empty();

  00452	8d 4d d4	 lea	 ecx, DWORD PTR _strPreGraphs$17[ebp]
  00455	ff 15 00 00 00
	00		 call	 DWORD PTR __imp_?Empty@?$CSimpleStringT@D$00@ATL@@QAEXXZ

; 221  : 				bAddedVisible = FALSE;

  0045b	c7 45 e0 00 00
	00 00		 mov	 DWORD PTR _bAddedVisible$1$[ebp], 0
$LN19@GenerateAn:
; File C:\Program Files (x86)\Microsoft Visual Studio\2019\Community\VC\Tools\MSVC\14.29.30133\atlmfc\include\cstringt.h

; 2390 : 		CStringT strResult( str1.GetManager() );

  00462	8d 4d e4	 lea	 ecx, DWORD PTR _strGraph1$37[ebp]
; File D:\git\src\IBK\IBK_DRFN\ProjSrc\SrcChartEx\ChartOCX\AddInManager\ChartCommonAddIn\SimpleCompareChartAddInImp.cpp

; 224  : 			strGraph = strGraph1 + strGraph2 + strGraphTitle + strGraphShow + strGraph3;

  00465	c6 45 fc 14	 mov	 BYTE PTR __$EHRec$[ebp+8], 20 ; 00000014H
; File C:\Program Files (x86)\Microsoft Visual Studio\2019\Community\VC\Tools\MSVC\14.29.30133\atlmfc\include\cstringt.h

; 2390 : 		CStringT strResult( str1.GetManager() );

  00469	ff 15 00 00 00
	00		 call	 DWORD PTR __imp_?GetManager@?$CStringT@DV?$StrTraitMFC_DLL@DV?$ChTraitsCRT@D@ATL@@@@@ATL@@QBEPAUIAtlStringMgr@2@XZ
  0046f	50		 push	 eax
  00470	8d 4d c4	 lea	 ecx, DWORD PTR $T9[ebp]
  00473	ff 15 00 00 00
	00		 call	 DWORD PTR __imp_??0?$CStringT@DV?$StrTraitMFC_DLL@DV?$ChTraitsCRT@D@ATL@@@@@ATL@@QAE@PAUIAtlStringMgr@1@@Z
; File C:\Program Files (x86)\Microsoft Visual Studio\2019\Community\VC\Tools\MSVC\14.29.30133\atlmfc\include\atlsimpstr.h

; 519  : 		return( GetData()->nDataLength );

  00479	8b 45 d0	 mov	 eax, DWORD PTR _strGraph2$16[ebp]
; File C:\Program Files (x86)\Microsoft Visual Studio\2019\Community\VC\Tools\MSVC\14.29.30133\atlmfc\include\cstringt.h

; 2394 : 		return( strResult );

  0047c	83 cf 40	 or	 edi, 64			; 00000040H
; File C:\Program Files (x86)\Microsoft Visual Studio\2019\Community\VC\Tools\MSVC\14.29.30133\atlmfc\include\atlsimpstr.h

; 519  : 		return( GetData()->nDataLength );

  0047f	8b 4d e4	 mov	 ecx, DWORD PTR _strGraph1$37[ebp]
; File C:\Program Files (x86)\Microsoft Visual Studio\2019\Community\VC\Tools\MSVC\14.29.30133\atlmfc\include\cstringt.h

; 2394 : 		return( strResult );

  00482	89 7d e8	 mov	 DWORD PTR $T39[ebp], edi
  00485	ff 70 f4	 push	 DWORD PTR [eax-12]
  00488	50		 push	 eax
  00489	ff 71 f4	 push	 DWORD PTR [ecx-12]
  0048c	8d 45 c4	 lea	 eax, DWORD PTR $T9[ebp]
  0048f	51		 push	 ecx
  00490	50		 push	 eax
  00491	ff 15 00 00 00
	00		 call	 DWORD PTR __imp_?Concatenate@?$CSimpleStringT@D$00@ATL@@KAXAAV12@PBDH1H@Z
  00497	83 c4 14	 add	 esp, 20			; 00000014H

; 2390 : 		CStringT strResult( str1.GetManager() );

  0049a	8d 4d c4	 lea	 ecx, DWORD PTR $T9[ebp]
; File D:\git\src\IBK\IBK_DRFN\ProjSrc\SrcChartEx\ChartOCX\AddInManager\ChartCommonAddIn\SimpleCompareChartAddInImp.cpp

; 224  : 			strGraph = strGraph1 + strGraph2 + strGraphTitle + strGraphShow + strGraph3;

  0049d	c6 45 fc 15	 mov	 BYTE PTR __$EHRec$[ebp+8], 21 ; 00000015H
; File C:\Program Files (x86)\Microsoft Visual Studio\2019\Community\VC\Tools\MSVC\14.29.30133\atlmfc\include\cstringt.h

; 2390 : 		CStringT strResult( str1.GetManager() );

  004a1	ff 15 00 00 00
	00		 call	 DWORD PTR __imp_?GetManager@?$CStringT@DV?$StrTraitMFC_DLL@DV?$ChTraitsCRT@D@ATL@@@@@ATL@@QBEPAUIAtlStringMgr@2@XZ
  004a7	50		 push	 eax
  004a8	8d 4d c0	 lea	 ecx, DWORD PTR $T7[ebp]
  004ab	ff 15 00 00 00
	00		 call	 DWORD PTR __imp_??0?$CStringT@DV?$StrTraitMFC_DLL@DV?$ChTraitsCRT@D@ATL@@@@@ATL@@QAE@PAUIAtlStringMgr@1@@Z
; File C:\Program Files (x86)\Microsoft Visual Studio\2019\Community\VC\Tools\MSVC\14.29.30133\atlmfc\include\atlsimpstr.h

; 519  : 		return( GetData()->nDataLength );

  004b1	8b 45 f0	 mov	 eax, DWORD PTR _strGraphTitle$51[ebp]
; File C:\Program Files (x86)\Microsoft Visual Studio\2019\Community\VC\Tools\MSVC\14.29.30133\atlmfc\include\cstringt.h

; 2394 : 		return( strResult );

  004b4	81 cf 80 00 00
	00		 or	 edi, 128		; 00000080H
; File C:\Program Files (x86)\Microsoft Visual Studio\2019\Community\VC\Tools\MSVC\14.29.30133\atlmfc\include\atlsimpstr.h

; 519  : 		return( GetData()->nDataLength );

  004ba	8b 4d c4	 mov	 ecx, DWORD PTR $T9[ebp]
; File C:\Program Files (x86)\Microsoft Visual Studio\2019\Community\VC\Tools\MSVC\14.29.30133\atlmfc\include\cstringt.h

; 2394 : 		return( strResult );

  004bd	89 7d e8	 mov	 DWORD PTR $T39[ebp], edi
  004c0	ff 70 f4	 push	 DWORD PTR [eax-12]
  004c3	50		 push	 eax
  004c4	ff 71 f4	 push	 DWORD PTR [ecx-12]
  004c7	8d 45 c0	 lea	 eax, DWORD PTR $T7[ebp]
  004ca	51		 push	 ecx
  004cb	50		 push	 eax
  004cc	ff 15 00 00 00
	00		 call	 DWORD PTR __imp_?Concatenate@?$CSimpleStringT@D$00@ATL@@KAXAAV12@PBDH1H@Z
  004d2	83 c4 14	 add	 esp, 20			; 00000014H

; 2390 : 		CStringT strResult( str1.GetManager() );

  004d5	8d 4d c0	 lea	 ecx, DWORD PTR $T7[ebp]
; File D:\git\src\IBK\IBK_DRFN\ProjSrc\SrcChartEx\ChartOCX\AddInManager\ChartCommonAddIn\SimpleCompareChartAddInImp.cpp

; 224  : 			strGraph = strGraph1 + strGraph2 + strGraphTitle + strGraphShow + strGraph3;

  004d8	c6 45 fc 16	 mov	 BYTE PTR __$EHRec$[ebp+8], 22 ; 00000016H
; File C:\Program Files (x86)\Microsoft Visual Studio\2019\Community\VC\Tools\MSVC\14.29.30133\atlmfc\include\cstringt.h

; 2390 : 		CStringT strResult( str1.GetManager() );

  004dc	ff 15 00 00 00
	00		 call	 DWORD PTR __imp_?GetManager@?$CStringT@DV?$StrTraitMFC_DLL@DV?$ChTraitsCRT@D@ATL@@@@@ATL@@QBEPAUIAtlStringMgr@2@XZ
  004e2	50		 push	 eax
  004e3	8d 4d d8	 lea	 ecx, DWORD PTR $T20[ebp]
  004e6	ff 15 00 00 00
	00		 call	 DWORD PTR __imp_??0?$CStringT@DV?$StrTraitMFC_DLL@DV?$ChTraitsCRT@D@ATL@@@@@ATL@@QAE@PAUIAtlStringMgr@1@@Z
; File C:\Program Files (x86)\Microsoft Visual Studio\2019\Community\VC\Tools\MSVC\14.29.30133\atlmfc\include\atlsimpstr.h

; 519  : 		return( GetData()->nDataLength );

  004ec	8b 45 cc	 mov	 eax, DWORD PTR _strGraphShow$12[ebp]
; File C:\Program Files (x86)\Microsoft Visual Studio\2019\Community\VC\Tools\MSVC\14.29.30133\atlmfc\include\cstringt.h

; 2394 : 		return( strResult );

  004ef	81 cf 00 01 00
	00		 or	 edi, 256		; 00000100H
; File C:\Program Files (x86)\Microsoft Visual Studio\2019\Community\VC\Tools\MSVC\14.29.30133\atlmfc\include\atlsimpstr.h

; 519  : 		return( GetData()->nDataLength );

  004f5	8b 4d c0	 mov	 ecx, DWORD PTR $T7[ebp]
; File C:\Program Files (x86)\Microsoft Visual Studio\2019\Community\VC\Tools\MSVC\14.29.30133\atlmfc\include\cstringt.h

; 2394 : 		return( strResult );

  004f8	89 7d e8	 mov	 DWORD PTR $T39[ebp], edi
  004fb	ff 70 f4	 push	 DWORD PTR [eax-12]
  004fe	50		 push	 eax
  004ff	ff 71 f4	 push	 DWORD PTR [ecx-12]
  00502	8d 45 d8	 lea	 eax, DWORD PTR $T20[ebp]
  00505	51		 push	 ecx
  00506	50		 push	 eax
  00507	ff 15 00 00 00
	00		 call	 DWORD PTR __imp_?Concatenate@?$CSimpleStringT@D$00@ATL@@KAXAAV12@PBDH1H@Z
  0050d	83 c4 14	 add	 esp, 20			; 00000014H

; 2390 : 		CStringT strResult( str1.GetManager() );

  00510	8d 4d d8	 lea	 ecx, DWORD PTR $T20[ebp]
; File D:\git\src\IBK\IBK_DRFN\ProjSrc\SrcChartEx\ChartOCX\AddInManager\ChartCommonAddIn\SimpleCompareChartAddInImp.cpp

; 224  : 			strGraph = strGraph1 + strGraph2 + strGraphTitle + strGraphShow + strGraph3;

  00513	c6 45 fc 17	 mov	 BYTE PTR __$EHRec$[ebp+8], 23 ; 00000017H
; File C:\Program Files (x86)\Microsoft Visual Studio\2019\Community\VC\Tools\MSVC\14.29.30133\atlmfc\include\cstringt.h

; 2390 : 		CStringT strResult( str1.GetManager() );

  00517	ff 15 00 00 00
	00		 call	 DWORD PTR __imp_?GetManager@?$CStringT@DV?$StrTraitMFC_DLL@DV?$ChTraitsCRT@D@ATL@@@@@ATL@@QBEPAUIAtlStringMgr@2@XZ
  0051d	50		 push	 eax
  0051e	8d 4d b4	 lea	 ecx, DWORD PTR $T3[ebp]
  00521	ff 15 00 00 00
	00		 call	 DWORD PTR __imp_??0?$CStringT@DV?$StrTraitMFC_DLL@DV?$ChTraitsCRT@D@ATL@@@@@ATL@@QAE@PAUIAtlStringMgr@1@@Z
; File C:\Program Files (x86)\Microsoft Visual Studio\2019\Community\VC\Tools\MSVC\14.29.30133\atlmfc\include\atlsimpstr.h

; 519  : 		return( GetData()->nDataLength );

  00527	8b 45 a8	 mov	 eax, DWORD PTR _strGraph3$2[ebp]
; File C:\Program Files (x86)\Microsoft Visual Studio\2019\Community\VC\Tools\MSVC\14.29.30133\atlmfc\include\cstringt.h

; 2394 : 		return( strResult );

  0052a	81 cf 00 02 00
	00		 or	 edi, 512		; 00000200H
; File C:\Program Files (x86)\Microsoft Visual Studio\2019\Community\VC\Tools\MSVC\14.29.30133\atlmfc\include\atlsimpstr.h

; 519  : 		return( GetData()->nDataLength );

  00530	8b 4d d8	 mov	 ecx, DWORD PTR $T20[ebp]
; File C:\Program Files (x86)\Microsoft Visual Studio\2019\Community\VC\Tools\MSVC\14.29.30133\atlmfc\include\cstringt.h

; 2394 : 		return( strResult );

  00533	89 7d e8	 mov	 DWORD PTR $T39[ebp], edi
  00536	ff 70 f4	 push	 DWORD PTR [eax-12]
  00539	50		 push	 eax
  0053a	ff 71 f4	 push	 DWORD PTR [ecx-12]
  0053d	8d 45 b4	 lea	 eax, DWORD PTR $T3[ebp]
  00540	51		 push	 ecx
  00541	50		 push	 eax
  00542	ff 15 00 00 00
	00		 call	 DWORD PTR __imp_?Concatenate@?$CSimpleStringT@D$00@ATL@@KAXAAV12@PBDH1H@Z
  00548	83 c4 14	 add	 esp, 20			; 00000014H
; File D:\git\src\IBK\IBK_DRFN\ProjSrc\SrcChartEx\ChartOCX\AddInManager\ChartCommonAddIn\SimpleCompareChartAddInImp.cpp

; 224  : 			strGraph = strGraph1 + strGraph2 + strGraphTitle + strGraphShow + strGraph3;

  0054b	8d 45 b4	 lea	 eax, DWORD PTR $T3[ebp]
  0054e	8d 4d ec	 lea	 ecx, DWORD PTR _strGraph$43[ebp]
  00551	50		 push	 eax
  00552	ff 15 00 00 00
	00		 call	 DWORD PTR __imp_??4?$CStringT@DV?$StrTraitMFC_DLL@DV?$ChTraitsCRT@D@ATL@@@@@ATL@@QAEAAV01@ABV01@@Z
  00558	81 e7 ff fd ff
	ff		 and	 edi, -513		; fffffdffH
  0055e	8d 4d b4	 lea	 ecx, DWORD PTR $T3[ebp]
  00561	ff 15 00 00 00
	00		 call	 DWORD PTR __imp_??1?$CStringT@DV?$StrTraitMFC_DLL@DV?$ChTraitsCRT@D@ATL@@@@@ATL@@QAE@XZ
  00567	8d 4d d8	 lea	 ecx, DWORD PTR $T20[ebp]
  0056a	81 e7 ff fe ff
	ff		 and	 edi, -257		; fffffeffH
  00570	ff 15 00 00 00
	00		 call	 DWORD PTR __imp_??1?$CStringT@DV?$StrTraitMFC_DLL@DV?$ChTraitsCRT@D@ATL@@@@@ATL@@QAE@XZ
  00576	8d 4d c0	 lea	 ecx, DWORD PTR $T7[ebp]
  00579	81 e7 7f ff ff
	ff		 and	 edi, -129		; ffffff7fH
  0057f	ff 15 00 00 00
	00		 call	 DWORD PTR __imp_??1?$CStringT@DV?$StrTraitMFC_DLL@DV?$ChTraitsCRT@D@ATL@@@@@ATL@@QAE@XZ
  00585	8d 4d c4	 lea	 ecx, DWORD PTR $T9[ebp]
  00588	83 e7 bf	 and	 edi, -65		; ffffffbfH
  0058b	ff 15 00 00 00
	00		 call	 DWORD PTR __imp_??1?$CStringT@DV?$StrTraitMFC_DLL@DV?$ChTraitsCRT@D@ATL@@@@@ATL@@QAE@XZ
; File C:\Program Files (x86)\Microsoft Visual Studio\2019\Community\VC\Tools\MSVC\14.29.30133\atlmfc\include\cstringt.h

; 2412 : 		CStringT strResult( str2.GetManager() );

  00591	8d 4d ec	 lea	 ecx, DWORD PTR _strGraph$43[ebp]
; File D:\git\src\IBK\IBK_DRFN\ProjSrc\SrcChartEx\ChartOCX\AddInManager\ChartCommonAddIn\SimpleCompareChartAddInImp.cpp

; 225  : 			strGraph = _GRAPH_HEADER + strGraph + _GRAPH_FOOTER;

  00594	c6 45 fc 18	 mov	 BYTE PTR __$EHRec$[ebp+8], 24 ; 00000018H
; File C:\Program Files (x86)\Microsoft Visual Studio\2019\Community\VC\Tools\MSVC\14.29.30133\atlmfc\include\cstringt.h

; 2412 : 		CStringT strResult( str2.GetManager() );

  00598	ff 15 00 00 00
	00		 call	 DWORD PTR __imp_?GetManager@?$CStringT@DV?$StrTraitMFC_DLL@DV?$ChTraitsCRT@D@ATL@@@@@ATL@@QBEPAUIAtlStringMgr@2@XZ
  0059e	50		 push	 eax
  0059f	8d 4d dc	 lea	 ecx, DWORD PTR $T24[ebp]
  005a2	ff 15 00 00 00
	00		 call	 DWORD PTR __imp_??0?$CStringT@DV?$StrTraitMFC_DLL@DV?$ChTraitsCRT@D@ATL@@@@@ATL@@QAE@PAUIAtlStringMgr@1@@Z
; File C:\Program Files (x86)\Microsoft Visual Studio\2019\Community\VC\Tools\MSVC\14.29.30133\atlmfc\include\atlsimpstr.h

; 519  : 		return( GetData()->nDataLength );

  005a8	8b 45 ec	 mov	 eax, DWORD PTR _strGraph$43[ebp]
; File C:\Program Files (x86)\Microsoft Visual Studio\2019\Community\VC\Tools\MSVC\14.29.30133\atlmfc\include\cstringt.h

; 2416 : 		return( strResult );

  005ab	81 cf 00 04 00
	00		 or	 edi, 1024		; 00000400H
  005b1	89 7d e8	 mov	 DWORD PTR $T39[ebp], edi
  005b4	ff 70 f4	 push	 DWORD PTR [eax-12]
  005b7	50		 push	 eax
  005b8	6a 08		 push	 8
  005ba	8d 45 dc	 lea	 eax, DWORD PTR $T24[ebp]
  005bd	68 00 00 00 00	 push	 OFFSET ??_C@_08BHMMGBBH@Graph?$DL?$AN?6@
  005c2	50		 push	 eax
  005c3	ff 15 00 00 00
	00		 call	 DWORD PTR __imp_?Concatenate@?$CSimpleStringT@D$00@ATL@@KAXAAV12@PBDH1H@Z
  005c9	83 c4 14	 add	 esp, 20			; 00000014H

; 2401 : 		CStringT strResult( str1.GetManager() );

  005cc	8d 4d dc	 lea	 ecx, DWORD PTR $T24[ebp]
; File D:\git\src\IBK\IBK_DRFN\ProjSrc\SrcChartEx\ChartOCX\AddInManager\ChartCommonAddIn\SimpleCompareChartAddInImp.cpp

; 225  : 			strGraph = _GRAPH_HEADER + strGraph + _GRAPH_FOOTER;

  005cf	c6 45 fc 19	 mov	 BYTE PTR __$EHRec$[ebp+8], 25 ; 00000019H
; File C:\Program Files (x86)\Microsoft Visual Studio\2019\Community\VC\Tools\MSVC\14.29.30133\atlmfc\include\cstringt.h

; 2401 : 		CStringT strResult( str1.GetManager() );

  005d3	ff 15 00 00 00
	00		 call	 DWORD PTR __imp_?GetManager@?$CStringT@DV?$StrTraitMFC_DLL@DV?$ChTraitsCRT@D@ATL@@@@@ATL@@QBEPAUIAtlStringMgr@2@XZ
  005d9	50		 push	 eax
  005da	8d 4d b8	 lea	 ecx, DWORD PTR $T4[ebp]
  005dd	ff 15 00 00 00
	00		 call	 DWORD PTR __imp_??0?$CStringT@DV?$StrTraitMFC_DLL@DV?$ChTraitsCRT@D@ATL@@@@@ATL@@QAE@PAUIAtlStringMgr@1@@Z
; File C:\Program Files (x86)\Microsoft Visual Studio\2019\Community\VC\Tools\MSVC\14.29.30133\atlmfc\include\atlsimpstr.h

; 519  : 		return( GetData()->nDataLength );

  005e3	8b 45 dc	 mov	 eax, DWORD PTR $T24[ebp]
; File C:\Program Files (x86)\Microsoft Visual Studio\2019\Community\VC\Tools\MSVC\14.29.30133\atlmfc\include\cstringt.h

; 2405 : 		return( strResult );

  005e6	81 cf 00 08 00
	00		 or	 edi, 2048		; 00000800H
  005ec	6a 0b		 push	 11			; 0000000bH
  005ee	68 00 00 00 00	 push	 OFFSET ??_C@_0M@DGHFHKEI@GraphEnd?$DL?$AN?6@
  005f3	89 7d e8	 mov	 DWORD PTR $T39[ebp], edi
  005f6	ff 70 f4	 push	 DWORD PTR [eax-12]
  005f9	50		 push	 eax
  005fa	8d 45 b8	 lea	 eax, DWORD PTR $T4[ebp]
  005fd	50		 push	 eax
  005fe	ff 15 00 00 00
	00		 call	 DWORD PTR __imp_?Concatenate@?$CSimpleStringT@D$00@ATL@@KAXAAV12@PBDH1H@Z
  00604	83 c4 14	 add	 esp, 20			; 00000014H
; File D:\git\src\IBK\IBK_DRFN\ProjSrc\SrcChartEx\ChartOCX\AddInManager\ChartCommonAddIn\SimpleCompareChartAddInImp.cpp

; 225  : 			strGraph = _GRAPH_HEADER + strGraph + _GRAPH_FOOTER;

  00607	8d 45 b8	 lea	 eax, DWORD PTR $T4[ebp]
  0060a	8d 4d ec	 lea	 ecx, DWORD PTR _strGraph$43[ebp]
  0060d	50		 push	 eax
  0060e	ff 15 00 00 00
	00		 call	 DWORD PTR __imp_??4?$CStringT@DV?$StrTraitMFC_DLL@DV?$ChTraitsCRT@D@ATL@@@@@ATL@@QAEAAV01@ABV01@@Z
  00614	8d 4d b8	 lea	 ecx, DWORD PTR $T4[ebp]
  00617	81 e7 ff f7 ff
	ff		 and	 edi, -2049		; fffff7ffH
  0061d	ff 15 00 00 00
	00		 call	 DWORD PTR __imp_??1?$CStringT@DV?$StrTraitMFC_DLL@DV?$ChTraitsCRT@D@ATL@@@@@ATL@@QAE@XZ
  00623	8d 4d dc	 lea	 ecx, DWORD PTR $T24[ebp]
  00626	c6 45 fc 13	 mov	 BYTE PTR __$EHRec$[ebp+8], 19 ; 00000013H
  0062a	81 e7 ff fb ff
	ff		 and	 edi, -1025		; fffffbffH
  00630	ff 15 00 00 00
	00		 call	 DWORD PTR __imp_??1?$CStringT@DV?$StrTraitMFC_DLL@DV?$ChTraitsCRT@D@ATL@@@@@ATL@@QAE@XZ

; 226  : 			strPreGraphs += strGraph;

  00636	8d 45 ec	 lea	 eax, DWORD PTR _strGraph$43[ebp]
  00639	50		 push	 eax
  0063a	8d 4d d4	 lea	 ecx, DWORD PTR _strPreGraphs$17[ebp]
  0063d	ff 15 00 00 00
	00		 call	 DWORD PTR __imp_??Y?$CStringT@DV?$StrTraitMFC_DLL@DV?$ChTraitsCRT@D@ATL@@@@@ATL@@QAEAAV01@ABV?$CSimpleStringT@D$00@1@@Z
; File C:\Program Files (x86)\Microsoft Visual Studio\2019\Community\VC\Tools\MSVC\14.29.30133\atlmfc\include\atlsimpstr.h

; 519  : 		return( GetData()->nDataLength );

  00643	8b 45 f0	 mov	 eax, DWORD PTR _strGraphTitle$51[ebp]
; File D:\git\src\IBK\IBK_DRFN\ProjSrc\SrcChartEx\ChartOCX\AddInManager\ChartCommonAddIn\SimpleCompareChartAddInImp.cpp

; 227  : 			if( !strGraphTitle.IsEmpty()) bAddedVisible = TRUE;

  00646	8b 4d e0	 mov	 ecx, DWORD PTR _bAddedVisible$1$[ebp]
; File C:\Program Files (x86)\Microsoft Visual Studio\2019\Community\VC\Tools\MSVC\14.29.30133\atlmfc\include\atlsimpstr.h

; 533  : 		return( GetLength() == 0 );

  00649	83 78 f4 00	 cmp	 DWORD PTR [eax-12], 0
; File D:\git\src\IBK\IBK_DRFN\ProjSrc\SrcChartEx\ChartOCX\AddInManager\ChartCommonAddIn\SimpleCompareChartAddInImp.cpp

; 227  : 			if( !strGraphTitle.IsEmpty()) bAddedVisible = TRUE;

  0064d	b8 01 00 00 00	 mov	 eax, 1
  00652	0f 45 c8	 cmovne	 ecx, eax
  00655	89 4d e0	 mov	 DWORD PTR _bAddedVisible$1$[ebp], ecx

; 228  : 		}

  00658	8d 4d a8	 lea	 ecx, DWORD PTR _strGraph3$2[ebp]
  0065b	ff 15 00 00 00
	00		 call	 DWORD PTR __imp_??1?$CStringT@DV?$StrTraitMFC_DLL@DV?$ChTraitsCRT@D@ATL@@@@@ATL@@QAE@XZ
  00661	8d 4d cc	 lea	 ecx, DWORD PTR _strGraphShow$12[ebp]
  00664	ff 15 00 00 00
	00		 call	 DWORD PTR __imp_??1?$CStringT@DV?$StrTraitMFC_DLL@DV?$ChTraitsCRT@D@ATL@@@@@ATL@@QAE@XZ
  0066a	8d 4d f0	 lea	 ecx, DWORD PTR _strGraphTitle$51[ebp]
  0066d	ff 15 00 00 00
	00		 call	 DWORD PTR __imp_??1?$CStringT@DV?$StrTraitMFC_DLL@DV?$ChTraitsCRT@D@ATL@@@@@ATL@@QAE@XZ
  00673	8d 4d d0	 lea	 ecx, DWORD PTR _strGraph2$16[ebp]
  00676	ff 15 00 00 00
	00		 call	 DWORD PTR __imp_??1?$CStringT@DV?$StrTraitMFC_DLL@DV?$ChTraitsCRT@D@ATL@@@@@ATL@@QAE@XZ
  0067c	8d 4d e4	 lea	 ecx, DWORD PTR _strGraph1$37[ebp]
  0067f	ff 15 00 00 00
	00		 call	 DWORD PTR __imp_??1?$CStringT@DV?$StrTraitMFC_DLL@DV?$ChTraitsCRT@D@ATL@@@@@ATL@@QAE@XZ
  00685	8d 4d ec	 lea	 ecx, DWORD PTR _strGraph$43[ebp]
  00688	c6 45 fc 0d	 mov	 BYTE PTR __$EHRec$[ebp+8], 13 ; 0000000dH
  0068c	ff 15 00 00 00
	00		 call	 DWORD PTR __imp_??1?$CStringT@DV?$StrTraitMFC_DLL@DV?$ChTraitsCRT@D@ATL@@@@@ATL@@QAE@XZ

; 208  : 		while( psnGraph1 && psnGraph2 && psnGraphTitle && psnGraph3)

  00692	85 f6		 test	 esi, esi
  00694	0f 85 d6 fc ff
	ff		 jne	 $LL4@GenerateAn
$LN5@GenerateAn:
; File C:\Program Files (x86)\Microsoft Visual Studio\2019\Community\VC\Tools\MSVC\14.29.30133\atlmfc\include\atlsimpstr.h

; 519  : 		return( GetData()->nDataLength );

  0069a	8b 45 d4	 mov	 eax, DWORD PTR _strPreGraphs$17[ebp]

; 533  : 		return( GetLength() == 0 );

  0069d	83 78 f4 00	 cmp	 DWORD PTR [eax-12], 0
; File D:\git\src\IBK\IBK_DRFN\ProjSrc\SrcChartEx\ChartOCX\AddInManager\ChartCommonAddIn\SimpleCompareChartAddInImp.cpp

; 229  : 		if( !strPreGraphs.IsEmpty())

  006a1	74 18		 je	 SHORT $LN21@GenerateAn

; 230  : 		{
; 231  : 			slVertScaleGroupList.AddTail( strPreGraphs);

  006a3	8d 45 d4	 lea	 eax, DWORD PTR _strPreGraphs$17[ebp]
  006a6	50		 push	 eax
  006a7	8d 8d 70 ff ff
	ff		 lea	 ecx, DWORD PTR _slVertScaleGroupList$[ebp]
  006ad	e8 00 00 00 00	 call	 ?AddTail@CStringList@@QAEPAU__POSITION@@ABV?$CStringT@DV?$StrTraitMFC_DLL@DV?$ChTraitsCRT@D@ATL@@@@@ATL@@@Z ; CStringList::AddTail

; 232  : 			strPreGraphs.Empty();

  006b2	8d 4d d4	 lea	 ecx, DWORD PTR _strPreGraphs$17[ebp]
  006b5	ff 15 00 00 00
	00		 call	 DWORD PTR __imp_?Empty@?$CSimpleStringT@D$00@ATL@@QAEXXZ
$LN21@GenerateAn:

; 233  : 		}
; 234  : 	}

  006bb	8d 4d d4	 lea	 ecx, DWORD PTR _strPreGraphs$17[ebp]
$LN629@GenerateAn:

; 235  : 
; 236  : 	// 3. Devide to each Vertical Scale Group
; 237  : 	CStringList slBlock;

  006be	c6 45 fc 00	 mov	 BYTE PTR __$EHRec$[ebp+8], 0
  006c2	ff 15 00 00 00
	00		 call	 DWORD PTR __imp_??1?$CStringT@DV?$StrTraitMFC_DLL@DV?$ChTraitsCRT@D@ATL@@@@@ATL@@QAE@XZ
  006c8	6a 0a		 push	 10			; 0000000aH
  006ca	8d 4d 8c	 lea	 ecx, DWORD PTR _slBlock$[ebp]
  006cd	e8 00 00 00 00	 call	 ??0CStringList@@QAE@H@Z	; CStringList::CStringList

; 238  : 	if( m_nChartCompareType == 0)	// Ratio

  006d2	83 7b 60 00	 cmp	 DWORD PTR [ebx+96], 0
  006d6	c6 45 fc 1a	 mov	 BYTE PTR __$EHRec$[ebp+8], 26 ; 0000001aH
  006da	0f 85 64 01 00
	00		 jne	 $LN22@GenerateAn

; 239  : 	{
; 240  : 		CString strBlock;

  006e0	8d 4d ec	 lea	 ecx, DWORD PTR _strBlock$42[ebp]
  006e3	ff 15 00 00 00
	00		 call	 DWORD PTR __imp_??0?$CStringT@DV?$StrTraitMFC_DLL@DV?$ChTraitsCRT@D@ATL@@@@@ATL@@QAE@XZ

; 241  : 		POSITION psnVertScaleGroup = slVertScaleGroupList.GetHeadPosition();

  006e9	8b b5 74 ff ff
	ff		 mov	 esi, DWORD PTR _slVertScaleGroupList$[ebp+4]
  006ef	c6 45 fc 1b	 mov	 BYTE PTR __$EHRec$[ebp+8], 27 ; 0000001bH
  006f3	85 f6		 test	 esi, esi

; 242  : 		while( psnVertScaleGroup)

  006f5	74 44		 je	 SHORT $LN7@GenerateAn
  006f7	66 0f 1f 84 00
	00 00 00 00	 npad	 9
$LL6@GenerateAn:
; File C:\Program Files (x86)\Microsoft Visual Studio\2019\Community\VC\Tools\MSVC\14.29.30133\atlmfc\include\afxcoll.inl

; 501  : 	{ CNode* pNode = (CNode*) rPosition;

  00700	8b c6		 mov	 eax, esi

; 502  : 		ASSERT(AfxIsValidAddress(pNode, sizeof(CNode)));
; 503  : 		if( pNode == NULL )

  00702	85 f6		 test	 esi, esi
  00704	0f 84 ca 07 00
	00		 je	 $LN597@GenerateAn

; 505  : 		rPosition = (POSITION) pNode->pNext;

  0070a	8b 36		 mov	 esi, DWORD PTR [esi]
; File D:\git\src\IBK\IBK_DRFN\ProjSrc\SrcChartEx\ChartOCX\AddInManager\ChartCommonAddIn\SimpleCompareChartAddInImp.cpp

; 244  : 			CString strVertScaleGroup = slVertScaleGroupList.GetNext( psnVertScaleGroup);

  0070c	8d 4d d0	 lea	 ecx, DWORD PTR _strVertScaleGroup$15[ebp]
; File C:\Program Files (x86)\Microsoft Visual Studio\2019\Community\VC\Tools\MSVC\14.29.30133\atlmfc\include\afxcoll.inl

; 506  : 		return pNode->data; }

  0070f	83 c0 08	 add	 eax, 8
; File D:\git\src\IBK\IBK_DRFN\ProjSrc\SrcChartEx\ChartOCX\AddInManager\ChartCommonAddIn\SimpleCompareChartAddInImp.cpp

; 244  : 			CString strVertScaleGroup = slVertScaleGroupList.GetNext( psnVertScaleGroup);

  00712	50		 push	 eax
  00713	ff 15 00 00 00
	00		 call	 DWORD PTR __imp_??0?$CStringT@DV?$StrTraitMFC_DLL@DV?$ChTraitsCRT@D@ATL@@@@@ATL@@QAE@ABV01@@Z

; 245  : 			strBlock += strVertScaleGroup;

  00719	8d 45 d0	 lea	 eax, DWORD PTR _strVertScaleGroup$15[ebp]
  0071c	c6 45 fc 1c	 mov	 BYTE PTR __$EHRec$[ebp+8], 28 ; 0000001cH
  00720	50		 push	 eax
  00721	8d 4d ec	 lea	 ecx, DWORD PTR _strBlock$42[ebp]
  00724	ff 15 00 00 00
	00		 call	 DWORD PTR __imp_??Y?$CStringT@DV?$StrTraitMFC_DLL@DV?$ChTraitsCRT@D@ATL@@@@@ATL@@QAEAAV01@ABV?$CSimpleStringT@D$00@1@@Z

; 246  : 		}

  0072a	8d 4d d0	 lea	 ecx, DWORD PTR _strVertScaleGroup$15[ebp]
  0072d	c6 45 fc 1b	 mov	 BYTE PTR __$EHRec$[ebp+8], 27 ; 0000001bH
  00731	ff 15 00 00 00
	00		 call	 DWORD PTR __imp_??1?$CStringT@DV?$StrTraitMFC_DLL@DV?$ChTraitsCRT@D@ATL@@@@@ATL@@QAE@XZ
  00737	85 f6		 test	 esi, esi
  00739	75 c5		 jne	 SHORT $LL6@GenerateAn
$LN7@GenerateAn:
; File C:\Program Files (x86)\Microsoft Visual Studio\2019\Community\VC\Tools\MSVC\14.29.30133\atlmfc\include\cstringt.h

; 2412 : 		CStringT strResult( str2.GetManager() );

  0073b	8d 4b 70	 lea	 ecx, DWORD PTR [ebx+112]
; File D:\git\src\IBK\IBK_DRFN\ProjSrc\SrcChartEx\ChartOCX\AddInManager\ChartCommonAddIn\SimpleCompareChartAddInImp.cpp

; 247  : 		strBlock = _VERT_SCALE_GROUP_HEADER + m_strVertScaleGroupInfo + strBlock + _VERT_SCALE_GROUP_FOOTER;

  0073e	c6 45 fc 1d	 mov	 BYTE PTR __$EHRec$[ebp+8], 29 ; 0000001dH
; File C:\Program Files (x86)\Microsoft Visual Studio\2019\Community\VC\Tools\MSVC\14.29.30133\atlmfc\include\cstringt.h

; 2412 : 		CStringT strResult( str2.GetManager() );

  00742	ff 15 00 00 00
	00		 call	 DWORD PTR __imp_?GetManager@?$CStringT@DV?$StrTraitMFC_DLL@DV?$ChTraitsCRT@D@ATL@@@@@ATL@@QBEPAUIAtlStringMgr@2@XZ
  00748	50		 push	 eax
  00749	8d 4d e0	 lea	 ecx, DWORD PTR $T29[ebp]
  0074c	ff 15 00 00 00
	00		 call	 DWORD PTR __imp_??0?$CStringT@DV?$StrTraitMFC_DLL@DV?$ChTraitsCRT@D@ATL@@@@@ATL@@QAE@PAUIAtlStringMgr@1@@Z
; File C:\Program Files (x86)\Microsoft Visual Studio\2019\Community\VC\Tools\MSVC\14.29.30133\atlmfc\include\atlsimpstr.h

; 519  : 		return( GetData()->nDataLength );

  00752	8b 43 70	 mov	 eax, DWORD PTR [ebx+112]
; File C:\Program Files (x86)\Microsoft Visual Studio\2019\Community\VC\Tools\MSVC\14.29.30133\atlmfc\include\cstringt.h

; 2416 : 		return( strResult );

  00755	81 cf 00 10 00
	00		 or	 edi, 4096		; 00001000H
  0075b	89 7d e8	 mov	 DWORD PTR $T39[ebp], edi
  0075e	ff 70 f4	 push	 DWORD PTR [eax-12]
  00761	50		 push	 eax
  00762	6a 11		 push	 17			; 00000011H
  00764	8d 45 e0	 lea	 eax, DWORD PTR $T29[ebp]
  00767	68 00 00 00 00	 push	 OFFSET ??_C@_0BC@DJOHDNOJ@VertScaleGroup?$DL?$AN?6@
  0076c	50		 push	 eax
  0076d	ff 15 00 00 00
	00		 call	 DWORD PTR __imp_?Concatenate@?$CSimpleStringT@D$00@ATL@@KAXAAV12@PBDH1H@Z
  00773	83 c4 14	 add	 esp, 20			; 00000014H

; 2390 : 		CStringT strResult( str1.GetManager() );

  00776	8d 4d e0	 lea	 ecx, DWORD PTR $T29[ebp]
; File D:\git\src\IBK\IBK_DRFN\ProjSrc\SrcChartEx\ChartOCX\AddInManager\ChartCommonAddIn\SimpleCompareChartAddInImp.cpp

; 247  : 		strBlock = _VERT_SCALE_GROUP_HEADER + m_strVertScaleGroupInfo + strBlock + _VERT_SCALE_GROUP_FOOTER;

  00779	c6 45 fc 1e	 mov	 BYTE PTR __$EHRec$[ebp+8], 30 ; 0000001eH
; File C:\Program Files (x86)\Microsoft Visual Studio\2019\Community\VC\Tools\MSVC\14.29.30133\atlmfc\include\cstringt.h

; 2390 : 		CStringT strResult( str1.GetManager() );

  0077d	ff 15 00 00 00
	00		 call	 DWORD PTR __imp_?GetManager@?$CStringT@DV?$StrTraitMFC_DLL@DV?$ChTraitsCRT@D@ATL@@@@@ATL@@QBEPAUIAtlStringMgr@2@XZ
  00783	50		 push	 eax
  00784	8d 4d f0	 lea	 ecx, DWORD PTR $T50[ebp]
  00787	ff 15 00 00 00
	00		 call	 DWORD PTR __imp_??0?$CStringT@DV?$StrTraitMFC_DLL@DV?$ChTraitsCRT@D@ATL@@@@@ATL@@QAE@PAUIAtlStringMgr@1@@Z
; File C:\Program Files (x86)\Microsoft Visual Studio\2019\Community\VC\Tools\MSVC\14.29.30133\atlmfc\include\atlsimpstr.h

; 519  : 		return( GetData()->nDataLength );

  0078d	8b 45 ec	 mov	 eax, DWORD PTR _strBlock$42[ebp]
; File C:\Program Files (x86)\Microsoft Visual Studio\2019\Community\VC\Tools\MSVC\14.29.30133\atlmfc\include\cstringt.h

; 2394 : 		return( strResult );

  00790	81 cf 00 20 00
	00		 or	 edi, 8192		; 00002000H
; File C:\Program Files (x86)\Microsoft Visual Studio\2019\Community\VC\Tools\MSVC\14.29.30133\atlmfc\include\atlsimpstr.h

; 519  : 		return( GetData()->nDataLength );

  00796	8b 4d e0	 mov	 ecx, DWORD PTR $T29[ebp]
; File C:\Program Files (x86)\Microsoft Visual Studio\2019\Community\VC\Tools\MSVC\14.29.30133\atlmfc\include\cstringt.h

; 2394 : 		return( strResult );

  00799	89 7d e8	 mov	 DWORD PTR $T39[ebp], edi
  0079c	ff 70 f4	 push	 DWORD PTR [eax-12]
  0079f	50		 push	 eax
  007a0	ff 71 f4	 push	 DWORD PTR [ecx-12]
  007a3	8d 45 f0	 lea	 eax, DWORD PTR $T50[ebp]
  007a6	51		 push	 ecx
  007a7	50		 push	 eax
  007a8	ff 15 00 00 00
	00		 call	 DWORD PTR __imp_?Concatenate@?$CSimpleStringT@D$00@ATL@@KAXAAV12@PBDH1H@Z
  007ae	83 c4 14	 add	 esp, 20			; 00000014H

; 2401 : 		CStringT strResult( str1.GetManager() );

  007b1	8d 4d f0	 lea	 ecx, DWORD PTR $T50[ebp]
; File D:\git\src\IBK\IBK_DRFN\ProjSrc\SrcChartEx\ChartOCX\AddInManager\ChartCommonAddIn\SimpleCompareChartAddInImp.cpp

; 247  : 		strBlock = _VERT_SCALE_GROUP_HEADER + m_strVertScaleGroupInfo + strBlock + _VERT_SCALE_GROUP_FOOTER;

  007b4	c6 45 fc 1f	 mov	 BYTE PTR __$EHRec$[ebp+8], 31 ; 0000001fH
; File C:\Program Files (x86)\Microsoft Visual Studio\2019\Community\VC\Tools\MSVC\14.29.30133\atlmfc\include\cstringt.h

; 2401 : 		CStringT strResult( str1.GetManager() );

  007b8	ff 15 00 00 00
	00		 call	 DWORD PTR __imp_?GetManager@?$CStringT@DV?$StrTraitMFC_DLL@DV?$ChTraitsCRT@D@ATL@@@@@ATL@@QBEPAUIAtlStringMgr@2@XZ
  007be	50		 push	 eax
  007bf	8d 4d e4	 lea	 ecx, DWORD PTR $T36[ebp]
  007c2	ff 15 00 00 00
	00		 call	 DWORD PTR __imp_??0?$CStringT@DV?$StrTraitMFC_DLL@DV?$ChTraitsCRT@D@ATL@@@@@ATL@@QAE@PAUIAtlStringMgr@1@@Z
; File C:\Program Files (x86)\Microsoft Visual Studio\2019\Community\VC\Tools\MSVC\14.29.30133\atlmfc\include\atlsimpstr.h

; 519  : 		return( GetData()->nDataLength );

  007c8	8b 45 f0	 mov	 eax, DWORD PTR $T50[ebp]
; File C:\Program Files (x86)\Microsoft Visual Studio\2019\Community\VC\Tools\MSVC\14.29.30133\atlmfc\include\cstringt.h

; 2405 : 		return( strResult );

  007cb	81 cf 00 40 00
	00		 or	 edi, 16384		; 00004000H
  007d1	6a 14		 push	 20			; 00000014H
  007d3	68 00 00 00 00	 push	 OFFSET ??_C@_0BF@DDJNMPKE@VertScaleGroupEnd?$DL?$AN?6@
  007d8	89 7d e8	 mov	 DWORD PTR $T39[ebp], edi
  007db	ff 70 f4	 push	 DWORD PTR [eax-12]
  007de	50		 push	 eax
  007df	8d 45 e4	 lea	 eax, DWORD PTR $T36[ebp]
  007e2	50		 push	 eax
  007e3	ff 15 00 00 00
	00		 call	 DWORD PTR __imp_?Concatenate@?$CSimpleStringT@D$00@ATL@@KAXAAV12@PBDH1H@Z
  007e9	83 c4 14	 add	 esp, 20			; 00000014H
; File D:\git\src\IBK\IBK_DRFN\ProjSrc\SrcChartEx\ChartOCX\AddInManager\ChartCommonAddIn\SimpleCompareChartAddInImp.cpp

; 247  : 		strBlock = _VERT_SCALE_GROUP_HEADER + m_strVertScaleGroupInfo + strBlock + _VERT_SCALE_GROUP_FOOTER;

  007ec	8d 45 e4	 lea	 eax, DWORD PTR $T36[ebp]
  007ef	8d 4d ec	 lea	 ecx, DWORD PTR _strBlock$42[ebp]
  007f2	50		 push	 eax
  007f3	ff 15 00 00 00
	00		 call	 DWORD PTR __imp_??4?$CStringT@DV?$StrTraitMFC_DLL@DV?$ChTraitsCRT@D@ATL@@@@@ATL@@QAEAAV01@ABV01@@Z
  007f9	8d 4d e4	 lea	 ecx, DWORD PTR $T36[ebp]
  007fc	81 e7 ff bf ff
	ff		 and	 edi, -16385		; ffffbfffH
  00802	ff 15 00 00 00
	00		 call	 DWORD PTR __imp_??1?$CStringT@DV?$StrTraitMFC_DLL@DV?$ChTraitsCRT@D@ATL@@@@@ATL@@QAE@XZ
  00808	8d 4d f0	 lea	 ecx, DWORD PTR $T50[ebp]
  0080b	81 e7 ff df ff
	ff		 and	 edi, -8193		; ffffdfffH
  00811	ff 15 00 00 00
	00		 call	 DWORD PTR __imp_??1?$CStringT@DV?$StrTraitMFC_DLL@DV?$ChTraitsCRT@D@ATL@@@@@ATL@@QAE@XZ
  00817	8d 4d e0	 lea	 ecx, DWORD PTR $T29[ebp]
  0081a	c6 45 fc 1b	 mov	 BYTE PTR __$EHRec$[ebp+8], 27 ; 0000001bH
  0081e	81 e7 ff ef ff
	ff		 and	 edi, -4097		; ffffefffH
  00824	ff 15 00 00 00
	00		 call	 DWORD PTR __imp_??1?$CStringT@DV?$StrTraitMFC_DLL@DV?$ChTraitsCRT@D@ATL@@@@@ATL@@QAE@XZ

; 248  : 		slBlock.AddTail( strBlock);

  0082a	8d 45 ec	 lea	 eax, DWORD PTR _strBlock$42[ebp]
  0082d	50		 push	 eax
  0082e	8d 4d 8c	 lea	 ecx, DWORD PTR _slBlock$[ebp]
  00831	e8 00 00 00 00	 call	 ?AddTail@CStringList@@QAEPAU__POSITION@@ABV?$CStringT@DV?$StrTraitMFC_DLL@DV?$ChTraitsCRT@D@ATL@@@@@ATL@@@Z ; CStringList::AddTail

; 249  : 	}

  00836	8d 4d ec	 lea	 ecx, DWORD PTR _strBlock$42[ebp]
  00839	ff 15 00 00 00
	00		 call	 DWORD PTR __imp_??1?$CStringT@DV?$StrTraitMFC_DLL@DV?$ChTraitsCRT@D@ATL@@@@@ATL@@QAE@XZ
  0083f	e9 3d 01 00 00	 jmp	 $LN9@GenerateAn
$LN22@GenerateAn:

; 250  : 	else	// Simple and Overlay
; 251  : 	{
; 252  : 		POSITION psnVertScaleGroup = slVertScaleGroupList.GetHeadPosition();

  00844	8b 85 74 ff ff
	ff		 mov	 eax, DWORD PTR _slVertScaleGroupList$[ebp+4]
  0084a	85 c0		 test	 eax, eax

; 253  : 		while( psnVertScaleGroup)

  0084c	0f 84 2f 01 00
	00		 je	 $LN9@GenerateAn
$LL8@GenerateAn:
; File C:\Program Files (x86)\Microsoft Visual Studio\2019\Community\VC\Tools\MSVC\14.29.30133\atlmfc\include\afxcoll.inl

; 501  : 	{ CNode* pNode = (CNode*) rPosition;

  00852	8b c8		 mov	 ecx, eax

; 502  : 		ASSERT(AfxIsValidAddress(pNode, sizeof(CNode)));
; 503  : 		if( pNode == NULL )

  00854	85 c0		 test	 eax, eax
  00856	0f 84 78 06 00
	00		 je	 $LN597@GenerateAn

; 505  : 		rPosition = (POSITION) pNode->pNext;

  0085c	8b 00		 mov	 eax, DWORD PTR [eax]
  0085e	89 45 d0	 mov	 DWORD PTR _psnVertScaleGroup$1$[ebp], eax

; 506  : 		return pNode->data; }

  00861	8d 41 08	 lea	 eax, DWORD PTR [ecx+8]
; File D:\git\src\IBK\IBK_DRFN\ProjSrc\SrcChartEx\ChartOCX\AddInManager\ChartCommonAddIn\SimpleCompareChartAddInImp.cpp

; 255  : 			CString strVertScaleGroup = slVertScaleGroupList.GetNext( psnVertScaleGroup);

  00864	50		 push	 eax
  00865	8d 4d dc	 lea	 ecx, DWORD PTR _strVertScaleGroup$23[ebp]
  00868	ff 15 00 00 00
	00		 call	 DWORD PTR __imp_??0?$CStringT@DV?$StrTraitMFC_DLL@DV?$ChTraitsCRT@D@ATL@@@@@ATL@@QAE@ABV01@@Z
; File C:\Program Files (x86)\Microsoft Visual Studio\2019\Community\VC\Tools\MSVC\14.29.30133\atlmfc\include\cstringt.h

; 2412 : 		CStringT strResult( str2.GetManager() );

  0086e	8d 4b 70	 lea	 ecx, DWORD PTR [ebx+112]
; File D:\git\src\IBK\IBK_DRFN\ProjSrc\SrcChartEx\ChartOCX\AddInManager\ChartCommonAddIn\SimpleCompareChartAddInImp.cpp

; 256  : 			strVertScaleGroup = _VERT_SCALE_GROUP_HEADER + m_strVertScaleGroupInfo + strVertScaleGroup + _VERT_SCALE_GROUP_FOOTER;

  00871	c6 45 fc 21	 mov	 BYTE PTR __$EHRec$[ebp+8], 33 ; 00000021H
; File C:\Program Files (x86)\Microsoft Visual Studio\2019\Community\VC\Tools\MSVC\14.29.30133\atlmfc\include\cstringt.h

; 2412 : 		CStringT strResult( str2.GetManager() );

  00875	ff 15 00 00 00
	00		 call	 DWORD PTR __imp_?GetManager@?$CStringT@DV?$StrTraitMFC_DLL@DV?$ChTraitsCRT@D@ATL@@@@@ATL@@QBEPAUIAtlStringMgr@2@XZ
  0087b	50		 push	 eax
  0087c	8d 4d e0	 lea	 ecx, DWORD PTR $T28[ebp]
  0087f	ff 15 00 00 00
	00		 call	 DWORD PTR __imp_??0?$CStringT@DV?$StrTraitMFC_DLL@DV?$ChTraitsCRT@D@ATL@@@@@ATL@@QAE@PAUIAtlStringMgr@1@@Z
; File C:\Program Files (x86)\Microsoft Visual Studio\2019\Community\VC\Tools\MSVC\14.29.30133\atlmfc\include\atlsimpstr.h

; 519  : 		return( GetData()->nDataLength );

  00885	8b 43 70	 mov	 eax, DWORD PTR [ebx+112]
; File C:\Program Files (x86)\Microsoft Visual Studio\2019\Community\VC\Tools\MSVC\14.29.30133\atlmfc\include\cstringt.h

; 2416 : 		return( strResult );

  00888	81 cf 00 80 00
	00		 or	 edi, 32768		; 00008000H
  0088e	89 7d e8	 mov	 DWORD PTR $T39[ebp], edi
  00891	ff 70 f4	 push	 DWORD PTR [eax-12]
  00894	50		 push	 eax
  00895	6a 11		 push	 17			; 00000011H
  00897	8d 45 e0	 lea	 eax, DWORD PTR $T28[ebp]
  0089a	68 00 00 00 00	 push	 OFFSET ??_C@_0BC@DJOHDNOJ@VertScaleGroup?$DL?$AN?6@
  0089f	50		 push	 eax
  008a0	ff 15 00 00 00
	00		 call	 DWORD PTR __imp_?Concatenate@?$CSimpleStringT@D$00@ATL@@KAXAAV12@PBDH1H@Z
  008a6	83 c4 14	 add	 esp, 20			; 00000014H

; 2390 : 		CStringT strResult( str1.GetManager() );

  008a9	8d 4d e0	 lea	 ecx, DWORD PTR $T28[ebp]
; File D:\git\src\IBK\IBK_DRFN\ProjSrc\SrcChartEx\ChartOCX\AddInManager\ChartCommonAddIn\SimpleCompareChartAddInImp.cpp

; 256  : 			strVertScaleGroup = _VERT_SCALE_GROUP_HEADER + m_strVertScaleGroupInfo + strVertScaleGroup + _VERT_SCALE_GROUP_FOOTER;

  008ac	c6 45 fc 22	 mov	 BYTE PTR __$EHRec$[ebp+8], 34 ; 00000022H
; File C:\Program Files (x86)\Microsoft Visual Studio\2019\Community\VC\Tools\MSVC\14.29.30133\atlmfc\include\cstringt.h

; 2390 : 		CStringT strResult( str1.GetManager() );

  008b0	ff 15 00 00 00
	00		 call	 DWORD PTR __imp_?GetManager@?$CStringT@DV?$StrTraitMFC_DLL@DV?$ChTraitsCRT@D@ATL@@@@@ATL@@QBEPAUIAtlStringMgr@2@XZ
  008b6	50		 push	 eax
  008b7	8d 4d f0	 lea	 ecx, DWORD PTR $T49[ebp]
  008ba	ff 15 00 00 00
	00		 call	 DWORD PTR __imp_??0?$CStringT@DV?$StrTraitMFC_DLL@DV?$ChTraitsCRT@D@ATL@@@@@ATL@@QAE@PAUIAtlStringMgr@1@@Z
; File C:\Program Files (x86)\Microsoft Visual Studio\2019\Community\VC\Tools\MSVC\14.29.30133\atlmfc\include\atlsimpstr.h

; 519  : 		return( GetData()->nDataLength );

  008c0	8b 45 dc	 mov	 eax, DWORD PTR _strVertScaleGroup$23[ebp]
; File C:\Program Files (x86)\Microsoft Visual Studio\2019\Community\VC\Tools\MSVC\14.29.30133\atlmfc\include\cstringt.h

; 2394 : 		return( strResult );

  008c3	81 cf 00 00 01
	00		 or	 edi, 65536		; 00010000H
; File C:\Program Files (x86)\Microsoft Visual Studio\2019\Community\VC\Tools\MSVC\14.29.30133\atlmfc\include\atlsimpstr.h

; 519  : 		return( GetData()->nDataLength );

  008c9	8b 4d e0	 mov	 ecx, DWORD PTR $T28[ebp]
; File C:\Program Files (x86)\Microsoft Visual Studio\2019\Community\VC\Tools\MSVC\14.29.30133\atlmfc\include\cstringt.h

; 2394 : 		return( strResult );

  008cc	89 7d e8	 mov	 DWORD PTR $T39[ebp], edi
  008cf	ff 70 f4	 push	 DWORD PTR [eax-12]
  008d2	50		 push	 eax
  008d3	ff 71 f4	 push	 DWORD PTR [ecx-12]
  008d6	8d 45 f0	 lea	 eax, DWORD PTR $T49[ebp]
  008d9	51		 push	 ecx
  008da	50		 push	 eax
  008db	ff 15 00 00 00
	00		 call	 DWORD PTR __imp_?Concatenate@?$CSimpleStringT@D$00@ATL@@KAXAAV12@PBDH1H@Z
  008e1	83 c4 14	 add	 esp, 20			; 00000014H

; 2401 : 		CStringT strResult( str1.GetManager() );

  008e4	8d 4d f0	 lea	 ecx, DWORD PTR $T49[ebp]
; File D:\git\src\IBK\IBK_DRFN\ProjSrc\SrcChartEx\ChartOCX\AddInManager\ChartCommonAddIn\SimpleCompareChartAddInImp.cpp

; 256  : 			strVertScaleGroup = _VERT_SCALE_GROUP_HEADER + m_strVertScaleGroupInfo + strVertScaleGroup + _VERT_SCALE_GROUP_FOOTER;

  008e7	c6 45 fc 23	 mov	 BYTE PTR __$EHRec$[ebp+8], 35 ; 00000023H
; File C:\Program Files (x86)\Microsoft Visual Studio\2019\Community\VC\Tools\MSVC\14.29.30133\atlmfc\include\cstringt.h

; 2401 : 		CStringT strResult( str1.GetManager() );

  008eb	ff 15 00 00 00
	00		 call	 DWORD PTR __imp_?GetManager@?$CStringT@DV?$StrTraitMFC_DLL@DV?$ChTraitsCRT@D@ATL@@@@@ATL@@QBEPAUIAtlStringMgr@2@XZ
  008f1	50		 push	 eax
  008f2	8d 4d e4	 lea	 ecx, DWORD PTR $T35[ebp]
  008f5	ff 15 00 00 00
	00		 call	 DWORD PTR __imp_??0?$CStringT@DV?$StrTraitMFC_DLL@DV?$ChTraitsCRT@D@ATL@@@@@ATL@@QAE@PAUIAtlStringMgr@1@@Z
; File C:\Program Files (x86)\Microsoft Visual Studio\2019\Community\VC\Tools\MSVC\14.29.30133\atlmfc\include\atlsimpstr.h

; 519  : 		return( GetData()->nDataLength );

  008fb	8b 45 f0	 mov	 eax, DWORD PTR $T49[ebp]
; File C:\Program Files (x86)\Microsoft Visual Studio\2019\Community\VC\Tools\MSVC\14.29.30133\atlmfc\include\cstringt.h

; 2405 : 		return( strResult );

  008fe	81 cf 00 00 02
	00		 or	 edi, 131072		; 00020000H
  00904	6a 14		 push	 20			; 00000014H
  00906	68 00 00 00 00	 push	 OFFSET ??_C@_0BF@DDJNMPKE@VertScaleGroupEnd?$DL?$AN?6@
  0090b	89 7d e8	 mov	 DWORD PTR $T39[ebp], edi
  0090e	ff 70 f4	 push	 DWORD PTR [eax-12]
  00911	50		 push	 eax
  00912	8d 45 e4	 lea	 eax, DWORD PTR $T35[ebp]
  00915	50		 push	 eax
  00916	ff 15 00 00 00
	00		 call	 DWORD PTR __imp_?Concatenate@?$CSimpleStringT@D$00@ATL@@KAXAAV12@PBDH1H@Z
  0091c	83 c4 14	 add	 esp, 20			; 00000014H
; File D:\git\src\IBK\IBK_DRFN\ProjSrc\SrcChartEx\ChartOCX\AddInManager\ChartCommonAddIn\SimpleCompareChartAddInImp.cpp

; 256  : 			strVertScaleGroup = _VERT_SCALE_GROUP_HEADER + m_strVertScaleGroupInfo + strVertScaleGroup + _VERT_SCALE_GROUP_FOOTER;

  0091f	8d 45 e4	 lea	 eax, DWORD PTR $T35[ebp]
  00922	8d 4d dc	 lea	 ecx, DWORD PTR _strVertScaleGroup$23[ebp]
  00925	50		 push	 eax
  00926	ff 15 00 00 00
	00		 call	 DWORD PTR __imp_??4?$CStringT@DV?$StrTraitMFC_DLL@DV?$ChTraitsCRT@D@ATL@@@@@ATL@@QAEAAV01@ABV01@@Z
  0092c	8d 4d e4	 lea	 ecx, DWORD PTR $T35[ebp]
  0092f	81 e7 ff ff fd
	ff		 and	 edi, -131073		; fffdffffH
  00935	ff 15 00 00 00
	00		 call	 DWORD PTR __imp_??1?$CStringT@DV?$StrTraitMFC_DLL@DV?$ChTraitsCRT@D@ATL@@@@@ATL@@QAE@XZ
  0093b	8d 4d f0	 lea	 ecx, DWORD PTR $T49[ebp]
  0093e	81 e7 ff ff fe
	ff		 and	 edi, -65537		; fffeffffH
  00944	ff 15 00 00 00
	00		 call	 DWORD PTR __imp_??1?$CStringT@DV?$StrTraitMFC_DLL@DV?$ChTraitsCRT@D@ATL@@@@@ATL@@QAE@XZ
  0094a	8d 4d e0	 lea	 ecx, DWORD PTR $T28[ebp]
  0094d	c6 45 fc 20	 mov	 BYTE PTR __$EHRec$[ebp+8], 32 ; 00000020H
  00951	81 e7 ff 7f ff
	ff		 and	 edi, -32769		; ffff7fffH
  00957	ff 15 00 00 00
	00		 call	 DWORD PTR __imp_??1?$CStringT@DV?$StrTraitMFC_DLL@DV?$ChTraitsCRT@D@ATL@@@@@ATL@@QAE@XZ

; 257  : 			slBlock.AddTail( strVertScaleGroup);

  0095d	8d 45 dc	 lea	 eax, DWORD PTR _strVertScaleGroup$23[ebp]
  00960	50		 push	 eax
  00961	8d 4d 8c	 lea	 ecx, DWORD PTR _slBlock$[ebp]
  00964	e8 00 00 00 00	 call	 ?AddTail@CStringList@@QAEPAU__POSITION@@ABV?$CStringT@DV?$StrTraitMFC_DLL@DV?$ChTraitsCRT@D@ATL@@@@@ATL@@@Z ; CStringList::AddTail

; 258  : 		}

  00969	c6 45 fc 1a	 mov	 BYTE PTR __$EHRec$[ebp+8], 26 ; 0000001aH
  0096d	8d 4d dc	 lea	 ecx, DWORD PTR _strVertScaleGroup$23[ebp]
  00970	ff 15 00 00 00
	00		 call	 DWORD PTR __imp_??1?$CStringT@DV?$StrTraitMFC_DLL@DV?$ChTraitsCRT@D@ATL@@@@@ATL@@QAE@XZ
  00976	8b 45 d0	 mov	 eax, DWORD PTR _psnVertScaleGroup$1$[ebp]
  00979	85 c0		 test	 eax, eax
  0097b	0f 85 d1 fe ff
	ff		 jne	 $LL8@GenerateAn
$LN9@GenerateAn:

; 259  : 	}
; 260  : 
; 261  : 	// 2. Devide to each Block Info.
; 262  : 	CString strChartList;

  00981	8d 4d c8	 lea	 ecx, DWORD PTR _strChartList$[ebp]
  00984	ff 15 00 00 00
	00		 call	 DWORD PTR __imp_??0?$CStringT@DV?$StrTraitMFC_DLL@DV?$ChTraitsCRT@D@ATL@@@@@ATL@@QAE@XZ

; 263  : 	if( m_nChartCompareType == 1)	// Simple

  0098a	83 7b 60 01	 cmp	 DWORD PTR [ebx+96], 1
  0098e	c6 45 fc 24	 mov	 BYTE PTR __$EHRec$[ebp+8], 36 ; 00000024H
  00992	0f 85 5a 02 00
	00		 jne	 $LN24@GenerateAn

; 264  : 	{
; 265  : 		int	nRowCount = slBlock.GetCount();

  00998	8b 45 98	 mov	 eax, DWORD PTR _slBlock$[ebp+12]

; 266  : 		int i = 0;

  0099b	33 f6		 xor	 esi, esi
  0099d	89 45 d0	 mov	 DWORD PTR _nRowCount$1$[ebp], eax

; 267  : 		POSITION psnBlock = slBlock.GetHeadPosition();

  009a0	8b 45 90	 mov	 eax, DWORD PTR _slBlock$[ebp+4]
  009a3	85 c0		 test	 eax, eax

; 268  : 		while( psnBlock)

  009a5	0f 84 35 02 00
	00		 je	 $LN11@GenerateAn
  009ab	0f 1f 44 00 00	 npad	 5
$LL10@GenerateAn:
; File C:\Program Files (x86)\Microsoft Visual Studio\2019\Community\VC\Tools\MSVC\14.29.30133\atlmfc\include\afxcoll.inl

; 501  : 	{ CNode* pNode = (CNode*) rPosition;

  009b0	8b c8		 mov	 ecx, eax

; 502  : 		ASSERT(AfxIsValidAddress(pNode, sizeof(CNode)));
; 503  : 		if( pNode == NULL )

  009b2	85 c0		 test	 eax, eax
  009b4	0f 84 1a 05 00
	00		 je	 $LN597@GenerateAn

; 505  : 		rPosition = (POSITION) pNode->pNext;

  009ba	8b 00		 mov	 eax, DWORD PTR [eax]
  009bc	89 45 a8	 mov	 DWORD PTR _psnBlock$1$[ebp], eax

; 506  : 		return pNode->data; }

  009bf	8d 41 08	 lea	 eax, DWORD PTR [ecx+8]
; File D:\git\src\IBK\IBK_DRFN\ProjSrc\SrcChartEx\ChartOCX\AddInManager\ChartCommonAddIn\SimpleCompareChartAddInImp.cpp

; 270  : 			CString strBlock = slBlock.GetNext( psnBlock);

  009c2	50		 push	 eax
  009c3	8d 4d d8	 lea	 ecx, DWORD PTR _strBlock$19[ebp]
  009c6	ff 15 00 00 00
	00		 call	 DWORD PTR __imp_??0?$CStringT@DV?$StrTraitMFC_DLL@DV?$ChTraitsCRT@D@ATL@@@@@ATL@@QAE@ABV01@@Z

; 271  : 			CString strBlockInfo;

  009cc	8d 4d ec	 lea	 ecx, DWORD PTR _strBlockInfo$41[ebp]
  009cf	ff 15 00 00 00
	00		 call	 DWORD PTR __imp_??0?$CStringT@DV?$StrTraitMFC_DLL@DV?$ChTraitsCRT@D@ATL@@@@@ATL@@QAE@XZ

; 272  : 			int nBlockInfo2 = 3;
; 273  : 			i++;

  009d5	46		 inc	 esi
  009d6	c6 45 fc 26	 mov	 BYTE PTR __$EHRec$[ebp+8], 38 ; 00000026H
  009da	89 75 bc	 mov	 DWORD PTR _i$1$[ebp], esi
  009dd	b8 03 00 00 00	 mov	 eax, 3

; 274  : 			if( 1 == i && ( 0 == m_nBlockInfo2 || 2 == m_nBlockInfo2)) nBlockInfo2 = 0;

  009e2	83 fe 01	 cmp	 esi, 1
  009e5	75 0e		 jne	 SHORT $LN26@GenerateAn
  009e7	8b 4b 68	 mov	 ecx, DWORD PTR [ebx+104]
  009ea	85 c9		 test	 ecx, ecx
  009ec	74 05		 je	 SHORT $LN27@GenerateAn
  009ee	83 f9 02	 cmp	 ecx, 2
  009f1	75 02		 jne	 SHORT $LN26@GenerateAn
$LN27@GenerateAn:
  009f3	33 c0		 xor	 eax, eax
$LN26@GenerateAn:

; 275  : 			if( i == nRowCount  && ( 1 == m_nBlockInfo2 || 2 == m_nBlockInfo2)) nBlockInfo2 = 1;

  009f5	3b 75 d0	 cmp	 esi, DWORD PTR _nRowCount$1$[ebp]
  009f8	75 12		 jne	 SHORT $LN28@GenerateAn
  009fa	8b 4b 68	 mov	 ecx, DWORD PTR [ebx+104]
  009fd	83 f9 01	 cmp	 ecx, 1
  00a00	74 05		 je	 SHORT $LN29@GenerateAn
  00a02	83 f9 02	 cmp	 ecx, 2
  00a05	75 05		 jne	 SHORT $LN28@GenerateAn
$LN29@GenerateAn:
  00a07	b8 01 00 00 00	 mov	 eax, 1
$LN28@GenerateAn:

; 276  : 			strBlockInfo.Format( "%d", nBlockInfo2);

  00a0c	50		 push	 eax
  00a0d	8d 45 ec	 lea	 eax, DWORD PTR _strBlockInfo$41[ebp]
  00a10	68 00 00 00 00	 push	 OFFSET ??_C@_02DPKJAMEF@?$CFd@
  00a15	50		 push	 eax
  00a16	ff 15 00 00 00
	00		 call	 DWORD PTR __imp_?Format@?$CStringT@DV?$StrTraitMFC_DLL@DV?$ChTraitsCRT@D@ATL@@@@@ATL@@QAAXPBDZZ
  00a1c	83 c4 0c	 add	 esp, 12			; 0000000cH
; File C:\Program Files (x86)\Microsoft Visual Studio\2019\Community\VC\Tools\MSVC\14.29.30133\atlmfc\include\cstringt.h

; 2390 : 		CStringT strResult( str1.GetManager() );

  00a1f	8d 4b 64	 lea	 ecx, DWORD PTR [ebx+100]
; File D:\git\src\IBK\IBK_DRFN\ProjSrc\SrcChartEx\ChartOCX\AddInManager\ChartCommonAddIn\SimpleCompareChartAddInImp.cpp

; 277  : 			strBlockInfo = m_strBlockInfo1 + strBlockInfo + m_strBlockInfo3;

  00a22	c6 45 fc 27	 mov	 BYTE PTR __$EHRec$[ebp+8], 39 ; 00000027H
; File C:\Program Files (x86)\Microsoft Visual Studio\2019\Community\VC\Tools\MSVC\14.29.30133\atlmfc\include\cstringt.h

; 2390 : 		CStringT strResult( str1.GetManager() );

  00a26	ff 15 00 00 00
	00		 call	 DWORD PTR __imp_?GetManager@?$CStringT@DV?$StrTraitMFC_DLL@DV?$ChTraitsCRT@D@ATL@@@@@ATL@@QBEPAUIAtlStringMgr@2@XZ
  00a2c	50		 push	 eax
  00a2d	8d 4d f0	 lea	 ecx, DWORD PTR $T48[ebp]
  00a30	ff 15 00 00 00
	00		 call	 DWORD PTR __imp_??0?$CStringT@DV?$StrTraitMFC_DLL@DV?$ChTraitsCRT@D@ATL@@@@@ATL@@QAE@PAUIAtlStringMgr@1@@Z
; File C:\Program Files (x86)\Microsoft Visual Studio\2019\Community\VC\Tools\MSVC\14.29.30133\atlmfc\include\atlsimpstr.h

; 519  : 		return( GetData()->nDataLength );

  00a36	8b 45 ec	 mov	 eax, DWORD PTR _strBlockInfo$41[ebp]
; File C:\Program Files (x86)\Microsoft Visual Studio\2019\Community\VC\Tools\MSVC\14.29.30133\atlmfc\include\cstringt.h

; 2394 : 		return( strResult );

  00a39	81 cf 00 00 04
	00		 or	 edi, 262144		; 00040000H
; File C:\Program Files (x86)\Microsoft Visual Studio\2019\Community\VC\Tools\MSVC\14.29.30133\atlmfc\include\atlsimpstr.h

; 519  : 		return( GetData()->nDataLength );

  00a3f	8b 4b 64	 mov	 ecx, DWORD PTR [ebx+100]
; File C:\Program Files (x86)\Microsoft Visual Studio\2019\Community\VC\Tools\MSVC\14.29.30133\atlmfc\include\cstringt.h

; 2394 : 		return( strResult );

  00a42	89 7d e8	 mov	 DWORD PTR $T39[ebp], edi
  00a45	ff 70 f4	 push	 DWORD PTR [eax-12]
  00a48	50		 push	 eax
  00a49	ff 71 f4	 push	 DWORD PTR [ecx-12]
  00a4c	8d 45 f0	 lea	 eax, DWORD PTR $T48[ebp]
  00a4f	51		 push	 ecx
  00a50	50		 push	 eax
  00a51	ff 15 00 00 00
	00		 call	 DWORD PTR __imp_?Concatenate@?$CSimpleStringT@D$00@ATL@@KAXAAV12@PBDH1H@Z
  00a57	83 c4 14	 add	 esp, 20			; 00000014H

; 2390 : 		CStringT strResult( str1.GetManager() );

  00a5a	8d 4d f0	 lea	 ecx, DWORD PTR $T48[ebp]
; File D:\git\src\IBK\IBK_DRFN\ProjSrc\SrcChartEx\ChartOCX\AddInManager\ChartCommonAddIn\SimpleCompareChartAddInImp.cpp

; 277  : 			strBlockInfo = m_strBlockInfo1 + strBlockInfo + m_strBlockInfo3;

  00a5d	c6 45 fc 28	 mov	 BYTE PTR __$EHRec$[ebp+8], 40 ; 00000028H
; File C:\Program Files (x86)\Microsoft Visual Studio\2019\Community\VC\Tools\MSVC\14.29.30133\atlmfc\include\cstringt.h

; 2390 : 		CStringT strResult( str1.GetManager() );

  00a61	ff 15 00 00 00
	00		 call	 DWORD PTR __imp_?GetManager@?$CStringT@DV?$StrTraitMFC_DLL@DV?$ChTraitsCRT@D@ATL@@@@@ATL@@QBEPAUIAtlStringMgr@2@XZ
  00a67	50		 push	 eax
  00a68	8d 4d e4	 lea	 ecx, DWORD PTR $T34[ebp]
  00a6b	ff 15 00 00 00
	00		 call	 DWORD PTR __imp_??0?$CStringT@DV?$StrTraitMFC_DLL@DV?$ChTraitsCRT@D@ATL@@@@@ATL@@QAE@PAUIAtlStringMgr@1@@Z
; File C:\Program Files (x86)\Microsoft Visual Studio\2019\Community\VC\Tools\MSVC\14.29.30133\atlmfc\include\atlsimpstr.h

; 519  : 		return( GetData()->nDataLength );

  00a71	8b 4b 6c	 mov	 ecx, DWORD PTR [ebx+108]
; File C:\Program Files (x86)\Microsoft Visual Studio\2019\Community\VC\Tools\MSVC\14.29.30133\atlmfc\include\cstringt.h

; 2394 : 		return( strResult );

  00a74	81 cf 00 00 08
	00		 or	 edi, 524288		; 00080000H
; File C:\Program Files (x86)\Microsoft Visual Studio\2019\Community\VC\Tools\MSVC\14.29.30133\atlmfc\include\atlsimpstr.h

; 519  : 		return( GetData()->nDataLength );

  00a7a	8b 45 f0	 mov	 eax, DWORD PTR $T48[ebp]
; File C:\Program Files (x86)\Microsoft Visual Studio\2019\Community\VC\Tools\MSVC\14.29.30133\atlmfc\include\cstringt.h

; 2394 : 		return( strResult );

  00a7d	89 7d e8	 mov	 DWORD PTR $T39[ebp], edi
  00a80	ff 71 f4	 push	 DWORD PTR [ecx-12]
  00a83	51		 push	 ecx
  00a84	ff 70 f4	 push	 DWORD PTR [eax-12]
  00a87	50		 push	 eax
  00a88	8d 45 e4	 lea	 eax, DWORD PTR $T34[ebp]
  00a8b	50		 push	 eax
  00a8c	ff 15 00 00 00
	00		 call	 DWORD PTR __imp_?Concatenate@?$CSimpleStringT@D$00@ATL@@KAXAAV12@PBDH1H@Z
  00a92	83 c4 14	 add	 esp, 20			; 00000014H
; File D:\git\src\IBK\IBK_DRFN\ProjSrc\SrcChartEx\ChartOCX\AddInManager\ChartCommonAddIn\SimpleCompareChartAddInImp.cpp

; 277  : 			strBlockInfo = m_strBlockInfo1 + strBlockInfo + m_strBlockInfo3;

  00a95	8d 45 e4	 lea	 eax, DWORD PTR $T34[ebp]
  00a98	8d 4d ec	 lea	 ecx, DWORD PTR _strBlockInfo$41[ebp]
  00a9b	50		 push	 eax
  00a9c	ff 15 00 00 00
	00		 call	 DWORD PTR __imp_??4?$CStringT@DV?$StrTraitMFC_DLL@DV?$ChTraitsCRT@D@ATL@@@@@ATL@@QAEAAV01@ABV01@@Z
  00aa2	8d 4d e4	 lea	 ecx, DWORD PTR $T34[ebp]
  00aa5	81 e7 ff ff f7
	ff		 and	 edi, -524289		; fff7ffffH
  00aab	ff 15 00 00 00
	00		 call	 DWORD PTR __imp_??1?$CStringT@DV?$StrTraitMFC_DLL@DV?$ChTraitsCRT@D@ATL@@@@@ATL@@QAE@XZ
  00ab1	8d 4d f0	 lea	 ecx, DWORD PTR $T48[ebp]
  00ab4	81 e7 ff ff fb
	ff		 and	 edi, -262145		; fffbffffH
  00aba	ff 15 00 00 00
	00		 call	 DWORD PTR __imp_??1?$CStringT@DV?$StrTraitMFC_DLL@DV?$ChTraitsCRT@D@ATL@@@@@ATL@@QAE@XZ
; File C:\Program Files (x86)\Microsoft Visual Studio\2019\Community\VC\Tools\MSVC\14.29.30133\atlmfc\include\cstringt.h

; 2412 : 		CStringT strResult( str2.GetManager() );

  00ac0	8d 4d ec	 lea	 ecx, DWORD PTR _strBlockInfo$41[ebp]
; File D:\git\src\IBK\IBK_DRFN\ProjSrc\SrcChartEx\ChartOCX\AddInManager\ChartCommonAddIn\SimpleCompareChartAddInImp.cpp

; 278  : 			strBlock = _BLOCK_HEADER + strBlockInfo + strBlock + _BLOCK_FOOTER;

  00ac3	c6 45 fc 29	 mov	 BYTE PTR __$EHRec$[ebp+8], 41 ; 00000029H
; File C:\Program Files (x86)\Microsoft Visual Studio\2019\Community\VC\Tools\MSVC\14.29.30133\atlmfc\include\cstringt.h

; 2412 : 		CStringT strResult( str2.GetManager() );

  00ac7	ff 15 00 00 00
	00		 call	 DWORD PTR __imp_?GetManager@?$CStringT@DV?$StrTraitMFC_DLL@DV?$ChTraitsCRT@D@ATL@@@@@ATL@@QBEPAUIAtlStringMgr@2@XZ
  00acd	50		 push	 eax
  00ace	8d 4d dc	 lea	 ecx, DWORD PTR $T22[ebp]
  00ad1	ff 15 00 00 00
	00		 call	 DWORD PTR __imp_??0?$CStringT@DV?$StrTraitMFC_DLL@DV?$ChTraitsCRT@D@ATL@@@@@ATL@@QAE@PAUIAtlStringMgr@1@@Z
; File C:\Program Files (x86)\Microsoft Visual Studio\2019\Community\VC\Tools\MSVC\14.29.30133\atlmfc\include\atlsimpstr.h

; 519  : 		return( GetData()->nDataLength );

  00ad7	8b 45 ec	 mov	 eax, DWORD PTR _strBlockInfo$41[ebp]
; File C:\Program Files (x86)\Microsoft Visual Studio\2019\Community\VC\Tools\MSVC\14.29.30133\atlmfc\include\cstringt.h

; 2416 : 		return( strResult );

  00ada	81 cf 00 00 10
	00		 or	 edi, 1048576		; 00100000H
  00ae0	89 7d e8	 mov	 DWORD PTR $T39[ebp], edi
  00ae3	ff 70 f4	 push	 DWORD PTR [eax-12]
  00ae6	50		 push	 eax
  00ae7	6a 08		 push	 8
  00ae9	8d 45 dc	 lea	 eax, DWORD PTR $T22[ebp]
  00aec	68 00 00 00 00	 push	 OFFSET ??_C@_08KGLHHGPJ@Block?$DL?$AN?6@
  00af1	50		 push	 eax
  00af2	ff 15 00 00 00
	00		 call	 DWORD PTR __imp_?Concatenate@?$CSimpleStringT@D$00@ATL@@KAXAAV12@PBDH1H@Z
  00af8	83 c4 14	 add	 esp, 20			; 00000014H

; 2390 : 		CStringT strResult( str1.GetManager() );

  00afb	8d 4d dc	 lea	 ecx, DWORD PTR $T22[ebp]
; File D:\git\src\IBK\IBK_DRFN\ProjSrc\SrcChartEx\ChartOCX\AddInManager\ChartCommonAddIn\SimpleCompareChartAddInImp.cpp

; 278  : 			strBlock = _BLOCK_HEADER + strBlockInfo + strBlock + _BLOCK_FOOTER;

  00afe	c6 45 fc 2a	 mov	 BYTE PTR __$EHRec$[ebp+8], 42 ; 0000002aH
; File C:\Program Files (x86)\Microsoft Visual Studio\2019\Community\VC\Tools\MSVC\14.29.30133\atlmfc\include\cstringt.h

; 2390 : 		CStringT strResult( str1.GetManager() );

  00b02	ff 15 00 00 00
	00		 call	 DWORD PTR __imp_?GetManager@?$CStringT@DV?$StrTraitMFC_DLL@DV?$ChTraitsCRT@D@ATL@@@@@ATL@@QBEPAUIAtlStringMgr@2@XZ
  00b08	50		 push	 eax
  00b09	8d 4d e0	 lea	 ecx, DWORD PTR $T27[ebp]
  00b0c	ff 15 00 00 00
	00		 call	 DWORD PTR __imp_??0?$CStringT@DV?$StrTraitMFC_DLL@DV?$ChTraitsCRT@D@ATL@@@@@ATL@@QAE@PAUIAtlStringMgr@1@@Z

; 2394 : 		return( strResult );

  00b12	81 cf 00 00 20
	00		 or	 edi, 2097152		; 00200000H
  00b18	89 7d e8	 mov	 DWORD PTR $T39[ebp], edi
; File C:\Program Files (x86)\Microsoft Visual Studio\2019\Community\VC\Tools\MSVC\14.29.30133\atlmfc\include\atlsimpstr.h

; 519  : 		return( GetData()->nDataLength );

  00b1b	8b 45 d8	 mov	 eax, DWORD PTR _strBlock$19[ebp]
  00b1e	8b 4d dc	 mov	 ecx, DWORD PTR $T22[ebp]
; File C:\Program Files (x86)\Microsoft Visual Studio\2019\Community\VC\Tools\MSVC\14.29.30133\atlmfc\include\cstringt.h

; 2392 : 		CThisSimpleString::Concatenate( strResult, str1, str1.GetLength(), str2, str2.GetLength() );

  00b21	ff 70 f4	 push	 DWORD PTR [eax-12]
  00b24	50		 push	 eax
  00b25	ff 71 f4	 push	 DWORD PTR [ecx-12]
  00b28	8d 45 e0	 lea	 eax, DWORD PTR $T27[ebp]
  00b2b	51		 push	 ecx
  00b2c	50		 push	 eax
  00b2d	ff 15 00 00 00
	00		 call	 DWORD PTR __imp_?Concatenate@?$CSimpleStringT@D$00@ATL@@KAXAAV12@PBDH1H@Z
  00b33	83 c4 14	 add	 esp, 20			; 00000014H

; 2401 : 		CStringT strResult( str1.GetManager() );

  00b36	8d 4d e0	 lea	 ecx, DWORD PTR $T27[ebp]
; File D:\git\src\IBK\IBK_DRFN\ProjSrc\SrcChartEx\ChartOCX\AddInManager\ChartCommonAddIn\SimpleCompareChartAddInImp.cpp

; 278  : 			strBlock = _BLOCK_HEADER + strBlockInfo + strBlock + _BLOCK_FOOTER;

  00b39	c6 45 fc 2b	 mov	 BYTE PTR __$EHRec$[ebp+8], 43 ; 0000002bH
; File C:\Program Files (x86)\Microsoft Visual Studio\2019\Community\VC\Tools\MSVC\14.29.30133\atlmfc\include\cstringt.h

; 2401 : 		CStringT strResult( str1.GetManager() );

  00b3d	ff 15 00 00 00
	00		 call	 DWORD PTR __imp_?GetManager@?$CStringT@DV?$StrTraitMFC_DLL@DV?$ChTraitsCRT@D@ATL@@@@@ATL@@QBEPAUIAtlStringMgr@2@XZ
  00b43	50		 push	 eax
  00b44	8d 4d cc	 lea	 ecx, DWORD PTR $T11[ebp]
  00b47	ff 15 00 00 00
	00		 call	 DWORD PTR __imp_??0?$CStringT@DV?$StrTraitMFC_DLL@DV?$ChTraitsCRT@D@ATL@@@@@ATL@@QAE@PAUIAtlStringMgr@1@@Z
; File C:\Program Files (x86)\Microsoft Visual Studio\2019\Community\VC\Tools\MSVC\14.29.30133\atlmfc\include\atlsimpstr.h

; 519  : 		return( GetData()->nDataLength );

  00b4d	8b 45 e0	 mov	 eax, DWORD PTR $T27[ebp]
; File C:\Program Files (x86)\Microsoft Visual Studio\2019\Community\VC\Tools\MSVC\14.29.30133\atlmfc\include\cstringt.h

; 2405 : 		return( strResult );

  00b50	81 cf 00 00 40
	00		 or	 edi, 4194304		; 00400000H
  00b56	6a 0b		 push	 11			; 0000000bH
  00b58	68 00 00 00 00	 push	 OFFSET ??_C@_0M@FHFNKLHB@BlockEnd?$DL?$AN?6@
  00b5d	89 7d e8	 mov	 DWORD PTR $T39[ebp], edi
  00b60	ff 70 f4	 push	 DWORD PTR [eax-12]
  00b63	50		 push	 eax
  00b64	8d 45 cc	 lea	 eax, DWORD PTR $T11[ebp]
  00b67	50		 push	 eax
  00b68	ff 15 00 00 00
	00		 call	 DWORD PTR __imp_?Concatenate@?$CSimpleStringT@D$00@ATL@@KAXAAV12@PBDH1H@Z
  00b6e	83 c4 14	 add	 esp, 20			; 00000014H
; File D:\git\src\IBK\IBK_DRFN\ProjSrc\SrcChartEx\ChartOCX\AddInManager\ChartCommonAddIn\SimpleCompareChartAddInImp.cpp

; 278  : 			strBlock = _BLOCK_HEADER + strBlockInfo + strBlock + _BLOCK_FOOTER;

  00b71	8d 45 cc	 lea	 eax, DWORD PTR $T11[ebp]
  00b74	8d 4d d8	 lea	 ecx, DWORD PTR _strBlock$19[ebp]
  00b77	50		 push	 eax
  00b78	ff 15 00 00 00
	00		 call	 DWORD PTR __imp_??4?$CStringT@DV?$StrTraitMFC_DLL@DV?$ChTraitsCRT@D@ATL@@@@@ATL@@QAEAAV01@ABV01@@Z
  00b7e	8d 4d cc	 lea	 ecx, DWORD PTR $T11[ebp]
  00b81	81 e7 ff ff bf
	ff		 and	 edi, -4194305		; ffbfffffH
  00b87	ff 15 00 00 00
	00		 call	 DWORD PTR __imp_??1?$CStringT@DV?$StrTraitMFC_DLL@DV?$ChTraitsCRT@D@ATL@@@@@ATL@@QAE@XZ
  00b8d	8d 4d e0	 lea	 ecx, DWORD PTR $T27[ebp]
  00b90	81 e7 ff ff df
	ff		 and	 edi, -2097153		; ffdfffffH
  00b96	ff 15 00 00 00
	00		 call	 DWORD PTR __imp_??1?$CStringT@DV?$StrTraitMFC_DLL@DV?$ChTraitsCRT@D@ATL@@@@@ATL@@QAE@XZ
  00b9c	8d 4d dc	 lea	 ecx, DWORD PTR $T22[ebp]
  00b9f	c6 45 fc 26	 mov	 BYTE PTR __$EHRec$[ebp+8], 38 ; 00000026H
  00ba3	81 e7 ff ff ef
	ff		 and	 edi, -1048577		; ffefffffH
  00ba9	ff 15 00 00 00
	00		 call	 DWORD PTR __imp_??1?$CStringT@DV?$StrTraitMFC_DLL@DV?$ChTraitsCRT@D@ATL@@@@@ATL@@QAE@XZ

; 279  : 			strChartList += strBlock;

  00baf	8d 45 d8	 lea	 eax, DWORD PTR _strBlock$19[ebp]
  00bb2	50		 push	 eax
  00bb3	8d 4d c8	 lea	 ecx, DWORD PTR _strChartList$[ebp]
  00bb6	ff 15 00 00 00
	00		 call	 DWORD PTR __imp_??Y?$CStringT@DV?$StrTraitMFC_DLL@DV?$ChTraitsCRT@D@ATL@@@@@ATL@@QAEAAV01@ABV?$CSimpleStringT@D$00@1@@Z

; 280  : 		}

  00bbc	8d 4d ec	 lea	 ecx, DWORD PTR _strBlockInfo$41[ebp]
  00bbf	ff 15 00 00 00
	00		 call	 DWORD PTR __imp_??1?$CStringT@DV?$StrTraitMFC_DLL@DV?$ChTraitsCRT@D@ATL@@@@@ATL@@QAE@XZ
  00bc5	8d 4d d8	 lea	 ecx, DWORD PTR _strBlock$19[ebp]
  00bc8	c6 45 fc 24	 mov	 BYTE PTR __$EHRec$[ebp+8], 36 ; 00000024H
  00bcc	ff 15 00 00 00
	00		 call	 DWORD PTR __imp_??1?$CStringT@DV?$StrTraitMFC_DLL@DV?$ChTraitsCRT@D@ATL@@@@@ATL@@QAE@XZ
  00bd2	8b 45 a8	 mov	 eax, DWORD PTR _psnBlock$1$[ebp]
  00bd5	8b 75 bc	 mov	 esi, DWORD PTR _i$1$[ebp]
  00bd8	85 c0		 test	 eax, eax
  00bda	0f 85 d0 fd ff
	ff		 jne	 $LL10@GenerateAn
$LN11@GenerateAn:

; 281  : 		m_pIChartManager->SetBlockCount( nRowCount, 1);

  00be0	8b 4b 24	 mov	 ecx, DWORD PTR [ebx+36]
  00be3	6a 01		 push	 1
  00be5	ff 75 d0	 push	 DWORD PTR _nRowCount$1$[ebp]
  00be8	8b 01		 mov	 eax, DWORD PTR [ecx]
  00bea	ff 50 34	 call	 DWORD PTR [eax+52]

; 282  : 	}

  00bed	e9 0d 02 00 00	 jmp	 $LN25@GenerateAn
$LN24@GenerateAn:

; 283  : 	else	// Ratio or Overlay
; 284  : 	{
; 285  : 		CString strBlockInfo;

  00bf2	8d 4d ec	 lea	 ecx, DWORD PTR _strBlockInfo$40[ebp]
  00bf5	ff 15 00 00 00
	00		 call	 DWORD PTR __imp_??0?$CStringT@DV?$StrTraitMFC_DLL@DV?$ChTraitsCRT@D@ATL@@@@@ATL@@QAE@XZ

; 286  : 		strBlockInfo.Format( "%d", m_nBlockInfo2);

  00bfb	ff 73 68	 push	 DWORD PTR [ebx+104]
  00bfe	8d 45 ec	 lea	 eax, DWORD PTR _strBlockInfo$40[ebp]
  00c01	c6 45 fc 2c	 mov	 BYTE PTR __$EHRec$[ebp+8], 44 ; 0000002cH
  00c05	68 00 00 00 00	 push	 OFFSET ??_C@_02DPKJAMEF@?$CFd@
  00c0a	50		 push	 eax
  00c0b	ff 15 00 00 00
	00		 call	 DWORD PTR __imp_?Format@?$CStringT@DV?$StrTraitMFC_DLL@DV?$ChTraitsCRT@D@ATL@@@@@ATL@@QAAXPBDZZ
  00c11	83 c4 0c	 add	 esp, 12			; 0000000cH
; File C:\Program Files (x86)\Microsoft Visual Studio\2019\Community\VC\Tools\MSVC\14.29.30133\atlmfc\include\cstringt.h

; 2390 : 		CStringT strResult( str1.GetManager() );

  00c14	8d 4b 64	 lea	 ecx, DWORD PTR [ebx+100]
; File D:\git\src\IBK\IBK_DRFN\ProjSrc\SrcChartEx\ChartOCX\AddInManager\ChartCommonAddIn\SimpleCompareChartAddInImp.cpp

; 287  : 		strBlockInfo = m_strBlockInfo1 + strBlockInfo + m_strBlockInfo3;

  00c17	c6 45 fc 2d	 mov	 BYTE PTR __$EHRec$[ebp+8], 45 ; 0000002dH
; File C:\Program Files (x86)\Microsoft Visual Studio\2019\Community\VC\Tools\MSVC\14.29.30133\atlmfc\include\cstringt.h

; 2390 : 		CStringT strResult( str1.GetManager() );

  00c1b	ff 15 00 00 00
	00		 call	 DWORD PTR __imp_?GetManager@?$CStringT@DV?$StrTraitMFC_DLL@DV?$ChTraitsCRT@D@ATL@@@@@ATL@@QBEPAUIAtlStringMgr@2@XZ
  00c21	50		 push	 eax
  00c22	8d 4d f0	 lea	 ecx, DWORD PTR $T47[ebp]
  00c25	ff 15 00 00 00
	00		 call	 DWORD PTR __imp_??0?$CStringT@DV?$StrTraitMFC_DLL@DV?$ChTraitsCRT@D@ATL@@@@@ATL@@QAE@PAUIAtlStringMgr@1@@Z
; File C:\Program Files (x86)\Microsoft Visual Studio\2019\Community\VC\Tools\MSVC\14.29.30133\atlmfc\include\atlsimpstr.h

; 519  : 		return( GetData()->nDataLength );

  00c2b	8b 45 ec	 mov	 eax, DWORD PTR _strBlockInfo$40[ebp]
; File C:\Program Files (x86)\Microsoft Visual Studio\2019\Community\VC\Tools\MSVC\14.29.30133\atlmfc\include\cstringt.h

; 2394 : 		return( strResult );

  00c2e	81 cf 00 00 80
	00		 or	 edi, 8388608		; 00800000H
; File C:\Program Files (x86)\Microsoft Visual Studio\2019\Community\VC\Tools\MSVC\14.29.30133\atlmfc\include\atlsimpstr.h

; 519  : 		return( GetData()->nDataLength );

  00c34	8b 4b 64	 mov	 ecx, DWORD PTR [ebx+100]
; File C:\Program Files (x86)\Microsoft Visual Studio\2019\Community\VC\Tools\MSVC\14.29.30133\atlmfc\include\cstringt.h

; 2394 : 		return( strResult );

  00c37	89 7d e8	 mov	 DWORD PTR $T39[ebp], edi
  00c3a	ff 70 f4	 push	 DWORD PTR [eax-12]
  00c3d	50		 push	 eax
  00c3e	ff 71 f4	 push	 DWORD PTR [ecx-12]
  00c41	8d 45 f0	 lea	 eax, DWORD PTR $T47[ebp]
  00c44	51		 push	 ecx
  00c45	50		 push	 eax
  00c46	ff 15 00 00 00
	00		 call	 DWORD PTR __imp_?Concatenate@?$CSimpleStringT@D$00@ATL@@KAXAAV12@PBDH1H@Z
  00c4c	83 c4 14	 add	 esp, 20			; 00000014H

; 2390 : 		CStringT strResult( str1.GetManager() );

  00c4f	8d 4d f0	 lea	 ecx, DWORD PTR $T47[ebp]
; File D:\git\src\IBK\IBK_DRFN\ProjSrc\SrcChartEx\ChartOCX\AddInManager\ChartCommonAddIn\SimpleCompareChartAddInImp.cpp

; 287  : 		strBlockInfo = m_strBlockInfo1 + strBlockInfo + m_strBlockInfo3;

  00c52	c6 45 fc 2e	 mov	 BYTE PTR __$EHRec$[ebp+8], 46 ; 0000002eH
; File C:\Program Files (x86)\Microsoft Visual Studio\2019\Community\VC\Tools\MSVC\14.29.30133\atlmfc\include\cstringt.h

; 2390 : 		CStringT strResult( str1.GetManager() );

  00c56	ff 15 00 00 00
	00		 call	 DWORD PTR __imp_?GetManager@?$CStringT@DV?$StrTraitMFC_DLL@DV?$ChTraitsCRT@D@ATL@@@@@ATL@@QBEPAUIAtlStringMgr@2@XZ
  00c5c	50		 push	 eax
  00c5d	8d 4d e4	 lea	 ecx, DWORD PTR $T33[ebp]
  00c60	ff 15 00 00 00
	00		 call	 DWORD PTR __imp_??0?$CStringT@DV?$StrTraitMFC_DLL@DV?$ChTraitsCRT@D@ATL@@@@@ATL@@QAE@PAUIAtlStringMgr@1@@Z
; File C:\Program Files (x86)\Microsoft Visual Studio\2019\Community\VC\Tools\MSVC\14.29.30133\atlmfc\include\atlsimpstr.h

; 519  : 		return( GetData()->nDataLength );

  00c66	8b 4b 6c	 mov	 ecx, DWORD PTR [ebx+108]
; File C:\Program Files (x86)\Microsoft Visual Studio\2019\Community\VC\Tools\MSVC\14.29.30133\atlmfc\include\cstringt.h

; 2394 : 		return( strResult );

  00c69	81 cf 00 00 00
	01		 or	 edi, 16777216		; 01000000H
; File C:\Program Files (x86)\Microsoft Visual Studio\2019\Community\VC\Tools\MSVC\14.29.30133\atlmfc\include\atlsimpstr.h

; 519  : 		return( GetData()->nDataLength );

  00c6f	8b 45 f0	 mov	 eax, DWORD PTR $T47[ebp]
; File C:\Program Files (x86)\Microsoft Visual Studio\2019\Community\VC\Tools\MSVC\14.29.30133\atlmfc\include\cstringt.h

; 2394 : 		return( strResult );

  00c72	89 7d e8	 mov	 DWORD PTR $T39[ebp], edi
  00c75	ff 71 f4	 push	 DWORD PTR [ecx-12]
  00c78	51		 push	 ecx
  00c79	ff 70 f4	 push	 DWORD PTR [eax-12]
  00c7c	50		 push	 eax
  00c7d	8d 45 e4	 lea	 eax, DWORD PTR $T33[ebp]
  00c80	50		 push	 eax
  00c81	ff 15 00 00 00
	00		 call	 DWORD PTR __imp_?Concatenate@?$CSimpleStringT@D$00@ATL@@KAXAAV12@PBDH1H@Z
  00c87	83 c4 14	 add	 esp, 20			; 00000014H
; File D:\git\src\IBK\IBK_DRFN\ProjSrc\SrcChartEx\ChartOCX\AddInManager\ChartCommonAddIn\SimpleCompareChartAddInImp.cpp

; 287  : 		strBlockInfo = m_strBlockInfo1 + strBlockInfo + m_strBlockInfo3;

  00c8a	8d 45 e4	 lea	 eax, DWORD PTR $T33[ebp]
  00c8d	8d 4d ec	 lea	 ecx, DWORD PTR _strBlockInfo$40[ebp]
  00c90	50		 push	 eax
  00c91	ff 15 00 00 00
	00		 call	 DWORD PTR __imp_??4?$CStringT@DV?$StrTraitMFC_DLL@DV?$ChTraitsCRT@D@ATL@@@@@ATL@@QAEAAV01@ABV01@@Z
  00c97	8d 4d e4	 lea	 ecx, DWORD PTR $T33[ebp]
  00c9a	81 e7 ff ff ff
	fe		 and	 edi, -16777217		; feffffffH
  00ca0	ff 15 00 00 00
	00		 call	 DWORD PTR __imp_??1?$CStringT@DV?$StrTraitMFC_DLL@DV?$ChTraitsCRT@D@ATL@@@@@ATL@@QAE@XZ
  00ca6	8d 4d f0	 lea	 ecx, DWORD PTR $T47[ebp]
  00ca9	c6 45 fc 2c	 mov	 BYTE PTR __$EHRec$[ebp+8], 44 ; 0000002cH
  00cad	81 e7 ff ff 7f
	ff		 and	 edi, -8388609		; ff7fffffH
  00cb3	ff 15 00 00 00
	00		 call	 DWORD PTR __imp_??1?$CStringT@DV?$StrTraitMFC_DLL@DV?$ChTraitsCRT@D@ATL@@@@@ATL@@QAE@XZ

; 288  : 		POSITION psnBlock = slBlock.GetHeadPosition();

  00cb9	8b 75 90	 mov	 esi, DWORD PTR _slBlock$[ebp+4]
  00cbc	85 f6		 test	 esi, esi

; 289  : 		while( psnBlock)

  00cbe	74 3b		 je	 SHORT $LN13@GenerateAn
$LL12@GenerateAn:
; File C:\Program Files (x86)\Microsoft Visual Studio\2019\Community\VC\Tools\MSVC\14.29.30133\atlmfc\include\afxcoll.inl

; 501  : 	{ CNode* pNode = (CNode*) rPosition;

  00cc0	8b c6		 mov	 eax, esi

; 502  : 		ASSERT(AfxIsValidAddress(pNode, sizeof(CNode)));
; 503  : 		if( pNode == NULL )

  00cc2	85 f6		 test	 esi, esi
  00cc4	0f 84 0a 02 00
	00		 je	 $LN597@GenerateAn

; 505  : 		rPosition = (POSITION) pNode->pNext;

  00cca	8b 36		 mov	 esi, DWORD PTR [esi]
; File D:\git\src\IBK\IBK_DRFN\ProjSrc\SrcChartEx\ChartOCX\AddInManager\ChartCommonAddIn\SimpleCompareChartAddInImp.cpp

; 291  : 			CString strBlock = slBlock.GetNext( psnBlock);

  00ccc	8d 4d d0	 lea	 ecx, DWORD PTR _strBlock$14[ebp]
; File C:\Program Files (x86)\Microsoft Visual Studio\2019\Community\VC\Tools\MSVC\14.29.30133\atlmfc\include\afxcoll.inl

; 506  : 		return pNode->data; }

  00ccf	83 c0 08	 add	 eax, 8
; File D:\git\src\IBK\IBK_DRFN\ProjSrc\SrcChartEx\ChartOCX\AddInManager\ChartCommonAddIn\SimpleCompareChartAddInImp.cpp

; 291  : 			CString strBlock = slBlock.GetNext( psnBlock);

  00cd2	50		 push	 eax
  00cd3	ff 15 00 00 00
	00		 call	 DWORD PTR __imp_??0?$CStringT@DV?$StrTraitMFC_DLL@DV?$ChTraitsCRT@D@ATL@@@@@ATL@@QAE@ABV01@@Z

; 292  : 			strChartList += strBlock;

  00cd9	8d 45 d0	 lea	 eax, DWORD PTR _strBlock$14[ebp]
  00cdc	c6 45 fc 2f	 mov	 BYTE PTR __$EHRec$[ebp+8], 47 ; 0000002fH
  00ce0	50		 push	 eax
  00ce1	8d 4d c8	 lea	 ecx, DWORD PTR _strChartList$[ebp]
  00ce4	ff 15 00 00 00
	00		 call	 DWORD PTR __imp_??Y?$CStringT@DV?$StrTraitMFC_DLL@DV?$ChTraitsCRT@D@ATL@@@@@ATL@@QAEAAV01@ABV?$CSimpleStringT@D$00@1@@Z

; 293  : 		}

  00cea	8d 4d d0	 lea	 ecx, DWORD PTR _strBlock$14[ebp]
  00ced	c6 45 fc 2c	 mov	 BYTE PTR __$EHRec$[ebp+8], 44 ; 0000002cH
  00cf1	ff 15 00 00 00
	00		 call	 DWORD PTR __imp_??1?$CStringT@DV?$StrTraitMFC_DLL@DV?$ChTraitsCRT@D@ATL@@@@@ATL@@QAE@XZ
  00cf7	85 f6		 test	 esi, esi
  00cf9	75 c5		 jne	 SHORT $LL12@GenerateAn
$LN13@GenerateAn:
; File C:\Program Files (x86)\Microsoft Visual Studio\2019\Community\VC\Tools\MSVC\14.29.30133\atlmfc\include\cstringt.h

; 2412 : 		CStringT strResult( str2.GetManager() );

  00cfb	8d 4d ec	 lea	 ecx, DWORD PTR _strBlockInfo$40[ebp]
; File D:\git\src\IBK\IBK_DRFN\ProjSrc\SrcChartEx\ChartOCX\AddInManager\ChartCommonAddIn\SimpleCompareChartAddInImp.cpp

; 294  : 		strChartList = _BLOCK_HEADER + strBlockInfo + strChartList + _BLOCK_FOOTER;

  00cfe	c6 45 fc 30	 mov	 BYTE PTR __$EHRec$[ebp+8], 48 ; 00000030H
; File C:\Program Files (x86)\Microsoft Visual Studio\2019\Community\VC\Tools\MSVC\14.29.30133\atlmfc\include\cstringt.h

; 2412 : 		CStringT strResult( str2.GetManager() );

  00d02	ff 15 00 00 00
	00		 call	 DWORD PTR __imp_?GetManager@?$CStringT@DV?$StrTraitMFC_DLL@DV?$ChTraitsCRT@D@ATL@@@@@ATL@@QBEPAUIAtlStringMgr@2@XZ
  00d08	50		 push	 eax
  00d09	8d 4d e0	 lea	 ecx, DWORD PTR $T26[ebp]
  00d0c	ff 15 00 00 00
	00		 call	 DWORD PTR __imp_??0?$CStringT@DV?$StrTraitMFC_DLL@DV?$ChTraitsCRT@D@ATL@@@@@ATL@@QAE@PAUIAtlStringMgr@1@@Z
; File C:\Program Files (x86)\Microsoft Visual Studio\2019\Community\VC\Tools\MSVC\14.29.30133\atlmfc\include\atlsimpstr.h

; 519  : 		return( GetData()->nDataLength );

  00d12	8b 45 ec	 mov	 eax, DWORD PTR _strBlockInfo$40[ebp]
; File C:\Program Files (x86)\Microsoft Visual Studio\2019\Community\VC\Tools\MSVC\14.29.30133\atlmfc\include\cstringt.h

; 2416 : 		return( strResult );

  00d15	81 cf 00 00 00
	02		 or	 edi, 33554432		; 02000000H
  00d1b	89 7d e8	 mov	 DWORD PTR $T39[ebp], edi
  00d1e	ff 70 f4	 push	 DWORD PTR [eax-12]
  00d21	50		 push	 eax
  00d22	6a 08		 push	 8
  00d24	8d 45 e0	 lea	 eax, DWORD PTR $T26[ebp]
  00d27	68 00 00 00 00	 push	 OFFSET ??_C@_08KGLHHGPJ@Block?$DL?$AN?6@
  00d2c	50		 push	 eax
  00d2d	ff 15 00 00 00
	00		 call	 DWORD PTR __imp_?Concatenate@?$CSimpleStringT@D$00@ATL@@KAXAAV12@PBDH1H@Z
  00d33	83 c4 14	 add	 esp, 20			; 00000014H

; 2390 : 		CStringT strResult( str1.GetManager() );

  00d36	8d 4d e0	 lea	 ecx, DWORD PTR $T26[ebp]
; File D:\git\src\IBK\IBK_DRFN\ProjSrc\SrcChartEx\ChartOCX\AddInManager\ChartCommonAddIn\SimpleCompareChartAddInImp.cpp

; 294  : 		strChartList = _BLOCK_HEADER + strBlockInfo + strChartList + _BLOCK_FOOTER;

  00d39	c6 45 fc 31	 mov	 BYTE PTR __$EHRec$[ebp+8], 49 ; 00000031H
; File C:\Program Files (x86)\Microsoft Visual Studio\2019\Community\VC\Tools\MSVC\14.29.30133\atlmfc\include\cstringt.h

; 2390 : 		CStringT strResult( str1.GetManager() );

  00d3d	ff 15 00 00 00
	00		 call	 DWORD PTR __imp_?GetManager@?$CStringT@DV?$StrTraitMFC_DLL@DV?$ChTraitsCRT@D@ATL@@@@@ATL@@QBEPAUIAtlStringMgr@2@XZ
  00d43	50		 push	 eax
  00d44	8d 4d f0	 lea	 ecx, DWORD PTR $T46[ebp]
  00d47	ff 15 00 00 00
	00		 call	 DWORD PTR __imp_??0?$CStringT@DV?$StrTraitMFC_DLL@DV?$ChTraitsCRT@D@ATL@@@@@ATL@@QAE@PAUIAtlStringMgr@1@@Z
; File C:\Program Files (x86)\Microsoft Visual Studio\2019\Community\VC\Tools\MSVC\14.29.30133\atlmfc\include\atlsimpstr.h

; 519  : 		return( GetData()->nDataLength );

  00d4d	8b 45 c8	 mov	 eax, DWORD PTR _strChartList$[ebp]
; File C:\Program Files (x86)\Microsoft Visual Studio\2019\Community\VC\Tools\MSVC\14.29.30133\atlmfc\include\cstringt.h

; 2394 : 		return( strResult );

  00d50	81 cf 00 00 00
	04		 or	 edi, 67108864		; 04000000H
; File C:\Program Files (x86)\Microsoft Visual Studio\2019\Community\VC\Tools\MSVC\14.29.30133\atlmfc\include\atlsimpstr.h

; 519  : 		return( GetData()->nDataLength );

  00d56	8b 4d e0	 mov	 ecx, DWORD PTR $T26[ebp]
; File C:\Program Files (x86)\Microsoft Visual Studio\2019\Community\VC\Tools\MSVC\14.29.30133\atlmfc\include\cstringt.h

; 2394 : 		return( strResult );

  00d59	89 7d e8	 mov	 DWORD PTR $T39[ebp], edi
  00d5c	ff 70 f4	 push	 DWORD PTR [eax-12]
  00d5f	50		 push	 eax
  00d60	ff 71 f4	 push	 DWORD PTR [ecx-12]
  00d63	8d 45 f0	 lea	 eax, DWORD PTR $T46[ebp]
  00d66	51		 push	 ecx
  00d67	50		 push	 eax
  00d68	ff 15 00 00 00
	00		 call	 DWORD PTR __imp_?Concatenate@?$CSimpleStringT@D$00@ATL@@KAXAAV12@PBDH1H@Z
  00d6e	83 c4 14	 add	 esp, 20			; 00000014H

; 2401 : 		CStringT strResult( str1.GetManager() );

  00d71	8d 4d f0	 lea	 ecx, DWORD PTR $T46[ebp]
; File D:\git\src\IBK\IBK_DRFN\ProjSrc\SrcChartEx\ChartOCX\AddInManager\ChartCommonAddIn\SimpleCompareChartAddInImp.cpp

; 294  : 		strChartList = _BLOCK_HEADER + strBlockInfo + strChartList + _BLOCK_FOOTER;

  00d74	c6 45 fc 32	 mov	 BYTE PTR __$EHRec$[ebp+8], 50 ; 00000032H
; File C:\Program Files (x86)\Microsoft Visual Studio\2019\Community\VC\Tools\MSVC\14.29.30133\atlmfc\include\cstringt.h

; 2401 : 		CStringT strResult( str1.GetManager() );

  00d78	ff 15 00 00 00
	00		 call	 DWORD PTR __imp_?GetManager@?$CStringT@DV?$StrTraitMFC_DLL@DV?$ChTraitsCRT@D@ATL@@@@@ATL@@QBEPAUIAtlStringMgr@2@XZ
  00d7e	50		 push	 eax
  00d7f	8d 4d e4	 lea	 ecx, DWORD PTR $T32[ebp]
  00d82	ff 15 00 00 00
	00		 call	 DWORD PTR __imp_??0?$CStringT@DV?$StrTraitMFC_DLL@DV?$ChTraitsCRT@D@ATL@@@@@ATL@@QAE@PAUIAtlStringMgr@1@@Z
; File C:\Program Files (x86)\Microsoft Visual Studio\2019\Community\VC\Tools\MSVC\14.29.30133\atlmfc\include\atlsimpstr.h

; 519  : 		return( GetData()->nDataLength );

  00d88	8b 45 f0	 mov	 eax, DWORD PTR $T46[ebp]
; File C:\Program Files (x86)\Microsoft Visual Studio\2019\Community\VC\Tools\MSVC\14.29.30133\atlmfc\include\cstringt.h

; 2405 : 		return( strResult );

  00d8b	81 cf 00 00 00
	08		 or	 edi, 134217728		; 08000000H
  00d91	6a 0b		 push	 11			; 0000000bH
  00d93	68 00 00 00 00	 push	 OFFSET ??_C@_0M@FHFNKLHB@BlockEnd?$DL?$AN?6@
  00d98	89 7d e8	 mov	 DWORD PTR $T39[ebp], edi
  00d9b	ff 70 f4	 push	 DWORD PTR [eax-12]
  00d9e	50		 push	 eax
  00d9f	8d 45 e4	 lea	 eax, DWORD PTR $T32[ebp]
  00da2	50		 push	 eax
  00da3	ff 15 00 00 00
	00		 call	 DWORD PTR __imp_?Concatenate@?$CSimpleStringT@D$00@ATL@@KAXAAV12@PBDH1H@Z
  00da9	83 c4 14	 add	 esp, 20			; 00000014H
; File D:\git\src\IBK\IBK_DRFN\ProjSrc\SrcChartEx\ChartOCX\AddInManager\ChartCommonAddIn\SimpleCompareChartAddInImp.cpp

; 294  : 		strChartList = _BLOCK_HEADER + strBlockInfo + strChartList + _BLOCK_FOOTER;

  00dac	8d 45 e4	 lea	 eax, DWORD PTR $T32[ebp]
  00daf	8d 4d c8	 lea	 ecx, DWORD PTR _strChartList$[ebp]
  00db2	50		 push	 eax
  00db3	ff 15 00 00 00
	00		 call	 DWORD PTR __imp_??4?$CStringT@DV?$StrTraitMFC_DLL@DV?$ChTraitsCRT@D@ATL@@@@@ATL@@QAEAAV01@ABV01@@Z
  00db9	8d 4d e4	 lea	 ecx, DWORD PTR $T32[ebp]
  00dbc	81 e7 ff ff ff
	f7		 and	 edi, -134217729		; f7ffffffH
  00dc2	ff 15 00 00 00
	00		 call	 DWORD PTR __imp_??1?$CStringT@DV?$StrTraitMFC_DLL@DV?$ChTraitsCRT@D@ATL@@@@@ATL@@QAE@XZ
  00dc8	8d 4d f0	 lea	 ecx, DWORD PTR $T46[ebp]
  00dcb	81 e7 ff ff ff
	fb		 and	 edi, -67108865		; fbffffffH
  00dd1	ff 15 00 00 00
	00		 call	 DWORD PTR __imp_??1?$CStringT@DV?$StrTraitMFC_DLL@DV?$ChTraitsCRT@D@ATL@@@@@ATL@@QAE@XZ
  00dd7	8d 4d e0	 lea	 ecx, DWORD PTR $T26[ebp]
  00dda	c6 45 fc 2c	 mov	 BYTE PTR __$EHRec$[ebp+8], 44 ; 0000002cH
  00dde	81 e7 ff ff ff
	fd		 and	 edi, -33554433		; fdffffffH
  00de4	ff 15 00 00 00
	00		 call	 DWORD PTR __imp_??1?$CStringT@DV?$StrTraitMFC_DLL@DV?$ChTraitsCRT@D@ATL@@@@@ATL@@QAE@XZ

; 295  : 		m_pIChartManager->SetBlockCount( 1, 1);

  00dea	8b 4b 24	 mov	 ecx, DWORD PTR [ebx+36]
  00ded	6a 01		 push	 1
  00def	6a 01		 push	 1
  00df1	8b 01		 mov	 eax, DWORD PTR [ecx]
  00df3	ff 50 34	 call	 DWORD PTR [eax+52]

; 296  : 	}

  00df6	8d 4d ec	 lea	 ecx, DWORD PTR _strBlockInfo$40[ebp]
  00df9	ff 15 00 00 00
	00		 call	 DWORD PTR __imp_??1?$CStringT@DV?$StrTraitMFC_DLL@DV?$ChTraitsCRT@D@ATL@@@@@ATL@@QAE@XZ
$LN25@GenerateAn:
; File C:\Program Files (x86)\Microsoft Visual Studio\2019\Community\VC\Tools\MSVC\14.29.30133\atlmfc\include\cstringt.h

; 2412 : 		CStringT strResult( str2.GetManager() );

  00dff	8d 4d c8	 lea	 ecx, DWORD PTR _strChartList$[ebp]
; File D:\git\src\IBK\IBK_DRFN\ProjSrc\SrcChartEx\ChartOCX\AddInManager\ChartCommonAddIn\SimpleCompareChartAddInImp.cpp

; 299  : 	strChartList = _BLOCK_COLUMN_HEADER + strChartList + _BLOCK_COLUMN_FOOTER;

  00e02	c6 45 fc 33	 mov	 BYTE PTR __$EHRec$[ebp+8], 51 ; 00000033H
; File C:\Program Files (x86)\Microsoft Visual Studio\2019\Community\VC\Tools\MSVC\14.29.30133\atlmfc\include\cstringt.h

; 2412 : 		CStringT strResult( str2.GetManager() );

  00e06	ff 15 00 00 00
	00		 call	 DWORD PTR __imp_?GetManager@?$CStringT@DV?$StrTraitMFC_DLL@DV?$ChTraitsCRT@D@ATL@@@@@ATL@@QBEPAUIAtlStringMgr@2@XZ
  00e0c	50		 push	 eax
  00e0d	8d 4d f0	 lea	 ecx, DWORD PTR $T45[ebp]
  00e10	ff 15 00 00 00
	00		 call	 DWORD PTR __imp_??0?$CStringT@DV?$StrTraitMFC_DLL@DV?$ChTraitsCRT@D@ATL@@@@@ATL@@QAE@PAUIAtlStringMgr@1@@Z
; File C:\Program Files (x86)\Microsoft Visual Studio\2019\Community\VC\Tools\MSVC\14.29.30133\atlmfc\include\atlsimpstr.h

; 519  : 		return( GetData()->nDataLength );

  00e16	8b 45 c8	 mov	 eax, DWORD PTR _strChartList$[ebp]
; File C:\Program Files (x86)\Microsoft Visual Studio\2019\Community\VC\Tools\MSVC\14.29.30133\atlmfc\include\cstringt.h

; 2416 : 		return( strResult );

  00e19	81 cf 00 00 00
	10		 or	 edi, 268435456		; 10000000H
  00e1f	89 7d e8	 mov	 DWORD PTR $T39[ebp], edi
  00e22	ff 70 f4	 push	 DWORD PTR [eax-12]
  00e25	50		 push	 eax
  00e26	6a 0e		 push	 14			; 0000000eH
  00e28	8d 45 f0	 lea	 eax, DWORD PTR $T45[ebp]
  00e2b	68 00 00 00 00	 push	 OFFSET ??_C@_0P@GBPFOBGA@BlockColumn?$DL?$AN?6@
  00e30	50		 push	 eax
  00e31	ff 15 00 00 00
	00		 call	 DWORD PTR __imp_?Concatenate@?$CSimpleStringT@D$00@ATL@@KAXAAV12@PBDH1H@Z
  00e37	83 c4 14	 add	 esp, 20			; 00000014H

; 2401 : 		CStringT strResult( str1.GetManager() );

  00e3a	8d 4d f0	 lea	 ecx, DWORD PTR $T45[ebp]
; File D:\git\src\IBK\IBK_DRFN\ProjSrc\SrcChartEx\ChartOCX\AddInManager\ChartCommonAddIn\SimpleCompareChartAddInImp.cpp

; 299  : 	strChartList = _BLOCK_COLUMN_HEADER + strChartList + _BLOCK_COLUMN_FOOTER;

  00e3d	c6 45 fc 34	 mov	 BYTE PTR __$EHRec$[ebp+8], 52 ; 00000034H
; File C:\Program Files (x86)\Microsoft Visual Studio\2019\Community\VC\Tools\MSVC\14.29.30133\atlmfc\include\cstringt.h

; 2401 : 		CStringT strResult( str1.GetManager() );

  00e41	ff 15 00 00 00
	00		 call	 DWORD PTR __imp_?GetManager@?$CStringT@DV?$StrTraitMFC_DLL@DV?$ChTraitsCRT@D@ATL@@@@@ATL@@QBEPAUIAtlStringMgr@2@XZ
  00e47	50		 push	 eax
  00e48	8d 4d e4	 lea	 ecx, DWORD PTR $T31[ebp]
  00e4b	ff 15 00 00 00
	00		 call	 DWORD PTR __imp_??0?$CStringT@DV?$StrTraitMFC_DLL@DV?$ChTraitsCRT@D@ATL@@@@@ATL@@QAE@PAUIAtlStringMgr@1@@Z
; File C:\Program Files (x86)\Microsoft Visual Studio\2019\Community\VC\Tools\MSVC\14.29.30133\atlmfc\include\atlsimpstr.h

; 519  : 		return( GetData()->nDataLength );

  00e51	8b 45 f0	 mov	 eax, DWORD PTR $T45[ebp]
; File C:\Program Files (x86)\Microsoft Visual Studio\2019\Community\VC\Tools\MSVC\14.29.30133\atlmfc\include\cstringt.h

; 2405 : 		return( strResult );

  00e54	81 cf 00 00 00
	20		 or	 edi, 536870912		; 20000000H
  00e5a	6a 11		 push	 17			; 00000011H
  00e5c	68 00 00 00 00	 push	 OFFSET ??_C@_0BC@DENBEKI@BlockColumnEnd?$DL?$AN?6@
  00e61	89 7d e8	 mov	 DWORD PTR $T39[ebp], edi
  00e64	ff 70 f4	 push	 DWORD PTR [eax-12]
  00e67	50		 push	 eax
  00e68	8d 45 e4	 lea	 eax, DWORD PTR $T31[ebp]
  00e6b	50		 push	 eax
  00e6c	ff 15 00 00 00
	00		 call	 DWORD PTR __imp_?Concatenate@?$CSimpleStringT@D$00@ATL@@KAXAAV12@PBDH1H@Z
  00e72	83 c4 14	 add	 esp, 20			; 00000014H
; File D:\git\src\IBK\IBK_DRFN\ProjSrc\SrcChartEx\ChartOCX\AddInManager\ChartCommonAddIn\SimpleCompareChartAddInImp.cpp

; 299  : 	strChartList = _BLOCK_COLUMN_HEADER + strChartList + _BLOCK_COLUMN_FOOTER;

  00e75	8d 45 e4	 lea	 eax, DWORD PTR $T31[ebp]
  00e78	8d 4d c8	 lea	 ecx, DWORD PTR _strChartList$[ebp]
  00e7b	50		 push	 eax
  00e7c	ff 15 00 00 00
	00		 call	 DWORD PTR __imp_??4?$CStringT@DV?$StrTraitMFC_DLL@DV?$ChTraitsCRT@D@ATL@@@@@ATL@@QAEAAV01@ABV01@@Z
  00e82	8d 4d e4	 lea	 ecx, DWORD PTR $T31[ebp]
  00e85	ff 15 00 00 00
	00		 call	 DWORD PTR __imp_??1?$CStringT@DV?$StrTraitMFC_DLL@DV?$ChTraitsCRT@D@ATL@@@@@ATL@@QAE@XZ
  00e8b	8d 4d f0	 lea	 ecx, DWORD PTR $T45[ebp]
  00e8e	c6 45 fc 24	 mov	 BYTE PTR __$EHRec$[ebp+8], 36 ; 00000024H
  00e92	ff 15 00 00 00
	00		 call	 DWORD PTR __imp_??1?$CStringT@DV?$StrTraitMFC_DLL@DV?$ChTraitsCRT@D@ATL@@@@@ATL@@QAE@XZ

; 300  : 
; 301  : 	m_pIChartOCX->SetChartList( strChartList);

  00e98	8b 4b 0c	 mov	 ecx, DWORD PTR [ebx+12]
  00e9b	ff 75 c8	 push	 DWORD PTR _strChartList$[ebp]
  00e9e	8b 01		 mov	 eax, DWORD PTR [ecx]
  00ea0	ff 90 98 01 00
	00		 call	 DWORD PTR [eax+408]

; 302  : }

  00ea6	8d 4d c8	 lea	 ecx, DWORD PTR _strChartList$[ebp]
  00ea9	ff 15 00 00 00
	00		 call	 DWORD PTR __imp_??1?$CStringT@DV?$StrTraitMFC_DLL@DV?$ChTraitsCRT@D@ATL@@@@@ATL@@QAE@XZ
  00eaf	8d 4d 8c	 lea	 ecx, DWORD PTR _slBlock$[ebp]
  00eb2	e8 00 00 00 00	 call	 ??1CStringList@@UAE@XZ	; CStringList::~CStringList
  00eb7	8d 8d 70 ff ff
	ff		 lea	 ecx, DWORD PTR _slVertScaleGroupList$[ebp]
  00ebd	e8 00 00 00 00	 call	 ??1CStringList@@UAE@XZ	; CStringList::~CStringList
  00ec2	8b 4d f4	 mov	 ecx, DWORD PTR __$EHRec$[ebp]
  00ec5	64 89 0d 00 00
	00 00		 mov	 DWORD PTR fs:0, ecx
  00ecc	59		 pop	 ecx
  00ecd	5f		 pop	 edi
  00ece	5e		 pop	 esi
  00ecf	5b		 pop	 ebx
  00ed0	8b e5		 mov	 esp, ebp
  00ed2	5d		 pop	 ebp
  00ed3	c3		 ret	 0
$LN597@GenerateAn:
  00ed4	e8 00 00 00 00	 call	 ?AfxThrowInvalidArgException@@YGXXZ ; AfxThrowInvalidArgException
$LN628@GenerateAn:
  00ed9	cc		 int	 3
_TEXT	ENDS
;	COMDAT text$x
text$x	SEGMENT
__unwindfunclet$?GenerateAndSetChartListInfo@CSimpleCompareChartAddInImp@@IAEXXZ$0:
  00000	8d 8d 70 ff ff
	ff		 lea	 ecx, DWORD PTR _slVertScaleGroupList$[ebp]
  00006	e9 00 00 00 00	 jmp	 ??1CStringList@@UAE@XZ	; CStringList::~CStringList
__unwindfunclet$?GenerateAndSetChartListInfo@CSimpleCompareChartAddInImp@@IAEXXZ$1:
  0000b	8d 4d bc	 lea	 ecx, DWORD PTR _strVertScaleGroup$6[ebp]
  0000e	ff 25 00 00 00
	00		 jmp	 DWORD PTR __imp_??1?$CStringT@DV?$StrTraitMFC_DLL@DV?$ChTraitsCRT@D@ATL@@@@@ATL@@QAE@XZ
__unwindfunclet$?GenerateAndSetChartListInfo@CSimpleCompareChartAddInImp@@IAEXXZ$2:
  00014	8d 4d b8	 lea	 ecx, DWORD PTR _strGraph1$5[ebp]
  00017	ff 25 00 00 00
	00		 jmp	 DWORD PTR __imp_??1?$CStringT@DV?$StrTraitMFC_DLL@DV?$ChTraitsCRT@D@ATL@@@@@ATL@@QAE@XZ
__unwindfunclet$?GenerateAndSetChartListInfo@CSimpleCompareChartAddInImp@@IAEXXZ$3:
  0001d	8d 4d cc	 lea	 ecx, DWORD PTR _strGraph2$13[ebp]
  00020	ff 25 00 00 00
	00		 jmp	 DWORD PTR __imp_??1?$CStringT@DV?$StrTraitMFC_DLL@DV?$ChTraitsCRT@D@ATL@@@@@ATL@@QAE@XZ
__unwindfunclet$?GenerateAndSetChartListInfo@CSimpleCompareChartAddInImp@@IAEXXZ$4:
  00026	8d 4d dc	 lea	 ecx, DWORD PTR _strGraphTitle$25[ebp]
  00029	ff 25 00 00 00
	00		 jmp	 DWORD PTR __imp_??1?$CStringT@DV?$StrTraitMFC_DLL@DV?$ChTraitsCRT@D@ATL@@@@@ATL@@QAE@XZ
__unwindfunclet$?GenerateAndSetChartListInfo@CSimpleCompareChartAddInImp@@IAEXXZ$5:
  0002f	8d 4d e0	 lea	 ecx, DWORD PTR _strGraphShow$30[ebp]
  00032	ff 25 00 00 00
	00		 jmp	 DWORD PTR __imp_??1?$CStringT@DV?$StrTraitMFC_DLL@DV?$ChTraitsCRT@D@ATL@@@@@ATL@@QAE@XZ
__unwindfunclet$?GenerateAndSetChartListInfo@CSimpleCompareChartAddInImp@@IAEXXZ$6:
  00038	8d 4d e4	 lea	 ecx, DWORD PTR _strGraph3$38[ebp]
  0003b	ff 25 00 00 00
	00		 jmp	 DWORD PTR __imp_??1?$CStringT@DV?$StrTraitMFC_DLL@DV?$ChTraitsCRT@D@ATL@@@@@ATL@@QAE@XZ
__unwindfunclet$?GenerateAndSetChartListInfo@CSimpleCompareChartAddInImp@@IAEXXZ$53:
  00041	8b 45 e8	 mov	 eax, DWORD PTR $T39[ebp]
  00044	83 e0 01	 and	 eax, 1
  00047	0f 84 0d 00 00
	00		 je	 $LN106@GenerateAn
  0004d	83 65 e8 fe	 and	 DWORD PTR $T39[ebp], -2	; fffffffeH
  00051	8d 4d d8	 lea	 ecx, DWORD PTR $T21[ebp]
  00054	ff 25 00 00 00
	00		 jmp	 DWORD PTR __imp_??1?$CStringT@DV?$StrTraitMFC_DLL@DV?$ChTraitsCRT@D@ATL@@@@@ATL@@QAE@XZ
$LN106@GenerateAn:
  0005a	c3		 ret	 0
__unwindfunclet$?GenerateAndSetChartListInfo@CSimpleCompareChartAddInImp@@IAEXXZ$54:
  0005b	8b 45 e8	 mov	 eax, DWORD PTR $T39[ebp]
  0005e	83 e0 02	 and	 eax, 2
  00061	0f 84 0d 00 00
	00		 je	 $LN119@GenerateAn
  00067	83 65 e8 fd	 and	 DWORD PTR $T39[ebp], -3	; fffffffdH
  0006b	8d 4d c0	 lea	 ecx, DWORD PTR $T8[ebp]
  0006e	ff 25 00 00 00
	00		 jmp	 DWORD PTR __imp_??1?$CStringT@DV?$StrTraitMFC_DLL@DV?$ChTraitsCRT@D@ATL@@@@@ATL@@QAE@XZ
$LN119@GenerateAn:
  00074	c3		 ret	 0
__unwindfunclet$?GenerateAndSetChartListInfo@CSimpleCompareChartAddInImp@@IAEXXZ$55:
  00075	8b 45 e8	 mov	 eax, DWORD PTR $T39[ebp]
  00078	83 e0 04	 and	 eax, 4
  0007b	0f 84 0d 00 00
	00		 je	 $LN135@GenerateAn
  00081	83 65 e8 fb	 and	 DWORD PTR $T39[ebp], -5	; fffffffbH
  00085	8d 4d c4	 lea	 ecx, DWORD PTR $T10[ebp]
  00088	ff 25 00 00 00
	00		 jmp	 DWORD PTR __imp_??1?$CStringT@DV?$StrTraitMFC_DLL@DV?$ChTraitsCRT@D@ATL@@@@@ATL@@QAE@XZ
$LN135@GenerateAn:
  0008e	c3		 ret	 0
__unwindfunclet$?GenerateAndSetChartListInfo@CSimpleCompareChartAddInImp@@IAEXXZ$56:
  0008f	8b 45 e8	 mov	 eax, DWORD PTR $T39[ebp]
  00092	83 e0 08	 and	 eax, 8
  00095	0f 84 0d 00 00
	00		 je	 $LN151@GenerateAn
  0009b	83 65 e8 f7	 and	 DWORD PTR $T39[ebp], -9	; fffffff7H
  0009f	8d 4d d4	 lea	 ecx, DWORD PTR $T18[ebp]
  000a2	ff 25 00 00 00
	00		 jmp	 DWORD PTR __imp_??1?$CStringT@DV?$StrTraitMFC_DLL@DV?$ChTraitsCRT@D@ATL@@@@@ATL@@QAE@XZ
$LN151@GenerateAn:
  000a8	c3		 ret	 0
__unwindfunclet$?GenerateAndSetChartListInfo@CSimpleCompareChartAddInImp@@IAEXXZ$57:
  000a9	8b 45 e8	 mov	 eax, DWORD PTR $T39[ebp]
  000ac	83 e0 10	 and	 eax, 16			; 00000010H
  000af	0f 84 0d 00 00
	00		 je	 $LN167@GenerateAn
  000b5	83 65 e8 ef	 and	 DWORD PTR $T39[ebp], -17 ; ffffffefH
  000b9	8d 4d ec	 lea	 ecx, DWORD PTR $T44[ebp]
  000bc	ff 25 00 00 00
	00		 jmp	 DWORD PTR __imp_??1?$CStringT@DV?$StrTraitMFC_DLL@DV?$ChTraitsCRT@D@ATL@@@@@ATL@@QAE@XZ
$LN167@GenerateAn:
  000c2	c3		 ret	 0
__unwindfunclet$?GenerateAndSetChartListInfo@CSimpleCompareChartAddInImp@@IAEXXZ$58:
  000c3	8b 45 e8	 mov	 eax, DWORD PTR $T39[ebp]
  000c6	83 e0 20	 and	 eax, 32			; 00000020H
  000c9	0f 84 0d 00 00
	00		 je	 $LN183@GenerateAn
  000cf	83 65 e8 df	 and	 DWORD PTR $T39[ebp], -33 ; ffffffdfH
  000d3	8d 4d f0	 lea	 ecx, DWORD PTR $T52[ebp]
  000d6	ff 25 00 00 00
	00		 jmp	 DWORD PTR __imp_??1?$CStringT@DV?$StrTraitMFC_DLL@DV?$ChTraitsCRT@D@ATL@@@@@ATL@@QAE@XZ
$LN183@GenerateAn:
  000dc	c3		 ret	 0
__unwindfunclet$?GenerateAndSetChartListInfo@CSimpleCompareChartAddInImp@@IAEXXZ$13:
  000dd	8d 4d d4	 lea	 ecx, DWORD PTR _strPreGraphs$17[ebp]
  000e0	ff 25 00 00 00
	00		 jmp	 DWORD PTR __imp_??1?$CStringT@DV?$StrTraitMFC_DLL@DV?$ChTraitsCRT@D@ATL@@@@@ATL@@QAE@XZ
__unwindfunclet$?GenerateAndSetChartListInfo@CSimpleCompareChartAddInImp@@IAEXXZ$14:
  000e6	8d 4d ec	 lea	 ecx, DWORD PTR _strGraph$43[ebp]
  000e9	ff 25 00 00 00
	00		 jmp	 DWORD PTR __imp_??1?$CStringT@DV?$StrTraitMFC_DLL@DV?$ChTraitsCRT@D@ATL@@@@@ATL@@QAE@XZ
__unwindfunclet$?GenerateAndSetChartListInfo@CSimpleCompareChartAddInImp@@IAEXXZ$15:
  000ef	8d 4d e4	 lea	 ecx, DWORD PTR _strGraph1$37[ebp]
  000f2	ff 25 00 00 00
	00		 jmp	 DWORD PTR __imp_??1?$CStringT@DV?$StrTraitMFC_DLL@DV?$ChTraitsCRT@D@ATL@@@@@ATL@@QAE@XZ
__unwindfunclet$?GenerateAndSetChartListInfo@CSimpleCompareChartAddInImp@@IAEXXZ$16:
  000f8	8d 4d d0	 lea	 ecx, DWORD PTR _strGraph2$16[ebp]
  000fb	ff 25 00 00 00
	00		 jmp	 DWORD PTR __imp_??1?$CStringT@DV?$StrTraitMFC_DLL@DV?$ChTraitsCRT@D@ATL@@@@@ATL@@QAE@XZ
__unwindfunclet$?GenerateAndSetChartListInfo@CSimpleCompareChartAddInImp@@IAEXXZ$17:
  00101	8d 4d f0	 lea	 ecx, DWORD PTR _strGraphTitle$51[ebp]
  00104	ff 25 00 00 00
	00		 jmp	 DWORD PTR __imp_??1?$CStringT@DV?$StrTraitMFC_DLL@DV?$ChTraitsCRT@D@ATL@@@@@ATL@@QAE@XZ
__unwindfunclet$?GenerateAndSetChartListInfo@CSimpleCompareChartAddInImp@@IAEXXZ$18:
  0010a	8d 4d cc	 lea	 ecx, DWORD PTR _strGraphShow$12[ebp]
  0010d	ff 25 00 00 00
	00		 jmp	 DWORD PTR __imp_??1?$CStringT@DV?$StrTraitMFC_DLL@DV?$ChTraitsCRT@D@ATL@@@@@ATL@@QAE@XZ
__unwindfunclet$?GenerateAndSetChartListInfo@CSimpleCompareChartAddInImp@@IAEXXZ$19:
  00113	8d 4d a8	 lea	 ecx, DWORD PTR _strGraph3$2[ebp]
  00116	ff 25 00 00 00
	00		 jmp	 DWORD PTR __imp_??1?$CStringT@DV?$StrTraitMFC_DLL@DV?$ChTraitsCRT@D@ATL@@@@@ATL@@QAE@XZ
__unwindfunclet$?GenerateAndSetChartListInfo@CSimpleCompareChartAddInImp@@IAEXXZ$59:
  0011c	8b 45 e8	 mov	 eax, DWORD PTR $T39[ebp]
  0011f	83 e0 40	 and	 eax, 64			; 00000040H
  00122	0f 84 0d 00 00
	00		 je	 $LN220@GenerateAn
  00128	83 65 e8 bf	 and	 DWORD PTR $T39[ebp], -65 ; ffffffbfH
  0012c	8d 4d c4	 lea	 ecx, DWORD PTR $T9[ebp]
  0012f	ff 25 00 00 00
	00		 jmp	 DWORD PTR __imp_??1?$CStringT@DV?$StrTraitMFC_DLL@DV?$ChTraitsCRT@D@ATL@@@@@ATL@@QAE@XZ
$LN220@GenerateAn:
  00135	c3		 ret	 0
__unwindfunclet$?GenerateAndSetChartListInfo@CSimpleCompareChartAddInImp@@IAEXXZ$60:
  00136	8b 45 e8	 mov	 eax, DWORD PTR $T39[ebp]
  00139	25 80 00 00 00	 and	 eax, 128		; 00000080H
  0013e	0f 84 10 00 00
	00		 je	 $LN236@GenerateAn
  00144	81 65 e8 7f ff
	ff ff		 and	 DWORD PTR $T39[ebp], -129 ; ffffff7fH
  0014b	8d 4d c0	 lea	 ecx, DWORD PTR $T7[ebp]
  0014e	ff 25 00 00 00
	00		 jmp	 DWORD PTR __imp_??1?$CStringT@DV?$StrTraitMFC_DLL@DV?$ChTraitsCRT@D@ATL@@@@@ATL@@QAE@XZ
$LN236@GenerateAn:
  00154	c3		 ret	 0
__unwindfunclet$?GenerateAndSetChartListInfo@CSimpleCompareChartAddInImp@@IAEXXZ$61:
  00155	8b 45 e8	 mov	 eax, DWORD PTR $T39[ebp]
  00158	25 00 01 00 00	 and	 eax, 256		; 00000100H
  0015d	0f 84 10 00 00
	00		 je	 $LN252@GenerateAn
  00163	81 65 e8 ff fe
	ff ff		 and	 DWORD PTR $T39[ebp], -257 ; fffffeffH
  0016a	8d 4d d8	 lea	 ecx, DWORD PTR $T20[ebp]
  0016d	ff 25 00 00 00
	00		 jmp	 DWORD PTR __imp_??1?$CStringT@DV?$StrTraitMFC_DLL@DV?$ChTraitsCRT@D@ATL@@@@@ATL@@QAE@XZ
$LN252@GenerateAn:
  00173	c3		 ret	 0
__unwindfunclet$?GenerateAndSetChartListInfo@CSimpleCompareChartAddInImp@@IAEXXZ$62:
  00174	8b 45 e8	 mov	 eax, DWORD PTR $T39[ebp]
  00177	25 00 02 00 00	 and	 eax, 512		; 00000200H
  0017c	0f 84 10 00 00
	00		 je	 $LN268@GenerateAn
  00182	81 65 e8 ff fd
	ff ff		 and	 DWORD PTR $T39[ebp], -513 ; fffffdffH
  00189	8d 4d b4	 lea	 ecx, DWORD PTR $T3[ebp]
  0018c	ff 25 00 00 00
	00		 jmp	 DWORD PTR __imp_??1?$CStringT@DV?$StrTraitMFC_DLL@DV?$ChTraitsCRT@D@ATL@@@@@ATL@@QAE@XZ
$LN268@GenerateAn:
  00192	c3		 ret	 0
__unwindfunclet$?GenerateAndSetChartListInfo@CSimpleCompareChartAddInImp@@IAEXXZ$63:
  00193	8b 45 e8	 mov	 eax, DWORD PTR $T39[ebp]
  00196	25 00 04 00 00	 and	 eax, 1024		; 00000400H
  0019b	0f 84 10 00 00
	00		 je	 $LN284@GenerateAn
  001a1	81 65 e8 ff fb
	ff ff		 and	 DWORD PTR $T39[ebp], -1025 ; fffffbffH
  001a8	8d 4d dc	 lea	 ecx, DWORD PTR $T24[ebp]
  001ab	ff 25 00 00 00
	00		 jmp	 DWORD PTR __imp_??1?$CStringT@DV?$StrTraitMFC_DLL@DV?$ChTraitsCRT@D@ATL@@@@@ATL@@QAE@XZ
$LN284@GenerateAn:
  001b1	c3		 ret	 0
__unwindfunclet$?GenerateAndSetChartListInfo@CSimpleCompareChartAddInImp@@IAEXXZ$64:
  001b2	8b 45 e8	 mov	 eax, DWORD PTR $T39[ebp]
  001b5	25 00 08 00 00	 and	 eax, 2048		; 00000800H
  001ba	0f 84 10 00 00
	00		 je	 $LN297@GenerateAn
  001c0	81 65 e8 ff f7
	ff ff		 and	 DWORD PTR $T39[ebp], -2049 ; fffff7ffH
  001c7	8d 4d b8	 lea	 ecx, DWORD PTR $T4[ebp]
  001ca	ff 25 00 00 00
	00		 jmp	 DWORD PTR __imp_??1?$CStringT@DV?$StrTraitMFC_DLL@DV?$ChTraitsCRT@D@ATL@@@@@ATL@@QAE@XZ
$LN297@GenerateAn:
  001d0	c3		 ret	 0
__unwindfunclet$?GenerateAndSetChartListInfo@CSimpleCompareChartAddInImp@@IAEXXZ$26:
  001d1	8d 4d 8c	 lea	 ecx, DWORD PTR _slBlock$[ebp]
  001d4	e9 00 00 00 00	 jmp	 ??1CStringList@@UAE@XZ	; CStringList::~CStringList
__unwindfunclet$?GenerateAndSetChartListInfo@CSimpleCompareChartAddInImp@@IAEXXZ$27:
  001d9	8d 4d ec	 lea	 ecx, DWORD PTR _strBlock$42[ebp]
  001dc	ff 25 00 00 00
	00		 jmp	 DWORD PTR __imp_??1?$CStringT@DV?$StrTraitMFC_DLL@DV?$ChTraitsCRT@D@ATL@@@@@ATL@@QAE@XZ
__unwindfunclet$?GenerateAndSetChartListInfo@CSimpleCompareChartAddInImp@@IAEXXZ$28:
  001e2	8d 4d d0	 lea	 ecx, DWORD PTR _strVertScaleGroup$15[ebp]
  001e5	ff 25 00 00 00
	00		 jmp	 DWORD PTR __imp_??1?$CStringT@DV?$StrTraitMFC_DLL@DV?$ChTraitsCRT@D@ATL@@@@@ATL@@QAE@XZ
__unwindfunclet$?GenerateAndSetChartListInfo@CSimpleCompareChartAddInImp@@IAEXXZ$65:
  001eb	8b 45 e8	 mov	 eax, DWORD PTR $T39[ebp]
  001ee	25 00 10 00 00	 and	 eax, 4096		; 00001000H
  001f3	0f 84 10 00 00
	00		 je	 $LN325@GenerateAn
  001f9	81 65 e8 ff ef
	ff ff		 and	 DWORD PTR $T39[ebp], -4097 ; ffffefffH
  00200	8d 4d e0	 lea	 ecx, DWORD PTR $T29[ebp]
  00203	ff 25 00 00 00
	00		 jmp	 DWORD PTR __imp_??1?$CStringT@DV?$StrTraitMFC_DLL@DV?$ChTraitsCRT@D@ATL@@@@@ATL@@QAE@XZ
$LN325@GenerateAn:
  00209	c3		 ret	 0
__unwindfunclet$?GenerateAndSetChartListInfo@CSimpleCompareChartAddInImp@@IAEXXZ$66:
  0020a	8b 45 e8	 mov	 eax, DWORD PTR $T39[ebp]
  0020d	25 00 20 00 00	 and	 eax, 8192		; 00002000H
  00212	0f 84 10 00 00
	00		 je	 $LN338@GenerateAn
  00218	81 65 e8 ff df
	ff ff		 and	 DWORD PTR $T39[ebp], -8193 ; ffffdfffH
  0021f	8d 4d f0	 lea	 ecx, DWORD PTR $T50[ebp]
  00222	ff 25 00 00 00
	00		 jmp	 DWORD PTR __imp_??1?$CStringT@DV?$StrTraitMFC_DLL@DV?$ChTraitsCRT@D@ATL@@@@@ATL@@QAE@XZ
$LN338@GenerateAn:
  00228	c3		 ret	 0
__unwindfunclet$?GenerateAndSetChartListInfo@CSimpleCompareChartAddInImp@@IAEXXZ$67:
  00229	8b 45 e8	 mov	 eax, DWORD PTR $T39[ebp]
  0022c	25 00 40 00 00	 and	 eax, 16384		; 00004000H
  00231	0f 84 10 00 00
	00		 je	 $LN354@GenerateAn
  00237	81 65 e8 ff bf
	ff ff		 and	 DWORD PTR $T39[ebp], -16385 ; ffffbfffH
  0023e	8d 4d e4	 lea	 ecx, DWORD PTR $T36[ebp]
  00241	ff 25 00 00 00
	00		 jmp	 DWORD PTR __imp_??1?$CStringT@DV?$StrTraitMFC_DLL@DV?$ChTraitsCRT@D@ATL@@@@@ATL@@QAE@XZ
$LN354@GenerateAn:
  00247	c3		 ret	 0
__unwindfunclet$?GenerateAndSetChartListInfo@CSimpleCompareChartAddInImp@@IAEXXZ$32:
  00248	8d 4d dc	 lea	 ecx, DWORD PTR _strVertScaleGroup$23[ebp]
  0024b	ff 25 00 00 00
	00		 jmp	 DWORD PTR __imp_??1?$CStringT@DV?$StrTraitMFC_DLL@DV?$ChTraitsCRT@D@ATL@@@@@ATL@@QAE@XZ
__unwindfunclet$?GenerateAndSetChartListInfo@CSimpleCompareChartAddInImp@@IAEXXZ$68:
  00251	8b 45 e8	 mov	 eax, DWORD PTR $T39[ebp]
  00254	25 00 80 00 00	 and	 eax, 32768		; 00008000H
  00259	0f 84 10 00 00
	00		 je	 $LN370@GenerateAn
  0025f	81 65 e8 ff 7f
	ff ff		 and	 DWORD PTR $T39[ebp], -32769 ; ffff7fffH
  00266	8d 4d e0	 lea	 ecx, DWORD PTR $T28[ebp]
  00269	ff 25 00 00 00
	00		 jmp	 DWORD PTR __imp_??1?$CStringT@DV?$StrTraitMFC_DLL@DV?$ChTraitsCRT@D@ATL@@@@@ATL@@QAE@XZ
$LN370@GenerateAn:
  0026f	c3		 ret	 0
__unwindfunclet$?GenerateAndSetChartListInfo@CSimpleCompareChartAddInImp@@IAEXXZ$69:
  00270	8b 45 e8	 mov	 eax, DWORD PTR $T39[ebp]
  00273	25 00 00 01 00	 and	 eax, 65536		; 00010000H
  00278	0f 84 10 00 00
	00		 je	 $LN383@GenerateAn
  0027e	81 65 e8 ff ff
	fe ff		 and	 DWORD PTR $T39[ebp], -65537 ; fffeffffH
  00285	8d 4d f0	 lea	 ecx, DWORD PTR $T49[ebp]
  00288	ff 25 00 00 00
	00		 jmp	 DWORD PTR __imp_??1?$CStringT@DV?$StrTraitMFC_DLL@DV?$ChTraitsCRT@D@ATL@@@@@ATL@@QAE@XZ
$LN383@GenerateAn:
  0028e	c3		 ret	 0
__unwindfunclet$?GenerateAndSetChartListInfo@CSimpleCompareChartAddInImp@@IAEXXZ$70:
  0028f	8b 45 e8	 mov	 eax, DWORD PTR $T39[ebp]
  00292	25 00 00 02 00	 and	 eax, 131072		; 00020000H
  00297	0f 84 10 00 00
	00		 je	 $LN399@GenerateAn
  0029d	81 65 e8 ff ff
	fd ff		 and	 DWORD PTR $T39[ebp], -131073 ; fffdffffH
  002a4	8d 4d e4	 lea	 ecx, DWORD PTR $T35[ebp]
  002a7	ff 25 00 00 00
	00		 jmp	 DWORD PTR __imp_??1?$CStringT@DV?$StrTraitMFC_DLL@DV?$ChTraitsCRT@D@ATL@@@@@ATL@@QAE@XZ
$LN399@GenerateAn:
  002ad	c3		 ret	 0
__unwindfunclet$?GenerateAndSetChartListInfo@CSimpleCompareChartAddInImp@@IAEXXZ$36:
  002ae	8d 4d c8	 lea	 ecx, DWORD PTR _strChartList$[ebp]
  002b1	ff 25 00 00 00
	00		 jmp	 DWORD PTR __imp_??1?$CStringT@DV?$StrTraitMFC_DLL@DV?$ChTraitsCRT@D@ATL@@@@@ATL@@QAE@XZ
__unwindfunclet$?GenerateAndSetChartListInfo@CSimpleCompareChartAddInImp@@IAEXXZ$37:
  002b7	8d 4d d8	 lea	 ecx, DWORD PTR _strBlock$19[ebp]
  002ba	ff 25 00 00 00
	00		 jmp	 DWORD PTR __imp_??1?$CStringT@DV?$StrTraitMFC_DLL@DV?$ChTraitsCRT@D@ATL@@@@@ATL@@QAE@XZ
__unwindfunclet$?GenerateAndSetChartListInfo@CSimpleCompareChartAddInImp@@IAEXXZ$38:
  002c0	8d 4d ec	 lea	 ecx, DWORD PTR _strBlockInfo$41[ebp]
  002c3	ff 25 00 00 00
	00		 jmp	 DWORD PTR __imp_??1?$CStringT@DV?$StrTraitMFC_DLL@DV?$ChTraitsCRT@D@ATL@@@@@ATL@@QAE@XZ
__unwindfunclet$?GenerateAndSetChartListInfo@CSimpleCompareChartAddInImp@@IAEXXZ$71:
  002c9	8b 45 e8	 mov	 eax, DWORD PTR $T39[ebp]
  002cc	25 00 00 04 00	 and	 eax, 262144		; 00040000H
  002d1	0f 84 10 00 00
	00		 je	 $LN415@GenerateAn
  002d7	81 65 e8 ff ff
	fb ff		 and	 DWORD PTR $T39[ebp], -262145 ; fffbffffH
  002de	8d 4d f0	 lea	 ecx, DWORD PTR $T48[ebp]
  002e1	ff 25 00 00 00
	00		 jmp	 DWORD PTR __imp_??1?$CStringT@DV?$StrTraitMFC_DLL@DV?$ChTraitsCRT@D@ATL@@@@@ATL@@QAE@XZ
$LN415@GenerateAn:
  002e7	c3		 ret	 0
__unwindfunclet$?GenerateAndSetChartListInfo@CSimpleCompareChartAddInImp@@IAEXXZ$72:
  002e8	8b 45 e8	 mov	 eax, DWORD PTR $T39[ebp]
  002eb	25 00 00 08 00	 and	 eax, 524288		; 00080000H
  002f0	0f 84 10 00 00
	00		 je	 $LN431@GenerateAn
  002f6	81 65 e8 ff ff
	f7 ff		 and	 DWORD PTR $T39[ebp], -524289 ; fff7ffffH
  002fd	8d 4d e4	 lea	 ecx, DWORD PTR $T34[ebp]
  00300	ff 25 00 00 00
	00		 jmp	 DWORD PTR __imp_??1?$CStringT@DV?$StrTraitMFC_DLL@DV?$ChTraitsCRT@D@ATL@@@@@ATL@@QAE@XZ
$LN431@GenerateAn:
  00306	c3		 ret	 0
__unwindfunclet$?GenerateAndSetChartListInfo@CSimpleCompareChartAddInImp@@IAEXXZ$73:
  00307	8b 45 e8	 mov	 eax, DWORD PTR $T39[ebp]
  0030a	25 00 00 10 00	 and	 eax, 1048576		; 00100000H
  0030f	0f 84 10 00 00
	00		 je	 $LN447@GenerateAn
  00315	81 65 e8 ff ff
	ef ff		 and	 DWORD PTR $T39[ebp], -1048577 ; ffefffffH
  0031c	8d 4d dc	 lea	 ecx, DWORD PTR $T22[ebp]
  0031f	ff 25 00 00 00
	00		 jmp	 DWORD PTR __imp_??1?$CStringT@DV?$StrTraitMFC_DLL@DV?$ChTraitsCRT@D@ATL@@@@@ATL@@QAE@XZ
$LN447@GenerateAn:
  00325	c3		 ret	 0
__unwindfunclet$?GenerateAndSetChartListInfo@CSimpleCompareChartAddInImp@@IAEXXZ$74:
  00326	8b 45 e8	 mov	 eax, DWORD PTR $T39[ebp]
  00329	25 00 00 20 00	 and	 eax, 2097152		; 00200000H
  0032e	0f 84 10 00 00
	00		 je	 $LN460@GenerateAn
  00334	81 65 e8 ff ff
	df ff		 and	 DWORD PTR $T39[ebp], -2097153 ; ffdfffffH
  0033b	8d 4d e0	 lea	 ecx, DWORD PTR $T27[ebp]
  0033e	ff 25 00 00 00
	00		 jmp	 DWORD PTR __imp_??1?$CStringT@DV?$StrTraitMFC_DLL@DV?$ChTraitsCRT@D@ATL@@@@@ATL@@QAE@XZ
$LN460@GenerateAn:
  00344	c3		 ret	 0
__unwindfunclet$?GenerateAndSetChartListInfo@CSimpleCompareChartAddInImp@@IAEXXZ$75:
  00345	8b 45 e8	 mov	 eax, DWORD PTR $T39[ebp]
  00348	25 00 00 40 00	 and	 eax, 4194304		; 00400000H
  0034d	0f 84 10 00 00
	00		 je	 $LN476@GenerateAn
  00353	81 65 e8 ff ff
	bf ff		 and	 DWORD PTR $T39[ebp], -4194305 ; ffbfffffH
  0035a	8d 4d cc	 lea	 ecx, DWORD PTR $T11[ebp]
  0035d	ff 25 00 00 00
	00		 jmp	 DWORD PTR __imp_??1?$CStringT@DV?$StrTraitMFC_DLL@DV?$ChTraitsCRT@D@ATL@@@@@ATL@@QAE@XZ
$LN476@GenerateAn:
  00363	c3		 ret	 0
__unwindfunclet$?GenerateAndSetChartListInfo@CSimpleCompareChartAddInImp@@IAEXXZ$44:
  00364	8d 4d ec	 lea	 ecx, DWORD PTR _strBlockInfo$40[ebp]
  00367	ff 25 00 00 00
	00		 jmp	 DWORD PTR __imp_??1?$CStringT@DV?$StrTraitMFC_DLL@DV?$ChTraitsCRT@D@ATL@@@@@ATL@@QAE@XZ
__unwindfunclet$?GenerateAndSetChartListInfo@CSimpleCompareChartAddInImp@@IAEXXZ$76:
  0036d	8b 45 e8	 mov	 eax, DWORD PTR $T39[ebp]
  00370	25 00 00 80 00	 and	 eax, 8388608		; 00800000H
  00375	0f 84 10 00 00
	00		 je	 $LN489@GenerateAn
  0037b	81 65 e8 ff ff
	7f ff		 and	 DWORD PTR $T39[ebp], -8388609 ; ff7fffffH
  00382	8d 4d f0	 lea	 ecx, DWORD PTR $T47[ebp]
  00385	ff 25 00 00 00
	00		 jmp	 DWORD PTR __imp_??1?$CStringT@DV?$StrTraitMFC_DLL@DV?$ChTraitsCRT@D@ATL@@@@@ATL@@QAE@XZ
$LN489@GenerateAn:
  0038b	c3		 ret	 0
__unwindfunclet$?GenerateAndSetChartListInfo@CSimpleCompareChartAddInImp@@IAEXXZ$77:
  0038c	8b 45 e8	 mov	 eax, DWORD PTR $T39[ebp]
  0038f	25 00 00 00 01	 and	 eax, 16777216		; 01000000H
  00394	0f 84 10 00 00
	00		 je	 $LN505@GenerateAn
  0039a	81 65 e8 ff ff
	ff fe		 and	 DWORD PTR $T39[ebp], -16777217 ; feffffffH
  003a1	8d 4d e4	 lea	 ecx, DWORD PTR $T33[ebp]
  003a4	ff 25 00 00 00
	00		 jmp	 DWORD PTR __imp_??1?$CStringT@DV?$StrTraitMFC_DLL@DV?$ChTraitsCRT@D@ATL@@@@@ATL@@QAE@XZ
$LN505@GenerateAn:
  003aa	c3		 ret	 0
__unwindfunclet$?GenerateAndSetChartListInfo@CSimpleCompareChartAddInImp@@IAEXXZ$47:
  003ab	8d 4d d0	 lea	 ecx, DWORD PTR _strBlock$14[ebp]
  003ae	ff 25 00 00 00
	00		 jmp	 DWORD PTR __imp_??1?$CStringT@DV?$StrTraitMFC_DLL@DV?$ChTraitsCRT@D@ATL@@@@@ATL@@QAE@XZ
__unwindfunclet$?GenerateAndSetChartListInfo@CSimpleCompareChartAddInImp@@IAEXXZ$78:
  003b4	8b 45 e8	 mov	 eax, DWORD PTR $T39[ebp]
  003b7	25 00 00 00 02	 and	 eax, 33554432		; 02000000H
  003bc	0f 84 10 00 00
	00		 je	 $LN524@GenerateAn
  003c2	81 65 e8 ff ff
	ff fd		 and	 DWORD PTR $T39[ebp], -33554433 ; fdffffffH
  003c9	8d 4d e0	 lea	 ecx, DWORD PTR $T26[ebp]
  003cc	ff 25 00 00 00
	00		 jmp	 DWORD PTR __imp_??1?$CStringT@DV?$StrTraitMFC_DLL@DV?$ChTraitsCRT@D@ATL@@@@@ATL@@QAE@XZ
$LN524@GenerateAn:
  003d2	c3		 ret	 0
__unwindfunclet$?GenerateAndSetChartListInfo@CSimpleCompareChartAddInImp@@IAEXXZ$79:
  003d3	8b 45 e8	 mov	 eax, DWORD PTR $T39[ebp]
  003d6	25 00 00 00 04	 and	 eax, 67108864		; 04000000H
  003db	0f 84 10 00 00
	00		 je	 $LN537@GenerateAn
  003e1	81 65 e8 ff ff
	ff fb		 and	 DWORD PTR $T39[ebp], -67108865 ; fbffffffH
  003e8	8d 4d f0	 lea	 ecx, DWORD PTR $T46[ebp]
  003eb	ff 25 00 00 00
	00		 jmp	 DWORD PTR __imp_??1?$CStringT@DV?$StrTraitMFC_DLL@DV?$ChTraitsCRT@D@ATL@@@@@ATL@@QAE@XZ
$LN537@GenerateAn:
  003f1	c3		 ret	 0
__unwindfunclet$?GenerateAndSetChartListInfo@CSimpleCompareChartAddInImp@@IAEXXZ$80:
  003f2	8b 45 e8	 mov	 eax, DWORD PTR $T39[ebp]
  003f5	25 00 00 00 08	 and	 eax, 134217728		; 08000000H
  003fa	0f 84 10 00 00
	00		 je	 $LN553@GenerateAn
  00400	81 65 e8 ff ff
	ff f7		 and	 DWORD PTR $T39[ebp], -134217729 ; f7ffffffH
  00407	8d 4d e4	 lea	 ecx, DWORD PTR $T32[ebp]
  0040a	ff 25 00 00 00
	00		 jmp	 DWORD PTR __imp_??1?$CStringT@DV?$StrTraitMFC_DLL@DV?$ChTraitsCRT@D@ATL@@@@@ATL@@QAE@XZ
$LN553@GenerateAn:
  00410	c3		 ret	 0
__unwindfunclet$?GenerateAndSetChartListInfo@CSimpleCompareChartAddInImp@@IAEXXZ$81:
  00411	8b 45 e8	 mov	 eax, DWORD PTR $T39[ebp]
  00414	25 00 00 00 10	 and	 eax, 268435456		; 10000000H
  00419	0f 84 10 00 00
	00		 je	 $LN566@GenerateAn
  0041f	81 65 e8 ff ff
	ff ef		 and	 DWORD PTR $T39[ebp], -268435457 ; efffffffH
  00426	8d 4d f0	 lea	 ecx, DWORD PTR $T45[ebp]
  00429	ff 25 00 00 00
	00		 jmp	 DWORD PTR __imp_??1?$CStringT@DV?$StrTraitMFC_DLL@DV?$ChTraitsCRT@D@ATL@@@@@ATL@@QAE@XZ
$LN566@GenerateAn:
  0042f	c3		 ret	 0
__unwindfunclet$?GenerateAndSetChartListInfo@CSimpleCompareChartAddInImp@@IAEXXZ$82:
  00430	8b 45 e8	 mov	 eax, DWORD PTR $T39[ebp]
  00433	25 00 00 00 20	 and	 eax, 536870912		; 20000000H
  00438	0f 84 10 00 00
	00		 je	 $LN579@GenerateAn
  0043e	81 65 e8 ff ff
	ff df		 and	 DWORD PTR $T39[ebp], -536870913 ; dfffffffH
  00445	8d 4d e4	 lea	 ecx, DWORD PTR $T31[ebp]
  00448	ff 25 00 00 00
	00		 jmp	 DWORD PTR __imp_??1?$CStringT@DV?$StrTraitMFC_DLL@DV?$ChTraitsCRT@D@ATL@@@@@ATL@@QAE@XZ
$LN579@GenerateAn:
  0044e	c3		 ret	 0
  0044f	cc		 int	 3
  00450	cc		 int	 3
  00451	cc		 int	 3
  00452	cc		 int	 3
  00453	cc		 int	 3
__ehhandler$?GenerateAndSetChartListInfo@CSimpleCompareChartAddInImp@@IAEXXZ:
  00454	90		 npad	 1
  00455	90		 npad	 1
  00456	8b 54 24 08	 mov	 edx, DWORD PTR [esp+8]
  0045a	8d 42 0c	 lea	 eax, DWORD PTR [edx+12]
  0045d	8b 8a 6c ff ff
	ff		 mov	 ecx, DWORD PTR [edx-148]
  00463	33 c8		 xor	 ecx, eax
  00465	e8 00 00 00 00	 call	 @__security_check_cookie@4
  0046a	b8 00 00 00 00	 mov	 eax, OFFSET __ehfuncinfo$?GenerateAndSetChartListInfo@CSimpleCompareChartAddInImp@@IAEXXZ
  0046f	e9 00 00 00 00	 jmp	 ___CxxFrameHandler3
text$x	ENDS
?GenerateAndSetChartListInfo@CSimpleCompareChartAddInImp@@IAEXXZ ENDP ; CSimpleCompareChartAddInImp::GenerateAndSetChartListInfo
; Function compile flags: /Ogtp
; File D:\git\src\IBK\IBK_DRFN\ProjSrc\SrcChartEx\ChartOCX\AddInManager\ChartCommonAddIn\SimpleCompareChartAddInImp.cpp
; File D:\git\src\IBK\IBK_DRFN\ProjSrc\SrcChartEx\ChartOCX\AddInManager\Include_AddIn\I000000\_IString.h
; File D:\git\src\IBK\IBK_DRFN\ProjSrc\SrcChartEx\ChartOCX\AddInManager\ChartCommonAddIn\SimpleCompareChartAddInImp.cpp
; File C:\Program Files (x86)\Microsoft Visual Studio\2019\Community\VC\Tools\MSVC\14.29.30133\atlmfc\include\atlsimpstr.h
; File D:\git\src\IBK\IBK_DRFN\ProjSrc\SrcChartEx\ChartOCX\AddInManager\ChartCommonAddIn\SimpleCompareChartAddInImp.cpp
; File C:\Program Files (x86)\Microsoft Visual Studio\2019\Community\VC\Tools\MSVC\14.29.30133\atlmfc\include\atlsimpstr.h
; File D:\git\src\IBK\IBK_DRFN\ProjSrc\SrcChartEx\ChartOCX\AddInManager\ChartCommonAddIn\SimpleCompareChartAddInImp.cpp
; File C:\Program Files (x86)\Microsoft Visual Studio\2019\Community\VC\Tools\MSVC\14.29.30133\atlmfc\include\cstringt.h
; File D:\git\src\IBK\IBK_DRFN\ProjSrc\SrcChartEx\ChartOCX\AddInManager\ChartCommonAddIn\SimpleCompareChartAddInImp.cpp
; File C:\Program Files (x86)\Microsoft Visual Studio\2019\Community\VC\Tools\MSVC\14.29.30133\atlmfc\include\cstringt.h
; File D:\git\src\IBK\IBK_DRFN\ProjSrc\SrcChartEx\ChartOCX\AddInManager\ChartCommonAddIn\SimpleCompareChartAddInImp.cpp
; File C:\Program Files (x86)\Microsoft Visual Studio\2019\Community\VC\Tools\MSVC\14.29.30133\atlmfc\include\cstringt.h
; File D:\git\src\IBK\IBK_DRFN\ProjSrc\SrcChartEx\ChartOCX\AddInManager\ChartCommonAddIn\SimpleCompareChartAddInImp.cpp
; File C:\Program Files (x86)\Microsoft Visual Studio\2019\Community\VC\Tools\MSVC\14.29.30133\atlmfc\include\atlsimpstr.h
; File D:\git\src\IBK\IBK_DRFN\ProjSrc\SrcChartEx\ChartOCX\AddInManager\ChartCommonAddIn\SimpleCompareChartAddInImp.cpp
; File C:\Program Files (x86)\Microsoft Visual Studio\2019\Community\VC\Tools\MSVC\14.29.30133\atlmfc\include\atlsimpstr.h
; File D:\git\src\IBK\IBK_DRFN\ProjSrc\SrcChartEx\ChartOCX\AddInManager\ChartCommonAddIn\SimpleCompareChartAddInImp.cpp
; File C:\Program Files (x86)\Microsoft Visual Studio\2019\Community\VC\Tools\MSVC\14.29.30133\atlmfc\include\atlsimpstr.h
; File D:\git\src\IBK\IBK_DRFN\ProjSrc\SrcChartEx\ChartOCX\AddInManager\ChartCommonAddIn\SimpleCompareChartAddInImp.cpp
; File C:\Program Files (x86)\Microsoft Visual Studio\2019\Community\VC\Tools\MSVC\14.29.30133\atlmfc\include\atlsimpstr.h
; File D:\git\src\IBK\IBK_DRFN\ProjSrc\SrcChartEx\ChartOCX\AddInManager\ChartCommonAddIn\SimpleCompareChartAddInImp.cpp
; File C:\Program Files (x86)\Microsoft Visual Studio\2019\Community\VC\Tools\MSVC\14.29.30133\atlmfc\include\atlsimpstr.h
; File D:\git\src\IBK\IBK_DRFN\ProjSrc\SrcChartEx\ChartOCX\AddInManager\ChartCommonAddIn\SimpleCompareChartAddInImp.cpp
; File C:\Program Files (x86)\Microsoft Visual Studio\2019\Community\VC\Tools\MSVC\14.29.30133\atlmfc\include\atlsimpstr.h
; File D:\git\src\IBK\IBK_DRFN\ProjSrc\SrcChartEx\ChartOCX\AddInManager\ChartCommonAddIn\SimpleCompareChartAddInImp.cpp
; File C:\Program Files (x86)\Microsoft Visual Studio\2019\Community\VC\Tools\MSVC\14.29.30133\atlmfc\include\cstringt.h
; File D:\git\src\IBK\IBK_DRFN\ProjSrc\SrcChartEx\ChartOCX\AddInManager\ChartCommonAddIn\SimpleCompareChartAddInImp.cpp
; File C:\Program Files (x86)\Microsoft Visual Studio\2019\Community\VC\Tools\MSVC\14.29.30133\atlmfc\include\cstringt.h
; File D:\git\src\IBK\IBK_DRFN\ProjSrc\SrcChartEx\ChartOCX\AddInManager\ChartCommonAddIn\SimpleCompareChartAddInImp.cpp
; File C:\Program Files (x86)\Microsoft Visual Studio\2019\Community\VC\Tools\MSVC\14.29.30133\atlmfc\include\cstringt.h
; File D:\git\src\IBK\IBK_DRFN\ProjSrc\SrcChartEx\ChartOCX\AddInManager\ChartCommonAddIn\SimpleCompareChartAddInImp.cpp
; File C:\Program Files (x86)\Microsoft Visual Studio\2019\Community\VC\Tools\MSVC\14.29.30133\atlmfc\include\afxcoll.inl
; File D:\git\src\IBK\IBK_DRFN\ProjSrc\SrcChartEx\ChartOCX\AddInManager\ChartCommonAddIn\SimpleCompareChartAddInImp.cpp
; File C:\Program Files (x86)\Microsoft Visual Studio\2019\Community\VC\Tools\MSVC\14.29.30133\atlmfc\include\afxcoll.inl
; File D:\git\src\IBK\IBK_DRFN\ProjSrc\SrcChartEx\ChartOCX\AddInManager\ChartCommonAddIn\SimpleCompareChartAddInImp.cpp
; File C:\Program Files (x86)\Microsoft Visual Studio\2019\Community\VC\Tools\MSVC\14.29.30133\atlmfc\include\cstringt.h
; File D:\git\src\IBK\IBK_DRFN\ProjSrc\SrcChartEx\ChartOCX\AddInManager\ChartCommonAddIn\SimpleCompareChartAddInImp.cpp
; File C:\Program Files (x86)\Microsoft Visual Studio\2019\Community\VC\Tools\MSVC\14.29.30133\atlmfc\include\cstringt.h
; File D:\git\src\IBK\IBK_DRFN\ProjSrc\SrcChartEx\ChartOCX\AddInManager\ChartCommonAddIn\SimpleCompareChartAddInImp.cpp
; File C:\Program Files (x86)\Microsoft Visual Studio\2019\Community\VC\Tools\MSVC\14.29.30133\atlmfc\include\cstringt.h
; File D:\git\src\IBK\IBK_DRFN\ProjSrc\SrcChartEx\ChartOCX\AddInManager\ChartCommonAddIn\SimpleCompareChartAddInImp.cpp
; File C:\Program Files (x86)\Microsoft Visual Studio\2019\Community\VC\Tools\MSVC\14.29.30133\atlmfc\include\atlsimpstr.h
; File D:\git\src\IBK\IBK_DRFN\ProjSrc\SrcChartEx\ChartOCX\AddInManager\ChartCommonAddIn\SimpleCompareChartAddInImp.cpp
; File C:\Program Files (x86)\Microsoft Visual Studio\2019\Community\VC\Tools\MSVC\14.29.30133\atlmfc\include\atlsimpstr.h
; File D:\git\src\IBK\IBK_DRFN\ProjSrc\SrcChartEx\ChartOCX\AddInManager\ChartCommonAddIn\SimpleCompareChartAddInImp.cpp
; File C:\Program Files (x86)\Microsoft Visual Studio\2019\Community\VC\Tools\MSVC\14.29.30133\atlmfc\include\atlsimpstr.h
; File D:\git\src\IBK\IBK_DRFN\ProjSrc\SrcChartEx\ChartOCX\AddInManager\ChartCommonAddIn\SimpleCompareChartAddInImp.cpp
; File C:\Program Files (x86)\Microsoft Visual Studio\2019\Community\VC\Tools\MSVC\14.29.30133\atlmfc\include\atlsimpstr.h
; File D:\git\src\IBK\IBK_DRFN\ProjSrc\SrcChartEx\ChartOCX\AddInManager\ChartCommonAddIn\SimpleCompareChartAddInImp.cpp
; File C:\Program Files (x86)\Microsoft Visual Studio\2019\Community\VC\Tools\MSVC\14.29.30133\atlmfc\include\cstringt.h
; File D:\git\src\IBK\IBK_DRFN\ProjSrc\SrcChartEx\ChartOCX\AddInManager\ChartCommonAddIn\SimpleCompareChartAddInImp.cpp
; File C:\Program Files (x86)\Microsoft Visual Studio\2019\Community\VC\Tools\MSVC\14.29.30133\atlmfc\include\cstringt.h
; File D:\git\src\IBK\IBK_DRFN\ProjSrc\SrcChartEx\ChartOCX\AddInManager\ChartCommonAddIn\SimpleCompareChartAddInImp.cpp
; File C:\Program Files (x86)\Microsoft Visual Studio\2019\Community\VC\Tools\MSVC\14.29.30133\atlmfc\include\cstringt.h
; File D:\git\src\IBK\IBK_DRFN\ProjSrc\SrcChartEx\ChartOCX\AddInManager\ChartCommonAddIn\SimpleCompareChartAddInImp.cpp
; File C:\Program Files (x86)\Microsoft Visual Studio\2019\Community\VC\Tools\MSVC\14.29.30133\atlmfc\include\afxcoll.inl
; File D:\git\src\IBK\IBK_DRFN\ProjSrc\SrcChartEx\ChartOCX\AddInManager\ChartCommonAddIn\SimpleCompareChartAddInImp.cpp
; File C:\Program Files (x86)\Microsoft Visual Studio\2019\Community\VC\Tools\MSVC\14.29.30133\atlmfc\include\afxcoll.inl
; File D:\git\src\IBK\IBK_DRFN\ProjSrc\SrcChartEx\ChartOCX\AddInManager\ChartCommonAddIn\SimpleCompareChartAddInImp.cpp
; File C:\Program Files (x86)\Microsoft Visual Studio\2019\Community\VC\Tools\MSVC\14.29.30133\atlmfc\include\cstringt.h
; File D:\git\src\IBK\IBK_DRFN\ProjSrc\SrcChartEx\ChartOCX\AddInManager\ChartCommonAddIn\SimpleCompareChartAddInImp.cpp
; File C:\Program Files (x86)\Microsoft Visual Studio\2019\Community\VC\Tools\MSVC\14.29.30133\atlmfc\include\cstringt.h
; File D:\git\src\IBK\IBK_DRFN\ProjSrc\SrcChartEx\ChartOCX\AddInManager\ChartCommonAddIn\SimpleCompareChartAddInImp.cpp
; File C:\Program Files (x86)\Microsoft Visual Studio\2019\Community\VC\Tools\MSVC\14.29.30133\atlmfc\include\cstringt.h
; File D:\git\src\IBK\IBK_DRFN\ProjSrc\SrcChartEx\ChartOCX\AddInManager\ChartCommonAddIn\SimpleCompareChartAddInImp.cpp
; File C:\Program Files (x86)\Microsoft Visual Studio\2019\Community\VC\Tools\MSVC\14.29.30133\atlmfc\include\atlsimpstr.h
; File D:\git\src\IBK\IBK_DRFN\ProjSrc\SrcChartEx\ChartOCX\AddInManager\ChartCommonAddIn\SimpleCompareChartAddInImp.cpp
; File C:\Program Files (x86)\Microsoft Visual Studio\2019\Community\VC\Tools\MSVC\14.29.30133\atlmfc\include\atlsimpstr.h
; File D:\git\src\IBK\IBK_DRFN\ProjSrc\SrcChartEx\ChartOCX\AddInManager\ChartCommonAddIn\SimpleCompareChartAddInImp.cpp
; File C:\Program Files (x86)\Microsoft Visual Studio\2019\Community\VC\Tools\MSVC\14.29.30133\atlmfc\include\atlsimpstr.h
; File D:\git\src\IBK\IBK_DRFN\ProjSrc\SrcChartEx\ChartOCX\AddInManager\ChartCommonAddIn\SimpleCompareChartAddInImp.cpp
; File C:\Program Files (x86)\Microsoft Visual Studio\2019\Community\VC\Tools\MSVC\14.29.30133\atlmfc\include\atlsimpstr.h
; File D:\git\src\IBK\IBK_DRFN\ProjSrc\SrcChartEx\ChartOCX\AddInManager\ChartCommonAddIn\SimpleCompareChartAddInImp.cpp
; File C:\Program Files (x86)\Microsoft Visual Studio\2019\Community\VC\Tools\MSVC\14.29.30133\atlmfc\include\atlsimpstr.h
; File D:\git\src\IBK\IBK_DRFN\ProjSrc\SrcChartEx\ChartOCX\AddInManager\ChartCommonAddIn\SimpleCompareChartAddInImp.cpp
; File C:\Program Files (x86)\Microsoft Visual Studio\2019\Community\VC\Tools\MSVC\14.29.30133\atlmfc\include\atlsimpstr.h
; File D:\git\src\IBK\IBK_DRFN\ProjSrc\SrcChartEx\ChartOCX\AddInManager\ChartCommonAddIn\SimpleCompareChartAddInImp.cpp
; File C:\Program Files (x86)\Microsoft Visual Studio\2019\Community\VC\Tools\MSVC\14.29.30133\atlmfc\include\atlsimpstr.h
; File D:\git\src\IBK\IBK_DRFN\ProjSrc\SrcChartEx\ChartOCX\AddInManager\ChartCommonAddIn\SimpleCompareChartAddInImp.cpp
; File C:\Program Files (x86)\Microsoft Visual Studio\2019\Community\VC\Tools\MSVC\14.29.30133\atlmfc\include\cstringt.h
; File D:\git\src\IBK\IBK_DRFN\ProjSrc\SrcChartEx\ChartOCX\AddInManager\ChartCommonAddIn\SimpleCompareChartAddInImp.cpp
; File C:\Program Files (x86)\Microsoft Visual Studio\2019\Community\VC\Tools\MSVC\14.29.30133\atlmfc\include\cstringt.h
; File D:\git\src\IBK\IBK_DRFN\ProjSrc\SrcChartEx\ChartOCX\AddInManager\ChartCommonAddIn\SimpleCompareChartAddInImp.cpp
; File C:\Program Files (x86)\Microsoft Visual Studio\2019\Community\VC\Tools\MSVC\14.29.30133\atlmfc\include\cstringt.h
; File D:\git\src\IBK\IBK_DRFN\ProjSrc\SrcChartEx\ChartOCX\AddInManager\ChartCommonAddIn\SimpleCompareChartAddInImp.cpp
; File D:\git\src\IBK\IBK_DRFN\ProjSrc\SrcChartEx\ChartOCX\AddInManager\Include_AddIn\I000000\_IString.h
; File D:\git\src\IBK\IBK_DRFN\ProjSrc\SrcChartEx\ChartOCX\AddInManager\ChartCommonAddIn\SimpleCompareChartAddInImp.cpp
;	COMDAT ?GetAndParseChartListInfo@CSimpleCompareChartAddInImp@@IAEXXZ
_TEXT	SEGMENT
_slBlockList$ = -132					; size = 28
_slVertScaleGroupList$ = -104				; size = 28
_szChartList$ = -76					; size = 8
_psnVertScaleGroup$1$ = -68				; size = 4
$T2 = -64						; size = 4
$T3 = -60						; size = 4
$T4 = -60						; size = 4
$T5 = -60						; size = 4
$T6 = -56						; size = 4
$T7 = -56						; size = 4
$T8 = -56						; size = 4
$T9 = -52						; size = 4
$T10 = -52						; size = 4
$T11 = -52						; size = 4
$T12 = -48						; size = 4
$T13 = -48						; size = 4
$T14 = -48						; size = 4
_psnBlock$1$ = -44					; size = 4
$T15 = -44						; size = 4
$T16 = -44						; size = 4
$T17 = -44						; size = 4
_strGraph1$18 = -40					; size = 4
$T19 = -40						; size = 4
_strGraph2$20 = -36					; size = 4
$T21 = -36						; size = 4
_strGraphTitle$22 = -32					; size = 4
$T23 = -32						; size = 4
$T24 = -32						; size = 4
_strVertScaleGroup$25 = -28				; size = 4
_strBlock$26 = -28					; size = 4
_strBlockInfo$27 = -28					; size = 4
_strBlockInfo2$ = -24					; size = 4
_strChartList$ = -20					; size = 4
_strGraph$28 = -16					; size = 4
_strVertScaleGroup$29 = -16				; size = 4
_strBlock$30 = -16					; size = 4
__$EHRec$ = -12						; size = 12
?GetAndParseChartListInfo@CSimpleCompareChartAddInImp@@IAEXXZ PROC ; CSimpleCompareChartAddInImp::GetAndParseChartListInfo, COMDAT
; _this$ = ecx

; 92   : {

  00000	55		 push	 ebp
  00001	8b ec		 mov	 ebp, esp
  00003	6a ff		 push	 -1
  00005	68 00 00 00 00	 push	 __ehhandler$?GetAndParseChartListInfo@CSimpleCompareChartAddInImp@@IAEXXZ
  0000a	64 a1 00 00 00
	00		 mov	 eax, DWORD PTR fs:0
  00010	50		 push	 eax
  00011	83 ec 78	 sub	 esp, 120		; 00000078H
  00014	53		 push	 ebx
  00015	56		 push	 esi
  00016	57		 push	 edi
  00017	a1 00 00 00 00	 mov	 eax, DWORD PTR ___security_cookie
  0001c	33 c5		 xor	 eax, ebp
  0001e	50		 push	 eax
  0001f	8d 45 f4	 lea	 eax, DWORD PTR __$EHRec$[ebp]
  00022	64 a3 00 00 00
	00		 mov	 DWORD PTR fs:0, eax
  00028	8b f1		 mov	 esi, ecx

; 93   : 	ILPCSTR szChartList = m_pIChartOCX->GetChartList();

  0002a	8b 4e 0c	 mov	 ecx, DWORD PTR [esi+12]
  0002d	8b 01		 mov	 eax, DWORD PTR [ecx]
  0002f	ff 90 94 01 00
	00		 call	 DWORD PTR [eax+404]
; File D:\git\src\IBK\IBK_DRFN\ProjSrc\SrcChartEx\ChartOCX\AddInManager\Include_AddIn\I000000\_IString.h

; 39   : 		m_pIStrData = p_pIString;	// Do not AddRef(). Because It must be Return Value.

  00035	89 45 b8	 mov	 DWORD PTR _szChartList$[ebp+4], eax

; 40   : 		if( m_pIStrData) m_szData = m_pIStrData->GetData();

  00038	85 c0		 test	 eax, eax
  0003a	74 09		 je	 SHORT $LN51@GetAndPars
  0003c	8b 10		 mov	 edx, DWORD PTR [eax]
  0003e	8b c8		 mov	 ecx, eax
  00040	ff 52 10	 call	 DWORD PTR [edx+16]
  00043	eb 02		 jmp	 SHORT $LN157@GetAndPars
$LN51@GetAndPars:

; 41   : 		else m_szData = NULL;

  00045	33 c0		 xor	 eax, eax
$LN157@GetAndPars:
; File D:\git\src\IBK\IBK_DRFN\ProjSrc\SrcChartEx\ChartOCX\AddInManager\ChartCommonAddIn\SimpleCompareChartAddInImp.cpp

; 93   : 	ILPCSTR szChartList = m_pIChartOCX->GetChartList();

  00047	89 45 b4	 mov	 DWORD PTR _szChartList$[ebp], eax

; 94   : 	CString strChartList = szChartList;

  0004a	50		 push	 eax
  0004b	8d 4d ec	 lea	 ecx, DWORD PTR _strChartList$[ebp]
  0004e	c7 45 fc 00 00
	00 00		 mov	 DWORD PTR __$EHRec$[ebp+8], 0
  00055	ff 15 00 00 00
	00		 call	 DWORD PTR __imp_??0?$CStringT@DV?$StrTraitMFC_DLL@DV?$ChTraitsCRT@D@ATL@@@@@ATL@@QAE@PBD@Z
; File C:\Program Files (x86)\Microsoft Visual Studio\2019\Community\VC\Tools\MSVC\14.29.30133\atlmfc\include\atlsimpstr.h

; 519  : 		return( GetData()->nDataLength );

  0005b	8b 45 ec	 mov	 eax, DWORD PTR _strChartList$[ebp]
; File D:\git\src\IBK\IBK_DRFN\ProjSrc\SrcChartEx\ChartOCX\AddInManager\ChartCommonAddIn\SimpleCompareChartAddInImp.cpp

; 97   : 	strChartList = strChartList.Mid( m_nBlockColumnHeaderLen, strChartList.GetLength() - m_nBlockColumnHeaderLen - m_nBlockColumnFooterLen);

  0005e	8b 4e 40	 mov	 ecx, DWORD PTR [esi+64]
  00061	c6 45 fc 01	 mov	 BYTE PTR __$EHRec$[ebp+8], 1
; File C:\Program Files (x86)\Microsoft Visual Studio\2019\Community\VC\Tools\MSVC\14.29.30133\atlmfc\include\atlsimpstr.h

; 519  : 		return( GetData()->nDataLength );

  00065	8b 40 f4	 mov	 eax, DWORD PTR [eax-12]
; File D:\git\src\IBK\IBK_DRFN\ProjSrc\SrcChartEx\ChartOCX\AddInManager\ChartCommonAddIn\SimpleCompareChartAddInImp.cpp

; 97   : 	strChartList = strChartList.Mid( m_nBlockColumnHeaderLen, strChartList.GetLength() - m_nBlockColumnHeaderLen - m_nBlockColumnFooterLen);

  00068	2b 46 44	 sub	 eax, DWORD PTR [esi+68]
  0006b	2b c1		 sub	 eax, ecx
  0006d	50		 push	 eax
  0006e	51		 push	 ecx
  0006f	8d 45 d4	 lea	 eax, DWORD PTR $T17[ebp]
  00072	50		 push	 eax
  00073	8d 4d ec	 lea	 ecx, DWORD PTR _strChartList$[ebp]
  00076	ff 15 00 00 00
	00		 call	 DWORD PTR __imp_?Mid@?$CStringT@DV?$StrTraitMFC_DLL@DV?$ChTraitsCRT@D@ATL@@@@@ATL@@QBE?AV12@HH@Z
  0007c	50		 push	 eax
  0007d	8d 4d ec	 lea	 ecx, DWORD PTR _strChartList$[ebp]
  00080	c6 45 fc 02	 mov	 BYTE PTR __$EHRec$[ebp+8], 2
  00084	ff 15 00 00 00
	00		 call	 DWORD PTR __imp_??4?$CStringT@DV?$StrTraitMFC_DLL@DV?$ChTraitsCRT@D@ATL@@@@@ATL@@QAEAAV01@ABV01@@Z
  0008a	8d 4d d4	 lea	 ecx, DWORD PTR $T17[ebp]
  0008d	c6 45 fc 01	 mov	 BYTE PTR __$EHRec$[ebp+8], 1
  00091	ff 15 00 00 00
	00		 call	 DWORD PTR __imp_??1?$CStringT@DV?$StrTraitMFC_DLL@DV?$ChTraitsCRT@D@ATL@@@@@ATL@@QAE@XZ

; 98   : 
; 99   : 	// 2. Devide to each Block
; 100  : 	CStringList slBlockList;

  00097	6a 0a		 push	 10			; 0000000aH
  00099	8d 8d 7c ff ff
	ff		 lea	 ecx, DWORD PTR _slBlockList$[ebp]
  0009f	e8 00 00 00 00	 call	 ??0CStringList@@QAE@H@Z	; CStringList::CStringList

; 101  : 	m_nBlockInfo2 = 3;
; 102  : 	CString strBlockInfo2;

  000a4	8d 4d e8	 lea	 ecx, DWORD PTR _strBlockInfo2$[ebp]
  000a7	c7 46 68 03 00
	00 00		 mov	 DWORD PTR [esi+104], 3
  000ae	ff 15 00 00 00
	00		 call	 DWORD PTR __imp_??0?$CStringT@DV?$StrTraitMFC_DLL@DV?$ChTraitsCRT@D@ATL@@@@@ATL@@QAE@XZ

; 103  : 	while( strChartList.Left( m_nBlockHeaderLen) == _BLOCK_HEADER)

  000b4	ff 76 48	 push	 DWORD PTR [esi+72]
  000b7	8d 45 e0	 lea	 eax, DWORD PTR $T24[ebp]
  000ba	c6 45 fc 04	 mov	 BYTE PTR __$EHRec$[ebp+8], 4
  000be	50		 push	 eax
  000bf	8d 4d ec	 lea	 ecx, DWORD PTR _strChartList$[ebp]
  000c2	ff 15 00 00 00
	00		 call	 DWORD PTR __imp_?Left@?$CStringT@DV?$StrTraitMFC_DLL@DV?$ChTraitsCRT@D@ATL@@@@@ATL@@QBE?AV12@H@Z
; File C:\Program Files (x86)\Microsoft Visual Studio\2019\Community\VC\Tools\MSVC\14.29.30133\atlmfc\include\cstringt.h

; 2486 : 		return(str1.Compare(psz2) == 0);

  000c8	68 00 00 00 00	 push	 OFFSET ??_C@_08KGLHHGPJ@Block?$DL?$AN?6@
  000cd	8b c8		 mov	 ecx, eax
; File D:\git\src\IBK\IBK_DRFN\ProjSrc\SrcChartEx\ChartOCX\AddInManager\ChartCommonAddIn\SimpleCompareChartAddInImp.cpp

; 103  : 	while( strChartList.Left( m_nBlockHeaderLen) == _BLOCK_HEADER)

  000cf	c6 45 fc 05	 mov	 BYTE PTR __$EHRec$[ebp+8], 5
; File C:\Program Files (x86)\Microsoft Visual Studio\2019\Community\VC\Tools\MSVC\14.29.30133\atlmfc\include\cstringt.h

; 2486 : 		return(str1.Compare(psz2) == 0);

  000d3	ff 15 00 00 00
	00		 call	 DWORD PTR __imp_?Compare@?$CStringT@DV?$StrTraitMFC_DLL@DV?$ChTraitsCRT@D@ATL@@@@@ATL@@QBEHPBD@Z
; File D:\git\src\IBK\IBK_DRFN\ProjSrc\SrcChartEx\ChartOCX\AddInManager\ChartCommonAddIn\SimpleCompareChartAddInImp.cpp

; 103  : 	while( strChartList.Left( m_nBlockHeaderLen) == _BLOCK_HEADER)

  000d9	8d 4d e0	 lea	 ecx, DWORD PTR $T24[ebp]
  000dc	c6 45 fc 04	 mov	 BYTE PTR __$EHRec$[ebp+8], 4
; File C:\Program Files (x86)\Microsoft Visual Studio\2019\Community\VC\Tools\MSVC\14.29.30133\atlmfc\include\cstringt.h

; 2486 : 		return(str1.Compare(psz2) == 0);

  000e0	8b f8		 mov	 edi, eax
; File D:\git\src\IBK\IBK_DRFN\ProjSrc\SrcChartEx\ChartOCX\AddInManager\ChartCommonAddIn\SimpleCompareChartAddInImp.cpp

; 103  : 	while( strChartList.Left( m_nBlockHeaderLen) == _BLOCK_HEADER)

  000e2	ff 15 00 00 00
	00		 call	 DWORD PTR __imp_??1?$CStringT@DV?$StrTraitMFC_DLL@DV?$ChTraitsCRT@D@ATL@@@@@ATL@@QAE@XZ
  000e8	85 ff		 test	 edi, edi
  000ea	0f 85 38 02 00
	00		 jne	 $LN3@GetAndPars
  000f0	8d 7e 6c	 lea	 edi, DWORD PTR [esi+108]
$LL2@GetAndPars:

; 104  : 	{
; 105  : 		CString strBlock = strChartList.Left( strChartList.Find( _BLOCK_FOOTER) + m_nBlockFooterLen);

  000f3	6a 00		 push	 0
  000f5	68 00 00 00 00	 push	 OFFSET ??_C@_0M@FHFNKLHB@BlockEnd?$DL?$AN?6@
  000fa	8d 4d ec	 lea	 ecx, DWORD PTR _strChartList$[ebp]
  000fd	ff 15 00 00 00
	00		 call	 DWORD PTR __imp_?Find@?$CStringT@DV?$StrTraitMFC_DLL@DV?$ChTraitsCRT@D@ATL@@@@@ATL@@QBEHPBDH@Z
  00103	03 46 4c	 add	 eax, DWORD PTR [esi+76]
  00106	8d 4d ec	 lea	 ecx, DWORD PTR _strChartList$[ebp]
  00109	50		 push	 eax
  0010a	8d 45 f0	 lea	 eax, DWORD PTR _strBlock$30[ebp]
  0010d	50		 push	 eax
  0010e	ff 15 00 00 00
	00		 call	 DWORD PTR __imp_?Left@?$CStringT@DV?$StrTraitMFC_DLL@DV?$ChTraitsCRT@D@ATL@@@@@ATL@@QBE?AV12@H@Z
; File C:\Program Files (x86)\Microsoft Visual Studio\2019\Community\VC\Tools\MSVC\14.29.30133\atlmfc\include\atlsimpstr.h

; 519  : 		return( GetData()->nDataLength );

  00114	8b 45 f0	 mov	 eax, DWORD PTR _strBlock$30[ebp]
; File D:\git\src\IBK\IBK_DRFN\ProjSrc\SrcChartEx\ChartOCX\AddInManager\ChartCommonAddIn\SimpleCompareChartAddInImp.cpp

; 106  : 		strChartList = strChartList.Mid( strBlock.GetLength());

  00117	8d 4d ec	 lea	 ecx, DWORD PTR _strChartList$[ebp]
  0011a	c6 45 fc 06	 mov	 BYTE PTR __$EHRec$[ebp+8], 6
  0011e	ff 70 f4	 push	 DWORD PTR [eax-12]
  00121	8d 45 d4	 lea	 eax, DWORD PTR $T16[ebp]
  00124	50		 push	 eax
  00125	ff 15 00 00 00
	00		 call	 DWORD PTR __imp_?Mid@?$CStringT@DV?$StrTraitMFC_DLL@DV?$ChTraitsCRT@D@ATL@@@@@ATL@@QBE?AV12@H@Z
  0012b	50		 push	 eax
  0012c	8d 4d ec	 lea	 ecx, DWORD PTR _strChartList$[ebp]
  0012f	c6 45 fc 07	 mov	 BYTE PTR __$EHRec$[ebp+8], 7
  00133	ff 15 00 00 00
	00		 call	 DWORD PTR __imp_??4?$CStringT@DV?$StrTraitMFC_DLL@DV?$ChTraitsCRT@D@ATL@@@@@ATL@@QAEAAV01@ABV01@@Z
  00139	8d 4d d4	 lea	 ecx, DWORD PTR $T16[ebp]
  0013c	c6 45 fc 06	 mov	 BYTE PTR __$EHRec$[ebp+8], 6
  00140	ff 15 00 00 00
	00		 call	 DWORD PTR __imp_??1?$CStringT@DV?$StrTraitMFC_DLL@DV?$ChTraitsCRT@D@ATL@@@@@ATL@@QAE@XZ
; File C:\Program Files (x86)\Microsoft Visual Studio\2019\Community\VC\Tools\MSVC\14.29.30133\atlmfc\include\atlsimpstr.h

; 519  : 		return( GetData()->nDataLength );

  00146	8b 45 f0	 mov	 eax, DWORD PTR _strBlock$30[ebp]
; File D:\git\src\IBK\IBK_DRFN\ProjSrc\SrcChartEx\ChartOCX\AddInManager\ChartCommonAddIn\SimpleCompareChartAddInImp.cpp

; 107  : 		strBlock = strBlock.Mid( m_nBlockHeaderLen, strBlock.GetLength() - m_nBlockHeaderLen - m_nBlockFooterLen);

  00149	8b 4e 48	 mov	 ecx, DWORD PTR [esi+72]
; File C:\Program Files (x86)\Microsoft Visual Studio\2019\Community\VC\Tools\MSVC\14.29.30133\atlmfc\include\atlsimpstr.h

; 519  : 		return( GetData()->nDataLength );

  0014c	8b 40 f4	 mov	 eax, DWORD PTR [eax-12]
; File D:\git\src\IBK\IBK_DRFN\ProjSrc\SrcChartEx\ChartOCX\AddInManager\ChartCommonAddIn\SimpleCompareChartAddInImp.cpp

; 107  : 		strBlock = strBlock.Mid( m_nBlockHeaderLen, strBlock.GetLength() - m_nBlockHeaderLen - m_nBlockFooterLen);

  0014f	2b c1		 sub	 eax, ecx
  00151	2b 46 4c	 sub	 eax, DWORD PTR [esi+76]
  00154	50		 push	 eax
  00155	51		 push	 ecx
  00156	8d 45 d8	 lea	 eax, DWORD PTR $T19[ebp]
  00159	50		 push	 eax
  0015a	8d 4d f0	 lea	 ecx, DWORD PTR _strBlock$30[ebp]
  0015d	ff 15 00 00 00
	00		 call	 DWORD PTR __imp_?Mid@?$CStringT@DV?$StrTraitMFC_DLL@DV?$ChTraitsCRT@D@ATL@@@@@ATL@@QBE?AV12@HH@Z
  00163	50		 push	 eax
  00164	8d 4d f0	 lea	 ecx, DWORD PTR _strBlock$30[ebp]
  00167	c6 45 fc 08	 mov	 BYTE PTR __$EHRec$[ebp+8], 8
  0016b	ff 15 00 00 00
	00		 call	 DWORD PTR __imp_??4?$CStringT@DV?$StrTraitMFC_DLL@DV?$ChTraitsCRT@D@ATL@@@@@ATL@@QAEAAV01@ABV01@@Z
  00171	8d 4d d8	 lea	 ecx, DWORD PTR $T19[ebp]
  00174	c6 45 fc 06	 mov	 BYTE PTR __$EHRec$[ebp+8], 6
  00178	ff 15 00 00 00
	00		 call	 DWORD PTR __imp_??1?$CStringT@DV?$StrTraitMFC_DLL@DV?$ChTraitsCRT@D@ATL@@@@@ATL@@QAE@XZ

; 108  : 
; 109  : 		CString strBlockInfo = strBlock.Left( strBlock.Find( "\r\n") + 2);

  0017e	6a 00		 push	 0
  00180	68 00 00 00 00	 push	 OFFSET ??_C@_02PCIJFNDE@?$AN?6@
  00185	8d 4d f0	 lea	 ecx, DWORD PTR _strBlock$30[ebp]
  00188	ff 15 00 00 00
	00		 call	 DWORD PTR __imp_?Find@?$CStringT@DV?$StrTraitMFC_DLL@DV?$ChTraitsCRT@D@ATL@@@@@ATL@@QBEHPBDH@Z
  0018e	83 c0 02	 add	 eax, 2
  00191	8d 4d f0	 lea	 ecx, DWORD PTR _strBlock$30[ebp]
  00194	50		 push	 eax
  00195	8d 45 e4	 lea	 eax, DWORD PTR _strBlockInfo$27[ebp]
  00198	50		 push	 eax
  00199	ff 15 00 00 00
	00		 call	 DWORD PTR __imp_?Left@?$CStringT@DV?$StrTraitMFC_DLL@DV?$ChTraitsCRT@D@ATL@@@@@ATL@@QBE?AV12@H@Z
; File C:\Program Files (x86)\Microsoft Visual Studio\2019\Community\VC\Tools\MSVC\14.29.30133\atlmfc\include\atlsimpstr.h

; 519  : 		return( GetData()->nDataLength );

  0019f	8b 45 e4	 mov	 eax, DWORD PTR _strBlockInfo$27[ebp]
; File D:\git\src\IBK\IBK_DRFN\ProjSrc\SrcChartEx\ChartOCX\AddInManager\ChartCommonAddIn\SimpleCompareChartAddInImp.cpp

; 110  : 		strBlock = strBlock.Mid( strBlockInfo.GetLength());

  001a2	8d 4d f0	 lea	 ecx, DWORD PTR _strBlock$30[ebp]
  001a5	c6 45 fc 09	 mov	 BYTE PTR __$EHRec$[ebp+8], 9
  001a9	ff 70 f4	 push	 DWORD PTR [eax-12]
  001ac	8d 45 dc	 lea	 eax, DWORD PTR $T21[ebp]
  001af	50		 push	 eax
  001b0	ff 15 00 00 00
	00		 call	 DWORD PTR __imp_?Mid@?$CStringT@DV?$StrTraitMFC_DLL@DV?$ChTraitsCRT@D@ATL@@@@@ATL@@QBE?AV12@H@Z
  001b6	50		 push	 eax
  001b7	8d 4d f0	 lea	 ecx, DWORD PTR _strBlock$30[ebp]
  001ba	c6 45 fc 0a	 mov	 BYTE PTR __$EHRec$[ebp+8], 10 ; 0000000aH
  001be	ff 15 00 00 00
	00		 call	 DWORD PTR __imp_??4?$CStringT@DV?$StrTraitMFC_DLL@DV?$ChTraitsCRT@D@ATL@@@@@ATL@@QAEAAV01@ABV01@@Z
  001c4	8d 4d dc	 lea	 ecx, DWORD PTR $T21[ebp]
  001c7	c6 45 fc 09	 mov	 BYTE PTR __$EHRec$[ebp+8], 9
  001cb	ff 15 00 00 00
	00		 call	 DWORD PTR __imp_??1?$CStringT@DV?$StrTraitMFC_DLL@DV?$ChTraitsCRT@D@ATL@@@@@ATL@@QAE@XZ

; 111  : 
; 112  : 		m_strBlockInfo1 = strBlockInfo.Left( strBlockInfo.Find( ';') + 1);

  001d1	6a 00		 push	 0
  001d3	6a 3b		 push	 59			; 0000003bH
  001d5	8d 4d e4	 lea	 ecx, DWORD PTR _strBlockInfo$27[ebp]
  001d8	ff 15 00 00 00
	00		 call	 DWORD PTR __imp_?Find@?$CStringT@DV?$StrTraitMFC_DLL@DV?$ChTraitsCRT@D@ATL@@@@@ATL@@QBEHDH@Z
  001de	40		 inc	 eax
  001df	8d 4d e4	 lea	 ecx, DWORD PTR _strBlockInfo$27[ebp]
  001e2	50		 push	 eax
  001e3	8d 45 d0	 lea	 eax, DWORD PTR $T14[ebp]
  001e6	50		 push	 eax
  001e7	ff 15 00 00 00
	00		 call	 DWORD PTR __imp_?Left@?$CStringT@DV?$StrTraitMFC_DLL@DV?$ChTraitsCRT@D@ATL@@@@@ATL@@QBE?AV12@H@Z
  001ed	50		 push	 eax
  001ee	8d 4e 64	 lea	 ecx, DWORD PTR [esi+100]
  001f1	c6 45 fc 0b	 mov	 BYTE PTR __$EHRec$[ebp+8], 11 ; 0000000bH
  001f5	ff 15 00 00 00
	00		 call	 DWORD PTR __imp_??4?$CStringT@DV?$StrTraitMFC_DLL@DV?$ChTraitsCRT@D@ATL@@@@@ATL@@QAEAAV01@ABV01@@Z
  001fb	8d 4d d0	 lea	 ecx, DWORD PTR $T14[ebp]
  001fe	c6 45 fc 09	 mov	 BYTE PTR __$EHRec$[ebp+8], 9
  00202	ff 15 00 00 00
	00		 call	 DWORD PTR __imp_??1?$CStringT@DV?$StrTraitMFC_DLL@DV?$ChTraitsCRT@D@ATL@@@@@ATL@@QAE@XZ
; File C:\Program Files (x86)\Microsoft Visual Studio\2019\Community\VC\Tools\MSVC\14.29.30133\atlmfc\include\atlsimpstr.h

; 519  : 		return( GetData()->nDataLength );

  00208	8b 46 64	 mov	 eax, DWORD PTR [esi+100]
; File D:\git\src\IBK\IBK_DRFN\ProjSrc\SrcChartEx\ChartOCX\AddInManager\ChartCommonAddIn\SimpleCompareChartAddInImp.cpp

; 113  : 		strBlockInfo2 = strBlockInfo.Mid( m_strBlockInfo1.GetLength());

  0020b	8d 4d e4	 lea	 ecx, DWORD PTR _strBlockInfo$27[ebp]
  0020e	ff 70 f4	 push	 DWORD PTR [eax-12]
  00211	8d 45 cc	 lea	 eax, DWORD PTR $T11[ebp]
  00214	50		 push	 eax
  00215	ff 15 00 00 00
	00		 call	 DWORD PTR __imp_?Mid@?$CStringT@DV?$StrTraitMFC_DLL@DV?$ChTraitsCRT@D@ATL@@@@@ATL@@QBE?AV12@H@Z
  0021b	50		 push	 eax
  0021c	8d 4d e8	 lea	 ecx, DWORD PTR _strBlockInfo2$[ebp]
  0021f	c6 45 fc 0c	 mov	 BYTE PTR __$EHRec$[ebp+8], 12 ; 0000000cH
  00223	ff 15 00 00 00
	00		 call	 DWORD PTR __imp_??4?$CStringT@DV?$StrTraitMFC_DLL@DV?$ChTraitsCRT@D@ATL@@@@@ATL@@QAEAAV01@ABV01@@Z
  00229	8d 4d cc	 lea	 ecx, DWORD PTR $T11[ebp]
  0022c	c6 45 fc 09	 mov	 BYTE PTR __$EHRec$[ebp+8], 9
  00230	ff 15 00 00 00
	00		 call	 DWORD PTR __imp_??1?$CStringT@DV?$StrTraitMFC_DLL@DV?$ChTraitsCRT@D@ATL@@@@@ATL@@QAE@XZ

; 114  : 		m_strBlockInfo3 = strBlockInfo2.Mid( strBlockInfo2.Find( ';'));

  00236	6a 00		 push	 0
  00238	6a 3b		 push	 59			; 0000003bH
  0023a	8d 4d e8	 lea	 ecx, DWORD PTR _strBlockInfo2$[ebp]
  0023d	ff 15 00 00 00
	00		 call	 DWORD PTR __imp_?Find@?$CStringT@DV?$StrTraitMFC_DLL@DV?$ChTraitsCRT@D@ATL@@@@@ATL@@QBEHDH@Z
  00243	50		 push	 eax
  00244	8d 45 c8	 lea	 eax, DWORD PTR $T8[ebp]
  00247	50		 push	 eax
  00248	8d 4d e8	 lea	 ecx, DWORD PTR _strBlockInfo2$[ebp]
  0024b	ff 15 00 00 00
	00		 call	 DWORD PTR __imp_?Mid@?$CStringT@DV?$StrTraitMFC_DLL@DV?$ChTraitsCRT@D@ATL@@@@@ATL@@QBE?AV12@H@Z
  00251	50		 push	 eax
  00252	8b cf		 mov	 ecx, edi
  00254	c6 45 fc 0d	 mov	 BYTE PTR __$EHRec$[ebp+8], 13 ; 0000000dH
  00258	ff 15 00 00 00
	00		 call	 DWORD PTR __imp_??4?$CStringT@DV?$StrTraitMFC_DLL@DV?$ChTraitsCRT@D@ATL@@@@@ATL@@QAEAAV01@ABV01@@Z
  0025e	8d 4d c8	 lea	 ecx, DWORD PTR $T8[ebp]
  00261	c6 45 fc 09	 mov	 BYTE PTR __$EHRec$[ebp+8], 9
  00265	ff 15 00 00 00
	00		 call	 DWORD PTR __imp_??1?$CStringT@DV?$StrTraitMFC_DLL@DV?$ChTraitsCRT@D@ATL@@@@@ATL@@QAE@XZ
; File C:\Program Files (x86)\Microsoft Visual Studio\2019\Community\VC\Tools\MSVC\14.29.30133\atlmfc\include\atlsimpstr.h

; 519  : 		return( GetData()->nDataLength );

  0026b	8b 45 e8	 mov	 eax, DWORD PTR _strBlockInfo2$[ebp]
  0026e	8b 48 f4	 mov	 ecx, DWORD PTR [eax-12]
  00271	8b 07		 mov	 eax, DWORD PTR [edi]
; File D:\git\src\IBK\IBK_DRFN\ProjSrc\SrcChartEx\ChartOCX\AddInManager\ChartCommonAddIn\SimpleCompareChartAddInImp.cpp

; 115  : 		strBlockInfo2 = strBlockInfo2.Left( strBlockInfo2.GetLength() - m_strBlockInfo3.GetLength());

  00273	2b 48 f4	 sub	 ecx, DWORD PTR [eax-12]
  00276	8d 45 c4	 lea	 eax, DWORD PTR $T5[ebp]
  00279	51		 push	 ecx
  0027a	50		 push	 eax
  0027b	8d 4d e8	 lea	 ecx, DWORD PTR _strBlockInfo2$[ebp]
  0027e	ff 15 00 00 00
	00		 call	 DWORD PTR __imp_?Left@?$CStringT@DV?$StrTraitMFC_DLL@DV?$ChTraitsCRT@D@ATL@@@@@ATL@@QBE?AV12@H@Z
  00284	50		 push	 eax
  00285	8d 4d e8	 lea	 ecx, DWORD PTR _strBlockInfo2$[ebp]
  00288	c6 45 fc 0e	 mov	 BYTE PTR __$EHRec$[ebp+8], 14 ; 0000000eH
  0028c	ff 15 00 00 00
	00		 call	 DWORD PTR __imp_??4?$CStringT@DV?$StrTraitMFC_DLL@DV?$ChTraitsCRT@D@ATL@@@@@ATL@@QAEAAV01@ABV01@@Z
  00292	8d 4d c4	 lea	 ecx, DWORD PTR $T5[ebp]
  00295	c6 45 fc 09	 mov	 BYTE PTR __$EHRec$[ebp+8], 9
  00299	ff 15 00 00 00
	00		 call	 DWORD PTR __imp_??1?$CStringT@DV?$StrTraitMFC_DLL@DV?$ChTraitsCRT@D@ATL@@@@@ATL@@QAE@XZ

; 116  : 		int nBlockInfo2 = atoi( strBlockInfo2);

  0029f	ff 75 e8	 push	 DWORD PTR _strBlockInfo2$[ebp]
  002a2	ff 15 00 00 00
	00		 call	 DWORD PTR __imp__atoi

; 117  : 		if( 2 < m_nBlockInfo2)										m_nBlockInfo2 = nBlockInfo2;

  002a8	8b 4e 68	 mov	 ecx, DWORD PTR [esi+104]
  002ab	83 c4 04	 add	 esp, 4
  002ae	83 f9 02	 cmp	 ecx, 2
  002b1	7e 05		 jle	 SHORT $LN12@GetAndPars
  002b3	89 46 68	 mov	 DWORD PTR [esi+104], eax
  002b6	eb 10		 jmp	 SHORT $LN14@GetAndPars
$LN12@GetAndPars:

; 118  : 		else if( m_nBlockInfo2 != nBlockInfo2 && nBlockInfo2 < 3)	m_nBlockInfo2 = 2;

  002b8	3b c8		 cmp	 ecx, eax
  002ba	74 0c		 je	 SHORT $LN14@GetAndPars
  002bc	83 f8 03	 cmp	 eax, 3
  002bf	7d 07		 jge	 SHORT $LN14@GetAndPars
  002c1	c7 46 68 02 00
	00 00		 mov	 DWORD PTR [esi+104], 2
$LN14@GetAndPars:

; 119  : 
; 120  : 		slBlockList.AddTail( strBlock);

  002c8	8d 45 f0	 lea	 eax, DWORD PTR _strBlock$30[ebp]
  002cb	50		 push	 eax
  002cc	8d 8d 7c ff ff
	ff		 lea	 ecx, DWORD PTR _slBlockList$[ebp]
  002d2	e8 00 00 00 00	 call	 ?AddTail@CStringList@@QAEPAU__POSITION@@ABV?$CStringT@DV?$StrTraitMFC_DLL@DV?$ChTraitsCRT@D@ATL@@@@@ATL@@@Z ; CStringList::AddTail

; 121  : 	}

  002d7	8d 4d e4	 lea	 ecx, DWORD PTR _strBlockInfo$27[ebp]
  002da	ff 15 00 00 00
	00		 call	 DWORD PTR __imp_??1?$CStringT@DV?$StrTraitMFC_DLL@DV?$ChTraitsCRT@D@ATL@@@@@ATL@@QAE@XZ
  002e0	8d 4d f0	 lea	 ecx, DWORD PTR _strBlock$30[ebp]
  002e3	c6 45 fc 04	 mov	 BYTE PTR __$EHRec$[ebp+8], 4
  002e7	ff 15 00 00 00
	00		 call	 DWORD PTR __imp_??1?$CStringT@DV?$StrTraitMFC_DLL@DV?$ChTraitsCRT@D@ATL@@@@@ATL@@QAE@XZ
  002ed	ff 76 48	 push	 DWORD PTR [esi+72]
  002f0	8d 45 e0	 lea	 eax, DWORD PTR $T24[ebp]
  002f3	50		 push	 eax
  002f4	8d 4d ec	 lea	 ecx, DWORD PTR _strChartList$[ebp]
  002f7	ff 15 00 00 00
	00		 call	 DWORD PTR __imp_?Left@?$CStringT@DV?$StrTraitMFC_DLL@DV?$ChTraitsCRT@D@ATL@@@@@ATL@@QBE?AV12@H@Z
; File C:\Program Files (x86)\Microsoft Visual Studio\2019\Community\VC\Tools\MSVC\14.29.30133\atlmfc\include\cstringt.h

; 2486 : 		return(str1.Compare(psz2) == 0);

  002fd	68 00 00 00 00	 push	 OFFSET ??_C@_08KGLHHGPJ@Block?$DL?$AN?6@
  00302	8b c8		 mov	 ecx, eax
; File D:\git\src\IBK\IBK_DRFN\ProjSrc\SrcChartEx\ChartOCX\AddInManager\ChartCommonAddIn\SimpleCompareChartAddInImp.cpp

; 103  : 	while( strChartList.Left( m_nBlockHeaderLen) == _BLOCK_HEADER)

  00304	c6 45 fc 05	 mov	 BYTE PTR __$EHRec$[ebp+8], 5
; File C:\Program Files (x86)\Microsoft Visual Studio\2019\Community\VC\Tools\MSVC\14.29.30133\atlmfc\include\cstringt.h

; 2486 : 		return(str1.Compare(psz2) == 0);

  00308	ff 15 00 00 00
	00		 call	 DWORD PTR __imp_?Compare@?$CStringT@DV?$StrTraitMFC_DLL@DV?$ChTraitsCRT@D@ATL@@@@@ATL@@QBEHPBD@Z
; File D:\git\src\IBK\IBK_DRFN\ProjSrc\SrcChartEx\ChartOCX\AddInManager\ChartCommonAddIn\SimpleCompareChartAddInImp.cpp

; 103  : 	while( strChartList.Left( m_nBlockHeaderLen) == _BLOCK_HEADER)

  0030e	8d 4d e0	 lea	 ecx, DWORD PTR $T24[ebp]
  00311	c6 45 fc 04	 mov	 BYTE PTR __$EHRec$[ebp+8], 4
; File C:\Program Files (x86)\Microsoft Visual Studio\2019\Community\VC\Tools\MSVC\14.29.30133\atlmfc\include\cstringt.h

; 2486 : 		return(str1.Compare(psz2) == 0);

  00315	8b f8		 mov	 edi, eax
; File D:\git\src\IBK\IBK_DRFN\ProjSrc\SrcChartEx\ChartOCX\AddInManager\ChartCommonAddIn\SimpleCompareChartAddInImp.cpp

; 103  : 	while( strChartList.Left( m_nBlockHeaderLen) == _BLOCK_HEADER)

  00317	ff 15 00 00 00
	00		 call	 DWORD PTR __imp_??1?$CStringT@DV?$StrTraitMFC_DLL@DV?$ChTraitsCRT@D@ATL@@@@@ATL@@QAE@XZ
  0031d	85 ff		 test	 edi, edi
  0031f	8d 7e 6c	 lea	 edi, DWORD PTR [esi+108]
  00322	0f 84 cb fd ff
	ff		 je	 $LL2@GetAndPars
$LN3@GetAndPars:

; 122  : 
; 123  : 	// 3. Devide to each Vertical Scale Group
; 124  : 	CStringList slVertScaleGroupList;

  00328	6a 0a		 push	 10			; 0000000aH
  0032a	8d 4d 98	 lea	 ecx, DWORD PTR _slVertScaleGroupList$[ebp]
  0032d	e8 00 00 00 00	 call	 ??0CStringList@@QAE@H@Z	; CStringList::CStringList

; 125  : 	POSITION psnBlock = slBlockList.GetHeadPosition();

  00332	8b 5d 80	 mov	 ebx, DWORD PTR _slBlockList$[ebp+4]
  00335	c6 45 fc 0f	 mov	 BYTE PTR __$EHRec$[ebp+8], 15 ; 0000000fH
  00339	85 db		 test	 ebx, ebx

; 126  : 	while( psnBlock)

  0033b	0f 84 bd 01 00
	00		 je	 $LN5@GetAndPars
$LL4@GetAndPars:
; File C:\Program Files (x86)\Microsoft Visual Studio\2019\Community\VC\Tools\MSVC\14.29.30133\atlmfc\include\afxcoll.inl

; 501  : 	{ CNode* pNode = (CNode*) rPosition;

  00341	8b c3		 mov	 eax, ebx

; 502  : 		ASSERT(AfxIsValidAddress(pNode, sizeof(CNode)));
; 503  : 		if( pNode == NULL )

  00343	85 db		 test	 ebx, ebx
  00345	0f 84 e5 04 00
	00		 je	 $LN138@GetAndPars

; 504  : 			AfxThrowInvalidArgException();
; 505  : 		rPosition = (POSITION) pNode->pNext;

  0034b	8b 1b		 mov	 ebx, DWORD PTR [ebx]
; File D:\git\src\IBK\IBK_DRFN\ProjSrc\SrcChartEx\ChartOCX\AddInManager\ChartCommonAddIn\SimpleCompareChartAddInImp.cpp

; 128  : 		CString strBlock = slBlockList.GetNext( psnBlock);

  0034d	8d 4d e4	 lea	 ecx, DWORD PTR _strBlock$26[ebp]
; File C:\Program Files (x86)\Microsoft Visual Studio\2019\Community\VC\Tools\MSVC\14.29.30133\atlmfc\include\afxcoll.inl

; 506  : 		return pNode->data; }

  00350	83 c0 08	 add	 eax, 8
  00353	89 5d d4	 mov	 DWORD PTR _psnBlock$1$[ebp], ebx
; File D:\git\src\IBK\IBK_DRFN\ProjSrc\SrcChartEx\ChartOCX\AddInManager\ChartCommonAddIn\SimpleCompareChartAddInImp.cpp

; 128  : 		CString strBlock = slBlockList.GetNext( psnBlock);

  00356	50		 push	 eax
  00357	ff 15 00 00 00
	00		 call	 DWORD PTR __imp_??0?$CStringT@DV?$StrTraitMFC_DLL@DV?$ChTraitsCRT@D@ATL@@@@@ATL@@QAE@ABV01@@Z

; 129  : 		while( strBlock.Left( m_nVertScaleGroupHeaderLen) == _VERT_SCALE_GROUP_HEADER)

  0035d	ff 76 50	 push	 DWORD PTR [esi+80]
  00360	8d 45 e0	 lea	 eax, DWORD PTR $T23[ebp]
  00363	c6 45 fc 10	 mov	 BYTE PTR __$EHRec$[ebp+8], 16 ; 00000010H
  00367	50		 push	 eax
  00368	8d 4d e4	 lea	 ecx, DWORD PTR _strBlock$26[ebp]
  0036b	ff 15 00 00 00
	00		 call	 DWORD PTR __imp_?Left@?$CStringT@DV?$StrTraitMFC_DLL@DV?$ChTraitsCRT@D@ATL@@@@@ATL@@QBE?AV12@H@Z
; File C:\Program Files (x86)\Microsoft Visual Studio\2019\Community\VC\Tools\MSVC\14.29.30133\atlmfc\include\cstringt.h

; 2486 : 		return(str1.Compare(psz2) == 0);

  00371	68 00 00 00 00	 push	 OFFSET ??_C@_0BC@DJOHDNOJ@VertScaleGroup?$DL?$AN?6@
  00376	8b c8		 mov	 ecx, eax
; File D:\git\src\IBK\IBK_DRFN\ProjSrc\SrcChartEx\ChartOCX\AddInManager\ChartCommonAddIn\SimpleCompareChartAddInImp.cpp

; 129  : 		while( strBlock.Left( m_nVertScaleGroupHeaderLen) == _VERT_SCALE_GROUP_HEADER)

  00378	c6 45 fc 11	 mov	 BYTE PTR __$EHRec$[ebp+8], 17 ; 00000011H
; File C:\Program Files (x86)\Microsoft Visual Studio\2019\Community\VC\Tools\MSVC\14.29.30133\atlmfc\include\cstringt.h

; 2486 : 		return(str1.Compare(psz2) == 0);

  0037c	ff 15 00 00 00
	00		 call	 DWORD PTR __imp_?Compare@?$CStringT@DV?$StrTraitMFC_DLL@DV?$ChTraitsCRT@D@ATL@@@@@ATL@@QBEHPBD@Z
; File D:\git\src\IBK\IBK_DRFN\ProjSrc\SrcChartEx\ChartOCX\AddInManager\ChartCommonAddIn\SimpleCompareChartAddInImp.cpp

; 129  : 		while( strBlock.Left( m_nVertScaleGroupHeaderLen) == _VERT_SCALE_GROUP_HEADER)

  00382	8d 4d e0	 lea	 ecx, DWORD PTR $T23[ebp]
  00385	c6 45 fc 10	 mov	 BYTE PTR __$EHRec$[ebp+8], 16 ; 00000010H
; File C:\Program Files (x86)\Microsoft Visual Studio\2019\Community\VC\Tools\MSVC\14.29.30133\atlmfc\include\cstringt.h

; 2486 : 		return(str1.Compare(psz2) == 0);

  00389	8b f8		 mov	 edi, eax
; File D:\git\src\IBK\IBK_DRFN\ProjSrc\SrcChartEx\ChartOCX\AddInManager\ChartCommonAddIn\SimpleCompareChartAddInImp.cpp

; 129  : 		while( strBlock.Left( m_nVertScaleGroupHeaderLen) == _VERT_SCALE_GROUP_HEADER)

  0038b	ff 15 00 00 00
	00		 call	 DWORD PTR __imp_??1?$CStringT@DV?$StrTraitMFC_DLL@DV?$ChTraitsCRT@D@ATL@@@@@ATL@@QAE@XZ
  00391	85 ff		 test	 edi, edi
  00393	0f 85 50 01 00
	00		 jne	 $LN7@GetAndPars
  00399	0f 1f 80 00 00
	00 00		 npad	 7
$LL6@GetAndPars:

; 130  : 		{
; 131  : 			CString strVertScaleGroup = strBlock.Left( strBlock.Find( _VERT_SCALE_GROUP_FOOTER) + m_nVertScaleGroupFooterLen);

  003a0	6a 00		 push	 0
  003a2	68 00 00 00 00	 push	 OFFSET ??_C@_0BF@DDJNMPKE@VertScaleGroupEnd?$DL?$AN?6@
  003a7	8d 4d e4	 lea	 ecx, DWORD PTR _strBlock$26[ebp]
  003aa	ff 15 00 00 00
	00		 call	 DWORD PTR __imp_?Find@?$CStringT@DV?$StrTraitMFC_DLL@DV?$ChTraitsCRT@D@ATL@@@@@ATL@@QBEHPBDH@Z
  003b0	03 46 54	 add	 eax, DWORD PTR [esi+84]
  003b3	8d 4d e4	 lea	 ecx, DWORD PTR _strBlock$26[ebp]
  003b6	50		 push	 eax
  003b7	8d 45 f0	 lea	 eax, DWORD PTR _strVertScaleGroup$29[ebp]
  003ba	50		 push	 eax
  003bb	ff 15 00 00 00
	00		 call	 DWORD PTR __imp_?Left@?$CStringT@DV?$StrTraitMFC_DLL@DV?$ChTraitsCRT@D@ATL@@@@@ATL@@QBE?AV12@H@Z
; File C:\Program Files (x86)\Microsoft Visual Studio\2019\Community\VC\Tools\MSVC\14.29.30133\atlmfc\include\atlsimpstr.h

; 519  : 		return( GetData()->nDataLength );

  003c1	8b 45 f0	 mov	 eax, DWORD PTR _strVertScaleGroup$29[ebp]
; File D:\git\src\IBK\IBK_DRFN\ProjSrc\SrcChartEx\ChartOCX\AddInManager\ChartCommonAddIn\SimpleCompareChartAddInImp.cpp

; 132  : 			strBlock = strBlock.Mid( strVertScaleGroup.GetLength());

  003c4	8d 4d e4	 lea	 ecx, DWORD PTR _strBlock$26[ebp]
  003c7	c6 45 fc 12	 mov	 BYTE PTR __$EHRec$[ebp+8], 18 ; 00000012H
  003cb	ff 70 f4	 push	 DWORD PTR [eax-12]
  003ce	8d 45 c4	 lea	 eax, DWORD PTR $T4[ebp]
  003d1	50		 push	 eax
  003d2	ff 15 00 00 00
	00		 call	 DWORD PTR __imp_?Mid@?$CStringT@DV?$StrTraitMFC_DLL@DV?$ChTraitsCRT@D@ATL@@@@@ATL@@QBE?AV12@H@Z
  003d8	50		 push	 eax
  003d9	8d 4d e4	 lea	 ecx, DWORD PTR _strBlock$26[ebp]
  003dc	c6 45 fc 13	 mov	 BYTE PTR __$EHRec$[ebp+8], 19 ; 00000013H
  003e0	ff 15 00 00 00
	00		 call	 DWORD PTR __imp_??4?$CStringT@DV?$StrTraitMFC_DLL@DV?$ChTraitsCRT@D@ATL@@@@@ATL@@QAEAAV01@ABV01@@Z
  003e6	8d 4d c4	 lea	 ecx, DWORD PTR $T4[ebp]
  003e9	c6 45 fc 12	 mov	 BYTE PTR __$EHRec$[ebp+8], 18 ; 00000012H
  003ed	ff 15 00 00 00
	00		 call	 DWORD PTR __imp_??1?$CStringT@DV?$StrTraitMFC_DLL@DV?$ChTraitsCRT@D@ATL@@@@@ATL@@QAE@XZ
; File C:\Program Files (x86)\Microsoft Visual Studio\2019\Community\VC\Tools\MSVC\14.29.30133\atlmfc\include\atlsimpstr.h

; 519  : 		return( GetData()->nDataLength );

  003f3	8b 45 f0	 mov	 eax, DWORD PTR _strVertScaleGroup$29[ebp]
; File D:\git\src\IBK\IBK_DRFN\ProjSrc\SrcChartEx\ChartOCX\AddInManager\ChartCommonAddIn\SimpleCompareChartAddInImp.cpp

; 133  : 			strVertScaleGroup = strVertScaleGroup.Mid( m_nVertScaleGroupHeaderLen, strVertScaleGroup.GetLength() - m_nVertScaleGroupHeaderLen - m_nVertScaleGroupFooterLen);

  003f6	8b 4e 50	 mov	 ecx, DWORD PTR [esi+80]
; File C:\Program Files (x86)\Microsoft Visual Studio\2019\Community\VC\Tools\MSVC\14.29.30133\atlmfc\include\atlsimpstr.h

; 519  : 		return( GetData()->nDataLength );

  003f9	8b 40 f4	 mov	 eax, DWORD PTR [eax-12]
; File D:\git\src\IBK\IBK_DRFN\ProjSrc\SrcChartEx\ChartOCX\AddInManager\ChartCommonAddIn\SimpleCompareChartAddInImp.cpp

; 133  : 			strVertScaleGroup = strVertScaleGroup.Mid( m_nVertScaleGroupHeaderLen, strVertScaleGroup.GetLength() - m_nVertScaleGroupHeaderLen - m_nVertScaleGroupFooterLen);

  003fc	2b c1		 sub	 eax, ecx
  003fe	2b 46 54	 sub	 eax, DWORD PTR [esi+84]
  00401	50		 push	 eax
  00402	51		 push	 ecx
  00403	8d 45 c8	 lea	 eax, DWORD PTR $T7[ebp]
  00406	50		 push	 eax
  00407	8d 4d f0	 lea	 ecx, DWORD PTR _strVertScaleGroup$29[ebp]
  0040a	ff 15 00 00 00
	00		 call	 DWORD PTR __imp_?Mid@?$CStringT@DV?$StrTraitMFC_DLL@DV?$ChTraitsCRT@D@ATL@@@@@ATL@@QBE?AV12@HH@Z
  00410	50		 push	 eax
  00411	8d 4d f0	 lea	 ecx, DWORD PTR _strVertScaleGroup$29[ebp]
  00414	c6 45 fc 14	 mov	 BYTE PTR __$EHRec$[ebp+8], 20 ; 00000014H
  00418	ff 15 00 00 00
	00		 call	 DWORD PTR __imp_??4?$CStringT@DV?$StrTraitMFC_DLL@DV?$ChTraitsCRT@D@ATL@@@@@ATL@@QAEAAV01@ABV01@@Z
  0041e	8d 4d c8	 lea	 ecx, DWORD PTR $T7[ebp]
  00421	c6 45 fc 12	 mov	 BYTE PTR __$EHRec$[ebp+8], 18 ; 00000012H
  00425	ff 15 00 00 00
	00		 call	 DWORD PTR __imp_??1?$CStringT@DV?$StrTraitMFC_DLL@DV?$ChTraitsCRT@D@ATL@@@@@ATL@@QAE@XZ

; 134  : 
; 135  : 			m_strVertScaleGroupInfo = strVertScaleGroup.Left( strVertScaleGroup.Find( "\r\n") + 2);

  0042b	6a 00		 push	 0
  0042d	68 00 00 00 00	 push	 OFFSET ??_C@_02PCIJFNDE@?$AN?6@
  00432	8d 4d f0	 lea	 ecx, DWORD PTR _strVertScaleGroup$29[ebp]
  00435	ff 15 00 00 00
	00		 call	 DWORD PTR __imp_?Find@?$CStringT@DV?$StrTraitMFC_DLL@DV?$ChTraitsCRT@D@ATL@@@@@ATL@@QBEHPBDH@Z
  0043b	83 c0 02	 add	 eax, 2
  0043e	8d 4d f0	 lea	 ecx, DWORD PTR _strVertScaleGroup$29[ebp]
  00441	50		 push	 eax
  00442	8d 45 cc	 lea	 eax, DWORD PTR $T10[ebp]
  00445	50		 push	 eax
  00446	ff 15 00 00 00
	00		 call	 DWORD PTR __imp_?Left@?$CStringT@DV?$StrTraitMFC_DLL@DV?$ChTraitsCRT@D@ATL@@@@@ATL@@QBE?AV12@H@Z
  0044c	50		 push	 eax
  0044d	8d 4e 70	 lea	 ecx, DWORD PTR [esi+112]
  00450	c6 45 fc 15	 mov	 BYTE PTR __$EHRec$[ebp+8], 21 ; 00000015H
  00454	ff 15 00 00 00
	00		 call	 DWORD PTR __imp_??4?$CStringT@DV?$StrTraitMFC_DLL@DV?$ChTraitsCRT@D@ATL@@@@@ATL@@QAEAAV01@ABV01@@Z
  0045a	8d 4d cc	 lea	 ecx, DWORD PTR $T10[ebp]
  0045d	c6 45 fc 12	 mov	 BYTE PTR __$EHRec$[ebp+8], 18 ; 00000012H
  00461	ff 15 00 00 00
	00		 call	 DWORD PTR __imp_??1?$CStringT@DV?$StrTraitMFC_DLL@DV?$ChTraitsCRT@D@ATL@@@@@ATL@@QAE@XZ
; File C:\Program Files (x86)\Microsoft Visual Studio\2019\Community\VC\Tools\MSVC\14.29.30133\atlmfc\include\atlsimpstr.h

; 519  : 		return( GetData()->nDataLength );

  00467	8b 46 70	 mov	 eax, DWORD PTR [esi+112]
; File D:\git\src\IBK\IBK_DRFN\ProjSrc\SrcChartEx\ChartOCX\AddInManager\ChartCommonAddIn\SimpleCompareChartAddInImp.cpp

; 136  : 			strVertScaleGroup = strVertScaleGroup.Mid( m_strVertScaleGroupInfo.GetLength());

  0046a	8d 4d f0	 lea	 ecx, DWORD PTR _strVertScaleGroup$29[ebp]
  0046d	ff 70 f4	 push	 DWORD PTR [eax-12]
  00470	8d 45 d0	 lea	 eax, DWORD PTR $T13[ebp]
  00473	50		 push	 eax
  00474	ff 15 00 00 00
	00		 call	 DWORD PTR __imp_?Mid@?$CStringT@DV?$StrTraitMFC_DLL@DV?$ChTraitsCRT@D@ATL@@@@@ATL@@QBE?AV12@H@Z
  0047a	50		 push	 eax
  0047b	8d 4d f0	 lea	 ecx, DWORD PTR _strVertScaleGroup$29[ebp]
  0047e	c6 45 fc 16	 mov	 BYTE PTR __$EHRec$[ebp+8], 22 ; 00000016H
  00482	ff 15 00 00 00
	00		 call	 DWORD PTR __imp_??4?$CStringT@DV?$StrTraitMFC_DLL@DV?$ChTraitsCRT@D@ATL@@@@@ATL@@QAEAAV01@ABV01@@Z
  00488	8d 4d d0	 lea	 ecx, DWORD PTR $T13[ebp]
  0048b	c6 45 fc 12	 mov	 BYTE PTR __$EHRec$[ebp+8], 18 ; 00000012H
  0048f	ff 15 00 00 00
	00		 call	 DWORD PTR __imp_??1?$CStringT@DV?$StrTraitMFC_DLL@DV?$ChTraitsCRT@D@ATL@@@@@ATL@@QAE@XZ

; 137  : 
; 138  : 			slVertScaleGroupList.AddTail( strVertScaleGroup);

  00495	8d 45 f0	 lea	 eax, DWORD PTR _strVertScaleGroup$29[ebp]
  00498	50		 push	 eax
  00499	8d 4d 98	 lea	 ecx, DWORD PTR _slVertScaleGroupList$[ebp]
  0049c	e8 00 00 00 00	 call	 ?AddTail@CStringList@@QAEPAU__POSITION@@ABV?$CStringT@DV?$StrTraitMFC_DLL@DV?$ChTraitsCRT@D@ATL@@@@@ATL@@@Z ; CStringList::AddTail

; 139  : 		}

  004a1	8d 4d f0	 lea	 ecx, DWORD PTR _strVertScaleGroup$29[ebp]
  004a4	c6 45 fc 10	 mov	 BYTE PTR __$EHRec$[ebp+8], 16 ; 00000010H
  004a8	ff 15 00 00 00
	00		 call	 DWORD PTR __imp_??1?$CStringT@DV?$StrTraitMFC_DLL@DV?$ChTraitsCRT@D@ATL@@@@@ATL@@QAE@XZ
  004ae	ff 76 50	 push	 DWORD PTR [esi+80]
  004b1	8d 45 e0	 lea	 eax, DWORD PTR $T23[ebp]
  004b4	50		 push	 eax
  004b5	8d 4d e4	 lea	 ecx, DWORD PTR _strBlock$26[ebp]
  004b8	ff 15 00 00 00
	00		 call	 DWORD PTR __imp_?Left@?$CStringT@DV?$StrTraitMFC_DLL@DV?$ChTraitsCRT@D@ATL@@@@@ATL@@QBE?AV12@H@Z
; File C:\Program Files (x86)\Microsoft Visual Studio\2019\Community\VC\Tools\MSVC\14.29.30133\atlmfc\include\cstringt.h

; 2486 : 		return(str1.Compare(psz2) == 0);

  004be	68 00 00 00 00	 push	 OFFSET ??_C@_0BC@DJOHDNOJ@VertScaleGroup?$DL?$AN?6@
  004c3	8b c8		 mov	 ecx, eax
; File D:\git\src\IBK\IBK_DRFN\ProjSrc\SrcChartEx\ChartOCX\AddInManager\ChartCommonAddIn\SimpleCompareChartAddInImp.cpp

; 129  : 		while( strBlock.Left( m_nVertScaleGroupHeaderLen) == _VERT_SCALE_GROUP_HEADER)

  004c5	c6 45 fc 11	 mov	 BYTE PTR __$EHRec$[ebp+8], 17 ; 00000011H
; File C:\Program Files (x86)\Microsoft Visual Studio\2019\Community\VC\Tools\MSVC\14.29.30133\atlmfc\include\cstringt.h

; 2486 : 		return(str1.Compare(psz2) == 0);

  004c9	ff 15 00 00 00
	00		 call	 DWORD PTR __imp_?Compare@?$CStringT@DV?$StrTraitMFC_DLL@DV?$ChTraitsCRT@D@ATL@@@@@ATL@@QBEHPBD@Z
; File D:\git\src\IBK\IBK_DRFN\ProjSrc\SrcChartEx\ChartOCX\AddInManager\ChartCommonAddIn\SimpleCompareChartAddInImp.cpp

; 129  : 		while( strBlock.Left( m_nVertScaleGroupHeaderLen) == _VERT_SCALE_GROUP_HEADER)

  004cf	8d 4d e0	 lea	 ecx, DWORD PTR $T23[ebp]
  004d2	c6 45 fc 10	 mov	 BYTE PTR __$EHRec$[ebp+8], 16 ; 00000010H
; File C:\Program Files (x86)\Microsoft Visual Studio\2019\Community\VC\Tools\MSVC\14.29.30133\atlmfc\include\cstringt.h

; 2486 : 		return(str1.Compare(psz2) == 0);

  004d6	8b f8		 mov	 edi, eax
; File D:\git\src\IBK\IBK_DRFN\ProjSrc\SrcChartEx\ChartOCX\AddInManager\ChartCommonAddIn\SimpleCompareChartAddInImp.cpp

; 129  : 		while( strBlock.Left( m_nVertScaleGroupHeaderLen) == _VERT_SCALE_GROUP_HEADER)

  004d8	ff 15 00 00 00
	00		 call	 DWORD PTR __imp_??1?$CStringT@DV?$StrTraitMFC_DLL@DV?$ChTraitsCRT@D@ATL@@@@@ATL@@QAE@XZ
  004de	85 ff		 test	 edi, edi
  004e0	0f 84 ba fe ff
	ff		 je	 $LL6@GetAndPars
  004e6	8b 5d d4	 mov	 ebx, DWORD PTR _psnBlock$1$[ebp]
$LN7@GetAndPars:

; 140  : 	}

  004e9	8d 4d e4	 lea	 ecx, DWORD PTR _strBlock$26[ebp]
  004ec	c6 45 fc 0f	 mov	 BYTE PTR __$EHRec$[ebp+8], 15 ; 0000000fH
  004f0	ff 15 00 00 00
	00		 call	 DWORD PTR __imp_??1?$CStringT@DV?$StrTraitMFC_DLL@DV?$ChTraitsCRT@D@ATL@@@@@ATL@@QAE@XZ
  004f6	85 db		 test	 ebx, ebx
  004f8	0f 85 43 fe ff
	ff		 jne	 $LL4@GetAndPars
$LN5@GetAndPars:

; 141  : 
; 142  : 	// 4. Devide to each Graph
; 143  : 	m_slGraph1.RemoveAll();

  004fe	8d 4e 74	 lea	 ecx, DWORD PTR [esi+116]
  00501	e8 00 00 00 00	 call	 ?RemoveAll@CStringList@@QAEXXZ ; CStringList::RemoveAll

; 144  : 	m_slGraph2.RemoveAll();

  00506	8d 8e 90 00 00
	00		 lea	 ecx, DWORD PTR [esi+144]
  0050c	e8 00 00 00 00	 call	 ?RemoveAll@CStringList@@QAEXXZ ; CStringList::RemoveAll

; 145  : 	m_slGraphTitle.RemoveAll();

  00511	8d 8e ac 00 00
	00		 lea	 ecx, DWORD PTR [esi+172]
  00517	e8 00 00 00 00	 call	 ?RemoveAll@CStringList@@QAEXXZ ; CStringList::RemoveAll

; 146  : 	m_slGraph3.RemoveAll();

  0051c	8d 8e c8 00 00
	00		 lea	 ecx, DWORD PTR [esi+200]
  00522	e8 00 00 00 00	 call	 ?RemoveAll@CStringList@@QAEXXZ ; CStringList::RemoveAll

; 147  : 	POSITION psnVertScaleGroup = slVertScaleGroupList.GetHeadPosition();

  00527	8b 5d 9c	 mov	 ebx, DWORD PTR _slVertScaleGroupList$[ebp+4]
  0052a	85 db		 test	 ebx, ebx

; 148  : 	while( psnVertScaleGroup)

  0052c	0f 84 b3 02 00
	00		 je	 $LN9@GetAndPars
$LL8@GetAndPars:
; File C:\Program Files (x86)\Microsoft Visual Studio\2019\Community\VC\Tools\MSVC\14.29.30133\atlmfc\include\afxcoll.inl

; 501  : 	{ CNode* pNode = (CNode*) rPosition;

  00532	8b c3		 mov	 eax, ebx

; 502  : 		ASSERT(AfxIsValidAddress(pNode, sizeof(CNode)));
; 503  : 		if( pNode == NULL )

  00534	85 db		 test	 ebx, ebx
  00536	0f 84 f4 02 00
	00		 je	 $LN138@GetAndPars

; 504  : 			AfxThrowInvalidArgException();
; 505  : 		rPosition = (POSITION) pNode->pNext;

  0053c	8b 1b		 mov	 ebx, DWORD PTR [ebx]
; File D:\git\src\IBK\IBK_DRFN\ProjSrc\SrcChartEx\ChartOCX\AddInManager\ChartCommonAddIn\SimpleCompareChartAddInImp.cpp

; 150  : 		CString strVertScaleGroup = slVertScaleGroupList.GetNext( psnVertScaleGroup);

  0053e	8d 4d e4	 lea	 ecx, DWORD PTR _strVertScaleGroup$25[ebp]
; File C:\Program Files (x86)\Microsoft Visual Studio\2019\Community\VC\Tools\MSVC\14.29.30133\atlmfc\include\afxcoll.inl

; 506  : 		return pNode->data; }

  00541	83 c0 08	 add	 eax, 8
  00544	89 5d bc	 mov	 DWORD PTR _psnVertScaleGroup$1$[ebp], ebx
; File D:\git\src\IBK\IBK_DRFN\ProjSrc\SrcChartEx\ChartOCX\AddInManager\ChartCommonAddIn\SimpleCompareChartAddInImp.cpp

; 150  : 		CString strVertScaleGroup = slVertScaleGroupList.GetNext( psnVertScaleGroup);

  00547	50		 push	 eax
  00548	ff 15 00 00 00
	00		 call	 DWORD PTR __imp_??0?$CStringT@DV?$StrTraitMFC_DLL@DV?$ChTraitsCRT@D@ATL@@@@@ATL@@QAE@ABV01@@Z

; 151  : 		while( strVertScaleGroup.Left( m_nGraphHeaderLen) == _GRAPH_HEADER)

  0054e	ff 76 58	 push	 DWORD PTR [esi+88]
  00551	8d 45 d4	 lea	 eax, DWORD PTR $T15[ebp]
  00554	c6 45 fc 17	 mov	 BYTE PTR __$EHRec$[ebp+8], 23 ; 00000017H
  00558	50		 push	 eax
  00559	8d 4d e4	 lea	 ecx, DWORD PTR _strVertScaleGroup$25[ebp]
  0055c	ff 15 00 00 00
	00		 call	 DWORD PTR __imp_?Left@?$CStringT@DV?$StrTraitMFC_DLL@DV?$ChTraitsCRT@D@ATL@@@@@ATL@@QBE?AV12@H@Z
; File C:\Program Files (x86)\Microsoft Visual Studio\2019\Community\VC\Tools\MSVC\14.29.30133\atlmfc\include\cstringt.h

; 2486 : 		return(str1.Compare(psz2) == 0);

  00562	68 00 00 00 00	 push	 OFFSET ??_C@_08BHMMGBBH@Graph?$DL?$AN?6@
  00567	8b c8		 mov	 ecx, eax
; File D:\git\src\IBK\IBK_DRFN\ProjSrc\SrcChartEx\ChartOCX\AddInManager\ChartCommonAddIn\SimpleCompareChartAddInImp.cpp

; 151  : 		while( strVertScaleGroup.Left( m_nGraphHeaderLen) == _GRAPH_HEADER)

  00569	c6 45 fc 18	 mov	 BYTE PTR __$EHRec$[ebp+8], 24 ; 00000018H
; File C:\Program Files (x86)\Microsoft Visual Studio\2019\Community\VC\Tools\MSVC\14.29.30133\atlmfc\include\cstringt.h

; 2486 : 		return(str1.Compare(psz2) == 0);

  0056d	ff 15 00 00 00
	00		 call	 DWORD PTR __imp_?Compare@?$CStringT@DV?$StrTraitMFC_DLL@DV?$ChTraitsCRT@D@ATL@@@@@ATL@@QBEHPBD@Z
; File D:\git\src\IBK\IBK_DRFN\ProjSrc\SrcChartEx\ChartOCX\AddInManager\ChartCommonAddIn\SimpleCompareChartAddInImp.cpp

; 151  : 		while( strVertScaleGroup.Left( m_nGraphHeaderLen) == _GRAPH_HEADER)

  00573	8d 4d d4	 lea	 ecx, DWORD PTR $T15[ebp]
  00576	c6 45 fc 17	 mov	 BYTE PTR __$EHRec$[ebp+8], 23 ; 00000017H
; File C:\Program Files (x86)\Microsoft Visual Studio\2019\Community\VC\Tools\MSVC\14.29.30133\atlmfc\include\cstringt.h

; 2486 : 		return(str1.Compare(psz2) == 0);

  0057a	8b f8		 mov	 edi, eax
; File D:\git\src\IBK\IBK_DRFN\ProjSrc\SrcChartEx\ChartOCX\AddInManager\ChartCommonAddIn\SimpleCompareChartAddInImp.cpp

; 151  : 		while( strVertScaleGroup.Left( m_nGraphHeaderLen) == _GRAPH_HEADER)

  0057c	ff 15 00 00 00
	00		 call	 DWORD PTR __imp_??1?$CStringT@DV?$StrTraitMFC_DLL@DV?$ChTraitsCRT@D@ATL@@@@@ATL@@QAE@XZ
  00582	85 ff		 test	 edi, edi
  00584	0f 85 46 02 00
	00		 jne	 $LN11@GetAndPars
  0058a	66 0f 1f 44 00
	00		 npad	 6
$LL10@GetAndPars:

; 152  : 		{
; 153  : 			CString strGraph = strVertScaleGroup.Left( strVertScaleGroup.Find( _GRAPH_FOOTER) + m_nGraphFooterLen);

  00590	6a 00		 push	 0
  00592	68 00 00 00 00	 push	 OFFSET ??_C@_0M@DGHFHKEI@GraphEnd?$DL?$AN?6@
  00597	8d 4d e4	 lea	 ecx, DWORD PTR _strVertScaleGroup$25[ebp]
  0059a	ff 15 00 00 00
	00		 call	 DWORD PTR __imp_?Find@?$CStringT@DV?$StrTraitMFC_DLL@DV?$ChTraitsCRT@D@ATL@@@@@ATL@@QBEHPBDH@Z
  005a0	03 46 5c	 add	 eax, DWORD PTR [esi+92]
  005a3	8d 4d e4	 lea	 ecx, DWORD PTR _strVertScaleGroup$25[ebp]
  005a6	50		 push	 eax
  005a7	8d 45 f0	 lea	 eax, DWORD PTR _strGraph$28[ebp]
  005aa	50		 push	 eax
  005ab	ff 15 00 00 00
	00		 call	 DWORD PTR __imp_?Left@?$CStringT@DV?$StrTraitMFC_DLL@DV?$ChTraitsCRT@D@ATL@@@@@ATL@@QBE?AV12@H@Z
; File C:\Program Files (x86)\Microsoft Visual Studio\2019\Community\VC\Tools\MSVC\14.29.30133\atlmfc\include\atlsimpstr.h

; 519  : 		return( GetData()->nDataLength );

  005b1	8b 45 f0	 mov	 eax, DWORD PTR _strGraph$28[ebp]
; File D:\git\src\IBK\IBK_DRFN\ProjSrc\SrcChartEx\ChartOCX\AddInManager\ChartCommonAddIn\SimpleCompareChartAddInImp.cpp

; 154  : 			strVertScaleGroup = strVertScaleGroup.Mid( strGraph.GetLength());

  005b4	8d 4d e4	 lea	 ecx, DWORD PTR _strVertScaleGroup$25[ebp]
  005b7	c6 45 fc 19	 mov	 BYTE PTR __$EHRec$[ebp+8], 25 ; 00000019H
  005bb	ff 70 f4	 push	 DWORD PTR [eax-12]
  005be	8d 45 c4	 lea	 eax, DWORD PTR $T3[ebp]
  005c1	50		 push	 eax
  005c2	ff 15 00 00 00
	00		 call	 DWORD PTR __imp_?Mid@?$CStringT@DV?$StrTraitMFC_DLL@DV?$ChTraitsCRT@D@ATL@@@@@ATL@@QBE?AV12@H@Z
  005c8	50		 push	 eax
  005c9	8d 4d e4	 lea	 ecx, DWORD PTR _strVertScaleGroup$25[ebp]
  005cc	c6 45 fc 1a	 mov	 BYTE PTR __$EHRec$[ebp+8], 26 ; 0000001aH
  005d0	ff 15 00 00 00
	00		 call	 DWORD PTR __imp_??4?$CStringT@DV?$StrTraitMFC_DLL@DV?$ChTraitsCRT@D@ATL@@@@@ATL@@QAEAAV01@ABV01@@Z
  005d6	8d 4d c4	 lea	 ecx, DWORD PTR $T3[ebp]
  005d9	c6 45 fc 19	 mov	 BYTE PTR __$EHRec$[ebp+8], 25 ; 00000019H
  005dd	ff 15 00 00 00
	00		 call	 DWORD PTR __imp_??1?$CStringT@DV?$StrTraitMFC_DLL@DV?$ChTraitsCRT@D@ATL@@@@@ATL@@QAE@XZ
; File C:\Program Files (x86)\Microsoft Visual Studio\2019\Community\VC\Tools\MSVC\14.29.30133\atlmfc\include\atlsimpstr.h

; 519  : 		return( GetData()->nDataLength );

  005e3	8b 45 f0	 mov	 eax, DWORD PTR _strGraph$28[ebp]
; File D:\git\src\IBK\IBK_DRFN\ProjSrc\SrcChartEx\ChartOCX\AddInManager\ChartCommonAddIn\SimpleCompareChartAddInImp.cpp

; 155  : 			strGraph = strGraph.Mid( m_nGraphHeaderLen, strGraph.GetLength() - m_nGraphHeaderLen - m_nGraphFooterLen);

  005e6	8b 4e 58	 mov	 ecx, DWORD PTR [esi+88]
; File C:\Program Files (x86)\Microsoft Visual Studio\2019\Community\VC\Tools\MSVC\14.29.30133\atlmfc\include\atlsimpstr.h

; 519  : 		return( GetData()->nDataLength );

  005e9	8b 40 f4	 mov	 eax, DWORD PTR [eax-12]
; File D:\git\src\IBK\IBK_DRFN\ProjSrc\SrcChartEx\ChartOCX\AddInManager\ChartCommonAddIn\SimpleCompareChartAddInImp.cpp

; 155  : 			strGraph = strGraph.Mid( m_nGraphHeaderLen, strGraph.GetLength() - m_nGraphHeaderLen - m_nGraphFooterLen);

  005ec	2b c1		 sub	 eax, ecx
  005ee	2b 46 5c	 sub	 eax, DWORD PTR [esi+92]
  005f1	50		 push	 eax
  005f2	51		 push	 ecx
  005f3	8d 45 c8	 lea	 eax, DWORD PTR $T6[ebp]
  005f6	50		 push	 eax
  005f7	8d 4d f0	 lea	 ecx, DWORD PTR _strGraph$28[ebp]
  005fa	ff 15 00 00 00
	00		 call	 DWORD PTR __imp_?Mid@?$CStringT@DV?$StrTraitMFC_DLL@DV?$ChTraitsCRT@D@ATL@@@@@ATL@@QBE?AV12@HH@Z
  00600	50		 push	 eax
  00601	8d 4d f0	 lea	 ecx, DWORD PTR _strGraph$28[ebp]
  00604	c6 45 fc 1b	 mov	 BYTE PTR __$EHRec$[ebp+8], 27 ; 0000001bH
  00608	ff 15 00 00 00
	00		 call	 DWORD PTR __imp_??4?$CStringT@DV?$StrTraitMFC_DLL@DV?$ChTraitsCRT@D@ATL@@@@@ATL@@QAEAAV01@ABV01@@Z
  0060e	8d 4d c8	 lea	 ecx, DWORD PTR $T6[ebp]
  00611	c6 45 fc 19	 mov	 BYTE PTR __$EHRec$[ebp+8], 25 ; 00000019H
  00615	ff 15 00 00 00
	00		 call	 DWORD PTR __imp_??1?$CStringT@DV?$StrTraitMFC_DLL@DV?$ChTraitsCRT@D@ATL@@@@@ATL@@QAE@XZ

; 156  : 
; 157  : 			CString strGraph1 = strGraph.Left( strGraph.Find( "\r\n") + 2);

  0061b	6a 00		 push	 0
  0061d	68 00 00 00 00	 push	 OFFSET ??_C@_02PCIJFNDE@?$AN?6@
  00622	8d 4d f0	 lea	 ecx, DWORD PTR _strGraph$28[ebp]
  00625	ff 15 00 00 00
	00		 call	 DWORD PTR __imp_?Find@?$CStringT@DV?$StrTraitMFC_DLL@DV?$ChTraitsCRT@D@ATL@@@@@ATL@@QBEHPBDH@Z
  0062b	83 c0 02	 add	 eax, 2
  0062e	8d 4d f0	 lea	 ecx, DWORD PTR _strGraph$28[ebp]
  00631	50		 push	 eax
  00632	8d 45 d8	 lea	 eax, DWORD PTR _strGraph1$18[ebp]
  00635	50		 push	 eax
  00636	ff 15 00 00 00
	00		 call	 DWORD PTR __imp_?Left@?$CStringT@DV?$StrTraitMFC_DLL@DV?$ChTraitsCRT@D@ATL@@@@@ATL@@QBE?AV12@H@Z
; File C:\Program Files (x86)\Microsoft Visual Studio\2019\Community\VC\Tools\MSVC\14.29.30133\atlmfc\include\atlsimpstr.h

; 519  : 		return( GetData()->nDataLength );

  0063c	8b 45 d8	 mov	 eax, DWORD PTR _strGraph1$18[ebp]
; File D:\git\src\IBK\IBK_DRFN\ProjSrc\SrcChartEx\ChartOCX\AddInManager\ChartCommonAddIn\SimpleCompareChartAddInImp.cpp

; 158  : 			strGraph = strGraph.Mid( strGraph1.GetLength());

  0063f	8d 4d f0	 lea	 ecx, DWORD PTR _strGraph$28[ebp]
  00642	c6 45 fc 1c	 mov	 BYTE PTR __$EHRec$[ebp+8], 28 ; 0000001cH
  00646	ff 70 f4	 push	 DWORD PTR [eax-12]
  00649	8d 45 cc	 lea	 eax, DWORD PTR $T9[ebp]
  0064c	50		 push	 eax
  0064d	ff 15 00 00 00
	00		 call	 DWORD PTR __imp_?Mid@?$CStringT@DV?$StrTraitMFC_DLL@DV?$ChTraitsCRT@D@ATL@@@@@ATL@@QBE?AV12@H@Z
  00653	50		 push	 eax
  00654	8d 4d f0	 lea	 ecx, DWORD PTR _strGraph$28[ebp]
  00657	c6 45 fc 1d	 mov	 BYTE PTR __$EHRec$[ebp+8], 29 ; 0000001dH
  0065b	ff 15 00 00 00
	00		 call	 DWORD PTR __imp_??4?$CStringT@DV?$StrTraitMFC_DLL@DV?$ChTraitsCRT@D@ATL@@@@@ATL@@QAEAAV01@ABV01@@Z
  00661	8d 4d cc	 lea	 ecx, DWORD PTR $T9[ebp]
  00664	c6 45 fc 1c	 mov	 BYTE PTR __$EHRec$[ebp+8], 28 ; 0000001cH
  00668	ff 15 00 00 00
	00		 call	 DWORD PTR __imp_??1?$CStringT@DV?$StrTraitMFC_DLL@DV?$ChTraitsCRT@D@ATL@@@@@ATL@@QAE@XZ

; 159  : 			int nIndex = strGraph.Find( ';');

  0066e	6a 00		 push	 0
  00670	6a 3b		 push	 59			; 0000003bH
  00672	8d 4d f0	 lea	 ecx, DWORD PTR _strGraph$28[ebp]
  00675	ff 15 00 00 00
	00		 call	 DWORD PTR __imp_?Find@?$CStringT@DV?$StrTraitMFC_DLL@DV?$ChTraitsCRT@D@ATL@@@@@ATL@@QBEHDH@Z

; 160  : 			nIndex = strGraph.Find( ';', nIndex + 1);

  0067b	40		 inc	 eax
  0067c	8d 4d f0	 lea	 ecx, DWORD PTR _strGraph$28[ebp]
  0067f	50		 push	 eax
  00680	6a 3b		 push	 59			; 0000003bH
  00682	ff 15 00 00 00
	00		 call	 DWORD PTR __imp_?Find@?$CStringT@DV?$StrTraitMFC_DLL@DV?$ChTraitsCRT@D@ATL@@@@@ATL@@QBEHDH@Z

; 161  : 			nIndex = strGraph.Find( ';', nIndex + 1);

  00688	40		 inc	 eax
  00689	50		 push	 eax
  0068a	6a 3b		 push	 59			; 0000003bH
  0068c	8d 4d f0	 lea	 ecx, DWORD PTR _strGraph$28[ebp]
  0068f	ff 15 00 00 00
	00		 call	 DWORD PTR __imp_?Find@?$CStringT@DV?$StrTraitMFC_DLL@DV?$ChTraitsCRT@D@ATL@@@@@ATL@@QBEHDH@Z

; 162  : 			nIndex = strGraph.Find( ';', nIndex + 1);

  00695	40		 inc	 eax
  00696	8d 4d f0	 lea	 ecx, DWORD PTR _strGraph$28[ebp]
  00699	50		 push	 eax
  0069a	6a 3b		 push	 59			; 0000003bH
  0069c	ff 15 00 00 00
	00		 call	 DWORD PTR __imp_?Find@?$CStringT@DV?$StrTraitMFC_DLL@DV?$ChTraitsCRT@D@ATL@@@@@ATL@@QBEHDH@Z

; 163  : 			CString strGraph2 = strGraph.Left( nIndex + 1);

  006a2	40		 inc	 eax
  006a3	8d 4d f0	 lea	 ecx, DWORD PTR _strGraph$28[ebp]
  006a6	50		 push	 eax
  006a7	8d 45 dc	 lea	 eax, DWORD PTR _strGraph2$20[ebp]
  006aa	50		 push	 eax
  006ab	ff 15 00 00 00
	00		 call	 DWORD PTR __imp_?Left@?$CStringT@DV?$StrTraitMFC_DLL@DV?$ChTraitsCRT@D@ATL@@@@@ATL@@QBE?AV12@H@Z
; File C:\Program Files (x86)\Microsoft Visual Studio\2019\Community\VC\Tools\MSVC\14.29.30133\atlmfc\include\atlsimpstr.h

; 519  : 		return( GetData()->nDataLength );

  006b1	8b 45 dc	 mov	 eax, DWORD PTR _strGraph2$20[ebp]
; File D:\git\src\IBK\IBK_DRFN\ProjSrc\SrcChartEx\ChartOCX\AddInManager\ChartCommonAddIn\SimpleCompareChartAddInImp.cpp

; 164  : 			strGraph = strGraph.Mid( strGraph2.GetLength());

  006b4	8d 4d f0	 lea	 ecx, DWORD PTR _strGraph$28[ebp]
  006b7	c6 45 fc 1e	 mov	 BYTE PTR __$EHRec$[ebp+8], 30 ; 0000001eH
  006bb	ff 70 f4	 push	 DWORD PTR [eax-12]
  006be	8d 45 d0	 lea	 eax, DWORD PTR $T12[ebp]
  006c1	50		 push	 eax
  006c2	ff 15 00 00 00
	00		 call	 DWORD PTR __imp_?Mid@?$CStringT@DV?$StrTraitMFC_DLL@DV?$ChTraitsCRT@D@ATL@@@@@ATL@@QBE?AV12@H@Z
  006c8	50		 push	 eax
  006c9	8d 4d f0	 lea	 ecx, DWORD PTR _strGraph$28[ebp]
  006cc	c6 45 fc 1f	 mov	 BYTE PTR __$EHRec$[ebp+8], 31 ; 0000001fH
  006d0	ff 15 00 00 00
	00		 call	 DWORD PTR __imp_??4?$CStringT@DV?$StrTraitMFC_DLL@DV?$ChTraitsCRT@D@ATL@@@@@ATL@@QAEAAV01@ABV01@@Z
  006d6	8d 4d d0	 lea	 ecx, DWORD PTR $T12[ebp]
  006d9	c6 45 fc 1e	 mov	 BYTE PTR __$EHRec$[ebp+8], 30 ; 0000001eH
  006dd	ff 15 00 00 00
	00		 call	 DWORD PTR __imp_??1?$CStringT@DV?$StrTraitMFC_DLL@DV?$ChTraitsCRT@D@ATL@@@@@ATL@@QAE@XZ

; 165  : 			CString strGraphTitle = strGraph.Left( strGraph.Find( ';'));

  006e3	6a 00		 push	 0
  006e5	6a 3b		 push	 59			; 0000003bH
  006e7	8d 4d f0	 lea	 ecx, DWORD PTR _strGraph$28[ebp]
  006ea	ff 15 00 00 00
	00		 call	 DWORD PTR __imp_?Find@?$CStringT@DV?$StrTraitMFC_DLL@DV?$ChTraitsCRT@D@ATL@@@@@ATL@@QBEHDH@Z
  006f0	50		 push	 eax
  006f1	8d 45 e0	 lea	 eax, DWORD PTR _strGraphTitle$22[ebp]
  006f4	50		 push	 eax
  006f5	8d 4d f0	 lea	 ecx, DWORD PTR _strGraph$28[ebp]
  006f8	ff 15 00 00 00
	00		 call	 DWORD PTR __imp_?Left@?$CStringT@DV?$StrTraitMFC_DLL@DV?$ChTraitsCRT@D@ATL@@@@@ATL@@QBE?AV12@H@Z
; File C:\Program Files (x86)\Microsoft Visual Studio\2019\Community\VC\Tools\MSVC\14.29.30133\atlmfc\include\atlsimpstr.h

; 519  : 		return( GetData()->nDataLength );

  006fe	8b 45 e0	 mov	 eax, DWORD PTR _strGraphTitle$22[ebp]
; File D:\git\src\IBK\IBK_DRFN\ProjSrc\SrcChartEx\ChartOCX\AddInManager\ChartCommonAddIn\SimpleCompareChartAddInImp.cpp

; 166  : 			strGraph = strGraph.Mid( strGraphTitle.GetLength() + 2);	// + 2 is for hide flag.

  00701	8d 4d f0	 lea	 ecx, DWORD PTR _strGraph$28[ebp]
  00704	c6 45 fc 20	 mov	 BYTE PTR __$EHRec$[ebp+8], 32 ; 00000020H
; File C:\Program Files (x86)\Microsoft Visual Studio\2019\Community\VC\Tools\MSVC\14.29.30133\atlmfc\include\atlsimpstr.h

; 519  : 		return( GetData()->nDataLength );

  00708	8b 40 f4	 mov	 eax, DWORD PTR [eax-12]
; File D:\git\src\IBK\IBK_DRFN\ProjSrc\SrcChartEx\ChartOCX\AddInManager\ChartCommonAddIn\SimpleCompareChartAddInImp.cpp

; 166  : 			strGraph = strGraph.Mid( strGraphTitle.GetLength() + 2);	// + 2 is for hide flag.

  0070b	83 c0 02	 add	 eax, 2
  0070e	50		 push	 eax
  0070f	8d 45 c0	 lea	 eax, DWORD PTR $T2[ebp]
  00712	50		 push	 eax
  00713	ff 15 00 00 00
	00		 call	 DWORD PTR __imp_?Mid@?$CStringT@DV?$StrTraitMFC_DLL@DV?$ChTraitsCRT@D@ATL@@@@@ATL@@QBE?AV12@H@Z
  00719	50		 push	 eax
  0071a	8d 4d f0	 lea	 ecx, DWORD PTR _strGraph$28[ebp]
  0071d	c6 45 fc 21	 mov	 BYTE PTR __$EHRec$[ebp+8], 33 ; 00000021H
  00721	ff 15 00 00 00
	00		 call	 DWORD PTR __imp_??4?$CStringT@DV?$StrTraitMFC_DLL@DV?$ChTraitsCRT@D@ATL@@@@@ATL@@QAEAAV01@ABV01@@Z
  00727	8d 4d c0	 lea	 ecx, DWORD PTR $T2[ebp]
  0072a	c6 45 fc 20	 mov	 BYTE PTR __$EHRec$[ebp+8], 32 ; 00000020H
  0072e	ff 15 00 00 00
	00		 call	 DWORD PTR __imp_??1?$CStringT@DV?$StrTraitMFC_DLL@DV?$ChTraitsCRT@D@ATL@@@@@ATL@@QAE@XZ

; 167  : 
; 168  : 			m_slGraph1.AddTail( strGraph1);

  00734	8d 45 d8	 lea	 eax, DWORD PTR _strGraph1$18[ebp]
  00737	50		 push	 eax
  00738	8d 4e 74	 lea	 ecx, DWORD PTR [esi+116]
  0073b	e8 00 00 00 00	 call	 ?AddTail@CStringList@@QAEPAU__POSITION@@ABV?$CStringT@DV?$StrTraitMFC_DLL@DV?$ChTraitsCRT@D@ATL@@@@@ATL@@@Z ; CStringList::AddTail

; 169  : 			m_slGraph2.AddTail( strGraph2);

  00740	8d 45 dc	 lea	 eax, DWORD PTR _strGraph2$20[ebp]
  00743	50		 push	 eax
  00744	8d 8e 90 00 00
	00		 lea	 ecx, DWORD PTR [esi+144]
  0074a	e8 00 00 00 00	 call	 ?AddTail@CStringList@@QAEPAU__POSITION@@ABV?$CStringT@DV?$StrTraitMFC_DLL@DV?$ChTraitsCRT@D@ATL@@@@@ATL@@@Z ; CStringList::AddTail

; 170  : 			m_slGraphTitle.AddTail( strGraphTitle);

  0074f	8d 45 e0	 lea	 eax, DWORD PTR _strGraphTitle$22[ebp]
  00752	50		 push	 eax
  00753	8d 8e ac 00 00
	00		 lea	 ecx, DWORD PTR [esi+172]
  00759	e8 00 00 00 00	 call	 ?AddTail@CStringList@@QAEPAU__POSITION@@ABV?$CStringT@DV?$StrTraitMFC_DLL@DV?$ChTraitsCRT@D@ATL@@@@@ATL@@@Z ; CStringList::AddTail

; 171  : 			m_slGraph3.AddTail( strGraph);

  0075e	8d 45 f0	 lea	 eax, DWORD PTR _strGraph$28[ebp]
  00761	50		 push	 eax
  00762	8d 8e c8 00 00
	00		 lea	 ecx, DWORD PTR [esi+200]
  00768	e8 00 00 00 00	 call	 ?AddTail@CStringList@@QAEPAU__POSITION@@ABV?$CStringT@DV?$StrTraitMFC_DLL@DV?$ChTraitsCRT@D@ATL@@@@@ATL@@@Z ; CStringList::AddTail

; 172  : 		}

  0076d	8d 4d e0	 lea	 ecx, DWORD PTR _strGraphTitle$22[ebp]
  00770	ff 15 00 00 00
	00		 call	 DWORD PTR __imp_??1?$CStringT@DV?$StrTraitMFC_DLL@DV?$ChTraitsCRT@D@ATL@@@@@ATL@@QAE@XZ
  00776	8d 4d dc	 lea	 ecx, DWORD PTR _strGraph2$20[ebp]
  00779	ff 15 00 00 00
	00		 call	 DWORD PTR __imp_??1?$CStringT@DV?$StrTraitMFC_DLL@DV?$ChTraitsCRT@D@ATL@@@@@ATL@@QAE@XZ
  0077f	8d 4d d8	 lea	 ecx, DWORD PTR _strGraph1$18[ebp]
  00782	ff 15 00 00 00
	00		 call	 DWORD PTR __imp_??1?$CStringT@DV?$StrTraitMFC_DLL@DV?$ChTraitsCRT@D@ATL@@@@@ATL@@QAE@XZ
  00788	c6 45 fc 17	 mov	 BYTE PTR __$EHRec$[ebp+8], 23 ; 00000017H
  0078c	8d 4d f0	 lea	 ecx, DWORD PTR _strGraph$28[ebp]
  0078f	ff 15 00 00 00
	00		 call	 DWORD PTR __imp_??1?$CStringT@DV?$StrTraitMFC_DLL@DV?$ChTraitsCRT@D@ATL@@@@@ATL@@QAE@XZ
  00795	ff 76 58	 push	 DWORD PTR [esi+88]
  00798	8d 45 d4	 lea	 eax, DWORD PTR $T15[ebp]
  0079b	50		 push	 eax
  0079c	8d 4d e4	 lea	 ecx, DWORD PTR _strVertScaleGroup$25[ebp]
  0079f	ff 15 00 00 00
	00		 call	 DWORD PTR __imp_?Left@?$CStringT@DV?$StrTraitMFC_DLL@DV?$ChTraitsCRT@D@ATL@@@@@ATL@@QBE?AV12@H@Z
; File C:\Program Files (x86)\Microsoft Visual Studio\2019\Community\VC\Tools\MSVC\14.29.30133\atlmfc\include\cstringt.h

; 2486 : 		return(str1.Compare(psz2) == 0);

  007a5	68 00 00 00 00	 push	 OFFSET ??_C@_08BHMMGBBH@Graph?$DL?$AN?6@
  007aa	8b c8		 mov	 ecx, eax
; File D:\git\src\IBK\IBK_DRFN\ProjSrc\SrcChartEx\ChartOCX\AddInManager\ChartCommonAddIn\SimpleCompareChartAddInImp.cpp

; 151  : 		while( strVertScaleGroup.Left( m_nGraphHeaderLen) == _GRAPH_HEADER)

  007ac	c6 45 fc 18	 mov	 BYTE PTR __$EHRec$[ebp+8], 24 ; 00000018H
; File C:\Program Files (x86)\Microsoft Visual Studio\2019\Community\VC\Tools\MSVC\14.29.30133\atlmfc\include\cstringt.h

; 2486 : 		return(str1.Compare(psz2) == 0);

  007b0	ff 15 00 00 00
	00		 call	 DWORD PTR __imp_?Compare@?$CStringT@DV?$StrTraitMFC_DLL@DV?$ChTraitsCRT@D@ATL@@@@@ATL@@QBEHPBD@Z
; File D:\git\src\IBK\IBK_DRFN\ProjSrc\SrcChartEx\ChartOCX\AddInManager\ChartCommonAddIn\SimpleCompareChartAddInImp.cpp

; 151  : 		while( strVertScaleGroup.Left( m_nGraphHeaderLen) == _GRAPH_HEADER)

  007b6	8d 4d d4	 lea	 ecx, DWORD PTR $T15[ebp]
  007b9	c6 45 fc 17	 mov	 BYTE PTR __$EHRec$[ebp+8], 23 ; 00000017H
; File C:\Program Files (x86)\Microsoft Visual Studio\2019\Community\VC\Tools\MSVC\14.29.30133\atlmfc\include\cstringt.h

; 2486 : 		return(str1.Compare(psz2) == 0);

  007bd	8b f8		 mov	 edi, eax
; File D:\git\src\IBK\IBK_DRFN\ProjSrc\SrcChartEx\ChartOCX\AddInManager\ChartCommonAddIn\SimpleCompareChartAddInImp.cpp

; 151  : 		while( strVertScaleGroup.Left( m_nGraphHeaderLen) == _GRAPH_HEADER)

  007bf	ff 15 00 00 00
	00		 call	 DWORD PTR __imp_??1?$CStringT@DV?$StrTraitMFC_DLL@DV?$ChTraitsCRT@D@ATL@@@@@ATL@@QAE@XZ
  007c5	85 ff		 test	 edi, edi
  007c7	0f 84 c3 fd ff
	ff		 je	 $LL10@GetAndPars
  007cd	8b 5d bc	 mov	 ebx, DWORD PTR _psnVertScaleGroup$1$[ebp]
$LN11@GetAndPars:

; 173  : 	}

  007d0	8d 4d e4	 lea	 ecx, DWORD PTR _strVertScaleGroup$25[ebp]
  007d3	c6 45 fc 0f	 mov	 BYTE PTR __$EHRec$[ebp+8], 15 ; 0000000fH
  007d7	ff 15 00 00 00
	00		 call	 DWORD PTR __imp_??1?$CStringT@DV?$StrTraitMFC_DLL@DV?$ChTraitsCRT@D@ATL@@@@@ATL@@QAE@XZ
  007dd	85 db		 test	 ebx, ebx
  007df	0f 85 4d fd ff
	ff		 jne	 $LL8@GetAndPars
$LN9@GetAndPars:

; 174  : }

  007e5	8d 4d 98	 lea	 ecx, DWORD PTR _slVertScaleGroupList$[ebp]
  007e8	e8 00 00 00 00	 call	 ??1CStringList@@UAE@XZ	; CStringList::~CStringList
  007ed	8d 4d e8	 lea	 ecx, DWORD PTR _strBlockInfo2$[ebp]
  007f0	ff 15 00 00 00
	00		 call	 DWORD PTR __imp_??1?$CStringT@DV?$StrTraitMFC_DLL@DV?$ChTraitsCRT@D@ATL@@@@@ATL@@QAE@XZ
  007f6	8d 8d 7c ff ff
	ff		 lea	 ecx, DWORD PTR _slBlockList$[ebp]
  007fc	e8 00 00 00 00	 call	 ??1CStringList@@UAE@XZ	; CStringList::~CStringList
  00801	8d 4d ec	 lea	 ecx, DWORD PTR _strChartList$[ebp]
  00804	ff 15 00 00 00
	00		 call	 DWORD PTR __imp_??1?$CStringT@DV?$StrTraitMFC_DLL@DV?$ChTraitsCRT@D@ATL@@@@@ATL@@QAE@XZ
; File D:\git\src\IBK\IBK_DRFN\ProjSrc\SrcChartEx\ChartOCX\AddInManager\Include_AddIn\I000000\_IString.h

; 45   : 		if( m_pIStrData)

  0080a	8b 4d b8	 mov	 ecx, DWORD PTR _szChartList$[ebp+4]
  0080d	c7 45 fc 22 00
	00 00		 mov	 DWORD PTR __$EHRec$[ebp+8], 34 ; 00000022H
  00814	85 c9		 test	 ecx, ecx
  00816	74 06		 je	 SHORT $LN130@GetAndPars

; 46   : 		{
; 47   : 			m_pIStrData->Release();

  00818	8b 01		 mov	 eax, DWORD PTR [ecx]
  0081a	51		 push	 ecx
  0081b	ff 50 08	 call	 DWORD PTR [eax+8]
$LN130@GetAndPars:
; File D:\git\src\IBK\IBK_DRFN\ProjSrc\SrcChartEx\ChartOCX\AddInManager\ChartCommonAddIn\SimpleCompareChartAddInImp.cpp

; 174  : }

  0081e	8b 4d f4	 mov	 ecx, DWORD PTR __$EHRec$[ebp]
  00821	64 89 0d 00 00
	00 00		 mov	 DWORD PTR fs:0, ecx
  00828	59		 pop	 ecx
  00829	5f		 pop	 edi
  0082a	5e		 pop	 esi
  0082b	5b		 pop	 ebx
  0082c	8b e5		 mov	 esp, ebp
  0082e	5d		 pop	 ebp
  0082f	c3		 ret	 0
$LN138@GetAndPars:
  00830	e8 00 00 00 00	 call	 ?AfxThrowInvalidArgException@@YGXXZ ; AfxThrowInvalidArgException
$LN156@GetAndPars:
  00835	cc		 int	 3
_TEXT	ENDS
;	COMDAT text$x
text$x	SEGMENT
__unwindfunclet$?GetAndParseChartListInfo@CSimpleCompareChartAddInImp@@IAEXXZ$0:
  00000	8d 4d b4	 lea	 ecx, DWORD PTR _szChartList$[ebp]
  00003	e9 00 00 00 00	 jmp	 ??1ILPCSTR000000@@QAE@XZ ; ILPCSTR000000::~ILPCSTR000000
__unwindfunclet$?GetAndParseChartListInfo@CSimpleCompareChartAddInImp@@IAEXXZ$1:
  00008	8d 4d ec	 lea	 ecx, DWORD PTR _strChartList$[ebp]
  0000b	ff 25 00 00 00
	00		 jmp	 DWORD PTR __imp_??1?$CStringT@DV?$StrTraitMFC_DLL@DV?$ChTraitsCRT@D@ATL@@@@@ATL@@QAE@XZ
__unwindfunclet$?GetAndParseChartListInfo@CSimpleCompareChartAddInImp@@IAEXXZ$2:
  00011	8d 4d d4	 lea	 ecx, DWORD PTR $T17[ebp]
  00014	ff 25 00 00 00
	00		 jmp	 DWORD PTR __imp_??1?$CStringT@DV?$StrTraitMFC_DLL@DV?$ChTraitsCRT@D@ATL@@@@@ATL@@QAE@XZ
__unwindfunclet$?GetAndParseChartListInfo@CSimpleCompareChartAddInImp@@IAEXXZ$3:
  0001a	8d 8d 7c ff ff
	ff		 lea	 ecx, DWORD PTR _slBlockList$[ebp]
  00020	e9 00 00 00 00	 jmp	 ??1CStringList@@UAE@XZ	; CStringList::~CStringList
__unwindfunclet$?GetAndParseChartListInfo@CSimpleCompareChartAddInImp@@IAEXXZ$4:
  00025	8d 4d e8	 lea	 ecx, DWORD PTR _strBlockInfo2$[ebp]
  00028	ff 25 00 00 00
	00		 jmp	 DWORD PTR __imp_??1?$CStringT@DV?$StrTraitMFC_DLL@DV?$ChTraitsCRT@D@ATL@@@@@ATL@@QAE@XZ
__unwindfunclet$?GetAndParseChartListInfo@CSimpleCompareChartAddInImp@@IAEXXZ$5:
  0002e	8d 4d e0	 lea	 ecx, DWORD PTR $T24[ebp]
  00031	ff 25 00 00 00
	00		 jmp	 DWORD PTR __imp_??1?$CStringT@DV?$StrTraitMFC_DLL@DV?$ChTraitsCRT@D@ATL@@@@@ATL@@QAE@XZ
__unwindfunclet$?GetAndParseChartListInfo@CSimpleCompareChartAddInImp@@IAEXXZ$6:
  00037	8d 4d f0	 lea	 ecx, DWORD PTR _strBlock$30[ebp]
  0003a	ff 25 00 00 00
	00		 jmp	 DWORD PTR __imp_??1?$CStringT@DV?$StrTraitMFC_DLL@DV?$ChTraitsCRT@D@ATL@@@@@ATL@@QAE@XZ
__unwindfunclet$?GetAndParseChartListInfo@CSimpleCompareChartAddInImp@@IAEXXZ$7:
  00040	8d 4d d4	 lea	 ecx, DWORD PTR $T16[ebp]
  00043	ff 25 00 00 00
	00		 jmp	 DWORD PTR __imp_??1?$CStringT@DV?$StrTraitMFC_DLL@DV?$ChTraitsCRT@D@ATL@@@@@ATL@@QAE@XZ
__unwindfunclet$?GetAndParseChartListInfo@CSimpleCompareChartAddInImp@@IAEXXZ$8:
  00049	8d 4d d8	 lea	 ecx, DWORD PTR $T19[ebp]
  0004c	ff 25 00 00 00
	00		 jmp	 DWORD PTR __imp_??1?$CStringT@DV?$StrTraitMFC_DLL@DV?$ChTraitsCRT@D@ATL@@@@@ATL@@QAE@XZ
__unwindfunclet$?GetAndParseChartListInfo@CSimpleCompareChartAddInImp@@IAEXXZ$9:
  00052	8d 4d e4	 lea	 ecx, DWORD PTR _strBlockInfo$27[ebp]
  00055	ff 25 00 00 00
	00		 jmp	 DWORD PTR __imp_??1?$CStringT@DV?$StrTraitMFC_DLL@DV?$ChTraitsCRT@D@ATL@@@@@ATL@@QAE@XZ
__unwindfunclet$?GetAndParseChartListInfo@CSimpleCompareChartAddInImp@@IAEXXZ$10:
  0005b	8d 4d dc	 lea	 ecx, DWORD PTR $T21[ebp]
  0005e	ff 25 00 00 00
	00		 jmp	 DWORD PTR __imp_??1?$CStringT@DV?$StrTraitMFC_DLL@DV?$ChTraitsCRT@D@ATL@@@@@ATL@@QAE@XZ
__unwindfunclet$?GetAndParseChartListInfo@CSimpleCompareChartAddInImp@@IAEXXZ$11:
  00064	8d 4d d0	 lea	 ecx, DWORD PTR $T14[ebp]
  00067	ff 25 00 00 00
	00		 jmp	 DWORD PTR __imp_??1?$CStringT@DV?$StrTraitMFC_DLL@DV?$ChTraitsCRT@D@ATL@@@@@ATL@@QAE@XZ
__unwindfunclet$?GetAndParseChartListInfo@CSimpleCompareChartAddInImp@@IAEXXZ$12:
  0006d	8d 4d cc	 lea	 ecx, DWORD PTR $T11[ebp]
  00070	ff 25 00 00 00
	00		 jmp	 DWORD PTR __imp_??1?$CStringT@DV?$StrTraitMFC_DLL@DV?$ChTraitsCRT@D@ATL@@@@@ATL@@QAE@XZ
__unwindfunclet$?GetAndParseChartListInfo@CSimpleCompareChartAddInImp@@IAEXXZ$13:
  00076	8d 4d c8	 lea	 ecx, DWORD PTR $T8[ebp]
  00079	ff 25 00 00 00
	00		 jmp	 DWORD PTR __imp_??1?$CStringT@DV?$StrTraitMFC_DLL@DV?$ChTraitsCRT@D@ATL@@@@@ATL@@QAE@XZ
__unwindfunclet$?GetAndParseChartListInfo@CSimpleCompareChartAddInImp@@IAEXXZ$14:
  0007f	8d 4d c4	 lea	 ecx, DWORD PTR $T5[ebp]
  00082	ff 25 00 00 00
	00		 jmp	 DWORD PTR __imp_??1?$CStringT@DV?$StrTraitMFC_DLL@DV?$ChTraitsCRT@D@ATL@@@@@ATL@@QAE@XZ
__unwindfunclet$?GetAndParseChartListInfo@CSimpleCompareChartAddInImp@@IAEXXZ$15:
  00088	8d 4d 98	 lea	 ecx, DWORD PTR _slVertScaleGroupList$[ebp]
  0008b	e9 00 00 00 00	 jmp	 ??1CStringList@@UAE@XZ	; CStringList::~CStringList
__unwindfunclet$?GetAndParseChartListInfo@CSimpleCompareChartAddInImp@@IAEXXZ$16:
  00090	8d 4d e4	 lea	 ecx, DWORD PTR _strBlock$26[ebp]
  00093	ff 25 00 00 00
	00		 jmp	 DWORD PTR __imp_??1?$CStringT@DV?$StrTraitMFC_DLL@DV?$ChTraitsCRT@D@ATL@@@@@ATL@@QAE@XZ
__unwindfunclet$?GetAndParseChartListInfo@CSimpleCompareChartAddInImp@@IAEXXZ$17:
  00099	8d 4d e0	 lea	 ecx, DWORD PTR $T23[ebp]
  0009c	ff 25 00 00 00
	00		 jmp	 DWORD PTR __imp_??1?$CStringT@DV?$StrTraitMFC_DLL@DV?$ChTraitsCRT@D@ATL@@@@@ATL@@QAE@XZ
__unwindfunclet$?GetAndParseChartListInfo@CSimpleCompareChartAddInImp@@IAEXXZ$18:
  000a2	8d 4d f0	 lea	 ecx, DWORD PTR _strVertScaleGroup$29[ebp]
  000a5	ff 25 00 00 00
	00		 jmp	 DWORD PTR __imp_??1?$CStringT@DV?$StrTraitMFC_DLL@DV?$ChTraitsCRT@D@ATL@@@@@ATL@@QAE@XZ
__unwindfunclet$?GetAndParseChartListInfo@CSimpleCompareChartAddInImp@@IAEXXZ$19:
  000ab	8d 4d c4	 lea	 ecx, DWORD PTR $T4[ebp]
  000ae	ff 25 00 00 00
	00		 jmp	 DWORD PTR __imp_??1?$CStringT@DV?$StrTraitMFC_DLL@DV?$ChTraitsCRT@D@ATL@@@@@ATL@@QAE@XZ
__unwindfunclet$?GetAndParseChartListInfo@CSimpleCompareChartAddInImp@@IAEXXZ$20:
  000b4	8d 4d c8	 lea	 ecx, DWORD PTR $T7[ebp]
  000b7	ff 25 00 00 00
	00		 jmp	 DWORD PTR __imp_??1?$CStringT@DV?$StrTraitMFC_DLL@DV?$ChTraitsCRT@D@ATL@@@@@ATL@@QAE@XZ
__unwindfunclet$?GetAndParseChartListInfo@CSimpleCompareChartAddInImp@@IAEXXZ$21:
  000bd	8d 4d cc	 lea	 ecx, DWORD PTR $T10[ebp]
  000c0	ff 25 00 00 00
	00		 jmp	 DWORD PTR __imp_??1?$CStringT@DV?$StrTraitMFC_DLL@DV?$ChTraitsCRT@D@ATL@@@@@ATL@@QAE@XZ
__unwindfunclet$?GetAndParseChartListInfo@CSimpleCompareChartAddInImp@@IAEXXZ$22:
  000c6	8d 4d d0	 lea	 ecx, DWORD PTR $T13[ebp]
  000c9	ff 25 00 00 00
	00		 jmp	 DWORD PTR __imp_??1?$CStringT@DV?$StrTraitMFC_DLL@DV?$ChTraitsCRT@D@ATL@@@@@ATL@@QAE@XZ
__unwindfunclet$?GetAndParseChartListInfo@CSimpleCompareChartAddInImp@@IAEXXZ$23:
  000cf	8d 4d e4	 lea	 ecx, DWORD PTR _strVertScaleGroup$25[ebp]
  000d2	ff 25 00 00 00
	00		 jmp	 DWORD PTR __imp_??1?$CStringT@DV?$StrTraitMFC_DLL@DV?$ChTraitsCRT@D@ATL@@@@@ATL@@QAE@XZ
__unwindfunclet$?GetAndParseChartListInfo@CSimpleCompareChartAddInImp@@IAEXXZ$24:
  000d8	8d 4d d4	 lea	 ecx, DWORD PTR $T15[ebp]
  000db	ff 25 00 00 00
	00		 jmp	 DWORD PTR __imp_??1?$CStringT@DV?$StrTraitMFC_DLL@DV?$ChTraitsCRT@D@ATL@@@@@ATL@@QAE@XZ
__unwindfunclet$?GetAndParseChartListInfo@CSimpleCompareChartAddInImp@@IAEXXZ$25:
  000e1	8d 4d f0	 lea	 ecx, DWORD PTR _strGraph$28[ebp]
  000e4	ff 25 00 00 00
	00		 jmp	 DWORD PTR __imp_??1?$CStringT@DV?$StrTraitMFC_DLL@DV?$ChTraitsCRT@D@ATL@@@@@ATL@@QAE@XZ
__unwindfunclet$?GetAndParseChartListInfo@CSimpleCompareChartAddInImp@@IAEXXZ$26:
  000ea	8d 4d c4	 lea	 ecx, DWORD PTR $T3[ebp]
  000ed	ff 25 00 00 00
	00		 jmp	 DWORD PTR __imp_??1?$CStringT@DV?$StrTraitMFC_DLL@DV?$ChTraitsCRT@D@ATL@@@@@ATL@@QAE@XZ
__unwindfunclet$?GetAndParseChartListInfo@CSimpleCompareChartAddInImp@@IAEXXZ$27:
  000f3	8d 4d c8	 lea	 ecx, DWORD PTR $T6[ebp]
  000f6	ff 25 00 00 00
	00		 jmp	 DWORD PTR __imp_??1?$CStringT@DV?$StrTraitMFC_DLL@DV?$ChTraitsCRT@D@ATL@@@@@ATL@@QAE@XZ
__unwindfunclet$?GetAndParseChartListInfo@CSimpleCompareChartAddInImp@@IAEXXZ$28:
  000fc	8d 4d d8	 lea	 ecx, DWORD PTR _strGraph1$18[ebp]
  000ff	ff 25 00 00 00
	00		 jmp	 DWORD PTR __imp_??1?$CStringT@DV?$StrTraitMFC_DLL@DV?$ChTraitsCRT@D@ATL@@@@@ATL@@QAE@XZ
__unwindfunclet$?GetAndParseChartListInfo@CSimpleCompareChartAddInImp@@IAEXXZ$29:
  00105	8d 4d cc	 lea	 ecx, DWORD PTR $T9[ebp]
  00108	ff 25 00 00 00
	00		 jmp	 DWORD PTR __imp_??1?$CStringT@DV?$StrTraitMFC_DLL@DV?$ChTraitsCRT@D@ATL@@@@@ATL@@QAE@XZ
__unwindfunclet$?GetAndParseChartListInfo@CSimpleCompareChartAddInImp@@IAEXXZ$30:
  0010e	8d 4d dc	 lea	 ecx, DWORD PTR _strGraph2$20[ebp]
  00111	ff 25 00 00 00
	00		 jmp	 DWORD PTR __imp_??1?$CStringT@DV?$StrTraitMFC_DLL@DV?$ChTraitsCRT@D@ATL@@@@@ATL@@QAE@XZ
__unwindfunclet$?GetAndParseChartListInfo@CSimpleCompareChartAddInImp@@IAEXXZ$31:
  00117	8d 4d d0	 lea	 ecx, DWORD PTR $T12[ebp]
  0011a	ff 25 00 00 00
	00		 jmp	 DWORD PTR __imp_??1?$CStringT@DV?$StrTraitMFC_DLL@DV?$ChTraitsCRT@D@ATL@@@@@ATL@@QAE@XZ
__unwindfunclet$?GetAndParseChartListInfo@CSimpleCompareChartAddInImp@@IAEXXZ$32:
  00120	8d 4d e0	 lea	 ecx, DWORD PTR _strGraphTitle$22[ebp]
  00123	ff 25 00 00 00
	00		 jmp	 DWORD PTR __imp_??1?$CStringT@DV?$StrTraitMFC_DLL@DV?$ChTraitsCRT@D@ATL@@@@@ATL@@QAE@XZ
__unwindfunclet$?GetAndParseChartListInfo@CSimpleCompareChartAddInImp@@IAEXXZ$33:
  00129	8d 4d c0	 lea	 ecx, DWORD PTR $T2[ebp]
  0012c	ff 25 00 00 00
	00		 jmp	 DWORD PTR __imp_??1?$CStringT@DV?$StrTraitMFC_DLL@DV?$ChTraitsCRT@D@ATL@@@@@ATL@@QAE@XZ
  00132	cc		 int	 3
  00133	cc		 int	 3
  00134	cc		 int	 3
  00135	cc		 int	 3
  00136	cc		 int	 3
__ehhandler$?GetAndParseChartListInfo@CSimpleCompareChartAddInImp@@IAEXXZ:
  00137	90		 npad	 1
  00138	90		 npad	 1
  00139	8b 54 24 08	 mov	 edx, DWORD PTR [esp+8]
  0013d	8d 42 0c	 lea	 eax, DWORD PTR [edx+12]
  00140	8b 8a 78 ff ff
	ff		 mov	 ecx, DWORD PTR [edx-136]
  00146	33 c8		 xor	 ecx, eax
  00148	e8 00 00 00 00	 call	 @__security_check_cookie@4
  0014d	b8 00 00 00 00	 mov	 eax, OFFSET __ehfuncinfo$?GetAndParseChartListInfo@CSimpleCompareChartAddInImp@@IAEXXZ
  00152	e9 00 00 00 00	 jmp	 ___CxxFrameHandler3
text$x	ENDS
?GetAndParseChartListInfo@CSimpleCompareChartAddInImp@@IAEXXZ ENDP ; CSimpleCompareChartAddInImp::GetAndParseChartListInfo
; Function compile flags: /Ogtp
; File D:\git\src\IBK\IBK_DRFN\ProjSrc\SrcChartEx\ChartOCX\AddInManager\ChartCommonAddIn\SimpleCompareChartAddInImp.cpp
; File C:\Program Files (x86)\Microsoft Visual Studio\2019\Community\VC\Tools\MSVC\14.29.30133\atlmfc\include\cstringt.h
; File D:\git\src\IBK\IBK_DRFN\ProjSrc\SrcChartEx\ChartOCX\AddInManager\ChartCommonAddIn\SimpleCompareChartAddInImp.cpp
; File C:\Program Files (x86)\Microsoft Visual Studio\2019\Community\VC\Tools\MSVC\14.29.30133\atlmfc\include\cstringt.h
; File D:\git\src\IBK\IBK_DRFN\ProjSrc\SrcChartEx\ChartOCX\AddInManager\ChartCommonAddIn\SimpleCompareChartAddInImp.cpp
; File C:\Program Files (x86)\Microsoft Visual Studio\2019\Community\VC\Tools\MSVC\14.29.30133\atlmfc\include\cstringt.h
; File D:\git\src\IBK\IBK_DRFN\ProjSrc\SrcChartEx\ChartOCX\AddInManager\ChartCommonAddIn\SimpleCompareChartAddInImp.cpp
; File C:\Program Files (x86)\Microsoft Visual Studio\2019\Community\VC\Tools\MSVC\14.29.30133\atlmfc\include\atlsimpstr.h
; File D:\git\src\IBK\IBK_DRFN\ProjSrc\SrcChartEx\ChartOCX\AddInManager\ChartCommonAddIn\SimpleCompareChartAddInImp.cpp
; File C:\Program Files (x86)\Microsoft Visual Studio\2019\Community\VC\Tools\MSVC\14.29.30133\atlmfc\include\atlsimpstr.h
; File D:\git\src\IBK\IBK_DRFN\ProjSrc\SrcChartEx\ChartOCX\AddInManager\ChartCommonAddIn\SimpleCompareChartAddInImp.cpp
;	COMDAT ?InvokeAddInStr@CSimpleCompareChartAddInImp@@MAEHPBD0@Z
_TEXT	SEGMENT
$T2 = -20						; size = 4
_strTitles$ = -16					; size = 4
__$EHRec$ = -12						; size = 12
_strTitle$3 = 8						; size = 4
_p_szCommandName$ = 8					; size = 4
$T4 = 12						; size = 4
_p_szData$ = 12						; size = 4
?InvokeAddInStr@CSimpleCompareChartAddInImp@@MAEHPBD0@Z PROC ; CSimpleCompareChartAddInImp::InvokeAddInStr, COMDAT
; _this$ = ecx

; 70   : {

  00000	55		 push	 ebp
  00001	8b ec		 mov	 ebp, esp
  00003	6a ff		 push	 -1
  00005	68 00 00 00 00	 push	 __ehhandler$?InvokeAddInStr@CSimpleCompareChartAddInImp@@MAEHPBD0@Z
  0000a	64 a1 00 00 00
	00		 mov	 eax, DWORD PTR fs:0
  00010	50		 push	 eax
  00011	83 ec 08	 sub	 esp, 8
  00014	53		 push	 ebx
  00015	56		 push	 esi
  00016	57		 push	 edi
  00017	a1 00 00 00 00	 mov	 eax, DWORD PTR ___security_cookie
  0001c	33 c5		 xor	 eax, ebp
  0001e	50		 push	 eax
  0001f	8d 45 f4	 lea	 eax, DWORD PTR __$EHRec$[ebp]
  00022	64 a3 00 00 00
	00		 mov	 DWORD PTR fs:0, eax
  00028	8b f9		 mov	 edi, ecx

; 71   : 	if( CString( "TITLE") != p_szCommandName) return FALSE;

  0002a	68 00 00 00 00	 push	 OFFSET ??_C@_05DMCAHJJE@TITLE@
  0002f	8d 4d ec	 lea	 ecx, DWORD PTR $T2[ebp]
  00032	ff 15 00 00 00
	00		 call	 DWORD PTR __imp_??0?$CStringT@DV?$StrTraitMFC_DLL@DV?$ChTraitsCRT@D@ATL@@@@@ATL@@QAE@PBD@Z
; File C:\Program Files (x86)\Microsoft Visual Studio\2019\Community\VC\Tools\MSVC\14.29.30133\atlmfc\include\cstringt.h

; 2567 : 		return( str1.Compare( psz2 ) != 0 );

  00038	ff 75 08	 push	 DWORD PTR _p_szCommandName$[ebp]
  0003b	8b c8		 mov	 ecx, eax
; File D:\git\src\IBK\IBK_DRFN\ProjSrc\SrcChartEx\ChartOCX\AddInManager\ChartCommonAddIn\SimpleCompareChartAddInImp.cpp

; 71   : 	if( CString( "TITLE") != p_szCommandName) return FALSE;

  0003d	c7 45 fc 00 00
	00 00		 mov	 DWORD PTR __$EHRec$[ebp+8], 0
; File C:\Program Files (x86)\Microsoft Visual Studio\2019\Community\VC\Tools\MSVC\14.29.30133\atlmfc\include\cstringt.h

; 2567 : 		return( str1.Compare( psz2 ) != 0 );

  00044	ff 15 00 00 00
	00		 call	 DWORD PTR __imp_?Compare@?$CStringT@DV?$StrTraitMFC_DLL@DV?$ChTraitsCRT@D@ATL@@@@@ATL@@QBEHPBD@Z
; File D:\git\src\IBK\IBK_DRFN\ProjSrc\SrcChartEx\ChartOCX\AddInManager\ChartCommonAddIn\SimpleCompareChartAddInImp.cpp

; 71   : 	if( CString( "TITLE") != p_szCommandName) return FALSE;

  0004a	8d 4d ec	 lea	 ecx, DWORD PTR $T2[ebp]
  0004d	c7 45 fc ff ff
	ff ff		 mov	 DWORD PTR __$EHRec$[ebp+8], -1
; File C:\Program Files (x86)\Microsoft Visual Studio\2019\Community\VC\Tools\MSVC\14.29.30133\atlmfc\include\cstringt.h

; 2567 : 		return( str1.Compare( psz2 ) != 0 );

  00054	8b f0		 mov	 esi, eax
; File D:\git\src\IBK\IBK_DRFN\ProjSrc\SrcChartEx\ChartOCX\AddInManager\ChartCommonAddIn\SimpleCompareChartAddInImp.cpp

; 71   : 	if( CString( "TITLE") != p_szCommandName) return FALSE;

  00056	ff 15 00 00 00
	00		 call	 DWORD PTR __imp_??1?$CStringT@DV?$StrTraitMFC_DLL@DV?$ChTraitsCRT@D@ATL@@@@@ATL@@QAE@XZ
  0005c	85 f6		 test	 esi, esi
  0005e	74 16		 je	 SHORT $LN4@InvokeAddI
  00060	33 c0		 xor	 eax, eax

; 88   : }

  00062	8b 4d f4	 mov	 ecx, DWORD PTR __$EHRec$[ebp]
  00065	64 89 0d 00 00
	00 00		 mov	 DWORD PTR fs:0, ecx
  0006c	59		 pop	 ecx
  0006d	5f		 pop	 edi
  0006e	5e		 pop	 esi
  0006f	5b		 pop	 ebx
  00070	8b e5		 mov	 esp, ebp
  00072	5d		 pop	 ebp
  00073	c2 08 00	 ret	 8
$LN4@InvokeAddI:

; 72   : 
; 73   : 	// (2009/6/4 - Seung-Won, Bae) Parse and Generate ChartListInfo.
; 74   : 	GetAndParseChartListInfo();

  00076	8d 4f f8	 lea	 ecx, DWORD PTR [edi-8]
  00079	e8 00 00 00 00	 call	 ?GetAndParseChartListInfo@CSimpleCompareChartAddInImp@@IAEXXZ ; CSimpleCompareChartAddInImp::GetAndParseChartListInfo

; 75   : 	CString strTitles( p_szData);

  0007e	ff 75 0c	 push	 DWORD PTR _p_szData$[ebp]
  00081	8d 4d f0	 lea	 ecx, DWORD PTR _strTitles$[ebp]
  00084	ff 15 00 00 00
	00		 call	 DWORD PTR __imp_??0?$CStringT@DV?$StrTraitMFC_DLL@DV?$ChTraitsCRT@D@ATL@@@@@ATL@@QAE@PBD@Z

; 76   : 	m_slGraphTitle.RemoveAll();

  0008a	8d 8f a4 00 00
	00		 lea	 ecx, DWORD PTR [edi+164]
  00090	c7 45 fc 01 00
	00 00		 mov	 DWORD PTR __$EHRec$[ebp+8], 1
  00097	e8 00 00 00 00	 call	 ?RemoveAll@CStringList@@QAEXXZ ; CStringList::RemoveAll

; 77   : 	int nIndex = strTitles.Find( '|');

  0009c	6a 00		 push	 0
  0009e	6a 7c		 push	 124			; 0000007cH
  000a0	8d 4d f0	 lea	 ecx, DWORD PTR _strTitles$[ebp]
  000a3	ff 15 00 00 00
	00		 call	 DWORD PTR __imp_?Find@?$CStringT@DV?$StrTraitMFC_DLL@DV?$ChTraitsCRT@D@ATL@@@@@ATL@@QBEHDH@Z
  000a9	8b f0		 mov	 esi, eax

; 78   : 	while( 0 <= nIndex)

  000ab	85 f6		 test	 esi, esi
  000ad	78 6e		 js	 SHORT $LN3@InvokeAddI
  000af	90		 npad	 1
$LL2@InvokeAddI:

; 79   : 	{
; 80   : 		CString strTitle = strTitles.Left( nIndex);

  000b0	56		 push	 esi
  000b1	8d 45 08	 lea	 eax, DWORD PTR _strTitle$3[ebp]
  000b4	50		 push	 eax
  000b5	8d 4d f0	 lea	 ecx, DWORD PTR _strTitles$[ebp]
  000b8	ff 15 00 00 00
	00		 call	 DWORD PTR __imp_?Left@?$CStringT@DV?$StrTraitMFC_DLL@DV?$ChTraitsCRT@D@ATL@@@@@ATL@@QBE?AV12@H@Z

; 81   : 		m_slGraphTitle.AddTail( strTitle);

  000be	8d 45 08	 lea	 eax, DWORD PTR _strTitle$3[ebp]
  000c1	c6 45 fc 02	 mov	 BYTE PTR __$EHRec$[ebp+8], 2
  000c5	50		 push	 eax
  000c6	8d 8f a4 00 00
	00		 lea	 ecx, DWORD PTR [edi+164]
  000cc	e8 00 00 00 00	 call	 ?AddTail@CStringList@@QAEPAU__POSITION@@ABV?$CStringT@DV?$StrTraitMFC_DLL@DV?$ChTraitsCRT@D@ATL@@@@@ATL@@@Z ; CStringList::AddTail
; File C:\Program Files (x86)\Microsoft Visual Studio\2019\Community\VC\Tools\MSVC\14.29.30133\atlmfc\include\atlsimpstr.h

; 519  : 		return( GetData()->nDataLength );

  000d1	8b 45 08	 mov	 eax, DWORD PTR _strTitle$3[ebp]
; File D:\git\src\IBK\IBK_DRFN\ProjSrc\SrcChartEx\ChartOCX\AddInManager\ChartCommonAddIn\SimpleCompareChartAddInImp.cpp

; 82   : 		strTitles = strTitles.Mid( strTitle.GetLength() + 1);

  000d4	8d 4d f0	 lea	 ecx, DWORD PTR _strTitles$[ebp]
; File C:\Program Files (x86)\Microsoft Visual Studio\2019\Community\VC\Tools\MSVC\14.29.30133\atlmfc\include\atlsimpstr.h

; 519  : 		return( GetData()->nDataLength );

  000d7	8b 40 f4	 mov	 eax, DWORD PTR [eax-12]
; File D:\git\src\IBK\IBK_DRFN\ProjSrc\SrcChartEx\ChartOCX\AddInManager\ChartCommonAddIn\SimpleCompareChartAddInImp.cpp

; 82   : 		strTitles = strTitles.Mid( strTitle.GetLength() + 1);

  000da	40		 inc	 eax
  000db	50		 push	 eax
  000dc	8d 45 0c	 lea	 eax, DWORD PTR $T4[ebp]
  000df	50		 push	 eax
  000e0	ff 15 00 00 00
	00		 call	 DWORD PTR __imp_?Mid@?$CStringT@DV?$StrTraitMFC_DLL@DV?$ChTraitsCRT@D@ATL@@@@@ATL@@QBE?AV12@H@Z
  000e6	50		 push	 eax
  000e7	8d 4d f0	 lea	 ecx, DWORD PTR _strTitles$[ebp]
  000ea	c6 45 fc 03	 mov	 BYTE PTR __$EHRec$[ebp+8], 3
  000ee	ff 15 00 00 00
	00		 call	 DWORD PTR __imp_??4?$CStringT@DV?$StrTraitMFC_DLL@DV?$ChTraitsCRT@D@ATL@@@@@ATL@@QAEAAV01@ABV01@@Z
  000f4	8d 4d 0c	 lea	 ecx, DWORD PTR $T4[ebp]
  000f7	ff 15 00 00 00
	00		 call	 DWORD PTR __imp_??1?$CStringT@DV?$StrTraitMFC_DLL@DV?$ChTraitsCRT@D@ATL@@@@@ATL@@QAE@XZ

; 83   : 		nIndex = strTitles.Find( '|');

  000fd	6a 00		 push	 0
  000ff	6a 7c		 push	 124			; 0000007cH
  00101	8d 4d f0	 lea	 ecx, DWORD PTR _strTitles$[ebp]
  00104	ff 15 00 00 00
	00		 call	 DWORD PTR __imp_?Find@?$CStringT@DV?$StrTraitMFC_DLL@DV?$ChTraitsCRT@D@ATL@@@@@ATL@@QBEHDH@Z

; 84   : 	}

  0010a	8d 4d 08	 lea	 ecx, DWORD PTR _strTitle$3[ebp]
  0010d	c6 45 fc 01	 mov	 BYTE PTR __$EHRec$[ebp+8], 1
  00111	8b f0		 mov	 esi, eax
  00113	ff 15 00 00 00
	00		 call	 DWORD PTR __imp_??1?$CStringT@DV?$StrTraitMFC_DLL@DV?$ChTraitsCRT@D@ATL@@@@@ATL@@QAE@XZ
  00119	85 f6		 test	 esi, esi
  0011b	79 93		 jns	 SHORT $LL2@InvokeAddI
$LN3@InvokeAddI:

; 85   : 	GenerateAndSetChartListInfo();

  0011d	8d 4f f8	 lea	 ecx, DWORD PTR [edi-8]
  00120	e8 00 00 00 00	 call	 ?GenerateAndSetChartListInfo@CSimpleCompareChartAddInImp@@IAEXXZ ; CSimpleCompareChartAddInImp::GenerateAndSetChartListInfo

; 86   : 
; 87   : 	return TRUE;

  00125	8d 4d f0	 lea	 ecx, DWORD PTR _strTitles$[ebp]
  00128	ff 15 00 00 00
	00		 call	 DWORD PTR __imp_??1?$CStringT@DV?$StrTraitMFC_DLL@DV?$ChTraitsCRT@D@ATL@@@@@ATL@@QAE@XZ
  0012e	b8 01 00 00 00	 mov	 eax, 1

; 88   : }

  00133	8b 4d f4	 mov	 ecx, DWORD PTR __$EHRec$[ebp]
  00136	64 89 0d 00 00
	00 00		 mov	 DWORD PTR fs:0, ecx
  0013d	59		 pop	 ecx
  0013e	5f		 pop	 edi
  0013f	5e		 pop	 esi
  00140	5b		 pop	 ebx
  00141	8b e5		 mov	 esp, ebp
  00143	5d		 pop	 ebp
  00144	c2 08 00	 ret	 8
_TEXT	ENDS
;	COMDAT text$x
text$x	SEGMENT
__unwindfunclet$?InvokeAddInStr@CSimpleCompareChartAddInImp@@MAEHPBD0@Z$0:
  00000	8d 4d ec	 lea	 ecx, DWORD PTR $T2[ebp]
  00003	ff 25 00 00 00
	00		 jmp	 DWORD PTR __imp_??1?$CStringT@DV?$StrTraitMFC_DLL@DV?$ChTraitsCRT@D@ATL@@@@@ATL@@QAE@XZ
__unwindfunclet$?InvokeAddInStr@CSimpleCompareChartAddInImp@@MAEHPBD0@Z$1:
  00009	8d 4d f0	 lea	 ecx, DWORD PTR _strTitles$[ebp]
  0000c	ff 25 00 00 00
	00		 jmp	 DWORD PTR __imp_??1?$CStringT@DV?$StrTraitMFC_DLL@DV?$ChTraitsCRT@D@ATL@@@@@ATL@@QAE@XZ
__unwindfunclet$?InvokeAddInStr@CSimpleCompareChartAddInImp@@MAEHPBD0@Z$2:
  00012	8d 4d 08	 lea	 ecx, DWORD PTR _strTitle$3[ebp]
  00015	ff 25 00 00 00
	00		 jmp	 DWORD PTR __imp_??1?$CStringT@DV?$StrTraitMFC_DLL@DV?$ChTraitsCRT@D@ATL@@@@@ATL@@QAE@XZ
__unwindfunclet$?InvokeAddInStr@CSimpleCompareChartAddInImp@@MAEHPBD0@Z$3:
  0001b	8d 4d 0c	 lea	 ecx, DWORD PTR $T4[ebp]
  0001e	ff 25 00 00 00
	00		 jmp	 DWORD PTR __imp_??1?$CStringT@DV?$StrTraitMFC_DLL@DV?$ChTraitsCRT@D@ATL@@@@@ATL@@QAE@XZ
  00024	cc		 int	 3
  00025	cc		 int	 3
  00026	cc		 int	 3
  00027	cc		 int	 3
  00028	cc		 int	 3
__ehhandler$?InvokeAddInStr@CSimpleCompareChartAddInImp@@MAEHPBD0@Z:
  00029	90		 npad	 1
  0002a	90		 npad	 1
  0002b	8b 54 24 08	 mov	 edx, DWORD PTR [esp+8]
  0002f	8d 42 0c	 lea	 eax, DWORD PTR [edx+12]
  00032	8b 4a e8	 mov	 ecx, DWORD PTR [edx-24]
  00035	33 c8		 xor	 ecx, eax
  00037	e8 00 00 00 00	 call	 @__security_check_cookie@4
  0003c	b8 00 00 00 00	 mov	 eax, OFFSET __ehfuncinfo$?InvokeAddInStr@CSimpleCompareChartAddInImp@@MAEHPBD0@Z
  00041	e9 00 00 00 00	 jmp	 ___CxxFrameHandler3
text$x	ENDS
?InvokeAddInStr@CSimpleCompareChartAddInImp@@MAEHPBD0@Z ENDP ; CSimpleCompareChartAddInImp::InvokeAddInStr
; Function compile flags: /Ogtp
; File D:\git\src\IBK\IBK_DRFN\ProjSrc\SrcChartEx\ChartOCX\AddInManager\ChartCommonAddIn\SimpleCompareChartAddInImp.cpp
;	COMDAT ?InvokeAddIn@CSimpleCompareChartAddInImp@@MAEHHJ@Z
_TEXT	SEGMENT
_p_nCommandType$ = 8					; size = 4
_p_lData$ = 12						; size = 4
?InvokeAddIn@CSimpleCompareChartAddInImp@@MAEHHJ@Z PROC	; CSimpleCompareChartAddInImp::InvokeAddIn, COMDAT
; _this$ = ecx

; 59   : {

  00000	55		 push	 ebp
  00001	8b ec		 mov	 ebp, esp

; 60   : 	if( p_nCommandType != 0) return FALSE;

  00003	83 7d 08 00	 cmp	 DWORD PTR _p_nCommandType$[ebp], 0
  00007	57		 push	 edi
  00008	8b f9		 mov	 edi, ecx
  0000a	74 07		 je	 SHORT $LN2@InvokeAddI
  0000c	33 c0		 xor	 eax, eax
  0000e	5f		 pop	 edi

; 68   : }

  0000f	5d		 pop	 ebp
  00010	c2 08 00	 ret	 8
$LN2@InvokeAddI:
  00013	56		 push	 esi

; 61   : 
; 62   : 	// (2009/6/4 - Seung-Won, Bae) Parse and Generate ChartListInfo.
; 63   : 	GetAndParseChartListInfo();

  00014	8d 4f f8	 lea	 ecx, DWORD PTR [edi-8]
  00017	e8 00 00 00 00	 call	 ?GetAndParseChartListInfo@CSimpleCompareChartAddInImp@@IAEXXZ ; CSimpleCompareChartAddInImp::GetAndParseChartListInfo

; 64   : 	m_nChartCompareType = p_lData;

  0001c	8b 45 0c	 mov	 eax, DWORD PTR _p_lData$[ebp]

; 65   : 	GenerateAndSetChartListInfo();

  0001f	8d 4f f8	 lea	 ecx, DWORD PTR [edi-8]
  00022	89 47 58	 mov	 DWORD PTR [edi+88], eax
  00025	e8 00 00 00 00	 call	 ?GenerateAndSetChartListInfo@CSimpleCompareChartAddInImp@@IAEXXZ ; CSimpleCompareChartAddInImp::GenerateAndSetChartListInfo

; 66   : 
; 67   : 	return TRUE;

  0002a	5e		 pop	 esi
  0002b	b8 01 00 00 00	 mov	 eax, 1
  00030	5f		 pop	 edi

; 68   : }

  00031	5d		 pop	 ebp
  00032	c2 08 00	 ret	 8
?InvokeAddIn@CSimpleCompareChartAddInImp@@MAEHHJ@Z ENDP	; CSimpleCompareChartAddInImp::InvokeAddIn
_TEXT	ENDS
; Function compile flags: /Ogtp
; File D:\git\src\IBK\IBK_DRFN\ProjSrc\SrcChartEx\ChartOCX\AddInManager\ChartCommonAddIn\SimpleCompareChartAddInImp.h
;	COMDAT ?GetRegisteredEventMap@CSimpleCompareChartAddInImp@@MBEPBW4EAddInEventType@IChartAddIn000000@@XZ
_TEXT	SEGMENT
?GetRegisteredEventMap@CSimpleCompareChartAddInImp@@MBEPBW4EAddInEventType@IChartAddIn000000@@XZ PROC ; CSimpleCompareChartAddInImp::GetRegisteredEventMap, COMDAT
; _this$ = ecx

; 22   : 	DECLARE_ADDIN_EVENT_MAP()

  00000	b8 00 00 00 00	 mov	 eax, OFFSET ?m_eRegisteredEventMap@CSimpleCompareChartAddInImp@@1QBW4EAddInEventType@IChartAddIn000000@@B ; CSimpleCompareChartAddInImp::m_eRegisteredEventMap
  00005	c3		 ret	 0
?GetRegisteredEventMap@CSimpleCompareChartAddInImp@@MBEPBW4EAddInEventType@IChartAddIn000000@@XZ ENDP ; CSimpleCompareChartAddInImp::GetRegisteredEventMap
_TEXT	ENDS
; Function compile flags: /Ogtp
; File D:\git\src\IBK\IBK_DRFN\ProjSrc\SrcChartEx\ChartOCX\AddInManager\ChartCommonAddIn\SimpleCompareChartAddInImp.cpp
;	COMDAT ??1CSimpleCompareChartAddInImp@@UAE@XZ
_TEXT	SEGMENT
??1CSimpleCompareChartAddInImp@@UAE@XZ PROC		; CSimpleCompareChartAddInImp::~CSimpleCompareChartAddInImp, COMDAT
; _this$ = ecx

; 45   : {

  00000	56		 push	 esi
  00001	8b f1		 mov	 esi, ecx

; 46   : }

  00003	8d 8e c8 00 00
	00		 lea	 ecx, DWORD PTR [esi+200]
  00009	c7 06 00 00 00
	00		 mov	 DWORD PTR [esi], OFFSET ??_7CSimpleCompareChartAddInImp@@6BCIWUnknown@@@
  0000f	c7 46 08 00 00
	00 00		 mov	 DWORD PTR [esi+8], OFFSET ??_7CSimpleCompareChartAddInImp@@6BIChartAddIn000000@@@
  00016	e8 00 00 00 00	 call	 ??1CStringList@@UAE@XZ	; CStringList::~CStringList
  0001b	8d 8e ac 00 00
	00		 lea	 ecx, DWORD PTR [esi+172]
  00021	e8 00 00 00 00	 call	 ??1CStringList@@UAE@XZ	; CStringList::~CStringList
  00026	8d 8e 90 00 00
	00		 lea	 ecx, DWORD PTR [esi+144]
  0002c	e8 00 00 00 00	 call	 ??1CStringList@@UAE@XZ	; CStringList::~CStringList
  00031	8d 4e 74	 lea	 ecx, DWORD PTR [esi+116]
  00034	e8 00 00 00 00	 call	 ??1CStringList@@UAE@XZ	; CStringList::~CStringList
  00039	8d 4e 70	 lea	 ecx, DWORD PTR [esi+112]
  0003c	ff 15 00 00 00
	00		 call	 DWORD PTR __imp_??1?$CStringT@DV?$StrTraitMFC_DLL@DV?$ChTraitsCRT@D@ATL@@@@@ATL@@QAE@XZ
  00042	8d 4e 6c	 lea	 ecx, DWORD PTR [esi+108]
  00045	ff 15 00 00 00
	00		 call	 DWORD PTR __imp_??1?$CStringT@DV?$StrTraitMFC_DLL@DV?$ChTraitsCRT@D@ATL@@@@@ATL@@QAE@XZ
  0004b	8d 4e 64	 lea	 ecx, DWORD PTR [esi+100]
  0004e	ff 15 00 00 00
	00		 call	 DWORD PTR __imp_??1?$CStringT@DV?$StrTraitMFC_DLL@DV?$ChTraitsCRT@D@ATL@@@@@ATL@@QAE@XZ
  00054	8b ce		 mov	 ecx, esi
  00056	5e		 pop	 esi
  00057	e9 00 00 00 00	 jmp	 ??1CChartAddInBase000000@@MAE@XZ ; CChartAddInBase000000::~CChartAddInBase000000
??1CSimpleCompareChartAddInImp@@UAE@XZ ENDP		; CSimpleCompareChartAddInImp::~CSimpleCompareChartAddInImp
_TEXT	ENDS
; Function compile flags: /Ogtp
; File D:\git\src\IBK\IBK_DRFN\ProjSrc\SrcChartEx\ChartOCX\AddInManager\ChartCommonAddIn\SimpleCompareChartAddInImp.cpp
;	COMDAT ??0CSimpleCompareChartAddInImp@@QAE@PAUIChartOCX000000@@PAUIAddInDllBase@@@Z
_TEXT	SEGMENT
_this$ = -16						; size = 4
__$EHRec$ = -12						; size = 12
_p_pIChartOCX$ = 8					; size = 4
_p_pIAddInDllBase$ = 12					; size = 4
??0CSimpleCompareChartAddInImp@@QAE@PAUIChartOCX000000@@PAUIAddInDllBase@@@Z PROC ; CSimpleCompareChartAddInImp::CSimpleCompareChartAddInImp, COMDAT
; _this$ = ecx

; 28   : {

  00000	55		 push	 ebp
  00001	8b ec		 mov	 ebp, esp
  00003	6a ff		 push	 -1
  00005	68 00 00 00 00	 push	 __ehhandler$??0CSimpleCompareChartAddInImp@@QAE@PAUIChartOCX000000@@PAUIAddInDllBase@@@Z
  0000a	64 a1 00 00 00
	00		 mov	 eax, DWORD PTR fs:0
  00010	50		 push	 eax
  00011	51		 push	 ecx
  00012	56		 push	 esi
  00013	a1 00 00 00 00	 mov	 eax, DWORD PTR ___security_cookie
  00018	33 c5		 xor	 eax, ebp
  0001a	50		 push	 eax
  0001b	8d 45 f4	 lea	 eax, DWORD PTR __$EHRec$[ebp]
  0001e	64 a3 00 00 00
	00		 mov	 DWORD PTR fs:0, eax
  00024	8b f1		 mov	 esi, ecx
  00026	89 75 f0	 mov	 DWORD PTR _this$[ebp], esi

; 27   : 	: CChartAddInBase( p_pIChartOCX, p_pIAddInDllBase)

  00029	ff 75 0c	 push	 DWORD PTR _p_pIAddInDllBase$[ebp]
  0002c	ff 75 08	 push	 DWORD PTR _p_pIChartOCX$[ebp]
  0002f	e8 00 00 00 00	 call	 ??0CChartAddInBase000000@@IAE@PAUIChartOCX000000@@PAUIAddInDllBase@@@Z ; CChartAddInBase000000::CChartAddInBase000000

; 28   : {

  00034	8d 4e 64	 lea	 ecx, DWORD PTR [esi+100]
  00037	c7 45 fc 00 00
	00 00		 mov	 DWORD PTR __$EHRec$[ebp+8], 0
  0003e	c7 06 00 00 00
	00		 mov	 DWORD PTR [esi], OFFSET ??_7CSimpleCompareChartAddInImp@@6BCIWUnknown@@@
  00044	c7 46 08 00 00
	00 00		 mov	 DWORD PTR [esi+8], OFFSET ??_7CSimpleCompareChartAddInImp@@6BIChartAddIn000000@@@
  0004b	ff 15 00 00 00
	00		 call	 DWORD PTR __imp_??0?$CStringT@DV?$StrTraitMFC_DLL@DV?$ChTraitsCRT@D@ATL@@@@@ATL@@QAE@XZ
  00051	8d 4e 6c	 lea	 ecx, DWORD PTR [esi+108]
  00054	ff 15 00 00 00
	00		 call	 DWORD PTR __imp_??0?$CStringT@DV?$StrTraitMFC_DLL@DV?$ChTraitsCRT@D@ATL@@@@@ATL@@QAE@XZ
  0005a	8d 4e 70	 lea	 ecx, DWORD PTR [esi+112]
  0005d	ff 15 00 00 00
	00		 call	 DWORD PTR __imp_??0?$CStringT@DV?$StrTraitMFC_DLL@DV?$ChTraitsCRT@D@ATL@@@@@ATL@@QAE@XZ
  00063	6a 0a		 push	 10			; 0000000aH
  00065	8d 4e 74	 lea	 ecx, DWORD PTR [esi+116]
  00068	c6 45 fc 03	 mov	 BYTE PTR __$EHRec$[ebp+8], 3
  0006c	e8 00 00 00 00	 call	 ??0CStringList@@QAE@H@Z	; CStringList::CStringList
  00071	6a 0a		 push	 10			; 0000000aH
  00073	8d 8e 90 00 00
	00		 lea	 ecx, DWORD PTR [esi+144]
  00079	c6 45 fc 04	 mov	 BYTE PTR __$EHRec$[ebp+8], 4
  0007d	e8 00 00 00 00	 call	 ??0CStringList@@QAE@H@Z	; CStringList::CStringList
  00082	6a 0a		 push	 10			; 0000000aH
  00084	8d 8e ac 00 00
	00		 lea	 ecx, DWORD PTR [esi+172]
  0008a	c6 45 fc 05	 mov	 BYTE PTR __$EHRec$[ebp+8], 5
  0008e	e8 00 00 00 00	 call	 ??0CStringList@@QAE@H@Z	; CStringList::CStringList
  00093	6a 0a		 push	 10			; 0000000aH
  00095	8d 8e c8 00 00
	00		 lea	 ecx, DWORD PTR [esi+200]
  0009b	c6 45 fc 06	 mov	 BYTE PTR __$EHRec$[ebp+8], 6
  0009f	e8 00 00 00 00	 call	 ??0CStringList@@QAE@H@Z	; CStringList::CStringList

; 29   : 	// (2009/6/4 - Seung-Won, Bae) Parse and Generate ChartListInfo.
; 30   : 	// 1. Meta Info
; 31   : 	m_nBlockColumnHeaderLen		= strlen( _BLOCK_COLUMN_HEADER);

  000a4	c7 46 40 0e 00
	00 00		 mov	 DWORD PTR [esi+64], 14	; 0000000eH

; 32   : 	m_nBlockColumnFooterLen		= strlen( _BLOCK_COLUMN_FOOTER);
; 33   : 	m_nBlockHeaderLen			= strlen( _BLOCK_HEADER);
; 34   : 	m_nBlockFooterLen			= strlen( _BLOCK_FOOTER);
; 35   : 	m_nVertScaleGroupHeaderLen	= strlen( _VERT_SCALE_GROUP_HEADER);
; 36   : 	m_nVertScaleGroupFooterLen	= strlen( _VERT_SCALE_GROUP_FOOTER);
; 37   : 	m_nGraphHeaderLen			= strlen( _GRAPH_HEADER);
; 38   : 	m_nGraphFooterLen			= strlen( _GRAPH_FOOTER);
; 39   : 	// 2. User Setting
; 40   : 	m_nChartCompareType = 0;
; 41   : 	m_nBlockInfo2 = -1;
; 42   : }

  000ab	8b c6		 mov	 eax, esi
  000ad	c7 46 44 11 00
	00 00		 mov	 DWORD PTR [esi+68], 17	; 00000011H
  000b4	c7 46 48 08 00
	00 00		 mov	 DWORD PTR [esi+72], 8
  000bb	c7 46 4c 0b 00
	00 00		 mov	 DWORD PTR [esi+76], 11	; 0000000bH
  000c2	c7 46 50 11 00
	00 00		 mov	 DWORD PTR [esi+80], 17	; 00000011H
  000c9	c7 46 54 14 00
	00 00		 mov	 DWORD PTR [esi+84], 20	; 00000014H
  000d0	c7 46 58 08 00
	00 00		 mov	 DWORD PTR [esi+88], 8
  000d7	c7 46 5c 0b 00
	00 00		 mov	 DWORD PTR [esi+92], 11	; 0000000bH
  000de	c7 46 60 00 00
	00 00		 mov	 DWORD PTR [esi+96], 0
  000e5	c7 46 68 ff ff
	ff ff		 mov	 DWORD PTR [esi+104], -1
  000ec	8b 4d f4	 mov	 ecx, DWORD PTR __$EHRec$[ebp]
  000ef	64 89 0d 00 00
	00 00		 mov	 DWORD PTR fs:0, ecx
  000f6	59		 pop	 ecx
  000f7	5e		 pop	 esi
  000f8	8b e5		 mov	 esp, ebp
  000fa	5d		 pop	 ebp
  000fb	c2 08 00	 ret	 8
_TEXT	ENDS
;	COMDAT text$x
text$x	SEGMENT
__unwindfunclet$??0CSimpleCompareChartAddInImp@@QAE@PAUIChartOCX000000@@PAUIAddInDllBase@@@Z$0:
  00000	8b 4d f0	 mov	 ecx, DWORD PTR _this$[ebp]
  00003	e9 00 00 00 00	 jmp	 ??1CChartAddInBase000000@@MAE@XZ ; CChartAddInBase000000::~CChartAddInBase000000
__unwindfunclet$??0CSimpleCompareChartAddInImp@@QAE@PAUIChartOCX000000@@PAUIAddInDllBase@@@Z$1:
  00008	8b 4d f0	 mov	 ecx, DWORD PTR _this$[ebp]
  0000b	83 c1 64	 add	 ecx, 100		; 00000064H
  0000e	ff 25 00 00 00
	00		 jmp	 DWORD PTR __imp_??1?$CStringT@DV?$StrTraitMFC_DLL@DV?$ChTraitsCRT@D@ATL@@@@@ATL@@QAE@XZ
__unwindfunclet$??0CSimpleCompareChartAddInImp@@QAE@PAUIChartOCX000000@@PAUIAddInDllBase@@@Z$2:
  00014	8b 4d f0	 mov	 ecx, DWORD PTR _this$[ebp]
  00017	83 c1 6c	 add	 ecx, 108		; 0000006cH
  0001a	ff 25 00 00 00
	00		 jmp	 DWORD PTR __imp_??1?$CStringT@DV?$StrTraitMFC_DLL@DV?$ChTraitsCRT@D@ATL@@@@@ATL@@QAE@XZ
__unwindfunclet$??0CSimpleCompareChartAddInImp@@QAE@PAUIChartOCX000000@@PAUIAddInDllBase@@@Z$3:
  00020	8b 4d f0	 mov	 ecx, DWORD PTR _this$[ebp]
  00023	83 c1 70	 add	 ecx, 112		; 00000070H
  00026	ff 25 00 00 00
	00		 jmp	 DWORD PTR __imp_??1?$CStringT@DV?$StrTraitMFC_DLL@DV?$ChTraitsCRT@D@ATL@@@@@ATL@@QAE@XZ
__unwindfunclet$??0CSimpleCompareChartAddInImp@@QAE@PAUIChartOCX000000@@PAUIAddInDllBase@@@Z$4:
  0002c	8b 4d f0	 mov	 ecx, DWORD PTR _this$[ebp]
  0002f	83 c1 74	 add	 ecx, 116		; 00000074H
  00032	e9 00 00 00 00	 jmp	 ??1CStringList@@UAE@XZ	; CStringList::~CStringList
__unwindfunclet$??0CSimpleCompareChartAddInImp@@QAE@PAUIChartOCX000000@@PAUIAddInDllBase@@@Z$5:
  00037	8b 4d f0	 mov	 ecx, DWORD PTR _this$[ebp]
  0003a	81 c1 90 00 00
	00		 add	 ecx, 144		; 00000090H
  00040	e9 00 00 00 00	 jmp	 ??1CStringList@@UAE@XZ	; CStringList::~CStringList
__unwindfunclet$??0CSimpleCompareChartAddInImp@@QAE@PAUIChartOCX000000@@PAUIAddInDllBase@@@Z$6:
  00045	8b 4d f0	 mov	 ecx, DWORD PTR _this$[ebp]
  00048	81 c1 ac 00 00
	00		 add	 ecx, 172		; 000000acH
  0004e	e9 00 00 00 00	 jmp	 ??1CStringList@@UAE@XZ	; CStringList::~CStringList
  00053	cc		 int	 3
  00054	cc		 int	 3
  00055	cc		 int	 3
  00056	cc		 int	 3
  00057	cc		 int	 3
__ehhandler$??0CSimpleCompareChartAddInImp@@QAE@PAUIChartOCX000000@@PAUIAddInDllBase@@@Z:
  00058	90		 npad	 1
  00059	90		 npad	 1
  0005a	8b 54 24 08	 mov	 edx, DWORD PTR [esp+8]
  0005e	8d 42 0c	 lea	 eax, DWORD PTR [edx+12]
  00061	8b 4a f4	 mov	 ecx, DWORD PTR [edx-12]
  00064	33 c8		 xor	 ecx, eax
  00066	e8 00 00 00 00	 call	 @__security_check_cookie@4
  0006b	b8 00 00 00 00	 mov	 eax, OFFSET __ehfuncinfo$??0CSimpleCompareChartAddInImp@@QAE@PAUIChartOCX000000@@PAUIAddInDllBase@@@Z
  00070	e9 00 00 00 00	 jmp	 ___CxxFrameHandler3
text$x	ENDS
??0CSimpleCompareChartAddInImp@@QAE@PAUIChartOCX000000@@PAUIAddInDllBase@@@Z ENDP ; CSimpleCompareChartAddInImp::CSimpleCompareChartAddInImp
; Function compile flags: /Ogtp
; File D:\git\src\IBK\IBK_DRFN\ProjSrc\SrcChartEx\ChartOCX\AddInManager\Include_AddIn\I000000\_ChartAddInBase.h
;	COMDAT ?OnRButtonDblClk@CChartAddInBase000000@@MAEHPAUHDC__@@IAAUtagPOINT@@K@Z
_TEXT	SEGMENT
_p_hDC$ = 8						; size = 4
_nFlags$ = 12						; size = 4
_point$ = 16						; size = 4
_p_dwMouseActionID$ = 20				; size = 4
?OnRButtonDblClk@CChartAddInBase000000@@MAEHPAUHDC__@@IAAUtagPOINT@@K@Z PROC ; CChartAddInBase000000::OnRButtonDblClk, COMDAT
; _this$ = ecx

; 221  : 	virtual BOOL	OnRButtonDblClk(	HDC p_hDC, UINT nFlags, POINT &point, const DWORD p_dwMouseActionID)									{	return FALSE;	}

  00000	33 c0		 xor	 eax, eax
  00002	c2 10 00	 ret	 16			; 00000010H
?OnRButtonDblClk@CChartAddInBase000000@@MAEHPAUHDC__@@IAAUtagPOINT@@K@Z ENDP ; CChartAddInBase000000::OnRButtonDblClk
_TEXT	ENDS
; Function compile flags: /Ogtp
; File D:\git\src\IBK\IBK_DRFN\ProjSrc\SrcChartEx\ChartOCX\AddInManager\Include_AddIn\I000000\_ChartAddInBase.h
;	COMDAT ?OnRButtonUp@CChartAddInBase000000@@MAEHPAUHDC__@@IAAUtagPOINT@@K@Z
_TEXT	SEGMENT
_p_hDC$ = 8						; size = 4
_nFlags$ = 12						; size = 4
_point$ = 16						; size = 4
_p_dwMouseActionID$ = 20				; size = 4
?OnRButtonUp@CChartAddInBase000000@@MAEHPAUHDC__@@IAAUtagPOINT@@K@Z PROC ; CChartAddInBase000000::OnRButtonUp, COMDAT
; _this$ = ecx

; 220  : 	virtual BOOL	OnRButtonUp(		HDC p_hDC, UINT nFlags, POINT &point, const DWORD p_dwMouseActionID)									{	return FALSE;	}

  00000	33 c0		 xor	 eax, eax
  00002	c2 10 00	 ret	 16			; 00000010H
?OnRButtonUp@CChartAddInBase000000@@MAEHPAUHDC__@@IAAUtagPOINT@@K@Z ENDP ; CChartAddInBase000000::OnRButtonUp
_TEXT	ENDS
; Function compile flags: /Ogtp
; File D:\git\src\IBK\IBK_DRFN\ProjSrc\SrcChartEx\ChartOCX\AddInManager\Include_AddIn\I000000\_ChartAddInBase.h
;	COMDAT ?OnRButtonDown@CChartAddInBase000000@@MAEHPAUHDC__@@IAAUtagPOINT@@K@Z
_TEXT	SEGMENT
_p_hDC$ = 8						; size = 4
_nFlags$ = 12						; size = 4
_point$ = 16						; size = 4
_p_dwMouseActionID$ = 20				; size = 4
?OnRButtonDown@CChartAddInBase000000@@MAEHPAUHDC__@@IAAUtagPOINT@@K@Z PROC ; CChartAddInBase000000::OnRButtonDown, COMDAT
; _this$ = ecx

; 219  : 	virtual BOOL	OnRButtonDown(		HDC p_hDC, UINT nFlags, POINT &point, const DWORD p_dwMouseActionID)									{	return FALSE;	}

  00000	33 c0		 xor	 eax, eax
  00002	c2 10 00	 ret	 16			; 00000010H
?OnRButtonDown@CChartAddInBase000000@@MAEHPAUHDC__@@IAAUtagPOINT@@K@Z ENDP ; CChartAddInBase000000::OnRButtonDown
_TEXT	ENDS
; Function compile flags: /Ogtp
; File D:\git\src\IBK\IBK_DRFN\ProjSrc\SrcChartEx\ChartOCX\AddInManager\Include_AddIn\I000000\_ChartAddInBase.h
;	COMDAT ?OnLButtonDblClk@CChartAddInBase000000@@MAEHPAUHDC__@@IAAUtagPOINT@@K@Z
_TEXT	SEGMENT
_p_hDC$ = 8						; size = 4
_nFlags$ = 12						; size = 4
_point$ = 16						; size = 4
_p_dwMouseActionID$ = 20				; size = 4
?OnLButtonDblClk@CChartAddInBase000000@@MAEHPAUHDC__@@IAAUtagPOINT@@K@Z PROC ; CChartAddInBase000000::OnLButtonDblClk, COMDAT
; _this$ = ecx

; 218  : 	virtual BOOL	OnLButtonDblClk(	HDC p_hDC, UINT nFlags, POINT &point, const DWORD p_dwMouseActionID)									{	return FALSE;	}

  00000	33 c0		 xor	 eax, eax
  00002	c2 10 00	 ret	 16			; 00000010H
?OnLButtonDblClk@CChartAddInBase000000@@MAEHPAUHDC__@@IAAUtagPOINT@@K@Z ENDP ; CChartAddInBase000000::OnLButtonDblClk
_TEXT	ENDS
; Function compile flags: /Ogtp
; File D:\git\src\IBK\IBK_DRFN\ProjSrc\SrcChartEx\ChartOCX\AddInManager\Include_AddIn\I000000\_ChartAddInBase.h
;	COMDAT ?OnLButtonUp@CChartAddInBase000000@@MAEHPAUHDC__@@IAAUtagPOINT@@K@Z
_TEXT	SEGMENT
_p_hDC$ = 8						; size = 4
_nFlags$ = 12						; size = 4
_point$ = 16						; size = 4
_p_dwMouseActionID$ = 20				; size = 4
?OnLButtonUp@CChartAddInBase000000@@MAEHPAUHDC__@@IAAUtagPOINT@@K@Z PROC ; CChartAddInBase000000::OnLButtonUp, COMDAT
; _this$ = ecx

; 217  : 	virtual BOOL	OnLButtonUp(		HDC p_hDC, UINT nFlags, POINT &point, const DWORD p_dwMouseActionID)									{	return FALSE;	}

  00000	33 c0		 xor	 eax, eax
  00002	c2 10 00	 ret	 16			; 00000010H
?OnLButtonUp@CChartAddInBase000000@@MAEHPAUHDC__@@IAAUtagPOINT@@K@Z ENDP ; CChartAddInBase000000::OnLButtonUp
_TEXT	ENDS
; Function compile flags: /Ogtp
; File D:\git\src\IBK\IBK_DRFN\ProjSrc\SrcChartEx\ChartOCX\AddInManager\Include_AddIn\I000000\_ChartAddInBase.h
;	COMDAT ?OnLButtonDown@CChartAddInBase000000@@MAEHPAUHDC__@@IAAUtagPOINT@@K@Z
_TEXT	SEGMENT
_p_hDC$ = 8						; size = 4
_nFlags$ = 12						; size = 4
_point$ = 16						; size = 4
_p_dwMouseActionID$ = 20				; size = 4
?OnLButtonDown@CChartAddInBase000000@@MAEHPAUHDC__@@IAAUtagPOINT@@K@Z PROC ; CChartAddInBase000000::OnLButtonDown, COMDAT
; _this$ = ecx

; 216  : 	virtual BOOL	OnLButtonDown(		HDC p_hDC, UINT nFlags, POINT &point, const DWORD p_dwMouseActionID)									{	return FALSE;	}

  00000	33 c0		 xor	 eax, eax
  00002	c2 10 00	 ret	 16			; 00000010H
?OnLButtonDown@CChartAddInBase000000@@MAEHPAUHDC__@@IAAUtagPOINT@@K@Z ENDP ; CChartAddInBase000000::OnLButtonDown
_TEXT	ENDS
; Function compile flags: /Ogtp
; File D:\git\src\IBK\IBK_DRFN\ProjSrc\SrcChartEx\ChartOCX\AddInManager\Include_AddIn\I000000\_ChartAddInBase.h
;	COMDAT ?OnMouseMove@CChartAddInBase000000@@MAEHPAUHDC__@@IAAUtagPOINT@@KQAUHBITMAP__@@@Z
_TEXT	SEGMENT
_p_hDC$ = 8						; size = 4
_nFlags$ = 12						; size = 4
_point$ = 16						; size = 4
_p_dwMouseActionID$ = 20				; size = 4
_p_hbmpMainOSB$ = 24					; size = 4
?OnMouseMove@CChartAddInBase000000@@MAEHPAUHDC__@@IAAUtagPOINT@@KQAUHBITMAP__@@@Z PROC ; CChartAddInBase000000::OnMouseMove, COMDAT
; _this$ = ecx

; 215  : 	virtual BOOL	OnMouseMove(		HDC p_hDC, UINT nFlags, POINT &point, const DWORD p_dwMouseActionID, const HBITMAP p_hbmpMainOSB)		{	return FALSE;	}	// (2006/11/5 - Seung-Won, Bae) Support MainOSB

  00000	33 c0		 xor	 eax, eax
  00002	c2 14 00	 ret	 20			; 00000014H
?OnMouseMove@CChartAddInBase000000@@MAEHPAUHDC__@@IAAUtagPOINT@@KQAUHBITMAP__@@@Z ENDP ; CChartAddInBase000000::OnMouseMove
_TEXT	ENDS
; Function compile flags: /Ogtp
; File D:\git\src\IBK\IBK_DRFN\ProjSrc\SrcChartEx\ChartOCX\AddInManager\Include_AddIn\I000000\_ChartAddInBase.h
;	COMDAT ?OnMouseWheel@CChartAddInBase000000@@MAEHIFUtagPOINT@@K@Z
_TEXT	SEGMENT
_nFlags$ = 8						; size = 4
_zDelta$ = 12						; size = 2
_pt$ = 16						; size = 8
_p_dwMouseActionID$ = 24				; size = 4
?OnMouseWheel@CChartAddInBase000000@@MAEHIFUtagPOINT@@K@Z PROC ; CChartAddInBase000000::OnMouseWheel, COMDAT
; _this$ = ecx

; 214  : 	virtual BOOL	OnMouseWheel(		UINT nFlags, short zDelta, POINT pt, const DWORD p_dwMouseActionID)										{	return FALSE;	}

  00000	33 c0		 xor	 eax, eax
  00002	c2 14 00	 ret	 20			; 00000014H
?OnMouseWheel@CChartAddInBase000000@@MAEHIFUtagPOINT@@K@Z ENDP ; CChartAddInBase000000::OnMouseWheel
_TEXT	ENDS
; Function compile flags: /Ogtp
; File D:\git\src\IBK\IBK_DRFN\ProjSrc\SrcChartEx\ChartOCX\AddInManager\Include_AddIn\I000000\_ChartAddInBase.h
;	COMDAT ?OnKeyUp@CChartAddInBase000000@@MAEHIII@Z
_TEXT	SEGMENT
_nChar$ = 8						; size = 4
_nRepCnt$ = 12						; size = 4
_nFlags$ = 16						; size = 4
?OnKeyUp@CChartAddInBase000000@@MAEHIII@Z PROC		; CChartAddInBase000000::OnKeyUp, COMDAT
; _this$ = ecx

; 213  : 	virtual BOOL	OnKeyUp(			UINT nChar, UINT nRepCnt, UINT nFlags)																	{	return FALSE;	}

  00000	33 c0		 xor	 eax, eax
  00002	c2 0c 00	 ret	 12			; 0000000cH
?OnKeyUp@CChartAddInBase000000@@MAEHIII@Z ENDP		; CChartAddInBase000000::OnKeyUp
_TEXT	ENDS
; Function compile flags: /Ogtp
; File D:\git\src\IBK\IBK_DRFN\ProjSrc\SrcChartEx\ChartOCX\AddInManager\Include_AddIn\I000000\_ChartAddInBase.h
;	COMDAT ?OnKeyDown@CChartAddInBase000000@@MAEHIII@Z
_TEXT	SEGMENT
_nChar$ = 8						; size = 4
_nRepCnt$ = 12						; size = 4
_nFlags$ = 16						; size = 4
?OnKeyDown@CChartAddInBase000000@@MAEHIII@Z PROC	; CChartAddInBase000000::OnKeyDown, COMDAT
; _this$ = ecx

; 212  : 	virtual BOOL	OnKeyDown(			UINT nChar, UINT nRepCnt, UINT nFlags)																	{	return FALSE;	}

  00000	33 c0		 xor	 eax, eax
  00002	c2 0c 00	 ret	 12			; 0000000cH
?OnKeyDown@CChartAddInBase000000@@MAEHIII@Z ENDP	; CChartAddInBase000000::OnKeyDown
_TEXT	ENDS
; Function compile flags: /Ogtp
; File D:\git\src\IBK\IBK_DRFN\ProjSrc\SrcChartEx\ChartOCX\AddInManager\Include_AddIn\I000000\_ChartAddInBase.h
;	COMDAT ?OnAddInToolCommand@CChartAddInBase000000@@MAEHAAJW4EAICommandType@@JJ@Z
_TEXT	SEGMENT
_p_lResult$ = 8						; size = 4
_p_eCommandID$ = 12					; size = 4
_p_lParam1$ = 16					; size = 4
_p_lParam2$ = 20					; size = 4
?OnAddInToolCommand@CChartAddInBase000000@@MAEHAAJW4EAICommandType@@JJ@Z PROC ; CChartAddInBase000000::OnAddInToolCommand, COMDAT
; _this$ = ecx

; 210  : 	virtual BOOL	OnAddInToolCommand(	long &p_lResult, const EAICommandType p_eCommandID, const long p_lParam1, const long p_lParam2)			{	return FALSE;	}

  00000	33 c0		 xor	 eax, eax
  00002	c2 10 00	 ret	 16			; 00000010H
?OnAddInToolCommand@CChartAddInBase000000@@MAEHAAJW4EAICommandType@@JJ@Z ENDP ; CChartAddInBase000000::OnAddInToolCommand
_TEXT	ENDS
; Function compile flags: /Ogtp
; File D:\git\src\IBK\IBK_DRFN\ProjSrc\SrcChartEx\ChartOCX\AddInManager\Include_AddIn\I000000\_ChartAddInBase.h
;	COMDAT ?OnAddInToolCommand@CChartAddInBase000000@@MAEHAAJW4EAICommandType@@J@Z
_TEXT	SEGMENT
_p_lResult$ = 8						; size = 4
_p_eCommandID$ = 12					; size = 4
_p_lParam$ = 16						; size = 4
?OnAddInToolCommand@CChartAddInBase000000@@MAEHAAJW4EAICommandType@@J@Z PROC ; CChartAddInBase000000::OnAddInToolCommand, COMDAT
; _this$ = ecx

; 209  : 	virtual BOOL	OnAddInToolCommand(	long &p_lResult, const EAICommandType p_eCommandID, const long p_lParam)								{	return FALSE;	}

  00000	33 c0		 xor	 eax, eax
  00002	c2 0c 00	 ret	 12			; 0000000cH
?OnAddInToolCommand@CChartAddInBase000000@@MAEHAAJW4EAICommandType@@J@Z ENDP ; CChartAddInBase000000::OnAddInToolCommand
_TEXT	ENDS
; Function compile flags: /Ogtp
; File D:\git\src\IBK\IBK_DRFN\ProjSrc\SrcChartEx\ChartOCX\AddInManager\Include_AddIn\I000000\_ChartAddInBase.h
;	COMDAT ?OnAddInToolCommand@CChartAddInBase000000@@MAEHAAJW4EAICommandType@@PBDPAVCObject@@@Z
_TEXT	SEGMENT
_p_lResult$ = 8						; size = 4
_p_eCommandID$ = 12					; size = 4
_p_szParam$ = 16					; size = 4
_p_pParam$ = 20						; size = 4
?OnAddInToolCommand@CChartAddInBase000000@@MAEHAAJW4EAICommandType@@PBDPAVCObject@@@Z PROC ; CChartAddInBase000000::OnAddInToolCommand, COMDAT
; _this$ = ecx

; 208  : 	virtual BOOL	OnAddInToolCommand(	long &p_lResult, const EAICommandType p_eCommandID, const char *p_szParam, CObject *p_pParam)			{	return FALSE;	}

  00000	33 c0		 xor	 eax, eax
  00002	c2 10 00	 ret	 16			; 00000010H
?OnAddInToolCommand@CChartAddInBase000000@@MAEHAAJW4EAICommandType@@PBDPAVCObject@@@Z ENDP ; CChartAddInBase000000::OnAddInToolCommand
_TEXT	ENDS
; Function compile flags: /Ogtp
; File D:\git\src\IBK\IBK_DRFN\ProjSrc\SrcChartEx\ChartOCX\AddInManager\Include_AddIn\I000000\_ChartAddInBase.h
;	COMDAT ?OnAddInToolCommand@CChartAddInBase000000@@MAEHAAJW4EAICommandType@@PBD@Z
_TEXT	SEGMENT
_p_lResult$ = 8						; size = 4
_p_eCommandID$ = 12					; size = 4
_p_szParam$ = 16					; size = 4
?OnAddInToolCommand@CChartAddInBase000000@@MAEHAAJW4EAICommandType@@PBD@Z PROC ; CChartAddInBase000000::OnAddInToolCommand, COMDAT
; _this$ = ecx

; 207  : 	virtual BOOL	OnAddInToolCommand(	long &p_lResult, const EAICommandType p_eCommandID, const char *p_szParam)								{	return FALSE;	}

  00000	33 c0		 xor	 eax, eax
  00002	c2 0c 00	 ret	 12			; 0000000cH
?OnAddInToolCommand@CChartAddInBase000000@@MAEHAAJW4EAICommandType@@PBD@Z ENDP ; CChartAddInBase000000::OnAddInToolCommand
_TEXT	ENDS
; Function compile flags: /Ogtp
; File D:\git\src\IBK\IBK_DRFN\ProjSrc\SrcChartEx\ChartOCX\AddInManager\Include_AddIn\I000000\_ChartAddInBase.h
;	COMDAT ?OnAddInToolCommand@CChartAddInBase000000@@MAEHAAJW4EAICommandType@@PAUIGraphInfo000000@@@Z
_TEXT	SEGMENT
_p_lResult$ = 8						; size = 4
_p_eCommandID$ = 12					; size = 4
_p_pIGraphInfo$ = 16					; size = 4
?OnAddInToolCommand@CChartAddInBase000000@@MAEHAAJW4EAICommandType@@PAUIGraphInfo000000@@@Z PROC ; CChartAddInBase000000::OnAddInToolCommand, COMDAT
; _this$ = ecx

; 206  : 	virtual BOOL	OnAddInToolCommand(	long &p_lResult, const EAICommandType p_eCommandID, IGraphInfo *p_pIGraphInfo)							{	return FALSE;	}

  00000	33 c0		 xor	 eax, eax
  00002	c2 0c 00	 ret	 12			; 0000000cH
?OnAddInToolCommand@CChartAddInBase000000@@MAEHAAJW4EAICommandType@@PAUIGraphInfo000000@@@Z ENDP ; CChartAddInBase000000::OnAddInToolCommand
_TEXT	ENDS
; Function compile flags: /Ogtp
; File D:\git\src\IBK\IBK_DRFN\ProjSrc\SrcChartEx\ChartOCX\AddInManager\Include_AddIn\I000000\_ChartAddInBase.h
;	COMDAT ?OnAddInToolCommand@CChartAddInBase000000@@MAEHAAJW4EAICommandType@@@Z
_TEXT	SEGMENT
_p_lResult$ = 8						; size = 4
_p_eCommandID$ = 12					; size = 4
?OnAddInToolCommand@CChartAddInBase000000@@MAEHAAJW4EAICommandType@@@Z PROC ; CChartAddInBase000000::OnAddInToolCommand, COMDAT
; _this$ = ecx

; 205  : 	virtual BOOL	OnAddInToolCommand(	long &p_lResult, const EAICommandType p_eCommandID)														{	return FALSE;	}

  00000	33 c0		 xor	 eax, eax
  00002	c2 08 00	 ret	 8
?OnAddInToolCommand@CChartAddInBase000000@@MAEHAAJW4EAICommandType@@@Z ENDP ; CChartAddInBase000000::OnAddInToolCommand
_TEXT	ENDS
; Function compile flags: /Ogtp
; File D:\git\src\IBK\IBK_DRFN\ProjSrc\SrcChartEx\ChartOCX\AddInManager\Include_AddIn\I000000\_ChartAddInBase.h
;	COMDAT ?OnAddInToolCommand@CChartAddInBase000000@@MAEHW4EAICommandType@@JJJJJJJJJ@Z
_TEXT	SEGMENT
_p_eCommandID$ = 8					; size = 4
_p_lParam1$ = 12					; size = 4
_p_lParam2$ = 16					; size = 4
_p_lParam3$ = 20					; size = 4
_p_lParam4$ = 24					; size = 4
_p_lParam5$ = 28					; size = 4
_p_lParam6$ = 32					; size = 4
_p_lParam7$ = 36					; size = 4
_p_lParam8$ = 40					; size = 4
_p_lParam9$ = 44					; size = 4
?OnAddInToolCommand@CChartAddInBase000000@@MAEHW4EAICommandType@@JJJJJJJJJ@Z PROC ; CChartAddInBase000000::OnAddInToolCommand, COMDAT
; _this$ = ecx

; 204  : 	virtual BOOL	OnAddInToolCommand(	const EAICommandType p_eCommandID, const long p_lParam1, const long p_lParam2, const long p_lParam3, const long p_lParam4, const long p_lParam5, const long p_lParam6, const long p_lParam7, const long p_lParam8, const long p_lParam9)	{	return FALSE;	}

  00000	33 c0		 xor	 eax, eax
  00002	c2 28 00	 ret	 40			; 00000028H
?OnAddInToolCommand@CChartAddInBase000000@@MAEHW4EAICommandType@@JJJJJJJJJ@Z ENDP ; CChartAddInBase000000::OnAddInToolCommand
_TEXT	ENDS
; Function compile flags: /Ogtp
; File D:\git\src\IBK\IBK_DRFN\ProjSrc\SrcChartEx\ChartOCX\AddInManager\Include_AddIn\I000000\_ChartAddInBase.h
;	COMDAT ?OnAddInToolCommand@CChartAddInBase000000@@MAEHW4EAICommandType@@JJ@Z
_TEXT	SEGMENT
_p_eCommandID$ = 8					; size = 4
_p_lParam1$ = 12					; size = 4
_p_lParam2$ = 16					; size = 4
?OnAddInToolCommand@CChartAddInBase000000@@MAEHW4EAICommandType@@JJ@Z PROC ; CChartAddInBase000000::OnAddInToolCommand, COMDAT
; _this$ = ecx

; 203  : 	virtual BOOL	OnAddInToolCommand(	const EAICommandType p_eCommandID, const long p_lParam1, const long p_lParam2)							{	return FALSE;	}

  00000	33 c0		 xor	 eax, eax
  00002	c2 0c 00	 ret	 12			; 0000000cH
?OnAddInToolCommand@CChartAddInBase000000@@MAEHW4EAICommandType@@JJ@Z ENDP ; CChartAddInBase000000::OnAddInToolCommand
_TEXT	ENDS
; Function compile flags: /Ogtp
; File D:\git\src\IBK\IBK_DRFN\ProjSrc\SrcChartEx\ChartOCX\AddInManager\Include_AddIn\I000000\_ChartAddInBase.h
;	COMDAT ?OnAddInToolCommand@CChartAddInBase000000@@MAEHW4EAICommandType@@JPBD11@Z
_TEXT	SEGMENT
_p_eCommandID$ = 8					; size = 4
_p_lParam$ = 12						; size = 4
_p_szParam1$ = 16					; size = 4
_p_szParam2$ = 20					; size = 4
_p_szParam3$ = 24					; size = 4
?OnAddInToolCommand@CChartAddInBase000000@@MAEHW4EAICommandType@@JPBD11@Z PROC ; CChartAddInBase000000::OnAddInToolCommand, COMDAT
; _this$ = ecx

; 202  : 	virtual BOOL	OnAddInToolCommand( const EAICommandType p_eCommandID, const long p_lParam, const char *p_szParam1, const char *p_szParam2, const char *p_szParam3)	{	return FALSE;	}

  00000	33 c0		 xor	 eax, eax
  00002	c2 14 00	 ret	 20			; 00000014H
?OnAddInToolCommand@CChartAddInBase000000@@MAEHW4EAICommandType@@JPBD11@Z ENDP ; CChartAddInBase000000::OnAddInToolCommand
_TEXT	ENDS
; Function compile flags: /Ogtp
; File D:\git\src\IBK\IBK_DRFN\ProjSrc\SrcChartEx\ChartOCX\AddInManager\Include_AddIn\I000000\_ChartAddInBase.h
;	COMDAT ?OnAddInToolCommand@CChartAddInBase000000@@MAEHW4EAICommandType@@JPBD@Z
_TEXT	SEGMENT
_p_eCommandID$ = 8					; size = 4
_p_lParam$ = 12						; size = 4
_p_szParam$ = 16					; size = 4
?OnAddInToolCommand@CChartAddInBase000000@@MAEHW4EAICommandType@@JPBD@Z PROC ; CChartAddInBase000000::OnAddInToolCommand, COMDAT
; _this$ = ecx

; 201  : 	virtual BOOL	OnAddInToolCommand( const EAICommandType p_eCommandID, const long p_lParam, const char *p_szParam)							{	return FALSE;	}

  00000	33 c0		 xor	 eax, eax
  00002	c2 0c 00	 ret	 12			; 0000000cH
?OnAddInToolCommand@CChartAddInBase000000@@MAEHW4EAICommandType@@JPBD@Z ENDP ; CChartAddInBase000000::OnAddInToolCommand
_TEXT	ENDS
; Function compile flags: /Ogtp
; File D:\git\src\IBK\IBK_DRFN\ProjSrc\SrcChartEx\ChartOCX\AddInManager\Include_AddIn\I000000\_ChartAddInBase.h
;	COMDAT ?OnAddInToolCommand@CChartAddInBase000000@@MAEHW4EAICommandType@@J@Z
_TEXT	SEGMENT
_p_eCommandID$ = 8					; size = 4
_p_lParam$ = 12						; size = 4
?OnAddInToolCommand@CChartAddInBase000000@@MAEHW4EAICommandType@@J@Z PROC ; CChartAddInBase000000::OnAddInToolCommand, COMDAT
; _this$ = ecx

; 200  : 	virtual BOOL	OnAddInToolCommand(	const EAICommandType p_eCommandID, const long p_lParam)													{	return FALSE;	}

  00000	33 c0		 xor	 eax, eax
  00002	c2 08 00	 ret	 8
?OnAddInToolCommand@CChartAddInBase000000@@MAEHW4EAICommandType@@J@Z ENDP ; CChartAddInBase000000::OnAddInToolCommand
_TEXT	ENDS
; Function compile flags: /Ogtp
; File D:\git\src\IBK\IBK_DRFN\ProjSrc\SrcChartEx\ChartOCX\AddInManager\Include_AddIn\I000000\_ChartAddInBase.h
;	COMDAT ?OnAddInToolCommand@CChartAddInBase000000@@MAEHW4EAICommandType@@PBUIAddInDllBase@@@Z
_TEXT	SEGMENT
_p_eCommandID$ = 8					; size = 4
_p_pParam$ = 12						; size = 4
?OnAddInToolCommand@CChartAddInBase000000@@MAEHW4EAICommandType@@PBUIAddInDllBase@@@Z PROC ; CChartAddInBase000000::OnAddInToolCommand, COMDAT
; _this$ = ecx

; 199  : 	virtual BOOL	OnAddInToolCommand(	const EAICommandType p_eCommandID, const IAddInDllBase *p_pParam)										{	return FALSE;	}

  00000	33 c0		 xor	 eax, eax
  00002	c2 08 00	 ret	 8
?OnAddInToolCommand@CChartAddInBase000000@@MAEHW4EAICommandType@@PBUIAddInDllBase@@@Z ENDP ; CChartAddInBase000000::OnAddInToolCommand
_TEXT	ENDS
; Function compile flags: /Ogtp
; File D:\git\src\IBK\IBK_DRFN\ProjSrc\SrcChartEx\ChartOCX\AddInManager\Include_AddIn\I000000\_ChartAddInBase.h
;	COMDAT ?OnAddInToolCommand@CChartAddInBase000000@@MAEHW4EAICommandType@@PBDJ@Z
_TEXT	SEGMENT
_p_eCommandID$ = 8					; size = 4
_p_szParam$ = 12					; size = 4
_p_lParam$ = 16						; size = 4
?OnAddInToolCommand@CChartAddInBase000000@@MAEHW4EAICommandType@@PBDJ@Z PROC ; CChartAddInBase000000::OnAddInToolCommand, COMDAT
; _this$ = ecx

; 198  : 	virtual BOOL	OnAddInToolCommand( const EAICommandType p_eCommandID, const char *p_szParam, const long p_lParam)							{	return FALSE;	}

  00000	33 c0		 xor	 eax, eax
  00002	c2 0c 00	 ret	 12			; 0000000cH
?OnAddInToolCommand@CChartAddInBase000000@@MAEHW4EAICommandType@@PBDJ@Z ENDP ; CChartAddInBase000000::OnAddInToolCommand
_TEXT	ENDS
; Function compile flags: /Ogtp
; File D:\git\src\IBK\IBK_DRFN\ProjSrc\SrcChartEx\ChartOCX\AddInManager\Include_AddIn\I000000\_ChartAddInBase.h
;	COMDAT ?OnAddInToolCommand@CChartAddInBase000000@@MAEHW4EAICommandType@@PBD1@Z
_TEXT	SEGMENT
_p_eCommandID$ = 8					; size = 4
_p_szParam1$ = 12					; size = 4
_p_szParam2$ = 16					; size = 4
?OnAddInToolCommand@CChartAddInBase000000@@MAEHW4EAICommandType@@PBD1@Z PROC ; CChartAddInBase000000::OnAddInToolCommand, COMDAT
; _this$ = ecx

; 197  : 	virtual BOOL	OnAddInToolCommand(	const EAICommandType p_eCommandID, const char *p_szParam1, const char *p_szParam2)						{	return FALSE;	}

  00000	33 c0		 xor	 eax, eax
  00002	c2 0c 00	 ret	 12			; 0000000cH
?OnAddInToolCommand@CChartAddInBase000000@@MAEHW4EAICommandType@@PBD1@Z ENDP ; CChartAddInBase000000::OnAddInToolCommand
_TEXT	ENDS
; Function compile flags: /Ogtp
; File D:\git\src\IBK\IBK_DRFN\ProjSrc\SrcChartEx\ChartOCX\AddInManager\Include_AddIn\I000000\_ChartAddInBase.h
;	COMDAT ?OnAddInToolCommand@CChartAddInBase000000@@MAEHW4EAICommandType@@PBD@Z
_TEXT	SEGMENT
_p_eCommandID$ = 8					; size = 4
_p_szParam$ = 12					; size = 4
?OnAddInToolCommand@CChartAddInBase000000@@MAEHW4EAICommandType@@PBD@Z PROC ; CChartAddInBase000000::OnAddInToolCommand, COMDAT
; _this$ = ecx

; 196  : 	virtual BOOL	OnAddInToolCommand(	const EAICommandType p_eCommandID, const char *p_szParam)												{	return FALSE;	}

  00000	33 c0		 xor	 eax, eax
  00002	c2 08 00	 ret	 8
?OnAddInToolCommand@CChartAddInBase000000@@MAEHW4EAICommandType@@PBD@Z ENDP ; CChartAddInBase000000::OnAddInToolCommand
_TEXT	ENDS
; Function compile flags: /Ogtp
; File D:\git\src\IBK\IBK_DRFN\ProjSrc\SrcChartEx\ChartOCX\AddInManager\Include_AddIn\I000000\_ChartAddInBase.h
;	COMDAT ?OnAddInToolCommand@CChartAddInBase000000@@MAEHW4EAICommandType@@PAUHDC__@@IAAUtagPOINT@@K@Z
_TEXT	SEGMENT
_p_eCommandID$ = 8					; size = 4
_p_hDC$ = 12						; size = 4
_nFlags$ = 16						; size = 4
_point$ = 20						; size = 4
_p_dwMouseActionID$ = 24				; size = 4
?OnAddInToolCommand@CChartAddInBase000000@@MAEHW4EAICommandType@@PAUHDC__@@IAAUtagPOINT@@K@Z PROC ; CChartAddInBase000000::OnAddInToolCommand, COMDAT
; _this$ = ecx

; 195  : 	virtual BOOL	OnAddInToolCommand(	const EAICommandType p_eCommandID, HDC p_hDC, UINT nFlags, POINT &point, const DWORD p_dwMouseActionID)	{	return FALSE;	}

  00000	33 c0		 xor	 eax, eax
  00002	c2 14 00	 ret	 20			; 00000014H
?OnAddInToolCommand@CChartAddInBase000000@@MAEHW4EAICommandType@@PAUHDC__@@IAAUtagPOINT@@K@Z ENDP ; CChartAddInBase000000::OnAddInToolCommand
_TEXT	ENDS
; Function compile flags: /Ogtp
; File D:\git\src\IBK\IBK_DRFN\ProjSrc\SrcChartEx\ChartOCX\AddInManager\Include_AddIn\I000000\_ChartAddInBase.h
;	COMDAT ?OnAddInToolCommand@CChartAddInBase000000@@MAEHW4EAICommandType@@@Z
_TEXT	SEGMENT
_p_eCommandID$ = 8					; size = 4
?OnAddInToolCommand@CChartAddInBase000000@@MAEHW4EAICommandType@@@Z PROC ; CChartAddInBase000000::OnAddInToolCommand, COMDAT
; _this$ = ecx

; 194  : 	virtual BOOL	OnAddInToolCommand(	const EAICommandType p_eCommandID)																		{	return FALSE;	}

  00000	33 c0		 xor	 eax, eax
  00002	c2 04 00	 ret	 4
?OnAddInToolCommand@CChartAddInBase000000@@MAEHW4EAICommandType@@@Z ENDP ; CChartAddInBase000000::OnAddInToolCommand
_TEXT	ENDS
; Function compile flags: /Ogtp
; File D:\git\src\IBK\IBK_DRFN\ProjSrc\SrcChartEx\ChartOCX\AddInManager\Include_AddIn\I000000\_ChartAddInBase.h
;	COMDAT ?OnAddInMsg@CChartAddInBase000000@@MAEHPBDJ@Z
_TEXT	SEGMENT
_p_szAddInItemName$ = 8					; size = 4
_p_lParam$ = 12						; size = 4
?OnAddInMsg@CChartAddInBase000000@@MAEHPBDJ@Z PROC	; CChartAddInBase000000::OnAddInMsg, COMDAT
; _this$ = ecx

; 193  : 	virtual BOOL	OnAddInMsg(			const char *p_szAddInItemName, const long p_lParam)														{	return FALSE;	}

  00000	33 c0		 xor	 eax, eax
  00002	c2 08 00	 ret	 8
?OnAddInMsg@CChartAddInBase000000@@MAEHPBDJ@Z ENDP	; CChartAddInBase000000::OnAddInMsg
_TEXT	ENDS
; Function compile flags: /Ogtp
; File D:\git\src\IBK\IBK_DRFN\ProjSrc\SrcChartEx\ChartOCX\AddInManager\Include_AddIn\I000000\_ChartAddInBase.h
;	COMDAT ?OnCmdMsg@CChartAddInBase000000@@MAEHIHPAUICmdUI000000@@@Z
_TEXT	SEGMENT
_nID$ = 8						; size = 4
_nCode$ = 12						; size = 4
_p_pICmdUI$ = 16					; size = 4
?OnCmdMsg@CChartAddInBase000000@@MAEHIHPAUICmdUI000000@@@Z PROC ; CChartAddInBase000000::OnCmdMsg, COMDAT
; _this$ = ecx

; 192  : 	virtual BOOL	OnCmdMsg(			UINT nID, int nCode, ICmdUI *p_pICmdUI)																	{	return FALSE;	}

  00000	33 c0		 xor	 eax, eax
  00002	c2 0c 00	 ret	 12			; 0000000cH
?OnCmdMsg@CChartAddInBase000000@@MAEHIHPAUICmdUI000000@@@Z ENDP ; CChartAddInBase000000::OnCmdMsg
_TEXT	ENDS
; Function compile flags: /Ogtp
; File D:\git\src\IBK\IBK_DRFN\ProjSrc\SrcChartEx\ChartOCX\AddInManager\Include_AddIn\I000000\_ChartAddInBase.h
;	COMDAT ?OnPreNMTRClock@CChartAddInBase000000@@MAEHAA_J@Z
_TEXT	SEGMENT
_p_nRealClockSecs$ = 8					; size = 4
?OnPreNMTRClock@CChartAddInBase000000@@MAEHAA_J@Z PROC	; CChartAddInBase000000::OnPreNMTRClock, COMDAT
; _this$ = ecx

; 186  : 	virtual BOOL	OnPreNMTRClock( __int64 &p_nRealClockSecs)																		{	return TRUE;	}

  00000	b8 01 00 00 00	 mov	 eax, 1
  00005	c2 04 00	 ret	 4
?OnPreNMTRClock@CChartAddInBase000000@@MAEHAA_J@Z ENDP	; CChartAddInBase000000::OnPreNMTRClock
_TEXT	ENDS
; Function compile flags: /Ogtp
; File D:\git\src\IBK\IBK_DRFN\ProjSrc\SrcChartEx\ChartOCX\AddInManager\Include_AddIn\I000000\_ChartAddInBase.h
;	COMDAT ?OnPreRealPacketEnd@CChartAddInBase000000@@MAEHPBDH@Z
_TEXT	SEGMENT
_p_szRQ$ = 8						; size = 4
_p_bRealData$ = 12					; size = 4
?OnPreRealPacketEnd@CChartAddInBase000000@@MAEHPBDH@Z PROC ; CChartAddInBase000000::OnPreRealPacketEnd, COMDAT
; _this$ = ecx

; 185  : 	virtual BOOL	OnPreRealPacketEnd( const char *p_szRQ = NULL, BOOL p_bRealData = TRUE)											{	return TRUE;	}

  00000	b8 01 00 00 00	 mov	 eax, 1
  00005	c2 08 00	 ret	 8
?OnPreRealPacketEnd@CChartAddInBase000000@@MAEHPBDH@Z ENDP ; CChartAddInBase000000::OnPreRealPacketEnd
_TEXT	ENDS
; Function compile flags: /Ogtp
; File D:\git\src\IBK\IBK_DRFN\ProjSrc\SrcChartEx\ChartOCX\AddInManager\Include_AddIn\I000000\_ChartAddInBase.h
;	COMDAT ?OnPreIndexedRealData@CChartAddInBase000000@@MAEHPBDHAANH@Z
_TEXT	SEGMENT
_p_szPacketName$ = 8					; size = 4
_p_nIndex$ = 12						; size = 4
_p_dData$ = 16						; size = 4
_p_bRealData$ = 20					; size = 4
?OnPreIndexedRealData@CChartAddInBase000000@@MAEHPBDHAANH@Z PROC ; CChartAddInBase000000::OnPreIndexedRealData, COMDAT
; _this$ = ecx

; 184  : 	virtual BOOL	OnPreIndexedRealData( const char *p_szPacketName, const int p_nIndex, double &p_dData, BOOL p_bRealData = TRUE)	{	return TRUE;	}

  00000	b8 01 00 00 00	 mov	 eax, 1
  00005	c2 10 00	 ret	 16			; 00000010H
?OnPreIndexedRealData@CChartAddInBase000000@@MAEHPBDHAANH@Z ENDP ; CChartAddInBase000000::OnPreIndexedRealData
_TEXT	ENDS
; Function compile flags: /Ogtp
; File D:\git\src\IBK\IBK_DRFN\ProjSrc\SrcChartEx\ChartOCX\AddInManager\Include_AddIn\I000000\_ChartAddInBase.h
;	COMDAT ?OnPreRealData@CChartAddInBase000000@@MAEHPBDAAN0H@Z
_TEXT	SEGMENT
_p_szPacketName$ = 8					; size = 4
_p_dData$ = 12						; size = 4
_p_szRQ$ = 16						; size = 4
_p_bRealData$ = 20					; size = 4
?OnPreRealData@CChartAddInBase000000@@MAEHPBDAAN0H@Z PROC ; CChartAddInBase000000::OnPreRealData, COMDAT
; _this$ = ecx

; 183  : 	virtual BOOL	OnPreRealData( const char *p_szPacketName, double &p_dData, const char *p_szRQ = NULL, BOOL p_bRealData = TRUE)	{	return TRUE;	}

  00000	b8 01 00 00 00	 mov	 eax, 1
  00005	c2 10 00	 ret	 16			; 00000010H
?OnPreRealData@CChartAddInBase000000@@MAEHPBDAAN0H@Z ENDP ; CChartAddInBase000000::OnPreRealData
_TEXT	ENDS
; Function compile flags: /Ogtp
; File D:\git\src\IBK\IBK_DRFN\ProjSrc\SrcChartEx\ChartOCX\AddInManager\Include_AddIn\I000000\_ChartAddInBase.h
;	COMDAT ?OnRecalculationComplete@CChartAddInBase000000@@MAEXXZ
_TEXT	SEGMENT
?OnRecalculationComplete@CChartAddInBase000000@@MAEXXZ PROC ; CChartAddInBase000000::OnRecalculationComplete, COMDAT
; _this$ = ecx

; 179  : 	virtual void	OnRecalculationComplete( void)						{}

  00000	c2 00 00	 ret	 0
?OnRecalculationComplete@CChartAddInBase000000@@MAEXXZ ENDP ; CChartAddInBase000000::OnRecalculationComplete
_TEXT	ENDS
; Function compile flags: /Ogtp
; File D:\git\src\IBK\IBK_DRFN\ProjSrc\SrcChartEx\ChartOCX\AddInManager\Include_AddIn\I000000\_ChartAddInBase.h
;	COMDAT ?DrawCursor@CChartAddInBase000000@@MAE?AUtagRECT@@PAUHDC__@@@Z
_TEXT	SEGMENT
___$ReturnUdt$ = 8					; size = 4
_p_hDC$ = 12						; size = 4
?DrawCursor@CChartAddInBase000000@@MAE?AUtagRECT@@PAUHDC__@@@Z PROC ; CChartAddInBase000000::DrawCursor, COMDAT
; _this$ = ecx

; 177  : 	virtual RECT	DrawCursor( HDC p_hDC)								{	RECT rct = { 0, 0, 0, 0};	return rct;		}

  00000	55		 push	 ebp
  00001	8b ec		 mov	 ebp, esp
  00003	8b 45 08	 mov	 eax, DWORD PTR ___$ReturnUdt$[ebp]
  00006	c7 00 00 00 00
	00		 mov	 DWORD PTR [eax], 0
  0000c	c7 40 04 00 00
	00 00		 mov	 DWORD PTR [eax+4], 0
  00013	c7 40 08 00 00
	00 00		 mov	 DWORD PTR [eax+8], 0
  0001a	c7 40 0c 00 00
	00 00		 mov	 DWORD PTR [eax+12], 0
  00021	5d		 pop	 ebp
  00022	c2 08 00	 ret	 8
?DrawCursor@CChartAddInBase000000@@MAE?AUtagRECT@@PAUHDC__@@@Z ENDP ; CChartAddInBase000000::DrawCursor
_TEXT	ENDS
; Function compile flags: /Ogtp
; File D:\git\src\IBK\IBK_DRFN\ProjSrc\SrcChartEx\ChartOCX\AddInManager\Include_AddIn\I000000\_ChartAddInBase.h
;	COMDAT ?OnSaveEnvironment@CChartAddInBase000000@@MAEXPAUIPropertyMap@@@Z
_TEXT	SEGMENT
_p_pIAddInEnvMap$ = 8					; size = 4
?OnSaveEnvironment@CChartAddInBase000000@@MAEXPAUIPropertyMap@@@Z PROC ; CChartAddInBase000000::OnSaveEnvironment, COMDAT
; _this$ = ecx

; 175  : 	virtual void	OnSaveEnvironment( IPropertyMap *p_pIAddInEnvMap)	{}

  00000	c2 04 00	 ret	 4
?OnSaveEnvironment@CChartAddInBase000000@@MAEXPAUIPropertyMap@@@Z ENDP ; CChartAddInBase000000::OnSaveEnvironment
_TEXT	ENDS
; Function compile flags: /Ogtp
; File D:\git\src\IBK\IBK_DRFN\ProjSrc\SrcChartEx\ChartOCX\AddInManager\Include_AddIn\I000000\_ChartAddInBase.h
;	COMDAT ?OnLoadEnvironment@CChartAddInBase000000@@MAEXPAUIPropertyMap@@@Z
_TEXT	SEGMENT
_p_pIAddInEnvMap$ = 8					; size = 4
?OnLoadEnvironment@CChartAddInBase000000@@MAEXPAUIPropertyMap@@@Z PROC ; CChartAddInBase000000::OnLoadEnvironment, COMDAT
; _this$ = ecx

; 174  : 	virtual void	OnLoadEnvironment( IPropertyMap *p_pIAddInEnvMap)	{}

  00000	c2 04 00	 ret	 4
?OnLoadEnvironment@CChartAddInBase000000@@MAEXPAUIPropertyMap@@@Z ENDP ; CChartAddInBase000000::OnLoadEnvironment
_TEXT	ENDS
; Function compile flags: /Ogtp
; File D:\git\src\IBK\IBK_DRFN\ProjSrc\SrcChartEx\ChartOCX\AddInManager\Include_AddIn\I000000\_ChartAddInBase.h
;	COMDAT ?OnRealPacketEnd@CChartAddInBase000000@@MAEXPBD@Z
_TEXT	SEGMENT
_p_szRQ$ = 8						; size = 4
?OnRealPacketEnd@CChartAddInBase000000@@MAEXPBD@Z PROC	; CChartAddInBase000000::OnRealPacketEnd, COMDAT
; _this$ = ecx

; 172  : 	virtual void	OnRealPacketEnd( const char *p_szRQ)								{}

  00000	c2 04 00	 ret	 4
?OnRealPacketEnd@CChartAddInBase000000@@MAEXPBD@Z ENDP	; CChartAddInBase000000::OnRealPacketEnd
_TEXT	ENDS
; Function compile flags: /Ogtp
; File D:\git\src\IBK\IBK_DRFN\ProjSrc\SrcChartEx\ChartOCX\AddInManager\Include_AddIn\I000000\_ChartAddInBase.h
;	COMDAT ?OnIndexedRealData@CChartAddInBase000000@@MAEXPBDHN@Z
_TEXT	SEGMENT
_p_szPacketName$ = 8					; size = 4
_p_nIndex$ = 12						; size = 4
_p_dData$ = 16						; size = 8
?OnIndexedRealData@CChartAddInBase000000@@MAEXPBDHN@Z PROC ; CChartAddInBase000000::OnIndexedRealData, COMDAT
; _this$ = ecx

; 170  : 	virtual void	OnIndexedRealData( const char *p_szPacketName, const int p_nIndex, double p_dData)		{}

  00000	c2 10 00	 ret	 16			; 00000010H
?OnIndexedRealData@CChartAddInBase000000@@MAEXPBDHN@Z ENDP ; CChartAddInBase000000::OnIndexedRealData
_TEXT	ENDS
; Function compile flags: /Ogtp
; File D:\git\src\IBK\IBK_DRFN\ProjSrc\SrcChartEx\ChartOCX\AddInManager\Include_AddIn\I000000\_ChartAddInBase.h
;	COMDAT ?OnRealData@CChartAddInBase000000@@MAEXPBDN0@Z
_TEXT	SEGMENT
_p_szPacketName$ = 8					; size = 4
_p_dData$ = 12						; size = 8
_p_szRQ$ = 20						; size = 4
?OnRealData@CChartAddInBase000000@@MAEXPBDN0@Z PROC	; CChartAddInBase000000::OnRealData, COMDAT
; _this$ = ecx

; 169  : 	virtual void	OnRealData( const char *p_szPacketName, double p_dData, const char *p_szRQ)			{}

  00000	c2 10 00	 ret	 16			; 00000010H
?OnRealData@CChartAddInBase000000@@MAEXPBDN0@Z ENDP	; CChartAddInBase000000::OnRealData
_TEXT	ENDS
; Function compile flags: /Ogtp
; File D:\git\src\IBK\IBK_DRFN\ProjSrc\SrcChartEx\ChartOCX\AddInManager\Include_AddIn\I000000\_ChartAddInBase.h
;	COMDAT ?OnToolCommand@CChartAddInBase000000@@MAEXHH@Z
_TEXT	SEGMENT
_p_nToolType$ = 8					; size = 4
_p_nCmdOption$ = 12					; size = 4
?OnToolCommand@CChartAddInBase000000@@MAEXHH@Z PROC	; CChartAddInBase000000::OnToolCommand, COMDAT
; _this$ = ecx

; 167  : 	virtual void	OnToolCommand( const int p_nToolType, const int p_nCmdOption)	{}

  00000	c2 08 00	 ret	 8
?OnToolCommand@CChartAddInBase000000@@MAEXHH@Z ENDP	; CChartAddInBase000000::OnToolCommand
_TEXT	ENDS
; Function compile flags: /Ogtp
; File D:\git\src\IBK\IBK_DRFN\ProjSrc\SrcChartEx\ChartOCX\AddInManager\Include_AddIn\I000000\_ChartAddInBase.h
;	COMDAT ?OnBlockChanged@CChartAddInBase000000@@MAEXW4BLOCKBEHAVIOR@CBlockBaseData@@HHHH@Z
_TEXT	SEGMENT
_p_eChangeType$ = 8					; size = 4
_p_nSourceRow$ = 12					; size = 4
_p_nSourceColumn$ = 16					; size = 4
_p_nTargetRow$ = 20					; size = 4
_p_nTargetColumn$ = 24					; size = 4
?OnBlockChanged@CChartAddInBase000000@@MAEXW4BLOCKBEHAVIOR@CBlockBaseData@@HHHH@Z PROC ; CChartAddInBase000000::OnBlockChanged, COMDAT
; _this$ = ecx

; 165  : 	virtual void	OnBlockChanged( const CBlockBaseData::BLOCKBEHAVIOR p_eChangeType, const int p_nSourceRow, const int p_nSourceColumn, const int p_nTargetRow, const int p_nTargetColumn)	{}

  00000	c2 14 00	 ret	 20			; 00000014H
?OnBlockChanged@CChartAddInBase000000@@MAEXW4BLOCKBEHAVIOR@CBlockBaseData@@HHHH@Z ENDP ; CChartAddInBase000000::OnBlockChanged
_TEXT	ENDS
; Function compile flags: /Ogtp
; File D:\git\src\IBK\IBK_DRFN\ProjSrc\SrcChartEx\ChartOCX\AddInManager\Include_AddIn\I000000\_ChartAddInBase.h
;	COMDAT ?OnPacketTruncated@CChartAddInBase000000@@MAEXH@Z
_TEXT	SEGMENT
_p_nDataCount$ = 8					; size = 4
?OnPacketTruncated@CChartAddInBase000000@@MAEXH@Z PROC	; CChartAddInBase000000::OnPacketTruncated, COMDAT
; _this$ = ecx

; 163  : 	virtual void	OnPacketTruncated( const int p_nDataCount)			{}

  00000	c2 04 00	 ret	 4
?OnPacketTruncated@CChartAddInBase000000@@MAEXH@Z ENDP	; CChartAddInBase000000::OnPacketTruncated
_TEXT	ENDS
; Function compile flags: /Ogtp
; File D:\git\src\IBK\IBK_DRFN\ProjSrc\SrcChartEx\ChartOCX\AddInManager\Include_AddIn\I000000\_ChartAddInBase.h
;	COMDAT ?OnGraphDeleted@CChartAddInBase000000@@MAEXPBD0@Z
_TEXT	SEGMENT
_p_szGraphName$ = 8					; size = 4
_p_szIndicatorName$ = 12				; size = 4
?OnGraphDeleted@CChartAddInBase000000@@MAEXPBD0@Z PROC	; CChartAddInBase000000::OnGraphDeleted, COMDAT
; _this$ = ecx

; 161  : 	virtual void	OnGraphDeleted( const char *p_szGraphName, const char *p_szIndicatorName)			{}

  00000	c2 08 00	 ret	 8
?OnGraphDeleted@CChartAddInBase000000@@MAEXPBD0@Z ENDP	; CChartAddInBase000000::OnGraphDeleted
_TEXT	ENDS
; Function compile flags: /Ogtp
; File D:\git\src\IBK\IBK_DRFN\ProjSrc\SrcChartEx\ChartOCX\AddInManager\Include_AddIn\I000000\_ChartAddInBase.h
;	COMDAT ?OnContextMenu@CChartAddInBase000000@@MAEXPAUHWND__@@AAUtagPOINT@@@Z
_TEXT	SEGMENT
_p_hWnd$ = 8						; size = 4
_p_pt$ = 12						; size = 4
?OnContextMenu@CChartAddInBase000000@@MAEXPAUHWND__@@AAUtagPOINT@@@Z PROC ; CChartAddInBase000000::OnContextMenu, COMDAT
; _this$ = ecx

; 159  : 	virtual void	OnContextMenu( HWND p_hWnd, POINT &p_pt)			{}

  00000	c2 08 00	 ret	 8
?OnContextMenu@CChartAddInBase000000@@MAEXPAUHWND__@@AAUtagPOINT@@@Z ENDP ; CChartAddInBase000000::OnContextMenu
_TEXT	ENDS
; Function compile flags: /Ogtp
; File D:\git\src\IBK\IBK_DRFN\ProjSrc\SrcChartEx\ChartOCX\AddInManager\Include_AddIn\I000000\_ChartAddInBase.h
;	COMDAT ?OnManualRealData@CChartAddInBase000000@@MAEXPBDNH@Z
_TEXT	SEGMENT
_p_szPacketName$ = 8					; size = 4
_p_dData$ = 12						; size = 8
_p_nOption$ = 20					; size = 4
?OnManualRealData@CChartAddInBase000000@@MAEXPBDNH@Z PROC ; CChartAddInBase000000::OnManualRealData, COMDAT
; _this$ = ecx

; 157  : 	virtual void	OnManualRealData( const char *p_szPacketName, const double p_dData, const int p_nOption)	{}

  00000	c2 10 00	 ret	 16			; 00000010H
?OnManualRealData@CChartAddInBase000000@@MAEXPBDNH@Z ENDP ; CChartAddInBase000000::OnManualRealData
_TEXT	ENDS
; Function compile flags: /Ogtp
; File D:\git\src\IBK\IBK_DRFN\ProjSrc\SrcChartEx\ChartOCX\AddInManager\Include_AddIn\I000000\_ChartAddInBase.h
;	COMDAT ?OnGraphAdded@CChartAddInBase000000@@MAEXPBD0@Z
_TEXT	SEGMENT
_p_szGraphName$ = 8					; size = 4
_p_szIndicatorName$ = 12				; size = 4
?OnGraphAdded@CChartAddInBase000000@@MAEXPBD0@Z PROC	; CChartAddInBase000000::OnGraphAdded, COMDAT
; _this$ = ecx

; 155  : 	virtual void	OnGraphAdded( const char *p_szGraphName, const char *p_szIndicatorName)			{}

  00000	c2 08 00	 ret	 8
?OnGraphAdded@CChartAddInBase000000@@MAEXPBD0@Z ENDP	; CChartAddInBase000000::OnGraphAdded
_TEXT	ENDS
; Function compile flags: /Ogtp
; File D:\git\src\IBK\IBK_DRFN\ProjSrc\SrcChartEx\ChartOCX\AddInManager\Include_AddIn\I000000\_ChartAddInBase.h
;	COMDAT ?OnBlockRemoved@CChartAddInBase000000@@MAEXHH@Z
_TEXT	SEGMENT
_p_nRow$ = 8						; size = 4
_p_nColumn$ = 12					; size = 4
?OnBlockRemoved@CChartAddInBase000000@@MAEXHH@Z PROC	; CChartAddInBase000000::OnBlockRemoved, COMDAT
; _this$ = ecx

; 153  : 	virtual void	OnBlockRemoved( const int p_nRow, const int p_nColumn)	{}

  00000	c2 08 00	 ret	 8
?OnBlockRemoved@CChartAddInBase000000@@MAEXHH@Z ENDP	; CChartAddInBase000000::OnBlockRemoved
_TEXT	ENDS
; Function compile flags: /Ogtp
; File D:\git\src\IBK\IBK_DRFN\ProjSrc\SrcChartEx\ChartOCX\AddInManager\Include_AddIn\I000000\_ChartAddInBase.h
;	COMDAT ?OnGraphDataChanged@CChartAddInBase000000@@MAEXXZ
_TEXT	SEGMENT
?OnGraphDataChanged@CChartAddInBase000000@@MAEXXZ PROC	; CChartAddInBase000000::OnGraphDataChanged, COMDAT
; _this$ = ecx

; 151  : 	virtual void	OnGraphDataChanged( void)							{}

  00000	c2 00 00	 ret	 0
?OnGraphDataChanged@CChartAddInBase000000@@MAEXXZ ENDP	; CChartAddInBase000000::OnGraphDataChanged
_TEXT	ENDS
; Function compile flags: /Ogtp
; File D:\git\src\IBK\IBK_DRFN\ProjSrc\SrcChartEx\ChartOCX\AddInManager\Include_AddIn\I000000\_ChartAddInBase.h
;	COMDAT ?OnChartItemChanged@CChartAddInBase000000@@MAEXXZ
_TEXT	SEGMENT
?OnChartItemChanged@CChartAddInBase000000@@MAEXXZ PROC	; CChartAddInBase000000::OnChartItemChanged, COMDAT
; _this$ = ecx

; 149  : 	virtual void	OnChartItemChanged( void)							{}

  00000	c2 00 00	 ret	 0
?OnChartItemChanged@CChartAddInBase000000@@MAEXXZ ENDP	; CChartAddInBase000000::OnChartItemChanged
_TEXT	ENDS
; Function compile flags: /Ogtp
; File D:\git\src\IBK\IBK_DRFN\ProjSrc\SrcChartEx\ChartOCX\AddInManager\Include_AddIn\I000000\_ChartAddInBase.h
;	COMDAT ?OnUserIndiatorConditionLoaded@CChartAddInBase000000@@MAEXXZ
_TEXT	SEGMENT
?OnUserIndiatorConditionLoaded@CChartAddInBase000000@@MAEXXZ PROC ; CChartAddInBase000000::OnUserIndiatorConditionLoaded, COMDAT
; _this$ = ecx

; 147  : 	virtual void	OnUserIndiatorConditionLoaded( void)				{}

  00000	c2 00 00	 ret	 0
?OnUserIndiatorConditionLoaded@CChartAddInBase000000@@MAEXXZ ENDP ; CChartAddInBase000000::OnUserIndiatorConditionLoaded
_TEXT	ENDS
; Function compile flags: /Ogtp
; File D:\git\src\IBK\IBK_DRFN\ProjSrc\SrcChartEx\ChartOCX\AddInManager\Include_AddIn\I000000\_ChartAddInBase.h
;	COMDAT ?OnResetMainBlock@CChartAddInBase000000@@MAEXXZ
_TEXT	SEGMENT
?OnResetMainBlock@CChartAddInBase000000@@MAEXXZ PROC	; CChartAddInBase000000::OnResetMainBlock, COMDAT
; _this$ = ecx

; 145  : 	virtual void	OnResetMainBlock( void)								{}

  00000	c2 00 00	 ret	 0
?OnResetMainBlock@CChartAddInBase000000@@MAEXXZ ENDP	; CChartAddInBase000000::OnResetMainBlock
_TEXT	ENDS
; Function compile flags: /Ogtp
; File D:\git\src\IBK\IBK_DRFN\ProjSrc\SrcChartEx\ChartOCX\AddInManager\Include_AddIn\I000000\_ChartAddInBase.h
;	COMDAT ?OnCaptureChanged@CChartAddInBase000000@@MAEXPAUHWND__@@QAUHBITMAP__@@@Z
_TEXT	SEGMENT
_p_hWnd$ = 8						; size = 4
_p_hbmpMainOSB$ = 12					; size = 4
?OnCaptureChanged@CChartAddInBase000000@@MAEXPAUHWND__@@QAUHBITMAP__@@@Z PROC ; CChartAddInBase000000::OnCaptureChanged, COMDAT
; _this$ = ecx

; 143  : 	virtual void	OnCaptureChanged( HWND p_hWnd, const HBITMAP p_hbmpMainOSB)	{}	// (2006/11/5 - Seung-Won, Bae) Support MainOSB

  00000	c2 08 00	 ret	 8
?OnCaptureChanged@CChartAddInBase000000@@MAEXPAUHWND__@@QAUHBITMAP__@@@Z ENDP ; CChartAddInBase000000::OnCaptureChanged
_TEXT	ENDS
; Function compile flags: /Ogtp
; File D:\git\src\IBK\IBK_DRFN\ProjSrc\SrcChartEx\ChartOCX\AddInManager\Include_AddIn\I000000\_ChartAddInBase.h
;	COMDAT ?OnTimer@CChartAddInBase000000@@MAEXI@Z
_TEXT	SEGMENT
_p_uTimerID$ = 8					; size = 4
?OnTimer@CChartAddInBase000000@@MAEXI@Z PROC		; CChartAddInBase000000::OnTimer, COMDAT
; _this$ = ecx

; 138  : 	virtual void	OnTimer( UINT p_uTimerID)	{}

  00000	c2 04 00	 ret	 4
?OnTimer@CChartAddInBase000000@@MAEXI@Z ENDP		; CChartAddInBase000000::OnTimer
_TEXT	ENDS
; Function compile flags: /Ogtp
; File D:\git\src\IBK\IBK_DRFN\ProjSrc\SrcChartEx\ChartOCX\AddInManager\Include_AddIn\I000000\_ChartAddInBase.h
;	COMDAT ?OnPacketDataMultiItem@CChartAddInBase000000@@MAEXPBD0H@Z
_TEXT	SEGMENT
_lpszRQ$ = 8						; size = 4
_p_szPacketNames$ = 12					; size = 4
_p_bWithReset$ = 16					; size = 4
?OnPacketDataMultiItem@CChartAddInBase000000@@MAEXPBD0H@Z PROC ; CChartAddInBase000000::OnPacketDataMultiItem, COMDAT
; _this$ = ecx

; 136  : 	virtual void	OnPacketDataMultiItem(LPCTSTR lpszRQ, const char *p_szPacketNames, BOOL p_bWithReset)	{}

  00000	c2 0c 00	 ret	 12			; 0000000cH
?OnPacketDataMultiItem@CChartAddInBase000000@@MAEXPBD0H@Z ENDP ; CChartAddInBase000000::OnPacketDataMultiItem
_TEXT	ENDS
; Function compile flags: /Ogtp
; File D:\git\src\IBK\IBK_DRFN\ProjSrc\SrcChartEx\ChartOCX\AddInManager\Include_AddIn\I000000\_ChartAddInBase.h
;	COMDAT ?OnDrawAfterGraph@CChartAddInBase000000@@MAEXPAUHDC__@@@Z
_TEXT	SEGMENT
_p_hDC$ = 8						; size = 4
?OnDrawAfterGraph@CChartAddInBase000000@@MAEXPAUHDC__@@@Z PROC ; CChartAddInBase000000::OnDrawAfterGraph, COMDAT
; _this$ = ecx

; 134  : 	virtual void	OnDrawAfterGraph( HDC p_hDC)	{}

  00000	c2 04 00	 ret	 4
?OnDrawAfterGraph@CChartAddInBase000000@@MAEXPAUHDC__@@@Z ENDP ; CChartAddInBase000000::OnDrawAfterGraph
_TEXT	ENDS
; Function compile flags: /Ogtp
; File D:\git\src\IBK\IBK_DRFN\ProjSrc\SrcChartEx\ChartOCX\AddInManager\Include_AddIn\I000000\_ChartAddInBase.h
;	COMDAT ?OnDrawBeforeGraph@CChartAddInBase000000@@MAEXPAUHDC__@@@Z
_TEXT	SEGMENT
_p_hDC$ = 8						; size = 4
?OnDrawBeforeGraph@CChartAddInBase000000@@MAEXPAUHDC__@@@Z PROC ; CChartAddInBase000000::OnDrawBeforeGraph, COMDAT
; _this$ = ecx

; 132  : 	virtual void	OnDrawBeforeGraph( HDC p_hDC)	{}

  00000	c2 04 00	 ret	 4
?OnDrawBeforeGraph@CChartAddInBase000000@@MAEXPAUHDC__@@@Z ENDP ; CChartAddInBase000000::OnDrawBeforeGraph
_TEXT	ENDS
; Function compile flags: /Ogtp
; File D:\git\src\IBK\IBK_DRFN\ProjSrc\SrcChartEx\ChartOCX\AddInManager\Include_AddIn\I000000\_ChartAddInBase.h
;	COMDAT ?OnResetChart@CChartAddInBase000000@@MAEXXZ
_TEXT	SEGMENT
?OnResetChart@CChartAddInBase000000@@MAEXXZ PROC	; CChartAddInBase000000::OnResetChart, COMDAT
; _this$ = ecx

; 130  : 	virtual void	OnResetChart( void)	{}

  00000	c2 00 00	 ret	 0
?OnResetChart@CChartAddInBase000000@@MAEXXZ ENDP	; CChartAddInBase000000::OnResetChart
_TEXT	ENDS
; Function compile flags: /Ogtp
; File D:\git\src\IBK\IBK_DRFN\ProjSrc\SrcChartEx\ChartOCX\AddInManager\Include_AddIn\I000000\_ChartAddInBase.h
;	COMDAT ?OnLSharedDataChange@CChartAddInBase000000@@MAEXPBD0@Z
_TEXT	SEGMENT
_p_szLShareKey$ = 8					; size = 4
_p_szLShareValue$ = 12					; size = 4
?OnLSharedDataChange@CChartAddInBase000000@@MAEXPBD0@Z PROC ; CChartAddInBase000000::OnLSharedDataChange, COMDAT
; _this$ = ecx

; 128  : 	virtual void	OnLSharedDataChange( const char *p_szLShareKey, const char *p_szLShareValue)	{}

  00000	c2 08 00	 ret	 8
?OnLSharedDataChange@CChartAddInBase000000@@MAEXPBD0@Z ENDP ; CChartAddInBase000000::OnLSharedDataChange
_TEXT	ENDS
; Function compile flags: /Ogtp
; File D:\git\src\IBK\IBK_DRFN\ProjSrc\SrcChartEx\ChartOCX\AddInManager\Include_AddIn\I000000\_ChartAddInBase.h
;	COMDAT ?OnGSharedDataChange@CChartAddInBase000000@@MAEXPBD0H@Z
_TEXT	SEGMENT
_p_szGShareKey$ = 8					; size = 4
_p_szGShareValue$ = 12					; size = 4
_p_bStartShare$ = 16					; size = 4
?OnGSharedDataChange@CChartAddInBase000000@@MAEXPBD0H@Z PROC ; CChartAddInBase000000::OnGSharedDataChange, COMDAT
; _this$ = ecx

; 126  : 	virtual void	OnGSharedDataChange( const char *p_szGShareKey, const char *p_szGShareValue, BOOL p_bStartShare)	{}

  00000	c2 0c 00	 ret	 12			; 0000000cH
?OnGSharedDataChange@CChartAddInBase000000@@MAEXPBD0H@Z ENDP ; CChartAddInBase000000::OnGSharedDataChange
_TEXT	ENDS
; Function compile flags: /Ogtp
; File D:\git\src\IBK\IBK_DRFN\ProjSrc\SrcChartEx\ChartOCX\AddInManager\Include_AddIn\I000000\_ChartAddInBase.h
;	COMDAT ?ChangeChartMode@CChartAddInBase000000@@MAEXW4CHART_MODE@CChartInfo@@@Z
_TEXT	SEGMENT
_p_eChartMode$ = 8					; size = 4
?ChangeChartMode@CChartAddInBase000000@@MAEXW4CHART_MODE@CChartInfo@@@Z PROC ; CChartAddInBase000000::ChangeChartMode, COMDAT
; _this$ = ecx

; 116  : 	virtual void	ChangeChartMode( CChartInfo::CHART_MODE p_eChartMode)	{	m_eChartMode = p_eChartMode;	}

  00000	55		 push	 ebp
  00001	8b ec		 mov	 ebp, esp
  00003	8b 45 08	 mov	 eax, DWORD PTR _p_eChartMode$[ebp]
  00006	89 41 34	 mov	 DWORD PTR [ecx+52], eax
  00009	5d		 pop	 ebp
  0000a	c2 04 00	 ret	 4
?ChangeChartMode@CChartAddInBase000000@@MAEXW4CHART_MODE@CChartInfo@@@Z ENDP ; CChartAddInBase000000::ChangeChartMode
_TEXT	ENDS
; Function compile flags: /Ogtp
; File D:\git\src\IBK\IBK_DRFN\ProjSrc\SrcChartEx\ChartOCX\AddInManager\Include_AddIn\I000000\_ChartAddInBase.h
;	COMDAT ?AfeterOnOcxDestroyWindow@CChartAddInBase000000@@MAEXXZ
_TEXT	SEGMENT
?AfeterOnOcxDestroyWindow@CChartAddInBase000000@@MAEXXZ PROC ; CChartAddInBase000000::AfeterOnOcxDestroyWindow, COMDAT
; _this$ = ecx

; 109  : 	virtual void	AfeterOnOcxDestroyWindow( void)							{}

  00000	c2 00 00	 ret	 0
?AfeterOnOcxDestroyWindow@CChartAddInBase000000@@MAEXXZ ENDP ; CChartAddInBase000000::AfeterOnOcxDestroyWindow
_TEXT	ENDS
; Function compile flags: /Ogtp
; File D:\git\src\IBK\IBK_DRFN\ProjSrc\SrcChartEx\ChartOCX\AddInManager\Include_AddIn\I000000\_ChartAddInBase.h
;	COMDAT ?GetAddInCustomInterface@CChartAddInBase000000@@MAEPAUIUnknown@@XZ
_TEXT	SEGMENT
?GetAddInCustomInterface@CChartAddInBase000000@@MAEPAUIUnknown@@XZ PROC ; CChartAddInBase000000::GetAddInCustomInterface, COMDAT
; _this$ = ecx

; 87   : 	virtual IUnknown *	GetAddInCustomInterface( void)				{	return NULL;	}

  00000	33 c0		 xor	 eax, eax
  00002	c3		 ret	 0
?GetAddInCustomInterface@CChartAddInBase000000@@MAEPAUIUnknown@@XZ ENDP ; CChartAddInBase000000::GetAddInCustomInterface
_TEXT	ENDS
; Function compile flags: /Ogtp
; File D:\git\src\IBK\IBK_DRFN\ProjSrc\SrcChartEx\ChartOCX\AddInManager\Include_AddIn\I000000\_ChartAddInBase.h
;	COMDAT ?QueryInterface@CChartAddInBase000000@@MAGJABU_GUID@@PAPAX@Z
_TEXT	SEGMENT
_this$ = 8						; size = 4
_iid$ = 12						; size = 4
_ppvObject$ = 16					; size = 4
?QueryInterface@CChartAddInBase000000@@MAGJABU_GUID@@PAPAX@Z PROC ; CChartAddInBase000000::QueryInterface, COMDAT

; 54   : 	_IWRAPPER_IUNKNOWN_INTERFACE()

  00000	b8 02 40 00 80	 mov	 eax, -2147467262	; 80004002H
  00005	c2 0c 00	 ret	 12			; 0000000cH
?QueryInterface@CChartAddInBase000000@@MAGJABU_GUID@@PAPAX@Z ENDP ; CChartAddInBase000000::QueryInterface
_TEXT	ENDS
; Function compile flags: /Ogtp
; File D:\git\src\IBK\IBK_DRFN\ProjSrc\SrcChartEx\ChartOCX\AddInManager\Include_AddIn\I000000\_ChartAddInBase.h
;	COMDAT ?Release@CChartAddInBase000000@@MAGKXZ
_TEXT	SEGMENT
_this$ = 8						; size = 4
?Release@CChartAddInBase000000@@MAGKXZ PROC		; CChartAddInBase000000::Release, COMDAT

; 54   : 	_IWRAPPER_IUNKNOWN_INTERFACE()

  00000	55		 push	 ebp
  00001	8b ec		 mov	 ebp, esp
  00003	5d		 pop	 ebp
  00004	e9 00 00 00 00	 jmp	 ?Release@CIWUnknown@@MAGKXZ ; CIWUnknown::Release
?Release@CChartAddInBase000000@@MAGKXZ ENDP		; CChartAddInBase000000::Release
_TEXT	ENDS
; Function compile flags: /Ogtp
; File D:\git\src\IBK\IBK_DRFN\ProjSrc\SrcChartEx\ChartOCX\AddInManager\Include_AddIn\I000000\_ChartAddInBase.h
;	COMDAT ?AddRef@CChartAddInBase000000@@MAGKXZ
_TEXT	SEGMENT
_this$ = 8						; size = 4
?AddRef@CChartAddInBase000000@@MAGKXZ PROC		; CChartAddInBase000000::AddRef, COMDAT

; 54   : 	_IWRAPPER_IUNKNOWN_INTERFACE()

  00000	55		 push	 ebp
  00001	8b ec		 mov	 ebp, esp
  00003	5d		 pop	 ebp
  00004	e9 00 00 00 00	 jmp	 ?AddRef@CIWUnknown@@MAGKXZ ; CIWUnknown::AddRef
?AddRef@CChartAddInBase000000@@MAGKXZ ENDP		; CChartAddInBase000000::AddRef
_TEXT	ENDS
; Function compile flags: /Ogtp
; File D:\git\src\IBK\IBK_DRFN\ProjSrc\SrcChartEx\ChartOCX\AddInManager\Include_AddIn\_IWUnknown.h
;	COMDAT ?PreDestruct@CIWUnknown@@MAEXXZ
_TEXT	SEGMENT
?PreDestruct@CIWUnknown@@MAEXXZ PROC			; CIWUnknown::PreDestruct, COMDAT
; _this$ = ecx

; 49   : 	virtual void	PreDestruct( void)		{}

  00000	c2 00 00	 ret	 0
?PreDestruct@CIWUnknown@@MAEXXZ ENDP			; CIWUnknown::PreDestruct
_TEXT	ENDS
; Function compile flags: /Ogtp
; File D:\git\src\IBK\IBK_DRFN\ProjSrc\SrcChartEx\ChartOCX\AddInManager\Include_AddIn\_IWUnknown.h
;	COMDAT ?PreDestructX@CIWUnknown@@MAEXXZ
_TEXT	SEGMENT
?PreDestructX@CIWUnknown@@MAEXXZ PROC			; CIWUnknown::PreDestructX, COMDAT
; _this$ = ecx

; 48   : 	virtual void	PreDestructX( void)		{}

  00000	c2 00 00	 ret	 0
?PreDestructX@CIWUnknown@@MAEXXZ ENDP			; CIWUnknown::PreDestructX
_TEXT	ENDS
; Function compile flags: /Ogtp
; File D:\git\src\IBK\IBK_DRFN\ProjSrc\SrcChartEx\ChartOCX\AddInManager\Include_AddIn\_IWUnknown.h
;	COMDAT ?PostConstruct@CIWUnknown@@MAEXXZ
_TEXT	SEGMENT
?PostConstruct@CIWUnknown@@MAEXXZ PROC			; CIWUnknown::PostConstruct, COMDAT
; _this$ = ecx

; 47   : 	virtual void	PostConstruct( void)	{}

  00000	c2 00 00	 ret	 0
?PostConstruct@CIWUnknown@@MAEXXZ ENDP			; CIWUnknown::PostConstruct
_TEXT	ENDS
; Function compile flags: /Ogtp
; File C:\Program Files (x86)\Microsoft Visual Studio\2019\Community\VC\Tools\MSVC\14.29.30133\atlmfc\include\afx.inl
;	COMDAT ?Dump@CObject@@UBEXAAVCDumpContext@@@Z
_TEXT	SEGMENT
___formal$ = 8						; size = 4
?Dump@CObject@@UBEXAAVCDumpContext@@@Z PROC		; CObject::Dump, COMDAT
; _this$ = ecx

; 122  : 	{ /* no dumping in release builds */ }

  00000	c2 04 00	 ret	 4
?Dump@CObject@@UBEXAAVCDumpContext@@@Z ENDP		; CObject::Dump
_TEXT	ENDS
; Function compile flags: /Ogtp
; File C:\Program Files (x86)\Microsoft Visual Studio\2019\Community\VC\Tools\MSVC\14.29.30133\atlmfc\include\afx.inl
;	COMDAT ?AssertValid@CObject@@UBEXXZ
_TEXT	SEGMENT
?AssertValid@CObject@@UBEXXZ PROC			; CObject::AssertValid, COMDAT
; _this$ = ecx

; 120  : 	{ /* no asserts in release builds */ }

  00000	c2 00 00	 ret	 0
?AssertValid@CObject@@UBEXXZ ENDP			; CObject::AssertValid
_TEXT	ENDS
; Function compile flags: /Ogtp
; File C:\Program Files (x86)\Microsoft Visual Studio\2019\Community\VC\Tools\MSVC\14.29.30133\atlmfc\include\afx.inl
;	COMDAT ?Serialize@CObject@@UAEXAAVCArchive@@@Z
_TEXT	SEGMENT
___formal$ = 8						; size = 4
?Serialize@CObject@@UAEXAAVCArchive@@@Z PROC		; CObject::Serialize, COMDAT
; _this$ = ecx

; 106  : 	{ /* CObject does not serialize anything by default */ }

  00000	c2 04 00	 ret	 4
?Serialize@CObject@@UAEXAAVCArchive@@@Z ENDP		; CObject::Serialize
_TEXT	ENDS
; Function compile flags: /Ogtp
; File D:\git\src\IBK\IBK_DRFN\ProjSrc\SrcChartEx\ChartOCX\AddInManager\ChartCommonAddIn\SimpleCompareChartAddInImp.cpp
;	COMDAT ?__empty_global_delete@@YAXPAXI@Z
_TEXT	SEGMENT
___formal$ = 8						; size = 4
___formal$ = 12						; size = 4
?__empty_global_delete@@YAXPAXI@Z PROC			; __empty_global_delete, COMDAT

  00000	c2 00 00	 ret	 0
?__empty_global_delete@@YAXPAXI@Z ENDP			; __empty_global_delete
_TEXT	ENDS
; Function compile flags: /Ogtp
; File D:\git\src\IBK\IBK_DRFN\ProjSrc\SrcChartEx\ChartOCX\AddInManager\ChartCommonAddIn\SimpleCompareChartAddInImp.cpp
;	COMDAT ?__empty_global_delete@@YAXPAX@Z
_TEXT	SEGMENT
___formal$ = 8						; size = 4
?__empty_global_delete@@YAXPAX@Z PROC			; __empty_global_delete, COMDAT

  00000	c2 00 00	 ret	 0
?__empty_global_delete@@YAXPAX@Z ENDP			; __empty_global_delete
_TEXT	ENDS
END
