; Listing generated by Microsoft (R) Optimizing Compiler Version 19.29.30145.0 

	TITLE	D:\git\src\IBK\IBK_DRFN\#DRfn-CS\_Obj\ChartCommonAddIn\TimeMarkerAddInImp.obj
	.686P
	.XMM
	include listing.inc
	.model	flat

INCLUDELIB MSVCRT
INCLUDELIB OLDNAMES

PUBLIC	??_C@_0M@HENHKKKB@TIME_MARKER@			; `string'
PUBLIC	?m_eRegisteredEventMap@CTimeMarkerAddInImp@@1QBW4EAddInEventType@IChartAddIn000000@@B ; CTimeMarkerAddInImp::m_eRegisteredEventMap
CONST	SEGMENT
?m_eRegisteredEventMap@CTimeMarkerAddInImp@@1QBW4EAddInEventType@IChartAddIn000000@@B DD 016H ; CTimeMarkerAddInImp::m_eRegisteredEventMap
	DD	022H
	DD	015H
	DD	02fH
	DD	01H
	DD	05H
	DD	07H
	DD	01aH
	DD	019H
	DD	03cH
	ORG $+204
CONST	ENDS
;	COMDAT ??_C@_0M@HENHKKKB@TIME_MARKER@
CONST	SEGMENT
??_C@_0M@HENHKKKB@TIME_MARKER@ DB 'TIME_MARKER', 00H	; `string'
CONST	ENDS
PUBLIC	?__empty_global_delete@@YAXPAX@Z		; __empty_global_delete
PUBLIC	?__empty_global_delete@@YAXPAXI@Z		; __empty_global_delete
PUBLIC	??1CObject@@UAE@XZ				; CObject::~CObject
PUBLIC	?Serialize@CObject@@UAEXAAVCArchive@@@Z		; CObject::Serialize
PUBLIC	?AssertValid@CObject@@UBEXXZ			; CObject::AssertValid
PUBLIC	?Dump@CObject@@UBEXAAVCDumpContext@@@Z		; CObject::Dump
PUBLIC	??1CGdiObject@@UAE@XZ				; CGdiObject::~CGdiObject
PUBLIC	??_GCGdiObject@@UAEPAXI@Z			; CGdiObject::`scalar deleting destructor'
PUBLIC	??1CPen@@UAE@XZ					; CPen::~CPen
PUBLIC	??_GCPen@@UAEPAXI@Z				; CPen::`scalar deleting destructor'
PUBLIC	?PostConstruct@CIWUnknown@@MAEXXZ		; CIWUnknown::PostConstruct
PUBLIC	?PreDestructX@CIWUnknown@@MAEXXZ		; CIWUnknown::PreDestructX
PUBLIC	?PreDestruct@CIWUnknown@@MAEXXZ			; CIWUnknown::PreDestruct
PUBLIC	?AddRef@CChartAddInBase000000@@MAGKXZ		; CChartAddInBase000000::AddRef
PUBLIC	?Release@CChartAddInBase000000@@MAGKXZ		; CChartAddInBase000000::Release
PUBLIC	?QueryInterface@CChartAddInBase000000@@MAGJABU_GUID@@PAPAX@Z ; CChartAddInBase000000::QueryInterface
PUBLIC	?GetAddInCustomInterface@CChartAddInBase000000@@MAEPAUIUnknown@@XZ ; CChartAddInBase000000::GetAddInCustomInterface
PUBLIC	?InvokeAddInStr@CChartAddInBase000000@@MAEHPBD0@Z ; CChartAddInBase000000::InvokeAddInStr
PUBLIC	?AfeterOnOcxDestroyWindow@CChartAddInBase000000@@MAEXXZ ; CChartAddInBase000000::AfeterOnOcxDestroyWindow
PUBLIC	?ChangeChartMode@CChartAddInBase000000@@MAEXW4CHART_MODE@CChartInfo@@@Z ; CChartAddInBase000000::ChangeChartMode
PUBLIC	?OnLSharedDataChange@CChartAddInBase000000@@MAEXPBD0@Z ; CChartAddInBase000000::OnLSharedDataChange
PUBLIC	?OnDrawAfterGraph@CChartAddInBase000000@@MAEXPAUHDC__@@@Z ; CChartAddInBase000000::OnDrawAfterGraph
PUBLIC	?OnPacketDataMultiItem@CChartAddInBase000000@@MAEXPBD0H@Z ; CChartAddInBase000000::OnPacketDataMultiItem
PUBLIC	?OnTimer@CChartAddInBase000000@@MAEXI@Z		; CChartAddInBase000000::OnTimer
PUBLIC	?OnCaptureChanged@CChartAddInBase000000@@MAEXPAUHWND__@@QAUHBITMAP__@@@Z ; CChartAddInBase000000::OnCaptureChanged
PUBLIC	?OnResetMainBlock@CChartAddInBase000000@@MAEXXZ	; CChartAddInBase000000::OnResetMainBlock
PUBLIC	?OnUserIndiatorConditionLoaded@CChartAddInBase000000@@MAEXXZ ; CChartAddInBase000000::OnUserIndiatorConditionLoaded
PUBLIC	?OnChartItemChanged@CChartAddInBase000000@@MAEXXZ ; CChartAddInBase000000::OnChartItemChanged
PUBLIC	?OnGraphDataChanged@CChartAddInBase000000@@MAEXXZ ; CChartAddInBase000000::OnGraphDataChanged
PUBLIC	?OnBlockRemoved@CChartAddInBase000000@@MAEXHH@Z	; CChartAddInBase000000::OnBlockRemoved
PUBLIC	?OnGraphAdded@CChartAddInBase000000@@MAEXPBD0@Z	; CChartAddInBase000000::OnGraphAdded
PUBLIC	?OnManualRealData@CChartAddInBase000000@@MAEXPBDNH@Z ; CChartAddInBase000000::OnManualRealData
PUBLIC	?OnContextMenu@CChartAddInBase000000@@MAEXPAUHWND__@@AAUtagPOINT@@@Z ; CChartAddInBase000000::OnContextMenu
PUBLIC	?OnGraphDeleted@CChartAddInBase000000@@MAEXPBD0@Z ; CChartAddInBase000000::OnGraphDeleted
PUBLIC	?OnPacketTruncated@CChartAddInBase000000@@MAEXH@Z ; CChartAddInBase000000::OnPacketTruncated
PUBLIC	?OnBlockChanged@CChartAddInBase000000@@MAEXW4BLOCKBEHAVIOR@CBlockBaseData@@HHHH@Z ; CChartAddInBase000000::OnBlockChanged
PUBLIC	?OnRealData@CChartAddInBase000000@@MAEXPBDN0@Z	; CChartAddInBase000000::OnRealData
PUBLIC	?OnIndexedRealData@CChartAddInBase000000@@MAEXPBDHN@Z ; CChartAddInBase000000::OnIndexedRealData
PUBLIC	?OnRealPacketEnd@CChartAddInBase000000@@MAEXPBD@Z ; CChartAddInBase000000::OnRealPacketEnd
PUBLIC	?OnLoadEnvironment@CChartAddInBase000000@@MAEXPAUIPropertyMap@@@Z ; CChartAddInBase000000::OnLoadEnvironment
PUBLIC	?OnSaveEnvironment@CChartAddInBase000000@@MAEXPAUIPropertyMap@@@Z ; CChartAddInBase000000::OnSaveEnvironment
PUBLIC	?DrawCursor@CChartAddInBase000000@@MAE?AUtagRECT@@PAUHDC__@@@Z ; CChartAddInBase000000::DrawCursor
PUBLIC	?OnRecalculationComplete@CChartAddInBase000000@@MAEXXZ ; CChartAddInBase000000::OnRecalculationComplete
PUBLIC	?OnPreRealData@CChartAddInBase000000@@MAEHPBDAAN0H@Z ; CChartAddInBase000000::OnPreRealData
PUBLIC	?OnPreIndexedRealData@CChartAddInBase000000@@MAEHPBDHAANH@Z ; CChartAddInBase000000::OnPreIndexedRealData
PUBLIC	?OnPreRealPacketEnd@CChartAddInBase000000@@MAEHPBDH@Z ; CChartAddInBase000000::OnPreRealPacketEnd
PUBLIC	?OnPreNMTRClock@CChartAddInBase000000@@MAEHAA_J@Z ; CChartAddInBase000000::OnPreNMTRClock
PUBLIC	?OnCmdMsg@CChartAddInBase000000@@MAEHIHPAUICmdUI000000@@@Z ; CChartAddInBase000000::OnCmdMsg
PUBLIC	?OnAddInMsg@CChartAddInBase000000@@MAEHPBDJ@Z	; CChartAddInBase000000::OnAddInMsg
PUBLIC	?OnAddInToolCommand@CChartAddInBase000000@@MAEHW4EAICommandType@@PAUHDC__@@IAAUtagPOINT@@K@Z ; CChartAddInBase000000::OnAddInToolCommand
PUBLIC	?OnAddInToolCommand@CChartAddInBase000000@@MAEHW4EAICommandType@@PBD@Z ; CChartAddInBase000000::OnAddInToolCommand
PUBLIC	?OnAddInToolCommand@CChartAddInBase000000@@MAEHW4EAICommandType@@PBD1@Z ; CChartAddInBase000000::OnAddInToolCommand
PUBLIC	?OnAddInToolCommand@CChartAddInBase000000@@MAEHW4EAICommandType@@PBUIAddInDllBase@@@Z ; CChartAddInBase000000::OnAddInToolCommand
PUBLIC	?OnAddInToolCommand@CChartAddInBase000000@@MAEHW4EAICommandType@@JPBD@Z ; CChartAddInBase000000::OnAddInToolCommand
PUBLIC	?OnAddInToolCommand@CChartAddInBase000000@@MAEHW4EAICommandType@@JPBD11@Z ; CChartAddInBase000000::OnAddInToolCommand
PUBLIC	?OnAddInToolCommand@CChartAddInBase000000@@MAEHW4EAICommandType@@JJ@Z ; CChartAddInBase000000::OnAddInToolCommand
PUBLIC	?OnAddInToolCommand@CChartAddInBase000000@@MAEHW4EAICommandType@@JJJJJJJJJ@Z ; CChartAddInBase000000::OnAddInToolCommand
PUBLIC	?OnAddInToolCommand@CChartAddInBase000000@@MAEHAAJW4EAICommandType@@@Z ; CChartAddInBase000000::OnAddInToolCommand
PUBLIC	?OnAddInToolCommand@CChartAddInBase000000@@MAEHAAJW4EAICommandType@@PAUIGraphInfo000000@@@Z ; CChartAddInBase000000::OnAddInToolCommand
PUBLIC	?OnAddInToolCommand@CChartAddInBase000000@@MAEHAAJW4EAICommandType@@PBD@Z ; CChartAddInBase000000::OnAddInToolCommand
PUBLIC	?OnAddInToolCommand@CChartAddInBase000000@@MAEHAAJW4EAICommandType@@PBDPAVCObject@@@Z ; CChartAddInBase000000::OnAddInToolCommand
PUBLIC	?OnAddInToolCommand@CChartAddInBase000000@@MAEHAAJW4EAICommandType@@J@Z ; CChartAddInBase000000::OnAddInToolCommand
PUBLIC	?OnAddInToolCommand@CChartAddInBase000000@@MAEHAAJW4EAICommandType@@JJ@Z ; CChartAddInBase000000::OnAddInToolCommand
PUBLIC	?OnKeyDown@CChartAddInBase000000@@MAEHIII@Z	; CChartAddInBase000000::OnKeyDown
PUBLIC	?OnKeyUp@CChartAddInBase000000@@MAEHIII@Z	; CChartAddInBase000000::OnKeyUp
PUBLIC	?OnMouseWheel@CChartAddInBase000000@@MAEHIFUtagPOINT@@K@Z ; CChartAddInBase000000::OnMouseWheel
PUBLIC	?OnMouseMove@CChartAddInBase000000@@MAEHPAUHDC__@@IAAUtagPOINT@@KQAUHBITMAP__@@@Z ; CChartAddInBase000000::OnMouseMove
PUBLIC	?OnLButtonUp@CChartAddInBase000000@@MAEHPAUHDC__@@IAAUtagPOINT@@K@Z ; CChartAddInBase000000::OnLButtonUp
PUBLIC	?OnRButtonDown@CChartAddInBase000000@@MAEHPAUHDC__@@IAAUtagPOINT@@K@Z ; CChartAddInBase000000::OnRButtonDown
PUBLIC	?OnRButtonUp@CChartAddInBase000000@@MAEHPAUHDC__@@IAAUtagPOINT@@K@Z ; CChartAddInBase000000::OnRButtonUp
PUBLIC	?OnRButtonDblClk@CChartAddInBase000000@@MAEHPAUHDC__@@IAAUtagPOINT@@K@Z ; CChartAddInBase000000::OnRButtonDblClk
PUBLIC	??0CTimeMarkerAddInImp@@QAE@PAUIChartOCX000000@@PAUIAddInDllBase@@@Z ; CTimeMarkerAddInImp::CTimeMarkerAddInImp
PUBLIC	??1CTimeMarkerAddInImp@@UAE@XZ			; CTimeMarkerAddInImp::~CTimeMarkerAddInImp
PUBLIC	?GetRegisteredEventMap@CTimeMarkerAddInImp@@MBEPBW4EAddInEventType@IChartAddIn000000@@XZ ; CTimeMarkerAddInImp::GetRegisteredEventMap
PUBLIC	?SetTimeMarkString@CTimeMarkerAddInImp@@IAEXPBDH@Z ; CTimeMarkerAddInImp::SetTimeMarkString
PUBLIC	?SetTimeMarkPoint@CTimeMarkerAddInImp@@IAEXVCPoint@@@Z ; CTimeMarkerAddInImp::SetTimeMarkPoint
PUBLIC	?GetTimeValue@CTimeMarkerAddInImp@@IAE_JPBDAAH@Z ; CTimeMarkerAddInImp::GetTimeValue
PUBLIC	?GetMarkTimeInString@CTimeMarkerAddInImp@@IAEHVCPoint@@AAV?$CStringT@DV?$StrTraitMFC_DLL@DV?$ChTraitsCRT@D@ATL@@@@@ATL@@@Z ; CTimeMarkerAddInImp::GetMarkTimeInString
PUBLIC	?ClearTimeMark@CTimeMarkerAddInImp@@IAEHVCPoint@@@Z ; CTimeMarkerAddInImp::ClearTimeMark
PUBLIC	?OnEnableReceivingTimeShare@CTimeMarkerAddInImp@@IAEXH@Z ; CTimeMarkerAddInImp::OnEnableReceivingTimeShare
PUBLIC	?OnSetTimeMark@CTimeMarkerAddInImp@@IAEXPBDH@Z	; CTimeMarkerAddInImp::OnSetTimeMark
PUBLIC	?InvokeAddIn@CTimeMarkerAddInImp@@MAEHHJ@Z	; CTimeMarkerAddInImp::InvokeAddIn
PUBLIC	?OnGSharedDataChange@CTimeMarkerAddInImp@@MAEXPBD0H@Z ; CTimeMarkerAddInImp::OnGSharedDataChange
PUBLIC	?OnResetChart@CTimeMarkerAddInImp@@MAEXXZ	; CTimeMarkerAddInImp::OnResetChart
PUBLIC	?OnDrawBeforeGraph@CTimeMarkerAddInImp@@MAEXPAUHDC__@@@Z ; CTimeMarkerAddInImp::OnDrawBeforeGraph
PUBLIC	?OnToolCommand@CTimeMarkerAddInImp@@MAEXHH@Z	; CTimeMarkerAddInImp::OnToolCommand
PUBLIC	?OnAddInToolCommand@CTimeMarkerAddInImp@@MAEHW4EAICommandType@@@Z ; CTimeMarkerAddInImp::OnAddInToolCommand
PUBLIC	?OnAddInToolCommand@CTimeMarkerAddInImp@@MAEHW4EAICommandType@@PBDJ@Z ; CTimeMarkerAddInImp::OnAddInToolCommand
PUBLIC	?OnAddInToolCommand@CTimeMarkerAddInImp@@MAEHW4EAICommandType@@J@Z ; CTimeMarkerAddInImp::OnAddInToolCommand
PUBLIC	?OnLButtonDown@CTimeMarkerAddInImp@@MAEHPAUHDC__@@IAAUtagPOINT@@K@Z ; CTimeMarkerAddInImp::OnLButtonDown
PUBLIC	?OnLButtonDblClk@CTimeMarkerAddInImp@@MAEHPAUHDC__@@IAAUtagPOINT@@K@Z ; CTimeMarkerAddInImp::OnLButtonDblClk
PUBLIC	??_GCTimeMarkerAddInImp@@UAEPAXI@Z		; CTimeMarkerAddInImp::`scalar deleting destructor'
PUBLIC	??1ILPCSTR000000@@QAE@XZ			; ILPCSTR000000::~ILPCSTR000000
PUBLIC	?QueryInterface@CChartAddInBase000000@@O7AGJABU_GUID@@PAPAX@Z ; [thunk]:CChartAddInBase000000::QueryInterface`adjustor{8}'
PUBLIC	?AddRef@CChartAddInBase000000@@O7AGKXZ		; [thunk]:CChartAddInBase000000::AddRef`adjustor{8}'
PUBLIC	?Release@CChartAddInBase000000@@O7AGKXZ		; [thunk]:CChartAddInBase000000::Release`adjustor{8}'
PUBLIC	??_ECTimeMarkerAddInImp@@W7AEPAXI@Z		; [thunk]:CTimeMarkerAddInImp::`vector deleting destructor'
PUBLIC	??_R0PAVCException@@@8				; CException * `RTTI Type Descriptor'
PUBLIC	??_7CGdiObject@@6B@				; CGdiObject::`vftable'
PUBLIC	??_7CPen@@6B@					; CPen::`vftable'
PUBLIC	??_C@_0HD@JJCHHHNK@C?3?2Program?5Files?5?$CIx86?$CJ?2Microsof@ ; `string'
PUBLIC	??_C@_0BP@OIEOKIDM@Exception?5thrown?5in?5destructor@ ; `string'
PUBLIC	??_C@_0BB@HBOOMJBF@?$CFTs?5?$CI?$CFTs?3?$CFd?$CJ?6?$CFTs@ ; `string'
PUBLIC	??_C@_0N@OMEMOKLE@?$CFTs?5?$CI?$CFTs?3?$CFd?$CJ@ ; `string'
PUBLIC	??_R0?AVCObject@@@8				; CObject `RTTI Type Descriptor'
PUBLIC	??_R3CObject@@8					; CObject::`RTTI Class Hierarchy Descriptor'
PUBLIC	??_R2CObject@@8					; CObject::`RTTI Base Class Array'
PUBLIC	??_R1A@?0A@EA@CObject@@8			; CObject::`RTTI Base Class Descriptor at (0,-1,0,64)'
PUBLIC	??_R0?AUIUnknown@@@8				; IUnknown `RTTI Type Descriptor'
PUBLIC	??_R3IUnknown@@8				; IUnknown::`RTTI Class Hierarchy Descriptor'
PUBLIC	??_R2IUnknown@@8				; IUnknown::`RTTI Base Class Array'
PUBLIC	??_R1A@?0A@EA@IUnknown@@8			; IUnknown::`RTTI Base Class Descriptor at (0,-1,0,64)'
PUBLIC	??_R4CGdiObject@@6B@				; CGdiObject::`RTTI Complete Object Locator'
PUBLIC	??_R0?AVCGdiObject@@@8				; CGdiObject `RTTI Type Descriptor'
PUBLIC	??_R3CGdiObject@@8				; CGdiObject::`RTTI Class Hierarchy Descriptor'
PUBLIC	??_R2CGdiObject@@8				; CGdiObject::`RTTI Base Class Array'
PUBLIC	??_R1A@?0A@EA@CGdiObject@@8			; CGdiObject::`RTTI Base Class Descriptor at (0,-1,0,64)'
PUBLIC	??_R4CPen@@6B@					; CPen::`RTTI Complete Object Locator'
PUBLIC	??_R0?AVCPen@@@8				; CPen `RTTI Type Descriptor'
PUBLIC	??_R3CPen@@8					; CPen::`RTTI Class Hierarchy Descriptor'
PUBLIC	??_R2CPen@@8					; CPen::`RTTI Base Class Array'
PUBLIC	??_R1A@?0A@EA@CPen@@8				; CPen::`RTTI Base Class Descriptor at (0,-1,0,64)'
PUBLIC	?m_strAddInItemName@CTimeMarkerAddInImp@@2V?$CStringT@DV?$StrTraitMFC_DLL@DV?$ChTraitsCRT@D@ATL@@@@@ATL@@A ; CTimeMarkerAddInImp::m_strAddInItemName
PUBLIC	??_7CTimeMarkerAddInImp@@6BCIWUnknown@@@	; CTimeMarkerAddInImp::`vftable'
PUBLIC	??_7CTimeMarkerAddInImp@@6BIChartAddIn000000@@@	; CTimeMarkerAddInImp::`vftable'
PUBLIC	??_C@_07MGCPDNLD@DEFAULT@			; `string'
PUBLIC	__TI7PAVCTimeMarkerAddInImp@@
PUBLIC	__CTA7PAVCTimeMarkerAddInImp@@
PUBLIC	??_R0PAVCTimeMarkerAddInImp@@@8			; CTimeMarkerAddInImp * `RTTI Type Descriptor'
PUBLIC	__CT??_R0PAVCTimeMarkerAddInImp@@@84
PUBLIC	??_R0PAVCChartAddInBase000000@@@8		; CChartAddInBase000000 * `RTTI Type Descriptor'
PUBLIC	__CT??_R0PAVCChartAddInBase000000@@@84
PUBLIC	??_R0PAVCIWUnknown@@@8				; CIWUnknown * `RTTI Type Descriptor'
PUBLIC	__CT??_R0PAVCIWUnknown@@@84
PUBLIC	??_R0PAVCObject@@@8				; CObject * `RTTI Type Descriptor'
PUBLIC	__CT??_R0PAVCObject@@@84
PUBLIC	??_R0PAUIChartAddIn000000@@@8			; IChartAddIn000000 * `RTTI Type Descriptor'
PUBLIC	__CT??_R0PAUIChartAddIn000000@@@848
PUBLIC	??_R0PAUIUnknown@@@8				; IUnknown * `RTTI Type Descriptor'
PUBLIC	__CT??_R0PAUIUnknown@@@848
PUBLIC	??_R0PAX@8					; void * `RTTI Type Descriptor'
PUBLIC	__CT??_R0PAX@84
PUBLIC	??_C@_04LCMPBGFC@YYYY@				; `string'
PUBLIC	??_C@_04BDEGLLOH@MMDD@				; `string'
PUBLIC	??_C@_02ODDIIJPA@DD@				; `string'
PUBLIC	??_C@_02EGJHDPJI@HH@				; `string'
PUBLIC	??_C@_02DNCLAJDG@MM@				; `string'
PUBLIC	??_C@_0BB@FHAPCDKO@?5?5?5?5?5?5?5?5?5?5?5?5?5?5?5?5@ ; `string'
PUBLIC	??_C@_02KNHHEEKP@?5?5@				; `string'
PUBLIC	??_C@_0BD@LBGKOGII@?$CF04d?$CF02d?$CF02d?$CFs?$CF02d@ ; `string'
PUBLIC	??_C@_0P@NDLMDLNF@?$CF04d?$CF02d?$CF02d?$CFs@	; `string'
PUBLIC	??_C@_0BD@OIGGDNOI@?$CFs?$CF02d?$CF02d?$CF02d?$CF02d@ ; `string'
PUBLIC	??_C@_06KNNEIOFN@?$CFs?$CF02d@			; `string'
PUBLIC	??_R0?AUIChartAddIn000000@@@8			; IChartAddIn000000 `RTTI Type Descriptor'
PUBLIC	??_R3IChartAddIn000000@@8			; IChartAddIn000000::`RTTI Class Hierarchy Descriptor'
PUBLIC	??_R2IChartAddIn000000@@8			; IChartAddIn000000::`RTTI Base Class Array'
PUBLIC	??_R1A@?0A@EA@IChartAddIn000000@@8		; IChartAddIn000000::`RTTI Base Class Descriptor at (0,-1,0,64)'
PUBLIC	??_R4CTimeMarkerAddInImp@@6BCIWUnknown@@@	; CTimeMarkerAddInImp::`RTTI Complete Object Locator'
PUBLIC	??_R0?AVCTimeMarkerAddInImp@@@8			; CTimeMarkerAddInImp `RTTI Type Descriptor'
PUBLIC	??_R3CTimeMarkerAddInImp@@8			; CTimeMarkerAddInImp::`RTTI Class Hierarchy Descriptor'
PUBLIC	??_R2CTimeMarkerAddInImp@@8			; CTimeMarkerAddInImp::`RTTI Base Class Array'
PUBLIC	??_R1A@?0A@EA@CTimeMarkerAddInImp@@8		; CTimeMarkerAddInImp::`RTTI Base Class Descriptor at (0,-1,0,64)'
PUBLIC	??_R1A@?0A@EA@CChartAddInBase000000@@8		; CChartAddInBase000000::`RTTI Base Class Descriptor at (0,-1,0,64)'
PUBLIC	??_R0?AVCChartAddInBase000000@@@8		; CChartAddInBase000000 `RTTI Type Descriptor'
PUBLIC	??_R3CChartAddInBase000000@@8			; CChartAddInBase000000::`RTTI Class Hierarchy Descriptor'
PUBLIC	??_R2CChartAddInBase000000@@8			; CChartAddInBase000000::`RTTI Base Class Array'
PUBLIC	??_R1A@?0A@EA@CIWUnknown@@8			; CIWUnknown::`RTTI Base Class Descriptor at (0,-1,0,64)'
PUBLIC	??_R0?AVCIWUnknown@@@8				; CIWUnknown `RTTI Type Descriptor'
PUBLIC	??_R3CIWUnknown@@8				; CIWUnknown::`RTTI Class Hierarchy Descriptor'
PUBLIC	??_R2CIWUnknown@@8				; CIWUnknown::`RTTI Base Class Array'
PUBLIC	??_R17?0A@EA@IChartAddIn000000@@8		; IChartAddIn000000::`RTTI Base Class Descriptor at (8,-1,0,64)'
PUBLIC	??_R17?0A@EA@IUnknown@@8			; IUnknown::`RTTI Base Class Descriptor at (8,-1,0,64)'
PUBLIC	??_R4CTimeMarkerAddInImp@@6BIChartAddIn000000@@@ ; CTimeMarkerAddInImp::`RTTI Complete Object Locator'
EXTRN	??3@YAXPAX@Z:PROC				; operator delete
EXTRN	?__global_delete@@YAXPAXI@Z:PROC		; __global_delete
EXTRN	_atexit:PROC
EXTRN	___std_terminate:PROC
EXTRN	__imp__strnicmp:PROC
EXTRN	__imp__GetSystemTime@4:PROC
EXTRN	__imp__GetLocalTime@4:PROC
EXTRN	__imp__CreatePen@12:PROC
EXTRN	__imp__GetDoubleClickTime@0:PROC
EXTRN	__imp__CopyRect@8:PROC
EXTRN	__imp__PtInRect@12:PROC
EXTRN	__imp___atoi64:PROC
EXTRN	?GetRuntimeClass@CObject@@UBEPAUCRuntimeClass@@XZ:PROC ; CObject::GetRuntimeClass
EXTRN	__imp_?GetBufferSetLength@?$CSimpleStringT@D$00@ATL@@QAEPADH@Z:PROC
EXTRN	__imp_??0?$CStringT@DV?$StrTraitMFC_DLL@DV?$ChTraitsCRT@D@ATL@@@@@ATL@@QAE@XZ:PROC
EXTRN	__imp_??0?$CStringT@DV?$StrTraitMFC_DLL@DV?$ChTraitsCRT@D@ATL@@@@@ATL@@QAE@ABV01@@Z:PROC
EXTRN	__imp_??0?$CStringT@DV?$StrTraitMFC_DLL@DV?$ChTraitsCRT@D@ATL@@@@@ATL@@QAE@PBD@Z:PROC
EXTRN	__imp_??1?$CStringT@DV?$StrTraitMFC_DLL@DV?$ChTraitsCRT@D@ATL@@@@@ATL@@QAE@XZ:PROC
EXTRN	__imp_??4?$CStringT@DV?$StrTraitMFC_DLL@DV?$ChTraitsCRT@D@ATL@@@@@ATL@@QAEAAV01@ABV01@@Z:PROC
EXTRN	__imp_?Compare@?$CStringT@DV?$StrTraitMFC_DLL@DV?$ChTraitsCRT@D@ATL@@@@@ATL@@QBEHPBD@Z:PROC
EXTRN	__imp_?TrimRight@?$CStringT@DV?$StrTraitMFC_DLL@DV?$ChTraitsCRT@D@ATL@@@@@ATL@@QAEAAV12@XZ:PROC
EXTRN	__imp_?TrimLeft@?$CStringT@DV?$StrTraitMFC_DLL@DV?$ChTraitsCRT@D@ATL@@@@@ATL@@QAEAAV12@XZ:PROC
EXTRN	__imp_?Mid@?$CStringT@DV?$StrTraitMFC_DLL@DV?$ChTraitsCRT@D@ATL@@@@@ATL@@QBE?AV12@HH@Z:PROC
EXTRN	__imp_?Right@?$CStringT@DV?$StrTraitMFC_DLL@DV?$ChTraitsCRT@D@ATL@@@@@ATL@@QBE?AV12@H@Z:PROC
EXTRN	__imp_?Left@?$CStringT@DV?$StrTraitMFC_DLL@DV?$ChTraitsCRT@D@ATL@@@@@ATL@@QBE?AV12@H@Z:PROC
EXTRN	__imp_?Format@?$CStringT@DV?$StrTraitMFC_DLL@DV?$ChTraitsCRT@D@ATL@@@@@ATL@@QAAXPBDZZ:PROC
EXTRN	?GetRuntimeClass@CGdiObject@@UBEPAUCRuntimeClass@@XZ:PROC ; CGdiObject::GetRuntimeClass
EXTRN	?Attach@CGdiObject@@QAEHPAX@Z:PROC		; CGdiObject::Attach
EXTRN	?DeleteObject@CGdiObject@@QAEHXZ:PROC		; CGdiObject::DeleteObject
EXTRN	??_ECGdiObject@@UAEPAXI@Z:PROC			; CGdiObject::`vector deleting destructor'
EXTRN	?GetRuntimeClass@CPen@@UBEPAUCRuntimeClass@@XZ:PROC ; CPen::GetRuntimeClass
EXTRN	??_ECPen@@UAEPAXI@Z:PROC			; CPen::`vector deleting destructor'
EXTRN	?FromHandle@CDC@@SGPAV1@PAUHDC__@@@Z:PROC	; CDC::FromHandle
EXTRN	?SelectObject@CDC@@QAEPAVCPen@@PAV2@@Z:PROC	; CDC::SelectObject
EXTRN	?MoveTo@CDC@@QAE?AVCPoint@@HH@Z:PROC		; CDC::MoveTo
EXTRN	?LineTo@CDC@@QAEHHH@Z:PROC			; CDC::LineTo
EXTRN	?AfxMessageBox@@YGHPBDII@Z:PROC			; AfxMessageBox
EXTRN	?AddRef@CIWUnknown@@MAGKXZ:PROC			; CIWUnknown::AddRef
EXTRN	?Release@CIWUnknown@@MAGKXZ:PROC		; CIWUnknown::Release
EXTRN	??0CChartAddInBase000000@@IAE@PAUIChartOCX000000@@PAUIAddInDllBase@@@Z:PROC ; CChartAddInBase000000::CChartAddInBase000000
EXTRN	??1CChartAddInBase000000@@MAE@XZ:PROC		; CChartAddInBase000000::~CChartAddInBase000000
EXTRN	?HasFullManager@CChartAddInBase000000@@MAEHXZ:PROC ; CChartAddInBase000000::HasFullManager
EXTRN	?RegisterEventMap@CChartAddInBase000000@@UAEHH@Z:PROC ; CChartAddInBase000000::RegisterEventMap
EXTRN	?UnregisterEventMap@CChartAddInBase000000@@UAEHXZ:PROC ; CChartAddInBase000000::UnregisterEventMap
EXTRN	?OnOcxDestroyWindow@CChartAddInBase000000@@MAEXXZ:PROC ; CChartAddInBase000000::OnOcxDestroyWindow
EXTRN	??_ECTimeMarkerAddInImp@@UAEPAXI@Z:PROC		; CTimeMarkerAddInImp::`vector deleting destructor'
EXTRN	__imp__timeGetTime@0:PROC
EXTRN	@__security_check_cookie@4:PROC
EXTRN	__CxxThrowException@8:PROC
EXTRN	___CxxFrameHandler3:PROC
EXTRN	__dtol3:PROC
EXTRN	__ltod3:PROC
EXTRN	??_7type_info@@6B@:QWORD			; type_info::`vftable'
EXTRN	?g_iMetaTable@@3VIMetaTable@@A:BYTE		; g_iMetaTable
EXTRN	___security_cookie:DWORD
EXTRN	__fltused:DWORD
_BSS	SEGMENT
?m_strAddInItemName@CTimeMarkerAddInImp@@2V?$CStringT@DV?$StrTraitMFC_DLL@DV?$ChTraitsCRT@D@ATL@@@@@ATL@@A DD 01H DUP (?) ; CTimeMarkerAddInImp::m_strAddInItemName
_BSS	ENDS
CRT$XCU	SEGMENT
??m_strAddInItemName$initializer$@CTimeMarkerAddInImp@@2P6AXXZA@@3P6AXXZA DD FLAT:??__E?m_strAddInItemName@CTimeMarkerAddInImp@@2V?$CStringT@DV?$StrTraitMFC_DLL@DV?$ChTraitsCRT@D@ATL@@@@@ATL@@A@@YAXXZ ; ??m_strAddInItemName$initializer$@CTimeMarkerAddInImp@@2P6AXXZA@@3P6AXXZA
CRT$XCU	ENDS
;	COMDAT ??_R4CTimeMarkerAddInImp@@6BIChartAddIn000000@@@
rdata$r	SEGMENT
??_R4CTimeMarkerAddInImp@@6BIChartAddIn000000@@@ DD 00H	; CTimeMarkerAddInImp::`RTTI Complete Object Locator'
	DD	08H
	DD	00H
	DD	FLAT:??_R0?AVCTimeMarkerAddInImp@@@8
	DD	FLAT:??_R3CTimeMarkerAddInImp@@8
rdata$r	ENDS
;	COMDAT ??_R17?0A@EA@IUnknown@@8
rdata$r	SEGMENT
??_R17?0A@EA@IUnknown@@8 DD FLAT:??_R0?AUIUnknown@@@8	; IUnknown::`RTTI Base Class Descriptor at (8,-1,0,64)'
	DD	00H
	DD	08H
	DD	0ffffffffH
	DD	00H
	DD	040H
	DD	FLAT:??_R3IUnknown@@8
rdata$r	ENDS
;	COMDAT ??_R17?0A@EA@IChartAddIn000000@@8
rdata$r	SEGMENT
??_R17?0A@EA@IChartAddIn000000@@8 DD FLAT:??_R0?AUIChartAddIn000000@@@8 ; IChartAddIn000000::`RTTI Base Class Descriptor at (8,-1,0,64)'
	DD	01H
	DD	08H
	DD	0ffffffffH
	DD	00H
	DD	040H
	DD	FLAT:??_R3IChartAddIn000000@@8
rdata$r	ENDS
;	COMDAT ??_R2CIWUnknown@@8
rdata$r	SEGMENT
??_R2CIWUnknown@@8 DD FLAT:??_R1A@?0A@EA@CIWUnknown@@8	; CIWUnknown::`RTTI Base Class Array'
	DD	FLAT:??_R1A@?0A@EA@CObject@@8
rdata$r	ENDS
;	COMDAT ??_R3CIWUnknown@@8
rdata$r	SEGMENT
??_R3CIWUnknown@@8 DD 00H				; CIWUnknown::`RTTI Class Hierarchy Descriptor'
	DD	00H
	DD	02H
	DD	FLAT:??_R2CIWUnknown@@8
rdata$r	ENDS
;	COMDAT ??_R0?AVCIWUnknown@@@8
data$rs	SEGMENT
??_R0?AVCIWUnknown@@@8 DD FLAT:??_7type_info@@6B@	; CIWUnknown `RTTI Type Descriptor'
	DD	00H
	DB	'.?AVCIWUnknown@@', 00H
data$rs	ENDS
;	COMDAT ??_R1A@?0A@EA@CIWUnknown@@8
rdata$r	SEGMENT
??_R1A@?0A@EA@CIWUnknown@@8 DD FLAT:??_R0?AVCIWUnknown@@@8 ; CIWUnknown::`RTTI Base Class Descriptor at (0,-1,0,64)'
	DD	01H
	DD	00H
	DD	0ffffffffH
	DD	00H
	DD	040H
	DD	FLAT:??_R3CIWUnknown@@8
rdata$r	ENDS
;	COMDAT ??_R2CChartAddInBase000000@@8
rdata$r	SEGMENT
??_R2CChartAddInBase000000@@8 DD FLAT:??_R1A@?0A@EA@CChartAddInBase000000@@8 ; CChartAddInBase000000::`RTTI Base Class Array'
	DD	FLAT:??_R1A@?0A@EA@CIWUnknown@@8
	DD	FLAT:??_R1A@?0A@EA@CObject@@8
	DD	FLAT:??_R17?0A@EA@IChartAddIn000000@@8
	DD	FLAT:??_R17?0A@EA@IUnknown@@8
rdata$r	ENDS
;	COMDAT ??_R3CChartAddInBase000000@@8
rdata$r	SEGMENT
??_R3CChartAddInBase000000@@8 DD 00H			; CChartAddInBase000000::`RTTI Class Hierarchy Descriptor'
	DD	01H
	DD	05H
	DD	FLAT:??_R2CChartAddInBase000000@@8
rdata$r	ENDS
;	COMDAT ??_R0?AVCChartAddInBase000000@@@8
data$rs	SEGMENT
??_R0?AVCChartAddInBase000000@@@8 DD FLAT:??_7type_info@@6B@ ; CChartAddInBase000000 `RTTI Type Descriptor'
	DD	00H
	DB	'.?AVCChartAddInBase000000@@', 00H
data$rs	ENDS
;	COMDAT ??_R1A@?0A@EA@CChartAddInBase000000@@8
rdata$r	SEGMENT
??_R1A@?0A@EA@CChartAddInBase000000@@8 DD FLAT:??_R0?AVCChartAddInBase000000@@@8 ; CChartAddInBase000000::`RTTI Base Class Descriptor at (0,-1,0,64)'
	DD	04H
	DD	00H
	DD	0ffffffffH
	DD	00H
	DD	040H
	DD	FLAT:??_R3CChartAddInBase000000@@8
rdata$r	ENDS
;	COMDAT ??_R1A@?0A@EA@CTimeMarkerAddInImp@@8
rdata$r	SEGMENT
??_R1A@?0A@EA@CTimeMarkerAddInImp@@8 DD FLAT:??_R0?AVCTimeMarkerAddInImp@@@8 ; CTimeMarkerAddInImp::`RTTI Base Class Descriptor at (0,-1,0,64)'
	DD	05H
	DD	00H
	DD	0ffffffffH
	DD	00H
	DD	040H
	DD	FLAT:??_R3CTimeMarkerAddInImp@@8
rdata$r	ENDS
;	COMDAT ??_R2CTimeMarkerAddInImp@@8
rdata$r	SEGMENT
??_R2CTimeMarkerAddInImp@@8 DD FLAT:??_R1A@?0A@EA@CTimeMarkerAddInImp@@8 ; CTimeMarkerAddInImp::`RTTI Base Class Array'
	DD	FLAT:??_R1A@?0A@EA@CChartAddInBase000000@@8
	DD	FLAT:??_R1A@?0A@EA@CIWUnknown@@8
	DD	FLAT:??_R1A@?0A@EA@CObject@@8
	DD	FLAT:??_R17?0A@EA@IChartAddIn000000@@8
	DD	FLAT:??_R17?0A@EA@IUnknown@@8
rdata$r	ENDS
;	COMDAT ??_R3CTimeMarkerAddInImp@@8
rdata$r	SEGMENT
??_R3CTimeMarkerAddInImp@@8 DD 00H			; CTimeMarkerAddInImp::`RTTI Class Hierarchy Descriptor'
	DD	01H
	DD	06H
	DD	FLAT:??_R2CTimeMarkerAddInImp@@8
rdata$r	ENDS
;	COMDAT ??_R0?AVCTimeMarkerAddInImp@@@8
data$rs	SEGMENT
??_R0?AVCTimeMarkerAddInImp@@@8 DD FLAT:??_7type_info@@6B@ ; CTimeMarkerAddInImp `RTTI Type Descriptor'
	DD	00H
	DB	'.?AVCTimeMarkerAddInImp@@', 00H
data$rs	ENDS
;	COMDAT ??_R4CTimeMarkerAddInImp@@6BCIWUnknown@@@
rdata$r	SEGMENT
??_R4CTimeMarkerAddInImp@@6BCIWUnknown@@@ DD 00H	; CTimeMarkerAddInImp::`RTTI Complete Object Locator'
	DD	00H
	DD	00H
	DD	FLAT:??_R0?AVCTimeMarkerAddInImp@@@8
	DD	FLAT:??_R3CTimeMarkerAddInImp@@8
rdata$r	ENDS
;	COMDAT ??_R1A@?0A@EA@IChartAddIn000000@@8
rdata$r	SEGMENT
??_R1A@?0A@EA@IChartAddIn000000@@8 DD FLAT:??_R0?AUIChartAddIn000000@@@8 ; IChartAddIn000000::`RTTI Base Class Descriptor at (0,-1,0,64)'
	DD	01H
	DD	00H
	DD	0ffffffffH
	DD	00H
	DD	040H
	DD	FLAT:??_R3IChartAddIn000000@@8
rdata$r	ENDS
;	COMDAT ??_R2IChartAddIn000000@@8
rdata$r	SEGMENT
??_R2IChartAddIn000000@@8 DD FLAT:??_R1A@?0A@EA@IChartAddIn000000@@8 ; IChartAddIn000000::`RTTI Base Class Array'
	DD	FLAT:??_R1A@?0A@EA@IUnknown@@8
rdata$r	ENDS
;	COMDAT ??_R3IChartAddIn000000@@8
rdata$r	SEGMENT
??_R3IChartAddIn000000@@8 DD 00H			; IChartAddIn000000::`RTTI Class Hierarchy Descriptor'
	DD	00H
	DD	02H
	DD	FLAT:??_R2IChartAddIn000000@@8
rdata$r	ENDS
;	COMDAT ??_R0?AUIChartAddIn000000@@@8
data$rs	SEGMENT
??_R0?AUIChartAddIn000000@@@8 DD FLAT:??_7type_info@@6B@ ; IChartAddIn000000 `RTTI Type Descriptor'
	DD	00H
	DB	'.?AUIChartAddIn000000@@', 00H
data$rs	ENDS
;	COMDAT ??_C@_06KNNEIOFN@?$CFs?$CF02d@
CONST	SEGMENT
??_C@_06KNNEIOFN@?$CFs?$CF02d@ DB '%s%02d', 00H		; `string'
CONST	ENDS
;	COMDAT ??_C@_0BD@OIGGDNOI@?$CFs?$CF02d?$CF02d?$CF02d?$CF02d@
CONST	SEGMENT
??_C@_0BD@OIGGDNOI@?$CFs?$CF02d?$CF02d?$CF02d?$CF02d@ DB '%s%02d%02d%02d%'
	DB	'02d', 00H					; `string'
CONST	ENDS
;	COMDAT ??_C@_0P@NDLMDLNF@?$CF04d?$CF02d?$CF02d?$CFs@
CONST	SEGMENT
??_C@_0P@NDLMDLNF@?$CF04d?$CF02d?$CF02d?$CFs@ DB '%04d%02d%02d%s', 00H ; `string'
CONST	ENDS
;	COMDAT ??_C@_0BD@LBGKOGII@?$CF04d?$CF02d?$CF02d?$CFs?$CF02d@
CONST	SEGMENT
??_C@_0BD@LBGKOGII@?$CF04d?$CF02d?$CF02d?$CFs?$CF02d@ DB '%04d%02d%02d%s%'
	DB	'02d', 00H					; `string'
CONST	ENDS
;	COMDAT ??_C@_02KNHHEEKP@?5?5@
CONST	SEGMENT
??_C@_02KNHHEEKP@?5?5@ DB '  ', 00H			; `string'
CONST	ENDS
;	COMDAT ??_C@_0BB@FHAPCDKO@?5?5?5?5?5?5?5?5?5?5?5?5?5?5?5?5@
CONST	SEGMENT
??_C@_0BB@FHAPCDKO@?5?5?5?5?5?5?5?5?5?5?5?5?5?5?5?5@ DB '                '
	DB	00H						; `string'
CONST	ENDS
;	COMDAT ??_C@_02DNCLAJDG@MM@
CONST	SEGMENT
??_C@_02DNCLAJDG@MM@ DB 'MM', 00H			; `string'
CONST	ENDS
;	COMDAT ??_C@_02EGJHDPJI@HH@
CONST	SEGMENT
??_C@_02EGJHDPJI@HH@ DB 'HH', 00H			; `string'
CONST	ENDS
;	COMDAT ??_C@_02ODDIIJPA@DD@
CONST	SEGMENT
??_C@_02ODDIIJPA@DD@ DB 'DD', 00H			; `string'
CONST	ENDS
;	COMDAT ??_C@_04BDEGLLOH@MMDD@
CONST	SEGMENT
??_C@_04BDEGLLOH@MMDD@ DB 'MMDD', 00H			; `string'
CONST	ENDS
;	COMDAT ??_C@_04LCMPBGFC@YYYY@
CONST	SEGMENT
??_C@_04LCMPBGFC@YYYY@ DB 'YYYY', 00H			; `string'
CONST	ENDS
;	COMDAT __CT??_R0PAX@84
xdata$x	SEGMENT
__CT??_R0PAX@84 DD 01H
	DD	FLAT:??_R0PAX@8
	DD	00H
	DD	0ffffffffH
	ORG $+4
	DD	04H
	DD	00H
xdata$x	ENDS
;	COMDAT ??_R0PAX@8
data$r	SEGMENT
??_R0PAX@8 DD	FLAT:??_7type_info@@6B@			; void * `RTTI Type Descriptor'
	DD	00H
	DB	'.PAX', 00H
data$r	ENDS
;	COMDAT __CT??_R0PAUIUnknown@@@848
xdata$x	SEGMENT
__CT??_R0PAUIUnknown@@@848 DD 01H
	DD	FLAT:??_R0PAUIUnknown@@@8
	DD	08H
	DD	0ffffffffH
	DD	00H
	DD	04H
	DD	00H
xdata$x	ENDS
;	COMDAT ??_R0PAUIUnknown@@@8
data$r	SEGMENT
??_R0PAUIUnknown@@@8 DD FLAT:??_7type_info@@6B@		; IUnknown * `RTTI Type Descriptor'
	DD	00H
	DB	'.PAUIUnknown@@', 00H
data$r	ENDS
;	COMDAT __CT??_R0PAUIChartAddIn000000@@@848
xdata$x	SEGMENT
__CT??_R0PAUIChartAddIn000000@@@848 DD 01H
	DD	FLAT:??_R0PAUIChartAddIn000000@@@8
	DD	08H
	DD	0ffffffffH
	DD	00H
	DD	04H
	DD	00H
xdata$x	ENDS
;	COMDAT ??_R0PAUIChartAddIn000000@@@8
data$r	SEGMENT
??_R0PAUIChartAddIn000000@@@8 DD FLAT:??_7type_info@@6B@ ; IChartAddIn000000 * `RTTI Type Descriptor'
	DD	00H
	DB	'.PAUIChartAddIn000000@@', 00H
data$r	ENDS
;	COMDAT __CT??_R0PAVCObject@@@84
xdata$x	SEGMENT
__CT??_R0PAVCObject@@@84 DD 01H
	DD	FLAT:??_R0PAVCObject@@@8
	DD	00H
	DD	0ffffffffH
	ORG $+4
	DD	04H
	DD	00H
xdata$x	ENDS
;	COMDAT ??_R0PAVCObject@@@8
data$r	SEGMENT
??_R0PAVCObject@@@8 DD FLAT:??_7type_info@@6B@		; CObject * `RTTI Type Descriptor'
	DD	00H
	DB	'.PAVCObject@@', 00H
data$r	ENDS
;	COMDAT __CT??_R0PAVCIWUnknown@@@84
xdata$x	SEGMENT
__CT??_R0PAVCIWUnknown@@@84 DD 01H
	DD	FLAT:??_R0PAVCIWUnknown@@@8
	DD	00H
	DD	0ffffffffH
	ORG $+4
	DD	04H
	DD	00H
xdata$x	ENDS
;	COMDAT ??_R0PAVCIWUnknown@@@8
data$r	SEGMENT
??_R0PAVCIWUnknown@@@8 DD FLAT:??_7type_info@@6B@	; CIWUnknown * `RTTI Type Descriptor'
	DD	00H
	DB	'.PAVCIWUnknown@@', 00H
data$r	ENDS
;	COMDAT __CT??_R0PAVCChartAddInBase000000@@@84
xdata$x	SEGMENT
__CT??_R0PAVCChartAddInBase000000@@@84 DD 01H
	DD	FLAT:??_R0PAVCChartAddInBase000000@@@8
	DD	00H
	DD	0ffffffffH
	ORG $+4
	DD	04H
	DD	00H
xdata$x	ENDS
;	COMDAT ??_R0PAVCChartAddInBase000000@@@8
data$r	SEGMENT
??_R0PAVCChartAddInBase000000@@@8 DD FLAT:??_7type_info@@6B@ ; CChartAddInBase000000 * `RTTI Type Descriptor'
	DD	00H
	DB	'.PAVCChartAddInBase000000@@', 00H
data$r	ENDS
;	COMDAT __CT??_R0PAVCTimeMarkerAddInImp@@@84
xdata$x	SEGMENT
__CT??_R0PAVCTimeMarkerAddInImp@@@84 DD 01H
	DD	FLAT:??_R0PAVCTimeMarkerAddInImp@@@8
	DD	00H
	DD	0ffffffffH
	ORG $+4
	DD	04H
	DD	00H
xdata$x	ENDS
;	COMDAT ??_R0PAVCTimeMarkerAddInImp@@@8
data$r	SEGMENT
??_R0PAVCTimeMarkerAddInImp@@@8 DD FLAT:??_7type_info@@6B@ ; CTimeMarkerAddInImp * `RTTI Type Descriptor'
	DD	00H
	DB	'.PAVCTimeMarkerAddInImp@@', 00H
data$r	ENDS
;	COMDAT __CTA7PAVCTimeMarkerAddInImp@@
xdata$x	SEGMENT
__CTA7PAVCTimeMarkerAddInImp@@ DD 07H
	DD	FLAT:__CT??_R0PAVCTimeMarkerAddInImp@@@84
	DD	FLAT:__CT??_R0PAVCChartAddInBase000000@@@84
	DD	FLAT:__CT??_R0PAVCIWUnknown@@@84
	DD	FLAT:__CT??_R0PAVCObject@@@84
	DD	FLAT:__CT??_R0PAUIChartAddIn000000@@@848
	DD	FLAT:__CT??_R0PAUIUnknown@@@848
	DD	FLAT:__CT??_R0PAX@84
xdata$x	ENDS
;	COMDAT __TI7PAVCTimeMarkerAddInImp@@
xdata$x	SEGMENT
__TI7PAVCTimeMarkerAddInImp@@ DD 00H
	DD	00H
	DD	00H
	DD	FLAT:__CTA7PAVCTimeMarkerAddInImp@@
xdata$x	ENDS
;	COMDAT ??_C@_07MGCPDNLD@DEFAULT@
CONST	SEGMENT
??_C@_07MGCPDNLD@DEFAULT@ DB 'DEFAULT', 00H		; `string'
CONST	ENDS
;	COMDAT ??_7CTimeMarkerAddInImp@@6BIChartAddIn000000@@@
CONST	SEGMENT
??_7CTimeMarkerAddInImp@@6BIChartAddIn000000@@@ DD FLAT:??_R4CTimeMarkerAddInImp@@6BIChartAddIn000000@@@ ; CTimeMarkerAddInImp::`vftable'
	DD	FLAT:?QueryInterface@CChartAddInBase000000@@O7AGJABU_GUID@@PAPAX@Z
	DD	FLAT:?AddRef@CChartAddInBase000000@@O7AGKXZ
	DD	FLAT:?Release@CChartAddInBase000000@@O7AGKXZ
	DD	FLAT:??_ECTimeMarkerAddInImp@@W7AEPAXI@Z
	DD	FLAT:?HasFullManager@CChartAddInBase000000@@MAEHXZ
	DD	FLAT:?GetAddInCustomInterface@CChartAddInBase000000@@MAEPAUIUnknown@@XZ
	DD	FLAT:?InvokeAddIn@CTimeMarkerAddInImp@@MAEHHJ@Z
	DD	FLAT:?InvokeAddInStr@CChartAddInBase000000@@MAEHPBD0@Z
	DD	FLAT:?OnOcxDestroyWindow@CChartAddInBase000000@@MAEXXZ
	DD	FLAT:?ChangeChartMode@CChartAddInBase000000@@MAEXW4CHART_MODE@CChartInfo@@@Z
	DD	FLAT:?RegisterEventMap@CChartAddInBase000000@@UAEHH@Z
	DD	FLAT:?UnregisterEventMap@CChartAddInBase000000@@UAEHXZ
	DD	FLAT:?OnGSharedDataChange@CTimeMarkerAddInImp@@MAEXPBD0H@Z
	DD	FLAT:?OnLSharedDataChange@CChartAddInBase000000@@MAEXPBD0@Z
	DD	FLAT:?OnResetChart@CTimeMarkerAddInImp@@MAEXXZ
	DD	FLAT:?OnDrawBeforeGraph@CTimeMarkerAddInImp@@MAEXPAUHDC__@@@Z
	DD	FLAT:?OnDrawAfterGraph@CChartAddInBase000000@@MAEXPAUHDC__@@@Z
	DD	FLAT:?OnPacketDataMultiItem@CChartAddInBase000000@@MAEXPBD0H@Z
	DD	FLAT:?OnTimer@CChartAddInBase000000@@MAEXI@Z
	DD	FLAT:?OnCaptureChanged@CChartAddInBase000000@@MAEXPAUHWND__@@QAUHBITMAP__@@@Z
	DD	FLAT:?OnResetMainBlock@CChartAddInBase000000@@MAEXXZ
	DD	FLAT:?OnUserIndiatorConditionLoaded@CChartAddInBase000000@@MAEXXZ
	DD	FLAT:?OnChartItemChanged@CChartAddInBase000000@@MAEXXZ
	DD	FLAT:?OnGraphDataChanged@CChartAddInBase000000@@MAEXXZ
	DD	FLAT:?OnBlockRemoved@CChartAddInBase000000@@MAEXHH@Z
	DD	FLAT:?OnGraphAdded@CChartAddInBase000000@@MAEXPBD0@Z
	DD	FLAT:?OnManualRealData@CChartAddInBase000000@@MAEXPBDNH@Z
	DD	FLAT:?OnContextMenu@CChartAddInBase000000@@MAEXPAUHWND__@@AAUtagPOINT@@@Z
	DD	FLAT:?OnGraphDeleted@CChartAddInBase000000@@MAEXPBD0@Z
	DD	FLAT:?OnPacketTruncated@CChartAddInBase000000@@MAEXH@Z
	DD	FLAT:?OnBlockChanged@CChartAddInBase000000@@MAEXW4BLOCKBEHAVIOR@CBlockBaseData@@HHHH@Z
	DD	FLAT:?OnToolCommand@CTimeMarkerAddInImp@@MAEXHH@Z
	DD	FLAT:?OnRealData@CChartAddInBase000000@@MAEXPBDN0@Z
	DD	FLAT:?OnIndexedRealData@CChartAddInBase000000@@MAEXPBDHN@Z
	DD	FLAT:?OnRealPacketEnd@CChartAddInBase000000@@MAEXPBD@Z
	DD	FLAT:?OnLoadEnvironment@CChartAddInBase000000@@MAEXPAUIPropertyMap@@@Z
	DD	FLAT:?OnSaveEnvironment@CChartAddInBase000000@@MAEXPAUIPropertyMap@@@Z
	DD	FLAT:?DrawCursor@CChartAddInBase000000@@MAE?AUtagRECT@@PAUHDC__@@@Z
	DD	FLAT:?OnRecalculationComplete@CChartAddInBase000000@@MAEXXZ
	DD	FLAT:?OnPreRealData@CChartAddInBase000000@@MAEHPBDAAN0H@Z
	DD	FLAT:?OnPreIndexedRealData@CChartAddInBase000000@@MAEHPBDHAANH@Z
	DD	FLAT:?OnPreRealPacketEnd@CChartAddInBase000000@@MAEHPBDH@Z
	DD	FLAT:?OnPreNMTRClock@CChartAddInBase000000@@MAEHAA_J@Z
	DD	FLAT:?OnCmdMsg@CChartAddInBase000000@@MAEHIHPAUICmdUI000000@@@Z
	DD	FLAT:?OnAddInMsg@CChartAddInBase000000@@MAEHPBDJ@Z
	DD	FLAT:?OnAddInToolCommand@CChartAddInBase000000@@MAEHAAJW4EAICommandType@@JJ@Z
	DD	FLAT:?OnAddInToolCommand@CChartAddInBase000000@@MAEHAAJW4EAICommandType@@J@Z
	DD	FLAT:?OnAddInToolCommand@CChartAddInBase000000@@MAEHAAJW4EAICommandType@@PBDPAVCObject@@@Z
	DD	FLAT:?OnAddInToolCommand@CChartAddInBase000000@@MAEHAAJW4EAICommandType@@PBD@Z
	DD	FLAT:?OnAddInToolCommand@CChartAddInBase000000@@MAEHAAJW4EAICommandType@@PAUIGraphInfo000000@@@Z
	DD	FLAT:?OnAddInToolCommand@CChartAddInBase000000@@MAEHAAJW4EAICommandType@@@Z
	DD	FLAT:?OnAddInToolCommand@CChartAddInBase000000@@MAEHW4EAICommandType@@JJJJJJJJJ@Z
	DD	FLAT:?OnAddInToolCommand@CChartAddInBase000000@@MAEHW4EAICommandType@@JJ@Z
	DD	FLAT:?OnAddInToolCommand@CChartAddInBase000000@@MAEHW4EAICommandType@@JPBD11@Z
	DD	FLAT:?OnAddInToolCommand@CChartAddInBase000000@@MAEHW4EAICommandType@@JPBD@Z
	DD	FLAT:?OnAddInToolCommand@CTimeMarkerAddInImp@@MAEHW4EAICommandType@@J@Z
	DD	FLAT:?OnAddInToolCommand@CChartAddInBase000000@@MAEHW4EAICommandType@@PBUIAddInDllBase@@@Z
	DD	FLAT:?OnAddInToolCommand@CTimeMarkerAddInImp@@MAEHW4EAICommandType@@PBDJ@Z
	DD	FLAT:?OnAddInToolCommand@CChartAddInBase000000@@MAEHW4EAICommandType@@PBD1@Z
	DD	FLAT:?OnAddInToolCommand@CChartAddInBase000000@@MAEHW4EAICommandType@@PBD@Z
	DD	FLAT:?OnAddInToolCommand@CChartAddInBase000000@@MAEHW4EAICommandType@@PAUHDC__@@IAAUtagPOINT@@K@Z
	DD	FLAT:?OnAddInToolCommand@CTimeMarkerAddInImp@@MAEHW4EAICommandType@@@Z
	DD	FLAT:?OnKeyDown@CChartAddInBase000000@@MAEHIII@Z
	DD	FLAT:?OnKeyUp@CChartAddInBase000000@@MAEHIII@Z
	DD	FLAT:?OnMouseWheel@CChartAddInBase000000@@MAEHIFUtagPOINT@@K@Z
	DD	FLAT:?OnMouseMove@CChartAddInBase000000@@MAEHPAUHDC__@@IAAUtagPOINT@@KQAUHBITMAP__@@@Z
	DD	FLAT:?OnLButtonDown@CTimeMarkerAddInImp@@MAEHPAUHDC__@@IAAUtagPOINT@@K@Z
	DD	FLAT:?OnLButtonUp@CChartAddInBase000000@@MAEHPAUHDC__@@IAAUtagPOINT@@K@Z
	DD	FLAT:?OnLButtonDblClk@CTimeMarkerAddInImp@@MAEHPAUHDC__@@IAAUtagPOINT@@K@Z
	DD	FLAT:?OnRButtonDown@CChartAddInBase000000@@MAEHPAUHDC__@@IAAUtagPOINT@@K@Z
	DD	FLAT:?OnRButtonUp@CChartAddInBase000000@@MAEHPAUHDC__@@IAAUtagPOINT@@K@Z
	DD	FLAT:?OnRButtonDblClk@CChartAddInBase000000@@MAEHPAUHDC__@@IAAUtagPOINT@@K@Z
CONST	ENDS
;	COMDAT ??_7CTimeMarkerAddInImp@@6BCIWUnknown@@@
CONST	SEGMENT
??_7CTimeMarkerAddInImp@@6BCIWUnknown@@@ DD FLAT:??_R4CTimeMarkerAddInImp@@6BCIWUnknown@@@ ; CTimeMarkerAddInImp::`vftable'
	DD	FLAT:?GetRuntimeClass@CObject@@UBEPAUCRuntimeClass@@XZ
	DD	FLAT:??_ECTimeMarkerAddInImp@@UAEPAXI@Z
	DD	FLAT:?Serialize@CObject@@UAEXAAVCArchive@@@Z
	DD	FLAT:?AssertValid@CObject@@UBEXXZ
	DD	FLAT:?Dump@CObject@@UBEXAAVCDumpContext@@@Z
	DD	FLAT:?AddRef@CChartAddInBase000000@@MAGKXZ
	DD	FLAT:?Release@CChartAddInBase000000@@MAGKXZ
	DD	FLAT:?QueryInterface@CChartAddInBase000000@@MAGJABU_GUID@@PAPAX@Z
	DD	FLAT:?PostConstruct@CIWUnknown@@MAEXXZ
	DD	FLAT:?PreDestructX@CIWUnknown@@MAEXXZ
	DD	FLAT:?PreDestruct@CIWUnknown@@MAEXXZ
	DD	FLAT:?GetRegisteredEventMap@CTimeMarkerAddInImp@@MBEPBW4EAddInEventType@IChartAddIn000000@@XZ
	DD	FLAT:?AfeterOnOcxDestroyWindow@CChartAddInBase000000@@MAEXXZ
CONST	ENDS
;	COMDAT ??_R1A@?0A@EA@CPen@@8
rdata$r	SEGMENT
??_R1A@?0A@EA@CPen@@8 DD FLAT:??_R0?AVCPen@@@8		; CPen::`RTTI Base Class Descriptor at (0,-1,0,64)'
	DD	02H
	DD	00H
	DD	0ffffffffH
	DD	00H
	DD	040H
	DD	FLAT:??_R3CPen@@8
rdata$r	ENDS
;	COMDAT ??_R2CPen@@8
rdata$r	SEGMENT
??_R2CPen@@8 DD	FLAT:??_R1A@?0A@EA@CPen@@8		; CPen::`RTTI Base Class Array'
	DD	FLAT:??_R1A@?0A@EA@CGdiObject@@8
	DD	FLAT:??_R1A@?0A@EA@CObject@@8
rdata$r	ENDS
;	COMDAT ??_R3CPen@@8
rdata$r	SEGMENT
??_R3CPen@@8 DD	00H					; CPen::`RTTI Class Hierarchy Descriptor'
	DD	00H
	DD	03H
	DD	FLAT:??_R2CPen@@8
rdata$r	ENDS
;	COMDAT ??_R0?AVCPen@@@8
data$rs	SEGMENT
??_R0?AVCPen@@@8 DD FLAT:??_7type_info@@6B@		; CPen `RTTI Type Descriptor'
	DD	00H
	DB	'.?AVCPen@@', 00H
data$rs	ENDS
;	COMDAT ??_R4CPen@@6B@
rdata$r	SEGMENT
??_R4CPen@@6B@ DD 00H					; CPen::`RTTI Complete Object Locator'
	DD	00H
	DD	00H
	DD	FLAT:??_R0?AVCPen@@@8
	DD	FLAT:??_R3CPen@@8
rdata$r	ENDS
;	COMDAT ??_R1A@?0A@EA@CGdiObject@@8
rdata$r	SEGMENT
??_R1A@?0A@EA@CGdiObject@@8 DD FLAT:??_R0?AVCGdiObject@@@8 ; CGdiObject::`RTTI Base Class Descriptor at (0,-1,0,64)'
	DD	01H
	DD	00H
	DD	0ffffffffH
	DD	00H
	DD	040H
	DD	FLAT:??_R3CGdiObject@@8
rdata$r	ENDS
;	COMDAT ??_R2CGdiObject@@8
rdata$r	SEGMENT
??_R2CGdiObject@@8 DD FLAT:??_R1A@?0A@EA@CGdiObject@@8	; CGdiObject::`RTTI Base Class Array'
	DD	FLAT:??_R1A@?0A@EA@CObject@@8
rdata$r	ENDS
;	COMDAT ??_R3CGdiObject@@8
rdata$r	SEGMENT
??_R3CGdiObject@@8 DD 00H				; CGdiObject::`RTTI Class Hierarchy Descriptor'
	DD	00H
	DD	02H
	DD	FLAT:??_R2CGdiObject@@8
rdata$r	ENDS
;	COMDAT ??_R0?AVCGdiObject@@@8
data$rs	SEGMENT
??_R0?AVCGdiObject@@@8 DD FLAT:??_7type_info@@6B@	; CGdiObject `RTTI Type Descriptor'
	DD	00H
	DB	'.?AVCGdiObject@@', 00H
data$rs	ENDS
;	COMDAT ??_R4CGdiObject@@6B@
rdata$r	SEGMENT
??_R4CGdiObject@@6B@ DD 00H				; CGdiObject::`RTTI Complete Object Locator'
	DD	00H
	DD	00H
	DD	FLAT:??_R0?AVCGdiObject@@@8
	DD	FLAT:??_R3CGdiObject@@8
rdata$r	ENDS
;	COMDAT ??_R1A@?0A@EA@IUnknown@@8
rdata$r	SEGMENT
??_R1A@?0A@EA@IUnknown@@8 DD FLAT:??_R0?AUIUnknown@@@8	; IUnknown::`RTTI Base Class Descriptor at (0,-1,0,64)'
	DD	00H
	DD	00H
	DD	0ffffffffH
	DD	00H
	DD	040H
	DD	FLAT:??_R3IUnknown@@8
rdata$r	ENDS
;	COMDAT ??_R2IUnknown@@8
rdata$r	SEGMENT
??_R2IUnknown@@8 DD FLAT:??_R1A@?0A@EA@IUnknown@@8	; IUnknown::`RTTI Base Class Array'
rdata$r	ENDS
;	COMDAT ??_R3IUnknown@@8
rdata$r	SEGMENT
??_R3IUnknown@@8 DD 00H					; IUnknown::`RTTI Class Hierarchy Descriptor'
	DD	00H
	DD	01H
	DD	FLAT:??_R2IUnknown@@8
rdata$r	ENDS
;	COMDAT ??_R0?AUIUnknown@@@8
data$rs	SEGMENT
??_R0?AUIUnknown@@@8 DD FLAT:??_7type_info@@6B@		; IUnknown `RTTI Type Descriptor'
	DD	00H
	DB	'.?AUIUnknown@@', 00H
data$rs	ENDS
;	COMDAT ??_R1A@?0A@EA@CObject@@8
rdata$r	SEGMENT
??_R1A@?0A@EA@CObject@@8 DD FLAT:??_R0?AVCObject@@@8	; CObject::`RTTI Base Class Descriptor at (0,-1,0,64)'
	DD	00H
	DD	00H
	DD	0ffffffffH
	DD	00H
	DD	040H
	DD	FLAT:??_R3CObject@@8
rdata$r	ENDS
;	COMDAT ??_R2CObject@@8
rdata$r	SEGMENT
??_R2CObject@@8 DD FLAT:??_R1A@?0A@EA@CObject@@8	; CObject::`RTTI Base Class Array'
rdata$r	ENDS
;	COMDAT ??_R3CObject@@8
rdata$r	SEGMENT
??_R3CObject@@8 DD 00H					; CObject::`RTTI Class Hierarchy Descriptor'
	DD	00H
	DD	01H
	DD	FLAT:??_R2CObject@@8
rdata$r	ENDS
;	COMDAT ??_R0?AVCObject@@@8
data$rs	SEGMENT
??_R0?AVCObject@@@8 DD FLAT:??_7type_info@@6B@		; CObject `RTTI Type Descriptor'
	DD	00H
	DB	'.?AVCObject@@', 00H
data$rs	ENDS
;	COMDAT ??_C@_0N@OMEMOKLE@?$CFTs?5?$CI?$CFTs?3?$CFd?$CJ@
CONST	SEGMENT
??_C@_0N@OMEMOKLE@?$CFTs?5?$CI?$CFTs?3?$CFd?$CJ@ DB '%Ts (%Ts:%d)', 00H ; `string'
CONST	ENDS
;	COMDAT ??_C@_0BB@HBOOMJBF@?$CFTs?5?$CI?$CFTs?3?$CFd?$CJ?6?$CFTs@
CONST	SEGMENT
??_C@_0BB@HBOOMJBF@?$CFTs?5?$CI?$CFTs?3?$CFd?$CJ?6?$CFTs@ DB '%Ts (%Ts:%d'
	DB	')', 0aH, '%Ts', 00H				; `string'
CONST	ENDS
;	COMDAT ??_C@_0BP@OIEOKIDM@Exception?5thrown?5in?5destructor@
CONST	SEGMENT
??_C@_0BP@OIEOKIDM@Exception?5thrown?5in?5destructor@ DB 'Exception throw'
	DB	'n in destructor', 00H			; `string'
CONST	ENDS
;	COMDAT ??_C@_0HD@JJCHHHNK@C?3?2Program?5Files?5?$CIx86?$CJ?2Microsof@
CONST	SEGMENT
??_C@_0HD@JJCHHHNK@C?3?2Program?5Files?5?$CIx86?$CJ?2Microsof@ DB 'C:\Pro'
	DB	'gram Files (x86)\Microsoft Visual Studio\2019\Community\VC\To'
	DB	'ols\MSVC\14.29.30133\atlmfc\include\afxwin1.inl', 00H ; `string'
CONST	ENDS
;	COMDAT ??_7CPen@@6B@
CONST	SEGMENT
??_7CPen@@6B@ DD FLAT:??_R4CPen@@6B@			; CPen::`vftable'
	DD	FLAT:?GetRuntimeClass@CPen@@UBEPAUCRuntimeClass@@XZ
	DD	FLAT:??_ECPen@@UAEPAXI@Z
	DD	FLAT:?Serialize@CObject@@UAEXAAVCArchive@@@Z
	DD	FLAT:?AssertValid@CObject@@UBEXXZ
	DD	FLAT:?Dump@CObject@@UBEXAAVCDumpContext@@@Z
CONST	ENDS
;	COMDAT ??_7CGdiObject@@6B@
CONST	SEGMENT
??_7CGdiObject@@6B@ DD FLAT:??_R4CGdiObject@@6B@	; CGdiObject::`vftable'
	DD	FLAT:?GetRuntimeClass@CGdiObject@@UBEPAUCRuntimeClass@@XZ
	DD	FLAT:??_ECGdiObject@@UAEPAXI@Z
	DD	FLAT:?Serialize@CObject@@UAEXAAVCArchive@@@Z
	DD	FLAT:?AssertValid@CObject@@UBEXXZ
	DD	FLAT:?Dump@CObject@@UBEXAAVCDumpContext@@@Z
CONST	ENDS
;	COMDAT ??_R0PAVCException@@@8
data$r	SEGMENT
??_R0PAVCException@@@8 DD FLAT:??_7type_info@@6B@	; CException * `RTTI Type Descriptor'
	DD	00H
	DB	'.PAVCException@@', 00H
data$r	ENDS
;	COMDAT xdata$x
xdata$x	SEGMENT
__ehfuncinfo$??1ILPCSTR000000@@QAE@XZ DD 019930522H
	DD	00H
	DD	00H
	DD	2 DUP(00H)
	DD	2 DUP(00H)
	DD	00H
	DD	05H
xdata$x	ENDS
;	COMDAT xdata$x
xdata$x	SEGMENT
__unwindtable$??_GCTimeMarkerAddInImp@@UAEPAXI@Z DD 0ffffffffH
	DD	FLAT:___std_terminate
__ehfuncinfo$??_GCTimeMarkerAddInImp@@UAEPAXI@Z DD 019930522H
	DD	01H
	DD	FLAT:__unwindtable$??_GCTimeMarkerAddInImp@@UAEPAXI@Z
	DD	2 DUP(00H)
	DD	2 DUP(00H)
	DD	00H
	DD	05H
xdata$x	ENDS
;	COMDAT xdata$x
xdata$x	SEGMENT
__unwindtable$?OnLButtonDblClk@CTimeMarkerAddInImp@@MAEHPAUHDC__@@IAAUtagPOINT@@K@Z DD 0ffffffffH
	DD	FLAT:__unwindfunclet$?OnLButtonDblClk@CTimeMarkerAddInImp@@MAEHPAUHDC__@@IAAUtagPOINT@@K@Z$0
	DD	00H
	DD	FLAT:__unwindfunclet$?OnLButtonDblClk@CTimeMarkerAddInImp@@MAEHPAUHDC__@@IAAUtagPOINT@@K@Z$1
__ehfuncinfo$?OnLButtonDblClk@CTimeMarkerAddInImp@@MAEHPAUHDC__@@IAAUtagPOINT@@K@Z DD 019930522H
	DD	02H
	DD	FLAT:__unwindtable$?OnLButtonDblClk@CTimeMarkerAddInImp@@MAEHPAUHDC__@@IAAUtagPOINT@@K@Z
	DD	2 DUP(00H)
	DD	2 DUP(00H)
	DD	00H
	DD	01H
xdata$x	ENDS
;	COMDAT xdata$x
xdata$x	SEGMENT
__unwindtable$?OnLButtonDown@CTimeMarkerAddInImp@@MAEHPAUHDC__@@IAAUtagPOINT@@K@Z DD 0ffffffffH
	DD	FLAT:__unwindfunclet$?OnLButtonDown@CTimeMarkerAddInImp@@MAEHPAUHDC__@@IAAUtagPOINT@@K@Z$0
__ehfuncinfo$?OnLButtonDown@CTimeMarkerAddInImp@@MAEHPAUHDC__@@IAAUtagPOINT@@K@Z DD 019930522H
	DD	01H
	DD	FLAT:__unwindtable$?OnLButtonDown@CTimeMarkerAddInImp@@MAEHPAUHDC__@@IAAUtagPOINT@@K@Z
	DD	2 DUP(00H)
	DD	2 DUP(00H)
	DD	00H
	DD	01H
xdata$x	ENDS
;	COMDAT xdata$x
xdata$x	SEGMENT
__catchsym$?OnDrawBeforeGraph@CTimeMarkerAddInImp@@MAEXPAUHDC__@@@Z$3 DD 00H
	DD	FLAT:??_R0PAVCTimeMarkerAddInImp@@@8
	DD	00H
	DD	FLAT:__catch$?OnDrawBeforeGraph@CTimeMarkerAddInImp@@MAEXPAUHDC__@@@Z$0
__tryblocktable$?OnDrawBeforeGraph@CTimeMarkerAddInImp@@MAEXPAUHDC__@@@Z DD 00H
	DD	01H
	DD	02H
	DD	01H
	DD	FLAT:__catchsym$?OnDrawBeforeGraph@CTimeMarkerAddInImp@@MAEXPAUHDC__@@@Z$3
__unwindtable$?OnDrawBeforeGraph@CTimeMarkerAddInImp@@MAEXPAUHDC__@@@Z DD 0ffffffffH
	DD	00H
	DD	00H
	DD	FLAT:__unwindfunclet$?OnDrawBeforeGraph@CTimeMarkerAddInImp@@MAEXPAUHDC__@@@Z$2
	DD	0ffffffffH
	DD	00H
__ehfuncinfo$?OnDrawBeforeGraph@CTimeMarkerAddInImp@@MAEXPAUHDC__@@@Z DD 019930522H
	DD	03H
	DD	FLAT:__unwindtable$?OnDrawBeforeGraph@CTimeMarkerAddInImp@@MAEXPAUHDC__@@@Z
	DD	01H
	DD	FLAT:__tryblocktable$?OnDrawBeforeGraph@CTimeMarkerAddInImp@@MAEXPAUHDC__@@@Z
	DD	2 DUP(00H)
	DD	00H
	DD	01H
xdata$x	ENDS
;	COMDAT xdata$x
xdata$x	SEGMENT
__unwindtable$?ClearTimeMark@CTimeMarkerAddInImp@@IAEHVCPoint@@@Z DD 0ffffffffH
	DD	FLAT:__unwindfunclet$?ClearTimeMark@CTimeMarkerAddInImp@@IAEHVCPoint@@@Z$0
__ehfuncinfo$?ClearTimeMark@CTimeMarkerAddInImp@@IAEHVCPoint@@@Z DD 019930522H
	DD	01H
	DD	FLAT:__unwindtable$?ClearTimeMark@CTimeMarkerAddInImp@@IAEHVCPoint@@@Z
	DD	2 DUP(00H)
	DD	2 DUP(00H)
	DD	00H
	DD	01H
xdata$x	ENDS
;	COMDAT xdata$x
xdata$x	SEGMENT
__catchsym$?GetMarkTimeInString@CTimeMarkerAddInImp@@IAEHVCPoint@@AAV?$CStringT@DV?$StrTraitMFC_DLL@DV?$ChTraitsCRT@D@ATL@@@@@ATL@@@Z$9 DD 00H
	DD	FLAT:??_R0PAVCTimeMarkerAddInImp@@@8
	DD	00H
	DD	FLAT:__catch$?GetMarkTimeInString@CTimeMarkerAddInImp@@IAEHVCPoint@@AAV?$CStringT@DV?$StrTraitMFC_DLL@DV?$ChTraitsCRT@D@ATL@@@@@ATL@@@Z$0
__tryblocktable$?GetMarkTimeInString@CTimeMarkerAddInImp@@IAEHVCPoint@@AAV?$CStringT@DV?$StrTraitMFC_DLL@DV?$ChTraitsCRT@D@ATL@@@@@ATL@@@Z DD 00H
	DD	07H
	DD	08H
	DD	01H
	DD	FLAT:__catchsym$?GetMarkTimeInString@CTimeMarkerAddInImp@@IAEHVCPoint@@AAV?$CStringT@DV?$StrTraitMFC_DLL@DV?$ChTraitsCRT@D@ATL@@@@@ATL@@@Z$9
__ehfuncinfo$?GetMarkTimeInString@CTimeMarkerAddInImp@@IAEHVCPoint@@AAV?$CStringT@DV?$StrTraitMFC_DLL@DV?$ChTraitsCRT@D@ATL@@@@@ATL@@@Z DD 019930522H
	DD	09H
	DD	FLAT:__unwindtable$?GetMarkTimeInString@CTimeMarkerAddInImp@@IAEHVCPoint@@AAV?$CStringT@DV?$StrTraitMFC_DLL@DV?$ChTraitsCRT@D@ATL@@@@@ATL@@@Z
	DD	01H
	DD	FLAT:__tryblocktable$?GetMarkTimeInString@CTimeMarkerAddInImp@@IAEHVCPoint@@AAV?$CStringT@DV?$StrTraitMFC_DLL@DV?$ChTraitsCRT@D@ATL@@@@@ATL@@@Z
	DD	2 DUP(00H)
	DD	00H
	DD	01H
__unwindtable$?GetMarkTimeInString@CTimeMarkerAddInImp@@IAEHVCPoint@@AAV?$CStringT@DV?$StrTraitMFC_DLL@DV?$ChTraitsCRT@D@ATL@@@@@ATL@@@Z DD 0ffffffffH
	DD	00H
	DD	00H
	DD	FLAT:__unwindfunclet$?GetMarkTimeInString@CTimeMarkerAddInImp@@IAEHVCPoint@@AAV?$CStringT@DV?$StrTraitMFC_DLL@DV?$ChTraitsCRT@D@ATL@@@@@ATL@@@Z$2
	DD	01H
	DD	FLAT:__unwindfunclet$?GetMarkTimeInString@CTimeMarkerAddInImp@@IAEHVCPoint@@AAV?$CStringT@DV?$StrTraitMFC_DLL@DV?$ChTraitsCRT@D@ATL@@@@@ATL@@@Z$3
	DD	02H
	DD	FLAT:__unwindfunclet$?GetMarkTimeInString@CTimeMarkerAddInImp@@IAEHVCPoint@@AAV?$CStringT@DV?$StrTraitMFC_DLL@DV?$ChTraitsCRT@D@ATL@@@@@ATL@@@Z$4
	DD	02H
	DD	FLAT:__unwindfunclet$?GetMarkTimeInString@CTimeMarkerAddInImp@@IAEHVCPoint@@AAV?$CStringT@DV?$StrTraitMFC_DLL@DV?$ChTraitsCRT@D@ATL@@@@@ATL@@@Z$5
	DD	02H
	DD	FLAT:__unwindfunclet$?GetMarkTimeInString@CTimeMarkerAddInImp@@IAEHVCPoint@@AAV?$CStringT@DV?$StrTraitMFC_DLL@DV?$ChTraitsCRT@D@ATL@@@@@ATL@@@Z$6
	DD	02H
	DD	FLAT:__unwindfunclet$?GetMarkTimeInString@CTimeMarkerAddInImp@@IAEHVCPoint@@AAV?$CStringT@DV?$StrTraitMFC_DLL@DV?$ChTraitsCRT@D@ATL@@@@@ATL@@@Z$7
	DD	02H
	DD	FLAT:__unwindfunclet$?GetMarkTimeInString@CTimeMarkerAddInImp@@IAEHVCPoint@@AAV?$CStringT@DV?$StrTraitMFC_DLL@DV?$ChTraitsCRT@D@ATL@@@@@ATL@@@Z$8
	DD	0ffffffffH
	DD	00H
xdata$x	ENDS
;	COMDAT xdata$x
xdata$x	SEGMENT
__catchsym$?GetTimeValue@CTimeMarkerAddInImp@@IAE_JPBDAAH@Z$14 DD 00H
	DD	FLAT:??_R0PAVCTimeMarkerAddInImp@@@8
	DD	00H
	DD	FLAT:__catch$?GetTimeValue@CTimeMarkerAddInImp@@IAE_JPBDAAH@Z$0
__tryblocktable$?GetTimeValue@CTimeMarkerAddInImp@@IAE_JPBDAAH@Z DD 02H
	DD	0cH
	DD	0dH
	DD	01H
	DD	FLAT:__catchsym$?GetTimeValue@CTimeMarkerAddInImp@@IAE_JPBDAAH@Z$14
__ehfuncinfo$?GetTimeValue@CTimeMarkerAddInImp@@IAE_JPBDAAH@Z DD 019930522H
	DD	0eH
	DD	FLAT:__unwindtable$?GetTimeValue@CTimeMarkerAddInImp@@IAE_JPBDAAH@Z
	DD	01H
	DD	FLAT:__tryblocktable$?GetTimeValue@CTimeMarkerAddInImp@@IAE_JPBDAAH@Z
	DD	2 DUP(00H)
	DD	00H
	DD	01H
__unwindtable$?GetTimeValue@CTimeMarkerAddInImp@@IAE_JPBDAAH@Z DD 0ffffffffH
	DD	FLAT:__unwindfunclet$?GetTimeValue@CTimeMarkerAddInImp@@IAE_JPBDAAH@Z$2
	DD	00H
	DD	FLAT:__unwindfunclet$?GetTimeValue@CTimeMarkerAddInImp@@IAE_JPBDAAH@Z$3
	DD	00H
	DD	00H
	DD	02H
	DD	FLAT:__unwindfunclet$?GetTimeValue@CTimeMarkerAddInImp@@IAE_JPBDAAH@Z$4
	DD	03H
	DD	FLAT:__unwindfunclet$?GetTimeValue@CTimeMarkerAddInImp@@IAE_JPBDAAH@Z$5
	DD	04H
	DD	FLAT:__unwindfunclet$?GetTimeValue@CTimeMarkerAddInImp@@IAE_JPBDAAH@Z$6
	DD	04H
	DD	FLAT:__unwindfunclet$?GetTimeValue@CTimeMarkerAddInImp@@IAE_JPBDAAH@Z$7
	DD	04H
	DD	FLAT:__unwindfunclet$?GetTimeValue@CTimeMarkerAddInImp@@IAE_JPBDAAH@Z$8
	DD	04H
	DD	FLAT:__unwindfunclet$?GetTimeValue@CTimeMarkerAddInImp@@IAE_JPBDAAH@Z$9
	DD	04H
	DD	FLAT:__unwindfunclet$?GetTimeValue@CTimeMarkerAddInImp@@IAE_JPBDAAH@Z$10
	DD	04H
	DD	FLAT:__unwindfunclet$?GetTimeValue@CTimeMarkerAddInImp@@IAE_JPBDAAH@Z$11
	DD	04H
	DD	FLAT:__unwindfunclet$?GetTimeValue@CTimeMarkerAddInImp@@IAE_JPBDAAH@Z$12
	DD	02H
	DD	FLAT:___std_terminate
	DD	00H
	DD	00H
xdata$x	ENDS
;	COMDAT xdata$x
xdata$x	SEGMENT
__unwindtable$?SetTimeMarkPoint@CTimeMarkerAddInImp@@IAEXVCPoint@@@Z DD 0ffffffffH
	DD	FLAT:__unwindfunclet$?SetTimeMarkPoint@CTimeMarkerAddInImp@@IAEXVCPoint@@@Z$0
	DD	00H
	DD	FLAT:__unwindfunclet$?SetTimeMarkPoint@CTimeMarkerAddInImp@@IAEXVCPoint@@@Z$1
__ehfuncinfo$?SetTimeMarkPoint@CTimeMarkerAddInImp@@IAEXVCPoint@@@Z DD 019930522H
	DD	02H
	DD	FLAT:__unwindtable$?SetTimeMarkPoint@CTimeMarkerAddInImp@@IAEXVCPoint@@@Z
	DD	2 DUP(00H)
	DD	2 DUP(00H)
	DD	00H
	DD	01H
xdata$x	ENDS
;	COMDAT xdata$x
xdata$x	SEGMENT
__ehfuncinfo$??1CTimeMarkerAddInImp@@UAE@XZ DD 019930522H
	DD	00H
	DD	00H
	DD	2 DUP(00H)
	DD	2 DUP(00H)
	DD	00H
	DD	05H
xdata$x	ENDS
;	COMDAT xdata$x
xdata$x	SEGMENT
__unwindtable$??0CTimeMarkerAddInImp@@QAE@PAUIChartOCX000000@@PAUIAddInDllBase@@@Z DD 0ffffffffH
	DD	FLAT:__unwindfunclet$??0CTimeMarkerAddInImp@@QAE@PAUIChartOCX000000@@PAUIAddInDllBase@@@Z$0
	DD	00H
	DD	FLAT:__unwindfunclet$??0CTimeMarkerAddInImp@@QAE@PAUIChartOCX000000@@PAUIAddInDllBase@@@Z$1
	DD	01H
	DD	FLAT:__unwindfunclet$??0CTimeMarkerAddInImp@@QAE@PAUIChartOCX000000@@PAUIAddInDllBase@@@Z$2
__ehfuncinfo$??0CTimeMarkerAddInImp@@QAE@PAUIChartOCX000000@@PAUIAddInDllBase@@@Z DD 019930522H
	DD	03H
	DD	FLAT:__unwindtable$??0CTimeMarkerAddInImp@@QAE@PAUIChartOCX000000@@PAUIAddInDllBase@@@Z
	DD	2 DUP(00H)
	DD	2 DUP(00H)
	DD	00H
	DD	01H
xdata$x	ENDS
;	COMDAT xdata$x
xdata$x	SEGMENT
__catchsym$??1CGdiObject@@UAE@XZ$3 DD 00H
	DD	FLAT:??_R0PAVCException@@@8
	DD	0fffffde4H
	DD	FLAT:__catch$??1CGdiObject@@UAE@XZ$0
__tryblocktable$??1CGdiObject@@UAE@XZ DD 00H
	DD	00H
	DD	02H
	DD	01H
	DD	FLAT:__catchsym$??1CGdiObject@@UAE@XZ$3
__unwindtable$??1CGdiObject@@UAE@XZ DD 0ffffffffH
	DD	00H
	DD	0ffffffffH
	DD	00H
	DD	01H
	DD	FLAT:__unwindfunclet$??1CGdiObject@@UAE@XZ$2
__ehfuncinfo$??1CGdiObject@@UAE@XZ DD 019930522H
	DD	03H
	DD	FLAT:__unwindtable$??1CGdiObject@@UAE@XZ
	DD	01H
	DD	FLAT:__tryblocktable$??1CGdiObject@@UAE@XZ
	DD	2 DUP(00H)
	DD	00H
	DD	05H
xdata$x	ENDS
; Function compile flags: /Odsp
;	COMDAT ??_ECTimeMarkerAddInImp@@W7AEPAXI@Z
_TEXT	SEGMENT
??_ECTimeMarkerAddInImp@@W7AEPAXI@Z PROC		; [thunk]:CTimeMarkerAddInImp::`vector deleting destructor', COMDAT
  00000	83 e9 08	 sub	 ecx, 8
  00003	e9 00 00 00 00	 jmp	 ??_ECTimeMarkerAddInImp@@UAEPAXI@Z
??_ECTimeMarkerAddInImp@@W7AEPAXI@Z ENDP		; [thunk]:CTimeMarkerAddInImp::`vector deleting destructor'
_TEXT	ENDS
; Function compile flags: /Odsp
;	COMDAT ?Release@CChartAddInBase000000@@O7AGKXZ
_TEXT	SEGMENT
?Release@CChartAddInBase000000@@O7AGKXZ PROC		; [thunk]:CChartAddInBase000000::Release`adjustor{8}', COMDAT
  00000	83 6c 24 04 08	 sub	 DWORD PTR [esp+4], 8
  00005	e9 00 00 00 00	 jmp	 ?Release@CChartAddInBase000000@@MAGKXZ ; CChartAddInBase000000::Release
?Release@CChartAddInBase000000@@O7AGKXZ ENDP		; [thunk]:CChartAddInBase000000::Release`adjustor{8}'
_TEXT	ENDS
; Function compile flags: /Odsp
;	COMDAT ?AddRef@CChartAddInBase000000@@O7AGKXZ
_TEXT	SEGMENT
?AddRef@CChartAddInBase000000@@O7AGKXZ PROC		; [thunk]:CChartAddInBase000000::AddRef`adjustor{8}', COMDAT
  00000	83 6c 24 04 08	 sub	 DWORD PTR [esp+4], 8
  00005	e9 00 00 00 00	 jmp	 ?AddRef@CChartAddInBase000000@@MAGKXZ ; CChartAddInBase000000::AddRef
?AddRef@CChartAddInBase000000@@O7AGKXZ ENDP		; [thunk]:CChartAddInBase000000::AddRef`adjustor{8}'
_TEXT	ENDS
; Function compile flags: /Odsp
;	COMDAT ?QueryInterface@CChartAddInBase000000@@O7AGJABU_GUID@@PAPAX@Z
_TEXT	SEGMENT
?QueryInterface@CChartAddInBase000000@@O7AGJABU_GUID@@PAPAX@Z PROC ; [thunk]:CChartAddInBase000000::QueryInterface`adjustor{8}', COMDAT
  00000	83 6c 24 04 08	 sub	 DWORD PTR [esp+4], 8
  00005	e9 00 00 00 00	 jmp	 ?QueryInterface@CChartAddInBase000000@@MAGJABU_GUID@@PAPAX@Z ; CChartAddInBase000000::QueryInterface
?QueryInterface@CChartAddInBase000000@@O7AGJABU_GUID@@PAPAX@Z ENDP ; [thunk]:CChartAddInBase000000::QueryInterface`adjustor{8}'
_TEXT	ENDS
; Function compile flags: /Ogtp
;	COMDAT ??__F?m_strAddInItemName@CTimeMarkerAddInImp@@2V?$CStringT@DV?$StrTraitMFC_DLL@DV?$ChTraitsCRT@D@ATL@@@@@ATL@@A@@YAXXZ
text$yd	SEGMENT
??__F?m_strAddInItemName@CTimeMarkerAddInImp@@2V?$CStringT@DV?$StrTraitMFC_DLL@DV?$ChTraitsCRT@D@ATL@@@@@ATL@@A@@YAXXZ PROC ; `dynamic atexit destructor for 'CTimeMarkerAddInImp::m_strAddInItemName'', COMDAT
  00000	b9 00 00 00 00	 mov	 ecx, OFFSET ?m_strAddInItemName@CTimeMarkerAddInImp@@2V?$CStringT@DV?$StrTraitMFC_DLL@DV?$ChTraitsCRT@D@ATL@@@@@ATL@@A ; CTimeMarkerAddInImp::m_strAddInItemName
  00005	ff 25 00 00 00
	00		 jmp	 DWORD PTR __imp_??1?$CStringT@DV?$StrTraitMFC_DLL@DV?$ChTraitsCRT@D@ATL@@@@@ATL@@QAE@XZ
??__F?m_strAddInItemName@CTimeMarkerAddInImp@@2V?$CStringT@DV?$StrTraitMFC_DLL@DV?$ChTraitsCRT@D@ATL@@@@@ATL@@A@@YAXXZ ENDP ; `dynamic atexit destructor for 'CTimeMarkerAddInImp::m_strAddInItemName''
text$yd	ENDS
; Function compile flags: /Ogtp
; File D:\git\src\IBK\IBK_DRFN\ProjSrc\SrcChartEx\ChartOCX\AddInManager\ChartCommonAddIn\TimeMarkerAddInImp.cpp
;	COMDAT ??__E?m_strAddInItemName@CTimeMarkerAddInImp@@2V?$CStringT@DV?$StrTraitMFC_DLL@DV?$ChTraitsCRT@D@ATL@@@@@ATL@@A@@YAXXZ
text$di	SEGMENT
??__E?m_strAddInItemName@CTimeMarkerAddInImp@@2V?$CStringT@DV?$StrTraitMFC_DLL@DV?$ChTraitsCRT@D@ATL@@@@@ATL@@A@@YAXXZ PROC ; `dynamic initializer for 'CTimeMarkerAddInImp::m_strAddInItemName'', COMDAT

; 57   : CString CTimeMarkerAddInImp::m_strAddInItemName = "TIME_MARKER";

  00000	68 00 00 00 00	 push	 OFFSET ??_C@_0M@HENHKKKB@TIME_MARKER@
  00005	b9 00 00 00 00	 mov	 ecx, OFFSET ?m_strAddInItemName@CTimeMarkerAddInImp@@2V?$CStringT@DV?$StrTraitMFC_DLL@DV?$ChTraitsCRT@D@ATL@@@@@ATL@@A ; CTimeMarkerAddInImp::m_strAddInItemName
  0000a	ff 15 00 00 00
	00		 call	 DWORD PTR __imp_??0?$CStringT@DV?$StrTraitMFC_DLL@DV?$ChTraitsCRT@D@ATL@@@@@ATL@@QAE@PBD@Z
  00010	68 00 00 00 00	 push	 OFFSET ??__F?m_strAddInItemName@CTimeMarkerAddInImp@@2V?$CStringT@DV?$StrTraitMFC_DLL@DV?$ChTraitsCRT@D@ATL@@@@@ATL@@A@@YAXXZ ; `dynamic atexit destructor for 'CTimeMarkerAddInImp::m_strAddInItemName''
  00015	e8 00 00 00 00	 call	 _atexit
  0001a	59		 pop	 ecx
  0001b	c3		 ret	 0
??__E?m_strAddInItemName@CTimeMarkerAddInImp@@2V?$CStringT@DV?$StrTraitMFC_DLL@DV?$ChTraitsCRT@D@ATL@@@@@ATL@@A@@YAXXZ ENDP ; `dynamic initializer for 'CTimeMarkerAddInImp::m_strAddInItemName''
text$di	ENDS
; Function compile flags: /Ogtp
; File D:\git\src\IBK\IBK_DRFN\ProjSrc\SrcChartEx\ChartOCX\AddInManager\Include_Addin\I000000\_IString.h
;	COMDAT ??1ILPCSTR000000@@QAE@XZ
_TEXT	SEGMENT
__$EHRec$ = -12						; size = 12
??1ILPCSTR000000@@QAE@XZ PROC				; ILPCSTR000000::~ILPCSTR000000, COMDAT
; _this$ = ecx

; 44   : 	{

  00000	55		 push	 ebp
  00001	8b ec		 mov	 ebp, esp
  00003	6a ff		 push	 -1
  00005	68 00 00 00 00	 push	 __ehhandler$??1ILPCSTR000000@@QAE@XZ
  0000a	64 a1 00 00 00
	00		 mov	 eax, DWORD PTR fs:0
  00010	50		 push	 eax
  00011	56		 push	 esi
  00012	a1 00 00 00 00	 mov	 eax, DWORD PTR ___security_cookie
  00017	33 c5		 xor	 eax, ebp
  00019	50		 push	 eax
  0001a	8d 45 f4	 lea	 eax, DWORD PTR __$EHRec$[ebp]
  0001d	64 a3 00 00 00
	00		 mov	 DWORD PTR fs:0, eax
  00023	8b f1		 mov	 esi, ecx

; 45   : 		if( m_pIStrData)

  00025	8b 4e 04	 mov	 ecx, DWORD PTR [esi+4]
  00028	85 c9		 test	 ecx, ecx
  0002a	74 13		 je	 SHORT $LN2@ILPCSTR000

; 46   : 		{
; 47   : 			m_pIStrData->Release();

  0002c	8b 01		 mov	 eax, DWORD PTR [ecx]
  0002e	51		 push	 ecx
  0002f	ff 50 08	 call	 DWORD PTR [eax+8]

; 48   : 			m_pIStrData = NULL;

  00032	c7 46 04 00 00
	00 00		 mov	 DWORD PTR [esi+4], 0

; 49   : 			m_szData = NULL;

  00039	c7 06 00 00 00
	00		 mov	 DWORD PTR [esi], 0
$LN2@ILPCSTR000:

; 50   : 		}
; 51   : 	}

  0003f	8b 4d f4	 mov	 ecx, DWORD PTR __$EHRec$[ebp]
  00042	64 89 0d 00 00
	00 00		 mov	 DWORD PTR fs:0, ecx
  00049	59		 pop	 ecx
  0004a	5e		 pop	 esi
  0004b	8b e5		 mov	 esp, ebp
  0004d	5d		 pop	 ebp
  0004e	c3		 ret	 0
  0004f	cc		 int	 3
  00050	cc		 int	 3
  00051	cc		 int	 3
  00052	cc		 int	 3
  00053	cc		 int	 3
_TEXT	ENDS
;	COMDAT text$x
text$x	SEGMENT
__ehhandler$??1ILPCSTR000000@@QAE@XZ:
  00000	90		 npad	 1
  00001	90		 npad	 1
  00002	8b 54 24 08	 mov	 edx, DWORD PTR [esp+8]
  00006	8d 42 0c	 lea	 eax, DWORD PTR [edx+12]
  00009	8b 4a f8	 mov	 ecx, DWORD PTR [edx-8]
  0000c	33 c8		 xor	 ecx, eax
  0000e	e8 00 00 00 00	 call	 @__security_check_cookie@4
  00013	b8 00 00 00 00	 mov	 eax, OFFSET __ehfuncinfo$??1ILPCSTR000000@@QAE@XZ
  00018	e9 00 00 00 00	 jmp	 ___CxxFrameHandler3
text$x	ENDS
??1ILPCSTR000000@@QAE@XZ ENDP				; ILPCSTR000000::~ILPCSTR000000
; Function compile flags: /Ogtp
; File D:\git\src\IBK\IBK_DRFN\ProjSrc\SrcChartEx\ChartOCX\AddInManager\ChartCommonAddIn\TimeMarkerAddInImp.cpp
; File C:\Program Files (x86)\Microsoft Visual Studio\2019\Community\VC\Tools\MSVC\14.29.30133\atlmfc\include\afxwin1.inl
; File D:\git\src\IBK\IBK_DRFN\ProjSrc\SrcChartEx\ChartOCX\AddInManager\ChartCommonAddIn\TimeMarkerAddInImp.cpp
; File C:\Program Files (x86)\Microsoft Visual Studio\2019\Community\VC\Tools\MSVC\14.29.30133\atlmfc\include\afx.inl
;	COMDAT ??_GCTimeMarkerAddInImp@@UAEPAXI@Z
_TEXT	SEGMENT
__$EHRec$ = -12						; size = 12
___flags$ = 8						; size = 4
??_GCTimeMarkerAddInImp@@UAEPAXI@Z PROC			; CTimeMarkerAddInImp::`scalar deleting destructor', COMDAT
; _this$ = ecx
  00000	55		 push	 ebp
  00001	8b ec		 mov	 ebp, esp
  00003	6a ff		 push	 -1
  00005	68 00 00 00 00	 push	 __ehhandler$??_GCTimeMarkerAddInImp@@UAEPAXI@Z
  0000a	64 a1 00 00 00
	00		 mov	 eax, DWORD PTR fs:0
  00010	50		 push	 eax
  00011	56		 push	 esi
  00012	57		 push	 edi
  00013	a1 00 00 00 00	 mov	 eax, DWORD PTR ___security_cookie
  00018	33 c5		 xor	 eax, ebp
  0001a	50		 push	 eax
  0001b	8d 45 f4	 lea	 eax, DWORD PTR __$EHRec$[ebp]
  0001e	64 a3 00 00 00
	00		 mov	 DWORD PTR fs:0, eax
  00024	8b f9		 mov	 edi, ecx
; File D:\git\src\IBK\IBK_DRFN\ProjSrc\SrcChartEx\ChartOCX\AddInManager\ChartCommonAddIn\TimeMarkerAddInImp.cpp

; 53   : 	m_pnPen.DeleteObject();

  00026	8d 4f 48	 lea	 ecx, DWORD PTR [edi+72]
  00029	c7 45 fc 00 00
	00 00		 mov	 DWORD PTR __$EHRec$[ebp+8], 0
  00030	c7 07 00 00 00
	00		 mov	 DWORD PTR [edi], OFFSET ??_7CTimeMarkerAddInImp@@6BCIWUnknown@@@
  00036	c7 47 08 00 00
	00 00		 mov	 DWORD PTR [edi+8], OFFSET ??_7CTimeMarkerAddInImp@@6BIChartAddIn000000@@@
  0003d	e8 00 00 00 00	 call	 ?DeleteObject@CGdiObject@@QAEHXZ ; CGdiObject::DeleteObject

; 54   : }

  00042	8d 4f 50	 lea	 ecx, DWORD PTR [edi+80]
  00045	ff 15 00 00 00
	00		 call	 DWORD PTR __imp_??1?$CStringT@DV?$StrTraitMFC_DLL@DV?$ChTraitsCRT@D@ATL@@@@@ATL@@QAE@XZ
; File C:\Program Files (x86)\Microsoft Visual Studio\2019\Community\VC\Tools\MSVC\14.29.30133\atlmfc\include\afxwin1.inl

; 106  : 	{ }

  0004b	8d 4f 48	 lea	 ecx, DWORD PTR [edi+72]
  0004e	c7 47 48 00 00
	00 00		 mov	 DWORD PTR [edi+72], OFFSET ??_7CPen@@6B@
  00055	e8 00 00 00 00	 call	 ??1CGdiObject@@UAE@XZ	; CGdiObject::~CGdiObject
; File D:\git\src\IBK\IBK_DRFN\ProjSrc\SrcChartEx\ChartOCX\AddInManager\ChartCommonAddIn\TimeMarkerAddInImp.cpp

; 54   : }

  0005a	8b cf		 mov	 ecx, edi
  0005c	e8 00 00 00 00	 call	 ??1CChartAddInBase000000@@MAE@XZ ; CChartAddInBase000000::~CChartAddInBase000000
  00061	8b 45 08	 mov	 eax, DWORD PTR ___flags$[ebp]
  00064	a8 01		 test	 al, 1
  00066	74 1a		 je	 SHORT $LN15@scalar
  00068	a8 04		 test	 al, 4
  0006a	75 0b		 jne	 SHORT $LN3@scalar
; File C:\Program Files (x86)\Microsoft Visual Studio\2019\Community\VC\Tools\MSVC\14.29.30133\atlmfc\include\afx.inl

; 112  : 	{ ::operator delete(p); }

  0006c	57		 push	 edi
  0006d	e8 00 00 00 00	 call	 ??3@YAXPAX@Z		; operator delete
  00072	83 c4 04	 add	 esp, 4
  00075	eb 0b		 jmp	 SHORT $LN15@scalar
$LN3@scalar:
  00077	6a 70		 push	 112			; 00000070H
  00079	57		 push	 edi
  0007a	e8 00 00 00 00	 call	 ?__global_delete@@YAXPAXI@Z ; __global_delete
  0007f	83 c4 08	 add	 esp, 8
$LN15@scalar:
  00082	8b c7		 mov	 eax, edi
  00084	8b 4d f4	 mov	 ecx, DWORD PTR __$EHRec$[ebp]
  00087	64 89 0d 00 00
	00 00		 mov	 DWORD PTR fs:0, ecx
  0008e	59		 pop	 ecx
  0008f	5f		 pop	 edi
  00090	5e		 pop	 esi
  00091	8b e5		 mov	 esp, ebp
  00093	5d		 pop	 ebp
  00094	c2 04 00	 ret	 4
  00097	cc		 int	 3
  00098	cc		 int	 3
  00099	cc		 int	 3
  0009a	cc		 int	 3
  0009b	cc		 int	 3
_TEXT	ENDS
;	COMDAT text$x
text$x	SEGMENT
__ehhandler$??_GCTimeMarkerAddInImp@@UAEPAXI@Z:
  00000	90		 npad	 1
  00001	90		 npad	 1
  00002	8b 54 24 08	 mov	 edx, DWORD PTR [esp+8]
  00006	8d 42 0c	 lea	 eax, DWORD PTR [edx+12]
  00009	8b 4a f4	 mov	 ecx, DWORD PTR [edx-12]
  0000c	33 c8		 xor	 ecx, eax
  0000e	e8 00 00 00 00	 call	 @__security_check_cookie@4
  00013	b8 00 00 00 00	 mov	 eax, OFFSET __ehfuncinfo$??_GCTimeMarkerAddInImp@@UAEPAXI@Z
  00018	e9 00 00 00 00	 jmp	 ___CxxFrameHandler3
text$x	ENDS
??_GCTimeMarkerAddInImp@@UAEPAXI@Z ENDP			; CTimeMarkerAddInImp::`scalar deleting destructor'
; Function compile flags: /Ogtp
; File D:\git\src\IBK\IBK_DRFN\ProjSrc\SrcChartEx\ChartOCX\AddInManager\ChartCommonAddIn\TimeMarkerAddInImp.cpp
; File C:\Program Files (x86)\Microsoft Visual Studio\2019\Community\VC\Tools\MSVC\14.29.30133\atlmfc\include\atltypes.h
; File D:\git\src\IBK\IBK_DRFN\ProjSrc\SrcChartEx\ChartOCX\AddInManager\ChartCommonAddIn\TimeMarkerAddInImp.cpp
; File C:\Program Files (x86)\Microsoft Visual Studio\2019\Community\VC\Tools\MSVC\14.29.30133\atlmfc\include\atltypes.h
; File D:\git\src\IBK\IBK_DRFN\ProjSrc\SrcChartEx\ChartOCX\AddInManager\ChartCommonAddIn\TimeMarkerAddInImp.cpp
; File C:\Program Files (x86)\Microsoft Visual Studio\2019\Community\VC\Tools\MSVC\14.29.30133\atlmfc\include\atlsimpstr.h
; File D:\git\src\IBK\IBK_DRFN\ProjSrc\SrcChartEx\ChartOCX\AddInManager\ChartCommonAddIn\TimeMarkerAddInImp.cpp
;	COMDAT ?OnLButtonDblClk@CTimeMarkerAddInImp@@MAEHPAUHDC__@@IAAUtagPOINT@@K@Z
_TEXT	SEGMENT
$T2 = -16						; size = 4
__$EHRec$ = -12						; size = 12
_p_hDC$ = 8						; size = 4
_nFlags$ = 12						; size = 4
_strMarkTime$3 = 16					; size = 4
_point$ = 16						; size = 4
_p_dwMouseActionID$ = 20				; size = 4
?OnLButtonDblClk@CTimeMarkerAddInImp@@MAEHPAUHDC__@@IAAUtagPOINT@@K@Z PROC ; CTimeMarkerAddInImp::OnLButtonDblClk, COMDAT
; _this$ = ecx

; 732  : {

  00000	55		 push	 ebp
  00001	8b ec		 mov	 ebp, esp
  00003	6a ff		 push	 -1
  00005	68 00 00 00 00	 push	 __ehhandler$?OnLButtonDblClk@CTimeMarkerAddInImp@@MAEHPAUHDC__@@IAAUtagPOINT@@K@Z
  0000a	64 a1 00 00 00
	00		 mov	 eax, DWORD PTR fs:0
  00010	50		 push	 eax
  00011	51		 push	 ecx
  00012	53		 push	 ebx
  00013	56		 push	 esi
  00014	57		 push	 edi
  00015	a1 00 00 00 00	 mov	 eax, DWORD PTR ___security_cookie
  0001a	33 c5		 xor	 eax, ebp
  0001c	50		 push	 eax
  0001d	8d 45 f4	 lea	 eax, DWORD PTR __$EHRec$[ebp]
  00020	64 a3 00 00 00
	00		 mov	 DWORD PTR fs:0, eax

; 733  : 	m_dwLButtonTime = 0;
; 734  : 
; 735  : 	// (2006/11/16 - Seung-Won, Bae) Manage the Disable Flag of TimeMark
; 736  : 	if( !m_bEnableFiringTimeShare) return FALSE;

  00026	83 79 60 00	 cmp	 DWORD PTR [ecx+96], 0
  0002a	c7 41 50 00 00
	00 00		 mov	 DWORD PTR [ecx+80], 0
  00031	75 16		 jne	 SHORT $LN2@OnLButtonD
  00033	33 c0		 xor	 eax, eax

; 741  : }

  00035	8b 4d f4	 mov	 ecx, DWORD PTR __$EHRec$[ebp]
  00038	64 89 0d 00 00
	00 00		 mov	 DWORD PTR fs:0, ecx
  0003f	59		 pop	 ecx
  00040	5f		 pop	 edi
  00041	5e		 pop	 esi
  00042	5b		 pop	 ebx
  00043	8b e5		 mov	 esp, ebp
  00045	5d		 pop	 ebp
  00046	c2 10 00	 ret	 16			; 00000010H
$LN2@OnLButtonD:
; File C:\Program Files (x86)\Microsoft Visual Studio\2019\Community\VC\Tools\MSVC\14.29.30133\atlmfc\include\atltypes.h

; 414  : 	*(POINT*)this = initPt;

  00049	8b 45 10	 mov	 eax, DWORD PTR _point$[ebp]
; File D:\git\src\IBK\IBK_DRFN\ProjSrc\SrcChartEx\ChartOCX\AddInManager\ChartCommonAddIn\TimeMarkerAddInImp.cpp

; 739  : 	SetTimeMarkPoint( point);

  0004c	8d 71 f8	 lea	 esi, DWORD PTR [ecx-8]

; 130  : 	if( m_pIChartManager->IsEmpty()) return;

  0004f	8b 4e 24	 mov	 ecx, DWORD PTR [esi+36]
; File C:\Program Files (x86)\Microsoft Visual Studio\2019\Community\VC\Tools\MSVC\14.29.30133\atlmfc\include\atltypes.h

; 414  : 	*(POINT*)this = initPt;

  00052	8b 38		 mov	 edi, DWORD PTR [eax]
  00054	8b 58 04	 mov	 ebx, DWORD PTR [eax+4]
; File D:\git\src\IBK\IBK_DRFN\ProjSrc\SrcChartEx\ChartOCX\AddInManager\ChartCommonAddIn\TimeMarkerAddInImp.cpp

; 130  : 	if( m_pIChartManager->IsEmpty()) return;

  00057	8b 01		 mov	 eax, DWORD PTR [ecx]
  00059	ff 50 2c	 call	 DWORD PTR [eax+44]
  0005c	85 c0		 test	 eax, eax
  0005e	0f 85 ad 00 00
	00		 jne	 $LN6@OnLButtonD

; 131  : 	// 4.1     .
; 132  : 	if( !m_pIChartOCX->CheckGSharedSetting( _MTEXT( C6_TIME_CHART), FALSE, FALSE, TRUE)) return;

  00064	8b 4e 0c	 mov	 ecx, DWORD PTR [esi+12]
  00067	6a 01		 push	 1
  00069	50		 push	 eax
  0006a	50		 push	 eax
  0006b	a1 54 00 00 00	 mov	 eax, DWORD PTR ?g_iMetaTable@@3VIMetaTable@@A+84
  00070	8b 11		 mov	 edx, DWORD PTR [ecx]
  00072	ff b0 94 09 00
	00		 push	 DWORD PTR [eax+2452]
  00078	ff 92 50 01 00
	00		 call	 DWORD PTR [edx+336]
  0007e	85 c0		 test	 eax, eax
  00080	0f 84 8b 00 00
	00		 je	 $LN6@OnLButtonD

; 133  : 
; 134  : 	// (2004.11.22, )     Routine ,      .
; 135  : 	CString strMarkTime;

  00086	8d 4d 10	 lea	 ecx, DWORD PTR _strMarkTime$3[ebp]
  00089	ff 15 00 00 00
	00		 call	 DWORD PTR __imp_??0?$CStringT@DV?$StrTraitMFC_DLL@DV?$ChTraitsCRT@D@ATL@@@@@ATL@@QAE@XZ

; 136  : 	if( !GetMarkTimeInString( p_ptPoint, strMarkTime)) return;

  0008f	8d 45 10	 lea	 eax, DWORD PTR _strMarkTime$3[ebp]
  00092	c7 45 fc 00 00
	00 00		 mov	 DWORD PTR __$EHRec$[ebp+8], 0
  00099	50		 push	 eax
  0009a	53		 push	 ebx
  0009b	57		 push	 edi
  0009c	8b ce		 mov	 ecx, esi
  0009e	e8 00 00 00 00	 call	 ?GetMarkTimeInString@CTimeMarkerAddInImp@@IAEHVCPoint@@AAV?$CStringT@DV?$StrTraitMFC_DLL@DV?$ChTraitsCRT@D@ATL@@@@@ATL@@@Z ; CTimeMarkerAddInImp::GetMarkTimeInString
  000a3	85 c0		 test	 eax, eax
  000a5	74 61		 je	 SHORT $LN11@OnLButtonD

; 137  : 
; 138  : 	// 5.  Chart TimeMark  .
; 139  : 	// (2004.09.14, )  OCX Invalidate  .
; 140  : 	SetTimeMarkString( strMarkTime, FALSE);

  000a7	6a 00		 push	 0
  000a9	ff 75 10	 push	 DWORD PTR _strMarkTime$3[ebp]
  000ac	8b ce		 mov	 ecx, esi
  000ae	e8 00 00 00 00	 call	 ?SetTimeMarkString@CTimeMarkerAddInImp@@IAEXPBDH@Z ; CTimeMarkerAddInImp::SetTimeMarkString
; File C:\Program Files (x86)\Microsoft Visual Studio\2019\Community\VC\Tools\MSVC\14.29.30133\atlmfc\include\atlsimpstr.h

; 519  : 		return( GetData()->nDataLength );

  000b3	8b 45 10	 mov	 eax, DWORD PTR _strMarkTime$3[ebp]
; File D:\git\src\IBK\IBK_DRFN\ProjSrc\SrcChartEx\ChartOCX\AddInManager\ChartCommonAddIn\TimeMarkerAddInImp.cpp

; 143  : 	if( strMarkTime.GetLength() == 16) strMarkTime = strMarkTime.Left( 14);

  000b6	83 78 f4 10	 cmp	 DWORD PTR [eax-12], 16	; 00000010H
  000ba	75 2d		 jne	 SHORT $LN10@OnLButtonD
  000bc	6a 0e		 push	 14			; 0000000eH
  000be	8d 45 f0	 lea	 eax, DWORD PTR $T2[ebp]
  000c1	50		 push	 eax
  000c2	8d 4d 10	 lea	 ecx, DWORD PTR _strMarkTime$3[ebp]
  000c5	ff 15 00 00 00
	00		 call	 DWORD PTR __imp_?Left@?$CStringT@DV?$StrTraitMFC_DLL@DV?$ChTraitsCRT@D@ATL@@@@@ATL@@QBE?AV12@H@Z
  000cb	50		 push	 eax
  000cc	8d 4d 10	 lea	 ecx, DWORD PTR _strMarkTime$3[ebp]
  000cf	c6 45 fc 01	 mov	 BYTE PTR __$EHRec$[ebp+8], 1
  000d3	ff 15 00 00 00
	00		 call	 DWORD PTR __imp_??4?$CStringT@DV?$StrTraitMFC_DLL@DV?$ChTraitsCRT@D@ATL@@@@@ATL@@QAEAAV01@ABV01@@Z
  000d9	8d 4d f0	 lea	 ecx, DWORD PTR $T2[ebp]
  000dc	c6 45 fc 00	 mov	 BYTE PTR __$EHRec$[ebp+8], 0
  000e0	ff 15 00 00 00
	00		 call	 DWORD PTR __imp_??1?$CStringT@DV?$StrTraitMFC_DLL@DV?$ChTraitsCRT@D@ATL@@@@@ATL@@QAE@XZ
  000e6	8b 45 10	 mov	 eax, DWORD PTR _strMarkTime$3[ebp]
$LN10@OnLButtonD:

; 144  : 
; 145  : 	// 4.     .
; 146  : 	// (2004.11.19, )         .
; 147  : 	//		, (  )    .
; 148  : 	if( m_lMarkTime) m_pIChartOCX->FireGSharedData( _MTEXT( C6_TIME_CHART), strMarkTime);

  000e9	8b 4e 40	 mov	 ecx, DWORD PTR [esi+64]
  000ec	0b 4e 44	 or	 ecx, DWORD PTR [esi+68]
  000ef	74 17		 je	 SHORT $LN11@OnLButtonD
  000f1	8b 4e 0c	 mov	 ecx, DWORD PTR [esi+12]
  000f4	50		 push	 eax
  000f5	a1 54 00 00 00	 mov	 eax, DWORD PTR ?g_iMetaTable@@3VIMetaTable@@A+84
  000fa	8b 11		 mov	 edx, DWORD PTR [ecx]
  000fc	ff b0 94 09 00
	00		 push	 DWORD PTR [eax+2452]
  00102	ff 92 54 01 00
	00		 call	 DWORD PTR [edx+340]
$LN11@OnLButtonD:

; 149  : }

  00108	8d 4d 10	 lea	 ecx, DWORD PTR _strMarkTime$3[ebp]
  0010b	ff 15 00 00 00
	00		 call	 DWORD PTR __imp_??1?$CStringT@DV?$StrTraitMFC_DLL@DV?$ChTraitsCRT@D@ATL@@@@@ATL@@QAE@XZ
$LN6@OnLButtonD:

; 740  : 	return TRUE;

  00111	b8 01 00 00 00	 mov	 eax, 1

; 741  : }

  00116	8b 4d f4	 mov	 ecx, DWORD PTR __$EHRec$[ebp]
  00119	64 89 0d 00 00
	00 00		 mov	 DWORD PTR fs:0, ecx
  00120	59		 pop	 ecx
  00121	5f		 pop	 edi
  00122	5e		 pop	 esi
  00123	5b		 pop	 ebx
  00124	8b e5		 mov	 esp, ebp
  00126	5d		 pop	 ebp
  00127	c2 10 00	 ret	 16			; 00000010H
_TEXT	ENDS
;	COMDAT text$x
text$x	SEGMENT
__unwindfunclet$?OnLButtonDblClk@CTimeMarkerAddInImp@@MAEHPAUHDC__@@IAAUtagPOINT@@K@Z$0:
  00000	8d 4d 10	 lea	 ecx, DWORD PTR _strMarkTime$3[ebp]
  00003	ff 25 00 00 00
	00		 jmp	 DWORD PTR __imp_??1?$CStringT@DV?$StrTraitMFC_DLL@DV?$ChTraitsCRT@D@ATL@@@@@ATL@@QAE@XZ
__unwindfunclet$?OnLButtonDblClk@CTimeMarkerAddInImp@@MAEHPAUHDC__@@IAAUtagPOINT@@K@Z$1:
  00009	8d 4d f0	 lea	 ecx, DWORD PTR $T2[ebp]
  0000c	ff 25 00 00 00
	00		 jmp	 DWORD PTR __imp_??1?$CStringT@DV?$StrTraitMFC_DLL@DV?$ChTraitsCRT@D@ATL@@@@@ATL@@QAE@XZ
  00012	cc		 int	 3
  00013	cc		 int	 3
  00014	cc		 int	 3
  00015	cc		 int	 3
  00016	cc		 int	 3
__ehhandler$?OnLButtonDblClk@CTimeMarkerAddInImp@@MAEHPAUHDC__@@IAAUtagPOINT@@K@Z:
  00017	90		 npad	 1
  00018	90		 npad	 1
  00019	8b 54 24 08	 mov	 edx, DWORD PTR [esp+8]
  0001d	8d 42 0c	 lea	 eax, DWORD PTR [edx+12]
  00020	8b 4a ec	 mov	 ecx, DWORD PTR [edx-20]
  00023	33 c8		 xor	 ecx, eax
  00025	e8 00 00 00 00	 call	 @__security_check_cookie@4
  0002a	b8 00 00 00 00	 mov	 eax, OFFSET __ehfuncinfo$?OnLButtonDblClk@CTimeMarkerAddInImp@@MAEHPAUHDC__@@IAAUtagPOINT@@K@Z
  0002f	e9 00 00 00 00	 jmp	 ___CxxFrameHandler3
text$x	ENDS
?OnLButtonDblClk@CTimeMarkerAddInImp@@MAEHPAUHDC__@@IAAUtagPOINT@@K@Z ENDP ; CTimeMarkerAddInImp::OnLButtonDblClk
; Function compile flags: /Ogtp
; File D:\git\src\IBK\IBK_DRFN\ProjSrc\SrcChartEx\ChartOCX\AddInManager\ChartCommonAddIn\TimeMarkerAddInImp.cpp
; File C:\Program Files (x86)\Microsoft Visual Studio\2019\Community\VC\Tools\MSVC\14.29.30133\atlmfc\include\atltypes.h
; File D:\git\src\IBK\IBK_DRFN\ProjSrc\SrcChartEx\ChartOCX\AddInManager\ChartCommonAddIn\TimeMarkerAddInImp.cpp
; File C:\Program Files (x86)\Microsoft Visual Studio\2019\Community\VC\Tools\MSVC\14.29.30133\atlmfc\include\atltypes.h
; File D:\git\src\IBK\IBK_DRFN\ProjSrc\SrcChartEx\ChartOCX\AddInManager\ChartCommonAddIn\TimeMarkerAddInImp.cpp
;	COMDAT ?OnLButtonDown@CTimeMarkerAddInImp@@MAEHPAUHDC__@@IAAUtagPOINT@@K@Z
_TEXT	SEGMENT
_dSelectedDate$2 = -20					; size = 8
__$EHRec$ = -12						; size = 12
_lPointTime$1$ = 8					; size = 4
_p_hDC$ = 8						; size = 4
_lPointTime$2$ = 12					; size = 4
$T3 = 12						; size = 4
_nFlags$ = 12						; size = 4
_strMarkTime$4 = 16					; size = 4
_point$ = 16						; size = 4
_nTimeIndex$5 = 20					; size = 4
_p_dwMouseActionID$ = 20				; size = 4
?OnLButtonDown@CTimeMarkerAddInImp@@MAEHPAUHDC__@@IAAUtagPOINT@@K@Z PROC ; CTimeMarkerAddInImp::OnLButtonDown, COMDAT
; _this$ = ecx

; 719  : {

  00000	55		 push	 ebp
  00001	8b ec		 mov	 ebp, esp
  00003	6a ff		 push	 -1
  00005	68 00 00 00 00	 push	 __ehhandler$?OnLButtonDown@CTimeMarkerAddInImp@@MAEHPAUHDC__@@IAAUtagPOINT@@K@Z
  0000a	64 a1 00 00 00
	00		 mov	 eax, DWORD PTR fs:0
  00010	50		 push	 eax
  00011	83 ec 08	 sub	 esp, 8
  00014	53		 push	 ebx
  00015	56		 push	 esi
  00016	57		 push	 edi
  00017	a1 00 00 00 00	 mov	 eax, DWORD PTR ___security_cookie
  0001c	33 c5		 xor	 eax, ebp
  0001e	50		 push	 eax
  0001f	8d 45 f4	 lea	 eax, DWORD PTR __$EHRec$[ebp]
  00022	64 a3 00 00 00
	00		 mov	 DWORD PTR fs:0, eax
  00028	8b f1		 mov	 esi, ecx

; 720  : 	DWORD dwTime = timeGetTime();

  0002a	ff 15 00 00 00
	00		 call	 DWORD PTR __imp__timeGetTime@0
  00030	8b f8		 mov	 edi, eax

; 721  : 	if( dwTime - m_dwLButtonTime < m_uDoubleClickTime && m_ptPrevious.x - point.x < 3 && m_ptPrevious.y - point.y < 3)

  00032	8b d7		 mov	 edx, edi
  00034	2b 56 50	 sub	 edx, DWORD PTR [esi+80]
  00037	3b 56 4c	 cmp	 edx, DWORD PTR [esi+76]
  0003a	8b 55 10	 mov	 edx, DWORD PTR _point$[ebp]
  0003d	73 3d		 jae	 SHORT $LN2@OnLButtonD
  0003f	8b 4e 54	 mov	 ecx, DWORD PTR [esi+84]
  00042	2b 0a		 sub	 ecx, DWORD PTR [edx]
  00044	83 f9 03	 cmp	 ecx, 3
  00047	7d 33		 jge	 SHORT $LN2@OnLButtonD
  00049	8b 46 58	 mov	 eax, DWORD PTR [esi+88]
  0004c	2b 42 04	 sub	 eax, DWORD PTR [edx+4]
  0004f	83 f8 03	 cmp	 eax, 3
  00052	7d 28		 jge	 SHORT $LN2@OnLButtonD

; 722  : 		return OnLButtonDblClk( p_hDC, nFlags, point, p_dwMouseActionID);

  00054	ff 75 14	 push	 DWORD PTR _p_dwMouseActionID$[ebp]
  00057	8b 06		 mov	 eax, DWORD PTR [esi]
  00059	8b ce		 mov	 ecx, esi
  0005b	52		 push	 edx
  0005c	ff 75 0c	 push	 DWORD PTR _nFlags$[ebp]
  0005f	ff 75 08	 push	 DWORD PTR _p_hDC$[ebp]
  00062	ff 90 10 01 00
	00		 call	 DWORD PTR [eax+272]

; 728  : }

  00068	8b 4d f4	 mov	 ecx, DWORD PTR __$EHRec$[ebp]
  0006b	64 89 0d 00 00
	00 00		 mov	 DWORD PTR fs:0, ecx
  00072	59		 pop	 ecx
  00073	5f		 pop	 edi
  00074	5e		 pop	 esi
  00075	5b		 pop	 ebx
  00076	8b e5		 mov	 esp, ebp
  00078	5d		 pop	 ebp
  00079	c2 10 00	 ret	 16			; 00000010H
$LN2@OnLButtonD:
; File C:\Program Files (x86)\Microsoft Visual Studio\2019\Community\VC\Tools\MSVC\14.29.30133\atlmfc\include\atltypes.h

; 414  : 	*(POINT*)this = initPt;

  0007c	8b 02		 mov	 eax, DWORD PTR [edx]
  0007e	8b 4a 04	 mov	 ecx, DWORD PTR [edx+4]
; File D:\git\src\IBK\IBK_DRFN\ProjSrc\SrcChartEx\ChartOCX\AddInManager\ChartCommonAddIn\TimeMarkerAddInImp.cpp

; 725  : 	m_dwLButtonTime = dwTime;

  00081	89 7e 50	 mov	 DWORD PTR [esi+80], edi

; 726  : 	// (2004.11.22, ) Mouse    ,  .
; 727  : 	return ClearTimeMark( point);

  00084	8d 7e f8	 lea	 edi, DWORD PTR [esi-8]
  00087	89 46 54	 mov	 DWORD PTR [esi+84], eax
  0008a	89 4e 58	 mov	 DWORD PTR [esi+88], ecx
; File C:\Program Files (x86)\Microsoft Visual Studio\2019\Community\VC\Tools\MSVC\14.29.30133\atlmfc\include\atltypes.h

; 414  : 	*(POINT*)this = initPt;

  0008d	8b 42 04	 mov	 eax, DWORD PTR [edx+4]
  00090	8b 1a		 mov	 ebx, DWORD PTR [edx]
  00092	89 45 0c	 mov	 DWORD PTR $T3[ebp], eax
; File D:\git\src\IBK\IBK_DRFN\ProjSrc\SrcChartEx\ChartOCX\AddInManager\ChartCommonAddIn\TimeMarkerAddInImp.cpp

; 436  : 	if( !m_lMarkTime) return FALSE;

  00095	8b 47 40	 mov	 eax, DWORD PTR [edi+64]
  00098	0b 47 44	 or	 eax, DWORD PTR [edi+68]
  0009b	0f 84 f0 00 00
	00		 je	 $LN23@OnLButtonD

; 437  : 
; 438  : 	// 1.  Mouse   .
; 439  : 	// 1.1   String .
; 440  : 	CString strMarkTime;

  000a1	8d 4d 10	 lea	 ecx, DWORD PTR _strMarkTime$4[ebp]
  000a4	ff 15 00 00 00
	00		 call	 DWORD PTR __imp_??0?$CStringT@DV?$StrTraitMFC_DLL@DV?$ChTraitsCRT@D@ATL@@@@@ATL@@QAE@XZ

; 441  : 	if( !GetMarkTimeInString( p_ptPoint, strMarkTime)) return FALSE;

  000aa	8d 45 10	 lea	 eax, DWORD PTR _strMarkTime$4[ebp]
  000ad	c7 45 fc 00 00
	00 00		 mov	 DWORD PTR __$EHRec$[ebp+8], 0
  000b4	50		 push	 eax
  000b5	ff 75 0c	 push	 DWORD PTR $T3[ebp]
  000b8	8b cf		 mov	 ecx, edi
  000ba	53		 push	 ebx
  000bb	e8 00 00 00 00	 call	 ?GetMarkTimeInString@CTimeMarkerAddInImp@@IAEHVCPoint@@AAV?$CStringT@DV?$StrTraitMFC_DLL@DV?$ChTraitsCRT@D@ATL@@@@@ATL@@@Z ; CTimeMarkerAddInImp::GetMarkTimeInString
  000c0	85 c0		 test	 eax, eax
  000c2	0f 84 c0 00 00
	00		 je	 $LN20@OnLButtonD

; 442  : 	// 1.2    .
; 443  : 	int nTimeIndex = 0;
; 444  : 	// 2011.01.06 by SYS >>  YYYY() 
; 445  : 	//long lPointTime = GetTimeValue( strMarkTime, nTimeIndex);
; 446  : 	__int64 lPointTime = GetTimeValue( strMarkTime, nTimeIndex);

  000c8	8d 45 14	 lea	 eax, DWORD PTR _nTimeIndex$5[ebp]
  000cb	c7 45 14 00 00
	00 00		 mov	 DWORD PTR _nTimeIndex$5[ebp], 0
  000d2	50		 push	 eax
  000d3	ff 75 10	 push	 DWORD PTR _strMarkTime$4[ebp]
  000d6	8b cf		 mov	 ecx, edi
  000d8	e8 00 00 00 00	 call	 ?GetTimeValue@CTimeMarkerAddInImp@@IAE_JPBDAAH@Z ; CTimeMarkerAddInImp::GetTimeValue
  000dd	8b c8		 mov	 ecx, eax
  000df	8b c2		 mov	 eax, edx
  000e1	89 4d 0c	 mov	 DWORD PTR _lPointTime$2$[ebp], ecx

; 447  : 	// 2011.01.06 by SYS <<
; 448  : 
; 449  : 	if( !lPointTime) return FALSE;

  000e4	0b c8		 or	 ecx, eax
  000e6	89 45 08	 mov	 DWORD PTR _lPointTime$1$[ebp], eax
  000e9	0f 84 99 00 00
	00		 je	 $LN20@OnLButtonD

; 450  : 
; 451  : 	// 2.       ,
; 452  : 	//		Clear .
; 453  : 	// 2.1   .
; 454  : 	// 2.1.1        (  )
; 455  : 	//		     .
; 456  : 	long lMarkTime = 0;
; 457  : 	IPacket *pIPacket = NULL;
; 458  : 	pIPacket = m_pIDefaultPacketManager->GetPacket( _MTEXT( C0_DATE_TIME));

  000ef	8b 4f 20	 mov	 ecx, DWORD PTR [edi+32]
  000f2	a1 54 00 00 00	 mov	 eax, DWORD PTR ?g_iMetaTable@@3VIMetaTable@@A+84
  000f7	8b 11		 mov	 edx, DWORD PTR [ecx]
  000f9	ff 30		 push	 DWORD PTR [eax]
  000fb	ff 52 10	 call	 DWORD PTR [edx+16]
  000fe	8b d8		 mov	 ebx, eax

; 459  : 	if( pIPacket)

  00100	85 db		 test	 ebx, ebx
  00102	0f 84 80 00 00
	00		 je	 $LN20@OnLButtonD

; 460  : 	{
; 461  : 		double dSelectedDate;
; 462  : 		if( !pIPacket->GetCurOrPrevIndexFromData( m_lMarkTime, nTimeIndex, dSelectedDate)) dSelectedDate = 0;

  00108	8b 57 44	 mov	 edx, DWORD PTR [edi+68]
  0010b	8d 45 ec	 lea	 eax, DWORD PTR _dSelectedDate$2[ebp]
  0010e	8b 4f 40	 mov	 ecx, DWORD PTR [edi+64]
  00111	8b 33		 mov	 esi, DWORD PTR [ebx]
  00113	50		 push	 eax
  00114	8d 45 14	 lea	 eax, DWORD PTR _nTimeIndex$5[ebp]
  00117	50		 push	 eax
  00118	e8 00 00 00 00	 call	 __ltod3
  0011d	83 ec 08	 sub	 esp, 8
  00120	8b cb		 mov	 ecx, ebx
  00122	f2 0f 11 04 24	 movsd	 QWORD PTR [esp], xmm0
  00127	ff 56 38	 call	 DWORD PTR [esi+56]
  0012a	85 c0		 test	 eax, eax
  0012c	75 08		 jne	 SHORT $LN13@OnLButtonD
  0012e	0f 57 c0	 xorps	 xmm0, xmm0
  00131	f2 0f 11 45 ec	 movsd	 QWORD PTR _dSelectedDate$2[ebp], xmm0
$LN13@OnLButtonD:

; 463  : 		pIPacket->Release();

  00136	8b 03		 mov	 eax, DWORD PTR [ebx]
  00138	53		 push	 ebx
  00139	ff 50 08	 call	 DWORD PTR [eax+8]

; 464  : 		lMarkTime = ( long)dSelectedDate;

  0013c	f2 0f 2c 45 ec	 cvttsd2si eax, QWORD PTR _dSelectedDate$2[ebp]

; 465  : 	}
; 466  : 	if( !lMarkTime) return FALSE;

  00141	85 c0		 test	 eax, eax
  00143	74 43		 je	 SHORT $LN20@OnLButtonD

; 467  : 	// 2.1.2     .
; 468  : 	if( lPointTime != lMarkTime) return FALSE;

  00145	99		 cdq
  00146	39 45 0c	 cmp	 DWORD PTR _lPointTime$2$[ebp], eax
  00149	75 3d		 jne	 SHORT $LN20@OnLButtonD
  0014b	39 55 08	 cmp	 DWORD PTR _lPointTime$1$[ebp], edx
  0014e	75 38		 jne	 SHORT $LN20@OnLButtonD

; 469  : 	// 2.2   Clear .
; 470  : 	ClearTimeMark();
; 471  : 	m_pIChartOCX->InvalidateControl();

  00150	8b 4f 0c	 mov	 ecx, DWORD PTR [edi+12]
  00153	c7 47 40 00 00
	00 00		 mov	 DWORD PTR [edi+64], 0
  0015a	c7 47 44 00 00
	00 00		 mov	 DWORD PTR [edi+68], 0
  00161	8b 01		 mov	 eax, DWORD PTR [ecx]
  00163	ff 50 38	 call	 DWORD PTR [eax+56]

; 472  : 	return TRUE;

  00166	8d 4d 10	 lea	 ecx, DWORD PTR _strMarkTime$4[ebp]
  00169	ff 15 00 00 00
	00		 call	 DWORD PTR __imp_??1?$CStringT@DV?$StrTraitMFC_DLL@DV?$ChTraitsCRT@D@ATL@@@@@ATL@@QAE@XZ
  0016f	b8 01 00 00 00	 mov	 eax, 1

; 728  : }

  00174	8b 4d f4	 mov	 ecx, DWORD PTR __$EHRec$[ebp]
  00177	64 89 0d 00 00
	00 00		 mov	 DWORD PTR fs:0, ecx
  0017e	59		 pop	 ecx
  0017f	5f		 pop	 edi
  00180	5e		 pop	 esi
  00181	5b		 pop	 ebx
  00182	8b e5		 mov	 esp, ebp
  00184	5d		 pop	 ebp
  00185	c2 10 00	 ret	 16			; 00000010H
$LN20@OnLButtonD:

; 466  : 	if( !lMarkTime) return FALSE;

  00188	8d 4d 10	 lea	 ecx, DWORD PTR _strMarkTime$4[ebp]
  0018b	ff 15 00 00 00
	00		 call	 DWORD PTR __imp_??1?$CStringT@DV?$StrTraitMFC_DLL@DV?$ChTraitsCRT@D@ATL@@@@@ATL@@QAE@XZ
$LN23@OnLButtonD:
  00191	33 c0		 xor	 eax, eax

; 728  : }

  00193	8b 4d f4	 mov	 ecx, DWORD PTR __$EHRec$[ebp]
  00196	64 89 0d 00 00
	00 00		 mov	 DWORD PTR fs:0, ecx
  0019d	59		 pop	 ecx
  0019e	5f		 pop	 edi
  0019f	5e		 pop	 esi
  001a0	5b		 pop	 ebx
  001a1	8b e5		 mov	 esp, ebp
  001a3	5d		 pop	 ebp
  001a4	c2 10 00	 ret	 16			; 00000010H
_TEXT	ENDS
;	COMDAT text$x
text$x	SEGMENT
__unwindfunclet$?OnLButtonDown@CTimeMarkerAddInImp@@MAEHPAUHDC__@@IAAUtagPOINT@@K@Z$0:
  00000	8d 4d 10	 lea	 ecx, DWORD PTR _strMarkTime$4[ebp]
  00003	ff 25 00 00 00
	00		 jmp	 DWORD PTR __imp_??1?$CStringT@DV?$StrTraitMFC_DLL@DV?$ChTraitsCRT@D@ATL@@@@@ATL@@QAE@XZ
  00009	cc		 int	 3
  0000a	cc		 int	 3
  0000b	cc		 int	 3
  0000c	cc		 int	 3
  0000d	cc		 int	 3
__ehhandler$?OnLButtonDown@CTimeMarkerAddInImp@@MAEHPAUHDC__@@IAAUtagPOINT@@K@Z:
  0000e	90		 npad	 1
  0000f	90		 npad	 1
  00010	8b 54 24 08	 mov	 edx, DWORD PTR [esp+8]
  00014	8d 42 0c	 lea	 eax, DWORD PTR [edx+12]
  00017	8b 4a e8	 mov	 ecx, DWORD PTR [edx-24]
  0001a	33 c8		 xor	 ecx, eax
  0001c	e8 00 00 00 00	 call	 @__security_check_cookie@4
  00021	b8 00 00 00 00	 mov	 eax, OFFSET __ehfuncinfo$?OnLButtonDown@CTimeMarkerAddInImp@@MAEHPAUHDC__@@IAAUtagPOINT@@K@Z
  00026	e9 00 00 00 00	 jmp	 ___CxxFrameHandler3
text$x	ENDS
?OnLButtonDown@CTimeMarkerAddInImp@@MAEHPAUHDC__@@IAAUtagPOINT@@K@Z ENDP ; CTimeMarkerAddInImp::OnLButtonDown
; Function compile flags: /Ogtp
; File D:\git\src\IBK\IBK_DRFN\ProjSrc\SrcChartEx\ChartOCX\AddInManager\ChartCommonAddIn\TimeMarkerAddInImp.cpp
;	COMDAT ?OnAddInToolCommand@CTimeMarkerAddInImp@@MAEHW4EAICommandType@@J@Z
_TEXT	SEGMENT
_p_eCommandID$ = 8					; size = 4
_p_lParam$ = 12						; size = 4
?OnAddInToolCommand@CTimeMarkerAddInImp@@MAEHW4EAICommandType@@J@Z PROC ; CTimeMarkerAddInImp::OnAddInToolCommand, COMDAT
; _this$ = ecx

; 696  : {

  00000	55		 push	 ebp
  00001	8b ec		 mov	 ebp, esp

; 697  : 	if( EAI_CUSTOM_ENABLE_RECEIVING_TIMESHARE != p_eCommandID) return FALSE;

  00003	83 7d 08 0c	 cmp	 DWORD PTR _p_eCommandID$[ebp], 12 ; 0000000cH
  00007	74 06		 je	 SHORT $LN2@OnAddInToo
  00009	33 c0		 xor	 eax, eax

; 700  : }

  0000b	5d		 pop	 ebp
  0000c	c2 08 00	 ret	 8
$LN2@OnAddInToo:

; 479  : 	m_bEnableReceivingTimeShare = p_bEnable;

  0000f	8b 45 0c	 mov	 eax, DWORD PTR _p_lParam$[ebp]
  00012	89 41 5c	 mov	 DWORD PTR [ecx+92], eax

; 480  : 	// (2004.09.30, )       Clear.
; 481  : 	if( !m_bEnableReceivingTimeShare)

  00015	85 c0		 test	 eax, eax
  00017	75 0e		 jne	 SHORT $LN5@OnAddInToo

; 482  : 	{
; 483  : 		ClearTimeMark();

  00019	89 41 38	 mov	 DWORD PTR [ecx+56], eax
  0001c	89 41 3c	 mov	 DWORD PTR [ecx+60], eax

; 484  : 		// (2004.12.13, ) NULL Pointer .
; 485  : 		m_pIChartOCX->InvalidateControl();

  0001f	8b 49 04	 mov	 ecx, DWORD PTR [ecx+4]
  00022	8b 01		 mov	 eax, DWORD PTR [ecx]
  00024	ff 50 38	 call	 DWORD PTR [eax+56]
$LN5@OnAddInToo:

; 698  : 	OnEnableReceivingTimeShare( p_lParam);
; 699  : 	return TRUE;

  00027	b8 01 00 00 00	 mov	 eax, 1

; 700  : }

  0002c	5d		 pop	 ebp
  0002d	c2 08 00	 ret	 8
?OnAddInToolCommand@CTimeMarkerAddInImp@@MAEHW4EAICommandType@@J@Z ENDP ; CTimeMarkerAddInImp::OnAddInToolCommand
_TEXT	ENDS
; Function compile flags: /Ogtp
; File D:\git\src\IBK\IBK_DRFN\ProjSrc\SrcChartEx\ChartOCX\AddInManager\ChartCommonAddIn\TimeMarkerAddInImp.cpp
;	COMDAT ?OnAddInToolCommand@CTimeMarkerAddInImp@@MAEHW4EAICommandType@@PBDJ@Z
_TEXT	SEGMENT
_p_eCommandID$ = 8					; size = 4
_p_szParam$ = 12					; size = 4
_p_lParam$ = 16						; size = 4
?OnAddInToolCommand@CTimeMarkerAddInImp@@MAEHW4EAICommandType@@PBDJ@Z PROC ; CTimeMarkerAddInImp::OnAddInToolCommand, COMDAT
; _this$ = ecx

; 689  : {

  00000	55		 push	 ebp
  00001	8b ec		 mov	 ebp, esp

; 690  : 	if( EAI_CUSTOM_SET_TIMEMARK != p_eCommandID) return FALSE;

  00003	83 7d 08 10	 cmp	 DWORD PTR _p_eCommandID$[ebp], 16 ; 00000010H
  00007	74 06		 je	 SHORT $LN2@OnAddInToo
  00009	33 c0		 xor	 eax, eax

; 693  : }

  0000b	5d		 pop	 ebp
  0000c	c2 0c 00	 ret	 12			; 0000000cH
$LN2@OnAddInToo:

; 691  : 	OnSetTimeMark( p_szParam, p_lParam);

  0000f	8d 41 f8	 lea	 eax, DWORD PTR [ecx-8]

; 493  : 	if( !p_szMarkTime || !p_szMarkTime[ 0])

  00012	8b 4d 0c	 mov	 ecx, DWORD PTR _p_szParam$[ebp]
  00015	85 c9		 test	 ecx, ecx
  00017	74 19		 je	 SHORT $LN6@OnAddInToo
  00019	80 39 00	 cmp	 BYTE PTR [ecx], 0
  0001c	74 14		 je	 SHORT $LN6@OnAddInToo

; 496  : 		return;
; 497  : 	}
; 498  : 
; 499  : 	// 2. TimeMark String   . (  .)
; 500  : 	// (2004.09.14, )  OCX Invalidate  .
; 501  : 	SetTimeMarkString( p_szMarkTime, p_bWithScroll);

  0001e	ff 75 10	 push	 DWORD PTR _p_lParam$[ebp]
  00021	51		 push	 ecx
  00022	8b c8		 mov	 ecx, eax
  00024	e8 00 00 00 00	 call	 ?SetTimeMarkString@CTimeMarkerAddInImp@@IAEXPBDH@Z ; CTimeMarkerAddInImp::SetTimeMarkString

; 692  : 	return TRUE;

  00029	b8 01 00 00 00	 mov	 eax, 1

; 693  : }

  0002e	5d		 pop	 ebp
  0002f	c2 0c 00	 ret	 12			; 0000000cH
$LN6@OnAddInToo:

; 495  : 		ClearTimeMark();

  00032	c7 40 40 00 00
	00 00		 mov	 DWORD PTR [eax+64], 0
  00039	c7 40 44 00 00
	00 00		 mov	 DWORD PTR [eax+68], 0

; 692  : 	return TRUE;

  00040	b8 01 00 00 00	 mov	 eax, 1

; 693  : }

  00045	5d		 pop	 ebp
  00046	c2 0c 00	 ret	 12			; 0000000cH
?OnAddInToolCommand@CTimeMarkerAddInImp@@MAEHW4EAICommandType@@PBDJ@Z ENDP ; CTimeMarkerAddInImp::OnAddInToolCommand
_TEXT	ENDS
; Function compile flags: /Ogtp
; File D:\git\src\IBK\IBK_DRFN\ProjSrc\SrcChartEx\ChartOCX\AddInManager\ChartCommonAddIn\TimeMarkerAddInImp.cpp
;	COMDAT ?OnAddInToolCommand@CTimeMarkerAddInImp@@MAEHW4EAICommandType@@@Z
_TEXT	SEGMENT
_p_eCommandID$ = 8					; size = 4
?OnAddInToolCommand@CTimeMarkerAddInImp@@MAEHW4EAICommandType@@@Z PROC ; CTimeMarkerAddInImp::OnAddInToolCommand, COMDAT
; _this$ = ecx

; 682  : {

  00000	55		 push	 ebp
  00001	8b ec		 mov	 ebp, esp

; 683  : 	if( EAI_CUSTOM_CLEAR_TIMEMARK != p_eCommandID) return FALSE;

  00003	83 7d 08 0f	 cmp	 DWORD PTR _p_eCommandID$[ebp], 15 ; 0000000fH
  00007	74 06		 je	 SHORT $LN2@OnAddInToo
  00009	33 c0		 xor	 eax, eax

; 686  : }

  0000b	5d		 pop	 ebp
  0000c	c2 04 00	 ret	 4
$LN2@OnAddInToo:

; 684  : 	ClearTimeMark();

  0000f	c7 41 38 00 00
	00 00		 mov	 DWORD PTR [ecx+56], 0

; 685  : 	return TRUE;

  00016	b8 01 00 00 00	 mov	 eax, 1
  0001b	c7 41 3c 00 00
	00 00		 mov	 DWORD PTR [ecx+60], 0

; 686  : }

  00022	5d		 pop	 ebp
  00023	c2 04 00	 ret	 4
?OnAddInToolCommand@CTimeMarkerAddInImp@@MAEHW4EAICommandType@@@Z ENDP ; CTimeMarkerAddInImp::OnAddInToolCommand
_TEXT	ENDS
; Function compile flags: /Ogtp
; File D:\git\src\IBK\IBK_DRFN\ProjSrc\SrcChartEx\ChartOCX\AddInManager\ChartCommonAddIn\TimeMarkerAddInImp.cpp
;	COMDAT ?OnToolCommand@CTimeMarkerAddInImp@@MAEXHH@Z
_TEXT	SEGMENT
_p_nToolType$ = 8					; size = 4
_p_nCmdOption$ = 12					; size = 4
?OnToolCommand@CTimeMarkerAddInImp@@MAEXHH@Z PROC	; CTimeMarkerAddInImp::OnToolCommand, COMDAT
; _this$ = ecx

; 670  : {

  00000	55		 push	 ebp
  00001	8b ec		 mov	 ebp, esp

; 671  : 	if( p_nToolType != CToolOptionInfo::T_ENABLE_TIMEMARK) return;

  00003	83 7d 08 68	 cmp	 DWORD PTR _p_nToolType$[ebp], 104 ; 00000068H
  00007	75 0d		 jne	 SHORT $LN1@OnToolComm

; 672  : 	InvokeAddIn( 2, p_nCmdOption);

  00009	8b 01		 mov	 eax, DWORD PTR [ecx]
  0000b	c7 45 08 02 00
	00 00		 mov	 DWORD PTR _p_nToolType$[ebp], 2

; 673  : }

  00012	5d		 pop	 ebp

; 672  : 	InvokeAddIn( 2, p_nCmdOption);

  00013	ff 60 18	 jmp	 DWORD PTR [eax+24]
$LN1@OnToolComm:

; 673  : }

  00016	5d		 pop	 ebp
  00017	c2 08 00	 ret	 8
?OnToolCommand@CTimeMarkerAddInImp@@MAEXHH@Z ENDP	; CTimeMarkerAddInImp::OnToolCommand
_TEXT	ENDS
; Function compile flags: /Ogtp
; File D:\git\src\IBK\IBK_DRFN\ProjSrc\SrcChartEx\ChartOCX\AddInManager\ChartCommonAddIn\TimeMarkerAddInImp.cpp
; File D:\git\src\IBK\IBK_DRFN\ProjSrc\SrcChartEx\ChartOCX\AddInManager\Include_Addin\I000000\_IString.h
; File D:\git\src\IBK\IBK_DRFN\ProjSrc\SrcChartEx\ChartOCX\AddInManager\ChartCommonAddIn\TimeMarkerAddInImp.cpp
; File C:\Program Files (x86)\Microsoft Visual Studio\2019\Community\VC\Tools\MSVC\14.29.30133\atlmfc\include\cstringt.h
; File D:\git\src\IBK\IBK_DRFN\ProjSrc\SrcChartEx\ChartOCX\AddInManager\ChartCommonAddIn\TimeMarkerAddInImp.cpp
; File C:\Program Files (x86)\Microsoft Visual Studio\2019\Community\VC\Tools\MSVC\14.29.30133\atlmfc\include\cstringt.h
; File D:\git\src\IBK\IBK_DRFN\ProjSrc\SrcChartEx\ChartOCX\AddInManager\ChartCommonAddIn\TimeMarkerAddInImp.cpp
; File C:\Program Files (x86)\Microsoft Visual Studio\2019\Community\VC\Tools\MSVC\14.29.30133\atlmfc\include\atltypes.h
; File D:\git\src\IBK\IBK_DRFN\ProjSrc\SrcChartEx\ChartOCX\AddInManager\ChartCommonAddIn\TimeMarkerAddInImp.cpp
; File C:\Program Files (x86)\Microsoft Visual Studio\2019\Community\VC\Tools\MSVC\14.29.30133\atlmfc\include\atltypes.h
; File D:\git\src\IBK\IBK_DRFN\ProjSrc\SrcChartEx\ChartOCX\AddInManager\ChartCommonAddIn\TimeMarkerAddInImp.cpp
; File C:\Program Files (x86)\Microsoft Visual Studio\2019\Community\VC\Tools\MSVC\14.29.30133\atlmfc\include\atltypes.h
; File D:\git\src\IBK\IBK_DRFN\ProjSrc\SrcChartEx\ChartOCX\AddInManager\ChartCommonAddIn\TimeMarkerAddInImp.cpp
;	COMDAT ?OnDrawBeforeGraph@CTimeMarkerAddInImp@@MAEXPAUHDC__@@@Z
_TEXT	SEGMENT
$T2 = -168						; size = 8
$T3 = -160						; size = 8
_dSelectedDate$4 = -152					; size = 8
_nStartIndex$5 = -144					; size = 4
_nEndIndex$6 = -140					; size = 4
_szPacketType$7 = -136					; size = 8
_pOldPen$1$ = -128					; size = 4
_nBlockColumn$1$ = -124					; size = 4
_nTimeIndex$8 = -120					; size = 4
_nBlockRow$1$ = -116					; size = 4
$T9 = -112						; size = 4
$T10 = -108						; size = 4
$T11 = -104						; size = 4
_nC$1$ = -100						; size = 4
_pIPacket$ = -96					; size = 4
_this$GSCopy$1$ = -92					; size = 4
_nR$1$ = -88						; size = 4
$T12 = -84						; size = 16
_rctNoFrameAndMargin$13 = -68				; size = 16
_rctGraphRegion$14 = -52				; size = 16
_rctBlockRegion$15 = -36				; size = 16
__$ArrayPad$ = -20					; size = 4
__$EHRec$ = -16						; size = 16
_p_hDC$ = 8						; size = 4
?OnDrawBeforeGraph@CTimeMarkerAddInImp@@MAEXPAUHDC__@@@Z PROC ; CTimeMarkerAddInImp::OnDrawBeforeGraph, COMDAT
; _this$ = ecx

; 563  : {

  00000	55		 push	 ebp
  00001	8b ec		 mov	 ebp, esp
  00003	6a ff		 push	 -1
  00005	68 00 00 00 00	 push	 __ehhandler$?OnDrawBeforeGraph@CTimeMarkerAddInImp@@MAEXPAUHDC__@@@Z
  0000a	64 a1 00 00 00
	00		 mov	 eax, DWORD PTR fs:0
  00010	50		 push	 eax
  00011	81 ec 9c 00 00
	00		 sub	 esp, 156		; 0000009cH
  00017	a1 00 00 00 00	 mov	 eax, DWORD PTR ___security_cookie
  0001c	33 c5		 xor	 eax, ebp
  0001e	89 45 ec	 mov	 DWORD PTR __$ArrayPad$[ebp], eax
  00021	53		 push	 ebx
  00022	56		 push	 esi
  00023	57		 push	 edi
  00024	50		 push	 eax
  00025	8d 45 f4	 lea	 eax, DWORD PTR __$EHRec$[ebp+4]
  00028	64 a3 00 00 00
	00		 mov	 DWORD PTR fs:0, eax
  0002e	89 65 f0	 mov	 DWORD PTR __$EHRec$[ebp], esp
  00031	8b f9		 mov	 edi, ecx
  00033	89 7d a4	 mov	 DWORD PTR _this$GSCopy$1$[ebp], edi
  00036	8b 45 08	 mov	 eax, DWORD PTR _p_hDC$[ebp]

; 564  : 	CDC *pDC = CDC::FromHandle( p_hDC);

  00039	50		 push	 eax
  0003a	e8 00 00 00 00	 call	 ?FromHandle@CDC@@SGPAV1@PAUHDC__@@@Z ; CDC::FromHandle
  0003f	8b d8		 mov	 ebx, eax

; 565  : 	if( !pDC) return;

  00041	85 db		 test	 ebx, ebx
  00043	0f 84 60 02 00
	00		 je	 $LN31@OnDrawBefo

; 566  : 
; 567  : 	// (2004.09.15, )     . (//P&F)
; 568  : 	if( m_pIChartOCX->IsOnSpecialChart()) return;

  00049	8b 4f 04	 mov	 ecx, DWORD PTR [edi+4]
  0004c	8b 11		 mov	 edx, DWORD PTR [ecx]
  0004e	ff 92 84 00 00
	00		 call	 DWORD PTR [edx+132]
  00054	85 c0		 test	 eax, eax
  00056	0f 85 4d 02 00
	00		 jne	 $LN31@OnDrawBefo

; 569  : 
; 570  : 	// 0. Drawing   .
; 571  : 	if( !m_lMarkTime) return;

  0005c	8b 47 38	 mov	 eax, DWORD PTR [edi+56]
  0005f	0b 47 3c	 or	 eax, DWORD PTR [edi+60]
  00062	0f 84 41 02 00
	00		 je	 $LN31@OnDrawBefo

; 572  : 
; 573  : 	// (2004.07.05, ) Time Mark    , 
; 574  : 	//		Packet Type ,     Draw .
; 575  : 	IPacket *pIPacket = m_pIDefaultPacketManager->GetPacket( _MTEXT( C0_DATE_TIME));

  00068	8b 4f 18	 mov	 ecx, DWORD PTR [edi+24]
  0006b	a1 54 00 00 00	 mov	 eax, DWORD PTR ?g_iMetaTable@@3VIMetaTable@@A+84
  00070	8b 11		 mov	 edx, DWORD PTR [ecx]
  00072	ff 30		 push	 DWORD PTR [eax]
  00074	ff 52 10	 call	 DWORD PTR [edx+16]
  00077	8b f0		 mov	 esi, eax
  00079	89 75 a0	 mov	 DWORD PTR _pIPacket$[ebp], esi

; 576  : 	if( !pIPacket) return;

  0007c	85 f6		 test	 esi, esi
  0007e	0f 84 25 02 00
	00		 je	 $LN31@OnDrawBefo

; 579  : 		ILPCSTR szPacketType = pIPacket->GetType();

  00084	8b 16		 mov	 edx, DWORD PTR [esi]
  00086	8b ce		 mov	 ecx, esi
  00088	6a 01		 push	 1
  0008a	c7 45 fc 00 00
	00 00		 mov	 DWORD PTR __$EHRec$[ebp+12], 0
  00091	ff 52 1c	 call	 DWORD PTR [edx+28]
  00094	8b c8		 mov	 ecx, eax
; File D:\git\src\IBK\IBK_DRFN\ProjSrc\SrcChartEx\ChartOCX\AddInManager\Include_Addin\I000000\_IString.h

; 39   : 		m_pIStrData = p_pIString;	// Do not AddRef(). Because It must be Return Value.

  00096	89 8d 7c ff ff
	ff		 mov	 DWORD PTR _szPacketType$7[ebp+4], ecx
  0009c	85 c9		 test	 ecx, ecx

; 40   : 		if( m_pIStrData) m_szData = m_pIStrData->GetData();

  0009e	74 07		 je	 SHORT $LN33@OnDrawBefo
  000a0	8b 01		 mov	 eax, DWORD PTR [ecx]
  000a2	ff 50 10	 call	 DWORD PTR [eax+16]
  000a5	eb 02		 jmp	 SHORT $LN77@OnDrawBefo
$LN33@OnDrawBefo:

; 41   : 		else m_szData = NULL;

  000a7	33 c0		 xor	 eax, eax
$LN77@OnDrawBefo:
; File D:\git\src\IBK\IBK_DRFN\ProjSrc\SrcChartEx\ChartOCX\AddInManager\ChartCommonAddIn\TimeMarkerAddInImp.cpp

; 579  : 		ILPCSTR szPacketType = pIPacket->GetType();

  000a9	89 85 78 ff ff
	ff		 mov	 DWORD PTR _szPacketType$7[ebp], eax
; File C:\Program Files (x86)\Microsoft Visual Studio\2019\Community\VC\Tools\MSVC\14.29.30133\atlmfc\include\cstringt.h

; 2567 : 		return( str1.Compare( psz2 ) != 0 );

  000af	50		 push	 eax
; File D:\git\src\IBK\IBK_DRFN\ProjSrc\SrcChartEx\ChartOCX\AddInManager\ChartCommonAddIn\TimeMarkerAddInImp.cpp

; 580  : 		if( m_strPacketType != szPacketType) throw this;

  000b0	8d 4f 48	 lea	 ecx, DWORD PTR [edi+72]
  000b3	c6 45 fc 01	 mov	 BYTE PTR __$EHRec$[ebp+12], 1
; File C:\Program Files (x86)\Microsoft Visual Studio\2019\Community\VC\Tools\MSVC\14.29.30133\atlmfc\include\cstringt.h

; 2567 : 		return( str1.Compare( psz2 ) != 0 );

  000b7	ff 15 00 00 00
	00		 call	 DWORD PTR __imp_?Compare@?$CStringT@DV?$StrTraitMFC_DLL@DV?$ChTraitsCRT@D@ATL@@@@@ATL@@QBEHPBD@Z
  000bd	85 c0		 test	 eax, eax
; File D:\git\src\IBK\IBK_DRFN\ProjSrc\SrcChartEx\ChartOCX\AddInManager\ChartCommonAddIn\TimeMarkerAddInImp.cpp

; 580  : 		if( m_strPacketType != szPacketType) throw this;

  000bf	0f 85 11 02 00
	00		 jne	 $LN81@OnDrawBefo

; 581  : 
; 582  : 		// 1. Mark Time Data Index .
; 583  : 		// 1.1  Data View Start/End Index .
; 584  : 		int nStartIndex, nEndIndex;
; 585  : 		if( !m_pIChartOCX->GetViewStartEndIndex( nStartIndex, nEndIndex)) throw this;	

  000c5	8b 4f 04	 mov	 ecx, DWORD PTR [edi+4]
  000c8	8d 95 74 ff ff
	ff		 lea	 edx, DWORD PTR _nEndIndex$6[ebp]
  000ce	52		 push	 edx
  000cf	8d 95 70 ff ff
	ff		 lea	 edx, DWORD PTR _nStartIndex$5[ebp]
  000d5	52		 push	 edx
  000d6	8b 01		 mov	 eax, DWORD PTR [ecx]
  000d8	ff 90 24 01 00
	00		 call	 DWORD PTR [eax+292]
  000de	85 c0		 test	 eax, eax
  000e0	0f 84 04 02 00
	00		 je	 $LN82@OnDrawBefo

; 586  : 		// 1.2 Time Mark  .
; 587  : 		// (2004.06.18, )  Data Index      Data Index .
; 588  : 		int nTimeIndex;
; 589  : 		double dSelectedDate;
; 590  : 		if( !pIPacket->GetCurOrPrevIndexFromData( m_lMarkTime, nTimeIndex, dSelectedDate)) throw this;

  000e6	8b 57 3c	 mov	 edx, DWORD PTR [edi+60]
  000e9	8d 85 68 ff ff
	ff		 lea	 eax, DWORD PTR _dSelectedDate$4[ebp]
  000ef	8b 4f 38	 mov	 ecx, DWORD PTR [edi+56]
  000f2	8b 36		 mov	 esi, DWORD PTR [esi]
  000f4	50		 push	 eax
  000f5	8d 45 88	 lea	 eax, DWORD PTR _nTimeIndex$8[ebp]
  000f8	50		 push	 eax
  000f9	e8 00 00 00 00	 call	 __ltod3
  000fe	8b 4d a0	 mov	 ecx, DWORD PTR _pIPacket$[ebp]
  00101	83 ec 08	 sub	 esp, 8
  00104	f2 0f 11 04 24	 movsd	 QWORD PTR [esp], xmm0
  00109	ff 56 38	 call	 DWORD PTR [esi+56]
  0010c	85 c0		 test	 eax, eax
  0010e	0f 84 ea 01 00
	00		 je	 $LN83@OnDrawBefo

; 591  : 		// (2004.09.24, ) ScrollBar ZeroBase 1  .
; 592  : 		// nTimeIndex++;
; 593  : 
; 594  : 		// (2004.09.14, )   .
; 595  : 		CPen *pOldPen = pDC->SelectObject( &m_pnPen);

  00114	8b 75 a4	 mov	 esi, DWORD PTR _this$GSCopy$1$[ebp]
  00117	8b cb		 mov	 ecx, ebx
  00119	8d 46 40	 lea	 eax, DWORD PTR [esi+64]
  0011c	50		 push	 eax
  0011d	e8 00 00 00 00	 call	 ?SelectObject@CDC@@QAEPAVCPen@@PAV2@@Z ; CDC::SelectObject

; 596  : 
; 597  : 		// 2.  Data Index View Point .
; 598  : 		// 2.1 Block Count .
; 599  : 		int nBlockRow		= m_pIChartManager->GetRowCount();

  00122	8b 4e 1c	 mov	 ecx, DWORD PTR [esi+28]
  00125	89 45 80	 mov	 DWORD PTR _pOldPen$1$[ebp], eax
  00128	8b 11		 mov	 edx, DWORD PTR [ecx]
  0012a	ff 52 1c	 call	 DWORD PTR [edx+28]

; 600  : 		int nBlockColumn	= m_pIChartManager->GetColumnCount();

  0012d	8b 4e 1c	 mov	 ecx, DWORD PTR [esi+28]
  00130	89 45 8c	 mov	 DWORD PTR _nBlockRow$1$[ebp], eax
  00133	8b 11		 mov	 edx, DWORD PTR [ecx]
  00135	ff 52 20	 call	 DWORD PTR [edx+32]
  00138	0f 57 c0	 xorps	 xmm0, xmm0
  0013b	89 45 84	 mov	 DWORD PTR _nBlockColumn$1$[ebp], eax
; File C:\Program Files (x86)\Microsoft Visual Studio\2019\Community\VC\Tools\MSVC\14.29.30133\atlmfc\include\atltypes.h

; 528  : 	left = 0;

  0013e	0f 11 45 dc	 movups	 XMMWORD PTR _rctBlockRegion$15[ebp], xmm0
; File D:\git\src\IBK\IBK_DRFN\ProjSrc\SrcChartEx\ChartOCX\AddInManager\ChartCommonAddIn\TimeMarkerAddInImp.cpp

; 606  : 		for( int nR = 0; nR < nBlockRow; nR++) for( int nC = 0; nC < nBlockColumn; nC++)

  00142	33 ff		 xor	 edi, edi
; File C:\Program Files (x86)\Microsoft Visual Studio\2019\Community\VC\Tools\MSVC\14.29.30133\atlmfc\include\atltypes.h

; 528  : 	left = 0;

  00144	0f 11 45 bc	 movups	 XMMWORD PTR _rctNoFrameAndMargin$13[ebp], xmm0
  00148	0f 11 45 cc	 movups	 XMMWORD PTR _rctGraphRegion$14[ebp], xmm0
$LN79@OnDrawBefo:
; File D:\git\src\IBK\IBK_DRFN\ProjSrc\SrcChartEx\ChartOCX\AddInManager\ChartCommonAddIn\TimeMarkerAddInImp.cpp

; 606  : 		for( int nR = 0; nR < nBlockRow; nR++) for( int nC = 0; nC < nBlockColumn; nC++)

  0014c	89 7d a8	 mov	 DWORD PTR _nR$1$[ebp], edi
  0014f	3b 7d 8c	 cmp	 edi, DWORD PTR _nBlockRow$1$[ebp]
  00152	0f 8d 2c 01 00
	00		 jge	 $LN3@OnDrawBefo
  00158	33 d2		 xor	 edx, edx
$LN78@OnDrawBefo:
  0015a	89 55 9c	 mov	 DWORD PTR _nC$1$[ebp], edx
  0015d	3b d0		 cmp	 edx, eax
  0015f	0f 8d 19 01 00
	00		 jge	 $LN2@OnDrawBefo

; 607  : 		{
; 608  : 			// 2.2.1 Block Region .
; 609  : 			// (2006/6/16 - Seung-Won, Bae) Use Block Interface
; 610  : 			IBlock *pIBlock = m_pIChartManager->GetBlock( nR, nC);

  00165	8b 4e 1c	 mov	 ecx, DWORD PTR [esi+28]
  00168	52		 push	 edx
  00169	57		 push	 edi
  0016a	8b 01		 mov	 eax, DWORD PTR [ecx]
  0016c	ff 50 38	 call	 DWORD PTR [eax+56]
  0016f	8b f0		 mov	 esi, eax

; 611  : 			if( !pIBlock) continue;

  00171	85 f6		 test	 esi, esi
  00173	0f 84 f6 00 00
	00		 je	 $LN72@OnDrawBefo

; 612  : 			pIBlock->GetGraphRegions( rctBlockRegion, rctNoFrameAndMargin);

  00179	8b 16		 mov	 edx, DWORD PTR [esi]
  0017b	8d 45 bc	 lea	 eax, DWORD PTR _rctNoFrameAndMargin$13[ebp]
  0017e	50		 push	 eax
  0017f	8d 45 dc	 lea	 eax, DWORD PTR _rctBlockRegion$15[ebp]
  00182	8b ce		 mov	 ecx, esi
  00184	50		 push	 eax
  00185	ff 52 10	 call	 DWORD PTR [edx+16]

; 613  : 			rctGraphRegion = pIBlock->GetGraphDrwingRegion();

  00188	8b 06		 mov	 eax, DWORD PTR [esi]
  0018a	8d 4d ac	 lea	 ecx, DWORD PTR $T12[ebp]
  0018d	6a 00		 push	 0
  0018f	51		 push	 ecx
  00190	8b ce		 mov	 ecx, esi
  00192	ff 50 1c	 call	 DWORD PTR [eax+28]
; File C:\Program Files (x86)\Microsoft Visual Studio\2019\Community\VC\Tools\MSVC\14.29.30133\atlmfc\include\atltypes.h

; 765  : 	::CopyRect(this, &srcRect);

  00195	50		 push	 eax
  00196	8d 45 cc	 lea	 eax, DWORD PTR _rctGraphRegion$14[ebp]
  00199	50		 push	 eax
  0019a	ff 15 00 00 00
	00		 call	 DWORD PTR __imp__CopyRect@8
; File D:\git\src\IBK\IBK_DRFN\ProjSrc\SrcChartEx\ChartOCX\AddInManager\ChartCommonAddIn\TimeMarkerAddInImp.cpp

; 614  : 			pIBlock->Release();

  001a0	8b 06		 mov	 eax, DWORD PTR [esi]
  001a2	56		 push	 esi
  001a3	ff 50 08	 call	 DWORD PTR [eax+8]

; 615  : 			pIBlock = NULL;
; 616  : 
; 617  : 			// 2.2.2 TimeMark X Position . (Graph X Position Graph Region  .)
; 618  : 			// (2004.09.14, ) Graph    Drawing .
; 619  : 			//		       ().
; 620  : 			//		      ,  .
; 621  : 			// 2.2.2.1   .
; 622  : 			dCandleWidth = double( rctGraphRegion.Width()) / double( nDataOnPage);
; 623  : 			// 2.2.2.2   . (   1 Pixel() .)
; 624  : 			nLeftBorder = rctGraphRegion.left + int( dCandleWidth * double( nTimeOffset) + 0.5) + 1;
; 625  : 			// 2.2.2.3   . (    1 Pixel() .)
; 626  : 			nRightBorder = rctGraphRegion.left + int( dCandleWidth * double( nTimeOffset + 1) + 0.5) - 1;
; 627  : 			// 2.2.2.4   . ( .)
; 628  : 			//{{ 2007.03.26 by LYH XScale 
; 629  : 			//nX = ( nLeftBorder + nRightBorder) / 2;
; 630  : 			nX = m_pIChartManager->GetXPosition("DEFAULT", nTimeIndex, 0);

  001a6	8b 75 a4	 mov	 esi, DWORD PTR _this$GSCopy$1$[ebp]
  001a9	6a 00		 push	 0
  001ab	ff 75 88	 push	 DWORD PTR _nTimeIndex$8[ebp]
  001ae	8b 4e 1c	 mov	 ecx, DWORD PTR [esi+28]
  001b1	68 00 00 00 00	 push	 OFFSET ??_C@_07MGCPDNLD@DEFAULT@
  001b6	8b 01		 mov	 eax, DWORD PTR [ecx]
  001b8	ff 90 e8 00 00
	00		 call	 DWORD PTR [eax+232]
  001be	8b f8		 mov	 edi, eax

; 631  : 			//}}
; 632  : 			// (2004.08.25, ) Mark Line Graph     .
; 633  : 			if( nX <= rctGraphRegion.left || rctGraphRegion.right <= nX) continue;

  001c0	3b 7d cc	 cmp	 edi, DWORD PTR _rctGraphRegion$14[ebp]
  001c3	7e 39		 jle	 SHORT $LN74@OnDrawBefo
  001c5	39 7d d4	 cmp	 DWORD PTR _rctGraphRegion$14[ebp+8], edi
  001c8	7e 34		 jle	 SHORT $LN74@OnDrawBefo

; 634  : 			// 2.2.3 Line . (  Line Block Region .  Block       .)
; 635  : 			// (2004.09.14, ) Pen  3 Pixel ,      .
; 636  : 			
; 637  : 			// 2011.01.06 by SYS >>  YYYY() 
; 638  : 			//if( m_lMarkTime == ( long)dSelectedDate)
; 639  : 			if( m_lMarkTime == ( __int64)dSelectedDate)

  001ca	f2 0f 10 85 68
	ff ff ff	 movsd	 xmm0, QWORD PTR _dSelectedDate$4[ebp]
  001d2	e8 00 00 00 00	 call	 __dtol3
  001d7	39 46 38	 cmp	 DWORD PTR [esi+56], eax
  001da	75 31		 jne	 SHORT $LN22@OnDrawBefo
  001dc	39 56 3c	 cmp	 DWORD PTR [esi+60], edx
  001df	75 2c		 jne	 SHORT $LN22@OnDrawBefo

; 640  : 			// 2011.01.06 by SYS <<
; 641  : 			{
; 642  : 				pDC->MoveTo( nX, rctBlockRegion.top);

  001e1	ff 75 e0	 push	 DWORD PTR _rctBlockRegion$15[ebp+4]
  001e4	8d 85 60 ff ff
	ff		 lea	 eax, DWORD PTR $T3[ebp]
  001ea	8b cb		 mov	 ecx, ebx
  001ec	57		 push	 edi
  001ed	50		 push	 eax
  001ee	e8 00 00 00 00	 call	 ?MoveTo@CDC@@QAE?AVCPoint@@HH@Z ; CDC::MoveTo

; 643  : 				pDC->LineTo( nX, rctBlockRegion.bottom);

  001f3	ff 75 e8	 push	 DWORD PTR _rctBlockRegion$15[ebp+12]
  001f6	8b cb		 mov	 ecx, ebx
  001f8	57		 push	 edi
  001f9	e8 00 00 00 00	 call	 ?LineTo@CDC@@QAEHHH@Z	; CDC::LineTo
$LN74@OnDrawBefo:

; 606  : 		for( int nR = 0; nR < nBlockRow; nR++) for( int nC = 0; nC < nBlockColumn; nC++)

  001fe	8b 55 9c	 mov	 edx, DWORD PTR _nC$1$[ebp]
  00201	8b 7d a8	 mov	 edi, DWORD PTR _nR$1$[ebp]
  00204	42		 inc	 edx
  00205	8b 45 84	 mov	 eax, DWORD PTR _nBlockColumn$1$[ebp]
  00208	e9 4d ff ff ff	 jmp	 $LN78@OnDrawBefo
$LN22@OnDrawBefo:

; 644  : 			}
; 645  : 			else
; 646  : 			{
; 647  : 				const int nUnitLineLen = 10;
; 648  : 				const int nGapLen = 5;
; 649  : 				for( int nL = int( rctBlockRegion.top / nUnitLineLen) * nUnitLineLen; nL < rctBlockRegion.bottom; nL += nUnitLineLen)

  0020d	8b 4d e0	 mov	 ecx, DWORD PTR _rctBlockRegion$15[ebp+4]
  00210	b8 67 66 66 66	 mov	 eax, 1717986919		; 66666667H
  00215	f7 e9		 imul	 ecx
  00217	c1 fa 02	 sar	 edx, 2
  0021a	8b c2		 mov	 eax, edx
  0021c	c1 e8 1f	 shr	 eax, 31			; 0000001fH
  0021f	03 c2		 add	 eax, edx
  00221	8d 34 80	 lea	 esi, DWORD PTR [eax+eax*4]
  00224	03 f6		 add	 esi, esi
$LL10@OnDrawBefo:
  00226	3b 75 e8	 cmp	 esi, DWORD PTR _rctBlockRegion$15[ebp+12]
  00229	7d 32		 jge	 SHORT $LN71@OnDrawBefo

; 650  : 				{
; 651  : 					pDC->MoveTo( nX, max( rctBlockRegion.top, nL));

  0022b	3b ce		 cmp	 ecx, esi
  0022d	8b c6		 mov	 eax, esi
  0022f	0f 4f c1	 cmovg	 eax, ecx
  00232	8b cb		 mov	 ecx, ebx
  00234	50		 push	 eax
  00235	57		 push	 edi
  00236	8d 85 58 ff ff
	ff		 lea	 eax, DWORD PTR $T2[ebp]
  0023c	50		 push	 eax
  0023d	e8 00 00 00 00	 call	 ?MoveTo@CDC@@QAE?AVCPoint@@HH@Z ; CDC::MoveTo

; 652  : 					pDC->LineTo( nX, min( rctBlockRegion.bottom, nL + nUnitLineLen - nGapLen));

  00242	8d 4e 05	 lea	 ecx, DWORD PTR [esi+5]
  00245	39 4d e8	 cmp	 DWORD PTR _rctBlockRegion$15[ebp+12], ecx
  00248	0f 4c 4d e8	 cmovl	 ecx, DWORD PTR _rctBlockRegion$15[ebp+12]
  0024c	51		 push	 ecx
  0024d	57		 push	 edi
  0024e	8b cb		 mov	 ecx, ebx
  00250	e8 00 00 00 00	 call	 ?LineTo@CDC@@QAEHHH@Z	; CDC::LineTo
  00255	8b 4d e0	 mov	 ecx, DWORD PTR _rctBlockRegion$15[ebp+4]
  00258	83 c6 0a	 add	 esi, 10			; 0000000aH
  0025b	eb c9		 jmp	 SHORT $LL10@OnDrawBefo
$LN71@OnDrawBefo:

; 606  : 		for( int nR = 0; nR < nBlockRow; nR++) for( int nC = 0; nC < nBlockColumn; nC++)

  0025d	8b 55 9c	 mov	 edx, DWORD PTR _nC$1$[ebp]

; 644  : 			}
; 645  : 			else
; 646  : 			{
; 647  : 				const int nUnitLineLen = 10;
; 648  : 				const int nGapLen = 5;
; 649  : 				for( int nL = int( rctBlockRegion.top / nUnitLineLen) * nUnitLineLen; nL < rctBlockRegion.bottom; nL += nUnitLineLen)

  00260	8b 75 a4	 mov	 esi, DWORD PTR _this$GSCopy$1$[ebp]
  00263	42		 inc	 edx
  00264	8b 7d a8	 mov	 edi, DWORD PTR _nR$1$[ebp]
  00267	8b 45 84	 mov	 eax, DWORD PTR _nBlockColumn$1$[ebp]
  0026a	e9 eb fe ff ff	 jmp	 $LN78@OnDrawBefo
$LN72@OnDrawBefo:

; 606  : 		for( int nR = 0; nR < nBlockRow; nR++) for( int nC = 0; nC < nBlockColumn; nC++)

  0026f	8b 55 9c	 mov	 edx, DWORD PTR _nC$1$[ebp]

; 611  : 			if( !pIBlock) continue;

  00272	8b 75 a4	 mov	 esi, DWORD PTR _this$GSCopy$1$[ebp]
  00275	42		 inc	 edx
  00276	8b 45 84	 mov	 eax, DWORD PTR _nBlockColumn$1$[ebp]
  00279	e9 dc fe ff ff	 jmp	 $LN78@OnDrawBefo
$LN2@OnDrawBefo:

; 606  : 		for( int nR = 0; nR < nBlockRow; nR++) for( int nC = 0; nC < nBlockColumn; nC++)

  0027e	47		 inc	 edi
  0027f	e9 c8 fe ff ff	 jmp	 $LN79@OnDrawBefo
$LN3@OnDrawBefo:

; 653  : 				}
; 654  : 			}
; 655  : 		}
; 656  : 
; 657  : 		// (2004.09.14, )   .
; 658  : 		pDC->SelectObject( pOldPen);

  00284	ff 75 80	 push	 DWORD PTR _pOldPen$1$[ebp]
  00287	8b cb		 mov	 ecx, ebx
  00289	e8 00 00 00 00	 call	 ?SelectObject@CDC@@QAEPAVCPen@@PAV2@@Z ; CDC::SelectObject

; 659  : 	}

  0028e	8d 8d 78 ff ff
	ff		 lea	 ecx, DWORD PTR _szPacketType$7[ebp]
  00294	e8 00 00 00 00	 call	 ??1ILPCSTR000000@@QAE@XZ ; ILPCSTR000000::~ILPCSTR000000

; 664  : 	}
; 665  : 	pIPacket->Release();

  00299	8b 4d a0	 mov	 ecx, DWORD PTR _pIPacket$[ebp]
  0029c	51		 push	 ecx
  0029d	c7 45 fc ff ff
	ff ff		 mov	 DWORD PTR __$EHRec$[ebp+12], -1
  002a4	8b 01		 mov	 eax, DWORD PTR [ecx]
  002a6	ff 50 08	 call	 DWORD PTR [eax+8]
$LN31@OnDrawBefo:

; 666  : }

  002a9	8b 4d f4	 mov	 ecx, DWORD PTR __$EHRec$[ebp+4]
  002ac	64 89 0d 00 00
	00 00		 mov	 DWORD PTR fs:0, ecx
  002b3	59		 pop	 ecx
  002b4	5f		 pop	 edi
  002b5	5e		 pop	 esi
  002b6	5b		 pop	 ebx
  002b7	8b 4d ec	 mov	 ecx, DWORD PTR __$ArrayPad$[ebp]
  002ba	33 cd		 xor	 ecx, ebp
  002bc	e8 00 00 00 00	 call	 @__security_check_cookie@4
  002c1	8b e5		 mov	 esp, ebp
  002c3	5d		 pop	 ebp
  002c4	c2 04 00	 ret	 4
__catch$?OnDrawBeforeGraph@CTimeMarkerAddInImp@@MAEXPAUHDC__@@@Z$0:

; 660  : 	catch( CTimeMarkerAddInImp *)
; 661  : 	{
; 662  : 		pIPacket->Release();

  002c7	8b 45 a0	 mov	 eax, DWORD PTR _pIPacket$[ebp]
  002ca	50		 push	 eax
  002cb	8b 08		 mov	 ecx, DWORD PTR [eax]
  002cd	ff 51 08	 call	 DWORD PTR [ecx+8]

; 663  : 		return;

  002d0	b8 00 00 00 00	 mov	 eax, $LN31@OnDrawBefo
  002d5	c3		 ret	 0
$LN81@OnDrawBefo:

; 580  : 		if( m_strPacketType != szPacketType) throw this;

  002d6	8d 47 f8	 lea	 eax, DWORD PTR [edi-8]
  002d9	89 45 98	 mov	 DWORD PTR $T11[ebp], eax
  002dc	8d 45 98	 lea	 eax, DWORD PTR $T11[ebp]
  002df	68 00 00 00 00	 push	 OFFSET __TI7PAVCTimeMarkerAddInImp@@
  002e4	50		 push	 eax
  002e5	e8 00 00 00 00	 call	 __CxxThrowException@8
$LN82@OnDrawBefo:

; 581  : 
; 582  : 		// 1. Mark Time Data Index .
; 583  : 		// 1.1  Data View Start/End Index .
; 584  : 		int nStartIndex, nEndIndex;
; 585  : 		if( !m_pIChartOCX->GetViewStartEndIndex( nStartIndex, nEndIndex)) throw this;	

  002ea	8d 47 f8	 lea	 eax, DWORD PTR [edi-8]
  002ed	89 45 94	 mov	 DWORD PTR $T10[ebp], eax
  002f0	8d 45 94	 lea	 eax, DWORD PTR $T10[ebp]
  002f3	68 00 00 00 00	 push	 OFFSET __TI7PAVCTimeMarkerAddInImp@@
  002f8	50		 push	 eax
  002f9	e8 00 00 00 00	 call	 __CxxThrowException@8
$LN83@OnDrawBefo:

; 586  : 		// 1.2 Time Mark  .
; 587  : 		// (2004.06.18, )  Data Index      Data Index .
; 588  : 		int nTimeIndex;
; 589  : 		double dSelectedDate;
; 590  : 		if( !pIPacket->GetCurOrPrevIndexFromData( m_lMarkTime, nTimeIndex, dSelectedDate)) throw this;

  002fe	8d 47 f8	 lea	 eax, DWORD PTR [edi-8]
  00301	89 45 90	 mov	 DWORD PTR $T9[ebp], eax
  00304	8d 45 90	 lea	 eax, DWORD PTR $T9[ebp]
  00307	68 00 00 00 00	 push	 OFFSET __TI7PAVCTimeMarkerAddInImp@@
  0030c	50		 push	 eax
  0030d	e8 00 00 00 00	 call	 __CxxThrowException@8
$LN76@OnDrawBefo:
  00312	cc		 int	 3
_TEXT	ENDS
;	COMDAT text$x
text$x	SEGMENT
__unwindfunclet$?OnDrawBeforeGraph@CTimeMarkerAddInImp@@MAEXPAUHDC__@@@Z$2:
  00000	8d 8d 78 ff ff
	ff		 lea	 ecx, DWORD PTR _szPacketType$7[ebp]
  00006	e9 00 00 00 00	 jmp	 ??1ILPCSTR000000@@QAE@XZ ; ILPCSTR000000::~ILPCSTR000000
  0000b	cc		 int	 3
  0000c	cc		 int	 3
  0000d	cc		 int	 3
  0000e	cc		 int	 3
  0000f	cc		 int	 3
__ehhandler$?OnDrawBeforeGraph@CTimeMarkerAddInImp@@MAEXPAUHDC__@@@Z:
  00010	90		 npad	 1
  00011	90		 npad	 1
  00012	8b 54 24 08	 mov	 edx, DWORD PTR [esp+8]
  00016	8d 42 0c	 lea	 eax, DWORD PTR [edx+12]
  00019	8b 8a 54 ff ff
	ff		 mov	 ecx, DWORD PTR [edx-172]
  0001f	33 c8		 xor	 ecx, eax
  00021	e8 00 00 00 00	 call	 @__security_check_cookie@4
  00026	8b 4a f8	 mov	 ecx, DWORD PTR [edx-8]
  00029	33 c8		 xor	 ecx, eax
  0002b	e8 00 00 00 00	 call	 @__security_check_cookie@4
  00030	b8 00 00 00 00	 mov	 eax, OFFSET __ehfuncinfo$?OnDrawBeforeGraph@CTimeMarkerAddInImp@@MAEXPAUHDC__@@@Z
  00035	e9 00 00 00 00	 jmp	 ___CxxFrameHandler3
text$x	ENDS
?OnDrawBeforeGraph@CTimeMarkerAddInImp@@MAEXPAUHDC__@@@Z ENDP ; CTimeMarkerAddInImp::OnDrawBeforeGraph
; Function compile flags: /Ogtp
; File D:\git\src\IBK\IBK_DRFN\ProjSrc\SrcChartEx\ChartOCX\AddInManager\ChartCommonAddIn\TimeMarkerAddInImp.cpp
;	COMDAT ?OnResetChart@CTimeMarkerAddInImp@@MAEXXZ
_TEXT	SEGMENT
?OnResetChart@CTimeMarkerAddInImp@@MAEXXZ PROC		; CTimeMarkerAddInImp::OnResetChart, COMDAT
; _this$ = ecx

; 557  : 	// (2004.07.26, )   TimeMark Clear.
; 558  : 	ClearTimeMark();

  00000	c7 41 38 00 00
	00 00		 mov	 DWORD PTR [ecx+56], 0
  00007	c7 41 3c 00 00
	00 00		 mov	 DWORD PTR [ecx+60], 0

; 559  : }

  0000e	c3		 ret	 0
?OnResetChart@CTimeMarkerAddInImp@@MAEXXZ ENDP		; CTimeMarkerAddInImp::OnResetChart
_TEXT	ENDS
; Function compile flags: /Ogtp
; File D:\git\src\IBK\IBK_DRFN\ProjSrc\SrcChartEx\ChartOCX\AddInManager\ChartCommonAddIn\TimeMarkerAddInImp.cpp
;	COMDAT ?OnGSharedDataChange@CTimeMarkerAddInImp@@MAEXPBD0H@Z
_TEXT	SEGMENT
_p_szGShareKey$ = 8					; size = 4
_p_szGShareValue$ = 12					; size = 4
_p_bStartShare$ = 16					; size = 4
?OnGSharedDataChange@CTimeMarkerAddInImp@@MAEXPBD0H@Z PROC ; CTimeMarkerAddInImp::OnGSharedDataChange, COMDAT
; _this$ = ecx

; 540  : {

  00000	55		 push	 ebp
  00001	8b ec		 mov	 ebp, esp
  00003	57		 push	 edi
  00004	8b f9		 mov	 edi, ecx

; 541  : 	// (2004.09.30, )    Flag     .
; 542  : 	//		  .
; 543  : 	if( !m_bEnableReceivingTimeShare) return;

  00006	83 7f 5c 00	 cmp	 DWORD PTR [edi+92], 0
  0000a	74 3e		 je	 SHORT $LN1@OnGSharedD

; 544  : 
; 545  : 	// 0.      .
; 546  : 	if( strnicmp( p_szGShareKey, _MTEXT( C6_TIME_GRID), 11)) return;

  0000c	a1 54 00 00 00	 mov	 eax, DWORD PTR ?g_iMetaTable@@3VIMetaTable@@A+84
  00011	56		 push	 esi
  00012	8b 75 08	 mov	 esi, DWORD PTR _p_szGShareKey$[ebp]
  00015	6a 0b		 push	 11			; 0000000bH
  00017	ff b0 98 09 00
	00		 push	 DWORD PTR [eax+2456]
  0001d	56		 push	 esi
  0001e	ff 15 00 00 00
	00		 call	 DWORD PTR __imp__strnicmp
  00024	83 c4 0c	 add	 esp, 12			; 0000000cH
  00027	85 c0		 test	 eax, eax
  00029	75 1e		 jne	 SHORT $LN7@OnGSharedD

; 547  : 	if( p_szGShareKey[ 11] != '\0' &&  !( p_szGShareKey[ 11] == ';' && p_szGShareKey[ 12] == '\0')) return;

  0002b	8a 46 0b	 mov	 al, BYTE PTR [esi+11]
  0002e	84 c0		 test	 al, al
  00030	74 0a		 je	 SHORT $LN4@OnGSharedD
  00032	3c 3b		 cmp	 al, 59			; 0000003bH
  00034	75 13		 jne	 SHORT $LN7@OnGSharedD
  00036	80 7e 0c 00	 cmp	 BYTE PTR [esi+12], 0
  0003a	75 0d		 jne	 SHORT $LN7@OnGSharedD
$LN4@OnGSharedD:

; 548  : 
; 549  : 	// 1. TimeMarker   .
; 550  : 	// (2004.09.14, )  OCX Invalidate  .
; 551  : 	SetTimeMarkString( p_szGShareValue);

  0003c	6a 01		 push	 1
  0003e	ff 75 0c	 push	 DWORD PTR _p_szGShareValue$[ebp]
  00041	8d 4f f8	 lea	 ecx, DWORD PTR [edi-8]
  00044	e8 00 00 00 00	 call	 ?SetTimeMarkString@CTimeMarkerAddInImp@@IAEXPBDH@Z ; CTimeMarkerAddInImp::SetTimeMarkString
$LN7@OnGSharedD:
  00049	5e		 pop	 esi
$LN1@OnGSharedD:
  0004a	5f		 pop	 edi

; 552  : }

  0004b	5d		 pop	 ebp
  0004c	c2 0c 00	 ret	 12			; 0000000cH
?OnGSharedDataChange@CTimeMarkerAddInImp@@MAEXPBD0H@Z ENDP ; CTimeMarkerAddInImp::OnGSharedDataChange
_TEXT	ENDS
; Function compile flags: /Ogtp
; File D:\git\src\IBK\IBK_DRFN\ProjSrc\SrcChartEx\ChartOCX\AddInManager\ChartCommonAddIn\TimeMarkerAddInImp.cpp
;	COMDAT ?InvokeAddIn@CTimeMarkerAddInImp@@MAEHHJ@Z
_TEXT	SEGMENT
_p_nCommandType$ = 8					; size = 4
_p_lData$ = 12						; size = 4
?InvokeAddIn@CTimeMarkerAddInImp@@MAEHHJ@Z PROC		; CTimeMarkerAddInImp::InvokeAddIn, COMDAT
; _this$ = ecx

; 508  : {

  00000	55		 push	 ebp
  00001	8b ec		 mov	 ebp, esp
  00003	56		 push	 esi
  00004	8b f1		 mov	 esi, ecx

; 509  : 	switch( p_nCommandType)

  00006	8b 4d 08	 mov	 ecx, DWORD PTR _p_nCommandType$[ebp]
  00009	8b c1		 mov	 eax, ecx
  0000b	83 e8 00	 sub	 eax, 0
  0000e	74 46		 je	 SHORT $LN4@InvokeAddI
  00010	83 e8 01	 sub	 eax, 1
  00013	74 18		 je	 SHORT $LN5@InvokeAddI
  00015	83 e8 01	 sub	 eax, 1
  00018	74 06		 je	 SHORT $LN6@InvokeAddI

; 517  : 				break;
; 518  : 	}
; 519  : 
; 520  : 	if( 0 < p_nCommandType && !m_bEnableReceivingTimeShare)

  0001a	85 c9		 test	 ecx, ecx
  0001c	7e 43		 jle	 SHORT $LN7@InvokeAddI
  0001e	eb 18		 jmp	 SHORT $LN11@InvokeAddI
$LN6@InvokeAddI:

; 514  : 				break;
; 515  : 		case 2:	m_bEnableFiringTimeShare = ( p_lData != 0);

  00020	33 c0		 xor	 eax, eax
  00022	39 45 0c	 cmp	 DWORD PTR _p_lData$[ebp], eax
  00025	0f 95 c0	 setne	 al
  00028	89 46 60	 mov	 DWORD PTR [esi+96], eax

; 516  : 				m_bEnableReceivingTimeShare = ( p_lData != 0);

  0002b	eb 08		 jmp	 SHORT $LN12@InvokeAddI
$LN5@InvokeAddI:

; 512  : 				break;
; 513  : 		case 1:	m_bEnableReceivingTimeShare = ( p_lData != 0);

  0002d	33 c0		 xor	 eax, eax
  0002f	39 45 0c	 cmp	 DWORD PTR _p_lData$[ebp], eax
  00032	0f 95 c0	 setne	 al
$LN12@InvokeAddI:

; 517  : 				break;
; 518  : 	}
; 519  : 
; 520  : 	if( 0 < p_nCommandType && !m_bEnableReceivingTimeShare)

  00035	89 46 5c	 mov	 DWORD PTR [esi+92], eax
$LN11@InvokeAddI:
  00038	83 7e 5c 00	 cmp	 DWORD PTR [esi+92], 0
  0003c	75 23		 jne	 SHORT $LN7@InvokeAddI

; 521  : 	{
; 522  : 		ClearTimeMark();
; 523  : 		// (2004.12.13, ) NULL Pointer .
; 524  : 		m_pIChartOCX->InvalidateControl();

  0003e	8b 4e 04	 mov	 ecx, DWORD PTR [esi+4]
  00041	c7 46 38 00 00
	00 00		 mov	 DWORD PTR [esi+56], 0
  00048	c7 46 3c 00 00
	00 00		 mov	 DWORD PTR [esi+60], 0
  0004f	8b 01		 mov	 eax, DWORD PTR [ecx]
  00051	ff 50 38	 call	 DWORD PTR [eax+56]
  00054	eb 0b		 jmp	 SHORT $LN7@InvokeAddI
$LN4@InvokeAddI:

; 510  : 	{
; 511  : 		case 0:	m_bEnableFiringTimeShare = ( p_lData != 0);

  00056	33 c0		 xor	 eax, eax
  00058	39 45 0c	 cmp	 DWORD PTR _p_lData$[ebp], eax
  0005b	0f 95 c0	 setne	 al
  0005e	89 46 60	 mov	 DWORD PTR [esi+96], eax
$LN7@InvokeAddI:

; 525  : 	}
; 526  : 
; 527  : 	// (2006/11/24 - Seung-Won, Bae) Notify Tool State.
; 528  : 	m_pIChartOCX->OnToolStateChanged( CToolOptionInfo::T_ENABLE_TIMEMARK, m_bEnableFiringTimeShare && m_bEnableReceivingTimeShare);

  00061	83 7e 60 00	 cmp	 DWORD PTR [esi+96], 0
  00065	74 0d		 je	 SHORT $LN9@InvokeAddI
  00067	83 7e 5c 00	 cmp	 DWORD PTR [esi+92], 0
  0006b	74 07		 je	 SHORT $LN9@InvokeAddI
  0006d	ba 01 00 00 00	 mov	 edx, 1
  00072	eb 02		 jmp	 SHORT $LN10@InvokeAddI
$LN9@InvokeAddI:
  00074	33 d2		 xor	 edx, edx
$LN10@InvokeAddI:
  00076	8b 4e 04	 mov	 ecx, DWORD PTR [esi+4]
  00079	52		 push	 edx
  0007a	6a 68		 push	 104			; 00000068H
  0007c	8b 01		 mov	 eax, DWORD PTR [ecx]
  0007e	ff 90 b0 01 00
	00		 call	 DWORD PTR [eax+432]

; 529  : 
; 530  : 	return TRUE;

  00084	b8 01 00 00 00	 mov	 eax, 1
  00089	5e		 pop	 esi

; 531  : }

  0008a	5d		 pop	 ebp
  0008b	c2 08 00	 ret	 8
?InvokeAddIn@CTimeMarkerAddInImp@@MAEHHJ@Z ENDP		; CTimeMarkerAddInImp::InvokeAddIn
_TEXT	ENDS
; Function compile flags: /Ogtp
; File D:\git\src\IBK\IBK_DRFN\ProjSrc\SrcChartEx\ChartOCX\AddInManager\ChartCommonAddIn\TimeMarkerAddInImp.cpp
;	COMDAT ?OnSetTimeMark@CTimeMarkerAddInImp@@IAEXPBDH@Z
_TEXT	SEGMENT
_p_szMarkTime$ = 8					; size = 4
_p_bWithScroll$ = 12					; size = 4
?OnSetTimeMark@CTimeMarkerAddInImp@@IAEXPBDH@Z PROC	; CTimeMarkerAddInImp::OnSetTimeMark, COMDAT
; _this$ = ecx

; 491  : {

  00000	55		 push	 ebp
  00001	8b ec		 mov	 ebp, esp

; 492  : 	// 1. Null String  TimeMark Clear.
; 493  : 	if( !p_szMarkTime || !p_szMarkTime[ 0])

  00003	8b 45 08	 mov	 eax, DWORD PTR _p_szMarkTime$[ebp]
  00006	85 c0		 test	 eax, eax
  00008	74 0e		 je	 SHORT $LN3@OnSetTimeM
  0000a	80 38 00	 cmp	 BYTE PTR [eax], 0
  0000d	74 09		 je	 SHORT $LN3@OnSetTimeM

; 496  : 		return;
; 497  : 	}
; 498  : 
; 499  : 	// 2. TimeMark String   . (  .)
; 500  : 	// (2004.09.14, )  OCX Invalidate  .
; 501  : 	SetTimeMarkString( p_szMarkTime, p_bWithScroll);

  0000f	89 45 08	 mov	 DWORD PTR _p_szMarkTime$[ebp], eax

; 502  : }

  00012	5d		 pop	 ebp

; 496  : 		return;
; 497  : 	}
; 498  : 
; 499  : 	// 2. TimeMark String   . (  .)
; 500  : 	// (2004.09.14, )  OCX Invalidate  .
; 501  : 	SetTimeMarkString( p_szMarkTime, p_bWithScroll);

  00013	e9 00 00 00 00	 jmp	 ?SetTimeMarkString@CTimeMarkerAddInImp@@IAEXPBDH@Z ; CTimeMarkerAddInImp::SetTimeMarkString
$LN3@OnSetTimeM:

; 494  : 	{
; 495  : 		ClearTimeMark();

  00018	c7 41 40 00 00
	00 00		 mov	 DWORD PTR [ecx+64], 0
  0001f	c7 41 44 00 00
	00 00		 mov	 DWORD PTR [ecx+68], 0

; 502  : }

  00026	5d		 pop	 ebp
  00027	c2 08 00	 ret	 8
?OnSetTimeMark@CTimeMarkerAddInImp@@IAEXPBDH@Z ENDP	; CTimeMarkerAddInImp::OnSetTimeMark
_TEXT	ENDS
; Function compile flags: /Ogtp
; File D:\git\src\IBK\IBK_DRFN\ProjSrc\SrcChartEx\ChartOCX\AddInManager\ChartCommonAddIn\TimeMarkerAddInImp.cpp
;	COMDAT ?OnEnableReceivingTimeShare@CTimeMarkerAddInImp@@IAEXH@Z
_TEXT	SEGMENT
_p_bEnable$ = 8						; size = 4
?OnEnableReceivingTimeShare@CTimeMarkerAddInImp@@IAEXH@Z PROC ; CTimeMarkerAddInImp::OnEnableReceivingTimeShare, COMDAT
; _this$ = ecx

; 478  : {

  00000	55		 push	 ebp
  00001	8b ec		 mov	 ebp, esp

; 479  : 	m_bEnableReceivingTimeShare = p_bEnable;

  00003	8b 45 08	 mov	 eax, DWORD PTR _p_bEnable$[ebp]
  00006	89 41 64	 mov	 DWORD PTR [ecx+100], eax

; 480  : 	// (2004.09.30, )       Clear.
; 481  : 	if( !m_bEnableReceivingTimeShare)

  00009	85 c0		 test	 eax, eax
  0000b	75 0e		 jne	 SHORT $LN2@OnEnableRe

; 482  : 	{
; 483  : 		ClearTimeMark();

  0000d	89 41 40	 mov	 DWORD PTR [ecx+64], eax
  00010	89 41 44	 mov	 DWORD PTR [ecx+68], eax

; 484  : 		// (2004.12.13, ) NULL Pointer .
; 485  : 		m_pIChartOCX->InvalidateControl();

  00013	8b 49 0c	 mov	 ecx, DWORD PTR [ecx+12]
  00016	8b 01		 mov	 eax, DWORD PTR [ecx]
  00018	ff 50 38	 call	 DWORD PTR [eax+56]
$LN2@OnEnableRe:

; 486  : 	}
; 487  : }

  0001b	5d		 pop	 ebp
  0001c	c2 04 00	 ret	 4
?OnEnableReceivingTimeShare@CTimeMarkerAddInImp@@IAEXH@Z ENDP ; CTimeMarkerAddInImp::OnEnableReceivingTimeShare
_TEXT	ENDS
; Function compile flags: /Ogtp
; File D:\git\src\IBK\IBK_DRFN\ProjSrc\SrcChartEx\ChartOCX\AddInManager\ChartCommonAddIn\TimeMarkerAddInImp.cpp
;	COMDAT ?ClearTimeMark@CTimeMarkerAddInImp@@IAEHVCPoint@@@Z
_TEXT	SEGMENT
_dSelectedDate$2 = -36					; size = 8
_lPointTime$1$ = -28					; size = 4
_lPointTime$2$ = -24					; size = 4
_nTimeIndex$ = -20					; size = 4
_strMarkTime$ = -16					; size = 4
__$EHRec$ = -12						; size = 12
_p_ptPoint$ = 8						; size = 8
?ClearTimeMark@CTimeMarkerAddInImp@@IAEHVCPoint@@@Z PROC ; CTimeMarkerAddInImp::ClearTimeMark, COMDAT
; _this$ = ecx

; 434  : {

  00000	55		 push	 ebp
  00001	8b ec		 mov	 ebp, esp
  00003	6a ff		 push	 -1
  00005	68 00 00 00 00	 push	 __ehhandler$?ClearTimeMark@CTimeMarkerAddInImp@@IAEHVCPoint@@@Z
  0000a	64 a1 00 00 00
	00		 mov	 eax, DWORD PTR fs:0
  00010	50		 push	 eax
  00011	83 ec 18	 sub	 esp, 24			; 00000018H
  00014	53		 push	 ebx
  00015	56		 push	 esi
  00016	57		 push	 edi
  00017	a1 00 00 00 00	 mov	 eax, DWORD PTR ___security_cookie
  0001c	33 c5		 xor	 eax, ebp
  0001e	50		 push	 eax
  0001f	8d 45 f4	 lea	 eax, DWORD PTR __$EHRec$[ebp]
  00022	64 a3 00 00 00
	00		 mov	 DWORD PTR fs:0, eax
  00028	8b d9		 mov	 ebx, ecx

; 435  : 	// 0.       .
; 436  : 	if( !m_lMarkTime) return FALSE;

  0002a	8b 43 40	 mov	 eax, DWORD PTR [ebx+64]
  0002d	0b 43 44	 or	 eax, DWORD PTR [ebx+68]
  00030	75 14		 jne	 SHORT $LN2@ClearTimeM

; 473  : }

  00032	8b 4d f4	 mov	 ecx, DWORD PTR __$EHRec$[ebp]
  00035	64 89 0d 00 00
	00 00		 mov	 DWORD PTR fs:0, ecx
  0003c	59		 pop	 ecx
  0003d	5f		 pop	 edi
  0003e	5e		 pop	 esi
  0003f	5b		 pop	 ebx
  00040	8b e5		 mov	 esp, ebp
  00042	5d		 pop	 ebp
  00043	c2 08 00	 ret	 8
$LN2@ClearTimeM:

; 437  : 
; 438  : 	// 1.  Mouse   .
; 439  : 	// 1.1   String .
; 440  : 	CString strMarkTime;

  00046	8d 4d f0	 lea	 ecx, DWORD PTR _strMarkTime$[ebp]
  00049	ff 15 00 00 00
	00		 call	 DWORD PTR __imp_??0?$CStringT@DV?$StrTraitMFC_DLL@DV?$ChTraitsCRT@D@ATL@@@@@ATL@@QAE@XZ

; 441  : 	if( !GetMarkTimeInString( p_ptPoint, strMarkTime)) return FALSE;

  0004f	8d 45 f0	 lea	 eax, DWORD PTR _strMarkTime$[ebp]
  00052	c7 45 fc 00 00
	00 00		 mov	 DWORD PTR __$EHRec$[ebp+8], 0
  00059	50		 push	 eax
  0005a	ff 75 0c	 push	 DWORD PTR _p_ptPoint$[ebp+4]
  0005d	8b cb		 mov	 ecx, ebx
  0005f	ff 75 08	 push	 DWORD PTR _p_ptPoint$[ebp]
  00062	e8 00 00 00 00	 call	 ?GetMarkTimeInString@CTimeMarkerAddInImp@@IAEHVCPoint@@AAV?$CStringT@DV?$StrTraitMFC_DLL@DV?$ChTraitsCRT@D@ATL@@@@@ATL@@@Z ; CTimeMarkerAddInImp::GetMarkTimeInString
  00067	85 c0		 test	 eax, eax
  00069	0f 84 9e 00 00
	00		 je	 $LN13@ClearTimeM

; 442  : 	// 1.2    .
; 443  : 	int nTimeIndex = 0;
; 444  : 	// 2011.01.06 by SYS >>  YYYY() 
; 445  : 	//long lPointTime = GetTimeValue( strMarkTime, nTimeIndex);
; 446  : 	__int64 lPointTime = GetTimeValue( strMarkTime, nTimeIndex);

  0006f	8d 45 ec	 lea	 eax, DWORD PTR _nTimeIndex$[ebp]
  00072	c7 45 ec 00 00
	00 00		 mov	 DWORD PTR _nTimeIndex$[ebp], 0
  00079	50		 push	 eax
  0007a	ff 75 f0	 push	 DWORD PTR _strMarkTime$[ebp]
  0007d	8b cb		 mov	 ecx, ebx
  0007f	e8 00 00 00 00	 call	 ?GetTimeValue@CTimeMarkerAddInImp@@IAE_JPBDAAH@Z ; CTimeMarkerAddInImp::GetTimeValue
  00084	8b c8		 mov	 ecx, eax
  00086	8b c2		 mov	 eax, edx
  00088	89 4d e8	 mov	 DWORD PTR _lPointTime$2$[ebp], ecx

; 447  : 	// 2011.01.06 by SYS <<
; 448  : 
; 449  : 	if( !lPointTime) return FALSE;

  0008b	0b c8		 or	 ecx, eax
  0008d	89 45 e4	 mov	 DWORD PTR _lPointTime$1$[ebp], eax
  00090	74 7b		 je	 SHORT $LN13@ClearTimeM

; 450  : 
; 451  : 	// 2.       ,
; 452  : 	//		Clear .
; 453  : 	// 2.1   .
; 454  : 	// 2.1.1        (  )
; 455  : 	//		     .
; 456  : 	long lMarkTime = 0;
; 457  : 	IPacket *pIPacket = NULL;
; 458  : 	pIPacket = m_pIDefaultPacketManager->GetPacket( _MTEXT( C0_DATE_TIME));

  00092	8b 4b 20	 mov	 ecx, DWORD PTR [ebx+32]
  00095	8b 35 54 00 00
	00		 mov	 esi, DWORD PTR ?g_iMetaTable@@3VIMetaTable@@A+84
  0009b	8b 39		 mov	 edi, DWORD PTR [ecx]
  0009d	ff 36		 push	 DWORD PTR [esi]
  0009f	ff 57 10	 call	 DWORD PTR [edi+16]
  000a2	8b f8		 mov	 edi, eax

; 459  : 	if( pIPacket)

  000a4	85 ff		 test	 edi, edi
  000a6	74 65		 je	 SHORT $LN13@ClearTimeM

; 460  : 	{
; 461  : 		double dSelectedDate;
; 462  : 		if( !pIPacket->GetCurOrPrevIndexFromData( m_lMarkTime, nTimeIndex, dSelectedDate)) dSelectedDate = 0;

  000a8	8b 53 44	 mov	 edx, DWORD PTR [ebx+68]
  000ab	8d 45 dc	 lea	 eax, DWORD PTR _dSelectedDate$2[ebp]
  000ae	8b 4b 40	 mov	 ecx, DWORD PTR [ebx+64]
  000b1	8b 37		 mov	 esi, DWORD PTR [edi]
  000b3	50		 push	 eax
  000b4	8d 45 ec	 lea	 eax, DWORD PTR _nTimeIndex$[ebp]
  000b7	50		 push	 eax
  000b8	e8 00 00 00 00	 call	 __ltod3
  000bd	83 ec 08	 sub	 esp, 8
  000c0	8b cf		 mov	 ecx, edi
  000c2	f2 0f 11 04 24	 movsd	 QWORD PTR [esp], xmm0
  000c7	ff 56 38	 call	 DWORD PTR [esi+56]
  000ca	85 c0		 test	 eax, eax
  000cc	75 08		 jne	 SHORT $LN6@ClearTimeM
  000ce	0f 57 c0	 xorps	 xmm0, xmm0
  000d1	f2 0f 11 45 dc	 movsd	 QWORD PTR _dSelectedDate$2[ebp], xmm0
$LN6@ClearTimeM:

; 463  : 		pIPacket->Release();

  000d6	8b 07		 mov	 eax, DWORD PTR [edi]
  000d8	57		 push	 edi
  000d9	ff 50 08	 call	 DWORD PTR [eax+8]

; 464  : 		lMarkTime = ( long)dSelectedDate;

  000dc	f2 0f 2c 45 dc	 cvttsd2si eax, QWORD PTR _dSelectedDate$2[ebp]

; 465  : 	}
; 466  : 	if( !lMarkTime) return FALSE;

  000e1	85 c0		 test	 eax, eax
  000e3	74 28		 je	 SHORT $LN13@ClearTimeM

; 467  : 	// 2.1.2     .
; 468  : 	if( lPointTime != lMarkTime) return FALSE;

  000e5	99		 cdq
  000e6	39 45 e8	 cmp	 DWORD PTR _lPointTime$2$[ebp], eax
  000e9	75 22		 jne	 SHORT $LN13@ClearTimeM
  000eb	39 55 e4	 cmp	 DWORD PTR _lPointTime$1$[ebp], edx
  000ee	75 1d		 jne	 SHORT $LN13@ClearTimeM

; 469  : 	// 2.2   Clear .
; 470  : 	ClearTimeMark();
; 471  : 	m_pIChartOCX->InvalidateControl();

  000f0	8b 4b 0c	 mov	 ecx, DWORD PTR [ebx+12]
  000f3	c7 43 40 00 00
	00 00		 mov	 DWORD PTR [ebx+64], 0
  000fa	c7 43 44 00 00
	00 00		 mov	 DWORD PTR [ebx+68], 0
  00101	8b 01		 mov	 eax, DWORD PTR [ecx]
  00103	ff 50 38	 call	 DWORD PTR [eax+56]

; 472  : 	return TRUE;

  00106	be 01 00 00 00	 mov	 esi, 1
  0010b	eb 02		 jmp	 SHORT $LN14@ClearTimeM
$LN13@ClearTimeM:
  0010d	33 f6		 xor	 esi, esi
$LN14@ClearTimeM:
  0010f	8d 4d f0	 lea	 ecx, DWORD PTR _strMarkTime$[ebp]
  00112	ff 15 00 00 00
	00		 call	 DWORD PTR __imp_??1?$CStringT@DV?$StrTraitMFC_DLL@DV?$ChTraitsCRT@D@ATL@@@@@ATL@@QAE@XZ
  00118	8b c6		 mov	 eax, esi

; 473  : }

  0011a	8b 4d f4	 mov	 ecx, DWORD PTR __$EHRec$[ebp]
  0011d	64 89 0d 00 00
	00 00		 mov	 DWORD PTR fs:0, ecx
  00124	59		 pop	 ecx
  00125	5f		 pop	 edi
  00126	5e		 pop	 esi
  00127	5b		 pop	 ebx
  00128	8b e5		 mov	 esp, ebp
  0012a	5d		 pop	 ebp
  0012b	c2 08 00	 ret	 8
_TEXT	ENDS
;	COMDAT text$x
text$x	SEGMENT
__unwindfunclet$?ClearTimeMark@CTimeMarkerAddInImp@@IAEHVCPoint@@@Z$0:
  00000	8d 4d f0	 lea	 ecx, DWORD PTR _strMarkTime$[ebp]
  00003	ff 25 00 00 00
	00		 jmp	 DWORD PTR __imp_??1?$CStringT@DV?$StrTraitMFC_DLL@DV?$ChTraitsCRT@D@ATL@@@@@ATL@@QAE@XZ
  00009	cc		 int	 3
  0000a	cc		 int	 3
  0000b	cc		 int	 3
  0000c	cc		 int	 3
  0000d	cc		 int	 3
__ehhandler$?ClearTimeMark@CTimeMarkerAddInImp@@IAEHVCPoint@@@Z:
  0000e	90		 npad	 1
  0000f	90		 npad	 1
  00010	8b 54 24 08	 mov	 edx, DWORD PTR [esp+8]
  00014	8d 42 0c	 lea	 eax, DWORD PTR [edx+12]
  00017	8b 4a d8	 mov	 ecx, DWORD PTR [edx-40]
  0001a	33 c8		 xor	 ecx, eax
  0001c	e8 00 00 00 00	 call	 @__security_check_cookie@4
  00021	b8 00 00 00 00	 mov	 eax, OFFSET __ehfuncinfo$?ClearTimeMark@CTimeMarkerAddInImp@@IAEHVCPoint@@@Z
  00026	e9 00 00 00 00	 jmp	 ___CxxFrameHandler3
text$x	ENDS
?ClearTimeMark@CTimeMarkerAddInImp@@IAEHVCPoint@@@Z ENDP ; CTimeMarkerAddInImp::ClearTimeMark
; Function compile flags: /Ogtp
; File D:\git\src\IBK\IBK_DRFN\ProjSrc\SrcChartEx\ChartOCX\AddInManager\ChartCommonAddIn\TimeMarkerAddInImp.cpp
; File C:\Program Files (x86)\Microsoft Visual Studio\2019\Community\VC\Tools\MSVC\14.29.30133\atlmfc\include\atltypes.h
; File D:\git\src\IBK\IBK_DRFN\ProjSrc\SrcChartEx\ChartOCX\AddInManager\ChartCommonAddIn\TimeMarkerAddInImp.cpp
; File C:\Program Files (x86)\Microsoft Visual Studio\2019\Community\VC\Tools\MSVC\14.29.30133\atlmfc\include\atltypes.h
; File D:\git\src\IBK\IBK_DRFN\ProjSrc\SrcChartEx\ChartOCX\AddInManager\ChartCommonAddIn\TimeMarkerAddInImp.cpp
; File C:\Program Files (x86)\Microsoft Visual Studio\2019\Community\VC\Tools\MSVC\14.29.30133\atlmfc\include\atltypes.h
; File D:\git\src\IBK\IBK_DRFN\ProjSrc\SrcChartEx\ChartOCX\AddInManager\ChartCommonAddIn\TimeMarkerAddInImp.cpp
; File C:\Program Files (x86)\Microsoft Visual Studio\2019\Community\VC\Tools\MSVC\14.29.30133\atlmfc\include\atltypes.h
; File D:\git\src\IBK\IBK_DRFN\ProjSrc\SrcChartEx\ChartOCX\AddInManager\ChartCommonAddIn\TimeMarkerAddInImp.cpp
; File C:\Program Files (x86)\Microsoft Visual Studio\2019\Community\VC\Tools\MSVC\14.29.30133\atlmfc\include\atltypes.h
; File D:\git\src\IBK\IBK_DRFN\ProjSrc\SrcChartEx\ChartOCX\AddInManager\ChartCommonAddIn\TimeMarkerAddInImp.cpp
; File C:\Program Files (x86)\Microsoft Visual Studio\2019\Community\VC\Tools\MSVC\14.29.30133\atlmfc\include\atltypes.h
; File D:\git\src\IBK\IBK_DRFN\ProjSrc\SrcChartEx\ChartOCX\AddInManager\ChartCommonAddIn\TimeMarkerAddInImp.cpp
; File C:\Program Files (x86)\Microsoft Visual Studio\2019\Community\VC\Tools\MSVC\14.29.30133\atlmfc\include\atltypes.h
; File D:\git\src\IBK\IBK_DRFN\ProjSrc\SrcChartEx\ChartOCX\AddInManager\ChartCommonAddIn\TimeMarkerAddInImp.cpp
; File D:\git\src\IBK\IBK_DRFN\ProjSrc\SrcChartEx\ChartOCX\AddInManager\Include_Addin\I000000\_IString.h
; File D:\git\src\IBK\IBK_DRFN\ProjSrc\SrcChartEx\ChartOCX\AddInManager\ChartCommonAddIn\TimeMarkerAddInImp.cpp
; File C:\Program Files (x86)\Microsoft Visual Studio\2019\Community\VC\Tools\MSVC\14.29.30133\atlmfc\include\cstringt.h
; File D:\git\src\IBK\IBK_DRFN\ProjSrc\SrcChartEx\ChartOCX\AddInManager\ChartCommonAddIn\TimeMarkerAddInImp.cpp
; File C:\Program Files (x86)\Microsoft Visual Studio\2019\Community\VC\Tools\MSVC\14.29.30133\atlmfc\include\cstringt.h
; File D:\git\src\IBK\IBK_DRFN\ProjSrc\SrcChartEx\ChartOCX\AddInManager\ChartCommonAddIn\TimeMarkerAddInImp.cpp
; File C:\Program Files (x86)\Microsoft Visual Studio\2019\Community\VC\Tools\MSVC\14.29.30133\atlmfc\include\cstringt.h
; File D:\git\src\IBK\IBK_DRFN\ProjSrc\SrcChartEx\ChartOCX\AddInManager\ChartCommonAddIn\TimeMarkerAddInImp.cpp
; File C:\Program Files (x86)\Microsoft Visual Studio\2019\Community\VC\Tools\MSVC\14.29.30133\atlmfc\include\cstringt.h
; File D:\git\src\IBK\IBK_DRFN\ProjSrc\SrcChartEx\ChartOCX\AddInManager\ChartCommonAddIn\TimeMarkerAddInImp.cpp
; File C:\Program Files (x86)\Microsoft Visual Studio\2019\Community\VC\Tools\MSVC\14.29.30133\atlmfc\include\cstringt.h
; File D:\git\src\IBK\IBK_DRFN\ProjSrc\SrcChartEx\ChartOCX\AddInManager\ChartCommonAddIn\TimeMarkerAddInImp.cpp
; File C:\Program Files (x86)\Microsoft Visual Studio\2019\Community\VC\Tools\MSVC\14.29.30133\atlmfc\include\cstringt.h
; File D:\git\src\IBK\IBK_DRFN\ProjSrc\SrcChartEx\ChartOCX\AddInManager\ChartCommonAddIn\TimeMarkerAddInImp.cpp
; File C:\Program Files (x86)\Microsoft Visual Studio\2019\Community\VC\Tools\MSVC\14.29.30133\atlmfc\include\cstringt.h
; File D:\git\src\IBK\IBK_DRFN\ProjSrc\SrcChartEx\ChartOCX\AddInManager\ChartCommonAddIn\TimeMarkerAddInImp.cpp
; File C:\Program Files (x86)\Microsoft Visual Studio\2019\Community\VC\Tools\MSVC\14.29.30133\atlmfc\include\cstringt.h
; File D:\git\src\IBK\IBK_DRFN\ProjSrc\SrcChartEx\ChartOCX\AddInManager\ChartCommonAddIn\TimeMarkerAddInImp.cpp
; File C:\Program Files (x86)\Microsoft Visual Studio\2019\Community\VC\Tools\MSVC\14.29.30133\atlmfc\include\cstringt.h
; File D:\git\src\IBK\IBK_DRFN\ProjSrc\SrcChartEx\ChartOCX\AddInManager\ChartCommonAddIn\TimeMarkerAddInImp.cpp
; File C:\Program Files (x86)\Microsoft Visual Studio\2019\Community\VC\Tools\MSVC\14.29.30133\atlmfc\include\cstringt.h
; File D:\git\src\IBK\IBK_DRFN\ProjSrc\SrcChartEx\ChartOCX\AddInManager\ChartCommonAddIn\TimeMarkerAddInImp.cpp
; File C:\Program Files (x86)\Microsoft Visual Studio\2019\Community\VC\Tools\MSVC\14.29.30133\atlmfc\include\cstringt.h
; File D:\git\src\IBK\IBK_DRFN\ProjSrc\SrcChartEx\ChartOCX\AddInManager\ChartCommonAddIn\TimeMarkerAddInImp.cpp
; File C:\Program Files (x86)\Microsoft Visual Studio\2019\Community\VC\Tools\MSVC\14.29.30133\atlmfc\include\cstringt.h
; File D:\git\src\IBK\IBK_DRFN\ProjSrc\SrcChartEx\ChartOCX\AddInManager\ChartCommonAddIn\TimeMarkerAddInImp.cpp
; File C:\Program Files (x86)\Microsoft Visual Studio\2019\Community\VC\Tools\MSVC\14.29.30133\atlmfc\include\cstringt.h
; File D:\git\src\IBK\IBK_DRFN\ProjSrc\SrcChartEx\ChartOCX\AddInManager\ChartCommonAddIn\TimeMarkerAddInImp.cpp
; File C:\Program Files (x86)\Microsoft Visual Studio\2019\Community\VC\Tools\MSVC\14.29.30133\atlmfc\include\cstringt.h
; File D:\git\src\IBK\IBK_DRFN\ProjSrc\SrcChartEx\ChartOCX\AddInManager\ChartCommonAddIn\TimeMarkerAddInImp.cpp
; File C:\Program Files (x86)\Microsoft Visual Studio\2019\Community\VC\Tools\MSVC\14.29.30133\atlmfc\include\cstringt.h
; File D:\git\src\IBK\IBK_DRFN\ProjSrc\SrcChartEx\ChartOCX\AddInManager\ChartCommonAddIn\TimeMarkerAddInImp.cpp
; File C:\Program Files (x86)\Microsoft Visual Studio\2019\Community\VC\Tools\MSVC\14.29.30133\atlmfc\include\atlsimpstr.h
; File D:\git\src\IBK\IBK_DRFN\ProjSrc\SrcChartEx\ChartOCX\AddInManager\ChartCommonAddIn\TimeMarkerAddInImp.cpp
;	COMDAT ?GetMarkTimeInString@CTimeMarkerAddInImp@@IAEHVCPoint@@AAV?$CStringT@DV?$StrTraitMFC_DLL@DV?$ChTraitsCRT@D@ATL@@@@@ATL@@@Z
_TEXT	SEGMENT
_dMarkTime$2 = -152					; size = 8
_nStartIndex$ = -144					; size = 4
_nEndIndex$ = -140					; size = 4
$T3 = -136						; size = 4
$T4 = -132						; size = 4
_nRow$ = -128						; size = 4
_nColumn$ = -124					; size = 4
_pIPacket$ = -120					; size = 4
_p_strMarkTime$GSCopy$1$ = -116				; size = 4
_nEnd$1$ = -116						; size = 4
_strPacketType$5 = -112					; size = 4
_nYear$1$ = -108					; size = 4
_nMonth$1$ = -104					; size = 4
_nDay$1$ = -104						; size = 4
_nHour$1$ = -104					; size = 4
_nMinute$1$ = -104					; size = 4
_nSecond$1$ = -104					; size = 4
_nNSecond$1$ = -104					; size = 4
_nDataIndex$1$ = -104					; size = 4
$T6 = -104						; size = 4
$T7 = -104						; size = 4
$T8 = -104						; size = 4
$T9 = -104						; size = 4
$T10 = -104						; size = 4
_rctGraphRegion$ = -100					; size = 16
_rctNoFrameAndMargin$ = -84				; size = 16
$T11 = -68						; size = 16
_szPacketType$12 = -60					; size = 8
_stTime$13 = -52					; size = 16
_rctBlockRegion$ = -36					; size = 16
__$ArrayPad$ = -20					; size = 4
__$EHRec$ = -16						; size = 16
_p_ptPoint$ = 8						; size = 8
_p_strMarkTime$ = 16					; size = 4
?GetMarkTimeInString@CTimeMarkerAddInImp@@IAEHVCPoint@@AAV?$CStringT@DV?$StrTraitMFC_DLL@DV?$ChTraitsCRT@D@ATL@@@@@ATL@@@Z PROC ; CTimeMarkerAddInImp::GetMarkTimeInString, COMDAT
; _this$ = ecx

; 157  : {

  00000	55		 push	 ebp
  00001	8b ec		 mov	 ebp, esp
  00003	6a ff		 push	 -1
  00005	68 00 00 00 00	 push	 __ehhandler$?GetMarkTimeInString@CTimeMarkerAddInImp@@IAEHVCPoint@@AAV?$CStringT@DV?$StrTraitMFC_DLL@DV?$ChTraitsCRT@D@ATL@@@@@ATL@@@Z
  0000a	64 a1 00 00 00
	00		 mov	 eax, DWORD PTR fs:0
  00010	50		 push	 eax
  00011	81 ec 8c 00 00
	00		 sub	 esp, 140		; 0000008cH
  00017	a1 00 00 00 00	 mov	 eax, DWORD PTR ___security_cookie
  0001c	33 c5		 xor	 eax, ebp
  0001e	89 45 ec	 mov	 DWORD PTR __$ArrayPad$[ebp], eax
  00021	53		 push	 ebx
  00022	56		 push	 esi
  00023	57		 push	 edi
  00024	50		 push	 eax
  00025	8d 45 f4	 lea	 eax, DWORD PTR __$EHRec$[ebp+4]
  00028	64 a3 00 00 00
	00		 mov	 DWORD PTR fs:0, eax
  0002e	89 65 f0	 mov	 DWORD PTR __$EHRec$[ebp], esp
  00031	8b f9		 mov	 edi, ecx

; 158  : 	// 1.  Block  Data Index .
; 159  : 	// 1.1  Point  Block Graph Region .
; 160  : 	// (2004.06.14, ) Block  Height, Graph Width  Input  .
; 161  : 	// (2006/6/16 - Seung-Won, Bae) Use Block Interface
; 162  : 	int nRow, nColumn;
; 163  : 	if( !m_pIChartManager->GetBlockIndex( p_ptPoint, nRow, nColumn)) return FALSE;

  00033	8b 4f 24	 mov	 ecx, DWORD PTR [edi+36]
  00036	8d 55 84	 lea	 edx, DWORD PTR _nColumn$[ebp]
  00039	8b 45 10	 mov	 eax, DWORD PTR _p_strMarkTime$[ebp]
  0003c	52		 push	 edx
  0003d	8d 55 80	 lea	 edx, DWORD PTR _nRow$[ebp]
  00040	89 45 8c	 mov	 DWORD PTR _p_strMarkTime$GSCopy$1$[ebp], eax
  00043	8b 01		 mov	 eax, DWORD PTR [ecx]
  00045	52		 push	 edx
  00046	ff 75 0c	 push	 DWORD PTR _p_ptPoint$[ebp+4]
  00049	ff 75 08	 push	 DWORD PTR _p_ptPoint$[ebp]
  0004c	8b 80 8c 00 00
	00		 mov	 eax, DWORD PTR [eax+140]
  00052	ff d0		 call	 eax
  00054	85 c0		 test	 eax, eax
  00056	0f 84 ba 05 00
	00		 je	 $LN46@GetMarkTim

; 164  : 	IBlock *pIBlock = m_pIChartManager->GetBlock( nRow, nColumn);

  0005c	8b 4f 24	 mov	 ecx, DWORD PTR [edi+36]
  0005f	ff 75 84	 push	 DWORD PTR _nColumn$[ebp]
  00062	ff 75 80	 push	 DWORD PTR _nRow$[ebp]
  00065	8b 01		 mov	 eax, DWORD PTR [ecx]
  00067	8b 40 38	 mov	 eax, DWORD PTR [eax+56]
  0006a	ff d0		 call	 eax
  0006c	8b f0		 mov	 esi, eax

; 165  : 	if( !pIBlock) return FALSE;

  0006e	85 f6		 test	 esi, esi
  00070	0f 84 a0 05 00
	00		 je	 $LN46@GetMarkTim

; 167  : 	pIBlock->GetGraphRegions( rctBlockRegion, rctNoFrameAndMargin);

  00076	8d 4d ac	 lea	 ecx, DWORD PTR _rctNoFrameAndMargin$[ebp]
; File C:\Program Files (x86)\Microsoft Visual Studio\2019\Community\VC\Tools\MSVC\14.29.30133\atlmfc\include\atltypes.h

; 528  : 	left = 0;

  00079	c7 45 dc 00 00
	00 00		 mov	 DWORD PTR _rctBlockRegion$[ebp], 0
; File D:\git\src\IBK\IBK_DRFN\ProjSrc\SrcChartEx\ChartOCX\AddInManager\ChartCommonAddIn\TimeMarkerAddInImp.cpp

; 167  : 	pIBlock->GetGraphRegions( rctBlockRegion, rctNoFrameAndMargin);

  00080	51		 push	 ecx
; File C:\Program Files (x86)\Microsoft Visual Studio\2019\Community\VC\Tools\MSVC\14.29.30133\atlmfc\include\atltypes.h

; 528  : 	left = 0;

  00081	c7 45 ac 00 00
	00 00		 mov	 DWORD PTR _rctNoFrameAndMargin$[ebp], 0
; File D:\git\src\IBK\IBK_DRFN\ProjSrc\SrcChartEx\ChartOCX\AddInManager\ChartCommonAddIn\TimeMarkerAddInImp.cpp

; 167  : 	pIBlock->GetGraphRegions( rctBlockRegion, rctNoFrameAndMargin);

  00088	8d 4d dc	 lea	 ecx, DWORD PTR _rctBlockRegion$[ebp]
; File C:\Program Files (x86)\Microsoft Visual Studio\2019\Community\VC\Tools\MSVC\14.29.30133\atlmfc\include\atltypes.h

; 528  : 	left = 0;

  0008b	c7 45 e0 00 00
	00 00		 mov	 DWORD PTR _rctBlockRegion$[ebp+4], 0
  00092	c7 45 b0 00 00
	00 00		 mov	 DWORD PTR _rctNoFrameAndMargin$[ebp+4], 0
  00099	c7 45 e4 00 00
	00 00		 mov	 DWORD PTR _rctBlockRegion$[ebp+8], 0
  000a0	c7 45 b4 00 00
	00 00		 mov	 DWORD PTR _rctNoFrameAndMargin$[ebp+8], 0
  000a7	c7 45 e8 00 00
	00 00		 mov	 DWORD PTR _rctBlockRegion$[ebp+12], 0
  000ae	c7 45 b8 00 00
	00 00		 mov	 DWORD PTR _rctNoFrameAndMargin$[ebp+12], 0
; File D:\git\src\IBK\IBK_DRFN\ProjSrc\SrcChartEx\ChartOCX\AddInManager\ChartCommonAddIn\TimeMarkerAddInImp.cpp

; 167  : 	pIBlock->GetGraphRegions( rctBlockRegion, rctNoFrameAndMargin);

  000b5	8b 06		 mov	 eax, DWORD PTR [esi]
  000b7	51		 push	 ecx
  000b8	8b ce		 mov	 ecx, esi
  000ba	ff 50 10	 call	 DWORD PTR [eax+16]

; 168  : 	CRect rctGraphRegion = pIBlock->GetGraphDrwingRegion();

  000bd	8b 06		 mov	 eax, DWORD PTR [esi]
  000bf	8d 4d bc	 lea	 ecx, DWORD PTR $T11[ebp]
  000c2	6a 00		 push	 0
  000c4	51		 push	 ecx
  000c5	8b ce		 mov	 ecx, esi
  000c7	8b 40 1c	 mov	 eax, DWORD PTR [eax+28]
  000ca	ff d0		 call	 eax
; File C:\Program Files (x86)\Microsoft Visual Studio\2019\Community\VC\Tools\MSVC\14.29.30133\atlmfc\include\atltypes.h

; 548  : 	::CopyRect(this, &srcRect);

  000cc	50		 push	 eax
  000cd	8d 45 9c	 lea	 eax, DWORD PTR _rctGraphRegion$[ebp]
  000d0	50		 push	 eax
  000d1	ff 15 00 00 00
	00		 call	 DWORD PTR __imp__CopyRect@8
; File D:\git\src\IBK\IBK_DRFN\ProjSrc\SrcChartEx\ChartOCX\AddInManager\ChartCommonAddIn\TimeMarkerAddInImp.cpp

; 169  : 	pIBlock->Release();

  000d7	8b 06		 mov	 eax, DWORD PTR [esi]
  000d9	56		 push	 esi
  000da	ff 50 08	 call	 DWORD PTR [eax+8]

; 171  : 	rctBlockRegion.left = rctGraphRegion.left;

  000dd	8b 45 9c	 mov	 eax, DWORD PTR _rctGraphRegion$[ebp]
; File C:\Program Files (x86)\Microsoft Visual Studio\2019\Community\VC\Tools\MSVC\14.29.30133\atlmfc\include\atltypes.h

; 648  : 	return ::PtInRect(this, point);

  000e0	ff 75 0c	 push	 DWORD PTR _p_ptPoint$[ebp+4]
; File D:\git\src\IBK\IBK_DRFN\ProjSrc\SrcChartEx\ChartOCX\AddInManager\ChartCommonAddIn\TimeMarkerAddInImp.cpp

; 171  : 	rctBlockRegion.left = rctGraphRegion.left;

  000e3	89 45 dc	 mov	 DWORD PTR _rctBlockRegion$[ebp], eax

; 172  : 	rctBlockRegion.right = rctGraphRegion.right;

  000e6	8b 45 a4	 mov	 eax, DWORD PTR _rctGraphRegion$[ebp+8]
; File C:\Program Files (x86)\Microsoft Visual Studio\2019\Community\VC\Tools\MSVC\14.29.30133\atlmfc\include\atltypes.h

; 648  : 	return ::PtInRect(this, point);

  000e9	ff 75 08	 push	 DWORD PTR _p_ptPoint$[ebp]
; File D:\git\src\IBK\IBK_DRFN\ProjSrc\SrcChartEx\ChartOCX\AddInManager\ChartCommonAddIn\TimeMarkerAddInImp.cpp

; 172  : 	rctBlockRegion.right = rctGraphRegion.right;

  000ec	89 45 e4	 mov	 DWORD PTR _rctBlockRegion$[ebp+8], eax
; File C:\Program Files (x86)\Microsoft Visual Studio\2019\Community\VC\Tools\MSVC\14.29.30133\atlmfc\include\atltypes.h

; 648  : 	return ::PtInRect(this, point);

  000ef	8d 45 dc	 lea	 eax, DWORD PTR _rctBlockRegion$[ebp]
  000f2	50		 push	 eax
  000f3	ff 15 00 00 00
	00		 call	 DWORD PTR __imp__PtInRect@12
; File D:\git\src\IBK\IBK_DRFN\ProjSrc\SrcChartEx\ChartOCX\AddInManager\ChartCommonAddIn\TimeMarkerAddInImp.cpp

; 173  : 	if( !rctBlockRegion.PtInRect( p_ptPoint)) return FALSE;

  000f9	85 c0		 test	 eax, eax
  000fb	0f 84 15 05 00
	00		 je	 $LN46@GetMarkTim

; 174  : 	// 1.2    Data Start/End Index .
; 175  : 	int nStartIndex, nEndIndex;
; 176  : 	if( !m_pIChartOCX->GetViewStartEndIndex( nStartIndex, nEndIndex)) return FALSE;

  00101	8b 4f 0c	 mov	 ecx, DWORD PTR [edi+12]
  00104	8d 95 74 ff ff
	ff		 lea	 edx, DWORD PTR _nEndIndex$[ebp]
  0010a	52		 push	 edx
  0010b	8d 95 70 ff ff
	ff		 lea	 edx, DWORD PTR _nStartIndex$[ebp]
  00111	52		 push	 edx
  00112	8b 01		 mov	 eax, DWORD PTR [ecx]
  00114	8b 80 24 01 00
	00		 mov	 eax, DWORD PTR [eax+292]
  0011a	ff d0		 call	 eax
  0011c	85 c0		 test	 eax, eax
  0011e	0f 84 f2 04 00
	00		 je	 $LN46@GetMarkTim

; 177  : 	// 1.3  Mouse Point Data Index .
; 178  : 	//{{ 2007.03.26 by LYH XScale 
; 179  : 	//int nDataIndex = nStartIndex + ( ( p_ptPoint.x - rctBlockRegion.left) * ( nEndIndex - nStartIndex + 1)) / rctBlockRegion.Width();
; 180  : 	int nDataIndex = m_pIChartManager->FindViewDataIndex_Pt("DEFAULT", p_ptPoint.x);

  00124	8b 4f 24	 mov	 ecx, DWORD PTR [edi+36]
  00127	6a 00		 push	 0
  00129	6a 00		 push	 0
  0012b	ff 75 08	 push	 DWORD PTR _p_ptPoint$[ebp]
  0012e	8b 01		 mov	 eax, DWORD PTR [ecx]
  00130	68 00 00 00 00	 push	 OFFSET ??_C@_07MGCPDNLD@DEFAULT@
  00135	8b 80 04 01 00
	00		 mov	 eax, DWORD PTR [eax+260]
  0013b	ff d0		 call	 eax

; 181  : 	//}}
; 182  : 	// 2.  Data Index   .
; 183  : 	// 2.1  Packet .
; 184  : 	IPacket *pIPacket = m_pIDefaultPacketManager->GetPacket( _MTEXT( C0_DATE_TIME));

  0013d	8b 4f 20	 mov	 ecx, DWORD PTR [edi+32]
  00140	8b 15 54 00 00
	00		 mov	 edx, DWORD PTR ?g_iMetaTable@@3VIMetaTable@@A+84
  00146	89 45 98	 mov	 DWORD PTR _nDataIndex$1$[ebp], eax
  00149	8b 31		 mov	 esi, DWORD PTR [ecx]
  0014b	ff 32		 push	 DWORD PTR [edx]
  0014d	8b 56 10	 mov	 edx, DWORD PTR [esi+16]
  00150	ff d2		 call	 edx
  00152	8b f0		 mov	 esi, eax
  00154	89 75 88	 mov	 DWORD PTR _pIPacket$[ebp], esi

; 185  : 	if( !pIPacket) return FALSE;

  00157	85 f6		 test	 esi, esi
  00159	0f 84 b7 04 00
	00		 je	 $LN46@GetMarkTim

; 186  : 	try
; 187  : 	{
; 188  : 		// 2.2 Data .
; 189  : 		// (2004.07.02, )   Logic .
; 190  : 		// (2004.09.24, ) ScrollBar Zero Base  1  .
; 191  : 		double dMarkTime;
; 192  : 		if( !pIPacket->GetData( nDataIndex, dMarkTime)) throw this;

  0015f	8b 06		 mov	 eax, DWORD PTR [esi]
  00161	8d 8d 68 ff ff
	ff		 lea	 ecx, DWORD PTR _dMarkTime$2[ebp]
  00167	51		 push	 ecx
  00168	ff 75 98	 push	 DWORD PTR _nDataIndex$1$[ebp]
  0016b	8b ce		 mov	 ecx, esi
  0016d	c7 45 fc 00 00
	00 00		 mov	 DWORD PTR __$EHRec$[ebp+12], 0
  00174	8b 40 40	 mov	 eax, DWORD PTR [eax+64]
  00177	ff d0		 call	 eax
  00179	85 c0		 test	 eax, eax
  0017b	0f 84 b5 04 00
	00		 je	 $LN92@GetMarkTim

; 193  : 		long lMarkTime = ( long)dMarkTime;

  00181	f2 0f 2c 85 68
	ff ff ff	 cvttsd2si eax, QWORD PTR _dMarkTime$2[ebp]

; 197  : 		ILPCSTR szPacketType = pIPacket->GetType();

  00189	6a 01		 push	 1
  0018b	8b ce		 mov	 ecx, esi
  0018d	89 45 94	 mov	 DWORD PTR _nYear$1$[ebp], eax
  00190	8b 06		 mov	 eax, DWORD PTR [esi]
  00192	8b 40 1c	 mov	 eax, DWORD PTR [eax+28]
  00195	ff d0		 call	 eax
  00197	8b c8		 mov	 ecx, eax
; File D:\git\src\IBK\IBK_DRFN\ProjSrc\SrcChartEx\ChartOCX\AddInManager\Include_Addin\I000000\_IString.h

; 39   : 		m_pIStrData = p_pIString;	// Do not AddRef(). Because It must be Return Value.

  00199	89 4d c8	 mov	 DWORD PTR _szPacketType$12[ebp+4], ecx
  0019c	85 c9		 test	 ecx, ecx

; 40   : 		if( m_pIStrData) m_szData = m_pIStrData->GetData();

  0019e	74 09		 je	 SHORT $LN56@GetMarkTim
  001a0	8b 01		 mov	 eax, DWORD PTR [ecx]
  001a2	8b 40 10	 mov	 eax, DWORD PTR [eax+16]
  001a5	ff d0		 call	 eax
  001a7	eb 02		 jmp	 SHORT $LN90@GetMarkTim
$LN56@GetMarkTim:

; 41   : 		else m_szData = NULL;

  001a9	33 c0		 xor	 eax, eax
$LN90@GetMarkTim:
; File D:\git\src\IBK\IBK_DRFN\ProjSrc\SrcChartEx\ChartOCX\AddInManager\ChartCommonAddIn\TimeMarkerAddInImp.cpp

; 197  : 		ILPCSTR szPacketType = pIPacket->GetType();

  001ab	89 45 c4	 mov	 DWORD PTR _szPacketType$12[ebp], eax

; 198  : 		CString strPacketType( szPacketType);

  001ae	50		 push	 eax
  001af	8d 4d 90	 lea	 ecx, DWORD PTR _strPacketType$5[ebp]
  001b2	c6 45 fc 01	 mov	 BYTE PTR __$EHRec$[ebp+12], 1
  001b6	ff 15 00 00 00
	00		 call	 DWORD PTR __imp_??0?$CStringT@DV?$StrTraitMFC_DLL@DV?$ChTraitsCRT@D@ATL@@@@@ATL@@QAE@PBD@Z

; 203  : 		if( strPacketType.Left( 4) == "YYYY")	nStart = 0;

  001bc	6a 04		 push	 4
  001be	8d 45 98	 lea	 eax, DWORD PTR $T10[ebp]
  001c1	c6 45 fc 02	 mov	 BYTE PTR __$EHRec$[ebp+12], 2
  001c5	50		 push	 eax
  001c6	8d 4d 90	 lea	 ecx, DWORD PTR _strPacketType$5[ebp]
  001c9	ff 15 00 00 00
	00		 call	 DWORD PTR __imp_?Left@?$CStringT@DV?$StrTraitMFC_DLL@DV?$ChTraitsCRT@D@ATL@@@@@ATL@@QBE?AV12@H@Z
; File C:\Program Files (x86)\Microsoft Visual Studio\2019\Community\VC\Tools\MSVC\14.29.30133\atlmfc\include\cstringt.h

; 2486 : 		return(str1.Compare(psz2) == 0);

  001cf	68 00 00 00 00	 push	 OFFSET ??_C@_04LCMPBGFC@YYYY@
  001d4	8b c8		 mov	 ecx, eax
; File D:\git\src\IBK\IBK_DRFN\ProjSrc\SrcChartEx\ChartOCX\AddInManager\ChartCommonAddIn\TimeMarkerAddInImp.cpp

; 203  : 		if( strPacketType.Left( 4) == "YYYY")	nStart = 0;

  001d6	c6 45 fc 03	 mov	 BYTE PTR __$EHRec$[ebp+12], 3
; File C:\Program Files (x86)\Microsoft Visual Studio\2019\Community\VC\Tools\MSVC\14.29.30133\atlmfc\include\cstringt.h

; 2486 : 		return(str1.Compare(psz2) == 0);

  001da	ff 15 00 00 00
	00		 call	 DWORD PTR __imp_?Compare@?$CStringT@DV?$StrTraitMFC_DLL@DV?$ChTraitsCRT@D@ATL@@@@@ATL@@QBEHPBD@Z
; File D:\git\src\IBK\IBK_DRFN\ProjSrc\SrcChartEx\ChartOCX\AddInManager\ChartCommonAddIn\TimeMarkerAddInImp.cpp

; 203  : 		if( strPacketType.Left( 4) == "YYYY")	nStart = 0;

  001e0	8d 4d 98	 lea	 ecx, DWORD PTR $T10[ebp]
  001e3	c6 45 fc 02	 mov	 BYTE PTR __$EHRec$[ebp+12], 2
; File C:\Program Files (x86)\Microsoft Visual Studio\2019\Community\VC\Tools\MSVC\14.29.30133\atlmfc\include\cstringt.h

; 2486 : 		return(str1.Compare(psz2) == 0);

  001e7	8b f0		 mov	 esi, eax
; File D:\git\src\IBK\IBK_DRFN\ProjSrc\SrcChartEx\ChartOCX\AddInManager\ChartCommonAddIn\TimeMarkerAddInImp.cpp

; 203  : 		if( strPacketType.Left( 4) == "YYYY")	nStart = 0;

  001e9	ff 15 00 00 00
	00		 call	 DWORD PTR __imp_??1?$CStringT@DV?$StrTraitMFC_DLL@DV?$ChTraitsCRT@D@ATL@@@@@ATL@@QAE@XZ
  001ef	85 f6		 test	 esi, esi
  001f1	75 07		 jne	 SHORT $LN9@GetMarkTim
  001f3	33 ff		 xor	 edi, edi
  001f5	e9 e5 00 00 00	 jmp	 $LN18@GetMarkTim
$LN9@GetMarkTim:

; 205  : 		else if( strPacketType.Left( 4) == "MMDD")	nStart = 4;

  001fa	6a 04		 push	 4
  001fc	8d 45 98	 lea	 eax, DWORD PTR $T9[ebp]
  001ff	50		 push	 eax
  00200	8d 4d 90	 lea	 ecx, DWORD PTR _strPacketType$5[ebp]
  00203	ff 15 00 00 00
	00		 call	 DWORD PTR __imp_?Left@?$CStringT@DV?$StrTraitMFC_DLL@DV?$ChTraitsCRT@D@ATL@@@@@ATL@@QBE?AV12@H@Z
; File C:\Program Files (x86)\Microsoft Visual Studio\2019\Community\VC\Tools\MSVC\14.29.30133\atlmfc\include\cstringt.h

; 2486 : 		return(str1.Compare(psz2) == 0);

  00209	68 00 00 00 00	 push	 OFFSET ??_C@_04BDEGLLOH@MMDD@
  0020e	8b c8		 mov	 ecx, eax
; File D:\git\src\IBK\IBK_DRFN\ProjSrc\SrcChartEx\ChartOCX\AddInManager\ChartCommonAddIn\TimeMarkerAddInImp.cpp

; 205  : 		else if( strPacketType.Left( 4) == "MMDD")	nStart = 4;

  00210	c6 45 fc 04	 mov	 BYTE PTR __$EHRec$[ebp+12], 4
; File C:\Program Files (x86)\Microsoft Visual Studio\2019\Community\VC\Tools\MSVC\14.29.30133\atlmfc\include\cstringt.h

; 2486 : 		return(str1.Compare(psz2) == 0);

  00214	ff 15 00 00 00
	00		 call	 DWORD PTR __imp_?Compare@?$CStringT@DV?$StrTraitMFC_DLL@DV?$ChTraitsCRT@D@ATL@@@@@ATL@@QBEHPBD@Z
; File D:\git\src\IBK\IBK_DRFN\ProjSrc\SrcChartEx\ChartOCX\AddInManager\ChartCommonAddIn\TimeMarkerAddInImp.cpp

; 205  : 		else if( strPacketType.Left( 4) == "MMDD")	nStart = 4;

  0021a	8d 4d 98	 lea	 ecx, DWORD PTR $T9[ebp]
  0021d	c6 45 fc 02	 mov	 BYTE PTR __$EHRec$[ebp+12], 2
; File C:\Program Files (x86)\Microsoft Visual Studio\2019\Community\VC\Tools\MSVC\14.29.30133\atlmfc\include\cstringt.h

; 2486 : 		return(str1.Compare(psz2) == 0);

  00221	8b f0		 mov	 esi, eax
; File D:\git\src\IBK\IBK_DRFN\ProjSrc\SrcChartEx\ChartOCX\AddInManager\ChartCommonAddIn\TimeMarkerAddInImp.cpp

; 205  : 		else if( strPacketType.Left( 4) == "MMDD")	nStart = 4;

  00223	ff 15 00 00 00
	00		 call	 DWORD PTR __imp_??1?$CStringT@DV?$StrTraitMFC_DLL@DV?$ChTraitsCRT@D@ATL@@@@@ATL@@QAE@XZ
  00229	85 f6		 test	 esi, esi
  0022b	75 08		 jne	 SHORT $LN11@GetMarkTim
  0022d	8d 7e 04	 lea	 edi, DWORD PTR [esi+4]
  00230	e9 aa 00 00 00	 jmp	 $LN18@GetMarkTim
$LN11@GetMarkTim:

; 207  : 		else if( strPacketType.Left( 2) == "DD")	nStart = 6;

  00235	6a 02		 push	 2
  00237	8d 45 98	 lea	 eax, DWORD PTR $T8[ebp]
  0023a	50		 push	 eax
  0023b	8d 4d 90	 lea	 ecx, DWORD PTR _strPacketType$5[ebp]
  0023e	ff 15 00 00 00
	00		 call	 DWORD PTR __imp_?Left@?$CStringT@DV?$StrTraitMFC_DLL@DV?$ChTraitsCRT@D@ATL@@@@@ATL@@QBE?AV12@H@Z
; File C:\Program Files (x86)\Microsoft Visual Studio\2019\Community\VC\Tools\MSVC\14.29.30133\atlmfc\include\cstringt.h

; 2486 : 		return(str1.Compare(psz2) == 0);

  00244	68 00 00 00 00	 push	 OFFSET ??_C@_02ODDIIJPA@DD@
  00249	8b c8		 mov	 ecx, eax
; File D:\git\src\IBK\IBK_DRFN\ProjSrc\SrcChartEx\ChartOCX\AddInManager\ChartCommonAddIn\TimeMarkerAddInImp.cpp

; 207  : 		else if( strPacketType.Left( 2) == "DD")	nStart = 6;

  0024b	c6 45 fc 05	 mov	 BYTE PTR __$EHRec$[ebp+12], 5
; File C:\Program Files (x86)\Microsoft Visual Studio\2019\Community\VC\Tools\MSVC\14.29.30133\atlmfc\include\cstringt.h

; 2486 : 		return(str1.Compare(psz2) == 0);

  0024f	ff 15 00 00 00
	00		 call	 DWORD PTR __imp_?Compare@?$CStringT@DV?$StrTraitMFC_DLL@DV?$ChTraitsCRT@D@ATL@@@@@ATL@@QBEHPBD@Z
; File D:\git\src\IBK\IBK_DRFN\ProjSrc\SrcChartEx\ChartOCX\AddInManager\ChartCommonAddIn\TimeMarkerAddInImp.cpp

; 207  : 		else if( strPacketType.Left( 2) == "DD")	nStart = 6;

  00255	8d 4d 98	 lea	 ecx, DWORD PTR $T8[ebp]
  00258	c6 45 fc 02	 mov	 BYTE PTR __$EHRec$[ebp+12], 2
; File C:\Program Files (x86)\Microsoft Visual Studio\2019\Community\VC\Tools\MSVC\14.29.30133\atlmfc\include\cstringt.h

; 2486 : 		return(str1.Compare(psz2) == 0);

  0025c	8b f0		 mov	 esi, eax
; File D:\git\src\IBK\IBK_DRFN\ProjSrc\SrcChartEx\ChartOCX\AddInManager\ChartCommonAddIn\TimeMarkerAddInImp.cpp

; 207  : 		else if( strPacketType.Left( 2) == "DD")	nStart = 6;

  0025e	ff 15 00 00 00
	00		 call	 DWORD PTR __imp_??1?$CStringT@DV?$StrTraitMFC_DLL@DV?$ChTraitsCRT@D@ATL@@@@@ATL@@QAE@XZ
  00264	85 f6		 test	 esi, esi
  00266	75 05		 jne	 SHORT $LN13@GetMarkTim
  00268	8d 7e 06	 lea	 edi, DWORD PTR [esi+6]
  0026b	eb 72		 jmp	 SHORT $LN18@GetMarkTim
$LN13@GetMarkTim:

; 209  : 		else if( strPacketType.Left( 2) == "HH")	nStart = 8;

  0026d	6a 02		 push	 2
  0026f	8d 45 98	 lea	 eax, DWORD PTR $T7[ebp]
  00272	50		 push	 eax
  00273	8d 4d 90	 lea	 ecx, DWORD PTR _strPacketType$5[ebp]
  00276	ff 15 00 00 00
	00		 call	 DWORD PTR __imp_?Left@?$CStringT@DV?$StrTraitMFC_DLL@DV?$ChTraitsCRT@D@ATL@@@@@ATL@@QBE?AV12@H@Z
; File C:\Program Files (x86)\Microsoft Visual Studio\2019\Community\VC\Tools\MSVC\14.29.30133\atlmfc\include\cstringt.h

; 2486 : 		return(str1.Compare(psz2) == 0);

  0027c	68 00 00 00 00	 push	 OFFSET ??_C@_02EGJHDPJI@HH@
  00281	8b c8		 mov	 ecx, eax
; File D:\git\src\IBK\IBK_DRFN\ProjSrc\SrcChartEx\ChartOCX\AddInManager\ChartCommonAddIn\TimeMarkerAddInImp.cpp

; 209  : 		else if( strPacketType.Left( 2) == "HH")	nStart = 8;

  00283	c6 45 fc 06	 mov	 BYTE PTR __$EHRec$[ebp+12], 6
; File C:\Program Files (x86)\Microsoft Visual Studio\2019\Community\VC\Tools\MSVC\14.29.30133\atlmfc\include\cstringt.h

; 2486 : 		return(str1.Compare(psz2) == 0);

  00287	ff 15 00 00 00
	00		 call	 DWORD PTR __imp_?Compare@?$CStringT@DV?$StrTraitMFC_DLL@DV?$ChTraitsCRT@D@ATL@@@@@ATL@@QBEHPBD@Z
; File D:\git\src\IBK\IBK_DRFN\ProjSrc\SrcChartEx\ChartOCX\AddInManager\ChartCommonAddIn\TimeMarkerAddInImp.cpp

; 209  : 		else if( strPacketType.Left( 2) == "HH")	nStart = 8;

  0028d	8d 4d 98	 lea	 ecx, DWORD PTR $T7[ebp]
  00290	c6 45 fc 02	 mov	 BYTE PTR __$EHRec$[ebp+12], 2
; File C:\Program Files (x86)\Microsoft Visual Studio\2019\Community\VC\Tools\MSVC\14.29.30133\atlmfc\include\cstringt.h

; 2486 : 		return(str1.Compare(psz2) == 0);

  00294	8b f0		 mov	 esi, eax
; File D:\git\src\IBK\IBK_DRFN\ProjSrc\SrcChartEx\ChartOCX\AddInManager\ChartCommonAddIn\TimeMarkerAddInImp.cpp

; 209  : 		else if( strPacketType.Left( 2) == "HH")	nStart = 8;

  00296	ff 15 00 00 00
	00		 call	 DWORD PTR __imp_??1?$CStringT@DV?$StrTraitMFC_DLL@DV?$ChTraitsCRT@D@ATL@@@@@ATL@@QAE@XZ
  0029c	85 f6		 test	 esi, esi
  0029e	75 05		 jne	 SHORT $LN15@GetMarkTim
  002a0	8d 7e 08	 lea	 edi, DWORD PTR [esi+8]
  002a3	eb 3a		 jmp	 SHORT $LN18@GetMarkTim
$LN15@GetMarkTim:

; 211  : 		else if( strPacketType.Left( 2) == "MM")	nStart = 10;

  002a5	6a 02		 push	 2
  002a7	8d 45 98	 lea	 eax, DWORD PTR $T6[ebp]
  002aa	50		 push	 eax
  002ab	8d 4d 90	 lea	 ecx, DWORD PTR _strPacketType$5[ebp]
  002ae	ff 15 00 00 00
	00		 call	 DWORD PTR __imp_?Left@?$CStringT@DV?$StrTraitMFC_DLL@DV?$ChTraitsCRT@D@ATL@@@@@ATL@@QBE?AV12@H@Z
; File C:\Program Files (x86)\Microsoft Visual Studio\2019\Community\VC\Tools\MSVC\14.29.30133\atlmfc\include\cstringt.h

; 2486 : 		return(str1.Compare(psz2) == 0);

  002b4	68 00 00 00 00	 push	 OFFSET ??_C@_02DNCLAJDG@MM@
  002b9	8b c8		 mov	 ecx, eax
; File D:\git\src\IBK\IBK_DRFN\ProjSrc\SrcChartEx\ChartOCX\AddInManager\ChartCommonAddIn\TimeMarkerAddInImp.cpp

; 211  : 		else if( strPacketType.Left( 2) == "MM")	nStart = 10;

  002bb	c6 45 fc 07	 mov	 BYTE PTR __$EHRec$[ebp+12], 7
; File C:\Program Files (x86)\Microsoft Visual Studio\2019\Community\VC\Tools\MSVC\14.29.30133\atlmfc\include\cstringt.h

; 2486 : 		return(str1.Compare(psz2) == 0);

  002bf	ff 15 00 00 00
	00		 call	 DWORD PTR __imp_?Compare@?$CStringT@DV?$StrTraitMFC_DLL@DV?$ChTraitsCRT@D@ATL@@@@@ATL@@QBEHPBD@Z
; File D:\git\src\IBK\IBK_DRFN\ProjSrc\SrcChartEx\ChartOCX\AddInManager\ChartCommonAddIn\TimeMarkerAddInImp.cpp

; 211  : 		else if( strPacketType.Left( 2) == "MM")	nStart = 10;

  002c5	8d 4d 98	 lea	 ecx, DWORD PTR $T6[ebp]
  002c8	c6 45 fc 02	 mov	 BYTE PTR __$EHRec$[ebp+12], 2
; File C:\Program Files (x86)\Microsoft Visual Studio\2019\Community\VC\Tools\MSVC\14.29.30133\atlmfc\include\cstringt.h

; 2486 : 		return(str1.Compare(psz2) == 0);

  002cc	8b f0		 mov	 esi, eax
; File D:\git\src\IBK\IBK_DRFN\ProjSrc\SrcChartEx\ChartOCX\AddInManager\ChartCommonAddIn\TimeMarkerAddInImp.cpp

; 211  : 		else if( strPacketType.Left( 2) == "MM")	nStart = 10;

  002ce	ff 15 00 00 00
	00		 call	 DWORD PTR __imp_??1?$CStringT@DV?$StrTraitMFC_DLL@DV?$ChTraitsCRT@D@ATL@@@@@ATL@@QAE@XZ
  002d4	85 f6		 test	 esi, esi
  002d6	0f 85 71 03 00
	00		 jne	 $LN17@GetMarkTim
  002dc	8d 7e 0a	 lea	 edi, DWORD PTR [esi+10]
$LN18@GetMarkTim:

; 213  : 		// 3.3 Packet Type , Mark Time .
; 214  : 		// 3.3.0    .
; 215  : 		SYSTEMTIME stTime;
; 216  : 		GetSystemTime( &stTime);

  002df	8d 45 cc	 lea	 eax, DWORD PTR _stTime$13[ebp]
  002e2	50		 push	 eax
  002e3	ff 15 00 00 00
	00		 call	 DWORD PTR __imp__GetSystemTime@4

; 217  : 		// 3.3.1     .
; 218  : 		// (2006/3/4 - Seung-Won, Bae) Support "NN" Format
; 219  : 		char *szMarkTime = p_strMarkTime.GetBufferSetLength( 16);

  002e9	8b 4d 8c	 mov	 ecx, DWORD PTR _p_strMarkTime$GSCopy$1$[ebp]
  002ec	6a 10		 push	 16			; 00000010H
  002ee	ff 15 00 00 00
	00		 call	 DWORD PTR __imp_?GetBufferSetLength@?$CSimpleStringT@D$00@ATL@@QAEPADH@Z

; 220  : 		strcpy( szMarkTime, "                ");

  002f4	0f 10 05 00 00
	00 00		 movups	 xmm0, XMMWORD PTR ??_C@_0BB@FHAPCDKO@?5?5?5?5?5?5?5?5?5?5?5?5?5?5?5?5@
  002fb	8b f0		 mov	 esi, eax
  002fd	0f 11 06	 movups	 XMMWORD PTR [esi], xmm0
  00300	8a 0d 10 00 00
	00		 mov	 cl, BYTE PTR ??_C@_0BB@FHAPCDKO@?5?5?5?5?5?5?5?5?5?5?5?5?5?5?5?5@+16
  00306	88 4e 10	 mov	 BYTE PTR [esi+16], cl
; File C:\Program Files (x86)\Microsoft Visual Studio\2019\Community\VC\Tools\MSVC\14.29.30133\atlmfc\include\atlsimpstr.h

; 519  : 		return( GetData()->nDataLength );

  00309	8b 4d 90	 mov	 ecx, DWORD PTR _strPacketType$5[ebp]
  0030c	8b 41 f4	 mov	 eax, DWORD PTR [ecx-12]
; File D:\git\src\IBK\IBK_DRFN\ProjSrc\SrcChartEx\ChartOCX\AddInManager\ChartCommonAddIn\TimeMarkerAddInImp.cpp

; 221  : 		int nEnd = nStart + strPacketType.GetLength();

  0030f	03 c7		 add	 eax, edi
  00311	89 45 8c	 mov	 DWORD PTR _nEnd$1$[ebp], eax

; 222  : 		if( 8 < nEnd)

  00314	83 f8 08	 cmp	 eax, 8
  00317	0f 8e 85 01 00
	00		 jle	 $LN87@GetMarkTim

; 223  : 		{
; 224  : 			// (2006/3/4 - Seung-Won, Bae) Support "NN" Format
; 225  : 			int nNSecond;
; 226  : 			if( nEnd == 16)

  0031d	83 f8 10	 cmp	 eax, 16			; 00000010H
  00320	75 24		 jne	 SHORT $LN20@GetMarkTim

; 227  : 			{
; 228  : 				nNSecond = lMarkTime % 100;

  00322	b8 1f 85 eb 51	 mov	 eax, 1374389535		; 51eb851fH
  00327	f7 6d 94	 imul	 DWORD PTR _nYear$1$[ebp]
  0032a	c1 fa 05	 sar	 edx, 5
  0032d	8b ca		 mov	 ecx, edx
  0032f	c1 e9 1f	 shr	 ecx, 31			; 0000001fH
  00332	03 ca		 add	 ecx, edx
  00334	8b 55 94	 mov	 edx, DWORD PTR _nYear$1$[ebp]
  00337	6b c1 64	 imul	 eax, ecx, 100
  0033a	2b d0		 sub	 edx, eax
  0033c	89 55 98	 mov	 DWORD PTR _nNSecond$1$[ebp], edx

; 229  : 				lMarkTime /= 100;

  0033f	8b d1		 mov	 edx, ecx
  00341	89 55 94	 mov	 DWORD PTR _nYear$1$[ebp], edx

; 230  : 			}

  00344	eb 11		 jmp	 SHORT $LN21@GetMarkTim
$LN20@GetMarkTim:

; 231  : 			else nNSecond = stTime.wMilliseconds / 10;

  00346	0f b7 4d da	 movzx	 ecx, WORD PTR _stTime$13[ebp+14]
  0034a	b8 cd cc cc cc	 mov	 eax, -858993459		; cccccccdH
  0034f	f7 e1		 mul	 ecx
  00351	c1 ea 03	 shr	 edx, 3
  00354	89 55 98	 mov	 DWORD PTR _nNSecond$1$[ebp], edx
$LN21@GetMarkTim:

; 232  : 			szMarkTime[ 14] = '0' + nNSecond / 10;

  00357	b8 67 66 66 66	 mov	 eax, 1717986919		; 66666667H
  0035c	f7 6d 98	 imul	 DWORD PTR _nNSecond$1$[ebp]
  0035f	c1 fa 02	 sar	 edx, 2
  00362	8b ca		 mov	 ecx, edx
  00364	c1 e9 1f	 shr	 ecx, 31			; 0000001fH
  00367	03 ca		 add	 ecx, edx
  00369	8d 41 30	 lea	 eax, DWORD PTR [ecx+48]
  0036c	88 46 0e	 mov	 BYTE PTR [esi+14], al

; 233  : 			szMarkTime[ 15] = '0' + nNSecond % 10;

  0036f	8a c1		 mov	 al, cl
  00371	c0 e1 02	 shl	 cl, 2
  00374	02 c1		 add	 al, cl
  00376	8b 4d 98	 mov	 ecx, DWORD PTR _nNSecond$1$[ebp]
  00379	02 c0		 add	 al, al
  0037b	2a c8		 sub	 cl, al
  0037d	80 c1 30	 add	 cl, 48			; 00000030H

; 234  : 
; 235  : 			// 3.3.2   .
; 236  : 			int nSecond;
; 237  : 			if( nStart <= 12 && 14 <= nEnd)

  00380	83 7d 8c 0e	 cmp	 DWORD PTR _nEnd$1$[ebp], 14 ; 0000000eH
  00384	88 4e 0f	 mov	 BYTE PTR [esi+15], cl
  00387	7c 24		 jl	 SHORT $LN22@GetMarkTim

; 238  : 			{
; 239  : 				nSecond = lMarkTime % 100;

  00389	b8 1f 85 eb 51	 mov	 eax, 1374389535		; 51eb851fH
  0038e	f7 6d 94	 imul	 DWORD PTR _nYear$1$[ebp]
  00391	c1 fa 05	 sar	 edx, 5
  00394	8b ca		 mov	 ecx, edx
  00396	c1 e9 1f	 shr	 ecx, 31			; 0000001fH
  00399	03 ca		 add	 ecx, edx
  0039b	8b 55 94	 mov	 edx, DWORD PTR _nYear$1$[ebp]
  0039e	6b c1 64	 imul	 eax, ecx, 100
  003a1	2b d0		 sub	 edx, eax
  003a3	89 55 98	 mov	 DWORD PTR _nSecond$1$[ebp], edx

; 240  : 				lMarkTime /= 100;

  003a6	8b d1		 mov	 edx, ecx
  003a8	89 55 94	 mov	 DWORD PTR _nYear$1$[ebp], edx

; 241  : 			}

  003ab	eb 07		 jmp	 SHORT $LN23@GetMarkTim
$LN22@GetMarkTim:

; 242  : 			else nSecond = stTime.wSecond;

  003ad	0f b7 45 d8	 movzx	 eax, WORD PTR _stTime$13[ebp+12]
  003b1	89 45 98	 mov	 DWORD PTR _nSecond$1$[ebp], eax
$LN23@GetMarkTim:

; 243  : 			szMarkTime[ 12] = '0' + nSecond / 10;

  003b4	b8 67 66 66 66	 mov	 eax, 1717986919		; 66666667H
  003b9	f7 6d 98	 imul	 DWORD PTR _nSecond$1$[ebp]
  003bc	c1 fa 02	 sar	 edx, 2
  003bf	8b ca		 mov	 ecx, edx
  003c1	c1 e9 1f	 shr	 ecx, 31			; 0000001fH
  003c4	03 ca		 add	 ecx, edx
  003c6	8d 41 30	 lea	 eax, DWORD PTR [ecx+48]
  003c9	88 46 0c	 mov	 BYTE PTR [esi+12], al

; 244  : 			szMarkTime[ 13] = '0' + nSecond % 10;

  003cc	8a c1		 mov	 al, cl
  003ce	c0 e1 02	 shl	 cl, 2
  003d1	02 c1		 add	 al, cl
  003d3	8b 4d 98	 mov	 ecx, DWORD PTR _nSecond$1$[ebp]
  003d6	02 c0		 add	 al, al
  003d8	2a c8		 sub	 cl, al
  003da	80 c1 30	 add	 cl, 48			; 00000030H

; 245  : 			// 3.3.3  .
; 246  : 			int nMinute;
; 247  : 			if( nStart <= 10 && 12 <= nEnd)

  003dd	83 7d 8c 0c	 cmp	 DWORD PTR _nEnd$1$[ebp], 12 ; 0000000cH
  003e1	88 4e 0d	 mov	 BYTE PTR [esi+13], cl
  003e4	7c 24		 jl	 SHORT $LN24@GetMarkTim

; 248  : 			{
; 249  : 				nMinute = lMarkTime % 100;

  003e6	b8 1f 85 eb 51	 mov	 eax, 1374389535		; 51eb851fH
  003eb	f7 6d 94	 imul	 DWORD PTR _nYear$1$[ebp]
  003ee	c1 fa 05	 sar	 edx, 5
  003f1	8b ca		 mov	 ecx, edx
  003f3	c1 e9 1f	 shr	 ecx, 31			; 0000001fH
  003f6	03 ca		 add	 ecx, edx
  003f8	8b 55 94	 mov	 edx, DWORD PTR _nYear$1$[ebp]
  003fb	6b c1 64	 imul	 eax, ecx, 100
  003fe	2b d0		 sub	 edx, eax
  00400	89 55 98	 mov	 DWORD PTR _nMinute$1$[ebp], edx

; 250  : 				lMarkTime /= 100;

  00403	8b d1		 mov	 edx, ecx
  00405	89 55 94	 mov	 DWORD PTR _nYear$1$[ebp], edx

; 251  : 			}

  00408	eb 07		 jmp	 SHORT $LN25@GetMarkTim
$LN24@GetMarkTim:

; 252  : 			else nMinute = stTime.wMinute;

  0040a	0f b7 45 d6	 movzx	 eax, WORD PTR _stTime$13[ebp+10]
  0040e	89 45 98	 mov	 DWORD PTR _nMinute$1$[ebp], eax
$LN25@GetMarkTim:

; 253  : 			szMarkTime[ 10] = '0' + nMinute / 10;

  00411	b8 67 66 66 66	 mov	 eax, 1717986919		; 66666667H
  00416	f7 6d 98	 imul	 DWORD PTR _nMinute$1$[ebp]
  00419	c1 fa 02	 sar	 edx, 2
  0041c	8b ca		 mov	 ecx, edx
  0041e	c1 e9 1f	 shr	 ecx, 31			; 0000001fH
  00421	03 ca		 add	 ecx, edx
  00423	8d 41 30	 lea	 eax, DWORD PTR [ecx+48]
  00426	88 46 0a	 mov	 BYTE PTR [esi+10], al

; 254  : 			szMarkTime[ 11] = '0' + nMinute % 10;

  00429	8a c1		 mov	 al, cl
  0042b	c0 e1 02	 shl	 cl, 2
  0042e	02 c1		 add	 al, cl
  00430	8b 4d 98	 mov	 ecx, DWORD PTR _nMinute$1$[ebp]
  00433	02 c0		 add	 al, al
  00435	2a c8		 sub	 cl, al
  00437	80 c1 30	 add	 cl, 48			; 00000030H
  0043a	88 4e 0b	 mov	 BYTE PTR [esi+11], cl

; 255  : 			// 3.3.4  .
; 256  : 			int nHour;
; 257  : 			if( nStart <= 8 && 10 <= nEnd)

  0043d	83 ff 08	 cmp	 edi, 8
  00440	77 2a		 ja	 SHORT $LN26@GetMarkTim
  00442	83 7d 8c 0a	 cmp	 DWORD PTR _nEnd$1$[ebp], 10 ; 0000000aH
  00446	7c 24		 jl	 SHORT $LN26@GetMarkTim

; 258  : 			{
; 259  : 				nHour = lMarkTime % 100;

  00448	b8 1f 85 eb 51	 mov	 eax, 1374389535		; 51eb851fH
  0044d	f7 6d 94	 imul	 DWORD PTR _nYear$1$[ebp]
  00450	c1 fa 05	 sar	 edx, 5
  00453	8b ca		 mov	 ecx, edx
  00455	c1 e9 1f	 shr	 ecx, 31			; 0000001fH
  00458	03 ca		 add	 ecx, edx
  0045a	8b 55 94	 mov	 edx, DWORD PTR _nYear$1$[ebp]
  0045d	6b c1 64	 imul	 eax, ecx, 100
  00460	2b d0		 sub	 edx, eax
  00462	89 55 98	 mov	 DWORD PTR _nHour$1$[ebp], edx

; 260  : 				lMarkTime /= 100;

  00465	8b d1		 mov	 edx, ecx
  00467	89 55 94	 mov	 DWORD PTR _nYear$1$[ebp], edx

; 261  : 			}

  0046a	eb 07		 jmp	 SHORT $LN27@GetMarkTim
$LN26@GetMarkTim:

; 262  : 			else nHour = stTime.wHour;

  0046c	0f b7 45 d4	 movzx	 eax, WORD PTR _stTime$13[ebp+8]
  00470	89 45 98	 mov	 DWORD PTR _nHour$1$[ebp], eax
$LN27@GetMarkTim:

; 263  : 			szMarkTime[ 8] = '0' + nHour / 10;

  00473	b8 67 66 66 66	 mov	 eax, 1717986919		; 66666667H
  00478	f7 6d 98	 imul	 DWORD PTR _nHour$1$[ebp]
  0047b	c1 fa 02	 sar	 edx, 2
  0047e	8b ca		 mov	 ecx, edx
  00480	c1 e9 1f	 shr	 ecx, 31			; 0000001fH
  00483	03 ca		 add	 ecx, edx
  00485	8d 41 30	 lea	 eax, DWORD PTR [ecx+48]
  00488	88 46 08	 mov	 BYTE PTR [esi+8], al

; 264  : 			szMarkTime[ 9] = '0' + nHour % 10;

  0048b	8a c1		 mov	 al, cl
  0048d	c0 e1 02	 shl	 cl, 2
  00490	02 c1		 add	 al, cl
  00492	8b 4d 98	 mov	 ecx, DWORD PTR _nHour$1$[ebp]
  00495	02 c0		 add	 al, al
  00497	2a c8		 sub	 cl, al
  00499	8b 45 8c	 mov	 eax, DWORD PTR _nEnd$1$[ebp]
  0049c	80 c1 30	 add	 cl, 48			; 00000030H
  0049f	88 4e 09	 mov	 BYTE PTR [esi+9], cl
$LN87@GetMarkTim:

; 265  : 		}
; 266  : 		// 3.3.5    .
; 267  : 		if( nStart < 8)

  004a2	83 ff 08	 cmp	 edi, 8
  004a5	0f 83 34 01 00
	00		 jae	 $LN28@GetMarkTim

; 268  : 		{
; 269  : 			// 3.3.6  .
; 270  : 			int nDay;
; 271  : 			if( nStart <= 6 && 8 <= nEnd)

  004ab	83 ff 06	 cmp	 edi, 6
  004ae	77 29		 ja	 SHORT $LN29@GetMarkTim
  004b0	83 f8 08	 cmp	 eax, 8
  004b3	7c 24		 jl	 SHORT $LN29@GetMarkTim

; 272  : 			{
; 273  : 				nDay = lMarkTime % 100;

  004b5	b8 1f 85 eb 51	 mov	 eax, 1374389535		; 51eb851fH
  004ba	f7 6d 94	 imul	 DWORD PTR _nYear$1$[ebp]
  004bd	c1 fa 05	 sar	 edx, 5
  004c0	8b ca		 mov	 ecx, edx
  004c2	c1 e9 1f	 shr	 ecx, 31			; 0000001fH
  004c5	03 ca		 add	 ecx, edx
  004c7	8b 55 94	 mov	 edx, DWORD PTR _nYear$1$[ebp]
  004ca	6b c1 64	 imul	 eax, ecx, 100
  004cd	2b d0		 sub	 edx, eax
  004cf	89 55 98	 mov	 DWORD PTR _nDay$1$[ebp], edx

; 274  : 				lMarkTime /= 100;

  004d2	8b d1		 mov	 edx, ecx
  004d4	89 55 94	 mov	 DWORD PTR _nYear$1$[ebp], edx

; 275  : 			}

  004d7	eb 07		 jmp	 SHORT $LN30@GetMarkTim
$LN29@GetMarkTim:

; 276  : 			else nDay = stTime.wDay;

  004d9	0f b7 45 d2	 movzx	 eax, WORD PTR _stTime$13[ebp+6]
  004dd	89 45 98	 mov	 DWORD PTR _nDay$1$[ebp], eax
$LN30@GetMarkTim:

; 277  : 			szMarkTime[ 6] = '0' + nDay / 10;

  004e0	b8 67 66 66 66	 mov	 eax, 1717986919		; 66666667H
  004e5	f7 6d 98	 imul	 DWORD PTR _nDay$1$[ebp]
  004e8	c1 fa 02	 sar	 edx, 2
  004eb	8b ca		 mov	 ecx, edx
  004ed	c1 e9 1f	 shr	 ecx, 31			; 0000001fH
  004f0	03 ca		 add	 ecx, edx
  004f2	8d 41 30	 lea	 eax, DWORD PTR [ecx+48]
  004f5	88 46 06	 mov	 BYTE PTR [esi+6], al

; 278  : 			szMarkTime[ 7] = '0' + nDay % 10;

  004f8	8a c1		 mov	 al, cl
  004fa	c0 e1 02	 shl	 cl, 2
  004fd	02 c1		 add	 al, cl
  004ff	8b 4d 98	 mov	 ecx, DWORD PTR _nDay$1$[ebp]
  00502	02 c0		 add	 al, al
  00504	2a c8		 sub	 cl, al
  00506	80 c1 30	 add	 cl, 48			; 00000030H
  00509	88 4e 07	 mov	 BYTE PTR [esi+7], cl

; 279  : 			// 3.3.7  .
; 280  : 			int nMonth;
; 281  : 			if( nStart <= 4 && 6 <= nEnd)

  0050c	83 ff 04	 cmp	 edi, 4
  0050f	77 2a		 ja	 SHORT $LN31@GetMarkTim
  00511	83 7d 8c 06	 cmp	 DWORD PTR _nEnd$1$[ebp], 6
  00515	7c 24		 jl	 SHORT $LN31@GetMarkTim

; 282  : 			{
; 283  : 				nMonth = lMarkTime % 100;

  00517	b8 1f 85 eb 51	 mov	 eax, 1374389535		; 51eb851fH
  0051c	f7 6d 94	 imul	 DWORD PTR _nYear$1$[ebp]
  0051f	c1 fa 05	 sar	 edx, 5
  00522	8b ca		 mov	 ecx, edx
  00524	c1 e9 1f	 shr	 ecx, 31			; 0000001fH
  00527	03 ca		 add	 ecx, edx
  00529	8b 55 94	 mov	 edx, DWORD PTR _nYear$1$[ebp]
  0052c	6b c1 64	 imul	 eax, ecx, 100
  0052f	2b d0		 sub	 edx, eax
  00531	89 55 98	 mov	 DWORD PTR _nMonth$1$[ebp], edx

; 284  : 				lMarkTime /= 100;

  00534	8b d1		 mov	 edx, ecx
  00536	89 55 94	 mov	 DWORD PTR _nYear$1$[ebp], edx

; 285  : 			}

  00539	eb 07		 jmp	 SHORT $LN32@GetMarkTim
$LN31@GetMarkTim:

; 286  : 			else nMonth = stTime.wMonth;

  0053b	0f b7 45 ce	 movzx	 eax, WORD PTR _stTime$13[ebp+2]
  0053f	89 45 98	 mov	 DWORD PTR _nMonth$1$[ebp], eax
$LN32@GetMarkTim:

; 287  : 			szMarkTime[ 4] = '0' + nMonth / 10;

  00542	b8 67 66 66 66	 mov	 eax, 1717986919		; 66666667H
  00547	f7 6d 98	 imul	 DWORD PTR _nMonth$1$[ebp]
  0054a	c1 fa 02	 sar	 edx, 2
  0054d	8b ca		 mov	 ecx, edx
  0054f	c1 e9 1f	 shr	 ecx, 31			; 0000001fH
  00552	03 ca		 add	 ecx, edx
  00554	8d 41 30	 lea	 eax, DWORD PTR [ecx+48]
  00557	88 46 04	 mov	 BYTE PTR [esi+4], al

; 288  : 			szMarkTime[ 5] = '0' + nMonth % 10;

  0055a	8a c1		 mov	 al, cl
  0055c	c0 e1 02	 shl	 cl, 2
  0055f	02 c1		 add	 al, cl
  00561	8b 4d 98	 mov	 ecx, DWORD PTR _nMonth$1$[ebp]
  00564	02 c0		 add	 al, al
  00566	2a c8		 sub	 cl, al
  00568	80 c1 30	 add	 cl, 48			; 00000030H
  0056b	88 4e 05	 mov	 BYTE PTR [esi+5], cl

; 289  : 			// 3.3.8  .
; 290  : 			int nYear;
; 291  : 			if( nStart == 0) nYear = lMarkTime;

  0056e	85 ff		 test	 edi, edi
  00570	74 07		 je	 SHORT $LN34@GetMarkTim

; 292  : 			else nYear = stTime.wYear;

  00572	0f b7 45 cc	 movzx	 eax, WORD PTR _stTime$13[ebp]
  00576	89 45 94	 mov	 DWORD PTR _nYear$1$[ebp], eax
$LN34@GetMarkTim:

; 293  : 			szMarkTime[ 3] = '0' + nYear % 10;

  00579	b8 67 66 66 66	 mov	 eax, 1717986919		; 66666667H

; 294  : 			szMarkTime[ 2] = '0' + ( ( nYear / 10) % 10);

  0057e	bf 0a 00 00 00	 mov	 edi, 10			; 0000000aH
  00583	f7 6d 94	 imul	 DWORD PTR _nYear$1$[ebp]
  00586	c1 fa 02	 sar	 edx, 2
  00589	8b c2		 mov	 eax, edx
  0058b	c1 e8 1f	 shr	 eax, 31			; 0000001fH
  0058e	03 c2		 add	 eax, edx
  00590	8a c8		 mov	 cl, al
  00592	c0 e1 02	 shl	 cl, 2
  00595	8d 14 01	 lea	 edx, DWORD PTR [ecx+eax]
  00598	8a 4d 94	 mov	 cl, BYTE PTR _nYear$1$[ebp]
  0059b	02 d2		 add	 dl, dl
  0059d	2a ca		 sub	 cl, dl
  0059f	99		 cdq
  005a0	f7 ff		 idiv	 edi

; 295  : 			szMarkTime[ 1] = '0' + ( ( nYear / 100) % 10);

  005a2	b8 1f 85 eb 51	 mov	 eax, 1374389535		; 51eb851fH
  005a7	80 c1 30	 add	 cl, 48			; 00000030H
  005aa	80 c2 30	 add	 dl, 48			; 00000030H
  005ad	88 4e 03	 mov	 BYTE PTR [esi+3], cl
  005b0	88 56 02	 mov	 BYTE PTR [esi+2], dl
  005b3	f7 6d 94	 imul	 DWORD PTR _nYear$1$[ebp]
  005b6	c1 fa 05	 sar	 edx, 5
  005b9	8b c2		 mov	 eax, edx
  005bb	c1 e8 1f	 shr	 eax, 31			; 0000001fH
  005be	03 c2		 add	 eax, edx
  005c0	99		 cdq
  005c1	f7 ff		 idiv	 edi

; 296  : 			szMarkTime[ 0] = '0' + nYear / 1000;

  005c3	b8 d3 4d 62 10	 mov	 eax, 274877907		; 10624dd3H
  005c8	80 c2 30	 add	 dl, 48			; 00000030H
  005cb	88 56 01	 mov	 BYTE PTR [esi+1], dl
  005ce	f7 6d 94	 imul	 DWORD PTR _nYear$1$[ebp]
  005d1	c1 fa 06	 sar	 edx, 6
  005d4	8b c2		 mov	 eax, edx
  005d6	c1 e8 1f	 shr	 eax, 31			; 0000001fH
  005d9	03 c2		 add	 eax, edx
  005db	04 30		 add	 al, 48			; 00000030H
  005dd	88 06		 mov	 BYTE PTR [esi], al
$LN28@GetMarkTim:

; 297  : 		}
; 298  : 	}

  005df	8d 4d 90	 lea	 ecx, DWORD PTR _strPacketType$5[ebp]
  005e2	ff 15 00 00 00
	00		 call	 DWORD PTR __imp_??1?$CStringT@DV?$StrTraitMFC_DLL@DV?$ChTraitsCRT@D@ATL@@@@@ATL@@QAE@XZ
  005e8	8d 4d c4	 lea	 ecx, DWORD PTR _szPacketType$12[ebp]
  005eb	e8 00 00 00 00	 call	 ??1ILPCSTR000000@@QAE@XZ ; ILPCSTR000000::~ILPCSTR000000

; 303  : 	}
; 304  : 	pIPacket->Release();

  005f0	8b 4d 88	 mov	 ecx, DWORD PTR _pIPacket$[ebp]
  005f3	51		 push	 ecx
  005f4	c7 45 fc ff ff
	ff ff		 mov	 DWORD PTR __$EHRec$[ebp+12], -1
  005fb	8b 01		 mov	 eax, DWORD PTR [ecx]
  005fd	ff 50 08	 call	 DWORD PTR [eax+8]
  00600	b8 01 00 00 00	 mov	 eax, 1
  00605	eb 11		 jmp	 SHORT $LN1@GetMarkTim
__catch$?GetMarkTimeInString@CTimeMarkerAddInImp@@IAEHVCPoint@@AAV?$CStringT@DV?$StrTraitMFC_DLL@DV?$ChTraitsCRT@D@ATL@@@@@ATL@@@Z$0:

; 299  : 	catch( CTimeMarkerAddInImp *)
; 300  : 	{
; 301  : 		pIPacket->Release();

  00607	8b 45 88	 mov	 eax, DWORD PTR _pIPacket$[ebp]
  0060a	50		 push	 eax
  0060b	8b 08		 mov	 ecx, DWORD PTR [eax]
  0060d	ff 51 08	 call	 DWORD PTR [ecx+8]

; 302  : 		return FALSE;

  00610	b8 00 00 00 00	 mov	 eax, $LN46@GetMarkTim
  00615	c3		 ret	 0
$LN46@GetMarkTim:
  00616	33 c0		 xor	 eax, eax
$LN1@GetMarkTim:

; 305  : 	return TRUE;
; 306  : }

  00618	8b 4d f4	 mov	 ecx, DWORD PTR __$EHRec$[ebp+4]
  0061b	64 89 0d 00 00
	00 00		 mov	 DWORD PTR fs:0, ecx
  00622	59		 pop	 ecx
  00623	5f		 pop	 edi
  00624	5e		 pop	 esi
  00625	5b		 pop	 ebx
  00626	8b 4d ec	 mov	 ecx, DWORD PTR __$ArrayPad$[ebp]
  00629	33 cd		 xor	 ecx, ebp
  0062b	e8 00 00 00 00	 call	 @__security_check_cookie@4
  00630	8b e5		 mov	 esp, ebp
  00632	5d		 pop	 ebp
  00633	c2 0c 00	 ret	 12			; 0000000cH
$LN92@GetMarkTim:

; 186  : 	try
; 187  : 	{
; 188  : 		// 2.2 Data .
; 189  : 		// (2004.07.02, )   Logic .
; 190  : 		// (2004.09.24, ) ScrollBar Zero Base  1  .
; 191  : 		double dMarkTime;
; 192  : 		if( !pIPacket->GetData( nDataIndex, dMarkTime)) throw this;

  00636	68 00 00 00 00	 push	 OFFSET __TI7PAVCTimeMarkerAddInImp@@
  0063b	8d 85 7c ff ff
	ff		 lea	 eax, DWORD PTR $T4[ebp]
  00641	89 bd 7c ff ff
	ff		 mov	 DWORD PTR $T4[ebp], edi
  00647	50		 push	 eax
  00648	e8 00 00 00 00	 call	 __CxxThrowException@8
$LN17@GetMarkTim:

; 212  : 		else throw this;

  0064d	68 00 00 00 00	 push	 OFFSET __TI7PAVCTimeMarkerAddInImp@@
  00652	8d 85 78 ff ff
	ff		 lea	 eax, DWORD PTR $T3[ebp]
  00658	89 bd 78 ff ff
	ff		 mov	 DWORD PTR $T3[ebp], edi
  0065e	50		 push	 eax
  0065f	e8 00 00 00 00	 call	 __CxxThrowException@8
$LN89@GetMarkTim:
  00664	cc		 int	 3
_TEXT	ENDS
;	COMDAT text$x
text$x	SEGMENT
__unwindfunclet$?GetMarkTimeInString@CTimeMarkerAddInImp@@IAEHVCPoint@@AAV?$CStringT@DV?$StrTraitMFC_DLL@DV?$ChTraitsCRT@D@ATL@@@@@ATL@@@Z$2:
  00000	8d 4d c4	 lea	 ecx, DWORD PTR _szPacketType$12[ebp]
  00003	e9 00 00 00 00	 jmp	 ??1ILPCSTR000000@@QAE@XZ ; ILPCSTR000000::~ILPCSTR000000
__unwindfunclet$?GetMarkTimeInString@CTimeMarkerAddInImp@@IAEHVCPoint@@AAV?$CStringT@DV?$StrTraitMFC_DLL@DV?$ChTraitsCRT@D@ATL@@@@@ATL@@@Z$3:
  00008	8d 4d 90	 lea	 ecx, DWORD PTR _strPacketType$5[ebp]
  0000b	ff 25 00 00 00
	00		 jmp	 DWORD PTR __imp_??1?$CStringT@DV?$StrTraitMFC_DLL@DV?$ChTraitsCRT@D@ATL@@@@@ATL@@QAE@XZ
__unwindfunclet$?GetMarkTimeInString@CTimeMarkerAddInImp@@IAEHVCPoint@@AAV?$CStringT@DV?$StrTraitMFC_DLL@DV?$ChTraitsCRT@D@ATL@@@@@ATL@@@Z$4:
  00011	8d 4d 98	 lea	 ecx, DWORD PTR $T10[ebp]
  00014	ff 25 00 00 00
	00		 jmp	 DWORD PTR __imp_??1?$CStringT@DV?$StrTraitMFC_DLL@DV?$ChTraitsCRT@D@ATL@@@@@ATL@@QAE@XZ
__unwindfunclet$?GetMarkTimeInString@CTimeMarkerAddInImp@@IAEHVCPoint@@AAV?$CStringT@DV?$StrTraitMFC_DLL@DV?$ChTraitsCRT@D@ATL@@@@@ATL@@@Z$5:
  0001a	8d 4d 98	 lea	 ecx, DWORD PTR $T9[ebp]
  0001d	ff 25 00 00 00
	00		 jmp	 DWORD PTR __imp_??1?$CStringT@DV?$StrTraitMFC_DLL@DV?$ChTraitsCRT@D@ATL@@@@@ATL@@QAE@XZ
__unwindfunclet$?GetMarkTimeInString@CTimeMarkerAddInImp@@IAEHVCPoint@@AAV?$CStringT@DV?$StrTraitMFC_DLL@DV?$ChTraitsCRT@D@ATL@@@@@ATL@@@Z$6:
  00023	8d 4d 98	 lea	 ecx, DWORD PTR $T8[ebp]
  00026	ff 25 00 00 00
	00		 jmp	 DWORD PTR __imp_??1?$CStringT@DV?$StrTraitMFC_DLL@DV?$ChTraitsCRT@D@ATL@@@@@ATL@@QAE@XZ
__unwindfunclet$?GetMarkTimeInString@CTimeMarkerAddInImp@@IAEHVCPoint@@AAV?$CStringT@DV?$StrTraitMFC_DLL@DV?$ChTraitsCRT@D@ATL@@@@@ATL@@@Z$7:
  0002c	8d 4d 98	 lea	 ecx, DWORD PTR $T7[ebp]
  0002f	ff 25 00 00 00
	00		 jmp	 DWORD PTR __imp_??1?$CStringT@DV?$StrTraitMFC_DLL@DV?$ChTraitsCRT@D@ATL@@@@@ATL@@QAE@XZ
__unwindfunclet$?GetMarkTimeInString@CTimeMarkerAddInImp@@IAEHVCPoint@@AAV?$CStringT@DV?$StrTraitMFC_DLL@DV?$ChTraitsCRT@D@ATL@@@@@ATL@@@Z$8:
  00035	8d 4d 98	 lea	 ecx, DWORD PTR $T6[ebp]
  00038	ff 25 00 00 00
	00		 jmp	 DWORD PTR __imp_??1?$CStringT@DV?$StrTraitMFC_DLL@DV?$ChTraitsCRT@D@ATL@@@@@ATL@@QAE@XZ
  0003e	cc		 int	 3
  0003f	cc		 int	 3
  00040	cc		 int	 3
  00041	cc		 int	 3
  00042	cc		 int	 3
__ehhandler$?GetMarkTimeInString@CTimeMarkerAddInImp@@IAEHVCPoint@@AAV?$CStringT@DV?$StrTraitMFC_DLL@DV?$ChTraitsCRT@D@ATL@@@@@ATL@@@Z:
  00043	90		 npad	 1
  00044	90		 npad	 1
  00045	8b 54 24 08	 mov	 edx, DWORD PTR [esp+8]
  00049	8d 42 0c	 lea	 eax, DWORD PTR [edx+12]
  0004c	8b 8a 64 ff ff
	ff		 mov	 ecx, DWORD PTR [edx-156]
  00052	33 c8		 xor	 ecx, eax
  00054	e8 00 00 00 00	 call	 @__security_check_cookie@4
  00059	8b 4a f8	 mov	 ecx, DWORD PTR [edx-8]
  0005c	33 c8		 xor	 ecx, eax
  0005e	e8 00 00 00 00	 call	 @__security_check_cookie@4
  00063	b8 00 00 00 00	 mov	 eax, OFFSET __ehfuncinfo$?GetMarkTimeInString@CTimeMarkerAddInImp@@IAEHVCPoint@@AAV?$CStringT@DV?$StrTraitMFC_DLL@DV?$ChTraitsCRT@D@ATL@@@@@ATL@@@Z
  00068	e9 00 00 00 00	 jmp	 ___CxxFrameHandler3
text$x	ENDS
?GetMarkTimeInString@CTimeMarkerAddInImp@@IAEHVCPoint@@AAV?$CStringT@DV?$StrTraitMFC_DLL@DV?$ChTraitsCRT@D@ATL@@@@@ATL@@@Z ENDP ; CTimeMarkerAddInImp::GetMarkTimeInString
; Function compile flags: /Ogtp
; File D:\git\src\IBK\IBK_DRFN\ProjSrc\SrcChartEx\ChartOCX\AddInManager\ChartCommonAddIn\TimeMarkerAddInImp.cpp
; File C:\Program Files (x86)\Microsoft Visual Studio\2019\Community\VC\Tools\MSVC\14.29.30133\atlmfc\include\atlsimpstr.h
; File D:\git\src\IBK\IBK_DRFN\ProjSrc\SrcChartEx\ChartOCX\AddInManager\ChartCommonAddIn\TimeMarkerAddInImp.cpp
; File C:\Program Files (x86)\Microsoft Visual Studio\2019\Community\VC\Tools\MSVC\14.29.30133\atlmfc\include\cstringt.h
; File D:\git\src\IBK\IBK_DRFN\ProjSrc\SrcChartEx\ChartOCX\AddInManager\ChartCommonAddIn\TimeMarkerAddInImp.cpp
; File C:\Program Files (x86)\Microsoft Visual Studio\2019\Community\VC\Tools\MSVC\14.29.30133\atlmfc\include\cstringt.h
; File D:\git\src\IBK\IBK_DRFN\ProjSrc\SrcChartEx\ChartOCX\AddInManager\ChartCommonAddIn\TimeMarkerAddInImp.cpp
; File C:\Program Files (x86)\Microsoft Visual Studio\2019\Community\VC\Tools\MSVC\14.29.30133\atlmfc\include\cstringt.h
; File D:\git\src\IBK\IBK_DRFN\ProjSrc\SrcChartEx\ChartOCX\AddInManager\ChartCommonAddIn\TimeMarkerAddInImp.cpp
; File C:\Program Files (x86)\Microsoft Visual Studio\2019\Community\VC\Tools\MSVC\14.29.30133\atlmfc\include\atlsimpstr.h
; File D:\git\src\IBK\IBK_DRFN\ProjSrc\SrcChartEx\ChartOCX\AddInManager\ChartCommonAddIn\TimeMarkerAddInImp.cpp
; File D:\git\src\IBK\IBK_DRFN\ProjSrc\SrcChartEx\ChartOCX\AddInManager\Include_Addin\I000000\_IString.h
; File D:\git\src\IBK\IBK_DRFN\ProjSrc\SrcChartEx\ChartOCX\AddInManager\ChartCommonAddIn\TimeMarkerAddInImp.cpp
; File C:\Program Files (x86)\Microsoft Visual Studio\2019\Community\VC\Tools\MSVC\14.29.30133\atlmfc\include\cstringt.h
; File D:\git\src\IBK\IBK_DRFN\ProjSrc\SrcChartEx\ChartOCX\AddInManager\ChartCommonAddIn\TimeMarkerAddInImp.cpp
; File C:\Program Files (x86)\Microsoft Visual Studio\2019\Community\VC\Tools\MSVC\14.29.30133\atlmfc\include\cstringt.h
; File D:\git\src\IBK\IBK_DRFN\ProjSrc\SrcChartEx\ChartOCX\AddInManager\ChartCommonAddIn\TimeMarkerAddInImp.cpp
; File C:\Program Files (x86)\Microsoft Visual Studio\2019\Community\VC\Tools\MSVC\14.29.30133\atlmfc\include\cstringt.h
; File D:\git\src\IBK\IBK_DRFN\ProjSrc\SrcChartEx\ChartOCX\AddInManager\ChartCommonAddIn\TimeMarkerAddInImp.cpp
; File C:\Program Files (x86)\Microsoft Visual Studio\2019\Community\VC\Tools\MSVC\14.29.30133\atlmfc\include\cstringt.h
; File D:\git\src\IBK\IBK_DRFN\ProjSrc\SrcChartEx\ChartOCX\AddInManager\ChartCommonAddIn\TimeMarkerAddInImp.cpp
; File C:\Program Files (x86)\Microsoft Visual Studio\2019\Community\VC\Tools\MSVC\14.29.30133\atlmfc\include\cstringt.h
; File D:\git\src\IBK\IBK_DRFN\ProjSrc\SrcChartEx\ChartOCX\AddInManager\ChartCommonAddIn\TimeMarkerAddInImp.cpp
; File C:\Program Files (x86)\Microsoft Visual Studio\2019\Community\VC\Tools\MSVC\14.29.30133\atlmfc\include\cstringt.h
; File D:\git\src\IBK\IBK_DRFN\ProjSrc\SrcChartEx\ChartOCX\AddInManager\ChartCommonAddIn\TimeMarkerAddInImp.cpp
; File C:\Program Files (x86)\Microsoft Visual Studio\2019\Community\VC\Tools\MSVC\14.29.30133\atlmfc\include\cstringt.h
; File D:\git\src\IBK\IBK_DRFN\ProjSrc\SrcChartEx\ChartOCX\AddInManager\ChartCommonAddIn\TimeMarkerAddInImp.cpp
; File C:\Program Files (x86)\Microsoft Visual Studio\2019\Community\VC\Tools\MSVC\14.29.30133\atlmfc\include\cstringt.h
; File D:\git\src\IBK\IBK_DRFN\ProjSrc\SrcChartEx\ChartOCX\AddInManager\ChartCommonAddIn\TimeMarkerAddInImp.cpp
; File C:\Program Files (x86)\Microsoft Visual Studio\2019\Community\VC\Tools\MSVC\14.29.30133\atlmfc\include\cstringt.h
; File D:\git\src\IBK\IBK_DRFN\ProjSrc\SrcChartEx\ChartOCX\AddInManager\ChartCommonAddIn\TimeMarkerAddInImp.cpp
; File C:\Program Files (x86)\Microsoft Visual Studio\2019\Community\VC\Tools\MSVC\14.29.30133\atlmfc\include\cstringt.h
; File D:\git\src\IBK\IBK_DRFN\ProjSrc\SrcChartEx\ChartOCX\AddInManager\ChartCommonAddIn\TimeMarkerAddInImp.cpp
; File C:\Program Files (x86)\Microsoft Visual Studio\2019\Community\VC\Tools\MSVC\14.29.30133\atlmfc\include\cstringt.h
; File D:\git\src\IBK\IBK_DRFN\ProjSrc\SrcChartEx\ChartOCX\AddInManager\ChartCommonAddIn\TimeMarkerAddInImp.cpp
; File C:\Program Files (x86)\Microsoft Visual Studio\2019\Community\VC\Tools\MSVC\14.29.30133\atlmfc\include\cstringt.h
; File D:\git\src\IBK\IBK_DRFN\ProjSrc\SrcChartEx\ChartOCX\AddInManager\ChartCommonAddIn\TimeMarkerAddInImp.cpp
; File C:\Program Files (x86)\Microsoft Visual Studio\2019\Community\VC\Tools\MSVC\14.29.30133\atlmfc\include\cstringt.h
; File D:\git\src\IBK\IBK_DRFN\ProjSrc\SrcChartEx\ChartOCX\AddInManager\ChartCommonAddIn\TimeMarkerAddInImp.cpp
; File C:\Program Files (x86)\Microsoft Visual Studio\2019\Community\VC\Tools\MSVC\14.29.30133\atlmfc\include\cstringt.h
; File D:\git\src\IBK\IBK_DRFN\ProjSrc\SrcChartEx\ChartOCX\AddInManager\ChartCommonAddIn\TimeMarkerAddInImp.cpp
; File C:\Program Files (x86)\Microsoft Visual Studio\2019\Community\VC\Tools\MSVC\14.29.30133\atlmfc\include\cstringt.h
; File D:\git\src\IBK\IBK_DRFN\ProjSrc\SrcChartEx\ChartOCX\AddInManager\ChartCommonAddIn\TimeMarkerAddInImp.cpp
; File C:\Program Files (x86)\Microsoft Visual Studio\2019\Community\VC\Tools\MSVC\14.29.30133\atlmfc\include\atlsimpstr.h
; File D:\git\src\IBK\IBK_DRFN\ProjSrc\SrcChartEx\ChartOCX\AddInManager\ChartCommonAddIn\TimeMarkerAddInImp.cpp
; File C:\Program Files (x86)\Microsoft Visual Studio\2019\Community\VC\Tools\MSVC\14.29.30133\atlmfc\include\atlsimpstr.h
; File D:\git\src\IBK\IBK_DRFN\ProjSrc\SrcChartEx\ChartOCX\AddInManager\ChartCommonAddIn\TimeMarkerAddInImp.cpp
; File D:\git\src\IBK\IBK_DRFN\ProjSrc\SrcChartEx\ChartOCX\AddInManager\Include_Addin\I000000\_IString.h
; File D:\git\src\IBK\IBK_DRFN\ProjSrc\SrcChartEx\ChartOCX\AddInManager\ChartCommonAddIn\TimeMarkerAddInImp.cpp
;	COMDAT ?GetTimeValue@CTimeMarkerAddInImp@@IAE_JPBDAAH@Z
_TEXT	SEGMENT
_dSelectedDate$2 = -108					; size = 8
_szPacketType$3 = -100					; size = 8
$T4 = -92						; size = 4
_szPacketType$2$ = -88					; size = 4
$T5 = -84						; size = 4
_nScrollRange$6 = -80					; size = 4
$T7 = -76						; size = 4
$T8 = -72						; size = 4
$T9 = -68						; size = 4
$T10 = -64						; size = 4
_p_nTimeIndex$GSCopy$1$ = -60				; size = 4
$T11 = -56						; size = 4
_pIPacket$ = -56					; size = 4
_lMarkTime$2$ = -52					; size = 4
_bNNData$1$ = -52					; size = 4
$T12 = -52						; size = 4
_strPacketType$13 = -48					; size = 4
_strMarkTime$ = -44					; size = 4
_lMarkTime$1$ = -40					; size = 4
_strOldValue$14 = -40					; size = 4
$T15 = -40						; size = 4
$T16 = -40						; size = 4
$T17 = -40						; size = 4
$T18 = -40						; size = 4
$T19 = -40						; size = 4
$T20 = -40						; size = 4
_st$21 = -36						; size = 16
__$ArrayPad$ = -20					; size = 4
__$EHRec$ = -16						; size = 16
_p_szMarkTime$ = 8					; size = 4
_p_nTimeIndex$ = 12					; size = 4
?GetTimeValue@CTimeMarkerAddInImp@@IAE_JPBDAAH@Z PROC	; CTimeMarkerAddInImp::GetTimeValue, COMDAT
; _this$ = ecx

; 313  : {

  00000	55		 push	 ebp
  00001	8b ec		 mov	 ebp, esp
  00003	6a ff		 push	 -1
  00005	68 00 00 00 00	 push	 __ehhandler$?GetTimeValue@CTimeMarkerAddInImp@@IAE_JPBDAAH@Z
  0000a	64 a1 00 00 00
	00		 mov	 eax, DWORD PTR fs:0
  00010	50		 push	 eax
  00011	83 ec 60	 sub	 esp, 96			; 00000060H
  00014	a1 00 00 00 00	 mov	 eax, DWORD PTR ___security_cookie
  00019	33 c5		 xor	 eax, ebp
  0001b	89 45 ec	 mov	 DWORD PTR __$ArrayPad$[ebp], eax
  0001e	53		 push	 ebx
  0001f	56		 push	 esi
  00020	57		 push	 edi
  00021	50		 push	 eax
  00022	8d 45 f4	 lea	 eax, DWORD PTR __$EHRec$[ebp+4]
  00025	64 a3 00 00 00
	00		 mov	 DWORD PTR fs:0, eax
  0002b	89 65 f0	 mov	 DWORD PTR __$EHRec$[ebp], esp
  0002e	8b f9		 mov	 edi, ecx
  00030	8b 4d 0c	 mov	 ecx, DWORD PTR _p_nTimeIndex$[ebp]
  00033	33 db		 xor	 ebx, ebx
  00035	8b 45 08	 mov	 eax, DWORD PTR _p_szMarkTime$[ebp]
  00038	89 4d c4	 mov	 DWORD PTR _p_nTimeIndex$GSCopy$1$[ebp], ecx

; 322  : 	CString strMarkTime( p_szMarkTime);

  0003b	8d 4d d4	 lea	 ecx, DWORD PTR _strMarkTime$[ebp]
  0003e	50		 push	 eax
  0003f	89 5d c8	 mov	 DWORD PTR $T11[ebp], ebx
  00042	ff 15 00 00 00
	00		 call	 DWORD PTR __imp_??0?$CStringT@DV?$StrTraitMFC_DLL@DV?$ChTraitsCRT@D@ATL@@@@@ATL@@QAE@PBD@Z
; File C:\Program Files (x86)\Microsoft Visual Studio\2019\Community\VC\Tools\MSVC\14.29.30133\atlmfc\include\atlsimpstr.h

; 519  : 		return( GetData()->nDataLength );

  00048	8b 45 d4	 mov	 eax, DWORD PTR _strMarkTime$[ebp]
; File D:\git\src\IBK\IBK_DRFN\ProjSrc\SrcChartEx\ChartOCX\AddInManager\ChartCommonAddIn\TimeMarkerAddInImp.cpp

; 322  : 	CString strMarkTime( p_szMarkTime);

  0004b	89 5d fc	 mov	 DWORD PTR __$EHRec$[ebp+12], ebx

; 325  : 	BOOL bNNData = ( strMarkTime.GetLength() == 16 && strMarkTime.Right( 2) != "  ");

  0004e	83 78 f4 10	 cmp	 DWORD PTR [eax-12], 16	; 00000010H
  00052	75 2f		 jne	 SHORT $LN31@GetTimeVal
  00054	6a 02		 push	 2
  00056	8d 45 d8	 lea	 eax, DWORD PTR $T20[ebp]
  00059	50		 push	 eax
  0005a	8d 4d d4	 lea	 ecx, DWORD PTR _strMarkTime$[ebp]
  0005d	ff 15 00 00 00
	00		 call	 DWORD PTR __imp_?Right@?$CStringT@DV?$StrTraitMFC_DLL@DV?$ChTraitsCRT@D@ATL@@@@@ATL@@QBE?AV12@H@Z
  00063	bb 01 00 00 00	 mov	 ebx, 1
  00068	c6 45 fc 01	 mov	 BYTE PTR __$EHRec$[ebp+12], 1
; File C:\Program Files (x86)\Microsoft Visual Studio\2019\Community\VC\Tools\MSVC\14.29.30133\atlmfc\include\cstringt.h

; 2567 : 		return( str1.Compare( psz2 ) != 0 );

  0006c	68 00 00 00 00	 push	 OFFSET ??_C@_02KNHHEEKP@?5?5@
  00071	8b c8		 mov	 ecx, eax
; File D:\git\src\IBK\IBK_DRFN\ProjSrc\SrcChartEx\ChartOCX\AddInManager\ChartCommonAddIn\TimeMarkerAddInImp.cpp

; 325  : 	BOOL bNNData = ( strMarkTime.GetLength() == 16 && strMarkTime.Right( 2) != "  ");

  00073	89 5d c8	 mov	 DWORD PTR $T11[ebp], ebx
; File C:\Program Files (x86)\Microsoft Visual Studio\2019\Community\VC\Tools\MSVC\14.29.30133\atlmfc\include\cstringt.h

; 2567 : 		return( str1.Compare( psz2 ) != 0 );

  00076	ff 15 00 00 00
	00		 call	 DWORD PTR __imp_?Compare@?$CStringT@DV?$StrTraitMFC_DLL@DV?$ChTraitsCRT@D@ATL@@@@@ATL@@QBEHPBD@Z
; File D:\git\src\IBK\IBK_DRFN\ProjSrc\SrcChartEx\ChartOCX\AddInManager\ChartCommonAddIn\TimeMarkerAddInImp.cpp

; 325  : 	BOOL bNNData = ( strMarkTime.GetLength() == 16 && strMarkTime.Right( 2) != "  ");

  0007c	89 5d cc	 mov	 DWORD PTR _bNNData$1$[ebp], ebx
; File C:\Program Files (x86)\Microsoft Visual Studio\2019\Community\VC\Tools\MSVC\14.29.30133\atlmfc\include\cstringt.h

; 2567 : 		return( str1.Compare( psz2 ) != 0 );

  0007f	85 c0		 test	 eax, eax
; File D:\git\src\IBK\IBK_DRFN\ProjSrc\SrcChartEx\ChartOCX\AddInManager\ChartCommonAddIn\TimeMarkerAddInImp.cpp

; 325  : 	BOOL bNNData = ( strMarkTime.GetLength() == 16 && strMarkTime.Right( 2) != "  ");

  00081	75 07		 jne	 SHORT $LN32@GetTimeVal
$LN31@GetTimeVal:
  00083	c7 45 cc 00 00
	00 00		 mov	 DWORD PTR _bNNData$1$[ebp], 0
$LN32@GetTimeVal:
  0008a	c7 45 fc 00 00
	00 00		 mov	 DWORD PTR __$EHRec$[ebp+12], 0
  00091	f6 c3 01	 test	 bl, 1
  00094	74 09		 je	 SHORT $LN38@GetTimeVal
  00096	8d 4d d8	 lea	 ecx, DWORD PTR $T20[ebp]
  00099	ff 15 00 00 00
	00		 call	 DWORD PTR __imp_??1?$CStringT@DV?$StrTraitMFC_DLL@DV?$ChTraitsCRT@D@ATL@@@@@ATL@@QAE@XZ
$LN38@GetTimeVal:

; 326  : 
; 327  : 	strMarkTime.TrimLeft();

  0009f	8d 4d d4	 lea	 ecx, DWORD PTR _strMarkTime$[ebp]
  000a2	ff 15 00 00 00
	00		 call	 DWORD PTR __imp_?TrimLeft@?$CStringT@DV?$StrTraitMFC_DLL@DV?$ChTraitsCRT@D@ATL@@@@@ATL@@QAEAAV12@XZ

; 328  : 	strMarkTime.TrimRight();

  000a8	8d 4d d4	 lea	 ecx, DWORD PTR _strMarkTime$[ebp]
  000ab	ff 15 00 00 00
	00		 call	 DWORD PTR __imp_?TrimRight@?$CStringT@DV?$StrTraitMFC_DLL@DV?$ChTraitsCRT@D@ATL@@@@@ATL@@QAEAAV12@XZ
; File C:\Program Files (x86)\Microsoft Visual Studio\2019\Community\VC\Tools\MSVC\14.29.30133\atlmfc\include\atlsimpstr.h

; 519  : 		return( GetData()->nDataLength );

  000b1	8b 45 d4	 mov	 eax, DWORD PTR _strMarkTime$[ebp]
  000b4	8b 70 f4	 mov	 esi, DWORD PTR [eax-12]
; File D:\git\src\IBK\IBK_DRFN\ProjSrc\SrcChartEx\ChartOCX\AddInManager\ChartCommonAddIn\TimeMarkerAddInImp.cpp

; 331  : 	if( nLength != 6 && nLength != 8 && nLength != 14 && nLength != 16) return 0;

  000b7	83 fe 06	 cmp	 esi, 6
  000ba	74 13		 je	 SHORT $LN4@GetTimeVal
  000bc	83 fe 08	 cmp	 esi, 8
  000bf	74 0e		 je	 SHORT $LN4@GetTimeVal
  000c1	83 fe 0e	 cmp	 esi, 14			; 0000000eH
  000c4	74 09		 je	 SHORT $LN4@GetTimeVal
  000c6	83 fe 10	 cmp	 esi, 16			; 00000010H
  000c9	0f 85 84 03 00
	00		 jne	 $LN49@GetTimeVal
$LN4@GetTimeVal:

; 332  : 
; 333  : 	// 1.2      .
; 334  : 	// 1.2.1  Chart  Data Format .
; 335  : 	IPacket *pIPacket = m_pIDefaultPacketManager->GetPacket( _MTEXT( C0_DATE_TIME));

  000cf	8b 4f 20	 mov	 ecx, DWORD PTR [edi+32]
  000d2	a1 54 00 00 00	 mov	 eax, DWORD PTR ?g_iMetaTable@@3VIMetaTable@@A+84
  000d7	8b 11		 mov	 edx, DWORD PTR [ecx]
  000d9	ff 30		 push	 DWORD PTR [eax]
  000db	ff 52 10	 call	 DWORD PTR [edx+16]
  000de	89 45 c8	 mov	 DWORD PTR _pIPacket$[ebp], eax

; 336  : 	if( !pIPacket) return 0;

  000e1	85 c0		 test	 eax, eax
  000e3	0f 84 6a 03 00
	00		 je	 $LN49@GetTimeVal

; 339  : 		ILPCSTR szPacketType = pIPacket->GetType();

  000e9	8b 10		 mov	 edx, DWORD PTR [eax]
  000eb	8b c8		 mov	 ecx, eax
  000ed	6a 01		 push	 1
  000ef	c6 45 fc 02	 mov	 BYTE PTR __$EHRec$[ebp+12], 2
  000f3	ff 52 1c	 call	 DWORD PTR [edx+28]
  000f6	89 45 a8	 mov	 DWORD PTR _szPacketType$2$[ebp], eax
; File D:\git\src\IBK\IBK_DRFN\ProjSrc\SrcChartEx\ChartOCX\AddInManager\Include_Addin\I000000\_IString.h

; 39   : 		m_pIStrData = p_pIString;	// Do not AddRef(). Because It must be Return Value.

  000f9	89 45 a0	 mov	 DWORD PTR _szPacketType$3[ebp+4], eax
  000fc	85 c0		 test	 eax, eax

; 40   : 		if( m_pIStrData) m_szData = m_pIStrData->GetData();

  000fe	74 09		 je	 SHORT $LN61@GetTimeVal
  00100	8b 10		 mov	 edx, DWORD PTR [eax]
  00102	8b c8		 mov	 ecx, eax
  00104	ff 52 10	 call	 DWORD PTR [edx+16]
  00107	eb 02		 jmp	 SHORT $LN92@GetTimeVal
$LN61@GetTimeVal:

; 41   : 		else m_szData = NULL;

  00109	33 c0		 xor	 eax, eax
$LN92@GetTimeVal:
; File D:\git\src\IBK\IBK_DRFN\ProjSrc\SrcChartEx\ChartOCX\AddInManager\ChartCommonAddIn\TimeMarkerAddInImp.cpp

; 339  : 		ILPCSTR szPacketType = pIPacket->GetType();

  0010b	89 45 9c	 mov	 DWORD PTR _szPacketType$3[ebp], eax

; 340  : 		CString strPacketType( szPacketType);

  0010e	50		 push	 eax
  0010f	8d 4d d0	 lea	 ecx, DWORD PTR _strPacketType$13[ebp]
  00112	c6 45 fc 03	 mov	 BYTE PTR __$EHRec$[ebp+12], 3
  00116	ff 15 00 00 00
	00		 call	 DWORD PTR __imp_??0?$CStringT@DV?$StrTraitMFC_DLL@DV?$ChTraitsCRT@D@ATL@@@@@ATL@@QAE@PBD@Z

; 345  : 		if( strPacketType.Left( 4) == "YYYY")	nStart = 0;

  0011c	6a 04		 push	 4
  0011e	8d 45 d8	 lea	 eax, DWORD PTR $T19[ebp]
  00121	c6 45 fc 04	 mov	 BYTE PTR __$EHRec$[ebp+12], 4
  00125	50		 push	 eax
  00126	8d 4d d0	 lea	 ecx, DWORD PTR _strPacketType$13[ebp]
  00129	ff 15 00 00 00
	00		 call	 DWORD PTR __imp_?Left@?$CStringT@DV?$StrTraitMFC_DLL@DV?$ChTraitsCRT@D@ATL@@@@@ATL@@QBE?AV12@H@Z
; File C:\Program Files (x86)\Microsoft Visual Studio\2019\Community\VC\Tools\MSVC\14.29.30133\atlmfc\include\cstringt.h

; 2486 : 		return(str1.Compare(psz2) == 0);

  0012f	68 00 00 00 00	 push	 OFFSET ??_C@_04LCMPBGFC@YYYY@
  00134	8b c8		 mov	 ecx, eax
; File D:\git\src\IBK\IBK_DRFN\ProjSrc\SrcChartEx\ChartOCX\AddInManager\ChartCommonAddIn\TimeMarkerAddInImp.cpp

; 345  : 		if( strPacketType.Left( 4) == "YYYY")	nStart = 0;

  00136	c6 45 fc 05	 mov	 BYTE PTR __$EHRec$[ebp+12], 5
; File C:\Program Files (x86)\Microsoft Visual Studio\2019\Community\VC\Tools\MSVC\14.29.30133\atlmfc\include\cstringt.h

; 2486 : 		return(str1.Compare(psz2) == 0);

  0013a	ff 15 00 00 00
	00		 call	 DWORD PTR __imp_?Compare@?$CStringT@DV?$StrTraitMFC_DLL@DV?$ChTraitsCRT@D@ATL@@@@@ATL@@QBEHPBD@Z
; File D:\git\src\IBK\IBK_DRFN\ProjSrc\SrcChartEx\ChartOCX\AddInManager\ChartCommonAddIn\TimeMarkerAddInImp.cpp

; 345  : 		if( strPacketType.Left( 4) == "YYYY")	nStart = 0;

  00140	8d 4d d8	 lea	 ecx, DWORD PTR $T19[ebp]
  00143	c6 45 fc 04	 mov	 BYTE PTR __$EHRec$[ebp+12], 4
; File C:\Program Files (x86)\Microsoft Visual Studio\2019\Community\VC\Tools\MSVC\14.29.30133\atlmfc\include\cstringt.h

; 2486 : 		return(str1.Compare(psz2) == 0);

  00147	8b d8		 mov	 ebx, eax
; File D:\git\src\IBK\IBK_DRFN\ProjSrc\SrcChartEx\ChartOCX\AddInManager\ChartCommonAddIn\TimeMarkerAddInImp.cpp

; 345  : 		if( strPacketType.Left( 4) == "YYYY")	nStart = 0;

  00149	ff 15 00 00 00
	00		 call	 DWORD PTR __imp_??1?$CStringT@DV?$StrTraitMFC_DLL@DV?$ChTraitsCRT@D@ATL@@@@@ATL@@QAE@XZ
  0014f	85 db		 test	 ebx, ebx
  00151	0f 84 ed 00 00
	00		 je	 $LN16@GetTimeVal
$LN7@GetTimeVal:

; 347  : 		else if( strPacketType.Left( 4) == "MMDD")	nStart = 4;

  00157	6a 04		 push	 4
  00159	8d 45 d8	 lea	 eax, DWORD PTR $T18[ebp]
  0015c	50		 push	 eax
  0015d	8d 4d d0	 lea	 ecx, DWORD PTR _strPacketType$13[ebp]
  00160	ff 15 00 00 00
	00		 call	 DWORD PTR __imp_?Left@?$CStringT@DV?$StrTraitMFC_DLL@DV?$ChTraitsCRT@D@ATL@@@@@ATL@@QBE?AV12@H@Z
; File C:\Program Files (x86)\Microsoft Visual Studio\2019\Community\VC\Tools\MSVC\14.29.30133\atlmfc\include\cstringt.h

; 2486 : 		return(str1.Compare(psz2) == 0);

  00166	68 00 00 00 00	 push	 OFFSET ??_C@_04BDEGLLOH@MMDD@
  0016b	8b c8		 mov	 ecx, eax
; File D:\git\src\IBK\IBK_DRFN\ProjSrc\SrcChartEx\ChartOCX\AddInManager\ChartCommonAddIn\TimeMarkerAddInImp.cpp

; 347  : 		else if( strPacketType.Left( 4) == "MMDD")	nStart = 4;

  0016d	c6 45 fc 06	 mov	 BYTE PTR __$EHRec$[ebp+12], 6
; File C:\Program Files (x86)\Microsoft Visual Studio\2019\Community\VC\Tools\MSVC\14.29.30133\atlmfc\include\cstringt.h

; 2486 : 		return(str1.Compare(psz2) == 0);

  00171	ff 15 00 00 00
	00		 call	 DWORD PTR __imp_?Compare@?$CStringT@DV?$StrTraitMFC_DLL@DV?$ChTraitsCRT@D@ATL@@@@@ATL@@QBEHPBD@Z
; File D:\git\src\IBK\IBK_DRFN\ProjSrc\SrcChartEx\ChartOCX\AddInManager\ChartCommonAddIn\TimeMarkerAddInImp.cpp

; 347  : 		else if( strPacketType.Left( 4) == "MMDD")	nStart = 4;

  00177	8d 4d d8	 lea	 ecx, DWORD PTR $T18[ebp]
  0017a	c6 45 fc 04	 mov	 BYTE PTR __$EHRec$[ebp+12], 4
; File C:\Program Files (x86)\Microsoft Visual Studio\2019\Community\VC\Tools\MSVC\14.29.30133\atlmfc\include\cstringt.h

; 2486 : 		return(str1.Compare(psz2) == 0);

  0017e	8b d8		 mov	 ebx, eax
; File D:\git\src\IBK\IBK_DRFN\ProjSrc\SrcChartEx\ChartOCX\AddInManager\ChartCommonAddIn\TimeMarkerAddInImp.cpp

; 347  : 		else if( strPacketType.Left( 4) == "MMDD")	nStart = 4;

  00180	ff 15 00 00 00
	00		 call	 DWORD PTR __imp_??1?$CStringT@DV?$StrTraitMFC_DLL@DV?$ChTraitsCRT@D@ATL@@@@@ATL@@QAE@XZ
  00186	85 db		 test	 ebx, ebx
  00188	75 0a		 jne	 SHORT $LN9@GetTimeVal
  0018a	bb 04 00 00 00	 mov	 ebx, 4
  0018f	e9 b0 00 00 00	 jmp	 $LN16@GetTimeVal
$LN9@GetTimeVal:

; 349  : 		else if( strPacketType.Left( 2) == "DD")	nStart = 6;

  00194	6a 02		 push	 2
  00196	8d 45 d8	 lea	 eax, DWORD PTR $T17[ebp]
  00199	50		 push	 eax
  0019a	8d 4d d0	 lea	 ecx, DWORD PTR _strPacketType$13[ebp]
  0019d	ff 15 00 00 00
	00		 call	 DWORD PTR __imp_?Left@?$CStringT@DV?$StrTraitMFC_DLL@DV?$ChTraitsCRT@D@ATL@@@@@ATL@@QBE?AV12@H@Z
; File C:\Program Files (x86)\Microsoft Visual Studio\2019\Community\VC\Tools\MSVC\14.29.30133\atlmfc\include\cstringt.h

; 2486 : 		return(str1.Compare(psz2) == 0);

  001a3	68 00 00 00 00	 push	 OFFSET ??_C@_02ODDIIJPA@DD@
  001a8	8b c8		 mov	 ecx, eax
; File D:\git\src\IBK\IBK_DRFN\ProjSrc\SrcChartEx\ChartOCX\AddInManager\ChartCommonAddIn\TimeMarkerAddInImp.cpp

; 349  : 		else if( strPacketType.Left( 2) == "DD")	nStart = 6;

  001aa	c6 45 fc 07	 mov	 BYTE PTR __$EHRec$[ebp+12], 7
; File C:\Program Files (x86)\Microsoft Visual Studio\2019\Community\VC\Tools\MSVC\14.29.30133\atlmfc\include\cstringt.h

; 2486 : 		return(str1.Compare(psz2) == 0);

  001ae	ff 15 00 00 00
	00		 call	 DWORD PTR __imp_?Compare@?$CStringT@DV?$StrTraitMFC_DLL@DV?$ChTraitsCRT@D@ATL@@@@@ATL@@QBEHPBD@Z
; File D:\git\src\IBK\IBK_DRFN\ProjSrc\SrcChartEx\ChartOCX\AddInManager\ChartCommonAddIn\TimeMarkerAddInImp.cpp

; 349  : 		else if( strPacketType.Left( 2) == "DD")	nStart = 6;

  001b4	8d 4d d8	 lea	 ecx, DWORD PTR $T17[ebp]
  001b7	c6 45 fc 04	 mov	 BYTE PTR __$EHRec$[ebp+12], 4
; File C:\Program Files (x86)\Microsoft Visual Studio\2019\Community\VC\Tools\MSVC\14.29.30133\atlmfc\include\cstringt.h

; 2486 : 		return(str1.Compare(psz2) == 0);

  001bb	8b d8		 mov	 ebx, eax
; File D:\git\src\IBK\IBK_DRFN\ProjSrc\SrcChartEx\ChartOCX\AddInManager\ChartCommonAddIn\TimeMarkerAddInImp.cpp

; 349  : 		else if( strPacketType.Left( 2) == "DD")	nStart = 6;

  001bd	ff 15 00 00 00
	00		 call	 DWORD PTR __imp_??1?$CStringT@DV?$StrTraitMFC_DLL@DV?$ChTraitsCRT@D@ATL@@@@@ATL@@QAE@XZ
  001c3	85 db		 test	 ebx, ebx
  001c5	75 07		 jne	 SHORT $LN11@GetTimeVal
  001c7	bb 06 00 00 00	 mov	 ebx, 6
  001cc	eb 76		 jmp	 SHORT $LN16@GetTimeVal
$LN11@GetTimeVal:

; 351  : 		else if( strPacketType.Left( 2) == "HH")	nStart = 8;

  001ce	6a 02		 push	 2
  001d0	8d 45 d8	 lea	 eax, DWORD PTR $T16[ebp]
  001d3	50		 push	 eax
  001d4	8d 4d d0	 lea	 ecx, DWORD PTR _strPacketType$13[ebp]
  001d7	ff 15 00 00 00
	00		 call	 DWORD PTR __imp_?Left@?$CStringT@DV?$StrTraitMFC_DLL@DV?$ChTraitsCRT@D@ATL@@@@@ATL@@QBE?AV12@H@Z
; File C:\Program Files (x86)\Microsoft Visual Studio\2019\Community\VC\Tools\MSVC\14.29.30133\atlmfc\include\cstringt.h

; 2486 : 		return(str1.Compare(psz2) == 0);

  001dd	68 00 00 00 00	 push	 OFFSET ??_C@_02EGJHDPJI@HH@
  001e2	8b c8		 mov	 ecx, eax
; File D:\git\src\IBK\IBK_DRFN\ProjSrc\SrcChartEx\ChartOCX\AddInManager\ChartCommonAddIn\TimeMarkerAddInImp.cpp

; 351  : 		else if( strPacketType.Left( 2) == "HH")	nStart = 8;

  001e4	c6 45 fc 08	 mov	 BYTE PTR __$EHRec$[ebp+12], 8
; File C:\Program Files (x86)\Microsoft Visual Studio\2019\Community\VC\Tools\MSVC\14.29.30133\atlmfc\include\cstringt.h

; 2486 : 		return(str1.Compare(psz2) == 0);

  001e8	ff 15 00 00 00
	00		 call	 DWORD PTR __imp_?Compare@?$CStringT@DV?$StrTraitMFC_DLL@DV?$ChTraitsCRT@D@ATL@@@@@ATL@@QBEHPBD@Z
; File D:\git\src\IBK\IBK_DRFN\ProjSrc\SrcChartEx\ChartOCX\AddInManager\ChartCommonAddIn\TimeMarkerAddInImp.cpp

; 351  : 		else if( strPacketType.Left( 2) == "HH")	nStart = 8;

  001ee	8d 4d d8	 lea	 ecx, DWORD PTR $T16[ebp]
  001f1	c6 45 fc 04	 mov	 BYTE PTR __$EHRec$[ebp+12], 4
; File C:\Program Files (x86)\Microsoft Visual Studio\2019\Community\VC\Tools\MSVC\14.29.30133\atlmfc\include\cstringt.h

; 2486 : 		return(str1.Compare(psz2) == 0);

  001f5	8b d8		 mov	 ebx, eax
; File D:\git\src\IBK\IBK_DRFN\ProjSrc\SrcChartEx\ChartOCX\AddInManager\ChartCommonAddIn\TimeMarkerAddInImp.cpp

; 351  : 		else if( strPacketType.Left( 2) == "HH")	nStart = 8;

  001f7	ff 15 00 00 00
	00		 call	 DWORD PTR __imp_??1?$CStringT@DV?$StrTraitMFC_DLL@DV?$ChTraitsCRT@D@ATL@@@@@ATL@@QAE@XZ
  001fd	85 db		 test	 ebx, ebx
  001ff	75 07		 jne	 SHORT $LN13@GetTimeVal
  00201	bb 08 00 00 00	 mov	 ebx, 8
  00206	eb 3c		 jmp	 SHORT $LN16@GetTimeVal
$LN13@GetTimeVal:

; 353  : 		else if( strPacketType.Left( 2) == "MM")	nStart = 10;

  00208	6a 02		 push	 2
  0020a	8d 45 d8	 lea	 eax, DWORD PTR $T15[ebp]
  0020d	50		 push	 eax
  0020e	8d 4d d0	 lea	 ecx, DWORD PTR _strPacketType$13[ebp]
  00211	ff 15 00 00 00
	00		 call	 DWORD PTR __imp_?Left@?$CStringT@DV?$StrTraitMFC_DLL@DV?$ChTraitsCRT@D@ATL@@@@@ATL@@QBE?AV12@H@Z
; File C:\Program Files (x86)\Microsoft Visual Studio\2019\Community\VC\Tools\MSVC\14.29.30133\atlmfc\include\cstringt.h

; 2486 : 		return(str1.Compare(psz2) == 0);

  00217	68 00 00 00 00	 push	 OFFSET ??_C@_02DNCLAJDG@MM@
  0021c	8b c8		 mov	 ecx, eax
; File D:\git\src\IBK\IBK_DRFN\ProjSrc\SrcChartEx\ChartOCX\AddInManager\ChartCommonAddIn\TimeMarkerAddInImp.cpp

; 353  : 		else if( strPacketType.Left( 2) == "MM")	nStart = 10;

  0021e	c6 45 fc 09	 mov	 BYTE PTR __$EHRec$[ebp+12], 9
; File C:\Program Files (x86)\Microsoft Visual Studio\2019\Community\VC\Tools\MSVC\14.29.30133\atlmfc\include\cstringt.h

; 2486 : 		return(str1.Compare(psz2) == 0);

  00222	ff 15 00 00 00
	00		 call	 DWORD PTR __imp_?Compare@?$CStringT@DV?$StrTraitMFC_DLL@DV?$ChTraitsCRT@D@ATL@@@@@ATL@@QBEHPBD@Z
; File D:\git\src\IBK\IBK_DRFN\ProjSrc\SrcChartEx\ChartOCX\AddInManager\ChartCommonAddIn\TimeMarkerAddInImp.cpp

; 353  : 		else if( strPacketType.Left( 2) == "MM")	nStart = 10;

  00228	8d 4d d8	 lea	 ecx, DWORD PTR $T15[ebp]
  0022b	c6 45 fc 04	 mov	 BYTE PTR __$EHRec$[ebp+12], 4
; File C:\Program Files (x86)\Microsoft Visual Studio\2019\Community\VC\Tools\MSVC\14.29.30133\atlmfc\include\cstringt.h

; 2486 : 		return(str1.Compare(psz2) == 0);

  0022f	8b d8		 mov	 ebx, eax
; File D:\git\src\IBK\IBK_DRFN\ProjSrc\SrcChartEx\ChartOCX\AddInManager\ChartCommonAddIn\TimeMarkerAddInImp.cpp

; 353  : 		else if( strPacketType.Left( 2) == "MM")	nStart = 10;

  00231	ff 15 00 00 00
	00		 call	 DWORD PTR __imp_??1?$CStringT@DV?$StrTraitMFC_DLL@DV?$ChTraitsCRT@D@ATL@@@@@ATL@@QAE@XZ
  00237	85 db		 test	 ebx, ebx
  00239	0f 85 94 02 00
	00		 jne	 $LN15@GetTimeVal
  0023f	bb 0a 00 00 00	 mov	 ebx, 10			; 0000000aH
$LN16@GetTimeVal:

; 355  : 		// 1.2.3      .
; 356  : 		// 1.2.3.1  ,    .
; 357  : 		// (2006/3/4 - Seung-Won, Bae) Support "NN" Format (Can be 8 Byte)
; 358  : 		if( ( nLength == 8 && !bNNData) && 8 <= nStart) throw this;

  00244	83 fe 08	 cmp	 esi, 8
  00247	75 10		 jne	 SHORT $LN17@GetTimeVal
  00249	83 7d cc 00	 cmp	 DWORD PTR _bNNData$1$[ebp], 0
  0024d	75 2b		 jne	 SHORT $LN88@GetTimeVal
  0024f	3b de		 cmp	 ebx, esi
  00251	0f 83 27 02 00
	00		 jae	 $LN95@GetTimeVal
  00257	eb 21		 jmp	 SHORT $LN88@GetTimeVal
$LN17@GetTimeVal:

; 360  : 		if( nLength == 6 && nStart + strPacketType.GetLength() <= 8) throw this;

  00259	83 fe 06	 cmp	 esi, 6
  0025c	75 13		 jne	 SHORT $LN18@GetTimeVal
; File C:\Program Files (x86)\Microsoft Visual Studio\2019\Community\VC\Tools\MSVC\14.29.30133\atlmfc\include\atlsimpstr.h

; 519  : 		return( GetData()->nDataLength );

  0025e	8b 45 d0	 mov	 eax, DWORD PTR _strPacketType$13[ebp]
  00261	8b 40 f4	 mov	 eax, DWORD PTR [eax-12]
; File D:\git\src\IBK\IBK_DRFN\ProjSrc\SrcChartEx\ChartOCX\AddInManager\ChartCommonAddIn\TimeMarkerAddInImp.cpp

; 360  : 		if( nLength == 6 && nStart + strPacketType.GetLength() <= 8) throw this;

  00264	03 c3		 add	 eax, ebx
  00266	83 f8 08	 cmp	 eax, 8
  00269	0f 8e 20 02 00
	00		 jle	 $LN96@GetTimeVal
  0026f	eb 09		 jmp	 SHORT $LN88@GetTimeVal
$LN18@GetTimeVal:

; 361  : 
; 362  : 		// 2.  Data Type ,  Data Format .
; 363  : 		// (2006/3/4 - Seung-Won, Bae) Support "NN" Format - Nomalize to YYYYMMDDHHmmSSNN
; 364  : 		if( nLength != 16)

  00271	83 fe 10	 cmp	 esi, 16			; 00000010H
  00274	0f 84 d4 00 00
	00		 je	 $LN19@GetTimeVal
$LN88@GetTimeVal:

; 365  : 		{
; 366  : 			// 2.1    .
; 367  : 			SYSTEMTIME st;
; 368  : 			GetLocalTime( &st);

  0027a	8d 45 dc	 lea	 eax, DWORD PTR _st$21[ebp]
  0027d	50		 push	 eax
  0027e	ff 15 00 00 00
	00		 call	 DWORD PTR __imp__GetLocalTime@4

; 369  : 
; 370  : 			// 2.2   Data .
; 371  : 			CString strOldValue( strMarkTime);

  00284	8d 45 d4	 lea	 eax, DWORD PTR _strMarkTime$[ebp]
  00287	50		 push	 eax
  00288	8d 4d d8	 lea	 ecx, DWORD PTR _strOldValue$14[ebp]
  0028b	ff 15 00 00 00
	00		 call	 DWORD PTR __imp_??0?$CStringT@DV?$StrTraitMFC_DLL@DV?$ChTraitsCRT@D@ATL@@@@@ATL@@QAE@ABV01@@Z
  00291	c6 45 fc 0a	 mov	 BYTE PTR __$EHRec$[ebp+12], 10 ; 0000000aH

; 372  : 			// (2006/3/4 - Seung-Won, Bae) Support "NN" Format (Can be 8 Byte)
; 373  : 			switch( nLength)

  00295	83 ee 06	 sub	 esi, 6
  00298	74 7e		 je	 SHORT $LN20@GetTimeVal
  0029a	83 ee 02	 sub	 esi, 2
  0029d	74 25		 je	 SHORT $LN21@GetTimeVal
  0029f	83 ee 06	 sub	 esi, 6
  002a2	0f 85 99 00 00
	00		 jne	 $LN2@GetTimeVal

; 380  : 				case 14:	strMarkTime.Format( "%s%02d", strOldValue, st.wMilliseconds);

  002a8	0f b7 45 ea	 movzx	 eax, WORD PTR _st$21[ebp+14]
  002ac	50		 push	 eax
  002ad	ff 75 d8	 push	 DWORD PTR _strOldValue$14[ebp]
  002b0	8d 45 d4	 lea	 eax, DWORD PTR _strMarkTime$[ebp]
  002b3	68 00 00 00 00	 push	 OFFSET ??_C@_06KNNEIOFN@?$CFs?$CF02d@
  002b8	50		 push	 eax
  002b9	ff 15 00 00 00
	00		 call	 DWORD PTR __imp_?Format@?$CStringT@DV?$StrTraitMFC_DLL@DV?$ChTraitsCRT@D@ATL@@@@@ATL@@QAAXPBDZZ
  002bf	83 c4 10	 add	 esp, 16			; 00000010H
  002c2	eb 7d		 jmp	 SHORT $LN2@GetTimeVal
$LN21@GetTimeVal:

; 376  : 							break;
; 377  : 				case 8:		if( bNNData)	strMarkTime.Format( "%04d%02d%02d%s", st.wYear, st.wMonth, st.wDay, strOldValue);

  002c4	83 7d cc 00	 cmp	 DWORD PTR _bNNData$1$[ebp], 0
  002c8	74 26		 je	 SHORT $LN22@GetTimeVal
  002ca	ff 75 d8	 push	 DWORD PTR _strOldValue$14[ebp]
  002cd	0f b7 45 e2	 movzx	 eax, WORD PTR _st$21[ebp+6]
  002d1	50		 push	 eax
  002d2	0f b7 45 de	 movzx	 eax, WORD PTR _st$21[ebp+2]
  002d6	50		 push	 eax
  002d7	0f b7 45 dc	 movzx	 eax, WORD PTR _st$21[ebp]
  002db	50		 push	 eax
  002dc	8d 45 d4	 lea	 eax, DWORD PTR _strMarkTime$[ebp]
  002df	68 00 00 00 00	 push	 OFFSET ??_C@_0P@NDLMDLNF@?$CF04d?$CF02d?$CF02d?$CFs@
  002e4	50		 push	 eax
  002e5	ff 15 00 00 00
	00		 call	 DWORD PTR __imp_?Format@?$CStringT@DV?$StrTraitMFC_DLL@DV?$ChTraitsCRT@D@ATL@@@@@ATL@@QAAXPBDZZ
  002eb	83 c4 18	 add	 esp, 24			; 00000018H
  002ee	eb 51		 jmp	 SHORT $LN2@GetTimeVal
$LN22@GetTimeVal:

; 378  : 							else			strMarkTime.Format( "%s%02d%02d%02d%02d", strOldValue, st.wHour, st.wMinute, st.wSecond, st.wMilliseconds / 10);

  002f0	0f b7 4d ea	 movzx	 ecx, WORD PTR _st$21[ebp+14]
  002f4	b8 cd cc cc cc	 mov	 eax, -858993459		; cccccccdH
  002f9	f7 e1		 mul	 ecx
  002fb	0f b7 45 e8	 movzx	 eax, WORD PTR _st$21[ebp+12]
  002ff	c1 ea 03	 shr	 edx, 3
  00302	52		 push	 edx
  00303	50		 push	 eax
  00304	0f b7 45 e6	 movzx	 eax, WORD PTR _st$21[ebp+10]
  00308	50		 push	 eax
  00309	0f b7 45 e4	 movzx	 eax, WORD PTR _st$21[ebp+8]
  0030d	50		 push	 eax
  0030e	ff 75 d8	 push	 DWORD PTR _strOldValue$14[ebp]
  00311	68 00 00 00 00	 push	 OFFSET ??_C@_0BD@OIGGDNOI@?$CFs?$CF02d?$CF02d?$CF02d?$CF02d@

; 379  : 							break;

  00316	eb 1c		 jmp	 SHORT $LN93@GetTimeVal
$LN20@GetTimeVal:

; 374  : 			{
; 375  : 				case 6:		strMarkTime.Format( "%04d%02d%02d%s%02d", st.wYear, st.wMonth, st.wDay, strOldValue, st.wMilliseconds);

  00318	0f b7 45 ea	 movzx	 eax, WORD PTR _st$21[ebp+14]
  0031c	50		 push	 eax
  0031d	ff 75 d8	 push	 DWORD PTR _strOldValue$14[ebp]
  00320	0f b7 45 e2	 movzx	 eax, WORD PTR _st$21[ebp+6]
  00324	50		 push	 eax
  00325	0f b7 45 de	 movzx	 eax, WORD PTR _st$21[ebp+2]
  00329	50		 push	 eax
  0032a	0f b7 45 dc	 movzx	 eax, WORD PTR _st$21[ebp]
  0032e	50		 push	 eax
  0032f	68 00 00 00 00	 push	 OFFSET ??_C@_0BD@LBGKOGII@?$CF04d?$CF02d?$CF02d?$CFs?$CF02d@
$LN93@GetTimeVal:

; 381  : 							break;
; 382  : 			}
; 383  : 		}

  00334	8d 45 d4	 lea	 eax, DWORD PTR _strMarkTime$[ebp]
  00337	50		 push	 eax
  00338	ff 15 00 00 00
	00		 call	 DWORD PTR __imp_?Format@?$CStringT@DV?$StrTraitMFC_DLL@DV?$ChTraitsCRT@D@ATL@@@@@ATL@@QAAXPBDZZ
  0033e	83 c4 1c	 add	 esp, 28			; 0000001cH
$LN2@GetTimeVal:
  00341	8d 4d d8	 lea	 ecx, DWORD PTR _strOldValue$14[ebp]
  00344	c6 45 fc 04	 mov	 BYTE PTR __$EHRec$[ebp+12], 4
  00348	ff 15 00 00 00
	00		 call	 DWORD PTR __imp_??1?$CStringT@DV?$StrTraitMFC_DLL@DV?$ChTraitsCRT@D@ATL@@@@@ATL@@QAE@XZ
$LN19@GetTimeVal:
; File C:\Program Files (x86)\Microsoft Visual Studio\2019\Community\VC\Tools\MSVC\14.29.30133\atlmfc\include\atlsimpstr.h

; 519  : 		return( GetData()->nDataLength );

  0034e	8b 45 d0	 mov	 eax, DWORD PTR _strPacketType$13[ebp]
; File D:\git\src\IBK\IBK_DRFN\ProjSrc\SrcChartEx\ChartOCX\AddInManager\ChartCommonAddIn\TimeMarkerAddInImp.cpp

; 387  : 		strMarkTime = strMarkTime.Mid( nStart, strPacketType.GetLength());

  00351	8d 4d d4	 lea	 ecx, DWORD PTR _strMarkTime$[ebp]
  00354	ff 70 f4	 push	 DWORD PTR [eax-12]
  00357	8d 45 cc	 lea	 eax, DWORD PTR $T12[ebp]
  0035a	53		 push	 ebx
  0035b	50		 push	 eax
  0035c	ff 15 00 00 00
	00		 call	 DWORD PTR __imp_?Mid@?$CStringT@DV?$StrTraitMFC_DLL@DV?$ChTraitsCRT@D@ATL@@@@@ATL@@QBE?AV12@HH@Z
  00362	50		 push	 eax
  00363	8d 4d d4	 lea	 ecx, DWORD PTR _strMarkTime$[ebp]
  00366	c6 45 fc 0b	 mov	 BYTE PTR __$EHRec$[ebp+12], 11 ; 0000000bH
  0036a	ff 15 00 00 00
	00		 call	 DWORD PTR __imp_??4?$CStringT@DV?$StrTraitMFC_DLL@DV?$ChTraitsCRT@D@ATL@@@@@ATL@@QAEAAV01@ABV01@@Z
  00370	8d 4d cc	 lea	 ecx, DWORD PTR $T12[ebp]
  00373	c6 45 fc 04	 mov	 BYTE PTR __$EHRec$[ebp+12], 4
  00377	ff 15 00 00 00
	00		 call	 DWORD PTR __imp_??1?$CStringT@DV?$StrTraitMFC_DLL@DV?$ChTraitsCRT@D@ATL@@@@@ATL@@QAE@XZ

; 388  : 
; 389  : 		// 5. TimeMarkerAddInImp Object Marking  .
; 390  : 		// 2011.01.06 by SYS >>  YYYY() 
; 391  : 		//lMarkTime = atol( strMarkTime);
; 392  : 		lMarkTime = _atoi64( strMarkTime);

  0037d	ff 75 d4	 push	 DWORD PTR _strMarkTime$[ebp]
  00380	ff 15 00 00 00
	00		 call	 DWORD PTR __imp___atoi64

; 393  : 		// 2011.01.06 by SYS <<
; 394  : 
; 395  : 
; 396  : 		// (2004.07.02, )  ,  Data  ,
; 397  : 		//		   Scale    .
; 398  : 		// 5.1 Mark Time Data Index .
; 399  : 		// 5.1.2 Time Mark  .
; 400  : 		// (2004.06.18, )  Data Index      Data Index .
; 401  : 		double dSelectedDate;
; 402  : 		if( !pIPacket->GetCurOrPrevIndexFromData( lMarkTime, p_nTimeIndex, dSelectedDate)) throw this;

  00386	8b 5d c8	 mov	 ebx, DWORD PTR _pIPacket$[ebp]
  00389	83 c4 04	 add	 esp, 4
  0038c	8b c8		 mov	 ecx, eax
  0038e	8b c2		 mov	 eax, edx
  00390	8d 55 94	 lea	 edx, DWORD PTR _dSelectedDate$2[ebp]
  00393	89 4d cc	 mov	 DWORD PTR _lMarkTime$2$[ebp], ecx
  00396	89 45 d8	 mov	 DWORD PTR _lMarkTime$1$[ebp], eax
  00399	8b 33		 mov	 esi, DWORD PTR [ebx]
  0039b	52		 push	 edx
  0039c	ff 75 c4	 push	 DWORD PTR _p_nTimeIndex$GSCopy$1$[ebp]
  0039f	8b d0		 mov	 edx, eax
  003a1	e8 00 00 00 00	 call	 __ltod3
  003a6	83 ec 08	 sub	 esp, 8
  003a9	8b cb		 mov	 ecx, ebx
  003ab	f2 0f 11 04 24	 movsd	 QWORD PTR [esp], xmm0
  003b0	ff 56 38	 call	 DWORD PTR [esi+56]
  003b3	85 c0		 test	 eax, eax
  003b5	0f 84 e5 00 00
	00		 je	 $LN97@GetTimeVal

; 403  : 		// 5.2 TimeMark  Data Index  .
; 404  : 		// 5.2.1 TimeMark      .
; 405  : 		int nLastDataIndex = m_pIChartOCX->GetLastRealDataIndex();

  003bb	8b 4f 0c	 mov	 ecx, DWORD PTR [edi+12]
  003be	8b 01		 mov	 eax, DWORD PTR [ecx]
  003c0	ff 90 1c 01 00
	00		 call	 DWORD PTR [eax+284]
  003c6	8b f0		 mov	 esi, eax

; 406  : 		if( nLastDataIndex == p_nTimeIndex)

  003c8	8b 45 c4	 mov	 eax, DWORD PTR _p_nTimeIndex$GSCopy$1$[ebp]
  003cb	3b 30		 cmp	 esi, DWORD PTR [eax]
  003cd	75 30		 jne	 SHORT $LN29@GetTimeVal

; 407  : 		{
; 408  : 			// 5.2.2  Index .
; 409  : 			if( lMarkTime != ( long)dSelectedDate)

  003cf	f2 0f 2c 45 94	 cvttsd2si eax, QWORD PTR _dSelectedDate$2[ebp]
  003d4	99		 cdq
  003d5	39 45 cc	 cmp	 DWORD PTR _lMarkTime$2$[ebp], eax
  003d8	75 05		 jne	 SHORT $LN89@GetTimeVal
  003da	39 55 d8	 cmp	 DWORD PTR _lMarkTime$1$[ebp], edx
  003dd	74 20		 je	 SHORT $LN29@GetTimeVal
$LN89@GetTimeVal:

; 410  : 			{
; 411  : 				// 5.2.3     Skip.
; 412  : 				int nScrollRange;
; 413  : 				if( !m_pIChartOCX->GetMaxScrollRange( nScrollRange)) throw this;

  003df	8b 4f 0c	 mov	 ecx, DWORD PTR [edi+12]
  003e2	8d 55 b0	 lea	 edx, DWORD PTR _nScrollRange$6[ebp]
  003e5	52		 push	 edx
  003e6	8b 01		 mov	 eax, DWORD PTR [ecx]
  003e8	ff 90 20 01 00
	00		 call	 DWORD PTR [eax+288]
  003ee	85 c0		 test	 eax, eax
  003f0	0f 84 bb 00 00
	00		 je	 $LN98@GetTimeVal

; 414  : 				if( nLastDataIndex < nScrollRange) throw this;

  003f6	3b 75 b0	 cmp	 esi, DWORD PTR _nScrollRange$6[ebp]
  003f9	0f 8c c3 00 00
	00		 jl	 $LN99@GetTimeVal
$LN29@GetTimeVal:

; 415  : 			}
; 416  : 		}
; 417  : 
; 418  : 		// (2004.07.05, ) Time Mark    , 
; 419  : 		//		Packet Type ,     Draw .
; 420  : 		m_strPacketType = strPacketType;

  003ff	8d 45 d0	 lea	 eax, DWORD PTR _strPacketType$13[ebp]
  00402	50		 push	 eax
  00403	8d 4f 50	 lea	 ecx, DWORD PTR [edi+80]
  00406	ff 15 00 00 00
	00		 call	 DWORD PTR __imp_??4?$CStringT@DV?$StrTraitMFC_DLL@DV?$ChTraitsCRT@D@ATL@@@@@ATL@@QAEAAV01@ABV01@@Z

; 421  : 	}

  0040c	8d 4d d0	 lea	 ecx, DWORD PTR _strPacketType$13[ebp]
  0040f	ff 15 00 00 00
	00		 call	 DWORD PTR __imp_??1?$CStringT@DV?$StrTraitMFC_DLL@DV?$ChTraitsCRT@D@ATL@@@@@ATL@@QAE@XZ
; File D:\git\src\IBK\IBK_DRFN\ProjSrc\SrcChartEx\ChartOCX\AddInManager\Include_Addin\I000000\_IString.h

; 45   : 		if( m_pIStrData)

  00415	8b 4d a8	 mov	 ecx, DWORD PTR _szPacketType$2$[ebp]
  00418	c6 45 fc 0c	 mov	 BYTE PTR __$EHRec$[ebp+12], 12 ; 0000000cH
  0041c	85 c9		 test	 ecx, ecx
  0041e	74 06		 je	 SHORT $LN85@GetTimeVal

; 46   : 		{
; 47   : 			m_pIStrData->Release();

  00420	8b 01		 mov	 eax, DWORD PTR [ecx]
  00422	51		 push	 ecx
  00423	ff 50 08	 call	 DWORD PTR [eax+8]
$LN85@GetTimeVal:
; File D:\git\src\IBK\IBK_DRFN\ProjSrc\SrcChartEx\ChartOCX\AddInManager\ChartCommonAddIn\TimeMarkerAddInImp.cpp

; 427  : 	pIPacket->Release();

  00426	8b 03		 mov	 eax, DWORD PTR [ebx]
  00428	53		 push	 ebx
  00429	c7 45 fc 00 00
	00 00		 mov	 DWORD PTR __$EHRec$[ebp+12], 0
  00430	ff 50 08	 call	 DWORD PTR [eax+8]
  00433	8d 4d d4	 lea	 ecx, DWORD PTR _strMarkTime$[ebp]
  00436	ff 15 00 00 00
	00		 call	 DWORD PTR __imp_??1?$CStringT@DV?$StrTraitMFC_DLL@DV?$ChTraitsCRT@D@ATL@@@@@ATL@@QAE@XZ
  0043c	8b 45 cc	 mov	 eax, DWORD PTR _lMarkTime$2$[ebp]
  0043f	8b 55 d8	 mov	 edx, DWORD PTR _lMarkTime$1$[ebp]
  00442	eb 1c		 jmp	 SHORT $LN1@GetTimeVal
__catch$?GetTimeValue@CTimeMarkerAddInImp@@IAE_JPBDAAH@Z$0:

; 422  : 	catch( CTimeMarkerAddInImp *)
; 423  : 	{
; 424  : 		pIPacket->Release();

  00444	8b 45 c8	 mov	 eax, DWORD PTR _pIPacket$[ebp]
  00447	50		 push	 eax
  00448	8b 08		 mov	 ecx, DWORD PTR [eax]
  0044a	ff 51 08	 call	 DWORD PTR [ecx+8]

; 425  : 		return 0;

  0044d	b8 00 00 00 00	 mov	 eax, $LN49@GetTimeVal
  00452	c3		 ret	 0
$LN49@GetTimeVal:
  00453	8d 4d d4	 lea	 ecx, DWORD PTR _strMarkTime$[ebp]
  00456	ff 15 00 00 00
	00		 call	 DWORD PTR __imp_??1?$CStringT@DV?$StrTraitMFC_DLL@DV?$ChTraitsCRT@D@ATL@@@@@ATL@@QAE@XZ
  0045c	33 c0		 xor	 eax, eax
  0045e	33 d2		 xor	 edx, edx
$LN1@GetTimeVal:

; 428  : 
; 429  : 	return lMarkTime;
; 430  : }

  00460	8b 4d f4	 mov	 ecx, DWORD PTR __$EHRec$[ebp+4]
  00463	64 89 0d 00 00
	00 00		 mov	 DWORD PTR fs:0, ecx
  0046a	59		 pop	 ecx
  0046b	5f		 pop	 edi
  0046c	5e		 pop	 esi
  0046d	5b		 pop	 ebx
  0046e	8b 4d ec	 mov	 ecx, DWORD PTR __$ArrayPad$[ebp]
  00471	33 cd		 xor	 ecx, ebp
  00473	e8 00 00 00 00	 call	 @__security_check_cookie@4
  00478	8b e5		 mov	 esp, ebp
  0047a	5d		 pop	 ebp
  0047b	c2 08 00	 ret	 8
$LN95@GetTimeVal:

; 355  : 		// 1.2.3      .
; 356  : 		// 1.2.3.1  ,    .
; 357  : 		// (2006/3/4 - Seung-Won, Bae) Support "NN" Format (Can be 8 Byte)
; 358  : 		if( ( nLength == 8 && !bNNData) && 8 <= nStart) throw this;

  0047e	68 00 00 00 00	 push	 OFFSET __TI7PAVCTimeMarkerAddInImp@@
  00483	8d 45 c0	 lea	 eax, DWORD PTR $T10[ebp]
  00486	89 7d c0	 mov	 DWORD PTR $T10[ebp], edi
  00489	50		 push	 eax
  0048a	e8 00 00 00 00	 call	 __CxxThrowException@8
$LN96@GetTimeVal:

; 360  : 		if( nLength == 6 && nStart + strPacketType.GetLength() <= 8) throw this;

  0048f	68 00 00 00 00	 push	 OFFSET __TI7PAVCTimeMarkerAddInImp@@
  00494	8d 45 bc	 lea	 eax, DWORD PTR $T9[ebp]
  00497	89 7d bc	 mov	 DWORD PTR $T9[ebp], edi
  0049a	50		 push	 eax
  0049b	e8 00 00 00 00	 call	 __CxxThrowException@8
$LN97@GetTimeVal:

; 393  : 		// 2011.01.06 by SYS <<
; 394  : 
; 395  : 
; 396  : 		// (2004.07.02, )  ,  Data  ,
; 397  : 		//		   Scale    .
; 398  : 		// 5.1 Mark Time Data Index .
; 399  : 		// 5.1.2 Time Mark  .
; 400  : 		// (2004.06.18, )  Data Index      Data Index .
; 401  : 		double dSelectedDate;
; 402  : 		if( !pIPacket->GetCurOrPrevIndexFromData( lMarkTime, p_nTimeIndex, dSelectedDate)) throw this;

  004a0	68 00 00 00 00	 push	 OFFSET __TI7PAVCTimeMarkerAddInImp@@
  004a5	8d 45 b8	 lea	 eax, DWORD PTR $T8[ebp]
  004a8	89 7d b8	 mov	 DWORD PTR $T8[ebp], edi
  004ab	50		 push	 eax
  004ac	e8 00 00 00 00	 call	 __CxxThrowException@8
$LN98@GetTimeVal:

; 410  : 			{
; 411  : 				// 5.2.3     Skip.
; 412  : 				int nScrollRange;
; 413  : 				if( !m_pIChartOCX->GetMaxScrollRange( nScrollRange)) throw this;

  004b1	68 00 00 00 00	 push	 OFFSET __TI7PAVCTimeMarkerAddInImp@@
  004b6	8d 45 b4	 lea	 eax, DWORD PTR $T7[ebp]
  004b9	89 7d b4	 mov	 DWORD PTR $T7[ebp], edi
  004bc	50		 push	 eax
  004bd	e8 00 00 00 00	 call	 __CxxThrowException@8
$LN99@GetTimeVal:

; 414  : 				if( nLastDataIndex < nScrollRange) throw this;

  004c2	68 00 00 00 00	 push	 OFFSET __TI7PAVCTimeMarkerAddInImp@@
  004c7	8d 45 ac	 lea	 eax, DWORD PTR $T5[ebp]
  004ca	89 7d ac	 mov	 DWORD PTR $T5[ebp], edi
  004cd	50		 push	 eax
  004ce	e8 00 00 00 00	 call	 __CxxThrowException@8
$LN15@GetTimeVal:

; 354  : 		else throw this;

  004d3	68 00 00 00 00	 push	 OFFSET __TI7PAVCTimeMarkerAddInImp@@
  004d8	8d 45 a4	 lea	 eax, DWORD PTR $T4[ebp]
  004db	89 7d a4	 mov	 DWORD PTR $T4[ebp], edi
  004de	50		 push	 eax
  004df	e8 00 00 00 00	 call	 __CxxThrowException@8
$LN91@GetTimeVal:
  004e4	cc		 int	 3
_TEXT	ENDS
;	COMDAT text$x
text$x	SEGMENT
__unwindfunclet$?GetTimeValue@CTimeMarkerAddInImp@@IAE_JPBDAAH@Z$2:
  00000	8d 4d d4	 lea	 ecx, DWORD PTR _strMarkTime$[ebp]
  00003	ff 25 00 00 00
	00		 jmp	 DWORD PTR __imp_??1?$CStringT@DV?$StrTraitMFC_DLL@DV?$ChTraitsCRT@D@ATL@@@@@ATL@@QAE@XZ
__unwindfunclet$?GetTimeValue@CTimeMarkerAddInImp@@IAE_JPBDAAH@Z$3:
  00009	8b 45 c8	 mov	 eax, DWORD PTR $T11[ebp]
  0000c	83 e0 01	 and	 eax, 1
  0000f	0f 84 0d 00 00
	00		 je	 $LN37@GetTimeVal
  00015	83 65 c8 fe	 and	 DWORD PTR $T11[ebp], -2	; fffffffeH
  00019	8d 4d d8	 lea	 ecx, DWORD PTR $T20[ebp]
  0001c	ff 25 00 00 00
	00		 jmp	 DWORD PTR __imp_??1?$CStringT@DV?$StrTraitMFC_DLL@DV?$ChTraitsCRT@D@ATL@@@@@ATL@@QAE@XZ
$LN37@GetTimeVal:
  00022	c3		 ret	 0
__unwindfunclet$?GetTimeValue@CTimeMarkerAddInImp@@IAE_JPBDAAH@Z$4:
  00023	8d 4d 9c	 lea	 ecx, DWORD PTR _szPacketType$3[ebp]
  00026	e9 00 00 00 00	 jmp	 ??1ILPCSTR000000@@QAE@XZ ; ILPCSTR000000::~ILPCSTR000000
__unwindfunclet$?GetTimeValue@CTimeMarkerAddInImp@@IAE_JPBDAAH@Z$5:
  0002b	8d 4d d0	 lea	 ecx, DWORD PTR _strPacketType$13[ebp]
  0002e	ff 25 00 00 00
	00		 jmp	 DWORD PTR __imp_??1?$CStringT@DV?$StrTraitMFC_DLL@DV?$ChTraitsCRT@D@ATL@@@@@ATL@@QAE@XZ
__unwindfunclet$?GetTimeValue@CTimeMarkerAddInImp@@IAE_JPBDAAH@Z$6:
  00034	8d 4d d8	 lea	 ecx, DWORD PTR $T19[ebp]
  00037	ff 25 00 00 00
	00		 jmp	 DWORD PTR __imp_??1?$CStringT@DV?$StrTraitMFC_DLL@DV?$ChTraitsCRT@D@ATL@@@@@ATL@@QAE@XZ
__unwindfunclet$?GetTimeValue@CTimeMarkerAddInImp@@IAE_JPBDAAH@Z$7:
  0003d	8d 4d d8	 lea	 ecx, DWORD PTR $T18[ebp]
  00040	ff 25 00 00 00
	00		 jmp	 DWORD PTR __imp_??1?$CStringT@DV?$StrTraitMFC_DLL@DV?$ChTraitsCRT@D@ATL@@@@@ATL@@QAE@XZ
__unwindfunclet$?GetTimeValue@CTimeMarkerAddInImp@@IAE_JPBDAAH@Z$8:
  00046	8d 4d d8	 lea	 ecx, DWORD PTR $T17[ebp]
  00049	ff 25 00 00 00
	00		 jmp	 DWORD PTR __imp_??1?$CStringT@DV?$StrTraitMFC_DLL@DV?$ChTraitsCRT@D@ATL@@@@@ATL@@QAE@XZ
__unwindfunclet$?GetTimeValue@CTimeMarkerAddInImp@@IAE_JPBDAAH@Z$9:
  0004f	8d 4d d8	 lea	 ecx, DWORD PTR $T16[ebp]
  00052	ff 25 00 00 00
	00		 jmp	 DWORD PTR __imp_??1?$CStringT@DV?$StrTraitMFC_DLL@DV?$ChTraitsCRT@D@ATL@@@@@ATL@@QAE@XZ
__unwindfunclet$?GetTimeValue@CTimeMarkerAddInImp@@IAE_JPBDAAH@Z$10:
  00058	8d 4d d8	 lea	 ecx, DWORD PTR $T15[ebp]
  0005b	ff 25 00 00 00
	00		 jmp	 DWORD PTR __imp_??1?$CStringT@DV?$StrTraitMFC_DLL@DV?$ChTraitsCRT@D@ATL@@@@@ATL@@QAE@XZ
__unwindfunclet$?GetTimeValue@CTimeMarkerAddInImp@@IAE_JPBDAAH@Z$11:
  00061	8d 4d d8	 lea	 ecx, DWORD PTR _strOldValue$14[ebp]
  00064	ff 25 00 00 00
	00		 jmp	 DWORD PTR __imp_??1?$CStringT@DV?$StrTraitMFC_DLL@DV?$ChTraitsCRT@D@ATL@@@@@ATL@@QAE@XZ
__unwindfunclet$?GetTimeValue@CTimeMarkerAddInImp@@IAE_JPBDAAH@Z$12:
  0006a	8d 4d cc	 lea	 ecx, DWORD PTR $T12[ebp]
  0006d	ff 25 00 00 00
	00		 jmp	 DWORD PTR __imp_??1?$CStringT@DV?$StrTraitMFC_DLL@DV?$ChTraitsCRT@D@ATL@@@@@ATL@@QAE@XZ
  00073	cc		 int	 3
  00074	cc		 int	 3
  00075	cc		 int	 3
  00076	cc		 int	 3
  00077	cc		 int	 3
__ehhandler$?GetTimeValue@CTimeMarkerAddInImp@@IAE_JPBDAAH@Z:
  00078	90		 npad	 1
  00079	90		 npad	 1
  0007a	8b 54 24 08	 mov	 edx, DWORD PTR [esp+8]
  0007e	8d 42 0c	 lea	 eax, DWORD PTR [edx+12]
  00081	8b 4a 90	 mov	 ecx, DWORD PTR [edx-112]
  00084	33 c8		 xor	 ecx, eax
  00086	e8 00 00 00 00	 call	 @__security_check_cookie@4
  0008b	8b 4a f8	 mov	 ecx, DWORD PTR [edx-8]
  0008e	33 c8		 xor	 ecx, eax
  00090	e8 00 00 00 00	 call	 @__security_check_cookie@4
  00095	b8 00 00 00 00	 mov	 eax, OFFSET __ehfuncinfo$?GetTimeValue@CTimeMarkerAddInImp@@IAE_JPBDAAH@Z
  0009a	e9 00 00 00 00	 jmp	 ___CxxFrameHandler3
text$x	ENDS
?GetTimeValue@CTimeMarkerAddInImp@@IAE_JPBDAAH@Z ENDP	; CTimeMarkerAddInImp::GetTimeValue
; Function compile flags: /Ogtp
; File D:\git\src\IBK\IBK_DRFN\ProjSrc\SrcChartEx\ChartOCX\AddInManager\ChartCommonAddIn\TimeMarkerAddInImp.cpp
; File C:\Program Files (x86)\Microsoft Visual Studio\2019\Community\VC\Tools\MSVC\14.29.30133\atlmfc\include\atlsimpstr.h
; File D:\git\src\IBK\IBK_DRFN\ProjSrc\SrcChartEx\ChartOCX\AddInManager\ChartCommonAddIn\TimeMarkerAddInImp.cpp
;	COMDAT ?SetTimeMarkPoint@CTimeMarkerAddInImp@@IAEXVCPoint@@@Z
_TEXT	SEGMENT
$T2 = -20						; size = 4
_strMarkTime$ = -16					; size = 4
__$EHRec$ = -12						; size = 12
_p_ptPoint$ = 8						; size = 8
?SetTimeMarkPoint@CTimeMarkerAddInImp@@IAEXVCPoint@@@Z PROC ; CTimeMarkerAddInImp::SetTimeMarkPoint, COMDAT
; _this$ = ecx

; 128  : {

  00000	55		 push	 ebp
  00001	8b ec		 mov	 ebp, esp
  00003	6a ff		 push	 -1
  00005	68 00 00 00 00	 push	 __ehhandler$?SetTimeMarkPoint@CTimeMarkerAddInImp@@IAEXVCPoint@@@Z
  0000a	64 a1 00 00 00
	00		 mov	 eax, DWORD PTR fs:0
  00010	50		 push	 eax
  00011	83 ec 08	 sub	 esp, 8
  00014	56		 push	 esi
  00015	a1 00 00 00 00	 mov	 eax, DWORD PTR ___security_cookie
  0001a	33 c5		 xor	 eax, ebp
  0001c	50		 push	 eax
  0001d	8d 45 f4	 lea	 eax, DWORD PTR __$EHRec$[ebp]
  00020	64 a3 00 00 00
	00		 mov	 DWORD PTR fs:0, eax
  00026	8b f1		 mov	 esi, ecx

; 129  : 	// (2006/2/13 - Seung-Won, Bae) Check Empty Chart!
; 130  : 	if( m_pIChartManager->IsEmpty()) return;

  00028	8b 4e 24	 mov	 ecx, DWORD PTR [esi+36]
  0002b	8b 01		 mov	 eax, DWORD PTR [ecx]
  0002d	ff 50 2c	 call	 DWORD PTR [eax+44]
  00030	85 c0		 test	 eax, eax
  00032	0f 85 b1 00 00
	00		 jne	 $LN1@SetTimeMar

; 131  : 	// 4.1     .
; 132  : 	if( !m_pIChartOCX->CheckGSharedSetting( _MTEXT( C6_TIME_CHART), FALSE, FALSE, TRUE)) return;

  00038	8b 4e 0c	 mov	 ecx, DWORD PTR [esi+12]
  0003b	6a 01		 push	 1
  0003d	50		 push	 eax
  0003e	50		 push	 eax
  0003f	a1 54 00 00 00	 mov	 eax, DWORD PTR ?g_iMetaTable@@3VIMetaTable@@A+84
  00044	8b 11		 mov	 edx, DWORD PTR [ecx]
  00046	ff b0 94 09 00
	00		 push	 DWORD PTR [eax+2452]
  0004c	ff 92 50 01 00
	00		 call	 DWORD PTR [edx+336]
  00052	85 c0		 test	 eax, eax
  00054	0f 84 8f 00 00
	00		 je	 $LN1@SetTimeMar

; 133  : 
; 134  : 	// (2004.11.22, )     Routine ,      .
; 135  : 	CString strMarkTime;

  0005a	8d 4d f0	 lea	 ecx, DWORD PTR _strMarkTime$[ebp]
  0005d	ff 15 00 00 00
	00		 call	 DWORD PTR __imp_??0?$CStringT@DV?$StrTraitMFC_DLL@DV?$ChTraitsCRT@D@ATL@@@@@ATL@@QAE@XZ

; 136  : 	if( !GetMarkTimeInString( p_ptPoint, strMarkTime)) return;

  00063	8d 45 f0	 lea	 eax, DWORD PTR _strMarkTime$[ebp]
  00066	c7 45 fc 00 00
	00 00		 mov	 DWORD PTR __$EHRec$[ebp+8], 0
  0006d	50		 push	 eax
  0006e	ff 75 0c	 push	 DWORD PTR _p_ptPoint$[ebp+4]
  00071	8b ce		 mov	 ecx, esi
  00073	ff 75 08	 push	 DWORD PTR _p_ptPoint$[ebp]
  00076	e8 00 00 00 00	 call	 ?GetMarkTimeInString@CTimeMarkerAddInImp@@IAEHVCPoint@@AAV?$CStringT@DV?$StrTraitMFC_DLL@DV?$ChTraitsCRT@D@ATL@@@@@ATL@@@Z ; CTimeMarkerAddInImp::GetMarkTimeInString
  0007b	85 c0		 test	 eax, eax
  0007d	74 61		 je	 SHORT $LN6@SetTimeMar

; 137  : 
; 138  : 	// 5.  Chart TimeMark  .
; 139  : 	// (2004.09.14, )  OCX Invalidate  .
; 140  : 	SetTimeMarkString( strMarkTime, FALSE);

  0007f	6a 00		 push	 0
  00081	ff 75 f0	 push	 DWORD PTR _strMarkTime$[ebp]
  00084	8b ce		 mov	 ecx, esi
  00086	e8 00 00 00 00	 call	 ?SetTimeMarkString@CTimeMarkerAddInImp@@IAEXPBDH@Z ; CTimeMarkerAddInImp::SetTimeMarkString
; File C:\Program Files (x86)\Microsoft Visual Studio\2019\Community\VC\Tools\MSVC\14.29.30133\atlmfc\include\atlsimpstr.h

; 519  : 		return( GetData()->nDataLength );

  0008b	8b 45 f0	 mov	 eax, DWORD PTR _strMarkTime$[ebp]
; File D:\git\src\IBK\IBK_DRFN\ProjSrc\SrcChartEx\ChartOCX\AddInManager\ChartCommonAddIn\TimeMarkerAddInImp.cpp

; 143  : 	if( strMarkTime.GetLength() == 16) strMarkTime = strMarkTime.Left( 14);

  0008e	83 78 f4 10	 cmp	 DWORD PTR [eax-12], 16	; 00000010H
  00092	75 2d		 jne	 SHORT $LN5@SetTimeMar
  00094	6a 0e		 push	 14			; 0000000eH
  00096	8d 45 ec	 lea	 eax, DWORD PTR $T2[ebp]
  00099	50		 push	 eax
  0009a	8d 4d f0	 lea	 ecx, DWORD PTR _strMarkTime$[ebp]
  0009d	ff 15 00 00 00
	00		 call	 DWORD PTR __imp_?Left@?$CStringT@DV?$StrTraitMFC_DLL@DV?$ChTraitsCRT@D@ATL@@@@@ATL@@QBE?AV12@H@Z
  000a3	50		 push	 eax
  000a4	8d 4d f0	 lea	 ecx, DWORD PTR _strMarkTime$[ebp]
  000a7	c6 45 fc 01	 mov	 BYTE PTR __$EHRec$[ebp+8], 1
  000ab	ff 15 00 00 00
	00		 call	 DWORD PTR __imp_??4?$CStringT@DV?$StrTraitMFC_DLL@DV?$ChTraitsCRT@D@ATL@@@@@ATL@@QAEAAV01@ABV01@@Z
  000b1	8d 4d ec	 lea	 ecx, DWORD PTR $T2[ebp]
  000b4	c6 45 fc 00	 mov	 BYTE PTR __$EHRec$[ebp+8], 0
  000b8	ff 15 00 00 00
	00		 call	 DWORD PTR __imp_??1?$CStringT@DV?$StrTraitMFC_DLL@DV?$ChTraitsCRT@D@ATL@@@@@ATL@@QAE@XZ
  000be	8b 45 f0	 mov	 eax, DWORD PTR _strMarkTime$[ebp]
$LN5@SetTimeMar:

; 144  : 
; 145  : 	// 4.     .
; 146  : 	// (2004.11.19, )         .
; 147  : 	//		, (  )    .
; 148  : 	if( m_lMarkTime) m_pIChartOCX->FireGSharedData( _MTEXT( C6_TIME_CHART), strMarkTime);

  000c1	8b 4e 40	 mov	 ecx, DWORD PTR [esi+64]
  000c4	0b 4e 44	 or	 ecx, DWORD PTR [esi+68]
  000c7	74 17		 je	 SHORT $LN6@SetTimeMar
  000c9	8b 4e 0c	 mov	 ecx, DWORD PTR [esi+12]
  000cc	50		 push	 eax
  000cd	a1 54 00 00 00	 mov	 eax, DWORD PTR ?g_iMetaTable@@3VIMetaTable@@A+84
  000d2	8b 11		 mov	 edx, DWORD PTR [ecx]
  000d4	ff b0 94 09 00
	00		 push	 DWORD PTR [eax+2452]
  000da	ff 92 54 01 00
	00		 call	 DWORD PTR [edx+340]
$LN6@SetTimeMar:

; 149  : }

  000e0	8d 4d f0	 lea	 ecx, DWORD PTR _strMarkTime$[ebp]
  000e3	ff 15 00 00 00
	00		 call	 DWORD PTR __imp_??1?$CStringT@DV?$StrTraitMFC_DLL@DV?$ChTraitsCRT@D@ATL@@@@@ATL@@QAE@XZ
$LN1@SetTimeMar:
  000e9	8b 4d f4	 mov	 ecx, DWORD PTR __$EHRec$[ebp]
  000ec	64 89 0d 00 00
	00 00		 mov	 DWORD PTR fs:0, ecx
  000f3	59		 pop	 ecx
  000f4	5e		 pop	 esi
  000f5	8b e5		 mov	 esp, ebp
  000f7	5d		 pop	 ebp
  000f8	c2 08 00	 ret	 8
_TEXT	ENDS
;	COMDAT text$x
text$x	SEGMENT
__unwindfunclet$?SetTimeMarkPoint@CTimeMarkerAddInImp@@IAEXVCPoint@@@Z$0:
  00000	8d 4d f0	 lea	 ecx, DWORD PTR _strMarkTime$[ebp]
  00003	ff 25 00 00 00
	00		 jmp	 DWORD PTR __imp_??1?$CStringT@DV?$StrTraitMFC_DLL@DV?$ChTraitsCRT@D@ATL@@@@@ATL@@QAE@XZ
__unwindfunclet$?SetTimeMarkPoint@CTimeMarkerAddInImp@@IAEXVCPoint@@@Z$1:
  00009	8d 4d ec	 lea	 ecx, DWORD PTR $T2[ebp]
  0000c	ff 25 00 00 00
	00		 jmp	 DWORD PTR __imp_??1?$CStringT@DV?$StrTraitMFC_DLL@DV?$ChTraitsCRT@D@ATL@@@@@ATL@@QAE@XZ
  00012	cc		 int	 3
  00013	cc		 int	 3
  00014	cc		 int	 3
  00015	cc		 int	 3
  00016	cc		 int	 3
__ehhandler$?SetTimeMarkPoint@CTimeMarkerAddInImp@@IAEXVCPoint@@@Z:
  00017	90		 npad	 1
  00018	90		 npad	 1
  00019	8b 54 24 08	 mov	 edx, DWORD PTR [esp+8]
  0001d	8d 42 0c	 lea	 eax, DWORD PTR [edx+12]
  00020	8b 4a f0	 mov	 ecx, DWORD PTR [edx-16]
  00023	33 c8		 xor	 ecx, eax
  00025	e8 00 00 00 00	 call	 @__security_check_cookie@4
  0002a	b8 00 00 00 00	 mov	 eax, OFFSET __ehfuncinfo$?SetTimeMarkPoint@CTimeMarkerAddInImp@@IAEXVCPoint@@@Z
  0002f	e9 00 00 00 00	 jmp	 ___CxxFrameHandler3
text$x	ENDS
?SetTimeMarkPoint@CTimeMarkerAddInImp@@IAEXVCPoint@@@Z ENDP ; CTimeMarkerAddInImp::SetTimeMarkPoint
; Function compile flags: /Ogtp
; File D:\git\src\IBK\IBK_DRFN\ProjSrc\SrcChartEx\ChartOCX\AddInManager\ChartCommonAddIn\TimeMarkerAddInImp.cpp
;	COMDAT ?SetTimeMarkString@CTimeMarkerAddInImp@@IAEXPBDH@Z
_TEXT	SEGMENT
_lPreMarkTime$1$ = -16					; size = 4
_nEndIndex$1 = -12					; size = 4
_nTimeIndex$ = -8					; size = 4
_lPreMarkTime$2$ = -4					; size = 4
_nStartIndex$2 = 8					; size = 4
_p_szMarkTime$ = 8					; size = 4
_p_bWithScroll$ = 12					; size = 4
?SetTimeMarkString@CTimeMarkerAddInImp@@IAEXPBDH@Z PROC	; CTimeMarkerAddInImp::SetTimeMarkString, COMDAT
; _this$ = ecx

; 80   : {

  00000	55		 push	 ebp
  00001	8b ec		 mov	 ebp, esp
  00003	83 ec 10	 sub	 esp, 16			; 00000010H
  00006	57		 push	 edi
  00007	8b f9		 mov	 edi, ecx

; 81   : 	// (2006/2/13 - Seung-Won, Bae) Check Empty Chart!
; 82   : 	if( m_pIChartManager->IsEmpty()) return;

  00009	8b 4f 24	 mov	 ecx, DWORD PTR [edi+36]
  0000c	8b 01		 mov	 eax, DWORD PTR [ecx]
  0000e	ff 50 2c	 call	 DWORD PTR [eax+44]
  00011	85 c0		 test	 eax, eax
  00013	0f 85 9b 00 00
	00		 jne	 $LN8@SetTimeMar

; 83   : 
; 84   : 	// (2004.11.19, )         .
; 85   : 	//		, Scroll   .
; 86   : 	//		,  TimeMark    Drawing  .
; 87   : 	//		    TimeMark Value BackUp .
; 88   : 
; 89   : 	// 2011.01.06 by SYS >>  YYYY() 
; 90   : 	//long lPreMarkTime = m_lMarkTime;
; 91   : 	__int64 lPreMarkTime = m_lMarkTime;

  00019	8b 47 40	 mov	 eax, DWORD PTR [edi+64]

; 92   : 	// 2011.01.06 by SYS <<
; 93   : 
; 94   : 	// 1.1.1     TimeMarkerAddInImp Clear.
; 95   : 	//	(      .)
; 96   : 	ClearTimeMark();
; 97   : 
; 98   : 	// 5.3 TimeMark .	// YYYYMMDD or HHMMSS or YYYYMMDDHHMMSS
; 99   : 	int nTimeIndex = 0;
; 100  : 	m_lMarkTime = GetTimeValue( p_szMarkTime, nTimeIndex);

  0001c	8b cf		 mov	 ecx, edi
  0001e	53		 push	 ebx
  0001f	8b 5f 44	 mov	 ebx, DWORD PTR [edi+68]
  00022	89 45 f0	 mov	 DWORD PTR _lPreMarkTime$1$[ebp], eax
  00025	8d 45 f8	 lea	 eax, DWORD PTR _nTimeIndex$[ebp]
  00028	50		 push	 eax
  00029	ff 75 08	 push	 DWORD PTR _p_szMarkTime$[ebp]
  0002c	89 5d fc	 mov	 DWORD PTR _lPreMarkTime$2$[ebp], ebx
  0002f	c7 47 40 00 00
	00 00		 mov	 DWORD PTR [edi+64], 0
  00036	c7 47 44 00 00
	00 00		 mov	 DWORD PTR [edi+68], 0
  0003d	c7 45 f8 00 00
	00 00		 mov	 DWORD PTR _nTimeIndex$[ebp], 0
  00044	e8 00 00 00 00	 call	 ?GetTimeValue@CTimeMarkerAddInImp@@IAE_JPBDAAH@Z ; CTimeMarkerAddInImp::GetTimeValue
  00049	89 47 40	 mov	 DWORD PTR [edi+64], eax

; 101  : 
; 102  : 	if( m_lMarkTime)

  0004c	0b c2		 or	 eax, edx
  0004e	89 57 44	 mov	 DWORD PTR [edi+68], edx
  00051	74 4b		 je	 SHORT $LN7@SetTimeMar

; 103  : 	{
; 104  : 		// 6. Mark Scroll .
; 105  : 		// (2004.07.05, ) Time Mark       Scroll  .
; 106  : 		// 6.0.1  Data View Start/End Index .
; 107  : 		int nStartIndex, nEndIndex;
; 108  : 		if( m_pIChartOCX->GetViewStartEndIndex( nStartIndex, nEndIndex))

  00053	8b 4f 0c	 mov	 ecx, DWORD PTR [edi+12]
  00056	8d 55 f4	 lea	 edx, DWORD PTR _nEndIndex$1[ebp]
  00059	52		 push	 edx
  0005a	8d 55 08	 lea	 edx, DWORD PTR _nStartIndex$2[ebp]
  0005d	52		 push	 edx
  0005e	8b 01		 mov	 eax, DWORD PTR [ecx]
  00060	ff 90 24 01 00
	00		 call	 DWORD PTR [eax+292]
  00066	85 c0		 test	 eax, eax
  00068	74 34		 je	 SHORT $LN7@SetTimeMar

; 109  : 			// 6.0.2  View   Scroll  .
; 110  : 			if( nTimeIndex < nStartIndex || nEndIndex < nTimeIndex)

  0006a	8b 5d f8	 mov	 ebx, DWORD PTR _nTimeIndex$[ebp]
  0006d	8b 55 08	 mov	 edx, DWORD PTR _nStartIndex$2[ebp]
  00070	8b 45 f4	 mov	 eax, DWORD PTR _nEndIndex$1[ebp]
  00073	3b da		 cmp	 ebx, edx
  00075	7c 04		 jl	 SHORT $LN6@SetTimeMar
  00077	3b c3		 cmp	 eax, ebx
  00079	7d 20		 jge	 SHORT $LN12@SetTimeMar
$LN6@SetTimeMar:

; 111  : 				// 6.1 Scrolling .
; 112  : 				// (2004.11.22, ) Start Index Scroll  Interface   .
; 113  : 				if( p_bWithScroll) m_pIChartOCX->ScrollTo( nTimeIndex - ( nEndIndex - nStartIndex + 1) / 2, FALSE);

  0007b	83 7d 0c 00	 cmp	 DWORD PTR _p_bWithScroll$[ebp], 0
  0007f	74 1a		 je	 SHORT $LN12@SetTimeMar
  00081	8b 4f 0c	 mov	 ecx, DWORD PTR [edi+12]
  00084	2b c2		 sub	 eax, edx
  00086	40		 inc	 eax
  00087	99		 cdq
  00088	56		 push	 esi
  00089	8b 31		 mov	 esi, DWORD PTR [ecx]
  0008b	2b c2		 sub	 eax, edx
  0008d	d1 f8		 sar	 eax, 1
  0008f	6a 00		 push	 0
  00091	2b d8		 sub	 ebx, eax
  00093	53		 push	 ebx
  00094	ff 96 34 01 00
	00		 call	 DWORD PTR [esi+308]
  0009a	5e		 pop	 esi
$LN12@SetTimeMar:

; 114  : 	}
; 115  : 
; 116  : 	// (2004.09.14, ) Time Mark  , Repaint  .
; 117  : 	//		!      ? ( Return ...)
; 118  : 	// (2004.11.19, )  TimeMark    Drawing  .
; 119  : 	if( lPreMarkTime != m_lMarkTime) m_pIChartOCX->InvalidateControl();

  0009b	8b 5d fc	 mov	 ebx, DWORD PTR _lPreMarkTime$2$[ebp]
$LN7@SetTimeMar:
  0009e	8b 45 f0	 mov	 eax, DWORD PTR _lPreMarkTime$1$[ebp]
  000a1	3b 47 40	 cmp	 eax, DWORD PTR [edi+64]
  000a4	75 05		 jne	 SHORT $LN10@SetTimeMar
  000a6	3b 5f 44	 cmp	 ebx, DWORD PTR [edi+68]
  000a9	74 08		 je	 SHORT $LN13@SetTimeMar
$LN10@SetTimeMar:
  000ab	8b 4f 0c	 mov	 ecx, DWORD PTR [edi+12]
  000ae	8b 01		 mov	 eax, DWORD PTR [ecx]
  000b0	ff 50 38	 call	 DWORD PTR [eax+56]
$LN13@SetTimeMar:
  000b3	5b		 pop	 ebx
$LN8@SetTimeMar:
  000b4	5f		 pop	 edi

; 120  : }

  000b5	8b e5		 mov	 esp, ebp
  000b7	5d		 pop	 ebp
  000b8	c2 08 00	 ret	 8
?SetTimeMarkString@CTimeMarkerAddInImp@@IAEXPBDH@Z ENDP	; CTimeMarkerAddInImp::SetTimeMarkString
_TEXT	ENDS
; Function compile flags: /Ogtp
; File D:\git\src\IBK\IBK_DRFN\ProjSrc\SrcChartEx\ChartOCX\AddInManager\ChartCommonAddIn\TimeMarkerAddInImp.h
;	COMDAT ?GetRegisteredEventMap@CTimeMarkerAddInImp@@MBEPBW4EAddInEventType@IChartAddIn000000@@XZ
_TEXT	SEGMENT
?GetRegisteredEventMap@CTimeMarkerAddInImp@@MBEPBW4EAddInEventType@IChartAddIn000000@@XZ PROC ; CTimeMarkerAddInImp::GetRegisteredEventMap, COMDAT
; _this$ = ecx

; 29   : 	DECLARE_ADDIN_EVENT_MAP()

  00000	b8 00 00 00 00	 mov	 eax, OFFSET ?m_eRegisteredEventMap@CTimeMarkerAddInImp@@1QBW4EAddInEventType@IChartAddIn000000@@B ; CTimeMarkerAddInImp::m_eRegisteredEventMap
  00005	c3		 ret	 0
?GetRegisteredEventMap@CTimeMarkerAddInImp@@MBEPBW4EAddInEventType@IChartAddIn000000@@XZ ENDP ; CTimeMarkerAddInImp::GetRegisteredEventMap
_TEXT	ENDS
; Function compile flags: /Ogtp
; File D:\git\src\IBK\IBK_DRFN\ProjSrc\SrcChartEx\ChartOCX\AddInManager\ChartCommonAddIn\TimeMarkerAddInImp.cpp
; File C:\Program Files (x86)\Microsoft Visual Studio\2019\Community\VC\Tools\MSVC\14.29.30133\atlmfc\include\afxwin1.inl
; File D:\git\src\IBK\IBK_DRFN\ProjSrc\SrcChartEx\ChartOCX\AddInManager\ChartCommonAddIn\TimeMarkerAddInImp.cpp
;	COMDAT ??1CTimeMarkerAddInImp@@UAE@XZ
_TEXT	SEGMENT
__$EHRec$ = -12						; size = 12
??1CTimeMarkerAddInImp@@UAE@XZ PROC			; CTimeMarkerAddInImp::~CTimeMarkerAddInImp, COMDAT
; _this$ = ecx

; 51   : {

  00000	55		 push	 ebp
  00001	8b ec		 mov	 ebp, esp
  00003	6a ff		 push	 -1
  00005	68 00 00 00 00	 push	 __ehhandler$??1CTimeMarkerAddInImp@@UAE@XZ
  0000a	64 a1 00 00 00
	00		 mov	 eax, DWORD PTR fs:0
  00010	50		 push	 eax
  00011	56		 push	 esi
  00012	57		 push	 edi
  00013	a1 00 00 00 00	 mov	 eax, DWORD PTR ___security_cookie
  00018	33 c5		 xor	 eax, ebp
  0001a	50		 push	 eax
  0001b	8d 45 f4	 lea	 eax, DWORD PTR __$EHRec$[ebp]
  0001e	64 a3 00 00 00
	00		 mov	 DWORD PTR fs:0, eax
  00024	8b f9		 mov	 edi, ecx

; 52   : 	// (2004.09.14, )   .
; 53   : 	m_pnPen.DeleteObject();

  00026	8d 4f 48	 lea	 ecx, DWORD PTR [edi+72]
  00029	c7 07 00 00 00
	00		 mov	 DWORD PTR [edi], OFFSET ??_7CTimeMarkerAddInImp@@6BCIWUnknown@@@
  0002f	c7 47 08 00 00
	00 00		 mov	 DWORD PTR [edi+8], OFFSET ??_7CTimeMarkerAddInImp@@6BIChartAddIn000000@@@
  00036	e8 00 00 00 00	 call	 ?DeleteObject@CGdiObject@@QAEHXZ ; CGdiObject::DeleteObject

; 54   : }

  0003b	8d 4f 50	 lea	 ecx, DWORD PTR [edi+80]
  0003e	ff 15 00 00 00
	00		 call	 DWORD PTR __imp_??1?$CStringT@DV?$StrTraitMFC_DLL@DV?$ChTraitsCRT@D@ATL@@@@@ATL@@QAE@XZ
; File C:\Program Files (x86)\Microsoft Visual Studio\2019\Community\VC\Tools\MSVC\14.29.30133\atlmfc\include\afxwin1.inl

; 106  : 	{ }

  00044	8d 4f 48	 lea	 ecx, DWORD PTR [edi+72]
  00047	c7 47 48 00 00
	00 00		 mov	 DWORD PTR [edi+72], OFFSET ??_7CPen@@6B@
  0004e	e8 00 00 00 00	 call	 ??1CGdiObject@@UAE@XZ	; CGdiObject::~CGdiObject
; File D:\git\src\IBK\IBK_DRFN\ProjSrc\SrcChartEx\ChartOCX\AddInManager\ChartCommonAddIn\TimeMarkerAddInImp.cpp

; 54   : }

  00053	8b cf		 mov	 ecx, edi
  00055	e8 00 00 00 00	 call	 ??1CChartAddInBase000000@@MAE@XZ ; CChartAddInBase000000::~CChartAddInBase000000
  0005a	8b 4d f4	 mov	 ecx, DWORD PTR __$EHRec$[ebp]
  0005d	64 89 0d 00 00
	00 00		 mov	 DWORD PTR fs:0, ecx
  00064	59		 pop	 ecx
  00065	5f		 pop	 edi
  00066	5e		 pop	 esi
  00067	8b e5		 mov	 esp, ebp
  00069	5d		 pop	 ebp
  0006a	c3		 ret	 0
  0006b	cc		 int	 3
  0006c	cc		 int	 3
  0006d	cc		 int	 3
  0006e	cc		 int	 3
  0006f	cc		 int	 3
_TEXT	ENDS
;	COMDAT text$x
text$x	SEGMENT
__ehhandler$??1CTimeMarkerAddInImp@@UAE@XZ:
  00000	90		 npad	 1
  00001	90		 npad	 1
  00002	8b 54 24 08	 mov	 edx, DWORD PTR [esp+8]
  00006	8d 42 0c	 lea	 eax, DWORD PTR [edx+12]
  00009	8b 4a f4	 mov	 ecx, DWORD PTR [edx-12]
  0000c	33 c8		 xor	 ecx, eax
  0000e	e8 00 00 00 00	 call	 @__security_check_cookie@4
  00013	b8 00 00 00 00	 mov	 eax, OFFSET __ehfuncinfo$??1CTimeMarkerAddInImp@@UAE@XZ
  00018	e9 00 00 00 00	 jmp	 ___CxxFrameHandler3
text$x	ENDS
??1CTimeMarkerAddInImp@@UAE@XZ ENDP			; CTimeMarkerAddInImp::~CTimeMarkerAddInImp
; Function compile flags: /Ogtp
; File D:\git\src\IBK\IBK_DRFN\ProjSrc\SrcChartEx\ChartOCX\AddInManager\ChartCommonAddIn\TimeMarkerAddInImp.cpp
; File C:\Program Files (x86)\Microsoft Visual Studio\2019\Community\VC\Tools\MSVC\14.29.30133\atlmfc\include\afxwin1.inl
; File D:\git\src\IBK\IBK_DRFN\ProjSrc\SrcChartEx\ChartOCX\AddInManager\ChartCommonAddIn\TimeMarkerAddInImp.cpp
; File C:\Program Files (x86)\Microsoft Visual Studio\2019\Community\VC\Tools\MSVC\14.29.30133\atlmfc\include\afxwin1.inl
; File C:\Program Files (x86)\Microsoft Visual Studio\2019\Community\VC\Tools\MSVC\14.29.30133\atlmfc\include\atltypes.h
; File C:\Program Files (x86)\Microsoft Visual Studio\2019\Community\VC\Tools\MSVC\14.29.30133\atlmfc\include\afxwin1.inl
; File D:\git\src\IBK\IBK_DRFN\ProjSrc\SrcChartEx\ChartOCX\AddInManager\ChartCommonAddIn\TimeMarkerAddInImp.cpp
; File C:\Program Files (x86)\Microsoft Visual Studio\2019\Community\VC\Tools\MSVC\14.29.30133\atlmfc\include\afxwin1.inl
; File D:\git\src\IBK\IBK_DRFN\ProjSrc\SrcChartEx\ChartOCX\AddInManager\ChartCommonAddIn\TimeMarkerAddInImp.cpp
;	COMDAT ??0CTimeMarkerAddInImp@@QAE@PAUIChartOCX000000@@PAUIAddInDllBase@@@Z
_TEXT	SEGMENT
_this$ = -16						; size = 4
__$EHRec$ = -12						; size = 12
_p_pIChartOCX$ = 8					; size = 4
_p_pIAddInDllBase$ = 12					; size = 4
??0CTimeMarkerAddInImp@@QAE@PAUIChartOCX000000@@PAUIAddInDllBase@@@Z PROC ; CTimeMarkerAddInImp::CTimeMarkerAddInImp, COMDAT
; _this$ = ecx

; 33   : {

  00000	55		 push	 ebp
  00001	8b ec		 mov	 ebp, esp
  00003	6a ff		 push	 -1
  00005	68 00 00 00 00	 push	 __ehhandler$??0CTimeMarkerAddInImp@@QAE@PAUIChartOCX000000@@PAUIAddInDllBase@@@Z
  0000a	64 a1 00 00 00
	00		 mov	 eax, DWORD PTR fs:0
  00010	50		 push	 eax
  00011	51		 push	 ecx
  00012	56		 push	 esi
  00013	57		 push	 edi
  00014	a1 00 00 00 00	 mov	 eax, DWORD PTR ___security_cookie
  00019	33 c5		 xor	 eax, ebp
  0001b	50		 push	 eax
  0001c	8d 45 f4	 lea	 eax, DWORD PTR __$EHRec$[ebp]
  0001f	64 a3 00 00 00
	00		 mov	 DWORD PTR fs:0, eax
  00025	8b f9		 mov	 edi, ecx
  00027	89 7d f0	 mov	 DWORD PTR _this$[ebp], edi

; 32   : 	: CChartAddInBase( p_pIChartOCX, p_pIAddInDllBase)

  0002a	ff 75 0c	 push	 DWORD PTR _p_pIAddInDllBase$[ebp]
  0002d	ff 75 08	 push	 DWORD PTR _p_pIChartOCX$[ebp]
  00030	e8 00 00 00 00	 call	 ??0CChartAddInBase000000@@IAE@PAUIChartOCX000000@@PAUIAddInDllBase@@@Z ; CChartAddInBase000000::CChartAddInBase000000

; 33   : {

  00035	c7 07 00 00 00
	00		 mov	 DWORD PTR [edi], OFFSET ??_7CTimeMarkerAddInImp@@6BCIWUnknown@@@
  0003b	c7 47 08 00 00
	00 00		 mov	 DWORD PTR [edi+8], OFFSET ??_7CTimeMarkerAddInImp@@6BIChartAddIn000000@@@
  00042	c7 45 fc 00 00
	00 00		 mov	 DWORD PTR __$EHRec$[ebp+8], 0
; File C:\Program Files (x86)\Microsoft Visual Studio\2019\Community\VC\Tools\MSVC\14.29.30133\atlmfc\include\afxwin1.inl

; 70   : 	{ m_hObject = NULL; }

  00049	c7 47 4c 00 00
	00 00		 mov	 DWORD PTR [edi+76], 0

; 104  : 	{ }

  00050	c7 47 48 00 00
	00 00		 mov	 DWORD PTR [edi+72], OFFSET ??_7CPen@@6B@
; File D:\git\src\IBK\IBK_DRFN\ProjSrc\SrcChartEx\ChartOCX\AddInManager\ChartCommonAddIn\TimeMarkerAddInImp.cpp

; 33   : {

  00057	8d 4f 50	 lea	 ecx, DWORD PTR [edi+80]
  0005a	ff 15 00 00 00
	00		 call	 DWORD PTR __imp_??0?$CStringT@DV?$StrTraitMFC_DLL@DV?$ChTraitsCRT@D@ATL@@@@@ATL@@QAE@XZ
; File C:\Program Files (x86)\Microsoft Visual Studio\2019\Community\VC\Tools\MSVC\14.29.30133\atlmfc\include\afxwin1.inl

; 108  : 	{ return Attach(::CreatePen(nPenStyle, nWidth, crColor)); }

  00060	68 00 ff 00 00	 push	 65280			; 0000ff00H
  00065	6a 03		 push	 3
; File C:\Program Files (x86)\Microsoft Visual Studio\2019\Community\VC\Tools\MSVC\14.29.30133\atlmfc\include\atltypes.h

; 400  : 	x = 0;

  00067	c7 47 5c 00 00
	00 00		 mov	 DWORD PTR [edi+92], 0

; 401  : 	y = 0;

  0006e	c7 47 60 00 00
	00 00		 mov	 DWORD PTR [edi+96], 0
; File C:\Program Files (x86)\Microsoft Visual Studio\2019\Community\VC\Tools\MSVC\14.29.30133\atlmfc\include\afxwin1.inl

; 108  : 	{ return Attach(::CreatePen(nPenStyle, nWidth, crColor)); }

  00075	6a 00		 push	 0
; File D:\git\src\IBK\IBK_DRFN\ProjSrc\SrcChartEx\ChartOCX\AddInManager\ChartCommonAddIn\TimeMarkerAddInImp.cpp

; 33   : {

  00077	c6 45 fc 02	 mov	 BYTE PTR __$EHRec$[ebp+8], 2

; 34   : 	// 1.  Mark   .
; 35   : 	m_lMarkTime = 0;

  0007b	c7 47 40 00 00
	00 00		 mov	 DWORD PTR [edi+64], 0
  00082	c7 47 44 00 00
	00 00		 mov	 DWORD PTR [edi+68], 0
; File C:\Program Files (x86)\Microsoft Visual Studio\2019\Community\VC\Tools\MSVC\14.29.30133\atlmfc\include\afxwin1.inl

; 108  : 	{ return Attach(::CreatePen(nPenStyle, nWidth, crColor)); }

  00089	ff 15 00 00 00
	00		 call	 DWORD PTR __imp__CreatePen@12
  0008f	50		 push	 eax
  00090	8d 4f 48	 lea	 ecx, DWORD PTR [edi+72]
  00093	e8 00 00 00 00	 call	 ?Attach@CGdiObject@@QAEHPAX@Z ; CGdiObject::Attach
; File D:\git\src\IBK\IBK_DRFN\ProjSrc\SrcChartEx\ChartOCX\AddInManager\ChartCommonAddIn\TimeMarkerAddInImp.cpp

; 41   : 	m_bEnableReceivingTimeShare = TRUE;

  00098	c7 47 64 01 00
	00 00		 mov	 DWORD PTR [edi+100], 1

; 42   : 
; 43   : 	// (2006/11/16 - Seung-Won, Bae) Manage the Disable Flag of TimeMark
; 44   : 	m_bEnableFiringTimeShare = TRUE;

  0009f	c7 47 68 01 00
	00 00		 mov	 DWORD PTR [edi+104], 1

; 45   : 
; 46   : 	// (2007/1/17 - Seung-Won, Bae) Manage Double Click Time Interval for LBtnDblClick with force.
; 47   : 	m_uDoubleClickTime = GetDoubleClickTime();

  000a6	ff 15 00 00 00
	00		 call	 DWORD PTR __imp__GetDoubleClickTime@0
  000ac	89 47 54	 mov	 DWORD PTR [edi+84], eax

; 48   : }

  000af	8b c7		 mov	 eax, edi
  000b1	8b 4d f4	 mov	 ecx, DWORD PTR __$EHRec$[ebp]
  000b4	64 89 0d 00 00
	00 00		 mov	 DWORD PTR fs:0, ecx
  000bb	59		 pop	 ecx
  000bc	5f		 pop	 edi
  000bd	5e		 pop	 esi
  000be	8b e5		 mov	 esp, ebp
  000c0	5d		 pop	 ebp
  000c1	c2 08 00	 ret	 8
_TEXT	ENDS
;	COMDAT text$x
text$x	SEGMENT
__unwindfunclet$??0CTimeMarkerAddInImp@@QAE@PAUIChartOCX000000@@PAUIAddInDllBase@@@Z$0:
  00000	8b 4d f0	 mov	 ecx, DWORD PTR _this$[ebp]
  00003	e9 00 00 00 00	 jmp	 ??1CChartAddInBase000000@@MAE@XZ ; CChartAddInBase000000::~CChartAddInBase000000
__unwindfunclet$??0CTimeMarkerAddInImp@@QAE@PAUIChartOCX000000@@PAUIAddInDllBase@@@Z$1:
  00008	8b 4d f0	 mov	 ecx, DWORD PTR _this$[ebp]
  0000b	83 c1 48	 add	 ecx, 72			; 00000048H
  0000e	e9 00 00 00 00	 jmp	 ??1CPen@@UAE@XZ		; CPen::~CPen
__unwindfunclet$??0CTimeMarkerAddInImp@@QAE@PAUIChartOCX000000@@PAUIAddInDllBase@@@Z$2:
  00013	8b 4d f0	 mov	 ecx, DWORD PTR _this$[ebp]
  00016	83 c1 50	 add	 ecx, 80			; 00000050H
  00019	ff 25 00 00 00
	00		 jmp	 DWORD PTR __imp_??1?$CStringT@DV?$StrTraitMFC_DLL@DV?$ChTraitsCRT@D@ATL@@@@@ATL@@QAE@XZ
  0001f	cc		 int	 3
  00020	cc		 int	 3
  00021	cc		 int	 3
  00022	cc		 int	 3
  00023	cc		 int	 3
__ehhandler$??0CTimeMarkerAddInImp@@QAE@PAUIChartOCX000000@@PAUIAddInDllBase@@@Z:
  00024	90		 npad	 1
  00025	90		 npad	 1
  00026	8b 54 24 08	 mov	 edx, DWORD PTR [esp+8]
  0002a	8d 42 0c	 lea	 eax, DWORD PTR [edx+12]
  0002d	8b 4a f0	 mov	 ecx, DWORD PTR [edx-16]
  00030	33 c8		 xor	 ecx, eax
  00032	e8 00 00 00 00	 call	 @__security_check_cookie@4
  00037	b8 00 00 00 00	 mov	 eax, OFFSET __ehfuncinfo$??0CTimeMarkerAddInImp@@QAE@PAUIChartOCX000000@@PAUIAddInDllBase@@@Z
  0003c	e9 00 00 00 00	 jmp	 ___CxxFrameHandler3
text$x	ENDS
??0CTimeMarkerAddInImp@@QAE@PAUIChartOCX000000@@PAUIAddInDllBase@@@Z ENDP ; CTimeMarkerAddInImp::CTimeMarkerAddInImp
; Function compile flags: /Ogtp
; File D:\git\src\IBK\IBK_DRFN\ProjSrc\SrcChartEx\ChartOCX\AddInManager\Include_AddIn\I000000\_ChartAddInBase.h
;	COMDAT ?OnRButtonDblClk@CChartAddInBase000000@@MAEHPAUHDC__@@IAAUtagPOINT@@K@Z
_TEXT	SEGMENT
_p_hDC$ = 8						; size = 4
_nFlags$ = 12						; size = 4
_point$ = 16						; size = 4
_p_dwMouseActionID$ = 20				; size = 4
?OnRButtonDblClk@CChartAddInBase000000@@MAEHPAUHDC__@@IAAUtagPOINT@@K@Z PROC ; CChartAddInBase000000::OnRButtonDblClk, COMDAT
; _this$ = ecx

; 221  : 	virtual BOOL	OnRButtonDblClk(	HDC p_hDC, UINT nFlags, POINT &point, const DWORD p_dwMouseActionID)									{	return FALSE;	}

  00000	33 c0		 xor	 eax, eax
  00002	c2 10 00	 ret	 16			; 00000010H
?OnRButtonDblClk@CChartAddInBase000000@@MAEHPAUHDC__@@IAAUtagPOINT@@K@Z ENDP ; CChartAddInBase000000::OnRButtonDblClk
_TEXT	ENDS
; Function compile flags: /Ogtp
; File D:\git\src\IBK\IBK_DRFN\ProjSrc\SrcChartEx\ChartOCX\AddInManager\Include_AddIn\I000000\_ChartAddInBase.h
;	COMDAT ?OnRButtonUp@CChartAddInBase000000@@MAEHPAUHDC__@@IAAUtagPOINT@@K@Z
_TEXT	SEGMENT
_p_hDC$ = 8						; size = 4
_nFlags$ = 12						; size = 4
_point$ = 16						; size = 4
_p_dwMouseActionID$ = 20				; size = 4
?OnRButtonUp@CChartAddInBase000000@@MAEHPAUHDC__@@IAAUtagPOINT@@K@Z PROC ; CChartAddInBase000000::OnRButtonUp, COMDAT
; _this$ = ecx

; 220  : 	virtual BOOL	OnRButtonUp(		HDC p_hDC, UINT nFlags, POINT &point, const DWORD p_dwMouseActionID)									{	return FALSE;	}

  00000	33 c0		 xor	 eax, eax
  00002	c2 10 00	 ret	 16			; 00000010H
?OnRButtonUp@CChartAddInBase000000@@MAEHPAUHDC__@@IAAUtagPOINT@@K@Z ENDP ; CChartAddInBase000000::OnRButtonUp
_TEXT	ENDS
; Function compile flags: /Ogtp
; File D:\git\src\IBK\IBK_DRFN\ProjSrc\SrcChartEx\ChartOCX\AddInManager\Include_AddIn\I000000\_ChartAddInBase.h
;	COMDAT ?OnRButtonDown@CChartAddInBase000000@@MAEHPAUHDC__@@IAAUtagPOINT@@K@Z
_TEXT	SEGMENT
_p_hDC$ = 8						; size = 4
_nFlags$ = 12						; size = 4
_point$ = 16						; size = 4
_p_dwMouseActionID$ = 20				; size = 4
?OnRButtonDown@CChartAddInBase000000@@MAEHPAUHDC__@@IAAUtagPOINT@@K@Z PROC ; CChartAddInBase000000::OnRButtonDown, COMDAT
; _this$ = ecx

; 219  : 	virtual BOOL	OnRButtonDown(		HDC p_hDC, UINT nFlags, POINT &point, const DWORD p_dwMouseActionID)									{	return FALSE;	}

  00000	33 c0		 xor	 eax, eax
  00002	c2 10 00	 ret	 16			; 00000010H
?OnRButtonDown@CChartAddInBase000000@@MAEHPAUHDC__@@IAAUtagPOINT@@K@Z ENDP ; CChartAddInBase000000::OnRButtonDown
_TEXT	ENDS
; Function compile flags: /Ogtp
; File D:\git\src\IBK\IBK_DRFN\ProjSrc\SrcChartEx\ChartOCX\AddInManager\Include_AddIn\I000000\_ChartAddInBase.h
;	COMDAT ?OnLButtonUp@CChartAddInBase000000@@MAEHPAUHDC__@@IAAUtagPOINT@@K@Z
_TEXT	SEGMENT
_p_hDC$ = 8						; size = 4
_nFlags$ = 12						; size = 4
_point$ = 16						; size = 4
_p_dwMouseActionID$ = 20				; size = 4
?OnLButtonUp@CChartAddInBase000000@@MAEHPAUHDC__@@IAAUtagPOINT@@K@Z PROC ; CChartAddInBase000000::OnLButtonUp, COMDAT
; _this$ = ecx

; 217  : 	virtual BOOL	OnLButtonUp(		HDC p_hDC, UINT nFlags, POINT &point, const DWORD p_dwMouseActionID)									{	return FALSE;	}

  00000	33 c0		 xor	 eax, eax
  00002	c2 10 00	 ret	 16			; 00000010H
