; Listing generated by Microsoft (R) Optimizing Compiler Version 19.29.30145.0 

	TITLE	D:\git\src\IBK\IBK_DRFN\#DRfn-CS\_Obj\ChartCommonAddIn\YScaleSetUpAddInImp.obj
	.686P
	.XMM
	include listing.inc
	.model	flat

INCLUDELIB MSVCRT
INCLUDELIB OLDNAMES

PUBLIC	??_C@_0BD@KACGDILO@PRICE_YSCALE_SETUP@		; `string'
PUBLIC	?m_eRegisteredEventMap@CYScaleSetUpAddInImp@@1QBW4EAddInEventType@IChartAddIn000000@@B ; CYScaleSetUpAddInImp::m_eRegisteredEventMap
CONST	SEGMENT
?m_eRegisteredEventMap@CYScaleSetUpAddInImp@@1QBW4EAddInEventType@IChartAddIn000000@@B DD 02fH ; CYScaleSetUpAddInImp::m_eRegisteredEventMap
	DD	04H
	DD	033H
	DD	034H
	DD	037H
	DD	03cH
	ORG $+220
CONST	ENDS
;	COMDAT ??_C@_0BD@KACGDILO@PRICE_YSCALE_SETUP@
CONST	SEGMENT
??_C@_0BD@KACGDILO@PRICE_YSCALE_SETUP@ DB 'PRICE_YSCALE_SETUP', 00H ; `string'
CONST	ENDS
PUBLIC	?__empty_global_delete@@YAXPAX@Z		; __empty_global_delete
PUBLIC	?__empty_global_delete@@YAXPAXI@Z		; __empty_global_delete
PUBLIC	?Serialize@CObject@@UAEXAAVCArchive@@@Z		; CObject::Serialize
PUBLIC	?AssertValid@CObject@@UBEXXZ			; CObject::AssertValid
PUBLIC	?Dump@CObject@@UBEXAAVCDumpContext@@@Z		; CObject::Dump
PUBLIC	?PostConstruct@CIWUnknown@@MAEXXZ		; CIWUnknown::PostConstruct
PUBLIC	?PreDestructX@CIWUnknown@@MAEXXZ		; CIWUnknown::PreDestructX
PUBLIC	?PreDestruct@CIWUnknown@@MAEXXZ			; CIWUnknown::PreDestruct
PUBLIC	?AddRef@CChartAddInBase000000@@MAGKXZ		; CChartAddInBase000000::AddRef
PUBLIC	?Release@CChartAddInBase000000@@MAGKXZ		; CChartAddInBase000000::Release
PUBLIC	?QueryInterface@CChartAddInBase000000@@MAGJABU_GUID@@PAPAX@Z ; CChartAddInBase000000::QueryInterface
PUBLIC	?GetAddInCustomInterface@CChartAddInBase000000@@MAEPAUIUnknown@@XZ ; CChartAddInBase000000::GetAddInCustomInterface
PUBLIC	?InvokeAddIn@CChartAddInBase000000@@MAEHHJ@Z	; CChartAddInBase000000::InvokeAddIn
PUBLIC	?AfeterOnOcxDestroyWindow@CChartAddInBase000000@@MAEXXZ ; CChartAddInBase000000::AfeterOnOcxDestroyWindow
PUBLIC	?ChangeChartMode@CChartAddInBase000000@@MAEXW4CHART_MODE@CChartInfo@@@Z ; CChartAddInBase000000::ChangeChartMode
PUBLIC	?OnGSharedDataChange@CChartAddInBase000000@@MAEXPBD0H@Z ; CChartAddInBase000000::OnGSharedDataChange
PUBLIC	?OnLSharedDataChange@CChartAddInBase000000@@MAEXPBD0@Z ; CChartAddInBase000000::OnLSharedDataChange
PUBLIC	?OnResetChart@CChartAddInBase000000@@MAEXXZ	; CChartAddInBase000000::OnResetChart
PUBLIC	?OnDrawBeforeGraph@CChartAddInBase000000@@MAEXPAUHDC__@@@Z ; CChartAddInBase000000::OnDrawBeforeGraph
PUBLIC	?OnDrawAfterGraph@CChartAddInBase000000@@MAEXPAUHDC__@@@Z ; CChartAddInBase000000::OnDrawAfterGraph
PUBLIC	?OnTimer@CChartAddInBase000000@@MAEXI@Z		; CChartAddInBase000000::OnTimer
PUBLIC	?OnCaptureChanged@CChartAddInBase000000@@MAEXPAUHWND__@@QAUHBITMAP__@@@Z ; CChartAddInBase000000::OnCaptureChanged
PUBLIC	?OnResetMainBlock@CChartAddInBase000000@@MAEXXZ	; CChartAddInBase000000::OnResetMainBlock
PUBLIC	?OnUserIndiatorConditionLoaded@CChartAddInBase000000@@MAEXXZ ; CChartAddInBase000000::OnUserIndiatorConditionLoaded
PUBLIC	?OnChartItemChanged@CChartAddInBase000000@@MAEXXZ ; CChartAddInBase000000::OnChartItemChanged
PUBLIC	?OnGraphDataChanged@CChartAddInBase000000@@MAEXXZ ; CChartAddInBase000000::OnGraphDataChanged
PUBLIC	?OnBlockRemoved@CChartAddInBase000000@@MAEXHH@Z	; CChartAddInBase000000::OnBlockRemoved
PUBLIC	?OnGraphAdded@CChartAddInBase000000@@MAEXPBD0@Z	; CChartAddInBase000000::OnGraphAdded
PUBLIC	?OnManualRealData@CChartAddInBase000000@@MAEXPBDNH@Z ; CChartAddInBase000000::OnManualRealData
PUBLIC	?OnContextMenu@CChartAddInBase000000@@MAEXPAUHWND__@@AAUtagPOINT@@@Z ; CChartAddInBase000000::OnContextMenu
PUBLIC	?OnGraphDeleted@CChartAddInBase000000@@MAEXPBD0@Z ; CChartAddInBase000000::OnGraphDeleted
PUBLIC	?OnPacketTruncated@CChartAddInBase000000@@MAEXH@Z ; CChartAddInBase000000::OnPacketTruncated
PUBLIC	?OnBlockChanged@CChartAddInBase000000@@MAEXW4BLOCKBEHAVIOR@CBlockBaseData@@HHHH@Z ; CChartAddInBase000000::OnBlockChanged
PUBLIC	?OnRealData@CChartAddInBase000000@@MAEXPBDN0@Z	; CChartAddInBase000000::OnRealData
PUBLIC	?OnIndexedRealData@CChartAddInBase000000@@MAEXPBDHN@Z ; CChartAddInBase000000::OnIndexedRealData
PUBLIC	?OnRealPacketEnd@CChartAddInBase000000@@MAEXPBD@Z ; CChartAddInBase000000::OnRealPacketEnd
PUBLIC	?DrawCursor@CChartAddInBase000000@@MAE?AUtagRECT@@PAUHDC__@@@Z ; CChartAddInBase000000::DrawCursor
PUBLIC	?OnRecalculationComplete@CChartAddInBase000000@@MAEXXZ ; CChartAddInBase000000::OnRecalculationComplete
PUBLIC	?OnPreRealData@CChartAddInBase000000@@MAEHPBDAAN0H@Z ; CChartAddInBase000000::OnPreRealData
PUBLIC	?OnPreIndexedRealData@CChartAddInBase000000@@MAEHPBDHAANH@Z ; CChartAddInBase000000::OnPreIndexedRealData
PUBLIC	?OnPreRealPacketEnd@CChartAddInBase000000@@MAEHPBDH@Z ; CChartAddInBase000000::OnPreRealPacketEnd
PUBLIC	?OnPreNMTRClock@CChartAddInBase000000@@MAEHAA_J@Z ; CChartAddInBase000000::OnPreNMTRClock
PUBLIC	?OnCmdMsg@CChartAddInBase000000@@MAEHIHPAUICmdUI000000@@@Z ; CChartAddInBase000000::OnCmdMsg
PUBLIC	?OnAddInMsg@CChartAddInBase000000@@MAEHPBDJ@Z	; CChartAddInBase000000::OnAddInMsg
PUBLIC	?OnAddInToolCommand@CChartAddInBase000000@@MAEHW4EAICommandType@@@Z ; CChartAddInBase000000::OnAddInToolCommand
PUBLIC	?OnAddInToolCommand@CChartAddInBase000000@@MAEHW4EAICommandType@@PAUHDC__@@IAAUtagPOINT@@K@Z ; CChartAddInBase000000::OnAddInToolCommand
PUBLIC	?OnAddInToolCommand@CChartAddInBase000000@@MAEHW4EAICommandType@@PBD@Z ; CChartAddInBase000000::OnAddInToolCommand
PUBLIC	?OnAddInToolCommand@CChartAddInBase000000@@MAEHW4EAICommandType@@PBD1@Z ; CChartAddInBase000000::OnAddInToolCommand
PUBLIC	?OnAddInToolCommand@CChartAddInBase000000@@MAEHW4EAICommandType@@PBDJ@Z ; CChartAddInBase000000::OnAddInToolCommand
PUBLIC	?OnAddInToolCommand@CChartAddInBase000000@@MAEHW4EAICommandType@@PBUIAddInDllBase@@@Z ; CChartAddInBase000000::OnAddInToolCommand
PUBLIC	?OnAddInToolCommand@CChartAddInBase000000@@MAEHW4EAICommandType@@J@Z ; CChartAddInBase000000::OnAddInToolCommand
PUBLIC	?OnAddInToolCommand@CChartAddInBase000000@@MAEHW4EAICommandType@@JPBD@Z ; CChartAddInBase000000::OnAddInToolCommand
PUBLIC	?OnAddInToolCommand@CChartAddInBase000000@@MAEHW4EAICommandType@@JPBD11@Z ; CChartAddInBase000000::OnAddInToolCommand
PUBLIC	?OnAddInToolCommand@CChartAddInBase000000@@MAEHW4EAICommandType@@JJ@Z ; CChartAddInBase000000::OnAddInToolCommand
PUBLIC	?OnAddInToolCommand@CChartAddInBase000000@@MAEHW4EAICommandType@@JJJJJJJJJ@Z ; CChartAddInBase000000::OnAddInToolCommand
PUBLIC	?OnAddInToolCommand@CChartAddInBase000000@@MAEHAAJW4EAICommandType@@@Z ; CChartAddInBase000000::OnAddInToolCommand
PUBLIC	?OnAddInToolCommand@CChartAddInBase000000@@MAEHAAJW4EAICommandType@@PAUIGraphInfo000000@@@Z ; CChartAddInBase000000::OnAddInToolCommand
PUBLIC	?OnAddInToolCommand@CChartAddInBase000000@@MAEHAAJW4EAICommandType@@PBD@Z ; CChartAddInBase000000::OnAddInToolCommand
PUBLIC	?OnAddInToolCommand@CChartAddInBase000000@@MAEHAAJW4EAICommandType@@PBDPAVCObject@@@Z ; CChartAddInBase000000::OnAddInToolCommand
PUBLIC	?OnAddInToolCommand@CChartAddInBase000000@@MAEHAAJW4EAICommandType@@J@Z ; CChartAddInBase000000::OnAddInToolCommand
PUBLIC	?OnAddInToolCommand@CChartAddInBase000000@@MAEHAAJW4EAICommandType@@JJ@Z ; CChartAddInBase000000::OnAddInToolCommand
PUBLIC	?OnKeyDown@CChartAddInBase000000@@MAEHIII@Z	; CChartAddInBase000000::OnKeyDown
PUBLIC	?OnKeyUp@CChartAddInBase000000@@MAEHIII@Z	; CChartAddInBase000000::OnKeyUp
PUBLIC	?OnMouseWheel@CChartAddInBase000000@@MAEHIFUtagPOINT@@K@Z ; CChartAddInBase000000::OnMouseWheel
PUBLIC	?OnMouseMove@CChartAddInBase000000@@MAEHPAUHDC__@@IAAUtagPOINT@@KQAUHBITMAP__@@@Z ; CChartAddInBase000000::OnMouseMove
PUBLIC	?OnLButtonDown@CChartAddInBase000000@@MAEHPAUHDC__@@IAAUtagPOINT@@K@Z ; CChartAddInBase000000::OnLButtonDown
PUBLIC	?OnLButtonUp@CChartAddInBase000000@@MAEHPAUHDC__@@IAAUtagPOINT@@K@Z ; CChartAddInBase000000::OnLButtonUp
PUBLIC	?OnLButtonDblClk@CChartAddInBase000000@@MAEHPAUHDC__@@IAAUtagPOINT@@K@Z ; CChartAddInBase000000::OnLButtonDblClk
PUBLIC	?OnRButtonDown@CChartAddInBase000000@@MAEHPAUHDC__@@IAAUtagPOINT@@K@Z ; CChartAddInBase000000::OnRButtonDown
PUBLIC	?OnRButtonUp@CChartAddInBase000000@@MAEHPAUHDC__@@IAAUtagPOINT@@K@Z ; CChartAddInBase000000::OnRButtonUp
PUBLIC	?OnRButtonDblClk@CChartAddInBase000000@@MAEHPAUHDC__@@IAAUtagPOINT@@K@Z ; CChartAddInBase000000::OnRButtonDblClk
PUBLIC	??0CYScaleSetUpAddInImp@@QAE@PAUIChartOCX000000@@PAUIAddInDllBase@@@Z ; CYScaleSetUpAddInImp::CYScaleSetUpAddInImp
PUBLIC	??1CYScaleSetUpAddInImp@@UAE@XZ			; CYScaleSetUpAddInImp::~CYScaleSetUpAddInImp
PUBLIC	?GetRegisteredEventMap@CYScaleSetUpAddInImp@@MBEPBW4EAddInEventType@IChartAddIn000000@@XZ ; CYScaleSetUpAddInImp::GetRegisteredEventMap
PUBLIC	?SetYScaleAllValue@CYScaleSetUpAddInImp@@QAEXHNNNN@Z ; CYScaleSetUpAddInImp::SetYScaleAllValue
PUBLIC	?ResetYScaleSetUp@CYScaleSetUpAddInImp@@IAEXPBD@Z ; CYScaleSetUpAddInImp::ResetYScaleSetUp
PUBLIC	?SetYesterdayClosePrice@CYScaleSetUpAddInImp@@IAEXABV?$CStringT@DV?$StrTraitMFC_DLL@DV?$ChTraitsCRT@D@ATL@@@@@ATL@@@Z ; CYScaleSetUpAddInImp::SetYesterdayClosePrice
PUBLIC	?SetYScaleInfo@CYScaleSetUpAddInImp@@IAEHPAUIBlock000000@@@Z ; CYScaleSetUpAddInImp::SetYScaleInfo
PUBLIC	?InvokeAddInStr@CYScaleSetUpAddInImp@@MAEHPBD0@Z ; CYScaleSetUpAddInImp::InvokeAddInStr
PUBLIC	?OnPacketDataMultiItem@CYScaleSetUpAddInImp@@MAEXPBD0H@Z ; CYScaleSetUpAddInImp::OnPacketDataMultiItem
PUBLIC	?OnToolCommand@CYScaleSetUpAddInImp@@MAEXHH@Z	; CYScaleSetUpAddInImp::OnToolCommand
PUBLIC	?OnLoadEnvironment@CYScaleSetUpAddInImp@@MAEXPAUIPropertyMap@@@Z ; CYScaleSetUpAddInImp::OnLoadEnvironment
PUBLIC	?OnSaveEnvironment@CYScaleSetUpAddInImp@@MAEXPAUIPropertyMap@@@Z ; CYScaleSetUpAddInImp::OnSaveEnvironment
PUBLIC	??_GCYScaleSetUpAddInImp@@UAEPAXI@Z		; CYScaleSetUpAddInImp::`scalar deleting destructor'
PUBLIC	??1CMultiLanguageResourceSetter@@QAE@XZ		; CMultiLanguageResourceSetter::~CMultiLanguageResourceSetter
PUBLIC	??1ILPCSTR000000@@QAE@XZ			; ILPCSTR000000::~ILPCSTR000000
PUBLIC	??1CDlgYScaleSetUp@@UAE@XZ			; CDlgYScaleSetUp::~CDlgYScaleSetUp
PUBLIC	?QueryInterface@CChartAddInBase000000@@O7AGJABU_GUID@@PAPAX@Z ; [thunk]:CChartAddInBase000000::QueryInterface`adjustor{8}'
PUBLIC	?AddRef@CChartAddInBase000000@@O7AGKXZ		; [thunk]:CChartAddInBase000000::AddRef`adjustor{8}'
PUBLIC	?Release@CChartAddInBase000000@@O7AGKXZ		; [thunk]:CChartAddInBase000000::Release`adjustor{8}'
PUBLIC	??_ECYScaleSetUpAddInImp@@W7AEPAXI@Z		; [thunk]:CYScaleSetUpAddInImp::`vector deleting destructor'
PUBLIC	??_C@_00CNPNBAHC@@				; `string'
PUBLIC	??_R0?AVCObject@@@8				; CObject `RTTI Type Descriptor'
PUBLIC	??_R3CObject@@8					; CObject::`RTTI Class Hierarchy Descriptor'
PUBLIC	??_R2CObject@@8					; CObject::`RTTI Base Class Array'
PUBLIC	??_R1A@?0A@EA@CObject@@8			; CObject::`RTTI Base Class Descriptor at (0,-1,0,64)'
PUBLIC	??_R0?AUIUnknown@@@8				; IUnknown `RTTI Type Descriptor'
PUBLIC	??_R3IUnknown@@8				; IUnknown::`RTTI Class Hierarchy Descriptor'
PUBLIC	??_R2IUnknown@@8				; IUnknown::`RTTI Base Class Array'
PUBLIC	??_R1A@?0A@EA@IUnknown@@8			; IUnknown::`RTTI Base Class Descriptor at (0,-1,0,64)'
PUBLIC	?m_strAddInItemName@CYScaleSetUpAddInImp@@2V?$CStringT@DV?$StrTraitMFC_DLL@DV?$ChTraitsCRT@D@ATL@@@@@ATL@@A ; CYScaleSetUpAddInImp::m_strAddInItemName
PUBLIC	??_7CYScaleSetUpAddInImp@@6BCIWUnknown@@@	; CYScaleSetUpAddInImp::`vftable'
PUBLIC	??_7CYScaleSetUpAddInImp@@6BIChartAddIn000000@@@ ; CYScaleSetUpAddInImp::`vftable'
PUBLIC	??_C@_0BA@ENJOCHIO@LoadResourceDLL@		; `string'
PUBLIC	??_C@_06GEKNBBDK@000000@			; `string'
PUBLIC	??_C@_03EICDNICE@?$CF?4f@			; `string'
PUBLIC	??_C@_07MGCPDNLD@DEFAULT@			; `string'
PUBLIC	??_C@_09OFFEPIIO@BOUNDMARK@			; `string'
PUBLIC	??_C@_09IPCOGDAH@PREVPRICE@			; `string'
PUBLIC	??_C@_02DKCKIIND@?$CFs@				; `string'
PUBLIC	??_C@_01DNKMNLPK@?$HM@				; `string'
PUBLIC	??_C@_01JLIPDDHJ@?3@				; `string'
PUBLIC	??_C@_0BC@NCHAJJPH@YSCALE_SETUP_LOAD@		; `string'
PUBLIC	??_C@_0BF@FAAOMLOD@?$CFd?3?$CFs?3?$CFs?3?$CFf?3?$CFf?3?$CFf?3?$CFf@ ; `string'
PUBLIC	??_C@_04GHNNFJCK@?$CF?40f@			; `string'
PUBLIC	??_C@_06DNBDMDIL@?$CF?$CF?4?$CFdf@		; `string'
PUBLIC	??_R0?AUIChartAddIn000000@@@8			; IChartAddIn000000 `RTTI Type Descriptor'
PUBLIC	??_R3IChartAddIn000000@@8			; IChartAddIn000000::`RTTI Class Hierarchy Descriptor'
PUBLIC	??_R2IChartAddIn000000@@8			; IChartAddIn000000::`RTTI Base Class Array'
PUBLIC	??_R1A@?0A@EA@IChartAddIn000000@@8		; IChartAddIn000000::`RTTI Base Class Descriptor at (0,-1,0,64)'
PUBLIC	??_R4CYScaleSetUpAddInImp@@6BCIWUnknown@@@	; CYScaleSetUpAddInImp::`RTTI Complete Object Locator'
PUBLIC	??_R0?AVCYScaleSetUpAddInImp@@@8		; CYScaleSetUpAddInImp `RTTI Type Descriptor'
PUBLIC	??_R3CYScaleSetUpAddInImp@@8			; CYScaleSetUpAddInImp::`RTTI Class Hierarchy Descriptor'
PUBLIC	??_R2CYScaleSetUpAddInImp@@8			; CYScaleSetUpAddInImp::`RTTI Base Class Array'
PUBLIC	??_R1A@?0A@EA@CYScaleSetUpAddInImp@@8		; CYScaleSetUpAddInImp::`RTTI Base Class Descriptor at (0,-1,0,64)'
PUBLIC	??_R1A@?0A@EA@CChartAddInBase000000@@8		; CChartAddInBase000000::`RTTI Base Class Descriptor at (0,-1,0,64)'
PUBLIC	??_R0?AVCChartAddInBase000000@@@8		; CChartAddInBase000000 `RTTI Type Descriptor'
PUBLIC	??_R3CChartAddInBase000000@@8			; CChartAddInBase000000::`RTTI Class Hierarchy Descriptor'
PUBLIC	??_R2CChartAddInBase000000@@8			; CChartAddInBase000000::`RTTI Base Class Array'
PUBLIC	??_R1A@?0A@EA@CIWUnknown@@8			; CIWUnknown::`RTTI Base Class Descriptor at (0,-1,0,64)'
PUBLIC	??_R0?AVCIWUnknown@@@8				; CIWUnknown `RTTI Type Descriptor'
PUBLIC	??_R3CIWUnknown@@8				; CIWUnknown::`RTTI Class Hierarchy Descriptor'
PUBLIC	??_R2CIWUnknown@@8				; CIWUnknown::`RTTI Base Class Array'
PUBLIC	??_R17?0A@EA@IChartAddIn000000@@8		; IChartAddIn000000::`RTTI Base Class Descriptor at (8,-1,0,64)'
PUBLIC	??_R17?0A@EA@IUnknown@@8			; IUnknown::`RTTI Base Class Descriptor at (8,-1,0,64)'
PUBLIC	??_R4CYScaleSetUpAddInImp@@6BIChartAddIn000000@@@ ; CYScaleSetUpAddInImp::`RTTI Complete Object Locator'
PUBLIC	__real@0000000000000000
PUBLIC	__real@3fe0000000000000
PUBLIC	__real@3ff0000000000000
PUBLIC	__real@4059000000000000
PUBLIC	__xmm@c03e000000000000403e000000000000
EXTRN	??3@YAXPAX@Z:PROC				; operator delete
EXTRN	?__global_delete@@YAXPAXI@Z:PROC		; __global_delete
EXTRN	_atexit:PROC
EXTRN	___std_terminate:PROC
EXTRN	_strchr:PROC
EXTRN	__imp__stricmp:PROC
EXTRN	__imp__GetProcAddress@8:PROC
EXTRN	__imp__atof:PROC
EXTRN	__imp__atoi:PROC
EXTRN	?GetRuntimeClass@CObject@@UBEPAUCRuntimeClass@@XZ:PROC ; CObject::GetRuntimeClass
EXTRN	__imp_?Empty@?$CSimpleStringT@D$00@ATL@@QAEXXZ:PROC
EXTRN	__imp_?GetBufferSetLength@?$CSimpleStringT@D$00@ATL@@QAEPADH@Z:PROC
EXTRN	__imp_??0?$CStringT@DV?$StrTraitMFC_DLL@DV?$ChTraitsCRT@D@ATL@@@@@ATL@@QAE@XZ:PROC
EXTRN	__imp_??0?$CStringT@DV?$StrTraitMFC_DLL@DV?$ChTraitsCRT@D@ATL@@@@@ATL@@QAE@ABV01@@Z:PROC
EXTRN	__imp_??0?$CStringT@DV?$StrTraitMFC_DLL@DV?$ChTraitsCRT@D@ATL@@@@@ATL@@QAE@PBD@Z:PROC
EXTRN	__imp_??1?$CStringT@DV?$StrTraitMFC_DLL@DV?$ChTraitsCRT@D@ATL@@@@@ATL@@QAE@XZ:PROC
EXTRN	__imp_??4?$CStringT@DV?$StrTraitMFC_DLL@DV?$ChTraitsCRT@D@ATL@@@@@ATL@@QAEAAV01@ABV01@@Z:PROC
EXTRN	__imp_??4?$CStringT@DV?$StrTraitMFC_DLL@DV?$ChTraitsCRT@D@ATL@@@@@ATL@@QAEAAV01@PBD@Z:PROC
EXTRN	__imp_?Compare@?$CStringT@DV?$StrTraitMFC_DLL@DV?$ChTraitsCRT@D@ATL@@@@@ATL@@QBEHPBD@Z:PROC
EXTRN	__imp_?Find@?$CStringT@DV?$StrTraitMFC_DLL@DV?$ChTraitsCRT@D@ATL@@@@@ATL@@QBEHPBDH@Z:PROC
EXTRN	__imp_?TrimRight@?$CStringT@DV?$StrTraitMFC_DLL@DV?$ChTraitsCRT@D@ATL@@@@@ATL@@QAEAAV12@XZ:PROC
EXTRN	__imp_?TrimLeft@?$CStringT@DV?$StrTraitMFC_DLL@DV?$ChTraitsCRT@D@ATL@@@@@ATL@@QAEAAV12@XZ:PROC
EXTRN	__imp_?Mid@?$CStringT@DV?$StrTraitMFC_DLL@DV?$ChTraitsCRT@D@ATL@@@@@ATL@@QBE?AV12@H@Z:PROC
EXTRN	__imp_?Mid@?$CStringT@DV?$StrTraitMFC_DLL@DV?$ChTraitsCRT@D@ATL@@@@@ATL@@QBE?AV12@HH@Z:PROC
EXTRN	__imp_?Format@?$CStringT@DV?$StrTraitMFC_DLL@DV?$ChTraitsCRT@D@ATL@@@@@ATL@@QAAXPBDZZ:PROC
EXTRN	?AfxGetModuleState@@YGPAVAFX_MODULE_STATE@@XZ:PROC ; AfxGetModuleState
EXTRN	?AfxGetStaticModuleState@@YGPAVAFX_MODULE_STATE@@XZ:PROC ; AfxGetStaticModuleState
EXTRN	?DoModal@CDialog@@UAEHXZ:PROC			; CDialog::DoModal
EXTRN	??1CDialog@@UAE@XZ:PROC				; CDialog::~CDialog
EXTRN	?AddRef@CIWUnknown@@MAGKXZ:PROC			; CIWUnknown::AddRef
EXTRN	?Release@CIWUnknown@@MAGKXZ:PROC		; CIWUnknown::Release
EXTRN	??0CChartAddInBase000000@@IAE@PAUIChartOCX000000@@PAUIAddInDllBase@@@Z:PROC ; CChartAddInBase000000::CChartAddInBase000000
EXTRN	??1CChartAddInBase000000@@MAE@XZ:PROC		; CChartAddInBase000000::~CChartAddInBase000000
EXTRN	?HasFullManager@CChartAddInBase000000@@MAEHXZ:PROC ; CChartAddInBase000000::HasFullManager
EXTRN	?RegisterEventMap@CChartAddInBase000000@@UAEHH@Z:PROC ; CChartAddInBase000000::RegisterEventMap
EXTRN	?UnregisterEventMap@CChartAddInBase000000@@UAEHXZ:PROC ; CChartAddInBase000000::UnregisterEventMap
EXTRN	?OnOcxDestroyWindow@CChartAddInBase000000@@MAEXXZ:PROC ; CChartAddInBase000000::OnOcxDestroyWindow
EXTRN	??_ECYScaleSetUpAddInImp@@UAEPAXI@Z:PROC	; CYScaleSetUpAddInImp::`vector deleting destructor'
EXTRN	?GetLanguageText@IMetaTable@@QAEPBDPAUHWND__@@W4E_CODEPAGE@1@PBDH@Z:PROC ; IMetaTable::GetLanguageText
EXTRN	?GetStringData@CDataConversion@@SA?AV?$CStringT@DV?$StrTraitMFC_DLL@DV?$ChTraitsCRT@D@ATL@@@@@ATL@@AAV23@ABV23@_N@Z:PROC ; CDataConversion::GetStringData
EXTRN	??0CDlgYScaleSetUp@@QAE@PAVCYScaleSetUpAddInImp@@PAUHWND__@@W4CHART_MODE@CChartInfo@@IPAVCWnd@@@Z:PROC ; CDlgYScaleSetUp::CDlgYScaleSetUp
EXTRN	?SetValueFormat@CDlgYScaleSetUp@@QAEXV?$CStringT@DV?$StrTraitMFC_DLL@DV?$ChTraitsCRT@D@ATL@@@@@ATL@@@Z:PROC ; CDlgYScaleSetUp::SetValueFormat
EXTRN	?SetYScaleMaxMinSetupType@CDlgYScaleSetUp@@QAEXH@Z:PROC ; CDlgYScaleSetUp::SetYScaleMaxMinSetupType
EXTRN	?SetYScaleMaxMin@CDlgYScaleSetUp@@QAEXNN@Z:PROC	; CDlgYScaleSetUp::SetYScaleMaxMin
EXTRN	?SetYScaleMaxMinPercent@CDlgYScaleSetUp@@QAEXNN@Z:PROC ; CDlgYScaleSetUp::SetYScaleMaxMinPercent
EXTRN	?SetStockPriceInfo@CDlgYScaleSetUp@@QAEXNNN@Z:PROC ; CDlgYScaleSetUp::SetStockPriceInfo
EXTRN	@__security_check_cookie@4:PROC
EXTRN	___CxxFrameHandler3:PROC
EXTRN	__libm_sse2_log10_precise:PROC
EXTRN	??_7type_info@@6B@:QWORD			; type_info::`vftable'
EXTRN	?g_iMetaTable@@3VIMetaTable@@A:BYTE		; g_iMetaTable
EXTRN	___security_cookie:DWORD
EXTRN	__fltused:DWORD
_BSS	SEGMENT
?m_strAddInItemName@CYScaleSetUpAddInImp@@2V?$CStringT@DV?$StrTraitMFC_DLL@DV?$ChTraitsCRT@D@ATL@@@@@ATL@@A DD 01H DUP (?) ; CYScaleSetUpAddInImp::m_strAddInItemName
_BSS	ENDS
CRT$XCU	SEGMENT
??m_strAddInItemName$initializer$@CYScaleSetUpAddInImp@@2P6AXXZA@@3P6AXXZA DD FLAT:??__E?m_strAddInItemName@CYScaleSetUpAddInImp@@2V?$CStringT@DV?$StrTraitMFC_DLL@DV?$ChTraitsCRT@D@ATL@@@@@ATL@@A@@YAXXZ ; ??m_strAddInItemName$initializer$@CYScaleSetUpAddInImp@@2P6AXXZA@@3P6AXXZA
CRT$XCU	ENDS
;	COMDAT __xmm@c03e000000000000403e000000000000
CONST	SEGMENT
__xmm@c03e000000000000403e000000000000 DB 00H, 00H, 00H, 00H, 00H, 00H, '>'
	DB	'@', 00H, 00H, 00H, 00H, 00H, 00H, '>', 0c0H
CONST	ENDS
;	COMDAT __real@4059000000000000
CONST	SEGMENT
__real@4059000000000000 DQ 04059000000000000r	; 100
CONST	ENDS
;	COMDAT __real@3ff0000000000000
CONST	SEGMENT
__real@3ff0000000000000 DQ 03ff0000000000000r	; 1
CONST	ENDS
;	COMDAT __real@3fe0000000000000
CONST	SEGMENT
__real@3fe0000000000000 DQ 03fe0000000000000r	; 0.5
CONST	ENDS
;	COMDAT __real@0000000000000000
CONST	SEGMENT
__real@0000000000000000 DQ 00000000000000000r	; 0
CONST	ENDS
;	COMDAT ??_R4CYScaleSetUpAddInImp@@6BIChartAddIn000000@@@
rdata$r	SEGMENT
??_R4CYScaleSetUpAddInImp@@6BIChartAddIn000000@@@ DD 00H ; CYScaleSetUpAddInImp::`RTTI Complete Object Locator'
	DD	08H
	DD	00H
	DD	FLAT:??_R0?AVCYScaleSetUpAddInImp@@@8
	DD	FLAT:??_R3CYScaleSetUpAddInImp@@8
rdata$r	ENDS
;	COMDAT ??_R17?0A@EA@IUnknown@@8
rdata$r	SEGMENT
??_R17?0A@EA@IUnknown@@8 DD FLAT:??_R0?AUIUnknown@@@8	; IUnknown::`RTTI Base Class Descriptor at (8,-1,0,64)'
	DD	00H
	DD	08H
	DD	0ffffffffH
	DD	00H
	DD	040H
	DD	FLAT:??_R3IUnknown@@8
rdata$r	ENDS
;	COMDAT ??_R17?0A@EA@IChartAddIn000000@@8
rdata$r	SEGMENT
??_R17?0A@EA@IChartAddIn000000@@8 DD FLAT:??_R0?AUIChartAddIn000000@@@8 ; IChartAddIn000000::`RTTI Base Class Descriptor at (8,-1,0,64)'
	DD	01H
	DD	08H
	DD	0ffffffffH
	DD	00H
	DD	040H
	DD	FLAT:??_R3IChartAddIn000000@@8
rdata$r	ENDS
;	COMDAT ??_R2CIWUnknown@@8
rdata$r	SEGMENT
??_R2CIWUnknown@@8 DD FLAT:??_R1A@?0A@EA@CIWUnknown@@8	; CIWUnknown::`RTTI Base Class Array'
	DD	FLAT:??_R1A@?0A@EA@CObject@@8
rdata$r	ENDS
;	COMDAT ??_R3CIWUnknown@@8
rdata$r	SEGMENT
??_R3CIWUnknown@@8 DD 00H				; CIWUnknown::`RTTI Class Hierarchy Descriptor'
	DD	00H
	DD	02H
	DD	FLAT:??_R2CIWUnknown@@8
rdata$r	ENDS
;	COMDAT ??_R0?AVCIWUnknown@@@8
data$rs	SEGMENT
??_R0?AVCIWUnknown@@@8 DD FLAT:??_7type_info@@6B@	; CIWUnknown `RTTI Type Descriptor'
	DD	00H
	DB	'.?AVCIWUnknown@@', 00H
data$rs	ENDS
;	COMDAT ??_R1A@?0A@EA@CIWUnknown@@8
rdata$r	SEGMENT
??_R1A@?0A@EA@CIWUnknown@@8 DD FLAT:??_R0?AVCIWUnknown@@@8 ; CIWUnknown::`RTTI Base Class Descriptor at (0,-1,0,64)'
	DD	01H
	DD	00H
	DD	0ffffffffH
	DD	00H
	DD	040H
	DD	FLAT:??_R3CIWUnknown@@8
rdata$r	ENDS
;	COMDAT ??_R2CChartAddInBase000000@@8
rdata$r	SEGMENT
??_R2CChartAddInBase000000@@8 DD FLAT:??_R1A@?0A@EA@CChartAddInBase000000@@8 ; CChartAddInBase000000::`RTTI Base Class Array'
	DD	FLAT:??_R1A@?0A@EA@CIWUnknown@@8
	DD	FLAT:??_R1A@?0A@EA@CObject@@8
	DD	FLAT:??_R17?0A@EA@IChartAddIn000000@@8
	DD	FLAT:??_R17?0A@EA@IUnknown@@8
rdata$r	ENDS
;	COMDAT ??_R3CChartAddInBase000000@@8
rdata$r	SEGMENT
??_R3CChartAddInBase000000@@8 DD 00H			; CChartAddInBase000000::`RTTI Class Hierarchy Descriptor'
	DD	01H
	DD	05H
	DD	FLAT:??_R2CChartAddInBase000000@@8
rdata$r	ENDS
;	COMDAT ??_R0?AVCChartAddInBase000000@@@8
data$rs	SEGMENT
??_R0?AVCChartAddInBase000000@@@8 DD FLAT:??_7type_info@@6B@ ; CChartAddInBase000000 `RTTI Type Descriptor'
	DD	00H
	DB	'.?AVCChartAddInBase000000@@', 00H
data$rs	ENDS
;	COMDAT ??_R1A@?0A@EA@CChartAddInBase000000@@8
rdata$r	SEGMENT
??_R1A@?0A@EA@CChartAddInBase000000@@8 DD FLAT:??_R0?AVCChartAddInBase000000@@@8 ; CChartAddInBase000000::`RTTI Base Class Descriptor at (0,-1,0,64)'
	DD	04H
	DD	00H
	DD	0ffffffffH
	DD	00H
	DD	040H
	DD	FLAT:??_R3CChartAddInBase000000@@8
rdata$r	ENDS
;	COMDAT ??_R1A@?0A@EA@CYScaleSetUpAddInImp@@8
rdata$r	SEGMENT
??_R1A@?0A@EA@CYScaleSetUpAddInImp@@8 DD FLAT:??_R0?AVCYScaleSetUpAddInImp@@@8 ; CYScaleSetUpAddInImp::`RTTI Base Class Descriptor at (0,-1,0,64)'
	DD	05H
	DD	00H
	DD	0ffffffffH
	DD	00H
	DD	040H
	DD	FLAT:??_R3CYScaleSetUpAddInImp@@8
rdata$r	ENDS
;	COMDAT ??_R2CYScaleSetUpAddInImp@@8
rdata$r	SEGMENT
??_R2CYScaleSetUpAddInImp@@8 DD FLAT:??_R1A@?0A@EA@CYScaleSetUpAddInImp@@8 ; CYScaleSetUpAddInImp::`RTTI Base Class Array'
	DD	FLAT:??_R1A@?0A@EA@CChartAddInBase000000@@8
	DD	FLAT:??_R1A@?0A@EA@CIWUnknown@@8
	DD	FLAT:??_R1A@?0A@EA@CObject@@8
	DD	FLAT:??_R17?0A@EA@IChartAddIn000000@@8
	DD	FLAT:??_R17?0A@EA@IUnknown@@8
rdata$r	ENDS
;	COMDAT ??_R3CYScaleSetUpAddInImp@@8
rdata$r	SEGMENT
??_R3CYScaleSetUpAddInImp@@8 DD 00H			; CYScaleSetUpAddInImp::`RTTI Class Hierarchy Descriptor'
	DD	01H
	DD	06H
	DD	FLAT:??_R2CYScaleSetUpAddInImp@@8
rdata$r	ENDS
;	COMDAT ??_R0?AVCYScaleSetUpAddInImp@@@8
data$rs	SEGMENT
??_R0?AVCYScaleSetUpAddInImp@@@8 DD FLAT:??_7type_info@@6B@ ; CYScaleSetUpAddInImp `RTTI Type Descriptor'
	DD	00H
	DB	'.?AVCYScaleSetUpAddInImp@@', 00H
data$rs	ENDS
;	COMDAT ??_R4CYScaleSetUpAddInImp@@6BCIWUnknown@@@
rdata$r	SEGMENT
??_R4CYScaleSetUpAddInImp@@6BCIWUnknown@@@ DD 00H	; CYScaleSetUpAddInImp::`RTTI Complete Object Locator'
	DD	00H
	DD	00H
	DD	FLAT:??_R0?AVCYScaleSetUpAddInImp@@@8
	DD	FLAT:??_R3CYScaleSetUpAddInImp@@8
rdata$r	ENDS
;	COMDAT ??_R1A@?0A@EA@IChartAddIn000000@@8
rdata$r	SEGMENT
??_R1A@?0A@EA@IChartAddIn000000@@8 DD FLAT:??_R0?AUIChartAddIn000000@@@8 ; IChartAddIn000000::`RTTI Base Class Descriptor at (0,-1,0,64)'
	DD	01H
	DD	00H
	DD	0ffffffffH
	DD	00H
	DD	040H
	DD	FLAT:??_R3IChartAddIn000000@@8
rdata$r	ENDS
;	COMDAT ??_R2IChartAddIn000000@@8
rdata$r	SEGMENT
??_R2IChartAddIn000000@@8 DD FLAT:??_R1A@?0A@EA@IChartAddIn000000@@8 ; IChartAddIn000000::`RTTI Base Class Array'
	DD	FLAT:??_R1A@?0A@EA@IUnknown@@8
rdata$r	ENDS
;	COMDAT ??_R3IChartAddIn000000@@8
rdata$r	SEGMENT
??_R3IChartAddIn000000@@8 DD 00H			; IChartAddIn000000::`RTTI Class Hierarchy Descriptor'
	DD	00H
	DD	02H
	DD	FLAT:??_R2IChartAddIn000000@@8
rdata$r	ENDS
;	COMDAT ??_R0?AUIChartAddIn000000@@@8
data$rs	SEGMENT
??_R0?AUIChartAddIn000000@@@8 DD FLAT:??_7type_info@@6B@ ; IChartAddIn000000 `RTTI Type Descriptor'
	DD	00H
	DB	'.?AUIChartAddIn000000@@', 00H
data$rs	ENDS
;	COMDAT ??_C@_06DNBDMDIL@?$CF?$CF?4?$CFdf@
CONST	SEGMENT
??_C@_06DNBDMDIL@?$CF?$CF?4?$CFdf@ DB '%%.%df', 00H	; `string'
CONST	ENDS
;	COMDAT ??_C@_04GHNNFJCK@?$CF?40f@
CONST	SEGMENT
??_C@_04GHNNFJCK@?$CF?40f@ DB '%.0f', 00H		; `string'
CONST	ENDS
;	COMDAT ??_C@_0BF@FAAOMLOD@?$CFd?3?$CFs?3?$CFs?3?$CFf?3?$CFf?3?$CFf?3?$CFf@
CONST	SEGMENT
??_C@_0BF@FAAOMLOD@?$CFd?3?$CFs?3?$CFs?3?$CFf?3?$CFf?3?$CFf?3?$CFf@ DB '%'
	DB	'd:%s:%s:%f:%f:%f:%f', 00H			; `string'
CONST	ENDS
;	COMDAT ??_C@_0BC@NCHAJJPH@YSCALE_SETUP_LOAD@
CONST	SEGMENT
??_C@_0BC@NCHAJJPH@YSCALE_SETUP_LOAD@ DB 'YSCALE_SETUP_LOAD', 00H ; `string'
CONST	ENDS
;	COMDAT ??_C@_01JLIPDDHJ@?3@
CONST	SEGMENT
??_C@_01JLIPDDHJ@?3@ DB ':', 00H			; `string'
CONST	ENDS
;	COMDAT ??_C@_01DNKMNLPK@?$HM@
CONST	SEGMENT
??_C@_01DNKMNLPK@?$HM@ DB '|', 00H			; `string'
CONST	ENDS
;	COMDAT ??_C@_02DKCKIIND@?$CFs@
CONST	SEGMENT
??_C@_02DKCKIIND@?$CFs@ DB '%s', 00H			; `string'
CONST	ENDS
;	COMDAT ??_C@_09IPCOGDAH@PREVPRICE@
CONST	SEGMENT
??_C@_09IPCOGDAH@PREVPRICE@ DB 'PREVPRICE', 00H		; `string'
CONST	ENDS
;	COMDAT ??_C@_09OFFEPIIO@BOUNDMARK@
CONST	SEGMENT
??_C@_09OFFEPIIO@BOUNDMARK@ DB 'BOUNDMARK', 00H		; `string'
CONST	ENDS
;	COMDAT ??_C@_07MGCPDNLD@DEFAULT@
CONST	SEGMENT
??_C@_07MGCPDNLD@DEFAULT@ DB 'DEFAULT', 00H		; `string'
CONST	ENDS
;	COMDAT ??_C@_03EICDNICE@?$CF?4f@
CONST	SEGMENT
??_C@_03EICDNICE@?$CF?4f@ DB '%.f', 00H			; `string'
CONST	ENDS
;	COMDAT ??_C@_06GEKNBBDK@000000@
CONST	SEGMENT
??_C@_06GEKNBBDK@000000@ DB '000000', 00H		; `string'
CONST	ENDS
;	COMDAT ??_C@_0BA@ENJOCHIO@LoadResourceDLL@
CONST	SEGMENT
??_C@_0BA@ENJOCHIO@LoadResourceDLL@ DB 'LoadResourceDLL', 00H ; `string'
CONST	ENDS
;	COMDAT ??_7CYScaleSetUpAddInImp@@6BIChartAddIn000000@@@
CONST	SEGMENT
??_7CYScaleSetUpAddInImp@@6BIChartAddIn000000@@@ DD FLAT:??_R4CYScaleSetUpAddInImp@@6BIChartAddIn000000@@@ ; CYScaleSetUpAddInImp::`vftable'
	DD	FLAT:?QueryInterface@CChartAddInBase000000@@O7AGJABU_GUID@@PAPAX@Z
	DD	FLAT:?AddRef@CChartAddInBase000000@@O7AGKXZ
	DD	FLAT:?Release@CChartAddInBase000000@@O7AGKXZ
	DD	FLAT:??_ECYScaleSetUpAddInImp@@W7AEPAXI@Z
	DD	FLAT:?HasFullManager@CChartAddInBase000000@@MAEHXZ
	DD	FLAT:?GetAddInCustomInterface@CChartAddInBase000000@@MAEPAUIUnknown@@XZ
	DD	FLAT:?InvokeAddIn@CChartAddInBase000000@@MAEHHJ@Z
	DD	FLAT:?InvokeAddInStr@CYScaleSetUpAddInImp@@MAEHPBD0@Z
	DD	FLAT:?OnOcxDestroyWindow@CChartAddInBase000000@@MAEXXZ
	DD	FLAT:?ChangeChartMode@CChartAddInBase000000@@MAEXW4CHART_MODE@CChartInfo@@@Z
	DD	FLAT:?RegisterEventMap@CChartAddInBase000000@@UAEHH@Z
	DD	FLAT:?UnregisterEventMap@CChartAddInBase000000@@UAEHXZ
	DD	FLAT:?OnGSharedDataChange@CChartAddInBase000000@@MAEXPBD0H@Z
	DD	FLAT:?OnLSharedDataChange@CChartAddInBase000000@@MAEXPBD0@Z
	DD	FLAT:?OnResetChart@CChartAddInBase000000@@MAEXXZ
	DD	FLAT:?OnDrawBeforeGraph@CChartAddInBase000000@@MAEXPAUHDC__@@@Z
	DD	FLAT:?OnDrawAfterGraph@CChartAddInBase000000@@MAEXPAUHDC__@@@Z
	DD	FLAT:?OnPacketDataMultiItem@CYScaleSetUpAddInImp@@MAEXPBD0H@Z
	DD	FLAT:?OnTimer@CChartAddInBase000000@@MAEXI@Z
	DD	FLAT:?OnCaptureChanged@CChartAddInBase000000@@MAEXPAUHWND__@@QAUHBITMAP__@@@Z
	DD	FLAT:?OnResetMainBlock@CChartAddInBase000000@@MAEXXZ
	DD	FLAT:?OnUserIndiatorConditionLoaded@CChartAddInBase000000@@MAEXXZ
	DD	FLAT:?OnChartItemChanged@CChartAddInBase000000@@MAEXXZ
	DD	FLAT:?OnGraphDataChanged@CChartAddInBase000000@@MAEXXZ
	DD	FLAT:?OnBlockRemoved@CChartAddInBase000000@@MAEXHH@Z
	DD	FLAT:?OnGraphAdded@CChartAddInBase000000@@MAEXPBD0@Z
	DD	FLAT:?OnManualRealData@CChartAddInBase000000@@MAEXPBDNH@Z
	DD	FLAT:?OnContextMenu@CChartAddInBase000000@@MAEXPAUHWND__@@AAUtagPOINT@@@Z
	DD	FLAT:?OnGraphDeleted@CChartAddInBase000000@@MAEXPBD0@Z
	DD	FLAT:?OnPacketTruncated@CChartAddInBase000000@@MAEXH@Z
	DD	FLAT:?OnBlockChanged@CChartAddInBase000000@@MAEXW4BLOCKBEHAVIOR@CBlockBaseData@@HHHH@Z
	DD	FLAT:?OnToolCommand@CYScaleSetUpAddInImp@@MAEXHH@Z
	DD	FLAT:?OnRealData@CChartAddInBase000000@@MAEXPBDN0@Z
	DD	FLAT:?OnIndexedRealData@CChartAddInBase000000@@MAEXPBDHN@Z
	DD	FLAT:?OnRealPacketEnd@CChartAddInBase000000@@MAEXPBD@Z
	DD	FLAT:?OnLoadEnvironment@CYScaleSetUpAddInImp@@MAEXPAUIPropertyMap@@@Z
	DD	FLAT:?OnSaveEnvironment@CYScaleSetUpAddInImp@@MAEXPAUIPropertyMap@@@Z
	DD	FLAT:?DrawCursor@CChartAddInBase000000@@MAE?AUtagRECT@@PAUHDC__@@@Z
	DD	FLAT:?OnRecalculationComplete@CChartAddInBase000000@@MAEXXZ
	DD	FLAT:?OnPreRealData@CChartAddInBase000000@@MAEHPBDAAN0H@Z
	DD	FLAT:?OnPreIndexedRealData@CChartAddInBase000000@@MAEHPBDHAANH@Z
	DD	FLAT:?OnPreRealPacketEnd@CChartAddInBase000000@@MAEHPBDH@Z
	DD	FLAT:?OnPreNMTRClock@CChartAddInBase000000@@MAEHAA_J@Z
	DD	FLAT:?OnCmdMsg@CChartAddInBase000000@@MAEHIHPAUICmdUI000000@@@Z
	DD	FLAT:?OnAddInMsg@CChartAddInBase000000@@MAEHPBDJ@Z
	DD	FLAT:?OnAddInToolCommand@CChartAddInBase000000@@MAEHAAJW4EAICommandType@@JJ@Z
	DD	FLAT:?OnAddInToolCommand@CChartAddInBase000000@@MAEHAAJW4EAICommandType@@J@Z
	DD	FLAT:?OnAddInToolCommand@CChartAddInBase000000@@MAEHAAJW4EAICommandType@@PBDPAVCObject@@@Z
	DD	FLAT:?OnAddInToolCommand@CChartAddInBase000000@@MAEHAAJW4EAICommandType@@PBD@Z
	DD	FLAT:?OnAddInToolCommand@CChartAddInBase000000@@MAEHAAJW4EAICommandType@@PAUIGraphInfo000000@@@Z
	DD	FLAT:?OnAddInToolCommand@CChartAddInBase000000@@MAEHAAJW4EAICommandType@@@Z
	DD	FLAT:?OnAddInToolCommand@CChartAddInBase000000@@MAEHW4EAICommandType@@JJJJJJJJJ@Z
	DD	FLAT:?OnAddInToolCommand@CChartAddInBase000000@@MAEHW4EAICommandType@@JJ@Z
	DD	FLAT:?OnAddInToolCommand@CChartAddInBase000000@@MAEHW4EAICommandType@@JPBD11@Z
	DD	FLAT:?OnAddInToolCommand@CChartAddInBase000000@@MAEHW4EAICommandType@@JPBD@Z
	DD	FLAT:?OnAddInToolCommand@CChartAddInBase000000@@MAEHW4EAICommandType@@J@Z
	DD	FLAT:?OnAddInToolCommand@CChartAddInBase000000@@MAEHW4EAICommandType@@PBUIAddInDllBase@@@Z
	DD	FLAT:?OnAddInToolCommand@CChartAddInBase000000@@MAEHW4EAICommandType@@PBDJ@Z
	DD	FLAT:?OnAddInToolCommand@CChartAddInBase000000@@MAEHW4EAICommandType@@PBD1@Z
	DD	FLAT:?OnAddInToolCommand@CChartAddInBase000000@@MAEHW4EAICommandType@@PBD@Z
	DD	FLAT:?OnAddInToolCommand@CChartAddInBase000000@@MAEHW4EAICommandType@@PAUHDC__@@IAAUtagPOINT@@K@Z
	DD	FLAT:?OnAddInToolCommand@CChartAddInBase000000@@MAEHW4EAICommandType@@@Z
	DD	FLAT:?OnKeyDown@CChartAddInBase000000@@MAEHIII@Z
	DD	FLAT:?OnKeyUp@CChartAddInBase000000@@MAEHIII@Z
	DD	FLAT:?OnMouseWheel@CChartAddInBase000000@@MAEHIFUtagPOINT@@K@Z
	DD	FLAT:?OnMouseMove@CChartAddInBase000000@@MAEHPAUHDC__@@IAAUtagPOINT@@KQAUHBITMAP__@@@Z
	DD	FLAT:?OnLButtonDown@CChartAddInBase000000@@MAEHPAUHDC__@@IAAUtagPOINT@@K@Z
	DD	FLAT:?OnLButtonUp@CChartAddInBase000000@@MAEHPAUHDC__@@IAAUtagPOINT@@K@Z
	DD	FLAT:?OnLButtonDblClk@CChartAddInBase000000@@MAEHPAUHDC__@@IAAUtagPOINT@@K@Z
	DD	FLAT:?OnRButtonDown@CChartAddInBase000000@@MAEHPAUHDC__@@IAAUtagPOINT@@K@Z
	DD	FLAT:?OnRButtonUp@CChartAddInBase000000@@MAEHPAUHDC__@@IAAUtagPOINT@@K@Z
	DD	FLAT:?OnRButtonDblClk@CChartAddInBase000000@@MAEHPAUHDC__@@IAAUtagPOINT@@K@Z
CONST	ENDS
;	COMDAT ??_7CYScaleSetUpAddInImp@@6BCIWUnknown@@@
CONST	SEGMENT
??_7CYScaleSetUpAddInImp@@6BCIWUnknown@@@ DD FLAT:??_R4CYScaleSetUpAddInImp@@6BCIWUnknown@@@ ; CYScaleSetUpAddInImp::`vftable'
	DD	FLAT:?GetRuntimeClass@CObject@@UBEPAUCRuntimeClass@@XZ
	DD	FLAT:??_ECYScaleSetUpAddInImp@@UAEPAXI@Z
	DD	FLAT:?Serialize@CObject@@UAEXAAVCArchive@@@Z
	DD	FLAT:?AssertValid@CObject@@UBEXXZ
	DD	FLAT:?Dump@CObject@@UBEXAAVCDumpContext@@@Z
	DD	FLAT:?AddRef@CChartAddInBase000000@@MAGKXZ
	DD	FLAT:?Release@CChartAddInBase000000@@MAGKXZ
	DD	FLAT:?QueryInterface@CChartAddInBase000000@@MAGJABU_GUID@@PAPAX@Z
	DD	FLAT:?PostConstruct@CIWUnknown@@MAEXXZ
	DD	FLAT:?PreDestructX@CIWUnknown@@MAEXXZ
	DD	FLAT:?PreDestruct@CIWUnknown@@MAEXXZ
	DD	FLAT:?GetRegisteredEventMap@CYScaleSetUpAddInImp@@MBEPBW4EAddInEventType@IChartAddIn000000@@XZ
	DD	FLAT:?AfeterOnOcxDestroyWindow@CChartAddInBase000000@@MAEXXZ
CONST	ENDS
;	COMDAT ??_R1A@?0A@EA@IUnknown@@8
rdata$r	SEGMENT
??_R1A@?0A@EA@IUnknown@@8 DD FLAT:??_R0?AUIUnknown@@@8	; IUnknown::`RTTI Base Class Descriptor at (0,-1,0,64)'
	DD	00H
	DD	00H
	DD	0ffffffffH
	DD	00H
	DD	040H
	DD	FLAT:??_R3IUnknown@@8
rdata$r	ENDS
;	COMDAT ??_R2IUnknown@@8
rdata$r	SEGMENT
??_R2IUnknown@@8 DD FLAT:??_R1A@?0A@EA@IUnknown@@8	; IUnknown::`RTTI Base Class Array'
rdata$r	ENDS
;	COMDAT ??_R3IUnknown@@8
rdata$r	SEGMENT
??_R3IUnknown@@8 DD 00H					; IUnknown::`RTTI Class Hierarchy Descriptor'
	DD	00H
	DD	01H
	DD	FLAT:??_R2IUnknown@@8
rdata$r	ENDS
;	COMDAT ??_R0?AUIUnknown@@@8
data$rs	SEGMENT
??_R0?AUIUnknown@@@8 DD FLAT:??_7type_info@@6B@		; IUnknown `RTTI Type Descriptor'
	DD	00H
	DB	'.?AUIUnknown@@', 00H
data$rs	ENDS
;	COMDAT ??_R1A@?0A@EA@CObject@@8
rdata$r	SEGMENT
??_R1A@?0A@EA@CObject@@8 DD FLAT:??_R0?AVCObject@@@8	; CObject::`RTTI Base Class Descriptor at (0,-1,0,64)'
	DD	00H
	DD	00H
	DD	0ffffffffH
	DD	00H
	DD	040H
	DD	FLAT:??_R3CObject@@8
rdata$r	ENDS
;	COMDAT ??_R2CObject@@8
rdata$r	SEGMENT
??_R2CObject@@8 DD FLAT:??_R1A@?0A@EA@CObject@@8	; CObject::`RTTI Base Class Array'
rdata$r	ENDS
;	COMDAT ??_R3CObject@@8
rdata$r	SEGMENT
??_R3CObject@@8 DD 00H					; CObject::`RTTI Class Hierarchy Descriptor'
	DD	00H
	DD	01H
	DD	FLAT:??_R2CObject@@8
rdata$r	ENDS
;	COMDAT ??_R0?AVCObject@@@8
data$rs	SEGMENT
??_R0?AVCObject@@@8 DD FLAT:??_7type_info@@6B@		; CObject `RTTI Type Descriptor'
	DD	00H
	DB	'.?AVCObject@@', 00H
data$rs	ENDS
;	COMDAT ??_C@_00CNPNBAHC@@
CONST	SEGMENT
??_C@_00CNPNBAHC@@ DB 00H				; `string'
CONST	ENDS
;	COMDAT xdata$x
xdata$x	SEGMENT
__unwindtable$?SetPacketType@CDlgYScaleSetUp@@QAEXV?$CStringT@DV?$StrTraitMFC_DLL@DV?$ChTraitsCRT@D@ATL@@@@@ATL@@@Z DD 0ffffffffH
	DD	FLAT:__unwindfunclet$?SetPacketType@CDlgYScaleSetUp@@QAEXV?$CStringT@DV?$StrTraitMFC_DLL@DV?$ChTraitsCRT@D@ATL@@@@@ATL@@@Z$0
__ehfuncinfo$?SetPacketType@CDlgYScaleSetUp@@QAEXV?$CStringT@DV?$StrTraitMFC_DLL@DV?$ChTraitsCRT@D@ATL@@@@@ATL@@@Z DD 019930522H
	DD	01H
	DD	FLAT:__unwindtable$?SetPacketType@CDlgYScaleSetUp@@QAEXV?$CStringT@DV?$StrTraitMFC_DLL@DV?$ChTraitsCRT@D@ATL@@@@@ATL@@@Z
	DD	2 DUP(00H)
	DD	2 DUP(00H)
	DD	00H
	DD	01H
xdata$x	ENDS
;	COMDAT xdata$x
xdata$x	SEGMENT
__ehfuncinfo$??1ILPCSTR000000@@QAE@XZ DD 019930522H
	DD	00H
	DD	00H
	DD	2 DUP(00H)
	DD	2 DUP(00H)
	DD	00H
	DD	05H
xdata$x	ENDS
;	COMDAT xdata$x
xdata$x	SEGMENT
__ehfuncinfo$??1CMultiLanguageResourceSetter@@QAE@XZ DD 019930522H
	DD	00H
	DD	00H
	DD	2 DUP(00H)
	DD	2 DUP(00H)
	DD	00H
	DD	05H
xdata$x	ENDS
;	COMDAT xdata$x
xdata$x	SEGMENT
__unwindtable$?OnSaveEnvironment@CYScaleSetUpAddInImp@@MAEXPAUIPropertyMap@@@Z DD 0ffffffffH
	DD	FLAT:__unwindfunclet$?OnSaveEnvironment@CYScaleSetUpAddInImp@@MAEXPAUIPropertyMap@@@Z$0
__ehfuncinfo$?OnSaveEnvironment@CYScaleSetUpAddInImp@@MAEXPAUIPropertyMap@@@Z DD 019930522H
	DD	01H
	DD	FLAT:__unwindtable$?OnSaveEnvironment@CYScaleSetUpAddInImp@@MAEXPAUIPropertyMap@@@Z
	DD	2 DUP(00H)
	DD	2 DUP(00H)
	DD	00H
	DD	01H
xdata$x	ENDS
;	COMDAT xdata$x
xdata$x	SEGMENT
__ehfuncinfo$?OnLoadEnvironment@CYScaleSetUpAddInImp@@MAEXPAUIPropertyMap@@@Z DD 019930522H
	DD	0dH
	DD	FLAT:__unwindtable$?OnLoadEnvironment@CYScaleSetUpAddInImp@@MAEXPAUIPropertyMap@@@Z
	DD	2 DUP(00H)
	DD	2 DUP(00H)
	DD	00H
	DD	01H
__unwindtable$?OnLoadEnvironment@CYScaleSetUpAddInImp@@MAEXPAUIPropertyMap@@@Z DD 0ffffffffH
	DD	FLAT:__unwindfunclet$?OnLoadEnvironment@CYScaleSetUpAddInImp@@MAEXPAUIPropertyMap@@@Z$0
	DD	00H
	DD	FLAT:__unwindfunclet$?OnLoadEnvironment@CYScaleSetUpAddInImp@@MAEXPAUIPropertyMap@@@Z$1
	DD	01H
	DD	FLAT:__unwindfunclet$?OnLoadEnvironment@CYScaleSetUpAddInImp@@MAEXPAUIPropertyMap@@@Z$2
	DD	01H
	DD	FLAT:__unwindfunclet$?OnLoadEnvironment@CYScaleSetUpAddInImp@@MAEXPAUIPropertyMap@@@Z$3
	DD	01H
	DD	FLAT:__unwindfunclet$?OnLoadEnvironment@CYScaleSetUpAddInImp@@MAEXPAUIPropertyMap@@@Z$4
	DD	01H
	DD	FLAT:__unwindfunclet$?OnLoadEnvironment@CYScaleSetUpAddInImp@@MAEXPAUIPropertyMap@@@Z$5
	DD	01H
	DD	FLAT:__unwindfunclet$?OnLoadEnvironment@CYScaleSetUpAddInImp@@MAEXPAUIPropertyMap@@@Z$6
	DD	01H
	DD	FLAT:__unwindfunclet$?OnLoadEnvironment@CYScaleSetUpAddInImp@@MAEXPAUIPropertyMap@@@Z$7
	DD	07H
	DD	FLAT:__unwindfunclet$?OnLoadEnvironment@CYScaleSetUpAddInImp@@MAEXPAUIPropertyMap@@@Z$8
	DD	07H
	DD	FLAT:__unwindfunclet$?OnLoadEnvironment@CYScaleSetUpAddInImp@@MAEXPAUIPropertyMap@@@Z$9
	DD	09H
	DD	FLAT:__unwindfunclet$?OnLoadEnvironment@CYScaleSetUpAddInImp@@MAEXPAUIPropertyMap@@@Z$10
	DD	09H
	DD	FLAT:__unwindfunclet$?OnLoadEnvironment@CYScaleSetUpAddInImp@@MAEXPAUIPropertyMap@@@Z$11
	DD	0bH
	DD	FLAT:__unwindfunclet$?OnLoadEnvironment@CYScaleSetUpAddInImp@@MAEXPAUIPropertyMap@@@Z$12
xdata$x	ENDS
;	COMDAT xdata$x
xdata$x	SEGMENT
__ehfuncinfo$?OnPacketDataMultiItem@CYScaleSetUpAddInImp@@MAEXPBD0H@Z DD 019930522H
	DD	011H
	DD	FLAT:__unwindtable$?OnPacketDataMultiItem@CYScaleSetUpAddInImp@@MAEXPBD0H@Z
	DD	2 DUP(00H)
	DD	2 DUP(00H)
	DD	00H
	DD	01H
__unwindtable$?OnPacketDataMultiItem@CYScaleSetUpAddInImp@@MAEXPBD0H@Z DD 0ffffffffH
	DD	FLAT:__unwindfunclet$?OnPacketDataMultiItem@CYScaleSetUpAddInImp@@MAEXPBD0H@Z$0
	DD	00H
	DD	FLAT:__unwindfunclet$?OnPacketDataMultiItem@CYScaleSetUpAddInImp@@MAEXPBD0H@Z$1
	DD	01H
	DD	FLAT:__unwindfunclet$?OnPacketDataMultiItem@CYScaleSetUpAddInImp@@MAEXPBD0H@Z$2
	DD	02H
	DD	FLAT:__unwindfunclet$?OnPacketDataMultiItem@CYScaleSetUpAddInImp@@MAEXPBD0H@Z$3
	DD	03H
	DD	FLAT:__unwindfunclet$?OnPacketDataMultiItem@CYScaleSetUpAddInImp@@MAEXPBD0H@Z$4
	DD	04H
	DD	FLAT:__unwindfunclet$?OnPacketDataMultiItem@CYScaleSetUpAddInImp@@MAEXPBD0H@Z$5
	DD	05H
	DD	FLAT:__unwindfunclet$?OnPacketDataMultiItem@CYScaleSetUpAddInImp@@MAEXPBD0H@Z$6
	DD	05H
	DD	FLAT:__unwindfunclet$?OnPacketDataMultiItem@CYScaleSetUpAddInImp@@MAEXPBD0H@Z$7
	DD	05H
	DD	FLAT:__unwindfunclet$?OnPacketDataMultiItem@CYScaleSetUpAddInImp@@MAEXPBD0H@Z$8
	DD	05H
	DD	FLAT:__unwindfunclet$?OnPacketDataMultiItem@CYScaleSetUpAddInImp@@MAEXPBD0H@Z$9
	DD	0ffffffffH
	DD	00H
	DD	00H
	DD	FLAT:__unwindfunclet$?OnPacketDataMultiItem@CYScaleSetUpAddInImp@@MAEXPBD0H@Z$10
	DD	0ffffffffH
	DD	00H
	DD	0ffffffffH
	DD	00H
	DD	0ffffffffH
	DD	00H
	DD	00H
	DD	FLAT:___std_terminate
	DD	0ffffffffH
	DD	FLAT:___std_terminate
xdata$x	ENDS
;	COMDAT xdata$x
xdata$x	SEGMENT
__ehfuncinfo$?InvokeAddInStr@CYScaleSetUpAddInImp@@MAEHPBD0@Z DD 019930522H
	DD	09H
	DD	FLAT:__unwindtable$?InvokeAddInStr@CYScaleSetUpAddInImp@@MAEHPBD0@Z
	DD	2 DUP(00H)
	DD	2 DUP(00H)
	DD	00H
	DD	01H
__unwindtable$?InvokeAddInStr@CYScaleSetUpAddInImp@@MAEHPBD0@Z DD 0ffffffffH
	DD	FLAT:__unwindfunclet$?InvokeAddInStr@CYScaleSetUpAddInImp@@MAEHPBD0@Z$0
	DD	00H
	DD	FLAT:__unwindfunclet$?InvokeAddInStr@CYScaleSetUpAddInImp@@MAEHPBD0@Z$1
	DD	01H
	DD	FLAT:__unwindfunclet$?InvokeAddInStr@CYScaleSetUpAddInImp@@MAEHPBD0@Z$3
	DD	02H
	DD	FLAT:__unwindfunclet$?InvokeAddInStr@CYScaleSetUpAddInImp@@MAEHPBD0@Z$4
	DD	03H
	DD	FLAT:__unwindfunclet$?InvokeAddInStr@CYScaleSetUpAddInImp@@MAEHPBD0@Z$7
	DD	03H
	DD	FLAT:__unwindfunclet$?InvokeAddInStr@CYScaleSetUpAddInImp@@MAEHPBD0@Z$6
	DD	03H
	DD	FLAT:___std_terminate
	DD	01H
	DD	FLAT:___std_terminate
	DD	0ffffffffH
	DD	FLAT:___std_terminate
xdata$x	ENDS
;	COMDAT xdata$x
xdata$x	SEGMENT
__ehfuncinfo$?SetYesterdayClosePrice@CYScaleSetUpAddInImp@@IAEXABV?$CStringT@DV?$StrTraitMFC_DLL@DV?$ChTraitsCRT@D@ATL@@@@@ATL@@@Z DD 019930522H
	DD	05H
	DD	FLAT:__unwindtable$?SetYesterdayClosePrice@CYScaleSetUpAddInImp@@IAEXABV?$CStringT@DV?$StrTraitMFC_DLL@DV?$ChTraitsCRT@D@ATL@@@@@ATL@@@Z
	DD	2 DUP(00H)
	DD	2 DUP(00H)
	DD	00H
	DD	01H
__unwindtable$?SetYesterdayClosePrice@CYScaleSetUpAddInImp@@IAEXABV?$CStringT@DV?$StrTraitMFC_DLL@DV?$ChTraitsCRT@D@ATL@@@@@ATL@@@Z DD 0ffffffffH
	DD	FLAT:__unwindfunclet$?SetYesterdayClosePrice@CYScaleSetUpAddInImp@@IAEXABV?$CStringT@DV?$StrTraitMFC_DLL@DV?$ChTraitsCRT@D@ATL@@@@@ATL@@@Z$0
	DD	00H
	DD	FLAT:__unwindfunclet$?SetYesterdayClosePrice@CYScaleSetUpAddInImp@@IAEXABV?$CStringT@DV?$StrTraitMFC_DLL@DV?$ChTraitsCRT@D@ATL@@@@@ATL@@@Z$1
	DD	01H
	DD	FLAT:__unwindfunclet$?SetYesterdayClosePrice@CYScaleSetUpAddInImp@@IAEXABV?$CStringT@DV?$StrTraitMFC_DLL@DV?$ChTraitsCRT@D@ATL@@@@@ATL@@@Z$2
	DD	00H
	DD	FLAT:__unwindfunclet$?SetYesterdayClosePrice@CYScaleSetUpAddInImp@@IAEXABV?$CStringT@DV?$StrTraitMFC_DLL@DV?$ChTraitsCRT@D@ATL@@@@@ATL@@@Z$3
	DD	00H
	DD	FLAT:__unwindfunclet$?SetYesterdayClosePrice@CYScaleSetUpAddInImp@@IAEXABV?$CStringT@DV?$StrTraitMFC_DLL@DV?$ChTraitsCRT@D@ATL@@@@@ATL@@@Z$5
xdata$x	ENDS
;	COMDAT xdata$x
xdata$x	SEGMENT
__ehfuncinfo$?ResetYScaleSetUp@CYScaleSetUpAddInImp@@IAEXPBD@Z DD 019930522H
	DD	06H
	DD	FLAT:__unwindtable$?ResetYScaleSetUp@CYScaleSetUpAddInImp@@IAEXPBD@Z
	DD	2 DUP(00H)
	DD	2 DUP(00H)
	DD	00H
	DD	01H
__unwindtable$?ResetYScaleSetUp@CYScaleSetUpAddInImp@@IAEXPBD@Z DD 0ffffffffH
	DD	FLAT:__unwindfunclet$?ResetYScaleSetUp@CYScaleSetUpAddInImp@@IAEXPBD@Z$0
	DD	00H
	DD	FLAT:__unwindfunclet$?ResetYScaleSetUp@CYScaleSetUpAddInImp@@IAEXPBD@Z$1
	DD	01H
	DD	FLAT:__unwindfunclet$?ResetYScaleSetUp@CYScaleSetUpAddInImp@@IAEXPBD@Z$2
	DD	02H
	DD	FLAT:__unwindfunclet$?ResetYScaleSetUp@CYScaleSetUpAddInImp@@IAEXPBD@Z$3
	DD	01H
	DD	FLAT:__unwindfunclet$?ResetYScaleSetUp@CYScaleSetUpAddInImp@@IAEXPBD@Z$4
	DD	01H
	DD	FLAT:__unwindfunclet$?ResetYScaleSetUp@CYScaleSetUpAddInImp@@IAEXPBD@Z$6
xdata$x	ENDS
;	COMDAT xdata$x
xdata$x	SEGMENT
__ehfuncinfo$??0CYScaleSetUpAddInImp@@QAE@PAUIChartOCX000000@@PAUIAddInDllBase@@@Z DD 019930522H
	DD	06H
	DD	FLAT:__unwindtable$??0CYScaleSetUpAddInImp@@QAE@PAUIChartOCX000000@@PAUIAddInDllBase@@@Z
	DD	2 DUP(00H)
	DD	2 DUP(00H)
	DD	00H
	DD	01H
__unwindtable$??0CYScaleSetUpAddInImp@@QAE@PAUIChartOCX000000@@PAUIAddInDllBase@@@Z DD 0ffffffffH
	DD	FLAT:__unwindfunclet$??0CYScaleSetUpAddInImp@@QAE@PAUIChartOCX000000@@PAUIAddInDllBase@@@Z$0
	DD	00H
	DD	FLAT:__unwindfunclet$??0CYScaleSetUpAddInImp@@QAE@PAUIChartOCX000000@@PAUIAddInDllBase@@@Z$1
	DD	01H
	DD	FLAT:__unwindfunclet$??0CYScaleSetUpAddInImp@@QAE@PAUIChartOCX000000@@PAUIAddInDllBase@@@Z$2
	DD	02H
	DD	FLAT:__unwindfunclet$??0CYScaleSetUpAddInImp@@QAE@PAUIChartOCX000000@@PAUIAddInDllBase@@@Z$3
	DD	03H
	DD	FLAT:__unwindfunclet$??0CYScaleSetUpAddInImp@@QAE@PAUIChartOCX000000@@PAUIAddInDllBase@@@Z$4
	DD	04H
	DD	FLAT:__unwindfunclet$??0CYScaleSetUpAddInImp@@QAE@PAUIChartOCX000000@@PAUIAddInDllBase@@@Z$5
xdata$x	ENDS
; Function compile flags: /Odsp
;	COMDAT ??_ECYScaleSetUpAddInImp@@W7AEPAXI@Z
_TEXT	SEGMENT
??_ECYScaleSetUpAddInImp@@W7AEPAXI@Z PROC		; [thunk]:CYScaleSetUpAddInImp::`vector deleting destructor', COMDAT
  00000	83 e9 08	 sub	 ecx, 8
  00003	e9 00 00 00 00	 jmp	 ??_ECYScaleSetUpAddInImp@@UAEPAXI@Z
??_ECYScaleSetUpAddInImp@@W7AEPAXI@Z ENDP		; [thunk]:CYScaleSetUpAddInImp::`vector deleting destructor'
_TEXT	ENDS
; Function compile flags: /Odsp
;	COMDAT ?Release@CChartAddInBase000000@@O7AGKXZ
_TEXT	SEGMENT
?Release@CChartAddInBase000000@@O7AGKXZ PROC		; [thunk]:CChartAddInBase000000::Release`adjustor{8}', COMDAT
  00000	83 6c 24 04 08	 sub	 DWORD PTR [esp+4], 8
  00005	e9 00 00 00 00	 jmp	 ?Release@CChartAddInBase000000@@MAGKXZ ; CChartAddInBase000000::Release
?Release@CChartAddInBase000000@@O7AGKXZ ENDP		; [thunk]:CChartAddInBase000000::Release`adjustor{8}'
_TEXT	ENDS
; Function compile flags: /Odsp
;	COMDAT ?AddRef@CChartAddInBase000000@@O7AGKXZ
_TEXT	SEGMENT
?AddRef@CChartAddInBase000000@@O7AGKXZ PROC		; [thunk]:CChartAddInBase000000::AddRef`adjustor{8}', COMDAT
  00000	83 6c 24 04 08	 sub	 DWORD PTR [esp+4], 8
  00005	e9 00 00 00 00	 jmp	 ?AddRef@CChartAddInBase000000@@MAGKXZ ; CChartAddInBase000000::AddRef
?AddRef@CChartAddInBase000000@@O7AGKXZ ENDP		; [thunk]:CChartAddInBase000000::AddRef`adjustor{8}'
_TEXT	ENDS
; Function compile flags: /Odsp
;	COMDAT ?QueryInterface@CChartAddInBase000000@@O7AGJABU_GUID@@PAPAX@Z
_TEXT	SEGMENT
?QueryInterface@CChartAddInBase000000@@O7AGJABU_GUID@@PAPAX@Z PROC ; [thunk]:CChartAddInBase000000::QueryInterface`adjustor{8}', COMDAT
  00000	83 6c 24 04 08	 sub	 DWORD PTR [esp+4], 8
  00005	e9 00 00 00 00	 jmp	 ?QueryInterface@CChartAddInBase000000@@MAGJABU_GUID@@PAPAX@Z ; CChartAddInBase000000::QueryInterface
?QueryInterface@CChartAddInBase000000@@O7AGJABU_GUID@@PAPAX@Z ENDP ; [thunk]:CChartAddInBase000000::QueryInterface`adjustor{8}'
_TEXT	ENDS
; Function compile flags: /Ogtp
;	COMDAT ??__F?m_strAddInItemName@CYScaleSetUpAddInImp@@2V?$CStringT@DV?$StrTraitMFC_DLL@DV?$ChTraitsCRT@D@ATL@@@@@ATL@@A@@YAXXZ
text$yd	SEGMENT
??__F?m_strAddInItemName@CYScaleSetUpAddInImp@@2V?$CStringT@DV?$StrTraitMFC_DLL@DV?$ChTraitsCRT@D@ATL@@@@@ATL@@A@@YAXXZ PROC ; `dynamic atexit destructor for 'CYScaleSetUpAddInImp::m_strAddInItemName'', COMDAT
  00000	b9 00 00 00 00	 mov	 ecx, OFFSET ?m_strAddInItemName@CYScaleSetUpAddInImp@@2V?$CStringT@DV?$StrTraitMFC_DLL@DV?$ChTraitsCRT@D@ATL@@@@@ATL@@A ; CYScaleSetUpAddInImp::m_strAddInItemName
  00005	ff 25 00 00 00
	00		 jmp	 DWORD PTR __imp_??1?$CStringT@DV?$StrTraitMFC_DLL@DV?$ChTraitsCRT@D@ATL@@@@@ATL@@QAE@XZ
??__F?m_strAddInItemName@CYScaleSetUpAddInImp@@2V?$CStringT@DV?$StrTraitMFC_DLL@DV?$ChTraitsCRT@D@ATL@@@@@ATL@@A@@YAXXZ ENDP ; `dynamic atexit destructor for 'CYScaleSetUpAddInImp::m_strAddInItemName''
text$yd	ENDS
; Function compile flags: /Ogtp
; File D:\git\src\IBK\IBK_DRFN\ProjSrc\SrcChartEx\ChartOCX\AddInManager\ChartCommonAddIn\YScaleSetUpAddInImp.cpp
;	COMDAT ??__E?m_strAddInItemName@CYScaleSetUpAddInImp@@2V?$CStringT@DV?$StrTraitMFC_DLL@DV?$ChTraitsCRT@D@ATL@@@@@ATL@@A@@YAXXZ
text$di	SEGMENT
??__E?m_strAddInItemName@CYScaleSetUpAddInImp@@2V?$CStringT@DV?$StrTraitMFC_DLL@DV?$ChTraitsCRT@D@ATL@@@@@ATL@@A@@YAXXZ PROC ; `dynamic initializer for 'CYScaleSetUpAddInImp::m_strAddInItemName'', COMDAT

; 59   : CString CYScaleSetUpAddInImp::m_strAddInItemName = "PRICE_YSCALE_SETUP";

  00000	68 00 00 00 00	 push	 OFFSET ??_C@_0BD@KACGDILO@PRICE_YSCALE_SETUP@
  00005	b9 00 00 00 00	 mov	 ecx, OFFSET ?m_strAddInItemName@CYScaleSetUpAddInImp@@2V?$CStringT@DV?$StrTraitMFC_DLL@DV?$ChTraitsCRT@D@ATL@@@@@ATL@@A ; CYScaleSetUpAddInImp::m_strAddInItemName
  0000a	ff 15 00 00 00
	00		 call	 DWORD PTR __imp_??0?$CStringT@DV?$StrTraitMFC_DLL@DV?$ChTraitsCRT@D@ATL@@@@@ATL@@QAE@PBD@Z
  00010	68 00 00 00 00	 push	 OFFSET ??__F?m_strAddInItemName@CYScaleSetUpAddInImp@@2V?$CStringT@DV?$StrTraitMFC_DLL@DV?$ChTraitsCRT@D@ATL@@@@@ATL@@A@@YAXXZ ; `dynamic atexit destructor for 'CYScaleSetUpAddInImp::m_strAddInItemName''
  00015	e8 00 00 00 00	 call	 _atexit
  0001a	59		 pop	 ecx
  0001b	c3		 ret	 0
??__E?m_strAddInItemName@CYScaleSetUpAddInImp@@2V?$CStringT@DV?$StrTraitMFC_DLL@DV?$ChTraitsCRT@D@ATL@@@@@ATL@@A@@YAXXZ ENDP ; `dynamic initializer for 'CYScaleSetUpAddInImp::m_strAddInItemName''
text$di	ENDS
; Function compile flags: /Ogtp
;	COMDAT ??1CDlgYScaleSetUp@@UAE@XZ
_TEXT	SEGMENT
??1CDlgYScaleSetUp@@UAE@XZ PROC				; CDlgYScaleSetUp::~CDlgYScaleSetUp, COMDAT
; _this$ = ecx
  00000	56		 push	 esi
  00001	8b f1		 mov	 esi, ecx
  00003	8d 8e 0c 01 00
	00		 lea	 ecx, DWORD PTR [esi+268]
  00009	ff 15 00 00 00
	00		 call	 DWORD PTR __imp_??1?$CStringT@DV?$StrTraitMFC_DLL@DV?$ChTraitsCRT@D@ATL@@@@@ATL@@QAE@XZ
  0000f	8d 8e 08 01 00
	00		 lea	 ecx, DWORD PTR [esi+264]
  00015	ff 15 00 00 00
	00		 call	 DWORD PTR __imp_??1?$CStringT@DV?$StrTraitMFC_DLL@DV?$ChTraitsCRT@D@ATL@@@@@ATL@@QAE@XZ
  0001b	8d 8e c0 00 00
	00		 lea	 ecx, DWORD PTR [esi+192]
  00021	ff 15 00 00 00
	00		 call	 DWORD PTR __imp_??1?$CStringT@DV?$StrTraitMFC_DLL@DV?$ChTraitsCRT@D@ATL@@@@@ATL@@QAE@XZ
  00027	8d 8e bc 00 00
	00		 lea	 ecx, DWORD PTR [esi+188]
  0002d	ff 15 00 00 00
	00		 call	 DWORD PTR __imp_??1?$CStringT@DV?$StrTraitMFC_DLL@DV?$ChTraitsCRT@D@ATL@@@@@ATL@@QAE@XZ
  00033	8d 8e b8 00 00
	00		 lea	 ecx, DWORD PTR [esi+184]
  00039	ff 15 00 00 00
	00		 call	 DWORD PTR __imp_??1?$CStringT@DV?$StrTraitMFC_DLL@DV?$ChTraitsCRT@D@ATL@@@@@ATL@@QAE@XZ
  0003f	8d 8e b4 00 00
	00		 lea	 ecx, DWORD PTR [esi+180]
  00045	ff 15 00 00 00
	00		 call	 DWORD PTR __imp_??1?$CStringT@DV?$StrTraitMFC_DLL@DV?$ChTraitsCRT@D@ATL@@@@@ATL@@QAE@XZ
  0004b	8d 8e b0 00 00
	00		 lea	 ecx, DWORD PTR [esi+176]
  00051	ff 15 00 00 00
	00		 call	 DWORD PTR __imp_??1?$CStringT@DV?$StrTraitMFC_DLL@DV?$ChTraitsCRT@D@ATL@@@@@ATL@@QAE@XZ
  00057	8b ce		 mov	 ecx, esi
  00059	5e		 pop	 esi
  0005a	e9 00 00 00 00	 jmp	 ??1CDialog@@UAE@XZ	; CDialog::~CDialog
??1CDlgYScaleSetUp@@UAE@XZ ENDP				; CDlgYScaleSetUp::~CDlgYScaleSetUp
_TEXT	ENDS
; Function compile flags: /Ogtp
; File D:\git\src\IBK\IBK_DRFN\ProjSrc\SrcChartEx\ChartOCX\AddInManager\Include_AddIn\I000000\_IString.h
;	COMDAT ??1ILPCSTR000000@@QAE@XZ
_TEXT	SEGMENT
__$EHRec$ = -12						; size = 12
??1ILPCSTR000000@@QAE@XZ PROC				; ILPCSTR000000::~ILPCSTR000000, COMDAT
; _this$ = ecx

; 44   : 	{

  00000	55		 push	 ebp
  00001	8b ec		 mov	 ebp, esp
  00003	6a ff		 push	 -1
  00005	68 00 00 00 00	 push	 __ehhandler$??1ILPCSTR000000@@QAE@XZ
  0000a	64 a1 00 00 00
	00		 mov	 eax, DWORD PTR fs:0
  00010	50		 push	 eax
  00011	56		 push	 esi
  00012	a1 00 00 00 00	 mov	 eax, DWORD PTR ___security_cookie
  00017	33 c5		 xor	 eax, ebp
  00019	50		 push	 eax
  0001a	8d 45 f4	 lea	 eax, DWORD PTR __$EHRec$[ebp]
  0001d	64 a3 00 00 00
	00		 mov	 DWORD PTR fs:0, eax
  00023	8b f1		 mov	 esi, ecx

; 45   : 		if( m_pIStrData)

  00025	8b 4e 04	 mov	 ecx, DWORD PTR [esi+4]
  00028	85 c9		 test	 ecx, ecx
  0002a	74 13		 je	 SHORT $LN2@ILPCSTR000

; 46   : 		{
; 47   : 			m_pIStrData->Release();

  0002c	8b 01		 mov	 eax, DWORD PTR [ecx]
  0002e	51		 push	 ecx
  0002f	ff 50 08	 call	 DWORD PTR [eax+8]

; 48   : 			m_pIStrData = NULL;

  00032	c7 46 04 00 00
	00 00		 mov	 DWORD PTR [esi+4], 0

; 49   : 			m_szData = NULL;

  00039	c7 06 00 00 00
	00		 mov	 DWORD PTR [esi], 0
$LN2@ILPCSTR000:

; 50   : 		}
; 51   : 	}

  0003f	8b 4d f4	 mov	 ecx, DWORD PTR __$EHRec$[ebp]
  00042	64 89 0d 00 00
	00 00		 mov	 DWORD PTR fs:0, ecx
  00049	59		 pop	 ecx
  0004a	5e		 pop	 esi
  0004b	8b e5		 mov	 esp, ebp
  0004d	5d		 pop	 ebp
  0004e	c3		 ret	 0
  0004f	cc		 int	 3
  00050	cc		 int	 3
  00051	cc		 int	 3
  00052	cc		 int	 3
  00053	cc		 int	 3
_TEXT	ENDS
;	COMDAT text$x
text$x	SEGMENT
__ehhandler$??1ILPCSTR000000@@QAE@XZ:
  00000	90		 npad	 1
  00001	90		 npad	 1
  00002	8b 54 24 08	 mov	 edx, DWORD PTR [esp+8]
  00006	8d 42 0c	 lea	 eax, DWORD PTR [edx+12]
  00009	8b 4a f8	 mov	 ecx, DWORD PTR [edx-8]
  0000c	33 c8		 xor	 ecx, eax
  0000e	e8 00 00 00 00	 call	 @__security_check_cookie@4
  00013	b8 00 00 00 00	 mov	 eax, OFFSET __ehfuncinfo$??1ILPCSTR000000@@QAE@XZ
  00018	e9 00 00 00 00	 jmp	 ___CxxFrameHandler3
text$x	ENDS
??1ILPCSTR000000@@QAE@XZ ENDP				; ILPCSTR000000::~ILPCSTR000000
; Function compile flags: /Ogtp
; File D:\git\src\IBK\IBK_DRFN\ProjSrc\SrcChartEx\ChartOCX\Include_Chart\Dll_Load\IMetaTable.h
; File C:\Program Files (x86)\Microsoft Visual Studio\2019\Community\VC\Tools\MSVC\14.29.30133\atlmfc\include\afxwin1.inl
; File D:\git\src\IBK\IBK_DRFN\ProjSrc\SrcChartEx\ChartOCX\Include_Chart\Dll_Load\IMetaTable.h
;	COMDAT ??1CMultiLanguageResourceSetter@@QAE@XZ
_TEXT	SEGMENT
__$EHRec$ = -12						; size = 12
??1CMultiLanguageResourceSetter@@QAE@XZ PROC		; CMultiLanguageResourceSetter::~CMultiLanguageResourceSetter, COMDAT
; _this$ = ecx

; 1036 : 	{

  00000	55		 push	 ebp
  00001	8b ec		 mov	 ebp, esp
  00003	6a ff		 push	 -1
  00005	68 00 00 00 00	 push	 __ehhandler$??1CMultiLanguageResourceSetter@@QAE@XZ
  0000a	64 a1 00 00 00
	00		 mov	 eax, DWORD PTR fs:0
  00010	50		 push	 eax
  00011	56		 push	 esi
  00012	a1 00 00 00 00	 mov	 eax, DWORD PTR ___security_cookie
  00017	33 c5		 xor	 eax, ebp
  00019	50		 push	 eax
  0001a	8d 45 f4	 lea	 eax, DWORD PTR __$EHRec$[ebp]
  0001d	64 a3 00 00 00
	00		 mov	 DWORD PTR fs:0, eax

; 1037 : 		AfxSetResourceHandle( m_hInstance);

  00023	8b 31		 mov	 esi, DWORD PTR [ecx]
; File C:\Program Files (x86)\Microsoft Visual Studio\2019\Community\VC\Tools\MSVC\14.29.30133\atlmfc\include\afxwin1.inl

; 27   : 	{ ASSERT(hInstResource != NULL); afxCurrentResourceHandle = hInstResource; }

  00025	e8 00 00 00 00	 call	 ?AfxGetModuleState@@YGPAVAFX_MODULE_STATE@@XZ ; AfxGetModuleState
  0002a	89 70 0c	 mov	 DWORD PTR [eax+12], esi
; File D:\git\src\IBK\IBK_DRFN\ProjSrc\SrcChartEx\ChartOCX\Include_Chart\Dll_Load\IMetaTable.h

; 1038 : 	}

  0002d	8b 4d f4	 mov	 ecx, DWORD PTR __$EHRec$[ebp]
  00030	64 89 0d 00 00
	00 00		 mov	 DWORD PTR fs:0, ecx
  00037	59		 pop	 ecx
  00038	5e		 pop	 esi
  00039	8b e5		 mov	 esp, ebp
  0003b	5d		 pop	 ebp
  0003c	c3		 ret	 0
  0003d	cc		 int	 3
  0003e	cc		 int	 3
  0003f	cc		 int	 3
  00040	cc		 int	 3
  00041	cc		 int	 3
_TEXT	ENDS
;	COMDAT text$x
text$x	SEGMENT
__ehhandler$??1CMultiLanguageResourceSetter@@QAE@XZ:
  00000	90		 npad	 1
  00001	90		 npad	 1
  00002	8b 54 24 08	 mov	 edx, DWORD PTR [esp+8]
  00006	8d 42 0c	 lea	 eax, DWORD PTR [edx+12]
  00009	8b 4a f8	 mov	 ecx, DWORD PTR [edx-8]
  0000c	33 c8		 xor	 ecx, eax
  0000e	e8 00 00 00 00	 call	 @__security_check_cookie@4
  00013	b8 00 00 00 00	 mov	 eax, OFFSET __ehfuncinfo$??1CMultiLanguageResourceSetter@@QAE@XZ
  00018	e9 00 00 00 00	 jmp	 ___CxxFrameHandler3
text$x	ENDS
??1CMultiLanguageResourceSetter@@QAE@XZ ENDP		; CMultiLanguageResourceSetter::~CMultiLanguageResourceSetter
; Function compile flags: /Ogtp
; File D:\git\src\IBK\IBK_DRFN\ProjSrc\SrcChartEx\ChartOCX\AddInManager\ChartCommonAddIn\YScaleSetUpAddInImp.cpp
; File C:\Program Files (x86)\Microsoft Visual Studio\2019\Community\VC\Tools\MSVC\14.29.30133\atlmfc\include\afx.inl
;	COMDAT ??_GCYScaleSetUpAddInImp@@UAEPAXI@Z
_TEXT	SEGMENT
___flags$ = 8						; size = 4
??_GCYScaleSetUpAddInImp@@UAEPAXI@Z PROC		; CYScaleSetUpAddInImp::`scalar deleting destructor', COMDAT
; _this$ = ecx
  00000	55		 push	 ebp
  00001	8b ec		 mov	 ebp, esp
; File D:\git\src\IBK\IBK_DRFN\ProjSrc\SrcChartEx\ChartOCX\AddInManager\ChartCommonAddIn\YScaleSetUpAddInImp.cpp

; 55   : {

  00003	56		 push	 esi
  00004	8b f1		 mov	 esi, ecx

; 56   : }

  00006	8d 4e 58	 lea	 ecx, DWORD PTR [esi+88]
  00009	c7 06 00 00 00
	00		 mov	 DWORD PTR [esi], OFFSET ??_7CYScaleSetUpAddInImp@@6BCIWUnknown@@@
  0000f	c7 46 08 00 00
	00 00		 mov	 DWORD PTR [esi+8], OFFSET ??_7CYScaleSetUpAddInImp@@6BIChartAddIn000000@@@
  00016	ff 15 00 00 00
	00		 call	 DWORD PTR __imp_??1?$CStringT@DV?$StrTraitMFC_DLL@DV?$ChTraitsCRT@D@ATL@@@@@ATL@@QAE@XZ
  0001c	8d 4e 54	 lea	 ecx, DWORD PTR [esi+84]
  0001f	ff 15 00 00 00
	00		 call	 DWORD PTR __imp_??1?$CStringT@DV?$StrTraitMFC_DLL@DV?$ChTraitsCRT@D@ATL@@@@@ATL@@QAE@XZ
  00025	8d 4e 50	 lea	 ecx, DWORD PTR [esi+80]
  00028	ff 15 00 00 00
	00		 call	 DWORD PTR __imp_??1?$CStringT@DV?$StrTraitMFC_DLL@DV?$ChTraitsCRT@D@ATL@@@@@ATL@@QAE@XZ
  0002e	8d 4e 4c	 lea	 ecx, DWORD PTR [esi+76]
  00031	ff 15 00 00 00
	00		 call	 DWORD PTR __imp_??1?$CStringT@DV?$StrTraitMFC_DLL@DV?$ChTraitsCRT@D@ATL@@@@@ATL@@QAE@XZ
  00037	8d 4e 48	 lea	 ecx, DWORD PTR [esi+72]
  0003a	ff 15 00 00 00
	00		 call	 DWORD PTR __imp_??1?$CStringT@DV?$StrTraitMFC_DLL@DV?$ChTraitsCRT@D@ATL@@@@@ATL@@QAE@XZ
  00040	8b ce		 mov	 ecx, esi
  00042	e8 00 00 00 00	 call	 ??1CChartAddInBase000000@@MAE@XZ ; CChartAddInBase000000::~CChartAddInBase000000
  00047	8b 45 08	 mov	 eax, DWORD PTR ___flags$[ebp]
  0004a	a8 01		 test	 al, 1
  0004c	74 22		 je	 SHORT $LN12@scalar
  0004e	a8 04		 test	 al, 4
  00050	75 10		 jne	 SHORT $LN3@scalar
; File C:\Program Files (x86)\Microsoft Visual Studio\2019\Community\VC\Tools\MSVC\14.29.30133\atlmfc\include\afx.inl

; 112  : 	{ ::operator delete(p); }

  00052	56		 push	 esi
  00053	e8 00 00 00 00	 call	 ??3@YAXPAX@Z		; operator delete
  00058	83 c4 04	 add	 esp, 4
  0005b	8b c6		 mov	 eax, esi
  0005d	5e		 pop	 esi
  0005e	5d		 pop	 ebp
  0005f	c2 04 00	 ret	 4
$LN3@scalar:
  00062	68 a0 00 00 00	 push	 160			; 000000a0H
  00067	56		 push	 esi
  00068	e8 00 00 00 00	 call	 ?__global_delete@@YAXPAXI@Z ; __global_delete
  0006d	83 c4 08	 add	 esp, 8
$LN12@scalar:
  00070	8b c6		 mov	 eax, esi
  00072	5e		 pop	 esi
  00073	5d		 pop	 ebp
  00074	c2 04 00	 ret	 4
??_GCYScaleSetUpAddInImp@@UAEPAXI@Z ENDP		; CYScaleSetUpAddInImp::`scalar deleting destructor'
_TEXT	ENDS
; Function compile flags: /Ogtp
; File D:\git\src\IBK\IBK_DRFN\ProjSrc\SrcChartEx\ChartOCX\AddInManager\ChartCommonAddIn\YScaleSetUpAddInImp.cpp
;	COMDAT ?OnSaveEnvironment@CYScaleSetUpAddInImp@@MAEXPAUIPropertyMap@@@Z
_TEXT	SEGMENT
_szEnvValue$ = -16					; size = 4
__$EHRec$ = -12						; size = 12
_strEnvValue$ = 8					; size = 4
_p_pIAddInEnvMap$ = 8					; size = 4
?OnSaveEnvironment@CYScaleSetUpAddInImp@@MAEXPAUIPropertyMap@@@Z PROC ; CYScaleSetUpAddInImp::OnSaveEnvironment, COMDAT
; _this$ = ecx

; 417  : {

  00000	55		 push	 ebp
  00001	8b ec		 mov	 ebp, esp
  00003	6a ff		 push	 -1
  00005	68 00 00 00 00	 push	 __ehhandler$?OnSaveEnvironment@CYScaleSetUpAddInImp@@MAEXPAUIPropertyMap@@@Z
  0000a	64 a1 00 00 00
	00		 mov	 eax, DWORD PTR fs:0
  00010	50		 push	 eax
  00011	51		 push	 ecx
  00012	56		 push	 esi
  00013	57		 push	 edi
  00014	a1 00 00 00 00	 mov	 eax, DWORD PTR ___security_cookie
  00019	33 c5		 xor	 eax, ebp
  0001b	50		 push	 eax
  0001c	8d 45 f4	 lea	 eax, DWORD PTR __$EHRec$[ebp]
  0001f	64 a3 00 00 00
	00		 mov	 DWORD PTR fs:0, eax
  00025	8b f9		 mov	 edi, ecx

; 418  : 	// 1. p_pIAddInEnvMap "YSCALE_SETUP"   .
; 419  : 	const char *szEnvValue = NULL;
; 420  : 	if( p_pIAddInEnvMap->Lookup( m_strAddInItemName, szEnvValue) ) return;

  00027	8b 75 08	 mov	 esi, DWORD PTR _p_pIAddInEnvMap$[ebp]
  0002a	8d 4d f0	 lea	 ecx, DWORD PTR _szEnvValue$[ebp]
  0002d	51		 push	 ecx
  0002e	ff 35 00 00 00
	00		 push	 DWORD PTR ?m_strAddInItemName@CYScaleSetUpAddInImp@@2V?$CStringT@DV?$StrTraitMFC_DLL@DV?$ChTraitsCRT@D@ATL@@@@@ATL@@A ; CYScaleSetUpAddInImp::m_strAddInItemName
  00034	8b ce		 mov	 ecx, esi
  00036	c7 45 f0 00 00
	00 00		 mov	 DWORD PTR _szEnvValue$[ebp], 0
  0003d	8b 06		 mov	 eax, DWORD PTR [esi]
  0003f	ff 50 0c	 call	 DWORD PTR [eax+12]
  00042	85 c0		 test	 eax, eax
  00044	75 5b		 jne	 SHORT $LN1@OnSaveEnvi

; 421  : 
; 422  : 	
; 423  : 	// 2. /  ,  /    .
; 424  : 	CString strEnvValue;

  00046	8d 4d 08	 lea	 ecx, DWORD PTR _strEnvValue$[ebp]
  00049	ff 15 00 00 00
	00		 call	 DWORD PTR __imp_??0?$CStringT@DV?$StrTraitMFC_DLL@DV?$ChTraitsCRT@D@ATL@@@@@ATL@@QAE@XZ

; 425  : 	strEnvValue.Format( "%d:%s:%s:%f:%f:%f:%f",

  0004f	0f 10 87 88 00
	00 00		 movups	 xmm0, XMMWORD PTR [edi+136]
  00056	83 ec 20	 sub	 esp, 32			; 00000020H
  00059	c7 45 fc 00 00
	00 00		 mov	 DWORD PTR __$EHRec$[ebp+8], 0
  00060	8d 45 08	 lea	 eax, DWORD PTR _strEnvValue$[ebp]
  00063	0f 11 44 24 10	 movups	 XMMWORD PTR [esp+16], xmm0
  00068	0f 10 47 78	 movups	 xmm0, XMMWORD PTR [edi+120]
  0006c	0f 11 04 24	 movups	 XMMWORD PTR [esp], xmm0
  00070	ff 77 50	 push	 DWORD PTR [edi+80]
  00073	ff 77 44	 push	 DWORD PTR [edi+68]
  00076	ff 77 38	 push	 DWORD PTR [edi+56]
  00079	68 00 00 00 00	 push	 OFFSET ??_C@_0BF@FAAOMLOD@?$CFd?3?$CFs?3?$CFs?3?$CFf?3?$CFf?3?$CFf?3?$CFf@
  0007e	50		 push	 eax
  0007f	ff 15 00 00 00
	00		 call	 DWORD PTR __imp_?Format@?$CStringT@DV?$StrTraitMFC_DLL@DV?$ChTraitsCRT@D@ATL@@@@@ATL@@QAAXPBDZZ

; 426  : 						m_eYScaleSetupApplyState,		\
; 427  : 						m_strStockCode,					\
; 428  : 						m_strFormat,					\
; 429  : 						m_dYScaleMaxValue,				\
; 430  : 						m_dYScaleMinValue,				\
; 431  : 						m_dYScaleMaxPercentValue,		\
; 432  : 						m_dYScaleMinPercentValue );
; 433  : 	
; 434  : 	p_pIAddInEnvMap->SetAt( m_strAddInItemName, strEnvValue);

  00085	8b 06		 mov	 eax, DWORD PTR [esi]
  00087	83 c4 34	 add	 esp, 52			; 00000034H
  0008a	8b ce		 mov	 ecx, esi
  0008c	ff 75 08	 push	 DWORD PTR _strEnvValue$[ebp]
  0008f	ff 35 00 00 00
	00		 push	 DWORD PTR ?m_strAddInItemName@CYScaleSetUpAddInImp@@2V?$CStringT@DV?$StrTraitMFC_DLL@DV?$ChTraitsCRT@D@ATL@@@@@ATL@@A ; CYScaleSetUpAddInImp::m_strAddInItemName
  00095	ff 50 14	 call	 DWORD PTR [eax+20]

; 435  : }

  00098	8d 4d 08	 lea	 ecx, DWORD PTR _strEnvValue$[ebp]
  0009b	ff 15 00 00 00
	00		 call	 DWORD PTR __imp_??1?$CStringT@DV?$StrTraitMFC_DLL@DV?$ChTraitsCRT@D@ATL@@@@@ATL@@QAE@XZ
$LN1@OnSaveEnvi:
  000a1	8b 4d f4	 mov	 ecx, DWORD PTR __$EHRec$[ebp]
  000a4	64 89 0d 00 00
	00 00		 mov	 DWORD PTR fs:0, ecx
  000ab	59		 pop	 ecx
  000ac	5f		 pop	 edi
  000ad	5e		 pop	 esi
  000ae	8b e5		 mov	 esp, ebp
  000b0	5d		 pop	 ebp
  000b1	c2 04 00	 ret	 4
_TEXT	ENDS
;	COMDAT text$x
text$x	SEGMENT
__unwindfunclet$?OnSaveEnvironment@CYScaleSetUpAddInImp@@MAEXPAUIPropertyMap@@@Z$0:
  00000	8d 4d 08	 lea	 ecx, DWORD PTR _strEnvValue$[ebp]
  00003	ff 25 00 00 00
	00		 jmp	 DWORD PTR __imp_??1?$CStringT@DV?$StrTraitMFC_DLL@DV?$ChTraitsCRT@D@ATL@@@@@ATL@@QAE@XZ
  00009	cc		 int	 3
  0000a	cc		 int	 3
  0000b	cc		 int	 3
  0000c	cc		 int	 3
  0000d	cc		 int	 3
__ehhandler$?OnSaveEnvironment@CYScaleSetUpAddInImp@@MAEXPAUIPropertyMap@@@Z:
  0000e	90		 npad	 1
  0000f	90		 npad	 1
  00010	8b 54 24 08	 mov	 edx, DWORD PTR [esp+8]
  00014	8d 42 0c	 lea	 eax, DWORD PTR [edx+12]
  00017	8b 4a f0	 mov	 ecx, DWORD PTR [edx-16]
  0001a	33 c8		 xor	 ecx, eax
  0001c	e8 00 00 00 00	 call	 @__security_check_cookie@4
  00021	b8 00 00 00 00	 mov	 eax, OFFSET __ehfuncinfo$?OnSaveEnvironment@CYScaleSetUpAddInImp@@MAEXPAUIPropertyMap@@@Z
  00026	e9 00 00 00 00	 jmp	 ___CxxFrameHandler3
text$x	ENDS
?OnSaveEnvironment@CYScaleSetUpAddInImp@@MAEXPAUIPropertyMap@@@Z ENDP ; CYScaleSetUpAddInImp::OnSaveEnvironment
; Function compile flags: /Ogtp
; File D:\git\src\IBK\IBK_DRFN\ProjSrc\SrcChartEx\ChartOCX\AddInManager\ChartCommonAddIn\YScaleSetUpAddInImp.cpp
; File C:\Program Files (x86)\Microsoft Visual Studio\2019\Community\VC\Tools\MSVC\14.29.30133\atlmfc\include\atlsimpstr.h
; File D:\git\src\IBK\IBK_DRFN\ProjSrc\SrcChartEx\ChartOCX\AddInManager\ChartCommonAddIn\YScaleSetUpAddInImp.cpp
; File C:\Program Files (x86)\Microsoft Visual Studio\2019\Community\VC\Tools\MSVC\14.29.30133\atlmfc\include\cstringt.h
; File D:\git\src\IBK\IBK_DRFN\ProjSrc\SrcChartEx\ChartOCX\AddInManager\ChartCommonAddIn\YScaleSetUpAddInImp.cpp
; File C:\Program Files (x86)\Microsoft Visual Studio\2019\Community\VC\Tools\MSVC\14.29.30133\atlmfc\include\cstringt.h
; File D:\git\src\IBK\IBK_DRFN\ProjSrc\SrcChartEx\ChartOCX\AddInManager\ChartCommonAddIn\YScaleSetUpAddInImp.cpp
;	COMDAT ?OnLoadEnvironment@CYScaleSetUpAddInImp@@MAEXPAUIPropertyMap@@@Z
_TEXT	SEGMENT
$T2 = -40						; size = 4
$T3 = -40						; size = 4
$T4 = -40						; size = 4
$T5 = -40						; size = 4
$T6 = -40						; size = 4
$T7 = -40						; size = 4
$T8 = -40						; size = 4
$T9 = -40						; size = 4
_strYScaleMaxValue$ = -36				; size = 4
_strYScaleMinValue$ = -32				; size = 4
_strYScaleMaxPercentValue$ = -28			; size = 4
_strYScaleMinPercentValue$ = -24			; size = 4
_szEnvValue$ = -20					; size = 4
_strYScaleMaxMinSetupType$ = -16			; size = 4
__$EHRec$ = -12						; size = 12
_strEnvValue$ = 8					; size = 4
_p_pIAddInEnvMap$ = 8					; size = 4
?OnLoadEnvironment@CYScaleSetUpAddInImp@@MAEXPAUIPropertyMap@@@Z PROC ; CYScaleSetUpAddInImp::OnLoadEnvironment, COMDAT
; _this$ = ecx

; 330  : {

  00000	55		 push	 ebp
  00001	8b ec		 mov	 ebp, esp
  00003	6a ff		 push	 -1
  00005	68 00 00 00 00	 push	 __ehhandler$?OnLoadEnvironment@CYScaleSetUpAddInImp@@MAEXPAUIPropertyMap@@@Z
  0000a	64 a1 00 00 00
	00		 mov	 eax, DWORD PTR fs:0
  00010	50		 push	 eax
  00011	83 ec 1c	 sub	 esp, 28			; 0000001cH
  00014	56		 push	 esi
  00015	57		 push	 edi
  00016	a1 00 00 00 00	 mov	 eax, DWORD PTR ___security_cookie
  0001b	33 c5		 xor	 eax, ebp
  0001d	50		 push	 eax
  0001e	8d 45 f4	 lea	 eax, DWORD PTR __$EHRec$[ebp]
  00021	64 a3 00 00 00
	00		 mov	 DWORD PTR fs:0, eax
  00027	8b f1		 mov	 esi, ecx

; 331  : 	// 1. p_pIAddInEnvMap "YSCALE_SETUP"   .
; 332  : 	const char *szEnvValue = NULL;
; 333  : 	if( !p_pIAddInEnvMap->Lookup( m_strAddInItemName, szEnvValue) )

  00029	8b 4d 08	 mov	 ecx, DWORD PTR _p_pIAddInEnvMap$[ebp]
  0002c	8d 55 ec	 lea	 edx, DWORD PTR _szEnvValue$[ebp]
  0002f	52		 push	 edx
  00030	ff 35 00 00 00
	00		 push	 DWORD PTR ?m_strAddInItemName@CYScaleSetUpAddInImp@@2V?$CStringT@DV?$StrTraitMFC_DLL@DV?$ChTraitsCRT@D@ATL@@@@@ATL@@A ; CYScaleSetUpAddInImp::m_strAddInItemName
  00036	c7 45 ec 00 00
	00 00		 mov	 DWORD PTR _szEnvValue$[ebp], 0
  0003d	8b 01		 mov	 eax, DWORD PTR [ecx]
  0003f	ff 50 0c	 call	 DWORD PTR [eax+12]
  00042	85 c0		 test	 eax, eax
  00044	0f 84 10 03 00
	00		 je	 $LN1@OnLoadEnvi

; 338  : 	CString strEnvValue = szEnvValue;

  0004a	ff 75 ec	 push	 DWORD PTR _szEnvValue$[ebp]
  0004d	8d 4d 08	 lea	 ecx, DWORD PTR _strEnvValue$[ebp]
  00050	ff 15 00 00 00
	00		 call	 DWORD PTR __imp_??0?$CStringT@DV?$StrTraitMFC_DLL@DV?$ChTraitsCRT@D@ATL@@@@@ATL@@QAE@PBD@Z
; File C:\Program Files (x86)\Microsoft Visual Studio\2019\Community\VC\Tools\MSVC\14.29.30133\atlmfc\include\atlsimpstr.h

; 519  : 		return( GetData()->nDataLength );

  00056	8b 45 08	 mov	 eax, DWORD PTR _strEnvValue$[ebp]
; File D:\git\src\IBK\IBK_DRFN\ProjSrc\SrcChartEx\ChartOCX\AddInManager\ChartCommonAddIn\YScaleSetUpAddInImp.cpp

; 338  : 	CString strEnvValue = szEnvValue;

  00059	c7 45 fc 00 00
	00 00		 mov	 DWORD PTR __$EHRec$[ebp+8], 0

; 339  : 	if( strEnvValue.GetLength() <= 0 )

  00060	83 78 f4 00	 cmp	 DWORD PTR [eax-12], 0
  00064	0f 8e e7 02 00
	00		 jle	 $LN28@OnLoadEnvi

; 344  : 	CString strYScaleMaxMinSetupType = strEnvValue.Mid( 0, 1 );

  0006a	6a 01		 push	 1
  0006c	6a 00		 push	 0
  0006e	8d 45 f0	 lea	 eax, DWORD PTR _strYScaleMaxMinSetupType$[ebp]
  00071	50		 push	 eax
  00072	8d 4d 08	 lea	 ecx, DWORD PTR _strEnvValue$[ebp]
  00075	ff 15 00 00 00
	00		 call	 DWORD PTR __imp_?Mid@?$CStringT@DV?$StrTraitMFC_DLL@DV?$ChTraitsCRT@D@ATL@@@@@ATL@@QBE?AV12@HH@Z
; File C:\Program Files (x86)\Microsoft Visual Studio\2019\Community\VC\Tools\MSVC\14.29.30133\atlmfc\include\cstringt.h

; 2486 : 		return(str1.Compare(psz2) == 0);

  0007b	68 00 00 00 00	 push	 OFFSET ??_C@_00CNPNBAHC@@
  00080	8d 4d f0	 lea	 ecx, DWORD PTR _strYScaleMaxMinSetupType$[ebp]
; File D:\git\src\IBK\IBK_DRFN\ProjSrc\SrcChartEx\ChartOCX\AddInManager\ChartCommonAddIn\YScaleSetUpAddInImp.cpp

; 344  : 	CString strYScaleMaxMinSetupType = strEnvValue.Mid( 0, 1 );

  00083	c6 45 fc 01	 mov	 BYTE PTR __$EHRec$[ebp+8], 1
; File C:\Program Files (x86)\Microsoft Visual Studio\2019\Community\VC\Tools\MSVC\14.29.30133\atlmfc\include\cstringt.h

; 2486 : 		return(str1.Compare(psz2) == 0);

  00087	ff 15 00 00 00
	00		 call	 DWORD PTR __imp_?Compare@?$CStringT@DV?$StrTraitMFC_DLL@DV?$ChTraitsCRT@D@ATL@@@@@ATL@@QBEHPBD@Z
  0008d	85 c0		 test	 eax, eax
; File D:\git\src\IBK\IBK_DRFN\ProjSrc\SrcChartEx\ChartOCX\AddInManager\ChartCommonAddIn\YScaleSetUpAddInImp.cpp

; 345  : 	if( strYScaleMaxMinSetupType == "" )	return;

  0008f	0f 84 b3 02 00
	00		 je	 $LN32@OnLoadEnvi

; 346  : 
; 347  : 	m_eYScaleSetupApplyState = (YSCALE_APPLY_STATE)atoi(strYScaleMaxMinSetupType);

  00095	ff 75 f0	 push	 DWORD PTR _strYScaleMaxMinSetupType$[ebp]
  00098	ff 15 00 00 00
	00		 call	 DWORD PTR __imp__atoi

; 348  : 	
; 349  : 	if( m_eYScaleSetupApplyState == YSCALE_APPLY_STATE::APPLY_PERCENT )
; 350  : 		m_nYScaleMaxMinSetupType = 1;
; 351  : 
; 352  : 	else
; 353  : 		m_nYScaleMaxMinSetupType = 0;
; 354  : 
; 355  : 	strEnvValue = strEnvValue.Mid(2);

  0009e	33 c9		 xor	 ecx, ecx
  000a0	89 46 38	 mov	 DWORD PTR [esi+56], eax
  000a3	83 c4 04	 add	 esp, 4
  000a6	83 f8 02	 cmp	 eax, 2
  000a9	8d 45 d8	 lea	 eax, DWORD PTR $T9[ebp]
  000ac	0f 94 c1	 sete	 cl
  000af	89 4e 70	 mov	 DWORD PTR [esi+112], ecx
  000b2	8d 4d 08	 lea	 ecx, DWORD PTR _strEnvValue$[ebp]
  000b5	6a 02		 push	 2
  000b7	50		 push	 eax
  000b8	ff 15 00 00 00
	00		 call	 DWORD PTR __imp_?Mid@?$CStringT@DV?$StrTraitMFC_DLL@DV?$ChTraitsCRT@D@ATL@@@@@ATL@@QBE?AV12@H@Z
  000be	50		 push	 eax
  000bf	8d 4d 08	 lea	 ecx, DWORD PTR _strEnvValue$[ebp]
  000c2	c6 45 fc 02	 mov	 BYTE PTR __$EHRec$[ebp+8], 2
  000c6	ff 15 00 00 00
	00		 call	 DWORD PTR __imp_??4?$CStringT@DV?$StrTraitMFC_DLL@DV?$ChTraitsCRT@D@ATL@@@@@ATL@@QAEAAV01@ABV01@@Z
  000cc	8d 4d d8	 lea	 ecx, DWORD PTR $T9[ebp]
  000cf	c6 45 fc 01	 mov	 BYTE PTR __$EHRec$[ebp+8], 1
  000d3	ff 15 00 00 00
	00		 call	 DWORD PTR __imp_??1?$CStringT@DV?$StrTraitMFC_DLL@DV?$ChTraitsCRT@D@ATL@@@@@ATL@@QAE@XZ

; 356  : 
; 357  : 
; 358  : 	// 4.  .
; 359  : 	int nIdx = strEnvValue.Find(":");

  000d9	6a 00		 push	 0
  000db	68 00 00 00 00	 push	 OFFSET ??_C@_01JLIPDDHJ@?3@
  000e0	8d 4d 08	 lea	 ecx, DWORD PTR _strEnvValue$[ebp]
  000e3	ff 15 00 00 00
	00		 call	 DWORD PTR __imp_?Find@?$CStringT@DV?$StrTraitMFC_DLL@DV?$ChTraitsCRT@D@ATL@@@@@ATL@@QBEHPBDH@Z
  000e9	8b f8		 mov	 edi, eax

; 360  : 	if( nIdx < 0 )	return;

  000eb	85 ff		 test	 edi, edi
  000ed	0f 88 55 02 00
	00		 js	 $LN32@OnLoadEnvi

; 361  : 	m_strStockCode = strEnvValue.Mid(0, nIdx);

  000f3	57		 push	 edi
  000f4	6a 00		 push	 0
  000f6	8d 45 d8	 lea	 eax, DWORD PTR $T8[ebp]
  000f9	50		 push	 eax
  000fa	8d 4d 08	 lea	 ecx, DWORD PTR _strEnvValue$[ebp]
  000fd	ff 15 00 00 00
	00		 call	 DWORD PTR __imp_?Mid@?$CStringT@DV?$StrTraitMFC_DLL@DV?$ChTraitsCRT@D@ATL@@@@@ATL@@QBE?AV12@HH@Z
  00103	50		 push	 eax
  00104	8d 4e 44	 lea	 ecx, DWORD PTR [esi+68]
  00107	c6 45 fc 03	 mov	 BYTE PTR __$EHRec$[ebp+8], 3
  0010b	ff 15 00 00 00
	00		 call	 DWORD PTR __imp_??4?$CStringT@DV?$StrTraitMFC_DLL@DV?$ChTraitsCRT@D@ATL@@@@@ATL@@QAEAAV01@ABV01@@Z
  00111	8d 4d d8	 lea	 ecx, DWORD PTR $T8[ebp]
  00114	c6 45 fc 01	 mov	 BYTE PTR __$EHRec$[ebp+8], 1
  00118	ff 15 00 00 00
	00		 call	 DWORD PTR __imp_??1?$CStringT@DV?$StrTraitMFC_DLL@DV?$ChTraitsCRT@D@ATL@@@@@ATL@@QAE@XZ

; 362  : 	
; 363  : 	strEnvValue = strEnvValue.Mid(nIdx+1);

  0011e	8d 47 01	 lea	 eax, DWORD PTR [edi+1]
  00121	50		 push	 eax
  00122	8d 45 d8	 lea	 eax, DWORD PTR $T7[ebp]
  00125	50		 push	 eax
  00126	8d 4d 08	 lea	 ecx, DWORD PTR _strEnvValue$[ebp]
  00129	ff 15 00 00 00
	00		 call	 DWORD PTR __imp_?Mid@?$CStringT@DV?$StrTraitMFC_DLL@DV?$ChTraitsCRT@D@ATL@@@@@ATL@@QBE?AV12@H@Z
  0012f	50		 push	 eax
  00130	8d 4d 08	 lea	 ecx, DWORD PTR _strEnvValue$[ebp]
  00133	c6 45 fc 04	 mov	 BYTE PTR __$EHRec$[ebp+8], 4
  00137	ff 15 00 00 00
	00		 call	 DWORD PTR __imp_??4?$CStringT@DV?$StrTraitMFC_DLL@DV?$ChTraitsCRT@D@ATL@@@@@ATL@@QAEAAV01@ABV01@@Z
  0013d	8d 4d d8	 lea	 ecx, DWORD PTR $T7[ebp]
  00140	c6 45 fc 01	 mov	 BYTE PTR __$EHRec$[ebp+8], 1
  00144	ff 15 00 00 00
	00		 call	 DWORD PTR __imp_??1?$CStringT@DV?$StrTraitMFC_DLL@DV?$ChTraitsCRT@D@ATL@@@@@ATL@@QAE@XZ

; 364  : 
; 365  : 	// 5.  foramt
; 366  : 	nIdx = strEnvValue.Find(":", 1);

  0014a	6a 01		 push	 1
  0014c	68 00 00 00 00	 push	 OFFSET ??_C@_01JLIPDDHJ@?3@
  00151	8d 4d 08	 lea	 ecx, DWORD PTR _strEnvValue$[ebp]
  00154	ff 15 00 00 00
	00		 call	 DWORD PTR __imp_?Find@?$CStringT@DV?$StrTraitMFC_DLL@DV?$ChTraitsCRT@D@ATL@@@@@ATL@@QBEHPBDH@Z
  0015a	8b f8		 mov	 edi, eax

; 367  : 	if( nIdx < 0 )	return;

  0015c	85 ff		 test	 edi, edi
  0015e	0f 88 e4 01 00
	00		 js	 $LN32@OnLoadEnvi

; 368  : 	m_strFormat = strEnvValue.Mid(0, nIdx);

  00164	57		 push	 edi
  00165	6a 00		 push	 0
  00167	8d 45 d8	 lea	 eax, DWORD PTR $T6[ebp]
  0016a	50		 push	 eax
  0016b	8d 4d 08	 lea	 ecx, DWORD PTR _strEnvValue$[ebp]
  0016e	ff 15 00 00 00
	00		 call	 DWORD PTR __imp_?Mid@?$CStringT@DV?$StrTraitMFC_DLL@DV?$ChTraitsCRT@D@ATL@@@@@ATL@@QBE?AV12@HH@Z
  00174	50		 push	 eax
  00175	8d 4e 50	 lea	 ecx, DWORD PTR [esi+80]
  00178	c6 45 fc 05	 mov	 BYTE PTR __$EHRec$[ebp+8], 5
  0017c	ff 15 00 00 00
	00		 call	 DWORD PTR __imp_??4?$CStringT@DV?$StrTraitMFC_DLL@DV?$ChTraitsCRT@D@ATL@@@@@ATL@@QAEAAV01@ABV01@@Z
  00182	8d 4d d8	 lea	 ecx, DWORD PTR $T6[ebp]
  00185	c6 45 fc 01	 mov	 BYTE PTR __$EHRec$[ebp+8], 1
  00189	ff 15 00 00 00
	00		 call	 DWORD PTR __imp_??1?$CStringT@DV?$StrTraitMFC_DLL@DV?$ChTraitsCRT@D@ATL@@@@@ATL@@QAE@XZ

; 369  : 
; 370  : 
; 371  : 	strEnvValue = strEnvValue.Mid(nIdx+1);

  0018f	8d 47 01	 lea	 eax, DWORD PTR [edi+1]
  00192	50		 push	 eax
  00193	8d 45 d8	 lea	 eax, DWORD PTR $T5[ebp]
  00196	50		 push	 eax
  00197	8d 4d 08	 lea	 ecx, DWORD PTR _strEnvValue$[ebp]
  0019a	ff 15 00 00 00
	00		 call	 DWORD PTR __imp_?Mid@?$CStringT@DV?$StrTraitMFC_DLL@DV?$ChTraitsCRT@D@ATL@@@@@ATL@@QBE?AV12@H@Z
  001a0	50		 push	 eax
  001a1	8d 4d 08	 lea	 ecx, DWORD PTR _strEnvValue$[ebp]
  001a4	c6 45 fc 06	 mov	 BYTE PTR __$EHRec$[ebp+8], 6
  001a8	ff 15 00 00 00
	00		 call	 DWORD PTR __imp_??4?$CStringT@DV?$StrTraitMFC_DLL@DV?$ChTraitsCRT@D@ATL@@@@@ATL@@QAEAAV01@ABV01@@Z
  001ae	8d 4d d8	 lea	 ecx, DWORD PTR $T5[ebp]
  001b1	c6 45 fc 01	 mov	 BYTE PTR __$EHRec$[ebp+8], 1
  001b5	ff 15 00 00 00
	00		 call	 DWORD PTR __imp_??1?$CStringT@DV?$StrTraitMFC_DLL@DV?$ChTraitsCRT@D@ATL@@@@@ATL@@QAE@XZ

; 372  : 
; 373  : 	// 6.    .
; 374  : 	nIdx = strEnvValue.Find(":", 1);

  001bb	6a 01		 push	 1
  001bd	68 00 00 00 00	 push	 OFFSET ??_C@_01JLIPDDHJ@?3@
  001c2	8d 4d 08	 lea	 ecx, DWORD PTR _strEnvValue$[ebp]
  001c5	ff 15 00 00 00
	00		 call	 DWORD PTR __imp_?Find@?$CStringT@DV?$StrTraitMFC_DLL@DV?$ChTraitsCRT@D@ATL@@@@@ATL@@QBEHPBDH@Z
  001cb	8b f8		 mov	 edi, eax

; 375  : 	if( nIdx < 0 )	return;

  001cd	85 ff		 test	 edi, edi
  001cf	0f 88 73 01 00
	00		 js	 $LN32@OnLoadEnvi

; 376  : 	CString strYScaleMaxValue = strEnvValue.Mid(0, nIdx);

  001d5	57		 push	 edi
  001d6	6a 00		 push	 0
  001d8	8d 45 dc	 lea	 eax, DWORD PTR _strYScaleMaxValue$[ebp]
  001db	50		 push	 eax
  001dc	8d 4d 08	 lea	 ecx, DWORD PTR _strEnvValue$[ebp]
  001df	ff 15 00 00 00
	00		 call	 DWORD PTR __imp_?Mid@?$CStringT@DV?$StrTraitMFC_DLL@DV?$ChTraitsCRT@D@ATL@@@@@ATL@@QBE?AV12@HH@Z

; 377  : 	m_dYScaleMaxValue = atof(strYScaleMaxValue);

  001e5	ff 75 dc	 push	 DWORD PTR _strYScaleMaxValue$[ebp]
  001e8	c6 45 fc 07	 mov	 BYTE PTR __$EHRec$[ebp+8], 7
  001ec	ff 15 00 00 00
	00		 call	 DWORD PTR __imp__atof
  001f2	83 c4 04	 add	 esp, 4

; 378  : 
; 379  : 	strEnvValue = strEnvValue.Mid(nIdx+1);

  001f5	8d 47 01	 lea	 eax, DWORD PTR [edi+1]
  001f8	8d 4d 08	 lea	 ecx, DWORD PTR _strEnvValue$[ebp]
  001fb	dd 5e 78	 fstp	 QWORD PTR [esi+120]
  001fe	50		 push	 eax
  001ff	8d 45 d8	 lea	 eax, DWORD PTR $T4[ebp]
  00202	50		 push	 eax
  00203	ff 15 00 00 00
	00		 call	 DWORD PTR __imp_?Mid@?$CStringT@DV?$StrTraitMFC_DLL@DV?$ChTraitsCRT@D@ATL@@@@@ATL@@QBE?AV12@H@Z
  00209	50		 push	 eax
  0020a	8d 4d 08	 lea	 ecx, DWORD PTR _strEnvValue$[ebp]
  0020d	c6 45 fc 08	 mov	 BYTE PTR __$EHRec$[ebp+8], 8
  00211	ff 15 00 00 00
	00		 call	 DWORD PTR __imp_??4?$CStringT@DV?$StrTraitMFC_DLL@DV?$ChTraitsCRT@D@ATL@@@@@ATL@@QAEAAV01@ABV01@@Z
  00217	8d 4d d8	 lea	 ecx, DWORD PTR $T4[ebp]
  0021a	c6 45 fc 07	 mov	 BYTE PTR __$EHRec$[ebp+8], 7
  0021e	ff 15 00 00 00
	00		 call	 DWORD PTR __imp_??1?$CStringT@DV?$StrTraitMFC_DLL@DV?$ChTraitsCRT@D@ATL@@@@@ATL@@QAE@XZ

; 380  : 	
; 381  : 
; 382  : 	// 7.    .
; 383  : 	nIdx = strEnvValue.Find(":", 1);

  00224	6a 01		 push	 1
  00226	68 00 00 00 00	 push	 OFFSET ??_C@_01JLIPDDHJ@?3@
  0022b	8d 4d 08	 lea	 ecx, DWORD PTR _strEnvValue$[ebp]
  0022e	ff 15 00 00 00
	00		 call	 DWORD PTR __imp_?Find@?$CStringT@DV?$StrTraitMFC_DLL@DV?$ChTraitsCRT@D@ATL@@@@@ATL@@QBEHPBDH@Z
  00234	8b f8		 mov	 edi, eax

; 384  : 	if( nIdx < 0 )	return;

  00236	85 ff		 test	 edi, edi
  00238	0f 88 01 01 00
	00		 js	 $LN33@OnLoadEnvi

; 385  : 	CString strYScaleMinValue = strEnvValue.Mid(0, nIdx);

  0023e	57		 push	 edi
  0023f	6a 00		 push	 0
  00241	8d 45 e0	 lea	 eax, DWORD PTR _strYScaleMinValue$[ebp]
  00244	50		 push	 eax
  00245	8d 4d 08	 lea	 ecx, DWORD PTR _strEnvValue$[ebp]
  00248	ff 15 00 00 00
	00		 call	 DWORD PTR __imp_?Mid@?$CStringT@DV?$StrTraitMFC_DLL@DV?$ChTraitsCRT@D@ATL@@@@@ATL@@QBE?AV12@HH@Z

; 386  : 	m_dYScaleMinValue = atof(strYScaleMinValue);

  0024e	ff 75 e0	 push	 DWORD PTR _strYScaleMinValue$[ebp]
  00251	c6 45 fc 09	 mov	 BYTE PTR __$EHRec$[ebp+8], 9
  00255	ff 15 00 00 00
	00		 call	 DWORD PTR __imp__atof
  0025b	83 c4 04	 add	 esp, 4

; 387  : 
; 388  : 	strEnvValue = strEnvValue.Mid(nIdx+1);

  0025e	8d 47 01	 lea	 eax, DWORD PTR [edi+1]
  00261	8d 4d 08	 lea	 ecx, DWORD PTR _strEnvValue$[ebp]
  00264	dd 9e 80 00 00
	00		 fstp	 QWORD PTR [esi+128]
  0026a	50		 push	 eax
  0026b	8d 45 d8	 lea	 eax, DWORD PTR $T3[ebp]
  0026e	50		 push	 eax
  0026f	ff 15 00 00 00
	00		 call	 DWORD PTR __imp_?Mid@?$CStringT@DV?$StrTraitMFC_DLL@DV?$ChTraitsCRT@D@ATL@@@@@ATL@@QBE?AV12@H@Z
  00275	50		 push	 eax
  00276	8d 4d 08	 lea	 ecx, DWORD PTR _strEnvValue$[ebp]
  00279	c6 45 fc 0a	 mov	 BYTE PTR __$EHRec$[ebp+8], 10 ; 0000000aH
  0027d	ff 15 00 00 00
	00		 call	 DWORD PTR __imp_??4?$CStringT@DV?$StrTraitMFC_DLL@DV?$ChTraitsCRT@D@ATL@@@@@ATL@@QAEAAV01@ABV01@@Z
  00283	8d 4d d8	 lea	 ecx, DWORD PTR $T3[ebp]
  00286	c6 45 fc 09	 mov	 BYTE PTR __$EHRec$[ebp+8], 9
  0028a	ff 15 00 00 00
	00		 call	 DWORD PTR __imp_??1?$CStringT@DV?$StrTraitMFC_DLL@DV?$ChTraitsCRT@D@ATL@@@@@ATL@@QAE@XZ

; 389  : 
; 390  : 
; 391  : 	// 8.      .
; 392  : 	nIdx = strEnvValue.Find(":", 1);

  00290	6a 01		 push	 1
  00292	68 00 00 00 00	 push	 OFFSET ??_C@_01JLIPDDHJ@?3@
  00297	8d 4d 08	 lea	 ecx, DWORD PTR _strEnvValue$[ebp]
  0029a	ff 15 00 00 00
	00		 call	 DWORD PTR __imp_?Find@?$CStringT@DV?$StrTraitMFC_DLL@DV?$ChTraitsCRT@D@ATL@@@@@ATL@@QBEHPBDH@Z
  002a0	8b f8		 mov	 edi, eax

; 393  : 	if( nIdx < 0 )	return;

  002a2	85 ff		 test	 edi, edi
  002a4	0f 88 8c 00 00
	00		 js	 $LN34@OnLoadEnvi

; 394  : 	CString strYScaleMaxPercentValue = strEnvValue.Mid(0, nIdx);

  002aa	57		 push	 edi
  002ab	6a 00		 push	 0
  002ad	8d 45 e4	 lea	 eax, DWORD PTR _strYScaleMaxPercentValue$[ebp]
  002b0	50		 push	 eax
  002b1	8d 4d 08	 lea	 ecx, DWORD PTR _strEnvValue$[ebp]
  002b4	ff 15 00 00 00
	00		 call	 DWORD PTR __imp_?Mid@?$CStringT@DV?$StrTraitMFC_DLL@DV?$ChTraitsCRT@D@ATL@@@@@ATL@@QBE?AV12@HH@Z

; 395  : 	m_dYScaleMaxPercentValue = atof(strYScaleMaxPercentValue);

  002ba	ff 75 e4	 push	 DWORD PTR _strYScaleMaxPercentValue$[ebp]
  002bd	c6 45 fc 0b	 mov	 BYTE PTR __$EHRec$[ebp+8], 11 ; 0000000bH
  002c1	ff 15 00 00 00
	00		 call	 DWORD PTR __imp__atof
  002c7	83 c4 04	 add	 esp, 4

; 396  : 
; 397  : 	strEnvValue = strEnvValue.Mid(nIdx+1);

  002ca	8d 47 01	 lea	 eax, DWORD PTR [edi+1]
  002cd	8d 4d 08	 lea	 ecx, DWORD PTR _strEnvValue$[ebp]
  002d0	dd 9e 88 00 00
	00		 fstp	 QWORD PTR [esi+136]
  002d6	50		 push	 eax
  002d7	8d 45 d8	 lea	 eax, DWORD PTR $T2[ebp]
  002da	50		 push	 eax
  002db	ff 15 00 00 00
	00		 call	 DWORD PTR __imp_?Mid@?$CStringT@DV?$StrTraitMFC_DLL@DV?$ChTraitsCRT@D@ATL@@@@@ATL@@QBE?AV12@H@Z
  002e1	50		 push	 eax
  002e2	8d 4d 08	 lea	 ecx, DWORD PTR _strEnvValue$[ebp]
  002e5	c6 45 fc 0c	 mov	 BYTE PTR __$EHRec$[ebp+8], 12 ; 0000000cH
  002e9	ff 15 00 00 00
	00		 call	 DWORD PTR __imp_??4?$CStringT@DV?$StrTraitMFC_DLL@DV?$ChTraitsCRT@D@ATL@@@@@ATL@@QAEAAV01@ABV01@@Z
  002ef	8d 4d d8	 lea	 ecx, DWORD PTR $T2[ebp]
  002f2	c6 45 fc 0b	 mov	 BYTE PTR __$EHRec$[ebp+8], 11 ; 0000000bH
  002f6	ff 15 00 00 00
	00		 call	 DWORD PTR __imp_??1?$CStringT@DV?$StrTraitMFC_DLL@DV?$ChTraitsCRT@D@ATL@@@@@ATL@@QAE@XZ

; 398  : 
; 399  : 
; 400  : 	// 9.      .
; 401  : 	if( strEnvValue.GetLength() <= 0 )	return;

  002fc	8b 45 08	 mov	 eax, DWORD PTR _strEnvValue$[ebp]
  002ff	83 78 f4 00	 cmp	 DWORD PTR [eax-12], 0
  00303	7e 28		 jle	 SHORT $LN35@OnLoadEnvi

; 402  : 	CString strYScaleMinPercentValue = strEnvValue;

  00305	8d 45 08	 lea	 eax, DWORD PTR _strEnvValue$[ebp]
  00308	50		 push	 eax
  00309	8d 4d e8	 lea	 ecx, DWORD PTR _strYScaleMinPercentValue$[ebp]
  0030c	ff 15 00 00 00
	00		 call	 DWORD PTR __imp_??0?$CStringT@DV?$StrTraitMFC_DLL@DV?$ChTraitsCRT@D@ATL@@@@@ATL@@QAE@ABV01@@Z

; 403  : 	m_dYScaleMinPercentValue = atof(strYScaleMinPercentValue);

  00312	ff 75 e8	 push	 DWORD PTR _strYScaleMinPercentValue$[ebp]
  00315	ff 15 00 00 00
	00		 call	 DWORD PTR __imp__atof
  0031b	83 c4 04	 add	 esp, 4

; 404  : }

  0031e	8d 4d e8	 lea	 ecx, DWORD PTR _strYScaleMinPercentValue$[ebp]
  00321	dd 9e 90 00 00
	00		 fstp	 QWORD PTR [esi+144]
  00327	ff 15 00 00 00
	00		 call	 DWORD PTR __imp_??1?$CStringT@DV?$StrTraitMFC_DLL@DV?$ChTraitsCRT@D@ATL@@@@@ATL@@QAE@XZ
$LN35@OnLoadEnvi:
  0032d	8d 4d e4	 lea	 ecx, DWORD PTR _strYScaleMaxPercentValue$[ebp]
  00330	ff 15 00 00 00
	00		 call	 DWORD PTR __imp_??1?$CStringT@DV?$StrTraitMFC_DLL@DV?$ChTraitsCRT@D@ATL@@@@@ATL@@QAE@XZ
$LN34@OnLoadEnvi:
  00336	8d 4d e0	 lea	 ecx, DWORD PTR _strYScaleMinValue$[ebp]
  00339	ff 15 00 00 00
	00		 call	 DWORD PTR __imp_??1?$CStringT@DV?$StrTraitMFC_DLL@DV?$ChTraitsCRT@D@ATL@@@@@ATL@@QAE@XZ
$LN33@OnLoadEnvi:
  0033f	8d 4d dc	 lea	 ecx, DWORD PTR _strYScaleMaxValue$[ebp]
  00342	ff 15 00 00 00
	00		 call	 DWORD PTR __imp_??1?$CStringT@DV?$StrTraitMFC_DLL@DV?$ChTraitsCRT@D@ATL@@@@@ATL@@QAE@XZ
$LN32@OnLoadEnvi:
  00348	8d 4d f0	 lea	 ecx, DWORD PTR _strYScaleMaxMinSetupType$[ebp]
  0034b	ff 15 00 00 00
	00		 call	 DWORD PTR __imp_??1?$CStringT@DV?$StrTraitMFC_DLL@DV?$ChTraitsCRT@D@ATL@@@@@ATL@@QAE@XZ
$LN28@OnLoadEnvi:
  00351	8d 4d 08	 lea	 ecx, DWORD PTR _strEnvValue$[ebp]
  00354	ff 15 00 00 00
	00		 call	 DWORD PTR __imp_??1?$CStringT@DV?$StrTraitMFC_DLL@DV?$ChTraitsCRT@D@ATL@@@@@ATL@@QAE@XZ
$LN1@OnLoadEnvi:
  0035a	8b 4d f4	 mov	 ecx, DWORD PTR __$EHRec$[ebp]
  0035d	64 89 0d 00 00
	00 00		 mov	 DWORD PTR fs:0, ecx
  00364	59		 pop	 ecx
  00365	5f		 pop	 edi
  00366	5e		 pop	 esi
  00367	8b e5		 mov	 esp, ebp
  00369	5d		 pop	 ebp
  0036a	c2 04 00	 ret	 4
_TEXT	ENDS
;	COMDAT text$x
text$x	SEGMENT
__unwindfunclet$?OnLoadEnvironment@CYScaleSetUpAddInImp@@MAEXPAUIPropertyMap@@@Z$0:
  00000	8d 4d 08	 lea	 ecx, DWORD PTR _strEnvValue$[ebp]
  00003	ff 25 00 00 00
	00		 jmp	 DWORD PTR __imp_??1?$CStringT@DV?$StrTraitMFC_DLL@DV?$ChTraitsCRT@D@ATL@@@@@ATL@@QAE@XZ
__unwindfunclet$?OnLoadEnvironment@CYScaleSetUpAddInImp@@MAEXPAUIPropertyMap@@@Z$1:
  00009	8d 4d f0	 lea	 ecx, DWORD PTR _strYScaleMaxMinSetupType$[ebp]
  0000c	ff 25 00 00 00
	00		 jmp	 DWORD PTR __imp_??1?$CStringT@DV?$StrTraitMFC_DLL@DV?$ChTraitsCRT@D@ATL@@@@@ATL@@QAE@XZ
__unwindfunclet$?OnLoadEnvironment@CYScaleSetUpAddInImp@@MAEXPAUIPropertyMap@@@Z$2:
  00012	8d 4d d8	 lea	 ecx, DWORD PTR $T9[ebp]
  00015	ff 25 00 00 00
	00		 jmp	 DWORD PTR __imp_??1?$CStringT@DV?$StrTraitMFC_DLL@DV?$ChTraitsCRT@D@ATL@@@@@ATL@@QAE@XZ
__unwindfunclet$?OnLoadEnvironment@CYScaleSetUpAddInImp@@MAEXPAUIPropertyMap@@@Z$3:
  0001b	8d 4d d8	 lea	 ecx, DWORD PTR $T8[ebp]
  0001e	ff 25 00 00 00
	00		 jmp	 DWORD PTR __imp_??1?$CStringT@DV?$StrTraitMFC_DLL@DV?$ChTraitsCRT@D@ATL@@@@@ATL@@QAE@XZ
__unwindfunclet$?OnLoadEnvironment@CYScaleSetUpAddInImp@@MAEXPAUIPropertyMap@@@Z$4:
  00024	8d 4d d8	 lea	 ecx, DWORD PTR $T7[ebp]
  00027	ff 25 00 00 00
	00		 jmp	 DWORD PTR __imp_??1?$CStringT@DV?$StrTraitMFC_DLL@DV?$ChTraitsCRT@D@ATL@@@@@ATL@@QAE@XZ
__unwindfunclet$?OnLoadEnvironment@CYScaleSetUpAddInImp@@MAEXPAUIPropertyMap@@@Z$5:
  0002d	8d 4d d8	 lea	 ecx, DWORD PTR $T6[ebp]
  00030	ff 25 00 00 00
	00		 jmp	 DWORD PTR __imp_??1?$CStringT@DV?$StrTraitMFC_DLL@DV?$ChTraitsCRT@D@ATL@@@@@ATL@@QAE@XZ
__unwindfunclet$?OnLoadEnvironment@CYScaleSetUpAddInImp@@MAEXPAUIPropertyMap@@@Z$6:
  00036	8d 4d d8	 lea	 ecx, DWORD PTR $T5[ebp]
  00039	ff 25 00 00 00
	00		 jmp	 DWORD PTR __imp_??1?$CStringT@DV?$StrTraitMFC_DLL@DV?$ChTraitsCRT@D@ATL@@@@@ATL@@QAE@XZ
__unwindfunclet$?OnLoadEnvironment@CYScaleSetUpAddInImp@@MAEXPAUIPropertyMap@@@Z$7:
  0003f	8d 4d dc	 lea	 ecx, DWORD PTR _strYScaleMaxValue$[ebp]
  00042	ff 25 00 00 00
	00		 jmp	 DWORD PTR __imp_??1?$CStringT@DV?$StrTraitMFC_DLL@DV?$ChTraitsCRT@D@ATL@@@@@ATL@@QAE@XZ
__unwindfunclet$?OnLoadEnvironment@CYScaleSetUpAddInImp@@MAEXPAUIPropertyMap@@@Z$8:
  00048	8d 4d d8	 lea	 ecx, DWORD PTR $T4[ebp]
  0004b	ff 25 00 00 00
	00		 jmp	 DWORD PTR __imp_??1?$CStringT@DV?$StrTraitMFC_DLL@DV?$ChTraitsCRT@D@ATL@@@@@ATL@@QAE@XZ
__unwindfunclet$?OnLoadEnvironment@CYScaleSetUpAddInImp@@MAEXPAUIPropertyMap@@@Z$9:
  00051	8d 4d e0	 lea	 ecx, DWORD PTR _strYScaleMinValue$[ebp]
  00054	ff 25 00 00 00
	00		 jmp	 DWORD PTR __imp_??1?$CStringT@DV?$StrTraitMFC_DLL@DV?$ChTraitsCRT@D@ATL@@@@@ATL@@QAE@XZ
__unwindfunclet$?OnLoadEnvironment@CYScaleSetUpAddInImp@@MAEXPAUIPropertyMap@@@Z$10:
  0005a	8d 4d d8	 lea	 ecx, DWORD PTR $T3[ebp]
  0005d	ff 25 00 00 00
	00		 jmp	 DWORD PTR __imp_??1?$CStringT@DV?$StrTraitMFC_DLL@DV?$ChTraitsCRT@D@ATL@@@@@ATL@@QAE@XZ
__unwindfunclet$?OnLoadEnvironment@CYScaleSetUpAddInImp@@MAEXPAUIPropertyMap@@@Z$11:
  00063	8d 4d e4	 lea	 ecx, DWORD PTR _strYScaleMaxPercentValue$[ebp]
  00066	ff 25 00 00 00
	00		 jmp	 DWORD PTR __imp_??1?$CStringT@DV?$StrTraitMFC_DLL@DV?$ChTraitsCRT@D@ATL@@@@@ATL@@QAE@XZ
__unwindfunclet$?OnLoadEnvironment@CYScaleSetUpAddInImp@@MAEXPAUIPropertyMap@@@Z$12:
  0006c	8d 4d d8	 lea	 ecx, DWORD PTR $T2[ebp]
  0006f	ff 25 00 00 00
	00		 jmp	 DWORD PTR __imp_??1?$CStringT@DV?$StrTraitMFC_DLL@DV?$ChTraitsCRT@D@ATL@@@@@ATL@@QAE@XZ
  00075	cc		 int	 3
  00076	cc		 int	 3
  00077	cc		 int	 3
  00078	cc		 int	 3
  00079	cc		 int	 3
__ehhandler$?OnLoadEnvironment@CYScaleSetUpAddInImp@@MAEXPAUIPropertyMap@@@Z:
  0007a	90		 npad	 1
  0007b	90		 npad	 1
  0007c	8b 54 24 08	 mov	 edx, DWORD PTR [esp+8]
  00080	8d 42 0c	 lea	 eax, DWORD PTR [edx+12]
  00083	8b 4a d8	 mov	 ecx, DWORD PTR [edx-40]
  00086	33 c8		 xor	 ecx, eax
  00088	e8 00 00 00 00	 call	 @__security_check_cookie@4
  0008d	b8 00 00 00 00	 mov	 eax, OFFSET __ehfuncinfo$?OnLoadEnvironment@CYScaleSetUpAddInImp@@MAEXPAUIPropertyMap@@@Z
  00092	e9 00 00 00 00	 jmp	 ___CxxFrameHandler3
text$x	ENDS
?OnLoadEnvironment@CYScaleSetUpAddInImp@@MAEXPAUIPropertyMap@@@Z ENDP ; CYScaleSetUpAddInImp::OnLoadEnvironment
; Function compile flags: /Ogtp
; File D:\git\src\IBK\IBK_DRFN\ProjSrc\SrcChartEx\ChartOCX\AddInManager\ChartCommonAddIn\YScaleSetUpAddInImp.cpp
;	COMDAT ?OnToolCommand@CYScaleSetUpAddInImp@@MAEXHH@Z
_TEXT	SEGMENT
_p_nToolType$ = 8					; size = 4
_p_nCmdOption$ = 12					; size = 4
?OnToolCommand@CYScaleSetUpAddInImp@@MAEXHH@Z PROC	; CYScaleSetUpAddInImp::OnToolCommand, COMDAT
; _this$ = ecx

; 201  : {

  00000	55		 push	 ebp
  00001	8b ec		 mov	 ebp, esp

; 202  : 	if( p_nToolType != CToolOptionInfo::T_PRICE_YSCALE_SETUP) return;

  00003	83 7d 08 69	 cmp	 DWORD PTR _p_nToolType$[ebp], 105 ; 00000069H
  00007	75 14		 jne	 SHORT $LN1@OnToolComm

; 203  : 	InvokeAddInStr( "YSCALE_SETUP_LOAD", "");

  00009	8b 01		 mov	 eax, DWORD PTR [ecx]
  0000b	c7 45 0c 00 00
	00 00		 mov	 DWORD PTR _p_nCmdOption$[ebp], OFFSET ??_C@_00CNPNBAHC@@
  00012	c7 45 08 00 00
	00 00		 mov	 DWORD PTR _p_nToolType$[ebp], OFFSET ??_C@_0BC@NCHAJJPH@YSCALE_SETUP_LOAD@

; 204  : }

  00019	5d		 pop	 ebp

; 203  : 	InvokeAddInStr( "YSCALE_SETUP_LOAD", "");

  0001a	ff 60 1c	 jmp	 DWORD PTR [eax+28]
$LN1@OnToolComm:

; 204  : }

  0001d	5d		 pop	 ebp
  0001e	c2 08 00	 ret	 8
?OnToolCommand@CYScaleSetUpAddInImp@@MAEXHH@Z ENDP	; CYScaleSetUpAddInImp::OnToolCommand
_TEXT	ENDS
; Function compile flags: /Ogtp
; File D:\git\src\IBK\IBK_DRFN\ProjSrc\SrcChartEx\ChartOCX\AddInManager\ChartCommonAddIn\YScaleSetUpAddInImp.cpp
; File D:\git\src\IBK\IBK_DRFN\ProjSrc\SrcChartEx\ChartOCX\AddInManager\Include_AddIn\I000000\_IString.h
; File D:\git\src\IBK\IBK_DRFN\ProjSrc\SrcChartEx\ChartOCX\AddInManager\ChartCommonAddIn\YScaleSetUpAddInImp.cpp
; File D:\git\src\IBK\IBK_DRFN\ProjSrc\SrcChartEx\ChartOCX\AddInManager\Include_AddIn\I000000\_IString.h
; File D:\git\src\IBK\IBK_DRFN\ProjSrc\SrcChartEx\ChartOCX\AddInManager\ChartCommonAddIn\YScaleSetUpAddInImp.cpp
; File D:\git\src\IBK\IBK_DRFN\ProjSrc\SrcChartEx\ChartOCX\AddInManager\Include_AddIn\I000000\_IString.h
; File D:\git\src\IBK\IBK_DRFN\ProjSrc\SrcChartEx\ChartOCX\AddInManager\ChartCommonAddIn\YScaleSetUpAddInImp.cpp
; File C:\Program Files (x86)\Microsoft Visual Studio\2019\Community\VC\Tools\MSVC\14.29.30133\atlmfc\include\cstringt.h
; File D:\git\src\IBK\IBK_DRFN\ProjSrc\SrcChartEx\ChartOCX\AddInManager\ChartCommonAddIn\YScaleSetUpAddInImp.cpp
; File C:\Program Files (x86)\Microsoft Visual Studio\2019\Community\VC\Tools\MSVC\14.29.30133\atlmfc\include\cstringt.h
; File D:\git\src\IBK\IBK_DRFN\ProjSrc\SrcChartEx\ChartOCX\AddInManager\ChartCommonAddIn\YScaleSetUpAddInImp.cpp
; File C:\Program Files (x86)\Microsoft Visual Studio\2019\Community\VC\Tools\MSVC\14.29.30133\atlmfc\include\cstringt.h
; File D:\git\src\IBK\IBK_DRFN\ProjSrc\SrcChartEx\ChartOCX\AddInManager\ChartCommonAddIn\YScaleSetUpAddInImp.cpp
; File D:\git\src\IBK\IBK_DRFN\ProjSrc\SrcChartEx\ChartOCX\AddInManager\Include_AddIn\I000000\_IString.h
; File D:\git\src\IBK\IBK_DRFN\ProjSrc\SrcChartEx\ChartOCX\AddInManager\ChartCommonAddIn\YScaleSetUpAddInImp.cpp
;	COMDAT ?OnPacketDataMultiItem@CYScaleSetUpAddInImp@@MAEXPBD0H@Z
_TEXT	SEGMENT
_szHelpMsg$ = -68					; size = 8
_nG$ = -60						; size = 4
_nR$ = -56						; size = 4
_nC$ = -52						; size = 4
_szGraphName$ = -48					; size = 8
_strYScale$2 = -44					; size = 4
$T3 = -40						; size = 4
$T4 = -36						; size = 4
$T5 = -32						; size = 4
$T6 = -28						; size = 4
_strPacketName$7 = -24					; size = 4
_strValue$8 = -20					; size = 4
_strPacket$9 = -16					; size = 4
__$EHRec$ = -12						; size = 12
_strData$10 = 8						; size = 4
_lpszRQ$ = 8						; size = 4
_p_szPacketNames$ = 12					; size = 4
_p_bWithReset$ = 16					; size = 4
?OnPacketDataMultiItem@CYScaleSetUpAddInImp@@MAEXPBD0H@Z PROC ; CYScaleSetUpAddInImp::OnPacketDataMultiItem, COMDAT
; _this$ = ecx

; 74   : {

  00000	55		 push	 ebp
  00001	8b ec		 mov	 ebp, esp
  00003	6a ff		 push	 -1
  00005	68 00 00 00 00	 push	 __ehhandler$?OnPacketDataMultiItem@CYScaleSetUpAddInImp@@MAEXPBD0H@Z
  0000a	64 a1 00 00 00
	00		 mov	 eax, DWORD PTR fs:0
  00010	50		 push	 eax
  00011	83 ec 38	 sub	 esp, 56			; 00000038H
  00014	53		 push	 ebx
  00015	56		 push	 esi
  00016	57		 push	 edi
  00017	a1 00 00 00 00	 mov	 eax, DWORD PTR ___security_cookie
  0001c	33 c5		 xor	 eax, ebp
  0001e	50		 push	 eax
  0001f	8d 45 f4	 lea	 eax, DWORD PTR __$EHRec$[ebp]
  00022	64 a3 00 00 00
	00		 mov	 DWORD PTR fs:0, eax
  00028	8b f1		 mov	 esi, ecx

; 75   : 	if( !m_pIDefaultPacketManager || strcmp( lpszRQ, "DEFAULT")) return;

  0002a	8b 7e 18	 mov	 edi, DWORD PTR [esi+24]
  0002d	85 ff		 test	 edi, edi
  0002f	0f 84 2f 04 00
	00		 je	 $LN83@OnPacketDa
  00035	8b 45 08	 mov	 eax, DWORD PTR _lpszRQ$[ebp]
  00038	b9 00 00 00 00	 mov	 ecx, OFFSET ??_C@_07MGCPDNLD@DEFAULT@
  0003d	0f 1f 00	 npad	 3
$LL94@OnPacketDa:
  00040	8a 10		 mov	 dl, BYTE PTR [eax]
  00042	3a 11		 cmp	 dl, BYTE PTR [ecx]
  00044	75 1a		 jne	 SHORT $LN95@OnPacketDa
  00046	84 d2		 test	 dl, dl
  00048	74 12		 je	 SHORT $LN96@OnPacketDa
  0004a	8a 50 01	 mov	 dl, BYTE PTR [eax+1]
  0004d	3a 51 01	 cmp	 dl, BYTE PTR [ecx+1]
  00050	75 0e		 jne	 SHORT $LN95@OnPacketDa
  00052	83 c0 02	 add	 eax, 2
  00055	83 c1 02	 add	 ecx, 2
  00058	84 d2		 test	 dl, dl
  0005a	75 e4		 jne	 SHORT $LL94@OnPacketDa
$LN96@OnPacketDa:
  0005c	33 c0		 xor	 eax, eax
  0005e	eb 05		 jmp	 SHORT $LN97@OnPacketDa
$LN95@OnPacketDa:
  00060	1b c0		 sbb	 eax, eax
  00062	83 c8 01	 or	 eax, 1
$LN97@OnPacketDa:
  00065	85 c0		 test	 eax, eax
  00067	0f 85 f7 03 00
	00		 jne	 $LN83@OnPacketDa
; File D:\git\src\IBK\IBK_DRFN\ProjSrc\SrcChartEx\ChartOCX\AddInManager\Include_AddIn\I000000\_IString.h

; 39   : 		m_pIStrData = p_pIString;	// Do not AddRef(). Because It must be Return Value.

  0006d	89 45 c0	 mov	 DWORD PTR _szHelpMsg$[ebp+4], eax

; 41   : 		else m_szData = NULL;

  00070	89 45 bc	 mov	 DWORD PTR _szHelpMsg$[ebp], eax
; File D:\git\src\IBK\IBK_DRFN\ProjSrc\SrcChartEx\ChartOCX\AddInManager\ChartCommonAddIn\YScaleSetUpAddInImp.cpp

; 79   : 	ILPCSTR szHelpMsg = NULL;

  00073	89 45 fc	 mov	 DWORD PTR __$EHRec$[ebp+8], eax

; 80   : 	// 20081016  >>
; 81   : 	BOOL bSuccess = m_pIDefaultPacketManager->GetHelpMessageItem( "BOUNDMARK", szHelpMsg );

  00076	8d 4d bc	 lea	 ecx, DWORD PTR _szHelpMsg$[ebp]
  00079	8b 07		 mov	 eax, DWORD PTR [edi]
  0007b	51		 push	 ecx
  0007c	68 00 00 00 00	 push	 OFFSET ??_C@_09OFFEPIIO@BOUNDMARK@
  00081	8b cf		 mov	 ecx, edi
  00083	ff 50 18	 call	 DWORD PTR [eax+24]

; 82   : 	if(bSuccess)

  00086	85 c0		 test	 eax, eax
  00088	74 10		 je	 SHORT $LN6@OnPacketDa

; 83   : 	{
; 84   : 		// 2.  AddIn   .
; 85   : 		ResetYScaleSetUp( szHelpMsg );

  0008a	ff 75 bc	 push	 DWORD PTR _szHelpMsg$[ebp]
  0008d	8d 4e f8	 lea	 ecx, DWORD PTR [esi-8]
  00090	e8 00 00 00 00	 call	 ?ResetYScaleSetUp@CYScaleSetUpAddInImp@@IAEXPBD@Z ; CYScaleSetUpAddInImp::ResetYScaleSetUp

; 86   : 	}

  00095	e9 e6 01 00 00	 jmp	 $LN8@OnPacketDa
$LN6@OnPacketDa:

; 87   : 	else
; 88   : 	{		
; 89   : 		bSuccess = m_pIDefaultPacketManager->GetHelpMessageItem( "PREVPRICE", szHelpMsg );

  0009a	8b 4e 18	 mov	 ecx, DWORD PTR [esi+24]
  0009d	8d 55 bc	 lea	 edx, DWORD PTR _szHelpMsg$[ebp]
  000a0	52		 push	 edx
  000a1	68 00 00 00 00	 push	 OFFSET ??_C@_09IPCOGDAH@PREVPRICE@
  000a6	8b 01		 mov	 eax, DWORD PTR [ecx]
  000a8	ff 50 18	 call	 DWORD PTR [eax+24]

; 90   : 		if(bSuccess)

  000ab	85 c0		 test	 eax, eax
  000ad	0f 84 cd 01 00
	00		 je	 $LN8@OnPacketDa

; 91   : 		{ 
; 92   : 			CString strYScale;

  000b3	8d 4d d4	 lea	 ecx, DWORD PTR _strYScale$2[ebp]
  000b6	ff 15 00 00 00
	00		 call	 DWORD PTR __imp_??0?$CStringT@DV?$StrTraitMFC_DLL@DV?$ChTraitsCRT@D@ATL@@@@@ATL@@QAE@XZ

; 93   : 			CString strData, strPacket, strPacketName, strValue;

  000bc	8d 4d 08	 lea	 ecx, DWORD PTR _strData$10[ebp]
  000bf	ff 15 00 00 00
	00		 call	 DWORD PTR __imp_??0?$CStringT@DV?$StrTraitMFC_DLL@DV?$ChTraitsCRT@D@ATL@@@@@ATL@@QAE@XZ
  000c5	8d 4d f0	 lea	 ecx, DWORD PTR _strPacket$9[ebp]
  000c8	ff 15 00 00 00
	00		 call	 DWORD PTR __imp_??0?$CStringT@DV?$StrTraitMFC_DLL@DV?$ChTraitsCRT@D@ATL@@@@@ATL@@QAE@XZ
  000ce	8d 4d e8	 lea	 ecx, DWORD PTR _strPacketName$7[ebp]
  000d1	ff 15 00 00 00
	00		 call	 DWORD PTR __imp_??0?$CStringT@DV?$StrTraitMFC_DLL@DV?$ChTraitsCRT@D@ATL@@@@@ATL@@QAE@XZ
  000d7	8d 4d ec	 lea	 ecx, DWORD PTR _strValue$8[ebp]
  000da	ff 15 00 00 00
	00		 call	 DWORD PTR __imp_??0?$CStringT@DV?$StrTraitMFC_DLL@DV?$ChTraitsCRT@D@ATL@@@@@ATL@@QAE@XZ

; 94   : 			strData.Format("%s", szHelpMsg);

  000e0	ff 75 c0	 push	 DWORD PTR _szHelpMsg$[ebp+4]
  000e3	8d 45 08	 lea	 eax, DWORD PTR _strData$10[ebp]
  000e6	c6 45 fc 05	 mov	 BYTE PTR __$EHRec$[ebp+8], 5
  000ea	ff 75 bc	 push	 DWORD PTR _szHelpMsg$[ebp]
  000ed	68 00 00 00 00	 push	 OFFSET ??_C@_02DKCKIIND@?$CFs@
  000f2	50		 push	 eax
  000f3	ff 15 00 00 00
	00		 call	 DWORD PTR __imp_?Format@?$CStringT@DV?$StrTraitMFC_DLL@DV?$ChTraitsCRT@D@ATL@@@@@ATL@@QAAXPBDZZ
  000f9	83 c4 10	 add	 esp, 16			; 00000010H
  000fc	0f 1f 40 00	 npad	 4
$LL2@OnPacketDa:

; 97   : 			{
; 98   : 				nPos = strData.Find("|");

  00100	6a 00		 push	 0
  00102	68 00 00 00 00	 push	 OFFSET ??_C@_01DNKMNLPK@?$HM@
  00107	8d 4d 08	 lea	 ecx, DWORD PTR _strData$10[ebp]
  0010a	ff 15 00 00 00
	00		 call	 DWORD PTR __imp_?Find@?$CStringT@DV?$StrTraitMFC_DLL@DV?$ChTraitsCRT@D@ATL@@@@@ATL@@QBEHPBDH@Z
  00110	8b f8		 mov	 edi, eax

; 99   : 				if( nPos == -1)

  00112	83 ff ff	 cmp	 edi, -1
  00115	75 18		 jne	 SHORT $LN9@OnPacketDa

; 100  : 				{
; 101  : 					strPacket = strData;

  00117	8d 45 08	 lea	 eax, DWORD PTR _strData$10[ebp]
  0011a	50		 push	 eax
  0011b	8d 4d f0	 lea	 ecx, DWORD PTR _strPacket$9[ebp]
  0011e	ff 15 00 00 00
	00		 call	 DWORD PTR __imp_??4?$CStringT@DV?$StrTraitMFC_DLL@DV?$ChTraitsCRT@D@ATL@@@@@ATL@@QAEAAV01@ABV01@@Z

; 102  : 					strData.Empty();

  00124	8d 4d 08	 lea	 ecx, DWORD PTR _strData$10[ebp]
  00127	ff 15 00 00 00
	00		 call	 DWORD PTR __imp_?Empty@?$CSimpleStringT@D$00@ATL@@QAEXXZ

; 103  : 				}

  0012d	eb 57		 jmp	 SHORT $LN10@OnPacketDa
$LN9@OnPacketDa:

; 104  : 				else
; 105  : 				{
; 106  : 					strPacket = strData.Mid(0, nPos);

  0012f	57		 push	 edi
  00130	6a 00		 push	 0
  00132	8d 45 e4	 lea	 eax, DWORD PTR $T6[ebp]
  00135	50		 push	 eax
  00136	8d 4d 08	 lea	 ecx, DWORD PTR _strData$10[ebp]
  00139	ff 15 00 00 00
	00		 call	 DWORD PTR __imp_?Mid@?$CStringT@DV?$StrTraitMFC_DLL@DV?$ChTraitsCRT@D@ATL@@@@@ATL@@QBE?AV12@HH@Z
  0013f	50		 push	 eax
  00140	8d 4d f0	 lea	 ecx, DWORD PTR _strPacket$9[ebp]
  00143	c6 45 fc 06	 mov	 BYTE PTR __$EHRec$[ebp+8], 6
  00147	ff 15 00 00 00
	00		 call	 DWORD PTR __imp_??4?$CStringT@DV?$StrTraitMFC_DLL@DV?$ChTraitsCRT@D@ATL@@@@@ATL@@QAEAAV01@ABV01@@Z
  0014d	8d 4d e4	 lea	 ecx, DWORD PTR $T6[ebp]
  00150	c6 45 fc 05	 mov	 BYTE PTR __$EHRec$[ebp+8], 5
  00154	ff 15 00 00 00
	00		 call	 DWORD PTR __imp_??1?$CStringT@DV?$StrTraitMFC_DLL@DV?$ChTraitsCRT@D@ATL@@@@@ATL@@QAE@XZ

; 107  : 					strData = strData.Mid(nPos + 1);

  0015a	8d 47 01	 lea	 eax, DWORD PTR [edi+1]
  0015d	50		 push	 eax
  0015e	8d 45 e0	 lea	 eax, DWORD PTR $T5[ebp]
  00161	50		 push	 eax
  00162	8d 4d 08	 lea	 ecx, DWORD PTR _strData$10[ebp]
  00165	ff 15 00 00 00
	00		 call	 DWORD PTR __imp_?Mid@?$CStringT@DV?$StrTraitMFC_DLL@DV?$ChTraitsCRT@D@ATL@@@@@ATL@@QBE?AV12@H@Z
  0016b	50		 push	 eax
  0016c	8d 4d 08	 lea	 ecx, DWORD PTR _strData$10[ebp]
  0016f	c6 45 fc 07	 mov	 BYTE PTR __$EHRec$[ebp+8], 7
  00173	ff 15 00 00 00
	00		 call	 DWORD PTR __imp_??4?$CStringT@DV?$StrTraitMFC_DLL@DV?$ChTraitsCRT@D@ATL@@@@@ATL@@QAEAAV01@ABV01@@Z
  00179	8d 4d e0	 lea	 ecx, DWORD PTR $T5[ebp]
  0017c	c6 45 fc 05	 mov	 BYTE PTR __$EHRec$[ebp+8], 5
  00180	ff 15 00 00 00
	00		 call	 DWORD PTR __imp_??1?$CStringT@DV?$StrTraitMFC_DLL@DV?$ChTraitsCRT@D@ATL@@@@@ATL@@QAE@XZ
$LN10@OnPacketDa:

; 108  : 				}
; 109  : 				nPos = strPacket.Find(":");

  00186	6a 00		 push	 0
  00188	68 00 00 00 00	 push	 OFFSET ??_C@_01JLIPDDHJ@?3@
  0018d	8d 4d f0	 lea	 ecx, DWORD PTR _strPacket$9[ebp]
  00190	ff 15 00 00 00
	00		 call	 DWORD PTR __imp_?Find@?$CStringT@DV?$StrTraitMFC_DLL@DV?$ChTraitsCRT@D@ATL@@@@@ATL@@QBEHPBDH@Z
  00196	8b f8		 mov	 edi, eax

; 110  : 				strPacketName = strPacket.Mid(0, nPos);

  00198	8d 4d f0	 lea	 ecx, DWORD PTR _strPacket$9[ebp]
  0019b	57		 push	 edi
  0019c	6a 00		 push	 0
  0019e	8d 45 dc	 lea	 eax, DWORD PTR $T4[ebp]
  001a1	50		 push	 eax
  001a2	ff 15 00 00 00
	00		 call	 DWORD PTR __imp_?Mid@?$CStringT@DV?$StrTraitMFC_DLL@DV?$ChTraitsCRT@D@ATL@@@@@ATL@@QBE?AV12@HH@Z
  001a8	50		 push	 eax
  001a9	8d 4d e8	 lea	 ecx, DWORD PTR _strPacketName$7[ebp]
  001ac	c6 45 fc 08	 mov	 BYTE PTR __$EHRec$[ebp+8], 8
  001b0	ff 15 00 00 00
	00		 call	 DWORD PTR __imp_??4?$CStringT@DV?$StrTraitMFC_DLL@DV?$ChTraitsCRT@D@ATL@@@@@ATL@@QAEAAV01@ABV01@@Z
  001b6	8d 4d dc	 lea	 ecx, DWORD PTR $T4[ebp]
  001b9	c6 45 fc 05	 mov	 BYTE PTR __$EHRec$[ebp+8], 5
  001bd	ff 15 00 00 00
	00		 call	 DWORD PTR __imp_??1?$CStringT@DV?$StrTraitMFC_DLL@DV?$ChTraitsCRT@D@ATL@@@@@ATL@@QAE@XZ

; 111  : 				strValue = strPacket.Mid(nPos + 1);

  001c3	8d 47 01	 lea	 eax, DWORD PTR [edi+1]
  001c6	50		 push	 eax
  001c7	8d 45 d8	 lea	 eax, DWORD PTR $T3[ebp]
  001ca	50		 push	 eax
  001cb	8d 4d f0	 lea	 ecx, DWORD PTR _strPacket$9[ebp]
  001ce	ff 15 00 00 00
	00		 call	 DWORD PTR __imp_?Mid@?$CStringT@DV?$StrTraitMFC_DLL@DV?$ChTraitsCRT@D@ATL@@@@@ATL@@QBE?AV12@H@Z
  001d4	50		 push	 eax
  001d5	8d 4d ec	 lea	 ecx, DWORD PTR _strValue$8[ebp]
  001d8	c6 45 fc 09	 mov	 BYTE PTR __$EHRec$[ebp+8], 9
  001dc	ff 15 00 00 00
	00		 call	 DWORD PTR __imp_??4?$CStringT@DV?$StrTraitMFC_DLL@DV?$ChTraitsCRT@D@ATL@@@@@ATL@@QAEAAV01@ABV01@@Z
  001e2	8d 4d d8	 lea	 ecx, DWORD PTR $T3[ebp]
  001e5	c6 45 fc 05	 mov	 BYTE PTR __$EHRec$[ebp+8], 5
  001e9	ff 15 00 00 00
	00		 call	 DWORD PTR __imp_??1?$CStringT@DV?$StrTraitMFC_DLL@DV?$ChTraitsCRT@D@ATL@@@@@ATL@@QAE@XZ

; 112  : 				strValue.TrimLeft();strValue.TrimRight();

  001ef	8d 4d ec	 lea	 ecx, DWORD PTR _strValue$8[ebp]
  001f2	ff 15 00 00 00
	00		 call	 DWORD PTR __imp_?TrimLeft@?$CStringT@DV?$StrTraitMFC_DLL@DV?$ChTraitsCRT@D@ATL@@@@@ATL@@QAEAAV12@XZ
  001f8	8d 4d ec	 lea	 ecx, DWORD PTR _strValue$8[ebp]
  001fb	ff 15 00 00 00
	00		 call	 DWORD PTR __imp_?TrimRight@?$CStringT@DV?$StrTraitMFC_DLL@DV?$ChTraitsCRT@D@ATL@@@@@ATL@@QAEAAV12@XZ

; 113  : 				if(strPacketName.Compare(_MTOL0(_MTEXT(C0_CLOSE))) == 0)

  00201	a1 54 00 00 00	 mov	 eax, DWORD PTR ?g_iMetaTable@@3VIMetaTable@@A+84
  00206	b9 00 00 00 00	 mov	 ecx, OFFSET ?g_iMetaTable@@3VIMetaTable@@A ; g_iMetaTable
  0020b	6a 00		 push	 0
  0020d	ff 70 14	 push	 DWORD PTR [eax+20]
  00210	6a 00		 push	 0
  00212	ff 76 0c	 push	 DWORD PTR [esi+12]
  00215	e8 00 00 00 00	 call	 ?GetLanguageText@IMetaTable@@QAEPBDPAUHWND__@@W4E_CODEPAGE@1@PBDH@Z ; IMetaTable::GetLanguageText
  0021a	50		 push	 eax
  0021b	8d 4d e8	 lea	 ecx, DWORD PTR _strPacketName$7[ebp]
  0021e	ff 15 00 00 00
	00		 call	 DWORD PTR __imp_?Compare@?$CStringT@DV?$StrTraitMFC_DLL@DV?$ChTraitsCRT@D@ATL@@@@@ATL@@QBEHPBD@Z
  00224	85 c0		 test	 eax, eax
  00226	74 0b		 je	 SHORT $LN87@OnPacketDa

; 95   : 			int nPos = 0, nIdx = 0;
; 96   : 			while(nPos != -1)

  00228	83 ff ff	 cmp	 edi, -1
  0022b	0f 85 cf fe ff
	ff		 jne	 $LL2@OnPacketDa

; 113  : 				if(strPacketName.Compare(_MTOL0(_MTEXT(C0_CLOSE))) == 0)

  00231	eb 1c		 jmp	 SHORT $LN3@OnPacketDa
$LN87@OnPacketDa:

; 114  : 				{
; 115  : 					m_strGraphName = strPacketName;

  00233	8d 45 e8	 lea	 eax, DWORD PTR _strPacketName$7[ebp]
  00236	50		 push	 eax
  00237	8d 4e 40	 lea	 ecx, DWORD PTR [esi+64]
  0023a	ff 15 00 00 00
	00		 call	 DWORD PTR __imp_??4?$CStringT@DV?$StrTraitMFC_DLL@DV?$ChTraitsCRT@D@ATL@@@@@ATL@@QAEAAV01@ABV01@@Z

; 116  : 					m_dYesterdayClosePrice = atof(strValue);

  00240	ff 75 ec	 push	 DWORD PTR _strValue$8[ebp]
  00243	ff 15 00 00 00
	00		 call	 DWORD PTR __imp__atof
  00249	dd 5e 58	 fstp	 QWORD PTR [esi+88]
  0024c	83 c4 04	 add	 esp, 4
$LN3@OnPacketDa:

; 117  : 					break;
; 118  : 				}
; 119  : 			}
; 120  : 		}

  0024f	8d 4d ec	 lea	 ecx, DWORD PTR _strValue$8[ebp]
  00252	ff 15 00 00 00
	00		 call	 DWORD PTR __imp_??1?$CStringT@DV?$StrTraitMFC_DLL@DV?$ChTraitsCRT@D@ATL@@@@@ATL@@QAE@XZ
  00258	8d 4d e8	 lea	 ecx, DWORD PTR _strPacketName$7[ebp]
  0025b	ff 15 00 00 00
	00		 call	 DWORD PTR __imp_??1?$CStringT@DV?$StrTraitMFC_DLL@DV?$ChTraitsCRT@D@ATL@@@@@ATL@@QAE@XZ
  00261	8d 4d f0	 lea	 ecx, DWORD PTR _strPacket$9[ebp]
  00264	ff 15 00 00 00
	00		 call	 DWORD PTR __imp_??1?$CStringT@DV?$StrTraitMFC_DLL@DV?$ChTraitsCRT@D@ATL@@@@@ATL@@QAE@XZ
  0026a	8d 4d 08	 lea	 ecx, DWORD PTR _strData$10[ebp]
  0026d	ff 15 00 00 00
	00		 call	 DWORD PTR __imp_??1?$CStringT@DV?$StrTraitMFC_DLL@DV?$ChTraitsCRT@D@ATL@@@@@ATL@@QAE@XZ
  00273	8d 4d d4	 lea	 ecx, DWORD PTR _strYScale$2[ebp]
  00276	c6 45 fc 00	 mov	 BYTE PTR __$EHRec$[ebp+8], 0
  0027a	ff 15 00 00 00
	00		 call	 DWORD PTR __imp_??1?$CStringT@DV?$StrTraitMFC_DLL@DV?$ChTraitsCRT@D@ATL@@@@@ATL@@QAE@XZ
$LN8@OnPacketDa:

; 121  : 	}
; 122  : 	// 20081016  <<
; 123  : 	
; 124  : 	// 2.  AddIn   .
; 125  : //	ResetYScaleSetUp( szHelpMsg );
; 126  : 
; 127  : 	// YScale         .
; 128  : 	if( m_eYScaleSetupApplyState == YSCALE_APPLY_STATE::APPLY_CANCEL )

  00280	83 7e 38 00	 cmp	 DWORD PTR [esi+56], 0
  00284	75 12		 jne	 SHORT $LN12@OnPacketDa

; 129  : 	{
; 130  : 		m_strPrevStockCode = m_strStockCode;

  00286	8d 46 44	 lea	 eax, DWORD PTR [esi+68]
  00289	50		 push	 eax
  0028a	8d 4e 48	 lea	 ecx, DWORD PTR [esi+72]
  0028d	ff 15 00 00 00
	00		 call	 DWORD PTR __imp_??4?$CStringT@DV?$StrTraitMFC_DLL@DV?$ChTraitsCRT@D@ATL@@@@@ATL@@QAEAAV01@ABV01@@Z
  00293	e9 b8 01 00 00	 jmp	 $LN79@OnPacketDa
$LN12@OnPacketDa:

; 135  : 	ILPCSTR szGraphName = m_pIChartManager->FindFirstIndicator( _MTEXT( C2_PRICE_CHART), nR, nC, m_nVertScaleGroupIndex, nG, "DEFAULT");

  00298	8b 4e 1c	 mov	 ecx, DWORD PTR [esi+28]
  0029b	8d 7d c4	 lea	 edi, DWORD PTR _nG$[ebp]
  0029e	68 00 00 00 00	 push	 OFFSET ??_C@_07MGCPDNLD@DEFAULT@
  002a3	57		 push	 edi
  002a4	8d 46 3c	 lea	 eax, DWORD PTR [esi+60]
  002a7	8b 11		 mov	 edx, DWORD PTR [ecx]
  002a9	50		 push	 eax
  002aa	8d 45 cc	 lea	 eax, DWORD PTR _nC$[ebp]
  002ad	50		 push	 eax
  002ae	8d 45 c8	 lea	 eax, DWORD PTR _nR$[ebp]
  002b1	50		 push	 eax
  002b2	a1 54 00 00 00	 mov	 eax, DWORD PTR ?g_iMetaTable@@3VIMetaTable@@A+84
  002b7	ff b0 28 03 00
	00		 push	 DWORD PTR [eax+808]
  002bd	ff 52 70	 call	 DWORD PTR [edx+112]
; File D:\git\src\IBK\IBK_DRFN\ProjSrc\SrcChartEx\ChartOCX\AddInManager\Include_AddIn\I000000\_IString.h

; 39   : 		m_pIStrData = p_pIString;	// Do not AddRef(). Because It must be Return Value.

  002c0	8b d8		 mov	 ebx, eax
  002c2	89 5d d4	 mov	 DWORD PTR _szGraphName$[ebp+4], ebx

; 40   : 		if( m_pIStrData) m_szData = m_pIStrData->GetData();

  002c5	85 db		 test	 ebx, ebx
  002c7	74 09		 je	 SHORT $LN54@OnPacketDa
  002c9	8b 13		 mov	 edx, DWORD PTR [ebx]
  002cb	8b cb		 mov	 ecx, ebx
  002cd	ff 52 10	 call	 DWORD PTR [edx+16]
  002d0	eb 02		 jmp	 SHORT $LN99@OnPacketDa
$LN54@OnPacketDa:

; 41   : 		else m_szData = NULL;

  002d2	33 c0		 xor	 eax, eax
$LN99@OnPacketDa:
; File D:\git\src\IBK\IBK_DRFN\ProjSrc\SrcChartEx\ChartOCX\AddInManager\ChartCommonAddIn\YScaleSetUpAddInImp.cpp

; 135  : 	ILPCSTR szGraphName = m_pIChartManager->FindFirstIndicator( _MTEXT( C2_PRICE_CHART), nR, nC, m_nVertScaleGroupIndex, nG, "DEFAULT");

  002d4	89 45 d0	 mov	 DWORD PTR _szGraphName$[ebp], eax
  002d7	c6 45 fc 0b	 mov	 BYTE PTR __$EHRec$[ebp+8], 11 ; 0000000bH
; File D:\git\src\IBK\IBK_DRFN\ProjSrc\SrcChartEx\ChartOCX\AddInManager\Include_AddIn\I000000\_IString.h

; 57   : 		if( !m_szData) return TRUE;

  002db	85 c0		 test	 eax, eax
  002dd	0f 84 5f 01 00
	00		 je	 $LN42@OnPacketDa
; File D:\git\src\IBK\IBK_DRFN\ProjSrc\SrcChartEx\ChartOCX\AddInManager\ChartCommonAddIn\YScaleSetUpAddInImp.cpp

; 136  : 	if( szGraphName.IsEmpty()) return;

  002e3	80 38 00	 cmp	 BYTE PTR [eax], 0
  002e6	0f 84 56 01 00
	00		 je	 $LN42@OnPacketDa

; 137  : 
; 138  : 	// Use Block Interface
; 139  : 	IBlock *pIBlock = NULL;
; 140  : 	pIBlock = m_pIChartManager->GetBlock( nR, nC );

  002ec	8b 4e 1c	 mov	 ecx, DWORD PTR [esi+28]
  002ef	ff 75 cc	 push	 DWORD PTR _nC$[ebp]
  002f2	ff 75 c8	 push	 DWORD PTR _nR$[ebp]
  002f5	8b 01		 mov	 eax, DWORD PTR [ecx]
  002f7	ff 50 38	 call	 DWORD PTR [eax+56]
  002fa	8b f8		 mov	 edi, eax

; 141  : 	if( !pIBlock) return;

  002fc	85 ff		 test	 edi, edi
  002fe	0f 84 3e 01 00
	00		 je	 $LN42@OnPacketDa

; 144  : 	if( m_strPrevStockCode == "" )		m_strPrevStockCode = m_strStockCode;

  00304	8d 4e 48	 lea	 ecx, DWORD PTR [esi+72]
; File C:\Program Files (x86)\Microsoft Visual Studio\2019\Community\VC\Tools\MSVC\14.29.30133\atlmfc\include\cstringt.h

; 2486 : 		return(str1.Compare(psz2) == 0);

  00307	68 00 00 00 00	 push	 OFFSET ??_C@_00CNPNBAHC@@
  0030c	ff 15 00 00 00
	00		 call	 DWORD PTR __imp_?Compare@?$CStringT@DV?$StrTraitMFC_DLL@DV?$ChTraitsCRT@D@ATL@@@@@ATL@@QBEHPBD@Z
  00312	85 c0		 test	 eax, eax
; File D:\git\src\IBK\IBK_DRFN\ProjSrc\SrcChartEx\ChartOCX\AddInManager\ChartCommonAddIn\YScaleSetUpAddInImp.cpp

; 144  : 	if( m_strPrevStockCode == "" )		m_strPrevStockCode = m_strStockCode;

  00314	75 0d		 jne	 SHORT $LN92@OnPacketDa
  00316	8d 46 44	 lea	 eax, DWORD PTR [esi+68]
  00319	50		 push	 eax
  0031a	8d 4e 48	 lea	 ecx, DWORD PTR [esi+72]
  0031d	ff 15 00 00 00
	00		 call	 DWORD PTR __imp_??4?$CStringT@DV?$StrTraitMFC_DLL@DV?$ChTraitsCRT@D@ATL@@@@@ATL@@QAEAAV01@ABV01@@Z
$LN92@OnPacketDa:

; 145  : 
; 146  : 	if( m_eYScaleSetupApplyState == YSCALE_APPLY_STATE::APPLY_PERCENT )

  00323	83 7e 38 02	 cmp	 DWORD PTR [esi+56], 2
  00327	75 47		 jne	 SHORT $LN93@OnPacketDa

; 147  : 	{
; 148  : 		m_dYScaleMaxValue =	m_dYesterdayClosePrice * ( 1 + m_dYScaleMaxPercentValue / 100 );

  00329	f2 0f 10 86 88
	00 00 00	 movsd	 xmm0, QWORD PTR [esi+136]
  00331	f2 0f 5e 05 00
	00 00 00	 divsd	 xmm0, QWORD PTR __real@4059000000000000
  00339	f2 0f 58 05 00
	00 00 00	 addsd	 xmm0, QWORD PTR __real@3ff0000000000000
  00341	f2 0f 59 46 58	 mulsd	 xmm0, QWORD PTR [esi+88]
  00346	f2 0f 11 46 78	 movsd	 QWORD PTR [esi+120], xmm0

; 149  : 		m_dYScaleMinValue =	m_dYesterdayClosePrice * ( 1 + m_dYScaleMinPercentValue / 100 );

  0034b	f2 0f 10 86 90
	00 00 00	 movsd	 xmm0, QWORD PTR [esi+144]
  00353	f2 0f 5e 05 00
	00 00 00	 divsd	 xmm0, QWORD PTR __real@4059000000000000
  0035b	f2 0f 58 05 00
	00 00 00	 addsd	 xmm0, QWORD PTR __real@3ff0000000000000
  00363	f2 0f 59 46 58	 mulsd	 xmm0, QWORD PTR [esi+88]
  00368	f2 0f 11 86 80
	00 00 00	 movsd	 QWORD PTR [esi+128], xmm0
$LN93@OnPacketDa:
; File C:\Program Files (x86)\Microsoft Visual Studio\2019\Community\VC\Tools\MSVC\14.29.30133\atlmfc\include\cstringt.h

; 2560 : 		return( str1.Compare( str2 ) != 0 );

  00370	ff 76 48	 push	 DWORD PTR [esi+72]
; File D:\git\src\IBK\IBK_DRFN\ProjSrc\SrcChartEx\ChartOCX\AddInManager\ChartCommonAddIn\YScaleSetUpAddInImp.cpp

; 153  : 	if( m_strStockCode != m_strPrevStockCode )

  00373	8d 4e 44	 lea	 ecx, DWORD PTR [esi+68]
; File C:\Program Files (x86)\Microsoft Visual Studio\2019\Community\VC\Tools\MSVC\14.29.30133\atlmfc\include\cstringt.h

; 2560 : 		return( str1.Compare( str2 ) != 0 );

  00376	ff 15 00 00 00
	00		 call	 DWORD PTR __imp_?Compare@?$CStringT@DV?$StrTraitMFC_DLL@DV?$ChTraitsCRT@D@ATL@@@@@ATL@@QBEHPBD@Z
  0037c	8b 4e 38	 mov	 ecx, DWORD PTR [esi+56]
  0037f	85 c0		 test	 eax, eax
; File D:\git\src\IBK\IBK_DRFN\ProjSrc\SrcChartEx\ChartOCX\AddInManager\ChartCommonAddIn\YScaleSetUpAddInImp.cpp

; 153  : 	if( m_strStockCode != m_strPrevStockCode )

  00381	0f 84 80 00 00
	00		 je	 $LN17@OnPacketDa

; 154  : 	{
; 155  : 		//   Lock  VERT_MINMAX_OF_VIEW  .
; 156  : 		if( m_eYScaleSetupApplyState == YSCALE_APPLY_STATE::APPLY_VALUE )

  00387	83 f9 01	 cmp	 ecx, 1
  0038a	75 3f		 jne	 SHORT $LN19@OnPacketDa

; 157  : 		{
; 158  : 			if( pIBlock )
; 159  : 				pIBlock->SetVScaleMinMaxSetting( m_nVertScaleGroupIndex, FALSE,

  0038c	f2 0f 10 46 78	 movsd	 xmm0, QWORD PTR [esi+120]
  00391	83 ec 10	 sub	 esp, 16			; 00000010H
  00394	8b 07		 mov	 eax, DWORD PTR [edi]
  00396	8b cf		 mov	 ecx, edi
  00398	f2 0f 11 44 24
	08		 movsd	 QWORD PTR [esp+8], xmm0
  0039e	f2 0f 10 86 80
	00 00 00	 movsd	 xmm0, QWORD PTR [esi+128]
  003a6	f2 0f 11 04 24	 movsd	 QWORD PTR [esp], xmm0
  003ab	6a 00		 push	 0
  003ad	6a 00		 push	 0
  003af	ff 76 3c	 push	 DWORD PTR [esi+60]
  003b2	ff 50 54	 call	 DWORD PTR [eax+84]

; 171  : 												 CScaleBaseData::VERTMINMAXTYPE::VERT_MINMAX_OF_USER,
; 172  : 												 m_dYScaleMinValue, m_dYScaleMaxValue);
; 173  : 		}
; 174  : 		 
; 175  : 		m_strPrevStockCode = m_strStockCode;

  003b5	8d 46 44	 lea	 eax, DWORD PTR [esi+68]
  003b8	c7 46 38 00 00
	00 00		 mov	 DWORD PTR [esi+56], 0
  003bf	50		 push	 eax
  003c0	8d 4e 48	 lea	 ecx, DWORD PTR [esi+72]
  003c3	ff 15 00 00 00
	00		 call	 DWORD PTR __imp_??4?$CStringT@DV?$StrTraitMFC_DLL@DV?$ChTraitsCRT@D@ATL@@@@@ATL@@QAEAAV01@ABV01@@Z

; 176  : 	}

  003c9	eb 69		 jmp	 SHORT $LN25@OnPacketDa
$LN19@OnPacketDa:

; 160  : 												 CScaleBaseData::VERTMINMAXTYPE::VERT_MINMAX_OF_VIEW,
; 161  : 												 m_dYScaleMinValue, m_dYScaleMaxValue);
; 162  : 			
; 163  : 			m_eYScaleSetupApplyState = YSCALE_APPLY_STATE::APPLY_CANCEL;
; 164  : 		}
; 165  : 
; 166  : 		//   Lock  VERT_MINMAX_OF_USER  .
; 167  : 		else if( m_eYScaleSetupApplyState == YSCALE_APPLY_STATE::APPLY_PERCENT )

  003cb	83 f9 02	 cmp	 ecx, 2
  003ce	75 28		 jne	 SHORT $LN23@OnPacketDa

; 168  : 		{
; 169  : 			if( pIBlock )
; 170  : 				pIBlock->SetVScaleMinMaxSetting( m_nVertScaleGroupIndex, TRUE,

  003d0	f2 0f 10 46 78	 movsd	 xmm0, QWORD PTR [esi+120]
  003d5	83 ec 10	 sub	 esp, 16			; 00000010H
  003d8	8b 07		 mov	 eax, DWORD PTR [edi]
  003da	f2 0f 11 44 24
	08		 movsd	 QWORD PTR [esp+8], xmm0
  003e0	f2 0f 10 86 80
	00 00 00	 movsd	 xmm0, QWORD PTR [esi+128]
  003e8	f2 0f 11 04 24	 movsd	 QWORD PTR [esp], xmm0
  003ed	51		 push	 ecx
  003ee	6a 01		 push	 1
  003f0	ff 76 3c	 push	 DWORD PTR [esi+60]
  003f3	8b cf		 mov	 ecx, edi
  003f5	ff 50 54	 call	 DWORD PTR [eax+84]
$LN23@OnPacketDa:

; 171  : 												 CScaleBaseData::VERTMINMAXTYPE::VERT_MINMAX_OF_USER,
; 172  : 												 m_dYScaleMinValue, m_dYScaleMaxValue);
; 173  : 		}
; 174  : 		 
; 175  : 		m_strPrevStockCode = m_strStockCode;

  003f8	8d 46 44	 lea	 eax, DWORD PTR [esi+68]
  003fb	50		 push	 eax
  003fc	8d 4e 48	 lea	 ecx, DWORD PTR [esi+72]
  003ff	ff 15 00 00 00
	00		 call	 DWORD PTR __imp_??4?$CStringT@DV?$StrTraitMFC_DLL@DV?$ChTraitsCRT@D@ATL@@@@@ATL@@QAEAAV01@ABV01@@Z

; 176  : 	}

  00405	eb 2d		 jmp	 SHORT $LN25@OnPacketDa
$LN17@OnPacketDa:

; 177  : 
; 178  : 	//   
; 179  : 	else
; 180  : 	{
; 181  : 		// YScale         .
; 182  : 		if( m_eYScaleSetupApplyState == YSCALE_APPLY_STATE::APPLY_CANCEL )

  00407	85 c9		 test	 ecx, ecx
  00409	74 37		 je	 SHORT $LN42@OnPacketDa

; 183  : 			return;
; 184  : 
; 185  : 		// Lock  VERT_MINMAX_OF_USER  .
; 186  : 		if( pIBlock )
; 187  : 			pIBlock->SetVScaleMinMaxSetting( m_nVertScaleGroupIndex, TRUE,

  0040b	f2 0f 10 46 78	 movsd	 xmm0, QWORD PTR [esi+120]
  00410	83 ec 10	 sub	 esp, 16			; 00000010H
  00413	8b 07		 mov	 eax, DWORD PTR [edi]
  00415	8b cf		 mov	 ecx, edi
  00417	f2 0f 11 44 24
	08		 movsd	 QWORD PTR [esp+8], xmm0
  0041d	f2 0f 10 86 80
	00 00 00	 movsd	 xmm0, QWORD PTR [esi+128]
  00425	f2 0f 11 04 24	 movsd	 QWORD PTR [esp], xmm0
  0042a	6a 02		 push	 2
  0042c	6a 01		 push	 1
  0042e	ff 76 3c	 push	 DWORD PTR [esi+60]
  00431	ff 50 54	 call	 DWORD PTR [eax+84]
$LN25@OnPacketDa:

; 188  : 											 CScaleBaseData::VERTMINMAXTYPE::VERT_MINMAX_OF_USER,
; 189  : 											 m_dYScaleMinValue, m_dYScaleMaxValue);
; 190  : 	}
; 191  : 
; 192  : 	if( pIBlock )	pIBlock->Release();

  00434	8b 07		 mov	 eax, DWORD PTR [edi]
  00436	57		 push	 edi
  00437	ff 50 08	 call	 DWORD PTR [eax+8]

; 193  : 	pIBlock = NULL;
; 194  : 
; 195  : 	// OCX  .
; 196  : 	m_pIChartOCX->InvalidateControl();

  0043a	8b 4e 04	 mov	 ecx, DWORD PTR [esi+4]
  0043d	8b 01		 mov	 eax, DWORD PTR [ecx]
  0043f	ff 50 38	 call	 DWORD PTR [eax+56]
$LN42@OnPacketDa:
; File D:\git\src\IBK\IBK_DRFN\ProjSrc\SrcChartEx\ChartOCX\AddInManager\Include_AddIn\I000000\_IString.h

; 44   : 	{

  00442	c6 45 fc 0f	 mov	 BYTE PTR __$EHRec$[ebp+8], 15 ; 0000000fH

; 45   : 		if( m_pIStrData)

  00446	85 db		 test	 ebx, ebx
  00448	74 06		 je	 SHORT $LN79@OnPacketDa

; 46   : 		{
; 47   : 			m_pIStrData->Release();

  0044a	8b 03		 mov	 eax, DWORD PTR [ebx]
  0044c	53		 push	 ebx
  0044d	ff 50 08	 call	 DWORD PTR [eax+8]
$LN79@OnPacketDa:

; 45   : 		if( m_pIStrData)

  00450	8b 4d c0	 mov	 ecx, DWORD PTR _szHelpMsg$[ebp+4]
  00453	c7 45 fc 10 00
	00 00		 mov	 DWORD PTR __$EHRec$[ebp+8], 16 ; 00000010H
  0045a	85 c9		 test	 ecx, ecx
  0045c	74 06		 je	 SHORT $LN83@OnPacketDa

; 46   : 		{
; 47   : 			m_pIStrData->Release();

  0045e	8b 01		 mov	 eax, DWORD PTR [ecx]
  00460	51		 push	 ecx
  00461	ff 50 08	 call	 DWORD PTR [eax+8]
$LN83@OnPacketDa:
; File D:\git\src\IBK\IBK_DRFN\ProjSrc\SrcChartEx\ChartOCX\AddInManager\ChartCommonAddIn\YScaleSetUpAddInImp.cpp

; 197  : }

  00464	8b 4d f4	 mov	 ecx, DWORD PTR __$EHRec$[ebp]
  00467	64 89 0d 00 00
	00 00		 mov	 DWORD PTR fs:0, ecx
  0046e	59		 pop	 ecx
  0046f	5f		 pop	 edi
  00470	5e		 pop	 esi
  00471	5b		 pop	 ebx
  00472	8b e5		 mov	 esp, ebp
  00474	5d		 pop	 ebp
  00475	c2 0c 00	 ret	 12			; 0000000cH
_TEXT	ENDS
;	COMDAT text$x
text$x	SEGMENT
__unwindfunclet$?OnPacketDataMultiItem@CYScaleSetUpAddInImp@@MAEXPBD0H@Z$0:
  00000	8d 4d bc	 lea	 ecx, DWORD PTR _szHelpMsg$[ebp]
  00003	e9 00 00 00 00	 jmp	 ??1ILPCSTR000000@@QAE@XZ ; ILPCSTR000000::~ILPCSTR000000
__unwindfunclet$?OnPacketDataMultiItem@CYScaleSetUpAddInImp@@MAEXPBD0H@Z$1:
  00008	8d 4d d4	 lea	 ecx, DWORD PTR _strYScale$2[ebp]
  0000b	ff 25 00 00 00
	00		 jmp	 DWORD PTR __imp_??1?$CStringT@DV?$StrTraitMFC_DLL@DV?$ChTraitsCRT@D@ATL@@@@@ATL@@QAE@XZ
__unwindfunclet$?OnPacketDataMultiItem@CYScaleSetUpAddInImp@@MAEXPBD0H@Z$2:
  00011	8d 4d 08	 lea	 ecx, DWORD PTR _strData$10[ebp]
  00014	ff 25 00 00 00
	00		 jmp	 DWORD PTR __imp_??1?$CStringT@DV?$StrTraitMFC_DLL@DV?$ChTraitsCRT@D@ATL@@@@@ATL@@QAE@XZ
__unwindfunclet$?OnPacketDataMultiItem@CYScaleSetUpAddInImp@@MAEXPBD0H@Z$3:
  0001a	8d 4d f0	 lea	 ecx, DWORD PTR _strPacket$9[ebp]
  0001d	ff 25 00 00 00
	00		 jmp	 DWORD PTR __imp_??1?$CStringT@DV?$StrTraitMFC_DLL@DV?$ChTraitsCRT@D@ATL@@@@@ATL@@QAE@XZ
__unwindfunclet$?OnPacketDataMultiItem@CYScaleSetUpAddInImp@@MAEXPBD0H@Z$4:
  00023	8d 4d e8	 lea	 ecx, DWORD PTR _strPacketName$7[ebp]
  00026	ff 25 00 00 00
	00		 jmp	 DWORD PTR __imp_??1?$CStringT@DV?$StrTraitMFC_DLL@DV?$ChTraitsCRT@D@ATL@@@@@ATL@@QAE@XZ
__unwindfunclet$?OnPacketDataMultiItem@CYScaleSetUpAddInImp@@MAEXPBD0H@Z$5:
  0002c	8d 4d ec	 lea	 ecx, DWORD PTR _strValue$8[ebp]
  0002f	ff 25 00 00 00
	00		 jmp	 DWORD PTR __imp_??1?$CStringT@DV?$StrTraitMFC_DLL@DV?$ChTraitsCRT@D@ATL@@@@@ATL@@QAE@XZ
__unwindfunclet$?OnPacketDataMultiItem@CYScaleSetUpAddInImp@@MAEXPBD0H@Z$6:
  00035	8d 4d e4	 lea	 ecx, DWORD PTR $T6[ebp]
  00038	ff 25 00 00 00
	00		 jmp	 DWORD PTR __imp_??1?$CStringT@DV?$StrTraitMFC_DLL@DV?$ChTraitsCRT@D@ATL@@@@@ATL@@QAE@XZ
__unwindfunclet$?OnPacketDataMultiItem@CYScaleSetUpAddInImp@@MAEXPBD0H@Z$7:
  0003e	8d 4d e0	 lea	 ecx, DWORD PTR $T5[ebp]
  00041	ff 25 00 00 00
	00		 jmp	 DWORD PTR __imp_??1?$CStringT@DV?$StrTraitMFC_DLL@DV?$ChTraitsCRT@D@ATL@@@@@ATL@@QAE@XZ
__unwindfunclet$?OnPacketDataMultiItem@CYScaleSetUpAddInImp@@MAEXPBD0H@Z$8:
  00047	8d 4d dc	 lea	 ecx, DWORD PTR $T4[ebp]
  0004a	ff 25 00 00 00
	00		 jmp	 DWORD PTR __imp_??1?$CStringT@DV?$StrTraitMFC_DLL@DV?$ChTraitsCRT@D@ATL@@@@@ATL@@QAE@XZ
__unwindfunclet$?OnPacketDataMultiItem@CYScaleSetUpAddInImp@@MAEXPBD0H@Z$9:
  00050	8d 4d d8	 lea	 ecx, DWORD PTR $T3[ebp]
  00053	ff 25 00 00 00
	00		 jmp	 DWORD PTR __imp_??1?$CStringT@DV?$StrTraitMFC_DLL@DV?$ChTraitsCRT@D@ATL@@@@@ATL@@QAE@XZ
__unwindfunclet$?OnPacketDataMultiItem@CYScaleSetUpAddInImp@@MAEXPBD0H@Z$10:
  00059	8d 4d d0	 lea	 ecx, DWORD PTR _szGraphName$[ebp]
  0005c	e9 00 00 00 00	 jmp	 ??1ILPCSTR000000@@QAE@XZ ; ILPCSTR000000::~ILPCSTR000000
  00061	cc		 int	 3
  00062	cc		 int	 3
  00063	cc		 int	 3
  00064	cc		 int	 3
  00065	cc		 int	 3
__ehhandler$?OnPacketDataMultiItem@CYScaleSetUpAddInImp@@MAEXPBD0H@Z:
  00066	90		 npad	 1
  00067	90		 npad	 1
  00068	8b 54 24 08	 mov	 edx, DWORD PTR [esp+8]
  0006c	8d 42 0c	 lea	 eax, DWORD PTR [edx+12]
  0006f	8b 4a b8	 mov	 ecx, DWORD PTR [edx-72]
  00072	33 c8		 xor	 ecx, eax
  00074	e8 00 00 00 00	 call	 @__security_check_cookie@4
  00079	b8 00 00 00 00	 mov	 eax, OFFSET __ehfuncinfo$?OnPacketDataMultiItem@CYScaleSetUpAddInImp@@MAEXPBD0H@Z
  0007e	e9 00 00 00 00	 jmp	 ___CxxFrameHandler3
text$x	ENDS
?OnPacketDataMultiItem@CYScaleSetUpAddInImp@@MAEXPBD0H@Z ENDP ; CYScaleSetUpAddInImp::OnPacketDataMultiItem
; Function compile flags: /Ogtp
; File D:\git\src\IBK\IBK_DRFN\ProjSrc\SrcChartEx\ChartOCX\AddInManager\ChartCommonAddIn\YScaleSetUpAddInImp.cpp
; File D:\git\src\IBK\IBK_DRFN\ProjSrc\SrcChartEx\ChartOCX\AddInManager\Include_AddIn\I000000\_IString.h
; File D:\git\src\IBK\IBK_DRFN\ProjSrc\SrcChartEx\ChartOCX\AddInManager\ChartCommonAddIn\YScaleSetUpAddInImp.cpp
; File D:\git\src\IBK\IBK_DRFN\ProjSrc\SrcChartEx\ChartOCX\AddInManager\Include_AddIn\I000000\_IString.h
; File D:\git\src\IBK\IBK_DRFN\ProjSrc\SrcChartEx\ChartOCX\AddInManager\ChartCommonAddIn\YScaleSetUpAddInImp.cpp
; File C:\Program Files (x86)\Microsoft Visual Studio\2019\Community\VC\Tools\MSVC\14.29.30133\atlmfc\include\atlsimpstr.h
; File D:\git\src\IBK\IBK_DRFN\ProjSrc\SrcChartEx\ChartOCX\AddInManager\ChartCommonAddIn\YScaleSetUpAddInImp.cpp
; File D:\git\src\IBK\IBK_DRFN\ProjSrc\SrcChartEx\ChartOCX\AddInManager\Include_AddIn\I000000\_IString.h
; File D:\git\src\IBK\IBK_DRFN\ProjSrc\SrcChartEx\ChartOCX\AddInManager\ChartCommonAddIn\YScaleSetUpAddInImp.cpp
; File D:\git\src\IBK\IBK_DRFN\ProjSrc\SrcChartEx\ChartOCX\AddInManager\Include_AddIn\I000000\_IString.h
; File D:\git\src\IBK\IBK_DRFN\ProjSrc\SrcChartEx\ChartOCX\AddInManager\ChartCommonAddIn\YScaleSetUpAddInImp.cpp
; File D:\git\src\IBK\IBK_DRFN\ProjSrc\SrcChartEx\ChartOCX\AddInManager\ChartCommonAddIn\DlgYScaleSetUp.h
; File D:\git\src\IBK\IBK_DRFN\ProjSrc\SrcChartEx\ChartOCX\AddInManager\ChartCommonAddIn\YScaleSetUpAddInImp.cpp
; File D:\git\src\IBK\IBK_DRFN\ProjSrc\SrcChartEx\ChartOCX\Include_Chart\Dll_Load\IMetaTable.h
; File C:\Program Files (x86)\Microsoft Visual Studio\2019\Community\VC\Tools\MSVC\14.29.30133\atlmfc\include\afxwin1.inl
; File D:\git\src\IBK\IBK_DRFN\ProjSrc\SrcChartEx\ChartOCX\Include_Chart\Dll_Load\IMetaTable.h
; File C:\Program Files (x86)\Microsoft Visual Studio\2019\Community\VC\Tools\MSVC\14.29.30133\atlmfc\include\afxwin1.inl
; File D:\git\src\IBK\IBK_DRFN\ProjSrc\SrcChartEx\ChartOCX\AddInManager\ChartCommonAddIn\YScaleSetUpAddInImp.cpp
; File D:\git\src\IBK\IBK_DRFN\ProjSrc\SrcChartEx\ChartOCX\Include_Chart\Dll_Load\IMetaTable.h
; File C:\Program Files (x86)\Microsoft Visual Studio\2019\Community\VC\Tools\MSVC\14.29.30133\atlmfc\include\afxwin1.inl
; File D:\git\src\IBK\IBK_DRFN\ProjSrc\SrcChartEx\ChartOCX\AddInManager\ChartCommonAddIn\YScaleSetUpAddInImp.cpp
; File C:\Program Files (x86)\Microsoft Visual Studio\2019\Community\VC\Tools\MSVC\14.29.30133\atlmfc\include\afxwin1.inl
; File D:\git\src\IBK\IBK_DRFN\ProjSrc\SrcChartEx\ChartOCX\AddInManager\ChartCommonAddIn\YScaleSetUpAddInImp.cpp
; File D:\git\src\IBK\IBK_DRFN\ProjSrc\SrcChartEx\ChartOCX\AddInManager\Include_AddIn\I000000\_IString.h
; File D:\git\src\IBK\IBK_DRFN\ProjSrc\SrcChartEx\ChartOCX\AddInManager\ChartCommonAddIn\YScaleSetUpAddInImp.cpp
;	COMDAT ?InvokeAddInStr@CYScaleSetUpAddInImp@@MAEHPBD0@Z
_TEXT	SEGMENT
_dlgYScaleSetUp$ = -348					; size = 288
_nG$ = -60						; size = 4
_szType$ = -56						; size = 8
_szGraphName$ = -48					; size = 8
_dDataType$2 = -40					; size = 8
___mlrs__$ = -36					; size = 4
_szGraphName$1$ = -32					; size = 4
_szType$2$ = -28					; size = 4
_nR$ = -24						; size = 4
_nC$ = -20						; size = 4
_strPacketName$ = -16					; size = 4
__$EHRec$ = -12						; size = 12
_p1$1$ = 8						; size = 4
$T3 = 8							; size = 4
$T4 = 8							; size = 4
_pIPacket$5 = 8						; size = 4
_p_szCommandName$ = 8					; size = 4
_p_szData$ = 12						; size = 4
?InvokeAddInStr@CYScaleSetUpAddInImp@@MAEHPBD0@Z PROC	; CYScaleSetUpAddInImp::InvokeAddInStr, COMDAT
; _this$ = ecx

; 214  : {

  00000	55		 push	 ebp
  00001	8b ec		 mov	 ebp, esp
  00003	6a ff		 push	 -1
  00005	68 00 00 00 00	 push	 __ehhandler$?InvokeAddInStr@CYScaleSetUpAddInImp@@MAEHPBD0@Z
  0000a	64 a1 00 00 00
	00		 mov	 eax, DWORD PTR fs:0
  00010	50		 push	 eax
  00011	81 ec 50 01 00
	00		 sub	 esp, 336		; 00000150H
  00017	53		 push	 ebx
  00018	56		 push	 esi
  00019	57		 push	 edi
  0001a	a1 00 00 00 00	 mov	 eax, DWORD PTR ___security_cookie
  0001f	33 c5		 xor	 eax, ebp
  00021	50		 push	 eax
  00022	8d 45 f4	 lea	 eax, DWORD PTR __$EHRec$[ebp]
  00025	64 a3 00 00 00
	00		 mov	 DWORD PTR fs:0, eax
  0002b	8b f9		 mov	 edi, ecx

; 215  : 	// 1. "LOAD_YSCALE_SETUP" Message   dialog .
; 216  : 	if( stricmp( p_szCommandName, "YSCALE_SETUP_LOAD")) return FALSE;

  0002d	68 00 00 00 00	 push	 OFFSET ??_C@_0BC@NCHAJJPH@YSCALE_SETUP_LOAD@
  00032	ff 75 08	 push	 DWORD PTR _p_szCommandName$[ebp]
  00035	ff 15 00 00 00
	00		 call	 DWORD PTR __imp__stricmp
  0003b	83 c4 08	 add	 esp, 8
  0003e	85 c0		 test	 eax, eax
  00040	74 16		 je	 SHORT $LN2@InvokeAddI
  00042	33 c0		 xor	 eax, eax

; 315  : }

  00044	8b 4d f4	 mov	 ecx, DWORD PTR __$EHRec$[ebp]
  00047	64 89 0d 00 00
	00 00		 mov	 DWORD PTR fs:0, ecx
  0004e	59		 pop	 ecx
  0004f	5f		 pop	 edi
  00050	5e		 pop	 esi
  00051	5b		 pop	 ebx
  00052	8b e5		 mov	 esp, ebp
  00054	5d		 pop	 ebp
  00055	c2 08 00	 ret	 8
$LN2@InvokeAddI:

; 220  : 	ILPCSTR szGraphName = m_pIChartManager->FindFirstIndicator( _MTEXT( C2_PRICE_CHART), nR, nC, m_nVertScaleGroupIndex, nG, "DEFAULT");

  00058	8b 4f 1c	 mov	 ecx, DWORD PTR [edi+28]
  0005b	8d 75 c4	 lea	 esi, DWORD PTR _nG$[ebp]
  0005e	68 00 00 00 00	 push	 OFFSET ??_C@_07MGCPDNLD@DEFAULT@
  00063	56		 push	 esi
  00064	8d 47 3c	 lea	 eax, DWORD PTR [edi+60]
  00067	8b 11		 mov	 edx, DWORD PTR [ecx]
  00069	50		 push	 eax
  0006a	8d 45 ec	 lea	 eax, DWORD PTR _nC$[ebp]
  0006d	50		 push	 eax
  0006e	8d 45 e8	 lea	 eax, DWORD PTR _nR$[ebp]
  00071	50		 push	 eax
  00072	a1 54 00 00 00	 mov	 eax, DWORD PTR ?g_iMetaTable@@3VIMetaTable@@A+84
  00077	ff b0 28 03 00
	00		 push	 DWORD PTR [eax+808]
  0007d	ff 52 70	 call	 DWORD PTR [edx+112]
; File D:\git\src\IBK\IBK_DRFN\ProjSrc\SrcChartEx\ChartOCX\AddInManager\Include_AddIn\I000000\_IString.h

; 39   : 		m_pIStrData = p_pIString;	// Do not AddRef(). Because It must be Return Value.

  00080	8b f0		 mov	 esi, eax
  00082	89 75 e0	 mov	 DWORD PTR _szGraphName$1$[ebp], esi
  00085	89 75 d4	 mov	 DWORD PTR _szGraphName$[ebp+4], esi

; 40   : 		if( m_pIStrData) m_szData = m_pIStrData->GetData();

  00088	85 f6		 test	 esi, esi
  0008a	74 09		 je	 SHORT $LN25@InvokeAddI
  0008c	8b 16		 mov	 edx, DWORD PTR [esi]
  0008e	8b ce		 mov	 ecx, esi
  00090	ff 52 10	 call	 DWORD PTR [edx+16]
  00093	eb 02		 jmp	 SHORT $LN87@InvokeAddI
$LN25@InvokeAddI:

; 41   : 		else m_szData = NULL;

  00095	33 c0		 xor	 eax, eax
$LN87@InvokeAddI:
; File D:\git\src\IBK\IBK_DRFN\ProjSrc\SrcChartEx\ChartOCX\AddInManager\ChartCommonAddIn\YScaleSetUpAddInImp.cpp

; 220  : 	ILPCSTR szGraphName = m_pIChartManager->FindFirstIndicator( _MTEXT( C2_PRICE_CHART), nR, nC, m_nVertScaleGroupIndex, nG, "DEFAULT");

  00097	89 45 d0	 mov	 DWORD PTR _szGraphName$[ebp], eax
  0009a	c7 45 fc 00 00
	00 00		 mov	 DWORD PTR __$EHRec$[ebp+8], 0
; File D:\git\src\IBK\IBK_DRFN\ProjSrc\SrcChartEx\ChartOCX\AddInManager\Include_AddIn\I000000\_IString.h

; 57   : 		if( !m_szData) return TRUE;

  000a1	85 c0		 test	 eax, eax
  000a3	74 6f		 je	 SHORT $LN6@InvokeAddI
; File D:\git\src\IBK\IBK_DRFN\ProjSrc\SrcChartEx\ChartOCX\AddInManager\ChartCommonAddIn\YScaleSetUpAddInImp.cpp

; 221  : 	if( szGraphName.IsEmpty()) return FALSE;

  000a5	80 38 00	 cmp	 BYTE PTR [eax], 0
  000a8	74 6a		 je	 SHORT $LN6@InvokeAddI

; 222  : 
; 223  : 	// 1.2 Use Block Interface
; 224  : 	IBlock *pIBlock = NULL;
; 225  : 	pIBlock = m_pIChartManager->GetBlock( nR, nC );

  000aa	8b 4f 1c	 mov	 ecx, DWORD PTR [edi+28]
  000ad	ff 75 ec	 push	 DWORD PTR _nC$[ebp]
  000b0	ff 75 e8	 push	 DWORD PTR _nR$[ebp]
  000b3	8b 01		 mov	 eax, DWORD PTR [ecx]
  000b5	ff 50 38	 call	 DWORD PTR [eax+56]
  000b8	8b d8		 mov	 ebx, eax

; 226  : 	if( !pIBlock) return FALSE;

  000ba	85 db		 test	 ebx, ebx
  000bc	74 56		 je	 SHORT $LN6@InvokeAddI
; File C:\Program Files (x86)\Microsoft Visual Studio\2019\Community\VC\Tools\MSVC\14.29.30133\atlmfc\include\atlsimpstr.h

; 519  : 		return( GetData()->nDataLength );

  000be	8b 4f 40	 mov	 ecx, DWORD PTR [edi+64]

; 533  : 		return( GetLength() == 0 );

  000c1	83 79 f4 00	 cmp	 DWORD PTR [ecx-12], 0
; File D:\git\src\IBK\IBK_DRFN\ProjSrc\SrcChartEx\ChartOCX\AddInManager\ChartCommonAddIn\YScaleSetUpAddInImp.cpp

; 530  : 	if( m_strGraphName.IsEmpty() )

  000c5	74 47		 je	 SHORT $LN81@InvokeAddI

; 531  : 		return FALSE;
; 532  : 
; 533  : 	if( !pIBlock) return FALSE;
; 534  : 
; 535  : 
; 536  : 	// 3. Block VScale ,  .
; 537  : 	pIBlock->GetVScaleGroupMinMax( m_nVertScaleGroupIndex, m_dYScaleMinValue, m_dYScaleMaxValue );

  000c7	8b 03		 mov	 eax, DWORD PTR [ebx]
  000c9	8d 4f 78	 lea	 ecx, DWORD PTR [edi+120]
  000cc	51		 push	 ecx
  000cd	8d 97 80 00 00
	00		 lea	 edx, DWORD PTR [edi+128]
  000d3	8b cb		 mov	 ecx, ebx
  000d5	52		 push	 edx
  000d6	ff 77 3c	 push	 DWORD PTR [edi+60]
  000d9	ff 50 48	 call	 DWORD PTR [eax+72]

; 538  : 	
; 539  : 	
; 540  : 	// 4.     Packet .
; 541  : 	IPacket *pIPacket = NULL;
; 542  : 	double dDataType = 0.0L;
; 543  : 	BOOL bResult = pIBlock->GetVScaleGroupHeadPacketAndDataType( m_nVertScaleGroupIndex, pIPacket, dDataType );

  000dc	8b 03		 mov	 eax, DWORD PTR [ebx]
  000de	8d 4d d8	 lea	 ecx, DWORD PTR _dDataType$2[ebp]
  000e1	51		 push	 ecx
  000e2	8d 4d 08	 lea	 ecx, DWORD PTR _pIPacket$5[ebp]
  000e5	c7 45 08 00 00
	00 00		 mov	 DWORD PTR _pIPacket$5[ebp], 0
  000ec	51		 push	 ecx
  000ed	ff 77 3c	 push	 DWORD PTR [edi+60]
  000f0	0f 57 c0	 xorps	 xmm0, xmm0
  000f3	8b cb		 mov	 ecx, ebx
  000f5	f2 0f 11 45 d8	 movsd	 QWORD PTR _dDataType$2[ebp], xmm0
  000fa	ff 50 4c	 call	 DWORD PTR [eax+76]

; 544  : 	if( !bResult)

  000fd	85 c0		 test	 eax, eax
  000ff	75 3c		 jne	 SHORT $LN34@InvokeAddI

; 545  : 	{
; 546  : 		if( pIPacket) pIPacket->Release();

  00101	8b 4d 08	 mov	 ecx, DWORD PTR _pIPacket$5[ebp]
  00104	85 c9		 test	 ecx, ecx
  00106	74 06		 je	 SHORT $LN81@InvokeAddI
  00108	8b 01		 mov	 eax, DWORD PTR [ecx]
  0010a	51		 push	 ecx
  0010b	ff 50 08	 call	 DWORD PTR [eax+8]
$LN81@InvokeAddI:

; 227  : 
; 228  : 	// 1.3 AddIn      Return .
; 229  : 	if( !SetYScaleInfo( pIBlock ) )
; 230  : 	{
; 231  : 		if( pIBlock )	pIBlock->Release();

  0010e	8b 03		 mov	 eax, DWORD PTR [ebx]
  00110	53		 push	 ebx
  00111	ff 50 08	 call	 DWORD PTR [eax+8]
$LN6@InvokeAddI:
  00114	33 ff		 xor	 edi, edi
$LN75@InvokeAddI:
; File D:\git\src\IBK\IBK_DRFN\ProjSrc\SrcChartEx\ChartOCX\AddInManager\Include_AddIn\I000000\_IString.h

; 44   : 	{

  00116	c7 45 fc 08 00
	00 00		 mov	 DWORD PTR __$EHRec$[ebp+8], 8

; 45   : 		if( m_pIStrData)

  0011d	85 f6		 test	 esi, esi
  0011f	74 06		 je	 SHORT $LN78@InvokeAddI

; 46   : 		{
; 47   : 			m_pIStrData->Release();

  00121	8b 0e		 mov	 ecx, DWORD PTR [esi]
  00123	56		 push	 esi
  00124	ff 51 08	 call	 DWORD PTR [ecx+8]
$LN78@InvokeAddI:
; File D:\git\src\IBK\IBK_DRFN\ProjSrc\SrcChartEx\ChartOCX\AddInManager\ChartCommonAddIn\YScaleSetUpAddInImp.cpp

; 314  : 	return TRUE;

  00127	8b c7		 mov	 eax, edi

; 315  : }

  00129	8b 4d f4	 mov	 ecx, DWORD PTR __$EHRec$[ebp]
  0012c	64 89 0d 00 00
	00 00		 mov	 DWORD PTR fs:0, ecx
  00133	59		 pop	 ecx
  00134	5f		 pop	 edi
  00135	5e		 pop	 esi
  00136	5b		 pop	 ebx
  00137	8b e5		 mov	 esp, ebp
  00139	5d		 pop	 ebp
  0013a	c2 08 00	 ret	 8
$LN34@InvokeAddI:

; 552  : 	if( pIPacket )

  0013d	83 7d 08 00	 cmp	 DWORD PTR _pIPacket$5[ebp], 0
  00141	0f 84 e2 00 00
	00		 je	 $LN82@InvokeAddI

; 553  : 	{
; 554  : 		//  (Precision)   String   .
; 555  : 		int nDecimal = 0;
; 556  : 
; 557  : 		if( dDataType != 0)

  00147	f2 0f 10 5d d8	 movsd	 xmm3, QWORD PTR _dDataType$2[ebp]
  0014c	66 0f 2e 1d 00
	00 00 00	 ucomisd xmm3, QWORD PTR __real@0000000000000000
  00154	9f		 lahf
  00155	f6 c4 44	 test	 ah, 68			; 00000044H
  00158	0f 8b b0 00 00
	00		 jnp	 $LN83@InvokeAddI

; 558  : 		{
; 559  : 			m_dYesterdayClosePrice = int( m_dYesterdayClosePrice / dDataType + 0.5) * dDataType;

  0015e	f2 0f 10 47 58	 movsd	 xmm0, QWORD PTR [edi+88]
  00163	f2 0f 5e c3	 divsd	 xmm0, xmm3
  00167	f2 0f 10 15 00
	00 00 00	 movsd	 xmm2, QWORD PTR __real@3fe0000000000000
  0016f	f2 0f 58 c2	 addsd	 xmm0, xmm2
  00173	f2 0f 2c c0	 cvttsd2si eax, xmm0
  00177	66 0f 6e c0	 movd	 xmm0, eax
  0017b	f3 0f e6 c0	 cvtdq2pd xmm0, xmm0
  0017f	f2 0f 59 c3	 mulsd	 xmm0, xmm3
  00183	f2 0f 11 47 58	 movsd	 QWORD PTR [edi+88], xmm0

; 560  : 			m_dUpperBound = int( m_dUpperBound / dDataType + 0.5) * dDataType;

  00188	f2 0f 10 47 60	 movsd	 xmm0, QWORD PTR [edi+96]
  0018d	f2 0f 5e c3	 divsd	 xmm0, xmm3
  00191	f2 0f 58 c2	 addsd	 xmm0, xmm2
  00195	f2 0f 2c c0	 cvttsd2si eax, xmm0

; 562  : 			
; 563  : 			// double Int    Int     
; 564  : 			// 100   .
; 565  : 			nDecimal = ( int)( ( log10( dDataType) * 100) / 100);	

  00199	0f 28 c3	 movaps	 xmm0, xmm3
  0019c	66 0f 6e c8	 movd	 xmm1, eax

; 560  : 			m_dUpperBound = int( m_dUpperBound / dDataType + 0.5) * dDataType;

  001a0	f3 0f e6 c9	 cvtdq2pd xmm1, xmm1
  001a4	f2 0f 59 cb	 mulsd	 xmm1, xmm3
  001a8	f2 0f 11 4f 60	 movsd	 QWORD PTR [edi+96], xmm1

; 561  : 			m_dLowerBound = int( m_dLowerBound / dDataType + 0.5) * dDataType;

  001ad	f2 0f 10 4f 68	 movsd	 xmm1, QWORD PTR [edi+104]
  001b2	f2 0f 5e cb	 divsd	 xmm1, xmm3
  001b6	f2 0f 58 ca	 addsd	 xmm1, xmm2
  001ba	f2 0f 2c c1	 cvttsd2si eax, xmm1
  001be	66 0f 6e c8	 movd	 xmm1, eax
  001c2	f3 0f e6 c9	 cvtdq2pd xmm1, xmm1
  001c6	f2 0f 59 cb	 mulsd	 xmm1, xmm3
  001ca	f2 0f 11 4f 68	 movsd	 QWORD PTR [edi+104], xmm1

; 562  : 			
; 563  : 			// double Int    Int     
; 564  : 			// 100   .
; 565  : 			nDecimal = ( int)( ( log10( dDataType) * 100) / 100);	

  001cf	e8 00 00 00 00	 call	 __libm_sse2_log10_precise
  001d4	f2 0f 59 05 00
	00 00 00	 mulsd	 xmm0, QWORD PTR __real@4059000000000000

; 566  : 		}
; 567  : 	
; 568  : 		if( 0 <= nDecimal)

  001dc	8d 4f 50	 lea	 ecx, DWORD PTR [edi+80]
  001df	8b f1		 mov	 esi, ecx
  001e1	f2 0f 5e 05 00
	00 00 00	 divsd	 xmm0, QWORD PTR __real@4059000000000000
  001e9	f2 0f 2c c0	 cvttsd2si eax, xmm0
  001ed	85 c0		 test	 eax, eax
  001ef	79 22		 jns	 SHORT $LN84@InvokeAddI

; 570  : 		else
; 571  : 			m_strFormat.Format( "%%.%df", -nDecimal);

  001f1	f7 d8		 neg	 eax
  001f3	50		 push	 eax
  001f4	68 00 00 00 00	 push	 OFFSET ??_C@_06DNBDMDIL@?$CF?$CF?4?$CFdf@
  001f9	51		 push	 ecx
  001fa	ff 15 00 00 00
	00		 call	 DWORD PTR __imp_?Format@?$CStringT@DV?$StrTraitMFC_DLL@DV?$ChTraitsCRT@D@ATL@@@@@ATL@@QAAXPBDZZ

; 572  : 		
; 573  : #ifdef _DEBUG
; 574  : 	TRACE( "%f	%f	%f\r\n", m_dYesterdayClosePrice, m_dUpperBound, m_dLowerBound);
; 575  : #endif
; 576  : 		pIPacket->Release();

  00200	8b 45 08	 mov	 eax, DWORD PTR _pIPacket$5[ebp]
  00203	83 c4 0c	 add	 esp, 12			; 0000000cH
  00206	8b 08		 mov	 ecx, DWORD PTR [eax]
  00208	50		 push	 eax
  00209	ff 51 08	 call	 DWORD PTR [ecx+8]
  0020c	eb 1e		 jmp	 SHORT $LN36@InvokeAddI
$LN83@InvokeAddI:

; 562  : 			
; 563  : 			// double Int    Int     
; 564  : 			// 100   .
; 565  : 			nDecimal = ( int)( ( log10( dDataType) * 100) / 100);	

  0020e	8d 4f 50	 lea	 ecx, DWORD PTR [edi+80]
  00211	8b f1		 mov	 esi, ecx
$LN84@InvokeAddI:

; 569  : 			m_strFormat = "%.0f";

  00213	68 00 00 00 00	 push	 OFFSET ??_C@_04GHNNFJCK@?$CF?40f@
  00218	ff 15 00 00 00
	00		 call	 DWORD PTR __imp_??4?$CStringT@DV?$StrTraitMFC_DLL@DV?$ChTraitsCRT@D@ATL@@@@@ATL@@QAEAAV01@PBD@Z

; 572  : 		
; 573  : #ifdef _DEBUG
; 574  : 	TRACE( "%f	%f	%f\r\n", m_dYesterdayClosePrice, m_dUpperBound, m_dLowerBound);
; 575  : #endif
; 576  : 		pIPacket->Release();

  0021e	8b 45 08	 mov	 eax, DWORD PTR _pIPacket$5[ebp]
  00221	50		 push	 eax
  00222	8b 08		 mov	 ecx, DWORD PTR [eax]
  00224	ff 51 08	 call	 DWORD PTR [ecx+8]
  00227	eb 03		 jmp	 SHORT $LN36@InvokeAddI
$LN82@InvokeAddI:
  00229	8d 77 50	 lea	 esi, DWORD PTR [edi+80]
$LN36@InvokeAddI:

; 232  : 		pIBlock = NULL;
; 233  : 		return FALSE;
; 234  : 	}
; 235  : 
; 236  : 	// 1.4  dialog   Setting.
; 237  : 	UINT uDlgID = IDD_YSCALE_SETUP_HTS;
; 238  : 	if( CChartInfo::WORLD_ON == m_eChartMode) uDlgID = IDD_YSCALE_SETUP_WORLDON;

  0022c	8b 57 34	 mov	 edx, DWORD PTR [edi+52]

; 239  : 	CDlgYScaleSetUp dlgYScaleSetUp( this, m_pIChartOCX->GetOcxHwnd(), m_eChartMode, uDlgID);

  0022f	33 c0		 xor	 eax, eax
  00231	8b 4f 04	 mov	 ecx, DWORD PTR [edi+4]
  00234	83 fa 03	 cmp	 edx, 3
  00237	6a 00		 push	 0
  00239	0f 94 c0	 sete	 al
  0023c	05 c2 5d 00 00	 add	 eax, 24002		; 00005dc2H
  00241	50		 push	 eax
  00242	8b 01		 mov	 eax, DWORD PTR [ecx]
  00244	52		 push	 edx
  00245	ff 50 40	 call	 DWORD PTR [eax+64]
  00248	50		 push	 eax
  00249	8d 47 f8	 lea	 eax, DWORD PTR [edi-8]
  0024c	50		 push	 eax
  0024d	8d 8d a4 fe ff
	ff		 lea	 ecx, DWORD PTR _dlgYScaleSetUp$[ebp]
  00253	e8 00 00 00 00	 call	 ??0CDlgYScaleSetUp@@QAE@PAVCYScaleSetUpAddInImp@@PAUHWND__@@W4CHART_MODE@CChartInfo@@IPAVCWnd@@@Z ; CDlgYScaleSetUp::CDlgYScaleSetUp

; 240  : 	
; 241  : 	// 1.5  /   
; 242  : 	dlgYScaleSetUp.SetYScaleMaxMinSetupType( m_nYScaleMaxMinSetupType );		

  00258	ff 77 70	 push	 DWORD PTR [edi+112]
  0025b	8d 8d a4 fe ff
	ff		 lea	 ecx, DWORD PTR _dlgYScaleSetUp$[ebp]
  00261	c6 45 fc 01	 mov	 BYTE PTR __$EHRec$[ebp+8], 1
  00265	e8 00 00 00 00	 call	 ?SetYScaleMaxMinSetupType@CDlgYScaleSetUp@@QAEXH@Z ; CDlgYScaleSetUp::SetYScaleMaxMinSetupType

; 243  : 
; 244  : 	// 1.6   
; 245  : 	dlgYScaleSetUp.SetValueFormat( m_strFormat );

  0026a	51		 push	 ecx
  0026b	8b cc		 mov	 ecx, esp
  0026d	56		 push	 esi
  0026e	ff 15 00 00 00
	00		 call	 DWORD PTR __imp_??0?$CStringT@DV?$StrTraitMFC_DLL@DV?$ChTraitsCRT@D@ATL@@@@@ATL@@QAE@ABV01@@Z
  00274	8d 8d a4 fe ff
	ff		 lea	 ecx, DWORD PTR _dlgYScaleSetUp$[ebp]
  0027a	e8 00 00 00 00	 call	 ?SetValueFormat@CDlgYScaleSetUp@@QAEXV?$CStringT@DV?$StrTraitMFC_DLL@DV?$ChTraitsCRT@D@ATL@@@@@ATL@@@Z ; CDlgYScaleSetUp::SetValueFormat

; 246  : 	
; 247  : 	// 1.7 , ,   
; 248  : 	dlgYScaleSetUp.SetStockPriceInfo( m_dYesterdayClosePrice, m_dUpperBound, m_dLowerBound );

  0027f	0f 10 47 60	 movups	 xmm0, XMMWORD PTR [edi+96]
  00283	83 ec 18	 sub	 esp, 24			; 00000018H
  00286	8d 8d a4 fe ff
	ff		 lea	 ecx, DWORD PTR _dlgYScaleSetUp$[ebp]
  0028c	0f 11 44 24 08	 movups	 XMMWORD PTR [esp+8], xmm0
  00291	f2 0f 10 47 58	 movsd	 xmm0, QWORD PTR [edi+88]
  00296	f2 0f 11 04 24	 movsd	 QWORD PTR [esp], xmm0
  0029b	e8 00 00 00 00	 call	 ?SetStockPriceInfo@CDlgYScaleSetUp@@QAEXNNN@Z ; CDlgYScaleSetUp::SetStockPriceInfo

; 249  : 	
; 250  : 	// 1.8  /  
; 251  : 	dlgYScaleSetUp.SetYScaleMaxMin( m_dYScaleMaxValue, m_dYScaleMinValue);

  002a0	0f 10 47 78	 movups	 xmm0, XMMWORD PTR [edi+120]
  002a4	83 ec 10	 sub	 esp, 16			; 00000010H
  002a7	8d 8d a4 fe ff
	ff		 lea	 ecx, DWORD PTR _dlgYScaleSetUp$[ebp]
  002ad	0f 11 04 24	 movups	 XMMWORD PTR [esp], xmm0
  002b1	e8 00 00 00 00	 call	 ?SetYScaleMaxMin@CDlgYScaleSetUp@@QAEXNN@Z ; CDlgYScaleSetUp::SetYScaleMaxMin

; 252  : 	
; 253  : 	// 1.9   /   
; 254  : 	dlgYScaleSetUp.SetYScaleMaxMinPercent( m_dYScaleMaxPercentValue, m_dYScaleMinPercentValue);

  002b6	0f 10 87 88 00
	00 00		 movups	 xmm0, XMMWORD PTR [edi+136]
  002bd	83 ec 10	 sub	 esp, 16			; 00000010H
  002c0	8d 8d a4 fe ff
	ff		 lea	 ecx, DWORD PTR _dlgYScaleSetUp$[ebp]
  002c6	0f 11 04 24	 movups	 XMMWORD PTR [esp], xmm0
  002ca	e8 00 00 00 00	 call	 ?SetYScaleMaxMinPercent@CDlgYScaleSetUp@@QAEXNN@Z ; CDlgYScaleSetUp::SetYScaleMaxMinPercent

; 255  : 
; 256  : 	// (2006/11/25 - Seung-Won, Bae) Notify ToolState.
; 257  : 	m_pIChartOCX->OnToolStateChanged( CToolOptionInfo::T_PRICE_YSCALE_SETUP, TRUE);

  002cf	8b 4f 04	 mov	 ecx, DWORD PTR [edi+4]
  002d2	6a 01		 push	 1
  002d4	6a 69		 push	 105			; 00000069H
  002d6	8b 01		 mov	 eax, DWORD PTR [ecx]
  002d8	ff 90 b0 01 00
	00		 call	 DWORD PTR [eax+432]

; 258  : 
; 259  : 	// (2007/5/2 - Seung-Won, Bae) Check Market Type for Unit.
; 260  : 	IPacket *pIPacket = m_pIDefaultPacketManager->GetPacket( _MTEXT( C0_CLOSE));

  002de	8b 4f 18	 mov	 ecx, DWORD PTR [edi+24]
  002e1	a1 54 00 00 00	 mov	 eax, DWORD PTR ?g_iMetaTable@@3VIMetaTable@@A+84
  002e6	8b 11		 mov	 edx, DWORD PTR [ecx]
  002e8	ff 70 14	 push	 DWORD PTR [eax+20]
  002eb	ff 52 10	 call	 DWORD PTR [edx+16]
  002ee	8b f0		 mov	 esi, eax

; 261  : 	if( pIPacket)

  002f0	85 f6		 test	 esi, esi
  002f2	74 10		 je	 SHORT $LN8@InvokeAddI

; 262  : 	{
; 263  : 		dlgYScaleSetUp.m_eMarketType = pIPacket->GetCommodityBondName();

  002f4	8b 16		 mov	 edx, DWORD PTR [esi]
  002f6	8b ce		 mov	 ecx, esi
  002f8	ff 52 24	 call	 DWORD PTR [edx+36]
  002fb	89 45 b4	 mov	 DWORD PTR _dlgYScaleSetUp$[ebp+272], eax

; 264  : 		pIPacket->Release();

  002fe	8b 0e		 mov	 ecx, DWORD PTR [esi]
  00300	56		 push	 esi
  00301	ff 51 08	 call	 DWORD PTR [ecx+8]
$LN8@InvokeAddI:

; 267  : 	ILPCSTR szType = pIPacket->GetType();

  00304	8b 06		 mov	 eax, DWORD PTR [esi]
  00306	8b ce		 mov	 ecx, esi
  00308	6a 01		 push	 1
  0030a	ff 50 1c	 call	 DWORD PTR [eax+28]
; File D:\git\src\IBK\IBK_DRFN\ProjSrc\SrcChartEx\ChartOCX\AddInManager\Include_AddIn\I000000\_IString.h

; 39   : 		m_pIStrData = p_pIString;	// Do not AddRef(). Because It must be Return Value.

  0030d	89 45 e4	 mov	 DWORD PTR _szType$2$[ebp], eax
  00310	89 45 cc	 mov	 DWORD PTR _szType$[ebp+4], eax

; 40   : 		if( m_pIStrData) m_szData = m_pIStrData->GetData();

  00313	85 c0		 test	 eax, eax
  00315	74 09		 je	 SHORT $LN48@InvokeAddI
  00317	8b 10		 mov	 edx, DWORD PTR [eax]
  00319	8b c8		 mov	 ecx, eax
  0031b	ff 52 10	 call	 DWORD PTR [edx+16]
  0031e	eb 02		 jmp	 SHORT $LN88@InvokeAddI
$LN48@InvokeAddI:

; 41   : 		else m_szData = NULL;

  00320	33 c0		 xor	 eax, eax
$LN88@InvokeAddI:
; File D:\git\src\IBK\IBK_DRFN\ProjSrc\SrcChartEx\ChartOCX\AddInManager\ChartCommonAddIn\YScaleSetUpAddInImp.cpp

; 267  : 	ILPCSTR szType = pIPacket->GetType();

  00322	89 45 c8	 mov	 DWORD PTR _szType$[ebp], eax

; 268  : 	CString strPacketName(szType);

  00325	50		 push	 eax
  00326	8d 4d f0	 lea	 ecx, DWORD PTR _strPacketName$[ebp]
  00329	c6 45 fc 02	 mov	 BYTE PTR __$EHRec$[ebp+8], 2
  0032d	ff 15 00 00 00
	00		 call	 DWORD PTR __imp_??0?$CStringT@DV?$StrTraitMFC_DLL@DV?$ChTraitsCRT@D@ATL@@@@@ATL@@QAE@PBD@Z

; 269  : 	dlgYScaleSetUp.SetPacketType(strPacketName);

  00333	8d 45 f0	 lea	 eax, DWORD PTR _strPacketName$[ebp]
  00336	c6 45 fc 03	 mov	 BYTE PTR __$EHRec$[ebp+8], 3
  0033a	50		 push	 eax
  0033b	8d 4d 08	 lea	 ecx, DWORD PTR $T4[ebp]
  0033e	ff 15 00 00 00
	00		 call	 DWORD PTR __imp_??0?$CStringT@DV?$StrTraitMFC_DLL@DV?$ChTraitsCRT@D@ATL@@@@@ATL@@QAE@ABV01@@Z
; File D:\git\src\IBK\IBK_DRFN\ProjSrc\SrcChartEx\ChartOCX\AddInManager\ChartCommonAddIn\DlgYScaleSetUp.h

; 87   : 		m_strPacketType = strType;

  00344	8d 45 08	 lea	 eax, DWORD PTR $T4[ebp]
  00347	c6 45 fc 04	 mov	 BYTE PTR __$EHRec$[ebp+8], 4
  0034b	50		 push	 eax
  0034c	8d 4d b0	 lea	 ecx, DWORD PTR _dlgYScaleSetUp$[ebp+268]
  0034f	ff 15 00 00 00
	00		 call	 DWORD PTR __imp_??4?$CStringT@DV?$StrTraitMFC_DLL@DV?$ChTraitsCRT@D@ATL@@@@@ATL@@QAEAAV01@ABV01@@Z

; 88   : 	}

  00355	8d 4d 08	 lea	 ecx, DWORD PTR $T4[ebp]
  00358	c6 45 fc 03	 mov	 BYTE PTR __$EHRec$[ebp+8], 3
  0035c	ff 15 00 00 00
	00		 call	 DWORD PTR __imp_??1?$CStringT@DV?$StrTraitMFC_DLL@DV?$ChTraitsCRT@D@ATL@@@@@ATL@@QAE@XZ
; File D:\git\src\IBK\IBK_DRFN\ProjSrc\SrcChartEx\ChartOCX\AddInManager\ChartCommonAddIn\YScaleSetUpAddInImp.cpp

; 273  : 	ML_SET_LANGUAGE_RES();

  00362	e8 00 00 00 00	 call	 ?AfxGetStaticModuleState@@YGPAVAFX_MODULE_STATE@@XZ ; AfxGetStaticModuleState
  00367	8b 4f 0c	 mov	 ecx, DWORD PTR [edi+12]
  0036a	89 4d 08	 mov	 DWORD PTR _p1$1$[ebp], ecx
  0036d	8b 70 08	 mov	 esi, DWORD PTR [eax+8]
; File D:\git\src\IBK\IBK_DRFN\ProjSrc\SrcChartEx\ChartOCX\Include_Chart\Dll_Load\IMetaTable.h

; 936  : 	DECLARE_FUNCTION2(	LoadResourceDLL,				HMODULE, AfxGetStaticModuleState()->m_hCurrentInstanceHandle, HWND, HMODULE);

  00370	a1 04 00 00 00	 mov	 eax, DWORD PTR ?g_iMetaTable@@3VIMetaTable@@A+4
  00375	85 c0		 test	 eax, eax
  00377	74 4c		 je	 SHORT $LN57@InvokeAddI
  00379	ba 80 0d 00 00	 mov	 edx, 3456		; 00000d80H
  0037e	66 3b 15 94 00
	00 00		 cmp	 dx, WORD PTR ?g_iMetaTable@@3VIMetaTable@@A+148
  00385	74 2c		 je	 SHORT $LN85@InvokeAddI
  00387	68 00 00 00 00	 push	 OFFSET ??_C@_0BA@ENJOCHIO@LoadResourceDLL@
  0038c	50		 push	 eax
  0038d	c7 05 90 00 00
	00 00 00 00 00	 mov	 DWORD PTR ?g_iMetaTable@@3VIMetaTable@@A+144, 0
  00397	ff 15 00 00 00
	00		 call	 DWORD PTR __imp__GetProcAddress@8
  0039d	b9 80 0d 00 00	 mov	 ecx, 3456		; 00000d80H
  003a2	a3 90 00 00 00	 mov	 DWORD PTR ?g_iMetaTable@@3VIMetaTable@@A+144, eax
  003a7	66 89 0d 94 00
	00 00		 mov	 WORD PTR ?g_iMetaTable@@3VIMetaTable@@A+148, cx
  003ae	8b 4d 08	 mov	 ecx, DWORD PTR _p1$1$[ebp]
  003b1	eb 05		 jmp	 SHORT $LN56@InvokeAddI
$LN85@InvokeAddI:
  003b3	a1 90 00 00 00	 mov	 eax, DWORD PTR ?g_iMetaTable@@3VIMetaTable@@A+144
$LN56@InvokeAddI:
  003b8	85 c0		 test	 eax, eax
  003ba	74 09		 je	 SHORT $LN57@InvokeAddI
  003bc	56		 push	 esi
  003bd	51		 push	 ecx
  003be	ff d0		 call	 eax
  003c0	83 c4 08	 add	 esp, 8
  003c3	eb 08		 jmp	 SHORT $LN89@InvokeAddI
$LN57@InvokeAddI:
  003c5	e8 00 00 00 00	 call	 ?AfxGetStaticModuleState@@YGPAVAFX_MODULE_STATE@@XZ ; AfxGetStaticModuleState
  003ca	8b 40 08	 mov	 eax, DWORD PTR [eax+8]
$LN89@InvokeAddI:
; File C:\Program Files (x86)\Microsoft Visual Studio\2019\Community\VC\Tools\MSVC\14.29.30133\atlmfc\include\afxwin1.inl

; 25   : 		return afxCurrentResourceHandle; }

  003cd	89 45 08	 mov	 DWORD PTR $T3[ebp], eax
  003d0	e8 00 00 00 00	 call	 ?AfxGetModuleState@@YGPAVAFX_MODULE_STATE@@XZ ; AfxGetModuleState
; File D:\git\src\IBK\IBK_DRFN\ProjSrc\SrcChartEx\ChartOCX\Include_Chart\Dll_Load\IMetaTable.h

; 1032 : 		m_hInstance = AfxGetResourceHandle();

  003d5	8b 70 0c	 mov	 esi, DWORD PTR [eax+12]
  003d8	89 75 dc	 mov	 DWORD PTR ___mlrs__$[ebp], esi
; File C:\Program Files (x86)\Microsoft Visual Studio\2019\Community\VC\Tools\MSVC\14.29.30133\atlmfc\include\afxwin1.inl

; 27   : 	{ ASSERT(hInstResource != NULL); afxCurrentResourceHandle = hInstResource; }

  003db	e8 00 00 00 00	 call	 ?AfxGetModuleState@@YGPAVAFX_MODULE_STATE@@XZ ; AfxGetModuleState
  003e0	8b 4d 08	 mov	 ecx, DWORD PTR $T3[ebp]
  003e3	89 48 0c	 mov	 DWORD PTR [eax+12], ecx
; File D:\git\src\IBK\IBK_DRFN\ProjSrc\SrcChartEx\ChartOCX\AddInManager\ChartCommonAddIn\YScaleSetUpAddInImp.cpp

; 274  : 	if( dlgYScaleSetUp.DoModal() == IDOK )

  003e6	8d 8d a4 fe ff
	ff		 lea	 ecx, DWORD PTR _dlgYScaleSetUp$[ebp]
  003ec	c6 45 fc 05	 mov	 BYTE PTR __$EHRec$[ebp+8], 5
  003f0	e8 00 00 00 00	 call	 ?DoModal@CDialog@@UAEHXZ ; CDialog::DoModal
  003f5	83 f8 01	 cmp	 eax, 1
  003f8	75 7c		 jne	 SHORT $LN9@InvokeAddI

; 275  : 	{
; 276  : 		//          .
; 277  : 		if( m_nYScaleMaxMinSetupType == 1 )

  003fa	39 47 70	 cmp	 DWORD PTR [edi+112], eax
  003fd	75 4e		 jne	 SHORT $LN11@InvokeAddI

; 278  : 		{
; 279  : 			m_eYScaleSetupApplyState = YSCALE_APPLY_STATE::APPLY_PERCENT;
; 280  : 
; 281  : 			m_dYScaleMaxValue =	m_dYesterdayClosePrice * ( 1 + m_dYScaleMaxPercentValue / 100 );

  003ff	f2 0f 10 97 88
	00 00 00	 movsd	 xmm2, QWORD PTR [edi+136]

; 282  : 			m_dYScaleMinValue =	m_dYesterdayClosePrice * ( 1 + m_dYScaleMinPercentValue / 100 );

  00407	b8 02 00 00 00	 mov	 eax, 2
  0040c	f2 0f 10 9f 90
	00 00 00	 movsd	 xmm3, QWORD PTR [edi+144]
  00414	f2 0f 5e 15 00
	00 00 00	 divsd	 xmm2, QWORD PTR __real@4059000000000000
  0041c	f2 0f 5e 1d 00
	00 00 00	 divsd	 xmm3, QWORD PTR __real@4059000000000000
  00424	f2 0f 58 15 00
	00 00 00	 addsd	 xmm2, QWORD PTR __real@3ff0000000000000
  0042c	f2 0f 58 1d 00
	00 00 00	 addsd	 xmm3, QWORD PTR __real@3ff0000000000000
  00434	f2 0f 59 57 58	 mulsd	 xmm2, QWORD PTR [edi+88]
  00439	f2 0f 59 5f 58	 mulsd	 xmm3, QWORD PTR [edi+88]
  0043e	f2 0f 11 57 78	 movsd	 QWORD PTR [edi+120], xmm2
  00443	f2 0f 11 9f 80
	00 00 00	 movsd	 QWORD PTR [edi+128], xmm3

; 283  : 		}

  0044b	eb 12		 jmp	 SHORT $LN12@InvokeAddI
$LN11@InvokeAddI:

; 284  : 		
; 285  : 		else
; 286  : 			m_eYScaleSetupApplyState = YSCALE_APPLY_STATE::APPLY_VALUE;

  0044d	f2 0f 10 57 78	 movsd	 xmm2, QWORD PTR [edi+120]
  00452	b8 01 00 00 00	 mov	 eax, 1
  00457	f2 0f 10 9f 80
	00 00 00	 movsd	 xmm3, QWORD PTR [edi+128]
$LN12@InvokeAddI:

; 287  : 
; 288  : 
; 289  : 		// Block  .
; 290  : 		pIBlock->SetVScaleMinMaxSetting( m_nVertScaleGroupIndex, TRUE,

  0045f	83 ec 10	 sub	 esp, 16			; 00000010H
  00462	89 47 38	 mov	 DWORD PTR [edi+56], eax
  00465	f2 0f 11 54 24
	08		 movsd	 QWORD PTR [esp+8], xmm2
  0046b	f2 0f 11 1c 24	 movsd	 QWORD PTR [esp], xmm3
  00470	6a 02		 push	 2
  00472	6a 01		 push	 1

; 291  : 										 CScaleBaseData::VERTMINMAXTYPE::VERT_MINMAX_OF_USER,
; 292  : 										 m_dYScaleMinValue, m_dYScaleMaxValue);
; 293  : 	}

  00474	eb 26		 jmp	 SHORT $LN90@InvokeAddI
$LN9@InvokeAddI:

; 294  : 
; 295  : 	//    
; 296  : 	else
; 297  : 	{
; 298  : 		m_eYScaleSetupApplyState = YSCALE_APPLY_STATE::APPLY_CANCEL;
; 299  : 
; 300  : 		// Block  .
; 301  : 		pIBlock->SetVScaleMinMaxSetting( m_nVertScaleGroupIndex, FALSE,

  00476	f2 0f 10 47 78	 movsd	 xmm0, QWORD PTR [edi+120]
  0047b	83 ec 10	 sub	 esp, 16			; 00000010H
  0047e	c7 47 38 00 00
	00 00		 mov	 DWORD PTR [edi+56], 0
  00485	f2 0f 11 44 24
	08		 movsd	 QWORD PTR [esp+8], xmm0
  0048b	f2 0f 10 87 80
	00 00 00	 movsd	 xmm0, QWORD PTR [edi+128]
  00493	f2 0f 11 04 24	 movsd	 QWORD PTR [esp], xmm0
  00498	6a 00		 push	 0
  0049a	6a 00		 push	 0
$LN90@InvokeAddI:

; 302  : 										 CScaleBaseData::VERTMINMAXTYPE::VERT_MINMAX_OF_VIEW,
; 303  : 										 m_dYScaleMinValue, m_dYScaleMaxValue);
; 304  : 	}
; 305  : 
; 306  : 	// (2006/11/25 - Seung-Won, Bae) Notify ToolState.
; 307  : 	m_pIChartOCX->OnToolStateChanged( CToolOptionInfo::T_PRICE_YSCALE_SETUP, FALSE);

  0049c	8b 03		 mov	 eax, DWORD PTR [ebx]
  0049e	8b cb		 mov	 ecx, ebx
  004a0	ff 77 3c	 push	 DWORD PTR [edi+60]
  004a3	ff 50 54	 call	 DWORD PTR [eax+84]
  004a6	8b 4f 04	 mov	 ecx, DWORD PTR [edi+4]
  004a9	6a 00		 push	 0
  004ab	6a 69		 push	 105			; 00000069H
  004ad	8b 01		 mov	 eax, DWORD PTR [ecx]
  004af	ff 90 b0 01 00
	00		 call	 DWORD PTR [eax+432]

; 308  : 
; 309  : 	pIBlock->Release();

  004b5	8b 03		 mov	 eax, DWORD PTR [ebx]
  004b7	53		 push	 ebx
  004b8	ff 50 08	 call	 DWORD PTR [eax+8]

; 310  : 	pIBlock = NULL;
; 311  : 				
; 312  : 	m_pIChartOCX->InvalidateControl();

  004bb	8b 4f 04	 mov	 ecx, DWORD PTR [edi+4]
  004be	8b 01		 mov	 eax, DWORD PTR [ecx]
  004c0	ff 50 38	 call	 DWORD PTR [eax+56]

; 314  : 	return TRUE;

  004c3	bf 01 00 00 00	 mov	 edi, 1
; File D:\git\src\IBK\IBK_DRFN\ProjSrc\SrcChartEx\ChartOCX\Include_Chart\Dll_Load\IMetaTable.h

; 1036 : 	{

  004c8	c6 45 fc 06	 mov	 BYTE PTR __$EHRec$[ebp+8], 6
; File C:\Program Files (x86)\Microsoft Visual Studio\2019\Community\VC\Tools\MSVC\14.29.30133\atlmfc\include\afxwin1.inl

; 27   : 	{ ASSERT(hInstResource != NULL); afxCurrentResourceHandle = hInstResource; }

  004cc	e8 00 00 00 00	 call	 ?AfxGetModuleState@@YGPAVAFX_MODULE_STATE@@XZ ; AfxGetModuleState
; File D:\git\src\IBK\IBK_DRFN\ProjSrc\SrcChartEx\ChartOCX\AddInManager\ChartCommonAddIn\YScaleSetUpAddInImp.cpp

; 314  : 	return TRUE;

  004d1	8d 4d f0	 lea	 ecx, DWORD PTR _strPacketName$[ebp]
; File C:\Program Files (x86)\Microsoft Visual Studio\2019\Community\VC\Tools\MSVC\14.29.30133\atlmfc\include\afxwin1.inl

; 27   : 	{ ASSERT(hInstResource != NULL); afxCurrentResourceHandle = hInstResource; }

  004d4	89 70 0c	 mov	 DWORD PTR [eax+12], esi
; File D:\git\src\IBK\IBK_DRFN\ProjSrc\SrcChartEx\ChartOCX\AddInManager\ChartCommonAddIn\YScaleSetUpAddInImp.cpp

; 314  : 	return TRUE;

  004d7	ff 15 00 00 00
	00		 call	 DWORD PTR __imp_??1?$CStringT@DV?$StrTraitMFC_DLL@DV?$ChTraitsCRT@D@ATL@@@@@ATL@@QAE@XZ
; File D:\git\src\IBK\IBK_DRFN\ProjSrc\SrcChartEx\ChartOCX\AddInManager\Include_AddIn\I000000\_IString.h

; 45   : 		if( m_pIStrData)

  004dd	8b 4d e4	 mov	 ecx, DWORD PTR _szType$2$[ebp]
  004e0	c6 45 fc 07	 mov	 BYTE PTR __$EHRec$[ebp+8], 7
  004e4	85 c9		 test	 ecx, ecx
  004e6	74 06		 je	 SHORT $LN71@InvokeAddI

; 46   : 		{
; 47   : 			m_pIStrData->Release();

  004e8	8b 01		 mov	 eax, DWORD PTR [ecx]
  004ea	51		 push	 ecx
  004eb	ff 50 08	 call	 DWORD PTR [eax+8]
$LN71@InvokeAddI:
  004ee	8d 4d b0	 lea	 ecx, DWORD PTR _dlgYScaleSetUp$[ebp+268]
  004f1	ff 15 00 00 00
	00		 call	 DWORD PTR __imp_??1?$CStringT@DV?$StrTraitMFC_DLL@DV?$ChTraitsCRT@D@ATL@@@@@ATL@@QAE@XZ
  004f7	8d 4d ac	 lea	 ecx, DWORD PTR _dlgYScaleSetUp$[ebp+264]
  004fa	ff 15 00 00 00
	00		 call	 DWORD PTR __imp_??1?$CStringT@DV?$StrTraitMFC_DLL@DV?$ChTraitsCRT@D@ATL@@@@@ATL@@QAE@XZ
  00500	8d 8d 64 ff ff
	ff		 lea	 ecx, DWORD PTR _dlgYScaleSetUp$[ebp+192]
  00506	ff 15 00 00 00
	00		 call	 DWORD PTR __imp_??1?$CStringT@DV?$StrTraitMFC_DLL@DV?$ChTraitsCRT@D@ATL@@@@@ATL@@QAE@XZ
  0050c	8d 8d 60 ff ff
	ff		 lea	 ecx, DWORD PTR _dlgYScaleSetUp$[ebp+188]
  00512	ff 15 00 00 00
	00		 call	 DWORD PTR __imp_??1?$CStringT@DV?$StrTraitMFC_DLL@DV?$ChTraitsCRT@D@ATL@@@@@ATL@@QAE@XZ
  00518	8d 8d 5c ff ff
	ff		 lea	 ecx, DWORD PTR _dlgYScaleSetUp$[ebp+184]
  0051e	ff 15 00 00 00
	00		 call	 DWORD PTR __imp_??1?$CStringT@DV?$StrTraitMFC_DLL@DV?$ChTraitsCRT@D@ATL@@@@@ATL@@QAE@XZ
  00524	8d 8d 58 ff ff
	ff		 lea	 ecx, DWORD PTR _dlgYScaleSetUp$[ebp+180]
  0052a	ff 15 00 00 00
	00		 call	 DWORD PTR __imp_??1?$CStringT@DV?$StrTraitMFC_DLL@DV?$ChTraitsCRT@D@ATL@@@@@ATL@@QAE@XZ
  00530	8d 8d 54 ff ff
	ff		 lea	 ecx, DWORD PTR _dlgYScaleSetUp$[ebp+176]
  00536	ff 15 00 00 00
	00		 call	 DWORD PTR __imp_??1?$CStringT@DV?$StrTraitMFC_DLL@DV?$ChTraitsCRT@D@ATL@@@@@ATL@@QAE@XZ
  0053c	8d 8d a4 fe ff
	ff		 lea	 ecx, DWORD PTR _dlgYScaleSetUp$[ebp]
  00542	e8 00 00 00 00	 call	 ??1CDialog@@UAE@XZ	; CDialog::~CDialog
  00547	8b 75 e0	 mov	 esi, DWORD PTR _szGraphName$1$[ebp]
  0054a	e9 c7 fb ff ff	 jmp	 $LN75@InvokeAddI
_TEXT	ENDS
;	COMDAT text$x
text$x	SEGMENT
__unwindfunclet$?InvokeAddInStr@CYScaleSetUpAddInImp@@MAEHPBD0@Z$0:
  00000	8d 4d d0	 lea	 ecx, DWORD PTR _szGraphName$[ebp]
  00003	e9 00 00 00 00	 jmp	 ??1ILPCSTR000000@@QAE@XZ ; ILPCSTR000000::~ILPCSTR000000
__unwindfunclet$?InvokeAddInStr@CYScaleSetUpAddInImp@@MAEHPBD0@Z$1:
  00008	8d 8d a4 fe ff
	ff		 lea	 ecx, DWORD PTR _dlgYScaleSetUp$[ebp]
  0000e	e9 00 00 00 00	 jmp	 ??1CDlgYScaleSetUp@@UAE@XZ
__unwindfunclet$?InvokeAddInStr@CYScaleSetUpAddInImp@@MAEHPBD0@Z$3:
  00013	8d 4d c8	 lea	 ecx, DWORD PTR _szType$[ebp]
  00016	e9 00 00 00 00	 jmp	 ??1ILPCSTR000000@@QAE@XZ ; ILPCSTR000000::~ILPCSTR000000
__unwindfunclet$?InvokeAddInStr@CYScaleSetUpAddInImp@@MAEHPBD0@Z$4:
  0001b	8d 4d f0	 lea	 ecx, DWORD PTR _strPacketName$[ebp]
  0001e	ff 25 00 00 00
	00		 jmp	 DWORD PTR __imp_??1?$CStringT@DV?$StrTraitMFC_DLL@DV?$ChTraitsCRT@D@ATL@@@@@ATL@@QAE@XZ
__unwindfunclet$?InvokeAddInStr@CYScaleSetUpAddInImp@@MAEHPBD0@Z$7:
  00024	8d 4d 08	 lea	 ecx, DWORD PTR $T4[ebp]
  00027	ff 25 00 00 00
	00		 jmp	 DWORD PTR __imp_??1?$CStringT@DV?$StrTraitMFC_DLL@DV?$ChTraitsCRT@D@ATL@@@@@ATL@@QAE@XZ
__unwindfunclet$?InvokeAddInStr@CYScaleSetUpAddInImp@@MAEHPBD0@Z$6:
  0002d	8d 4d dc	 lea	 ecx, DWORD PTR ___mlrs__$[ebp]
  00030	e9 00 00 00 00	 jmp	 ??1CMultiLanguageResourceSetter@@QAE@XZ ; CMultiLanguageResourceSetter::~CMultiLanguageResourceSetter
  00035	cc		 int	 3
  00036	cc		 int	 3
  00037	cc		 int	 3
  00038	cc		 int	 3
  00039	cc		 int	 3
__ehhandler$?InvokeAddInStr@CYScaleSetUpAddInImp@@MAEHPBD0@Z:
  0003a	90		 npad	 1
  0003b	90		 npad	 1
  0003c	8b 54 24 08	 mov	 edx, DWORD PTR [esp+8]
  00040	8d 42 0c	 lea	 eax, DWORD PTR [edx+12]
  00043	8b 8a a0 fe ff
	ff		 mov	 ecx, DWORD PTR [edx-352]
  00049	33 c8		 xor	 ecx, eax
  0004b	e8 00 00 00 00	 call	 @__security_check_cookie@4
  00050	b8 00 00 00 00	 mov	 eax, OFFSET __ehfuncinfo$?InvokeAddInStr@CYScaleSetUpAddInImp@@MAEHPBD0@Z
  00055	e9 00 00 00 00	 jmp	 ___CxxFrameHandler3
text$x	ENDS
?InvokeAddInStr@CYScaleSetUpAddInImp@@MAEHPBD0@Z ENDP	; CYScaleSetUpAddInImp::InvokeAddInStr
; Function compile flags: /Ogtp
; File D:\git\src\IBK\IBK_DRFN\ProjSrc\SrcChartEx\ChartOCX\AddInManager\ChartCommonAddIn\YScaleSetUpAddInImp.cpp
; File C:\Program Files (x86)\Microsoft Visual Studio\2019\Community\VC\Tools\MSVC\14.29.30133\atlmfc\include\atlsimpstr.h
; File D:\git\src\IBK\IBK_DRFN\ProjSrc\SrcChartEx\ChartOCX\AddInManager\ChartCommonAddIn\YScaleSetUpAddInImp.cpp
;	COMDAT ?SetYScaleInfo@CYScaleSetUpAddInImp@@IAEHPAUIBlock000000@@@Z
_TEXT	SEGMENT
_dDataType$ = -8					; size = 8
_pIPacket$ = 8						; size = 4
_pIBlock$ = 8						; size = 4
?SetYScaleInfo@CYScaleSetUpAddInImp@@IAEHPAUIBlock000000@@@Z PROC ; CYScaleSetUpAddInImp::SetYScaleInfo, COMDAT
; _this$ = ecx

; 529  : {

  00000	55		 push	 ebp
  00001	8b ec		 mov	 ebp, esp
  00003	83 ec 08	 sub	 esp, 8
  00006	56		 push	 esi
  00007	8b f1		 mov	 esi, ecx
  00009	57		 push	 edi
; File C:\Program Files (x86)\Microsoft Visual Studio\2019\Community\VC\Tools\MSVC\14.29.30133\atlmfc\include\atlsimpstr.h

; 533  : 		return( GetLength() == 0 );

  0000a	8b 46 48	 mov	 eax, DWORD PTR [esi+72]
  0000d	83 78 f4 00	 cmp	 DWORD PTR [eax-12], 0
; File D:\git\src\IBK\IBK_DRFN\ProjSrc\SrcChartEx\ChartOCX\AddInManager\ChartCommonAddIn\YScaleSetUpAddInImp.cpp

; 530  : 	if( m_strGraphName.IsEmpty() )

  00011	74 51		 je	 SHORT $LN5@SetYScaleI

; 531  : 		return FALSE;
; 532  : 
; 533  : 	if( !pIBlock) return FALSE;

  00013	8b 7d 08	 mov	 edi, DWORD PTR _pIBlock$[ebp]
  00016	85 ff		 test	 edi, edi
  00018	74 4a		 je	 SHORT $LN5@SetYScaleI

; 534  : 
; 535  : 
; 536  : 	// 3. Block VScale ,  .
; 537  : 	pIBlock->GetVScaleGroupMinMax( m_nVertScaleGroupIndex, m_dYScaleMinValue, m_dYScaleMaxValue );

  0001a	8b 17		 mov	 edx, DWORD PTR [edi]
  0001c	8d 86 80 00 00
	00		 lea	 eax, DWORD PTR [esi+128]
  00022	50		 push	 eax
  00023	8d 86 88 00 00
	00		 lea	 eax, DWORD PTR [esi+136]
  00029	8b cf		 mov	 ecx, edi
  0002b	50		 push	 eax
  0002c	ff 76 44	 push	 DWORD PTR [esi+68]
  0002f	ff 52 48	 call	 DWORD PTR [edx+72]

; 538  : 	
; 539  : 	
; 540  : 	// 4.     Packet .
; 541  : 	IPacket *pIPacket = NULL;
; 542  : 	double dDataType = 0.0L;
; 543  : 	BOOL bResult = pIBlock->GetVScaleGroupHeadPacketAndDataType( m_nVertScaleGroupIndex, pIPacket, dDataType );

  00032	8b 07		 mov	 eax, DWORD PTR [edi]
  00034	8d 4d f8	 lea	 ecx, DWORD PTR _dDataType$[ebp]
  00037	51		 push	 ecx
  00038	8d 4d 08	 lea	 ecx, DWORD PTR _pIPacket$[ebp]
  0003b	c7 45 08 00 00
	00 00		 mov	 DWORD PTR _pIPacket$[ebp], 0
  00042	51		 push	 ecx
  00043	ff 76 44	 push	 DWORD PTR [esi+68]
  00046	0f 57 c0	 xorps	 xmm0, xmm0
  00049	8b cf		 mov	 ecx, edi
  0004b	f2 0f 11 45 f8	 movsd	 QWORD PTR _dDataType$[ebp], xmm0
  00050	ff 50 4c	 call	 DWORD PTR [eax+76]

; 544  : 	if( !bResult)

  00053	85 c0		 test	 eax, eax
  00055	75 17		 jne	 SHORT $LN4@SetYScaleI

; 545  : 	{
; 546  : 		if( pIPacket) pIPacket->Release();

  00057	8b 4d 08	 mov	 ecx, DWORD PTR _pIPacket$[ebp]
  0005a	85 c9		 test	 ecx, ecx
  0005c	74 06		 je	 SHORT $LN5@SetYScaleI
  0005e	8b 01		 mov	 eax, DWORD PTR [ecx]
  00060	51		 push	 ecx
  00061	ff 50 08	 call	 DWORD PTR [eax+8]
$LN5@SetYScaleI:

; 547  : 		return FALSE;

  00064	5f		 pop	 edi
  00065	33 c0		 xor	 eax, eax

; 580  : }

  00067	5e		 pop	 esi
  00068	8b e5		 mov	 esp, ebp
  0006a	5d		 pop	 ebp
  0006b	c2 04 00	 ret	 4
$LN4@SetYScaleI:

; 548  : 	}
; 549  : 
; 550  : 
; 551  : 	// 5. Packet         .
; 552  : 	if( pIPacket )

  0006e	83 7d 08 00	 cmp	 DWORD PTR _pIPacket$[ebp], 0
  00072	0f 84 e5 00 00
	00		 je	 $LN6@SetYScaleI

; 553  : 	{
; 554  : 		//  (Precision)   String   .
; 555  : 		int nDecimal = 0;
; 556  : 
; 557  : 		if( dDataType != 0)

  00078	f2 0f 10 5d f8	 movsd	 xmm3, QWORD PTR _dDataType$[ebp]
  0007d	33 c9		 xor	 ecx, ecx
  0007f	66 0f 2e 1d 00
	00 00 00	 ucomisd xmm3, QWORD PTR __real@0000000000000000
  00087	9f		 lahf
  00088	f6 c4 44	 test	 ah, 68			; 00000044H
  0008b	0f 8b 87 00 00
	00		 jnp	 $LN7@SetYScaleI

; 558  : 		{
; 559  : 			m_dYesterdayClosePrice = int( m_dYesterdayClosePrice / dDataType + 0.5) * dDataType;

  00091	f2 0f 10 46 60	 movsd	 xmm0, QWORD PTR [esi+96]
  00096	0f 57 c9	 xorps	 xmm1, xmm1
  00099	f2 0f 5e c3	 divsd	 xmm0, xmm3
  0009d	f2 0f 10 15 00
	00 00 00	 movsd	 xmm2, QWORD PTR __real@3fe0000000000000
  000a5	f2 0f 58 c2	 addsd	 xmm0, xmm2
  000a9	f2 0f 2c c0	 cvttsd2si eax, xmm0
  000ad	0f 57 c0	 xorps	 xmm0, xmm0
  000b0	f2 0f 2a c0	 cvtsi2sd xmm0, eax
  000b4	f2 0f 59 c3	 mulsd	 xmm0, xmm3
  000b8	f2 0f 11 46 60	 movsd	 QWORD PTR [esi+96], xmm0

; 560  : 			m_dUpperBound = int( m_dUpperBound / dDataType + 0.5) * dDataType;

  000bd	f2 0f 10 46 68	 movsd	 xmm0, QWORD PTR [esi+104]
  000c2	f2 0f 5e c3	 divsd	 xmm0, xmm3
  000c6	f2 0f 58 c2	 addsd	 xmm0, xmm2
  000ca	f2 0f 2c c0	 cvttsd2si eax, xmm0

; 561  : 			m_dLowerBound = int( m_dLowerBound / dDataType + 0.5) * dDataType;
; 562  : 			
; 563  : 			// double Int    Int     
; 564  : 			// 100   .
; 565  : 			nDecimal = ( int)( ( log10( dDataType) * 100) / 100);	

  000ce	0f 28 c3	 movaps	 xmm0, xmm3
  000d1	f2 0f 2a c8	 cvtsi2sd xmm1, eax
  000d5	f2 0f 59 cb	 mulsd	 xmm1, xmm3
  000d9	f2 0f 11 4e 68	 movsd	 QWORD PTR [esi+104], xmm1
  000de	f2 0f 10 4e 70	 movsd	 xmm1, QWORD PTR [esi+112]
  000e3	f2 0f 5e cb	 divsd	 xmm1, xmm3
  000e7	f2 0f 58 ca	 addsd	 xmm1, xmm2
  000eb	f2 0f 2c c1	 cvttsd2si eax, xmm1
  000ef	0f 57 c9	 xorps	 xmm1, xmm1
  000f2	f2 0f 2a c8	 cvtsi2sd xmm1, eax
  000f6	f2 0f 59 cb	 mulsd	 xmm1, xmm3
  000fa	f2 0f 11 4e 70	 movsd	 QWORD PTR [esi+112], xmm1
  000ff	e8 00 00 00 00	 call	 __libm_sse2_log10_precise
  00104	f2 0f 59 05 00
	00 00 00	 mulsd	 xmm0, QWORD PTR __real@4059000000000000
  0010c	f2 0f 5e 05 00
	00 00 00	 divsd	 xmm0, QWORD PTR __real@4059000000000000
  00114	f2 0f 2c c8	 cvttsd2si ecx, xmm0
$LN7@SetYScaleI:

; 566  : 		}
; 567  : 	
; 568  : 		if( 0 <= nDecimal)

  00118	83 c6 58	 add	 esi, 88			; 00000058H
  0011b	85 c9		 test	 ecx, ecx
  0011d	78 23		 js	 SHORT $LN8@SetYScaleI

; 569  : 			m_strFormat = "%.0f";

  0011f	68 00 00 00 00	 push	 OFFSET ??_C@_04GHNNFJCK@?$CF?40f@
  00124	8b ce		 mov	 ecx, esi
  00126	ff 15 00 00 00
	00		 call	 DWORD PTR __imp_??4?$CStringT@DV?$StrTraitMFC_DLL@DV?$ChTraitsCRT@D@ATL@@@@@ATL@@QAEAAV01@PBD@Z

; 572  : 		
; 573  : #ifdef _DEBUG
; 574  : 	TRACE( "%f	%f	%f\r\n", m_dYesterdayClosePrice, m_dUpperBound, m_dLowerBound);
; 575  : #endif
; 576  : 		pIPacket->Release();

  0012c	8b 45 08	 mov	 eax, DWORD PTR _pIPacket$[ebp]
  0012f	50		 push	 eax
  00130	8b 08		 mov	 ecx, DWORD PTR [eax]
  00132	ff 51 08	 call	 DWORD PTR [ecx+8]
  00135	5f		 pop	 edi

; 577  : 	}
; 578  : 
; 579  : 	return TRUE;

  00136	b8 01 00 00 00	 mov	 eax, 1

; 580  : }

  0013b	5e		 pop	 esi
  0013c	8b e5		 mov	 esp, ebp
  0013e	5d		 pop	 ebp
  0013f	c2 04 00	 ret	 4
$LN8@SetYScaleI:

; 570  : 		else
; 571  : 			m_strFormat.Format( "%%.%df", -nDecimal);

  00142	f7 d9		 neg	 ecx
  00144	51		 push	 ecx
  00145	68 00 00 00 00	 push	 OFFSET ??_C@_06DNBDMDIL@?$CF?$CF?4?$CFdf@
  0014a	56		 push	 esi
  0014b	ff 15 00 00 00
	00		 call	 DWORD PTR __imp_?Format@?$CStringT@DV?$StrTraitMFC_DLL@DV?$ChTraitsCRT@D@ATL@@@@@ATL@@QAAXPBDZZ

; 572  : 		
; 573  : #ifdef _DEBUG
; 574  : 	TRACE( "%f	%f	%f\r\n", m_dYesterdayClosePrice, m_dUpperBound, m_dLowerBound);
; 575  : #endif
; 576  : 		pIPacket->Release();

  00151	8b 45 08	 mov	 eax, DWORD PTR _pIPacket$[ebp]
  00154	83 c4 0c	 add	 esp, 12			; 0000000cH
  00157	8b 08		 mov	 ecx, DWORD PTR [eax]
  00159	50		 push	 eax
  0015a	ff 51 08	 call	 DWORD PTR [ecx+8]
$LN6@SetYScaleI:

; 577  : 	}
; 578  : 
; 579  : 	return TRUE;

  0015d	5f		 pop	 edi
  0015e	b8 01 00 00 00	 mov	 eax, 1

; 580  : }

  00163	5e		 pop	 esi
  00164	8b e5		 mov	 esp, ebp
  00166	5d		 pop	 ebp
  00167	c2 04 00	 ret	 4
?SetYScaleInfo@CYScaleSetUpAddInImp@@IAEHPAUIBlock000000@@@Z ENDP ; CYScaleSetUpAddInImp::SetYScaleInfo
_TEXT	ENDS
; Function compile flags: /Ogtp
; File D:\git\src\IBK\IBK_DRFN\ProjSrc\SrcChartEx\ChartOCX\AddInManager\ChartCommonAddIn\YScaleSetUpAddInImp.cpp
;	COMDAT ?SetYesterdayClosePrice@CYScaleSetUpAddInImp@@IAEXABV?$CStringT@DV?$StrTraitMFC_DLL@DV?$ChTraitsCRT@D@ATL@@@@@ATL@@@Z
_TEXT	SEGMENT
$T2 = -24						; size = 4
$T3 = -24						; size = 4
_strPrice$ = -20					; size = 4
$T4 = -16						; size = 4
$T5 = -16						; size = 4
$T6 = -16						; size = 4
__$EHRec$ = -12						; size = 12
_strTemp$ = 8						; size = 4
_strData$ = 8						; size = 4
?SetYesterdayClosePrice@CYScaleSetUpAddInImp@@IAEXABV?$CStringT@DV?$StrTraitMFC_DLL@DV?$ChTraitsCRT@D@ATL@@@@@ATL@@@Z PROC ; CYScaleSetUpAddInImp::SetYesterdayClosePrice, COMDAT
; _this$ = ecx

; 514  : {

  00000	55		 push	 ebp
  00001	8b ec		 mov	 ebp, esp
  00003	6a ff		 push	 -1
  00005	68 00 00 00 00	 push	 __ehhandler$?SetYesterdayClosePrice@CYScaleSetUpAddInImp@@IAEXABV?$CStringT@DV?$StrTraitMFC_DLL@DV?$ChTraitsCRT@D@ATL@@@@@ATL@@@Z
  0000a	64 a1 00 00 00
	00		 mov	 eax, DWORD PTR fs:0
  00010	50		 push	 eax
  00011	83 ec 0c	 sub	 esp, 12			; 0000000cH
  00014	56		 push	 esi
  00015	a1 00 00 00 00	 mov	 eax, DWORD PTR ___security_cookie
  0001a	33 c5		 xor	 eax, ebp
  0001c	50		 push	 eax
  0001d	8d 45 f4	 lea	 eax, DWORD PTR __$EHRec$[ebp]
  00020	64 a3 00 00 00
	00		 mov	 DWORD PTR fs:0, eax
  00026	8b f1		 mov	 esi, ecx

; 515  : 	CString strTemp = strData;

  00028	ff 75 08	 push	 DWORD PTR _strData$[ebp]
  0002b	8d 4d 08	 lea	 ecx, DWORD PTR _strTemp$[ebp]
  0002e	ff 15 00 00 00
	00		 call	 DWORD PTR __imp_??0?$CStringT@DV?$StrTraitMFC_DLL@DV?$ChTraitsCRT@D@ATL@@@@@ATL@@QAE@ABV01@@Z

; 516  : 	m_strStockCode = CDataConversion::GetStringData(strTemp, ":");	//

  00034	68 00 00 00 00	 push	 OFFSET ??_C@_01JLIPDDHJ@?3@
  00039	8d 4d f0	 lea	 ecx, DWORD PTR $T6[ebp]
  0003c	c7 45 fc 00 00
	00 00		 mov	 DWORD PTR __$EHRec$[ebp+8], 0
  00043	ff 15 00 00 00
	00		 call	 DWORD PTR __imp_??0?$CStringT@DV?$StrTraitMFC_DLL@DV?$ChTraitsCRT@D@ATL@@@@@ATL@@QAE@PBD@Z
  00049	6a 01		 push	 1
  0004b	8d 45 f0	 lea	 eax, DWORD PTR $T6[ebp]
  0004e	c6 45 fc 01	 mov	 BYTE PTR __$EHRec$[ebp+8], 1
  00052	50		 push	 eax
  00053	8d 45 08	 lea	 eax, DWORD PTR _strTemp$[ebp]
  00056	50		 push	 eax
  00057	8d 45 e8	 lea	 eax, DWORD PTR $T3[ebp]
  0005a	50		 push	 eax
  0005b	e8 00 00 00 00	 call	 ?GetStringData@CDataConversion@@SA?AV?$CStringT@DV?$StrTraitMFC_DLL@DV?$ChTraitsCRT@D@ATL@@@@@ATL@@AAV23@ABV23@_N@Z ; CDataConversion::GetStringData
  00060	83 c4 10	 add	 esp, 16			; 00000010H
  00063	50		 push	 eax
  00064	8d 4e 4c	 lea	 ecx, DWORD PTR [esi+76]
  00067	c6 45 fc 02	 mov	 BYTE PTR __$EHRec$[ebp+8], 2
  0006b	ff 15 00 00 00
	00		 call	 DWORD PTR __imp_??4?$CStringT@DV?$StrTraitMFC_DLL@DV?$ChTraitsCRT@D@ATL@@@@@ATL@@QAEAAV01@ABV01@@Z
  00071	8d 4d e8	 lea	 ecx, DWORD PTR $T3[ebp]
  00074	ff 15 00 00 00
	00		 call	 DWORD PTR __imp_??1?$CStringT@DV?$StrTraitMFC_DLL@DV?$ChTraitsCRT@D@ATL@@@@@ATL@@QAE@XZ
  0007a	8d 4d f0	 lea	 ecx, DWORD PTR $T6[ebp]
  0007d	c6 45 fc 00	 mov	 BYTE PTR __$EHRec$[ebp+8], 0
  00081	ff 15 00 00 00
	00		 call	 DWORD PTR __imp_??1?$CStringT@DV?$StrTraitMFC_DLL@DV?$ChTraitsCRT@D@ATL@@@@@ATL@@QAE@XZ

; 517  : 	CDataConversion::GetStringData(strTemp, ":");//??

  00087	68 00 00 00 00	 push	 OFFSET ??_C@_01JLIPDDHJ@?3@
  0008c	8d 4d f0	 lea	 ecx, DWORD PTR $T5[ebp]
  0008f	ff 15 00 00 00
	00		 call	 DWORD PTR __imp_??0?$CStringT@DV?$StrTraitMFC_DLL@DV?$ChTraitsCRT@D@ATL@@@@@ATL@@QAE@PBD@Z
  00095	6a 01		 push	 1
  00097	8d 45 f0	 lea	 eax, DWORD PTR $T5[ebp]
  0009a	c6 45 fc 03	 mov	 BYTE PTR __$EHRec$[ebp+8], 3
  0009e	50		 push	 eax
  0009f	8d 45 08	 lea	 eax, DWORD PTR _strTemp$[ebp]
  000a2	50		 push	 eax
  000a3	8d 45 e8	 lea	 eax, DWORD PTR $T2[ebp]
  000a6	50		 push	 eax
  000a7	e8 00 00 00 00	 call	 ?GetStringData@CDataConversion@@SA?AV?$CStringT@DV?$StrTraitMFC_DLL@DV?$ChTraitsCRT@D@ATL@@@@@ATL@@AAV23@ABV23@_N@Z ; CDataConversion::GetStringData
  000ac	83 c4 10	 add	 esp, 16			; 00000010H
  000af	8d 4d e8	 lea	 ecx, DWORD PTR $T2[ebp]
  000b2	ff 15 00 00 00
	00		 call	 DWORD PTR __imp_??1?$CStringT@DV?$StrTraitMFC_DLL@DV?$ChTraitsCRT@D@ATL@@@@@ATL@@QAE@XZ
  000b8	8d 4d f0	 lea	 ecx, DWORD PTR $T5[ebp]
  000bb	c6 45 fc 00	 mov	 BYTE PTR __$EHRec$[ebp+8], 0
  000bf	ff 15 00 00 00
	00		 call	 DWORD PTR __imp_??1?$CStringT@DV?$StrTraitMFC_DLL@DV?$ChTraitsCRT@D@ATL@@@@@ATL@@QAE@XZ

; 518  : 	CString strPrice = CDataConversion::GetStringData(strTemp, ":");	//

  000c5	68 00 00 00 00	 push	 OFFSET ??_C@_01JLIPDDHJ@?3@
  000ca	8d 4d f0	 lea	 ecx, DWORD PTR $T4[ebp]
  000cd	ff 15 00 00 00
	00		 call	 DWORD PTR __imp_??0?$CStringT@DV?$StrTraitMFC_DLL@DV?$ChTraitsCRT@D@ATL@@@@@ATL@@QAE@PBD@Z
  000d3	6a 01		 push	 1
  000d5	8d 45 f0	 lea	 eax, DWORD PTR $T4[ebp]
  000d8	c6 45 fc 04	 mov	 BYTE PTR __$EHRec$[ebp+8], 4
  000dc	50		 push	 eax
  000dd	8d 45 08	 lea	 eax, DWORD PTR _strTemp$[ebp]
  000e0	50		 push	 eax
  000e1	8d 45 ec	 lea	 eax, DWORD PTR _strPrice$[ebp]
  000e4	50		 push	 eax
  000e5	e8 00 00 00 00	 call	 ?GetStringData@CDataConversion@@SA?AV?$CStringT@DV?$StrTraitMFC_DLL@DV?$ChTraitsCRT@D@ATL@@@@@ATL@@AAV23@ABV23@_N@Z ; CDataConversion::GetStringData
  000ea	83 c4 10	 add	 esp, 16			; 00000010H
  000ed	8d 4d f0	 lea	 ecx, DWORD PTR $T4[ebp]
  000f0	ff 15 00 00 00
	00		 call	 DWORD PTR __imp_??1?$CStringT@DV?$StrTraitMFC_DLL@DV?$ChTraitsCRT@D@ATL@@@@@ATL@@QAE@XZ

; 519  : 	m_dYesterdayClosePrice = atof(strPrice);

  000f6	ff 75 ec	 push	 DWORD PTR _strPrice$[ebp]
  000f9	ff 15 00 00 00
	00		 call	 DWORD PTR __imp__atof
  000ff	83 c4 04	 add	 esp, 4

; 520  : }

  00102	8d 4d ec	 lea	 ecx, DWORD PTR _strPrice$[ebp]
  00105	dd 5e 60	 fstp	 QWORD PTR [esi+96]
  00108	ff 15 00 00 00
	00		 call	 DWORD PTR __imp_??1?$CStringT@DV?$StrTraitMFC_DLL@DV?$ChTraitsCRT@D@ATL@@@@@ATL@@QAE@XZ
  0010e	8d 4d 08	 lea	 ecx, DWORD PTR _strTemp$[ebp]
  00111	ff 15 00 00 00
	00		 call	 DWORD PTR __imp_??1?$CStringT@DV?$StrTraitMFC_DLL@DV?$ChTraitsCRT@D@ATL@@@@@ATL@@QAE@XZ
  00117	8b 4d f4	 mov	 ecx, DWORD PTR __$EHRec$[ebp]
  0011a	64 89 0d 00 00
	00 00		 mov	 DWORD PTR fs:0, ecx
  00121	59		 pop	 ecx
  00122	5e		 pop	 esi
  00123	8b e5		 mov	 esp, ebp
  00125	5d		 pop	 ebp
  00126	c2 04 00	 ret	 4
_TEXT	ENDS
;	COMDAT text$x
text$x	SEGMENT
__unwindfunclet$?SetYesterdayClosePrice@CYScaleSetUpAddInImp@@IAEXABV?$CStringT@DV?$StrTraitMFC_DLL@DV?$ChTraitsCRT@D@ATL@@@@@ATL@@@Z$0:
  00000	8d 4d 08	 lea	 ecx, DWORD PTR _strTemp$[ebp]
  00003	ff 25 00 00 00
	00		 jmp	 DWORD PTR __imp_??1?$CStringT@DV?$StrTraitMFC_DLL@DV?$ChTraitsCRT@D@ATL@@@@@ATL@@QAE@XZ
__unwindfunclet$?SetYesterdayClosePrice@CYScaleSetUpAddInImp@@IAEXABV?$CStringT@DV?$StrTraitMFC_DLL@DV?$ChTraitsCRT@D@ATL@@@@@ATL@@@Z$1:
  00009	8d 4d f0	 lea	 ecx, DWORD PTR $T6[ebp]
  0000c	ff 25 00 00 00
	00		 jmp	 DWORD PTR __imp_??1?$CStringT@DV?$StrTraitMFC_DLL@DV?$ChTraitsCRT@D@ATL@@@@@ATL@@QAE@XZ
__unwindfunclet$?SetYesterdayClosePrice@CYScaleSetUpAddInImp@@IAEXABV?$CStringT@DV?$StrTraitMFC_DLL@DV?$ChTraitsCRT@D@ATL@@@@@ATL@@@Z$2:
  00012	8d 4d e8	 lea	 ecx, DWORD PTR $T3[ebp]
  00015	ff 25 00 00 00
	00		 jmp	 DWORD PTR __imp_??1?$CStringT@DV?$StrTraitMFC_DLL@DV?$ChTraitsCRT@D@ATL@@@@@ATL@@QAE@XZ
__unwindfunclet$?SetYesterdayClosePrice@CYScaleSetUpAddInImp@@IAEXABV?$CStringT@DV?$StrTraitMFC_DLL@DV?$ChTraitsCRT@D@ATL@@@@@ATL@@@Z$3:
  0001b	8d 4d f0	 lea	 ecx, DWORD PTR $T5[ebp]
  0001e	ff 25 00 00 00
	00		 jmp	 DWORD PTR __imp_??1?$CStringT@DV?$StrTraitMFC_DLL@DV?$ChTraitsCRT@D@ATL@@@@@ATL@@QAE@XZ
__unwindfunclet$?SetYesterdayClosePrice@CYScaleSetUpAddInImp@@IAEXABV?$CStringT@DV?$StrTraitMFC_DLL@DV?$ChTraitsCRT@D@ATL@@@@@ATL@@@Z$5:
  00024	8d 4d f0	 lea	 ecx, DWORD PTR $T4[ebp]
  00027	ff 25 00 00 00
	00		 jmp	 DWORD PTR __imp_??1?$CStringT@DV?$StrTraitMFC_DLL@DV?$ChTraitsCRT@D@ATL@@@@@ATL@@QAE@XZ
  0002d	cc		 int	 3
  0002e	cc		 int	 3
  0002f	cc		 int	 3
  00030	cc		 int	 3
  00031	cc		 int	 3
__ehhandler$?SetYesterdayClosePrice@CYScaleSetUpAddInImp@@IAEXABV?$CStringT@DV?$StrTraitMFC_DLL@DV?$ChTraitsCRT@D@ATL@@@@@ATL@@@Z:
  00032	90		 npad	 1
  00033	90		 npad	 1
  00034	8b 54 24 08	 mov	 edx, DWORD PTR [esp+8]
  00038	8d 42 0c	 lea	 eax, DWORD PTR [edx+12]
  0003b	8b 4a ec	 mov	 ecx, DWORD PTR [edx-20]
  0003e	33 c8		 xor	 ecx, eax
  00040	e8 00 00 00 00	 call	 @__security_check_cookie@4
  00045	b8 00 00 00 00	 mov	 eax, OFFSET __ehfuncinfo$?SetYesterdayClosePrice@CYScaleSetUpAddInImp@@IAEXABV?$CStringT@DV?$StrTraitMFC_DLL@DV?$ChTraitsCRT@D@ATL@@@@@ATL@@@Z
  0004a	e9 00 00 00 00	 jmp	 ___CxxFrameHandler3
text$x	ENDS
?SetYesterdayClosePrice@CYScaleSetUpAddInImp@@IAEXABV?$CStringT@DV?$StrTraitMFC_DLL@DV?$ChTraitsCRT@D@ATL@@@@@ATL@@@Z ENDP ; CYScaleSetUpAddInImp::SetYesterdayClosePrice
; Function compile flags: /Ogtp
; File D:\git\src\IBK\IBK_DRFN\ProjSrc\SrcChartEx\ChartOCX\AddInManager\ChartCommonAddIn\YScaleSetUpAddInImp.cpp
; File C:\Program Files (x86)\Windows Kits\10\Include\10.0.22000.0\ucrt\string.h
; File D:\git\src\IBK\IBK_DRFN\ProjSrc\SrcChartEx\ChartOCX\AddInManager\ChartCommonAddIn\YScaleSetUpAddInImp.cpp
; File C:\Program Files (x86)\Windows Kits\10\Include\10.0.22000.0\ucrt\string.h
; File D:\git\src\IBK\IBK_DRFN\ProjSrc\SrcChartEx\ChartOCX\AddInManager\ChartCommonAddIn\YScaleSetUpAddInImp.cpp
; File C:\Program Files (x86)\Windows Kits\10\Include\10.0.22000.0\ucrt\string.h
; File D:\git\src\IBK\IBK_DRFN\ProjSrc\SrcChartEx\ChartOCX\AddInManager\ChartCommonAddIn\YScaleSetUpAddInImp.cpp
; File C:\Program Files (x86)\Windows Kits\10\Include\10.0.22000.0\ucrt\string.h
; File D:\git\src\IBK\IBK_DRFN\ProjSrc\SrcChartEx\ChartOCX\AddInManager\ChartCommonAddIn\YScaleSetUpAddInImp.cpp
; File C:\Program Files (x86)\Windows Kits\10\Include\10.0.22000.0\ucrt\string.h
; File D:\git\src\IBK\IBK_DRFN\ProjSrc\SrcChartEx\ChartOCX\AddInManager\ChartCommonAddIn\YScaleSetUpAddInImp.cpp
;	COMDAT ?ResetYScaleSetUp@CYScaleSetUpAddInImp@@IAEXPBD@Z
_TEXT	SEGMENT
tv159 = -32						; size = 8
$T2 = -28						; size = 4
$T3 = -28						; size = 4
_strYScale$ = -24					; size = 4
_strPrice$4 = -20					; size = 4
$T5 = -16						; size = 4
$T6 = -16						; size = 4
$T7 = -16						; size = 4
__$EHRec$ = -12						; size = 12
_szGraphName$1$ = 8					; size = 4
_strTemp$8 = 8						; size = 4
_p_szHelpMsg$ = 8					; size = 4
?ResetYScaleSetUp@CYScaleSetUpAddInImp@@IAEXPBD@Z PROC	; CYScaleSetUpAddInImp::ResetYScaleSetUp, COMDAT
; _this$ = ecx

; 445  : {

  00000	55		 push	 ebp
  00001	8b ec		 mov	 ebp, esp
  00003	6a ff		 push	 -1
  00005	68 00 00 00 00	 push	 __ehhandler$?ResetYScaleSetUp@CYScaleSetUpAddInImp@@IAEXPBD@Z
  0000a	64 a1 00 00 00
	00		 mov	 eax, DWORD PTR fs:0
  00010	50		 push	 eax
  00011	83 ec 14	 sub	 esp, 20			; 00000014H
  00014	53		 push	 ebx
  00015	56		 push	 esi
  00016	57		 push	 edi
  00017	a1 00 00 00 00	 mov	 eax, DWORD PTR ___security_cookie
  0001c	33 c5		 xor	 eax, ebp
  0001e	50		 push	 eax
  0001f	8d 45 f4	 lea	 eax, DWORD PTR __$EHRec$[ebp]
  00022	64 a3 00 00 00
	00		 mov	 DWORD PTR fs:0, eax
  00028	8b d9		 mov	 ebx, ecx

; 446  : 	// 1.  Bound  . ( , Clear)
; 447  : 	m_strGraphName.Empty();

  0002a	8d 4b 48	 lea	 ecx, DWORD PTR [ebx+72]
  0002d	ff 15 00 00 00
	00		 call	 DWORD PTR __imp_?Empty@?$CSimpleStringT@D$00@ATL@@QAEXXZ

; 448  : 
; 449  : 	// 2. Message .
; 450  : 	if( !p_szHelpMsg) return;

  00033	8b 75 08	 mov	 esi, DWORD PTR _p_szHelpMsg$[ebp]
  00036	85 f6		 test	 esi, esi
  00038	0f 84 fb 01 00
	00		 je	 $LN1@ResetYScal

; 451  : 	if( !*p_szHelpMsg) return;

  0003e	80 3e 00	 cmp	 BYTE PTR [esi], 0
  00041	0f 84 f2 01 00
	00		 je	 $LN1@ResetYScal

; 452  : 
; 453  : 	// 3. Message Buffer .
; 454  : 	CString strYScale;

  00047	8d 4d e8	 lea	 ecx, DWORD PTR _strYScale$[ebp]
  0004a	ff 15 00 00 00
	00		 call	 DWORD PTR __imp_??0?$CStringT@DV?$StrTraitMFC_DLL@DV?$ChTraitsCRT@D@ATL@@@@@ATL@@QAE@XZ

; 455  : 	char *szYScale = strYScale.GetBufferSetLength( strlen( p_szHelpMsg ) );

  00050	8b ce		 mov	 ecx, esi
  00052	c7 45 fc 00 00
	00 00		 mov	 DWORD PTR __$EHRec$[ebp+8], 0
  00059	8d 51 01	 lea	 edx, DWORD PTR [ecx+1]
  0005c	0f 1f 40 00	 npad	 4
$LL37@ResetYScal:
  00060	8a 01		 mov	 al, BYTE PTR [ecx]
  00062	41		 inc	 ecx
  00063	84 c0		 test	 al, al
  00065	75 f9		 jne	 SHORT $LL37@ResetYScal
  00067	2b ca		 sub	 ecx, edx
  00069	51		 push	 ecx
  0006a	8d 4d e8	 lea	 ecx, DWORD PTR _strYScale$[ebp]
  0006d	ff 15 00 00 00
	00		 call	 DWORD PTR __imp_?GetBufferSetLength@?$CSimpleStringT@D$00@ATL@@QAEPADH@Z
  00073	8b d0		 mov	 edx, eax
  00075	89 45 08	 mov	 DWORD PTR _szGraphName$1$[ebp], eax
  00078	2b d6		 sub	 edx, esi
  0007a	66 0f 1f 44 00
	00		 npad	 6
$LL11@ResetYScal:

; 456  : 	strcpy( szYScale, p_szHelpMsg);

  00080	8a 0e		 mov	 cl, BYTE PTR [esi]
  00082	8d 76 01	 lea	 esi, DWORD PTR [esi+1]
  00085	88 4c 32 ff	 mov	 BYTE PTR [edx+esi-1], cl
  00089	84 c9		 test	 cl, cl
  0008b	75 f3		 jne	 SHORT $LL11@ResetYScal
; File C:\Program Files (x86)\Windows Kits\10\Include\10.0.22000.0\ucrt\string.h

; 502  :         return const_cast<char*>(strchr(static_cast<char const*>(_String), _Ch));

  0008d	6a 3a		 push	 58			; 0000003aH
  0008f	50		 push	 eax
  00090	e8 00 00 00 00	 call	 _strchr
; File D:\git\src\IBK\IBK_DRFN\ProjSrc\SrcChartEx\ChartOCX\AddInManager\ChartCommonAddIn\YScaleSetUpAddInImp.cpp

; 462  : 	szYScale = strchr( szYScale, ':');

  00095	8b f0		 mov	 esi, eax
; File C:\Program Files (x86)\Windows Kits\10\Include\10.0.22000.0\ucrt\string.h

; 502  :         return const_cast<char*>(strchr(static_cast<char const*>(_String), _Ch));

  00097	83 c4 08	 add	 esp, 8
; File D:\git\src\IBK\IBK_DRFN\ProjSrc\SrcChartEx\ChartOCX\AddInManager\ChartCommonAddIn\YScaleSetUpAddInImp.cpp

; 463  : 	if( !szYScale) return;

  0009a	85 f6		 test	 esi, esi
  0009c	0f 84 8e 01 00
	00		 je	 $LN8@ResetYScal

; 464  : 	*szYScale = '\0';

  000a2	c6 06 00	 mov	 BYTE PTR [esi], 0

; 465  : 
; 466  : 	// 5.  Message .
; 467  : 	szYScale++;

  000a5	46		 inc	 esi
; File C:\Program Files (x86)\Windows Kits\10\Include\10.0.22000.0\ucrt\string.h

; 502  :         return const_cast<char*>(strchr(static_cast<char const*>(_String), _Ch));

  000a6	6a 2c		 push	 44			; 0000002cH
  000a8	56		 push	 esi
  000a9	e8 00 00 00 00	 call	 _strchr
; File D:\git\src\IBK\IBK_DRFN\ProjSrc\SrcChartEx\ChartOCX\AddInManager\ChartCommonAddIn\YScaleSetUpAddInImp.cpp

; 469  : 	szYScale = strchr( szYScale, ',');

  000ae	8b f8		 mov	 edi, eax
; File C:\Program Files (x86)\Windows Kits\10\Include\10.0.22000.0\ucrt\string.h

; 502  :         return const_cast<char*>(strchr(static_cast<char const*>(_String), _Ch));

  000b0	83 c4 08	 add	 esp, 8
; File D:\git\src\IBK\IBK_DRFN\ProjSrc\SrcChartEx\ChartOCX\AddInManager\ChartCommonAddIn\YScaleSetUpAddInImp.cpp

; 470  : 	if( !szYScale) return;

  000b3	85 ff		 test	 edi, edi
  000b5	0f 84 75 01 00
	00		 je	 $LN8@ResetYScal

; 471  : 	*szYScale = '\0';

  000bb	c6 07 00	 mov	 BYTE PTR [edi], 0

; 472  : 
; 473  : 	// 6.  Message .
; 474  : 	szYScale++;

  000be	47		 inc	 edi
; File C:\Program Files (x86)\Windows Kits\10\Include\10.0.22000.0\ucrt\string.h

; 502  :         return const_cast<char*>(strchr(static_cast<char const*>(_String), _Ch));

  000bf	6a 3a		 push	 58			; 0000003aH
  000c1	57		 push	 edi
  000c2	e8 00 00 00 00	 call	 _strchr
  000c7	83 c4 08	 add	 esp, 8
; File D:\git\src\IBK\IBK_DRFN\ProjSrc\SrcChartEx\ChartOCX\AddInManager\ChartCommonAddIn\YScaleSetUpAddInImp.cpp

; 478  : 	szYScale = strchr( szYScale, ':');

  000ca	8d 4b 54	 lea	 ecx, DWORD PTR [ebx+84]

; 479  : 	if( szYScale)

  000cd	85 c0		 test	 eax, eax
  000cf	74 14		 je	 SHORT $LN35@ResetYScal

; 480  : 	{
; 481  : 		*szYScale = '\0';

  000d1	c6 00 00	 mov	 BYTE PTR [eax], 0

; 482  : 		szYScale++;

  000d4	40		 inc	 eax

; 483  : 		m_strExtMsg = szYScale;

  000d5	50		 push	 eax
  000d6	ff 15 00 00 00
	00		 call	 DWORD PTR __imp_??4?$CStringT@DV?$StrTraitMFC_DLL@DV?$ChTraitsCRT@D@ATL@@@@@ATL@@QAEAAV01@PBD@Z

; 484  : 		// (2004.10.28, )  Space  Clear .
; 485  : 		m_strExtMsg.TrimRight();

  000dc	8d 4b 54	 lea	 ecx, DWORD PTR [ebx+84]
  000df	ff 15 00 00 00
	00		 call	 DWORD PTR __imp_?TrimRight@?$CStringT@DV?$StrTraitMFC_DLL@DV?$ChTraitsCRT@D@ATL@@@@@ATL@@QAEAAV12@XZ
$LN35@ResetYScal:

; 486  : 	}
; 487  : 
; 488  : 	if( !*szGraphName || !*szUpperBound || !*szLowerBound) return;

  000e5	8b 45 08	 mov	 eax, DWORD PTR _szGraphName$1$[ebp]
  000e8	80 38 00	 cmp	 BYTE PTR [eax], 0
  000eb	0f 84 3f 01 00
	00		 je	 $LN8@ResetYScal
  000f1	80 3e 00	 cmp	 BYTE PTR [esi], 0
  000f4	0f 84 36 01 00
	00		 je	 $LN8@ResetYScal
  000fa	80 3f 00	 cmp	 BYTE PTR [edi], 0
  000fd	0f 84 2d 01 00
	00		 je	 $LN8@ResetYScal

; 489  : 	// 7.  Graph Name, /  .
; 490  : 	m_strGraphName	= szGraphName;

  00103	50		 push	 eax
  00104	8d 4b 48	 lea	 ecx, DWORD PTR [ebx+72]
  00107	ff 15 00 00 00
	00		 call	 DWORD PTR __imp_??4?$CStringT@DV?$StrTraitMFC_DLL@DV?$ChTraitsCRT@D@ATL@@@@@ATL@@QAEAAV01@PBD@Z

; 491  : 	m_dUpperBound	= atof( szUpperBound);

  0010d	56		 push	 esi
  0010e	ff 15 00 00 00
	00		 call	 DWORD PTR __imp__atof
  00114	dd 5b 68	 fstp	 QWORD PTR [ebx+104]

; 492  : 	m_dLowerBound	= atof( szLowerBound);

  00117	57		 push	 edi
  00118	ff 15 00 00 00
	00		 call	 DWORD PTR __imp__atof

; 493  : 
; 494  : 	// 8.  /   .
; 495  : 	if( m_dUpperBound < m_dLowerBound)

  0011e	f2 0f 10 4b 68	 movsd	 xmm1, QWORD PTR [ebx+104]
  00123	83 c4 08	 add	 esp, 8
  00126	dd 5d e0	 fstp	 QWORD PTR tv159[ebp]
  00129	f2 0f 10 45 e0	 movsd	 xmm0, QWORD PTR tv159[ebp]
  0012e	66 0f 2f c1	 comisd	 xmm0, xmm1
  00132	f2 0f 11 43 70	 movsd	 QWORD PTR [ebx+112], xmm0
  00137	76 0a		 jbe	 SHORT $LN9@ResetYScal

; 496  : 	{
; 497  : 		double dTemp	= m_dUpperBound;
; 498  : 		m_dUpperBound	= m_dLowerBound;

  00139	f2 0f 11 43 68	 movsd	 QWORD PTR [ebx+104], xmm0

; 499  : 		m_dLowerBound	= dTemp;

  0013e	f2 0f 11 4b 70	 movsd	 QWORD PTR [ebx+112], xmm1
$LN9@ResetYScal:

; 515  : 	CString strTemp = strData;

  00143	8d 43 54	 lea	 eax, DWORD PTR [ebx+84]
  00146	50		 push	 eax
  00147	8d 4d 08	 lea	 ecx, DWORD PTR _strTemp$8[ebp]
  0014a	ff 15 00 00 00
	00		 call	 DWORD PTR __imp_??0?$CStringT@DV?$StrTraitMFC_DLL@DV?$ChTraitsCRT@D@ATL@@@@@ATL@@QAE@ABV01@@Z

; 516  : 	m_strStockCode = CDataConversion::GetStringData(strTemp, ":");	//

  00150	68 00 00 00 00	 push	 OFFSET ??_C@_01JLIPDDHJ@?3@
  00155	8d 4d f0	 lea	 ecx, DWORD PTR $T7[ebp]
  00158	c6 45 fc 01	 mov	 BYTE PTR __$EHRec$[ebp+8], 1
  0015c	ff 15 00 00 00
	00		 call	 DWORD PTR __imp_??0?$CStringT@DV?$StrTraitMFC_DLL@DV?$ChTraitsCRT@D@ATL@@@@@ATL@@QAE@PBD@Z
  00162	6a 01		 push	 1
  00164	8d 45 f0	 lea	 eax, DWORD PTR $T7[ebp]
  00167	c6 45 fc 02	 mov	 BYTE PTR __$EHRec$[ebp+8], 2
  0016b	50		 push	 eax
  0016c	8d 45 08	 lea	 eax, DWORD PTR _strTemp$8[ebp]
  0016f	50		 push	 eax
  00170	8d 45 e4	 lea	 eax, DWORD PTR $T3[ebp]
  00173	50		 push	 eax
  00174	e8 00 00 00 00	 call	 ?GetStringData@CDataConversion@@SA?AV?$CStringT@DV?$StrTraitMFC_DLL@DV?$ChTraitsCRT@D@ATL@@@@@ATL@@AAV23@ABV23@_N@Z ; CDataConversion::GetStringData
  00179	83 c4 10	 add	 esp, 16			; 00000010H
  0017c	50		 push	 eax
  0017d	8d 4b 4c	 lea	 ecx, DWORD PTR [ebx+76]
  00180	c6 45 fc 03	 mov	 BYTE PTR __$EHRec$[ebp+8], 3
  00184	ff 15 00 00 00
	00		 call	 DWORD PTR __imp_??4?$CStringT@DV?$StrTraitMFC_DLL@DV?$ChTraitsCRT@D@ATL@@@@@ATL@@QAEAAV01@ABV01@@Z
  0018a	8d 4d e4	 lea	 ecx, DWORD PTR $T3[ebp]
  0018d	ff 15 00 00 00
	00		 call	 DWORD PTR __imp_??1?$CStringT@DV?$StrTraitMFC_DLL@DV?$ChTraitsCRT@D@ATL@@@@@ATL@@QAE@XZ
  00193	8d 4d f0	 lea	 ecx, DWORD PTR $T7[ebp]
  00196	c6 45 fc 01	 mov	 BYTE PTR __$EHRec$[ebp+8], 1
  0019a	ff 15 00 00 00
	00		 call	 DWORD PTR __imp_??1?$CStringT@DV?$StrTraitMFC_DLL@DV?$ChTraitsCRT@D@ATL@@@@@ATL@@QAE@XZ

; 517  : 	CDataConversion::GetStringData(strTemp, ":");//??

  001a0	68 00 00 00 00	 push	 OFFSET ??_C@_01JLIPDDHJ@?3@
  001a5	8d 4d f0	 lea	 ecx, DWORD PTR $T6[ebp]
  001a8	ff 15 00 00 00
	00		 call	 DWORD PTR __imp_??0?$CStringT@DV?$StrTraitMFC_DLL@DV?$ChTraitsCRT@D@ATL@@@@@ATL@@QAE@PBD@Z
  001ae	6a 01		 push	 1
  001b0	8d 45 f0	 lea	 eax, DWORD PTR $T6[ebp]
  001b3	c6 45 fc 04	 mov	 BYTE PTR __$EHRec$[ebp+8], 4
  001b7	50		 push	 eax
  001b8	8d 45 08	 lea	 eax, DWORD PTR _strTemp$8[ebp]
  001bb	50		 push	 eax
  001bc	8d 45 e4	 lea	 eax, DWORD PTR $T2[ebp]
  001bf	50		 push	 eax
  001c0	e8 00 00 00 00	 call	 ?GetStringData@CDataConversion@@SA?AV?$CStringT@DV?$StrTraitMFC_DLL@DV?$ChTraitsCRT@D@ATL@@@@@ATL@@AAV23@ABV23@_N@Z ; CDataConversion::GetStringData
  001c5	83 c4 10	 add	 esp, 16			; 00000010H
  001c8	8d 4d e4	 lea	 ecx, DWORD PTR $T2[ebp]
  001cb	ff 15 00 00 00
	00		 call	 DWORD PTR __imp_??1?$CStringT@DV?$StrTraitMFC_DLL@DV?$ChTraitsCRT@D@ATL@@@@@ATL@@QAE@XZ
  001d1	8d 4d f0	 lea	 ecx, DWORD PTR $T6[ebp]
  001d4	c6 45 fc 01	 mov	 BYTE PTR __$EHRec$[ebp+8], 1
  001d8	ff 15 00 00 00
	00		 call	 DWORD PTR __imp_??1?$CStringT@DV?$StrTraitMFC_DLL@DV?$ChTraitsCRT@D@ATL@@@@@ATL@@QAE@XZ

; 518  : 	CString strPrice = CDataConversion::GetStringData(strTemp, ":");	//

  001de	68 00 00 00 00	 push	 OFFSET ??_C@_01JLIPDDHJ@?3@
  001e3	8d 4d f0	 lea	 ecx, DWORD PTR $T5[ebp]
  001e6	ff 15 00 00 00
	00		 call	 DWORD PTR __imp_??0?$CStringT@DV?$StrTraitMFC_DLL@DV?$ChTraitsCRT@D@ATL@@@@@ATL@@QAE@PBD@Z
  001ec	6a 01		 push	 1
  001ee	8d 45 f0	 lea	 eax, DWORD PTR $T5[ebp]
  001f1	c6 45 fc 05	 mov	 BYTE PTR __$EHRec$[ebp+8], 5
  001f5	50		 push	 eax
  001f6	8d 45 08	 lea	 eax, DWORD PTR _strTemp$8[ebp]
  001f9	50		 push	 eax
  001fa	8d 45 ec	 lea	 eax, DWORD PTR _strPrice$4[ebp]
  001fd	50		 push	 eax
  001fe	e8 00 00 00 00	 call	 ?GetStringData@CDataConversion@@SA?AV?$CStringT@DV?$StrTraitMFC_DLL@DV?$ChTraitsCRT@D@ATL@@@@@ATL@@AAV23@ABV23@_N@Z ; CDataConversion::GetStringData
  00203	83 c4 10	 add	 esp, 16			; 00000010H
  00206	8d 4d f0	 lea	 ecx, DWORD PTR $T5[ebp]
  00209	ff 15 00 00 00
	00		 call	 DWORD PTR __imp_??1?$CStringT@DV?$StrTraitMFC_DLL@DV?$ChTraitsCRT@D@ATL@@@@@ATL@@QAE@XZ

; 519  : 	m_dYesterdayClosePrice = atof(strPrice);

  0020f	ff 75 ec	 push	 DWORD PTR _strPrice$4[ebp]
  00212	ff 15 00 00 00
	00		 call	 DWORD PTR __imp__atof
  00218	83 c4 04	 add	 esp, 4

; 520  : }

  0021b	8d 4d ec	 lea	 ecx, DWORD PTR _strPrice$4[ebp]
  0021e	dd 5b 60	 fstp	 QWORD PTR [ebx+96]
  00221	ff 15 00 00 00
	00		 call	 DWORD PTR __imp_??1?$CStringT@DV?$StrTraitMFC_DLL@DV?$ChTraitsCRT@D@ATL@@@@@ATL@@QAE@XZ
  00227	8d 4d 08	 lea	 ecx, DWORD PTR _strTemp$8[ebp]
  0022a	ff 15 00 00 00
	00		 call	 DWORD PTR __imp_??1?$CStringT@DV?$StrTraitMFC_DLL@DV?$ChTraitsCRT@D@ATL@@@@@ATL@@QAE@XZ
$LN8@ResetYScal:

; 500  : 	}
; 501  : 
; 502  : 	// 9. /    .
; 503  : 	SetYesterdayClosePrice(m_strExtMsg);
; 504  : }

  00230	8d 4d e8	 lea	 ecx, DWORD PTR _strYScale$[ebp]
  00233	ff 15 00 00 00
	00		 call	 DWORD PTR __imp_??1?$CStringT@DV?$StrTraitMFC_DLL@DV?$ChTraitsCRT@D@ATL@@@@@ATL@@QAE@XZ
$LN1@ResetYScal:
  00239	8b 4d f4	 mov	 ecx, DWORD PTR __$EHRec$[ebp]
  0023c	64 89 0d 00 00
	00 00		 mov	 DWORD PTR fs:0, ecx
  00243	59		 pop	 ecx
  00244	5f		 pop	 edi
  00245	5e		 pop	 esi
  00246	5b		 pop	 ebx
  00247	8b e5		 mov	 esp, ebp
  00249	5d		 pop	 ebp
  0024a	c2 04 00	 ret	 4
_TEXT	ENDS
;	COMDAT text$x
text$x	SEGMENT
__unwindfunclet$?ResetYScaleSetUp@CYScaleSetUpAddInImp@@IAEXPBD@Z$0:
  00000	8d 4d e8	 lea	 ecx, DWORD PTR _strYScale$[ebp]
  00003	ff 25 00 00 00
	00		 jmp	 DWORD PTR __imp_??1?$CStringT@DV?$StrTraitMFC_DLL@DV?$ChTraitsCRT@D@ATL@@@@@ATL@@QAE@XZ
__unwindfunclet$?ResetYScaleSetUp@CYScaleSetUpAddInImp@@IAEXPBD@Z$1:
  00009	8d 4d 08	 lea	 ecx, DWORD PTR _strTemp$8[ebp]
  0000c	ff 25 00 00 00
	00		 jmp	 DWORD PTR __imp_??1?$CStringT@DV?$StrTraitMFC_DLL@DV?$ChTraitsCRT@D@ATL@@@@@ATL@@QAE@XZ
__unwindfunclet$?ResetYScaleSetUp@CYScaleSetUpAddInImp@@IAEXPBD@Z$2:
  00012	8d 4d f0	 lea	 ecx, DWORD PTR $T7[ebp]
  00015	ff 25 00 00 00
	00		 jmp	 DWORD PTR __imp_??1?$CStringT@DV?$StrTraitMFC_DLL@DV?$ChTraitsCRT@D@ATL@@@@@ATL@@QAE@XZ
__unwindfunclet$?ResetYScaleSetUp@CYScaleSetUpAddInImp@@IAEXPBD@Z$3:
  0001b	8d 4d e4	 lea	 ecx, DWORD PTR $T3[ebp]
  0001e	ff 25 00 00 00
	00		 jmp	 DWORD PTR __imp_??1?$CStringT@DV?$StrTraitMFC_DLL@DV?$ChTraitsCRT@D@ATL@@@@@ATL@@QAE@XZ
__unwindfunclet$?ResetYScaleSetUp@CYScaleSetUpAddInImp@@IAEXPBD@Z$4:
  00024	8d 4d f0	 lea	 ecx, DWORD PTR $T6[ebp]
  00027	ff 25 00 00 00
	00		 jmp	 DWORD PTR __imp_??1?$CStringT@DV?$StrTraitMFC_DLL@DV?$ChTraitsCRT@D@ATL@@@@@ATL@@QAE@XZ
__unwindfunclet$?ResetYScaleSetUp@CYScaleSetUpAddInImp@@IAEXPBD@Z$6:
  0002d	8d 4d f0	 lea	 ecx, DWORD PTR $T5[ebp]
  00030	ff 25 00 00 00
	00		 jmp	 DWORD PTR __imp_??1?$CStringT@DV?$StrTraitMFC_DLL@DV?$ChTraitsCRT@D@ATL@@@@@ATL@@QAE@XZ
  00036	cc		 int	 3
  00037	cc		 int	 3
  00038	cc		 int	 3
  00039	cc		 int	 3
  0003a	cc		 int	 3
__ehhandler$?ResetYScaleSetUp@CYScaleSetUpAddInImp@@IAEXPBD@Z:
  0003b	90		 npad	 1
  0003c	90		 npad	 1
  0003d	8b 54 24 08	 mov	 edx, DWORD PTR [esp+8]
  00041	8d 42 0c	 lea	 eax, DWORD PTR [edx+12]
  00044	8b 4a dc	 mov	 ecx, DWORD PTR [edx-36]
  00047	33 c8		 xor	 ecx, eax
  00049	e8 00 00 00 00	 call	 @__security_check_cookie@4
  0004e	b8 00 00 00 00	 mov	 eax, OFFSET __ehfuncinfo$?ResetYScaleSetUp@CYScaleSetUpAddInImp@@IAEXPBD@Z
  00053	e9 00 00 00 00	 jmp	 ___CxxFrameHandler3
text$x	ENDS
?ResetYScaleSetUp@CYScaleSetUpAddInImp@@IAEXPBD@Z ENDP	; CYScaleSetUpAddInImp::ResetYScaleSetUp
; Function compile flags: /Ogtp
; File D:\git\src\IBK\IBK_DRFN\ProjSrc\SrcChartEx\ChartOCX\AddInManager\ChartCommonAddIn\YScaleSetUpAddInImp.cpp
;	COMDAT ?SetYScaleAllValue@CYScaleSetUpAddInImp@@QAEXHNNNN@Z
_TEXT	SEGMENT
_nYScaleSetUpType$ = 8					; size = 4
_dMax$ = 12						; size = 8
_dMin$ = 20						; size = 8
_dMaxPercent$ = 28					; size = 8
_dMinPercent$ = 36					; size = 8
?SetYScaleAllValue@CYScaleSetUpAddInImp@@QAEXHNNNN@Z PROC ; CYScaleSetUpAddInImp::SetYScaleAllValue, COMDAT
; _this$ = ecx

; 594  : {

  00000	55		 push	 ebp
  00001	8b ec		 mov	 ebp, esp

; 595  : 	// 1.  /   
; 596  : 	m_nYScaleMaxMinSetupType = nYScaleSetUpType;
; 597  : 	
; 598  : 	// 2.  / 
; 599  : 	m_dYScaleMaxValue = dMax;

  00003	f2 0f 10 45 0c	 movsd	 xmm0, QWORD PTR _dMax$[ebp]
  00008	8b 45 08	 mov	 eax, DWORD PTR _nYScaleSetUpType$[ebp]
  0000b	f2 0f 11 81 80
	00 00 00	 movsd	 QWORD PTR [ecx+128], xmm0

; 600  : 	m_dYScaleMinValue = dMin;

  00013	f2 0f 10 45 14	 movsd	 xmm0, QWORD PTR _dMin$[ebp]
  00018	f2 0f 11 81 88
	00 00 00	 movsd	 QWORD PTR [ecx+136], xmm0

; 601  : 
; 602  : 	// 3.  /  Percent 
; 603  : 	m_dYScaleMaxPercentValue = dMaxPercent;

  00020	f2 0f 10 45 1c	 movsd	 xmm0, QWORD PTR _dMaxPercent$[ebp]
  00025	f2 0f 11 81 90
	00 00 00	 movsd	 QWORD PTR [ecx+144], xmm0

; 604  : 	m_dYScaleMinPercentValue = dMinPercent;

  0002d	f2 0f 10 45 24	 movsd	 xmm0, QWORD PTR _dMinPercent$[ebp]
  00032	89 41 78	 mov	 DWORD PTR [ecx+120], eax
  00035	f2 0f 11 81 98
	00 00 00	 movsd	 QWORD PTR [ecx+152], xmm0

; 605  : }

  0003d	5d		 pop	 ebp
  0003e	c2 24 00	 ret	 36			; 00000024H
?SetYScaleAllValue@CYScaleSetUpAddInImp@@QAEXHNNNN@Z ENDP ; CYScaleSetUpAddInImp::SetYScaleAllValue
_TEXT	ENDS
; Function compile flags: /Ogtp
; File D:\git\src\IBK\IBK_DRFN\ProjSrc\SrcChartEx\ChartOCX\AddInManager\ChartCommonAddIn\YScaleSetUpAddInImp.h
;	COMDAT ?GetRegisteredEventMap@CYScaleSetUpAddInImp@@MBEPBW4EAddInEventType@IChartAddIn000000@@XZ
_TEXT	SEGMENT
?GetRegisteredEventMap@CYScaleSetUpAddInImp@@MBEPBW4EAddInEventType@IChartAddIn000000@@XZ PROC ; CYScaleSetUpAddInImp::GetRegisteredEventMap, COMDAT
; _this$ = ecx

; 38   : 	DECLARE_ADDIN_EVENT_MAP()

  00000	b8 00 00 00 00	 mov	 eax, OFFSET ?m_eRegisteredEventMap@CYScaleSetUpAddInImp@@1QBW4EAddInEventType@IChartAddIn000000@@B ; CYScaleSetUpAddInImp::m_eRegisteredEventMap
  00005	c3		 ret	 0
?GetRegisteredEventMap@CYScaleSetUpAddInImp@@MBEPBW4EAddInEventType@IChartAddIn000000@@XZ ENDP ; CYScaleSetUpAddInImp::GetRegisteredEventMap
_TEXT	ENDS
; Function compile flags: /Ogtp
; File D:\git\src\IBK\IBK_DRFN\ProjSrc\SrcChartEx\ChartOCX\AddInManager\ChartCommonAddIn\YScaleSetUpAddInImp.cpp
;	COMDAT ??1CYScaleSetUpAddInImp@@UAE@XZ
_TEXT	SEGMENT
??1CYScaleSetUpAddInImp@@UAE@XZ PROC			; CYScaleSetUpAddInImp::~CYScaleSetUpAddInImp, COMDAT
; _this$ = ecx

; 55   : {

  00000	56		 push	 esi
  00001	8b f1		 mov	 esi, ecx

; 56   : }

  00003	8d 4e 58	 lea	 ecx, DWORD PTR [esi+88]
  00006	c7 06 00 00 00
	00		 mov	 DWORD PTR [esi], OFFSET ??_7CYScaleSetUpAddInImp@@6BCIWUnknown@@@
  0000c	c7 46 08 00 00
	00 00		 mov	 DWORD PTR [esi+8], OFFSET ??_7CYScaleSetUpAddInImp@@6BIChartAddIn000000@@@
  00013	ff 15 00 00 00
	00		 call	 DWORD PTR __imp_??1?$CStringT@DV?$StrTraitMFC_DLL@DV?$ChTraitsCRT@D@ATL@@@@@ATL@@QAE@XZ
  00019	8d 4e 54	 lea	 ecx, DWORD PTR [esi+84]
  0001c	ff 15 00 00 00
	00		 call	 DWORD PTR __imp_??1?$CStringT@DV?$StrTraitMFC_DLL@DV?$ChTraitsCRT@D@ATL@@@@@ATL@@QAE@XZ
  00022	8d 4e 50	 lea	 ecx, DWORD PTR [esi+80]
  00025	ff 15 00 00 00
	00		 call	 DWORD PTR __imp_??1?$CStringT@DV?$StrTraitMFC_DLL@DV?$ChTraitsCRT@D@ATL@@@@@ATL@@QAE@XZ
  0002b	8d 4e 4c	 lea	 ecx, DWORD PTR [esi+76]
  0002e	ff 15 00 00 00
	00		 call	 DWORD PTR __imp_??1?$CStringT@DV?$StrTraitMFC_DLL@DV?$ChTraitsCRT@D@ATL@@@@@ATL@@QAE@XZ
  00034	8d 4e 48	 lea	 ecx, DWORD PTR [esi+72]
  00037	ff 15 00 00 00
	00		 call	 DWORD PTR __imp_??1?$CStringT@DV?$StrTraitMFC_DLL@DV?$ChTraitsCRT@D@ATL@@@@@ATL@@QAE@XZ
  0003d	8b ce		 mov	 ecx, esi
  0003f	5e		 pop	 esi
  00040	e9 00 00 00 00	 jmp	 ??1CChartAddInBase000000@@MAE@XZ ; CChartAddInBase000000::~CChartAddInBase000000
??1CYScaleSetUpAddInImp@@UAE@XZ ENDP			; CYScaleSetUpAddInImp::~CYScaleSetUpAddInImp
_TEXT	ENDS
; Function compile flags: /Ogtp
; File D:\git\src\IBK\IBK_DRFN\ProjSrc\SrcChartEx\ChartOCX\AddInManager\ChartCommonAddIn\YScaleSetUpAddInImp.cpp
;	COMDAT ??0CYScaleSetUpAddInImp@@QAE@PAUIChartOCX000000@@PAUIAddInDllBase@@@Z
_TEXT	SEGMENT
_this$ = -16						; size = 4
__$EHRec$ = -12						; size = 12
_p_pIChartOCX$ = 8					; size = 4
_p_pIAddInDllBase$ = 12					; size = 4
??0CYScaleSetUpAddInImp@@QAE@PAUIChartOCX000000@@PAUIAddInDllBase@@@Z PROC ; CYScaleSetUpAddInImp::CYScaleSetUpAddInImp, COMDAT
; _this$ = ecx

; 33   : {

  00000	55		 push	 ebp
  00001	8b ec		 mov	 ebp, esp
  00003	6a ff		 push	 -1
  00005	68 00 00 00 00	 push	 __ehhandler$??0CYScaleSetUpAddInImp@@QAE@PAUIChartOCX000000@@PAUIAddInDllBase@@@Z
  0000a	64 a1 00 00 00
	00		 mov	 eax, DWORD PTR fs:0
  00010	50		 push	 eax
  00011	51		 push	 ecx
  00012	53		 push	 ebx
  00013	56		 push	 esi
  00014	57		 push	 edi
  00015	a1 00 00 00 00	 mov	 eax, DWORD PTR ___security_cookie
  0001a	33 c5		 xor	 eax, ebp
  0001c	50		 push	 eax
  0001d	8d 45 f4	 lea	 eax, DWORD PTR __$EHRec$[ebp]
  00020	64 a3 00 00 00
	00		 mov	 DWORD PTR fs:0, eax
  00026	8b f1		 mov	 esi, ecx
  00028	89 75 f0	 mov	 DWORD PTR _this$[ebp], esi

; 32   : 	: CChartAddInBase( p_pIChartOCX, p_pIAddInDllBase)

  0002b	ff 75 0c	 push	 DWORD PTR _p_pIAddInDllBase$[ebp]
  0002e	ff 75 08	 push	 DWORD PTR _p_pIChartOCX$[ebp]
  00031	e8 00 00 00 00	 call	 ??0CChartAddInBase000000@@IAE@PAUIChartOCX000000@@PAUIAddInDllBase@@@Z ; CChartAddInBase000000::CChartAddInBase000000

; 33   : {

  00036	8d 4e 48	 lea	 ecx, DWORD PTR [esi+72]
  00039	c7 45 fc 00 00
	00 00		 mov	 DWORD PTR __$EHRec$[ebp+8], 0
  00040	c7 06 00 00 00
	00		 mov	 DWORD PTR [esi], OFFSET ??_7CYScaleSetUpAddInImp@@6BCIWUnknown@@@
  00046	c7 46 08 00 00
	00 00		 mov	 DWORD PTR [esi+8], OFFSET ??_7CYScaleSetUpAddInImp@@6BIChartAddIn000000@@@
  0004d	ff 15 00 00 00
	00		 call	 DWORD PTR __imp_??0?$CStringT@DV?$StrTraitMFC_DLL@DV?$ChTraitsCRT@D@ATL@@@@@ATL@@QAE@XZ
  00053	8d 4e 4c	 lea	 ecx, DWORD PTR [esi+76]
  00056	ff 15 00 00 00
	00		 call	 DWORD PTR __imp_??0?$CStringT@DV?$StrTraitMFC_DLL@DV?$ChTraitsCRT@D@ATL@@@@@ATL@@QAE@XZ
  0005c	8d 4e 50	 lea	 ecx, DWORD PTR [esi+80]
  0005f	ff 15 00 00 00
	00		 call	 DWORD PTR __imp_??0?$CStringT@DV?$StrTraitMFC_DLL@DV?$ChTraitsCRT@D@ATL@@@@@ATL@@QAE@XZ
  00065	8d 4e 54	 lea	 ecx, DWORD PTR [esi+84]
  00068	ff 15 00 00 00
	00		 call	 DWORD PTR __imp_??0?$CStringT@DV?$StrTraitMFC_DLL@DV?$ChTraitsCRT@D@ATL@@@@@ATL@@QAE@XZ
  0006e	8d 4e 58	 lea	 ecx, DWORD PTR [esi+88]
  00071	ff 15 00 00 00
	00		 call	 DWORD PTR __imp_??0?$CStringT@DV?$StrTraitMFC_DLL@DV?$ChTraitsCRT@D@ATL@@@@@ATL@@QAE@XZ

; 34   : 	m_eYScaleSetupApplyState = YSCALE_APPLY_STATE::APPLY_CANCEL;

  00077	8b c6		 mov	 eax, esi
  00079	c6 45 fc 05	 mov	 BYTE PTR __$EHRec$[ebp+8], 5

; 35   : 
; 36   : 	m_strStockCode = "000000";

  0007d	68 00 00 00 00	 push	 OFFSET ??_C@_06GEKNBBDK@000000@
  00082	8d 4e 4c	 lea	 ecx, DWORD PTR [esi+76]
  00085	c7 40 40 00 00
	00 00		 mov	 DWORD PTR [eax+64], 0
  0008c	ff 15 00 00 00
	00		 call	 DWORD PTR __imp_??4?$CStringT@DV?$StrTraitMFC_DLL@DV?$ChTraitsCRT@D@ATL@@@@@ATL@@QAEAAV01@PBD@Z

; 37   : 	m_strPrevStockCode = "";

  00092	68 00 00 00 00	 push	 OFFSET ??_C@_00CNPNBAHC@@
  00097	8d 4e 50	 lea	 ecx, DWORD PTR [esi+80]
  0009a	ff 15 00 00 00
	00		 call	 DWORD PTR __imp_??4?$CStringT@DV?$StrTraitMFC_DLL@DV?$ChTraitsCRT@D@ATL@@@@@ATL@@QAEAAV01@PBD@Z

; 38   : 	
; 39   : 	m_strFormat = "%.f";

  000a0	68 00 00 00 00	 push	 OFFSET ??_C@_03EICDNICE@?$CF?4f@
  000a5	8d 4e 58	 lea	 ecx, DWORD PTR [esi+88]
  000a8	ff 15 00 00 00
	00		 call	 DWORD PTR __imp_??4?$CStringT@DV?$StrTraitMFC_DLL@DV?$ChTraitsCRT@D@ATL@@@@@ATL@@QAEAAV01@PBD@Z

; 40   : 
; 41   : 	//  /  ( 0 : , 1 :  )
; 42   : 	m_nYScaleMaxMinSetupType = 0;

  000ae	8b c6		 mov	 eax, esi
  000b0	0f 57 c0	 xorps	 xmm0, xmm0

; 43   : 
; 44   : 	//  -  / 
; 45   : 	m_dYScaleMaxValue = 0;

  000b3	0f 11 80 80 00
	00 00		 movups	 XMMWORD PTR [eax+128], xmm0
  000ba	c7 40 78 00 00
	00 00		 mov	 DWORD PTR [eax+120], 0

; 46   : 	m_dYScaleMinValue = 0;
; 47   : 
; 48   : 	//  -  / 
; 49   : 	m_dYScaleMaxPercentValue = 30;

  000c1	0f 28 05 00 00
	00 00		 movaps	 xmm0, XMMWORD PTR __xmm@c03e000000000000403e000000000000
  000c8	0f 11 80 90 00
	00 00		 movups	 XMMWORD PTR [eax+144], xmm0

; 50   : 	m_dYScaleMinPercentValue = -30;
; 51   : }

  000cf	8b 4d f4	 mov	 ecx, DWORD PTR __$EHRec$[ebp]
  000d2	64 89 0d 00 00
	00 00		 mov	 DWORD PTR fs:0, ecx
  000d9	59		 pop	 ecx
  000da	5f		 pop	 edi
  000db	5e		 pop	 esi
  000dc	5b		 pop	 ebx
  000dd	8b e5		 mov	 esp, ebp
  000df	5d		 pop	 ebp
  000e0	c2 08 00	 ret	 8
_TEXT	ENDS
;	COMDAT text$x
text$x	SEGMENT
__unwindfunclet$??0CYScaleSetUpAddInImp@@QAE@PAUIChartOCX000000@@PAUIAddInDllBase@@@Z$0:
  00000	8b 4d f0	 mov	 ecx, DWORD PTR _this$[ebp]
  00003	e9 00 00 00 00	 jmp	 ??1CChartAddInBase000000@@MAE@XZ ; CChartAddInBase000000::~CChartAddInBase000000
__unwindfunclet$??0CYScaleSetUpAddInImp@@QAE@PAUIChartOCX000000@@PAUIAddInDllBase@@@Z$1:
  00008	8b 4d f0	 mov	 ecx, DWORD PTR _this$[ebp]
  0000b	83 c1 48	 add	 ecx, 72			; 00000048H
  0000e	ff 25 00 00 00
	00		 jmp	 DWORD PTR __imp_??1?$CStringT@DV?$StrTraitMFC_DLL@DV?$ChTraitsCRT@D@ATL@@@@@ATL@@QAE@XZ
__unwindfunclet$??0CYScaleSetUpAddInImp@@QAE@PAUIChartOCX000000@@PAUIAddInDllBase@@@Z$2:
  00014	8b 4d f0	 mov	 ecx, DWORD PTR _this$[ebp]
  00017	83 c1 4c	 add	 ecx, 76			; 0000004cH
  0001a	ff 25 00 00 00
	00		 jmp	 DWORD PTR __imp_??1?$CStringT@DV?$StrTraitMFC_DLL@DV?$ChTraitsCRT@D@ATL@@@@@ATL@@QAE@XZ
__unwindfunclet$??0CYScaleSetUpAddInImp@@QAE@PAUIChartOCX000000@@PAUIAddInDllBase@@@Z$3:
  00020	8b 4d f0	 mov	 ecx, DWORD PTR _this$[ebp]
  00023	83 c1 50	 add	 ecx, 80			; 00000050H
  00026	ff 25 00 00 00
	00		 jmp	 DWORD PTR __imp_??1?$CStringT@DV?$StrTraitMFC_DLL@DV?$ChTraitsCRT@D@ATL@@@@@ATL@@QAE@XZ
__unwindfunclet$??0CYScaleSetUpAddInImp@@QAE@PAUIChartOCX000000@@PAUIAddInDllBase@@@Z$4:
  0002c	8b 4d f0	 mov	 ecx, DWORD PTR _this$[ebp]
  0002f	83 c1 54	 add	 ecx, 84			; 00000054H
  00032	ff 25 00 00 00
	00		 jmp	 DWORD PTR __imp_??1?$CStringT@DV?$StrTraitMFC_DLL@DV?$ChTraitsCRT@D@ATL@@@@@ATL@@QAE@XZ
__unwindfunclet$??0CYScaleSetUpAddInImp@@QAE@PAUIChartOCX000000@@PAUIAddInDllBase@@@Z$5:
  00038	8b 4d f0	 mov	 ecx, DWORD PTR _this$[ebp]
  0003b	83 c1 58	 add	 ecx, 88			; 00000058H
  0003e	ff 25 00 00 00
	00		 jmp	 DWORD PTR __imp_??1?$CStringT@DV?$StrTraitMFC_DLL@DV?$ChTraitsCRT@D@ATL@@@@@ATL@@QAE@XZ
  00044	cc		 int	 3
  00045	cc		 int	 3
  00046	cc		 int	 3
  00047	cc		 int	 3
  00048	cc		 int	 3
__ehhandler$??0CYScaleSetUpAddInImp@@QAE@PAUIChartOCX000000@@PAUIAddInDllBase@@@Z:
  00049	90		 npad	 1
  0004a	90		 npad	 1
  0004b	8b 54 24 08	 mov	 edx, DWORD PTR [esp+8]
  0004f	8d 42 0c	 lea	 eax, DWORD PTR [edx+12]
  00052	8b 4a ec	 mov	 ecx, DWORD PTR [edx-20]
  00055	33 c8		 xor	 ecx, eax
  00057	e8 00 00 00 00	 call	 @__security_check_cookie@4
  0005c	b8 00 00 00 00	 mov	 eax, OFFSET __ehfuncinfo$??0CYScaleSetUpAddInImp@@QAE@PAUIChartOCX000000@@PAUIAddInDllBase@@@Z
  00061	e9 00 00 00 00	 jmp	 ___CxxFrameHandler3
text$x	ENDS
??0CYScaleSetUpAddInImp@@QAE@PAUIChartOCX000000@@PAUIAddInDllBase@@@Z ENDP ; CYScaleSetUpAddInImp::CYScaleSetUpAddInImp
; Function compile flags: /Ogtp
; File D:\git\src\IBK\IBK_DRFN\ProjSrc\SrcChartEx\ChartOCX\AddInManager\Include_AddIn\I000000\_ChartAddInBase.h
;	COMDAT ?OnRButtonDblClk@CChartAddInBase000000@@MAEHPAUHDC__@@IAAUtagPOINT@@K@Z
_TEXT	SEGMENT
_p_hDC$ = 8						; size = 4
_nFlags$ = 12						; size = 4
_point$ = 16						; size = 4
_p_dwMouseActionID$ = 20				; size = 4
?OnRButtonDblClk@CChartAddInBase000000@@MAEHPAUHDC__@@IAAUtagPOINT@@K@Z PROC ; CChartAddInBase000000::OnRButtonDblClk, COMDAT
; _this$ = ecx

; 221  : 	virtual BOOL	OnRButtonDblClk(	HDC p_hDC, UINT nFlags, POINT &point, const DWORD p_dwMouseActionID)									{	return FALSE;	}

  00000	33 c0		 xor	 eax, eax
  00002	c2 10 00	 ret	 16			; 00000010H
?OnRButtonDblClk@CChartAddInBase000000@@MAEHPAUHDC__@@IAAUtagPOINT@@K@Z ENDP ; CChartAddInBase000000::OnRButtonDblClk
_TEXT	ENDS
; Function compile flags: /Ogtp
; File D:\git\src\IBK\IBK_DRFN\ProjSrc\SrcChartEx\ChartOCX\AddInManager\Include_AddIn\I000000\_ChartAddInBase.h
;	COMDAT ?OnRButtonUp@CChartAddInBase000000@@MAEHPAUHDC__@@IAAUtagPOINT@@K@Z
_TEXT	SEGMENT
_p_hDC$ = 8						; size = 4
_nFlags$ = 12						; size = 4
_point$ = 16						; size = 4
_p_dwMouseActionID$ = 20				; size = 4
?OnRButtonUp@CChartAddInBase000000@@MAEHPAUHDC__@@IAAUtagPOINT@@K@Z PROC ; CChartAddInBase000000::OnRButtonUp, COMDAT
; _this$ = ecx

; 220  : 	virtual BOOL	OnRButtonUp(		HDC p_hDC, UINT nFlags, POINT &point, const DWORD p_dwMouseActionID)									{	return FALSE;	}

  00000	33 c0		 xor	 eax, eax
  00002	c2 10 00	 ret	 16			; 00000010H
?OnRButtonUp@CChartAddInBase000000@@MAEHPAUHDC__@@IAAUtagPOINT@@K@Z ENDP ; CChartAddInBase000000::OnRButtonUp
_TEXT	ENDS
; Function compile flags: /Ogtp
; File D:\git\src\IBK\IBK_DRFN\ProjSrc\SrcChartEx\ChartOCX\AddInManager\Include_AddIn\I000000\_ChartAddInBase.h
;	COMDAT ?OnRButtonDown@CChartAddInBase000000@@MAEHPAUHDC__@@IAAUtagPOINT@@K@Z
_TEXT	SEGMENT
_p_hDC$ = 8						; size = 4
_nFlags$ = 12						; size = 4
_point$ = 16						; size = 4
_p_dwMouseActionID$ = 20				; size = 4
?OnRButtonDown@CChartAddInBase000000@@MAEHPAUHDC__@@IAAUtagPOINT@@K@Z PROC ; CChartAddInBase000000::OnRButtonDown, COMDAT
; _this$ = ecx

; 219  : 	virtual BOOL	OnRButtonDown(		HDC p_hDC, UINT nFlags, POINT &point, const DWORD p_dwMouseActionID)									{	return FALSE;	}

  00000	33 c0		 xor	 eax, eax
  00002	c2 10 00	 ret	 16			; 00000010H
?OnRButtonDown@CChartAddInBase000000@@MAEHPAUHDC__@@IAAUtagPOINT@@K@Z ENDP ; CChartAddInBase000000::OnRButtonDown
_TEXT	ENDS
; Function compile flags: /Ogtp
; File D:\git\src\IBK\IBK_DRFN\ProjSrc\SrcChartEx\ChartOCX\AddInManager\Include_AddIn\I000000\_ChartAddInBase.h
;	COMDAT ?OnLButtonDblClk@CChartAddInBase000000@@MAEHPAUHDC__@@IAAUtagPOINT@@K@Z
_TEXT	SEGMENT
_p_hDC$ = 8						; size = 4
_nFlags$ = 12						; size = 4
_point$ = 16						; size = 4
_p_dwMouseActionID$ = 20				; size = 4
?OnLButtonDblClk@CChartAddInBase000000@@MAEHPAUHDC__@@IAAUtagPOINT@@K@Z PROC ; CChartAddInBase000000::OnLButtonDblClk, COMDAT
; _this$ = ecx

; 218  : 	virtual BOOL	OnLButtonDblClk(	HDC p_hDC, UINT nFlags, POINT &point, const DWORD p_dwMouseActionID)									{	return FALSE;	}

  00000	33 c0		 xor	 eax, eax
  00002	c2 10 00	 ret	 16			; 00000010H
?OnLButtonDblClk@CChartAddInBase000000@@MAEHPAUHDC__@@IAAUtagPOINT@@K@Z ENDP ; CChartAddInBase000000::OnLButtonDblClk
_TEXT	ENDS
; Function compile flags: /Ogtp
; File D:\git\src\IBK\IBK_DRFN\ProjSrc\SrcChartEx\ChartOCX\AddInManager\Include_AddIn\I000000\_ChartAddInBase.h
;	COMDAT ?OnLButtonUp@CChartAddInBase000000@@MAEHPAUHDC__@@IAAUtagPOINT@@K@Z
_TEXT	SEGMENT
_p_hDC$ = 8						; size = 4
_nFlags$ = 12						; size = 4
_point$ = 16						; size = 4
_p_dwMouseActionID$ = 20				; size = 4
?OnLButtonUp@CChartAddInBase000000@@MAEHPAUHDC__@@IAAUtagPOINT@@K@Z PROC ; CChartAddInBase000000::OnLButtonUp, COMDAT
; _this$ = ecx

; 217  : 	virtual BOOL	OnLButtonUp(		HDC p_hDC, UINT nFlags, POINT &point, const DWORD p_dwMouseActionID)									{	return FALSE;	}

  00000	33 c0		 xor	 eax, eax
  00002	c2 10 00	 ret	 16			; 00000010H
?OnLButtonUp@CChartAddInBase000000@@MAEHPAUHDC__@@IAAUtagPOINT@@K@Z ENDP ; CChartAddInBase000000::OnLButtonUp
_TEXT	ENDS
; Function compile flags: /Ogtp
; File D:\git\src\IBK\IBK_DRFN\ProjSrc\SrcChartEx\ChartOCX\AddInManager\Include_AddIn\I000000\_ChartAddInBase.h
;	COMDAT ?OnLButtonDown@CChartAddInBase000000@@MAEHPAUHDC__@@IAAUtagPOINT@@K@Z
_TEXT	SEGMENT
_p_hDC$ = 8						; size = 4
_nFlags$ = 12						; size = 4
_point$ = 16						; size = 4
_p_dwMouseActionID$ = 20				; size = 4
?OnLButtonDown@CChartAddInBase000000@@MAEHPAUHDC__@@IAAUtagPOINT@@K@Z PROC ; CChartAddInBase000000::OnLButtonDown, COMDAT
; _this$ = ecx

; 216  : 	virtual BOOL	OnLButtonDown(		HDC p_hDC, UINT nFlags, POINT &point, const DWORD p_dwMouseActionID)									{	return FALSE;	}

  00000	33 c0		 xor	 eax, eax
  00002	c2 10 00	 ret	 16			; 00000010H
?OnLButtonDown@CChartAddInBase000000@@MAEHPAUHDC__@@IAAUtagPOINT@@K@Z ENDP ; CChartAddInBase000000::OnLButtonDown
_TEXT	ENDS
; Function compile flags: /Ogtp
; File D:\git\src\IBK\IBK_DRFN\ProjSrc\SrcChartEx\ChartOCX\AddInManager\Include_AddIn\I000000\_ChartAddInBase.h
;	COMDAT ?OnMouseMove@CChartAddInBase000000@@MAEHPAUHDC__@@IAAUtagPOINT@@KQAUHBITMAP__@@@Z
_TEXT	SEGMENT
_p_hDC$ = 8						; size = 4
_nFlags$ = 12						; size = 4
_point$ = 16						; size = 4
_p_dwMouseActionID$ = 20				; size = 4
_p_hbmpMainOSB$ = 24					; size = 4
?OnMouseMove@CChartAddInBase000000@@MAEHPAUHDC__@@IAAUtagPOINT@@KQAUHBITMAP__@@@Z PROC ; CChartAddInBase000000::OnMouseMove, COMDAT
; _this$ = ecx

; 215  : 	virtual BOOL	OnMouseMove(		HDC p_hDC, UINT nFlags, POINT &point, const DWORD p_dwMouseActionID, const HBITMAP p_hbmpMainOSB)		{	return FALSE;	}	// (2006/11/5 - Seung-Won, Bae) Support MainOSB

  00000	33 c0		 xor	 eax, eax
  00002	c2 14 00	 ret	 20			; 00000014H
?OnMouseMove@CChartAddInBase000000@@MAEHPAUHDC__@@IAAUtagPOINT@@KQAUHBITMAP__@@@Z ENDP ; CChartAddInBase000000::OnMouseMove
_TEXT	ENDS
; Function compile flags: /Ogtp
; File D:\git\src\IBK\IBK_DRFN\ProjSrc\SrcChartEx\ChartOCX\AddInManager\Include_AddIn\I000000\_ChartAddInBase.h
;	COMDAT ?OnMouseWheel@CChartAddInBase000000@@MAEHIFUtagPOINT@@K@Z
_TEXT	SEGMENT
_nFlags$ = 8						; size = 4
_zDelta$ = 12						; size = 2
_pt$ = 16						; size = 8
_p_dwMouseActionID$ = 24				; size = 4
?OnMouseWheel@CChartAddInBase000000@@MAEHIFUtagPOINT@@K@Z PROC ; CChartAddInBase000000::OnMouseWheel, COMDAT
; _this$ = ecx

; 214  : 	virtual BOOL	OnMouseWheel(		UINT nFlags, short zDelta, POINT pt, const DWORD p_dwMouseActionID)										{	return FALSE;	}

  00000	33 c0		 xor	 eax, eax
  00002	c2 14 00	 ret	 20			; 00000014H
?OnMouseWheel@CChartAddInBase000000@@MAEHIFUtagPOINT@@K@Z ENDP ; CChartAddInBase000000::OnMouseWheel
_TEXT	ENDS
; Function compile flags: /Ogtp
; File D:\git\src\IBK\IBK_DRFN\ProjSrc\SrcChartEx\ChartOCX\AddInManager\Include_AddIn\I000000\_ChartAddInBase.h
;	COMDAT ?OnKeyUp@CChartAddInBase000000@@MAEHIII@Z
_TEXT	SEGMENT
_nChar$ = 8						; size = 4
_nRepCnt$ = 12						; size = 4
_nFlags$ = 16						; size = 4
?OnKeyUp@CChartAddInBase000000@@MAEHIII@Z PROC		; CChartAddInBase000000::OnKeyUp, COMDAT
; _this$ = ecx

; 213  : 	virtual BOOL	OnKeyUp(			UINT nChar, UINT nRepCnt, UINT nFlags)																	{	return FALSE;	}

  00000	33 c0		 xor	 eax, eax
  00002	c2 0c 00	 ret	 12			; 0000000cH
?OnKeyUp@CChartAddInBase000000@@MAEHIII@Z ENDP		; CChartAddInBase000000::OnKeyUp
_TEXT	ENDS
; Function compile flags: /Ogtp
; File D:\git\src\IBK\IBK_DRFN\ProjSrc\SrcChartEx\ChartOCX\AddInManager\Include_AddIn\I000000\_ChartAddInBase.h
;	COMDAT ?OnKeyDown@CChartAddInBase000000@@MAEHIII@Z
_TEXT	SEGMENT
_nChar$ = 8						; size = 4
_nRepCnt$ = 12						; size = 4
_nFlags$ = 16						; size = 4
?OnKeyDown@CChartAddInBase000000@@MAEHIII@Z PROC	; CChartAddInBase000000::OnKeyDown, COMDAT
; _this$ = ecx

; 212  : 	virtual BOOL	OnKeyDown(			UINT nChar, UINT nRepCnt, UINT nFlags)																	{	return FALSE;	}

  00000	33 c0		 xor	 eax, eax
  00002	c2 0c 00	 ret	 12			; 0000000cH
?OnKeyDown@CChartAddInBase000000@@MAEHIII@Z ENDP	; CChartAddInBase000000::OnKeyDown
_TEXT	ENDS
; Function compile flags: /Ogtp
; File D:\git\src\IBK\IBK_DRFN\ProjSrc\SrcChartEx\ChartOCX\AddInManager\Include_AddIn\I000000\_ChartAddInBase.h
;	COMDAT ?OnAddInToolCommand@CChartAddInBase000000@@MAEHAAJW4EAICommandType@@JJ@Z
_TEXT	SEGMENT
_p_lResult$ = 8						; size = 4
_p_eCommandID$ = 12					; size = 4
_p_lParam1$ = 16					; size = 4
_p_lParam2$ = 20					; size = 4
?OnAddInToolCommand@CChartAddInBase000000@@MAEHAAJW4EAICommandType@@JJ@Z PROC ; CChartAddInBase000000::OnAddInToolCommand, COMDAT
; _this$ = ecx

; 210  : 	virtual BOOL	OnAddInToolCommand(	long &p_lResult, const EAICommandType p_eCommandID, const long p_lParam1, const long p_lParam2)			{	return FALSE;	}

  00000	33 c0		 xor	 eax, eax
  00002	c2 10 00	 ret	 16			; 00000010H
?OnAddInToolCommand@CChartAddInBase000000@@MAEHAAJW4EAICommandType@@JJ@Z ENDP ; CChartAddInBase000000::OnAddInToolCommand
_TEXT	ENDS
; Function compile flags: /Ogtp
; File D:\git\src\IBK\IBK_DRFN\ProjSrc\SrcChartEx\ChartOCX\AddInManager\Include_AddIn\I000000\_ChartAddInBase.h
;	COMDAT ?OnAddInToolCommand@CChartAddInBase000000@@MAEHAAJW4EAICommandType@@J@Z
_TEXT	SEGMENT
_p_lResult$ = 8						; size = 4
_p_eCommandID$ = 12					; size = 4
_p_lParam$ = 16						; size = 4
?OnAddInToolCommand@CChartAddInBase000000@@MAEHAAJW4EAICommandType@@J@Z PROC ; CChartAddInBase000000::OnAddInToolCommand, COMDAT
; _this$ = ecx

; 209  : 	virtual BOOL	OnAddInToolCommand(	long &p_lResult, const EAICommandType p_eCommandID, const long p_lParam)								{	return FALSE;	}

  00000	33 c0		 xor	 eax, eax
  00002	c2 0c 00	 ret	 12			; 0000000cH
?OnAddInToolCommand@CChartAddInBase000000@@MAEHAAJW4EAICommandType@@J@Z ENDP ; CChartAddInBase000000::OnAddInToolCommand
_TEXT	ENDS
; Function compile flags: /Ogtp
; File D:\git\src\IBK\IBK_DRFN\ProjSrc\SrcChartEx\ChartOCX\AddInManager\Include_AddIn\I000000\_ChartAddInBase.h
;	COMDAT ?OnAddInToolCommand@CChartAddInBase000000@@MAEHAAJW4EAICommandType@@PBDPAVCObject@@@Z
_TEXT	SEGMENT
_p_lResult$ = 8						; size = 4
_p_eCommandID$ = 12					; size = 4
_p_szParam$ = 16					; size = 4
_p_pParam$ = 20						; size = 4
?OnAddInToolCommand@CChartAddInBase000000@@MAEHAAJW4EAICommandType@@PBDPAVCObject@@@Z PROC ; CChartAddInBase000000::OnAddInToolCommand, COMDAT
; _this$ = ecx

; 208  : 	virtual BOOL	OnAddInToolCommand(	long &p_lResult, const EAICommandType p_eCommandID, const char *p_szParam, CObject *p_pParam)			{	return FALSE;	}

  00000	33 c0		 xor	 eax, eax
  00002	c2 10 00	 ret	 16			; 00000010H
?OnAddInToolCommand@CChartAddInBase000000@@MAEHAAJW4EAICommandType@@PBDPAVCObject@@@Z ENDP ; CChartAddInBase000000::OnAddInToolCommand
_TEXT	ENDS
; Function compile flags: /Ogtp
; File D:\git\src\IBK\IBK_DRFN\ProjSrc\SrcChartEx\ChartOCX\AddInManager\Include_AddIn\I000000\_ChartAddInBase.h
;	COMDAT ?OnAddInToolCommand@CChartAddInBase000000@@MAEHAAJW4EAICommandType@@PBD@Z
_TEXT	SEGMENT
_p_lResult$ = 8						; size = 4
_p_eCommandID$ = 12					; size = 4
_p_szParam$ = 16					; size = 4
?OnAddInToolCommand@CChartAddInBase000000@@MAEHAAJW4EAICommandType@@PBD@Z PROC ; CChartAddInBase000000::OnAddInToolCommand, COMDAT
; _this$ = ecx

; 207  : 	virtual BOOL	OnAddInToolCommand(	long &p_lResult, const EAICommandType p_eCommandID, const char *p_szParam)								{	return FALSE;	}

  00000	33 c0		 xor	 eax, eax
  00002	c2 0c 00	 ret	 12			; 0000000cH
?OnAddInToolCommand@CChartAddInBase000000@@MAEHAAJW4EAICommandType@@PBD@Z ENDP ; CChartAddInBase000000::OnAddInToolCommand
_TEXT	ENDS
; Function compile flags: /Ogtp
; File D:\git\src\IBK\IBK_DRFN\ProjSrc\SrcChartEx\ChartOCX\AddInManager\Include_AddIn\I000000\_ChartAddInBase.h
;	COMDAT ?OnAddInToolCommand@CChartAddInBase000000@@MAEHAAJW4EAICommandType@@PAUIGraphInfo000000@@@Z
_TEXT	SEGMENT
_p_lResult$ = 8						; size = 4
_p_eCommandID$ = 12					; size = 4
_p_pIGraphInfo$ = 16					; size = 4
?OnAddInToolCommand@CChartAddInBase000000@@MAEHAAJW4EAICommandType@@PAUIGraphInfo000000@@@Z PROC ; CChartAddInBase000000::OnAddInToolCommand, COMDAT
; _this$ = ecx

; 206  : 	virtual BOOL	OnAddInToolCommand(	long &p_lResult, const EAICommandType p_eCommandID, IGraphInfo *p_pIGraphInfo)							{	return FALSE;	}

  00000	33 c0		 xor	 eax, eax
  00002	c2 0c 00	 ret	 12			; 0000000cH
?OnAddInToolCommand@CChartAddInBase000000@@MAEHAAJW4EAICommandType@@PAUIGraphInfo000000@@@Z ENDP ; CChartAddInBase000000::OnAddInToolCommand
_TEXT	ENDS
; Function compile flags: /Ogtp
; File D:\git\src\IBK\IBK_DRFN\ProjSrc\SrcChartEx\ChartOCX\AddInManager\Include_AddIn\I000000\_ChartAddInBase.h
;	COMDAT ?OnAddInToolCommand@CChartAddInBase000000@@MAEHAAJW4EAICommandType@@@Z
_TEXT	SEGMENT
_p_lResult$ = 8						; size = 4
_p_eCommandID$ = 12					; size = 4
?OnAddInToolCommand@CChartAddInBase000000@@MAEHAAJW4EAICommandType@@@Z PROC ; CChartAddInBase000000::OnAddInToolCommand, COMDAT
; _this$ = ecx

; 205  : 	virtual BOOL	OnAddInToolCommand(	long &p_lResult, const EAICommandType p_eCommandID)														{	return FALSE;	}

  00000	33 c0		 xor	 eax, eax
  00002	c2 08 00	 ret	 8
?OnAddInToolCommand@CChartAddInBase000000@@MAEHAAJW4EAICommandType@@@Z ENDP ; CChartAddInBase000000::OnAddInToolCommand
_TEXT	ENDS
; Function compile flags: /Ogtp
; File D:\git\src\IBK\IBK_DRFN\ProjSrc\SrcChartEx\ChartOCX\AddInManager\Include_AddIn\I000000\_ChartAddInBase.h
;	COMDAT ?OnAddInToolCommand@CChartAddInBase000000@@MAEHW4EAICommandType@@JJJJJJJJJ@Z
_TEXT	SEGMENT
_p_eCommandID$ = 8					; size = 4
_p_lParam1$ = 12					; size = 4
_p_lParam2$ = 16					; size = 4
_p_lParam3$ = 20					; size = 4
_p_lParam4$ = 24					; size = 4
_p_lParam5$ = 28					; size = 4
_p_lParam6$ = 32					; size = 4
_p_lParam7$ = 36					; size = 4
_p_lParam8$ = 40					; size = 4
_p_lParam9$ = 44					; size = 4
?OnAddInToolCommand@CChartAddInBase000000@@MAEHW4EAICommandType@@JJJJJJJJJ@Z PROC ; CChartAddInBase000000::OnAddInToolCommand, COMDAT
; _this$ = ecx

; 204  : 	virtual BOOL	OnAddInToolCommand(	const EAICommandType p_eCommandID, const long p_lParam1, const long p_lParam2, const long p_lParam3, const long p_lParam4, const long p_lParam5, const long p_lParam6, const long p_lParam7, const long p_lParam8, const long p_lParam9)	{	return FALSE;	}

  00000	33 c0		 xor	 eax, eax
  00002	c2 28 00	 ret	 40			; 00000028H
?OnAddInToolCommand@CChartAddInBase000000@@MAEHW4EAICommandType@@JJJJJJJJJ@Z ENDP ; CChartAddInBase000000::OnAddInToolCommand
_TEXT	ENDS
; Function compile flags: /Ogtp
; File D:\git\src\IBK\IBK_DRFN\ProjSrc\SrcChartEx\ChartOCX\AddInManager\Include_AddIn\I000000\_ChartAddInBase.h
;	COMDAT ?OnAddInToolCommand@CChartAddInBase000000@@MAEHW4EAICommandType@@JJ@Z
_TEXT	SEGMENT
_p_eCommandID$ = 8					; size = 4
_p_lParam1$ = 12					; size = 4
_p_lParam2$ = 16					; size = 4
?OnAddInToolCommand@CChartAddInBase000000@@MAEHW4EAICommandType@@JJ@Z PROC ; CChartAddInBase000000::OnAddInToolCommand, COMDAT
; _this$ = ecx

; 203  : 	virtual BOOL	OnAddInToolCommand(	const EAICommandType p_eCommandID, const long p_lParam1, const long p_lParam2)							{	return FALSE;	}

  00000	33 c0		 xor	 eax, eax
  00002	c2 0c 00	 ret	 12			; 0000000cH
?OnAddInToolCommand@CChartAddInBase000000@@MAEHW4EAICommandType@@JJ@Z ENDP ; CChartAddInBase000000::OnAddInToolCommand
_TEXT	ENDS
; Function compile flags: /Ogtp
; File D:\git\src\IBK\IBK_DRFN\ProjSrc\SrcChartEx\ChartOCX\AddInManager\Include_AddIn\I000000\_ChartAddInBase.h
;	COMDAT ?OnAddInToolCommand@CChartAddInBase000000@@MAEHW4EAICommandType@@JPBD11@Z
_TEXT	SEGMENT
_p_eCommandID$ = 8					; size = 4
_p_lParam$ = 12						; size = 4
_p_szParam1$ = 16					; size = 4
_p_szParam2$ = 20					; size = 4
_p_szParam3$ = 24					; size = 4
?OnAddInToolCommand@CChartAddInBase000000@@MAEHW4EAICommandType@@JPBD11@Z PROC ; CChartAddInBase000000::OnAddInToolCommand, COMDAT
; _this$ = ecx

; 202  : 	virtual BOOL	OnAddInToolCommand( const EAICommandType p_eCommandID, const long p_lParam, const char *p_szParam1, const char *p_szParam2, const char *p_szParam3)	{	return FALSE;	}

  00000	33 c0		 xor	 eax, eax
  00002	c2 14 00	 ret	 20			; 00000014H
?OnAddInToolCommand@CChartAddInBase000000@@MAEHW4EAICommandType@@JPBD11@Z ENDP ; CChartAddInBase000000::OnAddInToolCommand
_TEXT	ENDS
; Function compile flags: /Ogtp
; File D:\git\src\IBK\IBK_DRFN\ProjSrc\SrcChartEx\ChartOCX\AddInManager\Include_AddIn\I000000\_ChartAddInBase.h
;	COMDAT ?OnAddInToolCommand@CChartAddInBase000000@@MAEHW4EAICommandType@@JPBD@Z
_TEXT	SEGMENT
_p_eCommandID$ = 8					; size = 4
_p_lParam$ = 12						; size = 4
_p_szParam$ = 16					; size = 4
?OnAddInToolCommand@CChartAddInBase000000@@MAEHW4EAICommandType@@JPBD@Z PROC ; CChartAddInBase000000::OnAddInToolCommand, COMDAT
; _this$ = ecx

; 201  : 	virtual BOOL	OnAddInToolCommand( const EAICommandType p_eCommandID, const long p_lParam, const char *p_szParam)							{	return FALSE;	}

  00000	33 c0		 xor	 eax, eax
  00002	c2 0c 00	 ret	 12			; 0000000cH
?OnAddInToolCommand@CChartAddInBase000000@@MAEHW4EAICommandType@@JPBD@Z ENDP ; CChartAddInBase000000::OnAddInToolCommand
_TEXT	ENDS
; Function compile flags: /Ogtp
; File D:\git\src\IBK\IBK_DRFN\ProjSrc\SrcChartEx\ChartOCX\AddInManager\Include_AddIn\I000000\_ChartAddInBase.h
;	COMDAT ?OnAddInToolCommand@CChartAddInBase000000@@MAEHW4EAICommandType@@J@Z
_TEXT	SEGMENT
_p_eCommandID$ = 8					; size = 4
_p_lParam$ = 12						; size = 4
?OnAddInToolCommand@CChartAddInBase000000@@MAEHW4EAICommandType@@J@Z PROC ; CChartAddInBase000000::OnAddInToolCommand, COMDAT
; _this$ = ecx

; 200  : 	virtual BOOL	OnAddInToolCommand(	const EAICommandType p_eCommandID, const long p_lParam)													{	return FALSE;	}

  00000	33 c0		 xor	 eax, eax
  00002	c2 08 00	 ret	 8
?OnAddInToolCommand@CChartAddInBase000000@@MAEHW4EAICommandType@@J@Z ENDP ; CChartAddInBase000000::OnAddInToolCommand
_TEXT	ENDS
; Function compile flags: /Ogtp
; File D:\git\src\IBK\IBK_DRFN\ProjSrc\SrcChartEx\ChartOCX\AddInManager\Include_AddIn\I000000\_ChartAddInBase.h
;	COMDAT ?OnAddInToolCommand@CChartAddInBase000000@@MAEHW4EAICommandType@@PBUIAddInDllBase@@@Z
_TEXT	SEGMENT
_p_eCommandID$ = 8					; size = 4
_p_pParam$ = 12						; size = 4
?OnAddInToolCommand@CChartAddInBase000000@@MAEHW4EAICommandType@@PBUIAddInDllBase@@@Z PROC ; CChartAddInBase000000::OnAddInToolCommand, COMDAT
; _this$ = ecx

; 199  : 	virtual BOOL	OnAddInToolCommand(	const EAICommandType p_eCommandID, const IAddInDllBase *p_pParam)										{	return FALSE;	}

  00000	33 c0		 xor	 eax, eax
  00002	c2 08 00	 ret	 8
?OnAddInToolCommand@CChartAddInBase000000@@MAEHW4EAICommandType@@PBUIAddInDllBase@@@Z ENDP ; CChartAddInBase000000::OnAddInToolCommand
_TEXT	ENDS
; Function compile flags: /Ogtp
; File D:\git\src\IBK\IBK_DRFN\ProjSrc\SrcChartEx\ChartOCX\AddInManager\Include_AddIn\I000000\_ChartAddInBase.h
;	COMDAT ?OnAddInToolCommand@CChartAddInBase000000@@MAEHW4EAICommandType@@PBDJ@Z
_TEXT	SEGMENT
_p_eCommandID$ = 8					; size = 4
_p_szParam$ = 12					; size = 4
_p_lParam$ = 16						; size = 4
?OnAddInToolCommand@CChartAddInBase000000@@MAEHW4EAICommandType@@PBDJ@Z PROC ; CChartAddInBase000000::OnAddInToolCommand, COMDAT
; _this$ = ecx

; 198  : 	virtual BOOL	OnAddInToolCommand( const EAICommandType p_eCommandID, const char *p_szParam, const long p_lParam)							{	return FALSE;	}

  00000	33 c0		 xor	 eax, eax
  00002	c2 0c 00	 ret	 12			; 0000000cH
?OnAddInToolCommand@CChartAddInBase000000@@MAEHW4EAICommandType@@PBDJ@Z ENDP ; CChartAddInBase000000::OnAddInToolCommand
_TEXT	ENDS
; Function compile flags: /Ogtp
; File D:\git\src\IBK\IBK_DRFN\ProjSrc\SrcChartEx\ChartOCX\AddInManager\Include_AddIn\I000000\_ChartAddInBase.h
;	COMDAT ?OnAddInToolCommand@CChartAddInBase000000@@MAEHW4EAICommandType@@PBD1@Z
_TEXT	SEGMENT
_p_eCommandID$ = 8					; size = 4
_p_szParam1$ = 12					; size = 4
_p_szParam2$ = 16					; size = 4
?OnAddInToolCommand@CChartAddInBase000000@@MAEHW4EAICommandType@@PBD1@Z PROC ; CChartAddInBase000000::OnAddInToolCommand, COMDAT
; _this$ = ecx

; 197  : 	virtual BOOL	OnAddInToolCommand(	const EAICommandType p_eCommandID, const char *p_szParam1, const char *p_szParam2)						{	return FALSE;	}

  00000	33 c0		 xor	 eax, eax
  00002	c2 0c 00	 ret	 12			; 0000000cH
?OnAddInToolCommand@CChartAddInBase000000@@MAEHW4EAICommandType@@PBD1@Z ENDP ; CChartAddInBase000000::OnAddInToolCommand
_TEXT	ENDS
; Function compile flags: /Ogtp
; File D:\git\src\IBK\IBK_DRFN\ProjSrc\SrcChartEx\ChartOCX\AddInManager\Include_AddIn\I000000\_ChartAddInBase.h
;	COMDAT ?OnAddInToolCommand@CChartAddInBase000000@@MAEHW4EAICommandType@@PBD@Z
_TEXT	SEGMENT
_p_eCommandID$ = 8					; size = 4
_p_szParam$ = 12					; size = 4
?OnAddInToolCommand@CChartAddInBase000000@@MAEHW4EAICommandType@@PBD@Z PROC ; CChartAddInBase000000::OnAddInToolCommand, COMDAT
; _this$ = ecx

; 196  : 	virtual BOOL	OnAddInToolCommand(	const EAICommandType p_eCommandID, const char *p_szParam)												{	return FALSE;	}

  00000	33 c0		 xor	 eax, eax
  00002	c2 08 00	 ret	 8
?OnAddInToolCommand@CChartAddInBase000000@@MAEHW4EAICommandType@@PBD@Z ENDP ; CChartAddInBase000000::OnAddInToolCommand
_TEXT	ENDS
; Function compile flags: /Ogtp
; File D:\git\src\IBK\IBK_DRFN\ProjSrc\SrcChartEx\ChartOCX\AddInManager\Include_AddIn\I000000\_ChartAddInBase.h
;	COMDAT ?OnAddInToolCommand@CChartAddInBase000000@@MAEHW4EAICommandType@@PAUHDC__@@IAAUtagPOINT@@K@Z
_TEXT	SEGMENT
_p_eCommandID$ = 8					; size = 4
_p_hDC$ = 12						; size = 4
_nFlags$ = 16						; size = 4
_point$ = 20						; size = 4
_p_dwMouseActionID$ = 24				; size = 4
?OnAddInToolCommand@CChartAddInBase000000@@MAEHW4EAICommandType@@PAUHDC__@@IAAUtagPOINT@@K@Z PROC ; CChartAddInBase000000::OnAddInToolCommand, COMDAT
; _this$ = ecx

; 195  : 	virtual BOOL	OnAddInToolCommand(	const EAICommandType p_eCommandID, HDC p_hDC, UINT nFlags, POINT &point, const DWORD p_dwMouseActionID)	{	return FALSE;	}

  00000	33 c0		 xor	 eax, eax
  00002	c2 14 00	 ret	 20			; 00000014H
?OnAddInToolCommand@CChartAddInBase000000@@MAEHW4EAICommandType@@PAUHDC__@@IAAUtagPOINT@@K@Z ENDP ; CChartAddInBase000000::OnAddInToolCommand
_TEXT	ENDS
; Function compile flags: /Ogtp
; File D:\git\src\IBK\IBK_DRFN\ProjSrc\SrcChartEx\ChartOCX\AddInManager\Include_AddIn\I000000\_ChartAddInBase.h
;	COMDAT ?OnAddInToolCommand@CChartAddInBase000000@@MAEHW4EAICommandType@@@Z
_TEXT	SEGMENT
_p_eCommandID$ = 8					; size = 4
?OnAddInToolCommand@CChartAddInBase000000@@MAEHW4EAICommandType@@@Z PROC ; CChartAddInBase000000::OnAddInToolCommand, COMDAT
; _this$ = ecx

; 194  : 	virtual BOOL	OnAddInToolCommand(	const EAICommandType p_eCommandID)																		{	return FALSE;	}

  00000	33 c0		 xor	 eax, eax
  00002	c2 04 00	 ret	 4
?OnAddInToolCommand@CChartAddInBase000000@@MAEHW4EAICommandType@@@Z ENDP ; CChartAddInBase000000::OnAddInToolCommand
_TEXT	ENDS
; Function compile flags: /Ogtp
; File D:\git\src\IBK\IBK_DRFN\ProjSrc\SrcChartEx\ChartOCX\AddInManager\Include_AddIn\I000000\_ChartAddInBase.h
;	COMDAT ?OnAddInMsg@CChartAddInBase000000@@MAEHPBDJ@Z
_TEXT	SEGMENT
_p_szAddInItemName$ = 8					; size = 4
_p_lParam$ = 12						; size = 4
?OnAddInMsg@CChartAddInBase000000@@MAEHPBDJ@Z PROC	; CChartAddInBase000000::OnAddInMsg, COMDAT
; _this$ = ecx

; 193  : 	virtual BOOL	OnAddInMsg(			const char *p_szAddInItemName, const long p_lParam)														{	return FALSE;	}

  00000	33 c0		 xor	 eax, eax
  00002	c2 08 00	 ret	 8
?OnAddInMsg@CChartAddInBase000000@@MAEHPBDJ@Z ENDP	; CChartAddInBase000000::OnAddInMsg
_TEXT	ENDS
; Function compile flags: /Ogtp
; File D:\git\src\IBK\IBK_DRFN\ProjSrc\SrcChartEx\ChartOCX\AddInManager\Include_AddIn\I000000\_ChartAddInBase.h
;	COMDAT ?OnCmdMsg@CChartAddInBase000000@@MAEHIHPAUICmdUI000000@@@Z
_TEXT	SEGMENT
_nID$ = 8						; size = 4
_nCode$ = 12						; size = 4
_p_pICmdUI$ = 16					; size = 4
?OnCmdMsg@CChartAddInBase000000@@MAEHIHPAUICmdUI000000@@@Z PROC ; CChartAddInBase000000::OnCmdMsg, COMDAT
; _this$ = ecx

; 192  : 	virtual BOOL	OnCmdMsg(			UINT nID, int nCode, ICmdUI *p_pICmdUI)																	{	return FALSE;	}

  00000	33 c0		 xor	 eax, eax
  00002	c2 0c 00	 ret	 12			; 0000000cH
?OnCmdMsg@CChartAddInBase000000@@MAEHIHPAUICmdUI000000@@@Z ENDP ; CChartAddInBase000000::OnCmdMsg
_TEXT	ENDS
; Function compile flags: /Ogtp
; File D:\git\src\IBK\IBK_DRFN\ProjSrc\SrcChartEx\ChartOCX\AddInManager\Include_AddIn\I000000\_ChartAddInBase.h
;	COMDAT ?OnPreNMTRClock@CChartAddInBase000000@@MAEHAA_J@Z
_TEXT	SEGMENT
_p_nRealClockSecs$ = 8					; size = 4
?OnPreNMTRClock@CChartAddInBase000000@@MAEHAA_J@Z PROC	; CChartAddInBase000000::OnPreNMTRClock, COMDAT
; _this$ = ecx

; 186  : 	virtual BOOL	OnPreNMTRClock( __int64 &p_nRealClockSecs)																		{	return TRUE;	}

  00000	b8 01 00 00 00	 mov	 eax, 1
  00005	c2 04 00	 ret	 4
?OnPreNMTRClock@CChartAddInBase000000@@MAEHAA_J@Z ENDP	; CChartAddInBase000000::OnPreNMTRClock
_TEXT	ENDS
; Function compile flags: /Ogtp
; File D:\git\src\IBK\IBK_DRFN\ProjSrc\SrcChartEx\ChartOCX\AddInManager\Include_AddIn\I000000\_ChartAddInBase.h
;	COMDAT ?OnPreRealPacketEnd@CChartAddInBase000000@@MAEHPBDH@Z
_TEXT	SEGMENT
_p_szRQ$ = 8						; size = 4
_p_bRealData$ = 12					; size = 4
?OnPreRealPacketEnd@CChartAddInBase000000@@MAEHPBDH@Z PROC ; CChartAddInBase000000::OnPreRealPacketEnd, COMDAT
; _this$ = ecx

; 185  : 	virtual BOOL	OnPreRealPacketEnd( const char *p_szRQ = NULL, BOOL p_bRealData = TRUE)											{	return TRUE;	}

  00000	b8 01 00 00 00	 mov	 eax, 1
  00005	c2 08 00	 ret	 8
?OnPreRealPacketEnd@CChartAddInBase000000@@MAEHPBDH@Z ENDP ; CChartAddInBase000000::OnPreRealPacketEnd
_TEXT	ENDS
; Function compile flags: /Ogtp
; File D:\git\src\IBK\IBK_DRFN\ProjSrc\SrcChartEx\ChartOCX\AddInManager\Include_AddIn\I000000\_ChartAddInBase.h
;	COMDAT ?OnPreIndexedRealData@CChartAddInBase000000@@MAEHPBDHAANH@Z
_TEXT	SEGMENT
_p_szPacketName$ = 8					; size = 4
_p_nIndex$ = 12						; size = 4
_p_dData$ = 16						; size = 4
_p_bRealData$ = 20					; size = 4
?OnPreIndexedRealData@CChartAddInBase000000@@MAEHPBDHAANH@Z PROC ; CChartAddInBase000000::OnPreIndexedRealData, COMDAT
; _this$ = ecx

; 184  : 	virtual BOOL	OnPreIndexedRealData( const char *p_szPacketName, const int p_nIndex, double &p_dData, BOOL p_bRealData = TRUE)	{	return TRUE;	}

  00000	b8 01 00 00 00	 mov	 eax, 1
  00005	c2 10 00	 ret	 16			; 00000010H
?OnPreIndexedRealData@CChartAddInBase000000@@MAEHPBDHAANH@Z ENDP ; CChartAddInBase000000::OnPreIndexedRealData
_TEXT	ENDS
; Function compile flags: /Ogtp
; File D:\git\src\IBK\IBK_DRFN\ProjSrc\SrcChartEx\ChartOCX\AddInManager\Include_AddIn\I000000\_ChartAddInBase.h
;	COMDAT ?OnPreRealData@CChartAddInBase000000@@MAEHPBDAAN0H@Z
_TEXT	SEGMENT
_p_szPacketName$ = 8					; size = 4
_p_dData$ = 12						; size = 4
_p_szRQ$ = 16						; size = 4
_p_bRealData$ = 20					; size = 4
?OnPreRealData@CChartAddInBase000000@@MAEHPBDAAN0H@Z PROC ; CChartAddInBase000000::OnPreRealData, COMDAT
; _this$ = ecx

; 183  : 	virtual BOOL	OnPreRealData( const char *p_szPacketName, double &p_dData, const char *p_szRQ = NULL, BOOL p_bRealData = TRUE)	{	return TRUE;	}

  00000	b8 01 00 00 00	 mov	 eax, 1
  00005	c2 10 00	 ret	 16			; 00000010H
?OnPreRealData@CChartAddInBase000000@@MAEHPBDAAN0H@Z ENDP ; CChartAddInBase000000::OnPreRealData
_TEXT	ENDS
; Function compile flags: /Ogtp
; File D:\git\src\IBK\IBK_DRFN\ProjSrc\SrcChartEx\ChartOCX\AddInManager\Include_AddIn\I000000\_ChartAddInBase.h
;	COMDAT ?OnRecalculationComplete@CChartAddInBase000000@@MAEXXZ
_TEXT	SEGMENT
?OnRecalculationComplete@CChartAddInBase000000@@MAEXXZ PROC ; CChartAddInBase000000::OnRecalculationComplete, COMDAT
; _this$ = ecx

; 179  : 	virtual void	OnRecalculationComplete( void)						{}

  00000	c2 00 00	 ret	 0
?OnRecalculationComplete@CChartAddInBase000000@@MAEXXZ ENDP ; CChartAddInBase000000::OnRecalculationComplete
_TEXT	ENDS
; Function compile flags: /Ogtp
; File D:\git\src\IBK\IBK_DRFN\ProjSrc\SrcChartEx\ChartOCX\AddInManager\Include_AddIn\I000000\_ChartAddInBase.h
;	COMDAT ?DrawCursor@CChartAddInBase000000@@MAE?AUtagRECT@@PAUHDC__@@@Z
_TEXT	SEGMENT
___$ReturnUdt$ = 8					; size = 4
_p_hDC$ = 12						; size = 4
?DrawCursor@CChartAddInBase000000@@MAE?AUtagRECT@@PAUHDC__@@@Z PROC ; CChartAddInBase000000::DrawCursor, COMDAT
; _this$ = ecx

; 177  : 	virtual RECT	DrawCursor( HDC p_hDC)								{	RECT rct = { 0, 0, 0, 0};	return rct;		}

  00000	55		 push	 ebp
  00001	8b ec		 mov	 ebp, esp
  00003	8b 45 08	 mov	 eax, DWORD PTR ___$ReturnUdt$[ebp]
  00006	c7 00 00 00 00
	00		 mov	 DWORD PTR [eax], 0
  0000c	c7 40 04 00 00
	00 00		 mov	 DWORD PTR [eax+4], 0
  00013	c7 40 08 00 00
	00 00		 mov	 DWORD PTR [eax+8], 0
  0001a	c7 40 0c 00 00
	00 00		 mov	 DWORD PTR [eax+12], 0
  00021	5d		 pop	 ebp
  00022	c2 08 00	 ret	 8
?DrawCursor@CChartAddInBase000000@@MAE?AUtagRECT@@PAUHDC__@@@Z ENDP ; CChartAddInBase000000::DrawCursor
_TEXT	ENDS
; Function compile flags: /Ogtp
; File D:\git\src\IBK\IBK_DRFN\ProjSrc\SrcChartEx\ChartOCX\AddInManager\Include_AddIn\I000000\_ChartAddInBase.h
;	COMDAT ?OnRealPacketEnd@CChartAddInBase000000@@MAEXPBD@Z
_TEXT	SEGMENT
_p_szRQ$ = 8						; size = 4
?OnRealPacketEnd@CChartAddInBase000000@@MAEXPBD@Z PROC	; CChartAddInBase000000::OnRealPacketEnd, COMDAT
; _this$ = ecx

; 172  : 	virtual void	OnRealPacketEnd( const char *p_szRQ)								{}

  00000	c2 04 00	 ret	 4
?OnRealPacketEnd@CChartAddInBase000000@@MAEXPBD@Z ENDP	; CChartAddInBase000000::OnRealPacketEnd
_TEXT	ENDS
; Function compile flags: /Ogtp
; File D:\git\src\IBK\IBK_DRFN\ProjSrc\SrcChartEx\ChartOCX\AddInManager\Include_AddIn\I000000\_ChartAddInBase.h
;	COMDAT ?OnIndexedRealData@CChartAddInBase000000@@MAEXPBDHN@Z
_TEXT	SEGMENT
_p_szPacketName$ = 8					; size = 4
_p_nIndex$ = 12						; size = 4
_p_dData$ = 16						; size = 8
?OnIndexedRealData@CChartAddInBase000000@@MAEXPBDHN@Z PROC ; CChartAddInBase000000::OnIndexedRealData, COMDAT
; _this$ = ecx

; 170  : 	virtual void	OnIndexedRealData( const char *p_szPacketName, const int p_nIndex, double p_dData)		{}

  00000	c2 10 00	 ret	 16			; 00000010H
?OnIndexedRealData@CChartAddInBase000000@@MAEXPBDHN@Z ENDP ; CChartAddInBase000000::OnIndexedRealData
_TEXT	ENDS
; Function compile flags: /Ogtp
; File D:\git\src\IBK\IBK_DRFN\ProjSrc\SrcChartEx\ChartOCX\AddInManager\Include_AddIn\I000000\_ChartAddInBase.h
;	COMDAT ?OnRealData@CChartAddInBase000000@@MAEXPBDN0@Z
_TEXT	SEGMENT
_p_szPacketName$ = 8					; size = 4
_p_dData$ = 12						; size = 8
_p_szRQ$ = 20						; size = 4
?OnRealData@CChartAddInBase000000@@MAEXPBDN0@Z PROC	; CChartAddInBase000000::OnRealData, COMDAT
; _this$ = ecx

; 169  : 	virtual void	OnRealData( const char *p_szPacketName, double p_dData, const char *p_szRQ)			{}

  00000	c2 10 00	 ret	 16			; 00000010H
?OnRealData@CChartAddInBase000000@@MAEXPBDN0@Z ENDP	; CChartAddInBase000000::OnRealData
_TEXT	ENDS
; Function compile flags: /Ogtp
; File D:\git\src\IBK\IBK_DRFN\ProjSrc\SrcChartEx\ChartOCX\AddInManager\Include_AddIn\I000000\_ChartAddInBase.h
;	COMDAT ?OnBlockChanged@CChartAddInBase000000@@MAEXW4BLOCKBEHAVIOR@CBlockBaseData@@HHHH@Z
_TEXT	SEGMENT
_p_eChangeType$ = 8					; size = 4
_p_nSourceRow$ = 12					; size = 4
_p_nSourceColumn$ = 16					; size = 4
_p_nTargetRow$ = 20					; size = 4
_p_nTargetColumn$ = 24					; size = 4
?OnBlockChanged@CChartAddInBase000000@@MAEXW4BLOCKBEHAVIOR@CBlockBaseData@@HHHH@Z PROC ; CChartAddInBase000000::OnBlockChanged, COMDAT
; _this$ = ecx

; 165  : 	virtual void	OnBlockChanged( const CBlockBaseData::BLOCKBEHAVIOR p_eChangeType, const int p_nSourceRow, const int p_nSourceColumn, const int p_nTargetRow, const int p_nTargetColumn)	{}

  00000	c2 14 00	 ret	 20			; 00000014H
?OnBlockChanged@CChartAddInBase000000@@MAEXW4BLOCKBEHAVIOR@CBlockBaseData@@HHHH@Z ENDP ; CChartAddInBase000000::OnBlockChanged
_TEXT	ENDS
; Function compile flags: /Ogtp
; File D:\git\src\IBK\IBK_DRFN\ProjSrc\SrcChartEx\ChartOCX\AddInManager\Include_AddIn\I000000\_ChartAddInBase.h
;	COMDAT ?OnPacketTruncated@CChartAddInBase000000@@MAEXH@Z
_TEXT	SEGMENT
_p_nDataCount$ = 8					; size = 4
?OnPacketTruncated@CChartAddInBase000000@@MAEXH@Z PROC	; CChartAddInBase000000::OnPacketTruncated, COMDAT
; _this$ = ecx

; 163  : 	virtual void	OnPacketTruncated( const int p_nDataCount)			{}

  00000	c2 04 00	 ret	 4
?OnPacketTruncated@CChartAddInBase000000@@MAEXH@Z ENDP	; CChartAddInBase000000::OnPacketTruncated
_TEXT	ENDS
; Function compile flags: /Ogtp
; File D:\git\src\IBK\IBK_DRFN\ProjSrc\SrcChartEx\ChartOCX\AddInManager\Include_AddIn\I000000\_ChartAddInBase.h
;	COMDAT ?OnGraphDeleted@CChartAddInBase000000@@MAEXPBD0@Z
_TEXT	SEGMENT
_p_szGraphName$ = 8					; size = 4
_p_szIndicatorName$ = 12				; size = 4
?OnGraphDeleted@CChartAddInBase000000@@MAEXPBD0@Z PROC	; CChartAddInBase000000::OnGraphDeleted, COMDAT
; _this$ = ecx

; 161  : 	virtual void	OnGraphDeleted( const char *p_szGraphName, const char *p_szIndicatorName)			{}

  00000	c2 08 00	 ret	 8
?OnGraphDeleted@CChartAddInBase000000@@MAEXPBD0@Z ENDP	; CChartAddInBase000000::OnGraphDeleted
_TEXT	ENDS
; Function compile flags: /Ogtp
; File D:\git\src\IBK\IBK_DRFN\ProjSrc\SrcChartEx\ChartOCX\AddInManager\Include_AddIn\I000000\_ChartAddInBase.h
;	COMDAT ?OnContextMenu@CChartAddInBase000000@@MAEXPAUHWND__@@AAUtagPOINT@@@Z
_TEXT	SEGMENT
_p_hWnd$ = 8						; size = 4
_p_pt$ = 12						; size = 4
?OnContextMenu@CChartAddInBase000000@@MAEXPAUHWND__@@AAUtagPOINT@@@Z PROC ; CChartAddInBase000000::OnContextMenu, COMDAT
; _this$ = ecx

; 159  : 	virtual void	OnContextMenu( HWND p_hWnd, POINT &p_pt)			{}

  00000	c2 08 00	 ret	 8
?OnContextMenu@CChartAddInBase000000@@MAEXPAUHWND__@@AAUtagPOINT@@@Z ENDP ; CChartAddInBase000000::OnContextMenu
_TEXT	ENDS
; Function compile flags: /Ogtp
; File D:\git\src\IBK\IBK_DRFN\ProjSrc\SrcChartEx\ChartOCX\AddInManager\Include_AddIn\I000000\_ChartAddInBase.h
;	COMDAT ?OnManualRealData@CChartAddInBase000000@@MAEXPBDNH@Z
_TEXT	SEGMENT
_p_szPacketName$ = 8					; size = 4
_p_dData$ = 12						; size = 8
_p_nOption$ = 20					; size = 4
?OnManualRealData@CChartAddInBase000000@@MAEXPBDNH@Z PROC ; CChartAddInBase000000::OnManualRealData, COMDAT
; _this$ = ecx

; 157  : 	virtual void	OnManualRealData( const char *p_szPacketName, const double p_dData, const int p_nOption)	{}

  00000	c2 10 00	 ret	 16			; 00000010H
?OnManualRealData@CChartAddInBase000000@@MAEXPBDNH@Z ENDP ; CChartAddInBase000000::OnManualRealData
_TEXT	ENDS
; Function compile flags: /Ogtp
; File D:\git\src\IBK\IBK_DRFN\ProjSrc\SrcChartEx\ChartOCX\AddInManager\Include_AddIn\I000000\_ChartAddInBase.h
;	COMDAT ?OnGraphAdded@CChartAddInBase000000@@MAEXPBD0@Z
_TEXT	SEGMENT
_p_szGraphName$ = 8					; size = 4
_p_szIndicatorName$ = 12				; size = 4
?OnGraphAdded@CChartAddInBase000000@@MAEXPBD0@Z PROC	; CChartAddInBase000000::OnGraphAdded, COMDAT
; _this$ = ecx

; 155  : 	virtual void	OnGraphAdded( const char *p_szGraphName, const char *p_szIndicatorName)			{}

  00000	c2 08 00	 ret	 8
?OnGraphAdded@CChartAddInBase000000@@MAEXPBD0@Z ENDP	; CChartAddInBase000000::OnGraphAdded
_TEXT	ENDS
; Function compile flags: /Ogtp
; File D:\git\src\IBK\IBK_DRFN\ProjSrc\SrcChartEx\ChartOCX\AddInManager\Include_AddIn\I000000\_ChartAddInBase.h
;	COMDAT ?OnBlockRemoved@CChartAddInBase000000@@MAEXHH@Z
_TEXT	SEGMENT
_p_nRow$ = 8						; size = 4
_p_nColumn$ = 12					; size = 4
?OnBlockRemoved@CChartAddInBase000000@@MAEXHH@Z PROC	; CChartAddInBase000000::OnBlockRemoved, COMDAT
; _this$ = ecx

; 153  : 	virtual void	OnBlockRemoved( const int p_nRow, const int p_nColumn)	{}

  00000	c2 08 00	 ret	 8
?OnBlockRemoved@CChartAddInBase000000@@MAEXHH@Z ENDP	; CChartAddInBase000000::OnBlockRemoved
_TEXT	ENDS
; Function compile flags: /Ogtp
; File D:\git\src\IBK\IBK_DRFN\ProjSrc\SrcChartEx\ChartOCX\AddInManager\Include_AddIn\I000000\_ChartAddInBase.h
;	COMDAT ?OnGraphDataChanged@CChartAddInBase000000@@MAEXXZ
_TEXT	SEGMENT
?OnGraphDataChanged@CChartAddInBase000000@@MAEXXZ PROC	; CChartAddInBase000000::OnGraphDataChanged, COMDAT
; _this$ = ecx

; 151  : 	virtual void	OnGraphDataChanged( void)							{}

  00000	c2 00 00	 ret	 0
?OnGraphDataChanged@CChartAddInBase000000@@MAEXXZ ENDP	; CChartAddInBase000000::OnGraphDataChanged
_TEXT	ENDS
; Function compile flags: /Ogtp
; File D:\git\src\IBK\IBK_DRFN\ProjSrc\SrcChartEx\ChartOCX\AddInManager\Include_AddIn\I000000\_ChartAddInBase.h
;	COMDAT ?OnChartItemChanged@CChartAddInBase000000@@MAEXXZ
_TEXT	SEGMENT
?OnChartItemChanged@CChartAddInBase000000@@MAEXXZ PROC	; CChartAddInBase000000::OnChartItemChanged, COMDAT
; _this$ = ecx

; 149  : 	virtual void	OnChartItemChanged( void)							{}

  00000	c2 00 00	 ret	 0
?OnChartItemChanged@CChartAddInBase000000@@MAEXXZ ENDP	; CChartAddInBase000000::OnChartItemChanged
_TEXT	ENDS
; Function compile flags: /Ogtp
; File D:\git\src\IBK\IBK_DRFN\ProjSrc\SrcChartEx\ChartOCX\AddInManager\Include_AddIn\I000000\_ChartAddInBase.h
;	COMDAT ?OnUserIndiatorConditionLoaded@CChartAddInBase000000@@MAEXXZ
_TEXT	SEGMENT
?OnUserIndiatorConditionLoaded@CChartAddInBase000000@@MAEXXZ PROC ; CChartAddInBase000000::OnUserIndiatorConditionLoaded, COMDAT
; _this$ = ecx

; 147  : 	virtual void	OnUserIndiatorConditionLoaded( void)				{}

  00000	c2 00 00	 ret	 0
?OnUserIndiatorConditionLoaded@CChartAddInBase000000@@MAEXXZ ENDP ; CChartAddInBase000000::OnUserIndiatorConditionLoaded
_TEXT	ENDS
; Function compile flags: /Ogtp
; File D:\git\src\IBK\IBK_DRFN\ProjSrc\SrcChartEx\ChartOCX\AddInManager\Include_AddIn\I000000\_ChartAddInBase.h
;	COMDAT ?OnResetMainBlock@CChartAddInBase000000@@MAEXXZ
_TEXT	SEGMENT
?OnResetMainBlock@CChartAddInBase000000@@MAEXXZ PROC	; CChartAddInBase000000::OnResetMainBlock, COMDAT
; _this$ = ecx

; 145  : 	virtual void	OnResetMainBlock( void)								{}

  00000	c2 00 00	 ret	 0
?OnResetMainBlock@CChartAddInBase000000@@MAEXXZ ENDP	; CChartAddInBase000000::OnResetMainBlock
_TEXT	ENDS
; Function compile flags: /Ogtp
; File D:\git\src\IBK\IBK_DRFN\ProjSrc\SrcChartEx\ChartOCX\AddInManager\Include_AddIn\I000000\_ChartAddInBase.h
;	COMDAT ?OnCaptureChanged@CChartAddInBase000000@@MAEXPAUHWND__@@QAUHBITMAP__@@@Z
_TEXT	SEGMENT
_p_hWnd$ = 8						; size = 4
_p_hbmpMainOSB$ = 12					; size = 4
?OnCaptureChanged@CChartAddInBase000000@@MAEXPAUHWND__@@QAUHBITMAP__@@@Z PROC ; CChartAddInBase000000::OnCaptureChanged, COMDAT
; _this$ = ecx

; 143  : 	virtual void	OnCaptureChanged( HWND p_hWnd, const HBITMAP p_hbmpMainOSB)	{}	// (2006/11/5 - Seung-Won, Bae) Support MainOSB

  00000	c2 08 00	 ret	 8
?OnCaptureChanged@CChartAddInBase000000@@MAEXPAUHWND__@@QAUHBITMAP__@@@Z ENDP ; CChartAddInBase000000::OnCaptureChanged
_TEXT	ENDS
; Function compile flags: /Ogtp
; File D:\git\src\IBK\IBK_DRFN\ProjSrc\SrcChartEx\ChartOCX\AddInManager\Include_AddIn\I000000\_ChartAddInBase.h
;	COMDAT ?OnTimer@CChartAddInBase000000@@MAEXI@Z
_TEXT	SEGMENT
_p_uTimerID$ = 8					; size = 4
?OnTimer@CChartAddInBase000000@@MAEXI@Z PROC		; CChartAddInBase000000::OnTimer, COMDAT
; _this$ = ecx

; 138  : 	virtual void	OnTimer( UINT p_uTimerID)	{}

  00000	c2 04 00	 ret	 4
?OnTimer@CChartAddInBase000000@@MAEXI@Z ENDP		; CChartAddInBase000000::OnTimer
_TEXT	ENDS
; Function compile flags: /Ogtp
; File D:\git\src\IBK\IBK_DRFN\ProjSrc\SrcChartEx\ChartOCX\AddInManager\Include_AddIn\I000000\_ChartAddInBase.h
;	COMDAT ?OnDrawAfterGraph@CChartAddInBase000000@@MAEXPAUHDC__@@@Z
_TEXT	SEGMENT
_p_hDC$ = 8						; size = 4
?OnDrawAfterGraph@CChartAddInBase000000@@MAEXPAUHDC__@@@Z PROC ; CChartAddInBase000000::OnDrawAfterGraph, COMDAT
; _this$ = ecx

; 134  : 	virtual void	OnDrawAfterGraph( HDC p_hDC)	{}

  00000	c2 04 00	 ret	 4
?OnDrawAfterGraph@CChartAddInBase000000@@MAEXPAUHDC__@@@Z ENDP ; CChartAddInBase000000::OnDrawAfterGraph
_TEXT	ENDS
; Function compile flags: /Ogtp
; File D:\git\src\IBK\IBK_DRFN\ProjSrc\SrcChartEx\ChartOCX\AddInManager\Include_AddIn\I000000\_ChartAddInBase.h
;	COMDAT ?OnDrawBeforeGraph@CChartAddInBase000000@@MAEXPAUHDC__@@@Z
_TEXT	SEGMENT
_p_hDC$ = 8						; size = 4
?OnDrawBeforeGraph@CChartAddInBase000000@@MAEXPAUHDC__@@@Z PROC ; CChartAddInBase000000::OnDrawBeforeGraph, COMDAT
; _this$ = ecx

; 132  : 	virtual void	OnDrawBeforeGraph( HDC p_hDC)	{}

  00000	c2 04 00	 ret	 4
?OnDrawBeforeGraph@CChartAddInBase000000@@MAEXPAUHDC__@@@Z ENDP ; CChartAddInBase000000::OnDrawBeforeGraph
_TEXT	ENDS
; Function compile flags: /Ogtp
; File D:\git\src\IBK\IBK_DRFN\ProjSrc\SrcChartEx\ChartOCX\AddInManager\Include_AddIn\I000000\_ChartAddInBase.h
;	COMDAT ?OnResetChart@CChartAddInBase000000@@MAEXXZ
_TEXT	SEGMENT
?OnResetChart@CChartAddInBase000000@@MAEXXZ PROC	; CChartAddInBase000000::OnResetChart, COMDAT
; _this$ = ecx

; 130  : 	virtual void	OnResetChart( void)	{}

  00000	c2 00 00	 ret	 0
?OnResetChart@CChartAddInBase000000@@MAEXXZ ENDP	; CChartAddInBase000000::OnResetChart
_TEXT	ENDS
; Function compile flags: /Ogtp
; File D:\git\src\IBK\IBK_DRFN\ProjSrc\SrcChartEx\ChartOCX\AddInManager\Include_AddIn\I000000\_ChartAddInBase.h
;	COMDAT ?OnLSharedDataChange@CChartAddInBase000000@@MAEXPBD0@Z
_TEXT	SEGMENT
_p_szLShareKey$ = 8					; size = 4
_p_szLShareValue$ = 12					; size = 4
?OnLSharedDataChange@CChartAddInBase000000@@MAEXPBD0@Z PROC ; CChartAddInBase000000::OnLSharedDataChange, COMDAT
; _this$ = ecx

; 128  : 	virtual void	OnLSharedDataChange( const char *p_szLShareKey, const char *p_szLShareValue)	{}

  00000	c2 08 00	 ret	 8
?OnLSharedDataChange@CChartAddInBase000000@@MAEXPBD0@Z ENDP ; CChartAddInBase000000::OnLSharedDataChange
_TEXT	ENDS
; Function compile flags: /Ogtp
; File D:\git\src\IBK\IBK_DRFN\ProjSrc\SrcChartEx\ChartOCX\AddInManager\Include_AddIn\I000000\_ChartAddInBase.h
;	COMDAT ?OnGSharedDataChange@CChartAddInBase000000@@MAEXPBD0H@Z
_TEXT	SEGMENT
_p_szGShareKey$ = 8					; size = 4
_p_szGShareValue$ = 12					; size = 4
_p_bStartShare$ = 16					; size = 4
?OnGSharedDataChange@CChartAddInBase000000@@MAEXPBD0H@Z PROC ; CChartAddInBase000000::OnGSharedDataChange, COMDAT
; _this$ = ecx

; 126  : 	virtual void	OnGSharedDataChange( const char *p_szGShareKey, const char *p_szGShareValue, BOOL p_bStartShare)	{}

  00000	c2 0c 00	 ret	 12			; 0000000cH
?OnGSharedDataChange@CChartAddInBase000000@@MAEXPBD0H@Z ENDP ; CChartAddInBase000000::OnGSharedDataChange
_TEXT	ENDS
; Function compile flags: /Ogtp
; File D:\git\src\IBK\IBK_DRFN\ProjSrc\SrcChartEx\ChartOCX\AddInManager\Include_AddIn\I000000\_ChartAddInBase.h
;	COMDAT ?ChangeChartMode@CChartAddInBase000000@@MAEXW4CHART_MODE@CChartInfo@@@Z
_TEXT	SEGMENT
_p_eChartMode$ = 8					; size = 4
?ChangeChartMode@CChartAddInBase000000@@MAEXW4CHART_MODE@CChartInfo@@@Z PROC ; CChartAddInBase000000::ChangeChartMode, COMDAT
; _this$ = ecx

; 116  : 	virtual void	ChangeChartMode( CChartInfo::CHART_MODE p_eChartMode)	{	m_eChartMode = p_eChartMode;	}

  00000	55		 push	 ebp
  00001	8b ec		 mov	 ebp, esp
  00003	8b 45 08	 mov	 eax, DWORD PTR _p_eChartMode$[ebp]
  00006	89 41 34	 mov	 DWORD PTR [ecx+52], eax
  00009	5d		 pop	 ebp
  0000a	c2 04 00	 ret	 4
?ChangeChartMode@CChartAddInBase000000@@MAEXW4CHART_MODE@CChartInfo@@@Z ENDP ; CChartAddInBase000000::ChangeChartMode
_TEXT	ENDS
; Function compile flags: /Ogtp
; File D:\git\src\IBK\IBK_DRFN\ProjSrc\SrcChartEx\ChartOCX\AddInManager\Include_AddIn\I000000\_ChartAddInBase.h
;	COMDAT ?AfeterOnOcxDestroyWindow@CChartAddInBase000000@@MAEXXZ
_TEXT	SEGMENT
?AfeterOnOcxDestroyWindow@CChartAddInBase000000@@MAEXXZ PROC ; CChartAddInBase000000::AfeterOnOcxDestroyWindow, COMDAT
; _this$ = ecx

; 109  : 	virtual void	AfeterOnOcxDestroyWindow( void)							{}

  00000	c2 00 00	 ret	 0
?AfeterOnOcxDestroyWindow@CChartAddInBase000000@@MAEXXZ ENDP ; CChartAddInBase000000::AfeterOnOcxDestroyWindow
_TEXT	ENDS
; Function compile flags: /Ogtp
; File D:\git\src\IBK\IBK_DRFN\ProjSrc\SrcChartEx\ChartOCX\AddInManager\Include_AddIn\I000000\_ChartAddInBase.h
;	COMDAT ?InvokeAddIn@CChartAddInBase000000@@MAEHHJ@Z
_TEXT	SEGMENT
_p_nCommandType$ = 8					; size = 4
_p_lData$ = 12						; size = 4
?InvokeAddIn@CChartAddInBase000000@@MAEHHJ@Z PROC	; CChartAddInBase000000::InvokeAddIn, COMDAT
; _this$ = ecx

; 91   : 	virtual BOOL	InvokeAddIn( int p_nCommandType, long p_lData)	{	return FALSE;	}

  00000	33 c0		 xor	 eax, eax
  00002	c2 08 00	 ret	 8
?InvokeAddIn@CChartAddInBase000000@@MAEHHJ@Z ENDP	; CChartAddInBase000000::InvokeAddIn
_TEXT	ENDS
; Function compile flags: /Ogtp
; File D:\git\src\IBK\IBK_DRFN\ProjSrc\SrcChartEx\ChartOCX\AddInManager\Include_AddIn\I000000\_ChartAddInBase.h
;	COMDAT ?GetAddInCustomInterface@CChartAddInBase000000@@MAEPAUIUnknown@@XZ
_TEXT	SEGMENT
?GetAddInCustomInterface@CChartAddInBase000000@@MAEPAUIUnknown@@XZ PROC ; CChartAddInBase000000::GetAddInCustomInterface, COMDAT
; _this$ = ecx

; 87   : 	virtual IUnknown *	GetAddInCustomInterface( void)				{	return NULL;	}

  00000	33 c0		 xor	 eax, eax
  00002	c3		 ret	 0
?GetAddInCustomInterface@CChartAddInBase000000@@MAEPAUIUnknown@@XZ ENDP ; CChartAddInBase000000::GetAddInCustomInterface
_TEXT	ENDS
; Function compile flags: /Ogtp
; File D:\git\src\IBK\IBK_DRFN\ProjSrc\SrcChartEx\ChartOCX\AddInManager\Include_AddIn\I000000\_ChartAddInBase.h
;	COMDAT ?QueryInterface@CChartAddInBase000000@@MAGJABU_GUID@@PAPAX@Z
_TEXT	SEGMENT
_this$ = 8						; size = 4
_iid$ = 12						; size = 4
_ppvObject$ = 16					; size = 4
?QueryInterface@CChartAddInBase000000@@MAGJABU_GUID@@PAPAX@Z PROC ; CChartAddInBase000000::QueryInterface, COMDAT

; 54   : 	_IWRAPPER_IUNKNOWN_INTERFACE()

  00000	b8 02 40 00 80	 mov	 eax, -2147467262	; 80004002H
  00005	c2 0c 00	 ret	 12			; 0000000cH
?QueryInterface@CChartAddInBase000000@@MAGJABU_GUID@@PAPAX@Z ENDP ; CChartAddInBase000000::QueryInterface
_TEXT	ENDS
; Function compile flags: /Ogtp
; File D:\git\src\IBK\IBK_DRFN\ProjSrc\SrcChartEx\ChartOCX\AddInManager\Include_AddIn\I000000\_ChartAddInBase.h
;	COMDAT ?Release@CChartAddInBase000000@@MAGKXZ
_TEXT	SEGMENT
_this$ = 8						; size = 4
?Release@CChartAddInBase000000@@MAGKXZ PROC		; CChartAddInBase000000::Release, COMDAT

; 54   : 	_IWRAPPER_IUNKNOWN_INTERFACE()

  00000	55		 push	 ebp
  00001	8b ec		 mov	 ebp, esp
  00003	5d		 pop	 ebp
  00004	e9 00 00 00 00	 jmp	 ?Release@CIWUnknown@@MAGKXZ ; CIWUnknown::Release
?Release@CChartAddInBase000000@@MAGKXZ ENDP		; CChartAddInBase000000::Release
_TEXT	ENDS
; Function compile flags: /Ogtp
; File D:\git\src\IBK\IBK_DRFN\ProjSrc\SrcChartEx\ChartOCX\AddInManager\Include_AddIn\I000000\_ChartAddInBase.h
;	COMDAT ?AddRef@CChartAddInBase000000@@MAGKXZ
_TEXT	SEGMENT
_this$ = 8						; size = 4
?AddRef@CChartAddInBase000000@@MAGKXZ PROC		; CChartAddInBase000000::AddRef, COMDAT

; 54   : 	_IWRAPPER_IUNKNOWN_INTERFACE()

  00000	55		 push	 ebp
  00001	8b ec		 mov	 ebp, esp
  00003	5d		 pop	 ebp
  00004	e9 00 00 00 00	 jmp	 ?AddRef@CIWUnknown@@MAGKXZ ; CIWUnknown::AddRef
?AddRef@CChartAddInBase000000@@MAGKXZ ENDP		; CChartAddInBase000000::AddRef
_TEXT	ENDS
; Function compile flags: /Ogtp
; File D:\git\src\IBK\IBK_DRFN\ProjSrc\SrcChartEx\ChartOCX\AddInManager\Include_AddIn\_IWUnknown.h
;	COMDAT ?PreDestruct@CIWUnknown@@MAEXXZ
_TEXT	SEGMENT
?PreDestruct@CIWUnknown@@MAEXXZ PROC			; CIWUnknown::PreDestruct, COMDAT
; _this$ = ecx

; 49   : 	virtual void	PreDestruct( void)		{}

  00000	c2 00 00	 ret	 0
?PreDestruct@CIWUnknown@@MAEXXZ ENDP			; CIWUnknown::PreDestruct
_TEXT	ENDS
; Function compile flags: /Ogtp
; File D:\git\src\IBK\IBK_DRFN\ProjSrc\SrcChartEx\ChartOCX\AddInManager\Include_AddIn\_IWUnknown.h
;	COMDAT ?PreDestructX@CIWUnknown@@MAEXXZ
_TEXT	SEGMENT
?PreDestructX@CIWUnknown@@MAEXXZ PROC			; CIWUnknown::PreDestructX, COMDAT
; _this$ = ecx

; 48   : 	virtual void	PreDestructX( void)		{}

  00000	c2 00 00	 ret	 0
?PreDestructX@CIWUnknown@@MAEXXZ ENDP			; CIWUnknown::PreDestructX
_TEXT	ENDS
; Function compile flags: /Ogtp
; File D:\git\src\IBK\IBK_DRFN\ProjSrc\SrcChartEx\ChartOCX\AddInManager\Include_AddIn\_IWUnknown.h
;	COMDAT ?PostConstruct@CIWUnknown@@MAEXXZ
_TEXT	SEGMENT
?PostConstruct@CIWUnknown@@MAEXXZ PROC			; CIWUnknown::PostConstruct, COMDAT
; _this$ = ecx

; 47   : 	virtual void	PostConstruct( void)	{}

  00000	c2 00 00	 ret	 0
?PostConstruct@CIWUnknown@@MAEXXZ ENDP			; CIWUnknown::PostConstruct
_TEXT	ENDS
; Function compile flags: /Ogtp
; File C:\Program Files (x86)\Microsoft Visual Studio\2019\Community\VC\Tools\MSVC\14.29.30133\atlmfc\include\afx.inl
;	COMDAT ?Dump@CObject@@UBEXAAVCDumpContext@@@Z
_TEXT	SEGMENT
___formal$ = 8						; size = 4
?Dump@CObject@@UBEXAAVCDumpContext@@@Z PROC		; CObject::Dump, COMDAT
; _this$ = ecx

; 122  : 	{ /* no dumping in release builds */ }

  00000	c2 04 00	 ret	 4
?Dump@CObject@@UBEXAAVCDumpContext@@@Z ENDP		; CObject::Dump
_TEXT	ENDS
; Function compile flags: /Ogtp
; File C:\Program Files (x86)\Microsoft Visual Studio\2019\Community\VC\Tools\MSVC\14.29.30133\atlmfc\include\afx.inl
;	COMDAT ?AssertValid@CObject@@UBEXXZ
_TEXT	SEGMENT
?AssertValid@CObject@@UBEXXZ PROC			; CObject::AssertValid, COMDAT
; _this$ = ecx

; 120  : 	{ /* no asserts in release builds */ }

  00000	c2 00 00	 ret	 0
?AssertValid@CObject@@UBEXXZ ENDP			; CObject::AssertValid
_TEXT	ENDS
; Function compile flags: /Ogtp
; File C:\Program Files (x86)\Microsoft Visual Studio\2019\Community\VC\Tools\MSVC\14.29.30133\atlmfc\include\afx.inl
;	COMDAT ?Serialize@CObject@@UAEXAAVCArchive@@@Z
_TEXT	SEGMENT
___formal$ = 8						; size = 4
?Serialize@CObject@@UAEXAAVCArchive@@@Z PROC		; CObject::Serialize, COMDAT
; _this$ = ecx

; 106  : 	{ /* CObject does not serialize anything by default */ }

  00000	c2 04 00	 ret	 4
?Serialize@CObject@@UAEXAAVCArchive@@@Z ENDP		; CObject::Serialize
_TEXT	ENDS
; Function compile flags: /Ogtp
; File D:\git\src\IBK\IBK_DRFN\ProjSrc\SrcChartEx\ChartOCX\AddInManager\ChartCommonAddIn\YScaleSetUpAddInImp.cpp
;	COMDAT ?__empty_global_delete@@YAXPAXI@Z
_TEXT	SEGMENT
___formal$ = 8						; size = 4
___formal$ = 12						; size = 4
?__empty_global_delete@@YAXPAXI@Z PROC			; __empty_global_delete, COMDAT

  00000	c2 00 00	 ret	 0
?__empty_global_delete@@YAXPAXI@Z ENDP			; __empty_global_delete
_TEXT	ENDS
; Function compile flags: /Ogtp
; File D:\git\src\IBK\IBK_DRFN\ProjSrc\SrcChartEx\ChartOCX\AddInManager\ChartCommonAddIn\YScaleSetUpAddInImp.cpp
;	COMDAT ?__empty_global_delete@@YAXPAX@Z
_TEXT	SEGMENT
___formal$ = 8						; size = 4
?__empty_global_delete@@YAXPAX@Z PROC			; __empty_global_delete, COMDAT

  00000	c2 00 00	 ret	 0
?__empty_global_delete@@YAXPAX@Z ENDP			; __empty_global_delete
_TEXT	ENDS
END
