; Listing generated by Microsoft (R) Optimizing Compiler Version 19.29.30145.0 

	TITLE	D:\git\src\IBK\IBK_DRFN\#DRfn-CS\_Obj\CompareChart\ChartMng.obj
	.686P
	.XMM
	include listing.inc
	.model	flat

INCLUDELIB MSVCRT
INCLUDELIB OLDNAMES

PUBLIC	?m_nStatic_RecvCntShareCode@CChartMng@@2HA	; CChartMng::m_nStatic_RecvCntShareCode
PUBLIC	??_C@_00CNPNBAHC@@				; `string'
PUBLIC	??_C@_0BB@IBKHOHJL@RMSG_REPLAY_REAL@		; `string'
PUBLIC	??_C@_0BB@JFLGBADG@RMSG_REPLAY_FAIL@		; `string'
PUBLIC	??_C@_0BI@KDGAIIMD@RMSG_REPLAY_CHANGE_DATE@	; `string'
PUBLIC	??_C@_0BA@NKHHCPON@RMSG_REPLAY_END@		; `string'
PUBLIC	??_C@_0BE@JFCIMCIP@RMSG_REPLAY_INC_SEC@		; `string'
PUBLIC	??_C@_0BG@GIAJEIJF@RMSG_REPLAY_TOTAL_SEC@	; `string'
PUBLIC	??_C@_0BC@LHNMEPFM@RMSG_SELCHARTCODE@		; `string'
PUBLIC	??_C@_0BE@FJPKENOB@RMSG_GETSIGNAL_REAL@		; `string'
PUBLIC	??_C@_0P@KHFCBIOH@RMSG_CHARTMAIN@		; `string'
PUBLIC	??_C@_0BC@MMPGLPDH@RMS_ANALYSIS_FUNC@		; `string'
PUBLIC	??_C@_0BA@HKNFENJL@RMSG_GET_USERID@		; `string'
PUBLIC	??_C@_0P@LFDACNFE@RMSG_KSDLLINFO@		; `string'
PUBLIC	??_C@_0N@IIOKMIEH@RMSG_GETINFO@			; `string'
PUBLIC	??_C@_0BG@CNPAHNGG@RMSG_CHANGE_SKINCOLOR@	; `string'
PUBLIC	??_C@_0BD@FLDNDDHK@RMSG_GET_SKINCOLOR@		; `string'
PUBLIC	??_C@_0BG@LNLCJKPF@RMSG_CHANGE_CROSSLINE@	; `string'
PUBLIC	??_C@_0P@JJCNALBJ@RMSG_DRAGSTART@		; `string'
PUBLIC	??_C@_0N@HCNBEPNP@RMSG_DRAGEND@			; `string'
PUBLIC	??_C@_0BC@FHIPKCJJ@RMSG_FROMCODELIST@		; `string'
PUBLIC	??_C@_0BC@GGHIPHFD@RMSG_SETSHAREDATA@		; `string'
PUBLIC	??_C@_0O@JLGCPGDL@RMSG_OPENMAP2@		; `string'
PUBLIC	??_C@_0BL@ONHOHGGM@RMSG_FROMHOGAJUMUN_DESTROY@	; `string'
PUBLIC	??_C@_0BJ@LMIHANJC@RMSG_HOGACHANGEDATA_CODE@	; `string'
PUBLIC	??_C@_0BJ@NKAHNENP@RMSG_HOGACHANGEDATA_ACCT@	; `string'
PUBLIC	??_C@_0BA@OPONGCEC@RMSG_SHARED_PIN@		; `string'
PUBLIC	??_C@_0BE@NAJONFKO@RMSG_RESIZEFROMGWAN@		; `string'
PUBLIC	??_C@_0BB@JOGLHCCG@RMSG_MESSAGESHOW@		; `string'
PUBLIC	??_C@_0BC@ICLGGCHO@RMSG_GETSKINVALUE@		; `string'
PUBLIC	??_C@_0BF@PIKHCIFF@RMSG_OPENMAPWITHDATA@	; `string'
PUBLIC	??_C@_0BI@NOJKFJLL@RMSG_SAVE_FOCUS_CONTROL@	; `string'
PUBLIC	??_C@_0BG@OPFPJGPD@CHARTMSG_EVENTMESSAGE@	; `string'
PUBLIC	??_C@_0BE@PJHMBKJL@RMSG_GETOPENEDOWNER@		; `string'
PUBLIC	??_C@_0BJ@IBLMHNPG@RMSG_CREATEOPENSHAREDATA@	; `string'
PUBLIC	??_C@_0BO@DBLNBLBD@RMSG_STDATAMANAGER_RESULTDATA@ ; `string'
_BSS	SEGMENT
?m_nStatic_RecvCntShareCode@CChartMng@@2HA DD 01H DUP (?) ; CChartMng::m_nStatic_RecvCntShareCode
_BSS	ENDS
;	COMDAT ??_C@_0BO@DBLNBLBD@RMSG_STDATAMANAGER_RESULTDATA@
CONST	SEGMENT
??_C@_0BO@DBLNBLBD@RMSG_STDATAMANAGER_RESULTDATA@ DB 'RMSG_STDATAMANAGER_'
	DB	'RESULTDATA', 00H				; `string'
CONST	ENDS
;	COMDAT ??_C@_0BJ@IBLMHNPG@RMSG_CREATEOPENSHAREDATA@
CONST	SEGMENT
??_C@_0BJ@IBLMHNPG@RMSG_CREATEOPENSHAREDATA@ DB 'RMSG_CREATEOPENSHAREDATA'
	DB	00H						; `string'
CONST	ENDS
;	COMDAT ??_C@_0BE@PJHMBKJL@RMSG_GETOPENEDOWNER@
CONST	SEGMENT
??_C@_0BE@PJHMBKJL@RMSG_GETOPENEDOWNER@ DB 'RMSG_GETOPENEDOWNER', 00H ; `string'
CONST	ENDS
;	COMDAT ??_C@_0BG@OPFPJGPD@CHARTMSG_EVENTMESSAGE@
CONST	SEGMENT
??_C@_0BG@OPFPJGPD@CHARTMSG_EVENTMESSAGE@ DB 'CHARTMSG_EVENTMESSAGE', 00H ; `string'
CONST	ENDS
;	COMDAT ??_C@_0BI@NOJKFJLL@RMSG_SAVE_FOCUS_CONTROL@
CONST	SEGMENT
??_C@_0BI@NOJKFJLL@RMSG_SAVE_FOCUS_CONTROL@ DB 'RMSG_SAVE_FOCUS_CONTROL', 00H ; `string'
CONST	ENDS
;	COMDAT ??_C@_0BF@PIKHCIFF@RMSG_OPENMAPWITHDATA@
CONST	SEGMENT
??_C@_0BF@PIKHCIFF@RMSG_OPENMAPWITHDATA@ DB 'RMSG_OPENMAPWITHDATA', 00H ; `string'
CONST	ENDS
;	COMDAT ??_C@_0BC@ICLGGCHO@RMSG_GETSKINVALUE@
CONST	SEGMENT
??_C@_0BC@ICLGGCHO@RMSG_GETSKINVALUE@ DB 'RMSG_GETSKINVALUE', 00H ; `string'
CONST	ENDS
;	COMDAT ??_C@_0BB@JOGLHCCG@RMSG_MESSAGESHOW@
CONST	SEGMENT
??_C@_0BB@JOGLHCCG@RMSG_MESSAGESHOW@ DB 'RMSG_MESSAGESHOW', 00H ; `string'
CONST	ENDS
;	COMDAT ??_C@_0BE@NAJONFKO@RMSG_RESIZEFROMGWAN@
CONST	SEGMENT
??_C@_0BE@NAJONFKO@RMSG_RESIZEFROMGWAN@ DB 'RMSG_RESIZEFROMGWAN', 00H ; `string'
CONST	ENDS
;	COMDAT ??_C@_0BA@OPONGCEC@RMSG_SHARED_PIN@
CONST	SEGMENT
??_C@_0BA@OPONGCEC@RMSG_SHARED_PIN@ DB 'RMSG_SHARED_PIN', 00H ; `string'
CONST	ENDS
;	COMDAT ??_C@_0BJ@NKAHNENP@RMSG_HOGACHANGEDATA_ACCT@
CONST	SEGMENT
??_C@_0BJ@NKAHNENP@RMSG_HOGACHANGEDATA_ACCT@ DB 'RMSG_HOGACHANGEDATA_ACCT'
	DB	00H						; `string'
CONST	ENDS
;	COMDAT ??_C@_0BJ@LMIHANJC@RMSG_HOGACHANGEDATA_CODE@
CONST	SEGMENT
??_C@_0BJ@LMIHANJC@RMSG_HOGACHANGEDATA_CODE@ DB 'RMSG_HOGACHANGEDATA_CODE'
	DB	00H						; `string'
CONST	ENDS
;	COMDAT ??_C@_0BL@ONHOHGGM@RMSG_FROMHOGAJUMUN_DESTROY@
CONST	SEGMENT
??_C@_0BL@ONHOHGGM@RMSG_FROMHOGAJUMUN_DESTROY@ DB 'RMSG_FROMHOGAJUMUN_DES'
	DB	'TROY', 00H					; `string'
CONST	ENDS
;	COMDAT ??_C@_0O@JLGCPGDL@RMSG_OPENMAP2@
CONST	SEGMENT
??_C@_0O@JLGCPGDL@RMSG_OPENMAP2@ DB 'RMSG_OPENMAP2', 00H ; `string'
CONST	ENDS
;	COMDAT ??_C@_0BC@GGHIPHFD@RMSG_SETSHAREDATA@
CONST	SEGMENT
??_C@_0BC@GGHIPHFD@RMSG_SETSHAREDATA@ DB 'RMSG_SETSHAREDATA', 00H ; `string'
CONST	ENDS
;	COMDAT ??_C@_0BC@FHIPKCJJ@RMSG_FROMCODELIST@
CONST	SEGMENT
??_C@_0BC@FHIPKCJJ@RMSG_FROMCODELIST@ DB 'RMSG_FROMCODELIST', 00H ; `string'
CONST	ENDS
;	COMDAT ??_C@_0N@HCNBEPNP@RMSG_DRAGEND@
CONST	SEGMENT
??_C@_0N@HCNBEPNP@RMSG_DRAGEND@ DB 'RMSG_DRAGEND', 00H	; `string'
CONST	ENDS
;	COMDAT ??_C@_0P@JJCNALBJ@RMSG_DRAGSTART@
CONST	SEGMENT
??_C@_0P@JJCNALBJ@RMSG_DRAGSTART@ DB 'RMSG_DRAGSTART', 00H ; `string'
CONST	ENDS
;	COMDAT ??_C@_0BG@LNLCJKPF@RMSG_CHANGE_CROSSLINE@
CONST	SEGMENT
??_C@_0BG@LNLCJKPF@RMSG_CHANGE_CROSSLINE@ DB 'RMSG_CHANGE_CROSSLINE', 00H ; `string'
CONST	ENDS
;	COMDAT ??_C@_0BD@FLDNDDHK@RMSG_GET_SKINCOLOR@
CONST	SEGMENT
??_C@_0BD@FLDNDDHK@RMSG_GET_SKINCOLOR@ DB 'RMSG_GET_SKINCOLOR', 00H ; `string'
CONST	ENDS
;	COMDAT ??_C@_0BG@CNPAHNGG@RMSG_CHANGE_SKINCOLOR@
CONST	SEGMENT
??_C@_0BG@CNPAHNGG@RMSG_CHANGE_SKINCOLOR@ DB 'RMSG_CHANGE_SKINCOLOR', 00H ; `string'
CONST	ENDS
;	COMDAT ??_C@_0N@IIOKMIEH@RMSG_GETINFO@
CONST	SEGMENT
??_C@_0N@IIOKMIEH@RMSG_GETINFO@ DB 'RMSG_GETINFO', 00H	; `string'
CONST	ENDS
;	COMDAT ??_C@_0P@LFDACNFE@RMSG_KSDLLINFO@
CONST	SEGMENT
??_C@_0P@LFDACNFE@RMSG_KSDLLINFO@ DB 'RMSG_KSDLLINFO', 00H ; `string'
CONST	ENDS
;	COMDAT ??_C@_0BA@HKNFENJL@RMSG_GET_USERID@
CONST	SEGMENT
??_C@_0BA@HKNFENJL@RMSG_GET_USERID@ DB 'RMSG_GET_USERID', 00H ; `string'
CONST	ENDS
;	COMDAT ??_C@_0BC@MMPGLPDH@RMS_ANALYSIS_FUNC@
CONST	SEGMENT
??_C@_0BC@MMPGLPDH@RMS_ANALYSIS_FUNC@ DB 'RMS_ANALYSIS_FUNC', 00H ; `string'
CONST	ENDS
;	COMDAT ??_C@_0P@KHFCBIOH@RMSG_CHARTMAIN@
CONST	SEGMENT
??_C@_0P@KHFCBIOH@RMSG_CHARTMAIN@ DB 'RMSG_CHARTMAIN', 00H ; `string'
CONST	ENDS
;	COMDAT ??_C@_0BE@FJPKENOB@RMSG_GETSIGNAL_REAL@
CONST	SEGMENT
??_C@_0BE@FJPKENOB@RMSG_GETSIGNAL_REAL@ DB 'RMSG_GETSIGNAL_REAL', 00H ; `string'
CONST	ENDS
;	COMDAT ??_C@_0BC@LHNMEPFM@RMSG_SELCHARTCODE@
CONST	SEGMENT
??_C@_0BC@LHNMEPFM@RMSG_SELCHARTCODE@ DB 'RMSG_SELCHARTCODE', 00H ; `string'
CONST	ENDS
;	COMDAT ??_C@_0BG@GIAJEIJF@RMSG_REPLAY_TOTAL_SEC@
CONST	SEGMENT
??_C@_0BG@GIAJEIJF@RMSG_REPLAY_TOTAL_SEC@ DB 'RMSG_REPLAY_TOTAL_SEC', 00H ; `string'
CONST	ENDS
;	COMDAT ??_C@_0BE@JFCIMCIP@RMSG_REPLAY_INC_SEC@
CONST	SEGMENT
??_C@_0BE@JFCIMCIP@RMSG_REPLAY_INC_SEC@ DB 'RMSG_REPLAY_INC_SEC', 00H ; `string'
CONST	ENDS
;	COMDAT ??_C@_0BA@NKHHCPON@RMSG_REPLAY_END@
CONST	SEGMENT
??_C@_0BA@NKHHCPON@RMSG_REPLAY_END@ DB 'RMSG_REPLAY_END', 00H ; `string'
CONST	ENDS
;	COMDAT ??_C@_0BI@KDGAIIMD@RMSG_REPLAY_CHANGE_DATE@
CONST	SEGMENT
??_C@_0BI@KDGAIIMD@RMSG_REPLAY_CHANGE_DATE@ DB 'RMSG_REPLAY_CHANGE_DATE', 00H ; `string'
CONST	ENDS
;	COMDAT ??_C@_0BB@JFLGBADG@RMSG_REPLAY_FAIL@
CONST	SEGMENT
??_C@_0BB@JFLGBADG@RMSG_REPLAY_FAIL@ DB 'RMSG_REPLAY_FAIL', 00H ; `string'
CONST	ENDS
;	COMDAT ??_C@_0BB@IBKHOHJL@RMSG_REPLAY_REAL@
CONST	SEGMENT
??_C@_0BB@IBKHOHJL@RMSG_REPLAY_REAL@ DB 'RMSG_REPLAY_REAL', 00H ; `string'
CONST	ENDS
;	COMDAT ??_C@_00CNPNBAHC@@
CONST	SEGMENT
??_C@_00CNPNBAHC@@ DB 00H				; `string'
CONST	ENDS
PUBLIC	?__empty_global_delete@@YAXPAX@Z		; __empty_global_delete
PUBLIC	?__empty_global_delete@@YAXPAXI@Z		; __empty_global_delete
PUBLIC	___local_stdio_printf_options
PUBLIC	_sprintf
PUBLIC	??1CObject@@UAE@XZ				; CObject::~CObject
PUBLIC	??3CObject@@SGXPAX@Z				; CObject::operator delete
PUBLIC	?Serialize@CObject@@UAEXAAVCArchive@@@Z		; CObject::Serialize
PUBLIC	?AssertValid@CObject@@UBEXXZ			; CObject::AssertValid
PUBLIC	?Dump@CObject@@UBEXAAVCDumpContext@@@Z		; CObject::Dump
PUBLIC	??HATL@@YA?AV?$CStringT@DV?$StrTraitMFC_DLL@DV?$ChTraitsCRT@D@ATL@@@@@0@ABV10@0@Z ; ATL::operator+
PUBLIC	??HATL@@YA?AV?$CStringT@DV?$StrTraitMFC_DLL@DV?$ChTraitsCRT@D@ATL@@@@@0@ABV10@PBD@Z ; ATL::operator+
PUBLIC	??1CGdiObject@@UAE@XZ				; CGdiObject::~CGdiObject
PUBLIC	??_GCGdiObject@@UAEPAXI@Z			; CGdiObject::`scalar deleting destructor'
PUBLIC	??1CFont@@UAE@XZ				; CFont::~CFont
PUBLIC	??_GCFont@@UAEPAXI@Z				; CFont::`scalar deleting destructor'
PUBLIC	??1CMenu@@UAE@XZ				; CMenu::~CMenu
PUBLIC	??_GCMenu@@UAEPAXI@Z				; CMenu::`scalar deleting destructor'
PUBLIC	?GetSafeHwnd@CWnd@@QBEPAUHWND__@@XZ		; CWnd::GetSafeHwnd
PUBLIC	?DoDataExchange@CWnd@@MAEXPAVCDataExchange@@@Z	; CWnd::DoDataExchange
PUBLIC	?BeginModalState@CWnd@@UAEXXZ			; CWnd::BeginModalState
PUBLIC	?EndModalState@CWnd@@UAEXXZ			; CWnd::EndModalState
PUBLIC	??1STSHAREDDATA@@QAE@XZ				; STSHAREDDATA::~STSHAREDDATA
PUBLIC	??1STINPUTCODEDATA2@@QAE@XZ			; STINPUTCODEDATA2::~STINPUTCODEDATA2
PUBLIC	??1stSend2Server@@QAE@XZ			; stSend2Server::~stSend2Server
PUBLIC	??0__STHIGHLIGHTCHARTINFO@@QAE@XZ		; __STHIGHLIGHTCHARTINFO::__STHIGHLIGHTCHARTINFO
PUBLIC	??1__STHIGHLIGHTCHARTINFO@@QAE@XZ		; __STHIGHLIGHTCHARTINFO::~__STHIGHLIGHTCHARTINFO
PUBLIC	?SetChartLineType@CChartItem@@QAEXV?$CStringT@DV?$StrTraitMFC_DLL@DV?$ChTraitsCRT@D@ATL@@@@@ATL@@@Z ; CChartItem::SetChartLineType
PUBLIC	?ApplySyncEnv_OnlyOne@CChartMng@@QAEXXZ		; CChartMng::ApplySyncEnv_OnlyOne
PUBLIC	?UpdateShowingFacked_JustOneChart@CChartMng@@QAEHHH@Z ; CChartMng::UpdateShowingFacked_JustOneChart
PUBLIC	?GetStartEndDateAtChartMng@CChartMng@@QAEXAAN0@Z ; CChartMng::GetStartEndDateAtChartMng
PUBLIC	?SetTimeShareOnlyOne@CChartMng@@QAEXH@Z		; CChartMng::SetTimeShareOnlyOne
PUBLIC	?SetEnableBoundMarkOnlyOne@CChartMng@@QAEXH@Z	; CChartMng::SetEnableBoundMarkOnlyOne
PUBLIC	?SetShowExRightOnlyOne@CChartMng@@QAEXH@Z	; CChartMng::SetShowExRightOnlyOne
PUBLIC	?SetPriceLog@CChartMng@@QAEXH@Z			; CChartMng::SetPriceLog
PUBLIC	?SetAutoSaveToOutside@CChartMng@@QAEX_N@Z	; CChartMng::SetAutoSaveToOutside
PUBLIC	?GetImaginaryCandleToOutside@CChartMng@@QAE_NAA_N@Z ; CChartMng::GetImaginaryCandleToOutside
PUBLIC	?GetShowHighLowBoundToOutside@CChartMng@@QAE_NAA_N@Z ; CChartMng::GetShowHighLowBoundToOutside
PUBLIC	?GetShowExRightDividendToOutside@CChartMng@@QAE_NAA_N@Z ; CChartMng::GetShowExRightDividendToOutside
PUBLIC	?GetTimeLinkageToOutside@CChartMng@@QAE_NAA_N@Z	; CChartMng::GetTimeLinkageToOutside
PUBLIC	?GetAutoSaveToOutside@CChartMng@@QAE_NAA_N@Z	; CChartMng::GetAutoSaveToOutside
PUBLIC	?OnAllCodeUnAdvise@CChartMng@@QAEXXZ		; CChartMng::OnAllCodeUnAdvise
PUBLIC	?GetChartAllCode@CChartMng@@QAEXAAVCStringArray@@@Z ; CChartMng::GetChartAllCode
PUBLIC	?SetParentCompareChartClassPointer@CChartMng@@QAEXJ@Z ; CChartMng::SetParentCompareChartClassPointer
PUBLIC	?GetpChartItemSelected@CChartMng@@QAEPAVCChartItem@@XZ ; CChartMng::GetpChartItemSelected
PUBLIC	?SetMarketType@CChartMng@@QAEXH@Z		; CChartMng::SetMarketType
PUBLIC	?GetIndicatorNameListIntoComboBox@CChartMng@@QAEXAAVCComboBox@@PBD@Z ; CChartMng::GetIndicatorNameListIntoComboBox
PUBLIC	??0CChartMng@@QAE@XZ				; CChartMng::CChartMng
PUBLIC	?SetBaseDesk@CChartMng@@QAEXJ@Z			; CChartMng::SetBaseDesk
PUBLIC	?Create@CChartMng@@QAEHABUtagRECT@@PAVCWnd@@PBD2IJ@Z ; CChartMng::Create
PUBLIC	?GetIndicatorNameListIntoListCtrl@CChartMng@@QAEXAAVCXListCtrl@@PBD@Z ; CChartMng::GetIndicatorNameListIntoListCtrl
PUBLIC	?GetIndicatorNameListIntoTreeCtrl@CChartMng@@QAEXAAVCTreeCtrl@@@Z ; CChartMng::GetIndicatorNameListIntoTreeCtrl
PUBLIC	?GetIndicatorNameListIntoArray@CChartMng@@QAEXPAVCStringArray@@PBD@Z ; CChartMng::GetIndicatorNameListIntoArray
PUBLIC	?GetRectOfChart@CChartMng@@QAE?AVCRect@@HHH@Z	; CChartMng::GetRectOfChart
PUBLIC	?SendInitChartData@CChartMng@@QAEXHH@Z		; CChartMng::SendInitChartData
PUBLIC	?SetRealJPriceData@CChartMng@@QAEXPAX@Z		; CChartMng::SetRealJPriceData
PUBLIC	?SetRealUPriceData@CChartMng@@QAEXPADH@Z	; CChartMng::SetRealUPriceData
PUBLIC	?SetRealFPriceData@CChartMng@@QAEXPADH@Z	; CChartMng::SetRealFPriceData
PUBLIC	?SetRealOPriceData@CChartMng@@QAEXPADH@Z	; CChartMng::SetRealOPriceData
PUBLIC	?SetRealHPriceData@CChartMng@@QAEXPADH@Z	; CChartMng::SetRealHPriceData
PUBLIC	?SelectNextPos@CChartMng@@QAEHXZ		; CChartMng::SelectNextPos
PUBLIC	?SelectEmptyPos@CChartMng@@QAEHXZ		; CChartMng::SelectEmptyPos
PUBLIC	?InsertChart@CChartMng@@QAEHXZ			; CChartMng::InsertChart
PUBLIC	?MoveCharts@CChartMng@@QAEXXZ			; CChartMng::MoveCharts
PUBLIC	?SetChartSelected@CChartMng@@QAEXVCPoint@@HH@Z	; CChartMng::SetChartSelected
PUBLIC	?IsAdvisingCodeOf@CChartMng@@QAEHPBD@Z		; CChartMng::IsAdvisingCodeOf
PUBLIC	?SetMultiCodes@CChartMng@@QAEXV?$CStringT@DV?$StrTraitMFC_DLL@DV?$ChTraitsCRT@D@ATL@@@@@ATL@@@Z ; CChartMng::SetMultiCodes
PUBLIC	?OnChartMngCodeAdvise@CChartMng@@QAEXPAVCChartItem@@H@Z ; CChartMng::OnChartMngCodeAdvise
PUBLIC	?OnChartMngCodeUnAdvise@CChartMng@@QAEXPAVCChartItem@@H@Z ; CChartMng::OnChartMngCodeUnAdvise
PUBLIC	?UnhighlightJCode@CChartMng@@QAEXPAVCChartItem@@@Z ; CChartMng::UnhighlightJCode
PUBLIC	?SetEndData@CChartMng@@QAEXPBD@Z		; CChartMng::SetEndData
PUBLIC	?SetTimeMark@CChartMng@@QAEXPBDH@Z		; CChartMng::SetTimeMark
PUBLIC	?GetJongmokCodes@CChartMng@@AAEXPAVCStringList@@PAV?$CList@U__STHIGHLIGHTCHARTINFO@@U1@@@@Z ; CChartMng::GetJongmokCodes
PUBLIC	?ReplaceChart@CChartMng@@AAEHJJJJ@Z		; CChartMng::ReplaceChart
PUBLIC	?GetIndicatorNameList@CChartMng@@AAE?AV?$CStringT@DV?$StrTraitMFC_DLL@DV?$ChTraitsCRT@D@ATL@@@@@ATL@@PBD@Z ; CChartMng::GetIndicatorNameList
PUBLIC	?SetMatrix@CChartMng@@AAEHJJ@Z			; CChartMng::SetMatrix
PUBLIC	?ResetChart@CChartMng@@AAEJXZ			; CChartMng::ResetChart
PUBLIC	?ResetOCX@CChartMng@@AAEXXZ			; CChartMng::ResetOCX
PUBLIC	?SetType@CChartMng@@AAEHDJ@Z			; CChartMng::SetType
PUBLIC	?SetType_NoRequest@CChartMng@@AAEXDJ@Z		; CChartMng::SetType_NoRequest
PUBLIC	?InputCodeFromInputBar@CChartMng@@AAEHPAVCCodeDataFromInputBar@@H@Z ; CChartMng::InputCodeFromInputBar
PUBLIC	?AddMarketData@CChartMng@@AAEHV?$CStringT@DV?$StrTraitMFC_DLL@DV?$ChTraitsCRT@D@ATL@@@@@ATL@@H@Z ; CChartMng::AddMarketData
PUBLIC	?AddUpjongData@CChartMng@@AAEHV?$CStringT@DV?$StrTraitMFC_DLL@DV?$ChTraitsCRT@D@ATL@@@@@ATL@@@Z ; CChartMng::AddUpjongData
PUBLIC	?ShowScale@CChartMng@@AAEHXZ			; CChartMng::ShowScale
PUBLIC	?ShowInnerToolbar@CChartMng@@AAEHXZ		; CChartMng::ShowInnerToolbar
PUBLIC	?UpdateRevisedValue@CChartMng@@AAEHHH@Z		; CChartMng::UpdateRevisedValue
PUBLIC	?UpdateNumericChartValue@CChartMng@@AAEHHH@Z	; CChartMng::UpdateNumericChartValue
PUBLIC	?UpdateShowingFackedCandle@CChartMng@@AAEHHH@Z	; CChartMng::UpdateShowingFackedCandle
PUBLIC	?UpdateIndex@CChartMng@@AAEHXZ			; CChartMng::UpdateIndex
PUBLIC	?SetJCodesNext@CChartMng@@AAEHXZ		; CChartMng::SetJCodesNext
PUBLIC	?PaintTitle@CChartMng@@AAEXHHPAVCChartItem@@PAVCPaintDC@@@Z ; CChartMng::PaintTitle
PUBLIC	?Rearrange@CChartMng@@AAEHJH@Z			; CChartMng::Rearrange
PUBLIC	?ExtendChart@CChartMng@@AAEXH@Z			; CChartMng::ExtendChart
PUBLIC	?LoadChart@CChartMng@@AAEXPAVCPoint@@@Z		; CChartMng::LoadChart
PUBLIC	?SaveChart@CChartMng@@AAEXPAVCPoint@@@Z		; CChartMng::SaveChart
PUBLIC	?LoadSaveChart@CChartMng@@AAEXPAVCPoint@@@Z	; CChartMng::LoadSaveChart
PUBLIC	?RequestChartData@CChartMng@@QAEHH@Z		; CChartMng::RequestChartData
PUBLIC	?LoadChart@CChartMng@@QAEHV?$CStringT@DV?$StrTraitMFC_DLL@DV?$ChTraitsCRT@D@ATL@@@@@ATL@@@Z ; CChartMng::LoadChart
PUBLIC	?SaveChart@CChartMng@@QAEXV?$CStringT@DV?$StrTraitMFC_DLL@DV?$ChTraitsCRT@D@ATL@@@@@ATL@@@Z ; CChartMng::SaveChart
PUBLIC	?SetAddMode@CChartMng@@QAEXH@Z			; CChartMng::SetAddMode
PUBLIC	?AddRealCodeList@CChartMng@@QAEXPBD@Z		; CChartMng::AddRealCodeList
PUBLIC	?AddRealCodes@CChartMng@@QAEXXZ			; CChartMng::AddRealCodes
PUBLIC	?SetSelChangeChart@CChartMng@@QAEXH@Z		; CChartMng::SetSelChangeChart
PUBLIC	?SetTimeShareAll@CChartMng@@AAEXH@Z		; CChartMng::SetTimeShareAll
PUBLIC	?SetEnableBoundMarkAll@CChartMng@@AAEXH@Z	; CChartMng::SetEnableBoundMarkAll
PUBLIC	?RequestAVGForGuideLine@CChartMng@@AAEXH@Z	; CChartMng::RequestAVGForGuideLine
PUBLIC	?SetSendJongData@CChartMng@@AAEXPBDD0@Z		; CChartMng::SetSendJongData
PUBLIC	?InitInLoop@CChartMng@@AAEXXZ			; CChartMng::InitInLoop
PUBLIC	?HeadInLoop@CChartMng@@AAEHXZ			; CChartMng::HeadInLoop
PUBLIC	?TailInLoop@CChartMng@@AAEHXZ			; CChartMng::TailInLoop
PUBLIC	?PostInLoop@CChartMng@@AAEHXZ			; CChartMng::PostInLoop
PUBLIC	?LoadDWMMChart@CChartMng@@AAEHH@Z		; CChartMng::LoadDWMMChart
PUBLIC	?ResetChartAll@CChartMng@@AAEXXZ		; CChartMng::ResetChartAll
PUBLIC	?GetJongMokNameByCode@CChartMng@@QAE?AV?$CStringT@DV?$StrTraitMFC_DLL@DV?$ChTraitsCRT@D@ATL@@@@@ATL@@PBD0@Z ; CChartMng::GetJongMokNameByCode
PUBLIC	?FindSelectChartByItemCode@CChartMng@@QAEHPBDH@Z ; CChartMng::FindSelectChartByItemCode
PUBLIC	?GetRQCount@CChartMng@@QAEHXZ			; CChartMng::GetRQCount
PUBLIC	?OnCmdMsg@CChartMng@@UAEHIHPAXPAUAFX_CMDHANDLERINFO@@@Z ; CChartMng::OnCmdMsg
PUBLIC	?PreTranslateMessage@CChartMng@@UAEHPAUtagMSG@@@Z ; CChartMng::PreTranslateMessage
PUBLIC	?WindowProc@CChartMng@@MAEJIIJ@Z		; CChartMng::WindowProc
PUBLIC	?SetFocusToJMEdit_At_LoadEnd@CChartMng@@QAEXXZ	; CChartMng::SetFocusToJMEdit_At_LoadEnd
PUBLIC	?GetCurSelChartItemJMName@CChartMng@@QAE?AV?$CStringT@DV?$StrTraitMFC_DLL@DV?$ChTraitsCRT@D@ATL@@@@@ATL@@XZ ; CChartMng::GetCurSelChartItemJMName
PUBLIC	??1CChartMng@@UAE@XZ				; CChartMng::~CChartMng
PUBLIC	?RevisedPriceFlag@CChartMng@@QAEHXZ		; CChartMng::RevisedPriceFlag
PUBLIC	?OnCreate@CChartMng@@IAEHPAUtagCREATESTRUCTA@@@Z ; CChartMng::OnCreate
PUBLIC	?OnDestroy@CChartMng@@IAEXXZ			; CChartMng::OnDestroy
PUBLIC	?OnSize@CChartMng@@IAEXIHH@Z			; CChartMng::OnSize
PUBLIC	?OnPaint@CChartMng@@IAEXXZ			; CChartMng::OnPaint
PUBLIC	?OnLButtonDown@CChartMng@@IAEXIVCPoint@@@Z	; CChartMng::OnLButtonDown
PUBLIC	?OnLButtonDblClk@CChartMng@@IAEXIVCPoint@@@Z	; CChartMng::OnLButtonDblClk
PUBLIC	?OnMouseMove@CChartMng@@IAEXIVCPoint@@@Z	; CChartMng::OnMouseMove
PUBLIC	?OnLButtonUp@CChartMng@@IAEXIVCPoint@@@Z	; CChartMng::OnLButtonUp
PUBLIC	?OnRButtonUp@CChartMng@@IAEXIVCPoint@@@Z	; CChartMng::OnRButtonUp
PUBLIC	?OnTimer@CChartMng@@IAEXI@Z			; CChartMng::OnTimer
PUBLIC	?OnEventMessage@CChartMng@@IAEJIJ@Z		; CChartMng::OnEventMessage
PUBLIC	?OnGetUserID@CChartMng@@IAEJIJ@Z		; CChartMng::OnGetUserID
PUBLIC	?OnRmsgSelChartCode@CChartMng@@IAEJIJ@Z		; CChartMng::OnRmsgSelChartCode
PUBLIC	?GetThisMessageMap@CChartMng@@KGPBUAFX_MSGMAP@@XZ ; CChartMng::GetThisMessageMap
PUBLIC	?GetMessageMap@CChartMng@@MBEPBUAFX_MSGMAP@@XZ	; CChartMng::GetMessageMap
PUBLIC	?fnMenuLoad@CChartMng@@QAEHHH@Z			; CChartMng::fnMenuLoad
PUBLIC	?OnAllCodeScdClear@CChartMng@@QAEXXZ		; CChartMng::OnAllCodeScdClear
PUBLIC	?OnChartMngCodeScdClear@CChartMng@@QAEXPAVCChartItem@@H@Z ; CChartMng::OnChartMngCodeScdClear
PUBLIC	??_GCChartMng@@UAEPAXI@Z			; CChartMng::`scalar deleting destructor'
PUBLIC	?AddTail@?$CList@U__STHIGHLIGHTCHARTINFO@@U1@@@QAEPAU__POSITION@@U__STHIGHLIGHTCHARTINFO@@@Z ; CList<__STHIGHLIGHTCHARTINFO,__STHIGHLIGHTCHARTINFO>::AddTail
PUBLIC	?NewNode@?$CList@U__STHIGHLIGHTCHARTINFO@@U1@@@IAEPAUCNode@1@PAU21@0@Z ; CList<__STHIGHLIGHTCHARTINFO,__STHIGHLIGHTCHARTINFO>::NewNode
PUBLIC	?_OptionsStorage@?1??__local_stdio_printf_options@@9@4_KA ; `__local_stdio_printf_options'::`2'::_OptionsStorage
PUBLIC	??_R0PAVCException@@@8				; CException * `RTTI Type Descriptor'
PUBLIC	??_C@_02DPKJAMEF@?$CFd@				; `string'
PUBLIC	??_7CGdiObject@@6B@				; CGdiObject::`vftable'
PUBLIC	??_7CFont@@6B@					; CFont::`vftable'
PUBLIC	??_7CMenu@@6B@					; CMenu::`vftable'
PUBLIC	??_C@_0HD@JJCHHHNK@C?3?2Program?5Files?5?$CIx86?$CJ?2Microsof@ ; `string'
PUBLIC	??_C@_0BP@OIEOKIDM@Exception?5thrown?5in?5destructor@ ; `string'
PUBLIC	??_C@_0BB@HBOOMJBF@?$CFTs?5?$CI?$CFTs?3?$CFd?$CJ?6?$CFTs@ ; `string'
PUBLIC	??_C@_0N@OMEMOKLE@?$CFTs?5?$CI?$CFTs?3?$CFd?$CJ@ ; `string'
PUBLIC	??_C@_01HIHLOKLC@1@				; `string'
PUBLIC	??_C@_02DKCKIIND@?$CFs@				; `string'
PUBLIC	??_C@_01KICIPPFI@?2@				; `string'
PUBLIC	??_R0?AVCObject@@@8				; CObject `RTTI Type Descriptor'
PUBLIC	??_R3CObject@@8					; CObject::`RTTI Class Hierarchy Descriptor'
PUBLIC	??_R2CObject@@8					; CObject::`RTTI Base Class Array'
PUBLIC	??_R1A@?0A@EA@CObject@@8			; CObject::`RTTI Base Class Descriptor at (0,-1,0,64)'
PUBLIC	??_R4CGdiObject@@6B@				; CGdiObject::`RTTI Complete Object Locator'
PUBLIC	??_R0?AVCGdiObject@@@8				; CGdiObject `RTTI Type Descriptor'
PUBLIC	??_R3CGdiObject@@8				; CGdiObject::`RTTI Class Hierarchy Descriptor'
PUBLIC	??_R2CGdiObject@@8				; CGdiObject::`RTTI Base Class Array'
PUBLIC	??_R1A@?0A@EA@CGdiObject@@8			; CGdiObject::`RTTI Base Class Descriptor at (0,-1,0,64)'
PUBLIC	??_R4CFont@@6B@					; CFont::`RTTI Complete Object Locator'
PUBLIC	??_R0?AVCFont@@@8				; CFont `RTTI Type Descriptor'
PUBLIC	??_R3CFont@@8					; CFont::`RTTI Class Hierarchy Descriptor'
PUBLIC	??_R2CFont@@8					; CFont::`RTTI Base Class Array'
PUBLIC	??_R1A@?0A@EA@CFont@@8				; CFont::`RTTI Base Class Descriptor at (0,-1,0,64)'
PUBLIC	??_R4CMenu@@6B@					; CMenu::`RTTI Complete Object Locator'
PUBLIC	??_R0?AVCMenu@@@8				; CMenu `RTTI Type Descriptor'
PUBLIC	??_R3CMenu@@8					; CMenu::`RTTI Class Hierarchy Descriptor'
PUBLIC	??_R2CMenu@@8					; CMenu::`RTTI Base Class Array'
PUBLIC	??_R1A@?0A@EA@CMenu@@8				; CMenu::`RTTI Base Class Descriptor at (0,-1,0,64)'
PUBLIC	??_R1A@?0A@EA@CWnd@@8				; CWnd::`RTTI Base Class Descriptor at (0,-1,0,64)'
PUBLIC	??_R0?AVCWnd@@@8				; CWnd `RTTI Type Descriptor'
PUBLIC	??_R3CWnd@@8					; CWnd::`RTTI Class Hierarchy Descriptor'
PUBLIC	??_R2CWnd@@8					; CWnd::`RTTI Base Class Array'
PUBLIC	??_R1A@?0A@EA@CCmdTarget@@8			; CCmdTarget::`RTTI Base Class Descriptor at (0,-1,0,64)'
PUBLIC	??_R0?AVCCmdTarget@@@8				; CCmdTarget `RTTI Type Descriptor'
PUBLIC	??_R3CCmdTarget@@8				; CCmdTarget::`RTTI Class Hierarchy Descriptor'
PUBLIC	??_R2CCmdTarget@@8				; CCmdTarget::`RTTI Base Class Array'
PUBLIC	?m_strStatic_ShareCode@CChartMng@@2V?$CStringT@DV?$StrTraitMFC_DLL@DV?$ChTraitsCRT@D@ATL@@@@@ATL@@A ; CChartMng::m_strStatic_ShareCode
PUBLIC	?m_strCodeForMulti@CChartMng@@2V?$CStringT@DV?$StrTraitMFC_DLL@DV?$ChTraitsCRT@D@ATL@@@@@ATL@@A ; CChartMng::m_strCodeForMulti
PUBLIC	??_7CChartMng@@6B@				; CChartMng::`vftable'
PUBLIC	?RMSG_CHARTMSG_EVENTMESSAGE@@3IB		; RMSG_CHARTMSG_EVENTMESSAGE
PUBLIC	??_C@_09LJAMJCMI@Chart?5Mng@			; `string'
PUBLIC	??_C@_06MFMMLLPC@?$LB?$LM?$LI?$LC?C?$LM@	; `string'
PUBLIC	??_C@_09NAHCEPAB@?$LN?C?$LA?$KD?9?B?w?F?$KO@	; `string'
PUBLIC	??_C@_05ELNNMDND@d1010@				; `string'
PUBLIC	??_C@_0BG@FHIGLELG@ChartPatternAddin?4dll@	; `string'
PUBLIC	??_C@_0BG@CHJJKIAP@ChartSTIndexAddIn?4dll@	; `string'
PUBLIC	??_C@_07PABJKJDM@?$CFd?5?$HM?5?$CFd@		; `string'
PUBLIC	??_C@_06DJNEHHKG@?2Chart@			; `string'
PUBLIC	??_C@_04HDOCAJNK@?$CFs?$CFs@			; `string'
PUBLIC	??_C@_0CC@IBCJEKKE@MoveCharts?5l?3?$CFd?0?5t?3?$CFd?0?5r?3?$CFd?0?5b?3@ ; `string'
PUBLIC	??_C@_0BJ@BMKLDEGD@m_pExtInputBarDlg?5ERROR?$CB@ ; `string'
PUBLIC	??_C@_08DIGNHAJI@temp?4tmp@			; `string'
PUBLIC	??_C@_05FCMGPCJC@d1011@				; `string'
PUBLIC	??_C@_05HJOLKBFB@d1012@				; `string'
PUBLIC	??_C@_05GAPAJABA@d1013@				; `string'
PUBLIC	??_C@_05CPLBAGNH@d1014@				; `string'
PUBLIC	??_C@_04OHGLKFFN@?$CF03d@			; `string'
PUBLIC	??_C@_04CDNGIBLJ@?$LF?$LF?$LB?$LI@		; `string'
PUBLIC	??_C@_0BD@IFEDCLAE@?2Icss?2indicond?4cfg@	; `string'
PUBLIC	??_C@_09HBHOJCFG@groupName@			; `string'
PUBLIC	??_C@_0CI@JLIFHDAP@?$LP?x?5?$LE?$NM?$MA?$KH?5?$MA?O?$LG?$KH?$LI?$LI?5?$LB?b?A?X?$LM?$LB?$MA?L?5?$MA?$PL?$LP?k?5?$LA?$KB@ ; `string'
PUBLIC	??_C@_0CD@BIGOCDHM@ChartGuideLineAddin?4dll?3GUIDE_L@ ; `string'
PUBLIC	??_C@_0CL@PMIIFHP@ChartPeriodSummaryAddIn?4dll?3PER@ ; `string'
PUBLIC	??_C@_0BN@MMDLHLNL@SEND2SERVERFROMINVOKE?5Error?$CB@ ; `string'
PUBLIC	??_C@_09JGJIODML@?$LN?C?$LA?$KD_?B?w?F?$KO@	; `string'
PUBLIC	??_C@_05OEELCGHA@?$CF1?41s@			; `string'
PUBLIC	??_C@_0DH@NGCGJAHM@?$LO?w?A?$LO?A?v?$LM?v?A?v?G?$KF?$LE?B?5?$FL?A?V?$FN?1?$FL?$MA?O?$FN?1?$FL?$LP?y?$FN?$LA?$KD@ ; `string'
PUBLIC	??_C@_0BA@BJHBMKPL@?2ChartIndex?4dat@		; `string'
PUBLIC	??_C@_0L@JDFBPHIC@CHART?5LIST@			; `string'
PUBLIC	??_C@_05EFFCCOAM@COUNT@				; `string'
PUBLIC	??_C@_04OGKJMPGK@?$CF02d@			; `string'
PUBLIC	??_C@_04IPKCHPNC@?4mct@				; `string'
PUBLIC	??_C@_0BM@LGAOAOAJ@?$MA?z?$MA?e?G?Q?5?B?w?F?$KO?H?$KN?$MA?O?$MA?L?5?$LO?x?$LN?$MA?$LE?O?$LE?Y?4@ ; `string'
PUBLIC	??_C@_04NOPBICD@COLS@				; `string'
PUBLIC	??_C@_09NPLIGCCG@FrameInfo@			; `string'
PUBLIC	??_C@_04EABMOKIA@ROWS@				; `string'
PUBLIC	??_C@_07CLAOOEJF@Revised@			; `string'
PUBLIC	??_C@_08HAHCMMAH@InputBar@			; `string'
PUBLIC	??_C@_03GGEOLGBL@Log@				; `string'
PUBLIC	??_C@_0N@CKHLOMJE@?$LF?n?$LH?O?5?$LJ?W?5?$LL?h?A?$KG@ ; `string'
PUBLIC	??_C@_0O@GEPOFNDE@?$MA?z?$MA?e?A?$LO?$LI?q?5?H?$KD?C?b@ ; `string'
PUBLIC	??_C@_0L@HHOPFOHG@?D?Z?$LF?e?9?D?Z?D?Z2@	; `string'
PUBLIC	??_C@_02IDFIDEI@_?$CK@				; `string'
PUBLIC	??_C@_01NBENCBCI@?$CK@				; `string'
PUBLIC	??_R4CChartMng@@6B@				; CChartMng::`RTTI Complete Object Locator'
PUBLIC	??_R0?AVCChartMng@@@8				; CChartMng `RTTI Type Descriptor'
PUBLIC	??_R3CChartMng@@8				; CChartMng::`RTTI Class Hierarchy Descriptor'
PUBLIC	??_R2CChartMng@@8				; CChartMng::`RTTI Base Class Array'
PUBLIC	??_R1A@?0A@EA@CChartMng@@8			; CChartMng::`RTTI Base Class Descriptor at (0,-1,0,64)'
PUBLIC	__xmm@41f00000000000000000000000000000
EXTRN	??2@YAPAXI@Z:PROC				; operator new
EXTRN	??3@YAXPAX@Z:PROC				; operator delete
EXTRN	?__global_delete@@YAXPAXI@Z:PROC		; __global_delete
EXTRN	_atexit:PROC
EXTRN	__Init_thread_header:PROC
EXTRN	__Init_thread_footer:PROC
EXTRN	___std_terminate:PROC
EXTRN	__imp__DeleteFileA@4:PROC
EXTRN	__imp__OutputDebugStringA@4:PROC
EXTRN	__imp__lstrcpyA@8:PROC
EXTRN	__imp__lstrlenA@4:PROC
EXTRN	__imp__GetPrivateProfileIntA@16:PROC
EXTRN	__imp__GetPrivateProfileStringA@24:PROC
EXTRN	__imp__WritePrivateProfileStringA@16:PROC
EXTRN	__imp__CreateFontIndirectA@4:PROC
EXTRN	__imp__RegisterWindowMessageA@4:PROC
EXTRN	__imp__SendMessageA@16:PROC
EXTRN	__imp__PostMessageA@16:PROC
EXTRN	__imp__IsWindow@4:PROC
EXTRN	__imp__GetAsyncKeyState@4:PROC
EXTRN	__imp__SetCapture@4:PROC
EXTRN	__imp__ReleaseCapture@0:PROC
EXTRN	__imp__SetTimer@16:PROC
EXTRN	__imp__KillTimer@8:PROC
EXTRN	__imp__EnableWindow@8:PROC
EXTRN	__imp__CreatePopupMenu@0:PROC
EXTRN	__imp__AppendMenuA@16:PROC
EXTRN	__imp__SetMenuDefaultItem@12:PROC
EXTRN	__imp__InvalidateRect@12:PROC
EXTRN	__imp__GetClientRect@8:PROC
EXTRN	__imp__GetCursorPos@4:PROC
EXTRN	__imp__ClientToScreen@8:PROC
EXTRN	__imp__ScreenToClient@8:PROC
EXTRN	__imp__IsRectEmpty@4:PROC
EXTRN	__imp__PtInRect@12:PROC
EXTRN	__imp__GetParent@4:PROC
EXTRN	__imp____stdio_common_vsprintf:PROC
EXTRN	__imp__atof:PROC
EXTRN	__imp__atoi:PROC
EXTRN	__imp__atol:PROC
EXTRN	?AfxThrowInvalidArgException@@YGXXZ:PROC	; AfxThrowInvalidArgException
EXTRN	__imp_?Empty@?$CSimpleStringT@D$00@ATL@@QAEXXZ:PROC
EXTRN	__imp_?GetBuffer@?$CSimpleStringT@D$00@ATL@@QAEPADH@Z:PROC
EXTRN	__imp_?ReleaseBuffer@?$CSimpleStringT@D$00@ATL@@QAEXH@Z:PROC
EXTRN	__imp_?Concatenate@?$CSimpleStringT@D$00@ATL@@KAXAAV12@PBDH1H@Z:PROC
EXTRN	__imp_??0?$CStringT@DV?$StrTraitMFC_DLL@DV?$ChTraitsCRT@D@ATL@@@@@ATL@@QAE@XZ:PROC
EXTRN	__imp_??0?$CStringT@DV?$StrTraitMFC_DLL@DV?$ChTraitsCRT@D@ATL@@@@@ATL@@QAE@PAUIAtlStringMgr@1@@Z:PROC
EXTRN	__imp_??0?$CStringT@DV?$StrTraitMFC_DLL@DV?$ChTraitsCRT@D@ATL@@@@@ATL@@QAE@ABV01@@Z:PROC
EXTRN	__imp_??0?$CStringT@DV?$StrTraitMFC_DLL@DV?$ChTraitsCRT@D@ATL@@@@@ATL@@QAE@PBD@Z:PROC
EXTRN	__imp_??1?$CStringT@DV?$StrTraitMFC_DLL@DV?$ChTraitsCRT@D@ATL@@@@@ATL@@QAE@XZ:PROC
EXTRN	__imp_??4?$CStringT@DV?$StrTraitMFC_DLL@DV?$ChTraitsCRT@D@ATL@@@@@ATL@@QAEAAV01@ABV01@@Z:PROC
EXTRN	__imp_??4?$CStringT@DV?$StrTraitMFC_DLL@DV?$ChTraitsCRT@D@ATL@@@@@ATL@@QAEAAV01@PBD@Z:PROC
EXTRN	__imp_?GetManager@?$CStringT@DV?$StrTraitMFC_DLL@DV?$ChTraitsCRT@D@ATL@@@@@ATL@@QBEPAUIAtlStringMgr@2@XZ:PROC
EXTRN	__imp_?Compare@?$CStringT@DV?$StrTraitMFC_DLL@DV?$ChTraitsCRT@D@ATL@@@@@ATL@@QBEHPBD@Z:PROC
EXTRN	__imp_?Delete@?$CStringT@DV?$StrTraitMFC_DLL@DV?$ChTraitsCRT@D@ATL@@@@@ATL@@QAEHHH@Z:PROC
EXTRN	__imp_?Remove@?$CStringT@DV?$StrTraitMFC_DLL@DV?$ChTraitsCRT@D@ATL@@@@@ATL@@QAEHD@Z:PROC
EXTRN	__imp_?Find@?$CStringT@DV?$StrTraitMFC_DLL@DV?$ChTraitsCRT@D@ATL@@@@@ATL@@QBEHDH@Z:PROC
EXTRN	__imp_?TrimRight@?$CStringT@DV?$StrTraitMFC_DLL@DV?$ChTraitsCRT@D@ATL@@@@@ATL@@QAEAAV12@XZ:PROC
EXTRN	__imp_?TrimLeft@?$CStringT@DV?$StrTraitMFC_DLL@DV?$ChTraitsCRT@D@ATL@@@@@ATL@@QAEAAV12@XZ:PROC
EXTRN	__imp_?TrimRight@?$CStringT@DV?$StrTraitMFC_DLL@DV?$ChTraitsCRT@D@ATL@@@@@ATL@@QAEAAV12@D@Z:PROC
EXTRN	__imp_?Mid@?$CStringT@DV?$StrTraitMFC_DLL@DV?$ChTraitsCRT@D@ATL@@@@@ATL@@QBE?AV12@HH@Z:PROC
EXTRN	__imp_?Right@?$CStringT@DV?$StrTraitMFC_DLL@DV?$ChTraitsCRT@D@ATL@@@@@ATL@@QBE?AV12@H@Z:PROC
EXTRN	__imp_?Left@?$CStringT@DV?$StrTraitMFC_DLL@DV?$ChTraitsCRT@D@ATL@@@@@ATL@@QBE?AV12@H@Z:PROC
EXTRN	__imp_?Format@?$CStringT@DV?$StrTraitMFC_DLL@DV?$ChTraitsCRT@D@ATL@@@@@ATL@@QAAXPBDZZ:PROC
EXTRN	??0CFileFind@@QAE@XZ:PROC			; CFileFind::CFileFind
EXTRN	??1CFileFind@@UAE@XZ:PROC			; CFileFind::~CFileFind
EXTRN	?GetFilePath@CFileFind@@UBE?AV?$CStringT@DV?$StrTraitMFC_DLL@DV?$ChTraitsCRT@D@ATL@@@@@ATL@@XZ:PROC ; CFileFind::GetFilePath
EXTRN	?FindFile@CFileFind@@UAEHPBDK@Z:PROC		; CFileFind::FindFile
EXTRN	?FindNextFileA@CFileFind@@UAEHXZ:PROC		; CFileFind::FindNextFileA
EXTRN	??0CStringArray@@QAE@XZ:PROC			; CStringArray::CStringArray
EXTRN	?SetSize@CStringArray@@QAEXHH@Z:PROC		; CStringArray::SetSize
EXTRN	?SetAtGrow@CStringArray@@QAEXHABV?$CStringT@DV?$StrTraitMFC_DLL@DV?$ChTraitsCRT@D@ATL@@@@@ATL@@@Z:PROC ; CStringArray::SetAtGrow
EXTRN	??1CStringArray@@UAE@XZ:PROC			; CStringArray::~CStringArray
EXTRN	??0CStringList@@QAE@H@Z:PROC			; CStringList::CStringList
EXTRN	?AddTail@CStringList@@QAEPAU__POSITION@@ABV?$CStringT@DV?$StrTraitMFC_DLL@DV?$ChTraitsCRT@D@ATL@@@@@ATL@@@Z:PROC ; CStringList::AddTail
EXTRN	?Find@CStringList@@QBEPAU__POSITION@@PBDPAU2@@Z:PROC ; CStringList::Find
EXTRN	??1CStringList@@UAE@XZ:PROC			; CStringList::~CStringList
EXTRN	?Create@CPlex@@SGPAU1@AAPAU1@II@Z:PROC		; CPlex::Create
EXTRN	?GetRuntimeClass@CGdiObject@@UBEPAUCRuntimeClass@@XZ:PROC ; CGdiObject::GetRuntimeClass
EXTRN	?Attach@CGdiObject@@QAEHPAX@Z:PROC		; CGdiObject::Attach
EXTRN	?DeleteObject@CGdiObject@@QAEHXZ:PROC		; CGdiObject::DeleteObject
EXTRN	??_ECGdiObject@@UAEPAXI@Z:PROC			; CGdiObject::`vector deleting destructor'
EXTRN	?GetRuntimeClass@CFont@@UBEPAUCRuntimeClass@@XZ:PROC ; CFont::GetRuntimeClass
EXTRN	??_ECFont@@UAEPAXI@Z:PROC			; CFont::`vector deleting destructor'
EXTRN	?FillSolidRect@CDC@@QAEXPBUtagRECT@@K@Z:PROC	; CDC::FillSolidRect
EXTRN	??0CPaintDC@@QAE@PAVCWnd@@@Z:PROC		; CPaintDC::CPaintDC
EXTRN	??1CPaintDC@@UAE@XZ:PROC			; CPaintDC::~CPaintDC
EXTRN	?GetRuntimeClass@CMenu@@UBEPAUCRuntimeClass@@XZ:PROC ; CMenu::GetRuntimeClass
EXTRN	?DestroyMenu@CMenu@@QAEHXZ:PROC			; CMenu::DestroyMenu
EXTRN	?Attach@CMenu@@QAEHPAUHMENU__@@@Z:PROC		; CMenu::Attach
EXTRN	?TrackPopupMenu@CMenu@@QAEHIHHPAVCWnd@@PBUtagRECT@@@Z:PROC ; CMenu::TrackPopupMenu
EXTRN	?DrawItem@CMenu@@UAEXPAUtagDRAWITEMSTRUCT@@@Z:PROC ; CMenu::DrawItem
EXTRN	?MeasureItem@CMenu@@UAEXPAUtagMEASUREITEMSTRUCT@@@Z:PROC ; CMenu::MeasureItem
EXTRN	??_ECMenu@@UAEPAXI@Z:PROC			; CMenu::`vector deleting destructor'
EXTRN	?OnCmdMsg@CCmdTarget@@UAEHIHPAXPAUAFX_CMDHANDLERINFO@@@Z:PROC ; CCmdTarget::OnCmdMsg
EXTRN	?IsInvokeAllowed@CCmdTarget@@UAEHJ@Z:PROC	; CCmdTarget::IsInvokeAllowed
EXTRN	?GetDispatchIID@CCmdTarget@@UAEHPAU_GUID@@@Z:PROC ; CCmdTarget::GetDispatchIID
EXTRN	?GetTypeInfoCount@CCmdTarget@@UAEIXZ:PROC	; CCmdTarget::GetTypeInfoCount
EXTRN	?GetTypeLibCache@CCmdTarget@@UAEPAVCTypeLibCache@@XZ:PROC ; CCmdTarget::GetTypeLibCache
EXTRN	?GetTypeLib@CCmdTarget@@UAEJKPAPAUITypeLib@@@Z:PROC ; CCmdTarget::GetTypeLib
EXTRN	?GetCommandMap@CCmdTarget@@MBEPBUAFX_OLECMDMAP@@XZ:PROC ; CCmdTarget::GetCommandMap
EXTRN	?GetDispatchMap@CCmdTarget@@MBEPBUAFX_DISPMAP@@XZ:PROC ; CCmdTarget::GetDispatchMap
EXTRN	?GetConnectionMap@CCmdTarget@@MBEPBUAFX_CONNECTIONMAP@@XZ:PROC ; CCmdTarget::GetConnectionMap
EXTRN	?GetEventSinkMap@CCmdTarget@@MBEPBUAFX_EVENTSINKMAP@@XZ:PROC ; CCmdTarget::GetEventSinkMap
EXTRN	?OnCreateAggregates@CCmdTarget@@UAEHXZ:PROC	; CCmdTarget::OnCreateAggregates
EXTRN	?GetInterfaceHook@CCmdTarget@@UAEPAUIUnknown@@PBX@Z:PROC ; CCmdTarget::GetInterfaceHook
EXTRN	?GetExtraConnectionPoints@CCmdTarget@@MAEHPAVCPtrArray@@@Z:PROC ; CCmdTarget::GetExtraConnectionPoints
EXTRN	?GetConnectionHook@CCmdTarget@@MAEPAUIConnectionPoint@@ABU_GUID@@@Z:PROC ; CCmdTarget::GetConnectionHook
EXTRN	?GetRuntimeClass@CWnd@@UBEPAUCRuntimeClass@@XZ:PROC ; CWnd::GetRuntimeClass
EXTRN	??0CWnd@@QAE@XZ:PROC				; CWnd::CWnd
EXTRN	?FromHandle@CWnd@@SGPAV1@PAUHWND__@@@Z:PROC	; CWnd::FromHandle
EXTRN	?PreSubclassWindow@CWnd@@UAEXXZ:PROC		; CWnd::PreSubclassWindow
EXTRN	?Create@CWnd@@UAEHPBD0KABUtagRECT@@PAV1@IPAUCCreateContext@@@Z:PROC ; CWnd::Create
EXTRN	?CreateEx@CWnd@@UAEHKPBD0KHHHHPAUHWND__@@PAUHMENU__@@PAX@Z:PROC ; CWnd::CreateEx
EXTRN	?CreateEx@CWnd@@UAEHKPBD0KABUtagRECT@@PAV1@IPAX@Z:PROC ; CWnd::CreateEx
EXTRN	?DestroyWindow@CWnd@@UAEHXZ:PROC		; CWnd::DestroyWindow
EXTRN	?PreCreateWindow@CWnd@@UAEHAAUtagCREATESTRUCTA@@@Z:PROC ; CWnd::PreCreateWindow
EXTRN	?CalcWindowRect@CWnd@@UAEXPAUtagRECT@@I@Z:PROC	; CWnd::CalcWindowRect
EXTRN	?GetDlgItem@CWnd@@QBEPAV1@H@Z:PROC		; CWnd::GetDlgItem
EXTRN	?GetMenu@CWnd@@UBEPAVCMenu@@XZ:PROC		; CWnd::GetMenu
EXTRN	?SetMenu@CWnd@@UAEHPAVCMenu@@@Z:PROC		; CWnd::SetMenu
EXTRN	?MoveWindow@CWnd@@QAEXHHHHH@Z:PROC		; CWnd::MoveWindow
EXTRN	?OnToolHitTest@CWnd@@UBEHVCPoint@@PAUtagTOOLINFOA@@@Z:PROC ; CWnd::OnToolHitTest
EXTRN	?SetFocus@CWnd@@QAEPAV1@XZ:PROC			; CWnd::SetFocus
EXTRN	?GetScrollBarCtrl@CWnd@@UBEPAVCScrollBar@@H@Z:PROC ; CWnd::GetScrollBarCtrl
EXTRN	?MessageBoxA@CWnd@@QAEHPBD0I@Z:PROC		; CWnd::MessageBoxA
EXTRN	?WinHelpA@CWnd@@UAEXKI@Z:PROC			; CWnd::WinHelpA
EXTRN	?HtmlHelpA@CWnd@@UAEXKI@Z:PROC			; CWnd::HtmlHelpA
EXTRN	?WinHelpInternal@CWnd@@UAEXKI@Z:PROC		; CWnd::WinHelpInternal
EXTRN	?ContinueModal@CWnd@@UAEHXZ:PROC		; CWnd::ContinueModal
EXTRN	?EndModalLoop@CWnd@@UAEXH@Z:PROC		; CWnd::EndModalLoop
EXTRN	?OnDrawIconicThumbnailOrLivePreview@CWnd@@UAEXAAVCDC@@VCRect@@VCSize@@HAAH@Z:PROC ; CWnd::OnDrawIconicThumbnailOrLivePreview
EXTRN	?GetInterfaceMap@CWnd@@MBEPBUAFX_INTERFACEMAP@@XZ:PROC ; CWnd::GetInterfaceMap
EXTRN	?EnsureStdObj@CWnd@@UAEJXZ:PROC			; CWnd::EnsureStdObj
EXTRN	?get_accParent@CWnd@@UAEJPAPAUIDispatch@@@Z:PROC ; CWnd::get_accParent
EXTRN	?get_accChildCount@CWnd@@UAEJPAJ@Z:PROC		; CWnd::get_accChildCount
EXTRN	?get_accChild@CWnd@@UAEJUtagVARIANT@@PAPAUIDispatch@@@Z:PROC ; CWnd::get_accChild
EXTRN	?get_accName@CWnd@@UAEJUtagVARIANT@@PAPA_W@Z:PROC ; CWnd::get_accName
EXTRN	?get_accValue@CWnd@@UAEJUtagVARIANT@@PAPA_W@Z:PROC ; CWnd::get_accValue
EXTRN	?get_accDescription@CWnd@@UAEJUtagVARIANT@@PAPA_W@Z:PROC ; CWnd::get_accDescription
EXTRN	?get_accRole@CWnd@@UAEJUtagVARIANT@@PAU2@@Z:PROC ; CWnd::get_accRole
EXTRN	?get_accState@CWnd@@UAEJUtagVARIANT@@PAU2@@Z:PROC ; CWnd::get_accState
EXTRN	?get_accHelp@CWnd@@UAEJUtagVARIANT@@PAPA_W@Z:PROC ; CWnd::get_accHelp
EXTRN	?get_accHelpTopic@CWnd@@UAEJPAPA_WUtagVARIANT@@PAJ@Z:PROC ; CWnd::get_accHelpTopic
EXTRN	?get_accKeyboardShortcut@CWnd@@UAEJUtagVARIANT@@PAPA_W@Z:PROC ; CWnd::get_accKeyboardShortcut
EXTRN	?get_accFocus@CWnd@@UAEJPAUtagVARIANT@@@Z:PROC	; CWnd::get_accFocus
EXTRN	?get_accSelection@CWnd@@UAEJPAUtagVARIANT@@@Z:PROC ; CWnd::get_accSelection
EXTRN	?get_accDefaultAction@CWnd@@UAEJUtagVARIANT@@PAPA_W@Z:PROC ; CWnd::get_accDefaultAction
EXTRN	?accSelect@CWnd@@UAEJJUtagVARIANT@@@Z:PROC	; CWnd::accSelect
EXTRN	?accLocation@CWnd@@UAEJPAJ000UtagVARIANT@@@Z:PROC ; CWnd::accLocation
EXTRN	?accNavigate@CWnd@@UAEJJUtagVARIANT@@PAU2@@Z:PROC ; CWnd::accNavigate
EXTRN	?accHitTest@CWnd@@UAEJJJPAUtagVARIANT@@@Z:PROC	; CWnd::accHitTest
EXTRN	?accDoDefaultAction@CWnd@@UAEJUtagVARIANT@@@Z:PROC ; CWnd::accDoDefaultAction
EXTRN	?put_accName@CWnd@@UAEJUtagVARIANT@@PA_W@Z:PROC	; CWnd::put_accName
EXTRN	?put_accValue@CWnd@@UAEJUtagVARIANT@@PA_W@Z:PROC ; CWnd::put_accValue
EXTRN	?SetProxy@CWnd@@UAEJPAUIAccessibleProxy@@@Z:PROC ; CWnd::SetProxy
EXTRN	?CreateAccessibleProxy@CWnd@@UAEJIJPAJ@Z:PROC	; CWnd::CreateAccessibleProxy
EXTRN	?OnCommand@CWnd@@MAEHIJ@Z:PROC			; CWnd::OnCommand
EXTRN	?OnNotify@CWnd@@MAEHIJPAJ@Z:PROC		; CWnd::OnNotify
EXTRN	?OnDestroy@CWnd@@IAEXXZ:PROC			; CWnd::OnDestroy
EXTRN	?GetSuperWndProcAddr@CWnd@@MAEPAP6GJPAUHWND__@@IIJ@ZXZ:PROC ; CWnd::GetSuperWndProcAddr
EXTRN	?PreTranslateMessage@CWnd@@UAEHPAUtagMSG@@@Z:PROC ; CWnd::PreTranslateMessage
EXTRN	?OnAmbientProperty@CWnd@@UAEHPAVCOleControlSite@@JPAUtagVARIANT@@@Z:PROC ; CWnd::OnAmbientProperty
EXTRN	?WindowProc@CWnd@@MAEJIIJ@Z:PROC		; CWnd::WindowProc
EXTRN	?OnWndMsg@CWnd@@MAEHIIJPAJ@Z:PROC		; CWnd::OnWndMsg
EXTRN	?Default@CWnd@@IAEJXZ:PROC			; CWnd::Default
EXTRN	?DefWindowProcA@CWnd@@MAEJIIJ@Z:PROC		; CWnd::DefWindowProcA
EXTRN	?PostNcDestroy@CWnd@@MAEXXZ:PROC		; CWnd::PostNcDestroy
EXTRN	?OnChildNotify@CWnd@@MAEHIIJPAJ@Z:PROC		; CWnd::OnChildNotify
EXTRN	?OnTouchInputs@CWnd@@MAEHIPAUtagTOUCHINPUT@@@Z:PROC ; CWnd::OnTouchInputs
EXTRN	?OnTouchInput@CWnd@@MAEHVCPoint@@HHPAUtagTOUCHINPUT@@@Z:PROC ; CWnd::OnTouchInput
EXTRN	?GetGestureStatus@CWnd@@MAEKVCPoint@@@Z:PROC	; CWnd::GetGestureStatus
EXTRN	?OnGestureZoom@CWnd@@MAEHVCPoint@@J@Z:PROC	; CWnd::OnGestureZoom
EXTRN	?OnGesturePan@CWnd@@MAEHVCPoint@@0@Z:PROC	; CWnd::OnGesturePan
EXTRN	?OnGestureRotate@CWnd@@MAEHVCPoint@@N@Z:PROC	; CWnd::OnGestureRotate
EXTRN	?OnGestureTwoFingerTap@CWnd@@MAEHVCPoint@@@Z:PROC ; CWnd::OnGestureTwoFingerTap
EXTRN	?OnGesturePressAndTap@CWnd@@MAEHVCPoint@@J@Z:PROC ; CWnd::OnGesturePressAndTap
EXTRN	?ResizeDynamicLayout@CWnd@@MAEXXZ:PROC		; CWnd::ResizeDynamicLayout
EXTRN	??1CWnd@@UAE@XZ:PROC				; CWnd::~CWnd
EXTRN	?CheckAutoCenter@CWnd@@UAEHXZ:PROC		; CWnd::CheckAutoCenter
EXTRN	?IsFrameWnd@CWnd@@UBEHXZ:PROC			; CWnd::IsFrameWnd
EXTRN	?OnFinalRelease@CWnd@@UAEXXZ:PROC		; CWnd::OnFinalRelease
EXTRN	?CreateControlContainer@CWnd@@MAEHPAPAVCOleControlContainer@@@Z:PROC ; CWnd::CreateControlContainer
EXTRN	?CreateControlSite@CWnd@@MAEHPAVCOleControlContainer@@PAPAVCOleControlSite@@IABU_GUID@@@Z:PROC ; CWnd::CreateControlSite
EXTRN	?SetOccDialogInfo@CWnd@@MAEHPAU_AFX_OCC_DIALOG_INFO@@@Z:PROC ; CWnd::SetOccDialogInfo
EXTRN	?GetOccDialogInfo@CWnd@@MAEPAU_AFX_OCC_DIALOG_INFO@@XZ:PROC ; CWnd::GetOccDialogInfo
EXTRN	?GetThisMessageMap@CWnd@@KGPBUAFX_MSGMAP@@XZ:PROC ; CWnd::GetThisMessageMap
EXTRN	?AfxMessageBox@@YGHPBDII@Z:PROC			; AfxMessageBox
EXTRN	??0CCodeDataFromInputBar@@QAE@XZ:PROC		; CCodeDataFromInputBar::CCodeDataFromInputBar
EXTRN	??1CCodeDataFromInputBar@@UAE@XZ:PROC		; CCodeDataFromInputBar::~CCodeDataFromInputBar
EXTRN	?GetBNormalizedMinuteTimeRule@CDRChartOcx@@QAEHXZ:PROC ; CDRChartOcx::GetBNormalizedMinuteTimeRule
EXTRN	?GetBWholeView@CDRChartOcx@@QAEHXZ:PROC		; CDRChartOcx::GetBWholeView
EXTRN	?GetNOnePageDataCount@CDRChartOcx@@QAEJXZ:PROC	; CDRChartOcx::GetNOnePageDataCount
EXTRN	?SetBSelectTitle@CDRChartOcx@@QAEXH@Z:PROC	; CDRChartOcx::SetBSelectTitle
EXTRN	?GetNUseInquiryWithCrossline@CDRChartOcx@@QAEFXZ:PROC ; CDRChartOcx::GetNUseInquiryWithCrossline
EXTRN	?SetNUseInquiryWithCrossline@CDRChartOcx@@QAEXF@Z:PROC ; CDRChartOcx::SetNUseInquiryWithCrossline
EXTRN	?GetOnRunningOneChart@CDRChartOcx@@QAEHXZ:PROC	; CDRChartOcx::GetOnRunningOneChart
EXTRN	?SetBEnableIndicatorCalculation@CDRChartOcx@@QAEXH@Z:PROC ; CDRChartOcx::SetBEnableIndicatorCalculation
EXTRN	?RemoveChart@CDRChartOcx@@QAEHPBD@Z:PROC	; CDRChartOcx::RemoveChart
EXTRN	?GetIndicatorNameList@CDRChartOcx@@QAE?AV?$CStringT@DV?$StrTraitMFC_DLL@DV?$ChTraitsCRT@D@ATL@@@@@ATL@@PBD@Z:PROC ; CDRChartOcx::GetIndicatorNameList
EXTRN	?ShowInnerToolBar@CDRChartOcx@@QAEXH@Z:PROC	; CDRChartOcx::ShowInnerToolBar
EXTRN	?GetStartEndDateOnView@CDRChartOcx@@QAEHPAN0@Z:PROC ; CDRChartOcx::GetStartEndDateOnView
EXTRN	?SetStartEndDateOfView@CDRChartOcx@@QAEHNN@Z:PROC ; CDRChartOcx::SetStartEndDateOfView
EXTRN	?ScrollToDataOfEnd@CDRChartOcx@@QAEHN@Z:PROC	; CDRChartOcx::ScrollToDataOfEnd
EXTRN	?ZoomToWithRightFix@CDRChartOcx@@QAEFFH@Z:PROC	; CDRChartOcx::ZoomToWithRightFix
EXTRN	?SetTimeMark@CDRChartOcx@@QAEXPBDH@Z:PROC	; CDRChartOcx::SetTimeMark
EXTRN	?EnableBoundMark@CDRChartOcx@@QAEXH@Z:PROC	; CDRChartOcx::EnableBoundMark
EXTRN	?EnableReceivingTimeShare@CDRChartOcx@@QAEXH@Z:PROC ; CDRChartOcx::EnableReceivingTimeShare
EXTRN	?InvokeAddIn@CDRChartOcx@@QAEHPBDFJ@Z:PROC	; CDRChartOcx::InvokeAddIn
EXTRN	?SetDragModeType@CDRChartOcx@@QAEXF@Z:PROC	; CDRChartOcx::SetDragModeType
EXTRN	?SetOutsideCommonInterface@CDRChartOcx@@QAEXJ@Z:PROC ; CDRChartOcx::SetOutsideCommonInterface
EXTRN	?RunEnvironmentDlg@CDRChartOcx@@QAEXF@Z:PROC	; CDRChartOcx::RunEnvironmentDlg
EXTRN	?SetLogScale@CDRChartOcx@@QAEHPBDH@Z:PROC	; CDRChartOcx::SetLogScale
EXTRN	?SetResetTotalCountWhileDraw@CDRChartOcx@@QAEXH@Z:PROC ; CDRChartOcx::SetResetTotalCountWhileDraw
EXTRN	?SetCompareChartType@CChartItem@@QAEXD@Z:PROC	; CChartItem::SetCompareChartType
EXTRN	?GetNextKey@CChartItem@@QAEPBDH@Z:PROC		; CChartItem::GetNextKey
EXTRN	?SetNew_OnePageDataCount@CChartItem@@QAEXH@Z:PROC ; CChartItem::SetNew_OnePageDataCount
EXTRN	?SetChartRequestType@CChartItem@@QAEXD@Z:PROC	; CChartItem::SetChartRequestType
EXTRN	?OpenSignalMapScr@CChartItem@@QAEXXZ:PROC	; CChartItem::OpenSignalMapScr
EXTRN	??0CChartItem@@QAE@XZ:PROC			; CChartItem::CChartItem
EXTRN	?SetAutoSaveToOutside@CChartItem@@QAEX_N@Z:PROC	; CChartItem::SetAutoSaveToOutside
EXTRN	?SetEndDate@CChartItem@@QAEXPBD@Z:PROC		; CChartItem::SetEndDate
EXTRN	?SetChartNumericValue@CChartItem@@QAEXH@Z:PROC	; CChartItem::SetChartNumericValue
EXTRN	?SetUseLogValue@CChartItem@@QAEXH@Z:PROC	; CChartItem::SetUseLogValue
EXTRN	?Create@CChartItem@@QAEHPAVCWnd@@PAUtagRECT@@HJJPBDH@Z:PROC ; CChartItem::Create
EXTRN	?SetInit@CChartItem@@QAEXJJPBDH@Z:PROC		; CChartItem::SetInit
EXTRN	?ReceiveInitalChartData@CChartItem@@QAEJPAXJ@Z:PROC ; CChartItem::ReceiveInitalChartData
EXTRN	?ReceiveLoadingChartData@CChartItem@@QAEJPAXJ@Z:PROC ; CChartItem::ReceiveLoadingChartData
EXTRN	?ResetOCX@CChartItem@@QAEXH@Z:PROC		; CChartItem::ResetOCX
EXTRN	?DrawTitle@CChartItem@@QAEXVCRect@@PAVCDC@@PAVCFont@@2K@Z:PROC ; CChartItem::DrawTitle
EXTRN	?SetButton@CChartItem@@QAEXQAUtagRECT@@@Z:PROC	; CChartItem::SetButton
EXTRN	?SetCodeForQuery@CChartItem@@QAEXPBDV?$CStringT@DV?$StrTraitMFC_DLL@DV?$ChTraitsCRT@D@ATL@@@@@ATL@@H@Z:PROC ; CChartItem::SetCodeForQuery
EXTRN	?AddChartBlock@CChartItem@@QAEHPBD@Z:PROC	; CChartItem::AddChartBlock
EXTRN	?SetType@CChartItem@@QAEXD@Z:PROC		; CChartItem::SetType
EXTRN	?GetTypeRequested@CChartItem@@QAEDXZ:PROC	; CChartItem::GetTypeRequested
EXTRN	?GetType@CChartItem@@QAEDXZ:PROC		; CChartItem::GetType
EXTRN	?SetTickMinDayNumber@CChartItem@@QAEXI@Z:PROC	; CChartItem::SetTickMinDayNumber
EXTRN	?GetTickMinDayNumber@CChartItem@@QAE?AV?$CStringT@DV?$StrTraitMFC_DLL@DV?$ChTraitsCRT@D@ATL@@@@@ATL@@H@Z:PROC ; CChartItem::GetTickMinDayNumber
EXTRN	?SetEndDateRequested@CChartItem@@QAEXPBD@Z:PROC	; CChartItem::SetEndDateRequested
EXTRN	?GetEndDateRequested@CChartItem@@QAE?AV?$CStringT@DV?$StrTraitMFC_DLL@DV?$ChTraitsCRT@D@ATL@@@@@ATL@@XZ:PROC ; CChartItem::GetEndDateRequested
EXTRN	?GetEndDate@CChartItem@@QAE?AV?$CStringT@DV?$StrTraitMFC_DLL@DV?$ChTraitsCRT@D@ATL@@@@@ATL@@XZ:PROC ; CChartItem::GetEndDate
EXTRN	?SetCntForRequest@CChartItem@@QAEXI@Z:PROC	; CChartItem::SetCntForRequest
EXTRN	?GetQueryData@CChartItem@@QAE?AV?$CStringT@DV?$StrTraitMFC_DLL@DV?$ChTraitsCRT@D@ATL@@@@@ATL@@H@Z:PROC ; CChartItem::GetQueryData
EXTRN	?GetDataCode@CChartItem@@QAE?AV?$CStringT@DV?$StrTraitMFC_DLL@DV?$ChTraitsCRT@D@ATL@@@@@ATL@@H@Z:PROC ; CChartItem::GetDataCode
EXTRN	?GetDataTRCode@CChartItem@@QAE?AV?$CStringT@DV?$StrTraitMFC_DLL@DV?$ChTraitsCRT@D@ATL@@@@@ATL@@H@Z:PROC ; CChartItem::GetDataTRCode
EXTRN	?HasGraph@CChartItem@@QAEHPBD@Z:PROC		; CChartItem::HasGraph
EXTRN	?SetRealPriceData@CChartItem@@QAEXPAXJ@Z:PROC	; CChartItem::SetRealPriceData
EXTRN	?GetTrCodeForQuery@CChartItem@@QAE?AV?$CStringT@DV?$StrTraitMFC_DLL@DV?$ChTraitsCRT@D@ATL@@@@@ATL@@XZ:PROC ; CChartItem::GetTrCodeForQuery
EXTRN	?LoadChartInfo@CChartItem@@QAEHPBDHH@Z:PROC	; CChartItem::LoadChartInfo
EXTRN	?SaveChartInfo@CChartItem@@QAEHPBDH@Z:PROC	; CChartItem::SaveChartInfo
EXTRN	?LoadChartSetting@CChartItem@@QAEHPBD@Z:PROC	; CChartItem::LoadChartSetting
EXTRN	?ResetChart@CChartItem@@QAEHXZ:PROC		; CChartItem::ResetChart
EXTRN	?HasChartItemData@CChartItem@@QAEHPBDV?$CStringT@DV?$StrTraitMFC_DLL@DV?$ChTraitsCRT@D@ATL@@@@@ATL@@HH@Z:PROC ; CChartItem::HasChartItemData
EXTRN	?RemoveChartItemData@CChartItem@@QAEHPBDV?$CStringT@DV?$StrTraitMFC_DLL@DV?$ChTraitsCRT@D@ATL@@@@@ATL@@@Z:PROC ; CChartItem::RemoveChartItemData
EXTRN	?ClearData@CChartItem@@QAEHXZ:PROC		; CChartItem::ClearData
EXTRN	?ClearDataExceptPrimaryData@CChartItem@@QAEHXZ:PROC ; CChartItem::ClearDataExceptPrimaryData
EXTRN	?SetNext@CChartItem@@QAEXH@Z:PROC		; CChartItem::SetNext
EXTRN	?SaveandOpenFromFile@CChartItem@@QAEHPBD0HH@Z:PROC ; CChartItem::SaveandOpenFromFile
EXTRN	?GetPrimaryChartItemData@CChartItem@@QAEPAVCChartItemData@@XZ:PROC ; CChartItem::GetPrimaryChartItemData
EXTRN	?SetUseRevisedValue@CChartItem@@QAEXH@Z:PROC	; CChartItem::SetUseRevisedValue
EXTRN	?GetUseRevisedValue@CChartItem@@QAEHXZ:PROC	; CChartItem::GetUseRevisedValue
EXTRN	?SetBNormalizedMinuteTimeRule@CChartItem@@QAEXH@Z:PROC ; CChartItem::SetBNormalizedMinuteTimeRule
EXTRN	?SetRowNCol@CChartItem@@QAEXJJ@Z:PROC		; CChartItem::SetRowNCol
EXTRN	?HideScale@CChartItem@@QAEXH@Z:PROC		; CChartItem::HideScale
EXTRN	?HideInnerToolBar@CChartItem@@QAEXH@Z:PROC	; CChartItem::HideInnerToolBar
EXTRN	?InvalidateType@CChartItem@@QAEXXZ:PROC		; CChartItem::InvalidateType
EXTRN	?ShowLock@CChartItem@@QAEXH@Z:PROC		; CChartItem::ShowLock
EXTRN	?SendMessageToInvoke@CChartItem@@QAEHFJJ@Z:PROC	; CChartItem::SendMessageToInvoke
EXTRN	?Add_OverLappedCnt@CChartItem@@QAEXXZ:PROC	; CChartItem::Add_OverLappedCnt
EXTRN	?Init_OverLapped@CChartItem@@QAEXXZ:PROC	; CChartItem::Init_OverLapped
EXTRN	?PrintChart@CChartItem@@QAEXXZ:PROC		; CChartItem::PrintChart
EXTRN	?SetExcelData@CChartItem@@QAEXXZ:PROC		; CChartItem::SetExcelData
EXTRN	?SetSaveAllCount@CChartItem@@QAEXH@Z:PROC	; CChartItem::SetSaveAllCount
EXTRN	?InvokeAddInPattern@CChartItem@@QAEHPBDFJ@Z:PROC ; CChartItem::InvokeAddInPattern
EXTRN	?InvokeAddInPeriod@CChartItem@@QAEHPBDFJ@Z:PROC	; CChartItem::InvokeAddInPeriod
EXTRN	?InvokeAddInSTIndex@CChartItem@@QAEHPBDFJ@Z:PROC ; CChartItem::InvokeAddInSTIndex
EXTRN	?GetLoadedQueryData@CChartItem@@QAE?AV?$CStringT@DV?$StrTraitMFC_DLL@DV?$ChTraitsCRT@D@ATL@@@@@ATL@@XZ:PROC ; CChartItem::GetLoadedQueryData
EXTRN	?IsAddMode@CChartItem@@QAEHXZ:PROC		; CChartItem::IsAddMode
EXTRN	?OnSelectChartItem@CChartItem@@QAEXPAU_ST_SELCHART@@H@Z:PROC ; CChartItem::OnSelectChartItem
EXTRN	?GetSelChart@CChartItem@@QAEHPBDAAPAU_ST_SELCHART@@@Z:PROC ; CChartItem::GetSelChart
EXTRN	?FindSelectChartByItemCode@CChartItem@@QAEHPBDH@Z:PROC ; CChartItem::FindSelectChartByItemCode
EXTRN	?GetRQCount@CChartItem@@QAEHXZ:PROC		; CChartItem::GetRQCount
EXTRN	??_ECChartMng@@UAEPAXI@Z:PROC			; CChartMng::`vector deleting destructor'
EXTRN	?SetMode@CInputBarDlg@@QAEXH@Z:PROC		; CInputBarDlg::SetMode
EXTRN	?GetCurrentMode@CInputBarDlg@@QAEHHH@Z:PROC	; CInputBarDlg::GetCurrentMode
EXTRN	?SetMultiTotalCount@CInputBarDlg@@QAEXH@Z:PROC	; CInputBarDlg::SetMultiTotalCount
EXTRN	?ShowScreen1Menu@CInputBarDlg@@QAEXAAVCPoint@@H@Z:PROC ; CInputBarDlg::ShowScreen1Menu
EXTRN	?GetQueryOpt@CExtInputBarDlg@@QAEHXZ:PROC	; CExtInputBarDlg::GetQueryOpt
EXTRN	?SetChartBySystemTrading@CStdDialog@@QAEXH@Z:PROC ; CStdDialog::SetChartBySystemTrading
EXTRN	?OnCodeAdvise@CStdDialog@@QAEXV?$CStringT@DV?$StrTraitMFC_DLL@DV?$ChTraitsCRT@D@ATL@@@@@ATL@@H@Z:PROC ; CStdDialog::OnCodeAdvise
EXTRN	?OnCodeUnAdvise@CStdDialog@@QAEXV?$CStringT@DV?$StrTraitMFC_DLL@DV?$ChTraitsCRT@D@ATL@@@@@ATL@@H@Z:PROC ; CStdDialog::OnCodeUnAdvise
EXTRN	?GetAccountInfo@CStdDialog@@QAE?AV?$CStringT@DV?$StrTraitMFC_DLL@DV?$ChTraitsCRT@D@ATL@@@@@ATL@@XZ:PROC ; CStdDialog::GetAccountInfo
EXTRN	?IsChartHide@CStdDialog@@QAEHXZ:PROC		; CStdDialog::IsChartHide
EXTRN	?AddRealCodeList@CStdDialog@@QAEXPBD@Z:PROC	; CStdDialog::AddRealCodeList
EXTRN	?AddRealCodes@CStdDialog@@QAEXXZ:PROC		; CStdDialog::AddRealCodes
EXTRN	?OnDeleteChartItem@CStdDialog@@QAEXPBD@Z:PROC	; CStdDialog::OnDeleteChartItem
EXTRN	?GetJongMokNameByCode@CStdDialog@@QAE?AV?$CStringT@DV?$StrTraitMFC_DLL@DV?$ChTraitsCRT@D@ATL@@@@@ATL@@PBD0@Z:PROC ; CStdDialog::GetJongMokNameByCode
EXTRN	?OnSelectChartItem@CStdDialog@@QAEXPAU_ST_SELCHART@@@Z:PROC ; CStdDialog::OnSelectChartItem
EXTRN	?ResetChartAll@CStdDialog@@QAEXXZ:PROC		; CStdDialog::ResetChartAll
EXTRN	?DeleteToLeftBar@CStdDialog@@QAEXPBD@Z:PROC	; CStdDialog::DeleteToLeftBar
EXTRN	?OnCodeScdClear@CStdDialog@@QAEXV?$CStringT@DV?$StrTraitMFC_DLL@DV?$ChTraitsCRT@D@ATL@@@@@ATL@@H@Z:PROC ; CStdDialog::OnCodeScdClear
EXTRN	@__security_check_cookie@4:PROC
EXTRN	___CxxFrameHandler3:PROC
EXTRN	_memset:PROC
EXTRN	__Init_thread_epoch:DWORD
EXTRN	??_7type_info@@6B@:QWORD			; type_info::`vftable'
EXTRN	___security_cookie:DWORD
EXTRN	__fltused:DWORD
EXTRN	__tls_array:DWORD
EXTRN	__tls_index:DWORD
;	COMDAT ?_OptionsStorage@?1??__local_stdio_printf_options@@9@4_KA
_BSS	SEGMENT
?_OptionsStorage@?1??__local_stdio_printf_options@@9@4_KA DQ 01H DUP (?) ; `__local_stdio_printf_options'::`2'::_OptionsStorage
_BSS	ENDS
_BSS	SEGMENT
?RMSG_GETSIGNAL_REAL@@3IB DD 01H DUP (?)		; RMSG_GETSIGNAL_REAL
?RMSG_CHARTMAIN@@3IB DD 01H DUP (?)			; RMSG_CHARTMAIN
?RMS_ANALYSIS_FUNC@@3IB DD 01H DUP (?)			; RMS_ANALYSIS_FUNC
?RMSG_GET_USERID@@3IB DD 01H DUP (?)			; RMSG_GET_USERID
?RMSG_KSDLLINFO@@3IB DD 01H DUP (?)			; RMSG_KSDLLINFO
?RMSG_GETINFO@@3IB DD 01H DUP (?)			; RMSG_GETINFO
?RMSG_CHANGE_SKINCOLOR@@3IB DD 01H DUP (?)		; RMSG_CHANGE_SKINCOLOR
?RMSG_GET_SKINCOLOR@@3IB DD 01H DUP (?)			; RMSG_GET_SKINCOLOR
?RMSG_CHANGE_CROSSLINE@@3IB DD 01H DUP (?)		; RMSG_CHANGE_CROSSLINE
?m_strStatic_ShareCode@CChartMng@@2V?$CStringT@DV?$StrTraitMFC_DLL@DV?$ChTraitsCRT@D@ATL@@@@@ATL@@A DD 01H DUP (?) ; CChartMng::m_strStatic_ShareCode
?m_strCodeForMulti@CChartMng@@2V?$CStringT@DV?$StrTraitMFC_DLL@DV?$ChTraitsCRT@D@ATL@@@@@ATL@@A DD 01H DUP (?) ; CChartMng::m_strCodeForMulti
?RMSG_CHARTMSG_EVENTMESSAGE@@3IB DD 01H DUP (?)		; RMSG_CHARTMSG_EVENTMESSAGE
?RMSG_REPLAY_REAL@@3IB DD 01H DUP (?)			; RMSG_REPLAY_REAL
?RMSG_REPLAY_FAIL@@3IB DD 01H DUP (?)			; RMSG_REPLAY_FAIL
?RMSG_REPLAY_CHANGE_DATE@@3IB DD 01H DUP (?)		; RMSG_REPLAY_CHANGE_DATE
?RMSG_REPLAY_END@@3IB DD 01H DUP (?)			; RMSG_REPLAY_END
?RMSG_REPLAY_INC_SEC@@3IB DD 01H DUP (?)		; RMSG_REPLAY_INC_SEC
?RMSG_REPLAY_TOTAL_SEC@@3IB DD 01H DUP (?)		; RMSG_REPLAY_TOTAL_SEC
?RMSG_SELCHARTCODE@@3IB DD 01H DUP (?)			; RMSG_SELCHARTCODE
?RMSG_DRAGSTART@@3IB DD 01H DUP (?)			; RMSG_DRAGSTART
?RMSG_DRAGEND@@3IB DD 01H DUP (?)			; RMSG_DRAGEND
?RMSG_FROMCODELIST@@3IB DD 01H DUP (?)			; RMSG_FROMCODELIST
?RMSG_SETSHAREDATA@@3IB DD 01H DUP (?)			; RMSG_SETSHAREDATA
?RMSG_OPENMAP2@@3IB DD 01H DUP (?)			; RMSG_OPENMAP2
?RMSG_FROMHOGAJUMUN_DESTROY@@3IB DD 01H DUP (?)		; RMSG_FROMHOGAJUMUN_DESTROY
?RMSG_HOGACHANGEDATA_CODE@@3IB DD 01H DUP (?)		; RMSG_HOGACHANGEDATA_CODE
?RMSG_HOGACHANGEDATA_ACCT@@3IB DD 01H DUP (?)		; RMSG_HOGACHANGEDATA_ACCT
?RMSG_SHARED_PIN@@3IB DD 01H DUP (?)			; RMSG_SHARED_PIN
?RMSG_RESIZEFROMGWAN@@3IB DD 01H DUP (?)		; RMSG_RESIZEFROMGWAN
?RMSG_MESSAGESHOW@@3IB DD 01H DUP (?)			; RMSG_MESSAGESHOW
?RMSG_GETSKINVALUE@@3IB DD 01H DUP (?)			; RMSG_GETSKINVALUE
?RMSG_OPENMAPWITHDATA@@3IB DD 01H DUP (?)		; RMSG_OPENMAPWITHDATA
?RMSG_SAVE_FOCUS_CONTROL@@3IB DD 01H DUP (?)		; RMSG_SAVE_FOCUS_CONTROL
?RMSG_GETOPENEDOWNER@@3IB DD 01H DUP (?)		; RMSG_GETOPENEDOWNER
?RMSG_CREATEOPENSHAREDATA@@3IB DD 01H DUP (?)		; RMSG_CREATEOPENSHAREDATA
?RMSG_STDATAMANAGER_RESULTDATA@@3IB DD 01H DUP (?)	; RMSG_STDATAMANAGER_RESULTDATA
_BSS	ENDS
;	COMDAT ?szID@?1??OnGetUserID@CChartMng@@IAEJIJ@Z@4V?$CStringT@DV?$StrTraitMFC_DLL@DV?$ChTraitsCRT@D@ATL@@@@@ATL@@A
_BSS	SEGMENT
?szID@?1??OnGetUserID@CChartMng@@IAEJIJ@Z@4V?$CStringT@DV?$StrTraitMFC_DLL@DV?$ChTraitsCRT@D@ATL@@@@@ATL@@A DD 01H DUP (?) ; `CChartMng::OnGetUserID'::`2'::szID
_BSS	ENDS
;	COMDAT ?$TSS0@?1??OnGetUserID@CChartMng@@IAEJIJ@Z@4HA
_BSS	SEGMENT
?$TSS0@?1??OnGetUserID@CChartMng@@IAEJIJ@Z@4HA DD 01H DUP (?) ; `CChartMng::OnGetUserID'::`2'::$TSS0
_BSS	ENDS
CRT$XCU	SEGMENT
?RMSG_GETSIGNAL_REAL$initializer$@@3P6AXXZA DD FLAT:??__ERMSG_GETSIGNAL_REAL@@YAXXZ ; RMSG_GETSIGNAL_REAL$initializer$
CRT$XCU	ENDS
;	COMDAT __xmm@41f00000000000000000000000000000
CONST	SEGMENT
__xmm@41f00000000000000000000000000000 DB 00H, 00H, 00H, 00H, 00H, 00H, 00H
	DB	00H, 00H, 00H, 00H, 00H, 00H, 00H, 0f0H, 'A'
CONST	ENDS
;	COMDAT ??_R1A@?0A@EA@CChartMng@@8
rdata$r	SEGMENT
??_R1A@?0A@EA@CChartMng@@8 DD FLAT:??_R0?AVCChartMng@@@8 ; CChartMng::`RTTI Base Class Descriptor at (0,-1,0,64)'
	DD	03H
	DD	00H
	DD	0ffffffffH
	DD	00H
	DD	040H
	DD	FLAT:??_R3CChartMng@@8
rdata$r	ENDS
;	COMDAT ??_R2CChartMng@@8
rdata$r	SEGMENT
??_R2CChartMng@@8 DD FLAT:??_R1A@?0A@EA@CChartMng@@8	; CChartMng::`RTTI Base Class Array'
	DD	FLAT:??_R1A@?0A@EA@CWnd@@8
	DD	FLAT:??_R1A@?0A@EA@CCmdTarget@@8
	DD	FLAT:??_R1A@?0A@EA@CObject@@8
rdata$r	ENDS
;	COMDAT ??_R3CChartMng@@8
rdata$r	SEGMENT
??_R3CChartMng@@8 DD 00H				; CChartMng::`RTTI Class Hierarchy Descriptor'
	DD	00H
	DD	04H
	DD	FLAT:??_R2CChartMng@@8
rdata$r	ENDS
;	COMDAT ??_R0?AVCChartMng@@@8
data$rs	SEGMENT
??_R0?AVCChartMng@@@8 DD FLAT:??_7type_info@@6B@	; CChartMng `RTTI Type Descriptor'
	DD	00H
	DB	'.?AVCChartMng@@', 00H
data$rs	ENDS
;	COMDAT ??_R4CChartMng@@6B@
rdata$r	SEGMENT
??_R4CChartMng@@6B@ DD 00H				; CChartMng::`RTTI Complete Object Locator'
	DD	00H
	DD	00H
	DD	FLAT:??_R0?AVCChartMng@@@8
	DD	FLAT:??_R3CChartMng@@8
rdata$r	ENDS
;	COMDAT ??_C@_01NBENCBCI@?$CK@
CONST	SEGMENT
??_C@_01NBENCBCI@?$CK@ DB '*', 00H			; `string'
CONST	ENDS
;	COMDAT ??_C@_02IDFIDEI@_?$CK@
CONST	SEGMENT
??_C@_02IDFIDEI@_?$CK@ DB '_*', 00H			; `string'
CONST	ENDS
;	COMDAT ??_C@_0L@HHOPFOHG@?D?Z?$LF?e?9?D?Z?D?Z2@
CONST	SEGMENT
??_C@_0L@HHOPFOHG@?D?Z?$LF?e?9?D?Z?D?Z2@ DB 0c4H, 0daH, 0b5H, 0e5H, '-', 0c4H
	DB	0daH, 0c4H, 0daH, '2', 00H			; `string'
CONST	ENDS
;	COMDAT ??_C@_0O@GEPOFNDE@?$MA?z?$MA?e?A?$LO?$LI?q?5?H?$KD?C?b@
CONST	SEGMENT
??_C@_0O@GEPOFNDE@?$MA?z?$MA?e?A?$LO?$LI?q?5?H?$KD?C?b@ DB 0c0H, 0faH, 0c0H
	DB	0e5H, 0c1H, 0beH, 0b8H, 0f1H, ' ', 0c8H, 0a3H, 0c3H, 0e2H, 00H ; `string'
CONST	ENDS
;	COMDAT ??_C@_0N@CKHLOMJE@?$LF?n?$LH?O?5?$LJ?W?5?$LL?h?A?$KG@
CONST	SEGMENT
??_C@_0N@CKHLOMJE@?$LF?n?$LH?O?5?$LJ?W?5?$LL?h?A?$KG@ DB 0b5H, 0eeH, 0b7H
	DB	0cfH, ' ', 0b9H, 0d7H, ' ', 0bbH, 0e8H, 0c1H, 0a6H, 00H ; `string'
CONST	ENDS
;	COMDAT ??_C@_03GGEOLGBL@Log@
CONST	SEGMENT
??_C@_03GGEOLGBL@Log@ DB 'Log', 00H			; `string'
CONST	ENDS
;	COMDAT ??_C@_08HAHCMMAH@InputBar@
CONST	SEGMENT
??_C@_08HAHCMMAH@InputBar@ DB 'InputBar', 00H		; `string'
CONST	ENDS
;	COMDAT ??_C@_07CLAOOEJF@Revised@
CONST	SEGMENT
??_C@_07CLAOOEJF@Revised@ DB 'Revised', 00H		; `string'
CONST	ENDS
;	COMDAT ??_C@_04EABMOKIA@ROWS@
CONST	SEGMENT
??_C@_04EABMOKIA@ROWS@ DB 'ROWS', 00H			; `string'
CONST	ENDS
;	COMDAT ??_C@_09NPLIGCCG@FrameInfo@
CONST	SEGMENT
??_C@_09NPLIGCCG@FrameInfo@ DB 'FrameInfo', 00H		; `string'
CONST	ENDS
;	COMDAT ??_C@_04NOPBICD@COLS@
CONST	SEGMENT
??_C@_04NOPBICD@COLS@ DB 'COLS', 00H			; `string'
CONST	ENDS
;	COMDAT ??_C@_0BM@LGAOAOAJ@?$MA?z?$MA?e?G?Q?5?B?w?F?$KO?H?$KN?$MA?O?$MA?L?5?$LO?x?$LN?$MA?$LE?O?$LE?Y?4@
CONST	SEGMENT
??_C@_0BM@LGAOAOAJ@?$MA?z?$MA?e?G?Q?5?B?w?F?$KO?H?$KN?$MA?O?$MA?L?5?$LO?x?$LN?$MA?$LE?O?$LE?Y?4@ DB 0c0H
	DB	0faH, 0c0H, 0e5H, 0c7H, 0d1H, ' ', 0c2H, 0f7H, 0c6H, 0aeH, 0c8H
	DB	0adH, 0c0H, 0cfH, 0c0H, 0ccH, ' ', 0beH, 0f8H, 0bdH, 0c0H, 0b4H
	DB	0cfH, 0b4H, 0d9H, '.', 00H			; `string'
CONST	ENDS
;	COMDAT ??_C@_04IPKCHPNC@?4mct@
CONST	SEGMENT
??_C@_04IPKCHPNC@?4mct@ DB '.mct', 00H			; `string'
CONST	ENDS
;	COMDAT ??_C@_04OGKJMPGK@?$CF02d@
CONST	SEGMENT
??_C@_04OGKJMPGK@?$CF02d@ DB '%02d', 00H		; `string'
CONST	ENDS
;	COMDAT ??_C@_05EFFCCOAM@COUNT@
CONST	SEGMENT
??_C@_05EFFCCOAM@COUNT@ DB 'COUNT', 00H			; `string'
CONST	ENDS
;	COMDAT ??_C@_0L@JDFBPHIC@CHART?5LIST@
CONST	SEGMENT
??_C@_0L@JDFBPHIC@CHART?5LIST@ DB 'CHART LIST', 00H	; `string'
CONST	ENDS
;	COMDAT ??_C@_0BA@BJHBMKPL@?2ChartIndex?4dat@
CONST	SEGMENT
??_C@_0BA@BJHBMKPL@?2ChartIndex?4dat@ DB '\ChartIndex.dat', 00H ; `string'
CONST	ENDS
;	COMDAT ??_C@_0DH@NGCGJAHM@?$LO?w?A?$LO?A?v?$LM?v?A?v?G?$KF?$LE?B?5?$FL?A?V?$FN?1?$FL?$MA?O?$FN?1?$FL?$LP?y?$FN?$LA?$KD@
CONST	SEGMENT
??_C@_0DH@NGCGJAHM@?$LO?w?A?$LO?A?v?$LM?v?A?v?G?$KF?$LE?B?5?$FL?A?V?$FN?1?$FL?$MA?O?$FN?1?$FL?$LP?y?$FN?$LA?$KD@ DB 0beH
	DB	0f7H, 0c1H, 0beH, 0c1H, 0f6H, 0bcH, 0f6H, 0c1H, 0f6H, 0c7H, 0a5H
	DB	0b4H, 0c2H, ' [', 0c1H, 0d6H, ']/[', 0c0H, 0cfH, ']/[', 0bfH, 0f9H
	DB	']', 0b0H, 0a3H, 0bfH, 0a1H, 0b8H, 0b8H, ' ', 0c0H, 0fbH, 0bfH
	DB	0ebH, 0c0H, 0ccH, ' ', 0b0H, 0a1H, 0b4H, 0c9H, 0c7H, 0d5H, 0b4H
	DB	0cfH, 0b4H, 0d9H, '.', 00H			; `string'
CONST	ENDS
;	COMDAT ??_C@_05OEELCGHA@?$CF1?41s@
CONST	SEGMENT
??_C@_05OEELCGHA@?$CF1?41s@ DB '%1.1s', 00H		; `string'
CONST	ENDS
;	COMDAT ??_C@_09JGJIODML@?$LN?C?$LA?$KD_?B?w?F?$KO@
CONST	SEGMENT
??_C@_09JGJIODML@?$LN?C?$LA?$KD_?B?w?F?$KO@ DB 0bdH, 0c3H, 0b0H, 0a3H, '_'
	DB	0c2H, 0f7H, 0c6H, 0aeH, 00H			; `string'
CONST	ENDS
;	COMDAT ??_C@_0BN@MMDLHLNL@SEND2SERVERFROMINVOKE?5Error?$CB@
CONST	SEGMENT
??_C@_0BN@MMDLHLNL@SEND2SERVERFROMINVOKE?5Error?$CB@ DB 'SEND2SERVERFROMI'
	DB	'NVOKE Error!', 00H				; `string'
CONST	ENDS
;	COMDAT ??_C@_0CL@PMIIFHP@ChartPeriodSummaryAddIn?4dll?3PER@
CONST	SEGMENT
??_C@_0CL@PMIIFHP@ChartPeriodSummaryAddIn?4dll?3PER@ DB 'ChartPeriodSumma'
	DB	'ryAddIn.dll:PERIOD_SUMMARY', 00H		; `string'
CONST	ENDS
;	COMDAT ??_C@_0CD@BIGOCDHM@ChartGuideLineAddin?4dll?3GUIDE_L@
CONST	SEGMENT
??_C@_0CD@BIGOCDHM@ChartGuideLineAddin?4dll?3GUIDE_L@ DB 'ChartGuideLineA'
	DB	'ddin.dll:GUIDE_LINE', 00H			; `string'
CONST	ENDS
;	COMDAT ??_C@_0CI@JLIFHDAP@?$LP?x?5?$LE?$NM?$MA?$KH?5?$MA?O?$LG?$KH?$LI?$LI?5?$LB?b?A?X?$LM?$LB?$MA?L?5?$MA?$PL?$LP?k?5?$LA?$KB@
CONST	SEGMENT
??_C@_0CI@JLIFHDAP@?$LP?x?5?$LE?$NM?$MA?$KH?5?$MA?O?$LG?$KH?$LI?$LI?5?$LB?b?A?X?$LM?$LB?$MA?L?5?$MA?$PL?$LP?k?5?$LA?$KB@ DB 0bfH
	DB	0f8H, ' ', 0b4H, 0dcH, 0c0H, 0a7H, ' ', 0c0H, 0cfH, 0b6H, 0a7H
	DB	0b8H, 0b8H, ' ', 0b1H, 0e2H, 0c1H, 0d8H, 0bcH, 0b1H, 0c0H, 0ccH
	DB	' ', 0c0H, 0fbH, 0bfH, 0ebH, ' ', 0b0H, 0a1H, 0b4H, 0c9H, 0c7H
	DB	0d5H, 0b4H, 0cfH, 0b4H, 0d9H, 00H		; `string'
CONST	ENDS
;	COMDAT ??_C@_09HBHOJCFG@groupName@
CONST	SEGMENT
??_C@_09HBHOJCFG@groupName@ DB 'groupName', 00H		; `string'
CONST	ENDS
;	COMDAT ??_C@_0BD@IFEDCLAE@?2Icss?2indicond?4cfg@
CONST	SEGMENT
??_C@_0BD@IFEDCLAE@?2Icss?2indicond?4cfg@ DB '\Icss\indicond.cfg', 00H ; `string'
CONST	ENDS
;	COMDAT ??_C@_04CDNGIBLJ@?$LF?$LF?$LB?$LI@
CONST	SEGMENT
??_C@_04CDNGIBLJ@?$LF?$LF?$LB?$LI@ DB 0b5H, 0b5H, 0b1H, 0b8H, 00H ; `string'
CONST	ENDS
;	COMDAT ??_C@_04OHGLKFFN@?$CF03d@
CONST	SEGMENT
??_C@_04OHGLKFFN@?$CF03d@ DB '%03d', 00H		; `string'
CONST	ENDS
;	COMDAT ??_C@_05CPLBAGNH@d1014@
CONST	SEGMENT
??_C@_05CPLBAGNH@d1014@ DB 'd1014', 00H			; `string'
CONST	ENDS
;	COMDAT ??_C@_05GAPAJABA@d1013@
CONST	SEGMENT
??_C@_05GAPAJABA@d1013@ DB 'd1013', 00H			; `string'
CONST	ENDS
;	COMDAT ??_C@_05HJOLKBFB@d1012@
CONST	SEGMENT
??_C@_05HJOLKBFB@d1012@ DB 'd1012', 00H			; `string'
CONST	ENDS
;	COMDAT ??_C@_05FCMGPCJC@d1011@
CONST	SEGMENT
??_C@_05FCMGPCJC@d1011@ DB 'd1011', 00H			; `string'
CONST	ENDS
;	COMDAT ??_C@_08DIGNHAJI@temp?4tmp@
CONST	SEGMENT
??_C@_08DIGNHAJI@temp?4tmp@ DB 'temp.tmp', 00H		; `string'
CONST	ENDS
;	COMDAT ??_C@_0BJ@BMKLDEGD@m_pExtInputBarDlg?5ERROR?$CB@
CONST	SEGMENT
??_C@_0BJ@BMKLDEGD@m_pExtInputBarDlg?5ERROR?$CB@ DB 'm_pExtInputBarDlg ER'
	DB	'ROR!', 00H					; `string'
CONST	ENDS
;	COMDAT ??_C@_0CC@IBCJEKKE@MoveCharts?5l?3?$CFd?0?5t?3?$CFd?0?5r?3?$CFd?0?5b?3@
CONST	SEGMENT
??_C@_0CC@IBCJEKKE@MoveCharts?5l?3?$CFd?0?5t?3?$CFd?0?5r?3?$CFd?0?5b?3@ DB 'M'
	DB	'oveCharts l:%d, t:%d, r:%d, b:%d', 00H	; `string'
CONST	ENDS
;	COMDAT ??_C@_04HDOCAJNK@?$CFs?$CFs@
CONST	SEGMENT
??_C@_04HDOCAJNK@?$CFs?$CFs@ DB '%s%s', 00H		; `string'
CONST	ENDS
;	COMDAT ??_C@_06DJNEHHKG@?2Chart@
CONST	SEGMENT
??_C@_06DJNEHHKG@?2Chart@ DB '\Chart', 00H		; `string'
CONST	ENDS
;	COMDAT ??_C@_07PABJKJDM@?$CFd?5?$HM?5?$CFd@
CONST	SEGMENT
??_C@_07PABJKJDM@?$CFd?5?$HM?5?$CFd@ DB '%d | %d', 00H	; `string'
CONST	ENDS
;	COMDAT ??_C@_0BG@CHJJKIAP@ChartSTIndexAddIn?4dll@
CONST	SEGMENT
??_C@_0BG@CHJJKIAP@ChartSTIndexAddIn?4dll@ DB 'ChartSTIndexAddIn.dll', 00H ; `string'
CONST	ENDS
;	COMDAT ??_C@_0BG@FHIGLELG@ChartPatternAddin?4dll@
CONST	SEGMENT
??_C@_0BG@FHIGLELG@ChartPatternAddin?4dll@ DB 'ChartPatternAddin.dll', 00H ; `string'
CONST	ENDS
;	COMDAT ??_C@_05ELNNMDND@d1010@
CONST	SEGMENT
??_C@_05ELNNMDND@d1010@ DB 'd1010', 00H			; `string'
CONST	ENDS
;	COMDAT ??_C@_09NAHCEPAB@?$LN?C?$LA?$KD?9?B?w?F?$KO@
CONST	SEGMENT
??_C@_09NAHCEPAB@?$LN?C?$LA?$KD?9?B?w?F?$KO@ DB 0bdH, 0c3H, 0b0H, 0a3H, '-'
	DB	0c2H, 0f7H, 0c6H, 0aeH, 00H			; `string'
CONST	ENDS
;	COMDAT ??_C@_06MFMMLLPC@?$LB?$LM?$LI?$LC?C?$LM@
CONST	SEGMENT
??_C@_06MFMMLLPC@?$LB?$LM?$LI?$LC?C?$LM@ DB 0b1H, 0bcH, 0b8H, 0b2H, 0c3H, 0bcH
	DB	00H						; `string'
CONST	ENDS
;	COMDAT ??_C@_09LJAMJCMI@Chart?5Mng@
CONST	SEGMENT
??_C@_09LJAMJCMI@Chart?5Mng@ DB 'Chart Mng', 00H	; `string'
CONST	ENDS
;	COMDAT ?messageMap@?1??GetThisMessageMap@CChartMng@@KGPBUAFX_MSGMAP@@XZ@4U3@B
CONST	SEGMENT
?messageMap@?1??GetThisMessageMap@CChartMng@@KGPBUAFX_MSGMAP@@XZ@4U3@B DD FLAT:?GetThisMessageMap@CWnd@@KGPBUAFX_MSGMAP@@XZ ; `CChartMng::GetThisMessageMap'::`2'::messageMap
	DD	FLAT:?_messageEntries@?1??GetThisMessageMap@CChartMng@@KGPBUAFX_MSGMAP@@XZ@4QBUAFX_MSGMAP_ENTRY@@B
CONST	ENDS
;	COMDAT ?_messageEntries@?1??GetThisMessageMap@CChartMng@@KGPBUAFX_MSGMAP@@XZ@4QBUAFX_MSGMAP_ENTRY@@B
CONST	SEGMENT
?_messageEntries@?1??GetThisMessageMap@CChartMng@@KGPBUAFX_MSGMAP@@XZ@4QBUAFX_MSGMAP_ENTRY@@B DD 01H ; `CChartMng::GetThisMessageMap'::`2'::_messageEntries
	DD	00H
	DD	00H
	DD	00H
	DD	0dH
	DD	FLAT:?OnCreate@CChartMng@@IAEHPAUtagCREATESTRUCTA@@@Z
	DD	02H
	DD	00H
	DD	00H
	DD	00H
	DD	013H
	DD	FLAT:?OnDestroy@CChartMng@@IAEXXZ
	DD	05H
	DD	00H
	DD	00H
	DD	00H
	DD	01aH
	DD	FLAT:?OnSize@CChartMng@@IAEXIHH@Z
	DD	0fH
	DD	00H
	DD	00H
	DD	00H
	DD	013H
	DD	FLAT:?OnPaint@CChartMng@@IAEXXZ
	DD	0201H
	DD	00H
	DD	00H
	DD	00H
	DD	036H
	DD	FLAT:?OnLButtonDown@CChartMng@@IAEXIVCPoint@@@Z
	DD	0203H
	DD	00H
	DD	00H
	DD	00H
	DD	036H
	DD	FLAT:?OnLButtonDblClk@CChartMng@@IAEXIVCPoint@@@Z
	DD	0200H
	DD	00H
	DD	00H
	DD	00H
	DD	036H
	DD	FLAT:?OnMouseMove@CChartMng@@IAEXIVCPoint@@@Z
	DD	0202H
	DD	00H
	DD	00H
	DD	00H
	DD	036H
	DD	FLAT:?OnLButtonUp@CChartMng@@IAEXIVCPoint@@@Z
	DD	0205H
	DD	00H
	DD	00H
	DD	00H
	DD	036H
	DD	FLAT:?OnRButtonUp@CChartMng@@IAEXIVCPoint@@@Z
	DD	0113H
	DD	00H
	DD	00H
	DD	00H
	DD	015H
	DD	FLAT:?OnTimer@CChartMng@@IAEXI@Z
	DD	0c000H
	DD	00H
	DD	00H
	DD	00H
	DD	FLAT:?RMSG_CHARTMSG_EVENTMESSAGE@@3IB
	DD	FLAT:?OnEventMessage@CChartMng@@IAEJIJ@Z
	DD	0c000H
	DD	00H
	DD	00H
	DD	00H
	DD	FLAT:?RMSG_GET_USERID@@3IB
	DD	FLAT:?OnGetUserID@CChartMng@@IAEJIJ@Z
	DD	0c000H
	DD	00H
	DD	00H
	DD	00H
	DD	FLAT:?RMSG_SELCHARTCODE@@3IB
	DD	FLAT:?OnRmsgSelChartCode@CChartMng@@IAEJIJ@Z
	DD	00H
	DD	00H
	DD	00H
	DD	00H
	DD	00H
	DD	00H
CONST	ENDS
;	COMDAT ??_7CChartMng@@6B@
CONST	SEGMENT
??_7CChartMng@@6B@ DD FLAT:??_R4CChartMng@@6B@		; CChartMng::`vftable'
	DD	FLAT:?GetRuntimeClass@CWnd@@UBEPAUCRuntimeClass@@XZ
	DD	FLAT:??_ECChartMng@@UAEPAXI@Z
	DD	FLAT:?Serialize@CObject@@UAEXAAVCArchive@@@Z
	DD	FLAT:?AssertValid@CObject@@UBEXXZ
	DD	FLAT:?Dump@CObject@@UBEXAAVCDumpContext@@@Z
	DD	FLAT:?OnCmdMsg@CChartMng@@UAEHIHPAXPAUAFX_CMDHANDLERINFO@@@Z
	DD	FLAT:?OnFinalRelease@CWnd@@UAEXXZ
	DD	FLAT:?IsInvokeAllowed@CCmdTarget@@UAEHJ@Z
	DD	FLAT:?GetDispatchIID@CCmdTarget@@UAEHPAU_GUID@@@Z
	DD	FLAT:?GetTypeInfoCount@CCmdTarget@@UAEIXZ
	DD	FLAT:?GetTypeLibCache@CCmdTarget@@UAEPAVCTypeLibCache@@XZ
	DD	FLAT:?GetTypeLib@CCmdTarget@@UAEJKPAPAUITypeLib@@@Z
	DD	FLAT:?GetMessageMap@CChartMng@@MBEPBUAFX_MSGMAP@@XZ
	DD	FLAT:?GetCommandMap@CCmdTarget@@MBEPBUAFX_OLECMDMAP@@XZ
	DD	FLAT:?GetDispatchMap@CCmdTarget@@MBEPBUAFX_DISPMAP@@XZ
	DD	FLAT:?GetConnectionMap@CCmdTarget@@MBEPBUAFX_CONNECTIONMAP@@XZ
	DD	FLAT:?GetInterfaceMap@CWnd@@MBEPBUAFX_INTERFACEMAP@@XZ
	DD	FLAT:?GetEventSinkMap@CCmdTarget@@MBEPBUAFX_EVENTSINKMAP@@XZ
	DD	FLAT:?OnCreateAggregates@CCmdTarget@@UAEHXZ
	DD	FLAT:?GetInterfaceHook@CCmdTarget@@UAEPAUIUnknown@@PBX@Z
	DD	FLAT:?GetExtraConnectionPoints@CCmdTarget@@MAEHPAVCPtrArray@@@Z
	DD	FLAT:?GetConnectionHook@CCmdTarget@@MAEPAUIConnectionPoint@@ABU_GUID@@@Z
	DD	FLAT:?PreSubclassWindow@CWnd@@UAEXXZ
	DD	FLAT:?Create@CWnd@@UAEHPBD0KABUtagRECT@@PAV1@IPAUCCreateContext@@@Z
	DD	FLAT:?CreateEx@CWnd@@UAEHKPBD0KABUtagRECT@@PAV1@IPAX@Z
	DD	FLAT:?CreateEx@CWnd@@UAEHKPBD0KHHHHPAUHWND__@@PAUHMENU__@@PAX@Z
	DD	FLAT:?DestroyWindow@CWnd@@UAEHXZ
	DD	FLAT:?PreCreateWindow@CWnd@@UAEHAAUtagCREATESTRUCTA@@@Z
	DD	FLAT:?CalcWindowRect@CWnd@@UAEXPAUtagRECT@@I@Z
	DD	FLAT:?GetMenu@CWnd@@UBEPAVCMenu@@XZ
	DD	FLAT:?SetMenu@CWnd@@UAEHPAVCMenu@@@Z
	DD	FLAT:?OnToolHitTest@CWnd@@UBEHVCPoint@@PAUtagTOOLINFOA@@@Z
	DD	FLAT:?GetScrollBarCtrl@CWnd@@UBEPAVCScrollBar@@H@Z
	DD	FLAT:?WinHelpA@CWnd@@UAEXKI@Z
	DD	FLAT:?HtmlHelpA@CWnd@@UAEXKI@Z
	DD	FLAT:?WinHelpInternal@CWnd@@UAEXKI@Z
	DD	FLAT:?ContinueModal@CWnd@@UAEHXZ
	DD	FLAT:?EndModalLoop@CWnd@@UAEXH@Z
	DD	FLAT:?OnDrawIconicThumbnailOrLivePreview@CWnd@@UAEXAAVCDC@@VCRect@@VCSize@@HAAH@Z
	DD	FLAT:?EnsureStdObj@CWnd@@UAEJXZ
	DD	FLAT:?get_accParent@CWnd@@UAEJPAPAUIDispatch@@@Z
	DD	FLAT:?get_accChildCount@CWnd@@UAEJPAJ@Z
	DD	FLAT:?get_accChild@CWnd@@UAEJUtagVARIANT@@PAPAUIDispatch@@@Z
	DD	FLAT:?get_accName@CWnd@@UAEJUtagVARIANT@@PAPA_W@Z
	DD	FLAT:?get_accValue@CWnd@@UAEJUtagVARIANT@@PAPA_W@Z
	DD	FLAT:?get_accDescription@CWnd@@UAEJUtagVARIANT@@PAPA_W@Z
	DD	FLAT:?get_accRole@CWnd@@UAEJUtagVARIANT@@PAU2@@Z
	DD	FLAT:?get_accState@CWnd@@UAEJUtagVARIANT@@PAU2@@Z
	DD	FLAT:?get_accHelp@CWnd@@UAEJUtagVARIANT@@PAPA_W@Z
	DD	FLAT:?get_accHelpTopic@CWnd@@UAEJPAPA_WUtagVARIANT@@PAJ@Z
	DD	FLAT:?get_accKeyboardShortcut@CWnd@@UAEJUtagVARIANT@@PAPA_W@Z
	DD	FLAT:?get_accFocus@CWnd@@UAEJPAUtagVARIANT@@@Z
	DD	FLAT:?get_accSelection@CWnd@@UAEJPAUtagVARIANT@@@Z
	DD	FLAT:?get_accDefaultAction@CWnd@@UAEJUtagVARIANT@@PAPA_W@Z
	DD	FLAT:?accSelect@CWnd@@UAEJJUtagVARIANT@@@Z
	DD	FLAT:?accLocation@CWnd@@UAEJPAJ000UtagVARIANT@@@Z
	DD	FLAT:?accNavigate@CWnd@@UAEJJUtagVARIANT@@PAU2@@Z
	DD	FLAT:?accHitTest@CWnd@@UAEJJJPAUtagVARIANT@@@Z
	DD	FLAT:?accDoDefaultAction@CWnd@@UAEJUtagVARIANT@@@Z
	DD	FLAT:?put_accName@CWnd@@UAEJUtagVARIANT@@PA_W@Z
	DD	FLAT:?put_accValue@CWnd@@UAEJUtagVARIANT@@PA_W@Z
	DD	FLAT:?SetProxy@CWnd@@UAEJPAUIAccessibleProxy@@@Z
	DD	FLAT:?CreateAccessibleProxy@CWnd@@UAEJIJPAJ@Z
	DD	FLAT:?OnCommand@CWnd@@MAEHIJ@Z
	DD	FLAT:?OnNotify@CWnd@@MAEHIJPAJ@Z
	DD	FLAT:?GetSuperWndProcAddr@CWnd@@MAEPAP6GJPAUHWND__@@IIJ@ZXZ
	DD	FLAT:?DoDataExchange@CWnd@@MAEXPAVCDataExchange@@@Z
	DD	FLAT:?BeginModalState@CWnd@@UAEXXZ
	DD	FLAT:?EndModalState@CWnd@@UAEXXZ
	DD	FLAT:?PreTranslateMessage@CChartMng@@UAEHPAUtagMSG@@@Z
	DD	FLAT:?OnAmbientProperty@CWnd@@UAEHPAVCOleControlSite@@JPAUtagVARIANT@@@Z
	DD	FLAT:?WindowProc@CChartMng@@MAEJIIJ@Z
	DD	FLAT:?OnWndMsg@CWnd@@MAEHIIJPAJ@Z
	DD	FLAT:?DefWindowProcA@CWnd@@MAEJIIJ@Z
	DD	FLAT:?PostNcDestroy@CWnd@@MAEXXZ
	DD	FLAT:?OnChildNotify@CWnd@@MAEHIIJPAJ@Z
	DD	FLAT:?OnTouchInputs@CWnd@@MAEHIPAUtagTOUCHINPUT@@@Z
	DD	FLAT:?OnTouchInput@CWnd@@MAEHVCPoint@@HHPAUtagTOUCHINPUT@@@Z
	DD	FLAT:?GetGestureStatus@CWnd@@MAEKVCPoint@@@Z
	DD	FLAT:?OnGestureZoom@CWnd@@MAEHVCPoint@@J@Z
	DD	FLAT:?OnGesturePan@CWnd@@MAEHVCPoint@@0@Z
	DD	FLAT:?OnGestureRotate@CWnd@@MAEHVCPoint@@N@Z
	DD	FLAT:?OnGestureTwoFingerTap@CWnd@@MAEHVCPoint@@@Z
	DD	FLAT:?OnGesturePressAndTap@CWnd@@MAEHVCPoint@@J@Z
	DD	FLAT:?ResizeDynamicLayout@CWnd@@MAEXXZ
	DD	FLAT:?CheckAutoCenter@CWnd@@UAEHXZ
	DD	FLAT:?IsFrameWnd@CWnd@@UBEHXZ
	DD	FLAT:?CreateControlContainer@CWnd@@MAEHPAPAVCOleControlContainer@@@Z
	DD	FLAT:?CreateControlSite@CWnd@@MAEHPAVCOleControlContainer@@PAPAVCOleControlSite@@IABU_GUID@@@Z
	DD	FLAT:?SetOccDialogInfo@CWnd@@MAEHPAU_AFX_OCC_DIALOG_INFO@@@Z
	DD	FLAT:?GetOccDialogInfo@CWnd@@MAEPAU_AFX_OCC_DIALOG_INFO@@XZ
CONST	ENDS
;	COMDAT ??_R2CCmdTarget@@8
rdata$r	SEGMENT
??_R2CCmdTarget@@8 DD FLAT:??_R1A@?0A@EA@CCmdTarget@@8	; CCmdTarget::`RTTI Base Class Array'
	DD	FLAT:??_R1A@?0A@EA@CObject@@8
rdata$r	ENDS
;	COMDAT ??_R3CCmdTarget@@8
rdata$r	SEGMENT
??_R3CCmdTarget@@8 DD 00H				; CCmdTarget::`RTTI Class Hierarchy Descriptor'
	DD	00H
	DD	02H
	DD	FLAT:??_R2CCmdTarget@@8
rdata$r	ENDS
;	COMDAT ??_R0?AVCCmdTarget@@@8
data$rs	SEGMENT
??_R0?AVCCmdTarget@@@8 DD FLAT:??_7type_info@@6B@	; CCmdTarget `RTTI Type Descriptor'
	DD	00H
	DB	'.?AVCCmdTarget@@', 00H
data$rs	ENDS
;	COMDAT ??_R1A@?0A@EA@CCmdTarget@@8
rdata$r	SEGMENT
??_R1A@?0A@EA@CCmdTarget@@8 DD FLAT:??_R0?AVCCmdTarget@@@8 ; CCmdTarget::`RTTI Base Class Descriptor at (0,-1,0,64)'
	DD	01H
	DD	00H
	DD	0ffffffffH
	DD	00H
	DD	040H
	DD	FLAT:??_R3CCmdTarget@@8
rdata$r	ENDS
;	COMDAT ??_R2CWnd@@8
rdata$r	SEGMENT
??_R2CWnd@@8 DD	FLAT:??_R1A@?0A@EA@CWnd@@8		; CWnd::`RTTI Base Class Array'
	DD	FLAT:??_R1A@?0A@EA@CCmdTarget@@8
	DD	FLAT:??_R1A@?0A@EA@CObject@@8
rdata$r	ENDS
;	COMDAT ??_R3CWnd@@8
rdata$r	SEGMENT
??_R3CWnd@@8 DD	00H					; CWnd::`RTTI Class Hierarchy Descriptor'
	DD	00H
	DD	03H
	DD	FLAT:??_R2CWnd@@8
rdata$r	ENDS
;	COMDAT ??_R0?AVCWnd@@@8
data$rs	SEGMENT
??_R0?AVCWnd@@@8 DD FLAT:??_7type_info@@6B@		; CWnd `RTTI Type Descriptor'
	DD	00H
	DB	'.?AVCWnd@@', 00H
data$rs	ENDS
;	COMDAT ??_R1A@?0A@EA@CWnd@@8
rdata$r	SEGMENT
??_R1A@?0A@EA@CWnd@@8 DD FLAT:??_R0?AVCWnd@@@8		; CWnd::`RTTI Base Class Descriptor at (0,-1,0,64)'
	DD	02H
	DD	00H
	DD	0ffffffffH
	DD	00H
	DD	040H
	DD	FLAT:??_R3CWnd@@8
rdata$r	ENDS
;	COMDAT ??_R1A@?0A@EA@CMenu@@8
rdata$r	SEGMENT
??_R1A@?0A@EA@CMenu@@8 DD FLAT:??_R0?AVCMenu@@@8	; CMenu::`RTTI Base Class Descriptor at (0,-1,0,64)'
	DD	01H
	DD	00H
	DD	0ffffffffH
	DD	00H
	DD	040H
	DD	FLAT:??_R3CMenu@@8
rdata$r	ENDS
;	COMDAT ??_R2CMenu@@8
rdata$r	SEGMENT
??_R2CMenu@@8 DD FLAT:??_R1A@?0A@EA@CMenu@@8		; CMenu::`RTTI Base Class Array'
	DD	FLAT:??_R1A@?0A@EA@CObject@@8
rdata$r	ENDS
;	COMDAT ??_R3CMenu@@8
rdata$r	SEGMENT
??_R3CMenu@@8 DD 00H					; CMenu::`RTTI Class Hierarchy Descriptor'
	DD	00H
	DD	02H
	DD	FLAT:??_R2CMenu@@8
rdata$r	ENDS
;	COMDAT ??_R0?AVCMenu@@@8
data$rs	SEGMENT
??_R0?AVCMenu@@@8 DD FLAT:??_7type_info@@6B@		; CMenu `RTTI Type Descriptor'
	DD	00H
	DB	'.?AVCMenu@@', 00H
data$rs	ENDS
;	COMDAT ??_R4CMenu@@6B@
rdata$r	SEGMENT
??_R4CMenu@@6B@ DD 00H					; CMenu::`RTTI Complete Object Locator'
	DD	00H
	DD	00H
	DD	FLAT:??_R0?AVCMenu@@@8
	DD	FLAT:??_R3CMenu@@8
rdata$r	ENDS
;	COMDAT ??_R1A@?0A@EA@CFont@@8
rdata$r	SEGMENT
??_R1A@?0A@EA@CFont@@8 DD FLAT:??_R0?AVCFont@@@8	; CFont::`RTTI Base Class Descriptor at (0,-1,0,64)'
	DD	02H
	DD	00H
	DD	0ffffffffH
	DD	00H
	DD	040H
	DD	FLAT:??_R3CFont@@8
rdata$r	ENDS
;	COMDAT ??_R2CFont@@8
rdata$r	SEGMENT
??_R2CFont@@8 DD FLAT:??_R1A@?0A@EA@CFont@@8		; CFont::`RTTI Base Class Array'
	DD	FLAT:??_R1A@?0A@EA@CGdiObject@@8
	DD	FLAT:??_R1A@?0A@EA@CObject@@8
rdata$r	ENDS
;	COMDAT ??_R3CFont@@8
rdata$r	SEGMENT
??_R3CFont@@8 DD 00H					; CFont::`RTTI Class Hierarchy Descriptor'
	DD	00H
	DD	03H
	DD	FLAT:??_R2CFont@@8
rdata$r	ENDS
;	COMDAT ??_R0?AVCFont@@@8
data$rs	SEGMENT
??_R0?AVCFont@@@8 DD FLAT:??_7type_info@@6B@		; CFont `RTTI Type Descriptor'
	DD	00H
	DB	'.?AVCFont@@', 00H
data$rs	ENDS
;	COMDAT ??_R4CFont@@6B@
rdata$r	SEGMENT
??_R4CFont@@6B@ DD 00H					; CFont::`RTTI Complete Object Locator'
	DD	00H
	DD	00H
	DD	FLAT:??_R0?AVCFont@@@8
	DD	FLAT:??_R3CFont@@8
rdata$r	ENDS
;	COMDAT ??_R1A@?0A@EA@CGdiObject@@8
rdata$r	SEGMENT
??_R1A@?0A@EA@CGdiObject@@8 DD FLAT:??_R0?AVCGdiObject@@@8 ; CGdiObject::`RTTI Base Class Descriptor at (0,-1,0,64)'
	DD	01H
	DD	00H
	DD	0ffffffffH
	DD	00H
	DD	040H
	DD	FLAT:??_R3CGdiObject@@8
rdata$r	ENDS
;	COMDAT ??_R2CGdiObject@@8
rdata$r	SEGMENT
??_R2CGdiObject@@8 DD FLAT:??_R1A@?0A@EA@CGdiObject@@8	; CGdiObject::`RTTI Base Class Array'
	DD	FLAT:??_R1A@?0A@EA@CObject@@8
rdata$r	ENDS
;	COMDAT ??_R3CGdiObject@@8
rdata$r	SEGMENT
??_R3CGdiObject@@8 DD 00H				; CGdiObject::`RTTI Class Hierarchy Descriptor'
	DD	00H
	DD	02H
	DD	FLAT:??_R2CGdiObject@@8
rdata$r	ENDS
;	COMDAT ??_R0?AVCGdiObject@@@8
data$rs	SEGMENT
??_R0?AVCGdiObject@@@8 DD FLAT:??_7type_info@@6B@	; CGdiObject `RTTI Type Descriptor'
	DD	00H
	DB	'.?AVCGdiObject@@', 00H
data$rs	ENDS
;	COMDAT ??_R4CGdiObject@@6B@
rdata$r	SEGMENT
??_R4CGdiObject@@6B@ DD 00H				; CGdiObject::`RTTI Complete Object Locator'
	DD	00H
	DD	00H
	DD	FLAT:??_R0?AVCGdiObject@@@8
	DD	FLAT:??_R3CGdiObject@@8
rdata$r	ENDS
;	COMDAT ??_R1A@?0A@EA@CObject@@8
rdata$r	SEGMENT
??_R1A@?0A@EA@CObject@@8 DD FLAT:??_R0?AVCObject@@@8	; CObject::`RTTI Base Class Descriptor at (0,-1,0,64)'
	DD	00H
	DD	00H
	DD	0ffffffffH
	DD	00H
	DD	040H
	DD	FLAT:??_R3CObject@@8
rdata$r	ENDS
;	COMDAT ??_R2CObject@@8
rdata$r	SEGMENT
??_R2CObject@@8 DD FLAT:??_R1A@?0A@EA@CObject@@8	; CObject::`RTTI Base Class Array'
rdata$r	ENDS
;	COMDAT ??_R3CObject@@8
rdata$r	SEGMENT
??_R3CObject@@8 DD 00H					; CObject::`RTTI Class Hierarchy Descriptor'
	DD	00H
	DD	01H
	DD	FLAT:??_R2CObject@@8
rdata$r	ENDS
;	COMDAT ??_R0?AVCObject@@@8
data$rs	SEGMENT
??_R0?AVCObject@@@8 DD FLAT:??_7type_info@@6B@		; CObject `RTTI Type Descriptor'
	DD	00H
	DB	'.?AVCObject@@', 00H
data$rs	ENDS
;	COMDAT ??_C@_01KICIPPFI@?2@
CONST	SEGMENT
??_C@_01KICIPPFI@?2@ DB '\', 00H			; `string'
CONST	ENDS
;	COMDAT ??_C@_02DKCKIIND@?$CFs@
CONST	SEGMENT
??_C@_02DKCKIIND@?$CFs@ DB '%s', 00H			; `string'
CONST	ENDS
;	COMDAT ??_C@_01HIHLOKLC@1@
CONST	SEGMENT
??_C@_01HIHLOKLC@1@ DB '1', 00H				; `string'
CONST	ENDS
;	COMDAT ??_C@_0N@OMEMOKLE@?$CFTs?5?$CI?$CFTs?3?$CFd?$CJ@
CONST	SEGMENT
??_C@_0N@OMEMOKLE@?$CFTs?5?$CI?$CFTs?3?$CFd?$CJ@ DB '%Ts (%Ts:%d)', 00H ; `string'
CONST	ENDS
;	COMDAT ??_C@_0BB@HBOOMJBF@?$CFTs?5?$CI?$CFTs?3?$CFd?$CJ?6?$CFTs@
CONST	SEGMENT
??_C@_0BB@HBOOMJBF@?$CFTs?5?$CI?$CFTs?3?$CFd?$CJ?6?$CFTs@ DB '%Ts (%Ts:%d'
	DB	')', 0aH, '%Ts', 00H				; `string'
CONST	ENDS
;	COMDAT ??_C@_0BP@OIEOKIDM@Exception?5thrown?5in?5destructor@
CONST	SEGMENT
??_C@_0BP@OIEOKIDM@Exception?5thrown?5in?5destructor@ DB 'Exception throw'
	DB	'n in destructor', 00H			; `string'
CONST	ENDS
;	COMDAT ??_C@_0HD@JJCHHHNK@C?3?2Program?5Files?5?$CIx86?$CJ?2Microsof@
CONST	SEGMENT
??_C@_0HD@JJCHHHNK@C?3?2Program?5Files?5?$CIx86?$CJ?2Microsof@ DB 'C:\Pro'
	DB	'gram Files (x86)\Microsoft Visual Studio\2019\Community\VC\To'
	DB	'ols\MSVC\14.29.30133\atlmfc\include\afxwin1.inl', 00H ; `string'
CONST	ENDS
;	COMDAT ??_7CMenu@@6B@
CONST	SEGMENT
??_7CMenu@@6B@ DD FLAT:??_R4CMenu@@6B@			; CMenu::`vftable'
	DD	FLAT:?GetRuntimeClass@CMenu@@UBEPAUCRuntimeClass@@XZ
	DD	FLAT:??_ECMenu@@UAEPAXI@Z
	DD	FLAT:?Serialize@CObject@@UAEXAAVCArchive@@@Z
	DD	FLAT:?AssertValid@CObject@@UBEXXZ
	DD	FLAT:?Dump@CObject@@UBEXAAVCDumpContext@@@Z
	DD	FLAT:?DrawItem@CMenu@@UAEXPAUtagDRAWITEMSTRUCT@@@Z
	DD	FLAT:?MeasureItem@CMenu@@UAEXPAUtagMEASUREITEMSTRUCT@@@Z
CONST	ENDS
;	COMDAT ??_7CFont@@6B@
CONST	SEGMENT
??_7CFont@@6B@ DD FLAT:??_R4CFont@@6B@			; CFont::`vftable'
	DD	FLAT:?GetRuntimeClass@CFont@@UBEPAUCRuntimeClass@@XZ
	DD	FLAT:??_ECFont@@UAEPAXI@Z
	DD	FLAT:?Serialize@CObject@@UAEXAAVCArchive@@@Z
	DD	FLAT:?AssertValid@CObject@@UBEXXZ
	DD	FLAT:?Dump@CObject@@UBEXAAVCDumpContext@@@Z
CONST	ENDS
;	COMDAT ??_7CGdiObject@@6B@
CONST	SEGMENT
??_7CGdiObject@@6B@ DD FLAT:??_R4CGdiObject@@6B@	; CGdiObject::`vftable'
	DD	FLAT:?GetRuntimeClass@CGdiObject@@UBEPAUCRuntimeClass@@XZ
	DD	FLAT:??_ECGdiObject@@UAEPAXI@Z
	DD	FLAT:?Serialize@CObject@@UAEXAAVCArchive@@@Z
	DD	FLAT:?AssertValid@CObject@@UBEXXZ
	DD	FLAT:?Dump@CObject@@UBEXAAVCDumpContext@@@Z
CONST	ENDS
;	COMDAT ??_C@_02DPKJAMEF@?$CFd@
CONST	SEGMENT
??_C@_02DPKJAMEF@?$CFd@ DB '%d', 00H			; `string'
CONST	ENDS
;	COMDAT ??_R0PAVCException@@@8
data$r	SEGMENT
??_R0PAVCException@@@8 DD FLAT:??_7type_info@@6B@	; CException * `RTTI Type Descriptor'
	DD	00H
	DB	'.PAVCException@@', 00H
data$r	ENDS
;	COMDAT xdata$x
xdata$x	SEGMENT
__unwindtable$?AddTail@?$CList@U__STHIGHLIGHTCHARTINFO@@U1@@@QAEPAU__POSITION@@U__STHIGHLIGHTCHARTINFO@@@Z DD 0ffffffffH
	DD	FLAT:__unwindfunclet$?AddTail@?$CList@U__STHIGHLIGHTCHARTINFO@@U1@@@QAEPAU__POSITION@@U__STHIGHLIGHTCHARTINFO@@@Z$0
__ehfuncinfo$?AddTail@?$CList@U__STHIGHLIGHTCHARTINFO@@U1@@@QAEPAU__POSITION@@U__STHIGHLIGHTCHARTINFO@@@Z DD 019930522H
	DD	01H
	DD	FLAT:__unwindtable$?AddTail@?$CList@U__STHIGHLIGHTCHARTINFO@@U1@@@QAEPAU__POSITION@@U__STHIGHLIGHTCHARTINFO@@@Z
	DD	2 DUP(00H)
	DD	2 DUP(00H)
	DD	00H
	DD	01H
xdata$x	ENDS
;	COMDAT xdata$x
xdata$x	SEGMENT
__unwindtable$?OnChartMngCodeScdClear@CChartMng@@QAEXPAVCChartItem@@H@Z DD 0ffffffffH
	DD	FLAT:__unwindfunclet$?OnChartMngCodeScdClear@CChartMng@@QAEXPAVCChartItem@@H@Z$0
	DD	00H
	DD	FLAT:__unwindfunclet$?OnChartMngCodeScdClear@CChartMng@@QAEXPAVCChartItem@@H@Z$1
	DD	0ffffffffH
	DD	FLAT:__unwindfunclet$?OnChartMngCodeScdClear@CChartMng@@QAEXPAVCChartItem@@H@Z$2
	DD	02H
	DD	FLAT:__unwindfunclet$?OnChartMngCodeScdClear@CChartMng@@QAEXPAVCChartItem@@H@Z$3
__ehfuncinfo$?OnChartMngCodeScdClear@CChartMng@@QAEXPAVCChartItem@@H@Z DD 019930522H
	DD	04H
	DD	FLAT:__unwindtable$?OnChartMngCodeScdClear@CChartMng@@QAEXPAVCChartItem@@H@Z
	DD	2 DUP(00H)
	DD	2 DUP(00H)
	DD	00H
	DD	01H
xdata$x	ENDS
;	COMDAT xdata$x
xdata$x	SEGMENT
__unwindtable$?OnAllCodeScdClear@CChartMng@@QAEXXZ DD 0ffffffffH
	DD	FLAT:__unwindfunclet$?OnAllCodeScdClear@CChartMng@@QAEXXZ$1
__ehfuncinfo$?OnAllCodeScdClear@CChartMng@@QAEXXZ DD 019930522H
	DD	01H
	DD	FLAT:__unwindtable$?OnAllCodeScdClear@CChartMng@@QAEXXZ
	DD	2 DUP(00H)
	DD	2 DUP(00H)
	DD	00H
	DD	01H
xdata$x	ENDS
;	COMDAT xdata$x
xdata$x	SEGMENT
__ehfuncinfo$?OnEventMessage@CChartMng@@IAEJIJ@Z DD 019930522H
	DD	09H
	DD	FLAT:__unwindtable$?OnEventMessage@CChartMng@@IAEJIJ@Z
	DD	2 DUP(00H)
	DD	2 DUP(00H)
	DD	00H
	DD	01H
__unwindtable$?OnEventMessage@CChartMng@@IAEJIJ@Z DD 0ffffffffH
	DD	FLAT:__unwindfunclet$?OnEventMessage@CChartMng@@IAEJIJ@Z$0
	DD	00H
	DD	FLAT:__unwindfunclet$?OnEventMessage@CChartMng@@IAEJIJ@Z$1
	DD	01H
	DD	FLAT:__unwindfunclet$?OnEventMessage@CChartMng@@IAEJIJ@Z$2
	DD	02H
	DD	FLAT:__unwindfunclet$?OnEventMessage@CChartMng@@IAEJIJ@Z$3
	DD	0ffffffffH
	DD	FLAT:__unwindfunclet$?OnEventMessage@CChartMng@@IAEJIJ@Z$4
	DD	0ffffffffH
	DD	FLAT:__unwindfunclet$?OnEventMessage@CChartMng@@IAEJIJ@Z$5
	DD	05H
	DD	FLAT:__unwindfunclet$?OnEventMessage@CChartMng@@IAEJIJ@Z$6
	DD	0ffffffffH
	DD	FLAT:__unwindfunclet$?OnEventMessage@CChartMng@@IAEJIJ@Z$7
	DD	0ffffffffH
	DD	FLAT:__unwindfunclet$?OnEventMessage@CChartMng@@IAEJIJ@Z$8
xdata$x	ENDS
;	COMDAT xdata$x
xdata$x	SEGMENT
__unwindtable$?OnRButtonUp@CChartMng@@IAEXIVCPoint@@@Z DD 0ffffffffH
	DD	FLAT:__unwindfunclet$?OnRButtonUp@CChartMng@@IAEXIVCPoint@@@Z$0
	DD	0ffffffffH
	DD	FLAT:__unwindfunclet$?OnRButtonUp@CChartMng@@IAEXIVCPoint@@@Z$1
	DD	01H
	DD	FLAT:__unwindfunclet$?OnRButtonUp@CChartMng@@IAEXIVCPoint@@@Z$2
__ehfuncinfo$?OnRButtonUp@CChartMng@@IAEXIVCPoint@@@Z DD 019930522H
	DD	03H
	DD	FLAT:__unwindtable$?OnRButtonUp@CChartMng@@IAEXIVCPoint@@@Z
	DD	2 DUP(00H)
	DD	2 DUP(00H)
	DD	00H
	DD	01H
xdata$x	ENDS
;	COMDAT xdata$x
xdata$x	SEGMENT
__unwindtable$?OnPaint@CChartMng@@IAEXXZ DD 0ffffffffH
	DD	FLAT:__unwindfunclet$?OnPaint@CChartMng@@IAEXXZ$0
__ehfuncinfo$?OnPaint@CChartMng@@IAEXXZ DD 019930522H
	DD	01H
	DD	FLAT:__unwindtable$?OnPaint@CChartMng@@IAEXXZ
	DD	2 DUP(00H)
	DD	2 DUP(00H)
	DD	00H
	DD	01H
xdata$x	ENDS
;	COMDAT xdata$x
xdata$x	SEGMENT
__unwindtable$?OnDestroy@CChartMng@@IAEXXZ DD 0ffffffffH
	DD	FLAT:__unwindfunclet$?OnDestroy@CChartMng@@IAEXXZ$0
	DD	00H
	DD	FLAT:__unwindfunclet$?OnDestroy@CChartMng@@IAEXXZ$1
	DD	01H
	DD	FLAT:__unwindfunclet$?OnDestroy@CChartMng@@IAEXXZ$3
	DD	02H
	DD	FLAT:__unwindfunclet$?OnDestroy@CChartMng@@IAEXXZ$4
__ehfuncinfo$?OnDestroy@CChartMng@@IAEXXZ DD 019930522H
	DD	04H
	DD	FLAT:__unwindtable$?OnDestroy@CChartMng@@IAEXXZ
	DD	2 DUP(00H)
	DD	2 DUP(00H)
	DD	00H
	DD	01H
xdata$x	ENDS
;	COMDAT xdata$x
xdata$x	SEGMENT
__ehfuncinfo$?WindowProc@CChartMng@@MAEJIIJ@Z DD 019930522H
	DD	022H
	DD	FLAT:__unwindtable$?WindowProc@CChartMng@@MAEJIIJ@Z
	DD	2 DUP(00H)
	DD	2 DUP(00H)
	DD	00H
	DD	01H
__unwindtable$?WindowProc@CChartMng@@MAEJIIJ@Z DD 0ffffffffH
	DD	FLAT:__unwindfunclet$?WindowProc@CChartMng@@MAEJIIJ@Z$0
	DD	0ffffffffH
	DD	FLAT:__unwindfunclet$?WindowProc@CChartMng@@MAEJIIJ@Z$1
	DD	01H
	DD	FLAT:__unwindfunclet$?WindowProc@CChartMng@@MAEJIIJ@Z$2
	DD	02H
	DD	FLAT:__unwindfunclet$?WindowProc@CChartMng@@MAEJIIJ@Z$3
	DD	01H
	DD	FLAT:__unwindfunclet$?WindowProc@CChartMng@@MAEJIIJ@Z$4
	DD	01H
	DD	FLAT:__unwindfunclet$?WindowProc@CChartMng@@MAEJIIJ@Z$5
	DD	05H
	DD	FLAT:__unwindfunclet$?WindowProc@CChartMng@@MAEJIIJ@Z$6
	DD	06H
	DD	FLAT:__unwindfunclet$?WindowProc@CChartMng@@MAEJIIJ@Z$7
	DD	07H
	DD	FLAT:__unwindfunclet$?WindowProc@CChartMng@@MAEJIIJ@Z$8
	DD	07H
	DD	FLAT:__unwindfunclet$?WindowProc@CChartMng@@MAEJIIJ@Z$9
	DD	01H
	DD	FLAT:__unwindfunclet$?WindowProc@CChartMng@@MAEJIIJ@Z$10
	DD	0aH
	DD	FLAT:__unwindfunclet$?WindowProc@CChartMng@@MAEJIIJ@Z$11
	DD	0bH
	DD	FLAT:__unwindfunclet$?WindowProc@CChartMng@@MAEJIIJ@Z$12
	DD	0cH
	DD	FLAT:__unwindfunclet$?WindowProc@CChartMng@@MAEJIIJ@Z$14
	DD	0cH
	DD	FLAT:__unwindfunclet$?WindowProc@CChartMng@@MAEJIIJ@Z$17
	DD	0eH
	DD	FLAT:__unwindfunclet$?WindowProc@CChartMng@@MAEJIIJ@Z$45
	DD	01H
	DD	FLAT:__unwindfunclet$?WindowProc@CChartMng@@MAEJIIJ@Z$19
	DD	010H
	DD	FLAT:__unwindfunclet$?WindowProc@CChartMng@@MAEJIIJ@Z$20
	DD	01H
	DD	FLAT:__unwindfunclet$?WindowProc@CChartMng@@MAEJIIJ@Z$23
	DD	01H
	DD	FLAT:__unwindfunclet$?WindowProc@CChartMng@@MAEJIIJ@Z$26
	DD	01H
	DD	FLAT:__unwindfunclet$?WindowProc@CChartMng@@MAEJIIJ@Z$27
	DD	01H
	DD	FLAT:__unwindfunclet$?WindowProc@CChartMng@@MAEJIIJ@Z$28
	DD	015H
	DD	FLAT:__unwindfunclet$?WindowProc@CChartMng@@MAEJIIJ@Z$29
	DD	015H
	DD	FLAT:__unwindfunclet$?WindowProc@CChartMng@@MAEJIIJ@Z$30
	DD	01H
	DD	FLAT:__unwindfunclet$?WindowProc@CChartMng@@MAEJIIJ@Z$31
	DD	01H
	DD	FLAT:__unwindfunclet$?WindowProc@CChartMng@@MAEJIIJ@Z$32
	DD	01H
	DD	FLAT:__unwindfunclet$?WindowProc@CChartMng@@MAEJIIJ@Z$47
	DD	01H
	DD	FLAT:__unwindfunclet$?WindowProc@CChartMng@@MAEJIIJ@Z$49
	DD	01H
	DD	FLAT:__unwindfunclet$?WindowProc@CChartMng@@MAEJIIJ@Z$33
	DD	01H
	DD	FLAT:__unwindfunclet$?WindowProc@CChartMng@@MAEJIIJ@Z$34
	DD	01dH
	DD	FLAT:__unwindfunclet$?WindowProc@CChartMng@@MAEJIIJ@Z$35
	DD	01H
	DD	FLAT:__unwindfunclet$?WindowProc@CChartMng@@MAEJIIJ@Z$37
	DD	01fH
	DD	FLAT:__unwindfunclet$?WindowProc@CChartMng@@MAEJIIJ@Z$38
	DD	01H
	DD	FLAT:__unwindfunclet$?WindowProc@CChartMng@@MAEJIIJ@Z$40
xdata$x	ENDS
;	COMDAT xdata$x
xdata$x	SEGMENT
__ehfuncinfo$?ResetChartAll@CChartMng@@AAEXXZ DD 019930522H
	DD	0aH
	DD	FLAT:__unwindtable$?ResetChartAll@CChartMng@@AAEXXZ
	DD	2 DUP(00H)
	DD	2 DUP(00H)
	DD	00H
	DD	01H
__unwindtable$?ResetChartAll@CChartMng@@AAEXXZ DD 0ffffffffH
	DD	FLAT:__unwindfunclet$?ResetChartAll@CChartMng@@AAEXXZ$7
	DD	00H
	DD	FLAT:__unwindfunclet$?ResetChartAll@CChartMng@@AAEXXZ$8
	DD	01H
	DD	FLAT:__unwindfunclet$?ResetChartAll@CChartMng@@AAEXXZ$2
	DD	02H
	DD	FLAT:__unwindfunclet$?ResetChartAll@CChartMng@@AAEXXZ$3
	DD	01H
	DD	FLAT:__unwindfunclet$?ResetChartAll@CChartMng@@AAEXXZ$3
	DD	00H
	DD	FLAT:__unwindfunclet$?ResetChartAll@CChartMng@@AAEXXZ$3
	DD	0ffffffffH
	DD	FLAT:__unwindfunclet$?ResetChartAll@CChartMng@@AAEXXZ$3
	DD	06H
	DD	FLAT:__unwindfunclet$?ResetChartAll@CChartMng@@AAEXXZ$4
	DD	07H
	DD	FLAT:__unwindfunclet$?ResetChartAll@CChartMng@@AAEXXZ$5
	DD	08H
	DD	FLAT:__unwindfunclet$?ResetChartAll@CChartMng@@AAEXXZ$6
xdata$x	ENDS
;	COMDAT xdata$x
xdata$x	SEGMENT
__unwindtable$?LoadDWMMChart@CChartMng@@AAEHH@Z DD 0ffffffffH
	DD	FLAT:__unwindfunclet$?LoadDWMMChart@CChartMng@@AAEHH@Z$0
	DD	00H
	DD	FLAT:__unwindfunclet$?LoadDWMMChart@CChartMng@@AAEHH@Z$1
	DD	00H
	DD	FLAT:__unwindfunclet$?LoadDWMMChart@CChartMng@@AAEHH@Z$2
	DD	02H
	DD	FLAT:__unwindfunclet$?LoadDWMMChart@CChartMng@@AAEHH@Z$3
__ehfuncinfo$?LoadDWMMChart@CChartMng@@AAEHH@Z DD 019930522H
	DD	04H
	DD	FLAT:__unwindtable$?LoadDWMMChart@CChartMng@@AAEHH@Z
	DD	2 DUP(00H)
	DD	2 DUP(00H)
	DD	00H
	DD	01H
xdata$x	ENDS
;	COMDAT xdata$x
xdata$x	SEGMENT
__unwindtable$?HeadInLoop@CChartMng@@AAEHXZ DD 0ffffffffH
	DD	FLAT:__unwindfunclet$?HeadInLoop@CChartMng@@AAEHXZ$0
	DD	00H
	DD	FLAT:__unwindfunclet$?HeadInLoop@CChartMng@@AAEHXZ$1
	DD	0ffffffffH
	DD	FLAT:__unwindfunclet$?HeadInLoop@CChartMng@@AAEHXZ$2
__ehfuncinfo$?HeadInLoop@CChartMng@@AAEHXZ DD 019930522H
	DD	03H
	DD	FLAT:__unwindtable$?HeadInLoop@CChartMng@@AAEHXZ
	DD	2 DUP(00H)
	DD	2 DUP(00H)
	DD	00H
	DD	01H
xdata$x	ENDS
;	COMDAT xdata$x
xdata$x	SEGMENT
__unwindtable$?SaveChart@CChartMng@@QAEXV?$CStringT@DV?$StrTraitMFC_DLL@DV?$ChTraitsCRT@D@ATL@@@@@ATL@@@Z DD 0ffffffffH
	DD	FLAT:__unwindfunclet$?SaveChart@CChartMng@@QAEXV?$CStringT@DV?$StrTraitMFC_DLL@DV?$ChTraitsCRT@D@ATL@@@@@ATL@@@Z$0
	DD	00H
	DD	FLAT:__unwindfunclet$?SaveChart@CChartMng@@QAEXV?$CStringT@DV?$StrTraitMFC_DLL@DV?$ChTraitsCRT@D@ATL@@@@@ATL@@@Z$1
__ehfuncinfo$?SaveChart@CChartMng@@QAEXV?$CStringT@DV?$StrTraitMFC_DLL@DV?$ChTraitsCRT@D@ATL@@@@@ATL@@@Z DD 019930522H
	DD	02H
	DD	FLAT:__unwindtable$?SaveChart@CChartMng@@QAEXV?$CStringT@DV?$StrTraitMFC_DLL@DV?$ChTraitsCRT@D@ATL@@@@@ATL@@@Z
	DD	2 DUP(00H)
	DD	2 DUP(00H)
	DD	00H
	DD	01H
xdata$x	ENDS
;	COMDAT xdata$x
xdata$x	SEGMENT
__unwindtable$?LoadChart@CChartMng@@QAEHV?$CStringT@DV?$StrTraitMFC_DLL@DV?$ChTraitsCRT@D@ATL@@@@@ATL@@@Z DD 0ffffffffH
	DD	FLAT:__unwindfunclet$?LoadChart@CChartMng@@QAEHV?$CStringT@DV?$StrTraitMFC_DLL@DV?$ChTraitsCRT@D@ATL@@@@@ATL@@@Z$0
	DD	00H
	DD	FLAT:__unwindfunclet$?LoadChart@CChartMng@@QAEHV?$CStringT@DV?$StrTraitMFC_DLL@DV?$ChTraitsCRT@D@ATL@@@@@ATL@@@Z$1
__ehfuncinfo$?LoadChart@CChartMng@@QAEHV?$CStringT@DV?$StrTraitMFC_DLL@DV?$ChTraitsCRT@D@ATL@@@@@ATL@@@Z DD 019930522H
	DD	02H
	DD	FLAT:__unwindtable$?LoadChart@CChartMng@@QAEHV?$CStringT@DV?$StrTraitMFC_DLL@DV?$ChTraitsCRT@D@ATL@@@@@ATL@@@Z
	DD	2 DUP(00H)
	DD	2 DUP(00H)
	DD	00H
	DD	01H
xdata$x	ENDS
;	COMDAT xdata$x
xdata$x	SEGMENT
__ehfuncinfo$?RequestChartData@CChartMng@@QAEHH@Z DD 019930522H
	DD	07H
	DD	FLAT:__unwindtable$?RequestChartData@CChartMng@@QAEHH@Z
	DD	2 DUP(00H)
	DD	2 DUP(00H)
	DD	00H
	DD	01H
__unwindtable$?RequestChartData@CChartMng@@QAEHH@Z DD 0ffffffffH
	DD	FLAT:__unwindfunclet$?RequestChartData@CChartMng@@QAEHH@Z$0
	DD	00H
	DD	FLAT:__unwindfunclet$?RequestChartData@CChartMng@@QAEHH@Z$1
	DD	01H
	DD	FLAT:__unwindfunclet$?RequestChartData@CChartMng@@QAEHH@Z$2
	DD	00H
	DD	FLAT:__unwindfunclet$?RequestChartData@CChartMng@@QAEHH@Z$2
	DD	0ffffffffH
	DD	FLAT:__unwindfunclet$?RequestChartData@CChartMng@@QAEHH@Z$2
	DD	04H
	DD	FLAT:__unwindfunclet$?RequestChartData@CChartMng@@QAEHH@Z$3
	DD	05H
	DD	FLAT:__unwindfunclet$?RequestChartData@CChartMng@@QAEHH@Z$4
xdata$x	ENDS
;	COMDAT xdata$x
xdata$x	SEGMENT
__ehfuncinfo$?LoadSaveChart@CChartMng@@AAEXPAVCPoint@@@Z DD 019930522H
	DD	0fH
	DD	FLAT:__unwindtable$?LoadSaveChart@CChartMng@@AAEXPAVCPoint@@@Z
	DD	2 DUP(00H)
	DD	2 DUP(00H)
	DD	00H
	DD	01H
__unwindtable$?LoadSaveChart@CChartMng@@AAEXPAVCPoint@@@Z DD 0ffffffffH
	DD	FLAT:__unwindfunclet$?LoadSaveChart@CChartMng@@AAEXPAVCPoint@@@Z$0
	DD	00H
	DD	FLAT:__unwindfunclet$?LoadSaveChart@CChartMng@@AAEXPAVCPoint@@@Z$1
	DD	01H
	DD	FLAT:__unwindfunclet$?LoadSaveChart@CChartMng@@AAEXPAVCPoint@@@Z$2
	DD	02H
	DD	FLAT:__unwindfunclet$?LoadSaveChart@CChartMng@@AAEXPAVCPoint@@@Z$3
	DD	03H
	DD	FLAT:__unwindfunclet$?LoadSaveChart@CChartMng@@AAEXPAVCPoint@@@Z$4
	DD	04H
	DD	FLAT:__unwindfunclet$?LoadSaveChart@CChartMng@@AAEXPAVCPoint@@@Z$5
	DD	05H
	DD	FLAT:__unwindfunclet$?LoadSaveChart@CChartMng@@AAEXPAVCPoint@@@Z$6
	DD	06H
	DD	FLAT:__unwindfunclet$?LoadSaveChart@CChartMng@@AAEXPAVCPoint@@@Z$15
	DD	07H
	DD	FLAT:__unwindfunclet$?LoadSaveChart@CChartMng@@AAEXPAVCPoint@@@Z$16
	DD	08H
	DD	FLAT:__unwindfunclet$?LoadSaveChart@CChartMng@@AAEXPAVCPoint@@@Z$17
	DD	06H
	DD	FLAT:__unwindfunclet$?LoadSaveChart@CChartMng@@AAEXPAVCPoint@@@Z$10
	DD	0aH
	DD	FLAT:__unwindfunclet$?LoadSaveChart@CChartMng@@AAEXPAVCPoint@@@Z$11
	DD	06H
	DD	00H
	DD	0bH
	DD	FLAT:__unwindfunclet$?LoadSaveChart@CChartMng@@AAEXPAVCPoint@@@Z$12
	DD	06H
	DD	FLAT:___std_terminate
xdata$x	ENDS
;	COMDAT xdata$x
xdata$x	SEGMENT
__ehfuncinfo$?LoadChart@CChartMng@@AAEXPAVCPoint@@@Z DD 019930522H
	DD	0eH
	DD	FLAT:__unwindtable$?LoadChart@CChartMng@@AAEXPAVCPoint@@@Z
	DD	2 DUP(00H)
	DD	2 DUP(00H)
	DD	00H
	DD	01H
__unwindtable$?LoadChart@CChartMng@@AAEXPAVCPoint@@@Z DD 0ffffffffH
	DD	FLAT:__unwindfunclet$?LoadChart@CChartMng@@AAEXPAVCPoint@@@Z$0
	DD	00H
	DD	FLAT:__unwindfunclet$?LoadChart@CChartMng@@AAEXPAVCPoint@@@Z$1
	DD	01H
	DD	FLAT:__unwindfunclet$?LoadChart@CChartMng@@AAEXPAVCPoint@@@Z$2
	DD	02H
	DD	FLAT:__unwindfunclet$?LoadChart@CChartMng@@AAEXPAVCPoint@@@Z$3
	DD	03H
	DD	FLAT:__unwindfunclet$?LoadChart@CChartMng@@AAEXPAVCPoint@@@Z$4
	DD	04H
	DD	FLAT:__unwindfunclet$?LoadChart@CChartMng@@AAEXPAVCPoint@@@Z$5
	DD	05H
	DD	FLAT:__unwindfunclet$?LoadChart@CChartMng@@AAEXPAVCPoint@@@Z$6
	DD	06H
	DD	FLAT:__unwindfunclet$?LoadChart@CChartMng@@AAEXPAVCPoint@@@Z$14
	DD	07H
	DD	FLAT:__unwindfunclet$?LoadChart@CChartMng@@AAEXPAVCPoint@@@Z$15
	DD	08H
	DD	FLAT:__unwindfunclet$?LoadChart@CChartMng@@AAEXPAVCPoint@@@Z$16
	DD	06H
	DD	FLAT:__unwindfunclet$?LoadChart@CChartMng@@AAEXPAVCPoint@@@Z$10
	DD	0aH
	DD	FLAT:__unwindfunclet$?LoadChart@CChartMng@@AAEXPAVCPoint@@@Z$11
	DD	06H
	DD	00H
	DD	06H
	DD	FLAT:___std_terminate
xdata$x	ENDS
;	COMDAT xdata$x
xdata$x	SEGMENT
__unwindtable$?ExtendChart@CChartMng@@AAEXH@Z DD 0ffffffffH
	DD	FLAT:__unwindfunclet$?ExtendChart@CChartMng@@AAEXH@Z$0
	DD	0ffffffffH
	DD	FLAT:__unwindfunclet$?ExtendChart@CChartMng@@AAEXH@Z$1
__ehfuncinfo$?ExtendChart@CChartMng@@AAEXH@Z DD 019930522H
	DD	02H
	DD	FLAT:__unwindtable$?ExtendChart@CChartMng@@AAEXH@Z
	DD	2 DUP(00H)
	DD	2 DUP(00H)
	DD	00H
	DD	01H
xdata$x	ENDS
;	COMDAT xdata$x
xdata$x	SEGMENT
__unwindtable$?Rearrange@CChartMng@@AAEHJH@Z DD 0ffffffffH
	DD	FLAT:__unwindfunclet$?Rearrange@CChartMng@@AAEHJH@Z$0
	DD	00H
	DD	FLAT:__unwindfunclet$?Rearrange@CChartMng@@AAEHJH@Z$1
__ehfuncinfo$?Rearrange@CChartMng@@AAEHJH@Z DD 019930522H
	DD	02H
	DD	FLAT:__unwindtable$?Rearrange@CChartMng@@AAEHJH@Z
	DD	2 DUP(00H)
	DD	2 DUP(00H)
	DD	00H
	DD	01H
xdata$x	ENDS
;	COMDAT xdata$x
xdata$x	SEGMENT
__unwindtable$?UpdateIndex@CChartMng@@AAEHXZ DD 0ffffffffH
	DD	FLAT:__unwindfunclet$?UpdateIndex@CChartMng@@AAEHXZ$0
	DD	0ffffffffH
	DD	FLAT:__unwindfunclet$?UpdateIndex@CChartMng@@AAEHXZ$1
__ehfuncinfo$?UpdateIndex@CChartMng@@AAEHXZ DD 019930522H
	DD	02H
	DD	FLAT:__unwindtable$?UpdateIndex@CChartMng@@AAEHXZ
	DD	2 DUP(00H)
	DD	2 DUP(00H)
	DD	00H
	DD	01H
xdata$x	ENDS
;	COMDAT xdata$x
xdata$x	SEGMENT
__unwindtable$?ShowInnerToolbar@CChartMng@@AAEHXZ DD 0ffffffffH
	DD	FLAT:__unwindfunclet$?ShowInnerToolbar@CChartMng@@AAEHXZ$0
__ehfuncinfo$?ShowInnerToolbar@CChartMng@@AAEHXZ DD 019930522H
	DD	01H
	DD	FLAT:__unwindtable$?ShowInnerToolbar@CChartMng@@AAEHXZ
	DD	2 DUP(00H)
	DD	2 DUP(00H)
	DD	00H
	DD	01H
xdata$x	ENDS
;	COMDAT xdata$x
xdata$x	SEGMENT
__unwindtable$?ShowScale@CChartMng@@AAEHXZ DD 0ffffffffH
	DD	FLAT:__unwindfunclet$?ShowScale@CChartMng@@AAEHXZ$0
__ehfuncinfo$?ShowScale@CChartMng@@AAEHXZ DD 019930522H
	DD	01H
	DD	FLAT:__unwindtable$?ShowScale@CChartMng@@AAEHXZ
	DD	2 DUP(00H)
	DD	2 DUP(00H)
	DD	00H
	DD	01H
xdata$x	ENDS
;	COMDAT xdata$x
xdata$x	SEGMENT
__unwindtable$?AddUpjongData@CChartMng@@AAEHV?$CStringT@DV?$StrTraitMFC_DLL@DV?$ChTraitsCRT@D@ATL@@@@@ATL@@@Z DD 0ffffffffH
	DD	FLAT:__unwindfunclet$?AddUpjongData@CChartMng@@AAEHV?$CStringT@DV?$StrTraitMFC_DLL@DV?$ChTraitsCRT@D@ATL@@@@@ATL@@@Z$0
__ehfuncinfo$?AddUpjongData@CChartMng@@AAEHV?$CStringT@DV?$StrTraitMFC_DLL@DV?$ChTraitsCRT@D@ATL@@@@@ATL@@@Z DD 019930522H
	DD	01H
	DD	FLAT:__unwindtable$?AddUpjongData@CChartMng@@AAEHV?$CStringT@DV?$StrTraitMFC_DLL@DV?$ChTraitsCRT@D@ATL@@@@@ATL@@@Z
	DD	2 DUP(00H)
	DD	2 DUP(00H)
	DD	00H
	DD	01H
xdata$x	ENDS
;	COMDAT xdata$x
xdata$x	SEGMENT
__unwindtable$?InputCodeFromInputBar@CChartMng@@AAEHPAVCCodeDataFromInputBar@@H@Z DD 0ffffffffH
	DD	FLAT:__unwindfunclet$?InputCodeFromInputBar@CChartMng@@AAEHPAVCCodeDataFromInputBar@@H@Z$1
	DD	00H
	DD	FLAT:__unwindfunclet$?InputCodeFromInputBar@CChartMng@@AAEHPAVCCodeDataFromInputBar@@H@Z$2
	DD	01H
	DD	FLAT:__unwindfunclet$?InputCodeFromInputBar@CChartMng@@AAEHPAVCCodeDataFromInputBar@@H@Z$8
__ehfuncinfo$?InputCodeFromInputBar@CChartMng@@AAEHPAVCCodeDataFromInputBar@@H@Z DD 019930522H
	DD	03H
	DD	FLAT:__unwindtable$?InputCodeFromInputBar@CChartMng@@AAEHPAVCCodeDataFromInputBar@@H@Z
	DD	2 DUP(00H)
	DD	2 DUP(00H)
	DD	00H
	DD	01H
xdata$x	ENDS
;	COMDAT xdata$x
xdata$x	SEGMENT
__unwindtable$?GetJongmokCodes@CChartMng@@AAEXPAVCStringList@@PAV?$CList@U__STHIGHLIGHTCHARTINFO@@U1@@@@Z DD 0ffffffffH
	DD	FLAT:__unwindfunclet$?GetJongmokCodes@CChartMng@@AAEXPAVCStringList@@PAV?$CList@U__STHIGHLIGHTCHARTINFO@@U1@@@@Z$0
	DD	00H
	DD	FLAT:__unwindfunclet$?GetJongmokCodes@CChartMng@@AAEXPAVCStringList@@PAV?$CList@U__STHIGHLIGHTCHARTINFO@@U1@@@@Z$1
	DD	01H
	DD	FLAT:__unwindfunclet$?GetJongmokCodes@CChartMng@@AAEXPAVCStringList@@PAV?$CList@U__STHIGHLIGHTCHARTINFO@@U1@@@@Z$2
	DD	01H
	DD	FLAT:__unwindfunclet$?GetJongmokCodes@CChartMng@@AAEXPAVCStringList@@PAV?$CList@U__STHIGHLIGHTCHARTINFO@@U1@@@@Z$3
__ehfuncinfo$?GetJongmokCodes@CChartMng@@AAEXPAVCStringList@@PAV?$CList@U__STHIGHLIGHTCHARTINFO@@U1@@@@Z DD 019930522H
	DD	04H
	DD	FLAT:__unwindtable$?GetJongmokCodes@CChartMng@@AAEXPAVCStringList@@PAV?$CList@U__STHIGHLIGHTCHARTINFO@@U1@@@@Z
	DD	2 DUP(00H)
	DD	2 DUP(00H)
	DD	00H
	DD	01H
xdata$x	ENDS
;	COMDAT xdata$x
xdata$x	SEGMENT
__unwindtable$?UnhighlightJCode@CChartMng@@QAEXPAVCChartItem@@@Z DD 0ffffffffH
	DD	FLAT:__unwindfunclet$?UnhighlightJCode@CChartMng@@QAEXPAVCChartItem@@@Z$0
	DD	00H
	DD	FLAT:__unwindfunclet$?UnhighlightJCode@CChartMng@@QAEXPAVCChartItem@@@Z$1
__ehfuncinfo$?UnhighlightJCode@CChartMng@@QAEXPAVCChartItem@@@Z DD 019930522H
	DD	02H
	DD	FLAT:__unwindtable$?UnhighlightJCode@CChartMng@@QAEXPAVCChartItem@@@Z
	DD	2 DUP(00H)
	DD	2 DUP(00H)
	DD	00H
	DD	01H
xdata$x	ENDS
;	COMDAT xdata$x
xdata$x	SEGMENT
__unwindtable$?OnChartMngCodeUnAdvise@CChartMng@@QAEXPAVCChartItem@@H@Z DD 0ffffffffH
	DD	FLAT:__unwindfunclet$?OnChartMngCodeUnAdvise@CChartMng@@QAEXPAVCChartItem@@H@Z$0
	DD	00H
	DD	FLAT:__unwindfunclet$?OnChartMngCodeUnAdvise@CChartMng@@QAEXPAVCChartItem@@H@Z$1
	DD	0ffffffffH
	DD	FLAT:__unwindfunclet$?OnChartMngCodeUnAdvise@CChartMng@@QAEXPAVCChartItem@@H@Z$2
	DD	02H
	DD	FLAT:__unwindfunclet$?OnChartMngCodeUnAdvise@CChartMng@@QAEXPAVCChartItem@@H@Z$3
__ehfuncinfo$?OnChartMngCodeUnAdvise@CChartMng@@QAEXPAVCChartItem@@H@Z DD 019930522H
	DD	04H
	DD	FLAT:__unwindtable$?OnChartMngCodeUnAdvise@CChartMng@@QAEXPAVCChartItem@@H@Z
	DD	2 DUP(00H)
	DD	2 DUP(00H)
	DD	00H
	DD	01H
xdata$x	ENDS
;	COMDAT xdata$x
xdata$x	SEGMENT
__unwindtable$?OnChartMngCodeAdvise@CChartMng@@QAEXPAVCChartItem@@H@Z DD 0ffffffffH
	DD	FLAT:__unwindfunclet$?OnChartMngCodeAdvise@CChartMng@@QAEXPAVCChartItem@@H@Z$0
__ehfuncinfo$?OnChartMngCodeAdvise@CChartMng@@QAEXPAVCChartItem@@H@Z DD 019930522H
	DD	01H
	DD	FLAT:__unwindtable$?OnChartMngCodeAdvise@CChartMng@@QAEXPAVCChartItem@@H@Z
	DD	2 DUP(00H)
	DD	2 DUP(00H)
	DD	00H
	DD	01H
xdata$x	ENDS
;	COMDAT xdata$x
xdata$x	SEGMENT
__ehfuncinfo$?SetMultiCodes@CChartMng@@QAEXV?$CStringT@DV?$StrTraitMFC_DLL@DV?$ChTraitsCRT@D@ATL@@@@@ATL@@@Z DD 019930522H
	DD	07H
	DD	FLAT:__unwindtable$?SetMultiCodes@CChartMng@@QAEXV?$CStringT@DV?$StrTraitMFC_DLL@DV?$ChTraitsCRT@D@ATL@@@@@ATL@@@Z
	DD	2 DUP(00H)
	DD	2 DUP(00H)
	DD	00H
	DD	01H
__unwindtable$?SetMultiCodes@CChartMng@@QAEXV?$CStringT@DV?$StrTraitMFC_DLL@DV?$ChTraitsCRT@D@ATL@@@@@ATL@@@Z DD 0ffffffffH
	DD	FLAT:__unwindfunclet$?SetMultiCodes@CChartMng@@QAEXV?$CStringT@DV?$StrTraitMFC_DLL@DV?$ChTraitsCRT@D@ATL@@@@@ATL@@@Z$0
	DD	00H
	DD	FLAT:__unwindfunclet$?SetMultiCodes@CChartMng@@QAEXV?$CStringT@DV?$StrTraitMFC_DLL@DV?$ChTraitsCRT@D@ATL@@@@@ATL@@@Z$1
	DD	01H
	DD	FLAT:__unwindfunclet$?SetMultiCodes@CChartMng@@QAEXV?$CStringT@DV?$StrTraitMFC_DLL@DV?$ChTraitsCRT@D@ATL@@@@@ATL@@@Z$2
	DD	02H
	DD	FLAT:__unwindfunclet$?SetMultiCodes@CChartMng@@QAEXV?$CStringT@DV?$StrTraitMFC_DLL@DV?$ChTraitsCRT@D@ATL@@@@@ATL@@@Z$3
	DD	03H
	DD	FLAT:__unwindfunclet$?SetMultiCodes@CChartMng@@QAEXV?$CStringT@DV?$StrTraitMFC_DLL@DV?$ChTraitsCRT@D@ATL@@@@@ATL@@@Z$4
	DD	03H
	DD	FLAT:__unwindfunclet$?SetMultiCodes@CChartMng@@QAEXV?$CStringT@DV?$StrTraitMFC_DLL@DV?$ChTraitsCRT@D@ATL@@@@@ATL@@@Z$5
	DD	03H
	DD	FLAT:__unwindfunclet$?SetMultiCodes@CChartMng@@QAEXV?$CStringT@DV?$StrTraitMFC_DLL@DV?$ChTraitsCRT@D@ATL@@@@@ATL@@@Z$6
xdata$x	ENDS
;	COMDAT xdata$x
xdata$x	SEGMENT
__unwindtable$?IsAdvisingCodeOf@CChartMng@@QAEHPBD@Z DD 0ffffffffH
	DD	FLAT:__unwindfunclet$?IsAdvisingCodeOf@CChartMng@@QAEHPBD@Z$0
__ehfuncinfo$?IsAdvisingCodeOf@CChartMng@@QAEHPBD@Z DD 019930522H
	DD	01H
	DD	FLAT:__unwindtable$?IsAdvisingCodeOf@CChartMng@@QAEHPBD@Z
	DD	2 DUP(00H)
	DD	2 DUP(00H)
	DD	00H
	DD	01H
xdata$x	ENDS
;	COMDAT xdata$x
xdata$x	SEGMENT
__unwindtable$?MoveCharts@CChartMng@@QAEXXZ DD 0ffffffffH
	DD	FLAT:__unwindfunclet$?MoveCharts@CChartMng@@QAEXXZ$0
__ehfuncinfo$?MoveCharts@CChartMng@@QAEXXZ DD 019930522H
	DD	01H
	DD	FLAT:__unwindtable$?MoveCharts@CChartMng@@QAEXXZ
	DD	2 DUP(00H)
	DD	2 DUP(00H)
	DD	00H
	DD	01H
xdata$x	ENDS
;	COMDAT xdata$x
xdata$x	SEGMENT
__unwindtable$?SetRealJPriceData@CChartMng@@QAEXPAX@Z DD 0ffffffffH
	DD	FLAT:__unwindfunclet$?SetRealJPriceData@CChartMng@@QAEXPAX@Z$0
__ehfuncinfo$?SetRealJPriceData@CChartMng@@QAEXPAX@Z DD 019930522H
	DD	01H
	DD	FLAT:__unwindtable$?SetRealJPriceData@CChartMng@@QAEXPAX@Z
	DD	2 DUP(00H)
	DD	2 DUP(00H)
	DD	00H
	DD	01H
xdata$x	ENDS
;	COMDAT xdata$x
xdata$x	SEGMENT
__ehfuncinfo$??0CChartMng@@QAE@XZ DD 019930522H
	DD	0fH
	DD	FLAT:__unwindtable$??0CChartMng@@QAE@XZ
	DD	2 DUP(00H)
	DD	2 DUP(00H)
	DD	00H
	DD	01H
__unwindtable$??0CChartMng@@QAE@XZ DD 0ffffffffH
	DD	FLAT:__unwindfunclet$??0CChartMng@@QAE@XZ$0
	DD	00H
	DD	FLAT:__unwindfunclet$??0CChartMng@@QAE@XZ$1
	DD	01H
	DD	FLAT:__unwindfunclet$??0CChartMng@@QAE@XZ$2
	DD	02H
	DD	FLAT:__unwindfunclet$??0CChartMng@@QAE@XZ$3
	DD	03H
	DD	FLAT:__unwindfunclet$??0CChartMng@@QAE@XZ$4
	DD	04H
	DD	FLAT:__unwindfunclet$??0CChartMng@@QAE@XZ$5
	DD	05H
	DD	FLAT:__unwindfunclet$??0CChartMng@@QAE@XZ$6
	DD	06H
	DD	FLAT:__unwindfunclet$??0CChartMng@@QAE@XZ$7
	DD	07H
	DD	FLAT:__unwindfunclet$??0CChartMng@@QAE@XZ$8
	DD	08H
	DD	FLAT:__unwindfunclet$??0CChartMng@@QAE@XZ$9
	DD	09H
	DD	FLAT:__unwindfunclet$??0CChartMng@@QAE@XZ$10
	DD	0aH
	DD	FLAT:__unwindfunclet$??0CChartMng@@QAE@XZ$11
	DD	0bH
	DD	FLAT:__unwindfunclet$??0CChartMng@@QAE@XZ$12
	DD	0cH
	DD	FLAT:__unwindfunclet$??0CChartMng@@QAE@XZ$13
	DD	0dH
	DD	FLAT:__unwindfunclet$??0CChartMng@@QAE@XZ$14
xdata$x	ENDS
;	COMDAT xdata$x
xdata$x	SEGMENT
__unwindtable$?GetChartAllCode@CChartMng@@QAEXAAVCStringArray@@@Z DD 0ffffffffH
	DD	FLAT:__unwindfunclet$?GetChartAllCode@CChartMng@@QAEXAAVCStringArray@@@Z$0
	DD	00H
	DD	FLAT:__unwindfunclet$?GetChartAllCode@CChartMng@@QAEXAAVCStringArray@@@Z$1
	DD	01H
	DD	FLAT:__unwindfunclet$?GetChartAllCode@CChartMng@@QAEXAAVCStringArray@@@Z$2
	DD	02H
	DD	FLAT:__unwindfunclet$?GetChartAllCode@CChartMng@@QAEXAAVCStringArray@@@Z$3
__ehfuncinfo$?GetChartAllCode@CChartMng@@QAEXAAVCStringArray@@@Z DD 019930522H
	DD	04H
	DD	FLAT:__unwindtable$?GetChartAllCode@CChartMng@@QAEXAAVCStringArray@@@Z
	DD	2 DUP(00H)
	DD	2 DUP(00H)
	DD	00H
	DD	01H
xdata$x	ENDS
;	COMDAT xdata$x
xdata$x	SEGMENT
__unwindtable$?OnAllCodeUnAdvise@CChartMng@@QAEXXZ DD 0ffffffffH
	DD	FLAT:__unwindfunclet$?OnAllCodeUnAdvise@CChartMng@@QAEXXZ$1
__ehfuncinfo$?OnAllCodeUnAdvise@CChartMng@@QAEXXZ DD 019930522H
	DD	01H
	DD	FLAT:__unwindtable$?OnAllCodeUnAdvise@CChartMng@@QAEXXZ
	DD	2 DUP(00H)
	DD	2 DUP(00H)
	DD	00H
	DD	01H
xdata$x	ENDS
;	COMDAT xdata$x
xdata$x	SEGMENT
__ehfuncinfo$?ApplySyncEnv_OnlyOne@CChartMng@@QAEXXZ DD 019930522H
	DD	06H
	DD	FLAT:__unwindtable$?ApplySyncEnv_OnlyOne@CChartMng@@QAEXXZ
	DD	2 DUP(00H)
	DD	2 DUP(00H)
	DD	00H
	DD	01H
__unwindtable$?ApplySyncEnv_OnlyOne@CChartMng@@QAEXXZ DD 0ffffffffH
	DD	FLAT:__unwindfunclet$?ApplySyncEnv_OnlyOne@CChartMng@@QAEXXZ$1
	DD	00H
	DD	FLAT:__unwindfunclet$?ApplySyncEnv_OnlyOne@CChartMng@@QAEXXZ$2
	DD	01H
	DD	FLAT:__unwindfunclet$?ApplySyncEnv_OnlyOne@CChartMng@@QAEXXZ$3
	DD	01H
	DD	FLAT:__unwindfunclet$?ApplySyncEnv_OnlyOne@CChartMng@@QAEXXZ$4
	DD	01H
	DD	FLAT:__unwindfunclet$?ApplySyncEnv_OnlyOne@CChartMng@@QAEXXZ$5
	DD	04H
	DD	FLAT:__unwindfunclet$?ApplySyncEnv_OnlyOne@CChartMng@@QAEXXZ$6
xdata$x	ENDS
;	COMDAT xdata$x
xdata$x	SEGMENT
__unwindtable$?SetChartLineType@CChartItem@@QAEXV?$CStringT@DV?$StrTraitMFC_DLL@DV?$ChTraitsCRT@D@ATL@@@@@ATL@@@Z DD 0ffffffffH
	DD	FLAT:__unwindfunclet$?SetChartLineType@CChartItem@@QAEXV?$CStringT@DV?$StrTraitMFC_DLL@DV?$ChTraitsCRT@D@ATL@@@@@ATL@@@Z$0
__ehfuncinfo$?SetChartLineType@CChartItem@@QAEXV?$CStringT@DV?$StrTraitMFC_DLL@DV?$ChTraitsCRT@D@ATL@@@@@ATL@@@Z DD 019930522H
	DD	01H
	DD	FLAT:__unwindtable$?SetChartLineType@CChartItem@@QAEXV?$CStringT@DV?$StrTraitMFC_DLL@DV?$ChTraitsCRT@D@ATL@@@@@ATL@@@Z
	DD	2 DUP(00H)
	DD	2 DUP(00H)
	DD	00H
	DD	01H
xdata$x	ENDS
;	COMDAT xdata$x
xdata$x	SEGMENT
__unwindtable$??_GCMenu@@UAEPAXI@Z DD 0ffffffffH
	DD	FLAT:___std_terminate
__ehfuncinfo$??_GCMenu@@UAEPAXI@Z DD 019930522H
	DD	01H
	DD	FLAT:__unwindtable$??_GCMenu@@UAEPAXI@Z
	DD	2 DUP(00H)
	DD	2 DUP(00H)
	DD	00H
	DD	05H
xdata$x	ENDS
;	COMDAT xdata$x
xdata$x	SEGMENT
__ehfuncinfo$??1CMenu@@UAE@XZ DD 019930522H
	DD	00H
	DD	00H
	DD	2 DUP(00H)
	DD	2 DUP(00H)
	DD	00H
	DD	05H
xdata$x	ENDS
;	COMDAT xdata$x
xdata$x	SEGMENT
__catchsym$??1CGdiObject@@UAE@XZ$3 DD 00H
	DD	FLAT:??_R0PAVCException@@@8
	DD	0fffffde4H
	DD	FLAT:__catch$??1CGdiObject@@UAE@XZ$0
__tryblocktable$??1CGdiObject@@UAE@XZ DD 00H
	DD	00H
	DD	02H
	DD	01H
	DD	FLAT:__catchsym$??1CGdiObject@@UAE@XZ$3
__unwindtable$??1CGdiObject@@UAE@XZ DD 0ffffffffH
	DD	00H
	DD	0ffffffffH
	DD	00H
	DD	01H
	DD	FLAT:__unwindfunclet$??1CGdiObject@@UAE@XZ$2
__ehfuncinfo$??1CGdiObject@@UAE@XZ DD 019930522H
	DD	03H
	DD	FLAT:__unwindtable$??1CGdiObject@@UAE@XZ
	DD	01H
	DD	FLAT:__tryblocktable$??1CGdiObject@@UAE@XZ
	DD	2 DUP(00H)
	DD	00H
	DD	05H
xdata$x	ENDS
;	COMDAT xdata$x
xdata$x	SEGMENT
__unwindtable$??HATL@@YA?AV?$CStringT@DV?$StrTraitMFC_DLL@DV?$ChTraitsCRT@D@ATL@@@@@0@ABV10@PBD@Z DD 0ffffffffH
	DD	FLAT:__unwindfunclet$??HATL@@YA?AV?$CStringT@DV?$StrTraitMFC_DLL@DV?$ChTraitsCRT@D@ATL@@@@@0@ABV10@PBD@Z$0
__ehfuncinfo$??HATL@@YA?AV?$CStringT@DV?$StrTraitMFC_DLL@DV?$ChTraitsCRT@D@ATL@@@@@0@ABV10@PBD@Z DD 019930522H
	DD	01H
	DD	FLAT:__unwindtable$??HATL@@YA?AV?$CStringT@DV?$StrTraitMFC_DLL@DV?$ChTraitsCRT@D@ATL@@@@@0@ABV10@PBD@Z
	DD	2 DUP(00H)
	DD	2 DUP(00H)
	DD	00H
	DD	01H
xdata$x	ENDS
;	COMDAT xdata$x
xdata$x	SEGMENT
__unwindtable$??HATL@@YA?AV?$CStringT@DV?$StrTraitMFC_DLL@DV?$ChTraitsCRT@D@ATL@@@@@0@ABV10@0@Z DD 0ffffffffH
	DD	FLAT:__unwindfunclet$??HATL@@YA?AV?$CStringT@DV?$StrTraitMFC_DLL@DV?$ChTraitsCRT@D@ATL@@@@@0@ABV10@0@Z$0
__ehfuncinfo$??HATL@@YA?AV?$CStringT@DV?$StrTraitMFC_DLL@DV?$ChTraitsCRT@D@ATL@@@@@0@ABV10@0@Z DD 019930522H
	DD	01H
	DD	FLAT:__unwindtable$??HATL@@YA?AV?$CStringT@DV?$StrTraitMFC_DLL@DV?$ChTraitsCRT@D@ATL@@@@@0@ABV10@0@Z
	DD	2 DUP(00H)
	DD	2 DUP(00H)
	DD	00H
	DD	01H
xdata$x	ENDS
CRT$XCU	SEGMENT
?RMSG_CHARTMAIN$initializer$@@3P6AXXZA DD FLAT:??__ERMSG_CHARTMAIN@@YAXXZ ; RMSG_CHARTMAIN$initializer$
CRT$XCU	ENDS
CRT$XCU	SEGMENT
?RMS_ANALYSIS_FUNC$initializer$@@3P6AXXZA DD FLAT:??__ERMS_ANALYSIS_FUNC@@YAXXZ ; RMS_ANALYSIS_FUNC$initializer$
CRT$XCU	ENDS
CRT$XCU	SEGMENT
?RMSG_GET_USERID$initializer$@@3P6AXXZA DD FLAT:??__ERMSG_GET_USERID@@YAXXZ ; RMSG_GET_USERID$initializer$
CRT$XCU	ENDS
CRT$XCU	SEGMENT
?RMSG_KSDLLINFO$initializer$@@3P6AXXZA DD FLAT:??__ERMSG_KSDLLINFO@@YAXXZ ; RMSG_KSDLLINFO$initializer$
CRT$XCU	ENDS
CRT$XCU	SEGMENT
?RMSG_GETINFO$initializer$@@3P6AXXZA DD FLAT:??__ERMSG_GETINFO@@YAXXZ ; RMSG_GETINFO$initializer$
CRT$XCU	ENDS
CRT$XCU	SEGMENT
?RMSG_CHANGE_SKINCOLOR$initializer$@@3P6AXXZA DD FLAT:??__ERMSG_CHANGE_SKINCOLOR@@YAXXZ ; RMSG_CHANGE_SKINCOLOR$initializer$
CRT$XCU	ENDS
CRT$XCU	SEGMENT
?RMSG_GET_SKINCOLOR$initializer$@@3P6AXXZA DD FLAT:??__ERMSG_GET_SKINCOLOR@@YAXXZ ; RMSG_GET_SKINCOLOR$initializer$
CRT$XCU	ENDS
CRT$XCU	SEGMENT
?RMSG_CHANGE_CROSSLINE$initializer$@@3P6AXXZA DD FLAT:??__ERMSG_CHANGE_CROSSLINE@@YAXXZ ; RMSG_CHANGE_CROSSLINE$initializer$
CRT$XCU	ENDS
CRT$XCU	SEGMENT
?RMSG_REPLAY_REAL$initializer$@@3P6AXXZA DD FLAT:??__ERMSG_REPLAY_REAL@@YAXXZ ; RMSG_REPLAY_REAL$initializer$
CRT$XCU	ENDS
CRT$XCU	SEGMENT
?RMSG_REPLAY_FAIL$initializer$@@3P6AXXZA DD FLAT:??__ERMSG_REPLAY_FAIL@@YAXXZ ; RMSG_REPLAY_FAIL$initializer$
CRT$XCU	ENDS
CRT$XCU	SEGMENT
?RMSG_REPLAY_CHANGE_DATE$initializer$@@3P6AXXZA DD FLAT:??__ERMSG_REPLAY_CHANGE_DATE@@YAXXZ ; RMSG_REPLAY_CHANGE_DATE$initializer$
CRT$XCU	ENDS
CRT$XCU	SEGMENT
?RMSG_REPLAY_END$initializer$@@3P6AXXZA DD FLAT:??__ERMSG_REPLAY_END@@YAXXZ ; RMSG_REPLAY_END$initializer$
CRT$XCU	ENDS
CRT$XCU	SEGMENT
?RMSG_REPLAY_INC_SEC$initializer$@@3P6AXXZA DD FLAT:??__ERMSG_REPLAY_INC_SEC@@YAXXZ ; RMSG_REPLAY_INC_SEC$initializer$
CRT$XCU	ENDS
CRT$XCU	SEGMENT
?RMSG_REPLAY_TOTAL_SEC$initializer$@@3P6AXXZA DD FLAT:??__ERMSG_REPLAY_TOTAL_SEC@@YAXXZ ; RMSG_REPLAY_TOTAL_SEC$initializer$
CRT$XCU	ENDS
CRT$XCU	SEGMENT
?RMSG_SELCHARTCODE$initializer$@@3P6AXXZA DD FLAT:??__ERMSG_SELCHARTCODE@@YAXXZ ; RMSG_SELCHARTCODE$initializer$
CRT$XCU	ENDS
CRT$XCU	SEGMENT
?RMSG_DRAGSTART$initializer$@@3P6AXXZA DD FLAT:??__ERMSG_DRAGSTART@@YAXXZ ; RMSG_DRAGSTART$initializer$
CRT$XCU	ENDS
CRT$XCU	SEGMENT
?RMSG_DRAGEND$initializer$@@3P6AXXZA DD FLAT:??__ERMSG_DRAGEND@@YAXXZ ; RMSG_DRAGEND$initializer$
CRT$XCU	ENDS
CRT$XCU	SEGMENT
?RMSG_FROMCODELIST$initializer$@@3P6AXXZA DD FLAT:??__ERMSG_FROMCODELIST@@YAXXZ ; RMSG_FROMCODELIST$initializer$
CRT$XCU	ENDS
CRT$XCU	SEGMENT
?RMSG_SETSHAREDATA$initializer$@@3P6AXXZA DD FLAT:??__ERMSG_SETSHAREDATA@@YAXXZ ; RMSG_SETSHAREDATA$initializer$
CRT$XCU	ENDS
CRT$XCU	SEGMENT
?RMSG_OPENMAP2$initializer$@@3P6AXXZA DD FLAT:??__ERMSG_OPENMAP2@@YAXXZ ; RMSG_OPENMAP2$initializer$
CRT$XCU	ENDS
CRT$XCU	SEGMENT
?RMSG_FROMHOGAJUMUN_DESTROY$initializer$@@3P6AXXZA DD FLAT:??__ERMSG_FROMHOGAJUMUN_DESTROY@@YAXXZ ; RMSG_FROMHOGAJUMUN_DESTROY$initializer$
CRT$XCU	ENDS
CRT$XCU	SEGMENT
?RMSG_HOGACHANGEDATA_CODE$initializer$@@3P6AXXZA DD FLAT:??__ERMSG_HOGACHANGEDATA_CODE@@YAXXZ ; RMSG_HOGACHANGEDATA_CODE$initializer$
CRT$XCU	ENDS
CRT$XCU	SEGMENT
?RMSG_HOGACHANGEDATA_ACCT$initializer$@@3P6AXXZA DD FLAT:??__ERMSG_HOGACHANGEDATA_ACCT@@YAXXZ ; RMSG_HOGACHANGEDATA_ACCT$initializer$
CRT$XCU	ENDS
CRT$XCU	SEGMENT
?RMSG_SHARED_PIN$initializer$@@3P6AXXZA DD FLAT:??__ERMSG_SHARED_PIN@@YAXXZ ; RMSG_SHARED_PIN$initializer$
CRT$XCU	ENDS
CRT$XCU	SEGMENT
?RMSG_RESIZEFROMGWAN$initializer$@@3P6AXXZA DD FLAT:??__ERMSG_RESIZEFROMGWAN@@YAXXZ ; RMSG_RESIZEFROMGWAN$initializer$
CRT$XCU	ENDS
CRT$XCU	SEGMENT
?RMSG_MESSAGESHOW$initializer$@@3P6AXXZA DD FLAT:??__ERMSG_MESSAGESHOW@@YAXXZ ; RMSG_MESSAGESHOW$initializer$
CRT$XCU	ENDS
CRT$XCU	SEGMENT
?RMSG_GETSKINVALUE$initializer$@@3P6AXXZA DD FLAT:??__ERMSG_GETSKINVALUE@@YAXXZ ; RMSG_GETSKINVALUE$initializer$
CRT$XCU	ENDS
CRT$XCU	SEGMENT
?RMSG_OPENMAPWITHDATA$initializer$@@3P6AXXZA DD FLAT:??__ERMSG_OPENMAPWITHDATA@@YAXXZ ; RMSG_OPENMAPWITHDATA$initializer$
CRT$XCU	ENDS
CRT$XCU	SEGMENT
?RMSG_SAVE_FOCUS_CONTROL$initializer$@@3P6AXXZA DD FLAT:??__ERMSG_SAVE_FOCUS_CONTROL@@YAXXZ ; RMSG_SAVE_FOCUS_CONTROL$initializer$
CRT$XCU	ENDS
CRT$XCU	SEGMENT
?RMSG_CHARTMSG_EVENTMESSAGE$initializer$@@3P6AXXZA DD FLAT:??__ERMSG_CHARTMSG_EVENTMESSAGE@@YAXXZ ; RMSG_CHARTMSG_EVENTMESSAGE$initializer$
CRT$XCU	ENDS
CRT$XCU	SEGMENT
?RMSG_GETOPENEDOWNER$initializer$@@3P6AXXZA DD FLAT:??__ERMSG_GETOPENEDOWNER@@YAXXZ ; RMSG_GETOPENEDOWNER$initializer$
CRT$XCU	ENDS
CRT$XCU	SEGMENT
?RMSG_CREATEOPENSHAREDATA$initializer$@@3P6AXXZA DD FLAT:??__ERMSG_CREATEOPENSHAREDATA@@YAXXZ ; RMSG_CREATEOPENSHAREDATA$initializer$
CRT$XCU	ENDS
CRT$XCU	SEGMENT
?RMSG_STDATAMANAGER_RESULTDATA$initializer$@@3P6AXXZA DD FLAT:??__ERMSG_STDATAMANAGER_RESULTDATA@@YAXXZ ; RMSG_STDATAMANAGER_RESULTDATA$initializer$
CRT$XCU	ENDS
CRT$XCU	SEGMENT
??m_strStatic_ShareCode$initializer$@CChartMng@@2P6AXXZA@@3P6AXXZA DD FLAT:??__E?m_strStatic_ShareCode@CChartMng@@2V?$CStringT@DV?$StrTraitMFC_DLL@DV?$ChTraitsCRT@D@ATL@@@@@ATL@@A@@YAXXZ ; ??m_strStatic_ShareCode$initializer$@CChartMng@@2P6AXXZA@@3P6AXXZA
CRT$XCU	ENDS
CRT$XCU	SEGMENT
??m_strCodeForMulti$initializer$@CChartMng@@2P6AXXZA@@3P6AXXZA DD FLAT:??__E?m_strCodeForMulti@CChartMng@@2V?$CStringT@DV?$StrTraitMFC_DLL@DV?$ChTraitsCRT@D@ATL@@@@@ATL@@A@@YAXXZ ; ??m_strCodeForMulti$initializer$@CChartMng@@2P6AXXZA@@3P6AXXZA
CRT$XCU	ENDS
; Function compile flags: /Ogtp
; File C:\Program Files (x86)\Microsoft Visual Studio\2019\Community\VC\Tools\MSVC\14.29.30133\atlmfc\include\afxtempl.h
;	COMDAT ?NewNode@?$CList@U__STHIGHLIGHTCHARTINFO@@U1@@@IAEPAUCNode@1@PAU21@0@Z
_TEXT	SEGMENT
_pPrev$ = 8						; size = 4
_pNext$ = 12						; size = 4
?NewNode@?$CList@U__STHIGHLIGHTCHARTINFO@@U1@@@IAEPAUCNode@1@PAU21@0@Z PROC ; CList<__STHIGHLIGHTCHARTINFO,__STHIGHLIGHTCHARTINFO>::NewNode, COMDAT
; _this$ = ecx

; 901  : {

  00000	55		 push	 ebp
  00001	8b ec		 mov	 ebp, esp
  00003	56		 push	 esi
  00004	8b f1		 mov	 esi, ecx
  00006	57		 push	 edi

; 902  : 	if (m_pNodeFree == NULL)

  00007	83 7e 10 00	 cmp	 DWORD PTR [esi+16], 0
  0000b	75 33		 jne	 SHORT $LN7@NewNode

; 903  : 	{
; 904  : 		// add another block
; 905  : 		CPlex* pNewBlock = CPlex::Create(m_pBlocks, m_nBlockSize,

  0000d	6a 10		 push	 16			; 00000010H
  0000f	ff 76 18	 push	 DWORD PTR [esi+24]
  00012	8d 46 14	 lea	 eax, DWORD PTR [esi+20]
  00015	50		 push	 eax
  00016	e8 00 00 00 00	 call	 ?Create@CPlex@@SGPAU1@AAPAU1@II@Z ; CPlex::Create

; 906  : 				 sizeof(CNode));
; 907  : 
; 908  : 		// chain them into free list
; 909  : 		CNode* pNode = (CNode*) pNewBlock->data();
; 910  : 		// free in reverse order to make it easier to debug
; 911  : 		pNode += m_nBlockSize - 1;

  0001b	8b 56 18	 mov	 edx, DWORD PTR [esi+24]
  0001e	83 c0 08	 add	 eax, 8
  00021	8b ca		 mov	 ecx, edx
  00023	c1 e1 04	 shl	 ecx, 4
  00026	83 c1 f0	 add	 ecx, -16		; fffffff0H
  00029	03 c1		 add	 eax, ecx

; 912  : 		for (INT_PTR i = m_nBlockSize-1; i >= 0; i--, pNode--)

  0002b	83 c2 ff	 add	 edx, -1
  0002e	78 10		 js	 SHORT $LN7@NewNode
$LL4@NewNode:

; 913  : 		{
; 914  : 			pNode->pNext = m_pNodeFree;

  00030	8b 4e 10	 mov	 ecx, DWORD PTR [esi+16]
  00033	89 08		 mov	 DWORD PTR [eax], ecx

; 915  : 			m_pNodeFree = pNode;

  00035	89 46 10	 mov	 DWORD PTR [esi+16], eax
  00038	83 e8 10	 sub	 eax, 16			; 00000010H
  0003b	83 ea 01	 sub	 edx, 1
  0003e	79 f0		 jns	 SHORT $LL4@NewNode
$LN7@NewNode:

; 916  : 		}
; 917  : 	}
; 918  : 	ENSURE(m_pNodeFree != NULL);  // we must have something

  00040	8b 7e 10	 mov	 edi, DWORD PTR [esi+16]
  00043	85 ff		 test	 edi, edi
  00045	74 24		 je	 SHORT $LN20@NewNode

; 919  : 
; 920  : 	CList::CNode* pNode = m_pNodeFree;
; 921  : 	m_pNodeFree = m_pNodeFree->pNext;

  00047	8b 07		 mov	 eax, DWORD PTR [edi]

; 922  : 	pNode->pPrev = pPrev;

  00049	8b 4d 08	 mov	 ecx, DWORD PTR _pPrev$[ebp]
  0004c	89 46 10	 mov	 DWORD PTR [esi+16], eax
  0004f	89 4f 04	 mov	 DWORD PTR [edi+4], ecx

; 923  : 	pNode->pNext = pNext;

  00052	8b 4d 0c	 mov	 ecx, DWORD PTR _pNext$[ebp]
  00055	89 0f		 mov	 DWORD PTR [edi], ecx

; 924  : 	m_nCount++;
; 925  : 	ASSERT(m_nCount > 0);  // make sure we don't overflow
; 926  : 
; 927  : #pragma push_macro("new")
; 928  : #undef new
; 929  : 	::new( (void*)( &pNode->data ) ) TYPE;

  00057	8d 4f 08	 lea	 ecx, DWORD PTR [edi+8]
  0005a	ff 46 0c	 inc	 DWORD PTR [esi+12]
  0005d	ff 15 00 00 00
	00		 call	 DWORD PTR __imp_??0?$CStringT@DV?$StrTraitMFC_DLL@DV?$ChTraitsCRT@D@ATL@@@@@ATL@@QAE@XZ

; 930  : #pragma pop_macro("new")
; 931  : 	return pNode;

  00063	8b c7		 mov	 eax, edi
  00065	5f		 pop	 edi
  00066	5e		 pop	 esi

; 932  : }

  00067	5d		 pop	 ebp
  00068	c2 08 00	 ret	 8
$LN20@NewNode:

; 916  : 		}
; 917  : 	}
; 918  : 	ENSURE(m_pNodeFree != NULL);  // we must have something

  0006b	e8 00 00 00 00	 call	 ?AfxThrowInvalidArgException@@YGXXZ ; AfxThrowInvalidArgException
$LN18@NewNode:
  00070	cc		 int	 3
?NewNode@?$CList@U__STHIGHLIGHTCHARTINFO@@U1@@@IAEPAUCNode@1@PAU21@0@Z ENDP ; CList<__STHIGHLIGHTCHARTINFO,__STHIGHLIGHTCHARTINFO>::NewNode
_TEXT	ENDS
; Function compile flags: /Ogtp
; File C:\Program Files (x86)\Microsoft Visual Studio\2019\Community\VC\Tools\MSVC\14.29.30133\atlmfc\include\afxtempl.h
;	COMDAT ?AddTail@?$CList@U__STHIGHLIGHTCHARTINFO@@U1@@@QAEPAU__POSITION@@U__STHIGHLIGHTCHARTINFO@@@Z
_TEXT	SEGMENT
__$EHRec$ = -12						; size = 12
_newElement$ = 8					; size = 8
?AddTail@?$CList@U__STHIGHLIGHTCHARTINFO@@U1@@@QAEPAU__POSITION@@U__STHIGHLIGHTCHARTINFO@@@Z PROC ; CList<__STHIGHLIGHTCHARTINFO,__STHIGHLIGHTCHARTINFO>::AddTail, COMDAT
; _this$ = ecx

; 965  : {

  00000	55		 push	 ebp
  00001	8b ec		 mov	 ebp, esp
  00003	6a ff		 push	 -1
  00005	68 00 00 00 00	 push	 __ehhandler$?AddTail@?$CList@U__STHIGHLIGHTCHARTINFO@@U1@@@QAEPAU__POSITION@@U__STHIGHLIGHTCHARTINFO@@@Z
  0000a	64 a1 00 00 00
	00		 mov	 eax, DWORD PTR fs:0
  00010	50		 push	 eax
  00011	53		 push	 ebx
  00012	56		 push	 esi
  00013	57		 push	 edi
  00014	a1 00 00 00 00	 mov	 eax, DWORD PTR ___security_cookie
  00019	33 c5		 xor	 eax, ebp
  0001b	50		 push	 eax
  0001c	8d 45 f4	 lea	 eax, DWORD PTR __$EHRec$[ebp]
  0001f	64 a3 00 00 00
	00		 mov	 DWORD PTR fs:0, eax
  00025	8b f1		 mov	 esi, ecx

; 902  : 	if (m_pNodeFree == NULL)

  00027	83 7e 10 00	 cmp	 DWORD PTR [esi+16], 0

; 966  : 	ASSERT_VALID(this);
; 967  : 
; 968  : 	CNode* pNewNode = NewNode(m_pNodeTail, NULL);

  0002b	8b 7e 08	 mov	 edi, DWORD PTR [esi+8]
  0002e	c7 45 fc 00 00
	00 00		 mov	 DWORD PTR __$EHRec$[ebp+8], 0

; 902  : 	if (m_pNodeFree == NULL)

  00035	75 39		 jne	 SHORT $LN12@AddTail

; 903  : 	{
; 904  : 		// add another block
; 905  : 		CPlex* pNewBlock = CPlex::Create(m_pBlocks, m_nBlockSize,

  00037	6a 10		 push	 16			; 00000010H
  00039	ff 76 18	 push	 DWORD PTR [esi+24]
  0003c	8d 46 14	 lea	 eax, DWORD PTR [esi+20]
  0003f	50		 push	 eax
  00040	e8 00 00 00 00	 call	 ?Create@CPlex@@SGPAU1@AAPAU1@II@Z ; CPlex::Create

; 906  : 				 sizeof(CNode));
; 907  : 
; 908  : 		// chain them into free list
; 909  : 		CNode* pNode = (CNode*) pNewBlock->data();
; 910  : 		// free in reverse order to make it easier to debug
; 911  : 		pNode += m_nBlockSize - 1;

  00045	8b 56 18	 mov	 edx, DWORD PTR [esi+24]
  00048	83 c0 08	 add	 eax, 8
  0004b	8b ca		 mov	 ecx, edx
  0004d	c1 e1 04	 shl	 ecx, 4
  00050	83 c1 f0	 add	 ecx, -16		; fffffff0H
  00053	03 c8		 add	 ecx, eax

; 912  : 		for (INT_PTR i = m_nBlockSize-1; i >= 0; i--, pNode--)

  00055	83 c2 ff	 add	 edx, -1
  00058	78 16		 js	 SHORT $LN12@AddTail
  0005a	66 0f 1f 44 00
	00		 npad	 6
$LL9@AddTail:

; 913  : 		{
; 914  : 			pNode->pNext = m_pNodeFree;

  00060	8b 46 10	 mov	 eax, DWORD PTR [esi+16]
  00063	89 01		 mov	 DWORD PTR [ecx], eax

; 915  : 			m_pNodeFree = pNode;

  00065	89 4e 10	 mov	 DWORD PTR [esi+16], ecx
  00068	83 e9 10	 sub	 ecx, 16			; 00000010H
  0006b	83 ea 01	 sub	 edx, 1
  0006e	79 f0		 jns	 SHORT $LL9@AddTail
$LN12@AddTail:

; 916  : 		}
; 917  : 	}
; 918  : 	ENSURE(m_pNodeFree != NULL);  // we must have something

  00070	8b 5e 10	 mov	 ebx, DWORD PTR [esi+16]
  00073	85 db		 test	 ebx, ebx
  00075	74 5d		 je	 SHORT $LN32@AddTail

; 919  : 
; 920  : 	CList::CNode* pNode = m_pNodeFree;
; 921  : 	m_pNodeFree = m_pNodeFree->pNext;

  00077	8b 03		 mov	 eax, DWORD PTR [ebx]
  00079	8d 4b 08	 lea	 ecx, DWORD PTR [ebx+8]
  0007c	89 46 10	 mov	 DWORD PTR [esi+16], eax

; 922  : 	pNode->pPrev = pPrev;

  0007f	89 7b 04	 mov	 DWORD PTR [ebx+4], edi

; 923  : 	pNode->pNext = pNext;

  00082	c7 03 00 00 00
	00		 mov	 DWORD PTR [ebx], 0

; 924  : 	m_nCount++;

  00088	ff 46 0c	 inc	 DWORD PTR [esi+12]
  0008b	ff 15 00 00 00
	00		 call	 DWORD PTR __imp_??0?$CStringT@DV?$StrTraitMFC_DLL@DV?$ChTraitsCRT@D@ATL@@@@@ATL@@QAE@XZ
  00091	8d 45 08	 lea	 eax, DWORD PTR _newElement$[ebp]
  00094	50		 push	 eax
  00095	8d 4b 08	 lea	 ecx, DWORD PTR [ebx+8]
  00098	ff 15 00 00 00
	00		 call	 DWORD PTR __imp_??4?$CStringT@DV?$StrTraitMFC_DLL@DV?$ChTraitsCRT@D@ATL@@@@@ATL@@QAEAAV01@ABV01@@Z
  0009e	8b 45 0c	 mov	 eax, DWORD PTR _newElement$[ebp+4]
  000a1	89 43 0c	 mov	 DWORD PTR [ebx+12], eax

; 969  : 	pNewNode->data = newElement;
; 970  : 	if (m_pNodeTail != NULL)

  000a4	8b 46 08	 mov	 eax, DWORD PTR [esi+8]
  000a7	85 c0		 test	 eax, eax
  000a9	74 04		 je	 SHORT $LN2@AddTail

; 971  : 		m_pNodeTail->pNext = pNewNode;

  000ab	89 18		 mov	 DWORD PTR [eax], ebx
  000ad	eb 03		 jmp	 SHORT $LN3@AddTail
$LN2@AddTail:

; 972  : 	else
; 973  : 		m_pNodeHead = pNewNode;

  000af	89 5e 04	 mov	 DWORD PTR [esi+4], ebx
$LN3@AddTail:
  000b2	8d 4d 08	 lea	 ecx, DWORD PTR _newElement$[ebp]

; 974  : 	m_pNodeTail = pNewNode;

  000b5	89 5e 08	 mov	 DWORD PTR [esi+8], ebx
  000b8	ff 15 00 00 00
	00		 call	 DWORD PTR __imp_??1?$CStringT@DV?$StrTraitMFC_DLL@DV?$ChTraitsCRT@D@ATL@@@@@ATL@@QAE@XZ

; 975  : 	return (POSITION) pNewNode;

  000be	8b c3		 mov	 eax, ebx

; 976  : }

  000c0	8b 4d f4	 mov	 ecx, DWORD PTR __$EHRec$[ebp]
  000c3	64 89 0d 00 00
	00 00		 mov	 DWORD PTR fs:0, ecx
  000ca	59		 pop	 ecx
  000cb	5f		 pop	 edi
  000cc	5e		 pop	 esi
  000cd	5b		 pop	 ebx
  000ce	8b e5		 mov	 esp, ebp
  000d0	5d		 pop	 ebp
  000d1	c2 08 00	 ret	 8
$LN32@AddTail:

; 918  : 	ENSURE(m_pNodeFree != NULL);  // we must have something

  000d4	e8 00 00 00 00	 call	 ?AfxThrowInvalidArgException@@YGXXZ ; AfxThrowInvalidArgException
$LN30@AddTail:
  000d9	cc		 int	 3
_TEXT	ENDS
;	COMDAT text$x
text$x	SEGMENT
__unwindfunclet$?AddTail@?$CList@U__STHIGHLIGHTCHARTINFO@@U1@@@QAEPAU__POSITION@@U__STHIGHLIGHTCHARTINFO@@@Z$0:
  00000	8d 4d 08	 lea	 ecx, DWORD PTR _newElement$[ebp]
  00003	e9 00 00 00 00	 jmp	 ??1__STHIGHLIGHTCHARTINFO@@QAE@XZ
  00008	cc		 int	 3
  00009	cc		 int	 3
  0000a	cc		 int	 3
  0000b	cc		 int	 3
  0000c	cc		 int	 3
__ehhandler$?AddTail@?$CList@U__STHIGHLIGHTCHARTINFO@@U1@@@QAEPAU__POSITION@@U__STHIGHLIGHTCHARTINFO@@@Z:
  0000d	90		 npad	 1
  0000e	90		 npad	 1
  0000f	8b 54 24 08	 mov	 edx, DWORD PTR [esp+8]
  00013	8d 42 0c	 lea	 eax, DWORD PTR [edx+12]
  00016	8b 4a f0	 mov	 ecx, DWORD PTR [edx-16]
  00019	33 c8		 xor	 ecx, eax
  0001b	e8 00 00 00 00	 call	 @__security_check_cookie@4
  00020	b8 00 00 00 00	 mov	 eax, OFFSET __ehfuncinfo$?AddTail@?$CList@U__STHIGHLIGHTCHARTINFO@@U1@@@QAEPAU__POSITION@@U__STHIGHLIGHTCHARTINFO@@@Z
  00025	e9 00 00 00 00	 jmp	 ___CxxFrameHandler3
text$x	ENDS
?AddTail@?$CList@U__STHIGHLIGHTCHARTINFO@@U1@@@QAEPAU__POSITION@@U__STHIGHLIGHTCHARTINFO@@@Z ENDP ; CList<__STHIGHLIGHTCHARTINFO,__STHIGHLIGHTCHARTINFO>::AddTail
; Function compile flags: /Ogtp
;	COMDAT ??__FszID@?1??OnGetUserID@CChartMng@@IAEJIJ@Z@YAXXZ
text$yd	SEGMENT
??__FszID@?1??OnGetUserID@CChartMng@@IAEJIJ@Z@YAXXZ PROC ; `CChartMng::OnGetUserID'::`2'::`dynamic atexit destructor for 'szID'', COMDAT
  00000	b9 00 00 00 00	 mov	 ecx, OFFSET ?szID@?1??OnGetUserID@CChartMng@@IAEJIJ@Z@4V?$CStringT@DV?$StrTraitMFC_DLL@DV?$ChTraitsCRT@D@ATL@@@@@ATL@@A
  00005	ff 25 00 00 00
	00		 jmp	 DWORD PTR __imp_??1?$CStringT@DV?$StrTraitMFC_DLL@DV?$ChTraitsCRT@D@ATL@@@@@ATL@@QAE@XZ
??__FszID@?1??OnGetUserID@CChartMng@@IAEJIJ@Z@YAXXZ ENDP ; `CChartMng::OnGetUserID'::`2'::`dynamic atexit destructor for 'szID''
text$yd	ENDS
; Function compile flags: /Ogtp
;	COMDAT ??__F?m_strCodeForMulti@CChartMng@@2V?$CStringT@DV?$StrTraitMFC_DLL@DV?$ChTraitsCRT@D@ATL@@@@@ATL@@A@@YAXXZ
text$yd	SEGMENT
??__F?m_strCodeForMulti@CChartMng@@2V?$CStringT@DV?$StrTraitMFC_DLL@DV?$ChTraitsCRT@D@ATL@@@@@ATL@@A@@YAXXZ PROC ; `dynamic atexit destructor for 'CChartMng::m_strCodeForMulti'', COMDAT
  00000	b9 00 00 00 00	 mov	 ecx, OFFSET ?m_strCodeForMulti@CChartMng@@2V?$CStringT@DV?$StrTraitMFC_DLL@DV?$ChTraitsCRT@D@ATL@@@@@ATL@@A ; CChartMng::m_strCodeForMulti
  00005	ff 25 00 00 00
	00		 jmp	 DWORD PTR __imp_??1?$CStringT@DV?$StrTraitMFC_DLL@DV?$ChTraitsCRT@D@ATL@@@@@ATL@@QAE@XZ
??__F?m_strCodeForMulti@CChartMng@@2V?$CStringT@DV?$StrTraitMFC_DLL@DV?$ChTraitsCRT@D@ATL@@@@@ATL@@A@@YAXXZ ENDP ; `dynamic atexit destructor for 'CChartMng::m_strCodeForMulti''
text$yd	ENDS
; Function compile flags: /Ogtp
; File D:\git\src\IBK\IBK_DRFN\ProjSrc\SrcDrfn\Chart\comparechart\ChartMng.cpp
;	COMDAT ??__E?m_strCodeForMulti@CChartMng@@2V?$CStringT@DV?$StrTraitMFC_DLL@DV?$ChTraitsCRT@D@ATL@@@@@ATL@@A@@YAXXZ
text$di	SEGMENT
??__E?m_strCodeForMulti@CChartMng@@2V?$CStringT@DV?$StrTraitMFC_DLL@DV?$ChTraitsCRT@D@ATL@@@@@ATL@@A@@YAXXZ PROC ; `dynamic initializer for 'CChartMng::m_strCodeForMulti'', COMDAT

; 96   : CString  CChartMng::m_strCodeForMulti = _T(""); //        

  00000	68 00 00 00 00	 push	 OFFSET ??_C@_00CNPNBAHC@@
  00005	b9 00 00 00 00	 mov	 ecx, OFFSET ?m_strCodeForMulti@CChartMng@@2V?$CStringT@DV?$StrTraitMFC_DLL@DV?$ChTraitsCRT@D@ATL@@@@@ATL@@A ; CChartMng::m_strCodeForMulti
  0000a	ff 15 00 00 00
	00		 call	 DWORD PTR __imp_??0?$CStringT@DV?$StrTraitMFC_DLL@DV?$ChTraitsCRT@D@ATL@@@@@ATL@@QAE@PBD@Z
  00010	68 00 00 00 00	 push	 OFFSET ??__F?m_strCodeForMulti@CChartMng@@2V?$CStringT@DV?$StrTraitMFC_DLL@DV?$ChTraitsCRT@D@ATL@@@@@ATL@@A@@YAXXZ ; `dynamic atexit destructor for 'CChartMng::m_strCodeForMulti''
  00015	e8 00 00 00 00	 call	 _atexit
  0001a	59		 pop	 ecx
  0001b	c3		 ret	 0
??__E?m_strCodeForMulti@CChartMng@@2V?$CStringT@DV?$StrTraitMFC_DLL@DV?$ChTraitsCRT@D@ATL@@@@@ATL@@A@@YAXXZ ENDP ; `dynamic initializer for 'CChartMng::m_strCodeForMulti''
text$di	ENDS
; Function compile flags: /Ogtp
;	COMDAT ??__F?m_strStatic_ShareCode@CChartMng@@2V?$CStringT@DV?$StrTraitMFC_DLL@DV?$ChTraitsCRT@D@ATL@@@@@ATL@@A@@YAXXZ
text$yd	SEGMENT
??__F?m_strStatic_ShareCode@CChartMng@@2V?$CStringT@DV?$StrTraitMFC_DLL@DV?$ChTraitsCRT@D@ATL@@@@@ATL@@A@@YAXXZ PROC ; `dynamic atexit destructor for 'CChartMng::m_strStatic_ShareCode'', COMDAT
  00000	b9 00 00 00 00	 mov	 ecx, OFFSET ?m_strStatic_ShareCode@CChartMng@@2V?$CStringT@DV?$StrTraitMFC_DLL@DV?$ChTraitsCRT@D@ATL@@@@@ATL@@A ; CChartMng::m_strStatic_ShareCode
  00005	ff 25 00 00 00
	00		 jmp	 DWORD PTR __imp_??1?$CStringT@DV?$StrTraitMFC_DLL@DV?$ChTraitsCRT@D@ATL@@@@@ATL@@QAE@XZ
??__F?m_strStatic_ShareCode@CChartMng@@2V?$CStringT@DV?$StrTraitMFC_DLL@DV?$ChTraitsCRT@D@ATL@@@@@ATL@@A@@YAXXZ ENDP ; `dynamic atexit destructor for 'CChartMng::m_strStatic_ShareCode''
text$yd	ENDS
; Function compile flags: /Ogtp
; File D:\git\src\IBK\IBK_DRFN\ProjSrc\SrcDrfn\Chart\comparechart\ChartMng.cpp
;	COMDAT ??__E?m_strStatic_ShareCode@CChartMng@@2V?$CStringT@DV?$StrTraitMFC_DLL@DV?$ChTraitsCRT@D@ATL@@@@@ATL@@A@@YAXXZ
text$di	SEGMENT
??__E?m_strStatic_ShareCode@CChartMng@@2V?$CStringT@DV?$StrTraitMFC_DLL@DV?$ChTraitsCRT@D@ATL@@@@@ATL@@A@@YAXXZ PROC ; `dynamic initializer for 'CChartMng::m_strStatic_ShareCode'', COMDAT

; 95   : CString  CChartMng::m_strStatic_ShareCode = _T(""); //        

  00000	68 00 00 00 00	 push	 OFFSET ??_C@_00CNPNBAHC@@
  00005	b9 00 00 00 00	 mov	 ecx, OFFSET ?m_strStatic_ShareCode@CChartMng@@2V?$CStringT@DV?$StrTraitMFC_DLL@DV?$ChTraitsCRT@D@ATL@@@@@ATL@@A ; CChartMng::m_strStatic_ShareCode
  0000a	ff 15 00 00 00
	00		 call	 DWORD PTR __imp_??0?$CStringT@DV?$StrTraitMFC_DLL@DV?$ChTraitsCRT@D@ATL@@@@@ATL@@QAE@PBD@Z
  00010	68 00 00 00 00	 push	 OFFSET ??__F?m_strStatic_ShareCode@CChartMng@@2V?$CStringT@DV?$StrTraitMFC_DLL@DV?$ChTraitsCRT@D@ATL@@@@@ATL@@A@@YAXXZ ; `dynamic atexit destructor for 'CChartMng::m_strStatic_ShareCode''
  00015	e8 00 00 00 00	 call	 _atexit
  0001a	59		 pop	 ecx
  0001b	c3		 ret	 0
??__E?m_strStatic_ShareCode@CChartMng@@2V?$CStringT@DV?$StrTraitMFC_DLL@DV?$ChTraitsCRT@D@ATL@@@@@ATL@@A@@YAXXZ ENDP ; `dynamic initializer for 'CChartMng::m_strStatic_ShareCode''
text$di	ENDS
; Function compile flags: /Ogtp
; File D:\git\src\IBK\IBK_DRFN\ProjSrc\SrcDrfn\Chart\comparechart\ChartMng.cpp
;	COMDAT ??__ERMSG_STDATAMANAGER_RESULTDATA@@YAXXZ
text$di	SEGMENT
??__ERMSG_STDATAMANAGER_RESULTDATA@@YAXXZ PROC		; `dynamic initializer for 'RMSG_STDATAMANAGER_RESULTDATA'', COMDAT

; 89   : const UINT RMSG_STDATAMANAGER_RESULTDATA = ::RegisterWindowMessage("RMSG_STDATAMANAGER_RESULTDATA");

  00000	68 00 00 00 00	 push	 OFFSET ??_C@_0BO@DBLNBLBD@RMSG_STDATAMANAGER_RESULTDATA@
  00005	ff 15 00 00 00
	00		 call	 DWORD PTR __imp__RegisterWindowMessageA@4
  0000b	a3 00 00 00 00	 mov	 DWORD PTR ?RMSG_STDATAMANAGER_RESULTDATA@@3IB, eax
  00010	c3		 ret	 0
??__ERMSG_STDATAMANAGER_RESULTDATA@@YAXXZ ENDP		; `dynamic initializer for 'RMSG_STDATAMANAGER_RESULTDATA''
text$di	ENDS
; Function compile flags: /Ogtp
; File D:\git\src\IBK\IBK_DRFN\ProjSrc\SrcDrfn\Chart\comparechart\ChartMng.cpp
;	COMDAT ??__ERMSG_CREATEOPENSHAREDATA@@YAXXZ
text$di	SEGMENT
??__ERMSG_CREATEOPENSHAREDATA@@YAXXZ PROC		; `dynamic initializer for 'RMSG_CREATEOPENSHAREDATA'', COMDAT

; 73   : const UINT RMSG_CREATEOPENSHAREDATA	= ::RegisterWindowMessage(_T("RMSG_CREATEOPENSHAREDATA"));

  00000	68 00 00 00 00	 push	 OFFSET ??_C@_0BJ@IBLMHNPG@RMSG_CREATEOPENSHAREDATA@
  00005	ff 15 00 00 00
	00		 call	 DWORD PTR __imp__RegisterWindowMessageA@4
  0000b	a3 00 00 00 00	 mov	 DWORD PTR ?RMSG_CREATEOPENSHAREDATA@@3IB, eax
  00010	c3		 ret	 0
??__ERMSG_CREATEOPENSHAREDATA@@YAXXZ ENDP		; `dynamic initializer for 'RMSG_CREATEOPENSHAREDATA''
text$di	ENDS
; Function compile flags: /Ogtp
; File D:\git\src\IBK\IBK_DRFN\ProjSrc\SrcDrfn\Chart\comparechart\ChartMng.cpp
;	COMDAT ??__ERMSG_GETOPENEDOWNER@@YAXXZ
text$di	SEGMENT
??__ERMSG_GETOPENEDOWNER@@YAXXZ PROC			; `dynamic initializer for 'RMSG_GETOPENEDOWNER'', COMDAT

; 70   : const UINT RMSG_GETOPENEDOWNER = ::RegisterWindowMessage(_T("RMSG_GETOPENEDOWNER"));

  00000	68 00 00 00 00	 push	 OFFSET ??_C@_0BE@PJHMBKJL@RMSG_GETOPENEDOWNER@
  00005	ff 15 00 00 00
	00		 call	 DWORD PTR __imp__RegisterWindowMessageA@4
  0000b	a3 00 00 00 00	 mov	 DWORD PTR ?RMSG_GETOPENEDOWNER@@3IB, eax
  00010	c3		 ret	 0
??__ERMSG_GETOPENEDOWNER@@YAXXZ ENDP			; `dynamic initializer for 'RMSG_GETOPENEDOWNER''
text$di	ENDS
; Function compile flags: /Ogtp
; File D:\git\src\IBK\IBK_DRFN\ProjSrc\SrcDrfn\Chart\comparechart\ChartMng.cpp
;	COMDAT ??__ERMSG_CHARTMSG_EVENTMESSAGE@@YAXXZ
text$di	SEGMENT
??__ERMSG_CHARTMSG_EVENTMESSAGE@@YAXXZ PROC		; `dynamic initializer for 'RMSG_CHARTMSG_EVENTMESSAGE'', COMDAT

; 68   : const UINT RMSG_CHARTMSG_EVENTMESSAGE	= ::RegisterWindowMessage( _CHARTMSG_EVENTMESSAGE);

  00000	68 00 00 00 00	 push	 OFFSET ??_C@_0BG@OPFPJGPD@CHARTMSG_EVENTMESSAGE@
  00005	ff 15 00 00 00
	00		 call	 DWORD PTR __imp__RegisterWindowMessageA@4
  0000b	a3 00 00 00 00	 mov	 DWORD PTR ?RMSG_CHARTMSG_EVENTMESSAGE@@3IB, eax ; RMSG_CHARTMSG_EVENTMESSAGE
  00010	c3		 ret	 0
??__ERMSG_CHARTMSG_EVENTMESSAGE@@YAXXZ ENDP		; `dynamic initializer for 'RMSG_CHARTMSG_EVENTMESSAGE''
text$di	ENDS
; Function compile flags: /Ogtp
; File D:\git\src\IBK\IBK_DRFN\ProjSrc\SrcDrfn\Chart\comparechart\ChartMng.cpp
;	COMDAT ??__ERMSG_SAVE_FOCUS_CONTROL@@YAXXZ
text$di	SEGMENT
??__ERMSG_SAVE_FOCUS_CONTROL@@YAXXZ PROC		; `dynamic initializer for 'RMSG_SAVE_FOCUS_CONTROL'', COMDAT

; 33   : const UINT  RMSG_SAVE_FOCUS_CONTROL = ::RegisterWindowMessage("RMSG_SAVE_FOCUS_CONTROL"); //05.09.30

  00000	68 00 00 00 00	 push	 OFFSET ??_C@_0BI@NOJKFJLL@RMSG_SAVE_FOCUS_CONTROL@
  00005	ff 15 00 00 00
	00		 call	 DWORD PTR __imp__RegisterWindowMessageA@4
  0000b	a3 00 00 00 00	 mov	 DWORD PTR ?RMSG_SAVE_FOCUS_CONTROL@@3IB, eax
  00010	c3		 ret	 0
??__ERMSG_SAVE_FOCUS_CONTROL@@YAXXZ ENDP		; `dynamic initializer for 'RMSG_SAVE_FOCUS_CONTROL''
text$di	ENDS
; Function compile flags: /Ogtp
; File D:\git\src\IBK\IBK_DRFN\ProjSrc\SrcDrfn\Chart\comparechart\ChartMng.cpp
;	COMDAT ??__ERMSG_OPENMAPWITHDATA@@YAXXZ
text$di	SEGMENT
??__ERMSG_OPENMAPWITHDATA@@YAXXZ PROC			; `dynamic initializer for 'RMSG_OPENMAPWITHDATA'', COMDAT

; 32   : const UINT	RMSG_OPENMAPWITHDATA	= ::RegisterWindowMessage(_T("RMSG_OPENMAPWITHDATA"));

  00000	68 00 00 00 00	 push	 OFFSET ??_C@_0BF@PIKHCIFF@RMSG_OPENMAPWITHDATA@
  00005	ff 15 00 00 00
	00		 call	 DWORD PTR __imp__RegisterWindowMessageA@4
  0000b	a3 00 00 00 00	 mov	 DWORD PTR ?RMSG_OPENMAPWITHDATA@@3IB, eax
  00010	c3		 ret	 0
??__ERMSG_OPENMAPWITHDATA@@YAXXZ ENDP			; `dynamic initializer for 'RMSG_OPENMAPWITHDATA''
text$di	ENDS
; Function compile flags: /Ogtp
; File D:\git\src\IBK\IBK_DRFN\ProjSrc\SrcDrfn\Chart\comparechart\define\MessageDefine.h
;	COMDAT ??__ERMSG_GETSKINVALUE@@YAXXZ
text$di	SEGMENT
??__ERMSG_GETSKINVALUE@@YAXXZ PROC			; `dynamic initializer for 'RMSG_GETSKINVALUE'', COMDAT

; 55   : const UINT RMSG_GETSKINVALUE	=	::RegisterWindowMessage("RMSG_GETSKINVALUE");

  00000	68 00 00 00 00	 push	 OFFSET ??_C@_0BC@ICLGGCHO@RMSG_GETSKINVALUE@
  00005	ff 15 00 00 00
	00		 call	 DWORD PTR __imp__RegisterWindowMessageA@4
  0000b	a3 00 00 00 00	 mov	 DWORD PTR ?RMSG_GETSKINVALUE@@3IB, eax
  00010	c3		 ret	 0
??__ERMSG_GETSKINVALUE@@YAXXZ ENDP			; `dynamic initializer for 'RMSG_GETSKINVALUE''
text$di	ENDS
; Function compile flags: /Ogtp
; File D:\git\src\IBK\IBK_DRFN\ProjSrc\SrcDrfn\Chart\comparechart\define\MessageDefine.h
;	COMDAT ??__ERMSG_MESSAGESHOW@@YAXXZ
text$di	SEGMENT
??__ERMSG_MESSAGESHOW@@YAXXZ PROC			; `dynamic initializer for 'RMSG_MESSAGESHOW'', COMDAT

; 54   : const UINT RMSG_MESSAGESHOW = ::RegisterWindowMessage("RMSG_MESSAGESHOW");

  00000	68 00 00 00 00	 push	 OFFSET ??_C@_0BB@JOGLHCCG@RMSG_MESSAGESHOW@
  00005	ff 15 00 00 00
	00		 call	 DWORD PTR __imp__RegisterWindowMessageA@4
  0000b	a3 00 00 00 00	 mov	 DWORD PTR ?RMSG_MESSAGESHOW@@3IB, eax
  00010	c3		 ret	 0
??__ERMSG_MESSAGESHOW@@YAXXZ ENDP			; `dynamic initializer for 'RMSG_MESSAGESHOW''
text$di	ENDS
; Function compile flags: /Ogtp
; File D:\git\src\IBK\IBK_DRFN\ProjSrc\SrcDrfn\Chart\comparechart\define\MessageDefine.h
;	COMDAT ??__ERMSG_RESIZEFROMGWAN@@YAXXZ
text$di	SEGMENT
??__ERMSG_RESIZEFROMGWAN@@YAXXZ PROC			; `dynamic initializer for 'RMSG_RESIZEFROMGWAN'', COMDAT

; 53   : const UINT RMSG_RESIZEFROMGWAN = ::RegisterWindowMessage("RMSG_RESIZEFROMGWAN");

  00000	68 00 00 00 00	 push	 OFFSET ??_C@_0BE@NAJONFKO@RMSG_RESIZEFROMGWAN@
  00005	ff 15 00 00 00
	00		 call	 DWORD PTR __imp__RegisterWindowMessageA@4
  0000b	a3 00 00 00 00	 mov	 DWORD PTR ?RMSG_RESIZEFROMGWAN@@3IB, eax
  00010	c3		 ret	 0
??__ERMSG_RESIZEFROMGWAN@@YAXXZ ENDP			; `dynamic initializer for 'RMSG_RESIZEFROMGWAN''
text$di	ENDS
; Function compile flags: /Ogtp
; File D:\git\src\IBK\IBK_DRFN\ProjSrc\SrcDrfn\Chart\comparechart\define\MessageDefine.h
;	COMDAT ??__ERMSG_SHARED_PIN@@YAXXZ
text$di	SEGMENT
??__ERMSG_SHARED_PIN@@YAXXZ PROC			; `dynamic initializer for 'RMSG_SHARED_PIN'', COMDAT

; 52   : const UINT RMSG_SHARED_PIN = ::RegisterWindowMessage("RMSG_SHARED_PIN");

  00000	68 00 00 00 00	 push	 OFFSET ??_C@_0BA@OPONGCEC@RMSG_SHARED_PIN@
  00005	ff 15 00 00 00
	00		 call	 DWORD PTR __imp__RegisterWindowMessageA@4
  0000b	a3 00 00 00 00	 mov	 DWORD PTR ?RMSG_SHARED_PIN@@3IB, eax
  00010	c3		 ret	 0
??__ERMSG_SHARED_PIN@@YAXXZ ENDP			; `dynamic initializer for 'RMSG_SHARED_PIN''
text$di	ENDS
; Function compile flags: /Ogtp
; File D:\git\src\IBK\IBK_DRFN\ProjSrc\SrcDrfn\Chart\comparechart\define\MessageDefine.h
;	COMDAT ??__ERMSG_HOGACHANGEDATA_ACCT@@YAXXZ
text$di	SEGMENT
??__ERMSG_HOGACHANGEDATA_ACCT@@YAXXZ PROC		; `dynamic initializer for 'RMSG_HOGACHANGEDATA_ACCT'', COMDAT

; 51   : const UINT RMSG_HOGACHANGEDATA_ACCT = ::RegisterWindowMessage(_T("RMSG_HOGACHANGEDATA_ACCT"));

  00000	68 00 00 00 00	 push	 OFFSET ??_C@_0BJ@NKAHNENP@RMSG_HOGACHANGEDATA_ACCT@
  00005	ff 15 00 00 00
	00		 call	 DWORD PTR __imp__RegisterWindowMessageA@4
  0000b	a3 00 00 00 00	 mov	 DWORD PTR ?RMSG_HOGACHANGEDATA_ACCT@@3IB, eax
  00010	c3		 ret	 0
??__ERMSG_HOGACHANGEDATA_ACCT@@YAXXZ ENDP		; `dynamic initializer for 'RMSG_HOGACHANGEDATA_ACCT''
text$di	ENDS
; Function compile flags: /Ogtp
; File D:\git\src\IBK\IBK_DRFN\ProjSrc\SrcDrfn\Chart\comparechart\define\MessageDefine.h
;	COMDAT ??__ERMSG_HOGACHANGEDATA_CODE@@YAXXZ
text$di	SEGMENT
??__ERMSG_HOGACHANGEDATA_CODE@@YAXXZ PROC		; `dynamic initializer for 'RMSG_HOGACHANGEDATA_CODE'', COMDAT

; 50   : const UINT RMSG_HOGACHANGEDATA_CODE = ::RegisterWindowMessage(_T("RMSG_HOGACHANGEDATA_CODE"));

  00000	68 00 00 00 00	 push	 OFFSET ??_C@_0BJ@LMIHANJC@RMSG_HOGACHANGEDATA_CODE@
  00005	ff 15 00 00 00
	00		 call	 DWORD PTR __imp__RegisterWindowMessageA@4
  0000b	a3 00 00 00 00	 mov	 DWORD PTR ?RMSG_HOGACHANGEDATA_CODE@@3IB, eax
  00010	c3		 ret	 0
??__ERMSG_HOGACHANGEDATA_CODE@@YAXXZ ENDP		; `dynamic initializer for 'RMSG_HOGACHANGEDATA_CODE''
text$di	ENDS
; Function compile flags: /Ogtp
; File D:\git\src\IBK\IBK_DRFN\ProjSrc\SrcDrfn\Chart\comparechart\define\MessageDefine.h
;	COMDAT ??__ERMSG_FROMHOGAJUMUN_DESTROY@@YAXXZ
text$di	SEGMENT
??__ERMSG_FROMHOGAJUMUN_DESTROY@@YAXXZ PROC		; `dynamic initializer for 'RMSG_FROMHOGAJUMUN_DESTROY'', COMDAT

; 49   : const UINT RMSG_FROMHOGAJUMUN_DESTROY = ::RegisterWindowMessage(_T("RMSG_FROMHOGAJUMUN_DESTROY"));

  00000	68 00 00 00 00	 push	 OFFSET ??_C@_0BL@ONHOHGGM@RMSG_FROMHOGAJUMUN_DESTROY@
  00005	ff 15 00 00 00
	00		 call	 DWORD PTR __imp__RegisterWindowMessageA@4
  0000b	a3 00 00 00 00	 mov	 DWORD PTR ?RMSG_FROMHOGAJUMUN_DESTROY@@3IB, eax
  00010	c3		 ret	 0
??__ERMSG_FROMHOGAJUMUN_DESTROY@@YAXXZ ENDP		; `dynamic initializer for 'RMSG_FROMHOGAJUMUN_DESTROY''
text$di	ENDS
; Function compile flags: /Ogtp
; File D:\git\src\IBK\IBK_DRFN\ProjSrc\SrcDrfn\Chart\comparechart\define\MessageDefine.h
;	COMDAT ??__ERMSG_OPENMAP2@@YAXXZ
text$di	SEGMENT
??__ERMSG_OPENMAP2@@YAXXZ PROC				; `dynamic initializer for 'RMSG_OPENMAP2'', COMDAT

; 48   : const UINT	RMSG_OPENMAP2		= ::RegisterWindowMessage(_T("RMSG_OPENMAP2"));

  00000	68 00 00 00 00	 push	 OFFSET ??_C@_0O@JLGCPGDL@RMSG_OPENMAP2@
  00005	ff 15 00 00 00
	00		 call	 DWORD PTR __imp__RegisterWindowMessageA@4
  0000b	a3 00 00 00 00	 mov	 DWORD PTR ?RMSG_OPENMAP2@@3IB, eax
  00010	c3		 ret	 0
??__ERMSG_OPENMAP2@@YAXXZ ENDP				; `dynamic initializer for 'RMSG_OPENMAP2''
text$di	ENDS
; Function compile flags: /Ogtp
; File D:\git\src\IBK\IBK_DRFN\ProjSrc\SrcDrfn\Chart\comparechart\define\MessageDefine.h
;	COMDAT ??__ERMSG_SETSHAREDATA@@YAXXZ
text$di	SEGMENT
??__ERMSG_SETSHAREDATA@@YAXXZ PROC			; `dynamic initializer for 'RMSG_SETSHAREDATA'', COMDAT

; 46   : const UINT RMSG_SETSHAREDATA = ::RegisterWindowMessage(_T("RMSG_SETSHAREDATA"));

  00000	68 00 00 00 00	 push	 OFFSET ??_C@_0BC@GGHIPHFD@RMSG_SETSHAREDATA@
  00005	ff 15 00 00 00
	00		 call	 DWORD PTR __imp__RegisterWindowMessageA@4
  0000b	a3 00 00 00 00	 mov	 DWORD PTR ?RMSG_SETSHAREDATA@@3IB, eax
  00010	c3		 ret	 0
??__ERMSG_SETSHAREDATA@@YAXXZ ENDP			; `dynamic initializer for 'RMSG_SETSHAREDATA''
text$di	ENDS
; Function compile flags: /Ogtp
; File D:\git\src\IBK\IBK_DRFN\ProjSrc\SrcDrfn\Chart\comparechart\define\MessageDefine.h
;	COMDAT ??__ERMSG_FROMCODELIST@@YAXXZ
text$di	SEGMENT
??__ERMSG_FROMCODELIST@@YAXXZ PROC			; `dynamic initializer for 'RMSG_FROMCODELIST'', COMDAT

; 45   : const UINT RMSG_FROMCODELIST = ::RegisterWindowMessage(_T("RMSG_FROMCODELIST"));

  00000	68 00 00 00 00	 push	 OFFSET ??_C@_0BC@FHIPKCJJ@RMSG_FROMCODELIST@
  00005	ff 15 00 00 00
	00		 call	 DWORD PTR __imp__RegisterWindowMessageA@4
  0000b	a3 00 00 00 00	 mov	 DWORD PTR ?RMSG_FROMCODELIST@@3IB, eax
  00010	c3		 ret	 0
??__ERMSG_FROMCODELIST@@YAXXZ ENDP			; `dynamic initializer for 'RMSG_FROMCODELIST''
text$di	ENDS
; Function compile flags: /Ogtp
; File D:\git\src\IBK\IBK_DRFN\ProjSrc\SrcDrfn\Chart\comparechart\define\DragNDropDefine.h
;	COMDAT ??__ERMSG_DRAGEND@@YAXXZ
text$di	SEGMENT
??__ERMSG_DRAGEND@@YAXXZ PROC				; `dynamic initializer for 'RMSG_DRAGEND'', COMDAT

; 5    : const UINT RMSG_DRAGEND				= ::RegisterWindowMessage(_T("RMSG_DRAGEND"));

  00000	68 00 00 00 00	 push	 OFFSET ??_C@_0N@HCNBEPNP@RMSG_DRAGEND@
  00005	ff 15 00 00 00
	00		 call	 DWORD PTR __imp__RegisterWindowMessageA@4
  0000b	a3 00 00 00 00	 mov	 DWORD PTR ?RMSG_DRAGEND@@3IB, eax
  00010	c3		 ret	 0
??__ERMSG_DRAGEND@@YAXXZ ENDP				; `dynamic initializer for 'RMSG_DRAGEND''
text$di	ENDS
; Function compile flags: /Ogtp
; File D:\git\src\IBK\IBK_DRFN\ProjSrc\SrcDrfn\Chart\comparechart\define\DragNDropDefine.h
;	COMDAT ??__ERMSG_DRAGSTART@@YAXXZ
text$di	SEGMENT
??__ERMSG_DRAGSTART@@YAXXZ PROC				; `dynamic initializer for 'RMSG_DRAGSTART'', COMDAT

; 4    : const UINT RMSG_DRAGSTART			= ::RegisterWindowMessage(_T("RMSG_DRAGSTART"));

  00000	68 00 00 00 00	 push	 OFFSET ??_C@_0P@JJCNALBJ@RMSG_DRAGSTART@
  00005	ff 15 00 00 00
	00		 call	 DWORD PTR __imp__RegisterWindowMessageA@4
  0000b	a3 00 00 00 00	 mov	 DWORD PTR ?RMSG_DRAGSTART@@3IB, eax
  00010	c3		 ret	 0
??__ERMSG_DRAGSTART@@YAXXZ ENDP				; `dynamic initializer for 'RMSG_DRAGSTART''
text$di	ENDS
; Function compile flags: /Ogtp
; File D:\git\src\IBK\IBK_DRFN\ProjSrc\SrcDrfn\Chart\comparechart\StdDialog.h
;	COMDAT ??__ERMSG_SELCHARTCODE@@YAXXZ
text$di	SEGMENT
??__ERMSG_SELCHARTCODE@@YAXXZ PROC			; `dynamic initializer for 'RMSG_SELCHARTCODE'', COMDAT

; 73   : const UINT RMSG_SELCHARTCODE = ::RegisterWindowMessage( "RMSG_SELCHARTCODE" );

  00000	68 00 00 00 00	 push	 OFFSET ??_C@_0BC@LHNMEPFM@RMSG_SELCHARTCODE@
  00005	ff 15 00 00 00
	00		 call	 DWORD PTR __imp__RegisterWindowMessageA@4
  0000b	a3 00 00 00 00	 mov	 DWORD PTR ?RMSG_SELCHARTCODE@@3IB, eax
  00010	c3		 ret	 0
??__ERMSG_SELCHARTCODE@@YAXXZ ENDP			; `dynamic initializer for 'RMSG_SELCHARTCODE''
text$di	ENDS
; Function compile flags: /Ogtp
; File D:\git\src\IBK\IBK_DRFN\ProjSrc\SrcDrfn\Chart\chart_common\ReplayChartInfoDef.h
;	COMDAT ??__ERMSG_REPLAY_TOTAL_SEC@@YAXXZ
text$di	SEGMENT
??__ERMSG_REPLAY_TOTAL_SEC@@YAXXZ PROC			; `dynamic initializer for 'RMSG_REPLAY_TOTAL_SEC'', COMDAT

; 97   : 	const UINT RMSG_REPLAY_TOTAL_SEC = ::RegisterWindowMessage(_T("RMSG_REPLAY_TOTAL_SEC"));		//  () 

  00000	68 00 00 00 00	 push	 OFFSET ??_C@_0BG@GIAJEIJF@RMSG_REPLAY_TOTAL_SEC@
  00005	ff 15 00 00 00
	00		 call	 DWORD PTR __imp__RegisterWindowMessageA@4
  0000b	a3 00 00 00 00	 mov	 DWORD PTR ?RMSG_REPLAY_TOTAL_SEC@@3IB, eax
  00010	c3		 ret	 0
??__ERMSG_REPLAY_TOTAL_SEC@@YAXXZ ENDP			; `dynamic initializer for 'RMSG_REPLAY_TOTAL_SEC''
text$di	ENDS
; Function compile flags: /Ogtp
; File D:\git\src\IBK\IBK_DRFN\ProjSrc\SrcDrfn\Chart\chart_common\ReplayChartInfoDef.h
;	COMDAT ??__ERMSG_REPLAY_INC_SEC@@YAXXZ
text$di	SEGMENT
??__ERMSG_REPLAY_INC_SEC@@YAXXZ PROC			; `dynamic initializer for 'RMSG_REPLAY_INC_SEC'', COMDAT

; 96   : 	const UINT RMSG_REPLAY_INC_SEC = ::RegisterWindowMessage(_T("RMSG_REPLAY_INC_SEC"));			// 1   

  00000	68 00 00 00 00	 push	 OFFSET ??_C@_0BE@JFCIMCIP@RMSG_REPLAY_INC_SEC@
  00005	ff 15 00 00 00
	00		 call	 DWORD PTR __imp__RegisterWindowMessageA@4
  0000b	a3 00 00 00 00	 mov	 DWORD PTR ?RMSG_REPLAY_INC_SEC@@3IB, eax
  00010	c3		 ret	 0
??__ERMSG_REPLAY_INC_SEC@@YAXXZ ENDP			; `dynamic initializer for 'RMSG_REPLAY_INC_SEC''
text$di	ENDS
; Function compile flags: /Ogtp
; File D:\git\src\IBK\IBK_DRFN\ProjSrc\SrcDrfn\Chart\chart_common\ReplayChartInfoDef.h
;	COMDAT ??__ERMSG_REPLAY_END@@YAXXZ
text$di	SEGMENT
??__ERMSG_REPLAY_END@@YAXXZ PROC			; `dynamic initializer for 'RMSG_REPLAY_END'', COMDAT

; 95   : 	const UINT RMSG_REPLAY_END			= ::RegisterWindowMessage(_T("RMSG_REPLAY_END"));

  00000	68 00 00 00 00	 push	 OFFSET ??_C@_0BA@NKHHCPON@RMSG_REPLAY_END@
  00005	ff 15 00 00 00
	00		 call	 DWORD PTR __imp__RegisterWindowMessageA@4
  0000b	a3 00 00 00 00	 mov	 DWORD PTR ?RMSG_REPLAY_END@@3IB, eax
  00010	c3		 ret	 0
??__ERMSG_REPLAY_END@@YAXXZ ENDP			; `dynamic initializer for 'RMSG_REPLAY_END''
text$di	ENDS
; Function compile flags: /Ogtp
; File D:\git\src\IBK\IBK_DRFN\ProjSrc\SrcDrfn\Chart\chart_common\ReplayChartInfoDef.h
;	COMDAT ??__ERMSG_REPLAY_CHANGE_DATE@@YAXXZ
text$di	SEGMENT
??__ERMSG_REPLAY_CHANGE_DATE@@YAXXZ PROC		; `dynamic initializer for 'RMSG_REPLAY_CHANGE_DATE'', COMDAT

; 94   : 	const UINT RMSG_REPLAY_CHANGE_DATE	= ::RegisterWindowMessage(_T("RMSG_REPLAY_CHANGE_DATE"));

  00000	68 00 00 00 00	 push	 OFFSET ??_C@_0BI@KDGAIIMD@RMSG_REPLAY_CHANGE_DATE@
  00005	ff 15 00 00 00
	00		 call	 DWORD PTR __imp__RegisterWindowMessageA@4
  0000b	a3 00 00 00 00	 mov	 DWORD PTR ?RMSG_REPLAY_CHANGE_DATE@@3IB, eax
  00010	c3		 ret	 0
??__ERMSG_REPLAY_CHANGE_DATE@@YAXXZ ENDP		; `dynamic initializer for 'RMSG_REPLAY_CHANGE_DATE''
text$di	ENDS
; Function compile flags: /Ogtp
; File D:\git\src\IBK\IBK_DRFN\ProjSrc\SrcDrfn\Chart\chart_common\ReplayChartInfoDef.h
;	COMDAT ??__ERMSG_REPLAY_FAIL@@YAXXZ
text$di	SEGMENT
??__ERMSG_REPLAY_FAIL@@YAXXZ PROC			; `dynamic initializer for 'RMSG_REPLAY_FAIL'', COMDAT

; 93   : 	const UINT RMSG_REPLAY_FAIL			= ::RegisterWindowMessage(_T("RMSG_REPLAY_FAIL"));

  00000	68 00 00 00 00	 push	 OFFSET ??_C@_0BB@JFLGBADG@RMSG_REPLAY_FAIL@
  00005	ff 15 00 00 00
	00		 call	 DWORD PTR __imp__RegisterWindowMessageA@4
  0000b	a3 00 00 00 00	 mov	 DWORD PTR ?RMSG_REPLAY_FAIL@@3IB, eax
  00010	c3		 ret	 0
??__ERMSG_REPLAY_FAIL@@YAXXZ ENDP			; `dynamic initializer for 'RMSG_REPLAY_FAIL''
text$di	ENDS
; Function compile flags: /Ogtp
; File D:\git\src\IBK\IBK_DRFN\ProjSrc\SrcDrfn\Chart\chart_common\ReplayChartInfoDef.h
;	COMDAT ??__ERMSG_REPLAY_REAL@@YAXXZ
text$di	SEGMENT
??__ERMSG_REPLAY_REAL@@YAXXZ PROC			; `dynamic initializer for 'RMSG_REPLAY_REAL'', COMDAT

; 92   : 	const UINT RMSG_REPLAY_REAL			= ::RegisterWindowMessage(_T("RMSG_REPLAY_REAL"));

  00000	68 00 00 00 00	 push	 OFFSET ??_C@_0BB@IBKHOHJL@RMSG_REPLAY_REAL@
  00005	ff 15 00 00 00
	00		 call	 DWORD PTR __imp__RegisterWindowMessageA@4
  0000b	a3 00 00 00 00	 mov	 DWORD PTR ?RMSG_REPLAY_REAL@@3IB, eax
  00010	c3		 ret	 0
??__ERMSG_REPLAY_REAL@@YAXXZ ENDP			; `dynamic initializer for 'RMSG_REPLAY_REAL''
text$di	ENDS
; Function compile flags: /Ogtp
; File D:\git\src\IBK\IBK_DRFN\ProjSrc\SrcDrfn\Chart\comparechart\ChartMng.cpp
; File C:\Program Files (x86)\Microsoft Visual Studio\2019\Community\VC\Tools\MSVC\14.29.30133\atlmfc\include\afxwin1.inl
; File D:\git\src\IBK\IBK_DRFN\ProjSrc\SrcDrfn\Chart\comparechart\ChartMng.cpp
; File C:\Program Files (x86)\Microsoft Visual Studio\2019\Community\VC\Tools\MSVC\14.29.30133\atlmfc\include\afxwin1.inl
; File D:\git\src\IBK\IBK_DRFN\ProjSrc\SrcDrfn\Chart\comparechart\ChartMng.cpp
; File C:\Program Files (x86)\Microsoft Visual Studio\2019\Community\VC\Tools\MSVC\14.29.30133\atlmfc\include\afx.inl
;	COMDAT ??_GCChartMng@@UAEPAXI@Z
_TEXT	SEGMENT
___flags$ = 8						; size = 4
??_GCChartMng@@UAEPAXI@Z PROC				; CChartMng::`scalar deleting destructor', COMDAT
; _this$ = ecx
  00000	55		 push	 ebp
  00001	8b ec		 mov	 ebp, esp
; File D:\git\src\IBK\IBK_DRFN\ProjSrc\SrcDrfn\Chart\comparechart\ChartMng.cpp

; 189  : {

  00003	56		 push	 esi
  00004	8b f1		 mov	 esi, ecx

; 190  : }

  00006	8d 8e f8 07 00
	00		 lea	 ecx, DWORD PTR [esi+2040]
  0000c	c7 06 00 00 00
	00		 mov	 DWORD PTR [esi], OFFSET ??_7CChartMng@@6B@
  00012	ff 15 00 00 00
	00		 call	 DWORD PTR __imp_??1?$CStringT@DV?$StrTraitMFC_DLL@DV?$ChTraitsCRT@D@ATL@@@@@ATL@@QAE@XZ
  00018	8d 8e e8 07 00
	00		 lea	 ecx, DWORD PTR [esi+2024]
  0001e	ff 15 00 00 00
	00		 call	 DWORD PTR __imp_??1?$CStringT@DV?$StrTraitMFC_DLL@DV?$ChTraitsCRT@D@ATL@@@@@ATL@@QAE@XZ
  00024	8d 8e d8 07 00
	00		 lea	 ecx, DWORD PTR [esi+2008]
  0002a	ff 15 00 00 00
	00		 call	 DWORD PTR __imp_??1?$CStringT@DV?$StrTraitMFC_DLL@DV?$ChTraitsCRT@D@ATL@@@@@ATL@@QAE@XZ
  00030	8d 8e ac 07 00
	00		 lea	 ecx, DWORD PTR [esi+1964]
  00036	e8 00 00 00 00	 call	 ??1CStringArray@@UAE@XZ	; CStringArray::~CStringArray
  0003b	8d 8e 98 07 00
	00		 lea	 ecx, DWORD PTR [esi+1944]
  00041	e8 00 00 00 00	 call	 ??1CStringArray@@UAE@XZ	; CStringArray::~CStringArray
  00046	8d 8e 8c 07 00
	00		 lea	 ecx, DWORD PTR [esi+1932]
  0004c	ff 15 00 00 00
	00		 call	 DWORD PTR __imp_??1?$CStringT@DV?$StrTraitMFC_DLL@DV?$ChTraitsCRT@D@ATL@@@@@ATL@@QAE@XZ
  00052	8d 8e 7c 07 00
	00		 lea	 ecx, DWORD PTR [esi+1916]
  00058	ff 15 00 00 00
	00		 call	 DWORD PTR __imp_??1?$CStringT@DV?$StrTraitMFC_DLL@DV?$ChTraitsCRT@D@ATL@@@@@ATL@@QAE@XZ
  0005e	8d 8e 78 07 00
	00		 lea	 ecx, DWORD PTR [esi+1912]
  00064	ff 15 00 00 00
	00		 call	 DWORD PTR __imp_??1?$CStringT@DV?$StrTraitMFC_DLL@DV?$ChTraitsCRT@D@ATL@@@@@ATL@@QAE@XZ
  0006a	8d 8e 64 07 00
	00		 lea	 ecx, DWORD PTR [esi+1892]
  00070	ff 15 00 00 00
	00		 call	 DWORD PTR __imp_??1?$CStringT@DV?$StrTraitMFC_DLL@DV?$ChTraitsCRT@D@ATL@@@@@ATL@@QAE@XZ
  00076	8d 8e 60 07 00
	00		 lea	 ecx, DWORD PTR [esi+1888]
  0007c	ff 15 00 00 00
	00		 call	 DWORD PTR __imp_??1?$CStringT@DV?$StrTraitMFC_DLL@DV?$ChTraitsCRT@D@ATL@@@@@ATL@@QAE@XZ
  00082	8d 8e f8 00 00
	00		 lea	 ecx, DWORD PTR [esi+248]
; File C:\Program Files (x86)\Microsoft Visual Studio\2019\Community\VC\Tools\MSVC\14.29.30133\atlmfc\include\afxwin1.inl

; 155  : 	{ }

  00088	c7 01 00 00 00
	00		 mov	 DWORD PTR [ecx], OFFSET ??_7CFont@@6B@
  0008e	e8 00 00 00 00	 call	 ??1CGdiObject@@UAE@XZ	; CGdiObject::~CGdiObject
; File D:\git\src\IBK\IBK_DRFN\ProjSrc\SrcDrfn\Chart\comparechart\ChartMng.cpp

; 190  : }

  00093	8d 8e f0 00 00
	00		 lea	 ecx, DWORD PTR [esi+240]
; File C:\Program Files (x86)\Microsoft Visual Studio\2019\Community\VC\Tools\MSVC\14.29.30133\atlmfc\include\afxwin1.inl

; 155  : 	{ }

  00099	c7 01 00 00 00
	00		 mov	 DWORD PTR [ecx], OFFSET ??_7CFont@@6B@
  0009f	e8 00 00 00 00	 call	 ??1CGdiObject@@UAE@XZ	; CGdiObject::~CGdiObject
; File D:\git\src\IBK\IBK_DRFN\ProjSrc\SrcDrfn\Chart\comparechart\ChartMng.cpp

; 190  : }

  000a4	8d 8e a8 00 00
	00		 lea	 ecx, DWORD PTR [esi+168]
  000aa	ff 15 00 00 00
	00		 call	 DWORD PTR __imp_??1?$CStringT@DV?$StrTraitMFC_DLL@DV?$ChTraitsCRT@D@ATL@@@@@ATL@@QAE@XZ
  000b0	8d 8e a0 00 00
	00		 lea	 ecx, DWORD PTR [esi+160]
  000b6	ff 15 00 00 00
	00		 call	 DWORD PTR __imp_??1?$CStringT@DV?$StrTraitMFC_DLL@DV?$ChTraitsCRT@D@ATL@@@@@ATL@@QAE@XZ
  000bc	8b ce		 mov	 ecx, esi
  000be	e8 00 00 00 00	 call	 ??1CWnd@@UAE@XZ		; CWnd::~CWnd
  000c3	8b 45 08	 mov	 eax, DWORD PTR ___flags$[ebp]
  000c6	a8 01		 test	 al, 1
  000c8	74 22		 je	 SHORT $LN18@scalar
  000ca	a8 04		 test	 al, 4
  000cc	75 10		 jne	 SHORT $LN3@scalar
; File C:\Program Files (x86)\Microsoft Visual Studio\2019\Community\VC\Tools\MSVC\14.29.30133\atlmfc\include\afx.inl

; 112  : 	{ ::operator delete(p); }

  000ce	56		 push	 esi
  000cf	e8 00 00 00 00	 call	 ??3@YAXPAX@Z		; operator delete
  000d4	83 c4 04	 add	 esp, 4
  000d7	8b c6		 mov	 eax, esi
  000d9	5e		 pop	 esi
  000da	5d		 pop	 ebp
  000db	c2 04 00	 ret	 4
$LN3@scalar:
  000de	68 38 08 00 00	 push	 2104			; 00000838H
  000e3	56		 push	 esi
  000e4	e8 00 00 00 00	 call	 ?__global_delete@@YAXPAXI@Z ; __global_delete
  000e9	83 c4 08	 add	 esp, 8
$LN18@scalar:
  000ec	8b c6		 mov	 eax, esi
  000ee	5e		 pop	 esi
  000ef	5d		 pop	 ebp
  000f0	c2 04 00	 ret	 4
??_GCChartMng@@UAEPAXI@Z ENDP				; CChartMng::`scalar deleting destructor'
_TEXT	ENDS
; Function compile flags: /Ogtp
; File D:\git\src\IBK\IBK_DRFN\ProjSrc\SrcDrfn\Chart\comparechart\ChartMng.cpp
; File D:\git\src\IBK\IBK_DRFN\ProjSrc\SrcDrfn\Chart\comparechart\ChartItem.h
; File D:\git\src\IBK\IBK_DRFN\ProjSrc\SrcDrfn\Chart\comparechart\ChartMng.cpp
; File C:\Program Files (x86)\Microsoft Visual Studio\2019\Community\VC\Tools\MSVC\14.29.30133\atlmfc\include\cstringt.h
; File D:\git\src\IBK\IBK_DRFN\ProjSrc\SrcDrfn\Chart\comparechart\ChartMng.cpp
; File C:\Program Files (x86)\Microsoft Visual Studio\2019\Community\VC\Tools\MSVC\14.29.30133\atlmfc\include\cstringt.h
; File D:\git\src\IBK\IBK_DRFN\ProjSrc\SrcDrfn\Chart\comparechart\ChartMng.cpp
; File C:\Program Files (x86)\Microsoft Visual Studio\2019\Community\VC\Tools\MSVC\14.29.30133\atlmfc\include\cstringt.h
; File D:\git\src\IBK\IBK_DRFN\ProjSrc\SrcDrfn\Chart\comparechart\ChartMng.cpp
; File D:\git\src\IBK\IBK_DRFN\ProjSrc\SrcDrfn\Chart\comparechart\ChartItem.h
; File D:\git\src\IBK\IBK_DRFN\ProjSrc\SrcDrfn\Chart\comparechart\ChartMng.cpp
; File C:\Program Files (x86)\Microsoft Visual Studio\2019\Community\VC\Tools\MSVC\14.29.30133\atlmfc\include\atlsimpstr.h
; File D:\git\src\IBK\IBK_DRFN\ProjSrc\SrcDrfn\Chart\comparechart\ChartMng.cpp
; File C:\Program Files (x86)\Microsoft Visual Studio\2019\Community\VC\Tools\MSVC\14.29.30133\atlmfc\include\afxwin2.inl
; File D:\git\src\IBK\IBK_DRFN\ProjSrc\SrcDrfn\Chart\comparechart\ChartMng.cpp
; File C:\Program Files (x86)\Microsoft Visual Studio\2019\Community\VC\Tools\MSVC\14.29.30133\atlmfc\include\afxwin2.inl
; File D:\git\src\IBK\IBK_DRFN\ProjSrc\SrcDrfn\Chart\comparechart\ChartMng.cpp
;	COMDAT ?OnChartMngCodeScdClear@CChartMng@@QAEXPAVCChartItem@@H@Z
_TEXT	SEGMENT
$T2 = -40						; size = 4
_this$1$ = -36						; size = 4
tv324 = -32						; size = 4
_nRowIndex$1$ = -28					; size = 4
$T3 = -24						; size = 4
$T4 = -20						; size = 4
_strOldCode$ = -16					; size = 4
__$EHRec$ = -12						; size = 12
$T5 = 8							; size = 4
_pItem$ = 8						; size = 4
_bAddMode$ = 12						; size = 4
?OnChartMngCodeScdClear@CChartMng@@QAEXPAVCChartItem@@H@Z PROC ; CChartMng::OnChartMngCodeScdClear, COMDAT
; _this$ = ecx

; 4942 : {

  00000	55		 push	 ebp
  00001	8b ec		 mov	 ebp, esp
  00003	6a ff		 push	 -1
  00005	68 00 00 00 00	 push	 __ehhandler$?OnChartMngCodeScdClear@CChartMng@@QAEXPAVCChartItem@@H@Z
  0000a	64 a1 00 00 00
	00		 mov	 eax, DWORD PTR fs:0
  00010	50		 push	 eax
  00011	83 ec 1c	 sub	 esp, 28			; 0000001cH
  00014	53		 push	 ebx
  00015	56		 push	 esi
  00016	57		 push	 edi
  00017	a1 00 00 00 00	 mov	 eax, DWORD PTR ___security_cookie
  0001c	33 c5		 xor	 eax, ebp
  0001e	50		 push	 eax
  0001f	8d 45 f4	 lea	 eax, DWORD PTR __$EHRec$[ebp]
  00022	64 a3 00 00 00
	00		 mov	 DWORD PTR fs:0, eax
  00028	8b c1		 mov	 eax, ecx
  0002a	89 45 dc	 mov	 DWORD PTR _this$1$[ebp], eax

; 4943 : 	EACH_CHARTJOB_START()

  0002d	33 c9		 xor	 ecx, ecx
  0002f	c7 45 ec 00 00
	00 00		 mov	 DWORD PTR $T4[ebp], 0
  00036	89 4d e4	 mov	 DWORD PTR _nRowIndex$1$[ebp], ecx
  00039	39 88 4c 07 00
	00		 cmp	 DWORD PTR [eax+1868], ecx
  0003f	0f 8e ad 00 00
	00		 jle	 $LN3@OnChartMng
  00045	8d 90 08 01 00
	00		 lea	 edx, DWORD PTR [eax+264]
  0004b	89 55 e0	 mov	 DWORD PTR tv324[ebp], edx
  0004e	66 90		 npad	 2
$LL4@OnChartMng:
  00050	33 db		 xor	 ebx, ebx
  00052	39 98 48 07 00
	00		 cmp	 DWORD PTR [eax+1864], ebx
  00058	0f 8e 7e 00 00
	00		 jle	 $LN2@OnChartMng
  0005e	8b fa		 mov	 edi, edx
$LL7@OnChartMng:
  00060	8b 37		 mov	 esi, DWORD PTR [edi]
  00062	85 f6		 test	 esi, esi
  00064	74 64		 je	 SHORT $LN5@OnChartMng

; 4944 : 		if(pChartItem!=pItem)			

  00066	8b 4d 08	 mov	 ecx, DWORD PTR _pItem$[ebp]
  00069	3b f1		 cmp	 esi, ecx
  0006b	74 5d		 je	 SHORT $LN5@OnChartMng
; File D:\git\src\IBK\IBK_DRFN\ProjSrc\SrcDrfn\Chart\comparechart\ChartItem.h

; 116  : 	CString GetOldChartCode() { return m_strOldCode; }

  0006d	8d 81 90 00 00
	00		 lea	 eax, DWORD PTR [ecx+144]
  00073	50		 push	 eax
  00074	8d 4d e8	 lea	 ecx, DWORD PTR $T3[ebp]
  00077	ff 15 00 00 00
	00		 call	 DWORD PTR __imp_??0?$CStringT@DV?$StrTraitMFC_DLL@DV?$ChTraitsCRT@D@ATL@@@@@ATL@@QAE@ABV01@@Z
  0007d	83 4d ec 01	 or	 DWORD PTR $T4[ebp], 1
; File D:\git\src\IBK\IBK_DRFN\ProjSrc\SrcDrfn\Chart\comparechart\ChartMng.cpp

; 4946 : 			if(pChartItem->GetDataCode()==pItem->GetOldChartCode())

  00081	6a 00		 push	 0
  00083	8d 45 d8	 lea	 eax, DWORD PTR $T2[ebp]
  00086	c7 45 fc 00 00
	00 00		 mov	 DWORD PTR __$EHRec$[ebp+8], 0
  0008d	50		 push	 eax
  0008e	8b ce		 mov	 ecx, esi
  00090	e8 00 00 00 00	 call	 ?GetDataCode@CChartItem@@QAE?AV?$CStringT@DV?$StrTraitMFC_DLL@DV?$ChTraitsCRT@D@ATL@@@@@ATL@@H@Z ; CChartItem::GetDataCode
; File C:\Program Files (x86)\Microsoft Visual Studio\2019\Community\VC\Tools\MSVC\14.29.30133\atlmfc\include\cstringt.h

; 2479 : 		return(str1.Compare(str2) == 0);

  00095	ff 75 e8	 push	 DWORD PTR $T3[ebp]
  00098	8b c8		 mov	 ecx, eax
; File D:\git\src\IBK\IBK_DRFN\ProjSrc\SrcDrfn\Chart\comparechart\ChartMng.cpp

; 4946 : 			if(pChartItem->GetDataCode()==pItem->GetOldChartCode())

  0009a	c6 45 fc 01	 mov	 BYTE PTR __$EHRec$[ebp+8], 1
; File C:\Program Files (x86)\Microsoft Visual Studio\2019\Community\VC\Tools\MSVC\14.29.30133\atlmfc\include\cstringt.h

; 2479 : 		return(str1.Compare(str2) == 0);

  0009e	ff 15 00 00 00
	00		 call	 DWORD PTR __imp_?Compare@?$CStringT@DV?$StrTraitMFC_DLL@DV?$ChTraitsCRT@D@ATL@@@@@ATL@@QBEHPBD@Z
; File D:\git\src\IBK\IBK_DRFN\ProjSrc\SrcDrfn\Chart\comparechart\ChartMng.cpp

; 4946 : 			if(pChartItem->GetDataCode()==pItem->GetOldChartCode())

  000a4	8d 4d d8	 lea	 ecx, DWORD PTR $T2[ebp]
; File C:\Program Files (x86)\Microsoft Visual Studio\2019\Community\VC\Tools\MSVC\14.29.30133\atlmfc\include\cstringt.h

; 2479 : 		return(str1.Compare(str2) == 0);

  000a7	8b f0		 mov	 esi, eax
; File D:\git\src\IBK\IBK_DRFN\ProjSrc\SrcDrfn\Chart\comparechart\ChartMng.cpp

; 4946 : 			if(pChartItem->GetDataCode()==pItem->GetOldChartCode())

  000a9	ff 15 00 00 00
	00		 call	 DWORD PTR __imp_??1?$CStringT@DV?$StrTraitMFC_DLL@DV?$ChTraitsCRT@D@ATL@@@@@ATL@@QAE@XZ
  000af	8d 4d e8	 lea	 ecx, DWORD PTR $T3[ebp]
  000b2	c7 45 fc ff ff
	ff ff		 mov	 DWORD PTR __$EHRec$[ebp+8], -1
  000b9	ff 15 00 00 00
	00		 call	 DWORD PTR __imp_??1?$CStringT@DV?$StrTraitMFC_DLL@DV?$ChTraitsCRT@D@ATL@@@@@ATL@@QAE@XZ
  000bf	85 f6		 test	 esi, esi
  000c1	0f 84 9c 00 00
	00		 je	 $LN1@OnChartMng
  000c7	8b 45 dc	 mov	 eax, DWORD PTR _this$1$[ebp]
$LN5@OnChartMng:

; 4943 : 	EACH_CHARTJOB_START()

  000ca	43		 inc	 ebx
  000cb	83 c7 04	 add	 edi, 4
  000ce	3b 98 48 07 00
	00		 cmp	 ebx, DWORD PTR [eax+1864]
  000d4	7c 8a		 jl	 SHORT $LL7@OnChartMng
  000d6	8b 4d e4	 mov	 ecx, DWORD PTR _nRowIndex$1$[ebp]
  000d9	8b 55 e0	 mov	 edx, DWORD PTR tv324[ebp]
$LN2@OnChartMng:
  000dc	41		 inc	 ecx
  000dd	83 c2 50	 add	 edx, 80			; 00000050H
  000e0	89 4d e4	 mov	 DWORD PTR _nRowIndex$1$[ebp], ecx
  000e3	89 55 e0	 mov	 DWORD PTR tv324[ebp], edx
  000e6	3b 88 4c 07 00
	00		 cmp	 ecx, DWORD PTR [eax+1868]
  000ec	0f 8c 5e ff ff
	ff		 jl	 $LL4@OnChartMng
$LN3@OnChartMng:
; File D:\git\src\IBK\IBK_DRFN\ProjSrc\SrcDrfn\Chart\comparechart\ChartItem.h

; 116  : 	CString GetOldChartCode() { return m_strOldCode; }

  000f2	8b 45 08	 mov	 eax, DWORD PTR _pItem$[ebp]
  000f5	8d 4d f0	 lea	 ecx, DWORD PTR _strOldCode$[ebp]
  000f8	05 90 00 00 00	 add	 eax, 144		; 00000090H
  000fd	50		 push	 eax
  000fe	ff 15 00 00 00
	00		 call	 DWORD PTR __imp_??0?$CStringT@DV?$StrTraitMFC_DLL@DV?$ChTraitsCRT@D@ATL@@@@@ATL@@QAE@ABV01@@Z
; File D:\git\src\IBK\IBK_DRFN\ProjSrc\SrcDrfn\Chart\comparechart\ChartMng.cpp

; 4953 : 	CString strOldCode = pItem->GetOldChartCode(); strOldCode.TrimLeft(); strOldCode.TrimRight();

  00104	8d 4d f0	 lea	 ecx, DWORD PTR _strOldCode$[ebp]
  00107	c7 45 fc 02 00
	00 00		 mov	 DWORD PTR __$EHRec$[ebp+8], 2
  0010e	ff 15 00 00 00
	00		 call	 DWORD PTR __imp_?TrimLeft@?$CStringT@DV?$StrTraitMFC_DLL@DV?$ChTraitsCRT@D@ATL@@@@@ATL@@QAEAAV12@XZ
  00114	8d 4d f0	 lea	 ecx, DWORD PTR _strOldCode$[ebp]
  00117	ff 15 00 00 00
	00		 call	 DWORD PTR __imp_?TrimRight@?$CStringT@DV?$StrTraitMFC_DLL@DV?$ChTraitsCRT@D@ATL@@@@@ATL@@QAEAAV12@XZ
; File C:\Program Files (x86)\Microsoft Visual Studio\2019\Community\VC\Tools\MSVC\14.29.30133\atlmfc\include\atlsimpstr.h

; 519  : 		return( GetData()->nDataLength );

  0011d	8b 45 f0	 mov	 eax, DWORD PTR _strOldCode$[ebp]
; File D:\git\src\IBK\IBK_DRFN\ProjSrc\SrcDrfn\Chart\comparechart\ChartMng.cpp

; 4954 : 	if(strOldCode.GetLength())

  00120	83 78 f4 00	 cmp	 DWORD PTR [eax-12], 0
  00124	74 34		 je	 SHORT $LN11@OnChartMng

; 4955 : 		((CStdDialog*)GetParent())->OnCodeScdClear(strOldCode, bAddMode);

  00126	ff 75 0c	 push	 DWORD PTR _bAddMode$[ebp]
  00129	8d 45 f0	 lea	 eax, DWORD PTR _strOldCode$[ebp]
  0012c	51		 push	 ecx
  0012d	8b cc		 mov	 ecx, esp
  0012f	89 65 08	 mov	 DWORD PTR $T5[ebp], esp
  00132	50		 push	 eax
  00133	ff 15 00 00 00
	00		 call	 DWORD PTR __imp_??0?$CStringT@DV?$StrTraitMFC_DLL@DV?$ChTraitsCRT@D@ATL@@@@@ATL@@QAE@ABV01@@Z
; File C:\Program Files (x86)\Microsoft Visual Studio\2019\Community\VC\Tools\MSVC\14.29.30133\atlmfc\include\afxwin2.inl

; 213  : 	{ ASSERT(::IsWindow(m_hWnd)); return CWnd::FromHandle(::GetParent(m_hWnd)); }

  00139	8b 45 dc	 mov	 eax, DWORD PTR _this$1$[ebp]
; File D:\git\src\IBK\IBK_DRFN\ProjSrc\SrcDrfn\Chart\comparechart\ChartMng.cpp

; 4955 : 		((CStdDialog*)GetParent())->OnCodeScdClear(strOldCode, bAddMode);

  0013c	c6 45 fc 03	 mov	 BYTE PTR __$EHRec$[ebp+8], 3
; File C:\Program Files (x86)\Microsoft Visual Studio\2019\Community\VC\Tools\MSVC\14.29.30133\atlmfc\include\afxwin2.inl

; 213  : 	{ ASSERT(::IsWindow(m_hWnd)); return CWnd::FromHandle(::GetParent(m_hWnd)); }

  00140	ff 70 20	 push	 DWORD PTR [eax+32]
  00143	ff 15 00 00 00
	00		 call	 DWORD PTR __imp__GetParent@4
  00149	50		 push	 eax
  0014a	e8 00 00 00 00	 call	 ?FromHandle@CWnd@@SGPAV1@PAUHWND__@@@Z ; CWnd::FromHandle
; File D:\git\src\IBK\IBK_DRFN\ProjSrc\SrcDrfn\Chart\comparechart\ChartMng.cpp

; 4955 : 		((CStdDialog*)GetParent())->OnCodeScdClear(strOldCode, bAddMode);

  0014f	8b c8		 mov	 ecx, eax
  00151	c6 45 fc 02	 mov	 BYTE PTR __$EHRec$[ebp+8], 2
  00155	e8 00 00 00 00	 call	 ?OnCodeScdClear@CStdDialog@@QAEXV?$CStringT@DV?$StrTraitMFC_DLL@DV?$ChTraitsCRT@D@ATL@@@@@ATL@@H@Z ; CStdDialog::OnCodeScdClear
$LN11@OnChartMng:

; 4956 : }

  0015a	8d 4d f0	 lea	 ecx, DWORD PTR _strOldCode$[ebp]
  0015d	ff 15 00 00 00
	00		 call	 DWORD PTR __imp_??1?$CStringT@DV?$StrTraitMFC_DLL@DV?$ChTraitsCRT@D@ATL@@@@@ATL@@QAE@XZ
$LN1@OnChartMng:
  00163	8b 4d f4	 mov	 ecx, DWORD PTR __$EHRec$[ebp]
  00166	64 89 0d 00 00
	00 00		 mov	 DWORD PTR fs:0, ecx
  0016d	59		 pop	 ecx
  0016e	5f		 pop	 edi
  0016f	5e		 pop	 esi
  00170	5b		 pop	 ebx
  00171	8b e5		 mov	 esp, ebp
  00173	5d		 pop	 ebp
  00174	c2 08 00	 ret	 8
_TEXT	ENDS
;	COMDAT text$x
text$x	SEGMENT
__unwindfunclet$?OnChartMngCodeScdClear@CChartMng@@QAEXPAVCChartItem@@H@Z$0:
  00000	8d 4d e8	 lea	 ecx, DWORD PTR $T3[ebp]
  00003	ff 25 00 00 00
	00		 jmp	 DWORD PTR __imp_??1?$CStringT@DV?$StrTraitMFC_DLL@DV?$ChTraitsCRT@D@ATL@@@@@ATL@@QAE@XZ
__unwindfunclet$?OnChartMngCodeScdClear@CChartMng@@QAEXPAVCChartItem@@H@Z$1:
  00009	8d 4d d8	 lea	 ecx, DWORD PTR $T2[ebp]
  0000c	ff 25 00 00 00
	00		 jmp	 DWORD PTR __imp_??1?$CStringT@DV?$StrTraitMFC_DLL@DV?$ChTraitsCRT@D@ATL@@@@@ATL@@QAE@XZ
__unwindfunclet$?OnChartMngCodeScdClear@CChartMng@@QAEXPAVCChartItem@@H@Z$2:
  00012	8d 4d f0	 lea	 ecx, DWORD PTR _strOldCode$[ebp]
  00015	ff 25 00 00 00
	00		 jmp	 DWORD PTR __imp_??1?$CStringT@DV?$StrTraitMFC_DLL@DV?$ChTraitsCRT@D@ATL@@@@@ATL@@QAE@XZ
__unwindfunclet$?OnChartMngCodeScdClear@CChartMng@@QAEXPAVCChartItem@@H@Z$3:
  0001b	8b 4d 08	 mov	 ecx, DWORD PTR $T5[ebp]
  0001e	ff 25 00 00 00
	00		 jmp	 DWORD PTR __imp_??1?$CStringT@DV?$StrTraitMFC_DLL@DV?$ChTraitsCRT@D@ATL@@@@@ATL@@QAE@XZ
  00024	cc		 int	 3
  00025	cc		 int	 3
  00026	cc		 int	 3
  00027	cc		 int	 3
  00028	cc		 int	 3
__ehhandler$?OnChartMngCodeScdClear@CChartMng@@QAEXPAVCChartItem@@H@Z:
  00029	90		 npad	 1
  0002a	90		 npad	 1
  0002b	8b 54 24 08	 mov	 edx, DWORD PTR [esp+8]
  0002f	8d 42 0c	 lea	 eax, DWORD PTR [edx+12]
  00032	8b 4a d4	 mov	 ecx, DWORD PTR [edx-44]
  00035	33 c8		 xor	 ecx, eax
  00037	e8 00 00 00 00	 call	 @__security_check_cookie@4
  0003c	b8 00 00 00 00	 mov	 eax, OFFSET __ehfuncinfo$?OnChartMngCodeScdClear@CChartMng@@QAEXPAVCChartItem@@H@Z
  00041	e9 00 00 00 00	 jmp	 ___CxxFrameHandler3
text$x	ENDS
?OnChartMngCodeScdClear@CChartMng@@QAEXPAVCChartItem@@H@Z ENDP ; CChartMng::OnChartMngCodeScdClear
; Function compile flags: /Ogtp
; File D:\git\src\IBK\IBK_DRFN\ProjSrc\SrcDrfn\Chart\comparechart\ChartMng.cpp
; File C:\Program Files (x86)\Microsoft Visual Studio\2019\Community\VC\Tools\MSVC\14.29.30133\atlmfc\include\atlsimpstr.h
; File D:\git\src\IBK\IBK_DRFN\ProjSrc\SrcDrfn\Chart\comparechart\ChartMng.cpp
; File C:\Program Files (x86)\Microsoft Visual Studio\2019\Community\VC\Tools\MSVC\14.29.30133\atlmfc\include\afxwin2.inl
; File D:\git\src\IBK\IBK_DRFN\ProjSrc\SrcDrfn\Chart\comparechart\ChartMng.cpp
; File C:\Program Files (x86)\Microsoft Visual Studio\2019\Community\VC\Tools\MSVC\14.29.30133\atlmfc\include\afxwin2.inl
; File D:\git\src\IBK\IBK_DRFN\ProjSrc\SrcDrfn\Chart\comparechart\ChartMng.cpp
;	COMDAT ?OnAllCodeScdClear@CChartMng@@QAEXXZ
_TEXT	SEGMENT
$T2 = -36						; size = 4
$T3 = -32						; size = 4
tv284 = -28						; size = 4
_nRowIndex$1$ = -24					; size = 4
_nColIndex$1$ = -20					; size = 4
_this$1$ = -16						; size = 4
__$EHRec$ = -12						; size = 12
?OnAllCodeScdClear@CChartMng@@QAEXXZ PROC		; CChartMng::OnAllCodeScdClear, COMDAT
; _this$ = ecx

; 4979 : {

  00000	55		 push	 ebp
  00001	8b ec		 mov	 ebp, esp
  00003	6a ff		 push	 -1
  00005	68 00 00 00 00	 push	 __ehhandler$?OnAllCodeScdClear@CChartMng@@QAEXXZ
  0000a	64 a1 00 00 00
	00		 mov	 eax, DWORD PTR fs:0
  00010	50		 push	 eax
  00011	83 ec 18	 sub	 esp, 24			; 00000018H
  00014	53		 push	 ebx
  00015	56		 push	 esi
  00016	57		 push	 edi
  00017	a1 00 00 00 00	 mov	 eax, DWORD PTR ___security_cookie
  0001c	33 c5		 xor	 eax, ebp
  0001e	50		 push	 eax
  0001f	8d 45 f4	 lea	 eax, DWORD PTR __$EHRec$[ebp]
  00022	64 a3 00 00 00
	00		 mov	 DWORD PTR fs:0, eax
  00028	8b d9		 mov	 ebx, ecx
  0002a	89 5d f0	 mov	 DWORD PTR _this$1$[ebp], ebx

; 4980 : 	EACH_CHARTJOB_START()

  0002d	33 c0		 xor	 eax, eax
  0002f	89 45 e8	 mov	 DWORD PTR _nRowIndex$1$[ebp], eax
  00032	39 83 4c 07 00
	00		 cmp	 DWORD PTR [ebx+1868], eax
  00038	0f 8e c7 00 00
	00		 jle	 $LN3@OnAllCodeS
  0003e	8d 8b 08 01 00
	00		 lea	 ecx, DWORD PTR [ebx+264]
  00044	89 4d e4	 mov	 DWORD PTR tv284[ebp], ecx
  00047	66 0f 1f 84 00
	00 00 00 00	 npad	 9
$LL4@OnAllCodeS:
  00050	83 bb 48 07 00
	00 00		 cmp	 DWORD PTR [ebx+1864], 0
  00057	c7 45 ec 00 00
	00 00		 mov	 DWORD PTR _nColIndex$1$[ebp], 0
  0005e	0f 8e 8b 00 00
	00		 jle	 $LN2@OnAllCodeS
  00064	8b 45 f0	 mov	 eax, DWORD PTR _this$1$[ebp]
  00067	8b d9		 mov	 ebx, ecx
  00069	0f 1f 80 00 00
	00 00		 npad	 7
$LL7@OnAllCodeS:
  00070	8b 33		 mov	 esi, DWORD PTR [ebx]
  00072	85 f6		 test	 esi, esi
  00074	74 5e		 je	 SHORT $LN5@OnAllCodeS

; 4983 : 			if(pChartItem->GetDataCode())

  00076	6a 00		 push	 0
  00078	8d 45 e0	 lea	 eax, DWORD PTR $T3[ebp]
  0007b	8b ce		 mov	 ecx, esi
  0007d	50		 push	 eax
  0007e	e8 00 00 00 00	 call	 ?GetDataCode@CChartItem@@QAE?AV?$CStringT@DV?$StrTraitMFC_DLL@DV?$ChTraitsCRT@D@ATL@@@@@ATL@@H@Z ; CChartItem::GetDataCode
  00083	8d 4d e0	 lea	 ecx, DWORD PTR $T3[ebp]
; File C:\Program Files (x86)\Microsoft Visual Studio\2019\Community\VC\Tools\MSVC\14.29.30133\atlmfc\include\atlsimpstr.h

; 377  : 		return( m_pszData );

  00086	8b 38		 mov	 edi, DWORD PTR [eax]
; File D:\git\src\IBK\IBK_DRFN\ProjSrc\SrcDrfn\Chart\comparechart\ChartMng.cpp

; 4983 : 			if(pChartItem->GetDataCode())

  00088	ff 15 00 00 00
	00		 call	 DWORD PTR __imp_??1?$CStringT@DV?$StrTraitMFC_DLL@DV?$ChTraitsCRT@D@ATL@@@@@ATL@@QAE@XZ
  0008e	85 ff		 test	 edi, edi
  00090	74 3f		 je	 SHORT $LN28@OnAllCodeS

; 4985 : 				((CStdDialog*)GetParent())->OnCodeScdClear(pChartItem->GetDataCode(), pChartItem->IsAddMode());

  00092	8b ce		 mov	 ecx, esi
  00094	e8 00 00 00 00	 call	 ?IsAddMode@CChartItem@@QAEHXZ ; CChartItem::IsAddMode
  00099	50		 push	 eax
  0009a	51		 push	 ecx
  0009b	8b c4		 mov	 eax, esp
  0009d	89 65 dc	 mov	 DWORD PTR $T2[ebp], esp
  000a0	6a 00		 push	 0
  000a2	50		 push	 eax
  000a3	8b ce		 mov	 ecx, esi
  000a5	e8 00 00 00 00	 call	 ?GetDataCode@CChartItem@@QAE?AV?$CStringT@DV?$StrTraitMFC_DLL@DV?$ChTraitsCRT@D@ATL@@@@@ATL@@H@Z ; CChartItem::GetDataCode
; File C:\Program Files (x86)\Microsoft Visual Studio\2019\Community\VC\Tools\MSVC\14.29.30133\atlmfc\include\afxwin2.inl

; 213  : 	{ ASSERT(::IsWindow(m_hWnd)); return CWnd::FromHandle(::GetParent(m_hWnd)); }

  000aa	8b 45 f0	 mov	 eax, DWORD PTR _this$1$[ebp]
; File D:\git\src\IBK\IBK_DRFN\ProjSrc\SrcDrfn\Chart\comparechart\ChartMng.cpp

; 4985 : 				((CStdDialog*)GetParent())->OnCodeScdClear(pChartItem->GetDataCode(), pChartItem->IsAddMode());

  000ad	c7 45 fc 00 00
	00 00		 mov	 DWORD PTR __$EHRec$[ebp+8], 0
; File C:\Program Files (x86)\Microsoft Visual Studio\2019\Community\VC\Tools\MSVC\14.29.30133\atlmfc\include\afxwin2.inl

; 213  : 	{ ASSERT(::IsWindow(m_hWnd)); return CWnd::FromHandle(::GetParent(m_hWnd)); }

  000b4	ff 70 20	 push	 DWORD PTR [eax+32]
  000b7	ff 15 00 00 00
	00		 call	 DWORD PTR __imp__GetParent@4
  000bd	50		 push	 eax
  000be	e8 00 00 00 00	 call	 ?FromHandle@CWnd@@SGPAV1@PAUHWND__@@@Z ; CWnd::FromHandle
; File D:\git\src\IBK\IBK_DRFN\ProjSrc\SrcDrfn\Chart\comparechart\ChartMng.cpp

; 4985 : 				((CStdDialog*)GetParent())->OnCodeScdClear(pChartItem->GetDataCode(), pChartItem->IsAddMode());

  000c3	8b c8		 mov	 ecx, eax
  000c5	c7 45 fc ff ff
	ff ff		 mov	 DWORD PTR __$EHRec$[ebp+8], -1
  000cc	e8 00 00 00 00	 call	 ?OnCodeScdClear@CStdDialog@@QAEXV?$CStringT@DV?$StrTraitMFC_DLL@DV?$ChTraitsCRT@D@ATL@@@@@ATL@@H@Z ; CStdDialog::OnCodeScdClear
$LN28@OnAllCodeS:

; 4980 : 	EACH_CHARTJOB_START()

  000d1	8b 45 f0	 mov	 eax, DWORD PTR _this$1$[ebp]
$LN5@OnAllCodeS:
  000d4	8b 75 ec	 mov	 esi, DWORD PTR _nColIndex$1$[ebp]
  000d7	83 c3 04	 add	 ebx, 4
  000da	46		 inc	 esi
  000db	89 75 ec	 mov	 DWORD PTR _nColIndex$1$[ebp], esi
  000de	3b b0 48 07 00
	00		 cmp	 esi, DWORD PTR [eax+1864]
  000e4	7c 8a		 jl	 SHORT $LL7@OnAllCodeS
  000e6	8b 5d f0	 mov	 ebx, DWORD PTR _this$1$[ebp]
  000e9	8b 45 e8	 mov	 eax, DWORD PTR _nRowIndex$1$[ebp]
  000ec	8b 4d e4	 mov	 ecx, DWORD PTR tv284[ebp]
$LN2@OnAllCodeS:
  000ef	40		 inc	 eax
  000f0	83 c1 50	 add	 ecx, 80			; 00000050H
  000f3	89 45 e8	 mov	 DWORD PTR _nRowIndex$1$[ebp], eax
  000f6	89 4d e4	 mov	 DWORD PTR tv284[ebp], ecx
  000f9	3b 83 4c 07 00
	00		 cmp	 eax, DWORD PTR [ebx+1868]
  000ff	0f 8c 4b ff ff
	ff		 jl	 $LL4@OnAllCodeS
$LN3@OnAllCodeS:

; 4986 : 			}			
; 4987 : 		}
; 4988 : 	EACH_CHARTJOB_END()
; 4989 : }

  00105	8b 4d f4	 mov	 ecx, DWORD PTR __$EHRec$[ebp]
  00108	64 89 0d 00 00
	00 00		 mov	 DWORD PTR fs:0, ecx
  0010f	59		 pop	 ecx
  00110	5f		 pop	 edi
  00111	5e		 pop	 esi
  00112	5b		 pop	 ebx
  00113	8b e5		 mov	 esp, ebp
  00115	5d		 pop	 ebp
  00116	c3		 ret	 0
_TEXT	ENDS
;	COMDAT text$x
text$x	SEGMENT
__unwindfunclet$?OnAllCodeScdClear@CChartMng@@QAEXXZ$1:
  00000	8b 4d dc	 mov	 ecx, DWORD PTR $T2[ebp]
  00003	ff 25 00 00 00
	00		 jmp	 DWORD PTR __imp_??1?$CStringT@DV?$StrTraitMFC_DLL@DV?$ChTraitsCRT@D@ATL@@@@@ATL@@QAE@XZ
  00009	cc		 int	 3
  0000a	cc		 int	 3
  0000b	cc		 int	 3
  0000c	cc		 int	 3
  0000d	cc		 int	 3
__ehhandler$?OnAllCodeScdClear@CChartMng@@QAEXXZ:
  0000e	90		 npad	 1
  0000f	90		 npad	 1
  00010	8b 54 24 08	 mov	 edx, DWORD PTR [esp+8]
  00014	8d 42 0c	 lea	 eax, DWORD PTR [edx+12]
  00017	8b 4a d8	 mov	 ecx, DWORD PTR [edx-40]
  0001a	33 c8		 xor	 ecx, eax
  0001c	e8 00 00 00 00	 call	 @__security_check_cookie@4
  00021	b8 00 00 00 00	 mov	 eax, OFFSET __ehfuncinfo$?OnAllCodeScdClear@CChartMng@@QAEXXZ
  00026	e9 00 00 00 00	 jmp	 ___CxxFrameHandler3
text$x	ENDS
?OnAllCodeScdClear@CChartMng@@QAEXXZ ENDP		; CChartMng::OnAllCodeScdClear
; Function compile flags: /Ogtp
; File D:\git\src\IBK\IBK_DRFN\ProjSrc\SrcDrfn\Chart\comparechart\ChartMng.cpp
; File C:\Program Files (x86)\Microsoft Visual Studio\2019\Community\VC\Tools\MSVC\14.29.30133\atlmfc\include\atltypes.h
; File D:\git\src\IBK\IBK_DRFN\ProjSrc\SrcDrfn\Chart\comparechart\ChartMng.cpp
; File C:\Program Files (x86)\Microsoft Visual Studio\2019\Community\VC\Tools\MSVC\14.29.30133\atlmfc\include\atltypes.h
; File D:\git\src\IBK\IBK_DRFN\ProjSrc\SrcDrfn\Chart\comparechart\ChartMng.cpp
; File C:\Program Files (x86)\Microsoft Visual Studio\2019\Community\VC\Tools\MSVC\14.29.30133\atlmfc\include\afxwin2.inl
; File D:\git\src\IBK\IBK_DRFN\ProjSrc\SrcDrfn\Chart\comparechart\ChartMng.cpp
; File C:\Program Files (x86)\Microsoft Visual Studio\2019\Community\VC\Tools\MSVC\14.29.30133\atlmfc\include\afxwin2.inl
; File C:\Program Files (x86)\Microsoft Visual Studio\2019\Community\VC\Tools\MSVC\14.29.30133\atlmfc\include\atltypes.h
; File C:\Program Files (x86)\Microsoft Visual Studio\2019\Community\VC\Tools\MSVC\14.29.30133\atlmfc\include\afxwin2.inl
; File C:\Program Files (x86)\Microsoft Visual Studio\2019\Community\VC\Tools\MSVC\14.29.30133\atlmfc\include\atltypes.h
; File D:\git\src\IBK\IBK_DRFN\ProjSrc\SrcDrfn\Chart\comparechart\ChartMng.cpp
;	COMDAT ?fnMenuLoad@CChartMng@@QAEHHH@Z
_TEXT	SEGMENT
_pt$ = -36						; size = 8
_ps$ = -28						; size = 8
_rect$ = -20						; size = 16
__$ArrayPad$ = -4					; size = 4
_bOnlyCheck$ = 8					; size = 4
_nScreenType$ = 12					; size = 4
?fnMenuLoad@CChartMng@@QAEHHH@Z PROC			; CChartMng::fnMenuLoad, COMDAT
; _this$ = ecx

; 6202 : {

  00000	55		 push	 ebp
  00001	8b ec		 mov	 ebp, esp
  00003	83 ec 24	 sub	 esp, 36			; 00000024H
  00006	a1 00 00 00 00	 mov	 eax, DWORD PTR ___security_cookie
  0000b	33 c5		 xor	 eax, ebp
  0000d	89 45 fc	 mov	 DWORD PTR __$ArrayPad$[ebp], eax
  00010	56		 push	 esi

; 6204 : 	GetCursorPos(&ps);

  00011	8d 45 e4	 lea	 eax, DWORD PTR _ps$[ebp]
; File C:\Program Files (x86)\Microsoft Visual Studio\2019\Community\VC\Tools\MSVC\14.29.30133\atlmfc\include\atltypes.h

; 400  : 	x = 0;

  00014	c7 45 e4 00 00
	00 00		 mov	 DWORD PTR _ps$[ebp], 0
; File D:\git\src\IBK\IBK_DRFN\ProjSrc\SrcDrfn\Chart\comparechart\ChartMng.cpp

; 6204 : 	GetCursorPos(&ps);

  0001b	50		 push	 eax
  0001c	8b f1		 mov	 esi, ecx
; File C:\Program Files (x86)\Microsoft Visual Studio\2019\Community\VC\Tools\MSVC\14.29.30133\atlmfc\include\atltypes.h

; 401  : 	y = 0;

  0001e	c7 45 e8 00 00
	00 00		 mov	 DWORD PTR _ps$[ebp+4], 0
; File D:\git\src\IBK\IBK_DRFN\ProjSrc\SrcDrfn\Chart\comparechart\ChartMng.cpp

; 6204 : 	GetCursorPos(&ps);

  00025	ff 15 00 00 00
	00		 call	 DWORD PTR __imp__GetCursorPos@4

; 6205 : 	pt = ps;

  0002b	8b 45 e4	 mov	 eax, DWORD PTR _ps$[ebp]
  0002e	8b 4d e8	 mov	 ecx, DWORD PTR _ps$[ebp+4]
  00031	89 45 dc	 mov	 DWORD PTR _pt$[ebp], eax
; File C:\Program Files (x86)\Microsoft Visual Studio\2019\Community\VC\Tools\MSVC\14.29.30133\atlmfc\include\afxwin2.inl

; 94   : 	{ ASSERT(::IsWindow(m_hWnd)); ::ScreenToClient(m_hWnd, lpPoint); }

  00034	8d 45 dc	 lea	 eax, DWORD PTR _pt$[ebp]
  00037	50		 push	 eax
  00038	ff 76 20	 push	 DWORD PTR [esi+32]
; File D:\git\src\IBK\IBK_DRFN\ProjSrc\SrcDrfn\Chart\comparechart\ChartMng.cpp

; 6205 : 	pt = ps;

  0003b	89 4d e0	 mov	 DWORD PTR _pt$[ebp+4], ecx
; File C:\Program Files (x86)\Microsoft Visual Studio\2019\Community\VC\Tools\MSVC\14.29.30133\atlmfc\include\afxwin2.inl

; 94   : 	{ ASSERT(::IsWindow(m_hWnd)); ::ScreenToClient(m_hWnd, lpPoint); }

  0003e	ff 15 00 00 00
	00		 call	 DWORD PTR __imp__ScreenToClient@8

; 86   : 	{ ASSERT(::IsWindow(m_hWnd)); ::GetClientRect(m_hWnd, lpRect); }

  00044	8d 45 ec	 lea	 eax, DWORD PTR _rect$[ebp]
  00047	0f 57 c0	 xorps	 xmm0, xmm0
  0004a	50		 push	 eax
  0004b	ff 76 20	 push	 DWORD PTR [esi+32]
; File C:\Program Files (x86)\Microsoft Visual Studio\2019\Community\VC\Tools\MSVC\14.29.30133\atlmfc\include\atltypes.h

; 528  : 	left = 0;

  0004e	0f 11 45 ec	 movups	 XMMWORD PTR _rect$[ebp], xmm0
; File C:\Program Files (x86)\Microsoft Visual Studio\2019\Community\VC\Tools\MSVC\14.29.30133\atlmfc\include\afxwin2.inl

; 86   : 	{ ASSERT(::IsWindow(m_hWnd)); ::GetClientRect(m_hWnd, lpRect); }

  00052	ff 15 00 00 00
	00		 call	 DWORD PTR __imp__GetClientRect@8
; File C:\Program Files (x86)\Microsoft Visual Studio\2019\Community\VC\Tools\MSVC\14.29.30133\atlmfc\include\atltypes.h

; 648  : 	return ::PtInRect(this, point);

  00058	ff 75 e0	 push	 DWORD PTR _pt$[ebp+4]
  0005b	8d 45 ec	 lea	 eax, DWORD PTR _rect$[ebp]
  0005e	ff 75 dc	 push	 DWORD PTR _pt$[ebp]
  00061	50		 push	 eax
  00062	ff 15 00 00 00
	00		 call	 DWORD PTR __imp__PtInRect@12
; File D:\git\src\IBK\IBK_DRFN\ProjSrc\SrcDrfn\Chart\comparechart\ChartMng.cpp

; 6210 : 	if(rect.PtInRect(pt))

  00068	85 c0		 test	 eax, eax
  0006a	74 2e		 je	 SHORT $LN2@fnMenuLoad

; 6211 : 	{
; 6212 : 		if(!bOnlyCheck) ((CInputBarDlg*)m_pInputBarDlg)->ShowScreen1Menu(ps, nScreenType);

  0006c	83 7d 08 00	 cmp	 DWORD PTR _bOnlyCheck$[ebp], 0
  00070	75 12		 jne	 SHORT $LN3@fnMenuLoad
  00072	ff 75 0c	 push	 DWORD PTR _nScreenType$[ebp]
  00075	8b 8e cc 00 00
	00		 mov	 ecx, DWORD PTR [esi+204]
  0007b	8d 45 e4	 lea	 eax, DWORD PTR _ps$[ebp]
  0007e	50		 push	 eax
  0007f	e8 00 00 00 00	 call	 ?ShowScreen1Menu@CInputBarDlg@@QAEXAAVCPoint@@H@Z ; CInputBarDlg::ShowScreen1Menu
$LN3@fnMenuLoad:

; 6213 : 		return TRUE;

  00084	b8 01 00 00 00	 mov	 eax, 1
  00089	5e		 pop	 esi

; 6214 : 	}
; 6215 : 
; 6216 : 	return FALSE;
; 6217 : 
; 6218 : //	CMenu menu;
; 6219 : //    menu.CreatePopupMenu();
; 6220 : //
; 6221 : //	int nIndex=0;
; 6222 : //	menu.AppendMenu(MF_STRING,(UINT)1000+nIndex,"");
; 6223 : //
; 6224 : //	UINT nFlagsForMenu = TPM_LEFTALIGN | TPM_RIGHTBUTTON | TPM_NONOTIFY | TPM_RETURNCMD;
; 6225 : //
; 6226 : //	//CPoint ps;
; 6227 : //	//GetCursorPos(&ps);
; 6228 : //
; 6229 : //	int nRetValue = menu.TrackPopupMenu(nFlagsForMenu, ps.x, ps.y, this);
; 6230 : //
; 6231 : //	if(!nRetValue) return;
; 6232 : //	menu.DestroyMenu();
; 6233 : }

  0008a	8b 4d fc	 mov	 ecx, DWORD PTR __$ArrayPad$[ebp]
  0008d	33 cd		 xor	 ecx, ebp
  0008f	e8 00 00 00 00	 call	 @__security_check_cookie@4
  00094	8b e5		 mov	 esp, ebp
  00096	5d		 pop	 ebp
  00097	c2 08 00	 ret	 8
$LN2@fnMenuLoad:
  0009a	8b 4d fc	 mov	 ecx, DWORD PTR __$ArrayPad$[ebp]
  0009d	33 c0		 xor	 eax, eax
  0009f	33 cd		 xor	 ecx, ebp
  000a1	5e		 pop	 esi
  000a2	e8 00 00 00 00	 call	 @__security_check_cookie@4
  000a7	8b e5		 mov	 esp, ebp
  000a9	5d		 pop	 ebp
  000aa	c2 08 00	 ret	 8
?fnMenuLoad@CChartMng@@QAEHHH@Z ENDP			; CChartMng::fnMenuLoad
_TEXT	ENDS
; Function compile flags: /Ogtp
; File D:\git\src\IBK\IBK_DRFN\ProjSrc\SrcDrfn\Chart\comparechart\ChartMng.cpp
;	COMDAT ?GetMessageMap@CChartMng@@MBEPBUAFX_MSGMAP@@XZ
_TEXT	SEGMENT
?GetMessageMap@CChartMng@@MBEPBUAFX_MSGMAP@@XZ PROC	; CChartMng::GetMessageMap, COMDAT
; _this$ = ecx

; 193  : BEGIN_MESSAGE_MAP(CChartMng, CWnd)

  00000	b8 00 00 00 00	 mov	 eax, OFFSET ?messageMap@?1??GetThisMessageMap@CChartMng@@KGPBUAFX_MSGMAP@@XZ@4U3@B
  00005	c3		 ret	 0
?GetMessageMap@CChartMng@@MBEPBUAFX_MSGMAP@@XZ ENDP	; CChartMng::GetMessageMap
_TEXT	ENDS
; Function compile flags: /Ogtp
; File D:\git\src\IBK\IBK_DRFN\ProjSrc\SrcDrfn\Chart\comparechart\ChartMng.cpp
;	COMDAT ?GetThisMessageMap@CChartMng@@KGPBUAFX_MSGMAP@@XZ
_TEXT	SEGMENT
?GetThisMessageMap@CChartMng@@KGPBUAFX_MSGMAP@@XZ PROC	; CChartMng::GetThisMessageMap, COMDAT

; 194  : 	//{{AFX_MSG_MAP(CChartMng)	
; 195  : 	ON_WM_CREATE()
; 196  : 	ON_WM_DESTROY()
; 197  : 	ON_WM_SIZE()
; 198  : 	ON_WM_PAINT()
; 199  : 	ON_WM_LBUTTONDOWN()
; 200  : 	ON_WM_LBUTTONDBLCLK()
; 201  : 	ON_WM_MOUSEMOVE()
; 202  : 	ON_WM_LBUTTONUP()
; 203  : 	ON_WM_RBUTTONUP()
; 204  : 	ON_WM_TIMER()
; 205  : 	//}}AFX_MSG_MAP
; 206  : 	ON_REGISTERED_MESSAGE( RMSG_CHARTMSG_EVENTMESSAGE,	OnEventMessage)
; 207  : 	ON_REGISTERED_MESSAGE( RMSG_GET_USERID,	OnGetUserID)
; 208  : 	ON_REGISTERED_MESSAGE( RMSG_SELCHARTCODE, OnRmsgSelChartCode )
; 209  : END_MESSAGE_MAP()

  00000	b8 00 00 00 00	 mov	 eax, OFFSET ?messageMap@?1??GetThisMessageMap@CChartMng@@KGPBUAFX_MSGMAP@@XZ@4U3@B
  00005	c3		 ret	 0
?GetThisMessageMap@CChartMng@@KGPBUAFX_MSGMAP@@XZ ENDP	; CChartMng::GetThisMessageMap
_TEXT	ENDS
; Function compile flags: /Ogtp
; File D:\git\src\IBK\IBK_DRFN\ProjSrc\SrcDrfn\Chart\comparechart\ChartMng.cpp
; File C:\Program Files (x86)\Microsoft Visual Studio\2019\Community\VC\Tools\MSVC\14.29.30133\atlmfc\include\afxwin2.inl
; File D:\git\src\IBK\IBK_DRFN\ProjSrc\SrcDrfn\Chart\comparechart\ChartMng.cpp
;	COMDAT ?OnRmsgSelChartCode@CChartMng@@IAEJIJ@Z
_TEXT	SEGMENT
_wparam$ = 8						; size = 4
_lparam$ = 12						; size = 4
?OnRmsgSelChartCode@CChartMng@@IAEJIJ@Z PROC		; CChartMng::OnRmsgSelChartCode, COMDAT
; _this$ = ecx

; 1881 : 	if(m_lRowSelected < 0) return NULL;

  00000	8b 81 54 07 00
	00		 mov	 eax, DWORD PTR [ecx+1876]
  00006	85 c0		 test	 eax, eax
  00008	78 2a		 js	 SHORT $LN2@OnRmsgSelC

; 1882 : 	if(m_lColSelected < 0) return NULL;

  0000a	8b 91 50 07 00
	00		 mov	 edx, DWORD PTR [ecx+1872]
  00010	85 d2		 test	 edx, edx
  00012	78 20		 js	 SHORT $LN2@OnRmsgSelC

; 1884 : 	if(m_pChartItems[m_lRowSelected][m_lColSelected]->GetSafeHwnd())

  00014	8d 04 80	 lea	 eax, DWORD PTR [eax+eax*4]
  00017	8d 04 82	 lea	 eax, DWORD PTR [edx+eax*4]
  0001a	8b 84 81 08 01
	00 00		 mov	 eax, DWORD PTR [ecx+eax*4+264]
; File C:\Program Files (x86)\Microsoft Visual Studio\2019\Community\VC\Tools\MSVC\14.29.30133\atlmfc\include\afxwin2.inl

; 25   : 	{ return this == NULL ? NULL : m_hWnd; }

  00021	85 c0		 test	 eax, eax
  00023	74 0f		 je	 SHORT $LN2@OnRmsgSelC
; File D:\git\src\IBK\IBK_DRFN\ProjSrc\SrcDrfn\Chart\comparechart\ChartMng.cpp

; 1884 : 	if(m_pChartItems[m_lRowSelected][m_lColSelected]->GetSafeHwnd())

  00025	83 78 20 00	 cmp	 DWORD PTR [eax+32], 0
  00029	74 09		 je	 SHORT $LN2@OnRmsgSelC

; 6237 : 	CChartItem* pSelChartItem = GetpChartItemSelected();
; 6238 : 	if(pSelChartItem)
; 6239 : 	{
; 6240 : 		return (LRESULT)pSelChartItem->GetNewRequestCode();

  0002b	8b 80 94 00 00
	00		 mov	 eax, DWORD PTR [eax+148]

; 6245 : }

  00031	c2 08 00	 ret	 8
$LN2@OnRmsgSelC:

; 6241 : //		if(pSelChartItem->m_lpSelChart)
; 6242 : //			return (LRESULT)(LPCSTR)pSelChartItem->m_lpSelChart->m_strItemCode;			
; 6243 : 	}
; 6244 : 	return NULL;

  00034	33 c0		 xor	 eax, eax

; 6245 : }

  00036	c2 08 00	 ret	 8
?OnRmsgSelChartCode@CChartMng@@IAEJIJ@Z ENDP		; CChartMng::OnRmsgSelChartCode
_TEXT	ENDS
; Function compile flags: /Ogtp
; File D:\git\src\IBK\IBK_DRFN\ProjSrc\SrcDrfn\Chart\comparechart\ChartMng.cpp
; File C:\Program Files (x86)\Microsoft Visual Studio\2019\Community\VC\Tools\MSVC\14.29.30133\atlmfc\include\afxwin2.inl
; File D:\git\src\IBK\IBK_DRFN\ProjSrc\SrcDrfn\Chart\comparechart\ChartMng.cpp
;	COMDAT ?OnGetUserID@CChartMng@@IAEJIJ@Z
_TEXT	SEGMENT
_wParam$ = 8						; size = 4
_lParam$ = 12						; size = 4
?OnGetUserID@CChartMng@@IAEJIJ@Z PROC			; CChartMng::OnGetUserID, COMDAT
; _this$ = ecx

; 1335 : 	//@Solomon-091106     Chart  .
; 1336 : 	//OCX      .
; 1337 : 	static CString szID;

  00000	64 a1 00 00 00
	00		 mov	 eax, DWORD PTR fs:__tls_array
  00006	8b 15 00 00 00
	00		 mov	 edx, DWORD PTR __tls_index
  0000c	56		 push	 esi
  0000d	8b f1		 mov	 esi, ecx
  0000f	8b 14 90	 mov	 edx, DWORD PTR [eax+edx*4]
  00012	a1 00 00 00 00	 mov	 eax, DWORD PTR ?$TSS0@?1??OnGetUserID@CChartMng@@IAEJIJ@Z@4HA
  00017	3b 82 00 00 00
	00		 cmp	 eax, DWORD PTR __Init_thread_epoch[edx]
  0001d	7f 36		 jg	 SHORT $LN9@OnGetUserI
$LN2@OnGetUserI:
; File C:\Program Files (x86)\Microsoft Visual Studio\2019\Community\VC\Tools\MSVC\14.29.30133\atlmfc\include\afxwin2.inl

; 213  : 	{ ASSERT(::IsWindow(m_hWnd)); return CWnd::FromHandle(::GetParent(m_hWnd)); }

  0001f	ff 76 20	 push	 DWORD PTR [esi+32]
  00022	ff 15 00 00 00
	00		 call	 DWORD PTR __imp__GetParent@4
  00028	50		 push	 eax
  00029	e8 00 00 00 00	 call	 ?FromHandle@CWnd@@SGPAV1@PAUHWND__@@@Z ; CWnd::FromHandle
; File D:\git\src\IBK\IBK_DRFN\ProjSrc\SrcDrfn\Chart\comparechart\ChartMng.cpp

; 1338 : 	szID.Format("%s%s", ((CStdDialog*)GetParent())->m_strUserID, "\\Chart");

  0002e	68 00 00 00 00	 push	 OFFSET ??_C@_06DJNEHHKG@?2Chart@
  00033	ff b0 3c 03 00
	00		 push	 DWORD PTR [eax+828]
  00039	68 00 00 00 00	 push	 OFFSET ??_C@_04HDOCAJNK@?$CFs?$CFs@
  0003e	68 00 00 00 00	 push	 OFFSET ?szID@?1??OnGetUserID@CChartMng@@IAEJIJ@Z@4V?$CStringT@DV?$StrTraitMFC_DLL@DV?$ChTraitsCRT@D@ATL@@@@@ATL@@A
  00043	ff 15 00 00 00
	00		 call	 DWORD PTR __imp_?Format@?$CStringT@DV?$StrTraitMFC_DLL@DV?$ChTraitsCRT@D@ATL@@@@@ATL@@QAAXPBDZZ

; 1339 : 	return (long)(LPCSTR)szID;

  00049	a1 00 00 00 00	 mov	 eax, DWORD PTR ?szID@?1??OnGetUserID@CChartMng@@IAEJIJ@Z@4V?$CStringT@DV?$StrTraitMFC_DLL@DV?$ChTraitsCRT@D@ATL@@@@@ATL@@A
  0004e	83 c4 10	 add	 esp, 16			; 00000010H
  00051	5e		 pop	 esi

; 1340 : 	
; 1341 : 	//  return (long)(LPCSTR)((CStdDialog*)GetParent())->m_strUserID;
; 1342 : }

  00052	c2 08 00	 ret	 8
$LN9@OnGetUserI:

; 1335 : 	//@Solomon-091106     Chart  .
; 1336 : 	//OCX      .
; 1337 : 	static CString szID;

  00055	68 00 00 00 00	 push	 OFFSET ?$TSS0@?1??OnGetUserID@CChartMng@@IAEJIJ@Z@4HA
  0005a	e8 00 00 00 00	 call	 __Init_thread_header
  0005f	83 c4 04	 add	 esp, 4
  00062	83 3d 00 00 00
	00 ff		 cmp	 DWORD PTR ?$TSS0@?1??OnGetUserID@CChartMng@@IAEJIJ@Z@4HA, -1
  00069	75 b4		 jne	 SHORT $LN2@OnGetUserI
  0006b	b9 00 00 00 00	 mov	 ecx, OFFSET ?szID@?1??OnGetUserID@CChartMng@@IAEJIJ@Z@4V?$CStringT@DV?$StrTraitMFC_DLL@DV?$ChTraitsCRT@D@ATL@@@@@ATL@@A
  00070	ff 15 00 00 00
	00		 call	 DWORD PTR __imp_??0?$CStringT@DV?$StrTraitMFC_DLL@DV?$ChTraitsCRT@D@ATL@@@@@ATL@@QAE@XZ
  00076	68 00 00 00 00	 push	 OFFSET ??__FszID@?1??OnGetUserID@CChartMng@@IAEJIJ@Z@YAXXZ ; `CChartMng::OnGetUserID'::`2'::`dynamic atexit destructor for 'szID''
  0007b	e8 00 00 00 00	 call	 _atexit
  00080	68 00 00 00 00	 push	 OFFSET ?$TSS0@?1??OnGetUserID@CChartMng@@IAEJIJ@Z@4HA
  00085	e8 00 00 00 00	 call	 __Init_thread_footer
  0008a	83 c4 08	 add	 esp, 8
  0008d	eb 90		 jmp	 SHORT $LN2@OnGetUserI
?OnGetUserID@CChartMng@@IAEJIJ@Z ENDP			; CChartMng::OnGetUserID
_TEXT	ENDS
; Function compile flags: /Ogtp
; File D:\git\src\IBK\IBK_DRFN\ProjSrc\SrcDrfn\Chart\comparechart\ChartMng.cpp
; File C:\Program Files (x86)\Microsoft Visual Studio\2019\Community\VC\Tools\MSVC\14.29.30133\atlmfc\include\atltypes.h
; File D:\git\src\IBK\IBK_DRFN\ProjSrc\SrcDrfn\Chart\comparechart\ChartMng.cpp
; File C:\Program Files (x86)\Microsoft Visual Studio\2019\Community\VC\Tools\MSVC\14.29.30133\atlmfc\include\afxwin2.inl
; File D:\git\src\IBK\IBK_DRFN\ProjSrc\SrcDrfn\Chart\comparechart\ChartMng.cpp
; File C:\Program Files (x86)\Microsoft Visual Studio\2019\Community\VC\Tools\MSVC\14.29.30133\atlmfc\include\afxwin2.inl
; File C:\Program Files (x86)\Microsoft Visual Studio\2019\Community\VC\Tools\MSVC\14.29.30133\atlmfc\include\atltypes.h
; File C:\Program Files (x86)\Microsoft Visual Studio\2019\Community\VC\Tools\MSVC\14.29.30133\atlmfc\include\afxwin2.inl
; File C:\Program Files (x86)\Microsoft Visual Studio\2019\Community\VC\Tools\MSVC\14.29.30133\atlmfc\include\atltypes.h
; File D:\git\src\IBK\IBK_DRFN\ProjSrc\SrcDrfn\Chart\comparechart\ChartMng.cpp
; File C:\Program Files (x86)\Microsoft Visual Studio\2019\Community\VC\Tools\MSVC\14.29.30133\atlmfc\include\afxwin2.inl
; File D:\git\src\IBK\IBK_DRFN\ProjSrc\SrcDrfn\Chart\comparechart\ChartMng.cpp
; File C:\Program Files (x86)\Microsoft Visual Studio\2019\Community\VC\Tools\MSVC\14.29.30133\atlmfc\include\afxwin2.inl
; File D:\git\src\IBK\IBK_DRFN\ProjSrc\SrcDrfn\Chart\comparechart\ChartMng.cpp
; File C:\Program Files (x86)\Microsoft Visual Studio\2019\Community\VC\Tools\MSVC\14.29.30133\atlmfc\include\afxwin2.inl
; File D:\git\src\IBK\IBK_DRFN\ProjSrc\SrcDrfn\Chart\comparechart\ChartMng.cpp
; File C:\Program Files (x86)\Microsoft Visual Studio\2019\Community\VC\Tools\MSVC\14.29.30133\atlmfc\include\afxwin2.inl
; File D:\git\src\IBK\IBK_DRFN\ProjSrc\SrcDrfn\Chart\comparechart\ChartMng.cpp
; File C:\Program Files (x86)\Microsoft Visual Studio\2019\Community\VC\Tools\MSVC\14.29.30133\atlmfc\include\afxwin2.inl
; File D:\git\src\IBK\IBK_DRFN\ProjSrc\SrcDrfn\Chart\comparechart\ChartMng.cpp
; File C:\Program Files (x86)\Microsoft Visual Studio\2019\Community\VC\Tools\MSVC\14.29.30133\atlmfc\include\atlsimpstr.h
; File D:\git\src\IBK\IBK_DRFN\ProjSrc\SrcDrfn\Chart\comparechart\ChartMng.cpp
; File C:\Program Files (x86)\Microsoft Visual Studio\2019\Community\VC\Tools\MSVC\14.29.30133\atlmfc\include\atlsimpstr.h
; File D:\git\src\IBK\IBK_DRFN\ProjSrc\SrcDrfn\Chart\comparechart\ChartMng.cpp
; File C:\Program Files (x86)\Microsoft Visual Studio\2019\Community\VC\Tools\MSVC\14.29.30133\atlmfc\include\cstringt.h
; File D:\git\src\IBK\IBK_DRFN\ProjSrc\SrcDrfn\Chart\comparechart\ChartMng.cpp
; File C:\Program Files (x86)\Microsoft Visual Studio\2019\Community\VC\Tools\MSVC\14.29.30133\atlmfc\include\cstringt.h
; File D:\git\src\IBK\IBK_DRFN\ProjSrc\SrcDrfn\Chart\comparechart\ChartMng.cpp
; File C:\Program Files (x86)\Microsoft Visual Studio\2019\Community\VC\Tools\MSVC\14.29.30133\atlmfc\include\afxwin2.inl
; File D:\git\src\IBK\IBK_DRFN\ProjSrc\SrcDrfn\Chart\comparechart\ChartMng.cpp
; File C:\Program Files (x86)\Microsoft Visual Studio\2019\Community\VC\Tools\MSVC\14.29.30133\atlmfc\include\afxwin2.inl
; File D:\git\src\IBK\IBK_DRFN\ProjSrc\SrcDrfn\Chart\comparechart\ChartMng.cpp
; File C:\Program Files (x86)\Microsoft Visual Studio\2019\Community\VC\Tools\MSVC\14.29.30133\atlmfc\include\cstringt.h
; File D:\git\src\IBK\IBK_DRFN\ProjSrc\SrcDrfn\Chart\comparechart\ChartMng.cpp
; File C:\Program Files (x86)\Microsoft Visual Studio\2019\Community\VC\Tools\MSVC\14.29.30133\atlmfc\include\cstringt.h
; File D:\git\src\IBK\IBK_DRFN\ProjSrc\SrcDrfn\Chart\comparechart\ChartMng.cpp
; File C:\Program Files (x86)\Microsoft Visual Studio\2019\Community\VC\Tools\MSVC\14.29.30133\atlmfc\include\cstringt.h
; File D:\git\src\IBK\IBK_DRFN\ProjSrc\SrcDrfn\Chart\comparechart\ChartMng.cpp
; File C:\Program Files (x86)\Microsoft Visual Studio\2019\Community\VC\Tools\MSVC\14.29.30133\atlmfc\include\afxwin2.inl
; File D:\git\src\IBK\IBK_DRFN\ProjSrc\SrcDrfn\Chart\comparechart\ChartMng.cpp
; File C:\Program Files (x86)\Microsoft Visual Studio\2019\Community\VC\Tools\MSVC\14.29.30133\atlmfc\include\afxwin2.inl
; File D:\git\src\IBK\IBK_DRFN\ProjSrc\SrcDrfn\Chart\comparechart\ChartMng.cpp
; File C:\Program Files (x86)\Microsoft Visual Studio\2019\Community\VC\Tools\MSVC\14.29.30133\atlmfc\include\afxwin2.inl
; File D:\git\src\IBK\IBK_DRFN\ProjSrc\SrcDrfn\Chart\comparechart\ChartMng.cpp
; File C:\Program Files (x86)\Microsoft Visual Studio\2019\Community\VC\Tools\MSVC\14.29.30133\atlmfc\include\afxwin2.inl
; File D:\git\src\IBK\IBK_DRFN\ProjSrc\SrcDrfn\Chart\comparechart\ChartMng.cpp
; File C:\Program Files (x86)\Microsoft Visual Studio\2019\Community\VC\Tools\MSVC\14.29.30133\atlmfc\include\afxwin2.inl
; File D:\git\src\IBK\IBK_DRFN\ProjSrc\SrcDrfn\Chart\comparechart\ChartMng.cpp
; File C:\Program Files (x86)\Microsoft Visual Studio\2019\Community\VC\Tools\MSVC\14.29.30133\atlmfc\include\afxwin2.inl
; File D:\git\src\IBK\IBK_DRFN\ProjSrc\SrcDrfn\Chart\comparechart\ChartMng.cpp
; File C:\Program Files (x86)\Microsoft Visual Studio\2019\Community\VC\Tools\MSVC\14.29.30133\atlmfc\include\afxwin2.inl
; File D:\git\src\IBK\IBK_DRFN\ProjSrc\SrcDrfn\Chart\comparechart\ChartMng.cpp
; File C:\Program Files (x86)\Microsoft Visual Studio\2019\Community\VC\Tools\MSVC\14.29.30133\atlmfc\include\afxwin2.inl
; File D:\git\src\IBK\IBK_DRFN\ProjSrc\SrcDrfn\Chart\comparechart\ChartMng.cpp
; File C:\Program Files (x86)\Microsoft Visual Studio\2019\Community\VC\Tools\MSVC\14.29.30133\atlmfc\include\atlsimpstr.h
; File C:\Program Files (x86)\Microsoft Visual Studio\2019\Community\VC\Tools\MSVC\14.29.30133\atlmfc\include\afxwin2.inl
; File D:\git\src\IBK\IBK_DRFN\ProjSrc\SrcDrfn\Chart\comparechart\ChartMng.cpp
; File C:\Program Files (x86)\Microsoft Visual Studio\2019\Community\VC\Tools\MSVC\14.29.30133\atlmfc\include\afxwin2.inl
; File D:\git\src\IBK\IBK_DRFN\ProjSrc\SrcDrfn\Chart\comparechart\ChartMng.cpp
; File C:\Program Files (x86)\Microsoft Visual Studio\2019\Community\VC\Tools\MSVC\14.29.30133\atlmfc\include\atlsimpstr.h
; File D:\git\src\IBK\IBK_DRFN\ProjSrc\SrcDrfn\Chart\comparechart\ChartMng.cpp
; File C:\Program Files (x86)\Microsoft Visual Studio\2019\Community\VC\Tools\MSVC\14.29.30133\atlmfc\include\afxwin2.inl
; File D:\git\src\IBK\IBK_DRFN\ProjSrc\SrcDrfn\Chart\comparechart\ChartMng.cpp
; File C:\Program Files (x86)\Microsoft Visual Studio\2019\Community\VC\Tools\MSVC\14.29.30133\atlmfc\include\afxwin2.inl
; File D:\git\src\IBK\IBK_DRFN\ProjSrc\SrcDrfn\Chart\comparechart\ChartMng.cpp
; File C:\Program Files (x86)\Microsoft Visual Studio\2019\Community\VC\Tools\MSVC\14.29.30133\atlmfc\include\afxwin2.inl
; File D:\git\src\IBK\IBK_DRFN\ProjSrc\SrcDrfn\Chart\comparechart\ChartMng.cpp
;	COMDAT ?OnEventMessage@CChartMng@@IAEJIJ@Z
_TEXT	SEGMENT
_pt$2 = -72						; size = 8
_pChart$1$ = -68					; size = 4
_m_lRowSelectedOld$1$ = -68				; size = 4
$T3 = -68						; size = 4
_wParam$GSCopy$1$ = -64					; size = 4
_strData$4 = -64					; size = 4
_wShiftKeyDown$1$ = -60					; size = 4
_pChart$1$ = -60					; size = 4
_pChart$1$ = -60					; size = 4
_pChart$1$ = -60					; size = 4
_ps$5 = -56						; size = 8
_stData$6 = -56						; size = 8
_nPos$1$ = -52						; size = 4
_pChart$1$ = -52					; size = 4
_pChartItem$1$ = -52					; size = 4
$T7 = -52						; size = 4
$T8 = -52						; size = 4
$T9 = -48						; size = 4
_pSelItem$1$ = -48					; size = 4
_nColIndex$1$ = -48					; size = 4
_nRowIndex$1$ = -48					; size = 4
tv1978 = -48						; size = 4
_strCodeHead$10 = -48					; size = 4
$T11 = -44						; size = 4
_nRowIndex$1$ = -44					; size = 4
_bShowMenu$1$ = -44					; size = 4
tv1974 = -44						; size = 4
_pSelRQ$12 = -44					; size = 4
_strCodeTail$13 = -44					; size = 4
$T14 = -40						; size = 4
$T15 = -40						; size = 4
tv1976 = -40						; size = 4
tv1970 = -40						; size = 4
_pSelChart$16 = -40					; size = 4
_strCodeShare$17 = -40					; size = 4
_lParam$GSCopy$1$ = -36					; size = 4
_rect$18 = -32						; size = 16
__$ArrayPad$ = -16					; size = 4
__$EHRec$ = -12						; size = 12
_wParam$ = 8						; size = 4
_lParam$ = 12						; size = 4
?OnEventMessage@CChartMng@@IAEJIJ@Z PROC		; CChartMng::OnEventMessage, COMDAT
; _this$ = ecx

; 974  : {	

  00000	55		 push	 ebp
  00001	8b ec		 mov	 ebp, esp
  00003	6a ff		 push	 -1
  00005	68 00 00 00 00	 push	 __ehhandler$?OnEventMessage@CChartMng@@IAEJIJ@Z
  0000a	64 a1 00 00 00
	00		 mov	 eax, DWORD PTR fs:0
  00010	50		 push	 eax
  00011	83 ec 3c	 sub	 esp, 60			; 0000003cH
  00014	a1 00 00 00 00	 mov	 eax, DWORD PTR ___security_cookie
  00019	33 c5		 xor	 eax, ebp
  0001b	89 45 f0	 mov	 DWORD PTR __$ArrayPad$[ebp], eax
  0001e	56		 push	 esi
  0001f	57		 push	 edi
  00020	50		 push	 eax
  00021	8d 45 f4	 lea	 eax, DWORD PTR __$EHRec$[ebp]
  00024	64 a3 00 00 00
	00		 mov	 DWORD PTR fs:0, eax
  0002a	8b f1		 mov	 esi, ecx
  0002c	8b 7d 0c	 mov	 edi, DWORD PTR _lParam$[ebp]
  0002f	8b 55 08	 mov	 edx, DWORD PTR _wParam$[ebp]
  00032	89 55 c0	 mov	 DWORD PTR _wParam$GSCopy$1$[ebp], edx
  00035	89 7d dc	 mov	 DWORD PTR _lParam$GSCopy$1$[ebp], edi

; 975  : 	MSG *pMsgFromChart = (MSG *)lParam;
; 976  : 	//TRACE1("OnEventMessage %d\n", pMsgFromChart->message);
; 977  : 	switch(pMsgFromChart->message)

  00038	8b 47 04	 mov	 eax, DWORD PTR [edi+4]
  0003b	3d 36 31 00 00	 cmp	 eax, 12598		; 00003136H
  00040	0f 87 7e 04 00
	00		 ja	 $LN98@OnEventMes
  00046	0f 84 e4 03 00
	00		 je	 $LN58@OnEventMes
  0004c	3d 01 02 00 00	 cmp	 eax, 513		; 00000201H
  00051	0f 87 17 01 00
	00		 ja	 $LN99@OnEventMes
  00057	0f 84 21 02 00
	00		 je	 $LN28@OnEventMes
  0005d	83 f8 07	 cmp	 eax, 7
  00060	0f 84 18 02 00
	00		 je	 $LN28@OnEventMes
  00066	3d 01 01 00 00	 cmp	 eax, 257		; 00000101H
  0006b	0f 85 fd 05 00
	00		 jne	 $LN89@OnEventMes

; 1050 : 	case WM_KEYUP:
; 1051 : 		{
; 1052 : 			if(pMsgFromChart->wParam==VK_TAB)

  00071	83 7f 08 09	 cmp	 DWORD PTR [edi+8], 9
  00075	0f 85 f3 05 00
	00		 jne	 $LN89@OnEventMes

; 1053 : 			{
; 1054 : 				SHORT wShiftKeyDown = ::GetAsyncKeyState(VK_SHIFT);

  0007b	6a 10		 push	 16			; 00000010H
  0007d	ff 15 00 00 00
	00		 call	 DWORD PTR __imp__GetAsyncKeyState@4

; 1055 : 				CDRChartOcx *pChart = (CDRChartOcx *)GetDlgItem(wParam);

  00083	ff 75 c0	 push	 DWORD PTR _wParam$GSCopy$1$[ebp]
  00086	0f b7 c0	 movzx	 eax, ax
  00089	8b ce		 mov	 ecx, esi
  0008b	89 45 c4	 mov	 DWORD PTR _wShiftKeyDown$1$[ebp], eax
  0008e	e8 00 00 00 00	 call	 ?GetDlgItem@CWnd@@QBEPAV1@H@Z ; CWnd::GetDlgItem
  00093	89 45 bc	 mov	 DWORD PTR _pChart$1$[ebp], eax

; 1056 : 				if(pChart)

  00096	85 c0		 test	 eax, eax
  00098	0f 84 d0 05 00
	00		 je	 $LN89@OnEventMes

; 1060 : 					EACH_CHARTJOB_START()

  0009e	8b 86 4c 07 00
	00		 mov	 eax, DWORD PTR [esi+1868]
  000a4	33 c9		 xor	 ecx, ecx
  000a6	33 d2		 xor	 edx, edx
  000a8	89 4d d4	 mov	 DWORD PTR $T11[ebp], ecx
  000ab	33 ff		 xor	 edi, edi
  000ad	89 55 d8	 mov	 DWORD PTR $T14[ebp], edx
  000b0	85 c0		 test	 eax, eax
  000b2	7e 57		 jle	 SHORT $LN289@OnEventMes

; 1057 : 				{
; 1058 : 					int nColIndexCurrent = 0;
; 1059 : 					int nRowIndexCurrent = 0;

  000b4	8d 8e 08 01 00
	00		 lea	 ecx, DWORD PTR [esi+264]
  000ba	89 4d d0	 mov	 DWORD PTR tv1978[ebp], ecx
  000bd	0f 1f 00	 npad	 3
$LL18@OnEventMes:

; 1060 : 					EACH_CHARTJOB_START()

  000c0	33 c0		 xor	 eax, eax
  000c2	39 86 48 07 00
	00		 cmp	 DWORD PTR [esi+1864], eax
  000c8	7e 2d		 jle	 SHORT $LN16@OnEventMes
  000ca	66 0f 1f 44 00
	00		 npad	 6
$LL21@OnEventMes:
  000d0	8b 11		 mov	 edx, DWORD PTR [ecx]
  000d2	85 d2		 test	 edx, edx
  000d4	74 0f		 je	 SHORT $LN307@OnEventMes

; 1061 : 					if(pChart==pChartItem)

  000d6	39 55 bc	 cmp	 DWORD PTR _pChart$1$[ebp], edx
  000d9	75 0a		 jne	 SHORT $LN307@OnEventMes

; 1062 : 					{
; 1063 : 						nColIndexCurrent = nColIndex;
; 1064 : 						nRowIndexCurrent = nRowIndex;

  000db	8b d7		 mov	 edx, edi
  000dd	89 45 d4	 mov	 DWORD PTR $T11[ebp], eax
  000e0	89 55 d8	 mov	 DWORD PTR $T14[ebp], edx
  000e3	eb 03		 jmp	 SHORT $LN19@OnEventMes
$LN307@OnEventMes:

; 1060 : 					EACH_CHARTJOB_START()

  000e5	8b 55 d8	 mov	 edx, DWORD PTR $T14[ebp]
$LN19@OnEventMes:
  000e8	40		 inc	 eax
  000e9	83 c1 04	 add	 ecx, 4
  000ec	3b 86 48 07 00
	00		 cmp	 eax, DWORD PTR [esi+1864]
  000f2	7c dc		 jl	 SHORT $LL21@OnEventMes
  000f4	8b 4d d0	 mov	 ecx, DWORD PTR tv1978[ebp]
$LN16@OnEventMes:
  000f7	8b 86 4c 07 00
	00		 mov	 eax, DWORD PTR [esi+1868]
  000fd	47		 inc	 edi
  000fe	83 c1 50	 add	 ecx, 80			; 00000050H
  00101	89 4d d0	 mov	 DWORD PTR tv1978[ebp], ecx
  00104	3b f8		 cmp	 edi, eax
  00106	7c b8		 jl	 SHORT $LL18@OnEventMes
  00108	8b 4d d4	 mov	 ecx, DWORD PTR $T11[ebp]
$LN289@OnEventMes:

; 1065 : 					}
; 1066 : 					EACH_CHARTJOB_END()
; 1067 : 					if(wShiftKeyDown)

  0010b	66 83 7d c4 00	 cmp	 WORD PTR _wShiftKeyDown$1$[ebp], 0
  00110	74 38		 je	 SHORT $LN48@OnEventMes

; 1068 : 					{
; 1069 : 						if(nColIndexCurrent>0)

  00112	85 c9		 test	 ecx, ecx
  00114	7f 21		 jg	 SHORT $LN53@OnEventMes

; 1070 : 						{
; 1071 : 							nColIndexCurrent--;
; 1072 : 						}
; 1073 : 						else if(nRowIndexCurrent>0)

  00116	8b 8e 48 07 00
	00		 mov	 ecx, DWORD PTR [esi+1864]
  0011c	85 d2		 test	 edx, edx
  0011e	7e 14		 jle	 SHORT $LN52@OnEventMes

; 1099 : 						}
; 1100 : 					}
; 1101 : 					SetChartSelected(CPoint(nColIndexCurrent,nRowIndexCurrent));

  00120	6a 00		 push	 0
  00122	6a 00		 push	 0
  00124	4a		 dec	 edx
  00125	49		 dec	 ecx
  00126	52		 push	 edx
  00127	51		 push	 ecx
  00128	8b ce		 mov	 ecx, esi
  0012a	e8 00 00 00 00	 call	 ?SetChartSelected@CChartMng@@QAEXVCPoint@@HH@Z ; CChartMng::SetChartSelected

; 1102 : 				}
; 1103 : 			}
; 1104 : 		}
; 1105 : 		break;

  0012f	e9 37 05 00 00	 jmp	 $LN314@OnEventMes
$LN52@OnEventMes:

; 1074 : 						{
; 1075 : 							nRowIndexCurrent--;
; 1076 : 							nColIndexCurrent = GetCols() - 1;
; 1077 : 						}
; 1078 : 						else
; 1079 : 						{
; 1080 : 							nColIndexCurrent = GetCols() - 1;
; 1081 : 							nRowIndexCurrent = GetRows() - 1;

  00134	8d 50 ff	 lea	 edx, DWORD PTR [eax-1]
$LN53@OnEventMes:

; 1099 : 						}
; 1100 : 					}
; 1101 : 					SetChartSelected(CPoint(nColIndexCurrent,nRowIndexCurrent));

  00137	6a 00		 push	 0
  00139	6a 00		 push	 0
  0013b	49		 dec	 ecx
  0013c	52		 push	 edx
  0013d	51		 push	 ecx
  0013e	8b ce		 mov	 ecx, esi
  00140	e8 00 00 00 00	 call	 ?SetChartSelected@CChartMng@@QAEXVCPoint@@HH@Z ; CChartMng::SetChartSelected

; 1102 : 				}
; 1103 : 			}
; 1104 : 		}
; 1105 : 		break;

  00145	e9 21 05 00 00	 jmp	 $LN314@OnEventMes
$LN48@OnEventMes:

; 1082 : 						}
; 1083 : 					}
; 1084 : 					else
; 1085 : 					{
; 1086 : 						if((nColIndexCurrent+1)<GetCols())

  0014a	41		 inc	 ecx
  0014b	3b 8e 48 07 00
	00		 cmp	 ecx, DWORD PTR [esi+1864]
  00151	7c 09		 jl	 SHORT $LN57@OnEventMes

; 1087 : 						{
; 1088 : 							nColIndexCurrent++;
; 1089 : 						}
; 1090 : 						else if((nRowIndexCurrent+1)<GetRows())

  00153	42		 inc	 edx
  00154	33 c9		 xor	 ecx, ecx
  00156	3b d0		 cmp	 edx, eax
  00158	7c 02		 jl	 SHORT $LN57@OnEventMes

; 1091 : 						{
; 1092 : 							nRowIndexCurrent++;
; 1093 : 							nColIndexCurrent = 0;
; 1094 : 						}
; 1095 : 						else
; 1096 : 						{
; 1097 : 							nColIndexCurrent = 0;
; 1098 : 							nRowIndexCurrent = 0;

  0015a	33 d2		 xor	 edx, edx
$LN57@OnEventMes:

; 1099 : 						}
; 1100 : 					}
; 1101 : 					SetChartSelected(CPoint(nColIndexCurrent,nRowIndexCurrent));

  0015c	6a 00		 push	 0
  0015e	6a 00		 push	 0
  00160	52		 push	 edx
  00161	51		 push	 ecx
  00162	8b ce		 mov	 ecx, esi
  00164	e8 00 00 00 00	 call	 ?SetChartSelected@CChartMng@@QAEXVCPoint@@HH@Z ; CChartMng::SetChartSelected

; 1102 : 				}
; 1103 : 			}
; 1104 : 		}
; 1105 : 		break;

  00169	e9 fd 04 00 00	 jmp	 $LN314@OnEventMes
$LN99@OnEventMes:

; 975  : 	MSG *pMsgFromChart = (MSG *)lParam;
; 976  : 	//TRACE1("OnEventMessage %d\n", pMsgFromChart->message);
; 977  : 	switch(pMsgFromChart->message)

  0016e	2d 04 02 00 00	 sub	 eax, 516		; 00000204H
  00173	0f 84 05 01 00
	00		 je	 $LN28@OnEventMes
  00179	83 e8 01	 sub	 eax, 1
  0017c	0f 85 ec 04 00
	00		 jne	 $LN89@OnEventMes

; 1025 : 	case WM_RBUTTONUP:
; 1026 : 		{
; 1027 : 			CDRChartOcx *pChart = (CDRChartOcx *)GetDlgItem(wParam);		

  00182	52		 push	 edx
  00183	e8 00 00 00 00	 call	 ?GetDlgItem@CWnd@@QBEPAV1@H@Z ; CWnd::GetDlgItem
  00188	89 45 c4	 mov	 DWORD PTR _pChart$1$[ebp], eax

; 1028 : 			if(pChart)

  0018b	85 c0		 test	 eax, eax
  0018d	0f 84 db 04 00
	00		 je	 $LN89@OnEventMes

; 1029 : 			{
; 1030 : 				BOOL bShowMenu = FALSE;

  00193	33 c0		 xor	 eax, eax
  00195	89 45 d4	 mov	 DWORD PTR _bShowMenu$1$[ebp], eax

; 1031 : 				EACH_CHARTJOB_START()

  00198	89 45 d0	 mov	 DWORD PTR _nRowIndex$1$[ebp], eax
  0019b	39 86 4c 07 00
	00		 cmp	 DWORD PTR [esi+1868], eax
  001a1	0f 8e c7 04 00
	00		 jle	 $LN89@OnEventMes
  001a7	8d 8e 08 01 00
	00		 lea	 ecx, DWORD PTR [esi+264]
  001ad	89 4d d8	 mov	 DWORD PTR tv1976[ebp], ecx
  001b0	8d 96 08 01 00
	00		 lea	 edx, DWORD PTR [esi+264]
$LL12@OnEventMes:
  001b6	33 c9		 xor	 ecx, ecx
  001b8	39 8e 48 07 00
	00		 cmp	 DWORD PTR [esi+1864], ecx
  001be	7e 1f		 jle	 SHORT $LN10@OnEventMes
  001c0	8b c2		 mov	 eax, edx
$LL15@OnEventMes:
  001c2	8b 10		 mov	 edx, DWORD PTR [eax]
  001c4	85 d2		 test	 edx, edx
  001c6	74 05		 je	 SHORT $LN13@OnEventMes

; 1032 : 					if(pChart==pChartItem)

  001c8	39 55 c4	 cmp	 DWORD PTR _pChart$1$[ebp], edx
  001cb	74 46		 je	 SHORT $LN256@OnEventMes
$LN13@OnEventMes:

; 1031 : 				EACH_CHARTJOB_START()

  001cd	41		 inc	 ecx
  001ce	83 c0 04	 add	 eax, 4
  001d1	3b 8e 48 07 00
	00		 cmp	 ecx, DWORD PTR [esi+1864]
  001d7	7c e9		 jl	 SHORT $LL15@OnEventMes
  001d9	8b 45 d4	 mov	 eax, DWORD PTR _bShowMenu$1$[ebp]
$LN334@OnEventMes:
  001dc	8b 55 d8	 mov	 edx, DWORD PTR tv1976[ebp]
$LN10@OnEventMes:
  001df	8b 4d d0	 mov	 ecx, DWORD PTR _nRowIndex$1$[ebp]
  001e2	83 c2 50	 add	 edx, 80			; 00000050H
  001e5	41		 inc	 ecx
  001e6	89 55 d8	 mov	 DWORD PTR tv1976[ebp], edx
  001e9	89 4d d0	 mov	 DWORD PTR _nRowIndex$1$[ebp], ecx
  001ec	3b 8e 4c 07 00
	00		 cmp	 ecx, DWORD PTR [esi+1868]
  001f2	7c c2		 jl	 SHORT $LL12@OnEventMes

; 1036 : 						{
; 1037 : 							bShowMenu = fnMenuLoad(TRUE, m_pShareInputData->m_nScreenType);
; 1038 : 							//if(fnMenuLoad())	return 0;
; 1039 : 						}
; 1040 : 
; 1041 : 						//}}
; 1042 : 						break;
; 1043 : 					}	
; 1044 : 				EACH_CHARTJOB_END()	
; 1045 : 
; 1046 : 				if(bShowMenu) fnMenuLoad(FALSE, m_pShareInputData->m_nScreenType);

  001f4	85 c0		 test	 eax, eax
  001f6	0f 84 72 04 00
	00		 je	 $LN89@OnEventMes
  001fc	8b 86 80 00 00
	00		 mov	 eax, DWORD PTR [esi+128]
  00202	8b ce		 mov	 ecx, esi
  00204	ff 70 3c	 push	 DWORD PTR [eax+60]
  00207	6a 00		 push	 0
  00209	e8 00 00 00 00	 call	 ?fnMenuLoad@CChartMng@@QAEHHH@Z ; CChartMng::fnMenuLoad

; 1047 : 			}			
; 1048 : 		}
; 1049 : 		break;

  0020e	e9 5b 04 00 00	 jmp	 $LN89@OnEventMes
$LN256@OnEventMes:

; 1033 : 					{
; 1034 : 						//if(!bShowMenu && pMsgFromChart->message==WM_RBUTTONUP && m_pShareInputData->m_nScreenType==CStdDialog::Screen_fluctuation)
; 1035 : 						if(!bShowMenu && pMsgFromChart->message==WM_RBUTTONUP)

  00213	8b 45 d4	 mov	 eax, DWORD PTR _bShowMenu$1$[ebp]
  00216	85 c0		 test	 eax, eax
  00218	75 c2		 jne	 SHORT $LN334@OnEventMes
  0021a	81 7f 04 05 02
	00 00		 cmp	 DWORD PTR [edi+4], 517	; 00000205H
  00221	75 b9		 jne	 SHORT $LN334@OnEventMes
; File C:\Program Files (x86)\Microsoft Visual Studio\2019\Community\VC\Tools\MSVC\14.29.30133\atlmfc\include\atltypes.h

; 400  : 	x = 0;

  00223	89 45 c8	 mov	 DWORD PTR _ps$5[ebp], eax

; 401  : 	y = 0;

  00226	89 45 cc	 mov	 DWORD PTR _ps$5[ebp+4], eax
; File D:\git\src\IBK\IBK_DRFN\ProjSrc\SrcDrfn\Chart\comparechart\ChartMng.cpp

; 6204 : 	GetCursorPos(&ps);

  00229	8d 45 c8	 lea	 eax, DWORD PTR _ps$5[ebp]
  0022c	50		 push	 eax
  0022d	ff 15 00 00 00
	00		 call	 DWORD PTR __imp__GetCursorPos@4

; 6205 : 	pt = ps;

  00233	8b 45 c8	 mov	 eax, DWORD PTR _ps$5[ebp]
  00236	8b 4d cc	 mov	 ecx, DWORD PTR _ps$5[ebp+4]
  00239	89 45 b8	 mov	 DWORD PTR _pt$2[ebp], eax
; File C:\Program Files (x86)\Microsoft Visual Studio\2019\Community\VC\Tools\MSVC\14.29.30133\atlmfc\include\afxwin2.inl

; 94   : 	{ ASSERT(::IsWindow(m_hWnd)); ::ScreenToClient(m_hWnd, lpPoint); }

  0023c	8d 45 b8	 lea	 eax, DWORD PTR _pt$2[ebp]
  0023f	50		 push	 eax
  00240	ff 76 20	 push	 DWORD PTR [esi+32]
; File D:\git\src\IBK\IBK_DRFN\ProjSrc\SrcDrfn\Chart\comparechart\ChartMng.cpp

; 6205 : 	pt = ps;

  00243	89 4d bc	 mov	 DWORD PTR _pt$2[ebp+4], ecx
; File C:\Program Files (x86)\Microsoft Visual Studio\2019\Community\VC\Tools\MSVC\14.29.30133\atlmfc\include\afxwin2.inl

; 94   : 	{ ASSERT(::IsWindow(m_hWnd)); ::ScreenToClient(m_hWnd, lpPoint); }

  00246	ff 15 00 00 00
	00		 call	 DWORD PTR __imp__ScreenToClient@8

; 86   : 	{ ASSERT(::IsWindow(m_hWnd)); ::GetClientRect(m_hWnd, lpRect); }

  0024c	8d 45 e0	 lea	 eax, DWORD PTR _rect$18[ebp]
  0024f	0f 57 c0	 xorps	 xmm0, xmm0
  00252	50		 push	 eax
  00253	ff 76 20	 push	 DWORD PTR [esi+32]
; File C:\Program Files (x86)\Microsoft Visual Studio\2019\Community\VC\Tools\MSVC\14.29.30133\atlmfc\include\atltypes.h

; 400  : 	x = 0;

  00256	0f 11 45 e0	 movups	 XMMWORD PTR _rect$18[ebp], xmm0
; File C:\Program Files (x86)\Microsoft Visual Studio\2019\Community\VC\Tools\MSVC\14.29.30133\atlmfc\include\afxwin2.inl

; 86   : 	{ ASSERT(::IsWindow(m_hWnd)); ::GetClientRect(m_hWnd, lpRect); }

  0025a	ff 15 00 00 00
	00		 call	 DWORD PTR __imp__GetClientRect@8
; File C:\Program Files (x86)\Microsoft Visual Studio\2019\Community\VC\Tools\MSVC\14.29.30133\atlmfc\include\atltypes.h

; 648  : 	return ::PtInRect(this, point);

  00260	ff 75 bc	 push	 DWORD PTR _pt$2[ebp+4]
  00263	8d 45 e0	 lea	 eax, DWORD PTR _rect$18[ebp]
  00266	ff 75 b8	 push	 DWORD PTR _pt$2[ebp]
  00269	50		 push	 eax
  0026a	ff 15 00 00 00
	00		 call	 DWORD PTR __imp__PtInRect@12
; File D:\git\src\IBK\IBK_DRFN\ProjSrc\SrcDrfn\Chart\comparechart\ChartMng.cpp

; 6210 : 	if(rect.PtInRect(pt))

  00270	f7 d8		 neg	 eax
  00272	1b c0		 sbb	 eax, eax
  00274	f7 d8		 neg	 eax
  00276	89 45 d4	 mov	 DWORD PTR _bShowMenu$1$[ebp], eax

; 1031 : 				EACH_CHARTJOB_START()

  00279	e9 5e ff ff ff	 jmp	 $LN334@OnEventMes
$LN28@OnEventMes:

; 978  : 	{
; 979  : 	case WM_LBUTTONDOWN:
; 980  : 	case WM_RBUTTONDOWN:
; 981  : 	case WM_SETFOCUS:	//  drag&grop   focus  ..	
; 982  : 		{
; 983  : 			CDRChartOcx *pChart = (CDRChartOcx *)GetDlgItem(wParam);		

  0027e	52		 push	 edx
  0027f	e8 00 00 00 00	 call	 ?GetDlgItem@CWnd@@QBEPAV1@H@Z ; CWnd::GetDlgItem
  00284	89 45 c4	 mov	 DWORD PTR _pChart$1$[ebp], eax

; 984  : 			if(pChart)

  00287	85 c0		 test	 eax, eax
  00289	0f 84 df 03 00
	00		 je	 $LN89@OnEventMes

; 986  : 				EACH_CHARTJOB_START()

  0028f	83 be 4c 07 00
	00 00		 cmp	 DWORD PTR [esi+1868], 0
  00296	c7 45 d8 00 00
	00 00		 mov	 DWORD PTR $T15[ebp], 0
  0029d	0f 8e cb 03 00
	00		 jle	 $LN89@OnEventMes
  002a3	8d 96 08 01 00
	00		 lea	 edx, DWORD PTR [esi+264]
  002a9	89 55 d4	 mov	 DWORD PTR tv1974[ebp], edx
  002ac	0f 1f 40 00	 npad	 4
$LL6@OnEventMes:
  002b0	8b be 48 07 00
	00		 mov	 edi, DWORD PTR [esi+1864]
  002b6	33 c0		 xor	 eax, eax
  002b8	89 45 d0	 mov	 DWORD PTR $T9[ebp], eax
  002bb	85 ff		 test	 edi, edi
  002bd	0f 8e 4e 01 00
	00		 jle	 $LN332@OnEventMes
$LL9@OnEventMes:
  002c3	8b 0a		 mov	 ecx, DWORD PTR [edx]
  002c5	89 4d cc	 mov	 DWORD PTR _pChartItem$1$[ebp], ecx
  002c8	85 c9		 test	 ecx, ecx
  002ca	74 05		 je	 SHORT $LN7@OnEventMes

; 987  : 					if(pChart==pChartItem)

  002cc	39 4d c4	 cmp	 DWORD PTR _pChart$1$[ebp], ecx
  002cf	74 10		 je	 SHORT $LN257@OnEventMes
$LN7@OnEventMes:

; 986  : 				EACH_CHARTJOB_START()

  002d1	40		 inc	 eax
  002d2	83 c2 04	 add	 edx, 4
  002d5	89 45 d0	 mov	 DWORD PTR $T9[ebp], eax
  002d8	3b c7		 cmp	 eax, edi
  002da	7c e7		 jl	 SHORT $LL9@OnEventMes
  002dc	e9 30 01 00 00	 jmp	 $LN332@OnEventMes
$LN257@OnEventMes:

; 988  : 					{
; 989  : 						//CString strTemp;
; 990  : 						//strTemp.Format("SETFOCUS %d::%d\r\n", nColIndex, nRowIndex);
; 991  : 						//OutputDebugString(strTemp);
; 992  : 						//if( pMsgFromChart->message == WM_LBUTTONDOWN )
; 993  : 						//2007.01.17 add by LYH   (  )
; 994  : 						int m_lColSelectedOld = m_lColSelected;
; 995  : 						int m_lRowSelectedOld = m_lRowSelected;

  002e1	8b 8e 54 07 00
	00		 mov	 ecx, DWORD PTR [esi+1876]
  002e7	8b be 50 07 00
	00		 mov	 edi, DWORD PTR [esi+1872]

; 996  : 						//}}
; 997  : 
; 998  : 						SetChartSelected(CPoint(nColIndex,nRowIndex));

  002ed	6a 00		 push	 0
  002ef	6a 00		 push	 0
  002f1	ff 75 d8	 push	 DWORD PTR $T15[ebp]
  002f4	89 4d bc	 mov	 DWORD PTR _m_lRowSelectedOld$1$[ebp], ecx
  002f7	8b ce		 mov	 ecx, esi
  002f9	50		 push	 eax
  002fa	e8 00 00 00 00	 call	 ?SetChartSelected@CChartMng@@QAEXVCPoint@@HH@Z ; CChartMng::SetChartSelected

; 999  : 
; 1000 : 						//2007.01.17 add by LYH   ( )
; 1001 : 						if(m_lColSelectedOld!=nColIndex || m_lRowSelectedOld != nRowIndex)

  002ff	3b 7d d0	 cmp	 edi, DWORD PTR $T9[ebp]
  00302	75 0c		 jne	 SHORT $LN35@OnEventMes
  00304	8b 45 d8	 mov	 eax, DWORD PTR $T15[ebp]
  00307	39 45 bc	 cmp	 DWORD PTR _m_lRowSelectedOld$1$[ebp], eax
  0030a	0f 84 04 01 00
	00		 je	 $LN4@OnEventMes
$LN35@OnEventMes:
; File C:\Program Files (x86)\Microsoft Visual Studio\2019\Community\VC\Tools\MSVC\14.29.30133\atlmfc\include\afxwin2.inl

; 213  : 	{ ASSERT(::IsWindow(m_hWnd)); return CWnd::FromHandle(::GetParent(m_hWnd)); }

  00310	ff 76 20	 push	 DWORD PTR [esi+32]
  00313	8b 3d 00 00 00
	00		 mov	 edi, DWORD PTR __imp__GetParent@4
; File D:\git\src\IBK\IBK_DRFN\ProjSrc\SrcDrfn\Chart\comparechart\ChartMng.cpp

; 1004 : 							SetSelChangeChart(TRUE);

  00319	c7 86 24 08 00
	00 01 00 00 00	 mov	 DWORD PTR [esi+2084], 1
; File C:\Program Files (x86)\Microsoft Visual Studio\2019\Community\VC\Tools\MSVC\14.29.30133\atlmfc\include\afxwin2.inl

; 213  : 	{ ASSERT(::IsWindow(m_hWnd)); return CWnd::FromHandle(::GetParent(m_hWnd)); }

  00323	ff d7		 call	 edi
  00325	50		 push	 eax
  00326	e8 00 00 00 00	 call	 ?FromHandle@CWnd@@SGPAV1@PAUHWND__@@@Z ; CWnd::FromHandle

; 32   : 	{ ASSERT(::IsWindow(m_hWnd)); return ::SendMessage(m_hWnd, message, wParam, lParam); }

  0032b	68 50 c3 00 00	 push	 50000			; 0000c350H
  00330	6a 00		 push	 0
  00332	68 d0 04 00 00	 push	 1232			; 000004d0H
  00337	ff 70 20	 push	 DWORD PTR [eax+32]
  0033a	ff 15 00 00 00
	00		 call	 DWORD PTR __imp__SendMessageA@16

; 213  : 	{ ASSERT(::IsWindow(m_hWnd)); return CWnd::FromHandle(::GetParent(m_hWnd)); }

  00340	ff 76 20	 push	 DWORD PTR [esi+32]
  00343	ff d7		 call	 edi
  00345	50		 push	 eax
  00346	e8 00 00 00 00	 call	 ?FromHandle@CWnd@@SGPAV1@PAUHWND__@@@Z ; CWnd::FromHandle

; 32   : 	{ ASSERT(::IsWindow(m_hWnd)); return ::SendMessage(m_hWnd, message, wParam, lParam); }

  0034b	8b 7d cc	 mov	 edi, DWORD PTR _pChartItem$1$[ebp]
  0034e	ff b7 b8 03 00
	00		 push	 DWORD PTR [edi+952]
  00354	68 6f c3 00 00	 push	 50031			; 0000c36fH
  00359	68 d0 04 00 00	 push	 1232			; 000004d0H
  0035e	ff 70 20	 push	 DWORD PTR [eax+32]
  00361	ff 15 00 00 00
	00		 call	 DWORD PTR __imp__SendMessageA@16

; 213  : 	{ ASSERT(::IsWindow(m_hWnd)); return CWnd::FromHandle(::GetParent(m_hWnd)); }

  00367	ff 76 20	 push	 DWORD PTR [esi+32]
  0036a	ff 15 00 00 00
	00		 call	 DWORD PTR __imp__GetParent@4
  00370	50		 push	 eax
  00371	e8 00 00 00 00	 call	 ?FromHandle@CWnd@@SGPAV1@PAUHWND__@@@Z ; CWnd::FromHandle

; 32   : 	{ ASSERT(::IsWindow(m_hWnd)); return ::SendMessage(m_hWnd, message, wParam, lParam); }

  00376	ff b7 bc 03 00
	00		 push	 DWORD PTR [edi+956]
  0037c	68 70 c3 00 00	 push	 50032			; 0000c370H
  00381	68 d0 04 00 00	 push	 1232			; 000004d0H
  00386	ff 70 20	 push	 DWORD PTR [eax+32]
  00389	ff 15 00 00 00
	00		 call	 DWORD PTR __imp__SendMessageA@16

; 213  : 	{ ASSERT(::IsWindow(m_hWnd)); return CWnd::FromHandle(::GetParent(m_hWnd)); }

  0038f	ff 76 20	 push	 DWORD PTR [esi+32]
  00392	ff 15 00 00 00
	00		 call	 DWORD PTR __imp__GetParent@4
  00398	50		 push	 eax
  00399	e8 00 00 00 00	 call	 ?FromHandle@CWnd@@SGPAV1@PAUHWND__@@@Z ; CWnd::FromHandle

; 32   : 	{ ASSERT(::IsWindow(m_hWnd)); return ::SendMessage(m_hWnd, message, wParam, lParam); }

  0039e	ff b7 c0 03 00
	00		 push	 DWORD PTR [edi+960]
  003a4	68 71 c3 00 00	 push	 50033			; 0000c371H
  003a9	68 d0 04 00 00	 push	 1232			; 000004d0H
  003ae	ff 70 20	 push	 DWORD PTR [eax+32]
  003b1	ff 15 00 00 00
	00		 call	 DWORD PTR __imp__SendMessageA@16

; 213  : 	{ ASSERT(::IsWindow(m_hWnd)); return CWnd::FromHandle(::GetParent(m_hWnd)); }

  003b7	ff 76 20	 push	 DWORD PTR [esi+32]
  003ba	ff 15 00 00 00
	00		 call	 DWORD PTR __imp__GetParent@4
  003c0	50		 push	 eax
  003c1	e8 00 00 00 00	 call	 ?FromHandle@CWnd@@SGPAV1@PAUHWND__@@@Z ; CWnd::FromHandle

; 32   : 	{ ASSERT(::IsWindow(m_hWnd)); return ::SendMessage(m_hWnd, message, wParam, lParam); }

  003c6	ff b7 c4 03 00
	00		 push	 DWORD PTR [edi+964]
  003cc	68 6a c3 00 00	 push	 50026			; 0000c36aH
  003d1	68 d0 04 00 00	 push	 1232			; 000004d0H
  003d6	ff 70 20	 push	 DWORD PTR [eax+32]
  003d9	ff 15 00 00 00
	00		 call	 DWORD PTR __imp__SendMessageA@16
; File D:\git\src\IBK\IBK_DRFN\ProjSrc\SrcDrfn\Chart\comparechart\ChartMng.cpp

; 1012 : 							if(m_pExtInputBarDlg)

  003df	8b 86 d0 00 00
	00		 mov	 eax, DWORD PTR [esi+208]
  003e5	85 c0		 test	 eax, eax
  003e7	74 12		 je	 SHORT $LN36@OnEventMes
; File C:\Program Files (x86)\Microsoft Visual Studio\2019\Community\VC\Tools\MSVC\14.29.30133\atlmfc\include\afxwin2.inl

; 32   : 	{ ASSERT(::IsWindow(m_hWnd)); return ::SendMessage(m_hWnd, message, wParam, lParam); }

  003e9	6a 00		 push	 0
  003eb	6a 59		 push	 89			; 00000059H
  003ed	68 d0 04 00 00	 push	 1232			; 000004d0H
  003f2	ff 70 20	 push	 DWORD PTR [eax+32]
  003f5	ff 15 00 00 00
	00		 call	 DWORD PTR __imp__SendMessageA@16
$LN36@OnEventMes:
  003fb	6a 00		 push	 0
  003fd	68 fc 03 00 00	 push	 1020			; 000003fcH
  00402	ff 35 00 00 00
	00		 push	 DWORD PTR ?RMS_ANALYSIS_FUNC@@3IB
  00408	ff 77 20	 push	 DWORD PTR [edi+32]
  0040b	ff 15 00 00 00
	00		 call	 DWORD PTR __imp__SendMessageA@16
$LN332@OnEventMes:
; File D:\git\src\IBK\IBK_DRFN\ProjSrc\SrcDrfn\Chart\comparechart\ChartMng.cpp

; 986  : 				EACH_CHARTJOB_START()

  00411	8b 45 d8	 mov	 eax, DWORD PTR $T15[ebp]
$LN4@OnEventMes:
  00414	83 45 d4 50	 add	 DWORD PTR tv1974[ebp], 80 ; 00000050H
  00418	40		 inc	 eax
  00419	8b 55 d4	 mov	 edx, DWORD PTR tv1974[ebp]
  0041c	89 45 d8	 mov	 DWORD PTR $T15[ebp], eax
  0041f	3b 86 4c 07 00
	00		 cmp	 eax, DWORD PTR [esi+1868]
  00425	0f 8c 85 fe ff
	ff		 jl	 $LL6@OnEventMes

; 1013 : 							{
; 1014 : 								m_pExtInputBarDlg->SendMessage(UMSG_SYNC_TOOLBAR, CToolOptionInfo::TOOLOPTION::T_CROSSHAIRS_TOOL, 0);
; 1015 : 							}
; 1016 : 							pChartItem->SendMessage(RMS_ANALYSIS_FUNC, CToolOptionInfo::T_ALL_TOOL_TRUE_QUERY, 0);
; 1017 : 						}
; 1018 : 						//}}
; 1019 : 						break;
; 1020 : 					}	
; 1021 : 				EACH_CHARTJOB_END()
; 1022 : 			}			
; 1023 : 		}
; 1024 : 		break;

  0042b	e9 3b 02 00 00	 jmp	 $LN314@OnEventMes
$LN58@OnEventMes:

; 1881 : 	if(m_lRowSelected < 0) return NULL;

  00430	8b 86 54 07 00
	00		 mov	 eax, DWORD PTR [esi+1876]
  00436	85 c0		 test	 eax, eax
  00438	0f 88 30 02 00
	00		 js	 $LN89@OnEventMes

; 1882 : 	if(m_lColSelected < 0) return NULL;

  0043e	8b 8e 50 07 00
	00		 mov	 ecx, DWORD PTR [esi+1872]
  00444	85 c9		 test	 ecx, ecx
  00446	0f 88 22 02 00
	00		 js	 $LN89@OnEventMes

; 1884 : 	if(m_pChartItems[m_lRowSelected][m_lColSelected]->GetSafeHwnd())

  0044c	8d 04 80	 lea	 eax, DWORD PTR [eax+eax*4]
  0044f	8d 04 81	 lea	 eax, DWORD PTR [ecx+eax*4]
  00452	8b 84 86 08 01
	00 00		 mov	 eax, DWORD PTR [esi+eax*4+264]
; File C:\Program Files (x86)\Microsoft Visual Studio\2019\Community\VC\Tools\MSVC\14.29.30133\atlmfc\include\afxwin2.inl

; 25   : 	{ return this == NULL ? NULL : m_hWnd; }

  00459	85 c0		 test	 eax, eax
  0045b	0f 84 0d 02 00
	00		 je	 $LN89@OnEventMes
; File D:\git\src\IBK\IBK_DRFN\ProjSrc\SrcDrfn\Chart\comparechart\ChartMng.cpp

; 1884 : 	if(m_pChartItems[m_lRowSelected][m_lColSelected]->GetSafeHwnd())

  00461	83 78 20 00	 cmp	 DWORD PTR [eax+32], 0
  00465	0f 84 03 02 00
	00		 je	 $LN89@OnEventMes

; 1106 : 	case UWM_ZOOMVALUE:
; 1107 : 		{
; 1108 : 			CChartItem* pChartItem = NULL;
; 1109 : 			pChartItem = GetpChartItemSelected();
; 1110 : 			if(pChartItem == NULL) 
; 1111 : 				break;
; 1112 : 
; 1113 : 			CDRChartOcx *pChart = (CDRChartOcx *)GetDlgItem(wParam);		

  0046b	52		 push	 edx
  0046c	8b ce		 mov	 ecx, esi
  0046e	e8 00 00 00 00	 call	 ?GetDlgItem@CWnd@@QBEPAV1@H@Z ; CWnd::GetDlgItem

; 1114 : 			if(GetpChartItemSelected()==pChart&&m_bLastEnvUpdated)

  00473	8b ce		 mov	 ecx, esi
  00475	8b f8		 mov	 edi, eax
  00477	e8 00 00 00 00	 call	 ?GetpChartItemSelected@CChartMng@@QAEPAVCChartItem@@XZ ; CChartMng::GetpChartItemSelected
  0047c	3b c7		 cmp	 eax, edi
  0047e	8b 7d dc	 mov	 edi, DWORD PTR _lParam$GSCopy$1$[ebp]
  00481	0f 85 e7 01 00
	00		 jne	 $LN89@OnEventMes
  00487	83 be b0 00 00
	00 00		 cmp	 DWORD PTR [esi+176], 0
  0048e	0f 84 da 01 00
	00		 je	 $LN89@OnEventMes

; 1115 : 			{
; 1116 : 				//R      05.12.05  =================================
; 1117 : 				if(pMsgFromChart->wParam == 0) 

  00494	83 7f 08 00	 cmp	 DWORD PTR [edi+8], 0
  00498	0f 85 d0 01 00
	00		 jne	 $LN89@OnEventMes

; 1118 : 				//=============================================================================
; 1119 : 				if(m_pInputBarDlg)

  0049e	8b 86 cc 00 00
	00		 mov	 eax, DWORD PTR [esi+204]
  004a4	85 c0		 test	 eax, eax
  004a6	0f 84 c2 01 00
	00		 je	 $LN89@OnEventMes
; File C:\Program Files (x86)\Microsoft Visual Studio\2019\Community\VC\Tools\MSVC\14.29.30133\atlmfc\include\afxwin2.inl

; 32   : 	{ ASSERT(::IsWindow(m_hWnd)); return ::SendMessage(m_hWnd, message, wParam, lParam); }

  004ac	6a 00		 push	 0
  004ae	ff 77 0c	 push	 DWORD PTR [edi+12]
  004b1	68 08 04 00 00	 push	 1032			; 00000408H
  004b6	ff 70 20	 push	 DWORD PTR [eax+32]
  004b9	ff 15 00 00 00
	00		 call	 DWORD PTR __imp__SendMessageA@16
; File D:\git\src\IBK\IBK_DRFN\ProjSrc\SrcDrfn\Chart\comparechart\ChartMng.cpp

; 1123 : 		break;

  004bf	e9 aa 01 00 00	 jmp	 $LN89@OnEventMes
$LN98@OnEventMes:

; 975  : 	MSG *pMsgFromChart = (MSG *)lParam;
; 976  : 	//TRACE1("OnEventMessage %d\n", pMsgFromChart->message);
; 977  : 	switch(pMsgFromChart->message)

  004c4	2d 37 31 00 00	 sub	 eax, 12599		; 00003137H
  004c9	83 f8 10	 cmp	 eax, 16			; 00000010H
  004cc	0f 87 9c 01 00
	00		 ja	 $LN89@OnEventMes
  004d2	0f b6 80 00 00
	00 00		 movzx	 eax, BYTE PTR $LN304@OnEventMes[eax]
  004d9	ff 24 85 00 00
	00 00		 jmp	 DWORD PTR $LN305@OnEventMes[eax*4]
$LN64@OnEventMes:

; 1124 : 	case UWM_VIEWENDTIME:
; 1125 : 		{
; 1126 : 			//        .
; 1127 : 			return 0l;
; 1128 : 			/*
; 1129 : 			CChartItem* pChartItem = NULL;
; 1130 : 			pChartItem = GetpChartItemSelected();
; 1131 : 			if(pChartItem == NULL) 
; 1132 : 				break;
; 1133 : 
; 1134 : 			CKBChart *pChart = (CKBChart *)GetDlgItem(wParam);
; 1135 : 			if(!pMsgFromChart->lParam) return 0;
; 1136 : 			if(GetpChartItemSelected()==pChart)
; 1137 : 			{
; 1138 : 				//--------------------------------------------------------------------------------
; 1139 : 				//2005. 05. 27 InputBar  ExtInputBarDlg .
; 1140 : 				//m_pInputBarDlg->SendMessage(UMSG_SETVIEWENDTIME,pMsgFromChart->lParam);
; 1141 : 				if(m_pExtInputBarDlg)
; 1142 : 					m_pExtInputBarDlg->SendMessage(UMSG_SETVIEWENDTIME,pMsgFromChart->lParam);
; 1143 : 				//--------------------------------------------------------------------------------
; 1144 : 			}*/
; 1145 : 		}
; 1146 : 		break;
; 1147 : 	case UWM_USEINQUIRY_CROSSLINE:
; 1148 : 		{
; 1149 : 			CChartItem *pChart = (CChartItem *)GetDlgItem(wParam);

  004e0	52		 push	 edx
  004e1	e8 00 00 00 00	 call	 ?GetDlgItem@CWnd@@QBEPAV1@H@Z ; CWnd::GetDlgItem

; 1150 : 			EACH_CHARTJOB_START()

  004e6	33 c9		 xor	 ecx, ecx
  004e8	8b d0		 mov	 edx, eax
  004ea	89 55 cc	 mov	 DWORD PTR _pChart$1$[ebp], edx
  004ed	89 4d d4	 mov	 DWORD PTR _nRowIndex$1$[ebp], ecx
  004f0	39 8e 4c 07 00
	00		 cmp	 DWORD PTR [esi+1868], ecx
  004f6	0f 8e 72 01 00
	00		 jle	 $LN89@OnEventMes

; 1124 : 	case UWM_VIEWENDTIME:
; 1125 : 		{
; 1126 : 			//        .
; 1127 : 			return 0l;
; 1128 : 			/*
; 1129 : 			CChartItem* pChartItem = NULL;
; 1130 : 			pChartItem = GetpChartItemSelected();
; 1131 : 			if(pChartItem == NULL) 
; 1132 : 				break;
; 1133 : 
; 1134 : 			CKBChart *pChart = (CKBChart *)GetDlgItem(wParam);
; 1135 : 			if(!pMsgFromChart->lParam) return 0;
; 1136 : 			if(GetpChartItemSelected()==pChart)
; 1137 : 			{
; 1138 : 				//--------------------------------------------------------------------------------
; 1139 : 				//2005. 05. 27 InputBar  ExtInputBarDlg .
; 1140 : 				//m_pInputBarDlg->SendMessage(UMSG_SETVIEWENDTIME,pMsgFromChart->lParam);
; 1141 : 				if(m_pExtInputBarDlg)
; 1142 : 					m_pExtInputBarDlg->SendMessage(UMSG_SETVIEWENDTIME,pMsgFromChart->lParam);
; 1143 : 				//--------------------------------------------------------------------------------
; 1144 : 			}*/
; 1145 : 		}
; 1146 : 		break;
; 1147 : 	case UWM_USEINQUIRY_CROSSLINE:
; 1148 : 		{
; 1149 : 			CChartItem *pChart = (CChartItem *)GetDlgItem(wParam);

  004fc	8d be 08 01 00
	00		 lea	 edi, DWORD PTR [esi+264]
  00502	89 7d d8	 mov	 DWORD PTR tv1970[ebp], edi
$LL24@OnEventMes:

; 1150 : 			EACH_CHARTJOB_START()

  00505	33 c0		 xor	 eax, eax
  00507	89 45 d0	 mov	 DWORD PTR _nColIndex$1$[ebp], eax
  0050a	39 86 48 07 00
	00		 cmp	 DWORD PTR [esi+1864], eax
  00510	7e 32		 jle	 SHORT $LN22@OnEventMes
$LL27@OnEventMes:
  00512	8b 0f		 mov	 ecx, DWORD PTR [edi]
  00514	85 c9		 test	 ecx, ecx
  00516	74 17		 je	 SHORT $LN25@OnEventMes

; 1151 : 				if(pChartItem!=pChart)

  00518	3b ca		 cmp	 ecx, edx
  0051a	74 13		 je	 SHORT $LN25@OnEventMes

; 1152 : 				{
; 1153 : 					pChartItem->SetNUseInquiryWithCrossline(pMsgFromChart->wParam);

  0051c	8b 45 dc	 mov	 eax, DWORD PTR _lParam$GSCopy$1$[ebp]
  0051f	0f b7 40 08	 movzx	 eax, WORD PTR [eax+8]
  00523	50		 push	 eax
  00524	e8 00 00 00 00	 call	 ?SetNUseInquiryWithCrossline@CDRChartOcx@@QAEXF@Z ; CDRChartOcx::SetNUseInquiryWithCrossline
  00529	8b 45 d0	 mov	 eax, DWORD PTR _nColIndex$1$[ebp]
  0052c	8b 55 cc	 mov	 edx, DWORD PTR _pChart$1$[ebp]
$LN25@OnEventMes:

; 1150 : 			EACH_CHARTJOB_START()

  0052f	40		 inc	 eax
  00530	83 c7 04	 add	 edi, 4
  00533	89 45 d0	 mov	 DWORD PTR _nColIndex$1$[ebp], eax
  00536	3b 86 48 07 00
	00		 cmp	 eax, DWORD PTR [esi+1864]
  0053c	7c d4		 jl	 SHORT $LL27@OnEventMes
  0053e	8b 4d d4	 mov	 ecx, DWORD PTR _nRowIndex$1$[ebp]
  00541	8b 7d d8	 mov	 edi, DWORD PTR tv1970[ebp]
$LN22@OnEventMes:
  00544	41		 inc	 ecx
  00545	83 c7 50	 add	 edi, 80			; 00000050H
  00548	89 4d d4	 mov	 DWORD PTR _nRowIndex$1$[ebp], ecx
  0054b	89 7d d8	 mov	 DWORD PTR tv1970[ebp], edi
  0054e	3b 8e 4c 07 00
	00		 cmp	 ecx, DWORD PTR [esi+1868]
  00554	7c af		 jl	 SHORT $LL24@OnEventMes

; 1154 : 				}				
; 1155 : 			EACH_CHARTJOB_END()
; 1156 : 		}
; 1157 : 		break;

  00556	e9 10 01 00 00	 jmp	 $LN314@OnEventMes
$LN67@OnEventMes:

; 1158 : 	case UWM_FIREGSHAREDATA: // Global   ... .
; 1159 : 		{
; 1160 : 			CString strCodeShare = (LPCTSTR)pMsgFromChart->lParam;			

  0055b	ff 77 0c	 push	 DWORD PTR [edi+12]
  0055e	8d 4d d8	 lea	 ecx, DWORD PTR _strCodeShare$17[ebp]
  00561	ff 15 00 00 00
	00		 call	 DWORD PTR __imp_??0?$CStringT@DV?$StrTraitMFC_DLL@DV?$ChTraitsCRT@D@ATL@@@@@ATL@@QAE@PBD@Z
; File C:\Program Files (x86)\Microsoft Visual Studio\2019\Community\VC\Tools\MSVC\14.29.30133\atlmfc\include\atlsimpstr.h

; 519  : 		return( GetData()->nDataLength );

  00567	8b 45 d8	 mov	 eax, DWORD PTR _strCodeShare$17[ebp]
; File D:\git\src\IBK\IBK_DRFN\ProjSrc\SrcDrfn\Chart\comparechart\ChartMng.cpp

; 1162 : 			int nPos = strCodeShare.Find(';');

  0056a	8d 4d d8	 lea	 ecx, DWORD PTR _strCodeShare$17[ebp]
  0056d	6a 00		 push	 0
  0056f	6a 3b		 push	 59			; 0000003bH
  00571	c7 45 fc 00 00
	00 00		 mov	 DWORD PTR __$EHRec$[ebp+8], 0
; File C:\Program Files (x86)\Microsoft Visual Studio\2019\Community\VC\Tools\MSVC\14.29.30133\atlmfc\include\atlsimpstr.h

; 519  : 		return( GetData()->nDataLength );

  00578	8b 78 f4	 mov	 edi, DWORD PTR [eax-12]
; File D:\git\src\IBK\IBK_DRFN\ProjSrc\SrcDrfn\Chart\comparechart\ChartMng.cpp

; 1162 : 			int nPos = strCodeShare.Find(';');

  0057b	ff 15 00 00 00
	00		 call	 DWORD PTR __imp_?Find@?$CStringT@DV?$StrTraitMFC_DLL@DV?$ChTraitsCRT@D@ATL@@@@@ATL@@QBEHDH@Z
  00581	89 45 cc	 mov	 DWORD PTR _nPos$1$[ebp], eax

; 1163 : 			if(nPos<1) return 1L;

  00584	8d 4d d8	 lea	 ecx, DWORD PTR _strCodeShare$17[ebp]
  00587	83 f8 01	 cmp	 eax, 1
  0058a	7d 10		 jge	 SHORT $LN68@OnEventMes
  0058c	ff 15 00 00 00
	00		 call	 DWORD PTR __imp_??1?$CStringT@DV?$StrTraitMFC_DLL@DV?$ChTraitsCRT@D@ATL@@@@@ATL@@QAE@XZ
  00592	b8 01 00 00 00	 mov	 eax, 1
  00597	e9 43 05 00 00	 jmp	 $LN1@OnEventMes
$LN68@OnEventMes:

; 1164 : 			CString strCodeHead = strCodeShare.Left(nPos);

  0059c	50		 push	 eax
  0059d	8d 45 d0	 lea	 eax, DWORD PTR _strCodeHead$10[ebp]
  005a0	50		 push	 eax
  005a1	ff 15 00 00 00
	00		 call	 DWORD PTR __imp_?Left@?$CStringT@DV?$StrTraitMFC_DLL@DV?$ChTraitsCRT@D@ATL@@@@@ATL@@QBE?AV12@H@Z

; 1165 : 			CString strCodeTail = strCodeShare.Right(nSize-(nPos+1));

  005a7	2b 7d cc	 sub	 edi, DWORD PTR _nPos$1$[ebp]
  005aa	8d 45 d4	 lea	 eax, DWORD PTR _strCodeTail$13[ebp]
  005ad	4f		 dec	 edi
  005ae	c6 45 fc 01	 mov	 BYTE PTR __$EHRec$[ebp+8], 1
  005b2	57		 push	 edi
  005b3	50		 push	 eax
  005b4	8d 4d d8	 lea	 ecx, DWORD PTR _strCodeShare$17[ebp]
  005b7	ff 15 00 00 00
	00		 call	 DWORD PTR __imp_?Right@?$CStringT@DV?$StrTraitMFC_DLL@DV?$ChTraitsCRT@D@ATL@@@@@ATL@@QBE?AV12@H@Z
; File C:\Program Files (x86)\Microsoft Visual Studio\2019\Community\VC\Tools\MSVC\14.29.30133\atlmfc\include\cstringt.h

; 2486 : 		return(str1.Compare(psz2) == 0);

  005bd	68 00 00 00 00	 push	 OFFSET ??_C@_09NAHCEPAB@?$LN?C?$LA?$KD?9?B?w?F?$KO@
  005c2	8d 4d d0	 lea	 ecx, DWORD PTR _strCodeHead$10[ebp]
; File D:\git\src\IBK\IBK_DRFN\ProjSrc\SrcDrfn\Chart\comparechart\ChartMng.cpp

; 1165 : 			CString strCodeTail = strCodeShare.Right(nSize-(nPos+1));

  005c5	c6 45 fc 02	 mov	 BYTE PTR __$EHRec$[ebp+8], 2
; File C:\Program Files (x86)\Microsoft Visual Studio\2019\Community\VC\Tools\MSVC\14.29.30133\atlmfc\include\cstringt.h

; 2486 : 		return(str1.Compare(psz2) == 0);

  005c9	ff 15 00 00 00
	00		 call	 DWORD PTR __imp_?Compare@?$CStringT@DV?$StrTraitMFC_DLL@DV?$ChTraitsCRT@D@ATL@@@@@ATL@@QBEHPBD@Z
  005cf	85 c0		 test	 eax, eax
; File D:\git\src\IBK\IBK_DRFN\ProjSrc\SrcDrfn\Chart\comparechart\ChartMng.cpp

; 1166 : 			if(strCodeHead=="-")

  005d1	75 18		 jne	 SHORT $LN69@OnEventMes

; 1167 : 			{
; 1168 : 				CChartItem *pChart = (CChartItem *)GetDlgItem(wParam);

  005d3	ff 75 c0	 push	 DWORD PTR _wParam$GSCopy$1$[ebp]
  005d6	8b ce		 mov	 ecx, esi
  005d8	e8 00 00 00 00	 call	 ?GetDlgItem@CWnd@@QBEPAV1@H@Z ; CWnd::GetDlgItem

; 1169 : 				SetTimeMark((LPCTSTR)strCodeTail,TRUE);

  005dd	6a 01		 push	 1
  005df	ff 75 d4	 push	 DWORD PTR _strCodeTail$13[ebp]
  005e2	8b ce		 mov	 ecx, esi
  005e4	e8 00 00 00 00	 call	 ?SetTimeMark@CChartMng@@QAEXPBDH@Z ; CChartMng::SetTimeMark

; 1170 : 			}

  005e9	eb 5e		 jmp	 SHORT $LN182@OnEventMes
$LN69@OnEventMes:
  005eb	8d 4d c8	 lea	 ecx, DWORD PTR _stData$6[ebp]
  005ee	ff 15 00 00 00
	00		 call	 DWORD PTR __imp_??0?$CStringT@DV?$StrTraitMFC_DLL@DV?$ChTraitsCRT@D@ATL@@@@@ATL@@QAE@XZ
  005f4	8d 4d cc	 lea	 ecx, DWORD PTR _stData$6[ebp+4]
  005f7	ff 15 00 00 00
	00		 call	 DWORD PTR __imp_??0?$CStringT@DV?$StrTraitMFC_DLL@DV?$ChTraitsCRT@D@ATL@@@@@ATL@@QAE@XZ

; 1171 : 			else
; 1172 : 			{
; 1173 : 				STSHAREDDATA stData;
; 1174 : 				stData.m_szKey = (LPCTSTR)strCodeHead;

  005fd	ff 75 d0	 push	 DWORD PTR _strCodeHead$10[ebp]
  00600	8d 4d c8	 lea	 ecx, DWORD PTR _stData$6[ebp]
  00603	c6 45 fc 03	 mov	 BYTE PTR __$EHRec$[ebp+8], 3
  00607	ff 15 00 00 00
	00		 call	 DWORD PTR __imp_??4?$CStringT@DV?$StrTraitMFC_DLL@DV?$ChTraitsCRT@D@ATL@@@@@ATL@@QAEAAV01@PBD@Z

; 1175 : 				stData.m_szValue = (LPCTSTR)strCodeTail;

  0060d	ff 75 d4	 push	 DWORD PTR _strCodeTail$13[ebp]
  00610	8d 4d cc	 lea	 ecx, DWORD PTR _stData$6[ebp+4]
  00613	ff 15 00 00 00
	00		 call	 DWORD PTR __imp_??4?$CStringT@DV?$StrTraitMFC_DLL@DV?$ChTraitsCRT@D@ATL@@@@@ATL@@QAEAAV01@PBD@Z

; 1176 : 				if(m_pLeftBarDlg)

  00619	8b 86 d4 00 00
	00		 mov	 eax, DWORD PTR [esi+212]
  0061f	85 c0		 test	 eax, eax
  00621	74 14		 je	 SHORT $LN71@OnEventMes
; File C:\Program Files (x86)\Microsoft Visual Studio\2019\Community\VC\Tools\MSVC\14.29.30133\atlmfc\include\afxwin2.inl

; 32   : 	{ ASSERT(::IsWindow(m_hWnd)); return ::SendMessage(m_hWnd, message, wParam, lParam); }

  00623	8d 4d c8	 lea	 ecx, DWORD PTR _stData$6[ebp]
  00626	51		 push	 ecx
  00627	6a 00		 push	 0
  00629	68 3e 04 00 00	 push	 1086			; 0000043eH
  0062e	ff 70 20	 push	 DWORD PTR [eax+32]
  00631	ff 15 00 00 00
	00		 call	 DWORD PTR __imp__SendMessageA@16
$LN71@OnEventMes:
  00637	8d 4d cc	 lea	 ecx, DWORD PTR _stData$6[ebp+4]
  0063a	ff 15 00 00 00
	00		 call	 DWORD PTR __imp_??1?$CStringT@DV?$StrTraitMFC_DLL@DV?$ChTraitsCRT@D@ATL@@@@@ATL@@QAE@XZ
  00640	8d 4d c8	 lea	 ecx, DWORD PTR _stData$6[ebp]
  00643	ff 15 00 00 00
	00		 call	 DWORD PTR __imp_??1?$CStringT@DV?$StrTraitMFC_DLL@DV?$ChTraitsCRT@D@ATL@@@@@ATL@@QAE@XZ
$LN182@OnEventMes:
; File D:\git\src\IBK\IBK_DRFN\ProjSrc\SrcDrfn\Chart\comparechart\ChartMng.cpp

; 1182 : 		}

  00649	8d 4d d4	 lea	 ecx, DWORD PTR _strCodeTail$13[ebp]
  0064c	ff 15 00 00 00
	00		 call	 DWORD PTR __imp_??1?$CStringT@DV?$StrTraitMFC_DLL@DV?$ChTraitsCRT@D@ATL@@@@@ATL@@QAE@XZ
  00652	8d 4d d0	 lea	 ecx, DWORD PTR _strCodeHead$10[ebp]
  00655	ff 15 00 00 00
	00		 call	 DWORD PTR __imp_??1?$CStringT@DV?$StrTraitMFC_DLL@DV?$ChTraitsCRT@D@ATL@@@@@ATL@@QAE@XZ
  0065b	c7 45 fc ff ff
	ff ff		 mov	 DWORD PTR __$EHRec$[ebp+8], -1
  00662	8d 4d d8	 lea	 ecx, DWORD PTR _strCodeShare$17[ebp]
$LN336@OnEventMes:

; 1294 : 		break;
; 1295 : 
; 1296 : 	}
; 1297 : 	//2007.01.17 add by LYH   
; 1298 : 	if(pMsgFromChart->message == RMS_ANALYSIS_FUNC)

  00665	ff 15 00 00 00
	00		 call	 DWORD PTR __imp_??1?$CStringT@DV?$StrTraitMFC_DLL@DV?$ChTraitsCRT@D@ATL@@@@@ATL@@QAE@XZ
$LN314@OnEventMes:
  0066b	8b 7d dc	 mov	 edi, DWORD PTR _lParam$GSCopy$1$[ebp]
$LN89@OnEventMes:
  0066e	8b 47 04	 mov	 eax, DWORD PTR [edi+4]
  00671	3b 05 00 00 00
	00		 cmp	 eax, DWORD PTR ?RMS_ANALYSIS_FUNC@@3IB
  00677	0f 85 60 04 00
	00		 jne	 $LN96@OnEventMes

; 1299 : 	{
; 1300 : 		//   
; 1301 : 		if(pMsgFromChart->wParam == CToolOptionInfo::TOOLOPTION::T_DRAG_X_ZOOM 
; 1302 : 			|| pMsgFromChart->wParam == CToolOptionInfo::TOOLOPTION::T_WHOLEVIEW
; 1303 : 			|| pMsgFromChart->wParam == CToolOptionInfo::TOOLOPTION::T_TOOL_SELECTION)

  0067d	8b 45 dc	 mov	 eax, DWORD PTR _lParam$GSCopy$1$[ebp]
  00680	8b 48 08	 mov	 ecx, DWORD PTR [eax+8]
  00683	83 f9 6a	 cmp	 ecx, 106		; 0000006aH
  00686	0f 84 51 04 00
	00		 je	 $LN96@OnEventMes
  0068c	83 f9 01	 cmp	 ecx, 1
  0068f	0f 84 48 04 00
	00		 je	 $LN96@OnEventMes
  00695	83 f9 20	 cmp	 ecx, 32			; 00000020H
  00698	0f 84 3f 04 00
	00		 je	 $LN96@OnEventMes

; 1304 : 			return 0;
; 1305 : 		//end
; 1306 : 
; 1307 : 		if(pMsgFromChart->wParam == CToolOptionInfo::TOOLOPTION::T_CROSSHAIRS_TOOL
; 1308 : 			|| pMsgFromChart->wParam == CToolOptionInfo::TOOLOPTION::T_ADDIN_AUTOSCROLL_PLAY_LEFT
; 1309 : 			|| pMsgFromChart->wParam == CToolOptionInfo::TOOLOPTION::T_ADDIN_AUTOSCROLL_PLAY_RIGHT)

  0069e	83 f9 59	 cmp	 ecx, 89			; 00000059H
  006a1	0f 84 1e 04 00
	00		 je	 $LN94@OnEventMes
  006a7	81 f9 f2 03 00
	00		 cmp	 ecx, 1010		; 000003f2H
  006ad	0f 84 12 04 00
	00		 je	 $LN94@OnEventMes
  006b3	81 f9 f3 03 00
	00		 cmp	 ecx, 1011		; 000003f3H
  006b9	0f 84 06 04 00
	00		 je	 $LN94@OnEventMes

; 1310 : 		{
; 1311 : 			m_pExtInputBarDlg->SendMessage(UMSG_SYNC_TOOLBAR,pMsgFromChart->wParam, pMsgFromChart->lParam);
; 1312 : 			return 0;
; 1313 : 		}
; 1314 : 		CChartItem* pChartItem = NULL;
; 1315 : 		pChartItem = GetpChartItemSelected();

  006bf	8b ce		 mov	 ecx, esi
  006c1	e8 00 00 00 00	 call	 ?GetpChartItemSelected@CChartMng@@QAEPAVCChartItem@@XZ ; CChartMng::GetpChartItemSelected
  006c6	8b f8		 mov	 edi, eax

; 1316 : 		if(pChartItem == NULL) 

  006c8	85 ff		 test	 edi, edi
  006ca	0f 84 0d 04 00
	00		 je	 $LN96@OnEventMes

; 1317 : 			return 0;
; 1318 : 
; 1319 : 		CDRChartOcx *pChart = (CDRChartOcx *)GetDlgItem(wParam);		

  006d0	ff 75 c0	 push	 DWORD PTR _wParam$GSCopy$1$[ebp]
  006d3	8b ce		 mov	 ecx, esi
  006d5	e8 00 00 00 00	 call	 ?GetDlgItem@CWnd@@QBEPAV1@H@Z ; CWnd::GetDlgItem

; 1320 : 		if(pChartItem==pChart)

  006da	3b f8		 cmp	 edi, eax
  006dc	0f 85 fb 03 00
	00		 jne	 $LN96@OnEventMes

; 1321 : 		{
; 1322 : 			int nID = (int)pMsgFromChart->wParam;

  006e2	8b 45 dc	 mov	 eax, DWORD PTR _lParam$GSCopy$1$[ebp]

; 1323 : 			CString strData;

  006e5	8d 4d c0	 lea	 ecx, DWORD PTR _strData$4[ebp]
  006e8	8b 78 08	 mov	 edi, DWORD PTR [eax+8]
  006eb	ff 15 00 00 00
	00		 call	 DWORD PTR __imp_??0?$CStringT@DV?$StrTraitMFC_DLL@DV?$ChTraitsCRT@D@ATL@@@@@ATL@@QAE@XZ

; 1324 : 			strData.Format("%d | %d",nID , pMsgFromChart->lParam);

  006f1	8b 45 dc	 mov	 eax, DWORD PTR _lParam$GSCopy$1$[ebp]
  006f4	c7 45 fc 08 00
	00 00		 mov	 DWORD PTR __$EHRec$[ebp+8], 8
  006fb	ff 70 0c	 push	 DWORD PTR [eax+12]
  006fe	8d 45 c0	 lea	 eax, DWORD PTR _strData$4[ebp]
  00701	57		 push	 edi
  00702	68 00 00 00 00	 push	 OFFSET ??_C@_07PABJKJDM@?$CFd?5?$HM?5?$CFd@
  00707	50		 push	 eax
  00708	ff 15 00 00 00
	00		 call	 DWORD PTR __imp_?Format@?$CStringT@DV?$StrTraitMFC_DLL@DV?$ChTraitsCRT@D@ATL@@@@@ATL@@QAAXPBDZZ
  0070e	83 c4 10	 add	 esp, 16			; 00000010H
; File C:\Program Files (x86)\Microsoft Visual Studio\2019\Community\VC\Tools\MSVC\14.29.30133\atlmfc\include\afxwin2.inl

; 213  : 	{ ASSERT(::IsWindow(m_hWnd)); return CWnd::FromHandle(::GetParent(m_hWnd)); }

  00711	ff 76 20	 push	 DWORD PTR [esi+32]
  00714	ff 15 00 00 00
	00		 call	 DWORD PTR __imp__GetParent@4
  0071a	50		 push	 eax
  0071b	e8 00 00 00 00	 call	 ?FromHandle@CWnd@@SGPAV1@PAUHWND__@@@Z ; CWnd::FromHandle

; 32   : 	{ ASSERT(::IsWindow(m_hWnd)); return ::SendMessage(m_hWnd, message, wParam, lParam); }

  00720	8b 4d dc	 mov	 ecx, DWORD PTR _lParam$GSCopy$1$[ebp]
  00723	ff 71 0c	 push	 DWORD PTR [ecx+12]
  00726	ff 71 08	 push	 DWORD PTR [ecx+8]
  00729	68 d0 04 00 00	 push	 1232			; 000004d0H
  0072e	ff 70 20	 push	 DWORD PTR [eax+32]
  00731	ff 15 00 00 00
	00		 call	 DWORD PTR __imp__SendMessageA@16
; File D:\git\src\IBK\IBK_DRFN\ProjSrc\SrcDrfn\Chart\comparechart\ChartMng.cpp

; 1327 : 		}

  00737	8d 4d c0	 lea	 ecx, DWORD PTR _strData$4[ebp]
  0073a	ff 15 00 00 00
	00		 call	 DWORD PTR __imp_??1?$CStringT@DV?$StrTraitMFC_DLL@DV?$ChTraitsCRT@D@ATL@@@@@ATL@@QAE@XZ
  00740	e9 98 03 00 00	 jmp	 $LN96@OnEventMes
$LN72@OnEventMes:

; 1183 : 		break;
; 1184 : 	case UWM_DRAGSTART:
; 1185 : 		{
; 1186 : 			m_lDragStart = pMsgFromChart->lParam;

  00745	8b 47 0c	 mov	 eax, DWORD PTR [edi+12]
  00748	89 86 18 08 00
	00		 mov	 DWORD PTR [esi+2072], eax

; 1187 : 		}
; 1188 : 		break;

  0074e	e9 1b ff ff ff	 jmp	 $LN89@OnEventMes
$LN73@OnEventMes:

; 1189 : 	case UWM_DRAGEND:
; 1190 : 		{
; 1191 : 			m_lDragEnd = pMsgFromChart->lParam;

  00753	8b 47 0c	 mov	 eax, DWORD PTR [edi+12]

; 1192 : 			CChartItem *pChart = (CChartItem *)GetDlgItem(wParam);

  00756	52		 push	 edx
  00757	89 86 1c 08 00
	00		 mov	 DWORD PTR [esi+2076], eax
  0075d	e8 00 00 00 00	 call	 ?GetDlgItem@CWnd@@QBEPAV1@H@Z ; CWnd::GetDlgItem

; 1193 : 			if(pChart->GetDataTRCode()==QUERY_STRJONGMOK)

  00762	6a 00		 push	 0
  00764	8d 4d cc	 lea	 ecx, DWORD PTR $T8[ebp]
  00767	89 45 c4	 mov	 DWORD PTR _pChart$1$[ebp], eax
  0076a	51		 push	 ecx
  0076b	8b c8		 mov	 ecx, eax
  0076d	e8 00 00 00 00	 call	 ?GetDataTRCode@CChartItem@@QAE?AV?$CStringT@DV?$StrTraitMFC_DLL@DV?$ChTraitsCRT@D@ATL@@@@@ATL@@H@Z ; CChartItem::GetDataTRCode
; File C:\Program Files (x86)\Microsoft Visual Studio\2019\Community\VC\Tools\MSVC\14.29.30133\atlmfc\include\cstringt.h

; 2486 : 		return(str1.Compare(psz2) == 0);

  00772	68 00 00 00 00	 push	 OFFSET ??_C@_05ELNNMDND@d1010@
  00777	8b c8		 mov	 ecx, eax
; File D:\git\src\IBK\IBK_DRFN\ProjSrc\SrcDrfn\Chart\comparechart\ChartMng.cpp

; 1193 : 			if(pChart->GetDataTRCode()==QUERY_STRJONGMOK)

  00779	c7 45 fc 04 00
	00 00		 mov	 DWORD PTR __$EHRec$[ebp+8], 4
; File C:\Program Files (x86)\Microsoft Visual Studio\2019\Community\VC\Tools\MSVC\14.29.30133\atlmfc\include\cstringt.h

; 2486 : 		return(str1.Compare(psz2) == 0);

  00780	ff 15 00 00 00
	00		 call	 DWORD PTR __imp_?Compare@?$CStringT@DV?$StrTraitMFC_DLL@DV?$ChTraitsCRT@D@ATL@@@@@ATL@@QBEHPBD@Z
; File D:\git\src\IBK\IBK_DRFN\ProjSrc\SrcDrfn\Chart\comparechart\ChartMng.cpp

; 1193 : 			if(pChart->GetDataTRCode()==QUERY_STRJONGMOK)

  00786	8d 4d cc	 lea	 ecx, DWORD PTR $T8[ebp]
  00789	c7 45 fc ff ff
	ff ff		 mov	 DWORD PTR __$EHRec$[ebp+8], -1
; File C:\Program Files (x86)\Microsoft Visual Studio\2019\Community\VC\Tools\MSVC\14.29.30133\atlmfc\include\cstringt.h

; 2486 : 		return(str1.Compare(psz2) == 0);

  00790	8b f8		 mov	 edi, eax
; File D:\git\src\IBK\IBK_DRFN\ProjSrc\SrcDrfn\Chart\comparechart\ChartMng.cpp

; 1193 : 			if(pChart->GetDataTRCode()==QUERY_STRJONGMOK)

  00792	ff 15 00 00 00
	00		 call	 DWORD PTR __imp_??1?$CStringT@DV?$StrTraitMFC_DLL@DV?$ChTraitsCRT@D@ATL@@@@@ATL@@QAE@XZ
  00798	85 ff		 test	 edi, edi
  0079a	0f 85 cb fe ff
	ff		 jne	 $LN314@OnEventMes

; 1194 : 			{
; 1195 : 				SetSendJongData(pChart->GetDataCode(),pChart->GetType(),pChart->GetTickMinDayNumber());

  007a0	8b 7d c4	 mov	 edi, DWORD PTR _pChart$1$[ebp]
  007a3	8d 45 bc	 lea	 eax, DWORD PTR $T3[ebp]
  007a6	6a ff		 push	 -1
  007a8	50		 push	 eax
  007a9	8b cf		 mov	 ecx, edi
  007ab	e8 00 00 00 00	 call	 ?GetTickMinDayNumber@CChartItem@@QAE?AV?$CStringT@DV?$StrTraitMFC_DLL@DV?$ChTraitsCRT@D@ATL@@@@@ATL@@H@Z ; CChartItem::GetTickMinDayNumber
  007b0	6a 00		 push	 0
  007b2	8d 45 cc	 lea	 eax, DWORD PTR $T7[ebp]
  007b5	c7 45 fc 05 00
	00 00		 mov	 DWORD PTR __$EHRec$[ebp+8], 5
  007bc	50		 push	 eax
  007bd	8b cf		 mov	 ecx, edi
  007bf	e8 00 00 00 00	 call	 ?GetDataCode@CChartItem@@QAE?AV?$CStringT@DV?$StrTraitMFC_DLL@DV?$ChTraitsCRT@D@ATL@@@@@ATL@@H@Z ; CChartItem::GetDataCode
  007c4	8b cf		 mov	 ecx, edi
  007c6	c6 45 fc 06	 mov	 BYTE PTR __$EHRec$[ebp+8], 6
  007ca	e8 00 00 00 00	 call	 ?GetType@CChartItem@@QAEDXZ ; CChartItem::GetType
  007cf	8d 4d cc	 lea	 ecx, DWORD PTR $T7[ebp]
  007d2	ff 15 00 00 00
	00		 call	 DWORD PTR __imp_??1?$CStringT@DV?$StrTraitMFC_DLL@DV?$ChTraitsCRT@D@ATL@@@@@ATL@@QAE@XZ
  007d8	c7 45 fc ff ff
	ff ff		 mov	 DWORD PTR __$EHRec$[ebp+8], -1
  007df	8d 4d bc	 lea	 ecx, DWORD PTR $T3[ebp]

; 1196 : 			}			
; 1197 : 		}
; 1198 : 		break;

  007e2	e9 7e fe ff ff	 jmp	 $LN336@OnEventMes
$LN75@OnEventMes:

; 1199 : 	case UWM_ORGRETURN:
; 1200 : 		{
; 1201 : 			//      default  
; 1202 : 			CChartItem* pChartItem = NULL;
; 1203 : 			pChartItem = GetpChartItemSelected();

  007e7	e8 00 00 00 00	 call	 ?GetpChartItemSelected@CChartMng@@QAEPAVCChartItem@@XZ ; CChartMng::GetpChartItemSelected
  007ec	8b f8		 mov	 edi, eax

; 1204 : 			if(pChartItem == NULL) 

  007ee	85 ff		 test	 edi, edi
  007f0	0f 84 e7 02 00
	00		 je	 $LN96@OnEventMes
; File C:\Program Files (x86)\Microsoft Visual Studio\2019\Community\VC\Tools\MSVC\14.29.30133\atlmfc\include\afxwin2.inl

; 213  : 	{ ASSERT(::IsWindow(m_hWnd)); return CWnd::FromHandle(::GetParent(m_hWnd)); }

  007f6	ff 76 20	 push	 DWORD PTR [esi+32]
  007f9	ff 15 00 00 00
	00		 call	 DWORD PTR __imp__GetParent@4
  007ff	50		 push	 eax
  00800	e8 00 00 00 00	 call	 ?FromHandle@CWnd@@SGPAV1@PAUHWND__@@@Z ; CWnd::FromHandle
; File D:\git\src\IBK\IBK_DRFN\ProjSrc\SrcDrfn\Chart\comparechart\ChartMng.cpp

; 1207 : 			if( ((CStdDialog*)GetParent())->m_nChartType==MINI_MULTI_CHART ||

  00805	83 b8 fc 05 00
	00 02		 cmp	 DWORD PTR [eax+1532], 2
  0080c	74 1d		 je	 SHORT $LN79@OnEventMes
; File C:\Program Files (x86)\Microsoft Visual Studio\2019\Community\VC\Tools\MSVC\14.29.30133\atlmfc\include\afxwin2.inl

; 213  : 	{ ASSERT(::IsWindow(m_hWnd)); return CWnd::FromHandle(::GetParent(m_hWnd)); }

  0080e	ff 76 20	 push	 DWORD PTR [esi+32]
  00811	ff 15 00 00 00
	00		 call	 DWORD PTR __imp__GetParent@4
  00817	50		 push	 eax
  00818	e8 00 00 00 00	 call	 ?FromHandle@CWnd@@SGPAV1@PAUHWND__@@@Z ; CWnd::FromHandle
; File D:\git\src\IBK\IBK_DRFN\ProjSrc\SrcDrfn\Chart\comparechart\ChartMng.cpp

; 1207 : 			if( ((CStdDialog*)GetParent())->m_nChartType==MINI_MULTI_CHART ||

  0081d	83 b8 fc 05 00
	00 03		 cmp	 DWORD PTR [eax+1532], 3

; 1210 : 			else
; 1211 : 				pChartItem->SetCntForRequest(DEFAULTCNTATONCE);

  00824	b8 90 01 00 00	 mov	 eax, 400		; 00000190H
  00829	75 05		 jne	 SHORT $LN78@OnEventMes
$LN79@OnEventMes:

; 1208 : 				((CStdDialog*)GetParent())->m_nChartType==MINI_SINGLE_CHART )
; 1209 : 				pChartItem->SetCntForRequest(90);

  0082b	b8 5a 00 00 00	 mov	 eax, 90			; 0000005aH
$LN78@OnEventMes:

; 1212 : //			pChartItem->SetSaveAllCount(0);
; 1213 : 
; 1214 : 			//if(!m_bReplaychartMode) //06.02.03      TR   .
; 1215 : 			{
; 1216 : 				pChartItem->m_bDrawAutoTrendLine = 0;

  00830	50		 push	 eax
  00831	8b cf		 mov	 ecx, edi
  00833	e8 00 00 00 00	 call	 ?SetCntForRequest@CChartItem@@QAEXI@Z ; CChartItem::SetCntForRequest
  00838	c7 87 b8 03 00
	00 00 00 00 00	 mov	 DWORD PTR [edi+952], 0

; 1217 : 				pChartItem->m_bDrawAutoPattern = 0;

  00842	c7 87 bc 03 00
	00 00 00 00 00	 mov	 DWORD PTR [edi+956], 0

; 1218 : 				pChartItem->m_bDrawCandlePattern = 0;

  0084c	c7 87 c0 03 00
	00 00 00 00 00	 mov	 DWORD PTR [edi+960], 0

; 1219 : 				pChartItem->m_bDrawNews = 0;

  00856	c7 87 c4 03 00
	00 00 00 00 00	 mov	 DWORD PTR [edi+964], 0
; File C:\Program Files (x86)\Microsoft Visual Studio\2019\Community\VC\Tools\MSVC\14.29.30133\atlmfc\include\afxwin2.inl

; 213  : 	{ ASSERT(::IsWindow(m_hWnd)); return CWnd::FromHandle(::GetParent(m_hWnd)); }

  00860	ff 76 20	 push	 DWORD PTR [esi+32]
  00863	ff 15 00 00 00
	00		 call	 DWORD PTR __imp__GetParent@4
  00869	50		 push	 eax
  0086a	e8 00 00 00 00	 call	 ?FromHandle@CWnd@@SGPAV1@PAUHWND__@@@Z ; CWnd::FromHandle

; 32   : 	{ ASSERT(::IsWindow(m_hWnd)); return ::SendMessage(m_hWnd, message, wParam, lParam); }

  0086f	ff b7 b8 03 00
	00		 push	 DWORD PTR [edi+952]
  00875	68 6f c3 00 00	 push	 50031			; 0000c36fH
  0087a	68 d0 04 00 00	 push	 1232			; 000004d0H
  0087f	ff 70 20	 push	 DWORD PTR [eax+32]
  00882	ff 15 00 00 00
	00		 call	 DWORD PTR __imp__SendMessageA@16

; 213  : 	{ ASSERT(::IsWindow(m_hWnd)); return CWnd::FromHandle(::GetParent(m_hWnd)); }

  00888	ff 76 20	 push	 DWORD PTR [esi+32]
  0088b	ff 15 00 00 00
	00		 call	 DWORD PTR __imp__GetParent@4
  00891	50		 push	 eax
  00892	e8 00 00 00 00	 call	 ?FromHandle@CWnd@@SGPAV1@PAUHWND__@@@Z ; CWnd::FromHandle

; 32   : 	{ ASSERT(::IsWindow(m_hWnd)); return ::SendMessage(m_hWnd, message, wParam, lParam); }

  00897	ff b7 bc 03 00
	00		 push	 DWORD PTR [edi+956]
  0089d	68 70 c3 00 00	 push	 50032			; 0000c370H
  008a2	68 d0 04 00 00	 push	 1232			; 000004d0H
  008a7	ff 70 20	 push	 DWORD PTR [eax+32]
  008aa	ff 15 00 00 00
	00		 call	 DWORD PTR __imp__SendMessageA@16

; 213  : 	{ ASSERT(::IsWindow(m_hWnd)); return CWnd::FromHandle(::GetParent(m_hWnd)); }

  008b0	ff 76 20	 push	 DWORD PTR [esi+32]
  008b3	ff 15 00 00 00
	00		 call	 DWORD PTR __imp__GetParent@4
  008b9	50		 push	 eax
  008ba	e8 00 00 00 00	 call	 ?FromHandle@CWnd@@SGPAV1@PAUHWND__@@@Z ; CWnd::FromHandle

; 32   : 	{ ASSERT(::IsWindow(m_hWnd)); return ::SendMessage(m_hWnd, message, wParam, lParam); }

  008bf	ff b7 c0 03 00
	00		 push	 DWORD PTR [edi+960]
  008c5	68 71 c3 00 00	 push	 50033			; 0000c371H
  008ca	68 d0 04 00 00	 push	 1232			; 000004d0H
  008cf	ff 70 20	 push	 DWORD PTR [eax+32]
  008d2	ff 15 00 00 00
	00		 call	 DWORD PTR __imp__SendMessageA@16

; 213  : 	{ ASSERT(::IsWindow(m_hWnd)); return CWnd::FromHandle(::GetParent(m_hWnd)); }

  008d8	ff 76 20	 push	 DWORD PTR [esi+32]
  008db	ff 15 00 00 00
	00		 call	 DWORD PTR __imp__GetParent@4
  008e1	50		 push	 eax
  008e2	e8 00 00 00 00	 call	 ?FromHandle@CWnd@@SGPAV1@PAUHWND__@@@Z ; CWnd::FromHandle

; 32   : 	{ ASSERT(::IsWindow(m_hWnd)); return ::SendMessage(m_hWnd, message, wParam, lParam); }

  008e7	ff b7 c4 03 00
	00		 push	 DWORD PTR [edi+964]
  008ed	68 6a c3 00 00	 push	 50026			; 0000c36aH
  008f2	68 d0 04 00 00	 push	 1232			; 000004d0H
  008f7	ff 70 20	 push	 DWORD PTR [eax+32]
  008fa	ff 15 00 00 00
	00		 call	 DWORD PTR __imp__SendMessageA@16
; File D:\git\src\IBK\IBK_DRFN\ProjSrc\SrcDrfn\Chart\comparechart\ChartMng.cpp

; 1226 : 				ShowScale();

  00900	8b ce		 mov	 ecx, esi
  00902	c7 86 84 07 00
	00 00 00 00 00	 mov	 DWORD PTR [esi+1924], 0
  0090c	e8 00 00 00 00	 call	 ?ShowScale@CChartMng@@AAEHXZ ; CChartMng::ShowScale

; 1227 : 				m_bHideInnerToolBar = FALSE;
; 1228 : 				ShowInnerToolbar();

  00911	8b ce		 mov	 ecx, esi
  00913	c7 86 88 07 00
	00 00 00 00 00	 mov	 DWORD PTR [esi+1928], 0
  0091d	e8 00 00 00 00	 call	 ?ShowInnerToolbar@CChartMng@@AAEHXZ ; CChartMng::ShowInnerToolbar
; File C:\Program Files (x86)\Microsoft Visual Studio\2019\Community\VC\Tools\MSVC\14.29.30133\atlmfc\include\afxwin2.inl

; 213  : 	{ ASSERT(::IsWindow(m_hWnd)); return CWnd::FromHandle(::GetParent(m_hWnd)); }

  00922	ff 76 20	 push	 DWORD PTR [esi+32]
  00925	ff 15 00 00 00
	00		 call	 DWORD PTR __imp__GetParent@4
  0092b	50		 push	 eax
  0092c	e8 00 00 00 00	 call	 ?FromHandle@CWnd@@SGPAV1@PAUHWND__@@@Z ; CWnd::FromHandle

; 32   : 	{ ASSERT(::IsWindow(m_hWnd)); return ::SendMessage(m_hWnd, message, wParam, lParam); }

  00931	ff b7 c0 03 00
	00		 push	 DWORD PTR [edi+960]
  00937	68 78 c3 00 00	 push	 50040			; 0000c378H
  0093c	68 d0 04 00 00	 push	 1232			; 000004d0H
  00941	ff 70 20	 push	 DWORD PTR [eax+32]
  00944	ff 15 00 00 00
	00		 call	 DWORD PTR __imp__SendMessageA@16

; 213  : 	{ ASSERT(::IsWindow(m_hWnd)); return CWnd::FromHandle(::GetParent(m_hWnd)); }

  0094a	ff 76 20	 push	 DWORD PTR [esi+32]
  0094d	ff 15 00 00 00
	00		 call	 DWORD PTR __imp__GetParent@4
  00953	50		 push	 eax
  00954	e8 00 00 00 00	 call	 ?FromHandle@CWnd@@SGPAV1@PAUHWND__@@@Z ; CWnd::FromHandle

; 32   : 	{ ASSERT(::IsWindow(m_hWnd)); return ::SendMessage(m_hWnd, message, wParam, lParam); }

  00959	ff b7 c4 03 00
	00		 push	 DWORD PTR [edi+964]
  0095f	68 79 c3 00 00	 push	 50041			; 0000c379H
  00964	68 d0 04 00 00	 push	 1232			; 000004d0H
  00969	ff 70 20	 push	 DWORD PTR [eax+32]
  0096c	ff 15 00 00 00
	00		 call	 DWORD PTR __imp__SendMessageA@16
; File D:\git\src\IBK\IBK_DRFN\ProjSrc\SrcDrfn\Chart\comparechart\ChartMng.cpp

; 1232 : 				if(m_pExtInputBarDlg->GetSafeHwnd())

  00972	8b 86 d0 00 00
	00		 mov	 eax, DWORD PTR [esi+208]
; File C:\Program Files (x86)\Microsoft Visual Studio\2019\Community\VC\Tools\MSVC\14.29.30133\atlmfc\include\afxwin2.inl

; 25   : 	{ return this == NULL ? NULL : m_hWnd; }

  00978	85 c0		 test	 eax, eax
  0097a	74 17		 je	 SHORT $LN80@OnEventMes
  0097c	8b 40 20	 mov	 eax, DWORD PTR [eax+32]
; File D:\git\src\IBK\IBK_DRFN\ProjSrc\SrcDrfn\Chart\comparechart\ChartMng.cpp

; 1232 : 				if(m_pExtInputBarDlg->GetSafeHwnd())

  0097f	85 c0		 test	 eax, eax
  00981	74 10		 je	 SHORT $LN80@OnEventMes
; File C:\Program Files (x86)\Microsoft Visual Studio\2019\Community\VC\Tools\MSVC\14.29.30133\atlmfc\include\afxwin2.inl

; 32   : 	{ ASSERT(::IsWindow(m_hWnd)); return ::SendMessage(m_hWnd, message, wParam, lParam); }

  00983	6a 00		 push	 0
  00985	6a 00		 push	 0
  00987	68 bd 04 00 00	 push	 1213			; 000004bdH
  0098c	50		 push	 eax
  0098d	ff 15 00 00 00
	00		 call	 DWORD PTR __imp__SendMessageA@16
$LN80@OnEventMes:
; File D:\git\src\IBK\IBK_DRFN\ProjSrc\SrcDrfn\Chart\comparechart\ChartMng.cpp

; 1236 : 				if(m_pInputBarDlg && m_pInputBarDlg->GetSafeHwnd())

  00993	8b 86 cc 00 00
	00		 mov	 eax, DWORD PTR [esi+204]
  00999	85 c0		 test	 eax, eax
  0099b	74 17		 je	 SHORT $LN81@OnEventMes
; File C:\Program Files (x86)\Microsoft Visual Studio\2019\Community\VC\Tools\MSVC\14.29.30133\atlmfc\include\afxwin2.inl

; 25   : 	{ return this == NULL ? NULL : m_hWnd; }

  0099d	8b 40 20	 mov	 eax, DWORD PTR [eax+32]
; File D:\git\src\IBK\IBK_DRFN\ProjSrc\SrcDrfn\Chart\comparechart\ChartMng.cpp

; 1236 : 				if(m_pInputBarDlg && m_pInputBarDlg->GetSafeHwnd())

  009a0	85 c0		 test	 eax, eax
  009a2	74 10		 je	 SHORT $LN81@OnEventMes
; File C:\Program Files (x86)\Microsoft Visual Studio\2019\Community\VC\Tools\MSVC\14.29.30133\atlmfc\include\afxwin2.inl

; 32   : 	{ ASSERT(::IsWindow(m_hWnd)); return ::SendMessage(m_hWnd, message, wParam, lParam); }

  009a4	6a 00		 push	 0
  009a6	6a 00		 push	 0
  009a8	68 bd 04 00 00	 push	 1213			; 000004bdH
  009ad	50		 push	 eax
  009ae	ff 15 00 00 00
	00		 call	 DWORD PTR __imp__SendMessageA@16
$LN81@OnEventMes:
; File D:\git\src\IBK\IBK_DRFN\ProjSrc\SrcDrfn\Chart\comparechart\ChartMng.cpp

; 1239 : 				pChartItem->InvokeAddIn("ChartPatternAddin.dll",0,200);

  009b4	68 c8 00 00 00	 push	 200			; 000000c8H
  009b9	6a 00		 push	 0
  009bb	68 00 00 00 00	 push	 OFFSET ??_C@_0BG@FHIGLELG@ChartPatternAddin?4dll@
  009c0	8b cf		 mov	 ecx, edi
  009c2	e8 00 00 00 00	 call	 ?InvokeAddIn@CDRChartOcx@@QAEHPBDFJ@Z ; CDRChartOcx::InvokeAddIn

; 1240 : 				pChartItem->InvokeAddInSTIndex("ChartSTIndexAddIn.dll",200,0);	//  

  009c7	6a 00		 push	 0
  009c9	68 c8 00 00 00	 push	 200			; 000000c8H
  009ce	68 00 00 00 00	 push	 OFFSET ??_C@_0BG@CHJJKIAP@ChartSTIndexAddIn?4dll@
  009d3	8b cf		 mov	 ecx, edi
  009d5	e8 00 00 00 00	 call	 ?InvokeAddInSTIndex@CChartItem@@QAEHPBDFJ@Z ; CChartItem::InvokeAddInSTIndex

; 1241 : 			}		
; 1242 : 		}
; 1243 : 		break;

  009da	e9 8c fc ff ff	 jmp	 $LN314@OnEventMes
$LN82@OnEventMes:

; 1244 : 		//    :  - ojtaso (20070122)
; 1245 : 	case UWM_SELECTEDCHART:
; 1246 : 		{
; 1247 : 			if(pMsgFromChart->lParam)

  009df	83 7f 0c 00	 cmp	 DWORD PTR [edi+12], 0
  009e3	0f 84 85 fc ff
	ff		 je	 $LN89@OnEventMes

; 1248 : 			{
; 1249 : 				//    dll   :  - ojtaso (20070504)
; 1250 : 				CChartItem* pSelItem = GetpChartItemSelected();

  009e9	e8 00 00 00 00	 call	 ?GetpChartItemSelected@CChartMng@@QAEPAVCChartItem@@XZ ; CChartMng::GetpChartItemSelected
  009ee	89 45 d0	 mov	 DWORD PTR _pSelItem$1$[ebp], eax

; 1251 : 				if(pSelItem)

  009f1	85 c0		 test	 eax, eax
  009f3	0f 84 75 fc ff
	ff		 je	 $LN89@OnEventMes

; 1252 : 				{
; 1253 : 					CString pSelRQ = (LPCTSTR)pMsgFromChart->lParam;

  009f9	ff 77 0c	 push	 DWORD PTR [edi+12]
  009fc	8d 4d d4	 lea	 ecx, DWORD PTR _pSelRQ$12[ebp]
  009ff	ff 15 00 00 00
	00		 call	 DWORD PTR __imp_??0?$CStringT@DV?$StrTraitMFC_DLL@DV?$ChTraitsCRT@D@ATL@@@@@ATL@@QAE@PBD@Z

; 1254 : 					ST_SELCHART* pSelChart = NULL;
; 1255 : 
; 1256 : 					if(pSelItem->GetSelChart(pSelRQ, pSelChart))

  00a05	8b 4d d0	 mov	 ecx, DWORD PTR _pSelItem$1$[ebp]
  00a08	8d 45 d8	 lea	 eax, DWORD PTR _pSelChart$16[ebp]
  00a0b	50		 push	 eax
  00a0c	ff 75 d4	 push	 DWORD PTR _pSelRQ$12[ebp]
  00a0f	c7 45 fc 07 00
	00 00		 mov	 DWORD PTR __$EHRec$[ebp+8], 7
  00a16	c7 45 d8 00 00
	00 00		 mov	 DWORD PTR _pSelChart$16[ebp], 0
  00a1d	e8 00 00 00 00	 call	 ?GetSelChart@CChartItem@@QAEHPBDAAPAU_ST_SELCHART@@@Z ; CChartItem::GetSelChart
  00a22	85 c0		 test	 eax, eax
  00a24	0f 84 71 00 00
	00		 je	 $LN87@OnEventMes

; 1257 : 					{
; 1258 : 						if(!pMsgFromChart->wParam)	//  

  00a2a	83 7f 08 00	 cmp	 DWORD PTR [edi+8], 0
  00a2e	75 45		 jne	 SHORT $LN86@OnEventMes
; File C:\Program Files (x86)\Microsoft Visual Studio\2019\Community\VC\Tools\MSVC\14.29.30133\atlmfc\include\atlsimpstr.h

; 377  : 		return( m_pszData );

  00a30	8b 45 d8	 mov	 eax, DWORD PTR _pSelChart$16[ebp]
; File C:\Program Files (x86)\Microsoft Visual Studio\2019\Community\VC\Tools\MSVC\14.29.30133\atlmfc\include\afxwin2.inl

; 213  : 	{ ASSERT(::IsWindow(m_hWnd)); return CWnd::FromHandle(::GetParent(m_hWnd)); }

  00a33	8b 3d 00 00 00
	00		 mov	 edi, DWORD PTR __imp__GetParent@4
; File D:\git\src\IBK\IBK_DRFN\ProjSrc\SrcDrfn\Chart\comparechart\ChartMng.cpp

; 1262 : 							((CStdDialog*)GetParent())->OnDeleteChartItem(pSelChart->m_strItemCode);

  00a39	ff 70 04	 push	 DWORD PTR [eax+4]
; File C:\Program Files (x86)\Microsoft Visual Studio\2019\Community\VC\Tools\MSVC\14.29.30133\atlmfc\include\afxwin2.inl

; 213  : 	{ ASSERT(::IsWindow(m_hWnd)); return CWnd::FromHandle(::GetParent(m_hWnd)); }

  00a3c	ff 76 20	 push	 DWORD PTR [esi+32]
  00a3f	ff d7		 call	 edi
  00a41	50		 push	 eax
