; Listing generated by Microsoft (R) Optimizing Compiler Version 19.29.30145.0 

	TITLE	D:\git\src\IBK\IBK_DRFN\#DRfn-CS\_Obj\CompareChart\CodeCtrl.obj
	.686P
	.XMM
	include listing.inc
	.model	flat

INCLUDELIB MSVCRT
INCLUDELIB OLDNAMES

PUBLIC	?WM_ATLGETHOST@ATL@@3IA				; ATL::WM_ATLGETHOST
PUBLIC	?WM_ATLGETCONTROL@ATL@@3IA			; ATL::WM_ATLGETCONTROL
PUBLIC	??_C@_0M@LPFHDJI@RMSG_DRUSER@			; `string'
PUBLIC	?m_bInitFailed@CAtlBaseModule@ATL@@2_NA		; ATL::CAtlBaseModule::m_bInitFailed
PUBLIC	?_pAtlModule@ATL@@3PAVCAtlModule@1@A		; ATL::_pAtlModule
PUBLIC	?_pAtlAutoThreadModule@ATL@@3PAUIAtlAutoThreadModule@1@A ; ATL::_pAtlAutoThreadModule
EXTRN	?_AtlBaseModule@ATL@@3VCAtlBaseModule@1@A:BYTE	; ATL::_AtlBaseModule
;	COMDAT ?WM_ATLGETHOST@ATL@@3IA
_BSS	SEGMENT
?WM_ATLGETHOST@ATL@@3IA DD 01H DUP (?)			; ATL::WM_ATLGETHOST
_BSS	ENDS
;	COMDAT ?WM_ATLGETCONTROL@ATL@@3IA
_BSS	SEGMENT
?WM_ATLGETCONTROL@ATL@@3IA DD 01H DUP (?)		; ATL::WM_ATLGETCONTROL
_BSS	ENDS
;	COMDAT ?m_bInitFailed@CAtlBaseModule@ATL@@2_NA
_BSS	SEGMENT
?m_bInitFailed@CAtlBaseModule@ATL@@2_NA DB 01H DUP (?)	; ATL::CAtlBaseModule::m_bInitFailed
_BSS	ENDS
;	COMDAT ?_pAtlModule@ATL@@3PAVCAtlModule@1@A
_BSS	SEGMENT
?_pAtlModule@ATL@@3PAVCAtlModule@1@A DD 01H DUP (?)	; ATL::_pAtlModule
_BSS	ENDS
;	COMDAT ?_pAtlAutoThreadModule@ATL@@3PAUIAtlAutoThreadModule@1@A
_BSS	SEGMENT
?_pAtlAutoThreadModule@ATL@@3PAUIAtlAutoThreadModule@1@A DD 01H DUP (?) ; ATL::_pAtlAutoThreadModule
_BSS	ENDS
;	COMDAT ??_C@_0M@LPFHDJI@RMSG_DRUSER@
CONST	SEGMENT
??_C@_0M@LPFHDJI@RMSG_DRUSER@ DB 'RMSG_DRUSER', 00H	; `string'
CONST	ENDS
PUBLIC	?__empty_global_delete@@YAXPAX@Z		; __empty_global_delete
PUBLIC	?__empty_global_delete@@YAXPAXI@Z		; __empty_global_delete
PUBLIC	??1CObject@@UAE@XZ				; CObject::~CObject
PUBLIC	?Serialize@CObject@@UAEXAAVCArchive@@@Z		; CObject::Serialize
PUBLIC	?AssertValid@CObject@@UBEXXZ			; CObject::AssertValid
PUBLIC	?Dump@CObject@@UBEXAAVCDumpContext@@@Z		; CObject::Dump
PUBLIC	?_AtlRaiseException@ATL@@YAXKK@Z		; ATL::_AtlRaiseException
PUBLIC	?_AtlInitializeCriticalSectionEx@ATL@@YAHPAU_RTL_CRITICAL_SECTION@@KK@Z ; ATL::_AtlInitializeCriticalSectionEx
PUBLIC	??HATL@@YA?AV?$CStringT@DV?$StrTraitMFC_DLL@DV?$ChTraitsCRT@D@ATL@@@@@0@ABV10@PBD@Z ; ATL::operator+
PUBLIC	??1CGdiObject@@UAE@XZ				; CGdiObject::~CGdiObject
PUBLIC	??_GCGdiObject@@UAEPAXI@Z			; CGdiObject::`scalar deleting destructor'
PUBLIC	??1CBitmap@@UAE@XZ				; CBitmap::~CBitmap
PUBLIC	??_GCBitmap@@UAEPAXI@Z				; CBitmap::`scalar deleting destructor'
PUBLIC	?DoDataExchange@CWnd@@MAEXPAVCDataExchange@@@Z	; CWnd::DoDataExchange
PUBLIC	?BeginModalState@CWnd@@UAEXXZ			; CWnd::BeginModalState
PUBLIC	?EndModalState@CWnd@@UAEXXZ			; CWnd::EndModalState
PUBLIC	??_GCEdit@@UAEPAXI@Z				; CEdit::`scalar deleting destructor'
PUBLIC	??0_bstr_t@@QAE@PBD@Z				; _bstr_t::_bstr_t
PUBLIC	??0_bstr_t@@QAE@ABV_variant_t@@@Z		; _bstr_t::_bstr_t
PUBLIC	??1_bstr_t@@QAE@XZ				; _bstr_t::~_bstr_t
PUBLIC	??B_bstr_t@@QBEPBDXZ				; _bstr_t::operator char const *
PUBLIC	??1_variant_t@@QAE@XZ				; _variant_t::~_variant_t
PUBLIC	??0CWinixCodeCtrl@@QAE@PAVCWnd@@@Z		; CWinixCodeCtrl::CWinixCodeCtrl
PUBLIC	?CreateCodeCtrl@CWinixCodeCtrl@@QAEHPAVCWnd@@00VCRect@@I@Z ; CWinixCodeCtrl::CreateCodeCtrl
PUBLIC	?GetCode@CWinixCodeCtrl@@QAE?AV?$CStringT@DV?$StrTraitMFC_DLL@DV?$ChTraitsCRT@D@ATL@@@@@ATL@@XZ ; CWinixCodeCtrl::GetCode
PUBLIC	?GetName@CWinixCodeCtrl@@QAE?AV?$CStringT@DV?$StrTraitMFC_DLL@DV?$ChTraitsCRT@D@ATL@@@@@ATL@@XZ ; CWinixCodeCtrl::GetName
PUBLIC	?SetCode@CWinixCodeCtrl@@QAE_NV?$CStringT@DV?$StrTraitMFC_DLL@DV?$ChTraitsCRT@D@ATL@@@@@ATL@@_N1@Z ; CWinixCodeCtrl::SetCode
PUBLIC	?SetColor@CWinixCodeCtrl@@QAE_NKK@Z		; CWinixCodeCtrl::SetColor
PUBLIC	?SetFont@CWinixCodeCtrl@@QAE_NPAVCFont@@@Z	; CWinixCodeCtrl::SetFont
PUBLIC	?SetFocus@CWinixCodeCtrl@@QAE_NXZ		; CWinixCodeCtrl::SetFocus
PUBLIC	?SetCtrlProperty@CWinixCodeCtrl@@QAEXV_bstr_t@@AAV_variant_t@@@Z ; CWinixCodeCtrl::SetCtrlProperty
PUBLIC	?SetUnit@CWinixCodeCtrl@@QAE_NH@Z		; CWinixCodeCtrl::SetUnit
PUBLIC	?GetCtrlProperty@CWinixCodeCtrl@@QAE?AV?$CStringT@DV?$StrTraitMFC_DLL@DV?$ChTraitsCRT@D@ATL@@@@@ATL@@PBD@Z ; CWinixCodeCtrl::GetCtrlProperty
PUBLIC	?OnCommand@CWinixCodeCtrl@@MAEHIJ@Z		; CWinixCodeCtrl::OnCommand
PUBLIC	??1CWinixCodeCtrl@@UAE@XZ			; CWinixCodeCtrl::~CWinixCodeCtrl
PUBLIC	?OnCreate@CWinixCodeCtrl@@IAEHPAUtagCREATESTRUCTA@@@Z ; CWinixCodeCtrl::OnCreate
PUBLIC	?OnSize@CWinixCodeCtrl@@IAEXIHH@Z		; CWinixCodeCtrl::OnSize
PUBLIC	?OnUser@CWinixCodeCtrl@@IAEJIJ@Z		; CWinixCodeCtrl::OnUser
PUBLIC	?GetThisMessageMap@CWinixCodeCtrl@@KGPBUAFX_MSGMAP@@XZ ; CWinixCodeCtrl::GetThisMessageMap
PUBLIC	?GetMessageMap@CWinixCodeCtrl@@MBEPBUAFX_MSGMAP@@XZ ; CWinixCodeCtrl::GetMessageMap
PUBLIC	??_GCWinixCodeCtrl@@UAEPAXI@Z			; CWinixCodeCtrl::`scalar deleting destructor'
PUBLIC	??0CCodeCtrl@@QAE@PAVCWnd@@@Z			; CCodeCtrl::CCodeCtrl
PUBLIC	?UseCodeDlg@CCodeCtrl@@UAEXH@Z			; CCodeCtrl::UseCodeDlg
PUBLIC	?SetRootPath@CCodeCtrl@@UAEXPBD@Z		; CCodeCtrl::SetRootPath
PUBLIC	?SetUnit@CCodeCtrl@@UAE_NH@Z			; CCodeCtrl::SetUnit
PUBLIC	?SetUnit@CCodeCtrl@@UAE_NV?$CStringT@DV?$StrTraitMFC_DLL@DV?$ChTraitsCRT@D@ATL@@@@@ATL@@@Z ; CCodeCtrl::SetUnit
PUBLIC	?SetHistory@CCodeCtrl@@UAE_NPBD0@Z		; CCodeCtrl::SetHistory
PUBLIC	?SetCode@CCodeCtrl@@UAE_NV?$CStringT@DV?$StrTraitMFC_DLL@DV?$ChTraitsCRT@D@ATL@@@@@ATL@@_N@Z ; CCodeCtrl::SetCode
PUBLIC	?GetCode@CCodeCtrl@@UAE?AV?$CStringT@DV?$StrTraitMFC_DLL@DV?$ChTraitsCRT@D@ATL@@@@@ATL@@XZ ; CCodeCtrl::GetCode
PUBLIC	?SetUnitEx@CCodeCtrl@@QAE_NV?$CStringT@DV?$StrTraitMFC_DLL@DV?$ChTraitsCRT@D@ATL@@@@@ATL@@@Z ; CCodeCtrl::SetUnitEx
PUBLIC	??1CCodeCtrl@@UAE@XZ				; CCodeCtrl::~CCodeCtrl
PUBLIC	?_DoCreateCodeDlgBtn@CCodeCtrl@@IAEHXZ		; CCodeCtrl::_DoCreateCodeDlgBtn
PUBLIC	?OnSelendokCodeCtrl@CCodeCtrl@@IAEXXZ		; CCodeCtrl::OnSelendokCodeCtrl
PUBLIC	?OnBtnCodeDlg@CCodeCtrl@@IAEXXZ			; CCodeCtrl::OnBtnCodeDlg
PUBLIC	?OnCreate@CCodeCtrl@@IAEHPAUtagCREATESTRUCTA@@@Z ; CCodeCtrl::OnCreate
PUBLIC	?OnSize@CCodeCtrl@@IAEXIHH@Z			; CCodeCtrl::OnSize
PUBLIC	?GetThisMessageMap@CCodeCtrl@@KGPBUAFX_MSGMAP@@XZ ; CCodeCtrl::GetThisMessageMap
PUBLIC	?GetMessageMap@CCodeCtrl@@MBEPBUAFX_MSGMAP@@XZ	; CCodeCtrl::GetMessageMap
PUBLIC	?SetFixUnit@CCodeCtrl@@QAEXV?$CStringT@DV?$StrTraitMFC_DLL@DV?$ChTraitsCRT@D@ATL@@@@@ATL@@@Z ; CCodeCtrl::SetFixUnit
PUBLIC	?SetFixUnit@CCodeCtrl@@QAEXH@Z			; CCodeCtrl::SetFixUnit
PUBLIC	??_GCCodeCtrl@@UAEPAXI@Z			; CCodeCtrl::`scalar deleting destructor'
PUBLIC	??1_param@@QAE@XZ				; _param::~_param
PUBLIC	??1stringdispid@CComTypeInfoHolder@ATL@@QAE@XZ	; ATL::CComTypeInfoHolder::stringdispid::~stringdispid
PUBLIC	??_Estringdispid@CComTypeInfoHolder@ATL@@QAEPAXI@Z ; ATL::CComTypeInfoHolder::stringdispid::`vector deleting destructor'
PUBLIC	?CCodeCtrl_SetUnit@@YAIPAX@Z			; CCodeCtrl_SetUnit
PUBLIC	??1?$CComQIPtr@UIDispatch@@$1?_GUID_00020400_0000_0000_c000_000000000046@@3U__s_GUID@@B@ATL@@QAE@XZ ; ATL::CComQIPtr<IDispatch,&_GUID_00020400_0000_0000_c000_000000000046>::~CComQIPtr<IDispatch,&_GUID_00020400_0000_0000_c000_000000000046>
PUBLIC	??_R0PAVCException@@@8				; CException * `RTTI Type Descriptor'
PUBLIC	?_AtlWinModule@ATL@@3VCAtlWinModule@1@A		; ATL::_AtlWinModule
PUBLIC	??_C@_00CNPNBAHC@@				; `string'
PUBLIC	??_7CGdiObject@@6B@				; CGdiObject::`vftable'
PUBLIC	??_7CBitmap@@6B@				; CBitmap::`vftable'
PUBLIC	??_7CEdit@@6B@					; CEdit::`vftable'
PUBLIC	??_C@_0HD@JJCHHHNK@C?3?2Program?5Files?5?$CIx86?$CJ?2Microsof@ ; `string'
PUBLIC	??_C@_0BP@OIEOKIDM@Exception?5thrown?5in?5destructor@ ; `string'
PUBLIC	??_C@_0BB@HBOOMJBF@?$CFTs?5?$CI?$CFTs?3?$CFd?$CJ?6?$CFTs@ ; `string'
PUBLIC	??_C@_0N@OMEMOKLE@?$CFTs?5?$CI?$CFTs?3?$CFd?$CJ@ ; `string'
PUBLIC	??_R0?AVCObject@@@8				; CObject `RTTI Type Descriptor'
PUBLIC	??_R3CObject@@8					; CObject::`RTTI Class Hierarchy Descriptor'
PUBLIC	??_R2CObject@@8					; CObject::`RTTI Base Class Array'
PUBLIC	??_R1A@?0A@EA@CObject@@8			; CObject::`RTTI Base Class Descriptor at (0,-1,0,64)'
PUBLIC	??_R4CGdiObject@@6B@				; CGdiObject::`RTTI Complete Object Locator'
PUBLIC	??_R0?AVCGdiObject@@@8				; CGdiObject `RTTI Type Descriptor'
PUBLIC	??_R3CGdiObject@@8				; CGdiObject::`RTTI Class Hierarchy Descriptor'
PUBLIC	??_R2CGdiObject@@8				; CGdiObject::`RTTI Base Class Array'
PUBLIC	??_R1A@?0A@EA@CGdiObject@@8			; CGdiObject::`RTTI Base Class Descriptor at (0,-1,0,64)'
PUBLIC	??_R4CBitmap@@6B@				; CBitmap::`RTTI Complete Object Locator'
PUBLIC	??_R0?AVCBitmap@@@8				; CBitmap `RTTI Type Descriptor'
PUBLIC	??_R3CBitmap@@8					; CBitmap::`RTTI Class Hierarchy Descriptor'
PUBLIC	??_R2CBitmap@@8					; CBitmap::`RTTI Base Class Array'
PUBLIC	??_R1A@?0A@EA@CBitmap@@8			; CBitmap::`RTTI Base Class Descriptor at (0,-1,0,64)'
PUBLIC	??_R1A@?0A@EA@CWnd@@8				; CWnd::`RTTI Base Class Descriptor at (0,-1,0,64)'
PUBLIC	??_R0?AVCWnd@@@8				; CWnd `RTTI Type Descriptor'
PUBLIC	??_R3CWnd@@8					; CWnd::`RTTI Class Hierarchy Descriptor'
PUBLIC	??_R2CWnd@@8					; CWnd::`RTTI Base Class Array'
PUBLIC	??_R1A@?0A@EA@CCmdTarget@@8			; CCmdTarget::`RTTI Base Class Descriptor at (0,-1,0,64)'
PUBLIC	??_R0?AVCCmdTarget@@@8				; CCmdTarget `RTTI Type Descriptor'
PUBLIC	??_R3CCmdTarget@@8				; CCmdTarget::`RTTI Class Hierarchy Descriptor'
PUBLIC	??_R2CCmdTarget@@8				; CCmdTarget::`RTTI Base Class Array'
PUBLIC	??_R4CEdit@@6B@					; CEdit::`RTTI Complete Object Locator'
PUBLIC	??_R0?AVCEdit@@@8				; CEdit `RTTI Type Descriptor'
PUBLIC	??_R3CEdit@@8					; CEdit::`RTTI Class Hierarchy Descriptor'
PUBLIC	??_R2CEdit@@8					; CEdit::`RTTI Base Class Array'
PUBLIC	??_R1A@?0A@EA@CEdit@@8				; CEdit::`RTTI Base Class Descriptor at (0,-1,0,64)'
PUBLIC	??_7CWinixCodeCtrl@@6B@				; CWinixCodeCtrl::`vftable'
PUBLIC	??_7CCodeCtrl@@6B@				; CCodeCtrl::`vftable'
PUBLIC	??_C@_04IMIHFAMF@?A?V?$LN?D@			; `string'
PUBLIC	??_C@_03POALDHNL@ELW@				; `string'
PUBLIC	??_C@_04GCIHJOGB@?G?X?$LP?$NM@			; `string'
PUBLIC	??_C@_08NDPAGPFD@?$LM?$LB?$LJ?$LA?$LP?I?$LM?G@	; `string'
PUBLIC	??_C@_08GMMOIJLH@?A?V?$LN?D?$LP?I?$LM?G@	; `string'
PUBLIC	??_C@_08ODFAFGMO@?A?V?$LN?D?$LM?$LB?$LJ?$LA@	; `string'
PUBLIC	??_C@_04GHLAOPMI@?$LO?w?A?$LO@			; `string'
PUBLIC	??_C@_0N@EPCAMEMK@?$LL?s?G?$LA?$LM?$LB?$LJ?$LA?$LP?I?$LM?G@ ; `string'
PUBLIC	??_C@_06ILKOJIAC@FO?A?v?G?$KF@			; `string'
PUBLIC	??_C@_08OPOALDAF@?$LL?s?G?$LA?$LM?$LB?$LJ?$LA@	; `string'
PUBLIC	??_C@_04GHGOKPCP@?$LM?$LB?$LJ?$LA@		; `string'
PUBLIC	??_C@_05OALCLBHC@?$CFs?7?$CFs@			; `string'
PUBLIC	??_C@_07KHBMGAOF@?2Image?2@			; `string'
PUBLIC	??_C@_0BO@DHAEAEL@Can?5not?5Find?5W15_H15?4bmp?5file@ ; `string'
PUBLIC	??_C@_08BHAJBOJL@?$LA?K?$LL?v?4bmp@		; `string'
PUBLIC	??_C@_0M@GIEIFFOK@?$LA?K?$LL?v_DN?4bmp@		; `string'
PUBLIC	??_C@_0M@MODPFOFO@?$LA?K?$LL?v_EN?4bmp@		; `string'
PUBLIC	??_C@_04DICKPMGH@Data@				; `string'
PUBLIC	??_C@_0BC@FPOCPFEP@CX_CODECTRLEX?4DLL@		; `string'
PUBLIC	??_C@_08IHGIAAII@axCreate@			; `string'
PUBLIC	??_C@_06MFMMLLPC@?$LB?$LM?$LI?$LC?C?$LM@	; `string'
PUBLIC	??_C@_0DL@PKKCJJLC@?1u?50?5?1k?5?$LA?K?$LL?v?4BMP?5?1l?5AXCOMBO?4BMP@ ; `string'
PUBLIC	??_C@_08GLDIOPIF@UnitData@			; `string'
PUBLIC	??_C@_1BA@MLFBGNGJ@?$AAG?$AAe?$AAt?$AAN?$AAa?$AAm?$AAe@ ; `string'
PUBLIC	??_C@_09NAPNHIGI@axSetCode@			; `string'
PUBLIC	??_C@_0L@JGJDKCFP@axSetColor@			; `string'
PUBLIC	??_C@_09EGFDFBNO@axSetFont@			; `string'
PUBLIC	??_R4CWinixCodeCtrl@@6B@			; CWinixCodeCtrl::`RTTI Complete Object Locator'
PUBLIC	??_R0?AVCWinixCodeCtrl@@@8			; CWinixCodeCtrl `RTTI Type Descriptor'
PUBLIC	??_R3CWinixCodeCtrl@@8				; CWinixCodeCtrl::`RTTI Class Hierarchy Descriptor'
PUBLIC	??_R2CWinixCodeCtrl@@8				; CWinixCodeCtrl::`RTTI Base Class Array'
PUBLIC	??_R1A@?0A@EA@CWinixCodeCtrl@@8			; CWinixCodeCtrl::`RTTI Base Class Descriptor at (0,-1,0,64)'
PUBLIC	??_R4CCodeCtrl@@6B@				; CCodeCtrl::`RTTI Complete Object Locator'
PUBLIC	??_R0?AVCCodeCtrl@@@8				; CCodeCtrl `RTTI Type Descriptor'
PUBLIC	??_R3CCodeCtrl@@8				; CCodeCtrl::`RTTI Class Hierarchy Descriptor'
PUBLIC	??_R2CCodeCtrl@@8				; CCodeCtrl::`RTTI Base Class Array'
PUBLIC	??_R1A@?0A@EA@CCodeCtrl@@8			; CCodeCtrl::`RTTI Base Class Descriptor at (0,-1,0,64)'
PUBLIC	__xmm@00000014000000140000000000000000
EXTRN	??_M@YGXPAXIIP6EX0@Z@Z:PROC			; `eh vector destructor iterator'
EXTRN	??2@YAPAXI@Z:PROC				; operator new
EXTRN	??3@YAXPAX@Z:PROC				; operator delete
EXTRN	??3@YAXPAXI@Z:PROC				; operator delete
EXTRN	?__global_delete@@YAXPAXI@Z:PROC		; __global_delete
EXTRN	??_V@YAXPAX@Z:PROC				; operator delete[]
EXTRN	??_V@YAXPAXI@Z:PROC				; operator delete[]
EXTRN	_atexit:PROC
EXTRN	___std_terminate:PROC
EXTRN	__imp__RaiseException@16:PROC
EXTRN	__imp__GetLastError@0:PROC
EXTRN	__imp__InitializeCriticalSectionEx@12:PROC
EXTRN	__imp__DeleteCriticalSection@4:PROC
EXTRN	__imp__FreeLibrary@4:PROC
EXTRN	__imp__GetProcAddress@8:PROC
EXTRN	__imp__LoadLibraryA@4:PROC
EXTRN	__imp__RegisterWindowMessageA@4:PROC
EXTRN	__imp__SendMessageA@16:PROC
EXTRN	__imp__UnregisterClassA@8:PROC
EXTRN	__imp__IsWindow@4:PROC
EXTRN	__imp__EnableWindow@8:PROC
EXTRN	__imp__GetClientRect@8:PROC
EXTRN	__imp__LoadImageA@24:PROC
EXTRN	__imp__ImageList_AddMasked@12:PROC
EXTRN	__imp__free:PROC
EXTRN	__imp__SysAllocString@4:PROC
EXTRN	__imp__SysFreeString@4:PROC
EXTRN	__imp__VariantInit@4:PROC
EXTRN	__imp__VariantClear@4:PROC
EXTRN	__imp__VariantChangeType@16:PROC
EXTRN	__imp_?Concatenate@?$CSimpleStringT@D$00@ATL@@KAXAAV12@PBDH1H@Z:PROC
EXTRN	__imp_??0?$CStringT@DV?$StrTraitMFC_DLL@DV?$ChTraitsCRT@D@ATL@@@@@ATL@@QAE@XZ:PROC
EXTRN	__imp_??0?$CStringT@DV?$StrTraitMFC_DLL@DV?$ChTraitsCRT@D@ATL@@@@@ATL@@QAE@PAUIAtlStringMgr@1@@Z:PROC
EXTRN	__imp_??0?$CStringT@DV?$StrTraitMFC_DLL@DV?$ChTraitsCRT@D@ATL@@@@@ATL@@QAE@ABV01@@Z:PROC
EXTRN	__imp_??0?$CStringT@DV?$StrTraitMFC_DLL@DV?$ChTraitsCRT@D@ATL@@@@@ATL@@QAE@PBD@Z:PROC
EXTRN	__imp_??1?$CStringT@DV?$StrTraitMFC_DLL@DV?$ChTraitsCRT@D@ATL@@@@@ATL@@QAE@XZ:PROC
EXTRN	__imp_??4?$CStringT@DV?$StrTraitMFC_DLL@DV?$ChTraitsCRT@D@ATL@@@@@ATL@@QAEAAV01@ABV01@@Z:PROC
EXTRN	__imp_??4?$CStringT@DV?$StrTraitMFC_DLL@DV?$ChTraitsCRT@D@ATL@@@@@ATL@@QAEAAV01@PBD@Z:PROC
EXTRN	__imp_?GetManager@?$CStringT@DV?$StrTraitMFC_DLL@DV?$ChTraitsCRT@D@ATL@@@@@ATL@@QBEPAUIAtlStringMgr@2@XZ:PROC
EXTRN	__imp_?Compare@?$CStringT@DV?$StrTraitMFC_DLL@DV?$ChTraitsCRT@D@ATL@@@@@ATL@@QBEHPBD@Z:PROC
EXTRN	__imp_?CompareNoCase@?$CStringT@DV?$StrTraitMFC_DLL@DV?$ChTraitsCRT@D@ATL@@@@@ATL@@QBEHPBD@Z:PROC
EXTRN	__imp_?Format@?$CStringT@DV?$StrTraitMFC_DLL@DV?$ChTraitsCRT@D@ATL@@@@@ATL@@QAAXPBDZZ:PROC
EXTRN	?GetRuntimeClass@CGdiObject@@UBEPAUCRuntimeClass@@XZ:PROC ; CGdiObject::GetRuntimeClass
EXTRN	?Attach@CGdiObject@@QAEHPAX@Z:PROC		; CGdiObject::Attach
EXTRN	?DeleteObject@CGdiObject@@QAEHXZ:PROC		; CGdiObject::DeleteObject
EXTRN	??_ECGdiObject@@UAEPAXI@Z:PROC			; CGdiObject::`vector deleting destructor'
EXTRN	?GetRuntimeClass@CBitmap@@UBEPAUCRuntimeClass@@XZ:PROC ; CBitmap::GetRuntimeClass
EXTRN	??_ECBitmap@@UAEPAXI@Z:PROC			; CBitmap::`vector deleting destructor'
EXTRN	??0CImageList@@QAE@XZ:PROC			; CImageList::CImageList
EXTRN	?Create@CImageList@@QAEHHHIHH@Z:PROC		; CImageList::Create
EXTRN	?DeleteImageList@CImageList@@QAEHXZ:PROC	; CImageList::DeleteImageList
EXTRN	??1CImageList@@UAE@XZ:PROC			; CImageList::~CImageList
EXTRN	?GetIDispatch@CCmdTarget@@QAEPAUIDispatch@@H@Z:PROC ; CCmdTarget::GetIDispatch
EXTRN	?OnCmdMsg@CCmdTarget@@UAEHIHPAXPAUAFX_CMDHANDLERINFO@@@Z:PROC ; CCmdTarget::OnCmdMsg
EXTRN	?IsInvokeAllowed@CCmdTarget@@UAEHJ@Z:PROC	; CCmdTarget::IsInvokeAllowed
EXTRN	?GetDispatchIID@CCmdTarget@@UAEHPAU_GUID@@@Z:PROC ; CCmdTarget::GetDispatchIID
EXTRN	?GetTypeInfoCount@CCmdTarget@@UAEIXZ:PROC	; CCmdTarget::GetTypeInfoCount
EXTRN	?GetTypeLibCache@CCmdTarget@@UAEPAVCTypeLibCache@@XZ:PROC ; CCmdTarget::GetTypeLibCache
EXTRN	?GetTypeLib@CCmdTarget@@UAEJKPAPAUITypeLib@@@Z:PROC ; CCmdTarget::GetTypeLib
EXTRN	?GetCommandMap@CCmdTarget@@MBEPBUAFX_OLECMDMAP@@XZ:PROC ; CCmdTarget::GetCommandMap
EXTRN	?GetDispatchMap@CCmdTarget@@MBEPBUAFX_DISPMAP@@XZ:PROC ; CCmdTarget::GetDispatchMap
EXTRN	?GetConnectionMap@CCmdTarget@@MBEPBUAFX_CONNECTIONMAP@@XZ:PROC ; CCmdTarget::GetConnectionMap
EXTRN	?GetEventSinkMap@CCmdTarget@@MBEPBUAFX_EVENTSINKMAP@@XZ:PROC ; CCmdTarget::GetEventSinkMap
EXTRN	?OnCreateAggregates@CCmdTarget@@UAEHXZ:PROC	; CCmdTarget::OnCreateAggregates
EXTRN	?GetInterfaceHook@CCmdTarget@@UAEPAUIUnknown@@PBX@Z:PROC ; CCmdTarget::GetInterfaceHook
EXTRN	?GetExtraConnectionPoints@CCmdTarget@@MAEHPAVCPtrArray@@@Z:PROC ; CCmdTarget::GetExtraConnectionPoints
EXTRN	?GetConnectionHook@CCmdTarget@@MAEPAUIConnectionPoint@@ABU_GUID@@@Z:PROC ; CCmdTarget::GetConnectionHook
EXTRN	?GetRuntimeClass@CWnd@@UBEPAUCRuntimeClass@@XZ:PROC ; CWnd::GetRuntimeClass
EXTRN	??0CWnd@@QAE@XZ:PROC				; CWnd::CWnd
EXTRN	?PreSubclassWindow@CWnd@@UAEXXZ:PROC		; CWnd::PreSubclassWindow
EXTRN	?Create@CWnd@@UAEHPBD0KABUtagRECT@@PAV1@IPAUCCreateContext@@@Z:PROC ; CWnd::Create
EXTRN	?CreateEx@CWnd@@UAEHKPBD0KHHHHPAUHWND__@@PAUHMENU__@@PAX@Z:PROC ; CWnd::CreateEx
EXTRN	?CreateEx@CWnd@@UAEHKPBD0KABUtagRECT@@PAV1@IPAX@Z:PROC ; CWnd::CreateEx
EXTRN	?DestroyWindow@CWnd@@UAEHXZ:PROC		; CWnd::DestroyWindow
EXTRN	?PreCreateWindow@CWnd@@UAEHAAUtagCREATESTRUCTA@@@Z:PROC ; CWnd::PreCreateWindow
EXTRN	?CalcWindowRect@CWnd@@UAEXPAUtagRECT@@I@Z:PROC	; CWnd::CalcWindowRect
EXTRN	?GetMenu@CWnd@@UBEPAVCMenu@@XZ:PROC		; CWnd::GetMenu
EXTRN	?SetMenu@CWnd@@UAEHPAVCMenu@@@Z:PROC		; CWnd::SetMenu
EXTRN	?MoveWindow@CWnd@@QAEXHHHHH@Z:PROC		; CWnd::MoveWindow
EXTRN	?SetWindowPos@CWnd@@QAEHPBV1@HHHHI@Z:PROC	; CWnd::SetWindowPos
EXTRN	?ShowWindow@CWnd@@QAEHH@Z:PROC			; CWnd::ShowWindow
EXTRN	?OnToolHitTest@CWnd@@UBEHVCPoint@@PAUtagTOOLINFOA@@@Z:PROC ; CWnd::OnToolHitTest
EXTRN	?SetFocus@CWnd@@QAEPAV1@XZ:PROC			; CWnd::SetFocus
EXTRN	?GetScrollBarCtrl@CWnd@@UBEPAVCScrollBar@@H@Z:PROC ; CWnd::GetScrollBarCtrl
EXTRN	?WinHelpA@CWnd@@UAEXKI@Z:PROC			; CWnd::WinHelpA
EXTRN	?HtmlHelpA@CWnd@@UAEXKI@Z:PROC			; CWnd::HtmlHelpA
EXTRN	?WinHelpInternal@CWnd@@UAEXKI@Z:PROC		; CWnd::WinHelpInternal
EXTRN	?ContinueModal@CWnd@@UAEHXZ:PROC		; CWnd::ContinueModal
EXTRN	?EndModalLoop@CWnd@@UAEXH@Z:PROC		; CWnd::EndModalLoop
EXTRN	?OnDrawIconicThumbnailOrLivePreview@CWnd@@UAEXAAVCDC@@VCRect@@VCSize@@HAAH@Z:PROC ; CWnd::OnDrawIconicThumbnailOrLivePreview
EXTRN	?GetInterfaceMap@CWnd@@MBEPBUAFX_INTERFACEMAP@@XZ:PROC ; CWnd::GetInterfaceMap
EXTRN	?EnsureStdObj@CWnd@@UAEJXZ:PROC			; CWnd::EnsureStdObj
EXTRN	?get_accParent@CWnd@@UAEJPAPAUIDispatch@@@Z:PROC ; CWnd::get_accParent
EXTRN	?get_accChildCount@CWnd@@UAEJPAJ@Z:PROC		; CWnd::get_accChildCount
EXTRN	?get_accChild@CWnd@@UAEJUtagVARIANT@@PAPAUIDispatch@@@Z:PROC ; CWnd::get_accChild
EXTRN	?get_accName@CWnd@@UAEJUtagVARIANT@@PAPA_W@Z:PROC ; CWnd::get_accName
EXTRN	?get_accValue@CWnd@@UAEJUtagVARIANT@@PAPA_W@Z:PROC ; CWnd::get_accValue
EXTRN	?get_accDescription@CWnd@@UAEJUtagVARIANT@@PAPA_W@Z:PROC ; CWnd::get_accDescription
EXTRN	?get_accRole@CWnd@@UAEJUtagVARIANT@@PAU2@@Z:PROC ; CWnd::get_accRole
EXTRN	?get_accState@CWnd@@UAEJUtagVARIANT@@PAU2@@Z:PROC ; CWnd::get_accState
EXTRN	?get_accHelp@CWnd@@UAEJUtagVARIANT@@PAPA_W@Z:PROC ; CWnd::get_accHelp
EXTRN	?get_accHelpTopic@CWnd@@UAEJPAPA_WUtagVARIANT@@PAJ@Z:PROC ; CWnd::get_accHelpTopic
EXTRN	?get_accKeyboardShortcut@CWnd@@UAEJUtagVARIANT@@PAPA_W@Z:PROC ; CWnd::get_accKeyboardShortcut
EXTRN	?get_accFocus@CWnd@@UAEJPAUtagVARIANT@@@Z:PROC	; CWnd::get_accFocus
EXTRN	?get_accSelection@CWnd@@UAEJPAUtagVARIANT@@@Z:PROC ; CWnd::get_accSelection
EXTRN	?get_accDefaultAction@CWnd@@UAEJUtagVARIANT@@PAPA_W@Z:PROC ; CWnd::get_accDefaultAction
EXTRN	?accSelect@CWnd@@UAEJJUtagVARIANT@@@Z:PROC	; CWnd::accSelect
EXTRN	?accLocation@CWnd@@UAEJPAJ000UtagVARIANT@@@Z:PROC ; CWnd::accLocation
EXTRN	?accNavigate@CWnd@@UAEJJUtagVARIANT@@PAU2@@Z:PROC ; CWnd::accNavigate
EXTRN	?accHitTest@CWnd@@UAEJJJPAUtagVARIANT@@@Z:PROC	; CWnd::accHitTest
EXTRN	?accDoDefaultAction@CWnd@@UAEJUtagVARIANT@@@Z:PROC ; CWnd::accDoDefaultAction
EXTRN	?put_accName@CWnd@@UAEJUtagVARIANT@@PA_W@Z:PROC	; CWnd::put_accName
EXTRN	?put_accValue@CWnd@@UAEJUtagVARIANT@@PA_W@Z:PROC ; CWnd::put_accValue
EXTRN	?SetProxy@CWnd@@UAEJPAUIAccessibleProxy@@@Z:PROC ; CWnd::SetProxy
EXTRN	?CreateAccessibleProxy@CWnd@@UAEJIJPAJ@Z:PROC	; CWnd::CreateAccessibleProxy
EXTRN	?OnCommand@CWnd@@MAEHIJ@Z:PROC			; CWnd::OnCommand
EXTRN	?OnNotify@CWnd@@MAEHIJPAJ@Z:PROC		; CWnd::OnNotify
EXTRN	?GetSuperWndProcAddr@CWnd@@MAEPAP6GJPAUHWND__@@IIJ@ZXZ:PROC ; CWnd::GetSuperWndProcAddr
EXTRN	?PreTranslateMessage@CWnd@@UAEHPAUtagMSG@@@Z:PROC ; CWnd::PreTranslateMessage
EXTRN	?OnAmbientProperty@CWnd@@UAEHPAVCOleControlSite@@JPAUtagVARIANT@@@Z:PROC ; CWnd::OnAmbientProperty
EXTRN	?WindowProc@CWnd@@MAEJIIJ@Z:PROC		; CWnd::WindowProc
EXTRN	?OnWndMsg@CWnd@@MAEHIIJPAJ@Z:PROC		; CWnd::OnWndMsg
EXTRN	?Default@CWnd@@IAEJXZ:PROC			; CWnd::Default
EXTRN	?DefWindowProcA@CWnd@@MAEJIIJ@Z:PROC		; CWnd::DefWindowProcA
EXTRN	?PostNcDestroy@CWnd@@MAEXXZ:PROC		; CWnd::PostNcDestroy
EXTRN	?OnChildNotify@CWnd@@MAEHIIJPAJ@Z:PROC		; CWnd::OnChildNotify
EXTRN	?OnTouchInputs@CWnd@@MAEHIPAUtagTOUCHINPUT@@@Z:PROC ; CWnd::OnTouchInputs
EXTRN	?OnTouchInput@CWnd@@MAEHVCPoint@@HHPAUtagTOUCHINPUT@@@Z:PROC ; CWnd::OnTouchInput
EXTRN	?GetGestureStatus@CWnd@@MAEKVCPoint@@@Z:PROC	; CWnd::GetGestureStatus
EXTRN	?OnGestureZoom@CWnd@@MAEHVCPoint@@J@Z:PROC	; CWnd::OnGestureZoom
EXTRN	?OnGesturePan@CWnd@@MAEHVCPoint@@0@Z:PROC	; CWnd::OnGesturePan
EXTRN	?OnGestureRotate@CWnd@@MAEHVCPoint@@N@Z:PROC	; CWnd::OnGestureRotate
EXTRN	?OnGestureTwoFingerTap@CWnd@@MAEHVCPoint@@@Z:PROC ; CWnd::OnGestureTwoFingerTap
EXTRN	?OnGesturePressAndTap@CWnd@@MAEHVCPoint@@J@Z:PROC ; CWnd::OnGesturePressAndTap
EXTRN	?ResizeDynamicLayout@CWnd@@MAEXXZ:PROC		; CWnd::ResizeDynamicLayout
EXTRN	??1CWnd@@UAE@XZ:PROC				; CWnd::~CWnd
EXTRN	?CheckAutoCenter@CWnd@@UAEHXZ:PROC		; CWnd::CheckAutoCenter
EXTRN	?IsFrameWnd@CWnd@@UBEHXZ:PROC			; CWnd::IsFrameWnd
EXTRN	?OnFinalRelease@CWnd@@UAEXXZ:PROC		; CWnd::OnFinalRelease
EXTRN	?CreateControlContainer@CWnd@@MAEHPAPAVCOleControlContainer@@@Z:PROC ; CWnd::CreateControlContainer
EXTRN	?CreateControlSite@CWnd@@MAEHPAVCOleControlContainer@@PAPAVCOleControlSite@@IABU_GUID@@@Z:PROC ; CWnd::CreateControlSite
EXTRN	?SetOccDialogInfo@CWnd@@MAEHPAU_AFX_OCC_DIALOG_INFO@@@Z:PROC ; CWnd::SetOccDialogInfo
EXTRN	?GetOccDialogInfo@CWnd@@MAEPAU_AFX_OCC_DIALOG_INFO@@XZ:PROC ; CWnd::GetOccDialogInfo
EXTRN	?GetThisMessageMap@CWnd@@KGPBUAFX_MSGMAP@@XZ:PROC ; CWnd::GetThisMessageMap
EXTRN	?GetMessageMap@CWnd@@MBEPBUAFX_MSGMAP@@XZ:PROC	; CWnd::GetMessageMap
EXTRN	?GetRuntimeClass@CEdit@@UBEPAUCRuntimeClass@@XZ:PROC ; CEdit::GetRuntimeClass
EXTRN	??1CEdit@@UAE@XZ:PROC				; CEdit::~CEdit
EXTRN	??_ECEdit@@UAEPAXI@Z:PROC			; CEdit::`vector deleting destructor'
EXTRN	?AfxMessageBox@@YGHPBDII@Z:PROC			; AfxMessageBox
EXTRN	?_com_issue_error@@YGXJ@Z:PROC			; _com_issue_error
EXTRN	?ConvertStringToBSTR@_com_util@@YGPA_WPBD@Z:PROC ; _com_util::ConvertStringToBSTR
EXTRN	?ConvertBSTRToString@_com_util@@YGPADPA_W@Z:PROC ; _com_util::ConvertBSTRToString
EXTRN	??_ECWinixCodeCtrl@@UAEPAXI@Z:PROC		; CWinixCodeCtrl::`vector deleting destructor'
EXTRN	??0CILButton@@QAE@XZ:PROC			; CILButton::CILButton
EXTRN	?FP_vSetImage@CILButton@@QAEXPAVCImageList@@HHHV?$CStringT@DV?$StrTraitMFC_DLL@DV?$ChTraitsCRT@D@ATL@@@@@ATL@@HHH@Z:PROC ; CILButton::FP_vSetImage
EXTRN	??1CILButton@@UAE@XZ:PROC			; CILButton::~CILButton
EXTRN	??_ECCodeCtrl@@UAEPAXI@Z:PROC			; CCodeCtrl::`vector deleting destructor'
EXTRN	@__security_check_cookie@4:PROC
EXTRN	___CxxFrameHandler3:PROC
EXTRN	_GUID_NULL:BYTE
EXTRN	??_7type_info@@6B@:QWORD			; type_info::`vftable'
EXTRN	___security_cookie:DWORD
_BSS	SEGMENT
?RMSG_DRUSER@@3IB DD 01H DUP (?)			; RMSG_DRUSER
_BSS	ENDS
;	COMDAT CRT$XCU
CRT$XCU	SEGMENT
?_AtlWinModule$initializer$@ATL@@3P6AXXZA DD FLAT:??__E_AtlWinModule@ATL@@YAXXZ ; ATL::_AtlWinModule$initializer$
CRT$XCU	ENDS
;	COMDAT __xmm@00000014000000140000000000000000
CONST	SEGMENT
__xmm@00000014000000140000000000000000 DB 00H, 00H, 00H, 00H, 00H, 00H, 00H
	DB	00H, 014H, 00H, 00H, 00H, 014H, 00H, 00H, 00H
CONST	ENDS
;	COMDAT ??_R1A@?0A@EA@CCodeCtrl@@8
rdata$r	SEGMENT
??_R1A@?0A@EA@CCodeCtrl@@8 DD FLAT:??_R0?AVCCodeCtrl@@@8 ; CCodeCtrl::`RTTI Base Class Descriptor at (0,-1,0,64)'
	DD	04H
	DD	00H
	DD	0ffffffffH
	DD	00H
	DD	040H
	DD	FLAT:??_R3CCodeCtrl@@8
rdata$r	ENDS
;	COMDAT ??_R2CCodeCtrl@@8
rdata$r	SEGMENT
??_R2CCodeCtrl@@8 DD FLAT:??_R1A@?0A@EA@CCodeCtrl@@8	; CCodeCtrl::`RTTI Base Class Array'
	DD	FLAT:??_R1A@?0A@EA@CWinixCodeCtrl@@8
	DD	FLAT:??_R1A@?0A@EA@CWnd@@8
	DD	FLAT:??_R1A@?0A@EA@CCmdTarget@@8
	DD	FLAT:??_R1A@?0A@EA@CObject@@8
rdata$r	ENDS
;	COMDAT ??_R3CCodeCtrl@@8
rdata$r	SEGMENT
??_R3CCodeCtrl@@8 DD 00H				; CCodeCtrl::`RTTI Class Hierarchy Descriptor'
	DD	00H
	DD	05H
	DD	FLAT:??_R2CCodeCtrl@@8
rdata$r	ENDS
;	COMDAT ??_R0?AVCCodeCtrl@@@8
data$rs	SEGMENT
??_R0?AVCCodeCtrl@@@8 DD FLAT:??_7type_info@@6B@	; CCodeCtrl `RTTI Type Descriptor'
	DD	00H
	DB	'.?AVCCodeCtrl@@', 00H
data$rs	ENDS
;	COMDAT ??_R4CCodeCtrl@@6B@
rdata$r	SEGMENT
??_R4CCodeCtrl@@6B@ DD 00H				; CCodeCtrl::`RTTI Complete Object Locator'
	DD	00H
	DD	00H
	DD	FLAT:??_R0?AVCCodeCtrl@@@8
	DD	FLAT:??_R3CCodeCtrl@@8
rdata$r	ENDS
;	COMDAT ??_R1A@?0A@EA@CWinixCodeCtrl@@8
rdata$r	SEGMENT
??_R1A@?0A@EA@CWinixCodeCtrl@@8 DD FLAT:??_R0?AVCWinixCodeCtrl@@@8 ; CWinixCodeCtrl::`RTTI Base Class Descriptor at (0,-1,0,64)'
	DD	03H
	DD	00H
	DD	0ffffffffH
	DD	00H
	DD	040H
	DD	FLAT:??_R3CWinixCodeCtrl@@8
rdata$r	ENDS
;	COMDAT ??_R2CWinixCodeCtrl@@8
rdata$r	SEGMENT
??_R2CWinixCodeCtrl@@8 DD FLAT:??_R1A@?0A@EA@CWinixCodeCtrl@@8 ; CWinixCodeCtrl::`RTTI Base Class Array'
	DD	FLAT:??_R1A@?0A@EA@CWnd@@8
	DD	FLAT:??_R1A@?0A@EA@CCmdTarget@@8
	DD	FLAT:??_R1A@?0A@EA@CObject@@8
rdata$r	ENDS
;	COMDAT ??_R3CWinixCodeCtrl@@8
rdata$r	SEGMENT
??_R3CWinixCodeCtrl@@8 DD 00H				; CWinixCodeCtrl::`RTTI Class Hierarchy Descriptor'
	DD	00H
	DD	04H
	DD	FLAT:??_R2CWinixCodeCtrl@@8
rdata$r	ENDS
;	COMDAT ??_R0?AVCWinixCodeCtrl@@@8
data$rs	SEGMENT
??_R0?AVCWinixCodeCtrl@@@8 DD FLAT:??_7type_info@@6B@	; CWinixCodeCtrl `RTTI Type Descriptor'
	DD	00H
	DB	'.?AVCWinixCodeCtrl@@', 00H
data$rs	ENDS
;	COMDAT ??_R4CWinixCodeCtrl@@6B@
rdata$r	SEGMENT
??_R4CWinixCodeCtrl@@6B@ DD 00H				; CWinixCodeCtrl::`RTTI Complete Object Locator'
	DD	00H
	DD	00H
	DD	FLAT:??_R0?AVCWinixCodeCtrl@@@8
	DD	FLAT:??_R3CWinixCodeCtrl@@8
rdata$r	ENDS
;	COMDAT ??_C@_09EGFDFBNO@axSetFont@
CONST	SEGMENT
??_C@_09EGFDFBNO@axSetFont@ DB 'axSetFont', 00H		; `string'
CONST	ENDS
;	COMDAT ??_C@_0L@JGJDKCFP@axSetColor@
CONST	SEGMENT
??_C@_0L@JGJDKCFP@axSetColor@ DB 'axSetColor', 00H	; `string'
CONST	ENDS
;	COMDAT ??_C@_09NAPNHIGI@axSetCode@
CONST	SEGMENT
??_C@_09NAPNHIGI@axSetCode@ DB 'axSetCode', 00H		; `string'
CONST	ENDS
;	COMDAT ??_C@_1BA@MLFBGNGJ@?$AAG?$AAe?$AAt?$AAN?$AAa?$AAm?$AAe@
CONST	SEGMENT
??_C@_1BA@MLFBGNGJ@?$AAG?$AAe?$AAt?$AAN?$AAa?$AAm?$AAe@ DB 'G', 00H, 'e', 00H
	DB	't', 00H, 'N', 00H, 'a', 00H, 'm', 00H, 'e', 00H, 00H, 00H ; `string'
CONST	ENDS
;	COMDAT ??_C@_08GLDIOPIF@UnitData@
CONST	SEGMENT
??_C@_08GLDIOPIF@UnitData@ DB 'UnitData', 00H		; `string'
CONST	ENDS
;	COMDAT ??_C@_0DL@PKKCJJLC@?1u?50?5?1k?5?$LA?K?$LL?v?4BMP?5?1l?5AXCOMBO?4BMP@
CONST	SEGMENT
??_C@_0DL@PKKCJJLC@?1u?50?5?1k?5?$LA?K?$LL?v?4BMP?5?1l?5AXCOMBO?4BMP@ DB '/'
	DB	'u 0 /k ', 0b0H, 0cbH, 0bbH, 0f6H, '.BMP /l AXCOMBO.BMP /p 3 /'
	DB	's 1 /o True /q False', 00H			; `string'
CONST	ENDS
;	COMDAT ??_C@_06MFMMLLPC@?$LB?$LM?$LI?$LC?C?$LM@
CONST	SEGMENT
??_C@_06MFMMLLPC@?$LB?$LM?$LI?$LC?C?$LM@ DB 0b1H, 0bcH, 0b8H, 0b2H, 0c3H, 0bcH
	DB	00H						; `string'
CONST	ENDS
;	COMDAT ??_C@_08IHGIAAII@axCreate@
CONST	SEGMENT
??_C@_08IHGIAAII@axCreate@ DB 'axCreate', 00H		; `string'
CONST	ENDS
;	COMDAT ??_C@_0BC@FPOCPFEP@CX_CODECTRLEX?4DLL@
CONST	SEGMENT
??_C@_0BC@FPOCPFEP@CX_CODECTRLEX?4DLL@ DB 'CX_CODECTRLEX.DLL', 00H ; `string'
CONST	ENDS
;	COMDAT ?messageMap@?1??GetThisMessageMap@CWinixCodeCtrl@@KGPBUAFX_MSGMAP@@XZ@4U3@B
CONST	SEGMENT
?messageMap@?1??GetThisMessageMap@CWinixCodeCtrl@@KGPBUAFX_MSGMAP@@XZ@4U3@B DD FLAT:?GetThisMessageMap@CWnd@@KGPBUAFX_MSGMAP@@XZ ; `CWinixCodeCtrl::GetThisMessageMap'::`2'::messageMap
	DD	FLAT:?_messageEntries@?1??GetThisMessageMap@CWinixCodeCtrl@@KGPBUAFX_MSGMAP@@XZ@4QBUAFX_MSGMAP_ENTRY@@B
CONST	ENDS
;	COMDAT ?_messageEntries@?1??GetThisMessageMap@CWinixCodeCtrl@@KGPBUAFX_MSGMAP@@XZ@4QBUAFX_MSGMAP_ENTRY@@B
CONST	SEGMENT
?_messageEntries@?1??GetThisMessageMap@CWinixCodeCtrl@@KGPBUAFX_MSGMAP@@XZ@4QBUAFX_MSGMAP_ENTRY@@B DD 01H ; `CWinixCodeCtrl::GetThisMessageMap'::`2'::_messageEntries
	DD	00H
	DD	00H
	DD	00H
	DD	0dH
	DD	FLAT:?OnCreate@CWinixCodeCtrl@@IAEHPAUtagCREATESTRUCTA@@@Z
	DD	05H
	DD	00H
	DD	00H
	DD	00H
	DD	01aH
	DD	FLAT:?OnSize@CWinixCodeCtrl@@IAEXIHH@Z
	DD	0400H
	DD	00H
	DD	00H
	DD	00H
	DD	0eH
	DD	FLAT:?OnUser@CWinixCodeCtrl@@IAEJIJ@Z
	DD	00H
	DD	00H
	DD	00H
	DD	00H
	DD	00H
	DD	00H
CONST	ENDS
;	COMDAT ??_C@_04DICKPMGH@Data@
CONST	SEGMENT
??_C@_04DICKPMGH@Data@ DB 'Data', 00H			; `string'
CONST	ENDS
;	COMDAT ??_C@_0M@MODPFOFO@?$LA?K?$LL?v_EN?4bmp@
CONST	SEGMENT
??_C@_0M@MODPFOFO@?$LA?K?$LL?v_EN?4bmp@ DB 0b0H, 0cbH, 0bbH, 0f6H, '_EN.b'
	DB	'mp', 00H					; `string'
CONST	ENDS
;	COMDAT ??_C@_0M@GIEIFFOK@?$LA?K?$LL?v_DN?4bmp@
CONST	SEGMENT
??_C@_0M@GIEIFFOK@?$LA?K?$LL?v_DN?4bmp@ DB 0b0H, 0cbH, 0bbH, 0f6H, '_DN.b'
	DB	'mp', 00H					; `string'
CONST	ENDS
;	COMDAT ??_C@_08BHAJBOJL@?$LA?K?$LL?v?4bmp@
CONST	SEGMENT
??_C@_08BHAJBOJL@?$LA?K?$LL?v?4bmp@ DB 0b0H, 0cbH, 0bbH, 0f6H, '.bmp', 00H ; `string'
CONST	ENDS
;	COMDAT ??_C@_0BO@DHAEAEL@Can?5not?5Find?5W15_H15?4bmp?5file@
CONST	SEGMENT
??_C@_0BO@DHAEAEL@Can?5not?5Find?5W15_H15?4bmp?5file@ DB 'Can not Find W1'
	DB	'5_H15.bmp file', 00H			; `string'
CONST	ENDS
;	COMDAT ??_C@_07KHBMGAOF@?2Image?2@
CONST	SEGMENT
??_C@_07KHBMGAOF@?2Image?2@ DB '\Image\', 00H		; `string'
CONST	ENDS
;	COMDAT ??_C@_05OALCLBHC@?$CFs?7?$CFs@
CONST	SEGMENT
??_C@_05OALCLBHC@?$CFs?7?$CFs@ DB '%s', 09H, '%s', 00H	; `string'
CONST	ENDS
;	COMDAT ??_C@_04GHGOKPCP@?$LM?$LB?$LJ?$LA@
CONST	SEGMENT
??_C@_04GHGOKPCP@?$LM?$LB?$LJ?$LA@ DB 0bcH, 0b1H, 0b9H, 0b0H, 00H ; `string'
CONST	ENDS
;	COMDAT ??_C@_08OPOALDAF@?$LL?s?G?$LA?$LM?$LB?$LJ?$LA@
CONST	SEGMENT
??_C@_08OPOALDAF@?$LL?s?G?$LA?$LM?$LB?$LJ?$LA@ DB 0bbH, 0f3H, 0c7H, 0b0H, 0bcH
	DB	0b1H, 0b9H, 0b0H, 00H			; `string'
CONST	ENDS
;	COMDAT ??_C@_06ILKOJIAC@FO?A?v?G?$KF@
CONST	SEGMENT
??_C@_06ILKOJIAC@FO?A?v?G?$KF@ DB 'FO', 0c1H, 0f6H, 0c7H, 0a5H, 00H ; `string'
CONST	ENDS
;	COMDAT ??_C@_0N@EPCAMEMK@?$LL?s?G?$LA?$LM?$LB?$LJ?$LA?$LP?I?$LM?G@
CONST	SEGMENT
??_C@_0N@EPCAMEMK@?$LL?s?G?$LA?$LM?$LB?$LJ?$LA?$LP?I?$LM?G@ DB 0bbH, 0f3H
	DB	0c7H, 0b0H, 0bcH, 0b1H, 0b9H, 0b0H, 0bfH, 0c9H, 0bcH, 0c7H, 00H ; `string'
CONST	ENDS
;	COMDAT ??_C@_04GHLAOPMI@?$LO?w?A?$LO@
CONST	SEGMENT
??_C@_04GHLAOPMI@?$LO?w?A?$LO@ DB 0beH, 0f7H, 0c1H, 0beH, 00H ; `string'
CONST	ENDS
;	COMDAT ??_C@_08ODFAFGMO@?A?V?$LN?D?$LM?$LB?$LJ?$LA@
CONST	SEGMENT
??_C@_08ODFAFGMO@?A?V?$LN?D?$LM?$LB?$LJ?$LA@ DB 0c1H, 0d6H, 0bdH, 0c4H, 0bcH
	DB	0b1H, 0b9H, 0b0H, 00H			; `string'
CONST	ENDS
;	COMDAT ??_C@_08GMMOIJLH@?A?V?$LN?D?$LP?I?$LM?G@
CONST	SEGMENT
??_C@_08GMMOIJLH@?A?V?$LN?D?$LP?I?$LM?G@ DB 0c1H, 0d6H, 0bdH, 0c4H, 0bfH, 0c9H
	DB	0bcH, 0c7H, 00H				; `string'
CONST	ENDS
;	COMDAT ??_C@_08NDPAGPFD@?$LM?$LB?$LJ?$LA?$LP?I?$LM?G@
CONST	SEGMENT
??_C@_08NDPAGPFD@?$LM?$LB?$LJ?$LA?$LP?I?$LM?G@ DB 0bcH, 0b1H, 0b9H, 0b0H, 0bfH
	DB	0c9H, 0bcH, 0c7H, 00H			; `string'
CONST	ENDS
;	COMDAT ??_C@_04GCIHJOGB@?G?X?$LP?$NM@
CONST	SEGMENT
??_C@_04GCIHJOGB@?G?X?$LP?$NM@ DB 0c7H, 0d8H, 0bfH, 0dcH, 00H ; `string'
CONST	ENDS
;	COMDAT ??_C@_03POALDHNL@ELW@
CONST	SEGMENT
??_C@_03POALDHNL@ELW@ DB 'ELW', 00H			; `string'
CONST	ENDS
;	COMDAT ??_C@_04IMIHFAMF@?A?V?$LN?D@
CONST	SEGMENT
??_C@_04IMIHFAMF@?A?V?$LN?D@ DB 0c1H, 0d6H, 0bdH, 0c4H, 00H ; `string'
CONST	ENDS
;	COMDAT ?messageMap@?1??GetThisMessageMap@CCodeCtrl@@KGPBUAFX_MSGMAP@@XZ@4U3@B
CONST	SEGMENT
?messageMap@?1??GetThisMessageMap@CCodeCtrl@@KGPBUAFX_MSGMAP@@XZ@4U3@B DD FLAT:?GetThisMessageMap@CWinixCodeCtrl@@KGPBUAFX_MSGMAP@@XZ ; `CCodeCtrl::GetThisMessageMap'::`2'::messageMap
	DD	FLAT:?_messageEntries@?1??GetThisMessageMap@CCodeCtrl@@KGPBUAFX_MSGMAP@@XZ@4QBUAFX_MSGMAP_ENTRY@@B
CONST	ENDS
;	COMDAT ?_messageEntries@?1??GetThisMessageMap@CCodeCtrl@@KGPBUAFX_MSGMAP@@XZ@4QBUAFX_MSGMAP_ENTRY@@B
CONST	SEGMENT
?_messageEntries@?1??GetThisMessageMap@CCodeCtrl@@KGPBUAFX_MSGMAP@@XZ@4QBUAFX_MSGMAP_ENTRY@@B DD 01H ; `CCodeCtrl::GetThisMessageMap'::`2'::_messageEntries
	DD	00H
	DD	00H
	DD	00H
	DD	0dH
	DD	FLAT:?OnCreate@CCodeCtrl@@IAEHPAUtagCREATESTRUCTA@@@Z
	DD	05H
	DD	00H
	DD	00H
	DD	00H
	DD	01aH
	DD	FLAT:?OnSize@CCodeCtrl@@IAEXIHH@Z
	DD	0111H
	DD	00H
	DD	02H
	DD	02H
	DD	03aH
	DD	FLAT:?OnBtnCodeDlg@CCodeCtrl@@IAEXXZ
	DD	0111H
	DD	09H
	DD	02H
	DD	02H
	DD	03aH
	DD	FLAT:?OnSelendokCodeCtrl@CCodeCtrl@@IAEXXZ
	DD	00H
	DD	00H
	DD	00H
	DD	00H
	DD	00H
	DD	00H
CONST	ENDS
;	COMDAT ??_7CCodeCtrl@@6B@
CONST	SEGMENT
??_7CCodeCtrl@@6B@ DD FLAT:??_R4CCodeCtrl@@6B@		; CCodeCtrl::`vftable'
	DD	FLAT:?GetRuntimeClass@CWnd@@UBEPAUCRuntimeClass@@XZ
	DD	FLAT:??_ECCodeCtrl@@UAEPAXI@Z
	DD	FLAT:?Serialize@CObject@@UAEXAAVCArchive@@@Z
	DD	FLAT:?AssertValid@CObject@@UBEXXZ
	DD	FLAT:?Dump@CObject@@UBEXAAVCDumpContext@@@Z
	DD	FLAT:?OnCmdMsg@CCmdTarget@@UAEHIHPAXPAUAFX_CMDHANDLERINFO@@@Z
	DD	FLAT:?OnFinalRelease@CWnd@@UAEXXZ
	DD	FLAT:?IsInvokeAllowed@CCmdTarget@@UAEHJ@Z
	DD	FLAT:?GetDispatchIID@CCmdTarget@@UAEHPAU_GUID@@@Z
	DD	FLAT:?GetTypeInfoCount@CCmdTarget@@UAEIXZ
	DD	FLAT:?GetTypeLibCache@CCmdTarget@@UAEPAVCTypeLibCache@@XZ
	DD	FLAT:?GetTypeLib@CCmdTarget@@UAEJKPAPAUITypeLib@@@Z
	DD	FLAT:?GetMessageMap@CCodeCtrl@@MBEPBUAFX_MSGMAP@@XZ
	DD	FLAT:?GetCommandMap@CCmdTarget@@MBEPBUAFX_OLECMDMAP@@XZ
	DD	FLAT:?GetDispatchMap@CCmdTarget@@MBEPBUAFX_DISPMAP@@XZ
	DD	FLAT:?GetConnectionMap@CCmdTarget@@MBEPBUAFX_CONNECTIONMAP@@XZ
	DD	FLAT:?GetInterfaceMap@CWnd@@MBEPBUAFX_INTERFACEMAP@@XZ
	DD	FLAT:?GetEventSinkMap@CCmdTarget@@MBEPBUAFX_EVENTSINKMAP@@XZ
	DD	FLAT:?OnCreateAggregates@CCmdTarget@@UAEHXZ
	DD	FLAT:?GetInterfaceHook@CCmdTarget@@UAEPAUIUnknown@@PBX@Z
	DD	FLAT:?GetExtraConnectionPoints@CCmdTarget@@MAEHPAVCPtrArray@@@Z
	DD	FLAT:?GetConnectionHook@CCmdTarget@@MAEPAUIConnectionPoint@@ABU_GUID@@@Z
	DD	FLAT:?PreSubclassWindow@CWnd@@UAEXXZ
	DD	FLAT:?Create@CWnd@@UAEHPBD0KABUtagRECT@@PAV1@IPAUCCreateContext@@@Z
	DD	FLAT:?CreateEx@CWnd@@UAEHKPBD0KABUtagRECT@@PAV1@IPAX@Z
	DD	FLAT:?CreateEx@CWnd@@UAEHKPBD0KHHHHPAUHWND__@@PAUHMENU__@@PAX@Z
	DD	FLAT:?DestroyWindow@CWnd@@UAEHXZ
	DD	FLAT:?PreCreateWindow@CWnd@@UAEHAAUtagCREATESTRUCTA@@@Z
	DD	FLAT:?CalcWindowRect@CWnd@@UAEXPAUtagRECT@@I@Z
	DD	FLAT:?GetMenu@CWnd@@UBEPAVCMenu@@XZ
	DD	FLAT:?SetMenu@CWnd@@UAEHPAVCMenu@@@Z
	DD	FLAT:?OnToolHitTest@CWnd@@UBEHVCPoint@@PAUtagTOOLINFOA@@@Z
	DD	FLAT:?GetScrollBarCtrl@CWnd@@UBEPAVCScrollBar@@H@Z
	DD	FLAT:?WinHelpA@CWnd@@UAEXKI@Z
	DD	FLAT:?HtmlHelpA@CWnd@@UAEXKI@Z
	DD	FLAT:?WinHelpInternal@CWnd@@UAEXKI@Z
	DD	FLAT:?ContinueModal@CWnd@@UAEHXZ
	DD	FLAT:?EndModalLoop@CWnd@@UAEXH@Z
	DD	FLAT:?OnDrawIconicThumbnailOrLivePreview@CWnd@@UAEXAAVCDC@@VCRect@@VCSize@@HAAH@Z
	DD	FLAT:?EnsureStdObj@CWnd@@UAEJXZ
	DD	FLAT:?get_accParent@CWnd@@UAEJPAPAUIDispatch@@@Z
	DD	FLAT:?get_accChildCount@CWnd@@UAEJPAJ@Z
	DD	FLAT:?get_accChild@CWnd@@UAEJUtagVARIANT@@PAPAUIDispatch@@@Z
	DD	FLAT:?get_accName@CWnd@@UAEJUtagVARIANT@@PAPA_W@Z
	DD	FLAT:?get_accValue@CWnd@@UAEJUtagVARIANT@@PAPA_W@Z
	DD	FLAT:?get_accDescription@CWnd@@UAEJUtagVARIANT@@PAPA_W@Z
	DD	FLAT:?get_accRole@CWnd@@UAEJUtagVARIANT@@PAU2@@Z
	DD	FLAT:?get_accState@CWnd@@UAEJUtagVARIANT@@PAU2@@Z
	DD	FLAT:?get_accHelp@CWnd@@UAEJUtagVARIANT@@PAPA_W@Z
	DD	FLAT:?get_accHelpTopic@CWnd@@UAEJPAPA_WUtagVARIANT@@PAJ@Z
	DD	FLAT:?get_accKeyboardShortcut@CWnd@@UAEJUtagVARIANT@@PAPA_W@Z
	DD	FLAT:?get_accFocus@CWnd@@UAEJPAUtagVARIANT@@@Z
	DD	FLAT:?get_accSelection@CWnd@@UAEJPAUtagVARIANT@@@Z
	DD	FLAT:?get_accDefaultAction@CWnd@@UAEJUtagVARIANT@@PAPA_W@Z
	DD	FLAT:?accSelect@CWnd@@UAEJJUtagVARIANT@@@Z
	DD	FLAT:?accLocation@CWnd@@UAEJPAJ000UtagVARIANT@@@Z
	DD	FLAT:?accNavigate@CWnd@@UAEJJUtagVARIANT@@PAU2@@Z
	DD	FLAT:?accHitTest@CWnd@@UAEJJJPAUtagVARIANT@@@Z
	DD	FLAT:?accDoDefaultAction@CWnd@@UAEJUtagVARIANT@@@Z
	DD	FLAT:?put_accName@CWnd@@UAEJUtagVARIANT@@PA_W@Z
	DD	FLAT:?put_accValue@CWnd@@UAEJUtagVARIANT@@PA_W@Z
	DD	FLAT:?SetProxy@CWnd@@UAEJPAUIAccessibleProxy@@@Z
	DD	FLAT:?CreateAccessibleProxy@CWnd@@UAEJIJPAJ@Z
	DD	FLAT:?OnCommand@CWinixCodeCtrl@@MAEHIJ@Z
	DD	FLAT:?OnNotify@CWnd@@MAEHIJPAJ@Z
	DD	FLAT:?GetSuperWndProcAddr@CWnd@@MAEPAP6GJPAUHWND__@@IIJ@ZXZ
	DD	FLAT:?DoDataExchange@CWnd@@MAEXPAVCDataExchange@@@Z
	DD	FLAT:?BeginModalState@CWnd@@UAEXXZ
	DD	FLAT:?EndModalState@CWnd@@UAEXXZ
	DD	FLAT:?PreTranslateMessage@CWnd@@UAEHPAUtagMSG@@@Z
	DD	FLAT:?OnAmbientProperty@CWnd@@UAEHPAVCOleControlSite@@JPAUtagVARIANT@@@Z
	DD	FLAT:?WindowProc@CWnd@@MAEJIIJ@Z
	DD	FLAT:?OnWndMsg@CWnd@@MAEHIIJPAJ@Z
	DD	FLAT:?DefWindowProcA@CWnd@@MAEJIIJ@Z
	DD	FLAT:?PostNcDestroy@CWnd@@MAEXXZ
	DD	FLAT:?OnChildNotify@CWnd@@MAEHIIJPAJ@Z
	DD	FLAT:?OnTouchInputs@CWnd@@MAEHIPAUtagTOUCHINPUT@@@Z
	DD	FLAT:?OnTouchInput@CWnd@@MAEHVCPoint@@HHPAUtagTOUCHINPUT@@@Z
	DD	FLAT:?GetGestureStatus@CWnd@@MAEKVCPoint@@@Z
	DD	FLAT:?OnGestureZoom@CWnd@@MAEHVCPoint@@J@Z
	DD	FLAT:?OnGesturePan@CWnd@@MAEHVCPoint@@0@Z
	DD	FLAT:?OnGestureRotate@CWnd@@MAEHVCPoint@@N@Z
	DD	FLAT:?OnGestureTwoFingerTap@CWnd@@MAEHVCPoint@@@Z
	DD	FLAT:?OnGesturePressAndTap@CWnd@@MAEHVCPoint@@J@Z
	DD	FLAT:?ResizeDynamicLayout@CWnd@@MAEXXZ
	DD	FLAT:?CheckAutoCenter@CWnd@@UAEHXZ
	DD	FLAT:?IsFrameWnd@CWnd@@UBEHXZ
	DD	FLAT:?CreateControlContainer@CWnd@@MAEHPAPAVCOleControlContainer@@@Z
	DD	FLAT:?CreateControlSite@CWnd@@MAEHPAVCOleControlContainer@@PAPAVCOleControlSite@@IABU_GUID@@@Z
	DD	FLAT:?SetOccDialogInfo@CWnd@@MAEHPAU_AFX_OCC_DIALOG_INFO@@@Z
	DD	FLAT:?GetOccDialogInfo@CWnd@@MAEPAU_AFX_OCC_DIALOG_INFO@@XZ
	DD	FLAT:?UseCodeDlg@CCodeCtrl@@UAEXH@Z
	DD	FLAT:?SetRootPath@CCodeCtrl@@UAEXPBD@Z
	DD	FLAT:?SetUnit@CCodeCtrl@@UAE_NV?$CStringT@DV?$StrTraitMFC_DLL@DV?$ChTraitsCRT@D@ATL@@@@@ATL@@@Z
	DD	FLAT:?SetUnit@CCodeCtrl@@UAE_NH@Z
	DD	FLAT:?SetHistory@CCodeCtrl@@UAE_NPBD0@Z
	DD	FLAT:?SetCode@CCodeCtrl@@UAE_NV?$CStringT@DV?$StrTraitMFC_DLL@DV?$ChTraitsCRT@D@ATL@@@@@ATL@@_N@Z
	DD	FLAT:?GetCode@CCodeCtrl@@UAE?AV?$CStringT@DV?$StrTraitMFC_DLL@DV?$ChTraitsCRT@D@ATL@@@@@ATL@@XZ
CONST	ENDS
;	COMDAT ??_7CWinixCodeCtrl@@6B@
CONST	SEGMENT
??_7CWinixCodeCtrl@@6B@ DD FLAT:??_R4CWinixCodeCtrl@@6B@ ; CWinixCodeCtrl::`vftable'
	DD	FLAT:?GetRuntimeClass@CWnd@@UBEPAUCRuntimeClass@@XZ
	DD	FLAT:??_ECWinixCodeCtrl@@UAEPAXI@Z
	DD	FLAT:?Serialize@CObject@@UAEXAAVCArchive@@@Z
	DD	FLAT:?AssertValid@CObject@@UBEXXZ
	DD	FLAT:?Dump@CObject@@UBEXAAVCDumpContext@@@Z
	DD	FLAT:?OnCmdMsg@CCmdTarget@@UAEHIHPAXPAUAFX_CMDHANDLERINFO@@@Z
	DD	FLAT:?OnFinalRelease@CWnd@@UAEXXZ
	DD	FLAT:?IsInvokeAllowed@CCmdTarget@@UAEHJ@Z
	DD	FLAT:?GetDispatchIID@CCmdTarget@@UAEHPAU_GUID@@@Z
	DD	FLAT:?GetTypeInfoCount@CCmdTarget@@UAEIXZ
	DD	FLAT:?GetTypeLibCache@CCmdTarget@@UAEPAVCTypeLibCache@@XZ
	DD	FLAT:?GetTypeLib@CCmdTarget@@UAEJKPAPAUITypeLib@@@Z
	DD	FLAT:?GetMessageMap@CWinixCodeCtrl@@MBEPBUAFX_MSGMAP@@XZ
	DD	FLAT:?GetCommandMap@CCmdTarget@@MBEPBUAFX_OLECMDMAP@@XZ
	DD	FLAT:?GetDispatchMap@CCmdTarget@@MBEPBUAFX_DISPMAP@@XZ
	DD	FLAT:?GetConnectionMap@CCmdTarget@@MBEPBUAFX_CONNECTIONMAP@@XZ
	DD	FLAT:?GetInterfaceMap@CWnd@@MBEPBUAFX_INTERFACEMAP@@XZ
	DD	FLAT:?GetEventSinkMap@CCmdTarget@@MBEPBUAFX_EVENTSINKMAP@@XZ
	DD	FLAT:?OnCreateAggregates@CCmdTarget@@UAEHXZ
	DD	FLAT:?GetInterfaceHook@CCmdTarget@@UAEPAUIUnknown@@PBX@Z
	DD	FLAT:?GetExtraConnectionPoints@CCmdTarget@@MAEHPAVCPtrArray@@@Z
	DD	FLAT:?GetConnectionHook@CCmdTarget@@MAEPAUIConnectionPoint@@ABU_GUID@@@Z
	DD	FLAT:?PreSubclassWindow@CWnd@@UAEXXZ
	DD	FLAT:?Create@CWnd@@UAEHPBD0KABUtagRECT@@PAV1@IPAUCCreateContext@@@Z
	DD	FLAT:?CreateEx@CWnd@@UAEHKPBD0KABUtagRECT@@PAV1@IPAX@Z
	DD	FLAT:?CreateEx@CWnd@@UAEHKPBD0KHHHHPAUHWND__@@PAUHMENU__@@PAX@Z
	DD	FLAT:?DestroyWindow@CWnd@@UAEHXZ
	DD	FLAT:?PreCreateWindow@CWnd@@UAEHAAUtagCREATESTRUCTA@@@Z
	DD	FLAT:?CalcWindowRect@CWnd@@UAEXPAUtagRECT@@I@Z
	DD	FLAT:?GetMenu@CWnd@@UBEPAVCMenu@@XZ
	DD	FLAT:?SetMenu@CWnd@@UAEHPAVCMenu@@@Z
	DD	FLAT:?OnToolHitTest@CWnd@@UBEHVCPoint@@PAUtagTOOLINFOA@@@Z
	DD	FLAT:?GetScrollBarCtrl@CWnd@@UBEPAVCScrollBar@@H@Z
	DD	FLAT:?WinHelpA@CWnd@@UAEXKI@Z
	DD	FLAT:?HtmlHelpA@CWnd@@UAEXKI@Z
	DD	FLAT:?WinHelpInternal@CWnd@@UAEXKI@Z
	DD	FLAT:?ContinueModal@CWnd@@UAEHXZ
	DD	FLAT:?EndModalLoop@CWnd@@UAEXH@Z
	DD	FLAT:?OnDrawIconicThumbnailOrLivePreview@CWnd@@UAEXAAVCDC@@VCRect@@VCSize@@HAAH@Z
	DD	FLAT:?EnsureStdObj@CWnd@@UAEJXZ
	DD	FLAT:?get_accParent@CWnd@@UAEJPAPAUIDispatch@@@Z
	DD	FLAT:?get_accChildCount@CWnd@@UAEJPAJ@Z
	DD	FLAT:?get_accChild@CWnd@@UAEJUtagVARIANT@@PAPAUIDispatch@@@Z
	DD	FLAT:?get_accName@CWnd@@UAEJUtagVARIANT@@PAPA_W@Z
	DD	FLAT:?get_accValue@CWnd@@UAEJUtagVARIANT@@PAPA_W@Z
	DD	FLAT:?get_accDescription@CWnd@@UAEJUtagVARIANT@@PAPA_W@Z
	DD	FLAT:?get_accRole@CWnd@@UAEJUtagVARIANT@@PAU2@@Z
	DD	FLAT:?get_accState@CWnd@@UAEJUtagVARIANT@@PAU2@@Z
	DD	FLAT:?get_accHelp@CWnd@@UAEJUtagVARIANT@@PAPA_W@Z
	DD	FLAT:?get_accHelpTopic@CWnd@@UAEJPAPA_WUtagVARIANT@@PAJ@Z
	DD	FLAT:?get_accKeyboardShortcut@CWnd@@UAEJUtagVARIANT@@PAPA_W@Z
	DD	FLAT:?get_accFocus@CWnd@@UAEJPAUtagVARIANT@@@Z
	DD	FLAT:?get_accSelection@CWnd@@UAEJPAUtagVARIANT@@@Z
	DD	FLAT:?get_accDefaultAction@CWnd@@UAEJUtagVARIANT@@PAPA_W@Z
	DD	FLAT:?accSelect@CWnd@@UAEJJUtagVARIANT@@@Z
	DD	FLAT:?accLocation@CWnd@@UAEJPAJ000UtagVARIANT@@@Z
	DD	FLAT:?accNavigate@CWnd@@UAEJJUtagVARIANT@@PAU2@@Z
	DD	FLAT:?accHitTest@CWnd@@UAEJJJPAUtagVARIANT@@@Z
	DD	FLAT:?accDoDefaultAction@CWnd@@UAEJUtagVARIANT@@@Z
	DD	FLAT:?put_accName@CWnd@@UAEJUtagVARIANT@@PA_W@Z
	DD	FLAT:?put_accValue@CWnd@@UAEJUtagVARIANT@@PA_W@Z
	DD	FLAT:?SetProxy@CWnd@@UAEJPAUIAccessibleProxy@@@Z
	DD	FLAT:?CreateAccessibleProxy@CWnd@@UAEJIJPAJ@Z
	DD	FLAT:?OnCommand@CWinixCodeCtrl@@MAEHIJ@Z
	DD	FLAT:?OnNotify@CWnd@@MAEHIJPAJ@Z
	DD	FLAT:?GetSuperWndProcAddr@CWnd@@MAEPAP6GJPAUHWND__@@IIJ@ZXZ
	DD	FLAT:?DoDataExchange@CWnd@@MAEXPAVCDataExchange@@@Z
	DD	FLAT:?BeginModalState@CWnd@@UAEXXZ
	DD	FLAT:?EndModalState@CWnd@@UAEXXZ
	DD	FLAT:?PreTranslateMessage@CWnd@@UAEHPAUtagMSG@@@Z
	DD	FLAT:?OnAmbientProperty@CWnd@@UAEHPAVCOleControlSite@@JPAUtagVARIANT@@@Z
	DD	FLAT:?WindowProc@CWnd@@MAEJIIJ@Z
	DD	FLAT:?OnWndMsg@CWnd@@MAEHIIJPAJ@Z
	DD	FLAT:?DefWindowProcA@CWnd@@MAEJIIJ@Z
	DD	FLAT:?PostNcDestroy@CWnd@@MAEXXZ
	DD	FLAT:?OnChildNotify@CWnd@@MAEHIIJPAJ@Z
	DD	FLAT:?OnTouchInputs@CWnd@@MAEHIPAUtagTOUCHINPUT@@@Z
	DD	FLAT:?OnTouchInput@CWnd@@MAEHVCPoint@@HHPAUtagTOUCHINPUT@@@Z
	DD	FLAT:?GetGestureStatus@CWnd@@MAEKVCPoint@@@Z
	DD	FLAT:?OnGestureZoom@CWnd@@MAEHVCPoint@@J@Z
	DD	FLAT:?OnGesturePan@CWnd@@MAEHVCPoint@@0@Z
	DD	FLAT:?OnGestureRotate@CWnd@@MAEHVCPoint@@N@Z
	DD	FLAT:?OnGestureTwoFingerTap@CWnd@@MAEHVCPoint@@@Z
	DD	FLAT:?OnGesturePressAndTap@CWnd@@MAEHVCPoint@@J@Z
	DD	FLAT:?ResizeDynamicLayout@CWnd@@MAEXXZ
	DD	FLAT:?CheckAutoCenter@CWnd@@UAEHXZ
	DD	FLAT:?IsFrameWnd@CWnd@@UBEHXZ
	DD	FLAT:?CreateControlContainer@CWnd@@MAEHPAPAVCOleControlContainer@@@Z
	DD	FLAT:?CreateControlSite@CWnd@@MAEHPAVCOleControlContainer@@PAPAVCOleControlSite@@IABU_GUID@@@Z
	DD	FLAT:?SetOccDialogInfo@CWnd@@MAEHPAU_AFX_OCC_DIALOG_INFO@@@Z
	DD	FLAT:?GetOccDialogInfo@CWnd@@MAEPAU_AFX_OCC_DIALOG_INFO@@XZ
CONST	ENDS
;	COMDAT ??_R1A@?0A@EA@CEdit@@8
rdata$r	SEGMENT
??_R1A@?0A@EA@CEdit@@8 DD FLAT:??_R0?AVCEdit@@@8	; CEdit::`RTTI Base Class Descriptor at (0,-1,0,64)'
	DD	03H
	DD	00H
	DD	0ffffffffH
	DD	00H
	DD	040H
	DD	FLAT:??_R3CEdit@@8
rdata$r	ENDS
;	COMDAT ??_R2CEdit@@8
rdata$r	SEGMENT
??_R2CEdit@@8 DD FLAT:??_R1A@?0A@EA@CEdit@@8		; CEdit::`RTTI Base Class Array'
	DD	FLAT:??_R1A@?0A@EA@CWnd@@8
	DD	FLAT:??_R1A@?0A@EA@CCmdTarget@@8
	DD	FLAT:??_R1A@?0A@EA@CObject@@8
rdata$r	ENDS
;	COMDAT ??_R3CEdit@@8
rdata$r	SEGMENT
??_R3CEdit@@8 DD 00H					; CEdit::`RTTI Class Hierarchy Descriptor'
	DD	00H
	DD	04H
	DD	FLAT:??_R2CEdit@@8
rdata$r	ENDS
;	COMDAT ??_R0?AVCEdit@@@8
data$rs	SEGMENT
??_R0?AVCEdit@@@8 DD FLAT:??_7type_info@@6B@		; CEdit `RTTI Type Descriptor'
	DD	00H
	DB	'.?AVCEdit@@', 00H
data$rs	ENDS
;	COMDAT ??_R4CEdit@@6B@
rdata$r	SEGMENT
??_R4CEdit@@6B@ DD 00H					; CEdit::`RTTI Complete Object Locator'
	DD	00H
	DD	00H
	DD	FLAT:??_R0?AVCEdit@@@8
	DD	FLAT:??_R3CEdit@@8
rdata$r	ENDS
;	COMDAT ??_R2CCmdTarget@@8
rdata$r	SEGMENT
??_R2CCmdTarget@@8 DD FLAT:??_R1A@?0A@EA@CCmdTarget@@8	; CCmdTarget::`RTTI Base Class Array'
	DD	FLAT:??_R1A@?0A@EA@CObject@@8
rdata$r	ENDS
;	COMDAT ??_R3CCmdTarget@@8
rdata$r	SEGMENT
??_R3CCmdTarget@@8 DD 00H				; CCmdTarget::`RTTI Class Hierarchy Descriptor'
	DD	00H
	DD	02H
	DD	FLAT:??_R2CCmdTarget@@8
rdata$r	ENDS
;	COMDAT ??_R0?AVCCmdTarget@@@8
data$rs	SEGMENT
??_R0?AVCCmdTarget@@@8 DD FLAT:??_7type_info@@6B@	; CCmdTarget `RTTI Type Descriptor'
	DD	00H
	DB	'.?AVCCmdTarget@@', 00H
data$rs	ENDS
;	COMDAT ??_R1A@?0A@EA@CCmdTarget@@8
rdata$r	SEGMENT
??_R1A@?0A@EA@CCmdTarget@@8 DD FLAT:??_R0?AVCCmdTarget@@@8 ; CCmdTarget::`RTTI Base Class Descriptor at (0,-1,0,64)'
	DD	01H
	DD	00H
	DD	0ffffffffH
	DD	00H
	DD	040H
	DD	FLAT:??_R3CCmdTarget@@8
rdata$r	ENDS
;	COMDAT ??_R2CWnd@@8
rdata$r	SEGMENT
??_R2CWnd@@8 DD	FLAT:??_R1A@?0A@EA@CWnd@@8		; CWnd::`RTTI Base Class Array'
	DD	FLAT:??_R1A@?0A@EA@CCmdTarget@@8
	DD	FLAT:??_R1A@?0A@EA@CObject@@8
rdata$r	ENDS
;	COMDAT ??_R3CWnd@@8
rdata$r	SEGMENT
??_R3CWnd@@8 DD	00H					; CWnd::`RTTI Class Hierarchy Descriptor'
	DD	00H
	DD	03H
	DD	FLAT:??_R2CWnd@@8
rdata$r	ENDS
;	COMDAT ??_R0?AVCWnd@@@8
data$rs	SEGMENT
??_R0?AVCWnd@@@8 DD FLAT:??_7type_info@@6B@		; CWnd `RTTI Type Descriptor'
	DD	00H
	DB	'.?AVCWnd@@', 00H
data$rs	ENDS
;	COMDAT ??_R1A@?0A@EA@CWnd@@8
rdata$r	SEGMENT
??_R1A@?0A@EA@CWnd@@8 DD FLAT:??_R0?AVCWnd@@@8		; CWnd::`RTTI Base Class Descriptor at (0,-1,0,64)'
	DD	02H
	DD	00H
	DD	0ffffffffH
	DD	00H
	DD	040H
	DD	FLAT:??_R3CWnd@@8
rdata$r	ENDS
;	COMDAT ??_R1A@?0A@EA@CBitmap@@8
rdata$r	SEGMENT
??_R1A@?0A@EA@CBitmap@@8 DD FLAT:??_R0?AVCBitmap@@@8	; CBitmap::`RTTI Base Class Descriptor at (0,-1,0,64)'
	DD	02H
	DD	00H
	DD	0ffffffffH
	DD	00H
	DD	040H
	DD	FLAT:??_R3CBitmap@@8
rdata$r	ENDS
;	COMDAT ??_R2CBitmap@@8
rdata$r	SEGMENT
??_R2CBitmap@@8 DD FLAT:??_R1A@?0A@EA@CBitmap@@8	; CBitmap::`RTTI Base Class Array'
	DD	FLAT:??_R1A@?0A@EA@CGdiObject@@8
	DD	FLAT:??_R1A@?0A@EA@CObject@@8
rdata$r	ENDS
;	COMDAT ??_R3CBitmap@@8
rdata$r	SEGMENT
??_R3CBitmap@@8 DD 00H					; CBitmap::`RTTI Class Hierarchy Descriptor'
	DD	00H
	DD	03H
	DD	FLAT:??_R2CBitmap@@8
rdata$r	ENDS
;	COMDAT ??_R0?AVCBitmap@@@8
data$rs	SEGMENT
??_R0?AVCBitmap@@@8 DD FLAT:??_7type_info@@6B@		; CBitmap `RTTI Type Descriptor'
	DD	00H
	DB	'.?AVCBitmap@@', 00H
data$rs	ENDS
;	COMDAT ??_R4CBitmap@@6B@
rdata$r	SEGMENT
??_R4CBitmap@@6B@ DD 00H				; CBitmap::`RTTI Complete Object Locator'
	DD	00H
	DD	00H
	DD	FLAT:??_R0?AVCBitmap@@@8
	DD	FLAT:??_R3CBitmap@@8
rdata$r	ENDS
;	COMDAT ??_R1A@?0A@EA@CGdiObject@@8
rdata$r	SEGMENT
??_R1A@?0A@EA@CGdiObject@@8 DD FLAT:??_R0?AVCGdiObject@@@8 ; CGdiObject::`RTTI Base Class Descriptor at (0,-1,0,64)'
	DD	01H
	DD	00H
	DD	0ffffffffH
	DD	00H
	DD	040H
	DD	FLAT:??_R3CGdiObject@@8
rdata$r	ENDS
;	COMDAT ??_R2CGdiObject@@8
rdata$r	SEGMENT
??_R2CGdiObject@@8 DD FLAT:??_R1A@?0A@EA@CGdiObject@@8	; CGdiObject::`RTTI Base Class Array'
	DD	FLAT:??_R1A@?0A@EA@CObject@@8
rdata$r	ENDS
;	COMDAT ??_R3CGdiObject@@8
rdata$r	SEGMENT
??_R3CGdiObject@@8 DD 00H				; CGdiObject::`RTTI Class Hierarchy Descriptor'
	DD	00H
	DD	02H
	DD	FLAT:??_R2CGdiObject@@8
rdata$r	ENDS
;	COMDAT ??_R0?AVCGdiObject@@@8
data$rs	SEGMENT
??_R0?AVCGdiObject@@@8 DD FLAT:??_7type_info@@6B@	; CGdiObject `RTTI Type Descriptor'
	DD	00H
	DB	'.?AVCGdiObject@@', 00H
data$rs	ENDS
;	COMDAT ??_R4CGdiObject@@6B@
rdata$r	SEGMENT
??_R4CGdiObject@@6B@ DD 00H				; CGdiObject::`RTTI Complete Object Locator'
	DD	00H
	DD	00H
	DD	FLAT:??_R0?AVCGdiObject@@@8
	DD	FLAT:??_R3CGdiObject@@8
rdata$r	ENDS
;	COMDAT ??_R1A@?0A@EA@CObject@@8
rdata$r	SEGMENT
??_R1A@?0A@EA@CObject@@8 DD FLAT:??_R0?AVCObject@@@8	; CObject::`RTTI Base Class Descriptor at (0,-1,0,64)'
	DD	00H
	DD	00H
	DD	0ffffffffH
	DD	00H
	DD	040H
	DD	FLAT:??_R3CObject@@8
rdata$r	ENDS
;	COMDAT ??_R2CObject@@8
rdata$r	SEGMENT
??_R2CObject@@8 DD FLAT:??_R1A@?0A@EA@CObject@@8	; CObject::`RTTI Base Class Array'
rdata$r	ENDS
;	COMDAT ??_R3CObject@@8
rdata$r	SEGMENT
??_R3CObject@@8 DD 00H					; CObject::`RTTI Class Hierarchy Descriptor'
	DD	00H
	DD	01H
	DD	FLAT:??_R2CObject@@8
rdata$r	ENDS
;	COMDAT ??_R0?AVCObject@@@8
data$rs	SEGMENT
??_R0?AVCObject@@@8 DD FLAT:??_7type_info@@6B@		; CObject `RTTI Type Descriptor'
	DD	00H
	DB	'.?AVCObject@@', 00H
data$rs	ENDS
;	COMDAT ??_C@_0N@OMEMOKLE@?$CFTs?5?$CI?$CFTs?3?$CFd?$CJ@
CONST	SEGMENT
??_C@_0N@OMEMOKLE@?$CFTs?5?$CI?$CFTs?3?$CFd?$CJ@ DB '%Ts (%Ts:%d)', 00H ; `string'
CONST	ENDS
;	COMDAT ??_C@_0BB@HBOOMJBF@?$CFTs?5?$CI?$CFTs?3?$CFd?$CJ?6?$CFTs@
CONST	SEGMENT
??_C@_0BB@HBOOMJBF@?$CFTs?5?$CI?$CFTs?3?$CFd?$CJ?6?$CFTs@ DB '%Ts (%Ts:%d'
	DB	')', 0aH, '%Ts', 00H				; `string'
CONST	ENDS
;	COMDAT ??_C@_0BP@OIEOKIDM@Exception?5thrown?5in?5destructor@
CONST	SEGMENT
??_C@_0BP@OIEOKIDM@Exception?5thrown?5in?5destructor@ DB 'Exception throw'
	DB	'n in destructor', 00H			; `string'
CONST	ENDS
;	COMDAT ??_C@_0HD@JJCHHHNK@C?3?2Program?5Files?5?$CIx86?$CJ?2Microsof@
CONST	SEGMENT
??_C@_0HD@JJCHHHNK@C?3?2Program?5Files?5?$CIx86?$CJ?2Microsof@ DB 'C:\Pro'
	DB	'gram Files (x86)\Microsoft Visual Studio\2019\Community\VC\To'
	DB	'ols\MSVC\14.29.30133\atlmfc\include\afxwin1.inl', 00H ; `string'
CONST	ENDS
;	COMDAT ??_7CEdit@@6B@
CONST	SEGMENT
??_7CEdit@@6B@ DD FLAT:??_R4CEdit@@6B@			; CEdit::`vftable'
	DD	FLAT:?GetRuntimeClass@CEdit@@UBEPAUCRuntimeClass@@XZ
	DD	FLAT:??_ECEdit@@UAEPAXI@Z
	DD	FLAT:?Serialize@CObject@@UAEXAAVCArchive@@@Z
	DD	FLAT:?AssertValid@CObject@@UBEXXZ
	DD	FLAT:?Dump@CObject@@UBEXAAVCDumpContext@@@Z
	DD	FLAT:?OnCmdMsg@CCmdTarget@@UAEHIHPAXPAUAFX_CMDHANDLERINFO@@@Z
	DD	FLAT:?OnFinalRelease@CWnd@@UAEXXZ
	DD	FLAT:?IsInvokeAllowed@CCmdTarget@@UAEHJ@Z
	DD	FLAT:?GetDispatchIID@CCmdTarget@@UAEHPAU_GUID@@@Z
	DD	FLAT:?GetTypeInfoCount@CCmdTarget@@UAEIXZ
	DD	FLAT:?GetTypeLibCache@CCmdTarget@@UAEPAVCTypeLibCache@@XZ
	DD	FLAT:?GetTypeLib@CCmdTarget@@UAEJKPAPAUITypeLib@@@Z
	DD	FLAT:?GetMessageMap@CWnd@@MBEPBUAFX_MSGMAP@@XZ
	DD	FLAT:?GetCommandMap@CCmdTarget@@MBEPBUAFX_OLECMDMAP@@XZ
	DD	FLAT:?GetDispatchMap@CCmdTarget@@MBEPBUAFX_DISPMAP@@XZ
	DD	FLAT:?GetConnectionMap@CCmdTarget@@MBEPBUAFX_CONNECTIONMAP@@XZ
	DD	FLAT:?GetInterfaceMap@CWnd@@MBEPBUAFX_INTERFACEMAP@@XZ
	DD	FLAT:?GetEventSinkMap@CCmdTarget@@MBEPBUAFX_EVENTSINKMAP@@XZ
	DD	FLAT:?OnCreateAggregates@CCmdTarget@@UAEHXZ
	DD	FLAT:?GetInterfaceHook@CCmdTarget@@UAEPAUIUnknown@@PBX@Z
	DD	FLAT:?GetExtraConnectionPoints@CCmdTarget@@MAEHPAVCPtrArray@@@Z
	DD	FLAT:?GetConnectionHook@CCmdTarget@@MAEPAUIConnectionPoint@@ABU_GUID@@@Z
	DD	FLAT:?PreSubclassWindow@CWnd@@UAEXXZ
	DD	FLAT:?Create@CWnd@@UAEHPBD0KABUtagRECT@@PAV1@IPAUCCreateContext@@@Z
	DD	FLAT:?CreateEx@CWnd@@UAEHKPBD0KABUtagRECT@@PAV1@IPAX@Z
	DD	FLAT:?CreateEx@CWnd@@UAEHKPBD0KHHHHPAUHWND__@@PAUHMENU__@@PAX@Z
	DD	FLAT:?DestroyWindow@CWnd@@UAEHXZ
	DD	FLAT:?PreCreateWindow@CWnd@@UAEHAAUtagCREATESTRUCTA@@@Z
	DD	FLAT:?CalcWindowRect@CWnd@@UAEXPAUtagRECT@@I@Z
	DD	FLAT:?GetMenu@CWnd@@UBEPAVCMenu@@XZ
	DD	FLAT:?SetMenu@CWnd@@UAEHPAVCMenu@@@Z
	DD	FLAT:?OnToolHitTest@CWnd@@UBEHVCPoint@@PAUtagTOOLINFOA@@@Z
	DD	FLAT:?GetScrollBarCtrl@CWnd@@UBEPAVCScrollBar@@H@Z
	DD	FLAT:?WinHelpA@CWnd@@UAEXKI@Z
	DD	FLAT:?HtmlHelpA@CWnd@@UAEXKI@Z
	DD	FLAT:?WinHelpInternal@CWnd@@UAEXKI@Z
	DD	FLAT:?ContinueModal@CWnd@@UAEHXZ
	DD	FLAT:?EndModalLoop@CWnd@@UAEXH@Z
	DD	FLAT:?OnDrawIconicThumbnailOrLivePreview@CWnd@@UAEXAAVCDC@@VCRect@@VCSize@@HAAH@Z
	DD	FLAT:?EnsureStdObj@CWnd@@UAEJXZ
	DD	FLAT:?get_accParent@CWnd@@UAEJPAPAUIDispatch@@@Z
	DD	FLAT:?get_accChildCount@CWnd@@UAEJPAJ@Z
	DD	FLAT:?get_accChild@CWnd@@UAEJUtagVARIANT@@PAPAUIDispatch@@@Z
	DD	FLAT:?get_accName@CWnd@@UAEJUtagVARIANT@@PAPA_W@Z
	DD	FLAT:?get_accValue@CWnd@@UAEJUtagVARIANT@@PAPA_W@Z
	DD	FLAT:?get_accDescription@CWnd@@UAEJUtagVARIANT@@PAPA_W@Z
	DD	FLAT:?get_accRole@CWnd@@UAEJUtagVARIANT@@PAU2@@Z
	DD	FLAT:?get_accState@CWnd@@UAEJUtagVARIANT@@PAU2@@Z
	DD	FLAT:?get_accHelp@CWnd@@UAEJUtagVARIANT@@PAPA_W@Z
	DD	FLAT:?get_accHelpTopic@CWnd@@UAEJPAPA_WUtagVARIANT@@PAJ@Z
	DD	FLAT:?get_accKeyboardShortcut@CWnd@@UAEJUtagVARIANT@@PAPA_W@Z
	DD	FLAT:?get_accFocus@CWnd@@UAEJPAUtagVARIANT@@@Z
	DD	FLAT:?get_accSelection@CWnd@@UAEJPAUtagVARIANT@@@Z
	DD	FLAT:?get_accDefaultAction@CWnd@@UAEJUtagVARIANT@@PAPA_W@Z
	DD	FLAT:?accSelect@CWnd@@UAEJJUtagVARIANT@@@Z
	DD	FLAT:?accLocation@CWnd@@UAEJPAJ000UtagVARIANT@@@Z
	DD	FLAT:?accNavigate@CWnd@@UAEJJUtagVARIANT@@PAU2@@Z
	DD	FLAT:?accHitTest@CWnd@@UAEJJJPAUtagVARIANT@@@Z
	DD	FLAT:?accDoDefaultAction@CWnd@@UAEJUtagVARIANT@@@Z
	DD	FLAT:?put_accName@CWnd@@UAEJUtagVARIANT@@PA_W@Z
	DD	FLAT:?put_accValue@CWnd@@UAEJUtagVARIANT@@PA_W@Z
	DD	FLAT:?SetProxy@CWnd@@UAEJPAUIAccessibleProxy@@@Z
	DD	FLAT:?CreateAccessibleProxy@CWnd@@UAEJIJPAJ@Z
	DD	FLAT:?OnCommand@CWnd@@MAEHIJ@Z
	DD	FLAT:?OnNotify@CWnd@@MAEHIJPAJ@Z
	DD	FLAT:?GetSuperWndProcAddr@CWnd@@MAEPAP6GJPAUHWND__@@IIJ@ZXZ
	DD	FLAT:?DoDataExchange@CWnd@@MAEXPAVCDataExchange@@@Z
	DD	FLAT:?BeginModalState@CWnd@@UAEXXZ
	DD	FLAT:?EndModalState@CWnd@@UAEXXZ
	DD	FLAT:?PreTranslateMessage@CWnd@@UAEHPAUtagMSG@@@Z
	DD	FLAT:?OnAmbientProperty@CWnd@@UAEHPAVCOleControlSite@@JPAUtagVARIANT@@@Z
	DD	FLAT:?WindowProc@CWnd@@MAEJIIJ@Z
	DD	FLAT:?OnWndMsg@CWnd@@MAEHIIJPAJ@Z
	DD	FLAT:?DefWindowProcA@CWnd@@MAEJIIJ@Z
	DD	FLAT:?PostNcDestroy@CWnd@@MAEXXZ
	DD	FLAT:?OnChildNotify@CWnd@@MAEHIIJPAJ@Z
	DD	FLAT:?OnTouchInputs@CWnd@@MAEHIPAUtagTOUCHINPUT@@@Z
	DD	FLAT:?OnTouchInput@CWnd@@MAEHVCPoint@@HHPAUtagTOUCHINPUT@@@Z
	DD	FLAT:?GetGestureStatus@CWnd@@MAEKVCPoint@@@Z
	DD	FLAT:?OnGestureZoom@CWnd@@MAEHVCPoint@@J@Z
	DD	FLAT:?OnGesturePan@CWnd@@MAEHVCPoint@@0@Z
	DD	FLAT:?OnGestureRotate@CWnd@@MAEHVCPoint@@N@Z
	DD	FLAT:?OnGestureTwoFingerTap@CWnd@@MAEHVCPoint@@@Z
	DD	FLAT:?OnGesturePressAndTap@CWnd@@MAEHVCPoint@@J@Z
	DD	FLAT:?ResizeDynamicLayout@CWnd@@MAEXXZ
	DD	FLAT:?CheckAutoCenter@CWnd@@UAEHXZ
	DD	FLAT:?IsFrameWnd@CWnd@@UBEHXZ
	DD	FLAT:?CreateControlContainer@CWnd@@MAEHPAPAVCOleControlContainer@@@Z
	DD	FLAT:?CreateControlSite@CWnd@@MAEHPAVCOleControlContainer@@PAPAVCOleControlSite@@IABU_GUID@@@Z
	DD	FLAT:?SetOccDialogInfo@CWnd@@MAEHPAU_AFX_OCC_DIALOG_INFO@@@Z
	DD	FLAT:?GetOccDialogInfo@CWnd@@MAEPAU_AFX_OCC_DIALOG_INFO@@XZ
CONST	ENDS
;	COMDAT ??_7CBitmap@@6B@
CONST	SEGMENT
??_7CBitmap@@6B@ DD FLAT:??_R4CBitmap@@6B@		; CBitmap::`vftable'
	DD	FLAT:?GetRuntimeClass@CBitmap@@UBEPAUCRuntimeClass@@XZ
	DD	FLAT:??_ECBitmap@@UAEPAXI@Z
	DD	FLAT:?Serialize@CObject@@UAEXAAVCArchive@@@Z
	DD	FLAT:?AssertValid@CObject@@UBEXXZ
	DD	FLAT:?Dump@CObject@@UBEXAAVCDumpContext@@@Z
CONST	ENDS
;	COMDAT ??_7CGdiObject@@6B@
CONST	SEGMENT
??_7CGdiObject@@6B@ DD FLAT:??_R4CGdiObject@@6B@	; CGdiObject::`vftable'
	DD	FLAT:?GetRuntimeClass@CGdiObject@@UBEPAUCRuntimeClass@@XZ
	DD	FLAT:??_ECGdiObject@@UAEPAXI@Z
	DD	FLAT:?Serialize@CObject@@UAEXAAVCArchive@@@Z
	DD	FLAT:?AssertValid@CObject@@UBEXXZ
	DD	FLAT:?Dump@CObject@@UBEXAAVCDumpContext@@@Z
CONST	ENDS
;	COMDAT ??_C@_00CNPNBAHC@@
CONST	SEGMENT
??_C@_00CNPNBAHC@@ DB 00H				; `string'
CONST	ENDS
;	COMDAT ?_AtlWinModule@ATL@@3VCAtlWinModule@1@A
_DATA	SEGMENT
?_AtlWinModule@ATL@@3VCAtlWinModule@1@A DD 02cH		; ATL::_AtlWinModule
	DB	24 DUP(00H)
	DD	00H
_DATA	ENDS
;	COMDAT ??_R0PAVCException@@@8
data$r	SEGMENT
??_R0PAVCException@@@8 DD FLAT:??_7type_info@@6B@	; CException * `RTTI Type Descriptor'
	DD	00H
	DB	'.PAVCException@@', 00H
data$r	ENDS
;	COMDAT xdata$x
xdata$x	SEGMENT
__ehfuncinfo$??1?$CComQIPtr@UIDispatch@@$1?_GUID_00020400_0000_0000_c000_000000000046@@3U__s_GUID@@B@ATL@@QAE@XZ DD 019930522H
	DD	00H
	DD	00H
	DD	2 DUP(00H)
	DD	2 DUP(00H)
	DD	00H
	DD	05H
xdata$x	ENDS
;	COMDAT xdata$x
xdata$x	SEGMENT
__unwindtable$?CCodeCtrl_SetUnit@@YAIPAX@Z DD 0ffffffffH
	DD	FLAT:__unwindfunclet$?CCodeCtrl_SetUnit@@YAIPAX@Z$0
	DD	00H
	DD	FLAT:__unwindfunclet$?CCodeCtrl_SetUnit@@YAIPAX@Z$2
__ehfuncinfo$?CCodeCtrl_SetUnit@@YAIPAX@Z DD 019930522H
	DD	02H
	DD	FLAT:__unwindtable$?CCodeCtrl_SetUnit@@YAIPAX@Z
	DD	2 DUP(00H)
	DD	2 DUP(00H)
	DD	00H
	DD	01H
xdata$x	ENDS
;	COMDAT xdata$x
xdata$x	SEGMENT
__ehfuncinfo$??_Estringdispid@CComTypeInfoHolder@ATL@@QAEPAXI@Z DD 019930522H
	DD	00H
	DD	00H
	DD	2 DUP(00H)
	DD	2 DUP(00H)
	DD	00H
	DD	05H
xdata$x	ENDS
;	COMDAT xdata$x
xdata$x	SEGMENT
__unwindtable$??_GCCodeCtrl@@UAEPAXI@Z DD 0ffffffffH
	DD	FLAT:___std_terminate
__ehfuncinfo$??_GCCodeCtrl@@UAEPAXI@Z DD 019930522H
	DD	01H
	DD	FLAT:__unwindtable$??_GCCodeCtrl@@UAEPAXI@Z
	DD	2 DUP(00H)
	DD	2 DUP(00H)
	DD	00H
	DD	05H
xdata$x	ENDS
;	COMDAT xdata$x
xdata$x	SEGMENT
__unwindtable$?SetFixUnit@CCodeCtrl@@QAEXV?$CStringT@DV?$StrTraitMFC_DLL@DV?$ChTraitsCRT@D@ATL@@@@@ATL@@@Z DD 0ffffffffH
	DD	FLAT:__unwindfunclet$?SetFixUnit@CCodeCtrl@@QAEXV?$CStringT@DV?$StrTraitMFC_DLL@DV?$ChTraitsCRT@D@ATL@@@@@ATL@@@Z$0
__ehfuncinfo$?SetFixUnit@CCodeCtrl@@QAEXV?$CStringT@DV?$StrTraitMFC_DLL@DV?$ChTraitsCRT@D@ATL@@@@@ATL@@@Z DD 019930522H
	DD	01H
	DD	FLAT:__unwindtable$?SetFixUnit@CCodeCtrl@@QAEXV?$CStringT@DV?$StrTraitMFC_DLL@DV?$ChTraitsCRT@D@ATL@@@@@ATL@@@Z
	DD	2 DUP(00H)
	DD	2 DUP(00H)
	DD	00H
	DD	01H
xdata$x	ENDS
;	COMDAT xdata$x
xdata$x	SEGMENT
__ehfuncinfo$?_DoCreateCodeDlgBtn@CCodeCtrl@@IAEHXZ DD 019930522H
	DD	05H
	DD	FLAT:__unwindtable$?_DoCreateCodeDlgBtn@CCodeCtrl@@IAEHXZ
	DD	2 DUP(00H)
	DD	2 DUP(00H)
	DD	00H
	DD	01H
__unwindtable$?_DoCreateCodeDlgBtn@CCodeCtrl@@IAEHXZ DD 0ffffffffH
	DD	FLAT:__unwindfunclet$?_DoCreateCodeDlgBtn@CCodeCtrl@@IAEHXZ$0
	DD	00H
	DD	FLAT:__unwindfunclet$?_DoCreateCodeDlgBtn@CCodeCtrl@@IAEHXZ$1
	DD	01H
	DD	FLAT:__unwindfunclet$?_DoCreateCodeDlgBtn@CCodeCtrl@@IAEHXZ$8
	DD	01H
	DD	FLAT:__unwindfunclet$?_DoCreateCodeDlgBtn@CCodeCtrl@@IAEHXZ$9
	DD	01H
	DD	FLAT:__unwindfunclet$?_DoCreateCodeDlgBtn@CCodeCtrl@@IAEHXZ$10
xdata$x	ENDS
;	COMDAT xdata$x
xdata$x	SEGMENT
__ehfuncinfo$??1CCodeCtrl@@UAE@XZ DD 019930522H
	DD	00H
	DD	00H
	DD	2 DUP(00H)
	DD	2 DUP(00H)
	DD	00H
	DD	05H
xdata$x	ENDS
;	COMDAT xdata$x
xdata$x	SEGMENT
__unwindtable$?SetUnitEx@CCodeCtrl@@QAE_NV?$CStringT@DV?$StrTraitMFC_DLL@DV?$ChTraitsCRT@D@ATL@@@@@ATL@@@Z DD 0ffffffffH
	DD	FLAT:__unwindfunclet$?SetUnitEx@CCodeCtrl@@QAE_NV?$CStringT@DV?$StrTraitMFC_DLL@DV?$ChTraitsCRT@D@ATL@@@@@ATL@@@Z$0
__ehfuncinfo$?SetUnitEx@CCodeCtrl@@QAE_NV?$CStringT@DV?$StrTraitMFC_DLL@DV?$ChTraitsCRT@D@ATL@@@@@ATL@@@Z DD 019930522H
	DD	01H
	DD	FLAT:__unwindtable$?SetUnitEx@CCodeCtrl@@QAE_NV?$CStringT@DV?$StrTraitMFC_DLL@DV?$ChTraitsCRT@D@ATL@@@@@ATL@@@Z
	DD	2 DUP(00H)
	DD	2 DUP(00H)
	DD	00H
	DD	01H
xdata$x	ENDS
;	COMDAT xdata$x
xdata$x	SEGMENT
__unwindtable$?SetCode@CCodeCtrl@@UAE_NV?$CStringT@DV?$StrTraitMFC_DLL@DV?$ChTraitsCRT@D@ATL@@@@@ATL@@_N@Z DD 0ffffffffH
	DD	FLAT:__unwindfunclet$?SetCode@CCodeCtrl@@UAE_NV?$CStringT@DV?$StrTraitMFC_DLL@DV?$ChTraitsCRT@D@ATL@@@@@ATL@@_N@Z$0
	DD	00H
	DD	FLAT:__unwindfunclet$?SetCode@CCodeCtrl@@UAE_NV?$CStringT@DV?$StrTraitMFC_DLL@DV?$ChTraitsCRT@D@ATL@@@@@ATL@@_N@Z$3
__ehfuncinfo$?SetCode@CCodeCtrl@@UAE_NV?$CStringT@DV?$StrTraitMFC_DLL@DV?$ChTraitsCRT@D@ATL@@@@@ATL@@_N@Z DD 019930522H
	DD	02H
	DD	FLAT:__unwindtable$?SetCode@CCodeCtrl@@UAE_NV?$CStringT@DV?$StrTraitMFC_DLL@DV?$ChTraitsCRT@D@ATL@@@@@ATL@@_N@Z
	DD	2 DUP(00H)
	DD	2 DUP(00H)
	DD	00H
	DD	01H
xdata$x	ENDS
;	COMDAT xdata$x
xdata$x	SEGMENT
__unwindtable$?SetHistory@CCodeCtrl@@UAE_NPBD0@Z DD 0ffffffffH
	DD	FLAT:__unwindfunclet$?SetHistory@CCodeCtrl@@UAE_NPBD0@Z$0
__ehfuncinfo$?SetHistory@CCodeCtrl@@UAE_NPBD0@Z DD 019930522H
	DD	01H
	DD	FLAT:__unwindtable$?SetHistory@CCodeCtrl@@UAE_NPBD0@Z
	DD	2 DUP(00H)
	DD	2 DUP(00H)
	DD	00H
	DD	01H
xdata$x	ENDS
;	COMDAT xdata$x
xdata$x	SEGMENT
__unwindtable$?SetUnit@CCodeCtrl@@UAE_NV?$CStringT@DV?$StrTraitMFC_DLL@DV?$ChTraitsCRT@D@ATL@@@@@ATL@@@Z DD 0ffffffffH
	DD	FLAT:__unwindfunclet$?SetUnit@CCodeCtrl@@UAE_NV?$CStringT@DV?$StrTraitMFC_DLL@DV?$ChTraitsCRT@D@ATL@@@@@ATL@@@Z$0
__ehfuncinfo$?SetUnit@CCodeCtrl@@UAE_NV?$CStringT@DV?$StrTraitMFC_DLL@DV?$ChTraitsCRT@D@ATL@@@@@ATL@@@Z DD 019930522H
	DD	01H
	DD	FLAT:__unwindtable$?SetUnit@CCodeCtrl@@UAE_NV?$CStringT@DV?$StrTraitMFC_DLL@DV?$ChTraitsCRT@D@ATL@@@@@ATL@@@Z
	DD	2 DUP(00H)
	DD	2 DUP(00H)
	DD	00H
	DD	01H
xdata$x	ENDS
;	COMDAT xdata$x
xdata$x	SEGMENT
__unwindtable$?SetUnit@CCodeCtrl@@UAE_NH@Z DD 0ffffffffH
	DD	FLAT:__unwindfunclet$?SetUnit@CCodeCtrl@@UAE_NH@Z$0
	DD	00H
	DD	FLAT:__unwindfunclet$?SetUnit@CCodeCtrl@@UAE_NH@Z$1
__ehfuncinfo$?SetUnit@CCodeCtrl@@UAE_NH@Z DD 019930522H
	DD	02H
	DD	FLAT:__unwindtable$?SetUnit@CCodeCtrl@@UAE_NH@Z
	DD	2 DUP(00H)
	DD	2 DUP(00H)
	DD	00H
	DD	01H
xdata$x	ENDS
;	COMDAT xdata$x
xdata$x	SEGMENT
__ehfuncinfo$??0CCodeCtrl@@QAE@PAVCWnd@@@Z DD 019930522H
	DD	06H
	DD	FLAT:__unwindtable$??0CCodeCtrl@@QAE@PAVCWnd@@@Z
	DD	2 DUP(00H)
	DD	2 DUP(00H)
	DD	00H
	DD	01H
__unwindtable$??0CCodeCtrl@@QAE@PAVCWnd@@@Z DD 0ffffffffH
	DD	FLAT:__unwindfunclet$??0CCodeCtrl@@QAE@PAVCWnd@@@Z$0
	DD	00H
	DD	FLAT:__unwindfunclet$??0CCodeCtrl@@QAE@PAVCWnd@@@Z$1
	DD	01H
	DD	FLAT:__unwindfunclet$??0CCodeCtrl@@QAE@PAVCWnd@@@Z$2
	DD	02H
	DD	FLAT:__unwindfunclet$??0CCodeCtrl@@QAE@PAVCWnd@@@Z$3
	DD	03H
	DD	FLAT:__unwindfunclet$??0CCodeCtrl@@QAE@PAVCWnd@@@Z$4
	DD	04H
	DD	FLAT:__unwindfunclet$??0CCodeCtrl@@QAE@PAVCWnd@@@Z$5
xdata$x	ENDS
;	COMDAT xdata$x
xdata$x	SEGMENT
__unwindtable$?OnCreate@CWinixCodeCtrl@@IAEHPAUtagCREATESTRUCTA@@@Z DD 0ffffffffH
	DD	FLAT:__unwindfunclet$?OnCreate@CWinixCodeCtrl@@IAEHPAUtagCREATESTRUCTA@@@Z$0
__ehfuncinfo$?OnCreate@CWinixCodeCtrl@@IAEHPAUtagCREATESTRUCTA@@@Z DD 019930522H
	DD	01H
	DD	FLAT:__unwindtable$?OnCreate@CWinixCodeCtrl@@IAEHPAUtagCREATESTRUCTA@@@Z
	DD	2 DUP(00H)
	DD	2 DUP(00H)
	DD	00H
	DD	01H
xdata$x	ENDS
;	COMDAT xdata$x
xdata$x	SEGMENT
__ehfuncinfo$??1CWinixCodeCtrl@@UAE@XZ DD 019930522H
	DD	00H
	DD	00H
	DD	2 DUP(00H)
	DD	2 DUP(00H)
	DD	00H
	DD	05H
xdata$x	ENDS
;	COMDAT xdata$x
xdata$x	SEGMENT
__unwindtable$?GetCtrlProperty@CWinixCodeCtrl@@QAE?AV?$CStringT@DV?$StrTraitMFC_DLL@DV?$ChTraitsCRT@D@ATL@@@@@ATL@@PBD@Z DD 0ffffffffH
	DD	FLAT:__unwindfunclet$?GetCtrlProperty@CWinixCodeCtrl@@QAE?AV?$CStringT@DV?$StrTraitMFC_DLL@DV?$ChTraitsCRT@D@ATL@@@@@ATL@@PBD@Z$1
	DD	00H
	DD	FLAT:__unwindfunclet$?GetCtrlProperty@CWinixCodeCtrl@@QAE?AV?$CStringT@DV?$StrTraitMFC_DLL@DV?$ChTraitsCRT@D@ATL@@@@@ATL@@PBD@Z$2
	DD	01H
	DD	FLAT:__unwindfunclet$?GetCtrlProperty@CWinixCodeCtrl@@QAE?AV?$CStringT@DV?$StrTraitMFC_DLL@DV?$ChTraitsCRT@D@ATL@@@@@ATL@@PBD@Z$4
__ehfuncinfo$?GetCtrlProperty@CWinixCodeCtrl@@QAE?AV?$CStringT@DV?$StrTraitMFC_DLL@DV?$ChTraitsCRT@D@ATL@@@@@ATL@@PBD@Z DD 019930522H
	DD	03H
	DD	FLAT:__unwindtable$?GetCtrlProperty@CWinixCodeCtrl@@QAE?AV?$CStringT@DV?$StrTraitMFC_DLL@DV?$ChTraitsCRT@D@ATL@@@@@ATL@@PBD@Z
	DD	2 DUP(00H)
	DD	2 DUP(00H)
	DD	00H
	DD	01H
xdata$x	ENDS
;	COMDAT xdata$x
xdata$x	SEGMENT
__unwindtable$?SetUnit@CWinixCodeCtrl@@QAE_NH@Z DD 0ffffffffH
	DD	FLAT:__unwindfunclet$?SetUnit@CWinixCodeCtrl@@QAE_NH@Z$0
__ehfuncinfo$?SetUnit@CWinixCodeCtrl@@QAE_NH@Z DD 019930522H
	DD	01H
	DD	FLAT:__unwindtable$?SetUnit@CWinixCodeCtrl@@QAE_NH@Z
	DD	2 DUP(00H)
	DD	2 DUP(00H)
	DD	00H
	DD	01H
xdata$x	ENDS
;	COMDAT xdata$x
xdata$x	SEGMENT
__unwindtable$?SetCtrlProperty@CWinixCodeCtrl@@QAEXV_bstr_t@@AAV_variant_t@@@Z DD 0ffffffffH
	DD	FLAT:__unwindfunclet$?SetCtrlProperty@CWinixCodeCtrl@@QAEXV_bstr_t@@AAV_variant_t@@@Z$0
__ehfuncinfo$?SetCtrlProperty@CWinixCodeCtrl@@QAEXV_bstr_t@@AAV_variant_t@@@Z DD 019930522H
	DD	01H
	DD	FLAT:__unwindtable$?SetCtrlProperty@CWinixCodeCtrl@@QAEXV_bstr_t@@AAV_variant_t@@@Z
	DD	2 DUP(00H)
	DD	2 DUP(00H)
	DD	00H
	DD	01H
xdata$x	ENDS
;	COMDAT xdata$x
xdata$x	SEGMENT
__unwindtable$?SetCode@CWinixCodeCtrl@@QAE_NV?$CStringT@DV?$StrTraitMFC_DLL@DV?$ChTraitsCRT@D@ATL@@@@@ATL@@_N1@Z DD 0ffffffffH
	DD	FLAT:__unwindfunclet$?SetCode@CWinixCodeCtrl@@QAE_NV?$CStringT@DV?$StrTraitMFC_DLL@DV?$ChTraitsCRT@D@ATL@@@@@ATL@@_N1@Z$0
__ehfuncinfo$?SetCode@CWinixCodeCtrl@@QAE_NV?$CStringT@DV?$StrTraitMFC_DLL@DV?$ChTraitsCRT@D@ATL@@@@@ATL@@_N1@Z DD 019930522H
	DD	01H
	DD	FLAT:__unwindtable$?SetCode@CWinixCodeCtrl@@QAE_NV?$CStringT@DV?$StrTraitMFC_DLL@DV?$ChTraitsCRT@D@ATL@@@@@ATL@@_N1@Z
	DD	2 DUP(00H)
	DD	2 DUP(00H)
	DD	00H
	DD	01H
xdata$x	ENDS
;	COMDAT xdata$x
xdata$x	SEGMENT
__unwindtable$?GetName@CWinixCodeCtrl@@QAE?AV?$CStringT@DV?$StrTraitMFC_DLL@DV?$ChTraitsCRT@D@ATL@@@@@ATL@@XZ DD 0ffffffffH
	DD	FLAT:__unwindfunclet$?GetName@CWinixCodeCtrl@@QAE?AV?$CStringT@DV?$StrTraitMFC_DLL@DV?$ChTraitsCRT@D@ATL@@@@@ATL@@XZ$1
	DD	00H
	DD	FLAT:__unwindfunclet$?GetName@CWinixCodeCtrl@@QAE?AV?$CStringT@DV?$StrTraitMFC_DLL@DV?$ChTraitsCRT@D@ATL@@@@@ATL@@XZ$2
	DD	01H
	DD	FLAT:__unwindfunclet$?GetName@CWinixCodeCtrl@@QAE?AV?$CStringT@DV?$StrTraitMFC_DLL@DV?$ChTraitsCRT@D@ATL@@@@@ATL@@XZ$3
__ehfuncinfo$?GetName@CWinixCodeCtrl@@QAE?AV?$CStringT@DV?$StrTraitMFC_DLL@DV?$ChTraitsCRT@D@ATL@@@@@ATL@@XZ DD 019930522H
	DD	03H
	DD	FLAT:__unwindtable$?GetName@CWinixCodeCtrl@@QAE?AV?$CStringT@DV?$StrTraitMFC_DLL@DV?$ChTraitsCRT@D@ATL@@@@@ATL@@XZ
	DD	2 DUP(00H)
	DD	2 DUP(00H)
	DD	00H
	DD	01H
xdata$x	ENDS
;	COMDAT xdata$x
xdata$x	SEGMENT
__unwindtable$??4_bstr_t@@QAEAAV0@PB_W@Z DD 0ffffffffH
	DD	FLAT:__unwindfunclet$??4_bstr_t@@QAEAAV0@PB_W@Z$0
__ehfuncinfo$??4_bstr_t@@QAEAAV0@PB_W@Z DD 019930522H
	DD	01H
	DD	FLAT:__unwindtable$??4_bstr_t@@QAEAAV0@PB_W@Z
	DD	2 DUP(00H)
	DD	2 DUP(00H)
	DD	00H
	DD	01H
xdata$x	ENDS
;	COMDAT xdata$x
xdata$x	SEGMENT
__unwindtable$??0_bstr_t@@QAE@ABV_variant_t@@@Z DD 0ffffffffH
	DD	FLAT:__unwindfunclet$??0_bstr_t@@QAE@ABV_variant_t@@@Z$1
	DD	0ffffffffH
	DD	FLAT:__unwindfunclet$??0_bstr_t@@QAE@ABV_variant_t@@@Z$0
	DD	01H
	DD	FLAT:__unwindfunclet$??0_bstr_t@@QAE@ABV_variant_t@@@Z$2
__ehfuncinfo$??0_bstr_t@@QAE@ABV_variant_t@@@Z DD 019930522H
	DD	03H
	DD	FLAT:__unwindtable$??0_bstr_t@@QAE@ABV_variant_t@@@Z
	DD	2 DUP(00H)
	DD	2 DUP(00H)
	DD	00H
	DD	01H
xdata$x	ENDS
;	COMDAT xdata$x
xdata$x	SEGMENT
__unwindtable$??0_bstr_t@@QAE@PBD@Z DD 0ffffffffH
	DD	FLAT:__unwindfunclet$??0_bstr_t@@QAE@PBD@Z$0
__ehfuncinfo$??0_bstr_t@@QAE@PBD@Z DD 019930522H
	DD	01H
	DD	FLAT:__unwindtable$??0_bstr_t@@QAE@PBD@Z
	DD	2 DUP(00H)
	DD	2 DUP(00H)
	DD	00H
	DD	01H
xdata$x	ENDS
;	COMDAT xdata$x
xdata$x	SEGMENT
__catchsym$??1CGdiObject@@UAE@XZ$3 DD 00H
	DD	FLAT:??_R0PAVCException@@@8
	DD	0fffffde4H
	DD	FLAT:__catch$??1CGdiObject@@UAE@XZ$0
__tryblocktable$??1CGdiObject@@UAE@XZ DD 00H
	DD	00H
	DD	02H
	DD	01H
	DD	FLAT:__catchsym$??1CGdiObject@@UAE@XZ$3
__unwindtable$??1CGdiObject@@UAE@XZ DD 0ffffffffH
	DD	00H
	DD	0ffffffffH
	DD	00H
	DD	01H
	DD	FLAT:__unwindfunclet$??1CGdiObject@@UAE@XZ$2
__ehfuncinfo$??1CGdiObject@@UAE@XZ DD 019930522H
	DD	03H
	DD	FLAT:__unwindtable$??1CGdiObject@@UAE@XZ
	DD	01H
	DD	FLAT:__tryblocktable$??1CGdiObject@@UAE@XZ
	DD	2 DUP(00H)
	DD	00H
	DD	05H
xdata$x	ENDS
;	COMDAT xdata$x
xdata$x	SEGMENT
__unwindtable$??HATL@@YA?AV?$CStringT@DV?$StrTraitMFC_DLL@DV?$ChTraitsCRT@D@ATL@@@@@0@ABV10@PBD@Z DD 0ffffffffH
	DD	FLAT:__unwindfunclet$??HATL@@YA?AV?$CStringT@DV?$StrTraitMFC_DLL@DV?$ChTraitsCRT@D@ATL@@@@@0@ABV10@PBD@Z$0
__ehfuncinfo$??HATL@@YA?AV?$CStringT@DV?$StrTraitMFC_DLL@DV?$ChTraitsCRT@D@ATL@@@@@0@ABV10@PBD@Z DD 019930522H
	DD	01H
	DD	FLAT:__unwindtable$??HATL@@YA?AV?$CStringT@DV?$StrTraitMFC_DLL@DV?$ChTraitsCRT@D@ATL@@@@@0@ABV10@PBD@Z
	DD	2 DUP(00H)
	DD	2 DUP(00H)
	DD	00H
	DD	01H
xdata$x	ENDS
;	COMDAT xdata$x
xdata$x	SEGMENT
__ehfuncinfo$??1?$CComPtr@UIDispatch@@@ATL@@QAE@XZ DD 019930522H
	DD	00H
	DD	00H
	DD	2 DUP(00H)
	DD	2 DUP(00H)
	DD	00H
	DD	05H
xdata$x	ENDS
CRT$XCU	SEGMENT
?RMSG_DRUSER$initializer$@@3P6AXXZA DD FLAT:??__ERMSG_DRUSER@@YAXXZ ; RMSG_DRUSER$initializer$
CRT$XCU	ENDS
; Function compile flags: /Ogtp
; File C:\Program Files (x86)\Microsoft Visual Studio\2019\Community\VC\Tools\MSVC\14.29.30133\atlmfc\include\atlcomcli.h
;	COMDAT ??1?$CComQIPtr@UIDispatch@@$1?_GUID_00020400_0000_0000_c000_000000000046@@3U__s_GUID@@B@ATL@@QAE@XZ
_TEXT	SEGMENT
__$EHRec$ = -12						; size = 12
??1?$CComQIPtr@UIDispatch@@$1?_GUID_00020400_0000_0000_c000_000000000046@@3U__s_GUID@@B@ATL@@QAE@XZ PROC ; ATL::CComQIPtr<IDispatch,&_GUID_00020400_0000_0000_c000_000000000046>::~CComQIPtr<IDispatch,&_GUID_00020400_0000_0000_c000_000000000046>, COMDAT
; _this$ = ecx
  00000	55		 push	 ebp
  00001	8b ec		 mov	 ebp, esp
  00003	6a ff		 push	 -1
  00005	68 00 00 00 00	 push	 __ehhandler$??1?$CComQIPtr@UIDispatch@@$1?_GUID_00020400_0000_0000_c000_000000000046@@3U__s_GUID@@B@ATL@@QAE@XZ
  0000a	64 a1 00 00 00
	00		 mov	 eax, DWORD PTR fs:0
  00010	50		 push	 eax
  00011	a1 00 00 00 00	 mov	 eax, DWORD PTR ___security_cookie
  00016	33 c5		 xor	 eax, ebp
  00018	50		 push	 eax
  00019	8d 45 f4	 lea	 eax, DWORD PTR __$EHRec$[ebp]
  0001c	64 a3 00 00 00
	00		 mov	 DWORD PTR fs:0, eax

; 183  :         if (p)

  00022	8b 09		 mov	 ecx, DWORD PTR [ecx]
  00024	85 c9		 test	 ecx, ecx
  00026	74 06		 je	 SHORT $LN7@CComQIPtr

; 184  :             p->Release();

  00028	8b 01		 mov	 eax, DWORD PTR [ecx]
  0002a	51		 push	 ecx
  0002b	ff 50 08	 call	 DWORD PTR [eax+8]
$LN7@CComQIPtr:
  0002e	8b 4d f4	 mov	 ecx, DWORD PTR __$EHRec$[ebp]
  00031	64 89 0d 00 00
	00 00		 mov	 DWORD PTR fs:0, ecx
  00038	59		 pop	 ecx
  00039	8b e5		 mov	 esp, ebp
  0003b	5d		 pop	 ebp
  0003c	c3		 ret	 0
  0003d	cc		 int	 3
  0003e	cc		 int	 3
  0003f	cc		 int	 3
  00040	cc		 int	 3
  00041	cc		 int	 3
_TEXT	ENDS
;	COMDAT text$x
text$x	SEGMENT
__ehhandler$??1?$CComQIPtr@UIDispatch@@$1?_GUID_00020400_0000_0000_c000_000000000046@@3U__s_GUID@@B@ATL@@QAE@XZ:
  00000	90		 npad	 1
  00001	90		 npad	 1
  00002	8b 54 24 08	 mov	 edx, DWORD PTR [esp+8]
  00006	8d 42 0c	 lea	 eax, DWORD PTR [edx+12]
  00009	8b 4a fc	 mov	 ecx, DWORD PTR [edx-4]
  0000c	33 c8		 xor	 ecx, eax
  0000e	e8 00 00 00 00	 call	 @__security_check_cookie@4
  00013	b8 00 00 00 00	 mov	 eax, OFFSET __ehfuncinfo$??1?$CComQIPtr@UIDispatch@@$1?_GUID_00020400_0000_0000_c000_000000000046@@3U__s_GUID@@B@ATL@@QAE@XZ
  00018	e9 00 00 00 00	 jmp	 ___CxxFrameHandler3
text$x	ENDS
??1?$CComQIPtr@UIDispatch@@$1?_GUID_00020400_0000_0000_c000_000000000046@@3U__s_GUID@@B@ATL@@QAE@XZ ENDP ; ATL::CComQIPtr<IDispatch,&_GUID_00020400_0000_0000_c000_000000000046>::~CComQIPtr<IDispatch,&_GUID_00020400_0000_0000_c000_000000000046>
; Function compile flags: /Ogtp
; File D:\git\src\IBK\IBK_DRFN\ProjSrc\SrcSite\include\CodeCtrl.cpp
;	COMDAT ?CCodeCtrl_SetUnit@@YAIPAX@Z
_TEXT	SEGMENT
_strUnit$ = -16						; size = 4
__$EHRec$ = -12						; size = 12
$T2 = 8							; size = 4
_lpVoid$ = 8						; size = 4
?CCodeCtrl_SetUnit@@YAIPAX@Z PROC			; CCodeCtrl_SetUnit, COMDAT

; 223  : {

  00000	55		 push	 ebp
  00001	8b ec		 mov	 ebp, esp
  00003	6a ff		 push	 -1
  00005	68 00 00 00 00	 push	 __ehhandler$?CCodeCtrl_SetUnit@@YAIPAX@Z
  0000a	64 a1 00 00 00
	00		 mov	 eax, DWORD PTR fs:0
  00010	50		 push	 eax
  00011	51		 push	 ecx
  00012	53		 push	 ebx
  00013	56		 push	 esi
  00014	57		 push	 edi
  00015	a1 00 00 00 00	 mov	 eax, DWORD PTR ___security_cookie
  0001a	33 c5		 xor	 eax, ebp
  0001c	50		 push	 eax
  0001d	8d 45 f4	 lea	 eax, DWORD PTR __$EHRec$[ebp]
  00020	64 a3 00 00 00
	00		 mov	 DWORD PTR fs:0, eax

; 224  : 	ST_CodeSetUnit* pSTUnit = (ST_CodeSetUnit*)lpVoid;
; 225  : 	
; 226  : 	CString strUnit(pSTUnit->szUnit);

  00026	8b 5d 08	 mov	 ebx, DWORD PTR _lpVoid$[ebp]
  00029	8d 4d f0	 lea	 ecx, DWORD PTR _strUnit$[ebp]
  0002c	8d 43 04	 lea	 eax, DWORD PTR [ebx+4]
  0002f	50		 push	 eax
  00030	ff 15 00 00 00
	00		 call	 DWORD PTR __imp_??0?$CStringT@DV?$StrTraitMFC_DLL@DV?$ChTraitsCRT@D@ATL@@@@@ATL@@QAE@ABV01@@Z

; 227  : 	
; 228  : 	CCodeCtrl* pCtrl = (CCodeCtrl*)pSTUnit->pClassWnd;

  00036	8b 3b		 mov	 edi, DWORD PTR [ebx]

; 229  : 	pCtrl->SetUnitEx(strUnit);

  00038	8d 45 f0	 lea	 eax, DWORD PTR _strUnit$[ebp]
  0003b	50		 push	 eax
  0003c	8d 4d 08	 lea	 ecx, DWORD PTR $T2[ebp]
  0003f	c7 45 fc 00 00
	00 00		 mov	 DWORD PTR __$EHRec$[ebp+8], 0
  00046	ff 15 00 00 00
	00		 call	 DWORD PTR __imp_??0?$CStringT@DV?$StrTraitMFC_DLL@DV?$ChTraitsCRT@D@ATL@@@@@ATL@@QAE@ABV01@@Z

; 237  : 	if (strUnit.Compare("FO") == 0)

  0004c	68 00 00 00 00	 push	 OFFSET ??_C@_06ILKOJIAC@FO?A?v?G?$KF@
  00051	8d 4d 08	 lea	 ecx, DWORD PTR $T2[ebp]
  00054	c6 45 fc 01	 mov	 BYTE PTR __$EHRec$[ebp+8], 1
  00058	ff 15 00 00 00
	00		 call	 DWORD PTR __imp_?Compare@?$CStringT@DV?$StrTraitMFC_DLL@DV?$ChTraitsCRT@D@ATL@@@@@ATL@@QBEHPBD@Z
  0005e	85 c0		 test	 eax, eax
  00060	75 20		 jne	 SHORT $LN8@CCodeCtrl_

; 238  : 	{
; 239  : 		m_bFOJipyo = true;
; 240  : 	//KHD	m_editCode.ShowWindow(SW_SHOW);
; 241  : 		if (m_pwndCodeCtrl)

  00062	8b 8f 84 00 00
	00		 mov	 ecx, DWORD PTR [edi+132]
  00068	c6 87 a2 00 00
	00 01		 mov	 BYTE PTR [edi+162], 1
  0006f	85 c9		 test	 ecx, ecx
  00071	0f 84 f1 00 00
	00		 je	 $LN10@CCodeCtrl_

; 242  : 			m_pwndCodeCtrl->ShowWindow(SW_HIDE);

  00077	50		 push	 eax
  00078	e8 00 00 00 00	 call	 ?ShowWindow@CWnd@@QAEHH@Z ; CWnd::ShowWindow

; 268  : 	}
; 269  : 
; 270  : 	return FALSE;

  0007d	e9 e6 00 00 00	 jmp	 $LN10@CCodeCtrl_
$LN8@CCodeCtrl_:

; 243  : 	}
; 244  : 	else
; 245  : 	{
; 246  : 		int nCodeType = kospiType;
; 247  : 		
; 248  : 		if (strUnit.CompareNoCase("") == 0)				nCodeType = kospiType;

  00082	68 00 00 00 00	 push	 OFFSET ??_C@_04IMIHFAMF@?A?V?$LN?D@
  00087	8d 4d 08	 lea	 ecx, DWORD PTR $T2[ebp]
  0008a	be 01 00 00 00	 mov	 esi, 1
  0008f	ff 15 00 00 00
	00		 call	 DWORD PTR __imp_?CompareNoCase@?$CStringT@DV?$StrTraitMFC_DLL@DV?$ChTraitsCRT@D@ATL@@@@@ATL@@QBEHPBD@Z
  00095	85 c0		 test	 eax, eax
  00097	0f 84 a8 00 00
	00		 je	 $LN36@CCodeCtrl_

; 249  : 		else if (strUnit.CompareNoCase("ELW") == 0)			nCodeType = elwType;

  0009d	68 00 00 00 00	 push	 OFFSET ??_C@_03POALDHNL@ELW@
  000a2	8d 4d 08	 lea	 ecx, DWORD PTR $T2[ebp]
  000a5	ff 15 00 00 00
	00		 call	 DWORD PTR __imp_?CompareNoCase@?$CStringT@DV?$StrTraitMFC_DLL@DV?$ChTraitsCRT@D@ATL@@@@@ATL@@QBEHPBD@Z
  000ab	85 c0		 test	 eax, eax
  000ad	75 08		 jne	 SHORT $LN13@CCodeCtrl_
  000af	8d 70 09	 lea	 esi, DWORD PTR [eax+9]
  000b2	e9 8e 00 00 00	 jmp	 $LN36@CCodeCtrl_
$LN13@CCodeCtrl_:

; 250  : 		else if (strUnit.CompareNoCase("") == 0)		nCodeType = foreignType;

  000b7	68 00 00 00 00	 push	 OFFSET ??_C@_04GCIHJOGB@?G?X?$LP?$NM@
  000bc	8d 4d 08	 lea	 ecx, DWORD PTR $T2[ebp]
  000bf	ff 15 00 00 00
	00		 call	 DWORD PTR __imp_?CompareNoCase@?$CStringT@DV?$StrTraitMFC_DLL@DV?$ChTraitsCRT@D@ATL@@@@@ATL@@QBEHPBD@Z
  000c5	85 c0		 test	 eax, eax
  000c7	75 08		 jne	 SHORT $LN15@CCodeCtrl_
  000c9	8d 70 0a	 lea	 esi, DWORD PTR [eax+10]
  000cc	e9 8c 00 00 00	 jmp	 $LN27@CCodeCtrl_
$LN15@CCodeCtrl_:

; 251  : 		else if (strUnit.CompareNoCase("") == 0)	nCodeType = futureType;

  000d1	68 00 00 00 00	 push	 OFFSET ??_C@_08NDPAGPFD@?$LM?$LB?$LJ?$LA?$LP?I?$LM?G@
  000d6	8d 4d 08	 lea	 ecx, DWORD PTR $T2[ebp]
  000d9	ff 15 00 00 00
	00		 call	 DWORD PTR __imp_?CompareNoCase@?$CStringT@DV?$StrTraitMFC_DLL@DV?$ChTraitsCRT@D@ATL@@@@@ATL@@QBEHPBD@Z
  000df	85 c0		 test	 eax, eax
  000e1	75 05		 jne	 SHORT $LN17@CCodeCtrl_
  000e3	8d 70 0b	 lea	 esi, DWORD PTR [eax+11]
  000e6	eb 5d		 jmp	 SHORT $LN36@CCodeCtrl_
$LN17@CCodeCtrl_:

; 252  : 		else if (strUnit.CompareNoCase("") == 0)	nCodeType = koptionType;

  000e8	68 00 00 00 00	 push	 OFFSET ??_C@_08GMMOIJLH@?A?V?$LN?D?$LP?I?$LM?G@
  000ed	8d 4d 08	 lea	 ecx, DWORD PTR $T2[ebp]
  000f0	ff 15 00 00 00
	00		 call	 DWORD PTR __imp_?CompareNoCase@?$CStringT@DV?$StrTraitMFC_DLL@DV?$ChTraitsCRT@D@ATL@@@@@ATL@@QBEHPBD@Z
  000f6	85 c0		 test	 eax, eax
  000f8	75 05		 jne	 SHORT $LN19@CCodeCtrl_
  000fa	8d 70 0f	 lea	 esi, DWORD PTR [eax+15]
  000fd	eb 46		 jmp	 SHORT $LN36@CCodeCtrl_
$LN19@CCodeCtrl_:

; 253  : 		else if (strUnit.CompareNoCase("") == 0)	nCodeType = sfutureType;

  000ff	68 00 00 00 00	 push	 OFFSET ??_C@_08ODFAFGMO@?A?V?$LN?D?$LM?$LB?$LJ?$LA@
  00104	8d 4d 08	 lea	 ecx, DWORD PTR $T2[ebp]
  00107	ff 15 00 00 00
	00		 call	 DWORD PTR __imp_?CompareNoCase@?$CStringT@DV?$StrTraitMFC_DLL@DV?$ChTraitsCRT@D@ATL@@@@@ATL@@QBEHPBD@Z
  0010d	85 c0		 test	 eax, eax
  0010f	75 05		 jne	 SHORT $LN21@CCodeCtrl_
  00111	8d 70 10	 lea	 esi, DWORD PTR [eax+16]
  00114	eb 2f		 jmp	 SHORT $LN36@CCodeCtrl_
$LN21@CCodeCtrl_:

; 254  : 		else if (strUnit.CompareNoCase("") == 0)		nCodeType = indexType;

  00116	68 00 00 00 00	 push	 OFFSET ??_C@_04GHLAOPMI@?$LO?w?A?$LO@
  0011b	8d 4d 08	 lea	 ecx, DWORD PTR $T2[ebp]
  0011e	ff 15 00 00 00
	00		 call	 DWORD PTR __imp_?CompareNoCase@?$CStringT@DV?$StrTraitMFC_DLL@DV?$ChTraitsCRT@D@ATL@@@@@ATL@@QBEHPBD@Z
  00124	85 c0		 test	 eax, eax
  00126	75 05		 jne	 SHORT $LN23@CCodeCtrl_
  00128	8d 70 14	 lea	 esi, DWORD PTR [eax+20]
  0012b	eb 18		 jmp	 SHORT $LN36@CCodeCtrl_
$LN23@CCodeCtrl_:

; 255  : 		else if (strUnit.CompareNoCase("") == 0)	nCodeType = THREE_BONDS;

  0012d	68 00 00 00 00	 push	 OFFSET ??_C@_08OPOALDAF@?$LL?s?G?$LA?$LM?$LB?$LJ?$LA@
  00132	8d 4d 08	 lea	 ecx, DWORD PTR $T2[ebp]
  00135	ff 15 00 00 00
	00		 call	 DWORD PTR __imp_?CompareNoCase@?$CStringT@DV?$StrTraitMFC_DLL@DV?$ChTraitsCRT@D@ATL@@@@@ATL@@QBEHPBD@Z
  0013b	85 c0		 test	 eax, eax
  0013d	b9 84 03 00 00	 mov	 ecx, 900		; 00000384H
  00142	0f 44 f1	 cmove	 esi, ecx
$LN36@CCodeCtrl_:

; 256  : //KHD		else if (strUnit.CompareNoCase("") == 0)	nCodeType = gfutureType;
; 257  : //KHD		else if (strUnit.CompareNoCase("FX") == 0)			nCodeType = gfxType;
; 258  : 
; 259  : 		if (nCodeType != foreignType)
; 260  : 		{
; 261  : 			m_bFOJipyo = false;
; 262  : 	//KHD		m_editCode.ShowWindow(SW_HIDE);
; 263  : 			if (m_pwndCodeCtrl)

  00145	8b 8f 84 00 00
	00		 mov	 ecx, DWORD PTR [edi+132]
  0014b	c6 87 a2 00 00
	00 00		 mov	 BYTE PTR [edi+162], 0
  00152	85 c9		 test	 ecx, ecx
  00154	74 07		 je	 SHORT $LN27@CCodeCtrl_

; 264  : 				m_pwndCodeCtrl->ShowWindow(SW_SHOW);

  00156	6a 05		 push	 5
  00158	e8 00 00 00 00	 call	 ?ShowWindow@CWnd@@QAEHH@Z ; CWnd::ShowWindow
$LN27@CCodeCtrl_:

; 265  : 		}
; 266  : 		
; 267  : 		return SetUnit(nCodeType);

  0015d	8b 07		 mov	 eax, DWORD PTR [edi]
  0015f	8b cf		 mov	 ecx, edi
  00161	56		 push	 esi
  00162	ff 90 78 01 00
	00		 call	 DWORD PTR [eax+376]
$LN10@CCodeCtrl_:

; 230  : 	delete pSTUnit;
; 231  : 	
; 232  : 	return 0L;

  00168	8d 4d 08	 lea	 ecx, DWORD PTR $T2[ebp]
  0016b	ff 15 00 00 00
	00		 call	 DWORD PTR __imp_??1?$CStringT@DV?$StrTraitMFC_DLL@DV?$ChTraitsCRT@D@ATL@@@@@ATL@@QAE@XZ
  00171	8d 4b 04	 lea	 ecx, DWORD PTR [ebx+4]
  00174	ff 15 00 00 00
	00		 call	 DWORD PTR __imp_??1?$CStringT@DV?$StrTraitMFC_DLL@DV?$ChTraitsCRT@D@ATL@@@@@ATL@@QAE@XZ
  0017a	6a 08		 push	 8
  0017c	53		 push	 ebx
  0017d	e8 00 00 00 00	 call	 ??3@YAXPAXI@Z		; operator delete
  00182	83 c4 08	 add	 esp, 8
  00185	8d 4d f0	 lea	 ecx, DWORD PTR _strUnit$[ebp]
  00188	ff 15 00 00 00
	00		 call	 DWORD PTR __imp_??1?$CStringT@DV?$StrTraitMFC_DLL@DV?$ChTraitsCRT@D@ATL@@@@@ATL@@QAE@XZ
  0018e	33 c0		 xor	 eax, eax

; 233  : }

  00190	8b 4d f4	 mov	 ecx, DWORD PTR __$EHRec$[ebp]
  00193	64 89 0d 00 00
	00 00		 mov	 DWORD PTR fs:0, ecx
  0019a	59		 pop	 ecx
  0019b	5f		 pop	 edi
  0019c	5e		 pop	 esi
  0019d	5b		 pop	 ebx
  0019e	8b e5		 mov	 esp, ebp
  001a0	5d		 pop	 ebp
  001a1	c3		 ret	 0
_TEXT	ENDS
;	COMDAT text$x
text$x	SEGMENT
__unwindfunclet$?CCodeCtrl_SetUnit@@YAIPAX@Z$0:
  00000	8d 4d f0	 lea	 ecx, DWORD PTR _strUnit$[ebp]
  00003	ff 25 00 00 00
	00		 jmp	 DWORD PTR __imp_??1?$CStringT@DV?$StrTraitMFC_DLL@DV?$ChTraitsCRT@D@ATL@@@@@ATL@@QAE@XZ
__unwindfunclet$?CCodeCtrl_SetUnit@@YAIPAX@Z$2:
  00009	8d 4d 08	 lea	 ecx, DWORD PTR $T2[ebp]
  0000c	ff 25 00 00 00
	00		 jmp	 DWORD PTR __imp_??1?$CStringT@DV?$StrTraitMFC_DLL@DV?$ChTraitsCRT@D@ATL@@@@@ATL@@QAE@XZ
  00012	cc		 int	 3
  00013	cc		 int	 3
  00014	cc		 int	 3
  00015	cc		 int	 3
  00016	cc		 int	 3
__ehhandler$?CCodeCtrl_SetUnit@@YAIPAX@Z:
  00017	90		 npad	 1
  00018	90		 npad	 1
  00019	8b 54 24 08	 mov	 edx, DWORD PTR [esp+8]
  0001d	8d 42 0c	 lea	 eax, DWORD PTR [edx+12]
  00020	8b 4a ec	 mov	 ecx, DWORD PTR [edx-20]
  00023	33 c8		 xor	 ecx, eax
  00025	e8 00 00 00 00	 call	 @__security_check_cookie@4
  0002a	b8 00 00 00 00	 mov	 eax, OFFSET __ehfuncinfo$?CCodeCtrl_SetUnit@@YAIPAX@Z
  0002f	e9 00 00 00 00	 jmp	 ___CxxFrameHandler3
text$x	ENDS
?CCodeCtrl_SetUnit@@YAIPAX@Z ENDP			; CCodeCtrl_SetUnit
; Function compile flags: /Ogtp
; File C:\Program Files (x86)\Microsoft Visual Studio\2019\Community\VC\Tools\MSVC\14.29.30133\atlmfc\include\atlcomcli.h
;	COMDAT ??_Estringdispid@CComTypeInfoHolder@ATL@@QAEPAXI@Z
_TEXT	SEGMENT
__$EHRec$ = -12						; size = 12
___flags$ = 8						; size = 4
??_Estringdispid@CComTypeInfoHolder@ATL@@QAEPAXI@Z PROC	; ATL::CComTypeInfoHolder::stringdispid::`vector deleting destructor', COMDAT
; _this$ = ecx
  00000	55		 push	 ebp
  00001	8b ec		 mov	 ebp, esp
  00003	6a ff		 push	 -1
  00005	68 00 00 00 00	 push	 __ehhandler$??_Estringdispid@CComTypeInfoHolder@ATL@@QAEPAXI@Z
  0000a	64 a1 00 00 00
	00		 mov	 eax, DWORD PTR fs:0
  00010	50		 push	 eax
  00011	53		 push	 ebx
  00012	56		 push	 esi
  00013	57		 push	 edi
  00014	a1 00 00 00 00	 mov	 eax, DWORD PTR ___security_cookie
  00019	33 c5		 xor	 eax, ebp
  0001b	50		 push	 eax
  0001c	8d 45 f4	 lea	 eax, DWORD PTR __$EHRec$[ebp]
  0001f	64 a3 00 00 00
	00		 mov	 DWORD PTR fs:0, eax
  00025	8b f1		 mov	 esi, ecx
  00027	8b 45 08	 mov	 eax, DWORD PTR ___flags$[ebp]
  0002a	8b d8		 mov	 ebx, eax
  0002c	83 e3 01	 and	 ebx, 1
  0002f	a8 02		 test	 al, 2
  00031	74 43		 je	 SHORT $LN2@vector
  00033	68 00 00 00 00	 push	 OFFSET ??1stringdispid@CComTypeInfoHolder@ATL@@QAE@XZ
  00038	ff 76 fc	 push	 DWORD PTR [esi-4]
  0003b	8d 7e fc	 lea	 edi, DWORD PTR [esi-4]
  0003e	6a 0c		 push	 12			; 0000000cH
  00040	56		 push	 esi
  00041	e8 00 00 00 00	 call	 ??_M@YGXPAXIIP6EX0@Z@Z
  00046	85 db		 test	 ebx, ebx
  00048	74 16		 je	 SHORT $LN3@vector
  0004a	8b 0f		 mov	 ecx, DWORD PTR [edi]
  0004c	8d 0c 49	 lea	 ecx, DWORD PTR [ecx+ecx*2]
  0004f	8d 0c 8d 04 00
	00 00		 lea	 ecx, DWORD PTR [ecx*4+4]
  00056	51		 push	 ecx
  00057	57		 push	 edi
  00058	e8 00 00 00 00	 call	 ??_V@YAXPAXI@Z		; operator delete[]
  0005d	83 c4 08	 add	 esp, 8
$LN3@vector:
  00060	8b c7		 mov	 eax, edi
  00062	8b 4d f4	 mov	 ecx, DWORD PTR __$EHRec$[ebp]
  00065	64 89 0d 00 00
	00 00		 mov	 DWORD PTR fs:0, ecx
  0006c	59		 pop	 ecx
  0006d	5f		 pop	 edi
  0006e	5e		 pop	 esi
  0006f	5b		 pop	 ebx
  00070	8b e5		 mov	 esp, ebp
  00072	5d		 pop	 ebp
  00073	c2 04 00	 ret	 4
$LN2@vector:

; 1680 :     ::SysFreeString(m_str);

  00076	ff 36		 push	 DWORD PTR [esi]
  00078	ff 15 00 00 00
	00		 call	 DWORD PTR __imp__SysFreeString@4
  0007e	85 db		 test	 ebx, ebx
  00080	74 0b		 je	 SHORT $LN4@vector
  00082	6a 0c		 push	 12			; 0000000cH
  00084	56		 push	 esi
  00085	e8 00 00 00 00	 call	 ??3@YAXPAXI@Z		; operator delete
  0008a	83 c4 08	 add	 esp, 8
$LN4@vector:
  0008d	8b c6		 mov	 eax, esi
  0008f	8b 4d f4	 mov	 ecx, DWORD PTR __$EHRec$[ebp]
  00092	64 89 0d 00 00
	00 00		 mov	 DWORD PTR fs:0, ecx
  00099	59		 pop	 ecx
  0009a	5f		 pop	 edi
  0009b	5e		 pop	 esi
  0009c	5b		 pop	 ebx
  0009d	8b e5		 mov	 esp, ebp
  0009f	5d		 pop	 ebp
  000a0	c2 04 00	 ret	 4
  000a3	cc		 int	 3
  000a4	cc		 int	 3
  000a5	cc		 int	 3
  000a6	cc		 int	 3
  000a7	cc		 int	 3
_TEXT	ENDS
;	COMDAT text$x
text$x	SEGMENT
__ehhandler$??_Estringdispid@CComTypeInfoHolder@ATL@@QAEPAXI@Z:
  00000	90		 npad	 1
  00001	90		 npad	 1
  00002	8b 54 24 08	 mov	 edx, DWORD PTR [esp+8]
  00006	8d 42 0c	 lea	 eax, DWORD PTR [edx+12]
  00009	8b 4a f0	 mov	 ecx, DWORD PTR [edx-16]
  0000c	33 c8		 xor	 ecx, eax
  0000e	e8 00 00 00 00	 call	 @__security_check_cookie@4
  00013	b8 00 00 00 00	 mov	 eax, OFFSET __ehfuncinfo$??_Estringdispid@CComTypeInfoHolder@ATL@@QAEPAXI@Z
  00018	e9 00 00 00 00	 jmp	 ___CxxFrameHandler3
text$x	ENDS
??_Estringdispid@CComTypeInfoHolder@ATL@@QAEPAXI@Z ENDP	; ATL::CComTypeInfoHolder::stringdispid::`vector deleting destructor'
; Function compile flags: /Ogtp
; File C:\Program Files (x86)\Microsoft Visual Studio\2019\Community\VC\Tools\MSVC\14.29.30133\atlmfc\include\atlcomcli.h
;	COMDAT ??1stringdispid@CComTypeInfoHolder@ATL@@QAE@XZ
_TEXT	SEGMENT
??1stringdispid@CComTypeInfoHolder@ATL@@QAE@XZ PROC	; ATL::CComTypeInfoHolder::stringdispid::~stringdispid, COMDAT
; _this$ = ecx

; 1680 :     ::SysFreeString(m_str);

  00000	ff 31		 push	 DWORD PTR [ecx]
  00002	ff 15 00 00 00
	00		 call	 DWORD PTR __imp__SysFreeString@4
  00008	c3		 ret	 0
??1stringdispid@CComTypeInfoHolder@ATL@@QAE@XZ ENDP	; ATL::CComTypeInfoHolder::stringdispid::~stringdispid
_TEXT	ENDS
; Function compile flags: /Ogtp
; File D:\git\src\IBK\IBK_DRFN\ProjSrc\SrcDrfn\inc\DRCommon.h
;	COMDAT ??__ERMSG_DRUSER@@YAXXZ
text$di	SEGMENT
??__ERMSG_DRUSER@@YAXXZ PROC				; `dynamic initializer for 'RMSG_DRUSER'', COMDAT

; 9    : 	const UINT RMSG_DRUSER = ::RegisterWindowMessage(_T("RMSG_DRUSER"));

  00000	68 00 00 00 00	 push	 OFFSET ??_C@_0M@LPFHDJI@RMSG_DRUSER@
  00005	ff 15 00 00 00
	00		 call	 DWORD PTR __imp__RegisterWindowMessageA@4
  0000b	a3 00 00 00 00	 mov	 DWORD PTR ?RMSG_DRUSER@@3IB, eax
  00010	c3		 ret	 0
??__ERMSG_DRUSER@@YAXXZ ENDP				; `dynamic initializer for 'RMSG_DRUSER''
text$di	ENDS
; Function compile flags: /Ogtp
;	COMDAT ??1_param@@QAE@XZ
_TEXT	SEGMENT
??1_param@@QAE@XZ PROC					; _param::~_param, COMDAT
; _this$ = ecx
  00000	56		 push	 esi
  00001	8b f1		 mov	 esi, ecx
  00003	8d 4e 2c	 lea	 ecx, DWORD PTR [esi+44]
  00006	ff 15 00 00 00
	00		 call	 DWORD PTR __imp_??1?$CStringT@DV?$StrTraitMFC_DLL@DV?$ChTraitsCRT@D@ATL@@@@@ATL@@QAE@XZ
  0000c	8d 4e 18	 lea	 ecx, DWORD PTR [esi+24]
  0000f	ff 15 00 00 00
	00		 call	 DWORD PTR __imp_??1?$CStringT@DV?$StrTraitMFC_DLL@DV?$ChTraitsCRT@D@ATL@@@@@ATL@@QAE@XZ
  00015	8d 4e 04	 lea	 ecx, DWORD PTR [esi+4]
  00018	5e		 pop	 esi
  00019	ff 25 00 00 00
	00		 jmp	 DWORD PTR __imp_??1?$CStringT@DV?$StrTraitMFC_DLL@DV?$ChTraitsCRT@D@ATL@@@@@ATL@@QAE@XZ
??1_param@@QAE@XZ ENDP					; _param::~_param
_TEXT	ENDS
; Function compile flags: /Ogtp
; File D:\git\src\IBK\IBK_DRFN\ProjSrc\SrcSite\include\CodeCtrl.cpp
; File C:\Program Files (x86)\Microsoft Visual Studio\2019\Community\VC\Tools\MSVC\14.29.30133\atlmfc\include\afx.inl
;	COMDAT ??_GCCodeCtrl@@UAEPAXI@Z
_TEXT	SEGMENT
__$EHRec$ = -12						; size = 12
___flags$ = 8						; size = 4
??_GCCodeCtrl@@UAEPAXI@Z PROC				; CCodeCtrl::`scalar deleting destructor', COMDAT
; _this$ = ecx
  00000	55		 push	 ebp
  00001	8b ec		 mov	 ebp, esp
  00003	6a ff		 push	 -1
  00005	68 00 00 00 00	 push	 __ehhandler$??_GCCodeCtrl@@UAEPAXI@Z
  0000a	64 a1 00 00 00
	00		 mov	 eax, DWORD PTR fs:0
  00010	50		 push	 eax
  00011	56		 push	 esi
  00012	57		 push	 edi
  00013	a1 00 00 00 00	 mov	 eax, DWORD PTR ___security_cookie
  00018	33 c5		 xor	 eax, ebp
  0001a	50		 push	 eax
  0001b	8d 45 f4	 lea	 eax, DWORD PTR __$EHRec$[ebp]
  0001e	64 a3 00 00 00
	00		 mov	 DWORD PTR fs:0, eax
  00024	8b f9		 mov	 edi, ecx
; File D:\git\src\IBK\IBK_DRFN\ProjSrc\SrcSite\include\CodeCtrl.cpp

; 41   : 	m_btnImageList.DeleteImageList();

  00026	8d 8f a8 00 00
	00		 lea	 ecx, DWORD PTR [edi+168]
  0002c	c7 45 fc 00 00
	00 00		 mov	 DWORD PTR __$EHRec$[ebp+8], 0
  00033	c7 07 00 00 00
	00		 mov	 DWORD PTR [edi], OFFSET ??_7CCodeCtrl@@6B@
  00039	e8 00 00 00 00	 call	 ?DeleteImageList@CImageList@@QAEHXZ ; CImageList::DeleteImageList

; 42   : }

  0003e	8d 8f 20 02 00
	00		 lea	 ecx, DWORD PTR [edi+544]
  00044	e8 00 00 00 00	 call	 ??1CEdit@@UAE@XZ	; CEdit::~CEdit
  00049	8d 8f 1c 02 00
	00		 lea	 ecx, DWORD PTR [edi+540]
  0004f	ff 15 00 00 00
	00		 call	 DWORD PTR __imp_??1?$CStringT@DV?$StrTraitMFC_DLL@DV?$ChTraitsCRT@D@ATL@@@@@ATL@@QAE@XZ
  00055	8d 8f 14 02 00
	00		 lea	 ecx, DWORD PTR [edi+532]
  0005b	ff 15 00 00 00
	00		 call	 DWORD PTR __imp_??1?$CStringT@DV?$StrTraitMFC_DLL@DV?$ChTraitsCRT@D@ATL@@@@@ATL@@QAE@XZ
  00061	8d 8f b0 00 00
	00		 lea	 ecx, DWORD PTR [edi+176]
  00067	e8 00 00 00 00	 call	 ??1CILButton@@UAE@XZ	; CILButton::~CILButton
  0006c	8d 8f a8 00 00
	00		 lea	 ecx, DWORD PTR [edi+168]
  00072	e8 00 00 00 00	 call	 ??1CImageList@@UAE@XZ	; CImageList::~CImageList
  00077	8d 8f a4 00 00
	00		 lea	 ecx, DWORD PTR [edi+164]
  0007d	ff 15 00 00 00
	00		 call	 DWORD PTR __imp_??1?$CStringT@DV?$StrTraitMFC_DLL@DV?$ChTraitsCRT@D@ATL@@@@@ATL@@QAE@XZ
  00083	8b cf		 mov	 ecx, edi
  00085	e8 00 00 00 00	 call	 ??1CWinixCodeCtrl@@UAE@XZ ; CWinixCodeCtrl::~CWinixCodeCtrl
  0008a	8b 45 08	 mov	 eax, DWORD PTR ___flags$[ebp]
  0008d	a8 01		 test	 al, 1
  0008f	74 1d		 je	 SHORT $LN12@scalar
  00091	a8 04		 test	 al, 4
  00093	75 0b		 jne	 SHORT $LN3@scalar
; File C:\Program Files (x86)\Microsoft Visual Studio\2019\Community\VC\Tools\MSVC\14.29.30133\atlmfc\include\afx.inl

; 112  : 	{ ::operator delete(p); }

  00095	57		 push	 edi
  00096	e8 00 00 00 00	 call	 ??3@YAXPAX@Z		; operator delete
  0009b	83 c4 04	 add	 esp, 4
  0009e	eb 0e		 jmp	 SHORT $LN12@scalar
$LN3@scalar:
  000a0	68 a8 02 00 00	 push	 680			; 000002a8H
  000a5	57		 push	 edi
  000a6	e8 00 00 00 00	 call	 ?__global_delete@@YAXPAXI@Z ; __global_delete
  000ab	83 c4 08	 add	 esp, 8
$LN12@scalar:
  000ae	8b c7		 mov	 eax, edi
  000b0	8b 4d f4	 mov	 ecx, DWORD PTR __$EHRec$[ebp]
  000b3	64 89 0d 00 00
	00 00		 mov	 DWORD PTR fs:0, ecx
  000ba	59		 pop	 ecx
  000bb	5f		 pop	 edi
  000bc	5e		 pop	 esi
  000bd	8b e5		 mov	 esp, ebp
  000bf	5d		 pop	 ebp
  000c0	c2 04 00	 ret	 4
  000c3	cc		 int	 3
  000c4	cc		 int	 3
  000c5	cc		 int	 3
  000c6	cc		 int	 3
  000c7	cc		 int	 3
_TEXT	ENDS
;	COMDAT text$x
text$x	SEGMENT
__ehhandler$??_GCCodeCtrl@@UAEPAXI@Z:
  00000	90		 npad	 1
  00001	90		 npad	 1
  00002	8b 54 24 08	 mov	 edx, DWORD PTR [esp+8]
  00006	8d 42 0c	 lea	 eax, DWORD PTR [edx+12]
  00009	8b 4a f4	 mov	 ecx, DWORD PTR [edx-12]
  0000c	33 c8		 xor	 ecx, eax
  0000e	e8 00 00 00 00	 call	 @__security_check_cookie@4
  00013	b8 00 00 00 00	 mov	 eax, OFFSET __ehfuncinfo$??_GCCodeCtrl@@UAEPAXI@Z
  00018	e9 00 00 00 00	 jmp	 ___CxxFrameHandler3
text$x	ENDS
??_GCCodeCtrl@@UAEPAXI@Z ENDP				; CCodeCtrl::`scalar deleting destructor'
; Function compile flags: /Ogtp
; File D:\git\src\IBK\IBK_DRFN\ProjSrc\SrcSite\include\CodeCtrl.cpp
;	COMDAT ?SetFixUnit@CCodeCtrl@@QAEXH@Z
_TEXT	SEGMENT
_nFixUnit$ = 8						; size = 4
?SetFixUnit@CCodeCtrl@@QAEXH@Z PROC			; CCodeCtrl::SetFixUnit, COMDAT
; _this$ = ecx

; 405  : {

  00000	55		 push	 ebp
  00001	8b ec		 mov	 ebp, esp

; 406  : 	m_nFixUnit = nFixUnit;

  00003	8b 45 08	 mov	 eax, DWORD PTR _nFixUnit$[ebp]
  00006	89 81 a0 02 00
	00		 mov	 DWORD PTR [ecx+672], eax

; 407  : 	m_bFixUnit = true;

  0000c	c6 81 a4 02 00
	00 01		 mov	 BYTE PTR [ecx+676], 1

; 408  : }

  00013	5d		 pop	 ebp
  00014	c2 04 00	 ret	 4
?SetFixUnit@CCodeCtrl@@QAEXH@Z ENDP			; CCodeCtrl::SetFixUnit
_TEXT	ENDS
; Function compile flags: /Ogtp
; File D:\git\src\IBK\IBK_DRFN\ProjSrc\SrcSite\include\CodeCtrl.cpp
;	COMDAT ?SetFixUnit@CCodeCtrl@@QAEXV?$CStringT@DV?$StrTraitMFC_DLL@DV?$ChTraitsCRT@D@ATL@@@@@ATL@@@Z
_TEXT	SEGMENT
__$EHRec$ = -12						; size = 12
_strUnit$ = 8						; size = 4
?SetFixUnit@CCodeCtrl@@QAEXV?$CStringT@DV?$StrTraitMFC_DLL@DV?$ChTraitsCRT@D@ATL@@@@@ATL@@@Z PROC ; CCodeCtrl::SetFixUnit, COMDAT
; _this$ = ecx

; 399  : {

  00000	55		 push	 ebp
  00001	8b ec		 mov	 ebp, esp
  00003	6a ff		 push	 -1
  00005	68 00 00 00 00	 push	 __ehhandler$?SetFixUnit@CCodeCtrl@@QAEXV?$CStringT@DV?$StrTraitMFC_DLL@DV?$ChTraitsCRT@D@ATL@@@@@ATL@@@Z
  0000a	64 a1 00 00 00
	00		 mov	 eax, DWORD PTR fs:0
  00010	50		 push	 eax
  00011	51		 push	 ecx
  00012	56		 push	 esi
  00013	a1 00 00 00 00	 mov	 eax, DWORD PTR ___security_cookie
  00018	33 c5		 xor	 eax, ebp
  0001a	50		 push	 eax
  0001b	8d 45 f4	 lea	 eax, DWORD PTR __$EHRec$[ebp]
  0001e	64 a3 00 00 00
	00		 mov	 DWORD PTR fs:0, eax
  00024	8b f1		 mov	 esi, ecx

; 400  : 	SetUnit(strUnit);

  00026	51		 push	 ecx
  00027	8d 45 08	 lea	 eax, DWORD PTR _strUnit$[ebp]
  0002a	c7 45 fc 00 00
	00 00		 mov	 DWORD PTR __$EHRec$[ebp+8], 0
  00031	8b cc		 mov	 ecx, esp
  00033	50		 push	 eax
  00034	ff 15 00 00 00
	00		 call	 DWORD PTR __imp_??0?$CStringT@DV?$StrTraitMFC_DLL@DV?$ChTraitsCRT@D@ATL@@@@@ATL@@QAE@ABV01@@Z
  0003a	8b 06		 mov	 eax, DWORD PTR [esi]
  0003c	8b ce		 mov	 ecx, esi
  0003e	ff 90 74 01 00
	00		 call	 DWORD PTR [eax+372]

; 401  : 	m_nFixUnit = m_nCodeType;

  00044	8b 86 10 02 00
	00		 mov	 eax, DWORD PTR [esi+528]

; 402  : 	m_bFixUnit = true;
; 403  : }

  0004a	8d 4d 08	 lea	 ecx, DWORD PTR _strUnit$[ebp]
  0004d	89 86 a0 02 00
	00		 mov	 DWORD PTR [esi+672], eax
  00053	c6 86 a4 02 00
	00 01		 mov	 BYTE PTR [esi+676], 1
  0005a	ff 15 00 00 00
	00		 call	 DWORD PTR __imp_??1?$CStringT@DV?$StrTraitMFC_DLL@DV?$ChTraitsCRT@D@ATL@@@@@ATL@@QAE@XZ
  00060	8b 4d f4	 mov	 ecx, DWORD PTR __$EHRec$[ebp]
  00063	64 89 0d 00 00
	00 00		 mov	 DWORD PTR fs:0, ecx
  0006a	59		 pop	 ecx
  0006b	5e		 pop	 esi
  0006c	8b e5		 mov	 esp, ebp
  0006e	5d		 pop	 ebp
  0006f	c2 04 00	 ret	 4
_TEXT	ENDS
;	COMDAT text$x
text$x	SEGMENT
__unwindfunclet$?SetFixUnit@CCodeCtrl@@QAEXV?$CStringT@DV?$StrTraitMFC_DLL@DV?$ChTraitsCRT@D@ATL@@@@@ATL@@@Z$0:
  00000	8d 4d 08	 lea	 ecx, DWORD PTR _strUnit$[ebp]
  00003	ff 25 00 00 00
	00		 jmp	 DWORD PTR __imp_??1?$CStringT@DV?$StrTraitMFC_DLL@DV?$ChTraitsCRT@D@ATL@@@@@ATL@@QAE@XZ
  00009	cc		 int	 3
  0000a	cc		 int	 3
  0000b	cc		 int	 3
  0000c	cc		 int	 3
  0000d	cc		 int	 3
__ehhandler$?SetFixUnit@CCodeCtrl@@QAEXV?$CStringT@DV?$StrTraitMFC_DLL@DV?$ChTraitsCRT@D@ATL@@@@@ATL@@@Z:
  0000e	90		 npad	 1
  0000f	90		 npad	 1
  00010	8b 54 24 08	 mov	 edx, DWORD PTR [esp+8]
  00014	8d 42 0c	 lea	 eax, DWORD PTR [edx+12]
  00017	8b 4a f4	 mov	 ecx, DWORD PTR [edx-12]
  0001a	33 c8		 xor	 ecx, eax
  0001c	e8 00 00 00 00	 call	 @__security_check_cookie@4
  00021	b8 00 00 00 00	 mov	 eax, OFFSET __ehfuncinfo$?SetFixUnit@CCodeCtrl@@QAEXV?$CStringT@DV?$StrTraitMFC_DLL@DV?$ChTraitsCRT@D@ATL@@@@@ATL@@@Z
  00026	e9 00 00 00 00	 jmp	 ___CxxFrameHandler3
text$x	ENDS
?SetFixUnit@CCodeCtrl@@QAEXV?$CStringT@DV?$StrTraitMFC_DLL@DV?$ChTraitsCRT@D@ATL@@@@@ATL@@@Z ENDP ; CCodeCtrl::SetFixUnit
; Function compile flags: /Ogtp
; File D:\git\src\IBK\IBK_DRFN\ProjSrc\SrcSite\include\CodeCtrl.cpp
;	COMDAT ?GetMessageMap@CCodeCtrl@@MBEPBUAFX_MSGMAP@@XZ
_TEXT	SEGMENT
?GetMessageMap@CCodeCtrl@@MBEPBUAFX_MSGMAP@@XZ PROC	; CCodeCtrl::GetMessageMap, COMDAT
; _this$ = ecx

; 44   : BEGIN_MESSAGE_MAP(CCodeCtrl, CWinixCodeCtrl)

  00000	b8 00 00 00 00	 mov	 eax, OFFSET ?messageMap@?1??GetThisMessageMap@CCodeCtrl@@KGPBUAFX_MSGMAP@@XZ@4U3@B
  00005	c3		 ret	 0
?GetMessageMap@CCodeCtrl@@MBEPBUAFX_MSGMAP@@XZ ENDP	; CCodeCtrl::GetMessageMap
_TEXT	ENDS
; Function compile flags: /Ogtp
; File D:\git\src\IBK\IBK_DRFN\ProjSrc\SrcSite\include\CodeCtrl.cpp
;	COMDAT ?GetThisMessageMap@CCodeCtrl@@KGPBUAFX_MSGMAP@@XZ
_TEXT	SEGMENT
?GetThisMessageMap@CCodeCtrl@@KGPBUAFX_MSGMAP@@XZ PROC	; CCodeCtrl::GetThisMessageMap, COMDAT

; 45   : 	//{{AFX_MSG_MAP(CCodeCtrl)
; 46   : 	ON_WM_CREATE()
; 47   : 	ON_WM_SIZE()
; 48   : 	//}}AFX_MSG_MAP
; 49   : 	ON_BN_CLICKED(CCodeCtrl_BtnCodeDlg, OnBtnCodeDlg)
; 50   : 	ON_CBN_SELENDOK(CCodeCtrl_BtnCodeDlg, OnSelendokCodeCtrl)
; 51   : END_MESSAGE_MAP()

  00000	b8 00 00 00 00	 mov	 eax, OFFSET ?messageMap@?1??GetThisMessageMap@CCodeCtrl@@KGPBUAFX_MSGMAP@@XZ@4U3@B
  00005	c3		 ret	 0
?GetThisMessageMap@CCodeCtrl@@KGPBUAFX_MSGMAP@@XZ ENDP	; CCodeCtrl::GetThisMessageMap
_TEXT	ENDS
; Function compile flags: /Ogtp
; File D:\git\src\IBK\IBK_DRFN\ProjSrc\SrcSite\include\CodeCtrl.cpp
; File C:\Program Files (x86)\Microsoft Visual Studio\2019\Community\VC\Tools\MSVC\14.29.30133\atlmfc\include\afxwin2.inl
; File D:\git\src\IBK\IBK_DRFN\ProjSrc\SrcSite\include\CodeCtrl.cpp
; File C:\Program Files (x86)\Microsoft Visual Studio\2019\Community\VC\Tools\MSVC\14.29.30133\atlmfc\include\afxwin2.inl
; File D:\git\src\IBK\IBK_DRFN\ProjSrc\SrcSite\include\CodeCtrl.cpp
;	COMDAT ?OnSize@CCodeCtrl@@IAEXIHH@Z
_TEXT	SEGMENT
_nType$ = 8						; size = 4
_cx$ = 12						; size = 4
_cy$ = 16						; size = 4
?OnSize@CCodeCtrl@@IAEXIHH@Z PROC			; CCodeCtrl::OnSize, COMDAT
; _this$ = ecx

; 349  : {

  00000	55		 push	 ebp
  00001	8b ec		 mov	 ebp, esp
  00003	53		 push	 ebx
  00004	56		 push	 esi
  00005	57		 push	 edi
  00006	8b f1		 mov	 esi, ecx
; File C:\Program Files (x86)\Microsoft Visual Studio\2019\Community\VC\Tools\MSVC\14.29.30133\atlmfc\include\afxwin2.inl

; 330  : 	{ Default(); }

  00008	e8 00 00 00 00	 call	 ?Default@CWnd@@IAEJXZ	; CWnd::Default
; File D:\git\src\IBK\IBK_DRFN\ProjSrc\SrcSite\include\CodeCtrl.cpp

; 354  : 	if(m_bUseCodeDlg && m_btnCodeDlg.GetSafeHwnd())

  0000d	8b 7d 0c	 mov	 edi, DWORD PTR _cx$[ebp]
  00010	33 db		 xor	 ebx, ebx
  00012	39 9e 18 02 00
	00		 cmp	 DWORD PTR [esi+536], ebx
  00018	74 27		 je	 SHORT $LN2@OnSize
  0001a	8d 8e b0 00 00
	00		 lea	 ecx, DWORD PTR [esi+176]
; File C:\Program Files (x86)\Microsoft Visual Studio\2019\Community\VC\Tools\MSVC\14.29.30133\atlmfc\include\afxwin2.inl

; 25   : 	{ return this == NULL ? NULL : m_hWnd; }

  00020	85 c9		 test	 ecx, ecx
  00022	74 1d		 je	 SHORT $LN2@OnSize
; File D:\git\src\IBK\IBK_DRFN\ProjSrc\SrcSite\include\CodeCtrl.cpp

; 354  : 	if(m_bUseCodeDlg && m_btnCodeDlg.GetSafeHwnd())

  00024	39 59 20	 cmp	 DWORD PTR [ecx+32], ebx
  00027	74 18		 je	 SHORT $LN2@OnSize

; 355  : 	{
; 356  : 		nDlgBtnWidth = 20;
; 357  : 		m_btnCodeDlg.SetWindowPos(NULL, cx-nDlgBtnWidth, 0, 0, 0, SWP_NOSIZE|SWP_NOZORDER|SWP_NOACTIVATE);

  00029	6a 15		 push	 21			; 00000015H
  0002b	6a 00		 push	 0
  0002d	6a 00		 push	 0
  0002f	6a 00		 push	 0
  00031	8d 47 ec	 lea	 eax, DWORD PTR [edi-20]
  00034	bb 14 00 00 00	 mov	 ebx, 20			; 00000014H
  00039	50		 push	 eax
  0003a	6a 00		 push	 0
  0003c	e8 00 00 00 00	 call	 ?SetWindowPos@CWnd@@QAEHPBV1@HHHHI@Z ; CWnd::SetWindowPos
$LN2@OnSize:

; 358  : 	}
; 359  : 
; 360  : //KHD	m_editCode.MoveWindow(0, 0, cx-nDlgBtnWidth, cy);
; 361  : 
; 362  : 	if (m_pwndCodeCtrl && IsWindow(m_pwndCodeCtrl->m_hWnd))

  00041	8b 86 84 00 00
	00		 mov	 eax, DWORD PTR [esi+132]
  00047	85 c0		 test	 eax, eax
  00049	74 24		 je	 SHORT $LN3@OnSize
  0004b	ff 70 20	 push	 DWORD PTR [eax+32]
  0004e	ff 15 00 00 00
	00		 call	 DWORD PTR __imp__IsWindow@4
  00054	85 c0		 test	 eax, eax
  00056	74 17		 je	 SHORT $LN3@OnSize

; 363  : 		m_pwndCodeCtrl->MoveWindow(0, 0, cx-nDlgBtnWidth, cy);

  00058	8b 8e 84 00 00
	00		 mov	 ecx, DWORD PTR [esi+132]
  0005e	2b fb		 sub	 edi, ebx
  00060	6a 01		 push	 1
  00062	ff 75 10	 push	 DWORD PTR _cy$[ebp]
  00065	57		 push	 edi
  00066	6a 00		 push	 0
  00068	6a 00		 push	 0
  0006a	e8 00 00 00 00	 call	 ?MoveWindow@CWnd@@QAEXHHHHH@Z ; CWnd::MoveWindow
$LN3@OnSize:

; 364  : }

  0006f	5f		 pop	 edi
  00070	5e		 pop	 esi
  00071	5b		 pop	 ebx
  00072	5d		 pop	 ebp
  00073	c2 0c 00	 ret	 12			; 0000000cH
?OnSize@CCodeCtrl@@IAEXIHH@Z ENDP			; CCodeCtrl::OnSize
_TEXT	ENDS
; Function compile flags: /Ogtp
; File D:\git\src\IBK\IBK_DRFN\ProjSrc\SrcSite\include\CodeCtrl.cpp
;	COMDAT ?OnCreate@CCodeCtrl@@IAEHPAUtagCREATESTRUCTA@@@Z
_TEXT	SEGMENT
_lpCreateStruct$ = 8					; size = 4
?OnCreate@CCodeCtrl@@IAEHPAUtagCREATESTRUCTA@@@Z PROC	; CCodeCtrl::OnCreate, COMDAT
; _this$ = ecx

; 54   : {

  00000	55		 push	 ebp
  00001	8b ec		 mov	 ebp, esp

; 55   : 	if (CWinixCodeCtrl::OnCreate(lpCreateStruct) == -1)

  00003	ff 75 08	 push	 DWORD PTR _lpCreateStruct$[ebp]
  00006	e8 00 00 00 00	 call	 ?OnCreate@CWinixCodeCtrl@@IAEHPAUtagCREATESTRUCTA@@@Z ; CWinixCodeCtrl::OnCreate
  0000b	40		 inc	 eax
  0000c	f7 d8		 neg	 eax
  0000e	1b c0		 sbb	 eax, eax
  00010	f7 d8		 neg	 eax
  00012	48		 dec	 eax

; 56   : 		return -1;
; 57   : 
; 58   : //KHD	if(m_bUseCodeDlg)
; 59   : //KHD		_DoCreateCodeDlgBtn();
; 60   : 
; 61   : //KHD	m_editCode.Create(WS_CHILD|WS_VISIBLE|WS_TABSTOP|WS_BORDER, CRect(0,0,100,20), this, CCodeCtrl_EditCode);
; 62   : //KHD	m_editCode.ShowWindow(SW_HIDE);
; 63   : 
; 64   : 	return 0;
; 65   : }

  00013	5d		 pop	 ebp
  00014	c2 04 00	 ret	 4
?OnCreate@CCodeCtrl@@IAEHPAUtagCREATESTRUCTA@@@Z ENDP	; CCodeCtrl::OnCreate
_TEXT	ENDS
; Function compile flags: /Ogtp
; File D:\git\src\IBK\IBK_DRFN\ProjSrc\SrcSite\include\CodeCtrl.cpp
;	COMDAT ?OnBtnCodeDlg@CCodeCtrl@@IAEXXZ
_TEXT	SEGMENT
?OnBtnCodeDlg@CCodeCtrl@@IAEXXZ PROC			; CCodeCtrl::OnBtnCodeDlg, COMDAT
; _this$ = ecx

; 413  : 	return;//KHD
; 414  : // 	if(m_bFixUnit)
; 415  : // 	{
; 416  : // 		m_nCodeType = m_nFixUnit;
; 417  : // 	}
; 418  : // 	else
; 419  : // 	{
; 420  : // 		CString szUnit,strCode;
; 421  : // 		strCode = GetCode();
; 422  : // 		int nLen = strCode.GetLength();
; 423  : // 		if(nLen>0)
; 424  : // 		{
; 425  : // 			//		BYTE nCodeType = (BYTE)m_pwndWizard->SendMessage(WM_USER, MAKEWPARAM(codeTYPE, NULL), (LPARAM)(LPCSTR)strCode);
; 426  : // 			int nCodeType = (int)m_pwndWizard->SendMessage(WM_USER, MAKEWPARAM(codeTYPE, NULL), (LPARAM)(LPCSTR)strCode);
; 427  : // 			//          .
; 428  : // 			if (nCodeType<0 ||  nCodeType == 255)
; 429  : // 			{
; 430  : // 				IMasterDataManagerLast* pMasterMng = (IMasterDataManagerLast*)AfxGetPctrInterface(UUID_IMasterDataManager);
; 431  : // 				if(pMasterMng)
; 432  : // 				{
; 433  : // 					BYTE cCodeType = pMasterMng->GetCodeTypeFromCode(strCode);
; 434  : // 					
; 435  : // 					switch(cCodeType)
; 436  : // 					{
; 437  : // 						//case CMasterTypeInfo::STOCK_CHART:		nCodeType = kospiType; break;
; 438  : // 						//case CMasterTypeInfo::UPJONG_CHART:		nCodeType = indexType; break;
; 439  : // 					case CDRCodeTypeInfo::CODE_KOSPI_STOCK:
; 440  : // 						nCodeType = kospiType;
; 441  : // 						break;
; 442  : // 					case CDRCodeTypeInfo::CODE_KOSDAQ_STOCK:
; 443  : // 						nCodeType = kosdaqType;
; 444  : // 							break;
; 445  : // 					case CDRCodeTypeInfo::CODE_ELW:
; 446  : // 						nCodeType = thirdType;
; 447  : // 						break;
; 448  : // 						
; 449  : // 					case CDRCodeTypeInfo::CODE_KOSPI_UPJONG:
; 450  : // 					case CDRCodeTypeInfo::CODE_KOSDAQ_UPJONG:
; 451  : // 						nCodeType = indexType;
; 452  : // 						break;
; 453  : // 						
; 454  : // 					case CDRCodeTypeInfo::CODE_KFUTURE:
; 455  : // 					case CDRCodeTypeInfo::CODE_FUTURE_SPREAD:
; 456  : // 					case CDRCodeTypeInfo::CODE_KOPTION:
; 457  : // //KHD						nCodeType = linkFCODE; 
; 458  : // 						break;
; 459  : // 						
; 460  : // 					case CDRCodeTypeInfo::CODE_STOCKFUT:
; 461  : // 						nCodeType = sfutureType;
; 462  : // 						break;
; 463  : // 						
; 464  : // 					case CDRCodeTypeInfo::CODE_STOCKOPT:
; 465  : // 						nCodeType = koptionType;
; 466  : // 						break;
; 467  : // 						
; 468  : // 					case CDRCodeTypeInfo::CODE_US_ITEM:
; 469  : // 						nCodeType = foreignType; 
; 470  : // 						break;
; 471  : // 						
; 472  : // 					case CDRCodeTypeInfo::CODE_FUOPT_JIPYO:
; 473  : // //KHD						nCodeType = foindexType;
; 474  : // 						break;
; 475  : // 						
; 476  : // 					case CDRCodeTypeInfo::CODE_FUOPT_COMMODITY:
; 477  : // 						nCodeType = THREE_BONDS;
; 478  : // 						break;
; 479  : // 					}
; 480  : // 				}
; 481  : // 			}
; 482  : // 			if(nCodeType>=0 && nCodeType!=255)	SetUnit(nCodeType);
; 483  : // 		}
; 484  : // 		//        .
; 485  : // 		else
; 486  : // 		{
; 487  : // 			WPARAM wp = MAKEWPARAM(drbt_GETINPUTBARMARKET, 0);
; 488  : // 
; 489  : // 			int nMarketType = m_pwndParent->GetParent()->SendMessage(RMSG_DRUSER, wp, 0);	//kospiType;
; 490  : // 			//if(nCodeType>=0 && nCodeType!=255)	SetUnit(nCodeType);	
; 491  : // 
; 492  : // 			CString strUnit;
; 493  : // 			switch(nMarketType)
; 494  : // 			{
; 495  : // 				case 0:	strUnit = ""; break;
; 496  : // 				case 1:	strUnit = ""; break;
; 497  : // 				case 2:	strUnit = ""; break;
; 498  : // 				case 3:	strUnit = ""; break;
; 499  : // 				case 4:	strUnit = ""; break;
; 500  : // 				case 5:	strUnit = "FO"; break;
; 501  : // 				case 6:	strUnit = ""; break;
; 502  : // 				default:break;
; 503  : // 			}
; 504  : // 			if(strUnit.IsEmpty()==FALSE) SetUnitEx(strUnit);
; 505  : // 		}
; 506  : // 
; 507  : // 	}
; 508  : // 	
; 509  : // 	CPoint pt;
; 510  : // 	CRect rcBtn;
; 511  : // 	m_btnCodeDlg.GetWindowRect(&rcBtn);
; 512  : // 	pt.x = rcBtn.left;
; 513  : // 	pt.y = rcBtn.bottom;
; 514  : // 
; 515  : // 	if(m_nCodeType==usCODE)
; 516  : // 	{		
; 517  : // 		CString str = (char*)m_pwndWizard->SendMessage(WM_USER, MAKEWPARAM(variantDLL, systemCC), (LPARAM)(LPCTSTR)"");
; 518  : // 
; 519  : // 		if (str ==  "F") // King Pro 
; 520  : // 			m_pwndWizard->SendMessage(WM_USER, MAKEWPARAM(codeDLL,  MAKEWORD(usCODE, 100)), MAKELPARAM(pt.x, pt.y));        
; 521  : // 		else    // Other     
; 522  : // 			m_pwndWizard->SendMessage(WM_USER, MAKEWPARAM(codeDLL,  MAKEWORD(usCODE, 0)), MAKELPARAM(pt.x, pt.y));
; 523  : // 	}
; 524  : // 	else
; 525  : // 	{
; 526  : // 		m_pwndWizard->SendMessage(WM_USER, MAKEWPARAM(codeDLL, m_nCodeType), MAKELPARAM(pt.x, pt.y));
; 527  : // 	}
; 528  : }

  00000	c2 00 00	 ret	 0
?OnBtnCodeDlg@CCodeCtrl@@IAEXXZ ENDP			; CCodeCtrl::OnBtnCodeDlg
_TEXT	ENDS
; Function compile flags: /Ogtp
; File D:\git\src\IBK\IBK_DRFN\ProjSrc\SrcSite\include\CodeCtrl.cpp
;	COMDAT ?OnSelendokCodeCtrl@CCodeCtrl@@IAEXXZ
_TEXT	SEGMENT
_strCode$ = -4						; size = 4
?OnSelendokCodeCtrl@CCodeCtrl@@IAEXXZ PROC		; CCodeCtrl::OnSelendokCodeCtrl, COMDAT
; _this$ = ecx

; 531  : {

  00000	55		 push	 ebp
  00001	8b ec		 mov	 ebp, esp
  00003	51		 push	 ecx

; 532  : 	CString strCode = GetCode();

  00004	8b 01		 mov	 eax, DWORD PTR [ecx]
  00006	8d 55 fc	 lea	 edx, DWORD PTR _strCode$[ebp]
  00009	52		 push	 edx
  0000a	ff 90 84 01 00
	00		 call	 DWORD PTR [eax+388]

; 533  : 	//AfxMessageBox(strCode);
; 534  : 	
; 535  : 	// 	if(m_pMSDataMng)
; 536  : 	// 	{
; 537  : 	// 		SetChartActivation(CENTER_CHART);	//Center Chart 
; 538  : 	// 		SendTr_ChartData(strCode);
; 539  : 	// 		m_ctrlCodeName.SetWindowText(m_pMSDataMng->GetCodeName(strCode));
; 540  : 	// 	}
; 541  : }

  00010	8d 4d fc	 lea	 ecx, DWORD PTR _strCode$[ebp]
  00013	ff 15 00 00 00
	00		 call	 DWORD PTR __imp_??1?$CStringT@DV?$StrTraitMFC_DLL@DV?$ChTraitsCRT@D@ATL@@@@@ATL@@QAE@XZ
  00019	8b e5		 mov	 esp, ebp
  0001b	5d		 pop	 ebp
  0001c	c3		 ret	 0
?OnSelendokCodeCtrl@CCodeCtrl@@IAEXXZ ENDP		; CCodeCtrl::OnSelendokCodeCtrl
_TEXT	ENDS
; Function compile flags: /Ogtp
; File D:\git\src\IBK\IBK_DRFN\ProjSrc\SrcSite\include\CodeCtrl.cpp
; File C:\Program Files (x86)\Microsoft Visual Studio\2019\Community\VC\Tools\MSVC\14.29.30133\atlmfc\include\afxwin1.inl
; File D:\git\src\IBK\IBK_DRFN\ProjSrc\SrcSite\include\CodeCtrl.cpp
; File C:\Program Files (x86)\Microsoft Visual Studio\2019\Community\VC\Tools\MSVC\14.29.30133\atlmfc\include\cstringt.h
; File D:\git\src\IBK\IBK_DRFN\ProjSrc\SrcSite\include\CodeCtrl.cpp
; File C:\Program Files (x86)\Microsoft Visual Studio\2019\Community\VC\Tools\MSVC\14.29.30133\atlmfc\include\cstringt.h
; File C:\Program Files (x86)\Microsoft Visual Studio\2019\Community\VC\Tools\MSVC\14.29.30133\atlmfc\include\atlsimpstr.h
; File C:\Program Files (x86)\Microsoft Visual Studio\2019\Community\VC\Tools\MSVC\14.29.30133\atlmfc\include\cstringt.h
; File D:\git\src\IBK\IBK_DRFN\ProjSrc\SrcSite\include\CodeCtrl.cpp
; File C:\Program Files (x86)\Microsoft Visual Studio\2019\Community\VC\Tools\MSVC\14.29.30133\atlmfc\include\cstringt.h
; File D:\git\src\IBK\IBK_DRFN\ProjSrc\SrcSite\include\CodeCtrl.cpp
; File C:\Program Files (x86)\Microsoft Visual Studio\2019\Community\VC\Tools\MSVC\14.29.30133\atlmfc\include\afxwin1.inl
; File D:\git\src\IBK\IBK_DRFN\ProjSrc\SrcSite\include\CodeCtrl.cpp
; File C:\Program Files (x86)\Microsoft Visual Studio\2019\Community\VC\Tools\MSVC\14.29.30133\atlmfc\include\cstringt.h
; File D:\git\src\IBK\IBK_DRFN\ProjSrc\SrcSite\include\CodeCtrl.cpp
; File C:\Program Files (x86)\Microsoft Visual Studio\2019\Community\VC\Tools\MSVC\14.29.30133\atlmfc\include\cstringt.h
; File C:\Program Files (x86)\Microsoft Visual Studio\2019\Community\VC\Tools\MSVC\14.29.30133\atlmfc\include\atlsimpstr.h
; File C:\Program Files (x86)\Microsoft Visual Studio\2019\Community\VC\Tools\MSVC\14.29.30133\atlmfc\include\cstringt.h
; File D:\git\src\IBK\IBK_DRFN\ProjSrc\SrcSite\include\CodeCtrl.cpp
; File C:\Program Files (x86)\Microsoft Visual Studio\2019\Community\VC\Tools\MSVC\14.29.30133\atlmfc\include\afxwin1.inl
; File D:\git\src\IBK\IBK_DRFN\ProjSrc\SrcSite\include\CodeCtrl.cpp
; File C:\Program Files (x86)\Microsoft Visual Studio\2019\Community\VC\Tools\MSVC\14.29.30133\atlmfc\include\cstringt.h
; File D:\git\src\IBK\IBK_DRFN\ProjSrc\SrcSite\include\CodeCtrl.cpp
; File C:\Program Files (x86)\Microsoft Visual Studio\2019\Community\VC\Tools\MSVC\14.29.30133\atlmfc\include\cstringt.h
; File C:\Program Files (x86)\Microsoft Visual Studio\2019\Community\VC\Tools\MSVC\14.29.30133\atlmfc\include\atlsimpstr.h
; File C:\Program Files (x86)\Microsoft Visual Studio\2019\Community\VC\Tools\MSVC\14.29.30133\atlmfc\include\cstringt.h
; File D:\git\src\IBK\IBK_DRFN\ProjSrc\SrcSite\include\CodeCtrl.cpp
; File C:\Program Files (x86)\Microsoft Visual Studio\2019\Community\VC\Tools\MSVC\14.29.30133\atlmfc\include\afxwin1.inl
; File D:\git\src\IBK\IBK_DRFN\ProjSrc\SrcSite\include\CodeCtrl.cpp
; File C:\Program Files (x86)\Microsoft Visual Studio\2019\Community\VC\Tools\MSVC\14.29.30133\atlmfc\include\atltypes.h
; File D:\git\src\IBK\IBK_DRFN\ProjSrc\SrcSite\include\CodeCtrl.cpp
; File C:\Program Files (x86)\Microsoft Visual Studio\2019\Community\VC\Tools\MSVC\14.29.30133\atlmfc\include\atltypes.h
; File D:\git\src\IBK\IBK_DRFN\ProjSrc\SrcSite\include\CodeCtrl.cpp
; File C:\Program Files (x86)\Microsoft Visual Studio\2019\Community\VC\Tools\MSVC\14.29.30133\atlmfc\include\afxwin1.inl
; File D:\git\src\IBK\IBK_DRFN\ProjSrc\SrcSite\include\CodeCtrl.cpp
;	COMDAT ?_DoCreateCodeDlgBtn@CCodeCtrl@@IAEHXZ
_TEXT	SEGMENT
$T2 = -52						; size = 4
_bitmap$ = -48						; size = 8
_strBitmapFile$ = -40					; size = 4
$T3 = -36						; size = 4
$T4 = -36						; size = 4
$T5 = -36						; size = 4
$T6 = -32						; size = 16
__$ArrayPad$ = -16					; size = 4
__$EHRec$ = -12						; size = 12
?_DoCreateCodeDlgBtn@CCodeCtrl@@IAEHXZ PROC		; CCodeCtrl::_DoCreateCodeDlgBtn, COMDAT
; _this$ = ecx

; 367  : {

  00000	55		 push	 ebp
  00001	8b ec		 mov	 ebp, esp
  00003	6a ff		 push	 -1
  00005	68 00 00 00 00	 push	 __ehhandler$?_DoCreateCodeDlgBtn@CCodeCtrl@@IAEHXZ
  0000a	64 a1 00 00 00
	00		 mov	 eax, DWORD PTR fs:0
  00010	50		 push	 eax
  00011	83 ec 28	 sub	 esp, 40			; 00000028H
  00014	a1 00 00 00 00	 mov	 eax, DWORD PTR ___security_cookie
  00019	33 c5		 xor	 eax, ebp
  0001b	89 45 f0	 mov	 DWORD PTR __$ArrayPad$[ebp], eax
  0001e	53		 push	 ebx
  0001f	56		 push	 esi
  00020	57		 push	 edi
  00021	50		 push	 eax
  00022	8d 45 f4	 lea	 eax, DWORD PTR __$EHRec$[ebp]
  00025	64 a3 00 00 00
	00		 mov	 DWORD PTR fs:0, eax
  0002b	8b d9		 mov	 ebx, ecx
  0002d	c7 45 cc 00 00
	00 00		 mov	 DWORD PTR $T2[ebp], 0
; File C:\Program Files (x86)\Microsoft Visual Studio\2019\Community\VC\Tools\MSVC\14.29.30133\atlmfc\include\afxwin1.inl

; 70   : 	{ m_hObject = NULL; }

  00034	c7 45 d4 00 00
	00 00		 mov	 DWORD PTR _bitmap$[ebp+4], 0

; 177  : 	{ }

  0003b	c7 45 d0 00 00
	00 00		 mov	 DWORD PTR _bitmap$[ebp], OFFSET ??_7CBitmap@@6B@
; File D:\git\src\IBK\IBK_DRFN\ProjSrc\SrcSite\include\CodeCtrl.cpp

; 369  : 	CString strBitmapFile = m_szRootPath + "\\Image\\";

  00042	68 00 00 00 00	 push	 OFFSET ??_C@_07KHBMGAOF@?2Image?2@
  00047	8d 83 1c 02 00
	00		 lea	 eax, DWORD PTR [ebx+540]
  0004d	c7 45 fc 00 00
	00 00		 mov	 DWORD PTR __$EHRec$[ebp+8], 0
  00054	50		 push	 eax
  00055	8d 45 d8	 lea	 eax, DWORD PTR _strBitmapFile$[ebp]
  00058	50		 push	 eax
  00059	e8 00 00 00 00	 call	 ??HATL@@YA?AV?$CStringT@DV?$StrTraitMFC_DLL@DV?$ChTraitsCRT@D@ATL@@@@@0@ABV10@PBD@Z ; ATL::operator+
  0005e	83 c4 0c	 add	 esp, 12			; 0000000cH

; 370  : 	
; 371  : 	if(!m_btnImageList.Create(20, 20, ILC_MASK | ILC_COLORDDB, 1, 1) )

  00061	6a 01		 push	 1
  00063	6a 01		 push	 1
  00065	68 ff 00 00 00	 push	 255			; 000000ffH
  0006a	6a 14		 push	 20			; 00000014H
  0006c	8d 8b a8 00 00
	00		 lea	 ecx, DWORD PTR [ebx+168]
  00072	c6 45 fc 01	 mov	 BYTE PTR __$EHRec$[ebp+8], 1
  00076	6a 14		 push	 20			; 00000014H
  00078	e8 00 00 00 00	 call	 ?Create@CImageList@@QAEHHHIHH@Z ; CImageList::Create
  0007d	85 c0		 test	 eax, eax
  0007f	75 13		 jne	 SHORT $LN2@DoCreateCo

; 372  : 	{
; 373  : 		AfxMessageBox("Can not Find W15_H15.bmp file");	

  00081	50		 push	 eax
  00082	50		 push	 eax
  00083	68 00 00 00 00	 push	 OFFSET ??_C@_0BO@DHAEAEL@Can?5not?5Find?5W15_H15?4bmp?5file@
  00088	e8 00 00 00 00	 call	 ?AfxMessageBox@@YGHPBDII@Z ; AfxMessageBox
  0008d	33 f6		 xor	 esi, esi
  0008f	e9 d6 01 00 00	 jmp	 $LN10@DoCreateCo
$LN2@DoCreateCo:
; File C:\Program Files (x86)\Microsoft Visual Studio\2019\Community\VC\Tools\MSVC\14.29.30133\atlmfc\include\cstringt.h

; 2401 : 		CStringT strResult( str1.GetManager() );

  00094	8d 4d d8	 lea	 ecx, DWORD PTR _strBitmapFile$[ebp]
; File D:\git\src\IBK\IBK_DRFN\ProjSrc\SrcSite\include\CodeCtrl.cpp

; 377  : 	bitmap.Attach ((HBITMAP)::LoadImage(NULL, strBitmapFile + ".bmp", IMAGE_BITMAP, 0, 0, 

  00097	c6 45 fc 02	 mov	 BYTE PTR __$EHRec$[ebp+8], 2
; File C:\Program Files (x86)\Microsoft Visual Studio\2019\Community\VC\Tools\MSVC\14.29.30133\atlmfc\include\cstringt.h

; 2401 : 		CStringT strResult( str1.GetManager() );

  0009b	ff 15 00 00 00
	00		 call	 DWORD PTR __imp_?GetManager@?$CStringT@DV?$StrTraitMFC_DLL@DV?$ChTraitsCRT@D@ATL@@@@@ATL@@QBEPAUIAtlStringMgr@2@XZ
  000a1	50		 push	 eax
  000a2	8d 4d dc	 lea	 ecx, DWORD PTR $T5[ebp]
  000a5	ff 15 00 00 00
	00		 call	 DWORD PTR __imp_??0?$CStringT@DV?$StrTraitMFC_DLL@DV?$ChTraitsCRT@D@ATL@@@@@ATL@@QAE@PAUIAtlStringMgr@1@@Z
; File C:\Program Files (x86)\Microsoft Visual Studio\2019\Community\VC\Tools\MSVC\14.29.30133\atlmfc\include\atlsimpstr.h

; 519  : 		return( GetData()->nDataLength );

  000ab	8b 45 d8	 mov	 eax, DWORD PTR _strBitmapFile$[ebp]
; File C:\Program Files (x86)\Microsoft Visual Studio\2019\Community\VC\Tools\MSVC\14.29.30133\atlmfc\include\cstringt.h

; 2403 : 		CThisSimpleString::Concatenate( strResult, str1, str1.GetLength(), psz2, CThisSimpleString::StringLength( psz2 ) );

  000ae	6a 08		 push	 8
  000b0	68 00 00 00 00	 push	 OFFSET ??_C@_08BHAJBOJL@?$LA?K?$LL?v?4bmp@

; 2404 : 
; 2405 : 		return( strResult );

  000b5	c7 45 cc 02 00
	00 00		 mov	 DWORD PTR $T2[ebp], 2
  000bc	ff 70 f4	 push	 DWORD PTR [eax-12]
  000bf	50		 push	 eax
  000c0	8d 45 dc	 lea	 eax, DWORD PTR $T5[ebp]
  000c3	50		 push	 eax
  000c4	ff 15 00 00 00
	00		 call	 DWORD PTR __imp_?Concatenate@?$CSimpleStringT@D$00@ATL@@KAXAAV12@PBDH1H@Z
; File D:\git\src\IBK\IBK_DRFN\ProjSrc\SrcSite\include\CodeCtrl.cpp

; 377  : 	bitmap.Attach ((HBITMAP)::LoadImage(NULL, strBitmapFile + ".bmp", IMAGE_BITMAP, 0, 0, 

  000ca	8b 3d 00 00 00
	00		 mov	 edi, DWORD PTR __imp__LoadImageA@24
; File C:\Program Files (x86)\Microsoft Visual Studio\2019\Community\VC\Tools\MSVC\14.29.30133\atlmfc\include\cstringt.h

; 2403 : 		CThisSimpleString::Concatenate( strResult, str1, str1.GetLength(), psz2, CThisSimpleString::StringLength( psz2 ) );

  000d0	83 c4 14	 add	 esp, 20			; 00000014H
; File D:\git\src\IBK\IBK_DRFN\ProjSrc\SrcSite\include\CodeCtrl.cpp

; 377  : 	bitmap.Attach ((HBITMAP)::LoadImage(NULL, strBitmapFile + ".bmp", IMAGE_BITMAP, 0, 0, 

  000d3	68 50 20 00 00	 push	 8272			; 00002050H
  000d8	6a 00		 push	 0
  000da	6a 00		 push	 0
  000dc	6a 00		 push	 0
  000de	ff 75 dc	 push	 DWORD PTR $T5[ebp]
  000e1	6a 00		 push	 0
  000e3	ff d7		 call	 edi
  000e5	50		 push	 eax
  000e6	8d 4d d0	 lea	 ecx, DWORD PTR _bitmap$[ebp]
  000e9	e8 00 00 00 00	 call	 ?Attach@CGdiObject@@QAEHPAX@Z ; CGdiObject::Attach
  000ee	8d 4d dc	 lea	 ecx, DWORD PTR $T5[ebp]
  000f1	c6 45 fc 01	 mov	 BYTE PTR __$EHRec$[ebp+8], 1
  000f5	ff 15 00 00 00
	00		 call	 DWORD PTR __imp_??1?$CStringT@DV?$StrTraitMFC_DLL@DV?$ChTraitsCRT@D@ATL@@@@@ATL@@QAE@XZ
; File C:\Program Files (x86)\Microsoft Visual Studio\2019\Community\VC\Tools\MSVC\14.29.30133\atlmfc\include\afxwin1.inl

; 859  : 	{ ASSERT(m_hImageList != NULL); return ImageList_AddMasked(m_hImageList, (HBITMAP)pbmImage->GetSafeHandle(), crMask); }

  000fb	8b 35 00 00 00
	00		 mov	 esi, DWORD PTR __imp__ImageList_AddMasked@12
  00101	68 ff 00 ff 00	 push	 16711935		; 00ff00ffH
  00106	ff 75 d4	 push	 DWORD PTR _bitmap$[ebp+4]
  00109	ff b3 ac 00 00
	00		 push	 DWORD PTR [ebx+172]
  0010f	ff d6		 call	 esi
; File D:\git\src\IBK\IBK_DRFN\ProjSrc\SrcSite\include\CodeCtrl.cpp

; 380  : 	bitmap.DeleteObject();

  00111	8d 4d d0	 lea	 ecx, DWORD PTR _bitmap$[ebp]
  00114	e8 00 00 00 00	 call	 ?DeleteObject@CGdiObject@@QAEHXZ ; CGdiObject::DeleteObject
; File C:\Program Files (x86)\Microsoft Visual Studio\2019\Community\VC\Tools\MSVC\14.29.30133\atlmfc\include\cstringt.h

; 2401 : 		CStringT strResult( str1.GetManager() );

  00119	8d 4d d8	 lea	 ecx, DWORD PTR _strBitmapFile$[ebp]
; File D:\git\src\IBK\IBK_DRFN\ProjSrc\SrcSite\include\CodeCtrl.cpp

; 382  : 	bitmap.Attach ((HBITMAP)::LoadImage(NULL, strBitmapFile + "_DN.bmp", IMAGE_BITMAP, 0, 0, 

  0011c	c6 45 fc 03	 mov	 BYTE PTR __$EHRec$[ebp+8], 3
; File C:\Program Files (x86)\Microsoft Visual Studio\2019\Community\VC\Tools\MSVC\14.29.30133\atlmfc\include\cstringt.h

; 2401 : 		CStringT strResult( str1.GetManager() );

  00120	ff 15 00 00 00
	00		 call	 DWORD PTR __imp_?GetManager@?$CStringT@DV?$StrTraitMFC_DLL@DV?$ChTraitsCRT@D@ATL@@@@@ATL@@QBEPAUIAtlStringMgr@2@XZ
  00126	50		 push	 eax
  00127	8d 4d dc	 lea	 ecx, DWORD PTR $T4[ebp]
  0012a	ff 15 00 00 00
	00		 call	 DWORD PTR __imp_??0?$CStringT@DV?$StrTraitMFC_DLL@DV?$ChTraitsCRT@D@ATL@@@@@ATL@@QAE@PAUIAtlStringMgr@1@@Z
; File C:\Program Files (x86)\Microsoft Visual Studio\2019\Community\VC\Tools\MSVC\14.29.30133\atlmfc\include\atlsimpstr.h

; 519  : 		return( GetData()->nDataLength );

  00130	8b 45 d8	 mov	 eax, DWORD PTR _strBitmapFile$[ebp]
; File C:\Program Files (x86)\Microsoft Visual Studio\2019\Community\VC\Tools\MSVC\14.29.30133\atlmfc\include\cstringt.h

; 2403 : 		CThisSimpleString::Concatenate( strResult, str1, str1.GetLength(), psz2, CThisSimpleString::StringLength( psz2 ) );

  00133	6a 0b		 push	 11			; 0000000bH
  00135	68 00 00 00 00	 push	 OFFSET ??_C@_0M@GIEIFFOK@?$LA?K?$LL?v_DN?4bmp@

; 2404 : 
; 2405 : 		return( strResult );

  0013a	c7 45 cc 04 00
	00 00		 mov	 DWORD PTR $T2[ebp], 4
  00141	ff 70 f4	 push	 DWORD PTR [eax-12]
  00144	50		 push	 eax
  00145	8d 45 dc	 lea	 eax, DWORD PTR $T4[ebp]
  00148	50		 push	 eax
  00149	ff 15 00 00 00
	00		 call	 DWORD PTR __imp_?Concatenate@?$CSimpleStringT@D$00@ATL@@KAXAAV12@PBDH1H@Z
  0014f	83 c4 14	 add	 esp, 20			; 00000014H
; File D:\git\src\IBK\IBK_DRFN\ProjSrc\SrcSite\include\CodeCtrl.cpp

; 382  : 	bitmap.Attach ((HBITMAP)::LoadImage(NULL, strBitmapFile + "_DN.bmp", IMAGE_BITMAP, 0, 0, 

  00152	68 50 20 00 00	 push	 8272			; 00002050H
  00157	6a 00		 push	 0
  00159	6a 00		 push	 0
  0015b	6a 00		 push	 0
  0015d	ff 75 dc	 push	 DWORD PTR $T4[ebp]
  00160	6a 00		 push	 0
  00162	ff d7		 call	 edi
  00164	50		 push	 eax
  00165	8d 4d d0	 lea	 ecx, DWORD PTR _bitmap$[ebp]
  00168	e8 00 00 00 00	 call	 ?Attach@CGdiObject@@QAEHPAX@Z ; CGdiObject::Attach
  0016d	8d 4d dc	 lea	 ecx, DWORD PTR $T4[ebp]
  00170	c6 45 fc 01	 mov	 BYTE PTR __$EHRec$[ebp+8], 1
  00174	ff 15 00 00 00
	00		 call	 DWORD PTR __imp_??1?$CStringT@DV?$StrTraitMFC_DLL@DV?$ChTraitsCRT@D@ATL@@@@@ATL@@QAE@XZ
; File C:\Program Files (x86)\Microsoft Visual Studio\2019\Community\VC\Tools\MSVC\14.29.30133\atlmfc\include\afxwin1.inl

; 859  : 	{ ASSERT(m_hImageList != NULL); return ImageList_AddMasked(m_hImageList, (HBITMAP)pbmImage->GetSafeHandle(), crMask); }

  0017a	68 ff 00 ff 00	 push	 16711935		; 00ff00ffH
  0017f	ff 75 d4	 push	 DWORD PTR _bitmap$[ebp+4]
  00182	ff b3 ac 00 00
	00		 push	 DWORD PTR [ebx+172]
  00188	ff d6		 call	 esi
; File D:\git\src\IBK\IBK_DRFN\ProjSrc\SrcSite\include\CodeCtrl.cpp

; 385  : 	bitmap.DeleteObject();

  0018a	8d 4d d0	 lea	 ecx, DWORD PTR _bitmap$[ebp]
  0018d	e8 00 00 00 00	 call	 ?DeleteObject@CGdiObject@@QAEHXZ ; CGdiObject::DeleteObject
; File C:\Program Files (x86)\Microsoft Visual Studio\2019\Community\VC\Tools\MSVC\14.29.30133\atlmfc\include\cstringt.h

; 2401 : 		CStringT strResult( str1.GetManager() );

  00192	8d 4d d8	 lea	 ecx, DWORD PTR _strBitmapFile$[ebp]
; File D:\git\src\IBK\IBK_DRFN\ProjSrc\SrcSite\include\CodeCtrl.cpp

; 387  : 	bitmap.Attach ((HBITMAP)::LoadImage(NULL, strBitmapFile + "_EN.bmp", IMAGE_BITMAP, 0, 0, 

  00195	c6 45 fc 04	 mov	 BYTE PTR __$EHRec$[ebp+8], 4
; File C:\Program Files (x86)\Microsoft Visual Studio\2019\Community\VC\Tools\MSVC\14.29.30133\atlmfc\include\cstringt.h

; 2401 : 		CStringT strResult( str1.GetManager() );

  00199	ff 15 00 00 00
	00		 call	 DWORD PTR __imp_?GetManager@?$CStringT@DV?$StrTraitMFC_DLL@DV?$ChTraitsCRT@D@ATL@@@@@ATL@@QBEPAUIAtlStringMgr@2@XZ
  0019f	50		 push	 eax
  001a0	8d 4d dc	 lea	 ecx, DWORD PTR $T3[ebp]
  001a3	ff 15 00 00 00
	00		 call	 DWORD PTR __imp_??0?$CStringT@DV?$StrTraitMFC_DLL@DV?$ChTraitsCRT@D@ATL@@@@@ATL@@QAE@PAUIAtlStringMgr@1@@Z
; File C:\Program Files (x86)\Microsoft Visual Studio\2019\Community\VC\Tools\MSVC\14.29.30133\atlmfc\include\atlsimpstr.h

; 519  : 		return( GetData()->nDataLength );

  001a9	8b 45 d8	 mov	 eax, DWORD PTR _strBitmapFile$[ebp]
; File C:\Program Files (x86)\Microsoft Visual Studio\2019\Community\VC\Tools\MSVC\14.29.30133\atlmfc\include\cstringt.h

; 2403 : 		CThisSimpleString::Concatenate( strResult, str1, str1.GetLength(), psz2, CThisSimpleString::StringLength( psz2 ) );

  001ac	6a 0b		 push	 11			; 0000000bH
  001ae	68 00 00 00 00	 push	 OFFSET ??_C@_0M@MODPFOFO@?$LA?K?$LL?v_EN?4bmp@

; 2404 : 
; 2405 : 		return( strResult );

  001b3	c7 45 cc 08 00
	00 00		 mov	 DWORD PTR $T2[ebp], 8
  001ba	ff 70 f4	 push	 DWORD PTR [eax-12]
  001bd	50		 push	 eax
  001be	8d 45 dc	 lea	 eax, DWORD PTR $T3[ebp]
  001c1	50		 push	 eax
  001c2	ff 15 00 00 00
	00		 call	 DWORD PTR __imp_?Concatenate@?$CSimpleStringT@D$00@ATL@@KAXAAV12@PBDH1H@Z
  001c8	83 c4 14	 add	 esp, 20			; 00000014H
; File D:\git\src\IBK\IBK_DRFN\ProjSrc\SrcSite\include\CodeCtrl.cpp

; 387  : 	bitmap.Attach ((HBITMAP)::LoadImage(NULL, strBitmapFile + "_EN.bmp", IMAGE_BITMAP, 0, 0, 

  001cb	68 50 20 00 00	 push	 8272			; 00002050H
  001d0	6a 00		 push	 0
  001d2	6a 00		 push	 0
  001d4	6a 00		 push	 0
  001d6	ff 75 dc	 push	 DWORD PTR $T3[ebp]
  001d9	6a 00		 push	 0
  001db	ff d7		 call	 edi
  001dd	50		 push	 eax
  001de	8d 4d d0	 lea	 ecx, DWORD PTR _bitmap$[ebp]
  001e1	e8 00 00 00 00	 call	 ?Attach@CGdiObject@@QAEHPAX@Z ; CGdiObject::Attach
  001e6	8d 4d dc	 lea	 ecx, DWORD PTR $T3[ebp]
  001e9	c6 45 fc 01	 mov	 BYTE PTR __$EHRec$[ebp+8], 1
  001ed	ff 15 00 00 00
	00		 call	 DWORD PTR __imp_??1?$CStringT@DV?$StrTraitMFC_DLL@DV?$ChTraitsCRT@D@ATL@@@@@ATL@@QAE@XZ
; File C:\Program Files (x86)\Microsoft Visual Studio\2019\Community\VC\Tools\MSVC\14.29.30133\atlmfc\include\afxwin1.inl

; 859  : 	{ ASSERT(m_hImageList != NULL); return ImageList_AddMasked(m_hImageList, (HBITMAP)pbmImage->GetSafeHandle(), crMask); }

  001f3	68 ff 00 ff 00	 push	 16711935		; 00ff00ffH
  001f8	ff 75 d4	 push	 DWORD PTR _bitmap$[ebp+4]
  001fb	ff b3 ac 00 00
	00		 push	 DWORD PTR [ebx+172]
  00201	ff d6		 call	 esi
; File D:\git\src\IBK\IBK_DRFN\ProjSrc\SrcSite\include\CodeCtrl.cpp

; 390  : 	bitmap.DeleteObject();

  00203	8d 4d d0	 lea	 ecx, DWORD PTR _bitmap$[ebp]
  00206	e8 00 00 00 00	 call	 ?DeleteObject@CGdiObject@@QAEHXZ ; CGdiObject::DeleteObject

; 392  : 	m_btnCodeDlg.Create("",WS_CHILD|WS_VISIBLE|BS_PUSHBUTTON|WS_CLIPSIBLINGS,CRect(0,0,20,20), this, CCodeCtrl_BtnCodeDlg);

  0020b	8b 83 b0 00 00
	00		 mov	 eax, DWORD PTR [ebx+176]
  00211	8d 4d e0	 lea	 ecx, DWORD PTR $T6[ebp]
; File C:\Program Files (x86)\Microsoft Visual Studio\2019\Community\VC\Tools\MSVC\14.29.30133\atlmfc\include\atltypes.h

; 540  : 	left = l;

  00214	0f 28 05 00 00
	00 00		 movaps	 xmm0, XMMWORD PTR __xmm@00000014000000140000000000000000
; File D:\git\src\IBK\IBK_DRFN\ProjSrc\SrcSite\include\CodeCtrl.cpp

; 392  : 	m_btnCodeDlg.Create("",WS_CHILD|WS_VISIBLE|BS_PUSHBUTTON|WS_CLIPSIBLINGS,CRect(0,0,20,20), this, CCodeCtrl_BtnCodeDlg);

  0021b	6a 02		 push	 2
  0021d	53		 push	 ebx
  0021e	51		 push	 ecx
  0021f	68 00 00 00 54	 push	 1409286144		; 54000000H
  00224	68 00 00 00 00	 push	 OFFSET ??_C@_00CNPNBAHC@@
  00229	8d 8b b0 00 00
	00		 lea	 ecx, DWORD PTR [ebx+176]
; File C:\Program Files (x86)\Microsoft Visual Studio\2019\Community\VC\Tools\MSVC\14.29.30133\atlmfc\include\atltypes.h

; 540  : 	left = l;

  0022f	0f 11 45 e0	 movups	 XMMWORD PTR $T6[ebp], xmm0
; File D:\git\src\IBK\IBK_DRFN\ProjSrc\SrcSite\include\CodeCtrl.cpp

; 392  : 	m_btnCodeDlg.Create("",WS_CHILD|WS_VISIBLE|BS_PUSHBUTTON|WS_CLIPSIBLINGS,CRect(0,0,20,20), this, CCodeCtrl_BtnCodeDlg);

  00233	ff 90 6c 01 00
	00		 call	 DWORD PTR [eax+364]

; 393  : 	m_btnCodeDlg.FP_vSetImage(&m_btnImageList, 0, 1, FALSE, "", FALSE, -1, 2);

  00239	6a 02		 push	 2
  0023b	6a ff		 push	 -1
  0023d	6a 00		 push	 0
  0023f	51		 push	 ecx
  00240	8b cc		 mov	 ecx, esp
  00242	68 00 00 00 00	 push	 OFFSET ??_C@_00CNPNBAHC@@
  00247	ff 15 00 00 00
	00		 call	 DWORD PTR __imp_??0?$CStringT@DV?$StrTraitMFC_DLL@DV?$ChTraitsCRT@D@ATL@@@@@ATL@@QAE@PBD@Z
  0024d	6a 00		 push	 0
  0024f	6a 01		 push	 1
  00251	6a 00		 push	 0
  00253	8d 83 a8 00 00
	00		 lea	 eax, DWORD PTR [ebx+168]
  00259	50		 push	 eax
  0025a	8d 8b b0 00 00
	00		 lea	 ecx, DWORD PTR [ebx+176]
  00260	e8 00 00 00 00	 call	 ?FP_vSetImage@CILButton@@QAEXPAVCImageList@@HHHV?$CStringT@DV?$StrTraitMFC_DLL@DV?$ChTraitsCRT@D@ATL@@@@@ATL@@HHH@Z ; CILButton::FP_vSetImage

; 395  : 	return TRUE;

  00265	be 01 00 00 00	 mov	 esi, 1
$LN10@DoCreateCo:
  0026a	8d 4d d8	 lea	 ecx, DWORD PTR _strBitmapFile$[ebp]
  0026d	ff 15 00 00 00
	00		 call	 DWORD PTR __imp_??1?$CStringT@DV?$StrTraitMFC_DLL@DV?$ChTraitsCRT@D@ATL@@@@@ATL@@QAE@XZ
; File C:\Program Files (x86)\Microsoft Visual Studio\2019\Community\VC\Tools\MSVC\14.29.30133\atlmfc\include\afxwin1.inl

; 179  : 	{ }

  00273	8d 4d d0	 lea	 ecx, DWORD PTR _bitmap$[ebp]
  00276	c7 45 d0 00 00
	00 00		 mov	 DWORD PTR _bitmap$[ebp], OFFSET ??_7CBitmap@@6B@
  0027d	e8 00 00 00 00	 call	 ??1CGdiObject@@UAE@XZ	; CGdiObject::~CGdiObject
; File D:\git\src\IBK\IBK_DRFN\ProjSrc\SrcSite\include\CodeCtrl.cpp

; 395  : 	return TRUE;

  00282	8b c6		 mov	 eax, esi

; 396  : }

  00284	8b 4d f4	 mov	 ecx, DWORD PTR __$EHRec$[ebp]
  00287	64 89 0d 00 00
	00 00		 mov	 DWORD PTR fs:0, ecx
  0028e	59		 pop	 ecx
  0028f	5f		 pop	 edi
  00290	5e		 pop	 esi
  00291	5b		 pop	 ebx
  00292	8b 4d f0	 mov	 ecx, DWORD PTR __$ArrayPad$[ebp]
  00295	33 cd		 xor	 ecx, ebp
  00297	e8 00 00 00 00	 call	 @__security_check_cookie@4
  0029c	8b e5		 mov	 esp, ebp
  0029e	5d		 pop	 ebp
  0029f	c3		 ret	 0
_TEXT	ENDS
;	COMDAT text$x
text$x	SEGMENT
__unwindfunclet$?_DoCreateCodeDlgBtn@CCodeCtrl@@IAEHXZ$0:
  00000	8d 4d d0	 lea	 ecx, DWORD PTR _bitmap$[ebp]
  00003	e9 00 00 00 00	 jmp	 ??1CBitmap@@UAE@XZ	; CBitmap::~CBitmap
__unwindfunclet$?_DoCreateCodeDlgBtn@CCodeCtrl@@IAEHXZ$1:
  00008	8d 4d d8	 lea	 ecx, DWORD PTR _strBitmapFile$[ebp]
  0000b	ff 25 00 00 00
	00		 jmp	 DWORD PTR __imp_??1?$CStringT@DV?$StrTraitMFC_DLL@DV?$ChTraitsCRT@D@ATL@@@@@ATL@@QAE@XZ
__unwindfunclet$?_DoCreateCodeDlgBtn@CCodeCtrl@@IAEHXZ$8:
  00011	8b 45 cc	 mov	 eax, DWORD PTR $T2[ebp]
  00014	83 e0 02	 and	 eax, 2
  00017	0f 84 0d 00 00
	00		 je	 $LN34@DoCreateCo
  0001d	83 65 cc fd	 and	 DWORD PTR $T2[ebp], -3	; fffffffdH
  00021	8d 4d dc	 lea	 ecx, DWORD PTR $T5[ebp]
  00024	ff 25 00 00 00
	00		 jmp	 DWORD PTR __imp_??1?$CStringT@DV?$StrTraitMFC_DLL@DV?$ChTraitsCRT@D@ATL@@@@@ATL@@QAE@XZ
$LN34@DoCreateCo:
  0002a	c3		 ret	 0
__unwindfunclet$?_DoCreateCodeDlgBtn@CCodeCtrl@@IAEHXZ$9:
  0002b	8b 45 cc	 mov	 eax, DWORD PTR $T2[ebp]
  0002e	83 e0 04	 and	 eax, 4
  00031	0f 84 0d 00 00
	00		 je	 $LN55@DoCreateCo
  00037	83 65 cc fb	 and	 DWORD PTR $T2[ebp], -5	; fffffffbH
  0003b	8d 4d dc	 lea	 ecx, DWORD PTR $T4[ebp]
  0003e	ff 25 00 00 00
	00		 jmp	 DWORD PTR __imp_??1?$CStringT@DV?$StrTraitMFC_DLL@DV?$ChTraitsCRT@D@ATL@@@@@ATL@@QAE@XZ
$LN55@DoCreateCo:
  00044	c3		 ret	 0
__unwindfunclet$?_DoCreateCodeDlgBtn@CCodeCtrl@@IAEHXZ$10:
  00045	8b 45 cc	 mov	 eax, DWORD PTR $T2[ebp]
  00048	83 e0 08	 and	 eax, 8
  0004b	0f 84 0d 00 00
	00		 je	 $LN76@DoCreateCo
  00051	83 65 cc f7	 and	 DWORD PTR $T2[ebp], -9	; fffffff7H
  00055	8d 4d dc	 lea	 ecx, DWORD PTR $T3[ebp]
  00058	ff 25 00 00 00
	00		 jmp	 DWORD PTR __imp_??1?$CStringT@DV?$StrTraitMFC_DLL@DV?$ChTraitsCRT@D@ATL@@@@@ATL@@QAE@XZ
$LN76@DoCreateCo:
  0005e	c3		 ret	 0
  0005f	cc		 int	 3
  00060	cc		 int	 3
  00061	cc		 int	 3
  00062	cc		 int	 3
  00063	cc		 int	 3
__ehhandler$?_DoCreateCodeDlgBtn@CCodeCtrl@@IAEHXZ:
  00064	90		 npad	 1
  00065	90		 npad	 1
  00066	8b 54 24 08	 mov	 edx, DWORD PTR [esp+8]
  0006a	8d 42 0c	 lea	 eax, DWORD PTR [edx+12]
  0006d	8b 4a c8	 mov	 ecx, DWORD PTR [edx-56]
  00070	33 c8		 xor	 ecx, eax
  00072	e8 00 00 00 00	 call	 @__security_check_cookie@4
  00077	8b 4a fc	 mov	 ecx, DWORD PTR [edx-4]
  0007a	33 c8		 xor	 ecx, eax
  0007c	e8 00 00 00 00	 call	 @__security_check_cookie@4
  00081	b8 00 00 00 00	 mov	 eax, OFFSET __ehfuncinfo$?_DoCreateCodeDlgBtn@CCodeCtrl@@IAEHXZ
  00086	e9 00 00 00 00	 jmp	 ___CxxFrameHandler3
text$x	ENDS
?_DoCreateCodeDlgBtn@CCodeCtrl@@IAEHXZ ENDP		; CCodeCtrl::_DoCreateCodeDlgBtn
; Function compile flags: /Ogtp
; File D:\git\src\IBK\IBK_DRFN\ProjSrc\SrcSite\include\CodeCtrl.cpp
;	COMDAT ??1CCodeCtrl@@UAE@XZ
_TEXT	SEGMENT
__$EHRec$ = -12						; size = 12
??1CCodeCtrl@@UAE@XZ PROC				; CCodeCtrl::~CCodeCtrl, COMDAT
; _this$ = ecx

; 40   : {

  00000	55		 push	 ebp
  00001	8b ec		 mov	 ebp, esp
  00003	6a ff		 push	 -1
  00005	68 00 00 00 00	 push	 __ehhandler$??1CCodeCtrl@@UAE@XZ
  0000a	64 a1 00 00 00
	00		 mov	 eax, DWORD PTR fs:0
  00010	50		 push	 eax
  00011	56		 push	 esi
  00012	57		 push	 edi
  00013	a1 00 00 00 00	 mov	 eax, DWORD PTR ___security_cookie
  00018	33 c5		 xor	 eax, ebp
  0001a	50		 push	 eax
  0001b	8d 45 f4	 lea	 eax, DWORD PTR __$EHRec$[ebp]
  0001e	64 a3 00 00 00
	00		 mov	 DWORD PTR fs:0, eax
  00024	8b f9		 mov	 edi, ecx

; 41   : 	m_btnImageList.DeleteImageList();

  00026	8d 8f a8 00 00
	00		 lea	 ecx, DWORD PTR [edi+168]
  0002c	c7 07 00 00 00
	00		 mov	 DWORD PTR [edi], OFFSET ??_7CCodeCtrl@@6B@
  00032	e8 00 00 00 00	 call	 ?DeleteImageList@CImageList@@QAEHXZ ; CImageList::DeleteImageList

; 42   : }

  00037	8d 8f 20 02 00
	00		 lea	 ecx, DWORD PTR [edi+544]
  0003d	e8 00 00 00 00	 call	 ??1CEdit@@UAE@XZ	; CEdit::~CEdit
  00042	8d 8f 1c 02 00
	00		 lea	 ecx, DWORD PTR [edi+540]
  00048	ff 15 00 00 00
	00		 call	 DWORD PTR __imp_??1?$CStringT@DV?$StrTraitMFC_DLL@DV?$ChTraitsCRT@D@ATL@@@@@ATL@@QAE@XZ
  0004e	8d 8f 14 02 00
	00		 lea	 ecx, DWORD PTR [edi+532]
  00054	ff 15 00 00 00
	00		 call	 DWORD PTR __imp_??1?$CStringT@DV?$StrTraitMFC_DLL@DV?$ChTraitsCRT@D@ATL@@@@@ATL@@QAE@XZ
  0005a	8d 8f b0 00 00
	00		 lea	 ecx, DWORD PTR [edi+176]
  00060	e8 00 00 00 00	 call	 ??1CILButton@@UAE@XZ	; CILButton::~CILButton
  00065	8d 8f a8 00 00
	00		 lea	 ecx, DWORD PTR [edi+168]
  0006b	e8 00 00 00 00	 call	 ??1CImageList@@UAE@XZ	; CImageList::~CImageList
  00070	8d 8f a4 00 00
	00		 lea	 ecx, DWORD PTR [edi+164]
  00076	ff 15 00 00 00
	00		 call	 DWORD PTR __imp_??1?$CStringT@DV?$StrTraitMFC_DLL@DV?$ChTraitsCRT@D@ATL@@@@@ATL@@QAE@XZ
  0007c	8b cf		 mov	 ecx, edi
  0007e	e8 00 00 00 00	 call	 ??1CWinixCodeCtrl@@UAE@XZ ; CWinixCodeCtrl::~CWinixCodeCtrl
  00083	8b 4d f4	 mov	 ecx, DWORD PTR __$EHRec$[ebp]
  00086	64 89 0d 00 00
	00 00		 mov	 DWORD PTR fs:0, ecx
  0008d	59		 pop	 ecx
  0008e	5f		 pop	 edi
  0008f	5e		 pop	 esi
  00090	8b e5		 mov	 esp, ebp
  00092	5d		 pop	 ebp
  00093	c3		 ret	 0
  00094	cc		 int	 3
  00095	cc		 int	 3
  00096	cc		 int	 3
  00097	cc		 int	 3
  00098	cc		 int	 3
_TEXT	ENDS
;	COMDAT text$x
text$x	SEGMENT
__ehhandler$??1CCodeCtrl@@UAE@XZ:
  00000	90		 npad	 1
  00001	90		 npad	 1
  00002	8b 54 24 08	 mov	 edx, DWORD PTR [esp+8]
  00006	8d 42 0c	 lea	 eax, DWORD PTR [edx+12]
  00009	8b 4a f4	 mov	 ecx, DWORD PTR [edx-12]
  0000c	33 c8		 xor	 ecx, eax
  0000e	e8 00 00 00 00	 call	 @__security_check_cookie@4
  00013	b8 00 00 00 00	 mov	 eax, OFFSET __ehfuncinfo$??1CCodeCtrl@@UAE@XZ
  00018	e9 00 00 00 00	 jmp	 ___CxxFrameHandler3
text$x	ENDS
??1CCodeCtrl@@UAE@XZ ENDP				; CCodeCtrl::~CCodeCtrl
; Function compile flags: /Ogtp
; File D:\git\src\IBK\IBK_DRFN\ProjSrc\SrcSite\include\CodeCtrl.cpp
;	COMDAT ?SetUnitEx@CCodeCtrl@@QAE_NV?$CStringT@DV?$StrTraitMFC_DLL@DV?$ChTraitsCRT@D@ATL@@@@@ATL@@@Z
_TEXT	SEGMENT
__$EHRec$ = -12						; size = 12
_strUnit$ = 8						; size = 4
?SetUnitEx@CCodeCtrl@@QAE_NV?$CStringT@DV?$StrTraitMFC_DLL@DV?$ChTraitsCRT@D@ATL@@@@@ATL@@@Z PROC ; CCodeCtrl::SetUnitEx, COMDAT
; _this$ = ecx

; 236  : {

  00000	55		 push	 ebp
  00001	8b ec		 mov	 ebp, esp
  00003	6a ff		 push	 -1
  00005	68 00 00 00 00	 push	 __ehhandler$?SetUnitEx@CCodeCtrl@@QAE_NV?$CStringT@DV?$StrTraitMFC_DLL@DV?$ChTraitsCRT@D@ATL@@@@@ATL@@@Z
  0000a	64 a1 00 00 00
	00		 mov	 eax, DWORD PTR fs:0
  00010	50		 push	 eax
  00011	53		 push	 ebx
  00012	56		 push	 esi
  00013	57		 push	 edi
  00014	a1 00 00 00 00	 mov	 eax, DWORD PTR ___security_cookie
  00019	33 c5		 xor	 eax, ebp
  0001b	50		 push	 eax
  0001c	8d 45 f4	 lea	 eax, DWORD PTR __$EHRec$[ebp]
  0001f	64 a3 00 00 00
	00		 mov	 DWORD PTR fs:0, eax
  00025	8b f9		 mov	 edi, ecx

; 237  : 	if (strUnit.Compare("FO") == 0)

  00027	68 00 00 00 00	 push	 OFFSET ??_C@_06ILKOJIAC@FO?A?v?G?$KF@
  0002c	8d 4d 08	 lea	 ecx, DWORD PTR _strUnit$[ebp]
  0002f	c7 45 fc 00 00
	00 00		 mov	 DWORD PTR __$EHRec$[ebp+8], 0
  00036	ff 15 00 00 00
	00		 call	 DWORD PTR __imp_?Compare@?$CStringT@DV?$StrTraitMFC_DLL@DV?$ChTraitsCRT@D@ATL@@@@@ATL@@QBEHPBD@Z
  0003c	85 c0		 test	 eax, eax
  0003e	75 1e		 jne	 SHORT $LN2@SetUnitEx

; 238  : 	{
; 239  : 		m_bFOJipyo = true;
; 240  : 	//KHD	m_editCode.ShowWindow(SW_SHOW);
; 241  : 		if (m_pwndCodeCtrl)

  00040	8b 8f 84 00 00
	00		 mov	 ecx, DWORD PTR [edi+132]
  00046	c6 87 a2 00 00
	00 01		 mov	 BYTE PTR [edi+162], 1
  0004d	85 c9		 test	 ecx, ecx
  0004f	74 06		 je	 SHORT $LN4@SetUnitEx

; 242  : 			m_pwndCodeCtrl->ShowWindow(SW_HIDE);

  00051	50		 push	 eax
  00052	e8 00 00 00 00	 call	 ?ShowWindow@CWnd@@QAEHH@Z ; CWnd::ShowWindow
$LN4@SetUnitEx:

; 268  : 	}
; 269  : 
; 270  : 	return FALSE;

  00057	32 db		 xor	 bl, bl
  00059	e9 ea 00 00 00	 jmp	 $LN24@SetUnitEx
$LN2@SetUnitEx:

; 243  : 	}
; 244  : 	else
; 245  : 	{
; 246  : 		int nCodeType = kospiType;
; 247  : 		
; 248  : 		if (strUnit.CompareNoCase("") == 0)				nCodeType = kospiType;

  0005e	68 00 00 00 00	 push	 OFFSET ??_C@_04IMIHFAMF@?A?V?$LN?D@
  00063	8d 4d 08	 lea	 ecx, DWORD PTR _strUnit$[ebp]
  00066	be 01 00 00 00	 mov	 esi, 1
  0006b	ff 15 00 00 00
	00		 call	 DWORD PTR __imp_?CompareNoCase@?$CStringT@DV?$StrTraitMFC_DLL@DV?$ChTraitsCRT@D@ATL@@@@@ATL@@QBEHPBD@Z
  00071	85 c0		 test	 eax, eax
  00073	0f 84 a8 00 00
	00		 je	 $LN25@SetUnitEx

; 249  : 		else if (strUnit.CompareNoCase("ELW") == 0)			nCodeType = elwType;

  00079	68 00 00 00 00	 push	 OFFSET ??_C@_03POALDHNL@ELW@
  0007e	8d 4d 08	 lea	 ecx, DWORD PTR _strUnit$[ebp]
  00081	ff 15 00 00 00
	00		 call	 DWORD PTR __imp_?CompareNoCase@?$CStringT@DV?$StrTraitMFC_DLL@DV?$ChTraitsCRT@D@ATL@@@@@ATL@@QBEHPBD@Z
  00087	85 c0		 test	 eax, eax
  00089	75 08		 jne	 SHORT $LN7@SetUnitEx
  0008b	8d 70 09	 lea	 esi, DWORD PTR [eax+9]
  0008e	e9 8e 00 00 00	 jmp	 $LN25@SetUnitEx
$LN7@SetUnitEx:

; 250  : 		else if (strUnit.CompareNoCase("") == 0)		nCodeType = foreignType;

  00093	68 00 00 00 00	 push	 OFFSET ??_C@_04GCIHJOGB@?G?X?$LP?$NM@
  00098	8d 4d 08	 lea	 ecx, DWORD PTR _strUnit$[ebp]
  0009b	ff 15 00 00 00
	00		 call	 DWORD PTR __imp_?CompareNoCase@?$CStringT@DV?$StrTraitMFC_DLL@DV?$ChTraitsCRT@D@ATL@@@@@ATL@@QBEHPBD@Z
  000a1	85 c0		 test	 eax, eax
  000a3	75 08		 jne	 SHORT $LN9@SetUnitEx
  000a5	8d 70 0a	 lea	 esi, DWORD PTR [eax+10]
  000a8	e9 8c 00 00 00	 jmp	 $LN21@SetUnitEx
$LN9@SetUnitEx:

; 251  : 		else if (strUnit.CompareNoCase("") == 0)	nCodeType = futureType;

  000ad	68 00 00 00 00	 push	 OFFSET ??_C@_08NDPAGPFD@?$LM?$LB?$LJ?$LA?$LP?I?$LM?G@
  000b2	8d 4d 08	 lea	 ecx, DWORD PTR _strUnit$[ebp]
  000b5	ff 15 00 00 00
	00		 call	 DWORD PTR __imp_?CompareNoCase@?$CStringT@DV?$StrTraitMFC_DLL@DV?$ChTraitsCRT@D@ATL@@@@@ATL@@QBEHPBD@Z
  000bb	85 c0		 test	 eax, eax
  000bd	75 05		 jne	 SHORT $LN11@SetUnitEx
  000bf	8d 70 0b	 lea	 esi, DWORD PTR [eax+11]
  000c2	eb 5d		 jmp	 SHORT $LN25@SetUnitEx
$LN11@SetUnitEx:

; 252  : 		else if (strUnit.CompareNoCase("") == 0)	nCodeType = koptionType;

  000c4	68 00 00 00 00	 push	 OFFSET ??_C@_08GMMOIJLH@?A?V?$LN?D?$LP?I?$LM?G@
  000c9	8d 4d 08	 lea	 ecx, DWORD PTR _strUnit$[ebp]
  000cc	ff 15 00 00 00
	00		 call	 DWORD PTR __imp_?CompareNoCase@?$CStringT@DV?$StrTraitMFC_DLL@DV?$ChTraitsCRT@D@ATL@@@@@ATL@@QBEHPBD@Z
  000d2	85 c0		 test	 eax, eax
  000d4	75 05		 jne	 SHORT $LN13@SetUnitEx
  000d6	8d 70 0f	 lea	 esi, DWORD PTR [eax+15]
  000d9	eb 46		 jmp	 SHORT $LN25@SetUnitEx
$LN13@SetUnitEx:

; 253  : 		else if (strUnit.CompareNoCase("") == 0)	nCodeType = sfutureType;

  000db	68 00 00 00 00	 push	 OFFSET ??_C@_08ODFAFGMO@?A?V?$LN?D?$LM?$LB?$LJ?$LA@
  000e0	8d 4d 08	 lea	 ecx, DWORD PTR _strUnit$[ebp]
  000e3	ff 15 00 00 00
	00		 call	 DWORD PTR __imp_?CompareNoCase@?$CStringT@DV?$StrTraitMFC_DLL@DV?$ChTraitsCRT@D@ATL@@@@@ATL@@QBEHPBD@Z
  000e9	85 c0		 test	 eax, eax
  000eb	75 05		 jne	 SHORT $LN15@SetUnitEx
  000ed	8d 70 10	 lea	 esi, DWORD PTR [eax+16]
  000f0	eb 2f		 jmp	 SHORT $LN25@SetUnitEx
$LN15@SetUnitEx:

; 254  : 		else if (strUnit.CompareNoCase("") == 0)		nCodeType = indexType;

  000f2	68 00 00 00 00	 push	 OFFSET ??_C@_04GHLAOPMI@?$LO?w?A?$LO@
  000f7	8d 4d 08	 lea	 ecx, DWORD PTR _strUnit$[ebp]
  000fa	ff 15 00 00 00
	00		 call	 DWORD PTR __imp_?CompareNoCase@?$CStringT@DV?$StrTraitMFC_DLL@DV?$ChTraitsCRT@D@ATL@@@@@ATL@@QBEHPBD@Z
  00100	85 c0		 test	 eax, eax
  00102	75 05		 jne	 SHORT $LN17@SetUnitEx
  00104	8d 70 14	 lea	 esi, DWORD PTR [eax+20]
  00107	eb 18		 jmp	 SHORT $LN25@SetUnitEx
$LN17@SetUnitEx:

; 255  : 		else if (strUnit.CompareNoCase("") == 0)	nCodeType = THREE_BONDS;

  00109	68 00 00 00 00	 push	 OFFSET ??_C@_08OPOALDAF@?$LL?s?G?$LA?$LM?$LB?$LJ?$LA@
  0010e	8d 4d 08	 lea	 ecx, DWORD PTR _strUnit$[ebp]
  00111	ff 15 00 00 00
	00		 call	 DWORD PTR __imp_?CompareNoCase@?$CStringT@DV?$StrTraitMFC_DLL@DV?$ChTraitsCRT@D@ATL@@@@@ATL@@QBEHPBD@Z
  00117	85 c0		 test	 eax, eax
  00119	b9 84 03 00 00	 mov	 ecx, 900		; 00000384H
  0011e	0f 44 f1	 cmove	 esi, ecx
$LN25@SetUnitEx:

; 256  : //KHD		else if (strUnit.CompareNoCase("") == 0)	nCodeType = gfutureType;
; 257  : //KHD		else if (strUnit.CompareNoCase("FX") == 0)			nCodeType = gfxType;
; 258  : 
; 259  : 		if (nCodeType != foreignType)
; 260  : 		{
; 261  : 			m_bFOJipyo = false;
; 262  : 	//KHD		m_editCode.ShowWindow(SW_HIDE);
; 263  : 			if (m_pwndCodeCtrl)

  00121	8b 8f 84 00 00
	00		 mov	 ecx, DWORD PTR [edi+132]
  00127	c6 87 a2 00 00
	00 00		 mov	 BYTE PTR [edi+162], 0
  0012e	85 c9		 test	 ecx, ecx
  00130	74 07		 je	 SHORT $LN21@SetUnitEx

; 264  : 				m_pwndCodeCtrl->ShowWindow(SW_SHOW);

  00132	6a 05		 push	 5
  00134	e8 00 00 00 00	 call	 ?ShowWindow@CWnd@@QAEHH@Z ; CWnd::ShowWindow
$LN21@SetUnitEx:

; 265  : 		}
; 266  : 		
; 267  : 		return SetUnit(nCodeType);

  00139	8b 07		 mov	 eax, DWORD PTR [edi]
  0013b	8b cf		 mov	 ecx, edi
  0013d	56		 push	 esi
  0013e	8b 80 78 01 00
	00		 mov	 eax, DWORD PTR [eax+376]
  00144	ff d0		 call	 eax
  00146	8a d8		 mov	 bl, al
$LN24@SetUnitEx:

; 268  : 	}
; 269  : 
; 270  : 	return FALSE;

  00148	8d 4d 08	 lea	 ecx, DWORD PTR _strUnit$[ebp]
  0014b	ff 15 00 00 00
	00		 call	 DWORD PTR __imp_??1?$CStringT@DV?$StrTraitMFC_DLL@DV?$ChTraitsCRT@D@ATL@@@@@ATL@@QAE@XZ
  00151	8a c3		 mov	 al, bl

; 271  : }

  00153	8b 4d f4	 mov	 ecx, DWORD PTR __$EHRec$[ebp]
  00156	64 89 0d 00 00
	00 00		 mov	 DWORD PTR fs:0, ecx
  0015d	59		 pop	 ecx
  0015e	5f		 pop	 edi
  0015f	5e		 pop	 esi
  00160	5b		 pop	 ebx
  00161	8b e5		 mov	 esp, ebp
  00163	5d		 pop	 ebp
  00164	c2 04 00	 ret	 4
_TEXT	ENDS
;	COMDAT text$x
text$x	SEGMENT
__unwindfunclet$?SetUnitEx@CCodeCtrl@@QAE_NV?$CStringT@DV?$StrTraitMFC_DLL@DV?$ChTraitsCRT@D@ATL@@@@@ATL@@@Z$0:
  00000	8d 4d 08	 lea	 ecx, DWORD PTR _strUnit$[ebp]
  00003	ff 25 00 00 00
	00		 jmp	 DWORD PTR __imp_??1?$CStringT@DV?$StrTraitMFC_DLL@DV?$ChTraitsCRT@D@ATL@@@@@ATL@@QAE@XZ
  00009	cc		 int	 3
  0000a	cc		 int	 3
  0000b	cc		 int	 3
  0000c	cc		 int	 3
  0000d	cc		 int	 3
__ehhandler$?SetUnitEx@CCodeCtrl@@QAE_NV?$CStringT@DV?$StrTraitMFC_DLL@DV?$ChTraitsCRT@D@ATL@@@@@ATL@@@Z:
  0000e	90		 npad	 1
  0000f	90		 npad	 1
  00010	8b 54 24 08	 mov	 edx, DWORD PTR [esp+8]
  00014	8d 42 0c	 lea	 eax, DWORD PTR [edx+12]
  00017	8b 4a f0	 mov	 ecx, DWORD PTR [edx-16]
  0001a	33 c8		 xor	 ecx, eax
  0001c	e8 00 00 00 00	 call	 @__security_check_cookie@4
  00021	b8 00 00 00 00	 mov	 eax, OFFSET __ehfuncinfo$?SetUnitEx@CCodeCtrl@@QAE_NV?$CStringT@DV?$StrTraitMFC_DLL@DV?$ChTraitsCRT@D@ATL@@@@@ATL@@@Z
  00026	e9 00 00 00 00	 jmp	 ___CxxFrameHandler3
text$x	ENDS
?SetUnitEx@CCodeCtrl@@QAE_NV?$CStringT@DV?$StrTraitMFC_DLL@DV?$ChTraitsCRT@D@ATL@@@@@ATL@@@Z ENDP ; CCodeCtrl::SetUnitEx
; Function compile flags: /Ogtp
; File D:\git\src\IBK\IBK_DRFN\ProjSrc\SrcSite\include\CodeCtrl.cpp
;	COMDAT ?GetCode@CCodeCtrl@@UAE?AV?$CStringT@DV?$StrTraitMFC_DLL@DV?$ChTraitsCRT@D@ATL@@@@@ATL@@XZ
_TEXT	SEGMENT
___$ReturnUdt$ = 8					; size = 4
?GetCode@CCodeCtrl@@UAE?AV?$CStringT@DV?$StrTraitMFC_DLL@DV?$ChTraitsCRT@D@ATL@@@@@ATL@@XZ PROC ; CCodeCtrl::GetCode, COMDAT
; _this$ = ecx

; 544  : {

  00000	55		 push	 ebp
  00001	8b ec		 mov	 ebp, esp

; 545  : 	if (!m_bFOJipyo)

  00003	80 b9 a2 00 00
	00 00		 cmp	 BYTE PTR [ecx+162], 0
  0000a	56		 push	 esi
  0000b	75 15		 jne	 SHORT $LN2@GetCode

; 546  : 		 return GetCtrlProperty("Data");

  0000d	8b 75 08	 mov	 esi, DWORD PTR ___$ReturnUdt$[ebp]
  00010	68 00 00 00 00	 push	 OFFSET ??_C@_04DICKPMGH@Data@
  00015	56		 push	 esi
  00016	e8 00 00 00 00	 call	 ?GetCtrlProperty@CWinixCodeCtrl@@QAE?AV?$CStringT@DV?$StrTraitMFC_DLL@DV?$ChTraitsCRT@D@ATL@@@@@ATL@@PBD@Z ; CWinixCodeCtrl::GetCtrlProperty
  0001b	8b c6		 mov	 eax, esi
  0001d	5e		 pop	 esi

; 550  : //	CString strCode;
; 551  : //	m_editCode.GetWindowText(strCode);
; 552  : //	return strCode;
; 553  : }

  0001e	5d		 pop	 ebp
  0001f	c2 04 00	 ret	 4
$LN2@GetCode:

; 547  : 		//return CWinixCodeCtrl::GetCode();
; 548  : 
; 549  : 	return "";

  00022	8b 4d 08	 mov	 ecx, DWORD PTR ___$ReturnUdt$[ebp]
  00025	68 00 00 00 00	 push	 OFFSET ??_C@_00CNPNBAHC@@
  0002a	ff 15 00 00 00
	00		 call	 DWORD PTR __imp_??0?$CStringT@DV?$StrTraitMFC_DLL@DV?$ChTraitsCRT@D@ATL@@@@@ATL@@QAE@PBD@Z
  00030	8b 45 08	 mov	 eax, DWORD PTR ___$ReturnUdt$[ebp]
  00033	5e		 pop	 esi

; 550  : //	CString strCode;
; 551  : //	m_editCode.GetWindowText(strCode);
; 552  : //	return strCode;
; 553  : }

  00034	5d		 pop	 ebp
  00035	c2 04 00	 ret	 4
?GetCode@CCodeCtrl@@UAE?AV?$CStringT@DV?$StrTraitMFC_DLL@DV?$ChTraitsCRT@D@ATL@@@@@ATL@@XZ ENDP ; CCodeCtrl::GetCode
_TEXT	ENDS
; Function compile flags: /Ogtp
; File D:\git\src\IBK\IBK_DRFN\ProjSrc\SrcSite\include\CodeCtrl.cpp
; File C:\Program Files (x86)\Microsoft Visual Studio\2019\Community\VC\Tools\MSVC\14.29.30133\atlmfc\include\afxwin2.inl
; File D:\git\src\IBK\IBK_DRFN\ProjSrc\SrcSite\include\CodeCtrl.cpp
; File C:\Program Files (x86)\Microsoft Visual Studio\2019\Community\VC\Tools\MSVC\14.29.30133\atlmfc\include\afxwin2.inl
; File D:\git\src\IBK\IBK_DRFN\ProjSrc\SrcSite\include\CodeCtrl.cpp
; File C:\Program Files (x86)\Microsoft Visual Studio\2019\Community\VC\Tools\MSVC\14.29.30133\include\comutil.h
; File D:\git\src\IBK\IBK_DRFN\ProjSrc\SrcSite\include\CodeCtrl.cpp
; File C:\Program Files (x86)\Microsoft Visual Studio\2019\Community\VC\Tools\MSVC\14.29.30133\include\comutil.h
; File D:\git\src\IBK\IBK_DRFN\ProjSrc\SrcSite\include\CodeCtrl.cpp
;	COMDAT ?SetCode@CCodeCtrl@@UAE_NV?$CStringT@DV?$StrTraitMFC_DLL@DV?$ChTraitsCRT@D@ATL@@@@@ATL@@_N@Z
_TEXT	SEGMENT
$T2 = -32						; size = 16
__$EHRec$ = -12						; size = 12
_strCode$ = 8						; size = 4
_bOnlySet$ = 12						; size = 1
?SetCode@CCodeCtrl@@UAE_NV?$CStringT@DV?$StrTraitMFC_DLL@DV?$ChTraitsCRT@D@ATL@@@@@ATL@@_N@Z PROC ; CCodeCtrl::SetCode, COMDAT
; _this$ = ecx

; 556  : {

  00000	55		 push	 ebp
  00001	8b ec		 mov	 ebp, esp
  00003	6a ff		 push	 -1
  00005	68 00 00 00 00	 push	 __ehhandler$?SetCode@CCodeCtrl@@UAE_NV?$CStringT@DV?$StrTraitMFC_DLL@DV?$ChTraitsCRT@D@ATL@@@@@ATL@@_N@Z
  0000a	64 a1 00 00 00
	00		 mov	 eax, DWORD PTR fs:0
  00010	50		 push	 eax
  00011	83 ec 14	 sub	 esp, 20			; 00000014H
  00014	56		 push	 esi
  00015	a1 00 00 00 00	 mov	 eax, DWORD PTR ___security_cookie
  0001a	33 c5		 xor	 eax, ebp
  0001c	50		 push	 eax
  0001d	8d 45 f4	 lea	 eax, DWORD PTR __$EHRec$[ebp]
  00020	64 a3 00 00 00
	00		 mov	 DWORD PTR fs:0, eax
  00026	8b f1		 mov	 esi, ecx

; 557  : 	//if(m_nCodeType==koptionCODE||m_nCodeType==sfCODE)
; 558  : 	if(m_nCodeType==GU_POPTION||m_nCodeType==GU_FCODE)

  00028	8b 86 10 02 00
	00		 mov	 eax, DWORD PTR [esi+528]
  0002e	c7 45 fc 00 00
	00 00		 mov	 DWORD PTR __$EHRec$[ebp+8], 0
  00035	83 f8 05	 cmp	 eax, 5
  00038	74 05		 je	 SHORT $LN5@SetCode
  0003a	83 f8 0a	 cmp	 eax, 10			; 0000000aH
  0003d	75 45		 jne	 SHORT $LN2@SetCode
$LN5@SetCode:
; File C:\Program Files (x86)\Microsoft Visual Studio\2019\Community\VC\Tools\MSVC\14.29.30133\atlmfc\include\afxwin2.inl

; 32   : 	{ ASSERT(::IsWindow(m_hWnd)); return ::SendMessage(m_hWnd, message, wParam, lParam); }

  0003f	ff 75 08	 push	 DWORD PTR _strCode$[ebp]
; File D:\git\src\IBK\IBK_DRFN\ProjSrc\SrcSite\include\CodeCtrl.cpp

; 560  : 		int nCodeType = (int)m_pwndWizard->SendMessage(WM_USER, MAKEWPARAM(codeTYPE, NULL), (LPARAM)(LPCSTR)strCode);

  00042	8b 86 8c 00 00
	00		 mov	 eax, DWORD PTR [esi+140]
; File C:\Program Files (x86)\Microsoft Visual Studio\2019\Community\VC\Tools\MSVC\14.29.30133\atlmfc\include\afxwin2.inl

; 32   : 	{ ASSERT(::IsWindow(m_hWnd)); return ::SendMessage(m_hWnd, message, wParam, lParam); }

  00048	6a 0c		 push	 12			; 0000000cH
  0004a	68 00 04 00 00	 push	 1024			; 00000400H
  0004f	ff 70 20	 push	 DWORD PTR [eax+32]
  00052	ff 15 00 00 00
	00		 call	 DWORD PTR __imp__SendMessageA@16
; File D:\git\src\IBK\IBK_DRFN\ProjSrc\SrcSite\include\CodeCtrl.cpp

; 561  : 		switch(nCodeType)

  00058	83 f8 05	 cmp	 eax, 5
  0005b	74 0f		 je	 SHORT $LN7@SetCode
  0005d	83 f8 0a	 cmp	 eax, 10			; 0000000aH
  00060	75 22		 jne	 SHORT $LN2@SetCode

; 562  : 		{
; 563  : 		case GU_FCODE:	//sfutureType:
; 564  : 			//m_nCodeType = GU_FCODE;		//sfCODE;
; 565  : 			SetUnit("");

  00062	51		 push	 ecx
  00063	8b cc		 mov	 ecx, esp
  00065	68 00 00 00 00	 push	 OFFSET ??_C@_08ODFAFGMO@?A?V?$LN?D?$LM?$LB?$LJ?$LA@

; 566  : 			break;				

  0006a	eb 08		 jmp	 SHORT $LN25@SetCode
$LN7@SetCode:

; 567  : 		case GU_POPTION:	//koptionType:
; 568  : 			//m_nCodeType = GU_POPTION;	//koptionCODE;
; 569  : 			SetUnit("");

  0006c	51		 push	 ecx
  0006d	8b cc		 mov	 ecx, esp
  0006f	68 00 00 00 00	 push	 OFFSET ??_C@_08GMMOIJLH@?A?V?$LN?D?$LP?I?$LM?G@
$LN25@SetCode:
; File C:\Program Files (x86)\Microsoft Visual Studio\2019\Community\VC\Tools\MSVC\14.29.30133\include\comutil.h

; 1294 :     V_VT(this) = VT_BSTR;

  00074	ff 15 00 00 00
	00		 call	 DWORD PTR __imp_??0?$CStringT@DV?$StrTraitMFC_DLL@DV?$ChTraitsCRT@D@ATL@@@@@ATL@@QAE@PBD@Z
  0007a	8b 06		 mov	 eax, DWORD PTR [esi]
  0007c	8b ce		 mov	 ecx, esi
  0007e	ff 90 74 01 00
	00		 call	 DWORD PTR [eax+372]
$LN2@SetCode:

; 1295 :     V_BSTR(this) = _com_util::ConvertStringToBSTR(pSrc);

  00084	ff 75 08	 push	 DWORD PTR _strCode$[ebp]
  00087	b8 08 00 00 00	 mov	 eax, 8
  0008c	66 89 45 e0	 mov	 WORD PTR $T2[ebp], ax
  00090	e8 00 00 00 00	 call	 ?ConvertStringToBSTR@_com_util@@YGPA_WPBD@Z ; _com_util::ConvertStringToBSTR
  00095	89 45 e8	 mov	 DWORD PTR $T2[ebp+8], eax
; File D:\git\src\IBK\IBK_DRFN\ProjSrc\SrcSite\include\CodeCtrl.cpp

; 573  : 	SetCtrlProperty("Data", _variant_t(strCode));

  00098	8d 45 e0	 lea	 eax, DWORD PTR $T2[ebp]
  0009b	c6 45 fc 01	 mov	 BYTE PTR __$EHRec$[ebp+8], 1
  0009f	50		 push	 eax
  000a0	51		 push	 ecx
  000a1	8b cc		 mov	 ecx, esp
  000a3	68 00 00 00 00	 push	 OFFSET ??_C@_04DICKPMGH@Data@
  000a8	e8 00 00 00 00	 call	 ??0_bstr_t@@QAE@PBD@Z	; _bstr_t::_bstr_t
  000ad	8b ce		 mov	 ecx, esi
  000af	e8 00 00 00 00	 call	 ?SetCtrlProperty@CWinixCodeCtrl@@QAEXV_bstr_t@@AAV_variant_t@@@Z ; CWinixCodeCtrl::SetCtrlProperty
; File C:\Program Files (x86)\Microsoft Visual Studio\2019\Community\VC\Tools\MSVC\14.29.30133\include\comutil.h

; 2335 :     ::VariantClear(this);

  000b4	8d 45 e0	 lea	 eax, DWORD PTR $T2[ebp]
  000b7	50		 push	 eax
  000b8	ff 15 00 00 00
	00		 call	 DWORD PTR __imp__VariantClear@4
; File D:\git\src\IBK\IBK_DRFN\ProjSrc\SrcSite\include\CodeCtrl.cpp

; 581  : 	return true;

  000be	8d 4d 08	 lea	 ecx, DWORD PTR _strCode$[ebp]
  000c1	ff 15 00 00 00
	00		 call	 DWORD PTR __imp_??1?$CStringT@DV?$StrTraitMFC_DLL@DV?$ChTraitsCRT@D@ATL@@@@@ATL@@QAE@XZ
  000c7	b0 01		 mov	 al, 1

; 582  : }

  000c9	8b 4d f4	 mov	 ecx, DWORD PTR __$EHRec$[ebp]
  000cc	64 89 0d 00 00
	00 00		 mov	 DWORD PTR fs:0, ecx
  000d3	59		 pop	 ecx
  000d4	5e		 pop	 esi
  000d5	8b e5		 mov	 esp, ebp
  000d7	5d		 pop	 ebp
  000d8	c2 08 00	 ret	 8
_TEXT	ENDS
;	COMDAT text$x
text$x	SEGMENT
__unwindfunclet$?SetCode@CCodeCtrl@@UAE_NV?$CStringT@DV?$StrTraitMFC_DLL@DV?$ChTraitsCRT@D@ATL@@@@@ATL@@_N@Z$0:
  00000	8d 4d 08	 lea	 ecx, DWORD PTR _strCode$[ebp]
  00003	ff 25 00 00 00
	00		 jmp	 DWORD PTR __imp_??1?$CStringT@DV?$StrTraitMFC_DLL@DV?$ChTraitsCRT@D@ATL@@@@@ATL@@QAE@XZ
__unwindfunclet$?SetCode@CCodeCtrl@@UAE_NV?$CStringT@DV?$StrTraitMFC_DLL@DV?$ChTraitsCRT@D@ATL@@@@@ATL@@_N@Z$3:
  00009	8d 4d e0	 lea	 ecx, DWORD PTR $T2[ebp]
  0000c	e9 00 00 00 00	 jmp	 ??1_variant_t@@QAE@XZ	; _variant_t::~_variant_t
  00011	cc		 int	 3
  00012	cc		 int	 3
  00013	cc		 int	 3
  00014	cc		 int	 3
  00015	cc		 int	 3
__ehhandler$?SetCode@CCodeCtrl@@UAE_NV?$CStringT@DV?$StrTraitMFC_DLL@DV?$ChTraitsCRT@D@ATL@@@@@ATL@@_N@Z:
  00016	90		 npad	 1
  00017	90		 npad	 1
  00018	8b 54 24 08	 mov	 edx, DWORD PTR [esp+8]
  0001c	8d 42 0c	 lea	 eax, DWORD PTR [edx+12]
  0001f	8b 4a e4	 mov	 ecx, DWORD PTR [edx-28]
  00022	33 c8		 xor	 ecx, eax
  00024	e8 00 00 00 00	 call	 @__security_check_cookie@4
  00029	b8 00 00 00 00	 mov	 eax, OFFSET __ehfuncinfo$?SetCode@CCodeCtrl@@UAE_NV?$CStringT@DV?$StrTraitMFC_DLL@DV?$ChTraitsCRT@D@ATL@@@@@ATL@@_N@Z
  0002e	e9 00 00 00 00	 jmp	 ___CxxFrameHandler3
text$x	ENDS
?SetCode@CCodeCtrl@@UAE_NV?$CStringT@DV?$StrTraitMFC_DLL@DV?$ChTraitsCRT@D@ATL@@@@@ATL@@_N@Z ENDP ; CCodeCtrl::SetCode
; Function compile flags: /Ogtp
; File D:\git\src\IBK\IBK_DRFN\ProjSrc\SrcSite\include\CodeCtrl.cpp
;	COMDAT ?SetHistory@CCodeCtrl@@UAE_NPBD0@Z
_TEXT	SEGMENT
_szSetCode$ = -16					; size = 4
__$EHRec$ = -12						; size = 12
_szCode$ = 8						; size = 4
_szSymbol$ = 12						; size = 4
?SetHistory@CCodeCtrl@@UAE_NPBD0@Z PROC			; CCodeCtrl::SetHistory, COMDAT
; _this$ = ecx

; 339  : {

  00000	55		 push	 ebp
  00001	8b ec		 mov	 ebp, esp
  00003	6a ff		 push	 -1
  00005	68 00 00 00 00	 push	 __ehhandler$?SetHistory@CCodeCtrl@@UAE_NPBD0@Z
  0000a	64 a1 00 00 00
	00		 mov	 eax, DWORD PTR fs:0
  00010	50		 push	 eax
  00011	51		 push	 ecx
  00012	a1 00 00 00 00	 mov	 eax, DWORD PTR ___security_cookie
  00017	33 c5		 xor	 eax, ebp
  00019	50		 push	 eax
  0001a	8d 45 f4	 lea	 eax, DWORD PTR __$EHRec$[ebp]
  0001d	64 a3 00 00 00
	00		 mov	 DWORD PTR fs:0, eax

; 340  : 	CString szSetCode;

  00023	8d 4d f0	 lea	 ecx, DWORD PTR _szSetCode$[ebp]
  00026	ff 15 00 00 00
	00		 call	 DWORD PTR __imp_??0?$CStringT@DV?$StrTraitMFC_DLL@DV?$ChTraitsCRT@D@ATL@@@@@ATL@@QAE@XZ

; 341  : 	szSetCode.Format("%s\t%s", szSymbol, szCode);

  0002c	ff 75 08	 push	 DWORD PTR _szCode$[ebp]
  0002f	8d 45 f0	 lea	 eax, DWORD PTR _szSetCode$[ebp]
  00032	c7 45 fc 00 00
	00 00		 mov	 DWORD PTR __$EHRec$[ebp+8], 0
  00039	ff 75 0c	 push	 DWORD PTR _szSymbol$[ebp]
  0003c	68 00 00 00 00	 push	 OFFSET ??_C@_05OALCLBHC@?$CFs?7?$CFs@
  00041	50		 push	 eax
  00042	ff 15 00 00 00
	00		 call	 DWORD PTR __imp_?Format@?$CStringT@DV?$StrTraitMFC_DLL@DV?$ChTraitsCRT@D@ATL@@@@@ATL@@QAAXPBDZZ
  00048	83 c4 10	 add	 esp, 16			; 00000010H

; 342  : 	
; 343  : //KHD	m_pwndWizard->SendMessage(WM_USER, setHISTORY, (LPARAM)(LPCSTR)szSetCode);
; 344  : 	
; 345  : 	return true;

  0004b	8d 4d f0	 lea	 ecx, DWORD PTR _szSetCode$[ebp]
  0004e	ff 15 00 00 00
	00		 call	 DWORD PTR __imp_??1?$CStringT@DV?$StrTraitMFC_DLL@DV?$ChTraitsCRT@D@ATL@@@@@ATL@@QAE@XZ
  00054	b0 01		 mov	 al, 1

; 346  : }

  00056	8b 4d f4	 mov	 ecx, DWORD PTR __$EHRec$[ebp]
  00059	64 89 0d 00 00
	00 00		 mov	 DWORD PTR fs:0, ecx
  00060	59		 pop	 ecx
  00061	8b e5		 mov	 esp, ebp
  00063	5d		 pop	 ebp
  00064	c2 08 00	 ret	 8
_TEXT	ENDS
;	COMDAT text$x
text$x	SEGMENT
__unwindfunclet$?SetHistory@CCodeCtrl@@UAE_NPBD0@Z$0:
  00000	8d 4d f0	 lea	 ecx, DWORD PTR _szSetCode$[ebp]
  00003	ff 25 00 00 00
	00		 jmp	 DWORD PTR __imp_??1?$CStringT@DV?$StrTraitMFC_DLL@DV?$ChTraitsCRT@D@ATL@@@@@ATL@@QAE@XZ
  00009	cc		 int	 3
  0000a	cc		 int	 3
  0000b	cc		 int	 3
  0000c	cc		 int	 3
  0000d	cc		 int	 3
__ehhandler$?SetHistory@CCodeCtrl@@UAE_NPBD0@Z:
  0000e	90		 npad	 1
  0000f	90		 npad	 1
  00010	8b 54 24 08	 mov	 edx, DWORD PTR [esp+8]
  00014	8d 42 0c	 lea	 eax, DWORD PTR [edx+12]
  00017	8b 4a f8	 mov	 ecx, DWORD PTR [edx-8]
  0001a	33 c8		 xor	 ecx, eax
  0001c	e8 00 00 00 00	 call	 @__security_check_cookie@4
  00021	b8 00 00 00 00	 mov	 eax, OFFSET __ehfuncinfo$?SetHistory@CCodeCtrl@@UAE_NPBD0@Z
  00026	e9 00 00 00 00	 jmp	 ___CxxFrameHandler3
text$x	ENDS
?SetHistory@CCodeCtrl@@UAE_NPBD0@Z ENDP			; CCodeCtrl::SetHistory
; Function compile flags: /Ogtp
; File D:\git\src\IBK\IBK_DRFN\ProjSrc\SrcSite\include\CodeCtrl.cpp
;	COMDAT ?SetUnit@CCodeCtrl@@UAE_NV?$CStringT@DV?$StrTraitMFC_DLL@DV?$ChTraitsCRT@D@ATL@@@@@ATL@@@Z
_TEXT	SEGMENT
__$EHRec$ = -12						; size = 12
_strUnit$ = 8						; size = 4
?SetUnit@CCodeCtrl@@UAE_NV?$CStringT@DV?$StrTraitMFC_DLL@DV?$ChTraitsCRT@D@ATL@@@@@ATL@@@Z PROC ; CCodeCtrl::SetUnit, COMDAT
; _this$ = ecx

; 274  : {

  00000	55		 push	 ebp
  00001	8b ec		 mov	 ebp, esp
  00003	6a ff		 push	 -1
  00005	68 00 00 00 00	 push	 __ehhandler$?SetUnit@CCodeCtrl@@UAE_NV?$CStringT@DV?$StrTraitMFC_DLL@DV?$ChTraitsCRT@D@ATL@@@@@ATL@@@Z
  0000a	64 a1 00 00 00
	00		 mov	 eax, DWORD PTR fs:0
  00010	50		 push	 eax
  00011	53		 push	 ebx
  00012	56		 push	 esi
  00013	57		 push	 edi
  00014	a1 00 00 00 00	 mov	 eax, DWORD PTR ___security_cookie
  00019	33 c5		 xor	 eax, ebp
  0001b	50		 push	 eax
  0001c	8d 45 f4	 lea	 eax, DWORD PTR __$EHRec$[ebp]
  0001f	64 a3 00 00 00
	00		 mov	 DWORD PTR fs:0, eax
  00025	8b f9		 mov	 edi, ecx

; 275  : 	if(m_szCodeUnit.Compare(strUnit)==0) return true;

  00027	ff 75 08	 push	 DWORD PTR _strUnit$[ebp]
  0002a	8d 8f 14 02 00
	00		 lea	 ecx, DWORD PTR [edi+532]
  00030	c7 45 fc 00 00
	00 00		 mov	 DWORD PTR __$EHRec$[ebp+8], 0
  00037	ff 15 00 00 00
	00		 call	 DWORD PTR __imp_?Compare@?$CStringT@DV?$StrTraitMFC_DLL@DV?$ChTraitsCRT@D@ATL@@@@@ATL@@QBEHPBD@Z
  0003d	85 c0		 test	 eax, eax
  0003f	74 39		 je	 SHORT $LN5@SetUnit

; 276  : 	m_szCodeUnit = strUnit;

  00041	8d 45 08	 lea	 eax, DWORD PTR _strUnit$[ebp]
  00044	50		 push	 eax
  00045	8d 8f 14 02 00
	00		 lea	 ecx, DWORD PTR [edi+532]
  0004b	ff 15 00 00 00
	00		 call	 DWORD PTR __imp_??4?$CStringT@DV?$StrTraitMFC_DLL@DV?$ChTraitsCRT@D@ATL@@@@@ATL@@QAEAAV01@ABV01@@Z

; 277  : 
; 278  : // 	if(strUnit.CompareNoCase("") == 0)
; 279  : // 	{
; 280  : // 		if(m_bFirstCalled)
; 281  : // 		{
; 282  : // 			m_bFirstCalled = false;
; 283  : // 			
; 284  : // 			int nSize = strUnit.GetLength();
; 285  : // 			
; 286  : // 			if(nSize>0)
; 287  : // 			{
; 288  : // 				ST_CodeSetUnit * pUnit = new ST_CodeSetUnit;
; 289  : // 				pUnit->pClassWnd = (LPVOID)this;
; 290  : // 				pUnit->szUnit = strUnit;
; 291  : // 				
; 292  : // 				AfxBeginThread(CCodeCtrl_SetUnit, (LPVOID)pUnit);
; 293  : // 				return 0;
; 294  : // 			}
; 295  : // 		}
; 296  : // 	}
; 297  : 
; 298  : 	{
; 299  : 		if (strUnit.Compare("FO") == 0)

  00051	68 00 00 00 00	 push	 OFFSET ??_C@_06ILKOJIAC@FO?A?v?G?$KF@
  00056	8d 4d 08	 lea	 ecx, DWORD PTR _strUnit$[ebp]
  00059	ff 15 00 00 00
	00		 call	 DWORD PTR __imp_?Compare@?$CStringT@DV?$StrTraitMFC_DLL@DV?$ChTraitsCRT@D@ATL@@@@@ATL@@QBEHPBD@Z
  0005f	85 c0		 test	 eax, eax
  00061	75 1e		 jne	 SHORT $LN3@SetUnit

; 300  : 		{
; 301  : 			m_bFOJipyo = true;
; 302  : 		//KHD	m_editCode.ShowWindow(SW_SHOW);
; 303  : 			if (m_pwndCodeCtrl)

  00063	8b 8f 84 00 00
	00		 mov	 ecx, DWORD PTR [edi+132]
  00069	c6 87 a2 00 00
	00 01		 mov	 BYTE PTR [edi+162], 1
  00070	85 c9		 test	 ecx, ecx
  00072	74 06		 je	 SHORT $LN5@SetUnit

; 304  : 				m_pwndCodeCtrl->ShowWindow(SW_HIDE);

  00074	50		 push	 eax
  00075	e8 00 00 00 00	 call	 ?ShowWindow@CWnd@@QAEHH@Z ; CWnd::ShowWindow
$LN5@SetUnit:

; 332  : 		}
; 333  : 	}
; 334  : 	
; 335  : 	return true;

  0007a	b3 01		 mov	 bl, 1
  0007c	e9 08 01 00 00	 jmp	 $LN28@SetUnit
$LN3@SetUnit:

; 305  : 		}
; 306  : 		else
; 307  : 		{
; 308  : 			int nCodeType = kospiType;
; 309  : 			
; 310  : 			if (strUnit.CompareNoCase("") == 0)				nCodeType = kospiType;

  00081	68 00 00 00 00	 push	 OFFSET ??_C@_04IMIHFAMF@?A?V?$LN?D@
  00086	8d 4d 08	 lea	 ecx, DWORD PTR _strUnit$[ebp]
  00089	be 01 00 00 00	 mov	 esi, 1
  0008e	ff 15 00 00 00
	00		 call	 DWORD PTR __imp_?CompareNoCase@?$CStringT@DV?$StrTraitMFC_DLL@DV?$ChTraitsCRT@D@ATL@@@@@ATL@@QBEHPBD@Z
  00094	85 c0		 test	 eax, eax
  00096	0f 84 bf 00 00
	00		 je	 $LN31@SetUnit

; 311  : 			else if (strUnit.CompareNoCase("ELW") == 0)			nCodeType = elwType;

  0009c	68 00 00 00 00	 push	 OFFSET ??_C@_03POALDHNL@ELW@
  000a1	8d 4d 08	 lea	 ecx, DWORD PTR _strUnit$[ebp]
  000a4	ff 15 00 00 00
	00		 call	 DWORD PTR __imp_?CompareNoCase@?$CStringT@DV?$StrTraitMFC_DLL@DV?$ChTraitsCRT@D@ATL@@@@@ATL@@QBEHPBD@Z
  000aa	85 c0		 test	 eax, eax
  000ac	75 08		 jne	 SHORT $LN8@SetUnit
  000ae	8d 70 09	 lea	 esi, DWORD PTR [eax+9]
  000b1	e9 a5 00 00 00	 jmp	 $LN31@SetUnit
$LN8@SetUnit:

; 312  : 			else if (strUnit.CompareNoCase("") == 0)		nCodeType = foreignType;

  000b6	68 00 00 00 00	 push	 OFFSET ??_C@_04GCIHJOGB@?G?X?$LP?$NM@
  000bb	8d 4d 08	 lea	 ecx, DWORD PTR _strUnit$[ebp]
  000be	ff 15 00 00 00
	00		 call	 DWORD PTR __imp_?CompareNoCase@?$CStringT@DV?$StrTraitMFC_DLL@DV?$ChTraitsCRT@D@ATL@@@@@ATL@@QBEHPBD@Z
  000c4	85 c0		 test	 eax, eax
  000c6	75 08		 jne	 SHORT $LN10@SetUnit
  000c8	8d 70 0a	 lea	 esi, DWORD PTR [eax+10]
  000cb	e9 a3 00 00 00	 jmp	 $LN24@SetUnit
$LN10@SetUnit:

; 313  : 			else if (strUnit.CompareNoCase("") == 0)		nCodeType = futureType;

  000d0	68 00 00 00 00	 push	 OFFSET ??_C@_04GHGOKPCP@?$LM?$LB?$LJ?$LA@
  000d5	8d 4d 08	 lea	 ecx, DWORD PTR _strUnit$[ebp]
  000d8	ff 15 00 00 00
	00		 call	 DWORD PTR __imp_?CompareNoCase@?$CStringT@DV?$StrTraitMFC_DLL@DV?$ChTraitsCRT@D@ATL@@@@@ATL@@QBEHPBD@Z
  000de	85 c0		 test	 eax, eax
  000e0	75 05		 jne	 SHORT $LN12@SetUnit
  000e2	8d 70 0b	 lea	 esi, DWORD PTR [eax+11]
  000e5	eb 74		 jmp	 SHORT $LN31@SetUnit
$LN12@SetUnit:

; 314  : 			else if (strUnit.CompareNoCase("") == 0)	nCodeType = futureType;

  000e7	68 00 00 00 00	 push	 OFFSET ??_C@_08NDPAGPFD@?$LM?$LB?$LJ?$LA?$LP?I?$LM?G@
  000ec	8d 4d 08	 lea	 ecx, DWORD PTR _strUnit$[ebp]
  000ef	ff 15 00 00 00
	00		 call	 DWORD PTR __imp_?CompareNoCase@?$CStringT@DV?$StrTraitMFC_DLL@DV?$ChTraitsCRT@D@ATL@@@@@ATL@@QBEHPBD@Z
  000f5	85 c0		 test	 eax, eax
  000f7	75 05		 jne	 SHORT $LN14@SetUnit
  000f9	8d 70 0b	 lea	 esi, DWORD PTR [eax+11]
  000fc	eb 5d		 jmp	 SHORT $LN31@SetUnit
$LN14@SetUnit:

; 315  : 			else if (strUnit.CompareNoCase("") == 0)	nCodeType = koptionType;

  000fe	68 00 00 00 00	 push	 OFFSET ??_C@_08GMMOIJLH@?A?V?$LN?D?$LP?I?$LM?G@
  00103	8d 4d 08	 lea	 ecx, DWORD PTR _strUnit$[ebp]
  00106	ff 15 00 00 00
	00		 call	 DWORD PTR __imp_?CompareNoCase@?$CStringT@DV?$StrTraitMFC_DLL@DV?$ChTraitsCRT@D@ATL@@@@@ATL@@QBEHPBD@Z
  0010c	85 c0		 test	 eax, eax
  0010e	75 05		 jne	 SHORT $LN16@SetUnit
  00110	8d 70 0f	 lea	 esi, DWORD PTR [eax+15]
  00113	eb 46		 jmp	 SHORT $LN31@SetUnit
$LN16@SetUnit:

; 316  : 			else if (strUnit.CompareNoCase("") == 0)	nCodeType = sfutureType;

  00115	68 00 00 00 00	 push	 OFFSET ??_C@_08ODFAFGMO@?A?V?$LN?D?$LM?$LB?$LJ?$LA@
  0011a	8d 4d 08	 lea	 ecx, DWORD PTR _strUnit$[ebp]
  0011d	ff 15 00 00 00
	00		 call	 DWORD PTR __imp_?CompareNoCase@?$CStringT@DV?$StrTraitMFC_DLL@DV?$ChTraitsCRT@D@ATL@@@@@ATL@@QBEHPBD@Z
  00123	85 c0		 test	 eax, eax
  00125	75 05		 jne	 SHORT $LN18@SetUnit
  00127	8d 70 10	 lea	 esi, DWORD PTR [eax+16]
  0012a	eb 2f		 jmp	 SHORT $LN31@SetUnit
$LN18@SetUnit:

; 317  : 			else if (strUnit.CompareNoCase("") == 0)		nCodeType = indexType;

  0012c	68 00 00 00 00	 push	 OFFSET ??_C@_04GHLAOPMI@?$LO?w?A?$LO@
  00131	8d 4d 08	 lea	 ecx, DWORD PTR _strUnit$[ebp]
  00134	ff 15 00 00 00
	00		 call	 DWORD PTR __imp_?CompareNoCase@?$CStringT@DV?$StrTraitMFC_DLL@DV?$ChTraitsCRT@D@ATL@@@@@ATL@@QBEHPBD@Z
  0013a	85 c0		 test	 eax, eax
  0013c	75 05		 jne	 SHORT $LN20@SetUnit
  0013e	8d 70 14	 lea	 esi, DWORD PTR [eax+20]
  00141	eb 18		 jmp	 SHORT $LN31@SetUnit
$LN20@SetUnit:

; 318  : 			else if (strUnit.CompareNoCase("") == 0)	nCodeType = THREE_BONDS;

  00143	68 00 00 00 00	 push	 OFFSET ??_C@_08OPOALDAF@?$LL?s?G?$LA?$LM?$LB?$LJ?$LA@
  00148	8d 4d 08	 lea	 ecx, DWORD PTR _strUnit$[ebp]
  0014b	ff 15 00 00 00
	00		 call	 DWORD PTR __imp_?CompareNoCase@?$CStringT@DV?$StrTraitMFC_DLL@DV?$ChTraitsCRT@D@ATL@@@@@ATL@@QBEHPBD@Z
  00151	85 c0		 test	 eax, eax
  00153	b9 84 03 00 00	 mov	 ecx, 900		; 00000384H
  00158	0f 44 f1	 cmove	 esi, ecx
$LN31@SetUnit:

; 319  : //KHD			else if (strUnit.CompareNoCase("") == 0)	nCodeType = gfutureType;
; 320  : //KHD			else if (strUnit.CompareNoCase("FX") == 0)			nCodeType = gfxType;
; 321  : 			
; 322  : 			if (nCodeType != foreignType)
; 323  : 			{
; 324  : 				m_bFOJipyo = false;
; 325  : 		//KHD		m_editCode.ShowWindow(SW_HIDE);
; 326  : 				if (m_pwndCodeCtrl)

  0015b	8b 8f 84 00 00
	00		 mov	 ecx, DWORD PTR [edi+132]
  00161	c6 87 a2 00 00
	00 00		 mov	 BYTE PTR [edi+162], 0
  00168	85 c9		 test	 ecx, ecx
  0016a	74 07		 je	 SHORT $LN24@SetUnit

; 327  : 					m_pwndCodeCtrl->ShowWindow(SW_SHOW);

  0016c	6a 05		 push	 5
  0016e	e8 00 00 00 00	 call	 ?ShowWindow@CWnd@@QAEHH@Z ; CWnd::ShowWindow
$LN24@SetUnit:

; 328  : 			}
; 329  : 
; 330  : 			m_bFirstCalled = false;			
; 331  : 			return SetUnit(nCodeType);

  00173	8b 07		 mov	 eax, DWORD PTR [edi]
  00175	8b cf		 mov	 ecx, edi
  00177	56		 push	 esi
  00178	c6 87 a0 00 00
	00 00		 mov	 BYTE PTR [edi+160], 0
  0017f	8b 80 78 01 00
	00		 mov	 eax, DWORD PTR [eax+376]
  00185	ff d0		 call	 eax
  00187	8a d8		 mov	 bl, al
$LN28@SetUnit:

; 332  : 		}
; 333  : 	}
; 334  : 	
; 335  : 	return true;

  00189	8d 4d 08	 lea	 ecx, DWORD PTR _strUnit$[ebp]
  0018c	ff 15 00 00 00
	00		 call	 DWORD PTR __imp_??1?$CStringT@DV?$StrTraitMFC_DLL@DV?$ChTraitsCRT@D@ATL@@@@@ATL@@QAE@XZ
  00192	8a c3		 mov	 al, bl

; 336  : }

  00194	8b 4d f4	 mov	 ecx, DWORD PTR __$EHRec$[ebp]
  00197	64 89 0d 00 00
	00 00		 mov	 DWORD PTR fs:0, ecx
  0019e	59		 pop	 ecx
  0019f	5f		 pop	 edi
  001a0	5e		 pop	 esi
  001a1	5b		 pop	 ebx
  001a2	8b e5		 mov	 esp, ebp
  001a4	5d		 pop	 ebp
  001a5	c2 04 00	 ret	 4
_TEXT	ENDS
;	COMDAT text$x
text$x	SEGMENT
__unwindfunclet$?SetUnit@CCodeCtrl@@UAE_NV?$CStringT@DV?$StrTraitMFC_DLL@DV?$ChTraitsCRT@D@ATL@@@@@ATL@@@Z$0:
  00000	8d 4d 08	 lea	 ecx, DWORD PTR _strUnit$[ebp]
  00003	ff 25 00 00 00
	00		 jmp	 DWORD PTR __imp_??1?$CStringT@DV?$StrTraitMFC_DLL@DV?$ChTraitsCRT@D@ATL@@@@@ATL@@QAE@XZ
  00009	cc		 int	 3
  0000a	cc		 int	 3
  0000b	cc		 int	 3
  0000c	cc		 int	 3
  0000d	cc		 int	 3
__ehhandler$?SetUnit@CCodeCtrl@@UAE_NV?$CStringT@DV?$StrTraitMFC_DLL@DV?$ChTraitsCRT@D@ATL@@@@@ATL@@@Z:
  0000e	90		 npad	 1
  0000f	90		 npad	 1
  00010	8b 54 24 08	 mov	 edx, DWORD PTR [esp+8]
  00014	8d 42 0c	 lea	 eax, DWORD PTR [edx+12]
  00017	8b 4a f0	 mov	 ecx, DWORD PTR [edx-16]
  0001a	33 c8		 xor	 ecx, eax
  0001c	e8 00 00 00 00	 call	 @__security_check_cookie@4
  00021	b8 00 00 00 00	 mov	 eax, OFFSET __ehfuncinfo$?SetUnit@CCodeCtrl@@UAE_NV?$CStringT@DV?$StrTraitMFC_DLL@DV?$ChTraitsCRT@D@ATL@@@@@ATL@@@Z
  00026	e9 00 00 00 00	 jmp	 ___CxxFrameHandler3
text$x	ENDS
?SetUnit@CCodeCtrl@@UAE_NV?$CStringT@DV?$StrTraitMFC_DLL@DV?$ChTraitsCRT@D@ATL@@@@@ATL@@@Z ENDP ; CCodeCtrl::SetUnit
; Function compile flags: /Ogtp
; File D:\git\src\IBK\IBK_DRFN\ProjSrc\SrcSite\include\CodeCtrl.cpp
; File C:\Program Files (x86)\Microsoft Visual Studio\2019\Community\VC\Tools\MSVC\14.29.30133\atlmfc\include\cstringt.h
; File D:\git\src\IBK\IBK_DRFN\ProjSrc\SrcSite\include\CodeCtrl.cpp
; File C:\Program Files (x86)\Microsoft Visual Studio\2019\Community\VC\Tools\MSVC\14.29.30133\atlmfc\include\cstringt.h
; File D:\git\src\IBK\IBK_DRFN\ProjSrc\SrcSite\include\CodeCtrl.cpp
; File C:\Program Files (x86)\Microsoft Visual Studio\2019\Community\VC\Tools\MSVC\14.29.30133\include\comutil.h
; File D:\git\src\IBK\IBK_DRFN\ProjSrc\SrcSite\include\CodeCtrl.cpp
; File C:\Program Files (x86)\Microsoft Visual Studio\2019\Community\VC\Tools\MSVC\14.29.30133\include\comutil.h
; File D:\git\src\IBK\IBK_DRFN\ProjSrc\SrcSite\include\CodeCtrl.cpp
;	COMDAT ?SetUnit@CCodeCtrl@@UAE_NH@Z
_TEXT	SEGMENT
$T2 = -32						; size = 16
_strUnit$ = -16						; size = 4
__$EHRec$ = -12						; size = 12
_nCodeType$ = 8						; size = 4
?SetUnit@CCodeCtrl@@UAE_NH@Z PROC			; CCodeCtrl::SetUnit, COMDAT
; _this$ = ecx

; 91   : {

  00000	55		 push	 ebp
  00001	8b ec		 mov	 ebp, esp
  00003	6a ff		 push	 -1
  00005	68 00 00 00 00	 push	 __ehhandler$?SetUnit@CCodeCtrl@@UAE_NH@Z
  0000a	64 a1 00 00 00
	00		 mov	 eax, DWORD PTR fs:0
  00010	50		 push	 eax
  00011	83 ec 14	 sub	 esp, 20			; 00000014H
  00014	53		 push	 ebx
  00015	56		 push	 esi
  00016	57		 push	 edi
  00017	a1 00 00 00 00	 mov	 eax, DWORD PTR ___security_cookie
  0001c	33 c5		 xor	 eax, ebp
  0001e	50		 push	 eax
  0001f	8d 45 f4	 lea	 eax, DWORD PTR __$EHRec$[ebp]
  00022	64 a3 00 00 00
	00		 mov	 DWORD PTR fs:0, eax
  00028	8b f9		 mov	 edi, ecx

; 92   : //	if(m_nCodeType==nCodeType) return true; : KHD :   CodeType   ( Unit   ) 
; 93   : //KHD
; 94   :  	CString strUnit;

  0002a	8d 4d f0	 lea	 ecx, DWORD PTR _strUnit$[ebp]
  0002d	ff 15 00 00 00
	00		 call	 DWORD PTR __imp_??0?$CStringT@DV?$StrTraitMFC_DLL@DV?$ChTraitsCRT@D@ATL@@@@@ATL@@QAE@XZ

; 95   : 	switch(nCodeType)

  00033	8b 4d 08	 mov	 ecx, DWORD PTR _nCodeType$[ebp]
  00036	c7 45 fc 00 00
	00 00		 mov	 DWORD PTR __$EHRec$[ebp+8], 0
  0003d	8d 41 ff	 lea	 eax, DWORD PTR [ecx-1]
  00040	83 f8 1a	 cmp	 eax, 26			; 0000001aH
  00043	0f 87 f7 00 00
	00		 ja	 $LN16@SetUnit
  00049	0f b6 80 00 00
	00 00		 movzx	 eax, BYTE PTR $LN41@SetUnit[eax]
  00050	ff 24 85 00 00
	00 00		 jmp	 DWORD PTR $LN42@SetUnit[eax*4]
$LN4@SetUnit:

; 96   : 	{
; 97   : 		case kospiType:
; 98   : 		case kosdaqType:
; 99   : 		case etfType	:
; 100  : 		case etnType:
; 101  : 			strUnit = "";

  00057	68 00 00 00 00	 push	 OFFSET ??_C@_04IMIHFAMF@?A?V?$LN?D@
  0005c	8d 4d f0	 lea	 ecx, DWORD PTR _strUnit$[ebp]
  0005f	ff 15 00 00 00
	00		 call	 DWORD PTR __imp_??4?$CStringT@DV?$StrTraitMFC_DLL@DV?$ChTraitsCRT@D@ATL@@@@@ATL@@QAEAAV01@PBD@Z

; 102  : 			m_nCodeType= GU_CODE;

  00065	8d b7 10 02 00
	00		 lea	 esi, DWORD PTR [edi+528]

; 103  : 			break;

  0006b	e9 02 01 00 00	 jmp	 $LN44@SetUnit
$LN8@SetUnit:

; 104  : 
; 105  : 		case elwType	:
; 106  : 			m_nCodeType= GU_ELWCODE;

  00070	8d b7 10 02 00
	00		 lea	 esi, DWORD PTR [edi+528]

; 107  : 			strUnit = "ELW";

  00076	8d 4d f0	 lea	 ecx, DWORD PTR _strUnit$[ebp]
  00079	c7 06 06 00 00
	00		 mov	 DWORD PTR [esi], 6
  0007f	68 00 00 00 00	 push	 OFFSET ??_C@_03POALDHNL@ELW@
  00084	ff 15 00 00 00
	00		 call	 DWORD PTR __imp_??4?$CStringT@DV?$StrTraitMFC_DLL@DV?$ChTraitsCRT@D@ATL@@@@@ATL@@QAEAAV01@PBD@Z

; 108  : 			break;

  0008a	e9 e9 00 00 00	 jmp	 $LN2@SetUnit
$LN9@SetUnit:

; 109  : 
; 110  : //KHD		case usType:
; 111  : 		case foreignType:
; 112  : 			strUnit = "";

  0008f	68 00 00 00 00	 push	 OFFSET ??_C@_04GCIHJOGB@?G?X?$LP?$NM@
  00094	8d 4d f0	 lea	 ecx, DWORD PTR _strUnit$[ebp]
  00097	ff 15 00 00 00
	00		 call	 DWORD PTR __imp_??4?$CStringT@DV?$StrTraitMFC_DLL@DV?$ChTraitsCRT@D@ATL@@@@@ATL@@QAEAAV01@PBD@Z

; 113  : 			m_nCodeType= GU_FOREIGN;

  0009d	8d b7 10 02 00
	00		 lea	 esi, DWORD PTR [edi+528]
  000a3	c7 06 0c 00 00
	00		 mov	 DWORD PTR [esi], 12	; 0000000cH

; 114  : 			//m_nCodeType= usType;
; 115  : 			break;

  000a9	e9 ca 00 00 00	 jmp	 $LN2@SetUnit
$LN10@SetUnit:

; 116  : 
; 117  : 		case futureType:
; 118  : 			strUnit = "";

  000ae	68 00 00 00 00	 push	 OFFSET ??_C@_08NDPAGPFD@?$LM?$LB?$LJ?$LA?$LP?I?$LM?G@
  000b3	8d 4d f0	 lea	 ecx, DWORD PTR _strUnit$[ebp]
  000b6	ff 15 00 00 00
	00		 call	 DWORD PTR __imp_??4?$CStringT@DV?$StrTraitMFC_DLL@DV?$ChTraitsCRT@D@ATL@@@@@ATL@@QAEAAV01@PBD@Z

; 119  : 	//		if(m_bUseFutureOption)
; 120  : 	//			m_nCodeType= linkFCODE;//foptionCODE;
; 121  : 	//		else
; 122  : 				m_nCodeType= GU_FOCODE;//GU_FUTURE;

  000bc	8d b7 10 02 00
	00		 lea	 esi, DWORD PTR [edi+528]
  000c2	c7 06 04 00 00
	00		 mov	 DWORD PTR [esi], 4

; 123  : 			break;

  000c8	e9 ab 00 00 00	 jmp	 $LN2@SetUnit
$LN11@SetUnit:

; 124  : 
; 125  : 		case callType	:
; 126  : 		case putType	:
; 127  : 			strUnit = "";

  000cd	68 00 00 00 00	 push	 OFFSET ??_C@_08NDPAGPFD@?$LM?$LB?$LJ?$LA?$LP?I?$LM?G@
  000d2	8d 4d f0	 lea	 ecx, DWORD PTR _strUnit$[ebp]
  000d5	ff 15 00 00 00
	00		 call	 DWORD PTR __imp_??4?$CStringT@DV?$StrTraitMFC_DLL@DV?$ChTraitsCRT@D@ATL@@@@@ATL@@QAEAAV01@PBD@Z

; 128  : 	//		if(m_bUseFutureOption)
; 129  : 	//			m_nCodeType= linkFCODE;//foptionCODE;
; 130  : 	//		else
; 131  : 			m_nCodeType= GU_OPTION;

  000db	8d b7 10 02 00
	00		 lea	 esi, DWORD PTR [edi+528]
  000e1	c7 06 02 00 00
	00		 mov	 DWORD PTR [esi], 2

; 132  : 			break;

  000e7	e9 8c 00 00 00	 jmp	 $LN2@SetUnit
$LN13@SetUnit:

; 133  : /*		case spreadType:	//
; 134  : 			strUnit = "";
; 135  : 			//m_nCodeType= spreadCODE;
; 136  : 	//		if(m_bUseFutureOption)
; 137  : 	//			m_nCodeType= linkFCODE;//foptionCODE;
; 138  : 	//		else
; 139  : 				m_nCodeType= GU_FUTURE;
; 140  : 			break;
; 141  : */
; 142  : 		case koptionType:	// 
; 143  : 			strUnit = "";

  000ec	68 00 00 00 00	 push	 OFFSET ??_C@_08GMMOIJLH@?A?V?$LN?D?$LP?I?$LM?G@
  000f1	8d 4d f0	 lea	 ecx, DWORD PTR _strUnit$[ebp]
  000f4	ff 15 00 00 00
	00		 call	 DWORD PTR __imp_??4?$CStringT@DV?$StrTraitMFC_DLL@DV?$ChTraitsCRT@D@ATL@@@@@ATL@@QAEAAV01@PBD@Z

; 144  : 			m_nCodeType= GU_POPTION;

  000fa	8d b7 10 02 00
	00		 lea	 esi, DWORD PTR [edi+528]
  00100	c7 06 05 00 00
	00		 mov	 DWORD PTR [esi], 5

; 145  : 			break;

  00106	eb 70		 jmp	 SHORT $LN2@SetUnit
$LN14@SetUnit:

; 146  : 
; 147  : 		case sfutureType:	//
; 148  : 			strUnit = "";

  00108	68 00 00 00 00	 push	 OFFSET ??_C@_08ODFAFGMO@?A?V?$LN?D?$LM?$LB?$LJ?$LA@
  0010d	8d 4d f0	 lea	 ecx, DWORD PTR _strUnit$[ebp]
  00110	ff 15 00 00 00
	00		 call	 DWORD PTR __imp_??4?$CStringT@DV?$StrTraitMFC_DLL@DV?$ChTraitsCRT@D@ATL@@@@@ATL@@QAEAAV01@PBD@Z

; 149  : 			m_nCodeType= GU_FCODE;

  00116	8d b7 10 02 00
	00		 lea	 esi, DWORD PTR [edi+528]
  0011c	c7 06 0a 00 00
	00		 mov	 DWORD PTR [esi], 10	; 0000000aH

; 150  : 			break;

  00122	eb 54		 jmp	 SHORT $LN2@SetUnit
$LN15@SetUnit:

; 151  : 
; 152  : 		case indexType:
; 153  : 			strUnit = "";

  00124	68 00 00 00 00	 push	 OFFSET ??_C@_04GHLAOPMI@?$LO?w?A?$LO@
  00129	8d 4d f0	 lea	 ecx, DWORD PTR _strUnit$[ebp]
  0012c	ff 15 00 00 00
	00		 call	 DWORD PTR __imp_??4?$CStringT@DV?$StrTraitMFC_DLL@DV?$ChTraitsCRT@D@ATL@@@@@ATL@@QAEAAV01@PBD@Z

; 154  : 			m_nCodeType= GU_INDEX;

  00132	8d b7 10 02 00
	00		 lea	 esi, DWORD PTR [edi+528]
  00138	c7 06 03 00 00
	00		 mov	 DWORD PTR [esi], 3

; 155  : 			break;

  0013e	eb 38		 jmp	 SHORT $LN2@SetUnit
$LN16@SetUnit:

; 156  : 
; 157  : //		case foindexType:
; 158  : //			strUnit = "FO";
; 159  : //			m_nCodeType= foindexCODE;
; 160  : //			break;
; 161  : 
; 162  : //		case USD_OPTION:
; 163  : //			strUnit = "";
; 164  : //			m_nCodeType= coptionCODE;
; 165  : //			break;
; 166  : 
; 167  : //		case gfutureType:
; 168  : //			strUnit = "";
; 169  : //			//nCodeType= gfutureCODE;
; 170  : //			m_nCodeType= linkGFCODE;
; 171  : //			break;
; 172  : 
; 173  : 		//case gfxType:
; 174  : 		//	strUnit = "FX";
; 175  : 		//	m_nCodeType= gfxCODE;
; 176  : 		//	break;
; 177  : 			
; 178  : 		//case thirdType:		m_nCodeType= ;	break;
; 179  : 		//case mufundType:	m_nCodeType= ;	break;
; 180  : 		//case reitsType:		m_nCodeType= ;	break;
; 181  : 		//case sinjuType:		m_nCodeType= ;	break;
; 182  : 		//case hyfundType:	m_nCodeType= ;	break;
; 183  : 		//case smbondType:	m_nCodeType= ;	break;
; 184  : 		//case conbondType:	m_nCodeType= ;	break;
; 185  : 		//case babybondType:	m_nCodeType= ;	break;
; 186  : 		//case reitsallType:	m_nCodeType= ;	break;
; 187  : 		//case shipType	:	m_nCodeType= ;	break;
; 188  : 		//case infraType:		m_nCodeType= ;	break;
; 189  : 		default:
; 190  : 			//if (nCodeType >= THREE_BONDS && nCodeType <= MGOLD_FUTURE)
; 191  : 			if (nCodeType >= THREE_BONDS && nCodeType <= NEW_TEN_BONDS+20)

  00140	8d 81 7c fc ff
	ff		 lea	 eax, DWORD PTR [ecx-900]
  00146	8d b7 10 02 00
	00		 lea	 esi, DWORD PTR [edi+528]
  0014c	8d 4d f0	 lea	 ecx, DWORD PTR _strUnit$[ebp]
  0014f	83 f8 22	 cmp	 eax, 34			; 00000022H
  00152	77 13		 ja	 SHORT $LN17@SetUnit

; 192  : 			{
; 193  : 				strUnit = "";

  00154	68 00 00 00 00	 push	 OFFSET ??_C@_0N@EPCAMEMK@?$LL?s?G?$LA?$LM?$LB?$LJ?$LA?$LP?I?$LM?G@
  00159	ff 15 00 00 00
	00		 call	 DWORD PTR __imp_??4?$CStringT@DV?$StrTraitMFC_DLL@DV?$ChTraitsCRT@D@ATL@@@@@ATL@@QAEAAV01@PBD@Z

; 194  : 				m_nCodeType= GU_BOND;

  0015f	c7 06 08 00 00
	00		 mov	 DWORD PTR [esi], 8

; 195  : 				break;

  00165	eb 11		 jmp	 SHORT $LN2@SetUnit
$LN17@SetUnit:

; 196  : 			}
; 197  : 
; 198  : 			strUnit = "";

  00167	68 00 00 00 00	 push	 OFFSET ??_C@_04IMIHFAMF@?A?V?$LN?D@
  0016c	ff 15 00 00 00
	00		 call	 DWORD PTR __imp_??4?$CStringT@DV?$StrTraitMFC_DLL@DV?$ChTraitsCRT@D@ATL@@@@@ATL@@QAEAAV01@PBD@Z
$LN44@SetUnit:

; 203  : 	if(m_szOldUnit==strUnit) return true;

  00172	c7 06 00 00 00
	00		 mov	 DWORD PTR [esi], 0
$LN2@SetUnit:
; File C:\Program Files (x86)\Microsoft Visual Studio\2019\Community\VC\Tools\MSVC\14.29.30133\atlmfc\include\cstringt.h

; 2479 : 		return(str1.Compare(str2) == 0);

  00178	ff 75 f0	 push	 DWORD PTR _strUnit$[ebp]
; File D:\git\src\IBK\IBK_DRFN\ProjSrc\SrcSite\include\CodeCtrl.cpp

; 203  : 	if(m_szOldUnit==strUnit) return true;

  0017b	8d 9f a4 00 00
	00		 lea	 ebx, DWORD PTR [edi+164]
; File C:\Program Files (x86)\Microsoft Visual Studio\2019\Community\VC\Tools\MSVC\14.29.30133\atlmfc\include\cstringt.h

; 2479 : 		return(str1.Compare(str2) == 0);

  00181	8b cb		 mov	 ecx, ebx
  00183	ff 15 00 00 00
	00		 call	 DWORD PTR __imp_?Compare@?$CStringT@DV?$StrTraitMFC_DLL@DV?$ChTraitsCRT@D@ATL@@@@@ATL@@QBEHPBD@Z
  00189	85 c0		 test	 eax, eax
; File D:\git\src\IBK\IBK_DRFN\ProjSrc\SrcSite\include\CodeCtrl.cpp

; 203  : 	if(m_szOldUnit==strUnit) return true;

  0018b	74 53		 je	 SHORT $LN45@SetUnit

; 204  : 
; 205  : 	m_szOldUnit = strUnit;

  0018d	8d 45 f0	 lea	 eax, DWORD PTR _strUnit$[ebp]
  00190	8b cb		 mov	 ecx, ebx
  00192	50		 push	 eax
  00193	ff 15 00 00 00
	00		 call	 DWORD PTR __imp_??4?$CStringT@DV?$StrTraitMFC_DLL@DV?$ChTraitsCRT@D@ATL@@@@@ATL@@QAEAAV01@ABV01@@Z

; 713  : 	if ( !m_hiCodeCtrl || !m_pwndCodeCtrl)

  00199	83 bf 94 00 00
	00 00		 cmp	 DWORD PTR [edi+148], 0

; 206  : 	return CWinixCodeCtrl::SetUnit(m_nCodeType);

  001a0	8b 06		 mov	 eax, DWORD PTR [esi]

; 713  : 	if ( !m_hiCodeCtrl || !m_pwndCodeCtrl)

  001a2	74 40		 je	 SHORT $LN28@SetUnit
  001a4	83 bf 84 00 00
	00 00		 cmp	 DWORD PTR [edi+132], 0
  001ab	74 37		 je	 SHORT $LN28@SetUnit
; File C:\Program Files (x86)\Microsoft Visual Studio\2019\Community\VC\Tools\MSVC\14.29.30133\include\comutil.h

; 1193 :         V_VT(this) = VT_I2;

  001ad	b9 02 00 00 00	 mov	 ecx, 2

; 1194 :         V_I2(this) = sSrc;

  001b2	66 89 45 e8	 mov	 WORD PTR $T2[ebp+8], ax
  001b6	66 89 4d e0	 mov	 WORD PTR $T2[ebp], cx
; File D:\git\src\IBK\IBK_DRFN\ProjSrc\SrcSite\include\CodeCtrl.cpp

; 716  : 	SetCtrlProperty("UnitData", _variant_t((short)nUnit));

  001ba	8d 45 e0	 lea	 eax, DWORD PTR $T2[ebp]
  001bd	c6 45 fc 01	 mov	 BYTE PTR __$EHRec$[ebp+8], 1
  001c1	50		 push	 eax
  001c2	51		 push	 ecx
  001c3	8b cc		 mov	 ecx, esp
  001c5	68 00 00 00 00	 push	 OFFSET ??_C@_08GLDIOPIF@UnitData@
  001ca	e8 00 00 00 00	 call	 ??0_bstr_t@@QAE@PBD@Z	; _bstr_t::_bstr_t
  001cf	8b cf		 mov	 ecx, edi
  001d1	e8 00 00 00 00	 call	 ?SetCtrlProperty@CWinixCodeCtrl@@QAEXV_bstr_t@@AAV_variant_t@@@Z ; CWinixCodeCtrl::SetCtrlProperty
; File C:\Program Files (x86)\Microsoft Visual Studio\2019\Community\VC\Tools\MSVC\14.29.30133\include\comutil.h

; 2335 :     ::VariantClear(this);

  001d6	8d 45 e0	 lea	 eax, DWORD PTR $T2[ebp]
  001d9	50		 push	 eax
  001da	ff 15 00 00 00
	00		 call	 DWORD PTR __imp__VariantClear@4
$LN45@SetUnit:
; File D:\git\src\IBK\IBK_DRFN\ProjSrc\SrcSite\include\CodeCtrl.cpp

; 206  : 	return CWinixCodeCtrl::SetUnit(m_nCodeType);

  001e0	b3 01		 mov	 bl, 1
  001e2	eb 02		 jmp	 SHORT $LN26@SetUnit
$LN28@SetUnit:

; 714  : 		return false;

  001e4	32 db		 xor	 bl, bl
$LN26@SetUnit:

; 206  : 	return CWinixCodeCtrl::SetUnit(m_nCodeType);

  001e6	8d 4d f0	 lea	 ecx, DWORD PTR _strUnit$[ebp]
  001e9	ff 15 00 00 00
	00		 call	 DWORD PTR __imp_??1?$CStringT@DV?$StrTraitMFC_DLL@DV?$ChTraitsCRT@D@ATL@@@@@ATL@@QAE@XZ
  001ef	8a c3		 mov	 al, bl

; 207  : /*
; 208  : 	bool (APIENTRY *axSetUnit)(CWnd* , CString);
; 209  : 	axSetUnit = (bool (APIENTRY*)(CWnd*, CString))GetProcAddress(m_hiCodeCtrl, "axSetUnit");
; 210  : 	if (!axSetUnit)
; 211  : 		return false;
; 212  : 
; 213  : 	return axSetUnit(m_pwndCodeCtrl, strUnit);
; 214  : */
; 215  : }

  001f1	8b 4d f4	 mov	 ecx, DWORD PTR __$EHRec$[ebp]
  001f4	64 89 0d 00 00
	00 00		 mov	 DWORD PTR fs:0, ecx
  001fb	59		 pop	 ecx
  001fc	5f		 pop	 edi
  001fd	5e		 pop	 esi
  001fe	5b		 pop	 ebx
  001ff	8b e5		 mov	 esp, ebp
  00201	5d		 pop	 ebp
  00202	c2 04 00	 ret	 4
  00205	0f 1f 00	 npad	 3
$LN42@SetUnit:
  00208	00 00 00 00	 DD	 $LN4@SetUnit
  0020c	00 00 00 00	 DD	 $LN8@SetUnit
  00210	00 00 00 00	 DD	 $LN9@SetUnit
  00214	00 00 00 00	 DD	 $LN10@SetUnit
  00218	00 00 00 00	 DD	 $LN11@SetUnit
  0021c	00 00 00 00	 DD	 $LN13@SetUnit
  00220	00 00 00 00	 DD	 $LN14@SetUnit
  00224	00 00 00 00	 DD	 $LN15@SetUnit
  00228	00 00 00 00	 DD	 $LN16@SetUnit
$LN41@SetUnit:
  0022c	00		 DB	 0
  0022d	00		 DB	 0
  0022e	08		 DB	 8
  0022f	08		 DB	 8
  00230	08		 DB	 8
  00231	00		 DB	 0
  00232	08		 DB	 8
  00233	08		 DB	 8
  00234	01		 DB	 1
  00235	02		 DB	 2
  00236	03		 DB	 3
  00237	04		 DB	 4
  00238	04		 DB	 4
  00239	08		 DB	 8
  0023a	05		 DB	 5
  0023b	06		 DB	 6
  0023c	08		 DB	 8
  0023d	08		 DB	 8
  0023e	08		 DB	 8
  0023f	07		 DB	 7
  00240	08		 DB	 8
  00241	08		 DB	 8
  00242	08		 DB	 8
  00243	08		 DB	 8
  00244	08		 DB	 8
  00245	08		 DB	 8
  00246	00		 DB	 0
_TEXT	ENDS
;	COMDAT text$x
text$x	SEGMENT
__unwindfunclet$?SetUnit@CCodeCtrl@@UAE_NH@Z$0:
  00000	8d 4d f0	 lea	 ecx, DWORD PTR _strUnit$[ebp]
  00003	ff 25 00 00 00
	00		 jmp	 DWORD PTR __imp_??1?$CStringT@DV?$StrTraitMFC_DLL@DV?$ChTraitsCRT@D@ATL@@@@@ATL@@QAE@XZ
__unwindfunclet$?SetUnit@CCodeCtrl@@UAE_NH@Z$1:
  00009	8d 4d e0	 lea	 ecx, DWORD PTR $T2[ebp]
  0000c	e9 00 00 00 00	 jmp	 ??1_variant_t@@QAE@XZ	; _variant_t::~_variant_t
  00011	cc		 int	 3
  00012	cc		 int	 3
  00013	cc		 int	 3
  00014	cc		 int	 3
  00015	cc		 int	 3
__ehhandler$?SetUnit@CCodeCtrl@@UAE_NH@Z:
  00016	90		 npad	 1
  00017	90		 npad	 1
  00018	8b 54 24 08	 mov	 edx, DWORD PTR [esp+8]
  0001c	8d 42 0c	 lea	 eax, DWORD PTR [edx+12]
  0001f	8b 4a dc	 mov	 ecx, DWORD PTR [edx-36]
  00022	33 c8		 xor	 ecx, eax
  00024	e8 00 00 00 00	 call	 @__security_check_cookie@4
  00029	b8 00 00 00 00	 mov	 eax, OFFSET __ehfuncinfo$?SetUnit@CCodeCtrl@@UAE_NH@Z
  0002e	e9 00 00 00 00	 jmp	 ___CxxFrameHandler3
text$x	ENDS
?SetUnit@CCodeCtrl@@UAE_NH@Z ENDP			; CCodeCtrl::SetUnit
; Function compile flags: /Ogtp
; File D:\git\src\IBK\IBK_DRFN\ProjSrc\SrcSite\include\CodeCtrl.h
;	COMDAT ?SetRootPath@CCodeCtrl@@UAEXPBD@Z
_TEXT	SEGMENT
_szRootDir$ = 8						; size = 4
?SetRootPath@CCodeCtrl@@UAEXPBD@Z PROC			; CCodeCtrl::SetRootPath, COMDAT
; _this$ = ecx

; 117  : 	virtual void	SetRootPath(LPCSTR szRootDir) {m_szRootPath=szRootDir;}

  00000	55		 push	 ebp
  00001	8b ec		 mov	 ebp, esp
  00003	81 c1 1c 02 00
	00		 add	 ecx, 540		; 0000021cH
  00009	5d		 pop	 ebp
  0000a	ff 25 00 00 00
	00		 jmp	 DWORD PTR __imp_??4?$CStringT@DV?$StrTraitMFC_DLL@DV?$ChTraitsCRT@D@ATL@@@@@ATL@@QAEAAV01@PBD@Z
?SetRootPath@CCodeCtrl@@UAEXPBD@Z ENDP			; CCodeCtrl::SetRootPath
_TEXT	ENDS
; Function compile flags: /Ogtp
; File D:\git\src\IBK\IBK_DRFN\ProjSrc\SrcSite\include\CodeCtrl.h
;	COMDAT ?UseCodeDlg@CCodeCtrl@@UAEXH@Z
_TEXT	SEGMENT
_bValue$ = 8						; size = 4
?UseCodeDlg@CCodeCtrl@@UAEXH@Z PROC			; CCodeCtrl::UseCodeDlg, COMDAT
; _this$ = ecx

; 116  : 	virtual void	UseCodeDlg(BOOL bValue) {m_bUseCodeDlg=bValue;}

  00000	55		 push	 ebp
  00001	8b ec		 mov	 ebp, esp
  00003	8b 45 08	 mov	 eax, DWORD PTR _bValue$[ebp]
  00006	89 81 18 02 00
	00		 mov	 DWORD PTR [ecx+536], eax
  0000c	5d		 pop	 ebp
  0000d	c2 04 00	 ret	 4
?UseCodeDlg@CCodeCtrl@@UAEXH@Z ENDP			; CCodeCtrl::UseCodeDlg
_TEXT	ENDS
; Function compile flags: /Ogtp
; File D:\git\src\IBK\IBK_DRFN\ProjSrc\SrcSite\include\CodeCtrl.cpp
; File C:\Program Files (x86)\Microsoft Visual Studio\2019\Community\VC\Tools\MSVC\14.29.30133\atlmfc\include\afxwin2.inl
; File D:\git\src\IBK\IBK_DRFN\ProjSrc\SrcSite\include\CodeCtrl.cpp
; File C:\Program Files (x86)\Microsoft Visual Studio\2019\Community\VC\Tools\MSVC\14.29.30133\atlmfc\include\afxwin2.inl
; File D:\git\src\IBK\IBK_DRFN\ProjSrc\SrcSite\include\CodeCtrl.cpp
;	COMDAT ??0CCodeCtrl@@QAE@PAVCWnd@@@Z
_TEXT	SEGMENT
_this$ = -16						; size = 4
__$EHRec$ = -12						; size = 12
_this$ = 8						; size = 4
_wnd$ = 8						; size = 4
??0CCodeCtrl@@QAE@PAVCWnd@@@Z PROC			; CCodeCtrl::CCodeCtrl, COMDAT
; _this$ = ecx

; 29   : {

  00000	55		 push	 ebp
  00001	8b ec		 mov	 ebp, esp
  00003	6a ff		 push	 -1
  00005	68 00 00 00 00	 push	 __ehhandler$??0CCodeCtrl@@QAE@PAVCWnd@@@Z
  0000a	64 a1 00 00 00
	00		 mov	 eax, DWORD PTR fs:0
  00010	50		 push	 eax
  00011	51		 push	 ecx
  00012	56		 push	 esi
  00013	57		 push	 edi
  00014	a1 00 00 00 00	 mov	 eax, DWORD PTR ___security_cookie
  00019	33 c5		 xor	 eax, ebp
  0001b	50		 push	 eax
  0001c	8d 45 f4	 lea	 eax, DWORD PTR __$EHRec$[ebp]
  0001f	64 a3 00 00 00
	00		 mov	 DWORD PTR fs:0, eax
  00025	8b f9		 mov	 edi, ecx
  00027	89 7d f0	 mov	 DWORD PTR _this$[ebp], edi

; 592  : {

  0002a	e8 00 00 00 00	 call	 ??0CWnd@@QAE@XZ		; CWnd::CWnd

; 593  : 	m_nID = 0;
; 594  : 
; 595  : 	m_hiCodeCtrl = NULL;
; 596  : 
; 597  : 	m_pwndCodeCtrl = NULL;
; 598  : 	m_pwndParent = NULL;
; 599  : 	m_pwndWizard = wnd;

  0002f	8b 45 08	 mov	 eax, DWORD PTR _wnd$[ebp]
  00032	c7 87 80 00 00
	00 00 00 00 00	 mov	 DWORD PTR [edi+128], 0
  0003c	c7 87 94 00 00
	00 00 00 00 00	 mov	 DWORD PTR [edi+148], 0
  00046	c7 87 84 00 00
	00 00 00 00 00	 mov	 DWORD PTR [edi+132], 0
  00050	c7 87 88 00 00
	00 00 00 00 00	 mov	 DWORD PTR [edi+136], 0
  0005a	89 87 8c 00 00
	00		 mov	 DWORD PTR [edi+140], eax

; 600  : 	m_pCodeSendWnd = NULL;

  00060	c7 87 90 00 00
	00 00 00 00 00	 mov	 DWORD PTR [edi+144], 0

; 601  : 	m_bIsComareChart = FALSE;

  0006a	c7 87 98 00 00
	00 00 00 00 00	 mov	 DWORD PTR [edi+152], 0

; 29   : {

  00074	8d 8f a4 00 00
	00		 lea	 ecx, DWORD PTR [edi+164]
  0007a	c7 45 fc 00 00
	00 00		 mov	 DWORD PTR __$EHRec$[ebp+8], 0
  00081	c7 07 00 00 00
	00		 mov	 DWORD PTR [edi], OFFSET ??_7CCodeCtrl@@6B@
  00087	ff 15 00 00 00
	00		 call	 DWORD PTR __imp_??0?$CStringT@DV?$StrTraitMFC_DLL@DV?$ChTraitsCRT@D@ATL@@@@@ATL@@QAE@XZ
  0008d	8d 8f a8 00 00
	00		 lea	 ecx, DWORD PTR [edi+168]
  00093	c6 45 fc 01	 mov	 BYTE PTR __$EHRec$[ebp+8], 1
  00097	e8 00 00 00 00	 call	 ??0CImageList@@QAE@XZ	; CImageList::CImageList
  0009c	8d 8f b0 00 00
	00		 lea	 ecx, DWORD PTR [edi+176]
  000a2	c6 45 fc 02	 mov	 BYTE PTR __$EHRec$[ebp+8], 2
  000a6	e8 00 00 00 00	 call	 ??0CILButton@@QAE@XZ	; CILButton::CILButton
  000ab	8d 8f 14 02 00
	00		 lea	 ecx, DWORD PTR [edi+532]
  000b1	ff 15 00 00 00
	00		 call	 DWORD PTR __imp_??0?$CStringT@DV?$StrTraitMFC_DLL@DV?$ChTraitsCRT@D@ATL@@@@@ATL@@QAE@XZ
  000b7	8d 8f 1c 02 00
	00		 lea	 ecx, DWORD PTR [edi+540]
  000bd	ff 15 00 00 00
	00		 call	 DWORD PTR __imp_??0?$CStringT@DV?$StrTraitMFC_DLL@DV?$ChTraitsCRT@D@ATL@@@@@ATL@@QAE@XZ
  000c3	8d b7 20 02 00
	00		 lea	 esi, DWORD PTR [edi+544]
  000c9	c6 45 fc 05	 mov	 BYTE PTR __$EHRec$[ebp+8], 5
; File C:\Program Files (x86)\Microsoft Visual Studio\2019\Community\VC\Tools\MSVC\14.29.30133\atlmfc\include\afxwin2.inl

; 851  : 	{ }

  000cd	8b ce		 mov	 ecx, esi
; File D:\git\src\IBK\IBK_DRFN\ProjSrc\SrcSite\include\CodeCtrl.cpp

; 29   : {

  000cf	89 75 08	 mov	 DWORD PTR _this$[ebp], esi
; File C:\Program Files (x86)\Microsoft Visual Studio\2019\Community\VC\Tools\MSVC\14.29.30133\atlmfc\include\afxwin2.inl

; 851  : 	{ }

  000d2	e8 00 00 00 00	 call	 ??0CWnd@@QAE@XZ		; CWnd::CWnd
  000d7	c7 06 00 00 00
	00		 mov	 DWORD PTR [esi], OFFSET ??_7CEdit@@6B@
; File D:\git\src\IBK\IBK_DRFN\ProjSrc\SrcSite\include\CodeCtrl.cpp

; 37   : }

  000dd	8b c7		 mov	 eax, edi
  000df	c7 87 18 02 00
	00 00 00 00 00	 mov	 DWORD PTR [edi+536], 0
  000e9	c7 87 10 02 00
	00 00 00 00 00	 mov	 DWORD PTR [edi+528], 0
  000f3	66 c7 87 a1 00
	00 00 01 00	 mov	 WORD PTR [edi+161], 1
  000fc	c6 87 a0 00 00
	00 01		 mov	 BYTE PTR [edi+160], 1
  00103	c6 87 a4 02 00
	00 00		 mov	 BYTE PTR [edi+676], 0
  0010a	8b 4d f4	 mov	 ecx, DWORD PTR __$EHRec$[ebp]
  0010d	64 89 0d 00 00
	00 00		 mov	 DWORD PTR fs:0, ecx
  00114	59		 pop	 ecx
  00115	5f		 pop	 edi
  00116	5e		 pop	 esi
  00117	8b e5		 mov	 esp, ebp
  00119	5d		 pop	 ebp
  0011a	c2 04 00	 ret	 4
_TEXT	ENDS
;	COMDAT text$x
text$x	SEGMENT
__unwindfunclet$??0CCodeCtrl@@QAE@PAVCWnd@@@Z$0:
  00000	8b 4d f0	 mov	 ecx, DWORD PTR _this$[ebp]
  00003	e9 00 00 00 00	 jmp	 ??1CWinixCodeCtrl@@UAE@XZ ; CWinixCodeCtrl::~CWinixCodeCtrl
__unwindfunclet$??0CCodeCtrl@@QAE@PAVCWnd@@@Z$1:
  00008	8b 4d f0	 mov	 ecx, DWORD PTR _this$[ebp]
  0000b	81 c1 a4 00 00
	00		 add	 ecx, 164		; 000000a4H
  00011	ff 25 00 00 00
	00		 jmp	 DWORD PTR __imp_??1?$CStringT@DV?$StrTraitMFC_DLL@DV?$ChTraitsCRT@D@ATL@@@@@ATL@@QAE@XZ
__unwindfunclet$??0CCodeCtrl@@QAE@PAVCWnd@@@Z$2:
  00017	8b 4d f0	 mov	 ecx, DWORD PTR _this$[ebp]
  0001a	81 c1 a8 00 00
	00		 add	 ecx, 168		; 000000a8H
  00020	e9 00 00 00 00	 jmp	 ??1CImageList@@UAE@XZ	; CImageList::~CImageList
__unwindfunclet$??0CCodeCtrl@@QAE@PAVCWnd@@@Z$3:
  00025	8b 4d f0	 mov	 ecx, DWORD PTR _this$[ebp]
  00028	81 c1 b0 00 00
	00		 add	 ecx, 176		; 000000b0H
  0002e	e9 00 00 00 00	 jmp	 ??1CILButton@@UAE@XZ	; CILButton::~CILButton
__unwindfunclet$??0CCodeCtrl@@QAE@PAVCWnd@@@Z$4:
  00033	8b 4d f0	 mov	 ecx, DWORD PTR _this$[ebp]
  00036	81 c1 14 02 00
	00		 add	 ecx, 532		; 00000214H
  0003c	ff 25 00 00 00
	00		 jmp	 DWORD PTR __imp_??1?$CStringT@DV?$StrTraitMFC_DLL@DV?$ChTraitsCRT@D@ATL@@@@@ATL@@QAE@XZ
__unwindfunclet$??0CCodeCtrl@@QAE@PAVCWnd@@@Z$5:
  00042	8b 4d f0	 mov	 ecx, DWORD PTR _this$[ebp]
  00045	81 c1 1c 02 00
	00		 add	 ecx, 540		; 0000021cH
  0004b	ff 25 00 00 00
	00		 jmp	 DWORD PTR __imp_??1?$CStringT@DV?$StrTraitMFC_DLL@DV?$ChTraitsCRT@D@ATL@@@@@ATL@@QAE@XZ
  00051	cc		 int	 3
  00052	cc		 int	 3
  00053	cc		 int	 3
  00054	cc		 int	 3
  00055	cc		 int	 3
__ehhandler$??0CCodeCtrl@@QAE@PAVCWnd@@@Z:
  00056	90		 npad	 1
  00057	90		 npad	 1
  00058	8b 54 24 08	 mov	 edx, DWORD PTR [esp+8]
  0005c	8d 42 0c	 lea	 eax, DWORD PTR [edx+12]
  0005f	8b 4a f0	 mov	 ecx, DWORD PTR [edx-16]
  00062	33 c8		 xor	 ecx, eax
  00064	e8 00 00 00 00	 call	 @__security_check_cookie@4
  00069	b8 00 00 00 00	 mov	 eax, OFFSET __ehfuncinfo$??0CCodeCtrl@@QAE@PAVCWnd@@@Z
  0006e	e9 00 00 00 00	 jmp	 ___CxxFrameHandler3
text$x	ENDS
??0CCodeCtrl@@QAE@PAVCWnd@@@Z ENDP			; CCodeCtrl::CCodeCtrl
; Function compile flags: /Ogtp
; File C:\Program Files (x86)\Microsoft Visual Studio\2019\Community\VC\Tools\MSVC\14.29.30133\atlmfc\include\afx.inl
;	COMDAT ??_GCWinixCodeCtrl@@UAEPAXI@Z
_TEXT	SEGMENT
___flags$ = 8						; size = 4
??_GCWinixCodeCtrl@@UAEPAXI@Z PROC			; CWinixCodeCtrl::`scalar deleting destructor', COMDAT
; _this$ = ecx
  00000	55		 push	 ebp
  00001	8b ec		 mov	 ebp, esp
  00003	56		 push	 esi
  00004	8b f1		 mov	 esi, ecx
  00006	e8 00 00 00 00	 call	 ??1CWinixCodeCtrl@@UAE@XZ ; CWinixCodeCtrl::~CWinixCodeCtrl
  0000b	8b 45 08	 mov	 eax, DWORD PTR ___flags$[ebp]
  0000e	a8 01		 test	 al, 1
  00010	74 22		 je	 SHORT $LN9@scalar
  00012	a8 04		 test	 al, 4
  00014	75 10		 jne	 SHORT $LN3@scalar

; 112  : 	{ ::operator delete(p); }

  00016	56		 push	 esi
  00017	e8 00 00 00 00	 call	 ??3@YAXPAX@Z		; operator delete
  0001c	83 c4 04	 add	 esp, 4
  0001f	8b c6		 mov	 eax, esi
  00021	5e		 pop	 esi
  00022	5d		 pop	 ebp
  00023	c2 04 00	 ret	 4
$LN3@scalar:
  00026	68 a0 00 00 00	 push	 160			; 000000a0H
  0002b	56		 push	 esi
  0002c	e8 00 00 00 00	 call	 ?__global_delete@@YAXPAXI@Z ; __global_delete
  00031	83 c4 08	 add	 esp, 8
$LN9@scalar:
  00034	8b c6		 mov	 eax, esi
  00036	5e		 pop	 esi
  00037	5d		 pop	 ebp
  00038	c2 04 00	 ret	 4
??_GCWinixCodeCtrl@@UAEPAXI@Z ENDP			; CWinixCodeCtrl::`scalar deleting destructor'
_TEXT	ENDS
; Function compile flags: /Ogtp
; File D:\git\src\IBK\IBK_DRFN\ProjSrc\SrcSite\include\CodeCtrl.cpp
;	COMDAT ?GetMessageMap@CWinixCodeCtrl@@MBEPBUAFX_MSGMAP@@XZ
_TEXT	SEGMENT
?GetMessageMap@CWinixCodeCtrl@@MBEPBUAFX_MSGMAP@@XZ PROC ; CWinixCodeCtrl::GetMessageMap, COMDAT
; _this$ = ecx

; 622  : BEGIN_MESSAGE_MAP(CWinixCodeCtrl, CWnd)

  00000	b8 00 00 00 00	 mov	 eax, OFFSET ?messageMap@?1??GetThisMessageMap@CWinixCodeCtrl@@KGPBUAFX_MSGMAP@@XZ@4U3@B
  00005	c3		 ret	 0
?GetMessageMap@CWinixCodeCtrl@@MBEPBUAFX_MSGMAP@@XZ ENDP ; CWinixCodeCtrl::GetMessageMap
_TEXT	ENDS
; Function compile flags: /Ogtp
; File D:\git\src\IBK\IBK_DRFN\ProjSrc\SrcSite\include\CodeCtrl.cpp
;	COMDAT ?GetThisMessageMap@CWinixCodeCtrl@@KGPBUAFX_MSGMAP@@XZ
_TEXT	SEGMENT
?GetThisMessageMap@CWinixCodeCtrl@@KGPBUAFX_MSGMAP@@XZ PROC ; CWinixCodeCtrl::GetThisMessageMap, COMDAT

; 623  : 	//{{AFX_MSG_MAP(CWinixCodeCtrl)
; 624  : 	ON_WM_CREATE()
; 625  : 	ON_WM_SIZE()
; 626  : 	//}}AFX_MSG_MAP
; 627  : //	ON_MESSAGE(WM_COMMAND, OnCommand)
; 628  : 	ON_MESSAGE(WM_USER, OnUser)
; 629  : END_MESSAGE_MAP()

  00000	b8 00 00 00 00	 mov	 eax, OFFSET ?messageMap@?1??GetThisMessageMap@CWinixCodeCtrl@@KGPBUAFX_MSGMAP@@XZ@4U3@B
  00005	c3		 ret	 0
?GetThisMessageMap@CWinixCodeCtrl@@KGPBUAFX_MSGMAP@@XZ ENDP ; CWinixCodeCtrl::GetThisMessageMap
_TEXT	ENDS
; Function compile flags: /Ogtp
; File D:\git\src\IBK\IBK_DRFN\ProjSrc\SrcSite\include\CodeCtrl.cpp
; File C:\Program Files (x86)\Microsoft Visual Studio\2019\Community\VC\Tools\MSVC\14.29.30133\atlmfc\include\afxwin2.inl
; File D:\git\src\IBK\IBK_DRFN\ProjSrc\SrcSite\include\CodeCtrl.cpp
; File C:\Program Files (x86)\Microsoft Visual Studio\2019\Community\VC\Tools\MSVC\14.29.30133\atlmfc\include\afxwin2.inl
; File D:\git\src\IBK\IBK_DRFN\ProjSrc\SrcSite\include\CodeCtrl.cpp
; File C:\Program Files (x86)\Microsoft Visual Studio\2019\Community\VC\Tools\MSVC\14.29.30133\atlmfc\include\afxwin2.inl
; File D:\git\src\IBK\IBK_DRFN\ProjSrc\SrcSite\include\CodeCtrl.cpp
; File C:\Program Files (x86)\Microsoft Visual Studio\2019\Community\VC\Tools\MSVC\14.29.30133\atlmfc\include\afxwin2.inl
; File D:\git\src\IBK\IBK_DRFN\ProjSrc\SrcSite\include\CodeCtrl.cpp
; File C:\Program Files (x86)\Microsoft Visual Studio\2019\Community\VC\Tools\MSVC\14.29.30133\atlmfc\include\afxwin2.inl
; File D:\git\src\IBK\IBK_DRFN\ProjSrc\SrcSite\include\CodeCtrl.cpp
; File C:\Program Files (x86)\Microsoft Visual Studio\2019\Community\VC\Tools\MSVC\14.29.30133\atlmfc\include\afxwin2.inl
; File D:\git\src\IBK\IBK_DRFN\ProjSrc\SrcSite\include\CodeCtrl.cpp
; File C:\Program Files (x86)\Microsoft Visual Studio\2019\Community\VC\Tools\MSVC\14.29.30133\atlmfc\include\afxwin2.inl
; File D:\git\src\IBK\IBK_DRFN\ProjSrc\SrcSite\include\CodeCtrl.cpp
;	COMDAT ?OnUser@CWinixCodeCtrl@@IAEJIJ@Z
_TEXT	SEGMENT
_wParam$ = 8						; size = 4
_lParam$ = 12						; size = 4
?OnUser@CWinixCodeCtrl@@IAEJIJ@Z PROC			; CWinixCodeCtrl::OnUser, COMDAT
; _this$ = ecx

; 636  : {

  00000	55		 push	 ebp
  00001	8b ec		 mov	 ebp, esp

; 637  : 	BYTE bt = LOBYTE(HIWORD(wParam));

  00003	8b 55 08	 mov	 edx, DWORD PTR _wParam$[ebp]
  00006	8b c2		 mov	 eax, edx
  00008	c1 e8 10	 shr	 eax, 16			; 00000010H

; 638  : 	//CString szData((char*)lParam);
; 639  : 	switch(LOWORD(wParam))

  0000b	66 83 fa 10	 cmp	 dx, 16			; 00000010H
  0000f	0f 85 94 00 00
	00		 jne	 $LN10@OnUser

; 640  : 	{
; 641  : 		case variantDLL:
; 642  : 			if (HIWORD(wParam) == guideCC)

  00015	66 83 f8 07	 cmp	 ax, 7
  00019	75 36		 jne	 SHORT $LN5@OnUser

; 643  : 				return m_pwndWizard->SendMessage(WM_USER, MAKEWPARAM(MAKEWORD(DLL_GUIDE,0), strlen((LPCSTR)lParam)), lParam );

  0001b	8b 55 0c	 mov	 edx, DWORD PTR _lParam$[ebp]
  0001e	57		 push	 edi
  0001f	8d 7a 01	 lea	 edi, DWORD PTR [edx+1]
$LL20@OnUser:
  00022	8a 02		 mov	 al, BYTE PTR [edx]
  00024	42		 inc	 edx
  00025	84 c0		 test	 al, al
  00027	75 f9		 jne	 SHORT $LL20@OnUser
; File C:\Program Files (x86)\Microsoft Visual Studio\2019\Community\VC\Tools\MSVC\14.29.30133\atlmfc\include\afxwin2.inl

; 32   : 	{ ASSERT(::IsWindow(m_hWnd)); return ::SendMessage(m_hWnd, message, wParam, lParam); }

  00029	ff 75 0c	 push	 DWORD PTR _lParam$[ebp]
; File D:\git\src\IBK\IBK_DRFN\ProjSrc\SrcSite\include\CodeCtrl.cpp

; 643  : 				return m_pwndWizard->SendMessage(WM_USER, MAKEWPARAM(MAKEWORD(DLL_GUIDE,0), strlen((LPCSTR)lParam)), lParam );

  0002c	8b 89 8c 00 00
	00		 mov	 ecx, DWORD PTR [ecx+140]
  00032	2b d7		 sub	 edx, edi
  00034	0f b7 c2	 movzx	 eax, dx
  00037	c1 e0 10	 shl	 eax, 16			; 00000010H
  0003a	83 c8 11	 or	 eax, 17			; 00000011H
; File C:\Program Files (x86)\Microsoft Visual Studio\2019\Community\VC\Tools\MSVC\14.29.30133\atlmfc\include\afxwin2.inl

; 32   : 	{ ASSERT(::IsWindow(m_hWnd)); return ::SendMessage(m_hWnd, message, wParam, lParam); }

  0003d	50		 push	 eax
  0003e	68 00 04 00 00	 push	 1024			; 00000400H
  00043	ff 71 20	 push	 DWORD PTR [ecx+32]
  00046	ff 15 00 00 00
	00		 call	 DWORD PTR __imp__SendMessageA@16
; File D:\git\src\IBK\IBK_DRFN\ProjSrc\SrcSite\include\CodeCtrl.cpp

; 643  : 				return m_pwndWizard->SendMessage(WM_USER, MAKEWPARAM(MAKEWORD(DLL_GUIDE,0), strlen((LPCSTR)lParam)), lParam );

  0004c	5f		 pop	 edi

; 657  : }

  0004d	5d		 pop	 ebp
  0004e	c2 08 00	 ret	 8
$LN5@OnUser:

; 644  : 			else if( bt == 2  || bt == 6)// 6 

  00051	3c 02		 cmp	 al, 2
  00053	74 04		 je	 SHORT $LN8@OnUser
  00055	3c 06		 cmp	 al, 6
  00057	75 50		 jne	 SHORT $LN10@OnUser
$LN8@OnUser:

; 645  : 			{
; 646  : 				if(m_bIsComareChart == TRUE)//.. 

  00059	83 b9 98 00 00
	00 01		 cmp	 DWORD PTR [ecx+152], 1
  00060	75 21		 jne	 SHORT $LN9@OnUser
; File C:\Program Files (x86)\Microsoft Visual Studio\2019\Community\VC\Tools\MSVC\14.29.30133\atlmfc\include\afxwin2.inl

; 32   : 	{ ASSERT(::IsWindow(m_hWnd)); return ::SendMessage(m_hWnd, message, wParam, lParam); }

  00062	8b 81 88 00 00
	00		 mov	 eax, DWORD PTR [ecx+136]
  00068	6a 00		 push	 0
  0006a	6a 00		 push	 0
  0006c	68 5e 04 00 00	 push	 1118			; 0000045eH
  00071	ff 70 20	 push	 DWORD PTR [eax+32]
  00074	ff 15 00 00 00
	00		 call	 DWORD PTR __imp__SendMessageA@16
; File D:\git\src\IBK\IBK_DRFN\ProjSrc\SrcSite\include\CodeCtrl.cpp

; 649  : 					return TRUE	;

  0007a	b8 01 00 00 00	 mov	 eax, 1

; 657  : }

  0007f	5d		 pop	 ebp
  00080	c2 08 00	 ret	 8
$LN9@OnUser:

; 650  : 				}
; 651  : 				if(m_pwndWizard!=NULL)

  00083	83 b9 8c 00 00
	00 00		 cmp	 DWORD PTR [ecx+140], 0
  0008a	74 1d		 je	 SHORT $LN10@OnUser
; File C:\Program Files (x86)\Microsoft Visual Studio\2019\Community\VC\Tools\MSVC\14.29.30133\atlmfc\include\afxwin2.inl

; 32   : 	{ ASSERT(::IsWindow(m_hWnd)); return ::SendMessage(m_hWnd, message, wParam, lParam); }

  0008c	ff 75 0c	 push	 DWORD PTR _lParam$[ebp]
; File D:\git\src\IBK\IBK_DRFN\ProjSrc\SrcSite\include\CodeCtrl.cpp

; 652  : 					return m_pCodeSendWnd->SendMessage(WM_USER, 21, lParam);			

  0008f	8b 81 90 00 00
	00		 mov	 eax, DWORD PTR [ecx+144]
; File C:\Program Files (x86)\Microsoft Visual Studio\2019\Community\VC\Tools\MSVC\14.29.30133\atlmfc\include\afxwin2.inl

; 32   : 	{ ASSERT(::IsWindow(m_hWnd)); return ::SendMessage(m_hWnd, message, wParam, lParam); }

  00095	6a 15		 push	 21			; 00000015H
; File D:\git\src\IBK\IBK_DRFN\ProjSrc\SrcSite\include\CodeCtrl.cpp

; 657  : }

  00097	68 00 04 00 00	 push	 1024			; 00000400H
  0009c	ff 70 20	 push	 DWORD PTR [eax+32]
  0009f	ff 15 00 00 00
	00		 call	 DWORD PTR __imp__SendMessageA@16
  000a5	5d		 pop	 ebp
  000a6	c2 08 00	 ret	 8
$LN10@OnUser:
; File C:\Program Files (x86)\Microsoft Visual Studio\2019\Community\VC\Tools\MSVC\14.29.30133\atlmfc\include\afxwin2.inl

; 32   : 	{ ASSERT(::IsWindow(m_hWnd)); return ::SendMessage(m_hWnd, message, wParam, lParam); }

  000a9	ff 75 0c	 push	 DWORD PTR _lParam$[ebp]
; File D:\git\src\IBK\IBK_DRFN\ProjSrc\SrcSite\include\CodeCtrl.cpp

; 656  : 	return m_pwndWizard->SendMessage(WM_USER, wParam, lParam);

  000ac	8b 81 8c 00 00
	00		 mov	 eax, DWORD PTR [ecx+140]
; File C:\Program Files (x86)\Microsoft Visual Studio\2019\Community\VC\Tools\MSVC\14.29.30133\atlmfc\include\afxwin2.inl

; 32   : 	{ ASSERT(::IsWindow(m_hWnd)); return ::SendMessage(m_hWnd, message, wParam, lParam); }

  000b2	52		 push	 edx
; File D:\git\src\IBK\IBK_DRFN\ProjSrc\SrcSite\include\CodeCtrl.cpp

; 657  : }

  000b3	68 00 04 00 00	 push	 1024			; 00000400H
  000b8	ff 70 20	 push	 DWORD PTR [eax+32]
  000bb	ff 15 00 00 00
	00		 call	 DWORD PTR __imp__SendMessageA@16
  000c1	5d		 pop	 ebp
  000c2	c2 08 00	 ret	 8
?OnUser@CWinixCodeCtrl@@IAEJIJ@Z ENDP			; CWinixCodeCtrl::OnUser
_TEXT	ENDS
; Function compile flags: /Ogtp
; File D:\git\src\IBK\IBK_DRFN\ProjSrc\SrcSite\include\CodeCtrl.cpp
; File C:\Program Files (x86)\Microsoft Visual Studio\2019\Community\VC\Tools\MSVC\14.29.30133\atlmfc\include\afxwin2.inl
; File D:\git\src\IBK\IBK_DRFN\ProjSrc\SrcSite\include\CodeCtrl.cpp
; File C:\Program Files (x86)\Microsoft Visual Studio\2019\Community\VC\Tools\MSVC\14.29.30133\atlmfc\include\afxwin2.inl
; File C:\Program Files (x86)\Microsoft Visual Studio\2019\Community\VC\Tools\MSVC\14.29.30133\atlmfc\include\atltypes.h
; File C:\Program Files (x86)\Microsoft Visual Studio\2019\Community\VC\Tools\MSVC\14.29.30133\atlmfc\include\afxwin2.inl
; File D:\git\src\IBK\IBK_DRFN\ProjSrc\SrcSite\include\CodeCtrl.cpp
;	COMDAT ?OnSize@CWinixCodeCtrl@@IAEXIHH@Z
_TEXT	SEGMENT
_rc$1 = -20						; size = 16
__$ArrayPad$ = -4					; size = 4
_nType$ = 8						; size = 4
_cx$ = 12						; size = 4
_cy$ = 16						; size = 4
?OnSize@CWinixCodeCtrl@@IAEXIHH@Z PROC			; CWinixCodeCtrl::OnSize, COMDAT
; _this$ = ecx

; 816  : {

  00000	55		 push	 ebp
  00001	8b ec		 mov	 ebp, esp
  00003	83 ec 14	 sub	 esp, 20			; 00000014H
  00006	a1 00 00 00 00	 mov	 eax, DWORD PTR ___security_cookie
  0000b	33 c5		 xor	 eax, ebp
  0000d	89 45 fc	 mov	 DWORD PTR __$ArrayPad$[ebp], eax
  00010	56		 push	 esi
  00011	8b f1		 mov	 esi, ecx
; File C:\Program Files (x86)\Microsoft Visual Studio\2019\Community\VC\Tools\MSVC\14.29.30133\atlmfc\include\afxwin2.inl

; 330  : 	{ Default(); }

  00013	e8 00 00 00 00	 call	 ?Default@CWnd@@IAEJXZ	; CWnd::Default
; File D:\git\src\IBK\IBK_DRFN\ProjSrc\SrcSite\include\CodeCtrl.cpp

; 819  : 	if (m_pwndCodeCtrl && IsWindow(m_pwndCodeCtrl->m_hWnd))

  00018	8b 86 84 00 00
	00		 mov	 eax, DWORD PTR [esi+132]
  0001e	85 c0		 test	 eax, eax
  00020	74 42		 je	 SHORT $LN2@OnSize
  00022	ff 70 20	 push	 DWORD PTR [eax+32]
  00025	ff 15 00 00 00
	00		 call	 DWORD PTR __imp__IsWindow@4
  0002b	85 c0		 test	 eax, eax
  0002d	74 35		 je	 SHORT $LN2@OnSize
; File C:\Program Files (x86)\Microsoft Visual Studio\2019\Community\VC\Tools\MSVC\14.29.30133\atlmfc\include\afxwin2.inl

; 86   : 	{ ASSERT(::IsWindow(m_hWnd)); ::GetClientRect(m_hWnd, lpRect); }

  0002f	8d 45 ec	 lea	 eax, DWORD PTR _rc$1[ebp]
  00032	0f 57 c0	 xorps	 xmm0, xmm0
  00035	50		 push	 eax
  00036	ff 76 20	 push	 DWORD PTR [esi+32]
; File C:\Program Files (x86)\Microsoft Visual Studio\2019\Community\VC\Tools\MSVC\14.29.30133\atlmfc\include\atltypes.h

; 528  : 	left = 0;

  00039	0f 11 45 ec	 movups	 XMMWORD PTR _rc$1[ebp], xmm0
; File C:\Program Files (x86)\Microsoft Visual Studio\2019\Community\VC\Tools\MSVC\14.29.30133\atlmfc\include\afxwin2.inl

; 86   : 	{ ASSERT(::IsWindow(m_hWnd)); ::GetClientRect(m_hWnd, lpRect); }

  0003d	ff 15 00 00 00
	00		 call	 DWORD PTR __imp__GetClientRect@8

; 73   : 	{ MoveWindow(lpRect->left, lpRect->top, lpRect->right - lpRect->left,

  00043	8b 45 f8	 mov	 eax, DWORD PTR _rc$1[ebp+12]
  00046	8b 55 f0	 mov	 edx, DWORD PTR _rc$1[ebp+4]
  00049	2b c2		 sub	 eax, edx
  0004b	8b 4d ec	 mov	 ecx, DWORD PTR _rc$1[ebp]
  0004e	6a 01		 push	 1
  00050	50		 push	 eax
  00051	8b 45 f4	 mov	 eax, DWORD PTR _rc$1[ebp+8]
  00054	2b c1		 sub	 eax, ecx
  00056	50		 push	 eax
  00057	52		 push	 edx
  00058	51		 push	 ecx
  00059	8b 8e 84 00 00
	00		 mov	 ecx, DWORD PTR [esi+132]
  0005f	e8 00 00 00 00	 call	 ?MoveWindow@CWnd@@QAEXHHHHH@Z ; CWnd::MoveWindow
$LN2@OnSize:
; File D:\git\src\IBK\IBK_DRFN\ProjSrc\SrcSite\include\CodeCtrl.cpp

; 827  : }

  00064	8b 4d fc	 mov	 ecx, DWORD PTR __$ArrayPad$[ebp]
  00067	33 cd		 xor	 ecx, ebp
  00069	5e		 pop	 esi
  0006a	e8 00 00 00 00	 call	 @__security_check_cookie@4
  0006f	8b e5		 mov	 esp, ebp
  00071	5d		 pop	 ebp
  00072	c2 0c 00	 ret	 12			; 0000000cH
?OnSize@CWinixCodeCtrl@@IAEXIHH@Z ENDP			; CWinixCodeCtrl::OnSize
_TEXT	ENDS
; Function compile flags: /Ogtp
; File D:\git\src\IBK\IBK_DRFN\ProjSrc\SrcSite\include\CodeCtrl.cpp
; File C:\Program Files (x86)\Microsoft Visual Studio\2019\Community\VC\Tools\MSVC\14.29.30133\atlmfc\include\afxwin2.inl
; File D:\git\src\IBK\IBK_DRFN\ProjSrc\SrcSite\include\CodeCtrl.cpp
; File C:\Program Files (x86)\Microsoft Visual Studio\2019\Community\VC\Tools\MSVC\14.29.30133\atlmfc\include\atltypes.h
; File C:\Program Files (x86)\Microsoft Visual Studio\2019\Community\VC\Tools\MSVC\14.29.30133\atlmfc\include\afxwin2.inl
; File D:\git\src\IBK\IBK_DRFN\ProjSrc\SrcSite\include\CodeCtrl.cpp
; File C:\Program Files (x86)\Microsoft Visual Studio\2019\Community\VC\Tools\MSVC\14.29.30133\atlmfc\include\afxwin2.inl
; File D:\git\src\IBK\IBK_DRFN\ProjSrc\SrcSite\include\CodeCtrl.cpp
;	COMDAT ?OnCreate@CWinixCodeCtrl@@IAEHPAUtagCREATESTRUCTA@@@Z
_TEXT	SEGMENT
_param$ = -64						; size = 48
__$ArrayPad$ = -16					; size = 4
__$EHRec$ = -12						; size = 12
_lpCreateStruct$ = 8					; size = 4
?OnCreate@CWinixCodeCtrl@@IAEHPAUtagCREATESTRUCTA@@@Z PROC ; CWinixCodeCtrl::OnCreate, COMDAT
; _this$ = ecx

; 669  : {

  00000	55		 push	 ebp
  00001	8b ec		 mov	 ebp, esp
  00003	6a ff		 push	 -1
  00005	68 00 00 00 00	 push	 __ehhandler$?OnCreate@CWinixCodeCtrl@@IAEHPAUtagCREATESTRUCTA@@@Z
  0000a	64 a1 00 00 00
	00		 mov	 eax, DWORD PTR fs:0
  00010	50		 push	 eax
  00011	83 ec 34	 sub	 esp, 52			; 00000034H
  00014	a1 00 00 00 00	 mov	 eax, DWORD PTR ___security_cookie
  00019	33 c5		 xor	 eax, ebp
  0001b	89 45 f0	 mov	 DWORD PTR __$ArrayPad$[ebp], eax
  0001e	56		 push	 esi
  0001f	57		 push	 edi
  00020	50		 push	 eax
  00021	8d 45 f4	 lea	 eax, DWORD PTR __$EHRec$[ebp]
  00024	64 a3 00 00 00
	00		 mov	 DWORD PTR fs:0, eax
  0002a	8b f1		 mov	 esi, ecx
; File C:\Program Files (x86)\Microsoft Visual Studio\2019\Community\VC\Tools\MSVC\14.29.30133\atlmfc\include\afxwin2.inl

; 296  : 	{ return (int)Default(); }

  0002c	e8 00 00 00 00	 call	 ?Default@CWnd@@IAEJXZ	; CWnd::Default
; File D:\git\src\IBK\IBK_DRFN\ProjSrc\SrcSite\include\CodeCtrl.cpp

; 670  : 	if (CWnd::OnCreate(lpCreateStruct) == -1)

  00031	83 f8 ff	 cmp	 eax, -1
  00034	74 39		 je	 SHORT $LN21@OnCreate

; 671  : 		return -1;
; 672  : 	
; 673  : 	m_hiCodeCtrl = LoadLibrary("CX_CODECTRLEX.DLL");

  00036	68 00 00 00 00	 push	 OFFSET ??_C@_0BC@FPOCPFEP@CX_CODECTRLEX?4DLL@
  0003b	ff 15 00 00 00
	00		 call	 DWORD PTR __imp__LoadLibraryA@4
  00041	89 86 94 00 00
	00		 mov	 DWORD PTR [esi+148], eax

; 674  : 	if (!m_hiCodeCtrl)

  00047	85 c0		 test	 eax, eax
  00049	74 24		 je	 SHORT $LN21@OnCreate

; 675  : 		return -1;
; 676  : 
; 677  : 	CWnd* (APIENTRY *axCreateDLL)(CWnd*, void *);
; 678  : 	axCreateDLL = (CWnd* (APIENTRY*)(CWnd*,void*))GetProcAddress(m_hiCodeCtrl, "axCreate");

  0004b	68 00 00 00 00	 push	 OFFSET ??_C@_08IHGIAAII@axCreate@
  00050	50		 push	 eax
  00051	ff 15 00 00 00
	00		 call	 DWORD PTR __imp__GetProcAddress@8
  00057	8b f8		 mov	 edi, eax

; 679  : 	if (!axCreateDLL)

  00059	85 ff		 test	 edi, edi
  0005b	75 32		 jne	 SHORT $LN4@OnCreate

; 680  : 	{
; 681  : 		FreeLibrary(m_hiCodeCtrl);

  0005d	ff b6 94 00 00
	00		 push	 DWORD PTR [esi+148]
  00063	ff 15 00 00 00
	00		 call	 DWORD PTR __imp__FreeLibrary@4

; 682  : 		m_hiCodeCtrl = NULL;

  00069	89 be 94 00 00
	00		 mov	 DWORD PTR [esi+148], edi
$LN21@OnCreate:

; 709  : }

  0006f	83 c8 ff	 or	 eax, -1
$LN1@OnCreate:
  00072	8b 4d f4	 mov	 ecx, DWORD PTR __$EHRec$[ebp]
  00075	64 89 0d 00 00
	00 00		 mov	 DWORD PTR fs:0, ecx
  0007c	59		 pop	 ecx
  0007d	5f		 pop	 edi
  0007e	5e		 pop	 esi
  0007f	8b 4d f0	 mov	 ecx, DWORD PTR __$ArrayPad$[ebp]
  00082	33 cd		 xor	 ecx, ebp
  00084	e8 00 00 00 00	 call	 @__security_check_cookie@4
  00089	8b e5		 mov	 esp, ebp
  0008b	5d		 pop	 ebp
  0008c	c2 04 00	 ret	 4
$LN4@OnCreate:
  0008f	8d 4d c4	 lea	 ecx, DWORD PTR _param$[ebp+4]
  00092	c7 45 c0 00 00
	00 00		 mov	 DWORD PTR _param$[ebp], 0
  00099	ff 15 00 00 00
	00		 call	 DWORD PTR __imp_??0?$CStringT@DV?$StrTraitMFC_DLL@DV?$ChTraitsCRT@D@ATL@@@@@ATL@@QAE@XZ
  0009f	0f 57 c0	 xorps	 xmm0, xmm0
  000a2	8d 4d d8	 lea	 ecx, DWORD PTR _param$[ebp+24]
; File C:\Program Files (x86)\Microsoft Visual Studio\2019\Community\VC\Tools\MSVC\14.29.30133\atlmfc\include\atltypes.h

; 528  : 	left = 0;

  000a5	0f 11 45 c8	 movups	 XMMWORD PTR _param$[ebp+8], xmm0
  000a9	ff 15 00 00 00
	00		 call	 DWORD PTR __imp_??0?$CStringT@DV?$StrTraitMFC_DLL@DV?$ChTraitsCRT@D@ATL@@@@@ATL@@QAE@XZ
  000af	8d 4d ec	 lea	 ecx, DWORD PTR _param$[ebp+44]
  000b2	c7 45 dc 00 00
	00 00		 mov	 DWORD PTR _param$[ebp+28], 0
  000b9	c7 45 e0 00 00
	00 00		 mov	 DWORD PTR _param$[ebp+32], 0
  000c0	c7 45 e4 00 00
	00 00		 mov	 DWORD PTR _param$[ebp+36], 0
  000c7	c7 45 e8 00 00
	00 00		 mov	 DWORD PTR _param$[ebp+40], 0
  000ce	ff 15 00 00 00
	00		 call	 DWORD PTR __imp_??0?$CStringT@DV?$StrTraitMFC_DLL@DV?$ChTraitsCRT@D@ATL@@@@@ATL@@QAE@XZ
; File C:\Program Files (x86)\Microsoft Visual Studio\2019\Community\VC\Tools\MSVC\14.29.30133\atlmfc\include\afxwin2.inl

; 86   : 	{ ASSERT(::IsWindow(m_hWnd)); ::GetClientRect(m_hWnd, lpRect); }

  000d4	8d 45 c8	 lea	 eax, DWORD PTR _param$[ebp+8]
; File D:\git\src\IBK\IBK_DRFN\ProjSrc\SrcSite\include\CodeCtrl.cpp

; 686  : 	struct _param param;

  000d7	c7 45 fc 00 00
	00 00		 mov	 DWORD PTR __$EHRec$[ebp+8], 0
; File C:\Program Files (x86)\Microsoft Visual Studio\2019\Community\VC\Tools\MSVC\14.29.30133\atlmfc\include\afxwin2.inl

; 86   : 	{ ASSERT(::IsWindow(m_hWnd)); ::GetClientRect(m_hWnd, lpRect); }

  000de	50		 push	 eax
  000df	ff 76 20	 push	 DWORD PTR [esi+32]
  000e2	ff 15 00 00 00
	00		 call	 DWORD PTR __imp__GetClientRect@8
; File D:\git\src\IBK\IBK_DRFN\ProjSrc\SrcSite\include\CodeCtrl.cpp

; 688  : 	param.rect.right = param.rect.left + 0;//CODECTRL_WIDTH;

  000e8	8b 45 c8	 mov	 eax, DWORD PTR _param$[ebp+8]

; 689  : 	param.rect.bottom = param.rect.top + 18;
; 690  : 	
; 691  : 	param.name  = "";

  000eb	8d 4d c4	 lea	 ecx, DWORD PTR _param$[ebp+4]
  000ee	89 45 d0	 mov	 DWORD PTR _param$[ebp+16], eax
  000f1	8b 45 cc	 mov	 eax, DWORD PTR _param$[ebp+12]
  000f4	83 c0 12	 add	 eax, 18			; 00000012H
  000f7	68 00 00 00 00	 push	 OFFSET ??_C@_00CNPNBAHC@@
  000fc	89 45 d4	 mov	 DWORD PTR _param$[ebp+20], eax
  000ff	ff 15 00 00 00
	00		 call	 DWORD PTR __imp_??4?$CStringT@DV?$StrTraitMFC_DLL@DV?$ChTraitsCRT@D@ATL@@@@@ATL@@QAEAAV01@PBD@Z

; 692  : 	param.fonts = "";

  00105	68 00 00 00 00	 push	 OFFSET ??_C@_06MFMMLLPC@?$LB?$LM?$LI?$LC?C?$LM@
  0010a	8d 4d d8	 lea	 ecx, DWORD PTR _param$[ebp+24]
  0010d	ff 15 00 00 00
	00		 call	 DWORD PTR __imp_??4?$CStringT@DV?$StrTraitMFC_DLL@DV?$ChTraitsCRT@D@ATL@@@@@ATL@@QAEAAV01@PBD@Z

; 693  : 	param.point = 9;
; 694  : 	param.style = 0;
; 695  : 	param.tRGB  = 63;
; 696  : 	param.pRGB  = RGB(255,255,255);//GetIndexColor(7);
; 697  : 	param.options = "/u 0 /k .BMP /l AXCOMBO.BMP /p 3 /s 1 /o True /q False";

  00113	68 00 00 00 00	 push	 OFFSET ??_C@_0DL@PKKCJJLC@?1u?50?5?1k?5?$LA?K?$LL?v?4BMP?5?1l?5AXCOMBO?4BMP@
  00118	8d 4d ec	 lea	 ecx, DWORD PTR _param$[ebp+44]
  0011b	c7 45 dc 09 00
	00 00		 mov	 DWORD PTR _param$[ebp+28], 9
  00122	c7 45 e0 00 00
	00 00		 mov	 DWORD PTR _param$[ebp+32], 0
  00129	c7 45 e4 3f 00
	00 00		 mov	 DWORD PTR _param$[ebp+36], 63 ; 0000003fH
  00130	c7 45 e8 ff ff
	ff 00		 mov	 DWORD PTR _param$[ebp+40], 16777215 ; 00ffffffH
  00137	ff 15 00 00 00
	00		 call	 DWORD PTR __imp_??4?$CStringT@DV?$StrTraitMFC_DLL@DV?$ChTraitsCRT@D@ATL@@@@@ATL@@QAEAAV01@PBD@Z

; 698  : 	param.key   = m_nID;// ID 

  0013d	8b 86 80 00 00
	00		 mov	 eax, DWORD PTR [esi+128]
  00143	89 45 c0	 mov	 DWORD PTR _param$[ebp], eax

; 699  : 	
; 700  : 	m_pwndCodeCtrl = axCreateDLL(this, (LPVOID)&param);

  00146	8d 45 c0	 lea	 eax, DWORD PTR _param$[ebp]
  00149	50		 push	 eax
  0014a	56		 push	 esi
  0014b	ff d7		 call	 edi
  0014d	89 86 84 00 00
	00		 mov	 DWORD PTR [esi+132], eax

; 701  : 	if (!m_pwndCodeCtrl)

  00153	85 c0		 test	 eax, eax
  00155	75 1b		 jne	 SHORT $LN5@OnCreate

; 702  : 	{
; 703  : 		FreeLibrary(m_hiCodeCtrl);

  00157	ff b6 94 00 00
	00		 push	 DWORD PTR [esi+148]
  0015d	ff 15 00 00 00
	00		 call	 DWORD PTR __imp__FreeLibrary@4

; 704  : 		m_hiCodeCtrl = NULL;

  00163	c7 86 94 00 00
	00 00 00 00 00	 mov	 DWORD PTR [esi+148], 0
  0016d	83 ce ff	 or	 esi, -1
  00170	eb 02		 jmp	 SHORT $LN8@OnCreate
$LN5@OnCreate:

; 705  : 		return -1;
; 706  : 	}
; 707  : 
; 708  : 	return 0;

  00172	33 f6		 xor	 esi, esi
$LN8@OnCreate:
  00174	8d 4d ec	 lea	 ecx, DWORD PTR _param$[ebp+44]
  00177	ff 15 00 00 00
	00		 call	 DWORD PTR __imp_??1?$CStringT@DV?$StrTraitMFC_DLL@DV?$ChTraitsCRT@D@ATL@@@@@ATL@@QAE@XZ
  0017d	8d 4d d8	 lea	 ecx, DWORD PTR _param$[ebp+24]
  00180	ff 15 00 00 00
	00		 call	 DWORD PTR __imp_??1?$CStringT@DV?$StrTraitMFC_DLL@DV?$ChTraitsCRT@D@ATL@@@@@ATL@@QAE@XZ
  00186	8d 4d c4	 lea	 ecx, DWORD PTR _param$[ebp+4]
  00189	ff 15 00 00 00
	00		 call	 DWORD PTR __imp_??1?$CStringT@DV?$StrTraitMFC_DLL@DV?$ChTraitsCRT@D@ATL@@@@@ATL@@QAE@XZ
  0018f	8b c6		 mov	 eax, esi
  00191	e9 dc fe ff ff	 jmp	 $LN1@OnCreate
_TEXT	ENDS
;	COMDAT text$x
text$x	SEGMENT
__unwindfunclet$?OnCreate@CWinixCodeCtrl@@IAEHPAUtagCREATESTRUCTA@@@Z$0:
  00000	8d 4d c0	 lea	 ecx, DWORD PTR _param$[ebp]
  00003	e9 00 00 00 00	 jmp	 ??1_param@@QAE@XZ
  00008	cc		 int	 3
  00009	cc		 int	 3
  0000a	cc		 int	 3
  0000b	cc		 int	 3
  0000c	cc		 int	 3
__ehhandler$?OnCreate@CWinixCodeCtrl@@IAEHPAUtagCREATESTRUCTA@@@Z:
  0000d	90		 npad	 1
  0000e	90		 npad	 1
  0000f	8b 54 24 08	 mov	 edx, DWORD PTR [esp+8]
  00013	8d 42 0c	 lea	 eax, DWORD PTR [edx+12]
  00016	8b 4a c0	 mov	 ecx, DWORD PTR [edx-64]
  00019	33 c8		 xor	 ecx, eax
  0001b	e8 00 00 00 00	 call	 @__security_check_cookie@4
  00020	8b 4a fc	 mov	 ecx, DWORD PTR [edx-4]
  00023	33 c8		 xor	 ecx, eax
  00025	e8 00 00 00 00	 call	 @__security_check_cookie@4
  0002a	b8 00 00 00 00	 mov	 eax, OFFSET __ehfuncinfo$?OnCreate@CWinixCodeCtrl@@IAEHPAUtagCREATESTRUCTA@@@Z
  0002f	e9 00 00 00 00	 jmp	 ___CxxFrameHandler3
text$x	ENDS
?OnCreate@CWinixCodeCtrl@@IAEHPAUtagCREATESTRUCTA@@@Z ENDP ; CWinixCodeCtrl::OnCreate
; Function compile flags: /Ogtp
; File D:\git\src\IBK\IBK_DRFN\ProjSrc\SrcSite\include\CodeCtrl.cpp
;	COMDAT ??1CWinixCodeCtrl@@UAE@XZ
_TEXT	SEGMENT
__$EHRec$ = -12						; size = 12
??1CWinixCodeCtrl@@UAE@XZ PROC				; CWinixCodeCtrl::~CWinixCodeCtrl, COMDAT
; _this$ = ecx

; 606  : {

  00000	55		 push	 ebp
  00001	8b ec		 mov	 ebp, esp
  00003	6a ff		 push	 -1
  00005	68 00 00 00 00	 push	 __ehhandler$??1CWinixCodeCtrl@@UAE@XZ
  0000a	64 a1 00 00 00
	00		 mov	 eax, DWORD PTR fs:0
  00010	50		 push	 eax
  00011	56		 push	 esi
  00012	a1 00 00 00 00	 mov	 eax, DWORD PTR ___security_cookie
  00017	33 c5		 xor	 eax, ebp
  00019	50		 push	 eax
  0001a	8d 45 f4	 lea	 eax, DWORD PTR __$EHRec$[ebp]
  0001d	64 a3 00 00 00
	00		 mov	 DWORD PTR fs:0, eax
  00023	8b f1		 mov	 esi, ecx

; 607  : 	if (m_pwndCodeCtrl)

  00025	8b 8e 84 00 00
	00		 mov	 ecx, DWORD PTR [esi+132]
  0002b	c7 06 00 00 00
	00		 mov	 DWORD PTR [esi], OFFSET ??_7CWinixCodeCtrl@@6B@
  00031	85 c9		 test	 ecx, ecx
  00033	74 20		 je	 SHORT $LN2@CWinixCode

; 608  : 	{
; 609  : 		m_pwndCodeCtrl->DestroyWindow();

  00035	8b 01		 mov	 eax, DWORD PTR [ecx]
  00037	ff 50 68	 call	 DWORD PTR [eax+104]

; 610  : 		delete m_pwndCodeCtrl;

  0003a	8b 8e 84 00 00
	00		 mov	 ecx, DWORD PTR [esi+132]
  00040	85 c9		 test	 ecx, ecx
  00042	74 07		 je	 SHORT $LN5@CWinixCode
  00044	8b 01		 mov	 eax, DWORD PTR [ecx]
  00046	6a 01		 push	 1
  00048	ff 50 04	 call	 DWORD PTR [eax+4]
$LN5@CWinixCode:

; 611  : 		m_pwndCodeCtrl = NULL;

  0004b	c7 86 84 00 00
	00 00 00 00 00	 mov	 DWORD PTR [esi+132], 0
$LN2@CWinixCode:

; 612  : 	}
; 613  : 
; 614  : 	if (m_hiCodeCtrl)

  00055	8b 86 94 00 00
	00		 mov	 eax, DWORD PTR [esi+148]
  0005b	85 c0		 test	 eax, eax
  0005d	74 11		 je	 SHORT $LN3@CWinixCode

; 615  : 	{
; 616  : 		BOOL bResult = FreeLibrary(m_hiCodeCtrl);

  0005f	50		 push	 eax
  00060	ff 15 00 00 00
	00		 call	 DWORD PTR __imp__FreeLibrary@4

; 617  : 		m_hiCodeCtrl = NULL;

  00066	c7 86 94 00 00
	00 00 00 00 00	 mov	 DWORD PTR [esi+148], 0
$LN3@CWinixCode:

; 618  : 	}
; 619  : }

  00070	8b ce		 mov	 ecx, esi
  00072	e8 00 00 00 00	 call	 ??1CWnd@@UAE@XZ		; CWnd::~CWnd
  00077	8b 4d f4	 mov	 ecx, DWORD PTR __$EHRec$[ebp]
  0007a	64 89 0d 00 00
	00 00		 mov	 DWORD PTR fs:0, ecx
  00081	59		 pop	 ecx
  00082	5e		 pop	 esi
  00083	8b e5		 mov	 esp, ebp
  00085	5d		 pop	 ebp
  00086	c3		 ret	 0
  00087	cc		 int	 3
  00088	cc		 int	 3
  00089	cc		 int	 3
  0008a	cc		 int	 3
  0008b	cc		 int	 3
_TEXT	ENDS
;	COMDAT text$x
text$x	SEGMENT
__ehhandler$??1CWinixCodeCtrl@@UAE@XZ:
  00000	90		 npad	 1
  00001	90		 npad	 1
  00002	8b 54 24 08	 mov	 edx, DWORD PTR [esp+8]
  00006	8d 42 0c	 lea	 eax, DWORD PTR [edx+12]
  00009	8b 4a f8	 mov	 ecx, DWORD PTR [edx-8]
  0000c	33 c8		 xor	 ecx, eax
  0000e	e8 00 00 00 00	 call	 @__security_check_cookie@4
  00013	b8 00 00 00 00	 mov	 eax, OFFSET __ehfuncinfo$??1CWinixCodeCtrl@@UAE@XZ
  00018	e9 00 00 00 00	 jmp	 ___CxxFrameHandler3
text$x	ENDS
??1CWinixCodeCtrl@@UAE@XZ ENDP				; CWinixCodeCtrl::~CWinixCodeCtrl
; Function compile flags: /Ogtp
; File D:\git\src\IBK\IBK_DRFN\ProjSrc\SrcSite\include\CodeCtrl.cpp
; File C:\Program Files (x86)\Microsoft Visual Studio\2019\Community\VC\Tools\MSVC\14.29.30133\atlmfc\include\afxwin2.inl
; File D:\git\src\IBK\IBK_DRFN\ProjSrc\SrcSite\include\CodeCtrl.cpp
; File C:\Program Files (x86)\Microsoft Visual Studio\2019\Community\VC\Tools\MSVC\14.29.30133\atlmfc\include\afxwin2.inl
; File D:\git\src\IBK\IBK_DRFN\ProjSrc\SrcSite\include\CodeCtrl.cpp
;	COMDAT ?OnCommand@CWinixCodeCtrl@@MAEHIJ@Z
_TEXT	SEGMENT
_wParam$ = 8						; size = 4
_lParam$ = 12						; size = 4
?OnCommand@CWinixCodeCtrl@@MAEHIJ@Z PROC		; CWinixCodeCtrl::OnCommand, COMDAT
; _this$ = ecx

; 730  : {

  00000	55		 push	 ebp
  00001	8b ec		 mov	 ebp, esp

; 731  : 	if ((HWND)lParam == m_pwndCodeCtrl->m_hWnd)

  00003	8b 81 84 00 00
	00		 mov	 eax, DWORD PTR [ecx+132]
  00009	8b 55 0c	 mov	 edx, DWORD PTR _lParam$[ebp]
  0000c	3b 50 20	 cmp	 edx, DWORD PTR [eax+32]
  0000f	75 2d		 jne	 SHORT $LN2@OnCommand

; 732  : 		return m_pwndParent->SendMessage(WM_COMMAND, MAKEWPARAM(m_nID, HIWORD(wParam)), (LPARAM)m_hWnd);

  00011	8b 45 08	 mov	 eax, DWORD PTR _wParam$[ebp]
; File C:\Program Files (x86)\Microsoft Visual Studio\2019\Community\VC\Tools\MSVC\14.29.30133\atlmfc\include\afxwin2.inl

; 32   : 	{ ASSERT(::IsWindow(m_hWnd)); return ::SendMessage(m_hWnd, message, wParam, lParam); }

  00014	ff 71 20	 push	 DWORD PTR [ecx+32]
; File D:\git\src\IBK\IBK_DRFN\ProjSrc\SrcSite\include\CodeCtrl.cpp

; 732  : 		return m_pwndParent->SendMessage(WM_COMMAND, MAKEWPARAM(m_nID, HIWORD(wParam)), (LPARAM)m_hWnd);

  00017	0f b7 91 80 00
	00 00		 movzx	 edx, WORD PTR [ecx+128]
  0001e	25 00 00 ff ff	 and	 eax, -65536		; ffff0000H
  00023	0b d0		 or	 edx, eax
  00025	8b 81 88 00 00
	00		 mov	 eax, DWORD PTR [ecx+136]
; File C:\Program Files (x86)\Microsoft Visual Studio\2019\Community\VC\Tools\MSVC\14.29.30133\atlmfc\include\afxwin2.inl

; 32   : 	{ ASSERT(::IsWindow(m_hWnd)); return ::SendMessage(m_hWnd, message, wParam, lParam); }

  0002b	52		 push	 edx
  0002c	68 11 01 00 00	 push	 273			; 00000111H
  00031	ff 70 20	 push	 DWORD PTR [eax+32]
  00034	ff 15 00 00 00
	00		 call	 DWORD PTR __imp__SendMessageA@16
; File D:\git\src\IBK\IBK_DRFN\ProjSrc\SrcSite\include\CodeCtrl.cpp

; 736  : }

  0003a	5d		 pop	 ebp
  0003b	c2 08 00	 ret	 8
$LN2@OnCommand:

; 733  : 
; 734  : 	return CWnd::OnCommand(wParam, lParam);

  0003e	89 55 0c	 mov	 DWORD PTR _lParam$[ebp], edx

; 736  : }

  00041	5d		 pop	 ebp

; 733  : 
; 734  : 	return CWnd::OnCommand(wParam, lParam);

  00042	e9 00 00 00 00	 jmp	 ?OnCommand@CWnd@@MAEHIJ@Z ; CWnd::OnCommand
?OnCommand@CWinixCodeCtrl@@MAEHIJ@Z ENDP		; CWinixCodeCtrl::OnCommand
_TEXT	ENDS
; Function compile flags: /Ogtp
; File D:\git\src\IBK\IBK_DRFN\ProjSrc\SrcSite\include\CodeCtrl.cpp
; File C:\Program Files (x86)\Microsoft Visual Studio\2019\Community\VC\Tools\MSVC\14.29.30133\include\comutil.h
; File C:\Program Files (x86)\Microsoft Visual Studio\2019\Community\VC\Tools\MSVC\14.29.30133\atlmfc\include\atlcomcli.h
; File D:\git\src\IBK\IBK_DRFN\ProjSrc\SrcSite\include\CodeCtrl.cpp
; File C:\Program Files (x86)\Microsoft Visual Studio\2019\Community\VC\Tools\MSVC\14.29.30133\atlmfc\include\atlcomcli.h
; File D:\git\src\IBK\IBK_DRFN\ProjSrc\SrcSite\include\CodeCtrl.cpp
; File C:\Program Files (x86)\Microsoft Visual Studio\2019\Community\VC\Tools\MSVC\14.29.30133\include\comutil.h
; File C:\Program Files (x86)\Microsoft Visual Studio\2019\Community\VC\Tools\MSVC\14.29.30133\atlmfc\include\atlcomcli.h
; File D:\git\src\IBK\IBK_DRFN\ProjSrc\SrcSite\include\CodeCtrl.cpp
; File C:\Program Files (x86)\Microsoft Visual Studio\2019\Community\VC\Tools\MSVC\14.29.30133\include\comutil.h
; File D:\git\src\IBK\IBK_DRFN\ProjSrc\SrcSite\include\CodeCtrl.cpp
; File C:\Program Files (x86)\Microsoft Visual Studio\2019\Community\VC\Tools\MSVC\14.29.30133\include\comutil.h
; File D:\git\src\IBK\IBK_DRFN\ProjSrc\SrcSite\include\CodeCtrl.cpp
; File C:\Program Files (x86)\Microsoft Visual Studio\2019\Community\VC\Tools\MSVC\14.29.30133\atlmfc\include\atlcomcli.h
; File D:\git\src\IBK\IBK_DRFN\ProjSrc\SrcSite\include\CodeCtrl.cpp
; File C:\Program Files (x86)\Microsoft Visual Studio\2019\Community\VC\Tools\MSVC\14.29.30133\atlmfc\include\atlcomcli.h
; File C:\Program Files (x86)\Microsoft Visual Studio\2019\Community\VC\Tools\MSVC\14.29.30133\include\comutil.h
; File D:\git\src\IBK\IBK_DRFN\ProjSrc\SrcSite\include\CodeCtrl.cpp
;	COMDAT ?GetCtrlProperty@CWinixCodeCtrl@@QAE?AV?$CStringT@DV?$StrTraitMFC_DLL@DV?$ChTraitsCRT@D@ATL@@@@@ATL@@PBD@Z
_TEXT	SEGMENT
_var$ = -56						; size = 16
_dispparamsNoArgs$2 = -40				; size = 16
_driver$ = -24						; size = 4
$T3 = -20						; size = 4
_dwDispID$4 = -16					; size = 4
__$EHRec$ = -12						; size = 12
___$ReturnUdt$ = 8					; size = 4
_lpsz$ = 12						; size = 4
$T5 = 12						; size = 4
_prop_name$ = 12					; size = 4
?GetCtrlProperty@CWinixCodeCtrl@@QAE?AV?$CStringT@DV?$StrTraitMFC_DLL@DV?$ChTraitsCRT@D@ATL@@@@@ATL@@PBD@Z PROC ; CWinixCodeCtrl::GetCtrlProperty, COMDAT
; _this$ = ecx

; 870  : {

  00000	55		 push	 ebp
  00001	8b ec		 mov	 ebp, esp
  00003	6a ff		 push	 -1
  00005	68 00 00 00 00	 push	 __ehhandler$?GetCtrlProperty@CWinixCodeCtrl@@QAE?AV?$CStringT@DV?$StrTraitMFC_DLL@DV?$ChTraitsCRT@D@ATL@@@@@ATL@@PBD@Z
  0000a	64 a1 00 00 00
	00		 mov	 eax, DWORD PTR fs:0
  00010	50		 push	 eax
  00011	83 ec 2c	 sub	 esp, 44			; 0000002cH
  00014	56		 push	 esi
  00015	57		 push	 edi
  00016	a1 00 00 00 00	 mov	 eax, DWORD PTR ___security_cookie
  0001b	33 c5		 xor	 eax, ebp
  0001d	50		 push	 eax
  0001e	8d 45 f4	 lea	 eax, DWORD PTR __$EHRec$[ebp]
  00021	64 a3 00 00 00
	00		 mov	 DWORD PTR fs:0, eax

; 871  : 	USES_CONVERSION;
; 872  : 	if (!m_pwndCodeCtrl) return "";

  00027	8b 89 84 00 00
	00		 mov	 ecx, DWORD PTR [ecx+132]
  0002d	85 c9		 test	 ecx, ecx
  0002f	0f 84 09 01 00
	00		 je	 $LN58@GetCtrlPro

; 873  : 	if (!m_pwndCodeCtrl->GetSafeHwnd()) return "";

  00035	83 79 20 00	 cmp	 DWORD PTR [ecx+32], 0
  00039	0f 84 ff 00 00
	00		 je	 $LN58@GetCtrlPro

; 874  : 	
; 875  : 	IDispatch *pDisp = m_pwndCodeCtrl->GetIDispatch(FALSE);

  0003f	6a 00		 push	 0
  00041	e8 00 00 00 00	 call	 ?GetIDispatch@CCmdTarget@@QAEPAUIDispatch@@H@Z ; CCmdTarget::GetIDispatch
  00046	8b f8		 mov	 edi, eax

; 876  : 	if (!pDisp) return "";

  00048	85 ff		 test	 edi, edi
  0004a	0f 84 ee 00 00
	00		 je	 $LN58@GetCtrlPro
; File C:\Program Files (x86)\Microsoft Visual Studio\2019\Community\VC\Tools\MSVC\14.29.30133\include\comutil.h

; 1131 :     ::VariantInit(this);

  00050	8d 45 c8	 lea	 eax, DWORD PTR _var$[ebp]
  00053	50		 push	 eax
  00054	ff 15 00 00 00
	00		 call	 DWORD PTR __imp__VariantInit@4
; File C:\Program Files (x86)\Microsoft Visual Studio\2019\Community\VC\Tools\MSVC\14.29.30133\atlmfc\include\atlcomcli.h

; 171  :             p->AddRef();

  0005a	8b 07		 mov	 eax, DWORD PTR [edi]
  0005c	57		 push	 edi
; File D:\git\src\IBK\IBK_DRFN\ProjSrc\SrcSite\include\CodeCtrl.cpp

; 878  : 	_variant_t var;

  0005d	c7 45 fc 00 00
	00 00		 mov	 DWORD PTR __$EHRec$[ebp+8], 0
; File C:\Program Files (x86)\Microsoft Visual Studio\2019\Community\VC\Tools\MSVC\14.29.30133\atlmfc\include\atlcomcli.h

; 169  :         p = lp;

  00064	89 7d e8	 mov	 DWORD PTR _driver$[ebp], edi

; 171  :             p->AddRef();

  00067	ff 50 04	 call	 DWORD PTR [eax+4]
; File D:\git\src\IBK\IBK_DRFN\ProjSrc\SrcSite\include\CodeCtrl.cpp

; 880  : 	driver.GetPropertyByName(_bstr_t(prop_name), &var);

  0006a	ff 75 0c	 push	 DWORD PTR _prop_name$[ebp]
  0006d	8d 4d ec	 lea	 ecx, DWORD PTR $T3[ebp]
  00070	c6 45 fc 01	 mov	 BYTE PTR __$EHRec$[ebp+8], 1
  00074	e8 00 00 00 00	 call	 ??0_bstr_t@@QAE@PBD@Z	; _bstr_t::_bstr_t
; File C:\Program Files (x86)\Microsoft Visual Studio\2019\Community\VC\Tools\MSVC\14.29.30133\include\comutil.h

; 472  :     return (m_Data != NULL) ? m_Data->GetWString() : NULL;

  00079	8b 00		 mov	 eax, DWORD PTR [eax]
  0007b	85 c0		 test	 eax, eax
  0007d	74 04		 je	 SHORT $LN27@GetCtrlPro
  0007f	8b 00		 mov	 eax, DWORD PTR [eax]
  00081	eb 02		 jmp	 SHORT $LN28@GetCtrlPro
$LN27@GetCtrlPro:
  00083	33 c0		 xor	 eax, eax
$LN28@GetCtrlPro:
; File C:\Program Files (x86)\Microsoft Visual Studio\2019\Community\VC\Tools\MSVC\14.29.30133\atlmfc\include\atlcomcli.h

; 459  :         return this->p->GetIDsOfNames(IID_NULL, const_cast<LPOLESTR*>(&lpsz), 1, LOCALE_USER_DEFAULT, pdispid);

  00085	8d 4d f0	 lea	 ecx, DWORD PTR _dwDispID$4[ebp]

; 426  :         HRESULT hr = GetIDOfName(lpsz, &dwDispID);

  00088	89 45 0c	 mov	 DWORD PTR _lpsz$[ebp], eax

; 459  :         return this->p->GetIDsOfNames(IID_NULL, const_cast<LPOLESTR*>(&lpsz), 1, LOCALE_USER_DEFAULT, pdispid);

  0008b	8b 07		 mov	 eax, DWORD PTR [edi]
  0008d	51		 push	 ecx
  0008e	68 00 04 00 00	 push	 1024			; 00000400H
  00093	6a 01		 push	 1
  00095	8d 4d 0c	 lea	 ecx, DWORD PTR _lpsz$[ebp]
  00098	51		 push	 ecx
  00099	68 00 00 00 00	 push	 OFFSET _GUID_NULL
  0009e	57		 push	 edi
  0009f	ff 50 14	 call	 DWORD PTR [eax+20]

; 427  :         if (SUCCEEDED(hr))

  000a2	85 c0		 test	 eax, eax
  000a4	78 3d		 js	 SHORT $LN36@GetCtrlPro

; 594  :         return pDispatch->Invoke(dwDispID, IID_NULL,

  000a6	8b 07		 mov	 eax, DWORD PTR [edi]
  000a8	8d 4d c8	 lea	 ecx, DWORD PTR _var$[ebp]
  000ab	6a 00		 push	 0
  000ad	6a 00		 push	 0
  000af	51		 push	 ecx
  000b0	8d 4d d8	 lea	 ecx, DWORD PTR _dispparamsNoArgs$2[ebp]
  000b3	c7 45 d8 00 00
	00 00		 mov	 DWORD PTR _dispparamsNoArgs$2[ebp], 0
  000ba	51		 push	 ecx
  000bb	6a 02		 push	 2
  000bd	68 00 04 00 00	 push	 1024			; 00000400H
  000c2	68 00 00 00 00	 push	 OFFSET _GUID_NULL
  000c7	ff 75 f0	 push	 DWORD PTR _dwDispID$4[ebp]
  000ca	c7 45 dc 00 00
	00 00		 mov	 DWORD PTR _dispparamsNoArgs$2[ebp+4], 0
  000d1	57		 push	 edi
  000d2	c7 45 e0 00 00
	00 00		 mov	 DWORD PTR _dispparamsNoArgs$2[ebp+8], 0
  000d9	c7 45 e4 00 00
	00 00		 mov	 DWORD PTR _dispparamsNoArgs$2[ebp+12], 0
  000e0	ff 50 18	 call	 DWORD PTR [eax+24]
$LN36@GetCtrlPro:
; File D:\git\src\IBK\IBK_DRFN\ProjSrc\SrcSite\include\CodeCtrl.cpp

; 880  : 	driver.GetPropertyByName(_bstr_t(prop_name), &var);

  000e3	8d 4d ec	 lea	 ecx, DWORD PTR $T3[ebp]
  000e6	e8 00 00 00 00	 call	 ??1_bstr_t@@QAE@XZ	; _bstr_t::~_bstr_t

; 882  : 	return (LPCSTR)(_bstr_t)var;

  000eb	8d 45 c8	 lea	 eax, DWORD PTR _var$[ebp]
  000ee	50		 push	 eax
  000ef	8d 4d 0c	 lea	 ecx, DWORD PTR $T5[ebp]
  000f2	e8 00 00 00 00	 call	 ??0_bstr_t@@QAE@ABV_variant_t@@@Z ; _bstr_t::_bstr_t
; File C:\Program Files (x86)\Microsoft Visual Studio\2019\Community\VC\Tools\MSVC\14.29.30133\include\comutil.h

; 486  :     return (m_Data != NULL) ? m_Data->GetString() : NULL;

  000f7	8b 30		 mov	 esi, DWORD PTR [eax]
; File D:\git\src\IBK\IBK_DRFN\ProjSrc\SrcSite\include\CodeCtrl.cpp

; 882  : 	return (LPCSTR)(_bstr_t)var;

  000f9	c6 45 fc 02	 mov	 BYTE PTR __$EHRec$[ebp+8], 2
; File C:\Program Files (x86)\Microsoft Visual Studio\2019\Community\VC\Tools\MSVC\14.29.30133\include\comutil.h

; 486  :     return (m_Data != NULL) ? m_Data->GetString() : NULL;

  000fd	85 f6		 test	 esi, esi
  000ff	74 13		 je	 SHORT $LN42@GetCtrlPro

; 825  :     if (m_str == NULL) {

  00101	8b 46 04	 mov	 eax, DWORD PTR [esi+4]
  00104	85 c0		 test	 eax, eax
  00106	75 0e		 jne	 SHORT $LN43@GetCtrlPro

; 826  :         m_str = _com_util::ConvertBSTRToString(m_wstr);

  00108	ff 36		 push	 DWORD PTR [esi]
  0010a	e8 00 00 00 00	 call	 ?ConvertBSTRToString@_com_util@@YGPADPA_W@Z ; _com_util::ConvertBSTRToString
  0010f	89 46 04	 mov	 DWORD PTR [esi+4], eax

; 486  :     return (m_Data != NULL) ? m_Data->GetString() : NULL;

  00112	eb 02		 jmp	 SHORT $LN43@GetCtrlPro
$LN42@GetCtrlPro:
  00114	33 c0		 xor	 eax, eax
$LN43@GetCtrlPro:
; File D:\git\src\IBK\IBK_DRFN\ProjSrc\SrcSite\include\CodeCtrl.cpp

; 882  : 	return (LPCSTR)(_bstr_t)var;

  00116	8b 4d 08	 mov	 ecx, DWORD PTR ___$ReturnUdt$[ebp]
  00119	50		 push	 eax
  0011a	ff 15 00 00 00
	00		 call	 DWORD PTR __imp_??0?$CStringT@DV?$StrTraitMFC_DLL@DV?$ChTraitsCRT@D@ATL@@@@@ATL@@QAE@PBD@Z
  00120	8d 4d 0c	 lea	 ecx, DWORD PTR $T5[ebp]
  00123	e8 00 00 00 00	 call	 ??1_bstr_t@@QAE@XZ	; _bstr_t::~_bstr_t
; File C:\Program Files (x86)\Microsoft Visual Studio\2019\Community\VC\Tools\MSVC\14.29.30133\atlmfc\include\atlcomcli.h

; 184  :             p->Release();

  00128	8b 0f		 mov	 ecx, DWORD PTR [edi]
  0012a	57		 push	 edi
; File D:\git\src\IBK\IBK_DRFN\ProjSrc\SrcSite\include\CodeCtrl.cpp

; 882  : 	return (LPCSTR)(_bstr_t)var;

  0012b	c6 45 fc 00	 mov	 BYTE PTR __$EHRec$[ebp+8], 0
; File C:\Program Files (x86)\Microsoft Visual Studio\2019\Community\VC\Tools\MSVC\14.29.30133\atlmfc\include\atlcomcli.h

; 184  :             p->Release();

  0012f	ff 51 08	 call	 DWORD PTR [ecx+8]
; File C:\Program Files (x86)\Microsoft Visual Studio\2019\Community\VC\Tools\MSVC\14.29.30133\include\comutil.h

; 2335 :     ::VariantClear(this);

  00132	8d 45 c8	 lea	 eax, DWORD PTR _var$[ebp]
  00135	50		 push	 eax
  00136	ff 15 00 00 00
	00		 call	 DWORD PTR __imp__VariantClear@4
; File D:\git\src\IBK\IBK_DRFN\ProjSrc\SrcSite\include\CodeCtrl.cpp

; 882  : 	return (LPCSTR)(_bstr_t)var;

  0013c	eb 0e		 jmp	 SHORT $LN60@GetCtrlPro
$LN58@GetCtrlPro:

; 876  : 	if (!pDisp) return "";

  0013e	8b 4d 08	 mov	 ecx, DWORD PTR ___$ReturnUdt$[ebp]
  00141	68 00 00 00 00	 push	 OFFSET ??_C@_00CNPNBAHC@@
  00146	ff 15 00 00 00
	00		 call	 DWORD PTR __imp_??0?$CStringT@DV?$StrTraitMFC_DLL@DV?$ChTraitsCRT@D@ATL@@@@@ATL@@QAE@PBD@Z
$LN60@GetCtrlPro:

; 883  : }

  0014c	8b 45 08	 mov	 eax, DWORD PTR ___$ReturnUdt$[ebp]
  0014f	8b 4d f4	 mov	 ecx, DWORD PTR __$EHRec$[ebp]
  00152	64 89 0d 00 00
	00 00		 mov	 DWORD PTR fs:0, ecx
  00159	59		 pop	 ecx
  0015a	5f		 pop	 edi
  0015b	5e		 pop	 esi
  0015c	8b e5		 mov	 esp, ebp
  0015e	5d		 pop	 ebp
  0015f	c2 08 00	 ret	 8
_TEXT	ENDS
;	COMDAT text$x
text$x	SEGMENT
__unwindfunclet$?GetCtrlProperty@CWinixCodeCtrl@@QAE?AV?$CStringT@DV?$StrTraitMFC_DLL@DV?$ChTraitsCRT@D@ATL@@@@@ATL@@PBD@Z$1:
  00000	8d 4d c8	 lea	 ecx, DWORD PTR _var$[ebp]
  00003	e9 00 00 00 00	 jmp	 ??1_variant_t@@QAE@XZ	; _variant_t::~_variant_t
__unwindfunclet$?GetCtrlProperty@CWinixCodeCtrl@@QAE?AV?$CStringT@DV?$StrTraitMFC_DLL@DV?$ChTraitsCRT@D@ATL@@@@@ATL@@PBD@Z$2:
  00008	8d 4d e8	 lea	 ecx, DWORD PTR _driver$[ebp]
  0000b	e9 00 00 00 00	 jmp	 ??1?$CComQIPtr@UIDispatch@@$1?_GUID_00020400_0000_0000_c000_000000000046@@3U__s_GUID@@B@ATL@@QAE@XZ
__unwindfunclet$?GetCtrlProperty@CWinixCodeCtrl@@QAE?AV?$CStringT@DV?$StrTraitMFC_DLL@DV?$ChTraitsCRT@D@ATL@@@@@ATL@@PBD@Z$4:
  00010	8d 4d 0c	 lea	 ecx, DWORD PTR $T5[ebp]
  00013	e9 00 00 00 00	 jmp	 ??1_bstr_t@@QAE@XZ	; _bstr_t::~_bstr_t
  00018	cc		 int	 3
  00019	cc		 int	 3
  0001a	cc		 int	 3
  0001b	cc		 int	 3
  0001c	cc		 int	 3
__ehhandler$?GetCtrlProperty@CWinixCodeCtrl@@QAE?AV?$CStringT@DV?$StrTraitMFC_DLL@DV?$ChTraitsCRT@D@ATL@@@@@ATL@@PBD@Z:
  0001d	90		 npad	 1
  0001e	90		 npad	 1
  0001f	8b 54 24 08	 mov	 edx, DWORD PTR [esp+8]
  00023	8d 42 0c	 lea	 eax, DWORD PTR [edx+12]
  00026	8b 4a c8	 mov	 ecx, DWORD PTR [edx-56]
  00029	33 c8		 xor	 ecx, eax
  0002b	e8 00 00 00 00	 call	 @__security_check_cookie@4
  00030	b8 00 00 00 00	 mov	 eax, OFFSET __ehfuncinfo$?GetCtrlProperty@CWinixCodeCtrl@@QAE?AV?$CStringT@DV?$StrTraitMFC_DLL@DV?$ChTraitsCRT@D@ATL@@@@@ATL@@PBD@Z
  00035	e9 00 00 00 00	 jmp	 ___CxxFrameHandler3
text$x	ENDS
?GetCtrlProperty@CWinixCodeCtrl@@QAE?AV?$CStringT@DV?$StrTraitMFC_DLL@DV?$ChTraitsCRT@D@ATL@@@@@ATL@@PBD@Z ENDP ; CWinixCodeCtrl::GetCtrlProperty
; Function compile flags: /Ogtp
; File D:\git\src\IBK\IBK_DRFN\ProjSrc\SrcSite\include\CodeCtrl.cpp
; File C:\Program Files (x86)\Microsoft Visual Studio\2019\Community\VC\Tools\MSVC\14.29.30133\include\comutil.h
; File D:\git\src\IBK\IBK_DRFN\ProjSrc\SrcSite\include\CodeCtrl.cpp
; File C:\Program Files (x86)\Microsoft Visual Studio\2019\Community\VC\Tools\MSVC\14.29.30133\include\comutil.h
; File D:\git\src\IBK\IBK_DRFN\ProjSrc\SrcSite\include\CodeCtrl.cpp
;	COMDAT ?SetUnit@CWinixCodeCtrl@@QAE_NH@Z
_TEXT	SEGMENT
$T2 = -28						; size = 16
__$EHRec$ = -12						; size = 12
_nUnit$ = 8						; size = 4
?SetUnit@CWinixCodeCtrl@@QAE_NH@Z PROC			; CWinixCodeCtrl::SetUnit, COMDAT
; _this$ = ecx

; 712  : { 

  00000	55		 push	 ebp
  00001	8b ec		 mov	 ebp, esp
  00003	6a ff		 push	 -1
  00005	68 00 00 00 00	 push	 __ehhandler$?SetUnit@CWinixCodeCtrl@@QAE_NH@Z
  0000a	64 a1 00 00 00
	00		 mov	 eax, DWORD PTR fs:0
  00010	50		 push	 eax
  00011	83 ec 10	 sub	 esp, 16			; 00000010H
  00014	56		 push	 esi
  00015	a1 00 00 00 00	 mov	 eax, DWORD PTR ___security_cookie
  0001a	33 c5		 xor	 eax, ebp
  0001c	50		 push	 eax
  0001d	8d 45 f4	 lea	 eax, DWORD PTR __$EHRec$[ebp]
  00020	64 a3 00 00 00
	00		 mov	 DWORD PTR fs:0, eax
  00026	8b f1		 mov	 esi, ecx

; 713  : 	if ( !m_hiCodeCtrl || !m_pwndCodeCtrl)

  00028	83 be 94 00 00
	00 00		 cmp	 DWORD PTR [esi+148], 0
  0002f	74 57		 je	 SHORT $LN3@SetUnit
  00031	83 be 84 00 00
	00 00		 cmp	 DWORD PTR [esi+132], 0
  00038	74 4e		 je	 SHORT $LN3@SetUnit
; File C:\Program Files (x86)\Microsoft Visual Studio\2019\Community\VC\Tools\MSVC\14.29.30133\include\comutil.h

; 1193 :         V_VT(this) = VT_I2;

  0003a	b8 02 00 00 00	 mov	 eax, 2
  0003f	66 89 45 e4	 mov	 WORD PTR $T2[ebp], ax

; 1194 :         V_I2(this) = sSrc;

  00043	66 8b 45 08	 mov	 ax, WORD PTR _nUnit$[ebp]
  00047	66 89 45 ec	 mov	 WORD PTR $T2[ebp+8], ax
; File D:\git\src\IBK\IBK_DRFN\ProjSrc\SrcSite\include\CodeCtrl.cpp

; 716  : 	SetCtrlProperty("UnitData", _variant_t((short)nUnit));

  0004b	8d 45 e4	 lea	 eax, DWORD PTR $T2[ebp]
  0004e	c7 45 fc 00 00
	00 00		 mov	 DWORD PTR __$EHRec$[ebp+8], 0
  00055	50		 push	 eax
  00056	51		 push	 ecx
  00057	8b cc		 mov	 ecx, esp
  00059	68 00 00 00 00	 push	 OFFSET ??_C@_08GLDIOPIF@UnitData@
  0005e	e8 00 00 00 00	 call	 ??0_bstr_t@@QAE@PBD@Z	; _bstr_t::_bstr_t
  00063	8b ce		 mov	 ecx, esi
  00065	e8 00 00 00 00	 call	 ?SetCtrlProperty@CWinixCodeCtrl@@QAEXV_bstr_t@@AAV_variant_t@@@Z ; CWinixCodeCtrl::SetCtrlProperty
; File C:\Program Files (x86)\Microsoft Visual Studio\2019\Community\VC\Tools\MSVC\14.29.30133\include\comutil.h

; 2335 :     ::VariantClear(this);

  0006a	8d 45 e4	 lea	 eax, DWORD PTR $T2[ebp]
  0006d	50		 push	 eax
  0006e	ff 15 00 00 00
	00		 call	 DWORD PTR __imp__VariantClear@4
; File D:\git\src\IBK\IBK_DRFN\ProjSrc\SrcSite\include\CodeCtrl.cpp

; 718  : 	return TRUE;

  00074	b0 01		 mov	 al, 1

; 719  : //	bool (APIENTRY *axSetUnit)(CWnd* , CString);
; 720  : //	axSetUnit = (bool (APIENTRY*)(CWnd*, CString))GetProcAddress(m_hiCodeCtrl, "axSetUnit");
; 721  : //	if (!axSetUnit)
; 722  : //	{
; 723  : //		return false;
; 724  : //	}
; 725  : 
; 726  : //	return axSetUnit(m_pwndCodeCtrl, strUnit);
; 727  : }

  00076	8b 4d f4	 mov	 ecx, DWORD PTR __$EHRec$[ebp]
  00079	64 89 0d 00 00
	00 00		 mov	 DWORD PTR fs:0, ecx
  00080	59		 pop	 ecx
  00081	5e		 pop	 esi
  00082	8b e5		 mov	 esp, ebp
  00084	5d		 pop	 ebp
  00085	c2 04 00	 ret	 4
$LN3@SetUnit:

; 714  : 		return false;

  00088	32 c0		 xor	 al, al

; 719  : //	bool (APIENTRY *axSetUnit)(CWnd* , CString);
; 720  : //	axSetUnit = (bool (APIENTRY*)(CWnd*, CString))GetProcAddress(m_hiCodeCtrl, "axSetUnit");
; 721  : //	if (!axSetUnit)
; 722  : //	{
; 723  : //		return false;
; 724  : //	}
; 725  : 
; 726  : //	return axSetUnit(m_pwndCodeCtrl, strUnit);
; 727  : }

  0008a	8b 4d f4	 mov	 ecx, DWORD PTR __$EHRec$[ebp]
  0008d	64 89 0d 00 00
	00 00		 mov	 DWORD PTR fs:0, ecx
  00094	59		 pop	 ecx
  00095	5e		 pop	 esi
  00096	8b e5		 mov	 esp, ebp
  00098	5d		 pop	 ebp
  00099	c2 04 00	 ret	 4
_TEXT	ENDS
;	COMDAT text$x
text$x	SEGMENT
__unwindfunclet$?SetUnit@CWinixCodeCtrl@@QAE_NH@Z$0:
  00000	8d 4d e4	 lea	 ecx, DWORD PTR $T2[ebp]
  00003	e9 00 00 00 00	 jmp	 ??1_variant_t@@QAE@XZ	; _variant_t::~_variant_t
  00008	cc		 int	 3
  00009	cc		 int	 3
  0000a	cc		 int	 3
  0000b	cc		 int	 3
  0000c	cc		 int	 3
__ehhandler$?SetUnit@CWinixCodeCtrl@@QAE_NH@Z:
  0000d	90		 npad	 1
  0000e	90		 npad	 1
  0000f	8b 54 24 08	 mov	 edx, DWORD PTR [esp+8]
  00013	8d 42 0c	 lea	 eax, DWORD PTR [edx+12]
  00016	8b 4a e8	 mov	 ecx, DWORD PTR [edx-24]
  00019	33 c8		 xor	 ecx, eax
  0001b	e8 00 00 00 00	 call	 @__security_check_cookie@4
  00020	b8 00 00 00 00	 mov	 eax, OFFSET __ehfuncinfo$?SetUnit@CWinixCodeCtrl@@QAE_NH@Z
  00025	e9 00 00 00 00	 jmp	 ___CxxFrameHandler3
text$x	ENDS
?SetUnit@CWinixCodeCtrl@@QAE_NH@Z ENDP			; CWinixCodeCtrl::SetUnit
; Function compile flags: /Ogtp
; File D:\git\src\IBK\IBK_DRFN\ProjSrc\SrcSite\include\CodeCtrl.cpp
; File C:\Program Files (x86)\Microsoft Visual Studio\2019\Community\VC\Tools\MSVC\14.29.30133\atlmfc\include\atlcomcli.h
; File C:\Program Files (x86)\Microsoft Visual Studio\2019\Community\VC\Tools\MSVC\14.29.30133\include\comutil.h
; File C:\Program Files (x86)\Microsoft Visual Studio\2019\Community\VC\Tools\MSVC\14.29.30133\atlmfc\include\atlcomcli.h
; File C:\Program Files (x86)\Microsoft Visual Studio\2019\Community\VC\Tools\MSVC\14.29.30133\include\comutil.h
; File D:\git\src\IBK\IBK_DRFN\ProjSrc\SrcSite\include\CodeCtrl.cpp
;	COMDAT ?SetCtrlProperty@CWinixCodeCtrl@@QAEXV_bstr_t@@AAV_variant_t@@@Z
_TEXT	SEGMENT
_dispparams$2 = -36					; size = 16
_dwDispID$3 = -20					; size = 4
_lpsz$ = -16						; size = 4
__$EHRec$ = -12						; size = 12
_prop_name$ = 8						; size = 4
_dispidPut$4 = 12					; size = 4
_var$ = 12						; size = 4
?SetCtrlProperty@CWinixCodeCtrl@@QAEXV_bstr_t@@AAV_variant_t@@@Z PROC ; CWinixCodeCtrl::SetCtrlProperty, COMDAT
; _this$ = ecx

; 858  : {

  00000	55		 push	 ebp
  00001	8b ec		 mov	 ebp, esp
  00003	6a ff		 push	 -1
  00005	68 00 00 00 00	 push	 __ehhandler$?SetCtrlProperty@CWinixCodeCtrl@@QAEXV_bstr_t@@AAV_variant_t@@@Z
  0000a	64 a1 00 00 00
	00		 mov	 eax, DWORD PTR fs:0
  00010	50		 push	 eax
  00011	83 ec 18	 sub	 esp, 24			; 00000018H
  00014	56		 push	 esi
  00015	57		 push	 edi
  00016	a1 00 00 00 00	 mov	 eax, DWORD PTR ___security_cookie
  0001b	33 c5		 xor	 eax, ebp
  0001d	50		 push	 eax
  0001e	8d 45 f4	 lea	 eax, DWORD PTR __$EHRec$[ebp]
  00021	64 a3 00 00 00
	00		 mov	 DWORD PTR fs:0, eax

; 859  : 	if (!m_pwndCodeCtrl) return;

  00027	8b 89 84 00 00
	00		 mov	 ecx, DWORD PTR [ecx+132]
  0002d	c7 45 fc 00 00
	00 00		 mov	 DWORD PTR __$EHRec$[ebp+8], 0
  00034	85 c9		 test	 ecx, ecx
  00036	0f 84 cf 00 00
	00		 je	 $LN47@SetCtrlPro

; 860  : 	if (!m_pwndCodeCtrl->GetSafeHwnd()) return;

  0003c	83 79 20 00	 cmp	 DWORD PTR [ecx+32], 0
  00040	0f 84 c5 00 00
	00		 je	 $LN47@SetCtrlPro

; 861  : 	
; 862  : 	IDispatch *pDisp = m_pwndCodeCtrl->GetIDispatch(FALSE);

  00046	6a 00		 push	 0
  00048	e8 00 00 00 00	 call	 ?GetIDispatch@CCmdTarget@@QAEPAUIDispatch@@H@Z ; CCmdTarget::GetIDispatch
  0004d	8b f0		 mov	 esi, eax

; 863  : 	if (!pDisp) return;

  0004f	85 f6		 test	 esi, esi
  00051	0f 84 b4 00 00
	00		 je	 $LN47@SetCtrlPro
; File C:\Program Files (x86)\Microsoft Visual Studio\2019\Community\VC\Tools\MSVC\14.29.30133\atlmfc\include\atlcomcli.h

; 171  :             p->AddRef();

  00057	8b 0e		 mov	 ecx, DWORD PTR [esi]
  00059	56		 push	 esi
  0005a	ff 51 04	 call	 DWORD PTR [ecx+4]
; File C:\Program Files (x86)\Microsoft Visual Studio\2019\Community\VC\Tools\MSVC\14.29.30133\include\comutil.h

; 472  :     return (m_Data != NULL) ? m_Data->GetWString() : NULL;

  0005d	8b 4d 08	 mov	 ecx, DWORD PTR _prop_name$[ebp]
  00060	85 c9		 test	 ecx, ecx
  00062	74 04		 je	 SHORT $LN24@SetCtrlPro
  00064	8b 01		 mov	 eax, DWORD PTR [ecx]
  00066	eb 02		 jmp	 SHORT $LN25@SetCtrlPro
$LN24@SetCtrlPro:
  00068	33 c0		 xor	 eax, eax
$LN25@SetCtrlPro:
; File C:\Program Files (x86)\Microsoft Visual Studio\2019\Community\VC\Tools\MSVC\14.29.30133\atlmfc\include\atlcomcli.h

; 459  :         return this->p->GetIDsOfNames(IID_NULL, const_cast<LPOLESTR*>(&lpsz), 1, LOCALE_USER_DEFAULT, pdispid);

  0006a	8d 4d ec	 lea	 ecx, DWORD PTR _dwDispID$3[ebp]

; 444  :         HRESULT hr = GetIDOfName(lpsz, &dwDispID);

  0006d	89 45 f0	 mov	 DWORD PTR _lpsz$[ebp], eax

; 459  :         return this->p->GetIDsOfNames(IID_NULL, const_cast<LPOLESTR*>(&lpsz), 1, LOCALE_USER_DEFAULT, pdispid);

  00070	8b 06		 mov	 eax, DWORD PTR [esi]
  00072	51		 push	 ecx
  00073	68 00 04 00 00	 push	 1024			; 00000400H
  00078	6a 01		 push	 1
  0007a	8d 4d f0	 lea	 ecx, DWORD PTR _lpsz$[ebp]
  0007d	51		 push	 ecx
  0007e	68 00 00 00 00	 push	 OFFSET _GUID_NULL
  00083	56		 push	 esi
  00084	ff 50 14	 call	 DWORD PTR [eax+20]

; 445  :         if (SUCCEEDED(hr))

  00087	85 c0		 test	 eax, eax
  00089	78 7a		 js	 SHORT $LN33@SetCtrlPro

; 553  :         if (pVar == NULL)

  0008b	8b 45 0c	 mov	 eax, DWORD PTR _var$[ebp]

; 446  :             hr = PutProperty(dwDispID, pVar);

  0008e	8b 7d ec	 mov	 edi, DWORD PTR _dwDispID$3[ebp]

; 553  :         if (pVar == NULL)

  00091	85 c0		 test	 eax, eax
  00093	74 70		 je	 SHORT $LN33@SetCtrlPro

; 554  :             return E_POINTER;
; 555  : 
; 556  :         if (pDispatch == NULL)
; 557  :             return E_INVALIDARG;
; 558  : 
; 559  :         ATLTRACE(atlTraceCOM, 2, _T("CPropertyHelper::PutProperty\n"));
; 560  :         DISPPARAMS dispparams = {NULL, NULL, 1, 1};
; 561  :         dispparams.rgvarg = pVar;

  00095	89 45 dc	 mov	 DWORD PTR _dispparams$2[ebp], eax

; 562  :         DISPID dispidPut = DISPID_PROPERTYPUT;
; 563  :         dispparams.rgdispidNamedArgs = &dispidPut;

  00098	8d 4d 0c	 lea	 ecx, DWORD PTR _dispidPut$4[ebp]

; 564  : 
; 565  :         if (pVar->vt == VT_UNKNOWN || pVar->vt == VT_DISPATCH ||
; 566  :             (pVar->vt & VT_ARRAY) || (pVar->vt & VT_BYREF))

  0009b	0f b7 00	 movzx	 eax, WORD PTR [eax]
  0009e	c7 45 e4 01 00
	00 00		 mov	 DWORD PTR _dispparams$2[ebp+8], 1
  000a5	c7 45 e8 01 00
	00 00		 mov	 DWORD PTR _dispparams$2[ebp+12], 1
  000ac	c7 45 0c fd ff
	ff ff		 mov	 DWORD PTR _dispidPut$4[ebp], -3 ; fffffffdH
  000b3	89 4d e0	 mov	 DWORD PTR _dispparams$2[ebp+4], ecx
  000b6	83 f8 0d	 cmp	 eax, 13			; 0000000dH
  000b9	74 0c		 je	 SHORT $LN37@SetCtrlPro
  000bb	83 f8 09	 cmp	 eax, 9
  000be	74 07		 je	 SHORT $LN37@SetCtrlPro
  000c0	a9 00 60 00 00	 test	 eax, 24576		; 00006000H
  000c5	74 21		 je	 SHORT $LN38@SetCtrlPro
$LN37@SetCtrlPro:

; 567  :         {
; 568  :             HRESULT hr = pDispatch->Invoke(dwDispID, IID_NULL,

  000c7	8b 06		 mov	 eax, DWORD PTR [esi]
  000c9	8d 4d dc	 lea	 ecx, DWORD PTR _dispparams$2[ebp]
  000cc	6a 00		 push	 0
  000ce	6a 00		 push	 0
  000d0	6a 00		 push	 0
  000d2	51		 push	 ecx
  000d3	6a 08		 push	 8
  000d5	68 00 04 00 00	 push	 1024			; 00000400H
  000da	68 00 00 00 00	 push	 OFFSET _GUID_NULL
  000df	57		 push	 edi
  000e0	56		 push	 esi
  000e1	ff 50 18	 call	 DWORD PTR [eax+24]

; 569  :                 LOCALE_USER_DEFAULT, DISPATCH_PROPERTYPUTREF,
; 570  :                 &dispparams, NULL, NULL, NULL);
; 571  :             if (SUCCEEDED(hr))

  000e4	85 c0		 test	 eax, eax
  000e6	79 1d		 jns	 SHORT $LN33@SetCtrlPro
$LN38@SetCtrlPro:

; 572  :                 return hr;
; 573  :         }
; 574  :         return pDispatch->Invoke(dwDispID, IID_NULL,

  000e8	8b 06		 mov	 eax, DWORD PTR [esi]
  000ea	8d 4d dc	 lea	 ecx, DWORD PTR _dispparams$2[ebp]
  000ed	6a 00		 push	 0
  000ef	6a 00		 push	 0
  000f1	6a 00		 push	 0
  000f3	51		 push	 ecx
  000f4	6a 04		 push	 4
  000f6	68 00 04 00 00	 push	 1024			; 00000400H
  000fb	68 00 00 00 00	 push	 OFFSET _GUID_NULL
  00100	57		 push	 edi
  00101	56		 push	 esi
  00102	ff 50 18	 call	 DWORD PTR [eax+24]
$LN33@SetCtrlPro:

; 184  :             p->Release();

  00105	8b 06		 mov	 eax, DWORD PTR [esi]
  00107	56		 push	 esi
  00108	ff 50 08	 call	 DWORD PTR [eax+8]
$LN47@SetCtrlPro:
; File C:\Program Files (x86)\Microsoft Visual Studio\2019\Community\VC\Tools\MSVC\14.29.30133\include\comutil.h

; 637  :     if (m_Data != NULL) {

  0010b	8b 75 08	 mov	 esi, DWORD PTR _prop_name$[ebp]
  0010e	85 f6		 test	 esi, esi
  00110	74 44		 je	 SHORT $LN60@SetCtrlPro

; 773  :     unsigned long cRef = static_cast<unsigned long>(

  00112	83 c8 ff	 or	 eax, -1
  00115	f0 0f c1 46 08	 lock	  xadd	 DWORD PTR [esi+8], eax
  0011a	48		 dec	 eax

; 774  :         InterlockedDecrement(reinterpret_cast<long*>(&m_RefCount)));
; 775  :     if (cRef == 0) {

  0011b	75 39		 jne	 SHORT $LN60@SetCtrlPro

; 776  :         delete this;

  0011d	85 f6		 test	 esi, esi
  0011f	74 35		 je	 SHORT $LN60@SetCtrlPro

; 931  :     if (m_wstr != NULL) {

  00121	8b 06		 mov	 eax, DWORD PTR [esi]
  00123	85 c0		 test	 eax, eax
  00125	74 0d		 je	 SHORT $LN65@SetCtrlPro

; 932  :         ::SysFreeString(m_wstr);

  00127	50		 push	 eax
  00128	ff 15 00 00 00
	00		 call	 DWORD PTR __imp__SysFreeString@4

; 933  :         m_wstr = NULL;

  0012e	c7 06 00 00 00
	00		 mov	 DWORD PTR [esi], 0
$LN65@SetCtrlPro:

; 934  :     }
; 935  : 
; 936  :     if (m_str != NULL) {

  00134	8b 46 04	 mov	 eax, DWORD PTR [esi+4]
  00137	85 c0		 test	 eax, eax
  00139	74 10		 je	 SHORT $LN66@SetCtrlPro

; 937  :         delete [] m_str;

  0013b	50		 push	 eax
  0013c	e8 00 00 00 00	 call	 ??_V@YAXPAX@Z		; operator delete[]
  00141	83 c4 04	 add	 esp, 4

; 938  :         m_str = NULL;

  00144	c7 46 04 00 00
	00 00		 mov	 DWORD PTR [esi+4], 0
$LN66@SetCtrlPro:
  0014b	6a 0c		 push	 12			; 0000000cH
  0014d	56		 push	 esi
  0014e	e8 00 00 00 00	 call	 ??3@YAXPAXI@Z		; operator delete
  00153	83 c4 08	 add	 esp, 8
$LN60@SetCtrlPro:
; File D:\git\src\IBK\IBK_DRFN\ProjSrc\SrcSite\include\CodeCtrl.cpp

; 867  : }

  00156	8b 4d f4	 mov	 ecx, DWORD PTR __$EHRec$[ebp]
  00159	64 89 0d 00 00
	00 00		 mov	 DWORD PTR fs:0, ecx
  00160	59		 pop	 ecx
  00161	5f		 pop	 edi
  00162	5e		 pop	 esi
  00163	8b e5		 mov	 esp, ebp
  00165	5d		 pop	 ebp
  00166	c2 08 00	 ret	 8
_TEXT	ENDS
;	COMDAT text$x
text$x	SEGMENT
__unwindfunclet$?SetCtrlProperty@CWinixCodeCtrl@@QAEXV_bstr_t@@AAV_variant_t@@@Z$0:
  00000	8d 4d 08	 lea	 ecx, DWORD PTR _prop_name$[ebp]
  00003	e9 00 00 00 00	 jmp	 ??1_bstr_t@@QAE@XZ	; _bstr_t::~_bstr_t
  00008	cc		 int	 3
  00009	cc		 int	 3
  0000a	cc		 int	 3
  0000b	cc		 int	 3
  0000c	cc		 int	 3
__ehhandler$?SetCtrlProperty@CWinixCodeCtrl@@QAEXV_bstr_t@@AAV_variant_t@@@Z:
  0000d	90		 npad	 1
  0000e	90		 npad	 1
  0000f	8b 54 24 08	 mov	 edx, DWORD PTR [esp+8]
  00013	8d 42 0c	 lea	 eax, DWORD PTR [edx+12]
  00016	8b 4a dc	 mov	 ecx, DWORD PTR [edx-36]
  00019	33 c8		 xor	 ecx, eax
  0001b	e8 00 00 00 00	 call	 @__security_check_cookie@4
  00020	b8 00 00 00 00	 mov	 eax, OFFSET __ehfuncinfo$?SetCtrlProperty@CWinixCodeCtrl@@QAEXV_bstr_t@@AAV_variant_t@@@Z
  00025	e9 00 00 00 00	 jmp	 ___CxxFrameHandler3
text$x	ENDS
?SetCtrlProperty@CWinixCodeCtrl@@QAEXV_bstr_t@@AAV_variant_t@@@Z ENDP ; CWinixCodeCtrl::SetCtrlProperty
; Function compile flags: /Ogtp
; File D:\git\src\IBK\IBK_DRFN\ProjSrc\SrcSite\include\CodeCtrl.cpp
;	COMDAT ?SetFocus@CWinixCodeCtrl@@QAE_NXZ
_TEXT	SEGMENT
?SetFocus@CWinixCodeCtrl@@QAE_NXZ PROC			; CWinixCodeCtrl::SetFocus, COMDAT
; _this$ = ecx

; 847  : 	if (!m_pwndCodeCtrl)

  00000	8b 89 84 00 00
	00		 mov	 ecx, DWORD PTR [ecx+132]
  00006	85 c9		 test	 ecx, ecx
  00008	75 03		 jne	 SHORT $LN2@SetFocus

; 848  : 		return false;

  0000a	32 c0		 xor	 al, al

; 853  : }

  0000c	c3		 ret	 0
$LN2@SetFocus:

; 849  : 	
; 850  : 	m_pwndCodeCtrl->SetFocus();

  0000d	e8 00 00 00 00	 call	 ?SetFocus@CWnd@@QAEPAV1@XZ ; CWnd::SetFocus

; 851  : 	
; 852  : 	return true;

  00012	b0 01		 mov	 al, 1

; 853  : }

  00014	c3		 ret	 0
?SetFocus@CWinixCodeCtrl@@QAE_NXZ ENDP			; CWinixCodeCtrl::SetFocus
_TEXT	ENDS
; Function compile flags: /Ogtp
; File D:\git\src\IBK\IBK_DRFN\ProjSrc\SrcSite\include\CodeCtrl.cpp
;	COMDAT ?SetFont@CWinixCodeCtrl@@QAE_NPAVCFont@@@Z
_TEXT	SEGMENT
_pfont$ = 8						; size = 4
?SetFont@CWinixCodeCtrl@@QAE_NPAVCFont@@@Z PROC		; CWinixCodeCtrl::SetFont, COMDAT
; _this$ = ecx

; 830  : {

  00000	55		 push	 ebp
  00001	8b ec		 mov	 ebp, esp
  00003	56		 push	 esi
  00004	8b f1		 mov	 esi, ecx

; 831  : 	if (!m_pwndCodeCtrl)

  00006	83 be 84 00 00
	00 00		 cmp	 DWORD PTR [esi+132], 0
  0000d	74 25		 je	 SHORT $LN5@SetFont

; 832  : 		return false;
; 833  : 
; 834  : 	bool (APIENTRY *axSetFont)(CWnd*, CFont*);
; 835  : 	axSetFont = (bool (APIENTRY*)(CWnd*, CFont*))GetProcAddress(m_hiCodeCtrl, "axSetFont");

  0000f	68 00 00 00 00	 push	 OFFSET ??_C@_09EGFDFBNO@axSetFont@
  00014	ff b6 94 00 00
	00		 push	 DWORD PTR [esi+148]
  0001a	ff 15 00 00 00
	00		 call	 DWORD PTR __imp__GetProcAddress@8

; 836  : 	if (!axSetFont)

  00020	85 c0		 test	 eax, eax
  00022	74 10		 je	 SHORT $LN5@SetFont

; 839  : 	}
; 840  : 
; 841  : 	return axSetFont(m_pwndCodeCtrl, pfont);

  00024	ff 75 08	 push	 DWORD PTR _pfont$[ebp]
  00027	ff b6 84 00 00
	00		 push	 DWORD PTR [esi+132]
  0002d	ff d0		 call	 eax
  0002f	5e		 pop	 esi

; 842  : }

  00030	5d		 pop	 ebp
  00031	c2 04 00	 ret	 4
$LN5@SetFont:

; 837  : 	{
; 838  : 		return false;

  00034	32 c0		 xor	 al, al
  00036	5e		 pop	 esi

; 842  : }

  00037	5d		 pop	 ebp
  00038	c2 04 00	 ret	 4
?SetFont@CWinixCodeCtrl@@QAE_NPAVCFont@@@Z ENDP		; CWinixCodeCtrl::SetFont
_TEXT	ENDS
; Function compile flags: /Ogtp
; File D:\git\src\IBK\IBK_DRFN\ProjSrc\SrcSite\include\CodeCtrl.cpp
;	COMDAT ?SetColor@CWinixCodeCtrl@@QAE_NKK@Z
_TEXT	SEGMENT
_rgbFG$ = 8						; size = 4
_rgbBG$ = 12						; size = 4
?SetColor@CWinixCodeCtrl@@QAE_NKK@Z PROC		; CWinixCodeCtrl::SetColor, COMDAT
; _this$ = ecx

; 801  : {

  00000	55		 push	 ebp
  00001	8b ec		 mov	 ebp, esp
  00003	56		 push	 esi
  00004	8b f1		 mov	 esi, ecx

; 802  : 	if (!m_pwndCodeCtrl)

  00006	83 be 84 00 00
	00 00		 cmp	 DWORD PTR [esi+132], 0
  0000d	74 28		 je	 SHORT $LN5@SetColor

; 803  : 		return false;
; 804  : 
; 805  : 	bool (APIENTRY *axSetColor)(CWnd*, COLORREF, COLORREF);
; 806  : 	axSetColor = (bool (APIENTRY*)(CWnd*, COLORREF, COLORREF))GetProcAddress(m_hiCodeCtrl, "axSetColor");

  0000f	68 00 00 00 00	 push	 OFFSET ??_C@_0L@JGJDKCFP@axSetColor@
  00014	ff b6 94 00 00
	00		 push	 DWORD PTR [esi+148]
  0001a	ff 15 00 00 00
	00		 call	 DWORD PTR __imp__GetProcAddress@8

; 807  : 	if (!axSetColor)

  00020	85 c0		 test	 eax, eax
  00022	74 13		 je	 SHORT $LN5@SetColor

; 810  : 	}
; 811  : 
; 812  : 	return axSetColor(m_pwndCodeCtrl, rgbFG, rgbBG);

  00024	ff 75 0c	 push	 DWORD PTR _rgbBG$[ebp]
  00027	ff 75 08	 push	 DWORD PTR _rgbFG$[ebp]
  0002a	ff b6 84 00 00
	00		 push	 DWORD PTR [esi+132]
  00030	ff d0		 call	 eax
  00032	5e		 pop	 esi

; 813  : }

  00033	5d		 pop	 ebp
  00034	c2 08 00	 ret	 8
$LN5@SetColor:

; 808  : 	{
; 809  : 		return false;

  00037	32 c0		 xor	 al, al
  00039	5e		 pop	 esi

; 813  : }

  0003a	5d		 pop	 ebp
  0003b	c2 08 00	 ret	 8
