; Listing generated by Microsoft (R) Optimizing Compiler Version 19.29.30145.0 

	TITLE	D:\git\src\IBK\IBK_DRFN\#DRfn-CS\_Obj\CompareChart\CodeDataFromInputBar.obj
	.686P
	.XMM
	include listing.inc
	.model	flat

INCLUDELIB MSVCRT
INCLUDELIB OLDNAMES

PUBLIC	??_C@_0BE@FJPKENOB@RMSG_GETSIGNAL_REAL@		; `string'
PUBLIC	??_C@_0P@KHFCBIOH@RMSG_CHARTMAIN@		; `string'
PUBLIC	??_C@_0BC@MMPGLPDH@RMS_ANALYSIS_FUNC@		; `string'
PUBLIC	??_C@_0BA@HKNFENJL@RMSG_GET_USERID@		; `string'
PUBLIC	??_C@_0P@LFDACNFE@RMSG_KSDLLINFO@		; `string'
PUBLIC	??_C@_0N@IIOKMIEH@RMSG_GETINFO@			; `string'
PUBLIC	??_C@_0BG@CNPAHNGG@RMSG_CHANGE_SKINCOLOR@	; `string'
PUBLIC	??_C@_0BD@FLDNDDHK@RMSG_GET_SKINCOLOR@		; `string'
PUBLIC	??_C@_0BG@LNLCJKPF@RMSG_CHANGE_CROSSLINE@	; `string'
;	COMDAT ??_C@_0BG@LNLCJKPF@RMSG_CHANGE_CROSSLINE@
CONST	SEGMENT
??_C@_0BG@LNLCJKPF@RMSG_CHANGE_CROSSLINE@ DB 'RMSG_CHANGE_CROSSLINE', 00H ; `string'
CONST	ENDS
;	COMDAT ??_C@_0BD@FLDNDDHK@RMSG_GET_SKINCOLOR@
CONST	SEGMENT
??_C@_0BD@FLDNDDHK@RMSG_GET_SKINCOLOR@ DB 'RMSG_GET_SKINCOLOR', 00H ; `string'
CONST	ENDS
;	COMDAT ??_C@_0BG@CNPAHNGG@RMSG_CHANGE_SKINCOLOR@
CONST	SEGMENT
??_C@_0BG@CNPAHNGG@RMSG_CHANGE_SKINCOLOR@ DB 'RMSG_CHANGE_SKINCOLOR', 00H ; `string'
CONST	ENDS
;	COMDAT ??_C@_0N@IIOKMIEH@RMSG_GETINFO@
CONST	SEGMENT
??_C@_0N@IIOKMIEH@RMSG_GETINFO@ DB 'RMSG_GETINFO', 00H	; `string'
CONST	ENDS
;	COMDAT ??_C@_0P@LFDACNFE@RMSG_KSDLLINFO@
CONST	SEGMENT
??_C@_0P@LFDACNFE@RMSG_KSDLLINFO@ DB 'RMSG_KSDLLINFO', 00H ; `string'
CONST	ENDS
;	COMDAT ??_C@_0BA@HKNFENJL@RMSG_GET_USERID@
CONST	SEGMENT
??_C@_0BA@HKNFENJL@RMSG_GET_USERID@ DB 'RMSG_GET_USERID', 00H ; `string'
CONST	ENDS
;	COMDAT ??_C@_0BC@MMPGLPDH@RMS_ANALYSIS_FUNC@
CONST	SEGMENT
??_C@_0BC@MMPGLPDH@RMS_ANALYSIS_FUNC@ DB 'RMS_ANALYSIS_FUNC', 00H ; `string'
CONST	ENDS
;	COMDAT ??_C@_0P@KHFCBIOH@RMSG_CHARTMAIN@
CONST	SEGMENT
??_C@_0P@KHFCBIOH@RMSG_CHARTMAIN@ DB 'RMSG_CHARTMAIN', 00H ; `string'
CONST	ENDS
;	COMDAT ??_C@_0BE@FJPKENOB@RMSG_GETSIGNAL_REAL@
CONST	SEGMENT
??_C@_0BE@FJPKENOB@RMSG_GETSIGNAL_REAL@ DB 'RMSG_GETSIGNAL_REAL', 00H ; `string'
CONST	ENDS
PUBLIC	?__empty_global_delete@@YAXPAX@Z		; __empty_global_delete
PUBLIC	?__empty_global_delete@@YAXPAXI@Z		; __empty_global_delete
PUBLIC	??1CObject@@UAE@XZ				; CObject::~CObject
PUBLIC	?Serialize@CObject@@UAEXAAVCArchive@@@Z		; CObject::Serialize
PUBLIC	?AssertValid@CObject@@UBEXXZ			; CObject::AssertValid
PUBLIC	?Dump@CObject@@UBEXAAVCDumpContext@@@Z		; CObject::Dump
PUBLIC	??0?$CList@PAVCDlgCompSubItem@@PAV1@@@QAE@H@Z	; CList<CDlgCompSubItem *,CDlgCompSubItem *>::CList<CDlgCompSubItem *,CDlgCompSubItem *>
PUBLIC	?AddTail@?$CList@PAVCDlgCompSubItem@@PAV1@@@QAEPAU__POSITION@@PAVCDlgCompSubItem@@@Z ; CList<CDlgCompSubItem *,CDlgCompSubItem *>::AddTail
PUBLIC	?RemoveAll@?$CList@PAVCDlgCompSubItem@@PAV1@@@QAEXXZ ; CList<CDlgCompSubItem *,CDlgCompSubItem *>::RemoveAll
PUBLIC	?NewNode@?$CList@PAVCDlgCompSubItem@@PAV1@@@IAEPAUCNode@1@PAU21@0@Z ; CList<CDlgCompSubItem *,CDlgCompSubItem *>::NewNode
PUBLIC	??1?$CList@PAVCDlgCompSubItem@@PAV1@@@UAE@XZ	; CList<CDlgCompSubItem *,CDlgCompSubItem *>::~CList<CDlgCompSubItem *,CDlgCompSubItem *>
PUBLIC	?Serialize@?$CList@PAVCDlgCompSubItem@@PAV1@@@UAEXAAVCArchive@@@Z ; CList<CDlgCompSubItem *,CDlgCompSubItem *>::Serialize
PUBLIC	??_G?$CList@PAVCDlgCompSubItem@@PAV1@@@UAEPAXI@Z ; CList<CDlgCompSubItem *,CDlgCompSubItem *>::`scalar deleting destructor'
PUBLIC	?AddTail@?$CList@PAVCDlgCompGroupData@@PAV1@@@QAEPAU__POSITION@@PAVCDlgCompGroupData@@@Z ; CList<CDlgCompGroupData *,CDlgCompGroupData *>::AddTail
PUBLIC	?RemoveAll@?$CList@PAVCDlgCompGroupData@@PAV1@@@QAEXXZ ; CList<CDlgCompGroupData *,CDlgCompGroupData *>::RemoveAll
PUBLIC	?NewNode@?$CList@PAVCDlgCompGroupData@@PAV1@@@IAEPAUCNode@1@PAU21@0@Z ; CList<CDlgCompGroupData *,CDlgCompGroupData *>::NewNode
PUBLIC	??0CCodeDataFromInputBar@@QAE@XZ		; CCodeDataFromInputBar::CCodeDataFromInputBar
PUBLIC	??1CCodeDataFromInputBar@@UAE@XZ		; CCodeDataFromInputBar::~CCodeDataFromInputBar
PUBLIC	??_GCCodeDataFromInputBar@@UAEPAXI@Z		; CCodeDataFromInputBar::`scalar deleting destructor'
PUBLIC	??0CShareInputData@@QAE@XZ			; CShareInputData::CShareInputData
PUBLIC	?ReInit@CShareInputData@@QAEXXZ			; CShareInputData::ReInit
PUBLIC	?LoadData@CDlgCompDataHandle@@UAGXJ@Z		; CDlgCompDataHandle::LoadData
PUBLIC	?SaveData@CDlgCompDataHandle@@UAGXJ@Z		; CDlgCompDataHandle::SaveData
PUBLIC	?SaveSelGroup@CDlgCompDataHandle@@UAGXJ@Z	; CDlgCompDataHandle::SaveSelGroup
PUBLIC	?SaveShowGroupInfo@CDlgCompDataHandle@@UAGXJ@Z	; CDlgCompDataHandle::SaveShowGroupInfo
PUBLIC	?SaveSelCodeInfo@CDlgCompDataHandle@@UAGXJ@Z	; CDlgCompDataHandle::SaveSelCodeInfo
PUBLIC	?SaveTimeUse@CDlgCompDataHandle@@UAGXJ@Z	; CDlgCompDataHandle::SaveTimeUse
PUBLIC	?ClearAll@CDlgCompDataHandle@@UAGXJ@Z		; CDlgCompDataHandle::ClearAll
PUBLIC	?ClearGroupList@CDlgCompDataHandle@@UAGXJ@Z	; CDlgCompDataHandle::ClearGroupList
PUBLIC	?CopyGroupList@CDlgCompDataHandle@@UAGHJJ@Z	; CDlgCompDataHandle::CopyGroupList
PUBLIC	?DoCheckFirst@CDlgCompDataHandle@@UAGXXZ	; CDlgCompDataHandle::DoCheckFirst
PUBLIC	??$SerializeElements@PAVCDlgCompSubItem@@@@YGXAAVCArchive@@PAPAVCDlgCompSubItem@@H@Z ; SerializeElements<CDlgCompSubItem *>
PUBLIC	??_C@_02DPKJAMEF@?$CFd@				; `string'
PUBLIC	??_C@_00CNPNBAHC@@				; `string'
PUBLIC	??_C@_01HIHLOKLC@1@				; `string'
PUBLIC	??_7?$CList@PAVCDlgCompSubItem@@PAV1@@@6B@	; CList<CDlgCompSubItem *,CDlgCompSubItem *>::`vftable'
PUBLIC	??_7CCodeDataFromInputBar@@6B@			; CCodeDataFromInputBar::`vftable'
PUBLIC	??_R0?AVCObject@@@8				; CObject `RTTI Type Descriptor'
PUBLIC	??_R3CObject@@8					; CObject::`RTTI Class Hierarchy Descriptor'
PUBLIC	??_R2CObject@@8					; CObject::`RTTI Base Class Array'
PUBLIC	??_R1A@?0A@EA@CObject@@8			; CObject::`RTTI Base Class Descriptor at (0,-1,0,64)'
PUBLIC	??_R4?$CList@PAVCDlgCompSubItem@@PAV1@@@6B@	; CList<CDlgCompSubItem *,CDlgCompSubItem *>::`RTTI Complete Object Locator'
PUBLIC	??_R0?AV?$CList@PAVCDlgCompSubItem@@PAV1@@@@8	; CList<CDlgCompSubItem *,CDlgCompSubItem *> `RTTI Type Descriptor'
PUBLIC	??_R3?$CList@PAVCDlgCompSubItem@@PAV1@@@8	; CList<CDlgCompSubItem *,CDlgCompSubItem *>::`RTTI Class Hierarchy Descriptor'
PUBLIC	??_R2?$CList@PAVCDlgCompSubItem@@PAV1@@@8	; CList<CDlgCompSubItem *,CDlgCompSubItem *>::`RTTI Base Class Array'
PUBLIC	??_R1A@?0A@EA@?$CList@PAVCDlgCompSubItem@@PAV1@@@8 ; CList<CDlgCompSubItem *,CDlgCompSubItem *>::`RTTI Base Class Descriptor at (0,-1,0,64)'
PUBLIC	??_C@_0M@NDFPFEGJ@Fluctuation@			; `string'
PUBLIC	??_C@_07CPCPJPKL@version@			; `string'
PUBLIC	??_C@_07BGJLJDG@0806171@			; `string'
PUBLIC	??_C@_09NIKFLGND@nGroupCnt@			; `string'
PUBLIC	??_C@_08NHOKBKDK@?$LB?b?$LK?$LL?$LB?W?$LH?l@	; `string'
PUBLIC	??_C@_0M@PKCPEFAA@SelectGroup@			; `string'
PUBLIC	??_C@_08BBOOBMDD@bShowAll@			; `string'
PUBLIC	??_C@_08LEFDDKOF@FGroup00@			; `string'
PUBLIC	??_C@_01FDFGLJHB@2@				; `string'
PUBLIC	??_C@_08BKICBMIH@nItemCnt@			; `string'
PUBLIC	??_C@_0M@OJCFGGOM@szGroupName@			; `string'
PUBLIC	??_C@_03MMKGDKGA@001@				; `string'
PUBLIC	??_C@_08PKGOEOKN@szCode00@			; `string'
PUBLIC	??_C@_04HIKKEBLP@?A?$LO?G?U@			; `string'
PUBLIC	??_C@_0N@IOOBCLLD@szCodeName00@			; `string'
PUBLIC	??_C@_03EAIPFAE@255@				; `string'
PUBLIC	??_C@_05KGIEACJA@clr00@				; `string'
PUBLIC	??_C@_03NOBDJFIO@301@				; `string'
PUBLIC	??_C@_08ODHFHPOM@szCode01@			; `string'
PUBLIC	??_C@_0L@BFMOPOGD@?D?Z?$LN?$LK?$LE?Z?A?$LO?G?U@	; `string'
PUBLIC	??_C@_0N@JHPKBKPC@szCodeName01@			; `string'
PUBLIC	??_C@_08HNMDJOHO@16711680@			; `string'
PUBLIC	??_C@_05LPJPDDNB@clr01@				; `string'
PUBLIC	??_C@_05JDFHOCNC@nBase@				; `string'
PUBLIC	??_C@_06CAHOHFIF@nTimer@			; `string'
PUBLIC	??_C@_08KGBODNME@bCurDisp@			; `string'
PUBLIC	??_C@_09NMPEPLJP@nTypeUnit@			; `string'
PUBLIC	??_C@_09DCNFIBMN@szSelCode@			; `string'
PUBLIC	??_C@_09KKNJFODG@bTimerUse@			; `string'
PUBLIC	??_C@_0L@GLHLONOH@FGroup?$CF02d@		; `string'
PUBLIC	??_C@_0L@ELDNDPC@szCode?$CF02d@			; `string'
PUBLIC	??_C@_0P@ONCKANHF@szCodeName?$CF02d@		; `string'
PUBLIC	??_C@_07BBDBMKBN@clr?$CF02d@			; `string'
PUBLIC	??_C@_0P@OGBKCNGF@nDrawStyle?$CF02d@		; `string'
PUBLIC	??_C@_0P@DLBEDDKE@nThickness?$CF02d@		; `string'
PUBLIC	??_C@_03JALODAI@?$CFld@				; `string'
PUBLIC	??_R4CCodeDataFromInputBar@@6B@			; CCodeDataFromInputBar::`RTTI Complete Object Locator'
PUBLIC	??_R0?AVCCodeDataFromInputBar@@@8		; CCodeDataFromInputBar `RTTI Type Descriptor'
PUBLIC	??_R3CCodeDataFromInputBar@@8			; CCodeDataFromInputBar::`RTTI Class Hierarchy Descriptor'
PUBLIC	??_R2CCodeDataFromInputBar@@8			; CCodeDataFromInputBar::`RTTI Base Class Array'
PUBLIC	??_R1A@?0A@EA@CCodeDataFromInputBar@@8		; CCodeDataFromInputBar::`RTTI Base Class Descriptor at (0,-1,0,64)'
EXTRN	??2@YAPAXI@Z:PROC				; operator new
EXTRN	??3@YAXPAX@Z:PROC				; operator delete
EXTRN	??3@YAXPAXI@Z:PROC				; operator delete
EXTRN	?__global_delete@@YAXPAXI@Z:PROC		; __global_delete
EXTRN	___std_terminate:PROC
EXTRN	__imp__GetPrivateProfileIntA@16:PROC
EXTRN	__imp__GetPrivateProfileStringA@24:PROC
EXTRN	__imp__WritePrivateProfileStringA@16:PROC
EXTRN	__imp__RegisterWindowMessageA@4:PROC
EXTRN	__imp__atol:PROC
EXTRN	?AfxThrowInvalidArgException@@YGXXZ:PROC	; AfxThrowInvalidArgException
EXTRN	?AfxThrowArchiveException@@YGXHPBD@Z:PROC	; AfxThrowArchiveException
EXTRN	?GetRuntimeClass@CObject@@UBEPAUCRuntimeClass@@XZ:PROC ; CObject::GetRuntimeClass
EXTRN	__imp_?GetBuffer@?$CSimpleStringT@D$00@ATL@@QAEPADH@Z:PROC
EXTRN	__imp_?ReleaseBuffer@?$CSimpleStringT@D$00@ATL@@QAEXH@Z:PROC
EXTRN	__imp_??0?$CStringT@DV?$StrTraitMFC_DLL@DV?$ChTraitsCRT@D@ATL@@@@@ATL@@QAE@XZ:PROC
EXTRN	__imp_??0?$CStringT@DV?$StrTraitMFC_DLL@DV?$ChTraitsCRT@D@ATL@@@@@ATL@@QAE@PBD@Z:PROC
EXTRN	__imp_??1?$CStringT@DV?$StrTraitMFC_DLL@DV?$ChTraitsCRT@D@ATL@@@@@ATL@@QAE@XZ:PROC
EXTRN	__imp_??4?$CStringT@DV?$StrTraitMFC_DLL@DV?$ChTraitsCRT@D@ATL@@@@@ATL@@QAEAAV01@ABV01@@Z:PROC
EXTRN	__imp_??4?$CStringT@DV?$StrTraitMFC_DLL@DV?$ChTraitsCRT@D@ATL@@@@@ATL@@QAEAAV01@PBD@Z:PROC
EXTRN	__imp_?CompareNoCase@?$CStringT@DV?$StrTraitMFC_DLL@DV?$ChTraitsCRT@D@ATL@@@@@ATL@@QBEHPBD@Z:PROC
EXTRN	__imp_?Format@?$CStringT@DV?$StrTraitMFC_DLL@DV?$ChTraitsCRT@D@ATL@@@@@ATL@@QAAXPBDZZ:PROC
EXTRN	?Read@CArchive@@QAEIPAXI@Z:PROC			; CArchive::Read
EXTRN	?Write@CArchive@@QAEXPBXI@Z:PROC		; CArchive::Write
EXTRN	?ReadCount@CArchive@@QAEKXZ:PROC		; CArchive::ReadCount
EXTRN	?WriteCount@CArchive@@QAEXK@Z:PROC		; CArchive::WriteCount
EXTRN	?Create@CPlex@@SGPAU1@AAPAU1@II@Z:PROC		; CPlex::Create
EXTRN	?FreeDataChain@CPlex@@QAEXXZ:PROC		; CPlex::FreeDataChain
EXTRN	??_E?$CList@PAVCDlgCompSubItem@@PAV1@@@UAEPAXI@Z:PROC ; CList<CDlgCompSubItem *,CDlgCompSubItem *>::`vector deleting destructor'
EXTRN	??_ECCodeDataFromInputBar@@UAEPAXI@Z:PROC	; CCodeDataFromInputBar::`vector deleting destructor'
EXTRN	@__security_check_cookie@4:PROC
EXTRN	___CxxFrameHandler3:PROC
EXTRN	_memset:PROC
EXTRN	??_7type_info@@6B@:QWORD			; type_info::`vftable'
EXTRN	___security_cookie:DWORD
_BSS	SEGMENT
?RMSG_GETSIGNAL_REAL@@3IB DD 01H DUP (?)		; RMSG_GETSIGNAL_REAL
?RMSG_CHARTMAIN@@3IB DD 01H DUP (?)			; RMSG_CHARTMAIN
?RMS_ANALYSIS_FUNC@@3IB DD 01H DUP (?)			; RMS_ANALYSIS_FUNC
?RMSG_GET_USERID@@3IB DD 01H DUP (?)			; RMSG_GET_USERID
?RMSG_KSDLLINFO@@3IB DD 01H DUP (?)			; RMSG_KSDLLINFO
?RMSG_GETINFO@@3IB DD 01H DUP (?)			; RMSG_GETINFO
?RMSG_CHANGE_SKINCOLOR@@3IB DD 01H DUP (?)		; RMSG_CHANGE_SKINCOLOR
?RMSG_GET_SKINCOLOR@@3IB DD 01H DUP (?)			; RMSG_GET_SKINCOLOR
?RMSG_CHANGE_CROSSLINE@@3IB DD 01H DUP (?)		; RMSG_CHANGE_CROSSLINE
_BSS	ENDS
CRT$XCU	SEGMENT
?RMSG_GETSIGNAL_REAL$initializer$@@3P6AXXZA DD FLAT:??__ERMSG_GETSIGNAL_REAL@@YAXXZ ; RMSG_GETSIGNAL_REAL$initializer$
CRT$XCU	ENDS
;	COMDAT ??_R1A@?0A@EA@CCodeDataFromInputBar@@8
rdata$r	SEGMENT
??_R1A@?0A@EA@CCodeDataFromInputBar@@8 DD FLAT:??_R0?AVCCodeDataFromInputBar@@@8 ; CCodeDataFromInputBar::`RTTI Base Class Descriptor at (0,-1,0,64)'
	DD	00H
	DD	00H
	DD	0ffffffffH
	DD	00H
	DD	040H
	DD	FLAT:??_R3CCodeDataFromInputBar@@8
rdata$r	ENDS
;	COMDAT ??_R2CCodeDataFromInputBar@@8
rdata$r	SEGMENT
??_R2CCodeDataFromInputBar@@8 DD FLAT:??_R1A@?0A@EA@CCodeDataFromInputBar@@8 ; CCodeDataFromInputBar::`RTTI Base Class Array'
rdata$r	ENDS
;	COMDAT ??_R3CCodeDataFromInputBar@@8
rdata$r	SEGMENT
??_R3CCodeDataFromInputBar@@8 DD 00H			; CCodeDataFromInputBar::`RTTI Class Hierarchy Descriptor'
	DD	00H
	DD	01H
	DD	FLAT:??_R2CCodeDataFromInputBar@@8
rdata$r	ENDS
;	COMDAT ??_R0?AVCCodeDataFromInputBar@@@8
data$rs	SEGMENT
??_R0?AVCCodeDataFromInputBar@@@8 DD FLAT:??_7type_info@@6B@ ; CCodeDataFromInputBar `RTTI Type Descriptor'
	DD	00H
	DB	'.?AVCCodeDataFromInputBar@@', 00H
data$rs	ENDS
;	COMDAT ??_R4CCodeDataFromInputBar@@6B@
rdata$r	SEGMENT
??_R4CCodeDataFromInputBar@@6B@ DD 00H			; CCodeDataFromInputBar::`RTTI Complete Object Locator'
	DD	00H
	DD	00H
	DD	FLAT:??_R0?AVCCodeDataFromInputBar@@@8
	DD	FLAT:??_R3CCodeDataFromInputBar@@8
rdata$r	ENDS
;	COMDAT ??_C@_03JALODAI@?$CFld@
CONST	SEGMENT
??_C@_03JALODAI@?$CFld@ DB '%ld', 00H			; `string'
CONST	ENDS
;	COMDAT ??_C@_0P@DLBEDDKE@nThickness?$CF02d@
CONST	SEGMENT
??_C@_0P@DLBEDDKE@nThickness?$CF02d@ DB 'nThickness%02d', 00H ; `string'
CONST	ENDS
;	COMDAT ??_C@_0P@OGBKCNGF@nDrawStyle?$CF02d@
CONST	SEGMENT
??_C@_0P@OGBKCNGF@nDrawStyle?$CF02d@ DB 'nDrawStyle%02d', 00H ; `string'
CONST	ENDS
;	COMDAT ??_C@_07BBDBMKBN@clr?$CF02d@
CONST	SEGMENT
??_C@_07BBDBMKBN@clr?$CF02d@ DB 'clr%02d', 00H		; `string'
CONST	ENDS
;	COMDAT ??_C@_0P@ONCKANHF@szCodeName?$CF02d@
CONST	SEGMENT
??_C@_0P@ONCKANHF@szCodeName?$CF02d@ DB 'szCodeName%02d', 00H ; `string'
CONST	ENDS
;	COMDAT ??_C@_0L@ELDNDPC@szCode?$CF02d@
CONST	SEGMENT
??_C@_0L@ELDNDPC@szCode?$CF02d@ DB 'szCode%02d', 00H	; `string'
CONST	ENDS
;	COMDAT ??_C@_0L@GLHLONOH@FGroup?$CF02d@
CONST	SEGMENT
??_C@_0L@GLHLONOH@FGroup?$CF02d@ DB 'FGroup%02d', 00H	; `string'
CONST	ENDS
;	COMDAT ??_C@_09KKNJFODG@bTimerUse@
CONST	SEGMENT
??_C@_09KKNJFODG@bTimerUse@ DB 'bTimerUse', 00H		; `string'
CONST	ENDS
;	COMDAT ??_C@_09DCNFIBMN@szSelCode@
CONST	SEGMENT
??_C@_09DCNFIBMN@szSelCode@ DB 'szSelCode', 00H		; `string'
CONST	ENDS
;	COMDAT ??_C@_09NMPEPLJP@nTypeUnit@
CONST	SEGMENT
??_C@_09NMPEPLJP@nTypeUnit@ DB 'nTypeUnit', 00H		; `string'
CONST	ENDS
;	COMDAT ??_C@_08KGBODNME@bCurDisp@
CONST	SEGMENT
??_C@_08KGBODNME@bCurDisp@ DB 'bCurDisp', 00H		; `string'
CONST	ENDS
;	COMDAT ??_C@_06CAHOHFIF@nTimer@
CONST	SEGMENT
??_C@_06CAHOHFIF@nTimer@ DB 'nTimer', 00H		; `string'
CONST	ENDS
;	COMDAT ??_C@_05JDFHOCNC@nBase@
CONST	SEGMENT
??_C@_05JDFHOCNC@nBase@ DB 'nBase', 00H			; `string'
CONST	ENDS
;	COMDAT ??_C@_05LPJPDDNB@clr01@
CONST	SEGMENT
??_C@_05LPJPDDNB@clr01@ DB 'clr01', 00H			; `string'
CONST	ENDS
;	COMDAT ??_C@_08HNMDJOHO@16711680@
CONST	SEGMENT
??_C@_08HNMDJOHO@16711680@ DB '16711680', 00H		; `string'
CONST	ENDS
;	COMDAT ??_C@_0N@JHPKBKPC@szCodeName01@
CONST	SEGMENT
??_C@_0N@JHPKBKPC@szCodeName01@ DB 'szCodeName01', 00H	; `string'
CONST	ENDS
;	COMDAT ??_C@_0L@BFMOPOGD@?D?Z?$LN?$LK?$LE?Z?A?$LO?G?U@
CONST	SEGMENT
??_C@_0L@BFMOPOGD@?D?Z?$LN?$LK?$LE?Z?A?$LO?G?U@ DB 0c4H, 0daH, 0bdH, 0baH
	DB	0b4H, 0daH, 0c1H, 0beH, 0c7H, 0d5H, 00H	; `string'
CONST	ENDS
;	COMDAT ??_C@_08ODHFHPOM@szCode01@
CONST	SEGMENT
??_C@_08ODHFHPOM@szCode01@ DB 'szCode01', 00H		; `string'
CONST	ENDS
;	COMDAT ??_C@_03NOBDJFIO@301@
CONST	SEGMENT
??_C@_03NOBDJFIO@301@ DB '301', 00H			; `string'
CONST	ENDS
;	COMDAT ??_C@_05KGIEACJA@clr00@
CONST	SEGMENT
??_C@_05KGIEACJA@clr00@ DB 'clr00', 00H			; `string'
CONST	ENDS
;	COMDAT ??_C@_03EAIPFAE@255@
CONST	SEGMENT
??_C@_03EAIPFAE@255@ DB '255', 00H			; `string'
CONST	ENDS
;	COMDAT ??_C@_0N@IOOBCLLD@szCodeName00@
CONST	SEGMENT
??_C@_0N@IOOBCLLD@szCodeName00@ DB 'szCodeName00', 00H	; `string'
CONST	ENDS
;	COMDAT ??_C@_04HIKKEBLP@?A?$LO?G?U@
CONST	SEGMENT
??_C@_04HIKKEBLP@?A?$LO?G?U@ DB 0c1H, 0beH, 0c7H, 0d5H, 00H ; `string'
CONST	ENDS
;	COMDAT ??_C@_08PKGOEOKN@szCode00@
CONST	SEGMENT
??_C@_08PKGOEOKN@szCode00@ DB 'szCode00', 00H		; `string'
CONST	ENDS
;	COMDAT ??_C@_03MMKGDKGA@001@
CONST	SEGMENT
??_C@_03MMKGDKGA@001@ DB '001', 00H			; `string'
CONST	ENDS
;	COMDAT ??_C@_0M@OJCFGGOM@szGroupName@
CONST	SEGMENT
??_C@_0M@OJCFGGOM@szGroupName@ DB 'szGroupName', 00H	; `string'
CONST	ENDS
;	COMDAT ??_C@_08BKICBMIH@nItemCnt@
CONST	SEGMENT
??_C@_08BKICBMIH@nItemCnt@ DB 'nItemCnt', 00H		; `string'
CONST	ENDS
;	COMDAT ??_C@_01FDFGLJHB@2@
CONST	SEGMENT
??_C@_01FDFGLJHB@2@ DB '2', 00H				; `string'
CONST	ENDS
;	COMDAT ??_C@_08LEFDDKOF@FGroup00@
CONST	SEGMENT
??_C@_08LEFDDKOF@FGroup00@ DB 'FGroup00', 00H		; `string'
CONST	ENDS
;	COMDAT ??_C@_08BBOOBMDD@bShowAll@
CONST	SEGMENT
??_C@_08BBOOBMDD@bShowAll@ DB 'bShowAll', 00H		; `string'
CONST	ENDS
;	COMDAT ??_C@_0M@PKCPEFAA@SelectGroup@
CONST	SEGMENT
??_C@_0M@PKCPEFAA@SelectGroup@ DB 'SelectGroup', 00H	; `string'
CONST	ENDS
;	COMDAT ??_C@_08NHOKBKDK@?$LB?b?$LK?$LL?$LB?W?$LH?l@
CONST	SEGMENT
??_C@_08NHOKBKDK@?$LB?b?$LK?$LL?$LB?W?$LH?l@ DB 0b1H, 0e2H, 0baH, 0bbH, 0b1H
	DB	0d7H, 0b7H, 0ecH, 00H			; `string'
CONST	ENDS
;	COMDAT ??_C@_09NIKFLGND@nGroupCnt@
CONST	SEGMENT
??_C@_09NIKFLGND@nGroupCnt@ DB 'nGroupCnt', 00H		; `string'
CONST	ENDS
;	COMDAT ??_C@_07BGJLJDG@0806171@
CONST	SEGMENT
??_C@_07BGJLJDG@0806171@ DB '0806171', 00H		; `string'
CONST	ENDS
;	COMDAT ??_C@_07CPCPJPKL@version@
CONST	SEGMENT
??_C@_07CPCPJPKL@version@ DB 'version', 00H		; `string'
CONST	ENDS
;	COMDAT ??_C@_0M@NDFPFEGJ@Fluctuation@
CONST	SEGMENT
??_C@_0M@NDFPFEGJ@Fluctuation@ DB 'Fluctuation', 00H	; `string'
CONST	ENDS
;	COMDAT ??_R1A@?0A@EA@?$CList@PAVCDlgCompSubItem@@PAV1@@@8
rdata$r	SEGMENT
??_R1A@?0A@EA@?$CList@PAVCDlgCompSubItem@@PAV1@@@8 DD FLAT:??_R0?AV?$CList@PAVCDlgCompSubItem@@PAV1@@@@8 ; CList<CDlgCompSubItem *,CDlgCompSubItem *>::`RTTI Base Class Descriptor at (0,-1,0,64)'
	DD	01H
	DD	00H
	DD	0ffffffffH
	DD	00H
	DD	040H
	DD	FLAT:??_R3?$CList@PAVCDlgCompSubItem@@PAV1@@@8
rdata$r	ENDS
;	COMDAT ??_R2?$CList@PAVCDlgCompSubItem@@PAV1@@@8
rdata$r	SEGMENT
??_R2?$CList@PAVCDlgCompSubItem@@PAV1@@@8 DD FLAT:??_R1A@?0A@EA@?$CList@PAVCDlgCompSubItem@@PAV1@@@8 ; CList<CDlgCompSubItem *,CDlgCompSubItem *>::`RTTI Base Class Array'
	DD	FLAT:??_R1A@?0A@EA@CObject@@8
rdata$r	ENDS
;	COMDAT ??_R3?$CList@PAVCDlgCompSubItem@@PAV1@@@8
rdata$r	SEGMENT
??_R3?$CList@PAVCDlgCompSubItem@@PAV1@@@8 DD 00H	; CList<CDlgCompSubItem *,CDlgCompSubItem *>::`RTTI Class Hierarchy Descriptor'
	DD	00H
	DD	02H
	DD	FLAT:??_R2?$CList@PAVCDlgCompSubItem@@PAV1@@@8
rdata$r	ENDS
;	COMDAT ??_R0?AV?$CList@PAVCDlgCompSubItem@@PAV1@@@@8
data$rs	SEGMENT
??_R0?AV?$CList@PAVCDlgCompSubItem@@PAV1@@@@8 DD FLAT:??_7type_info@@6B@ ; CList<CDlgCompSubItem *,CDlgCompSubItem *> `RTTI Type Descriptor'
	DD	00H
	DB	'.?AV?$CList@PAVCDlgCompSubItem@@PAV1@@@', 00H
data$rs	ENDS
;	COMDAT ??_R4?$CList@PAVCDlgCompSubItem@@PAV1@@@6B@
rdata$r	SEGMENT
??_R4?$CList@PAVCDlgCompSubItem@@PAV1@@@6B@ DD 00H	; CList<CDlgCompSubItem *,CDlgCompSubItem *>::`RTTI Complete Object Locator'
	DD	00H
	DD	00H
	DD	FLAT:??_R0?AV?$CList@PAVCDlgCompSubItem@@PAV1@@@@8
	DD	FLAT:??_R3?$CList@PAVCDlgCompSubItem@@PAV1@@@8
rdata$r	ENDS
;	COMDAT ??_R1A@?0A@EA@CObject@@8
rdata$r	SEGMENT
??_R1A@?0A@EA@CObject@@8 DD FLAT:??_R0?AVCObject@@@8	; CObject::`RTTI Base Class Descriptor at (0,-1,0,64)'
	DD	00H
	DD	00H
	DD	0ffffffffH
	DD	00H
	DD	040H
	DD	FLAT:??_R3CObject@@8
rdata$r	ENDS
;	COMDAT ??_R2CObject@@8
rdata$r	SEGMENT
??_R2CObject@@8 DD FLAT:??_R1A@?0A@EA@CObject@@8	; CObject::`RTTI Base Class Array'
rdata$r	ENDS
;	COMDAT ??_R3CObject@@8
rdata$r	SEGMENT
??_R3CObject@@8 DD 00H					; CObject::`RTTI Class Hierarchy Descriptor'
	DD	00H
	DD	01H
	DD	FLAT:??_R2CObject@@8
rdata$r	ENDS
;	COMDAT ??_R0?AVCObject@@@8
data$rs	SEGMENT
??_R0?AVCObject@@@8 DD FLAT:??_7type_info@@6B@		; CObject `RTTI Type Descriptor'
	DD	00H
	DB	'.?AVCObject@@', 00H
data$rs	ENDS
;	COMDAT ??_7CCodeDataFromInputBar@@6B@
CONST	SEGMENT
??_7CCodeDataFromInputBar@@6B@ DD FLAT:??_R4CCodeDataFromInputBar@@6B@ ; CCodeDataFromInputBar::`vftable'
	DD	FLAT:??_ECCodeDataFromInputBar@@UAEPAXI@Z
CONST	ENDS
;	COMDAT ??_7?$CList@PAVCDlgCompSubItem@@PAV1@@@6B@
CONST	SEGMENT
??_7?$CList@PAVCDlgCompSubItem@@PAV1@@@6B@ DD FLAT:??_R4?$CList@PAVCDlgCompSubItem@@PAV1@@@6B@ ; CList<CDlgCompSubItem *,CDlgCompSubItem *>::`vftable'
	DD	FLAT:?GetRuntimeClass@CObject@@UBEPAUCRuntimeClass@@XZ
	DD	FLAT:??_E?$CList@PAVCDlgCompSubItem@@PAV1@@@UAEPAXI@Z
	DD	FLAT:?Serialize@?$CList@PAVCDlgCompSubItem@@PAV1@@@UAEXAAVCArchive@@@Z
	DD	FLAT:?AssertValid@CObject@@UBEXXZ
	DD	FLAT:?Dump@CObject@@UBEXAAVCDumpContext@@@Z
CONST	ENDS
;	COMDAT ??_C@_01HIHLOKLC@1@
CONST	SEGMENT
??_C@_01HIHLOKLC@1@ DB '1', 00H				; `string'
CONST	ENDS
;	COMDAT ??_C@_00CNPNBAHC@@
CONST	SEGMENT
??_C@_00CNPNBAHC@@ DB 00H				; `string'
CONST	ENDS
;	COMDAT ??_C@_02DPKJAMEF@?$CFd@
CONST	SEGMENT
??_C@_02DPKJAMEF@?$CFd@ DB '%d', 00H			; `string'
CONST	ENDS
;	COMDAT xdata$x
xdata$x	SEGMENT
__unwindtable$?ClearGroupList@CDlgCompDataHandle@@UAGXJ@Z DD 0ffffffffH
	DD	FLAT:___std_terminate
__ehfuncinfo$?ClearGroupList@CDlgCompDataHandle@@UAGXJ@Z DD 019930522H
	DD	01H
	DD	FLAT:__unwindtable$?ClearGroupList@CDlgCompDataHandle@@UAGXJ@Z
	DD	2 DUP(00H)
	DD	2 DUP(00H)
	DD	00H
	DD	01H
xdata$x	ENDS
;	COMDAT xdata$x
xdata$x	SEGMENT
__unwindtable$??_GCDlgCompGroupData@@QAEPAXI@Z DD 0ffffffffH
	DD	FLAT:___std_terminate
__ehfuncinfo$??_GCDlgCompGroupData@@QAEPAXI@Z DD 019930522H
	DD	01H
	DD	FLAT:__unwindtable$??_GCDlgCompGroupData@@QAEPAXI@Z
	DD	2 DUP(00H)
	DD	2 DUP(00H)
	DD	00H
	DD	05H
xdata$x	ENDS
;	COMDAT xdata$x
xdata$x	SEGMENT
__unwindtable$??1CDlgCompGroupData@@QAE@XZ DD 0ffffffffH
	DD	FLAT:___std_terminate
__ehfuncinfo$??1CDlgCompGroupData@@QAE@XZ DD 019930522H
	DD	01H
	DD	FLAT:__unwindtable$??1CDlgCompGroupData@@QAE@XZ
	DD	2 DUP(00H)
	DD	2 DUP(00H)
	DD	00H
	DD	05H
xdata$x	ENDS
;	COMDAT xdata$x
xdata$x	SEGMENT
__unwindtable$??_G?$CList@PAVCDlgCompSubItem@@PAV1@@@UAEPAXI@Z DD 0ffffffffH
	DD	FLAT:___std_terminate
__ehfuncinfo$??_G?$CList@PAVCDlgCompSubItem@@PAV1@@@UAEPAXI@Z DD 019930522H
	DD	01H
	DD	FLAT:__unwindtable$??_G?$CList@PAVCDlgCompSubItem@@PAV1@@@UAEPAXI@Z
	DD	2 DUP(00H)
	DD	2 DUP(00H)
	DD	00H
	DD	05H
xdata$x	ENDS
;	COMDAT xdata$x
xdata$x	SEGMENT
__ehfuncinfo$??1?$CList@PAVCDlgCompSubItem@@PAV1@@@UAE@XZ DD 019930522H
	DD	00H
	DD	00H
	DD	2 DUP(00H)
	DD	2 DUP(00H)
	DD	00H
	DD	05H
xdata$x	ENDS
CRT$XCU	SEGMENT
?RMSG_CHARTMAIN$initializer$@@3P6AXXZA DD FLAT:??__ERMSG_CHARTMAIN@@YAXXZ ; RMSG_CHARTMAIN$initializer$
CRT$XCU	ENDS
CRT$XCU	SEGMENT
?RMS_ANALYSIS_FUNC$initializer$@@3P6AXXZA DD FLAT:??__ERMS_ANALYSIS_FUNC@@YAXXZ ; RMS_ANALYSIS_FUNC$initializer$
CRT$XCU	ENDS
CRT$XCU	SEGMENT
?RMSG_GET_USERID$initializer$@@3P6AXXZA DD FLAT:??__ERMSG_GET_USERID@@YAXXZ ; RMSG_GET_USERID$initializer$
CRT$XCU	ENDS
CRT$XCU	SEGMENT
?RMSG_KSDLLINFO$initializer$@@3P6AXXZA DD FLAT:??__ERMSG_KSDLLINFO@@YAXXZ ; RMSG_KSDLLINFO$initializer$
CRT$XCU	ENDS
CRT$XCU	SEGMENT
?RMSG_GETINFO$initializer$@@3P6AXXZA DD FLAT:??__ERMSG_GETINFO@@YAXXZ ; RMSG_GETINFO$initializer$
CRT$XCU	ENDS
CRT$XCU	SEGMENT
?RMSG_CHANGE_SKINCOLOR$initializer$@@3P6AXXZA DD FLAT:??__ERMSG_CHANGE_SKINCOLOR@@YAXXZ ; RMSG_CHANGE_SKINCOLOR$initializer$
CRT$XCU	ENDS
CRT$XCU	SEGMENT
?RMSG_GET_SKINCOLOR$initializer$@@3P6AXXZA DD FLAT:??__ERMSG_GET_SKINCOLOR@@YAXXZ ; RMSG_GET_SKINCOLOR$initializer$
CRT$XCU	ENDS
CRT$XCU	SEGMENT
?RMSG_CHANGE_CROSSLINE$initializer$@@3P6AXXZA DD FLAT:??__ERMSG_CHANGE_CROSSLINE@@YAXXZ ; RMSG_CHANGE_CROSSLINE$initializer$
CRT$XCU	ENDS
; Function compile flags: /Ogtp
; File D:\git\src\IBK\IBK_DRFN\ProjSrc\SrcDrfn\Chart\comparechart\define\ChartMsgDef.h
;	COMDAT ??__ERMSG_CHANGE_CROSSLINE@@YAXXZ
text$di	SEGMENT
??__ERMSG_CHANGE_CROSSLINE@@YAXXZ PROC			; `dynamic initializer for 'RMSG_CHANGE_CROSSLINE'', COMDAT

; 216  : const UINT RMSG_CHANGE_CROSSLINE = ::RegisterWindowMessage(_T("RMSG_CHANGE_CROSSLINE"));

  00000	68 00 00 00 00	 push	 OFFSET ??_C@_0BG@LNLCJKPF@RMSG_CHANGE_CROSSLINE@
  00005	ff 15 00 00 00
	00		 call	 DWORD PTR __imp__RegisterWindowMessageA@4
  0000b	a3 00 00 00 00	 mov	 DWORD PTR ?RMSG_CHANGE_CROSSLINE@@3IB, eax
  00010	c3		 ret	 0
??__ERMSG_CHANGE_CROSSLINE@@YAXXZ ENDP			; `dynamic initializer for 'RMSG_CHANGE_CROSSLINE''
text$di	ENDS
; Function compile flags: /Ogtp
; File D:\git\src\IBK\IBK_DRFN\ProjSrc\SrcDrfn\Chart\comparechart\define\ChartMsgDef.h
;	COMDAT ??__ERMSG_GET_SKINCOLOR@@YAXXZ
text$di	SEGMENT
??__ERMSG_GET_SKINCOLOR@@YAXXZ PROC			; `dynamic initializer for 'RMSG_GET_SKINCOLOR'', COMDAT

; 214  : const UINT RMSG_GET_SKINCOLOR = ::RegisterWindowMessage(_T("RMSG_GET_SKINCOLOR"));

  00000	68 00 00 00 00	 push	 OFFSET ??_C@_0BD@FLDNDDHK@RMSG_GET_SKINCOLOR@
  00005	ff 15 00 00 00
	00		 call	 DWORD PTR __imp__RegisterWindowMessageA@4
  0000b	a3 00 00 00 00	 mov	 DWORD PTR ?RMSG_GET_SKINCOLOR@@3IB, eax
  00010	c3		 ret	 0
??__ERMSG_GET_SKINCOLOR@@YAXXZ ENDP			; `dynamic initializer for 'RMSG_GET_SKINCOLOR''
text$di	ENDS
; Function compile flags: /Ogtp
; File D:\git\src\IBK\IBK_DRFN\ProjSrc\SrcDrfn\Chart\comparechart\define\ChartMsgDef.h
;	COMDAT ??__ERMSG_CHANGE_SKINCOLOR@@YAXXZ
text$di	SEGMENT
??__ERMSG_CHANGE_SKINCOLOR@@YAXXZ PROC			; `dynamic initializer for 'RMSG_CHANGE_SKINCOLOR'', COMDAT

; 213  : const UINT RMSG_CHANGE_SKINCOLOR = ::RegisterWindowMessage(_T("RMSG_CHANGE_SKINCOLOR"));

  00000	68 00 00 00 00	 push	 OFFSET ??_C@_0BG@CNPAHNGG@RMSG_CHANGE_SKINCOLOR@
  00005	ff 15 00 00 00
	00		 call	 DWORD PTR __imp__RegisterWindowMessageA@4
  0000b	a3 00 00 00 00	 mov	 DWORD PTR ?RMSG_CHANGE_SKINCOLOR@@3IB, eax
  00010	c3		 ret	 0
??__ERMSG_CHANGE_SKINCOLOR@@YAXXZ ENDP			; `dynamic initializer for 'RMSG_CHANGE_SKINCOLOR''
text$di	ENDS
; Function compile flags: /Ogtp
; File D:\git\src\IBK\IBK_DRFN\ProjSrc\SrcDrfn\Chart\comparechart\define\ChartMsgDef.h
;	COMDAT ??__ERMSG_GETINFO@@YAXXZ
text$di	SEGMENT
??__ERMSG_GETINFO@@YAXXZ PROC				; `dynamic initializer for 'RMSG_GETINFO'', COMDAT

; 204  : const UINT RMSG_GETINFO = ::RegisterWindowMessage(_T("RMSG_GETINFO"));

  00000	68 00 00 00 00	 push	 OFFSET ??_C@_0N@IIOKMIEH@RMSG_GETINFO@
  00005	ff 15 00 00 00
	00		 call	 DWORD PTR __imp__RegisterWindowMessageA@4
  0000b	a3 00 00 00 00	 mov	 DWORD PTR ?RMSG_GETINFO@@3IB, eax
  00010	c3		 ret	 0
??__ERMSG_GETINFO@@YAXXZ ENDP				; `dynamic initializer for 'RMSG_GETINFO''
text$di	ENDS
; Function compile flags: /Ogtp
; File D:\git\src\IBK\IBK_DRFN\ProjSrc\SrcDrfn\Chart\comparechart\define\ChartMsgDef.h
;	COMDAT ??__ERMSG_KSDLLINFO@@YAXXZ
text$di	SEGMENT
??__ERMSG_KSDLLINFO@@YAXXZ PROC				; `dynamic initializer for 'RMSG_KSDLLINFO'', COMDAT

; 203  : const UINT RMSG_KSDLLINFO = ::RegisterWindowMessage(_T("RMSG_KSDLLINFO"));		// TrmCompCharView에게 정보얻기

  00000	68 00 00 00 00	 push	 OFFSET ??_C@_0P@LFDACNFE@RMSG_KSDLLINFO@
  00005	ff 15 00 00 00
	00		 call	 DWORD PTR __imp__RegisterWindowMessageA@4
  0000b	a3 00 00 00 00	 mov	 DWORD PTR ?RMSG_KSDLLINFO@@3IB, eax
  00010	c3		 ret	 0
??__ERMSG_KSDLLINFO@@YAXXZ ENDP				; `dynamic initializer for 'RMSG_KSDLLINFO''
text$di	ENDS
; Function compile flags: /Ogtp
; File D:\git\src\IBK\IBK_DRFN\ProjSrc\SrcDrfn\Chart\comparechart\define\ChartMsgDef.h
;	COMDAT ??__ERMSG_GET_USERID@@YAXXZ
text$di	SEGMENT
??__ERMSG_GET_USERID@@YAXXZ PROC			; `dynamic initializer for 'RMSG_GET_USERID'', COMDAT

; 200  : const UINT RMSG_GET_USERID = ::RegisterWindowMessage(_T("RMSG_GET_USERID"));	// User ID 얻기

  00000	68 00 00 00 00	 push	 OFFSET ??_C@_0BA@HKNFENJL@RMSG_GET_USERID@
  00005	ff 15 00 00 00
	00		 call	 DWORD PTR __imp__RegisterWindowMessageA@4
  0000b	a3 00 00 00 00	 mov	 DWORD PTR ?RMSG_GET_USERID@@3IB, eax
  00010	c3		 ret	 0
??__ERMSG_GET_USERID@@YAXXZ ENDP			; `dynamic initializer for 'RMSG_GET_USERID''
text$di	ENDS
; Function compile flags: /Ogtp
; File D:\git\src\IBK\IBK_DRFN\ProjSrc\SrcDrfn\Chart\comparechart\define\ChartMsgDef.h
;	COMDAT ??__ERMS_ANALYSIS_FUNC@@YAXXZ
text$di	SEGMENT
??__ERMS_ANALYSIS_FUNC@@YAXXZ PROC			; `dynamic initializer for 'RMS_ANALYSIS_FUNC'', COMDAT

; 196  : const UINT RMS_ANALYSIS_FUNC	= ::RegisterWindowMessage(_T("RMS_ANALYSIS_FUNC"));

  00000	68 00 00 00 00	 push	 OFFSET ??_C@_0BC@MMPGLPDH@RMS_ANALYSIS_FUNC@
  00005	ff 15 00 00 00
	00		 call	 DWORD PTR __imp__RegisterWindowMessageA@4
  0000b	a3 00 00 00 00	 mov	 DWORD PTR ?RMS_ANALYSIS_FUNC@@3IB, eax
  00010	c3		 ret	 0
??__ERMS_ANALYSIS_FUNC@@YAXXZ ENDP			; `dynamic initializer for 'RMS_ANALYSIS_FUNC''
text$di	ENDS
; Function compile flags: /Ogtp
; File D:\git\src\IBK\IBK_DRFN\ProjSrc\SrcDrfn\Chart\comparechart\define\ChartMsgDef.h
;	COMDAT ??__ERMSG_CHARTMAIN@@YAXXZ
text$di	SEGMENT
??__ERMSG_CHARTMAIN@@YAXXZ PROC				; `dynamic initializer for 'RMSG_CHARTMAIN'', COMDAT

; 193  : const UINT RMSG_CHARTMAIN		= ::RegisterWindowMessage(_T("RMSG_CHARTMAIN"));

  00000	68 00 00 00 00	 push	 OFFSET ??_C@_0P@KHFCBIOH@RMSG_CHARTMAIN@
  00005	ff 15 00 00 00
	00		 call	 DWORD PTR __imp__RegisterWindowMessageA@4
  0000b	a3 00 00 00 00	 mov	 DWORD PTR ?RMSG_CHARTMAIN@@3IB, eax
  00010	c3		 ret	 0
??__ERMSG_CHARTMAIN@@YAXXZ ENDP				; `dynamic initializer for 'RMSG_CHARTMAIN''
text$di	ENDS
; Function compile flags: /Ogtp
; File D:\git\src\IBK\IBK_DRFN\ProjSrc\SrcDrfn\Chart\commontr\TRDefine.h
;	COMDAT ??__ERMSG_GETSIGNAL_REAL@@YAXXZ
text$di	SEGMENT
??__ERMSG_GETSIGNAL_REAL@@YAXXZ PROC			; `dynamic initializer for 'RMSG_GETSIGNAL_REAL'', COMDAT

; 213  : const UINT RMSG_GETSIGNAL_REAL = ::RegisterWindowMessage(_T("RMSG_GETSIGNAL_REAL"));

  00000	68 00 00 00 00	 push	 OFFSET ??_C@_0BE@FJPKENOB@RMSG_GETSIGNAL_REAL@
  00005	ff 15 00 00 00
	00		 call	 DWORD PTR __imp__RegisterWindowMessageA@4
  0000b	a3 00 00 00 00	 mov	 DWORD PTR ?RMSG_GETSIGNAL_REAL@@3IB, eax
  00010	c3		 ret	 0
??__ERMSG_GETSIGNAL_REAL@@YAXXZ ENDP			; `dynamic initializer for 'RMSG_GETSIGNAL_REAL''
text$di	ENDS
; Function compile flags: /Ogtp
; File C:\Program Files (x86)\Microsoft Visual Studio\2019\Community\VC\Tools\MSVC\14.29.30133\atlmfc\include\afxtempl.h
; File C:\Program Files (x86)\Microsoft Visual Studio\2019\Community\VC\Tools\MSVC\14.29.30133\atlmfc\include\afx.inl
; File C:\Program Files (x86)\Microsoft Visual Studio\2019\Community\VC\Tools\MSVC\14.29.30133\atlmfc\include\afxtempl.h
; File C:\Program Files (x86)\Microsoft Visual Studio\2019\Community\VC\Tools\MSVC\14.29.30133\atlmfc\include\afx.inl
; File C:\Program Files (x86)\Microsoft Visual Studio\2019\Community\VC\Tools\MSVC\14.29.30133\atlmfc\include\afxtempl.h
; File C:\Program Files (x86)\Microsoft Visual Studio\2019\Community\VC\Tools\MSVC\14.29.30133\atlmfc\include\afx.inl
; File C:\Program Files (x86)\Microsoft Visual Studio\2019\Community\VC\Tools\MSVC\14.29.30133\atlmfc\include\afxtempl.h
;	COMDAT ??$SerializeElements@PAVCDlgCompSubItem@@@@YGXAAVCArchive@@PAPAVCDlgCompSubItem@@H@Z
_TEXT	SEGMENT
_ar$ = 8						; size = 4
_pElements$ = 12					; size = 4
_nCount$ = 16						; size = 4
??$SerializeElements@PAVCDlgCompSubItem@@@@YGXAAVCArchive@@PAPAVCDlgCompSubItem@@H@Z PROC ; SerializeElements<CDlgCompSubItem *>, COMDAT

; 67   : {

  00000	55		 push	 ebp
  00001	8b ec		 mov	 ebp, esp

; 68   : 	ENSURE(nCount == 0 || pElements != NULL);

  00003	8b 4d 0c	 mov	 ecx, DWORD PTR _pElements$[ebp]
  00006	53		 push	 ebx
  00007	56		 push	 esi
  00008	8b 75 10	 mov	 esi, DWORD PTR _nCount$[ebp]
  0000b	57		 push	 edi
  0000c	85 f6		 test	 esi, esi
  0000e	74 08		 je	 SHORT $LN2@SerializeE
  00010	85 c9		 test	 ecx, ecx
  00012	0f 84 89 00 00
	00		 je	 $LN34@SerializeE
$LN2@SerializeE:
; File C:\Program Files (x86)\Microsoft Visual Studio\2019\Community\VC\Tools\MSVC\14.29.30133\atlmfc\include\afx.inl

; 212  : 	{ return (m_nMode & CArchive::load) == 0; }

  00018	8b 55 08	 mov	 edx, DWORD PTR _ar$[ebp]
  0001b	8b 42 18	 mov	 eax, DWORD PTR [edx+24]
  0001e	f7 d0		 not	 eax
  00020	a8 01		 test	 al, 1
; File C:\Program Files (x86)\Microsoft Visual Studio\2019\Community\VC\Tools\MSVC\14.29.30133\atlmfc\include\afxtempl.h

; 73   : 	if (ar.IsStoring())

  00022	74 3c		 je	 SHORT $LN10@SerializeE

; 74   : 	{
; 75   : 		TYPE* pData;
; 76   : 		UINT_PTR nElementsLeft;
; 77   : 
; 78   : 		nElementsLeft = nCount;
; 79   : 		pData = pElements;
; 80   : 		while( nElementsLeft > 0 )

  00024	85 f6		 test	 esi, esi
  00026	74 31		 je	 SHORT $LN8@SerializeE
  00028	0f 1f 84 00 00
	00 00 00	 npad	 8
$LL5@SerializeE:

; 81   : 		{
; 82   : 			UINT nElementsToWrite;
; 83   : 
; 84   : 			nElementsToWrite = UINT(__min(nElementsLeft, INT_MAX/sizeof(TYPE)));

  00030	bb ff ff ff 1f	 mov	 ebx, 536870911		; 1fffffffH
  00035	3b f3		 cmp	 esi, ebx
  00037	0f 42 de	 cmovb	 ebx, esi

; 85   : 			ar.Write(pData, nElementsToWrite*sizeof(TYPE));

  0003a	8d 3c 9d 00 00
	00 00		 lea	 edi, DWORD PTR [ebx*4]
  00041	57		 push	 edi
  00042	51		 push	 ecx
  00043	8b ca		 mov	 ecx, edx
  00045	e8 00 00 00 00	 call	 ?Write@CArchive@@QAEXPBXI@Z ; CArchive::Write

; 86   : 			nElementsLeft -= nElementsToWrite;
; 87   : 			pData += nElementsToWrite;

  0004a	8b 4d 0c	 mov	 ecx, DWORD PTR _pElements$[ebp]
  0004d	8b 55 08	 mov	 edx, DWORD PTR _ar$[ebp]
  00050	03 cf		 add	 ecx, edi
  00052	89 4d 0c	 mov	 DWORD PTR _pElements$[ebp], ecx
  00055	2b f3		 sub	 esi, ebx
  00057	75 d7		 jne	 SHORT $LL5@SerializeE
$LN8@SerializeE:
  00059	5f		 pop	 edi

; 105  : 		}
; 106  : 	}
; 107  : }

  0005a	5e		 pop	 esi
  0005b	5b		 pop	 ebx
  0005c	5d		 pop	 ebp
  0005d	c2 0c 00	 ret	 12			; 0000000cH
$LN10@SerializeE:

; 97   : 		while( nElementsLeft > 0 )

  00060	85 f6		 test	 esi, esi
  00062	74 f5		 je	 SHORT $LN8@SerializeE
$LL7@SerializeE:

; 98   : 		{
; 99   : 			UINT nElementsToRead;
; 100  : 
; 101  : 			nElementsToRead = UINT(__min(nElementsLeft, INT_MAX/sizeof(TYPE)));

  00064	bf ff ff ff 1f	 mov	 edi, 536870911		; 1fffffffH
  00069	3b f7		 cmp	 esi, edi
  0006b	0f 42 fe	 cmovb	 edi, esi

; 102  : 			ar.EnsureRead(pData, nElementsToRead*sizeof(TYPE));

  0006e	8d 1c bd 00 00
	00 00		 lea	 ebx, DWORD PTR [edi*4]
; File C:\Program Files (x86)\Microsoft Visual Studio\2019\Community\VC\Tools\MSVC\14.29.30133\atlmfc\include\afx.inl

; 399  : 	UINT nRead=Read(lpBuf, nCount);

  00075	53		 push	 ebx
  00076	51		 push	 ecx
  00077	8b ca		 mov	 ecx, edx
  00079	e8 00 00 00 00	 call	 ?Read@CArchive@@QAEIPAXI@Z ; CArchive::Read

; 400  : 	if(nRead!=nCount)

  0007e	3b c3		 cmp	 eax, ebx
  00080	75 16		 jne	 SHORT $LN23@SerializeE
; File C:\Program Files (x86)\Microsoft Visual Studio\2019\Community\VC\Tools\MSVC\14.29.30133\atlmfc\include\afxtempl.h

; 97   : 		while( nElementsLeft > 0 )

  00082	8b 4d 0c	 mov	 ecx, DWORD PTR _pElements$[ebp]
  00085	8b 55 08	 mov	 edx, DWORD PTR _ar$[ebp]

; 103  : 			nElementsLeft -= nElementsToRead;
; 104  : 			pData += nElementsToRead;

  00088	03 cb		 add	 ecx, ebx
  0008a	89 4d 0c	 mov	 DWORD PTR _pElements$[ebp], ecx
  0008d	2b f7		 sub	 esi, edi
  0008f	75 d3		 jne	 SHORT $LL7@SerializeE

; 105  : 		}
; 106  : 	}
; 107  : }

  00091	5f		 pop	 edi
  00092	5e		 pop	 esi
  00093	5b		 pop	 ebx
  00094	5d		 pop	 ebp
  00095	c2 0c 00	 ret	 12			; 0000000cH
$LN23@SerializeE:
; File C:\Program Files (x86)\Microsoft Visual Studio\2019\Community\VC\Tools\MSVC\14.29.30133\atlmfc\include\afx.inl

; 402  : 		AfxThrowArchiveException(CArchiveException::endOfFile);

  00098	6a 00		 push	 0
  0009a	6a 03		 push	 3
  0009c	e8 00 00 00 00	 call	 ?AfxThrowArchiveException@@YGXHPBD@Z ; AfxThrowArchiveException
$LN34@SerializeE:
; File C:\Program Files (x86)\Microsoft Visual Studio\2019\Community\VC\Tools\MSVC\14.29.30133\atlmfc\include\afxtempl.h

; 68   : 	ENSURE(nCount == 0 || pElements != NULL);

  000a1	e8 00 00 00 00	 call	 ?AfxThrowInvalidArgException@@YGXXZ ; AfxThrowInvalidArgException
$LN32@SerializeE:
  000a6	cc		 int	 3
??$SerializeElements@PAVCDlgCompSubItem@@@@YGXAAVCArchive@@PAPAVCDlgCompSubItem@@H@Z ENDP ; SerializeElements<CDlgCompSubItem *>
_TEXT	ENDS
; Function compile flags: /Ogtp
; File D:\git\src\IBK\IBK_DRFN\ProjSrc\SrcDrfn\Chart\comparechart\CodeDataFromInputBar.cpp
; File C:\Program Files (x86)\Microsoft Visual Studio\2019\Community\VC\Tools\MSVC\14.29.30133\atlmfc\include\atlsimpstr.h
; File D:\git\src\IBK\IBK_DRFN\ProjSrc\SrcDrfn\Chart\comparechart\CodeDataFromInputBar.cpp
;	COMDAT ?DoCheckFirst@CDlgCompDataHandle@@UAGXXZ
_TEXT	SEGMENT
_szVersion$ = -8					; size = 4
_szSect$ = -4						; size = 4
_this$ = 8						; size = 4
?DoCheckFirst@CDlgCompDataHandle@@UAGXXZ PROC		; CDlgCompDataHandle::DoCheckFirst, COMDAT

; 70   : {

  00000	55		 push	 ebp
  00001	8b ec		 mov	 ebp, esp
  00003	83 ec 08	 sub	 esp, 8
  00006	57		 push	 edi

; 71   : 	CString szSect("Fluctuation");

  00007	68 00 00 00 00	 push	 OFFSET ??_C@_0M@NDFPFEGJ@Fluctuation@
  0000c	8d 4d fc	 lea	 ecx, DWORD PTR _szSect$[ebp]
  0000f	ff 15 00 00 00
	00		 call	 DWORD PTR __imp_??0?$CStringT@DV?$StrTraitMFC_DLL@DV?$ChTraitsCRT@D@ATL@@@@@ATL@@QAE@PBD@Z

; 72   : 	CString szVersion;

  00015	8d 4d f8	 lea	 ecx, DWORD PTR _szVersion$[ebp]
  00018	ff 15 00 00 00
	00		 call	 DWORD PTR __imp_??0?$CStringT@DV?$StrTraitMFC_DLL@DV?$ChTraitsCRT@D@ATL@@@@@ATL@@QAE@XZ

; 73   : 	szVersion.GetBuffer(MAX_PATH);

  0001e	68 04 01 00 00	 push	 260			; 00000104H
  00023	8d 4d f8	 lea	 ecx, DWORD PTR _szVersion$[ebp]
  00026	ff 15 00 00 00
	00		 call	 DWORD PTR __imp_?GetBuffer@?$CSimpleStringT@D$00@ATL@@QAEPADH@Z
; File C:\Program Files (x86)\Microsoft Visual Studio\2019\Community\VC\Tools\MSVC\14.29.30133\atlmfc\include\atlsimpstr.h

; 377  : 		return( m_pszData );

  0002c	8b 7d 08	 mov	 edi, DWORD PTR _this$[ebp]
; File D:\git\src\IBK\IBK_DRFN\ProjSrc\SrcDrfn\Chart\comparechart\CodeDataFromInputBar.cpp

; 74   : 	::GetPrivateProfileString(szSect, "version", "", (LPSTR)(LPCSTR)szVersion, MAX_PATH, m_szDataFile);

  0002f	ff 77 04	 push	 DWORD PTR [edi+4]
  00032	68 04 01 00 00	 push	 260			; 00000104H
  00037	ff 75 f8	 push	 DWORD PTR _szVersion$[ebp]
  0003a	68 00 00 00 00	 push	 OFFSET ??_C@_00CNPNBAHC@@
  0003f	68 00 00 00 00	 push	 OFFSET ??_C@_07CPCPJPKL@version@
  00044	ff 75 fc	 push	 DWORD PTR _szSect$[ebp]
  00047	ff 15 00 00 00
	00		 call	 DWORD PTR __imp__GetPrivateProfileStringA@24

; 75   : 	szVersion.ReleaseBuffer();

  0004d	6a ff		 push	 -1
  0004f	8d 4d f8	 lea	 ecx, DWORD PTR _szVersion$[ebp]
  00052	ff 15 00 00 00
	00		 call	 DWORD PTR __imp_?ReleaseBuffer@?$CSimpleStringT@D$00@ATL@@QAEXH@Z

; 76   : 
; 77   : 	if(szVersion.CompareNoCase("0806171")<0)

  00058	68 00 00 00 00	 push	 OFFSET ??_C@_07BGJLJDG@0806171@
  0005d	8d 4d f8	 lea	 ecx, DWORD PTR _szVersion$[ebp]
  00060	ff 15 00 00 00
	00		 call	 DWORD PTR __imp_?CompareNoCase@?$CStringT@DV?$StrTraitMFC_DLL@DV?$ChTraitsCRT@D@ATL@@@@@ATL@@QBEHPBD@Z
  00066	85 c0		 test	 eax, eax
  00068	0f 89 dc 00 00
	00		 jns	 $LN2@DoCheckFir

; 78   : 	{
; 79   : 		WritePrivateProfileString(szSect, "nGroupCnt"	, "1", m_szDataFile);

  0006e	56		 push	 esi
  0006f	ff 77 04	 push	 DWORD PTR [edi+4]
  00072	8b 35 00 00 00
	00		 mov	 esi, DWORD PTR __imp__WritePrivateProfileStringA@16
  00078	68 00 00 00 00	 push	 OFFSET ??_C@_01HIHLOKLC@1@
  0007d	68 00 00 00 00	 push	 OFFSET ??_C@_09NIKFLGND@nGroupCnt@
  00082	ff 75 fc	 push	 DWORD PTR _szSect$[ebp]
  00085	ff d6		 call	 esi

; 80   : 		WritePrivateProfileString(szSect, "SelectGroup"	, "기본그룹", m_szDataFile);

  00087	ff 77 04	 push	 DWORD PTR [edi+4]
  0008a	68 00 00 00 00	 push	 OFFSET ??_C@_08NHOKBKDK@?$LB?b?$LK?$LL?$LB?W?$LH?l@
  0008f	68 00 00 00 00	 push	 OFFSET ??_C@_0M@PKCPEFAA@SelectGroup@
  00094	ff 75 fc	 push	 DWORD PTR _szSect$[ebp]
  00097	ff d6		 call	 esi

; 81   : 		WritePrivateProfileString(szSect, "bShowAll"	, "1", m_szDataFile);

  00099	ff 77 04	 push	 DWORD PTR [edi+4]
  0009c	68 00 00 00 00	 push	 OFFSET ??_C@_01HIHLOKLC@1@
  000a1	68 00 00 00 00	 push	 OFFSET ??_C@_08BBOOBMDD@bShowAll@
  000a6	ff 75 fc	 push	 DWORD PTR _szSect$[ebp]
  000a9	ff d6		 call	 esi

; 82   : 
; 83   : 		szSect = "FGroup00";

  000ab	68 00 00 00 00	 push	 OFFSET ??_C@_08LEFDDKOF@FGroup00@
  000b0	8d 4d fc	 lea	 ecx, DWORD PTR _szSect$[ebp]
  000b3	ff 15 00 00 00
	00		 call	 DWORD PTR __imp_??4?$CStringT@DV?$StrTraitMFC_DLL@DV?$ChTraitsCRT@D@ATL@@@@@ATL@@QAEAAV01@PBD@Z

; 84   : 		WritePrivateProfileString(szSect, "nItemCnt"	, "2"		, m_szDataFile);

  000b9	ff 77 04	 push	 DWORD PTR [edi+4]
  000bc	68 00 00 00 00	 push	 OFFSET ??_C@_01FDFGLJHB@2@
  000c1	68 00 00 00 00	 push	 OFFSET ??_C@_08BKICBMIH@nItemCnt@
  000c6	ff 75 fc	 push	 DWORD PTR _szSect$[ebp]
  000c9	ff d6		 call	 esi

; 85   : 		WritePrivateProfileString(szSect, "szGroupName"	, "기본그룹", m_szDataFile);

  000cb	ff 77 04	 push	 DWORD PTR [edi+4]
  000ce	68 00 00 00 00	 push	 OFFSET ??_C@_08NHOKBKDK@?$LB?b?$LK?$LL?$LB?W?$LH?l@
  000d3	68 00 00 00 00	 push	 OFFSET ??_C@_0M@OJCFGGOM@szGroupName@
  000d8	ff 75 fc	 push	 DWORD PTR _szSect$[ebp]
  000db	ff d6		 call	 esi

; 86   : 
; 87   : 		WritePrivateProfileString(szSect, "szCode00"	, "001"		, m_szDataFile);

  000dd	ff 77 04	 push	 DWORD PTR [edi+4]
  000e0	68 00 00 00 00	 push	 OFFSET ??_C@_03MMKGDKGA@001@
  000e5	68 00 00 00 00	 push	 OFFSET ??_C@_08PKGOEOKN@szCode00@
  000ea	ff 75 fc	 push	 DWORD PTR _szSect$[ebp]
  000ed	ff d6		 call	 esi

; 88   : 		WritePrivateProfileString(szSect, "szCodeName00", "종합"	, m_szDataFile);

  000ef	ff 77 04	 push	 DWORD PTR [edi+4]
  000f2	68 00 00 00 00	 push	 OFFSET ??_C@_04HIKKEBLP@?A?$LO?G?U@
  000f7	68 00 00 00 00	 push	 OFFSET ??_C@_0N@IOOBCLLD@szCodeName00@
  000fc	ff 75 fc	 push	 DWORD PTR _szSect$[ebp]
  000ff	ff d6		 call	 esi

; 89   : 		WritePrivateProfileString(szSect, "clr00"		, "255"		, m_szDataFile);

  00101	ff 77 04	 push	 DWORD PTR [edi+4]
  00104	68 00 00 00 00	 push	 OFFSET ??_C@_03EAIPFAE@255@
  00109	68 00 00 00 00	 push	 OFFSET ??_C@_05KGIEACJA@clr00@
  0010e	ff 75 fc	 push	 DWORD PTR _szSect$[ebp]
  00111	ff d6		 call	 esi

; 90   : 
; 91   : 		WritePrivateProfileString(szSect, "szCode01"	, "301"			, m_szDataFile);

  00113	ff 77 04	 push	 DWORD PTR [edi+4]
  00116	68 00 00 00 00	 push	 OFFSET ??_C@_03NOBDJFIO@301@
  0011b	68 00 00 00 00	 push	 OFFSET ??_C@_08ODHFHPOM@szCode01@
  00120	ff 75 fc	 push	 DWORD PTR _szSect$[ebp]
  00123	ff d6		 call	 esi

; 92   : 		WritePrivateProfileString(szSect, "szCodeName01", "코스닥종합"	, m_szDataFile);

  00125	ff 77 04	 push	 DWORD PTR [edi+4]
  00128	68 00 00 00 00	 push	 OFFSET ??_C@_0L@BFMOPOGD@?D?Z?$LN?$LK?$LE?Z?A?$LO?G?U@
  0012d	68 00 00 00 00	 push	 OFFSET ??_C@_0N@JHPKBKPC@szCodeName01@
  00132	ff 75 fc	 push	 DWORD PTR _szSect$[ebp]
  00135	ff d6		 call	 esi

; 93   : 		WritePrivateProfileString(szSect, "clr01"		, "16711680"	, m_szDataFile);

  00137	ff 77 04	 push	 DWORD PTR [edi+4]
  0013a	68 00 00 00 00	 push	 OFFSET ??_C@_08HNMDJOHO@16711680@
  0013f	68 00 00 00 00	 push	 OFFSET ??_C@_05LPJPDDNB@clr01@
  00144	ff 75 fc	 push	 DWORD PTR _szSect$[ebp]
  00147	ff d6		 call	 esi
  00149	5e		 pop	 esi
$LN2@DoCheckFir:

; 94   : 	}
; 95   : }

  0014a	8d 4d f8	 lea	 ecx, DWORD PTR _szVersion$[ebp]
  0014d	ff 15 00 00 00
	00		 call	 DWORD PTR __imp_??1?$CStringT@DV?$StrTraitMFC_DLL@DV?$ChTraitsCRT@D@ATL@@@@@ATL@@QAE@XZ
  00153	8d 4d fc	 lea	 ecx, DWORD PTR _szSect$[ebp]
  00156	ff 15 00 00 00
	00		 call	 DWORD PTR __imp_??1?$CStringT@DV?$StrTraitMFC_DLL@DV?$ChTraitsCRT@D@ATL@@@@@ATL@@QAE@XZ
  0015c	5f		 pop	 edi
  0015d	8b e5		 mov	 esp, ebp
  0015f	5d		 pop	 ebp
  00160	c2 04 00	 ret	 4
?DoCheckFirst@CDlgCompDataHandle@@UAGXXZ ENDP		; CDlgCompDataHandle::DoCheckFirst
_TEXT	ENDS
; Function compile flags: /Ogtp
; File D:\git\src\IBK\IBK_DRFN\ProjSrc\SrcDrfn\Chart\comparechart\CodeDataFromInputBar.cpp
; File C:\Program Files (x86)\Microsoft Visual Studio\2019\Community\VC\Tools\MSVC\14.29.30133\atlmfc\include\afxtempl.h
; File D:\git\src\IBK\IBK_DRFN\ProjSrc\SrcDrfn\Chart\comparechart\CodeDataFromInputBar.cpp
; File C:\Program Files (x86)\Microsoft Visual Studio\2019\Community\VC\Tools\MSVC\14.29.30133\atlmfc\include\afxtempl.h
; File D:\git\src\IBK\IBK_DRFN\ProjSrc\SrcDrfn\Chart\comparechart\CodeDataFromInputBar.cpp
; File C:\Program Files (x86)\Microsoft Visual Studio\2019\Community\VC\Tools\MSVC\14.29.30133\atlmfc\include\afxtempl.h
; File D:\git\src\IBK\IBK_DRFN\ProjSrc\SrcDrfn\Chart\comparechart\CodeDataFromInputBar.cpp
; File C:\Program Files (x86)\Microsoft Visual Studio\2019\Community\VC\Tools\MSVC\14.29.30133\atlmfc\include\afxtempl.h
; File D:\git\src\IBK\IBK_DRFN\ProjSrc\SrcDrfn\Chart\comparechart\CodeDataFromInputBar.cpp
; File C:\Program Files (x86)\Microsoft Visual Studio\2019\Community\VC\Tools\MSVC\14.29.30133\atlmfc\include\afxtempl.h
; File D:\git\src\IBK\IBK_DRFN\ProjSrc\SrcDrfn\Chart\comparechart\CodeDataFromInputBar.cpp
; File C:\Program Files (x86)\Microsoft Visual Studio\2019\Community\VC\Tools\MSVC\14.29.30133\atlmfc\include\afxtempl.h
; File D:\git\src\IBK\IBK_DRFN\ProjSrc\SrcDrfn\Chart\comparechart\CodeDataFromInputBar.cpp
; File C:\Program Files (x86)\Microsoft Visual Studio\2019\Community\VC\Tools\MSVC\14.29.30133\atlmfc\include\afxtempl.h
; File D:\git\src\IBK\IBK_DRFN\ProjSrc\SrcDrfn\Chart\comparechart\CodeDataFromInputBar.cpp
; File C:\Program Files (x86)\Microsoft Visual Studio\2019\Community\VC\Tools\MSVC\14.29.30133\atlmfc\include\afxtempl.h
; File D:\git\src\IBK\IBK_DRFN\ProjSrc\SrcDrfn\Chart\comparechart\CodeDataFromInputBar.cpp
;	COMDAT ?CopyGroupList@CDlgCompDataHandle@@UAGHJJ@Z
_TEXT	SEGMENT
_pos$1$ = -4						; size = 4
_pPrev$1$ = 8						; size = 4
_this$ = 8						; size = 4
_JPos$1$ = 12						; size = 4
__pOrg$ = 12						; size = 4
__pTarget$ = 16						; size = 4
?CopyGroupList@CDlgCompDataHandle@@UAGHJJ@Z PROC	; CDlgCompDataHandle::CopyGroupList, COMDAT

; 377  : {

  00000	55		 push	 ebp
  00001	8b ec		 mov	 ebp, esp
  00003	51		 push	 ecx

; 378  : 	ClearGroupList(_pTarget);

  00004	8b 45 08	 mov	 eax, DWORD PTR _this$[ebp]
  00007	53		 push	 ebx
  00008	8b 5d 10	 mov	 ebx, DWORD PTR __pTarget$[ebp]
  0000b	53		 push	 ebx
  0000c	8b 08		 mov	 ecx, DWORD PTR [eax]
  0000e	50		 push	 eax
  0000f	ff 51 1c	 call	 DWORD PTR [ecx+28]

; 379  : 	List_CDlgCompGroupData* pOrg = (List_CDlgCompGroupData*)_pOrg;
; 380  : 	List_CDlgCompGroupData* pTarget = (List_CDlgCompGroupData*)_pTarget;
; 381  : 
; 382  : 	if(pOrg==NULL || pOrg==NULL) return 0;

  00012	8b 45 0c	 mov	 eax, DWORD PTR __pOrg$[ebp]
  00015	85 c0		 test	 eax, eax
  00017	0f 84 79 01 00
	00		 je	 $LN9@CopyGroupL

; 383  : 
; 384  : 	for(POSITION pos=pOrg->GetHeadPosition(); pos; )

  0001d	8b 48 04	 mov	 ecx, DWORD PTR [eax+4]
  00020	85 c9		 test	 ecx, ecx
  00022	0f 84 64 01 00
	00		 je	 $LN58@CopyGroupL
  00028	56		 push	 esi
  00029	57		 push	 edi
  0002a	66 0f 1f 44 00
	00		 npad	 6
$LL2@CopyGroupL:

; 385  : 	{
; 386  : 		CDlgCompGroupData* pGroupData = pOrg->GetNext(pos);

  00030	8b 79 08	 mov	 edi, DWORD PTR [ecx+8]
; File C:\Program Files (x86)\Microsoft Visual Studio\2019\Community\VC\Tools\MSVC\14.29.30133\atlmfc\include\afxtempl.h

; 813  : 		rPosition = (POSITION) pNode->pNext;

  00033	8b 09		 mov	 ecx, DWORD PTR [ecx]
; File D:\git\src\IBK\IBK_DRFN\ProjSrc\SrcDrfn\Chart\comparechart\CodeDataFromInputBar.cpp

; 387  : 		CDlgCompGroupData* pNewGroup = new CDlgCompGroupData;

  00035	6a 20		 push	 32			; 00000020H
; File C:\Program Files (x86)\Microsoft Visual Studio\2019\Community\VC\Tools\MSVC\14.29.30133\atlmfc\include\afxtempl.h

; 813  : 		rPosition = (POSITION) pNode->pNext;

  00037	89 4d fc	 mov	 DWORD PTR _pos$1$[ebp], ecx
; File D:\git\src\IBK\IBK_DRFN\ProjSrc\SrcDrfn\Chart\comparechart\CodeDataFromInputBar.cpp

; 387  : 		CDlgCompGroupData* pNewGroup = new CDlgCompGroupData;

  0003a	e8 00 00 00 00	 call	 ??2@YAPAXI@Z		; operator new
  0003f	8b f0		 mov	 esi, eax
  00041	83 c4 04	 add	 esp, 4
  00044	85 f6		 test	 esi, esi
  00046	74 3b		 je	 SHORT $LN11@CopyGroupL
  00048	8b ce		 mov	 ecx, esi
  0004a	ff 15 00 00 00
	00		 call	 DWORD PTR __imp_??0?$CStringT@DV?$StrTraitMFC_DLL@DV?$ChTraitsCRT@D@ATL@@@@@ATL@@QAE@XZ
; File C:\Program Files (x86)\Microsoft Visual Studio\2019\Community\VC\Tools\MSVC\14.29.30133\atlmfc\include\afxtempl.h

; 851  : {

  00050	c7 46 04 00 00
	00 00		 mov	 DWORD PTR [esi+4], OFFSET ??_7?$CList@PAVCDlgCompSubItem@@PAV1@@@6B@

; 852  : 	ASSERT(nBlockSize > 0);
; 853  : 
; 854  : 	m_nCount = 0;

  00057	c7 46 10 00 00
	00 00		 mov	 DWORD PTR [esi+16], 0

; 855  : 	m_pNodeHead = m_pNodeTail = m_pNodeFree = NULL;

  0005e	c7 46 14 00 00
	00 00		 mov	 DWORD PTR [esi+20], 0
  00065	c7 46 0c 00 00
	00 00		 mov	 DWORD PTR [esi+12], 0
  0006c	c7 46 08 00 00
	00 00		 mov	 DWORD PTR [esi+8], 0

; 856  : 	m_pBlocks = NULL;

  00073	c7 46 18 00 00
	00 00		 mov	 DWORD PTR [esi+24], 0

; 857  : 	m_nBlockSize = nBlockSize;

  0007a	c7 46 1c 0a 00
	00 00		 mov	 DWORD PTR [esi+28], 10	; 0000000aH
; File D:\git\src\IBK\IBK_DRFN\ProjSrc\SrcDrfn\Chart\comparechart\CodeDataFromInputBar.cpp

; 387  : 		CDlgCompGroupData* pNewGroup = new CDlgCompGroupData;

  00081	eb 02		 jmp	 SHORT $LN12@CopyGroupL
$LN11@CopyGroupL:
  00083	33 f6		 xor	 esi, esi
$LN12@CopyGroupL:

; 388  : 		pNewGroup->m_szGroupName = pGroupData->m_szGroupName;

  00085	57		 push	 edi
  00086	8b ce		 mov	 ecx, esi
  00088	ff 15 00 00 00
	00		 call	 DWORD PTR __imp_??4?$CStringT@DV?$StrTraitMFC_DLL@DV?$ChTraitsCRT@D@ATL@@@@@ATL@@QAEAAV01@ABV01@@Z

; 390  : 		for(POSITION JPos=pGroupData->m_ItemList.GetHeadPosition(); JPos; )

  0008e	8b 4f 08	 mov	 ecx, DWORD PTR [edi+8]
  00091	85 c9		 test	 ecx, ecx
  00093	0f 84 de 00 00
	00		 je	 $LN6@CopyGroupL
  00099	0f 1f 80 00 00
	00 00		 npad	 7
$LL5@CopyGroupL:

; 391  : 		{
; 392  : 			CDlgCompSubItem* pSubItem = pGroupData->m_ItemList.GetNext(JPos);

  000a0	8b 79 08	 mov	 edi, DWORD PTR [ecx+8]
; File C:\Program Files (x86)\Microsoft Visual Studio\2019\Community\VC\Tools\MSVC\14.29.30133\atlmfc\include\afxtempl.h

; 813  : 		rPosition = (POSITION) pNode->pNext;

  000a3	8b 09		 mov	 ecx, DWORD PTR [ecx]
; File D:\git\src\IBK\IBK_DRFN\ProjSrc\SrcDrfn\Chart\comparechart\CodeDataFromInputBar.cpp

; 393  : 			CDlgCompSubItem* pNewSub = new CDlgCompSubItem;

  000a5	6a 14		 push	 20			; 00000014H
; File C:\Program Files (x86)\Microsoft Visual Studio\2019\Community\VC\Tools\MSVC\14.29.30133\atlmfc\include\afxtempl.h

; 813  : 		rPosition = (POSITION) pNode->pNext;

  000a7	89 4d 0c	 mov	 DWORD PTR _JPos$1$[ebp], ecx
; File D:\git\src\IBK\IBK_DRFN\ProjSrc\SrcDrfn\Chart\comparechart\CodeDataFromInputBar.cpp

; 393  : 			CDlgCompSubItem* pNewSub = new CDlgCompSubItem;

  000aa	e8 00 00 00 00	 call	 ??2@YAPAXI@Z		; operator new
  000af	8b d8		 mov	 ebx, eax
  000b1	83 c4 04	 add	 esp, 4
  000b4	85 db		 test	 ebx, ebx
  000b6	74 13		 je	 SHORT $LN13@CopyGroupL
  000b8	8b cb		 mov	 ecx, ebx
  000ba	ff 15 00 00 00
	00		 call	 DWORD PTR __imp_??0?$CStringT@DV?$StrTraitMFC_DLL@DV?$ChTraitsCRT@D@ATL@@@@@ATL@@QAE@XZ
  000c0	8d 4b 04	 lea	 ecx, DWORD PTR [ebx+4]
  000c3	ff 15 00 00 00
	00		 call	 DWORD PTR __imp_??0?$CStringT@DV?$StrTraitMFC_DLL@DV?$ChTraitsCRT@D@ATL@@@@@ATL@@QAE@XZ
  000c9	eb 02		 jmp	 SHORT $LN14@CopyGroupL
$LN13@CopyGroupL:
  000cb	33 db		 xor	 ebx, ebx
$LN14@CopyGroupL:

; 394  : 
; 395  : 			pNewSub->m_szCode		= pSubItem->m_szCode;

  000cd	57		 push	 edi
  000ce	8b cb		 mov	 ecx, ebx
  000d0	ff 15 00 00 00
	00		 call	 DWORD PTR __imp_??4?$CStringT@DV?$StrTraitMFC_DLL@DV?$ChTraitsCRT@D@ATL@@@@@ATL@@QAEAAV01@ABV01@@Z

; 396  : 			pNewSub->m_szCodeName	= pSubItem->m_szCodeName;

  000d6	8d 47 04	 lea	 eax, DWORD PTR [edi+4]
  000d9	50		 push	 eax
  000da	8d 4b 04	 lea	 ecx, DWORD PTR [ebx+4]
  000dd	ff 15 00 00 00
	00		 call	 DWORD PTR __imp_??4?$CStringT@DV?$StrTraitMFC_DLL@DV?$ChTraitsCRT@D@ATL@@@@@ATL@@QAEAAV01@ABV01@@Z

; 397  : 			pNewSub->m_clr			= pSubItem->m_clr;

  000e3	8b 47 08	 mov	 eax, DWORD PTR [edi+8]
  000e6	89 43 08	 mov	 DWORD PTR [ebx+8], eax

; 398  : 			pNewSub->m_nDrawStyle	= pSubItem->m_nDrawStyle;

  000e9	8b 47 0c	 mov	 eax, DWORD PTR [edi+12]
  000ec	89 43 0c	 mov	 DWORD PTR [ebx+12], eax

; 399  : 			pNewSub->m_nThickness	= pSubItem->m_nThickness;

  000ef	8b 47 10	 mov	 eax, DWORD PTR [edi+16]
  000f2	89 43 10	 mov	 DWORD PTR [ebx+16], eax
; File C:\Program Files (x86)\Microsoft Visual Studio\2019\Community\VC\Tools\MSVC\14.29.30133\atlmfc\include\afxtempl.h

; 902  : 	if (m_pNodeFree == NULL)

  000f5	8b 56 14	 mov	 edx, DWORD PTR [esi+20]

; 968  : 	CNode* pNewNode = NewNode(m_pNodeTail, NULL);

  000f8	8b 46 0c	 mov	 eax, DWORD PTR [esi+12]
  000fb	89 45 08	 mov	 DWORD PTR _pPrev$1$[ebp], eax

; 902  : 	if (m_pNodeFree == NULL)

  000fe	85 d2		 test	 edx, edx
  00100	75 3f		 jne	 SHORT $LN56@CopyGroupL

; 903  : 	{
; 904  : 		// add another block
; 905  : 		CPlex* pNewBlock = CPlex::Create(m_pBlocks, m_nBlockSize,

  00102	6a 0c		 push	 12			; 0000000cH
  00104	ff 76 1c	 push	 DWORD PTR [esi+28]
  00107	8d 46 18	 lea	 eax, DWORD PTR [esi+24]
  0010a	50		 push	 eax
  0010b	e8 00 00 00 00	 call	 ?Create@CPlex@@SGPAU1@AAPAU1@II@Z ; CPlex::Create

; 906  : 				 sizeof(CNode));
; 907  : 
; 908  : 		// chain them into free list
; 909  : 		CNode* pNode = (CNode*) pNewBlock->data();
; 910  : 		// free in reverse order to make it easier to debug
; 911  : 		pNode += m_nBlockSize - 1;

  00110	8b 56 1c	 mov	 edx, DWORD PTR [esi+28]
  00113	83 c0 08	 add	 eax, 8
  00116	8d 4a ff	 lea	 ecx, DWORD PTR [edx-1]

; 912  : 		for (INT_PTR i = m_nBlockSize-1; i >= 0; i--, pNode--)

  00119	8d 7a ff	 lea	 edi, DWORD PTR [edx-1]
  0011c	8d 0c 49	 lea	 ecx, DWORD PTR [ecx+ecx*2]
  0011f	8d 0c 88	 lea	 ecx, DWORD PTR [eax+ecx*4]
  00122	85 ff		 test	 edi, edi
  00124	78 14		 js	 SHORT $LN57@CopyGroupL
$LL33@CopyGroupL:

; 913  : 		{
; 914  : 			pNode->pNext = m_pNodeFree;

  00126	8b 46 14	 mov	 eax, DWORD PTR [esi+20]
  00129	8b d1		 mov	 edx, ecx
  0012b	89 01		 mov	 DWORD PTR [ecx], eax

; 915  : 			m_pNodeFree = pNode;

  0012d	89 4e 14	 mov	 DWORD PTR [esi+20], ecx
  00130	83 e9 0c	 sub	 ecx, 12			; 0000000cH
  00133	83 ef 01	 sub	 edi, 1
  00136	79 ee		 jns	 SHORT $LL33@CopyGroupL
  00138	eb 03		 jmp	 SHORT $LN36@CopyGroupL
$LN57@CopyGroupL:
  0013a	8b 56 14	 mov	 edx, DWORD PTR [esi+20]
$LN36@CopyGroupL:

; 918  : 	ENSURE(m_pNodeFree != NULL);  // we must have something

  0013d	85 d2		 test	 edx, edx
  0013f	74 5e		 je	 SHORT $LN45@CopyGroupL
$LN56@CopyGroupL:

; 919  : 
; 920  : 	CList::CNode* pNode = m_pNodeFree;
; 921  : 	m_pNodeFree = m_pNodeFree->pNext;

  00141	8b 02		 mov	 eax, DWORD PTR [edx]
  00143	89 46 14	 mov	 DWORD PTR [esi+20], eax

; 922  : 	pNode->pPrev = pPrev;

  00146	8b 45 08	 mov	 eax, DWORD PTR _pPrev$1$[ebp]
  00149	89 42 04	 mov	 DWORD PTR [edx+4], eax

; 923  : 	pNode->pNext = pNext;

  0014c	c7 02 00 00 00
	00		 mov	 DWORD PTR [edx], 0

; 924  : 	m_nCount++;

  00152	ff 46 10	 inc	 DWORD PTR [esi+16]

; 969  : 	pNewNode->data = newElement;

  00155	89 5a 08	 mov	 DWORD PTR [edx+8], ebx

; 970  : 	if (m_pNodeTail != NULL)

  00158	8b 46 0c	 mov	 eax, DWORD PTR [esi+12]
  0015b	85 c0		 test	 eax, eax
  0015d	74 04		 je	 SHORT $LN27@CopyGroupL

; 971  : 		m_pNodeTail->pNext = pNewNode;

  0015f	89 10		 mov	 DWORD PTR [eax], edx
  00161	eb 03		 jmp	 SHORT $LN28@CopyGroupL
$LN27@CopyGroupL:

; 972  : 	else
; 973  : 		m_pNodeHead = pNewNode;

  00163	89 56 08	 mov	 DWORD PTR [esi+8], edx
$LN28@CopyGroupL:
; File D:\git\src\IBK\IBK_DRFN\ProjSrc\SrcDrfn\Chart\comparechart\CodeDataFromInputBar.cpp

; 390  : 		for(POSITION JPos=pGroupData->m_ItemList.GetHeadPosition(); JPos; )

  00166	8b 4d 0c	 mov	 ecx, DWORD PTR _JPos$1$[ebp]
; File C:\Program Files (x86)\Microsoft Visual Studio\2019\Community\VC\Tools\MSVC\14.29.30133\atlmfc\include\afxtempl.h

; 974  : 	m_pNodeTail = pNewNode;

  00169	89 56 0c	 mov	 DWORD PTR [esi+12], edx
; File D:\git\src\IBK\IBK_DRFN\ProjSrc\SrcDrfn\Chart\comparechart\CodeDataFromInputBar.cpp

; 390  : 		for(POSITION JPos=pGroupData->m_ItemList.GetHeadPosition(); JPos; )

  0016c	85 c9		 test	 ecx, ecx
  0016e	0f 85 2c ff ff
	ff		 jne	 $LL5@CopyGroupL
  00174	8b 5d 10	 mov	 ebx, DWORD PTR __pTarget$[ebp]
$LN6@CopyGroupL:

; 400  : 
; 401  : 			pNewGroup->m_ItemList.AddTail(pNewSub);
; 402  : 		}
; 403  : 		pTarget->AddTail(pNewGroup);

  00177	56		 push	 esi
  00178	8b cb		 mov	 ecx, ebx
  0017a	e8 00 00 00 00	 call	 ?AddTail@?$CList@PAVCDlgCompGroupData@@PAV1@@@QAEPAU__POSITION@@PAVCDlgCompGroupData@@@Z ; CList<CDlgCompGroupData *,CDlgCompGroupData *>::AddTail
  0017f	8b 4d fc	 mov	 ecx, DWORD PTR _pos$1$[ebp]
  00182	85 c9		 test	 ecx, ecx
  00184	0f 85 a6 fe ff
	ff		 jne	 $LL2@CopyGroupL
  0018a	5f		 pop	 edi
  0018b	5e		 pop	 esi
$LN58@CopyGroupL:

; 404  : 	}
; 405  : 	return pTarget->GetCount();

  0018c	8b 43 0c	 mov	 eax, DWORD PTR [ebx+12]
  0018f	5b		 pop	 ebx

; 406  : }

  00190	8b e5		 mov	 esp, ebp
  00192	5d		 pop	 ebp
  00193	c2 0c 00	 ret	 12			; 0000000cH
$LN9@CopyGroupL:

; 379  : 	List_CDlgCompGroupData* pOrg = (List_CDlgCompGroupData*)_pOrg;
; 380  : 	List_CDlgCompGroupData* pTarget = (List_CDlgCompGroupData*)_pTarget;
; 381  : 
; 382  : 	if(pOrg==NULL || pOrg==NULL) return 0;

  00196	33 c0		 xor	 eax, eax
  00198	5b		 pop	 ebx

; 406  : }

  00199	8b e5		 mov	 esp, ebp
  0019b	5d		 pop	 ebp
  0019c	c2 0c 00	 ret	 12			; 0000000cH
$LN45@CopyGroupL:
; File C:\Program Files (x86)\Microsoft Visual Studio\2019\Community\VC\Tools\MSVC\14.29.30133\atlmfc\include\afxtempl.h

; 918  : 	ENSURE(m_pNodeFree != NULL);  // we must have something

  0019f	e8 00 00 00 00	 call	 ?AfxThrowInvalidArgException@@YGXXZ ; AfxThrowInvalidArgException
$LN61@CopyGroupL:
  001a4	cc		 int	 3
?CopyGroupList@CDlgCompDataHandle@@UAGHJJ@Z ENDP	; CDlgCompDataHandle::CopyGroupList
_TEXT	ENDS
; Function compile flags: /Ogtp
; File D:\git\src\IBK\IBK_DRFN\ProjSrc\SrcDrfn\Chart\comparechart\CodeDataFromInputBar.cpp
; File C:\Program Files (x86)\Microsoft Visual Studio\2019\Community\VC\Tools\MSVC\14.29.30133\atlmfc\include\afxtempl.h
; File D:\git\src\IBK\IBK_DRFN\ProjSrc\SrcDrfn\Chart\comparechart\CodeDataFromInputBar.cpp
; File C:\Program Files (x86)\Microsoft Visual Studio\2019\Community\VC\Tools\MSVC\14.29.30133\atlmfc\include\afxtempl.h
; File D:\git\src\IBK\IBK_DRFN\ProjSrc\SrcDrfn\Chart\comparechart\CodeDataFromInputBar.cpp
; File C:\Program Files (x86)\Microsoft Visual Studio\2019\Community\VC\Tools\MSVC\14.29.30133\atlmfc\include\afxtempl.h
; File D:\git\src\IBK\IBK_DRFN\ProjSrc\SrcDrfn\Chart\comparechart\CodeDataFromInputBar.cpp
; File C:\Program Files (x86)\Microsoft Visual Studio\2019\Community\VC\Tools\MSVC\14.29.30133\atlmfc\include\afxtempl.h
; File D:\git\src\IBK\IBK_DRFN\ProjSrc\SrcDrfn\Chart\comparechart\CodeDataFromInputBar.cpp
;	COMDAT ?ClearGroupList@CDlgCompDataHandle@@UAGXJ@Z
_TEXT	SEGMENT
_pos$1$ = -16						; size = 4
__$EHRec$ = -12						; size = 12
_this$ = 8						; size = 4
__pGroupList$ = 12					; size = 4
?ClearGroupList@CDlgCompDataHandle@@UAGXJ@Z PROC	; CDlgCompDataHandle::ClearGroupList, COMDAT

; 358  : {

  00000	55		 push	 ebp
  00001	8b ec		 mov	 ebp, esp
  00003	6a ff		 push	 -1
  00005	68 00 00 00 00	 push	 __ehhandler$?ClearGroupList@CDlgCompDataHandle@@UAGXJ@Z
  0000a	64 a1 00 00 00
	00		 mov	 eax, DWORD PTR fs:0
  00010	50		 push	 eax
  00011	51		 push	 ecx
  00012	53		 push	 ebx
  00013	56		 push	 esi
  00014	57		 push	 edi
  00015	a1 00 00 00 00	 mov	 eax, DWORD PTR ___security_cookie
  0001a	33 c5		 xor	 eax, ebp
  0001c	50		 push	 eax
  0001d	8d 45 f4	 lea	 eax, DWORD PTR __$EHRec$[ebp]
  00020	64 a3 00 00 00
	00		 mov	 DWORD PTR fs:0, eax

; 360  : 	for(POSITION pos=pGroupList->GetHeadPosition(); pos; )

  00026	8b 5d 0c	 mov	 ebx, DWORD PTR __pGroupList$[ebp]
  00029	8b 4b 04	 mov	 ecx, DWORD PTR [ebx+4]
  0002c	85 c9		 test	 ecx, ecx
  0002e	0f 84 c4 00 00
	00		 je	 $LN44@ClearGroup
$LL2@ClearGroup:

; 361  : 	{
; 362  : 		CDlgCompGroupData* pGroupData = pGroupList->GetNext(pos);

  00034	8b 59 08	 mov	 ebx, DWORD PTR [ecx+8]
; File C:\Program Files (x86)\Microsoft Visual Studio\2019\Community\VC\Tools\MSVC\14.29.30133\atlmfc\include\afxtempl.h

; 813  : 		rPosition = (POSITION) pNode->pNext;

  00037	8b 09		 mov	 ecx, DWORD PTR [ecx]
  00039	89 4d f0	 mov	 DWORD PTR _pos$1$[ebp], ecx
; File D:\git\src\IBK\IBK_DRFN\ProjSrc\SrcDrfn\Chart\comparechart\CodeDataFromInputBar.cpp

; 364  : 		for(POSITION JPos=pGroupData->m_ItemList.GetHeadPosition(); JPos; )

  0003c	8b 73 08	 mov	 esi, DWORD PTR [ebx+8]
  0003f	85 f6		 test	 esi, esi
  00041	74 29		 je	 SHORT $LN25@ClearGroup
$LL5@ClearGroup:

; 367  : 			delete pSubItem;

  00043	8b 7e 08	 mov	 edi, DWORD PTR [esi+8]
; File C:\Program Files (x86)\Microsoft Visual Studio\2019\Community\VC\Tools\MSVC\14.29.30133\atlmfc\include\afxtempl.h

; 813  : 		rPosition = (POSITION) pNode->pNext;

  00046	8b 36		 mov	 esi, DWORD PTR [esi]
; File D:\git\src\IBK\IBK_DRFN\ProjSrc\SrcDrfn\Chart\comparechart\CodeDataFromInputBar.cpp

; 367  : 			delete pSubItem;

  00048	85 ff		 test	 edi, edi
  0004a	74 1c		 je	 SHORT $LN18@ClearGroup
  0004c	8d 4f 04	 lea	 ecx, DWORD PTR [edi+4]
  0004f	ff 15 00 00 00
	00		 call	 DWORD PTR __imp_??1?$CStringT@DV?$StrTraitMFC_DLL@DV?$ChTraitsCRT@D@ATL@@@@@ATL@@QAE@XZ
  00055	8b cf		 mov	 ecx, edi
  00057	ff 15 00 00 00
	00		 call	 DWORD PTR __imp_??1?$CStringT@DV?$StrTraitMFC_DLL@DV?$ChTraitsCRT@D@ATL@@@@@ATL@@QAE@XZ
  0005d	6a 14		 push	 20			; 00000014H
  0005f	57		 push	 edi
  00060	e8 00 00 00 00	 call	 ??3@YAXPAXI@Z		; operator delete
  00065	83 c4 08	 add	 esp, 8
$LN18@ClearGroup:

; 364  : 		for(POSITION JPos=pGroupData->m_ItemList.GetHeadPosition(); JPos; )

  00068	85 f6		 test	 esi, esi
  0006a	75 d7		 jne	 SHORT $LL5@ClearGroup
$LN25@ClearGroup:
; File C:\Program Files (x86)\Microsoft Visual Studio\2019\Community\VC\Tools\MSVC\14.29.30133\atlmfc\include\afxtempl.h

; 872  : 	m_pBlocks->FreeDataChain();

  0006c	8b 4b 18	 mov	 ecx, DWORD PTR [ebx+24]
  0006f	c7 43 10 00 00
	00 00		 mov	 DWORD PTR [ebx+16], 0
  00076	c7 43 14 00 00
	00 00		 mov	 DWORD PTR [ebx+20], 0
  0007d	c7 43 0c 00 00
	00 00		 mov	 DWORD PTR [ebx+12], 0
  00084	c7 43 08 00 00
	00 00		 mov	 DWORD PTR [ebx+8], 0
  0008b	e8 00 00 00 00	 call	 ?FreeDataChain@CPlex@@QAEXXZ ; CPlex::FreeDataChain

; 873  : 	m_pBlocks = NULL;

  00090	c7 43 18 00 00
	00 00		 mov	 DWORD PTR [ebx+24], 0

; 872  : 	m_pBlocks->FreeDataChain();

  00097	8b 4b 18	 mov	 ecx, DWORD PTR [ebx+24]

; 878  : {

  0009a	c7 45 fc 00 00
	00 00		 mov	 DWORD PTR __$EHRec$[ebp+8], 0
  000a1	c7 43 04 00 00
	00 00		 mov	 DWORD PTR [ebx+4], OFFSET ??_7?$CList@PAVCDlgCompSubItem@@PAV1@@@6B@

; 870  : 	m_nCount = 0;

  000a8	c7 43 10 00 00
	00 00		 mov	 DWORD PTR [ebx+16], 0

; 871  : 	m_pNodeHead = m_pNodeTail = m_pNodeFree = NULL;

  000af	c7 43 14 00 00
	00 00		 mov	 DWORD PTR [ebx+20], 0
  000b6	c7 43 0c 00 00
	00 00		 mov	 DWORD PTR [ebx+12], 0
  000bd	c7 43 08 00 00
	00 00		 mov	 DWORD PTR [ebx+8], 0

; 872  : 	m_pBlocks->FreeDataChain();

  000c4	e8 00 00 00 00	 call	 ?FreeDataChain@CPlex@@QAEXXZ ; CPlex::FreeDataChain
  000c9	8b cb		 mov	 ecx, ebx

; 873  : 	m_pBlocks = NULL;

  000cb	c7 43 18 00 00
	00 00		 mov	 DWORD PTR [ebx+24], 0

; 881  : }

  000d2	c7 45 fc ff ff
	ff ff		 mov	 DWORD PTR __$EHRec$[ebp+8], -1
  000d9	ff 15 00 00 00
	00		 call	 DWORD PTR __imp_??1?$CStringT@DV?$StrTraitMFC_DLL@DV?$ChTraitsCRT@D@ATL@@@@@ATL@@QAE@XZ
  000df	6a 20		 push	 32			; 00000020H
  000e1	53		 push	 ebx
  000e2	e8 00 00 00 00	 call	 ??3@YAXPAXI@Z		; operator delete
; File D:\git\src\IBK\IBK_DRFN\ProjSrc\SrcDrfn\Chart\comparechart\CodeDataFromInputBar.cpp

; 360  : 	for(POSITION pos=pGroupList->GetHeadPosition(); pos; )

  000e7	8b 4d f0	 mov	 ecx, DWORD PTR _pos$1$[ebp]
  000ea	83 c4 08	 add	 esp, 8
  000ed	85 c9		 test	 ecx, ecx
  000ef	0f 85 3f ff ff
	ff		 jne	 $LL2@ClearGroup
  000f5	8b 5d 0c	 mov	 ebx, DWORD PTR __pGroupList$[ebp]
$LN44@ClearGroup:
; File C:\Program Files (x86)\Microsoft Visual Studio\2019\Community\VC\Tools\MSVC\14.29.30133\atlmfc\include\afxtempl.h

; 872  : 	m_pBlocks->FreeDataChain();

  000f8	8b 4b 14	 mov	 ecx, DWORD PTR [ebx+20]
  000fb	c7 43 0c 00 00
	00 00		 mov	 DWORD PTR [ebx+12], 0
  00102	c7 43 10 00 00
	00 00		 mov	 DWORD PTR [ebx+16], 0
  00109	c7 43 08 00 00
	00 00		 mov	 DWORD PTR [ebx+8], 0
  00110	c7 43 04 00 00
	00 00		 mov	 DWORD PTR [ebx+4], 0
  00117	e8 00 00 00 00	 call	 ?FreeDataChain@CPlex@@QAEXXZ ; CPlex::FreeDataChain

; 873  : 	m_pBlocks = NULL;

  0011c	c7 43 14 00 00
	00 00		 mov	 DWORD PTR [ebx+20], 0
; File D:\git\src\IBK\IBK_DRFN\ProjSrc\SrcDrfn\Chart\comparechart\CodeDataFromInputBar.cpp

; 374  : }

  00123	8b 4d f4	 mov	 ecx, DWORD PTR __$EHRec$[ebp]
  00126	64 89 0d 00 00
	00 00		 mov	 DWORD PTR fs:0, ecx
  0012d	59		 pop	 ecx
  0012e	5f		 pop	 edi
  0012f	5e		 pop	 esi
  00130	5b		 pop	 ebx
  00131	8b e5		 mov	 esp, ebp
  00133	5d		 pop	 ebp
  00134	c2 08 00	 ret	 8
  00137	cc		 int	 3
  00138	cc		 int	 3
  00139	cc		 int	 3
  0013a	cc		 int	 3
  0013b	cc		 int	 3
_TEXT	ENDS
;	COMDAT text$x
text$x	SEGMENT
__ehhandler$?ClearGroupList@CDlgCompDataHandle@@UAGXJ@Z:
  00000	90		 npad	 1
  00001	90		 npad	 1
  00002	8b 54 24 08	 mov	 edx, DWORD PTR [esp+8]
  00006	8d 42 0c	 lea	 eax, DWORD PTR [edx+12]
  00009	8b 4a ec	 mov	 ecx, DWORD PTR [edx-20]
  0000c	33 c8		 xor	 ecx, eax
  0000e	e8 00 00 00 00	 call	 @__security_check_cookie@4
  00013	b8 00 00 00 00	 mov	 eax, OFFSET __ehfuncinfo$?ClearGroupList@CDlgCompDataHandle@@UAGXJ@Z
  00018	e9 00 00 00 00	 jmp	 ___CxxFrameHandler3
text$x	ENDS
?ClearGroupList@CDlgCompDataHandle@@UAGXJ@Z ENDP	; CDlgCompDataHandle::ClearGroupList
; Function compile flags: /Ogtp
; File D:\git\src\IBK\IBK_DRFN\ProjSrc\SrcDrfn\Chart\comparechart\CodeDataFromInputBar.cpp
;	COMDAT ?ClearAll@CDlgCompDataHandle@@UAGXJ@Z
_TEXT	SEGMENT
_this$ = 8						; size = 4
_pDataKey$ = 12						; size = 4
?ClearAll@CDlgCompDataHandle@@UAGXJ@Z PROC		; CDlgCompDataHandle::ClearAll, COMDAT

; 352  : {

  00000	55		 push	 ebp
  00001	8b ec		 mov	 ebp, esp

; 353  : 	STDlgCompData* pSTData = (STDlgCompData*)pDataKey;
; 354  : 	ClearGroupList((long)&pSTData->m_GroupList);

  00003	8b 45 08	 mov	 eax, DWORD PTR _this$[ebp]
  00006	8b 08		 mov	 ecx, DWORD PTR [eax]
  00008	89 45 08	 mov	 DWORD PTR _this$[ebp], eax

; 355  : }

  0000b	5d		 pop	 ebp

; 353  : 	STDlgCompData* pSTData = (STDlgCompData*)pDataKey;
; 354  : 	ClearGroupList((long)&pSTData->m_GroupList);

  0000c	ff 61 1c	 jmp	 DWORD PTR [ecx+28]
?ClearAll@CDlgCompDataHandle@@UAGXJ@Z ENDP		; CDlgCompDataHandle::ClearAll
_TEXT	ENDS
; Function compile flags: /Ogtp
; File D:\git\src\IBK\IBK_DRFN\ProjSrc\SrcDrfn\Chart\comparechart\CodeDataFromInputBar.cpp
;	COMDAT ?SaveTimeUse@CDlgCompDataHandle@@UAGXJ@Z
_TEXT	SEGMENT
_szSect$ = -4						; size = 4
_this$ = 8						; size = 4
_szData$ = 12						; size = 4
_pDataKey$ = 12						; size = 4
?SaveTimeUse@CDlgCompDataHandle@@UAGXJ@Z PROC		; CDlgCompDataHandle::SaveTimeUse, COMDAT

; 337  : {

  00000	55		 push	 ebp
  00001	8b ec		 mov	 ebp, esp
  00003	51		 push	 ecx
  00004	56		 push	 esi

; 338  : 	STDlgCompData* pSTData = (STDlgCompData*)pDataKey;
; 339  : 	if(!pSTData) return;

  00005	8b 75 0c	 mov	 esi, DWORD PTR _pDataKey$[ebp]
  00008	85 f6		 test	 esi, esi
  0000a	74 55		 je	 SHORT $LN1@SaveTimeUs

; 340  : 
; 341  : 	CString szSect("Fluctuation");

  0000c	68 00 00 00 00	 push	 OFFSET ??_C@_0M@NDFPFEGJ@Fluctuation@
  00011	8d 4d fc	 lea	 ecx, DWORD PTR _szSect$[ebp]
  00014	ff 15 00 00 00
	00		 call	 DWORD PTR __imp_??0?$CStringT@DV?$StrTraitMFC_DLL@DV?$ChTraitsCRT@D@ATL@@@@@ATL@@QAE@PBD@Z

; 342  : 	CString szData;

  0001a	8d 4d 0c	 lea	 ecx, DWORD PTR _szData$[ebp]
  0001d	ff 15 00 00 00
	00		 call	 DWORD PTR __imp_??0?$CStringT@DV?$StrTraitMFC_DLL@DV?$ChTraitsCRT@D@ATL@@@@@ATL@@QAE@XZ

; 343  : 
; 344  : 	//돌려보기 사용
; 345  : 	// 메뉴에서 선택시 개별적으로 정보가 저장되어야 함.
; 346  : 	szData.Format("%d", pSTData->m_bTimerUse);

  00023	ff 76 40	 push	 DWORD PTR [esi+64]
  00026	8d 45 0c	 lea	 eax, DWORD PTR _szData$[ebp]
  00029	68 00 00 00 00	 push	 OFFSET ??_C@_02DPKJAMEF@?$CFd@
  0002e	50		 push	 eax
  0002f	ff 15 00 00 00
	00		 call	 DWORD PTR __imp_?Format@?$CStringT@DV?$StrTraitMFC_DLL@DV?$ChTraitsCRT@D@ATL@@@@@ATL@@QAAXPBDZZ

; 347  : 	::WritePrivateProfileString(szSect, "bTimerUse", szData, m_szDataFile);

  00035	8b 45 08	 mov	 eax, DWORD PTR _this$[ebp]
  00038	83 c4 0c	 add	 esp, 12			; 0000000cH
  0003b	ff 70 04	 push	 DWORD PTR [eax+4]
  0003e	ff 75 0c	 push	 DWORD PTR _szData$[ebp]
  00041	68 00 00 00 00	 push	 OFFSET ??_C@_09KKNJFODG@bTimerUse@
  00046	ff 75 fc	 push	 DWORD PTR _szSect$[ebp]
  00049	ff 15 00 00 00
	00		 call	 DWORD PTR __imp__WritePrivateProfileStringA@16

; 348  : }

  0004f	8d 4d 0c	 lea	 ecx, DWORD PTR _szData$[ebp]
  00052	ff 15 00 00 00
	00		 call	 DWORD PTR __imp_??1?$CStringT@DV?$StrTraitMFC_DLL@DV?$ChTraitsCRT@D@ATL@@@@@ATL@@QAE@XZ
  00058	8d 4d fc	 lea	 ecx, DWORD PTR _szSect$[ebp]
  0005b	ff 15 00 00 00
	00		 call	 DWORD PTR __imp_??1?$CStringT@DV?$StrTraitMFC_DLL@DV?$ChTraitsCRT@D@ATL@@@@@ATL@@QAE@XZ
$LN1@SaveTimeUs:
  00061	5e		 pop	 esi
  00062	8b e5		 mov	 esp, ebp
  00064	5d		 pop	 ebp
  00065	c2 08 00	 ret	 8
?SaveTimeUse@CDlgCompDataHandle@@UAGXJ@Z ENDP		; CDlgCompDataHandle::SaveTimeUse
_TEXT	ENDS
; Function compile flags: /Ogtp
; File D:\git\src\IBK\IBK_DRFN\ProjSrc\SrcDrfn\Chart\comparechart\CodeDataFromInputBar.cpp
;	COMDAT ?SaveSelCodeInfo@CDlgCompDataHandle@@UAGXJ@Z
_TEXT	SEGMENT
_szData$ = -4						; size = 4
_this$ = 8						; size = 4
_szSect$ = 12						; size = 4
_pDataKey$ = 12						; size = 4
?SaveSelCodeInfo@CDlgCompDataHandle@@UAGXJ@Z PROC	; CDlgCompDataHandle::SaveSelCodeInfo, COMDAT

; 324  : {

  00000	55		 push	 ebp
  00001	8b ec		 mov	 ebp, esp
  00003	51		 push	 ecx
  00004	56		 push	 esi

; 325  : 	STDlgCompData* pSTData = (STDlgCompData*)pDataKey;
; 326  : 	if(!pSTData) return;

  00005	8b 75 0c	 mov	 esi, DWORD PTR _pDataKey$[ebp]
  00008	85 f6		 test	 esi, esi
  0000a	74 40		 je	 SHORT $LN1@SaveSelCod

; 327  : 
; 328  : 	CString szSect("Fluctuation");

  0000c	68 00 00 00 00	 push	 OFFSET ??_C@_0M@NDFPFEGJ@Fluctuation@
  00011	8d 4d 0c	 lea	 ecx, DWORD PTR _szSect$[ebp]
  00014	ff 15 00 00 00
	00		 call	 DWORD PTR __imp_??0?$CStringT@DV?$StrTraitMFC_DLL@DV?$ChTraitsCRT@D@ATL@@@@@ATL@@QAE@PBD@Z

; 329  : 	CString szData;

  0001a	8d 4d fc	 lea	 ecx, DWORD PTR _szData$[ebp]
  0001d	ff 15 00 00 00
	00		 call	 DWORD PTR __imp_??0?$CStringT@DV?$StrTraitMFC_DLL@DV?$ChTraitsCRT@D@ATL@@@@@ATL@@QAE@XZ

; 330  : 
; 331  : 	// 최종 종목 저장하기.
; 332  : 	::WritePrivateProfileString(szSect, "szSelCode", pSTData->m_szSelCode, m_szDataFile);

  00023	8b 45 08	 mov	 eax, DWORD PTR _this$[ebp]
  00026	ff 70 04	 push	 DWORD PTR [eax+4]
  00029	ff 76 34	 push	 DWORD PTR [esi+52]
  0002c	68 00 00 00 00	 push	 OFFSET ??_C@_09DCNFIBMN@szSelCode@
  00031	ff 75 0c	 push	 DWORD PTR _szSect$[ebp]
  00034	ff 15 00 00 00
	00		 call	 DWORD PTR __imp__WritePrivateProfileStringA@16

; 333  : 	//::WritePrivateProfileString(szSect, "szSelCodeName", pSTData->m_szSelCodeName, m_szDataFile);
; 334  : }

  0003a	8d 4d fc	 lea	 ecx, DWORD PTR _szData$[ebp]
  0003d	ff 15 00 00 00
	00		 call	 DWORD PTR __imp_??1?$CStringT@DV?$StrTraitMFC_DLL@DV?$ChTraitsCRT@D@ATL@@@@@ATL@@QAE@XZ
  00043	8d 4d 0c	 lea	 ecx, DWORD PTR _szSect$[ebp]
  00046	ff 15 00 00 00
	00		 call	 DWORD PTR __imp_??1?$CStringT@DV?$StrTraitMFC_DLL@DV?$ChTraitsCRT@D@ATL@@@@@ATL@@QAE@XZ
$LN1@SaveSelCod:
  0004c	5e		 pop	 esi
  0004d	8b e5		 mov	 esp, ebp
  0004f	5d		 pop	 ebp
  00050	c2 08 00	 ret	 8
?SaveSelCodeInfo@CDlgCompDataHandle@@UAGXJ@Z ENDP	; CDlgCompDataHandle::SaveSelCodeInfo
_TEXT	ENDS
; Function compile flags: /Ogtp
; File D:\git\src\IBK\IBK_DRFN\ProjSrc\SrcDrfn\Chart\comparechart\CodeDataFromInputBar.cpp
; File C:\Program Files (x86)\Microsoft Visual Studio\2019\Community\VC\Tools\MSVC\14.29.30133\atlmfc\include\atlsimpstr.h
; File D:\git\src\IBK\IBK_DRFN\ProjSrc\SrcDrfn\Chart\comparechart\CodeDataFromInputBar.cpp
;	COMDAT ?SaveShowGroupInfo@CDlgCompDataHandle@@UAGXJ@Z
_TEXT	SEGMENT
_szSect$ = -4						; size = 4
_this$ = 8						; size = 4
_szData$ = 12						; size = 4
_pDataKey$ = 12						; size = 4
?SaveShowGroupInfo@CDlgCompDataHandle@@UAGXJ@Z PROC	; CDlgCompDataHandle::SaveShowGroupInfo, COMDAT

; 301  : {

  00000	55		 push	 ebp
  00001	8b ec		 mov	 ebp, esp
  00003	51		 push	 ecx
  00004	56		 push	 esi

; 302  : 	STDlgCompData* pSTData = (STDlgCompData*)pDataKey;
; 303  : 	if(!pSTData) return;

  00005	8b 75 0c	 mov	 esi, DWORD PTR _pDataKey$[ebp]
  00008	85 f6		 test	 esi, esi
  0000a	74 71		 je	 SHORT $LN1@SaveShowGr

; 304  : 
; 305  : 	CString szSect("Fluctuation");

  0000c	57		 push	 edi
  0000d	68 00 00 00 00	 push	 OFFSET ??_C@_0M@NDFPFEGJ@Fluctuation@
  00012	8d 4d fc	 lea	 ecx, DWORD PTR _szSect$[ebp]
  00015	ff 15 00 00 00
	00		 call	 DWORD PTR __imp_??0?$CStringT@DV?$StrTraitMFC_DLL@DV?$ChTraitsCRT@D@ATL@@@@@ATL@@QAE@PBD@Z

; 306  : 	CString szData;

  0001b	8d 4d 0c	 lea	 ecx, DWORD PTR _szData$[ebp]
  0001e	ff 15 00 00 00
	00		 call	 DWORD PTR __imp_??0?$CStringT@DV?$StrTraitMFC_DLL@DV?$ChTraitsCRT@D@ATL@@@@@ATL@@QAE@XZ

; 311  : 	szData.Format("%d", pSTData->m_bShowAll);

  00024	ff 76 3c	 push	 DWORD PTR [esi+60]
  00027	8d 45 0c	 lea	 eax, DWORD PTR _szData$[ebp]
  0002a	68 00 00 00 00	 push	 OFFSET ??_C@_02DPKJAMEF@?$CFd@
  0002f	50		 push	 eax
  00030	ff 15 00 00 00
	00		 call	 DWORD PTR __imp_?Format@?$CStringT@DV?$StrTraitMFC_DLL@DV?$ChTraitsCRT@D@ATL@@@@@ATL@@QAAXPBDZZ
; File C:\Program Files (x86)\Microsoft Visual Studio\2019\Community\VC\Tools\MSVC\14.29.30133\atlmfc\include\atlsimpstr.h

; 377  : 		return( m_pszData );

  00036	8b 7d 08	 mov	 edi, DWORD PTR _this$[ebp]
; File D:\git\src\IBK\IBK_DRFN\ProjSrc\SrcDrfn\Chart\comparechart\CodeDataFromInputBar.cpp

; 311  : 	szData.Format("%d", pSTData->m_bShowAll);

  00039	83 c4 0c	 add	 esp, 12			; 0000000cH

; 312  : 	::WritePrivateProfileString(szSect, "bShowAll", szData, m_szDataFile);

  0003c	ff 77 04	 push	 DWORD PTR [edi+4]
  0003f	ff 75 0c	 push	 DWORD PTR _szData$[ebp]
  00042	68 00 00 00 00	 push	 OFFSET ??_C@_08BBOOBMDD@bShowAll@
  00047	ff 75 fc	 push	 DWORD PTR _szSect$[ebp]
  0004a	ff 15 00 00 00
	00		 call	 DWORD PTR __imp__WritePrivateProfileStringA@16

; 313  : 
; 314  : 	if(pSTData->m_bShowAll==0)	//개별종목보기이면 종목정보도 저장.

  00050	83 7e 3c 00	 cmp	 DWORD PTR [esi+60], 0
  00054	75 14		 jne	 SHORT $LN3@SaveShowGr

; 315  : 	{
; 316  : 		::WritePrivateProfileString(szSect, "szSelCode", pSTData->m_szSelCode, m_szDataFile);

  00056	ff 77 04	 push	 DWORD PTR [edi+4]
  00059	ff 76 34	 push	 DWORD PTR [esi+52]
  0005c	68 00 00 00 00	 push	 OFFSET ??_C@_09DCNFIBMN@szSelCode@
  00061	ff 75 fc	 push	 DWORD PTR _szSect$[ebp]
  00064	ff 15 00 00 00
	00		 call	 DWORD PTR __imp__WritePrivateProfileStringA@16
$LN3@SaveShowGr:

; 317  : 
; 318  : 		// 코드명은 신뢰없음.
; 319  : 		//::WritePrivateProfileString(szSect, "szSelCodeName", pSTData->m_szSelCodeName, m_szDataFile);
; 320  : 	}
; 321  : }

  0006a	8d 4d 0c	 lea	 ecx, DWORD PTR _szData$[ebp]
  0006d	ff 15 00 00 00
	00		 call	 DWORD PTR __imp_??1?$CStringT@DV?$StrTraitMFC_DLL@DV?$ChTraitsCRT@D@ATL@@@@@ATL@@QAE@XZ
  00073	8d 4d fc	 lea	 ecx, DWORD PTR _szSect$[ebp]
  00076	ff 15 00 00 00
	00		 call	 DWORD PTR __imp_??1?$CStringT@DV?$StrTraitMFC_DLL@DV?$ChTraitsCRT@D@ATL@@@@@ATL@@QAE@XZ
  0007c	5f		 pop	 edi
$LN1@SaveShowGr:
  0007d	5e		 pop	 esi
  0007e	8b e5		 mov	 esp, ebp
  00080	5d		 pop	 ebp
  00081	c2 08 00	 ret	 8
?SaveShowGroupInfo@CDlgCompDataHandle@@UAGXJ@Z ENDP	; CDlgCompDataHandle::SaveShowGroupInfo
_TEXT	ENDS
; Function compile flags: /Ogtp
; File D:\git\src\IBK\IBK_DRFN\ProjSrc\SrcDrfn\Chart\comparechart\CodeDataFromInputBar.cpp
;	COMDAT ?SaveSelGroup@CDlgCompDataHandle@@UAGXJ@Z
_TEXT	SEGMENT
_this$ = 8						; size = 4
_szSect$ = 12						; size = 4
_pDataKey$ = 12						; size = 4
?SaveSelGroup@CDlgCompDataHandle@@UAGXJ@Z PROC		; CDlgCompDataHandle::SaveSelGroup, COMDAT

; 287  : {

  00000	55		 push	 ebp
  00001	8b ec		 mov	 ebp, esp
  00003	56		 push	 esi

; 288  : 	STDlgCompData* pSTData = (STDlgCompData*)pDataKey;
; 289  : 	if(!pSTData) return;

  00004	8b 75 0c	 mov	 esi, DWORD PTR _pDataKey$[ebp]
  00007	85 f6		 test	 esi, esi
  00009	74 2e		 je	 SHORT $LN1@SaveSelGro

; 290  : 
; 291  : 	CString szSect("Fluctuation");

  0000b	68 00 00 00 00	 push	 OFFSET ??_C@_0M@NDFPFEGJ@Fluctuation@
  00010	8d 4d 0c	 lea	 ecx, DWORD PTR _szSect$[ebp]
  00013	ff 15 00 00 00
	00		 call	 DWORD PTR __imp_??0?$CStringT@DV?$StrTraitMFC_DLL@DV?$ChTraitsCRT@D@ATL@@@@@ATL@@QAE@PBD@Z

; 292  : 
; 293  : 	// SelectGroup
; 294  : 	::WritePrivateProfileString(szSect, "SelectGroup", pSTData->m_szSelectGroup, m_szDataFile);

  00019	8b 45 08	 mov	 eax, DWORD PTR _this$[ebp]
  0001c	ff 70 04	 push	 DWORD PTR [eax+4]
  0001f	ff 76 30	 push	 DWORD PTR [esi+48]
  00022	68 00 00 00 00	 push	 OFFSET ??_C@_0M@PKCPEFAA@SelectGroup@
  00027	ff 75 0c	 push	 DWORD PTR _szSect$[ebp]
  0002a	ff 15 00 00 00
	00		 call	 DWORD PTR __imp__WritePrivateProfileStringA@16

; 295  : }

  00030	8d 4d 0c	 lea	 ecx, DWORD PTR _szSect$[ebp]
  00033	ff 15 00 00 00
	00		 call	 DWORD PTR __imp_??1?$CStringT@DV?$StrTraitMFC_DLL@DV?$ChTraitsCRT@D@ATL@@@@@ATL@@QAE@XZ
$LN1@SaveSelGro:
  00039	5e		 pop	 esi
  0003a	5d		 pop	 ebp
  0003b	c2 08 00	 ret	 8
?SaveSelGroup@CDlgCompDataHandle@@UAGXJ@Z ENDP		; CDlgCompDataHandle::SaveSelGroup
_TEXT	ENDS
; Function compile flags: /Ogtp
; File D:\git\src\IBK\IBK_DRFN\ProjSrc\SrcDrfn\Chart\comparechart\CodeDataFromInputBar.cpp
; File C:\Program Files (x86)\Microsoft Visual Studio\2019\Community\VC\Tools\MSVC\14.29.30133\atlmfc\include\atlsimpstr.h
; File D:\git\src\IBK\IBK_DRFN\ProjSrc\SrcDrfn\Chart\comparechart\CodeDataFromInputBar.cpp
; File C:\Program Files (x86)\Microsoft Visual Studio\2019\Community\VC\Tools\MSVC\14.29.30133\atlmfc\include\afxtempl.h
; File D:\git\src\IBK\IBK_DRFN\ProjSrc\SrcDrfn\Chart\comparechart\CodeDataFromInputBar.cpp
; File C:\Program Files (x86)\Microsoft Visual Studio\2019\Community\VC\Tools\MSVC\14.29.30133\atlmfc\include\afxtempl.h
; File D:\git\src\IBK\IBK_DRFN\ProjSrc\SrcDrfn\Chart\comparechart\CodeDataFromInputBar.cpp
; File C:\Program Files (x86)\Microsoft Visual Studio\2019\Community\VC\Tools\MSVC\14.29.30133\atlmfc\include\afxtempl.h
; File D:\git\src\IBK\IBK_DRFN\ProjSrc\SrcDrfn\Chart\comparechart\CodeDataFromInputBar.cpp
; File C:\Program Files (x86)\Microsoft Visual Studio\2019\Community\VC\Tools\MSVC\14.29.30133\atlmfc\include\afxtempl.h
; File D:\git\src\IBK\IBK_DRFN\ProjSrc\SrcDrfn\Chart\comparechart\CodeDataFromInputBar.cpp
; File C:\Program Files (x86)\Microsoft Visual Studio\2019\Community\VC\Tools\MSVC\14.29.30133\atlmfc\include\afxtempl.h
; File D:\git\src\IBK\IBK_DRFN\ProjSrc\SrcDrfn\Chart\comparechart\CodeDataFromInputBar.cpp
; File C:\Program Files (x86)\Microsoft Visual Studio\2019\Community\VC\Tools\MSVC\14.29.30133\atlmfc\include\afxtempl.h
; File D:\git\src\IBK\IBK_DRFN\ProjSrc\SrcDrfn\Chart\comparechart\CodeDataFromInputBar.cpp
;	COMDAT ?SaveData@CDlgCompDataHandle@@UAGXJ@Z
_TEXT	SEGMENT
_i$1$ = -24						; size = 4
_pGroupData$1$ = -20					; size = 4
_iPos$1$ = -16						; size = 4
_szKey$ = -12						; size = 4
_szSect$ = -8						; size = 4
_szData$ = -4						; size = 4
_jPos$1$ = 8						; size = 4
_this$ = 8						; size = 4
_j$1$ = 12						; size = 4
_pDataKey$ = 12						; size = 4
?SaveData@CDlgCompDataHandle@@UAGXJ@Z PROC		; CDlgCompDataHandle::SaveData, COMDAT

; 188  : {

  00000	55		 push	 ebp
  00001	8b ec		 mov	 ebp, esp
  00003	83 ec 18	 sub	 esp, 24			; 00000018H
  00006	53		 push	 ebx
  00007	56		 push	 esi
  00008	57		 push	 edi

; 189  : 	STDlgCompData* pSTData = (STDlgCompData*)pDataKey;
; 190  : 	CString szSect("Fluctuation");

  00009	68 00 00 00 00	 push	 OFFSET ??_C@_0M@NDFPFEGJ@Fluctuation@
  0000e	8d 4d f8	 lea	 ecx, DWORD PTR _szSect$[ebp]
  00011	ff 15 00 00 00
	00		 call	 DWORD PTR __imp_??0?$CStringT@DV?$StrTraitMFC_DLL@DV?$ChTraitsCRT@D@ATL@@@@@ATL@@QAE@PBD@Z

; 191  : 	CString szData;

  00017	8d 4d fc	 lea	 ecx, DWORD PTR _szData$[ebp]
  0001a	ff 15 00 00 00
	00		 call	 DWORD PTR __imp_??0?$CStringT@DV?$StrTraitMFC_DLL@DV?$ChTraitsCRT@D@ATL@@@@@ATL@@QAE@XZ
; File C:\Program Files (x86)\Microsoft Visual Studio\2019\Community\VC\Tools\MSVC\14.29.30133\atlmfc\include\atlsimpstr.h

; 377  : 		return( m_pszData );

  00020	8b 5d 08	 mov	 ebx, DWORD PTR _this$[ebp]
; File D:\git\src\IBK\IBK_DRFN\ProjSrc\SrcDrfn\Chart\comparechart\CodeDataFromInputBar.cpp

; 194  : 	::WritePrivateProfileString(szSect, "version", "0806171", m_szDataFile);

  00023	8b 3d 00 00 00
	00		 mov	 edi, DWORD PTR __imp__WritePrivateProfileStringA@16
  00029	ff 73 04	 push	 DWORD PTR [ebx+4]
  0002c	68 00 00 00 00	 push	 OFFSET ??_C@_07BGJLJDG@0806171@
  00031	68 00 00 00 00	 push	 OFFSET ??_C@_07CPCPJPKL@version@
  00036	ff 75 f8	 push	 DWORD PTR _szSect$[ebp]
  00039	ff d7		 call	 edi

; 195  : 
; 196  : 	//비교 기준값. 0:전일종가,1:당일시가,1:현재가
; 197  : 	szData.Format("%d", pSTData->m_nBase);

  0003b	8b 45 0c	 mov	 eax, DWORD PTR _pDataKey$[ebp]
  0003e	8b 35 00 00 00
	00		 mov	 esi, DWORD PTR __imp_?Format@?$CStringT@DV?$StrTraitMFC_DLL@DV?$ChTraitsCRT@D@ATL@@@@@ATL@@QAAXPBDZZ
  00044	ff 70 20	 push	 DWORD PTR [eax+32]
  00047	8d 45 fc	 lea	 eax, DWORD PTR _szData$[ebp]
  0004a	68 00 00 00 00	 push	 OFFSET ??_C@_02DPKJAMEF@?$CFd@
  0004f	50		 push	 eax
  00050	ff d6		 call	 esi
  00052	83 c4 0c	 add	 esp, 12			; 0000000cH

; 198  : 	::WritePrivateProfileString(szSect, "nBase", szData, m_szDataFile);

  00055	ff 73 04	 push	 DWORD PTR [ebx+4]
  00058	ff 75 fc	 push	 DWORD PTR _szData$[ebp]
  0005b	68 00 00 00 00	 push	 OFFSET ??_C@_05JDFHOCNC@nBase@
  00060	ff 75 f8	 push	 DWORD PTR _szSect$[ebp]
  00063	ff d7		 call	 edi

; 199  : 
; 200  : 	// 돌려보기(몇초인지)
; 201  : 	if(pSTData->m_nTimer<=0) 

  00065	8b 45 0c	 mov	 eax, DWORD PTR _pDataKey$[ebp]
  00068	8b 48 24	 mov	 ecx, DWORD PTR [eax+36]
  0006b	85 c9		 test	 ecx, ecx
  0006d	7f 10		 jg	 SHORT $LN133@SaveData

; 202  : 	{
; 203  : 		pSTData->m_nTimer=0;

  0006f	c7 40 24 00 00
	00 00		 mov	 DWORD PTR [eax+36], 0

; 204  : 		pSTData->m_bTimerUse = 0;

  00076	33 c9		 xor	 ecx, ecx
  00078	c7 40 40 00 00
	00 00		 mov	 DWORD PTR [eax+64], 0
$LN133@SaveData:

; 205  : 	}
; 206  : 	szData.Format("%d", pSTData->m_nTimer);

  0007f	51		 push	 ecx
  00080	8d 45 fc	 lea	 eax, DWORD PTR _szData$[ebp]
  00083	68 00 00 00 00	 push	 OFFSET ??_C@_02DPKJAMEF@?$CFd@
  00088	50		 push	 eax
  00089	ff d6		 call	 esi
  0008b	83 c4 0c	 add	 esp, 12			; 0000000cH

; 207  : 	::WritePrivateProfileString(szSect, "nTimer", szData, m_szDataFile);

  0008e	ff 73 04	 push	 DWORD PTR [ebx+4]
  00091	ff 75 fc	 push	 DWORD PTR _szData$[ebp]
  00094	68 00 00 00 00	 push	 OFFSET ??_C@_06CAHOHFIF@nTimer@
  00099	ff 75 f8	 push	 DWORD PTR _szSect$[ebp]
  0009c	ff d7		 call	 edi

; 208  : 	
; 209  : 	//현재가(종가)표시 여부
; 210  : 	szData.Format("%d", pSTData->m_bCurDisp);

  0009e	8b 45 0c	 mov	 eax, DWORD PTR _pDataKey$[ebp]
  000a1	ff 70 28	 push	 DWORD PTR [eax+40]
  000a4	8d 45 fc	 lea	 eax, DWORD PTR _szData$[ebp]
  000a7	68 00 00 00 00	 push	 OFFSET ??_C@_02DPKJAMEF@?$CFd@
  000ac	50		 push	 eax
  000ad	ff d6		 call	 esi
  000af	83 c4 0c	 add	 esp, 12			; 0000000cH

; 211  : 	::WritePrivateProfileString(szSect, "bCurDisp", szData, m_szDataFile);

  000b2	ff 73 04	 push	 DWORD PTR [ebx+4]
  000b5	ff 75 fc	 push	 DWORD PTR _szData$[ebp]
  000b8	68 00 00 00 00	 push	 OFFSET ??_C@_08KGBODNME@bCurDisp@
  000bd	ff 75 f8	 push	 DWORD PTR _szSect$[ebp]
  000c0	ff d7		 call	 edi

; 212  : 
; 213  : 	// 몇분봉인지.
; 214  : 	szData.Format("%d", pSTData->m_nTypeUnit);

  000c2	8b 45 0c	 mov	 eax, DWORD PTR _pDataKey$[ebp]
  000c5	ff 70 2c	 push	 DWORD PTR [eax+44]
  000c8	8d 45 fc	 lea	 eax, DWORD PTR _szData$[ebp]
  000cb	68 00 00 00 00	 push	 OFFSET ??_C@_02DPKJAMEF@?$CFd@
  000d0	50		 push	 eax
  000d1	ff d6		 call	 esi
  000d3	83 c4 0c	 add	 esp, 12			; 0000000cH

; 215  : 	::WritePrivateProfileString(szSect, "nTypeUnit", szData, m_szDataFile);

  000d6	ff 73 04	 push	 DWORD PTR [ebx+4]
  000d9	ff 75 fc	 push	 DWORD PTR _szData$[ebp]
  000dc	68 00 00 00 00	 push	 OFFSET ??_C@_09NMPEPLJP@nTypeUnit@
  000e1	ff 75 f8	 push	 DWORD PTR _szSect$[ebp]
  000e4	ff d7		 call	 edi

; 216  : 
; 217  : 	// SelectGroup
; 218  : 	// 함수참조 : SaveSelGroup)(long pDataKey)
; 219  : 	::WritePrivateProfileString(szSect, "SelectGroup", pSTData->m_szSelectGroup, m_szDataFile);

  000e6	ff 73 04	 push	 DWORD PTR [ebx+4]
  000e9	8b 45 0c	 mov	 eax, DWORD PTR _pDataKey$[ebp]
  000ec	ff 70 30	 push	 DWORD PTR [eax+48]
  000ef	68 00 00 00 00	 push	 OFFSET ??_C@_0M@PKCPEFAA@SelectGroup@
  000f4	ff 75 f8	 push	 DWORD PTR _szSect$[ebp]
  000f7	ff d7		 call	 edi

; 220  : 
; 221  : 
; 222  : 	// 보기형태 기본그룹(1)/개별종목(0)
; 223  : 	// 돌려보기를 사용하면 개별종목보기로 셋팅됨.
; 224  : 	// 메뉴에서 선택시 개별적으로 정보가 저장되어야 함.
; 225  : 	// 함수참조 : SaveShowGroupInfo)(long pDataKey)
; 226  : 	szData.Format("%d", pSTData->m_bShowAll);

  000f9	8b 45 0c	 mov	 eax, DWORD PTR _pDataKey$[ebp]
  000fc	ff 70 3c	 push	 DWORD PTR [eax+60]
  000ff	8d 45 fc	 lea	 eax, DWORD PTR _szData$[ebp]
  00102	68 00 00 00 00	 push	 OFFSET ??_C@_02DPKJAMEF@?$CFd@
  00107	50		 push	 eax
  00108	ff d6		 call	 esi
  0010a	83 c4 0c	 add	 esp, 12			; 0000000cH

; 227  : 	::WritePrivateProfileString(szSect, "bShowAll", szData, m_szDataFile);

  0010d	ff 73 04	 push	 DWORD PTR [ebx+4]
  00110	ff 75 fc	 push	 DWORD PTR _szData$[ebp]
  00113	68 00 00 00 00	 push	 OFFSET ??_C@_08BBOOBMDD@bShowAll@
  00118	ff 75 f8	 push	 DWORD PTR _szSect$[ebp]
  0011b	ff d7		 call	 edi

; 228  : 
; 229  : 	// SelectCode, 개별종목보기이거나 돌려보기일때 유효
; 230  : 	::WritePrivateProfileString(szSect, "szSelCode", pSTData->m_szSelCode, m_szDataFile);

  0011d	ff 73 04	 push	 DWORD PTR [ebx+4]
  00120	8b 45 0c	 mov	 eax, DWORD PTR _pDataKey$[ebp]
  00123	ff 70 34	 push	 DWORD PTR [eax+52]
  00126	68 00 00 00 00	 push	 OFFSET ??_C@_09DCNFIBMN@szSelCode@
  0012b	ff 75 f8	 push	 DWORD PTR _szSect$[ebp]
  0012e	ff d7		 call	 edi

; 231  : 
; 232  : 	//돌려보기 사용
; 233  : 	// 메뉴에서 선택시 개별적으로 정보가 저장되어야 함.
; 234  : 	// 함수참조 : SaveTimeUse)(long pDataKey)
; 235  : 	szData.Format("%d", pSTData->m_bTimerUse);

  00130	8b 45 0c	 mov	 eax, DWORD PTR _pDataKey$[ebp]
  00133	ff 70 40	 push	 DWORD PTR [eax+64]
  00136	8d 45 fc	 lea	 eax, DWORD PTR _szData$[ebp]
  00139	68 00 00 00 00	 push	 OFFSET ??_C@_02DPKJAMEF@?$CFd@
  0013e	50		 push	 eax
  0013f	ff d6		 call	 esi
  00141	83 c4 0c	 add	 esp, 12			; 0000000cH

; 236  : 	::WritePrivateProfileString(szSect, "bTimerUse", szData, m_szDataFile);

  00144	ff 73 04	 push	 DWORD PTR [ebx+4]
  00147	ff 75 fc	 push	 DWORD PTR _szData$[ebp]
  0014a	68 00 00 00 00	 push	 OFFSET ??_C@_09KKNJFODG@bTimerUse@
  0014f	ff 75 f8	 push	 DWORD PTR _szSect$[ebp]
  00152	ff d7		 call	 edi

; 237  : 
; 238  : 	// GroupCount
; 239  : 	int nGroupCnt = pSTData->m_GroupList.GetCount();
; 240  : 	szData.Format("%d", nGroupCnt);

  00154	8b 45 0c	 mov	 eax, DWORD PTR _pDataKey$[ebp]
  00157	ff 70 0c	 push	 DWORD PTR [eax+12]
  0015a	8d 45 fc	 lea	 eax, DWORD PTR _szData$[ebp]
  0015d	68 00 00 00 00	 push	 OFFSET ??_C@_02DPKJAMEF@?$CFd@
  00162	50		 push	 eax
  00163	ff d6		 call	 esi
  00165	83 c4 0c	 add	 esp, 12			; 0000000cH

; 241  : 	::WritePrivateProfileString(szSect, "nGroupCnt", szData, m_szDataFile);

  00168	ff 73 04	 push	 DWORD PTR [ebx+4]
  0016b	ff 75 fc	 push	 DWORD PTR _szData$[ebp]
  0016e	68 00 00 00 00	 push	 OFFSET ??_C@_09NIKFLGND@nGroupCnt@
  00173	ff 75 f8	 push	 DWORD PTR _szSect$[ebp]
  00176	ff d7		 call	 edi

; 242  : 
; 243  : 	CString szKey;

  00178	8d 4d f4	 lea	 ecx, DWORD PTR _szKey$[ebp]
  0017b	ff 15 00 00 00
	00		 call	 DWORD PTR __imp_??0?$CStringT@DV?$StrTraitMFC_DLL@DV?$ChTraitsCRT@D@ATL@@@@@ATL@@QAE@XZ

; 244  : 	int i=0;
; 245  : 	for(POSITION iPos=pSTData->m_GroupList.GetHeadPosition(); iPos; i++)

  00181	8b 45 0c	 mov	 eax, DWORD PTR _pDataKey$[ebp]
  00184	33 c9		 xor	 ecx, ecx
  00186	89 4d e8	 mov	 DWORD PTR _i$1$[ebp], ecx
  00189	8b 40 04	 mov	 eax, DWORD PTR [eax+4]
  0018c	89 45 f0	 mov	 DWORD PTR _iPos$1$[ebp], eax
  0018f	85 c0		 test	 eax, eax
  00191	0f 84 79 01 00
	00		 je	 $LN3@SaveData
$LL4@SaveData:

; 246  : 	{
; 247  : 		szSect.Format("FGroup%02d", i);

  00197	51		 push	 ecx
  00198	8d 45 f8	 lea	 eax, DWORD PTR _szSect$[ebp]
  0019b	68 00 00 00 00	 push	 OFFSET ??_C@_0L@GLHLONOH@FGroup?$CF02d@
  001a0	50		 push	 eax
  001a1	ff d6		 call	 esi
; File C:\Program Files (x86)\Microsoft Visual Studio\2019\Community\VC\Tools\MSVC\14.29.30133\atlmfc\include\afxtempl.h

; 811  : 	{ CNode* pNode = (CNode*) rPosition;

  001a3	8b 4d f0	 mov	 ecx, DWORD PTR _iPos$1$[ebp]
; File D:\git\src\IBK\IBK_DRFN\ProjSrc\SrcDrfn\Chart\comparechart\CodeDataFromInputBar.cpp

; 249  : 		CDlgCompGroupData* pGroupData = pSTData->m_GroupList.GetNext(iPos);

  001a6	8b 41 08	 mov	 eax, DWORD PTR [ecx+8]
; File C:\Program Files (x86)\Microsoft Visual Studio\2019\Community\VC\Tools\MSVC\14.29.30133\atlmfc\include\afxtempl.h

; 813  : 		rPosition = (POSITION) pNode->pNext;

  001a9	8b 09		 mov	 ecx, DWORD PTR [ecx]
; File D:\git\src\IBK\IBK_DRFN\ProjSrc\SrcDrfn\Chart\comparechart\CodeDataFromInputBar.cpp

; 249  : 		CDlgCompGroupData* pGroupData = pSTData->m_GroupList.GetNext(iPos);

  001ab	89 45 ec	 mov	 DWORD PTR _pGroupData$1$[ebp], eax
; File C:\Program Files (x86)\Microsoft Visual Studio\2019\Community\VC\Tools\MSVC\14.29.30133\atlmfc\include\afxtempl.h

; 813  : 		rPosition = (POSITION) pNode->pNext;

  001ae	89 4d f0	 mov	 DWORD PTR _iPos$1$[ebp], ecx
; File D:\git\src\IBK\IBK_DRFN\ProjSrc\SrcDrfn\Chart\comparechart\CodeDataFromInputBar.cpp

; 252  : 		szData.Format("%d", pGroupData->m_ItemList.GetCount());

  001b1	ff 70 10	 push	 DWORD PTR [eax+16]
  001b4	8d 45 fc	 lea	 eax, DWORD PTR _szData$[ebp]
  001b7	68 00 00 00 00	 push	 OFFSET ??_C@_02DPKJAMEF@?$CFd@
  001bc	50		 push	 eax
  001bd	ff d6		 call	 esi
  001bf	83 c4 18	 add	 esp, 24			; 00000018H

; 253  : 		::WritePrivateProfileString(szSect, "nItemCnt", szData, m_szDataFile);

  001c2	ff 73 04	 push	 DWORD PTR [ebx+4]
  001c5	ff 75 fc	 push	 DWORD PTR _szData$[ebp]
  001c8	68 00 00 00 00	 push	 OFFSET ??_C@_08BKICBMIH@nItemCnt@
  001cd	ff 75 f8	 push	 DWORD PTR _szSect$[ebp]
  001d0	ff d7		 call	 edi

; 254  : 
; 255  : 		int j=0;
; 256  : 		for(POSITION jPos=pGroupData->m_ItemList.GetHeadPosition(); jPos; j++)

  001d2	8b 4d ec	 mov	 ecx, DWORD PTR _pGroupData$1$[ebp]
  001d5	c7 45 0c 00 00
	00 00		 mov	 DWORD PTR _j$1$[ebp], 0
  001dc	8b 41 08	 mov	 eax, DWORD PTR [ecx+8]
  001df	89 45 08	 mov	 DWORD PTR _jPos$1$[ebp], eax
  001e2	85 c0		 test	 eax, eax
  001e4	0f 84 15 01 00
	00		 je	 $LN2@SaveData
  001ea	66 0f 1f 44 00
	00		 npad	 6
$LL7@SaveData:

; 257  : 		{
; 258  : 			//szSect = szKey;
; 259  : 
; 260  : 			szData = pGroupData->m_szGroupName;

  001f0	51		 push	 ecx
  001f1	8d 4d fc	 lea	 ecx, DWORD PTR _szData$[ebp]
  001f4	ff 15 00 00 00
	00		 call	 DWORD PTR __imp_??4?$CStringT@DV?$StrTraitMFC_DLL@DV?$ChTraitsCRT@D@ATL@@@@@ATL@@QAEAAV01@ABV01@@Z

; 261  : 			::WritePrivateProfileString(szSect, "szGroupName", szData, m_szDataFile);

  001fa	ff 73 04	 push	 DWORD PTR [ebx+4]
  001fd	ff 75 fc	 push	 DWORD PTR _szData$[ebp]
  00200	68 00 00 00 00	 push	 OFFSET ??_C@_0M@OJCFGGOM@szGroupName@
  00205	ff 75 f8	 push	 DWORD PTR _szSect$[ebp]
  00208	ff d7		 call	 edi
; File C:\Program Files (x86)\Microsoft Visual Studio\2019\Community\VC\Tools\MSVC\14.29.30133\atlmfc\include\afxtempl.h

; 811  : 	{ CNode* pNode = (CNode*) rPosition;

  0020a	8b 4d 08	 mov	 ecx, DWORD PTR _jPos$1$[ebp]
; File D:\git\src\IBK\IBK_DRFN\ProjSrc\SrcDrfn\Chart\comparechart\CodeDataFromInputBar.cpp

; 265  : 			szKey.Format("szCode%02d", j);

  0020d	8d 45 f4	 lea	 eax, DWORD PTR _szKey$[ebp]
  00210	ff 75 0c	 push	 DWORD PTR _j$1$[ebp]
  00213	68 00 00 00 00	 push	 OFFSET ??_C@_0L@ELDNDPC@szCode?$CF02d@
  00218	8b 79 08	 mov	 edi, DWORD PTR [ecx+8]
; File C:\Program Files (x86)\Microsoft Visual Studio\2019\Community\VC\Tools\MSVC\14.29.30133\atlmfc\include\afxtempl.h

; 813  : 		rPosition = (POSITION) pNode->pNext;

  0021b	8b 09		 mov	 ecx, DWORD PTR [ecx]
; File D:\git\src\IBK\IBK_DRFN\ProjSrc\SrcDrfn\Chart\comparechart\CodeDataFromInputBar.cpp

; 265  : 			szKey.Format("szCode%02d", j);

  0021d	50		 push	 eax
; File C:\Program Files (x86)\Microsoft Visual Studio\2019\Community\VC\Tools\MSVC\14.29.30133\atlmfc\include\afxtempl.h

; 813  : 		rPosition = (POSITION) pNode->pNext;

  0021e	89 4d 08	 mov	 DWORD PTR _jPos$1$[ebp], ecx
; File D:\git\src\IBK\IBK_DRFN\ProjSrc\SrcDrfn\Chart\comparechart\CodeDataFromInputBar.cpp

; 265  : 			szKey.Format("szCode%02d", j);

  00221	ff d6		 call	 esi
  00223	83 c4 0c	 add	 esp, 12			; 0000000cH

; 266  : 			::WritePrivateProfileString(szSect, szKey, pSubItem->m_szCode, m_szDataFile);

  00226	ff 73 04	 push	 DWORD PTR [ebx+4]
  00229	ff 37		 push	 DWORD PTR [edi]
  0022b	ff 75 f4	 push	 DWORD PTR _szKey$[ebp]
  0022e	ff 75 f8	 push	 DWORD PTR _szSect$[ebp]
  00231	ff 15 00 00 00
	00		 call	 DWORD PTR __imp__WritePrivateProfileStringA@16

; 267  : 
; 268  : 			szKey.Format("szCodeName%02d", j);

  00237	ff 75 0c	 push	 DWORD PTR _j$1$[ebp]
  0023a	8d 45 f4	 lea	 eax, DWORD PTR _szKey$[ebp]
  0023d	68 00 00 00 00	 push	 OFFSET ??_C@_0P@ONCKANHF@szCodeName?$CF02d@
  00242	50		 push	 eax
  00243	ff d6		 call	 esi
  00245	83 c4 0c	 add	 esp, 12			; 0000000cH

; 269  : 			::WritePrivateProfileString(szSect, szKey, pSubItem->m_szCodeName, m_szDataFile);

  00248	ff 73 04	 push	 DWORD PTR [ebx+4]
  0024b	ff 77 04	 push	 DWORD PTR [edi+4]
  0024e	ff 75 f4	 push	 DWORD PTR _szKey$[ebp]
  00251	ff 75 f8	 push	 DWORD PTR _szSect$[ebp]
  00254	ff 15 00 00 00
	00		 call	 DWORD PTR __imp__WritePrivateProfileStringA@16

; 270  : 
; 271  : 			szKey.Format("clr%02d", j);

  0025a	ff 75 0c	 push	 DWORD PTR _j$1$[ebp]
  0025d	8d 45 f4	 lea	 eax, DWORD PTR _szKey$[ebp]
  00260	68 00 00 00 00	 push	 OFFSET ??_C@_07BBDBMKBN@clr?$CF02d@
  00265	50		 push	 eax
  00266	ff d6		 call	 esi

; 272  : 			szData.Format("%ld", pSubItem->m_clr);

  00268	ff 77 08	 push	 DWORD PTR [edi+8]
  0026b	8d 45 fc	 lea	 eax, DWORD PTR _szData$[ebp]
  0026e	68 00 00 00 00	 push	 OFFSET ??_C@_03JALODAI@?$CFld@
  00273	50		 push	 eax
  00274	ff d6		 call	 esi
  00276	83 c4 18	 add	 esp, 24			; 00000018H

; 273  : 			::WritePrivateProfileString(szSect, szKey, szData, m_szDataFile);

  00279	ff 73 04	 push	 DWORD PTR [ebx+4]
  0027c	ff 75 fc	 push	 DWORD PTR _szData$[ebp]
  0027f	ff 75 f4	 push	 DWORD PTR _szKey$[ebp]
  00282	ff 75 f8	 push	 DWORD PTR _szSect$[ebp]
  00285	ff 15 00 00 00
	00		 call	 DWORD PTR __imp__WritePrivateProfileStringA@16

; 274  : 
; 275  : 			szKey.Format("nDrawStyle%02d", j);

  0028b	ff 75 0c	 push	 DWORD PTR _j$1$[ebp]
  0028e	8d 45 f4	 lea	 eax, DWORD PTR _szKey$[ebp]
  00291	68 00 00 00 00	 push	 OFFSET ??_C@_0P@OGBKCNGF@nDrawStyle?$CF02d@
  00296	50		 push	 eax
  00297	ff d6		 call	 esi

; 276  : 			szData.Format("%d", pSubItem->m_nDrawStyle);

  00299	ff 77 0c	 push	 DWORD PTR [edi+12]
  0029c	8d 45 fc	 lea	 eax, DWORD PTR _szData$[ebp]
  0029f	68 00 00 00 00	 push	 OFFSET ??_C@_02DPKJAMEF@?$CFd@
  002a4	50		 push	 eax
  002a5	ff d6		 call	 esi
  002a7	83 c4 18	 add	 esp, 24			; 00000018H

; 277  : 			::WritePrivateProfileString(szSect, szKey, szData, m_szDataFile);

  002aa	ff 73 04	 push	 DWORD PTR [ebx+4]
  002ad	ff 75 fc	 push	 DWORD PTR _szData$[ebp]
  002b0	ff 75 f4	 push	 DWORD PTR _szKey$[ebp]
  002b3	ff 75 f8	 push	 DWORD PTR _szSect$[ebp]
  002b6	ff 15 00 00 00
	00		 call	 DWORD PTR __imp__WritePrivateProfileStringA@16

; 278  : 
; 279  : 			szKey.Format("nThickness%02d", j);

  002bc	ff 75 0c	 push	 DWORD PTR _j$1$[ebp]
  002bf	8d 45 f4	 lea	 eax, DWORD PTR _szKey$[ebp]
  002c2	68 00 00 00 00	 push	 OFFSET ??_C@_0P@DLBEDDKE@nThickness?$CF02d@
  002c7	50		 push	 eax
  002c8	ff d6		 call	 esi

; 280  : 			szData.Format("%d", pSubItem->m_nThickness);

  002ca	ff 77 10	 push	 DWORD PTR [edi+16]
  002cd	8d 45 fc	 lea	 eax, DWORD PTR _szData$[ebp]
  002d0	68 00 00 00 00	 push	 OFFSET ??_C@_02DPKJAMEF@?$CFd@
  002d5	50		 push	 eax
  002d6	ff d6		 call	 esi
  002d8	83 c4 18	 add	 esp, 24			; 00000018H

; 281  : 			::WritePrivateProfileString(szSect, szKey, szData, m_szDataFile);

  002db	ff 73 04	 push	 DWORD PTR [ebx+4]
  002de	ff 75 fc	 push	 DWORD PTR _szData$[ebp]
  002e1	ff 75 f4	 push	 DWORD PTR _szKey$[ebp]
  002e4	ff 75 f8	 push	 DWORD PTR _szSect$[ebp]
  002e7	8b 3d 00 00 00
	00		 mov	 edi, DWORD PTR __imp__WritePrivateProfileStringA@16
  002ed	ff d7		 call	 edi
  002ef	ff 45 0c	 inc	 DWORD PTR _j$1$[ebp]
  002f2	83 7d 08 00	 cmp	 DWORD PTR _jPos$1$[ebp], 0
  002f6	8b 4d ec	 mov	 ecx, DWORD PTR _pGroupData$1$[ebp]
  002f9	0f 85 f1 fe ff
	ff		 jne	 $LL7@SaveData
$LN2@SaveData:

; 244  : 	int i=0;
; 245  : 	for(POSITION iPos=pSTData->m_GroupList.GetHeadPosition(); iPos; i++)

  002ff	8b 4d e8	 mov	 ecx, DWORD PTR _i$1$[ebp]
  00302	41		 inc	 ecx
  00303	83 7d f0 00	 cmp	 DWORD PTR _iPos$1$[ebp], 0
  00307	89 4d e8	 mov	 DWORD PTR _i$1$[ebp], ecx
  0030a	0f 85 87 fe ff
	ff		 jne	 $LL4@SaveData
$LN3@SaveData:

; 282  : 		}
; 283  : 	}
; 284  : }

  00310	8d 4d f4	 lea	 ecx, DWORD PTR _szKey$[ebp]
  00313	ff 15 00 00 00
	00		 call	 DWORD PTR __imp_??1?$CStringT@DV?$StrTraitMFC_DLL@DV?$ChTraitsCRT@D@ATL@@@@@ATL@@QAE@XZ
  00319	8d 4d fc	 lea	 ecx, DWORD PTR _szData$[ebp]
  0031c	ff 15 00 00 00
	00		 call	 DWORD PTR __imp_??1?$CStringT@DV?$StrTraitMFC_DLL@DV?$ChTraitsCRT@D@ATL@@@@@ATL@@QAE@XZ
  00322	8d 4d f8	 lea	 ecx, DWORD PTR _szSect$[ebp]
  00325	ff 15 00 00 00
	00		 call	 DWORD PTR __imp_??1?$CStringT@DV?$StrTraitMFC_DLL@DV?$ChTraitsCRT@D@ATL@@@@@ATL@@QAE@XZ
  0032b	5f		 pop	 edi
  0032c	5e		 pop	 esi
  0032d	5b		 pop	 ebx
  0032e	8b e5		 mov	 esp, ebp
  00330	5d		 pop	 ebp
  00331	c2 08 00	 ret	 8
?SaveData@CDlgCompDataHandle@@UAGXJ@Z ENDP		; CDlgCompDataHandle::SaveData
_TEXT	ENDS
; Function compile flags: /Ogtp
; File D:\git\src\IBK\IBK_DRFN\ProjSrc\SrcDrfn\Chart\comparechart\CodeDataFromInputBar.cpp
; File C:\Program Files (x86)\Microsoft Visual Studio\2019\Community\VC\Tools\MSVC\14.29.30133\atlmfc\include\afxtempl.h
; File D:\git\src\IBK\IBK_DRFN\ProjSrc\SrcDrfn\Chart\comparechart\CodeDataFromInputBar.cpp
; File C:\Program Files (x86)\Microsoft Visual Studio\2019\Community\VC\Tools\MSVC\14.29.30133\atlmfc\include\afxtempl.h
; File D:\git\src\IBK\IBK_DRFN\ProjSrc\SrcDrfn\Chart\comparechart\CodeDataFromInputBar.cpp
; File C:\Program Files (x86)\Microsoft Visual Studio\2019\Community\VC\Tools\MSVC\14.29.30133\atlmfc\include\afxtempl.h
; File D:\git\src\IBK\IBK_DRFN\ProjSrc\SrcDrfn\Chart\comparechart\CodeDataFromInputBar.cpp
; File C:\Program Files (x86)\Microsoft Visual Studio\2019\Community\VC\Tools\MSVC\14.29.30133\atlmfc\include\afxtempl.h
; File D:\git\src\IBK\IBK_DRFN\ProjSrc\SrcDrfn\Chart\comparechart\CodeDataFromInputBar.cpp
;	COMDAT ?LoadData@CDlgCompDataHandle@@UAGXJ@Z
_TEXT	SEGMENT
_nItemCnt$1$ = -296					; size = 4
_pPrev$1$ = -292					; size = 4
_i$1$ = -288						; size = 4
_pDataKey$GSCopy$1$ = -284				; size = 4
_j$1$ = -280						; size = 4
_this$GSCopy$1$ = -276					; size = 4
_szKey$ = -272						; size = 4
_szSect$ = -268						; size = 4
_szTemp$ = -264						; size = 260
__$ArrayPad$ = -4					; size = 4
_this$ = 8						; size = 4
_pDataKey$ = 12						; size = 4
?LoadData@CDlgCompDataHandle@@UAGXJ@Z PROC		; CDlgCompDataHandle::LoadData, COMDAT

; 106  : {

  00000	55		 push	 ebp
  00001	8b ec		 mov	 ebp, esp
  00003	81 ec 28 01 00
	00		 sub	 esp, 296		; 00000128H
  00009	a1 00 00 00 00	 mov	 eax, DWORD PTR ___security_cookie
  0000e	33 c5		 xor	 eax, ebp
  00010	89 45 fc	 mov	 DWORD PTR __$ArrayPad$[ebp], eax
  00013	53		 push	 ebx
  00014	8b 5d 08	 mov	 ebx, DWORD PTR _this$[ebp]

; 107  : 	STDlgCompData* pSTData = (STDlgCompData*)pDataKey;
; 108  : 
; 109  : 	CString szSect("Fluctuation");

  00017	8d 8d f4 fe ff
	ff		 lea	 ecx, DWORD PTR _szSect$[ebp]
  0001d	56		 push	 esi
  0001e	57		 push	 edi
  0001f	8b 7d 0c	 mov	 edi, DWORD PTR _pDataKey$[ebp]
  00022	68 00 00 00 00	 push	 OFFSET ??_C@_0M@NDFPFEGJ@Fluctuation@
  00027	89 9d ec fe ff
	ff		 mov	 DWORD PTR _this$GSCopy$1$[ebp], ebx
  0002d	89 bd e4 fe ff
	ff		 mov	 DWORD PTR _pDataKey$GSCopy$1$[ebp], edi
  00033	ff 15 00 00 00
	00		 call	 DWORD PTR __imp_??0?$CStringT@DV?$StrTraitMFC_DLL@DV?$ChTraitsCRT@D@ATL@@@@@ATL@@QAE@PBD@Z

; 110  : 	char szTemp[MAX_PATH]={0,};

  00039	68 04 01 00 00	 push	 260			; 00000104H
  0003e	8d 85 f8 fe ff
	ff		 lea	 eax, DWORD PTR _szTemp$[ebp]
  00044	6a 00		 push	 0
  00046	50		 push	 eax
  00047	e8 00 00 00 00	 call	 _memset

; 111  : 
; 112  : 	//비교 기준값. 0:전일종가,1:당일시가,1:현재가
; 113  : 	pSTData->m_nBase = ::GetPrivateProfileInt(szSect, "nBase", 0, m_szDataFile);

  0004c	8b 35 00 00 00
	00		 mov	 esi, DWORD PTR __imp__GetPrivateProfileIntA@16
  00052	83 c4 0c	 add	 esp, 12			; 0000000cH
  00055	ff 73 04	 push	 DWORD PTR [ebx+4]
  00058	6a 00		 push	 0
  0005a	68 00 00 00 00	 push	 OFFSET ??_C@_05JDFHOCNC@nBase@
  0005f	ff b5 f4 fe ff
	ff		 push	 DWORD PTR _szSect$[ebp]
  00065	ff d6		 call	 esi
  00067	89 47 20	 mov	 DWORD PTR [edi+32], eax

; 114  : 
; 115  : 	// 돌려보기(몇초인지)
; 116  : 	pSTData->m_nTimer = ::GetPrivateProfileInt(szSect, "nTimer", 5, m_szDataFile);

  0006a	ff 73 04	 push	 DWORD PTR [ebx+4]
  0006d	6a 05		 push	 5
  0006f	68 00 00 00 00	 push	 OFFSET ??_C@_06CAHOHFIF@nTimer@
  00074	ff b5 f4 fe ff
	ff		 push	 DWORD PTR _szSect$[ebp]
  0007a	ff d6		 call	 esi
  0007c	89 47 24	 mov	 DWORD PTR [edi+36], eax

; 117  : 	
; 118  : 	//현재가(종가)표시 여부
; 119  : 	pSTData->m_bCurDisp = ::GetPrivateProfileInt(szSect, "bCurDisp", 1, m_szDataFile);

  0007f	ff 73 04	 push	 DWORD PTR [ebx+4]
  00082	6a 01		 push	 1
  00084	68 00 00 00 00	 push	 OFFSET ??_C@_08KGBODNME@bCurDisp@
  00089	ff b5 f4 fe ff
	ff		 push	 DWORD PTR _szSect$[ebp]
  0008f	ff d6		 call	 esi
  00091	89 47 28	 mov	 DWORD PTR [edi+40], eax

; 120  : 
; 121  : 	// 몇분봉인지.
; 122  : 	pSTData->m_nTypeUnit = ::GetPrivateProfileInt(szSect, "nTypeUnit", 1, m_szDataFile);

  00094	ff 73 04	 push	 DWORD PTR [ebx+4]
  00097	6a 01		 push	 1
  00099	68 00 00 00 00	 push	 OFFSET ??_C@_09NMPEPLJP@nTypeUnit@
  0009e	ff b5 f4 fe ff
	ff		 push	 DWORD PTR _szSect$[ebp]
  000a4	ff d6		 call	 esi

; 123  : 
; 124  : 	// SelectGroup
; 125  : 	::GetPrivateProfileString(szSect, "SelectGroup", "", szTemp, MAX_PATH, m_szDataFile);

  000a6	8b 35 00 00 00
	00		 mov	 esi, DWORD PTR __imp__GetPrivateProfileStringA@24
  000ac	89 47 2c	 mov	 DWORD PTR [edi+44], eax
  000af	8d 85 f8 fe ff
	ff		 lea	 eax, DWORD PTR _szTemp$[ebp]
  000b5	ff 73 04	 push	 DWORD PTR [ebx+4]
  000b8	68 04 01 00 00	 push	 260			; 00000104H
  000bd	50		 push	 eax
  000be	68 00 00 00 00	 push	 OFFSET ??_C@_00CNPNBAHC@@
  000c3	68 00 00 00 00	 push	 OFFSET ??_C@_0M@PKCPEFAA@SelectGroup@
  000c8	ff b5 f4 fe ff
	ff		 push	 DWORD PTR _szSect$[ebp]
  000ce	ff d6		 call	 esi

; 126  : 	pSTData->m_szSelectGroup = szTemp;

  000d0	8d 85 f8 fe ff
	ff		 lea	 eax, DWORD PTR _szTemp$[ebp]
  000d6	50		 push	 eax
  000d7	8d 4f 30	 lea	 ecx, DWORD PTR [edi+48]
  000da	ff 15 00 00 00
	00		 call	 DWORD PTR __imp_??4?$CStringT@DV?$StrTraitMFC_DLL@DV?$ChTraitsCRT@D@ATL@@@@@ATL@@QAEAAV01@PBD@Z

; 127  : 
; 128  : 	// SelectCode, 개별종목보기이거나 돌려보기일때 유효
; 129  : 	::GetPrivateProfileString(szSect, "szSelCode", "", szTemp, MAX_PATH, m_szDataFile);

  000e0	ff 73 04	 push	 DWORD PTR [ebx+4]
  000e3	8d 85 f8 fe ff
	ff		 lea	 eax, DWORD PTR _szTemp$[ebp]
  000e9	68 04 01 00 00	 push	 260			; 00000104H
  000ee	50		 push	 eax
  000ef	68 00 00 00 00	 push	 OFFSET ??_C@_00CNPNBAHC@@
  000f4	68 00 00 00 00	 push	 OFFSET ??_C@_09DCNFIBMN@szSelCode@
  000f9	ff b5 f4 fe ff
	ff		 push	 DWORD PTR _szSect$[ebp]
  000ff	ff d6		 call	 esi

; 130  : 	pSTData->m_szSelCode = szTemp;

  00101	8d 85 f8 fe ff
	ff		 lea	 eax, DWORD PTR _szTemp$[ebp]
  00107	50		 push	 eax
  00108	8d 4f 34	 lea	 ecx, DWORD PTR [edi+52]
  0010b	ff 15 00 00 00
	00		 call	 DWORD PTR __imp_??4?$CStringT@DV?$StrTraitMFC_DLL@DV?$ChTraitsCRT@D@ATL@@@@@ATL@@QAEAAV01@PBD@Z

; 131  : 
; 132  : 	// 보기형태 기본그룹(1)/개별종목(0)
; 133  : 	// 돌려보기를 사용하면 개별종목보기로 셋팅됨.
; 134  : 	// 메뉴에서 선택시 개별적으로 정보가 저장되어야 함.
; 135  : 	pSTData->m_bShowAll = ::GetPrivateProfileInt(szSect, "bShowAll", 0, m_szDataFile);

  00111	ff 73 04	 push	 DWORD PTR [ebx+4]
  00114	8b 35 00 00 00
	00		 mov	 esi, DWORD PTR __imp__GetPrivateProfileIntA@16
  0011a	6a 00		 push	 0
  0011c	68 00 00 00 00	 push	 OFFSET ??_C@_08BBOOBMDD@bShowAll@
  00121	ff b5 f4 fe ff
	ff		 push	 DWORD PTR _szSect$[ebp]
  00127	ff d6		 call	 esi
  00129	89 47 3c	 mov	 DWORD PTR [edi+60], eax

; 136  : 
; 137  : 	//돌려보기 사용
; 138  : 	// 메뉴에서 선택시 개별적으로 정보가 저장되어야 함.
; 139  : 	pSTData->m_bTimerUse = ::GetPrivateProfileInt(szSect, "bTimerUse", 0, m_szDataFile);

  0012c	ff 73 04	 push	 DWORD PTR [ebx+4]
  0012f	6a 00		 push	 0
  00131	68 00 00 00 00	 push	 OFFSET ??_C@_09KKNJFODG@bTimerUse@
  00136	ff b5 f4 fe ff
	ff		 push	 DWORD PTR _szSect$[ebp]
  0013c	ff d6		 call	 esi

; 140  : 	if(pSTData->m_nTimer<=0)

  0013e	83 7f 24 00	 cmp	 DWORD PTR [edi+36], 0
  00142	89 47 40	 mov	 DWORD PTR [edi+64], eax
  00145	7f 07		 jg	 SHORT $LN8@LoadData

; 141  : 		pSTData->m_bTimerUse = 0; //돌려보기 값이상하면 돌려보기 0으로 셋팅함.

  00147	c7 47 40 00 00
	00 00		 mov	 DWORD PTR [edi+64], 0
$LN8@LoadData:

; 142  : 
; 143  : 	// GroupCount
; 144  : 	pSTData->m_nGroupCnt = ::GetPrivateProfileInt(szSect, "nGroupCnt", 0, m_szDataFile);

  0014e	ff 73 04	 push	 DWORD PTR [ebx+4]
  00151	6a 00		 push	 0
  00153	68 00 00 00 00	 push	 OFFSET ??_C@_09NIKFLGND@nGroupCnt@
  00158	ff b5 f4 fe ff
	ff		 push	 DWORD PTR _szSect$[ebp]
  0015e	ff d6		 call	 esi

; 145  : 
; 146  : 	CString szKey;

  00160	8d 8d f0 fe ff
	ff		 lea	 ecx, DWORD PTR _szKey$[ebp]
  00166	89 47 1c	 mov	 DWORD PTR [edi+28], eax
  00169	ff 15 00 00 00
	00		 call	 DWORD PTR __imp_??0?$CStringT@DV?$StrTraitMFC_DLL@DV?$ChTraitsCRT@D@ATL@@@@@ATL@@QAE@XZ

; 147  : 	int nItemCnt=0;
; 148  : 	for(int i=0; i<pSTData->m_nGroupCnt; i++)

  0016f	8b 85 e4 fe ff
	ff		 mov	 eax, DWORD PTR _pDataKey$GSCopy$1$[ebp]
  00175	33 ff		 xor	 edi, edi
  00177	89 bd e0 fe ff
	ff		 mov	 DWORD PTR _i$1$[ebp], edi
  0017d	39 78 1c	 cmp	 DWORD PTR [eax+28], edi
  00180	0f 8e 27 03 00
	00		 jle	 $LN127@LoadData
$LL4@LoadData:

; 150  : 		CDlgCompGroupData* pGroupData = new CDlgCompGroupData;

  00186	6a 20		 push	 32			; 00000020H
  00188	e8 00 00 00 00	 call	 ??2@YAPAXI@Z		; operator new
  0018d	8b f0		 mov	 esi, eax
  0018f	83 c4 04	 add	 esp, 4
  00192	85 f6		 test	 esi, esi
  00194	74 3b		 je	 SHORT $LN10@LoadData
  00196	8b ce		 mov	 ecx, esi
  00198	ff 15 00 00 00
	00		 call	 DWORD PTR __imp_??0?$CStringT@DV?$StrTraitMFC_DLL@DV?$ChTraitsCRT@D@ATL@@@@@ATL@@QAE@XZ
; File C:\Program Files (x86)\Microsoft Visual Studio\2019\Community\VC\Tools\MSVC\14.29.30133\atlmfc\include\afxtempl.h

; 851  : {

  0019e	c7 46 04 00 00
	00 00		 mov	 DWORD PTR [esi+4], OFFSET ??_7?$CList@PAVCDlgCompSubItem@@PAV1@@@6B@

; 852  : 	ASSERT(nBlockSize > 0);
; 853  : 
; 854  : 	m_nCount = 0;

  001a5	c7 46 10 00 00
	00 00		 mov	 DWORD PTR [esi+16], 0

; 855  : 	m_pNodeHead = m_pNodeTail = m_pNodeFree = NULL;

  001ac	c7 46 14 00 00
	00 00		 mov	 DWORD PTR [esi+20], 0
  001b3	c7 46 0c 00 00
	00 00		 mov	 DWORD PTR [esi+12], 0
  001ba	c7 46 08 00 00
	00 00		 mov	 DWORD PTR [esi+8], 0

; 856  : 	m_pBlocks = NULL;

  001c1	c7 46 18 00 00
	00 00		 mov	 DWORD PTR [esi+24], 0

; 857  : 	m_nBlockSize = nBlockSize;

  001c8	c7 46 1c 0a 00
	00 00		 mov	 DWORD PTR [esi+28], 10	; 0000000aH
; File D:\git\src\IBK\IBK_DRFN\ProjSrc\SrcDrfn\Chart\comparechart\CodeDataFromInputBar.cpp

; 150  : 		CDlgCompGroupData* pGroupData = new CDlgCompGroupData;

  001cf	eb 02		 jmp	 SHORT $LN11@LoadData
$LN10@LoadData:
  001d1	33 f6		 xor	 esi, esi
$LN11@LoadData:

; 151  : 
; 152  : 		szKey.Format("FGroup%02d", i);

  001d3	57		 push	 edi
  001d4	8d 85 f0 fe ff
	ff		 lea	 eax, DWORD PTR _szKey$[ebp]
  001da	68 00 00 00 00	 push	 OFFSET ??_C@_0L@GLHLONOH@FGroup?$CF02d@
  001df	50		 push	 eax
  001e0	ff 15 00 00 00
	00		 call	 DWORD PTR __imp_?Format@?$CStringT@DV?$StrTraitMFC_DLL@DV?$ChTraitsCRT@D@ATL@@@@@ATL@@QAAXPBDZZ
  001e6	83 c4 0c	 add	 esp, 12			; 0000000cH

; 153  : 		szSect = szKey;

  001e9	8d 85 f0 fe ff
	ff		 lea	 eax, DWORD PTR _szKey$[ebp]
  001ef	8d 8d f4 fe ff
	ff		 lea	 ecx, DWORD PTR _szSect$[ebp]
  001f5	50		 push	 eax
  001f6	ff 15 00 00 00
	00		 call	 DWORD PTR __imp_??4?$CStringT@DV?$StrTraitMFC_DLL@DV?$ChTraitsCRT@D@ATL@@@@@ATL@@QAEAAV01@ABV01@@Z

; 154  : 		nItemCnt = ::GetPrivateProfileInt(szSect, "nItemCnt", 0, m_szDataFile);

  001fc	ff 73 04	 push	 DWORD PTR [ebx+4]
  001ff	6a 00		 push	 0
  00201	68 00 00 00 00	 push	 OFFSET ??_C@_08BKICBMIH@nItemCnt@
  00206	ff b5 f4 fe ff
	ff		 push	 DWORD PTR _szSect$[ebp]
  0020c	ff 15 00 00 00
	00		 call	 DWORD PTR __imp__GetPrivateProfileIntA@16

; 156  : 		for(int j=0; j<nItemCnt; j++)

  00212	33 ff		 xor	 edi, edi
  00214	89 85 d8 fe ff
	ff		 mov	 DWORD PTR _nItemCnt$1$[ebp], eax
  0021a	89 bd e8 fe ff
	ff		 mov	 DWORD PTR _j$1$[ebp], edi
  00220	85 c0		 test	 eax, eax
  00222	0f 8e 61 02 00
	00		 jle	 $LN6@LoadData
  00228	0f 1f 84 00 00
	00 00 00	 npad	 8
$LL7@LoadData:

; 157  : 		{
; 158  : 			::GetPrivateProfileString(szSect, "szGroupName", "", szTemp, MAX_PATH, m_szDataFile);

  00230	ff 73 04	 push	 DWORD PTR [ebx+4]
  00233	8d 85 f8 fe ff
	ff		 lea	 eax, DWORD PTR _szTemp$[ebp]
  00239	68 04 01 00 00	 push	 260			; 00000104H
  0023e	50		 push	 eax
  0023f	68 00 00 00 00	 push	 OFFSET ??_C@_00CNPNBAHC@@
  00244	68 00 00 00 00	 push	 OFFSET ??_C@_0M@OJCFGGOM@szGroupName@
  00249	ff b5 f4 fe ff
	ff		 push	 DWORD PTR _szSect$[ebp]
  0024f	ff 15 00 00 00
	00		 call	 DWORD PTR __imp__GetPrivateProfileStringA@24

; 159  : 			pGroupData->m_szGroupName = szTemp;

  00255	8d 85 f8 fe ff
	ff		 lea	 eax, DWORD PTR _szTemp$[ebp]
  0025b	8b ce		 mov	 ecx, esi
  0025d	50		 push	 eax
  0025e	ff 15 00 00 00
	00		 call	 DWORD PTR __imp_??4?$CStringT@DV?$StrTraitMFC_DLL@DV?$ChTraitsCRT@D@ATL@@@@@ATL@@QAEAAV01@PBD@Z

; 160  : 
; 161  : 			CDlgCompSubItem* pSubItem = new CDlgCompSubItem;

  00264	6a 14		 push	 20			; 00000014H
  00266	e8 00 00 00 00	 call	 ??2@YAPAXI@Z		; operator new
  0026b	8b d8		 mov	 ebx, eax
  0026d	83 c4 04	 add	 esp, 4
  00270	85 db		 test	 ebx, ebx
  00272	74 13		 je	 SHORT $LN12@LoadData
  00274	8b cb		 mov	 ecx, ebx
  00276	ff 15 00 00 00
	00		 call	 DWORD PTR __imp_??0?$CStringT@DV?$StrTraitMFC_DLL@DV?$ChTraitsCRT@D@ATL@@@@@ATL@@QAE@XZ
  0027c	8d 4b 04	 lea	 ecx, DWORD PTR [ebx+4]
  0027f	ff 15 00 00 00
	00		 call	 DWORD PTR __imp_??0?$CStringT@DV?$StrTraitMFC_DLL@DV?$ChTraitsCRT@D@ATL@@@@@ATL@@QAE@XZ
  00285	eb 02		 jmp	 SHORT $LN13@LoadData
$LN12@LoadData:
  00287	33 db		 xor	 ebx, ebx
$LN13@LoadData:

; 162  : 
; 163  : 			szKey.Format("szCode%02d", j);

  00289	57		 push	 edi
  0028a	8d 85 f0 fe ff
	ff		 lea	 eax, DWORD PTR _szKey$[ebp]
  00290	68 00 00 00 00	 push	 OFFSET ??_C@_0L@ELDNDPC@szCode?$CF02d@
  00295	50		 push	 eax
  00296	ff 15 00 00 00
	00		 call	 DWORD PTR __imp_?Format@?$CStringT@DV?$StrTraitMFC_DLL@DV?$ChTraitsCRT@D@ATL@@@@@ATL@@QAAXPBDZZ

; 164  : 			::GetPrivateProfileString(szSect, szKey, "", szTemp, MAX_PATH, m_szDataFile);

  0029c	8b 85 ec fe ff
	ff		 mov	 eax, DWORD PTR _this$GSCopy$1$[ebp]
  002a2	83 c4 0c	 add	 esp, 12			; 0000000cH
  002a5	ff 70 04	 push	 DWORD PTR [eax+4]
  002a8	8d 85 f8 fe ff
	ff		 lea	 eax, DWORD PTR _szTemp$[ebp]
  002ae	68 04 01 00 00	 push	 260			; 00000104H
  002b3	50		 push	 eax
  002b4	68 00 00 00 00	 push	 OFFSET ??_C@_00CNPNBAHC@@
  002b9	ff b5 f0 fe ff
	ff		 push	 DWORD PTR _szKey$[ebp]
  002bf	ff b5 f4 fe ff
	ff		 push	 DWORD PTR _szSect$[ebp]
  002c5	ff 15 00 00 00
	00		 call	 DWORD PTR __imp__GetPrivateProfileStringA@24

; 165  : 			pSubItem->m_szCode = szTemp;

  002cb	8d 85 f8 fe ff
	ff		 lea	 eax, DWORD PTR _szTemp$[ebp]
  002d1	8b cb		 mov	 ecx, ebx
  002d3	50		 push	 eax
  002d4	ff 15 00 00 00
	00		 call	 DWORD PTR __imp_??4?$CStringT@DV?$StrTraitMFC_DLL@DV?$ChTraitsCRT@D@ATL@@@@@ATL@@QAEAAV01@PBD@Z

; 166  : 
; 167  : 			szKey.Format("szCodeName%02d", j);

  002da	57		 push	 edi
  002db	8d 85 f0 fe ff
	ff		 lea	 eax, DWORD PTR _szKey$[ebp]
  002e1	68 00 00 00 00	 push	 OFFSET ??_C@_0P@ONCKANHF@szCodeName?$CF02d@
  002e6	50		 push	 eax
  002e7	ff 15 00 00 00
	00		 call	 DWORD PTR __imp_?Format@?$CStringT@DV?$StrTraitMFC_DLL@DV?$ChTraitsCRT@D@ATL@@@@@ATL@@QAAXPBDZZ

; 168  : 			::GetPrivateProfileString(szSect, szKey, "", szTemp, MAX_PATH, m_szDataFile);

  002ed	8b 85 ec fe ff
	ff		 mov	 eax, DWORD PTR _this$GSCopy$1$[ebp]
  002f3	83 c4 0c	 add	 esp, 12			; 0000000cH
  002f6	ff 70 04	 push	 DWORD PTR [eax+4]
  002f9	8d 85 f8 fe ff
	ff		 lea	 eax, DWORD PTR _szTemp$[ebp]
  002ff	68 04 01 00 00	 push	 260			; 00000104H
  00304	50		 push	 eax
  00305	68 00 00 00 00	 push	 OFFSET ??_C@_00CNPNBAHC@@
  0030a	ff b5 f0 fe ff
	ff		 push	 DWORD PTR _szKey$[ebp]
  00310	ff b5 f4 fe ff
	ff		 push	 DWORD PTR _szSect$[ebp]
  00316	ff 15 00 00 00
	00		 call	 DWORD PTR __imp__GetPrivateProfileStringA@24

; 169  : 			pSubItem->m_szCodeName = szTemp;

  0031c	8d 85 f8 fe ff
	ff		 lea	 eax, DWORD PTR _szTemp$[ebp]
  00322	50		 push	 eax
  00323	8d 4b 04	 lea	 ecx, DWORD PTR [ebx+4]
  00326	ff 15 00 00 00
	00		 call	 DWORD PTR __imp_??4?$CStringT@DV?$StrTraitMFC_DLL@DV?$ChTraitsCRT@D@ATL@@@@@ATL@@QAEAAV01@PBD@Z

; 170  : 
; 171  : 			szKey.Format("clr%02d", j);

  0032c	57		 push	 edi
  0032d	8d 85 f0 fe ff
	ff		 lea	 eax, DWORD PTR _szKey$[ebp]
  00333	68 00 00 00 00	 push	 OFFSET ??_C@_07BBDBMKBN@clr?$CF02d@
  00338	50		 push	 eax
  00339	ff 15 00 00 00
	00		 call	 DWORD PTR __imp_?Format@?$CStringT@DV?$StrTraitMFC_DLL@DV?$ChTraitsCRT@D@ATL@@@@@ATL@@QAAXPBDZZ

; 172  : 			::GetPrivateProfileString(szSect, szKey, "", szTemp, MAX_PATH, m_szDataFile);

  0033f	8b 85 ec fe ff
	ff		 mov	 eax, DWORD PTR _this$GSCopy$1$[ebp]
  00345	83 c4 0c	 add	 esp, 12			; 0000000cH
  00348	ff 70 04	 push	 DWORD PTR [eax+4]
  0034b	8d 85 f8 fe ff
	ff		 lea	 eax, DWORD PTR _szTemp$[ebp]
  00351	68 04 01 00 00	 push	 260			; 00000104H
  00356	50		 push	 eax
  00357	68 00 00 00 00	 push	 OFFSET ??_C@_00CNPNBAHC@@
  0035c	ff b5 f0 fe ff
	ff		 push	 DWORD PTR _szKey$[ebp]
  00362	ff b5 f4 fe ff
	ff		 push	 DWORD PTR _szSect$[ebp]
  00368	ff 15 00 00 00
	00		 call	 DWORD PTR __imp__GetPrivateProfileStringA@24

; 173  : 			pSubItem->m_clr = atol(szTemp);

  0036e	8d 85 f8 fe ff
	ff		 lea	 eax, DWORD PTR _szTemp$[ebp]
  00374	50		 push	 eax
  00375	ff 15 00 00 00
	00		 call	 DWORD PTR __imp__atol

; 174  : 
; 175  : 			szKey.Format("nDrawStyle%02d", j);

  0037b	57		 push	 edi
  0037c	89 43 08	 mov	 DWORD PTR [ebx+8], eax
  0037f	8d 85 f0 fe ff
	ff		 lea	 eax, DWORD PTR _szKey$[ebp]
  00385	68 00 00 00 00	 push	 OFFSET ??_C@_0P@OGBKCNGF@nDrawStyle?$CF02d@
  0038a	50		 push	 eax
  0038b	ff 15 00 00 00
	00		 call	 DWORD PTR __imp_?Format@?$CStringT@DV?$StrTraitMFC_DLL@DV?$ChTraitsCRT@D@ATL@@@@@ATL@@QAAXPBDZZ

; 176  : 			pSubItem->m_nDrawStyle = ::GetPrivateProfileInt(szSect, szKey, 0, m_szDataFile);

  00391	8b 85 ec fe ff
	ff		 mov	 eax, DWORD PTR _this$GSCopy$1$[ebp]
  00397	83 c4 10	 add	 esp, 16			; 00000010H
  0039a	ff 70 04	 push	 DWORD PTR [eax+4]
  0039d	6a 00		 push	 0
  0039f	ff b5 f0 fe ff
	ff		 push	 DWORD PTR _szKey$[ebp]
  003a5	ff b5 f4 fe ff
	ff		 push	 DWORD PTR _szSect$[ebp]
  003ab	ff 15 00 00 00
	00		 call	 DWORD PTR __imp__GetPrivateProfileIntA@16

; 177  : 
; 178  : 			szKey.Format("nThickness%02d", j);

  003b1	57		 push	 edi
  003b2	89 43 0c	 mov	 DWORD PTR [ebx+12], eax
  003b5	8d 85 f0 fe ff
	ff		 lea	 eax, DWORD PTR _szKey$[ebp]
  003bb	68 00 00 00 00	 push	 OFFSET ??_C@_0P@DLBEDDKE@nThickness?$CF02d@
  003c0	50		 push	 eax
  003c1	ff 15 00 00 00
	00		 call	 DWORD PTR __imp_?Format@?$CStringT@DV?$StrTraitMFC_DLL@DV?$ChTraitsCRT@D@ATL@@@@@ATL@@QAAXPBDZZ

; 179  : 			pSubItem->m_nThickness = ::GetPrivateProfileInt(szSect, szKey, 0, m_szDataFile);

  003c7	8b 85 ec fe ff
	ff		 mov	 eax, DWORD PTR _this$GSCopy$1$[ebp]
  003cd	83 c4 0c	 add	 esp, 12			; 0000000cH
  003d0	ff 70 04	 push	 DWORD PTR [eax+4]
  003d3	6a 00		 push	 0
  003d5	ff b5 f0 fe ff
	ff		 push	 DWORD PTR _szKey$[ebp]
  003db	ff b5 f4 fe ff
	ff		 push	 DWORD PTR _szSect$[ebp]
  003e1	ff 15 00 00 00
	00		 call	 DWORD PTR __imp__GetPrivateProfileIntA@16
  003e7	89 43 10	 mov	 DWORD PTR [ebx+16], eax
; File C:\Program Files (x86)\Microsoft Visual Studio\2019\Community\VC\Tools\MSVC\14.29.30133\atlmfc\include\afxtempl.h

; 902  : 	if (m_pNodeFree == NULL)

  003ea	8b 7e 14	 mov	 edi, DWORD PTR [esi+20]

; 968  : 	CNode* pNewNode = NewNode(m_pNodeTail, NULL);

  003ed	8b 46 0c	 mov	 eax, DWORD PTR [esi+12]
  003f0	89 85 dc fe ff
	ff		 mov	 DWORD PTR _pPrev$1$[ebp], eax

; 902  : 	if (m_pNodeFree == NULL)

  003f6	85 ff		 test	 edi, edi
  003f8	75 45		 jne	 SHORT $LN125@LoadData

; 903  : 	{
; 904  : 		// add another block
; 905  : 		CPlex* pNewBlock = CPlex::Create(m_pBlocks, m_nBlockSize,

  003fa	6a 0c		 push	 12			; 0000000cH
  003fc	ff 76 1c	 push	 DWORD PTR [esi+28]
  003ff	8d 46 18	 lea	 eax, DWORD PTR [esi+24]
  00402	50		 push	 eax
  00403	e8 00 00 00 00	 call	 ?Create@CPlex@@SGPAU1@AAPAU1@II@Z ; CPlex::Create

; 906  : 				 sizeof(CNode));
; 907  : 
; 908  : 		// chain them into free list
; 909  : 		CNode* pNode = (CNode*) pNewBlock->data();
; 910  : 		// free in reverse order to make it easier to debug
; 911  : 		pNode += m_nBlockSize - 1;

  00408	8b 56 1c	 mov	 edx, DWORD PTR [esi+28]
  0040b	83 c0 08	 add	 eax, 8
  0040e	8d 4a ff	 lea	 ecx, DWORD PTR [edx-1]

; 912  : 		for (INT_PTR i = m_nBlockSize-1; i >= 0; i--, pNode--)

  00411	83 c2 ff	 add	 edx, -1
  00414	8d 0c 49	 lea	 ecx, DWORD PTR [ecx+ecx*2]
  00417	8d 0c 88	 lea	 ecx, DWORD PTR [eax+ecx*4]
  0041a	78 18		 js	 SHORT $LN126@LoadData
  0041c	0f 1f 40 00	 npad	 4
$LL102@LoadData:

; 913  : 		{
; 914  : 			pNode->pNext = m_pNodeFree;

  00420	8b 46 14	 mov	 eax, DWORD PTR [esi+20]
  00423	8b f9		 mov	 edi, ecx
  00425	89 01		 mov	 DWORD PTR [ecx], eax

; 915  : 			m_pNodeFree = pNode;

  00427	89 4e 14	 mov	 DWORD PTR [esi+20], ecx
  0042a	83 e9 0c	 sub	 ecx, 12			; 0000000cH
  0042d	83 ea 01	 sub	 edx, 1
  00430	79 ee		 jns	 SHORT $LL102@LoadData
  00432	eb 03		 jmp	 SHORT $LN105@LoadData
$LN126@LoadData:
  00434	8b 7e 14	 mov	 edi, DWORD PTR [esi+20]
$LN105@LoadData:

; 918  : 	ENSURE(m_pNodeFree != NULL);  // we must have something

  00437	85 ff		 test	 edi, edi
  00439	0f 84 99 00 00
	00		 je	 $LN114@LoadData
$LN125@LoadData:

; 919  : 
; 920  : 	CList::CNode* pNode = m_pNodeFree;
; 921  : 	m_pNodeFree = m_pNodeFree->pNext;

  0043f	8b 07		 mov	 eax, DWORD PTR [edi]
  00441	89 46 14	 mov	 DWORD PTR [esi+20], eax

; 922  : 	pNode->pPrev = pPrev;

  00444	8b 85 dc fe ff
	ff		 mov	 eax, DWORD PTR _pPrev$1$[ebp]
  0044a	89 47 04	 mov	 DWORD PTR [edi+4], eax

; 923  : 	pNode->pNext = pNext;

  0044d	c7 07 00 00 00
	00		 mov	 DWORD PTR [edi], 0

; 924  : 	m_nCount++;

  00453	ff 46 10	 inc	 DWORD PTR [esi+16]

; 969  : 	pNewNode->data = newElement;

  00456	89 5f 08	 mov	 DWORD PTR [edi+8], ebx

; 970  : 	if (m_pNodeTail != NULL)

  00459	8b 46 0c	 mov	 eax, DWORD PTR [esi+12]
  0045c	85 c0		 test	 eax, eax
  0045e	74 04		 je	 SHORT $LN96@LoadData

; 971  : 		m_pNodeTail->pNext = pNewNode;

  00460	89 38		 mov	 DWORD PTR [eax], edi
  00462	eb 03		 jmp	 SHORT $LN97@LoadData
$LN96@LoadData:

; 972  : 	else
; 973  : 		m_pNodeHead = pNewNode;

  00464	89 7e 08	 mov	 DWORD PTR [esi+8], edi
$LN97@LoadData:
; File D:\git\src\IBK\IBK_DRFN\ProjSrc\SrcDrfn\Chart\comparechart\CodeDataFromInputBar.cpp

; 156  : 		for(int j=0; j<nItemCnt; j++)

  00467	8b 9d ec fe ff
	ff		 mov	 ebx, DWORD PTR _this$GSCopy$1$[ebp]
; File C:\Program Files (x86)\Microsoft Visual Studio\2019\Community\VC\Tools\MSVC\14.29.30133\atlmfc\include\afxtempl.h

; 974  : 	m_pNodeTail = pNewNode;

  0046d	89 7e 0c	 mov	 DWORD PTR [esi+12], edi
; File D:\git\src\IBK\IBK_DRFN\ProjSrc\SrcDrfn\Chart\comparechart\CodeDataFromInputBar.cpp

; 156  : 		for(int j=0; j<nItemCnt; j++)

  00470	8b bd e8 fe ff
	ff		 mov	 edi, DWORD PTR _j$1$[ebp]
  00476	47		 inc	 edi
  00477	89 bd e8 fe ff
	ff		 mov	 DWORD PTR _j$1$[ebp], edi
  0047d	3b bd d8 fe ff
	ff		 cmp	 edi, DWORD PTR _nItemCnt$1$[ebp]
  00483	0f 8c a7 fd ff
	ff		 jl	 $LL7@LoadData
$LN6@LoadData:

; 180  : 
; 181  : 			pGroupData->m_ItemList.AddTail(pSubItem);
; 182  : 		}
; 183  : 		pSTData->m_GroupList.AddTail(pGroupData);

  00489	56		 push	 esi
  0048a	8b b5 e4 fe ff
	ff		 mov	 esi, DWORD PTR _pDataKey$GSCopy$1$[ebp]
  00490	8b ce		 mov	 ecx, esi
  00492	e8 00 00 00 00	 call	 ?AddTail@?$CList@PAVCDlgCompGroupData@@PAV1@@@QAEPAU__POSITION@@PAVCDlgCompGroupData@@@Z ; CList<CDlgCompGroupData *,CDlgCompGroupData *>::AddTail
  00497	8b bd e0 fe ff
	ff		 mov	 edi, DWORD PTR _i$1$[ebp]
  0049d	47		 inc	 edi
  0049e	89 bd e0 fe ff
	ff		 mov	 DWORD PTR _i$1$[ebp], edi
  004a4	3b 7e 1c	 cmp	 edi, DWORD PTR [esi+28]
  004a7	0f 8c d9 fc ff
	ff		 jl	 $LL4@LoadData
$LN127@LoadData:

; 185  : }

  004ad	8d 8d f0 fe ff
	ff		 lea	 ecx, DWORD PTR _szKey$[ebp]
  004b3	ff 15 00 00 00
	00		 call	 DWORD PTR __imp_??1?$CStringT@DV?$StrTraitMFC_DLL@DV?$ChTraitsCRT@D@ATL@@@@@ATL@@QAE@XZ
  004b9	8d 8d f4 fe ff
	ff		 lea	 ecx, DWORD PTR _szSect$[ebp]
  004bf	ff 15 00 00 00
	00		 call	 DWORD PTR __imp_??1?$CStringT@DV?$StrTraitMFC_DLL@DV?$ChTraitsCRT@D@ATL@@@@@ATL@@QAE@XZ
  004c5	8b 4d fc	 mov	 ecx, DWORD PTR __$ArrayPad$[ebp]
  004c8	5f		 pop	 edi
  004c9	5e		 pop	 esi
  004ca	33 cd		 xor	 ecx, ebp
  004cc	5b		 pop	 ebx
  004cd	e8 00 00 00 00	 call	 @__security_check_cookie@4
  004d2	8b e5		 mov	 esp, ebp
  004d4	5d		 pop	 ebp
  004d5	c2 08 00	 ret	 8
$LN114@LoadData:
; File C:\Program Files (x86)\Microsoft Visual Studio\2019\Community\VC\Tools\MSVC\14.29.30133\atlmfc\include\afxtempl.h

; 918  : 	ENSURE(m_pNodeFree != NULL);  // we must have something

  004d8	e8 00 00 00 00	 call	 ?AfxThrowInvalidArgException@@YGXXZ ; AfxThrowInvalidArgException
$LN128@LoadData:
  004dd	cc		 int	 3
?LoadData@CDlgCompDataHandle@@UAGXJ@Z ENDP		; CDlgCompDataHandle::LoadData
_TEXT	ENDS
; Function compile flags: /Ogtp
; File D:\git\src\IBK\IBK_DRFN\ProjSrc\SrcDrfn\Chart\comparechart\CodeDataFromInputBar.cpp
;	COMDAT ?ReInit@CShareInputData@@QAEXXZ
_TEXT	SEGMENT
?ReInit@CShareInputData@@QAEXXZ PROC			; CShareInputData::ReInit, COMDAT
; _this$ = ecx

; 53   : 	m_DataInputBar.m_chType = '1';	//분

  00000	c6 41 0c 31	 mov	 BYTE PTR [ecx+12], 49	; 00000031H

; 54   : 	m_DataInputBar.m_lTypeNum = 1;	

  00004	c7 41 10 01 00
	00 00		 mov	 DWORD PTR [ecx+16], 1

; 55   : 	m_DataInputBar.m_lDispCnt = 120;

  0000b	c7 41 20 78 00
	00 00		 mov	 DWORD PTR [ecx+32], 120	; 00000078H

; 56   : 	m_DataInputBar.m_lRequestCnt = 400;

  00012	c7 41 24 90 01
	00 00		 mov	 DWORD PTR [ecx+36], 400	; 00000190H

; 57   : 
; 58   : 	m_DataInputBar.m_nLineType = 0;

  00019	c7 41 34 00 00
	00 00		 mov	 DWORD PTR [ecx+52], 0

; 59   : 	m_DataInputBar.m_bTodayRequest = FALSE;
; 60   : 	m_DataInputBar.m_cChartShape = 'A';

  00020	c6 41 28 41	 mov	 BYTE PTR [ecx+40], 65	; 00000041H

; 61   : 	m_DataInputBar.m_nUnitType = WON_TYPE;

  00024	c7 41 2c 00 00
	00 00		 mov	 DWORD PTR [ecx+44], 0

; 62   : 	m_DataInputBar.m_cDataGubun = '0';

  0002b	c7 41 30 30 00
	00 00		 mov	 DWORD PTR [ecx+48], 48	; 00000030H

; 63   : 	m_DataInputBar.m_bTodayRequest = FALSE;

  00032	c7 41 38 00 00
	00 00		 mov	 DWORD PTR [ecx+56], 0

; 64   : 
; 65   : 	m_bCanDel = FALSE;

  00039	c7 41 44 00 00
	00 00		 mov	 DWORD PTR [ecx+68], 0

; 66   : }

  00040	c3		 ret	 0
?ReInit@CShareInputData@@QAEXXZ ENDP			; CShareInputData::ReInit
_TEXT	ENDS
; Function compile flags: /Ogtp
; File D:\git\src\IBK\IBK_DRFN\ProjSrc\SrcDrfn\Chart\comparechart\CodeDataFromInputBar.cpp
;	COMDAT ??0CShareInputData@@QAE@XZ
_TEXT	SEGMENT
_this$ = -4						; size = 4
??0CShareInputData@@QAE@XZ PROC				; CShareInputData::CShareInputData, COMDAT
; _this$ = ecx

; 41   : {

  00000	55		 push	 ebp
  00001	8b ec		 mov	 ebp, esp
  00003	51		 push	 ecx
  00004	56		 push	 esi
  00005	8b f1		 mov	 esi, ecx
  00007	89 75 fc	 mov	 DWORD PTR _this$[ebp], esi

; 20   : {

  0000a	8d 4e 04	 lea	 ecx, DWORD PTR [esi+4]
  0000d	c7 06 00 00 00
	00		 mov	 DWORD PTR [esi], OFFSET ??_7CCodeDataFromInputBar@@6B@
  00013	ff 15 00 00 00
	00		 call	 DWORD PTR __imp_??0?$CStringT@DV?$StrTraitMFC_DLL@DV?$ChTraitsCRT@D@ATL@@@@@ATL@@QAE@XZ
  00019	8d 4e 1c	 lea	 ecx, DWORD PTR [esi+28]
  0001c	ff 15 00 00 00
	00		 call	 DWORD PTR __imp_??0?$CStringT@DV?$StrTraitMFC_DLL@DV?$ChTraitsCRT@D@ATL@@@@@ATL@@QAE@XZ

; 21   : 	m_lEndTime = 0;

  00022	c7 46 08 00 00
	00 00		 mov	 DWORD PTR [esi+8], 0

; 49   : }

  00029	8b c6		 mov	 eax, esi

; 24   : 	m_lDataCnt = 0;

  0002b	c7 46 14 00 00
	00 00		 mov	 DWORD PTR [esi+20], 0

; 25   : 	m_lPtrST = 0;

  00032	c7 46 18 00 00
	00 00		 mov	 DWORD PTR [esi+24], 0

; 26   : 
; 27   : 	m_lDispCnt = 120;

  00039	c7 46 20 78 00
	00 00		 mov	 DWORD PTR [esi+32], 120	; 00000078H

; 28   : 	m_lRequestCnt = 400;

  00040	c7 46 24 90 01
	00 00		 mov	 DWORD PTR [esi+36], 400	; 00000190H

; 29   : 
; 30   : 	m_nLineType = 0;

  00047	c7 46 34 00 00
	00 00		 mov	 DWORD PTR [esi+52], 0

; 31   : 	m_bTodayRequest = FALSE;

  0004e	c7 46 38 00 00
	00 00		 mov	 DWORD PTR [esi+56], 0

; 42   : 	m_DataInputBar.m_chType = '1';

  00055	c6 46 0c 31	 mov	 BYTE PTR [esi+12], 49	; 00000031H

; 43   : 	m_DataInputBar.m_lTypeNum = 1;

  00059	c7 46 10 01 00
	00 00		 mov	 DWORD PTR [esi+16], 1

; 44   : 	m_DataInputBar.m_cChartShape = 'A';

  00060	c6 46 28 41	 mov	 BYTE PTR [esi+40], 65	; 00000041H

; 45   : 	m_DataInputBar.m_cDataGubun = '0';

  00064	c7 46 30 30 00
	00 00		 mov	 DWORD PTR [esi+48], 48	; 00000030H

; 46   : 
; 47   : 	m_DataInputBar.m_lEndTime;//
; 48   : 	m_bCanDel = FALSE;

  0006b	c7 46 44 00 00
	00 00		 mov	 DWORD PTR [esi+68], 0

; 49   : }

  00072	5e		 pop	 esi
  00073	8b e5		 mov	 esp, ebp
  00075	5d		 pop	 ebp
  00076	c3		 ret	 0
??0CShareInputData@@QAE@XZ ENDP				; CShareInputData::CShareInputData
_TEXT	ENDS
; Function compile flags: /Ogtp
; File D:\git\src\IBK\IBK_DRFN\ProjSrc\SrcDrfn\Chart\comparechart\CodeDataFromInputBar.cpp
;	COMDAT ??_GCCodeDataFromInputBar@@UAEPAXI@Z
_TEXT	SEGMENT
___flags$ = 8						; size = 4
??_GCCodeDataFromInputBar@@UAEPAXI@Z PROC		; CCodeDataFromInputBar::`scalar deleting destructor', COMDAT
; _this$ = ecx
  00000	55		 push	 ebp
  00001	8b ec		 mov	 ebp, esp

; 36   : {

  00003	56		 push	 esi
  00004	8b f1		 mov	 esi, ecx

; 37   : 
; 38   : }

  00006	8d 4e 1c	 lea	 ecx, DWORD PTR [esi+28]
  00009	c7 06 00 00 00
	00		 mov	 DWORD PTR [esi], OFFSET ??_7CCodeDataFromInputBar@@6B@
  0000f	ff 15 00 00 00
	00		 call	 DWORD PTR __imp_??1?$CStringT@DV?$StrTraitMFC_DLL@DV?$ChTraitsCRT@D@ATL@@@@@ATL@@QAE@XZ
  00015	8d 4e 04	 lea	 ecx, DWORD PTR [esi+4]
  00018	ff 15 00 00 00
	00		 call	 DWORD PTR __imp_??1?$CStringT@DV?$StrTraitMFC_DLL@DV?$ChTraitsCRT@D@ATL@@@@@ATL@@QAE@XZ
  0001e	f6 45 08 01	 test	 BYTE PTR ___flags$[ebp], 1
  00022	74 0b		 je	 SHORT $LN7@scalar
  00024	6a 3c		 push	 60			; 0000003cH
  00026	56		 push	 esi
  00027	e8 00 00 00 00	 call	 ??3@YAXPAXI@Z		; operator delete
  0002c	83 c4 08	 add	 esp, 8
$LN7@scalar:
  0002f	8b c6		 mov	 eax, esi
  00031	5e		 pop	 esi
  00032	5d		 pop	 ebp
  00033	c2 04 00	 ret	 4
??_GCCodeDataFromInputBar@@UAEPAXI@Z ENDP		; CCodeDataFromInputBar::`scalar deleting destructor'
_TEXT	ENDS
; Function compile flags: /Ogtp
; File D:\git\src\IBK\IBK_DRFN\ProjSrc\SrcDrfn\Chart\comparechart\CodeDataFromInputBar.cpp
;	COMDAT ??1CCodeDataFromInputBar@@UAE@XZ
_TEXT	SEGMENT
??1CCodeDataFromInputBar@@UAE@XZ PROC			; CCodeDataFromInputBar::~CCodeDataFromInputBar, COMDAT
; _this$ = ecx

; 36   : {

  00000	56		 push	 esi
  00001	8b f1		 mov	 esi, ecx

; 37   : 
; 38   : }

  00003	8d 4e 1c	 lea	 ecx, DWORD PTR [esi+28]
  00006	c7 06 00 00 00
	00		 mov	 DWORD PTR [esi], OFFSET ??_7CCodeDataFromInputBar@@6B@
  0000c	ff 15 00 00 00
	00		 call	 DWORD PTR __imp_??1?$CStringT@DV?$StrTraitMFC_DLL@DV?$ChTraitsCRT@D@ATL@@@@@ATL@@QAE@XZ
  00012	8d 4e 04	 lea	 ecx, DWORD PTR [esi+4]
  00015	5e		 pop	 esi
  00016	ff 25 00 00 00
	00		 jmp	 DWORD PTR __imp_??1?$CStringT@DV?$StrTraitMFC_DLL@DV?$ChTraitsCRT@D@ATL@@@@@ATL@@QAE@XZ
??1CCodeDataFromInputBar@@UAE@XZ ENDP			; CCodeDataFromInputBar::~CCodeDataFromInputBar
_TEXT	ENDS
; Function compile flags: /Ogtp
; File D:\git\src\IBK\IBK_DRFN\ProjSrc\SrcDrfn\Chart\comparechart\CodeDataFromInputBar.cpp
;	COMDAT ??0CCodeDataFromInputBar@@QAE@XZ
_TEXT	SEGMENT
_this$ = -4						; size = 4
??0CCodeDataFromInputBar@@QAE@XZ PROC			; CCodeDataFromInputBar::CCodeDataFromInputBar, COMDAT
; _this$ = ecx

; 20   : {

  00000	55		 push	 ebp
  00001	8b ec		 mov	 ebp, esp
  00003	51		 push	 ecx
  00004	56		 push	 esi
  00005	8b f1		 mov	 esi, ecx
  00007	89 75 fc	 mov	 DWORD PTR _this$[ebp], esi
  0000a	8d 4e 04	 lea	 ecx, DWORD PTR [esi+4]
  0000d	c7 06 00 00 00
	00		 mov	 DWORD PTR [esi], OFFSET ??_7CCodeDataFromInputBar@@6B@
  00013	ff 15 00 00 00
	00		 call	 DWORD PTR __imp_??0?$CStringT@DV?$StrTraitMFC_DLL@DV?$ChTraitsCRT@D@ATL@@@@@ATL@@QAE@XZ
  00019	8d 4e 1c	 lea	 ecx, DWORD PTR [esi+28]
  0001c	ff 15 00 00 00
	00		 call	 DWORD PTR __imp_??0?$CStringT@DV?$StrTraitMFC_DLL@DV?$ChTraitsCRT@D@ATL@@@@@ATL@@QAE@XZ

; 21   : 	m_lEndTime = 0;

  00022	c7 46 08 00 00
	00 00		 mov	 DWORD PTR [esi+8], 0

; 22   : 	m_chType = NULL;
; 23   : 	m_lTypeNum = 1;	
; 24   : 	m_lDataCnt = 0;
; 25   : 	m_lPtrST = 0;
; 26   : 
; 27   : 	m_lDispCnt = 120;
; 28   : 	m_lRequestCnt = 400;
; 29   : 
; 30   : 	m_nLineType = 0;
; 31   : 	m_bTodayRequest = FALSE;
; 32   : 
; 33   : }

  00029	8b c6		 mov	 eax, esi
  0002b	c6 46 0c 00	 mov	 BYTE PTR [esi+12], 0
  0002f	c7 46 10 01 00
	00 00		 mov	 DWORD PTR [esi+16], 1
  00036	c7 46 14 00 00
	00 00		 mov	 DWORD PTR [esi+20], 0
  0003d	c7 46 18 00 00
	00 00		 mov	 DWORD PTR [esi+24], 0
  00044	c7 46 20 78 00
	00 00		 mov	 DWORD PTR [esi+32], 120	; 00000078H
  0004b	c7 46 24 90 01
	00 00		 mov	 DWORD PTR [esi+36], 400	; 00000190H
  00052	c7 46 34 00 00
	00 00		 mov	 DWORD PTR [esi+52], 0
  00059	c7 46 38 00 00
	00 00		 mov	 DWORD PTR [esi+56], 0
  00060	5e		 pop	 esi
  00061	8b e5		 mov	 esp, ebp
  00063	5d		 pop	 ebp
  00064	c3		 ret	 0
??0CCodeDataFromInputBar@@QAE@XZ ENDP			; CCodeDataFromInputBar::CCodeDataFromInputBar
_TEXT	ENDS
; Function compile flags: /Ogtp
; File C:\Program Files (x86)\Microsoft Visual Studio\2019\Community\VC\Tools\MSVC\14.29.30133\atlmfc\include\afxtempl.h
;	COMDAT ?NewNode@?$CList@PAVCDlgCompGroupData@@PAV1@@@IAEPAUCNode@1@PAU21@0@Z
_TEXT	SEGMENT
_pPrev$ = 8						; size = 4
_pNext$ = 12						; size = 4
?NewNode@?$CList@PAVCDlgCompGroupData@@PAV1@@@IAEPAUCNode@1@PAU21@0@Z PROC ; CList<CDlgCompGroupData *,CDlgCompGroupData *>::NewNode, COMDAT
; _this$ = ecx

; 901  : {

  00000	55		 push	 ebp
  00001	8b ec		 mov	 ebp, esp
  00003	56		 push	 esi
  00004	8b f1		 mov	 esi, ecx

; 902  : 	if (m_pNodeFree == NULL)

  00006	83 7e 10 00	 cmp	 DWORD PTR [esi+16], 0
  0000a	75 34		 jne	 SHORT $LN7@NewNode

; 903  : 	{
; 904  : 		// add another block
; 905  : 		CPlex* pNewBlock = CPlex::Create(m_pBlocks, m_nBlockSize,

  0000c	6a 0c		 push	 12			; 0000000cH
  0000e	ff 76 18	 push	 DWORD PTR [esi+24]
  00011	8d 46 14	 lea	 eax, DWORD PTR [esi+20]
  00014	50		 push	 eax
  00015	e8 00 00 00 00	 call	 ?Create@CPlex@@SGPAU1@AAPAU1@II@Z ; CPlex::Create

; 906  : 				 sizeof(CNode));
; 907  : 
; 908  : 		// chain them into free list
; 909  : 		CNode* pNode = (CNode*) pNewBlock->data();
; 910  : 		// free in reverse order to make it easier to debug
; 911  : 		pNode += m_nBlockSize - 1;

  0001a	8b 56 18	 mov	 edx, DWORD PTR [esi+24]
  0001d	83 c0 08	 add	 eax, 8
  00020	8d 0c 52	 lea	 ecx, DWORD PTR [edx+edx*2]
  00023	8d 04 88	 lea	 eax, DWORD PTR [eax+ecx*4]
  00026	83 c0 f4	 add	 eax, -12		; fffffff4H

; 912  : 		for (INT_PTR i = m_nBlockSize-1; i >= 0; i--, pNode--)

  00029	83 c2 ff	 add	 edx, -1
  0002c	78 12		 js	 SHORT $LN7@NewNode
  0002e	66 90		 npad	 2
$LL4@NewNode:

; 913  : 		{
; 914  : 			pNode->pNext = m_pNodeFree;

  00030	8b 4e 10	 mov	 ecx, DWORD PTR [esi+16]
  00033	89 08		 mov	 DWORD PTR [eax], ecx

; 915  : 			m_pNodeFree = pNode;

  00035	89 46 10	 mov	 DWORD PTR [esi+16], eax
  00038	83 e8 0c	 sub	 eax, 12			; 0000000cH
  0003b	83 ea 01	 sub	 edx, 1
  0003e	79 f0		 jns	 SHORT $LL4@NewNode
$LN7@NewNode:

; 916  : 		}
; 917  : 	}
; 918  : 	ENSURE(m_pNodeFree != NULL);  // we must have something

  00040	8b 46 10	 mov	 eax, DWORD PTR [esi+16]
  00043	85 c0		 test	 eax, eax
  00045	74 18		 je	 SHORT $LN17@NewNode

; 919  : 
; 920  : 	CList::CNode* pNode = m_pNodeFree;
; 921  : 	m_pNodeFree = m_pNodeFree->pNext;

  00047	8b 08		 mov	 ecx, DWORD PTR [eax]
  00049	89 4e 10	 mov	 DWORD PTR [esi+16], ecx

; 922  : 	pNode->pPrev = pPrev;

  0004c	8b 4d 08	 mov	 ecx, DWORD PTR _pPrev$[ebp]
  0004f	89 48 04	 mov	 DWORD PTR [eax+4], ecx

; 923  : 	pNode->pNext = pNext;

  00052	8b 4d 0c	 mov	 ecx, DWORD PTR _pNext$[ebp]
  00055	89 08		 mov	 DWORD PTR [eax], ecx

; 924  : 	m_nCount++;

  00057	ff 46 0c	 inc	 DWORD PTR [esi+12]

; 925  : 	ASSERT(m_nCount > 0);  // make sure we don't overflow
; 926  : 
; 927  : #pragma push_macro("new")
; 928  : #undef new
; 929  : 	::new( (void*)( &pNode->data ) ) TYPE;
; 930  : #pragma pop_macro("new")
; 931  : 	return pNode;

  0005a	5e		 pop	 esi

; 932  : }

  0005b	5d		 pop	 ebp
  0005c	c2 08 00	 ret	 8
$LN17@NewNode:

; 916  : 		}
; 917  : 	}
; 918  : 	ENSURE(m_pNodeFree != NULL);  // we must have something

  0005f	e8 00 00 00 00	 call	 ?AfxThrowInvalidArgException@@YGXXZ ; AfxThrowInvalidArgException
$LN15@NewNode:
  00064	cc		 int	 3
?NewNode@?$CList@PAVCDlgCompGroupData@@PAV1@@@IAEPAUCNode@1@PAU21@0@Z ENDP ; CList<CDlgCompGroupData *,CDlgCompGroupData *>::NewNode
_TEXT	ENDS
; Function compile flags: /Ogtp
; File C:\Program Files (x86)\Microsoft Visual Studio\2019\Community\VC\Tools\MSVC\14.29.30133\atlmfc\include\afxtempl.h
;	COMDAT ?RemoveAll@?$CList@PAVCDlgCompGroupData@@PAV1@@@QAEXXZ
_TEXT	SEGMENT
?RemoveAll@?$CList@PAVCDlgCompGroupData@@PAV1@@@QAEXXZ PROC ; CList<CDlgCompGroupData *,CDlgCompGroupData *>::RemoveAll, COMDAT
; _this$ = ecx

; 862  : {

  00000	56		 push	 esi
  00001	8b f1		 mov	 esi, ecx

; 863  : 	ASSERT_VALID(this);
; 864  : 
; 865  : 	// destroy elements
; 866  : 	CNode* pNode;
; 867  : 	for (pNode = m_pNodeHead; pNode != NULL; pNode = pNode->pNext)
; 868  : 		pNode->data.~TYPE();
; 869  : 
; 870  : 	m_nCount = 0;
; 871  : 	m_pNodeHead = m_pNodeTail = m_pNodeFree = NULL;
; 872  : 	m_pBlocks->FreeDataChain();

  00003	8b 4e 14	 mov	 ecx, DWORD PTR [esi+20]
  00006	c7 46 0c 00 00
	00 00		 mov	 DWORD PTR [esi+12], 0
  0000d	c7 46 10 00 00
	00 00		 mov	 DWORD PTR [esi+16], 0
  00014	c7 46 08 00 00
	00 00		 mov	 DWORD PTR [esi+8], 0
  0001b	c7 46 04 00 00
	00 00		 mov	 DWORD PTR [esi+4], 0
  00022	e8 00 00 00 00	 call	 ?FreeDataChain@CPlex@@QAEXXZ ; CPlex::FreeDataChain

; 873  : 	m_pBlocks = NULL;

  00027	c7 46 14 00 00
	00 00		 mov	 DWORD PTR [esi+20], 0
  0002e	5e		 pop	 esi

; 874  : }

  0002f	c3		 ret	 0
?RemoveAll@?$CList@PAVCDlgCompGroupData@@PAV1@@@QAEXXZ ENDP ; CList<CDlgCompGroupData *,CDlgCompGroupData *>::RemoveAll
_TEXT	ENDS
; Function compile flags: /Ogtp
; File C:\Program Files (x86)\Microsoft Visual Studio\2019\Community\VC\Tools\MSVC\14.29.30133\atlmfc\include\afxtempl.h
;	COMDAT ?AddTail@?$CList@PAVCDlgCompGroupData@@PAV1@@@QAEPAU__POSITION@@PAVCDlgCompGroupData@@@Z
_TEXT	SEGMENT
_newElement$ = 8					; size = 4
?AddTail@?$CList@PAVCDlgCompGroupData@@PAV1@@@QAEPAU__POSITION@@PAVCDlgCompGroupData@@@Z PROC ; CList<CDlgCompGroupData *,CDlgCompGroupData *>::AddTail, COMDAT
; _this$ = ecx

; 965  : {

  00000	55		 push	 ebp
  00001	8b ec		 mov	 ebp, esp
  00003	56		 push	 esi
  00004	8b f1		 mov	 esi, ecx
  00006	57		 push	 edi

; 902  : 	if (m_pNodeFree == NULL)

  00007	83 7e 10 00	 cmp	 DWORD PTR [esi+16], 0

; 966  : 	ASSERT_VALID(this);
; 967  : 
; 968  : 	CNode* pNewNode = NewNode(m_pNodeTail, NULL);

  0000b	8b 7e 08	 mov	 edi, DWORD PTR [esi+8]

; 902  : 	if (m_pNodeFree == NULL)

  0000e	75 32		 jne	 SHORT $LN11@AddTail

; 903  : 	{
; 904  : 		// add another block
; 905  : 		CPlex* pNewBlock = CPlex::Create(m_pBlocks, m_nBlockSize,

  00010	6a 0c		 push	 12			; 0000000cH
  00012	ff 76 18	 push	 DWORD PTR [esi+24]
  00015	8d 46 14	 lea	 eax, DWORD PTR [esi+20]
  00018	50		 push	 eax
  00019	e8 00 00 00 00	 call	 ?Create@CPlex@@SGPAU1@AAPAU1@II@Z ; CPlex::Create

; 906  : 				 sizeof(CNode));
; 907  : 
; 908  : 		// chain them into free list
; 909  : 		CNode* pNode = (CNode*) pNewBlock->data();
; 910  : 		// free in reverse order to make it easier to debug
; 911  : 		pNode += m_nBlockSize - 1;

  0001e	8b 56 18	 mov	 edx, DWORD PTR [esi+24]
  00021	83 c0 08	 add	 eax, 8
  00024	8d 4a ff	 lea	 ecx, DWORD PTR [edx-1]

; 912  : 		for (INT_PTR i = m_nBlockSize-1; i >= 0; i--, pNode--)

  00027	83 c2 ff	 add	 edx, -1
  0002a	8d 0c 49	 lea	 ecx, DWORD PTR [ecx+ecx*2]
  0002d	8d 0c 88	 lea	 ecx, DWORD PTR [eax+ecx*4]
  00030	78 10		 js	 SHORT $LN11@AddTail
$LL8@AddTail:

; 913  : 		{
; 914  : 			pNode->pNext = m_pNodeFree;

  00032	8b 46 10	 mov	 eax, DWORD PTR [esi+16]
  00035	89 01		 mov	 DWORD PTR [ecx], eax

; 915  : 			m_pNodeFree = pNode;

  00037	89 4e 10	 mov	 DWORD PTR [esi+16], ecx
  0003a	83 e9 0c	 sub	 ecx, 12			; 0000000cH
  0003d	83 ea 01	 sub	 edx, 1
  00040	79 f0		 jns	 SHORT $LL8@AddTail
$LN11@AddTail:

; 916  : 		}
; 917  : 	}
; 918  : 	ENSURE(m_pNodeFree != NULL);  // we must have something

  00042	8b 4e 10	 mov	 ecx, DWORD PTR [esi+16]
  00045	85 c9		 test	 ecx, ecx
  00047	74 39		 je	 SHORT $LN22@AddTail

; 919  : 
; 920  : 	CList::CNode* pNode = m_pNodeFree;
; 921  : 	m_pNodeFree = m_pNodeFree->pNext;

  00049	8b 01		 mov	 eax, DWORD PTR [ecx]
  0004b	89 46 10	 mov	 DWORD PTR [esi+16], eax

; 969  : 	pNewNode->data = newElement;

  0004e	8b 45 08	 mov	 eax, DWORD PTR _newElement$[ebp]

; 922  : 	pNode->pPrev = pPrev;

  00051	89 79 04	 mov	 DWORD PTR [ecx+4], edi

; 923  : 	pNode->pNext = pNext;

  00054	c7 01 00 00 00
	00		 mov	 DWORD PTR [ecx], 0

; 924  : 	m_nCount++;

  0005a	ff 46 0c	 inc	 DWORD PTR [esi+12]

; 969  : 	pNewNode->data = newElement;

  0005d	89 41 08	 mov	 DWORD PTR [ecx+8], eax

; 970  : 	if (m_pNodeTail != NULL)

  00060	8b 46 08	 mov	 eax, DWORD PTR [esi+8]
  00063	85 c0		 test	 eax, eax
  00065	74 0d		 je	 SHORT $LN2@AddTail

; 971  : 		m_pNodeTail->pNext = pNewNode;

  00067	89 08		 mov	 DWORD PTR [eax], ecx

; 972  : 	else
; 973  : 		m_pNodeHead = pNewNode;
; 974  : 	m_pNodeTail = pNewNode;
; 975  : 	return (POSITION) pNewNode;

  00069	8b c1		 mov	 eax, ecx
  0006b	5f		 pop	 edi
  0006c	89 4e 08	 mov	 DWORD PTR [esi+8], ecx
  0006f	5e		 pop	 esi

; 976  : }

  00070	5d		 pop	 ebp
  00071	c2 04 00	 ret	 4
$LN2@AddTail:

; 972  : 	else
; 973  : 		m_pNodeHead = pNewNode;
; 974  : 	m_pNodeTail = pNewNode;
; 975  : 	return (POSITION) pNewNode;

  00074	5f		 pop	 edi
  00075	89 4e 04	 mov	 DWORD PTR [esi+4], ecx
  00078	8b c1		 mov	 eax, ecx
  0007a	89 4e 08	 mov	 DWORD PTR [esi+8], ecx
  0007d	5e		 pop	 esi

; 976  : }

  0007e	5d		 pop	 ebp
  0007f	c2 04 00	 ret	 4
$LN22@AddTail:

; 918  : 	ENSURE(m_pNodeFree != NULL);  // we must have something

  00082	e8 00 00 00 00	 call	 ?AfxThrowInvalidArgException@@YGXXZ ; AfxThrowInvalidArgException
$LN20@AddTail:
  00087	cc		 int	 3
?AddTail@?$CList@PAVCDlgCompGroupData@@PAV1@@@QAEPAU__POSITION@@PAVCDlgCompGroupData@@@Z ENDP ; CList<CDlgCompGroupData *,CDlgCompGroupData *>::AddTail
_TEXT	ENDS
; Function compile flags: /Ogtp
; File C:\Program Files (x86)\Microsoft Visual Studio\2019\Community\VC\Tools\MSVC\14.29.30133\atlmfc\include\afxtempl.h
; File C:\Program Files (x86)\Microsoft Visual Studio\2019\Community\VC\Tools\MSVC\14.29.30133\atlmfc\include\afx.inl
;	COMDAT ??_G?$CList@PAVCDlgCompSubItem@@PAV1@@@UAEPAXI@Z
_TEXT	SEGMENT
__$EHRec$ = -12						; size = 12
___flags$ = 8						; size = 4
??_G?$CList@PAVCDlgCompSubItem@@PAV1@@@UAEPAXI@Z PROC	; CList<CDlgCompSubItem *,CDlgCompSubItem *>::`scalar deleting destructor', COMDAT
; _this$ = ecx
  00000	55		 push	 ebp
  00001	8b ec		 mov	 ebp, esp
  00003	6a ff		 push	 -1
  00005	68 00 00 00 00	 push	 __ehhandler$??_G?$CList@PAVCDlgCompSubItem@@PAV1@@@UAEPAXI@Z
  0000a	64 a1 00 00 00
	00		 mov	 eax, DWORD PTR fs:0
  00010	50		 push	 eax
  00011	56		 push	 esi
  00012	a1 00 00 00 00	 mov	 eax, DWORD PTR ___security_cookie
  00017	33 c5		 xor	 eax, ebp
  00019	50		 push	 eax
  0001a	8d 45 f4	 lea	 eax, DWORD PTR __$EHRec$[ebp]
  0001d	64 a3 00 00 00
	00		 mov	 DWORD PTR fs:0, eax
  00023	8b f1		 mov	 esi, ecx
; File C:\Program Files (x86)\Microsoft Visual Studio\2019\Community\VC\Tools\MSVC\14.29.30133\atlmfc\include\afxtempl.h

; 872  : 	m_pBlocks->FreeDataChain();

  00025	8b 4e 14	 mov	 ecx, DWORD PTR [esi+20]

; 878  : {

  00028	c7 45 fc 00 00
	00 00		 mov	 DWORD PTR __$EHRec$[ebp+8], 0
  0002f	c7 06 00 00 00
	00		 mov	 DWORD PTR [esi], OFFSET ??_7?$CList@PAVCDlgCompSubItem@@PAV1@@@6B@

; 870  : 	m_nCount = 0;

  00035	c7 46 0c 00 00
	00 00		 mov	 DWORD PTR [esi+12], 0

; 871  : 	m_pNodeHead = m_pNodeTail = m_pNodeFree = NULL;

  0003c	c7 46 10 00 00
	00 00		 mov	 DWORD PTR [esi+16], 0
  00043	c7 46 08 00 00
	00 00		 mov	 DWORD PTR [esi+8], 0
  0004a	c7 46 04 00 00
	00 00		 mov	 DWORD PTR [esi+4], 0

; 872  : 	m_pBlocks->FreeDataChain();

  00051	e8 00 00 00 00	 call	 ?FreeDataChain@CPlex@@QAEXXZ ; CPlex::FreeDataChain

; 873  : 	m_pBlocks = NULL;

  00056	8b 45 08	 mov	 eax, DWORD PTR ___flags$[ebp]
  00059	c7 46 14 00 00
	00 00		 mov	 DWORD PTR [esi+20], 0
  00060	a8 01		 test	 al, 1
  00062	74 2c		 je	 SHORT $LN22@scalar
  00064	a8 04		 test	 al, 4
  00066	75 1d		 jne	 SHORT $LN3@scalar
; File C:\Program Files (x86)\Microsoft Visual Studio\2019\Community\VC\Tools\MSVC\14.29.30133\atlmfc\include\afx.inl

; 112  : 	{ ::operator delete(p); }

  00068	56		 push	 esi
  00069	e8 00 00 00 00	 call	 ??3@YAXPAX@Z		; operator delete
  0006e	83 c4 04	 add	 esp, 4
  00071	8b c6		 mov	 eax, esi
  00073	8b 4d f4	 mov	 ecx, DWORD PTR __$EHRec$[ebp]
  00076	64 89 0d 00 00
	00 00		 mov	 DWORD PTR fs:0, ecx
  0007d	59		 pop	 ecx
  0007e	5e		 pop	 esi
  0007f	8b e5		 mov	 esp, ebp
  00081	5d		 pop	 ebp
  00082	c2 04 00	 ret	 4
$LN3@scalar:
  00085	6a 1c		 push	 28			; 0000001cH
  00087	56		 push	 esi
  00088	e8 00 00 00 00	 call	 ?__global_delete@@YAXPAXI@Z ; __global_delete
  0008d	83 c4 08	 add	 esp, 8
$LN22@scalar:
  00090	8b c6		 mov	 eax, esi
  00092	8b 4d f4	 mov	 ecx, DWORD PTR __$EHRec$[ebp]
  00095	64 89 0d 00 00
	00 00		 mov	 DWORD PTR fs:0, ecx
  0009c	59		 pop	 ecx
  0009d	5e		 pop	 esi
  0009e	8b e5		 mov	 esp, ebp
  000a0	5d		 pop	 ebp
  000a1	c2 04 00	 ret	 4
  000a4	cc		 int	 3
  000a5	cc		 int	 3
  000a6	cc		 int	 3
  000a7	cc		 int	 3
  000a8	cc		 int	 3
_TEXT	ENDS
;	COMDAT text$x
text$x	SEGMENT
__ehhandler$??_G?$CList@PAVCDlgCompSubItem@@PAV1@@@UAEPAXI@Z:
  00000	90		 npad	 1
  00001	90		 npad	 1
  00002	8b 54 24 08	 mov	 edx, DWORD PTR [esp+8]
  00006	8d 42 0c	 lea	 eax, DWORD PTR [edx+12]
  00009	8b 4a f8	 mov	 ecx, DWORD PTR [edx-8]
  0000c	33 c8		 xor	 ecx, eax
  0000e	e8 00 00 00 00	 call	 @__security_check_cookie@4
  00013	b8 00 00 00 00	 mov	 eax, OFFSET __ehfuncinfo$??_G?$CList@PAVCDlgCompSubItem@@PAV1@@@UAEPAXI@Z
  00018	e9 00 00 00 00	 jmp	 ___CxxFrameHandler3
text$x	ENDS
??_G?$CList@PAVCDlgCompSubItem@@PAV1@@@UAEPAXI@Z ENDP	; CList<CDlgCompSubItem *,CDlgCompSubItem *>::`scalar deleting destructor'
; Function compile flags: /Ogtp
; File C:\Program Files (x86)\Microsoft Visual Studio\2019\Community\VC\Tools\MSVC\14.29.30133\atlmfc\include\afxtempl.h
; File C:\Program Files (x86)\Microsoft Visual Studio\2019\Community\VC\Tools\MSVC\14.29.30133\atlmfc\include\afx.inl
; File C:\Program Files (x86)\Microsoft Visual Studio\2019\Community\VC\Tools\MSVC\14.29.30133\atlmfc\include\afxtempl.h
; File C:\Program Files (x86)\Microsoft Visual Studio\2019\Community\VC\Tools\MSVC\14.29.30133\atlmfc\include\afx.inl
; File C:\Program Files (x86)\Microsoft Visual Studio\2019\Community\VC\Tools\MSVC\14.29.30133\atlmfc\include\afxtempl.h
; File C:\Program Files (x86)\Microsoft Visual Studio\2019\Community\VC\Tools\MSVC\14.29.30133\atlmfc\include\afx.inl
; File C:\Program Files (x86)\Microsoft Visual Studio\2019\Community\VC\Tools\MSVC\14.29.30133\atlmfc\include\afxtempl.h
; File C:\Program Files (x86)\Microsoft Visual Studio\2019\Community\VC\Tools\MSVC\14.29.30133\atlmfc\include\afx.inl
; File C:\Program Files (x86)\Microsoft Visual Studio\2019\Community\VC\Tools\MSVC\14.29.30133\atlmfc\include\afxtempl.h
; File C:\Program Files (x86)\Microsoft Visual Studio\2019\Community\VC\Tools\MSVC\14.29.30133\atlmfc\include\afx.inl
; File C:\Program Files (x86)\Microsoft Visual Studio\2019\Community\VC\Tools\MSVC\14.29.30133\atlmfc\include\afxtempl.h
; File C:\Program Files (x86)\Microsoft Visual Studio\2019\Community\VC\Tools\MSVC\14.29.30133\atlmfc\include\afx.inl
; File C:\Program Files (x86)\Microsoft Visual Studio\2019\Community\VC\Tools\MSVC\14.29.30133\atlmfc\include\afxtempl.h
;	COMDAT ?Serialize@?$CList@PAVCDlgCompSubItem@@PAV1@@@UAEXAAVCArchive@@@Z
_TEXT	SEGMENT
_nNewCount$1$ = -16					; size = 4
_newData$1 = -12					; size = 4
_pData$1$ = -8						; size = 4
_pNode$1$ = -8						; size = 4
_nElementsLeft$1$ = -4					; size = 4
_this$1$ = -4						; size = 4
_ar$ = 8						; size = 4
?Serialize@?$CList@PAVCDlgCompSubItem@@PAV1@@@UAEXAAVCArchive@@@Z PROC ; CList<CDlgCompSubItem *,CDlgCompSubItem *>::Serialize, COMDAT
; _this$ = ecx

; 1169 : {

  00000	55		 push	 ebp
  00001	8b ec		 mov	 ebp, esp
  00003	83 ec 10	 sub	 esp, 16			; 00000010H
  00006	53		 push	 ebx
  00007	8b d9		 mov	 ebx, ecx
; File C:\Program Files (x86)\Microsoft Visual Studio\2019\Community\VC\Tools\MSVC\14.29.30133\atlmfc\include\afx.inl

; 212  : 	{ return (m_nMode & CArchive::load) == 0; }

  00009	8b 4d 08	 mov	 ecx, DWORD PTR _ar$[ebp]
; File C:\Program Files (x86)\Microsoft Visual Studio\2019\Community\VC\Tools\MSVC\14.29.30133\atlmfc\include\afxtempl.h

; 1169 : {

  0000c	56		 push	 esi
  0000d	57		 push	 edi
  0000e	89 5d fc	 mov	 DWORD PTR _this$1$[ebp], ebx
; File C:\Program Files (x86)\Microsoft Visual Studio\2019\Community\VC\Tools\MSVC\14.29.30133\atlmfc\include\afx.inl

; 212  : 	{ return (m_nMode & CArchive::load) == 0; }

  00011	8b 41 18	 mov	 eax, DWORD PTR [ecx+24]
  00014	f7 d0		 not	 eax
  00016	a8 01		 test	 al, 1
; File C:\Program Files (x86)\Microsoft Visual Studio\2019\Community\VC\Tools\MSVC\14.29.30133\atlmfc\include\afxtempl.h

; 1174 : 	if (ar.IsStoring())

  00018	0f 84 ae 00 00
	00		 je	 $LN7@Serialize

; 1175 : 	{
; 1176 : 		ar.WriteCount(m_nCount);

  0001e	ff 73 0c	 push	 DWORD PTR [ebx+12]
  00021	e8 00 00 00 00	 call	 ?WriteCount@CArchive@@QAEXK@Z ; CArchive::WriteCount

; 1177 : 		for (CNode* pNode = m_pNodeHead; pNode != NULL; pNode = pNode->pNext)

  00026	8b 43 04	 mov	 eax, DWORD PTR [ebx+4]
  00029	89 45 f8	 mov	 DWORD PTR _pNode$1$[ebp], eax
  0002c	85 c0		 test	 eax, eax
  0002e	0f 84 43 01 00
	00		 je	 $LN68@Serialize
$LL4@Serialize:

; 1178 : 		{
; 1179 : 			ASSERT(AfxIsValidAddress(pNode, sizeof(CNode)));
; 1180 : 			TYPE* pData;
; 1181 : 			/*
; 1182 : 			 * in some cases the & operator might be overloaded, and we cannot use it to obtain
; 1183 : 			 * the address of a given object.  We then use the following trick to get the address
; 1184 : 			 */
; 1185 : 			pData = reinterpret_cast< TYPE* >( &reinterpret_cast< int& >( static_cast< TYPE& >( pNode->data ) ) );

  00034	8d 70 08	 lea	 esi, DWORD PTR [eax+8]

; 68   : 	ENSURE(nCount == 0 || pElements != NULL);

  00037	85 f6		 test	 esi, esi
  00039	0f 84 4a 01 00
	00		 je	 $LN60@Serialize
; File C:\Program Files (x86)\Microsoft Visual Studio\2019\Community\VC\Tools\MSVC\14.29.30133\atlmfc\include\afx.inl

; 212  : 	{ return (m_nMode & CArchive::load) == 0; }

  0003f	8b 4d 08	 mov	 ecx, DWORD PTR _ar$[ebp]
  00042	8b 41 18	 mov	 eax, DWORD PTR [ecx+24]
  00045	f7 d0		 not	 eax
  00047	a8 01		 test	 al, 1
; File C:\Program Files (x86)\Microsoft Visual Studio\2019\Community\VC\Tools\MSVC\14.29.30133\atlmfc\include\afxtempl.h

; 73   : 	if (ar.IsStoring())

  00049	74 33		 je	 SHORT $LN21@Serialize

; 74   : 	{
; 75   : 		TYPE* pData;
; 76   : 		UINT_PTR nElementsLeft;
; 77   : 
; 78   : 		nElementsLeft = nCount;

  0004b	b8 01 00 00 00	 mov	 eax, 1
  00050	89 45 fc	 mov	 DWORD PTR _nElementsLeft$1$[ebp], eax
$LL16@Serialize:

; 80   : 		while( nElementsLeft > 0 )
; 81   : 		{
; 82   : 			UINT nElementsToWrite;
; 83   : 
; 84   : 			nElementsToWrite = UINT(__min(nElementsLeft, INT_MAX/sizeof(TYPE)));

  00053	bb ff ff ff 1f	 mov	 ebx, 536870911		; 1fffffffH
  00058	3b c3		 cmp	 eax, ebx
  0005a	0f 42 d8	 cmovb	 ebx, eax

; 85   : 			ar.Write(pData, nElementsToWrite*sizeof(TYPE));

  0005d	8d 3c 9d 00 00
	00 00		 lea	 edi, DWORD PTR [ebx*4]
  00064	57		 push	 edi
  00065	56		 push	 esi
  00066	e8 00 00 00 00	 call	 ?Write@CArchive@@QAEXPBXI@Z ; CArchive::Write

; 86   : 			nElementsLeft -= nElementsToWrite;

  0006b	8b 45 fc	 mov	 eax, DWORD PTR _nElementsLeft$1$[ebp]

; 87   : 			pData += nElementsToWrite;

  0006e	03 f7		 add	 esi, edi
  00070	8b 4d 08	 mov	 ecx, DWORD PTR _ar$[ebp]
  00073	2b c3		 sub	 eax, ebx
  00075	89 45 fc	 mov	 DWORD PTR _nElementsLeft$1$[ebp], eax
  00078	85 c0		 test	 eax, eax
  0007a	75 d7		 jne	 SHORT $LL16@Serialize

; 88   : 		}
; 89   : 	}

  0007c	eb 35		 jmp	 SHORT $LN2@Serialize
$LN21@Serialize:

; 90   : 	else
; 91   : 	{
; 92   : 		TYPE* pData;
; 93   : 		UINT_PTR nElementsLeft;
; 94   : 
; 95   : 		nElementsLeft = nCount;

  0007e	bf 01 00 00 00	 mov	 edi, 1
$LL18@Serialize:

; 98   : 		{
; 99   : 			UINT nElementsToRead;
; 100  : 
; 101  : 			nElementsToRead = UINT(__min(nElementsLeft, INT_MAX/sizeof(TYPE)));

  00083	bb ff ff ff 1f	 mov	 ebx, 536870911		; 1fffffffH
  00088	3b fb		 cmp	 edi, ebx
  0008a	0f 42 df	 cmovb	 ebx, edi

; 102  : 			ar.EnsureRead(pData, nElementsToRead*sizeof(TYPE));

  0008d	8d 04 9d 00 00
	00 00		 lea	 eax, DWORD PTR [ebx*4]
; File C:\Program Files (x86)\Microsoft Visual Studio\2019\Community\VC\Tools\MSVC\14.29.30133\atlmfc\include\afx.inl

; 399  : 	UINT nRead=Read(lpBuf, nCount);

  00094	50		 push	 eax
  00095	56		 push	 esi
  00096	e8 00 00 00 00	 call	 ?Read@CArchive@@QAEIPAXI@Z ; CArchive::Read

; 400  : 	if(nRead!=nCount)

  0009b	8d 0c 9d 00 00
	00 00		 lea	 ecx, DWORD PTR [ebx*4]
  000a2	3b c1		 cmp	 eax, ecx
  000a4	0f 85 d6 00 00
	00		 jne	 $LN59@Serialize
; File C:\Program Files (x86)\Microsoft Visual Studio\2019\Community\VC\Tools\MSVC\14.29.30133\atlmfc\include\afxtempl.h

; 97   : 		while( nElementsLeft > 0 )

  000aa	03 f1		 add	 esi, ecx
  000ac	8b 4d 08	 mov	 ecx, DWORD PTR _ar$[ebp]

; 103  : 			nElementsLeft -= nElementsToRead;

  000af	2b fb		 sub	 edi, ebx
  000b1	75 d0		 jne	 SHORT $LL18@Serialize
$LN2@Serialize:

; 1177 : 		for (CNode* pNode = m_pNodeHead; pNode != NULL; pNode = pNode->pNext)

  000b3	8b 45 f8	 mov	 eax, DWORD PTR _pNode$1$[ebp]
  000b6	8b 00		 mov	 eax, DWORD PTR [eax]
  000b8	89 45 f8	 mov	 DWORD PTR _pNode$1$[ebp], eax
  000bb	85 c0		 test	 eax, eax
  000bd	0f 85 71 ff ff
	ff		 jne	 $LL4@Serialize

; 1197 : 		}
; 1198 : 	}
; 1199 : }

  000c3	5f		 pop	 edi
  000c4	5e		 pop	 esi
  000c5	5b		 pop	 ebx
  000c6	8b e5		 mov	 esp, ebp
  000c8	5d		 pop	 ebp
  000c9	c2 04 00	 ret	 4
$LN7@Serialize:

; 1186 : 			SerializeElements<TYPE>(ar, pData, 1);
; 1187 : 		}
; 1188 : 	}
; 1189 : 	else
; 1190 : 	{
; 1191 : 		DWORD_PTR nNewCount = ar.ReadCount();

  000cc	e8 00 00 00 00	 call	 ?ReadCount@CArchive@@QAEKXZ ; CArchive::ReadCount

; 1192 : 		while (nNewCount--)

  000d1	85 c0		 test	 eax, eax
  000d3	0f 84 9e 00 00
	00		 je	 $LN68@Serialize
  000d9	0f 1f 80 00 00
	00 00		 npad	 7
$LL5@Serialize:
  000e0	48		 dec	 eax
  000e1	89 45 f0	 mov	 DWORD PTR _nNewCount$1$[ebp], eax
; File C:\Program Files (x86)\Microsoft Visual Studio\2019\Community\VC\Tools\MSVC\14.29.30133\atlmfc\include\afx.inl

; 212  : 	{ return (m_nMode & CArchive::load) == 0; }

  000e4	8b 45 08	 mov	 eax, DWORD PTR _ar$[ebp]
  000e7	8b 48 18	 mov	 ecx, DWORD PTR [eax+24]
  000ea	f7 d1		 not	 ecx
  000ec	f6 c1 01	 test	 cl, 1
; File C:\Program Files (x86)\Microsoft Visual Studio\2019\Community\VC\Tools\MSVC\14.29.30133\atlmfc\include\afxtempl.h

; 73   : 	if (ar.IsStoring())

  000ef	74 3a		 je	 SHORT $LN42@Serialize

; 79   : 		pData = pElements;

  000f1	8d 4d f4	 lea	 ecx, DWORD PTR _newData$1[ebp]
  000f4	bb 01 00 00 00	 mov	 ebx, 1
  000f9	89 4d f8	 mov	 DWORD PTR _pData$1$[ebp], ecx
  000fc	0f 1f 40 00	 npad	 4
$LL37@Serialize:

; 80   : 		while( nElementsLeft > 0 )
; 81   : 		{
; 82   : 			UINT nElementsToWrite;
; 83   : 
; 84   : 			nElementsToWrite = UINT(__min(nElementsLeft, INT_MAX/sizeof(TYPE)));

  00100	bf ff ff ff 1f	 mov	 edi, 536870911		; 1fffffffH
  00105	3b df		 cmp	 ebx, edi
  00107	0f 42 fb	 cmovb	 edi, ebx

; 85   : 			ar.Write(pData, nElementsToWrite*sizeof(TYPE));

  0010a	8d 34 bd 00 00
	00 00		 lea	 esi, DWORD PTR [edi*4]
  00111	56		 push	 esi
  00112	51		 push	 ecx
  00113	8b c8		 mov	 ecx, eax
  00115	e8 00 00 00 00	 call	 ?Write@CArchive@@QAEXPBXI@Z ; CArchive::Write

; 87   : 			pData += nElementsToWrite;

  0011a	8b 4d f8	 mov	 ecx, DWORD PTR _pData$1$[ebp]
  0011d	8b 45 08	 mov	 eax, DWORD PTR _ar$[ebp]
  00120	03 ce		 add	 ecx, esi
  00122	89 4d f8	 mov	 DWORD PTR _pData$1$[ebp], ecx
  00125	2b df		 sub	 ebx, edi
  00127	75 d7		 jne	 SHORT $LL37@Serialize

; 88   : 		}
; 89   : 	}

  00129	eb 36		 jmp	 SHORT $LN40@Serialize
$LN42@Serialize:

; 90   : 	else
; 91   : 	{
; 92   : 		TYPE* pData;
; 93   : 		UINT_PTR nElementsLeft;
; 94   : 
; 95   : 		nElementsLeft = nCount;

  0012b	be 01 00 00 00	 mov	 esi, 1

; 96   : 		pData = pElements;

  00130	8d 5d f4	 lea	 ebx, DWORD PTR _newData$1[ebp]
$LL39@Serialize:

; 98   : 		{
; 99   : 			UINT nElementsToRead;
; 100  : 
; 101  : 			nElementsToRead = UINT(__min(nElementsLeft, INT_MAX/sizeof(TYPE)));

  00133	bf ff ff ff 1f	 mov	 edi, 536870911		; 1fffffffH
  00138	3b f7		 cmp	 esi, edi
  0013a	0f 42 fe	 cmovb	 edi, esi

; 102  : 			ar.EnsureRead(pData, nElementsToRead*sizeof(TYPE));

  0013d	8d 0c bd 00 00
	00 00		 lea	 ecx, DWORD PTR [edi*4]
; File C:\Program Files (x86)\Microsoft Visual Studio\2019\Community\VC\Tools\MSVC\14.29.30133\atlmfc\include\afx.inl

; 399  : 	UINT nRead=Read(lpBuf, nCount);

  00144	51		 push	 ecx
  00145	53		 push	 ebx
  00146	8b c8		 mov	 ecx, eax
  00148	e8 00 00 00 00	 call	 ?Read@CArchive@@QAEIPAXI@Z ; CArchive::Read

; 400  : 	if(nRead!=nCount)

  0014d	8d 0c bd 00 00
	00 00		 lea	 ecx, DWORD PTR [edi*4]
  00154	3b c1		 cmp	 eax, ecx
  00156	75 28		 jne	 SHORT $LN59@Serialize
; File C:\Program Files (x86)\Microsoft Visual Studio\2019\Community\VC\Tools\MSVC\14.29.30133\atlmfc\include\afxtempl.h

; 104  : 			pData += nElementsToRead;

  00158	8b 45 08	 mov	 eax, DWORD PTR _ar$[ebp]
  0015b	03 d9		 add	 ebx, ecx
  0015d	2b f7		 sub	 esi, edi
  0015f	75 d2		 jne	 SHORT $LL39@Serialize
$LN40@Serialize:

; 1193 : 		{
; 1194 : 			TYPE newData[1];
; 1195 : 			SerializeElements<TYPE>(ar, newData, 1);
; 1196 : 			AddTail(newData[0]);

  00161	ff 75 f4	 push	 DWORD PTR _newData$1[ebp]
  00164	8b 4d fc	 mov	 ecx, DWORD PTR _this$1$[ebp]
  00167	e8 00 00 00 00	 call	 ?AddTail@?$CList@PAVCDlgCompSubItem@@PAV1@@@QAEPAU__POSITION@@PAVCDlgCompSubItem@@@Z ; CList<CDlgCompSubItem *,CDlgCompSubItem *>::AddTail
  0016c	8b 45 f0	 mov	 eax, DWORD PTR _nNewCount$1$[ebp]
  0016f	85 c0		 test	 eax, eax
  00171	0f 85 69 ff ff
	ff		 jne	 $LL5@Serialize
$LN68@Serialize:
  00177	5f		 pop	 edi

; 1197 : 		}
; 1198 : 	}
; 1199 : }

  00178	5e		 pop	 esi
  00179	5b		 pop	 ebx
  0017a	8b e5		 mov	 esp, ebp
  0017c	5d		 pop	 ebp
  0017d	c2 04 00	 ret	 4
$LN59@Serialize:
  00180	6a 00		 push	 0
  00182	6a 03		 push	 3
  00184	e8 00 00 00 00	 call	 ?AfxThrowArchiveException@@YGXHPBD@Z ; AfxThrowArchiveException
$LN60@Serialize:

; 68   : 	ENSURE(nCount == 0 || pElements != NULL);

  00189	e8 00 00 00 00	 call	 ?AfxThrowInvalidArgException@@YGXXZ ; AfxThrowInvalidArgException
$LN85@Serialize:
  0018e	cc		 int	 3
?Serialize@?$CList@PAVCDlgCompSubItem@@PAV1@@@UAEXAAVCArchive@@@Z ENDP ; CList<CDlgCompSubItem *,CDlgCompSubItem *>::Serialize
_TEXT	ENDS
; Function compile flags: /Ogtp
; File C:\Program Files (x86)\Microsoft Visual Studio\2019\Community\VC\Tools\MSVC\14.29.30133\atlmfc\include\afxtempl.h
;	COMDAT ??1?$CList@PAVCDlgCompSubItem@@PAV1@@@UAE@XZ
_TEXT	SEGMENT
__$EHRec$ = -12						; size = 12
??1?$CList@PAVCDlgCompSubItem@@PAV1@@@UAE@XZ PROC	; CList<CDlgCompSubItem *,CDlgCompSubItem *>::~CList<CDlgCompSubItem *,CDlgCompSubItem *>, COMDAT
; _this$ = ecx

; 878  : {

  00000	55		 push	 ebp
  00001	8b ec		 mov	 ebp, esp
  00003	6a ff		 push	 -1
  00005	68 00 00 00 00	 push	 __ehhandler$??1?$CList@PAVCDlgCompSubItem@@PAV1@@@UAE@XZ
  0000a	64 a1 00 00 00
	00		 mov	 eax, DWORD PTR fs:0
  00010	50		 push	 eax
  00011	56		 push	 esi
  00012	a1 00 00 00 00	 mov	 eax, DWORD PTR ___security_cookie
  00017	33 c5		 xor	 eax, ebp
  00019	50		 push	 eax
  0001a	8d 45 f4	 lea	 eax, DWORD PTR __$EHRec$[ebp]
  0001d	64 a3 00 00 00
	00		 mov	 DWORD PTR fs:0, eax
  00023	8b f1		 mov	 esi, ecx

; 872  : 	m_pBlocks->FreeDataChain();

  00025	8b 4e 14	 mov	 ecx, DWORD PTR [esi+20]

; 878  : {

  00028	c7 06 00 00 00
	00		 mov	 DWORD PTR [esi], OFFSET ??_7?$CList@PAVCDlgCompSubItem@@PAV1@@@6B@

; 870  : 	m_nCount = 0;

  0002e	c7 46 0c 00 00
	00 00		 mov	 DWORD PTR [esi+12], 0

; 871  : 	m_pNodeHead = m_pNodeTail = m_pNodeFree = NULL;

  00035	c7 46 10 00 00
	00 00		 mov	 DWORD PTR [esi+16], 0
  0003c	c7 46 08 00 00
	00 00		 mov	 DWORD PTR [esi+8], 0
  00043	c7 46 04 00 00
	00 00		 mov	 DWORD PTR [esi+4], 0

; 872  : 	m_pBlocks->FreeDataChain();

  0004a	e8 00 00 00 00	 call	 ?FreeDataChain@CPlex@@QAEXXZ ; CPlex::FreeDataChain

; 873  : 	m_pBlocks = NULL;

  0004f	c7 46 14 00 00
	00 00		 mov	 DWORD PTR [esi+20], 0

; 879  : 	RemoveAll();
; 880  : 	ASSERT(m_nCount == 0);
; 881  : }

  00056	8b 4d f4	 mov	 ecx, DWORD PTR __$EHRec$[ebp]
  00059	64 89 0d 00 00
	00 00		 mov	 DWORD PTR fs:0, ecx
  00060	59		 pop	 ecx
  00061	5e		 pop	 esi
  00062	8b e5		 mov	 esp, ebp
  00064	5d		 pop	 ebp
  00065	c3		 ret	 0
  00066	cc		 int	 3
  00067	cc		 int	 3
  00068	cc		 int	 3
  00069	cc		 int	 3
  0006a	cc		 int	 3
_TEXT	ENDS
;	COMDAT text$x
text$x	SEGMENT
__ehhandler$??1?$CList@PAVCDlgCompSubItem@@PAV1@@@UAE@XZ:
  00000	90		 npad	 1
  00001	90		 npad	 1
  00002	8b 54 24 08	 mov	 edx, DWORD PTR [esp+8]
  00006	8d 42 0c	 lea	 eax, DWORD PTR [edx+12]
  00009	8b 4a f8	 mov	 ecx, DWORD PTR [edx-8]
  0000c	33 c8		 xor	 ecx, eax
  0000e	e8 00 00 00 00	 call	 @__security_check_cookie@4
  00013	b8 00 00 00 00	 mov	 eax, OFFSET __ehfuncinfo$??1?$CList@PAVCDlgCompSubItem@@PAV1@@@UAE@XZ
  00018	e9 00 00 00 00	 jmp	 ___CxxFrameHandler3
text$x	ENDS
??1?$CList@PAVCDlgCompSubItem@@PAV1@@@UAE@XZ ENDP	; CList<CDlgCompSubItem *,CDlgCompSubItem *>::~CList<CDlgCompSubItem *,CDlgCompSubItem *>
; Function compile flags: /Ogtp
; File C:\Program Files (x86)\Microsoft Visual Studio\2019\Community\VC\Tools\MSVC\14.29.30133\atlmfc\include\afxtempl.h
;	COMDAT ?NewNode@?$CList@PAVCDlgCompSubItem@@PAV1@@@IAEPAUCNode@1@PAU21@0@Z
_TEXT	SEGMENT
_pPrev$ = 8						; size = 4
_pNext$ = 12						; size = 4
?NewNode@?$CList@PAVCDlgCompSubItem@@PAV1@@@IAEPAUCNode@1@PAU21@0@Z PROC ; CList<CDlgCompSubItem *,CDlgCompSubItem *>::NewNode, COMDAT
; _this$ = ecx

; 901  : {

  00000	55		 push	 ebp
  00001	8b ec		 mov	 ebp, esp
  00003	56		 push	 esi
  00004	8b f1		 mov	 esi, ecx

; 902  : 	if (m_pNodeFree == NULL)

  00006	83 7e 10 00	 cmp	 DWORD PTR [esi+16], 0
  0000a	75 34		 jne	 SHORT $LN7@NewNode

; 903  : 	{
; 904  : 		// add another block
; 905  : 		CPlex* pNewBlock = CPlex::Create(m_pBlocks, m_nBlockSize,

  0000c	6a 0c		 push	 12			; 0000000cH
  0000e	ff 76 18	 push	 DWORD PTR [esi+24]
  00011	8d 46 14	 lea	 eax, DWORD PTR [esi+20]
  00014	50		 push	 eax
  00015	e8 00 00 00 00	 call	 ?Create@CPlex@@SGPAU1@AAPAU1@II@Z ; CPlex::Create

; 906  : 				 sizeof(CNode));
; 907  : 
; 908  : 		// chain them into free list
; 909  : 		CNode* pNode = (CNode*) pNewBlock->data();
; 910  : 		// free in reverse order to make it easier to debug
; 911  : 		pNode += m_nBlockSize - 1;

  0001a	8b 56 18	 mov	 edx, DWORD PTR [esi+24]
  0001d	83 c0 08	 add	 eax, 8
  00020	8d 0c 52	 lea	 ecx, DWORD PTR [edx+edx*2]
  00023	8d 04 88	 lea	 eax, DWORD PTR [eax+ecx*4]
  00026	83 c0 f4	 add	 eax, -12		; fffffff4H

; 912  : 		for (INT_PTR i = m_nBlockSize-1; i >= 0; i--, pNode--)

  00029	83 c2 ff	 add	 edx, -1
  0002c	78 12		 js	 SHORT $LN7@NewNode
  0002e	66 90		 npad	 2
$LL4@NewNode:

; 913  : 		{
; 914  : 			pNode->pNext = m_pNodeFree;

  00030	8b 4e 10	 mov	 ecx, DWORD PTR [esi+16]
  00033	89 08		 mov	 DWORD PTR [eax], ecx

; 915  : 			m_pNodeFree = pNode;

  00035	89 46 10	 mov	 DWORD PTR [esi+16], eax
  00038	83 e8 0c	 sub	 eax, 12			; 0000000cH
  0003b	83 ea 01	 sub	 edx, 1
  0003e	79 f0		 jns	 SHORT $LL4@NewNode
$LN7@NewNode:

; 916  : 		}
; 917  : 	}
; 918  : 	ENSURE(m_pNodeFree != NULL);  // we must have something

  00040	8b 46 10	 mov	 eax, DWORD PTR [esi+16]
  00043	85 c0		 test	 eax, eax
  00045	74 18		 je	 SHORT $LN17@NewNode

; 919  : 
; 920  : 	CList::CNode* pNode = m_pNodeFree;
; 921  : 	m_pNodeFree = m_pNodeFree->pNext;

  00047	8b 08		 mov	 ecx, DWORD PTR [eax]
  00049	89 4e 10	 mov	 DWORD PTR [esi+16], ecx

; 922  : 	pNode->pPrev = pPrev;

  0004c	8b 4d 08	 mov	 ecx, DWORD PTR _pPrev$[ebp]
  0004f	89 48 04	 mov	 DWORD PTR [eax+4], ecx

; 923  : 	pNode->pNext = pNext;

  00052	8b 4d 0c	 mov	 ecx, DWORD PTR _pNext$[ebp]
  00055	89 08		 mov	 DWORD PTR [eax], ecx

; 924  : 	m_nCount++;

  00057	ff 46 0c	 inc	 DWORD PTR [esi+12]

; 925  : 	ASSERT(m_nCount > 0);  // make sure we don't overflow
; 926  : 
; 927  : #pragma push_macro("new")
; 928  : #undef new
; 929  : 	::new( (void*)( &pNode->data ) ) TYPE;
; 930  : #pragma pop_macro("new")
; 931  : 	return pNode;

  0005a	5e		 pop	 esi

; 932  : }

  0005b	5d		 pop	 ebp
  0005c	c2 08 00	 ret	 8
$LN17@NewNode:

; 916  : 		}
; 917  : 	}
; 918  : 	ENSURE(m_pNodeFree != NULL);  // we must have something

  0005f	e8 00 00 00 00	 call	 ?AfxThrowInvalidArgException@@YGXXZ ; AfxThrowInvalidArgException
$LN15@NewNode:
  00064	cc		 int	 3
?NewNode@?$CList@PAVCDlgCompSubItem@@PAV1@@@IAEPAUCNode@1@PAU21@0@Z ENDP ; CList<CDlgCompSubItem *,CDlgCompSubItem *>::NewNode
_TEXT	ENDS
; Function compile flags: /Ogtp
; File C:\Program Files (x86)\Microsoft Visual Studio\2019\Community\VC\Tools\MSVC\14.29.30133\atlmfc\include\afxtempl.h
;	COMDAT ?RemoveAll@?$CList@PAVCDlgCompSubItem@@PAV1@@@QAEXXZ
_TEXT	SEGMENT
?RemoveAll@?$CList@PAVCDlgCompSubItem@@PAV1@@@QAEXXZ PROC ; CList<CDlgCompSubItem *,CDlgCompSubItem *>::RemoveAll, COMDAT
; _this$ = ecx

; 862  : {

  00000	56		 push	 esi
  00001	8b f1		 mov	 esi, ecx

; 863  : 	ASSERT_VALID(this);
; 864  : 
; 865  : 	// destroy elements
; 866  : 	CNode* pNode;
; 867  : 	for (pNode = m_pNodeHead; pNode != NULL; pNode = pNode->pNext)
; 868  : 		pNode->data.~TYPE();
; 869  : 
; 870  : 	m_nCount = 0;
; 871  : 	m_pNodeHead = m_pNodeTail = m_pNodeFree = NULL;
; 872  : 	m_pBlocks->FreeDataChain();

  00003	8b 4e 14	 mov	 ecx, DWORD PTR [esi+20]
  00006	c7 46 0c 00 00
	00 00		 mov	 DWORD PTR [esi+12], 0
  0000d	c7 46 10 00 00
	00 00		 mov	 DWORD PTR [esi+16], 0
  00014	c7 46 08 00 00
	00 00		 mov	 DWORD PTR [esi+8], 0
  0001b	c7 46 04 00 00
	00 00		 mov	 DWORD PTR [esi+4], 0
  00022	e8 00 00 00 00	 call	 ?FreeDataChain@CPlex@@QAEXXZ ; CPlex::FreeDataChain

; 873  : 	m_pBlocks = NULL;

  00027	c7 46 14 00 00
	00 00		 mov	 DWORD PTR [esi+20], 0
  0002e	5e		 pop	 esi

; 874  : }

  0002f	c3		 ret	 0
?RemoveAll@?$CList@PAVCDlgCompSubItem@@PAV1@@@QAEXXZ ENDP ; CList<CDlgCompSubItem *,CDlgCompSubItem *>::RemoveAll
_TEXT	ENDS
; Function compile flags: /Ogtp
; File C:\Program Files (x86)\Microsoft Visual Studio\2019\Community\VC\Tools\MSVC\14.29.30133\atlmfc\include\afxtempl.h
;	COMDAT ?AddTail@?$CList@PAVCDlgCompSubItem@@PAV1@@@QAEPAU__POSITION@@PAVCDlgCompSubItem@@@Z
_TEXT	SEGMENT
_newElement$ = 8					; size = 4
?AddTail@?$CList@PAVCDlgCompSubItem@@PAV1@@@QAEPAU__POSITION@@PAVCDlgCompSubItem@@@Z PROC ; CList<CDlgCompSubItem *,CDlgCompSubItem *>::AddTail, COMDAT
; _this$ = ecx

; 965  : {

  00000	55		 push	 ebp
  00001	8b ec		 mov	 ebp, esp
  00003	56		 push	 esi
  00004	8b f1		 mov	 esi, ecx
  00006	57		 push	 edi

; 902  : 	if (m_pNodeFree == NULL)

  00007	83 7e 10 00	 cmp	 DWORD PTR [esi+16], 0

; 966  : 	ASSERT_VALID(this);
; 967  : 
; 968  : 	CNode* pNewNode = NewNode(m_pNodeTail, NULL);

  0000b	8b 7e 08	 mov	 edi, DWORD PTR [esi+8]

; 902  : 	if (m_pNodeFree == NULL)

  0000e	75 32		 jne	 SHORT $LN11@AddTail

; 903  : 	{
; 904  : 		// add another block
; 905  : 		CPlex* pNewBlock = CPlex::Create(m_pBlocks, m_nBlockSize,

  00010	6a 0c		 push	 12			; 0000000cH
  00012	ff 76 18	 push	 DWORD PTR [esi+24]
  00015	8d 46 14	 lea	 eax, DWORD PTR [esi+20]
  00018	50		 push	 eax
  00019	e8 00 00 00 00	 call	 ?Create@CPlex@@SGPAU1@AAPAU1@II@Z ; CPlex::Create

; 906  : 				 sizeof(CNode));
; 907  : 
; 908  : 		// chain them into free list
; 909  : 		CNode* pNode = (CNode*) pNewBlock->data();
; 910  : 		// free in reverse order to make it easier to debug
; 911  : 		pNode += m_nBlockSize - 1;

  0001e	8b 56 18	 mov	 edx, DWORD PTR [esi+24]
  00021	83 c0 08	 add	 eax, 8
  00024	8d 4a ff	 lea	 ecx, DWORD PTR [edx-1]

; 912  : 		for (INT_PTR i = m_nBlockSize-1; i >= 0; i--, pNode--)

  00027	83 c2 ff	 add	 edx, -1
  0002a	8d 0c 49	 lea	 ecx, DWORD PTR [ecx+ecx*2]
  0002d	8d 0c 88	 lea	 ecx, DWORD PTR [eax+ecx*4]
  00030	78 10		 js	 SHORT $LN11@AddTail
$LL8@AddTail:

; 913  : 		{
; 914  : 			pNode->pNext = m_pNodeFree;

  00032	8b 46 10	 mov	 eax, DWORD PTR [esi+16]
  00035	89 01		 mov	 DWORD PTR [ecx], eax

; 915  : 			m_pNodeFree = pNode;

  00037	89 4e 10	 mov	 DWORD PTR [esi+16], ecx
  0003a	83 e9 0c	 sub	 ecx, 12			; 0000000cH
  0003d	83 ea 01	 sub	 edx, 1
  00040	79 f0		 jns	 SHORT $LL8@AddTail
$LN11@AddTail:

; 916  : 		}
; 917  : 	}
; 918  : 	ENSURE(m_pNodeFree != NULL);  // we must have something

  00042	8b 4e 10	 mov	 ecx, DWORD PTR [esi+16]
  00045	85 c9		 test	 ecx, ecx
  00047	74 39		 je	 SHORT $LN22@AddTail

; 919  : 
; 920  : 	CList::CNode* pNode = m_pNodeFree;
; 921  : 	m_pNodeFree = m_pNodeFree->pNext;

  00049	8b 01		 mov	 eax, DWORD PTR [ecx]
  0004b	89 46 10	 mov	 DWORD PTR [esi+16], eax

; 969  : 	pNewNode->data = newElement;

  0004e	8b 45 08	 mov	 eax, DWORD PTR _newElement$[ebp]

; 922  : 	pNode->pPrev = pPrev;

  00051	89 79 04	 mov	 DWORD PTR [ecx+4], edi

; 923  : 	pNode->pNext = pNext;

  00054	c7 01 00 00 00
	00		 mov	 DWORD PTR [ecx], 0

; 924  : 	m_nCount++;

  0005a	ff 46 0c	 inc	 DWORD PTR [esi+12]

; 969  : 	pNewNode->data = newElement;

  0005d	89 41 08	 mov	 DWORD PTR [ecx+8], eax

; 970  : 	if (m_pNodeTail != NULL)

  00060	8b 46 08	 mov	 eax, DWORD PTR [esi+8]
  00063	85 c0		 test	 eax, eax
  00065	74 0d		 je	 SHORT $LN2@AddTail

; 971  : 		m_pNodeTail->pNext = pNewNode;

  00067	89 08		 mov	 DWORD PTR [eax], ecx

; 972  : 	else
; 973  : 		m_pNodeHead = pNewNode;
; 974  : 	m_pNodeTail = pNewNode;
; 975  : 	return (POSITION) pNewNode;

  00069	8b c1		 mov	 eax, ecx
  0006b	5f		 pop	 edi
  0006c	89 4e 08	 mov	 DWORD PTR [esi+8], ecx
  0006f	5e		 pop	 esi

; 976  : }

  00070	5d		 pop	 ebp
  00071	c2 04 00	 ret	 4
$LN2@AddTail:

; 972  : 	else
; 973  : 		m_pNodeHead = pNewNode;
; 974  : 	m_pNodeTail = pNewNode;
; 975  : 	return (POSITION) pNewNode;

  00074	5f		 pop	 edi
  00075	89 4e 04	 mov	 DWORD PTR [esi+4], ecx
  00078	8b c1		 mov	 eax, ecx
  0007a	89 4e 08	 mov	 DWORD PTR [esi+8], ecx
  0007d	5e		 pop	 esi

; 976  : }

  0007e	5d		 pop	 ebp
  0007f	c2 04 00	 ret	 4
$LN22@AddTail:

; 918  : 	ENSURE(m_pNodeFree != NULL);  // we must have something

  00082	e8 00 00 00 00	 call	 ?AfxThrowInvalidArgException@@YGXXZ ; AfxThrowInvalidArgException
$LN20@AddTail:
  00087	cc		 int	 3
?AddTail@?$CList@PAVCDlgCompSubItem@@PAV1@@@QAEPAU__POSITION@@PAVCDlgCompSubItem@@@Z ENDP ; CList<CDlgCompSubItem *,CDlgCompSubItem *>::AddTail
_TEXT	ENDS
; Function compile flags: /Ogtp
; File C:\Program Files (x86)\Microsoft Visual Studio\2019\Community\VC\Tools\MSVC\14.29.30133\atlmfc\include\afxtempl.h
;	COMDAT ??0?$CList@PAVCDlgCompSubItem@@PAV1@@@QAE@H@Z
_TEXT	SEGMENT
_nBlockSize$ = 8					; size = 4
??0?$CList@PAVCDlgCompSubItem@@PAV1@@@QAE@H@Z PROC	; CList<CDlgCompSubItem *,CDlgCompSubItem *>::CList<CDlgCompSubItem *,CDlgCompSubItem *>, COMDAT
; _this$ = ecx

; 851  : {

  00000	55		 push	 ebp
  00001	8b ec		 mov	 ebp, esp

; 852  : 	ASSERT(nBlockSize > 0);
; 853  : 
; 854  : 	m_nCount = 0;
; 855  : 	m_pNodeHead = m_pNodeTail = m_pNodeFree = NULL;
; 856  : 	m_pBlocks = NULL;
; 857  : 	m_nBlockSize = nBlockSize;

  00003	8b 45 08	 mov	 eax, DWORD PTR _nBlockSize$[ebp]
  00006	89 41 18	 mov	 DWORD PTR [ecx+24], eax

; 858  : }

  00009	8b c1		 mov	 eax, ecx
  0000b	c7 01 00 00 00
	00		 mov	 DWORD PTR [ecx], OFFSET ??_7?$CList@PAVCDlgCompSubItem@@PAV1@@@6B@
  00011	c7 41 0c 00 00
	00 00		 mov	 DWORD PTR [ecx+12], 0
  00018	c7 41 10 00 00
	00 00		 mov	 DWORD PTR [ecx+16], 0
  0001f	c7 41 08 00 00
	00 00		 mov	 DWORD PTR [ecx+8], 0
  00026	c7 41 04 00 00
	00 00		 mov	 DWORD PTR [ecx+4], 0
  0002d	c7 41 14 00 00
	00 00		 mov	 DWORD PTR [ecx+20], 0
  00034	5d		 pop	 ebp
  00035	c2 04 00	 ret	 4
??0?$CList@PAVCDlgCompSubItem@@PAV1@@@QAE@H@Z ENDP	; CList<CDlgCompSubItem *,CDlgCompSubItem *>::CList<CDlgCompSubItem *,CDlgCompSubItem *>
_TEXT	ENDS
; Function compile flags: /Ogtp
; File C:\Program Files (x86)\Microsoft Visual Studio\2019\Community\VC\Tools\MSVC\14.29.30133\atlmfc\include\afx.inl
;	COMDAT ?Dump@CObject@@UBEXAAVCDumpContext@@@Z
_TEXT	SEGMENT
___formal$ = 8						; size = 4
?Dump@CObject@@UBEXAAVCDumpContext@@@Z PROC		; CObject::Dump, COMDAT
; _this$ = ecx

; 122  : 	{ /* no dumping in release builds */ }

  00000	c2 04 00	 ret	 4
?Dump@CObject@@UBEXAAVCDumpContext@@@Z ENDP		; CObject::Dump
_TEXT	ENDS
; Function compile flags: /Ogtp
; File C:\Program Files (x86)\Microsoft Visual Studio\2019\Community\VC\Tools\MSVC\14.29.30133\atlmfc\include\afx.inl
;	COMDAT ?AssertValid@CObject@@UBEXXZ
_TEXT	SEGMENT
?AssertValid@CObject@@UBEXXZ PROC			; CObject::AssertValid, COMDAT
; _this$ = ecx

; 120  : 	{ /* no asserts in release builds */ }

  00000	c2 00 00	 ret	 0
?AssertValid@CObject@@UBEXXZ ENDP			; CObject::AssertValid
_TEXT	ENDS
; Function compile flags: /Ogtp
; File C:\Program Files (x86)\Microsoft Visual Studio\2019\Community\VC\Tools\MSVC\14.29.30133\atlmfc\include\afx.inl
;	COMDAT ?Serialize@CObject@@UAEXAAVCArchive@@@Z
_TEXT	SEGMENT
___formal$ = 8						; size = 4
?Serialize@CObject@@UAEXAAVCArchive@@@Z PROC		; CObject::Serialize, COMDAT
; _this$ = ecx

; 106  : 	{ /* CObject does not serialize anything by default */ }

  00000	c2 04 00	 ret	 4
?Serialize@CObject@@UAEXAAVCArchive@@@Z ENDP		; CObject::Serialize
_TEXT	ENDS
; Function compile flags: /Ogtp
; File C:\Program Files (x86)\Microsoft Visual Studio\2019\Community\VC\Tools\MSVC\14.29.30133\atlmfc\include\afx.inl
;	COMDAT ??1CObject@@UAE@XZ
_TEXT	SEGMENT
??1CObject@@UAE@XZ PROC					; CObject::~CObject, COMDAT
; _this$ = ecx

; 104  : 	{ }

  00000	c2 00 00	 ret	 0
??1CObject@@UAE@XZ ENDP					; CObject::~CObject
_TEXT	ENDS
; Function compile flags: /Ogtp
; File D:\git\src\IBK\IBK_DRFN\ProjSrc\SrcDrfn\Chart\comparechart\CodeDataFromInputBar.cpp
;	COMDAT ?__empty_global_delete@@YAXPAXI@Z
_TEXT	SEGMENT
___formal$ = 8						; size = 4
___formal$ = 12						; size = 4
?__empty_global_delete@@YAXPAXI@Z PROC			; __empty_global_delete, COMDAT

  00000	c2 00 00	 ret	 0
?__empty_global_delete@@YAXPAXI@Z ENDP			; __empty_global_delete
_TEXT	ENDS
; Function compile flags: /Ogtp
; File D:\git\src\IBK\IBK_DRFN\ProjSrc\SrcDrfn\Chart\comparechart\CodeDataFromInputBar.cpp
;	COMDAT ?__empty_global_delete@@YAXPAX@Z
_TEXT	SEGMENT
___formal$ = 8						; size = 4
?__empty_global_delete@@YAXPAX@Z PROC			; __empty_global_delete, COMDAT

  00000	c2 00 00	 ret	 0
?__empty_global_delete@@YAXPAX@Z ENDP			; __empty_global_delete
_TEXT	ENDS
END
