; Listing generated by Microsoft (R) Optimizing Compiler Version 19.29.30148.0 

	TITLE	D:\git\src\IBK\IBK_DRFN\#DRfn-CS\_Obj\CompareChart\CompareChart.obj
	.686P
	.XMM
	include listing.inc
	.model	flat

INCLUDELIB MSVCRT
INCLUDELIB OLDNAMES

PUBLIC	??_C@_0BC@LHNMEPFM@RMSG_SELCHARTCODE@		; `string'
PUBLIC	?g_hInstance@@3PAUHINSTANCE__@@A		; g_hInstance
PUBLIC	??_C@_0BB@OMIKMBJF@RMSG_GETUNIQUEID@		; `string'
PUBLIC	??_C@_0O@BMHNJADI@RMSG_GETMAPTR@		; `string'
PUBLIC	??_C@_0BB@IBKHOHJL@RMSG_REPLAY_REAL@		; `string'
PUBLIC	??_C@_0BB@JFLGBADG@RMSG_REPLAY_FAIL@		; `string'
PUBLIC	??_C@_0BI@KDGAIIMD@RMSG_REPLAY_CHANGE_DATE@	; `string'
PUBLIC	??_C@_0BA@NKHHCPON@RMSG_REPLAY_END@		; `string'
PUBLIC	??_C@_0BE@JFCIMCIP@RMSG_REPLAY_INC_SEC@		; `string'
PUBLIC	??_C@_0BG@GIAJEIJF@RMSG_REPLAY_TOTAL_SEC@	; `string'
PUBLIC	??_C@_0BE@FJPKENOB@RMSG_GETSIGNAL_REAL@		; `string'
PUBLIC	??_C@_0P@KHFCBIOH@RMSG_CHARTMAIN@		; `string'
PUBLIC	??_C@_0BC@MMPGLPDH@RMS_ANALYSIS_FUNC@		; `string'
PUBLIC	??_C@_0BA@HKNFENJL@RMSG_GET_USERID@		; `string'
PUBLIC	??_C@_0P@LFDACNFE@RMSG_KSDLLINFO@		; `string'
PUBLIC	??_C@_0N@IIOKMIEH@RMSG_GETINFO@			; `string'
PUBLIC	??_C@_0BG@CNPAHNGG@RMSG_CHANGE_SKINCOLOR@	; `string'
PUBLIC	??_C@_0BD@FLDNDDHK@RMSG_GET_SKINCOLOR@		; `string'
PUBLIC	??_C@_0BG@LNLCJKPF@RMSG_CHANGE_CROSSLINE@	; `string'
_BSS	SEGMENT
?g_hInstance@@3PAUHINSTANCE__@@A DD 01H DUP (?)		; g_hInstance
_BSS	ENDS
;	COMDAT ??_C@_0BG@LNLCJKPF@RMSG_CHANGE_CROSSLINE@
CONST	SEGMENT
??_C@_0BG@LNLCJKPF@RMSG_CHANGE_CROSSLINE@ DB 'RMSG_CHANGE_CROSSLINE', 00H ; `string'
CONST	ENDS
;	COMDAT ??_C@_0BD@FLDNDDHK@RMSG_GET_SKINCOLOR@
CONST	SEGMENT
??_C@_0BD@FLDNDDHK@RMSG_GET_SKINCOLOR@ DB 'RMSG_GET_SKINCOLOR', 00H ; `string'
CONST	ENDS
;	COMDAT ??_C@_0BG@CNPAHNGG@RMSG_CHANGE_SKINCOLOR@
CONST	SEGMENT
??_C@_0BG@CNPAHNGG@RMSG_CHANGE_SKINCOLOR@ DB 'RMSG_CHANGE_SKINCOLOR', 00H ; `string'
CONST	ENDS
;	COMDAT ??_C@_0N@IIOKMIEH@RMSG_GETINFO@
CONST	SEGMENT
??_C@_0N@IIOKMIEH@RMSG_GETINFO@ DB 'RMSG_GETINFO', 00H	; `string'
CONST	ENDS
;	COMDAT ??_C@_0P@LFDACNFE@RMSG_KSDLLINFO@
CONST	SEGMENT
??_C@_0P@LFDACNFE@RMSG_KSDLLINFO@ DB 'RMSG_KSDLLINFO', 00H ; `string'
CONST	ENDS
;	COMDAT ??_C@_0BA@HKNFENJL@RMSG_GET_USERID@
CONST	SEGMENT
??_C@_0BA@HKNFENJL@RMSG_GET_USERID@ DB 'RMSG_GET_USERID', 00H ; `string'
CONST	ENDS
;	COMDAT ??_C@_0BC@MMPGLPDH@RMS_ANALYSIS_FUNC@
CONST	SEGMENT
??_C@_0BC@MMPGLPDH@RMS_ANALYSIS_FUNC@ DB 'RMS_ANALYSIS_FUNC', 00H ; `string'
CONST	ENDS
;	COMDAT ??_C@_0P@KHFCBIOH@RMSG_CHARTMAIN@
CONST	SEGMENT
??_C@_0P@KHFCBIOH@RMSG_CHARTMAIN@ DB 'RMSG_CHARTMAIN', 00H ; `string'
CONST	ENDS
;	COMDAT ??_C@_0BE@FJPKENOB@RMSG_GETSIGNAL_REAL@
CONST	SEGMENT
??_C@_0BE@FJPKENOB@RMSG_GETSIGNAL_REAL@ DB 'RMSG_GETSIGNAL_REAL', 00H ; `string'
CONST	ENDS
;	COMDAT ??_C@_0BG@GIAJEIJF@RMSG_REPLAY_TOTAL_SEC@
CONST	SEGMENT
??_C@_0BG@GIAJEIJF@RMSG_REPLAY_TOTAL_SEC@ DB 'RMSG_REPLAY_TOTAL_SEC', 00H ; `string'
CONST	ENDS
;	COMDAT ??_C@_0BE@JFCIMCIP@RMSG_REPLAY_INC_SEC@
CONST	SEGMENT
??_C@_0BE@JFCIMCIP@RMSG_REPLAY_INC_SEC@ DB 'RMSG_REPLAY_INC_SEC', 00H ; `string'
CONST	ENDS
;	COMDAT ??_C@_0BA@NKHHCPON@RMSG_REPLAY_END@
CONST	SEGMENT
??_C@_0BA@NKHHCPON@RMSG_REPLAY_END@ DB 'RMSG_REPLAY_END', 00H ; `string'
CONST	ENDS
;	COMDAT ??_C@_0BI@KDGAIIMD@RMSG_REPLAY_CHANGE_DATE@
CONST	SEGMENT
??_C@_0BI@KDGAIIMD@RMSG_REPLAY_CHANGE_DATE@ DB 'RMSG_REPLAY_CHANGE_DATE', 00H ; `string'
CONST	ENDS
;	COMDAT ??_C@_0BB@JFLGBADG@RMSG_REPLAY_FAIL@
CONST	SEGMENT
??_C@_0BB@JFLGBADG@RMSG_REPLAY_FAIL@ DB 'RMSG_REPLAY_FAIL', 00H ; `string'
CONST	ENDS
;	COMDAT ??_C@_0BB@IBKHOHJL@RMSG_REPLAY_REAL@
CONST	SEGMENT
??_C@_0BB@IBKHOHJL@RMSG_REPLAY_REAL@ DB 'RMSG_REPLAY_REAL', 00H ; `string'
CONST	ENDS
;	COMDAT ??_C@_0O@BMHNJADI@RMSG_GETMAPTR@
CONST	SEGMENT
??_C@_0O@BMHNJADI@RMSG_GETMAPTR@ DB 'RMSG_GETMAPTR', 00H ; `string'
CONST	ENDS
;	COMDAT ??_C@_0BB@OMIKMBJF@RMSG_GETUNIQUEID@
CONST	SEGMENT
??_C@_0BB@OMIKMBJF@RMSG_GETUNIQUEID@ DB 'RMSG_GETUNIQUEID', 00H ; `string'
CONST	ENDS
;	COMDAT ??_C@_0BC@LHNMEPFM@RMSG_SELCHARTCODE@
CONST	SEGMENT
??_C@_0BC@LHNMEPFM@RMSG_SELCHARTCODE@ DB 'RMSG_SELCHARTCODE', 00H ; `string'
CONST	ENDS
PUBLIC	?__empty_global_delete@@YAXPAX@Z		; __empty_global_delete
PUBLIC	?__empty_global_delete@@YAXPAXI@Z		; __empty_global_delete
PUBLIC	??3CObject@@SGXPAX@Z				; CObject::operator delete
PUBLIC	?Serialize@CObject@@UAEXAAVCArchive@@@Z		; CObject::Serialize
PUBLIC	?AssertValid@CObject@@UBEXXZ			; CObject::AssertValid
PUBLIC	?Dump@CObject@@UBEXAAVCDumpContext@@@Z		; CObject::Dump
PUBLIC	_DllGetClassObject@12
PUBLIC	_DllCanUnloadNow@0
PUBLIC	_DllRegisterServer@0
PUBLIC	?_AfxInitManaged@@YAHXZ				; _AfxInitManaged
PUBLIC	?SupportsRestartManager@CWinApp@@UBEHXZ		; CWinApp::SupportsRestartManager
PUBLIC	?SupportsApplicationRecovery@CWinApp@@UBEHXZ	; CWinApp::SupportsApplicationRecovery
PUBLIC	?SupportsAutosaveAtRestart@CWinApp@@UBEHXZ	; CWinApp::SupportsAutosaveAtRestart
PUBLIC	?SupportsAutosaveAtInterval@CWinApp@@UBEHXZ	; CWinApp::SupportsAutosaveAtInterval
PUBLIC	?ReopenPreviousFilesAtRestart@CWinApp@@UBEHXZ	; CWinApp::ReopenPreviousFilesAtRestart
PUBLIC	?RestoreAutosavedFilesAtRestart@CWinApp@@UBEHXZ	; CWinApp::RestoreAutosavedFilesAtRestart
PUBLIC	?GetApplicationRestartFlags@CWinApp@@UAEKXZ	; CWinApp::GetApplicationRestartFlags
PUBLIC	?GetApplicationRecoveryParameter@CWinApp@@UAEPAXXZ ; CWinApp::GetApplicationRecoveryParameter
PUBLIC	?GetApplicationRecoveryPingInterval@CWinApp@@UAEKXZ ; CWinApp::GetApplicationRecoveryPingInterval
PUBLIC	??0CCompareChartApp@@QAE@XZ			; CCompareChartApp::CCompareChartApp
PUBLIC	?InitInstance@CCompareChartApp@@UAEHXZ		; CCompareChartApp::InitInstance
PUBLIC	?GetThisMessageMap@CCompareChartApp@@KGPBUAFX_MSGMAP@@XZ ; CCompareChartApp::GetThisMessageMap
PUBLIC	?GetMessageMap@CCompareChartApp@@MBEPBUAFX_MSGMAP@@XZ ; CCompareChartApp::GetMessageMap
PUBLIC	??_GCCompareChartApp@@UAEPAXI@Z			; CCompareChartApp::`scalar deleting destructor'
PUBLIC	?fnInit@@YGJPAUSTODINIT_IN@@PAUSTODINIT_OUT@@@Z	; fnInit
PUBLIC	?fnLoad@@YGJPAUSTODCREATEINFO_IN@@PAUSTODCREATEINFO_OUT@@@Z ; fnLoad
PUBLIC	?fnUnLoad@@YGJPAX@Z				; fnUnLoad
PUBLIC	?fnFuncCall@@YGJPAXPBD1AAUtagVARIANT@@@Z	; fnFuncCall
PUBLIC	?fnFormResize@@YGJPAXHH@Z			; fnFormResize
PUBLIC	_CREATE_CHARTSCREEN
PUBLIC	_DESTROY_CHARTSCREEN
PUBLIC	_SETKEYCODE_TRADING
PUBLIC	_DROPKEY_TRADING
PUBLIC	??_R0?AVCObject@@@8				; CObject `RTTI Type Descriptor'
PUBLIC	??_R3CObject@@8					; CObject::`RTTI Class Hierarchy Descriptor'
PUBLIC	??_R2CObject@@8					; CObject::`RTTI Base Class Array'
PUBLIC	??_R1A@?0A@EA@CObject@@8			; CObject::`RTTI Base Class Descriptor at (0,-1,0,64)'
PUBLIC	??_R1A@?0A@EA@CCmdTarget@@8			; CCmdTarget::`RTTI Base Class Descriptor at (0,-1,0,64)'
PUBLIC	??_R0?AVCCmdTarget@@@8				; CCmdTarget `RTTI Type Descriptor'
PUBLIC	??_R3CCmdTarget@@8				; CCmdTarget::`RTTI Class Hierarchy Descriptor'
PUBLIC	??_R2CCmdTarget@@8				; CCmdTarget::`RTTI Base Class Array'
PUBLIC	??_7CCompareChartApp@@6B@			; CCompareChartApp::`vftable'
PUBLIC	?theApp@@3VCCompareChartApp@@A			; theApp
PUBLIC	??_C@_04OCCELDNI@?$CF04d@			; `string'
PUBLIC	??_C@_04LBMPKHHO@7123@				; `string'
PUBLIC	??_C@_04POIODBLJ@7124@				; `string'
PUBLIC	??_C@_0N@HJAMCNAE@SetFrameInfo@			; `string'
PUBLIC	??_C@_0M@PINPKPMM@SetCodeInfo@			; `string'
PUBLIC	??_R4CCompareChartApp@@6B@			; CCompareChartApp::`RTTI Complete Object Locator'
PUBLIC	??_R0?AVCCompareChartApp@@@8			; CCompareChartApp `RTTI Type Descriptor'
PUBLIC	??_R3CCompareChartApp@@8			; CCompareChartApp::`RTTI Class Hierarchy Descriptor'
PUBLIC	??_R2CCompareChartApp@@8			; CCompareChartApp::`RTTI Base Class Array'
PUBLIC	??_R1A@?0A@EA@CCompareChartApp@@8		; CCompareChartApp::`RTTI Base Class Descriptor at (0,-1,0,64)'
PUBLIC	??_R1A@?0A@EA@CWinApp@@8			; CWinApp::`RTTI Base Class Descriptor at (0,-1,0,64)'
PUBLIC	??_R0?AVCWinApp@@@8				; CWinApp `RTTI Type Descriptor'
PUBLIC	??_R3CWinApp@@8					; CWinApp::`RTTI Class Hierarchy Descriptor'
PUBLIC	??_R2CWinApp@@8					; CWinApp::`RTTI Base Class Array'
PUBLIC	??_R1A@?0A@EA@CWinThread@@8			; CWinThread::`RTTI Base Class Descriptor at (0,-1,0,64)'
PUBLIC	??_R0?AVCWinThread@@@8				; CWinThread `RTTI Type Descriptor'
PUBLIC	??_R3CWinThread@@8				; CWinThread::`RTTI Class Hierarchy Descriptor'
PUBLIC	??_R2CWinThread@@8				; CWinThread::`RTTI Base Class Array'
EXTRN	??2@YAPAXI@Z:PROC				; operator new
EXTRN	??3@YAXPAX@Z:PROC				; operator delete
EXTRN	?__global_delete@@YAXPAXI@Z:PROC		; __global_delete
EXTRN	_atexit:PROC
EXTRN	__imp__RegisterWindowMessageA@4:PROC
EXTRN	__imp__SendMessageA@16:PROC
EXTRN	__imp__atol:PROC
EXTRN	__imp_??A?$CSimpleStringT@D$00@ATL@@QBEDH@Z:PROC
EXTRN	__imp_??0?$CStringT@DV?$StrTraitMFC_DLL@DV?$ChTraitsCRT@D@ATL@@@@@ATL@@QAE@XZ:PROC
EXTRN	__imp_??0?$CStringT@DV?$StrTraitMFC_DLL@DV?$ChTraitsCRT@D@ATL@@@@@ATL@@QAE@ABV01@@Z:PROC
EXTRN	__imp_??0?$CStringT@DV?$StrTraitMFC_DLL@DV?$ChTraitsCRT@D@ATL@@@@@ATL@@QAE@PBD@Z:PROC
EXTRN	__imp_??1?$CStringT@DV?$StrTraitMFC_DLL@DV?$ChTraitsCRT@D@ATL@@@@@ATL@@QAE@XZ:PROC
EXTRN	__imp_??4?$CStringT@DV?$StrTraitMFC_DLL@DV?$ChTraitsCRT@D@ATL@@@@@ATL@@QAEAAV01@ABV01@@Z:PROC
EXTRN	__imp_?Compare@?$CStringT@DV?$StrTraitMFC_DLL@DV?$ChTraitsCRT@D@ATL@@@@@ATL@@QBEHPBD@Z:PROC
EXTRN	__imp_?Delete@?$CStringT@DV?$StrTraitMFC_DLL@DV?$ChTraitsCRT@D@ATL@@@@@ATL@@QAEHHH@Z:PROC
EXTRN	__imp_?Find@?$CStringT@DV?$StrTraitMFC_DLL@DV?$ChTraitsCRT@D@ATL@@@@@ATL@@QBEHDH@Z:PROC
EXTRN	__imp_?Left@?$CStringT@DV?$StrTraitMFC_DLL@DV?$ChTraitsCRT@D@ATL@@@@@ATL@@QBE?AV12@H@Z:PROC
EXTRN	__imp_?Format@?$CStringT@DV?$StrTraitMFC_DLL@DV?$ChTraitsCRT@D@ATL@@@@@ATL@@QAAXPBDZZ:PROC
EXTRN	?AfxGetStaticModuleState@@YGPAVAFX_MODULE_STATE@@XZ:PROC ; AfxGetStaticModuleState
EXTRN	??0AFX_MAINTAIN_STATE2@@QAE@PAVAFX_MODULE_STATE@@@Z:PROC ; AFX_MAINTAIN_STATE2::AFX_MAINTAIN_STATE2
EXTRN	??1AFX_MAINTAIN_STATE2@@QAE@XZ:PROC		; AFX_MAINTAIN_STATE2::~AFX_MAINTAIN_STATE2
EXTRN	?OnCmdMsg@CCmdTarget@@UAEHIHPAXPAUAFX_CMDHANDLERINFO@@@Z:PROC ; CCmdTarget::OnCmdMsg
EXTRN	?OnFinalRelease@CCmdTarget@@UAEXXZ:PROC		; CCmdTarget::OnFinalRelease
EXTRN	?IsInvokeAllowed@CCmdTarget@@UAEHJ@Z:PROC	; CCmdTarget::IsInvokeAllowed
EXTRN	?GetDispatchIID@CCmdTarget@@UAEHPAU_GUID@@@Z:PROC ; CCmdTarget::GetDispatchIID
EXTRN	?GetTypeInfoCount@CCmdTarget@@UAEIXZ:PROC	; CCmdTarget::GetTypeInfoCount
EXTRN	?GetTypeLibCache@CCmdTarget@@UAEPAVCTypeLibCache@@XZ:PROC ; CCmdTarget::GetTypeLibCache
EXTRN	?GetTypeLib@CCmdTarget@@UAEJKPAPAUITypeLib@@@Z:PROC ; CCmdTarget::GetTypeLib
EXTRN	?GetCommandMap@CCmdTarget@@MBEPBUAFX_OLECMDMAP@@XZ:PROC ; CCmdTarget::GetCommandMap
EXTRN	?GetDispatchMap@CCmdTarget@@MBEPBUAFX_DISPMAP@@XZ:PROC ; CCmdTarget::GetDispatchMap
EXTRN	?GetConnectionMap@CCmdTarget@@MBEPBUAFX_CONNECTIONMAP@@XZ:PROC ; CCmdTarget::GetConnectionMap
EXTRN	?GetInterfaceMap@CCmdTarget@@MBEPBUAFX_INTERFACEMAP@@XZ:PROC ; CCmdTarget::GetInterfaceMap
EXTRN	?GetEventSinkMap@CCmdTarget@@MBEPBUAFX_EVENTSINKMAP@@XZ:PROC ; CCmdTarget::GetEventSinkMap
EXTRN	?OnCreateAggregates@CCmdTarget@@UAEHXZ:PROC	; CCmdTarget::OnCreateAggregates
EXTRN	?GetInterfaceHook@CCmdTarget@@UAEPAUIUnknown@@PBX@Z:PROC ; CCmdTarget::GetInterfaceHook
EXTRN	?GetExtraConnectionPoints@CCmdTarget@@MAEHPAVCPtrArray@@@Z:PROC ; CCmdTarget::GetExtraConnectionPoints
EXTRN	?GetConnectionHook@CCmdTarget@@MAEPAUIConnectionPoint@@ABU_GUID@@@Z:PROC ; CCmdTarget::GetConnectionHook
EXTRN	?FromHandle@CWnd@@SGPAV1@PAUHWND__@@@Z:PROC	; CWnd::FromHandle
EXTRN	?SetWindowPos@CWnd@@QAEHPBV1@HHHHI@Z:PROC	; CWnd::SetWindowPos
EXTRN	?ShowWindow@CWnd@@QAEHH@Z:PROC			; CWnd::ShowWindow
EXTRN	?PreTranslateMessage@CWinThread@@UAEHPAUtagMSG@@@Z:PROC ; CWinThread::PreTranslateMessage
EXTRN	?PumpMessage@CWinThread@@UAEHXZ:PROC		; CWinThread::PumpMessage
EXTRN	?IsIdleMessage@CWinThread@@UAEHPAUtagMSG@@@Z:PROC ; CWinThread::IsIdleMessage
EXTRN	?ProcessMessageFilter@CWinThread@@UAEHHPAUtagMSG@@@Z:PROC ; CWinThread::ProcessMessageFilter
EXTRN	?GetMainWnd@CWinThread@@UAEPAVCWnd@@XZ:PROC	; CWinThread::GetMainWnd
EXTRN	?Delete@CWinThread@@UAEXXZ:PROC			; CWinThread::Delete
EXTRN	?GetRuntimeClass@CWinApp@@UBEPAUCRuntimeClass@@XZ:PROC ; CWinApp::GetRuntimeClass
EXTRN	??0CWinApp@@QAE@PBD@Z:PROC			; CWinApp::CWinApp
EXTRN	?GetProfileIntA@CWinApp@@UAEIPBD0H@Z:PROC	; CWinApp::GetProfileIntA
EXTRN	?WriteProfileInt@CWinApp@@UAEHPBD0H@Z:PROC	; CWinApp::WriteProfileInt
EXTRN	?GetProfileStringA@CWinApp@@UAE?AV?$CStringT@DV?$StrTraitMFC_DLL@DV?$ChTraitsCRT@D@ATL@@@@@ATL@@PBD00@Z:PROC ; CWinApp::GetProfileStringA
EXTRN	?WriteProfileStringA@CWinApp@@UAEHPBD00@Z:PROC	; CWinApp::WriteProfileStringA
EXTRN	?GetProfileBinary@CWinApp@@UAEHPBD0PAPAEPAI@Z:PROC ; CWinApp::GetProfileBinary
EXTRN	?WriteProfileBinary@CWinApp@@UAEHPBD0PAEI@Z:PROC ; CWinApp::WriteProfileBinary
EXTRN	?InitLibId@CWinApp@@UAEXXZ:PROC			; CWinApp::InitLibId
EXTRN	?Register@CWinApp@@UAEHXZ:PROC			; CWinApp::Register
EXTRN	?Unregister@CWinApp@@UAEHXZ:PROC		; CWinApp::Unregister
EXTRN	?OpenDocumentFile@CWinApp@@UAEPAVCDocument@@PBD@Z:PROC ; CWinApp::OpenDocumentFile
EXTRN	?OpenDocumentFile@CWinApp@@UAEPAVCDocument@@PBDH@Z:PROC ; CWinApp::OpenDocumentFile
EXTRN	?AddToRecentFileList@CWinApp@@UAEXPBD@Z:PROC	; CWinApp::AddToRecentFileList
EXTRN	?InitApplication@CWinApp@@UAEHXZ:PROC		; CWinApp::InitApplication
EXTRN	?SaveAllModified@CWinApp@@UAEHXZ:PROC		; CWinApp::SaveAllModified
EXTRN	?DoMessageBox@CWinApp@@UAEHPBDII@Z:PROC		; CWinApp::DoMessageBox
EXTRN	?DoWaitCursor@CWinApp@@UAEXH@Z:PROC		; CWinApp::DoWaitCursor
EXTRN	?OnDDECommand@CWinApp@@UAEHPAD@Z:PROC		; CWinApp::OnDDECommand
EXTRN	?WinHelpA@CWinApp@@UAEXKI@Z:PROC		; CWinApp::WinHelpA
EXTRN	?HtmlHelpA@CWinApp@@UAEXKI@Z:PROC		; CWinApp::HtmlHelpA
EXTRN	?WinHelpInternal@CWinApp@@UAEXKI@Z:PROC		; CWinApp::WinHelpInternal
EXTRN	?RegisterWithRestartManager@CWinApp@@UAEJHABV?$CStringT@DV?$StrTraitMFC_DLL@DV?$ChTraitsCRT@D@ATL@@@@@ATL@@@Z:PROC ; CWinApp::RegisterWithRestartManager
EXTRN	?RegisterWithRestartManager@CWinApp@@UAEJPB_WKP6GKPAX@Z1KK@Z:PROC ; CWinApp::RegisterWithRestartManager
EXTRN	?ApplicationRecoveryCallback@CWinApp@@UAEKPAX@Z:PROC ; CWinApp::ApplicationRecoveryCallback
EXTRN	?GetDataRecoveryHandler@CWinApp@@UAEPAVCDataRecoveryHandler@@XZ:PROC ; CWinApp::GetDataRecoveryHandler
EXTRN	?IsTaskbarInteractionEnabled@CWinApp@@UAEHXZ:PROC ; CWinApp::IsTaskbarInteractionEnabled
EXTRN	?ExitInstance@CWinApp@@UAEHXZ:PROC		; CWinApp::ExitInstance
EXTRN	?RestartInstance@CWinApp@@UAEHXZ:PROC		; CWinApp::RestartInstance
EXTRN	?Run@CWinApp@@UAEHXZ:PROC			; CWinApp::Run
EXTRN	?OnIdle@CWinApp@@UAEHJ@Z:PROC			; CWinApp::OnIdle
EXTRN	?ProcessWndProcException@CWinApp@@UAEJPAVCException@@PBUtagMSG@@@Z:PROC ; CWinApp::ProcessWndProcException
EXTRN	?LoadAppLangResourceDLL@CWinApp@@UAEPAUHINSTANCE__@@XZ:PROC ; CWinApp::LoadAppLangResourceDLL
EXTRN	??1CWinApp@@UAE@XZ:PROC				; CWinApp::~CWinApp
EXTRN	?GetThisMessageMap@CWinApp@@KGPBUAFX_MSGMAP@@XZ:PROC ; CWinApp::GetThisMessageMap
EXTRN	?LoadSysPolicies@CWinApp@@UAEHXZ:PROC		; CWinApp::LoadSysPolicies
EXTRN	?RegisterAll@COleObjectFactory@@SGHXZ:PROC	; COleObjectFactory::RegisterAll
EXTRN	?UpdateRegistryAll@COleObjectFactory@@SGHH@Z:PROC ; COleObjectFactory::UpdateRegistryAll
EXTRN	?AfxDllGetClassObject@@YGJABU_GUID@@0PAPAX@Z:PROC ; AfxDllGetClassObject
EXTRN	?AfxDllCanUnloadNow@@YGJXZ:PROC			; AfxDllCanUnloadNow
EXTRN	??_ECCompareChartApp@@UAEPAXI@Z:PROC		; CCompareChartApp::`vector deleting destructor'
EXTRN	?RemoveSharedNameToServer@CGSharedCli@CExOCXDLL@@QAEHXZ:PROC ; CExOCXDLL::CGSharedCli::RemoveSharedNameToServer
EXTRN	?SetParameters1@CExOCXDLL@@QAEXV?$CStringT@DV?$StrTraitMFC_DLL@DV?$ChTraitsCRT@D@ATL@@@@@ATL@@@Z:PROC ; CExOCXDLL::SetParameters1
EXTRN	?SetParameters2@CExOCXDLL@@QAEXV?$CStringT@DV?$StrTraitMFC_DLL@DV?$ChTraitsCRT@D@ATL@@@@@ATL@@@Z:PROC ; CExOCXDLL::SetParameters2
EXTRN	?SetParameters3@CExOCXDLL@@QAEXV?$CStringT@DV?$StrTraitMFC_DLL@DV?$ChTraitsCRT@D@ATL@@@@@ATL@@@Z:PROC ; CExOCXDLL::SetParameters3
EXTRN	??0CStdDialog@@QAE@PAVCWnd@@@Z:PROC		; CStdDialog::CStdDialog
EXTRN	?Resize@CStdDialog@@QAEXXZ:PROC			; CStdDialog::Resize
EXTRN	?SetSmallView@CStdDialog@@QAEXH@Z:PROC		; CStdDialog::SetSmallView
EXTRN	?InputCodeFromOutSide@CStdDialog@@QAEXV?$CStringT@DV?$StrTraitMFC_DLL@DV?$ChTraitsCRT@D@ATL@@@@@ATL@@@Z:PROC ; CStdDialog::InputCodeFromOutSide
EXTRN	@__security_check_cookie@4:PROC
EXTRN	___CxxFrameHandler3:PROC
EXTRN	??_7type_info@@6B@:QWORD			; type_info::`vftable'
EXTRN	__imp_?wndBottom@CWnd@@2V1@B:BYTE
EXTRN	___security_cookie:DWORD
_BSS	SEGMENT
?theApp@@3VCCompareChartApp@@A DB 0d0H DUP (?)		; theApp
?RMSG_REPLAY_REAL@@3IB DD 01H DUP (?)			; RMSG_REPLAY_REAL
?RMSG_REPLAY_FAIL@@3IB DD 01H DUP (?)			; RMSG_REPLAY_FAIL
?RMSG_REPLAY_CHANGE_DATE@@3IB DD 01H DUP (?)		; RMSG_REPLAY_CHANGE_DATE
?RMSG_REPLAY_END@@3IB DD 01H DUP (?)			; RMSG_REPLAY_END
?RMSG_REPLAY_INC_SEC@@3IB DD 01H DUP (?)		; RMSG_REPLAY_INC_SEC
?RMSG_REPLAY_TOTAL_SEC@@3IB DD 01H DUP (?)		; RMSG_REPLAY_TOTAL_SEC
?RMSG_GETSIGNAL_REAL@@3IB DD 01H DUP (?)		; RMSG_GETSIGNAL_REAL
?RMSG_CHARTMAIN@@3IB DD 01H DUP (?)			; RMSG_CHARTMAIN
?RMS_ANALYSIS_FUNC@@3IB DD 01H DUP (?)			; RMS_ANALYSIS_FUNC
?RMSG_GET_USERID@@3IB DD 01H DUP (?)			; RMSG_GET_USERID
?RMSG_KSDLLINFO@@3IB DD 01H DUP (?)			; RMSG_KSDLLINFO
?RMSG_GETINFO@@3IB DD 01H DUP (?)			; RMSG_GETINFO
?RMSG_CHANGE_SKINCOLOR@@3IB DD 01H DUP (?)		; RMSG_CHANGE_SKINCOLOR
?RMSG_GET_SKINCOLOR@@3IB DD 01H DUP (?)			; RMSG_GET_SKINCOLOR
?RMSG_CHANGE_CROSSLINE@@3IB DD 01H DUP (?)		; RMSG_CHANGE_CROSSLINE
?RMSG_SELCHARTCODE@@3IB DD 01H DUP (?)			; RMSG_SELCHARTCODE
?RMSG_GETUNIQUEID@@3IB DD 01H DUP (?)			; RMSG_GETUNIQUEID
?RMSG_GETMAPTR@@3IB DD 01H DUP (?)			; RMSG_GETMAPTR
_BSS	ENDS
CRT$XCU	SEGMENT
?RMSG_REPLAY_REAL$initializer$@@3P6AXXZA DD FLAT:??__ERMSG_REPLAY_REAL@@YAXXZ ; RMSG_REPLAY_REAL$initializer$
CRT$XCU	ENDS
;	COMDAT ??_R2CWinThread@@8
rdata$r	SEGMENT
??_R2CWinThread@@8 DD FLAT:??_R1A@?0A@EA@CWinThread@@8	; CWinThread::`RTTI Base Class Array'
	DD	FLAT:??_R1A@?0A@EA@CCmdTarget@@8
	DD	FLAT:??_R1A@?0A@EA@CObject@@8
rdata$r	ENDS
;	COMDAT ??_R3CWinThread@@8
rdata$r	SEGMENT
??_R3CWinThread@@8 DD 00H				; CWinThread::`RTTI Class Hierarchy Descriptor'
	DD	00H
	DD	03H
	DD	FLAT:??_R2CWinThread@@8
rdata$r	ENDS
;	COMDAT ??_R0?AVCWinThread@@@8
data$rs	SEGMENT
??_R0?AVCWinThread@@@8 DD FLAT:??_7type_info@@6B@	; CWinThread `RTTI Type Descriptor'
	DD	00H
	DB	'.?AVCWinThread@@', 00H
data$rs	ENDS
;	COMDAT ??_R1A@?0A@EA@CWinThread@@8
rdata$r	SEGMENT
??_R1A@?0A@EA@CWinThread@@8 DD FLAT:??_R0?AVCWinThread@@@8 ; CWinThread::`RTTI Base Class Descriptor at (0,-1,0,64)'
	DD	02H
	DD	00H
	DD	0ffffffffH
	DD	00H
	DD	040H
	DD	FLAT:??_R3CWinThread@@8
rdata$r	ENDS
;	COMDAT ??_R2CWinApp@@8
rdata$r	SEGMENT
??_R2CWinApp@@8 DD FLAT:??_R1A@?0A@EA@CWinApp@@8	; CWinApp::`RTTI Base Class Array'
	DD	FLAT:??_R1A@?0A@EA@CWinThread@@8
	DD	FLAT:??_R1A@?0A@EA@CCmdTarget@@8
	DD	FLAT:??_R1A@?0A@EA@CObject@@8
rdata$r	ENDS
;	COMDAT ??_R3CWinApp@@8
rdata$r	SEGMENT
??_R3CWinApp@@8 DD 00H					; CWinApp::`RTTI Class Hierarchy Descriptor'
	DD	00H
	DD	04H
	DD	FLAT:??_R2CWinApp@@8
rdata$r	ENDS
;	COMDAT ??_R0?AVCWinApp@@@8
data$rs	SEGMENT
??_R0?AVCWinApp@@@8 DD FLAT:??_7type_info@@6B@		; CWinApp `RTTI Type Descriptor'
	DD	00H
	DB	'.?AVCWinApp@@', 00H
data$rs	ENDS
;	COMDAT ??_R1A@?0A@EA@CWinApp@@8
rdata$r	SEGMENT
??_R1A@?0A@EA@CWinApp@@8 DD FLAT:??_R0?AVCWinApp@@@8	; CWinApp::`RTTI Base Class Descriptor at (0,-1,0,64)'
	DD	03H
	DD	00H
	DD	0ffffffffH
	DD	00H
	DD	040H
	DD	FLAT:??_R3CWinApp@@8
rdata$r	ENDS
;	COMDAT ??_R1A@?0A@EA@CCompareChartApp@@8
rdata$r	SEGMENT
??_R1A@?0A@EA@CCompareChartApp@@8 DD FLAT:??_R0?AVCCompareChartApp@@@8 ; CCompareChartApp::`RTTI Base Class Descriptor at (0,-1,0,64)'
	DD	04H
	DD	00H
	DD	0ffffffffH
	DD	00H
	DD	040H
	DD	FLAT:??_R3CCompareChartApp@@8
rdata$r	ENDS
;	COMDAT ??_R2CCompareChartApp@@8
rdata$r	SEGMENT
??_R2CCompareChartApp@@8 DD FLAT:??_R1A@?0A@EA@CCompareChartApp@@8 ; CCompareChartApp::`RTTI Base Class Array'
	DD	FLAT:??_R1A@?0A@EA@CWinApp@@8
	DD	FLAT:??_R1A@?0A@EA@CWinThread@@8
	DD	FLAT:??_R1A@?0A@EA@CCmdTarget@@8
	DD	FLAT:??_R1A@?0A@EA@CObject@@8
rdata$r	ENDS
;	COMDAT ??_R3CCompareChartApp@@8
rdata$r	SEGMENT
??_R3CCompareChartApp@@8 DD 00H				; CCompareChartApp::`RTTI Class Hierarchy Descriptor'
	DD	00H
	DD	05H
	DD	FLAT:??_R2CCompareChartApp@@8
rdata$r	ENDS
;	COMDAT ??_R0?AVCCompareChartApp@@@8
data$rs	SEGMENT
??_R0?AVCCompareChartApp@@@8 DD FLAT:??_7type_info@@6B@	; CCompareChartApp `RTTI Type Descriptor'
	DD	00H
	DB	'.?AVCCompareChartApp@@', 00H
data$rs	ENDS
;	COMDAT ??_R4CCompareChartApp@@6B@
rdata$r	SEGMENT
??_R4CCompareChartApp@@6B@ DD 00H			; CCompareChartApp::`RTTI Complete Object Locator'
	DD	00H
	DD	00H
	DD	FLAT:??_R0?AVCCompareChartApp@@@8
	DD	FLAT:??_R3CCompareChartApp@@8
rdata$r	ENDS
;	COMDAT ??_C@_0M@PINPKPMM@SetCodeInfo@
CONST	SEGMENT
??_C@_0M@PINPKPMM@SetCodeInfo@ DB 'SetCodeInfo', 00H	; `string'
CONST	ENDS
;	COMDAT ??_C@_0N@HJAMCNAE@SetFrameInfo@
CONST	SEGMENT
??_C@_0N@HJAMCNAE@SetFrameInfo@ DB 'SetFrameInfo', 00H	; `string'
CONST	ENDS
;	COMDAT ??_C@_04POIODBLJ@7124@
CONST	SEGMENT
??_C@_04POIODBLJ@7124@ DB '7124', 00H			; `string'
CONST	ENDS
;	COMDAT ??_C@_04LBMPKHHO@7123@
CONST	SEGMENT
??_C@_04LBMPKHHO@7123@ DB '7123', 00H			; `string'
CONST	ENDS
;	COMDAT ??_C@_04OCCELDNI@?$CF04d@
CONST	SEGMENT
??_C@_04OCCELDNI@?$CF04d@ DB '%04d', 00H		; `string'
CONST	ENDS
;	COMDAT ?messageMap@?1??GetThisMessageMap@CCompareChartApp@@KGPBUAFX_MSGMAP@@XZ@4U3@B
CONST	SEGMENT
?messageMap@?1??GetThisMessageMap@CCompareChartApp@@KGPBUAFX_MSGMAP@@XZ@4U3@B DD FLAT:?GetThisMessageMap@CWinApp@@KGPBUAFX_MSGMAP@@XZ ; `CCompareChartApp::GetThisMessageMap'::`2'::messageMap
	DD	FLAT:?_messageEntries@?1??GetThisMessageMap@CCompareChartApp@@KGPBUAFX_MSGMAP@@XZ@4QBUAFX_MSGMAP_ENTRY@@B
CONST	ENDS
;	COMDAT ?_messageEntries@?1??GetThisMessageMap@CCompareChartApp@@KGPBUAFX_MSGMAP@@XZ@4QBUAFX_MSGMAP_ENTRY@@B
CONST	SEGMENT
?_messageEntries@?1??GetThisMessageMap@CCompareChartApp@@KGPBUAFX_MSGMAP@@XZ@4QBUAFX_MSGMAP_ENTRY@@B DD 00H ; `CCompareChartApp::GetThisMessageMap'::`2'::_messageEntries
	DD	00H
	DD	00H
	DD	00H
	DD	00H
	DD	00H
CONST	ENDS
;	COMDAT ??_7CCompareChartApp@@6B@
CONST	SEGMENT
??_7CCompareChartApp@@6B@ DD FLAT:??_R4CCompareChartApp@@6B@ ; CCompareChartApp::`vftable'
	DD	FLAT:?GetRuntimeClass@CWinApp@@UBEPAUCRuntimeClass@@XZ
	DD	FLAT:??_ECCompareChartApp@@UAEPAXI@Z
	DD	FLAT:?Serialize@CObject@@UAEXAAVCArchive@@@Z
	DD	FLAT:?AssertValid@CObject@@UBEXXZ
	DD	FLAT:?Dump@CObject@@UBEXAAVCDumpContext@@@Z
	DD	FLAT:?OnCmdMsg@CCmdTarget@@UAEHIHPAXPAUAFX_CMDHANDLERINFO@@@Z
	DD	FLAT:?OnFinalRelease@CCmdTarget@@UAEXXZ
	DD	FLAT:?IsInvokeAllowed@CCmdTarget@@UAEHJ@Z
	DD	FLAT:?GetDispatchIID@CCmdTarget@@UAEHPAU_GUID@@@Z
	DD	FLAT:?GetTypeInfoCount@CCmdTarget@@UAEIXZ
	DD	FLAT:?GetTypeLibCache@CCmdTarget@@UAEPAVCTypeLibCache@@XZ
	DD	FLAT:?GetTypeLib@CCmdTarget@@UAEJKPAPAUITypeLib@@@Z
	DD	FLAT:?GetMessageMap@CCompareChartApp@@MBEPBUAFX_MSGMAP@@XZ
	DD	FLAT:?GetCommandMap@CCmdTarget@@MBEPBUAFX_OLECMDMAP@@XZ
	DD	FLAT:?GetDispatchMap@CCmdTarget@@MBEPBUAFX_DISPMAP@@XZ
	DD	FLAT:?GetConnectionMap@CCmdTarget@@MBEPBUAFX_CONNECTIONMAP@@XZ
	DD	FLAT:?GetInterfaceMap@CCmdTarget@@MBEPBUAFX_INTERFACEMAP@@XZ
	DD	FLAT:?GetEventSinkMap@CCmdTarget@@MBEPBUAFX_EVENTSINKMAP@@XZ
	DD	FLAT:?OnCreateAggregates@CCmdTarget@@UAEHXZ
	DD	FLAT:?GetInterfaceHook@CCmdTarget@@UAEPAUIUnknown@@PBX@Z
	DD	FLAT:?GetExtraConnectionPoints@CCmdTarget@@MAEHPAVCPtrArray@@@Z
	DD	FLAT:?GetConnectionHook@CCmdTarget@@MAEPAUIConnectionPoint@@ABU_GUID@@@Z
	DD	FLAT:?InitInstance@CCompareChartApp@@UAEHXZ
	DD	FLAT:?Run@CWinApp@@UAEHXZ
	DD	FLAT:?PreTranslateMessage@CWinThread@@UAEHPAUtagMSG@@@Z
	DD	FLAT:?PumpMessage@CWinThread@@UAEHXZ
	DD	FLAT:?OnIdle@CWinApp@@UAEHJ@Z
	DD	FLAT:?IsIdleMessage@CWinThread@@UAEHPAUtagMSG@@@Z
	DD	FLAT:?ExitInstance@CWinApp@@UAEHXZ
	DD	FLAT:?ProcessWndProcException@CWinApp@@UAEJPAVCException@@PBUtagMSG@@@Z
	DD	FLAT:?ProcessMessageFilter@CWinThread@@UAEHHPAUtagMSG@@@Z
	DD	FLAT:?GetMainWnd@CWinThread@@UAEPAVCWnd@@XZ
	DD	FLAT:?Delete@CWinThread@@UAEXXZ
	DD	FLAT:?GetProfileIntA@CWinApp@@UAEIPBD0H@Z
	DD	FLAT:?WriteProfileInt@CWinApp@@UAEHPBD0H@Z
	DD	FLAT:?GetProfileStringA@CWinApp@@UAE?AV?$CStringT@DV?$StrTraitMFC_DLL@DV?$ChTraitsCRT@D@ATL@@@@@ATL@@PBD00@Z
	DD	FLAT:?WriteProfileStringA@CWinApp@@UAEHPBD00@Z
	DD	FLAT:?GetProfileBinary@CWinApp@@UAEHPBD0PAPAEPAI@Z
	DD	FLAT:?WriteProfileBinary@CWinApp@@UAEHPBD0PAEI@Z
	DD	FLAT:?InitLibId@CWinApp@@UAEXXZ
	DD	FLAT:?Register@CWinApp@@UAEHXZ
	DD	FLAT:?Unregister@CWinApp@@UAEHXZ
	DD	FLAT:?OpenDocumentFile@CWinApp@@UAEPAVCDocument@@PBDH@Z
	DD	FLAT:?OpenDocumentFile@CWinApp@@UAEPAVCDocument@@PBD@Z
	DD	FLAT:?AddToRecentFileList@CWinApp@@UAEXPBD@Z
	DD	FLAT:?InitApplication@CWinApp@@UAEHXZ
	DD	FLAT:?SaveAllModified@CWinApp@@UAEHXZ
	DD	FLAT:?DoMessageBox@CWinApp@@UAEHPBDII@Z
	DD	FLAT:?DoWaitCursor@CWinApp@@UAEXH@Z
	DD	FLAT:?OnDDECommand@CWinApp@@UAEHPAD@Z
	DD	FLAT:?WinHelpA@CWinApp@@UAEXKI@Z
	DD	FLAT:?HtmlHelpA@CWinApp@@UAEXKI@Z
	DD	FLAT:?WinHelpInternal@CWinApp@@UAEXKI@Z
	DD	FLAT:?RegisterWithRestartManager@CWinApp@@UAEJPB_WKP6GKPAX@Z1KK@Z
	DD	FLAT:?RegisterWithRestartManager@CWinApp@@UAEJHABV?$CStringT@DV?$StrTraitMFC_DLL@DV?$ChTraitsCRT@D@ATL@@@@@ATL@@@Z
	DD	FLAT:?ApplicationRecoveryCallback@CWinApp@@UAEKPAX@Z
	DD	FLAT:?SupportsRestartManager@CWinApp@@UBEHXZ
	DD	FLAT:?SupportsApplicationRecovery@CWinApp@@UBEHXZ
	DD	FLAT:?SupportsAutosaveAtRestart@CWinApp@@UBEHXZ
	DD	FLAT:?SupportsAutosaveAtInterval@CWinApp@@UBEHXZ
	DD	FLAT:?ReopenPreviousFilesAtRestart@CWinApp@@UBEHXZ
	DD	FLAT:?RestoreAutosavedFilesAtRestart@CWinApp@@UBEHXZ
	DD	FLAT:?GetApplicationRestartFlags@CWinApp@@UAEKXZ
	DD	FLAT:?GetApplicationRecoveryParameter@CWinApp@@UAEPAXXZ
	DD	FLAT:?GetApplicationRecoveryPingInterval@CWinApp@@UAEKXZ
	DD	FLAT:?GetDataRecoveryHandler@CWinApp@@UAEPAVCDataRecoveryHandler@@XZ
	DD	FLAT:?IsTaskbarInteractionEnabled@CWinApp@@UAEHXZ
	DD	FLAT:?RestartInstance@CWinApp@@UAEHXZ
	DD	FLAT:?LoadAppLangResourceDLL@CWinApp@@UAEPAUHINSTANCE__@@XZ
	DD	FLAT:?LoadSysPolicies@CWinApp@@UAEHXZ
CONST	ENDS
;	COMDAT ??_R2CCmdTarget@@8
rdata$r	SEGMENT
??_R2CCmdTarget@@8 DD FLAT:??_R1A@?0A@EA@CCmdTarget@@8	; CCmdTarget::`RTTI Base Class Array'
	DD	FLAT:??_R1A@?0A@EA@CObject@@8
rdata$r	ENDS
;	COMDAT ??_R3CCmdTarget@@8
rdata$r	SEGMENT
??_R3CCmdTarget@@8 DD 00H				; CCmdTarget::`RTTI Class Hierarchy Descriptor'
	DD	00H
	DD	02H
	DD	FLAT:??_R2CCmdTarget@@8
rdata$r	ENDS
;	COMDAT ??_R0?AVCCmdTarget@@@8
data$rs	SEGMENT
??_R0?AVCCmdTarget@@@8 DD FLAT:??_7type_info@@6B@	; CCmdTarget `RTTI Type Descriptor'
	DD	00H
	DB	'.?AVCCmdTarget@@', 00H
data$rs	ENDS
;	COMDAT ??_R1A@?0A@EA@CCmdTarget@@8
rdata$r	SEGMENT
??_R1A@?0A@EA@CCmdTarget@@8 DD FLAT:??_R0?AVCCmdTarget@@@8 ; CCmdTarget::`RTTI Base Class Descriptor at (0,-1,0,64)'
	DD	01H
	DD	00H
	DD	0ffffffffH
	DD	00H
	DD	040H
	DD	FLAT:??_R3CCmdTarget@@8
rdata$r	ENDS
;	COMDAT ??_R1A@?0A@EA@CObject@@8
rdata$r	SEGMENT
??_R1A@?0A@EA@CObject@@8 DD FLAT:??_R0?AVCObject@@@8	; CObject::`RTTI Base Class Descriptor at (0,-1,0,64)'
	DD	00H
	DD	00H
	DD	0ffffffffH
	DD	00H
	DD	040H
	DD	FLAT:??_R3CObject@@8
rdata$r	ENDS
;	COMDAT ??_R2CObject@@8
rdata$r	SEGMENT
??_R2CObject@@8 DD FLAT:??_R1A@?0A@EA@CObject@@8	; CObject::`RTTI Base Class Array'
rdata$r	ENDS
;	COMDAT ??_R3CObject@@8
rdata$r	SEGMENT
??_R3CObject@@8 DD 00H					; CObject::`RTTI Class Hierarchy Descriptor'
	DD	00H
	DD	01H
	DD	FLAT:??_R2CObject@@8
rdata$r	ENDS
;	COMDAT ??_R0?AVCObject@@@8
data$rs	SEGMENT
??_R0?AVCObject@@@8 DD FLAT:??_7type_info@@6B@		; CObject `RTTI Type Descriptor'
	DD	00H
	DB	'.?AVCObject@@', 00H
data$rs	ENDS
;	COMDAT xdata$x
xdata$x	SEGMENT
__ehfuncinfo$?fnFuncCall@@YGJPAXPBD1AAUtagVARIANT@@@Z DD 019930522H
	DD	06H
	DD	FLAT:__unwindtable$?fnFuncCall@@YGJPAXPBD1AAUtagVARIANT@@@Z
	DD	2 DUP(00H)
	DD	2 DUP(00H)
	DD	00H
	DD	01H
__unwindtable$?fnFuncCall@@YGJPAXPBD1AAUtagVARIANT@@@Z DD 0ffffffffH
	DD	FLAT:__unwindfunclet$?fnFuncCall@@YGJPAXPBD1AAUtagVARIANT@@@Z$0
	DD	00H
	DD	FLAT:__unwindfunclet$?fnFuncCall@@YGJPAXPBD1AAUtagVARIANT@@@Z$1
	DD	01H
	DD	FLAT:__unwindfunclet$?fnFuncCall@@YGJPAXPBD1AAUtagVARIANT@@@Z$2
	DD	02H
	DD	FLAT:__unwindfunclet$?fnFuncCall@@YGJPAXPBD1AAUtagVARIANT@@@Z$3
	DD	03H
	DD	FLAT:__unwindfunclet$?fnFuncCall@@YGJPAXPBD1AAUtagVARIANT@@@Z$4
	DD	04H
	DD	FLAT:__unwindfunclet$?fnFuncCall@@YGJPAXPBD1AAUtagVARIANT@@@Z$5
xdata$x	ENDS
;	COMDAT xdata$x
xdata$x	SEGMENT
__unwindtable$?fnLoad@@YGJPAUSTODCREATEINFO_IN@@PAUSTODCREATEINFO_OUT@@@Z DD 0ffffffffH
	DD	FLAT:__unwindfunclet$?fnLoad@@YGJPAUSTODCREATEINFO_IN@@PAUSTODCREATEINFO_OUT@@@Z$0
__ehfuncinfo$?fnLoad@@YGJPAUSTODCREATEINFO_IN@@PAUSTODCREATEINFO_OUT@@@Z DD 019930522H
	DD	01H
	DD	FLAT:__unwindtable$?fnLoad@@YGJPAUSTODCREATEINFO_IN@@PAUSTODCREATEINFO_OUT@@@Z
	DD	2 DUP(00H)
	DD	2 DUP(00H)
	DD	00H
	DD	01H
xdata$x	ENDS
;	COMDAT xdata$x
xdata$x	SEGMENT
__ehfuncinfo$?fnInit@@YGJPAUSTODINIT_IN@@PAUSTODINIT_OUT@@@Z DD 019930522H
	DD	05H
	DD	FLAT:__unwindtable$?fnInit@@YGJPAUSTODINIT_IN@@PAUSTODINIT_OUT@@@Z
	DD	2 DUP(00H)
	DD	2 DUP(00H)
	DD	00H
	DD	01H
__unwindtable$?fnInit@@YGJPAUSTODINIT_IN@@PAUSTODINIT_OUT@@@Z DD 0ffffffffH
	DD	FLAT:__unwindfunclet$?fnInit@@YGJPAUSTODINIT_IN@@PAUSTODINIT_OUT@@@Z$0
	DD	00H
	DD	FLAT:__unwindfunclet$?fnInit@@YGJPAUSTODINIT_IN@@PAUSTODINIT_OUT@@@Z$1
	DD	01H
	DD	FLAT:__unwindfunclet$?fnInit@@YGJPAUSTODINIT_IN@@PAUSTODINIT_OUT@@@Z$2
	DD	02H
	DD	FLAT:__unwindfunclet$?fnInit@@YGJPAUSTODINIT_IN@@PAUSTODINIT_OUT@@@Z$3
	DD	03H
	DD	FLAT:__unwindfunclet$?fnInit@@YGJPAUSTODINIT_IN@@PAUSTODINIT_OUT@@@Z$4
xdata$x	ENDS
CRT$XCU	SEGMENT
?RMSG_REPLAY_FAIL$initializer$@@3P6AXXZA DD FLAT:??__ERMSG_REPLAY_FAIL@@YAXXZ ; RMSG_REPLAY_FAIL$initializer$
CRT$XCU	ENDS
CRT$XCU	SEGMENT
?RMSG_REPLAY_CHANGE_DATE$initializer$@@3P6AXXZA DD FLAT:??__ERMSG_REPLAY_CHANGE_DATE@@YAXXZ ; RMSG_REPLAY_CHANGE_DATE$initializer$
CRT$XCU	ENDS
CRT$XCU	SEGMENT
?RMSG_REPLAY_END$initializer$@@3P6AXXZA DD FLAT:??__ERMSG_REPLAY_END@@YAXXZ ; RMSG_REPLAY_END$initializer$
CRT$XCU	ENDS
CRT$XCU	SEGMENT
?RMSG_REPLAY_INC_SEC$initializer$@@3P6AXXZA DD FLAT:??__ERMSG_REPLAY_INC_SEC@@YAXXZ ; RMSG_REPLAY_INC_SEC$initializer$
CRT$XCU	ENDS
CRT$XCU	SEGMENT
?RMSG_REPLAY_TOTAL_SEC$initializer$@@3P6AXXZA DD FLAT:??__ERMSG_REPLAY_TOTAL_SEC@@YAXXZ ; RMSG_REPLAY_TOTAL_SEC$initializer$
CRT$XCU	ENDS
CRT$XCU	SEGMENT
?RMSG_GETSIGNAL_REAL$initializer$@@3P6AXXZA DD FLAT:??__ERMSG_GETSIGNAL_REAL@@YAXXZ ; RMSG_GETSIGNAL_REAL$initializer$
CRT$XCU	ENDS
CRT$XCU	SEGMENT
?RMSG_CHARTMAIN$initializer$@@3P6AXXZA DD FLAT:??__ERMSG_CHARTMAIN@@YAXXZ ; RMSG_CHARTMAIN$initializer$
CRT$XCU	ENDS
CRT$XCU	SEGMENT
?RMS_ANALYSIS_FUNC$initializer$@@3P6AXXZA DD FLAT:??__ERMS_ANALYSIS_FUNC@@YAXXZ ; RMS_ANALYSIS_FUNC$initializer$
CRT$XCU	ENDS
CRT$XCU	SEGMENT
?RMSG_GET_USERID$initializer$@@3P6AXXZA DD FLAT:??__ERMSG_GET_USERID@@YAXXZ ; RMSG_GET_USERID$initializer$
CRT$XCU	ENDS
CRT$XCU	SEGMENT
?RMSG_KSDLLINFO$initializer$@@3P6AXXZA DD FLAT:??__ERMSG_KSDLLINFO@@YAXXZ ; RMSG_KSDLLINFO$initializer$
CRT$XCU	ENDS
CRT$XCU	SEGMENT
?RMSG_GETINFO$initializer$@@3P6AXXZA DD FLAT:??__ERMSG_GETINFO@@YAXXZ ; RMSG_GETINFO$initializer$
CRT$XCU	ENDS
CRT$XCU	SEGMENT
?RMSG_CHANGE_SKINCOLOR$initializer$@@3P6AXXZA DD FLAT:??__ERMSG_CHANGE_SKINCOLOR@@YAXXZ ; RMSG_CHANGE_SKINCOLOR$initializer$
CRT$XCU	ENDS
CRT$XCU	SEGMENT
?RMSG_GET_SKINCOLOR$initializer$@@3P6AXXZA DD FLAT:??__ERMSG_GET_SKINCOLOR@@YAXXZ ; RMSG_GET_SKINCOLOR$initializer$
CRT$XCU	ENDS
CRT$XCU	SEGMENT
?RMSG_CHANGE_CROSSLINE$initializer$@@3P6AXXZA DD FLAT:??__ERMSG_CHANGE_CROSSLINE@@YAXXZ ; RMSG_CHANGE_CROSSLINE$initializer$
CRT$XCU	ENDS
CRT$XCU	SEGMENT
?RMSG_SELCHARTCODE$initializer$@@3P6AXXZA DD FLAT:??__ERMSG_SELCHARTCODE@@YAXXZ ; RMSG_SELCHARTCODE$initializer$
CRT$XCU	ENDS
CRT$XCU	SEGMENT
?theApp$initializer$@@3P6AXXZA DD FLAT:??__EtheApp@@YAXXZ ; theApp$initializer$
CRT$XCU	ENDS
CRT$XCU	SEGMENT
?RMSG_GETUNIQUEID$initializer$@@3P6AXXZA DD FLAT:??__ERMSG_GETUNIQUEID@@YAXXZ ; RMSG_GETUNIQUEID$initializer$
CRT$XCU	ENDS
CRT$XCU	SEGMENT
?RMSG_GETMAPTR$initializer$@@3P6AXXZA DD FLAT:??__ERMSG_GETMAPTR@@YAXXZ ; RMSG_GETMAPTR$initializer$
CRT$XCU	ENDS
; Function compile flags: /Ogtp
; File D:\git\src\IBK\IBK_DRFN\ProjSrc\SrcDrfn\Chart\comparechart\CompareChart.cpp
; File C:\Program Files (x86)\Microsoft Visual Studio\2019\Community\VC\Tools\MSVC\14.29.30133\atlmfc\include\afxwin2.inl
; File D:\git\src\IBK\IBK_DRFN\ProjSrc\SrcDrfn\Chart\comparechart\CompareChart.cpp
;	COMDAT _DROPKEY_TRADING
_TEXT	SEGMENT
_pWnd$ = 8						; size = 4
_wp$ = 12						; size = 4
_lp$ = 16						; size = 4
_DROPKEY_TRADING PROC					; COMDAT

; 295  : {

  00000	55		 push	 ebp
  00001	8b ec		 mov	 ebp, esp

; 296  : 	CStdDialog* pDialog = (CStdDialog*)pWnd;
; 297  : 	if(pDialog)

  00003	8b 45 08	 mov	 eax, DWORD PTR _pWnd$[ebp]
  00006	85 c0		 test	 eax, eax
  00008	74 1b		 je	 SHORT $LN2@DROPKEY_TR
; File C:\Program Files (x86)\Microsoft Visual Studio\2019\Community\VC\Tools\MSVC\14.29.30133\atlmfc\include\afxwin2.inl

; 32   : 	{ ASSERT(::IsWindow(m_hWnd)); return ::SendMessage(m_hWnd, message, wParam, lParam); }

  0000a	ff 75 10	 push	 DWORD PTR _lp$[ebp]
  0000d	ff 75 0c	 push	 DWORD PTR _wp$[ebp]
  00010	68 d1 04 00 00	 push	 1233			; 000004d1H
  00015	ff 70 20	 push	 DWORD PTR [eax+32]
  00018	ff 15 00 00 00
	00		 call	 DWORD PTR __imp__SendMessageA@16
; File D:\git\src\IBK\IBK_DRFN\ProjSrc\SrcDrfn\Chart\comparechart\CompareChart.cpp

; 300  : 		return 1L;

  0001e	b8 01 00 00 00	 mov	 eax, 1

; 303  : }

  00023	5d		 pop	 ebp
  00024	c3		 ret	 0
$LN2@DROPKEY_TR:

; 301  : 	}
; 302  : 	return 0L;

  00025	33 c0		 xor	 eax, eax

; 303  : }

  00027	5d		 pop	 ebp
  00028	c3		 ret	 0
_DROPKEY_TRADING ENDP
_TEXT	ENDS
; Function compile flags: /Ogtp
; File D:\git\src\IBK\IBK_DRFN\ProjSrc\SrcDrfn\Chart\comparechart\CompareChart.cpp
; File C:\Program Files (x86)\Microsoft Visual Studio\2019\Community\VC\Tools\MSVC\14.29.30133\atlmfc\include\afxwin2.inl
; File D:\git\src\IBK\IBK_DRFN\ProjSrc\SrcDrfn\Chart\comparechart\CompareChart.cpp
;	COMDAT _SETKEYCODE_TRADING
_TEXT	SEGMENT
_pWnd$ = 8						; size = 4
_wp$ = 12						; size = 4
_lp$ = 16						; size = 4
_SETKEYCODE_TRADING PROC				; COMDAT

; 284  : {

  00000	55		 push	 ebp
  00001	8b ec		 mov	 ebp, esp

; 285  : 	CStdDialog* pDialog = (CStdDialog*)pWnd;
; 286  : 	if(pDialog)

  00003	8b 45 08	 mov	 eax, DWORD PTR _pWnd$[ebp]
  00006	85 c0		 test	 eax, eax
  00008	74 1b		 je	 SHORT $LN2@SETKEYCODE
; File C:\Program Files (x86)\Microsoft Visual Studio\2019\Community\VC\Tools\MSVC\14.29.30133\atlmfc\include\afxwin2.inl

; 32   : 	{ ASSERT(::IsWindow(m_hWnd)); return ::SendMessage(m_hWnd, message, wParam, lParam); }

  0000a	ff 75 10	 push	 DWORD PTR _lp$[ebp]
  0000d	ff 75 0c	 push	 DWORD PTR _wp$[ebp]
  00010	68 3d 04 00 00	 push	 1085			; 0000043dH
  00015	ff 70 20	 push	 DWORD PTR [eax+32]
  00018	ff 15 00 00 00
	00		 call	 DWORD PTR __imp__SendMessageA@16
; File D:\git\src\IBK\IBK_DRFN\ProjSrc\SrcDrfn\Chart\comparechart\CompareChart.cpp

; 289  : 		return 1L;

  0001e	b8 01 00 00 00	 mov	 eax, 1

; 292  : }

  00023	5d		 pop	 ebp
  00024	c3		 ret	 0
$LN2@SETKEYCODE:

; 290  : 	}
; 291  : 	return 0L;

  00025	33 c0		 xor	 eax, eax

; 292  : }

  00027	5d		 pop	 ebp
  00028	c3		 ret	 0
_SETKEYCODE_TRADING ENDP
_TEXT	ENDS
; Function compile flags: /Ogtp
; File D:\git\src\IBK\IBK_DRFN\ProjSrc\SrcDrfn\Chart\comparechart\CompareChart.cpp
;	COMDAT _DESTROY_CHARTSCREEN
_TEXT	SEGMENT
_pWnd$ = 8						; size = 4
_DESTROY_CHARTSCREEN PROC				; COMDAT

; 274  : {

  00000	55		 push	 ebp
  00001	8b ec		 mov	 ebp, esp
  00003	56		 push	 esi

; 275  : 	CStdDialog* pDlgChart = (CStdDialog*)pWnd;
; 276  : 	if(pDlgChart)

  00004	8b 75 08	 mov	 esi, DWORD PTR _pWnd$[ebp]
  00007	85 f6		 test	 esi, esi
  00009	74 10		 je	 SHORT $LN4@DESTROY_CH

; 277  : 	{
; 278  : 		pDlgChart->DestroyWindow();

  0000b	8b 06		 mov	 eax, DWORD PTR [esi]
  0000d	8b ce		 mov	 ecx, esi
  0000f	ff 50 68	 call	 DWORD PTR [eax+104]

; 279  : 		delete pDlgChart;

  00012	8b 06		 mov	 eax, DWORD PTR [esi]
  00014	8b ce		 mov	 ecx, esi
  00016	6a 01		 push	 1
  00018	ff 50 04	 call	 DWORD PTR [eax+4]
$LN4@DESTROY_CH:
  0001b	5e		 pop	 esi

; 280  : 	}
; 281  : }

  0001c	5d		 pop	 ebp
  0001d	c3		 ret	 0
_DESTROY_CHARTSCREEN ENDP
_TEXT	ENDS
; Function compile flags: /Ogtp
; File D:\git\src\IBK\IBK_DRFN\ProjSrc\SrcDrfn\Chart\comparechart\CompareChart.cpp
; File C:\Program Files (x86)\Microsoft Visual Studio\2019\Community\VC\Tools\MSVC\14.29.30133\atlmfc\include\afx.inl
; File D:\git\src\IBK\IBK_DRFN\ProjSrc\SrcDrfn\Chart\comparechart\CompareChart.cpp
; File C:\Program Files (x86)\Microsoft Visual Studio\2019\Community\VC\Tools\MSVC\14.29.30133\atlmfc\include\atlsimpstr.h
; File D:\git\src\IBK\IBK_DRFN\ProjSrc\SrcDrfn\Chart\comparechart\CompareChart.cpp
; File C:\Program Files (x86)\Microsoft Visual Studio\2019\Community\VC\Tools\MSVC\14.29.30133\atlmfc\include\atlsimpstr.h
; File D:\git\src\IBK\IBK_DRFN\ProjSrc\SrcDrfn\Chart\comparechart\CompareChart.cpp
; File C:\Program Files (x86)\Microsoft Visual Studio\2019\Community\VC\Tools\MSVC\14.29.30133\atlmfc\include\atlsimpstr.h
; File D:\git\src\IBK\IBK_DRFN\ProjSrc\SrcDrfn\Chart\comparechart\CompareChart.cpp
; File C:\Program Files (x86)\Microsoft Visual Studio\2019\Community\VC\Tools\MSVC\14.29.30133\atlmfc\include\afxwin2.inl
; File D:\git\src\IBK\IBK_DRFN\ProjSrc\SrcDrfn\Chart\comparechart\CompareChart.cpp
; File C:\Program Files (x86)\Microsoft Visual Studio\2019\Community\VC\Tools\MSVC\14.29.30133\atlmfc\include\cstringt.h
; File D:\git\src\IBK\IBK_DRFN\ProjSrc\SrcDrfn\Chart\comparechart\CompareChart.cpp
; File C:\Program Files (x86)\Microsoft Visual Studio\2019\Community\VC\Tools\MSVC\14.29.30133\atlmfc\include\cstringt.h
; File D:\git\src\IBK\IBK_DRFN\ProjSrc\SrcDrfn\Chart\comparechart\CompareChart.cpp
;	COMDAT _CREATE_CHARTSCREEN
_TEXT	SEGMENT
__ctlState$1 = -20					; size = 8
_strValue$2 = -12					; size = 4
_strParam1$3 = -8					; size = 4
_strParam2$4 = -4					; size = 4
_iTradingID$ = 8					; size = 4
_pParent$ = 12						; size = 4
_strParam3$5 = 16					; size = 4
_hPlatform$ = 16					; size = 4
_CREATE_CHARTSCREEN PROC				; COMDAT

; 248  : {

  00000	55		 push	 ebp
  00001	8b ec		 mov	 ebp, esp

; 249  : 	theApp.m_hPlatform = hPlatform;

  00003	8b 45 10	 mov	 eax, DWORD PTR _hPlatform$[ebp]

; 105  : 	CString strValue;

  00006	8d 4d f4	 lea	 ecx, DWORD PTR _strValue$2[ebp]

; 248  : {

  00009	83 ec 14	 sub	 esp, 20			; 00000014H

; 249  : 	theApp.m_hPlatform = hPlatform;

  0000c	a3 cc 00 00 00	 mov	 DWORD PTR ?theApp@@3VCCompareChartApp@@A+204, eax
  00011	53		 push	 ebx
  00012	56		 push	 esi
  00013	57		 push	 edi

; 105  : 	CString strValue;

  00014	ff 15 00 00 00
	00		 call	 DWORD PTR __imp_??0?$CStringT@DV?$StrTraitMFC_DLL@DV?$ChTraitsCRT@D@ATL@@@@@ATL@@QAE@XZ

; 106  : 	CString strParam1, strParam2, strParam3;

  0001a	8d 4d f8	 lea	 ecx, DWORD PTR _strParam1$3[ebp]
  0001d	ff 15 00 00 00
	00		 call	 DWORD PTR __imp_??0?$CStringT@DV?$StrTraitMFC_DLL@DV?$ChTraitsCRT@D@ATL@@@@@ATL@@QAE@XZ
  00023	8d 4d fc	 lea	 ecx, DWORD PTR _strParam2$4[ebp]
  00026	ff 15 00 00 00
	00		 call	 DWORD PTR __imp_??0?$CStringT@DV?$StrTraitMFC_DLL@DV?$ChTraitsCRT@D@ATL@@@@@ATL@@QAE@XZ
  0002c	8d 4d 10	 lea	 ecx, DWORD PTR _strParam3$5[ebp]
  0002f	ff 15 00 00 00
	00		 call	 DWORD PTR __imp_??0?$CStringT@DV?$StrTraitMFC_DLL@DV?$ChTraitsCRT@D@ATL@@@@@ATL@@QAE@XZ
; File C:\Program Files (x86)\Microsoft Visual Studio\2019\Community\VC\Tools\MSVC\14.29.30133\atlmfc\include\afx.inl

; 116  : 	{ return ::operator new(nSize); }

  00035	68 10 11 00 00	 push	 4368			; 00001110H
  0003a	e8 00 00 00 00	 call	 ??2@YAPAXI@Z		; operator new
  0003f	83 c4 04	 add	 esp, 4
; File D:\git\src\IBK\IBK_DRFN\ProjSrc\SrcDrfn\Chart\comparechart\CompareChart.cpp

; 108  : 	CStdDialog* pDialog =  new CStdDialog;

  00042	85 c0		 test	 eax, eax
  00044	74 0d		 je	 SHORT $LN8@CREATE_CHA
  00046	6a 00		 push	 0
  00048	8b c8		 mov	 ecx, eax
  0004a	e8 00 00 00 00	 call	 ??0CStdDialog@@QAE@PAVCWnd@@@Z ; CStdDialog::CStdDialog
  0004f	8b f8		 mov	 edi, eax
  00051	eb 02		 jmp	 SHORT $LN9@CREATE_CHA
$LN8@CREATE_CHA:
  00053	33 ff		 xor	 edi, edi
$LN9@CREATE_CHA:
; File C:\Program Files (x86)\Microsoft Visual Studio\2019\Community\VC\Tools\MSVC\14.29.30133\atlmfc\include\atlsimpstr.h

; 533  : 		return( GetLength() == 0 );

  00055	8b 45 f8	 mov	 eax, DWORD PTR _strParam1$3[ebp]
  00058	83 78 f4 00	 cmp	 DWORD PTR [eax-12], 0
; File D:\git\src\IBK\IBK_DRFN\ProjSrc\SrcDrfn\Chart\comparechart\CompareChart.cpp

; 110  : 	if(!strParam1.IsEmpty())

  0005c	74 14		 je	 SHORT $LN4@CREATE_CHA

; 111  : 		pDialog->SetParameters1(strParam1);

  0005e	51		 push	 ecx
  0005f	8d 45 f8	 lea	 eax, DWORD PTR _strParam1$3[ebp]
  00062	8b cc		 mov	 ecx, esp
  00064	50		 push	 eax
  00065	ff 15 00 00 00
	00		 call	 DWORD PTR __imp_??0?$CStringT@DV?$StrTraitMFC_DLL@DV?$ChTraitsCRT@D@ATL@@@@@ATL@@QAE@ABV01@@Z
  0006b	8b cf		 mov	 ecx, edi
  0006d	e8 00 00 00 00	 call	 ?SetParameters1@CExOCXDLL@@QAEXV?$CStringT@DV?$StrTraitMFC_DLL@DV?$ChTraitsCRT@D@ATL@@@@@ATL@@@Z ; CExOCXDLL::SetParameters1
$LN4@CREATE_CHA:
; File C:\Program Files (x86)\Microsoft Visual Studio\2019\Community\VC\Tools\MSVC\14.29.30133\atlmfc\include\atlsimpstr.h

; 533  : 		return( GetLength() == 0 );

  00072	8b 45 fc	 mov	 eax, DWORD PTR _strParam2$4[ebp]
  00075	83 78 f4 00	 cmp	 DWORD PTR [eax-12], 0
; File D:\git\src\IBK\IBK_DRFN\ProjSrc\SrcDrfn\Chart\comparechart\CompareChart.cpp

; 112  : 	if(!strParam2.IsEmpty())

  00079	74 14		 je	 SHORT $LN5@CREATE_CHA

; 113  : 		pDialog->SetParameters2(strParam2);

  0007b	51		 push	 ecx
  0007c	8d 45 fc	 lea	 eax, DWORD PTR _strParam2$4[ebp]
  0007f	8b cc		 mov	 ecx, esp
  00081	50		 push	 eax
  00082	ff 15 00 00 00
	00		 call	 DWORD PTR __imp_??0?$CStringT@DV?$StrTraitMFC_DLL@DV?$ChTraitsCRT@D@ATL@@@@@ATL@@QAE@ABV01@@Z
  00088	8b cf		 mov	 ecx, edi
  0008a	e8 00 00 00 00	 call	 ?SetParameters2@CExOCXDLL@@QAEXV?$CStringT@DV?$StrTraitMFC_DLL@DV?$ChTraitsCRT@D@ATL@@@@@ATL@@@Z ; CExOCXDLL::SetParameters2
$LN5@CREATE_CHA:
; File C:\Program Files (x86)\Microsoft Visual Studio\2019\Community\VC\Tools\MSVC\14.29.30133\atlmfc\include\atlsimpstr.h

; 533  : 		return( GetLength() == 0 );

  0008f	8b 45 10	 mov	 eax, DWORD PTR _strParam3$5[ebp]
  00092	83 78 f4 00	 cmp	 DWORD PTR [eax-12], 0
; File D:\git\src\IBK\IBK_DRFN\ProjSrc\SrcDrfn\Chart\comparechart\CompareChart.cpp

; 114  : 	if(!strParam3.IsEmpty())

  00096	74 14		 je	 SHORT $LN6@CREATE_CHA

; 115  : 		pDialog->SetParameters3(strParam3);

  00098	51		 push	 ecx
  00099	8d 45 10	 lea	 eax, DWORD PTR _strParam3$5[ebp]
  0009c	8b cc		 mov	 ecx, esp
  0009e	50		 push	 eax
  0009f	ff 15 00 00 00
	00		 call	 DWORD PTR __imp_??0?$CStringT@DV?$StrTraitMFC_DLL@DV?$ChTraitsCRT@D@ATL@@@@@ATL@@QAE@ABV01@@Z
  000a5	8b cf		 mov	 ecx, edi
  000a7	e8 00 00 00 00	 call	 ?SetParameters3@CExOCXDLL@@QAEXV?$CStringT@DV?$StrTraitMFC_DLL@DV?$ChTraitsCRT@D@ATL@@@@@ATL@@@Z ; CExOCXDLL::SetParameters3
$LN6@CREATE_CHA:

; 116  : 
; 117  : 	pOut->m_pDllKey = pDialog;
; 118  : 	pOut->m_pPlatformObj = &pDialog->m_xPlatformObj;
; 119  : 
; 120  : 	return S_OK;

  000ac	8d 4d 10	 lea	 ecx, DWORD PTR _strParam3$5[ebp]
  000af	ff 15 00 00 00
	00		 call	 DWORD PTR __imp_??1?$CStringT@DV?$StrTraitMFC_DLL@DV?$ChTraitsCRT@D@ATL@@@@@ATL@@QAE@XZ
  000b5	8d 4d fc	 lea	 ecx, DWORD PTR _strParam2$4[ebp]
  000b8	ff 15 00 00 00
	00		 call	 DWORD PTR __imp_??1?$CStringT@DV?$StrTraitMFC_DLL@DV?$ChTraitsCRT@D@ATL@@@@@ATL@@QAE@XZ
  000be	8d 4d f8	 lea	 ecx, DWORD PTR _strParam1$3[ebp]
  000c1	ff 15 00 00 00
	00		 call	 DWORD PTR __imp_??1?$CStringT@DV?$StrTraitMFC_DLL@DV?$ChTraitsCRT@D@ATL@@@@@ATL@@QAE@XZ
  000c7	8d 4d f4	 lea	 ecx, DWORD PTR _strValue$2[ebp]
  000ca	ff 15 00 00 00
	00		 call	 DWORD PTR __imp_??1?$CStringT@DV?$StrTraitMFC_DLL@DV?$ChTraitsCRT@D@ATL@@@@@ATL@@QAE@XZ
; File C:\Program Files (x86)\Microsoft Visual Studio\2019\Community\VC\Tools\MSVC\14.29.30133\atlmfc\include\afxwin2.inl

; 25   : 	{ return this == NULL ? NULL : m_hWnd; }

  000d0	8b 5d 0c	 mov	 ebx, DWORD PTR _pParent$[ebp]
  000d3	85 db		 test	 ebx, ebx
  000d5	74 03		 je	 SHORT $LN37@CREATE_CHA
$LN36@CREATE_CHA:
  000d7	8b 5b 20	 mov	 ebx, DWORD PTR [ebx+32]
$LN37@CREATE_CHA:
; File D:\git\src\IBK\IBK_DRFN\ProjSrc\SrcDrfn\Chart\comparechart\CompareChart.cpp

; 125  : 	AFX_MANAGE_STATE(AfxGetStaticModuleState());

  000da	e8 00 00 00 00	 call	 ?AfxGetStaticModuleState@@YGPAVAFX_MODULE_STATE@@XZ ; AfxGetStaticModuleState
  000df	50		 push	 eax
  000e0	8d 4d ec	 lea	 ecx, DWORD PTR __ctlState$1[ebp]
  000e3	e8 00 00 00 00	 call	 ??0AFX_MAINTAIN_STATE2@@QAE@PAVAFX_MODULE_STATE@@@Z ; AFX_MAINTAIN_STATE2::AFX_MAINTAIN_STATE2

; 126  : 
; 127  : 	CStdDialog* pDialog = (CStdDialog*)pIn->m_pInitOut->m_pDllKey;
; 128  : 	if(pDialog)

  000e8	85 ff		 test	 edi, edi
  000ea	0f 84 aa 00 00
	00		 je	 $LN41@CREATE_CHA

; 129  : 	{
; 130  : 		pDialog->m_hPlatform = theApp.m_hPlatform;
; 131  : 		pDialog->m_hViewInMain = pIn->m_hParent;
; 132  : 		pDialog->m_strScreenNo.Format("%04d", pIn->m_nID);

  000f0	ff 75 08	 push	 DWORD PTR _iTradingID$[ebp]
  000f3	a1 cc 00 00 00	 mov	 eax, DWORD PTR ?theApp@@3VCCompareChartApp@@A+204
  000f8	8d b7 dc 02 00
	00		 lea	 esi, DWORD PTR [edi+732]
  000fe	68 00 00 00 00	 push	 OFFSET ??_C@_04OCCELDNI@?$CF04d@
  00103	56		 push	 esi
  00104	89 87 d8 02 00
	00		 mov	 DWORD PTR [edi+728], eax
  0010a	89 9f 0c 06 00
	00		 mov	 DWORD PTR [edi+1548], ebx
  00110	ff 15 00 00 00
	00		 call	 DWORD PTR __imp_?Format@?$CStringT@DV?$StrTraitMFC_DLL@DV?$ChTraitsCRT@D@ATL@@@@@ATL@@QAAXPBDZZ
  00116	83 c4 0c	 add	 esp, 12			; 0000000cH

; 133  : //		pDialog->m_strMapFileName.Format("%s", pIn->szMapFileName);
; 134  : 
; 135  : 		pDialog->m_nScreenType = CStdDialog::Screen_fluctuation;

  00119	c7 87 e4 02 00
	00 03 00 00 00	 mov	 DWORD PTR [edi+740], 3
; File C:\Program Files (x86)\Microsoft Visual Studio\2019\Community\VC\Tools\MSVC\14.29.30133\atlmfc\include\cstringt.h

; 2486 : 		return(str1.Compare(psz2) == 0);

  00123	8b ce		 mov	 ecx, esi
  00125	68 00 00 00 00	 push	 OFFSET ??_C@_04LBMPKHHO@7123@
  0012a	ff 15 00 00 00
	00		 call	 DWORD PTR __imp_?Compare@?$CStringT@DV?$StrTraitMFC_DLL@DV?$ChTraitsCRT@D@ATL@@@@@ATL@@QBEHPBD@Z
  00130	85 c0		 test	 eax, eax
; File D:\git\src\IBK\IBK_DRFN\ProjSrc\SrcDrfn\Chart\comparechart\CompareChart.cpp

; 137  : 		if(pDialog->m_strScreenNo == "7123")

  00132	75 08		 jne	 SHORT $LN42@CREATE_CHA

; 138  : 			pDialog->m_nScreenType = CStdDialog::Screen_Compchart;//복합비교 

  00134	89 87 e4 02 00
	00		 mov	 DWORD PTR [edi+740], eax
  0013a	eb 30		 jmp	 SHORT $LN46@CREATE_CHA
$LN42@CREATE_CHA:
; File C:\Program Files (x86)\Microsoft Visual Studio\2019\Community\VC\Tools\MSVC\14.29.30133\atlmfc\include\cstringt.h

; 2486 : 		return(str1.Compare(psz2) == 0);

  0013c	68 00 00 00 00	 push	 OFFSET ??_C@_04POIODBLJ@7124@
  00141	8b ce		 mov	 ecx, esi
  00143	ff 15 00 00 00
	00		 call	 DWORD PTR __imp_?Compare@?$CStringT@DV?$StrTraitMFC_DLL@DV?$ChTraitsCRT@D@ATL@@@@@ATL@@QBEHPBD@Z
  00149	85 c0		 test	 eax, eax
; File D:\git\src\IBK\IBK_DRFN\ProjSrc\SrcDrfn\Chart\comparechart\CompareChart.cpp

; 141  : 		else if(pDialog->m_strScreenNo == "7124")

  0014b	75 0c		 jne	 SHORT $LN44@CREATE_CHA

; 142  : 			pDialog->m_nScreenType = CStdDialog::Screen_ForeignChart; //상대비교

  0014d	c7 87 e4 02 00
	00 02 00 00 00	 mov	 DWORD PTR [edi+740], 2
  00157	eb 13		 jmp	 SHORT $LN46@CREATE_CHA
$LN44@CREATE_CHA:

; 143  : 		else if(pIn->m_nID==nScreenID_0424)

  00159	81 7d 08 a8 01
	00 00		 cmp	 DWORD PTR _iTradingID$[ebp], 424 ; 000001a8H
  00160	75 0a		 jne	 SHORT $LN46@CREATE_CHA

; 144  : 		//else if(pDialog->m_strScreenNo == "0424")
; 145  : 			pDialog->m_nScreenType = CStdDialog::Screen_fluctuation;

  00162	c7 87 e4 02 00
	00 03 00 00 00	 mov	 DWORD PTR [edi+740], 3
$LN46@CREATE_CHA:

; 146  : 
; 147  : 		pDialog->m_pShareInputData->m_nScreenType = pDialog->m_nScreenType;

  0016c	8b 8f 68 10 00
	00		 mov	 ecx, DWORD PTR [edi+4200]
  00172	8b 87 e4 02 00
	00		 mov	 eax, DWORD PTR [edi+740]

; 148  : 
; 149  : 		pDialog->Create(IDD_STD_DIALOG, CWnd::FromHandle(pIn->m_hParent));		

  00178	53		 push	 ebx
  00179	89 41 3c	 mov	 DWORD PTR [ecx+60], eax
  0017c	8b 37		 mov	 esi, DWORD PTR [edi]
  0017e	e8 00 00 00 00	 call	 ?FromHandle@CWnd@@SGPAV1@PAUHWND__@@@Z ; CWnd::FromHandle
  00183	50		 push	 eax
  00184	68 8e 17 00 00	 push	 6030			; 0000178eH
  00189	8b cf		 mov	 ecx, edi
  0018b	ff 96 6c 01 00
	00		 call	 DWORD PTR [esi+364]

; 150  : //		pDialog->SetWindowPos(&CWnd::wndBottom, 0, 0, pDialog->m_nWidthOfDlg, pDialog->m_nHeightOfDlg,SWP_SHOWWINDOW|SWP_NOZORDER);
; 151  : //		pDialog->Resize();
; 152  : 		pDialog->ShowWindow(SW_SHOW);

  00191	6a 05		 push	 5
  00193	8b cf		 mov	 ecx, edi
  00195	e8 00 00 00 00	 call	 ?ShowWindow@CWnd@@QAEHH@Z ; CWnd::ShowWindow
$LN41@CREATE_CHA:

; 153  : 
; 154  : 		pOut->m_pWndObj = &(pDialog->m_xWndObj);
; 155  : 	}
; 156  : 
; 157  : 	return S_OK;

  0019a	8d 4d ec	 lea	 ecx, DWORD PTR __ctlState$1[ebp]
  0019d	e8 00 00 00 00	 call	 ??1AFX_MAINTAIN_STATE2@@QAE@XZ ; AFX_MAINTAIN_STATE2::~AFX_MAINTAIN_STATE2

; 250  : 
; 251  : 	STODINIT_IN  InitIn;
; 252  : 	STODINIT_OUT InitOut;
; 253  : 
; 254  : 	INIT_STODINIT_IN((&InitIn));
; 255  : 	INIT_STODINIT_OUT2(InitOut);
; 256  : 
; 257  : 	HRESULT hr = fnInit(&InitIn, &InitOut);
; 258  : 
; 259  : 	STODCREATEINFO_IN  InData;
; 260  : 	STODCREATEINFO_OUT OutData;
; 261  : 
; 262  : 	INIT_STODCREATEINFO_IN((&InData));
; 263  : 	InData.m_pInitOut = &InitOut;
; 264  : 	InData.m_hParent = pParent->GetSafeHwnd();
; 265  : 	InData.m_nID = iTradingID;
; 266  : 	InData.m_Rect = CRect(0,0,300,400);
; 267  : 
; 268  : 	hr = fnLoad(&InData, &OutData);
; 269  : 	CWnd* pWnd = (CWnd*)InData.m_pInitOut->m_pDllKey;
; 270  : 	return pWnd;

  001a2	8b c7		 mov	 eax, edi

; 271  : }

  001a4	5f		 pop	 edi
  001a5	5e		 pop	 esi
  001a6	5b		 pop	 ebx
  001a7	8b e5		 mov	 esp, ebp
  001a9	5d		 pop	 ebp
  001aa	c3		 ret	 0
_CREATE_CHARTSCREEN ENDP
_TEXT	ENDS
; Function compile flags: /Ogtp
; File D:\git\src\IBK\IBK_DRFN\ProjSrc\SrcDrfn\Chart\comparechart\CompareChart.cpp
;	COMDAT ?fnFormResize@@YGJPAXHH@Z
_TEXT	SEGMENT
_pDialog$ = 8						; size = 4
_width$ = 12						; size = 4
_height$ = 16						; size = 4
?fnFormResize@@YGJPAXHH@Z PROC				; fnFormResize, COMDAT

; 241  : {

  00000	55		 push	 ebp
  00001	8b ec		 mov	 ebp, esp

; 242  : 	CStdDialog* pDlgChart = (CStdDialog*)pDialog;
; 243  : 	pDlgChart->SetWindowPos(&CWnd::wndBottom,0,0,width,height,SWP_SHOWWINDOW|SWP_NOZORDER);

  00003	8b 4d 08	 mov	 ecx, DWORD PTR _pDialog$[ebp]
  00006	6a 44		 push	 68			; 00000044H
  00008	ff 75 10	 push	 DWORD PTR _height$[ebp]
  0000b	ff 75 0c	 push	 DWORD PTR _width$[ebp]
  0000e	6a 00		 push	 0
  00010	6a 00		 push	 0
  00012	ff 35 00 00 00
	00		 push	 DWORD PTR __imp_?wndBottom@CWnd@@2V1@B
  00018	e8 00 00 00 00	 call	 ?SetWindowPos@CWnd@@QAEHPBV1@HHHHI@Z ; CWnd::SetWindowPos

; 244  : 	return 1;

  0001d	b8 01 00 00 00	 mov	 eax, 1

; 245  : }

  00022	5d		 pop	 ebp
  00023	c2 0c 00	 ret	 12			; 0000000cH
?fnFormResize@@YGJPAXHH@Z ENDP				; fnFormResize
_TEXT	ENDS
; Function compile flags: /Ogtp
; File D:\git\src\IBK\IBK_DRFN\ProjSrc\SrcDrfn\Chart\comparechart\CompareChart.cpp
; File C:\Program Files (x86)\Microsoft Visual Studio\2019\Community\VC\Tools\MSVC\14.29.30133\atlmfc\include\cstringt.h
; File D:\git\src\IBK\IBK_DRFN\ProjSrc\SrcDrfn\Chart\comparechart\CompareChart.cpp
; File C:\Program Files (x86)\Microsoft Visual Studio\2019\Community\VC\Tools\MSVC\14.29.30133\atlmfc\include\cstringt.h
; File D:\git\src\IBK\IBK_DRFN\ProjSrc\SrcDrfn\Chart\comparechart\CompareChart.cpp
; File C:\Program Files (x86)\Microsoft Visual Studio\2019\Community\VC\Tools\MSVC\14.29.30133\atlmfc\include\atlsimpstr.h
; File D:\git\src\IBK\IBK_DRFN\ProjSrc\SrcDrfn\Chart\comparechart\CompareChart.cpp
; File C:\Program Files (x86)\Microsoft Visual Studio\2019\Community\VC\Tools\MSVC\14.29.30133\atlmfc\include\atlsimpstr.h
; File D:\git\src\IBK\IBK_DRFN\ProjSrc\SrcDrfn\Chart\comparechart\CompareChart.cpp
; File C:\Program Files (x86)\Microsoft Visual Studio\2019\Community\VC\Tools\MSVC\14.29.30133\atlmfc\include\atlsimpstr.h
; File D:\git\src\IBK\IBK_DRFN\ProjSrc\SrcDrfn\Chart\comparechart\CompareChart.cpp
; File C:\Program Files (x86)\Microsoft Visual Studio\2019\Community\VC\Tools\MSVC\14.29.30133\atlmfc\include\cstringt.h
; File D:\git\src\IBK\IBK_DRFN\ProjSrc\SrcDrfn\Chart\comparechart\CompareChart.cpp
; File C:\Program Files (x86)\Microsoft Visual Studio\2019\Community\VC\Tools\MSVC\14.29.30133\atlmfc\include\atlsimpstr.h
; File D:\git\src\IBK\IBK_DRFN\ProjSrc\SrcDrfn\Chart\comparechart\CompareChart.cpp
;	COMDAT ?fnFuncCall@@YGJPAXPBD1AAUtagVARIANT@@@Z
_TEXT	SEGMENT
$T2 = -32						; size = 4
_lXOld$1$ = -28						; size = 4
_strFuncName$3 = -24					; size = 4
_strValueX$4 = -20					; size = 4
_strParam$5 = -16					; size = 4
__$EHRec$ = -12						; size = 12
_dwDllKey$ = 8						; size = 4
_strValue$6 = 12					; size = 4
_szFuncName$ = 12					; size = 4
_strValueY$7 = 16					; size = 4
_szParam$ = 16						; size = 4
_result$ = 20						; size = 4
?fnFuncCall@@YGJPAXPBD1AAUtagVARIANT@@@Z PROC		; fnFuncCall, COMDAT

; 174  : {

  00000	55		 push	 ebp
  00001	8b ec		 mov	 ebp, esp
  00003	6a ff		 push	 -1
  00005	68 00 00 00 00	 push	 __ehhandler$?fnFuncCall@@YGJPAXPBD1AAUtagVARIANT@@@Z
  0000a	64 a1 00 00 00
	00		 mov	 eax, DWORD PTR fs:0
  00010	50		 push	 eax
  00011	83 ec 14	 sub	 esp, 20			; 00000014H
  00014	53		 push	 ebx
  00015	56		 push	 esi
  00016	57		 push	 edi
  00017	a1 00 00 00 00	 mov	 eax, DWORD PTR ___security_cookie
  0001c	33 c5		 xor	 eax, ebp
  0001e	50		 push	 eax
  0001f	8d 45 f4	 lea	 eax, DWORD PTR __$EHRec$[ebp]
  00022	64 a3 00 00 00
	00		 mov	 DWORD PTR fs:0, eax

; 175  : 	CStdDialog* pDlgChart = (CStdDialog*)dwDllKey;
; 176  : 	if(pDlgChart)

  00028	8b 5d 08	 mov	 ebx, DWORD PTR _dwDllKey$[ebp]
  0002b	85 db		 test	 ebx, ebx
  0002d	0f 84 e0 01 00
	00		 je	 $LN5@fnFuncCall

; 177  : 	{
; 178  : 		CString strFuncName = szFuncName;

  00033	ff 75 0c	 push	 DWORD PTR _szFuncName$[ebp]
  00036	8d 4d e8	 lea	 ecx, DWORD PTR _strFuncName$3[ebp]
  00039	ff 15 00 00 00
	00		 call	 DWORD PTR __imp_??0?$CStringT@DV?$StrTraitMFC_DLL@DV?$ChTraitsCRT@D@ATL@@@@@ATL@@QAE@PBD@Z

; 179  : 		CString strParam = szParam;

  0003f	ff 75 10	 push	 DWORD PTR _szParam$[ebp]
  00042	8d 4d f0	 lea	 ecx, DWORD PTR _strParam$5[ebp]
  00045	c7 45 fc 00 00
	00 00		 mov	 DWORD PTR __$EHRec$[ebp+8], 0
  0004c	ff 15 00 00 00
	00		 call	 DWORD PTR __imp_??0?$CStringT@DV?$StrTraitMFC_DLL@DV?$ChTraitsCRT@D@ATL@@@@@ATL@@QAE@PBD@Z
; File C:\Program Files (x86)\Microsoft Visual Studio\2019\Community\VC\Tools\MSVC\14.29.30133\atlmfc\include\cstringt.h

; 2486 : 		return(str1.Compare(psz2) == 0);

  00052	68 00 00 00 00	 push	 OFFSET ??_C@_0N@HJAMCNAE@SetFrameInfo@
  00057	8d 4d e8	 lea	 ecx, DWORD PTR _strFuncName$3[ebp]
; File D:\git\src\IBK\IBK_DRFN\ProjSrc\SrcDrfn\Chart\comparechart\CompareChart.cpp

; 179  : 		CString strParam = szParam;

  0005a	c6 45 fc 01	 mov	 BYTE PTR __$EHRec$[ebp+8], 1
; File C:\Program Files (x86)\Microsoft Visual Studio\2019\Community\VC\Tools\MSVC\14.29.30133\atlmfc\include\cstringt.h

; 2486 : 		return(str1.Compare(psz2) == 0);

  0005e	ff 15 00 00 00
	00		 call	 DWORD PTR __imp_?Compare@?$CStringT@DV?$StrTraitMFC_DLL@DV?$ChTraitsCRT@D@ATL@@@@@ATL@@QBEHPBD@Z
  00064	85 c0		 test	 eax, eax
; File D:\git\src\IBK\IBK_DRFN\ProjSrc\SrcDrfn\Chart\comparechart\CompareChart.cpp

; 180  : 		if(strFuncName == _T("SetFrameInfo"))

  00066	0f 85 66 01 00
	00		 jne	 $LN6@fnFuncCall

; 181  : 		{			
; 182  : 			CString strValue;

  0006c	8d 4d 0c	 lea	 ecx, DWORD PTR _strValue$6[ebp]
  0006f	ff 15 00 00 00
	00		 call	 DWORD PTR __imp_??0?$CStringT@DV?$StrTraitMFC_DLL@DV?$ChTraitsCRT@D@ATL@@@@@ATL@@QAE@XZ

; 183  : 			CString strValueX;

  00075	8d 4d ec	 lea	 ecx, DWORD PTR _strValueX$4[ebp]
  00078	ff 15 00 00 00
	00		 call	 DWORD PTR __imp_??0?$CStringT@DV?$StrTraitMFC_DLL@DV?$ChTraitsCRT@D@ATL@@@@@ATL@@QAE@XZ

; 184  : 			CString strValueY;

  0007e	8d 4d 10	 lea	 ecx, DWORD PTR _strValueY$7[ebp]
  00081	ff 15 00 00 00
	00		 call	 DWORD PTR __imp_??0?$CStringT@DV?$StrTraitMFC_DLL@DV?$ChTraitsCRT@D@ATL@@@@@ATL@@QAE@XZ

; 185  : 			long lX = 0;
; 186  : 			long lY = 0;
; 187  : 			long lXOld = 0;

  00087	33 c0		 xor	 eax, eax
  00089	c6 45 fc 04	 mov	 BYTE PTR __$EHRec$[ebp+8], 4
  0008d	89 45 e4	 mov	 DWORD PTR _lXOld$1$[ebp], eax
  00090	33 db		 xor	 ebx, ebx
; File C:\Program Files (x86)\Microsoft Visual Studio\2019\Community\VC\Tools\MSVC\14.29.30133\atlmfc\include\atlsimpstr.h

; 519  : 		return( GetData()->nDataLength );

  00092	8b 45 f0	 mov	 eax, DWORD PTR _strParam$5[ebp]

; 533  : 		return( GetLength() == 0 );

  00095	39 58 f4	 cmp	 DWORD PTR [eax-12], ebx
; File D:\git\src\IBK\IBK_DRFN\ProjSrc\SrcDrfn\Chart\comparechart\CompareChart.cpp

; 190  : 			if(strParam.IsEmpty()) return S_OK;

  00098	0f 84 17 01 00
	00		 je	 $LN62@fnFuncCall

; 191  : 			for(long lIndex=0;lIndex<6;lIndex++)

  0009e	33 f6		 xor	 esi, esi
$LL4@fnFuncCall:

; 192  : 			{
; 193  : 				lPos = strParam.Find(',');

  000a0	6a 00		 push	 0
  000a2	6a 2c		 push	 44			; 0000002cH
  000a4	8d 4d f0	 lea	 ecx, DWORD PTR _strParam$5[ebp]
  000a7	ff 15 00 00 00
	00		 call	 DWORD PTR __imp_?Find@?$CStringT@DV?$StrTraitMFC_DLL@DV?$ChTraitsCRT@D@ATL@@@@@ATL@@QBEHDH@Z
  000ad	8b f8		 mov	 edi, eax

; 194  : 				if(lPos==-1)	

  000af	83 ff ff	 cmp	 edi, -1
  000b2	75 06		 jne	 SHORT $LN9@fnFuncCall
; File C:\Program Files (x86)\Microsoft Visual Studio\2019\Community\VC\Tools\MSVC\14.29.30133\atlmfc\include\atlsimpstr.h

; 519  : 		return( GetData()->nDataLength );

  000b4	8b 45 f0	 mov	 eax, DWORD PTR _strParam$5[ebp]
  000b7	8b 78 f4	 mov	 edi, DWORD PTR [eax-12]
$LN9@fnFuncCall:
; File D:\git\src\IBK\IBK_DRFN\ProjSrc\SrcDrfn\Chart\comparechart\CompareChart.cpp

; 198  : 				strValue = strParam.Left(lPos);

  000ba	57		 push	 edi
  000bb	8d 45 e0	 lea	 eax, DWORD PTR $T2[ebp]
  000be	50		 push	 eax
  000bf	8d 4d f0	 lea	 ecx, DWORD PTR _strParam$5[ebp]
  000c2	ff 15 00 00 00
	00		 call	 DWORD PTR __imp_?Left@?$CStringT@DV?$StrTraitMFC_DLL@DV?$ChTraitsCRT@D@ATL@@@@@ATL@@QBE?AV12@H@Z
  000c8	50		 push	 eax
  000c9	8d 4d 0c	 lea	 ecx, DWORD PTR _strValue$6[ebp]
  000cc	c6 45 fc 05	 mov	 BYTE PTR __$EHRec$[ebp+8], 5
  000d0	ff 15 00 00 00
	00		 call	 DWORD PTR __imp_??4?$CStringT@DV?$StrTraitMFC_DLL@DV?$ChTraitsCRT@D@ATL@@@@@ATL@@QAEAAV01@ABV01@@Z
  000d6	8d 4d e0	 lea	 ecx, DWORD PTR $T2[ebp]
  000d9	c6 45 fc 04	 mov	 BYTE PTR __$EHRec$[ebp+8], 4
  000dd	ff 15 00 00 00
	00		 call	 DWORD PTR __imp_??1?$CStringT@DV?$StrTraitMFC_DLL@DV?$ChTraitsCRT@D@ATL@@@@@ATL@@QAE@XZ

; 199  : 				strParam.Delete(0,lPos+1);

  000e3	8d 47 01	 lea	 eax, DWORD PTR [edi+1]
  000e6	50		 push	 eax
  000e7	6a 00		 push	 0
  000e9	8d 4d f0	 lea	 ecx, DWORD PTR _strParam$5[ebp]
  000ec	ff 15 00 00 00
	00		 call	 DWORD PTR __imp_?Delete@?$CStringT@DV?$StrTraitMFC_DLL@DV?$ChTraitsCRT@D@ATL@@@@@ATL@@QAEHHH@Z

; 200  : 
; 201  : 				if(lIndex==0)

  000f2	85 f6		 test	 esi, esi
  000f4	75 20		 jne	 SHORT $LN10@fnFuncCall

; 202  : 				{
; 203  : 					lXOld = strValue[0] - 48;

  000f6	56		 push	 esi
  000f7	8d 4d 0c	 lea	 ecx, DWORD PTR _strValue$6[ebp]
  000fa	ff 15 00 00 00
	00		 call	 DWORD PTR __imp_??A?$CSimpleStringT@D$00@ATL@@QBEDH@Z
  00100	0f be c0	 movsx	 eax, al

; 204  : 					lYOld = strValue[1] - 48;					

  00103	8d 4d 0c	 lea	 ecx, DWORD PTR _strValue$6[ebp]
  00106	83 e8 30	 sub	 eax, 48			; 00000030H
  00109	6a 01		 push	 1
  0010b	89 45 e4	 mov	 DWORD PTR _lXOld$1$[ebp], eax
  0010e	ff 15 00 00 00
	00		 call	 DWORD PTR __imp_??A?$CSimpleStringT@D$00@ATL@@QBEDH@Z

; 205  : 				}				

  00114	eb 3c		 jmp	 SHORT $LN2@fnFuncCall
$LN10@fnFuncCall:

; 206  : 				else if(lIndex==3)

  00116	83 fe 03	 cmp	 esi, 3
  00119	75 1e		 jne	 SHORT $LN12@fnFuncCall

; 207  : 				{
; 208  : 					lX = strValue[0] - 48;

  0011b	6a 00		 push	 0
  0011d	8d 4d 0c	 lea	 ecx, DWORD PTR _strValue$6[ebp]
  00120	ff 15 00 00 00
	00		 call	 DWORD PTR __imp_??A?$CSimpleStringT@D$00@ATL@@QBEDH@Z
  00126	0f be d8	 movsx	 ebx, al

; 209  : 					lY = strValue[1] - 48;					

  00129	8d 4d 0c	 lea	 ecx, DWORD PTR _strValue$6[ebp]
  0012c	6a 01		 push	 1
  0012e	83 eb 30	 sub	 ebx, 48			; 00000030H
  00131	ff 15 00 00 00
	00		 call	 DWORD PTR __imp_??A?$CSimpleStringT@D$00@ATL@@QBEDH@Z

; 210  : 				}

  00137	eb 19		 jmp	 SHORT $LN2@fnFuncCall
$LN12@fnFuncCall:

; 211  : 				else if(lIndex==4)

  00139	83 fe 04	 cmp	 esi, 4
  0013c	75 0f		 jne	 SHORT $LN14@fnFuncCall

; 212  : 				{
; 213  : 					strValueX = strValue;

  0013e	8d 45 0c	 lea	 eax, DWORD PTR _strValue$6[ebp]
  00141	50		 push	 eax
  00142	8d 4d ec	 lea	 ecx, DWORD PTR _strValueX$4[ebp]
  00145	ff 15 00 00 00
	00		 call	 DWORD PTR __imp_??4?$CStringT@DV?$StrTraitMFC_DLL@DV?$ChTraitsCRT@D@ATL@@@@@ATL@@QAEAAV01@ABV01@@Z

; 214  : 				}

  0014b	eb 05		 jmp	 SHORT $LN2@fnFuncCall
$LN14@fnFuncCall:

; 215  : 				else if(lIndex==5)

  0014d	83 fe 05	 cmp	 esi, 5
  00150	74 0c		 je	 SHORT $LN59@fnFuncCall
$LN2@fnFuncCall:

; 191  : 			for(long lIndex=0;lIndex<6;lIndex++)

  00152	46		 inc	 esi
  00153	83 fe 06	 cmp	 esi, 6
  00156	0f 8c 44 ff ff
	ff		 jl	 $LL4@fnFuncCall
  0015c	eb 0d		 jmp	 SHORT $LN58@fnFuncCall
$LN59@fnFuncCall:

; 216  : 				{
; 217  : 					strValueY = strValue;

  0015e	8d 45 0c	 lea	 eax, DWORD PTR _strValue$6[ebp]
  00161	50		 push	 eax
  00162	8d 4d 10	 lea	 ecx, DWORD PTR _strValueY$7[ebp]
  00165	ff 15 00 00 00
	00		 call	 DWORD PTR __imp_??4?$CStringT@DV?$StrTraitMFC_DLL@DV?$ChTraitsCRT@D@ATL@@@@@ATL@@QAEAAV01@ABV01@@Z
$LN58@fnFuncCall:

; 218  : 				}
; 219  : 			}
; 220  : 			if(lXOld>lX)	// smaller

  0016b	39 5d e4	 cmp	 DWORD PTR _lXOld$1$[ebp], ebx
  0016e	8b 5d 08	 mov	 ebx, DWORD PTR _dwDllKey$[ebp]
  00171	7e 04		 jle	 SHORT $LN17@fnFuncCall

; 221  : 			{
; 222  : 				pDlgChart->SetSmallView();

  00173	6a 01		 push	 1
  00175	eb 04		 jmp	 SHORT $LN63@fnFuncCall
$LN17@fnFuncCall:

; 223  : 			}
; 224  : 			if(lXOld<lX)	// bigger

  00177	7d 09		 jge	 SHORT $LN18@fnFuncCall

; 225  : 			{
; 226  : 				pDlgChart->SetSmallView(FALSE);

  00179	6a 00		 push	 0
$LN63@fnFuncCall:
; File C:\Program Files (x86)\Microsoft Visual Studio\2019\Community\VC\Tools\MSVC\14.29.30133\atlmfc\include\atlsimpstr.h

; 377  : 		return( m_pszData );

  0017b	8b cb		 mov	 ecx, ebx
  0017d	e8 00 00 00 00	 call	 ?SetSmallView@CStdDialog@@QAEXH@Z ; CStdDialog::SetSmallView
$LN18@fnFuncCall:
  00182	8b 7d ec	 mov	 edi, DWORD PTR _strValueX$4[ebp]
; File D:\git\src\IBK\IBK_DRFN\ProjSrc\SrcDrfn\Chart\comparechart\CompareChart.cpp

; 228  : 			pDlgChart->SetWindowPos(&CWnd::wndBottom,0,0,atol(strValueX),atol(strValueY),SWP_SHOWWINDOW|SWP_NOZORDER);

  00185	8b 35 00 00 00
	00		 mov	 esi, DWORD PTR __imp__atol
  0018b	6a 44		 push	 68			; 00000044H
  0018d	ff 75 10	 push	 DWORD PTR _strValueY$7[ebp]
  00190	ff d6		 call	 esi
  00192	83 c4 04	 add	 esp, 4
  00195	50		 push	 eax
  00196	57		 push	 edi
  00197	ff d6		 call	 esi
  00199	83 c4 04	 add	 esp, 4
  0019c	8b cb		 mov	 ecx, ebx
  0019e	50		 push	 eax
  0019f	6a 00		 push	 0
  001a1	6a 00		 push	 0
  001a3	ff 35 00 00 00
	00		 push	 DWORD PTR __imp_?wndBottom@CWnd@@2V1@B
  001a9	e8 00 00 00 00	 call	 ?SetWindowPos@CWnd@@QAEHPBV1@HHHHI@Z ; CWnd::SetWindowPos

; 229  : 			pDlgChart->Resize();

  001ae	8b cb		 mov	 ecx, ebx
  001b0	e8 00 00 00 00	 call	 ?Resize@CStdDialog@@QAEXXZ ; CStdDialog::Resize
$LN62@fnFuncCall:

; 235  : 		}
; 236  : 	}	
; 237  : 	return S_OK;
; 238  : }

  001b5	8d 4d 10	 lea	 ecx, DWORD PTR _strValueY$7[ebp]
  001b8	ff 15 00 00 00
	00		 call	 DWORD PTR __imp_??1?$CStringT@DV?$StrTraitMFC_DLL@DV?$ChTraitsCRT@D@ATL@@@@@ATL@@QAE@XZ
  001be	8d 4d ec	 lea	 ecx, DWORD PTR _strValueX$4[ebp]
  001c1	ff 15 00 00 00
	00		 call	 DWORD PTR __imp_??1?$CStringT@DV?$StrTraitMFC_DLL@DV?$ChTraitsCRT@D@ATL@@@@@ATL@@QAE@XZ
  001c7	8d 4d 0c	 lea	 ecx, DWORD PTR _strValue$6[ebp]
  001ca	ff 15 00 00 00
	00		 call	 DWORD PTR __imp_??1?$CStringT@DV?$StrTraitMFC_DLL@DV?$ChTraitsCRT@D@ATL@@@@@ATL@@QAE@XZ
  001d0	eb 2f		 jmp	 SHORT $LN19@fnFuncCall
$LN6@fnFuncCall:
; File C:\Program Files (x86)\Microsoft Visual Studio\2019\Community\VC\Tools\MSVC\14.29.30133\atlmfc\include\cstringt.h

; 2486 : 		return(str1.Compare(psz2) == 0);

  001d2	68 00 00 00 00	 push	 OFFSET ??_C@_0M@PINPKPMM@SetCodeInfo@
  001d7	8d 4d e8	 lea	 ecx, DWORD PTR _strFuncName$3[ebp]
  001da	ff 15 00 00 00
	00		 call	 DWORD PTR __imp_?Compare@?$CStringT@DV?$StrTraitMFC_DLL@DV?$ChTraitsCRT@D@ATL@@@@@ATL@@QBEHPBD@Z
  001e0	85 c0		 test	 eax, eax
; File D:\git\src\IBK\IBK_DRFN\ProjSrc\SrcDrfn\Chart\comparechart\CompareChart.cpp

; 231  : 		else if(strFuncName == _T("SetCodeInfo"))

  001e2	75 1d		 jne	 SHORT $LN19@fnFuncCall
; File C:\Program Files (x86)\Microsoft Visual Studio\2019\Community\VC\Tools\MSVC\14.29.30133\atlmfc\include\atlsimpstr.h

; 533  : 		return( GetLength() == 0 );

  001e4	8b 45 f0	 mov	 eax, DWORD PTR _strParam$5[ebp]
  001e7	83 78 f4 00	 cmp	 DWORD PTR [eax-12], 0
; File D:\git\src\IBK\IBK_DRFN\ProjSrc\SrcDrfn\Chart\comparechart\CompareChart.cpp

; 233  : 			if(strParam.IsEmpty()) return S_OK;

  001eb	74 14		 je	 SHORT $LN19@fnFuncCall

; 234  : 			pDlgChart->InputCodeFromOutSide(strParam);

  001ed	51		 push	 ecx
  001ee	8d 45 f0	 lea	 eax, DWORD PTR _strParam$5[ebp]
  001f1	8b cc		 mov	 ecx, esp
  001f3	50		 push	 eax
  001f4	ff 15 00 00 00
	00		 call	 DWORD PTR __imp_??0?$CStringT@DV?$StrTraitMFC_DLL@DV?$ChTraitsCRT@D@ATL@@@@@ATL@@QAE@ABV01@@Z
  001fa	8b cb		 mov	 ecx, ebx
  001fc	e8 00 00 00 00	 call	 ?InputCodeFromOutSide@CStdDialog@@QAEXV?$CStringT@DV?$StrTraitMFC_DLL@DV?$ChTraitsCRT@D@ATL@@@@@ATL@@@Z ; CStdDialog::InputCodeFromOutSide
$LN19@fnFuncCall:

; 235  : 		}
; 236  : 	}	
; 237  : 	return S_OK;
; 238  : }

  00201	8d 4d f0	 lea	 ecx, DWORD PTR _strParam$5[ebp]
  00204	ff 15 00 00 00
	00		 call	 DWORD PTR __imp_??1?$CStringT@DV?$StrTraitMFC_DLL@DV?$ChTraitsCRT@D@ATL@@@@@ATL@@QAE@XZ
  0020a	8d 4d e8	 lea	 ecx, DWORD PTR _strFuncName$3[ebp]
  0020d	ff 15 00 00 00
	00		 call	 DWORD PTR __imp_??1?$CStringT@DV?$StrTraitMFC_DLL@DV?$ChTraitsCRT@D@ATL@@@@@ATL@@QAE@XZ
$LN5@fnFuncCall:
  00213	33 c0		 xor	 eax, eax
  00215	8b 4d f4	 mov	 ecx, DWORD PTR __$EHRec$[ebp]
  00218	64 89 0d 00 00
	00 00		 mov	 DWORD PTR fs:0, ecx
  0021f	59		 pop	 ecx
  00220	5f		 pop	 edi
  00221	5e		 pop	 esi
  00222	5b		 pop	 ebx
  00223	8b e5		 mov	 esp, ebp
  00225	5d		 pop	 ebp
  00226	c2 10 00	 ret	 16			; 00000010H
_TEXT	ENDS
;	COMDAT text$x
text$x	SEGMENT
__unwindfunclet$?fnFuncCall@@YGJPAXPBD1AAUtagVARIANT@@@Z$0:
  00000	8d 4d e8	 lea	 ecx, DWORD PTR _strFuncName$3[ebp]
  00003	ff 25 00 00 00
	00		 jmp	 DWORD PTR __imp_??1?$CStringT@DV?$StrTraitMFC_DLL@DV?$ChTraitsCRT@D@ATL@@@@@ATL@@QAE@XZ
__unwindfunclet$?fnFuncCall@@YGJPAXPBD1AAUtagVARIANT@@@Z$1:
  00009	8d 4d f0	 lea	 ecx, DWORD PTR _strParam$5[ebp]
  0000c	ff 25 00 00 00
	00		 jmp	 DWORD PTR __imp_??1?$CStringT@DV?$StrTraitMFC_DLL@DV?$ChTraitsCRT@D@ATL@@@@@ATL@@QAE@XZ
__unwindfunclet$?fnFuncCall@@YGJPAXPBD1AAUtagVARIANT@@@Z$2:
  00012	8d 4d 0c	 lea	 ecx, DWORD PTR _strValue$6[ebp]
  00015	ff 25 00 00 00
	00		 jmp	 DWORD PTR __imp_??1?$CStringT@DV?$StrTraitMFC_DLL@DV?$ChTraitsCRT@D@ATL@@@@@ATL@@QAE@XZ
__unwindfunclet$?fnFuncCall@@YGJPAXPBD1AAUtagVARIANT@@@Z$3:
  0001b	8d 4d ec	 lea	 ecx, DWORD PTR _strValueX$4[ebp]
  0001e	ff 25 00 00 00
	00		 jmp	 DWORD PTR __imp_??1?$CStringT@DV?$StrTraitMFC_DLL@DV?$ChTraitsCRT@D@ATL@@@@@ATL@@QAE@XZ
__unwindfunclet$?fnFuncCall@@YGJPAXPBD1AAUtagVARIANT@@@Z$4:
  00024	8d 4d 10	 lea	 ecx, DWORD PTR _strValueY$7[ebp]
  00027	ff 25 00 00 00
	00		 jmp	 DWORD PTR __imp_??1?$CStringT@DV?$StrTraitMFC_DLL@DV?$ChTraitsCRT@D@ATL@@@@@ATL@@QAE@XZ
__unwindfunclet$?fnFuncCall@@YGJPAXPBD1AAUtagVARIANT@@@Z$5:
  0002d	8d 4d e0	 lea	 ecx, DWORD PTR $T2[ebp]
  00030	ff 25 00 00 00
	00		 jmp	 DWORD PTR __imp_??1?$CStringT@DV?$StrTraitMFC_DLL@DV?$ChTraitsCRT@D@ATL@@@@@ATL@@QAE@XZ
  00036	cc		 int	 3
  00037	cc		 int	 3
  00038	cc		 int	 3
  00039	cc		 int	 3
  0003a	cc		 int	 3
__ehhandler$?fnFuncCall@@YGJPAXPBD1AAUtagVARIANT@@@Z:
  0003b	90		 npad	 1
  0003c	90		 npad	 1
  0003d	8b 54 24 08	 mov	 edx, DWORD PTR [esp+8]
  00041	8d 42 0c	 lea	 eax, DWORD PTR [edx+12]
  00044	8b 4a dc	 mov	 ecx, DWORD PTR [edx-36]
  00047	33 c8		 xor	 ecx, eax
  00049	e8 00 00 00 00	 call	 @__security_check_cookie@4
  0004e	b8 00 00 00 00	 mov	 eax, OFFSET __ehfuncinfo$?fnFuncCall@@YGJPAXPBD1AAUtagVARIANT@@@Z
  00053	e9 00 00 00 00	 jmp	 ___CxxFrameHandler3
text$x	ENDS
?fnFuncCall@@YGJPAXPBD1AAUtagVARIANT@@@Z ENDP		; fnFuncCall
; Function compile flags: /Ogtp
; File D:\git\src\IBK\IBK_DRFN\ProjSrc\SrcDrfn\Chart\comparechart\CompareChart.cpp
;	COMDAT ?fnUnLoad@@YGJPAX@Z
_TEXT	SEGMENT
_dwDllKey$ = 8						; size = 4
?fnUnLoad@@YGJPAX@Z PROC				; fnUnLoad, COMDAT

; 161  : {

  00000	55		 push	 ebp
  00001	8b ec		 mov	 ebp, esp
  00003	56		 push	 esi

; 162  : 	CStdDialog* pDialog = (CStdDialog*)dwDllKey;
; 163  : 	if(pDialog)

  00004	8b 75 08	 mov	 esi, DWORD PTR _dwDllKey$[ebp]
  00007	85 f6		 test	 esi, esi
  00009	74 1b		 je	 SHORT $LN6@fnUnLoad

; 164  : 	{
; 165  : 		pDialog->m_xGSharedCli.RemoveSharedNameToServer();

  0000b	8d 8e 74 02 00
	00		 lea	 ecx, DWORD PTR [esi+628]
  00011	e8 00 00 00 00	 call	 ?RemoveSharedNameToServer@CGSharedCli@CExOCXDLL@@QAEHXZ ; CExOCXDLL::CGSharedCli::RemoveSharedNameToServer

; 166  : 		pDialog->DestroyWindow();

  00016	8b 06		 mov	 eax, DWORD PTR [esi]
  00018	8b ce		 mov	 ecx, esi
  0001a	ff 50 68	 call	 DWORD PTR [eax+104]

; 167  : 		delete pDialog;

  0001d	8b 06		 mov	 eax, DWORD PTR [esi]
  0001f	8b ce		 mov	 ecx, esi
  00021	6a 01		 push	 1
  00023	ff 50 04	 call	 DWORD PTR [eax+4]
$LN6@fnUnLoad:

; 168  : 		pDialog=NULL;
; 169  : 	}
; 170  : 	return S_OK;
; 171  : }

  00026	33 c0		 xor	 eax, eax
  00028	5e		 pop	 esi
  00029	5d		 pop	 ebp
  0002a	c2 04 00	 ret	 4
?fnUnLoad@@YGJPAX@Z ENDP				; fnUnLoad
_TEXT	ENDS
; Function compile flags: /Ogtp
; File D:\git\src\IBK\IBK_DRFN\ProjSrc\SrcDrfn\Chart\comparechart\CompareChart.cpp
; File C:\Program Files (x86)\Microsoft Visual Studio\2019\Community\VC\Tools\MSVC\14.29.30133\atlmfc\include\cstringt.h
; File D:\git\src\IBK\IBK_DRFN\ProjSrc\SrcDrfn\Chart\comparechart\CompareChart.cpp
; File C:\Program Files (x86)\Microsoft Visual Studio\2019\Community\VC\Tools\MSVC\14.29.30133\atlmfc\include\cstringt.h
; File D:\git\src\IBK\IBK_DRFN\ProjSrc\SrcDrfn\Chart\comparechart\CompareChart.cpp
;	COMDAT ?fnLoad@@YGJPAUSTODCREATEINFO_IN@@PAUSTODCREATEINFO_OUT@@@Z
_TEXT	SEGMENT
__ctlState$ = -20					; size = 8
__$EHRec$ = -12						; size = 12
_pIn$ = 8						; size = 4
_pOut$ = 12						; size = 4
?fnLoad@@YGJPAUSTODCREATEINFO_IN@@PAUSTODCREATEINFO_OUT@@@Z PROC ; fnLoad, COMDAT

; 124  : {

  00000	55		 push	 ebp
  00001	8b ec		 mov	 ebp, esp
  00003	6a ff		 push	 -1
  00005	68 00 00 00 00	 push	 __ehhandler$?fnLoad@@YGJPAUSTODCREATEINFO_IN@@PAUSTODCREATEINFO_OUT@@@Z
  0000a	64 a1 00 00 00
	00		 mov	 eax, DWORD PTR fs:0
  00010	50		 push	 eax
  00011	83 ec 08	 sub	 esp, 8
  00014	53		 push	 ebx
  00015	56		 push	 esi
  00016	57		 push	 edi
  00017	a1 00 00 00 00	 mov	 eax, DWORD PTR ___security_cookie
  0001c	33 c5		 xor	 eax, ebp
  0001e	50		 push	 eax
  0001f	8d 45 f4	 lea	 eax, DWORD PTR __$EHRec$[ebp]
  00022	64 a3 00 00 00
	00		 mov	 DWORD PTR fs:0, eax

; 125  : 	AFX_MANAGE_STATE(AfxGetStaticModuleState());

  00028	e8 00 00 00 00	 call	 ?AfxGetStaticModuleState@@YGPAVAFX_MODULE_STATE@@XZ ; AfxGetStaticModuleState
  0002d	50		 push	 eax
  0002e	8d 4d ec	 lea	 ecx, DWORD PTR __ctlState$[ebp]
  00031	e8 00 00 00 00	 call	 ??0AFX_MAINTAIN_STATE2@@QAE@PAVAFX_MODULE_STATE@@@Z ; AFX_MAINTAIN_STATE2::AFX_MAINTAIN_STATE2

; 126  : 
; 127  : 	CStdDialog* pDialog = (CStdDialog*)pIn->m_pInitOut->m_pDllKey;

  00036	8b 5d 08	 mov	 ebx, DWORD PTR _pIn$[ebp]
  00039	c7 45 fc 00 00
	00 00		 mov	 DWORD PTR __$EHRec$[ebp+8], 0
  00040	8b 03		 mov	 eax, DWORD PTR [ebx]
  00042	8b 38		 mov	 edi, DWORD PTR [eax]

; 128  : 	if(pDialog)

  00044	85 ff		 test	 edi, edi
  00046	0f 84 bb 00 00
	00		 je	 $LN2@fnLoad

; 129  : 	{
; 130  : 		pDialog->m_hPlatform = theApp.m_hPlatform;

  0004c	a1 cc 00 00 00	 mov	 eax, DWORD PTR ?theApp@@3VCCompareChartApp@@A+204

; 131  : 		pDialog->m_hViewInMain = pIn->m_hParent;
; 132  : 		pDialog->m_strScreenNo.Format("%04d", pIn->m_nID);

  00051	8d b7 dc 02 00
	00		 lea	 esi, DWORD PTR [edi+732]
  00057	89 87 d8 02 00
	00		 mov	 DWORD PTR [edi+728], eax
  0005d	8b 43 04	 mov	 eax, DWORD PTR [ebx+4]
  00060	89 87 0c 06 00
	00		 mov	 DWORD PTR [edi+1548], eax
  00066	ff 73 18	 push	 DWORD PTR [ebx+24]
  00069	68 00 00 00 00	 push	 OFFSET ??_C@_04OCCELDNI@?$CF04d@
  0006e	56		 push	 esi
  0006f	ff 15 00 00 00
	00		 call	 DWORD PTR __imp_?Format@?$CStringT@DV?$StrTraitMFC_DLL@DV?$ChTraitsCRT@D@ATL@@@@@ATL@@QAAXPBDZZ
  00075	83 c4 0c	 add	 esp, 12			; 0000000cH

; 133  : //		pDialog->m_strMapFileName.Format("%s", pIn->szMapFileName);
; 134  : 
; 135  : 		pDialog->m_nScreenType = CStdDialog::Screen_fluctuation;

  00078	c7 87 e4 02 00
	00 03 00 00 00	 mov	 DWORD PTR [edi+740], 3
; File C:\Program Files (x86)\Microsoft Visual Studio\2019\Community\VC\Tools\MSVC\14.29.30133\atlmfc\include\cstringt.h

; 2486 : 		return(str1.Compare(psz2) == 0);

  00082	8b ce		 mov	 ecx, esi
  00084	68 00 00 00 00	 push	 OFFSET ??_C@_04LBMPKHHO@7123@
  00089	ff 15 00 00 00
	00		 call	 DWORD PTR __imp_?Compare@?$CStringT@DV?$StrTraitMFC_DLL@DV?$ChTraitsCRT@D@ATL@@@@@ATL@@QBEHPBD@Z
  0008f	85 c0		 test	 eax, eax
; File D:\git\src\IBK\IBK_DRFN\ProjSrc\SrcDrfn\Chart\comparechart\CompareChart.cpp

; 137  : 		if(pDialog->m_strScreenNo == "7123")

  00091	75 08		 jne	 SHORT $LN3@fnLoad

; 138  : 			pDialog->m_nScreenType = CStdDialog::Screen_Compchart;//복합비교 

  00093	89 87 e4 02 00
	00		 mov	 DWORD PTR [edi+740], eax
  00099	eb 30		 jmp	 SHORT $LN7@fnLoad
$LN3@fnLoad:
; File C:\Program Files (x86)\Microsoft Visual Studio\2019\Community\VC\Tools\MSVC\14.29.30133\atlmfc\include\cstringt.h

; 2486 : 		return(str1.Compare(psz2) == 0);

  0009b	68 00 00 00 00	 push	 OFFSET ??_C@_04POIODBLJ@7124@
  000a0	8b ce		 mov	 ecx, esi
  000a2	ff 15 00 00 00
	00		 call	 DWORD PTR __imp_?Compare@?$CStringT@DV?$StrTraitMFC_DLL@DV?$ChTraitsCRT@D@ATL@@@@@ATL@@QBEHPBD@Z
  000a8	85 c0		 test	 eax, eax
; File D:\git\src\IBK\IBK_DRFN\ProjSrc\SrcDrfn\Chart\comparechart\CompareChart.cpp

; 141  : 		else if(pDialog->m_strScreenNo == "7124")

  000aa	75 0c		 jne	 SHORT $LN5@fnLoad

; 142  : 			pDialog->m_nScreenType = CStdDialog::Screen_ForeignChart; //상대비교

  000ac	c7 87 e4 02 00
	00 02 00 00 00	 mov	 DWORD PTR [edi+740], 2
  000b6	eb 13		 jmp	 SHORT $LN7@fnLoad
$LN5@fnLoad:

; 143  : 		else if(pIn->m_nID==nScreenID_0424)

  000b8	81 7b 18 a8 01
	00 00		 cmp	 DWORD PTR [ebx+24], 424	; 000001a8H
  000bf	75 0a		 jne	 SHORT $LN7@fnLoad

; 144  : 		//else if(pDialog->m_strScreenNo == "0424")
; 145  : 			pDialog->m_nScreenType = CStdDialog::Screen_fluctuation;

  000c1	c7 87 e4 02 00
	00 03 00 00 00	 mov	 DWORD PTR [edi+740], 3
$LN7@fnLoad:

; 146  : 
; 147  : 		pDialog->m_pShareInputData->m_nScreenType = pDialog->m_nScreenType;

  000cb	8b 8f 68 10 00
	00		 mov	 ecx, DWORD PTR [edi+4200]
  000d1	8b 87 e4 02 00
	00		 mov	 eax, DWORD PTR [edi+740]
  000d7	89 41 3c	 mov	 DWORD PTR [ecx+60], eax

; 148  : 
; 149  : 		pDialog->Create(IDD_STD_DIALOG, CWnd::FromHandle(pIn->m_hParent));		

  000da	ff 73 04	 push	 DWORD PTR [ebx+4]
  000dd	8b 37		 mov	 esi, DWORD PTR [edi]
  000df	e8 00 00 00 00	 call	 ?FromHandle@CWnd@@SGPAV1@PAUHWND__@@@Z ; CWnd::FromHandle
  000e4	50		 push	 eax
  000e5	68 8e 17 00 00	 push	 6030			; 0000178eH
  000ea	8b cf		 mov	 ecx, edi
  000ec	ff 96 6c 01 00
	00		 call	 DWORD PTR [esi+364]

; 150  : //		pDialog->SetWindowPos(&CWnd::wndBottom, 0, 0, pDialog->m_nWidthOfDlg, pDialog->m_nHeightOfDlg,SWP_SHOWWINDOW|SWP_NOZORDER);
; 151  : //		pDialog->Resize();
; 152  : 		pDialog->ShowWindow(SW_SHOW);

  000f2	6a 05		 push	 5
  000f4	8b cf		 mov	 ecx, edi
  000f6	e8 00 00 00 00	 call	 ?ShowWindow@CWnd@@QAEHH@Z ; CWnd::ShowWindow

; 153  : 
; 154  : 		pOut->m_pWndObj = &(pDialog->m_xWndObj);

  000fb	8b 45 0c	 mov	 eax, DWORD PTR _pOut$[ebp]
  000fe	8d 8f 04 02 00
	00		 lea	 ecx, DWORD PTR [edi+516]
  00104	89 48 08	 mov	 DWORD PTR [eax+8], ecx
$LN2@fnLoad:

; 155  : 	}
; 156  : 
; 157  : 	return S_OK;

  00107	8d 4d ec	 lea	 ecx, DWORD PTR __ctlState$[ebp]
  0010a	e8 00 00 00 00	 call	 ??1AFX_MAINTAIN_STATE2@@QAE@XZ ; AFX_MAINTAIN_STATE2::~AFX_MAINTAIN_STATE2
  0010f	33 c0		 xor	 eax, eax

; 158  : }

  00111	8b 4d f4	 mov	 ecx, DWORD PTR __$EHRec$[ebp]
  00114	64 89 0d 00 00
	00 00		 mov	 DWORD PTR fs:0, ecx
  0011b	59		 pop	 ecx
  0011c	5f		 pop	 edi
  0011d	5e		 pop	 esi
  0011e	5b		 pop	 ebx
  0011f	8b e5		 mov	 esp, ebp
  00121	5d		 pop	 ebp
  00122	c2 08 00	 ret	 8
_TEXT	ENDS
;	COMDAT text$x
text$x	SEGMENT
__unwindfunclet$?fnLoad@@YGJPAUSTODCREATEINFO_IN@@PAUSTODCREATEINFO_OUT@@@Z$0:
  00000	8d 4d ec	 lea	 ecx, DWORD PTR __ctlState$[ebp]
  00003	e9 00 00 00 00	 jmp	 ??1AFX_MAINTAIN_STATE2@@QAE@XZ ; AFX_MAINTAIN_STATE2::~AFX_MAINTAIN_STATE2
  00008	cc		 int	 3
  00009	cc		 int	 3
  0000a	cc		 int	 3
  0000b	cc		 int	 3
  0000c	cc		 int	 3
__ehhandler$?fnLoad@@YGJPAUSTODCREATEINFO_IN@@PAUSTODCREATEINFO_OUT@@@Z:
  0000d	90		 npad	 1
  0000e	90		 npad	 1
  0000f	8b 54 24 08	 mov	 edx, DWORD PTR [esp+8]
  00013	8d 42 0c	 lea	 eax, DWORD PTR [edx+12]
  00016	8b 4a e8	 mov	 ecx, DWORD PTR [edx-24]
  00019	33 c8		 xor	 ecx, eax
  0001b	e8 00 00 00 00	 call	 @__security_check_cookie@4
  00020	b8 00 00 00 00	 mov	 eax, OFFSET __ehfuncinfo$?fnLoad@@YGJPAUSTODCREATEINFO_IN@@PAUSTODCREATEINFO_OUT@@@Z
  00025	e9 00 00 00 00	 jmp	 ___CxxFrameHandler3
text$x	ENDS
?fnLoad@@YGJPAUSTODCREATEINFO_IN@@PAUSTODCREATEINFO_OUT@@@Z ENDP ; fnLoad
; Function compile flags: /Ogtp
; File D:\git\src\IBK\IBK_DRFN\ProjSrc\SrcDrfn\Chart\comparechart\CompareChart.cpp
; File C:\Program Files (x86)\Microsoft Visual Studio\2019\Community\VC\Tools\MSVC\14.29.30133\atlmfc\include\afx.inl
; File D:\git\src\IBK\IBK_DRFN\ProjSrc\SrcDrfn\Chart\comparechart\CompareChart.cpp
; File C:\Program Files (x86)\Microsoft Visual Studio\2019\Community\VC\Tools\MSVC\14.29.30133\atlmfc\include\afx.inl
; File D:\git\src\IBK\IBK_DRFN\ProjSrc\SrcDrfn\Chart\comparechart\CompareChart.cpp
; File C:\Program Files (x86)\Microsoft Visual Studio\2019\Community\VC\Tools\MSVC\14.29.30133\atlmfc\include\atlsimpstr.h
; File D:\git\src\IBK\IBK_DRFN\ProjSrc\SrcDrfn\Chart\comparechart\CompareChart.cpp
; File C:\Program Files (x86)\Microsoft Visual Studio\2019\Community\VC\Tools\MSVC\14.29.30133\atlmfc\include\atlsimpstr.h
; File D:\git\src\IBK\IBK_DRFN\ProjSrc\SrcDrfn\Chart\comparechart\CompareChart.cpp
; File C:\Program Files (x86)\Microsoft Visual Studio\2019\Community\VC\Tools\MSVC\14.29.30133\atlmfc\include\atlsimpstr.h
; File D:\git\src\IBK\IBK_DRFN\ProjSrc\SrcDrfn\Chart\comparechart\CompareChart.cpp
; File C:\Program Files (x86)\Microsoft Visual Studio\2019\Community\VC\Tools\MSVC\14.29.30133\atlmfc\include\atlsimpstr.h
; File D:\git\src\IBK\IBK_DRFN\ProjSrc\SrcDrfn\Chart\comparechart\CompareChart.cpp
;	COMDAT ?fnInit@@YGJPAUSTODINIT_IN@@PAUSTODINIT_OUT@@@Z
_TEXT	SEGMENT
$T2 = -32						; size = 4
_strValue$ = -28					; size = 4
_strParam1$ = -24					; size = 4
_strParam2$ = -20					; size = 4
_strParam3$ = -16					; size = 4
__$EHRec$ = -12						; size = 12
_pIn$ = 8						; size = 4
_pOut$ = 12						; size = 4
?fnInit@@YGJPAUSTODINIT_IN@@PAUSTODINIT_OUT@@@Z PROC	; fnInit, COMDAT

; 104  : {

  00000	55		 push	 ebp
  00001	8b ec		 mov	 ebp, esp
  00003	6a ff		 push	 -1
  00005	68 00 00 00 00	 push	 __ehhandler$?fnInit@@YGJPAUSTODINIT_IN@@PAUSTODINIT_OUT@@@Z
  0000a	64 a1 00 00 00
	00		 mov	 eax, DWORD PTR fs:0
  00010	50		 push	 eax
  00011	83 ec 14	 sub	 esp, 20			; 00000014H
  00014	56		 push	 esi
  00015	a1 00 00 00 00	 mov	 eax, DWORD PTR ___security_cookie
  0001a	33 c5		 xor	 eax, ebp
  0001c	50		 push	 eax
  0001d	8d 45 f4	 lea	 eax, DWORD PTR __$EHRec$[ebp]
  00020	64 a3 00 00 00
	00		 mov	 DWORD PTR fs:0, eax

; 105  : 	CString strValue;

  00026	8d 4d e4	 lea	 ecx, DWORD PTR _strValue$[ebp]
  00029	ff 15 00 00 00
	00		 call	 DWORD PTR __imp_??0?$CStringT@DV?$StrTraitMFC_DLL@DV?$ChTraitsCRT@D@ATL@@@@@ATL@@QAE@XZ

; 106  : 	CString strParam1, strParam2, strParam3;

  0002f	8d 4d e8	 lea	 ecx, DWORD PTR _strParam1$[ebp]
  00032	c7 45 fc 00 00
	00 00		 mov	 DWORD PTR __$EHRec$[ebp+8], 0
  00039	ff 15 00 00 00
	00		 call	 DWORD PTR __imp_??0?$CStringT@DV?$StrTraitMFC_DLL@DV?$ChTraitsCRT@D@ATL@@@@@ATL@@QAE@XZ
  0003f	8d 4d ec	 lea	 ecx, DWORD PTR _strParam2$[ebp]
  00042	ff 15 00 00 00
	00		 call	 DWORD PTR __imp_??0?$CStringT@DV?$StrTraitMFC_DLL@DV?$ChTraitsCRT@D@ATL@@@@@ATL@@QAE@XZ
  00048	8d 4d f0	 lea	 ecx, DWORD PTR _strParam3$[ebp]
  0004b	ff 15 00 00 00
	00		 call	 DWORD PTR __imp_??0?$CStringT@DV?$StrTraitMFC_DLL@DV?$ChTraitsCRT@D@ATL@@@@@ATL@@QAE@XZ
; File C:\Program Files (x86)\Microsoft Visual Studio\2019\Community\VC\Tools\MSVC\14.29.30133\atlmfc\include\afx.inl

; 116  : 	{ return ::operator new(nSize); }

  00051	68 10 11 00 00	 push	 4368			; 00001110H
; File D:\git\src\IBK\IBK_DRFN\ProjSrc\SrcDrfn\Chart\comparechart\CompareChart.cpp

; 106  : 	CString strParam1, strParam2, strParam3;

  00056	c6 45 fc 03	 mov	 BYTE PTR __$EHRec$[ebp+8], 3
; File C:\Program Files (x86)\Microsoft Visual Studio\2019\Community\VC\Tools\MSVC\14.29.30133\atlmfc\include\afx.inl

; 116  : 	{ return ::operator new(nSize); }

  0005a	e8 00 00 00 00	 call	 ??2@YAPAXI@Z		; operator new
  0005f	83 c4 04	 add	 esp, 4
; File D:\git\src\IBK\IBK_DRFN\ProjSrc\SrcDrfn\Chart\comparechart\CompareChart.cpp

; 108  : 	CStdDialog* pDialog =  new CStdDialog;

  00062	89 45 e0	 mov	 DWORD PTR $T2[ebp], eax
  00065	c6 45 fc 04	 mov	 BYTE PTR __$EHRec$[ebp+8], 4
  00069	85 c0		 test	 eax, eax
  0006b	74 0d		 je	 SHORT $LN6@fnInit
  0006d	6a 00		 push	 0
  0006f	8b c8		 mov	 ecx, eax
  00071	e8 00 00 00 00	 call	 ??0CStdDialog@@QAE@PAVCWnd@@@Z ; CStdDialog::CStdDialog
  00076	8b f0		 mov	 esi, eax
  00078	eb 02		 jmp	 SHORT $LN7@fnInit
$LN6@fnInit:
  0007a	33 f6		 xor	 esi, esi
$LN7@fnInit:
; File C:\Program Files (x86)\Microsoft Visual Studio\2019\Community\VC\Tools\MSVC\14.29.30133\atlmfc\include\atlsimpstr.h

; 533  : 		return( GetLength() == 0 );

  0007c	8b 45 e8	 mov	 eax, DWORD PTR _strParam1$[ebp]
; File D:\git\src\IBK\IBK_DRFN\ProjSrc\SrcDrfn\Chart\comparechart\CompareChart.cpp

; 108  : 	CStdDialog* pDialog =  new CStdDialog;

  0007f	c6 45 fc 03	 mov	 BYTE PTR __$EHRec$[ebp+8], 3
; File C:\Program Files (x86)\Microsoft Visual Studio\2019\Community\VC\Tools\MSVC\14.29.30133\atlmfc\include\atlsimpstr.h

; 533  : 		return( GetLength() == 0 );

  00083	83 78 f4 00	 cmp	 DWORD PTR [eax-12], 0
; File D:\git\src\IBK\IBK_DRFN\ProjSrc\SrcDrfn\Chart\comparechart\CompareChart.cpp

; 110  : 	if(!strParam1.IsEmpty())

  00087	74 14		 je	 SHORT $LN2@fnInit

; 111  : 		pDialog->SetParameters1(strParam1);

  00089	51		 push	 ecx
  0008a	8d 45 e8	 lea	 eax, DWORD PTR _strParam1$[ebp]
  0008d	8b cc		 mov	 ecx, esp
  0008f	50		 push	 eax
  00090	ff 15 00 00 00
	00		 call	 DWORD PTR __imp_??0?$CStringT@DV?$StrTraitMFC_DLL@DV?$ChTraitsCRT@D@ATL@@@@@ATL@@QAE@ABV01@@Z
  00096	8b ce		 mov	 ecx, esi
  00098	e8 00 00 00 00	 call	 ?SetParameters1@CExOCXDLL@@QAEXV?$CStringT@DV?$StrTraitMFC_DLL@DV?$ChTraitsCRT@D@ATL@@@@@ATL@@@Z ; CExOCXDLL::SetParameters1
$LN2@fnInit:
; File C:\Program Files (x86)\Microsoft Visual Studio\2019\Community\VC\Tools\MSVC\14.29.30133\atlmfc\include\atlsimpstr.h

; 533  : 		return( GetLength() == 0 );

  0009d	8b 45 ec	 mov	 eax, DWORD PTR _strParam2$[ebp]
  000a0	83 78 f4 00	 cmp	 DWORD PTR [eax-12], 0
; File D:\git\src\IBK\IBK_DRFN\ProjSrc\SrcDrfn\Chart\comparechart\CompareChart.cpp

; 112  : 	if(!strParam2.IsEmpty())

  000a4	74 14		 je	 SHORT $LN3@fnInit

; 113  : 		pDialog->SetParameters2(strParam2);

  000a6	51		 push	 ecx
  000a7	8d 45 ec	 lea	 eax, DWORD PTR _strParam2$[ebp]
  000aa	8b cc		 mov	 ecx, esp
  000ac	50		 push	 eax
  000ad	ff 15 00 00 00
	00		 call	 DWORD PTR __imp_??0?$CStringT@DV?$StrTraitMFC_DLL@DV?$ChTraitsCRT@D@ATL@@@@@ATL@@QAE@ABV01@@Z
  000b3	8b ce		 mov	 ecx, esi
  000b5	e8 00 00 00 00	 call	 ?SetParameters2@CExOCXDLL@@QAEXV?$CStringT@DV?$StrTraitMFC_DLL@DV?$ChTraitsCRT@D@ATL@@@@@ATL@@@Z ; CExOCXDLL::SetParameters2
$LN3@fnInit:
; File C:\Program Files (x86)\Microsoft Visual Studio\2019\Community\VC\Tools\MSVC\14.29.30133\atlmfc\include\atlsimpstr.h

; 533  : 		return( GetLength() == 0 );

  000ba	8b 45 f0	 mov	 eax, DWORD PTR _strParam3$[ebp]
  000bd	83 78 f4 00	 cmp	 DWORD PTR [eax-12], 0
; File D:\git\src\IBK\IBK_DRFN\ProjSrc\SrcDrfn\Chart\comparechart\CompareChart.cpp

; 114  : 	if(!strParam3.IsEmpty())

  000c1	74 14		 je	 SHORT $LN4@fnInit

; 115  : 		pDialog->SetParameters3(strParam3);

  000c3	51		 push	 ecx
  000c4	8d 45 f0	 lea	 eax, DWORD PTR _strParam3$[ebp]
  000c7	8b cc		 mov	 ecx, esp
  000c9	50		 push	 eax
  000ca	ff 15 00 00 00
	00		 call	 DWORD PTR __imp_??0?$CStringT@DV?$StrTraitMFC_DLL@DV?$ChTraitsCRT@D@ATL@@@@@ATL@@QAE@ABV01@@Z
  000d0	8b ce		 mov	 ecx, esi
  000d2	e8 00 00 00 00	 call	 ?SetParameters3@CExOCXDLL@@QAEXV?$CStringT@DV?$StrTraitMFC_DLL@DV?$ChTraitsCRT@D@ATL@@@@@ATL@@@Z ; CExOCXDLL::SetParameters3
$LN4@fnInit:

; 116  : 
; 117  : 	pOut->m_pDllKey = pDialog;

  000d7	8b 4d 0c	 mov	 ecx, DWORD PTR _pOut$[ebp]

; 118  : 	pOut->m_pPlatformObj = &pDialog->m_xPlatformObj;

  000da	8d 86 00 02 00
	00		 lea	 eax, DWORD PTR [esi+512]
  000e0	89 31		 mov	 DWORD PTR [ecx], esi
  000e2	89 41 04	 mov	 DWORD PTR [ecx+4], eax

; 119  : 
; 120  : 	return S_OK;

  000e5	8d 4d f0	 lea	 ecx, DWORD PTR _strParam3$[ebp]
  000e8	ff 15 00 00 00
	00		 call	 DWORD PTR __imp_??1?$CStringT@DV?$StrTraitMFC_DLL@DV?$ChTraitsCRT@D@ATL@@@@@ATL@@QAE@XZ
  000ee	8d 4d ec	 lea	 ecx, DWORD PTR _strParam2$[ebp]
  000f1	ff 15 00 00 00
	00		 call	 DWORD PTR __imp_??1?$CStringT@DV?$StrTraitMFC_DLL@DV?$ChTraitsCRT@D@ATL@@@@@ATL@@QAE@XZ
  000f7	8d 4d e8	 lea	 ecx, DWORD PTR _strParam1$[ebp]
  000fa	ff 15 00 00 00
	00		 call	 DWORD PTR __imp_??1?$CStringT@DV?$StrTraitMFC_DLL@DV?$ChTraitsCRT@D@ATL@@@@@ATL@@QAE@XZ
  00100	8d 4d e4	 lea	 ecx, DWORD PTR _strValue$[ebp]
  00103	ff 15 00 00 00
	00		 call	 DWORD PTR __imp_??1?$CStringT@DV?$StrTraitMFC_DLL@DV?$ChTraitsCRT@D@ATL@@@@@ATL@@QAE@XZ
  00109	33 c0		 xor	 eax, eax

; 121  : }

  0010b	8b 4d f4	 mov	 ecx, DWORD PTR __$EHRec$[ebp]
  0010e	64 89 0d 00 00
	00 00		 mov	 DWORD PTR fs:0, ecx
  00115	59		 pop	 ecx
  00116	5e		 pop	 esi
  00117	8b e5		 mov	 esp, ebp
  00119	5d		 pop	 ebp
  0011a	c2 08 00	 ret	 8
_TEXT	ENDS
;	COMDAT text$x
text$x	SEGMENT
__unwindfunclet$?fnInit@@YGJPAUSTODINIT_IN@@PAUSTODINIT_OUT@@@Z$0:
  00000	8d 4d e4	 lea	 ecx, DWORD PTR _strValue$[ebp]
  00003	ff 25 00 00 00
	00		 jmp	 DWORD PTR __imp_??1?$CStringT@DV?$StrTraitMFC_DLL@DV?$ChTraitsCRT@D@ATL@@@@@ATL@@QAE@XZ
__unwindfunclet$?fnInit@@YGJPAUSTODINIT_IN@@PAUSTODINIT_OUT@@@Z$1:
  00009	8d 4d e8	 lea	 ecx, DWORD PTR _strParam1$[ebp]
  0000c	ff 25 00 00 00
	00		 jmp	 DWORD PTR __imp_??1?$CStringT@DV?$StrTraitMFC_DLL@DV?$ChTraitsCRT@D@ATL@@@@@ATL@@QAE@XZ
__unwindfunclet$?fnInit@@YGJPAUSTODINIT_IN@@PAUSTODINIT_OUT@@@Z$2:
  00012	8d 4d ec	 lea	 ecx, DWORD PTR _strParam2$[ebp]
  00015	ff 25 00 00 00
	00		 jmp	 DWORD PTR __imp_??1?$CStringT@DV?$StrTraitMFC_DLL@DV?$ChTraitsCRT@D@ATL@@@@@ATL@@QAE@XZ
__unwindfunclet$?fnInit@@YGJPAUSTODINIT_IN@@PAUSTODINIT_OUT@@@Z$3:
  0001b	8d 4d f0	 lea	 ecx, DWORD PTR _strParam3$[ebp]
  0001e	ff 25 00 00 00
	00		 jmp	 DWORD PTR __imp_??1?$CStringT@DV?$StrTraitMFC_DLL@DV?$ChTraitsCRT@D@ATL@@@@@ATL@@QAE@XZ
__unwindfunclet$?fnInit@@YGJPAUSTODINIT_IN@@PAUSTODINIT_OUT@@@Z$4:
  00024	8b 45 e0	 mov	 eax, DWORD PTR $T2[ebp]
  00027	50		 push	 eax
  00028	e8 00 00 00 00	 call	 ??3CObject@@SGXPAX@Z	; CObject::operator delete
  0002d	c3		 ret	 0
  0002e	cc		 int	 3
  0002f	cc		 int	 3
  00030	cc		 int	 3
  00031	cc		 int	 3
  00032	cc		 int	 3
__ehhandler$?fnInit@@YGJPAUSTODINIT_IN@@PAUSTODINIT_OUT@@@Z:
  00033	90		 npad	 1
  00034	90		 npad	 1
  00035	8b 54 24 08	 mov	 edx, DWORD PTR [esp+8]
  00039	8d 42 0c	 lea	 eax, DWORD PTR [edx+12]
  0003c	8b 4a e4	 mov	 ecx, DWORD PTR [edx-28]
  0003f	33 c8		 xor	 ecx, eax
  00041	e8 00 00 00 00	 call	 @__security_check_cookie@4
  00046	b8 00 00 00 00	 mov	 eax, OFFSET __ehfuncinfo$?fnInit@@YGJPAUSTODINIT_IN@@PAUSTODINIT_OUT@@@Z
  0004b	e9 00 00 00 00	 jmp	 ___CxxFrameHandler3
text$x	ENDS
?fnInit@@YGJPAUSTODINIT_IN@@PAUSTODINIT_OUT@@@Z ENDP	; fnInit
; Function compile flags: /Ogtp
; File D:\git\src\IBK\IBK_DRFN\ProjSrc\SrcDrfn\Chart\comparechart\CompareChart.cpp
;	COMDAT ??__ERMSG_GETMAPTR@@YAXXZ
text$di	SEGMENT
??__ERMSG_GETMAPTR@@YAXXZ PROC				; `dynamic initializer for 'RMSG_GETMAPTR'', COMDAT

; 101  : const UINT RMSG_GETMAPTR	= ::RegisterWindowMessage(_T("RMSG_GETMAPTR"));				// 화면번호 요청

  00000	68 00 00 00 00	 push	 OFFSET ??_C@_0O@BMHNJADI@RMSG_GETMAPTR@
  00005	ff 15 00 00 00
	00		 call	 DWORD PTR __imp__RegisterWindowMessageA@4
  0000b	a3 00 00 00 00	 mov	 DWORD PTR ?RMSG_GETMAPTR@@3IB, eax
  00010	c3		 ret	 0
??__ERMSG_GETMAPTR@@YAXXZ ENDP				; `dynamic initializer for 'RMSG_GETMAPTR''
text$di	ENDS
; Function compile flags: /Ogtp
; File D:\git\src\IBK\IBK_DRFN\ProjSrc\SrcDrfn\Chart\comparechart\CompareChart.cpp
;	COMDAT ??__ERMSG_GETUNIQUEID@@YAXXZ
text$di	SEGMENT
??__ERMSG_GETUNIQUEID@@YAXXZ PROC			; `dynamic initializer for 'RMSG_GETUNIQUEID'', COMDAT

; 100  : const UINT RMSG_GETUNIQUEID = ::RegisterWindowMessage(_T("RMSG_GETUNIQUEID"));

  00000	68 00 00 00 00	 push	 OFFSET ??_C@_0BB@OMIKMBJF@RMSG_GETUNIQUEID@
  00005	ff 15 00 00 00
	00		 call	 DWORD PTR __imp__RegisterWindowMessageA@4
  0000b	a3 00 00 00 00	 mov	 DWORD PTR ?RMSG_GETUNIQUEID@@3IB, eax
  00010	c3		 ret	 0
??__ERMSG_GETUNIQUEID@@YAXXZ ENDP			; `dynamic initializer for 'RMSG_GETUNIQUEID''
text$di	ENDS
; Function compile flags: /Ogtp
;	COMDAT ??__FtheApp@@YAXXZ
text$yd	SEGMENT
??__FtheApp@@YAXXZ PROC					; `dynamic atexit destructor for 'theApp'', COMDAT
  00000	b9 00 00 00 00	 mov	 ecx, OFFSET ?theApp@@3VCCompareChartApp@@A ; theApp
  00005	e9 00 00 00 00	 jmp	 ??1CWinApp@@UAE@XZ	; CWinApp::~CWinApp
??__FtheApp@@YAXXZ ENDP					; `dynamic atexit destructor for 'theApp''
text$yd	ENDS
; Function compile flags: /Ogtp
; File D:\git\src\IBK\IBK_DRFN\ProjSrc\SrcDrfn\Chart\comparechart\CompareChart.cpp
;	COMDAT ??__EtheApp@@YAXXZ
text$di	SEGMENT
??__EtheApp@@YAXXZ PROC					; `dynamic initializer for 'theApp'', COMDAT

; 55   : {

  00000	6a 00		 push	 0
  00002	b9 00 00 00 00	 mov	 ecx, OFFSET ?theApp@@3VCCompareChartApp@@A ; theApp
  00007	e8 00 00 00 00	 call	 ??0CWinApp@@QAE@PBD@Z	; CWinApp::CWinApp

; 63   : CCompareChartApp theApp;

  0000c	68 00 00 00 00	 push	 OFFSET ??__FtheApp@@YAXXZ ; `dynamic atexit destructor for 'theApp''

; 55   : {

  00011	c7 05 00 00 00
	00 00 00 00 00	 mov	 DWORD PTR ?theApp@@3VCCompareChartApp@@A, OFFSET ??_7CCompareChartApp@@6B@

; 63   : CCompareChartApp theApp;

  0001b	e8 00 00 00 00	 call	 _atexit
  00020	59		 pop	 ecx
  00021	c3		 ret	 0
??__EtheApp@@YAXXZ ENDP					; `dynamic initializer for 'theApp''
text$di	ENDS
; Function compile flags: /Ogtp
; File D:\git\src\IBK\IBK_DRFN\ProjSrc\SrcDrfn\Chart\comparechart\StdDialog.h
;	COMDAT ??__ERMSG_SELCHARTCODE@@YAXXZ
text$di	SEGMENT
??__ERMSG_SELCHARTCODE@@YAXXZ PROC			; `dynamic initializer for 'RMSG_SELCHARTCODE'', COMDAT

; 73   : const UINT RMSG_SELCHARTCODE = ::RegisterWindowMessage( "RMSG_SELCHARTCODE" );

  00000	68 00 00 00 00	 push	 OFFSET ??_C@_0BC@LHNMEPFM@RMSG_SELCHARTCODE@
  00005	ff 15 00 00 00
	00		 call	 DWORD PTR __imp__RegisterWindowMessageA@4
  0000b	a3 00 00 00 00	 mov	 DWORD PTR ?RMSG_SELCHARTCODE@@3IB, eax
  00010	c3		 ret	 0
??__ERMSG_SELCHARTCODE@@YAXXZ ENDP			; `dynamic initializer for 'RMSG_SELCHARTCODE''
text$di	ENDS
; Function compile flags: /Ogtp
; File D:\git\src\IBK\IBK_DRFN\ProjSrc\SrcDrfn\Chart\comparechart\define\ChartMsgDef.h
;	COMDAT ??__ERMSG_CHANGE_CROSSLINE@@YAXXZ
text$di	SEGMENT
??__ERMSG_CHANGE_CROSSLINE@@YAXXZ PROC			; `dynamic initializer for 'RMSG_CHANGE_CROSSLINE'', COMDAT

; 216  : const UINT RMSG_CHANGE_CROSSLINE = ::RegisterWindowMessage(_T("RMSG_CHANGE_CROSSLINE"));

  00000	68 00 00 00 00	 push	 OFFSET ??_C@_0BG@LNLCJKPF@RMSG_CHANGE_CROSSLINE@
  00005	ff 15 00 00 00
	00		 call	 DWORD PTR __imp__RegisterWindowMessageA@4
  0000b	a3 00 00 00 00	 mov	 DWORD PTR ?RMSG_CHANGE_CROSSLINE@@3IB, eax
  00010	c3		 ret	 0
??__ERMSG_CHANGE_CROSSLINE@@YAXXZ ENDP			; `dynamic initializer for 'RMSG_CHANGE_CROSSLINE''
text$di	ENDS
; Function compile flags: /Ogtp
; File D:\git\src\IBK\IBK_DRFN\ProjSrc\SrcDrfn\Chart\comparechart\define\ChartMsgDef.h
;	COMDAT ??__ERMSG_GET_SKINCOLOR@@YAXXZ
text$di	SEGMENT
??__ERMSG_GET_SKINCOLOR@@YAXXZ PROC			; `dynamic initializer for 'RMSG_GET_SKINCOLOR'', COMDAT

; 214  : const UINT RMSG_GET_SKINCOLOR = ::RegisterWindowMessage(_T("RMSG_GET_SKINCOLOR"));

  00000	68 00 00 00 00	 push	 OFFSET ??_C@_0BD@FLDNDDHK@RMSG_GET_SKINCOLOR@
  00005	ff 15 00 00 00
	00		 call	 DWORD PTR __imp__RegisterWindowMessageA@4
  0000b	a3 00 00 00 00	 mov	 DWORD PTR ?RMSG_GET_SKINCOLOR@@3IB, eax
  00010	c3		 ret	 0
??__ERMSG_GET_SKINCOLOR@@YAXXZ ENDP			; `dynamic initializer for 'RMSG_GET_SKINCOLOR''
text$di	ENDS
; Function compile flags: /Ogtp
; File D:\git\src\IBK\IBK_DRFN\ProjSrc\SrcDrfn\Chart\comparechart\define\ChartMsgDef.h
;	COMDAT ??__ERMSG_CHANGE_SKINCOLOR@@YAXXZ
text$di	SEGMENT
??__ERMSG_CHANGE_SKINCOLOR@@YAXXZ PROC			; `dynamic initializer for 'RMSG_CHANGE_SKINCOLOR'', COMDAT

; 213  : const UINT RMSG_CHANGE_SKINCOLOR = ::RegisterWindowMessage(_T("RMSG_CHANGE_SKINCOLOR"));

  00000	68 00 00 00 00	 push	 OFFSET ??_C@_0BG@CNPAHNGG@RMSG_CHANGE_SKINCOLOR@
  00005	ff 15 00 00 00
	00		 call	 DWORD PTR __imp__RegisterWindowMessageA@4
  0000b	a3 00 00 00 00	 mov	 DWORD PTR ?RMSG_CHANGE_SKINCOLOR@@3IB, eax
  00010	c3		 ret	 0
??__ERMSG_CHANGE_SKINCOLOR@@YAXXZ ENDP			; `dynamic initializer for 'RMSG_CHANGE_SKINCOLOR''
text$di	ENDS
; Function compile flags: /Ogtp
; File D:\git\src\IBK\IBK_DRFN\ProjSrc\SrcDrfn\Chart\comparechart\define\ChartMsgDef.h
;	COMDAT ??__ERMSG_GETINFO@@YAXXZ
text$di	SEGMENT
??__ERMSG_GETINFO@@YAXXZ PROC				; `dynamic initializer for 'RMSG_GETINFO'', COMDAT

; 204  : const UINT RMSG_GETINFO = ::RegisterWindowMessage(_T("RMSG_GETINFO"));

  00000	68 00 00 00 00	 push	 OFFSET ??_C@_0N@IIOKMIEH@RMSG_GETINFO@
  00005	ff 15 00 00 00
	00		 call	 DWORD PTR __imp__RegisterWindowMessageA@4
  0000b	a3 00 00 00 00	 mov	 DWORD PTR ?RMSG_GETINFO@@3IB, eax
  00010	c3		 ret	 0
??__ERMSG_GETINFO@@YAXXZ ENDP				; `dynamic initializer for 'RMSG_GETINFO''
text$di	ENDS
; Function compile flags: /Ogtp
; File D:\git\src\IBK\IBK_DRFN\ProjSrc\SrcDrfn\Chart\comparechart\define\ChartMsgDef.h
;	COMDAT ??__ERMSG_KSDLLINFO@@YAXXZ
text$di	SEGMENT
??__ERMSG_KSDLLINFO@@YAXXZ PROC				; `dynamic initializer for 'RMSG_KSDLLINFO'', COMDAT

; 203  : const UINT RMSG_KSDLLINFO = ::RegisterWindowMessage(_T("RMSG_KSDLLINFO"));		// TrmCompCharView에게 정보얻기

  00000	68 00 00 00 00	 push	 OFFSET ??_C@_0P@LFDACNFE@RMSG_KSDLLINFO@
  00005	ff 15 00 00 00
	00		 call	 DWORD PTR __imp__RegisterWindowMessageA@4
  0000b	a3 00 00 00 00	 mov	 DWORD PTR ?RMSG_KSDLLINFO@@3IB, eax
  00010	c3		 ret	 0
??__ERMSG_KSDLLINFO@@YAXXZ ENDP				; `dynamic initializer for 'RMSG_KSDLLINFO''
text$di	ENDS
; Function compile flags: /Ogtp
; File D:\git\src\IBK\IBK_DRFN\ProjSrc\SrcDrfn\Chart\comparechart\define\ChartMsgDef.h
;	COMDAT ??__ERMSG_GET_USERID@@YAXXZ
text$di	SEGMENT
??__ERMSG_GET_USERID@@YAXXZ PROC			; `dynamic initializer for 'RMSG_GET_USERID'', COMDAT

; 200  : const UINT RMSG_GET_USERID = ::RegisterWindowMessage(_T("RMSG_GET_USERID"));	// User ID 얻기

  00000	68 00 00 00 00	 push	 OFFSET ??_C@_0BA@HKNFENJL@RMSG_GET_USERID@
  00005	ff 15 00 00 00
	00		 call	 DWORD PTR __imp__RegisterWindowMessageA@4
  0000b	a3 00 00 00 00	 mov	 DWORD PTR ?RMSG_GET_USERID@@3IB, eax
  00010	c3		 ret	 0
??__ERMSG_GET_USERID@@YAXXZ ENDP			; `dynamic initializer for 'RMSG_GET_USERID''
text$di	ENDS
; Function compile flags: /Ogtp
; File D:\git\src\IBK\IBK_DRFN\ProjSrc\SrcDrfn\Chart\comparechart\define\ChartMsgDef.h
;	COMDAT ??__ERMS_ANALYSIS_FUNC@@YAXXZ
text$di	SEGMENT
??__ERMS_ANALYSIS_FUNC@@YAXXZ PROC			; `dynamic initializer for 'RMS_ANALYSIS_FUNC'', COMDAT

; 196  : const UINT RMS_ANALYSIS_FUNC	= ::RegisterWindowMessage(_T("RMS_ANALYSIS_FUNC"));

  00000	68 00 00 00 00	 push	 OFFSET ??_C@_0BC@MMPGLPDH@RMS_ANALYSIS_FUNC@
  00005	ff 15 00 00 00
	00		 call	 DWORD PTR __imp__RegisterWindowMessageA@4
  0000b	a3 00 00 00 00	 mov	 DWORD PTR ?RMS_ANALYSIS_FUNC@@3IB, eax
  00010	c3		 ret	 0
??__ERMS_ANALYSIS_FUNC@@YAXXZ ENDP			; `dynamic initializer for 'RMS_ANALYSIS_FUNC''
text$di	ENDS
; Function compile flags: /Ogtp
; File D:\git\src\IBK\IBK_DRFN\ProjSrc\SrcDrfn\Chart\comparechart\define\ChartMsgDef.h
;	COMDAT ??__ERMSG_CHARTMAIN@@YAXXZ
text$di	SEGMENT
??__ERMSG_CHARTMAIN@@YAXXZ PROC				; `dynamic initializer for 'RMSG_CHARTMAIN'', COMDAT

; 193  : const UINT RMSG_CHARTMAIN		= ::RegisterWindowMessage(_T("RMSG_CHARTMAIN"));

  00000	68 00 00 00 00	 push	 OFFSET ??_C@_0P@KHFCBIOH@RMSG_CHARTMAIN@
  00005	ff 15 00 00 00
	00		 call	 DWORD PTR __imp__RegisterWindowMessageA@4
  0000b	a3 00 00 00 00	 mov	 DWORD PTR ?RMSG_CHARTMAIN@@3IB, eax
  00010	c3		 ret	 0
??__ERMSG_CHARTMAIN@@YAXXZ ENDP				; `dynamic initializer for 'RMSG_CHARTMAIN''
text$di	ENDS
; Function compile flags: /Ogtp
; File D:\git\src\IBK\IBK_DRFN\ProjSrc\SrcDrfn\Chart\commontr\TRDefine.h
;	COMDAT ??__ERMSG_GETSIGNAL_REAL@@YAXXZ
text$di	SEGMENT
??__ERMSG_GETSIGNAL_REAL@@YAXXZ PROC			; `dynamic initializer for 'RMSG_GETSIGNAL_REAL'', COMDAT

; 213  : const UINT RMSG_GETSIGNAL_REAL = ::RegisterWindowMessage(_T("RMSG_GETSIGNAL_REAL"));

  00000	68 00 00 00 00	 push	 OFFSET ??_C@_0BE@FJPKENOB@RMSG_GETSIGNAL_REAL@
  00005	ff 15 00 00 00
	00		 call	 DWORD PTR __imp__RegisterWindowMessageA@4
  0000b	a3 00 00 00 00	 mov	 DWORD PTR ?RMSG_GETSIGNAL_REAL@@3IB, eax
  00010	c3		 ret	 0
??__ERMSG_GETSIGNAL_REAL@@YAXXZ ENDP			; `dynamic initializer for 'RMSG_GETSIGNAL_REAL''
text$di	ENDS
; Function compile flags: /Ogtp
; File D:\git\src\IBK\IBK_DRFN\ProjSrc\SrcDrfn\Chart\chart_common\ReplayChartInfoDef.h
;	COMDAT ??__ERMSG_REPLAY_TOTAL_SEC@@YAXXZ
text$di	SEGMENT
??__ERMSG_REPLAY_TOTAL_SEC@@YAXXZ PROC			; `dynamic initializer for 'RMSG_REPLAY_TOTAL_SEC'', COMDAT

; 97   : 	const UINT RMSG_REPLAY_TOTAL_SEC = ::RegisterWindowMessage(_T("RMSG_REPLAY_TOTAL_SEC"));		// 전체 시간(초단위)를 전송

  00000	68 00 00 00 00	 push	 OFFSET ??_C@_0BG@GIAJEIJF@RMSG_REPLAY_TOTAL_SEC@
  00005	ff 15 00 00 00
	00		 call	 DWORD PTR __imp__RegisterWindowMessageA@4
  0000b	a3 00 00 00 00	 mov	 DWORD PTR ?RMSG_REPLAY_TOTAL_SEC@@3IB, eax
  00010	c3		 ret	 0
??__ERMSG_REPLAY_TOTAL_SEC@@YAXXZ ENDP			; `dynamic initializer for 'RMSG_REPLAY_TOTAL_SEC''
text$di	ENDS
; Function compile flags: /Ogtp
; File D:\git\src\IBK\IBK_DRFN\ProjSrc\SrcDrfn\Chart\chart_common\ReplayChartInfoDef.h
;	COMDAT ??__ERMSG_REPLAY_INC_SEC@@YAXXZ
text$di	SEGMENT
??__ERMSG_REPLAY_INC_SEC@@YAXXZ PROC			; `dynamic initializer for 'RMSG_REPLAY_INC_SEC'', COMDAT

; 96   : 	const UINT RMSG_REPLAY_INC_SEC = ::RegisterWindowMessage(_T("RMSG_REPLAY_INC_SEC"));			// 1초가 증가 될때마다 전송

  00000	68 00 00 00 00	 push	 OFFSET ??_C@_0BE@JFCIMCIP@RMSG_REPLAY_INC_SEC@
  00005	ff 15 00 00 00
	00		 call	 DWORD PTR __imp__RegisterWindowMessageA@4
  0000b	a3 00 00 00 00	 mov	 DWORD PTR ?RMSG_REPLAY_INC_SEC@@3IB, eax
  00010	c3		 ret	 0
??__ERMSG_REPLAY_INC_SEC@@YAXXZ ENDP			; `dynamic initializer for 'RMSG_REPLAY_INC_SEC''
text$di	ENDS
; Function compile flags: /Ogtp
; File D:\git\src\IBK\IBK_DRFN\ProjSrc\SrcDrfn\Chart\chart_common\ReplayChartInfoDef.h
;	COMDAT ??__ERMSG_REPLAY_END@@YAXXZ
text$di	SEGMENT
??__ERMSG_REPLAY_END@@YAXXZ PROC			; `dynamic initializer for 'RMSG_REPLAY_END'', COMDAT

; 95   : 	const UINT RMSG_REPLAY_END			= ::RegisterWindowMessage(_T("RMSG_REPLAY_END"));

  00000	68 00 00 00 00	 push	 OFFSET ??_C@_0BA@NKHHCPON@RMSG_REPLAY_END@
  00005	ff 15 00 00 00
	00		 call	 DWORD PTR __imp__RegisterWindowMessageA@4
  0000b	a3 00 00 00 00	 mov	 DWORD PTR ?RMSG_REPLAY_END@@3IB, eax
  00010	c3		 ret	 0
??__ERMSG_REPLAY_END@@YAXXZ ENDP			; `dynamic initializer for 'RMSG_REPLAY_END''
text$di	ENDS
; Function compile flags: /Ogtp
; File D:\git\src\IBK\IBK_DRFN\ProjSrc\SrcDrfn\Chart\chart_common\ReplayChartInfoDef.h
;	COMDAT ??__ERMSG_REPLAY_CHANGE_DATE@@YAXXZ
text$di	SEGMENT
??__ERMSG_REPLAY_CHANGE_DATE@@YAXXZ PROC		; `dynamic initializer for 'RMSG_REPLAY_CHANGE_DATE'', COMDAT

; 94   : 	const UINT RMSG_REPLAY_CHANGE_DATE	= ::RegisterWindowMessage(_T("RMSG_REPLAY_CHANGE_DATE"));

  00000	68 00 00 00 00	 push	 OFFSET ??_C@_0BI@KDGAIIMD@RMSG_REPLAY_CHANGE_DATE@
  00005	ff 15 00 00 00
	00		 call	 DWORD PTR __imp__RegisterWindowMessageA@4
  0000b	a3 00 00 00 00	 mov	 DWORD PTR ?RMSG_REPLAY_CHANGE_DATE@@3IB, eax
  00010	c3		 ret	 0
??__ERMSG_REPLAY_CHANGE_DATE@@YAXXZ ENDP		; `dynamic initializer for 'RMSG_REPLAY_CHANGE_DATE''
text$di	ENDS
; Function compile flags: /Ogtp
; File D:\git\src\IBK\IBK_DRFN\ProjSrc\SrcDrfn\Chart\chart_common\ReplayChartInfoDef.h
;	COMDAT ??__ERMSG_REPLAY_FAIL@@YAXXZ
text$di	SEGMENT
??__ERMSG_REPLAY_FAIL@@YAXXZ PROC			; `dynamic initializer for 'RMSG_REPLAY_FAIL'', COMDAT

; 93   : 	const UINT RMSG_REPLAY_FAIL			= ::RegisterWindowMessage(_T("RMSG_REPLAY_FAIL"));

  00000	68 00 00 00 00	 push	 OFFSET ??_C@_0BB@JFLGBADG@RMSG_REPLAY_FAIL@
  00005	ff 15 00 00 00
	00		 call	 DWORD PTR __imp__RegisterWindowMessageA@4
  0000b	a3 00 00 00 00	 mov	 DWORD PTR ?RMSG_REPLAY_FAIL@@3IB, eax
  00010	c3		 ret	 0
??__ERMSG_REPLAY_FAIL@@YAXXZ ENDP			; `dynamic initializer for 'RMSG_REPLAY_FAIL''
text$di	ENDS
; Function compile flags: /Ogtp
; File D:\git\src\IBK\IBK_DRFN\ProjSrc\SrcDrfn\Chart\chart_common\ReplayChartInfoDef.h
;	COMDAT ??__ERMSG_REPLAY_REAL@@YAXXZ
text$di	SEGMENT
??__ERMSG_REPLAY_REAL@@YAXXZ PROC			; `dynamic initializer for 'RMSG_REPLAY_REAL'', COMDAT

; 92   : 	const UINT RMSG_REPLAY_REAL			= ::RegisterWindowMessage(_T("RMSG_REPLAY_REAL"));

  00000	68 00 00 00 00	 push	 OFFSET ??_C@_0BB@IBKHOHJL@RMSG_REPLAY_REAL@
  00005	ff 15 00 00 00
	00		 call	 DWORD PTR __imp__RegisterWindowMessageA@4
  0000b	a3 00 00 00 00	 mov	 DWORD PTR ?RMSG_REPLAY_REAL@@3IB, eax
  00010	c3		 ret	 0
??__ERMSG_REPLAY_REAL@@YAXXZ ENDP			; `dynamic initializer for 'RMSG_REPLAY_REAL''
text$di	ENDS
; Function compile flags: /Ogtp
; File C:\Program Files (x86)\Microsoft Visual Studio\2019\Community\VC\Tools\MSVC\14.29.30133\atlmfc\include\afx.inl
;	COMDAT ??_GCCompareChartApp@@UAEPAXI@Z
_TEXT	SEGMENT
___flags$ = 8						; size = 4
??_GCCompareChartApp@@UAEPAXI@Z PROC			; CCompareChartApp::`scalar deleting destructor', COMDAT
; _this$ = ecx
  00000	55		 push	 ebp
  00001	8b ec		 mov	 ebp, esp
  00003	56		 push	 esi
  00004	8b f1		 mov	 esi, ecx
  00006	e8 00 00 00 00	 call	 ??1CWinApp@@UAE@XZ	; CWinApp::~CWinApp
  0000b	8b 45 08	 mov	 eax, DWORD PTR ___flags$[ebp]
  0000e	a8 01		 test	 al, 1
  00010	74 22		 je	 SHORT $LN12@scalar
  00012	a8 04		 test	 al, 4
  00014	75 10		 jne	 SHORT $LN3@scalar

; 112  : 	{ ::operator delete(p); }

  00016	56		 push	 esi
  00017	e8 00 00 00 00	 call	 ??3@YAXPAX@Z		; operator delete
  0001c	83 c4 04	 add	 esp, 4
  0001f	8b c6		 mov	 eax, esi
  00021	5e		 pop	 esi
  00022	5d		 pop	 ebp
  00023	c2 04 00	 ret	 4
$LN3@scalar:
  00026	68 d0 00 00 00	 push	 208			; 000000d0H
  0002b	56		 push	 esi
  0002c	e8 00 00 00 00	 call	 ?__global_delete@@YAXPAXI@Z ; __global_delete
  00031	83 c4 08	 add	 esp, 8
$LN12@scalar:
  00034	8b c6		 mov	 eax, esi
  00036	5e		 pop	 esi
  00037	5d		 pop	 ebp
  00038	c2 04 00	 ret	 4
??_GCCompareChartApp@@UAEPAXI@Z ENDP			; CCompareChartApp::`scalar deleting destructor'
_TEXT	ENDS
; Function compile flags: /Ogtp
; File D:\git\src\IBK\IBK_DRFN\ProjSrc\SrcDrfn\Chart\comparechart\CompareChart.cpp
;	COMDAT ?GetMessageMap@CCompareChartApp@@MBEPBUAFX_MSGMAP@@XZ
_TEXT	SEGMENT
?GetMessageMap@CCompareChartApp@@MBEPBUAFX_MSGMAP@@XZ PROC ; CCompareChartApp::GetMessageMap, COMDAT
; _this$ = ecx

; 44   : BEGIN_MESSAGE_MAP(CCompareChartApp, CWinApp)

  00000	b8 00 00 00 00	 mov	 eax, OFFSET ?messageMap@?1??GetThisMessageMap@CCompareChartApp@@KGPBUAFX_MSGMAP@@XZ@4U3@B
  00005	c3		 ret	 0
?GetMessageMap@CCompareChartApp@@MBEPBUAFX_MSGMAP@@XZ ENDP ; CCompareChartApp::GetMessageMap
_TEXT	ENDS
; Function compile flags: /Ogtp
; File D:\git\src\IBK\IBK_DRFN\ProjSrc\SrcDrfn\Chart\comparechart\CompareChart.cpp
;	COMDAT ?GetThisMessageMap@CCompareChartApp@@KGPBUAFX_MSGMAP@@XZ
_TEXT	SEGMENT
?GetThisMessageMap@CCompareChartApp@@KGPBUAFX_MSGMAP@@XZ PROC ; CCompareChartApp::GetThisMessageMap, COMDAT

; 45   : 	//{{AFX_MSG_MAP(CCompareChartApp)
; 46   : 		// NOTE - the ClassWizard will add and remove mapping macros here.
; 47   : 		//    DO NOT EDIT what you see in these blocks of generated code!
; 48   : 	//}}AFX_MSG_MAP
; 49   : END_MESSAGE_MAP()

  00000	b8 00 00 00 00	 mov	 eax, OFFSET ?messageMap@?1??GetThisMessageMap@CCompareChartApp@@KGPBUAFX_MSGMAP@@XZ@4U3@B
  00005	c3		 ret	 0
?GetThisMessageMap@CCompareChartApp@@KGPBUAFX_MSGMAP@@XZ ENDP ; CCompareChartApp::GetThisMessageMap
_TEXT	ENDS
; Function compile flags: /Ogtp
; File D:\git\src\IBK\IBK_DRFN\ProjSrc\SrcDrfn\Chart\comparechart\CompareChart.cpp
;	COMDAT ?InitInstance@CCompareChartApp@@UAEHXZ
_TEXT	SEGMENT
?InitInstance@CCompareChartApp@@UAEHXZ PROC		; CCompareChartApp::InitInstance, COMDAT
; _this$ = ecx

; 71   : 	// Register all OLE server (factories) as running.  This enables the
; 72   : 	//  OLE libraries to create objects from other applications.
; 73   : 	COleObjectFactory::RegisterAll();

  00000	e8 00 00 00 00	 call	 ?RegisterAll@COleObjectFactory@@SGHXZ ; COleObjectFactory::RegisterAll

; 74   : 	g_hInstance = theApp.m_hInstance;

  00005	a1 44 00 00 00	 mov	 eax, DWORD PTR ?theApp@@3VCCompareChartApp@@A+68
  0000a	a3 00 00 00 00	 mov	 DWORD PTR ?g_hInstance@@3PAUHINSTANCE__@@A, eax ; g_hInstance

; 75   : 	return TRUE;

  0000f	b8 01 00 00 00	 mov	 eax, 1

; 76   : }

  00014	c3		 ret	 0
?InitInstance@CCompareChartApp@@UAEHXZ ENDP		; CCompareChartApp::InitInstance
_TEXT	ENDS
; Function compile flags: /Ogtp
; File D:\git\src\IBK\IBK_DRFN\ProjSrc\SrcDrfn\Chart\comparechart\CompareChart.cpp
;	COMDAT ??0CCompareChartApp@@QAE@XZ
_TEXT	SEGMENT
_this$ = -4						; size = 4
??0CCompareChartApp@@QAE@XZ PROC			; CCompareChartApp::CCompareChartApp, COMDAT
; _this$ = ecx

; 55   : {

  00000	55		 push	 ebp
  00001	8b ec		 mov	 ebp, esp
  00003	51		 push	 ecx
  00004	56		 push	 esi
  00005	8b f1		 mov	 esi, ecx
  00007	6a 00		 push	 0
  00009	89 75 fc	 mov	 DWORD PTR _this$[ebp], esi
  0000c	e8 00 00 00 00	 call	 ??0CWinApp@@QAE@PBD@Z	; CWinApp::CWinApp
  00011	c7 06 00 00 00
	00		 mov	 DWORD PTR [esi], OFFSET ??_7CCompareChartApp@@6B@

; 56   : 	// TODO: add construction code here,
; 57   : 	// Place all significant initialization in InitInstance
; 58   : }

  00017	8b c6		 mov	 eax, esi
  00019	5e		 pop	 esi
  0001a	8b e5		 mov	 esp, ebp
  0001c	5d		 pop	 ebp
  0001d	c3		 ret	 0
??0CCompareChartApp@@QAE@XZ ENDP			; CCompareChartApp::CCompareChartApp
_TEXT	ENDS
; Function compile flags: /Ogtp
; File C:\Program Files (x86)\Microsoft Visual Studio\2019\Community\VC\Tools\MSVC\14.29.30133\atlmfc\include\afxwin.h
;	COMDAT ?GetApplicationRecoveryPingInterval@CWinApp@@UAEKXZ
_TEXT	SEGMENT
?GetApplicationRecoveryPingInterval@CWinApp@@UAEKXZ PROC ; CWinApp::GetApplicationRecoveryPingInterval, COMDAT
; _this$ = ecx

; 5370 : 	virtual DWORD GetApplicationRecoveryPingInterval() { return RECOVERY_DEFAULT_PING_INTERVAL; }  // Ping interval for RegisterApplicationRecoveryCallback

  00000	b8 88 13 00 00	 mov	 eax, 5000		; 00001388H
  00005	c3		 ret	 0
?GetApplicationRecoveryPingInterval@CWinApp@@UAEKXZ ENDP ; CWinApp::GetApplicationRecoveryPingInterval
_TEXT	ENDS
; Function compile flags: /Ogtp
; File C:\Program Files (x86)\Microsoft Visual Studio\2019\Community\VC\Tools\MSVC\14.29.30133\atlmfc\include\afxwin.h
;	COMDAT ?GetApplicationRecoveryParameter@CWinApp@@UAEPAXXZ
_TEXT	SEGMENT
?GetApplicationRecoveryParameter@CWinApp@@UAEPAXXZ PROC	; CWinApp::GetApplicationRecoveryParameter, COMDAT
; _this$ = ecx

; 5369 : 	virtual LPVOID GetApplicationRecoveryParameter() { return NULL; }  // Parameter to be passed along to RegisterApplicationRecoveryCallback

  00000	33 c0		 xor	 eax, eax
  00002	c3		 ret	 0
?GetApplicationRecoveryParameter@CWinApp@@UAEPAXXZ ENDP	; CWinApp::GetApplicationRecoveryParameter
_TEXT	ENDS
; Function compile flags: /Ogtp
; File C:\Program Files (x86)\Microsoft Visual Studio\2019\Community\VC\Tools\MSVC\14.29.30133\atlmfc\include\afxwin.h
;	COMDAT ?GetApplicationRestartFlags@CWinApp@@UAEKXZ
_TEXT	SEGMENT
?GetApplicationRestartFlags@CWinApp@@UAEKXZ PROC	; CWinApp::GetApplicationRestartFlags, COMDAT
; _this$ = ecx

; 5368 : 	virtual DWORD GetApplicationRestartFlags() { return 0; }  // Flags for RegisterApplicationRestart: default is none of RESTART_NO_CRASH/RESTART_NO_HANG/RESTART_NO_PATCH/RESTART_NO_REBOOT

  00000	33 c0		 xor	 eax, eax
  00002	c3		 ret	 0
?GetApplicationRestartFlags@CWinApp@@UAEKXZ ENDP	; CWinApp::GetApplicationRestartFlags
_TEXT	ENDS
; Function compile flags: /Ogtp
; File C:\Program Files (x86)\Microsoft Visual Studio\2019\Community\VC\Tools\MSVC\14.29.30133\atlmfc\include\afxwin.h
;	COMDAT ?RestoreAutosavedFilesAtRestart@CWinApp@@UBEHXZ
_TEXT	SEGMENT
?RestoreAutosavedFilesAtRestart@CWinApp@@UBEHXZ PROC	; CWinApp::RestoreAutosavedFilesAtRestart, COMDAT
; _this$ = ecx

; 5366 : 	virtual BOOL RestoreAutosavedFilesAtRestart() const { return m_dwRestartManagerSupportFlags & AFX_RESTART_MANAGER_RESTORE_AUTOSAVED_FILES; }

  00000	8b 81 ac 00 00
	00		 mov	 eax, DWORD PTR [ecx+172]
  00006	83 e0 20	 and	 eax, 32			; 00000020H
  00009	c3		 ret	 0
?RestoreAutosavedFilesAtRestart@CWinApp@@UBEHXZ ENDP	; CWinApp::RestoreAutosavedFilesAtRestart
_TEXT	ENDS
; Function compile flags: /Ogtp
; File C:\Program Files (x86)\Microsoft Visual Studio\2019\Community\VC\Tools\MSVC\14.29.30133\atlmfc\include\afxwin.h
;	COMDAT ?ReopenPreviousFilesAtRestart@CWinApp@@UBEHXZ
_TEXT	SEGMENT
?ReopenPreviousFilesAtRestart@CWinApp@@UBEHXZ PROC	; CWinApp::ReopenPreviousFilesAtRestart, COMDAT
; _this$ = ecx

; 5365 : 	virtual BOOL ReopenPreviousFilesAtRestart() const { return m_dwRestartManagerSupportFlags & AFX_RESTART_MANAGER_REOPEN_PREVIOUS_FILES; }

  00000	8b 81 ac 00 00
	00		 mov	 eax, DWORD PTR [ecx+172]
  00006	83 e0 10	 and	 eax, 16			; 00000010H
  00009	c3		 ret	 0
?ReopenPreviousFilesAtRestart@CWinApp@@UBEHXZ ENDP	; CWinApp::ReopenPreviousFilesAtRestart
_TEXT	ENDS
; Function compile flags: /Ogtp
; File C:\Program Files (x86)\Microsoft Visual Studio\2019\Community\VC\Tools\MSVC\14.29.30133\atlmfc\include\afxwin.h
;	COMDAT ?SupportsAutosaveAtInterval@CWinApp@@UBEHXZ
_TEXT	SEGMENT
?SupportsAutosaveAtInterval@CWinApp@@UBEHXZ PROC	; CWinApp::SupportsAutosaveAtInterval, COMDAT
; _this$ = ecx

; 5364 : 	virtual BOOL SupportsAutosaveAtInterval() const { return m_dwRestartManagerSupportFlags & AFX_RESTART_MANAGER_AUTOSAVE_AT_INTERVAL; }

  00000	8b 81 ac 00 00
	00		 mov	 eax, DWORD PTR [ecx+172]
  00006	83 e0 08	 and	 eax, 8
  00009	c3		 ret	 0
?SupportsAutosaveAtInterval@CWinApp@@UBEHXZ ENDP	; CWinApp::SupportsAutosaveAtInterval
_TEXT	ENDS
; Function compile flags: /Ogtp
; File C:\Program Files (x86)\Microsoft Visual Studio\2019\Community\VC\Tools\MSVC\14.29.30133\atlmfc\include\afxwin.h
;	COMDAT ?SupportsAutosaveAtRestart@CWinApp@@UBEHXZ
_TEXT	SEGMENT
?SupportsAutosaveAtRestart@CWinApp@@UBEHXZ PROC		; CWinApp::SupportsAutosaveAtRestart, COMDAT
; _this$ = ecx

; 5363 : 	virtual BOOL SupportsAutosaveAtRestart() const { return m_dwRestartManagerSupportFlags & AFX_RESTART_MANAGER_AUTOSAVE_AT_RESTART; }

  00000	8b 81 ac 00 00
	00		 mov	 eax, DWORD PTR [ecx+172]
  00006	83 e0 04	 and	 eax, 4
  00009	c3		 ret	 0
?SupportsAutosaveAtRestart@CWinApp@@UBEHXZ ENDP		; CWinApp::SupportsAutosaveAtRestart
_TEXT	ENDS
; Function compile flags: /Ogtp
; File C:\Program Files (x86)\Microsoft Visual Studio\2019\Community\VC\Tools\MSVC\14.29.30133\atlmfc\include\afxwin.h
;	COMDAT ?SupportsApplicationRecovery@CWinApp@@UBEHXZ
_TEXT	SEGMENT
?SupportsApplicationRecovery@CWinApp@@UBEHXZ PROC	; CWinApp::SupportsApplicationRecovery, COMDAT
; _this$ = ecx

; 5362 : 	virtual BOOL SupportsApplicationRecovery() const { return m_dwRestartManagerSupportFlags & AFX_RESTART_MANAGER_SUPPORT_RECOVERY; }

  00000	8b 81 ac 00 00
	00		 mov	 eax, DWORD PTR [ecx+172]
  00006	83 e0 02	 and	 eax, 2
  00009	c3		 ret	 0
?SupportsApplicationRecovery@CWinApp@@UBEHXZ ENDP	; CWinApp::SupportsApplicationRecovery
_TEXT	ENDS
; Function compile flags: /Ogtp
; File C:\Program Files (x86)\Microsoft Visual Studio\2019\Community\VC\Tools\MSVC\14.29.30133\atlmfc\include\afxwin.h
;	COMDAT ?SupportsRestartManager@CWinApp@@UBEHXZ
_TEXT	SEGMENT
?SupportsRestartManager@CWinApp@@UBEHXZ PROC		; CWinApp::SupportsRestartManager, COMDAT
; _this$ = ecx

; 5361 : 	virtual BOOL SupportsRestartManager() const { return m_dwRestartManagerSupportFlags & AFX_RESTART_MANAGER_SUPPORT_RESTART; }

  00000	8b 81 ac 00 00
	00		 mov	 eax, DWORD PTR [ecx+172]
  00006	83 e0 01	 and	 eax, 1
  00009	c3		 ret	 0
?SupportsRestartManager@CWinApp@@UBEHXZ ENDP		; CWinApp::SupportsRestartManager
_TEXT	ENDS
; Function compile flags: /Ogtp
; File C:\Program Files (x86)\Microsoft Visual Studio\2019\Community\VC\Tools\MSVC\14.29.30133\atlmfc\include\afx.inl
;	COMDAT ?_AfxInitManaged@@YAHXZ
_TEXT	SEGMENT
?_AfxInitManaged@@YAHXZ PROC				; _AfxInitManaged, COMDAT

; 87   : 	return 0;

  00000	33 c0		 xor	 eax, eax

; 88   : }

  00002	c3		 ret	 0
?_AfxInitManaged@@YAHXZ ENDP				; _AfxInitManaged
_TEXT	ENDS
; Function compile flags: /Ogtp
; File D:\git\src\IBK\IBK_DRFN\ProjSrc\SrcDrfn\Chart\comparechart\CompareChart.cpp
;	COMDAT _DllRegisterServer@0
_TEXT	SEGMENT
__ctlState$ = -8					; size = 8
_DllRegisterServer@0 PROC				; COMDAT

; 94   : {

  00000	55		 push	 ebp
  00001	8b ec		 mov	 ebp, esp
  00003	83 ec 08	 sub	 esp, 8

; 95   : 	AFX_MANAGE_STATE(AfxGetStaticModuleState());

  00006	e8 00 00 00 00	 call	 ?AfxGetStaticModuleState@@YGPAVAFX_MODULE_STATE@@XZ ; AfxGetStaticModuleState
  0000b	50		 push	 eax
  0000c	8d 4d f8	 lea	 ecx, DWORD PTR __ctlState$[ebp]
  0000f	e8 00 00 00 00	 call	 ??0AFX_MAINTAIN_STATE2@@QAE@PAVAFX_MODULE_STATE@@@Z ; AFX_MAINTAIN_STATE2::AFX_MAINTAIN_STATE2

; 96   : 	COleObjectFactory::UpdateRegistryAll();

  00014	6a 01		 push	 1
  00016	e8 00 00 00 00	 call	 ?UpdateRegistryAll@COleObjectFactory@@SGHH@Z ; COleObjectFactory::UpdateRegistryAll

; 97   : 	return S_OK;

  0001b	8d 4d f8	 lea	 ecx, DWORD PTR __ctlState$[ebp]
  0001e	e8 00 00 00 00	 call	 ??1AFX_MAINTAIN_STATE2@@QAE@XZ ; AFX_MAINTAIN_STATE2::~AFX_MAINTAIN_STATE2
  00023	33 c0		 xor	 eax, eax

; 98   : }

  00025	8b e5		 mov	 esp, ebp
  00027	5d		 pop	 ebp
  00028	c3		 ret	 0
_DllRegisterServer@0 ENDP
_TEXT	ENDS
; Function compile flags: /Ogtp
; File D:\git\src\IBK\IBK_DRFN\ProjSrc\SrcDrfn\Chart\comparechart\CompareChart.cpp
;	COMDAT _DllCanUnloadNow@0
_TEXT	SEGMENT
__ctlState$ = -8					; size = 8
_DllCanUnloadNow@0 PROC					; COMDAT

; 88   : {

  00000	55		 push	 ebp
  00001	8b ec		 mov	 ebp, esp
  00003	83 ec 08	 sub	 esp, 8
  00006	56		 push	 esi

; 89   : 	AFX_MANAGE_STATE(AfxGetStaticModuleState());

  00007	e8 00 00 00 00	 call	 ?AfxGetStaticModuleState@@YGPAVAFX_MODULE_STATE@@XZ ; AfxGetStaticModuleState
  0000c	50		 push	 eax
  0000d	8d 4d f8	 lea	 ecx, DWORD PTR __ctlState$[ebp]
  00010	e8 00 00 00 00	 call	 ??0AFX_MAINTAIN_STATE2@@QAE@PAVAFX_MODULE_STATE@@@Z ; AFX_MAINTAIN_STATE2::AFX_MAINTAIN_STATE2

; 90   : 	return AfxDllCanUnloadNow();

  00015	e8 00 00 00 00	 call	 ?AfxDllCanUnloadNow@@YGJXZ ; AfxDllCanUnloadNow
  0001a	8d 4d f8	 lea	 ecx, DWORD PTR __ctlState$[ebp]
  0001d	8b f0		 mov	 esi, eax
  0001f	e8 00 00 00 00	 call	 ??1AFX_MAINTAIN_STATE2@@QAE@XZ ; AFX_MAINTAIN_STATE2::~AFX_MAINTAIN_STATE2
  00024	8b c6		 mov	 eax, esi
  00026	5e		 pop	 esi

; 91   : }

  00027	8b e5		 mov	 esp, ebp
  00029	5d		 pop	 ebp
  0002a	c3		 ret	 0
_DllCanUnloadNow@0 ENDP
_TEXT	ENDS
; Function compile flags: /Ogtp
; File D:\git\src\IBK\IBK_DRFN\ProjSrc\SrcDrfn\Chart\comparechart\CompareChart.cpp
;	COMDAT _DllGetClassObject@12
_TEXT	SEGMENT
__ctlState$ = -8					; size = 8
_rclsid$ = 8						; size = 4
_riid$ = 12						; size = 4
_ppv$ = 16						; size = 4
_DllGetClassObject@12 PROC				; COMDAT

; 82   : {

  00000	55		 push	 ebp
  00001	8b ec		 mov	 ebp, esp
  00003	83 ec 08	 sub	 esp, 8
  00006	56		 push	 esi

; 83   : 	AFX_MANAGE_STATE(AfxGetStaticModuleState());

  00007	e8 00 00 00 00	 call	 ?AfxGetStaticModuleState@@YGPAVAFX_MODULE_STATE@@XZ ; AfxGetStaticModuleState
  0000c	50		 push	 eax
  0000d	8d 4d f8	 lea	 ecx, DWORD PTR __ctlState$[ebp]
  00010	e8 00 00 00 00	 call	 ??0AFX_MAINTAIN_STATE2@@QAE@PAVAFX_MODULE_STATE@@@Z ; AFX_MAINTAIN_STATE2::AFX_MAINTAIN_STATE2

; 84   : 	return AfxDllGetClassObject(rclsid, riid, ppv);

  00015	ff 75 10	 push	 DWORD PTR _ppv$[ebp]
  00018	ff 75 0c	 push	 DWORD PTR _riid$[ebp]
  0001b	ff 75 08	 push	 DWORD PTR _rclsid$[ebp]
  0001e	e8 00 00 00 00	 call	 ?AfxDllGetClassObject@@YGJABU_GUID@@0PAPAX@Z ; AfxDllGetClassObject
  00023	8d 4d f8	 lea	 ecx, DWORD PTR __ctlState$[ebp]
  00026	8b f0		 mov	 esi, eax
  00028	e8 00 00 00 00	 call	 ??1AFX_MAINTAIN_STATE2@@QAE@XZ ; AFX_MAINTAIN_STATE2::~AFX_MAINTAIN_STATE2
  0002d	8b c6		 mov	 eax, esi
  0002f	5e		 pop	 esi

; 85   : }

  00030	8b e5		 mov	 esp, ebp
  00032	5d		 pop	 ebp
  00033	c2 0c 00	 ret	 12			; 0000000cH
_DllGetClassObject@12 ENDP
_TEXT	ENDS
; Function compile flags: /Ogtp
; File C:\Program Files (x86)\Microsoft Visual Studio\2019\Community\VC\Tools\MSVC\14.29.30133\atlmfc\include\afx.inl
;	COMDAT ?Dump@CObject@@UBEXAAVCDumpContext@@@Z
_TEXT	SEGMENT
___formal$ = 8						; size = 4
?Dump@CObject@@UBEXAAVCDumpContext@@@Z PROC		; CObject::Dump, COMDAT
; _this$ = ecx

; 122  : 	{ /* no dumping in release builds */ }

  00000	c2 04 00	 ret	 4
?Dump@CObject@@UBEXAAVCDumpContext@@@Z ENDP		; CObject::Dump
_TEXT	ENDS
; Function compile flags: /Ogtp
; File C:\Program Files (x86)\Microsoft Visual Studio\2019\Community\VC\Tools\MSVC\14.29.30133\atlmfc\include\afx.inl
;	COMDAT ?AssertValid@CObject@@UBEXXZ
_TEXT	SEGMENT
?AssertValid@CObject@@UBEXXZ PROC			; CObject::AssertValid, COMDAT
; _this$ = ecx

; 120  : 	{ /* no asserts in release builds */ }

  00000	c2 00 00	 ret	 0
?AssertValid@CObject@@UBEXXZ ENDP			; CObject::AssertValid
_TEXT	ENDS
; Function compile flags: /Ogtp
; File C:\Program Files (x86)\Microsoft Visual Studio\2019\Community\VC\Tools\MSVC\14.29.30133\atlmfc\include\afx.inl
;	COMDAT ?Serialize@CObject@@UAEXAAVCArchive@@@Z
_TEXT	SEGMENT
___formal$ = 8						; size = 4
?Serialize@CObject@@UAEXAAVCArchive@@@Z PROC		; CObject::Serialize, COMDAT
; _this$ = ecx

; 106  : 	{ /* CObject does not serialize anything by default */ }

  00000	c2 04 00	 ret	 4
?Serialize@CObject@@UAEXAAVCArchive@@@Z ENDP		; CObject::Serialize
_TEXT	ENDS
; Function compile flags: /Ogtp
; File C:\Program Files (x86)\Microsoft Visual Studio\2019\Community\VC\Tools\MSVC\14.29.30133\atlmfc\include\afx.inl
;	COMDAT ??3CObject@@SGXPAX@Z
_TEXT	SEGMENT
_p$ = 8							; size = 4
??3CObject@@SGXPAX@Z PROC				; CObject::operator delete, COMDAT

; 112  : 	{ ::operator delete(p); }

  00000	55		 push	 ebp
  00001	8b ec		 mov	 ebp, esp
  00003	ff 75 08	 push	 DWORD PTR _p$[ebp]
  00006	e8 00 00 00 00	 call	 ??3@YAXPAX@Z		; operator delete
  0000b	83 c4 04	 add	 esp, 4
  0000e	5d		 pop	 ebp
  0000f	c2 04 00	 ret	 4
??3CObject@@SGXPAX@Z ENDP				; CObject::operator delete
_TEXT	ENDS
; Function compile flags: /Ogtp
; File D:\git\src\IBK\IBK_DRFN\ProjSrc\SrcDrfn\Chart\comparechart\CompareChart.cpp
;	COMDAT ?__empty_global_delete@@YAXPAXI@Z
_TEXT	SEGMENT
___formal$ = 8						; size = 4
___formal$ = 12						; size = 4
?__empty_global_delete@@YAXPAXI@Z PROC			; __empty_global_delete, COMDAT

  00000	c2 00 00	 ret	 0
?__empty_global_delete@@YAXPAXI@Z ENDP			; __empty_global_delete
_TEXT	ENDS
; Function compile flags: /Ogtp
; File D:\git\src\IBK\IBK_DRFN\ProjSrc\SrcDrfn\Chart\comparechart\CompareChart.cpp
;	COMDAT ?__empty_global_delete@@YAXPAX@Z
_TEXT	SEGMENT
___formal$ = 8						; size = 4
?__empty_global_delete@@YAXPAX@Z PROC			; __empty_global_delete, COMDAT

  00000	c2 00 00	 ret	 0
?__empty_global_delete@@YAXPAX@Z ENDP			; __empty_global_delete
_TEXT	ENDS
END
