; Listing generated by Microsoft (R) Optimizing Compiler Version 19.29.30148.0 

	TITLE	D:\git\src\IBK\IBK_DRFN\#DRfn-CS\_Obj\CompareChart\GfxOutBarCtrl.obj
	.686P
	.XMM
	include listing.inc
	.model	flat

INCLUDELIB MSVCRT
INCLUDELIB OLDNAMES

PUBLIC	?__empty_global_delete@@YAXPAX@Z		; __empty_global_delete
PUBLIC	?__empty_global_delete@@YAXPAXI@Z		; __empty_global_delete
PUBLIC	??1CObject@@UAE@XZ				; CObject::~CObject
PUBLIC	??3CObject@@SGXPAX@Z				; CObject::operator delete
PUBLIC	?Serialize@CObject@@UAEXAAVCArchive@@@Z		; CObject::Serialize
PUBLIC	?AssertValid@CObject@@UBEXXZ			; CObject::AssertValid
PUBLIC	?Dump@CObject@@UBEXAAVCDumpContext@@@Z		; CObject::Dump
PUBLIC	??1CGdiObject@@UAE@XZ				; CGdiObject::~CGdiObject
PUBLIC	??_GCGdiObject@@UAEPAXI@Z			; CGdiObject::`scalar deleting destructor'
PUBLIC	??1CPen@@UAE@XZ					; CPen::~CPen
PUBLIC	??_GCPen@@UAEPAXI@Z				; CPen::`scalar deleting destructor'
PUBLIC	??1CFont@@UAE@XZ				; CFont::~CFont
PUBLIC	??_GCFont@@UAEPAXI@Z				; CFont::`scalar deleting destructor'
PUBLIC	??1CBitmap@@UAE@XZ				; CBitmap::~CBitmap
PUBLIC	??_GCBitmap@@UAEPAXI@Z				; CBitmap::`scalar deleting destructor'
PUBLIC	??1CRgn@@UAE@XZ					; CRgn::~CRgn
PUBLIC	??_GCRgn@@UAEPAXI@Z				; CRgn::`scalar deleting destructor'
PUBLIC	?DrawTextA@CDC@@UAEHPBDHPAUtagRECT@@I@Z		; CDC::DrawTextA
PUBLIC	?OnRButtonDown@CWnd@@IAEXIVCPoint@@@Z		; CWnd::OnRButtonDown
PUBLIC	?DoDataExchange@CWnd@@MAEXPAVCDataExchange@@@Z	; CWnd::DoDataExchange
PUBLIC	?BeginModalState@CWnd@@UAEXXZ			; CWnd::BeginModalState
PUBLIC	?EndModalState@CWnd@@UAEXXZ			; CWnd::EndModalState
PUBLIC	?_GetBaseClass@CGfxOutBarCtrl@@KGPAUCRuntimeClass@@XZ ; CGfxOutBarCtrl::_GetBaseClass
PUBLIC	?GetThisClass@CGfxOutBarCtrl@@SGPAUCRuntimeClass@@XZ ; CGfxOutBarCtrl::GetThisClass
PUBLIC	?GetRuntimeClass@CGfxOutBarCtrl@@UBEPAUCRuntimeClass@@XZ ; CGfxOutBarCtrl::GetRuntimeClass
PUBLIC	?CreateObject@CGfxOutBarCtrl@@SGPAVCObject@@XZ	; CGfxOutBarCtrl::CreateObject
PUBLIC	??0CGfxOutBarCtrl@@QAE@XZ			; CGfxOutBarCtrl::CGfxOutBarCtrl
PUBLIC	??0CBarItem@CGfxOutBarCtrl@@QAE@PBDHK@Z		; CGfxOutBarCtrl::CBarItem::CBarItem
PUBLIC	??1CBarItem@CGfxOutBarCtrl@@UAE@XZ		; CGfxOutBarCtrl::CBarItem::~CBarItem
PUBLIC	??_GCBarItem@CGfxOutBarCtrl@@UAEPAXI@Z		; CGfxOutBarCtrl::CBarItem::`scalar deleting destructor'
PUBLIC	??0CBarFolder@CGfxOutBarCtrl@@QAE@PBDK@Z	; CGfxOutBarCtrl::CBarFolder::CBarFolder
PUBLIC	??1CBarFolder@CGfxOutBarCtrl@@UAE@XZ		; CGfxOutBarCtrl::CBarFolder::~CBarFolder
PUBLIC	?CleanUp@CBarFolder@CGfxOutBarCtrl@@QAEXXZ	; CGfxOutBarCtrl::CBarFolder::CleanUp
PUBLIC	?GetItemCount@CBarFolder@CGfxOutBarCtrl@@QAEHXZ	; CGfxOutBarCtrl::CBarFolder::GetItemCount
PUBLIC	?InsertItem@CBarFolder@CGfxOutBarCtrl@@QAEHHPBDHK@Z ; CGfxOutBarCtrl::CBarFolder::InsertItem
PUBLIC	??_GCBarFolder@CGfxOutBarCtrl@@UAEPAXI@Z	; CGfxOutBarCtrl::CBarFolder::`scalar deleting destructor'
PUBLIC	?DeleteAllFolder@CGfxOutBarCtrl@@QAEXXZ		; CGfxOutBarCtrl::DeleteAllFolder
PUBLIC	?SetBackColor@CGfxOutBarCtrl@@QAEXHKKKK@Z	; CGfxOutBarCtrl::SetBackColor
PUBLIC	?DrawAnimItem@CGfxOutBarCtrl@@QAEXHHH@Z		; CGfxOutBarCtrl::DrawAnimItem
PUBLIC	?SetAnimSelHighlight@CGfxOutBarCtrl@@QAEXH@Z	; CGfxOutBarCtrl::SetAnimSelHighlight
PUBLIC	?GetFolderData@CGfxOutBarCtrl@@QAEKH@Z		; CGfxOutBarCtrl::GetFolderData
PUBLIC	?GetFolderChild@CGfxOutBarCtrl@@QAEPAVCWnd@@H@Z	; CGfxOutBarCtrl::GetFolderChild
PUBLIC	?AddFolderBar@CGfxOutBarCtrl@@QAEHPBDPAVCWnd@@K@Z ; CGfxOutBarCtrl::AddFolderBar
PUBLIC	?GetItemText@CGfxOutBarCtrl@@QAE?AV?$CStringT@DV?$StrTraitMFC_DLL@DV?$ChTraitsCRT@D@ATL@@@@@ATL@@H@Z ; CGfxOutBarCtrl::GetItemText
PUBLIC	?AnimateFolderScroll@CGfxOutBarCtrl@@QAEXHH@Z	; CGfxOutBarCtrl::AnimateFolderScroll
PUBLIC	?GetDragItemRect@CGfxOutBarCtrl@@QAEHHAAVCRect@@@Z ; CGfxOutBarCtrl::GetDragItemRect
PUBLIC	?DrawDragArrow@CGfxOutBarCtrl@@QAEXPAVCDC@@HH@Z	; CGfxOutBarCtrl::DrawDragArrow
PUBLIC	?SetItemImage@CGfxOutBarCtrl@@QAEXHH@Z		; CGfxOutBarCtrl::SetItemImage
PUBLIC	?SetItemData@CGfxOutBarCtrl@@QAEXHK@Z		; CGfxOutBarCtrl::SetItemData
PUBLIC	?GetItemImage@CGfxOutBarCtrl@@QBEHH@Z		; CGfxOutBarCtrl::GetItemImage
PUBLIC	?GetItemData@CGfxOutBarCtrl@@QBEKH@Z		; CGfxOutBarCtrl::GetItemData
PUBLIC	?IsValidItem@CGfxOutBarCtrl@@QBE_NH@Z		; CGfxOutBarCtrl::IsValidItem
PUBLIC	?RemoveItem@CGfxOutBarCtrl@@QAEXH@Z		; CGfxOutBarCtrl::RemoveItem
PUBLIC	?SetItemText@CGfxOutBarCtrl@@QAEXHPBD@Z		; CGfxOutBarCtrl::SetItemText
PUBLIC	?SetFolderText@CGfxOutBarCtrl@@QAEXHPBD@Z	; CGfxOutBarCtrl::SetFolderText
PUBLIC	?GetLabelRect@CGfxOutBarCtrl@@QAEXHHAAVCRect@@@Z ; CGfxOutBarCtrl::GetLabelRect
PUBLIC	?GetIconRect@CGfxOutBarCtrl@@QAEXHHAAVCRect@@@Z	; CGfxOutBarCtrl::GetIconRect
PUBLIC	?HighlightItem@CGfxOutBarCtrl@@QAEXH_N@Z	; CGfxOutBarCtrl::HighlightItem
PUBLIC	?GetVisibleRange@CGfxOutBarCtrl@@QAEXHAAH0@Z	; CGfxOutBarCtrl::GetVisibleRange
PUBLIC	?DrawItem@CGfxOutBarCtrl@@QAEXPAVCDC@@HVCRect@@H_N@Z ; CGfxOutBarCtrl::DrawItem
PUBLIC	?GetFolderImageList@CGfxOutBarCtrl@@QBEPAVCImageList@@H_N@Z ; CGfxOutBarCtrl::GetFolderImageList
PUBLIC	?GetItemSize@CGfxOutBarCtrl@@QAE?AVCSize@@HHH@Z	; CGfxOutBarCtrl::GetItemSize
PUBLIC	?PaintItems@CGfxOutBarCtrl@@QAEXPAVCDC@@HVCRect@@@Z ; CGfxOutBarCtrl::PaintItems
PUBLIC	?GetImageList@CGfxOutBarCtrl@@QAEPAVCImageList@@PAV2@H@Z ; CGfxOutBarCtrl::GetImageList
PUBLIC	?SetFolderImageList@CGfxOutBarCtrl@@QAEPAVCImageList@@HPAV2@H@Z ; CGfxOutBarCtrl::SetFolderImageList
PUBLIC	?SetImageList@CGfxOutBarCtrl@@QAEPAVCImageList@@PAV2@H@Z ; CGfxOutBarCtrl::SetImageList
PUBLIC	?GetCountPerPage@CGfxOutBarCtrl@@QBEHXZ		; CGfxOutBarCtrl::GetCountPerPage
PUBLIC	?RemoveFolder@CGfxOutBarCtrl@@QAEXH@Z		; CGfxOutBarCtrl::RemoveFolder
PUBLIC	?GetSelFolder@CGfxOutBarCtrl@@QBEHXZ		; CGfxOutBarCtrl::GetSelFolder
PUBLIC	?GetFolderCount@CGfxOutBarCtrl@@QBEHXZ		; CGfxOutBarCtrl::GetFolderCount
PUBLIC	?SetSelFolder@CGfxOutBarCtrl@@QAEXH@Z		; CGfxOutBarCtrl::SetSelFolder
PUBLIC	?GetItemCount@CGfxOutBarCtrl@@QBEHXZ		; CGfxOutBarCtrl::GetItemCount
PUBLIC	?InsertItem@CGfxOutBarCtrl@@QAEHHHPBDHK@Z	; CGfxOutBarCtrl::InsertItem
PUBLIC	?HighlightFolder@CGfxOutBarCtrl@@QAEXH@Z	; CGfxOutBarCtrl::HighlightFolder
PUBLIC	?HitTestEx@CGfxOutBarCtrl@@QAEHABVCPoint@@AAH@Z	; CGfxOutBarCtrl::HitTestEx
PUBLIC	?GetInsideRect@CGfxOutBarCtrl@@QBEXAAVCRect@@@Z	; CGfxOutBarCtrl::GetInsideRect
PUBLIC	?AddFolder@CGfxOutBarCtrl@@QAEHPBDK@Z		; CGfxOutBarCtrl::AddFolder
PUBLIC	?GetItemRect@CGfxOutBarCtrl@@QAEXHHAAVCRect@@@Z	; CGfxOutBarCtrl::GetItemRect
PUBLIC	?GetFolderRect@CGfxOutBarCtrl@@QBE_NHAAVCRect@@@Z ; CGfxOutBarCtrl::GetFolderRect
PUBLIC	?ModifyFlag@CGfxOutBarCtrl@@QAEXABK0I@Z		; CGfxOutBarCtrl::ModifyFlag
PUBLIC	?GetFlag@CGfxOutBarCtrl@@QBEKXZ			; CGfxOutBarCtrl::GetFlag
PUBLIC	?SetSmallIconView@CGfxOutBarCtrl@@QAEX_N@Z	; CGfxOutBarCtrl::SetSmallIconView
PUBLIC	?IsSmallIconView@CGfxOutBarCtrl@@QBE_NXZ	; CGfxOutBarCtrl::IsSmallIconView
PUBLIC	?Create@CGfxOutBarCtrl@@QAEHKABUtagRECT@@PAVCWnd@@IK@Z ; CGfxOutBarCtrl::Create
PUBLIC	??1CGfxOutBarCtrl@@UAE@XZ			; CGfxOutBarCtrl::~CGfxOutBarCtrl
PUBLIC	?SetFolderImageList@CGfxOutBarCtrl@@QAEXPAVCImageList@@HHH@Z ; CGfxOutBarCtrl::SetFolderImageList
PUBLIC	?DrawFolder@CGfxOutBarCtrl@@IAEXPAVCDC@@HVCRect@@_N@Z ; CGfxOutBarCtrl::DrawFolder
PUBLIC	?OnCreate@CGfxOutBarCtrl@@IAEHPAUtagCREATESTRUCTA@@@Z ; CGfxOutBarCtrl::OnCreate
PUBLIC	?OnTimer@CGfxOutBarCtrl@@IAEXI@Z		; CGfxOutBarCtrl::OnTimer
PUBLIC	?OnPaint@CGfxOutBarCtrl@@IAEXXZ			; CGfxOutBarCtrl::OnPaint
PUBLIC	?OnEraseBkgnd@CGfxOutBarCtrl@@IAEHPAVCDC@@@Z	; CGfxOutBarCtrl::OnEraseBkgnd
PUBLIC	?OnMouseMove@CGfxOutBarCtrl@@IAEXIVCPoint@@@Z	; CGfxOutBarCtrl::OnMouseMove
PUBLIC	?OnLButtonDown@CGfxOutBarCtrl@@IAEXIVCPoint@@@Z	; CGfxOutBarCtrl::OnLButtonDown
PUBLIC	?OnSetCursor@CGfxOutBarCtrl@@IAEHPAVCWnd@@II@Z	; CGfxOutBarCtrl::OnSetCursor
PUBLIC	?OnSize@CGfxOutBarCtrl@@IAEXIHH@Z		; CGfxOutBarCtrl::OnSize
PUBLIC	?OnGfxLargeicon@CGfxOutBarCtrl@@IAEXXZ		; CGfxOutBarCtrl::OnGfxLargeicon
PUBLIC	?OnUpdateGfxLargeicon@CGfxOutBarCtrl@@IAEXPAVCCmdUI@@@Z ; CGfxOutBarCtrl::OnUpdateGfxLargeicon
PUBLIC	?OnGfxSmallicon@CGfxOutBarCtrl@@IAEXXZ		; CGfxOutBarCtrl::OnGfxSmallicon
PUBLIC	?OnUpdateGfxSmallicon@CGfxOutBarCtrl@@IAEXPAVCCmdUI@@@Z ; CGfxOutBarCtrl::OnUpdateGfxSmallicon
PUBLIC	?OnGfxRemoveitem@CGfxOutBarCtrl@@IAEXXZ		; CGfxOutBarCtrl::OnGfxRemoveitem
PUBLIC	?OnUpdateGfxRemoveitem@CGfxOutBarCtrl@@IAEXPAVCCmdUI@@@Z ; CGfxOutBarCtrl::OnUpdateGfxRemoveitem
PUBLIC	?OnUpdateGfxRenameitem@CGfxOutBarCtrl@@IAEXPAVCCmdUI@@@Z ; CGfxOutBarCtrl::OnUpdateGfxRenameitem
PUBLIC	?OnDestroy@CGfxOutBarCtrl@@IAEXXZ		; CGfxOutBarCtrl::OnDestroy
PUBLIC	?OnLButtonDblClk@CGfxOutBarCtrl@@IAEXIVCPoint@@@Z ; CGfxOutBarCtrl::OnLButtonDblClk
PUBLIC	?GetThisMessageMap@CGfxOutBarCtrl@@KGPBUAFX_MSGMAP@@XZ ; CGfxOutBarCtrl::GetThisMessageMap
PUBLIC	?GetMessageMap@CGfxOutBarCtrl@@MBEPBUAFX_MSGMAP@@XZ ; CGfxOutBarCtrl::GetMessageMap
PUBLIC	??_GCGfxOutBarCtrl@@UAEPAXI@Z			; CGfxOutBarCtrl::`scalar deleting destructor'
PUBLIC	??_R0PAVCException@@@8				; CException * `RTTI Type Descriptor'
PUBLIC	??_7CGdiObject@@6B@				; CGdiObject::`vftable'
PUBLIC	??_7CPen@@6B@					; CPen::`vftable'
PUBLIC	??_7CFont@@6B@					; CFont::`vftable'
PUBLIC	??_7CBitmap@@6B@				; CBitmap::`vftable'
PUBLIC	??_7CRgn@@6B@					; CRgn::`vftable'
PUBLIC	??_C@_0HD@JJCHHHNK@C?3?2Program?5Files?5?$CIx86?$CJ?2Microsof@ ; `string'
PUBLIC	??_C@_0BP@OIEOKIDM@Exception?5thrown?5in?5destructor@ ; `string'
PUBLIC	??_C@_0BB@HBOOMJBF@?$CFTs?5?$CI?$CFTs?3?$CFd?$CJ?6?$CFTs@ ; `string'
PUBLIC	??_C@_0N@OMEMOKLE@?$CFTs?5?$CI?$CFTs?3?$CFd?$CJ@ ; `string'
PUBLIC	??_R0?AVCObject@@@8				; CObject `RTTI Type Descriptor'
PUBLIC	??_R3CObject@@8					; CObject::`RTTI Class Hierarchy Descriptor'
PUBLIC	??_R2CObject@@8					; CObject::`RTTI Base Class Array'
PUBLIC	??_R1A@?0A@EA@CObject@@8			; CObject::`RTTI Base Class Descriptor at (0,-1,0,64)'
PUBLIC	??_R4CGdiObject@@6B@				; CGdiObject::`RTTI Complete Object Locator'
PUBLIC	??_R0?AVCGdiObject@@@8				; CGdiObject `RTTI Type Descriptor'
PUBLIC	??_R3CGdiObject@@8				; CGdiObject::`RTTI Class Hierarchy Descriptor'
PUBLIC	??_R2CGdiObject@@8				; CGdiObject::`RTTI Base Class Array'
PUBLIC	??_R1A@?0A@EA@CGdiObject@@8			; CGdiObject::`RTTI Base Class Descriptor at (0,-1,0,64)'
PUBLIC	??_R4CPen@@6B@					; CPen::`RTTI Complete Object Locator'
PUBLIC	??_R0?AVCPen@@@8				; CPen `RTTI Type Descriptor'
PUBLIC	??_R3CPen@@8					; CPen::`RTTI Class Hierarchy Descriptor'
PUBLIC	??_R2CPen@@8					; CPen::`RTTI Base Class Array'
PUBLIC	??_R1A@?0A@EA@CPen@@8				; CPen::`RTTI Base Class Descriptor at (0,-1,0,64)'
PUBLIC	??_R4CFont@@6B@					; CFont::`RTTI Complete Object Locator'
PUBLIC	??_R0?AVCFont@@@8				; CFont `RTTI Type Descriptor'
PUBLIC	??_R3CFont@@8					; CFont::`RTTI Class Hierarchy Descriptor'
PUBLIC	??_R2CFont@@8					; CFont::`RTTI Base Class Array'
PUBLIC	??_R1A@?0A@EA@CFont@@8				; CFont::`RTTI Base Class Descriptor at (0,-1,0,64)'
PUBLIC	??_R4CBitmap@@6B@				; CBitmap::`RTTI Complete Object Locator'
PUBLIC	??_R0?AVCBitmap@@@8				; CBitmap `RTTI Type Descriptor'
PUBLIC	??_R3CBitmap@@8					; CBitmap::`RTTI Class Hierarchy Descriptor'
PUBLIC	??_R2CBitmap@@8					; CBitmap::`RTTI Base Class Array'
PUBLIC	??_R1A@?0A@EA@CBitmap@@8			; CBitmap::`RTTI Base Class Descriptor at (0,-1,0,64)'
PUBLIC	??_R4CRgn@@6B@					; CRgn::`RTTI Complete Object Locator'
PUBLIC	??_R0?AVCRgn@@@8				; CRgn `RTTI Type Descriptor'
PUBLIC	??_R3CRgn@@8					; CRgn::`RTTI Class Hierarchy Descriptor'
PUBLIC	??_R2CRgn@@8					; CRgn::`RTTI Base Class Array'
PUBLIC	??_R1A@?0A@EA@CRgn@@8				; CRgn::`RTTI Base Class Descriptor at (0,-1,0,64)'
PUBLIC	??_R1A@?0A@EA@CWnd@@8				; CWnd::`RTTI Base Class Descriptor at (0,-1,0,64)'
PUBLIC	??_R0?AVCWnd@@@8				; CWnd `RTTI Type Descriptor'
PUBLIC	??_R3CWnd@@8					; CWnd::`RTTI Class Hierarchy Descriptor'
PUBLIC	??_R2CWnd@@8					; CWnd::`RTTI Base Class Array'
PUBLIC	??_R1A@?0A@EA@CCmdTarget@@8			; CCmdTarget::`RTTI Base Class Descriptor at (0,-1,0,64)'
PUBLIC	??_R0?AVCCmdTarget@@@8				; CCmdTarget `RTTI Type Descriptor'
PUBLIC	??_R3CCmdTarget@@8				; CCmdTarget::`RTTI Class Hierarchy Descriptor'
PUBLIC	??_R2CCmdTarget@@8				; CCmdTarget::`RTTI Base Class Array'
PUBLIC	?classCGfxOutBarCtrl@CGfxOutBarCtrl@@2UCRuntimeClass@@B ; CGfxOutBarCtrl::classCGfxOutBarCtrl
PUBLIC	??_7CBarItem@CGfxOutBarCtrl@@6B@		; CGfxOutBarCtrl::CBarItem::`vftable'
PUBLIC	??_7CBarFolder@CGfxOutBarCtrl@@6B@		; CGfxOutBarCtrl::CBarFolder::`vftable'
PUBLIC	??_7CGfxOutBarCtrl@@6B@				; CGfxOutBarCtrl::`vftable'
PUBLIC	??_C@_0P@MGLBNAEE@CGfxOutBarCtrl@		; `string'
PUBLIC	??_C@_06MFMMLLPC@?$LB?$LM?$LI?$LC?C?$LM@	; `string'
PUBLIC	??_R4CGfxOutBarCtrl@@6B@			; CGfxOutBarCtrl::`RTTI Complete Object Locator'
PUBLIC	??_R0?AVCGfxOutBarCtrl@@@8			; CGfxOutBarCtrl `RTTI Type Descriptor'
PUBLIC	??_R3CGfxOutBarCtrl@@8				; CGfxOutBarCtrl::`RTTI Class Hierarchy Descriptor'
PUBLIC	??_R2CGfxOutBarCtrl@@8				; CGfxOutBarCtrl::`RTTI Base Class Array'
PUBLIC	??_R1A@?0A@EA@CGfxOutBarCtrl@@8			; CGfxOutBarCtrl::`RTTI Base Class Descriptor at (0,-1,0,64)'
PUBLIC	??_R4CBarItem@CGfxOutBarCtrl@@6B@		; CGfxOutBarCtrl::CBarItem::`RTTI Complete Object Locator'
PUBLIC	??_R0?AVCBarItem@CGfxOutBarCtrl@@@8		; CGfxOutBarCtrl::CBarItem `RTTI Type Descriptor'
PUBLIC	??_R3CBarItem@CGfxOutBarCtrl@@8			; CGfxOutBarCtrl::CBarItem::`RTTI Class Hierarchy Descriptor'
PUBLIC	??_R2CBarItem@CGfxOutBarCtrl@@8			; CGfxOutBarCtrl::CBarItem::`RTTI Base Class Array'
PUBLIC	??_R1A@?0A@EA@CBarItem@CGfxOutBarCtrl@@8	; CGfxOutBarCtrl::CBarItem::`RTTI Base Class Descriptor at (0,-1,0,64)'
PUBLIC	??_R4CBarFolder@CGfxOutBarCtrl@@6B@		; CGfxOutBarCtrl::CBarFolder::`RTTI Complete Object Locator'
PUBLIC	??_R0?AVCBarFolder@CGfxOutBarCtrl@@@8		; CGfxOutBarCtrl::CBarFolder `RTTI Type Descriptor'
PUBLIC	??_R3CBarFolder@CGfxOutBarCtrl@@8		; CGfxOutBarCtrl::CBarFolder::`RTTI Class Hierarchy Descriptor'
PUBLIC	??_R2CBarFolder@CGfxOutBarCtrl@@8		; CGfxOutBarCtrl::CBarFolder::`RTTI Base Class Array'
PUBLIC	??_R1A@?0A@EA@CBarFolder@CGfxOutBarCtrl@@8	; CGfxOutBarCtrl::CBarFolder::`RTTI Base Class Descriptor at (0,-1,0,64)'
PUBLIC	__xmm@00000190000000000000000000000000
EXTRN	??2@YAPAXI@Z:PROC				; operator new
EXTRN	??3@YAXPAX@Z:PROC				; operator delete
EXTRN	??3@YAXPAXI@Z:PROC				; operator delete
EXTRN	?__global_delete@@YAXPAXI@Z:PROC		; __global_delete
EXTRN	??_U@YAPAXI@Z:PROC				; operator new[]
EXTRN	??_V@YAXPAX@Z:PROC				; operator delete[]
EXTRN	___std_terminate:PROC
EXTRN	__imp__Sleep@4:PROC
EXTRN	__imp__lstrcpyA@8:PROC
EXTRN	__imp__lstrlenA@4:PROC
EXTRN	__imp__BitBlt@36:PROC
EXTRN	__imp__CreateCompatibleBitmap@12:PROC
EXTRN	__imp__CreateCompatibleDC@4:PROC
EXTRN	__imp__CreateFontIndirectA@4:PROC
EXTRN	__imp__CreateRectRgnIndirect@4:PROC
EXTRN	__imp__GetTextExtentPoint32A@16:PROC
EXTRN	__imp__GetObjectA@12:PROC
EXTRN	__imp__DrawFrameControl@16:PROC
EXTRN	__imp__GetMessageA@16:PROC
EXTRN	__imp__DispatchMessageA@4:PROC
EXTRN	__imp__GetMessagePos@0:PROC
EXTRN	__imp__SendMessageA@16:PROC
EXTRN	__imp__IsChild@8:PROC
EXTRN	__imp__GetFocus@0:PROC
EXTRN	__imp__GetCapture@0:PROC
EXTRN	__imp__SetCapture@4:PROC
EXTRN	__imp__ReleaseCapture@0:PROC
EXTRN	__imp__SetTimer@16:PROC
EXTRN	__imp__KillTimer@8:PROC
EXTRN	__imp__EnableWindow@8:PROC
EXTRN	__imp__GetSystemMetrics@4:PROC
EXTRN	__imp__DrawTextA@20:PROC
EXTRN	__imp__UpdateWindow@4:PROC
EXTRN	__imp__InvalidateRect@12:PROC
EXTRN	__imp__GetClientRect@8:PROC
EXTRN	__imp__SetCursor@4:PROC
EXTRN	__imp__GetCursor@0:PROC
EXTRN	__imp__ScreenToClient@8:PROC
EXTRN	__imp__GetSysColor@4:PROC
EXTRN	__imp__SetRect@20:PROC
EXTRN	__imp__CopyRect@8:PROC
EXTRN	__imp__InflateRect@12:PROC
EXTRN	__imp__OffsetRect@12:PROC
EXTRN	__imp__PtInRect@12:PROC
EXTRN	__imp__GetParent@4:PROC
EXTRN	__imp__LoadCursorW@8:PROC
EXTRN	__imp__ImageList_Draw@24:PROC
EXTRN	__imp__ImageList_GetImageInfo@12:PROC
EXTRN	?AfxThrowInvalidArgException@@YGXXZ:PROC	; AfxThrowInvalidArgException
EXTRN	__imp_??0?$CStringT@DV?$StrTraitMFC_DLL@DV?$ChTraitsCRT@D@ATL@@@@@ATL@@QAE@XZ:PROC
EXTRN	__imp_??0?$CStringT@DV?$StrTraitMFC_DLL@DV?$ChTraitsCRT@D@ATL@@@@@ATL@@QAE@PBD@Z:PROC
EXTRN	__imp_??1?$CStringT@DV?$StrTraitMFC_DLL@DV?$ChTraitsCRT@D@ATL@@@@@ATL@@QAE@XZ:PROC
EXTRN	__imp_??4?$CStringT@DV?$StrTraitMFC_DLL@DV?$ChTraitsCRT@D@ATL@@@@@ATL@@QAEAAV01@PBD@Z:PROC
EXTRN	__imp_?Format@?$CStringT@DV?$StrTraitMFC_DLL@DV?$ChTraitsCRT@D@ATL@@@@@ATL@@QAAXPBDZZ:PROC
EXTRN	??0CPtrArray@@QAE@XZ:PROC			; CPtrArray::CPtrArray
EXTRN	?SetSize@CPtrArray@@QAEXHH@Z:PROC		; CPtrArray::SetSize
EXTRN	?SetAtGrow@CPtrArray@@QAEXHPAX@Z:PROC		; CPtrArray::SetAtGrow
EXTRN	?InsertAt@CPtrArray@@QAEXHPAXH@Z:PROC		; CPtrArray::InsertAt
EXTRN	?RemoveAt@CPtrArray@@QAEXHH@Z:PROC		; CPtrArray::RemoveAt
EXTRN	??1CPtrArray@@UAE@XZ:PROC			; CPtrArray::~CPtrArray
EXTRN	?AfxGetModuleState@@YGPAVAFX_MODULE_STATE@@XZ:PROC ; AfxGetModuleState
EXTRN	?GetRuntimeClass@CGdiObject@@UBEPAUCRuntimeClass@@XZ:PROC ; CGdiObject::GetRuntimeClass
EXTRN	?Attach@CGdiObject@@QAEHPAX@Z:PROC		; CGdiObject::Attach
EXTRN	?DeleteObject@CGdiObject@@QAEHXZ:PROC		; CGdiObject::DeleteObject
EXTRN	??_ECGdiObject@@UAEPAXI@Z:PROC			; CGdiObject::`vector deleting destructor'
EXTRN	?GetRuntimeClass@CPen@@UBEPAUCRuntimeClass@@XZ:PROC ; CPen::GetRuntimeClass
EXTRN	??0CPen@@QAE@HHK@Z:PROC				; CPen::CPen
EXTRN	??_ECPen@@UAEPAXI@Z:PROC			; CPen::`vector deleting destructor'
EXTRN	?GetRuntimeClass@CFont@@UBEPAUCRuntimeClass@@XZ:PROC ; CFont::GetRuntimeClass
EXTRN	??_ECFont@@UAEPAXI@Z:PROC			; CFont::`vector deleting destructor'
EXTRN	?GetRuntimeClass@CBitmap@@UBEPAUCRuntimeClass@@XZ:PROC ; CBitmap::GetRuntimeClass
EXTRN	??_ECBitmap@@UAEPAXI@Z:PROC			; CBitmap::`vector deleting destructor'
EXTRN	?GetRuntimeClass@CRgn@@UBEPAUCRuntimeClass@@XZ:PROC ; CRgn::GetRuntimeClass
EXTRN	??_ECRgn@@UAEPAXI@Z:PROC			; CRgn::`vector deleting destructor'
EXTRN	?Attach@CDC@@QAEHPAUHDC__@@@Z:PROC		; CDC::Attach
EXTRN	??0CDC@@QAE@XZ:PROC				; CDC::CDC
EXTRN	?SaveDC@CDC@@UAEHXZ:PROC			; CDC::SaveDC
EXTRN	?RestoreDC@CDC@@UAEHH@Z:PROC			; CDC::RestoreDC
EXTRN	?SelectObject@CDC@@QAEPAVCPen@@PAV2@@Z:PROC	; CDC::SelectObject
EXTRN	?SelectObject@CDC@@UAEPAVCFont@@PAV2@@Z:PROC	; CDC::SelectObject
EXTRN	?SetBkMode@CDC@@QAEHH@Z:PROC			; CDC::SetBkMode
EXTRN	?SetTextColor@CDC@@UAEKK@Z:PROC			; CDC::SetTextColor
EXTRN	?SelectClipRgn@CDC@@QAEHPAVCRgn@@@Z:PROC	; CDC::SelectClipRgn
EXTRN	?ExcludeClipRect@CDC@@QAEHPBUtagRECT@@@Z:PROC	; CDC::ExcludeClipRect
EXTRN	?MoveTo@CDC@@QAE?AVCPoint@@HH@Z:PROC		; CDC::MoveTo
EXTRN	?LineTo@CDC@@QAEHHH@Z:PROC			; CDC::LineTo
EXTRN	?FillSolidRect@CDC@@QAEXPBUtagRECT@@K@Z:PROC	; CDC::FillSolidRect
EXTRN	?Draw3dRect@CDC@@QAEXPBUtagRECT@@KK@Z:PROC	; CDC::Draw3dRect
EXTRN	??1CDC@@UAE@XZ:PROC				; CDC::~CDC
EXTRN	?SelectGdiObject@CDC@@KGPAVCGdiObject@@PAUHDC__@@PAX@Z:PROC ; CDC::SelectGdiObject
EXTRN	??0CPaintDC@@QAE@PAVCWnd@@@Z:PROC		; CPaintDC::CPaintDC
EXTRN	??1CPaintDC@@UAE@XZ:PROC			; CPaintDC::~CPaintDC
EXTRN	??0CClientDC@@QAE@PAVCWnd@@@Z:PROC		; CClientDC::CClientDC
EXTRN	??1CClientDC@@UAE@XZ:PROC			; CClientDC::~CClientDC
EXTRN	?OnCmdMsg@CCmdTarget@@UAEHIHPAXPAUAFX_CMDHANDLERINFO@@@Z:PROC ; CCmdTarget::OnCmdMsg
EXTRN	?IsInvokeAllowed@CCmdTarget@@UAEHJ@Z:PROC	; CCmdTarget::IsInvokeAllowed
EXTRN	?GetDispatchIID@CCmdTarget@@UAEHPAU_GUID@@@Z:PROC ; CCmdTarget::GetDispatchIID
EXTRN	?GetTypeInfoCount@CCmdTarget@@UAEIXZ:PROC	; CCmdTarget::GetTypeInfoCount
EXTRN	?GetTypeLibCache@CCmdTarget@@UAEPAVCTypeLibCache@@XZ:PROC ; CCmdTarget::GetTypeLibCache
EXTRN	?GetTypeLib@CCmdTarget@@UAEJKPAPAUITypeLib@@@Z:PROC ; CCmdTarget::GetTypeLib
EXTRN	?GetCommandMap@CCmdTarget@@MBEPBUAFX_OLECMDMAP@@XZ:PROC ; CCmdTarget::GetCommandMap
EXTRN	?GetDispatchMap@CCmdTarget@@MBEPBUAFX_DISPMAP@@XZ:PROC ; CCmdTarget::GetDispatchMap
EXTRN	?GetConnectionMap@CCmdTarget@@MBEPBUAFX_CONNECTIONMAP@@XZ:PROC ; CCmdTarget::GetConnectionMap
EXTRN	?GetEventSinkMap@CCmdTarget@@MBEPBUAFX_EVENTSINKMAP@@XZ:PROC ; CCmdTarget::GetEventSinkMap
EXTRN	?OnCreateAggregates@CCmdTarget@@UAEHXZ:PROC	; CCmdTarget::OnCreateAggregates
EXTRN	?GetInterfaceHook@CCmdTarget@@UAEPAUIUnknown@@PBX@Z:PROC ; CCmdTarget::GetInterfaceHook
EXTRN	?GetExtraConnectionPoints@CCmdTarget@@MAEHPAVCPtrArray@@@Z:PROC ; CCmdTarget::GetExtraConnectionPoints
EXTRN	?GetConnectionHook@CCmdTarget@@MAEPAUIConnectionPoint@@ABU_GUID@@@Z:PROC ; CCmdTarget::GetConnectionHook
EXTRN	?GetThisClass@CWnd@@SGPAUCRuntimeClass@@XZ:PROC	; CWnd::GetThisClass
EXTRN	?ModifyStyleEx@CWnd@@QAEHKKI@Z:PROC		; CWnd::ModifyStyleEx
EXTRN	??0CWnd@@QAE@XZ:PROC				; CWnd::CWnd
EXTRN	?FromHandle@CWnd@@SGPAV1@PAUHWND__@@@Z:PROC	; CWnd::FromHandle
EXTRN	?PreSubclassWindow@CWnd@@UAEXXZ:PROC		; CWnd::PreSubclassWindow
EXTRN	?Create@CWnd@@UAEHPBD0KABUtagRECT@@PAV1@IPAUCCreateContext@@@Z:PROC ; CWnd::Create
EXTRN	?CreateEx@CWnd@@UAEHKPBD0KHHHHPAUHWND__@@PAUHMENU__@@PAX@Z:PROC ; CWnd::CreateEx
EXTRN	?CreateEx@CWnd@@UAEHKPBD0KABUtagRECT@@PAV1@IPAX@Z:PROC ; CWnd::CreateEx
EXTRN	?DestroyWindow@CWnd@@UAEHXZ:PROC		; CWnd::DestroyWindow
EXTRN	?PreCreateWindow@CWnd@@UAEHAAUtagCREATESTRUCTA@@@Z:PROC ; CWnd::PreCreateWindow
EXTRN	?CalcWindowRect@CWnd@@UAEXPAUtagRECT@@I@Z:PROC	; CWnd::CalcWindowRect
EXTRN	?GetMenu@CWnd@@UBEPAVCMenu@@XZ:PROC		; CWnd::GetMenu
EXTRN	?SetMenu@CWnd@@UAEHPAVCMenu@@@Z:PROC		; CWnd::SetMenu
EXTRN	?MoveWindow@CWnd@@QAEXHHHHH@Z:PROC		; CWnd::MoveWindow
EXTRN	?SetWindowPos@CWnd@@QAEHPBV1@HHHHI@Z:PROC	; CWnd::SetWindowPos
EXTRN	?ShowWindow@CWnd@@QAEHH@Z:PROC			; CWnd::ShowWindow
EXTRN	?OnToolHitTest@CWnd@@UBEHVCPoint@@PAUtagTOOLINFOA@@@Z:PROC ; CWnd::OnToolHitTest
EXTRN	?SetFocus@CWnd@@QAEPAV1@XZ:PROC			; CWnd::SetFocus
EXTRN	?GetScrollBarCtrl@CWnd@@UBEPAVCScrollBar@@H@Z:PROC ; CWnd::GetScrollBarCtrl
EXTRN	?WinHelpA@CWnd@@UAEXKI@Z:PROC			; CWnd::WinHelpA
EXTRN	?HtmlHelpA@CWnd@@UAEXKI@Z:PROC			; CWnd::HtmlHelpA
EXTRN	?WinHelpInternal@CWnd@@UAEXKI@Z:PROC		; CWnd::WinHelpInternal
EXTRN	?ContinueModal@CWnd@@UAEHXZ:PROC		; CWnd::ContinueModal
EXTRN	?EndModalLoop@CWnd@@UAEXH@Z:PROC		; CWnd::EndModalLoop
EXTRN	?OnDrawIconicThumbnailOrLivePreview@CWnd@@UAEXAAVCDC@@VCRect@@VCSize@@HAAH@Z:PROC ; CWnd::OnDrawIconicThumbnailOrLivePreview
EXTRN	?GetInterfaceMap@CWnd@@MBEPBUAFX_INTERFACEMAP@@XZ:PROC ; CWnd::GetInterfaceMap
EXTRN	?EnsureStdObj@CWnd@@UAEJXZ:PROC			; CWnd::EnsureStdObj
EXTRN	?get_accParent@CWnd@@UAEJPAPAUIDispatch@@@Z:PROC ; CWnd::get_accParent
EXTRN	?get_accChildCount@CWnd@@UAEJPAJ@Z:PROC		; CWnd::get_accChildCount
EXTRN	?get_accChild@CWnd@@UAEJUtagVARIANT@@PAPAUIDispatch@@@Z:PROC ; CWnd::get_accChild
EXTRN	?get_accName@CWnd@@UAEJUtagVARIANT@@PAPA_W@Z:PROC ; CWnd::get_accName
EXTRN	?get_accValue@CWnd@@UAEJUtagVARIANT@@PAPA_W@Z:PROC ; CWnd::get_accValue
EXTRN	?get_accDescription@CWnd@@UAEJUtagVARIANT@@PAPA_W@Z:PROC ; CWnd::get_accDescription
EXTRN	?get_accRole@CWnd@@UAEJUtagVARIANT@@PAU2@@Z:PROC ; CWnd::get_accRole
EXTRN	?get_accState@CWnd@@UAEJUtagVARIANT@@PAU2@@Z:PROC ; CWnd::get_accState
EXTRN	?get_accHelp@CWnd@@UAEJUtagVARIANT@@PAPA_W@Z:PROC ; CWnd::get_accHelp
EXTRN	?get_accHelpTopic@CWnd@@UAEJPAPA_WUtagVARIANT@@PAJ@Z:PROC ; CWnd::get_accHelpTopic
EXTRN	?get_accKeyboardShortcut@CWnd@@UAEJUtagVARIANT@@PAPA_W@Z:PROC ; CWnd::get_accKeyboardShortcut
EXTRN	?get_accFocus@CWnd@@UAEJPAUtagVARIANT@@@Z:PROC	; CWnd::get_accFocus
EXTRN	?get_accSelection@CWnd@@UAEJPAUtagVARIANT@@@Z:PROC ; CWnd::get_accSelection
EXTRN	?get_accDefaultAction@CWnd@@UAEJUtagVARIANT@@PAPA_W@Z:PROC ; CWnd::get_accDefaultAction
EXTRN	?accSelect@CWnd@@UAEJJUtagVARIANT@@@Z:PROC	; CWnd::accSelect
EXTRN	?accLocation@CWnd@@UAEJPAJ000UtagVARIANT@@@Z:PROC ; CWnd::accLocation
EXTRN	?accNavigate@CWnd@@UAEJJUtagVARIANT@@PAU2@@Z:PROC ; CWnd::accNavigate
EXTRN	?accHitTest@CWnd@@UAEJJJPAUtagVARIANT@@@Z:PROC	; CWnd::accHitTest
EXTRN	?accDoDefaultAction@CWnd@@UAEJUtagVARIANT@@@Z:PROC ; CWnd::accDoDefaultAction
EXTRN	?put_accName@CWnd@@UAEJUtagVARIANT@@PA_W@Z:PROC	; CWnd::put_accName
EXTRN	?put_accValue@CWnd@@UAEJUtagVARIANT@@PA_W@Z:PROC ; CWnd::put_accValue
EXTRN	?SetProxy@CWnd@@UAEJPAUIAccessibleProxy@@@Z:PROC ; CWnd::SetProxy
EXTRN	?CreateAccessibleProxy@CWnd@@UAEJIJPAJ@Z:PROC	; CWnd::CreateAccessibleProxy
EXTRN	?OnCommand@CWnd@@MAEHIJ@Z:PROC			; CWnd::OnCommand
EXTRN	?OnNotify@CWnd@@MAEHIJPAJ@Z:PROC		; CWnd::OnNotify
EXTRN	?OnDestroy@CWnd@@IAEXXZ:PROC			; CWnd::OnDestroy
EXTRN	?GetSuperWndProcAddr@CWnd@@MAEPAP6GJPAUHWND__@@IIJ@ZXZ:PROC ; CWnd::GetSuperWndProcAddr
EXTRN	?PreTranslateMessage@CWnd@@UAEHPAUtagMSG@@@Z:PROC ; CWnd::PreTranslateMessage
EXTRN	?OnAmbientProperty@CWnd@@UAEHPAVCOleControlSite@@JPAUtagVARIANT@@@Z:PROC ; CWnd::OnAmbientProperty
EXTRN	?WindowProc@CWnd@@MAEJIIJ@Z:PROC		; CWnd::WindowProc
EXTRN	?OnWndMsg@CWnd@@MAEHIIJPAJ@Z:PROC		; CWnd::OnWndMsg
EXTRN	?Default@CWnd@@IAEJXZ:PROC			; CWnd::Default
EXTRN	?DefWindowProcA@CWnd@@MAEJIIJ@Z:PROC		; CWnd::DefWindowProcA
EXTRN	?PostNcDestroy@CWnd@@MAEXXZ:PROC		; CWnd::PostNcDestroy
EXTRN	?OnChildNotify@CWnd@@MAEHIIJPAJ@Z:PROC		; CWnd::OnChildNotify
EXTRN	?OnTouchInputs@CWnd@@MAEHIPAUtagTOUCHINPUT@@@Z:PROC ; CWnd::OnTouchInputs
EXTRN	?OnTouchInput@CWnd@@MAEHVCPoint@@HHPAUtagTOUCHINPUT@@@Z:PROC ; CWnd::OnTouchInput
EXTRN	?GetGestureStatus@CWnd@@MAEKVCPoint@@@Z:PROC	; CWnd::GetGestureStatus
EXTRN	?OnGestureZoom@CWnd@@MAEHVCPoint@@J@Z:PROC	; CWnd::OnGestureZoom
EXTRN	?OnGesturePan@CWnd@@MAEHVCPoint@@0@Z:PROC	; CWnd::OnGesturePan
EXTRN	?OnGestureRotate@CWnd@@MAEHVCPoint@@N@Z:PROC	; CWnd::OnGestureRotate
EXTRN	?OnGestureTwoFingerTap@CWnd@@MAEHVCPoint@@@Z:PROC ; CWnd::OnGestureTwoFingerTap
EXTRN	?OnGesturePressAndTap@CWnd@@MAEHVCPoint@@J@Z:PROC ; CWnd::OnGesturePressAndTap
EXTRN	?ResizeDynamicLayout@CWnd@@MAEXXZ:PROC		; CWnd::ResizeDynamicLayout
EXTRN	??1CWnd@@UAE@XZ:PROC				; CWnd::~CWnd
EXTRN	?CheckAutoCenter@CWnd@@UAEHXZ:PROC		; CWnd::CheckAutoCenter
EXTRN	?IsFrameWnd@CWnd@@UBEHXZ:PROC			; CWnd::IsFrameWnd
EXTRN	?OnFinalRelease@CWnd@@UAEXXZ:PROC		; CWnd::OnFinalRelease
EXTRN	?CreateControlContainer@CWnd@@MAEHPAPAVCOleControlContainer@@@Z:PROC ; CWnd::CreateControlContainer
EXTRN	?CreateControlSite@CWnd@@MAEHPAVCOleControlContainer@@PAPAVCOleControlSite@@IABU_GUID@@@Z:PROC ; CWnd::CreateControlSite
EXTRN	?SetOccDialogInfo@CWnd@@MAEHPAU_AFX_OCC_DIALOG_INFO@@@Z:PROC ; CWnd::SetOccDialogInfo
EXTRN	?GetOccDialogInfo@CWnd@@MAEPAU_AFX_OCC_DIALOG_INFO@@XZ:PROC ; CWnd::GetOccDialogInfo
EXTRN	?GetThisMessageMap@CWnd@@KGPBUAFX_MSGMAP@@XZ:PROC ; CWnd::GetThisMessageMap
EXTRN	?AfxFindResourceHandle@@YGPAUHINSTANCE__@@PBD0@Z:PROC ; AfxFindResourceHandle
EXTRN	?AfxMessageBox@@YGHPBDII@Z:PROC			; AfxMessageBox
EXTRN	?AfxLockTempMaps@@YGXXZ:PROC			; AfxLockTempMaps
EXTRN	?AfxUnlockTempMaps@@YGHH@Z:PROC			; AfxUnlockTempMaps
EXTRN	??_ECBarItem@CGfxOutBarCtrl@@UAEPAXI@Z:PROC	; CGfxOutBarCtrl::CBarItem::`vector deleting destructor'
EXTRN	??_ECBarFolder@CGfxOutBarCtrl@@UAEPAXI@Z:PROC	; CGfxOutBarCtrl::CBarFolder::`vector deleting destructor'
EXTRN	??_ECGfxOutBarCtrl@@UAEPAXI@Z:PROC		; CGfxOutBarCtrl::`vector deleting destructor'
EXTRN	@__security_check_cookie@4:PROC
EXTRN	___CxxFrameHandler3:PROC
EXTRN	_memset:PROC
EXTRN	??_7type_info@@6B@:QWORD			; type_info::`vftable'
EXTRN	?g_hInstance@@3PAUHINSTANCE__@@A:DWORD		; g_hInstance
EXTRN	___security_cookie:DWORD
;	COMDAT ?bOldPressed@?1??HighlightItem@CGfxOutBarCtrl@@QAEXH_N@Z@4_NA
_BSS	SEGMENT
?bOldPressed@?1??HighlightItem@CGfxOutBarCtrl@@QAEXH_N@Z@4_NA DB 01H DUP (?) ; `CGfxOutBarCtrl::HighlightItem'::`2'::bOldPressed
_BSS	ENDS
;	COMDAT __xmm@00000190000000000000000000000000
CONST	SEGMENT
__xmm@00000190000000000000000000000000 DB 00H, 00H, 00H, 00H, 00H, 00H, 00H
	DB	00H, 00H, 00H, 00H, 00H, 090H, 01H, 00H, 00H
CONST	ENDS
;	COMDAT ??_R1A@?0A@EA@CBarFolder@CGfxOutBarCtrl@@8
rdata$r	SEGMENT
??_R1A@?0A@EA@CBarFolder@CGfxOutBarCtrl@@8 DD FLAT:??_R0?AVCBarFolder@CGfxOutBarCtrl@@@8 ; CGfxOutBarCtrl::CBarFolder::`RTTI Base Class Descriptor at (0,-1,0,64)'
	DD	00H
	DD	00H
	DD	0ffffffffH
	DD	00H
	DD	040H
	DD	FLAT:??_R3CBarFolder@CGfxOutBarCtrl@@8
rdata$r	ENDS
;	COMDAT ??_R2CBarFolder@CGfxOutBarCtrl@@8
rdata$r	SEGMENT
??_R2CBarFolder@CGfxOutBarCtrl@@8 DD FLAT:??_R1A@?0A@EA@CBarFolder@CGfxOutBarCtrl@@8 ; CGfxOutBarCtrl::CBarFolder::`RTTI Base Class Array'
rdata$r	ENDS
;	COMDAT ??_R3CBarFolder@CGfxOutBarCtrl@@8
rdata$r	SEGMENT
??_R3CBarFolder@CGfxOutBarCtrl@@8 DD 00H		; CGfxOutBarCtrl::CBarFolder::`RTTI Class Hierarchy Descriptor'
	DD	00H
	DD	01H
	DD	FLAT:??_R2CBarFolder@CGfxOutBarCtrl@@8
rdata$r	ENDS
;	COMDAT ??_R0?AVCBarFolder@CGfxOutBarCtrl@@@8
data$rs	SEGMENT
??_R0?AVCBarFolder@CGfxOutBarCtrl@@@8 DD FLAT:??_7type_info@@6B@ ; CGfxOutBarCtrl::CBarFolder `RTTI Type Descriptor'
	DD	00H
	DB	'.?AVCBarFolder@CGfxOutBarCtrl@@', 00H
data$rs	ENDS
;	COMDAT ??_R4CBarFolder@CGfxOutBarCtrl@@6B@
rdata$r	SEGMENT
??_R4CBarFolder@CGfxOutBarCtrl@@6B@ DD 00H		; CGfxOutBarCtrl::CBarFolder::`RTTI Complete Object Locator'
	DD	00H
	DD	00H
	DD	FLAT:??_R0?AVCBarFolder@CGfxOutBarCtrl@@@8
	DD	FLAT:??_R3CBarFolder@CGfxOutBarCtrl@@8
rdata$r	ENDS
;	COMDAT ??_R1A@?0A@EA@CBarItem@CGfxOutBarCtrl@@8
rdata$r	SEGMENT
??_R1A@?0A@EA@CBarItem@CGfxOutBarCtrl@@8 DD FLAT:??_R0?AVCBarItem@CGfxOutBarCtrl@@@8 ; CGfxOutBarCtrl::CBarItem::`RTTI Base Class Descriptor at (0,-1,0,64)'
	DD	00H
	DD	00H
	DD	0ffffffffH
	DD	00H
	DD	040H
	DD	FLAT:??_R3CBarItem@CGfxOutBarCtrl@@8
rdata$r	ENDS
;	COMDAT ??_R2CBarItem@CGfxOutBarCtrl@@8
rdata$r	SEGMENT
??_R2CBarItem@CGfxOutBarCtrl@@8 DD FLAT:??_R1A@?0A@EA@CBarItem@CGfxOutBarCtrl@@8 ; CGfxOutBarCtrl::CBarItem::`RTTI Base Class Array'
rdata$r	ENDS
;	COMDAT ??_R3CBarItem@CGfxOutBarCtrl@@8
rdata$r	SEGMENT
??_R3CBarItem@CGfxOutBarCtrl@@8 DD 00H			; CGfxOutBarCtrl::CBarItem::`RTTI Class Hierarchy Descriptor'
	DD	00H
	DD	01H
	DD	FLAT:??_R2CBarItem@CGfxOutBarCtrl@@8
rdata$r	ENDS
;	COMDAT ??_R0?AVCBarItem@CGfxOutBarCtrl@@@8
data$rs	SEGMENT
??_R0?AVCBarItem@CGfxOutBarCtrl@@@8 DD FLAT:??_7type_info@@6B@ ; CGfxOutBarCtrl::CBarItem `RTTI Type Descriptor'
	DD	00H
	DB	'.?AVCBarItem@CGfxOutBarCtrl@@', 00H
data$rs	ENDS
;	COMDAT ??_R4CBarItem@CGfxOutBarCtrl@@6B@
rdata$r	SEGMENT
??_R4CBarItem@CGfxOutBarCtrl@@6B@ DD 00H		; CGfxOutBarCtrl::CBarItem::`RTTI Complete Object Locator'
	DD	00H
	DD	00H
	DD	FLAT:??_R0?AVCBarItem@CGfxOutBarCtrl@@@8
	DD	FLAT:??_R3CBarItem@CGfxOutBarCtrl@@8
rdata$r	ENDS
;	COMDAT ??_R1A@?0A@EA@CGfxOutBarCtrl@@8
rdata$r	SEGMENT
??_R1A@?0A@EA@CGfxOutBarCtrl@@8 DD FLAT:??_R0?AVCGfxOutBarCtrl@@@8 ; CGfxOutBarCtrl::`RTTI Base Class Descriptor at (0,-1,0,64)'
	DD	03H
	DD	00H
	DD	0ffffffffH
	DD	00H
	DD	040H
	DD	FLAT:??_R3CGfxOutBarCtrl@@8
rdata$r	ENDS
;	COMDAT ??_R2CGfxOutBarCtrl@@8
rdata$r	SEGMENT
??_R2CGfxOutBarCtrl@@8 DD FLAT:??_R1A@?0A@EA@CGfxOutBarCtrl@@8 ; CGfxOutBarCtrl::`RTTI Base Class Array'
	DD	FLAT:??_R1A@?0A@EA@CWnd@@8
	DD	FLAT:??_R1A@?0A@EA@CCmdTarget@@8
	DD	FLAT:??_R1A@?0A@EA@CObject@@8
rdata$r	ENDS
;	COMDAT ??_R3CGfxOutBarCtrl@@8
rdata$r	SEGMENT
??_R3CGfxOutBarCtrl@@8 DD 00H				; CGfxOutBarCtrl::`RTTI Class Hierarchy Descriptor'
	DD	00H
	DD	04H
	DD	FLAT:??_R2CGfxOutBarCtrl@@8
rdata$r	ENDS
;	COMDAT ??_R0?AVCGfxOutBarCtrl@@@8
data$rs	SEGMENT
??_R0?AVCGfxOutBarCtrl@@@8 DD FLAT:??_7type_info@@6B@	; CGfxOutBarCtrl `RTTI Type Descriptor'
	DD	00H
	DB	'.?AVCGfxOutBarCtrl@@', 00H
data$rs	ENDS
;	COMDAT ??_R4CGfxOutBarCtrl@@6B@
rdata$r	SEGMENT
??_R4CGfxOutBarCtrl@@6B@ DD 00H				; CGfxOutBarCtrl::`RTTI Complete Object Locator'
	DD	00H
	DD	00H
	DD	FLAT:??_R0?AVCGfxOutBarCtrl@@@8
	DD	FLAT:??_R3CGfxOutBarCtrl@@8
rdata$r	ENDS
;	COMDAT ??_C@_06MFMMLLPC@?$LB?$LM?$LI?$LC?C?$LM@
CONST	SEGMENT
??_C@_06MFMMLLPC@?$LB?$LM?$LI?$LC?C?$LM@ DB 0b1H, 0bcH, 0b8H, 0b2H, 0c3H, 0bcH
	DB	00H						; `string'
CONST	ENDS
;	COMDAT ?messageMap@?1??GetThisMessageMap@CGfxOutBarCtrl@@KGPBUAFX_MSGMAP@@XZ@4U3@B
CONST	SEGMENT
?messageMap@?1??GetThisMessageMap@CGfxOutBarCtrl@@KGPBUAFX_MSGMAP@@XZ@4U3@B DD FLAT:?GetThisMessageMap@CWnd@@KGPBUAFX_MSGMAP@@XZ ; `CGfxOutBarCtrl::GetThisMessageMap'::`2'::messageMap
	DD	FLAT:?_messageEntries@?1??GetThisMessageMap@CGfxOutBarCtrl@@KGPBUAFX_MSGMAP@@XZ@4QBUAFX_MSGMAP_ENTRY@@B
CONST	ENDS
;	COMDAT ?_messageEntries@?1??GetThisMessageMap@CGfxOutBarCtrl@@KGPBUAFX_MSGMAP@@XZ@4QBUAFX_MSGMAP_ENTRY@@B
CONST	SEGMENT
?_messageEntries@?1??GetThisMessageMap@CGfxOutBarCtrl@@KGPBUAFX_MSGMAP@@XZ@4QBUAFX_MSGMAP_ENTRY@@B DD 01H ; `CGfxOutBarCtrl::GetThisMessageMap'::`2'::_messageEntries
	DD	00H
	DD	00H
	DD	00H
	DD	0dH
	DD	FLAT:?OnCreate@CGfxOutBarCtrl@@IAEHPAUtagCREATESTRUCTA@@@Z
	DD	0113H
	DD	00H
	DD	00H
	DD	00H
	DD	015H
	DD	FLAT:?OnTimer@CGfxOutBarCtrl@@IAEXI@Z
	DD	0fH
	DD	00H
	DD	00H
	DD	00H
	DD	013H
	DD	FLAT:?OnPaint@CGfxOutBarCtrl@@IAEXXZ
	DD	014H
	DD	00H
	DD	00H
	DD	00H
	DD	01H
	DD	FLAT:?OnEraseBkgnd@CGfxOutBarCtrl@@IAEHPAVCDC@@@Z
	DD	0200H
	DD	00H
	DD	00H
	DD	00H
	DD	036H
	DD	FLAT:?OnMouseMove@CGfxOutBarCtrl@@IAEXIVCPoint@@@Z
	DD	0201H
	DD	00H
	DD	00H
	DD	00H
	DD	036H
	DD	FLAT:?OnLButtonDown@CGfxOutBarCtrl@@IAEXIVCPoint@@@Z
	DD	020H
	DD	00H
	DD	00H
	DD	00H
	DD	05H
	DD	FLAT:?OnSetCursor@CGfxOutBarCtrl@@IAEHPAVCWnd@@II@Z
	DD	05H
	DD	00H
	DD	00H
	DD	00H
	DD	01aH
	DD	FLAT:?OnSize@CGfxOutBarCtrl@@IAEXIHH@Z
	DD	0111H
	DD	00H
	DD	0c351H
	DD	0c351H
	DD	03aH
	DD	FLAT:?OnGfxLargeicon@CGfxOutBarCtrl@@IAEXXZ
	DD	0111H
	DD	0ffffffffH
	DD	0c351H
	DD	0c351H
	DD	042H
	DD	FLAT:?OnUpdateGfxLargeicon@CGfxOutBarCtrl@@IAEXPAVCCmdUI@@@Z
	DD	0111H
	DD	00H
	DD	0c350H
	DD	0c350H
	DD	03aH
	DD	FLAT:?OnGfxSmallicon@CGfxOutBarCtrl@@IAEXXZ
	DD	0111H
	DD	0ffffffffH
	DD	0c350H
	DD	0c350H
	DD	042H
	DD	FLAT:?OnUpdateGfxSmallicon@CGfxOutBarCtrl@@IAEXPAVCCmdUI@@@Z
	DD	0111H
	DD	00H
	DD	0c353H
	DD	0c353H
	DD	03aH
	DD	FLAT:?OnGfxRemoveitem@CGfxOutBarCtrl@@IAEXXZ
	DD	0111H
	DD	0ffffffffH
	DD	0c353H
	DD	0c353H
	DD	042H
	DD	FLAT:?OnUpdateGfxRemoveitem@CGfxOutBarCtrl@@IAEXPAVCCmdUI@@@Z
	DD	0111H
	DD	0ffffffffH
	DD	0c352H
	DD	0c352H
	DD	042H
	DD	FLAT:?OnUpdateGfxRenameitem@CGfxOutBarCtrl@@IAEXPAVCCmdUI@@@Z
	DD	02H
	DD	00H
	DD	00H
	DD	00H
	DD	013H
	DD	FLAT:?OnDestroy@CGfxOutBarCtrl@@IAEXXZ
	DD	0204H
	DD	00H
	DD	00H
	DD	00H
	DD	036H
	DD	FLAT:?OnRButtonDown@CWnd@@IAEXIVCPoint@@@Z
	DD	0203H
	DD	00H
	DD	00H
	DD	00H
	DD	036H
	DD	FLAT:?OnLButtonDblClk@CGfxOutBarCtrl@@IAEXIVCPoint@@@Z
	DD	00H
	DD	00H
	DD	00H
	DD	00H
	DD	00H
	DD	00H
CONST	ENDS
;	COMDAT ??_C@_0P@MGLBNAEE@CGfxOutBarCtrl@
CONST	SEGMENT
??_C@_0P@MGLBNAEE@CGfxOutBarCtrl@ DB 'CGfxOutBarCtrl', 00H ; `string'
CONST	ENDS
;	COMDAT ??_7CGfxOutBarCtrl@@6B@
CONST	SEGMENT
??_7CGfxOutBarCtrl@@6B@ DD FLAT:??_R4CGfxOutBarCtrl@@6B@ ; CGfxOutBarCtrl::`vftable'
	DD	FLAT:?GetRuntimeClass@CGfxOutBarCtrl@@UBEPAUCRuntimeClass@@XZ
	DD	FLAT:??_ECGfxOutBarCtrl@@UAEPAXI@Z
	DD	FLAT:?Serialize@CObject@@UAEXAAVCArchive@@@Z
	DD	FLAT:?AssertValid@CObject@@UBEXXZ
	DD	FLAT:?Dump@CObject@@UBEXAAVCDumpContext@@@Z
	DD	FLAT:?OnCmdMsg@CCmdTarget@@UAEHIHPAXPAUAFX_CMDHANDLERINFO@@@Z
	DD	FLAT:?OnFinalRelease@CWnd@@UAEXXZ
	DD	FLAT:?IsInvokeAllowed@CCmdTarget@@UAEHJ@Z
	DD	FLAT:?GetDispatchIID@CCmdTarget@@UAEHPAU_GUID@@@Z
	DD	FLAT:?GetTypeInfoCount@CCmdTarget@@UAEIXZ
	DD	FLAT:?GetTypeLibCache@CCmdTarget@@UAEPAVCTypeLibCache@@XZ
	DD	FLAT:?GetTypeLib@CCmdTarget@@UAEJKPAPAUITypeLib@@@Z
	DD	FLAT:?GetMessageMap@CGfxOutBarCtrl@@MBEPBUAFX_MSGMAP@@XZ
	DD	FLAT:?GetCommandMap@CCmdTarget@@MBEPBUAFX_OLECMDMAP@@XZ
	DD	FLAT:?GetDispatchMap@CCmdTarget@@MBEPBUAFX_DISPMAP@@XZ
	DD	FLAT:?GetConnectionMap@CCmdTarget@@MBEPBUAFX_CONNECTIONMAP@@XZ
	DD	FLAT:?GetInterfaceMap@CWnd@@MBEPBUAFX_INTERFACEMAP@@XZ
	DD	FLAT:?GetEventSinkMap@CCmdTarget@@MBEPBUAFX_EVENTSINKMAP@@XZ
	DD	FLAT:?OnCreateAggregates@CCmdTarget@@UAEHXZ
	DD	FLAT:?GetInterfaceHook@CCmdTarget@@UAEPAUIUnknown@@PBX@Z
	DD	FLAT:?GetExtraConnectionPoints@CCmdTarget@@MAEHPAVCPtrArray@@@Z
	DD	FLAT:?GetConnectionHook@CCmdTarget@@MAEPAUIConnectionPoint@@ABU_GUID@@@Z
	DD	FLAT:?PreSubclassWindow@CWnd@@UAEXXZ
	DD	FLAT:?Create@CWnd@@UAEHPBD0KABUtagRECT@@PAV1@IPAUCCreateContext@@@Z
	DD	FLAT:?CreateEx@CWnd@@UAEHKPBD0KABUtagRECT@@PAV1@IPAX@Z
	DD	FLAT:?CreateEx@CWnd@@UAEHKPBD0KHHHHPAUHWND__@@PAUHMENU__@@PAX@Z
	DD	FLAT:?DestroyWindow@CWnd@@UAEHXZ
	DD	FLAT:?PreCreateWindow@CWnd@@UAEHAAUtagCREATESTRUCTA@@@Z
	DD	FLAT:?CalcWindowRect@CWnd@@UAEXPAUtagRECT@@I@Z
	DD	FLAT:?GetMenu@CWnd@@UBEPAVCMenu@@XZ
	DD	FLAT:?SetMenu@CWnd@@UAEHPAVCMenu@@@Z
	DD	FLAT:?OnToolHitTest@CWnd@@UBEHVCPoint@@PAUtagTOOLINFOA@@@Z
	DD	FLAT:?GetScrollBarCtrl@CWnd@@UBEPAVCScrollBar@@H@Z
	DD	FLAT:?WinHelpA@CWnd@@UAEXKI@Z
	DD	FLAT:?HtmlHelpA@CWnd@@UAEXKI@Z
	DD	FLAT:?WinHelpInternal@CWnd@@UAEXKI@Z
	DD	FLAT:?ContinueModal@CWnd@@UAEHXZ
	DD	FLAT:?EndModalLoop@CWnd@@UAEXH@Z
	DD	FLAT:?OnDrawIconicThumbnailOrLivePreview@CWnd@@UAEXAAVCDC@@VCRect@@VCSize@@HAAH@Z
	DD	FLAT:?EnsureStdObj@CWnd@@UAEJXZ
	DD	FLAT:?get_accParent@CWnd@@UAEJPAPAUIDispatch@@@Z
	DD	FLAT:?get_accChildCount@CWnd@@UAEJPAJ@Z
	DD	FLAT:?get_accChild@CWnd@@UAEJUtagVARIANT@@PAPAUIDispatch@@@Z
	DD	FLAT:?get_accName@CWnd@@UAEJUtagVARIANT@@PAPA_W@Z
	DD	FLAT:?get_accValue@CWnd@@UAEJUtagVARIANT@@PAPA_W@Z
	DD	FLAT:?get_accDescription@CWnd@@UAEJUtagVARIANT@@PAPA_W@Z
	DD	FLAT:?get_accRole@CWnd@@UAEJUtagVARIANT@@PAU2@@Z
	DD	FLAT:?get_accState@CWnd@@UAEJUtagVARIANT@@PAU2@@Z
	DD	FLAT:?get_accHelp@CWnd@@UAEJUtagVARIANT@@PAPA_W@Z
	DD	FLAT:?get_accHelpTopic@CWnd@@UAEJPAPA_WUtagVARIANT@@PAJ@Z
	DD	FLAT:?get_accKeyboardShortcut@CWnd@@UAEJUtagVARIANT@@PAPA_W@Z
	DD	FLAT:?get_accFocus@CWnd@@UAEJPAUtagVARIANT@@@Z
	DD	FLAT:?get_accSelection@CWnd@@UAEJPAUtagVARIANT@@@Z
	DD	FLAT:?get_accDefaultAction@CWnd@@UAEJUtagVARIANT@@PAPA_W@Z
	DD	FLAT:?accSelect@CWnd@@UAEJJUtagVARIANT@@@Z
	DD	FLAT:?accLocation@CWnd@@UAEJPAJ000UtagVARIANT@@@Z
	DD	FLAT:?accNavigate@CWnd@@UAEJJUtagVARIANT@@PAU2@@Z
	DD	FLAT:?accHitTest@CWnd@@UAEJJJPAUtagVARIANT@@@Z
	DD	FLAT:?accDoDefaultAction@CWnd@@UAEJUtagVARIANT@@@Z
	DD	FLAT:?put_accName@CWnd@@UAEJUtagVARIANT@@PA_W@Z
	DD	FLAT:?put_accValue@CWnd@@UAEJUtagVARIANT@@PA_W@Z
	DD	FLAT:?SetProxy@CWnd@@UAEJPAUIAccessibleProxy@@@Z
	DD	FLAT:?CreateAccessibleProxy@CWnd@@UAEJIJPAJ@Z
	DD	FLAT:?OnCommand@CWnd@@MAEHIJ@Z
	DD	FLAT:?OnNotify@CWnd@@MAEHIJPAJ@Z
	DD	FLAT:?GetSuperWndProcAddr@CWnd@@MAEPAP6GJPAUHWND__@@IIJ@ZXZ
	DD	FLAT:?DoDataExchange@CWnd@@MAEXPAVCDataExchange@@@Z
	DD	FLAT:?BeginModalState@CWnd@@UAEXXZ
	DD	FLAT:?EndModalState@CWnd@@UAEXXZ
	DD	FLAT:?PreTranslateMessage@CWnd@@UAEHPAUtagMSG@@@Z
	DD	FLAT:?OnAmbientProperty@CWnd@@UAEHPAVCOleControlSite@@JPAUtagVARIANT@@@Z
	DD	FLAT:?WindowProc@CWnd@@MAEJIIJ@Z
	DD	FLAT:?OnWndMsg@CWnd@@MAEHIIJPAJ@Z
	DD	FLAT:?DefWindowProcA@CWnd@@MAEJIIJ@Z
	DD	FLAT:?PostNcDestroy@CWnd@@MAEXXZ
	DD	FLAT:?OnChildNotify@CWnd@@MAEHIIJPAJ@Z
	DD	FLAT:?OnTouchInputs@CWnd@@MAEHIPAUtagTOUCHINPUT@@@Z
	DD	FLAT:?OnTouchInput@CWnd@@MAEHVCPoint@@HHPAUtagTOUCHINPUT@@@Z
	DD	FLAT:?GetGestureStatus@CWnd@@MAEKVCPoint@@@Z
	DD	FLAT:?OnGestureZoom@CWnd@@MAEHVCPoint@@J@Z
	DD	FLAT:?OnGesturePan@CWnd@@MAEHVCPoint@@0@Z
	DD	FLAT:?OnGestureRotate@CWnd@@MAEHVCPoint@@N@Z
	DD	FLAT:?OnGestureTwoFingerTap@CWnd@@MAEHVCPoint@@@Z
	DD	FLAT:?OnGesturePressAndTap@CWnd@@MAEHVCPoint@@J@Z
	DD	FLAT:?ResizeDynamicLayout@CWnd@@MAEXXZ
	DD	FLAT:?CheckAutoCenter@CWnd@@UAEHXZ
	DD	FLAT:?IsFrameWnd@CWnd@@UBEHXZ
	DD	FLAT:?CreateControlContainer@CWnd@@MAEHPAPAVCOleControlContainer@@@Z
	DD	FLAT:?CreateControlSite@CWnd@@MAEHPAVCOleControlContainer@@PAPAVCOleControlSite@@IABU_GUID@@@Z
	DD	FLAT:?SetOccDialogInfo@CWnd@@MAEHPAU_AFX_OCC_DIALOG_INFO@@@Z
	DD	FLAT:?GetOccDialogInfo@CWnd@@MAEPAU_AFX_OCC_DIALOG_INFO@@XZ
CONST	ENDS
;	COMDAT ??_7CBarFolder@CGfxOutBarCtrl@@6B@
CONST	SEGMENT
??_7CBarFolder@CGfxOutBarCtrl@@6B@ DD FLAT:??_R4CBarFolder@CGfxOutBarCtrl@@6B@ ; CGfxOutBarCtrl::CBarFolder::`vftable'
	DD	FLAT:??_ECBarFolder@CGfxOutBarCtrl@@UAEPAXI@Z
CONST	ENDS
;	COMDAT ??_7CBarItem@CGfxOutBarCtrl@@6B@
CONST	SEGMENT
??_7CBarItem@CGfxOutBarCtrl@@6B@ DD FLAT:??_R4CBarItem@CGfxOutBarCtrl@@6B@ ; CGfxOutBarCtrl::CBarItem::`vftable'
	DD	FLAT:??_ECBarItem@CGfxOutBarCtrl@@UAEPAXI@Z
CONST	ENDS
;	COMDAT ?classCGfxOutBarCtrl@CGfxOutBarCtrl@@2UCRuntimeClass@@B
CONST	SEGMENT
?classCGfxOutBarCtrl@CGfxOutBarCtrl@@2UCRuntimeClass@@B DD FLAT:??_C@_0P@MGLBNAEE@CGfxOutBarCtrl@ ; CGfxOutBarCtrl::classCGfxOutBarCtrl
	DD	0170H
	DD	0ffffH
	DD	FLAT:?CreateObject@CGfxOutBarCtrl@@SGPAVCObject@@XZ
	DD	FLAT:?_GetBaseClass@CGfxOutBarCtrl@@KGPAUCRuntimeClass@@XZ
	DD	00H
	DD	00H
CONST	ENDS
;	COMDAT ??_R2CCmdTarget@@8
rdata$r	SEGMENT
??_R2CCmdTarget@@8 DD FLAT:??_R1A@?0A@EA@CCmdTarget@@8	; CCmdTarget::`RTTI Base Class Array'
	DD	FLAT:??_R1A@?0A@EA@CObject@@8
rdata$r	ENDS
;	COMDAT ??_R3CCmdTarget@@8
rdata$r	SEGMENT
??_R3CCmdTarget@@8 DD 00H				; CCmdTarget::`RTTI Class Hierarchy Descriptor'
	DD	00H
	DD	02H
	DD	FLAT:??_R2CCmdTarget@@8
rdata$r	ENDS
;	COMDAT ??_R0?AVCCmdTarget@@@8
data$rs	SEGMENT
??_R0?AVCCmdTarget@@@8 DD FLAT:??_7type_info@@6B@	; CCmdTarget `RTTI Type Descriptor'
	DD	00H
	DB	'.?AVCCmdTarget@@', 00H
data$rs	ENDS
;	COMDAT ??_R1A@?0A@EA@CCmdTarget@@8
rdata$r	SEGMENT
??_R1A@?0A@EA@CCmdTarget@@8 DD FLAT:??_R0?AVCCmdTarget@@@8 ; CCmdTarget::`RTTI Base Class Descriptor at (0,-1,0,64)'
	DD	01H
	DD	00H
	DD	0ffffffffH
	DD	00H
	DD	040H
	DD	FLAT:??_R3CCmdTarget@@8
rdata$r	ENDS
;	COMDAT ??_R2CWnd@@8
rdata$r	SEGMENT
??_R2CWnd@@8 DD	FLAT:??_R1A@?0A@EA@CWnd@@8		; CWnd::`RTTI Base Class Array'
	DD	FLAT:??_R1A@?0A@EA@CCmdTarget@@8
	DD	FLAT:??_R1A@?0A@EA@CObject@@8
rdata$r	ENDS
;	COMDAT ??_R3CWnd@@8
rdata$r	SEGMENT
??_R3CWnd@@8 DD	00H					; CWnd::`RTTI Class Hierarchy Descriptor'
	DD	00H
	DD	03H
	DD	FLAT:??_R2CWnd@@8
rdata$r	ENDS
;	COMDAT ??_R0?AVCWnd@@@8
data$rs	SEGMENT
??_R0?AVCWnd@@@8 DD FLAT:??_7type_info@@6B@		; CWnd `RTTI Type Descriptor'
	DD	00H
	DB	'.?AVCWnd@@', 00H
data$rs	ENDS
;	COMDAT ??_R1A@?0A@EA@CWnd@@8
rdata$r	SEGMENT
??_R1A@?0A@EA@CWnd@@8 DD FLAT:??_R0?AVCWnd@@@8		; CWnd::`RTTI Base Class Descriptor at (0,-1,0,64)'
	DD	02H
	DD	00H
	DD	0ffffffffH
	DD	00H
	DD	040H
	DD	FLAT:??_R3CWnd@@8
rdata$r	ENDS
;	COMDAT ??_R1A@?0A@EA@CRgn@@8
rdata$r	SEGMENT
??_R1A@?0A@EA@CRgn@@8 DD FLAT:??_R0?AVCRgn@@@8		; CRgn::`RTTI Base Class Descriptor at (0,-1,0,64)'
	DD	02H
	DD	00H
	DD	0ffffffffH
	DD	00H
	DD	040H
	DD	FLAT:??_R3CRgn@@8
rdata$r	ENDS
;	COMDAT ??_R2CRgn@@8
rdata$r	SEGMENT
??_R2CRgn@@8 DD	FLAT:??_R1A@?0A@EA@CRgn@@8		; CRgn::`RTTI Base Class Array'
	DD	FLAT:??_R1A@?0A@EA@CGdiObject@@8
	DD	FLAT:??_R1A@?0A@EA@CObject@@8
rdata$r	ENDS
;	COMDAT ??_R3CRgn@@8
rdata$r	SEGMENT
??_R3CRgn@@8 DD	00H					; CRgn::`RTTI Class Hierarchy Descriptor'
	DD	00H
	DD	03H
	DD	FLAT:??_R2CRgn@@8
rdata$r	ENDS
;	COMDAT ??_R0?AVCRgn@@@8
data$rs	SEGMENT
??_R0?AVCRgn@@@8 DD FLAT:??_7type_info@@6B@		; CRgn `RTTI Type Descriptor'
	DD	00H
	DB	'.?AVCRgn@@', 00H
data$rs	ENDS
;	COMDAT ??_R4CRgn@@6B@
rdata$r	SEGMENT
??_R4CRgn@@6B@ DD 00H					; CRgn::`RTTI Complete Object Locator'
	DD	00H
	DD	00H
	DD	FLAT:??_R0?AVCRgn@@@8
	DD	FLAT:??_R3CRgn@@8
rdata$r	ENDS
;	COMDAT ??_R1A@?0A@EA@CBitmap@@8
rdata$r	SEGMENT
??_R1A@?0A@EA@CBitmap@@8 DD FLAT:??_R0?AVCBitmap@@@8	; CBitmap::`RTTI Base Class Descriptor at (0,-1,0,64)'
	DD	02H
	DD	00H
	DD	0ffffffffH
	DD	00H
	DD	040H
	DD	FLAT:??_R3CBitmap@@8
rdata$r	ENDS
;	COMDAT ??_R2CBitmap@@8
rdata$r	SEGMENT
??_R2CBitmap@@8 DD FLAT:??_R1A@?0A@EA@CBitmap@@8	; CBitmap::`RTTI Base Class Array'
	DD	FLAT:??_R1A@?0A@EA@CGdiObject@@8
	DD	FLAT:??_R1A@?0A@EA@CObject@@8
rdata$r	ENDS
;	COMDAT ??_R3CBitmap@@8
rdata$r	SEGMENT
??_R3CBitmap@@8 DD 00H					; CBitmap::`RTTI Class Hierarchy Descriptor'
	DD	00H
	DD	03H
	DD	FLAT:??_R2CBitmap@@8
rdata$r	ENDS
;	COMDAT ??_R0?AVCBitmap@@@8
data$rs	SEGMENT
??_R0?AVCBitmap@@@8 DD FLAT:??_7type_info@@6B@		; CBitmap `RTTI Type Descriptor'
	DD	00H
	DB	'.?AVCBitmap@@', 00H
data$rs	ENDS
;	COMDAT ??_R4CBitmap@@6B@
rdata$r	SEGMENT
??_R4CBitmap@@6B@ DD 00H				; CBitmap::`RTTI Complete Object Locator'
	DD	00H
	DD	00H
	DD	FLAT:??_R0?AVCBitmap@@@8
	DD	FLAT:??_R3CBitmap@@8
rdata$r	ENDS
;	COMDAT ??_R1A@?0A@EA@CFont@@8
rdata$r	SEGMENT
??_R1A@?0A@EA@CFont@@8 DD FLAT:??_R0?AVCFont@@@8	; CFont::`RTTI Base Class Descriptor at (0,-1,0,64)'
	DD	02H
	DD	00H
	DD	0ffffffffH
	DD	00H
	DD	040H
	DD	FLAT:??_R3CFont@@8
rdata$r	ENDS
;	COMDAT ??_R2CFont@@8
rdata$r	SEGMENT
??_R2CFont@@8 DD FLAT:??_R1A@?0A@EA@CFont@@8		; CFont::`RTTI Base Class Array'
	DD	FLAT:??_R1A@?0A@EA@CGdiObject@@8
	DD	FLAT:??_R1A@?0A@EA@CObject@@8
rdata$r	ENDS
;	COMDAT ??_R3CFont@@8
rdata$r	SEGMENT
??_R3CFont@@8 DD 00H					; CFont::`RTTI Class Hierarchy Descriptor'
	DD	00H
	DD	03H
	DD	FLAT:??_R2CFont@@8
rdata$r	ENDS
;	COMDAT ??_R0?AVCFont@@@8
data$rs	SEGMENT
??_R0?AVCFont@@@8 DD FLAT:??_7type_info@@6B@		; CFont `RTTI Type Descriptor'
	DD	00H
	DB	'.?AVCFont@@', 00H
data$rs	ENDS
;	COMDAT ??_R4CFont@@6B@
rdata$r	SEGMENT
??_R4CFont@@6B@ DD 00H					; CFont::`RTTI Complete Object Locator'
	DD	00H
	DD	00H
	DD	FLAT:??_R0?AVCFont@@@8
	DD	FLAT:??_R3CFont@@8
rdata$r	ENDS
;	COMDAT ??_R1A@?0A@EA@CPen@@8
rdata$r	SEGMENT
??_R1A@?0A@EA@CPen@@8 DD FLAT:??_R0?AVCPen@@@8		; CPen::`RTTI Base Class Descriptor at (0,-1,0,64)'
	DD	02H
	DD	00H
	DD	0ffffffffH
	DD	00H
	DD	040H
	DD	FLAT:??_R3CPen@@8
rdata$r	ENDS
;	COMDAT ??_R2CPen@@8
rdata$r	SEGMENT
??_R2CPen@@8 DD	FLAT:??_R1A@?0A@EA@CPen@@8		; CPen::`RTTI Base Class Array'
	DD	FLAT:??_R1A@?0A@EA@CGdiObject@@8
	DD	FLAT:??_R1A@?0A@EA@CObject@@8
rdata$r	ENDS
;	COMDAT ??_R3CPen@@8
rdata$r	SEGMENT
??_R3CPen@@8 DD	00H					; CPen::`RTTI Class Hierarchy Descriptor'
	DD	00H
	DD	03H
	DD	FLAT:??_R2CPen@@8
rdata$r	ENDS
;	COMDAT ??_R0?AVCPen@@@8
data$rs	SEGMENT
??_R0?AVCPen@@@8 DD FLAT:??_7type_info@@6B@		; CPen `RTTI Type Descriptor'
	DD	00H
	DB	'.?AVCPen@@', 00H
data$rs	ENDS
;	COMDAT ??_R4CPen@@6B@
rdata$r	SEGMENT
??_R4CPen@@6B@ DD 00H					; CPen::`RTTI Complete Object Locator'
	DD	00H
	DD	00H
	DD	FLAT:??_R0?AVCPen@@@8
	DD	FLAT:??_R3CPen@@8
rdata$r	ENDS
;	COMDAT ??_R1A@?0A@EA@CGdiObject@@8
rdata$r	SEGMENT
??_R1A@?0A@EA@CGdiObject@@8 DD FLAT:??_R0?AVCGdiObject@@@8 ; CGdiObject::`RTTI Base Class Descriptor at (0,-1,0,64)'
	DD	01H
	DD	00H
	DD	0ffffffffH
	DD	00H
	DD	040H
	DD	FLAT:??_R3CGdiObject@@8
rdata$r	ENDS
;	COMDAT ??_R2CGdiObject@@8
rdata$r	SEGMENT
??_R2CGdiObject@@8 DD FLAT:??_R1A@?0A@EA@CGdiObject@@8	; CGdiObject::`RTTI Base Class Array'
	DD	FLAT:??_R1A@?0A@EA@CObject@@8
rdata$r	ENDS
;	COMDAT ??_R3CGdiObject@@8
rdata$r	SEGMENT
??_R3CGdiObject@@8 DD 00H				; CGdiObject::`RTTI Class Hierarchy Descriptor'
	DD	00H
	DD	02H
	DD	FLAT:??_R2CGdiObject@@8
rdata$r	ENDS
;	COMDAT ??_R0?AVCGdiObject@@@8
data$rs	SEGMENT
??_R0?AVCGdiObject@@@8 DD FLAT:??_7type_info@@6B@	; CGdiObject `RTTI Type Descriptor'
	DD	00H
	DB	'.?AVCGdiObject@@', 00H
data$rs	ENDS
;	COMDAT ??_R4CGdiObject@@6B@
rdata$r	SEGMENT
??_R4CGdiObject@@6B@ DD 00H				; CGdiObject::`RTTI Complete Object Locator'
	DD	00H
	DD	00H
	DD	FLAT:??_R0?AVCGdiObject@@@8
	DD	FLAT:??_R3CGdiObject@@8
rdata$r	ENDS
;	COMDAT ??_R1A@?0A@EA@CObject@@8
rdata$r	SEGMENT
??_R1A@?0A@EA@CObject@@8 DD FLAT:??_R0?AVCObject@@@8	; CObject::`RTTI Base Class Descriptor at (0,-1,0,64)'
	DD	00H
	DD	00H
	DD	0ffffffffH
	DD	00H
	DD	040H
	DD	FLAT:??_R3CObject@@8
rdata$r	ENDS
;	COMDAT ??_R2CObject@@8
rdata$r	SEGMENT
??_R2CObject@@8 DD FLAT:??_R1A@?0A@EA@CObject@@8	; CObject::`RTTI Base Class Array'
rdata$r	ENDS
;	COMDAT ??_R3CObject@@8
rdata$r	SEGMENT
??_R3CObject@@8 DD 00H					; CObject::`RTTI Class Hierarchy Descriptor'
	DD	00H
	DD	01H
	DD	FLAT:??_R2CObject@@8
rdata$r	ENDS
;	COMDAT ??_R0?AVCObject@@@8
data$rs	SEGMENT
??_R0?AVCObject@@@8 DD FLAT:??_7type_info@@6B@		; CObject `RTTI Type Descriptor'
	DD	00H
	DB	'.?AVCObject@@', 00H
data$rs	ENDS
;	COMDAT ??_C@_0N@OMEMOKLE@?$CFTs?5?$CI?$CFTs?3?$CFd?$CJ@
CONST	SEGMENT
??_C@_0N@OMEMOKLE@?$CFTs?5?$CI?$CFTs?3?$CFd?$CJ@ DB '%Ts (%Ts:%d)', 00H ; `string'
CONST	ENDS
;	COMDAT ??_C@_0BB@HBOOMJBF@?$CFTs?5?$CI?$CFTs?3?$CFd?$CJ?6?$CFTs@
CONST	SEGMENT
??_C@_0BB@HBOOMJBF@?$CFTs?5?$CI?$CFTs?3?$CFd?$CJ?6?$CFTs@ DB '%Ts (%Ts:%d'
	DB	')', 0aH, '%Ts', 00H				; `string'
CONST	ENDS
;	COMDAT ??_C@_0BP@OIEOKIDM@Exception?5thrown?5in?5destructor@
CONST	SEGMENT
??_C@_0BP@OIEOKIDM@Exception?5thrown?5in?5destructor@ DB 'Exception throw'
	DB	'n in destructor', 00H			; `string'
CONST	ENDS
;	COMDAT ??_C@_0HD@JJCHHHNK@C?3?2Program?5Files?5?$CIx86?$CJ?2Microsof@
CONST	SEGMENT
??_C@_0HD@JJCHHHNK@C?3?2Program?5Files?5?$CIx86?$CJ?2Microsof@ DB 'C:\Pro'
	DB	'gram Files (x86)\Microsoft Visual Studio\2019\Community\VC\To'
	DB	'ols\MSVC\14.29.30133\atlmfc\include\afxwin1.inl', 00H ; `string'
CONST	ENDS
;	COMDAT ??_7CRgn@@6B@
CONST	SEGMENT
??_7CRgn@@6B@ DD FLAT:??_R4CRgn@@6B@			; CRgn::`vftable'
	DD	FLAT:?GetRuntimeClass@CRgn@@UBEPAUCRuntimeClass@@XZ
	DD	FLAT:??_ECRgn@@UAEPAXI@Z
	DD	FLAT:?Serialize@CObject@@UAEXAAVCArchive@@@Z
	DD	FLAT:?AssertValid@CObject@@UBEXXZ
	DD	FLAT:?Dump@CObject@@UBEXAAVCDumpContext@@@Z
CONST	ENDS
;	COMDAT ??_7CBitmap@@6B@
CONST	SEGMENT
??_7CBitmap@@6B@ DD FLAT:??_R4CBitmap@@6B@		; CBitmap::`vftable'
	DD	FLAT:?GetRuntimeClass@CBitmap@@UBEPAUCRuntimeClass@@XZ
	DD	FLAT:??_ECBitmap@@UAEPAXI@Z
	DD	FLAT:?Serialize@CObject@@UAEXAAVCArchive@@@Z
	DD	FLAT:?AssertValid@CObject@@UBEXXZ
	DD	FLAT:?Dump@CObject@@UBEXAAVCDumpContext@@@Z
CONST	ENDS
;	COMDAT ??_7CFont@@6B@
CONST	SEGMENT
??_7CFont@@6B@ DD FLAT:??_R4CFont@@6B@			; CFont::`vftable'
	DD	FLAT:?GetRuntimeClass@CFont@@UBEPAUCRuntimeClass@@XZ
	DD	FLAT:??_ECFont@@UAEPAXI@Z
	DD	FLAT:?Serialize@CObject@@UAEXAAVCArchive@@@Z
	DD	FLAT:?AssertValid@CObject@@UBEXXZ
	DD	FLAT:?Dump@CObject@@UBEXAAVCDumpContext@@@Z
CONST	ENDS
;	COMDAT ??_7CPen@@6B@
CONST	SEGMENT
??_7CPen@@6B@ DD FLAT:??_R4CPen@@6B@			; CPen::`vftable'
	DD	FLAT:?GetRuntimeClass@CPen@@UBEPAUCRuntimeClass@@XZ
	DD	FLAT:??_ECPen@@UAEPAXI@Z
	DD	FLAT:?Serialize@CObject@@UAEXAAVCArchive@@@Z
	DD	FLAT:?AssertValid@CObject@@UBEXXZ
	DD	FLAT:?Dump@CObject@@UBEXAAVCDumpContext@@@Z
CONST	ENDS
;	COMDAT ??_7CGdiObject@@6B@
CONST	SEGMENT
??_7CGdiObject@@6B@ DD FLAT:??_R4CGdiObject@@6B@	; CGdiObject::`vftable'
	DD	FLAT:?GetRuntimeClass@CGdiObject@@UBEPAUCRuntimeClass@@XZ
	DD	FLAT:??_ECGdiObject@@UAEPAXI@Z
	DD	FLAT:?Serialize@CObject@@UAEXAAVCArchive@@@Z
	DD	FLAT:?AssertValid@CObject@@UBEXXZ
	DD	FLAT:?Dump@CObject@@UBEXAAVCDumpContext@@@Z
CONST	ENDS
;	COMDAT ??_R0PAVCException@@@8
data$r	SEGMENT
??_R0PAVCException@@@8 DD FLAT:??_7type_info@@6B@	; CException * `RTTI Type Descriptor'
	DD	00H
	DB	'.PAVCException@@', 00H
data$r	ENDS
;	COMDAT xdata$x
xdata$x	SEGMENT
__unwindtable$?OnLButtonDblClk@CGfxOutBarCtrl@@IAEXIVCPoint@@@Z DD 0ffffffffH
	DD	FLAT:__unwindfunclet$?OnLButtonDblClk@CGfxOutBarCtrl@@IAEXIVCPoint@@@Z$6
	DD	0ffffffffH
	DD	FLAT:__unwindfunclet$?OnLButtonDblClk@CGfxOutBarCtrl@@IAEXIVCPoint@@@Z$7
	DD	0ffffffffH
	DD	FLAT:__unwindfunclet$?OnLButtonDblClk@CGfxOutBarCtrl@@IAEXIVCPoint@@@Z$8
	DD	0ffffffffH
	DD	FLAT:__unwindfunclet$?OnLButtonDblClk@CGfxOutBarCtrl@@IAEXIVCPoint@@@Z$9
__ehfuncinfo$?OnLButtonDblClk@CGfxOutBarCtrl@@IAEXIVCPoint@@@Z DD 019930522H
	DD	04H
	DD	FLAT:__unwindtable$?OnLButtonDblClk@CGfxOutBarCtrl@@IAEXIVCPoint@@@Z
	DD	2 DUP(00H)
	DD	2 DUP(00H)
	DD	00H
	DD	01H
xdata$x	ENDS
;	COMDAT xdata$x
xdata$x	SEGMENT
__unwindtable$?OnLButtonDown@CGfxOutBarCtrl@@IAEXIVCPoint@@@Z DD 0ffffffffH
	DD	FLAT:__unwindfunclet$?OnLButtonDown@CGfxOutBarCtrl@@IAEXIVCPoint@@@Z$6
	DD	0ffffffffH
	DD	FLAT:__unwindfunclet$?OnLButtonDown@CGfxOutBarCtrl@@IAEXIVCPoint@@@Z$7
	DD	0ffffffffH
	DD	FLAT:__unwindfunclet$?OnLButtonDown@CGfxOutBarCtrl@@IAEXIVCPoint@@@Z$8
	DD	0ffffffffH
	DD	FLAT:__unwindfunclet$?OnLButtonDown@CGfxOutBarCtrl@@IAEXIVCPoint@@@Z$9
__ehfuncinfo$?OnLButtonDown@CGfxOutBarCtrl@@IAEXIVCPoint@@@Z DD 019930522H
	DD	04H
	DD	FLAT:__unwindtable$?OnLButtonDown@CGfxOutBarCtrl@@IAEXIVCPoint@@@Z
	DD	2 DUP(00H)
	DD	2 DUP(00H)
	DD	00H
	DD	01H
xdata$x	ENDS
;	COMDAT xdata$x
xdata$x	SEGMENT
__unwindtable$?OnPaint@CGfxOutBarCtrl@@IAEXXZ DD 0ffffffffH
	DD	FLAT:__unwindfunclet$?OnPaint@CGfxOutBarCtrl@@IAEXXZ$0
	DD	00H
	DD	FLAT:__unwindfunclet$?OnPaint@CGfxOutBarCtrl@@IAEXXZ$1
	DD	01H
	DD	FLAT:__unwindfunclet$?OnPaint@CGfxOutBarCtrl@@IAEXXZ$2
__ehfuncinfo$?OnPaint@CGfxOutBarCtrl@@IAEXXZ DD 019930522H
	DD	03H
	DD	FLAT:__unwindtable$?OnPaint@CGfxOutBarCtrl@@IAEXXZ
	DD	2 DUP(00H)
	DD	2 DUP(00H)
	DD	00H
	DD	01H
xdata$x	ENDS
;	COMDAT xdata$x
xdata$x	SEGMENT
__ehfuncinfo$?DrawFolder@CGfxOutBarCtrl@@IAEXPAVCDC@@HVCRect@@_N@Z DD 019930522H
	DD	08H
	DD	FLAT:__unwindtable$?DrawFolder@CGfxOutBarCtrl@@IAEXPAVCDC@@HVCRect@@_N@Z
	DD	2 DUP(00H)
	DD	2 DUP(00H)
	DD	00H
	DD	01H
__unwindtable$?DrawFolder@CGfxOutBarCtrl@@IAEXPAVCDC@@HVCRect@@_N@Z DD 0ffffffffH
	DD	FLAT:__unwindfunclet$?DrawFolder@CGfxOutBarCtrl@@IAEXPAVCDC@@HVCRect@@_N@Z$0
	DD	00H
	DD	FLAT:__unwindfunclet$?DrawFolder@CGfxOutBarCtrl@@IAEXPAVCDC@@HVCRect@@_N@Z$1
	DD	0ffffffffH
	DD	FLAT:__unwindfunclet$?DrawFolder@CGfxOutBarCtrl@@IAEXPAVCDC@@HVCRect@@_N@Z$2
	DD	0ffffffffH
	DD	FLAT:__unwindfunclet$?DrawFolder@CGfxOutBarCtrl@@IAEXPAVCDC@@HVCRect@@_N@Z$3
	DD	03H
	DD	FLAT:__unwindfunclet$?DrawFolder@CGfxOutBarCtrl@@IAEXPAVCDC@@HVCRect@@_N@Z$4
	DD	04H
	DD	FLAT:__unwindfunclet$?DrawFolder@CGfxOutBarCtrl@@IAEXPAVCDC@@HVCRect@@_N@Z$5
	DD	0ffffffffH
	DD	FLAT:__unwindfunclet$?DrawFolder@CGfxOutBarCtrl@@IAEXPAVCDC@@HVCRect@@_N@Z$6
	DD	06H
	DD	FLAT:__unwindfunclet$?DrawFolder@CGfxOutBarCtrl@@IAEXPAVCDC@@HVCRect@@_N@Z$7
xdata$x	ENDS
;	COMDAT xdata$x
xdata$x	SEGMENT
__unwindtable$?AddFolder@CGfxOutBarCtrl@@QAEHPBDK@Z DD 0ffffffffH
	DD	FLAT:__unwindfunclet$?AddFolder@CGfxOutBarCtrl@@QAEHPBDK@Z$0
	DD	00H
	DD	FLAT:__unwindfunclet$?AddFolder@CGfxOutBarCtrl@@QAEHPBDK@Z$1
__ehfuncinfo$?AddFolder@CGfxOutBarCtrl@@QAEHPBDK@Z DD 019930522H
	DD	02H
	DD	FLAT:__unwindtable$?AddFolder@CGfxOutBarCtrl@@QAEHPBDK@Z
	DD	2 DUP(00H)
	DD	2 DUP(00H)
	DD	00H
	DD	01H
xdata$x	ENDS
;	COMDAT xdata$x
xdata$x	SEGMENT
__ehfuncinfo$?HighlightFolder@CGfxOutBarCtrl@@QAEXH@Z DD 019930522H
	DD	05H
	DD	FLAT:__unwindtable$?HighlightFolder@CGfxOutBarCtrl@@QAEXH@Z
	DD	2 DUP(00H)
	DD	2 DUP(00H)
	DD	00H
	DD	01H
__unwindtable$?HighlightFolder@CGfxOutBarCtrl@@QAEXH@Z DD 0ffffffffH
	DD	FLAT:__unwindfunclet$?HighlightFolder@CGfxOutBarCtrl@@QAEXH@Z$0
	DD	00H
	DD	FLAT:__unwindfunclet$?HighlightFolder@CGfxOutBarCtrl@@QAEXH@Z$1
	DD	00H
	DD	FLAT:__unwindfunclet$?HighlightFolder@CGfxOutBarCtrl@@QAEXH@Z$2
	DD	0ffffffffH
	DD	FLAT:__unwindfunclet$?HighlightFolder@CGfxOutBarCtrl@@QAEXH@Z$3
	DD	03H
	DD	FLAT:__unwindfunclet$?HighlightFolder@CGfxOutBarCtrl@@QAEXH@Z$4
xdata$x	ENDS
;	COMDAT xdata$x
xdata$x	SEGMENT
__unwindtable$?InsertItem@CGfxOutBarCtrl@@QAEHHHPBDHK@Z DD 0ffffffffH
	DD	FLAT:__unwindfunclet$?InsertItem@CGfxOutBarCtrl@@QAEHHHPBDHK@Z$0
__ehfuncinfo$?InsertItem@CGfxOutBarCtrl@@QAEHHHPBDHK@Z DD 019930522H
	DD	01H
	DD	FLAT:__unwindtable$?InsertItem@CGfxOutBarCtrl@@QAEHHHPBDHK@Z
	DD	2 DUP(00H)
	DD	2 DUP(00H)
	DD	00H
	DD	01H
xdata$x	ENDS
;	COMDAT xdata$x
xdata$x	SEGMENT
__unwindtable$?PaintItems@CGfxOutBarCtrl@@QAEXPAVCDC@@HVCRect@@@Z DD 0ffffffffH
	DD	FLAT:__unwindfunclet$?PaintItems@CGfxOutBarCtrl@@QAEXPAVCDC@@HVCRect@@@Z$0
__ehfuncinfo$?PaintItems@CGfxOutBarCtrl@@QAEXPAVCDC@@HVCRect@@@Z DD 019930522H
	DD	01H
	DD	FLAT:__unwindtable$?PaintItems@CGfxOutBarCtrl@@QAEXPAVCDC@@HVCRect@@@Z
	DD	2 DUP(00H)
	DD	2 DUP(00H)
	DD	00H
	DD	01H
xdata$x	ENDS
;	COMDAT xdata$x
xdata$x	SEGMENT
__unwindtable$?GetItemSize@CGfxOutBarCtrl@@QAE?AVCSize@@HHH@Z DD 0ffffffffH
	DD	FLAT:__unwindfunclet$?GetItemSize@CGfxOutBarCtrl@@QAE?AVCSize@@HHH@Z$0
__ehfuncinfo$?GetItemSize@CGfxOutBarCtrl@@QAE?AVCSize@@HHH@Z DD 019930522H
	DD	01H
	DD	FLAT:__unwindtable$?GetItemSize@CGfxOutBarCtrl@@QAE?AVCSize@@HHH@Z
	DD	2 DUP(00H)
	DD	2 DUP(00H)
	DD	00H
	DD	01H
xdata$x	ENDS
;	COMDAT xdata$x
xdata$x	SEGMENT
__unwindtable$?DrawItem@CGfxOutBarCtrl@@QAEXPAVCDC@@HVCRect@@H_N@Z DD 0ffffffffH
	DD	FLAT:__unwindfunclet$?DrawItem@CGfxOutBarCtrl@@QAEXPAVCDC@@HVCRect@@H_N@Z$0
__ehfuncinfo$?DrawItem@CGfxOutBarCtrl@@QAEXPAVCDC@@HVCRect@@H_N@Z DD 019930522H
	DD	01H
	DD	FLAT:__unwindtable$?DrawItem@CGfxOutBarCtrl@@QAEXPAVCDC@@HVCRect@@H_N@Z
	DD	2 DUP(00H)
	DD	2 DUP(00H)
	DD	00H
	DD	01H
xdata$x	ENDS
;	COMDAT xdata$x
xdata$x	SEGMENT
__unwindtable$?HighlightItem@CGfxOutBarCtrl@@QAEXH_N@Z DD 0ffffffffH
	DD	FLAT:__unwindfunclet$?HighlightItem@CGfxOutBarCtrl@@QAEXH_N@Z$0
	DD	00H
	DD	FLAT:__unwindfunclet$?HighlightItem@CGfxOutBarCtrl@@QAEXH_N@Z$1
__ehfuncinfo$?HighlightItem@CGfxOutBarCtrl@@QAEXH_N@Z DD 019930522H
	DD	02H
	DD	FLAT:__unwindtable$?HighlightItem@CGfxOutBarCtrl@@QAEXH_N@Z
	DD	2 DUP(00H)
	DD	2 DUP(00H)
	DD	00H
	DD	01H
xdata$x	ENDS
;	COMDAT xdata$x
xdata$x	SEGMENT
__unwindtable$?AnimateFolderScroll@CGfxOutBarCtrl@@QAEXHH@Z DD 0ffffffffH
	DD	FLAT:__unwindfunclet$?AnimateFolderScroll@CGfxOutBarCtrl@@QAEXHH@Z$0
	DD	00H
	DD	FLAT:__unwindfunclet$?AnimateFolderScroll@CGfxOutBarCtrl@@QAEXHH@Z$1
	DD	01H
	DD	FLAT:__unwindfunclet$?AnimateFolderScroll@CGfxOutBarCtrl@@QAEXHH@Z$2
	DD	02H
	DD	FLAT:__unwindfunclet$?AnimateFolderScroll@CGfxOutBarCtrl@@QAEXHH@Z$3
__ehfuncinfo$?AnimateFolderScroll@CGfxOutBarCtrl@@QAEXHH@Z DD 019930522H
	DD	04H
	DD	FLAT:__unwindtable$?AnimateFolderScroll@CGfxOutBarCtrl@@QAEXHH@Z
	DD	2 DUP(00H)
	DD	2 DUP(00H)
	DD	00H
	DD	01H
xdata$x	ENDS
;	COMDAT xdata$x
xdata$x	SEGMENT
__unwindtable$?GetItemText@CGfxOutBarCtrl@@QAE?AV?$CStringT@DV?$StrTraitMFC_DLL@DV?$ChTraitsCRT@D@ATL@@@@@ATL@@H@Z DD 0ffffffffH
	DD	FLAT:__unwindfunclet$?GetItemText@CGfxOutBarCtrl@@QAE?AV?$CStringT@DV?$StrTraitMFC_DLL@DV?$ChTraitsCRT@D@ATL@@@@@ATL@@H@Z$0
__ehfuncinfo$?GetItemText@CGfxOutBarCtrl@@QAE?AV?$CStringT@DV?$StrTraitMFC_DLL@DV?$ChTraitsCRT@D@ATL@@@@@ATL@@H@Z DD 019930522H
	DD	01H
	DD	FLAT:__unwindtable$?GetItemText@CGfxOutBarCtrl@@QAE?AV?$CStringT@DV?$StrTraitMFC_DLL@DV?$ChTraitsCRT@D@ATL@@@@@ATL@@H@Z
	DD	2 DUP(00H)
	DD	2 DUP(00H)
	DD	00H
	DD	01H
xdata$x	ENDS
;	COMDAT xdata$x
xdata$x	SEGMENT
__unwindtable$?AddFolderBar@CGfxOutBarCtrl@@QAEHPBDPAVCWnd@@K@Z DD 0ffffffffH
	DD	FLAT:__unwindfunclet$?AddFolderBar@CGfxOutBarCtrl@@QAEHPBDPAVCWnd@@K@Z$0
	DD	00H
	DD	FLAT:__unwindfunclet$?AddFolderBar@CGfxOutBarCtrl@@QAEHPBDPAVCWnd@@K@Z$1
__ehfuncinfo$?AddFolderBar@CGfxOutBarCtrl@@QAEHPBDPAVCWnd@@K@Z DD 019930522H
	DD	02H
	DD	FLAT:__unwindtable$?AddFolderBar@CGfxOutBarCtrl@@QAEHPBDPAVCWnd@@K@Z
	DD	2 DUP(00H)
	DD	2 DUP(00H)
	DD	00H
	DD	01H
xdata$x	ENDS
;	COMDAT xdata$x
xdata$x	SEGMENT
__unwindtable$?DrawAnimItem@CGfxOutBarCtrl@@QAEXHHH@Z DD 0ffffffffH
	DD	FLAT:__unwindfunclet$?DrawAnimItem@CGfxOutBarCtrl@@QAEXHHH@Z$0
__ehfuncinfo$?DrawAnimItem@CGfxOutBarCtrl@@QAEXHHH@Z DD 019930522H
	DD	01H
	DD	FLAT:__unwindtable$?DrawAnimItem@CGfxOutBarCtrl@@QAEXHHH@Z
	DD	2 DUP(00H)
	DD	2 DUP(00H)
	DD	00H
	DD	01H
xdata$x	ENDS
;	COMDAT xdata$x
xdata$x	SEGMENT
__unwindtable$??_GCBarFolder@CGfxOutBarCtrl@@UAEPAXI@Z DD 0ffffffffH
	DD	FLAT:___std_terminate
__ehfuncinfo$??_GCBarFolder@CGfxOutBarCtrl@@UAEPAXI@Z DD 019930522H
	DD	01H
	DD	FLAT:__unwindtable$??_GCBarFolder@CGfxOutBarCtrl@@UAEPAXI@Z
	DD	2 DUP(00H)
	DD	2 DUP(00H)
	DD	00H
	DD	05H
xdata$x	ENDS
;	COMDAT xdata$x
xdata$x	SEGMENT
__unwindtable$?InsertItem@CBarFolder@CGfxOutBarCtrl@@QAEHHPBDHK@Z DD 0ffffffffH
	DD	FLAT:__unwindfunclet$?InsertItem@CBarFolder@CGfxOutBarCtrl@@QAEHHPBDHK@Z$0
__ehfuncinfo$?InsertItem@CBarFolder@CGfxOutBarCtrl@@QAEHHPBDHK@Z DD 019930522H
	DD	01H
	DD	FLAT:__unwindtable$?InsertItem@CBarFolder@CGfxOutBarCtrl@@QAEHHPBDHK@Z
	DD	2 DUP(00H)
	DD	2 DUP(00H)
	DD	00H
	DD	01H
xdata$x	ENDS
;	COMDAT xdata$x
xdata$x	SEGMENT
__ehfuncinfo$??1CBarFolder@CGfxOutBarCtrl@@UAE@XZ DD 019930522H
	DD	00H
	DD	00H
	DD	2 DUP(00H)
	DD	2 DUP(00H)
	DD	00H
	DD	05H
xdata$x	ENDS
;	COMDAT xdata$x
xdata$x	SEGMENT
__unwindtable$??0CBarFolder@CGfxOutBarCtrl@@QAE@PBDK@Z DD 0ffffffffH
	DD	FLAT:__unwindfunclet$??0CBarFolder@CGfxOutBarCtrl@@QAE@PBDK@Z$0
__ehfuncinfo$??0CBarFolder@CGfxOutBarCtrl@@QAE@PBDK@Z DD 019930522H
	DD	01H
	DD	FLAT:__unwindtable$??0CBarFolder@CGfxOutBarCtrl@@QAE@PBDK@Z
	DD	2 DUP(00H)
	DD	2 DUP(00H)
	DD	00H
	DD	01H
xdata$x	ENDS
;	COMDAT xdata$x
xdata$x	SEGMENT
__unwindtable$??0CGfxOutBarCtrl@@QAE@XZ DD 0ffffffffH
	DD	FLAT:__unwindfunclet$??0CGfxOutBarCtrl@@QAE@XZ$0
	DD	00H
	DD	FLAT:__unwindfunclet$??0CGfxOutBarCtrl@@QAE@XZ$1
	DD	01H
	DD	FLAT:__unwindfunclet$??0CGfxOutBarCtrl@@QAE@XZ$2
	DD	02H
	DD	FLAT:__unwindfunclet$??0CGfxOutBarCtrl@@QAE@XZ$3
__ehfuncinfo$??0CGfxOutBarCtrl@@QAE@XZ DD 019930522H
	DD	04H
	DD	FLAT:__unwindtable$??0CGfxOutBarCtrl@@QAE@XZ
	DD	2 DUP(00H)
	DD	2 DUP(00H)
	DD	00H
	DD	01H
xdata$x	ENDS
;	COMDAT xdata$x
xdata$x	SEGMENT
__unwindtable$?CreateObject@CGfxOutBarCtrl@@SGPAVCObject@@XZ DD 0ffffffffH
	DD	FLAT:__unwindfunclet$?CreateObject@CGfxOutBarCtrl@@SGPAVCObject@@XZ$0
__ehfuncinfo$?CreateObject@CGfxOutBarCtrl@@SGPAVCObject@@XZ DD 019930522H
	DD	01H
	DD	FLAT:__unwindtable$?CreateObject@CGfxOutBarCtrl@@SGPAVCObject@@XZ
	DD	2 DUP(00H)
	DD	2 DUP(00H)
	DD	00H
	DD	01H
xdata$x	ENDS
;	COMDAT xdata$x
xdata$x	SEGMENT
__catchsym$??1CGdiObject@@UAE@XZ$3 DD 00H
	DD	FLAT:??_R0PAVCException@@@8
	DD	0fffffde4H
	DD	FLAT:__catch$??1CGdiObject@@UAE@XZ$0
__tryblocktable$??1CGdiObject@@UAE@XZ DD 00H
	DD	00H
	DD	02H
	DD	01H
	DD	FLAT:__catchsym$??1CGdiObject@@UAE@XZ$3
__unwindtable$??1CGdiObject@@UAE@XZ DD 0ffffffffH
	DD	00H
	DD	0ffffffffH
	DD	00H
	DD	01H
	DD	FLAT:__unwindfunclet$??1CGdiObject@@UAE@XZ$2
__ehfuncinfo$??1CGdiObject@@UAE@XZ DD 019930522H
	DD	03H
	DD	FLAT:__unwindtable$??1CGdiObject@@UAE@XZ
	DD	01H
	DD	FLAT:__tryblocktable$??1CGdiObject@@UAE@XZ
	DD	2 DUP(00H)
	DD	00H
	DD	05H
xdata$x	ENDS
; Function compile flags: /Ogtp
; File D:\git\src\IBK\IBK_DRFN\ProjSrc\SrcDrfn\Chart\comparechart\control\GfxOutBarCtrl.cpp
; File C:\Program Files (x86)\Microsoft Visual Studio\2019\Community\VC\Tools\MSVC\14.29.30133\atlmfc\include\afxwin1.inl
; File D:\git\src\IBK\IBK_DRFN\ProjSrc\SrcDrfn\Chart\comparechart\control\GfxOutBarCtrl.cpp
; File C:\Program Files (x86)\Microsoft Visual Studio\2019\Community\VC\Tools\MSVC\14.29.30133\atlmfc\include\afx.inl
;	COMDAT ??_GCGfxOutBarCtrl@@UAEPAXI@Z
_TEXT	SEGMENT
___flags$ = 8						; size = 4
??_GCGfxOutBarCtrl@@UAEPAXI@Z PROC			; CGfxOutBarCtrl::`scalar deleting destructor', COMDAT
; _this$ = ecx
  00000	55		 push	 ebp
  00001	8b ec		 mov	 ebp, esp
; File D:\git\src\IBK\IBK_DRFN\ProjSrc\SrcDrfn\Chart\comparechart\control\GfxOutBarCtrl.cpp

; 116  : {

  00003	56		 push	 esi
  00004	8b f1		 mov	 esi, ecx

; 117  : }

  00006	8d 8e 54 01 00
	00		 lea	 ecx, DWORD PTR [esi+340]
  0000c	c7 06 00 00 00
	00		 mov	 DWORD PTR [esi], OFFSET ??_7CGfxOutBarCtrl@@6B@
; File C:\Program Files (x86)\Microsoft Visual Studio\2019\Community\VC\Tools\MSVC\14.29.30133\atlmfc\include\afxwin1.inl

; 155  : 	{ }

  00012	c7 01 00 00 00
	00		 mov	 DWORD PTR [ecx], OFFSET ??_7CFont@@6B@
  00018	e8 00 00 00 00	 call	 ??1CGdiObject@@UAE@XZ	; CGdiObject::~CGdiObject
; File D:\git\src\IBK\IBK_DRFN\ProjSrc\SrcDrfn\Chart\comparechart\control\GfxOutBarCtrl.cpp

; 117  : }

  0001d	8d 8e 04 01 00
	00		 lea	 ecx, DWORD PTR [esi+260]
  00023	e8 00 00 00 00	 call	 ??1CPtrArray@@UAE@XZ	; CPtrArray::~CPtrArray
  00028	8b ce		 mov	 ecx, esi
  0002a	e8 00 00 00 00	 call	 ??1CWnd@@UAE@XZ		; CWnd::~CWnd
  0002f	8b 45 08	 mov	 eax, DWORD PTR ___flags$[ebp]
  00032	a8 01		 test	 al, 1
  00034	74 22		 je	 SHORT $LN15@scalar
  00036	a8 04		 test	 al, 4
  00038	75 10		 jne	 SHORT $LN3@scalar
; File C:\Program Files (x86)\Microsoft Visual Studio\2019\Community\VC\Tools\MSVC\14.29.30133\atlmfc\include\afx.inl

; 112  : 	{ ::operator delete(p); }

  0003a	56		 push	 esi
  0003b	e8 00 00 00 00	 call	 ??3@YAXPAX@Z		; operator delete
  00040	83 c4 04	 add	 esp, 4
  00043	8b c6		 mov	 eax, esi
  00045	5e		 pop	 esi
  00046	5d		 pop	 ebp
  00047	c2 04 00	 ret	 4
$LN3@scalar:
  0004a	68 70 01 00 00	 push	 368			; 00000170H
  0004f	56		 push	 esi
  00050	e8 00 00 00 00	 call	 ?__global_delete@@YAXPAXI@Z ; __global_delete
  00055	83 c4 08	 add	 esp, 8
$LN15@scalar:
  00058	8b c6		 mov	 eax, esi
  0005a	5e		 pop	 esi
  0005b	5d		 pop	 ebp
  0005c	c2 04 00	 ret	 4
??_GCGfxOutBarCtrl@@UAEPAXI@Z ENDP			; CGfxOutBarCtrl::`scalar deleting destructor'
_TEXT	ENDS
; Function compile flags: /Ogtp
; File D:\git\src\IBK\IBK_DRFN\ProjSrc\SrcDrfn\Chart\comparechart\control\GfxOutBarCtrl.cpp
;	COMDAT ?GetMessageMap@CGfxOutBarCtrl@@MBEPBUAFX_MSGMAP@@XZ
_TEXT	SEGMENT
?GetMessageMap@CGfxOutBarCtrl@@MBEPBUAFX_MSGMAP@@XZ PROC ; CGfxOutBarCtrl::GetMessageMap, COMDAT
; _this$ = ecx

; 119  : BEGIN_MESSAGE_MAP(CGfxOutBarCtrl, CWnd)

  00000	b8 00 00 00 00	 mov	 eax, OFFSET ?messageMap@?1??GetThisMessageMap@CGfxOutBarCtrl@@KGPBUAFX_MSGMAP@@XZ@4U3@B
  00005	c3		 ret	 0
?GetMessageMap@CGfxOutBarCtrl@@MBEPBUAFX_MSGMAP@@XZ ENDP ; CGfxOutBarCtrl::GetMessageMap
_TEXT	ENDS
; Function compile flags: /Ogtp
; File D:\git\src\IBK\IBK_DRFN\ProjSrc\SrcDrfn\Chart\comparechart\control\GfxOutBarCtrl.cpp
;	COMDAT ?GetThisMessageMap@CGfxOutBarCtrl@@KGPBUAFX_MSGMAP@@XZ
_TEXT	SEGMENT
?GetThisMessageMap@CGfxOutBarCtrl@@KGPBUAFX_MSGMAP@@XZ PROC ; CGfxOutBarCtrl::GetThisMessageMap, COMDAT

; 120  : 	//{{AFX_MSG_MAP(CGfxOutBarCtrl)
; 121  : 	ON_WM_CREATE()
; 122  : 	ON_WM_TIMER()
; 123  : 	ON_WM_PAINT()
; 124  : 	ON_WM_ERASEBKGND()
; 125  : 	ON_WM_MOUSEMOVE()
; 126  : 	ON_WM_LBUTTONDOWN()
; 127  : 	ON_WM_SETCURSOR()
; 128  : 	ON_WM_SIZE()
; 129  : 	ON_COMMAND(ID_GFX_LARGEICON, OnGfxLargeicon)
; 130  : 	ON_UPDATE_COMMAND_UI(ID_GFX_LARGEICON, OnUpdateGfxLargeicon)
; 131  : 	ON_COMMAND(ID_GFX_SMALLICON, OnGfxSmallicon)
; 132  : 	ON_UPDATE_COMMAND_UI(ID_GFX_SMALLICON, OnUpdateGfxSmallicon)
; 133  : 	ON_COMMAND(ID_GFX_REMOVEITEM, OnGfxRemoveitem)
; 134  : 	ON_UPDATE_COMMAND_UI(ID_GFX_REMOVEITEM, OnUpdateGfxRemoveitem)
; 135  : 	ON_UPDATE_COMMAND_UI(ID_GFX_RENAMEITEM, OnUpdateGfxRenameitem)
; 136  : 	ON_WM_DESTROY()
; 137  : 	ON_WM_RBUTTONDOWN()
; 138  : 	ON_WM_LBUTTONDBLCLK()
; 139  : 	//}}AFX_MSG_MAP
; 140  : END_MESSAGE_MAP()

  00000	b8 00 00 00 00	 mov	 eax, OFFSET ?messageMap@?1??GetThisMessageMap@CGfxOutBarCtrl@@KGPBUAFX_MSGMAP@@XZ@4U3@B
  00005	c3		 ret	 0
?GetThisMessageMap@CGfxOutBarCtrl@@KGPBUAFX_MSGMAP@@XZ ENDP ; CGfxOutBarCtrl::GetThisMessageMap
_TEXT	ENDS
; Function compile flags: /Ogtp
; File D:\git\src\IBK\IBK_DRFN\ProjSrc\SrcDrfn\Chart\comparechart\control\GfxOutBarCtrl.cpp
; File C:\Program Files (x86)\Microsoft Visual Studio\2019\Community\VC\Tools\MSVC\14.29.30133\atlmfc\include\afxwin2.inl
; File D:\git\src\IBK\IBK_DRFN\ProjSrc\SrcDrfn\Chart\comparechart\control\GfxOutBarCtrl.cpp
; File C:\Program Files (x86)\Microsoft Visual Studio\2019\Community\VC\Tools\MSVC\14.29.30133\atlmfc\include\afxwin2.inl
; File D:\git\src\IBK\IBK_DRFN\ProjSrc\SrcDrfn\Chart\comparechart\control\GfxOutBarCtrl.cpp
; File C:\Program Files (x86)\Microsoft Visual Studio\2019\Community\VC\Tools\MSVC\14.29.30133\atlmfc\include\afxwin2.inl
; File C:\Program Files (x86)\Microsoft Visual Studio\2019\Community\VC\Tools\MSVC\14.29.30133\atlmfc\include\atltypes.h
; File C:\Program Files (x86)\Microsoft Visual Studio\2019\Community\VC\Tools\MSVC\14.29.30133\atlmfc\include\afxwin2.inl
; File D:\git\src\IBK\IBK_DRFN\ProjSrc\SrcDrfn\Chart\comparechart\control\GfxOutBarCtrl.cpp
; File C:\Program Files (x86)\Microsoft Visual Studio\2019\Community\VC\Tools\MSVC\14.29.30133\atlmfc\include\atltypes.h
; File D:\git\src\IBK\IBK_DRFN\ProjSrc\SrcDrfn\Chart\comparechart\control\GfxOutBarCtrl.cpp
; File C:\Program Files (x86)\Microsoft Visual Studio\2019\Community\VC\Tools\MSVC\14.29.30133\atlmfc\include\afxwin2.inl
; File D:\git\src\IBK\IBK_DRFN\ProjSrc\SrcDrfn\Chart\comparechart\control\GfxOutBarCtrl.cpp
; File C:\Program Files (x86)\Microsoft Visual Studio\2019\Community\VC\Tools\MSVC\14.29.30133\atlmfc\include\afxwin2.inl
; File D:\git\src\IBK\IBK_DRFN\ProjSrc\SrcDrfn\Chart\comparechart\control\GfxOutBarCtrl.cpp
; File C:\Program Files (x86)\Microsoft Visual Studio\2019\Community\VC\Tools\MSVC\14.29.30133\atlmfc\include\atltypes.h
; File D:\git\src\IBK\IBK_DRFN\ProjSrc\SrcDrfn\Chart\comparechart\control\GfxOutBarCtrl.cpp
; File C:\Program Files (x86)\Microsoft Visual Studio\2019\Community\VC\Tools\MSVC\14.29.30133\atlmfc\include\atltypes.h
; File D:\git\src\IBK\IBK_DRFN\ProjSrc\SrcDrfn\Chart\comparechart\control\GfxOutBarCtrl.cpp
; File C:\Program Files (x86)\Microsoft Visual Studio\2019\Community\VC\Tools\MSVC\14.29.30133\atlmfc\include\afxwin2.inl
; File D:\git\src\IBK\IBK_DRFN\ProjSrc\SrcDrfn\Chart\comparechart\control\GfxOutBarCtrl.cpp
; File C:\Program Files (x86)\Microsoft Visual Studio\2019\Community\VC\Tools\MSVC\14.29.30133\atlmfc\include\afxwin2.inl
; File D:\git\src\IBK\IBK_DRFN\ProjSrc\SrcDrfn\Chart\comparechart\control\GfxOutBarCtrl.cpp
; File C:\Program Files (x86)\Microsoft Visual Studio\2019\Community\VC\Tools\MSVC\14.29.30133\atlmfc\include\atltypes.h
; File D:\git\src\IBK\IBK_DRFN\ProjSrc\SrcDrfn\Chart\comparechart\control\GfxOutBarCtrl.cpp
; File C:\Program Files (x86)\Microsoft Visual Studio\2019\Community\VC\Tools\MSVC\14.29.30133\atlmfc\include\afxwin2.inl
; File D:\git\src\IBK\IBK_DRFN\ProjSrc\SrcDrfn\Chart\comparechart\control\GfxOutBarCtrl.cpp
; File C:\Program Files (x86)\Microsoft Visual Studio\2019\Community\VC\Tools\MSVC\14.29.30133\atlmfc\include\afxwin2.inl
; File D:\git\src\IBK\IBK_DRFN\ProjSrc\SrcDrfn\Chart\comparechart\control\GfxOutBarCtrl.cpp
; File C:\Program Files (x86)\Microsoft Visual Studio\2019\Community\VC\Tools\MSVC\14.29.30133\atlmfc\include\afxwin2.inl
; File D:\git\src\IBK\IBK_DRFN\ProjSrc\SrcDrfn\Chart\comparechart\control\GfxOutBarCtrl.cpp
; File C:\Program Files (x86)\Microsoft Visual Studio\2019\Community\VC\Tools\MSVC\14.29.30133\atlmfc\include\atltypes.h
; File D:\git\src\IBK\IBK_DRFN\ProjSrc\SrcDrfn\Chart\comparechart\control\GfxOutBarCtrl.cpp
; File C:\Program Files (x86)\Microsoft Visual Studio\2019\Community\VC\Tools\MSVC\14.29.30133\atlmfc\include\atltypes.h
; File D:\git\src\IBK\IBK_DRFN\ProjSrc\SrcDrfn\Chart\comparechart\control\GfxOutBarCtrl.cpp
; File C:\Program Files (x86)\Microsoft Visual Studio\2019\Community\VC\Tools\MSVC\14.29.30133\atlmfc\include\atltypes.h
; File D:\git\src\IBK\IBK_DRFN\ProjSrc\SrcDrfn\Chart\comparechart\control\GfxOutBarCtrl.cpp
; File C:\Program Files (x86)\Microsoft Visual Studio\2019\Community\VC\Tools\MSVC\14.29.30133\atlmfc\include\atltypes.h
; File C:\Program Files (x86)\Microsoft Visual Studio\2019\Community\VC\Tools\MSVC\14.29.30133\atlmfc\include\afxwin2.inl
; File D:\git\src\IBK\IBK_DRFN\ProjSrc\SrcDrfn\Chart\comparechart\control\GfxOutBarCtrl.cpp
; File C:\Program Files (x86)\Microsoft Visual Studio\2019\Community\VC\Tools\MSVC\14.29.30133\atlmfc\include\atltypes.h
; File D:\git\src\IBK\IBK_DRFN\ProjSrc\SrcDrfn\Chart\comparechart\control\GfxOutBarCtrl.cpp
; File C:\Program Files (x86)\Microsoft Visual Studio\2019\Community\VC\Tools\MSVC\14.29.30133\atlmfc\include\atltypes.h
; File C:\Program Files (x86)\Microsoft Visual Studio\2019\Community\VC\Tools\MSVC\14.29.30133\atlmfc\include\afxwin2.inl
; File D:\git\src\IBK\IBK_DRFN\ProjSrc\SrcDrfn\Chart\comparechart\control\GfxOutBarCtrl.cpp
; File C:\Program Files (x86)\Microsoft Visual Studio\2019\Community\VC\Tools\MSVC\14.29.30133\atlmfc\include\afxwin2.inl
; File D:\git\src\IBK\IBK_DRFN\ProjSrc\SrcDrfn\Chart\comparechart\control\GfxOutBarCtrl.cpp
; File C:\Program Files (x86)\Microsoft Visual Studio\2019\Community\VC\Tools\MSVC\14.29.30133\atlmfc\include\afxwin2.inl
; File D:\git\src\IBK\IBK_DRFN\ProjSrc\SrcDrfn\Chart\comparechart\control\GfxOutBarCtrl.cpp
; File C:\Program Files (x86)\Microsoft Visual Studio\2019\Community\VC\Tools\MSVC\14.29.30133\atlmfc\include\afxwin1.inl
; File D:\git\src\IBK\IBK_DRFN\ProjSrc\SrcDrfn\Chart\comparechart\control\GfxOutBarCtrl.cpp
; File C:\Program Files (x86)\Microsoft Visual Studio\2019\Community\VC\Tools\MSVC\14.29.30133\atlmfc\include\afxwin1.inl
; File C:\Program Files (x86)\Microsoft Visual Studio\2019\Community\VC\Tools\MSVC\14.29.30133\atlmfc\include\afxwin2.inl
; File D:\git\src\IBK\IBK_DRFN\ProjSrc\SrcDrfn\Chart\comparechart\control\GfxOutBarCtrl.cpp
; File C:\Program Files (x86)\Microsoft Visual Studio\2019\Community\VC\Tools\MSVC\14.29.30133\atlmfc\include\afxwin2.inl
; File D:\git\src\IBK\IBK_DRFN\ProjSrc\SrcDrfn\Chart\comparechart\control\GfxOutBarCtrl.cpp
; File C:\Program Files (x86)\Microsoft Visual Studio\2019\Community\VC\Tools\MSVC\14.29.30133\atlmfc\include\afxwin1.inl
; File C:\Program Files (x86)\Microsoft Visual Studio\2019\Community\VC\Tools\MSVC\14.29.30133\atlmfc\include\atltypes.h
; File D:\git\src\IBK\IBK_DRFN\ProjSrc\SrcDrfn\Chart\comparechart\control\GfxOutBarCtrl.cpp
; File C:\Program Files (x86)\Microsoft Visual Studio\2019\Community\VC\Tools\MSVC\14.29.30133\atlmfc\include\atltypes.h
; File D:\git\src\IBK\IBK_DRFN\ProjSrc\SrcDrfn\Chart\comparechart\control\GfxOutBarCtrl.cpp
; File C:\Program Files (x86)\Microsoft Visual Studio\2019\Community\VC\Tools\MSVC\14.29.30133\atlmfc\include\atltypes.h
; File C:\Program Files (x86)\Microsoft Visual Studio\2019\Community\VC\Tools\MSVC\14.29.30133\atlmfc\include\afxcoll.inl
; File D:\git\src\IBK\IBK_DRFN\ProjSrc\SrcDrfn\Chart\comparechart\control\GfxOutBarCtrl.cpp
; File C:\Program Files (x86)\Microsoft Visual Studio\2019\Community\VC\Tools\MSVC\14.29.30133\atlmfc\include\afxcoll.inl
; File D:\git\src\IBK\IBK_DRFN\ProjSrc\SrcDrfn\Chart\comparechart\control\GfxOutBarCtrl.cpp
; File C:\Program Files (x86)\Microsoft Visual Studio\2019\Community\VC\Tools\MSVC\14.29.30133\atlmfc\include\afxwin2.inl
; File C:\Program Files (x86)\Microsoft Visual Studio\2019\Community\VC\Tools\MSVC\14.29.30133\atlmfc\include\atltypes.h
; File C:\Program Files (x86)\Microsoft Visual Studio\2019\Community\VC\Tools\MSVC\14.29.30133\atlmfc\include\afxwin2.inl
; File D:\git\src\IBK\IBK_DRFN\ProjSrc\SrcDrfn\Chart\comparechart\control\GfxOutBarCtrl.cpp
; File C:\Program Files (x86)\Microsoft Visual Studio\2019\Community\VC\Tools\MSVC\14.29.30133\atlmfc\include\atltypes.h
; File C:\Program Files (x86)\Microsoft Visual Studio\2019\Community\VC\Tools\MSVC\14.29.30133\atlmfc\include\afxwin2.inl
; File C:\Program Files (x86)\Microsoft Visual Studio\2019\Community\VC\Tools\MSVC\14.29.30133\atlmfc\include\atltypes.h
; File C:\Program Files (x86)\Microsoft Visual Studio\2019\Community\VC\Tools\MSVC\14.29.30133\atlmfc\include\afxwin2.inl
; File C:\Program Files (x86)\Microsoft Visual Studio\2019\Community\VC\Tools\MSVC\14.29.30133\atlmfc\include\atltypes.h
; File D:\git\src\IBK\IBK_DRFN\ProjSrc\SrcDrfn\Chart\comparechart\control\GfxOutBarCtrl.cpp
; File C:\Program Files (x86)\Microsoft Visual Studio\2019\Community\VC\Tools\MSVC\14.29.30133\atlmfc\include\atltypes.h
; File C:\Program Files (x86)\Microsoft Visual Studio\2019\Community\VC\Tools\MSVC\14.29.30133\atlmfc\include\afxcoll.inl
; File D:\git\src\IBK\IBK_DRFN\ProjSrc\SrcDrfn\Chart\comparechart\control\GfxOutBarCtrl.cpp
; File C:\Program Files (x86)\Microsoft Visual Studio\2019\Community\VC\Tools\MSVC\14.29.30133\atlmfc\include\afxcoll.inl
; File D:\git\src\IBK\IBK_DRFN\ProjSrc\SrcDrfn\Chart\comparechart\control\GfxOutBarCtrl.cpp
; File C:\Program Files (x86)\Microsoft Visual Studio\2019\Community\VC\Tools\MSVC\14.29.30133\atlmfc\include\afxwin2.inl
; File C:\Program Files (x86)\Microsoft Visual Studio\2019\Community\VC\Tools\MSVC\14.29.30133\atlmfc\include\atltypes.h
; File C:\Program Files (x86)\Microsoft Visual Studio\2019\Community\VC\Tools\MSVC\14.29.30133\atlmfc\include\afxwin2.inl
; File D:\git\src\IBK\IBK_DRFN\ProjSrc\SrcDrfn\Chart\comparechart\control\GfxOutBarCtrl.cpp
; File C:\Program Files (x86)\Microsoft Visual Studio\2019\Community\VC\Tools\MSVC\14.29.30133\atlmfc\include\afxwin2.inl
; File D:\git\src\IBK\IBK_DRFN\ProjSrc\SrcDrfn\Chart\comparechart\control\GfxOutBarCtrl.cpp
; File C:\Program Files (x86)\Microsoft Visual Studio\2019\Community\VC\Tools\MSVC\14.29.30133\atlmfc\include\afxwin2.inl
; File D:\git\src\IBK\IBK_DRFN\ProjSrc\SrcDrfn\Chart\comparechart\control\GfxOutBarCtrl.cpp
; File C:\Program Files (x86)\Microsoft Visual Studio\2019\Community\VC\Tools\MSVC\14.29.30133\atlmfc\include\afxwin2.inl
; File D:\git\src\IBK\IBK_DRFN\ProjSrc\SrcDrfn\Chart\comparechart\control\GfxOutBarCtrl.cpp
; File C:\Program Files (x86)\Microsoft Visual Studio\2019\Community\VC\Tools\MSVC\14.29.30133\atlmfc\include\afxwin2.inl
; File D:\git\src\IBK\IBK_DRFN\ProjSrc\SrcDrfn\Chart\comparechart\control\GfxOutBarCtrl.cpp
; File C:\Program Files (x86)\Microsoft Visual Studio\2019\Community\VC\Tools\MSVC\14.29.30133\atlmfc\include\afxwin2.inl
; File D:\git\src\IBK\IBK_DRFN\ProjSrc\SrcDrfn\Chart\comparechart\control\GfxOutBarCtrl.cpp
; File C:\Program Files (x86)\Microsoft Visual Studio\2019\Community\VC\Tools\MSVC\14.29.30133\atlmfc\include\atltypes.h
; File C:\Program Files (x86)\Microsoft Visual Studio\2019\Community\VC\Tools\MSVC\14.29.30133\atlmfc\include\afxwin2.inl
; File D:\git\src\IBK\IBK_DRFN\ProjSrc\SrcDrfn\Chart\comparechart\control\GfxOutBarCtrl.cpp
; File C:\Program Files (x86)\Microsoft Visual Studio\2019\Community\VC\Tools\MSVC\14.29.30133\atlmfc\include\afxwin2.inl
; File D:\git\src\IBK\IBK_DRFN\ProjSrc\SrcDrfn\Chart\comparechart\control\GfxOutBarCtrl.cpp
; File C:\Program Files (x86)\Microsoft Visual Studio\2019\Community\VC\Tools\MSVC\14.29.30133\atlmfc\include\afxwin2.inl
; File D:\git\src\IBK\IBK_DRFN\ProjSrc\SrcDrfn\Chart\comparechart\control\GfxOutBarCtrl.cpp
; File C:\Program Files (x86)\Microsoft Visual Studio\2019\Community\VC\Tools\MSVC\14.29.30133\atlmfc\include\afxwin2.inl
; File D:\git\src\IBK\IBK_DRFN\ProjSrc\SrcDrfn\Chart\comparechart\control\GfxOutBarCtrl.cpp
; File C:\Program Files (x86)\Microsoft Visual Studio\2019\Community\VC\Tools\MSVC\14.29.30133\atlmfc\include\afxwin1.inl
; File D:\git\src\IBK\IBK_DRFN\ProjSrc\SrcDrfn\Chart\comparechart\control\GfxOutBarCtrl.cpp
; File C:\Program Files (x86)\Microsoft Visual Studio\2019\Community\VC\Tools\MSVC\14.29.30133\atlmfc\include\afxwin1.inl
; File C:\Program Files (x86)\Microsoft Visual Studio\2019\Community\VC\Tools\MSVC\14.29.30133\atlmfc\include\afxwin2.inl
; File D:\git\src\IBK\IBK_DRFN\ProjSrc\SrcDrfn\Chart\comparechart\control\GfxOutBarCtrl.cpp
; File C:\Program Files (x86)\Microsoft Visual Studio\2019\Community\VC\Tools\MSVC\14.29.30133\atlmfc\include\afxwin2.inl
; File D:\git\src\IBK\IBK_DRFN\ProjSrc\SrcDrfn\Chart\comparechart\control\GfxOutBarCtrl.cpp
; File C:\Program Files (x86)\Microsoft Visual Studio\2019\Community\VC\Tools\MSVC\14.29.30133\atlmfc\include\afxwin1.inl
; File C:\Program Files (x86)\Microsoft Visual Studio\2019\Community\VC\Tools\MSVC\14.29.30133\atlmfc\include\atltypes.h
; File D:\git\src\IBK\IBK_DRFN\ProjSrc\SrcDrfn\Chart\comparechart\control\GfxOutBarCtrl.cpp
; File C:\Program Files (x86)\Microsoft Visual Studio\2019\Community\VC\Tools\MSVC\14.29.30133\atlmfc\include\atltypes.h
; File D:\git\src\IBK\IBK_DRFN\ProjSrc\SrcDrfn\Chart\comparechart\control\GfxOutBarCtrl.cpp
; File C:\Program Files (x86)\Microsoft Visual Studio\2019\Community\VC\Tools\MSVC\14.29.30133\atlmfc\include\afxwin2.inl
; File C:\Program Files (x86)\Microsoft Visual Studio\2019\Community\VC\Tools\MSVC\14.29.30133\atlmfc\include\atltypes.h
; File C:\Program Files (x86)\Microsoft Visual Studio\2019\Community\VC\Tools\MSVC\14.29.30133\atlmfc\include\afxwin2.inl
; File D:\git\src\IBK\IBK_DRFN\ProjSrc\SrcDrfn\Chart\comparechart\control\GfxOutBarCtrl.cpp
; File C:\Program Files (x86)\Microsoft Visual Studio\2019\Community\VC\Tools\MSVC\14.29.30133\atlmfc\include\afxwin2.inl
; File D:\git\src\IBK\IBK_DRFN\ProjSrc\SrcDrfn\Chart\comparechart\control\GfxOutBarCtrl.cpp
; File C:\Program Files (x86)\Microsoft Visual Studio\2019\Community\VC\Tools\MSVC\14.29.30133\atlmfc\include\afxwin2.inl
; File D:\git\src\IBK\IBK_DRFN\ProjSrc\SrcDrfn\Chart\comparechart\control\GfxOutBarCtrl.cpp
; File C:\Program Files (x86)\Microsoft Visual Studio\2019\Community\VC\Tools\MSVC\14.29.30133\atlmfc\include\afxwin2.inl
; File D:\git\src\IBK\IBK_DRFN\ProjSrc\SrcDrfn\Chart\comparechart\control\GfxOutBarCtrl.cpp
; File C:\Program Files (x86)\Microsoft Visual Studio\2019\Community\VC\Tools\MSVC\14.29.30133\atlmfc\include\atltypes.h
; File C:\Program Files (x86)\Microsoft Visual Studio\2019\Community\VC\Tools\MSVC\14.29.30133\atlmfc\include\afxwin2.inl
; File D:\git\src\IBK\IBK_DRFN\ProjSrc\SrcDrfn\Chart\comparechart\control\GfxOutBarCtrl.cpp
; File C:\Program Files (x86)\Microsoft Visual Studio\2019\Community\VC\Tools\MSVC\14.29.30133\atlmfc\include\afxwin2.inl
; File D:\git\src\IBK\IBK_DRFN\ProjSrc\SrcDrfn\Chart\comparechart\control\GfxOutBarCtrl.cpp
; File C:\Program Files (x86)\Microsoft Visual Studio\2019\Community\VC\Tools\MSVC\14.29.30133\atlmfc\include\afxwin2.inl
; File D:\git\src\IBK\IBK_DRFN\ProjSrc\SrcDrfn\Chart\comparechart\control\GfxOutBarCtrl.cpp
; File C:\Program Files (x86)\Microsoft Visual Studio\2019\Community\VC\Tools\MSVC\14.29.30133\atlmfc\include\atltypes.h
; File C:\Program Files (x86)\Microsoft Visual Studio\2019\Community\VC\Tools\MSVC\14.29.30133\atlmfc\include\afxwin2.inl
; File C:\Program Files (x86)\Microsoft Visual Studio\2019\Community\VC\Tools\MSVC\14.29.30133\atlmfc\include\atltypes.h
; File C:\Program Files (x86)\Microsoft Visual Studio\2019\Community\VC\Tools\MSVC\14.29.30133\atlmfc\include\afxwin2.inl
; File C:\Program Files (x86)\Microsoft Visual Studio\2019\Community\VC\Tools\MSVC\14.29.30133\atlmfc\include\atltypes.h
; File D:\git\src\IBK\IBK_DRFN\ProjSrc\SrcDrfn\Chart\comparechart\control\GfxOutBarCtrl.cpp
; File C:\Program Files (x86)\Microsoft Visual Studio\2019\Community\VC\Tools\MSVC\14.29.30133\atlmfc\include\afxwin2.inl
; File C:\Program Files (x86)\Microsoft Visual Studio\2019\Community\VC\Tools\MSVC\14.29.30133\atlmfc\include\atltypes.h
; File C:\Program Files (x86)\Microsoft Visual Studio\2019\Community\VC\Tools\MSVC\14.29.30133\atlmfc\include\afxwin2.inl
; File D:\git\src\IBK\IBK_DRFN\ProjSrc\SrcDrfn\Chart\comparechart\control\GfxOutBarCtrl.cpp
; File C:\Program Files (x86)\Microsoft Visual Studio\2019\Community\VC\Tools\MSVC\14.29.30133\atlmfc\include\afxwin2.inl
; File D:\git\src\IBK\IBK_DRFN\ProjSrc\SrcDrfn\Chart\comparechart\control\GfxOutBarCtrl.cpp
; File C:\Program Files (x86)\Microsoft Visual Studio\2019\Community\VC\Tools\MSVC\14.29.30133\atlmfc\include\afxwin2.inl
; File D:\git\src\IBK\IBK_DRFN\ProjSrc\SrcDrfn\Chart\comparechart\control\GfxOutBarCtrl.cpp
;	COMDAT ?OnLButtonDblClk@CGfxOutBarCtrl@@IAEXIVCPoint@@@Z
_TEXT	SEGMENT
_msg$2 = -192						; size = 28
_dc$3 = -184						; size = 20
_dc$4 = -164						; size = 20
_dc$5 = -164						; size = 20
_dc$6 = -164						; size = 20
_msg$7 = -144						; size = 28
_msg$8 = -144						; size = 28
_msg$9 = -144						; size = 28
_bHigh$1$ = -113					; size = 1
_bHigh$1$ = -113					; size = 1
_inRc$ = -112						; size = 16
_crc$10 = -96						; size = 16
_crc$11 = -80						; size = 16
_pt$12 = -72						; size = 8
_idx$13 = -68						; size = 4
_index$ = -68						; size = 4
_crc$14 = -64						; size = 16
_itrc$15 = -64						; size = 16
_itrc$16 = -64						; size = 16
_rc$17 = -64						; size = 16
_rc$18 = -64						; size = 16
_crc$19 = -48						; size = 16
_crc$20 = -48						; size = 16
_rc$21 = -48						; size = 16
_rc$22 = -48						; size = 16
_crc$23 = -32						; size = 16
_pt$24 = -24						; size = 8
_pt$25 = -24						; size = 8
_pt$26 = -24						; size = 8
_hCur$1$ = -20						; size = 4
_ht$1$ = -20						; size = 4
_idx$27 = -20						; size = 4
__$ArrayPad$ = -16					; size = 4
__$EHRec$ = -12						; size = 12
_nFlags$ = 8						; size = 4
_point$ = 12						; size = 8
?OnLButtonDblClk@CGfxOutBarCtrl@@IAEXIVCPoint@@@Z PROC	; CGfxOutBarCtrl::OnLButtonDblClk, COMDAT
; _this$ = ecx

; 2448 : {

  00000	55		 push	 ebp
  00001	8b ec		 mov	 ebp, esp
  00003	6a ff		 push	 -1
  00005	68 00 00 00 00	 push	 __ehhandler$?OnLButtonDblClk@CGfxOutBarCtrl@@IAEXIVCPoint@@@Z
  0000a	64 a1 00 00 00
	00		 mov	 eax, DWORD PTR fs:0
  00010	50		 push	 eax
  00011	81 ec b4 00 00
	00		 sub	 esp, 180		; 000000b4H
  00017	a1 00 00 00 00	 mov	 eax, DWORD PTR ___security_cookie
  0001c	33 c5		 xor	 eax, ebp
  0001e	89 45 f0	 mov	 DWORD PTR __$ArrayPad$[ebp], eax
  00021	56		 push	 esi
  00022	57		 push	 edi
  00023	50		 push	 eax
  00024	8d 45 f4	 lea	 eax, DWORD PTR __$EHRec$[ebp]
  00027	64 a3 00 00 00
	00		 mov	 DWORD PTR fs:0, eax
  0002d	8b f1		 mov	 esi, ecx
; File C:\Program Files (x86)\Microsoft Visual Studio\2019\Community\VC\Tools\MSVC\14.29.30133\atlmfc\include\afxwin2.inl

; 165  : 	{ return CWnd::FromHandle(::GetFocus()); }

  0002f	ff 15 00 00 00
	00		 call	 DWORD PTR __imp__GetFocus@0
  00035	50		 push	 eax
  00036	e8 00 00 00 00	 call	 ?FromHandle@CWnd@@SGPAV1@PAUHWND__@@@Z ; CWnd::FromHandle
; File D:\git\src\IBK\IBK_DRFN\ProjSrc\SrcDrfn\Chart\comparechart\control\GfxOutBarCtrl.cpp

; 2449 : 	if (GetFocus() != this) SetFocus();

  0003b	3b c6		 cmp	 eax, esi
  0003d	74 07		 je	 SHORT $LN22@OnLButtonD
  0003f	8b ce		 mov	 ecx, esi
  00041	e8 00 00 00 00	 call	 ?SetFocus@CWnd@@QAEPAV1@XZ ; CWnd::SetFocus
$LN22@OnLButtonD:

; 2450 : 
; 2451 : 	int index, ht = HitTestEx(point, index);

  00046	8d 45 bc	 lea	 eax, DWORD PTR _index$[ebp]
  00049	8b ce		 mov	 ecx, esi
  0004b	50		 push	 eax
  0004c	8d 45 0c	 lea	 eax, DWORD PTR _point$[ebp]
  0004f	50		 push	 eax
  00050	e8 00 00 00 00	 call	 ?HitTestEx@CGfxOutBarCtrl@@QAEHABVCPoint@@AAH@Z ; CGfxOutBarCtrl::HitTestEx
  00055	89 45 ec	 mov	 DWORD PTR _ht$1$[ebp], eax
  00058	0f 57 c0	 xorps	 xmm0, xmm0
; File C:\Program Files (x86)\Microsoft Visual Studio\2019\Community\VC\Tools\MSVC\14.29.30133\atlmfc\include\afxwin2.inl

; 86   : 	{ ASSERT(::IsWindow(m_hWnd)); ::GetClientRect(m_hWnd, lpRect); }

  0005b	8d 45 90	 lea	 eax, DWORD PTR _inRc$[ebp]
; File D:\git\src\IBK\IBK_DRFN\ProjSrc\SrcDrfn\Chart\comparechart\control\GfxOutBarCtrl.cpp

; 2452 : 	iLastDragItemDrawType = -1;

  0005e	c7 86 30 01 00
	00 ff ff ff ff	 mov	 DWORD PTR [esi+304], -1
; File C:\Program Files (x86)\Microsoft Visual Studio\2019\Community\VC\Tools\MSVC\14.29.30133\atlmfc\include\afxwin2.inl

; 86   : 	{ ASSERT(::IsWindow(m_hWnd)); ::GetClientRect(m_hWnd, lpRect); }

  00068	50		 push	 eax
  00069	ff 76 20	 push	 DWORD PTR [esi+32]
; File C:\Program Files (x86)\Microsoft Visual Studio\2019\Community\VC\Tools\MSVC\14.29.30133\atlmfc\include\atltypes.h

; 528  : 	left = 0;

  0006c	0f 11 45 90	 movups	 XMMWORD PTR _inRc$[ebp], xmm0
; File C:\Program Files (x86)\Microsoft Visual Studio\2019\Community\VC\Tools\MSVC\14.29.30133\atlmfc\include\afxwin2.inl

; 86   : 	{ ASSERT(::IsWindow(m_hWnd)); ::GetClientRect(m_hWnd, lpRect); }

  00070	ff 15 00 00 00
	00		 call	 DWORD PTR __imp__GetClientRect@8
; File D:\git\src\IBK\IBK_DRFN\ProjSrc\SrcDrfn\Chart\comparechart\control\GfxOutBarCtrl.cpp

; 746  : 	if (arFolder.GetSize() > 0)

  00076	8b be 0c 01 00
	00		 mov	 edi, DWORD PTR [esi+268]
  0007c	85 ff		 test	 edi, edi
  0007e	7e 1e		 jle	 SHORT $LN363@OnLButtonD

; 747  : 	{
; 748  : 		int max = arFolder.GetSize();
; 749  : 		rect.top += iFolderHeight * (iSelFolder + 1); + 1;//+ 2;

  00080	8b 8e 34 01 00
	00		 mov	 ecx, DWORD PTR [esi+308]

; 750  : 		rect.bottom -= (max - iSelFolder - 1)*iFolderHeight;

  00086	2b f9		 sub	 edi, ecx
  00088	8b 96 a0 00 00
	00		 mov	 edx, DWORD PTR [esi+160]
  0008e	4f		 dec	 edi
  0008f	0f af fa	 imul	 edi, edx
  00092	8d 41 01	 lea	 eax, DWORD PTR [ecx+1]
  00095	0f af c2	 imul	 eax, edx
  00098	01 45 94	 add	 DWORD PTR _inRc$[ebp+4], eax
  0009b	29 7d 9c	 sub	 DWORD PTR _inRc$[ebp+12], edi
$LN363@OnLButtonD:

; 2453 : 
; 2454 : 	CRect inRc;
; 2455 : 	GetInsideRect(inRc);
; 2456 : 
; 2457 : 	if (ht == htFolder)

  0009e	8b 7d ec	 mov	 edi, DWORD PTR _ht$1$[ebp]
  000a1	8b 0d 00 00 00
	00		 mov	 ecx, DWORD PTR __imp__GetCapture@0
  000a7	85 ff		 test	 edi, edi
  000a9	0f 85 87 01 00
	00		 jne	 $LN23@OnLButtonD

; 2461 : 		GetFolderRect(index, rc);

  000af	8d 45 d0	 lea	 eax, DWORD PTR _rc$22[ebp]
  000b2	c6 45 8f 01	 mov	 BYTE PTR _bHigh$1$[ebp], 1
  000b6	50		 push	 eax
  000b7	ff 75 bc	 push	 DWORD PTR _index$[ebp]
  000ba	0f 57 c0	 xorps	 xmm0, xmm0
  000bd	8b ce		 mov	 ecx, esi
; File C:\Program Files (x86)\Microsoft Visual Studio\2019\Community\VC\Tools\MSVC\14.29.30133\atlmfc\include\atltypes.h

; 528  : 	left = 0;

  000bf	0f 11 45 d0	 movups	 XMMWORD PTR _rc$22[ebp], xmm0
; File D:\git\src\IBK\IBK_DRFN\ProjSrc\SrcDrfn\Chart\comparechart\control\GfxOutBarCtrl.cpp

; 2461 : 		GetFolderRect(index, rc);

  000c3	e8 00 00 00 00	 call	 ?GetFolderRect@CGfxOutBarCtrl@@QBE_NHAAVCRect@@@Z ; CGfxOutBarCtrl::GetFolderRect

; 2462 : 
; 2463 : 		if (::GetCapture() == NULL)

  000c8	ff 15 00 00 00
	00		 call	 DWORD PTR __imp__GetCapture@0
  000ce	85 c0		 test	 eax, eax
  000d0	0f 85 00 01 00
	00		 jne	 $LN356@OnLButtonD
; File C:\Program Files (x86)\Microsoft Visual Studio\2019\Community\VC\Tools\MSVC\14.29.30133\atlmfc\include\afxwin2.inl

; 163  : 	{ ASSERT(::IsWindow(m_hWnd)); return CWnd::FromHandle(::SetCapture(m_hWnd)); }

  000d6	ff 76 20	 push	 DWORD PTR [esi+32]
  000d9	ff 15 00 00 00
	00		 call	 DWORD PTR __imp__SetCapture@4
  000df	50		 push	 eax
  000e0	e8 00 00 00 00	 call	 ?FromHandle@CWnd@@SGPAV1@PAUHWND__@@@Z ; CWnd::FromHandle
; File D:\git\src\IBK\IBK_DRFN\ProjSrc\SrcDrfn\Chart\comparechart\control\GfxOutBarCtrl.cpp

; 2467 : 			CClientDC dc(this);

  000e5	56		 push	 esi
  000e6	8d 8d 5c ff ff
	ff		 lea	 ecx, DWORD PTR _dc$6[ebp]
  000ec	e8 00 00 00 00	 call	 ??0CClientDC@@QAE@PAVCWnd@@@Z ; CClientDC::CClientDC

; 2468 : 			DrawFolder(&dc, index, rc, true);

  000f1	0f 10 45 d0	 movups	 xmm0, XMMWORD PTR _rc$22[ebp]
  000f5	6a 01		 push	 1
  000f7	83 ec 10	 sub	 esp, 16			; 00000010H
  000fa	c7 45 fc 00 00
	00 00		 mov	 DWORD PTR __$EHRec$[ebp+8], 0
  00101	8b c4		 mov	 eax, esp
  00103	8b ce		 mov	 ecx, esi
  00105	ff 75 bc	 push	 DWORD PTR _index$[ebp]
  00108	0f 11 00	 movups	 XMMWORD PTR [eax], xmm0
  0010b	8d 85 5c ff ff
	ff		 lea	 eax, DWORD PTR _dc$6[ebp]
  00111	50		 push	 eax
  00112	e8 00 00 00 00	 call	 ?DrawFolder@CGfxOutBarCtrl@@IAEXPAVCDC@@HVCRect@@_N@Z ; CGfxOutBarCtrl::DrawFolder

; 2469 : 			AfxLockTempMaps();

  00117	e8 00 00 00 00	 call	 ?AfxLockTempMaps@@YGXXZ	; AfxLockTempMaps

; 2470 : 			for (;;)
; 2471 : 			{
; 2472 : 				MSG msg;
; 2473 : 				VERIFY(::GetMessage(&msg, NULL, 0, 0));

  0011c	6a 00		 push	 0
  0011e	6a 00		 push	 0
  00120	6a 00		 push	 0
  00122	8d 85 70 ff ff
	ff		 lea	 eax, DWORD PTR _msg$9[ebp]
  00128	50		 push	 eax
  00129	ff 15 00 00 00
	00		 call	 DWORD PTR __imp__GetMessageA@16
; File C:\Program Files (x86)\Microsoft Visual Studio\2019\Community\VC\Tools\MSVC\14.29.30133\atlmfc\include\afxwin2.inl

; 161  : 	{ return CWnd::FromHandle(::GetCapture()); }

  0012f	ff 15 00 00 00
	00		 call	 DWORD PTR __imp__GetCapture@0
  00135	50		 push	 eax
  00136	e8 00 00 00 00	 call	 ?FromHandle@CWnd@@SGPAV1@PAUHWND__@@@Z ; CWnd::FromHandle
; File D:\git\src\IBK\IBK_DRFN\ProjSrc\SrcDrfn\Chart\comparechart\control\GfxOutBarCtrl.cpp

; 2475 : 				if (CWnd::GetCapture() != this) break;

  0013b	3b c6		 cmp	 eax, esi
  0013d	75 6e		 jne	 SHORT $ExitLoop2$378
  0013f	90		 npad	 1
$LL2@OnLButtonD:

; 2476 : 
; 2477 : 				switch (msg.message)

  00140	8b 85 74 ff ff
	ff		 mov	 eax, DWORD PTR _msg$9[ebp+4]
  00146	3d 00 01 00 00	 cmp	 eax, 256		; 00000100H
  0014b	0f 84 a3 00 00
	00		 je	 $LN30@OnLButtonD
  00151	3d 02 02 00 00	 cmp	 eax, 514		; 00000202H
  00156	0f 85 a1 00 00
	00		 jne	 $LN31@OnLButtonD

; 2478 : 				{
; 2479 : 				//case WM_MOUSEMOVE:
; 2480 : 				//	{
; 2481 : 				//		CPoint pt(msg.lParam);
; 2482 : 				//		int idx, ht1 = HitTestEx(pt, idx);
; 2483 : 				//		if (ht1 == htFolder && idx == index)
; 2484 : 				//		{
; 2485 : 				//			if (!bHigh)
; 2486 : 				//			{
; 2487 : 				//				DrawFolder(&dc, index, rc, true);
; 2488 : 				//				bHigh = true;
; 2489 : 				//			}
; 2490 : 				//		}
; 2491 : 				//		else
; 2492 : 				//		{
; 2493 : 				//			if (bHigh)
; 2494 : 				//			{
; 2495 : 				//				DrawFolder(&dc, index, rc, false);
; 2496 : 				//				bHigh = false;
; 2497 : 				//			}
; 2498 : 				//		}
; 2499 : 				//	}
; 2500 : 				//	break;
; 2501 : 
; 2502 : 				case WM_LBUTTONUP:
; 2503 : 					{
; 2504 : 						if (bHigh)
; 2505 : 						{
; 2506 : 							DrawFolder(&dc, index, rc, true);

  0015c	0f 10 45 d0	 movups	 xmm0, XMMWORD PTR _rc$22[ebp]
  00160	6a 01		 push	 1
  00162	83 ec 10	 sub	 esp, 16			; 00000010H
  00165	8b ce		 mov	 ecx, esi
  00167	8b c4		 mov	 eax, esp
  00169	ff 75 bc	 push	 DWORD PTR _index$[ebp]
  0016c	0f 11 00	 movups	 XMMWORD PTR [eax], xmm0
  0016f	8d 85 5c ff ff
	ff		 lea	 eax, DWORD PTR _dc$6[ebp]
  00175	50		 push	 eax
  00176	e8 00 00 00 00	 call	 ?DrawFolder@CGfxOutBarCtrl@@IAEXPAVCDC@@HVCRect@@_N@Z ; CGfxOutBarCtrl::DrawFolder
; File C:\Program Files (x86)\Microsoft Visual Studio\2019\Community\VC\Tools\MSVC\14.29.30133\atlmfc\include\atltypes.h

; 424  : 	x = (short)LOWORD(dwPoint);

  0017b	8b 8d 7c ff ff
	ff		 mov	 ecx, DWORD PTR _msg$9[ebp+12]
  00181	0f bf c1	 movsx	 eax, cx
  00184	89 45 b8	 mov	 DWORD PTR _pt$12[ebp], eax

; 425  : 	y = (short)HIWORD(dwPoint);

  00187	c1 e9 10	 shr	 ecx, 16			; 00000010H
  0018a	0f bf c1	 movsx	 eax, cx
; File D:\git\src\IBK\IBK_DRFN\ProjSrc\SrcDrfn\Chart\comparechart\control\GfxOutBarCtrl.cpp

; 2510 : 						int idx, ht1 = HitTestEx(pt, idx);

  0018d	8b ce		 mov	 ecx, esi
; File C:\Program Files (x86)\Microsoft Visual Studio\2019\Community\VC\Tools\MSVC\14.29.30133\atlmfc\include\atltypes.h

; 425  : 	y = (short)HIWORD(dwPoint);

  0018f	89 45 bc	 mov	 DWORD PTR _pt$12[ebp+4], eax
; File D:\git\src\IBK\IBK_DRFN\ProjSrc\SrcDrfn\Chart\comparechart\control\GfxOutBarCtrl.cpp

; 2510 : 						int idx, ht1 = HitTestEx(pt, idx);

  00192	8d 45 ec	 lea	 eax, DWORD PTR _idx$27[ebp]
  00195	50		 push	 eax
  00196	8d 45 b8	 lea	 eax, DWORD PTR _pt$12[ebp]
  00199	c6 45 8f 00	 mov	 BYTE PTR _bHigh$1$[ebp], 0
  0019d	50		 push	 eax
  0019e	e8 00 00 00 00	 call	 ?HitTestEx@CGfxOutBarCtrl@@QAEHABVCPoint@@AAH@Z ; CGfxOutBarCtrl::HitTestEx

; 2511 : 						SetSelFolder(idx);

  001a3	ff 75 ec	 push	 DWORD PTR _idx$27[ebp]
  001a6	8b ce		 mov	 ecx, esi
  001a8	e8 00 00 00 00	 call	 ?SetSelFolder@CGfxOutBarCtrl@@QAEXH@Z ; CGfxOutBarCtrl::SetSelFolder
$ExitLoop2$378:

; 2522 : 					break;
; 2523 : 				}
; 2524 : 			}
; 2525 : 
; 2526 : 		ExitLoop2:
; 2527 : 			ReleaseCapture();

  001ad	ff 15 00 00 00
	00		 call	 DWORD PTR __imp__ReleaseCapture@0

; 2528 : 			AfxUnlockTempMaps(FALSE);

  001b3	6a 00		 push	 0
  001b5	e8 00 00 00 00	 call	 ?AfxUnlockTempMaps@@YGHH@Z ; AfxUnlockTempMaps

; 2529 : 		}

  001ba	8d 8d 5c ff ff
	ff		 lea	 ecx, DWORD PTR _dc$6[ebp]
  001c0	c7 45 fc ff ff
	ff ff		 mov	 DWORD PTR __$EHRec$[ebp+8], -1
  001c7	e8 00 00 00 00	 call	 ??1CClientDC@@UAE@XZ	; CClientDC::~CClientDC

; 2530 : 		if (bHigh) InvalidateRect(rc, false);

  001cc	80 7d 8f 00	 cmp	 BYTE PTR _bHigh$1$[ebp], 0
  001d0	0f 84 cd 02 00
	00		 je	 $LN373@OnLButtonD
$LN356@OnLButtonD:
; File C:\Program Files (x86)\Microsoft Visual Studio\2019\Community\VC\Tools\MSVC\14.29.30133\atlmfc\include\afxwin2.inl

; 116  : 	{ ASSERT(::IsWindow(m_hWnd)); ::InvalidateRect(m_hWnd, lpRect, bErase); }

  001d6	6a 00		 push	 0
  001d8	8d 45 d0	 lea	 eax, DWORD PTR _rc$22[ebp]
  001db	50		 push	 eax
  001dc	ff 76 20	 push	 DWORD PTR [esi+32]
  001df	ff 15 00 00 00
	00		 call	 DWORD PTR __imp__InvalidateRect@12
  001e5	c7 86 24 01 00
	00 ff ff ff ff	 mov	 DWORD PTR [esi+292], -1
; File D:\git\src\IBK\IBK_DRFN\ProjSrc\SrcDrfn\Chart\comparechart\control\GfxOutBarCtrl.cpp

; 2531 : 	}

  001ef	e9 e8 07 00 00	 jmp	 $LN78@OnLButtonD
$LN30@OnLButtonD:

; 2512 : 					}
; 2513 : 
; 2514 : 					goto ExitLoop2;
; 2515 : 
; 2516 : 				case WM_KEYDOWN:	
; 2517 : 					if (msg.wParam != VK_ESCAPE) 

  001f4	83 bd 78 ff ff
	ff 1b		 cmp	 DWORD PTR _msg$9[ebp+8], 27 ; 0000001bH
  001fb	75 0d		 jne	 SHORT $LN5@OnLButtonD
$LN31@OnLButtonD:

; 2518 : 						break;
; 2519 : 
; 2520 : 				default:
; 2521 : 					DispatchMessage(&msg);

  001fd	8d 85 70 ff ff
	ff		 lea	 eax, DWORD PTR _msg$9[ebp]
  00203	50		 push	 eax
  00204	ff 15 00 00 00
	00		 call	 DWORD PTR __imp__DispatchMessageA@4
$LN5@OnLButtonD:

; 2470 : 			for (;;)
; 2471 : 			{
; 2472 : 				MSG msg;
; 2473 : 				VERIFY(::GetMessage(&msg, NULL, 0, 0));

  0020a	6a 00		 push	 0
  0020c	6a 00		 push	 0
  0020e	6a 00		 push	 0
  00210	8d 85 70 ff ff
	ff		 lea	 eax, DWORD PTR _msg$9[ebp]
  00216	50		 push	 eax
  00217	ff 15 00 00 00
	00		 call	 DWORD PTR __imp__GetMessageA@16
; File C:\Program Files (x86)\Microsoft Visual Studio\2019\Community\VC\Tools\MSVC\14.29.30133\atlmfc\include\afxwin2.inl

; 161  : 	{ return CWnd::FromHandle(::GetCapture()); }

  0021d	ff 15 00 00 00
	00		 call	 DWORD PTR __imp__GetCapture@0
  00223	50		 push	 eax
  00224	e8 00 00 00 00	 call	 ?FromHandle@CWnd@@SGPAV1@PAUHWND__@@@Z ; CWnd::FromHandle
; File D:\git\src\IBK\IBK_DRFN\ProjSrc\SrcDrfn\Chart\comparechart\control\GfxOutBarCtrl.cpp

; 2475 : 				if (CWnd::GetCapture() != this) break;

  00229	3b c6		 cmp	 eax, esi
  0022b	0f 84 0f ff ff
	ff		 je	 $LL2@OnLButtonD
  00231	e9 77 ff ff ff	 jmp	 $ExitLoop2$378
$LN23@OnLButtonD:

; 2532 : 	else iLastSelectedFolder = -1;

  00236	c7 86 1c 01 00
	00 ff ff ff ff	 mov	 DWORD PTR [esi+284], -1

; 2533 : 
; 2534 : 	if (ht == htItem)

  00240	83 ff 01	 cmp	 edi, 1
  00243	0f 85 60 02 00
	00		 jne	 $LN34@OnLButtonD

; 2539 : 		GetItemRect(iSelFolder, index, rc);

  00249	8b 7d bc	 mov	 edi, DWORD PTR _index$[ebp]
  0024c	8d 45 d0	 lea	 eax, DWORD PTR _rc$21[ebp]
  0024f	50		 push	 eax
  00250	57		 push	 edi
  00251	ff b6 34 01 00
	00		 push	 DWORD PTR [esi+308]
  00257	0f 57 c0	 xorps	 xmm0, xmm0
  0025a	c7 86 2c 01 00
	00 ff ff ff ff	 mov	 DWORD PTR [esi+300], -1
  00264	8b ce		 mov	 ecx, esi
  00266	c6 45 8f 01	 mov	 BYTE PTR _bHigh$1$[ebp], 1
; File C:\Program Files (x86)\Microsoft Visual Studio\2019\Community\VC\Tools\MSVC\14.29.30133\atlmfc\include\atltypes.h

; 528  : 	left = 0;

  0026a	0f 11 45 d0	 movups	 XMMWORD PTR _rc$21[ebp], xmm0
; File D:\git\src\IBK\IBK_DRFN\ProjSrc\SrcDrfn\Chart\comparechart\control\GfxOutBarCtrl.cpp

; 2539 : 		GetItemRect(iSelFolder, index, rc);

  0026e	e8 00 00 00 00	 call	 ?GetItemRect@CGfxOutBarCtrl@@QAEXHHAAVCRect@@@Z ; CGfxOutBarCtrl::GetItemRect

; 2540 : 
; 2541 : 		HCURSOR hCur = GetCursor();

  00273	ff 15 00 00 00
	00		 call	 DWORD PTR __imp__GetCursor@0
  00279	89 45 ec	 mov	 DWORD PTR _hCur$1$[ebp], eax

; 2542 : 
; 2543 : 		if (::GetCapture() == NULL)

  0027c	ff 15 00 00 00
	00		 call	 DWORD PTR __imp__GetCapture@0
  00282	85 c0		 test	 eax, eax
  00284	0f 85 f4 01 00
	00		 jne	 $LN36@OnLButtonD
; File C:\Program Files (x86)\Microsoft Visual Studio\2019\Community\VC\Tools\MSVC\14.29.30133\atlmfc\include\afxwin2.inl

; 163  : 	{ ASSERT(::IsWindow(m_hWnd)); return CWnd::FromHandle(::SetCapture(m_hWnd)); }

  0028a	ff 76 20	 push	 DWORD PTR [esi+32]
  0028d	ff 15 00 00 00
	00		 call	 DWORD PTR __imp__SetCapture@4
  00293	50		 push	 eax
  00294	e8 00 00 00 00	 call	 ?FromHandle@CWnd@@SGPAV1@PAUHWND__@@@Z ; CWnd::FromHandle
; File D:\git\src\IBK\IBK_DRFN\ProjSrc\SrcDrfn\Chart\comparechart\control\GfxOutBarCtrl.cpp

; 2547 : 			CClientDC dc(this);

  00299	56		 push	 esi
  0029a	8d 8d 5c ff ff
	ff		 lea	 ecx, DWORD PTR _dc$5[ebp]
  002a0	e8 00 00 00 00	 call	 ??0CClientDC@@QAE@PAVCWnd@@@Z ; CClientDC::CClientDC

; 2548 : 			HighlightItem(index, true);

  002a5	6a 01		 push	 1
  002a7	57		 push	 edi
  002a8	8b ce		 mov	 ecx, esi
  002aa	c7 45 fc 01 00
	00 00		 mov	 DWORD PTR __$EHRec$[ebp+8], 1
  002b1	e8 00 00 00 00	 call	 ?HighlightItem@CGfxOutBarCtrl@@QAEXH_N@Z ; CGfxOutBarCtrl::HighlightItem

; 2549 : 			AfxLockTempMaps();

  002b6	e8 00 00 00 00	 call	 ?AfxLockTempMaps@@YGXXZ	; AfxLockTempMaps

; 2550 : 			for (;;)
; 2551 : 			{
; 2552 : 				MSG msg;
; 2553 : 				VERIFY(::GetMessage(&msg, NULL, 0, 0));

  002bb	6a 00		 push	 0
  002bd	6a 00		 push	 0
  002bf	6a 00		 push	 0
  002c1	8d 85 70 ff ff
	ff		 lea	 eax, DWORD PTR _msg$8[ebp]
  002c7	50		 push	 eax
  002c8	ff 15 00 00 00
	00		 call	 DWORD PTR __imp__GetMessageA@16
; File C:\Program Files (x86)\Microsoft Visual Studio\2019\Community\VC\Tools\MSVC\14.29.30133\atlmfc\include\afxwin2.inl

; 161  : 	{ return CWnd::FromHandle(::GetCapture()); }

  002ce	ff 15 00 00 00
	00		 call	 DWORD PTR __imp__GetCapture@0
  002d4	50		 push	 eax
  002d5	e8 00 00 00 00	 call	 ?FromHandle@CWnd@@SGPAV1@PAUHWND__@@@Z ; CWnd::FromHandle
; File D:\git\src\IBK\IBK_DRFN\ProjSrc\SrcDrfn\Chart\comparechart\control\GfxOutBarCtrl.cpp

; 2555 : 				if (CWnd::GetCapture() != this) break;

  002da	3b c6		 cmp	 eax, esi
  002dc	0f 85 7d 01 00
	00		 jne	 $ExitLoop4$379
$LL7@OnLButtonD:

; 2556 : 
; 2557 : 				switch (msg.message)

  002e2	8b 85 74 ff ff
	ff		 mov	 eax, DWORD PTR _msg$8[ebp+4]
  002e8	83 f8 20	 cmp	 eax, 32			; 00000020H
  002eb	74 16		 je	 SHORT $LN38@OnLButtonD
  002ed	3d 02 02 00 00	 cmp	 eax, 514		; 00000202H
  002f2	74 40		 je	 SHORT $LN358@OnLButtonD

; 2666 : 									rc.InflateRect(1,1);
; 2667 : 									InvalidateRect(rc);
; 2668 : 								}
; 2669 : 
; 2670 : 								GetOwner()->SendMessage(WMU_OUTBAR_NOTIFY, NM_OB_ITEMDBCLICK, idx);
; 2671 : 							}
; 2672 : 						}
; 2673 : 						else
; 2674 : 						{
; 2675 : 							if (ht1 == htItem)
; 2676 : 							{
; 2677 : 								if (idx != index)
; 2678 : 								{
; 2679 : 									OUTBAR_INFO ob;
; 2680 : 									ob.iDragFrom = iSelFolder;
; 2681 : 									ob.iDragTo = index;
; 2682 : 									if (GetOwner()->SendMessage(WMU_OUTBAR_NOTIFY, NM_OB_DRAGITEM, (LPARAM) &ob))
; 2683 : 									{
; 2684 : 										CBarFolder * pbf = (CBarFolder *) arFolder.GetAt(iSelFolder);
; 2685 : 										CBarItem * piFrom = (CBarItem *) pbf->arItems.GetAt(index);
; 2686 : 										pbf->arItems.RemoveAt(index);
; 2687 : 										if (idx > index) idx --;
; 2688 : 										pbf->arItems.InsertAt(idx, piFrom);
; 2689 : 									}
; 2690 : 								}
; 2691 : 							}
; 2692 : 							else
; 2693 : 							{
; 2694 : 								CRect rcItem;
; 2695 : 								GetItemRect(iSelFolder, GetItemCount() - 1, rcItem);
; 2696 : 								if (pt.y > rcItem.bottom && pt.y < inRc.bottom)
; 2697 : 								{
; 2698 : 									OUTBAR_INFO ob;
; 2699 : 									ob.iDragFrom = iSelFolder;
; 2700 : 									ob.iDragTo = index;
; 2701 : 									if (GetOwner()->SendMessage(WMU_OUTBAR_NOTIFY, NM_OB_DRAGITEM, (LPARAM) &ob))
; 2702 : 									{
; 2703 : 										CBarFolder * pbf = (CBarFolder *) arFolder.GetAt(iSelFolder);
; 2704 : 										CBarItem * piFrom = (CBarItem *) pbf->arItems.GetAt(index);
; 2705 : 										pbf->arItems.RemoveAt(index);
; 2706 : 										pbf->arItems.Add((void *) piFrom);
; 2707 : 									}
; 2708 : 								}
; 2709 : 							}
; 2710 : 						}
; 2711 : 					}
; 2712 : 
; 2713 : 					goto ExitLoop4;
; 2714 : 
; 2715 : 				default:
; 2716 : 					DispatchMessage(&msg);

  002f4	8d 85 70 ff ff
	ff		 lea	 eax, DWORD PTR _msg$8[ebp]
  002fa	50		 push	 eax
  002fb	ff 15 00 00 00
	00		 call	 DWORD PTR __imp__DispatchMessageA@4
  00301	eb 09		 jmp	 SHORT $LN10@OnLButtonD
$LN38@OnLButtonD:

; 2558 : 				{
; 2559 : 				//case WM_MOUSEMOVE:
; 2560 : 				//	{
; 2561 : 				//		CPoint pt(msg.lParam);
; 2562 : 				//		int idx, ht1 = HitTestEx(pt, idx);
; 2563 : 				//		if (bDragging)
; 2564 : 				//		{
; 2565 : 				//			if (ht1 == htItem) 
; 2566 : 				//			{
; 2567 : 				//				DrawDragArrow(&dc, index, idx);
; 2568 : 				//				SetCursor(hDragCursor);
; 2569 : 				//				hCur = hDragCursor;
; 2570 : 				//			}
; 2571 : 				//			else 
; 2572 : 				//			{
; 2573 : 				//				CRect rcItem;
; 2574 : 				//				GetItemRect(iSelFolder, GetItemCount() - 1, rcItem);
; 2575 : 				//				if (pt.y > rcItem.bottom && pt.y < inRc.bottom)
; 2576 : 				//				{
; 2577 : 				//					DrawDragArrow(&dc, index, GetItemCount());
; 2578 : 				//					SetCursor(hDragCursor);
; 2579 : 				//					hCur = hDragCursor;
; 2580 : 				//				}
; 2581 : 				//				else
; 2582 : 				//				{
; 2583 : 				//					DrawDragArrow(&dc, index, -1);
; 2584 : 				//					SetCursor(hNoDragCursor);
; 2585 : 				//					hCur = hNoDragCursor;
; 2586 : 				//				}
; 2587 : 				//			}
; 2588 : 				//		}
; 2589 : 				//		else
; 2590 : 				//		{
; 2591 : 				//			if (ht1 == htItem && idx == index)
; 2592 : 				//			{
; 2593 : 				//				if (!bHigh)
; 2594 : 				//				{
; 2595 : 				//					HighlightItem(index, true);
; 2596 : 				//					bHigh = true;
; 2597 : 				//					bPressedHighlight = true;
; 2598 : 				//				}
; 2599 : 				//			}
; 2600 : 				//			else 
; 2601 : 				//			{
; 2602 : 				//				if (ht1 == htItem)
; 2603 : 				//				{
; 2604 : 				//					if (bHigh)
; 2605 : 				//					{
; 2606 : 				//						HighlightItem(index, false);
; 2607 : 				//						bHigh = false;
; 2608 : 				//						bPressedHighlight = false;
; 2609 : 				//					}
; 2610 : 				//				}
; 2611 : 				//				else
; 2612 : 				//				{
; 2613 : 				//					if (dwFlags&fDragItems)
; 2614 : 				//					{
; 2615 : 				//						HighlightItem(index, true);
; 2616 : 				//						bHigh = true;
; 2617 : 				//						bDragging = true;
; 2618 : 
; 2619 : 				//						SetCursor(hDragCursor);
; 2620 : 				//						hCur = hDragCursor;
; 2621 : 
; 2622 : 				//						bPressedHighlight = true;
; 2623 : 				//					}
; 2624 : 				//				}
; 2625 : 				//			}
; 2626 : 				//		}
; 2627 : 				//	}
; 2628 : 				//	break;
; 2629 : 
; 2630 : 				case WM_SETCURSOR:
; 2631 : 					SetCursor(hCur);

  00303	ff 75 ec	 push	 DWORD PTR _hCur$1$[ebp]
  00306	ff 15 00 00 00
	00		 call	 DWORD PTR __imp__SetCursor@4
$LN10@OnLButtonD:

; 2550 : 			for (;;)
; 2551 : 			{
; 2552 : 				MSG msg;
; 2553 : 				VERIFY(::GetMessage(&msg, NULL, 0, 0));

  0030c	6a 00		 push	 0
  0030e	6a 00		 push	 0
  00310	6a 00		 push	 0
  00312	8d 85 70 ff ff
	ff		 lea	 eax, DWORD PTR _msg$8[ebp]
  00318	50		 push	 eax
  00319	ff 15 00 00 00
	00		 call	 DWORD PTR __imp__GetMessageA@16
; File C:\Program Files (x86)\Microsoft Visual Studio\2019\Community\VC\Tools\MSVC\14.29.30133\atlmfc\include\afxwin2.inl

; 161  : 	{ return CWnd::FromHandle(::GetCapture()); }

  0031f	ff 15 00 00 00
	00		 call	 DWORD PTR __imp__GetCapture@0
  00325	50		 push	 eax
  00326	e8 00 00 00 00	 call	 ?FromHandle@CWnd@@SGPAV1@PAUHWND__@@@Z ; CWnd::FromHandle
; File D:\git\src\IBK\IBK_DRFN\ProjSrc\SrcDrfn\Chart\comparechart\control\GfxOutBarCtrl.cpp

; 2555 : 				if (CWnd::GetCapture() != this) break;

  0032b	3b c6		 cmp	 eax, esi
  0032d	74 b3		 je	 SHORT $LL7@OnLButtonD
  0032f	e9 2b 01 00 00	 jmp	 $ExitLoop4$379
$LN358@OnLButtonD:

; 2632 : 					break;
; 2633 : 
; 2634 : 				case WM_LBUTTONUP:
; 2635 : 					{
; 2636 : 						if (bHigh)
; 2637 : 						{
; 2638 : 							HighlightItem(-1);

  00334	6a 00		 push	 0
  00336	6a ff		 push	 -1
  00338	8b ce		 mov	 ecx, esi
  0033a	e8 00 00 00 00	 call	 ?HighlightItem@CGfxOutBarCtrl@@QAEXH_N@Z ; CGfxOutBarCtrl::HighlightItem
; File C:\Program Files (x86)\Microsoft Visual Studio\2019\Community\VC\Tools\MSVC\14.29.30133\atlmfc\include\atltypes.h

; 424  : 	x = (short)LOWORD(dwPoint);

  0033f	8b 8d 7c ff ff
	ff		 mov	 ecx, DWORD PTR _msg$8[ebp+12]
  00345	0f bf c1	 movsx	 eax, cx
  00348	89 45 e8	 mov	 DWORD PTR _pt$26[ebp], eax

; 425  : 	y = (short)HIWORD(dwPoint);

  0034b	c1 e9 10	 shr	 ecx, 16			; 00000010H
  0034e	0f bf c1	 movsx	 eax, cx
; File D:\git\src\IBK\IBK_DRFN\ProjSrc\SrcDrfn\Chart\comparechart\control\GfxOutBarCtrl.cpp

; 2642 : 						int idx, ht1 = HitTestEx(pt, idx);

  00351	8b ce		 mov	 ecx, esi
; File C:\Program Files (x86)\Microsoft Visual Studio\2019\Community\VC\Tools\MSVC\14.29.30133\atlmfc\include\atltypes.h

; 425  : 	y = (short)HIWORD(dwPoint);

  00353	89 45 ec	 mov	 DWORD PTR _pt$26[ebp+4], eax
; File D:\git\src\IBK\IBK_DRFN\ProjSrc\SrcDrfn\Chart\comparechart\control\GfxOutBarCtrl.cpp

; 2642 : 						int idx, ht1 = HitTestEx(pt, idx);

  00356	8d 45 bc	 lea	 eax, DWORD PTR _idx$13[ebp]
  00359	50		 push	 eax
  0035a	8d 45 e8	 lea	 eax, DWORD PTR _pt$26[ebp]
  0035d	c6 45 8f 00	 mov	 BYTE PTR _bHigh$1$[ebp], 0
  00361	50		 push	 eax
  00362	e8 00 00 00 00	 call	 ?HitTestEx@CGfxOutBarCtrl@@QAEHABVCPoint@@AAH@Z ; CGfxOutBarCtrl::HitTestEx

; 2643 : 						if (!bDragging)
; 2644 : 						{
; 2645 : 							if (ht1 == htItem && idx == index) 

  00367	83 f8 01	 cmp	 eax, 1
  0036a	0f 85 ef 00 00
	00		 jne	 $ExitLoop4$379
  00370	39 7d bc	 cmp	 DWORD PTR _idx$13[ebp], edi
  00373	0f 85 e6 00 00
	00		 jne	 $ExitLoop4$379

; 2646 : 							{
; 2647 : 								if (iSelAnimTiming > 0 && index != iLastSel && iLastSel >= 0)

  00379	83 be f8 00 00
	00 00		 cmp	 DWORD PTR [esi+248], 0
  00380	7e 1a		 jle	 SHORT $LN44@OnLButtonD
  00382	8b 86 f4 00 00
	00		 mov	 eax, DWORD PTR [esi+244]
  00388	3b f8		 cmp	 edi, eax
  0038a	74 10		 je	 SHORT $LN44@OnLButtonD
  0038c	85 c0		 test	 eax, eax
  0038e	78 0c		 js	 SHORT $LN44@OnLButtonD

; 2648 : 								{
; 2649 : 									DrawAnimItem(0, 0, iLastSel);

  00390	50		 push	 eax
  00391	6a 00		 push	 0
  00393	6a 00		 push	 0
  00395	8b ce		 mov	 ecx, esi
  00397	e8 00 00 00 00	 call	 ?DrawAnimItem@CGfxOutBarCtrl@@QAEXHHH@Z ; CGfxOutBarCtrl::DrawAnimItem
$LN44@OnLButtonD:

; 2650 : 								}
; 2651 : 
; 2652 : 								if (dwFlags&fSelHighlight && iLastSel >= 0)

  0039c	8b 86 00 01 00
	00		 mov	 eax, DWORD PTR [esi+256]
  003a2	a9 00 02 00 00	 test	 eax, 512		; 00000200H
  003a7	74 46		 je	 SHORT $LN45@OnLButtonD
  003a9	8b 8e f4 00 00
	00		 mov	 ecx, DWORD PTR [esi+244]
  003af	85 c9		 test	 ecx, ecx
  003b1	78 3c		 js	 SHORT $LN45@OnLButtonD

; 2655 : 									GetIconRect(iSelFolder, iLastSel, rc);

  003b3	8d 45 c0	 lea	 eax, DWORD PTR _rc$18[ebp]
  003b6	0f 57 c0	 xorps	 xmm0, xmm0
  003b9	50		 push	 eax
  003ba	51		 push	 ecx
  003bb	ff b6 34 01 00
	00		 push	 DWORD PTR [esi+308]
  003c1	8b ce		 mov	 ecx, esi
; File C:\Program Files (x86)\Microsoft Visual Studio\2019\Community\VC\Tools\MSVC\14.29.30133\atlmfc\include\atltypes.h

; 528  : 	left = 0;

  003c3	0f 11 45 c0	 movups	 XMMWORD PTR _rc$18[ebp], xmm0
; File D:\git\src\IBK\IBK_DRFN\ProjSrc\SrcDrfn\Chart\comparechart\control\GfxOutBarCtrl.cpp

; 2655 : 									GetIconRect(iSelFolder, iLastSel, rc);

  003c7	e8 00 00 00 00	 call	 ?GetIconRect@CGfxOutBarCtrl@@QAEXHHAAVCRect@@@Z ; CGfxOutBarCtrl::GetIconRect
; File C:\Program Files (x86)\Microsoft Visual Studio\2019\Community\VC\Tools\MSVC\14.29.30133\atlmfc\include\atltypes.h

; 686  : 	::InflateRect(this, x, y);

  003cc	6a 01		 push	 1
  003ce	6a 01		 push	 1
  003d0	8d 45 c0	 lea	 eax, DWORD PTR _rc$18[ebp]
  003d3	50		 push	 eax
  003d4	ff 15 00 00 00
	00		 call	 DWORD PTR __imp__InflateRect@12
; File C:\Program Files (x86)\Microsoft Visual Studio\2019\Community\VC\Tools\MSVC\14.29.30133\atlmfc\include\afxwin2.inl

; 116  : 	{ ASSERT(::IsWindow(m_hWnd)); ::InvalidateRect(m_hWnd, lpRect, bErase); }

  003da	6a 01		 push	 1
  003dc	8d 45 c0	 lea	 eax, DWORD PTR _rc$18[ebp]
  003df	50		 push	 eax
  003e0	ff 76 20	 push	 DWORD PTR [esi+32]
  003e3	ff 15 00 00 00
	00		 call	 DWORD PTR __imp__InvalidateRect@12
  003e9	8b 86 00 01 00
	00		 mov	 eax, DWORD PTR [esi+256]
$LN45@OnLButtonD:
; File D:\git\src\IBK\IBK_DRFN\ProjSrc\SrcDrfn\Chart\comparechart\control\GfxOutBarCtrl.cpp

; 2660 : 								iLastSel = index;

  003ef	89 be f4 00 00
	00		 mov	 DWORD PTR [esi+244], edi

; 2661 : 
; 2662 : 								if (dwFlags&fSelHighlight && iLastSel >= 0)

  003f5	a9 00 02 00 00	 test	 eax, 512		; 00000200H
  003fa	74 3a		 je	 SHORT $LN46@OnLButtonD
  003fc	85 ff		 test	 edi, edi
  003fe	78 36		 js	 SHORT $LN46@OnLButtonD

; 2665 : 									GetIconRect(iSelFolder, iLastSel, rc);

  00400	8d 45 c0	 lea	 eax, DWORD PTR _rc$17[ebp]
  00403	0f 57 c0	 xorps	 xmm0, xmm0
  00406	50		 push	 eax
  00407	57		 push	 edi
  00408	ff b6 34 01 00
	00		 push	 DWORD PTR [esi+308]
  0040e	8b ce		 mov	 ecx, esi
; File C:\Program Files (x86)\Microsoft Visual Studio\2019\Community\VC\Tools\MSVC\14.29.30133\atlmfc\include\atltypes.h

; 528  : 	left = 0;

  00410	0f 11 45 c0	 movups	 XMMWORD PTR _rc$17[ebp], xmm0
; File D:\git\src\IBK\IBK_DRFN\ProjSrc\SrcDrfn\Chart\comparechart\control\GfxOutBarCtrl.cpp

; 2665 : 									GetIconRect(iSelFolder, iLastSel, rc);

  00414	e8 00 00 00 00	 call	 ?GetIconRect@CGfxOutBarCtrl@@QAEXHHAAVCRect@@@Z ; CGfxOutBarCtrl::GetIconRect
; File C:\Program Files (x86)\Microsoft Visual Studio\2019\Community\VC\Tools\MSVC\14.29.30133\atlmfc\include\atltypes.h

; 686  : 	::InflateRect(this, x, y);

  00419	6a 01		 push	 1
  0041b	6a 01		 push	 1
  0041d	8d 45 c0	 lea	 eax, DWORD PTR _rc$17[ebp]
  00420	50		 push	 eax
  00421	ff 15 00 00 00
	00		 call	 DWORD PTR __imp__InflateRect@12
; File C:\Program Files (x86)\Microsoft Visual Studio\2019\Community\VC\Tools\MSVC\14.29.30133\atlmfc\include\afxwin2.inl

; 116  : 	{ ASSERT(::IsWindow(m_hWnd)); ::InvalidateRect(m_hWnd, lpRect, bErase); }

  00427	6a 01		 push	 1
  00429	8d 45 c0	 lea	 eax, DWORD PTR _rc$17[ebp]
  0042c	50		 push	 eax
  0042d	ff 76 20	 push	 DWORD PTR [esi+32]
  00430	ff 15 00 00 00
	00		 call	 DWORD PTR __imp__InvalidateRect@12
$LN46@OnLButtonD:

; 27   : 	{ return m_hWndOwner != NULL ? CWnd::FromHandle(m_hWndOwner) : GetParent(); }

  00436	8b 46 5c	 mov	 eax, DWORD PTR [esi+92]
  00439	85 c0		 test	 eax, eax
  0043b	75 09		 jne	 SHORT $LN143@OnLButtonD

; 213  : 	{ ASSERT(::IsWindow(m_hWnd)); return CWnd::FromHandle(::GetParent(m_hWnd)); }

  0043d	ff 76 20	 push	 DWORD PTR [esi+32]
  00440	ff 15 00 00 00
	00		 call	 DWORD PTR __imp__GetParent@4
$LN143@OnLButtonD:

; 32   : 	{ ASSERT(::IsWindow(m_hWnd)); return ::SendMessage(m_hWnd, message, wParam, lParam); }

  00446	50		 push	 eax
  00447	e8 00 00 00 00	 call	 ?FromHandle@CWnd@@SGPAV1@PAUHWND__@@@Z ; CWnd::FromHandle
  0044c	ff 75 bc	 push	 DWORD PTR _idx$13[ebp]
  0044f	6a 06		 push	 6
  00451	68 c1 08 00 00	 push	 2241			; 000008c1H
  00456	ff 70 20	 push	 DWORD PTR [eax+32]
  00459	ff 15 00 00 00
	00		 call	 DWORD PTR __imp__SendMessageA@16
$ExitLoop4$379:
; File D:\git\src\IBK\IBK_DRFN\ProjSrc\SrcDrfn\Chart\comparechart\control\GfxOutBarCtrl.cpp

; 2722 : 			ReleaseCapture();

  0045f	ff 15 00 00 00
	00		 call	 DWORD PTR __imp__ReleaseCapture@0

; 2723 : 			AfxUnlockTempMaps(FALSE);

  00465	6a 00		 push	 0
  00467	e8 00 00 00 00	 call	 ?AfxUnlockTempMaps@@YGHH@Z ; AfxUnlockTempMaps

; 2724 : 			if (bDragging) 
; 2725 : 			{
; 2726 : 				Invalidate();
; 2727 : 			}
; 2728 : 		}

  0046c	8d 8d 5c ff ff
	ff		 lea	 ecx, DWORD PTR _dc$5[ebp]
  00472	c7 45 fc ff ff
	ff ff		 mov	 DWORD PTR __$EHRec$[ebp+8], -1
  00479	e8 00 00 00 00	 call	 ??1CClientDC@@UAE@XZ	; CClientDC::~CClientDC
$LN36@OnLButtonD:

; 2729 : 		bPressedHighlight = false;
; 2730 : 		if (bHigh) InvalidateRect(rc, false);

  0047e	80 7d 8f 00	 cmp	 BYTE PTR _bHigh$1$[ebp], 0
  00482	c6 86 28 01 00
	00 00		 mov	 BYTE PTR [esi+296], 0
  00489	0f 84 4d 05 00
	00		 je	 $LN78@OnLButtonD
; File C:\Program Files (x86)\Microsoft Visual Studio\2019\Community\VC\Tools\MSVC\14.29.30133\atlmfc\include\afxwin2.inl

; 116  : 	{ ASSERT(::IsWindow(m_hWnd)); ::InvalidateRect(m_hWnd, lpRect, bErase); }

  0048f	6a 00		 push	 0
  00491	8d 45 d0	 lea	 eax, DWORD PTR _rc$21[ebp]
  00494	50		 push	 eax
  00495	ff 76 20	 push	 DWORD PTR [esi+32]
  00498	ff 15 00 00 00
	00		 call	 DWORD PTR __imp__InvalidateRect@12
; File D:\git\src\IBK\IBK_DRFN\ProjSrc\SrcDrfn\Chart\comparechart\control\GfxOutBarCtrl.cpp

; 2731 : 	}

  0049e	e9 39 05 00 00	 jmp	 $LN78@OnLButtonD
$LN373@OnLButtonD:

; 2530 : 		if (bHigh) InvalidateRect(rc, false);

  004a3	8b 0d 00 00 00
	00		 mov	 ecx, DWORD PTR __imp__GetCapture@0
$LN34@OnLButtonD:

; 2732 : 	else iLastItemHighlighted = -1;

  004a9	c7 86 24 01 00
	00 ff ff ff ff	 mov	 DWORD PTR [esi+292], -1

; 2733 : 
; 2734 : 	if (ht == htDownScroll)

  004b3	83 ff 03	 cmp	 edi, 3
  004b6	0f 85 4e 03 00
	00		 jne	 $LN59@OnLButtonD

; 2735 : 	{
; 2736 : 		bLooping = true;

  004bc	c6 86 e4 00 00
	00 01		 mov	 BYTE PTR [esi+228], 1

; 2737 : 		bool bHigh = true;
; 2738 : 
; 2739 : 		if (::GetCapture() == NULL)

  004c3	ff d1		 call	 ecx
  004c5	85 c0		 test	 eax, eax
  004c7	0f 85 0f 05 00
	00		 jne	 $LN78@OnLButtonD
; File C:\Program Files (x86)\Microsoft Visual Studio\2019\Community\VC\Tools\MSVC\14.29.30133\atlmfc\include\afxwin2.inl

; 163  : 	{ ASSERT(::IsWindow(m_hWnd)); return CWnd::FromHandle(::SetCapture(m_hWnd)); }

  004cd	ff 76 20	 push	 DWORD PTR [esi+32]
  004d0	ff 15 00 00 00
	00		 call	 DWORD PTR __imp__SetCapture@4
  004d6	50		 push	 eax
  004d7	e8 00 00 00 00	 call	 ?FromHandle@CWnd@@SGPAV1@PAUHWND__@@@Z ; CWnd::FromHandle
; File D:\git\src\IBK\IBK_DRFN\ProjSrc\SrcDrfn\Chart\comparechart\control\GfxOutBarCtrl.cpp

; 2743 : 			CClientDC dc(this);

  004dc	56		 push	 esi
  004dd	8d 8d 5c ff ff
	ff		 lea	 ecx, DWORD PTR _dc$4[ebp]
  004e3	e8 00 00 00 00	 call	 ??0CClientDC@@QAE@PAVCWnd@@@Z ; CClientDC::CClientDC
; File C:\Program Files (x86)\Microsoft Visual Studio\2019\Community\VC\Tools\MSVC\14.29.30133\atlmfc\include\afxwin1.inl

; 512  : 	{ ASSERT(m_hDC != NULL); return ::DrawFrameControl(m_hDC, lpRect, nType, nState); }

  004e8	68 01 02 00 00	 push	 513			; 00000201H
  004ed	6a 03		 push	 3
; File D:\git\src\IBK\IBK_DRFN\ProjSrc\SrcDrfn\Chart\comparechart\control\GfxOutBarCtrl.cpp

; 2744 : 			dc.DrawFrameControl(rcDownArrow, DFC_SCROLL, DFCS_SCROLLDOWN|DFCS_PUSHED);

  004ef	8d be d4 00 00
	00		 lea	 edi, DWORD PTR [esi+212]
  004f5	c7 45 fc 02 00
	00 00		 mov	 DWORD PTR __$EHRec$[ebp+8], 2
; File C:\Program Files (x86)\Microsoft Visual Studio\2019\Community\VC\Tools\MSVC\14.29.30133\atlmfc\include\afxwin1.inl

; 512  : 	{ ASSERT(m_hDC != NULL); return ::DrawFrameControl(m_hDC, lpRect, nType, nState); }

  004fc	57		 push	 edi
  004fd	ff b5 60 ff ff
	ff		 push	 DWORD PTR _dc$4[ebp+4]
  00503	ff 15 00 00 00
	00		 call	 DWORD PTR __imp__DrawFrameControl@16
; File C:\Program Files (x86)\Microsoft Visual Studio\2019\Community\VC\Tools\MSVC\14.29.30133\atlmfc\include\afxwin2.inl

; 152  : 	{ ASSERT(::IsWindow(m_hWnd)); return ::SetTimer(m_hWnd, nIDEvent, nElapse,

  00509	6a 00		 push	 0
  0050b	68 2c 01 00 00	 push	 300			; 0000012cH
  00510	6a 02		 push	 2
  00512	ff 76 20	 push	 DWORD PTR [esi+32]
  00515	ff 15 00 00 00
	00		 call	 DWORD PTR __imp__SetTimer@16
; File D:\git\src\IBK\IBK_DRFN\ProjSrc\SrcDrfn\Chart\comparechart\control\GfxOutBarCtrl.cpp

; 2746 : 			AfxLockTempMaps();

  0051b	e8 00 00 00 00	 call	 ?AfxLockTempMaps@@YGXXZ	; AfxLockTempMaps

; 2747 : 			for (;;)
; 2748 : 			{
; 2749 : 				MSG msg;
; 2750 : 				VERIFY(::GetMessage(&msg, NULL, 0, 0));

  00520	6a 00		 push	 0
  00522	6a 00		 push	 0
  00524	6a 00		 push	 0
  00526	8d 85 40 ff ff
	ff		 lea	 eax, DWORD PTR _msg$2[ebp]
  0052c	50		 push	 eax
  0052d	ff 15 00 00 00
	00		 call	 DWORD PTR __imp__GetMessageA@16
; File C:\Program Files (x86)\Microsoft Visual Studio\2019\Community\VC\Tools\MSVC\14.29.30133\atlmfc\include\afxwin2.inl

; 161  : 	{ return CWnd::FromHandle(::GetCapture()); }

  00533	ff 15 00 00 00
	00		 call	 DWORD PTR __imp__GetCapture@0
  00539	50		 push	 eax
  0053a	e8 00 00 00 00	 call	 ?FromHandle@CWnd@@SGPAV1@PAUHWND__@@@Z ; CWnd::FromHandle
; File D:\git\src\IBK\IBK_DRFN\ProjSrc\SrcDrfn\Chart\comparechart\control\GfxOutBarCtrl.cpp

; 2752 : 				if (CWnd::GetCapture() != this) break;

  0053f	3b c6		 cmp	 eax, esi
  00541	0f 85 1a 02 00
	00		 jne	 $ExitLoop3$380
  00547	66 0f 1f 84 00
	00 00 00 00	 npad	 9
$LL12@OnLButtonD:

; 2753 : 
; 2754 : 				switch (msg.message)

  00550	8b 85 44 ff ff
	ff		 mov	 eax, DWORD PTR _msg$2[ebp+4]
  00556	2d 00 01 00 00	 sub	 eax, 256		; 00000100H
  0055b	0f 84 c3 01 00
	00		 je	 $LN74@OnLButtonD
  00561	83 e8 13	 sub	 eax, 19			; 00000013H
  00564	0f 84 c6 00 00
	00		 je	 $LN66@OnLButtonD
  0056a	2d ef 00 00 00	 sub	 eax, 239		; 000000efH
  0056f	0f 85 b8 01 00
	00		 jne	 $LN75@OnLButtonD
; File C:\Program Files (x86)\Microsoft Visual Studio\2019\Community\VC\Tools\MSVC\14.29.30133\atlmfc\include\afxwin1.inl

; 512  : 	{ ASSERT(m_hDC != NULL); return ::DrawFrameControl(m_hDC, lpRect, nType, nState); }

  00575	6a 01		 push	 1
  00577	6a 03		 push	 3
  00579	57		 push	 edi
  0057a	ff b5 60 ff ff
	ff		 push	 DWORD PTR _dc$4[ebp+4]
  00580	ff 15 00 00 00
	00		 call	 DWORD PTR __imp__DrawFrameControl@16
; File C:\Program Files (x86)\Microsoft Visual Studio\2019\Community\VC\Tools\MSVC\14.29.30133\atlmfc\include\atltypes.h

; 424  : 	x = (short)LOWORD(dwPoint);

  00586	8b 85 4c ff ff
	ff		 mov	 eax, DWORD PTR _msg$2[ebp+12]
  0058c	0f bf c8	 movsx	 ecx, ax

; 425  : 	y = (short)HIWORD(dwPoint);

  0058f	c1 e8 10	 shr	 eax, 16			; 00000010H
  00592	98		 cwde

; 648  : 	return ::PtInRect(this, point);

  00593	50		 push	 eax
  00594	51		 push	 ecx
  00595	57		 push	 edi
; File D:\git\src\IBK\IBK_DRFN\ProjSrc\SrcDrfn\Chart\comparechart\control\GfxOutBarCtrl.cpp

; 2789 : 						bDownArrow = false;

  00596	c6 86 c1 00 00
	00 00		 mov	 BYTE PTR [esi+193], 0
; File C:\Program Files (x86)\Microsoft Visual Studio\2019\Community\VC\Tools\MSVC\14.29.30133\atlmfc\include\atltypes.h

; 648  : 	return ::PtInRect(this, point);

  0059d	ff 15 00 00 00
	00		 call	 DWORD PTR __imp__PtInRect@12
; File D:\git\src\IBK\IBK_DRFN\ProjSrc\SrcDrfn\Chart\comparechart\control\GfxOutBarCtrl.cpp

; 2791 : 						if (rcDownArrow.PtInRect(pt))

  005a3	85 c0		 test	 eax, eax
  005a5	0f 84 b6 01 00
	00		 je	 $ExitLoop3$380

; 1460 : 	CBarFolder * pbf = (CBarFolder *) arFolder.GetAt(iSelFolder);

  005ab	8b 8e 34 01 00
	00		 mov	 ecx, DWORD PTR [esi+308]
  005b1	0f 57 c0	 xorps	 xmm0, xmm0
; File C:\Program Files (x86)\Microsoft Visual Studio\2019\Community\VC\Tools\MSVC\14.29.30133\atlmfc\include\atltypes.h

; 528  : 	left = 0;

  005b4	0f 11 45 c0	 movups	 XMMWORD PTR _itrc$16[ebp], xmm0
; File C:\Program Files (x86)\Microsoft Visual Studio\2019\Community\VC\Tools\MSVC\14.29.30133\atlmfc\include\afxcoll.inl

; 203  : 		if( nIndex < 0 || nIndex >= m_nSize )

  005b8	85 c9		 test	 ecx, ecx
  005ba	0f 88 31 05 00
	00		 js	 $LN200@OnLButtonD
  005c0	3b 8e 0c 01 00
	00		 cmp	 ecx, DWORD PTR [esi+268]
  005c6	0f 8d 25 05 00
	00		 jge	 $LN200@OnLButtonD

; 205  : 		return m_pData[nIndex]; }

  005cc	8b 86 08 01 00
	00		 mov	 eax, DWORD PTR [esi+264]
; File D:\git\src\IBK\IBK_DRFN\ProjSrc\SrcDrfn\Chart\comparechart\control\GfxOutBarCtrl.cpp

; 2794 : 							GetItemRect(iSelFolder, GetItemCount() - 1, itrc);

  005d2	8d 55 c0	 lea	 edx, DWORD PTR _itrc$16[ebp]
  005d5	52		 push	 edx
; File C:\Program Files (x86)\Microsoft Visual Studio\2019\Community\VC\Tools\MSVC\14.29.30133\atlmfc\include\afxcoll.inl

; 205  : 		return m_pData[nIndex]; }

  005d6	8b 04 88	 mov	 eax, DWORD PTR [eax+ecx*4]
; File D:\git\src\IBK\IBK_DRFN\ProjSrc\SrcDrfn\Chart\comparechart\control\GfxOutBarCtrl.cpp

; 1461 : 	return 	pbf->GetItemCount();

  005d9	8b 40 1c	 mov	 eax, DWORD PTR [eax+28]

; 2794 : 							GetItemRect(iSelFolder, GetItemCount() - 1, itrc);

  005dc	48		 dec	 eax
  005dd	50		 push	 eax
  005de	51		 push	 ecx
  005df	8b ce		 mov	 ecx, esi
  005e1	e8 00 00 00 00	 call	 ?GetItemRect@CGfxOutBarCtrl@@QAEXHHAAVCRect@@@Z ; CGfxOutBarCtrl::GetItemRect
; File C:\Program Files (x86)\Microsoft Visual Studio\2019\Community\VC\Tools\MSVC\14.29.30133\atlmfc\include\afxwin2.inl

; 86   : 	{ ASSERT(::IsWindow(m_hWnd)); ::GetClientRect(m_hWnd, lpRect); }

  005e6	8d 45 e0	 lea	 eax, DWORD PTR _crc$23[ebp]
  005e9	0f 57 c0	 xorps	 xmm0, xmm0
  005ec	50		 push	 eax
  005ed	ff 76 20	 push	 DWORD PTR [esi+32]
; File C:\Program Files (x86)\Microsoft Visual Studio\2019\Community\VC\Tools\MSVC\14.29.30133\atlmfc\include\atltypes.h

; 528  : 	left = 0;

  005f0	0f 11 45 e0	 movups	 XMMWORD PTR _crc$23[ebp], xmm0
; File C:\Program Files (x86)\Microsoft Visual Studio\2019\Community\VC\Tools\MSVC\14.29.30133\atlmfc\include\afxwin2.inl

; 86   : 	{ ASSERT(::IsWindow(m_hWnd)); ::GetClientRect(m_hWnd, lpRect); }

  005f4	ff 15 00 00 00
	00		 call	 DWORD PTR __imp__GetClientRect@8
; File D:\git\src\IBK\IBK_DRFN\ProjSrc\SrcDrfn\Chart\comparechart\control\GfxOutBarCtrl.cpp

; 746  : 	if (arFolder.GetSize() > 0)

  005fa	8b be 0c 01 00
	00		 mov	 edi, DWORD PTR [esi+268]
  00600	85 ff		 test	 edi, edi
  00602	0f 8e dc 01 00
	00		 jle	 $LN372@OnLButtonD

; 747  : 	{
; 748  : 		int max = arFolder.GetSize();
; 749  : 		rect.top += iFolderHeight * (iSelFolder + 1); + 1;//+ 2;

  00608	8b 8e 34 01 00
	00		 mov	 ecx, DWORD PTR [esi+308]

; 750  : 		rect.bottom -= (max - iSelFolder - 1)*iFolderHeight;

  0060e	2b f9		 sub	 edi, ecx
  00610	8b 96 a0 00 00
	00		 mov	 edx, DWORD PTR [esi+160]
  00616	4f		 dec	 edi
  00617	0f af fa	 imul	 edi, edx
  0061a	8d 41 01	 lea	 eax, DWORD PTR [ecx+1]
  0061d	0f af c2	 imul	 eax, edx
  00620	01 45 e4	 add	 DWORD PTR _crc$23[ebp+4], eax
  00623	8b 45 ec	 mov	 eax, DWORD PTR _crc$23[ebp+12]
  00626	2b c7		 sub	 eax, edi
  00628	89 45 ec	 mov	 DWORD PTR _crc$23[ebp+12], eax
  0062b	e9 b7 01 00 00	 jmp	 $LN365@OnLButtonD
$LN66@OnLButtonD:

; 2800 : 								InvalidateRect(crc, true);
; 2801 : 							}
; 2802 : 						}
; 2803 : 					}
; 2804 : 					goto ExitLoop3;
; 2805 : 
; 2806 : 
; 2807 : 				case WM_TIMER:
; 2808 : 					{
; 2809 : 						if (msg.wParam == 2)

  00630	83 bd 48 ff ff
	ff 02		 cmp	 DWORD PTR _msg$2[ebp+8], 2
  00637	0f 85 fd 00 00
	00		 jne	 $LN15@OnLButtonD
; File C:\Program Files (x86)\Microsoft Visual Studio\2019\Community\VC\Tools\MSVC\14.29.30133\atlmfc\include\atltypes.h

; 414  : 	*(POINT*)this = initPt;

  0063d	8b 85 54 ff ff
	ff		 mov	 eax, DWORD PTR _msg$2[ebp+20]
  00643	8b 8d 58 ff ff
	ff		 mov	 ecx, DWORD PTR _msg$2[ebp+24]
  00649	89 45 e8	 mov	 DWORD PTR _pt$25[ebp], eax
; File C:\Program Files (x86)\Microsoft Visual Studio\2019\Community\VC\Tools\MSVC\14.29.30133\atlmfc\include\afxwin2.inl

; 94   : 	{ ASSERT(::IsWindow(m_hWnd)); ::ScreenToClient(m_hWnd, lpPoint); }

  0064c	8d 45 e8	 lea	 eax, DWORD PTR _pt$25[ebp]
  0064f	50		 push	 eax
  00650	ff 76 20	 push	 DWORD PTR [esi+32]
; File C:\Program Files (x86)\Microsoft Visual Studio\2019\Community\VC\Tools\MSVC\14.29.30133\atlmfc\include\atltypes.h

; 414  : 	*(POINT*)this = initPt;

  00653	89 4d ec	 mov	 DWORD PTR _pt$25[ebp+4], ecx
; File C:\Program Files (x86)\Microsoft Visual Studio\2019\Community\VC\Tools\MSVC\14.29.30133\atlmfc\include\afxwin2.inl

; 94   : 	{ ASSERT(::IsWindow(m_hWnd)); ::ScreenToClient(m_hWnd, lpPoint); }

  00656	ff 15 00 00 00
	00		 call	 DWORD PTR __imp__ScreenToClient@8
; File C:\Program Files (x86)\Microsoft Visual Studio\2019\Community\VC\Tools\MSVC\14.29.30133\atlmfc\include\atltypes.h

; 648  : 	return ::PtInRect(this, point);

  0065c	ff 75 ec	 push	 DWORD PTR _pt$25[ebp+4]
  0065f	ff 75 e8	 push	 DWORD PTR _pt$25[ebp]
  00662	57		 push	 edi
  00663	ff 15 00 00 00
	00		 call	 DWORD PTR __imp__PtInRect@12
; File D:\git\src\IBK\IBK_DRFN\ProjSrc\SrcDrfn\Chart\comparechart\control\GfxOutBarCtrl.cpp

; 2815 : 								if (rcDownArrow.PtInRect(pt))

  00669	85 c0		 test	 eax, eax
  0066b	0f 84 aa 00 00
	00		 je	 $LN69@OnLButtonD

; 1460 : 	CBarFolder * pbf = (CBarFolder *) arFolder.GetAt(iSelFolder);

  00671	8b 8e 34 01 00
	00		 mov	 ecx, DWORD PTR [esi+308]
  00677	0f 57 c0	 xorps	 xmm0, xmm0

; 2816 : 								{
; 2817 : 									bDownPressed = true;

  0067a	c6 86 c3 00 00
	00 01		 mov	 BYTE PTR [esi+195], 1
; File C:\Program Files (x86)\Microsoft Visual Studio\2019\Community\VC\Tools\MSVC\14.29.30133\atlmfc\include\atltypes.h

; 528  : 	left = 0;

  00681	0f 11 45 c0	 movups	 XMMWORD PTR _itrc$15[ebp], xmm0
; File C:\Program Files (x86)\Microsoft Visual Studio\2019\Community\VC\Tools\MSVC\14.29.30133\atlmfc\include\afxcoll.inl

; 203  : 		if( nIndex < 0 || nIndex >= m_nSize )

  00685	85 c9		 test	 ecx, ecx
  00687	0f 88 64 04 00
	00		 js	 $LN200@OnLButtonD
  0068d	3b 8e 0c 01 00
	00		 cmp	 ecx, DWORD PTR [esi+268]
  00693	0f 8d 58 04 00
	00		 jge	 $LN200@OnLButtonD

; 205  : 		return m_pData[nIndex]; }

  00699	8b 86 08 01 00
	00		 mov	 eax, DWORD PTR [esi+264]
; File D:\git\src\IBK\IBK_DRFN\ProjSrc\SrcDrfn\Chart\comparechart\control\GfxOutBarCtrl.cpp

; 2819 : 									GetItemRect(iSelFolder, GetItemCount() - 1, itrc);

  0069f	8d 55 c0	 lea	 edx, DWORD PTR _itrc$15[ebp]
  006a2	52		 push	 edx
; File C:\Program Files (x86)\Microsoft Visual Studio\2019\Community\VC\Tools\MSVC\14.29.30133\atlmfc\include\afxcoll.inl

; 205  : 		return m_pData[nIndex]; }

  006a3	8b 04 88	 mov	 eax, DWORD PTR [eax+ecx*4]
; File D:\git\src\IBK\IBK_DRFN\ProjSrc\SrcDrfn\Chart\comparechart\control\GfxOutBarCtrl.cpp

; 1461 : 	return 	pbf->GetItemCount();

  006a6	8b 40 1c	 mov	 eax, DWORD PTR [eax+28]

; 2819 : 									GetItemRect(iSelFolder, GetItemCount() - 1, itrc);

  006a9	48		 dec	 eax
  006aa	50		 push	 eax
  006ab	51		 push	 ecx
  006ac	8b ce		 mov	 ecx, esi
  006ae	e8 00 00 00 00	 call	 ?GetItemRect@CGfxOutBarCtrl@@QAEXHHAAVCRect@@@Z ; CGfxOutBarCtrl::GetItemRect
; File C:\Program Files (x86)\Microsoft Visual Studio\2019\Community\VC\Tools\MSVC\14.29.30133\atlmfc\include\afxwin2.inl

; 86   : 	{ ASSERT(::IsWindow(m_hWnd)); ::GetClientRect(m_hWnd, lpRect); }

  006b3	8d 45 b0	 lea	 eax, DWORD PTR _crc$11[ebp]
  006b6	0f 57 c0	 xorps	 xmm0, xmm0
  006b9	50		 push	 eax
  006ba	ff 76 20	 push	 DWORD PTR [esi+32]
; File C:\Program Files (x86)\Microsoft Visual Studio\2019\Community\VC\Tools\MSVC\14.29.30133\atlmfc\include\atltypes.h

; 528  : 	left = 0;

  006bd	0f 11 45 b0	 movups	 XMMWORD PTR _crc$11[ebp], xmm0
; File C:\Program Files (x86)\Microsoft Visual Studio\2019\Community\VC\Tools\MSVC\14.29.30133\atlmfc\include\afxwin2.inl

; 86   : 	{ ASSERT(::IsWindow(m_hWnd)); ::GetClientRect(m_hWnd, lpRect); }

  006c1	ff 15 00 00 00
	00		 call	 DWORD PTR __imp__GetClientRect@8
; File D:\git\src\IBK\IBK_DRFN\ProjSrc\SrcDrfn\Chart\comparechart\control\GfxOutBarCtrl.cpp

; 746  : 	if (arFolder.GetSize() > 0)

  006c7	8b be 0c 01 00
	00		 mov	 edi, DWORD PTR [esi+268]
  006cd	85 ff		 test	 edi, edi
  006cf	7e 25		 jle	 SHORT $LN371@OnLButtonD

; 747  : 	{
; 748  : 		int max = arFolder.GetSize();
; 749  : 		rect.top += iFolderHeight * (iSelFolder + 1); + 1;//+ 2;

  006d1	8b 8e 34 01 00
	00		 mov	 ecx, DWORD PTR [esi+308]

; 750  : 		rect.bottom -= (max - iSelFolder - 1)*iFolderHeight;

  006d7	2b f9		 sub	 edi, ecx
  006d9	8b 96 a0 00 00
	00		 mov	 edx, DWORD PTR [esi+160]
  006df	4f		 dec	 edi
  006e0	0f af fa	 imul	 edi, edx
  006e3	8d 41 01	 lea	 eax, DWORD PTR [ecx+1]
  006e6	0f af c2	 imul	 eax, edx
  006e9	01 45 b4	 add	 DWORD PTR _crc$11[ebp+4], eax
  006ec	8b 45 bc	 mov	 eax, DWORD PTR _crc$11[ebp+12]
  006ef	2b c7		 sub	 eax, edi
  006f1	89 45 bc	 mov	 DWORD PTR _crc$11[ebp+12], eax
  006f4	eb 03		 jmp	 SHORT $LN364@OnLButtonD
$LN371@OnLButtonD:

; 746  : 	if (arFolder.GetSize() > 0)

  006f6	8b 45 bc	 mov	 eax, DWORD PTR _crc$11[ebp+12]
$LN364@OnLButtonD:

; 2820 : 									CRect crc;
; 2821 : 									GetInsideRect(crc);
; 2822 : 									if (itrc.bottom > crc.bottom)

  006f9	39 45 cc	 cmp	 DWORD PTR _itrc$15[ebp+12], eax
  006fc	7e 63		 jle	 SHORT $ExitLoop3$380

; 2823 : 									{
; 2824 : 										iFirstItem ++;

  006fe	ff 86 20 01 00
	00		 inc	 DWORD PTR [esi+288]
; File C:\Program Files (x86)\Microsoft Visual Studio\2019\Community\VC\Tools\MSVC\14.29.30133\atlmfc\include\afxwin2.inl

; 116  : 	{ ASSERT(::IsWindow(m_hWnd)); ::InvalidateRect(m_hWnd, lpRect, bErase); }

  00704	8d 45 b0	 lea	 eax, DWORD PTR _crc$11[ebp]
  00707	6a 01		 push	 1
  00709	50		 push	 eax
  0070a	ff 76 20	 push	 DWORD PTR [esi+32]
  0070d	ff 15 00 00 00
	00		 call	 DWORD PTR __imp__InvalidateRect@12
; File D:\git\src\IBK\IBK_DRFN\ProjSrc\SrcDrfn\Chart\comparechart\control\GfxOutBarCtrl.cpp

; 2828 : 								}

  00713	8d be d4 00 00
	00		 lea	 edi, DWORD PTR [esi+212]
  00719	eb 1f		 jmp	 SHORT $LN15@OnLButtonD
$LN69@OnLButtonD:

; 2829 : 								else bDownPressed = false;

  0071b	c6 86 c3 00 00
	00 00		 mov	 BYTE PTR [esi+195], 0

; 2830 : 							}
; 2831 : 						}
; 2832 : 						break;

  00722	eb 16		 jmp	 SHORT $LN15@OnLButtonD
$LN74@OnLButtonD:

; 2833 : 					}
; 2834 : 
; 2835 : 				case WM_KEYDOWN:	
; 2836 : 					if (msg.wParam != VK_ESCAPE) 

  00724	83 bd 48 ff ff
	ff 1b		 cmp	 DWORD PTR _msg$2[ebp+8], 27 ; 0000001bH
  0072b	75 0d		 jne	 SHORT $LN15@OnLButtonD
$LN75@OnLButtonD:

; 2837 : 						break;
; 2838 : 
; 2839 : 				default:
; 2840 : 					DispatchMessage(&msg);

  0072d	8d 85 40 ff ff
	ff		 lea	 eax, DWORD PTR _msg$2[ebp]
  00733	50		 push	 eax
  00734	ff 15 00 00 00
	00		 call	 DWORD PTR __imp__DispatchMessageA@4
$LN15@OnLButtonD:

; 2747 : 			for (;;)
; 2748 : 			{
; 2749 : 				MSG msg;
; 2750 : 				VERIFY(::GetMessage(&msg, NULL, 0, 0));

  0073a	6a 00		 push	 0
  0073c	6a 00		 push	 0
  0073e	6a 00		 push	 0
  00740	8d 85 40 ff ff
	ff		 lea	 eax, DWORD PTR _msg$2[ebp]
  00746	50		 push	 eax
  00747	ff 15 00 00 00
	00		 call	 DWORD PTR __imp__GetMessageA@16
; File C:\Program Files (x86)\Microsoft Visual Studio\2019\Community\VC\Tools\MSVC\14.29.30133\atlmfc\include\afxwin2.inl

; 161  : 	{ return CWnd::FromHandle(::GetCapture()); }

  0074d	ff 15 00 00 00
	00		 call	 DWORD PTR __imp__GetCapture@0
  00753	50		 push	 eax
  00754	e8 00 00 00 00	 call	 ?FromHandle@CWnd@@SGPAV1@PAUHWND__@@@Z ; CWnd::FromHandle
; File D:\git\src\IBK\IBK_DRFN\ProjSrc\SrcDrfn\Chart\comparechart\control\GfxOutBarCtrl.cpp

; 2752 : 				if (CWnd::GetCapture() != this) break;

  00759	3b c6		 cmp	 eax, esi
  0075b	0f 84 ef fd ff
	ff		 je	 $LL12@OnLButtonD
$ExitLoop3$380:
; File C:\Program Files (x86)\Microsoft Visual Studio\2019\Community\VC\Tools\MSVC\14.29.30133\atlmfc\include\afxwin2.inl

; 155  : 	{ ASSERT(::IsWindow(m_hWnd)); return ::KillTimer(m_hWnd, nIDEvent); }

  00761	6a 02		 push	 2
  00763	ff 76 20	 push	 DWORD PTR [esi+32]
  00766	ff 15 00 00 00
	00		 call	 DWORD PTR __imp__KillTimer@8
; File D:\git\src\IBK\IBK_DRFN\ProjSrc\SrcDrfn\Chart\comparechart\control\GfxOutBarCtrl.cpp

; 2847 : 			ReleaseCapture();

  0076c	ff 15 00 00 00
	00		 call	 DWORD PTR __imp__ReleaseCapture@0

; 2848 : 			AfxUnlockTempMaps(FALSE);

  00772	6a 00		 push	 0
  00774	e8 00 00 00 00	 call	 ?AfxUnlockTempMaps@@YGHH@Z ; AfxUnlockTempMaps
; File C:\Program Files (x86)\Microsoft Visual Studio\2019\Community\VC\Tools\MSVC\14.29.30133\atlmfc\include\afxwin2.inl

; 86   : 	{ ASSERT(::IsWindow(m_hWnd)); ::GetClientRect(m_hWnd, lpRect); }

  00779	8d 45 d0	 lea	 eax, DWORD PTR _crc$20[ebp]
; File D:\git\src\IBK\IBK_DRFN\ProjSrc\SrcDrfn\Chart\comparechart\control\GfxOutBarCtrl.cpp

; 2849 : 			bLooping = false;

  0077c	c6 86 e4 00 00
	00 00		 mov	 BYTE PTR [esi+228], 0
; File C:\Program Files (x86)\Microsoft Visual Studio\2019\Community\VC\Tools\MSVC\14.29.30133\atlmfc\include\afxwin2.inl

; 86   : 	{ ASSERT(::IsWindow(m_hWnd)); ::GetClientRect(m_hWnd, lpRect); }

  00783	50		 push	 eax
  00784	ff 76 20	 push	 DWORD PTR [esi+32]
  00787	0f 57 c0	 xorps	 xmm0, xmm0
; File D:\git\src\IBK\IBK_DRFN\ProjSrc\SrcDrfn\Chart\comparechart\control\GfxOutBarCtrl.cpp

; 2850 : 			bDownPressed = false;

  0078a	c6 86 c3 00 00
	00 00		 mov	 BYTE PTR [esi+195], 0

; 2851 : 			bDownArrow = false;

  00791	c6 86 c1 00 00
	00 00		 mov	 BYTE PTR [esi+193], 0
; File C:\Program Files (x86)\Microsoft Visual Studio\2019\Community\VC\Tools\MSVC\14.29.30133\atlmfc\include\atltypes.h

; 528  : 	left = 0;

  00798	0f 11 45 d0	 movups	 XMMWORD PTR _crc$20[ebp], xmm0
; File C:\Program Files (x86)\Microsoft Visual Studio\2019\Community\VC\Tools\MSVC\14.29.30133\atlmfc\include\afxwin2.inl

; 86   : 	{ ASSERT(::IsWindow(m_hWnd)); ::GetClientRect(m_hWnd, lpRect); }

  0079c	ff 15 00 00 00
	00		 call	 DWORD PTR __imp__GetClientRect@8
; File D:\git\src\IBK\IBK_DRFN\ProjSrc\SrcDrfn\Chart\comparechart\control\GfxOutBarCtrl.cpp

; 746  : 	if (arFolder.GetSize() > 0)

  007a2	8b be 0c 01 00
	00		 mov	 edi, DWORD PTR [esi+268]
  007a8	85 ff		 test	 edi, edi
  007aa	7e 1e		 jle	 SHORT $LN241@OnLButtonD

; 747  : 	{
; 748  : 		int max = arFolder.GetSize();
; 749  : 		rect.top += iFolderHeight * (iSelFolder + 1); + 1;//+ 2;

  007ac	8b 8e 34 01 00
	00		 mov	 ecx, DWORD PTR [esi+308]

; 750  : 		rect.bottom -= (max - iSelFolder - 1)*iFolderHeight;

  007b2	2b f9		 sub	 edi, ecx
  007b4	8b 96 a0 00 00
	00		 mov	 edx, DWORD PTR [esi+160]
  007ba	4f		 dec	 edi
  007bb	0f af fa	 imul	 edi, edx
  007be	8d 41 01	 lea	 eax, DWORD PTR [ecx+1]
  007c1	0f af c2	 imul	 eax, edx
  007c4	01 45 d4	 add	 DWORD PTR _crc$20[ebp+4], eax
  007c7	29 7d dc	 sub	 DWORD PTR _crc$20[ebp+12], edi
$LN241@OnLButtonD:
; File C:\Program Files (x86)\Microsoft Visual Studio\2019\Community\VC\Tools\MSVC\14.29.30133\atlmfc\include\afxwin2.inl

; 116  : 	{ ASSERT(::IsWindow(m_hWnd)); ::InvalidateRect(m_hWnd, lpRect, bErase); }

  007ca	6a 01		 push	 1
  007cc	8d 45 d0	 lea	 eax, DWORD PTR _crc$20[ebp]
  007cf	50		 push	 eax
  007d0	ff 76 20	 push	 DWORD PTR [esi+32]
  007d3	ff 15 00 00 00
	00		 call	 DWORD PTR __imp__InvalidateRect@12
; File D:\git\src\IBK\IBK_DRFN\ProjSrc\SrcDrfn\Chart\comparechart\control\GfxOutBarCtrl.cpp

; 2855 : 		}

  007d9	8d 8d 5c ff ff
	ff		 lea	 ecx, DWORD PTR _dc$4[ebp]
  007df	e9 ec 01 00 00	 jmp	 $LN376@OnLButtonD
$LN372@OnLButtonD:

; 746  : 	if (arFolder.GetSize() > 0)

  007e4	8b 45 ec	 mov	 eax, DWORD PTR _crc$23[ebp+12]
$LN365@OnLButtonD:

; 2795 : 							CRect crc;
; 2796 : 							GetInsideRect(crc);
; 2797 : 							if (itrc.bottom > crc.bottom)

  007e7	39 45 cc	 cmp	 DWORD PTR _itrc$16[ebp+12], eax
  007ea	0f 8e 71 ff ff
	ff		 jle	 $ExitLoop3$380

; 2798 : 							{
; 2799 : 								iFirstItem ++;

  007f0	ff 86 20 01 00
	00		 inc	 DWORD PTR [esi+288]
; File C:\Program Files (x86)\Microsoft Visual Studio\2019\Community\VC\Tools\MSVC\14.29.30133\atlmfc\include\afxwin2.inl

; 116  : 	{ ASSERT(::IsWindow(m_hWnd)); ::InvalidateRect(m_hWnd, lpRect, bErase); }

  007f6	8d 45 e0	 lea	 eax, DWORD PTR _crc$23[ebp]
  007f9	6a 01		 push	 1
  007fb	50		 push	 eax
  007fc	ff 76 20	 push	 DWORD PTR [esi+32]
  007ff	ff 15 00 00 00
	00		 call	 DWORD PTR __imp__InvalidateRect@12
  00805	e9 57 ff ff ff	 jmp	 $ExitLoop3$380
$LN59@OnLButtonD:
; File D:\git\src\IBK\IBK_DRFN\ProjSrc\SrcDrfn\Chart\comparechart\control\GfxOutBarCtrl.cpp

; 2858 : 	if (ht == htUpScroll)

  0080a	83 ff 02	 cmp	 edi, 2
  0080d	0f 85 c9 01 00
	00		 jne	 $LN78@OnLButtonD

; 2859 : 	{
; 2860 : 		bLooping = true;

  00813	c6 86 e4 00 00
	00 01		 mov	 BYTE PTR [esi+228], 1

; 2861 : 		bool bHigh = true;
; 2862 : 
; 2863 : 		if (::GetCapture() == NULL)

  0081a	ff d1		 call	 ecx
  0081c	85 c0		 test	 eax, eax
  0081e	0f 85 b8 01 00
	00		 jne	 $LN78@OnLButtonD
; File C:\Program Files (x86)\Microsoft Visual Studio\2019\Community\VC\Tools\MSVC\14.29.30133\atlmfc\include\afxwin2.inl

; 163  : 	{ ASSERT(::IsWindow(m_hWnd)); return CWnd::FromHandle(::SetCapture(m_hWnd)); }

  00824	ff 76 20	 push	 DWORD PTR [esi+32]
  00827	ff 15 00 00 00
	00		 call	 DWORD PTR __imp__SetCapture@4
  0082d	50		 push	 eax
  0082e	e8 00 00 00 00	 call	 ?FromHandle@CWnd@@SGPAV1@PAUHWND__@@@Z ; CWnd::FromHandle
; File D:\git\src\IBK\IBK_DRFN\ProjSrc\SrcDrfn\Chart\comparechart\control\GfxOutBarCtrl.cpp

; 2867 : 			CClientDC dc(this);

  00833	56		 push	 esi
  00834	8d 8d 48 ff ff
	ff		 lea	 ecx, DWORD PTR _dc$3[ebp]
  0083a	e8 00 00 00 00	 call	 ??0CClientDC@@QAE@PAVCWnd@@@Z ; CClientDC::CClientDC
; File C:\Program Files (x86)\Microsoft Visual Studio\2019\Community\VC\Tools\MSVC\14.29.30133\atlmfc\include\afxwin1.inl

; 512  : 	{ ASSERT(m_hDC != NULL); return ::DrawFrameControl(m_hDC, lpRect, nType, nState); }

  0083f	68 00 02 00 00	 push	 512			; 00000200H
  00844	6a 03		 push	 3
; File D:\git\src\IBK\IBK_DRFN\ProjSrc\SrcDrfn\Chart\comparechart\control\GfxOutBarCtrl.cpp

; 2868 : 			dc.DrawFrameControl(rcUpArrow, DFC_SCROLL, DFCS_SCROLLUP|DFCS_PUSHED);

  00846	8d be c4 00 00
	00		 lea	 edi, DWORD PTR [esi+196]
  0084c	c7 45 fc 03 00
	00 00		 mov	 DWORD PTR __$EHRec$[ebp+8], 3
; File C:\Program Files (x86)\Microsoft Visual Studio\2019\Community\VC\Tools\MSVC\14.29.30133\atlmfc\include\afxwin1.inl

; 512  : 	{ ASSERT(m_hDC != NULL); return ::DrawFrameControl(m_hDC, lpRect, nType, nState); }

  00853	57		 push	 edi
  00854	ff b5 4c ff ff
	ff		 push	 DWORD PTR _dc$3[ebp+4]
  0085a	ff 15 00 00 00
	00		 call	 DWORD PTR __imp__DrawFrameControl@16
; File C:\Program Files (x86)\Microsoft Visual Studio\2019\Community\VC\Tools\MSVC\14.29.30133\atlmfc\include\afxwin2.inl

; 152  : 	{ ASSERT(::IsWindow(m_hWnd)); return ::SetTimer(m_hWnd, nIDEvent, nElapse,

  00860	6a 00		 push	 0
  00862	68 2c 01 00 00	 push	 300			; 0000012cH
  00867	6a 02		 push	 2
  00869	ff 76 20	 push	 DWORD PTR [esi+32]
  0086c	ff 15 00 00 00
	00		 call	 DWORD PTR __imp__SetTimer@16
; File D:\git\src\IBK\IBK_DRFN\ProjSrc\SrcDrfn\Chart\comparechart\control\GfxOutBarCtrl.cpp

; 2870 : 			AfxLockTempMaps();

  00872	e8 00 00 00 00	 call	 ?AfxLockTempMaps@@YGXXZ	; AfxLockTempMaps

; 2871 : 			for (;;)
; 2872 : 			{
; 2873 : 				MSG msg;
; 2874 : 				VERIFY(::GetMessage(&msg, NULL, 0, 0));

  00877	6a 00		 push	 0
  00879	6a 00		 push	 0
  0087b	6a 00		 push	 0
  0087d	8d 85 70 ff ff
	ff		 lea	 eax, DWORD PTR _msg$7[ebp]
  00883	50		 push	 eax
  00884	ff 15 00 00 00
	00		 call	 DWORD PTR __imp__GetMessageA@16
; File C:\Program Files (x86)\Microsoft Visual Studio\2019\Community\VC\Tools\MSVC\14.29.30133\atlmfc\include\afxwin2.inl

; 161  : 	{ return CWnd::FromHandle(::GetCapture()); }

  0088a	ff 15 00 00 00
	00		 call	 DWORD PTR __imp__GetCapture@0
  00890	50		 push	 eax
  00891	e8 00 00 00 00	 call	 ?FromHandle@CWnd@@SGPAV1@PAUHWND__@@@Z ; CWnd::FromHandle
; File D:\git\src\IBK\IBK_DRFN\ProjSrc\SrcDrfn\Chart\comparechart\control\GfxOutBarCtrl.cpp

; 2876 : 				if (CWnd::GetCapture() != this) break;

  00896	3b c6		 cmp	 eax, esi
  00898	0f 85 b4 00 00
	00		 jne	 $ExitLoop$381
  0089e	66 90		 npad	 2
$LL17@OnLButtonD:

; 2877 : 
; 2878 : 				switch (msg.message)

  008a0	8b 85 74 ff ff
	ff		 mov	 eax, DWORD PTR _msg$7[ebp+4]
  008a6	2d 00 01 00 00	 sub	 eax, 256		; 00000100H
  008ab	0f 84 fe 01 00
	00		 je	 $LN93@OnLButtonD
  008b1	83 e8 13	 sub	 eax, 19			; 00000013H
  008b4	0f 84 46 01 00
	00		 je	 $LN85@OnLButtonD
  008ba	2d ef 00 00 00	 sub	 eax, 239		; 000000efH
  008bf	0f 85 f3 01 00
	00		 jne	 $LN94@OnLButtonD
; File C:\Program Files (x86)\Microsoft Visual Studio\2019\Community\VC\Tools\MSVC\14.29.30133\atlmfc\include\afxwin1.inl

; 512  : 	{ ASSERT(m_hDC != NULL); return ::DrawFrameControl(m_hDC, lpRect, nType, nState); }

  008c5	50		 push	 eax
  008c6	6a 03		 push	 3
  008c8	57		 push	 edi
  008c9	ff b5 4c ff ff
	ff		 push	 DWORD PTR _dc$3[ebp+4]
  008cf	ff 15 00 00 00
	00		 call	 DWORD PTR __imp__DrawFrameControl@16
; File C:\Program Files (x86)\Microsoft Visual Studio\2019\Community\VC\Tools\MSVC\14.29.30133\atlmfc\include\atltypes.h

; 424  : 	x = (short)LOWORD(dwPoint);

  008d5	8b 85 7c ff ff
	ff		 mov	 eax, DWORD PTR _msg$7[ebp+12]
  008db	0f bf c8	 movsx	 ecx, ax

; 425  : 	y = (short)HIWORD(dwPoint);

  008de	c1 e8 10	 shr	 eax, 16			; 00000010H
  008e1	98		 cwde

; 648  : 	return ::PtInRect(this, point);

  008e2	50		 push	 eax
  008e3	51		 push	 ecx
  008e4	57		 push	 edi
; File D:\git\src\IBK\IBK_DRFN\ProjSrc\SrcDrfn\Chart\comparechart\control\GfxOutBarCtrl.cpp

; 2913 : 						bUpArrow = false;

  008e5	c6 86 c0 00 00
	00 00		 mov	 BYTE PTR [esi+192], 0
; File C:\Program Files (x86)\Microsoft Visual Studio\2019\Community\VC\Tools\MSVC\14.29.30133\atlmfc\include\atltypes.h

; 648  : 	return ::PtInRect(this, point);

  008ec	ff 15 00 00 00
	00		 call	 DWORD PTR __imp__PtInRect@12
; File D:\git\src\IBK\IBK_DRFN\ProjSrc\SrcDrfn\Chart\comparechart\control\GfxOutBarCtrl.cpp

; 2915 : 						if (rcUpArrow.PtInRect(pt))

  008f2	85 c0		 test	 eax, eax
  008f4	74 5c		 je	 SHORT $ExitLoop$381

; 2916 : 						{
; 2917 : 							if (iFirstItem > 0 ) 

  008f6	8b 86 20 01 00
	00		 mov	 eax, DWORD PTR [esi+288]
  008fc	85 c0		 test	 eax, eax
  008fe	7e 52		 jle	 SHORT $ExitLoop$381

; 2918 : 							{
; 2919 : 								iFirstItem --;

  00900	48		 dec	 eax
  00901	0f 57 c0	 xorps	 xmm0, xmm0
  00904	89 86 20 01 00
	00		 mov	 DWORD PTR [esi+288], eax
; File C:\Program Files (x86)\Microsoft Visual Studio\2019\Community\VC\Tools\MSVC\14.29.30133\atlmfc\include\afxwin2.inl

; 86   : 	{ ASSERT(::IsWindow(m_hWnd)); ::GetClientRect(m_hWnd, lpRect); }

  0090a	8d 45 d0	 lea	 eax, DWORD PTR _crc$19[ebp]
  0090d	50		 push	 eax
  0090e	ff 76 20	 push	 DWORD PTR [esi+32]
; File C:\Program Files (x86)\Microsoft Visual Studio\2019\Community\VC\Tools\MSVC\14.29.30133\atlmfc\include\atltypes.h

; 528  : 	left = 0;

  00911	0f 11 45 d0	 movups	 XMMWORD PTR _crc$19[ebp], xmm0
; File C:\Program Files (x86)\Microsoft Visual Studio\2019\Community\VC\Tools\MSVC\14.29.30133\atlmfc\include\afxwin2.inl

; 86   : 	{ ASSERT(::IsWindow(m_hWnd)); ::GetClientRect(m_hWnd, lpRect); }

  00915	ff 15 00 00 00
	00		 call	 DWORD PTR __imp__GetClientRect@8
; File D:\git\src\IBK\IBK_DRFN\ProjSrc\SrcDrfn\Chart\comparechart\control\GfxOutBarCtrl.cpp

; 746  : 	if (arFolder.GetSize() > 0)

  0091b	8b be 0c 01 00
	00		 mov	 edi, DWORD PTR [esi+268]
  00921	85 ff		 test	 edi, edi
  00923	7e 1e		 jle	 SHORT $LN264@OnLButtonD

; 747  : 	{
; 748  : 		int max = arFolder.GetSize();
; 749  : 		rect.top += iFolderHeight * (iSelFolder + 1); + 1;//+ 2;

  00925	8b 8e 34 01 00
	00		 mov	 ecx, DWORD PTR [esi+308]

; 750  : 		rect.bottom -= (max - iSelFolder - 1)*iFolderHeight;

  0092b	2b f9		 sub	 edi, ecx
  0092d	8b 96 a0 00 00
	00		 mov	 edx, DWORD PTR [esi+160]
  00933	4f		 dec	 edi
  00934	0f af fa	 imul	 edi, edx
  00937	8d 41 01	 lea	 eax, DWORD PTR [ecx+1]
  0093a	0f af c2	 imul	 eax, edx
  0093d	01 45 d4	 add	 DWORD PTR _crc$19[ebp+4], eax
  00940	29 7d dc	 sub	 DWORD PTR _crc$19[ebp+12], edi
$LN264@OnLButtonD:
; File C:\Program Files (x86)\Microsoft Visual Studio\2019\Community\VC\Tools\MSVC\14.29.30133\atlmfc\include\afxwin2.inl

; 116  : 	{ ASSERT(::IsWindow(m_hWnd)); ::InvalidateRect(m_hWnd, lpRect, bErase); }

  00943	6a 01		 push	 1
  00945	8d 45 d0	 lea	 eax, DWORD PTR _crc$19[ebp]
  00948	50		 push	 eax
  00949	ff 76 20	 push	 DWORD PTR [esi+32]
  0094c	ff 15 00 00 00
	00		 call	 DWORD PTR __imp__InvalidateRect@12
$ExitLoop$381:

; 155  : 	{ ASSERT(::IsWindow(m_hWnd)); return ::KillTimer(m_hWnd, nIDEvent); }

  00952	6a 02		 push	 2
  00954	ff 76 20	 push	 DWORD PTR [esi+32]
  00957	ff 15 00 00 00
	00		 call	 DWORD PTR __imp__KillTimer@8
; File D:\git\src\IBK\IBK_DRFN\ProjSrc\SrcDrfn\Chart\comparechart\control\GfxOutBarCtrl.cpp

; 2965 : 			ReleaseCapture();

  0095d	ff 15 00 00 00
	00		 call	 DWORD PTR __imp__ReleaseCapture@0

; 2966 : 			AfxUnlockTempMaps(FALSE);

  00963	6a 00		 push	 0
  00965	e8 00 00 00 00	 call	 ?AfxUnlockTempMaps@@YGHH@Z ; AfxUnlockTempMaps
; File C:\Program Files (x86)\Microsoft Visual Studio\2019\Community\VC\Tools\MSVC\14.29.30133\atlmfc\include\afxwin2.inl

; 86   : 	{ ASSERT(::IsWindow(m_hWnd)); ::GetClientRect(m_hWnd, lpRect); }

  0096a	8d 45 c0	 lea	 eax, DWORD PTR _crc$14[ebp]
; File D:\git\src\IBK\IBK_DRFN\ProjSrc\SrcDrfn\Chart\comparechart\control\GfxOutBarCtrl.cpp

; 2967 : 			bLooping = false;

  0096d	c6 86 e4 00 00
	00 00		 mov	 BYTE PTR [esi+228], 0
; File C:\Program Files (x86)\Microsoft Visual Studio\2019\Community\VC\Tools\MSVC\14.29.30133\atlmfc\include\afxwin2.inl

; 86   : 	{ ASSERT(::IsWindow(m_hWnd)); ::GetClientRect(m_hWnd, lpRect); }

  00974	50		 push	 eax
  00975	ff 76 20	 push	 DWORD PTR [esi+32]
  00978	0f 57 c0	 xorps	 xmm0, xmm0
; File D:\git\src\IBK\IBK_DRFN\ProjSrc\SrcDrfn\Chart\comparechart\control\GfxOutBarCtrl.cpp

; 2968 : 			bUpPressed = false;

  0097b	c6 86 c2 00 00
	00 00		 mov	 BYTE PTR [esi+194], 0

; 2969 : 			bUpArrow = false;

  00982	c6 86 c0 00 00
	00 00		 mov	 BYTE PTR [esi+192], 0
; File C:\Program Files (x86)\Microsoft Visual Studio\2019\Community\VC\Tools\MSVC\14.29.30133\atlmfc\include\atltypes.h

; 528  : 	left = 0;

  00989	0f 11 45 c0	 movups	 XMMWORD PTR _crc$14[ebp], xmm0
; File C:\Program Files (x86)\Microsoft Visual Studio\2019\Community\VC\Tools\MSVC\14.29.30133\atlmfc\include\afxwin2.inl

; 86   : 	{ ASSERT(::IsWindow(m_hWnd)); ::GetClientRect(m_hWnd, lpRect); }

  0098d	ff 15 00 00 00
	00		 call	 DWORD PTR __imp__GetClientRect@8
; File D:\git\src\IBK\IBK_DRFN\ProjSrc\SrcDrfn\Chart\comparechart\control\GfxOutBarCtrl.cpp

; 746  : 	if (arFolder.GetSize() > 0)

  00993	8b be 0c 01 00
	00		 mov	 edi, DWORD PTR [esi+268]
  00999	85 ff		 test	 edi, edi
  0099b	7e 1e		 jle	 SHORT $LN290@OnLButtonD

; 747  : 	{
; 748  : 		int max = arFolder.GetSize();
; 749  : 		rect.top += iFolderHeight * (iSelFolder + 1); + 1;//+ 2;

  0099d	8b 8e 34 01 00
	00		 mov	 ecx, DWORD PTR [esi+308]

; 750  : 		rect.bottom -= (max - iSelFolder - 1)*iFolderHeight;

  009a3	2b f9		 sub	 edi, ecx
  009a5	8b 96 a0 00 00
	00		 mov	 edx, DWORD PTR [esi+160]
  009ab	4f		 dec	 edi
  009ac	0f af fa	 imul	 edi, edx
  009af	8d 41 01	 lea	 eax, DWORD PTR [ecx+1]
  009b2	0f af c2	 imul	 eax, edx
  009b5	01 45 c4	 add	 DWORD PTR _crc$14[ebp+4], eax
  009b8	29 7d cc	 sub	 DWORD PTR _crc$14[ebp+12], edi
$LN290@OnLButtonD:
; File C:\Program Files (x86)\Microsoft Visual Studio\2019\Community\VC\Tools\MSVC\14.29.30133\atlmfc\include\afxwin2.inl

; 116  : 	{ ASSERT(::IsWindow(m_hWnd)); ::InvalidateRect(m_hWnd, lpRect, bErase); }

  009bb	6a 01		 push	 1
  009bd	8d 45 c0	 lea	 eax, DWORD PTR _crc$14[ebp]
  009c0	50		 push	 eax
  009c1	ff 76 20	 push	 DWORD PTR [esi+32]
  009c4	ff 15 00 00 00
	00		 call	 DWORD PTR __imp__InvalidateRect@12
; File D:\git\src\IBK\IBK_DRFN\ProjSrc\SrcDrfn\Chart\comparechart\control\GfxOutBarCtrl.cpp

; 2973 : 		}

  009ca	8d 8d 48 ff ff
	ff		 lea	 ecx, DWORD PTR _dc$3[ebp]
$LN376@OnLButtonD:
; File C:\Program Files (x86)\Microsoft Visual Studio\2019\Community\VC\Tools\MSVC\14.29.30133\atlmfc\include\afxwin2.inl

; 430  : 	{ Default(); }

  009d0	c7 45 fc ff ff
	ff ff		 mov	 DWORD PTR __$EHRec$[ebp+8], -1
  009d7	e8 00 00 00 00	 call	 ??1CClientDC@@UAE@XZ	; CClientDC::~CClientDC
$LN78@OnLButtonD:
  009dc	8b ce		 mov	 ecx, esi
  009de	e8 00 00 00 00	 call	 ?Default@CWnd@@IAEJXZ	; CWnd::Default
; File D:\git\src\IBK\IBK_DRFN\ProjSrc\SrcDrfn\Chart\comparechart\control\GfxOutBarCtrl.cpp

; 2977 : }

  009e3	8b 4d f4	 mov	 ecx, DWORD PTR __$EHRec$[ebp]
  009e6	64 89 0d 00 00
	00 00		 mov	 DWORD PTR fs:0, ecx
  009ed	59		 pop	 ecx
  009ee	5f		 pop	 edi
  009ef	5e		 pop	 esi
  009f0	8b 4d f0	 mov	 ecx, DWORD PTR __$ArrayPad$[ebp]
  009f3	33 cd		 xor	 ecx, ebp
  009f5	e8 00 00 00 00	 call	 @__security_check_cookie@4
  009fa	8b e5		 mov	 esp, ebp
  009fc	5d		 pop	 ebp
  009fd	c2 0c 00	 ret	 12			; 0000000cH
$LN85@OnLButtonD:

; 2920 : 								CRect crc;
; 2921 : 								GetInsideRect(crc);
; 2922 : 								InvalidateRect(crc, true);
; 2923 : 							}
; 2924 : 						}
; 2925 : 					}
; 2926 : 
; 2927 : 					goto ExitLoop;
; 2928 : 
; 2929 : 				case WM_TIMER:
; 2930 : 					{
; 2931 : 						if (msg.wParam == 2)

  00a00	83 bd 78 ff ff
	ff 02		 cmp	 DWORD PTR _msg$7[ebp+8], 2
  00a07	0f 85 b8 00 00
	00		 jne	 $LN20@OnLButtonD
; File C:\Program Files (x86)\Microsoft Visual Studio\2019\Community\VC\Tools\MSVC\14.29.30133\atlmfc\include\atltypes.h

; 414  : 	*(POINT*)this = initPt;

  00a0d	8b 45 84	 mov	 eax, DWORD PTR _msg$7[ebp+20]
  00a10	8b 4d 88	 mov	 ecx, DWORD PTR _msg$7[ebp+24]
  00a13	89 45 e8	 mov	 DWORD PTR _pt$24[ebp], eax
; File C:\Program Files (x86)\Microsoft Visual Studio\2019\Community\VC\Tools\MSVC\14.29.30133\atlmfc\include\afxwin2.inl

; 94   : 	{ ASSERT(::IsWindow(m_hWnd)); ::ScreenToClient(m_hWnd, lpPoint); }

  00a16	8d 45 e8	 lea	 eax, DWORD PTR _pt$24[ebp]
  00a19	50		 push	 eax
  00a1a	ff 76 20	 push	 DWORD PTR [esi+32]
; File C:\Program Files (x86)\Microsoft Visual Studio\2019\Community\VC\Tools\MSVC\14.29.30133\atlmfc\include\atltypes.h

; 414  : 	*(POINT*)this = initPt;

  00a1d	89 4d ec	 mov	 DWORD PTR _pt$24[ebp+4], ecx
; File C:\Program Files (x86)\Microsoft Visual Studio\2019\Community\VC\Tools\MSVC\14.29.30133\atlmfc\include\afxwin2.inl

; 94   : 	{ ASSERT(::IsWindow(m_hWnd)); ::ScreenToClient(m_hWnd, lpPoint); }

  00a20	ff 15 00 00 00
	00		 call	 DWORD PTR __imp__ScreenToClient@8
; File C:\Program Files (x86)\Microsoft Visual Studio\2019\Community\VC\Tools\MSVC\14.29.30133\atlmfc\include\atltypes.h

; 648  : 	return ::PtInRect(this, point);

  00a26	ff 75 ec	 push	 DWORD PTR _pt$24[ebp+4]
  00a29	ff 75 e8	 push	 DWORD PTR _pt$24[ebp]
  00a2c	57		 push	 edi
  00a2d	ff 15 00 00 00
	00		 call	 DWORD PTR __imp__PtInRect@12
; File D:\git\src\IBK\IBK_DRFN\ProjSrc\SrcDrfn\Chart\comparechart\control\GfxOutBarCtrl.cpp

; 2937 : 								if (rcUpArrow.PtInRect(pt))

  00a33	85 c0		 test	 eax, eax
  00a35	74 6f		 je	 SHORT $LN88@OnLButtonD

; 2938 : 								{
; 2939 : 									bUpPressed = true;
; 2940 : 									if (iFirstItem > 0) 

  00a37	8b 86 20 01 00
	00		 mov	 eax, DWORD PTR [esi+288]
  00a3d	c6 86 c2 00 00
	00 01		 mov	 BYTE PTR [esi+194], 1
  00a44	85 c0		 test	 eax, eax
  00a46	0f 8e 06 ff ff
	ff		 jle	 $ExitLoop$381

; 2941 : 									{
; 2942 : 										iFirstItem --;

  00a4c	48		 dec	 eax
  00a4d	0f 57 c0	 xorps	 xmm0, xmm0
  00a50	89 86 20 01 00
	00		 mov	 DWORD PTR [esi+288], eax
; File C:\Program Files (x86)\Microsoft Visual Studio\2019\Community\VC\Tools\MSVC\14.29.30133\atlmfc\include\afxwin2.inl

; 86   : 	{ ASSERT(::IsWindow(m_hWnd)); ::GetClientRect(m_hWnd, lpRect); }

  00a56	8d 45 a0	 lea	 eax, DWORD PTR _crc$10[ebp]
  00a59	50		 push	 eax
  00a5a	ff 76 20	 push	 DWORD PTR [esi+32]
; File C:\Program Files (x86)\Microsoft Visual Studio\2019\Community\VC\Tools\MSVC\14.29.30133\atlmfc\include\atltypes.h

; 528  : 	left = 0;

  00a5d	0f 11 45 a0	 movups	 XMMWORD PTR _crc$10[ebp], xmm0
; File C:\Program Files (x86)\Microsoft Visual Studio\2019\Community\VC\Tools\MSVC\14.29.30133\atlmfc\include\afxwin2.inl

; 86   : 	{ ASSERT(::IsWindow(m_hWnd)); ::GetClientRect(m_hWnd, lpRect); }

  00a61	ff 15 00 00 00
	00		 call	 DWORD PTR __imp__GetClientRect@8
; File D:\git\src\IBK\IBK_DRFN\ProjSrc\SrcDrfn\Chart\comparechart\control\GfxOutBarCtrl.cpp

; 746  : 	if (arFolder.GetSize() > 0)

  00a67	8b be 0c 01 00
	00		 mov	 edi, DWORD PTR [esi+268]
  00a6d	85 ff		 test	 edi, edi
  00a6f	7e 1e		 jle	 SHORT $LN366@OnLButtonD

; 747  : 	{
; 748  : 		int max = arFolder.GetSize();
; 749  : 		rect.top += iFolderHeight * (iSelFolder + 1); + 1;//+ 2;

  00a71	8b 8e 34 01 00
	00		 mov	 ecx, DWORD PTR [esi+308]

; 750  : 		rect.bottom -= (max - iSelFolder - 1)*iFolderHeight;

  00a77	2b f9		 sub	 edi, ecx
  00a79	8b 96 a0 00 00
	00		 mov	 edx, DWORD PTR [esi+160]
  00a7f	4f		 dec	 edi
  00a80	0f af fa	 imul	 edi, edx
  00a83	8d 41 01	 lea	 eax, DWORD PTR [ecx+1]
  00a86	0f af c2	 imul	 eax, edx
  00a89	01 45 a4	 add	 DWORD PTR _crc$10[ebp+4], eax
  00a8c	29 7d ac	 sub	 DWORD PTR _crc$10[ebp+12], edi
$LN366@OnLButtonD:
; File C:\Program Files (x86)\Microsoft Visual Studio\2019\Community\VC\Tools\MSVC\14.29.30133\atlmfc\include\afxwin2.inl

; 116  : 	{ ASSERT(::IsWindow(m_hWnd)); ::InvalidateRect(m_hWnd, lpRect, bErase); }

  00a8f	6a 01		 push	 1
  00a91	8d 45 a0	 lea	 eax, DWORD PTR _crc$10[ebp]
  00a94	50		 push	 eax
  00a95	ff 76 20	 push	 DWORD PTR [esi+32]
  00a98	ff 15 00 00 00
	00		 call	 DWORD PTR __imp__InvalidateRect@12
; File D:\git\src\IBK\IBK_DRFN\ProjSrc\SrcDrfn\Chart\comparechart\control\GfxOutBarCtrl.cpp

; 2948 : 								}

  00a9e	8d be c4 00 00
	00		 lea	 edi, DWORD PTR [esi+196]
  00aa4	eb 1f		 jmp	 SHORT $LN20@OnLButtonD
$LN88@OnLButtonD:

; 2949 : 								else bUpPressed = false;

  00aa6	c6 86 c2 00 00
	00 00		 mov	 BYTE PTR [esi+194], 0

; 2950 : 							}
; 2951 : 						}
; 2952 : 						break;

  00aad	eb 16		 jmp	 SHORT $LN20@OnLButtonD
$LN93@OnLButtonD:

; 2953 : 					}
; 2954 : 				case WM_KEYDOWN:	
; 2955 : 					if (msg.wParam != VK_ESCAPE) break;

  00aaf	83 bd 78 ff ff
	ff 1b		 cmp	 DWORD PTR _msg$7[ebp+8], 27 ; 0000001bH
  00ab6	75 0d		 jne	 SHORT $LN20@OnLButtonD
$LN94@OnLButtonD:

; 2956 : 
; 2957 : 				default:
; 2958 : 					DispatchMessage(&msg);

  00ab8	8d 85 70 ff ff
	ff		 lea	 eax, DWORD PTR _msg$7[ebp]
  00abe	50		 push	 eax
  00abf	ff 15 00 00 00
	00		 call	 DWORD PTR __imp__DispatchMessageA@4
$LN20@OnLButtonD:

; 2871 : 			for (;;)
; 2872 : 			{
; 2873 : 				MSG msg;
; 2874 : 				VERIFY(::GetMessage(&msg, NULL, 0, 0));

  00ac5	6a 00		 push	 0
  00ac7	6a 00		 push	 0
  00ac9	6a 00		 push	 0
  00acb	8d 85 70 ff ff
	ff		 lea	 eax, DWORD PTR _msg$7[ebp]
  00ad1	50		 push	 eax
  00ad2	ff 15 00 00 00
	00		 call	 DWORD PTR __imp__GetMessageA@16
; File C:\Program Files (x86)\Microsoft Visual Studio\2019\Community\VC\Tools\MSVC\14.29.30133\atlmfc\include\afxwin2.inl

; 161  : 	{ return CWnd::FromHandle(::GetCapture()); }

  00ad8	ff 15 00 00 00
	00		 call	 DWORD PTR __imp__GetCapture@0
  00ade	50		 push	 eax
  00adf	e8 00 00 00 00	 call	 ?FromHandle@CWnd@@SGPAV1@PAUHWND__@@@Z ; CWnd::FromHandle
; File D:\git\src\IBK\IBK_DRFN\ProjSrc\SrcDrfn\Chart\comparechart\control\GfxOutBarCtrl.cpp

; 2876 : 				if (CWnd::GetCapture() != this) break;

  00ae4	3b c6		 cmp	 eax, esi
  00ae6	0f 84 b4 fd ff
	ff		 je	 $LL17@OnLButtonD
  00aec	e9 61 fe ff ff	 jmp	 $ExitLoop$381
$LN200@OnLButtonD:

; 2977 : }

  00af1	e8 00 00 00 00	 call	 ?AfxThrowInvalidArgException@@YGXXZ ; AfxThrowInvalidArgException
$LN375@OnLButtonD:
  00af6	cc		 int	 3
_TEXT	ENDS
;	COMDAT text$x
text$x	SEGMENT
__unwindfunclet$?OnLButtonDblClk@CGfxOutBarCtrl@@IAEXIVCPoint@@@Z$6:
  00000	8d 8d 5c ff ff
	ff		 lea	 ecx, DWORD PTR _dc$6[ebp]
  00006	e9 00 00 00 00	 jmp	 ??1CClientDC@@UAE@XZ	; CClientDC::~CClientDC
__unwindfunclet$?OnLButtonDblClk@CGfxOutBarCtrl@@IAEXIVCPoint@@@Z$7:
  0000b	8d 8d 5c ff ff
	ff		 lea	 ecx, DWORD PTR _dc$5[ebp]
  00011	e9 00 00 00 00	 jmp	 ??1CClientDC@@UAE@XZ	; CClientDC::~CClientDC
__unwindfunclet$?OnLButtonDblClk@CGfxOutBarCtrl@@IAEXIVCPoint@@@Z$8:
  00016	8d 8d 5c ff ff
	ff		 lea	 ecx, DWORD PTR _dc$4[ebp]
  0001c	e9 00 00 00 00	 jmp	 ??1CClientDC@@UAE@XZ	; CClientDC::~CClientDC
__unwindfunclet$?OnLButtonDblClk@CGfxOutBarCtrl@@IAEXIVCPoint@@@Z$9:
  00021	8d 8d 48 ff ff
	ff		 lea	 ecx, DWORD PTR _dc$3[ebp]
  00027	e9 00 00 00 00	 jmp	 ??1CClientDC@@UAE@XZ	; CClientDC::~CClientDC
  0002c	cc		 int	 3
  0002d	cc		 int	 3
  0002e	cc		 int	 3
  0002f	cc		 int	 3
  00030	cc		 int	 3
__ehhandler$?OnLButtonDblClk@CGfxOutBarCtrl@@IAEXIVCPoint@@@Z:
  00031	90		 npad	 1
  00032	90		 npad	 1
  00033	8b 54 24 08	 mov	 edx, DWORD PTR [esp+8]
  00037	8d 42 0c	 lea	 eax, DWORD PTR [edx+12]
  0003a	8b 8a 40 ff ff
	ff		 mov	 ecx, DWORD PTR [edx-192]
  00040	33 c8		 xor	 ecx, eax
  00042	e8 00 00 00 00	 call	 @__security_check_cookie@4
  00047	8b 4a fc	 mov	 ecx, DWORD PTR [edx-4]
  0004a	33 c8		 xor	 ecx, eax
  0004c	e8 00 00 00 00	 call	 @__security_check_cookie@4
  00051	b8 00 00 00 00	 mov	 eax, OFFSET __ehfuncinfo$?OnLButtonDblClk@CGfxOutBarCtrl@@IAEXIVCPoint@@@Z
  00056	e9 00 00 00 00	 jmp	 ___CxxFrameHandler3
text$x	ENDS
?OnLButtonDblClk@CGfxOutBarCtrl@@IAEXIVCPoint@@@Z ENDP	; CGfxOutBarCtrl::OnLButtonDblClk
; Function compile flags: /Ogtp
; File D:\git\src\IBK\IBK_DRFN\ProjSrc\SrcDrfn\Chart\comparechart\control\GfxOutBarCtrl.cpp
; File C:\Program Files (x86)\Microsoft Visual Studio\2019\Community\VC\Tools\MSVC\14.29.30133\atlmfc\include\afxwin1.inl
; File D:\git\src\IBK\IBK_DRFN\ProjSrc\SrcDrfn\Chart\comparechart\control\GfxOutBarCtrl.cpp
; File C:\Program Files (x86)\Microsoft Visual Studio\2019\Community\VC\Tools\MSVC\14.29.30133\atlmfc\include\afxcoll.inl
; File D:\git\src\IBK\IBK_DRFN\ProjSrc\SrcDrfn\Chart\comparechart\control\GfxOutBarCtrl.cpp
; File C:\Program Files (x86)\Microsoft Visual Studio\2019\Community\VC\Tools\MSVC\14.29.30133\atlmfc\include\afxcoll.inl
; File D:\git\src\IBK\IBK_DRFN\ProjSrc\SrcDrfn\Chart\comparechart\control\GfxOutBarCtrl.cpp
; File C:\Program Files (x86)\Microsoft Visual Studio\2019\Community\VC\Tools\MSVC\14.29.30133\atlmfc\include\afxcoll.inl
; File D:\git\src\IBK\IBK_DRFN\ProjSrc\SrcDrfn\Chart\comparechart\control\GfxOutBarCtrl.cpp
;	COMDAT ?OnDestroy@CGfxOutBarCtrl@@IAEXXZ
_TEXT	SEGMENT
?OnDestroy@CGfxOutBarCtrl@@IAEXXZ PROC			; CGfxOutBarCtrl::OnDestroy, COMDAT
; _this$ = ecx

; 2438 : {

  00000	56		 push	 esi
  00001	57		 push	 edi
  00002	8b f9		 mov	 edi, ecx

; 2439 : 	if(m_Font.GetSafeHandle())

  00004	8d 8f 54 01 00
	00		 lea	 ecx, DWORD PTR [edi+340]
; File C:\Program Files (x86)\Microsoft Visual Studio\2019\Community\VC\Tools\MSVC\14.29.30133\atlmfc\include\afxwin1.inl

; 68   : 	{ return this == NULL ? NULL : m_hObject; }

  0000a	85 c9		 test	 ecx, ecx
  0000c	74 0b		 je	 SHORT $LN2@OnDestroy
; File D:\git\src\IBK\IBK_DRFN\ProjSrc\SrcDrfn\Chart\comparechart\control\GfxOutBarCtrl.cpp

; 2439 : 	if(m_Font.GetSafeHandle())

  0000e	83 79 04 00	 cmp	 DWORD PTR [ecx+4], 0
  00012	74 05		 je	 SHORT $LN2@OnDestroy

; 2440 : 		m_Font.DeleteObject();

  00014	e8 00 00 00 00	 call	 ?DeleteObject@CGdiObject@@QAEHXZ ; CGdiObject::DeleteObject
$LN2@OnDestroy:

; 2441 : 
; 2442 : 	CWnd::OnDestroy();

  00019	8b cf		 mov	 ecx, edi
  0001b	e8 00 00 00 00	 call	 ?OnDestroy@CWnd@@IAEXXZ	; CWnd::OnDestroy

; 2429 : 	for (int t = 0; t < arFolder.GetSize(); t++)

  00020	8b 97 0c 01 00
	00		 mov	 edx, DWORD PTR [edi+268]
  00026	33 f6		 xor	 esi, esi
  00028	85 d2		 test	 edx, edx
  0002a	7e 2a		 jle	 SHORT $LN35@OnDestroy
  0002c	0f 1f 40 00	 npad	 4
$LL13@OnDestroy:
; File C:\Program Files (x86)\Microsoft Visual Studio\2019\Community\VC\Tools\MSVC\14.29.30133\atlmfc\include\afxcoll.inl

; 203  : 		if( nIndex < 0 || nIndex >= m_nSize )

  00030	85 f6		 test	 esi, esi
  00032	78 4f		 js	 SHORT $LN31@OnDestroy
  00034	3b f2		 cmp	 esi, edx
  00036	7d 4b		 jge	 SHORT $LN31@OnDestroy
; File D:\git\src\IBK\IBK_DRFN\ProjSrc\SrcDrfn\Chart\comparechart\control\GfxOutBarCtrl.cpp

; 2431 : 		if (arFolder.GetAt(t)) delete (CBarFolder*) arFolder.GetAt(t);

  00038	8b 87 08 01 00
	00		 mov	 eax, DWORD PTR [edi+264]
  0003e	8b 0c b0	 mov	 ecx, DWORD PTR [eax+esi*4]
  00041	85 c9		 test	 ecx, ecx
  00043	74 0c		 je	 SHORT $LN11@OnDestroy
  00045	8b 01		 mov	 eax, DWORD PTR [ecx]
  00047	6a 01		 push	 1
  00049	ff 10		 call	 DWORD PTR [eax]
  0004b	8b 97 0c 01 00
	00		 mov	 edx, DWORD PTR [edi+268]
$LN11@OnDestroy:

; 2429 : 	for (int t = 0; t < arFolder.GetSize(); t++)

  00051	46		 inc	 esi
  00052	3b f2		 cmp	 esi, edx
  00054	7c da		 jl	 SHORT $LL13@OnDestroy
$LN35@OnDestroy:
; File C:\Program Files (x86)\Microsoft Visual Studio\2019\Community\VC\Tools\MSVC\14.29.30133\atlmfc\include\afxcoll.inl

; 200  : 	{ SetSize(0); }

  00056	6a ff		 push	 -1
  00058	6a 00		 push	 0
  0005a	8d 8f 04 01 00
	00		 lea	 ecx, DWORD PTR [edi+260]
  00060	e8 00 00 00 00	 call	 ?SetSize@CPtrArray@@QAEXHH@Z ; CPtrArray::SetSize
; File D:\git\src\IBK\IBK_DRFN\ProjSrc\SrcDrfn\Chart\comparechart\control\GfxOutBarCtrl.cpp

; 2444 : 	delete pBlackPen;

  00065	8b 8f 4c 01 00
	00		 mov	 ecx, DWORD PTR [edi+332]

; 2434 : 	iSelFolder = 0;

  0006b	c7 87 34 01 00
	00 00 00 00 00	 mov	 DWORD PTR [edi+308], 0

; 2444 : 	delete pBlackPen;

  00075	5f		 pop	 edi
  00076	5e		 pop	 esi
  00077	85 c9		 test	 ecx, ecx
  00079	74 07		 je	 SHORT $LN4@OnDestroy
  0007b	8b 01		 mov	 eax, DWORD PTR [ecx]
  0007d	6a 01		 push	 1
  0007f	ff 50 04	 call	 DWORD PTR [eax+4]
$LN4@OnDestroy:

; 2445 : }

  00082	c3		 ret	 0
$LN31@OnDestroy:
; File C:\Program Files (x86)\Microsoft Visual Studio\2019\Community\VC\Tools\MSVC\14.29.30133\atlmfc\include\afxcoll.inl

; 204  : 			AfxThrowInvalidArgException();

  00083	e8 00 00 00 00	 call	 ?AfxThrowInvalidArgException@@YGXXZ ; AfxThrowInvalidArgException
$LN37@OnDestroy:
  00088	cc		 int	 3
?OnDestroy@CGfxOutBarCtrl@@IAEXXZ ENDP			; CGfxOutBarCtrl::OnDestroy
_TEXT	ENDS
; Function compile flags: /Ogtp
; File D:\git\src\IBK\IBK_DRFN\ProjSrc\SrcDrfn\Chart\comparechart\control\GfxOutBarCtrl.cpp
;	COMDAT ?OnUpdateGfxRenameitem@CGfxOutBarCtrl@@IAEXPAVCCmdUI@@@Z
_TEXT	SEGMENT
_pCmdUI$ = 8						; size = 4
?OnUpdateGfxRenameitem@CGfxOutBarCtrl@@IAEXPAVCCmdUI@@@Z PROC ; CGfxOutBarCtrl::OnUpdateGfxRenameitem, COMDAT
; _this$ = ecx

; 2055 : }

  00000	c2 04 00	 ret	 4
?OnUpdateGfxRenameitem@CGfxOutBarCtrl@@IAEXPAVCCmdUI@@@Z ENDP ; CGfxOutBarCtrl::OnUpdateGfxRenameitem
_TEXT	ENDS
; Function compile flags: /Ogtp
; File D:\git\src\IBK\IBK_DRFN\ProjSrc\SrcDrfn\Chart\comparechart\control\GfxOutBarCtrl.cpp
;	COMDAT ?OnUpdateGfxRemoveitem@CGfxOutBarCtrl@@IAEXPAVCCmdUI@@@Z
_TEXT	SEGMENT
_pCmdUI$ = 8						; size = 4
?OnUpdateGfxRemoveitem@CGfxOutBarCtrl@@IAEXPAVCCmdUI@@@Z PROC ; CGfxOutBarCtrl::OnUpdateGfxRemoveitem, COMDAT
; _this$ = ecx

; 2050 : 		
; 2051 : }

  00000	c2 04 00	 ret	 4
?OnUpdateGfxRemoveitem@CGfxOutBarCtrl@@IAEXPAVCCmdUI@@@Z ENDP ; CGfxOutBarCtrl::OnUpdateGfxRemoveitem
_TEXT	ENDS
; Function compile flags: /Ogtp
; File D:\git\src\IBK\IBK_DRFN\ProjSrc\SrcDrfn\Chart\comparechart\control\GfxOutBarCtrl.cpp
; File C:\Program Files (x86)\Microsoft Visual Studio\2019\Community\VC\Tools\MSVC\14.29.30133\atlmfc\include\afxcoll.inl
; File D:\git\src\IBK\IBK_DRFN\ProjSrc\SrcDrfn\Chart\comparechart\control\GfxOutBarCtrl.cpp
; File C:\Program Files (x86)\Microsoft Visual Studio\2019\Community\VC\Tools\MSVC\14.29.30133\atlmfc\include\afxwin2.inl
; File D:\git\src\IBK\IBK_DRFN\ProjSrc\SrcDrfn\Chart\comparechart\control\GfxOutBarCtrl.cpp
; File C:\Program Files (x86)\Microsoft Visual Studio\2019\Community\VC\Tools\MSVC\14.29.30133\atlmfc\include\afxcoll.inl
; File D:\git\src\IBK\IBK_DRFN\ProjSrc\SrcDrfn\Chart\comparechart\control\GfxOutBarCtrl.cpp
; File C:\Program Files (x86)\Microsoft Visual Studio\2019\Community\VC\Tools\MSVC\14.29.30133\atlmfc\include\afxwin2.inl
; File C:\Program Files (x86)\Microsoft Visual Studio\2019\Community\VC\Tools\MSVC\14.29.30133\atlmfc\include\atltypes.h
; File C:\Program Files (x86)\Microsoft Visual Studio\2019\Community\VC\Tools\MSVC\14.29.30133\atlmfc\include\afxwin2.inl
; File D:\git\src\IBK\IBK_DRFN\ProjSrc\SrcDrfn\Chart\comparechart\control\GfxOutBarCtrl.cpp
; File C:\Program Files (x86)\Microsoft Visual Studio\2019\Community\VC\Tools\MSVC\14.29.30133\atlmfc\include\afxwin2.inl
; File C:\Program Files (x86)\Microsoft Visual Studio\2019\Community\VC\Tools\MSVC\14.29.30133\atlmfc\include\afxcoll.inl
; File D:\git\src\IBK\IBK_DRFN\ProjSrc\SrcDrfn\Chart\comparechart\control\GfxOutBarCtrl.cpp
;	COMDAT ?OnGfxRemoveitem@CGfxOutBarCtrl@@IAEXXZ
_TEXT	SEGMENT
_rc$1 = -20						; size = 16
__$ArrayPad$ = -4					; size = 4
?OnGfxRemoveitem@CGfxOutBarCtrl@@IAEXXZ PROC		; CGfxOutBarCtrl::OnGfxRemoveitem, COMDAT
; _this$ = ecx

; 2037 : {

  00000	55		 push	 ebp
  00001	8b ec		 mov	 ebp, esp
  00003	83 ec 14	 sub	 esp, 20			; 00000014H
  00006	a1 00 00 00 00	 mov	 eax, DWORD PTR ___security_cookie
  0000b	33 c5		 xor	 eax, ebp
  0000d	89 45 fc	 mov	 DWORD PTR __$ArrayPad$[ebp], eax
  00010	53		 push	 ebx
  00011	56		 push	 esi
  00012	8b f1		 mov	 esi, ecx
  00014	57		 push	 edi

; 2038 : 	if (iHitInternal1 == htFolder)

  00015	8b 86 e8 00 00
	00		 mov	 eax, DWORD PTR [esi+232]
  0001b	85 c0		 test	 eax, eax
  0001d	0f 85 83 00 00
	00		 jne	 $LN2@OnGfxRemov

; 2039 : 	{
; 2040 : 		RemoveFolder(iHitInternal2);

  00023	8b be ec 00 00
	00		 mov	 edi, DWORD PTR [esi+236]
; File C:\Program Files (x86)\Microsoft Visual Studio\2019\Community\VC\Tools\MSVC\14.29.30133\atlmfc\include\afxcoll.inl

; 203  : 		if( nIndex < 0 || nIndex >= m_nSize )

  00029	85 ff		 test	 edi, edi
  0002b	0f 88 08 01 00
	00		 js	 $LN27@OnGfxRemov
  00031	3b be 0c 01 00
	00		 cmp	 edi, DWORD PTR [esi+268]
  00037	0f 8d fc 00 00
	00		 jge	 $LN27@OnGfxRemov
; File D:\git\src\IBK\IBK_DRFN\ProjSrc\SrcDrfn\Chart\comparechart\control\GfxOutBarCtrl.cpp

; 1513 : 	delete pbf;

  0003d	8b 86 08 01 00
	00		 mov	 eax, DWORD PTR [esi+264]
  00043	8b 0c b8	 mov	 ecx, DWORD PTR [eax+edi*4]
  00046	85 c9		 test	 ecx, ecx
  00048	74 06		 je	 SHORT $LN10@OnGfxRemov
  0004a	8b 01		 mov	 eax, DWORD PTR [ecx]
  0004c	6a 01		 push	 1
  0004e	ff 10		 call	 DWORD PTR [eax]
$LN10@OnGfxRemov:

; 1514 : 	arFolder.RemoveAt(index);

  00050	6a 01		 push	 1
  00052	57		 push	 edi
  00053	8d 8e 04 01 00
	00		 lea	 ecx, DWORD PTR [esi+260]
  00059	e8 00 00 00 00	 call	 ?RemoveAt@CPtrArray@@QAEXHH@Z ; CPtrArray::RemoveAt

; 1515 : 	if (iSelFolder >= index) iSelFolder = index - 1;

  0005e	8b 86 34 01 00
	00		 mov	 eax, DWORD PTR [esi+308]
  00064	3b c7		 cmp	 eax, edi
  00066	7c 09		 jl	 SHORT $LN7@OnGfxRemov
  00068	8d 47 ff	 lea	 eax, DWORD PTR [edi-1]
  0006b	89 86 34 01 00
	00		 mov	 DWORD PTR [esi+308], eax
$LN7@OnGfxRemov:

; 1516 : 	if (iSelFolder < 0 && GetFolderCount() > 0) iSelFolder = 0;

  00071	85 c0		 test	 eax, eax
  00073	79 13		 jns	 SHORT $LN8@OnGfxRemov
  00075	83 be 0c 01 00
	00 00		 cmp	 DWORD PTR [esi+268], 0
  0007c	7e 0a		 jle	 SHORT $LN8@OnGfxRemov
  0007e	c7 86 34 01 00
	00 00 00 00 00	 mov	 DWORD PTR [esi+308], 0
$LN8@OnGfxRemov:
; File C:\Program Files (x86)\Microsoft Visual Studio\2019\Community\VC\Tools\MSVC\14.29.30133\atlmfc\include\afxwin2.inl

; 114  : 	{ ASSERT(::IsWindow(m_hWnd)); ::InvalidateRect(m_hWnd, NULL, bErase); }

  00088	6a 01		 push	 1
  0008a	6a 00		 push	 0
$LN56@OnGfxRemov:
; File D:\git\src\IBK\IBK_DRFN\ProjSrc\SrcDrfn\Chart\comparechart\control\GfxOutBarCtrl.cpp

; 2046 : }

  0008c	ff 76 20	 push	 DWORD PTR [esi+32]
  0008f	ff 15 00 00 00
	00		 call	 DWORD PTR __imp__InvalidateRect@12
$LN21@OnGfxRemov:
  00095	8b 4d fc	 mov	 ecx, DWORD PTR __$ArrayPad$[ebp]
  00098	5f		 pop	 edi
  00099	5e		 pop	 esi
  0009a	33 cd		 xor	 ecx, ebp
  0009c	5b		 pop	 ebx
  0009d	e8 00 00 00 00	 call	 @__security_check_cookie@4
  000a2	8b e5		 mov	 esp, ebp
  000a4	5d		 pop	 ebp
  000a5	c3		 ret	 0
$LN2@OnGfxRemov:

; 2041 : 	}
; 2042 : 	else if (iHitInternal1 == htItem)

  000a6	83 f8 01	 cmp	 eax, 1
  000a9	75 ea		 jne	 SHORT $LN21@OnGfxRemov

; 2060 : 	CBarFolder * pbf = (CBarFolder *) arFolder.GetAt(iSelFolder);

  000ab	8b 8e 34 01 00
	00		 mov	 ecx, DWORD PTR [esi+308]

; 2043 : 	{
; 2044 : 		RemoveItem(iHitInternal2);

  000b1	8b be ec 00 00
	00		 mov	 edi, DWORD PTR [esi+236]
; File C:\Program Files (x86)\Microsoft Visual Studio\2019\Community\VC\Tools\MSVC\14.29.30133\atlmfc\include\afxcoll.inl

; 203  : 		if( nIndex < 0 || nIndex >= m_nSize )

  000b7	85 c9		 test	 ecx, ecx
  000b9	78 7e		 js	 SHORT $LN27@OnGfxRemov
  000bb	3b 8e 0c 01 00
	00		 cmp	 ecx, DWORD PTR [esi+268]
  000c1	7d 76		 jge	 SHORT $LN27@OnGfxRemov

; 205  : 		return m_pData[nIndex]; }

  000c3	8b 86 08 01 00
	00		 mov	 eax, DWORD PTR [esi+264]
  000c9	8b 04 88	 mov	 eax, DWORD PTR [eax+ecx*4]
; File D:\git\src\IBK\IBK_DRFN\ProjSrc\SrcDrfn\Chart\comparechart\control\GfxOutBarCtrl.cpp

; 2078 : 	return (index >= 0 && index < pbf->GetItemCount());

  000cc	85 ff		 test	 edi, edi
  000ce	78 c5		 js	 SHORT $LN21@OnGfxRemov
  000d0	3b 78 1c	 cmp	 edi, DWORD PTR [eax+28]
  000d3	7d c0		 jge	 SHORT $LN21@OnGfxRemov
  000d5	8d 58 14	 lea	 ebx, DWORD PTR [eax+20]

; 2065 : 		delete i;

  000d8	8b 40 18	 mov	 eax, DWORD PTR [eax+24]
  000db	8b 0c b8	 mov	 ecx, DWORD PTR [eax+edi*4]
  000de	85 c9		 test	 ecx, ecx
  000e0	74 06		 je	 SHORT $LN23@OnGfxRemov
  000e2	8b 01		 mov	 eax, DWORD PTR [ecx]
  000e4	6a 01		 push	 1
  000e6	ff 10		 call	 DWORD PTR [eax]
$LN23@OnGfxRemov:

; 2066 : 
; 2067 : 		pbf->arItems.RemoveAt(index);

  000e8	6a 01		 push	 1
  000ea	57		 push	 edi
  000eb	8b cb		 mov	 ecx, ebx
  000ed	e8 00 00 00 00	 call	 ?RemoveAt@CPtrArray@@QAEXHH@Z ; CPtrArray::RemoveAt
; File C:\Program Files (x86)\Microsoft Visual Studio\2019\Community\VC\Tools\MSVC\14.29.30133\atlmfc\include\afxwin2.inl

; 86   : 	{ ASSERT(::IsWindow(m_hWnd)); ::GetClientRect(m_hWnd, lpRect); }

  000f2	8d 45 ec	 lea	 eax, DWORD PTR _rc$1[ebp]
  000f5	0f 57 c0	 xorps	 xmm0, xmm0
  000f8	50		 push	 eax
  000f9	ff 76 20	 push	 DWORD PTR [esi+32]
; File C:\Program Files (x86)\Microsoft Visual Studio\2019\Community\VC\Tools\MSVC\14.29.30133\atlmfc\include\atltypes.h

; 528  : 	left = 0;

  000fc	0f 11 45 ec	 movups	 XMMWORD PTR _rc$1[ebp], xmm0
; File C:\Program Files (x86)\Microsoft Visual Studio\2019\Community\VC\Tools\MSVC\14.29.30133\atlmfc\include\afxwin2.inl

; 86   : 	{ ASSERT(::IsWindow(m_hWnd)); ::GetClientRect(m_hWnd, lpRect); }

  00100	ff 15 00 00 00
	00		 call	 DWORD PTR __imp__GetClientRect@8
; File D:\git\src\IBK\IBK_DRFN\ProjSrc\SrcDrfn\Chart\comparechart\control\GfxOutBarCtrl.cpp

; 746  : 	if (arFolder.GetSize() > 0)

  00106	8b be 0c 01 00
	00		 mov	 edi, DWORD PTR [esi+268]
  0010c	85 ff		 test	 edi, edi
  0010e	7e 1e		 jle	 SHORT $LN46@OnGfxRemov

; 747  : 	{
; 748  : 		int max = arFolder.GetSize();
; 749  : 		rect.top += iFolderHeight * (iSelFolder + 1); + 1;//+ 2;

  00110	8b 8e 34 01 00
	00		 mov	 ecx, DWORD PTR [esi+308]

; 750  : 		rect.bottom -= (max - iSelFolder - 1)*iFolderHeight;

  00116	2b f9		 sub	 edi, ecx
  00118	8b 96 a0 00 00
	00		 mov	 edx, DWORD PTR [esi+160]
  0011e	4f		 dec	 edi
  0011f	0f af fa	 imul	 edi, edx
  00122	8d 41 01	 lea	 eax, DWORD PTR [ecx+1]
  00125	0f af c2	 imul	 eax, edx
  00128	01 45 f0	 add	 DWORD PTR _rc$1[ebp+4], eax
  0012b	29 7d f8	 sub	 DWORD PTR _rc$1[ebp+12], edi
$LN46@OnGfxRemov:
; File C:\Program Files (x86)\Microsoft Visual Studio\2019\Community\VC\Tools\MSVC\14.29.30133\atlmfc\include\afxwin2.inl

; 116  : 	{ ASSERT(::IsWindow(m_hWnd)); ::InvalidateRect(m_hWnd, lpRect, bErase); }

  0012e	6a 01		 push	 1
  00130	8d 45 ec	 lea	 eax, DWORD PTR _rc$1[ebp]
  00133	50		 push	 eax
  00134	e9 53 ff ff ff	 jmp	 $LN56@OnGfxRemov
$LN27@OnGfxRemov:
; File C:\Program Files (x86)\Microsoft Visual Studio\2019\Community\VC\Tools\MSVC\14.29.30133\atlmfc\include\afxcoll.inl

; 204  : 			AfxThrowInvalidArgException();

  00139	e8 00 00 00 00	 call	 ?AfxThrowInvalidArgException@@YGXXZ ; AfxThrowInvalidArgException
$LN55@OnGfxRemov:
  0013e	cc		 int	 3
?OnGfxRemoveitem@CGfxOutBarCtrl@@IAEXXZ ENDP		; CGfxOutBarCtrl::OnGfxRemoveitem
_TEXT	ENDS
; Function compile flags: /Ogtp
; File D:\git\src\IBK\IBK_DRFN\ProjSrc\SrcDrfn\Chart\comparechart\control\GfxOutBarCtrl.cpp
;	COMDAT ?OnUpdateGfxSmallicon@CGfxOutBarCtrl@@IAEXPAVCCmdUI@@@Z
_TEXT	SEGMENT
_pCmdUI$ = 8						; size = 4
?OnUpdateGfxSmallicon@CGfxOutBarCtrl@@IAEXPAVCCmdUI@@@Z PROC ; CGfxOutBarCtrl::OnUpdateGfxSmallicon, COMDAT
; _this$ = ecx

; 2032 : {

  00000	55		 push	 ebp
  00001	8b ec		 mov	 ebp, esp

; 2033 : 	pCmdUI->Enable(!IsSmallIconView());

  00003	8b 55 08	 mov	 edx, DWORD PTR _pCmdUI$[ebp]

; 184  : 	return dwFlags&fSmallIcon;

  00006	0f b6 81 00 01
	00 00		 movzx	 eax, BYTE PTR [ecx+256]

; 2033 : 	pCmdUI->Enable(!IsSmallIconView());

  0000d	8b ca		 mov	 ecx, edx
  0000f	56		 push	 esi

; 184  : 	return dwFlags&fSmallIcon;

  00010	f7 d0		 not	 eax

; 2033 : 	pCmdUI->Enable(!IsSmallIconView());

  00012	8b 32		 mov	 esi, DWORD PTR [edx]

; 184  : 	return dwFlags&fSmallIcon;

  00014	83 e0 01	 and	 eax, 1

; 2033 : 	pCmdUI->Enable(!IsSmallIconView());

  00017	50		 push	 eax
  00018	ff 16		 call	 DWORD PTR [esi]
  0001a	5e		 pop	 esi

; 2034 : }

  0001b	5d		 pop	 ebp
  0001c	c2 04 00	 ret	 4
?OnUpdateGfxSmallicon@CGfxOutBarCtrl@@IAEXPAVCCmdUI@@@Z ENDP ; CGfxOutBarCtrl::OnUpdateGfxSmallicon
_TEXT	ENDS
; Function compile flags: /Ogtp
; File D:\git\src\IBK\IBK_DRFN\ProjSrc\SrcDrfn\Chart\comparechart\control\GfxOutBarCtrl.cpp
; File C:\Program Files (x86)\Microsoft Visual Studio\2019\Community\VC\Tools\MSVC\14.29.30133\atlmfc\include\afxwin2.inl
; File D:\git\src\IBK\IBK_DRFN\ProjSrc\SrcDrfn\Chart\comparechart\control\GfxOutBarCtrl.cpp
; File C:\Program Files (x86)\Microsoft Visual Studio\2019\Community\VC\Tools\MSVC\14.29.30133\atlmfc\include\afxwin2.inl
; File C:\Program Files (x86)\Microsoft Visual Studio\2019\Community\VC\Tools\MSVC\14.29.30133\atlmfc\include\atltypes.h
; File C:\Program Files (x86)\Microsoft Visual Studio\2019\Community\VC\Tools\MSVC\14.29.30133\atlmfc\include\afxwin2.inl
; File D:\git\src\IBK\IBK_DRFN\ProjSrc\SrcDrfn\Chart\comparechart\control\GfxOutBarCtrl.cpp
; File C:\Program Files (x86)\Microsoft Visual Studio\2019\Community\VC\Tools\MSVC\14.29.30133\atlmfc\include\afxwin2.inl
; File D:\git\src\IBK\IBK_DRFN\ProjSrc\SrcDrfn\Chart\comparechart\control\GfxOutBarCtrl.cpp
; File C:\Program Files (x86)\Microsoft Visual Studio\2019\Community\VC\Tools\MSVC\14.29.30133\atlmfc\include\afxwin2.inl
; File D:\git\src\IBK\IBK_DRFN\ProjSrc\SrcDrfn\Chart\comparechart\control\GfxOutBarCtrl.cpp
;	COMDAT ?OnGfxSmallicon@CGfxOutBarCtrl@@IAEXXZ
_TEXT	SEGMENT
_rc$1 = -20						; size = 16
__$ArrayPad$ = -4					; size = 4
?OnGfxSmallicon@CGfxOutBarCtrl@@IAEXXZ PROC		; CGfxOutBarCtrl::OnGfxSmallicon, COMDAT
; _this$ = ecx

; 2026 : {

  00000	55		 push	 ebp
  00001	8b ec		 mov	 ebp, esp
  00003	83 ec 14	 sub	 esp, 20			; 00000014H
  00006	a1 00 00 00 00	 mov	 eax, DWORD PTR ___security_cookie
  0000b	33 c5		 xor	 eax, ebp
  0000d	89 45 fc	 mov	 DWORD PTR __$ArrayPad$[ebp], eax
  00010	56		 push	 esi
  00011	8b f1		 mov	 esi, ecx

; 184  : 	return dwFlags&fSmallIcon;

  00013	f6 86 00 01 00
	00 01		 test	 BYTE PTR [esi+256], 1

; 189  : 	iFirstItem = 0;

  0001a	c7 86 20 01 00
	00 00 00 00 00	 mov	 DWORD PTR [esi+288], 0

; 190  : 
; 191  : 	if (bSet)
; 192  : 	{
; 193  : 		if (!IsSmallIconView()) 

  00024	75 54		 jne	 SHORT $LN6@OnGfxSmall

; 195  : 			dwFlags |= fSmallIcon;

  00026	83 8e 00 01 00
	00 01		 or	 DWORD PTR [esi+256], 1
; File C:\Program Files (x86)\Microsoft Visual Studio\2019\Community\VC\Tools\MSVC\14.29.30133\atlmfc\include\afxwin2.inl

; 86   : 	{ ASSERT(::IsWindow(m_hWnd)); ::GetClientRect(m_hWnd, lpRect); }

  0002d	8d 45 ec	 lea	 eax, DWORD PTR _rc$1[ebp]
; File D:\git\src\IBK\IBK_DRFN\ProjSrc\SrcDrfn\Chart\comparechart\control\GfxOutBarCtrl.cpp

; 195  : 			dwFlags |= fSmallIcon;

  00030	57		 push	 edi
; File C:\Program Files (x86)\Microsoft Visual Studio\2019\Community\VC\Tools\MSVC\14.29.30133\atlmfc\include\afxwin2.inl

; 86   : 	{ ASSERT(::IsWindow(m_hWnd)); ::GetClientRect(m_hWnd, lpRect); }

  00031	50		 push	 eax
  00032	ff 76 20	 push	 DWORD PTR [esi+32]
  00035	0f 57 c0	 xorps	 xmm0, xmm0
; File C:\Program Files (x86)\Microsoft Visual Studio\2019\Community\VC\Tools\MSVC\14.29.30133\atlmfc\include\atltypes.h

; 528  : 	left = 0;

  00038	0f 11 45 ec	 movups	 XMMWORD PTR _rc$1[ebp], xmm0
; File C:\Program Files (x86)\Microsoft Visual Studio\2019\Community\VC\Tools\MSVC\14.29.30133\atlmfc\include\afxwin2.inl

; 86   : 	{ ASSERT(::IsWindow(m_hWnd)); ::GetClientRect(m_hWnd, lpRect); }

  0003c	ff 15 00 00 00
	00		 call	 DWORD PTR __imp__GetClientRect@8
; File D:\git\src\IBK\IBK_DRFN\ProjSrc\SrcDrfn\Chart\comparechart\control\GfxOutBarCtrl.cpp

; 746  : 	if (arFolder.GetSize() > 0)

  00042	8b be 0c 01 00
	00		 mov	 edi, DWORD PTR [esi+268]
  00048	85 ff		 test	 edi, edi
  0004a	7e 1e		 jle	 SHORT $LN14@OnGfxSmall

; 747  : 	{
; 748  : 		int max = arFolder.GetSize();
; 749  : 		rect.top += iFolderHeight * (iSelFolder + 1); + 1;//+ 2;

  0004c	8b 8e 34 01 00
	00		 mov	 ecx, DWORD PTR [esi+308]

; 750  : 		rect.bottom -= (max - iSelFolder - 1)*iFolderHeight;

  00052	2b f9		 sub	 edi, ecx
  00054	8b 96 a0 00 00
	00		 mov	 edx, DWORD PTR [esi+160]
  0005a	4f		 dec	 edi
  0005b	0f af fa	 imul	 edi, edx
  0005e	8d 41 01	 lea	 eax, DWORD PTR [ecx+1]
  00061	0f af c2	 imul	 eax, edx
  00064	01 45 f0	 add	 DWORD PTR _rc$1[ebp+4], eax
  00067	29 7d f8	 sub	 DWORD PTR _rc$1[ebp+12], edi
$LN14@OnGfxSmall:
; File C:\Program Files (x86)\Microsoft Visual Studio\2019\Community\VC\Tools\MSVC\14.29.30133\atlmfc\include\afxwin2.inl

; 116  : 	{ ASSERT(::IsWindow(m_hWnd)); ::InvalidateRect(m_hWnd, lpRect, bErase); }

  0006a	6a 00		 push	 0
  0006c	8d 45 ec	 lea	 eax, DWORD PTR _rc$1[ebp]
  0006f	50		 push	 eax
  00070	ff 76 20	 push	 DWORD PTR [esi+32]
  00073	ff 15 00 00 00
	00		 call	 DWORD PTR __imp__InvalidateRect@12
  00079	5f		 pop	 edi
$LN6@OnGfxSmall:

; 114  : 	{ ASSERT(::IsWindow(m_hWnd)); ::InvalidateRect(m_hWnd, NULL, bErase); }

  0007a	6a 01		 push	 1
  0007c	6a 00		 push	 0
  0007e	ff 76 20	 push	 DWORD PTR [esi+32]
  00081	ff 15 00 00 00
	00		 call	 DWORD PTR __imp__InvalidateRect@12
; File D:\git\src\IBK\IBK_DRFN\ProjSrc\SrcDrfn\Chart\comparechart\control\GfxOutBarCtrl.cpp

; 2029 : }

  00087	8b 4d fc	 mov	 ecx, DWORD PTR __$ArrayPad$[ebp]
  0008a	33 cd		 xor	 ecx, ebp
; File C:\Program Files (x86)\Microsoft Visual Studio\2019\Community\VC\Tools\MSVC\14.29.30133\atlmfc\include\afxwin2.inl

; 114  : 	{ ASSERT(::IsWindow(m_hWnd)); ::InvalidateRect(m_hWnd, NULL, bErase); }

  0008c	5e		 pop	 esi
; File D:\git\src\IBK\IBK_DRFN\ProjSrc\SrcDrfn\Chart\comparechart\control\GfxOutBarCtrl.cpp

; 2029 : }

  0008d	e8 00 00 00 00	 call	 @__security_check_cookie@4
  00092	8b e5		 mov	 esp, ebp
  00094	5d		 pop	 ebp
  00095	c3		 ret	 0
?OnGfxSmallicon@CGfxOutBarCtrl@@IAEXXZ ENDP		; CGfxOutBarCtrl::OnGfxSmallicon
_TEXT	ENDS
; Function compile flags: /Ogtp
; File D:\git\src\IBK\IBK_DRFN\ProjSrc\SrcDrfn\Chart\comparechart\control\GfxOutBarCtrl.cpp
;	COMDAT ?OnUpdateGfxLargeicon@CGfxOutBarCtrl@@IAEXPAVCCmdUI@@@Z
_TEXT	SEGMENT
_pCmdUI$ = 8						; size = 4
?OnUpdateGfxLargeicon@CGfxOutBarCtrl@@IAEXPAVCCmdUI@@@Z PROC ; CGfxOutBarCtrl::OnUpdateGfxLargeicon, COMDAT
; _this$ = ecx

; 2021 : {

  00000	55		 push	 ebp
  00001	8b ec		 mov	 ebp, esp

; 2022 : 	pCmdUI->Enable(IsSmallIconView());

  00003	8b 55 08	 mov	 edx, DWORD PTR _pCmdUI$[ebp]

; 184  : 	return dwFlags&fSmallIcon;

  00006	0f b6 81 00 01
	00 00		 movzx	 eax, BYTE PTR [ecx+256]

; 2022 : 	pCmdUI->Enable(IsSmallIconView());

  0000d	8b ca		 mov	 ecx, edx
  0000f	56		 push	 esi

; 184  : 	return dwFlags&fSmallIcon;

  00010	83 e0 01	 and	 eax, 1

; 2022 : 	pCmdUI->Enable(IsSmallIconView());

  00013	8b 32		 mov	 esi, DWORD PTR [edx]
  00015	50		 push	 eax
  00016	ff 16		 call	 DWORD PTR [esi]
  00018	5e		 pop	 esi

; 2023 : }

  00019	5d		 pop	 ebp
  0001a	c2 04 00	 ret	 4
?OnUpdateGfxLargeicon@CGfxOutBarCtrl@@IAEXPAVCCmdUI@@@Z ENDP ; CGfxOutBarCtrl::OnUpdateGfxLargeicon
_TEXT	ENDS
; Function compile flags: /Ogtp
; File D:\git\src\IBK\IBK_DRFN\ProjSrc\SrcDrfn\Chart\comparechart\control\GfxOutBarCtrl.cpp
; File C:\Program Files (x86)\Microsoft Visual Studio\2019\Community\VC\Tools\MSVC\14.29.30133\atlmfc\include\afxwin2.inl
; File D:\git\src\IBK\IBK_DRFN\ProjSrc\SrcDrfn\Chart\comparechart\control\GfxOutBarCtrl.cpp
; File C:\Program Files (x86)\Microsoft Visual Studio\2019\Community\VC\Tools\MSVC\14.29.30133\atlmfc\include\afxwin2.inl
; File C:\Program Files (x86)\Microsoft Visual Studio\2019\Community\VC\Tools\MSVC\14.29.30133\atlmfc\include\atltypes.h
; File C:\Program Files (x86)\Microsoft Visual Studio\2019\Community\VC\Tools\MSVC\14.29.30133\atlmfc\include\afxwin2.inl
; File D:\git\src\IBK\IBK_DRFN\ProjSrc\SrcDrfn\Chart\comparechart\control\GfxOutBarCtrl.cpp
; File C:\Program Files (x86)\Microsoft Visual Studio\2019\Community\VC\Tools\MSVC\14.29.30133\atlmfc\include\afxwin2.inl
; File D:\git\src\IBK\IBK_DRFN\ProjSrc\SrcDrfn\Chart\comparechart\control\GfxOutBarCtrl.cpp
; File C:\Program Files (x86)\Microsoft Visual Studio\2019\Community\VC\Tools\MSVC\14.29.30133\atlmfc\include\afxwin2.inl
; File D:\git\src\IBK\IBK_DRFN\ProjSrc\SrcDrfn\Chart\comparechart\control\GfxOutBarCtrl.cpp
;	COMDAT ?OnGfxLargeicon@CGfxOutBarCtrl@@IAEXXZ
_TEXT	SEGMENT
_rc$1 = -20						; size = 16
__$ArrayPad$ = -4					; size = 4
?OnGfxLargeicon@CGfxOutBarCtrl@@IAEXXZ PROC		; CGfxOutBarCtrl::OnGfxLargeicon, COMDAT
; _this$ = ecx

; 2015 : {

  00000	55		 push	 ebp
  00001	8b ec		 mov	 ebp, esp
  00003	83 ec 14	 sub	 esp, 20			; 00000014H
  00006	a1 00 00 00 00	 mov	 eax, DWORD PTR ___security_cookie
  0000b	33 c5		 xor	 eax, ebp
  0000d	89 45 fc	 mov	 DWORD PTR __$ArrayPad$[ebp], eax
  00010	56		 push	 esi
  00011	8b f1		 mov	 esi, ecx

; 184  : 	return dwFlags&fSmallIcon;

  00013	f6 86 00 01 00
	00 01		 test	 BYTE PTR [esi+256], 1

; 189  : 	iFirstItem = 0;

  0001a	c7 86 20 01 00
	00 00 00 00 00	 mov	 DWORD PTR [esi+288], 0

; 190  : 
; 191  : 	if (bSet)
; 192  : 	{
; 193  : 		if (!IsSmallIconView()) 
; 194  : 		{
; 195  : 			dwFlags |= fSmallIcon;
; 196  : 			CRect rc;
; 197  : 			GetInsideRect(rc);
; 198  : 			InvalidateRect(rc, false);
; 199  : 		}
; 200  : 	}
; 201  : 	else
; 202  : 	{
; 203  : 		if (IsSmallIconView()) 

  00024	74 54		 je	 SHORT $LN7@OnGfxLarge

; 205  : 			dwFlags &= ~fSmallIcon;

  00026	83 a6 00 01 00
	00 fe		 and	 DWORD PTR [esi+256], -2	; fffffffeH
; File C:\Program Files (x86)\Microsoft Visual Studio\2019\Community\VC\Tools\MSVC\14.29.30133\atlmfc\include\afxwin2.inl

; 86   : 	{ ASSERT(::IsWindow(m_hWnd)); ::GetClientRect(m_hWnd, lpRect); }

  0002d	8d 45 ec	 lea	 eax, DWORD PTR _rc$1[ebp]
; File D:\git\src\IBK\IBK_DRFN\ProjSrc\SrcDrfn\Chart\comparechart\control\GfxOutBarCtrl.cpp

; 205  : 			dwFlags &= ~fSmallIcon;

  00030	57		 push	 edi
; File C:\Program Files (x86)\Microsoft Visual Studio\2019\Community\VC\Tools\MSVC\14.29.30133\atlmfc\include\afxwin2.inl

; 86   : 	{ ASSERT(::IsWindow(m_hWnd)); ::GetClientRect(m_hWnd, lpRect); }

  00031	50		 push	 eax
  00032	ff 76 20	 push	 DWORD PTR [esi+32]
  00035	0f 57 c0	 xorps	 xmm0, xmm0
; File C:\Program Files (x86)\Microsoft Visual Studio\2019\Community\VC\Tools\MSVC\14.29.30133\atlmfc\include\atltypes.h

; 528  : 	left = 0;

  00038	0f 11 45 ec	 movups	 XMMWORD PTR _rc$1[ebp], xmm0
; File C:\Program Files (x86)\Microsoft Visual Studio\2019\Community\VC\Tools\MSVC\14.29.30133\atlmfc\include\afxwin2.inl

; 86   : 	{ ASSERT(::IsWindow(m_hWnd)); ::GetClientRect(m_hWnd, lpRect); }

  0003c	ff 15 00 00 00
	00		 call	 DWORD PTR __imp__GetClientRect@8
; File D:\git\src\IBK\IBK_DRFN\ProjSrc\SrcDrfn\Chart\comparechart\control\GfxOutBarCtrl.cpp

; 746  : 	if (arFolder.GetSize() > 0)

  00042	8b be 0c 01 00
	00		 mov	 edi, DWORD PTR [esi+268]
  00048	85 ff		 test	 edi, edi
  0004a	7e 1e		 jle	 SHORT $LN25@OnGfxLarge

; 747  : 	{
; 748  : 		int max = arFolder.GetSize();
; 749  : 		rect.top += iFolderHeight * (iSelFolder + 1); + 1;//+ 2;

  0004c	8b 8e 34 01 00
	00		 mov	 ecx, DWORD PTR [esi+308]

; 750  : 		rect.bottom -= (max - iSelFolder - 1)*iFolderHeight;

  00052	2b f9		 sub	 edi, ecx
  00054	8b 96 a0 00 00
	00		 mov	 edx, DWORD PTR [esi+160]
  0005a	4f		 dec	 edi
  0005b	0f af fa	 imul	 edi, edx
  0005e	8d 41 01	 lea	 eax, DWORD PTR [ecx+1]
  00061	0f af c2	 imul	 eax, edx
  00064	01 45 f0	 add	 DWORD PTR _rc$1[ebp+4], eax
  00067	29 7d f8	 sub	 DWORD PTR _rc$1[ebp+12], edi
$LN25@OnGfxLarge:
; File C:\Program Files (x86)\Microsoft Visual Studio\2019\Community\VC\Tools\MSVC\14.29.30133\atlmfc\include\afxwin2.inl

; 116  : 	{ ASSERT(::IsWindow(m_hWnd)); ::InvalidateRect(m_hWnd, lpRect, bErase); }

  0006a	6a 00		 push	 0
  0006c	8d 45 ec	 lea	 eax, DWORD PTR _rc$1[ebp]
  0006f	50		 push	 eax
  00070	ff 76 20	 push	 DWORD PTR [esi+32]
  00073	ff 15 00 00 00
	00		 call	 DWORD PTR __imp__InvalidateRect@12
  00079	5f		 pop	 edi
$LN7@OnGfxLarge:

; 114  : 	{ ASSERT(::IsWindow(m_hWnd)); ::InvalidateRect(m_hWnd, NULL, bErase); }

  0007a	6a 01		 push	 1
  0007c	6a 00		 push	 0
  0007e	ff 76 20	 push	 DWORD PTR [esi+32]
  00081	ff 15 00 00 00
	00		 call	 DWORD PTR __imp__InvalidateRect@12
; File D:\git\src\IBK\IBK_DRFN\ProjSrc\SrcDrfn\Chart\comparechart\control\GfxOutBarCtrl.cpp

; 2018 : }

  00087	8b 4d fc	 mov	 ecx, DWORD PTR __$ArrayPad$[ebp]
  0008a	33 cd		 xor	 ecx, ebp
; File C:\Program Files (x86)\Microsoft Visual Studio\2019\Community\VC\Tools\MSVC\14.29.30133\atlmfc\include\afxwin2.inl

; 114  : 	{ ASSERT(::IsWindow(m_hWnd)); ::InvalidateRect(m_hWnd, NULL, bErase); }

  0008c	5e		 pop	 esi
; File D:\git\src\IBK\IBK_DRFN\ProjSrc\SrcDrfn\Chart\comparechart\control\GfxOutBarCtrl.cpp

; 2018 : }

  0008d	e8 00 00 00 00	 call	 @__security_check_cookie@4
  00092	8b e5		 mov	 esp, ebp
  00094	5d		 pop	 ebp
  00095	c3		 ret	 0
?OnGfxLargeicon@CGfxOutBarCtrl@@IAEXXZ ENDP		; CGfxOutBarCtrl::OnGfxLargeicon
_TEXT	ENDS
; Function compile flags: /Ogtp
; File D:\git\src\IBK\IBK_DRFN\ProjSrc\SrcDrfn\Chart\comparechart\control\GfxOutBarCtrl.cpp
; File C:\Program Files (x86)\Microsoft Visual Studio\2019\Community\VC\Tools\MSVC\14.29.30133\atlmfc\include\afxwin2.inl
; File D:\git\src\IBK\IBK_DRFN\ProjSrc\SrcDrfn\Chart\comparechart\control\GfxOutBarCtrl.cpp
; File C:\Program Files (x86)\Microsoft Visual Studio\2019\Community\VC\Tools\MSVC\14.29.30133\atlmfc\include\afxwin2.inl
; File C:\Program Files (x86)\Microsoft Visual Studio\2019\Community\VC\Tools\MSVC\14.29.30133\atlmfc\include\atltypes.h
; File C:\Program Files (x86)\Microsoft Visual Studio\2019\Community\VC\Tools\MSVC\14.29.30133\atlmfc\include\afxwin2.inl
; File D:\git\src\IBK\IBK_DRFN\ProjSrc\SrcDrfn\Chart\comparechart\control\GfxOutBarCtrl.cpp
; File C:\Program Files (x86)\Microsoft Visual Studio\2019\Community\VC\Tools\MSVC\14.29.30133\atlmfc\include\afxcoll.inl
; File D:\git\src\IBK\IBK_DRFN\ProjSrc\SrcDrfn\Chart\comparechart\control\GfxOutBarCtrl.cpp
; File C:\Program Files (x86)\Microsoft Visual Studio\2019\Community\VC\Tools\MSVC\14.29.30133\atlmfc\include\atltypes.h
; File D:\git\src\IBK\IBK_DRFN\ProjSrc\SrcDrfn\Chart\comparechart\control\GfxOutBarCtrl.cpp
; File C:\Program Files (x86)\Microsoft Visual Studio\2019\Community\VC\Tools\MSVC\14.29.30133\atlmfc\include\atltypes.h
; File D:\git\src\IBK\IBK_DRFN\ProjSrc\SrcDrfn\Chart\comparechart\control\GfxOutBarCtrl.cpp
; File C:\Program Files (x86)\Microsoft Visual Studio\2019\Community\VC\Tools\MSVC\14.29.30133\atlmfc\include\afxcoll.inl
; File D:\git\src\IBK\IBK_DRFN\ProjSrc\SrcDrfn\Chart\comparechart\control\GfxOutBarCtrl.cpp
;	COMDAT ?OnSize@CGfxOutBarCtrl@@IAEXIHH@Z
_TEXT	SEGMENT
_max$1$ = -24						; size = 4
_rc$ = -20						; size = 16
__$ArrayPad$ = -4					; size = 4
_nType$ = 8						; size = 4
_cx$ = 12						; size = 4
_cy$ = 16						; size = 4
?OnSize@CGfxOutBarCtrl@@IAEXIHH@Z PROC			; CGfxOutBarCtrl::OnSize, COMDAT
; _this$ = ecx

; 1830 : {

  00000	55		 push	 ebp
  00001	8b ec		 mov	 ebp, esp
  00003	83 ec 18	 sub	 esp, 24			; 00000018H
  00006	a1 00 00 00 00	 mov	 eax, DWORD PTR ___security_cookie
  0000b	33 c5		 xor	 eax, ebp
  0000d	89 45 fc	 mov	 DWORD PTR __$ArrayPad$[ebp], eax
  00010	53		 push	 ebx
  00011	56		 push	 esi
  00012	57		 push	 edi
  00013	8b f9		 mov	 edi, ecx

; 1831 : 
; 1832 : ////////////////////////////////////////////////////
; 1833 : 	/*CRect clientRc;
; 1834 : 	GetClientRect(&clientRc);
; 1835 : 	CPaintDC dc(this);
; 1836 : 	CDC memDC;
; 1837 : 	memDC.CreateCompatibleDC(&dc);
; 1838 : 	CBitmap bmp;
; 1839 : 	bmp.CreateCompatibleBitmap(&dc, clientRc.Width(), clientRc.Height());
; 1840 : 	CBitmap * obmp = memDC.SelectObject(&bmp);
; 1841 : 
; 1842 : 	CDC * pDC = &memDC;
; 1843 : 
; 1844 : 	CRect rc;
; 1845 : 	GetInsideRect(rc);
; 1846 : 	pDC->FillSolidRect(rc, RGB(255,255,255));
; 1847 : 	if (!GetFolderChild()) pDC->FillSolidRect(rc, crBackGroundColor);
; 1848 : 
; 1849 : 
; 1850 : 	int max = arFolder.GetSize();
; 1851 : 
; 1852 : 	CRect frc;
; 1853 : 	for (int t = 0; t < max; t++)
; 1854 : 	{
; 1855 : 		GetFolderRect(t, frc);
; 1856 : 
; 1857 : 		if( t == iSelFolder)
; 1858 : 			DrawFolder(pDC, t, frc, TRUE);
; 1859 : 		else
; 1860 : 			DrawFolder(pDC, t, frc, false);
; 1861 : 	}*/
; 1862 : ///////////////////////////////////////////////////////
; 1863 : 
; 1864 : 	bUpArrow = bDownArrow = false;

  00015	66 c7 87 c0 00
	00 00 00 00	 mov	 WORD PTR [edi+192], 0
; File C:\Program Files (x86)\Microsoft Visual Studio\2019\Community\VC\Tools\MSVC\14.29.30133\atlmfc\include\afxwin2.inl

; 330  : 	{ Default(); }

  0001e	e8 00 00 00 00	 call	 ?Default@CWnd@@IAEJXZ	; CWnd::Default
; File D:\git\src\IBK\IBK_DRFN\ProjSrc\SrcDrfn\Chart\comparechart\control\GfxOutBarCtrl.cpp

; 1868 : 	int t, max = GetFolderCount();

  00023	8b 87 0c 01 00
	00		 mov	 eax, DWORD PTR [edi+268]
  00029	0f 57 c0	 xorps	 xmm0, xmm0
  0002c	89 45 e8	 mov	 DWORD PTR _max$1$[ebp], eax
; File C:\Program Files (x86)\Microsoft Visual Studio\2019\Community\VC\Tools\MSVC\14.29.30133\atlmfc\include\afxwin2.inl

; 86   : 	{ ASSERT(::IsWindow(m_hWnd)); ::GetClientRect(m_hWnd, lpRect); }

  0002f	8d 45 ec	 lea	 eax, DWORD PTR _rc$[ebp]
  00032	50		 push	 eax
  00033	ff 77 20	 push	 DWORD PTR [edi+32]
; File C:\Program Files (x86)\Microsoft Visual Studio\2019\Community\VC\Tools\MSVC\14.29.30133\atlmfc\include\atltypes.h

; 528  : 	left = 0;

  00036	0f 11 45 ec	 movups	 XMMWORD PTR _rc$[ebp], xmm0
; File C:\Program Files (x86)\Microsoft Visual Studio\2019\Community\VC\Tools\MSVC\14.29.30133\atlmfc\include\afxwin2.inl

; 86   : 	{ ASSERT(::IsWindow(m_hWnd)); ::GetClientRect(m_hWnd, lpRect); }

  0003a	ff 15 00 00 00
	00		 call	 DWORD PTR __imp__GetClientRect@8
; File D:\git\src\IBK\IBK_DRFN\ProjSrc\SrcDrfn\Chart\comparechart\control\GfxOutBarCtrl.cpp

; 746  : 	if (arFolder.GetSize() > 0)

  00040	8b b7 0c 01 00
	00		 mov	 esi, DWORD PTR [edi+268]
  00046	8b 5d f0	 mov	 ebx, DWORD PTR _rc$[ebp+4]
  00049	85 f6		 test	 esi, esi
  0004b	7e 20		 jle	 SHORT $LN41@OnSize

; 747  : 	{
; 748  : 		int max = arFolder.GetSize();
; 749  : 		rect.top += iFolderHeight * (iSelFolder + 1); + 1;//+ 2;

  0004d	8b 8f 34 01 00
	00		 mov	 ecx, DWORD PTR [edi+308]

; 750  : 		rect.bottom -= (max - iSelFolder - 1)*iFolderHeight;

  00053	2b f1		 sub	 esi, ecx
  00055	8b 97 a0 00 00
	00		 mov	 edx, DWORD PTR [edi+160]
  0005b	4e		 dec	 esi
  0005c	0f af f2	 imul	 esi, edx
  0005f	8d 41 01	 lea	 eax, DWORD PTR [ecx+1]
  00062	0f af c2	 imul	 eax, edx
  00065	03 d8		 add	 ebx, eax
  00067	29 75 f8	 sub	 DWORD PTR _rc$[ebp+12], esi
  0006a	89 5d f0	 mov	 DWORD PTR _rc$[ebp+4], ebx
$LN41@OnSize:

; 1869 : 	CRect rc;
; 1870 : 	GetInsideRect(rc);
; 1871 : 
; 1872 : 	for (t = 0; t < max; t++)

  0006d	33 f6		 xor	 esi, esi
  0006f	39 75 e8	 cmp	 DWORD PTR _max$1$[ebp], esi
  00072	7e 45		 jle	 SHORT $LN3@OnSize
$LL4@OnSize:
; File C:\Program Files (x86)\Microsoft Visual Studio\2019\Community\VC\Tools\MSVC\14.29.30133\atlmfc\include\afxcoll.inl

; 203  : 		if( nIndex < 0 || nIndex >= m_nSize )

  00074	85 f6		 test	 esi, esi
  00076	78 54		 js	 SHORT $LN18@OnSize
  00078	8b 87 0c 01 00
	00		 mov	 eax, DWORD PTR [edi+268]
  0007e	3b f0		 cmp	 esi, eax
  00080	7d 4a		 jge	 SHORT $LN18@OnSize
; File D:\git\src\IBK\IBK_DRFN\ProjSrc\SrcDrfn\Chart\comparechart\control\GfxOutBarCtrl.cpp

; 2394 : 	if (nFolderCnt)

  00082	85 c0		 test	 eax, eax
  00084	74 2d		 je	 SHORT $LN2@OnSize

; 2395 : 	{
; 2396 : 		if (iFolder < 0) iFolder = iSelFolder;
; 2397 : 		if (nFolderCnt <= iFolder) return NULL;
; 2398 : 		CBarFolder * pbf = (CBarFolder *) arFolder.GetAt(iFolder);
; 2399 : 		return pbf->pChild;

  00086	8b 87 08 01 00
	00		 mov	 eax, DWORD PTR [edi+264]
  0008c	8b 04 b0	 mov	 eax, DWORD PTR [eax+esi*4]
  0008f	8b 48 28	 mov	 ecx, DWORD PTR [eax+40]

; 1873 : 	{
; 1874 : 		CBarFolder * pbf = (CBarFolder *) arFolder.GetAt(t);
; 1875 : 		CWnd * pc = GetFolderChild(t);
; 1876 : 		if (pc) 

  00092	85 c9		 test	 ecx, ecx
  00094	74 1d		 je	 SHORT $LN2@OnSize
; File C:\Program Files (x86)\Microsoft Visual Studio\2019\Community\VC\Tools\MSVC\14.29.30133\atlmfc\include\atltypes.h

; 581  : 	return bottom - top;

  00096	8b 45 f8	 mov	 eax, DWORD PTR _rc$[ebp+12]

; 576  : 	return right - left;

  00099	8b 55 ec	 mov	 edx, DWORD PTR _rc$[ebp]

; 581  : 	return bottom - top;

  0009c	2b c3		 sub	 eax, ebx
; File D:\git\src\IBK\IBK_DRFN\ProjSrc\SrcDrfn\Chart\comparechart\control\GfxOutBarCtrl.cpp

; 1877 : 			pc->SetWindowPos(0, rc.left, rc.top, rc.Width(), rc.Height(), SWP_NOZORDER);

  0009e	6a 04		 push	 4
  000a0	50		 push	 eax
; File C:\Program Files (x86)\Microsoft Visual Studio\2019\Community\VC\Tools\MSVC\14.29.30133\atlmfc\include\atltypes.h

; 576  : 	return right - left;

  000a1	8b 45 f4	 mov	 eax, DWORD PTR _rc$[ebp+8]
  000a4	2b c2		 sub	 eax, edx
; File D:\git\src\IBK\IBK_DRFN\ProjSrc\SrcDrfn\Chart\comparechart\control\GfxOutBarCtrl.cpp

; 1877 : 			pc->SetWindowPos(0, rc.left, rc.top, rc.Width(), rc.Height(), SWP_NOZORDER);

  000a6	50		 push	 eax
  000a7	53		 push	 ebx
  000a8	52		 push	 edx
  000a9	6a 00		 push	 0
  000ab	e8 00 00 00 00	 call	 ?SetWindowPos@CWnd@@QAEHPBV1@HHHHI@Z ; CWnd::SetWindowPos
  000b0	8b 5d f0	 mov	 ebx, DWORD PTR _rc$[ebp+4]
$LN2@OnSize:

; 1869 : 	CRect rc;
; 1870 : 	GetInsideRect(rc);
; 1871 : 
; 1872 : 	for (t = 0; t < max; t++)

  000b3	46		 inc	 esi
  000b4	3b 75 e8	 cmp	 esi, DWORD PTR _max$1$[ebp]
  000b7	7c bb		 jl	 SHORT $LL4@OnSize
$LN3@OnSize:

; 1879 : }

  000b9	8b 4d fc	 mov	 ecx, DWORD PTR __$ArrayPad$[ebp]
  000bc	5f		 pop	 edi
  000bd	5e		 pop	 esi
  000be	33 cd		 xor	 ecx, ebp
  000c0	5b		 pop	 ebx
  000c1	e8 00 00 00 00	 call	 @__security_check_cookie@4
  000c6	8b e5		 mov	 esp, ebp
  000c8	5d		 pop	 ebp
  000c9	c2 0c 00	 ret	 12			; 0000000cH
$LN18@OnSize:
; File C:\Program Files (x86)\Microsoft Visual Studio\2019\Community\VC\Tools\MSVC\14.29.30133\atlmfc\include\afxcoll.inl

; 204  : 			AfxThrowInvalidArgException();

  000cc	e8 00 00 00 00	 call	 ?AfxThrowInvalidArgException@@YGXXZ ; AfxThrowInvalidArgException
$LN44@OnSize:
  000d1	cc		 int	 3
?OnSize@CGfxOutBarCtrl@@IAEXIHH@Z ENDP			; CGfxOutBarCtrl::OnSize
_TEXT	ENDS
; Function compile flags: /Ogtp
; File D:\git\src\IBK\IBK_DRFN\ProjSrc\SrcDrfn\Chart\comparechart\control\GfxOutBarCtrl.cpp
; File C:\Program Files (x86)\Microsoft Visual Studio\2019\Community\VC\Tools\MSVC\14.29.30133\atlmfc\include\atltypes.h
; File C:\Program Files (x86)\Microsoft Visual Studio\2019\Community\VC\Tools\MSVC\14.29.30133\atlmfc\include\afxwin2.inl
; File C:\Program Files (x86)\Microsoft Visual Studio\2019\Community\VC\Tools\MSVC\14.29.30133\atlmfc\include\atltypes.h
; File C:\Program Files (x86)\Microsoft Visual Studio\2019\Community\VC\Tools\MSVC\14.29.30133\atlmfc\include\afxwin2.inl
; File D:\git\src\IBK\IBK_DRFN\ProjSrc\SrcDrfn\Chart\comparechart\control\GfxOutBarCtrl.cpp
; File C:\Program Files (x86)\Microsoft Visual Studio\2019\Community\VC\Tools\MSVC\14.29.30133\atlmfc\include\afxwin2.inl
; File D:\git\src\IBK\IBK_DRFN\ProjSrc\SrcDrfn\Chart\comparechart\control\GfxOutBarCtrl.cpp
;	COMDAT ?OnSetCursor@CGfxOutBarCtrl@@IAEHPAVCWnd@@II@Z
_TEXT	SEGMENT
_pt$ = -12						; size = 8
_index$ = -4						; size = 4
_pWnd$ = 8						; size = 4
_nHitTest$ = 12						; size = 4
_message$ = 16						; size = 4
?OnSetCursor@CGfxOutBarCtrl@@IAEHPAVCWnd@@II@Z PROC	; CGfxOutBarCtrl::OnSetCursor, COMDAT
; _this$ = ecx

; 1793 : {

  00000	55		 push	 ebp
  00001	8b ec		 mov	 ebp, esp
  00003	83 ec 0c	 sub	 esp, 12			; 0000000cH
  00006	56		 push	 esi
  00007	8b f1		 mov	 esi, ecx

; 1794 : 	CPoint pt(GetMessagePos());

  00009	ff 15 00 00 00
	00		 call	 DWORD PTR __imp__GetMessagePos@0
; File C:\Program Files (x86)\Microsoft Visual Studio\2019\Community\VC\Tools\MSVC\14.29.30133\atlmfc\include\atltypes.h

; 424  : 	x = (short)LOWORD(dwPoint);

  0000f	0f bf d0	 movsx	 edx, ax

; 425  : 	y = (short)HIWORD(dwPoint);

  00012	c1 e8 10	 shr	 eax, 16			; 00000010H
  00015	98		 cwde
  00016	89 45 f8	 mov	 DWORD PTR _pt$[ebp+4], eax
; File C:\Program Files (x86)\Microsoft Visual Studio\2019\Community\VC\Tools\MSVC\14.29.30133\atlmfc\include\afxwin2.inl

; 94   : 	{ ASSERT(::IsWindow(m_hWnd)); ::ScreenToClient(m_hWnd, lpPoint); }

  00019	8d 45 f4	 lea	 eax, DWORD PTR _pt$[ebp]
  0001c	50		 push	 eax
  0001d	ff 76 20	 push	 DWORD PTR [esi+32]
; File C:\Program Files (x86)\Microsoft Visual Studio\2019\Community\VC\Tools\MSVC\14.29.30133\atlmfc\include\atltypes.h

; 424  : 	x = (short)LOWORD(dwPoint);

  00020	89 55 f4	 mov	 DWORD PTR _pt$[ebp], edx
; File C:\Program Files (x86)\Microsoft Visual Studio\2019\Community\VC\Tools\MSVC\14.29.30133\atlmfc\include\afxwin2.inl

; 94   : 	{ ASSERT(::IsWindow(m_hWnd)); ::ScreenToClient(m_hWnd, lpPoint); }

  00023	ff 15 00 00 00
	00		 call	 DWORD PTR __imp__ScreenToClient@8
; File D:\git\src\IBK\IBK_DRFN\ProjSrc\SrcDrfn\Chart\comparechart\control\GfxOutBarCtrl.cpp

; 1796 : 	int index, ht = HitTestEx(pt, index);

  00029	8d 45 fc	 lea	 eax, DWORD PTR _index$[ebp]
  0002c	8b ce		 mov	 ecx, esi
  0002e	50		 push	 eax
  0002f	8d 45 f4	 lea	 eax, DWORD PTR _pt$[ebp]
  00032	50		 push	 eax
  00033	e8 00 00 00 00	 call	 ?HitTestEx@CGfxOutBarCtrl@@QAEHABVCPoint@@AAH@Z ; CGfxOutBarCtrl::HitTestEx

; 1797 : 	if (ht == htFolder)

  00038	85 c0		 test	 eax, eax
  0003a	75 18		 jne	 SHORT $LN2@OnSetCurso

; 1798 : 	{
; 1799 : 		SetCursor(hHandCursor);

  0003c	ff b6 40 01 00
	00		 push	 DWORD PTR [esi+320]
  00042	ff 15 00 00 00
	00		 call	 DWORD PTR __imp__SetCursor@4

; 1800 : 		return true;

  00048	b8 01 00 00 00	 mov	 eax, 1
  0004d	5e		 pop	 esi

; 1804 : }

  0004e	8b e5		 mov	 esp, ebp
  00050	5d		 pop	 ebp
  00051	c2 0c 00	 ret	 12			; 0000000cH
$LN2@OnSetCurso:
; File C:\Program Files (x86)\Microsoft Visual Studio\2019\Community\VC\Tools\MSVC\14.29.30133\atlmfc\include\afxwin2.inl

; 326  : 	{ return (BOOL)Default(); }

  00054	8b ce		 mov	 ecx, esi
  00056	e8 00 00 00 00	 call	 ?Default@CWnd@@IAEJXZ	; CWnd::Default
  0005b	5e		 pop	 esi
; File D:\git\src\IBK\IBK_DRFN\ProjSrc\SrcDrfn\Chart\comparechart\control\GfxOutBarCtrl.cpp

; 1804 : }

  0005c	8b e5		 mov	 esp, ebp
  0005e	5d		 pop	 ebp
  0005f	c2 0c 00	 ret	 12			; 0000000cH
?OnSetCursor@CGfxOutBarCtrl@@IAEHPAVCWnd@@II@Z ENDP	; CGfxOutBarCtrl::OnSetCursor
_TEXT	ENDS
; Function compile flags: /Ogtp
; File D:\git\src\IBK\IBK_DRFN\ProjSrc\SrcDrfn\Chart\comparechart\control\GfxOutBarCtrl.cpp
; File C:\Program Files (x86)\Microsoft Visual Studio\2019\Community\VC\Tools\MSVC\14.29.30133\atlmfc\include\afxwin2.inl
; File D:\git\src\IBK\IBK_DRFN\ProjSrc\SrcDrfn\Chart\comparechart\control\GfxOutBarCtrl.cpp
; File C:\Program Files (x86)\Microsoft Visual Studio\2019\Community\VC\Tools\MSVC\14.29.30133\atlmfc\include\afxwin2.inl
; File C:\Program Files (x86)\Microsoft Visual Studio\2019\Community\VC\Tools\MSVC\14.29.30133\atlmfc\include\atltypes.h
; File C:\Program Files (x86)\Microsoft Visual Studio\2019\Community\VC\Tools\MSVC\14.29.30133\atlmfc\include\afxwin2.inl
; File D:\git\src\IBK\IBK_DRFN\ProjSrc\SrcDrfn\Chart\comparechart\control\GfxOutBarCtrl.cpp
; File C:\Program Files (x86)\Microsoft Visual Studio\2019\Community\VC\Tools\MSVC\14.29.30133\atlmfc\include\atltypes.h
; File D:\git\src\IBK\IBK_DRFN\ProjSrc\SrcDrfn\Chart\comparechart\control\GfxOutBarCtrl.cpp
; File C:\Program Files (x86)\Microsoft Visual Studio\2019\Community\VC\Tools\MSVC\14.29.30133\atlmfc\include\afxwin2.inl
; File D:\git\src\IBK\IBK_DRFN\ProjSrc\SrcDrfn\Chart\comparechart\control\GfxOutBarCtrl.cpp
; File C:\Program Files (x86)\Microsoft Visual Studio\2019\Community\VC\Tools\MSVC\14.29.30133\atlmfc\include\afxwin2.inl
; File D:\git\src\IBK\IBK_DRFN\ProjSrc\SrcDrfn\Chart\comparechart\control\GfxOutBarCtrl.cpp
; File C:\Program Files (x86)\Microsoft Visual Studio\2019\Community\VC\Tools\MSVC\14.29.30133\atlmfc\include\atltypes.h
; File D:\git\src\IBK\IBK_DRFN\ProjSrc\SrcDrfn\Chart\comparechart\control\GfxOutBarCtrl.cpp
; File C:\Program Files (x86)\Microsoft Visual Studio\2019\Community\VC\Tools\MSVC\14.29.30133\atlmfc\include\atltypes.h
; File D:\git\src\IBK\IBK_DRFN\ProjSrc\SrcDrfn\Chart\comparechart\control\GfxOutBarCtrl.cpp
; File C:\Program Files (x86)\Microsoft Visual Studio\2019\Community\VC\Tools\MSVC\14.29.30133\atlmfc\include\afxwin2.inl
; File D:\git\src\IBK\IBK_DRFN\ProjSrc\SrcDrfn\Chart\comparechart\control\GfxOutBarCtrl.cpp
; File C:\Program Files (x86)\Microsoft Visual Studio\2019\Community\VC\Tools\MSVC\14.29.30133\atlmfc\include\afxwin2.inl
; File D:\git\src\IBK\IBK_DRFN\ProjSrc\SrcDrfn\Chart\comparechart\control\GfxOutBarCtrl.cpp
; File C:\Program Files (x86)\Microsoft Visual Studio\2019\Community\VC\Tools\MSVC\14.29.30133\atlmfc\include\atltypes.h
; File D:\git\src\IBK\IBK_DRFN\ProjSrc\SrcDrfn\Chart\comparechart\control\GfxOutBarCtrl.cpp
; File C:\Program Files (x86)\Microsoft Visual Studio\2019\Community\VC\Tools\MSVC\14.29.30133\atlmfc\include\afxwin2.inl
; File D:\git\src\IBK\IBK_DRFN\ProjSrc\SrcDrfn\Chart\comparechart\control\GfxOutBarCtrl.cpp
; File C:\Program Files (x86)\Microsoft Visual Studio\2019\Community\VC\Tools\MSVC\14.29.30133\atlmfc\include\afxwin2.inl
; File D:\git\src\IBK\IBK_DRFN\ProjSrc\SrcDrfn\Chart\comparechart\control\GfxOutBarCtrl.cpp
; File C:\Program Files (x86)\Microsoft Visual Studio\2019\Community\VC\Tools\MSVC\14.29.30133\atlmfc\include\afxwin2.inl
; File D:\git\src\IBK\IBK_DRFN\ProjSrc\SrcDrfn\Chart\comparechart\control\GfxOutBarCtrl.cpp
; File C:\Program Files (x86)\Microsoft Visual Studio\2019\Community\VC\Tools\MSVC\14.29.30133\atlmfc\include\atltypes.h
; File D:\git\src\IBK\IBK_DRFN\ProjSrc\SrcDrfn\Chart\comparechart\control\GfxOutBarCtrl.cpp
; File C:\Program Files (x86)\Microsoft Visual Studio\2019\Community\VC\Tools\MSVC\14.29.30133\atlmfc\include\atltypes.h
; File D:\git\src\IBK\IBK_DRFN\ProjSrc\SrcDrfn\Chart\comparechart\control\GfxOutBarCtrl.cpp
; File C:\Program Files (x86)\Microsoft Visual Studio\2019\Community\VC\Tools\MSVC\14.29.30133\atlmfc\include\atltypes.h
; File D:\git\src\IBK\IBK_DRFN\ProjSrc\SrcDrfn\Chart\comparechart\control\GfxOutBarCtrl.cpp
; File C:\Program Files (x86)\Microsoft Visual Studio\2019\Community\VC\Tools\MSVC\14.29.30133\atlmfc\include\atltypes.h
; File C:\Program Files (x86)\Microsoft Visual Studio\2019\Community\VC\Tools\MSVC\14.29.30133\atlmfc\include\afxwin2.inl
; File D:\git\src\IBK\IBK_DRFN\ProjSrc\SrcDrfn\Chart\comparechart\control\GfxOutBarCtrl.cpp
; File C:\Program Files (x86)\Microsoft Visual Studio\2019\Community\VC\Tools\MSVC\14.29.30133\atlmfc\include\atltypes.h
; File D:\git\src\IBK\IBK_DRFN\ProjSrc\SrcDrfn\Chart\comparechart\control\GfxOutBarCtrl.cpp
; File C:\Program Files (x86)\Microsoft Visual Studio\2019\Community\VC\Tools\MSVC\14.29.30133\atlmfc\include\atltypes.h
; File C:\Program Files (x86)\Microsoft Visual Studio\2019\Community\VC\Tools\MSVC\14.29.30133\atlmfc\include\afxwin2.inl
; File D:\git\src\IBK\IBK_DRFN\ProjSrc\SrcDrfn\Chart\comparechart\control\GfxOutBarCtrl.cpp
; File C:\Program Files (x86)\Microsoft Visual Studio\2019\Community\VC\Tools\MSVC\14.29.30133\atlmfc\include\afxwin2.inl
; File D:\git\src\IBK\IBK_DRFN\ProjSrc\SrcDrfn\Chart\comparechart\control\GfxOutBarCtrl.cpp
; File C:\Program Files (x86)\Microsoft Visual Studio\2019\Community\VC\Tools\MSVC\14.29.30133\atlmfc\include\afxwin2.inl
; File D:\git\src\IBK\IBK_DRFN\ProjSrc\SrcDrfn\Chart\comparechart\control\GfxOutBarCtrl.cpp
; File C:\Program Files (x86)\Microsoft Visual Studio\2019\Community\VC\Tools\MSVC\14.29.30133\atlmfc\include\afxwin2.inl
; File D:\git\src\IBK\IBK_DRFN\ProjSrc\SrcDrfn\Chart\comparechart\control\GfxOutBarCtrl.cpp
; File C:\Program Files (x86)\Microsoft Visual Studio\2019\Community\VC\Tools\MSVC\14.29.30133\atlmfc\include\afxwin1.inl
; File D:\git\src\IBK\IBK_DRFN\ProjSrc\SrcDrfn\Chart\comparechart\control\GfxOutBarCtrl.cpp
; File C:\Program Files (x86)\Microsoft Visual Studio\2019\Community\VC\Tools\MSVC\14.29.30133\atlmfc\include\afxwin1.inl
; File C:\Program Files (x86)\Microsoft Visual Studio\2019\Community\VC\Tools\MSVC\14.29.30133\atlmfc\include\afxwin2.inl
; File D:\git\src\IBK\IBK_DRFN\ProjSrc\SrcDrfn\Chart\comparechart\control\GfxOutBarCtrl.cpp
; File C:\Program Files (x86)\Microsoft Visual Studio\2019\Community\VC\Tools\MSVC\14.29.30133\atlmfc\include\afxwin2.inl
; File D:\git\src\IBK\IBK_DRFN\ProjSrc\SrcDrfn\Chart\comparechart\control\GfxOutBarCtrl.cpp
; File C:\Program Files (x86)\Microsoft Visual Studio\2019\Community\VC\Tools\MSVC\14.29.30133\atlmfc\include\afxwin1.inl
; File C:\Program Files (x86)\Microsoft Visual Studio\2019\Community\VC\Tools\MSVC\14.29.30133\atlmfc\include\atltypes.h
; File D:\git\src\IBK\IBK_DRFN\ProjSrc\SrcDrfn\Chart\comparechart\control\GfxOutBarCtrl.cpp
; File C:\Program Files (x86)\Microsoft Visual Studio\2019\Community\VC\Tools\MSVC\14.29.30133\atlmfc\include\atltypes.h
; File D:\git\src\IBK\IBK_DRFN\ProjSrc\SrcDrfn\Chart\comparechart\control\GfxOutBarCtrl.cpp
; File C:\Program Files (x86)\Microsoft Visual Studio\2019\Community\VC\Tools\MSVC\14.29.30133\atlmfc\include\atltypes.h
; File C:\Program Files (x86)\Microsoft Visual Studio\2019\Community\VC\Tools\MSVC\14.29.30133\atlmfc\include\afxcoll.inl
; File D:\git\src\IBK\IBK_DRFN\ProjSrc\SrcDrfn\Chart\comparechart\control\GfxOutBarCtrl.cpp
; File C:\Program Files (x86)\Microsoft Visual Studio\2019\Community\VC\Tools\MSVC\14.29.30133\atlmfc\include\afxcoll.inl
; File D:\git\src\IBK\IBK_DRFN\ProjSrc\SrcDrfn\Chart\comparechart\control\GfxOutBarCtrl.cpp
; File C:\Program Files (x86)\Microsoft Visual Studio\2019\Community\VC\Tools\MSVC\14.29.30133\atlmfc\include\afxwin2.inl
; File C:\Program Files (x86)\Microsoft Visual Studio\2019\Community\VC\Tools\MSVC\14.29.30133\atlmfc\include\atltypes.h
; File C:\Program Files (x86)\Microsoft Visual Studio\2019\Community\VC\Tools\MSVC\14.29.30133\atlmfc\include\afxwin2.inl
; File D:\git\src\IBK\IBK_DRFN\ProjSrc\SrcDrfn\Chart\comparechart\control\GfxOutBarCtrl.cpp
; File C:\Program Files (x86)\Microsoft Visual Studio\2019\Community\VC\Tools\MSVC\14.29.30133\atlmfc\include\atltypes.h
; File C:\Program Files (x86)\Microsoft Visual Studio\2019\Community\VC\Tools\MSVC\14.29.30133\atlmfc\include\afxwin2.inl
; File C:\Program Files (x86)\Microsoft Visual Studio\2019\Community\VC\Tools\MSVC\14.29.30133\atlmfc\include\atltypes.h
; File C:\Program Files (x86)\Microsoft Visual Studio\2019\Community\VC\Tools\MSVC\14.29.30133\atlmfc\include\afxwin2.inl
; File C:\Program Files (x86)\Microsoft Visual Studio\2019\Community\VC\Tools\MSVC\14.29.30133\atlmfc\include\atltypes.h
; File D:\git\src\IBK\IBK_DRFN\ProjSrc\SrcDrfn\Chart\comparechart\control\GfxOutBarCtrl.cpp
; File C:\Program Files (x86)\Microsoft Visual Studio\2019\Community\VC\Tools\MSVC\14.29.30133\atlmfc\include\atltypes.h
; File C:\Program Files (x86)\Microsoft Visual Studio\2019\Community\VC\Tools\MSVC\14.29.30133\atlmfc\include\afxcoll.inl
; File D:\git\src\IBK\IBK_DRFN\ProjSrc\SrcDrfn\Chart\comparechart\control\GfxOutBarCtrl.cpp
; File C:\Program Files (x86)\Microsoft Visual Studio\2019\Community\VC\Tools\MSVC\14.29.30133\atlmfc\include\afxcoll.inl
; File D:\git\src\IBK\IBK_DRFN\ProjSrc\SrcDrfn\Chart\comparechart\control\GfxOutBarCtrl.cpp
; File C:\Program Files (x86)\Microsoft Visual Studio\2019\Community\VC\Tools\MSVC\14.29.30133\atlmfc\include\afxwin2.inl
; File C:\Program Files (x86)\Microsoft Visual Studio\2019\Community\VC\Tools\MSVC\14.29.30133\atlmfc\include\atltypes.h
; File C:\Program Files (x86)\Microsoft Visual Studio\2019\Community\VC\Tools\MSVC\14.29.30133\atlmfc\include\afxwin2.inl
; File D:\git\src\IBK\IBK_DRFN\ProjSrc\SrcDrfn\Chart\comparechart\control\GfxOutBarCtrl.cpp
; File C:\Program Files (x86)\Microsoft Visual Studio\2019\Community\VC\Tools\MSVC\14.29.30133\atlmfc\include\afxwin2.inl
; File D:\git\src\IBK\IBK_DRFN\ProjSrc\SrcDrfn\Chart\comparechart\control\GfxOutBarCtrl.cpp
; File C:\Program Files (x86)\Microsoft Visual Studio\2019\Community\VC\Tools\MSVC\14.29.30133\atlmfc\include\afxwin2.inl
; File D:\git\src\IBK\IBK_DRFN\ProjSrc\SrcDrfn\Chart\comparechart\control\GfxOutBarCtrl.cpp
; File C:\Program Files (x86)\Microsoft Visual Studio\2019\Community\VC\Tools\MSVC\14.29.30133\atlmfc\include\afxwin2.inl
; File D:\git\src\IBK\IBK_DRFN\ProjSrc\SrcDrfn\Chart\comparechart\control\GfxOutBarCtrl.cpp
; File C:\Program Files (x86)\Microsoft Visual Studio\2019\Community\VC\Tools\MSVC\14.29.30133\atlmfc\include\afxwin2.inl
; File D:\git\src\IBK\IBK_DRFN\ProjSrc\SrcDrfn\Chart\comparechart\control\GfxOutBarCtrl.cpp
; File C:\Program Files (x86)\Microsoft Visual Studio\2019\Community\VC\Tools\MSVC\14.29.30133\atlmfc\include\afxwin2.inl
; File D:\git\src\IBK\IBK_DRFN\ProjSrc\SrcDrfn\Chart\comparechart\control\GfxOutBarCtrl.cpp
; File C:\Program Files (x86)\Microsoft Visual Studio\2019\Community\VC\Tools\MSVC\14.29.30133\atlmfc\include\atltypes.h
; File C:\Program Files (x86)\Microsoft Visual Studio\2019\Community\VC\Tools\MSVC\14.29.30133\atlmfc\include\afxwin2.inl
; File D:\git\src\IBK\IBK_DRFN\ProjSrc\SrcDrfn\Chart\comparechart\control\GfxOutBarCtrl.cpp
; File C:\Program Files (x86)\Microsoft Visual Studio\2019\Community\VC\Tools\MSVC\14.29.30133\atlmfc\include\afxwin2.inl
; File D:\git\src\IBK\IBK_DRFN\ProjSrc\SrcDrfn\Chart\comparechart\control\GfxOutBarCtrl.cpp
; File C:\Program Files (x86)\Microsoft Visual Studio\2019\Community\VC\Tools\MSVC\14.29.30133\atlmfc\include\afxwin2.inl
; File D:\git\src\IBK\IBK_DRFN\ProjSrc\SrcDrfn\Chart\comparechart\control\GfxOutBarCtrl.cpp
; File C:\Program Files (x86)\Microsoft Visual Studio\2019\Community\VC\Tools\MSVC\14.29.30133\atlmfc\include\afxwin2.inl
; File D:\git\src\IBK\IBK_DRFN\ProjSrc\SrcDrfn\Chart\comparechart\control\GfxOutBarCtrl.cpp
; File C:\Program Files (x86)\Microsoft Visual Studio\2019\Community\VC\Tools\MSVC\14.29.30133\atlmfc\include\afxwin1.inl
; File D:\git\src\IBK\IBK_DRFN\ProjSrc\SrcDrfn\Chart\comparechart\control\GfxOutBarCtrl.cpp
; File C:\Program Files (x86)\Microsoft Visual Studio\2019\Community\VC\Tools\MSVC\14.29.30133\atlmfc\include\afxwin1.inl
; File C:\Program Files (x86)\Microsoft Visual Studio\2019\Community\VC\Tools\MSVC\14.29.30133\atlmfc\include\afxwin2.inl
; File D:\git\src\IBK\IBK_DRFN\ProjSrc\SrcDrfn\Chart\comparechart\control\GfxOutBarCtrl.cpp
; File C:\Program Files (x86)\Microsoft Visual Studio\2019\Community\VC\Tools\MSVC\14.29.30133\atlmfc\include\afxwin2.inl
; File D:\git\src\IBK\IBK_DRFN\ProjSrc\SrcDrfn\Chart\comparechart\control\GfxOutBarCtrl.cpp
; File C:\Program Files (x86)\Microsoft Visual Studio\2019\Community\VC\Tools\MSVC\14.29.30133\atlmfc\include\afxwin1.inl
; File C:\Program Files (x86)\Microsoft Visual Studio\2019\Community\VC\Tools\MSVC\14.29.30133\atlmfc\include\atltypes.h
; File D:\git\src\IBK\IBK_DRFN\ProjSrc\SrcDrfn\Chart\comparechart\control\GfxOutBarCtrl.cpp
; File C:\Program Files (x86)\Microsoft Visual Studio\2019\Community\VC\Tools\MSVC\14.29.30133\atlmfc\include\atltypes.h
; File D:\git\src\IBK\IBK_DRFN\ProjSrc\SrcDrfn\Chart\comparechart\control\GfxOutBarCtrl.cpp
; File C:\Program Files (x86)\Microsoft Visual Studio\2019\Community\VC\Tools\MSVC\14.29.30133\atlmfc\include\afxwin2.inl
; File C:\Program Files (x86)\Microsoft Visual Studio\2019\Community\VC\Tools\MSVC\14.29.30133\atlmfc\include\atltypes.h
; File C:\Program Files (x86)\Microsoft Visual Studio\2019\Community\VC\Tools\MSVC\14.29.30133\atlmfc\include\afxwin2.inl
; File D:\git\src\IBK\IBK_DRFN\ProjSrc\SrcDrfn\Chart\comparechart\control\GfxOutBarCtrl.cpp
; File C:\Program Files (x86)\Microsoft Visual Studio\2019\Community\VC\Tools\MSVC\14.29.30133\atlmfc\include\afxwin2.inl
; File D:\git\src\IBK\IBK_DRFN\ProjSrc\SrcDrfn\Chart\comparechart\control\GfxOutBarCtrl.cpp
; File C:\Program Files (x86)\Microsoft Visual Studio\2019\Community\VC\Tools\MSVC\14.29.30133\atlmfc\include\atltypes.h
; File C:\Program Files (x86)\Microsoft Visual Studio\2019\Community\VC\Tools\MSVC\14.29.30133\atlmfc\include\afxwin2.inl
; File C:\Program Files (x86)\Microsoft Visual Studio\2019\Community\VC\Tools\MSVC\14.29.30133\atlmfc\include\atltypes.h
; File C:\Program Files (x86)\Microsoft Visual Studio\2019\Community\VC\Tools\MSVC\14.29.30133\atlmfc\include\afxwin2.inl
; File C:\Program Files (x86)\Microsoft Visual Studio\2019\Community\VC\Tools\MSVC\14.29.30133\atlmfc\include\atltypes.h
; File D:\git\src\IBK\IBK_DRFN\ProjSrc\SrcDrfn\Chart\comparechart\control\GfxOutBarCtrl.cpp
; File C:\Program Files (x86)\Microsoft Visual Studio\2019\Community\VC\Tools\MSVC\14.29.30133\atlmfc\include\afxwin2.inl
; File C:\Program Files (x86)\Microsoft Visual Studio\2019\Community\VC\Tools\MSVC\14.29.30133\atlmfc\include\atltypes.h
; File C:\Program Files (x86)\Microsoft Visual Studio\2019\Community\VC\Tools\MSVC\14.29.30133\atlmfc\include\afxwin2.inl
; File D:\git\src\IBK\IBK_DRFN\ProjSrc\SrcDrfn\Chart\comparechart\control\GfxOutBarCtrl.cpp
; File C:\Program Files (x86)\Microsoft Visual Studio\2019\Community\VC\Tools\MSVC\14.29.30133\atlmfc\include\afxwin2.inl
; File D:\git\src\IBK\IBK_DRFN\ProjSrc\SrcDrfn\Chart\comparechart\control\GfxOutBarCtrl.cpp
; File C:\Program Files (x86)\Microsoft Visual Studio\2019\Community\VC\Tools\MSVC\14.29.30133\atlmfc\include\afxwin2.inl
; File D:\git\src\IBK\IBK_DRFN\ProjSrc\SrcDrfn\Chart\comparechart\control\GfxOutBarCtrl.cpp
; File C:\Program Files (x86)\Microsoft Visual Studio\2019\Community\VC\Tools\MSVC\14.29.30133\atlmfc\include\afxwin2.inl
; File D:\git\src\IBK\IBK_DRFN\ProjSrc\SrcDrfn\Chart\comparechart\control\GfxOutBarCtrl.cpp
; File C:\Program Files (x86)\Microsoft Visual Studio\2019\Community\VC\Tools\MSVC\14.29.30133\atlmfc\include\afxwin2.inl
; File D:\git\src\IBK\IBK_DRFN\ProjSrc\SrcDrfn\Chart\comparechart\control\GfxOutBarCtrl.cpp
; File C:\Program Files (x86)\Microsoft Visual Studio\2019\Community\VC\Tools\MSVC\14.29.30133\atlmfc\include\afxwin2.inl
; File D:\git\src\IBK\IBK_DRFN\ProjSrc\SrcDrfn\Chart\comparechart\control\GfxOutBarCtrl.cpp
; File C:\Program Files (x86)\Microsoft Visual Studio\2019\Community\VC\Tools\MSVC\14.29.30133\atlmfc\include\atltypes.h
; File C:\Program Files (x86)\Microsoft Visual Studio\2019\Community\VC\Tools\MSVC\14.29.30133\atlmfc\include\afxwin2.inl
; File D:\git\src\IBK\IBK_DRFN\ProjSrc\SrcDrfn\Chart\comparechart\control\GfxOutBarCtrl.cpp
; File C:\Program Files (x86)\Microsoft Visual Studio\2019\Community\VC\Tools\MSVC\14.29.30133\atlmfc\include\afxwin2.inl
; File D:\git\src\IBK\IBK_DRFN\ProjSrc\SrcDrfn\Chart\comparechart\control\GfxOutBarCtrl.cpp
; File C:\Program Files (x86)\Microsoft Visual Studio\2019\Community\VC\Tools\MSVC\14.29.30133\atlmfc\include\afxwin2.inl
; File D:\git\src\IBK\IBK_DRFN\ProjSrc\SrcDrfn\Chart\comparechart\control\GfxOutBarCtrl.cpp
;	COMDAT ?OnLButtonDown@CGfxOutBarCtrl@@IAEXIVCPoint@@@Z
_TEXT	SEGMENT
_dc$2 = -184						; size = 20
_dc$3 = -184						; size = 20
_dc$4 = -184						; size = 20
_msg$5 = -164						; size = 28
_dc$6 = -156						; size = 20
_msg$7 = -136						; size = 28
_msg$8 = -136						; size = 28
_msg$9 = -136						; size = 28
_pt$10 = -108						; size = 8
_hCur$1$ = -104						; size = 4
_idx$11 = -104						; size = 4
_idx$12 = -104						; size = 4
_index$ = -104						; size = 4
_bHigh$1$ = -97						; size = 1
_inRc$ = -96						; size = 16
_crc$13 = -80						; size = 16
_crc$14 = -64						; size = 16
_crc$15 = -64						; size = 16
_rc$16 = -64						; size = 16
_rc$17 = -64						; size = 16
_crc$18 = -48						; size = 16
_itrc$19 = -48						; size = 16
_itrc$20 = -48						; size = 16
_rc$21 = -48						; size = 16
_rc$22 = -48						; size = 16
_crc$23 = -32						; size = 16
_crc$24 = -32						; size = 16
_pt$25 = -24						; size = 8
_pt$26 = -24						; size = 8
_pt$27 = -24						; size = 8
__$ArrayPad$ = -16					; size = 4
__$EHRec$ = -12						; size = 12
_nFlags$ = 8						; size = 4
_point$ = 12						; size = 8
?OnLButtonDown@CGfxOutBarCtrl@@IAEXIVCPoint@@@Z PROC	; CGfxOutBarCtrl::OnLButtonDown, COMDAT
; _this$ = ecx

; 916  : {

  00000	55		 push	 ebp
  00001	8b ec		 mov	 ebp, esp
  00003	6a ff		 push	 -1
  00005	68 00 00 00 00	 push	 __ehhandler$?OnLButtonDown@CGfxOutBarCtrl@@IAEXIVCPoint@@@Z
  0000a	64 a1 00 00 00
	00		 mov	 eax, DWORD PTR fs:0
  00010	50		 push	 eax
  00011	81 ec ac 00 00
	00		 sub	 esp, 172		; 000000acH
  00017	a1 00 00 00 00	 mov	 eax, DWORD PTR ___security_cookie
  0001c	33 c5		 xor	 eax, ebp
  0001e	89 45 f0	 mov	 DWORD PTR __$ArrayPad$[ebp], eax
  00021	53		 push	 ebx
  00022	56		 push	 esi
  00023	57		 push	 edi
  00024	50		 push	 eax
  00025	8d 45 f4	 lea	 eax, DWORD PTR __$EHRec$[ebp]
  00028	64 a3 00 00 00
	00		 mov	 DWORD PTR fs:0, eax
  0002e	8b f1		 mov	 esi, ecx
; File C:\Program Files (x86)\Microsoft Visual Studio\2019\Community\VC\Tools\MSVC\14.29.30133\atlmfc\include\afxwin2.inl

; 165  : 	{ return CWnd::FromHandle(::GetFocus()); }

  00030	ff 15 00 00 00
	00		 call	 DWORD PTR __imp__GetFocus@0
  00036	50		 push	 eax
  00037	e8 00 00 00 00	 call	 ?FromHandle@CWnd@@SGPAV1@PAUHWND__@@@Z ; CWnd::FromHandle
; File D:\git\src\IBK\IBK_DRFN\ProjSrc\SrcDrfn\Chart\comparechart\control\GfxOutBarCtrl.cpp

; 917  : 	if (GetFocus() != this) SetFocus();

  0003c	3b c6		 cmp	 eax, esi
  0003e	74 07		 je	 SHORT $LN22@OnLButtonD
  00040	8b ce		 mov	 ecx, esi
  00042	e8 00 00 00 00	 call	 ?SetFocus@CWnd@@QAEPAV1@XZ ; CWnd::SetFocus
$LN22@OnLButtonD:

; 918  : 
; 919  : 	int index, ht = HitTestEx(point, index);

  00047	8d 45 98	 lea	 eax, DWORD PTR _index$[ebp]
  0004a	8b ce		 mov	 ecx, esi
  0004c	50		 push	 eax
  0004d	8d 45 0c	 lea	 eax, DWORD PTR _point$[ebp]
  00050	50		 push	 eax
  00051	e8 00 00 00 00	 call	 ?HitTestEx@CGfxOutBarCtrl@@QAEHABVCPoint@@AAH@Z ; CGfxOutBarCtrl::HitTestEx
  00056	8b d8		 mov	 ebx, eax

; 920  : 	iLastDragItemDrawType = -1;

  00058	c7 86 30 01 00
	00 ff ff ff ff	 mov	 DWORD PTR [esi+304], -1
; File C:\Program Files (x86)\Microsoft Visual Studio\2019\Community\VC\Tools\MSVC\14.29.30133\atlmfc\include\afxwin2.inl

; 86   : 	{ ASSERT(::IsWindow(m_hWnd)); ::GetClientRect(m_hWnd, lpRect); }

  00062	8d 45 a0	 lea	 eax, DWORD PTR _inRc$[ebp]
  00065	0f 57 c0	 xorps	 xmm0, xmm0
  00068	50		 push	 eax
  00069	ff 76 20	 push	 DWORD PTR [esi+32]
; File C:\Program Files (x86)\Microsoft Visual Studio\2019\Community\VC\Tools\MSVC\14.29.30133\atlmfc\include\atltypes.h

; 528  : 	left = 0;

  0006c	0f 11 45 a0	 movups	 XMMWORD PTR _inRc$[ebp], xmm0
; File C:\Program Files (x86)\Microsoft Visual Studio\2019\Community\VC\Tools\MSVC\14.29.30133\atlmfc\include\afxwin2.inl

; 86   : 	{ ASSERT(::IsWindow(m_hWnd)); ::GetClientRect(m_hWnd, lpRect); }

  00070	ff 15 00 00 00
	00		 call	 DWORD PTR __imp__GetClientRect@8
; File D:\git\src\IBK\IBK_DRFN\ProjSrc\SrcDrfn\Chart\comparechart\control\GfxOutBarCtrl.cpp

; 746  : 	if (arFolder.GetSize() > 0)

  00076	8b be 0c 01 00
	00		 mov	 edi, DWORD PTR [esi+268]
  0007c	85 ff		 test	 edi, edi
  0007e	7e 1e		 jle	 SHORT $LN375@OnLButtonD

; 747  : 	{
; 748  : 		int max = arFolder.GetSize();
; 749  : 		rect.top += iFolderHeight * (iSelFolder + 1); + 1;//+ 2;

  00080	8b 8e 34 01 00
	00		 mov	 ecx, DWORD PTR [esi+308]

; 750  : 		rect.bottom -= (max - iSelFolder - 1)*iFolderHeight;

  00086	2b f9		 sub	 edi, ecx
  00088	8b 96 a0 00 00
	00		 mov	 edx, DWORD PTR [esi+160]
  0008e	4f		 dec	 edi
  0008f	0f af fa	 imul	 edi, edx
  00092	8d 41 01	 lea	 eax, DWORD PTR [ecx+1]
  00095	0f af c2	 imul	 eax, edx
  00098	01 45 a4	 add	 DWORD PTR _inRc$[ebp+4], eax
  0009b	29 7d ac	 sub	 DWORD PTR _inRc$[ebp+12], edi
$LN375@OnLButtonD:

; 921  : 
; 922  : 	CRect inRc;
; 923  : 	GetInsideRect(inRc);
; 924  : 
; 925  : 	if (ht == htFolder)

  0009e	85 db		 test	 ebx, ebx
  000a0	0f 85 1e 01 00
	00		 jne	 $LN23@OnLButtonD

; 929  : 		GetFolderRect(index, rc);

  000a6	8d 45 c0	 lea	 eax, DWORD PTR _rc$17[ebp]
  000a9	0f 57 c0	 xorps	 xmm0, xmm0
  000ac	50		 push	 eax
  000ad	ff 75 98	 push	 DWORD PTR _index$[ebp]
  000b0	8b ce		 mov	 ecx, esi
; File C:\Program Files (x86)\Microsoft Visual Studio\2019\Community\VC\Tools\MSVC\14.29.30133\atlmfc\include\atltypes.h

; 528  : 	left = 0;

  000b2	0f 11 45 c0	 movups	 XMMWORD PTR _rc$17[ebp], xmm0
; File D:\git\src\IBK\IBK_DRFN\ProjSrc\SrcDrfn\Chart\comparechart\control\GfxOutBarCtrl.cpp

; 929  : 		GetFolderRect(index, rc);

  000b6	e8 00 00 00 00	 call	 ?GetFolderRect@CGfxOutBarCtrl@@QBE_NHAAVCRect@@@Z ; CGfxOutBarCtrl::GetFolderRect

; 930  : 
; 931  : 		if (::GetCapture() == NULL)

  000bb	8b 3d 00 00 00
	00		 mov	 edi, DWORD PTR __imp__GetCapture@0
  000c1	ff d7		 call	 edi
  000c3	85 c0		 test	 eax, eax
  000c5	0f 85 a7 00 00
	00		 jne	 $LN369@OnLButtonD
; File C:\Program Files (x86)\Microsoft Visual Studio\2019\Community\VC\Tools\MSVC\14.29.30133\atlmfc\include\afxwin2.inl

; 163  : 	{ ASSERT(::IsWindow(m_hWnd)); return CWnd::FromHandle(::SetCapture(m_hWnd)); }

  000cb	ff 76 20	 push	 DWORD PTR [esi+32]
  000ce	ff 15 00 00 00
	00		 call	 DWORD PTR __imp__SetCapture@4
  000d4	50		 push	 eax
  000d5	e8 00 00 00 00	 call	 ?FromHandle@CWnd@@SGPAV1@PAUHWND__@@@Z ; CWnd::FromHandle
; File D:\git\src\IBK\IBK_DRFN\ProjSrc\SrcDrfn\Chart\comparechart\control\GfxOutBarCtrl.cpp

; 935  : 			CClientDC dc(this);

  000da	56		 push	 esi
  000db	8d 8d 48 ff ff
	ff		 lea	 ecx, DWORD PTR _dc$4[ebp]
  000e1	e8 00 00 00 00	 call	 ??0CClientDC@@QAE@PAVCWnd@@@Z ; CClientDC::CClientDC
  000e6	89 5d fc	 mov	 DWORD PTR __$EHRec$[ebp+8], ebx

; 936  : 			//DrawFolder(&dc, index, rc, true);
; 937  : 			AfxLockTempMaps();

  000e9	e8 00 00 00 00	 call	 ?AfxLockTempMaps@@YGXXZ	; AfxLockTempMaps

; 938  : 			for (;;)
; 939  : 			{
; 940  : 				MSG msg;
; 941  : 				VERIFY(::GetMessage(&msg, NULL, 0, 0));

  000ee	53		 push	 ebx
  000ef	53		 push	 ebx
  000f0	53		 push	 ebx
  000f1	8b 1d 00 00 00
	00		 mov	 ebx, DWORD PTR __imp__GetMessageA@16
  000f7	8d 85 78 ff ff
	ff		 lea	 eax, DWORD PTR _msg$9[ebp]
  000fd	50		 push	 eax
  000fe	ff d3		 call	 ebx
; File C:\Program Files (x86)\Microsoft Visual Studio\2019\Community\VC\Tools\MSVC\14.29.30133\atlmfc\include\afxwin2.inl

; 161  : 	{ return CWnd::FromHandle(::GetCapture()); }

  00100	ff d7		 call	 edi
  00102	50		 push	 eax
  00103	e8 00 00 00 00	 call	 ?FromHandle@CWnd@@SGPAV1@PAUHWND__@@@Z ; CWnd::FromHandle
; File D:\git\src\IBK\IBK_DRFN\ProjSrc\SrcDrfn\Chart\comparechart\control\GfxOutBarCtrl.cpp

; 943  : 				if (CWnd::GetCapture() != this) break;

  00108	3b c6		 cmp	 eax, esi
  0010a	75 47		 jne	 SHORT $ExitLoop2$402
  0010c	0f 1f 40 00	 npad	 4
$LL2@OnLButtonD:

; 944  : 
; 945  : 				switch (msg.message)

  00110	8b 85 7c ff ff
	ff		 mov	 eax, DWORD PTR _msg$9[ebp+4]
  00116	3d 00 01 00 00	 cmp	 eax, 256		; 00000100H
  0011b	74 73		 je	 SHORT $LN30@OnLButtonD
  0011d	3d 02 02 00 00	 cmp	 eax, 514		; 00000202H
  00122	75 72		 jne	 SHORT $LN31@OnLButtonD
; File C:\Program Files (x86)\Microsoft Visual Studio\2019\Community\VC\Tools\MSVC\14.29.30133\atlmfc\include\atltypes.h

; 424  : 	x = (short)LOWORD(dwPoint);

  00124	8b 4d 84	 mov	 ecx, DWORD PTR _msg$9[ebp+12]
  00127	0f bf c1	 movsx	 eax, cx
  0012a	89 45 e8	 mov	 DWORD PTR _pt$27[ebp], eax

; 425  : 	y = (short)HIWORD(dwPoint);

  0012d	c1 e9 10	 shr	 ecx, 16			; 00000010H
  00130	0f bf c1	 movsx	 eax, cx
; File D:\git\src\IBK\IBK_DRFN\ProjSrc\SrcDrfn\Chart\comparechart\control\GfxOutBarCtrl.cpp

; 978  : 						int idx, ht1 = HitTestEx(pt, idx);

  00133	8b ce		 mov	 ecx, esi
; File C:\Program Files (x86)\Microsoft Visual Studio\2019\Community\VC\Tools\MSVC\14.29.30133\atlmfc\include\atltypes.h

; 425  : 	y = (short)HIWORD(dwPoint);

  00135	89 45 ec	 mov	 DWORD PTR _pt$27[ebp+4], eax
; File D:\git\src\IBK\IBK_DRFN\ProjSrc\SrcDrfn\Chart\comparechart\control\GfxOutBarCtrl.cpp

; 978  : 						int idx, ht1 = HitTestEx(pt, idx);

  00138	8d 45 98	 lea	 eax, DWORD PTR _idx$12[ebp]
  0013b	50		 push	 eax
  0013c	8d 45 e8	 lea	 eax, DWORD PTR _pt$27[ebp]
  0013f	50		 push	 eax
  00140	e8 00 00 00 00	 call	 ?HitTestEx@CGfxOutBarCtrl@@QAEHABVCPoint@@AAH@Z ; CGfxOutBarCtrl::HitTestEx

; 979  : 						if (ht1 == htFolder)// && idx != iSelFolder)

  00145	85 c0		 test	 eax, eax
  00147	75 0a		 jne	 SHORT $ExitLoop2$402

; 980  : 							SetSelFolder(idx);

  00149	ff 75 98	 push	 DWORD PTR _idx$12[ebp]
  0014c	8b ce		 mov	 ecx, esi
  0014e	e8 00 00 00 00	 call	 ?SetSelFolder@CGfxOutBarCtrl@@QAEXH@Z ; CGfxOutBarCtrl::SetSelFolder
$ExitLoop2$402:

; 991  : 					break;
; 992  : 				}
; 993  : 			}
; 994  : 
; 995  : 		ExitLoop2:
; 996  : 			ReleaseCapture();

  00153	ff 15 00 00 00
	00		 call	 DWORD PTR __imp__ReleaseCapture@0

; 997  : 			AfxUnlockTempMaps(FALSE);

  00159	6a 00		 push	 0
  0015b	e8 00 00 00 00	 call	 ?AfxUnlockTempMaps@@YGHH@Z ; AfxUnlockTempMaps

; 998  : 		}

  00160	8d 8d 48 ff ff
	ff		 lea	 ecx, DWORD PTR _dc$4[ebp]
  00166	c7 45 fc ff ff
	ff ff		 mov	 DWORD PTR __$EHRec$[ebp+8], -1
  0016d	e8 00 00 00 00	 call	 ??1CClientDC@@UAE@XZ	; CClientDC::~CClientDC
$LN369@OnLButtonD:
; File C:\Program Files (x86)\Microsoft Visual Studio\2019\Community\VC\Tools\MSVC\14.29.30133\atlmfc\include\afxwin2.inl

; 116  : 	{ ASSERT(::IsWindow(m_hWnd)); ::InvalidateRect(m_hWnd, lpRect, bErase); }

  00172	6a 00		 push	 0
  00174	8d 45 c0	 lea	 eax, DWORD PTR _rc$17[ebp]
  00177	50		 push	 eax
  00178	ff 76 20	 push	 DWORD PTR [esi+32]
  0017b	ff 15 00 00 00
	00		 call	 DWORD PTR __imp__InvalidateRect@12
  00181	c7 86 24 01 00
	00 ff ff ff ff	 mov	 DWORD PTR [esi+292], -1
; File D:\git\src\IBK\IBK_DRFN\ProjSrc\SrcDrfn\Chart\comparechart\control\GfxOutBarCtrl.cpp

; 1000 : 	}

  0018b	e9 cc 08 00 00	 jmp	 $LN78@OnLButtonD
$LN30@OnLButtonD:

; 981  : 					}
; 982  : 
; 983  : 					goto ExitLoop2;
; 984  : 
; 985  : 				case WM_KEYDOWN:	
; 986  : 					if (msg.wParam != VK_ESCAPE) 

  00190	83 7d 80 1b	 cmp	 DWORD PTR _msg$9[ebp+8], 27 ; 0000001bH
  00194	75 0d		 jne	 SHORT $LN5@OnLButtonD
$LN31@OnLButtonD:

; 987  : 						break;
; 988  : 
; 989  : 				default:
; 990  : 					DispatchMessage(&msg);

  00196	8d 85 78 ff ff
	ff		 lea	 eax, DWORD PTR _msg$9[ebp]
  0019c	50		 push	 eax
  0019d	ff 15 00 00 00
	00		 call	 DWORD PTR __imp__DispatchMessageA@4
$LN5@OnLButtonD:

; 938  : 			for (;;)
; 939  : 			{
; 940  : 				MSG msg;
; 941  : 				VERIFY(::GetMessage(&msg, NULL, 0, 0));

  001a3	6a 00		 push	 0
  001a5	6a 00		 push	 0
  001a7	6a 00		 push	 0
  001a9	8d 85 78 ff ff
	ff		 lea	 eax, DWORD PTR _msg$9[ebp]
  001af	50		 push	 eax
  001b0	ff d3		 call	 ebx
; File C:\Program Files (x86)\Microsoft Visual Studio\2019\Community\VC\Tools\MSVC\14.29.30133\atlmfc\include\afxwin2.inl

; 161  : 	{ return CWnd::FromHandle(::GetCapture()); }

  001b2	ff d7		 call	 edi
  001b4	50		 push	 eax
  001b5	e8 00 00 00 00	 call	 ?FromHandle@CWnd@@SGPAV1@PAUHWND__@@@Z ; CWnd::FromHandle
; File D:\git\src\IBK\IBK_DRFN\ProjSrc\SrcDrfn\Chart\comparechart\control\GfxOutBarCtrl.cpp

; 943  : 				if (CWnd::GetCapture() != this) break;

  001ba	3b c6		 cmp	 eax, esi
  001bc	0f 84 4e ff ff
	ff		 je	 $LL2@OnLButtonD
  001c2	eb 8f		 jmp	 SHORT $ExitLoop2$402
$LN23@OnLButtonD:

; 1001 : 	else iLastSelectedFolder = -1;

  001c4	c7 86 1c 01 00
	00 ff ff ff ff	 mov	 DWORD PTR [esi+284], -1

; 1002 : 
; 1003 : 	if (ht == htItem)

  001ce	83 fb 01	 cmp	 ebx, 1
  001d1	0f 85 66 02 00
	00		 jne	 $LN34@OnLButtonD

; 1008 : 		GetItemRect(iSelFolder, index, rc);

  001d7	8b 7d 98	 mov	 edi, DWORD PTR _index$[ebp]
  001da	8d 45 c0	 lea	 eax, DWORD PTR _rc$16[ebp]
  001dd	50		 push	 eax
  001de	57		 push	 edi
  001df	ff b6 34 01 00
	00		 push	 DWORD PTR [esi+308]
  001e5	0f 57 c0	 xorps	 xmm0, xmm0
  001e8	c7 86 2c 01 00
	00 ff ff ff ff	 mov	 DWORD PTR [esi+300], -1
  001f2	8b ce		 mov	 ecx, esi
  001f4	88 5d 9f	 mov	 BYTE PTR _bHigh$1$[ebp], bl
; File C:\Program Files (x86)\Microsoft Visual Studio\2019\Community\VC\Tools\MSVC\14.29.30133\atlmfc\include\atltypes.h

; 528  : 	left = 0;

  001f7	0f 11 45 c0	 movups	 XMMWORD PTR _rc$16[ebp], xmm0
; File D:\git\src\IBK\IBK_DRFN\ProjSrc\SrcDrfn\Chart\comparechart\control\GfxOutBarCtrl.cpp

; 1008 : 		GetItemRect(iSelFolder, index, rc);

  001fb	e8 00 00 00 00	 call	 ?GetItemRect@CGfxOutBarCtrl@@QAEXHHAAVCRect@@@Z ; CGfxOutBarCtrl::GetItemRect

; 1009 : 
; 1010 : 		HCURSOR hCur = GetCursor();

  00200	ff 15 00 00 00
	00		 call	 DWORD PTR __imp__GetCursor@0

; 1011 : 
; 1012 : 		if (::GetCapture() == NULL)

  00206	8b 1d 00 00 00
	00		 mov	 ebx, DWORD PTR __imp__GetCapture@0
  0020c	89 45 98	 mov	 DWORD PTR _hCur$1$[ebp], eax
  0020f	ff d3		 call	 ebx
  00211	85 c0		 test	 eax, eax
  00213	0f 85 ff 01 00
	00		 jne	 $LN36@OnLButtonD
; File C:\Program Files (x86)\Microsoft Visual Studio\2019\Community\VC\Tools\MSVC\14.29.30133\atlmfc\include\afxwin2.inl

; 163  : 	{ ASSERT(::IsWindow(m_hWnd)); return CWnd::FromHandle(::SetCapture(m_hWnd)); }

  00219	ff 76 20	 push	 DWORD PTR [esi+32]
  0021c	ff 15 00 00 00
	00		 call	 DWORD PTR __imp__SetCapture@4
  00222	50		 push	 eax
  00223	e8 00 00 00 00	 call	 ?FromHandle@CWnd@@SGPAV1@PAUHWND__@@@Z ; CWnd::FromHandle
; File D:\git\src\IBK\IBK_DRFN\ProjSrc\SrcDrfn\Chart\comparechart\control\GfxOutBarCtrl.cpp

; 1016 : 			CClientDC dc(this);

  00228	56		 push	 esi
  00229	8d 8d 48 ff ff
	ff		 lea	 ecx, DWORD PTR _dc$3[ebp]
  0022f	e8 00 00 00 00	 call	 ??0CClientDC@@QAE@PAVCWnd@@@Z ; CClientDC::CClientDC

; 1017 : 			HighlightItem(index, true);

  00234	6a 01		 push	 1
  00236	57		 push	 edi
  00237	8b ce		 mov	 ecx, esi
  00239	c7 45 fc 01 00
	00 00		 mov	 DWORD PTR __$EHRec$[ebp+8], 1
  00240	e8 00 00 00 00	 call	 ?HighlightItem@CGfxOutBarCtrl@@QAEXH_N@Z ; CGfxOutBarCtrl::HighlightItem

; 1018 : 			AfxLockTempMaps();

  00245	e8 00 00 00 00	 call	 ?AfxLockTempMaps@@YGXXZ	; AfxLockTempMaps

; 1019 : 			for (;;)
; 1020 : 			{
; 1021 : 				MSG msg;
; 1022 : 				VERIFY(::GetMessage(&msg, NULL, 0, 0));

  0024a	6a 00		 push	 0
  0024c	6a 00		 push	 0
  0024e	6a 00		 push	 0
  00250	8d 85 78 ff ff
	ff		 lea	 eax, DWORD PTR _msg$8[ebp]
  00256	50		 push	 eax
  00257	ff 15 00 00 00
	00		 call	 DWORD PTR __imp__GetMessageA@16
; File C:\Program Files (x86)\Microsoft Visual Studio\2019\Community\VC\Tools\MSVC\14.29.30133\atlmfc\include\afxwin2.inl

; 161  : 	{ return CWnd::FromHandle(::GetCapture()); }

  0025d	ff d3		 call	 ebx
  0025f	50		 push	 eax
  00260	e8 00 00 00 00	 call	 ?FromHandle@CWnd@@SGPAV1@PAUHWND__@@@Z ; CWnd::FromHandle
; File D:\git\src\IBK\IBK_DRFN\ProjSrc\SrcDrfn\Chart\comparechart\control\GfxOutBarCtrl.cpp

; 1024 : 				if (CWnd::GetCapture() != this) break;

  00265	3b c6		 cmp	 eax, esi
  00267	0f 85 8c 01 00
	00		 jne	 $ExitLoop4$403
  0026d	0f 1f 00	 npad	 3
$LL7@OnLButtonD:

; 1025 : 
; 1026 : 				switch (msg.message)

  00270	8b 85 7c ff ff
	ff		 mov	 eax, DWORD PTR _msg$8[ebp+4]
  00276	83 f8 20	 cmp	 eax, 32			; 00000020H
  00279	74 16		 je	 SHORT $LN38@OnLButtonD
  0027b	3d 02 02 00 00	 cmp	 eax, 514		; 00000202H
  00280	74 3c		 je	 SHORT $LN370@OnLButtonD

; 1135 : 									rc.InflateRect(1,1);
; 1136 : 									InvalidateRect(rc);
; 1137 : 								}
; 1138 : 
; 1139 : 								GetOwner()->SendMessage(WMU_OUTBAR_NOTIFY, NM_OB_ITEMCLICK, idx);
; 1140 : 								Invalidate();
; 1141 : 							}
; 1142 : 						}
; 1143 : 						else
; 1144 : 						{
; 1145 : 							if (ht1 == htItem)
; 1146 : 							{
; 1147 : 								if (idx != index)
; 1148 : 								{
; 1149 : 									OUTBAR_INFO ob;
; 1150 : 									ob.iDragFrom = iSelFolder;
; 1151 : 									ob.iDragTo = index;
; 1152 : 									if (GetOwner()->SendMessage(WMU_OUTBAR_NOTIFY, NM_OB_DRAGITEM, (LPARAM) &ob))
; 1153 : 									{
; 1154 : 										CBarFolder * pbf = (CBarFolder *) arFolder.GetAt(iSelFolder);
; 1155 : 										CBarItem * piFrom = (CBarItem *) pbf->arItems.GetAt(index);
; 1156 : 										pbf->arItems.RemoveAt(index);
; 1157 : 										if (idx > index) idx --;
; 1158 : 										pbf->arItems.InsertAt(idx, piFrom);
; 1159 : 									}
; 1160 : 								}
; 1161 : 							}
; 1162 : 							else
; 1163 : 							{
; 1164 : 								CRect rcItem;
; 1165 : 								GetItemRect(iSelFolder, GetItemCount() - 1, rcItem);
; 1166 : 								if (pt.y > rcItem.bottom && pt.y < inRc.bottom)
; 1167 : 								{
; 1168 : 									OUTBAR_INFO ob;
; 1169 : 									ob.iDragFrom = iSelFolder;
; 1170 : 									ob.iDragTo = index;
; 1171 : 									if (GetOwner()->SendMessage(WMU_OUTBAR_NOTIFY, NM_OB_DRAGITEM, (LPARAM) &ob))
; 1172 : 									{
; 1173 : 										CBarFolder * pbf = (CBarFolder *) arFolder.GetAt(iSelFolder);
; 1174 : 										CBarItem * piFrom = (CBarItem *) pbf->arItems.GetAt(index);
; 1175 : 										pbf->arItems.RemoveAt(index);
; 1176 : 										pbf->arItems.Add((void *) piFrom);
; 1177 : 									}
; 1178 : 								}
; 1179 : 							}
; 1180 : 						}
; 1181 : 					}
; 1182 : 
; 1183 : 					goto ExitLoop4;
; 1184 : 
; 1185 : 				default:
; 1186 : 					DispatchMessage(&msg);

  00282	8d 85 78 ff ff
	ff		 lea	 eax, DWORD PTR _msg$8[ebp]
  00288	50		 push	 eax
  00289	ff 15 00 00 00
	00		 call	 DWORD PTR __imp__DispatchMessageA@4
  0028f	eb 09		 jmp	 SHORT $LN10@OnLButtonD
$LN38@OnLButtonD:

; 1027 : 				{
; 1028 : 				//case WM_MOUSEMOVE:
; 1029 : 				//	{
; 1030 : 				//		CPoint pt(msg.lParam);
; 1031 : 				//		int idx, ht1 = HitTestEx(pt, idx);
; 1032 : 				//		if (bDragging)
; 1033 : 				//		{
; 1034 : 				//			if (ht1 == htItem) 
; 1035 : 				//			{
; 1036 : 				//				DrawDragArrow(&dc, index, idx);
; 1037 : 				//				SetCursor(hDragCursor);
; 1038 : 				//				hCur = hDragCursor;
; 1039 : 				//			}
; 1040 : 				//			else 
; 1041 : 				//			{
; 1042 : 				//				CRect rcItem;
; 1043 : 				//				GetItemRect(iSelFolder, GetItemCount() - 1, rcItem);
; 1044 : 				//				if (pt.y > rcItem.bottom && pt.y < inRc.bottom)
; 1045 : 				//				{
; 1046 : 				//					DrawDragArrow(&dc, index, GetItemCount());
; 1047 : 				//					SetCursor(hDragCursor);
; 1048 : 				//					hCur = hDragCursor;
; 1049 : 				//				}
; 1050 : 				//				else
; 1051 : 				//				{
; 1052 : 				//					DrawDragArrow(&dc, index, -1);
; 1053 : 				//					SetCursor(hNoDragCursor);
; 1054 : 				//					hCur = hNoDragCursor;
; 1055 : 				//				}
; 1056 : 				//			}
; 1057 : 				//		}
; 1058 : 				//		else
; 1059 : 				//		{
; 1060 : 				//			if (ht1 == htItem && idx == index)
; 1061 : 				//			{
; 1062 : 				//				if (!bHigh)
; 1063 : 				//				{
; 1064 : 				//					HighlightItem(index, true);
; 1065 : 				//					bHigh = true;
; 1066 : 				//					bPressedHighlight = true;
; 1067 : 				//				}
; 1068 : 				//			}
; 1069 : 				//			else 
; 1070 : 				//			{
; 1071 : 				//				if (ht1 == htItem)
; 1072 : 				//				{
; 1073 : 				//					if (bHigh)
; 1074 : 				//					{
; 1075 : 				//						HighlightItem(index, false);
; 1076 : 				//						bHigh = false;
; 1077 : 				//						bPressedHighlight = false;
; 1078 : 				//					}
; 1079 : 				//				}
; 1080 : 				//				else
; 1081 : 				//				{
; 1082 : 				//					if (dwFlags&fDragItems)
; 1083 : 				//					{
; 1084 : 				//						HighlightItem(index, true);
; 1085 : 				//						bHigh = true;
; 1086 : 				//						bDragging = true;
; 1087 : 
; 1088 : 				//						SetCursor(hDragCursor);
; 1089 : 				//						hCur = hDragCursor;
; 1090 : 
; 1091 : 				//						bPressedHighlight = true;
; 1092 : 				//					}
; 1093 : 				//				}
; 1094 : 				//			}
; 1095 : 				//		}
; 1096 : 				//	}
; 1097 : 				//	break;
; 1098 : 
; 1099 : 				case WM_SETCURSOR:
; 1100 : 					SetCursor(hCur);

  00291	ff 75 98	 push	 DWORD PTR _hCur$1$[ebp]
  00294	ff 15 00 00 00
	00		 call	 DWORD PTR __imp__SetCursor@4
$LN10@OnLButtonD:

; 1019 : 			for (;;)
; 1020 : 			{
; 1021 : 				MSG msg;
; 1022 : 				VERIFY(::GetMessage(&msg, NULL, 0, 0));

  0029a	6a 00		 push	 0
  0029c	6a 00		 push	 0
  0029e	6a 00		 push	 0
  002a0	8d 85 78 ff ff
	ff		 lea	 eax, DWORD PTR _msg$8[ebp]
  002a6	50		 push	 eax
  002a7	ff 15 00 00 00
	00		 call	 DWORD PTR __imp__GetMessageA@16
; File C:\Program Files (x86)\Microsoft Visual Studio\2019\Community\VC\Tools\MSVC\14.29.30133\atlmfc\include\afxwin2.inl

; 161  : 	{ return CWnd::FromHandle(::GetCapture()); }

  002ad	ff d3		 call	 ebx
  002af	50		 push	 eax
  002b0	e8 00 00 00 00	 call	 ?FromHandle@CWnd@@SGPAV1@PAUHWND__@@@Z ; CWnd::FromHandle
; File D:\git\src\IBK\IBK_DRFN\ProjSrc\SrcDrfn\Chart\comparechart\control\GfxOutBarCtrl.cpp

; 1024 : 				if (CWnd::GetCapture() != this) break;

  002b5	3b c6		 cmp	 eax, esi
  002b7	74 b7		 je	 SHORT $LL7@OnLButtonD
  002b9	e9 3b 01 00 00	 jmp	 $ExitLoop4$403
$LN370@OnLButtonD:

; 1101 : 					break;
; 1102 : 
; 1103 : 				case WM_LBUTTONUP:
; 1104 : 					{
; 1105 : 						if (bHigh)
; 1106 : 						{
; 1107 : 							HighlightItem(-1);

  002be	6a 00		 push	 0
  002c0	6a ff		 push	 -1
  002c2	8b ce		 mov	 ecx, esi
  002c4	e8 00 00 00 00	 call	 ?HighlightItem@CGfxOutBarCtrl@@QAEXH_N@Z ; CGfxOutBarCtrl::HighlightItem
; File C:\Program Files (x86)\Microsoft Visual Studio\2019\Community\VC\Tools\MSVC\14.29.30133\atlmfc\include\atltypes.h

; 424  : 	x = (short)LOWORD(dwPoint);

  002c9	8b 4d 84	 mov	 ecx, DWORD PTR _msg$8[ebp+12]
  002cc	0f bf c1	 movsx	 eax, cx
  002cf	89 45 e8	 mov	 DWORD PTR _pt$26[ebp], eax

; 425  : 	y = (short)HIWORD(dwPoint);

  002d2	c1 e9 10	 shr	 ecx, 16			; 00000010H
  002d5	0f bf c1	 movsx	 eax, cx
; File D:\git\src\IBK\IBK_DRFN\ProjSrc\SrcDrfn\Chart\comparechart\control\GfxOutBarCtrl.cpp

; 1111 : 						int idx, ht1 = HitTestEx(pt, idx);

  002d8	8b ce		 mov	 ecx, esi
; File C:\Program Files (x86)\Microsoft Visual Studio\2019\Community\VC\Tools\MSVC\14.29.30133\atlmfc\include\atltypes.h

; 425  : 	y = (short)HIWORD(dwPoint);

  002da	89 45 ec	 mov	 DWORD PTR _pt$26[ebp+4], eax
; File D:\git\src\IBK\IBK_DRFN\ProjSrc\SrcDrfn\Chart\comparechart\control\GfxOutBarCtrl.cpp

; 1111 : 						int idx, ht1 = HitTestEx(pt, idx);

  002dd	8d 45 98	 lea	 eax, DWORD PTR _idx$11[ebp]
  002e0	50		 push	 eax
  002e1	8d 45 e8	 lea	 eax, DWORD PTR _pt$26[ebp]
  002e4	c6 45 9f 00	 mov	 BYTE PTR _bHigh$1$[ebp], 0
  002e8	50		 push	 eax
  002e9	e8 00 00 00 00	 call	 ?HitTestEx@CGfxOutBarCtrl@@QAEHABVCPoint@@AAH@Z ; CGfxOutBarCtrl::HitTestEx

; 1112 : 						if (!bDragging)
; 1113 : 						{
; 1114 : 							if (ht1 == htItem && idx == index) 

  002ee	83 f8 01	 cmp	 eax, 1
  002f1	0f 85 02 01 00
	00		 jne	 $ExitLoop4$403
  002f7	8b 5d 98	 mov	 ebx, DWORD PTR _idx$11[ebp]
  002fa	3b df		 cmp	 ebx, edi
  002fc	0f 85 f7 00 00
	00		 jne	 $ExitLoop4$403

; 1115 : 							{
; 1116 : 								if (iSelAnimTiming > 0 && index != iLastSel && iLastSel >= 0)

  00302	83 be f8 00 00
	00 00		 cmp	 DWORD PTR [esi+248], 0
  00309	7e 1a		 jle	 SHORT $LN44@OnLButtonD
  0030b	8b 86 f4 00 00
	00		 mov	 eax, DWORD PTR [esi+244]
  00311	3b f8		 cmp	 edi, eax
  00313	74 10		 je	 SHORT $LN44@OnLButtonD
  00315	85 c0		 test	 eax, eax
  00317	78 0c		 js	 SHORT $LN44@OnLButtonD

; 1117 : 								{
; 1118 : 									DrawAnimItem(0, 0, iLastSel);

  00319	50		 push	 eax
  0031a	6a 00		 push	 0
  0031c	6a 00		 push	 0
  0031e	8b ce		 mov	 ecx, esi
  00320	e8 00 00 00 00	 call	 ?DrawAnimItem@CGfxOutBarCtrl@@QAEXHHH@Z ; CGfxOutBarCtrl::DrawAnimItem
$LN44@OnLButtonD:

; 1119 : 								}
; 1120 : 
; 1121 : 								if (dwFlags&fSelHighlight && iLastSel >= 0)

  00325	8b 86 00 01 00
	00		 mov	 eax, DWORD PTR [esi+256]
  0032b	a9 00 02 00 00	 test	 eax, 512		; 00000200H
  00330	74 46		 je	 SHORT $LN45@OnLButtonD
  00332	8b 8e f4 00 00
	00		 mov	 ecx, DWORD PTR [esi+244]
  00338	85 c9		 test	 ecx, ecx
  0033a	78 3c		 js	 SHORT $LN45@OnLButtonD

; 1124 : 									GetIconRect(iSelFolder, iLastSel, rc);

  0033c	8d 45 d0	 lea	 eax, DWORD PTR _rc$22[ebp]
  0033f	0f 57 c0	 xorps	 xmm0, xmm0
  00342	50		 push	 eax
  00343	51		 push	 ecx
  00344	ff b6 34 01 00
	00		 push	 DWORD PTR [esi+308]
  0034a	8b ce		 mov	 ecx, esi
; File C:\Program Files (x86)\Microsoft Visual Studio\2019\Community\VC\Tools\MSVC\14.29.30133\atlmfc\include\atltypes.h

; 528  : 	left = 0;

  0034c	0f 11 45 d0	 movups	 XMMWORD PTR _rc$22[ebp], xmm0
; File D:\git\src\IBK\IBK_DRFN\ProjSrc\SrcDrfn\Chart\comparechart\control\GfxOutBarCtrl.cpp

; 1124 : 									GetIconRect(iSelFolder, iLastSel, rc);

  00350	e8 00 00 00 00	 call	 ?GetIconRect@CGfxOutBarCtrl@@QAEXHHAAVCRect@@@Z ; CGfxOutBarCtrl::GetIconRect
; File C:\Program Files (x86)\Microsoft Visual Studio\2019\Community\VC\Tools\MSVC\14.29.30133\atlmfc\include\atltypes.h

; 686  : 	::InflateRect(this, x, y);

  00355	6a 01		 push	 1
  00357	6a 01		 push	 1
  00359	8d 45 d0	 lea	 eax, DWORD PTR _rc$22[ebp]
  0035c	50		 push	 eax
  0035d	ff 15 00 00 00
	00		 call	 DWORD PTR __imp__InflateRect@12
; File C:\Program Files (x86)\Microsoft Visual Studio\2019\Community\VC\Tools\MSVC\14.29.30133\atlmfc\include\afxwin2.inl

; 116  : 	{ ASSERT(::IsWindow(m_hWnd)); ::InvalidateRect(m_hWnd, lpRect, bErase); }

  00363	6a 01		 push	 1
  00365	8d 45 d0	 lea	 eax, DWORD PTR _rc$22[ebp]
  00368	50		 push	 eax
  00369	ff 76 20	 push	 DWORD PTR [esi+32]
  0036c	ff 15 00 00 00
	00		 call	 DWORD PTR __imp__InvalidateRect@12
  00372	8b 86 00 01 00
	00		 mov	 eax, DWORD PTR [esi+256]
$LN45@OnLButtonD:
; File D:\git\src\IBK\IBK_DRFN\ProjSrc\SrcDrfn\Chart\comparechart\control\GfxOutBarCtrl.cpp

; 1129 : 								iLastSel = index;

  00378	89 be f4 00 00
	00		 mov	 DWORD PTR [esi+244], edi

; 1131 : 								if (dwFlags&fSelHighlight && iLastSel >= 0)

  0037e	a9 00 02 00 00	 test	 eax, 512		; 00000200H
  00383	74 3e		 je	 SHORT $LN386@OnLButtonD
  00385	85 ff		 test	 edi, edi
  00387	78 3a		 js	 SHORT $LN386@OnLButtonD

; 1134 : 									GetIconRect(iSelFolder, iLastSel, rc);

  00389	8d 45 d0	 lea	 eax, DWORD PTR _rc$21[ebp]
  0038c	0f 57 c0	 xorps	 xmm0, xmm0
  0038f	50		 push	 eax
  00390	57		 push	 edi
  00391	ff b6 34 01 00
	00		 push	 DWORD PTR [esi+308]
  00397	8b ce		 mov	 ecx, esi
; File C:\Program Files (x86)\Microsoft Visual Studio\2019\Community\VC\Tools\MSVC\14.29.30133\atlmfc\include\atltypes.h

; 528  : 	left = 0;

  00399	0f 11 45 d0	 movups	 XMMWORD PTR _rc$21[ebp], xmm0
; File D:\git\src\IBK\IBK_DRFN\ProjSrc\SrcDrfn\Chart\comparechart\control\GfxOutBarCtrl.cpp

; 1134 : 									GetIconRect(iSelFolder, iLastSel, rc);

  0039d	e8 00 00 00 00	 call	 ?GetIconRect@CGfxOutBarCtrl@@QAEXHHAAVCRect@@@Z ; CGfxOutBarCtrl::GetIconRect
; File C:\Program Files (x86)\Microsoft Visual Studio\2019\Community\VC\Tools\MSVC\14.29.30133\atlmfc\include\atltypes.h

; 686  : 	::InflateRect(this, x, y);

  003a2	6a 01		 push	 1
  003a4	6a 01		 push	 1
  003a6	8d 45 d0	 lea	 eax, DWORD PTR _rc$21[ebp]
  003a9	50		 push	 eax
  003aa	ff 15 00 00 00
	00		 call	 DWORD PTR __imp__InflateRect@12
; File C:\Program Files (x86)\Microsoft Visual Studio\2019\Community\VC\Tools\MSVC\14.29.30133\atlmfc\include\afxwin2.inl

; 116  : 	{ ASSERT(::IsWindow(m_hWnd)); ::InvalidateRect(m_hWnd, lpRect, bErase); }

  003b0	8b 3d 00 00 00
	00		 mov	 edi, DWORD PTR __imp__InvalidateRect@12
  003b6	8d 45 d0	 lea	 eax, DWORD PTR _rc$21[ebp]
  003b9	6a 01		 push	 1
  003bb	50		 push	 eax
  003bc	ff 76 20	 push	 DWORD PTR [esi+32]
  003bf	ff d7		 call	 edi
; File D:\git\src\IBK\IBK_DRFN\ProjSrc\SrcDrfn\Chart\comparechart\control\GfxOutBarCtrl.cpp

; 1131 : 								if (dwFlags&fSelHighlight && iLastSel >= 0)

  003c1	eb 06		 jmp	 SHORT $LN46@OnLButtonD
$LN386@OnLButtonD:
; File C:\Program Files (x86)\Microsoft Visual Studio\2019\Community\VC\Tools\MSVC\14.29.30133\atlmfc\include\afxwin2.inl

; 27   : 	{ return m_hWndOwner != NULL ? CWnd::FromHandle(m_hWndOwner) : GetParent(); }

  003c3	8b 3d 00 00 00
	00		 mov	 edi, DWORD PTR __imp__InvalidateRect@12
$LN46@OnLButtonD:
  003c9	8b 46 5c	 mov	 eax, DWORD PTR [esi+92]
  003cc	85 c0		 test	 eax, eax
  003ce	75 09		 jne	 SHORT $LN143@OnLButtonD

; 213  : 	{ ASSERT(::IsWindow(m_hWnd)); return CWnd::FromHandle(::GetParent(m_hWnd)); }

  003d0	ff 76 20	 push	 DWORD PTR [esi+32]
  003d3	ff 15 00 00 00
	00		 call	 DWORD PTR __imp__GetParent@4
$LN143@OnLButtonD:

; 32   : 	{ ASSERT(::IsWindow(m_hWnd)); return ::SendMessage(m_hWnd, message, wParam, lParam); }

  003d9	50		 push	 eax
  003da	e8 00 00 00 00	 call	 ?FromHandle@CWnd@@SGPAV1@PAUHWND__@@@Z ; CWnd::FromHandle
  003df	53		 push	 ebx
  003e0	6a 01		 push	 1
  003e2	68 c1 08 00 00	 push	 2241			; 000008c1H
  003e7	ff 70 20	 push	 DWORD PTR [eax+32]
  003ea	ff 15 00 00 00
	00		 call	 DWORD PTR __imp__SendMessageA@16

; 114  : 	{ ASSERT(::IsWindow(m_hWnd)); ::InvalidateRect(m_hWnd, NULL, bErase); }

  003f0	6a 01		 push	 1
  003f2	6a 00		 push	 0
  003f4	ff 76 20	 push	 DWORD PTR [esi+32]
  003f7	ff d7		 call	 edi
$ExitLoop4$403:
; File D:\git\src\IBK\IBK_DRFN\ProjSrc\SrcDrfn\Chart\comparechart\control\GfxOutBarCtrl.cpp

; 1192 : 			ReleaseCapture();

  003f9	ff 15 00 00 00
	00		 call	 DWORD PTR __imp__ReleaseCapture@0

; 1193 : 			AfxUnlockTempMaps(FALSE);

  003ff	6a 00		 push	 0
  00401	e8 00 00 00 00	 call	 ?AfxUnlockTempMaps@@YGHH@Z ; AfxUnlockTempMaps

; 1194 : 			if (bDragging) 
; 1195 : 			{
; 1196 : 				Invalidate();
; 1197 : 			}
; 1198 : 		}

  00406	8d 8d 48 ff ff
	ff		 lea	 ecx, DWORD PTR _dc$3[ebp]
  0040c	c7 45 fc ff ff
	ff ff		 mov	 DWORD PTR __$EHRec$[ebp+8], -1
  00413	e8 00 00 00 00	 call	 ??1CClientDC@@UAE@XZ	; CClientDC::~CClientDC
$LN36@OnLButtonD:

; 1199 : 		bPressedHighlight = false;
; 1200 : 		if (bHigh) InvalidateRect(rc, false);

  00418	80 7d 9f 00	 cmp	 BYTE PTR _bHigh$1$[ebp], 0
  0041c	c6 86 28 01 00
	00 00		 mov	 BYTE PTR [esi+296], 0
  00423	0f 84 33 06 00
	00		 je	 $LN78@OnLButtonD
; File C:\Program Files (x86)\Microsoft Visual Studio\2019\Community\VC\Tools\MSVC\14.29.30133\atlmfc\include\afxwin2.inl

; 116  : 	{ ASSERT(::IsWindow(m_hWnd)); ::InvalidateRect(m_hWnd, lpRect, bErase); }

  00429	6a 00		 push	 0
  0042b	8d 45 c0	 lea	 eax, DWORD PTR _rc$16[ebp]
  0042e	50		 push	 eax
  0042f	ff 76 20	 push	 DWORD PTR [esi+32]
  00432	ff 15 00 00 00
	00		 call	 DWORD PTR __imp__InvalidateRect@12
; File D:\git\src\IBK\IBK_DRFN\ProjSrc\SrcDrfn\Chart\comparechart\control\GfxOutBarCtrl.cpp

; 1201 : 	}

  00438	e9 1f 06 00 00	 jmp	 $LN78@OnLButtonD
$LN34@OnLButtonD:

; 1202 : 	else iLastItemHighlighted = -1;

  0043d	c7 86 24 01 00
	00 ff ff ff ff	 mov	 DWORD PTR [esi+292], -1

; 1203 : 
; 1204 : 	if (ht == htDownScroll)

  00447	83 fb 03	 cmp	 ebx, 3
  0044a	0f 85 4a 03 00
	00		 jne	 $LN59@OnLButtonD

; 1205 : 	{
; 1206 : 		bLooping = true;
; 1207 : 		bool bHigh = true;
; 1208 : 
; 1209 : 		if (::GetCapture() == NULL)

  00450	8b 1d 00 00 00
	00		 mov	 ebx, DWORD PTR __imp__GetCapture@0
  00456	c6 86 e4 00 00
	00 01		 mov	 BYTE PTR [esi+228], 1
  0045d	ff d3		 call	 ebx
  0045f	85 c0		 test	 eax, eax
  00461	0f 85 f5 05 00
	00		 jne	 $LN78@OnLButtonD
; File C:\Program Files (x86)\Microsoft Visual Studio\2019\Community\VC\Tools\MSVC\14.29.30133\atlmfc\include\afxwin2.inl

; 163  : 	{ ASSERT(::IsWindow(m_hWnd)); return CWnd::FromHandle(::SetCapture(m_hWnd)); }

  00467	ff 76 20	 push	 DWORD PTR [esi+32]
  0046a	ff 15 00 00 00
	00		 call	 DWORD PTR __imp__SetCapture@4
  00470	50		 push	 eax
  00471	e8 00 00 00 00	 call	 ?FromHandle@CWnd@@SGPAV1@PAUHWND__@@@Z ; CWnd::FromHandle
; File D:\git\src\IBK\IBK_DRFN\ProjSrc\SrcDrfn\Chart\comparechart\control\GfxOutBarCtrl.cpp

; 1213 : 			CClientDC dc(this);

  00476	56		 push	 esi
  00477	8d 8d 48 ff ff
	ff		 lea	 ecx, DWORD PTR _dc$2[ebp]
  0047d	e8 00 00 00 00	 call	 ??0CClientDC@@QAE@PAVCWnd@@@Z ; CClientDC::CClientDC
; File C:\Program Files (x86)\Microsoft Visual Studio\2019\Community\VC\Tools\MSVC\14.29.30133\atlmfc\include\afxwin1.inl

; 512  : 	{ ASSERT(m_hDC != NULL); return ::DrawFrameControl(m_hDC, lpRect, nType, nState); }

  00482	68 01 02 00 00	 push	 513			; 00000201H
  00487	6a 03		 push	 3
; File D:\git\src\IBK\IBK_DRFN\ProjSrc\SrcDrfn\Chart\comparechart\control\GfxOutBarCtrl.cpp

; 1214 : 			dc.DrawFrameControl(rcDownArrow, DFC_SCROLL, DFCS_SCROLLDOWN|DFCS_PUSHED);

  00489	8d be d4 00 00
	00		 lea	 edi, DWORD PTR [esi+212]
  0048f	c7 45 fc 02 00
	00 00		 mov	 DWORD PTR __$EHRec$[ebp+8], 2
; File C:\Program Files (x86)\Microsoft Visual Studio\2019\Community\VC\Tools\MSVC\14.29.30133\atlmfc\include\afxwin1.inl

; 512  : 	{ ASSERT(m_hDC != NULL); return ::DrawFrameControl(m_hDC, lpRect, nType, nState); }

  00496	57		 push	 edi
  00497	ff b5 4c ff ff
	ff		 push	 DWORD PTR _dc$2[ebp+4]
  0049d	ff 15 00 00 00
	00		 call	 DWORD PTR __imp__DrawFrameControl@16
; File C:\Program Files (x86)\Microsoft Visual Studio\2019\Community\VC\Tools\MSVC\14.29.30133\atlmfc\include\afxwin2.inl

; 152  : 	{ ASSERT(::IsWindow(m_hWnd)); return ::SetTimer(m_hWnd, nIDEvent, nElapse,

  004a3	6a 00		 push	 0
  004a5	68 2c 01 00 00	 push	 300			; 0000012cH
  004aa	6a 02		 push	 2
  004ac	ff 76 20	 push	 DWORD PTR [esi+32]
  004af	ff 15 00 00 00
	00		 call	 DWORD PTR __imp__SetTimer@16
; File D:\git\src\IBK\IBK_DRFN\ProjSrc\SrcDrfn\Chart\comparechart\control\GfxOutBarCtrl.cpp

; 1216 : 			AfxLockTempMaps();

