; Listing generated by Microsoft (R) Optimizing Compiler Version 19.29.30148.0 

	TITLE	D:\git\src\IBK\IBK_DRFN\#DRfn-CS\_Obj\CompareChart\GfxOutBarCtrl.obj
	.686P
	.XMM
	include listing.inc
	.model	flat

INCLUDELIB MSVCRT
INCLUDELIB OLDNAMES

PUBLIC	?__empty_global_delete@@YAXPAX@Z		; __empty_global_delete
PUBLIC	?__empty_global_delete@@YAXPAXI@Z		; __empty_global_delete
PUBLIC	??1CObject@@UAE@XZ				; CObject::~CObject
PUBLIC	??3CObject@@SGXPAX@Z				; CObject::operator delete
PUBLIC	?Serialize@CObject@@UAEXAAVCArchive@@@Z		; CObject::Serialize
PUBLIC	?AssertValid@CObject@@UBEXXZ			; CObject::AssertValid
PUBLIC	?Dump@CObject@@UBEXAAVCDumpContext@@@Z		; CObject::Dump
PUBLIC	??1CGdiObject@@UAE@XZ				; CGdiObject::~CGdiObject
PUBLIC	??_GCGdiObject@@UAEPAXI@Z			; CGdiObject::`scalar deleting destructor'
PUBLIC	??1CPen@@UAE@XZ					; CPen::~CPen
PUBLIC	??_GCPen@@UAEPAXI@Z				; CPen::`scalar deleting destructor'
PUBLIC	??1CFont@@UAE@XZ				; CFont::~CFont
PUBLIC	??_GCFont@@UAEPAXI@Z				; CFont::`scalar deleting destructor'
PUBLIC	??1CBitmap@@UAE@XZ				; CBitmap::~CBitmap
PUBLIC	??_GCBitmap@@UAEPAXI@Z				; CBitmap::`scalar deleting destructor'
PUBLIC	??1CRgn@@UAE@XZ					; CRgn::~CRgn
PUBLIC	??_GCRgn@@UAEPAXI@Z				; CRgn::`scalar deleting destructor'
PUBLIC	?DrawTextA@CDC@@UAEHPBDHPAUtagRECT@@I@Z		; CDC::DrawTextA
PUBLIC	?OnRButtonDown@CWnd@@IAEXIVCPoint@@@Z		; CWnd::OnRButtonDown
PUBLIC	?DoDataExchange@CWnd@@MAEXPAVCDataExchange@@@Z	; CWnd::DoDataExchange
PUBLIC	?BeginModalState@CWnd@@UAEXXZ			; CWnd::BeginModalState
PUBLIC	?EndModalState@CWnd@@UAEXXZ			; CWnd::EndModalState
PUBLIC	?_GetBaseClass@CGfxOutBarCtrl@@KGPAUCRuntimeClass@@XZ ; CGfxOutBarCtrl::_GetBaseClass
PUBLIC	?GetThisClass@CGfxOutBarCtrl@@SGPAUCRuntimeClass@@XZ ; CGfxOutBarCtrl::GetThisClass
PUBLIC	?GetRuntimeClass@CGfxOutBarCtrl@@UBEPAUCRuntimeClass@@XZ ; CGfxOutBarCtrl::GetRuntimeClass
PUBLIC	?CreateObject@CGfxOutBarCtrl@@SGPAVCObject@@XZ	; CGfxOutBarCtrl::CreateObject
PUBLIC	??0CGfxOutBarCtrl@@QAE@XZ			; CGfxOutBarCtrl::CGfxOutBarCtrl
PUBLIC	??0CBarItem@CGfxOutBarCtrl@@QAE@PBDHK@Z		; CGfxOutBarCtrl::CBarItem::CBarItem
PUBLIC	??1CBarItem@CGfxOutBarCtrl@@UAE@XZ		; CGfxOutBarCtrl::CBarItem::~CBarItem
PUBLIC	??_GCBarItem@CGfxOutBarCtrl@@UAEPAXI@Z		; CGfxOutBarCtrl::CBarItem::`scalar deleting destructor'
PUBLIC	??0CBarFolder@CGfxOutBarCtrl@@QAE@PBDK@Z	; CGfxOutBarCtrl::CBarFolder::CBarFolder
PUBLIC	??1CBarFolder@CGfxOutBarCtrl@@UAE@XZ		; CGfxOutBarCtrl::CBarFolder::~CBarFolder
PUBLIC	?CleanUp@CBarFolder@CGfxOutBarCtrl@@QAEXXZ	; CGfxOutBarCtrl::CBarFolder::CleanUp
PUBLIC	?GetItemCount@CBarFolder@CGfxOutBarCtrl@@QAEHXZ	; CGfxOutBarCtrl::CBarFolder::GetItemCount
PUBLIC	?InsertItem@CBarFolder@CGfxOutBarCtrl@@QAEHHPBDHK@Z ; CGfxOutBarCtrl::CBarFolder::InsertItem
PUBLIC	??_GCBarFolder@CGfxOutBarCtrl@@UAEPAXI@Z	; CGfxOutBarCtrl::CBarFolder::`scalar deleting destructor'
PUBLIC	?DeleteAllFolder@CGfxOutBarCtrl@@QAEXXZ		; CGfxOutBarCtrl::DeleteAllFolder
PUBLIC	?SetBackColor@CGfxOutBarCtrl@@QAEXHKKKK@Z	; CGfxOutBarCtrl::SetBackColor
PUBLIC	?DrawAnimItem@CGfxOutBarCtrl@@QAEXHHH@Z		; CGfxOutBarCtrl::DrawAnimItem
PUBLIC	?SetAnimSelHighlight@CGfxOutBarCtrl@@QAEXH@Z	; CGfxOutBarCtrl::SetAnimSelHighlight
PUBLIC	?GetFolderData@CGfxOutBarCtrl@@QAEKH@Z		; CGfxOutBarCtrl::GetFolderData
PUBLIC	?GetFolderChild@CGfxOutBarCtrl@@QAEPAVCWnd@@H@Z	; CGfxOutBarCtrl::GetFolderChild
PUBLIC	?AddFolderBar@CGfxOutBarCtrl@@QAEHPBDPAVCWnd@@K@Z ; CGfxOutBarCtrl::AddFolderBar
PUBLIC	?GetItemText@CGfxOutBarCtrl@@QAE?AV?$CStringT@DV?$StrTraitMFC_DLL@DV?$ChTraitsCRT@D@ATL@@@@@ATL@@H@Z ; CGfxOutBarCtrl::GetItemText
PUBLIC	?AnimateFolderScroll@CGfxOutBarCtrl@@QAEXHH@Z	; CGfxOutBarCtrl::AnimateFolderScroll
PUBLIC	?GetDragItemRect@CGfxOutBarCtrl@@QAEHHAAVCRect@@@Z ; CGfxOutBarCtrl::GetDragItemRect
PUBLIC	?DrawDragArrow@CGfxOutBarCtrl@@QAEXPAVCDC@@HH@Z	; CGfxOutBarCtrl::DrawDragArrow
PUBLIC	?SetItemImage@CGfxOutBarCtrl@@QAEXHH@Z		; CGfxOutBarCtrl::SetItemImage
PUBLIC	?SetItemData@CGfxOutBarCtrl@@QAEXHK@Z		; CGfxOutBarCtrl::SetItemData
PUBLIC	?GetItemImage@CGfxOutBarCtrl@@QBEHH@Z		; CGfxOutBarCtrl::GetItemImage
PUBLIC	?GetItemData@CGfxOutBarCtrl@@QBEKH@Z		; CGfxOutBarCtrl::GetItemData
PUBLIC	?IsValidItem@CGfxOutBarCtrl@@QBE_NH@Z		; CGfxOutBarCtrl::IsValidItem
PUBLIC	?RemoveItem@CGfxOutBarCtrl@@QAEXH@Z		; CGfxOutBarCtrl::RemoveItem
PUBLIC	?SetItemText@CGfxOutBarCtrl@@QAEXHPBD@Z		; CGfxOutBarCtrl::SetItemText
PUBLIC	?SetFolderText@CGfxOutBarCtrl@@QAEXHPBD@Z	; CGfxOutBarCtrl::SetFolderText
PUBLIC	?GetLabelRect@CGfxOutBarCtrl@@QAEXHHAAVCRect@@@Z ; CGfxOutBarCtrl::GetLabelRect
PUBLIC	?GetIconRect@CGfxOutBarCtrl@@QAEXHHAAVCRect@@@Z	; CGfxOutBarCtrl::GetIconRect
PUBLIC	?HighlightItem@CGfxOutBarCtrl@@QAEXH_N@Z	; CGfxOutBarCtrl::HighlightItem
PUBLIC	?GetVisibleRange@CGfxOutBarCtrl@@QAEXHAAH0@Z	; CGfxOutBarCtrl::GetVisibleRange
PUBLIC	?DrawItem@CGfxOutBarCtrl@@QAEXPAVCDC@@HVCRect@@H_N@Z ; CGfxOutBarCtrl::DrawItem
PUBLIC	?GetFolderImageList@CGfxOutBarCtrl@@QBEPAVCImageList@@H_N@Z ; CGfxOutBarCtrl::GetFolderImageList
PUBLIC	?GetItemSize@CGfxOutBarCtrl@@QAE?AVCSize@@HHH@Z	; CGfxOutBarCtrl::GetItemSize
PUBLIC	?PaintItems@CGfxOutBarCtrl@@QAEXPAVCDC@@HVCRect@@@Z ; CGfxOutBarCtrl::PaintItems
PUBLIC	?GetImageList@CGfxOutBarCtrl@@QAEPAVCImageList@@PAV2@H@Z ; CGfxOutBarCtrl::GetImageList
PUBLIC	?SetFolderImageList@CGfxOutBarCtrl@@QAEPAVCImageList@@HPAV2@H@Z ; CGfxOutBarCtrl::SetFolderImageList
PUBLIC	?SetImageList@CGfxOutBarCtrl@@QAEPAVCImageList@@PAV2@H@Z ; CGfxOutBarCtrl::SetImageList
PUBLIC	?GetCountPerPage@CGfxOutBarCtrl@@QBEHXZ		; CGfxOutBarCtrl::GetCountPerPage
PUBLIC	?RemoveFolder@CGfxOutBarCtrl@@QAEXH@Z		; CGfxOutBarCtrl::RemoveFolder
PUBLIC	?GetSelFolder@CGfxOutBarCtrl@@QBEHXZ		; CGfxOutBarCtrl::GetSelFolder
PUBLIC	?GetFolderCount@CGfxOutBarCtrl@@QBEHXZ		; CGfxOutBarCtrl::GetFolderCount
PUBLIC	?SetSelFolder@CGfxOutBarCtrl@@QAEXH@Z		; CGfxOutBarCtrl::SetSelFolder
PUBLIC	?GetItemCount@CGfxOutBarCtrl@@QBEHXZ		; CGfxOutBarCtrl::GetItemCount
PUBLIC	?InsertItem@CGfxOutBarCtrl@@QAEHHHPBDHK@Z	; CGfxOutBarCtrl::InsertItem
PUBLIC	?HighlightFolder@CGfxOutBarCtrl@@QAEXH@Z	; CGfxOutBarCtrl::HighlightFolder
PUBLIC	?HitTestEx@CGfxOutBarCtrl@@QAEHABVCPoint@@AAH@Z	; CGfxOutBarCtrl::HitTestEx
PUBLIC	?GetInsideRect@CGfxOutBarCtrl@@QBEXAAVCRect@@@Z	; CGfxOutBarCtrl::GetInsideRect
PUBLIC	?AddFolder@CGfxOutBarCtrl@@QAEHPBDK@Z		; CGfxOutBarCtrl::AddFolder
PUBLIC	?GetItemRect@CGfxOutBarCtrl@@QAEXHHAAVCRect@@@Z	; CGfxOutBarCtrl::GetItemRect
PUBLIC	?GetFolderRect@CGfxOutBarCtrl@@QBE_NHAAVCRect@@@Z ; CGfxOutBarCtrl::GetFolderRect
PUBLIC	?ModifyFlag@CGfxOutBarCtrl@@QAEXABK0I@Z		; CGfxOutBarCtrl::ModifyFlag
PUBLIC	?GetFlag@CGfxOutBarCtrl@@QBEKXZ			; CGfxOutBarCtrl::GetFlag
PUBLIC	?SetSmallIconView@CGfxOutBarCtrl@@QAEX_N@Z	; CGfxOutBarCtrl::SetSmallIconView
PUBLIC	?IsSmallIconView@CGfxOutBarCtrl@@QBE_NXZ	; CGfxOutBarCtrl::IsSmallIconView
PUBLIC	?Create@CGfxOutBarCtrl@@QAEHKABUtagRECT@@PAVCWnd@@IK@Z ; CGfxOutBarCtrl::Create
PUBLIC	??1CGfxOutBarCtrl@@UAE@XZ			; CGfxOutBarCtrl::~CGfxOutBarCtrl
PUBLIC	?SetFolderImageList@CGfxOutBarCtrl@@QAEXPAVCImageList@@HHH@Z ; CGfxOutBarCtrl::SetFolderImageList
PUBLIC	?DrawFolder@CGfxOutBarCtrl@@IAEXPAVCDC@@HVCRect@@_N@Z ; CGfxOutBarCtrl::DrawFolder
PUBLIC	?OnCreate@CGfxOutBarCtrl@@IAEHPAUtagCREATESTRUCTA@@@Z ; CGfxOutBarCtrl::OnCreate
PUBLIC	?OnTimer@CGfxOutBarCtrl@@IAEXI@Z		; CGfxOutBarCtrl::OnTimer
PUBLIC	?OnPaint@CGfxOutBarCtrl@@IAEXXZ			; CGfxOutBarCtrl::OnPaint
PUBLIC	?OnEraseBkgnd@CGfxOutBarCtrl@@IAEHPAVCDC@@@Z	; CGfxOutBarCtrl::OnEraseBkgnd
PUBLIC	?OnMouseMove@CGfxOutBarCtrl@@IAEXIVCPoint@@@Z	; CGfxOutBarCtrl::OnMouseMove
PUBLIC	?OnLButtonDown@CGfxOutBarCtrl@@IAEXIVCPoint@@@Z	; CGfxOutBarCtrl::OnLButtonDown
PUBLIC	?OnSetCursor@CGfxOutBarCtrl@@IAEHPAVCWnd@@II@Z	; CGfxOutBarCtrl::OnSetCursor
PUBLIC	?OnSize@CGfxOutBarCtrl@@IAEXIHH@Z		; CGfxOutBarCtrl::OnSize
PUBLIC	?OnGfxLargeicon@CGfxOutBarCtrl@@IAEXXZ		; CGfxOutBarCtrl::OnGfxLargeicon
PUBLIC	?OnUpdateGfxLargeicon@CGfxOutBarCtrl@@IAEXPAVCCmdUI@@@Z ; CGfxOutBarCtrl::OnUpdateGfxLargeicon
PUBLIC	?OnGfxSmallicon@CGfxOutBarCtrl@@IAEXXZ		; CGfxOutBarCtrl::OnGfxSmallicon
PUBLIC	?OnUpdateGfxSmallicon@CGfxOutBarCtrl@@IAEXPAVCCmdUI@@@Z ; CGfxOutBarCtrl::OnUpdateGfxSmallicon
PUBLIC	?OnGfxRemoveitem@CGfxOutBarCtrl@@IAEXXZ		; CGfxOutBarCtrl::OnGfxRemoveitem
PUBLIC	?OnUpdateGfxRemoveitem@CGfxOutBarCtrl@@IAEXPAVCCmdUI@@@Z ; CGfxOutBarCtrl::OnUpdateGfxRemoveitem
PUBLIC	?OnUpdateGfxRenameitem@CGfxOutBarCtrl@@IAEXPAVCCmdUI@@@Z ; CGfxOutBarCtrl::OnUpdateGfxRenameitem
PUBLIC	?OnDestroy@CGfxOutBarCtrl@@IAEXXZ		; CGfxOutBarCtrl::OnDestroy
PUBLIC	?OnLButtonDblClk@CGfxOutBarCtrl@@IAEXIVCPoint@@@Z ; CGfxOutBarCtrl::OnLButtonDblClk
PUBLIC	?GetThisMessageMap@CGfxOutBarCtrl@@KGPBUAFX_MSGMAP@@XZ ; CGfxOutBarCtrl::GetThisMessageMap
PUBLIC	?GetMessageMap@CGfxOutBarCtrl@@MBEPBUAFX_MSGMAP@@XZ ; CGfxOutBarCtrl::GetMessageMap
PUBLIC	??_GCGfxOutBarCtrl@@UAEPAXI@Z			; CGfxOutBarCtrl::`scalar deleting destructor'
PUBLIC	??_R0PAVCException@@@8				; CException * `RTTI Type Descriptor'
PUBLIC	??_7CGdiObject@@6B@				; CGdiObject::`vftable'
PUBLIC	??_7CPen@@6B@					; CPen::`vftable'
PUBLIC	??_7CFont@@6B@					; CFont::`vftable'
PUBLIC	??_7CBitmap@@6B@				; CBitmap::`vftable'
PUBLIC	??_7CRgn@@6B@					; CRgn::`vftable'
PUBLIC	??_C@_0HD@JJCHHHNK@C?3?2Program?5Files?5?$CIx86?$CJ?2Microsof@ ; `string'
PUBLIC	??_C@_0BP@OIEOKIDM@Exception?5thrown?5in?5destructor@ ; `string'
PUBLIC	??_C@_0BB@HBOOMJBF@?$CFTs?5?$CI?$CFTs?3?$CFd?$CJ?6?$CFTs@ ; `string'
PUBLIC	??_C@_0N@OMEMOKLE@?$CFTs?5?$CI?$CFTs?3?$CFd?$CJ@ ; `string'
PUBLIC	??_R0?AVCObject@@@8				; CObject `RTTI Type Descriptor'
PUBLIC	??_R3CObject@@8					; CObject::`RTTI Class Hierarchy Descriptor'
PUBLIC	??_R2CObject@@8					; CObject::`RTTI Base Class Array'
PUBLIC	??_R1A@?0A@EA@CObject@@8			; CObject::`RTTI Base Class Descriptor at (0,-1,0,64)'
PUBLIC	??_R4CGdiObject@@6B@				; CGdiObject::`RTTI Complete Object Locator'
PUBLIC	??_R0?AVCGdiObject@@@8				; CGdiObject `RTTI Type Descriptor'
PUBLIC	??_R3CGdiObject@@8				; CGdiObject::`RTTI Class Hierarchy Descriptor'
PUBLIC	??_R2CGdiObject@@8				; CGdiObject::`RTTI Base Class Array'
PUBLIC	??_R1A@?0A@EA@CGdiObject@@8			; CGdiObject::`RTTI Base Class Descriptor at (0,-1,0,64)'
PUBLIC	??_R4CPen@@6B@					; CPen::`RTTI Complete Object Locator'
PUBLIC	??_R0?AVCPen@@@8				; CPen `RTTI Type Descriptor'
PUBLIC	??_R3CPen@@8					; CPen::`RTTI Class Hierarchy Descriptor'
PUBLIC	??_R2CPen@@8					; CPen::`RTTI Base Class Array'
PUBLIC	??_R1A@?0A@EA@CPen@@8				; CPen::`RTTI Base Class Descriptor at (0,-1,0,64)'
PUBLIC	??_R4CFont@@6B@					; CFont::`RTTI Complete Object Locator'
PUBLIC	??_R0?AVCFont@@@8				; CFont `RTTI Type Descriptor'
PUBLIC	??_R3CFont@@8					; CFont::`RTTI Class Hierarchy Descriptor'
PUBLIC	??_R2CFont@@8					; CFont::`RTTI Base Class Array'
PUBLIC	??_R1A@?0A@EA@CFont@@8				; CFont::`RTTI Base Class Descriptor at (0,-1,0,64)'
PUBLIC	??_R4CBitmap@@6B@				; CBitmap::`RTTI Complete Object Locator'
PUBLIC	??_R0?AVCBitmap@@@8				; CBitmap `RTTI Type Descriptor'
PUBLIC	??_R3CBitmap@@8					; CBitmap::`RTTI Class Hierarchy Descriptor'
PUBLIC	??_R2CBitmap@@8					; CBitmap::`RTTI Base Class Array'
PUBLIC	??_R1A@?0A@EA@CBitmap@@8			; CBitmap::`RTTI Base Class Descriptor at (0,-1,0,64)'
PUBLIC	??_R4CRgn@@6B@					; CRgn::`RTTI Complete Object Locator'
PUBLIC	??_R0?AVCRgn@@@8				; CRgn `RTTI Type Descriptor'
PUBLIC	??_R3CRgn@@8					; CRgn::`RTTI Class Hierarchy Descriptor'
PUBLIC	??_R2CRgn@@8					; CRgn::`RTTI Base Class Array'
PUBLIC	??_R1A@?0A@EA@CRgn@@8				; CRgn::`RTTI Base Class Descriptor at (0,-1,0,64)'
PUBLIC	??_R1A@?0A@EA@CWnd@@8				; CWnd::`RTTI Base Class Descriptor at (0,-1,0,64)'
PUBLIC	??_R0?AVCWnd@@@8				; CWnd `RTTI Type Descriptor'
PUBLIC	??_R3CWnd@@8					; CWnd::`RTTI Class Hierarchy Descriptor'
PUBLIC	??_R2CWnd@@8					; CWnd::`RTTI Base Class Array'
PUBLIC	??_R1A@?0A@EA@CCmdTarget@@8			; CCmdTarget::`RTTI Base Class Descriptor at (0,-1,0,64)'
PUBLIC	??_R0?AVCCmdTarget@@@8				; CCmdTarget `RTTI Type Descriptor'
PUBLIC	??_R3CCmdTarget@@8				; CCmdTarget::`RTTI Class Hierarchy Descriptor'
PUBLIC	??_R2CCmdTarget@@8				; CCmdTarget::`RTTI Base Class Array'
PUBLIC	?classCGfxOutBarCtrl@CGfxOutBarCtrl@@2UCRuntimeClass@@B ; CGfxOutBarCtrl::classCGfxOutBarCtrl
PUBLIC	??_7CBarItem@CGfxOutBarCtrl@@6B@		; CGfxOutBarCtrl::CBarItem::`vftable'
PUBLIC	??_7CBarFolder@CGfxOutBarCtrl@@6B@		; CGfxOutBarCtrl::CBarFolder::`vftable'
PUBLIC	??_7CGfxOutBarCtrl@@6B@				; CGfxOutBarCtrl::`vftable'
PUBLIC	??_C@_0P@MGLBNAEE@CGfxOutBarCtrl@		; `string'
PUBLIC	??_C@_06MFMMLLPC@?$LB?$LM?$LI?$LC?C?$LM@	; `string'
PUBLIC	??_R4CGfxOutBarCtrl@@6B@			; CGfxOutBarCtrl::`RTTI Complete Object Locator'
PUBLIC	??_R0?AVCGfxOutBarCtrl@@@8			; CGfxOutBarCtrl `RTTI Type Descriptor'
PUBLIC	??_R3CGfxOutBarCtrl@@8				; CGfxOutBarCtrl::`RTTI Class Hierarchy Descriptor'
PUBLIC	??_R2CGfxOutBarCtrl@@8				; CGfxOutBarCtrl::`RTTI Base Class Array'
PUBLIC	??_R1A@?0A@EA@CGfxOutBarCtrl@@8			; CGfxOutBarCtrl::`RTTI Base Class Descriptor at (0,-1,0,64)'
PUBLIC	??_R4CBarItem@CGfxOutBarCtrl@@6B@		; CGfxOutBarCtrl::CBarItem::`RTTI Complete Object Locator'
PUBLIC	??_R0?AVCBarItem@CGfxOutBarCtrl@@@8		; CGfxOutBarCtrl::CBarItem `RTTI Type Descriptor'
PUBLIC	??_R3CBarItem@CGfxOutBarCtrl@@8			; CGfxOutBarCtrl::CBarItem::`RTTI Class Hierarchy Descriptor'
PUBLIC	??_R2CBarItem@CGfxOutBarCtrl@@8			; CGfxOutBarCtrl::CBarItem::`RTTI Base Class Array'
PUBLIC	??_R1A@?0A@EA@CBarItem@CGfxOutBarCtrl@@8	; CGfxOutBarCtrl::CBarItem::`RTTI Base Class Descriptor at (0,-1,0,64)'
PUBLIC	??_R4CBarFolder@CGfxOutBarCtrl@@6B@		; CGfxOutBarCtrl::CBarFolder::`RTTI Complete Object Locator'
PUBLIC	??_R0?AVCBarFolder@CGfxOutBarCtrl@@@8		; CGfxOutBarCtrl::CBarFolder `RTTI Type Descriptor'
PUBLIC	??_R3CBarFolder@CGfxOutBarCtrl@@8		; CGfxOutBarCtrl::CBarFolder::`RTTI Class Hierarchy Descriptor'
PUBLIC	??_R2CBarFolder@CGfxOutBarCtrl@@8		; CGfxOutBarCtrl::CBarFolder::`RTTI Base Class Array'
PUBLIC	??_R1A@?0A@EA@CBarFolder@CGfxOutBarCtrl@@8	; CGfxOutBarCtrl::CBarFolder::`RTTI Base Class Descriptor at (0,-1,0,64)'
PUBLIC	__xmm@00000190000000000000000000000000
EXTRN	??2@YAPAXI@Z:PROC				; operator new
EXTRN	??3@YAXPAX@Z:PROC				; operator delete
EXTRN	??3@YAXPAXI@Z:PROC				; operator delete
EXTRN	?__global_delete@@YAXPAXI@Z:PROC		; __global_delete
EXTRN	??_U@YAPAXI@Z:PROC				; operator new[]
EXTRN	??_V@YAXPAX@Z:PROC				; operator delete[]
EXTRN	___std_terminate:PROC
EXTRN	__imp__Sleep@4:PROC
EXTRN	__imp__lstrcpyA@8:PROC
EXTRN	__imp__lstrlenA@4:PROC
EXTRN	__imp__BitBlt@36:PROC
EXTRN	__imp__CreateCompatibleBitmap@12:PROC
EXTRN	__imp__CreateCompatibleDC@4:PROC
EXTRN	__imp__CreateFontIndirectA@4:PROC
EXTRN	__imp__CreateRectRgnIndirect@4:PROC
EXTRN	__imp__GetTextExtentPoint32A@16:PROC
EXTRN	__imp__GetObjectA@12:PROC
EXTRN	__imp__DrawFrameControl@16:PROC
EXTRN	__imp__GetMessageA@16:PROC
EXTRN	__imp__DispatchMessageA@4:PROC
EXTRN	__imp__GetMessagePos@0:PROC
EXTRN	__imp__SendMessageA@16:PROC
EXTRN	__imp__IsChild@8:PROC
EXTRN	__imp__GetFocus@0:PROC
EXTRN	__imp__GetCapture@0:PROC
EXTRN	__imp__SetCapture@4:PROC
EXTRN	__imp__ReleaseCapture@0:PROC
EXTRN	__imp__SetTimer@16:PROC
EXTRN	__imp__KillTimer@8:PROC
EXTRN	__imp__EnableWindow@8:PROC
EXTRN	__imp__GetSystemMetrics@4:PROC
EXTRN	__imp__DrawTextA@20:PROC
EXTRN	__imp__UpdateWindow@4:PROC
EXTRN	__imp__InvalidateRect@12:PROC
EXTRN	__imp__GetClientRect@8:PROC
EXTRN	__imp__SetCursor@4:PROC
EXTRN	__imp__GetCursor@0:PROC
EXTRN	__imp__ScreenToClient@8:PROC
EXTRN	__imp__GetSysColor@4:PROC
EXTRN	__imp__SetRect@20:PROC
EXTRN	__imp__CopyRect@8:PROC
EXTRN	__imp__InflateRect@12:PROC
EXTRN	__imp__OffsetRect@12:PROC
EXTRN	__imp__PtInRect@12:PROC
EXTRN	__imp__GetParent@4:PROC
EXTRN	__imp__LoadCursorW@8:PROC
EXTRN	__imp__ImageList_Draw@24:PROC
EXTRN	__imp__ImageList_GetImageInfo@12:PROC
EXTRN	?AfxThrowInvalidArgException@@YGXXZ:PROC	; AfxThrowInvalidArgException
EXTRN	__imp_??0?$CStringT@DV?$StrTraitMFC_DLL@DV?$ChTraitsCRT@D@ATL@@@@@ATL@@QAE@XZ:PROC
EXTRN	__imp_??0?$CStringT@DV?$StrTraitMFC_DLL@DV?$ChTraitsCRT@D@ATL@@@@@ATL@@QAE@PBD@Z:PROC
EXTRN	__imp_??1?$CStringT@DV?$StrTraitMFC_DLL@DV?$ChTraitsCRT@D@ATL@@@@@ATL@@QAE@XZ:PROC
EXTRN	__imp_??4?$CStringT@DV?$StrTraitMFC_DLL@DV?$ChTraitsCRT@D@ATL@@@@@ATL@@QAEAAV01@PBD@Z:PROC
EXTRN	__imp_?Format@?$CStringT@DV?$StrTraitMFC_DLL@DV?$ChTraitsCRT@D@ATL@@@@@ATL@@QAAXPBDZZ:PROC
EXTRN	??0CPtrArray@@QAE@XZ:PROC			; CPtrArray::CPtrArray
EXTRN	?SetSize@CPtrArray@@QAEXHH@Z:PROC		; CPtrArray::SetSize
EXTRN	?SetAtGrow@CPtrArray@@QAEXHPAX@Z:PROC		; CPtrArray::SetAtGrow
EXTRN	?InsertAt@CPtrArray@@QAEXHPAXH@Z:PROC		; CPtrArray::InsertAt
EXTRN	?RemoveAt@CPtrArray@@QAEXHH@Z:PROC		; CPtrArray::RemoveAt
EXTRN	??1CPtrArray@@UAE@XZ:PROC			; CPtrArray::~CPtrArray
EXTRN	?AfxGetModuleState@@YGPAVAFX_MODULE_STATE@@XZ:PROC ; AfxGetModuleState
EXTRN	?GetRuntimeClass@CGdiObject@@UBEPAUCRuntimeClass@@XZ:PROC ; CGdiObject::GetRuntimeClass
EXTRN	?Attach@CGdiObject@@QAEHPAX@Z:PROC		; CGdiObject::Attach
EXTRN	?DeleteObject@CGdiObject@@QAEHXZ:PROC		; CGdiObject::DeleteObject
EXTRN	??_ECGdiObject@@UAEPAXI@Z:PROC			; CGdiObject::`vector deleting destructor'
EXTRN	?GetRuntimeClass@CPen@@UBEPAUCRuntimeClass@@XZ:PROC ; CPen::GetRuntimeClass
EXTRN	??0CPen@@QAE@HHK@Z:PROC				; CPen::CPen
EXTRN	??_ECPen@@UAEPAXI@Z:PROC			; CPen::`vector deleting destructor'
EXTRN	?GetRuntimeClass@CFont@@UBEPAUCRuntimeClass@@XZ:PROC ; CFont::GetRuntimeClass
EXTRN	??_ECFont@@UAEPAXI@Z:PROC			; CFont::`vector deleting destructor'
EXTRN	?GetRuntimeClass@CBitmap@@UBEPAUCRuntimeClass@@XZ:PROC ; CBitmap::GetRuntimeClass
EXTRN	??_ECBitmap@@UAEPAXI@Z:PROC			; CBitmap::`vector deleting destructor'
EXTRN	?GetRuntimeClass@CRgn@@UBEPAUCRuntimeClass@@XZ:PROC ; CRgn::GetRuntimeClass
EXTRN	??_ECRgn@@UAEPAXI@Z:PROC			; CRgn::`vector deleting destructor'
EXTRN	?Attach@CDC@@QAEHPAUHDC__@@@Z:PROC		; CDC::Attach
EXTRN	??0CDC@@QAE@XZ:PROC				; CDC::CDC
EXTRN	?SaveDC@CDC@@UAEHXZ:PROC			; CDC::SaveDC
EXTRN	?RestoreDC@CDC@@UAEHH@Z:PROC			; CDC::RestoreDC
EXTRN	?SelectObject@CDC@@QAEPAVCPen@@PAV2@@Z:PROC	; CDC::SelectObject
EXTRN	?SelectObject@CDC@@UAEPAVCFont@@PAV2@@Z:PROC	; CDC::SelectObject
EXTRN	?SetBkMode@CDC@@QAEHH@Z:PROC			; CDC::SetBkMode
EXTRN	?SetTextColor@CDC@@UAEKK@Z:PROC			; CDC::SetTextColor
EXTRN	?SelectClipRgn@CDC@@QAEHPAVCRgn@@@Z:PROC	; CDC::SelectClipRgn
EXTRN	?ExcludeClipRect@CDC@@QAEHPBUtagRECT@@@Z:PROC	; CDC::ExcludeClipRect
EXTRN	?MoveTo@CDC@@QAE?AVCPoint@@HH@Z:PROC		; CDC::MoveTo
EXTRN	?LineTo@CDC@@QAEHHH@Z:PROC			; CDC::LineTo
EXTRN	?FillSolidRect@CDC@@QAEXPBUtagRECT@@K@Z:PROC	; CDC::FillSolidRect
EXTRN	?Draw3dRect@CDC@@QAEXPBUtagRECT@@KK@Z:PROC	; CDC::Draw3dRect
EXTRN	??1CDC@@UAE@XZ:PROC				; CDC::~CDC
EXTRN	?SelectGdiObject@CDC@@KGPAVCGdiObject@@PAUHDC__@@PAX@Z:PROC ; CDC::SelectGdiObject
EXTRN	??0CPaintDC@@QAE@PAVCWnd@@@Z:PROC		; CPaintDC::CPaintDC
EXTRN	??1CPaintDC@@UAE@XZ:PROC			; CPaintDC::~CPaintDC
EXTRN	??0CClientDC@@QAE@PAVCWnd@@@Z:PROC		; CClientDC::CClientDC
EXTRN	??1CClientDC@@UAE@XZ:PROC			; CClientDC::~CClientDC
EXTRN	?OnCmdMsg@CCmdTarget@@UAEHIHPAXPAUAFX_CMDHANDLERINFO@@@Z:PROC ; CCmdTarget::OnCmdMsg
EXTRN	?IsInvokeAllowed@CCmdTarget@@UAEHJ@Z:PROC	; CCmdTarget::IsInvokeAllowed
EXTRN	?GetDispatchIID@CCmdTarget@@UAEHPAU_GUID@@@Z:PROC ; CCmdTarget::GetDispatchIID
EXTRN	?GetTypeInfoCount@CCmdTarget@@UAEIXZ:PROC	; CCmdTarget::GetTypeInfoCount
EXTRN	?GetTypeLibCache@CCmdTarget@@UAEPAVCTypeLibCache@@XZ:PROC ; CCmdTarget::GetTypeLibCache
EXTRN	?GetTypeLib@CCmdTarget@@UAEJKPAPAUITypeLib@@@Z:PROC ; CCmdTarget::GetTypeLib
EXTRN	?GetCommandMap@CCmdTarget@@MBEPBUAFX_OLECMDMAP@@XZ:PROC ; CCmdTarget::GetCommandMap
EXTRN	?GetDispatchMap@CCmdTarget@@MBEPBUAFX_DISPMAP@@XZ:PROC ; CCmdTarget::GetDispatchMap
EXTRN	?GetConnectionMap@CCmdTarget@@MBEPBUAFX_CONNECTIONMAP@@XZ:PROC ; CCmdTarget::GetConnectionMap
EXTRN	?GetEventSinkMap@CCmdTarget@@MBEPBUAFX_EVENTSINKMAP@@XZ:PROC ; CCmdTarget::GetEventSinkMap
EXTRN	?OnCreateAggregates@CCmdTarget@@UAEHXZ:PROC	; CCmdTarget::OnCreateAggregates
EXTRN	?GetInterfaceHook@CCmdTarget@@UAEPAUIUnknown@@PBX@Z:PROC ; CCmdTarget::GetInterfaceHook
EXTRN	?GetExtraConnectionPoints@CCmdTarget@@MAEHPAVCPtrArray@@@Z:PROC ; CCmdTarget::GetExtraConnectionPoints
EXTRN	?GetConnectionHook@CCmdTarget@@MAEPAUIConnectionPoint@@ABU_GUID@@@Z:PROC ; CCmdTarget::GetConnectionHook
EXTRN	?GetThisClass@CWnd@@SGPAUCRuntimeClass@@XZ:PROC	; CWnd::GetThisClass
EXTRN	?ModifyStyleEx@CWnd@@QAEHKKI@Z:PROC		; CWnd::ModifyStyleEx
EXTRN	??0CWnd@@QAE@XZ:PROC				; CWnd::CWnd
EXTRN	?FromHandle@CWnd@@SGPAV1@PAUHWND__@@@Z:PROC	; CWnd::FromHandle
EXTRN	?PreSubclassWindow@CWnd@@UAEXXZ:PROC		; CWnd::PreSubclassWindow
EXTRN	?Create@CWnd@@UAEHPBD0KABUtagRECT@@PAV1@IPAUCCreateContext@@@Z:PROC ; CWnd::Create
EXTRN	?CreateEx@CWnd@@UAEHKPBD0KHHHHPAUHWND__@@PAUHMENU__@@PAX@Z:PROC ; CWnd::CreateEx
EXTRN	?CreateEx@CWnd@@UAEHKPBD0KABUtagRECT@@PAV1@IPAX@Z:PROC ; CWnd::CreateEx
EXTRN	?DestroyWindow@CWnd@@UAEHXZ:PROC		; CWnd::DestroyWindow
EXTRN	?PreCreateWindow@CWnd@@UAEHAAUtagCREATESTRUCTA@@@Z:PROC ; CWnd::PreCreateWindow
EXTRN	?CalcWindowRect@CWnd@@UAEXPAUtagRECT@@I@Z:PROC	; CWnd::CalcWindowRect
EXTRN	?GetMenu@CWnd@@UBEPAVCMenu@@XZ:PROC		; CWnd::GetMenu
EXTRN	?SetMenu@CWnd@@UAEHPAVCMenu@@@Z:PROC		; CWnd::SetMenu
EXTRN	?MoveWindow@CWnd@@QAEXHHHHH@Z:PROC		; CWnd::MoveWindow
EXTRN	?SetWindowPos@CWnd@@QAEHPBV1@HHHHI@Z:PROC	; CWnd::SetWindowPos
EXTRN	?ShowWindow@CWnd@@QAEHH@Z:PROC			; CWnd::ShowWindow
EXTRN	?OnToolHitTest@CWnd@@UBEHVCPoint@@PAUtagTOOLINFOA@@@Z:PROC ; CWnd::OnToolHitTest
EXTRN	?SetFocus@CWnd@@QAEPAV1@XZ:PROC			; CWnd::SetFocus
EXTRN	?GetScrollBarCtrl@CWnd@@UBEPAVCScrollBar@@H@Z:PROC ; CWnd::GetScrollBarCtrl
EXTRN	?WinHelpA@CWnd@@UAEXKI@Z:PROC			; CWnd::WinHelpA
EXTRN	?HtmlHelpA@CWnd@@UAEXKI@Z:PROC			; CWnd::HtmlHelpA
EXTRN	?WinHelpInternal@CWnd@@UAEXKI@Z:PROC		; CWnd::WinHelpInternal
EXTRN	?ContinueModal@CWnd@@UAEHXZ:PROC		; CWnd::ContinueModal
EXTRN	?EndModalLoop@CWnd@@UAEXH@Z:PROC		; CWnd::EndModalLoop
EXTRN	?OnDrawIconicThumbnailOrLivePreview@CWnd@@UAEXAAVCDC@@VCRect@@VCSize@@HAAH@Z:PROC ; CWnd::OnDrawIconicThumbnailOrLivePreview
EXTRN	?GetInterfaceMap@CWnd@@MBEPBUAFX_INTERFACEMAP@@XZ:PROC ; CWnd::GetInterfaceMap
EXTRN	?EnsureStdObj@CWnd@@UAEJXZ:PROC			; CWnd::EnsureStdObj
EXTRN	?get_accParent@CWnd@@UAEJPAPAUIDispatch@@@Z:PROC ; CWnd::get_accParent
EXTRN	?get_accChildCount@CWnd@@UAEJPAJ@Z:PROC		; CWnd::get_accChildCount
EXTRN	?get_accChild@CWnd@@UAEJUtagVARIANT@@PAPAUIDispatch@@@Z:PROC ; CWnd::get_accChild
EXTRN	?get_accName@CWnd@@UAEJUtagVARIANT@@PAPA_W@Z:PROC ; CWnd::get_accName
EXTRN	?get_accValue@CWnd@@UAEJUtagVARIANT@@PAPA_W@Z:PROC ; CWnd::get_accValue
EXTRN	?get_accDescription@CWnd@@UAEJUtagVARIANT@@PAPA_W@Z:PROC ; CWnd::get_accDescription
EXTRN	?get_accRole@CWnd@@UAEJUtagVARIANT@@PAU2@@Z:PROC ; CWnd::get_accRole
EXTRN	?get_accState@CWnd@@UAEJUtagVARIANT@@PAU2@@Z:PROC ; CWnd::get_accState
EXTRN	?get_accHelp@CWnd@@UAEJUtagVARIANT@@PAPA_W@Z:PROC ; CWnd::get_accHelp
EXTRN	?get_accHelpTopic@CWnd@@UAEJPAPA_WUtagVARIANT@@PAJ@Z:PROC ; CWnd::get_accHelpTopic
EXTRN	?get_accKeyboardShortcut@CWnd@@UAEJUtagVARIANT@@PAPA_W@Z:PROC ; CWnd::get_accKeyboardShortcut
EXTRN	?get_accFocus@CWnd@@UAEJPAUtagVARIANT@@@Z:PROC	; CWnd::get_accFocus
EXTRN	?get_accSelection@CWnd@@UAEJPAUtagVARIANT@@@Z:PROC ; CWnd::get_accSelection
EXTRN	?get_accDefaultAction@CWnd@@UAEJUtagVARIANT@@PAPA_W@Z:PROC ; CWnd::get_accDefaultAction
EXTRN	?accSelect@CWnd@@UAEJJUtagVARIANT@@@Z:PROC	; CWnd::accSelect
EXTRN	?accLocation@CWnd@@UAEJPAJ000UtagVARIANT@@@Z:PROC ; CWnd::accLocation
EXTRN	?accNavigate@CWnd@@UAEJJUtagVARIANT@@PAU2@@Z:PROC ; CWnd::accNavigate
EXTRN	?accHitTest@CWnd@@UAEJJJPAUtagVARIANT@@@Z:PROC	; CWnd::accHitTest
EXTRN	?accDoDefaultAction@CWnd@@UAEJUtagVARIANT@@@Z:PROC ; CWnd::accDoDefaultAction
EXTRN	?put_accName@CWnd@@UAEJUtagVARIANT@@PA_W@Z:PROC	; CWnd::put_accName
EXTRN	?put_accValue@CWnd@@UAEJUtagVARIANT@@PA_W@Z:PROC ; CWnd::put_accValue
EXTRN	?SetProxy@CWnd@@UAEJPAUIAccessibleProxy@@@Z:PROC ; CWnd::SetProxy
EXTRN	?CreateAccessibleProxy@CWnd@@UAEJIJPAJ@Z:PROC	; CWnd::CreateAccessibleProxy
EXTRN	?OnCommand@CWnd@@MAEHIJ@Z:PROC			; CWnd::OnCommand
EXTRN	?OnNotify@CWnd@@MAEHIJPAJ@Z:PROC		; CWnd::OnNotify
EXTRN	?OnDestroy@CWnd@@IAEXXZ:PROC			; CWnd::OnDestroy
EXTRN	?GetSuperWndProcAddr@CWnd@@MAEPAP6GJPAUHWND__@@IIJ@ZXZ:PROC ; CWnd::GetSuperWndProcAddr
EXTRN	?PreTranslateMessage@CWnd@@UAEHPAUtagMSG@@@Z:PROC ; CWnd::PreTranslateMessage
EXTRN	?OnAmbientProperty@CWnd@@UAEHPAVCOleControlSite@@JPAUtagVARIANT@@@Z:PROC ; CWnd::OnAmbientProperty
EXTRN	?WindowProc@CWnd@@MAEJIIJ@Z:PROC		; CWnd::WindowProc
EXTRN	?OnWndMsg@CWnd@@MAEHIIJPAJ@Z:PROC		; CWnd::OnWndMsg
EXTRN	?Default@CWnd@@IAEJXZ:PROC			; CWnd::Default
EXTRN	?DefWindowProcA@CWnd@@MAEJIIJ@Z:PROC		; CWnd::DefWindowProcA
EXTRN	?PostNcDestroy@CWnd@@MAEXXZ:PROC		; CWnd::PostNcDestroy
EXTRN	?OnChildNotify@CWnd@@MAEHIIJPAJ@Z:PROC		; CWnd::OnChildNotify
EXTRN	?OnTouchInputs@CWnd@@MAEHIPAUtagTOUCHINPUT@@@Z:PROC ; CWnd::OnTouchInputs
EXTRN	?OnTouchInput@CWnd@@MAEHVCPoint@@HHPAUtagTOUCHINPUT@@@Z:PROC ; CWnd::OnTouchInput
EXTRN	?GetGestureStatus@CWnd@@MAEKVCPoint@@@Z:PROC	; CWnd::GetGestureStatus
EXTRN	?OnGestureZoom@CWnd@@MAEHVCPoint@@J@Z:PROC	; CWnd::OnGestureZoom
EXTRN	?OnGesturePan@CWnd@@MAEHVCPoint@@0@Z:PROC	; CWnd::OnGesturePan
EXTRN	?OnGestureRotate@CWnd@@MAEHVCPoint@@N@Z:PROC	; CWnd::OnGestureRotate
EXTRN	?OnGestureTwoFingerTap@CWnd@@MAEHVCPoint@@@Z:PROC ; CWnd::OnGestureTwoFingerTap
EXTRN	?OnGesturePressAndTap@CWnd@@MAEHVCPoint@@J@Z:PROC ; CWnd::OnGesturePressAndTap
EXTRN	?ResizeDynamicLayout@CWnd@@MAEXXZ:PROC		; CWnd::ResizeDynamicLayout
EXTRN	??1CWnd@@UAE@XZ:PROC				; CWnd::~CWnd
EXTRN	?CheckAutoCenter@CWnd@@UAEHXZ:PROC		; CWnd::CheckAutoCenter
EXTRN	?IsFrameWnd@CWnd@@UBEHXZ:PROC			; CWnd::IsFrameWnd
EXTRN	?OnFinalRelease@CWnd@@UAEXXZ:PROC		; CWnd::OnFinalRelease
EXTRN	?CreateControlContainer@CWnd@@MAEHPAPAVCOleControlContainer@@@Z:PROC ; CWnd::CreateControlContainer
EXTRN	?CreateControlSite@CWnd@@MAEHPAVCOleControlContainer@@PAPAVCOleControlSite@@IABU_GUID@@@Z:PROC ; CWnd::CreateControlSite
EXTRN	?SetOccDialogInfo@CWnd@@MAEHPAU_AFX_OCC_DIALOG_INFO@@@Z:PROC ; CWnd::SetOccDialogInfo
EXTRN	?GetOccDialogInfo@CWnd@@MAEPAU_AFX_OCC_DIALOG_INFO@@XZ:PROC ; CWnd::GetOccDialogInfo
EXTRN	?GetThisMessageMap@CWnd@@KGPBUAFX_MSGMAP@@XZ:PROC ; CWnd::GetThisMessageMap
EXTRN	?AfxFindResourceHandle@@YGPAUHINSTANCE__@@PBD0@Z:PROC ; AfxFindResourceHandle
EXTRN	?AfxMessageBox@@YGHPBDII@Z:PROC			; AfxMessageBox
EXTRN	?AfxLockTempMaps@@YGXXZ:PROC			; AfxLockTempMaps
EXTRN	?AfxUnlockTempMaps@@YGHH@Z:PROC			; AfxUnlockTempMaps
EXTRN	??_ECBarItem@CGfxOutBarCtrl@@UAEPAXI@Z:PROC	; CGfxOutBarCtrl::CBarItem::`vector deleting destructor'
EXTRN	??_ECBarFolder@CGfxOutBarCtrl@@UAEPAXI@Z:PROC	; CGfxOutBarCtrl::CBarFolder::`vector deleting destructor'
EXTRN	??_ECGfxOutBarCtrl@@UAEPAXI@Z:PROC		; CGfxOutBarCtrl::`vector deleting destructor'
EXTRN	@__security_check_cookie@4:PROC
EXTRN	___CxxFrameHandler3:PROC
EXTRN	_memset:PROC
EXTRN	??_7type_info@@6B@:QWORD			; type_info::`vftable'
EXTRN	?g_hInstance@@3PAUHINSTANCE__@@A:DWORD		; g_hInstance
EXTRN	___security_cookie:DWORD
;	COMDAT ?bOldPressed@?1??HighlightItem@CGfxOutBarCtrl@@QAEXH_N@Z@4_NA
_BSS	SEGMENT
?bOldPressed@?1??HighlightItem@CGfxOutBarCtrl@@QAEXH_N@Z@4_NA DB 01H DUP (?) ; `CGfxOutBarCtrl::HighlightItem'::`2'::bOldPressed
_BSS	ENDS
;	COMDAT __xmm@00000190000000000000000000000000
CONST	SEGMENT
__xmm@00000190000000000000000000000000 DB 00H, 00H, 00H, 00H, 00H, 00H, 00H
	DB	00H, 00H, 00H, 00H, 00H, 090H, 01H, 00H, 00H
CONST	ENDS
;	COMDAT ??_R1A@?0A@EA@CBarFolder@CGfxOutBarCtrl@@8
rdata$r	SEGMENT
??_R1A@?0A@EA@CBarFolder@CGfxOutBarCtrl@@8 DD FLAT:??_R0?AVCBarFolder@CGfxOutBarCtrl@@@8 ; CGfxOutBarCtrl::CBarFolder::`RTTI Base Class Descriptor at (0,-1,0,64)'
	DD	00H
	DD	00H
	DD	0ffffffffH
	DD	00H
	DD	040H
	DD	FLAT:??_R3CBarFolder@CGfxOutBarCtrl@@8
rdata$r	ENDS
;	COMDAT ??_R2CBarFolder@CGfxOutBarCtrl@@8
rdata$r	SEGMENT
??_R2CBarFolder@CGfxOutBarCtrl@@8 DD FLAT:??_R1A@?0A@EA@CBarFolder@CGfxOutBarCtrl@@8 ; CGfxOutBarCtrl::CBarFolder::`RTTI Base Class Array'
rdata$r	ENDS
;	COMDAT ??_R3CBarFolder@CGfxOutBarCtrl@@8
rdata$r	SEGMENT
??_R3CBarFolder@CGfxOutBarCtrl@@8 DD 00H		; CGfxOutBarCtrl::CBarFolder::`RTTI Class Hierarchy Descriptor'
	DD	00H
	DD	01H
	DD	FLAT:??_R2CBarFolder@CGfxOutBarCtrl@@8
rdata$r	ENDS
;	COMDAT ??_R0?AVCBarFolder@CGfxOutBarCtrl@@@8
data$rs	SEGMENT
??_R0?AVCBarFolder@CGfxOutBarCtrl@@@8 DD FLAT:??_7type_info@@6B@ ; CGfxOutBarCtrl::CBarFolder `RTTI Type Descriptor'
	DD	00H
	DB	'.?AVCBarFolder@CGfxOutBarCtrl@@', 00H
data$rs	ENDS
;	COMDAT ??_R4CBarFolder@CGfxOutBarCtrl@@6B@
rdata$r	SEGMENT
??_R4CBarFolder@CGfxOutBarCtrl@@6B@ DD 00H		; CGfxOutBarCtrl::CBarFolder::`RTTI Complete Object Locator'
	DD	00H
	DD	00H
	DD	FLAT:??_R0?AVCBarFolder@CGfxOutBarCtrl@@@8
	DD	FLAT:??_R3CBarFolder@CGfxOutBarCtrl@@8
rdata$r	ENDS
;	COMDAT ??_R1A@?0A@EA@CBarItem@CGfxOutBarCtrl@@8
rdata$r	SEGMENT
??_R1A@?0A@EA@CBarItem@CGfxOutBarCtrl@@8 DD FLAT:??_R0?AVCBarItem@CGfxOutBarCtrl@@@8 ; CGfxOutBarCtrl::CBarItem::`RTTI Base Class Descriptor at (0,-1,0,64)'
	DD	00H
	DD	00H
	DD	0ffffffffH
	DD	00H
	DD	040H
	DD	FLAT:??_R3CBarItem@CGfxOutBarCtrl@@8
rdata$r	ENDS
;	COMDAT ??_R2CBarItem@CGfxOutBarCtrl@@8
rdata$r	SEGMENT
??_R2CBarItem@CGfxOutBarCtrl@@8 DD FLAT:??_R1A@?0A@EA@CBarItem@CGfxOutBarCtrl@@8 ; CGfxOutBarCtrl::CBarItem::`RTTI Base Class Array'
rdata$r	ENDS
;	COMDAT ??_R3CBarItem@CGfxOutBarCtrl@@8
rdata$r	SEGMENT
??_R3CBarItem@CGfxOutBarCtrl@@8 DD 00H			; CGfxOutBarCtrl::CBarItem::`RTTI Class Hierarchy Descriptor'
	DD	00H
	DD	01H
	DD	FLAT:??_R2CBarItem@CGfxOutBarCtrl@@8
rdata$r	ENDS
;	COMDAT ??_R0?AVCBarItem@CGfxOutBarCtrl@@@8
data$rs	SEGMENT
??_R0?AVCBarItem@CGfxOutBarCtrl@@@8 DD FLAT:??_7type_info@@6B@ ; CGfxOutBarCtrl::CBarItem `RTTI Type Descriptor'
	DD	00H
	DB	'.?AVCBarItem@CGfxOutBarCtrl@@', 00H
data$rs	ENDS
;	COMDAT ??_R4CBarItem@CGfxOutBarCtrl@@6B@
rdata$r	SEGMENT
??_R4CBarItem@CGfxOutBarCtrl@@6B@ DD 00H		; CGfxOutBarCtrl::CBarItem::`RTTI Complete Object Locator'
	DD	00H
	DD	00H
	DD	FLAT:??_R0?AVCBarItem@CGfxOutBarCtrl@@@8
	DD	FLAT:??_R3CBarItem@CGfxOutBarCtrl@@8
rdata$r	ENDS
;	COMDAT ??_R1A@?0A@EA@CGfxOutBarCtrl@@8
rdata$r	SEGMENT
??_R1A@?0A@EA@CGfxOutBarCtrl@@8 DD FLAT:??_R0?AVCGfxOutBarCtrl@@@8 ; CGfxOutBarCtrl::`RTTI Base Class Descriptor at (0,-1,0,64)'
	DD	03H
	DD	00H
	DD	0ffffffffH
	DD	00H
	DD	040H
	DD	FLAT:??_R3CGfxOutBarCtrl@@8
rdata$r	ENDS
;	COMDAT ??_R2CGfxOutBarCtrl@@8
rdata$r	SEGMENT
??_R2CGfxOutBarCtrl@@8 DD FLAT:??_R1A@?0A@EA@CGfxOutBarCtrl@@8 ; CGfxOutBarCtrl::`RTTI Base Class Array'
	DD	FLAT:??_R1A@?0A@EA@CWnd@@8
	DD	FLAT:??_R1A@?0A@EA@CCmdTarget@@8
	DD	FLAT:??_R1A@?0A@EA@CObject@@8
rdata$r	ENDS
;	COMDAT ??_R3CGfxOutBarCtrl@@8
rdata$r	SEGMENT
??_R3CGfxOutBarCtrl@@8 DD 00H				; CGfxOutBarCtrl::`RTTI Class Hierarchy Descriptor'
	DD	00H
	DD	04H
	DD	FLAT:??_R2CGfxOutBarCtrl@@8
rdata$r	ENDS
;	COMDAT ??_R0?AVCGfxOutBarCtrl@@@8
data$rs	SEGMENT
??_R0?AVCGfxOutBarCtrl@@@8 DD FLAT:??_7type_info@@6B@	; CGfxOutBarCtrl `RTTI Type Descriptor'
	DD	00H
	DB	'.?AVCGfxOutBarCtrl@@', 00H
data$rs	ENDS
;	COMDAT ??_R4CGfxOutBarCtrl@@6B@
rdata$r	SEGMENT
??_R4CGfxOutBarCtrl@@6B@ DD 00H				; CGfxOutBarCtrl::`RTTI Complete Object Locator'
	DD	00H
	DD	00H
	DD	FLAT:??_R0?AVCGfxOutBarCtrl@@@8
	DD	FLAT:??_R3CGfxOutBarCtrl@@8
rdata$r	ENDS
;	COMDAT ??_C@_06MFMMLLPC@?$LB?$LM?$LI?$LC?C?$LM@
CONST	SEGMENT
??_C@_06MFMMLLPC@?$LB?$LM?$LI?$LC?C?$LM@ DB 0b1H, 0bcH, 0b8H, 0b2H, 0c3H, 0bcH
	DB	00H						; `string'
CONST	ENDS
;	COMDAT ?messageMap@?1??GetThisMessageMap@CGfxOutBarCtrl@@KGPBUAFX_MSGMAP@@XZ@4U3@B
CONST	SEGMENT
?messageMap@?1??GetThisMessageMap@CGfxOutBarCtrl@@KGPBUAFX_MSGMAP@@XZ@4U3@B DD FLAT:?GetThisMessageMap@CWnd@@KGPBUAFX_MSGMAP@@XZ ; `CGfxOutBarCtrl::GetThisMessageMap'::`2'::messageMap
	DD	FLAT:?_messageEntries@?1??GetThisMessageMap@CGfxOutBarCtrl@@KGPBUAFX_MSGMAP@@XZ@4QBUAFX_MSGMAP_ENTRY@@B
CONST	ENDS
;	COMDAT ?_messageEntries@?1??GetThisMessageMap@CGfxOutBarCtrl@@KGPBUAFX_MSGMAP@@XZ@4QBUAFX_MSGMAP_ENTRY@@B
CONST	SEGMENT
?_messageEntries@?1??GetThisMessageMap@CGfxOutBarCtrl@@KGPBUAFX_MSGMAP@@XZ@4QBUAFX_MSGMAP_ENTRY@@B DD 01H ; `CGfxOutBarCtrl::GetThisMessageMap'::`2'::_messageEntries
	DD	00H
	DD	00H
	DD	00H
	DD	0dH
	DD	FLAT:?OnCreate@CGfxOutBarCtrl@@IAEHPAUtagCREATESTRUCTA@@@Z
	DD	0113H
	DD	00H
	DD	00H
	DD	00H
	DD	015H
	DD	FLAT:?OnTimer@CGfxOutBarCtrl@@IAEXI@Z
	DD	0fH
	DD	00H
	DD	00H
	DD	00H
	DD	013H
	DD	FLAT:?OnPaint@CGfxOutBarCtrl@@IAEXXZ
	DD	014H
	DD	00H
	DD	00H
	DD	00H
	DD	01H
	DD	FLAT:?OnEraseBkgnd@CGfxOutBarCtrl@@IAEHPAVCDC@@@Z
	DD	0200H
	DD	00H
	DD	00H
	DD	00H
	DD	036H
	DD	FLAT:?OnMouseMove@CGfxOutBarCtrl@@IAEXIVCPoint@@@Z
	DD	0201H
	DD	00H
	DD	00H
	DD	00H
	DD	036H
	DD	FLAT:?OnLButtonDown@CGfxOutBarCtrl@@IAEXIVCPoint@@@Z
	DD	020H
	DD	00H
	DD	00H
	DD	00H
	DD	05H
	DD	FLAT:?OnSetCursor@CGfxOutBarCtrl@@IAEHPAVCWnd@@II@Z
	DD	05H
	DD	00H
	DD	00H
	DD	00H
	DD	01aH
	DD	FLAT:?OnSize@CGfxOutBarCtrl@@IAEXIHH@Z
	DD	0111H
	DD	00H
	DD	0c351H
	DD	0c351H
	DD	03aH
	DD	FLAT:?OnGfxLargeicon@CGfxOutBarCtrl@@IAEXXZ
	DD	0111H
	DD	0ffffffffH
	DD	0c351H
	DD	0c351H
	DD	042H
	DD	FLAT:?OnUpdateGfxLargeicon@CGfxOutBarCtrl@@IAEXPAVCCmdUI@@@Z
	DD	0111H
	DD	00H
	DD	0c350H
	DD	0c350H
	DD	03aH
	DD	FLAT:?OnGfxSmallicon@CGfxOutBarCtrl@@IAEXXZ
	DD	0111H
	DD	0ffffffffH
	DD	0c350H
	DD	0c350H
	DD	042H
	DD	FLAT:?OnUpdateGfxSmallicon@CGfxOutBarCtrl@@IAEXPAVCCmdUI@@@Z
	DD	0111H
	DD	00H
	DD	0c353H
	DD	0c353H
	DD	03aH
	DD	FLAT:?OnGfxRemoveitem@CGfxOutBarCtrl@@IAEXXZ
	DD	0111H
	DD	0ffffffffH
	DD	0c353H
	DD	0c353H
	DD	042H
	DD	FLAT:?OnUpdateGfxRemoveitem@CGfxOutBarCtrl@@IAEXPAVCCmdUI@@@Z
	DD	0111H
	DD	0ffffffffH
	DD	0c352H
	DD	0c352H
	DD	042H
	DD	FLAT:?OnUpdateGfxRenameitem@CGfxOutBarCtrl@@IAEXPAVCCmdUI@@@Z
	DD	02H
	DD	00H
	DD	00H
	DD	00H
	DD	013H
	DD	FLAT:?OnDestroy@CGfxOutBarCtrl@@IAEXXZ
	DD	0204H
	DD	00H
	DD	00H
	DD	00H
	DD	036H
	DD	FLAT:?OnRButtonDown@CWnd@@IAEXIVCPoint@@@Z
	DD	0203H
	DD	00H
	DD	00H
	DD	00H
	DD	036H
	DD	FLAT:?OnLButtonDblClk@CGfxOutBarCtrl@@IAEXIVCPoint@@@Z
	DD	00H
	DD	00H
	DD	00H
	DD	00H
	DD	00H
	DD	00H
CONST	ENDS
;	COMDAT ??_C@_0P@MGLBNAEE@CGfxOutBarCtrl@
CONST	SEGMENT
??_C@_0P@MGLBNAEE@CGfxOutBarCtrl@ DB 'CGfxOutBarCtrl', 00H ; `string'
CONST	ENDS
;	COMDAT ??_7CGfxOutBarCtrl@@6B@
CONST	SEGMENT
??_7CGfxOutBarCtrl@@6B@ DD FLAT:??_R4CGfxOutBarCtrl@@6B@ ; CGfxOutBarCtrl::`vftable'
	DD	FLAT:?GetRuntimeClass@CGfxOutBarCtrl@@UBEPAUCRuntimeClass@@XZ
	DD	FLAT:??_ECGfxOutBarCtrl@@UAEPAXI@Z
	DD	FLAT:?Serialize@CObject@@UAEXAAVCArchive@@@Z
	DD	FLAT:?AssertValid@CObject@@UBEXXZ
	DD	FLAT:?Dump@CObject@@UBEXAAVCDumpContext@@@Z
	DD	FLAT:?OnCmdMsg@CCmdTarget@@UAEHIHPAXPAUAFX_CMDHANDLERINFO@@@Z
	DD	FLAT:?OnFinalRelease@CWnd@@UAEXXZ
	DD	FLAT:?IsInvokeAllowed@CCmdTarget@@UAEHJ@Z
	DD	FLAT:?GetDispatchIID@CCmdTarget@@UAEHPAU_GUID@@@Z
	DD	FLAT:?GetTypeInfoCount@CCmdTarget@@UAEIXZ
	DD	FLAT:?GetTypeLibCache@CCmdTarget@@UAEPAVCTypeLibCache@@XZ
	DD	FLAT:?GetTypeLib@CCmdTarget@@UAEJKPAPAUITypeLib@@@Z
	DD	FLAT:?GetMessageMap@CGfxOutBarCtrl@@MBEPBUAFX_MSGMAP@@XZ
	DD	FLAT:?GetCommandMap@CCmdTarget@@MBEPBUAFX_OLECMDMAP@@XZ
	DD	FLAT:?GetDispatchMap@CCmdTarget@@MBEPBUAFX_DISPMAP@@XZ
	DD	FLAT:?GetConnectionMap@CCmdTarget@@MBEPBUAFX_CONNECTIONMAP@@XZ
	DD	FLAT:?GetInterfaceMap@CWnd@@MBEPBUAFX_INTERFACEMAP@@XZ
	DD	FLAT:?GetEventSinkMap@CCmdTarget@@MBEPBUAFX_EVENTSINKMAP@@XZ
	DD	FLAT:?OnCreateAggregates@CCmdTarget@@UAEHXZ
	DD	FLAT:?GetInterfaceHook@CCmdTarget@@UAEPAUIUnknown@@PBX@Z
	DD	FLAT:?GetExtraConnectionPoints@CCmdTarget@@MAEHPAVCPtrArray@@@Z
	DD	FLAT:?GetConnectionHook@CCmdTarget@@MAEPAUIConnectionPoint@@ABU_GUID@@@Z
	DD	FLAT:?PreSubclassWindow@CWnd@@UAEXXZ
	DD	FLAT:?Create@CWnd@@UAEHPBD0KABUtagRECT@@PAV1@IPAUCCreateContext@@@Z
	DD	FLAT:?CreateEx@CWnd@@UAEHKPBD0KABUtagRECT@@PAV1@IPAX@Z
	DD	FLAT:?CreateEx@CWnd@@UAEHKPBD0KHHHHPAUHWND__@@PAUHMENU__@@PAX@Z
	DD	FLAT:?DestroyWindow@CWnd@@UAEHXZ
	DD	FLAT:?PreCreateWindow@CWnd@@UAEHAAUtagCREATESTRUCTA@@@Z
	DD	FLAT:?CalcWindowRect@CWnd@@UAEXPAUtagRECT@@I@Z
	DD	FLAT:?GetMenu@CWnd@@UBEPAVCMenu@@XZ
	DD	FLAT:?SetMenu@CWnd@@UAEHPAVCMenu@@@Z
	DD	FLAT:?OnToolHitTest@CWnd@@UBEHVCPoint@@PAUtagTOOLINFOA@@@Z
	DD	FLAT:?GetScrollBarCtrl@CWnd@@UBEPAVCScrollBar@@H@Z
	DD	FLAT:?WinHelpA@CWnd@@UAEXKI@Z
	DD	FLAT:?HtmlHelpA@CWnd@@UAEXKI@Z
	DD	FLAT:?WinHelpInternal@CWnd@@UAEXKI@Z
	DD	FLAT:?ContinueModal@CWnd@@UAEHXZ
	DD	FLAT:?EndModalLoop@CWnd@@UAEXH@Z
	DD	FLAT:?OnDrawIconicThumbnailOrLivePreview@CWnd@@UAEXAAVCDC@@VCRect@@VCSize@@HAAH@Z
	DD	FLAT:?EnsureStdObj@CWnd@@UAEJXZ
	DD	FLAT:?get_accParent@CWnd@@UAEJPAPAUIDispatch@@@Z
	DD	FLAT:?get_accChildCount@CWnd@@UAEJPAJ@Z
	DD	FLAT:?get_accChild@CWnd@@UAEJUtagVARIANT@@PAPAUIDispatch@@@Z
	DD	FLAT:?get_accName@CWnd@@UAEJUtagVARIANT@@PAPA_W@Z
	DD	FLAT:?get_accValue@CWnd@@UAEJUtagVARIANT@@PAPA_W@Z
	DD	FLAT:?get_accDescription@CWnd@@UAEJUtagVARIANT@@PAPA_W@Z
	DD	FLAT:?get_accRole@CWnd@@UAEJUtagVARIANT@@PAU2@@Z
	DD	FLAT:?get_accState@CWnd@@UAEJUtagVARIANT@@PAU2@@Z
	DD	FLAT:?get_accHelp@CWnd@@UAEJUtagVARIANT@@PAPA_W@Z
	DD	FLAT:?get_accHelpTopic@CWnd@@UAEJPAPA_WUtagVARIANT@@PAJ@Z
	DD	FLAT:?get_accKeyboardShortcut@CWnd@@UAEJUtagVARIANT@@PAPA_W@Z
	DD	FLAT:?get_accFocus@CWnd@@UAEJPAUtagVARIANT@@@Z
	DD	FLAT:?get_accSelection@CWnd@@UAEJPAUtagVARIANT@@@Z
	DD	FLAT:?get_accDefaultAction@CWnd@@UAEJUtagVARIANT@@PAPA_W@Z
	DD	FLAT:?accSelect@CWnd@@UAEJJUtagVARIANT@@@Z
	DD	FLAT:?accLocation@CWnd@@UAEJPAJ000UtagVARIANT@@@Z
	DD	FLAT:?accNavigate@CWnd@@UAEJJUtagVARIANT@@PAU2@@Z
	DD	FLAT:?accHitTest@CWnd@@UAEJJJPAUtagVARIANT@@@Z
	DD	FLAT:?accDoDefaultAction@CWnd@@UAEJUtagVARIANT@@@Z
	DD	FLAT:?put_accName@CWnd@@UAEJUtagVARIANT@@PA_W@Z
	DD	FLAT:?put_accValue@CWnd@@UAEJUtagVARIANT@@PA_W@Z
	DD	FLAT:?SetProxy@CWnd@@UAEJPAUIAccessibleProxy@@@Z
	DD	FLAT:?CreateAccessibleProxy@CWnd@@UAEJIJPAJ@Z
	DD	FLAT:?OnCommand@CWnd@@MAEHIJ@Z
	DD	FLAT:?OnNotify@CWnd@@MAEHIJPAJ@Z
	DD	FLAT:?GetSuperWndProcAddr@CWnd@@MAEPAP6GJPAUHWND__@@IIJ@ZXZ
	DD	FLAT:?DoDataExchange@CWnd@@MAEXPAVCDataExchange@@@Z
	DD	FLAT:?BeginModalState@CWnd@@UAEXXZ
	DD	FLAT:?EndModalState@CWnd@@UAEXXZ
	DD	FLAT:?PreTranslateMessage@CWnd@@UAEHPAUtagMSG@@@Z
	DD	FLAT:?OnAmbientProperty@CWnd@@UAEHPAVCOleControlSite@@JPAUtagVARIANT@@@Z
	DD	FLAT:?WindowProc@CWnd@@MAEJIIJ@Z
	DD	FLAT:?OnWndMsg@CWnd@@MAEHIIJPAJ@Z
	DD	FLAT:?DefWindowProcA@CWnd@@MAEJIIJ@Z
	DD	FLAT:?PostNcDestroy@CWnd@@MAEXXZ
	DD	FLAT:?OnChildNotify@CWnd@@MAEHIIJPAJ@Z
	DD	FLAT:?OnTouchInputs@CWnd@@MAEHIPAUtagTOUCHINPUT@@@Z
	DD	FLAT:?OnTouchInput@CWnd@@MAEHVCPoint@@HHPAUtagTOUCHINPUT@@@Z
	DD	FLAT:?GetGestureStatus@CWnd@@MAEKVCPoint@@@Z
	DD	FLAT:?OnGestureZoom@CWnd@@MAEHVCPoint@@J@Z
	DD	FLAT:?OnGesturePan@CWnd@@MAEHVCPoint@@0@Z
	DD	FLAT:?OnGestureRotate@CWnd@@MAEHVCPoint@@N@Z
	DD	FLAT:?OnGestureTwoFingerTap@CWnd@@MAEHVCPoint@@@Z
	DD	FLAT:?OnGesturePressAndTap@CWnd@@MAEHVCPoint@@J@Z
	DD	FLAT:?ResizeDynamicLayout@CWnd@@MAEXXZ
	DD	FLAT:?CheckAutoCenter@CWnd@@UAEHXZ
	DD	FLAT:?IsFrameWnd@CWnd@@UBEHXZ
	DD	FLAT:?CreateControlContainer@CWnd@@MAEHPAPAVCOleControlContainer@@@Z
	DD	FLAT:?CreateControlSite@CWnd@@MAEHPAVCOleControlContainer@@PAPAVCOleControlSite@@IABU_GUID@@@Z
	DD	FLAT:?SetOccDialogInfo@CWnd@@MAEHPAU_AFX_OCC_DIALOG_INFO@@@Z
	DD	FLAT:?GetOccDialogInfo@CWnd@@MAEPAU_AFX_OCC_DIALOG_INFO@@XZ
CONST	ENDS
;	COMDAT ??_7CBarFolder@CGfxOutBarCtrl@@6B@
CONST	SEGMENT
??_7CBarFolder@CGfxOutBarCtrl@@6B@ DD FLAT:??_R4CBarFolder@CGfxOutBarCtrl@@6B@ ; CGfxOutBarCtrl::CBarFolder::`vftable'
	DD	FLAT:??_ECBarFolder@CGfxOutBarCtrl@@UAEPAXI@Z
CONST	ENDS
;	COMDAT ??_7CBarItem@CGfxOutBarCtrl@@6B@
CONST	SEGMENT
??_7CBarItem@CGfxOutBarCtrl@@6B@ DD FLAT:??_R4CBarItem@CGfxOutBarCtrl@@6B@ ; CGfxOutBarCtrl::CBarItem::`vftable'
	DD	FLAT:??_ECBarItem@CGfxOutBarCtrl@@UAEPAXI@Z
CONST	ENDS
;	COMDAT ?classCGfxOutBarCtrl@CGfxOutBarCtrl@@2UCRuntimeClass@@B
CONST	SEGMENT
?classCGfxOutBarCtrl@CGfxOutBarCtrl@@2UCRuntimeClass@@B DD FLAT:??_C@_0P@MGLBNAEE@CGfxOutBarCtrl@ ; CGfxOutBarCtrl::classCGfxOutBarCtrl
	DD	0170H
	DD	0ffffH
	DD	FLAT:?CreateObject@CGfxOutBarCtrl@@SGPAVCObject@@XZ
	DD	FLAT:?_GetBaseClass@CGfxOutBarCtrl@@KGPAUCRuntimeClass@@XZ
	DD	00H
	DD	00H
CONST	ENDS
;	COMDAT ??_R2CCmdTarget@@8
rdata$r	SEGMENT
??_R2CCmdTarget@@8 DD FLAT:??_R1A@?0A@EA@CCmdTarget@@8	; CCmdTarget::`RTTI Base Class Array'
	DD	FLAT:??_R1A@?0A@EA@CObject@@8
rdata$r	ENDS
;	COMDAT ??_R3CCmdTarget@@8
rdata$r	SEGMENT
??_R3CCmdTarget@@8 DD 00H				; CCmdTarget::`RTTI Class Hierarchy Descriptor'
	DD	00H
	DD	02H
	DD	FLAT:??_R2CCmdTarget@@8
rdata$r	ENDS
;	COMDAT ??_R0?AVCCmdTarget@@@8
data$rs	SEGMENT
??_R0?AVCCmdTarget@@@8 DD FLAT:??_7type_info@@6B@	; CCmdTarget `RTTI Type Descriptor'
	DD	00H
	DB	'.?AVCCmdTarget@@', 00H
data$rs	ENDS
;	COMDAT ??_R1A@?0A@EA@CCmdTarget@@8
rdata$r	SEGMENT
??_R1A@?0A@EA@CCmdTarget@@8 DD FLAT:??_R0?AVCCmdTarget@@@8 ; CCmdTarget::`RTTI Base Class Descriptor at (0,-1,0,64)'
	DD	01H
	DD	00H
	DD	0ffffffffH
	DD	00H
	DD	040H
	DD	FLAT:??_R3CCmdTarget@@8
rdata$r	ENDS
;	COMDAT ??_R2CWnd@@8
rdata$r	SEGMENT
??_R2CWnd@@8 DD	FLAT:??_R1A@?0A@EA@CWnd@@8		; CWnd::`RTTI Base Class Array'
	DD	FLAT:??_R1A@?0A@EA@CCmdTarget@@8
	DD	FLAT:??_R1A@?0A@EA@CObject@@8
rdata$r	ENDS
;	COMDAT ??_R3CWnd@@8
rdata$r	SEGMENT
??_R3CWnd@@8 DD	00H					; CWnd::`RTTI Class Hierarchy Descriptor'
	DD	00H
	DD	03H
	DD	FLAT:??_R2CWnd@@8
rdata$r	ENDS
;	COMDAT ??_R0?AVCWnd@@@8
data$rs	SEGMENT
??_R0?AVCWnd@@@8 DD FLAT:??_7type_info@@6B@		; CWnd `RTTI Type Descriptor'
	DD	00H
	DB	'.?AVCWnd@@', 00H
data$rs	ENDS
;	COMDAT ??_R1A@?0A@EA@CWnd@@8
rdata$r	SEGMENT
??_R1A@?0A@EA@CWnd@@8 DD FLAT:??_R0?AVCWnd@@@8		; CWnd::`RTTI Base Class Descriptor at (0,-1,0,64)'
	DD	02H
	DD	00H
	DD	0ffffffffH
	DD	00H
	DD	040H
	DD	FLAT:??_R3CWnd@@8
rdata$r	ENDS
;	COMDAT ??_R1A@?0A@EA@CRgn@@8
rdata$r	SEGMENT
??_R1A@?0A@EA@CRgn@@8 DD FLAT:??_R0?AVCRgn@@@8		; CRgn::`RTTI Base Class Descriptor at (0,-1,0,64)'
	DD	02H
	DD	00H
	DD	0ffffffffH
	DD	00H
	DD	040H
	DD	FLAT:??_R3CRgn@@8
rdata$r	ENDS
;	COMDAT ??_R2CRgn@@8
rdata$r	SEGMENT
??_R2CRgn@@8 DD	FLAT:??_R1A@?0A@EA@CRgn@@8		; CRgn::`RTTI Base Class Array'
	DD	FLAT:??_R1A@?0A@EA@CGdiObject@@8
	DD	FLAT:??_R1A@?0A@EA@CObject@@8
rdata$r	ENDS
;	COMDAT ??_R3CRgn@@8
rdata$r	SEGMENT
??_R3CRgn@@8 DD	00H					; CRgn::`RTTI Class Hierarchy Descriptor'
	DD	00H
	DD	03H
	DD	FLAT:??_R2CRgn@@8
rdata$r	ENDS
;	COMDAT ??_R0?AVCRgn@@@8
data$rs	SEGMENT
??_R0?AVCRgn@@@8 DD FLAT:??_7type_info@@6B@		; CRgn `RTTI Type Descriptor'
	DD	00H
	DB	'.?AVCRgn@@', 00H
data$rs	ENDS
;	COMDAT ??_R4CRgn@@6B@
rdata$r	SEGMENT
??_R4CRgn@@6B@ DD 00H					; CRgn::`RTTI Complete Object Locator'
	DD	00H
	DD	00H
	DD	FLAT:??_R0?AVCRgn@@@8
	DD	FLAT:??_R3CRgn@@8
rdata$r	ENDS
;	COMDAT ??_R1A@?0A@EA@CBitmap@@8
rdata$r	SEGMENT
??_R1A@?0A@EA@CBitmap@@8 DD FLAT:??_R0?AVCBitmap@@@8	; CBitmap::`RTTI Base Class Descriptor at (0,-1,0,64)'
	DD	02H
	DD	00H
	DD	0ffffffffH
	DD	00H
	DD	040H
	DD	FLAT:??_R3CBitmap@@8
rdata$r	ENDS
;	COMDAT ??_R2CBitmap@@8
rdata$r	SEGMENT
??_R2CBitmap@@8 DD FLAT:??_R1A@?0A@EA@CBitmap@@8	; CBitmap::`RTTI Base Class Array'
	DD	FLAT:??_R1A@?0A@EA@CGdiObject@@8
	DD	FLAT:??_R1A@?0A@EA@CObject@@8
rdata$r	ENDS
;	COMDAT ??_R3CBitmap@@8
rdata$r	SEGMENT
??_R3CBitmap@@8 DD 00H					; CBitmap::`RTTI Class Hierarchy Descriptor'
	DD	00H
	DD	03H
	DD	FLAT:??_R2CBitmap@@8
rdata$r	ENDS
;	COMDAT ??_R0?AVCBitmap@@@8
data$rs	SEGMENT
??_R0?AVCBitmap@@@8 DD FLAT:??_7type_info@@6B@		; CBitmap `RTTI Type Descriptor'
	DD	00H
	DB	'.?AVCBitmap@@', 00H
data$rs	ENDS
;	COMDAT ??_R4CBitmap@@6B@
rdata$r	SEGMENT
??_R4CBitmap@@6B@ DD 00H				; CBitmap::`RTTI Complete Object Locator'
	DD	00H
	DD	00H
	DD	FLAT:??_R0?AVCBitmap@@@8
	DD	FLAT:??_R3CBitmap@@8
rdata$r	ENDS
;	COMDAT ??_R1A@?0A@EA@CFont@@8
rdata$r	SEGMENT
??_R1A@?0A@EA@CFont@@8 DD FLAT:??_R0?AVCFont@@@8	; CFont::`RTTI Base Class Descriptor at (0,-1,0,64)'
	DD	02H
	DD	00H
	DD	0ffffffffH
	DD	00H
	DD	040H
	DD	FLAT:??_R3CFont@@8
rdata$r	ENDS
;	COMDAT ??_R2CFont@@8
rdata$r	SEGMENT
??_R2CFont@@8 DD FLAT:??_R1A@?0A@EA@CFont@@8		; CFont::`RTTI Base Class Array'
	DD	FLAT:??_R1A@?0A@EA@CGdiObject@@8
	DD	FLAT:??_R1A@?0A@EA@CObject@@8
rdata$r	ENDS
;	COMDAT ??_R3CFont@@8
rdata$r	SEGMENT
??_R3CFont@@8 DD 00H					; CFont::`RTTI Class Hierarchy Descriptor'
	DD	00H
	DD	03H
	DD	FLAT:??_R2CFont@@8
rdata$r	ENDS
;	COMDAT ??_R0?AVCFont@@@8
data$rs	SEGMENT
??_R0?AVCFont@@@8 DD FLAT:??_7type_info@@6B@		; CFont `RTTI Type Descriptor'
	DD	00H
	DB	'.?AVCFont@@', 00H
data$rs	ENDS
;	COMDAT ??_R4CFont@@6B@
rdata$r	SEGMENT
??_R4CFont@@6B@ DD 00H					; CFont::`RTTI Complete Object Locator'
	DD	00H
	DD	00H
	DD	FLAT:??_R0?AVCFont@@@8
	DD	FLAT:??_R3CFont@@8
rdata$r	ENDS
;	COMDAT ??_R1A@?0A@EA@CPen@@8
rdata$r	SEGMENT
??_R1A@?0A@EA@CPen@@8 DD FLAT:??_R0?AVCPen@@@8		; CPen::`RTTI Base Class Descriptor at (0,-1,0,64)'
	DD	02H
	DD	00H
	DD	0ffffffffH
	DD	00H
	DD	040H
	DD	FLAT:??_R3CPen@@8
rdata$r	ENDS
;	COMDAT ??_R2CPen@@8
rdata$r	SEGMENT
??_R2CPen@@8 DD	FLAT:??_R1A@?0A@EA@CPen@@8		; CPen::`RTTI Base Class Array'
	DD	FLAT:??_R1A@?0A@EA@CGdiObject@@8
	DD	FLAT:??_R1A@?0A@EA@CObject@@8
rdata$r	ENDS
;	COMDAT ??_R3CPen@@8
rdata$r	SEGMENT
??_R3CPen@@8 DD	00H					; CPen::`RTTI Class Hierarchy Descriptor'
	DD	00H
	DD	03H
	DD	FLAT:??_R2CPen@@8
rdata$r	ENDS
;	COMDAT ??_R0?AVCPen@@@8
data$rs	SEGMENT
??_R0?AVCPen@@@8 DD FLAT:??_7type_info@@6B@		; CPen `RTTI Type Descriptor'
	DD	00H
	DB	'.?AVCPen@@', 00H
data$rs	ENDS
;	COMDAT ??_R4CPen@@6B@
rdata$r	SEGMENT
??_R4CPen@@6B@ DD 00H					; CPen::`RTTI Complete Object Locator'
	DD	00H
	DD	00H
	DD	FLAT:??_R0?AVCPen@@@8
	DD	FLAT:??_R3CPen@@8
rdata$r	ENDS
;	COMDAT ??_R1A@?0A@EA@CGdiObject@@8
rdata$r	SEGMENT
??_R1A@?0A@EA@CGdiObject@@8 DD FLAT:??_R0?AVCGdiObject@@@8 ; CGdiObject::`RTTI Base Class Descriptor at (0,-1,0,64)'
	DD	01H
	DD	00H
	DD	0ffffffffH
	DD	00H
	DD	040H
	DD	FLAT:??_R3CGdiObject@@8
rdata$r	ENDS
;	COMDAT ??_R2CGdiObject@@8
rdata$r	SEGMENT
??_R2CGdiObject@@8 DD FLAT:??_R1A@?0A@EA@CGdiObject@@8	; CGdiObject::`RTTI Base Class Array'
	DD	FLAT:??_R1A@?0A@EA@CObject@@8
rdata$r	ENDS
;	COMDAT ??_R3CGdiObject@@8
rdata$r	SEGMENT
??_R3CGdiObject@@8 DD 00H				; CGdiObject::`RTTI Class Hierarchy Descriptor'
	DD	00H
	DD	02H
	DD	FLAT:??_R2CGdiObject@@8
rdata$r	ENDS
;	COMDAT ??_R0?AVCGdiObject@@@8
data$rs	SEGMENT
??_R0?AVCGdiObject@@@8 DD FLAT:??_7type_info@@6B@	; CGdiObject `RTTI Type Descriptor'
	DD	00H
	DB	'.?AVCGdiObject@@', 00H
data$rs	ENDS
;	COMDAT ??_R4CGdiObject@@6B@
rdata$r	SEGMENT
??_R4CGdiObject@@6B@ DD 00H				; CGdiObject::`RTTI Complete Object Locator'
	DD	00H
	DD	00H
	DD	FLAT:??_R0?AVCGdiObject@@@8
	DD	FLAT:??_R3CGdiObject@@8
rdata$r	ENDS
;	COMDAT ??_R1A@?0A@EA@CObject@@8
rdata$r	SEGMENT
??_R1A@?0A@EA@CObject@@8 DD FLAT:??_R0?AVCObject@@@8	; CObject::`RTTI Base Class Descriptor at (0,-1,0,64)'
	DD	00H
	DD	00H
	DD	0ffffffffH
	DD	00H
	DD	040H
	DD	FLAT:??_R3CObject@@8
rdata$r	ENDS
;	COMDAT ??_R2CObject@@8
rdata$r	SEGMENT
??_R2CObject@@8 DD FLAT:??_R1A@?0A@EA@CObject@@8	; CObject::`RTTI Base Class Array'
rdata$r	ENDS
;	COMDAT ??_R3CObject@@8
rdata$r	SEGMENT
??_R3CObject@@8 DD 00H					; CObject::`RTTI Class Hierarchy Descriptor'
	DD	00H
	DD	01H
	DD	FLAT:??_R2CObject@@8
rdata$r	ENDS
;	COMDAT ??_R0?AVCObject@@@8
data$rs	SEGMENT
??_R0?AVCObject@@@8 DD FLAT:??_7type_info@@6B@		; CObject `RTTI Type Descriptor'
	DD	00H
	DB	'.?AVCObject@@', 00H
data$rs	ENDS
;	COMDAT ??_C@_0N@OMEMOKLE@?$CFTs?5?$CI?$CFTs?3?$CFd?$CJ@
CONST	SEGMENT
??_C@_0N@OMEMOKLE@?$CFTs?5?$CI?$CFTs?3?$CFd?$CJ@ DB '%Ts (%Ts:%d)', 00H ; `string'
CONST	ENDS
;	COMDAT ??_C@_0BB@HBOOMJBF@?$CFTs?5?$CI?$CFTs?3?$CFd?$CJ?6?$CFTs@
CONST	SEGMENT
??_C@_0BB@HBOOMJBF@?$CFTs?5?$CI?$CFTs?3?$CFd?$CJ?6?$CFTs@ DB '%Ts (%Ts:%d'
	DB	')', 0aH, '%Ts', 00H				; `string'
CONST	ENDS
;	COMDAT ??_C@_0BP@OIEOKIDM@Exception?5thrown?5in?5destructor@
CONST	SEGMENT
??_C@_0BP@OIEOKIDM@Exception?5thrown?5in?5destructor@ DB 'Exception throw'
	DB	'n in destructor', 00H			; `string'
CONST	ENDS
;	COMDAT ??_C@_0HD@JJCHHHNK@C?3?2Program?5Files?5?$CIx86?$CJ?2Microsof@
CONST	SEGMENT
??_C@_0HD@JJCHHHNK@C?3?2Program?5Files?5?$CIx86?$CJ?2Microsof@ DB 'C:\Pro'
	DB	'gram Files (x86)\Microsoft Visual Studio\2019\Community\VC\To'
	DB	'ols\MSVC\14.29.30133\atlmfc\include\afxwin1.inl', 00H ; `string'
CONST	ENDS
;	COMDAT ??_7CRgn@@6B@
CONST	SEGMENT
??_7CRgn@@6B@ DD FLAT:??_R4CRgn@@6B@			; CRgn::`vftable'
	DD	FLAT:?GetRuntimeClass@CRgn@@UBEPAUCRuntimeClass@@XZ
	DD	FLAT:??_ECRgn@@UAEPAXI@Z
	DD	FLAT:?Serialize@CObject@@UAEXAAVCArchive@@@Z
	DD	FLAT:?AssertValid@CObject@@UBEXXZ
	DD	FLAT:?Dump@CObject@@UBEXAAVCDumpContext@@@Z
CONST	ENDS
;	COMDAT ??_7CBitmap@@6B@
CONST	SEGMENT
??_7CBitmap@@6B@ DD FLAT:??_R4CBitmap@@6B@		; CBitmap::`vftable'
	DD	FLAT:?GetRuntimeClass@CBitmap@@UBEPAUCRuntimeClass@@XZ
	DD	FLAT:??_ECBitmap@@UAEPAXI@Z
	DD	FLAT:?Serialize@CObject@@UAEXAAVCArchive@@@Z
	DD	FLAT:?AssertValid@CObject@@UBEXXZ
	DD	FLAT:?Dump@CObject@@UBEXAAVCDumpContext@@@Z
CONST	ENDS
;	COMDAT ??_7CFont@@6B@
CONST	SEGMENT
??_7CFont@@6B@ DD FLAT:??_R4CFont@@6B@			; CFont::`vftable'
	DD	FLAT:?GetRuntimeClass@CFont@@UBEPAUCRuntimeClass@@XZ
	DD	FLAT:??_ECFont@@UAEPAXI@Z
	DD	FLAT:?Serialize@CObject@@UAEXAAVCArchive@@@Z
	DD	FLAT:?AssertValid@CObject@@UBEXXZ
	DD	FLAT:?Dump@CObject@@UBEXAAVCDumpContext@@@Z
CONST	ENDS
;	COMDAT ??_7CPen@@6B@
CONST	SEGMENT
??_7CPen@@6B@ DD FLAT:??_R4CPen@@6B@			; CPen::`vftable'
	DD	FLAT:?GetRuntimeClass@CPen@@UBEPAUCRuntimeClass@@XZ
	DD	FLAT:??_ECPen@@UAEPAXI@Z
	DD	FLAT:?Serialize@CObject@@UAEXAAVCArchive@@@Z
	DD	FLAT:?AssertValid@CObject@@UBEXXZ
	DD	FLAT:?Dump@CObject@@UBEXAAVCDumpContext@@@Z
CONST	ENDS
;	COMDAT ??_7CGdiObject@@6B@
CONST	SEGMENT
??_7CGdiObject@@6B@ DD FLAT:??_R4CGdiObject@@6B@	; CGdiObject::`vftable'
	DD	FLAT:?GetRuntimeClass@CGdiObject@@UBEPAUCRuntimeClass@@XZ
	DD	FLAT:??_ECGdiObject@@UAEPAXI@Z
	DD	FLAT:?Serialize@CObject@@UAEXAAVCArchive@@@Z
	DD	FLAT:?AssertValid@CObject@@UBEXXZ
	DD	FLAT:?Dump@CObject@@UBEXAAVCDumpContext@@@Z
CONST	ENDS
;	COMDAT ??_R0PAVCException@@@8
data$r	SEGMENT
??_R0PAVCException@@@8 DD FLAT:??_7type_info@@6B@	; CException * `RTTI Type Descriptor'
	DD	00H
	DB	'.PAVCException@@', 00H
data$r	ENDS
;	COMDAT xdata$x
xdata$x	SEGMENT
__unwindtable$?OnLButtonDblClk@CGfxOutBarCtrl@@IAEXIVCPoint@@@Z DD 0ffffffffH
	DD	FLAT:__unwindfunclet$?OnLButtonDblClk@CGfxOutBarCtrl@@IAEXIVCPoint@@@Z$6
	DD	0ffffffffH
	DD	FLAT:__unwindfunclet$?OnLButtonDblClk@CGfxOutBarCtrl@@IAEXIVCPoint@@@Z$7
	DD	0ffffffffH
	DD	FLAT:__unwindfunclet$?OnLButtonDblClk@CGfxOutBarCtrl@@IAEXIVCPoint@@@Z$8
	DD	0ffffffffH
	DD	FLAT:__unwindfunclet$?OnLButtonDblClk@CGfxOutBarCtrl@@IAEXIVCPoint@@@Z$9
__ehfuncinfo$?OnLButtonDblClk@CGfxOutBarCtrl@@IAEXIVCPoint@@@Z DD 019930522H
	DD	04H
	DD	FLAT:__unwindtable$?OnLButtonDblClk@CGfxOutBarCtrl@@IAEXIVCPoint@@@Z
	DD	2 DUP(00H)
	DD	2 DUP(00H)
	DD	00H
	DD	01H
xdata$x	ENDS
;	COMDAT xdata$x
xdata$x	SEGMENT
__unwindtable$?OnLButtonDown@CGfxOutBarCtrl@@IAEXIVCPoint@@@Z DD 0ffffffffH
	DD	FLAT:__unwindfunclet$?OnLButtonDown@CGfxOutBarCtrl@@IAEXIVCPoint@@@Z$6
	DD	0ffffffffH
	DD	FLAT:__unwindfunclet$?OnLButtonDown@CGfxOutBarCtrl@@IAEXIVCPoint@@@Z$7
	DD	0ffffffffH
	DD	FLAT:__unwindfunclet$?OnLButtonDown@CGfxOutBarCtrl@@IAEXIVCPoint@@@Z$8
	DD	0ffffffffH
	DD	FLAT:__unwindfunclet$?OnLButtonDown@CGfxOutBarCtrl@@IAEXIVCPoint@@@Z$9
__ehfuncinfo$?OnLButtonDown@CGfxOutBarCtrl@@IAEXIVCPoint@@@Z DD 019930522H
	DD	04H
	DD	FLAT:__unwindtable$?OnLButtonDown@CGfxOutBarCtrl@@IAEXIVCPoint@@@Z
	DD	2 DUP(00H)
	DD	2 DUP(00H)
	DD	00H
	DD	01H
xdata$x	ENDS
;	COMDAT xdata$x
xdata$x	SEGMENT
__unwindtable$?OnPaint@CGfxOutBarCtrl@@IAEXXZ DD 0ffffffffH
	DD	FLAT:__unwindfunclet$?OnPaint@CGfxOutBarCtrl@@IAEXXZ$0
	DD	00H
	DD	FLAT:__unwindfunclet$?OnPaint@CGfxOutBarCtrl@@IAEXXZ$1
	DD	01H
	DD	FLAT:__unwindfunclet$?OnPaint@CGfxOutBarCtrl@@IAEXXZ$2
__ehfuncinfo$?OnPaint@CGfxOutBarCtrl@@IAEXXZ DD 019930522H
	DD	03H
	DD	FLAT:__unwindtable$?OnPaint@CGfxOutBarCtrl@@IAEXXZ
	DD	2 DUP(00H)
	DD	2 DUP(00H)
	DD	00H
	DD	01H
xdata$x	ENDS
;	COMDAT xdata$x
xdata$x	SEGMENT
__ehfuncinfo$?DrawFolder@CGfxOutBarCtrl@@IAEXPAVCDC@@HVCRect@@_N@Z DD 019930522H
	DD	08H
	DD	FLAT:__unwindtable$?DrawFolder@CGfxOutBarCtrl@@IAEXPAVCDC@@HVCRect@@_N@Z
	DD	2 DUP(00H)
	DD	2 DUP(00H)
	DD	00H
	DD	01H
__unwindtable$?DrawFolder@CGfxOutBarCtrl@@IAEXPAVCDC@@HVCRect@@_N@Z DD 0ffffffffH
	DD	FLAT:__unwindfunclet$?DrawFolder@CGfxOutBarCtrl@@IAEXPAVCDC@@HVCRect@@_N@Z$0
	DD	00H
	DD	FLAT:__unwindfunclet$?DrawFolder@CGfxOutBarCtrl@@IAEXPAVCDC@@HVCRect@@_N@Z$1
	DD	0ffffffffH
	DD	FLAT:__unwindfunclet$?DrawFolder@CGfxOutBarCtrl@@IAEXPAVCDC@@HVCRect@@_N@Z$2
	DD	0ffffffffH
	DD	FLAT:__unwindfunclet$?DrawFolder@CGfxOutBarCtrl@@IAEXPAVCDC@@HVCRect@@_N@Z$3
	DD	03H
	DD	FLAT:__unwindfunclet$?DrawFolder@CGfxOutBarCtrl@@IAEXPAVCDC@@HVCRect@@_N@Z$4
	DD	04H
	DD	FLAT:__unwindfunclet$?DrawFolder@CGfxOutBarCtrl@@IAEXPAVCDC@@HVCRect@@_N@Z$5
	DD	0ffffffffH
	DD	FLAT:__unwindfunclet$?DrawFolder@CGfxOutBarCtrl@@IAEXPAVCDC@@HVCRect@@_N@Z$6
	DD	06H
	DD	FLAT:__unwindfunclet$?DrawFolder@CGfxOutBarCtrl@@IAEXPAVCDC@@HVCRect@@_N@Z$7
xdata$x	ENDS
;	COMDAT xdata$x
xdata$x	SEGMENT
__unwindtable$?AddFolder@CGfxOutBarCtrl@@QAEHPBDK@Z DD 0ffffffffH
	DD	FLAT:__unwindfunclet$?AddFolder@CGfxOutBarCtrl@@QAEHPBDK@Z$0
	DD	00H
	DD	FLAT:__unwindfunclet$?AddFolder@CGfxOutBarCtrl@@QAEHPBDK@Z$1
__ehfuncinfo$?AddFolder@CGfxOutBarCtrl@@QAEHPBDK@Z DD 019930522H
	DD	02H
	DD	FLAT:__unwindtable$?AddFolder@CGfxOutBarCtrl@@QAEHPBDK@Z
	DD	2 DUP(00H)
	DD	2 DUP(00H)
	DD	00H
	DD	01H
xdata$x	ENDS
;	COMDAT xdata$x
xdata$x	SEGMENT
__ehfuncinfo$?HighlightFolder@CGfxOutBarCtrl@@QAEXH@Z DD 019930522H
	DD	05H
	DD	FLAT:__unwindtable$?HighlightFolder@CGfxOutBarCtrl@@QAEXH@Z
	DD	2 DUP(00H)
	DD	2 DUP(00H)
	DD	00H
	DD	01H
__unwindtable$?HighlightFolder@CGfxOutBarCtrl@@QAEXH@Z DD 0ffffffffH
	DD	FLAT:__unwindfunclet$?HighlightFolder@CGfxOutBarCtrl@@QAEXH@Z$0
	DD	00H
	DD	FLAT:__unwindfunclet$?HighlightFolder@CGfxOutBarCtrl@@QAEXH@Z$1
	DD	00H
	DD	FLAT:__unwindfunclet$?HighlightFolder@CGfxOutBarCtrl@@QAEXH@Z$2
	DD	0ffffffffH
	DD	FLAT:__unwindfunclet$?HighlightFolder@CGfxOutBarCtrl@@QAEXH@Z$3
	DD	03H
	DD	FLAT:__unwindfunclet$?HighlightFolder@CGfxOutBarCtrl@@QAEXH@Z$4
xdata$x	ENDS
;	COMDAT xdata$x
xdata$x	SEGMENT
__unwindtable$?InsertItem@CGfxOutBarCtrl@@QAEHHHPBDHK@Z DD 0ffffffffH
	DD	FLAT:__unwindfunclet$?InsertItem@CGfxOutBarCtrl@@QAEHHHPBDHK@Z$0
__ehfuncinfo$?InsertItem@CGfxOutBarCtrl@@QAEHHHPBDHK@Z DD 019930522H
	DD	01H
	DD	FLAT:__unwindtable$?InsertItem@CGfxOutBarCtrl@@QAEHHHPBDHK@Z
	DD	2 DUP(00H)
	DD	2 DUP(00H)
	DD	00H
	DD	01H
xdata$x	ENDS
;	COMDAT xdata$x
xdata$x	SEGMENT
__unwindtable$?PaintItems@CGfxOutBarCtrl@@QAEXPAVCDC@@HVCRect@@@Z DD 0ffffffffH
	DD	FLAT:__unwindfunclet$?PaintItems@CGfxOutBarCtrl@@QAEXPAVCDC@@HVCRect@@@Z$0
__ehfuncinfo$?PaintItems@CGfxOutBarCtrl@@QAEXPAVCDC@@HVCRect@@@Z DD 019930522H
	DD	01H
	DD	FLAT:__unwindtable$?PaintItems@CGfxOutBarCtrl@@QAEXPAVCDC@@HVCRect@@@Z
	DD	2 DUP(00H)
	DD	2 DUP(00H)
	DD	00H
	DD	01H
xdata$x	ENDS
;	COMDAT xdata$x
xdata$x	SEGMENT
__unwindtable$?GetItemSize@CGfxOutBarCtrl@@QAE?AVCSize@@HHH@Z DD 0ffffffffH
	DD	FLAT:__unwindfunclet$?GetItemSize@CGfxOutBarCtrl@@QAE?AVCSize@@HHH@Z$0
__ehfuncinfo$?GetItemSize@CGfxOutBarCtrl@@QAE?AVCSize@@HHH@Z DD 019930522H
	DD	01H
	DD	FLAT:__unwindtable$?GetItemSize@CGfxOutBarCtrl@@QAE?AVCSize@@HHH@Z
	DD	2 DUP(00H)
	DD	2 DUP(00H)
	DD	00H
	DD	01H
xdata$x	ENDS
;	COMDAT xdata$x
xdata$x	SEGMENT
__unwindtable$?DrawItem@CGfxOutBarCtrl@@QAEXPAVCDC@@HVCRect@@H_N@Z DD 0ffffffffH
	DD	FLAT:__unwindfunclet$?DrawItem@CGfxOutBarCtrl@@QAEXPAVCDC@@HVCRect@@H_N@Z$0
__ehfuncinfo$?DrawItem@CGfxOutBarCtrl@@QAEXPAVCDC@@HVCRect@@H_N@Z DD 019930522H
	DD	01H
	DD	FLAT:__unwindtable$?DrawItem@CGfxOutBarCtrl@@QAEXPAVCDC@@HVCRect@@H_N@Z
	DD	2 DUP(00H)
	DD	2 DUP(00H)
	DD	00H
	DD	01H
xdata$x	ENDS
;	COMDAT xdata$x
xdata$x	SEGMENT
__unwindtable$?HighlightItem@CGfxOutBarCtrl@@QAEXH_N@Z DD 0ffffffffH
	DD	FLAT:__unwindfunclet$?HighlightItem@CGfxOutBarCtrl@@QAEXH_N@Z$0
	DD	00H
	DD	FLAT:__unwindfunclet$?HighlightItem@CGfxOutBarCtrl@@QAEXH_N@Z$1
__ehfuncinfo$?HighlightItem@CGfxOutBarCtrl@@QAEXH_N@Z DD 019930522H
	DD	02H
	DD	FLAT:__unwindtable$?HighlightItem@CGfxOutBarCtrl@@QAEXH_N@Z
	DD	2 DUP(00H)
	DD	2 DUP(00H)
	DD	00H
	DD	01H
xdata$x	ENDS
;	COMDAT xdata$x
xdata$x	SEGMENT
__unwindtable$?AnimateFolderScroll@CGfxOutBarCtrl@@QAEXHH@Z DD 0ffffffffH
	DD	FLAT:__unwindfunclet$?AnimateFolderScroll@CGfxOutBarCtrl@@QAEXHH@Z$0
	DD	00H
	DD	FLAT:__unwindfunclet$?AnimateFolderScroll@CGfxOutBarCtrl@@QAEXHH@Z$1
	DD	01H
	DD	FLAT:__unwindfunclet$?AnimateFolderScroll@CGfxOutBarCtrl@@QAEXHH@Z$2
	DD	02H
	DD	FLAT:__unwindfunclet$?AnimateFolderScroll@CGfxOutBarCtrl@@QAEXHH@Z$3
__ehfuncinfo$?AnimateFolderScroll@CGfxOutBarCtrl@@QAEXHH@Z DD 019930522H
	DD	04H
	DD	FLAT:__unwindtable$?AnimateFolderScroll@CGfxOutBarCtrl@@QAEXHH@Z
	DD	2 DUP(00H)
	DD	2 DUP(00H)
	DD	00H
	DD	01H
xdata$x	ENDS
;	COMDAT xdata$x
xdata$x	SEGMENT
__unwindtable$?GetItemText@CGfxOutBarCtrl@@QAE?AV?$CStringT@DV?$StrTraitMFC_DLL@DV?$ChTraitsCRT@D@ATL@@@@@ATL@@H@Z DD 0ffffffffH
	DD	FLAT:__unwindfunclet$?GetItemText@CGfxOutBarCtrl@@QAE?AV?$CStringT@DV?$StrTraitMFC_DLL@DV?$ChTraitsCRT@D@ATL@@@@@ATL@@H@Z$0
__ehfuncinfo$?GetItemText@CGfxOutBarCtrl@@QAE?AV?$CStringT@DV?$StrTraitMFC_DLL@DV?$ChTraitsCRT@D@ATL@@@@@ATL@@H@Z DD 019930522H
	DD	01H
	DD	FLAT:__unwindtable$?GetItemText@CGfxOutBarCtrl@@QAE?AV?$CStringT@DV?$StrTraitMFC_DLL@DV?$ChTraitsCRT@D@ATL@@@@@ATL@@H@Z
	DD	2 DUP(00H)
	DD	2 DUP(00H)
	DD	00H
	DD	01H
xdata$x	ENDS
;	COMDAT xdata$x
xdata$x	SEGMENT
__unwindtable$?AddFolderBar@CGfxOutBarCtrl@@QAEHPBDPAVCWnd@@K@Z DD 0ffffffffH
	DD	FLAT:__unwindfunclet$?AddFolderBar@CGfxOutBarCtrl@@QAEHPBDPAVCWnd@@K@Z$0
	DD	00H
	DD	FLAT:__unwindfunclet$?AddFolderBar@CGfxOutBarCtrl@@QAEHPBDPAVCWnd@@K@Z$1
__ehfuncinfo$?AddFolderBar@CGfxOutBarCtrl@@QAEHPBDPAVCWnd@@K@Z DD 019930522H
	DD	02H
	DD	FLAT:__unwindtable$?AddFolderBar@CGfxOutBarCtrl@@QAEHPBDPAVCWnd@@K@Z
	DD	2 DUP(00H)
	DD	2 DUP(00H)
	DD	00H
	DD	01H
xdata$x	ENDS
;	COMDAT xdata$x
xdata$x	SEGMENT
__unwindtable$?DrawAnimItem@CGfxOutBarCtrl@@QAEXHHH@Z DD 0ffffffffH
	DD	FLAT:__unwindfunclet$?DrawAnimItem@CGfxOutBarCtrl@@QAEXHHH@Z$0
__ehfuncinfo$?DrawAnimItem@CGfxOutBarCtrl@@QAEXHHH@Z DD 019930522H
	DD	01H
	DD	FLAT:__unwindtable$?DrawAnimItem@CGfxOutBarCtrl@@QAEXHHH@Z
	DD	2 DUP(00H)
	DD	2 DUP(00H)
	DD	00H
	DD	01H
xdata$x	ENDS
;	COMDAT xdata$x
xdata$x	SEGMENT
__unwindtable$??_GCBarFolder@CGfxOutBarCtrl@@UAEPAXI@Z DD 0ffffffffH
	DD	FLAT:___std_terminate
__ehfuncinfo$??_GCBarFolder@CGfxOutBarCtrl@@UAEPAXI@Z DD 019930522H
	DD	01H
	DD	FLAT:__unwindtable$??_GCBarFolder@CGfxOutBarCtrl@@UAEPAXI@Z
	DD	2 DUP(00H)
	DD	2 DUP(00H)
	DD	00H
	DD	05H
xdata$x	ENDS
;	COMDAT xdata$x
xdata$x	SEGMENT
__unwindtable$?InsertItem@CBarFolder@CGfxOutBarCtrl@@QAEHHPBDHK@Z DD 0ffffffffH
	DD	FLAT:__unwindfunclet$?InsertItem@CBarFolder@CGfxOutBarCtrl@@QAEHHPBDHK@Z$0
__ehfuncinfo$?InsertItem@CBarFolder@CGfxOutBarCtrl@@QAEHHPBDHK@Z DD 019930522H
	DD	01H
	DD	FLAT:__unwindtable$?InsertItem@CBarFolder@CGfxOutBarCtrl@@QAEHHPBDHK@Z
	DD	2 DUP(00H)
	DD	2 DUP(00H)
	DD	00H
	DD	01H
xdata$x	ENDS
;	COMDAT xdata$x
xdata$x	SEGMENT
__ehfuncinfo$??1CBarFolder@CGfxOutBarCtrl@@UAE@XZ DD 019930522H
	DD	00H
	DD	00H
	DD	2 DUP(00H)
	DD	2 DUP(00H)
	DD	00H
	DD	05H
xdata$x	ENDS
;	COMDAT xdata$x
xdata$x	SEGMENT
__unwindtable$??0CBarFolder@CGfxOutBarCtrl@@QAE@PBDK@Z DD 0ffffffffH
	DD	FLAT:__unwindfunclet$??0CBarFolder@CGfxOutBarCtrl@@QAE@PBDK@Z$0
__ehfuncinfo$??0CBarFolder@CGfxOutBarCtrl@@QAE@PBDK@Z DD 019930522H
	DD	01H
	DD	FLAT:__unwindtable$??0CBarFolder@CGfxOutBarCtrl@@QAE@PBDK@Z
	DD	2 DUP(00H)
	DD	2 DUP(00H)
	DD	00H
	DD	01H
xdata$x	ENDS
;	COMDAT xdata$x
xdata$x	SEGMENT
__unwindtable$??0CGfxOutBarCtrl@@QAE@XZ DD 0ffffffffH
	DD	FLAT:__unwindfunclet$??0CGfxOutBarCtrl@@QAE@XZ$0
	DD	00H
	DD	FLAT:__unwindfunclet$??0CGfxOutBarCtrl@@QAE@XZ$1
	DD	01H
	DD	FLAT:__unwindfunclet$??0CGfxOutBarCtrl@@QAE@XZ$2
	DD	02H
	DD	FLAT:__unwindfunclet$??0CGfxOutBarCtrl@@QAE@XZ$3
__ehfuncinfo$??0CGfxOutBarCtrl@@QAE@XZ DD 019930522H
	DD	04H
	DD	FLAT:__unwindtable$??0CGfxOutBarCtrl@@QAE@XZ
	DD	2 DUP(00H)
	DD	2 DUP(00H)
	DD	00H
	DD	01H
xdata$x	ENDS
;	COMDAT xdata$x
xdata$x	SEGMENT
__unwindtable$?CreateObject@CGfxOutBarCtrl@@SGPAVCObject@@XZ DD 0ffffffffH
	DD	FLAT:__unwindfunclet$?CreateObject@CGfxOutBarCtrl@@SGPAVCObject@@XZ$0
__ehfuncinfo$?CreateObject@CGfxOutBarCtrl@@SGPAVCObject@@XZ DD 019930522H
	DD	01H
	DD	FLAT:__unwindtable$?CreateObject@CGfxOutBarCtrl@@SGPAVCObject@@XZ
	DD	2 DUP(00H)
	DD	2 DUP(00H)
	DD	00H
	DD	01H
xdata$x	ENDS
;	COMDAT xdata$x
xdata$x	SEGMENT
__catchsym$??1CGdiObject@@UAE@XZ$3 DD 00H
	DD	FLAT:??_R0PAVCException@@@8
	DD	0fffffde4H
	DD	FLAT:__catch$??1CGdiObject@@UAE@XZ$0
__tryblocktable$??1CGdiObject@@UAE@XZ DD 00H
	DD	00H
	DD	02H
	DD	01H
	DD	FLAT:__catchsym$??1CGdiObject@@UAE@XZ$3
__unwindtable$??1CGdiObject@@UAE@XZ DD 0ffffffffH
	DD	00H
	DD	0ffffffffH
	DD	00H
	DD	01H
	DD	FLAT:__unwindfunclet$??1CGdiObject@@UAE@XZ$2
__ehfuncinfo$??1CGdiObject@@UAE@XZ DD 019930522H
	DD	03H
	DD	FLAT:__unwindtable$??1CGdiObject@@UAE@XZ
	DD	01H
	DD	FLAT:__tryblocktable$??1CGdiObject@@UAE@XZ
	DD	2 DUP(00H)
	DD	00H
	DD	05H
xdata$x	ENDS
; Function compile flags: /Ogtp
; File D:\git\src\IBK\IBK_DRFN\ProjSrc\SrcDrfn\Chart\comparechart\control\GfxOutBarCtrl.cpp
; File C:\Program Files (x86)\Microsoft Visual Studio\2019\Community\VC\Tools\MSVC\14.29.30133\atlmfc\include\afxwin1.inl
; File D:\git\src\IBK\IBK_DRFN\ProjSrc\SrcDrfn\Chart\comparechart\control\GfxOutBarCtrl.cpp
; File C:\Program Files (x86)\Microsoft Visual Studio\2019\Community\VC\Tools\MSVC\14.29.30133\atlmfc\include\afx.inl
;	COMDAT ??_GCGfxOutBarCtrl@@UAEPAXI@Z
_TEXT	SEGMENT
___flags$ = 8						; size = 4
??_GCGfxOutBarCtrl@@UAEPAXI@Z PROC			; CGfxOutBarCtrl::`scalar deleting destructor', COMDAT
; _this$ = ecx
  00000	55		 push	 ebp
  00001	8b ec		 mov	 ebp, esp
; File D:\git\src\IBK\IBK_DRFN\ProjSrc\SrcDrfn\Chart\comparechart\control\GfxOutBarCtrl.cpp

; 116  : {

  00003	56		 push	 esi
  00004	8b f1		 mov	 esi, ecx

; 117  : }

  00006	8d 8e 54 01 00
	00		 lea	 ecx, DWORD PTR [esi+340]
  0000c	c7 06 00 00 00
	00		 mov	 DWORD PTR [esi], OFFSET ??_7CGfxOutBarCtrl@@6B@
; File C:\Program Files (x86)\Microsoft Visual Studio\2019\Community\VC\Tools\MSVC\14.29.30133\atlmfc\include\afxwin1.inl

; 155  : 	{ }

  00012	c7 01 00 00 00
	00		 mov	 DWORD PTR [ecx], OFFSET ??_7CFont@@6B@
  00018	e8 00 00 00 00	 call	 ??1CGdiObject@@UAE@XZ	; CGdiObject::~CGdiObject
; File D:\git\src\IBK\IBK_DRFN\ProjSrc\SrcDrfn\Chart\comparechart\control\GfxOutBarCtrl.cpp

; 117  : }

  0001d	8d 8e 04 01 00
	00		 lea	 ecx, DWORD PTR [esi+260]
  00023	e8 00 00 00 00	 call	 ??1CPtrArray@@UAE@XZ	; CPtrArray::~CPtrArray
  00028	8b ce		 mov	 ecx, esi
  0002a	e8 00 00 00 00	 call	 ??1CWnd@@UAE@XZ		; CWnd::~CWnd
  0002f	8b 45 08	 mov	 eax, DWORD PTR ___flags$[ebp]
  00032	a8 01		 test	 al, 1
  00034	74 22		 je	 SHORT $LN15@scalar
  00036	a8 04		 test	 al, 4
  00038	75 10		 jne	 SHORT $LN3@scalar
; File C:\Program Files (x86)\Microsoft Visual Studio\2019\Community\VC\Tools\MSVC\14.29.30133\atlmfc\include\afx.inl

; 112  : 	{ ::operator delete(p); }

  0003a	56		 push	 esi
  0003b	e8 00 00 00 00	 call	 ??3@YAXPAX@Z		; operator delete
  00040	83 c4 04	 add	 esp, 4
  00043	8b c6		 mov	 eax, esi
  00045	5e		 pop	 esi
  00046	5d		 pop	 ebp
  00047	c2 04 00	 ret	 4
$LN3@scalar:
  0004a	68 70 01 00 00	 push	 368			; 00000170H
  0004f	56		 push	 esi
  00050	e8 00 00 00 00	 call	 ?__global_delete@@YAXPAXI@Z ; __global_delete
  00055	83 c4 08	 add	 esp, 8
$LN15@scalar:
  00058	8b c6		 mov	 eax, esi
  0005a	5e		 pop	 esi
  0005b	5d		 pop	 ebp
  0005c	c2 04 00	 ret	 4
??_GCGfxOutBarCtrl@@UAEPAXI@Z ENDP			; CGfxOutBarCtrl::`scalar deleting destructor'
_TEXT	ENDS
; Function compile flags: /Ogtp
; File D:\git\src\IBK\IBK_DRFN\ProjSrc\SrcDrfn\Chart\comparechart\control\GfxOutBarCtrl.cpp
;	COMDAT ?GetMessageMap@CGfxOutBarCtrl@@MBEPBUAFX_MSGMAP@@XZ
_TEXT	SEGMENT
?GetMessageMap@CGfxOutBarCtrl@@MBEPBUAFX_MSGMAP@@XZ PROC ; CGfxOutBarCtrl::GetMessageMap, COMDAT
; _this$ = ecx

; 119  : BEGIN_MESSAGE_MAP(CGfxOutBarCtrl, CWnd)

  00000	b8 00 00 00 00	 mov	 eax, OFFSET ?messageMap@?1??GetThisMessageMap@CGfxOutBarCtrl@@KGPBUAFX_MSGMAP@@XZ@4U3@B
  00005	c3		 ret	 0
?GetMessageMap@CGfxOutBarCtrl@@MBEPBUAFX_MSGMAP@@XZ ENDP ; CGfxOutBarCtrl::GetMessageMap
_TEXT	ENDS
; Function compile flags: /Ogtp
; File D:\git\src\IBK\IBK_DRFN\ProjSrc\SrcDrfn\Chart\comparechart\control\GfxOutBarCtrl.cpp
;	COMDAT ?GetThisMessageMap@CGfxOutBarCtrl@@KGPBUAFX_MSGMAP@@XZ
_TEXT	SEGMENT
?GetThisMessageMap@CGfxOutBarCtrl@@KGPBUAFX_MSGMAP@@XZ PROC ; CGfxOutBarCtrl::GetThisMessageMap, COMDAT

; 120  : 	//{{AFX_MSG_MAP(CGfxOutBarCtrl)
; 121  : 	ON_WM_CREATE()
; 122  : 	ON_WM_TIMER()
; 123  : 	ON_WM_PAINT()
; 124  : 	ON_WM_ERASEBKGND()
; 125  : 	ON_WM_MOUSEMOVE()
; 126  : 	ON_WM_LBUTTONDOWN()
; 127  : 	ON_WM_SETCURSOR()
; 128  : 	ON_WM_SIZE()
; 129  : 	ON_COMMAND(ID_GFX_LARGEICON, OnGfxLargeicon)
; 130  : 	ON_UPDATE_COMMAND_UI(ID_GFX_LARGEICON, OnUpdateGfxLargeicon)
; 131  : 	ON_COMMAND(ID_GFX_SMALLICON, OnGfxSmallicon)
; 132  : 	ON_UPDATE_COMMAND_UI(ID_GFX_SMALLICON, OnUpdateGfxSmallicon)
; 133  : 	ON_COMMAND(ID_GFX_REMOVEITEM, OnGfxRemoveitem)
; 134  : 	ON_UPDATE_COMMAND_UI(ID_GFX_REMOVEITEM, OnUpdateGfxRemoveitem)
; 135  : 	ON_UPDATE_COMMAND_UI(ID_GFX_RENAMEITEM, OnUpdateGfxRenameitem)
; 136  : 	ON_WM_DESTROY()
; 137  : 	ON_WM_RBUTTONDOWN()
; 138  : 	ON_WM_LBUTTONDBLCLK()
; 139  : 	//}}AFX_MSG_MAP
; 140  : END_MESSAGE_MAP()

  00000	b8 00 00 00 00	 mov	 eax, OFFSET ?messageMap@?1??GetThisMessageMap@CGfxOutBarCtrl@@KGPBUAFX_MSGMAP@@XZ@4U3@B
  00005	c3		 ret	 0
?GetThisMessageMap@CGfxOutBarCtrl@@KGPBUAFX_MSGMAP@@XZ ENDP ; CGfxOutBarCtrl::GetThisMessageMap
_TEXT	ENDS
; Function compile flags: /Ogtp
; File D:\git\src\IBK\IBK_DRFN\ProjSrc\SrcDrfn\Chart\comparechart\control\GfxOutBarCtrl.cpp
; File C:\Program Files (x86)\Microsoft Visual Studio\2019\Community\VC\Tools\MSVC\14.29.30133\atlmfc\include\afxwin2.inl
; File D:\git\src\IBK\IBK_DRFN\ProjSrc\SrcDrfn\Chart\comparechart\control\GfxOutBarCtrl.cpp
; File C:\Program Files (x86)\Microsoft Visual Studio\2019\Community\VC\Tools\MSVC\14.29.30133\atlmfc\include\afxwin2.inl
; File D:\git\src\IBK\IBK_DRFN\ProjSrc\SrcDrfn\Chart\comparechart\control\GfxOutBarCtrl.cpp
; File C:\Program Files (x86)\Microsoft Visual Studio\2019\Community\VC\Tools\MSVC\14.29.30133\atlmfc\include\afxwin2.inl
; File C:\Program Files (x86)\Microsoft Visual Studio\2019\Community\VC\Tools\MSVC\14.29.30133\atlmfc\include\atltypes.h
; File C:\Program Files (x86)\Microsoft Visual Studio\2019\Community\VC\Tools\MSVC\14.29.30133\atlmfc\include\afxwin2.inl
; File D:\git\src\IBK\IBK_DRFN\ProjSrc\SrcDrfn\Chart\comparechart\control\GfxOutBarCtrl.cpp
; File C:\Program Files (x86)\Microsoft Visual Studio\2019\Community\VC\Tools\MSVC\14.29.30133\atlmfc\include\atltypes.h
; File D:\git\src\IBK\IBK_DRFN\ProjSrc\SrcDrfn\Chart\comparechart\control\GfxOutBarCtrl.cpp
; File C:\Program Files (x86)\Microsoft Visual Studio\2019\Community\VC\Tools\MSVC\14.29.30133\atlmfc\include\afxwin2.inl
; File D:\git\src\IBK\IBK_DRFN\ProjSrc\SrcDrfn\Chart\comparechart\control\GfxOutBarCtrl.cpp
; File C:\Program Files (x86)\Microsoft Visual Studio\2019\Community\VC\Tools\MSVC\14.29.30133\atlmfc\include\afxwin2.inl
; File D:\git\src\IBK\IBK_DRFN\ProjSrc\SrcDrfn\Chart\comparechart\control\GfxOutBarCtrl.cpp
; File C:\Program Files (x86)\Microsoft Visual Studio\2019\Community\VC\Tools\MSVC\14.29.30133\atlmfc\include\atltypes.h
; File D:\git\src\IBK\IBK_DRFN\ProjSrc\SrcDrfn\Chart\comparechart\control\GfxOutBarCtrl.cpp
; File C:\Program Files (x86)\Microsoft Visual Studio\2019\Community\VC\Tools\MSVC\14.29.30133\atlmfc\include\atltypes.h
; File D:\git\src\IBK\IBK_DRFN\ProjSrc\SrcDrfn\Chart\comparechart\control\GfxOutBarCtrl.cpp
; File C:\Program Files (x86)\Microsoft Visual Studio\2019\Community\VC\Tools\MSVC\14.29.30133\atlmfc\include\afxwin2.inl
; File D:\git\src\IBK\IBK_DRFN\ProjSrc\SrcDrfn\Chart\comparechart\control\GfxOutBarCtrl.cpp
; File C:\Program Files (x86)\Microsoft Visual Studio\2019\Community\VC\Tools\MSVC\14.29.30133\atlmfc\include\afxwin2.inl
; File D:\git\src\IBK\IBK_DRFN\ProjSrc\SrcDrfn\Chart\comparechart\control\GfxOutBarCtrl.cpp
; File C:\Program Files (x86)\Microsoft Visual Studio\2019\Community\VC\Tools\MSVC\14.29.30133\atlmfc\include\atltypes.h
; File D:\git\src\IBK\IBK_DRFN\ProjSrc\SrcDrfn\Chart\comparechart\control\GfxOutBarCtrl.cpp
; File C:\Program Files (x86)\Microsoft Visual Studio\2019\Community\VC\Tools\MSVC\14.29.30133\atlmfc\include\afxwin2.inl
; File D:\git\src\IBK\IBK_DRFN\ProjSrc\SrcDrfn\Chart\comparechart\control\GfxOutBarCtrl.cpp
; File C:\Program Files (x86)\Microsoft Visual Studio\2019\Community\VC\Tools\MSVC\14.29.30133\atlmfc\include\afxwin2.inl
; File D:\git\src\IBK\IBK_DRFN\ProjSrc\SrcDrfn\Chart\comparechart\control\GfxOutBarCtrl.cpp
; File C:\Program Files (x86)\Microsoft Visual Studio\2019\Community\VC\Tools\MSVC\14.29.30133\atlmfc\include\afxwin2.inl
; File D:\git\src\IBK\IBK_DRFN\ProjSrc\SrcDrfn\Chart\comparechart\control\GfxOutBarCtrl.cpp
; File C:\Program Files (x86)\Microsoft Visual Studio\2019\Community\VC\Tools\MSVC\14.29.30133\atlmfc\include\atltypes.h
; File D:\git\src\IBK\IBK_DRFN\ProjSrc\SrcDrfn\Chart\comparechart\control\GfxOutBarCtrl.cpp
; File C:\Program Files (x86)\Microsoft Visual Studio\2019\Community\VC\Tools\MSVC\14.29.30133\atlmfc\include\atltypes.h
; File D:\git\src\IBK\IBK_DRFN\ProjSrc\SrcDrfn\Chart\comparechart\control\GfxOutBarCtrl.cpp
; File C:\Program Files (x86)\Microsoft Visual Studio\2019\Community\VC\Tools\MSVC\14.29.30133\atlmfc\include\atltypes.h
; File D:\git\src\IBK\IBK_DRFN\ProjSrc\SrcDrfn\Chart\comparechart\control\GfxOutBarCtrl.cpp
; File C:\Program Files (x86)\Microsoft Visual Studio\2019\Community\VC\Tools\MSVC\14.29.30133\atlmfc\include\atltypes.h
; File C:\Program Files (x86)\Microsoft Visual Studio\2019\Community\VC\Tools\MSVC\14.29.30133\atlmfc\include\afxwin2.inl
; File D:\git\src\IBK\IBK_DRFN\ProjSrc\SrcDrfn\Chart\comparechart\control\GfxOutBarCtrl.cpp
; File C:\Program Files (x86)\Microsoft Visual Studio\2019\Community\VC\Tools\MSVC\14.29.30133\atlmfc\include\atltypes.h
; File D:\git\src\IBK\IBK_DRFN\ProjSrc\SrcDrfn\Chart\comparechart\control\GfxOutBarCtrl.cpp
; File C:\Program Files (x86)\Microsoft Visual Studio\2019\Community\VC\Tools\MSVC\14.29.30133\atlmfc\include\atltypes.h
; File C:\Program Files (x86)\Microsoft Visual Studio\2019\Community\VC\Tools\MSVC\14.29.30133\atlmfc\include\afxwin2.inl
; File D:\git\src\IBK\IBK_DRFN\ProjSrc\SrcDrfn\Chart\comparechart\control\GfxOutBarCtrl.cpp
; File C:\Program Files (x86)\Microsoft Visual Studio\2019\Community\VC\Tools\MSVC\14.29.30133\atlmfc\include\afxwin2.inl
; File D:\git\src\IBK\IBK_DRFN\ProjSrc\SrcDrfn\Chart\comparechart\control\GfxOutBarCtrl.cpp
; File C:\Program Files (x86)\Microsoft Visual Studio\2019\Community\VC\Tools\MSVC\14.29.30133\atlmfc\include\afxwin2.inl
; File D:\git\src\IBK\IBK_DRFN\ProjSrc\SrcDrfn\Chart\comparechart\control\GfxOutBarCtrl.cpp
; File C:\Program Files (x86)\Microsoft Visual Studio\2019\Community\VC\Tools\MSVC\14.29.30133\atlmfc\include\afxwin1.inl
; File D:\git\src\IBK\IBK_DRFN\ProjSrc\SrcDrfn\Chart\comparechart\control\GfxOutBarCtrl.cpp
; File C:\Program Files (x86)\Microsoft Visual Studio\2019\Community\VC\Tools\MSVC\14.29.30133\atlmfc\include\afxwin1.inl
; File C:\Program Files (x86)\Microsoft Visual Studio\2019\Community\VC\Tools\MSVC\14.29.30133\atlmfc\include\afxwin2.inl
; File D:\git\src\IBK\IBK_DRFN\ProjSrc\SrcDrfn\Chart\comparechart\control\GfxOutBarCtrl.cpp
; File C:\Program Files (x86)\Microsoft Visual Studio\2019\Community\VC\Tools\MSVC\14.29.30133\atlmfc\include\afxwin2.inl
; File D:\git\src\IBK\IBK_DRFN\ProjSrc\SrcDrfn\Chart\comparechart\control\GfxOutBarCtrl.cpp
; File C:\Program Files (x86)\Microsoft Visual Studio\2019\Community\VC\Tools\MSVC\14.29.30133\atlmfc\include\afxwin1.inl
; File C:\Program Files (x86)\Microsoft Visual Studio\2019\Community\VC\Tools\MSVC\14.29.30133\atlmfc\include\atltypes.h
; File D:\git\src\IBK\IBK_DRFN\ProjSrc\SrcDrfn\Chart\comparechart\control\GfxOutBarCtrl.cpp
; File C:\Program Files (x86)\Microsoft Visual Studio\2019\Community\VC\Tools\MSVC\14.29.30133\atlmfc\include\atltypes.h
; File D:\git\src\IBK\IBK_DRFN\ProjSrc\SrcDrfn\Chart\comparechart\control\GfxOutBarCtrl.cpp
; File C:\Program Files (x86)\Microsoft Visual Studio\2019\Community\VC\Tools\MSVC\14.29.30133\atlmfc\include\atltypes.h
; File C:\Program Files (x86)\Microsoft Visual Studio\2019\Community\VC\Tools\MSVC\14.29.30133\atlmfc\include\afxcoll.inl
; File D:\git\src\IBK\IBK_DRFN\ProjSrc\SrcDrfn\Chart\comparechart\control\GfxOutBarCtrl.cpp
; File C:\Program Files (x86)\Microsoft Visual Studio\2019\Community\VC\Tools\MSVC\14.29.30133\atlmfc\include\afxcoll.inl
; File D:\git\src\IBK\IBK_DRFN\ProjSrc\SrcDrfn\Chart\comparechart\control\GfxOutBarCtrl.cpp
; File C:\Program Files (x86)\Microsoft Visual Studio\2019\Community\VC\Tools\MSVC\14.29.30133\atlmfc\include\afxwin2.inl
; File C:\Program Files (x86)\Microsoft Visual Studio\2019\Community\VC\Tools\MSVC\14.29.30133\atlmfc\include\atltypes.h
; File C:\Program Files (x86)\Microsoft Visual Studio\2019\Community\VC\Tools\MSVC\14.29.30133\atlmfc\include\afxwin2.inl
; File D:\git\src\IBK\IBK_DRFN\ProjSrc\SrcDrfn\Chart\comparechart\control\GfxOutBarCtrl.cpp
; File C:\Program Files (x86)\Microsoft Visual Studio\2019\Community\VC\Tools\MSVC\14.29.30133\atlmfc\include\atltypes.h
; File C:\Program Files (x86)\Microsoft Visual Studio\2019\Community\VC\Tools\MSVC\14.29.30133\atlmfc\include\afxwin2.inl
; File C:\Program Files (x86)\Microsoft Visual Studio\2019\Community\VC\Tools\MSVC\14.29.30133\atlmfc\include\atltypes.h
; File C:\Program Files (x86)\Microsoft Visual Studio\2019\Community\VC\Tools\MSVC\14.29.30133\atlmfc\include\afxwin2.inl
; File C:\Program Files (x86)\Microsoft Visual Studio\2019\Community\VC\Tools\MSVC\14.29.30133\atlmfc\include\atltypes.h
; File D:\git\src\IBK\IBK_DRFN\ProjSrc\SrcDrfn\Chart\comparechart\control\GfxOutBarCtrl.cpp
; File C:\Program Files (x86)\Microsoft Visual Studio\2019\Community\VC\Tools\MSVC\14.29.30133\atlmfc\include\atltypes.h
; File C:\Program Files (x86)\Microsoft Visual Studio\2019\Community\VC\Tools\MSVC\14.29.30133\atlmfc\include\afxcoll.inl
; File D:\git\src\IBK\IBK_DRFN\ProjSrc\SrcDrfn\Chart\comparechart\control\GfxOutBarCtrl.cpp
; File C:\Program Files (x86)\Microsoft Visual Studio\2019\Community\VC\Tools\MSVC\14.29.30133\atlmfc\include\afxcoll.inl
; File D:\git\src\IBK\IBK_DRFN\ProjSrc\SrcDrfn\Chart\comparechart\control\GfxOutBarCtrl.cpp
; File C:\Program Files (x86)\Microsoft Visual Studio\2019\Community\VC\Tools\MSVC\14.29.30133\atlmfc\include\afxwin2.inl
; File C:\Program Files (x86)\Microsoft Visual Studio\2019\Community\VC\Tools\MSVC\14.29.30133\atlmfc\include\atltypes.h
; File C:\Program Files (x86)\Microsoft Visual Studio\2019\Community\VC\Tools\MSVC\14.29.30133\atlmfc\include\afxwin2.inl
; File D:\git\src\IBK\IBK_DRFN\ProjSrc\SrcDrfn\Chart\comparechart\control\GfxOutBarCtrl.cpp
; File C:\Program Files (x86)\Microsoft Visual Studio\2019\Community\VC\Tools\MSVC\14.29.30133\atlmfc\include\afxwin2.inl
; File D:\git\src\IBK\IBK_DRFN\ProjSrc\SrcDrfn\Chart\comparechart\control\GfxOutBarCtrl.cpp
; File C:\Program Files (x86)\Microsoft Visual Studio\2019\Community\VC\Tools\MSVC\14.29.30133\atlmfc\include\afxwin2.inl
; File D:\git\src\IBK\IBK_DRFN\ProjSrc\SrcDrfn\Chart\comparechart\control\GfxOutBarCtrl.cpp
; File C:\Program Files (x86)\Microsoft Visual Studio\2019\Community\VC\Tools\MSVC\14.29.30133\atlmfc\include\afxwin2.inl
; File D:\git\src\IBK\IBK_DRFN\ProjSrc\SrcDrfn\Chart\comparechart\control\GfxOutBarCtrl.cpp
; File C:\Program Files (x86)\Microsoft Visual Studio\2019\Community\VC\Tools\MSVC\14.29.30133\atlmfc\include\afxwin2.inl
; File D:\git\src\IBK\IBK_DRFN\ProjSrc\SrcDrfn\Chart\comparechart\control\GfxOutBarCtrl.cpp
; File C:\Program Files (x86)\Microsoft Visual Studio\2019\Community\VC\Tools\MSVC\14.29.30133\atlmfc\include\afxwin2.inl
; File D:\git\src\IBK\IBK_DRFN\ProjSrc\SrcDrfn\Chart\comparechart\control\GfxOutBarCtrl.cpp
; File C:\Program Files (x86)\Microsoft Visual Studio\2019\Community\VC\Tools\MSVC\14.29.30133\atlmfc\include\atltypes.h
; File C:\Program Files (x86)\Microsoft Visual Studio\2019\Community\VC\Tools\MSVC\14.29.30133\atlmfc\include\afxwin2.inl
; File D:\git\src\IBK\IBK_DRFN\ProjSrc\SrcDrfn\Chart\comparechart\control\GfxOutBarCtrl.cpp
; File C:\Program Files (x86)\Microsoft Visual Studio\2019\Community\VC\Tools\MSVC\14.29.30133\atlmfc\include\afxwin2.inl
; File D:\git\src\IBK\IBK_DRFN\ProjSrc\SrcDrfn\Chart\comparechart\control\GfxOutBarCtrl.cpp
; File C:\Program Files (x86)\Microsoft Visual Studio\2019\Community\VC\Tools\MSVC\14.29.30133\atlmfc\include\afxwin2.inl
; File D:\git\src\IBK\IBK_DRFN\ProjSrc\SrcDrfn\Chart\comparechart\control\GfxOutBarCtrl.cpp
; File C:\Program Files (x86)\Microsoft Visual Studio\2019\Community\VC\Tools\MSVC\14.29.30133\atlmfc\include\afxwin2.inl
; File D:\git\src\IBK\IBK_DRFN\ProjSrc\SrcDrfn\Chart\comparechart\control\GfxOutBarCtrl.cpp
; File C:\Program Files (x86)\Microsoft Visual Studio\2019\Community\VC\Tools\MSVC\14.29.30133\atlmfc\include\afxwin1.inl
; File D:\git\src\IBK\IBK_DRFN\ProjSrc\SrcDrfn\Chart\comparechart\control\GfxOutBarCtrl.cpp
; File C:\Program Files (x86)\Microsoft Visual Studio\2019\Community\VC\Tools\MSVC\14.29.30133\atlmfc\include\afxwin1.inl
; File C:\Program Files (x86)\Microsoft Visual Studio\2019\Community\VC\Tools\MSVC\14.29.30133\atlmfc\include\afxwin2.inl
; File D:\git\src\IBK\IBK_DRFN\ProjSrc\SrcDrfn\Chart\comparechart\control\GfxOutBarCtrl.cpp
; File C:\Program Files (x86)\Microsoft Visual Studio\2019\Community\VC\Tools\MSVC\14.29.30133\atlmfc\include\afxwin2.inl
; File D:\git\src\IBK\IBK_DRFN\ProjSrc\SrcDrfn\Chart\comparechart\control\GfxOutBarCtrl.cpp
; File C:\Program Files (x86)\Microsoft Visual Studio\2019\Community\VC\Tools\MSVC\14.29.30133\atlmfc\include\afxwin1.inl
; File C:\Program Files (x86)\Microsoft Visual Studio\2019\Community\VC\Tools\MSVC\14.29.30133\atlmfc\include\atltypes.h
; File D:\git\src\IBK\IBK_DRFN\ProjSrc\SrcDrfn\Chart\comparechart\control\GfxOutBarCtrl.cpp
; File C:\Program Files (x86)\Microsoft Visual Studio\2019\Community\VC\Tools\MSVC\14.29.30133\atlmfc\include\atltypes.h
; File D:\git\src\IBK\IBK_DRFN\ProjSrc\SrcDrfn\Chart\comparechart\control\GfxOutBarCtrl.cpp
; File C:\Program Files (x86)\Microsoft Visual Studio\2019\Community\VC\Tools\MSVC\14.29.30133\atlmfc\include\afxwin2.inl
; File C:\Program Files (x86)\Microsoft Visual Studio\2019\Community\VC\Tools\MSVC\14.29.30133\atlmfc\include\atltypes.h
; File C:\Program Files (x86)\Microsoft Visual Studio\2019\Community\VC\Tools\MSVC\14.29.30133\atlmfc\include\afxwin2.inl
; File D:\git\src\IBK\IBK_DRFN\ProjSrc\SrcDrfn\Chart\comparechart\control\GfxOutBarCtrl.cpp
; File C:\Program Files (x86)\Microsoft Visual Studio\2019\Community\VC\Tools\MSVC\14.29.30133\atlmfc\include\afxwin2.inl
; File D:\git\src\IBK\IBK_DRFN\ProjSrc\SrcDrfn\Chart\comparechart\control\GfxOutBarCtrl.cpp
; File C:\Program Files (x86)\Microsoft Visual Studio\2019\Community\VC\Tools\MSVC\14.29.30133\atlmfc\include\afxwin2.inl
; File D:\git\src\IBK\IBK_DRFN\ProjSrc\SrcDrfn\Chart\comparechart\control\GfxOutBarCtrl.cpp
; File C:\Program Files (x86)\Microsoft Visual Studio\2019\Community\VC\Tools\MSVC\14.29.30133\atlmfc\include\afxwin2.inl
; File D:\git\src\IBK\IBK_DRFN\ProjSrc\SrcDrfn\Chart\comparechart\control\GfxOutBarCtrl.cpp
; File C:\Program Files (x86)\Microsoft Visual Studio\2019\Community\VC\Tools\MSVC\14.29.30133\atlmfc\include\atltypes.h
; File C:\Program Files (x86)\Microsoft Visual Studio\2019\Community\VC\Tools\MSVC\14.29.30133\atlmfc\include\afxwin2.inl
; File D:\git\src\IBK\IBK_DRFN\ProjSrc\SrcDrfn\Chart\comparechart\control\GfxOutBarCtrl.cpp
; File C:\Program Files (x86)\Microsoft Visual Studio\2019\Community\VC\Tools\MSVC\14.29.30133\atlmfc\include\afxwin2.inl
; File D:\git\src\IBK\IBK_DRFN\ProjSrc\SrcDrfn\Chart\comparechart\control\GfxOutBarCtrl.cpp
; File C:\Program Files (x86)\Microsoft Visual Studio\2019\Community\VC\Tools\MSVC\14.29.30133\atlmfc\include\afxwin2.inl
; File D:\git\src\IBK\IBK_DRFN\ProjSrc\SrcDrfn\Chart\comparechart\control\GfxOutBarCtrl.cpp
; File C:\Program Files (x86)\Microsoft Visual Studio\2019\Community\VC\Tools\MSVC\14.29.30133\atlmfc\include\atltypes.h
; File C:\Program Files (x86)\Microsoft Visual Studio\2019\Community\VC\Tools\MSVC\14.29.30133\atlmfc\include\afxwin2.inl
; File C:\Program Files (x86)\Microsoft Visual Studio\2019\Community\VC\Tools\MSVC\14.29.30133\atlmfc\include\atltypes.h
; File C:\Program Files (x86)\Microsoft Visual Studio\2019\Community\VC\Tools\MSVC\14.29.30133\atlmfc\include\afxwin2.inl
; File C:\Program Files (x86)\Microsoft Visual Studio\2019\Community\VC\Tools\MSVC\14.29.30133\atlmfc\include\atltypes.h
; File D:\git\src\IBK\IBK_DRFN\ProjSrc\SrcDrfn\Chart\comparechart\control\GfxOutBarCtrl.cpp
; File C:\Program Files (x86)\Microsoft Visual Studio\2019\Community\VC\Tools\MSVC\14.29.30133\atlmfc\include\afxwin2.inl
; File C:\Program Files (x86)\Microsoft Visual Studio\2019\Community\VC\Tools\MSVC\14.29.30133\atlmfc\include\atltypes.h
; File C:\Program Files (x86)\Microsoft Visual Studio\2019\Community\VC\Tools\MSVC\14.29.30133\atlmfc\include\afxwin2.inl
; File D:\git\src\IBK\IBK_DRFN\ProjSrc\SrcDrfn\Chart\comparechart\control\GfxOutBarCtrl.cpp
; File C:\Program Files (x86)\Microsoft Visual Studio\2019\Community\VC\Tools\MSVC\14.29.30133\atlmfc\include\afxwin2.inl
; File D:\git\src\IBK\IBK_DRFN\ProjSrc\SrcDrfn\Chart\comparechart\control\GfxOutBarCtrl.cpp
; File C:\Program Files (x86)\Microsoft Visual Studio\2019\Community\VC\Tools\MSVC\14.29.30133\atlmfc\include\afxwin2.inl
; File D:\git\src\IBK\IBK_DRFN\ProjSrc\SrcDrfn\Chart\comparechart\control\GfxOutBarCtrl.cpp
;	COMDAT ?OnLButtonDblClk@CGfxOutBarCtrl@@IAEXIVCPoint@@@Z
_TEXT	SEGMENT
_msg$2 = -192						; size = 28
_dc$3 = -184						; size = 20
_dc$4 = -164						; size = 20
_dc$5 = -164						; size = 20
_dc$6 = -164						; size = 20
_msg$7 = -144						; size = 28
_msg$8 = -144						; size = 28
_msg$9 = -144						; size = 28
_bHigh$1$ = -113					; size = 1
_bHigh$1$ = -113					; size = 1
_inRc$ = -112						; size = 16
_crc$10 = -96						; size = 16
_crc$11 = -80						; size = 16
_pt$12 = -72						; size = 8
_idx$13 = -68						; size = 4
_index$ = -68						; size = 4
_crc$14 = -64						; size = 16
_itrc$15 = -64						; size = 16
_itrc$16 = -64						; size = 16
_rc$17 = -64						; size = 16
_rc$18 = -64						; size = 16
_crc$19 = -48						; size = 16
_crc$20 = -48						; size = 16
_rc$21 = -48						; size = 16
_rc$22 = -48						; size = 16
_crc$23 = -32						; size = 16
_pt$24 = -24						; size = 8
_pt$25 = -24						; size = 8
_pt$26 = -24						; size = 8
_hCur$1$ = -20						; size = 4
_ht$1$ = -20						; size = 4
_idx$27 = -20						; size = 4
__$ArrayPad$ = -16					; size = 4
__$EHRec$ = -12						; size = 12
_nFlags$ = 8						; size = 4
_point$ = 12						; size = 8
?OnLButtonDblClk@CGfxOutBarCtrl@@IAEXIVCPoint@@@Z PROC	; CGfxOutBarCtrl::OnLButtonDblClk, COMDAT
; _this$ = ecx

; 2448 : {

  00000	55		 push	 ebp
  00001	8b ec		 mov	 ebp, esp
  00003	6a ff		 push	 -1
  00005	68 00 00 00 00	 push	 __ehhandler$?OnLButtonDblClk@CGfxOutBarCtrl@@IAEXIVCPoint@@@Z
  0000a	64 a1 00 00 00
	00		 mov	 eax, DWORD PTR fs:0
  00010	50		 push	 eax
  00011	81 ec b4 00 00
	00		 sub	 esp, 180		; 000000b4H
  00017	a1 00 00 00 00	 mov	 eax, DWORD PTR ___security_cookie
  0001c	33 c5		 xor	 eax, ebp
  0001e	89 45 f0	 mov	 DWORD PTR __$ArrayPad$[ebp], eax
  00021	56		 push	 esi
  00022	57		 push	 edi
  00023	50		 push	 eax
  00024	8d 45 f4	 lea	 eax, DWORD PTR __$EHRec$[ebp]
  00027	64 a3 00 00 00
	00		 mov	 DWORD PTR fs:0, eax
  0002d	8b f1		 mov	 esi, ecx
; File C:\Program Files (x86)\Microsoft Visual Studio\2019\Community\VC\Tools\MSVC\14.29.30133\atlmfc\include\afxwin2.inl

; 165  : 	{ return CWnd::FromHandle(::GetFocus()); }

  0002f	ff 15 00 00 00
	00		 call	 DWORD PTR __imp__GetFocus@0
  00035	50		 push	 eax
  00036	e8 00 00 00 00	 call	 ?FromHandle@CWnd@@SGPAV1@PAUHWND__@@@Z ; CWnd::FromHandle
; File D:\git\src\IBK\IBK_DRFN\ProjSrc\SrcDrfn\Chart\comparechart\control\GfxOutBarCtrl.cpp

; 2449 : 	if (GetFocus() != this) SetFocus();

  0003b	3b c6		 cmp	 eax, esi
  0003d	74 07		 je	 SHORT $LN22@OnLButtonD
  0003f	8b ce		 mov	 ecx, esi
  00041	e8 00 00 00 00	 call	 ?SetFocus@CWnd@@QAEPAV1@XZ ; CWnd::SetFocus
$LN22@OnLButtonD:

; 2450 : 
; 2451 : 	int index, ht = HitTestEx(point, index);

  00046	8d 45 bc	 lea	 eax, DWORD PTR _index$[ebp]
  00049	8b ce		 mov	 ecx, esi
  0004b	50		 push	 eax
  0004c	8d 45 0c	 lea	 eax, DWORD PTR _point$[ebp]
  0004f	50		 push	 eax
  00050	e8 00 00 00 00	 call	 ?HitTestEx@CGfxOutBarCtrl@@QAEHABVCPoint@@AAH@Z ; CGfxOutBarCtrl::HitTestEx
  00055	89 45 ec	 mov	 DWORD PTR _ht$1$[ebp], eax
  00058	0f 57 c0	 xorps	 xmm0, xmm0
; File C:\Program Files (x86)\Microsoft Visual Studio\2019\Community\VC\Tools\MSVC\14.29.30133\atlmfc\include\afxwin2.inl

; 86   : 	{ ASSERT(::IsWindow(m_hWnd)); ::GetClientRect(m_hWnd, lpRect); }

  0005b	8d 45 90	 lea	 eax, DWORD PTR _inRc$[ebp]
; File D:\git\src\IBK\IBK_DRFN\ProjSrc\SrcDrfn\Chart\comparechart\control\GfxOutBarCtrl.cpp

; 2452 : 	iLastDragItemDrawType = -1;

  0005e	c7 86 30 01 00
	00 ff ff ff ff	 mov	 DWORD PTR [esi+304], -1
; File C:\Program Files (x86)\Microsoft Visual Studio\2019\Community\VC\Tools\MSVC\14.29.30133\atlmfc\include\afxwin2.inl

; 86   : 	{ ASSERT(::IsWindow(m_hWnd)); ::GetClientRect(m_hWnd, lpRect); }

  00068	50		 push	 eax
  00069	ff 76 20	 push	 DWORD PTR [esi+32]
; File C:\Program Files (x86)\Microsoft Visual Studio\2019\Community\VC\Tools\MSVC\14.29.30133\atlmfc\include\atltypes.h

; 528  : 	left = 0;

  0006c	0f 11 45 90	 movups	 XMMWORD PTR _inRc$[ebp], xmm0
; File C:\Program Files (x86)\Microsoft Visual Studio\2019\Community\VC\Tools\MSVC\14.29.30133\atlmfc\include\afxwin2.inl

; 86   : 	{ ASSERT(::IsWindow(m_hWnd)); ::GetClientRect(m_hWnd, lpRect); }

  00070	ff 15 00 00 00
	00		 call	 DWORD PTR __imp__GetClientRect@8
; File D:\git\src\IBK\IBK_DRFN\ProjSrc\SrcDrfn\Chart\comparechart\control\GfxOutBarCtrl.cpp

; 746  : 	if (arFolder.GetSize() > 0)

  00076	8b be 0c 01 00
	00		 mov	 edi, DWORD PTR [esi+268]
  0007c	85 ff		 test	 edi, edi
  0007e	7e 1e		 jle	 SHORT $LN363@OnLButtonD

; 747  : 	{
; 748  : 		int max = arFolder.GetSize();
; 749  : 		rect.top += iFolderHeight * (iSelFolder + 1); + 1;//+ 2;

  00080	8b 8e 34 01 00
	00		 mov	 ecx, DWORD PTR [esi+308]

; 750  : 		rect.bottom -= (max - iSelFolder - 1)*iFolderHeight;

  00086	2b f9		 sub	 edi, ecx
  00088	8b 96 a0 00 00
	00		 mov	 edx, DWORD PTR [esi+160]
  0008e	4f		 dec	 edi
  0008f	0f af fa	 imul	 edi, edx
  00092	8d 41 01	 lea	 eax, DWORD PTR [ecx+1]
  00095	0f af c2	 imul	 eax, edx
  00098	01 45 94	 add	 DWORD PTR _inRc$[ebp+4], eax
  0009b	29 7d 9c	 sub	 DWORD PTR _inRc$[ebp+12], edi
$LN363@OnLButtonD:

; 2453 : 
; 2454 : 	CRect inRc;
; 2455 : 	GetInsideRect(inRc);
; 2456 : 
; 2457 : 	if (ht == htFolder)

  0009e	8b 7d ec	 mov	 edi, DWORD PTR _ht$1$[ebp]
  000a1	8b 0d 00 00 00
	00		 mov	 ecx, DWORD PTR __imp__GetCapture@0
  000a7	85 ff		 test	 edi, edi
  000a9	0f 85 87 01 00
	00		 jne	 $LN23@OnLButtonD

; 2461 : 		GetFolderRect(index, rc);

  000af	8d 45 d0	 lea	 eax, DWORD PTR _rc$22[ebp]
  000b2	c6 45 8f 01	 mov	 BYTE PTR _bHigh$1$[ebp], 1
  000b6	50		 push	 eax
  000b7	ff 75 bc	 push	 DWORD PTR _index$[ebp]
  000ba	0f 57 c0	 xorps	 xmm0, xmm0
  000bd	8b ce		 mov	 ecx, esi
; File C:\Program Files (x86)\Microsoft Visual Studio\2019\Community\VC\Tools\MSVC\14.29.30133\atlmfc\include\atltypes.h

; 528  : 	left = 0;

  000bf	0f 11 45 d0	 movups	 XMMWORD PTR _rc$22[ebp], xmm0
; File D:\git\src\IBK\IBK_DRFN\ProjSrc\SrcDrfn\Chart\comparechart\control\GfxOutBarCtrl.cpp

; 2461 : 		GetFolderRect(index, rc);

  000c3	e8 00 00 00 00	 call	 ?GetFolderRect@CGfxOutBarCtrl@@QBE_NHAAVCRect@@@Z ; CGfxOutBarCtrl::GetFolderRect

; 2462 : 
; 2463 : 		if (::GetCapture() == NULL)

  000c8	ff 15 00 00 00
	00		 call	 DWORD PTR __imp__GetCapture@0
  000ce	85 c0		 test	 eax, eax
  000d0	0f 85 00 01 00
	00		 jne	 $LN356@OnLButtonD
; File C:\Program Files (x86)\Microsoft Visual Studio\2019\Community\VC\Tools\MSVC\14.29.30133\atlmfc\include\afxwin2.inl

; 163  : 	{ ASSERT(::IsWindow(m_hWnd)); return CWnd::FromHandle(::SetCapture(m_hWnd)); }

  000d6	ff 76 20	 push	 DWORD PTR [esi+32]
  000d9	ff 15 00 00 00
	00		 call	 DWORD PTR __imp__SetCapture@4
  000df	50		 push	 eax
  000e0	e8 00 00 00 00	 call	 ?FromHandle@CWnd@@SGPAV1@PAUHWND__@@@Z ; CWnd::FromHandle
; File D:\git\src\IBK\IBK_DRFN\ProjSrc\SrcDrfn\Chart\comparechart\control\GfxOutBarCtrl.cpp

; 2467 : 			CClientDC dc(this);

  000e5	56		 push	 esi
  000e6	8d 8d 5c ff ff
	ff		 lea	 ecx, DWORD PTR _dc$6[ebp]
  000ec	e8 00 00 00 00	 call	 ??0CClientDC@@QAE@PAVCWnd@@@Z ; CClientDC::CClientDC

; 2468 : 			DrawFolder(&dc, index, rc, true);

  000f1	0f 10 45 d0	 movups	 xmm0, XMMWORD PTR _rc$22[ebp]
  000f5	6a 01		 push	 1
  000f7	83 ec 10	 sub	 esp, 16			; 00000010H
  000fa	c7 45 fc 00 00
	00 00		 mov	 DWORD PTR __$EHRec$[ebp+8], 0
  00101	8b c4		 mov	 eax, esp
  00103	8b ce		 mov	 ecx, esi
  00105	ff 75 bc	 push	 DWORD PTR _index$[ebp]
  00108	0f 11 00	 movups	 XMMWORD PTR [eax], xmm0
  0010b	8d 85 5c ff ff
	ff		 lea	 eax, DWORD PTR _dc$6[ebp]
  00111	50		 push	 eax
  00112	e8 00 00 00 00	 call	 ?DrawFolder@CGfxOutBarCtrl@@IAEXPAVCDC@@HVCRect@@_N@Z ; CGfxOutBarCtrl::DrawFolder

; 2469 : 			AfxLockTempMaps();

  00117	e8 00 00 00 00	 call	 ?AfxLockTempMaps@@YGXXZ	; AfxLockTempMaps

; 2470 : 			for (;;)
; 2471 : 			{
; 2472 : 				MSG msg;
; 2473 : 				VERIFY(::GetMessage(&msg, NULL, 0, 0));

  0011c	6a 00		 push	 0
  0011e	6a 00		 push	 0
  00120	6a 00		 push	 0
  00122	8d 85 70 ff ff
	ff		 lea	 eax, DWORD PTR _msg$9[ebp]
  00128	50		 push	 eax
  00129	ff 15 00 00 00
	00		 call	 DWORD PTR __imp__GetMessageA@16
; File C:\Program Files (x86)\Microsoft Visual Studio\2019\Community\VC\Tools\MSVC\14.29.30133\atlmfc\include\afxwin2.inl

; 161  : 	{ return CWnd::FromHandle(::GetCapture()); }

  0012f	ff 15 00 00 00
	00		 call	 DWORD PTR __imp__GetCapture@0
  00135	50		 push	 eax
  00136	e8 00 00 00 00	 call	 ?FromHandle@CWnd@@SGPAV1@PAUHWND__@@@Z ; CWnd::FromHandle
; File D:\git\src\IBK\IBK_DRFN\ProjSrc\SrcDrfn\Chart\comparechart\control\GfxOutBarCtrl.cpp

; 2475 : 				if (CWnd::GetCapture() != this) break;

  0013b	3b c6		 cmp	 eax, esi
  0013d	75 6e		 jne	 SHORT $ExitLoop2$378
  0013f	90		 npad	 1
$LL2@OnLButtonD:

; 2476 : 
; 2477 : 				switch (msg.message)

  00140	8b 85 74 ff ff
	ff		 mov	 eax, DWORD PTR _msg$9[ebp+4]
  00146	3d 00 01 00 00	 cmp	 eax, 256		; 00000100H
  0014b	0f 84 a3 00 00
	00		 je	 $LN30@OnLButtonD
  00151	3d 02 02 00 00	 cmp	 eax, 514		; 00000202H
  00156	0f 85 a1 00 00
	00		 jne	 $LN31@OnLButtonD

; 2478 : 				{
; 2479 : 				//case WM_MOUSEMOVE:
; 2480 : 				//	{
; 2481 : 				//		CPoint pt(msg.lParam);
; 2482 : 				//		int idx, ht1 = HitTestEx(pt, idx);
; 2483 : 				//		if (ht1 == htFolder && idx == index)
; 2484 : 				//		{
; 2485 : 				//			if (!bHigh)
; 2486 : 				//			{
; 2487 : 				//				DrawFolder(&dc, index, rc, true);
; 2488 : 				//				bHigh = true;
; 2489 : 				//			}
; 2490 : 				//		}
; 2491 : 				//		else
; 2492 : 				//		{
; 2493 : 				//			if (bHigh)
; 2494 : 				//			{
; 2495 : 				//				DrawFolder(&dc, index, rc, false);
; 2496 : 				//				bHigh = false;
; 2497 : 				//			}
; 2498 : 				//		}
; 2499 : 				//	}
; 2500 : 				//	break;
; 2501 : 
; 2502 : 				case WM_LBUTTONUP:
; 2503 : 					{
; 2504 : 						if (bHigh)
; 2505 : 						{
; 2506 : 							DrawFolder(&dc, index, rc, true);

  0015c	0f 10 45 d0	 movups	 xmm0, XMMWORD PTR _rc$22[ebp]
  00160	6a 01		 push	 1
  00162	83 ec 10	 sub	 esp, 16			; 00000010H
  00165	8b ce		 mov	 ecx, esi
  00167	8b c4		 mov	 eax, esp
  00169	ff 75 bc	 push	 DWORD PTR _index$[ebp]
  0016c	0f 11 00	 movups	 XMMWORD PTR [eax], xmm0
  0016f	8d 85 5c ff ff
	ff		 lea	 eax, DWORD PTR _dc$6[ebp]
  00175	50		 push	 eax
  00176	e8 00 00 00 00	 call	 ?DrawFolder@CGfxOutBarCtrl@@IAEXPAVCDC@@HVCRect@@_N@Z ; CGfxOutBarCtrl::DrawFolder
; File C:\Program Files (x86)\Microsoft Visual Studio\2019\Community\VC\Tools\MSVC\14.29.30133\atlmfc\include\atltypes.h

; 424  : 	x = (short)LOWORD(dwPoint);

  0017b	8b 8d 7c ff ff
	ff		 mov	 ecx, DWORD PTR _msg$9[ebp+12]
  00181	0f bf c1	 movsx	 eax, cx
  00184	89 45 b8	 mov	 DWORD PTR _pt$12[ebp], eax

; 425  : 	y = (short)HIWORD(dwPoint);

  00187	c1 e9 10	 shr	 ecx, 16			; 00000010H
  0018a	0f bf c1	 movsx	 eax, cx
; File D:\git\src\IBK\IBK_DRFN\ProjSrc\SrcDrfn\Chart\comparechart\control\GfxOutBarCtrl.cpp

; 2510 : 						int idx, ht1 = HitTestEx(pt, idx);

  0018d	8b ce		 mov	 ecx, esi
; File C:\Program Files (x86)\Microsoft Visual Studio\2019\Community\VC\Tools\MSVC\14.29.30133\atlmfc\include\atltypes.h

; 425  : 	y = (short)HIWORD(dwPoint);

  0018f	89 45 bc	 mov	 DWORD PTR _pt$12[ebp+4], eax
; File D:\git\src\IBK\IBK_DRFN\ProjSrc\SrcDrfn\Chart\comparechart\control\GfxOutBarCtrl.cpp

; 2510 : 						int idx, ht1 = HitTestEx(pt, idx);

  00192	8d 45 ec	 lea	 eax, DWORD PTR _idx$27[ebp]
  00195	50		 push	 eax
  00196	8d 45 b8	 lea	 eax, DWORD PTR _pt$12[ebp]
  00199	c6 45 8f 00	 mov	 BYTE PTR _bHigh$1$[ebp], 0
  0019d	50		 push	 eax
  0019e	e8 00 00 00 00	 call	 ?HitTestEx@CGfxOutBarCtrl@@QAEHABVCPoint@@AAH@Z ; CGfxOutBarCtrl::HitTestEx

; 2511 : 						SetSelFolder(idx);

  001a3	ff 75 ec	 push	 DWORD PTR _idx$27[ebp]
  001a6	8b ce		 mov	 ecx, esi
  001a8	e8 00 00 00 00	 call	 ?SetSelFolder@CGfxOutBarCtrl@@QAEXH@Z ; CGfxOutBarCtrl::SetSelFolder
$ExitLoop2$378:

; 2522 : 					break;
; 2523 : 				}
; 2524 : 			}
; 2525 : 
; 2526 : 		ExitLoop2:
; 2527 : 			ReleaseCapture();

  001ad	ff 15 00 00 00
	00		 call	 DWORD PTR __imp__ReleaseCapture@0

; 2528 : 			AfxUnlockTempMaps(FALSE);

  001b3	6a 00		 push	 0
  001b5	e8 00 00 00 00	 call	 ?AfxUnlockTempMaps@@YGHH@Z ; AfxUnlockTempMaps

; 2529 : 		}

  001ba	8d 8d 5c ff ff
	ff		 lea	 ecx, DWORD PTR _dc$6[ebp]
  001c0	c7 45 fc ff ff
	ff ff		 mov	 DWORD PTR __$EHRec$[ebp+8], -1
  001c7	e8 00 00 00 00	 call	 ??1CClientDC@@UAE@XZ	; CClientDC::~CClientDC

; 2530 : 		if (bHigh) InvalidateRect(rc, false);

  001cc	80 7d 8f 00	 cmp	 BYTE PTR _bHigh$1$[ebp], 0
  001d0	0f 84 cd 02 00
	00		 je	 $LN373@OnLButtonD
$LN356@OnLButtonD:
; File C:\Program Files (x86)\Microsoft Visual Studio\2019\Community\VC\Tools\MSVC\14.29.30133\atlmfc\include\afxwin2.inl

; 116  : 	{ ASSERT(::IsWindow(m_hWnd)); ::InvalidateRect(m_hWnd, lpRect, bErase); }

  001d6	6a 00		 push	 0
  001d8	8d 45 d0	 lea	 eax, DWORD PTR _rc$22[ebp]
  001db	50		 push	 eax
  001dc	ff 76 20	 push	 DWORD PTR [esi+32]
  001df	ff 15 00 00 00
	00		 call	 DWORD PTR __imp__InvalidateRect@12
  001e5	c7 86 24 01 00
	00 ff ff ff ff	 mov	 DWORD PTR [esi+292], -1
; File D:\git\src\IBK\IBK_DRFN\ProjSrc\SrcDrfn\Chart\comparechart\control\GfxOutBarCtrl.cpp

; 2531 : 	}

  001ef	e9 e8 07 00 00	 jmp	 $LN78@OnLButtonD
$LN30@OnLButtonD:

; 2512 : 					}
; 2513 : 
; 2514 : 					goto ExitLoop2;
; 2515 : 
; 2516 : 				case WM_KEYDOWN:	
; 2517 : 					if (msg.wParam != VK_ESCAPE) 

  001f4	83 bd 78 ff ff
	ff 1b		 cmp	 DWORD PTR _msg$9[ebp+8], 27 ; 0000001bH
  001fb	75 0d		 jne	 SHORT $LN5@OnLButtonD
$LN31@OnLButtonD:

; 2518 : 						break;
; 2519 : 
; 2520 : 				default:
; 2521 : 					DispatchMessage(&msg);

  001fd	8d 85 70 ff ff
	ff		 lea	 eax, DWORD PTR _msg$9[ebp]
  00203	50		 push	 eax
  00204	ff 15 00 00 00
	00		 call	 DWORD PTR __imp__DispatchMessageA@4
$LN5@OnLButtonD:

; 2470 : 			for (;;)
; 2471 : 			{
; 2472 : 				MSG msg;
; 2473 : 				VERIFY(::GetMessage(&msg, NULL, 0, 0));

  0020a	6a 00		 push	 0
  0020c	6a 00		 push	 0
  0020e	6a 00		 push	 0
  00210	8d 85 70 ff ff
	ff		 lea	 eax, DWORD PTR _msg$9[ebp]
  00216	50		 push	 eax
  00217	ff 15 00 00 00
	00		 call	 DWORD PTR __imp__GetMessageA@16
; File C:\Program Files (x86)\Microsoft Visual Studio\2019\Community\VC\Tools\MSVC\14.29.30133\atlmfc\include\afxwin2.inl

; 161  : 	{ return CWnd::FromHandle(::GetCapture()); }

  0021d	ff 15 00 00 00
	00		 call	 DWORD PTR __imp__GetCapture@0
  00223	50		 push	 eax
  00224	e8 00 00 00 00	 call	 ?FromHandle@CWnd@@SGPAV1@PAUHWND__@@@Z ; CWnd::FromHandle
; File D:\git\src\IBK\IBK_DRFN\ProjSrc\SrcDrfn\Chart\comparechart\control\GfxOutBarCtrl.cpp

; 2475 : 				if (CWnd::GetCapture() != this) break;

  00229	3b c6		 cmp	 eax, esi
  0022b	0f 84 0f ff ff
	ff		 je	 $LL2@OnLButtonD
  00231	e9 77 ff ff ff	 jmp	 $ExitLoop2$378
$LN23@OnLButtonD:

; 2532 : 	else iLastSelectedFolder = -1;

  00236	c7 86 1c 01 00
	00 ff ff ff ff	 mov	 DWORD PTR [esi+284], -1

; 2533 : 
; 2534 : 	if (ht == htItem)

  00240	83 ff 01	 cmp	 edi, 1
  00243	0f 85 60 02 00
	00		 jne	 $LN34@OnLButtonD

; 2539 : 		GetItemRect(iSelFolder, index, rc);

  00249	8b 7d bc	 mov	 edi, DWORD PTR _index$[ebp]
  0024c	8d 45 d0	 lea	 eax, DWORD PTR _rc$21[ebp]
  0024f	50		 push	 eax
  00250	57		 push	 edi
  00251	ff b6 34 01 00
	00		 push	 DWORD PTR [esi+308]
  00257	0f 57 c0	 xorps	 xmm0, xmm0
  0025a	c7 86 2c 01 00
	00 ff ff ff ff	 mov	 DWORD PTR [esi+300], -1
  00264	8b ce		 mov	 ecx, esi
  00266	c6 45 8f 01	 mov	 BYTE PTR _bHigh$1$[ebp], 1
; File C:\Program Files (x86)\Microsoft Visual Studio\2019\Community\VC\Tools\MSVC\14.29.30133\atlmfc\include\atltypes.h

; 528  : 	left = 0;

  0026a	0f 11 45 d0	 movups	 XMMWORD PTR _rc$21[ebp], xmm0
; File D:\git\src\IBK\IBK_DRFN\ProjSrc\SrcDrfn\Chart\comparechart\control\GfxOutBarCtrl.cpp

; 2539 : 		GetItemRect(iSelFolder, index, rc);

  0026e	e8 00 00 00 00	 call	 ?GetItemRect@CGfxOutBarCtrl@@QAEXHHAAVCRect@@@Z ; CGfxOutBarCtrl::GetItemRect

; 2540 : 
; 2541 : 		HCURSOR hCur = GetCursor();

  00273	ff 15 00 00 00
	00		 call	 DWORD PTR __imp__GetCursor@0
  00279	89 45 ec	 mov	 DWORD PTR _hCur$1$[ebp], eax

; 2542 : 
; 2543 : 		if (::GetCapture() == NULL)

  0027c	ff 15 00 00 00
	00		 call	 DWORD PTR __imp__GetCapture@0
  00282	85 c0		 test	 eax, eax
  00284	0f 85 f4 01 00
	00		 jne	 $LN36@OnLButtonD
; File C:\Program Files (x86)\Microsoft Visual Studio\2019\Community\VC\Tools\MSVC\14.29.30133\atlmfc\include\afxwin2.inl

; 163  : 	{ ASSERT(::IsWindow(m_hWnd)); return CWnd::FromHandle(::SetCapture(m_hWnd)); }

  0028a	ff 76 20	 push	 DWORD PTR [esi+32]
  0028d	ff 15 00 00 00
	00		 call	 DWORD PTR __imp__SetCapture@4
  00293	50		 push	 eax
  00294	e8 00 00 00 00	 call	 ?FromHandle@CWnd@@SGPAV1@PAUHWND__@@@Z ; CWnd::FromHandle
; File D:\git\src\IBK\IBK_DRFN\ProjSrc\SrcDrfn\Chart\comparechart\control\GfxOutBarCtrl.cpp

; 2547 : 			CClientDC dc(this);

  00299	56		 push	 esi
  0029a	8d 8d 5c ff ff
	ff		 lea	 ecx, DWORD PTR _dc$5[ebp]
  002a0	e8 00 00 00 00	 call	 ??0CClientDC@@QAE@PAVCWnd@@@Z ; CClientDC::CClientDC

; 2548 : 			HighlightItem(index, true);

  002a5	6a 01		 push	 1
  002a7	57		 push	 edi
  002a8	8b ce		 mov	 ecx, esi
  002aa	c7 45 fc 01 00
	00 00		 mov	 DWORD PTR __$EHRec$[ebp+8], 1
  002b1	e8 00 00 00 00	 call	 ?HighlightItem@CGfxOutBarCtrl@@QAEXH_N@Z ; CGfxOutBarCtrl::HighlightItem

; 2549 : 			AfxLockTempMaps();

  002b6	e8 00 00 00 00	 call	 ?AfxLockTempMaps@@YGXXZ	; AfxLockTempMaps

; 2550 : 			for (;;)
; 2551 : 			{
; 2552 : 				MSG msg;
; 2553 : 				VERIFY(::GetMessage(&msg, NULL, 0, 0));

  002bb	6a 00		 push	 0
  002bd	6a 00		 push	 0
  002bf	6a 00		 push	 0
  002c1	8d 85 70 ff ff
	ff		 lea	 eax, DWORD PTR _msg$8[ebp]
  002c7	50		 push	 eax
  002c8	ff 15 00 00 00
	00		 call	 DWORD PTR __imp__GetMessageA@16
; File C:\Program Files (x86)\Microsoft Visual Studio\2019\Community\VC\Tools\MSVC\14.29.30133\atlmfc\include\afxwin2.inl

; 161  : 	{ return CWnd::FromHandle(::GetCapture()); }

  002ce	ff 15 00 00 00
	00		 call	 DWORD PTR __imp__GetCapture@0
  002d4	50		 push	 eax
  002d5	e8 00 00 00 00	 call	 ?FromHandle@CWnd@@SGPAV1@PAUHWND__@@@Z ; CWnd::FromHandle
; File D:\git\src\IBK\IBK_DRFN\ProjSrc\SrcDrfn\Chart\comparechart\control\GfxOutBarCtrl.cpp

; 2555 : 				if (CWnd::GetCapture() != this) break;

  002da	3b c6		 cmp	 eax, esi
  002dc	0f 85 7d 01 00
	00		 jne	 $ExitLoop4$379
$LL7@OnLButtonD:

; 2556 : 
; 2557 : 				switch (msg.message)

  002e2	8b 85 74 ff ff
	ff		 mov	 eax, DWORD PTR _msg$8[ebp+4]
  002e8	83 f8 20	 cmp	 eax, 32			; 00000020H
  002eb	74 16		 je	 SHORT $LN38@OnLButtonD
  002ed	3d 02 02 00 00	 cmp	 eax, 514		; 00000202H
  002f2	74 40		 je	 SHORT $LN358@OnLButtonD

; 2666 : 									rc.InflateRect(1,1);
; 2667 : 									InvalidateRect(rc);
; 2668 : 								}
; 2669 : 
; 2670 : 								GetOwner()->SendMessage(WMU_OUTBAR_NOTIFY, NM_OB_ITEMDBCLICK, idx);
; 2671 : 							}
; 2672 : 						}
; 2673 : 						else
; 2674 : 						{
; 2675 : 							if (ht1 == htItem)
; 2676 : 							{
; 2677 : 								if (idx != index)
; 2678 : 								{
; 2679 : 									OUTBAR_INFO ob;
; 2680 : 									ob.iDragFrom = iSelFolder;
; 2681 : 									ob.iDragTo = index;
; 2682 : 									if (GetOwner()->SendMessage(WMU_OUTBAR_NOTIFY, NM_OB_DRAGITEM, (LPARAM) &ob))
; 2683 : 									{
; 2684 : 										CBarFolder * pbf = (CBarFolder *) arFolder.GetAt(iSelFolder);
; 2685 : 										CBarItem * piFrom = (CBarItem *) pbf->arItems.GetAt(index);
; 2686 : 										pbf->arItems.RemoveAt(index);
; 2687 : 										if (idx > index) idx --;
; 2688 : 										pbf->arItems.InsertAt(idx, piFrom);
; 2689 : 									}
; 2690 : 								}
; 2691 : 							}
; 2692 : 							else
; 2693 : 							{
; 2694 : 								CRect rcItem;
; 2695 : 								GetItemRect(iSelFolder, GetItemCount() - 1, rcItem);
; 2696 : 								if (pt.y > rcItem.bottom && pt.y < inRc.bottom)
; 2697 : 								{
; 2698 : 									OUTBAR_INFO ob;
; 2699 : 									ob.iDragFrom = iSelFolder;
; 2700 : 									ob.iDragTo = index;
; 2701 : 									if (GetOwner()->SendMessage(WMU_OUTBAR_NOTIFY, NM_OB_DRAGITEM, (LPARAM) &ob))
; 2702 : 									{
; 2703 : 										CBarFolder * pbf = (CBarFolder *) arFolder.GetAt(iSelFolder);
; 2704 : 										CBarItem * piFrom = (CBarItem *) pbf->arItems.GetAt(index);
; 2705 : 										pbf->arItems.RemoveAt(index);
; 2706 : 										pbf->arItems.Add((void *) piFrom);
; 2707 : 									}
; 2708 : 								}
; 2709 : 							}
; 2710 : 						}
; 2711 : 					}
; 2712 : 
; 2713 : 					goto ExitLoop4;
; 2714 : 
; 2715 : 				default:
; 2716 : 					DispatchMessage(&msg);

  002f4	8d 85 70 ff ff
	ff		 lea	 eax, DWORD PTR _msg$8[ebp]
  002fa	50		 push	 eax
  002fb	ff 15 00 00 00
	00		 call	 DWORD PTR __imp__DispatchMessageA@4
  00301	eb 09		 jmp	 SHORT $LN10@OnLButtonD
$LN38@OnLButtonD:

; 2558 : 				{
; 2559 : 				//case WM_MOUSEMOVE:
; 2560 : 				//	{
; 2561 : 				//		CPoint pt(msg.lParam);
; 2562 : 				//		int idx, ht1 = HitTestEx(pt, idx);
; 2563 : 				//		if (bDragging)
; 2564 : 				//		{
; 2565 : 				//			if (ht1 == htItem) 
; 2566 : 				//			{
; 2567 : 				//				DrawDragArrow(&dc, index, idx);
; 2568 : 				//				SetCursor(hDragCursor);
; 2569 : 				//				hCur = hDragCursor;
; 2570 : 				//			}
; 2571 : 				//			else 
; 2572 : 				//			{
; 2573 : 				//				CRect rcItem;
; 2574 : 				//				GetItemRect(iSelFolder, GetItemCount() - 1, rcItem);
; 2575 : 				//				if (pt.y > rcItem.bottom && pt.y < inRc.bottom)
; 2576 : 				//				{
; 2577 : 				//					DrawDragArrow(&dc, index, GetItemCount());
; 2578 : 				//					SetCursor(hDragCursor);
; 2579 : 				//					hCur = hDragCursor;
; 2580 : 				//				}
; 2581 : 				//				else
; 2582 : 				//				{
; 2583 : 				//					DrawDragArrow(&dc, index, -1);
; 2584 : 				//					SetCursor(hNoDragCursor);
; 2585 : 				//					hCur = hNoDragCursor;
; 2586 : 				//				}
; 2587 : 				//			}
; 2588 : 				//		}
; 2589 : 				//		else
; 2590 : 				//		{
; 2591 : 				//			if (ht1 == htItem && idx == index)
; 2592 : 				//			{
; 2593 : 				//				if (!bHigh)
; 2594 : 				//				{
; 2595 : 				//					HighlightItem(index, true);
; 2596 : 				//					bHigh = true;
; 2597 : 				//					bPressedHighlight = true;
; 2598 : 				//				}
; 2599 : 				//			}
; 2600 : 				//			else 
; 2601 : 				//			{
; 2602 : 				//				if (ht1 == htItem)
; 2603 : 				//				{
; 2604 : 				//					if (bHigh)
; 2605 : 				//					{
; 2606 : 				//						HighlightItem(index, false);
; 2607 : 				//						bHigh = false;
; 2608 : 				//						bPressedHighlight = false;
; 2609 : 				//					}
; 2610 : 				//				}
; 2611 : 				//				else
; 2612 : 				//				{
; 2613 : 				//					if (dwFlags&fDragItems)
; 2614 : 				//					{
; 2615 : 				//						HighlightItem(index, true);
; 2616 : 				//						bHigh = true;
; 2617 : 				//						bDragging = true;
; 2618 : 
; 2619 : 				//						SetCursor(hDragCursor);
; 2620 : 				//						hCur = hDragCursor;
; 2621 : 
; 2622 : 				//						bPressedHighlight = true;
; 2623 : 				//					}
; 2624 : 				//				}
; 2625 : 				//			}
; 2626 : 				//		}
; 2627 : 				//	}
; 2628 : 				//	break;
; 2629 : 
; 2630 : 				case WM_SETCURSOR:
; 2631 : 					SetCursor(hCur);

  00303	ff 75 ec	 push	 DWORD PTR _hCur$1$[ebp]
  00306	ff 15 00 00 00
	00		 call	 DWORD PTR __imp__SetCursor@4
$LN10@OnLButtonD:

; 2550 : 			for (;;)
; 2551 : 			{
; 2552 : 				MSG msg;
; 2553 : 				VERIFY(::GetMessage(&msg, NULL, 0, 0));

  0030c	6a 00		 push	 0
  0030e	6a 00		 push	 0
  00310	6a 00		 push	 0
  00312	8d 85 70 ff ff
	ff		 lea	 eax, DWORD PTR _msg$8[ebp]
  00318	50		 push	 eax
  00319	ff 15 00 00 00
	00		 call	 DWORD PTR __imp__GetMessageA@16
; File C:\Program Files (x86)\Microsoft Visual Studio\2019\Community\VC\Tools\MSVC\14.29.30133\atlmfc\include\afxwin2.inl

; 161  : 	{ return CWnd::FromHandle(::GetCapture()); }

  0031f	ff 15 00 00 00
	00		 call	 DWORD PTR __imp__GetCapture@0
  00325	50		 push	 eax
  00326	e8 00 00 00 00	 call	 ?FromHandle@CWnd@@SGPAV1@PAUHWND__@@@Z ; CWnd::FromHandle
; File D:\git\src\IBK\IBK_DRFN\ProjSrc\SrcDrfn\Chart\comparechart\control\GfxOutBarCtrl.cpp

; 2555 : 				if (CWnd::GetCapture() != this) break;

  0032b	3b c6		 cmp	 eax, esi
  0032d	74 b3		 je	 SHORT $LL7@OnLButtonD
  0032f	e9 2b 01 00 00	 jmp	 $ExitLoop4$379
$LN358@OnLButtonD:

; 2632 : 					break;
; 2633 : 
; 2634 : 				case WM_LBUTTONUP:
; 2635 : 					{
; 2636 : 						if (bHigh)
; 2637 : 						{
; 2638 : 							HighlightItem(-1);

  00334	6a 00		 push	 0
  00336	6a ff		 push	 -1
  00338	8b ce		 mov	 ecx, esi
  0033a	e8 00 00 00 00	 call	 ?HighlightItem@CGfxOutBarCtrl@@QAEXH_N@Z ; CGfxOutBarCtrl::HighlightItem
; File C:\Program Files (x86)\Microsoft Visual Studio\2019\Community\VC\Tools\MSVC\14.29.30133\atlmfc\include\atltypes.h

; 424  : 	x = (short)LOWORD(dwPoint);

  0033f	8b 8d 7c ff ff
	ff		 mov	 ecx, DWORD PTR _msg$8[ebp+12]
  00345	0f bf c1	 movsx	 eax, cx
  00348	89 45 e8	 mov	 DWORD PTR _pt$26[ebp], eax

; 425  : 	y = (short)HIWORD(dwPoint);

  0034b	c1 e9 10	 shr	 ecx, 16			; 00000010H
  0034e	0f bf c1	 movsx	 eax, cx
; File D:\git\src\IBK\IBK_DRFN\ProjSrc\SrcDrfn\Chart\comparechart\control\GfxOutBarCtrl.cpp

; 2642 : 						int idx, ht1 = HitTestEx(pt, idx);

  00351	8b ce		 mov	 ecx, esi
; File C:\Program Files (x86)\Microsoft Visual Studio\2019\Community\VC\Tools\MSVC\14.29.30133\atlmfc\include\atltypes.h

; 425  : 	y = (short)HIWORD(dwPoint);

  00353	89 45 ec	 mov	 DWORD PTR _pt$26[ebp+4], eax
; File D:\git\src\IBK\IBK_DRFN\ProjSrc\SrcDrfn\Chart\comparechart\control\GfxOutBarCtrl.cpp

; 2642 : 						int idx, ht1 = HitTestEx(pt, idx);

  00356	8d 45 bc	 lea	 eax, DWORD PTR _idx$13[ebp]
  00359	50		 push	 eax
  0035a	8d 45 e8	 lea	 eax, DWORD PTR _pt$26[ebp]
  0035d	c6 45 8f 00	 mov	 BYTE PTR _bHigh$1$[ebp], 0
  00361	50		 push	 eax
  00362	e8 00 00 00 00	 call	 ?HitTestEx@CGfxOutBarCtrl@@QAEHABVCPoint@@AAH@Z ; CGfxOutBarCtrl::HitTestEx

; 2643 : 						if (!bDragging)
; 2644 : 						{
; 2645 : 							if (ht1 == htItem && idx == index) 

  00367	83 f8 01	 cmp	 eax, 1
  0036a	0f 85 ef 00 00
	00		 jne	 $ExitLoop4$379
  00370	39 7d bc	 cmp	 DWORD PTR _idx$13[ebp], edi
  00373	0f 85 e6 00 00
	00		 jne	 $ExitLoop4$379

; 2646 : 							{
; 2647 : 								if (iSelAnimTiming > 0 && index != iLastSel && iLastSel >= 0)

  00379	83 be f8 00 00
	00 00		 cmp	 DWORD PTR [esi+248], 0
  00380	7e 1a		 jle	 SHORT $LN44@OnLButtonD
  00382	8b 86 f4 00 00
	00		 mov	 eax, DWORD PTR [esi+244]
  00388	3b f8		 cmp	 edi, eax
  0038a	74 10		 je	 SHORT $LN44@OnLButtonD
  0038c	85 c0		 test	 eax, eax
  0038e	78 0c		 js	 SHORT $LN44@OnLButtonD

; 2648 : 								{
; 2649 : 									DrawAnimItem(0, 0, iLastSel);

  00390	50		 push	 eax
  00391	6a 00		 push	 0
  00393	6a 00		 push	 0
  00395	8b ce		 mov	 ecx, esi
  00397	e8 00 00 00 00	 call	 ?DrawAnimItem@CGfxOutBarCtrl@@QAEXHHH@Z ; CGfxOutBarCtrl::DrawAnimItem
$LN44@OnLButtonD:

; 2650 : 								}
; 2651 : 
; 2652 : 								if (dwFlags&fSelHighlight && iLastSel >= 0)

  0039c	8b 86 00 01 00
	00		 mov	 eax, DWORD PTR [esi+256]
  003a2	a9 00 02 00 00	 test	 eax, 512		; 00000200H
  003a7	74 46		 je	 SHORT $LN45@OnLButtonD
  003a9	8b 8e f4 00 00
	00		 mov	 ecx, DWORD PTR [esi+244]
  003af	85 c9		 test	 ecx, ecx
  003b1	78 3c		 js	 SHORT $LN45@OnLButtonD

; 2655 : 									GetIconRect(iSelFolder, iLastSel, rc);

  003b3	8d 45 c0	 lea	 eax, DWORD PTR _rc$18[ebp]
  003b6	0f 57 c0	 xorps	 xmm0, xmm0
  003b9	50		 push	 eax
  003ba	51		 push	 ecx
  003bb	ff b6 34 01 00
	00		 push	 DWORD PTR [esi+308]
  003c1	8b ce		 mov	 ecx, esi
; File C:\Program Files (x86)\Microsoft Visual Studio\2019\Community\VC\Tools\MSVC\14.29.30133\atlmfc\include\atltypes.h

; 528  : 	left = 0;

  003c3	0f 11 45 c0	 movups	 XMMWORD PTR _rc$18[ebp], xmm0
; File D:\git\src\IBK\IBK_DRFN\ProjSrc\SrcDrfn\Chart\comparechart\control\GfxOutBarCtrl.cpp

; 2655 : 									GetIconRect(iSelFolder, iLastSel, rc);

  003c7	e8 00 00 00 00	 call	 ?GetIconRect@CGfxOutBarCtrl@@QAEXHHAAVCRect@@@Z ; CGfxOutBarCtrl::GetIconRect
; File C:\Program Files (x86)\Microsoft Visual Studio\2019\Community\VC\Tools\MSVC\14.29.30133\atlmfc\include\atltypes.h

; 686  : 	::InflateRect(this, x, y);

  003cc	6a 01		 push	 1
  003ce	6a 01		 push	 1
  003d0	8d 45 c0	 lea	 eax, DWORD PTR _rc$18[ebp]
  003d3	50		 push	 eax
  003d4	ff 15 00 00 00
	00		 call	 DWORD PTR __imp__InflateRect@12
; File C:\Program Files (x86)\Microsoft Visual Studio\2019\Community\VC\Tools\MSVC\14.29.30133\atlmfc\include\afxwin2.inl

; 116  : 	{ ASSERT(::IsWindow(m_hWnd)); ::InvalidateRect(m_hWnd, lpRect, bErase); }

  003da	6a 01		 push	 1
  003dc	8d 45 c0	 lea	 eax, DWORD PTR _rc$18[ebp]
  003df	50		 push	 eax
  003e0	ff 76 20	 push	 DWORD PTR [esi+32]
  003e3	ff 15 00 00 00
	00		 call	 DWORD PTR __imp__InvalidateRect@12
  003e9	8b 86 00 01 00
	00		 mov	 eax, DWORD PTR [esi+256]
$LN45@OnLButtonD:
; File D:\git\src\IBK\IBK_DRFN\ProjSrc\SrcDrfn\Chart\comparechart\control\GfxOutBarCtrl.cpp

; 2660 : 								iLastSel = index;

  003ef	89 be f4 00 00
	00		 mov	 DWORD PTR [esi+244], edi

; 2661 : 
; 2662 : 								if (dwFlags&fSelHighlight && iLastSel >= 0)

  003f5	a9 00 02 00 00	 test	 eax, 512		; 00000200H
  003fa	74 3a		 je	 SHORT $LN46@OnLButtonD
  003fc	85 ff		 test	 edi, edi
  003fe	78 36		 js	 SHORT $LN46@OnLButtonD

; 2665 : 									GetIconRect(iSelFolder, iLastSel, rc);

  00400	8d 45 c0	 lea	 eax, DWORD PTR _rc$17[ebp]
  00403	0f 57 c0	 xorps	 xmm0, xmm0
  00406	50		 push	 eax
  00407	57		 push	 edi
  00408	ff b6 34 01 00
	00		 push	 DWORD PTR [esi+308]
  0040e	8b ce		 mov	 ecx, esi
; File C:\Program Files (x86)\Microsoft Visual Studio\2019\Community\VC\Tools\MSVC\14.29.30133\atlmfc\include\atltypes.h

; 528  : 	left = 0;

  00410	0f 11 45 c0	 movups	 XMMWORD PTR _rc$17[ebp], xmm0
; File D:\git\src\IBK\IBK_DRFN\ProjSrc\SrcDrfn\Chart\comparechart\control\GfxOutBarCtrl.cpp

; 2665 : 									GetIconRect(iSelFolder, iLastSel, rc);

  00414	e8 00 00 00 00	 call	 ?GetIconRect@CGfxOutBarCtrl@@QAEXHHAAVCRect@@@Z ; CGfxOutBarCtrl::GetIconRect
; File C:\Program Files (x86)\Microsoft Visual Studio\2019\Community\VC\Tools\MSVC\14.29.30133\atlmfc\include\atltypes.h

; 686  : 	::InflateRect(this, x, y);

  00419	6a 01		 push	 1
  0041b	6a 01		 push	 1
  0041d	8d 45 c0	 lea	 eax, DWORD PTR _rc$17[ebp]
  00420	50		 push	 eax
  00421	ff 15 00 00 00
	00		 call	 DWORD PTR __imp__InflateRect@12
; File C:\Program Files (x86)\Microsoft Visual Studio\2019\Community\VC\Tools\MSVC\14.29.30133\atlmfc\include\afxwin2.inl

; 116  : 	{ ASSERT(::IsWindow(m_hWnd)); ::InvalidateRect(m_hWnd, lpRect, bErase); }

  00427	6a 01		 push	 1
  00429	8d 45 c0	 lea	 eax, DWORD PTR _rc$17[ebp]
  0042c	50		 push	 eax
  0042d	ff 76 20	 push	 DWORD PTR [esi+32]
  00430	ff 15 00 00 00
	00		 call	 DWORD PTR __imp__InvalidateRect@12
$LN46@OnLButtonD:

; 27   : 	{ return m_hWndOwner != NULL ? CWnd::FromHandle(m_hWndOwner) : GetParent(); }

  00436	8b 46 5c	 mov	 eax, DWORD PTR [esi+92]
  00439	85 c0		 test	 eax, eax
  0043b	75 09		 jne	 SHORT $LN143@OnLButtonD

; 213  : 	{ ASSERT(::IsWindow(m_hWnd)); return CWnd::FromHandle(::GetParent(m_hWnd)); }

  0043d	ff 76 20	 push	 DWORD PTR [esi+32]
  00440	ff 15 00 00 00
	00		 call	 DWORD PTR __imp__GetParent@4
$LN143@OnLButtonD:

; 32   : 	{ ASSERT(::IsWindow(m_hWnd)); return ::SendMessage(m_hWnd, message, wParam, lParam); }

  00446	50		 push	 eax
  00447	e8 00 00 00 00	 call	 ?FromHandle@CWnd@@SGPAV1@PAUHWND__@@@Z ; CWnd::FromHandle
  0044c	ff 75 bc	 push	 DWORD PTR _idx$13[ebp]
  0044f	6a 06		 push	 6
  00451	68 c1 08 00 00	 push	 2241			; 000008c1H
  00456	ff 70 20	 push	 DWORD PTR [eax+32]
  00459	ff 15 00 00 00
	00		 call	 DWORD PTR __imp__SendMessageA@16
$ExitLoop4$379:
; File D:\git\src\IBK\IBK_DRFN\ProjSrc\SrcDrfn\Chart\comparechart\control\GfxOutBarCtrl.cpp

; 2722 : 			ReleaseCapture();

  0045f	ff 15 00 00 00
	00		 call	 DWORD PTR __imp__ReleaseCapture@0

; 2723 : 			AfxUnlockTempMaps(FALSE);

  00465	6a 00		 push	 0
  00467	e8 00 00 00 00	 call	 ?AfxUnlockTempMaps@@YGHH@Z ; AfxUnlockTempMaps

; 2724 : 			if (bDragging) 
; 2725 : 			{
; 2726 : 				Invalidate();
; 2727 : 			}
; 2728 : 		}

  0046c	8d 8d 5c ff ff
	ff		 lea	 ecx, DWORD PTR _dc$5[ebp]
  00472	c7 45 fc ff ff
	ff ff		 mov	 DWORD PTR __$EHRec$[ebp+8], -1
  00479	e8 00 00 00 00	 call	 ??1CClientDC@@UAE@XZ	; CClientDC::~CClientDC
$LN36@OnLButtonD:

; 2729 : 		bPressedHighlight = false;
; 2730 : 		if (bHigh) InvalidateRect(rc, false);

  0047e	80 7d 8f 00	 cmp	 BYTE PTR _bHigh$1$[ebp], 0
  00482	c6 86 28 01 00
	00 00		 mov	 BYTE PTR [esi+296], 0
  00489	0f 84 4d 05 00
	00		 je	 $LN78@OnLButtonD
; File C:\Program Files (x86)\Microsoft Visual Studio\2019\Community\VC\Tools\MSVC\14.29.30133\atlmfc\include\afxwin2.inl

; 116  : 	{ ASSERT(::IsWindow(m_hWnd)); ::InvalidateRect(m_hWnd, lpRect, bErase); }

  0048f	6a 00		 push	 0
  00491	8d 45 d0	 lea	 eax, DWORD PTR _rc$21[ebp]
  00494	50		 push	 eax
  00495	ff 76 20	 push	 DWORD PTR [esi+32]
  00498	ff 15 00 00 00
	00		 call	 DWORD PTR __imp__InvalidateRect@12
; File D:\git\src\IBK\IBK_DRFN\ProjSrc\SrcDrfn\Chart\comparechart\control\GfxOutBarCtrl.cpp

; 2731 : 	}

  0049e	e9 39 05 00 00	 jmp	 $LN78@OnLButtonD
$LN373@OnLButtonD:

; 2530 : 		if (bHigh) InvalidateRect(rc, false);

  004a3	8b 0d 00 00 00
	00		 mov	 ecx, DWORD PTR __imp__GetCapture@0
$LN34@OnLButtonD:

; 2732 : 	else iLastItemHighlighted = -1;

  004a9	c7 86 24 01 00
	00 ff ff ff ff	 mov	 DWORD PTR [esi+292], -1

; 2733 : 
; 2734 : 	if (ht == htDownScroll)

  004b3	83 ff 03	 cmp	 edi, 3
  004b6	0f 85 4e 03 00
	00		 jne	 $LN59@OnLButtonD

; 2735 : 	{
; 2736 : 		bLooping = true;

  004bc	c6 86 e4 00 00
	00 01		 mov	 BYTE PTR [esi+228], 1

; 2737 : 		bool bHigh = true;
; 2738 : 
; 2739 : 		if (::GetCapture() == NULL)

  004c3	ff d1		 call	 ecx
  004c5	85 c0		 test	 eax, eax
  004c7	0f 85 0f 05 00
	00		 jne	 $LN78@OnLButtonD
; File C:\Program Files (x86)\Microsoft Visual Studio\2019\Community\VC\Tools\MSVC\14.29.30133\atlmfc\include\afxwin2.inl

; 163  : 	{ ASSERT(::IsWindow(m_hWnd)); return CWnd::FromHandle(::SetCapture(m_hWnd)); }

  004cd	ff 76 20	 push	 DWORD PTR [esi+32]
  004d0	ff 15 00 00 00
	00		 call	 DWORD PTR __imp__SetCapture@4
  004d6	50		 push	 eax
  004d7	e8 00 00 00 00	 call	 ?FromHandle@CWnd@@SGPAV1@PAUHWND__@@@Z ; CWnd::FromHandle
; File D:\git\src\IBK\IBK_DRFN\ProjSrc\SrcDrfn\Chart\comparechart\control\GfxOutBarCtrl.cpp

; 2743 : 			CClientDC dc(this);

  004dc	56		 push	 esi
  004dd	8d 8d 5c ff ff
	ff		 lea	 ecx, DWORD PTR _dc$4[ebp]
  004e3	e8 00 00 00 00	 call	 ??0CClientDC@@QAE@PAVCWnd@@@Z ; CClientDC::CClientDC
; File C:\Program Files (x86)\Microsoft Visual Studio\2019\Community\VC\Tools\MSVC\14.29.30133\atlmfc\include\afxwin1.inl

; 512  : 	{ ASSERT(m_hDC != NULL); return ::DrawFrameControl(m_hDC, lpRect, nType, nState); }

  004e8	68 01 02 00 00	 push	 513			; 00000201H
  004ed	6a 03		 push	 3
; File D:\git\src\IBK\IBK_DRFN\ProjSrc\SrcDrfn\Chart\comparechart\control\GfxOutBarCtrl.cpp

; 2744 : 			dc.DrawFrameControl(rcDownArrow, DFC_SCROLL, DFCS_SCROLLDOWN|DFCS_PUSHED);

  004ef	8d be d4 00 00
	00		 lea	 edi, DWORD PTR [esi+212]
  004f5	c7 45 fc 02 00
	00 00		 mov	 DWORD PTR __$EHRec$[ebp+8], 2
; File C:\Program Files (x86)\Microsoft Visual Studio\2019\Community\VC\Tools\MSVC\14.29.30133\atlmfc\include\afxwin1.inl

; 512  : 	{ ASSERT(m_hDC != NULL); return ::DrawFrameControl(m_hDC, lpRect, nType, nState); }

  004fc	57		 push	 edi
  004fd	ff b5 60 ff ff
	ff		 push	 DWORD PTR _dc$4[ebp+4]
  00503	ff 15 00 00 00
	00		 call	 DWORD PTR __imp__DrawFrameControl@16
; File C:\Program Files (x86)\Microsoft Visual Studio\2019\Community\VC\Tools\MSVC\14.29.30133\atlmfc\include\afxwin2.inl

; 152  : 	{ ASSERT(::IsWindow(m_hWnd)); return ::SetTimer(m_hWnd, nIDEvent, nElapse,

  00509	6a 00		 push	 0
  0050b	68 2c 01 00 00	 push	 300			; 0000012cH
  00510	6a 02		 push	 2
  00512	ff 76 20	 push	 DWORD PTR [esi+32]
  00515	ff 15 00 00 00
	00		 call	 DWORD PTR __imp__SetTimer@16
; File D:\git\src\IBK\IBK_DRFN\ProjSrc\SrcDrfn\Chart\comparechart\control\GfxOutBarCtrl.cpp

; 2746 : 			AfxLockTempMaps();

  0051b	e8 00 00 00 00	 call	 ?AfxLockTempMaps@@YGXXZ	; AfxLockTempMaps

; 2747 : 			for (;;)
; 2748 : 			{
; 2749 : 				MSG msg;
; 2750 : 				VERIFY(::GetMessage(&msg, NULL, 0, 0));

  00520	6a 00		 push	 0
  00522	6a 00		 push	 0
  00524	6a 00		 push	 0
  00526	8d 85 40 ff ff
	ff		 lea	 eax, DWORD PTR _msg$2[ebp]
  0052c	50		 push	 eax
  0052d	ff 15 00 00 00
	00		 call	 DWORD PTR __imp__GetMessageA@16
; File C:\Program Files (x86)\Microsoft Visual Studio\2019\Community\VC\Tools\MSVC\14.29.30133\atlmfc\include\afxwin2.inl

; 161  : 	{ return CWnd::FromHandle(::GetCapture()); }

  00533	ff 15 00 00 00
	00		 call	 DWORD PTR __imp__GetCapture@0
  00539	50		 push	 eax
  0053a	e8 00 00 00 00	 call	 ?FromHandle@CWnd@@SGPAV1@PAUHWND__@@@Z ; CWnd::FromHandle
; File D:\git\src\IBK\IBK_DRFN\ProjSrc\SrcDrfn\Chart\comparechart\control\GfxOutBarCtrl.cpp

; 2752 : 				if (CWnd::GetCapture() != this) break;

  0053f	3b c6		 cmp	 eax, esi
  00541	0f 85 1a 02 00
	00		 jne	 $ExitLoop3$380
  00547	66 0f 1f 84 00
	00 00 00 00	 npad	 9
$LL12@OnLButtonD:

; 2753 : 
; 2754 : 				switch (msg.message)

  00550	8b 85 44 ff ff
	ff		 mov	 eax, DWORD PTR _msg$2[ebp+4]
  00556	2d 00 01 00 00	 sub	 eax, 256		; 00000100H
  0055b	0f 84 c3 01 00
	00		 je	 $LN74@OnLButtonD
  00561	83 e8 13	 sub	 eax, 19			; 00000013H
  00564	0f 84 c6 00 00
	00		 je	 $LN66@OnLButtonD
  0056a	2d ef 00 00 00	 sub	 eax, 239		; 000000efH
  0056f	0f 85 b8 01 00
	00		 jne	 $LN75@OnLButtonD
; File C:\Program Files (x86)\Microsoft Visual Studio\2019\Community\VC\Tools\MSVC\14.29.30133\atlmfc\include\afxwin1.inl

; 512  : 	{ ASSERT(m_hDC != NULL); return ::DrawFrameControl(m_hDC, lpRect, nType, nState); }

  00575	6a 01		 push	 1
  00577	6a 03		 push	 3
  00579	57		 push	 edi
  0057a	ff b5 60 ff ff
	ff		 push	 DWORD PTR _dc$4[ebp+4]
  00580	ff 15 00 00 00
	00		 call	 DWORD PTR __imp__DrawFrameControl@16
; File C:\Program Files (x86)\Microsoft Visual Studio\2019\Community\VC\Tools\MSVC\14.29.30133\atlmfc\include\atltypes.h

; 424  : 	x = (short)LOWORD(dwPoint);

  00586	8b 85 4c ff ff
	ff		 mov	 eax, DWORD PTR _msg$2[ebp+12]
  0058c	0f bf c8	 movsx	 ecx, ax

; 425  : 	y = (short)HIWORD(dwPoint);

  0058f	c1 e8 10	 shr	 eax, 16			; 00000010H
  00592	98		 cwde

; 648  : 	return ::PtInRect(this, point);

  00593	50		 push	 eax
  00594	51		 push	 ecx
  00595	57		 push	 edi
; File D:\git\src\IBK\IBK_DRFN\ProjSrc\SrcDrfn\Chart\comparechart\control\GfxOutBarCtrl.cpp

; 2789 : 						bDownArrow = false;

  00596	c6 86 c1 00 00
	00 00		 mov	 BYTE PTR [esi+193], 0
; File C:\Program Files (x86)\Microsoft Visual Studio\2019\Community\VC\Tools\MSVC\14.29.30133\atlmfc\include\atltypes.h

; 648  : 	return ::PtInRect(this, point);

  0059d	ff 15 00 00 00
	00		 call	 DWORD PTR __imp__PtInRect@12
; File D:\git\src\IBK\IBK_DRFN\ProjSrc\SrcDrfn\Chart\comparechart\control\GfxOutBarCtrl.cpp

; 2791 : 						if (rcDownArrow.PtInRect(pt))

  005a3	85 c0		 test	 eax, eax
  005a5	0f 84 b6 01 00
	00		 je	 $ExitLoop3$380

; 1460 : 	CBarFolder * pbf = (CBarFolder *) arFolder.GetAt(iSelFolder);

  005ab	8b 8e 34 01 00
	00		 mov	 ecx, DWORD PTR [esi+308]
  005b1	0f 57 c0	 xorps	 xmm0, xmm0
; File C:\Program Files (x86)\Microsoft Visual Studio\2019\Community\VC\Tools\MSVC\14.29.30133\atlmfc\include\atltypes.h

; 528  : 	left = 0;

  005b4	0f 11 45 c0	 movups	 XMMWORD PTR _itrc$16[ebp], xmm0
; File C:\Program Files (x86)\Microsoft Visual Studio\2019\Community\VC\Tools\MSVC\14.29.30133\atlmfc\include\afxcoll.inl

; 203  : 		if( nIndex < 0 || nIndex >= m_nSize )

  005b8	85 c9		 test	 ecx, ecx
  005ba	0f 88 31 05 00
	00		 js	 $LN200@OnLButtonD
  005c0	3b 8e 0c 01 00
	00		 cmp	 ecx, DWORD PTR [esi+268]
  005c6	0f 8d 25 05 00
	00		 jge	 $LN200@OnLButtonD

; 205  : 		return m_pData[nIndex]; }

  005cc	8b 86 08 01 00
	00		 mov	 eax, DWORD PTR [esi+264]
; File D:\git\src\IBK\IBK_DRFN\ProjSrc\SrcDrfn\Chart\comparechart\control\GfxOutBarCtrl.cpp

; 2794 : 							GetItemRect(iSelFolder, GetItemCount() - 1, itrc);

  005d2	8d 55 c0	 lea	 edx, DWORD PTR _itrc$16[ebp]
  005d5	52		 push	 edx
; File C:\Program Files (x86)\Microsoft Visual Studio\2019\Community\VC\Tools\MSVC\14.29.30133\atlmfc\include\afxcoll.inl

; 205  : 		return m_pData[nIndex]; }

  005d6	8b 04 88	 mov	 eax, DWORD PTR [eax+ecx*4]
; File D:\git\src\IBK\IBK_DRFN\ProjSrc\SrcDrfn\Chart\comparechart\control\GfxOutBarCtrl.cpp

; 1461 : 	return 	pbf->GetItemCount();

  005d9	8b 40 1c	 mov	 eax, DWORD PTR [eax+28]

; 2794 : 							GetItemRect(iSelFolder, GetItemCount() - 1, itrc);

  005dc	48		 dec	 eax
  005dd	50		 push	 eax
  005de	51		 push	 ecx
  005df	8b ce		 mov	 ecx, esi
  005e1	e8 00 00 00 00	 call	 ?GetItemRect@CGfxOutBarCtrl@@QAEXHHAAVCRect@@@Z ; CGfxOutBarCtrl::GetItemRect
; File C:\Program Files (x86)\Microsoft Visual Studio\2019\Community\VC\Tools\MSVC\14.29.30133\atlmfc\include\afxwin2.inl

; 86   : 	{ ASSERT(::IsWindow(m_hWnd)); ::GetClientRect(m_hWnd, lpRect); }

  005e6	8d 45 e0	 lea	 eax, DWORD PTR _crc$23[ebp]
  005e9	0f 57 c0	 xorps	 xmm0, xmm0
  005ec	50		 push	 eax
  005ed	ff 76 20	 push	 DWORD PTR [esi+32]
; File C:\Program Files (x86)\Microsoft Visual Studio\2019\Community\VC\Tools\MSVC\14.29.30133\atlmfc\include\atltypes.h

; 528  : 	left = 0;

  005f0	0f 11 45 e0	 movups	 XMMWORD PTR _crc$23[ebp], xmm0
; File C:\Program Files (x86)\Microsoft Visual Studio\2019\Community\VC\Tools\MSVC\14.29.30133\atlmfc\include\afxwin2.inl

; 86   : 	{ ASSERT(::IsWindow(m_hWnd)); ::GetClientRect(m_hWnd, lpRect); }

  005f4	ff 15 00 00 00
	00		 call	 DWORD PTR __imp__GetClientRect@8
; File D:\git\src\IBK\IBK_DRFN\ProjSrc\SrcDrfn\Chart\comparechart\control\GfxOutBarCtrl.cpp

; 746  : 	if (arFolder.GetSize() > 0)

  005fa	8b be 0c 01 00
	00		 mov	 edi, DWORD PTR [esi+268]
  00600	85 ff		 test	 edi, edi
  00602	0f 8e dc 01 00
	00		 jle	 $LN372@OnLButtonD

; 747  : 	{
; 748  : 		int max = arFolder.GetSize();
; 749  : 		rect.top += iFolderHeight * (iSelFolder + 1); + 1;//+ 2;

  00608	8b 8e 34 01 00
	00		 mov	 ecx, DWORD PTR [esi+308]

; 750  : 		rect.bottom -= (max - iSelFolder - 1)*iFolderHeight;

  0060e	2b f9		 sub	 edi, ecx
  00610	8b 96 a0 00 00
	00		 mov	 edx, DWORD PTR [esi+160]
  00616	4f		 dec	 edi
  00617	0f af fa	 imul	 edi, edx
  0061a	8d 41 01	 lea	 eax, DWORD PTR [ecx+1]
  0061d	0f af c2	 imul	 eax, edx
  00620	01 45 e4	 add	 DWORD PTR _crc$23[ebp+4], eax
  00623	8b 45 ec	 mov	 eax, DWORD PTR _crc$23[ebp+12]
  00626	2b c7		 sub	 eax, edi
  00628	89 45 ec	 mov	 DWORD PTR _crc$23[ebp+12], eax
  0062b	e9 b7 01 00 00	 jmp	 $LN365@OnLButtonD
$LN66@OnLButtonD:

; 2800 : 								InvalidateRect(crc, true);
; 2801 : 							}
; 2802 : 						}
; 2803 : 					}
; 2804 : 					goto ExitLoop3;
; 2805 : 
; 2806 : 
; 2807 : 				case WM_TIMER:
; 2808 : 					{
; 2809 : 						if (msg.wParam == 2)

  00630	83 bd 48 ff ff
	ff 02		 cmp	 DWORD PTR _msg$2[ebp+8], 2
  00637	0f 85 fd 00 00
	00		 jne	 $LN15@OnLButtonD
; File C:\Program Files (x86)\Microsoft Visual Studio\2019\Community\VC\Tools\MSVC\14.29.30133\atlmfc\include\atltypes.h

; 414  : 	*(POINT*)this = initPt;

  0063d	8b 85 54 ff ff
	ff		 mov	 eax, DWORD PTR _msg$2[ebp+20]
  00643	8b 8d 58 ff ff
	ff		 mov	 ecx, DWORD PTR _msg$2[ebp+24]
  00649	89 45 e8	 mov	 DWORD PTR _pt$25[ebp], eax
; File C:\Program Files (x86)\Microsoft Visual Studio\2019\Community\VC\Tools\MSVC\14.29.30133\atlmfc\include\afxwin2.inl

; 94   : 	{ ASSERT(::IsWindow(m_hWnd)); ::ScreenToClient(m_hWnd, lpPoint); }

  0064c	8d 45 e8	 lea	 eax, DWORD PTR _pt$25[ebp]
  0064f	50		 push	 eax
  00650	ff 76 20	 push	 DWORD PTR [esi+32]
; File C:\Program Files (x86)\Microsoft Visual Studio\2019\Community\VC\Tools\MSVC\14.29.30133\atlmfc\include\atltypes.h

; 414  : 	*(POINT*)this = initPt;

  00653	89 4d ec	 mov	 DWORD PTR _pt$25[ebp+4], ecx
; File C:\Program Files (x86)\Microsoft Visual Studio\2019\Community\VC\Tools\MSVC\14.29.30133\atlmfc\include\afxwin2.inl

; 94   : 	{ ASSERT(::IsWindow(m_hWnd)); ::ScreenToClient(m_hWnd, lpPoint); }

  00656	ff 15 00 00 00
	00		 call	 DWORD PTR __imp__ScreenToClient@8
; File C:\Program Files (x86)\Microsoft Visual Studio\2019\Community\VC\Tools\MSVC\14.29.30133\atlmfc\include\atltypes.h

; 648  : 	return ::PtInRect(this, point);

  0065c	ff 75 ec	 push	 DWORD PTR _pt$25[ebp+4]
  0065f	ff 75 e8	 push	 DWORD PTR _pt$25[ebp]
  00662	57		 push	 edi
  00663	ff 15 00 00 00
	00		 call	 DWORD PTR __imp__PtInRect@12
; File D:\git\src\IBK\IBK_DRFN\ProjSrc\SrcDrfn\Chart\comparechart\control\GfxOutBarCtrl.cpp

; 2815 : 								if (rcDownArrow.PtInRect(pt))

  00669	85 c0		 test	 eax, eax
  0066b	0f 84 aa 00 00
	00		 je	 $LN69@OnLButtonD

; 1460 : 	CBarFolder * pbf = (CBarFolder *) arFolder.GetAt(iSelFolder);

  00671	8b 8e 34 01 00
	00		 mov	 ecx, DWORD PTR [esi+308]
  00677	0f 57 c0	 xorps	 xmm0, xmm0

; 2816 : 								{
; 2817 : 									bDownPressed = true;

  0067a	c6 86 c3 00 00
	00 01		 mov	 BYTE PTR [esi+195], 1
; File C:\Program Files (x86)\Microsoft Visual Studio\2019\Community\VC\Tools\MSVC\14.29.30133\atlmfc\include\atltypes.h

; 528  : 	left = 0;

  00681	0f 11 45 c0	 movups	 XMMWORD PTR _itrc$15[ebp], xmm0
; File C:\Program Files (x86)\Microsoft Visual Studio\2019\Community\VC\Tools\MSVC\14.29.30133\atlmfc\include\afxcoll.inl

; 203  : 		if( nIndex < 0 || nIndex >= m_nSize )

  00685	85 c9		 test	 ecx, ecx
  00687	0f 88 64 04 00
	00		 js	 $LN200@OnLButtonD
  0068d	3b 8e 0c 01 00
	00		 cmp	 ecx, DWORD PTR [esi+268]
  00693	0f 8d 58 04 00
	00		 jge	 $LN200@OnLButtonD

; 205  : 		return m_pData[nIndex]; }

  00699	8b 86 08 01 00
	00		 mov	 eax, DWORD PTR [esi+264]
; File D:\git\src\IBK\IBK_DRFN\ProjSrc\SrcDrfn\Chart\comparechart\control\GfxOutBarCtrl.cpp

; 2819 : 									GetItemRect(iSelFolder, GetItemCount() - 1, itrc);

  0069f	8d 55 c0	 lea	 edx, DWORD PTR _itrc$15[ebp]
  006a2	52		 push	 edx
; File C:\Program Files (x86)\Microsoft Visual Studio\2019\Community\VC\Tools\MSVC\14.29.30133\atlmfc\include\afxcoll.inl

; 205  : 		return m_pData[nIndex]; }

  006a3	8b 04 88	 mov	 eax, DWORD PTR [eax+ecx*4]
; File D:\git\src\IBK\IBK_DRFN\ProjSrc\SrcDrfn\Chart\comparechart\control\GfxOutBarCtrl.cpp

; 1461 : 	return 	pbf->GetItemCount();

  006a6	8b 40 1c	 mov	 eax, DWORD PTR [eax+28]

; 2819 : 									GetItemRect(iSelFolder, GetItemCount() - 1, itrc);

  006a9	48		 dec	 eax
  006aa	50		 push	 eax
  006ab	51		 push	 ecx
  006ac	8b ce		 mov	 ecx, esi
  006ae	e8 00 00 00 00	 call	 ?GetItemRect@CGfxOutBarCtrl@@QAEXHHAAVCRect@@@Z ; CGfxOutBarCtrl::GetItemRect
; File C:\Program Files (x86)\Microsoft Visual Studio\2019\Community\VC\Tools\MSVC\14.29.30133\atlmfc\include\afxwin2.inl

; 86   : 	{ ASSERT(::IsWindow(m_hWnd)); ::GetClientRect(m_hWnd, lpRect); }

  006b3	8d 45 b0	 lea	 eax, DWORD PTR _crc$11[ebp]
  006b6	0f 57 c0	 xorps	 xmm0, xmm0
  006b9	50		 push	 eax
  006ba	ff 76 20	 push	 DWORD PTR [esi+32]
; File C:\Program Files (x86)\Microsoft Visual Studio\2019\Community\VC\Tools\MSVC\14.29.30133\atlmfc\include\atltypes.h

; 528  : 	left = 0;

  006bd	0f 11 45 b0	 movups	 XMMWORD PTR _crc$11[ebp], xmm0
; File C:\Program Files (x86)\Microsoft Visual Studio\2019\Community\VC\Tools\MSVC\14.29.30133\atlmfc\include\afxwin2.inl

; 86   : 	{ ASSERT(::IsWindow(m_hWnd)); ::GetClientRect(m_hWnd, lpRect); }

  006c1	ff 15 00 00 00
	00		 call	 DWORD PTR __imp__GetClientRect@8
; File D:\git\src\IBK\IBK_DRFN\ProjSrc\SrcDrfn\Chart\comparechart\control\GfxOutBarCtrl.cpp

; 746  : 	if (arFolder.GetSize() > 0)

  006c7	8b be 0c 01 00
	00		 mov	 edi, DWORD PTR [esi+268]
  006cd	85 ff		 test	 edi, edi
  006cf	7e 25		 jle	 SHORT $LN371@OnLButtonD

; 747  : 	{
; 748  : 		int max = arFolder.GetSize();
; 749  : 		rect.top += iFolderHeight * (iSelFolder + 1); + 1;//+ 2;

  006d1	8b 8e 34 01 00
	00		 mov	 ecx, DWORD PTR [esi+308]

; 750  : 		rect.bottom -= (max - iSelFolder - 1)*iFolderHeight;

  006d7	2b f9		 sub	 edi, ecx
  006d9	8b 96 a0 00 00
	00		 mov	 edx, DWORD PTR [esi+160]
  006df	4f		 dec	 edi
  006e0	0f af fa	 imul	 edi, edx
  006e3	8d 41 01	 lea	 eax, DWORD PTR [ecx+1]
  006e6	0f af c2	 imul	 eax, edx
  006e9	01 45 b4	 add	 DWORD PTR _crc$11[ebp+4], eax
  006ec	8b 45 bc	 mov	 eax, DWORD PTR _crc$11[ebp+12]
  006ef	2b c7		 sub	 eax, edi
  006f1	89 45 bc	 mov	 DWORD PTR _crc$11[ebp+12], eax
  006f4	eb 03		 jmp	 SHORT $LN364@OnLButtonD
$LN371@OnLButtonD:

; 746  : 	if (arFolder.GetSize() > 0)

  006f6	8b 45 bc	 mov	 eax, DWORD PTR _crc$11[ebp+12]
$LN364@OnLButtonD:

; 2820 : 									CRect crc;
; 2821 : 									GetInsideRect(crc);
; 2822 : 									if (itrc.bottom > crc.bottom)

  006f9	39 45 cc	 cmp	 DWORD PTR _itrc$15[ebp+12], eax
  006fc	7e 63		 jle	 SHORT $ExitLoop3$380

; 2823 : 									{
; 2824 : 										iFirstItem ++;

  006fe	ff 86 20 01 00
	00		 inc	 DWORD PTR [esi+288]
; File C:\Program Files (x86)\Microsoft Visual Studio\2019\Community\VC\Tools\MSVC\14.29.30133\atlmfc\include\afxwin2.inl

; 116  : 	{ ASSERT(::IsWindow(m_hWnd)); ::InvalidateRect(m_hWnd, lpRect, bErase); }

  00704	8d 45 b0	 lea	 eax, DWORD PTR _crc$11[ebp]
  00707	6a 01		 push	 1
  00709	50		 push	 eax
  0070a	ff 76 20	 push	 DWORD PTR [esi+32]
  0070d	ff 15 00 00 00
	00		 call	 DWORD PTR __imp__InvalidateRect@12
; File D:\git\src\IBK\IBK_DRFN\ProjSrc\SrcDrfn\Chart\comparechart\control\GfxOutBarCtrl.cpp

; 2828 : 								}

  00713	8d be d4 00 00
	00		 lea	 edi, DWORD PTR [esi+212]
  00719	eb 1f		 jmp	 SHORT $LN15@OnLButtonD
$LN69@OnLButtonD:

; 2829 : 								else bDownPressed = false;

  0071b	c6 86 c3 00 00
	00 00		 mov	 BYTE PTR [esi+195], 0

; 2830 : 							}
; 2831 : 						}
; 2832 : 						break;

  00722	eb 16		 jmp	 SHORT $LN15@OnLButtonD
$LN74@OnLButtonD:

; 2833 : 					}
; 2834 : 
; 2835 : 				case WM_KEYDOWN:	
; 2836 : 					if (msg.wParam != VK_ESCAPE) 

  00724	83 bd 48 ff ff
	ff 1b		 cmp	 DWORD PTR _msg$2[ebp+8], 27 ; 0000001bH
  0072b	75 0d		 jne	 SHORT $LN15@OnLButtonD
$LN75@OnLButtonD:

; 2837 : 						break;
; 2838 : 
; 2839 : 				default:
; 2840 : 					DispatchMessage(&msg);

  0072d	8d 85 40 ff ff
	ff		 lea	 eax, DWORD PTR _msg$2[ebp]
  00733	50		 push	 eax
  00734	ff 15 00 00 00
	00		 call	 DWORD PTR __imp__DispatchMessageA@4
$LN15@OnLButtonD:

; 2747 : 			for (;;)
; 2748 : 			{
; 2749 : 				MSG msg;
; 2750 : 				VERIFY(::GetMessage(&msg, NULL, 0, 0));

  0073a	6a 00		 push	 0
  0073c	6a 00		 push	 0
  0073e	6a 00		 push	 0
  00740	8d 85 40 ff ff
	ff		 lea	 eax, DWORD PTR _msg$2[ebp]
  00746	50		 push	 eax
  00747	ff 15 00 00 00
	00		 call	 DWORD PTR __imp__GetMessageA@16
; File C:\Program Files (x86)\Microsoft Visual Studio\2019\Community\VC\Tools\MSVC\14.29.30133\atlmfc\include\afxwin2.inl

; 161  : 	{ return CWnd::FromHandle(::GetCapture()); }

  0074d	ff 15 00 00 00
	00		 call	 DWORD PTR __imp__GetCapture@0
  00753	50		 push	 eax
  00754	e8 00 00 00 00	 call	 ?FromHandle@CWnd@@SGPAV1@PAUHWND__@@@Z ; CWnd::FromHandle
; File D:\git\src\IBK\IBK_DRFN\ProjSrc\SrcDrfn\Chart\comparechart\control\GfxOutBarCtrl.cpp

; 2752 : 				if (CWnd::GetCapture() != this) break;

  00759	3b c6		 cmp	 eax, esi
  0075b	0f 84 ef fd ff
	ff		 je	 $LL12@OnLButtonD
$ExitLoop3$380:
; File C:\Program Files (x86)\Microsoft Visual Studio\2019\Community\VC\Tools\MSVC\14.29.30133\atlmfc\include\afxwin2.inl

; 155  : 	{ ASSERT(::IsWindow(m_hWnd)); return ::KillTimer(m_hWnd, nIDEvent); }

  00761	6a 02		 push	 2
  00763	ff 76 20	 push	 DWORD PTR [esi+32]
  00766	ff 15 00 00 00
	00		 call	 DWORD PTR __imp__KillTimer@8
; File D:\git\src\IBK\IBK_DRFN\ProjSrc\SrcDrfn\Chart\comparechart\control\GfxOutBarCtrl.cpp

; 2847 : 			ReleaseCapture();

  0076c	ff 15 00 00 00
	00		 call	 DWORD PTR __imp__ReleaseCapture@0

; 2848 : 			AfxUnlockTempMaps(FALSE);

  00772	6a 00		 push	 0
  00774	e8 00 00 00 00	 call	 ?AfxUnlockTempMaps@@YGHH@Z ; AfxUnlockTempMaps
; File C:\Program Files (x86)\Microsoft Visual Studio\2019\Community\VC\Tools\MSVC\14.29.30133\atlmfc\include\afxwin2.inl

; 86   : 	{ ASSERT(::IsWindow(m_hWnd)); ::GetClientRect(m_hWnd, lpRect); }

  00779	8d 45 d0	 lea	 eax, DWORD PTR _crc$20[ebp]
; File D:\git\src\IBK\IBK_DRFN\ProjSrc\SrcDrfn\Chart\comparechart\control\GfxOutBarCtrl.cpp

; 2849 : 			bLooping = false;

  0077c	c6 86 e4 00 00
	00 00		 mov	 BYTE PTR [esi+228], 0
; File C:\Program Files (x86)\Microsoft Visual Studio\2019\Community\VC\Tools\MSVC\14.29.30133\atlmfc\include\afxwin2.inl

; 86   : 	{ ASSERT(::IsWindow(m_hWnd)); ::GetClientRect(m_hWnd, lpRect); }

  00783	50		 push	 eax
  00784	ff 76 20	 push	 DWORD PTR [esi+32]
  00787	0f 57 c0	 xorps	 xmm0, xmm0
; File D:\git\src\IBK\IBK_DRFN\ProjSrc\SrcDrfn\Chart\comparechart\control\GfxOutBarCtrl.cpp

; 2850 : 			bDownPressed = false;

  0078a	c6 86 c3 00 00
	00 00		 mov	 BYTE PTR [esi+195], 0

; 2851 : 			bDownArrow = false;

  00791	c6 86 c1 00 00
	00 00		 mov	 BYTE PTR [esi+193], 0
; File C:\Program Files (x86)\Microsoft Visual Studio\2019\Community\VC\Tools\MSVC\14.29.30133\atlmfc\include\atltypes.h

; 528  : 	left = 0;

  00798	0f 11 45 d0	 movups	 XMMWORD PTR _crc$20[ebp], xmm0
; File C:\Program Files (x86)\Microsoft Visual Studio\2019\Community\VC\Tools\MSVC\14.29.30133\atlmfc\include\afxwin2.inl

; 86   : 	{ ASSERT(::IsWindow(m_hWnd)); ::GetClientRect(m_hWnd, lpRect); }

  0079c	ff 15 00 00 00
	00		 call	 DWORD PTR __imp__GetClientRect@8
; File D:\git\src\IBK\IBK_DRFN\ProjSrc\SrcDrfn\Chart\comparechart\control\GfxOutBarCtrl.cpp

; 746  : 	if (arFolder.GetSize() > 0)

  007a2	8b be 0c 01 00
	00		 mov	 edi, DWORD PTR [esi+268]
  007a8	85 ff		 test	 edi, edi
  007aa	7e 1e		 jle	 SHORT $LN241@OnLButtonD

; 747  : 	{
; 748  : 		int max = arFolder.GetSize();
; 749  : 		rect.top += iFolderHeight * (iSelFolder + 1); + 1;//+ 2;

  007ac	8b 8e 34 01 00
	00		 mov	 ecx, DWORD PTR [esi+308]

; 750  : 		rect.bottom -= (max - iSelFolder - 1)*iFolderHeight;

  007b2	2b f9		 sub	 edi, ecx
  007b4	8b 96 a0 00 00
	00		 mov	 edx, DWORD PTR [esi+160]
  007ba	4f		 dec	 edi
  007bb	0f af fa	 imul	 edi, edx
  007be	8d 41 01	 lea	 eax, DWORD PTR [ecx+1]
  007c1	0f af c2	 imul	 eax, edx
  007c4	01 45 d4	 add	 DWORD PTR _crc$20[ebp+4], eax
  007c7	29 7d dc	 sub	 DWORD PTR _crc$20[ebp+12], edi
$LN241@OnLButtonD:
; File C:\Program Files (x86)\Microsoft Visual Studio\2019\Community\VC\Tools\MSVC\14.29.30133\atlmfc\include\afxwin2.inl

; 116  : 	{ ASSERT(::IsWindow(m_hWnd)); ::InvalidateRect(m_hWnd, lpRect, bErase); }

  007ca	6a 01		 push	 1
  007cc	8d 45 d0	 lea	 eax, DWORD PTR _crc$20[ebp]
  007cf	50		 push	 eax
  007d0	ff 76 20	 push	 DWORD PTR [esi+32]
  007d3	ff 15 00 00 00
	00		 call	 DWORD PTR __imp__InvalidateRect@12
; File D:\git\src\IBK\IBK_DRFN\ProjSrc\SrcDrfn\Chart\comparechart\control\GfxOutBarCtrl.cpp

; 2855 : 		}

  007d9	8d 8d 5c ff ff
	ff		 lea	 ecx, DWORD PTR _dc$4[ebp]
  007df	e9 ec 01 00 00	 jmp	 $LN376@OnLButtonD
$LN372@OnLButtonD:

; 746  : 	if (arFolder.GetSize() > 0)

  007e4	8b 45 ec	 mov	 eax, DWORD PTR _crc$23[ebp+12]
$LN365@OnLButtonD:

; 2795 : 							CRect crc;
; 2796 : 							GetInsideRect(crc);
; 2797 : 							if (itrc.bottom > crc.bottom)

  007e7	39 45 cc	 cmp	 DWORD PTR _itrc$16[ebp+12], eax
  007ea	0f 8e 71 ff ff
	ff		 jle	 $ExitLoop3$380

; 2798 : 							{
; 2799 : 								iFirstItem ++;

  007f0	ff 86 20 01 00
	00		 inc	 DWORD PTR [esi+288]
; File C:\Program Files (x86)\Microsoft Visual Studio\2019\Community\VC\Tools\MSVC\14.29.30133\atlmfc\include\afxwin2.inl

; 116  : 	{ ASSERT(::IsWindow(m_hWnd)); ::InvalidateRect(m_hWnd, lpRect, bErase); }

  007f6	8d 45 e0	 lea	 eax, DWORD PTR _crc$23[ebp]
  007f9	6a 01		 push	 1
  007fb	50		 push	 eax
  007fc	ff 76 20	 push	 DWORD PTR [esi+32]
  007ff	ff 15 00 00 00
	00		 call	 DWORD PTR __imp__InvalidateRect@12
  00805	e9 57 ff ff ff	 jmp	 $ExitLoop3$380
$LN59@OnLButtonD:
; File D:\git\src\IBK\IBK_DRFN\ProjSrc\SrcDrfn\Chart\comparechart\control\GfxOutBarCtrl.cpp

; 2858 : 	if (ht == htUpScroll)

  0080a	83 ff 02	 cmp	 edi, 2
  0080d	0f 85 c9 01 00
	00		 jne	 $LN78@OnLButtonD

; 2859 : 	{
; 2860 : 		bLooping = true;

  00813	c6 86 e4 00 00
	00 01		 mov	 BYTE PTR [esi+228], 1

; 2861 : 		bool bHigh = true;
; 2862 : 
; 2863 : 		if (::GetCapture() == NULL)

  0081a	ff d1		 call	 ecx
  0081c	85 c0		 test	 eax, eax
  0081e	0f 85 b8 01 00
	00		 jne	 $LN78@OnLButtonD
; File C:\Program Files (x86)\Microsoft Visual Studio\2019\Community\VC\Tools\MSVC\14.29.30133\atlmfc\include\afxwin2.inl

; 163  : 	{ ASSERT(::IsWindow(m_hWnd)); return CWnd::FromHandle(::SetCapture(m_hWnd)); }

  00824	ff 76 20	 push	 DWORD PTR [esi+32]
  00827	ff 15 00 00 00
	00		 call	 DWORD PTR __imp__SetCapture@4
  0082d	50		 push	 eax
  0082e	e8 00 00 00 00	 call	 ?FromHandle@CWnd@@SGPAV1@PAUHWND__@@@Z ; CWnd::FromHandle
; File D:\git\src\IBK\IBK_DRFN\ProjSrc\SrcDrfn\Chart\comparechart\control\GfxOutBarCtrl.cpp

; 2867 : 			CClientDC dc(this);

  00833	56		 push	 esi
  00834	8d 8d 48 ff ff
	ff		 lea	 ecx, DWORD PTR _dc$3[ebp]
  0083a	e8 00 00 00 00	 call	 ??0CClientDC@@QAE@PAVCWnd@@@Z ; CClientDC::CClientDC
; File C:\Program Files (x86)\Microsoft Visual Studio\2019\Community\VC\Tools\MSVC\14.29.30133\atlmfc\include\afxwin1.inl

; 512  : 	{ ASSERT(m_hDC != NULL); return ::DrawFrameControl(m_hDC, lpRect, nType, nState); }

  0083f	68 00 02 00 00	 push	 512			; 00000200H
  00844	6a 03		 push	 3
; File D:\git\src\IBK\IBK_DRFN\ProjSrc\SrcDrfn\Chart\comparechart\control\GfxOutBarCtrl.cpp

; 2868 : 			dc.DrawFrameControl(rcUpArrow, DFC_SCROLL, DFCS_SCROLLUP|DFCS_PUSHED);

  00846	8d be c4 00 00
	00		 lea	 edi, DWORD PTR [esi+196]
  0084c	c7 45 fc 03 00
	00 00		 mov	 DWORD PTR __$EHRec$[ebp+8], 3
; File C:\Program Files (x86)\Microsoft Visual Studio\2019\Community\VC\Tools\MSVC\14.29.30133\atlmfc\include\afxwin1.inl

; 512  : 	{ ASSERT(m_hDC != NULL); return ::DrawFrameControl(m_hDC, lpRect, nType, nState); }

  00853	57		 push	 edi
  00854	ff b5 4c ff ff
	ff		 push	 DWORD PTR _dc$3[ebp+4]
  0085a	ff 15 00 00 00
	00		 call	 DWORD PTR __imp__DrawFrameControl@16
; File C:\Program Files (x86)\Microsoft Visual Studio\2019\Community\VC\Tools\MSVC\14.29.30133\atlmfc\include\afxwin2.inl

; 152  : 	{ ASSERT(::IsWindow(m_hWnd)); return ::SetTimer(m_hWnd, nIDEvent, nElapse,

  00860	6a 00		 push	 0
  00862	68 2c 01 00 00	 push	 300			; 0000012cH
  00867	6a 02		 push	 2
  00869	ff 76 20	 push	 DWORD PTR [esi+32]
  0086c	ff 15 00 00 00
	00		 call	 DWORD PTR __imp__SetTimer@16
; File D:\git\src\IBK\IBK_DRFN\ProjSrc\SrcDrfn\Chart\comparechart\control\GfxOutBarCtrl.cpp

; 2870 : 			AfxLockTempMaps();

  00872	e8 00 00 00 00	 call	 ?AfxLockTempMaps@@YGXXZ	; AfxLockTempMaps

; 2871 : 			for (;;)
; 2872 : 			{
; 2873 : 				MSG msg;
; 2874 : 				VERIFY(::GetMessage(&msg, NULL, 0, 0));

  00877	6a 00		 push	 0
  00879	6a 00		 push	 0
  0087b	6a 00		 push	 0
  0087d	8d 85 70 ff ff
	ff		 lea	 eax, DWORD PTR _msg$7[ebp]
  00883	50		 push	 eax
  00884	ff 15 00 00 00
	00		 call	 DWORD PTR __imp__GetMessageA@16
; File C:\Program Files (x86)\Microsoft Visual Studio\2019\Community\VC\Tools\MSVC\14.29.30133\atlmfc\include\afxwin2.inl

; 161  : 	{ return CWnd::FromHandle(::GetCapture()); }

  0088a	ff 15 00 00 00
	00		 call	 DWORD PTR __imp__GetCapture@0
  00890	50		 push	 eax
  00891	e8 00 00 00 00	 call	 ?FromHandle@CWnd@@SGPAV1@PAUHWND__@@@Z ; CWnd::FromHandle
; File D:\git\src\IBK\IBK_DRFN\ProjSrc\SrcDrfn\Chart\comparechart\control\GfxOutBarCtrl.cpp

; 2876 : 				if (CWnd::GetCapture() != this) break;

  00896	3b c6		 cmp	 eax, esi
  00898	0f 85 b4 00 00
	00		 jne	 $ExitLoop$381
  0089e	66 90		 npad	 2
$LL17@OnLButtonD:

; 2877 : 
; 2878 : 				switch (msg.message)

  008a0	8b 85 74 ff ff
	ff		 mov	 eax, DWORD PTR _msg$7[ebp+4]
  008a6	2d 00 01 00 00	 sub	 eax, 256		; 00000100H
  008ab	0f 84 fe 01 00
	00		 je	 $LN93@OnLButtonD
  008b1	83 e8 13	 sub	 eax, 19			; 00000013H
  008b4	0f 84 46 01 00
	00		 je	 $LN85@OnLButtonD
  008ba	2d ef 00 00 00	 sub	 eax, 239		; 000000efH
  008bf	0f 85 f3 01 00
	00		 jne	 $LN94@OnLButtonD
; File C:\Program Files (x86)\Microsoft Visual Studio\2019\Community\VC\Tools\MSVC\14.29.30133\atlmfc\include\afxwin1.inl

; 512  : 	{ ASSERT(m_hDC != NULL); return ::DrawFrameControl(m_hDC, lpRect, nType, nState); }

  008c5	50		 push	 eax
  008c6	6a 03		 push	 3
  008c8	57		 push	 edi
  008c9	ff b5 4c ff ff
	ff		 push	 DWORD PTR _dc$3[ebp+4]
  008cf	ff 15 00 00 00
	00		 call	 DWORD PTR __imp__DrawFrameControl@16
; File C:\Program Files (x86)\Microsoft Visual Studio\2019\Community\VC\Tools\MSVC\14.29.30133\atlmfc\include\atltypes.h

; 424  : 	x = (short)LOWORD(dwPoint);

  008d5	8b 85 7c ff ff
	ff		 mov	 eax, DWORD PTR _msg$7[ebp+12]
  008db	0f bf c8	 movsx	 ecx, ax

; 425  : 	y = (short)HIWORD(dwPoint);

  008de	c1 e8 10	 shr	 eax, 16			; 00000010H
  008e1	98		 cwde

; 648  : 	return ::PtInRect(this, point);

  008e2	50		 push	 eax
  008e3	51		 push	 ecx
  008e4	57		 push	 edi
; File D:\git\src\IBK\IBK_DRFN\ProjSrc\SrcDrfn\Chart\comparechart\control\GfxOutBarCtrl.cpp

; 2913 : 						bUpArrow = false;

  008e5	c6 86 c0 00 00
	00 00		 mov	 BYTE PTR [esi+192], 0
; File C:\Program Files (x86)\Microsoft Visual Studio\2019\Community\VC\Tools\MSVC\14.29.30133\atlmfc\include\atltypes.h

; 648  : 	return ::PtInRect(this, point);

  008ec	ff 15 00 00 00
	00		 call	 DWORD PTR __imp__PtInRect@12
; File D:\git\src\IBK\IBK_DRFN\ProjSrc\SrcDrfn\Chart\comparechart\control\GfxOutBarCtrl.cpp

; 2915 : 						if (rcUpArrow.PtInRect(pt))

  008f2	85 c0		 test	 eax, eax
  008f4	74 5c		 je	 SHORT $ExitLoop$381

; 2916 : 						{
; 2917 : 							if (iFirstItem > 0 ) 

  008f6	8b 86 20 01 00
	00		 mov	 eax, DWORD PTR [esi+288]
  008fc	85 c0		 test	 eax, eax
  008fe	7e 52		 jle	 SHORT $ExitLoop$381

; 2918 : 							{
; 2919 : 								iFirstItem --;

  00900	48		 dec	 eax
  00901	0f 57 c0	 xorps	 xmm0, xmm0
  00904	89 86 20 01 00
	00		 mov	 DWORD PTR [esi+288], eax
; File C:\Program Files (x86)\Microsoft Visual Studio\2019\Community\VC\Tools\MSVC\14.29.30133\atlmfc\include\afxwin2.inl

; 86   : 	{ ASSERT(::IsWindow(m_hWnd)); ::GetClientRect(m_hWnd, lpRect); }

  0090a	8d 45 d0	 lea	 eax, DWORD PTR _crc$19[ebp]
  0090d	50		 push	 eax
  0090e	ff 76 20	 push	 DWORD PTR [esi+32]
; File C:\Program Files (x86)\Microsoft Visual Studio\2019\Community\VC\Tools\MSVC\14.29.30133\atlmfc\include\atltypes.h

; 528  : 	left = 0;

  00911	0f 11 45 d0	 movups	 XMMWORD PTR _crc$19[ebp], xmm0
; File C:\Program Files (x86)\Microsoft Visual Studio\2019\Community\VC\Tools\MSVC\14.29.30133\atlmfc\include\afxwin2.inl

; 86   : 	{ ASSERT(::IsWindow(m_hWnd)); ::GetClientRect(m_hWnd, lpRect); }

  00915	ff 15 00 00 00
	00		 call	 DWORD PTR __imp__GetClientRect@8
; File D:\git\src\IBK\IBK_DRFN\ProjSrc\SrcDrfn\Chart\comparechart\control\GfxOutBarCtrl.cpp

; 746  : 	if (arFolder.GetSize() > 0)

  0091b	8b be 0c 01 00
	00		 mov	 edi, DWORD PTR [esi+268]
  00921	85 ff		 test	 edi, edi
  00923	7e 1e		 jle	 SHORT $LN264@OnLButtonD

; 747  : 	{
; 748  : 		int max = arFolder.GetSize();
; 749  : 		rect.top += iFolderHeight * (iSelFolder + 1); + 1;//+ 2;

  00925	8b 8e 34 01 00
	00		 mov	 ecx, DWORD PTR [esi+308]

; 750  : 		rect.bottom -= (max - iSelFolder - 1)*iFolderHeight;

  0092b	2b f9		 sub	 edi, ecx
  0092d	8b 96 a0 00 00
	00		 mov	 edx, DWORD PTR [esi+160]
  00933	4f		 dec	 edi
  00934	0f af fa	 imul	 edi, edx
  00937	8d 41 01	 lea	 eax, DWORD PTR [ecx+1]
  0093a	0f af c2	 imul	 eax, edx
  0093d	01 45 d4	 add	 DWORD PTR _crc$19[ebp+4], eax
  00940	29 7d dc	 sub	 DWORD PTR _crc$19[ebp+12], edi
$LN264@OnLButtonD:
; File C:\Program Files (x86)\Microsoft Visual Studio\2019\Community\VC\Tools\MSVC\14.29.30133\atlmfc\include\afxwin2.inl

; 116  : 	{ ASSERT(::IsWindow(m_hWnd)); ::InvalidateRect(m_hWnd, lpRect, bErase); }

  00943	6a 01		 push	 1
  00945	8d 45 d0	 lea	 eax, DWORD PTR _crc$19[ebp]
  00948	50		 push	 eax
  00949	ff 76 20	 push	 DWORD PTR [esi+32]
  0094c	ff 15 00 00 00
	00		 call	 DWORD PTR __imp__InvalidateRect@12
$ExitLoop$381:

; 155  : 	{ ASSERT(::IsWindow(m_hWnd)); return ::KillTimer(m_hWnd, nIDEvent); }

  00952	6a 02		 push	 2
  00954	ff 76 20	 push	 DWORD PTR [esi+32]
  00957	ff 15 00 00 00
	00		 call	 DWORD PTR __imp__KillTimer@8
; File D:\git\src\IBK\IBK_DRFN\ProjSrc\SrcDrfn\Chart\comparechart\control\GfxOutBarCtrl.cpp

; 2965 : 			ReleaseCapture();

  0095d	ff 15 00 00 00
	00		 call	 DWORD PTR __imp__ReleaseCapture@0

; 2966 : 			AfxUnlockTempMaps(FALSE);

  00963	6a 00		 push	 0
  00965	e8 00 00 00 00	 call	 ?AfxUnlockTempMaps@@YGHH@Z ; AfxUnlockTempMaps
; File C:\Program Files (x86)\Microsoft Visual Studio\2019\Community\VC\Tools\MSVC\14.29.30133\atlmfc\include\afxwin2.inl

; 86   : 	{ ASSERT(::IsWindow(m_hWnd)); ::GetClientRect(m_hWnd, lpRect); }

  0096a	8d 45 c0	 lea	 eax, DWORD PTR _crc$14[ebp]
; File D:\git\src\IBK\IBK_DRFN\ProjSrc\SrcDrfn\Chart\comparechart\control\GfxOutBarCtrl.cpp

; 2967 : 			bLooping = false;

  0096d	c6 86 e4 00 00
	00 00		 mov	 BYTE PTR [esi+228], 0
; File C:\Program Files (x86)\Microsoft Visual Studio\2019\Community\VC\Tools\MSVC\14.29.30133\atlmfc\include\afxwin2.inl

; 86   : 	{ ASSERT(::IsWindow(m_hWnd)); ::GetClientRect(m_hWnd, lpRect); }

  00974	50		 push	 eax
  00975	ff 76 20	 push	 DWORD PTR [esi+32]
  00978	0f 57 c0	 xorps	 xmm0, xmm0
; File D:\git\src\IBK\IBK_DRFN\ProjSrc\SrcDrfn\Chart\comparechart\control\GfxOutBarCtrl.cpp

; 2968 : 			bUpPressed = false;

  0097b	c6 86 c2 00 00
	00 00		 mov	 BYTE PTR [esi+194], 0

; 2969 : 			bUpArrow = false;

  00982	c6 86 c0 00 00
	00 00		 mov	 BYTE PTR [esi+192], 0
; File C:\Program Files (x86)\Microsoft Visual Studio\2019\Community\VC\Tools\MSVC\14.29.30133\atlmfc\include\atltypes.h

; 528  : 	left = 0;

  00989	0f 11 45 c0	 movups	 XMMWORD PTR _crc$14[ebp], xmm0
; File C:\Program Files (x86)\Microsoft Visual Studio\2019\Community\VC\Tools\MSVC\14.29.30133\atlmfc\include\afxwin2.inl

; 86   : 	{ ASSERT(::IsWindow(m_hWnd)); ::GetClientRect(m_hWnd, lpRect); }

  0098d	ff 15 00 00 00
	00		 call	 DWORD PTR __imp__GetClientRect@8
; File D:\git\src\IBK\IBK_DRFN\ProjSrc\SrcDrfn\Chart\comparechart\control\GfxOutBarCtrl.cpp

; 746  : 	if (arFolder.GetSize() > 0)

  00993	8b be 0c 01 00
	00		 mov	 edi, DWORD PTR [esi+268]
  00999	85 ff		 test	 edi, edi
  0099b	7e 1e		 jle	 SHORT $LN290@OnLButtonD

; 747  : 	{
; 748  : 		int max = arFolder.GetSize();
; 749  : 		rect.top += iFolderHeight * (iSelFolder + 1); + 1;//+ 2;

  0099d	8b 8e 34 01 00
	00		 mov	 ecx, DWORD PTR [esi+308]

; 750  : 		rect.bottom -= (max - iSelFolder - 1)*iFolderHeight;

  009a3	2b f9		 sub	 edi, ecx
  009a5	8b 96 a0 00 00
	00		 mov	 edx, DWORD PTR [esi+160]
  009ab	4f		 dec	 edi
  009ac	0f af fa	 imul	 edi, edx
  009af	8d 41 01	 lea	 eax, DWORD PTR [ecx+1]
  009b2	0f af c2	 imul	 eax, edx
  009b5	01 45 c4	 add	 DWORD PTR _crc$14[ebp+4], eax
  009b8	29 7d cc	 sub	 DWORD PTR _crc$14[ebp+12], edi
$LN290@OnLButtonD:
; File C:\Program Files (x86)\Microsoft Visual Studio\2019\Community\VC\Tools\MSVC\14.29.30133\atlmfc\include\afxwin2.inl

; 116  : 	{ ASSERT(::IsWindow(m_hWnd)); ::InvalidateRect(m_hWnd, lpRect, bErase); }

  009bb	6a 01		 push	 1
  009bd	8d 45 c0	 lea	 eax, DWORD PTR _crc$14[ebp]
  009c0	50		 push	 eax
  009c1	ff 76 20	 push	 DWORD PTR [esi+32]
  009c4	ff 15 00 00 00
	00		 call	 DWORD PTR __imp__InvalidateRect@12
; File D:\git\src\IBK\IBK_DRFN\ProjSrc\SrcDrfn\Chart\comparechart\control\GfxOutBarCtrl.cpp

; 2973 : 		}

  009ca	8d 8d 48 ff ff
	ff		 lea	 ecx, DWORD PTR _dc$3[ebp]
$LN376@OnLButtonD:
; File C:\Program Files (x86)\Microsoft Visual Studio\2019\Community\VC\Tools\MSVC\14.29.30133\atlmfc\include\afxwin2.inl

; 430  : 	{ Default(); }

  009d0	c7 45 fc ff ff
	ff ff		 mov	 DWORD PTR __$EHRec$[ebp+8], -1
  009d7	e8 00 00 00 00	 call	 ??1CClientDC@@UAE@XZ	; CClientDC::~CClientDC
$LN78@OnLButtonD:
  009dc	8b ce		 mov	 ecx, esi
  009de	e8 00 00 00 00	 call	 ?Default@CWnd@@IAEJXZ	; CWnd::Default
; File D:\git\src\IBK\IBK_DRFN\ProjSrc\SrcDrfn\Chart\comparechart\control\GfxOutBarCtrl.cpp

; 2977 : }

  009e3	8b 4d f4	 mov	 ecx, DWORD PTR __$EHRec$[ebp]
  009e6	64 89 0d 00 00
	00 00		 mov	 DWORD PTR fs:0, ecx
  009ed	59		 pop	 ecx
  009ee	5f		 pop	 edi
  009ef	5e		 pop	 esi
  009f0	8b 4d f0	 mov	 ecx, DWORD PTR __$ArrayPad$[ebp]
  009f3	33 cd		 xor	 ecx, ebp
  009f5	e8 00 00 00 00	 call	 @__security_check_cookie@4
  009fa	8b e5		 mov	 esp, ebp
  009fc	5d		 pop	 ebp
  009fd	c2 0c 00	 ret	 12			; 0000000cH
$LN85@OnLButtonD:

; 2920 : 								CRect crc;
; 2921 : 								GetInsideRect(crc);
; 2922 : 								InvalidateRect(crc, true);
; 2923 : 							}
; 2924 : 						}
; 2925 : 					}
; 2926 : 
; 2927 : 					goto ExitLoop;
; 2928 : 
; 2929 : 				case WM_TIMER:
; 2930 : 					{
; 2931 : 						if (msg.wParam == 2)

  00a00	83 bd 78 ff ff
	ff 02		 cmp	 DWORD PTR _msg$7[ebp+8], 2
  00a07	0f 85 b8 00 00
	00		 jne	 $LN20@OnLButtonD
; File C:\Program Files (x86)\Microsoft Visual Studio\2019\Community\VC\Tools\MSVC\14.29.30133\atlmfc\include\atltypes.h

; 414  : 	*(POINT*)this = initPt;

  00a0d	8b 45 84	 mov	 eax, DWORD PTR _msg$7[ebp+20]
  00a10	8b 4d 88	 mov	 ecx, DWORD PTR _msg$7[ebp+24]
  00a13	89 45 e8	 mov	 DWORD PTR _pt$24[ebp], eax
; File C:\Program Files (x86)\Microsoft Visual Studio\2019\Community\VC\Tools\MSVC\14.29.30133\atlmfc\include\afxwin2.inl

; 94   : 	{ ASSERT(::IsWindow(m_hWnd)); ::ScreenToClient(m_hWnd, lpPoint); }

  00a16	8d 45 e8	 lea	 eax, DWORD PTR _pt$24[ebp]
  00a19	50		 push	 eax
  00a1a	ff 76 20	 push	 DWORD PTR [esi+32]
; File C:\Program Files (x86)\Microsoft Visual Studio\2019\Community\VC\Tools\MSVC\14.29.30133\atlmfc\include\atltypes.h

; 414  : 	*(POINT*)this = initPt;

  00a1d	89 4d ec	 mov	 DWORD PTR _pt$24[ebp+4], ecx
; File C:\Program Files (x86)\Microsoft Visual Studio\2019\Community\VC\Tools\MSVC\14.29.30133\atlmfc\include\afxwin2.inl

; 94   : 	{ ASSERT(::IsWindow(m_hWnd)); ::ScreenToClient(m_hWnd, lpPoint); }

  00a20	ff 15 00 00 00
	00		 call	 DWORD PTR __imp__ScreenToClient@8
; File C:\Program Files (x86)\Microsoft Visual Studio\2019\Community\VC\Tools\MSVC\14.29.30133\atlmfc\include\atltypes.h

; 648  : 	return ::PtInRect(this, point);

  00a26	ff 75 ec	 push	 DWORD PTR _pt$24[ebp+4]
  00a29	ff 75 e8	 push	 DWORD PTR _pt$24[ebp]
  00a2c	57		 push	 edi
  00a2d	ff 15 00 00 00
	00		 call	 DWORD PTR __imp__PtInRect@12
; File D:\git\src\IBK\IBK_DRFN\ProjSrc\SrcDrfn\Chart\comparechart\control\GfxOutBarCtrl.cpp

; 2937 : 								if (rcUpArrow.PtInRect(pt))

  00a33	85 c0		 test	 eax, eax
  00a35	74 6f		 je	 SHORT $LN88@OnLButtonD

; 2938 : 								{
; 2939 : 									bUpPressed = true;
; 2940 : 									if (iFirstItem > 0) 

  00a37	8b 86 20 01 00
	00		 mov	 eax, DWORD PTR [esi+288]
  00a3d	c6 86 c2 00 00
	00 01		 mov	 BYTE PTR [esi+194], 1
  00a44	85 c0		 test	 eax, eax
  00a46	0f 8e 06 ff ff
	ff		 jle	 $ExitLoop$381

; 2941 : 									{
; 2942 : 										iFirstItem --;

  00a4c	48		 dec	 eax
  00a4d	0f 57 c0	 xorps	 xmm0, xmm0
  00a50	89 86 20 01 00
	00		 mov	 DWORD PTR [esi+288], eax
; File C:\Program Files (x86)\Microsoft Visual Studio\2019\Community\VC\Tools\MSVC\14.29.30133\atlmfc\include\afxwin2.inl

; 86   : 	{ ASSERT(::IsWindow(m_hWnd)); ::GetClientRect(m_hWnd, lpRect); }

  00a56	8d 45 a0	 lea	 eax, DWORD PTR _crc$10[ebp]
  00a59	50		 push	 eax
  00a5a	ff 76 20	 push	 DWORD PTR [esi+32]
; File C:\Program Files (x86)\Microsoft Visual Studio\2019\Community\VC\Tools\MSVC\14.29.30133\atlmfc\include\atltypes.h

; 528  : 	left = 0;

  00a5d	0f 11 45 a0	 movups	 XMMWORD PTR _crc$10[ebp], xmm0
; File C:\Program Files (x86)\Microsoft Visual Studio\2019\Community\VC\Tools\MSVC\14.29.30133\atlmfc\include\afxwin2.inl

; 86   : 	{ ASSERT(::IsWindow(m_hWnd)); ::GetClientRect(m_hWnd, lpRect); }

  00a61	ff 15 00 00 00
	00		 call	 DWORD PTR __imp__GetClientRect@8
; File D:\git\src\IBK\IBK_DRFN\ProjSrc\SrcDrfn\Chart\comparechart\control\GfxOutBarCtrl.cpp

; 746  : 	if (arFolder.GetSize() > 0)

  00a67	8b be 0c 01 00
	00		 mov	 edi, DWORD PTR [esi+268]
  00a6d	85 ff		 test	 edi, edi
  00a6f	7e 1e		 jle	 SHORT $LN366@OnLButtonD

; 747  : 	{
; 748  : 		int max = arFolder.GetSize();
; 749  : 		rect.top += iFolderHeight * (iSelFolder + 1); + 1;//+ 2;

  00a71	8b 8e 34 01 00
	00		 mov	 ecx, DWORD PTR [esi+308]

; 750  : 		rect.bottom -= (max - iSelFolder - 1)*iFolderHeight;

  00a77	2b f9		 sub	 edi, ecx
  00a79	8b 96 a0 00 00
	00		 mov	 edx, DWORD PTR [esi+160]
  00a7f	4f		 dec	 edi
  00a80	0f af fa	 imul	 edi, edx
  00a83	8d 41 01	 lea	 eax, DWORD PTR [ecx+1]
  00a86	0f af c2	 imul	 eax, edx
  00a89	01 45 a4	 add	 DWORD PTR _crc$10[ebp+4], eax
  00a8c	29 7d ac	 sub	 DWORD PTR _crc$10[ebp+12], edi
$LN366@OnLButtonD:
; File C:\Program Files (x86)\Microsoft Visual Studio\2019\Community\VC\Tools\MSVC\14.29.30133\atlmfc\include\afxwin2.inl

; 116  : 	{ ASSERT(::IsWindow(m_hWnd)); ::InvalidateRect(m_hWnd, lpRect, bErase); }

  00a8f	6a 01		 push	 1
  00a91	8d 45 a0	 lea	 eax, DWORD PTR _crc$10[ebp]
  00a94	50		 push	 eax
  00a95	ff 76 20	 push	 DWORD PTR [esi+32]
  00a98	ff 15 00 00 00
	00		 call	 DWORD PTR __imp__InvalidateRect@12
; File D:\git\src\IBK\IBK_DRFN\ProjSrc\SrcDrfn\Chart\comparechart\control\GfxOutBarCtrl.cpp

; 2948 : 								}

  00a9e	8d be c4 00 00
	00		 lea	 edi, DWORD PTR [esi+196]
  00aa4	eb 1f		 jmp	 SHORT $LN20@OnLButtonD
$LN88@OnLButtonD:

; 2949 : 								else bUpPressed = false;

  00aa6	c6 86 c2 00 00
	00 00		 mov	 BYTE PTR [esi+194], 0

; 2950 : 							}
; 2951 : 						}
; 2952 : 						break;

  00aad	eb 16		 jmp	 SHORT $LN20@OnLButtonD
$LN93@OnLButtonD:

; 2953 : 					}
; 2954 : 				case WM_KEYDOWN:	
; 2955 : 					if (msg.wParam != VK_ESCAPE) break;

  00aaf	83 bd 78 ff ff
	ff 1b		 cmp	 DWORD PTR _msg$7[ebp+8], 27 ; 0000001bH
  00ab6	75 0d		 jne	 SHORT $LN20@OnLButtonD
$LN94@OnLButtonD:

; 2956 : 
; 2957 : 				default:
; 2958 : 					DispatchMessage(&msg);

  00ab8	8d 85 70 ff ff
	ff		 lea	 eax, DWORD PTR _msg$7[ebp]
  00abe	50		 push	 eax
  00abf	ff 15 00 00 00
	00		 call	 DWORD PTR __imp__DispatchMessageA@4
$LN20@OnLButtonD:

; 2871 : 			for (;;)
; 2872 : 			{
; 2873 : 				MSG msg;
; 2874 : 				VERIFY(::GetMessage(&msg, NULL, 0, 0));

  00ac5	6a 00		 push	 0
  00ac7	6a 00		 push	 0
  00ac9	6a 00		 push	 0
  00acb	8d 85 70 ff ff
	ff		 lea	 eax, DWORD PTR _msg$7[ebp]
  00ad1	50		 push	 eax
  00ad2	ff 15 00 00 00
	00		 call	 DWORD PTR __imp__GetMessageA@16
; File C:\Program Files (x86)\Microsoft Visual Studio\2019\Community\VC\Tools\MSVC\14.29.30133\atlmfc\include\afxwin2.inl

; 161  : 	{ return CWnd::FromHandle(::GetCapture()); }

  00ad8	ff 15 00 00 00
	00		 call	 DWORD PTR __imp__GetCapture@0
  00ade	50		 push	 eax
  00adf	e8 00 00 00 00	 call	 ?FromHandle@CWnd@@SGPAV1@PAUHWND__@@@Z ; CWnd::FromHandle
; File D:\git\src\IBK\IBK_DRFN\ProjSrc\SrcDrfn\Chart\comparechart\control\GfxOutBarCtrl.cpp

; 2876 : 				if (CWnd::GetCapture() != this) break;

  00ae4	3b c6		 cmp	 eax, esi
  00ae6	0f 84 b4 fd ff
	ff		 je	 $LL17@OnLButtonD
  00aec	e9 61 fe ff ff	 jmp	 $ExitLoop$381
$LN200@OnLButtonD:

; 2977 : }

  00af1	e8 00 00 00 00	 call	 ?AfxThrowInvalidArgException@@YGXXZ ; AfxThrowInvalidArgException
$LN375@OnLButtonD:
  00af6	cc		 int	 3
_TEXT	ENDS
;	COMDAT text$x
text$x	SEGMENT
__unwindfunclet$?OnLButtonDblClk@CGfxOutBarCtrl@@IAEXIVCPoint@@@Z$6:
  00000	8d 8d 5c ff ff
	ff		 lea	 ecx, DWORD PTR _dc$6[ebp]
  00006	e9 00 00 00 00	 jmp	 ??1CClientDC@@UAE@XZ	; CClientDC::~CClientDC
__unwindfunclet$?OnLButtonDblClk@CGfxOutBarCtrl@@IAEXIVCPoint@@@Z$7:
  0000b	8d 8d 5c ff ff
	ff		 lea	 ecx, DWORD PTR _dc$5[ebp]
  00011	e9 00 00 00 00	 jmp	 ??1CClientDC@@UAE@XZ	; CClientDC::~CClientDC
__unwindfunclet$?OnLButtonDblClk@CGfxOutBarCtrl@@IAEXIVCPoint@@@Z$8:
  00016	8d 8d 5c ff ff
	ff		 lea	 ecx, DWORD PTR _dc$4[ebp]
  0001c	e9 00 00 00 00	 jmp	 ??1CClientDC@@UAE@XZ	; CClientDC::~CClientDC
__unwindfunclet$?OnLButtonDblClk@CGfxOutBarCtrl@@IAEXIVCPoint@@@Z$9:
  00021	8d 8d 48 ff ff
	ff		 lea	 ecx, DWORD PTR _dc$3[ebp]
  00027	e9 00 00 00 00	 jmp	 ??1CClientDC@@UAE@XZ	; CClientDC::~CClientDC
  0002c	cc		 int	 3
  0002d	cc		 int	 3
  0002e	cc		 int	 3
  0002f	cc		 int	 3
  00030	cc		 int	 3
__ehhandler$?OnLButtonDblClk@CGfxOutBarCtrl@@IAEXIVCPoint@@@Z:
  00031	90		 npad	 1
  00032	90		 npad	 1
  00033	8b 54 24 08	 mov	 edx, DWORD PTR [esp+8]
  00037	8d 42 0c	 lea	 eax, DWORD PTR [edx+12]
  0003a	8b 8a 40 ff ff
	ff		 mov	 ecx, DWORD PTR [edx-192]
  00040	33 c8		 xor	 ecx, eax
  00042	e8 00 00 00 00	 call	 @__security_check_cookie@4
  00047	8b 4a fc	 mov	 ecx, DWORD PTR [edx-4]
  0004a	33 c8		 xor	 ecx, eax
  0004c	e8 00 00 00 00	 call	 @__security_check_cookie@4
  00051	b8 00 00 00 00	 mov	 eax, OFFSET __ehfuncinfo$?OnLButtonDblClk@CGfxOutBarCtrl@@IAEXIVCPoint@@@Z
  00056	e9 00 00 00 00	 jmp	 ___CxxFrameHandler3
text$x	ENDS
?OnLButtonDblClk@CGfxOutBarCtrl@@IAEXIVCPoint@@@Z ENDP	; CGfxOutBarCtrl::OnLButtonDblClk
; Function compile flags: /Ogtp
; File D:\git\src\IBK\IBK_DRFN\ProjSrc\SrcDrfn\Chart\comparechart\control\GfxOutBarCtrl.cpp
; File C:\Program Files (x86)\Microsoft Visual Studio\2019\Community\VC\Tools\MSVC\14.29.30133\atlmfc\include\afxwin1.inl
; File D:\git\src\IBK\IBK_DRFN\ProjSrc\SrcDrfn\Chart\comparechart\control\GfxOutBarCtrl.cpp
; File C:\Program Files (x86)\Microsoft Visual Studio\2019\Community\VC\Tools\MSVC\14.29.30133\atlmfc\include\afxcoll.inl
; File D:\git\src\IBK\IBK_DRFN\ProjSrc\SrcDrfn\Chart\comparechart\control\GfxOutBarCtrl.cpp
; File C:\Program Files (x86)\Microsoft Visual Studio\2019\Community\VC\Tools\MSVC\14.29.30133\atlmfc\include\afxcoll.inl
; File D:\git\src\IBK\IBK_DRFN\ProjSrc\SrcDrfn\Chart\comparechart\control\GfxOutBarCtrl.cpp
; File C:\Program Files (x86)\Microsoft Visual Studio\2019\Community\VC\Tools\MSVC\14.29.30133\atlmfc\include\afxcoll.inl
; File D:\git\src\IBK\IBK_DRFN\ProjSrc\SrcDrfn\Chart\comparechart\control\GfxOutBarCtrl.cpp
;	COMDAT ?OnDestroy@CGfxOutBarCtrl@@IAEXXZ
_TEXT	SEGMENT
?OnDestroy@CGfxOutBarCtrl@@IAEXXZ PROC			; CGfxOutBarCtrl::OnDestroy, COMDAT
; _this$ = ecx

; 2438 : {

  00000	56		 push	 esi
  00001	57		 push	 edi
  00002	8b f9		 mov	 edi, ecx

; 2439 : 	if(m_Font.GetSafeHandle())

  00004	8d 8f 54 01 00
	00		 lea	 ecx, DWORD PTR [edi+340]
; File C:\Program Files (x86)\Microsoft Visual Studio\2019\Community\VC\Tools\MSVC\14.29.30133\atlmfc\include\afxwin1.inl

; 68   : 	{ return this == NULL ? NULL : m_hObject; }

  0000a	85 c9		 test	 ecx, ecx
  0000c	74 0b		 je	 SHORT $LN2@OnDestroy
; File D:\git\src\IBK\IBK_DRFN\ProjSrc\SrcDrfn\Chart\comparechart\control\GfxOutBarCtrl.cpp

; 2439 : 	if(m_Font.GetSafeHandle())

  0000e	83 79 04 00	 cmp	 DWORD PTR [ecx+4], 0
  00012	74 05		 je	 SHORT $LN2@OnDestroy

; 2440 : 		m_Font.DeleteObject();

  00014	e8 00 00 00 00	 call	 ?DeleteObject@CGdiObject@@QAEHXZ ; CGdiObject::DeleteObject
$LN2@OnDestroy:

; 2441 : 
; 2442 : 	CWnd::OnDestroy();

  00019	8b cf		 mov	 ecx, edi
  0001b	e8 00 00 00 00	 call	 ?OnDestroy@CWnd@@IAEXXZ	; CWnd::OnDestroy

; 2429 : 	for (int t = 0; t < arFolder.GetSize(); t++)

  00020	8b 97 0c 01 00
	00		 mov	 edx, DWORD PTR [edi+268]
  00026	33 f6		 xor	 esi, esi
  00028	85 d2		 test	 edx, edx
  0002a	7e 2a		 jle	 SHORT $LN35@OnDestroy
  0002c	0f 1f 40 00	 npad	 4
$LL13@OnDestroy:
; File C:\Program Files (x86)\Microsoft Visual Studio\2019\Community\VC\Tools\MSVC\14.29.30133\atlmfc\include\afxcoll.inl

; 203  : 		if( nIndex < 0 || nIndex >= m_nSize )

  00030	85 f6		 test	 esi, esi
  00032	78 4f		 js	 SHORT $LN31@OnDestroy
  00034	3b f2		 cmp	 esi, edx
  00036	7d 4b		 jge	 SHORT $LN31@OnDestroy
; File D:\git\src\IBK\IBK_DRFN\ProjSrc\SrcDrfn\Chart\comparechart\control\GfxOutBarCtrl.cpp

; 2431 : 		if (arFolder.GetAt(t)) delete (CBarFolder*) arFolder.GetAt(t);

  00038	8b 87 08 01 00
	00		 mov	 eax, DWORD PTR [edi+264]
  0003e	8b 0c b0	 mov	 ecx, DWORD PTR [eax+esi*4]
  00041	85 c9		 test	 ecx, ecx
  00043	74 0c		 je	 SHORT $LN11@OnDestroy
  00045	8b 01		 mov	 eax, DWORD PTR [ecx]
  00047	6a 01		 push	 1
  00049	ff 10		 call	 DWORD PTR [eax]
  0004b	8b 97 0c 01 00
	00		 mov	 edx, DWORD PTR [edi+268]
$LN11@OnDestroy:

; 2429 : 	for (int t = 0; t < arFolder.GetSize(); t++)

  00051	46		 inc	 esi
  00052	3b f2		 cmp	 esi, edx
  00054	7c da		 jl	 SHORT $LL13@OnDestroy
$LN35@OnDestroy:
; File C:\Program Files (x86)\Microsoft Visual Studio\2019\Community\VC\Tools\MSVC\14.29.30133\atlmfc\include\afxcoll.inl

; 200  : 	{ SetSize(0); }

  00056	6a ff		 push	 -1
  00058	6a 00		 push	 0
  0005a	8d 8f 04 01 00
	00		 lea	 ecx, DWORD PTR [edi+260]
  00060	e8 00 00 00 00	 call	 ?SetSize@CPtrArray@@QAEXHH@Z ; CPtrArray::SetSize
; File D:\git\src\IBK\IBK_DRFN\ProjSrc\SrcDrfn\Chart\comparechart\control\GfxOutBarCtrl.cpp

; 2444 : 	delete pBlackPen;

  00065	8b 8f 4c 01 00
	00		 mov	 ecx, DWORD PTR [edi+332]

; 2434 : 	iSelFolder = 0;

  0006b	c7 87 34 01 00
	00 00 00 00 00	 mov	 DWORD PTR [edi+308], 0

; 2444 : 	delete pBlackPen;

  00075	5f		 pop	 edi
  00076	5e		 pop	 esi
  00077	85 c9		 test	 ecx, ecx
  00079	74 07		 je	 SHORT $LN4@OnDestroy
  0007b	8b 01		 mov	 eax, DWORD PTR [ecx]
  0007d	6a 01		 push	 1
  0007f	ff 50 04	 call	 DWORD PTR [eax+4]
$LN4@OnDestroy:

; 2445 : }

  00082	c3		 ret	 0
$LN31@OnDestroy:
; File C:\Program Files (x86)\Microsoft Visual Studio\2019\Community\VC\Tools\MSVC\14.29.30133\atlmfc\include\afxcoll.inl

; 204  : 			AfxThrowInvalidArgException();

  00083	e8 00 00 00 00	 call	 ?AfxThrowInvalidArgException@@YGXXZ ; AfxThrowInvalidArgException
$LN37@OnDestroy:
  00088	cc		 int	 3
?OnDestroy@CGfxOutBarCtrl@@IAEXXZ ENDP			; CGfxOutBarCtrl::OnDestroy
_TEXT	ENDS
; Function compile flags: /Ogtp
; File D:\git\src\IBK\IBK_DRFN\ProjSrc\SrcDrfn\Chart\comparechart\control\GfxOutBarCtrl.cpp
;	COMDAT ?OnUpdateGfxRenameitem@CGfxOutBarCtrl@@IAEXPAVCCmdUI@@@Z
_TEXT	SEGMENT
_pCmdUI$ = 8						; size = 4
?OnUpdateGfxRenameitem@CGfxOutBarCtrl@@IAEXPAVCCmdUI@@@Z PROC ; CGfxOutBarCtrl::OnUpdateGfxRenameitem, COMDAT
; _this$ = ecx

; 2055 : }

  00000	c2 04 00	 ret	 4
?OnUpdateGfxRenameitem@CGfxOutBarCtrl@@IAEXPAVCCmdUI@@@Z ENDP ; CGfxOutBarCtrl::OnUpdateGfxRenameitem
_TEXT	ENDS
; Function compile flags: /Ogtp
; File D:\git\src\IBK\IBK_DRFN\ProjSrc\SrcDrfn\Chart\comparechart\control\GfxOutBarCtrl.cpp
;	COMDAT ?OnUpdateGfxRemoveitem@CGfxOutBarCtrl@@IAEXPAVCCmdUI@@@Z
_TEXT	SEGMENT
_pCmdUI$ = 8						; size = 4
?OnUpdateGfxRemoveitem@CGfxOutBarCtrl@@IAEXPAVCCmdUI@@@Z PROC ; CGfxOutBarCtrl::OnUpdateGfxRemoveitem, COMDAT
; _this$ = ecx

; 2050 : 		
; 2051 : }

  00000	c2 04 00	 ret	 4
?OnUpdateGfxRemoveitem@CGfxOutBarCtrl@@IAEXPAVCCmdUI@@@Z ENDP ; CGfxOutBarCtrl::OnUpdateGfxRemoveitem
_TEXT	ENDS
; Function compile flags: /Ogtp
; File D:\git\src\IBK\IBK_DRFN\ProjSrc\SrcDrfn\Chart\comparechart\control\GfxOutBarCtrl.cpp
; File C:\Program Files (x86)\Microsoft Visual Studio\2019\Community\VC\Tools\MSVC\14.29.30133\atlmfc\include\afxcoll.inl
; File D:\git\src\IBK\IBK_DRFN\ProjSrc\SrcDrfn\Chart\comparechart\control\GfxOutBarCtrl.cpp
; File C:\Program Files (x86)\Microsoft Visual Studio\2019\Community\VC\Tools\MSVC\14.29.30133\atlmfc\include\afxwin2.inl
; File D:\git\src\IBK\IBK_DRFN\ProjSrc\SrcDrfn\Chart\comparechart\control\GfxOutBarCtrl.cpp
; File C:\Program Files (x86)\Microsoft Visual Studio\2019\Community\VC\Tools\MSVC\14.29.30133\atlmfc\include\afxcoll.inl
; File D:\git\src\IBK\IBK_DRFN\ProjSrc\SrcDrfn\Chart\comparechart\control\GfxOutBarCtrl.cpp
; File C:\Program Files (x86)\Microsoft Visual Studio\2019\Community\VC\Tools\MSVC\14.29.30133\atlmfc\include\afxwin2.inl
; File C:\Program Files (x86)\Microsoft Visual Studio\2019\Community\VC\Tools\MSVC\14.29.30133\atlmfc\include\atltypes.h
; File C:\Program Files (x86)\Microsoft Visual Studio\2019\Community\VC\Tools\MSVC\14.29.30133\atlmfc\include\afxwin2.inl
; File D:\git\src\IBK\IBK_DRFN\ProjSrc\SrcDrfn\Chart\comparechart\control\GfxOutBarCtrl.cpp
; File C:\Program Files (x86)\Microsoft Visual Studio\2019\Community\VC\Tools\MSVC\14.29.30133\atlmfc\include\afxwin2.inl
; File C:\Program Files (x86)\Microsoft Visual Studio\2019\Community\VC\Tools\MSVC\14.29.30133\atlmfc\include\afxcoll.inl
; File D:\git\src\IBK\IBK_DRFN\ProjSrc\SrcDrfn\Chart\comparechart\control\GfxOutBarCtrl.cpp
;	COMDAT ?OnGfxRemoveitem@CGfxOutBarCtrl@@IAEXXZ
_TEXT	SEGMENT
_rc$1 = -20						; size = 16
__$ArrayPad$ = -4					; size = 4
?OnGfxRemoveitem@CGfxOutBarCtrl@@IAEXXZ PROC		; CGfxOutBarCtrl::OnGfxRemoveitem, COMDAT
; _this$ = ecx

; 2037 : {

  00000	55		 push	 ebp
  00001	8b ec		 mov	 ebp, esp
  00003	83 ec 14	 sub	 esp, 20			; 00000014H
  00006	a1 00 00 00 00	 mov	 eax, DWORD PTR ___security_cookie
  0000b	33 c5		 xor	 eax, ebp
  0000d	89 45 fc	 mov	 DWORD PTR __$ArrayPad$[ebp], eax
  00010	53		 push	 ebx
  00011	56		 push	 esi
  00012	8b f1		 mov	 esi, ecx
  00014	57		 push	 edi

; 2038 : 	if (iHitInternal1 == htFolder)

  00015	8b 86 e8 00 00
	00		 mov	 eax, DWORD PTR [esi+232]
  0001b	85 c0		 test	 eax, eax
  0001d	0f 85 83 00 00
	00		 jne	 $LN2@OnGfxRemov

; 2039 : 	{
; 2040 : 		RemoveFolder(iHitInternal2);

  00023	8b be ec 00 00
	00		 mov	 edi, DWORD PTR [esi+236]
; File C:\Program Files (x86)\Microsoft Visual Studio\2019\Community\VC\Tools\MSVC\14.29.30133\atlmfc\include\afxcoll.inl

; 203  : 		if( nIndex < 0 || nIndex >= m_nSize )

  00029	85 ff		 test	 edi, edi
  0002b	0f 88 08 01 00
	00		 js	 $LN27@OnGfxRemov
  00031	3b be 0c 01 00
	00		 cmp	 edi, DWORD PTR [esi+268]
  00037	0f 8d fc 00 00
	00		 jge	 $LN27@OnGfxRemov
; File D:\git\src\IBK\IBK_DRFN\ProjSrc\SrcDrfn\Chart\comparechart\control\GfxOutBarCtrl.cpp

; 1513 : 	delete pbf;

  0003d	8b 86 08 01 00
	00		 mov	 eax, DWORD PTR [esi+264]
  00043	8b 0c b8	 mov	 ecx, DWORD PTR [eax+edi*4]
  00046	85 c9		 test	 ecx, ecx
  00048	74 06		 je	 SHORT $LN10@OnGfxRemov
  0004a	8b 01		 mov	 eax, DWORD PTR [ecx]
  0004c	6a 01		 push	 1
  0004e	ff 10		 call	 DWORD PTR [eax]
$LN10@OnGfxRemov:

; 1514 : 	arFolder.RemoveAt(index);

  00050	6a 01		 push	 1
  00052	57		 push	 edi
  00053	8d 8e 04 01 00
	00		 lea	 ecx, DWORD PTR [esi+260]
  00059	e8 00 00 00 00	 call	 ?RemoveAt@CPtrArray@@QAEXHH@Z ; CPtrArray::RemoveAt

; 1515 : 	if (iSelFolder >= index) iSelFolder = index - 1;

  0005e	8b 86 34 01 00
	00		 mov	 eax, DWORD PTR [esi+308]
  00064	3b c7		 cmp	 eax, edi
  00066	7c 09		 jl	 SHORT $LN7@OnGfxRemov
  00068	8d 47 ff	 lea	 eax, DWORD PTR [edi-1]
  0006b	89 86 34 01 00
	00		 mov	 DWORD PTR [esi+308], eax
$LN7@OnGfxRemov:

; 1516 : 	if (iSelFolder < 0 && GetFolderCount() > 0) iSelFolder = 0;

  00071	85 c0		 test	 eax, eax
  00073	79 13		 jns	 SHORT $LN8@OnGfxRemov
  00075	83 be 0c 01 00
	00 00		 cmp	 DWORD PTR [esi+268], 0
  0007c	7e 0a		 jle	 SHORT $LN8@OnGfxRemov
  0007e	c7 86 34 01 00
	00 00 00 00 00	 mov	 DWORD PTR [esi+308], 0
$LN8@OnGfxRemov:
; File C:\Program Files (x86)\Microsoft Visual Studio\2019\Community\VC\Tools\MSVC\14.29.30133\atlmfc\include\afxwin2.inl

; 114  : 	{ ASSERT(::IsWindow(m_hWnd)); ::InvalidateRect(m_hWnd, NULL, bErase); }

  00088	6a 01		 push	 1
  0008a	6a 00		 push	 0
$LN56@OnGfxRemov:
; File D:\git\src\IBK\IBK_DRFN\ProjSrc\SrcDrfn\Chart\comparechart\control\GfxOutBarCtrl.cpp

; 2046 : }

  0008c	ff 76 20	 push	 DWORD PTR [esi+32]
  0008f	ff 15 00 00 00
	00		 call	 DWORD PTR __imp__InvalidateRect@12
$LN21@OnGfxRemov:
  00095	8b 4d fc	 mov	 ecx, DWORD PTR __$ArrayPad$[ebp]
  00098	5f		 pop	 edi
  00099	5e		 pop	 esi
  0009a	33 cd		 xor	 ecx, ebp
  0009c	5b		 pop	 ebx
  0009d	e8 00 00 00 00	 call	 @__security_check_cookie@4
  000a2	8b e5		 mov	 esp, ebp
  000a4	5d		 pop	 ebp
  000a5	c3		 ret	 0
$LN2@OnGfxRemov:

; 2041 : 	}
; 2042 : 	else if (iHitInternal1 == htItem)

  000a6	83 f8 01	 cmp	 eax, 1
  000a9	75 ea		 jne	 SHORT $LN21@OnGfxRemov

; 2060 : 	CBarFolder * pbf = (CBarFolder *) arFolder.GetAt(iSelFolder);

  000ab	8b 8e 34 01 00
	00		 mov	 ecx, DWORD PTR [esi+308]

; 2043 : 	{
; 2044 : 		RemoveItem(iHitInternal2);

  000b1	8b be ec 00 00
	00		 mov	 edi, DWORD PTR [esi+236]
; File C:\Program Files (x86)\Microsoft Visual Studio\2019\Community\VC\Tools\MSVC\14.29.30133\atlmfc\include\afxcoll.inl

; 203  : 		if( nIndex < 0 || nIndex >= m_nSize )

  000b7	85 c9		 test	 ecx, ecx
  000b9	78 7e		 js	 SHORT $LN27@OnGfxRemov
  000bb	3b 8e 0c 01 00
	00		 cmp	 ecx, DWORD PTR [esi+268]
  000c1	7d 76		 jge	 SHORT $LN27@OnGfxRemov

; 205  : 		return m_pData[nIndex]; }

  000c3	8b 86 08 01 00
	00		 mov	 eax, DWORD PTR [esi+264]
  000c9	8b 04 88	 mov	 eax, DWORD PTR [eax+ecx*4]
; File D:\git\src\IBK\IBK_DRFN\ProjSrc\SrcDrfn\Chart\comparechart\control\GfxOutBarCtrl.cpp

; 2078 : 	return (index >= 0 && index < pbf->GetItemCount());

  000cc	85 ff		 test	 edi, edi
  000ce	78 c5		 js	 SHORT $LN21@OnGfxRemov
  000d0	3b 78 1c	 cmp	 edi, DWORD PTR [eax+28]
  000d3	7d c0		 jge	 SHORT $LN21@OnGfxRemov
  000d5	8d 58 14	 lea	 ebx, DWORD PTR [eax+20]

; 2065 : 		delete i;

  000d8	8b 40 18	 mov	 eax, DWORD PTR [eax+24]
  000db	8b 0c b8	 mov	 ecx, DWORD PTR [eax+edi*4]
  000de	85 c9		 test	 ecx, ecx
  000e0	74 06		 je	 SHORT $LN23@OnGfxRemov
  000e2	8b 01		 mov	 eax, DWORD PTR [ecx]
  000e4	6a 01		 push	 1
  000e6	ff 10		 call	 DWORD PTR [eax]
$LN23@OnGfxRemov:

; 2066 : 
; 2067 : 		pbf->arItems.RemoveAt(index);

  000e8	6a 01		 push	 1
  000ea	57		 push	 edi
  000eb	8b cb		 mov	 ecx, ebx
  000ed	e8 00 00 00 00	 call	 ?RemoveAt@CPtrArray@@QAEXHH@Z ; CPtrArray::RemoveAt
; File C:\Program Files (x86)\Microsoft Visual Studio\2019\Community\VC\Tools\MSVC\14.29.30133\atlmfc\include\afxwin2.inl

; 86   : 	{ ASSERT(::IsWindow(m_hWnd)); ::GetClientRect(m_hWnd, lpRect); }

  000f2	8d 45 ec	 lea	 eax, DWORD PTR _rc$1[ebp]
  000f5	0f 57 c0	 xorps	 xmm0, xmm0
  000f8	50		 push	 eax
  000f9	ff 76 20	 push	 DWORD PTR [esi+32]
; File C:\Program Files (x86)\Microsoft Visual Studio\2019\Community\VC\Tools\MSVC\14.29.30133\atlmfc\include\atltypes.h

; 528  : 	left = 0;

  000fc	0f 11 45 ec	 movups	 XMMWORD PTR _rc$1[ebp], xmm0
; File C:\Program Files (x86)\Microsoft Visual Studio\2019\Community\VC\Tools\MSVC\14.29.30133\atlmfc\include\afxwin2.inl

; 86   : 	{ ASSERT(::IsWindow(m_hWnd)); ::GetClientRect(m_hWnd, lpRect); }

  00100	ff 15 00 00 00
	00		 call	 DWORD PTR __imp__GetClientRect@8
; File D:\git\src\IBK\IBK_DRFN\ProjSrc\SrcDrfn\Chart\comparechart\control\GfxOutBarCtrl.cpp

; 746  : 	if (arFolder.GetSize() > 0)

  00106	8b be 0c 01 00
	00		 mov	 edi, DWORD PTR [esi+268]
  0010c	85 ff		 test	 edi, edi
  0010e	7e 1e		 jle	 SHORT $LN46@OnGfxRemov

; 747  : 	{
; 748  : 		int max = arFolder.GetSize();
; 749  : 		rect.top += iFolderHeight * (iSelFolder + 1); + 1;//+ 2;

  00110	8b 8e 34 01 00
	00		 mov	 ecx, DWORD PTR [esi+308]

; 750  : 		rect.bottom -= (max - iSelFolder - 1)*iFolderHeight;

  00116	2b f9		 sub	 edi, ecx
  00118	8b 96 a0 00 00
	00		 mov	 edx, DWORD PTR [esi+160]
  0011e	4f		 dec	 edi
  0011f	0f af fa	 imul	 edi, edx
  00122	8d 41 01	 lea	 eax, DWORD PTR [ecx+1]
  00125	0f af c2	 imul	 eax, edx
  00128	01 45 f0	 add	 DWORD PTR _rc$1[ebp+4], eax
  0012b	29 7d f8	 sub	 DWORD PTR _rc$1[ebp+12], edi
$LN46@OnGfxRemov:
; File C:\Program Files (x86)\Microsoft Visual Studio\2019\Community\VC\Tools\MSVC\14.29.30133\atlmfc\include\afxwin2.inl

; 116  : 	{ ASSERT(::IsWindow(m_hWnd)); ::InvalidateRect(m_hWnd, lpRect, bErase); }

  0012e	6a 01		 push	 1
  00130	8d 45 ec	 lea	 eax, DWORD PTR _rc$1[ebp]
  00133	50		 push	 eax
  00134	e9 53 ff ff ff	 jmp	 $LN56@OnGfxRemov
$LN27@OnGfxRemov:
; File C:\Program Files (x86)\Microsoft Visual Studio\2019\Community\VC\Tools\MSVC\14.29.30133\atlmfc\include\afxcoll.inl

; 204  : 			AfxThrowInvalidArgException();

  00139	e8 00 00 00 00	 call	 ?AfxThrowInvalidArgException@@YGXXZ ; AfxThrowInvalidArgException
$LN55@OnGfxRemov:
  0013e	cc		 int	 3
?OnGfxRemoveitem@CGfxOutBarCtrl@@IAEXXZ ENDP		; CGfxOutBarCtrl::OnGfxRemoveitem
_TEXT	ENDS
; Function compile flags: /Ogtp
; File D:\git\src\IBK\IBK_DRFN\ProjSrc\SrcDrfn\Chart\comparechart\control\GfxOutBarCtrl.cpp
;	COMDAT ?OnUpdateGfxSmallicon@CGfxOutBarCtrl@@IAEXPAVCCmdUI@@@Z
_TEXT	SEGMENT
_pCmdUI$ = 8						; size = 4
?OnUpdateGfxSmallicon@CGfxOutBarCtrl@@IAEXPAVCCmdUI@@@Z PROC ; CGfxOutBarCtrl::OnUpdateGfxSmallicon, COMDAT
; _this$ = ecx

; 2032 : {

  00000	55		 push	 ebp
  00001	8b ec		 mov	 ebp, esp

; 2033 : 	pCmdUI->Enable(!IsSmallIconView());

  00003	8b 55 08	 mov	 edx, DWORD PTR _pCmdUI$[ebp]

; 184  : 	return dwFlags&fSmallIcon;

  00006	0f b6 81 00 01
	00 00		 movzx	 eax, BYTE PTR [ecx+256]

; 2033 : 	pCmdUI->Enable(!IsSmallIconView());

  0000d	8b ca		 mov	 ecx, edx
  0000f	56		 push	 esi

; 184  : 	return dwFlags&fSmallIcon;

  00010	f7 d0		 not	 eax

; 2033 : 	pCmdUI->Enable(!IsSmallIconView());

  00012	8b 32		 mov	 esi, DWORD PTR [edx]

; 184  : 	return dwFlags&fSmallIcon;

  00014	83 e0 01	 and	 eax, 1

; 2033 : 	pCmdUI->Enable(!IsSmallIconView());

  00017	50		 push	 eax
  00018	ff 16		 call	 DWORD PTR [esi]
  0001a	5e		 pop	 esi

; 2034 : }

  0001b	5d		 pop	 ebp
  0001c	c2 04 00	 ret	 4
?OnUpdateGfxSmallicon@CGfxOutBarCtrl@@IAEXPAVCCmdUI@@@Z ENDP ; CGfxOutBarCtrl::OnUpdateGfxSmallicon
_TEXT	ENDS
; Function compile flags: /Ogtp
; File D:\git\src\IBK\IBK_DRFN\ProjSrc\SrcDrfn\Chart\comparechart\control\GfxOutBarCtrl.cpp
; File C:\Program Files (x86)\Microsoft Visual Studio\2019\Community\VC\Tools\MSVC\14.29.30133\atlmfc\include\afxwin2.inl
; File D:\git\src\IBK\IBK_DRFN\ProjSrc\SrcDrfn\Chart\comparechart\control\GfxOutBarCtrl.cpp
; File C:\Program Files (x86)\Microsoft Visual Studio\2019\Community\VC\Tools\MSVC\14.29.30133\atlmfc\include\afxwin2.inl
; File C:\Program Files (x86)\Microsoft Visual Studio\2019\Community\VC\Tools\MSVC\14.29.30133\atlmfc\include\atltypes.h
; File C:\Program Files (x86)\Microsoft Visual Studio\2019\Community\VC\Tools\MSVC\14.29.30133\atlmfc\include\afxwin2.inl
; File D:\git\src\IBK\IBK_DRFN\ProjSrc\SrcDrfn\Chart\comparechart\control\GfxOutBarCtrl.cpp
; File C:\Program Files (x86)\Microsoft Visual Studio\2019\Community\VC\Tools\MSVC\14.29.30133\atlmfc\include\afxwin2.inl
; File D:\git\src\IBK\IBK_DRFN\ProjSrc\SrcDrfn\Chart\comparechart\control\GfxOutBarCtrl.cpp
; File C:\Program Files (x86)\Microsoft Visual Studio\2019\Community\VC\Tools\MSVC\14.29.30133\atlmfc\include\afxwin2.inl
; File D:\git\src\IBK\IBK_DRFN\ProjSrc\SrcDrfn\Chart\comparechart\control\GfxOutBarCtrl.cpp
;	COMDAT ?OnGfxSmallicon@CGfxOutBarCtrl@@IAEXXZ
_TEXT	SEGMENT
_rc$1 = -20						; size = 16
__$ArrayPad$ = -4					; size = 4
?OnGfxSmallicon@CGfxOutBarCtrl@@IAEXXZ PROC		; CGfxOutBarCtrl::OnGfxSmallicon, COMDAT
; _this$ = ecx

; 2026 : {

  00000	55		 push	 ebp
  00001	8b ec		 mov	 ebp, esp
  00003	83 ec 14	 sub	 esp, 20			; 00000014H
  00006	a1 00 00 00 00	 mov	 eax, DWORD PTR ___security_cookie
  0000b	33 c5		 xor	 eax, ebp
  0000d	89 45 fc	 mov	 DWORD PTR __$ArrayPad$[ebp], eax
  00010	56		 push	 esi
  00011	8b f1		 mov	 esi, ecx

; 184  : 	return dwFlags&fSmallIcon;

  00013	f6 86 00 01 00
	00 01		 test	 BYTE PTR [esi+256], 1

; 189  : 	iFirstItem = 0;

  0001a	c7 86 20 01 00
	00 00 00 00 00	 mov	 DWORD PTR [esi+288], 0

; 190  : 
; 191  : 	if (bSet)
; 192  : 	{
; 193  : 		if (!IsSmallIconView()) 

  00024	75 54		 jne	 SHORT $LN6@OnGfxSmall

; 195  : 			dwFlags |= fSmallIcon;

  00026	83 8e 00 01 00
	00 01		 or	 DWORD PTR [esi+256], 1
; File C:\Program Files (x86)\Microsoft Visual Studio\2019\Community\VC\Tools\MSVC\14.29.30133\atlmfc\include\afxwin2.inl

; 86   : 	{ ASSERT(::IsWindow(m_hWnd)); ::GetClientRect(m_hWnd, lpRect); }

  0002d	8d 45 ec	 lea	 eax, DWORD PTR _rc$1[ebp]
; File D:\git\src\IBK\IBK_DRFN\ProjSrc\SrcDrfn\Chart\comparechart\control\GfxOutBarCtrl.cpp

; 195  : 			dwFlags |= fSmallIcon;

  00030	57		 push	 edi
; File C:\Program Files (x86)\Microsoft Visual Studio\2019\Community\VC\Tools\MSVC\14.29.30133\atlmfc\include\afxwin2.inl

; 86   : 	{ ASSERT(::IsWindow(m_hWnd)); ::GetClientRect(m_hWnd, lpRect); }

  00031	50		 push	 eax
  00032	ff 76 20	 push	 DWORD PTR [esi+32]
  00035	0f 57 c0	 xorps	 xmm0, xmm0
; File C:\Program Files (x86)\Microsoft Visual Studio\2019\Community\VC\Tools\MSVC\14.29.30133\atlmfc\include\atltypes.h

; 528  : 	left = 0;

  00038	0f 11 45 ec	 movups	 XMMWORD PTR _rc$1[ebp], xmm0
; File C:\Program Files (x86)\Microsoft Visual Studio\2019\Community\VC\Tools\MSVC\14.29.30133\atlmfc\include\afxwin2.inl

; 86   : 	{ ASSERT(::IsWindow(m_hWnd)); ::GetClientRect(m_hWnd, lpRect); }

  0003c	ff 15 00 00 00
	00		 call	 DWORD PTR __imp__GetClientRect@8
; File D:\git\src\IBK\IBK_DRFN\ProjSrc\SrcDrfn\Chart\comparechart\control\GfxOutBarCtrl.cpp

; 746  : 	if (arFolder.GetSize() > 0)

  00042	8b be 0c 01 00
	00		 mov	 edi, DWORD PTR [esi+268]
  00048	85 ff		 test	 edi, edi
  0004a	7e 1e		 jle	 SHORT $LN14@OnGfxSmall

; 747  : 	{
; 748  : 		int max = arFolder.GetSize();
; 749  : 		rect.top += iFolderHeight * (iSelFolder + 1); + 1;//+ 2;

  0004c	8b 8e 34 01 00
	00		 mov	 ecx, DWORD PTR [esi+308]

; 750  : 		rect.bottom -= (max - iSelFolder - 1)*iFolderHeight;

  00052	2b f9		 sub	 edi, ecx
  00054	8b 96 a0 00 00
	00		 mov	 edx, DWORD PTR [esi+160]
  0005a	4f		 dec	 edi
  0005b	0f af fa	 imul	 edi, edx
  0005e	8d 41 01	 lea	 eax, DWORD PTR [ecx+1]
  00061	0f af c2	 imul	 eax, edx
  00064	01 45 f0	 add	 DWORD PTR _rc$1[ebp+4], eax
  00067	29 7d f8	 sub	 DWORD PTR _rc$1[ebp+12], edi
$LN14@OnGfxSmall:
; File C:\Program Files (x86)\Microsoft Visual Studio\2019\Community\VC\Tools\MSVC\14.29.30133\atlmfc\include\afxwin2.inl

; 116  : 	{ ASSERT(::IsWindow(m_hWnd)); ::InvalidateRect(m_hWnd, lpRect, bErase); }

  0006a	6a 00		 push	 0
  0006c	8d 45 ec	 lea	 eax, DWORD PTR _rc$1[ebp]
  0006f	50		 push	 eax
  00070	ff 76 20	 push	 DWORD PTR [esi+32]
  00073	ff 15 00 00 00
	00		 call	 DWORD PTR __imp__InvalidateRect@12
  00079	5f		 pop	 edi
$LN6@OnGfxSmall:

; 114  : 	{ ASSERT(::IsWindow(m_hWnd)); ::InvalidateRect(m_hWnd, NULL, bErase); }

  0007a	6a 01		 push	 1
  0007c	6a 00		 push	 0
  0007e	ff 76 20	 push	 DWORD PTR [esi+32]
  00081	ff 15 00 00 00
	00		 call	 DWORD PTR __imp__InvalidateRect@12
; File D:\git\src\IBK\IBK_DRFN\ProjSrc\SrcDrfn\Chart\comparechart\control\GfxOutBarCtrl.cpp

; 2029 : }

  00087	8b 4d fc	 mov	 ecx, DWORD PTR __$ArrayPad$[ebp]
  0008a	33 cd		 xor	 ecx, ebp
; File C:\Program Files (x86)\Microsoft Visual Studio\2019\Community\VC\Tools\MSVC\14.29.30133\atlmfc\include\afxwin2.inl

; 114  : 	{ ASSERT(::IsWindow(m_hWnd)); ::InvalidateRect(m_hWnd, NULL, bErase); }

  0008c	5e		 pop	 esi
; File D:\git\src\IBK\IBK_DRFN\ProjSrc\SrcDrfn\Chart\comparechart\control\GfxOutBarCtrl.cpp

; 2029 : }

  0008d	e8 00 00 00 00	 call	 @__security_check_cookie@4
  00092	8b e5		 mov	 esp, ebp
  00094	5d		 pop	 ebp
  00095	c3		 ret	 0
?OnGfxSmallicon@CGfxOutBarCtrl@@IAEXXZ ENDP		; CGfxOutBarCtrl::OnGfxSmallicon
_TEXT	ENDS
; Function compile flags: /Ogtp
; File D:\git\src\IBK\IBK_DRFN\ProjSrc\SrcDrfn\Chart\comparechart\control\GfxOutBarCtrl.cpp
;	COMDAT ?OnUpdateGfxLargeicon@CGfxOutBarCtrl@@IAEXPAVCCmdUI@@@Z
_TEXT	SEGMENT
_pCmdUI$ = 8						; size = 4
?OnUpdateGfxLargeicon@CGfxOutBarCtrl@@IAEXPAVCCmdUI@@@Z PROC ; CGfxOutBarCtrl::OnUpdateGfxLargeicon, COMDAT
; _this$ = ecx

; 2021 : {

  00000	55		 push	 ebp
  00001	8b ec		 mov	 ebp, esp

; 2022 : 	pCmdUI->Enable(IsSmallIconView());

  00003	8b 55 08	 mov	 edx, DWORD PTR _pCmdUI$[ebp]

; 184  : 	return dwFlags&fSmallIcon;

  00006	0f b6 81 00 01
	00 00		 movzx	 eax, BYTE PTR [ecx+256]

; 2022 : 	pCmdUI->Enable(IsSmallIconView());

  0000d	8b ca		 mov	 ecx, edx
  0000f	56		 push	 esi

; 184  : 	return dwFlags&fSmallIcon;

  00010	83 e0 01	 and	 eax, 1

; 2022 : 	pCmdUI->Enable(IsSmallIconView());

  00013	8b 32		 mov	 esi, DWORD PTR [edx]
  00015	50		 push	 eax
  00016	ff 16		 call	 DWORD PTR [esi]
  00018	5e		 pop	 esi

; 2023 : }

  00019	5d		 pop	 ebp
  0001a	c2 04 00	 ret	 4
?OnUpdateGfxLargeicon@CGfxOutBarCtrl@@IAEXPAVCCmdUI@@@Z ENDP ; CGfxOutBarCtrl::OnUpdateGfxLargeicon
_TEXT	ENDS
; Function compile flags: /Ogtp
; File D:\git\src\IBK\IBK_DRFN\ProjSrc\SrcDrfn\Chart\comparechart\control\GfxOutBarCtrl.cpp
; File C:\Program Files (x86)\Microsoft Visual Studio\2019\Community\VC\Tools\MSVC\14.29.30133\atlmfc\include\afxwin2.inl
; File D:\git\src\IBK\IBK_DRFN\ProjSrc\SrcDrfn\Chart\comparechart\control\GfxOutBarCtrl.cpp
; File C:\Program Files (x86)\Microsoft Visual Studio\2019\Community\VC\Tools\MSVC\14.29.30133\atlmfc\include\afxwin2.inl
; File C:\Program Files (x86)\Microsoft Visual Studio\2019\Community\VC\Tools\MSVC\14.29.30133\atlmfc\include\atltypes.h
; File C:\Program Files (x86)\Microsoft Visual Studio\2019\Community\VC\Tools\MSVC\14.29.30133\atlmfc\include\afxwin2.inl
; File D:\git\src\IBK\IBK_DRFN\ProjSrc\SrcDrfn\Chart\comparechart\control\GfxOutBarCtrl.cpp
; File C:\Program Files (x86)\Microsoft Visual Studio\2019\Community\VC\Tools\MSVC\14.29.30133\atlmfc\include\afxwin2.inl
; File D:\git\src\IBK\IBK_DRFN\ProjSrc\SrcDrfn\Chart\comparechart\control\GfxOutBarCtrl.cpp
; File C:\Program Files (x86)\Microsoft Visual Studio\2019\Community\VC\Tools\MSVC\14.29.30133\atlmfc\include\afxwin2.inl
; File D:\git\src\IBK\IBK_DRFN\ProjSrc\SrcDrfn\Chart\comparechart\control\GfxOutBarCtrl.cpp
;	COMDAT ?OnGfxLargeicon@CGfxOutBarCtrl@@IAEXXZ
_TEXT	SEGMENT
_rc$1 = -20						; size = 16
__$ArrayPad$ = -4					; size = 4
?OnGfxLargeicon@CGfxOutBarCtrl@@IAEXXZ PROC		; CGfxOutBarCtrl::OnGfxLargeicon, COMDAT
; _this$ = ecx

; 2015 : {

  00000	55		 push	 ebp
  00001	8b ec		 mov	 ebp, esp
  00003	83 ec 14	 sub	 esp, 20			; 00000014H
  00006	a1 00 00 00 00	 mov	 eax, DWORD PTR ___security_cookie
  0000b	33 c5		 xor	 eax, ebp
  0000d	89 45 fc	 mov	 DWORD PTR __$ArrayPad$[ebp], eax
  00010	56		 push	 esi
  00011	8b f1		 mov	 esi, ecx

; 184  : 	return dwFlags&fSmallIcon;

  00013	f6 86 00 01 00
	00 01		 test	 BYTE PTR [esi+256], 1

; 189  : 	iFirstItem = 0;

  0001a	c7 86 20 01 00
	00 00 00 00 00	 mov	 DWORD PTR [esi+288], 0

; 190  : 
; 191  : 	if (bSet)
; 192  : 	{
; 193  : 		if (!IsSmallIconView()) 
; 194  : 		{
; 195  : 			dwFlags |= fSmallIcon;
; 196  : 			CRect rc;
; 197  : 			GetInsideRect(rc);
; 198  : 			InvalidateRect(rc, false);
; 199  : 		}
; 200  : 	}
; 201  : 	else
; 202  : 	{
; 203  : 		if (IsSmallIconView()) 

  00024	74 54		 je	 SHORT $LN7@OnGfxLarge

; 205  : 			dwFlags &= ~fSmallIcon;

  00026	83 a6 00 01 00
	00 fe		 and	 DWORD PTR [esi+256], -2	; fffffffeH
; File C:\Program Files (x86)\Microsoft Visual Studio\2019\Community\VC\Tools\MSVC\14.29.30133\atlmfc\include\afxwin2.inl

; 86   : 	{ ASSERT(::IsWindow(m_hWnd)); ::GetClientRect(m_hWnd, lpRect); }

  0002d	8d 45 ec	 lea	 eax, DWORD PTR _rc$1[ebp]
; File D:\git\src\IBK\IBK_DRFN\ProjSrc\SrcDrfn\Chart\comparechart\control\GfxOutBarCtrl.cpp

; 205  : 			dwFlags &= ~fSmallIcon;

  00030	57		 push	 edi
; File C:\Program Files (x86)\Microsoft Visual Studio\2019\Community\VC\Tools\MSVC\14.29.30133\atlmfc\include\afxwin2.inl

; 86   : 	{ ASSERT(::IsWindow(m_hWnd)); ::GetClientRect(m_hWnd, lpRect); }

  00031	50		 push	 eax
  00032	ff 76 20	 push	 DWORD PTR [esi+32]
  00035	0f 57 c0	 xorps	 xmm0, xmm0
; File C:\Program Files (x86)\Microsoft Visual Studio\2019\Community\VC\Tools\MSVC\14.29.30133\atlmfc\include\atltypes.h

; 528  : 	left = 0;

  00038	0f 11 45 ec	 movups	 XMMWORD PTR _rc$1[ebp], xmm0
; File C:\Program Files (x86)\Microsoft Visual Studio\2019\Community\VC\Tools\MSVC\14.29.30133\atlmfc\include\afxwin2.inl

; 86   : 	{ ASSERT(::IsWindow(m_hWnd)); ::GetClientRect(m_hWnd, lpRect); }

  0003c	ff 15 00 00 00
	00		 call	 DWORD PTR __imp__GetClientRect@8
; File D:\git\src\IBK\IBK_DRFN\ProjSrc\SrcDrfn\Chart\comparechart\control\GfxOutBarCtrl.cpp

; 746  : 	if (arFolder.GetSize() > 0)

  00042	8b be 0c 01 00
	00		 mov	 edi, DWORD PTR [esi+268]
  00048	85 ff		 test	 edi, edi
  0004a	7e 1e		 jle	 SHORT $LN25@OnGfxLarge

; 747  : 	{
; 748  : 		int max = arFolder.GetSize();
; 749  : 		rect.top += iFolderHeight * (iSelFolder + 1); + 1;//+ 2;

  0004c	8b 8e 34 01 00
	00		 mov	 ecx, DWORD PTR [esi+308]

; 750  : 		rect.bottom -= (max - iSelFolder - 1)*iFolderHeight;

  00052	2b f9		 sub	 edi, ecx
  00054	8b 96 a0 00 00
	00		 mov	 edx, DWORD PTR [esi+160]
  0005a	4f		 dec	 edi
  0005b	0f af fa	 imul	 edi, edx
  0005e	8d 41 01	 lea	 eax, DWORD PTR [ecx+1]
  00061	0f af c2	 imul	 eax, edx
  00064	01 45 f0	 add	 DWORD PTR _rc$1[ebp+4], eax
  00067	29 7d f8	 sub	 DWORD PTR _rc$1[ebp+12], edi
$LN25@OnGfxLarge:
; File C:\Program Files (x86)\Microsoft Visual Studio\2019\Community\VC\Tools\MSVC\14.29.30133\atlmfc\include\afxwin2.inl

; 116  : 	{ ASSERT(::IsWindow(m_hWnd)); ::InvalidateRect(m_hWnd, lpRect, bErase); }

  0006a	6a 00		 push	 0
  0006c	8d 45 ec	 lea	 eax, DWORD PTR _rc$1[ebp]
  0006f	50		 push	 eax
  00070	ff 76 20	 push	 DWORD PTR [esi+32]
  00073	ff 15 00 00 00
	00		 call	 DWORD PTR __imp__InvalidateRect@12
  00079	5f		 pop	 edi
$LN7@OnGfxLarge:

; 114  : 	{ ASSERT(::IsWindow(m_hWnd)); ::InvalidateRect(m_hWnd, NULL, bErase); }

  0007a	6a 01		 push	 1
  0007c	6a 00		 push	 0
  0007e	ff 76 20	 push	 DWORD PTR [esi+32]
  00081	ff 15 00 00 00
	00		 call	 DWORD PTR __imp__InvalidateRect@12
; File D:\git\src\IBK\IBK_DRFN\ProjSrc\SrcDrfn\Chart\comparechart\control\GfxOutBarCtrl.cpp

; 2018 : }

  00087	8b 4d fc	 mov	 ecx, DWORD PTR __$ArrayPad$[ebp]
  0008a	33 cd		 xor	 ecx, ebp
; File C:\Program Files (x86)\Microsoft Visual Studio\2019\Community\VC\Tools\MSVC\14.29.30133\atlmfc\include\afxwin2.inl

; 114  : 	{ ASSERT(::IsWindow(m_hWnd)); ::InvalidateRect(m_hWnd, NULL, bErase); }

  0008c	5e		 pop	 esi
; File D:\git\src\IBK\IBK_DRFN\ProjSrc\SrcDrfn\Chart\comparechart\control\GfxOutBarCtrl.cpp

; 2018 : }

  0008d	e8 00 00 00 00	 call	 @__security_check_cookie@4
  00092	8b e5		 mov	 esp, ebp
  00094	5d		 pop	 ebp
  00095	c3		 ret	 0
?OnGfxLargeicon@CGfxOutBarCtrl@@IAEXXZ ENDP		; CGfxOutBarCtrl::OnGfxLargeicon
_TEXT	ENDS
; Function compile flags: /Ogtp
; File D:\git\src\IBK\IBK_DRFN\ProjSrc\SrcDrfn\Chart\comparechart\control\GfxOutBarCtrl.cpp
; File C:\Program Files (x86)\Microsoft Visual Studio\2019\Community\VC\Tools\MSVC\14.29.30133\atlmfc\include\afxwin2.inl
; File D:\git\src\IBK\IBK_DRFN\ProjSrc\SrcDrfn\Chart\comparechart\control\GfxOutBarCtrl.cpp
; File C:\Program Files (x86)\Microsoft Visual Studio\2019\Community\VC\Tools\MSVC\14.29.30133\atlmfc\include\afxwin2.inl
; File C:\Program Files (x86)\Microsoft Visual Studio\2019\Community\VC\Tools\MSVC\14.29.30133\atlmfc\include\atltypes.h
; File C:\Program Files (x86)\Microsoft Visual Studio\2019\Community\VC\Tools\MSVC\14.29.30133\atlmfc\include\afxwin2.inl
; File D:\git\src\IBK\IBK_DRFN\ProjSrc\SrcDrfn\Chart\comparechart\control\GfxOutBarCtrl.cpp
; File C:\Program Files (x86)\Microsoft Visual Studio\2019\Community\VC\Tools\MSVC\14.29.30133\atlmfc\include\afxcoll.inl
; File D:\git\src\IBK\IBK_DRFN\ProjSrc\SrcDrfn\Chart\comparechart\control\GfxOutBarCtrl.cpp
; File C:\Program Files (x86)\Microsoft Visual Studio\2019\Community\VC\Tools\MSVC\14.29.30133\atlmfc\include\atltypes.h
; File D:\git\src\IBK\IBK_DRFN\ProjSrc\SrcDrfn\Chart\comparechart\control\GfxOutBarCtrl.cpp
; File C:\Program Files (x86)\Microsoft Visual Studio\2019\Community\VC\Tools\MSVC\14.29.30133\atlmfc\include\atltypes.h
; File D:\git\src\IBK\IBK_DRFN\ProjSrc\SrcDrfn\Chart\comparechart\control\GfxOutBarCtrl.cpp
; File C:\Program Files (x86)\Microsoft Visual Studio\2019\Community\VC\Tools\MSVC\14.29.30133\atlmfc\include\afxcoll.inl
; File D:\git\src\IBK\IBK_DRFN\ProjSrc\SrcDrfn\Chart\comparechart\control\GfxOutBarCtrl.cpp
;	COMDAT ?OnSize@CGfxOutBarCtrl@@IAEXIHH@Z
_TEXT	SEGMENT
_max$1$ = -24						; size = 4
_rc$ = -20						; size = 16
__$ArrayPad$ = -4					; size = 4
_nType$ = 8						; size = 4
_cx$ = 12						; size = 4
_cy$ = 16						; size = 4
?OnSize@CGfxOutBarCtrl@@IAEXIHH@Z PROC			; CGfxOutBarCtrl::OnSize, COMDAT
; _this$ = ecx

; 1830 : {

  00000	55		 push	 ebp
  00001	8b ec		 mov	 ebp, esp
  00003	83 ec 18	 sub	 esp, 24			; 00000018H
  00006	a1 00 00 00 00	 mov	 eax, DWORD PTR ___security_cookie
  0000b	33 c5		 xor	 eax, ebp
  0000d	89 45 fc	 mov	 DWORD PTR __$ArrayPad$[ebp], eax
  00010	53		 push	 ebx
  00011	56		 push	 esi
  00012	57		 push	 edi
  00013	8b f9		 mov	 edi, ecx

; 1831 : 
; 1832 : ////////////////////////////////////////////////////
; 1833 : 	/*CRect clientRc;
; 1834 : 	GetClientRect(&clientRc);
; 1835 : 	CPaintDC dc(this);
; 1836 : 	CDC memDC;
; 1837 : 	memDC.CreateCompatibleDC(&dc);
; 1838 : 	CBitmap bmp;
; 1839 : 	bmp.CreateCompatibleBitmap(&dc, clientRc.Width(), clientRc.Height());
; 1840 : 	CBitmap * obmp = memDC.SelectObject(&bmp);
; 1841 : 
; 1842 : 	CDC * pDC = &memDC;
; 1843 : 
; 1844 : 	CRect rc;
; 1845 : 	GetInsideRect(rc);
; 1846 : 	pDC->FillSolidRect(rc, RGB(255,255,255));
; 1847 : 	if (!GetFolderChild()) pDC->FillSolidRect(rc, crBackGroundColor);
; 1848 : 
; 1849 : 
; 1850 : 	int max = arFolder.GetSize();
; 1851 : 
; 1852 : 	CRect frc;
; 1853 : 	for (int t = 0; t < max; t++)
; 1854 : 	{
; 1855 : 		GetFolderRect(t, frc);
; 1856 : 
; 1857 : 		if( t == iSelFolder)
; 1858 : 			DrawFolder(pDC, t, frc, TRUE);
; 1859 : 		else
; 1860 : 			DrawFolder(pDC, t, frc, false);
; 1861 : 	}*/
; 1862 : ///////////////////////////////////////////////////////
; 1863 : 
; 1864 : 	bUpArrow = bDownArrow = false;

  00015	66 c7 87 c0 00
	00 00 00 00	 mov	 WORD PTR [edi+192], 0
; File C:\Program Files (x86)\Microsoft Visual Studio\2019\Community\VC\Tools\MSVC\14.29.30133\atlmfc\include\afxwin2.inl

; 330  : 	{ Default(); }

  0001e	e8 00 00 00 00	 call	 ?Default@CWnd@@IAEJXZ	; CWnd::Default
; File D:\git\src\IBK\IBK_DRFN\ProjSrc\SrcDrfn\Chart\comparechart\control\GfxOutBarCtrl.cpp

; 1868 : 	int t, max = GetFolderCount();

  00023	8b 87 0c 01 00
	00		 mov	 eax, DWORD PTR [edi+268]
  00029	0f 57 c0	 xorps	 xmm0, xmm0
  0002c	89 45 e8	 mov	 DWORD PTR _max$1$[ebp], eax
; File C:\Program Files (x86)\Microsoft Visual Studio\2019\Community\VC\Tools\MSVC\14.29.30133\atlmfc\include\afxwin2.inl

; 86   : 	{ ASSERT(::IsWindow(m_hWnd)); ::GetClientRect(m_hWnd, lpRect); }

  0002f	8d 45 ec	 lea	 eax, DWORD PTR _rc$[ebp]
  00032	50		 push	 eax
  00033	ff 77 20	 push	 DWORD PTR [edi+32]
; File C:\Program Files (x86)\Microsoft Visual Studio\2019\Community\VC\Tools\MSVC\14.29.30133\atlmfc\include\atltypes.h

; 528  : 	left = 0;

  00036	0f 11 45 ec	 movups	 XMMWORD PTR _rc$[ebp], xmm0
; File C:\Program Files (x86)\Microsoft Visual Studio\2019\Community\VC\Tools\MSVC\14.29.30133\atlmfc\include\afxwin2.inl

; 86   : 	{ ASSERT(::IsWindow(m_hWnd)); ::GetClientRect(m_hWnd, lpRect); }

  0003a	ff 15 00 00 00
	00		 call	 DWORD PTR __imp__GetClientRect@8
; File D:\git\src\IBK\IBK_DRFN\ProjSrc\SrcDrfn\Chart\comparechart\control\GfxOutBarCtrl.cpp

; 746  : 	if (arFolder.GetSize() > 0)

  00040	8b b7 0c 01 00
	00		 mov	 esi, DWORD PTR [edi+268]
  00046	8b 5d f0	 mov	 ebx, DWORD PTR _rc$[ebp+4]
  00049	85 f6		 test	 esi, esi
  0004b	7e 20		 jle	 SHORT $LN41@OnSize

; 747  : 	{
; 748  : 		int max = arFolder.GetSize();
; 749  : 		rect.top += iFolderHeight * (iSelFolder + 1); + 1;//+ 2;

  0004d	8b 8f 34 01 00
	00		 mov	 ecx, DWORD PTR [edi+308]

; 750  : 		rect.bottom -= (max - iSelFolder - 1)*iFolderHeight;

  00053	2b f1		 sub	 esi, ecx
  00055	8b 97 a0 00 00
	00		 mov	 edx, DWORD PTR [edi+160]
  0005b	4e		 dec	 esi
  0005c	0f af f2	 imul	 esi, edx
  0005f	8d 41 01	 lea	 eax, DWORD PTR [ecx+1]
  00062	0f af c2	 imul	 eax, edx
  00065	03 d8		 add	 ebx, eax
  00067	29 75 f8	 sub	 DWORD PTR _rc$[ebp+12], esi
  0006a	89 5d f0	 mov	 DWORD PTR _rc$[ebp+4], ebx
$LN41@OnSize:

; 1869 : 	CRect rc;
; 1870 : 	GetInsideRect(rc);
; 1871 : 
; 1872 : 	for (t = 0; t < max; t++)

  0006d	33 f6		 xor	 esi, esi
  0006f	39 75 e8	 cmp	 DWORD PTR _max$1$[ebp], esi
  00072	7e 45		 jle	 SHORT $LN3@OnSize
$LL4@OnSize:
; File C:\Program Files (x86)\Microsoft Visual Studio\2019\Community\VC\Tools\MSVC\14.29.30133\atlmfc\include\afxcoll.inl

; 203  : 		if( nIndex < 0 || nIndex >= m_nSize )

  00074	85 f6		 test	 esi, esi
  00076	78 54		 js	 SHORT $LN18@OnSize
  00078	8b 87 0c 01 00
	00		 mov	 eax, DWORD PTR [edi+268]
  0007e	3b f0		 cmp	 esi, eax
  00080	7d 4a		 jge	 SHORT $LN18@OnSize
; File D:\git\src\IBK\IBK_DRFN\ProjSrc\SrcDrfn\Chart\comparechart\control\GfxOutBarCtrl.cpp

; 2394 : 	if (nFolderCnt)

  00082	85 c0		 test	 eax, eax
  00084	74 2d		 je	 SHORT $LN2@OnSize

; 2395 : 	{
; 2396 : 		if (iFolder < 0) iFolder = iSelFolder;
; 2397 : 		if (nFolderCnt <= iFolder) return NULL;
; 2398 : 		CBarFolder * pbf = (CBarFolder *) arFolder.GetAt(iFolder);
; 2399 : 		return pbf->pChild;

  00086	8b 87 08 01 00
	00		 mov	 eax, DWORD PTR [edi+264]
  0008c	8b 04 b0	 mov	 eax, DWORD PTR [eax+esi*4]
  0008f	8b 48 28	 mov	 ecx, DWORD PTR [eax+40]

; 1873 : 	{
; 1874 : 		CBarFolder * pbf = (CBarFolder *) arFolder.GetAt(t);
; 1875 : 		CWnd * pc = GetFolderChild(t);
; 1876 : 		if (pc) 

  00092	85 c9		 test	 ecx, ecx
  00094	74 1d		 je	 SHORT $LN2@OnSize
; File C:\Program Files (x86)\Microsoft Visual Studio\2019\Community\VC\Tools\MSVC\14.29.30133\atlmfc\include\atltypes.h

; 581  : 	return bottom - top;

  00096	8b 45 f8	 mov	 eax, DWORD PTR _rc$[ebp+12]

; 576  : 	return right - left;

  00099	8b 55 ec	 mov	 edx, DWORD PTR _rc$[ebp]

; 581  : 	return bottom - top;

  0009c	2b c3		 sub	 eax, ebx
; File D:\git\src\IBK\IBK_DRFN\ProjSrc\SrcDrfn\Chart\comparechart\control\GfxOutBarCtrl.cpp

; 1877 : 			pc->SetWindowPos(0, rc.left, rc.top, rc.Width(), rc.Height(), SWP_NOZORDER);

  0009e	6a 04		 push	 4
  000a0	50		 push	 eax
; File C:\Program Files (x86)\Microsoft Visual Studio\2019\Community\VC\Tools\MSVC\14.29.30133\atlmfc\include\atltypes.h

; 576  : 	return right - left;

  000a1	8b 45 f4	 mov	 eax, DWORD PTR _rc$[ebp+8]
  000a4	2b c2		 sub	 eax, edx
; File D:\git\src\IBK\IBK_DRFN\ProjSrc\SrcDrfn\Chart\comparechart\control\GfxOutBarCtrl.cpp

; 1877 : 			pc->SetWindowPos(0, rc.left, rc.top, rc.Width(), rc.Height(), SWP_NOZORDER);

  000a6	50		 push	 eax
  000a7	53		 push	 ebx
  000a8	52		 push	 edx
  000a9	6a 00		 push	 0
  000ab	e8 00 00 00 00	 call	 ?SetWindowPos@CWnd@@QAEHPBV1@HHHHI@Z ; CWnd::SetWindowPos
  000b0	8b 5d f0	 mov	 ebx, DWORD PTR _rc$[ebp+4]
$LN2@OnSize:

; 1869 : 	CRect rc;
; 1870 : 	GetInsideRect(rc);
; 1871 : 
; 1872 : 	for (t = 0; t < max; t++)

  000b3	46		 inc	 esi
  000b4	3b 75 e8	 cmp	 esi, DWORD PTR _max$1$[ebp]
  000b7	7c bb		 jl	 SHORT $LL4@OnSize
$LN3@OnSize:

; 1879 : }

  000b9	8b 4d fc	 mov	 ecx, DWORD PTR __$ArrayPad$[ebp]
  000bc	5f		 pop	 edi
  000bd	5e		 pop	 esi
  000be	33 cd		 xor	 ecx, ebp
  000c0	5b		 pop	 ebx
  000c1	e8 00 00 00 00	 call	 @__security_check_cookie@4
  000c6	8b e5		 mov	 esp, ebp
  000c8	5d		 pop	 ebp
  000c9	c2 0c 00	 ret	 12			; 0000000cH
$LN18@OnSize:
; File C:\Program Files (x86)\Microsoft Visual Studio\2019\Community\VC\Tools\MSVC\14.29.30133\atlmfc\include\afxcoll.inl

; 204  : 			AfxThrowInvalidArgException();

  000cc	e8 00 00 00 00	 call	 ?AfxThrowInvalidArgException@@YGXXZ ; AfxThrowInvalidArgException
$LN44@OnSize:
  000d1	cc		 int	 3
?OnSize@CGfxOutBarCtrl@@IAEXIHH@Z ENDP			; CGfxOutBarCtrl::OnSize
_TEXT	ENDS
; Function compile flags: /Ogtp
; File D:\git\src\IBK\IBK_DRFN\ProjSrc\SrcDrfn\Chart\comparechart\control\GfxOutBarCtrl.cpp
; File C:\Program Files (x86)\Microsoft Visual Studio\2019\Community\VC\Tools\MSVC\14.29.30133\atlmfc\include\atltypes.h
; File C:\Program Files (x86)\Microsoft Visual Studio\2019\Community\VC\Tools\MSVC\14.29.30133\atlmfc\include\afxwin2.inl
; File C:\Program Files (x86)\Microsoft Visual Studio\2019\Community\VC\Tools\MSVC\14.29.30133\atlmfc\include\atltypes.h
; File C:\Program Files (x86)\Microsoft Visual Studio\2019\Community\VC\Tools\MSVC\14.29.30133\atlmfc\include\afxwin2.inl
; File D:\git\src\IBK\IBK_DRFN\ProjSrc\SrcDrfn\Chart\comparechart\control\GfxOutBarCtrl.cpp
; File C:\Program Files (x86)\Microsoft Visual Studio\2019\Community\VC\Tools\MSVC\14.29.30133\atlmfc\include\afxwin2.inl
; File D:\git\src\IBK\IBK_DRFN\ProjSrc\SrcDrfn\Chart\comparechart\control\GfxOutBarCtrl.cpp
;	COMDAT ?OnSetCursor@CGfxOutBarCtrl@@IAEHPAVCWnd@@II@Z
_TEXT	SEGMENT
_pt$ = -12						; size = 8
_index$ = -4						; size = 4
_pWnd$ = 8						; size = 4
_nHitTest$ = 12						; size = 4
_message$ = 16						; size = 4
?OnSetCursor@CGfxOutBarCtrl@@IAEHPAVCWnd@@II@Z PROC	; CGfxOutBarCtrl::OnSetCursor, COMDAT
; _this$ = ecx

; 1793 : {

  00000	55		 push	 ebp
  00001	8b ec		 mov	 ebp, esp
  00003	83 ec 0c	 sub	 esp, 12			; 0000000cH
  00006	56		 push	 esi
  00007	8b f1		 mov	 esi, ecx

; 1794 : 	CPoint pt(GetMessagePos());

  00009	ff 15 00 00 00
	00		 call	 DWORD PTR __imp__GetMessagePos@0
; File C:\Program Files (x86)\Microsoft Visual Studio\2019\Community\VC\Tools\MSVC\14.29.30133\atlmfc\include\atltypes.h

; 424  : 	x = (short)LOWORD(dwPoint);

  0000f	0f bf d0	 movsx	 edx, ax

; 425  : 	y = (short)HIWORD(dwPoint);

  00012	c1 e8 10	 shr	 eax, 16			; 00000010H
  00015	98		 cwde
  00016	89 45 f8	 mov	 DWORD PTR _pt$[ebp+4], eax
; File C:\Program Files (x86)\Microsoft Visual Studio\2019\Community\VC\Tools\MSVC\14.29.30133\atlmfc\include\afxwin2.inl

; 94   : 	{ ASSERT(::IsWindow(m_hWnd)); ::ScreenToClient(m_hWnd, lpPoint); }

  00019	8d 45 f4	 lea	 eax, DWORD PTR _pt$[ebp]
  0001c	50		 push	 eax
  0001d	ff 76 20	 push	 DWORD PTR [esi+32]
; File C:\Program Files (x86)\Microsoft Visual Studio\2019\Community\VC\Tools\MSVC\14.29.30133\atlmfc\include\atltypes.h

; 424  : 	x = (short)LOWORD(dwPoint);

  00020	89 55 f4	 mov	 DWORD PTR _pt$[ebp], edx
; File C:\Program Files (x86)\Microsoft Visual Studio\2019\Community\VC\Tools\MSVC\14.29.30133\atlmfc\include\afxwin2.inl

; 94   : 	{ ASSERT(::IsWindow(m_hWnd)); ::ScreenToClient(m_hWnd, lpPoint); }

  00023	ff 15 00 00 00
	00		 call	 DWORD PTR __imp__ScreenToClient@8
; File D:\git\src\IBK\IBK_DRFN\ProjSrc\SrcDrfn\Chart\comparechart\control\GfxOutBarCtrl.cpp

; 1796 : 	int index, ht = HitTestEx(pt, index);

  00029	8d 45 fc	 lea	 eax, DWORD PTR _index$[ebp]
  0002c	8b ce		 mov	 ecx, esi
  0002e	50		 push	 eax
  0002f	8d 45 f4	 lea	 eax, DWORD PTR _pt$[ebp]
  00032	50		 push	 eax
  00033	e8 00 00 00 00	 call	 ?HitTestEx@CGfxOutBarCtrl@@QAEHABVCPoint@@AAH@Z ; CGfxOutBarCtrl::HitTestEx

; 1797 : 	if (ht == htFolder)

  00038	85 c0		 test	 eax, eax
  0003a	75 18		 jne	 SHORT $LN2@OnSetCurso

; 1798 : 	{
; 1799 : 		SetCursor(hHandCursor);

  0003c	ff b6 40 01 00
	00		 push	 DWORD PTR [esi+320]
  00042	ff 15 00 00 00
	00		 call	 DWORD PTR __imp__SetCursor@4

; 1800 : 		return true;

  00048	b8 01 00 00 00	 mov	 eax, 1
  0004d	5e		 pop	 esi

; 1804 : }

  0004e	8b e5		 mov	 esp, ebp
  00050	5d		 pop	 ebp
  00051	c2 0c 00	 ret	 12			; 0000000cH
$LN2@OnSetCurso:
; File C:\Program Files (x86)\Microsoft Visual Studio\2019\Community\VC\Tools\MSVC\14.29.30133\atlmfc\include\afxwin2.inl

; 326  : 	{ return (BOOL)Default(); }

  00054	8b ce		 mov	 ecx, esi
  00056	e8 00 00 00 00	 call	 ?Default@CWnd@@IAEJXZ	; CWnd::Default
  0005b	5e		 pop	 esi
; File D:\git\src\IBK\IBK_DRFN\ProjSrc\SrcDrfn\Chart\comparechart\control\GfxOutBarCtrl.cpp

; 1804 : }

  0005c	8b e5		 mov	 esp, ebp
  0005e	5d		 pop	 ebp
  0005f	c2 0c 00	 ret	 12			; 0000000cH
?OnSetCursor@CGfxOutBarCtrl@@IAEHPAVCWnd@@II@Z ENDP	; CGfxOutBarCtrl::OnSetCursor
_TEXT	ENDS
; Function compile flags: /Ogtp
; File D:\git\src\IBK\IBK_DRFN\ProjSrc\SrcDrfn\Chart\comparechart\control\GfxOutBarCtrl.cpp
; File C:\Program Files (x86)\Microsoft Visual Studio\2019\Community\VC\Tools\MSVC\14.29.30133\atlmfc\include\afxwin2.inl
; File D:\git\src\IBK\IBK_DRFN\ProjSrc\SrcDrfn\Chart\comparechart\control\GfxOutBarCtrl.cpp
; File C:\Program Files (x86)\Microsoft Visual Studio\2019\Community\VC\Tools\MSVC\14.29.30133\atlmfc\include\afxwin2.inl
; File C:\Program Files (x86)\Microsoft Visual Studio\2019\Community\VC\Tools\MSVC\14.29.30133\atlmfc\include\atltypes.h
; File C:\Program Files (x86)\Microsoft Visual Studio\2019\Community\VC\Tools\MSVC\14.29.30133\atlmfc\include\afxwin2.inl
; File D:\git\src\IBK\IBK_DRFN\ProjSrc\SrcDrfn\Chart\comparechart\control\GfxOutBarCtrl.cpp
; File C:\Program Files (x86)\Microsoft Visual Studio\2019\Community\VC\Tools\MSVC\14.29.30133\atlmfc\include\atltypes.h
; File D:\git\src\IBK\IBK_DRFN\ProjSrc\SrcDrfn\Chart\comparechart\control\GfxOutBarCtrl.cpp
; File C:\Program Files (x86)\Microsoft Visual Studio\2019\Community\VC\Tools\MSVC\14.29.30133\atlmfc\include\afxwin2.inl
; File D:\git\src\IBK\IBK_DRFN\ProjSrc\SrcDrfn\Chart\comparechart\control\GfxOutBarCtrl.cpp
; File C:\Program Files (x86)\Microsoft Visual Studio\2019\Community\VC\Tools\MSVC\14.29.30133\atlmfc\include\afxwin2.inl
; File D:\git\src\IBK\IBK_DRFN\ProjSrc\SrcDrfn\Chart\comparechart\control\GfxOutBarCtrl.cpp
; File C:\Program Files (x86)\Microsoft Visual Studio\2019\Community\VC\Tools\MSVC\14.29.30133\atlmfc\include\atltypes.h
; File D:\git\src\IBK\IBK_DRFN\ProjSrc\SrcDrfn\Chart\comparechart\control\GfxOutBarCtrl.cpp
; File C:\Program Files (x86)\Microsoft Visual Studio\2019\Community\VC\Tools\MSVC\14.29.30133\atlmfc\include\atltypes.h
; File D:\git\src\IBK\IBK_DRFN\ProjSrc\SrcDrfn\Chart\comparechart\control\GfxOutBarCtrl.cpp
; File C:\Program Files (x86)\Microsoft Visual Studio\2019\Community\VC\Tools\MSVC\14.29.30133\atlmfc\include\afxwin2.inl
; File D:\git\src\IBK\IBK_DRFN\ProjSrc\SrcDrfn\Chart\comparechart\control\GfxOutBarCtrl.cpp
; File C:\Program Files (x86)\Microsoft Visual Studio\2019\Community\VC\Tools\MSVC\14.29.30133\atlmfc\include\afxwin2.inl
; File D:\git\src\IBK\IBK_DRFN\ProjSrc\SrcDrfn\Chart\comparechart\control\GfxOutBarCtrl.cpp
; File C:\Program Files (x86)\Microsoft Visual Studio\2019\Community\VC\Tools\MSVC\14.29.30133\atlmfc\include\atltypes.h
; File D:\git\src\IBK\IBK_DRFN\ProjSrc\SrcDrfn\Chart\comparechart\control\GfxOutBarCtrl.cpp
; File C:\Program Files (x86)\Microsoft Visual Studio\2019\Community\VC\Tools\MSVC\14.29.30133\atlmfc\include\afxwin2.inl
; File D:\git\src\IBK\IBK_DRFN\ProjSrc\SrcDrfn\Chart\comparechart\control\GfxOutBarCtrl.cpp
; File C:\Program Files (x86)\Microsoft Visual Studio\2019\Community\VC\Tools\MSVC\14.29.30133\atlmfc\include\afxwin2.inl
; File D:\git\src\IBK\IBK_DRFN\ProjSrc\SrcDrfn\Chart\comparechart\control\GfxOutBarCtrl.cpp
; File C:\Program Files (x86)\Microsoft Visual Studio\2019\Community\VC\Tools\MSVC\14.29.30133\atlmfc\include\afxwin2.inl
; File D:\git\src\IBK\IBK_DRFN\ProjSrc\SrcDrfn\Chart\comparechart\control\GfxOutBarCtrl.cpp
; File C:\Program Files (x86)\Microsoft Visual Studio\2019\Community\VC\Tools\MSVC\14.29.30133\atlmfc\include\atltypes.h
; File D:\git\src\IBK\IBK_DRFN\ProjSrc\SrcDrfn\Chart\comparechart\control\GfxOutBarCtrl.cpp
; File C:\Program Files (x86)\Microsoft Visual Studio\2019\Community\VC\Tools\MSVC\14.29.30133\atlmfc\include\atltypes.h
; File D:\git\src\IBK\IBK_DRFN\ProjSrc\SrcDrfn\Chart\comparechart\control\GfxOutBarCtrl.cpp
; File C:\Program Files (x86)\Microsoft Visual Studio\2019\Community\VC\Tools\MSVC\14.29.30133\atlmfc\include\atltypes.h
; File D:\git\src\IBK\IBK_DRFN\ProjSrc\SrcDrfn\Chart\comparechart\control\GfxOutBarCtrl.cpp
; File C:\Program Files (x86)\Microsoft Visual Studio\2019\Community\VC\Tools\MSVC\14.29.30133\atlmfc\include\atltypes.h
; File C:\Program Files (x86)\Microsoft Visual Studio\2019\Community\VC\Tools\MSVC\14.29.30133\atlmfc\include\afxwin2.inl
; File D:\git\src\IBK\IBK_DRFN\ProjSrc\SrcDrfn\Chart\comparechart\control\GfxOutBarCtrl.cpp
; File C:\Program Files (x86)\Microsoft Visual Studio\2019\Community\VC\Tools\MSVC\14.29.30133\atlmfc\include\atltypes.h
; File D:\git\src\IBK\IBK_DRFN\ProjSrc\SrcDrfn\Chart\comparechart\control\GfxOutBarCtrl.cpp
; File C:\Program Files (x86)\Microsoft Visual Studio\2019\Community\VC\Tools\MSVC\14.29.30133\atlmfc\include\atltypes.h
; File C:\Program Files (x86)\Microsoft Visual Studio\2019\Community\VC\Tools\MSVC\14.29.30133\atlmfc\include\afxwin2.inl
; File D:\git\src\IBK\IBK_DRFN\ProjSrc\SrcDrfn\Chart\comparechart\control\GfxOutBarCtrl.cpp
; File C:\Program Files (x86)\Microsoft Visual Studio\2019\Community\VC\Tools\MSVC\14.29.30133\atlmfc\include\afxwin2.inl
; File D:\git\src\IBK\IBK_DRFN\ProjSrc\SrcDrfn\Chart\comparechart\control\GfxOutBarCtrl.cpp
; File C:\Program Files (x86)\Microsoft Visual Studio\2019\Community\VC\Tools\MSVC\14.29.30133\atlmfc\include\afxwin2.inl
; File D:\git\src\IBK\IBK_DRFN\ProjSrc\SrcDrfn\Chart\comparechart\control\GfxOutBarCtrl.cpp
; File C:\Program Files (x86)\Microsoft Visual Studio\2019\Community\VC\Tools\MSVC\14.29.30133\atlmfc\include\afxwin2.inl
; File D:\git\src\IBK\IBK_DRFN\ProjSrc\SrcDrfn\Chart\comparechart\control\GfxOutBarCtrl.cpp
; File C:\Program Files (x86)\Microsoft Visual Studio\2019\Community\VC\Tools\MSVC\14.29.30133\atlmfc\include\afxwin1.inl
; File D:\git\src\IBK\IBK_DRFN\ProjSrc\SrcDrfn\Chart\comparechart\control\GfxOutBarCtrl.cpp
; File C:\Program Files (x86)\Microsoft Visual Studio\2019\Community\VC\Tools\MSVC\14.29.30133\atlmfc\include\afxwin1.inl
; File C:\Program Files (x86)\Microsoft Visual Studio\2019\Community\VC\Tools\MSVC\14.29.30133\atlmfc\include\afxwin2.inl
; File D:\git\src\IBK\IBK_DRFN\ProjSrc\SrcDrfn\Chart\comparechart\control\GfxOutBarCtrl.cpp
; File C:\Program Files (x86)\Microsoft Visual Studio\2019\Community\VC\Tools\MSVC\14.29.30133\atlmfc\include\afxwin2.inl
; File D:\git\src\IBK\IBK_DRFN\ProjSrc\SrcDrfn\Chart\comparechart\control\GfxOutBarCtrl.cpp
; File C:\Program Files (x86)\Microsoft Visual Studio\2019\Community\VC\Tools\MSVC\14.29.30133\atlmfc\include\afxwin1.inl
; File C:\Program Files (x86)\Microsoft Visual Studio\2019\Community\VC\Tools\MSVC\14.29.30133\atlmfc\include\atltypes.h
; File D:\git\src\IBK\IBK_DRFN\ProjSrc\SrcDrfn\Chart\comparechart\control\GfxOutBarCtrl.cpp
; File C:\Program Files (x86)\Microsoft Visual Studio\2019\Community\VC\Tools\MSVC\14.29.30133\atlmfc\include\atltypes.h
; File D:\git\src\IBK\IBK_DRFN\ProjSrc\SrcDrfn\Chart\comparechart\control\GfxOutBarCtrl.cpp
; File C:\Program Files (x86)\Microsoft Visual Studio\2019\Community\VC\Tools\MSVC\14.29.30133\atlmfc\include\atltypes.h
; File C:\Program Files (x86)\Microsoft Visual Studio\2019\Community\VC\Tools\MSVC\14.29.30133\atlmfc\include\afxcoll.inl
; File D:\git\src\IBK\IBK_DRFN\ProjSrc\SrcDrfn\Chart\comparechart\control\GfxOutBarCtrl.cpp
; File C:\Program Files (x86)\Microsoft Visual Studio\2019\Community\VC\Tools\MSVC\14.29.30133\atlmfc\include\afxcoll.inl
; File D:\git\src\IBK\IBK_DRFN\ProjSrc\SrcDrfn\Chart\comparechart\control\GfxOutBarCtrl.cpp
; File C:\Program Files (x86)\Microsoft Visual Studio\2019\Community\VC\Tools\MSVC\14.29.30133\atlmfc\include\afxwin2.inl
; File C:\Program Files (x86)\Microsoft Visual Studio\2019\Community\VC\Tools\MSVC\14.29.30133\atlmfc\include\atltypes.h
; File C:\Program Files (x86)\Microsoft Visual Studio\2019\Community\VC\Tools\MSVC\14.29.30133\atlmfc\include\afxwin2.inl
; File D:\git\src\IBK\IBK_DRFN\ProjSrc\SrcDrfn\Chart\comparechart\control\GfxOutBarCtrl.cpp
; File C:\Program Files (x86)\Microsoft Visual Studio\2019\Community\VC\Tools\MSVC\14.29.30133\atlmfc\include\atltypes.h
; File C:\Program Files (x86)\Microsoft Visual Studio\2019\Community\VC\Tools\MSVC\14.29.30133\atlmfc\include\afxwin2.inl
; File C:\Program Files (x86)\Microsoft Visual Studio\2019\Community\VC\Tools\MSVC\14.29.30133\atlmfc\include\atltypes.h
; File C:\Program Files (x86)\Microsoft Visual Studio\2019\Community\VC\Tools\MSVC\14.29.30133\atlmfc\include\afxwin2.inl
; File C:\Program Files (x86)\Microsoft Visual Studio\2019\Community\VC\Tools\MSVC\14.29.30133\atlmfc\include\atltypes.h
; File D:\git\src\IBK\IBK_DRFN\ProjSrc\SrcDrfn\Chart\comparechart\control\GfxOutBarCtrl.cpp
; File C:\Program Files (x86)\Microsoft Visual Studio\2019\Community\VC\Tools\MSVC\14.29.30133\atlmfc\include\atltypes.h
; File C:\Program Files (x86)\Microsoft Visual Studio\2019\Community\VC\Tools\MSVC\14.29.30133\atlmfc\include\afxcoll.inl
; File D:\git\src\IBK\IBK_DRFN\ProjSrc\SrcDrfn\Chart\comparechart\control\GfxOutBarCtrl.cpp
; File C:\Program Files (x86)\Microsoft Visual Studio\2019\Community\VC\Tools\MSVC\14.29.30133\atlmfc\include\afxcoll.inl
; File D:\git\src\IBK\IBK_DRFN\ProjSrc\SrcDrfn\Chart\comparechart\control\GfxOutBarCtrl.cpp
; File C:\Program Files (x86)\Microsoft Visual Studio\2019\Community\VC\Tools\MSVC\14.29.30133\atlmfc\include\afxwin2.inl
; File C:\Program Files (x86)\Microsoft Visual Studio\2019\Community\VC\Tools\MSVC\14.29.30133\atlmfc\include\atltypes.h
; File C:\Program Files (x86)\Microsoft Visual Studio\2019\Community\VC\Tools\MSVC\14.29.30133\atlmfc\include\afxwin2.inl
; File D:\git\src\IBK\IBK_DRFN\ProjSrc\SrcDrfn\Chart\comparechart\control\GfxOutBarCtrl.cpp
; File C:\Program Files (x86)\Microsoft Visual Studio\2019\Community\VC\Tools\MSVC\14.29.30133\atlmfc\include\afxwin2.inl
; File D:\git\src\IBK\IBK_DRFN\ProjSrc\SrcDrfn\Chart\comparechart\control\GfxOutBarCtrl.cpp
; File C:\Program Files (x86)\Microsoft Visual Studio\2019\Community\VC\Tools\MSVC\14.29.30133\atlmfc\include\afxwin2.inl
; File D:\git\src\IBK\IBK_DRFN\ProjSrc\SrcDrfn\Chart\comparechart\control\GfxOutBarCtrl.cpp
; File C:\Program Files (x86)\Microsoft Visual Studio\2019\Community\VC\Tools\MSVC\14.29.30133\atlmfc\include\afxwin2.inl
; File D:\git\src\IBK\IBK_DRFN\ProjSrc\SrcDrfn\Chart\comparechart\control\GfxOutBarCtrl.cpp
; File C:\Program Files (x86)\Microsoft Visual Studio\2019\Community\VC\Tools\MSVC\14.29.30133\atlmfc\include\afxwin2.inl
; File D:\git\src\IBK\IBK_DRFN\ProjSrc\SrcDrfn\Chart\comparechart\control\GfxOutBarCtrl.cpp
; File C:\Program Files (x86)\Microsoft Visual Studio\2019\Community\VC\Tools\MSVC\14.29.30133\atlmfc\include\afxwin2.inl
; File D:\git\src\IBK\IBK_DRFN\ProjSrc\SrcDrfn\Chart\comparechart\control\GfxOutBarCtrl.cpp
; File C:\Program Files (x86)\Microsoft Visual Studio\2019\Community\VC\Tools\MSVC\14.29.30133\atlmfc\include\atltypes.h
; File C:\Program Files (x86)\Microsoft Visual Studio\2019\Community\VC\Tools\MSVC\14.29.30133\atlmfc\include\afxwin2.inl
; File D:\git\src\IBK\IBK_DRFN\ProjSrc\SrcDrfn\Chart\comparechart\control\GfxOutBarCtrl.cpp
; File C:\Program Files (x86)\Microsoft Visual Studio\2019\Community\VC\Tools\MSVC\14.29.30133\atlmfc\include\afxwin2.inl
; File D:\git\src\IBK\IBK_DRFN\ProjSrc\SrcDrfn\Chart\comparechart\control\GfxOutBarCtrl.cpp
; File C:\Program Files (x86)\Microsoft Visual Studio\2019\Community\VC\Tools\MSVC\14.29.30133\atlmfc\include\afxwin2.inl
; File D:\git\src\IBK\IBK_DRFN\ProjSrc\SrcDrfn\Chart\comparechart\control\GfxOutBarCtrl.cpp
; File C:\Program Files (x86)\Microsoft Visual Studio\2019\Community\VC\Tools\MSVC\14.29.30133\atlmfc\include\afxwin2.inl
; File D:\git\src\IBK\IBK_DRFN\ProjSrc\SrcDrfn\Chart\comparechart\control\GfxOutBarCtrl.cpp
; File C:\Program Files (x86)\Microsoft Visual Studio\2019\Community\VC\Tools\MSVC\14.29.30133\atlmfc\include\afxwin1.inl
; File D:\git\src\IBK\IBK_DRFN\ProjSrc\SrcDrfn\Chart\comparechart\control\GfxOutBarCtrl.cpp
; File C:\Program Files (x86)\Microsoft Visual Studio\2019\Community\VC\Tools\MSVC\14.29.30133\atlmfc\include\afxwin1.inl
; File C:\Program Files (x86)\Microsoft Visual Studio\2019\Community\VC\Tools\MSVC\14.29.30133\atlmfc\include\afxwin2.inl
; File D:\git\src\IBK\IBK_DRFN\ProjSrc\SrcDrfn\Chart\comparechart\control\GfxOutBarCtrl.cpp
; File C:\Program Files (x86)\Microsoft Visual Studio\2019\Community\VC\Tools\MSVC\14.29.30133\atlmfc\include\afxwin2.inl
; File D:\git\src\IBK\IBK_DRFN\ProjSrc\SrcDrfn\Chart\comparechart\control\GfxOutBarCtrl.cpp
; File C:\Program Files (x86)\Microsoft Visual Studio\2019\Community\VC\Tools\MSVC\14.29.30133\atlmfc\include\afxwin1.inl
; File C:\Program Files (x86)\Microsoft Visual Studio\2019\Community\VC\Tools\MSVC\14.29.30133\atlmfc\include\atltypes.h
; File D:\git\src\IBK\IBK_DRFN\ProjSrc\SrcDrfn\Chart\comparechart\control\GfxOutBarCtrl.cpp
; File C:\Program Files (x86)\Microsoft Visual Studio\2019\Community\VC\Tools\MSVC\14.29.30133\atlmfc\include\atltypes.h
; File D:\git\src\IBK\IBK_DRFN\ProjSrc\SrcDrfn\Chart\comparechart\control\GfxOutBarCtrl.cpp
; File C:\Program Files (x86)\Microsoft Visual Studio\2019\Community\VC\Tools\MSVC\14.29.30133\atlmfc\include\afxwin2.inl
; File C:\Program Files (x86)\Microsoft Visual Studio\2019\Community\VC\Tools\MSVC\14.29.30133\atlmfc\include\atltypes.h
; File C:\Program Files (x86)\Microsoft Visual Studio\2019\Community\VC\Tools\MSVC\14.29.30133\atlmfc\include\afxwin2.inl
; File D:\git\src\IBK\IBK_DRFN\ProjSrc\SrcDrfn\Chart\comparechart\control\GfxOutBarCtrl.cpp
; File C:\Program Files (x86)\Microsoft Visual Studio\2019\Community\VC\Tools\MSVC\14.29.30133\atlmfc\include\afxwin2.inl
; File D:\git\src\IBK\IBK_DRFN\ProjSrc\SrcDrfn\Chart\comparechart\control\GfxOutBarCtrl.cpp
; File C:\Program Files (x86)\Microsoft Visual Studio\2019\Community\VC\Tools\MSVC\14.29.30133\atlmfc\include\atltypes.h
; File C:\Program Files (x86)\Microsoft Visual Studio\2019\Community\VC\Tools\MSVC\14.29.30133\atlmfc\include\afxwin2.inl
; File C:\Program Files (x86)\Microsoft Visual Studio\2019\Community\VC\Tools\MSVC\14.29.30133\atlmfc\include\atltypes.h
; File C:\Program Files (x86)\Microsoft Visual Studio\2019\Community\VC\Tools\MSVC\14.29.30133\atlmfc\include\afxwin2.inl
; File C:\Program Files (x86)\Microsoft Visual Studio\2019\Community\VC\Tools\MSVC\14.29.30133\atlmfc\include\atltypes.h
; File D:\git\src\IBK\IBK_DRFN\ProjSrc\SrcDrfn\Chart\comparechart\control\GfxOutBarCtrl.cpp
; File C:\Program Files (x86)\Microsoft Visual Studio\2019\Community\VC\Tools\MSVC\14.29.30133\atlmfc\include\afxwin2.inl
; File C:\Program Files (x86)\Microsoft Visual Studio\2019\Community\VC\Tools\MSVC\14.29.30133\atlmfc\include\atltypes.h
; File C:\Program Files (x86)\Microsoft Visual Studio\2019\Community\VC\Tools\MSVC\14.29.30133\atlmfc\include\afxwin2.inl
; File D:\git\src\IBK\IBK_DRFN\ProjSrc\SrcDrfn\Chart\comparechart\control\GfxOutBarCtrl.cpp
; File C:\Program Files (x86)\Microsoft Visual Studio\2019\Community\VC\Tools\MSVC\14.29.30133\atlmfc\include\afxwin2.inl
; File D:\git\src\IBK\IBK_DRFN\ProjSrc\SrcDrfn\Chart\comparechart\control\GfxOutBarCtrl.cpp
; File C:\Program Files (x86)\Microsoft Visual Studio\2019\Community\VC\Tools\MSVC\14.29.30133\atlmfc\include\afxwin2.inl
; File D:\git\src\IBK\IBK_DRFN\ProjSrc\SrcDrfn\Chart\comparechart\control\GfxOutBarCtrl.cpp
; File C:\Program Files (x86)\Microsoft Visual Studio\2019\Community\VC\Tools\MSVC\14.29.30133\atlmfc\include\afxwin2.inl
; File D:\git\src\IBK\IBK_DRFN\ProjSrc\SrcDrfn\Chart\comparechart\control\GfxOutBarCtrl.cpp
; File C:\Program Files (x86)\Microsoft Visual Studio\2019\Community\VC\Tools\MSVC\14.29.30133\atlmfc\include\afxwin2.inl
; File D:\git\src\IBK\IBK_DRFN\ProjSrc\SrcDrfn\Chart\comparechart\control\GfxOutBarCtrl.cpp
; File C:\Program Files (x86)\Microsoft Visual Studio\2019\Community\VC\Tools\MSVC\14.29.30133\atlmfc\include\afxwin2.inl
; File D:\git\src\IBK\IBK_DRFN\ProjSrc\SrcDrfn\Chart\comparechart\control\GfxOutBarCtrl.cpp
; File C:\Program Files (x86)\Microsoft Visual Studio\2019\Community\VC\Tools\MSVC\14.29.30133\atlmfc\include\atltypes.h
; File C:\Program Files (x86)\Microsoft Visual Studio\2019\Community\VC\Tools\MSVC\14.29.30133\atlmfc\include\afxwin2.inl
; File D:\git\src\IBK\IBK_DRFN\ProjSrc\SrcDrfn\Chart\comparechart\control\GfxOutBarCtrl.cpp
; File C:\Program Files (x86)\Microsoft Visual Studio\2019\Community\VC\Tools\MSVC\14.29.30133\atlmfc\include\afxwin2.inl
; File D:\git\src\IBK\IBK_DRFN\ProjSrc\SrcDrfn\Chart\comparechart\control\GfxOutBarCtrl.cpp
; File C:\Program Files (x86)\Microsoft Visual Studio\2019\Community\VC\Tools\MSVC\14.29.30133\atlmfc\include\afxwin2.inl
; File D:\git\src\IBK\IBK_DRFN\ProjSrc\SrcDrfn\Chart\comparechart\control\GfxOutBarCtrl.cpp
;	COMDAT ?OnLButtonDown@CGfxOutBarCtrl@@IAEXIVCPoint@@@Z
_TEXT	SEGMENT
_dc$2 = -184						; size = 20
_dc$3 = -184						; size = 20
_dc$4 = -184						; size = 20
_msg$5 = -164						; size = 28
_dc$6 = -156						; size = 20
_msg$7 = -136						; size = 28
_msg$8 = -136						; size = 28
_msg$9 = -136						; size = 28
_pt$10 = -108						; size = 8
_hCur$1$ = -104						; size = 4
_idx$11 = -104						; size = 4
_idx$12 = -104						; size = 4
_index$ = -104						; size = 4
_bHigh$1$ = -97						; size = 1
_inRc$ = -96						; size = 16
_crc$13 = -80						; size = 16
_crc$14 = -64						; size = 16
_crc$15 = -64						; size = 16
_rc$16 = -64						; size = 16
_rc$17 = -64						; size = 16
_crc$18 = -48						; size = 16
_itrc$19 = -48						; size = 16
_itrc$20 = -48						; size = 16
_rc$21 = -48						; size = 16
_rc$22 = -48						; size = 16
_crc$23 = -32						; size = 16
_crc$24 = -32						; size = 16
_pt$25 = -24						; size = 8
_pt$26 = -24						; size = 8
_pt$27 = -24						; size = 8
__$ArrayPad$ = -16					; size = 4
__$EHRec$ = -12						; size = 12
_nFlags$ = 8						; size = 4
_point$ = 12						; size = 8
?OnLButtonDown@CGfxOutBarCtrl@@IAEXIVCPoint@@@Z PROC	; CGfxOutBarCtrl::OnLButtonDown, COMDAT
; _this$ = ecx

; 916  : {

  00000	55		 push	 ebp
  00001	8b ec		 mov	 ebp, esp
  00003	6a ff		 push	 -1
  00005	68 00 00 00 00	 push	 __ehhandler$?OnLButtonDown@CGfxOutBarCtrl@@IAEXIVCPoint@@@Z
  0000a	64 a1 00 00 00
	00		 mov	 eax, DWORD PTR fs:0
  00010	50		 push	 eax
  00011	81 ec ac 00 00
	00		 sub	 esp, 172		; 000000acH
  00017	a1 00 00 00 00	 mov	 eax, DWORD PTR ___security_cookie
  0001c	33 c5		 xor	 eax, ebp
  0001e	89 45 f0	 mov	 DWORD PTR __$ArrayPad$[ebp], eax
  00021	53		 push	 ebx
  00022	56		 push	 esi
  00023	57		 push	 edi
  00024	50		 push	 eax
  00025	8d 45 f4	 lea	 eax, DWORD PTR __$EHRec$[ebp]
  00028	64 a3 00 00 00
	00		 mov	 DWORD PTR fs:0, eax
  0002e	8b f1		 mov	 esi, ecx
; File C:\Program Files (x86)\Microsoft Visual Studio\2019\Community\VC\Tools\MSVC\14.29.30133\atlmfc\include\afxwin2.inl

; 165  : 	{ return CWnd::FromHandle(::GetFocus()); }

  00030	ff 15 00 00 00
	00		 call	 DWORD PTR __imp__GetFocus@0
  00036	50		 push	 eax
  00037	e8 00 00 00 00	 call	 ?FromHandle@CWnd@@SGPAV1@PAUHWND__@@@Z ; CWnd::FromHandle
; File D:\git\src\IBK\IBK_DRFN\ProjSrc\SrcDrfn\Chart\comparechart\control\GfxOutBarCtrl.cpp

; 917  : 	if (GetFocus() != this) SetFocus();

  0003c	3b c6		 cmp	 eax, esi
  0003e	74 07		 je	 SHORT $LN22@OnLButtonD
  00040	8b ce		 mov	 ecx, esi
  00042	e8 00 00 00 00	 call	 ?SetFocus@CWnd@@QAEPAV1@XZ ; CWnd::SetFocus
$LN22@OnLButtonD:

; 918  : 
; 919  : 	int index, ht = HitTestEx(point, index);

  00047	8d 45 98	 lea	 eax, DWORD PTR _index$[ebp]
  0004a	8b ce		 mov	 ecx, esi
  0004c	50		 push	 eax
  0004d	8d 45 0c	 lea	 eax, DWORD PTR _point$[ebp]
  00050	50		 push	 eax
  00051	e8 00 00 00 00	 call	 ?HitTestEx@CGfxOutBarCtrl@@QAEHABVCPoint@@AAH@Z ; CGfxOutBarCtrl::HitTestEx
  00056	8b d8		 mov	 ebx, eax

; 920  : 	iLastDragItemDrawType = -1;

  00058	c7 86 30 01 00
	00 ff ff ff ff	 mov	 DWORD PTR [esi+304], -1
; File C:\Program Files (x86)\Microsoft Visual Studio\2019\Community\VC\Tools\MSVC\14.29.30133\atlmfc\include\afxwin2.inl

; 86   : 	{ ASSERT(::IsWindow(m_hWnd)); ::GetClientRect(m_hWnd, lpRect); }

  00062	8d 45 a0	 lea	 eax, DWORD PTR _inRc$[ebp]
  00065	0f 57 c0	 xorps	 xmm0, xmm0
  00068	50		 push	 eax
  00069	ff 76 20	 push	 DWORD PTR [esi+32]
; File C:\Program Files (x86)\Microsoft Visual Studio\2019\Community\VC\Tools\MSVC\14.29.30133\atlmfc\include\atltypes.h

; 528  : 	left = 0;

  0006c	0f 11 45 a0	 movups	 XMMWORD PTR _inRc$[ebp], xmm0
; File C:\Program Files (x86)\Microsoft Visual Studio\2019\Community\VC\Tools\MSVC\14.29.30133\atlmfc\include\afxwin2.inl

; 86   : 	{ ASSERT(::IsWindow(m_hWnd)); ::GetClientRect(m_hWnd, lpRect); }

  00070	ff 15 00 00 00
	00		 call	 DWORD PTR __imp__GetClientRect@8
; File D:\git\src\IBK\IBK_DRFN\ProjSrc\SrcDrfn\Chart\comparechart\control\GfxOutBarCtrl.cpp

; 746  : 	if (arFolder.GetSize() > 0)

  00076	8b be 0c 01 00
	00		 mov	 edi, DWORD PTR [esi+268]
  0007c	85 ff		 test	 edi, edi
  0007e	7e 1e		 jle	 SHORT $LN375@OnLButtonD

; 747  : 	{
; 748  : 		int max = arFolder.GetSize();
; 749  : 		rect.top += iFolderHeight * (iSelFolder + 1); + 1;//+ 2;

  00080	8b 8e 34 01 00
	00		 mov	 ecx, DWORD PTR [esi+308]

; 750  : 		rect.bottom -= (max - iSelFolder - 1)*iFolderHeight;

  00086	2b f9		 sub	 edi, ecx
  00088	8b 96 a0 00 00
	00		 mov	 edx, DWORD PTR [esi+160]
  0008e	4f		 dec	 edi
  0008f	0f af fa	 imul	 edi, edx
  00092	8d 41 01	 lea	 eax, DWORD PTR [ecx+1]
  00095	0f af c2	 imul	 eax, edx
  00098	01 45 a4	 add	 DWORD PTR _inRc$[ebp+4], eax
  0009b	29 7d ac	 sub	 DWORD PTR _inRc$[ebp+12], edi
$LN375@OnLButtonD:

; 921  : 
; 922  : 	CRect inRc;
; 923  : 	GetInsideRect(inRc);
; 924  : 
; 925  : 	if (ht == htFolder)

  0009e	85 db		 test	 ebx, ebx
  000a0	0f 85 1e 01 00
	00		 jne	 $LN23@OnLButtonD

; 929  : 		GetFolderRect(index, rc);

  000a6	8d 45 c0	 lea	 eax, DWORD PTR _rc$17[ebp]
  000a9	0f 57 c0	 xorps	 xmm0, xmm0
  000ac	50		 push	 eax
  000ad	ff 75 98	 push	 DWORD PTR _index$[ebp]
  000b0	8b ce		 mov	 ecx, esi
; File C:\Program Files (x86)\Microsoft Visual Studio\2019\Community\VC\Tools\MSVC\14.29.30133\atlmfc\include\atltypes.h

; 528  : 	left = 0;

  000b2	0f 11 45 c0	 movups	 XMMWORD PTR _rc$17[ebp], xmm0
; File D:\git\src\IBK\IBK_DRFN\ProjSrc\SrcDrfn\Chart\comparechart\control\GfxOutBarCtrl.cpp

; 929  : 		GetFolderRect(index, rc);

  000b6	e8 00 00 00 00	 call	 ?GetFolderRect@CGfxOutBarCtrl@@QBE_NHAAVCRect@@@Z ; CGfxOutBarCtrl::GetFolderRect

; 930  : 
; 931  : 		if (::GetCapture() == NULL)

  000bb	8b 3d 00 00 00
	00		 mov	 edi, DWORD PTR __imp__GetCapture@0
  000c1	ff d7		 call	 edi
  000c3	85 c0		 test	 eax, eax
  000c5	0f 85 a7 00 00
	00		 jne	 $LN369@OnLButtonD
; File C:\Program Files (x86)\Microsoft Visual Studio\2019\Community\VC\Tools\MSVC\14.29.30133\atlmfc\include\afxwin2.inl

; 163  : 	{ ASSERT(::IsWindow(m_hWnd)); return CWnd::FromHandle(::SetCapture(m_hWnd)); }

  000cb	ff 76 20	 push	 DWORD PTR [esi+32]
  000ce	ff 15 00 00 00
	00		 call	 DWORD PTR __imp__SetCapture@4
  000d4	50		 push	 eax
  000d5	e8 00 00 00 00	 call	 ?FromHandle@CWnd@@SGPAV1@PAUHWND__@@@Z ; CWnd::FromHandle
; File D:\git\src\IBK\IBK_DRFN\ProjSrc\SrcDrfn\Chart\comparechart\control\GfxOutBarCtrl.cpp

; 935  : 			CClientDC dc(this);

  000da	56		 push	 esi
  000db	8d 8d 48 ff ff
	ff		 lea	 ecx, DWORD PTR _dc$4[ebp]
  000e1	e8 00 00 00 00	 call	 ??0CClientDC@@QAE@PAVCWnd@@@Z ; CClientDC::CClientDC
  000e6	89 5d fc	 mov	 DWORD PTR __$EHRec$[ebp+8], ebx

; 936  : 			//DrawFolder(&dc, index, rc, true);
; 937  : 			AfxLockTempMaps();

  000e9	e8 00 00 00 00	 call	 ?AfxLockTempMaps@@YGXXZ	; AfxLockTempMaps

; 938  : 			for (;;)
; 939  : 			{
; 940  : 				MSG msg;
; 941  : 				VERIFY(::GetMessage(&msg, NULL, 0, 0));

  000ee	53		 push	 ebx
  000ef	53		 push	 ebx
  000f0	53		 push	 ebx
  000f1	8b 1d 00 00 00
	00		 mov	 ebx, DWORD PTR __imp__GetMessageA@16
  000f7	8d 85 78 ff ff
	ff		 lea	 eax, DWORD PTR _msg$9[ebp]
  000fd	50		 push	 eax
  000fe	ff d3		 call	 ebx
; File C:\Program Files (x86)\Microsoft Visual Studio\2019\Community\VC\Tools\MSVC\14.29.30133\atlmfc\include\afxwin2.inl

; 161  : 	{ return CWnd::FromHandle(::GetCapture()); }

  00100	ff d7		 call	 edi
  00102	50		 push	 eax
  00103	e8 00 00 00 00	 call	 ?FromHandle@CWnd@@SGPAV1@PAUHWND__@@@Z ; CWnd::FromHandle
; File D:\git\src\IBK\IBK_DRFN\ProjSrc\SrcDrfn\Chart\comparechart\control\GfxOutBarCtrl.cpp

; 943  : 				if (CWnd::GetCapture() != this) break;

  00108	3b c6		 cmp	 eax, esi
  0010a	75 47		 jne	 SHORT $ExitLoop2$402
  0010c	0f 1f 40 00	 npad	 4
$LL2@OnLButtonD:

; 944  : 
; 945  : 				switch (msg.message)

  00110	8b 85 7c ff ff
	ff		 mov	 eax, DWORD PTR _msg$9[ebp+4]
  00116	3d 00 01 00 00	 cmp	 eax, 256		; 00000100H
  0011b	74 73		 je	 SHORT $LN30@OnLButtonD
  0011d	3d 02 02 00 00	 cmp	 eax, 514		; 00000202H
  00122	75 72		 jne	 SHORT $LN31@OnLButtonD
; File C:\Program Files (x86)\Microsoft Visual Studio\2019\Community\VC\Tools\MSVC\14.29.30133\atlmfc\include\atltypes.h

; 424  : 	x = (short)LOWORD(dwPoint);

  00124	8b 4d 84	 mov	 ecx, DWORD PTR _msg$9[ebp+12]
  00127	0f bf c1	 movsx	 eax, cx
  0012a	89 45 e8	 mov	 DWORD PTR _pt$27[ebp], eax

; 425  : 	y = (short)HIWORD(dwPoint);

  0012d	c1 e9 10	 shr	 ecx, 16			; 00000010H
  00130	0f bf c1	 movsx	 eax, cx
; File D:\git\src\IBK\IBK_DRFN\ProjSrc\SrcDrfn\Chart\comparechart\control\GfxOutBarCtrl.cpp

; 978  : 						int idx, ht1 = HitTestEx(pt, idx);

  00133	8b ce		 mov	 ecx, esi
; File C:\Program Files (x86)\Microsoft Visual Studio\2019\Community\VC\Tools\MSVC\14.29.30133\atlmfc\include\atltypes.h

; 425  : 	y = (short)HIWORD(dwPoint);

  00135	89 45 ec	 mov	 DWORD PTR _pt$27[ebp+4], eax
; File D:\git\src\IBK\IBK_DRFN\ProjSrc\SrcDrfn\Chart\comparechart\control\GfxOutBarCtrl.cpp

; 978  : 						int idx, ht1 = HitTestEx(pt, idx);

  00138	8d 45 98	 lea	 eax, DWORD PTR _idx$12[ebp]
  0013b	50		 push	 eax
  0013c	8d 45 e8	 lea	 eax, DWORD PTR _pt$27[ebp]
  0013f	50		 push	 eax
  00140	e8 00 00 00 00	 call	 ?HitTestEx@CGfxOutBarCtrl@@QAEHABVCPoint@@AAH@Z ; CGfxOutBarCtrl::HitTestEx

; 979  : 						if (ht1 == htFolder)// && idx != iSelFolder)

  00145	85 c0		 test	 eax, eax
  00147	75 0a		 jne	 SHORT $ExitLoop2$402

; 980  : 							SetSelFolder(idx);

  00149	ff 75 98	 push	 DWORD PTR _idx$12[ebp]
  0014c	8b ce		 mov	 ecx, esi
  0014e	e8 00 00 00 00	 call	 ?SetSelFolder@CGfxOutBarCtrl@@QAEXH@Z ; CGfxOutBarCtrl::SetSelFolder
$ExitLoop2$402:

; 991  : 					break;
; 992  : 				}
; 993  : 			}
; 994  : 
; 995  : 		ExitLoop2:
; 996  : 			ReleaseCapture();

  00153	ff 15 00 00 00
	00		 call	 DWORD PTR __imp__ReleaseCapture@0

; 997  : 			AfxUnlockTempMaps(FALSE);

  00159	6a 00		 push	 0
  0015b	e8 00 00 00 00	 call	 ?AfxUnlockTempMaps@@YGHH@Z ; AfxUnlockTempMaps

; 998  : 		}

  00160	8d 8d 48 ff ff
	ff		 lea	 ecx, DWORD PTR _dc$4[ebp]
  00166	c7 45 fc ff ff
	ff ff		 mov	 DWORD PTR __$EHRec$[ebp+8], -1
  0016d	e8 00 00 00 00	 call	 ??1CClientDC@@UAE@XZ	; CClientDC::~CClientDC
$LN369@OnLButtonD:
; File C:\Program Files (x86)\Microsoft Visual Studio\2019\Community\VC\Tools\MSVC\14.29.30133\atlmfc\include\afxwin2.inl

; 116  : 	{ ASSERT(::IsWindow(m_hWnd)); ::InvalidateRect(m_hWnd, lpRect, bErase); }

  00172	6a 00		 push	 0
  00174	8d 45 c0	 lea	 eax, DWORD PTR _rc$17[ebp]
  00177	50		 push	 eax
  00178	ff 76 20	 push	 DWORD PTR [esi+32]
  0017b	ff 15 00 00 00
	00		 call	 DWORD PTR __imp__InvalidateRect@12
  00181	c7 86 24 01 00
	00 ff ff ff ff	 mov	 DWORD PTR [esi+292], -1
; File D:\git\src\IBK\IBK_DRFN\ProjSrc\SrcDrfn\Chart\comparechart\control\GfxOutBarCtrl.cpp

; 1000 : 	}

  0018b	e9 cc 08 00 00	 jmp	 $LN78@OnLButtonD
$LN30@OnLButtonD:

; 981  : 					}
; 982  : 
; 983  : 					goto ExitLoop2;
; 984  : 
; 985  : 				case WM_KEYDOWN:	
; 986  : 					if (msg.wParam != VK_ESCAPE) 

  00190	83 7d 80 1b	 cmp	 DWORD PTR _msg$9[ebp+8], 27 ; 0000001bH
  00194	75 0d		 jne	 SHORT $LN5@OnLButtonD
$LN31@OnLButtonD:

; 987  : 						break;
; 988  : 
; 989  : 				default:
; 990  : 					DispatchMessage(&msg);

  00196	8d 85 78 ff ff
	ff		 lea	 eax, DWORD PTR _msg$9[ebp]
  0019c	50		 push	 eax
  0019d	ff 15 00 00 00
	00		 call	 DWORD PTR __imp__DispatchMessageA@4
$LN5@OnLButtonD:

; 938  : 			for (;;)
; 939  : 			{
; 940  : 				MSG msg;
; 941  : 				VERIFY(::GetMessage(&msg, NULL, 0, 0));

  001a3	6a 00		 push	 0
  001a5	6a 00		 push	 0
  001a7	6a 00		 push	 0
  001a9	8d 85 78 ff ff
	ff		 lea	 eax, DWORD PTR _msg$9[ebp]
  001af	50		 push	 eax
  001b0	ff d3		 call	 ebx
; File C:\Program Files (x86)\Microsoft Visual Studio\2019\Community\VC\Tools\MSVC\14.29.30133\atlmfc\include\afxwin2.inl

; 161  : 	{ return CWnd::FromHandle(::GetCapture()); }

  001b2	ff d7		 call	 edi
  001b4	50		 push	 eax
  001b5	e8 00 00 00 00	 call	 ?FromHandle@CWnd@@SGPAV1@PAUHWND__@@@Z ; CWnd::FromHandle
; File D:\git\src\IBK\IBK_DRFN\ProjSrc\SrcDrfn\Chart\comparechart\control\GfxOutBarCtrl.cpp

; 943  : 				if (CWnd::GetCapture() != this) break;

  001ba	3b c6		 cmp	 eax, esi
  001bc	0f 84 4e ff ff
	ff		 je	 $LL2@OnLButtonD
  001c2	eb 8f		 jmp	 SHORT $ExitLoop2$402
$LN23@OnLButtonD:

; 1001 : 	else iLastSelectedFolder = -1;

  001c4	c7 86 1c 01 00
	00 ff ff ff ff	 mov	 DWORD PTR [esi+284], -1

; 1002 : 
; 1003 : 	if (ht == htItem)

  001ce	83 fb 01	 cmp	 ebx, 1
  001d1	0f 85 66 02 00
	00		 jne	 $LN34@OnLButtonD

; 1008 : 		GetItemRect(iSelFolder, index, rc);

  001d7	8b 7d 98	 mov	 edi, DWORD PTR _index$[ebp]
  001da	8d 45 c0	 lea	 eax, DWORD PTR _rc$16[ebp]
  001dd	50		 push	 eax
  001de	57		 push	 edi
  001df	ff b6 34 01 00
	00		 push	 DWORD PTR [esi+308]
  001e5	0f 57 c0	 xorps	 xmm0, xmm0
  001e8	c7 86 2c 01 00
	00 ff ff ff ff	 mov	 DWORD PTR [esi+300], -1
  001f2	8b ce		 mov	 ecx, esi
  001f4	88 5d 9f	 mov	 BYTE PTR _bHigh$1$[ebp], bl
; File C:\Program Files (x86)\Microsoft Visual Studio\2019\Community\VC\Tools\MSVC\14.29.30133\atlmfc\include\atltypes.h

; 528  : 	left = 0;

  001f7	0f 11 45 c0	 movups	 XMMWORD PTR _rc$16[ebp], xmm0
; File D:\git\src\IBK\IBK_DRFN\ProjSrc\SrcDrfn\Chart\comparechart\control\GfxOutBarCtrl.cpp

; 1008 : 		GetItemRect(iSelFolder, index, rc);

  001fb	e8 00 00 00 00	 call	 ?GetItemRect@CGfxOutBarCtrl@@QAEXHHAAVCRect@@@Z ; CGfxOutBarCtrl::GetItemRect

; 1009 : 
; 1010 : 		HCURSOR hCur = GetCursor();

  00200	ff 15 00 00 00
	00		 call	 DWORD PTR __imp__GetCursor@0

; 1011 : 
; 1012 : 		if (::GetCapture() == NULL)

  00206	8b 1d 00 00 00
	00		 mov	 ebx, DWORD PTR __imp__GetCapture@0
  0020c	89 45 98	 mov	 DWORD PTR _hCur$1$[ebp], eax
  0020f	ff d3		 call	 ebx
  00211	85 c0		 test	 eax, eax
  00213	0f 85 ff 01 00
	00		 jne	 $LN36@OnLButtonD
; File C:\Program Files (x86)\Microsoft Visual Studio\2019\Community\VC\Tools\MSVC\14.29.30133\atlmfc\include\afxwin2.inl

; 163  : 	{ ASSERT(::IsWindow(m_hWnd)); return CWnd::FromHandle(::SetCapture(m_hWnd)); }

  00219	ff 76 20	 push	 DWORD PTR [esi+32]
  0021c	ff 15 00 00 00
	00		 call	 DWORD PTR __imp__SetCapture@4
  00222	50		 push	 eax
  00223	e8 00 00 00 00	 call	 ?FromHandle@CWnd@@SGPAV1@PAUHWND__@@@Z ; CWnd::FromHandle
; File D:\git\src\IBK\IBK_DRFN\ProjSrc\SrcDrfn\Chart\comparechart\control\GfxOutBarCtrl.cpp

; 1016 : 			CClientDC dc(this);

  00228	56		 push	 esi
  00229	8d 8d 48 ff ff
	ff		 lea	 ecx, DWORD PTR _dc$3[ebp]
  0022f	e8 00 00 00 00	 call	 ??0CClientDC@@QAE@PAVCWnd@@@Z ; CClientDC::CClientDC

; 1017 : 			HighlightItem(index, true);

  00234	6a 01		 push	 1
  00236	57		 push	 edi
  00237	8b ce		 mov	 ecx, esi
  00239	c7 45 fc 01 00
	00 00		 mov	 DWORD PTR __$EHRec$[ebp+8], 1
  00240	e8 00 00 00 00	 call	 ?HighlightItem@CGfxOutBarCtrl@@QAEXH_N@Z ; CGfxOutBarCtrl::HighlightItem

; 1018 : 			AfxLockTempMaps();

  00245	e8 00 00 00 00	 call	 ?AfxLockTempMaps@@YGXXZ	; AfxLockTempMaps

; 1019 : 			for (;;)
; 1020 : 			{
; 1021 : 				MSG msg;
; 1022 : 				VERIFY(::GetMessage(&msg, NULL, 0, 0));

  0024a	6a 00		 push	 0
  0024c	6a 00		 push	 0
  0024e	6a 00		 push	 0
  00250	8d 85 78 ff ff
	ff		 lea	 eax, DWORD PTR _msg$8[ebp]
  00256	50		 push	 eax
  00257	ff 15 00 00 00
	00		 call	 DWORD PTR __imp__GetMessageA@16
; File C:\Program Files (x86)\Microsoft Visual Studio\2019\Community\VC\Tools\MSVC\14.29.30133\atlmfc\include\afxwin2.inl

; 161  : 	{ return CWnd::FromHandle(::GetCapture()); }

  0025d	ff d3		 call	 ebx
  0025f	50		 push	 eax
  00260	e8 00 00 00 00	 call	 ?FromHandle@CWnd@@SGPAV1@PAUHWND__@@@Z ; CWnd::FromHandle
; File D:\git\src\IBK\IBK_DRFN\ProjSrc\SrcDrfn\Chart\comparechart\control\GfxOutBarCtrl.cpp

; 1024 : 				if (CWnd::GetCapture() != this) break;

  00265	3b c6		 cmp	 eax, esi
  00267	0f 85 8c 01 00
	00		 jne	 $ExitLoop4$403
  0026d	0f 1f 00	 npad	 3
$LL7@OnLButtonD:

; 1025 : 
; 1026 : 				switch (msg.message)

  00270	8b 85 7c ff ff
	ff		 mov	 eax, DWORD PTR _msg$8[ebp+4]
  00276	83 f8 20	 cmp	 eax, 32			; 00000020H
  00279	74 16		 je	 SHORT $LN38@OnLButtonD
  0027b	3d 02 02 00 00	 cmp	 eax, 514		; 00000202H
  00280	74 3c		 je	 SHORT $LN370@OnLButtonD

; 1135 : 									rc.InflateRect(1,1);
; 1136 : 									InvalidateRect(rc);
; 1137 : 								}
; 1138 : 
; 1139 : 								GetOwner()->SendMessage(WMU_OUTBAR_NOTIFY, NM_OB_ITEMCLICK, idx);
; 1140 : 								Invalidate();
; 1141 : 							}
; 1142 : 						}
; 1143 : 						else
; 1144 : 						{
; 1145 : 							if (ht1 == htItem)
; 1146 : 							{
; 1147 : 								if (idx != index)
; 1148 : 								{
; 1149 : 									OUTBAR_INFO ob;
; 1150 : 									ob.iDragFrom = iSelFolder;
; 1151 : 									ob.iDragTo = index;
; 1152 : 									if (GetOwner()->SendMessage(WMU_OUTBAR_NOTIFY, NM_OB_DRAGITEM, (LPARAM) &ob))
; 1153 : 									{
; 1154 : 										CBarFolder * pbf = (CBarFolder *) arFolder.GetAt(iSelFolder);
; 1155 : 										CBarItem * piFrom = (CBarItem *) pbf->arItems.GetAt(index);
; 1156 : 										pbf->arItems.RemoveAt(index);
; 1157 : 										if (idx > index) idx --;
; 1158 : 										pbf->arItems.InsertAt(idx, piFrom);
; 1159 : 									}
; 1160 : 								}
; 1161 : 							}
; 1162 : 							else
; 1163 : 							{
; 1164 : 								CRect rcItem;
; 1165 : 								GetItemRect(iSelFolder, GetItemCount() - 1, rcItem);
; 1166 : 								if (pt.y > rcItem.bottom && pt.y < inRc.bottom)
; 1167 : 								{
; 1168 : 									OUTBAR_INFO ob;
; 1169 : 									ob.iDragFrom = iSelFolder;
; 1170 : 									ob.iDragTo = index;
; 1171 : 									if (GetOwner()->SendMessage(WMU_OUTBAR_NOTIFY, NM_OB_DRAGITEM, (LPARAM) &ob))
; 1172 : 									{
; 1173 : 										CBarFolder * pbf = (CBarFolder *) arFolder.GetAt(iSelFolder);
; 1174 : 										CBarItem * piFrom = (CBarItem *) pbf->arItems.GetAt(index);
; 1175 : 										pbf->arItems.RemoveAt(index);
; 1176 : 										pbf->arItems.Add((void *) piFrom);
; 1177 : 									}
; 1178 : 								}
; 1179 : 							}
; 1180 : 						}
; 1181 : 					}
; 1182 : 
; 1183 : 					goto ExitLoop4;
; 1184 : 
; 1185 : 				default:
; 1186 : 					DispatchMessage(&msg);

  00282	8d 85 78 ff ff
	ff		 lea	 eax, DWORD PTR _msg$8[ebp]
  00288	50		 push	 eax
  00289	ff 15 00 00 00
	00		 call	 DWORD PTR __imp__DispatchMessageA@4
  0028f	eb 09		 jmp	 SHORT $LN10@OnLButtonD
$LN38@OnLButtonD:

; 1027 : 				{
; 1028 : 				//case WM_MOUSEMOVE:
; 1029 : 				//	{
; 1030 : 				//		CPoint pt(msg.lParam);
; 1031 : 				//		int idx, ht1 = HitTestEx(pt, idx);
; 1032 : 				//		if (bDragging)
; 1033 : 				//		{
; 1034 : 				//			if (ht1 == htItem) 
; 1035 : 				//			{
; 1036 : 				//				DrawDragArrow(&dc, index, idx);
; 1037 : 				//				SetCursor(hDragCursor);
; 1038 : 				//				hCur = hDragCursor;
; 1039 : 				//			}
; 1040 : 				//			else 
; 1041 : 				//			{
; 1042 : 				//				CRect rcItem;
; 1043 : 				//				GetItemRect(iSelFolder, GetItemCount() - 1, rcItem);
; 1044 : 				//				if (pt.y > rcItem.bottom && pt.y < inRc.bottom)
; 1045 : 				//				{
; 1046 : 				//					DrawDragArrow(&dc, index, GetItemCount());
; 1047 : 				//					SetCursor(hDragCursor);
; 1048 : 				//					hCur = hDragCursor;
; 1049 : 				//				}
; 1050 : 				//				else
; 1051 : 				//				{
; 1052 : 				//					DrawDragArrow(&dc, index, -1);
; 1053 : 				//					SetCursor(hNoDragCursor);
; 1054 : 				//					hCur = hNoDragCursor;
; 1055 : 				//				}
; 1056 : 				//			}
; 1057 : 				//		}
; 1058 : 				//		else
; 1059 : 				//		{
; 1060 : 				//			if (ht1 == htItem && idx == index)
; 1061 : 				//			{
; 1062 : 				//				if (!bHigh)
; 1063 : 				//				{
; 1064 : 				//					HighlightItem(index, true);
; 1065 : 				//					bHigh = true;
; 1066 : 				//					bPressedHighlight = true;
; 1067 : 				//				}
; 1068 : 				//			}
; 1069 : 				//			else 
; 1070 : 				//			{
; 1071 : 				//				if (ht1 == htItem)
; 1072 : 				//				{
; 1073 : 				//					if (bHigh)
; 1074 : 				//					{
; 1075 : 				//						HighlightItem(index, false);
; 1076 : 				//						bHigh = false;
; 1077 : 				//						bPressedHighlight = false;
; 1078 : 				//					}
; 1079 : 				//				}
; 1080 : 				//				else
; 1081 : 				//				{
; 1082 : 				//					if (dwFlags&fDragItems)
; 1083 : 				//					{
; 1084 : 				//						HighlightItem(index, true);
; 1085 : 				//						bHigh = true;
; 1086 : 				//						bDragging = true;
; 1087 : 
; 1088 : 				//						SetCursor(hDragCursor);
; 1089 : 				//						hCur = hDragCursor;
; 1090 : 
; 1091 : 				//						bPressedHighlight = true;
; 1092 : 				//					}
; 1093 : 				//				}
; 1094 : 				//			}
; 1095 : 				//		}
; 1096 : 				//	}
; 1097 : 				//	break;
; 1098 : 
; 1099 : 				case WM_SETCURSOR:
; 1100 : 					SetCursor(hCur);

  00291	ff 75 98	 push	 DWORD PTR _hCur$1$[ebp]
  00294	ff 15 00 00 00
	00		 call	 DWORD PTR __imp__SetCursor@4
$LN10@OnLButtonD:

; 1019 : 			for (;;)
; 1020 : 			{
; 1021 : 				MSG msg;
; 1022 : 				VERIFY(::GetMessage(&msg, NULL, 0, 0));

  0029a	6a 00		 push	 0
  0029c	6a 00		 push	 0
  0029e	6a 00		 push	 0
  002a0	8d 85 78 ff ff
	ff		 lea	 eax, DWORD PTR _msg$8[ebp]
  002a6	50		 push	 eax
  002a7	ff 15 00 00 00
	00		 call	 DWORD PTR __imp__GetMessageA@16
; File C:\Program Files (x86)\Microsoft Visual Studio\2019\Community\VC\Tools\MSVC\14.29.30133\atlmfc\include\afxwin2.inl

; 161  : 	{ return CWnd::FromHandle(::GetCapture()); }

  002ad	ff d3		 call	 ebx
  002af	50		 push	 eax
  002b0	e8 00 00 00 00	 call	 ?FromHandle@CWnd@@SGPAV1@PAUHWND__@@@Z ; CWnd::FromHandle
; File D:\git\src\IBK\IBK_DRFN\ProjSrc\SrcDrfn\Chart\comparechart\control\GfxOutBarCtrl.cpp

; 1024 : 				if (CWnd::GetCapture() != this) break;

  002b5	3b c6		 cmp	 eax, esi
  002b7	74 b7		 je	 SHORT $LL7@OnLButtonD
  002b9	e9 3b 01 00 00	 jmp	 $ExitLoop4$403
$LN370@OnLButtonD:

; 1101 : 					break;
; 1102 : 
; 1103 : 				case WM_LBUTTONUP:
; 1104 : 					{
; 1105 : 						if (bHigh)
; 1106 : 						{
; 1107 : 							HighlightItem(-1);

  002be	6a 00		 push	 0
  002c0	6a ff		 push	 -1
  002c2	8b ce		 mov	 ecx, esi
  002c4	e8 00 00 00 00	 call	 ?HighlightItem@CGfxOutBarCtrl@@QAEXH_N@Z ; CGfxOutBarCtrl::HighlightItem
; File C:\Program Files (x86)\Microsoft Visual Studio\2019\Community\VC\Tools\MSVC\14.29.30133\atlmfc\include\atltypes.h

; 424  : 	x = (short)LOWORD(dwPoint);

  002c9	8b 4d 84	 mov	 ecx, DWORD PTR _msg$8[ebp+12]
  002cc	0f bf c1	 movsx	 eax, cx
  002cf	89 45 e8	 mov	 DWORD PTR _pt$26[ebp], eax

; 425  : 	y = (short)HIWORD(dwPoint);

  002d2	c1 e9 10	 shr	 ecx, 16			; 00000010H
  002d5	0f bf c1	 movsx	 eax, cx
; File D:\git\src\IBK\IBK_DRFN\ProjSrc\SrcDrfn\Chart\comparechart\control\GfxOutBarCtrl.cpp

; 1111 : 						int idx, ht1 = HitTestEx(pt, idx);

  002d8	8b ce		 mov	 ecx, esi
; File C:\Program Files (x86)\Microsoft Visual Studio\2019\Community\VC\Tools\MSVC\14.29.30133\atlmfc\include\atltypes.h

; 425  : 	y = (short)HIWORD(dwPoint);

  002da	89 45 ec	 mov	 DWORD PTR _pt$26[ebp+4], eax
; File D:\git\src\IBK\IBK_DRFN\ProjSrc\SrcDrfn\Chart\comparechart\control\GfxOutBarCtrl.cpp

; 1111 : 						int idx, ht1 = HitTestEx(pt, idx);

  002dd	8d 45 98	 lea	 eax, DWORD PTR _idx$11[ebp]
  002e0	50		 push	 eax
  002e1	8d 45 e8	 lea	 eax, DWORD PTR _pt$26[ebp]
  002e4	c6 45 9f 00	 mov	 BYTE PTR _bHigh$1$[ebp], 0
  002e8	50		 push	 eax
  002e9	e8 00 00 00 00	 call	 ?HitTestEx@CGfxOutBarCtrl@@QAEHABVCPoint@@AAH@Z ; CGfxOutBarCtrl::HitTestEx

; 1112 : 						if (!bDragging)
; 1113 : 						{
; 1114 : 							if (ht1 == htItem && idx == index) 

  002ee	83 f8 01	 cmp	 eax, 1
  002f1	0f 85 02 01 00
	00		 jne	 $ExitLoop4$403
  002f7	8b 5d 98	 mov	 ebx, DWORD PTR _idx$11[ebp]
  002fa	3b df		 cmp	 ebx, edi
  002fc	0f 85 f7 00 00
	00		 jne	 $ExitLoop4$403

; 1115 : 							{
; 1116 : 								if (iSelAnimTiming > 0 && index != iLastSel && iLastSel >= 0)

  00302	83 be f8 00 00
	00 00		 cmp	 DWORD PTR [esi+248], 0
  00309	7e 1a		 jle	 SHORT $LN44@OnLButtonD
  0030b	8b 86 f4 00 00
	00		 mov	 eax, DWORD PTR [esi+244]
  00311	3b f8		 cmp	 edi, eax
  00313	74 10		 je	 SHORT $LN44@OnLButtonD
  00315	85 c0		 test	 eax, eax
  00317	78 0c		 js	 SHORT $LN44@OnLButtonD

; 1117 : 								{
; 1118 : 									DrawAnimItem(0, 0, iLastSel);

  00319	50		 push	 eax
  0031a	6a 00		 push	 0
  0031c	6a 00		 push	 0
  0031e	8b ce		 mov	 ecx, esi
  00320	e8 00 00 00 00	 call	 ?DrawAnimItem@CGfxOutBarCtrl@@QAEXHHH@Z ; CGfxOutBarCtrl::DrawAnimItem
$LN44@OnLButtonD:

; 1119 : 								}
; 1120 : 
; 1121 : 								if (dwFlags&fSelHighlight && iLastSel >= 0)

  00325	8b 86 00 01 00
	00		 mov	 eax, DWORD PTR [esi+256]
  0032b	a9 00 02 00 00	 test	 eax, 512		; 00000200H
  00330	74 46		 je	 SHORT $LN45@OnLButtonD
  00332	8b 8e f4 00 00
	00		 mov	 ecx, DWORD PTR [esi+244]
  00338	85 c9		 test	 ecx, ecx
  0033a	78 3c		 js	 SHORT $LN45@OnLButtonD

; 1124 : 									GetIconRect(iSelFolder, iLastSel, rc);

  0033c	8d 45 d0	 lea	 eax, DWORD PTR _rc$22[ebp]
  0033f	0f 57 c0	 xorps	 xmm0, xmm0
  00342	50		 push	 eax
  00343	51		 push	 ecx
  00344	ff b6 34 01 00
	00		 push	 DWORD PTR [esi+308]
  0034a	8b ce		 mov	 ecx, esi
; File C:\Program Files (x86)\Microsoft Visual Studio\2019\Community\VC\Tools\MSVC\14.29.30133\atlmfc\include\atltypes.h

; 528  : 	left = 0;

  0034c	0f 11 45 d0	 movups	 XMMWORD PTR _rc$22[ebp], xmm0
; File D:\git\src\IBK\IBK_DRFN\ProjSrc\SrcDrfn\Chart\comparechart\control\GfxOutBarCtrl.cpp

; 1124 : 									GetIconRect(iSelFolder, iLastSel, rc);

  00350	e8 00 00 00 00	 call	 ?GetIconRect@CGfxOutBarCtrl@@QAEXHHAAVCRect@@@Z ; CGfxOutBarCtrl::GetIconRect
; File C:\Program Files (x86)\Microsoft Visual Studio\2019\Community\VC\Tools\MSVC\14.29.30133\atlmfc\include\atltypes.h

; 686  : 	::InflateRect(this, x, y);

  00355	6a 01		 push	 1
  00357	6a 01		 push	 1
  00359	8d 45 d0	 lea	 eax, DWORD PTR _rc$22[ebp]
  0035c	50		 push	 eax
  0035d	ff 15 00 00 00
	00		 call	 DWORD PTR __imp__InflateRect@12
; File C:\Program Files (x86)\Microsoft Visual Studio\2019\Community\VC\Tools\MSVC\14.29.30133\atlmfc\include\afxwin2.inl

; 116  : 	{ ASSERT(::IsWindow(m_hWnd)); ::InvalidateRect(m_hWnd, lpRect, bErase); }

  00363	6a 01		 push	 1
  00365	8d 45 d0	 lea	 eax, DWORD PTR _rc$22[ebp]
  00368	50		 push	 eax
  00369	ff 76 20	 push	 DWORD PTR [esi+32]
  0036c	ff 15 00 00 00
	00		 call	 DWORD PTR __imp__InvalidateRect@12
  00372	8b 86 00 01 00
	00		 mov	 eax, DWORD PTR [esi+256]
$LN45@OnLButtonD:
; File D:\git\src\IBK\IBK_DRFN\ProjSrc\SrcDrfn\Chart\comparechart\control\GfxOutBarCtrl.cpp

; 1129 : 								iLastSel = index;

  00378	89 be f4 00 00
	00		 mov	 DWORD PTR [esi+244], edi

; 1131 : 								if (dwFlags&fSelHighlight && iLastSel >= 0)

  0037e	a9 00 02 00 00	 test	 eax, 512		; 00000200H
  00383	74 3e		 je	 SHORT $LN386@OnLButtonD
  00385	85 ff		 test	 edi, edi
  00387	78 3a		 js	 SHORT $LN386@OnLButtonD

; 1134 : 									GetIconRect(iSelFolder, iLastSel, rc);

  00389	8d 45 d0	 lea	 eax, DWORD PTR _rc$21[ebp]
  0038c	0f 57 c0	 xorps	 xmm0, xmm0
  0038f	50		 push	 eax
  00390	57		 push	 edi
  00391	ff b6 34 01 00
	00		 push	 DWORD PTR [esi+308]
  00397	8b ce		 mov	 ecx, esi
; File C:\Program Files (x86)\Microsoft Visual Studio\2019\Community\VC\Tools\MSVC\14.29.30133\atlmfc\include\atltypes.h

; 528  : 	left = 0;

  00399	0f 11 45 d0	 movups	 XMMWORD PTR _rc$21[ebp], xmm0
; File D:\git\src\IBK\IBK_DRFN\ProjSrc\SrcDrfn\Chart\comparechart\control\GfxOutBarCtrl.cpp

; 1134 : 									GetIconRect(iSelFolder, iLastSel, rc);

  0039d	e8 00 00 00 00	 call	 ?GetIconRect@CGfxOutBarCtrl@@QAEXHHAAVCRect@@@Z ; CGfxOutBarCtrl::GetIconRect
; File C:\Program Files (x86)\Microsoft Visual Studio\2019\Community\VC\Tools\MSVC\14.29.30133\atlmfc\include\atltypes.h

; 686  : 	::InflateRect(this, x, y);

  003a2	6a 01		 push	 1
  003a4	6a 01		 push	 1
  003a6	8d 45 d0	 lea	 eax, DWORD PTR _rc$21[ebp]
  003a9	50		 push	 eax
  003aa	ff 15 00 00 00
	00		 call	 DWORD PTR __imp__InflateRect@12
; File C:\Program Files (x86)\Microsoft Visual Studio\2019\Community\VC\Tools\MSVC\14.29.30133\atlmfc\include\afxwin2.inl

; 116  : 	{ ASSERT(::IsWindow(m_hWnd)); ::InvalidateRect(m_hWnd, lpRect, bErase); }

  003b0	8b 3d 00 00 00
	00		 mov	 edi, DWORD PTR __imp__InvalidateRect@12
  003b6	8d 45 d0	 lea	 eax, DWORD PTR _rc$21[ebp]
  003b9	6a 01		 push	 1
  003bb	50		 push	 eax
  003bc	ff 76 20	 push	 DWORD PTR [esi+32]
  003bf	ff d7		 call	 edi
; File D:\git\src\IBK\IBK_DRFN\ProjSrc\SrcDrfn\Chart\comparechart\control\GfxOutBarCtrl.cpp

; 1131 : 								if (dwFlags&fSelHighlight && iLastSel >= 0)

  003c1	eb 06		 jmp	 SHORT $LN46@OnLButtonD
$LN386@OnLButtonD:
; File C:\Program Files (x86)\Microsoft Visual Studio\2019\Community\VC\Tools\MSVC\14.29.30133\atlmfc\include\afxwin2.inl

; 27   : 	{ return m_hWndOwner != NULL ? CWnd::FromHandle(m_hWndOwner) : GetParent(); }

  003c3	8b 3d 00 00 00
	00		 mov	 edi, DWORD PTR __imp__InvalidateRect@12
$LN46@OnLButtonD:
  003c9	8b 46 5c	 mov	 eax, DWORD PTR [esi+92]
  003cc	85 c0		 test	 eax, eax
  003ce	75 09		 jne	 SHORT $LN143@OnLButtonD

; 213  : 	{ ASSERT(::IsWindow(m_hWnd)); return CWnd::FromHandle(::GetParent(m_hWnd)); }

  003d0	ff 76 20	 push	 DWORD PTR [esi+32]
  003d3	ff 15 00 00 00
	00		 call	 DWORD PTR __imp__GetParent@4
$LN143@OnLButtonD:

; 32   : 	{ ASSERT(::IsWindow(m_hWnd)); return ::SendMessage(m_hWnd, message, wParam, lParam); }

  003d9	50		 push	 eax
  003da	e8 00 00 00 00	 call	 ?FromHandle@CWnd@@SGPAV1@PAUHWND__@@@Z ; CWnd::FromHandle
  003df	53		 push	 ebx
  003e0	6a 01		 push	 1
  003e2	68 c1 08 00 00	 push	 2241			; 000008c1H
  003e7	ff 70 20	 push	 DWORD PTR [eax+32]
  003ea	ff 15 00 00 00
	00		 call	 DWORD PTR __imp__SendMessageA@16

; 114  : 	{ ASSERT(::IsWindow(m_hWnd)); ::InvalidateRect(m_hWnd, NULL, bErase); }

  003f0	6a 01		 push	 1
  003f2	6a 00		 push	 0
  003f4	ff 76 20	 push	 DWORD PTR [esi+32]
  003f7	ff d7		 call	 edi
$ExitLoop4$403:
; File D:\git\src\IBK\IBK_DRFN\ProjSrc\SrcDrfn\Chart\comparechart\control\GfxOutBarCtrl.cpp

; 1192 : 			ReleaseCapture();

  003f9	ff 15 00 00 00
	00		 call	 DWORD PTR __imp__ReleaseCapture@0

; 1193 : 			AfxUnlockTempMaps(FALSE);

  003ff	6a 00		 push	 0
  00401	e8 00 00 00 00	 call	 ?AfxUnlockTempMaps@@YGHH@Z ; AfxUnlockTempMaps

; 1194 : 			if (bDragging) 
; 1195 : 			{
; 1196 : 				Invalidate();
; 1197 : 			}
; 1198 : 		}

  00406	8d 8d 48 ff ff
	ff		 lea	 ecx, DWORD PTR _dc$3[ebp]
  0040c	c7 45 fc ff ff
	ff ff		 mov	 DWORD PTR __$EHRec$[ebp+8], -1
  00413	e8 00 00 00 00	 call	 ??1CClientDC@@UAE@XZ	; CClientDC::~CClientDC
$LN36@OnLButtonD:

; 1199 : 		bPressedHighlight = false;
; 1200 : 		if (bHigh) InvalidateRect(rc, false);

  00418	80 7d 9f 00	 cmp	 BYTE PTR _bHigh$1$[ebp], 0
  0041c	c6 86 28 01 00
	00 00		 mov	 BYTE PTR [esi+296], 0
  00423	0f 84 33 06 00
	00		 je	 $LN78@OnLButtonD
; File C:\Program Files (x86)\Microsoft Visual Studio\2019\Community\VC\Tools\MSVC\14.29.30133\atlmfc\include\afxwin2.inl

; 116  : 	{ ASSERT(::IsWindow(m_hWnd)); ::InvalidateRect(m_hWnd, lpRect, bErase); }

  00429	6a 00		 push	 0
  0042b	8d 45 c0	 lea	 eax, DWORD PTR _rc$16[ebp]
  0042e	50		 push	 eax
  0042f	ff 76 20	 push	 DWORD PTR [esi+32]
  00432	ff 15 00 00 00
	00		 call	 DWORD PTR __imp__InvalidateRect@12
; File D:\git\src\IBK\IBK_DRFN\ProjSrc\SrcDrfn\Chart\comparechart\control\GfxOutBarCtrl.cpp

; 1201 : 	}

  00438	e9 1f 06 00 00	 jmp	 $LN78@OnLButtonD
$LN34@OnLButtonD:

; 1202 : 	else iLastItemHighlighted = -1;

  0043d	c7 86 24 01 00
	00 ff ff ff ff	 mov	 DWORD PTR [esi+292], -1

; 1203 : 
; 1204 : 	if (ht == htDownScroll)

  00447	83 fb 03	 cmp	 ebx, 3
  0044a	0f 85 4a 03 00
	00		 jne	 $LN59@OnLButtonD

; 1205 : 	{
; 1206 : 		bLooping = true;
; 1207 : 		bool bHigh = true;
; 1208 : 
; 1209 : 		if (::GetCapture() == NULL)

  00450	8b 1d 00 00 00
	00		 mov	 ebx, DWORD PTR __imp__GetCapture@0
  00456	c6 86 e4 00 00
	00 01		 mov	 BYTE PTR [esi+228], 1
  0045d	ff d3		 call	 ebx
  0045f	85 c0		 test	 eax, eax
  00461	0f 85 f5 05 00
	00		 jne	 $LN78@OnLButtonD
; File C:\Program Files (x86)\Microsoft Visual Studio\2019\Community\VC\Tools\MSVC\14.29.30133\atlmfc\include\afxwin2.inl

; 163  : 	{ ASSERT(::IsWindow(m_hWnd)); return CWnd::FromHandle(::SetCapture(m_hWnd)); }

  00467	ff 76 20	 push	 DWORD PTR [esi+32]
  0046a	ff 15 00 00 00
	00		 call	 DWORD PTR __imp__SetCapture@4
  00470	50		 push	 eax
  00471	e8 00 00 00 00	 call	 ?FromHandle@CWnd@@SGPAV1@PAUHWND__@@@Z ; CWnd::FromHandle
; File D:\git\src\IBK\IBK_DRFN\ProjSrc\SrcDrfn\Chart\comparechart\control\GfxOutBarCtrl.cpp

; 1213 : 			CClientDC dc(this);

  00476	56		 push	 esi
  00477	8d 8d 48 ff ff
	ff		 lea	 ecx, DWORD PTR _dc$2[ebp]
  0047d	e8 00 00 00 00	 call	 ??0CClientDC@@QAE@PAVCWnd@@@Z ; CClientDC::CClientDC
; File C:\Program Files (x86)\Microsoft Visual Studio\2019\Community\VC\Tools\MSVC\14.29.30133\atlmfc\include\afxwin1.inl

; 512  : 	{ ASSERT(m_hDC != NULL); return ::DrawFrameControl(m_hDC, lpRect, nType, nState); }

  00482	68 01 02 00 00	 push	 513			; 00000201H
  00487	6a 03		 push	 3
; File D:\git\src\IBK\IBK_DRFN\ProjSrc\SrcDrfn\Chart\comparechart\control\GfxOutBarCtrl.cpp

; 1214 : 			dc.DrawFrameControl(rcDownArrow, DFC_SCROLL, DFCS_SCROLLDOWN|DFCS_PUSHED);

  00489	8d be d4 00 00
	00		 lea	 edi, DWORD PTR [esi+212]
  0048f	c7 45 fc 02 00
	00 00		 mov	 DWORD PTR __$EHRec$[ebp+8], 2
; File C:\Program Files (x86)\Microsoft Visual Studio\2019\Community\VC\Tools\MSVC\14.29.30133\atlmfc\include\afxwin1.inl

; 512  : 	{ ASSERT(m_hDC != NULL); return ::DrawFrameControl(m_hDC, lpRect, nType, nState); }

  00496	57		 push	 edi
  00497	ff b5 4c ff ff
	ff		 push	 DWORD PTR _dc$2[ebp+4]
  0049d	ff 15 00 00 00
	00		 call	 DWORD PTR __imp__DrawFrameControl@16
; File C:\Program Files (x86)\Microsoft Visual Studio\2019\Community\VC\Tools\MSVC\14.29.30133\atlmfc\include\afxwin2.inl

; 152  : 	{ ASSERT(::IsWindow(m_hWnd)); return ::SetTimer(m_hWnd, nIDEvent, nElapse,

  004a3	6a 00		 push	 0
  004a5	68 2c 01 00 00	 push	 300			; 0000012cH
  004aa	6a 02		 push	 2
  004ac	ff 76 20	 push	 DWORD PTR [esi+32]
  004af	ff 15 00 00 00
	00		 call	 DWORD PTR __imp__SetTimer@16
; File D:\git\src\IBK\IBK_DRFN\ProjSrc\SrcDrfn\Chart\comparechart\control\GfxOutBarCtrl.cpp

; 1216 : 			AfxLockTempMaps();

  004b5	e8 00 00 00 00	 call	 ?AfxLockTempMaps@@YGXXZ	; AfxLockTempMaps

; 1217 : 			for (;;)
; 1218 : 			{
; 1219 : 				MSG msg;
; 1220 : 				VERIFY(::GetMessage(&msg, NULL, 0, 0));

  004ba	6a 00		 push	 0
  004bc	6a 00		 push	 0
  004be	6a 00		 push	 0
  004c0	8d 85 5c ff ff
	ff		 lea	 eax, DWORD PTR _msg$5[ebp]
  004c6	50		 push	 eax
  004c7	ff 15 00 00 00
	00		 call	 DWORD PTR __imp__GetMessageA@16
; File C:\Program Files (x86)\Microsoft Visual Studio\2019\Community\VC\Tools\MSVC\14.29.30133\atlmfc\include\afxwin2.inl

; 161  : 	{ return CWnd::FromHandle(::GetCapture()); }

  004cd	ff d3		 call	 ebx
  004cf	50		 push	 eax
  004d0	e8 00 00 00 00	 call	 ?FromHandle@CWnd@@SGPAV1@PAUHWND__@@@Z ; CWnd::FromHandle
; File D:\git\src\IBK\IBK_DRFN\ProjSrc\SrcDrfn\Chart\comparechart\control\GfxOutBarCtrl.cpp

; 1222 : 				if (CWnd::GetCapture() != this) break;

  004d5	3b c6		 cmp	 eax, esi
  004d7	0f 85 10 02 00
	00		 jne	 $LN396@OnLButtonD
  004dd	0f 1f 00	 npad	 3
$LL12@OnLButtonD:

; 1223 : 
; 1224 : 				switch (msg.message)

  004e0	8b 85 60 ff ff
	ff		 mov	 eax, DWORD PTR _msg$5[ebp+4]
  004e6	2d 00 01 00 00	 sub	 eax, 256		; 00000100H
  004eb	0f 84 c3 01 00
	00		 je	 $LN74@OnLButtonD
  004f1	83 e8 13	 sub	 eax, 19			; 00000013H
  004f4	0f 84 c6 00 00
	00		 je	 $LN66@OnLButtonD
  004fa	2d ef 00 00 00	 sub	 eax, 239		; 000000efH
  004ff	0f 85 b8 01 00
	00		 jne	 $LN75@OnLButtonD
; File C:\Program Files (x86)\Microsoft Visual Studio\2019\Community\VC\Tools\MSVC\14.29.30133\atlmfc\include\afxwin1.inl

; 512  : 	{ ASSERT(m_hDC != NULL); return ::DrawFrameControl(m_hDC, lpRect, nType, nState); }

  00505	6a 01		 push	 1
  00507	6a 03		 push	 3
  00509	57		 push	 edi
  0050a	ff b5 4c ff ff
	ff		 push	 DWORD PTR _dc$2[ebp+4]
  00510	ff 15 00 00 00
	00		 call	 DWORD PTR __imp__DrawFrameControl@16
; File C:\Program Files (x86)\Microsoft Visual Studio\2019\Community\VC\Tools\MSVC\14.29.30133\atlmfc\include\atltypes.h

; 424  : 	x = (short)LOWORD(dwPoint);

  00516	8b 85 68 ff ff
	ff		 mov	 eax, DWORD PTR _msg$5[ebp+12]
  0051c	0f bf c8	 movsx	 ecx, ax

; 425  : 	y = (short)HIWORD(dwPoint);

  0051f	c1 e8 10	 shr	 eax, 16			; 00000010H
  00522	98		 cwde

; 648  : 	return ::PtInRect(this, point);

  00523	50		 push	 eax
  00524	51		 push	 ecx
  00525	57		 push	 edi
; File D:\git\src\IBK\IBK_DRFN\ProjSrc\SrcDrfn\Chart\comparechart\control\GfxOutBarCtrl.cpp

; 1259 : 						bDownArrow = false;

  00526	c6 86 c1 00 00
	00 00		 mov	 BYTE PTR [esi+193], 0
; File C:\Program Files (x86)\Microsoft Visual Studio\2019\Community\VC\Tools\MSVC\14.29.30133\atlmfc\include\atltypes.h

; 648  : 	return ::PtInRect(this, point);

  0052d	ff 15 00 00 00
	00		 call	 DWORD PTR __imp__PtInRect@12
; File D:\git\src\IBK\IBK_DRFN\ProjSrc\SrcDrfn\Chart\comparechart\control\GfxOutBarCtrl.cpp

; 1261 : 						if (rcDownArrow.PtInRect(pt))

  00533	85 c0		 test	 eax, eax
  00535	0f 84 b2 01 00
	00		 je	 $LN396@OnLButtonD

; 1460 : 	CBarFolder * pbf = (CBarFolder *) arFolder.GetAt(iSelFolder);

  0053b	8b 8e 34 01 00
	00		 mov	 ecx, DWORD PTR [esi+308]
  00541	0f 57 c0	 xorps	 xmm0, xmm0
; File C:\Program Files (x86)\Microsoft Visual Studio\2019\Community\VC\Tools\MSVC\14.29.30133\atlmfc\include\atltypes.h

; 528  : 	left = 0;

  00544	0f 11 45 d0	 movups	 XMMWORD PTR _itrc$20[ebp], xmm0
; File C:\Program Files (x86)\Microsoft Visual Studio\2019\Community\VC\Tools\MSVC\14.29.30133\atlmfc\include\afxcoll.inl

; 203  : 		if( nIndex < 0 || nIndex >= m_nSize )

  00548	85 c9		 test	 ecx, ecx
  0054a	0f 88 31 05 00
	00		 js	 $LN202@OnLButtonD
  00550	3b 8e 0c 01 00
	00		 cmp	 ecx, DWORD PTR [esi+268]
  00556	0f 8d 25 05 00
	00		 jge	 $LN202@OnLButtonD

; 205  : 		return m_pData[nIndex]; }

  0055c	8b 86 08 01 00
	00		 mov	 eax, DWORD PTR [esi+264]
; File D:\git\src\IBK\IBK_DRFN\ProjSrc\SrcDrfn\Chart\comparechart\control\GfxOutBarCtrl.cpp

; 1264 : 							GetItemRect(iSelFolder, GetItemCount() - 1, itrc);

  00562	8d 55 d0	 lea	 edx, DWORD PTR _itrc$20[ebp]
  00565	52		 push	 edx
; File C:\Program Files (x86)\Microsoft Visual Studio\2019\Community\VC\Tools\MSVC\14.29.30133\atlmfc\include\afxcoll.inl

; 205  : 		return m_pData[nIndex]; }

  00566	8b 04 88	 mov	 eax, DWORD PTR [eax+ecx*4]
; File D:\git\src\IBK\IBK_DRFN\ProjSrc\SrcDrfn\Chart\comparechart\control\GfxOutBarCtrl.cpp

; 1461 : 	return 	pbf->GetItemCount();

  00569	8b 40 1c	 mov	 eax, DWORD PTR [eax+28]

; 1264 : 							GetItemRect(iSelFolder, GetItemCount() - 1, itrc);

  0056c	48		 dec	 eax
  0056d	50		 push	 eax
  0056e	51		 push	 ecx
  0056f	8b ce		 mov	 ecx, esi
  00571	e8 00 00 00 00	 call	 ?GetItemRect@CGfxOutBarCtrl@@QAEXHHAAVCRect@@@Z ; CGfxOutBarCtrl::GetItemRect
; File C:\Program Files (x86)\Microsoft Visual Studio\2019\Community\VC\Tools\MSVC\14.29.30133\atlmfc\include\afxwin2.inl

; 86   : 	{ ASSERT(::IsWindow(m_hWnd)); ::GetClientRect(m_hWnd, lpRect); }

  00576	8d 45 e0	 lea	 eax, DWORD PTR _crc$24[ebp]
  00579	0f 57 c0	 xorps	 xmm0, xmm0
  0057c	50		 push	 eax
  0057d	ff 76 20	 push	 DWORD PTR [esi+32]
; File C:\Program Files (x86)\Microsoft Visual Studio\2019\Community\VC\Tools\MSVC\14.29.30133\atlmfc\include\atltypes.h

; 528  : 	left = 0;

  00580	0f 11 45 e0	 movups	 XMMWORD PTR _crc$24[ebp], xmm0
; File C:\Program Files (x86)\Microsoft Visual Studio\2019\Community\VC\Tools\MSVC\14.29.30133\atlmfc\include\afxwin2.inl

; 86   : 	{ ASSERT(::IsWindow(m_hWnd)); ::GetClientRect(m_hWnd, lpRect); }

  00584	ff 15 00 00 00
	00		 call	 DWORD PTR __imp__GetClientRect@8
; File D:\git\src\IBK\IBK_DRFN\ProjSrc\SrcDrfn\Chart\comparechart\control\GfxOutBarCtrl.cpp

; 746  : 	if (arFolder.GetSize() > 0)

  0058a	8b be 0c 01 00
	00		 mov	 edi, DWORD PTR [esi+268]
  00590	85 ff		 test	 edi, edi
  00592	0f 8e da 01 00
	00		 jle	 $LN384@OnLButtonD

; 747  : 	{
; 748  : 		int max = arFolder.GetSize();
; 749  : 		rect.top += iFolderHeight * (iSelFolder + 1); + 1;//+ 2;

  00598	8b 8e 34 01 00
	00		 mov	 ecx, DWORD PTR [esi+308]

; 750  : 		rect.bottom -= (max - iSelFolder - 1)*iFolderHeight;

  0059e	2b f9		 sub	 edi, ecx
  005a0	8b 96 a0 00 00
	00		 mov	 edx, DWORD PTR [esi+160]
  005a6	4f		 dec	 edi
  005a7	0f af fa	 imul	 edi, edx
  005aa	8d 41 01	 lea	 eax, DWORD PTR [ecx+1]
  005ad	0f af c2	 imul	 eax, edx
  005b0	01 45 e4	 add	 DWORD PTR _crc$24[ebp+4], eax
  005b3	8b 45 ec	 mov	 eax, DWORD PTR _crc$24[ebp+12]
  005b6	2b c7		 sub	 eax, edi
  005b8	89 45 ec	 mov	 DWORD PTR _crc$24[ebp+12], eax
  005bb	e9 b5 01 00 00	 jmp	 $LN377@OnLButtonD
$LN66@OnLButtonD:

; 1270 : 								InvalidateRect(crc, true);
; 1271 : 							}
; 1272 : 						}
; 1273 : 					}
; 1274 : 					goto ExitLoop3;
; 1275 : 
; 1276 : 
; 1277 : 				case WM_TIMER:
; 1278 : 					{
; 1279 : 						if (msg.wParam == 2)

  005c0	83 bd 64 ff ff
	ff 02		 cmp	 DWORD PTR _msg$5[ebp+8], 2
  005c7	0f 85 fd 00 00
	00		 jne	 $LN15@OnLButtonD
; File C:\Program Files (x86)\Microsoft Visual Studio\2019\Community\VC\Tools\MSVC\14.29.30133\atlmfc\include\atltypes.h

; 414  : 	*(POINT*)this = initPt;

  005cd	8b 85 70 ff ff
	ff		 mov	 eax, DWORD PTR _msg$5[ebp+20]
  005d3	8b 8d 74 ff ff
	ff		 mov	 ecx, DWORD PTR _msg$5[ebp+24]
  005d9	89 45 94	 mov	 DWORD PTR _pt$10[ebp], eax
; File C:\Program Files (x86)\Microsoft Visual Studio\2019\Community\VC\Tools\MSVC\14.29.30133\atlmfc\include\afxwin2.inl

; 94   : 	{ ASSERT(::IsWindow(m_hWnd)); ::ScreenToClient(m_hWnd, lpPoint); }

  005dc	8d 45 94	 lea	 eax, DWORD PTR _pt$10[ebp]
  005df	50		 push	 eax
  005e0	ff 76 20	 push	 DWORD PTR [esi+32]
; File C:\Program Files (x86)\Microsoft Visual Studio\2019\Community\VC\Tools\MSVC\14.29.30133\atlmfc\include\atltypes.h

; 414  : 	*(POINT*)this = initPt;

  005e3	89 4d 98	 mov	 DWORD PTR _pt$10[ebp+4], ecx
; File C:\Program Files (x86)\Microsoft Visual Studio\2019\Community\VC\Tools\MSVC\14.29.30133\atlmfc\include\afxwin2.inl

; 94   : 	{ ASSERT(::IsWindow(m_hWnd)); ::ScreenToClient(m_hWnd, lpPoint); }

  005e6	ff 15 00 00 00
	00		 call	 DWORD PTR __imp__ScreenToClient@8
; File C:\Program Files (x86)\Microsoft Visual Studio\2019\Community\VC\Tools\MSVC\14.29.30133\atlmfc\include\atltypes.h

; 648  : 	return ::PtInRect(this, point);

  005ec	ff 75 98	 push	 DWORD PTR _pt$10[ebp+4]
  005ef	ff 75 94	 push	 DWORD PTR _pt$10[ebp]
  005f2	57		 push	 edi
  005f3	ff 15 00 00 00
	00		 call	 DWORD PTR __imp__PtInRect@12
; File D:\git\src\IBK\IBK_DRFN\ProjSrc\SrcDrfn\Chart\comparechart\control\GfxOutBarCtrl.cpp

; 1285 : 								if (rcDownArrow.PtInRect(pt))

  005f9	85 c0		 test	 eax, eax
  005fb	0f 84 aa 00 00
	00		 je	 $LN69@OnLButtonD

; 1460 : 	CBarFolder * pbf = (CBarFolder *) arFolder.GetAt(iSelFolder);

  00601	8b 8e 34 01 00
	00		 mov	 ecx, DWORD PTR [esi+308]
  00607	0f 57 c0	 xorps	 xmm0, xmm0

; 1286 : 								{
; 1287 : 									bDownPressed = true;

  0060a	c6 86 c3 00 00
	00 01		 mov	 BYTE PTR [esi+195], 1
; File C:\Program Files (x86)\Microsoft Visual Studio\2019\Community\VC\Tools\MSVC\14.29.30133\atlmfc\include\atltypes.h

; 528  : 	left = 0;

  00611	0f 11 45 d0	 movups	 XMMWORD PTR _itrc$19[ebp], xmm0
; File C:\Program Files (x86)\Microsoft Visual Studio\2019\Community\VC\Tools\MSVC\14.29.30133\atlmfc\include\afxcoll.inl

; 203  : 		if( nIndex < 0 || nIndex >= m_nSize )

  00615	85 c9		 test	 ecx, ecx
  00617	0f 88 64 04 00
	00		 js	 $LN202@OnLButtonD
  0061d	3b 8e 0c 01 00
	00		 cmp	 ecx, DWORD PTR [esi+268]
  00623	0f 8d 58 04 00
	00		 jge	 $LN202@OnLButtonD

; 205  : 		return m_pData[nIndex]; }

  00629	8b 86 08 01 00
	00		 mov	 eax, DWORD PTR [esi+264]
; File D:\git\src\IBK\IBK_DRFN\ProjSrc\SrcDrfn\Chart\comparechart\control\GfxOutBarCtrl.cpp

; 1289 : 									GetItemRect(iSelFolder, GetItemCount() - 1, itrc);

  0062f	8d 55 d0	 lea	 edx, DWORD PTR _itrc$19[ebp]
  00632	52		 push	 edx
; File C:\Program Files (x86)\Microsoft Visual Studio\2019\Community\VC\Tools\MSVC\14.29.30133\atlmfc\include\afxcoll.inl

; 205  : 		return m_pData[nIndex]; }

  00633	8b 04 88	 mov	 eax, DWORD PTR [eax+ecx*4]
; File D:\git\src\IBK\IBK_DRFN\ProjSrc\SrcDrfn\Chart\comparechart\control\GfxOutBarCtrl.cpp

; 1461 : 	return 	pbf->GetItemCount();

  00636	8b 40 1c	 mov	 eax, DWORD PTR [eax+28]

; 1289 : 									GetItemRect(iSelFolder, GetItemCount() - 1, itrc);

  00639	48		 dec	 eax
  0063a	50		 push	 eax
  0063b	51		 push	 ecx
  0063c	8b ce		 mov	 ecx, esi
  0063e	e8 00 00 00 00	 call	 ?GetItemRect@CGfxOutBarCtrl@@QAEXHHAAVCRect@@@Z ; CGfxOutBarCtrl::GetItemRect
; File C:\Program Files (x86)\Microsoft Visual Studio\2019\Community\VC\Tools\MSVC\14.29.30133\atlmfc\include\afxwin2.inl

; 86   : 	{ ASSERT(::IsWindow(m_hWnd)); ::GetClientRect(m_hWnd, lpRect); }

  00643	8d 45 e0	 lea	 eax, DWORD PTR _crc$23[ebp]
  00646	0f 57 c0	 xorps	 xmm0, xmm0
  00649	50		 push	 eax
  0064a	ff 76 20	 push	 DWORD PTR [esi+32]
; File C:\Program Files (x86)\Microsoft Visual Studio\2019\Community\VC\Tools\MSVC\14.29.30133\atlmfc\include\atltypes.h

; 528  : 	left = 0;

  0064d	0f 11 45 e0	 movups	 XMMWORD PTR _crc$23[ebp], xmm0
; File C:\Program Files (x86)\Microsoft Visual Studio\2019\Community\VC\Tools\MSVC\14.29.30133\atlmfc\include\afxwin2.inl

; 86   : 	{ ASSERT(::IsWindow(m_hWnd)); ::GetClientRect(m_hWnd, lpRect); }

  00651	ff 15 00 00 00
	00		 call	 DWORD PTR __imp__GetClientRect@8
; File D:\git\src\IBK\IBK_DRFN\ProjSrc\SrcDrfn\Chart\comparechart\control\GfxOutBarCtrl.cpp

; 746  : 	if (arFolder.GetSize() > 0)

  00657	8b be 0c 01 00
	00		 mov	 edi, DWORD PTR [esi+268]
  0065d	85 ff		 test	 edi, edi
  0065f	7e 25		 jle	 SHORT $LN383@OnLButtonD

; 747  : 	{
; 748  : 		int max = arFolder.GetSize();
; 749  : 		rect.top += iFolderHeight * (iSelFolder + 1); + 1;//+ 2;

  00661	8b 8e 34 01 00
	00		 mov	 ecx, DWORD PTR [esi+308]

; 750  : 		rect.bottom -= (max - iSelFolder - 1)*iFolderHeight;

  00667	2b f9		 sub	 edi, ecx
  00669	8b 96 a0 00 00
	00		 mov	 edx, DWORD PTR [esi+160]
  0066f	4f		 dec	 edi
  00670	0f af fa	 imul	 edi, edx
  00673	8d 41 01	 lea	 eax, DWORD PTR [ecx+1]
  00676	0f af c2	 imul	 eax, edx
  00679	01 45 e4	 add	 DWORD PTR _crc$23[ebp+4], eax
  0067c	8b 45 ec	 mov	 eax, DWORD PTR _crc$23[ebp+12]
  0067f	2b c7		 sub	 eax, edi
  00681	89 45 ec	 mov	 DWORD PTR _crc$23[ebp+12], eax
  00684	eb 03		 jmp	 SHORT $LN376@OnLButtonD
$LN383@OnLButtonD:

; 746  : 	if (arFolder.GetSize() > 0)

  00686	8b 45 ec	 mov	 eax, DWORD PTR _crc$23[ebp+12]
$LN376@OnLButtonD:

; 1290 : 									CRect crc;
; 1291 : 									GetInsideRect(crc);
; 1292 : 									if (itrc.bottom > crc.bottom)

  00689	39 45 dc	 cmp	 DWORD PTR _itrc$19[ebp+12], eax
  0068c	7e 5f		 jle	 SHORT $LN396@OnLButtonD

; 1293 : 									{
; 1294 : 										iFirstItem ++;

  0068e	ff 86 20 01 00
	00		 inc	 DWORD PTR [esi+288]
; File C:\Program Files (x86)\Microsoft Visual Studio\2019\Community\VC\Tools\MSVC\14.29.30133\atlmfc\include\afxwin2.inl

; 116  : 	{ ASSERT(::IsWindow(m_hWnd)); ::InvalidateRect(m_hWnd, lpRect, bErase); }

  00694	8d 45 e0	 lea	 eax, DWORD PTR _crc$23[ebp]
  00697	6a 01		 push	 1
  00699	50		 push	 eax
  0069a	ff 76 20	 push	 DWORD PTR [esi+32]
  0069d	ff 15 00 00 00
	00		 call	 DWORD PTR __imp__InvalidateRect@12
; File D:\git\src\IBK\IBK_DRFN\ProjSrc\SrcDrfn\Chart\comparechart\control\GfxOutBarCtrl.cpp

; 1298 : 								}

  006a3	8d be d4 00 00
	00		 lea	 edi, DWORD PTR [esi+212]
  006a9	eb 1f		 jmp	 SHORT $LN15@OnLButtonD
$LN69@OnLButtonD:

; 1299 : 								else bDownPressed = false;

  006ab	c6 86 c3 00 00
	00 00		 mov	 BYTE PTR [esi+195], 0

; 1300 : 							}
; 1301 : 						}
; 1302 : 						break;

  006b2	eb 16		 jmp	 SHORT $LN15@OnLButtonD
$LN74@OnLButtonD:

; 1303 : 					}
; 1304 : 
; 1305 : 				case WM_KEYDOWN:	
; 1306 : 					if (msg.wParam != VK_ESCAPE) 

  006b4	83 bd 64 ff ff
	ff 1b		 cmp	 DWORD PTR _msg$5[ebp+8], 27 ; 0000001bH
  006bb	75 0d		 jne	 SHORT $LN15@OnLButtonD
$LN75@OnLButtonD:

; 1307 : 						break;
; 1308 : 
; 1309 : 				default:
; 1310 : 					DispatchMessage(&msg);

  006bd	8d 85 5c ff ff
	ff		 lea	 eax, DWORD PTR _msg$5[ebp]
  006c3	50		 push	 eax
  006c4	ff 15 00 00 00
	00		 call	 DWORD PTR __imp__DispatchMessageA@4
$LN15@OnLButtonD:

; 1217 : 			for (;;)
; 1218 : 			{
; 1219 : 				MSG msg;
; 1220 : 				VERIFY(::GetMessage(&msg, NULL, 0, 0));

  006ca	6a 00		 push	 0
  006cc	6a 00		 push	 0
  006ce	6a 00		 push	 0
  006d0	8d 85 5c ff ff
	ff		 lea	 eax, DWORD PTR _msg$5[ebp]
  006d6	50		 push	 eax
  006d7	ff 15 00 00 00
	00		 call	 DWORD PTR __imp__GetMessageA@16
; File C:\Program Files (x86)\Microsoft Visual Studio\2019\Community\VC\Tools\MSVC\14.29.30133\atlmfc\include\afxwin2.inl

; 161  : 	{ return CWnd::FromHandle(::GetCapture()); }

  006dd	ff d3		 call	 ebx
  006df	50		 push	 eax
  006e0	e8 00 00 00 00	 call	 ?FromHandle@CWnd@@SGPAV1@PAUHWND__@@@Z ; CWnd::FromHandle
; File D:\git\src\IBK\IBK_DRFN\ProjSrc\SrcDrfn\Chart\comparechart\control\GfxOutBarCtrl.cpp

; 1222 : 				if (CWnd::GetCapture() != this) break;

  006e5	3b c6		 cmp	 eax, esi
  006e7	0f 84 f3 fd ff
	ff		 je	 $LL12@OnLButtonD
$LN396@OnLButtonD:
; File C:\Program Files (x86)\Microsoft Visual Studio\2019\Community\VC\Tools\MSVC\14.29.30133\atlmfc\include\afxwin2.inl

; 155  : 	{ ASSERT(::IsWindow(m_hWnd)); return ::KillTimer(m_hWnd, nIDEvent); }

  006ed	8b 1d 00 00 00
	00		 mov	 ebx, DWORD PTR __imp__InvalidateRect@12
$ExitLoop3$404:
  006f3	6a 02		 push	 2
  006f5	ff 76 20	 push	 DWORD PTR [esi+32]
  006f8	ff 15 00 00 00
	00		 call	 DWORD PTR __imp__KillTimer@8
; File D:\git\src\IBK\IBK_DRFN\ProjSrc\SrcDrfn\Chart\comparechart\control\GfxOutBarCtrl.cpp

; 1317 : 			ReleaseCapture();

  006fe	ff 15 00 00 00
	00		 call	 DWORD PTR __imp__ReleaseCapture@0

; 1318 : 			AfxUnlockTempMaps(FALSE);

  00704	6a 00		 push	 0
  00706	e8 00 00 00 00	 call	 ?AfxUnlockTempMaps@@YGHH@Z ; AfxUnlockTempMaps
; File C:\Program Files (x86)\Microsoft Visual Studio\2019\Community\VC\Tools\MSVC\14.29.30133\atlmfc\include\afxwin2.inl

; 86   : 	{ ASSERT(::IsWindow(m_hWnd)); ::GetClientRect(m_hWnd, lpRect); }

  0070b	8d 45 c0	 lea	 eax, DWORD PTR _crc$15[ebp]
; File D:\git\src\IBK\IBK_DRFN\ProjSrc\SrcDrfn\Chart\comparechart\control\GfxOutBarCtrl.cpp

; 1319 : 			bLooping = false;

  0070e	c6 86 e4 00 00
	00 00		 mov	 BYTE PTR [esi+228], 0
; File C:\Program Files (x86)\Microsoft Visual Studio\2019\Community\VC\Tools\MSVC\14.29.30133\atlmfc\include\afxwin2.inl

; 86   : 	{ ASSERT(::IsWindow(m_hWnd)); ::GetClientRect(m_hWnd, lpRect); }

  00715	50		 push	 eax
  00716	ff 76 20	 push	 DWORD PTR [esi+32]
  00719	0f 57 c0	 xorps	 xmm0, xmm0
; File D:\git\src\IBK\IBK_DRFN\ProjSrc\SrcDrfn\Chart\comparechart\control\GfxOutBarCtrl.cpp

; 1320 : 			bDownPressed = false;

  0071c	c6 86 c3 00 00
	00 00		 mov	 BYTE PTR [esi+195], 0

; 1321 : 			bDownArrow = false;

  00723	c6 86 c1 00 00
	00 00		 mov	 BYTE PTR [esi+193], 0
; File C:\Program Files (x86)\Microsoft Visual Studio\2019\Community\VC\Tools\MSVC\14.29.30133\atlmfc\include\atltypes.h

; 528  : 	left = 0;

  0072a	0f 11 45 c0	 movups	 XMMWORD PTR _crc$15[ebp], xmm0
; File C:\Program Files (x86)\Microsoft Visual Studio\2019\Community\VC\Tools\MSVC\14.29.30133\atlmfc\include\afxwin2.inl

; 86   : 	{ ASSERT(::IsWindow(m_hWnd)); ::GetClientRect(m_hWnd, lpRect); }

  0072e	ff 15 00 00 00
	00		 call	 DWORD PTR __imp__GetClientRect@8
; File D:\git\src\IBK\IBK_DRFN\ProjSrc\SrcDrfn\Chart\comparechart\control\GfxOutBarCtrl.cpp

; 746  : 	if (arFolder.GetSize() > 0)

  00734	8b be 0c 01 00
	00		 mov	 edi, DWORD PTR [esi+268]
  0073a	85 ff		 test	 edi, edi
  0073c	7e 1e		 jle	 SHORT $LN243@OnLButtonD

; 747  : 	{
; 748  : 		int max = arFolder.GetSize();
; 749  : 		rect.top += iFolderHeight * (iSelFolder + 1); + 1;//+ 2;

  0073e	8b 8e 34 01 00
	00		 mov	 ecx, DWORD PTR [esi+308]

; 750  : 		rect.bottom -= (max - iSelFolder - 1)*iFolderHeight;

  00744	2b f9		 sub	 edi, ecx
  00746	8b 96 a0 00 00
	00		 mov	 edx, DWORD PTR [esi+160]
  0074c	4f		 dec	 edi
  0074d	0f af fa	 imul	 edi, edx
  00750	8d 41 01	 lea	 eax, DWORD PTR [ecx+1]
  00753	0f af c2	 imul	 eax, edx
  00756	01 45 c4	 add	 DWORD PTR _crc$15[ebp+4], eax
  00759	29 7d cc	 sub	 DWORD PTR _crc$15[ebp+12], edi
$LN243@OnLButtonD:
; File C:\Program Files (x86)\Microsoft Visual Studio\2019\Community\VC\Tools\MSVC\14.29.30133\atlmfc\include\afxwin2.inl

; 116  : 	{ ASSERT(::IsWindow(m_hWnd)); ::InvalidateRect(m_hWnd, lpRect, bErase); }

  0075c	6a 01		 push	 1
  0075e	8d 45 c0	 lea	 eax, DWORD PTR _crc$15[ebp]
  00761	50		 push	 eax
  00762	ff 76 20	 push	 DWORD PTR [esi+32]
  00765	ff d3		 call	 ebx
; File D:\git\src\IBK\IBK_DRFN\ProjSrc\SrcDrfn\Chart\comparechart\control\GfxOutBarCtrl.cpp

; 1325 : 		}

  00767	8d 8d 48 ff ff
	ff		 lea	 ecx, DWORD PTR _dc$2[ebp]
  0076d	e9 de 02 00 00	 jmp	 $LN399@OnLButtonD
$LN384@OnLButtonD:

; 746  : 	if (arFolder.GetSize() > 0)

  00772	8b 45 ec	 mov	 eax, DWORD PTR _crc$24[ebp+12]
$LN377@OnLButtonD:

; 1265 : 							CRect crc;
; 1266 : 							GetInsideRect(crc);
; 1267 : 							if (itrc.bottom > crc.bottom)

  00775	8b 1d 00 00 00
	00		 mov	 ebx, DWORD PTR __imp__InvalidateRect@12
  0077b	39 45 dc	 cmp	 DWORD PTR _itrc$20[ebp+12], eax
  0077e	0f 8e 6f ff ff
	ff		 jle	 $ExitLoop3$404

; 1268 : 							{
; 1269 : 								iFirstItem ++;

  00784	ff 86 20 01 00
	00		 inc	 DWORD PTR [esi+288]
; File C:\Program Files (x86)\Microsoft Visual Studio\2019\Community\VC\Tools\MSVC\14.29.30133\atlmfc\include\afxwin2.inl

; 116  : 	{ ASSERT(::IsWindow(m_hWnd)); ::InvalidateRect(m_hWnd, lpRect, bErase); }

  0078a	8d 45 e0	 lea	 eax, DWORD PTR _crc$24[ebp]
  0078d	6a 01		 push	 1
  0078f	50		 push	 eax
  00790	ff 76 20	 push	 DWORD PTR [esi+32]
  00793	ff d3		 call	 ebx
  00795	e9 59 ff ff ff	 jmp	 $ExitLoop3$404
$LN59@OnLButtonD:
; File D:\git\src\IBK\IBK_DRFN\ProjSrc\SrcDrfn\Chart\comparechart\control\GfxOutBarCtrl.cpp

; 1328 : 	if (ht == htUpScroll)

  0079a	83 fb 02	 cmp	 ebx, 2
  0079d	0f 85 b9 02 00
	00		 jne	 $LN78@OnLButtonD

; 1329 : 	{
; 1330 : 		bLooping = true;
; 1331 : 		bool bHigh = true;
; 1332 : 
; 1333 : 		if (::GetCapture() == NULL)

  007a3	8b 1d 00 00 00
	00		 mov	 ebx, DWORD PTR __imp__GetCapture@0
  007a9	c6 86 e4 00 00
	00 01		 mov	 BYTE PTR [esi+228], 1
  007b0	ff d3		 call	 ebx
  007b2	85 c0		 test	 eax, eax
  007b4	0f 85 a2 02 00
	00		 jne	 $LN78@OnLButtonD
; File C:\Program Files (x86)\Microsoft Visual Studio\2019\Community\VC\Tools\MSVC\14.29.30133\atlmfc\include\afxwin2.inl

; 163  : 	{ ASSERT(::IsWindow(m_hWnd)); return CWnd::FromHandle(::SetCapture(m_hWnd)); }

  007ba	ff 76 20	 push	 DWORD PTR [esi+32]
  007bd	ff 15 00 00 00
	00		 call	 DWORD PTR __imp__SetCapture@4
  007c3	50		 push	 eax
  007c4	e8 00 00 00 00	 call	 ?FromHandle@CWnd@@SGPAV1@PAUHWND__@@@Z ; CWnd::FromHandle
; File D:\git\src\IBK\IBK_DRFN\ProjSrc\SrcDrfn\Chart\comparechart\control\GfxOutBarCtrl.cpp

; 1337 : 			CClientDC dc(this);

  007c9	56		 push	 esi
  007ca	8d 8d 64 ff ff
	ff		 lea	 ecx, DWORD PTR _dc$6[ebp]
  007d0	e8 00 00 00 00	 call	 ??0CClientDC@@QAE@PAVCWnd@@@Z ; CClientDC::CClientDC
; File C:\Program Files (x86)\Microsoft Visual Studio\2019\Community\VC\Tools\MSVC\14.29.30133\atlmfc\include\afxwin1.inl

; 512  : 	{ ASSERT(m_hDC != NULL); return ::DrawFrameControl(m_hDC, lpRect, nType, nState); }

  007d5	68 00 02 00 00	 push	 512			; 00000200H
  007da	6a 03		 push	 3
; File D:\git\src\IBK\IBK_DRFN\ProjSrc\SrcDrfn\Chart\comparechart\control\GfxOutBarCtrl.cpp

; 1338 : 			dc.DrawFrameControl(rcUpArrow, DFC_SCROLL, DFCS_SCROLLUP|DFCS_PUSHED);

  007dc	8d be c4 00 00
	00		 lea	 edi, DWORD PTR [esi+196]
  007e2	c7 45 fc 03 00
	00 00		 mov	 DWORD PTR __$EHRec$[ebp+8], 3
; File C:\Program Files (x86)\Microsoft Visual Studio\2019\Community\VC\Tools\MSVC\14.29.30133\atlmfc\include\afxwin1.inl

; 512  : 	{ ASSERT(m_hDC != NULL); return ::DrawFrameControl(m_hDC, lpRect, nType, nState); }

  007e9	57		 push	 edi
  007ea	ff b5 68 ff ff
	ff		 push	 DWORD PTR _dc$6[ebp+4]
  007f0	ff 15 00 00 00
	00		 call	 DWORD PTR __imp__DrawFrameControl@16
; File C:\Program Files (x86)\Microsoft Visual Studio\2019\Community\VC\Tools\MSVC\14.29.30133\atlmfc\include\afxwin2.inl

; 152  : 	{ ASSERT(::IsWindow(m_hWnd)); return ::SetTimer(m_hWnd, nIDEvent, nElapse,

  007f6	6a 00		 push	 0
  007f8	68 2c 01 00 00	 push	 300			; 0000012cH
  007fd	6a 02		 push	 2
  007ff	ff 76 20	 push	 DWORD PTR [esi+32]
  00802	ff 15 00 00 00
	00		 call	 DWORD PTR __imp__SetTimer@16
; File D:\git\src\IBK\IBK_DRFN\ProjSrc\SrcDrfn\Chart\comparechart\control\GfxOutBarCtrl.cpp

; 1340 : 			AfxLockTempMaps();

  00808	e8 00 00 00 00	 call	 ?AfxLockTempMaps@@YGXXZ	; AfxLockTempMaps

; 1341 : 			for (;;)
; 1342 : 			{
; 1343 : 				MSG msg;
; 1344 : 				VERIFY(::GetMessage(&msg, NULL, 0, 0));

  0080d	6a 00		 push	 0
  0080f	6a 00		 push	 0
  00811	6a 00		 push	 0
  00813	8d 85 78 ff ff
	ff		 lea	 eax, DWORD PTR _msg$7[ebp]
  00819	50		 push	 eax
  0081a	ff 15 00 00 00
	00		 call	 DWORD PTR __imp__GetMessageA@16
; File C:\Program Files (x86)\Microsoft Visual Studio\2019\Community\VC\Tools\MSVC\14.29.30133\atlmfc\include\afxwin2.inl

; 161  : 	{ return CWnd::FromHandle(::GetCapture()); }

  00820	ff d3		 call	 ebx
  00822	50		 push	 eax
  00823	e8 00 00 00 00	 call	 ?FromHandle@CWnd@@SGPAV1@PAUHWND__@@@Z ; CWnd::FromHandle
; File D:\git\src\IBK\IBK_DRFN\ProjSrc\SrcDrfn\Chart\comparechart\control\GfxOutBarCtrl.cpp

; 1346 : 				if (CWnd::GetCapture() != this) break;

  00828	3b c6		 cmp	 eax, esi
  0082a	0f 85 a0 01 00
	00		 jne	 $LN391@OnLButtonD
$LL17@OnLButtonD:

; 1347 : 
; 1348 : 				switch (msg.message)

  00830	8b 85 7c ff ff
	ff		 mov	 eax, DWORD PTR _msg$7[ebp+4]
  00836	2d 00 01 00 00	 sub	 eax, 256		; 00000100H
  0083b	0f 84 59 01 00
	00		 je	 $LN93@OnLButtonD
  00841	83 e8 13	 sub	 eax, 19			; 00000013H
  00844	0f 84 a4 00 00
	00		 je	 $LN85@OnLButtonD
  0084a	2d ef 00 00 00	 sub	 eax, 239		; 000000efH
  0084f	0f 85 4b 01 00
	00		 jne	 $LN94@OnLButtonD
; File C:\Program Files (x86)\Microsoft Visual Studio\2019\Community\VC\Tools\MSVC\14.29.30133\atlmfc\include\afxwin1.inl

; 512  : 	{ ASSERT(m_hDC != NULL); return ::DrawFrameControl(m_hDC, lpRect, nType, nState); }

  00855	50		 push	 eax
  00856	6a 03		 push	 3
  00858	57		 push	 edi
  00859	ff b5 68 ff ff
	ff		 push	 DWORD PTR _dc$6[ebp+4]
  0085f	ff 15 00 00 00
	00		 call	 DWORD PTR __imp__DrawFrameControl@16
; File C:\Program Files (x86)\Microsoft Visual Studio\2019\Community\VC\Tools\MSVC\14.29.30133\atlmfc\include\atltypes.h

; 424  : 	x = (short)LOWORD(dwPoint);

  00865	8b 45 84	 mov	 eax, DWORD PTR _msg$7[ebp+12]
  00868	0f bf c8	 movsx	 ecx, ax

; 425  : 	y = (short)HIWORD(dwPoint);

  0086b	c1 e8 10	 shr	 eax, 16			; 00000010H
  0086e	98		 cwde

; 648  : 	return ::PtInRect(this, point);

  0086f	50		 push	 eax
  00870	51		 push	 ecx
  00871	57		 push	 edi
; File D:\git\src\IBK\IBK_DRFN\ProjSrc\SrcDrfn\Chart\comparechart\control\GfxOutBarCtrl.cpp

; 1383 : 						bUpArrow = false;

  00872	c6 86 c0 00 00
	00 00		 mov	 BYTE PTR [esi+192], 0
; File C:\Program Files (x86)\Microsoft Visual Studio\2019\Community\VC\Tools\MSVC\14.29.30133\atlmfc\include\atltypes.h

; 648  : 	return ::PtInRect(this, point);

  00879	ff 15 00 00 00
	00		 call	 DWORD PTR __imp__PtInRect@12
; File D:\git\src\IBK\IBK_DRFN\ProjSrc\SrcDrfn\Chart\comparechart\control\GfxOutBarCtrl.cpp

; 1385 : 						if (rcUpArrow.PtInRect(pt))

  0087f	85 c0		 test	 eax, eax
  00881	0f 84 49 01 00
	00		 je	 $LN391@OnLButtonD

; 1386 : 						{
; 1387 : 							if (iFirstItem > 0 ) 

  00887	8b 86 20 01 00
	00		 mov	 eax, DWORD PTR [esi+288]
  0088d	85 c0		 test	 eax, eax
  0088f	0f 8e 3b 01 00
	00		 jle	 $LN391@OnLButtonD

; 1388 : 							{
; 1389 : 								iFirstItem --;

  00895	48		 dec	 eax
  00896	0f 57 c0	 xorps	 xmm0, xmm0
  00899	89 86 20 01 00
	00		 mov	 DWORD PTR [esi+288], eax
; File C:\Program Files (x86)\Microsoft Visual Studio\2019\Community\VC\Tools\MSVC\14.29.30133\atlmfc\include\afxwin2.inl

; 86   : 	{ ASSERT(::IsWindow(m_hWnd)); ::GetClientRect(m_hWnd, lpRect); }

  0089f	8d 45 c0	 lea	 eax, DWORD PTR _crc$14[ebp]
  008a2	50		 push	 eax
  008a3	ff 76 20	 push	 DWORD PTR [esi+32]
; File C:\Program Files (x86)\Microsoft Visual Studio\2019\Community\VC\Tools\MSVC\14.29.30133\atlmfc\include\atltypes.h

; 528  : 	left = 0;

  008a6	0f 11 45 c0	 movups	 XMMWORD PTR _crc$14[ebp], xmm0
; File C:\Program Files (x86)\Microsoft Visual Studio\2019\Community\VC\Tools\MSVC\14.29.30133\atlmfc\include\afxwin2.inl

; 86   : 	{ ASSERT(::IsWindow(m_hWnd)); ::GetClientRect(m_hWnd, lpRect); }

  008aa	ff 15 00 00 00
	00		 call	 DWORD PTR __imp__GetClientRect@8
; File D:\git\src\IBK\IBK_DRFN\ProjSrc\SrcDrfn\Chart\comparechart\control\GfxOutBarCtrl.cpp

; 746  : 	if (arFolder.GetSize() > 0)

  008b0	8b be 0c 01 00
	00		 mov	 edi, DWORD PTR [esi+268]
  008b6	85 ff		 test	 edi, edi
  008b8	7e 1e		 jle	 SHORT $LN266@OnLButtonD

; 747  : 	{
; 748  : 		int max = arFolder.GetSize();
; 749  : 		rect.top += iFolderHeight * (iSelFolder + 1); + 1;//+ 2;

  008ba	8b 8e 34 01 00
	00		 mov	 ecx, DWORD PTR [esi+308]

; 750  : 		rect.bottom -= (max - iSelFolder - 1)*iFolderHeight;

  008c0	2b f9		 sub	 edi, ecx
  008c2	8b 96 a0 00 00
	00		 mov	 edx, DWORD PTR [esi+160]
  008c8	4f		 dec	 edi
  008c9	0f af fa	 imul	 edi, edx
  008cc	8d 41 01	 lea	 eax, DWORD PTR [ecx+1]
  008cf	0f af c2	 imul	 eax, edx
  008d2	01 45 c4	 add	 DWORD PTR _crc$14[ebp+4], eax
  008d5	29 7d cc	 sub	 DWORD PTR _crc$14[ebp+12], edi
$LN266@OnLButtonD:
; File C:\Program Files (x86)\Microsoft Visual Studio\2019\Community\VC\Tools\MSVC\14.29.30133\atlmfc\include\afxwin2.inl

; 116  : 	{ ASSERT(::IsWindow(m_hWnd)); ::InvalidateRect(m_hWnd, lpRect, bErase); }

  008d8	8b 1d 00 00 00
	00		 mov	 ebx, DWORD PTR __imp__InvalidateRect@12
  008de	8d 45 c0	 lea	 eax, DWORD PTR _crc$14[ebp]
  008e1	6a 01		 push	 1
  008e3	50		 push	 eax
  008e4	ff 76 20	 push	 DWORD PTR [esi+32]
  008e7	ff d3		 call	 ebx
; File D:\git\src\IBK\IBK_DRFN\ProjSrc\SrcDrfn\Chart\comparechart\control\GfxOutBarCtrl.cpp

; 1346 : 				if (CWnd::GetCapture() != this) break;

  008e9	e9 e8 00 00 00	 jmp	 $ExitLoop$405
$LN85@OnLButtonD:

; 1390 : 								CRect crc;
; 1391 : 								GetInsideRect(crc);
; 1392 : 								InvalidateRect(crc, true);
; 1393 : 							}
; 1394 : 						}
; 1395 : 					}
; 1396 : 
; 1397 : 					goto ExitLoop;
; 1398 : 
; 1399 : 				case WM_TIMER:
; 1400 : 					{
; 1401 : 						if (msg.wParam == 2)

  008ee	83 7d 80 02	 cmp	 DWORD PTR _msg$7[ebp+8], 2
  008f2	0f 85 b5 00 00
	00		 jne	 $LN20@OnLButtonD
; File C:\Program Files (x86)\Microsoft Visual Studio\2019\Community\VC\Tools\MSVC\14.29.30133\atlmfc\include\atltypes.h

; 414  : 	*(POINT*)this = initPt;

  008f8	8b 45 8c	 mov	 eax, DWORD PTR _msg$7[ebp+20]
  008fb	8b 4d 90	 mov	 ecx, DWORD PTR _msg$7[ebp+24]
  008fe	89 45 e8	 mov	 DWORD PTR _pt$25[ebp], eax
; File C:\Program Files (x86)\Microsoft Visual Studio\2019\Community\VC\Tools\MSVC\14.29.30133\atlmfc\include\afxwin2.inl

; 94   : 	{ ASSERT(::IsWindow(m_hWnd)); ::ScreenToClient(m_hWnd, lpPoint); }

  00901	8d 45 e8	 lea	 eax, DWORD PTR _pt$25[ebp]
  00904	50		 push	 eax
  00905	ff 76 20	 push	 DWORD PTR [esi+32]
; File C:\Program Files (x86)\Microsoft Visual Studio\2019\Community\VC\Tools\MSVC\14.29.30133\atlmfc\include\atltypes.h

; 414  : 	*(POINT*)this = initPt;

  00908	89 4d ec	 mov	 DWORD PTR _pt$25[ebp+4], ecx
; File C:\Program Files (x86)\Microsoft Visual Studio\2019\Community\VC\Tools\MSVC\14.29.30133\atlmfc\include\afxwin2.inl

; 94   : 	{ ASSERT(::IsWindow(m_hWnd)); ::ScreenToClient(m_hWnd, lpPoint); }

  0090b	ff 15 00 00 00
	00		 call	 DWORD PTR __imp__ScreenToClient@8
; File C:\Program Files (x86)\Microsoft Visual Studio\2019\Community\VC\Tools\MSVC\14.29.30133\atlmfc\include\atltypes.h

; 648  : 	return ::PtInRect(this, point);

  00911	ff 75 ec	 push	 DWORD PTR _pt$25[ebp+4]
  00914	ff 75 e8	 push	 DWORD PTR _pt$25[ebp]
  00917	57		 push	 edi
  00918	ff 15 00 00 00
	00		 call	 DWORD PTR __imp__PtInRect@12
; File D:\git\src\IBK\IBK_DRFN\ProjSrc\SrcDrfn\Chart\comparechart\control\GfxOutBarCtrl.cpp

; 1407 : 								if (rcUpArrow.PtInRect(pt))

  0091e	85 c0		 test	 eax, eax
  00920	74 6f		 je	 SHORT $LN88@OnLButtonD

; 1408 : 								{
; 1409 : 									bUpPressed = true;
; 1410 : 									if (iFirstItem > 0) 

  00922	8b 86 20 01 00
	00		 mov	 eax, DWORD PTR [esi+288]
  00928	c6 86 c2 00 00
	00 01		 mov	 BYTE PTR [esi+194], 1
  0092f	85 c0		 test	 eax, eax
  00931	0f 8e 99 00 00
	00		 jle	 $LN391@OnLButtonD

; 1411 : 									{
; 1412 : 										iFirstItem --;

  00937	48		 dec	 eax
  00938	0f 57 c0	 xorps	 xmm0, xmm0
  0093b	89 86 20 01 00
	00		 mov	 DWORD PTR [esi+288], eax
; File C:\Program Files (x86)\Microsoft Visual Studio\2019\Community\VC\Tools\MSVC\14.29.30133\atlmfc\include\afxwin2.inl

; 86   : 	{ ASSERT(::IsWindow(m_hWnd)); ::GetClientRect(m_hWnd, lpRect); }

  00941	8d 45 b0	 lea	 eax, DWORD PTR _crc$13[ebp]
  00944	50		 push	 eax
  00945	ff 76 20	 push	 DWORD PTR [esi+32]
; File C:\Program Files (x86)\Microsoft Visual Studio\2019\Community\VC\Tools\MSVC\14.29.30133\atlmfc\include\atltypes.h

; 528  : 	left = 0;

  00948	0f 11 45 b0	 movups	 XMMWORD PTR _crc$13[ebp], xmm0
; File C:\Program Files (x86)\Microsoft Visual Studio\2019\Community\VC\Tools\MSVC\14.29.30133\atlmfc\include\afxwin2.inl

; 86   : 	{ ASSERT(::IsWindow(m_hWnd)); ::GetClientRect(m_hWnd, lpRect); }

  0094c	ff 15 00 00 00
	00		 call	 DWORD PTR __imp__GetClientRect@8
; File D:\git\src\IBK\IBK_DRFN\ProjSrc\SrcDrfn\Chart\comparechart\control\GfxOutBarCtrl.cpp

; 746  : 	if (arFolder.GetSize() > 0)

  00952	8b be 0c 01 00
	00		 mov	 edi, DWORD PTR [esi+268]
  00958	85 ff		 test	 edi, edi
  0095a	7e 1e		 jle	 SHORT $LN378@OnLButtonD

; 747  : 	{
; 748  : 		int max = arFolder.GetSize();
; 749  : 		rect.top += iFolderHeight * (iSelFolder + 1); + 1;//+ 2;

  0095c	8b 8e 34 01 00
	00		 mov	 ecx, DWORD PTR [esi+308]

; 750  : 		rect.bottom -= (max - iSelFolder - 1)*iFolderHeight;

  00962	2b f9		 sub	 edi, ecx
  00964	8b 96 a0 00 00
	00		 mov	 edx, DWORD PTR [esi+160]
  0096a	4f		 dec	 edi
  0096b	0f af fa	 imul	 edi, edx
  0096e	8d 41 01	 lea	 eax, DWORD PTR [ecx+1]
  00971	0f af c2	 imul	 eax, edx
  00974	01 45 b4	 add	 DWORD PTR _crc$13[ebp+4], eax
  00977	29 7d bc	 sub	 DWORD PTR _crc$13[ebp+12], edi
$LN378@OnLButtonD:
; File C:\Program Files (x86)\Microsoft Visual Studio\2019\Community\VC\Tools\MSVC\14.29.30133\atlmfc\include\afxwin2.inl

; 116  : 	{ ASSERT(::IsWindow(m_hWnd)); ::InvalidateRect(m_hWnd, lpRect, bErase); }

  0097a	6a 01		 push	 1
  0097c	8d 45 b0	 lea	 eax, DWORD PTR _crc$13[ebp]
  0097f	50		 push	 eax
  00980	ff 76 20	 push	 DWORD PTR [esi+32]
  00983	ff 15 00 00 00
	00		 call	 DWORD PTR __imp__InvalidateRect@12
; File D:\git\src\IBK\IBK_DRFN\ProjSrc\SrcDrfn\Chart\comparechart\control\GfxOutBarCtrl.cpp

; 1418 : 								}

  00989	8d be c4 00 00
	00		 lea	 edi, DWORD PTR [esi+196]
  0098f	eb 1c		 jmp	 SHORT $LN20@OnLButtonD
$LN88@OnLButtonD:

; 1419 : 								else bUpPressed = false;

  00991	c6 86 c2 00 00
	00 00		 mov	 BYTE PTR [esi+194], 0

; 1420 : 							}
; 1421 : 						}
; 1422 : 						break;

  00998	eb 13		 jmp	 SHORT $LN20@OnLButtonD
$LN93@OnLButtonD:

; 1423 : 					}
; 1424 : 				case WM_KEYDOWN:	
; 1425 : 					if (msg.wParam != VK_ESCAPE) break;

  0099a	83 7d 80 1b	 cmp	 DWORD PTR _msg$7[ebp+8], 27 ; 0000001bH
  0099e	75 0d		 jne	 SHORT $LN20@OnLButtonD
$LN94@OnLButtonD:

; 1426 : 
; 1427 : 				default:
; 1428 : 					DispatchMessage(&msg);

  009a0	8d 85 78 ff ff
	ff		 lea	 eax, DWORD PTR _msg$7[ebp]
  009a6	50		 push	 eax
  009a7	ff 15 00 00 00
	00		 call	 DWORD PTR __imp__DispatchMessageA@4
$LN20@OnLButtonD:

; 1341 : 			for (;;)
; 1342 : 			{
; 1343 : 				MSG msg;
; 1344 : 				VERIFY(::GetMessage(&msg, NULL, 0, 0));

  009ad	6a 00		 push	 0
  009af	6a 00		 push	 0
  009b1	6a 00		 push	 0
  009b3	8d 85 78 ff ff
	ff		 lea	 eax, DWORD PTR _msg$7[ebp]
  009b9	50		 push	 eax
  009ba	ff 15 00 00 00
	00		 call	 DWORD PTR __imp__GetMessageA@16
; File C:\Program Files (x86)\Microsoft Visual Studio\2019\Community\VC\Tools\MSVC\14.29.30133\atlmfc\include\afxwin2.inl

; 161  : 	{ return CWnd::FromHandle(::GetCapture()); }

  009c0	ff d3		 call	 ebx
  009c2	50		 push	 eax
  009c3	e8 00 00 00 00	 call	 ?FromHandle@CWnd@@SGPAV1@PAUHWND__@@@Z ; CWnd::FromHandle
; File D:\git\src\IBK\IBK_DRFN\ProjSrc\SrcDrfn\Chart\comparechart\control\GfxOutBarCtrl.cpp

; 1346 : 				if (CWnd::GetCapture() != this) break;

  009c8	3b c6		 cmp	 eax, esi
  009ca	0f 84 60 fe ff
	ff		 je	 $LL17@OnLButtonD
$LN391@OnLButtonD:
; File C:\Program Files (x86)\Microsoft Visual Studio\2019\Community\VC\Tools\MSVC\14.29.30133\atlmfc\include\afxwin2.inl

; 155  : 	{ ASSERT(::IsWindow(m_hWnd)); return ::KillTimer(m_hWnd, nIDEvent); }

  009d0	8b 1d 00 00 00
	00		 mov	 ebx, DWORD PTR __imp__InvalidateRect@12
$ExitLoop$405:
  009d6	6a 02		 push	 2
  009d8	ff 76 20	 push	 DWORD PTR [esi+32]
  009db	ff 15 00 00 00
	00		 call	 DWORD PTR __imp__KillTimer@8
; File D:\git\src\IBK\IBK_DRFN\ProjSrc\SrcDrfn\Chart\comparechart\control\GfxOutBarCtrl.cpp

; 1435 : 			ReleaseCapture();

  009e1	ff 15 00 00 00
	00		 call	 DWORD PTR __imp__ReleaseCapture@0

; 1436 : 			AfxUnlockTempMaps(FALSE);

  009e7	6a 00		 push	 0
  009e9	e8 00 00 00 00	 call	 ?AfxUnlockTempMaps@@YGHH@Z ; AfxUnlockTempMaps
; File C:\Program Files (x86)\Microsoft Visual Studio\2019\Community\VC\Tools\MSVC\14.29.30133\atlmfc\include\afxwin2.inl

; 86   : 	{ ASSERT(::IsWindow(m_hWnd)); ::GetClientRect(m_hWnd, lpRect); }

  009ee	8d 45 d0	 lea	 eax, DWORD PTR _crc$18[ebp]
; File D:\git\src\IBK\IBK_DRFN\ProjSrc\SrcDrfn\Chart\comparechart\control\GfxOutBarCtrl.cpp

; 1437 : 			bLooping = false;

  009f1	c6 86 e4 00 00
	00 00		 mov	 BYTE PTR [esi+228], 0
; File C:\Program Files (x86)\Microsoft Visual Studio\2019\Community\VC\Tools\MSVC\14.29.30133\atlmfc\include\afxwin2.inl

; 86   : 	{ ASSERT(::IsWindow(m_hWnd)); ::GetClientRect(m_hWnd, lpRect); }

  009f8	50		 push	 eax
  009f9	ff 76 20	 push	 DWORD PTR [esi+32]
  009fc	0f 57 c0	 xorps	 xmm0, xmm0
; File D:\git\src\IBK\IBK_DRFN\ProjSrc\SrcDrfn\Chart\comparechart\control\GfxOutBarCtrl.cpp

; 1438 : 			bUpPressed = false;

  009ff	c6 86 c2 00 00
	00 00		 mov	 BYTE PTR [esi+194], 0

; 1439 : 			bUpArrow = false;

  00a06	c6 86 c0 00 00
	00 00		 mov	 BYTE PTR [esi+192], 0
; File C:\Program Files (x86)\Microsoft Visual Studio\2019\Community\VC\Tools\MSVC\14.29.30133\atlmfc\include\atltypes.h

; 528  : 	left = 0;

  00a0d	0f 11 45 d0	 movups	 XMMWORD PTR _crc$18[ebp], xmm0
; File C:\Program Files (x86)\Microsoft Visual Studio\2019\Community\VC\Tools\MSVC\14.29.30133\atlmfc\include\afxwin2.inl

; 86   : 	{ ASSERT(::IsWindow(m_hWnd)); ::GetClientRect(m_hWnd, lpRect); }

  00a11	ff 15 00 00 00
	00		 call	 DWORD PTR __imp__GetClientRect@8
; File D:\git\src\IBK\IBK_DRFN\ProjSrc\SrcDrfn\Chart\comparechart\control\GfxOutBarCtrl.cpp

; 746  : 	if (arFolder.GetSize() > 0)

  00a17	8b be 0c 01 00
	00		 mov	 edi, DWORD PTR [esi+268]
  00a1d	85 ff		 test	 edi, edi
  00a1f	7e 1e		 jle	 SHORT $LN292@OnLButtonD

; 747  : 	{
; 748  : 		int max = arFolder.GetSize();
; 749  : 		rect.top += iFolderHeight * (iSelFolder + 1); + 1;//+ 2;

  00a21	8b 8e 34 01 00
	00		 mov	 ecx, DWORD PTR [esi+308]

; 750  : 		rect.bottom -= (max - iSelFolder - 1)*iFolderHeight;

  00a27	2b f9		 sub	 edi, ecx
  00a29	8b 96 a0 00 00
	00		 mov	 edx, DWORD PTR [esi+160]
  00a2f	4f		 dec	 edi
  00a30	0f af fa	 imul	 edi, edx
  00a33	8d 41 01	 lea	 eax, DWORD PTR [ecx+1]
  00a36	0f af c2	 imul	 eax, edx
  00a39	01 45 d4	 add	 DWORD PTR _crc$18[ebp+4], eax
  00a3c	29 7d dc	 sub	 DWORD PTR _crc$18[ebp+12], edi
$LN292@OnLButtonD:
; File C:\Program Files (x86)\Microsoft Visual Studio\2019\Community\VC\Tools\MSVC\14.29.30133\atlmfc\include\afxwin2.inl

; 116  : 	{ ASSERT(::IsWindow(m_hWnd)); ::InvalidateRect(m_hWnd, lpRect, bErase); }

  00a3f	6a 01		 push	 1
  00a41	8d 45 d0	 lea	 eax, DWORD PTR _crc$18[ebp]
  00a44	50		 push	 eax
  00a45	ff 76 20	 push	 DWORD PTR [esi+32]
  00a48	ff d3		 call	 ebx
; File D:\git\src\IBK\IBK_DRFN\ProjSrc\SrcDrfn\Chart\comparechart\control\GfxOutBarCtrl.cpp

; 1443 : 		}

  00a4a	8d 8d 64 ff ff
	ff		 lea	 ecx, DWORD PTR _dc$6[ebp]
$LN399@OnLButtonD:
; File C:\Program Files (x86)\Microsoft Visual Studio\2019\Community\VC\Tools\MSVC\14.29.30133\atlmfc\include\afxwin2.inl

; 432  : 	{ Default(); }

  00a50	c7 45 fc ff ff
	ff ff		 mov	 DWORD PTR __$EHRec$[ebp+8], -1
  00a57	e8 00 00 00 00	 call	 ??1CClientDC@@UAE@XZ	; CClientDC::~CClientDC
$LN78@OnLButtonD:
  00a5c	8b ce		 mov	 ecx, esi
  00a5e	e8 00 00 00 00	 call	 ?Default@CWnd@@IAEJXZ	; CWnd::Default
; File D:\git\src\IBK\IBK_DRFN\ProjSrc\SrcDrfn\Chart\comparechart\control\GfxOutBarCtrl.cpp

; 1447 : }

  00a63	8b 4d f4	 mov	 ecx, DWORD PTR __$EHRec$[ebp]
  00a66	64 89 0d 00 00
	00 00		 mov	 DWORD PTR fs:0, ecx
  00a6d	59		 pop	 ecx
  00a6e	5f		 pop	 edi
  00a6f	5e		 pop	 esi
  00a70	5b		 pop	 ebx
  00a71	8b 4d f0	 mov	 ecx, DWORD PTR __$ArrayPad$[ebp]
  00a74	33 cd		 xor	 ecx, ebp
  00a76	e8 00 00 00 00	 call	 @__security_check_cookie@4
  00a7b	8b e5		 mov	 esp, ebp
  00a7d	5d		 pop	 ebp
  00a7e	c2 0c 00	 ret	 12			; 0000000cH
$LN202@OnLButtonD:
  00a81	e8 00 00 00 00	 call	 ?AfxThrowInvalidArgException@@YGXXZ ; AfxThrowInvalidArgException
$LN398@OnLButtonD:
  00a86	cc		 int	 3
_TEXT	ENDS
;	COMDAT text$x
text$x	SEGMENT
__unwindfunclet$?OnLButtonDown@CGfxOutBarCtrl@@IAEXIVCPoint@@@Z$6:
  00000	8d 8d 48 ff ff
	ff		 lea	 ecx, DWORD PTR _dc$4[ebp]
  00006	e9 00 00 00 00	 jmp	 ??1CClientDC@@UAE@XZ	; CClientDC::~CClientDC
__unwindfunclet$?OnLButtonDown@CGfxOutBarCtrl@@IAEXIVCPoint@@@Z$7:
  0000b	8d 8d 48 ff ff
	ff		 lea	 ecx, DWORD PTR _dc$3[ebp]
  00011	e9 00 00 00 00	 jmp	 ??1CClientDC@@UAE@XZ	; CClientDC::~CClientDC
__unwindfunclet$?OnLButtonDown@CGfxOutBarCtrl@@IAEXIVCPoint@@@Z$8:
  00016	8d 8d 48 ff ff
	ff		 lea	 ecx, DWORD PTR _dc$2[ebp]
  0001c	e9 00 00 00 00	 jmp	 ??1CClientDC@@UAE@XZ	; CClientDC::~CClientDC
__unwindfunclet$?OnLButtonDown@CGfxOutBarCtrl@@IAEXIVCPoint@@@Z$9:
  00021	8d 8d 64 ff ff
	ff		 lea	 ecx, DWORD PTR _dc$6[ebp]
  00027	e9 00 00 00 00	 jmp	 ??1CClientDC@@UAE@XZ	; CClientDC::~CClientDC
  0002c	cc		 int	 3
  0002d	cc		 int	 3
  0002e	cc		 int	 3
  0002f	cc		 int	 3
  00030	cc		 int	 3
__ehhandler$?OnLButtonDown@CGfxOutBarCtrl@@IAEXIVCPoint@@@Z:
  00031	90		 npad	 1
  00032	90		 npad	 1
  00033	8b 54 24 08	 mov	 edx, DWORD PTR [esp+8]
  00037	8d 42 0c	 lea	 eax, DWORD PTR [edx+12]
  0003a	8b 8a 44 ff ff
	ff		 mov	 ecx, DWORD PTR [edx-188]
  00040	33 c8		 xor	 ecx, eax
  00042	e8 00 00 00 00	 call	 @__security_check_cookie@4
  00047	8b 4a fc	 mov	 ecx, DWORD PTR [edx-4]
  0004a	33 c8		 xor	 ecx, eax
  0004c	e8 00 00 00 00	 call	 @__security_check_cookie@4
  00051	b8 00 00 00 00	 mov	 eax, OFFSET __ehfuncinfo$?OnLButtonDown@CGfxOutBarCtrl@@IAEXIVCPoint@@@Z
  00056	e9 00 00 00 00	 jmp	 ___CxxFrameHandler3
text$x	ENDS
?OnLButtonDown@CGfxOutBarCtrl@@IAEXIVCPoint@@@Z ENDP	; CGfxOutBarCtrl::OnLButtonDown
; Function compile flags: /Ogtp
; File D:\git\src\IBK\IBK_DRFN\ProjSrc\SrcDrfn\Chart\comparechart\control\GfxOutBarCtrl.cpp
; File C:\Program Files (x86)\Microsoft Visual Studio\2019\Community\VC\Tools\MSVC\14.29.30133\atlmfc\include\afxwin2.inl
; File D:\git\src\IBK\IBK_DRFN\ProjSrc\SrcDrfn\Chart\comparechart\control\GfxOutBarCtrl.cpp
;	COMDAT ?OnMouseMove@CGfxOutBarCtrl@@IAEXIVCPoint@@@Z
_TEXT	SEGMENT
_nFlags$ = 8						; size = 4
_point$ = 12						; size = 8
?OnMouseMove@CGfxOutBarCtrl@@IAEXIVCPoint@@@Z PROC	; CGfxOutBarCtrl::OnMouseMove, COMDAT
; _this$ = ecx
; File C:\Program Files (x86)\Microsoft Visual Studio\2019\Community\VC\Tools\MSVC\14.29.30133\atlmfc\include\afxwin2.inl

; 454  : 	{ Default(); }

  00000	e8 00 00 00 00	 call	 ?Default@CWnd@@IAEJXZ	; CWnd::Default
; File D:\git\src\IBK\IBK_DRFN\ProjSrc\SrcDrfn\Chart\comparechart\control\GfxOutBarCtrl.cpp

; 777  : }

  00005	c2 0c 00	 ret	 12			; 0000000cH
?OnMouseMove@CGfxOutBarCtrl@@IAEXIVCPoint@@@Z ENDP	; CGfxOutBarCtrl::OnMouseMove
_TEXT	ENDS
; Function compile flags: /Ogtp
; File D:\git\src\IBK\IBK_DRFN\ProjSrc\SrcDrfn\Chart\comparechart\control\GfxOutBarCtrl.cpp
;	COMDAT ?OnEraseBkgnd@CGfxOutBarCtrl@@IAEHPAVCDC@@@Z
_TEXT	SEGMENT
_pDC$ = 8						; size = 4
?OnEraseBkgnd@CGfxOutBarCtrl@@IAEHPAVCDC@@@Z PROC	; CGfxOutBarCtrl::OnEraseBkgnd, COMDAT
; _this$ = ecx

; 450  : 	return true;

  00000	b8 01 00 00 00	 mov	 eax, 1

; 451  : }

  00005	c2 04 00	 ret	 4
?OnEraseBkgnd@CGfxOutBarCtrl@@IAEHPAVCDC@@@Z ENDP	; CGfxOutBarCtrl::OnEraseBkgnd
_TEXT	ENDS
; Function compile flags: /Ogtp
; File D:\git\src\IBK\IBK_DRFN\ProjSrc\SrcDrfn\Chart\comparechart\control\GfxOutBarCtrl.cpp
; File C:\Program Files (x86)\Microsoft Visual Studio\2019\Community\VC\Tools\MSVC\14.29.30133\atlmfc\include\afxwin2.inl
; File C:\Program Files (x86)\Microsoft Visual Studio\2019\Community\VC\Tools\MSVC\14.29.30133\atlmfc\include\atltypes.h
; File C:\Program Files (x86)\Microsoft Visual Studio\2019\Community\VC\Tools\MSVC\14.29.30133\atlmfc\include\afxwin2.inl
; File D:\git\src\IBK\IBK_DRFN\ProjSrc\SrcDrfn\Chart\comparechart\control\GfxOutBarCtrl.cpp
; File C:\Program Files (x86)\Microsoft Visual Studio\2019\Community\VC\Tools\MSVC\14.29.30133\atlmfc\include\afxwin1.inl
; File D:\git\src\IBK\IBK_DRFN\ProjSrc\SrcDrfn\Chart\comparechart\control\GfxOutBarCtrl.cpp
; File C:\Program Files (x86)\Microsoft Visual Studio\2019\Community\VC\Tools\MSVC\14.29.30133\atlmfc\include\afxwin1.inl
; File C:\Program Files (x86)\Microsoft Visual Studio\2019\Community\VC\Tools\MSVC\14.29.30133\atlmfc\include\atltypes.h
; File C:\Program Files (x86)\Microsoft Visual Studio\2019\Community\VC\Tools\MSVC\14.29.30133\atlmfc\include\afxwin1.inl
; File D:\git\src\IBK\IBK_DRFN\ProjSrc\SrcDrfn\Chart\comparechart\control\GfxOutBarCtrl.cpp
; File C:\Program Files (x86)\Microsoft Visual Studio\2019\Community\VC\Tools\MSVC\14.29.30133\atlmfc\include\afxwin1.inl
; File D:\git\src\IBK\IBK_DRFN\ProjSrc\SrcDrfn\Chart\comparechart\control\GfxOutBarCtrl.cpp
; File C:\Program Files (x86)\Microsoft Visual Studio\2019\Community\VC\Tools\MSVC\14.29.30133\atlmfc\include\afxwin2.inl
; File C:\Program Files (x86)\Microsoft Visual Studio\2019\Community\VC\Tools\MSVC\14.29.30133\atlmfc\include\atltypes.h
; File C:\Program Files (x86)\Microsoft Visual Studio\2019\Community\VC\Tools\MSVC\14.29.30133\atlmfc\include\afxwin2.inl
; File D:\git\src\IBK\IBK_DRFN\ProjSrc\SrcDrfn\Chart\comparechart\control\GfxOutBarCtrl.cpp
; File C:\Program Files (x86)\Microsoft Visual Studio\2019\Community\VC\Tools\MSVC\14.29.30133\atlmfc\include\afxcoll.inl
; File D:\git\src\IBK\IBK_DRFN\ProjSrc\SrcDrfn\Chart\comparechart\control\GfxOutBarCtrl.cpp
; File C:\Program Files (x86)\Microsoft Visual Studio\2019\Community\VC\Tools\MSVC\14.29.30133\atlmfc\include\atltypes.h
; File D:\git\src\IBK\IBK_DRFN\ProjSrc\SrcDrfn\Chart\comparechart\control\GfxOutBarCtrl.cpp
; File C:\Program Files (x86)\Microsoft Visual Studio\2019\Community\VC\Tools\MSVC\14.29.30133\atlmfc\include\afxcoll.inl
; File D:\git\src\IBK\IBK_DRFN\ProjSrc\SrcDrfn\Chart\comparechart\control\GfxOutBarCtrl.cpp
; File C:\Program Files (x86)\Microsoft Visual Studio\2019\Community\VC\Tools\MSVC\14.29.30133\atlmfc\include\atltypes.h
; File D:\git\src\IBK\IBK_DRFN\ProjSrc\SrcDrfn\Chart\comparechart\control\GfxOutBarCtrl.cpp
; File C:\Program Files (x86)\Microsoft Visual Studio\2019\Community\VC\Tools\MSVC\14.29.30133\atlmfc\include\atltypes.h
; File D:\git\src\IBK\IBK_DRFN\ProjSrc\SrcDrfn\Chart\comparechart\control\GfxOutBarCtrl.cpp
; File C:\Program Files (x86)\Microsoft Visual Studio\2019\Community\VC\Tools\MSVC\14.29.30133\atlmfc\include\atltypes.h
; File D:\git\src\IBK\IBK_DRFN\ProjSrc\SrcDrfn\Chart\comparechart\control\GfxOutBarCtrl.cpp
; File C:\Program Files (x86)\Microsoft Visual Studio\2019\Community\VC\Tools\MSVC\14.29.30133\atlmfc\include\atltypes.h
; File D:\git\src\IBK\IBK_DRFN\ProjSrc\SrcDrfn\Chart\comparechart\control\GfxOutBarCtrl.cpp
; File C:\Program Files (x86)\Microsoft Visual Studio\2019\Community\VC\Tools\MSVC\14.29.30133\atlmfc\include\atltypes.h
; File D:\git\src\IBK\IBK_DRFN\ProjSrc\SrcDrfn\Chart\comparechart\control\GfxOutBarCtrl.cpp
; File C:\Program Files (x86)\Microsoft Visual Studio\2019\Community\VC\Tools\MSVC\14.29.30133\atlmfc\include\atltypes.h
; File D:\git\src\IBK\IBK_DRFN\ProjSrc\SrcDrfn\Chart\comparechart\control\GfxOutBarCtrl.cpp
; File C:\Program Files (x86)\Microsoft Visual Studio\2019\Community\VC\Tools\MSVC\14.29.30133\atlmfc\include\afxwin1.inl
; File D:\git\src\IBK\IBK_DRFN\ProjSrc\SrcDrfn\Chart\comparechart\control\GfxOutBarCtrl.cpp
; File C:\Program Files (x86)\Microsoft Visual Studio\2019\Community\VC\Tools\MSVC\14.29.30133\atlmfc\include\afxwin1.inl
; File D:\git\src\IBK\IBK_DRFN\ProjSrc\SrcDrfn\Chart\comparechart\control\GfxOutBarCtrl.cpp
; File C:\Program Files (x86)\Microsoft Visual Studio\2019\Community\VC\Tools\MSVC\14.29.30133\atlmfc\include\afxcoll.inl
; File D:\git\src\IBK\IBK_DRFN\ProjSrc\SrcDrfn\Chart\comparechart\control\GfxOutBarCtrl.cpp
; File C:\Program Files (x86)\Microsoft Visual Studio\2019\Community\VC\Tools\MSVC\14.29.30133\atlmfc\include\afxwin1.inl
; File D:\git\src\IBK\IBK_DRFN\ProjSrc\SrcDrfn\Chart\comparechart\control\GfxOutBarCtrl.cpp
; File C:\Program Files (x86)\Microsoft Visual Studio\2019\Community\VC\Tools\MSVC\14.29.30133\atlmfc\include\afxwin1.inl
; File D:\git\src\IBK\IBK_DRFN\ProjSrc\SrcDrfn\Chart\comparechart\control\GfxOutBarCtrl.cpp
; File C:\Program Files (x86)\Microsoft Visual Studio\2019\Community\VC\Tools\MSVC\14.29.30133\atlmfc\include\atltypes.h
; File C:\Program Files (x86)\Microsoft Visual Studio\2019\Community\VC\Tools\MSVC\14.29.30133\atlmfc\include\afxwin1.inl
; File D:\git\src\IBK\IBK_DRFN\ProjSrc\SrcDrfn\Chart\comparechart\control\GfxOutBarCtrl.cpp
; File C:\Program Files (x86)\Microsoft Visual Studio\2019\Community\VC\Tools\MSVC\14.29.30133\atlmfc\include\afxwin1.inl
; File D:\git\src\IBK\IBK_DRFN\ProjSrc\SrcDrfn\Chart\comparechart\control\GfxOutBarCtrl.cpp
; File C:\Program Files (x86)\Microsoft Visual Studio\2019\Community\VC\Tools\MSVC\14.29.30133\atlmfc\include\afxcoll.inl
; File D:\git\src\IBK\IBK_DRFN\ProjSrc\SrcDrfn\Chart\comparechart\control\GfxOutBarCtrl.cpp
;	COMDAT ?OnPaint@CGfxOutBarCtrl@@IAEXXZ
_TEXT	SEGMENT
_obmp$1$ = -184						; size = 4
_bmp$ = -180						; size = 8
_l$2 = -172						; size = 4
_memDC$ = -168						; size = 16
$T3 = -152						; size = 4
_f$4 = -152						; size = 4
_dc$ = -148						; size = 84
_frc$ = -64						; size = 16
_clientRc$ = -48					; size = 16
_rc$ = -32						; size = 16
__$ArrayPad$ = -16					; size = 4
__$EHRec$ = -12						; size = 12
?OnPaint@CGfxOutBarCtrl@@IAEXXZ PROC			; CGfxOutBarCtrl::OnPaint, COMDAT
; _this$ = ecx

; 360  : {

  00000	55		 push	 ebp
  00001	8b ec		 mov	 ebp, esp
  00003	6a ff		 push	 -1
  00005	68 00 00 00 00	 push	 __ehhandler$?OnPaint@CGfxOutBarCtrl@@IAEXXZ
  0000a	64 a1 00 00 00
	00		 mov	 eax, DWORD PTR fs:0
  00010	50		 push	 eax
  00011	81 ec ac 00 00
	00		 sub	 esp, 172		; 000000acH
  00017	a1 00 00 00 00	 mov	 eax, DWORD PTR ___security_cookie
  0001c	33 c5		 xor	 eax, ebp
  0001e	89 45 f0	 mov	 DWORD PTR __$ArrayPad$[ebp], eax
  00021	56		 push	 esi
  00022	57		 push	 edi
  00023	50		 push	 eax
  00024	8d 45 f4	 lea	 eax, DWORD PTR __$EHRec$[ebp]
  00027	64 a3 00 00 00
	00		 mov	 DWORD PTR fs:0, eax
  0002d	8b f1		 mov	 esi, ecx
; File C:\Program Files (x86)\Microsoft Visual Studio\2019\Community\VC\Tools\MSVC\14.29.30133\atlmfc\include\afxwin2.inl

; 86   : 	{ ASSERT(::IsWindow(m_hWnd)); ::GetClientRect(m_hWnd, lpRect); }

  0002f	8b 3d 00 00 00
	00		 mov	 edi, DWORD PTR __imp__GetClientRect@8
  00035	8d 45 d0	 lea	 eax, DWORD PTR _clientRc$[ebp]
  00038	50		 push	 eax
  00039	ff 76 20	 push	 DWORD PTR [esi+32]
  0003c	0f 57 c0	 xorps	 xmm0, xmm0
; File C:\Program Files (x86)\Microsoft Visual Studio\2019\Community\VC\Tools\MSVC\14.29.30133\atlmfc\include\atltypes.h

; 528  : 	left = 0;

  0003f	0f 11 45 d0	 movups	 XMMWORD PTR _clientRc$[ebp], xmm0
; File C:\Program Files (x86)\Microsoft Visual Studio\2019\Community\VC\Tools\MSVC\14.29.30133\atlmfc\include\afxwin2.inl

; 86   : 	{ ASSERT(::IsWindow(m_hWnd)); ::GetClientRect(m_hWnd, lpRect); }

  00043	ff d7		 call	 edi
; File D:\git\src\IBK\IBK_DRFN\ProjSrc\SrcDrfn\Chart\comparechart\control\GfxOutBarCtrl.cpp

; 363  : 	CPaintDC dc(this);

  00045	56		 push	 esi
  00046	8d 8d 6c ff ff
	ff		 lea	 ecx, DWORD PTR _dc$[ebp]
  0004c	e8 00 00 00 00	 call	 ??0CPaintDC@@QAE@PAVCWnd@@@Z ; CPaintDC::CPaintDC

; 364  : 	CDC memDC;

  00051	8d 8d 58 ff ff
	ff		 lea	 ecx, DWORD PTR _memDC$[ebp]
  00057	c7 45 fc 00 00
	00 00		 mov	 DWORD PTR __$EHRec$[ebp+8], 0
  0005e	e8 00 00 00 00	 call	 ??0CDC@@QAE@XZ		; CDC::CDC
; File C:\Program Files (x86)\Microsoft Visual Studio\2019\Community\VC\Tools\MSVC\14.29.30133\atlmfc\include\afxwin1.inl

; 330  : 	{ return Attach(::CreateCompatibleDC(pDC->GetSafeHdc())); }

  00063	ff b5 70 ff ff
	ff		 push	 DWORD PTR _dc$[ebp+4]
; File D:\git\src\IBK\IBK_DRFN\ProjSrc\SrcDrfn\Chart\comparechart\control\GfxOutBarCtrl.cpp

; 364  : 	CDC memDC;

  00069	c6 45 fc 01	 mov	 BYTE PTR __$EHRec$[ebp+8], 1
; File C:\Program Files (x86)\Microsoft Visual Studio\2019\Community\VC\Tools\MSVC\14.29.30133\atlmfc\include\afxwin1.inl

; 330  : 	{ return Attach(::CreateCompatibleDC(pDC->GetSafeHdc())); }

  0006d	ff 15 00 00 00
	00		 call	 DWORD PTR __imp__CreateCompatibleDC@4
  00073	50		 push	 eax
  00074	8d 8d 58 ff ff
	ff		 lea	 ecx, DWORD PTR _memDC$[ebp]
  0007a	e8 00 00 00 00	 call	 ?Attach@CDC@@QAEHPAUHDC__@@@Z ; CDC::Attach

; 70   : 	{ m_hObject = NULL; }

  0007f	c7 85 50 ff ff
	ff 00 00 00 00	 mov	 DWORD PTR _bmp$[ebp+4], 0

; 177  : 	{ }

  00089	c7 85 4c ff ff
	ff 00 00 00 00	 mov	 DWORD PTR _bmp$[ebp], OFFSET ??_7CBitmap@@6B@
; File C:\Program Files (x86)\Microsoft Visual Studio\2019\Community\VC\Tools\MSVC\14.29.30133\atlmfc\include\atltypes.h

; 581  : 	return bottom - top;

  00093	8b 4d dc	 mov	 ecx, DWORD PTR _clientRc$[ebp+12]
  00096	2b 4d d4	 sub	 ecx, DWORD PTR _clientRc$[ebp+4]

; 576  : 	return right - left;

  00099	8b 45 d8	 mov	 eax, DWORD PTR _clientRc$[ebp+8]
  0009c	2b 45 d0	 sub	 eax, DWORD PTR _clientRc$[ebp]
; File C:\Program Files (x86)\Microsoft Visual Studio\2019\Community\VC\Tools\MSVC\14.29.30133\atlmfc\include\afxwin1.inl

; 217  : 	{ return Attach(::CreateCompatibleBitmap(pDC->m_hDC, nWidth, nHeight)); }

  0009f	51		 push	 ecx
  000a0	50		 push	 eax
  000a1	ff b5 70 ff ff
	ff		 push	 DWORD PTR _dc$[ebp+4]
; File D:\git\src\IBK\IBK_DRFN\ProjSrc\SrcDrfn\Chart\comparechart\control\GfxOutBarCtrl.cpp

; 366  : 	CBitmap bmp;

  000a7	c6 45 fc 02	 mov	 BYTE PTR __$EHRec$[ebp+8], 2
; File C:\Program Files (x86)\Microsoft Visual Studio\2019\Community\VC\Tools\MSVC\14.29.30133\atlmfc\include\afxwin1.inl

; 217  : 	{ return Attach(::CreateCompatibleBitmap(pDC->m_hDC, nWidth, nHeight)); }

  000ab	ff 15 00 00 00
	00		 call	 DWORD PTR __imp__CreateCompatibleBitmap@12
  000b1	50		 push	 eax
  000b2	8d 8d 4c ff ff
	ff		 lea	 ecx, DWORD PTR _bmp$[ebp]
  000b8	e8 00 00 00 00	 call	 ?Attach@CGdiObject@@QAEHPAX@Z ; CGdiObject::Attach

; 361  : 	{ ASSERT(m_hDC != NULL); return (CBitmap*) SelectGdiObject(m_hDC, pBitmap->GetSafeHandle()); }

  000bd	ff b5 50 ff ff
	ff		 push	 DWORD PTR _bmp$[ebp+4]
  000c3	ff b5 5c ff ff
	ff		 push	 DWORD PTR _memDC$[ebp+4]
  000c9	e8 00 00 00 00	 call	 ?SelectGdiObject@CDC@@KGPAVCGdiObject@@PAUHDC__@@PAX@Z ; CDC::SelectGdiObject
; File D:\git\src\IBK\IBK_DRFN\ProjSrc\SrcDrfn\Chart\comparechart\control\GfxOutBarCtrl.cpp

; 368  : 	CBitmap * obmp = memDC.SelectObject(&bmp);

  000ce	89 85 48 ff ff
	ff		 mov	 DWORD PTR _obmp$1$[ebp], eax
  000d4	0f 57 c0	 xorps	 xmm0, xmm0
; File C:\Program Files (x86)\Microsoft Visual Studio\2019\Community\VC\Tools\MSVC\14.29.30133\atlmfc\include\afxwin2.inl

; 86   : 	{ ASSERT(::IsWindow(m_hWnd)); ::GetClientRect(m_hWnd, lpRect); }

  000d7	8d 45 e0	 lea	 eax, DWORD PTR _rc$[ebp]
  000da	50		 push	 eax
  000db	ff 76 20	 push	 DWORD PTR [esi+32]
; File C:\Program Files (x86)\Microsoft Visual Studio\2019\Community\VC\Tools\MSVC\14.29.30133\atlmfc\include\atltypes.h

; 528  : 	left = 0;

  000de	0f 11 45 e0	 movups	 XMMWORD PTR _rc$[ebp], xmm0
; File C:\Program Files (x86)\Microsoft Visual Studio\2019\Community\VC\Tools\MSVC\14.29.30133\atlmfc\include\afxwin2.inl

; 86   : 	{ ASSERT(::IsWindow(m_hWnd)); ::GetClientRect(m_hWnd, lpRect); }

  000e2	ff d7		 call	 edi
; File D:\git\src\IBK\IBK_DRFN\ProjSrc\SrcDrfn\Chart\comparechart\control\GfxOutBarCtrl.cpp

; 746  : 	if (arFolder.GetSize() > 0)

  000e4	8b be 0c 01 00
	00		 mov	 edi, DWORD PTR [esi+268]
  000ea	85 ff		 test	 edi, edi
  000ec	7e 1e		 jle	 SHORT $LN132@OnPaint

; 747  : 	{
; 748  : 		int max = arFolder.GetSize();
; 749  : 		rect.top += iFolderHeight * (iSelFolder + 1); + 1;//+ 2;

  000ee	8b 8e 34 01 00
	00		 mov	 ecx, DWORD PTR [esi+308]

; 750  : 		rect.bottom -= (max - iSelFolder - 1)*iFolderHeight;

  000f4	2b f9		 sub	 edi, ecx
  000f6	8b 96 a0 00 00
	00		 mov	 edx, DWORD PTR [esi+160]
  000fc	4f		 dec	 edi
  000fd	0f af fa	 imul	 edi, edx
  00100	8d 41 01	 lea	 eax, DWORD PTR [ecx+1]
  00103	0f af c2	 imul	 eax, edx
  00106	01 45 e4	 add	 DWORD PTR _rc$[ebp+4], eax
  00109	29 7d ec	 sub	 DWORD PTR _rc$[ebp+12], edi
$LN132@OnPaint:

; 369  : 
; 370  : 	CDC * pDC = &memDC;
; 371  : 
; 372  : 	CRect rc;
; 373  : 	GetInsideRect(rc);
; 374  : 	pDC->FillSolidRect(rc, RGB(255,255,255));

  0010c	68 ff ff ff 00	 push	 16777215		; 00ffffffH
  00111	8d 45 e0	 lea	 eax, DWORD PTR _rc$[ebp]
  00114	50		 push	 eax
  00115	8d 8d 58 ff ff
	ff		 lea	 ecx, DWORD PTR _memDC$[ebp]
  0011b	e8 00 00 00 00	 call	 ?FillSolidRect@CDC@@QAEXPBUtagRECT@@K@Z ; CDC::FillSolidRect

; 2392 : 	int nFolderCnt = GetFolderCount();

  00120	8b 8e 0c 01 00
	00		 mov	 ecx, DWORD PTR [esi+268]
  00126	89 8d 68 ff ff
	ff		 mov	 DWORD PTR $T3[ebp], ecx

; 2393 : 	if (nFolderCnt <= iFolder) return NULL;

  0012c	83 f9 ff	 cmp	 ecx, -1
  0012f	7e 25		 jle	 SHORT $LN128@OnPaint

; 2394 : 	if (nFolderCnt)

  00131	85 c9		 test	 ecx, ecx
  00133	74 21		 je	 SHORT $LN128@OnPaint

; 2395 : 	{
; 2396 : 		if (iFolder < 0) iFolder = iSelFolder;

  00135	8b 96 34 01 00
	00		 mov	 edx, DWORD PTR [esi+308]

; 2397 : 		if (nFolderCnt <= iFolder) return NULL;

  0013b	3b ca		 cmp	 ecx, edx
  0013d	7e 17		 jle	 SHORT $LN128@OnPaint
; File C:\Program Files (x86)\Microsoft Visual Studio\2019\Community\VC\Tools\MSVC\14.29.30133\atlmfc\include\afxcoll.inl

; 203  : 		if( nIndex < 0 || nIndex >= m_nSize )

  0013f	85 d2		 test	 edx, edx
  00141	0f 88 45 03 00
	00		 js	 $LN95@OnPaint
; File D:\git\src\IBK\IBK_DRFN\ProjSrc\SrcDrfn\Chart\comparechart\control\GfxOutBarCtrl.cpp

; 2399 : 		return pbf->pChild;

  00147	8b 86 08 01 00
	00		 mov	 eax, DWORD PTR [esi+264]
  0014d	8b 04 90	 mov	 eax, DWORD PTR [eax+edx*4]

; 375  : 	if (!GetFolderChild()) pDC->FillSolidRect(rc, crBackGroundColor);

  00150	83 78 28 00	 cmp	 DWORD PTR [eax+40], 0
  00154	75 21		 jne	 SHORT $LN5@OnPaint
$LN128@OnPaint:
  00156	ff b6 80 00 00
	00		 push	 DWORD PTR [esi+128]
  0015c	8d 45 e0	 lea	 eax, DWORD PTR _rc$[ebp]
  0015f	50		 push	 eax
  00160	8d 8d 58 ff ff
	ff		 lea	 ecx, DWORD PTR _memDC$[ebp]
  00166	e8 00 00 00 00	 call	 ?FillSolidRect@CDC@@QAEXPBUtagRECT@@K@Z ; CDC::FillSolidRect
  0016b	8b 8e 0c 01 00
	00		 mov	 ecx, DWORD PTR [esi+268]
  00171	89 8d 68 ff ff
	ff		 mov	 DWORD PTR $T3[ebp], ecx
$LN5@OnPaint:

; 376  : 
; 377  : 	int max = arFolder.GetSize();

  00177	0f 57 c0	 xorps	 xmm0, xmm0
  0017a	33 ff		 xor	 edi, edi
  0017c	8b c1		 mov	 eax, ecx
; File C:\Program Files (x86)\Microsoft Visual Studio\2019\Community\VC\Tools\MSVC\14.29.30133\atlmfc\include\atltypes.h

; 528  : 	left = 0;

  0017e	0f 11 45 c0	 movups	 XMMWORD PTR _frc$[ebp], xmm0
; File D:\git\src\IBK\IBK_DRFN\ProjSrc\SrcDrfn\Chart\comparechart\control\GfxOutBarCtrl.cpp

; 380  : 	for (int t = 0; t < max; t++)

  00182	85 c9		 test	 ecx, ecx
  00184	7e 48		 jle	 SHORT $LN135@OnPaint
$LL4@OnPaint:

; 381  : 	{
; 382  : 		GetFolderRect(t, frc);

  00186	8d 45 c0	 lea	 eax, DWORD PTR _frc$[ebp]
  00189	8b ce		 mov	 ecx, esi
  0018b	50		 push	 eax
  0018c	57		 push	 edi
  0018d	e8 00 00 00 00	 call	 ?GetFolderRect@CGfxOutBarCtrl@@QBE_NHAAVCRect@@@Z ; CGfxOutBarCtrl::GetFolderRect

; 383  : 
; 384  : 		if( t == iSelFolder)

  00192	8b ce		 mov	 ecx, esi
  00194	0f 10 45 c0	 movups	 xmm0, XMMWORD PTR _frc$[ebp]
  00198	3b be 34 01 00
	00		 cmp	 edi, DWORD PTR [esi+308]
  0019e	75 04		 jne	 SHORT $LN6@OnPaint

; 385  : 			DrawFolder(pDC, t, frc, TRUE);

  001a0	6a 01		 push	 1
  001a2	eb 02		 jmp	 SHORT $LN136@OnPaint
$LN6@OnPaint:

; 386  : 		else
; 387  : 			DrawFolder(pDC, t, frc, false);

  001a4	6a 00		 push	 0
$LN136@OnPaint:

; 380  : 	for (int t = 0; t < max; t++)

  001a6	83 ec 10	 sub	 esp, 16			; 00000010H
  001a9	8b c4		 mov	 eax, esp
  001ab	57		 push	 edi
  001ac	0f 11 00	 movups	 XMMWORD PTR [eax], xmm0
  001af	8d 85 58 ff ff
	ff		 lea	 eax, DWORD PTR _memDC$[ebp]
  001b5	50		 push	 eax
  001b6	e8 00 00 00 00	 call	 ?DrawFolder@CGfxOutBarCtrl@@IAEXPAVCDC@@HVCRect@@_N@Z ; CGfxOutBarCtrl::DrawFolder
  001bb	47		 inc	 edi
  001bc	3b bd 68 ff ff
	ff		 cmp	 edi, DWORD PTR $T3[ebp]
  001c2	7c c2		 jl	 SHORT $LL4@OnPaint

; 2396 : 		if (iFolder < 0) iFolder = iSelFolder;

  001c4	8b 8e 0c 01 00
	00		 mov	 ecx, DWORD PTR [esi+268]
  001ca	8b c1		 mov	 eax, ecx

; 388  : 
; 389  : 	}
; 390  : 
; 391  : 	//GetFolderRect(iSelFolder, frc);
; 392  : 	//DrawFolder(pDC, iSelFolder, frc, true);
; 393  : 
; 394  : 	// FolderCount 0  .  
; 395  : 	if (GetFolderCount() && !GetFolderChild())

  001cc	85 c9		 test	 ecx, ecx
$LN135@OnPaint:
  001ce	0f 84 ea 01 00
	00		 je	 $LN8@OnPaint

; 2393 : 	if (nFolderCnt <= iFolder) return NULL;

  001d4	8b 96 34 01 00
	00		 mov	 edx, DWORD PTR [esi+308]
  001da	83 f9 ff	 cmp	 ecx, -1
  001dd	7e 27		 jle	 SHORT $LN130@OnPaint

; 2397 : 		if (nFolderCnt <= iFolder) return NULL;

  001df	3b ca		 cmp	 ecx, edx
  001e1	7e 23		 jle	 SHORT $LN130@OnPaint
; File C:\Program Files (x86)\Microsoft Visual Studio\2019\Community\VC\Tools\MSVC\14.29.30133\atlmfc\include\afxcoll.inl

; 203  : 		if( nIndex < 0 || nIndex >= m_nSize )

  001e3	85 d2		 test	 edx, edx
  001e5	0f 88 a1 02 00
	00		 js	 $LN95@OnPaint
  001eb	3b d0		 cmp	 edx, eax
  001ed	0f 8d 99 02 00
	00		 jge	 $LN95@OnPaint
; File D:\git\src\IBK\IBK_DRFN\ProjSrc\SrcDrfn\Chart\comparechart\control\GfxOutBarCtrl.cpp

; 2399 : 		return pbf->pChild;

  001f3	8b 86 08 01 00
	00		 mov	 eax, DWORD PTR [esi+264]
  001f9	8b 04 90	 mov	 eax, DWORD PTR [eax+edx*4]

; 388  : 
; 389  : 	}
; 390  : 
; 391  : 	//GetFolderRect(iSelFolder, frc);
; 392  : 	//DrawFolder(pDC, iSelFolder, frc, true);
; 393  : 
; 394  : 	// FolderCount 0  .  
; 395  : 	if (GetFolderCount() && !GetFolderChild())

  001fc	83 78 28 00	 cmp	 DWORD PTR [eax+40], 0
  00200	0f 85 b8 01 00
	00		 jne	 $LN8@OnPaint
$LN130@OnPaint:

; 396  : 	{
; 397  : 		int f=0,l=0;
; 398  : 		GetVisibleRange(iSelFolder, f,l);

  00206	8d 85 54 ff ff
	ff		 lea	 eax, DWORD PTR _l$2[ebp]
  0020c	c7 85 68 ff ff
	ff 00 00 00 00	 mov	 DWORD PTR _f$4[ebp], 0
  00216	50		 push	 eax
  00217	8d 85 68 ff ff
	ff		 lea	 eax, DWORD PTR _f$4[ebp]
  0021d	c7 85 54 ff ff
	ff 00 00 00 00	 mov	 DWORD PTR _l$2[ebp], 0
  00227	50		 push	 eax
  00228	52		 push	 edx
  00229	8b ce		 mov	 ecx, esi
  0022b	e8 00 00 00 00	 call	 ?GetVisibleRange@CGfxOutBarCtrl@@QAEXHAAH0@Z ; CGfxOutBarCtrl::GetVisibleRange

; 399  : 		rcUpArrow.SetRect(0,0,GetSystemMetrics(SM_CXVSCROLL), GetSystemMetrics(SM_CXVSCROLL));

  00230	6a 02		 push	 2
  00232	ff 15 00 00 00
	00		 call	 DWORD PTR __imp__GetSystemMetrics@4
  00238	6a 02		 push	 2
  0023a	8b f8		 mov	 edi, eax
  0023c	ff 15 00 00 00
	00		 call	 DWORD PTR __imp__GetSystemMetrics@4
; File C:\Program Files (x86)\Microsoft Visual Studio\2019\Community\VC\Tools\MSVC\14.29.30133\atlmfc\include\atltypes.h

; 657  : 	::SetRect(this, x1, y1, x2, y2);

  00242	57		 push	 edi
  00243	50		 push	 eax
  00244	6a 00		 push	 0
; File D:\git\src\IBK\IBK_DRFN\ProjSrc\SrcDrfn\Chart\comparechart\control\GfxOutBarCtrl.cpp

; 399  : 		rcUpArrow.SetRect(0,0,GetSystemMetrics(SM_CXVSCROLL), GetSystemMetrics(SM_CXVSCROLL));

  00246	8d 8e c4 00 00
	00		 lea	 ecx, DWORD PTR [esi+196]
; File C:\Program Files (x86)\Microsoft Visual Studio\2019\Community\VC\Tools\MSVC\14.29.30133\atlmfc\include\atltypes.h

; 657  : 	::SetRect(this, x1, y1, x2, y2);

  0024c	6a 00		 push	 0
  0024e	51		 push	 ecx
  0024f	ff 15 00 00 00
	00		 call	 DWORD PTR __imp__SetRect@20
; File D:\git\src\IBK\IBK_DRFN\ProjSrc\SrcDrfn\Chart\comparechart\control\GfxOutBarCtrl.cpp

; 400  : 		rcDownArrow = rcUpArrow;

  00255	0f 10 86 c4 00
	00 00		 movups	 xmm0, XMMWORD PTR [esi+196]

; 401  : 		rcUpArrow.OffsetRect(rc.right - 5 - GetSystemMetrics(SM_CXVSCROLL), rc.top +5);

  0025c	8b 7d e4	 mov	 edi, DWORD PTR _rc$[ebp+4]
  0025f	6a 02		 push	 2
  00261	0f 11 86 d4 00
	00 00		 movups	 XMMWORD PTR [esi+212], xmm0
  00268	83 c7 05	 add	 edi, 5
  0026b	ff 15 00 00 00
	00		 call	 DWORD PTR __imp__GetSystemMetrics@4
  00271	8b 4d e8	 mov	 ecx, DWORD PTR _rc$[ebp+8]
  00274	2b c8		 sub	 ecx, eax
; File C:\Program Files (x86)\Microsoft Visual Studio\2019\Community\VC\Tools\MSVC\14.29.30133\atlmfc\include\atltypes.h

; 710  : 	::OffsetRect(this, x, y);

  00276	8d 86 c4 00 00
	00		 lea	 eax, DWORD PTR [esi+196]
  0027c	57		 push	 edi
; File D:\git\src\IBK\IBK_DRFN\ProjSrc\SrcDrfn\Chart\comparechart\control\GfxOutBarCtrl.cpp

; 401  : 		rcUpArrow.OffsetRect(rc.right - 5 - GetSystemMetrics(SM_CXVSCROLL), rc.top +5);

  0027d	83 e9 05	 sub	 ecx, 5
; File C:\Program Files (x86)\Microsoft Visual Studio\2019\Community\VC\Tools\MSVC\14.29.30133\atlmfc\include\atltypes.h

; 710  : 	::OffsetRect(this, x, y);

  00280	51		 push	 ecx
  00281	50		 push	 eax
  00282	ff 15 00 00 00
	00		 call	 DWORD PTR __imp__OffsetRect@12
; File D:\git\src\IBK\IBK_DRFN\ProjSrc\SrcDrfn\Chart\comparechart\control\GfxOutBarCtrl.cpp

; 402  : 		rcDownArrow.OffsetRect(rc.right - 5 - GetSystemMetrics(SM_CXVSCROLL), rc.bottom - 5 - GetSystemMetrics(SM_CXVSCROLL));

  00288	6a 02		 push	 2
  0028a	ff 15 00 00 00
	00		 call	 DWORD PTR __imp__GetSystemMetrics@4
  00290	8b 7d ec	 mov	 edi, DWORD PTR _rc$[ebp+12]
  00293	2b f8		 sub	 edi, eax
  00295	6a 02		 push	 2
  00297	83 ef 05	 sub	 edi, 5
  0029a	ff 15 00 00 00
	00		 call	 DWORD PTR __imp__GetSystemMetrics@4
  002a0	8b 4d e8	 mov	 ecx, DWORD PTR _rc$[ebp+8]
  002a3	2b c8		 sub	 ecx, eax
; File C:\Program Files (x86)\Microsoft Visual Studio\2019\Community\VC\Tools\MSVC\14.29.30133\atlmfc\include\atltypes.h

; 710  : 	::OffsetRect(this, x, y);

  002a5	8d 86 d4 00 00
	00		 lea	 eax, DWORD PTR [esi+212]
  002ab	57		 push	 edi
; File D:\git\src\IBK\IBK_DRFN\ProjSrc\SrcDrfn\Chart\comparechart\control\GfxOutBarCtrl.cpp

; 402  : 		rcDownArrow.OffsetRect(rc.right - 5 - GetSystemMetrics(SM_CXVSCROLL), rc.bottom - 5 - GetSystemMetrics(SM_CXVSCROLL));

  002ac	83 e9 05	 sub	 ecx, 5
; File C:\Program Files (x86)\Microsoft Visual Studio\2019\Community\VC\Tools\MSVC\14.29.30133\atlmfc\include\atltypes.h

; 710  : 	::OffsetRect(this, x, y);

  002af	51		 push	 ecx
  002b0	50		 push	 eax
  002b1	ff 15 00 00 00
	00		 call	 DWORD PTR __imp__OffsetRect@12
; File D:\git\src\IBK\IBK_DRFN\ProjSrc\SrcDrfn\Chart\comparechart\control\GfxOutBarCtrl.cpp

; 404  : 		if (f > 0)

  002b7	83 bd 68 ff ff
	ff 00		 cmp	 DWORD PTR _f$4[ebp], 0
  002be	8b 3d 00 00 00
	00		 mov	 edi, DWORD PTR __imp__DrawFrameControl@16
  002c4	7e 4d		 jle	 SHORT $LN9@OnPaint

; 406  : 			if (bUpPressed) pDC->DrawFrameControl(rcUpArrow, DFC_SCROLL, DFCS_SCROLLUP|DFCS_PUSHED);

  002c6	80 be c2 00 00
	00 00		 cmp	 BYTE PTR [esi+194], 0
  002cd	8d 86 c4 00 00
	00		 lea	 eax, DWORD PTR [esi+196]
  002d3	74 07		 je	 SHORT $LN11@OnPaint
; File C:\Program Files (x86)\Microsoft Visual Studio\2019\Community\VC\Tools\MSVC\14.29.30133\atlmfc\include\afxwin1.inl

; 512  : 	{ ASSERT(m_hDC != NULL); return ::DrawFrameControl(m_hDC, lpRect, nType, nState); }

  002d5	68 00 02 00 00	 push	 512			; 00000200H
; File D:\git\src\IBK\IBK_DRFN\ProjSrc\SrcDrfn\Chart\comparechart\control\GfxOutBarCtrl.cpp

; 406  : 			if (bUpPressed) pDC->DrawFrameControl(rcUpArrow, DFC_SCROLL, DFCS_SCROLLUP|DFCS_PUSHED);

  002da	eb 02		 jmp	 SHORT $LN137@OnPaint
$LN11@OnPaint:
; File C:\Program Files (x86)\Microsoft Visual Studio\2019\Community\VC\Tools\MSVC\14.29.30133\atlmfc\include\afxwin1.inl

; 512  : 	{ ASSERT(m_hDC != NULL); return ::DrawFrameControl(m_hDC, lpRect, nType, nState); }

  002dc	6a 00		 push	 0
$LN137@OnPaint:
; File D:\git\src\IBK\IBK_DRFN\ProjSrc\SrcDrfn\Chart\comparechart\control\GfxOutBarCtrl.cpp

; 408  : 			bUpArrow = true;

  002de	6a 03		 push	 3
  002e0	50		 push	 eax
  002e1	ff b5 5c ff ff
	ff		 push	 DWORD PTR _memDC$[ebp+4]
  002e7	ff d7		 call	 edi

; 409  : 			pDC->ExcludeClipRect(rcUpArrow);

  002e9	8d 86 c4 00 00
	00		 lea	 eax, DWORD PTR [esi+196]
  002ef	c6 86 c0 00 00
	00 01		 mov	 BYTE PTR [esi+192], 1
  002f6	50		 push	 eax
  002f7	8d 8d 58 ff ff
	ff		 lea	 ecx, DWORD PTR _memDC$[ebp]
  002fd	e8 00 00 00 00	 call	 ?ExcludeClipRect@CDC@@QAEHPBUtagRECT@@@Z ; CDC::ExcludeClipRect

; 410  : 
; 411  : 			rc.top += (iFolderHeight + iGap);

  00302	8b 86 a4 00 00
	00		 mov	 eax, DWORD PTR [esi+164]
  00308	03 86 a0 00 00
	00		 add	 eax, DWORD PTR [esi+160]
  0030e	01 45 e4	 add	 DWORD PTR _rc$[ebp+4], eax

; 412  : 		}

  00311	eb 07		 jmp	 SHORT $LN10@OnPaint
$LN9@OnPaint:

; 413  : 		else 
; 414  : 			bUpArrow = false;

  00313	c6 86 c0 00 00
	00 00		 mov	 BYTE PTR [esi+192], 0
$LN10@OnPaint:

; 1460 : 	CBarFolder * pbf = (CBarFolder *) arFolder.GetAt(iSelFolder);

  0031a	8b 8e 34 01 00
	00		 mov	 ecx, DWORD PTR [esi+308]
; File C:\Program Files (x86)\Microsoft Visual Studio\2019\Community\VC\Tools\MSVC\14.29.30133\atlmfc\include\afxcoll.inl

; 203  : 		if( nIndex < 0 || nIndex >= m_nSize )

  00320	85 c9		 test	 ecx, ecx
  00322	0f 88 64 01 00
	00		 js	 $LN95@OnPaint
  00328	3b 8e 0c 01 00
	00		 cmp	 ecx, DWORD PTR [esi+268]
  0032e	0f 8d 58 01 00
	00		 jge	 $LN95@OnPaint
; File D:\git\src\IBK\IBK_DRFN\ProjSrc\SrcDrfn\Chart\comparechart\control\GfxOutBarCtrl.cpp

; 416  : 		if (l < GetItemCount() - 1)

  00334	8b 86 08 01 00
	00		 mov	 eax, DWORD PTR [esi+264]
  0033a	8b 04 88	 mov	 eax, DWORD PTR [eax+ecx*4]
  0033d	8b 40 1c	 mov	 eax, DWORD PTR [eax+28]
  00340	48		 dec	 eax
  00341	39 85 54 ff ff
	ff		 cmp	 DWORD PTR _l$2[ebp], eax
  00347	7d 53		 jge	 SHORT $LN13@OnPaint

; 418  : 			if (bDownPressed) pDC->DrawFrameControl(rcDownArrow, DFC_SCROLL, DFCS_SCROLLDOWN|DFCS_PUSHED);

  00349	80 be c3 00 00
	00 00		 cmp	 BYTE PTR [esi+195], 0
  00350	8d 86 d4 00 00
	00		 lea	 eax, DWORD PTR [esi+212]
  00356	74 07		 je	 SHORT $LN15@OnPaint
; File C:\Program Files (x86)\Microsoft Visual Studio\2019\Community\VC\Tools\MSVC\14.29.30133\atlmfc\include\afxwin1.inl

; 512  : 	{ ASSERT(m_hDC != NULL); return ::DrawFrameControl(m_hDC, lpRect, nType, nState); }

  00358	68 01 02 00 00	 push	 513			; 00000201H
; File D:\git\src\IBK\IBK_DRFN\ProjSrc\SrcDrfn\Chart\comparechart\control\GfxOutBarCtrl.cpp

; 418  : 			if (bDownPressed) pDC->DrawFrameControl(rcDownArrow, DFC_SCROLL, DFCS_SCROLLDOWN|DFCS_PUSHED);

  0035d	eb 02		 jmp	 SHORT $LN138@OnPaint
$LN15@OnPaint:
; File C:\Program Files (x86)\Microsoft Visual Studio\2019\Community\VC\Tools\MSVC\14.29.30133\atlmfc\include\afxwin1.inl

; 512  : 	{ ASSERT(m_hDC != NULL); return ::DrawFrameControl(m_hDC, lpRect, nType, nState); }

  0035f	6a 01		 push	 1
$LN138@OnPaint:
; File D:\git\src\IBK\IBK_DRFN\ProjSrc\SrcDrfn\Chart\comparechart\control\GfxOutBarCtrl.cpp

; 420  : 			bDownArrow = true;

  00361	6a 03		 push	 3
  00363	50		 push	 eax
  00364	ff b5 5c ff ff
	ff		 push	 DWORD PTR _memDC$[ebp+4]
  0036a	ff d7		 call	 edi

; 421  : 			pDC->ExcludeClipRect(rcDownArrow);

  0036c	8d 86 d4 00 00
	00		 lea	 eax, DWORD PTR [esi+212]
  00372	c6 86 c1 00 00
	00 01		 mov	 BYTE PTR [esi+193], 1
  00379	50		 push	 eax
  0037a	8d 8d 58 ff ff
	ff		 lea	 ecx, DWORD PTR _memDC$[ebp]
  00380	e8 00 00 00 00	 call	 ?ExcludeClipRect@CDC@@QAEHPBUtagRECT@@@Z ; CDC::ExcludeClipRect

; 422  : 
; 423  : 			rc.bottom -= (iFolderHeight + iGap);

  00385	8b 86 a4 00 00
	00		 mov	 eax, DWORD PTR [esi+164]
  0038b	03 86 a0 00 00
	00		 add	 eax, DWORD PTR [esi+160]
  00391	29 45 ec	 sub	 DWORD PTR _rc$[ebp+12], eax
  00394	8b 8e 34 01 00
	00		 mov	 ecx, DWORD PTR [esi+308]

; 424  : 		}

  0039a	eb 07		 jmp	 SHORT $LN14@OnPaint
$LN13@OnPaint:

; 425  : 		else bDownArrow = false;

  0039c	c6 86 c1 00 00
	00 00		 mov	 BYTE PTR [esi+193], 0
$LN14@OnPaint:

; 426  : 
; 427  : 		PaintItems(pDC, iSelFolder, rc);

  003a3	0f 10 45 e0	 movups	 xmm0, XMMWORD PTR _rc$[ebp]
  003a7	83 ec 10	 sub	 esp, 16			; 00000010H
  003aa	8b c4		 mov	 eax, esp
  003ac	51		 push	 ecx
  003ad	0f 11 00	 movups	 XMMWORD PTR [eax], xmm0
  003b0	8d 85 58 ff ff
	ff		 lea	 eax, DWORD PTR _memDC$[ebp]
  003b6	8b ce		 mov	 ecx, esi
  003b8	50		 push	 eax
  003b9	e8 00 00 00 00	 call	 ?PaintItems@CGfxOutBarCtrl@@QAEXPAVCDC@@HVCRect@@@Z ; CGfxOutBarCtrl::PaintItems
$LN8@OnPaint:
; File C:\Program Files (x86)\Microsoft Visual Studio\2019\Community\VC\Tools\MSVC\14.29.30133\atlmfc\include\atltypes.h

; 581  : 	return bottom - top;

  003be	8b 55 dc	 mov	 edx, DWORD PTR _clientRc$[ebp+12]
  003c1	8b 7d d4	 mov	 edi, DWORD PTR _clientRc$[ebp+4]
  003c4	2b d7		 sub	 edx, edi

; 576  : 	return right - left;

  003c6	8b 45 d8	 mov	 eax, DWORD PTR _clientRc$[ebp+8]
  003c9	8b 4d d0	 mov	 ecx, DWORD PTR _clientRc$[ebp]
  003cc	2b c1		 sub	 eax, ecx
; File C:\Program Files (x86)\Microsoft Visual Studio\2019\Community\VC\Tools\MSVC\14.29.30133\atlmfc\include\afxwin1.inl

; 552  : 	{ ASSERT(m_hDC != NULL); return ::BitBlt(m_hDC, x, y, nWidth, nHeight,

  003ce	68 20 00 cc 00	 push	 13369376		; 00cc0020H
  003d3	6a 00		 push	 0
  003d5	6a 00		 push	 0
  003d7	ff b5 5c ff ff
	ff		 push	 DWORD PTR _memDC$[ebp+4]
  003dd	52		 push	 edx
  003de	50		 push	 eax
  003df	57		 push	 edi
  003e0	51		 push	 ecx
  003e1	ff b5 70 ff ff
	ff		 push	 DWORD PTR _dc$[ebp+4]
  003e7	ff 15 00 00 00
	00		 call	 DWORD PTR __imp__BitBlt@36

; 68   : 	{ return this == NULL ? NULL : m_hObject; }

  003ed	8b 85 48 ff ff
	ff		 mov	 eax, DWORD PTR _obmp$1$[ebp]
  003f3	85 c0		 test	 eax, eax
  003f5	74 03		 je	 SHORT $LN117@OnPaint
$LN116@OnPaint:
  003f7	8b 40 04	 mov	 eax, DWORD PTR [eax+4]
$LN117@OnPaint:

; 361  : 	{ ASSERT(m_hDC != NULL); return (CBitmap*) SelectGdiObject(m_hDC, pBitmap->GetSafeHandle()); }

  003fa	50		 push	 eax
  003fb	ff b5 5c ff ff
	ff		 push	 DWORD PTR _memDC$[ebp+4]
  00401	e8 00 00 00 00	 call	 ?SelectGdiObject@CDC@@KGPAVCGdiObject@@PAUHDC__@@PAX@Z ; CDC::SelectGdiObject
; File D:\git\src\IBK\IBK_DRFN\ProjSrc\SrcDrfn\Chart\comparechart\control\GfxOutBarCtrl.cpp

; 434  : 	if (iLastFolderHighlighted >= 0)

  00406	8b 86 18 01 00
	00		 mov	 eax, DWORD PTR [esi+280]
  0040c	85 c0		 test	 eax, eax
  0040e	78 12		 js	 SHORT $LN17@OnPaint

; 435  : 	{
; 436  : 		int i = iLastFolderHighlighted;
; 437  : 		iLastFolderHighlighted = -1;
; 438  : 		HighlightFolder(i);

  00410	50		 push	 eax
  00411	8b ce		 mov	 ecx, esi
  00413	c7 86 18 01 00
	00 ff ff ff ff	 mov	 DWORD PTR [esi+280], -1
  0041d	e8 00 00 00 00	 call	 ?HighlightFolder@CGfxOutBarCtrl@@QAEXH@Z ; CGfxOutBarCtrl::HighlightFolder
$LN17@OnPaint:

; 439  : 	}
; 440  : 	if (iLastItemHighlighted >= 0)

  00422	8b 8e 24 01 00
	00		 mov	 ecx, DWORD PTR [esi+292]
  00428	85 c9		 test	 ecx, ecx
  0042a	78 1a		 js	 SHORT $LN18@OnPaint

; 441  : 	{
; 442  : 		int i = iLastItemHighlighted;
; 443  : 		iLastItemHighlighted = -1;
; 444  : 		HighlightItem(i, bPressedHighlight);

  0042c	0f b6 86 28 01
	00 00		 movzx	 eax, BYTE PTR [esi+296]
  00433	50		 push	 eax
  00434	51		 push	 ecx
  00435	8b ce		 mov	 ecx, esi
  00437	c7 86 24 01 00
	00 ff ff ff ff	 mov	 DWORD PTR [esi+292], -1
  00441	e8 00 00 00 00	 call	 ?HighlightItem@CGfxOutBarCtrl@@QAEXH_N@Z ; CGfxOutBarCtrl::HighlightItem
$LN18@OnPaint:
; File C:\Program Files (x86)\Microsoft Visual Studio\2019\Community\VC\Tools\MSVC\14.29.30133\atlmfc\include\afxwin1.inl

; 179  : 	{ }

  00446	8d 8d 4c ff ff
	ff		 lea	 ecx, DWORD PTR _bmp$[ebp]
  0044c	c7 85 4c ff ff
	ff 00 00 00 00	 mov	 DWORD PTR _bmp$[ebp], OFFSET ??_7CBitmap@@6B@
  00456	e8 00 00 00 00	 call	 ??1CGdiObject@@UAE@XZ	; CGdiObject::~CGdiObject
; File D:\git\src\IBK\IBK_DRFN\ProjSrc\SrcDrfn\Chart\comparechart\control\GfxOutBarCtrl.cpp

; 446  : }

  0045b	8d 8d 58 ff ff
	ff		 lea	 ecx, DWORD PTR _memDC$[ebp]
  00461	e8 00 00 00 00	 call	 ??1CDC@@UAE@XZ		; CDC::~CDC
  00466	8d 8d 6c ff ff
	ff		 lea	 ecx, DWORD PTR _dc$[ebp]
  0046c	e8 00 00 00 00	 call	 ??1CPaintDC@@UAE@XZ	; CPaintDC::~CPaintDC
  00471	8b 4d f4	 mov	 ecx, DWORD PTR __$EHRec$[ebp]
  00474	64 89 0d 00 00
	00 00		 mov	 DWORD PTR fs:0, ecx
  0047b	59		 pop	 ecx
  0047c	5f		 pop	 edi
  0047d	5e		 pop	 esi
  0047e	8b 4d f0	 mov	 ecx, DWORD PTR __$ArrayPad$[ebp]
  00481	33 cd		 xor	 ecx, ebp
  00483	e8 00 00 00 00	 call	 @__security_check_cookie@4
  00488	8b e5		 mov	 esp, ebp
  0048a	5d		 pop	 ebp
  0048b	c3		 ret	 0
$LN95@OnPaint:
; File C:\Program Files (x86)\Microsoft Visual Studio\2019\Community\VC\Tools\MSVC\14.29.30133\atlmfc\include\afxcoll.inl

; 204  : 			AfxThrowInvalidArgException();

  0048c	e8 00 00 00 00	 call	 ?AfxThrowInvalidArgException@@YGXXZ ; AfxThrowInvalidArgException
$LN134@OnPaint:
  00491	cc		 int	 3
_TEXT	ENDS
;	COMDAT text$x
text$x	SEGMENT
__unwindfunclet$?OnPaint@CGfxOutBarCtrl@@IAEXXZ$0:
  00000	8d 8d 6c ff ff
	ff		 lea	 ecx, DWORD PTR _dc$[ebp]
  00006	e9 00 00 00 00	 jmp	 ??1CPaintDC@@UAE@XZ	; CPaintDC::~CPaintDC
__unwindfunclet$?OnPaint@CGfxOutBarCtrl@@IAEXXZ$1:
  0000b	8d 8d 58 ff ff
	ff		 lea	 ecx, DWORD PTR _memDC$[ebp]
  00011	e9 00 00 00 00	 jmp	 ??1CDC@@UAE@XZ		; CDC::~CDC
__unwindfunclet$?OnPaint@CGfxOutBarCtrl@@IAEXXZ$2:
  00016	8d 8d 4c ff ff
	ff		 lea	 ecx, DWORD PTR _bmp$[ebp]
  0001c	e9 00 00 00 00	 jmp	 ??1CBitmap@@UAE@XZ	; CBitmap::~CBitmap
  00021	cc		 int	 3
  00022	cc		 int	 3
  00023	cc		 int	 3
  00024	cc		 int	 3
  00025	cc		 int	 3
__ehhandler$?OnPaint@CGfxOutBarCtrl@@IAEXXZ:
  00026	90		 npad	 1
  00027	90		 npad	 1
  00028	8b 54 24 08	 mov	 edx, DWORD PTR [esp+8]
  0002c	8d 42 0c	 lea	 eax, DWORD PTR [edx+12]
  0002f	8b 8a 48 ff ff
	ff		 mov	 ecx, DWORD PTR [edx-184]
  00035	33 c8		 xor	 ecx, eax
  00037	e8 00 00 00 00	 call	 @__security_check_cookie@4
  0003c	8b 4a fc	 mov	 ecx, DWORD PTR [edx-4]
  0003f	33 c8		 xor	 ecx, eax
  00041	e8 00 00 00 00	 call	 @__security_check_cookie@4
  00046	b8 00 00 00 00	 mov	 eax, OFFSET __ehfuncinfo$?OnPaint@CGfxOutBarCtrl@@IAEXXZ
  0004b	e9 00 00 00 00	 jmp	 ___CxxFrameHandler3
text$x	ENDS
?OnPaint@CGfxOutBarCtrl@@IAEXXZ ENDP			; CGfxOutBarCtrl::OnPaint
; Function compile flags: /Ogtp
; File D:\git\src\IBK\IBK_DRFN\ProjSrc\SrcDrfn\Chart\comparechart\control\GfxOutBarCtrl.cpp
; File C:\Program Files (x86)\Microsoft Visual Studio\2019\Community\VC\Tools\MSVC\14.29.30133\atlmfc\include\atltypes.h
; File C:\Program Files (x86)\Microsoft Visual Studio\2019\Community\VC\Tools\MSVC\14.29.30133\atlmfc\include\afxwin2.inl
; File C:\Program Files (x86)\Microsoft Visual Studio\2019\Community\VC\Tools\MSVC\14.29.30133\atlmfc\include\atltypes.h
; File C:\Program Files (x86)\Microsoft Visual Studio\2019\Community\VC\Tools\MSVC\14.29.30133\atlmfc\include\afxwin2.inl
; File C:\Program Files (x86)\Microsoft Visual Studio\2019\Community\VC\Tools\MSVC\14.29.30133\atlmfc\include\atltypes.h
; File C:\Program Files (x86)\Microsoft Visual Studio\2019\Community\VC\Tools\MSVC\14.29.30133\atlmfc\include\afxwin2.inl
; File C:\Program Files (x86)\Microsoft Visual Studio\2019\Community\VC\Tools\MSVC\14.29.30133\atlmfc\include\atltypes.h
; File D:\git\src\IBK\IBK_DRFN\ProjSrc\SrcDrfn\Chart\comparechart\control\GfxOutBarCtrl.cpp
; File C:\Program Files (x86)\Microsoft Visual Studio\2019\Community\VC\Tools\MSVC\14.29.30133\atlmfc\include\afxwin2.inl
; File D:\git\src\IBK\IBK_DRFN\ProjSrc\SrcDrfn\Chart\comparechart\control\GfxOutBarCtrl.cpp
; File C:\Program Files (x86)\Microsoft Visual Studio\2019\Community\VC\Tools\MSVC\14.29.30133\atlmfc\include\afxwin2.inl
; File D:\git\src\IBK\IBK_DRFN\ProjSrc\SrcDrfn\Chart\comparechart\control\GfxOutBarCtrl.cpp
; File C:\Program Files (x86)\Microsoft Visual Studio\2019\Community\VC\Tools\MSVC\14.29.30133\atlmfc\include\afxwin2.inl
; File D:\git\src\IBK\IBK_DRFN\ProjSrc\SrcDrfn\Chart\comparechart\control\GfxOutBarCtrl.cpp
;	COMDAT ?OnTimer@CGfxOutBarCtrl@@IAEXI@Z
_TEXT	SEGMENT
_pt$1 = -28						; size = 8
_rc$2 = -20						; size = 16
__$ArrayPad$ = -4					; size = 4
_nIDEvent$ = 8						; size = 4
?OnTimer@CGfxOutBarCtrl@@IAEXI@Z PROC			; CGfxOutBarCtrl::OnTimer, COMDAT
; _this$ = ecx

; 263  : {

  00000	55		 push	 ebp
  00001	8b ec		 mov	 ebp, esp
  00003	83 ec 1c	 sub	 esp, 28			; 0000001cH
  00006	a1 00 00 00 00	 mov	 eax, DWORD PTR ___security_cookie
  0000b	33 c5		 xor	 eax, ebp
  0000d	89 45 fc	 mov	 DWORD PTR __$ArrayPad$[ebp], eax

; 264  : 	if (nIDEvent == 1)

  00010	8b 45 08	 mov	 eax, DWORD PTR _nIDEvent$[ebp]
  00013	56		 push	 esi
  00014	8b f1		 mov	 esi, ecx
  00016	83 f8 01	 cmp	 eax, 1
  00019	75 70		 jne	 SHORT $LN2@OnTimer

; 265  : 	{
; 266  : 		CPoint pt(GetMessagePos());

  0001b	ff 15 00 00 00
	00		 call	 DWORD PTR __imp__GetMessagePos@0
; File C:\Program Files (x86)\Microsoft Visual Studio\2019\Community\VC\Tools\MSVC\14.29.30133\atlmfc\include\atltypes.h

; 424  : 	x = (short)LOWORD(dwPoint);

  00021	0f bf c8	 movsx	 ecx, ax

; 425  : 	y = (short)HIWORD(dwPoint);

  00024	c1 e8 10	 shr	 eax, 16			; 00000010H
  00027	98		 cwde
  00028	89 45 e8	 mov	 DWORD PTR _pt$1[ebp+4], eax
; File C:\Program Files (x86)\Microsoft Visual Studio\2019\Community\VC\Tools\MSVC\14.29.30133\atlmfc\include\afxwin2.inl

; 94   : 	{ ASSERT(::IsWindow(m_hWnd)); ::ScreenToClient(m_hWnd, lpPoint); }

  0002b	8d 45 e4	 lea	 eax, DWORD PTR _pt$1[ebp]
  0002e	50		 push	 eax
  0002f	ff 76 20	 push	 DWORD PTR [esi+32]
; File C:\Program Files (x86)\Microsoft Visual Studio\2019\Community\VC\Tools\MSVC\14.29.30133\atlmfc\include\atltypes.h

; 424  : 	x = (short)LOWORD(dwPoint);

  00032	89 4d e4	 mov	 DWORD PTR _pt$1[ebp], ecx
; File C:\Program Files (x86)\Microsoft Visual Studio\2019\Community\VC\Tools\MSVC\14.29.30133\atlmfc\include\afxwin2.inl

; 94   : 	{ ASSERT(::IsWindow(m_hWnd)); ::ScreenToClient(m_hWnd, lpPoint); }

  00035	ff 15 00 00 00
	00		 call	 DWORD PTR __imp__ScreenToClient@8

; 86   : 	{ ASSERT(::IsWindow(m_hWnd)); ::GetClientRect(m_hWnd, lpRect); }

  0003b	8d 45 ec	 lea	 eax, DWORD PTR _rc$2[ebp]
  0003e	0f 57 c0	 xorps	 xmm0, xmm0
  00041	50		 push	 eax
  00042	ff 76 20	 push	 DWORD PTR [esi+32]
; File C:\Program Files (x86)\Microsoft Visual Studio\2019\Community\VC\Tools\MSVC\14.29.30133\atlmfc\include\atltypes.h

; 528  : 	left = 0;

  00045	0f 11 45 ec	 movups	 XMMWORD PTR _rc$2[ebp], xmm0
; File C:\Program Files (x86)\Microsoft Visual Studio\2019\Community\VC\Tools\MSVC\14.29.30133\atlmfc\include\afxwin2.inl

; 86   : 	{ ASSERT(::IsWindow(m_hWnd)); ::GetClientRect(m_hWnd, lpRect); }

  00049	ff 15 00 00 00
	00		 call	 DWORD PTR __imp__GetClientRect@8
; File C:\Program Files (x86)\Microsoft Visual Studio\2019\Community\VC\Tools\MSVC\14.29.30133\atlmfc\include\atltypes.h

; 648  : 	return ::PtInRect(this, point);

  0004f	ff 75 e8	 push	 DWORD PTR _pt$1[ebp+4]
  00052	8d 45 ec	 lea	 eax, DWORD PTR _rc$2[ebp]
  00055	ff 75 e4	 push	 DWORD PTR _pt$1[ebp]
  00058	50		 push	 eax
  00059	ff 15 00 00 00
	00		 call	 DWORD PTR __imp__PtInRect@12
; File D:\git\src\IBK\IBK_DRFN\ProjSrc\SrcDrfn\Chart\comparechart\control\GfxOutBarCtrl.cpp

; 272  : 		if (!(rc.PtInRect(pt)))

  0005f	85 c0		 test	 eax, eax
  00061	0f 85 bc 00 00
	00		 jne	 $LN10@OnTimer

; 273  : 		{
; 274  : 			HighlightFolder(-1);

  00067	6a ff		 push	 -1
  00069	8b ce		 mov	 ecx, esi
  0006b	e8 00 00 00 00	 call	 ?HighlightFolder@CGfxOutBarCtrl@@QAEXH@Z ; CGfxOutBarCtrl::HighlightFolder

; 275  : 			HighlightItem(-1);

  00070	6a 00		 push	 0
  00072	6a ff		 push	 -1
  00074	8b ce		 mov	 ecx, esi
  00076	e8 00 00 00 00	 call	 ?HighlightItem@CGfxOutBarCtrl@@QAEXH_N@Z ; CGfxOutBarCtrl::HighlightItem
; File C:\Program Files (x86)\Microsoft Visual Studio\2019\Community\VC\Tools\MSVC\14.29.30133\atlmfc\include\afxwin2.inl

; 155  : 	{ ASSERT(::IsWindow(m_hWnd)); return ::KillTimer(m_hWnd, nIDEvent); }

  0007b	6a 01		 push	 1
  0007d	ff 76 20	 push	 DWORD PTR [esi+32]
  00080	ff 15 00 00 00
	00		 call	 DWORD PTR __imp__KillTimer@8
; File D:\git\src\IBK\IBK_DRFN\ProjSrc\SrcDrfn\Chart\comparechart\control\GfxOutBarCtrl.cpp

; 278  : 	}

  00086	e9 98 00 00 00	 jmp	 $LN10@OnTimer
$LN2@OnTimer:

; 279  : 	else if (nIDEvent == 3 && iLastSel >= 0)

  0008b	83 f8 03	 cmp	 eax, 3
  0008e	0f 85 8f 00 00
	00		 jne	 $LN10@OnTimer
  00094	8b 8e f4 00 00
	00		 mov	 ecx, DWORD PTR [esi+244]
  0009a	85 c9		 test	 ecx, ecx
  0009c	0f 88 81 00 00
	00		 js	 $LN10@OnTimer

; 280  : 	{
; 281  : 		iSelAnimCount ++;

  000a2	ff 86 fc 00 00
	00		 inc	 DWORD PTR [esi+252]
  000a8	8b 86 fc 00 00
	00		 mov	 eax, DWORD PTR [esi+252]

; 282  : 		if (iSelAnimCount > 10) iSelAnimCount = -1;

  000ae	83 f8 0a	 cmp	 eax, 10			; 0000000aH
  000b1	7e 0c		 jle	 SHORT $LN6@OnTimer
  000b3	c7 86 fc 00 00
	00 ff ff ff ff	 mov	 DWORD PTR [esi+252], -1
  000bd	eb 64		 jmp	 SHORT $LN10@OnTimer
$LN6@OnTimer:

; 283  : 		if (iSelAnimCount == 0)

  000bf	85 c0		 test	 eax, eax
  000c1	75 12		 jne	 SHORT $LN7@OnTimer

; 284  : 			DrawAnimItem(-1, 1, iLastSel);

  000c3	51		 push	 ecx
  000c4	6a 01		 push	 1
  000c6	6a ff		 push	 -1
  000c8	8b ce		 mov	 ecx, esi
  000ca	e8 00 00 00 00	 call	 ?DrawAnimItem@CGfxOutBarCtrl@@QAEXHHH@Z ; CGfxOutBarCtrl::DrawAnimItem
  000cf	8b 86 fc 00 00
	00		 mov	 eax, DWORD PTR [esi+252]
$LN7@OnTimer:

; 285  : 		if (iSelAnimCount == 1)

  000d5	83 f8 01	 cmp	 eax, 1
  000d8	75 17		 jne	 SHORT $LN8@OnTimer

; 286  : 			DrawAnimItem(0, 0, iLastSel);

  000da	ff b6 f4 00 00
	00		 push	 DWORD PTR [esi+244]
  000e0	8b ce		 mov	 ecx, esi
  000e2	6a 00		 push	 0
  000e4	6a 00		 push	 0
  000e6	e8 00 00 00 00	 call	 ?DrawAnimItem@CGfxOutBarCtrl@@QAEXHHH@Z ; CGfxOutBarCtrl::DrawAnimItem
  000eb	8b 86 fc 00 00
	00		 mov	 eax, DWORD PTR [esi+252]
$LN8@OnTimer:

; 287  : 		if (iSelAnimCount == 2)

  000f1	83 f8 02	 cmp	 eax, 2
  000f4	75 17		 jne	 SHORT $LN9@OnTimer

; 288  : 			DrawAnimItem(1, 1, iLastSel);

  000f6	ff b6 f4 00 00
	00		 push	 DWORD PTR [esi+244]
  000fc	8b ce		 mov	 ecx, esi
  000fe	6a 01		 push	 1
  00100	6a 01		 push	 1
  00102	e8 00 00 00 00	 call	 ?DrawAnimItem@CGfxOutBarCtrl@@QAEXHHH@Z ; CGfxOutBarCtrl::DrawAnimItem
  00107	8b 86 fc 00 00
	00		 mov	 eax, DWORD PTR [esi+252]
$LN9@OnTimer:

; 289  : 		if (iSelAnimCount == 3)

  0010d	83 f8 03	 cmp	 eax, 3
  00110	75 11		 jne	 SHORT $LN10@OnTimer

; 290  : 			DrawAnimItem(0, 0, iLastSel);

  00112	ff b6 f4 00 00
	00		 push	 DWORD PTR [esi+244]
  00118	8b ce		 mov	 ecx, esi
  0011a	6a 00		 push	 0
  0011c	6a 00		 push	 0
  0011e	e8 00 00 00 00	 call	 ?DrawAnimItem@CGfxOutBarCtrl@@QAEXHHH@Z ; CGfxOutBarCtrl::DrawAnimItem
$LN10@OnTimer:
; File C:\Program Files (x86)\Microsoft Visual Studio\2019\Community\VC\Tools\MSVC\14.29.30133\atlmfc\include\afxwin2.inl

; 466  : 	{ Default(); }

  00123	8b ce		 mov	 ecx, esi
  00125	e8 00 00 00 00	 call	 ?Default@CWnd@@IAEJXZ	; CWnd::Default
; File D:\git\src\IBK\IBK_DRFN\ProjSrc\SrcDrfn\Chart\comparechart\control\GfxOutBarCtrl.cpp

; 293  : }

  0012a	8b 4d fc	 mov	 ecx, DWORD PTR __$ArrayPad$[ebp]
  0012d	33 cd		 xor	 ecx, ebp
; File C:\Program Files (x86)\Microsoft Visual Studio\2019\Community\VC\Tools\MSVC\14.29.30133\atlmfc\include\afxwin2.inl

; 466  : 	{ Default(); }

  0012f	5e		 pop	 esi
; File D:\git\src\IBK\IBK_DRFN\ProjSrc\SrcDrfn\Chart\comparechart\control\GfxOutBarCtrl.cpp

; 293  : }

  00130	e8 00 00 00 00	 call	 @__security_check_cookie@4
  00135	8b e5		 mov	 esp, ebp
  00137	5d		 pop	 ebp
  00138	c2 04 00	 ret	 4
?OnTimer@CGfxOutBarCtrl@@IAEXI@Z ENDP			; CGfxOutBarCtrl::OnTimer
_TEXT	ENDS
; Function compile flags: /Ogtp
; File D:\git\src\IBK\IBK_DRFN\ProjSrc\SrcDrfn\Chart\comparechart\control\GfxOutBarCtrl.cpp
; File C:\Program Files (x86)\Microsoft Visual Studio\2019\Community\VC\Tools\MSVC\14.29.30133\atlmfc\include\afxwin2.inl
; File D:\git\src\IBK\IBK_DRFN\ProjSrc\SrcDrfn\Chart\comparechart\control\GfxOutBarCtrl.cpp
; File C:\Program Files (x86)\Microsoft Visual Studio\2019\Community\VC\Tools\MSVC\14.29.30133\atlmfc\include\afxwin1.inl
; File D:\git\src\IBK\IBK_DRFN\ProjSrc\SrcDrfn\Chart\comparechart\control\GfxOutBarCtrl.cpp
; File C:\Program Files (x86)\Microsoft Visual Studio\2019\Community\VC\Tools\MSVC\14.29.30133\atlmfc\include\afxwin1.inl
; File D:\git\src\IBK\IBK_DRFN\ProjSrc\SrcDrfn\Chart\comparechart\control\GfxOutBarCtrl.cpp
; File C:\Program Files (x86)\Microsoft Visual Studio\2019\Community\VC\Tools\MSVC\14.29.30133\atlmfc\include\afxwin1.inl
; File D:\git\src\IBK\IBK_DRFN\ProjSrc\SrcDrfn\Chart\comparechart\control\GfxOutBarCtrl.cpp
; File C:\Program Files (x86)\Microsoft Visual Studio\2019\Community\VC\Tools\MSVC\14.29.30133\atlmfc\include\afxwin1.inl
; File D:\git\src\IBK\IBK_DRFN\ProjSrc\SrcDrfn\Chart\comparechart\control\GfxOutBarCtrl.cpp
;	COMDAT ?OnCreate@CGfxOutBarCtrl@@IAEHPAUtagCREATESTRUCTA@@@Z
_TEXT	SEGMENT
_lfont$ = -64						; size = 60
__$ArrayPad$ = -4					; size = 4
_lpCreateStruct$ = 8					; size = 4
?OnCreate@CGfxOutBarCtrl@@IAEHPAUtagCREATESTRUCTA@@@Z PROC ; CGfxOutBarCtrl::OnCreate, COMDAT
; _this$ = ecx

; 231  : {

  00000	55		 push	 ebp
  00001	8b ec		 mov	 ebp, esp
  00003	83 ec 40	 sub	 esp, 64			; 00000040H
  00006	a1 00 00 00 00	 mov	 eax, DWORD PTR ___security_cookie
  0000b	33 c5		 xor	 eax, ebp
  0000d	89 45 fc	 mov	 DWORD PTR __$ArrayPad$[ebp], eax
  00010	56		 push	 esi
  00011	8b f1		 mov	 esi, ecx
; File C:\Program Files (x86)\Microsoft Visual Studio\2019\Community\VC\Tools\MSVC\14.29.30133\atlmfc\include\afxwin2.inl

; 296  : 	{ return (int)Default(); }

  00013	e8 00 00 00 00	 call	 ?Default@CWnd@@IAEJXZ	; CWnd::Default
; File D:\git\src\IBK\IBK_DRFN\ProjSrc\SrcDrfn\Chart\comparechart\control\GfxOutBarCtrl.cpp

; 232  : 	if (CWnd::OnCreate(lpCreateStruct) == -1)

  00018	83 f8 ff	 cmp	 eax, -1
  0001b	74 7d		 je	 SHORT $LN9@OnCreate

; 247  : 	lfont.lfClipPrecision = CLIP_DEFAULT_PRECIS; 
; 248  : 	lfont.lfQuality = DEFAULT_QUALITY;
; 249  : 	lfont.lfPitchAndFamily = FF_ROMAN; 
; 250  : 	strcpy(lfont.lfFaceName, "");

  0001d	a1 00 00 00 00	 mov	 eax, DWORD PTR ??_C@_06MFMMLLPC@?$LB?$LM?$LI?$LC?C?$LM@
  00022	0f 57 c0	 xorps	 xmm0, xmm0
  00025	89 45 dc	 mov	 DWORD PTR _lfont$[ebp+28], eax
  00028	66 a1 04 00 00
	00		 mov	 ax, WORD PTR ??_C@_06MFMMLLPC@?$LB?$LM?$LI?$LC?C?$LM@+4
  0002e	66 89 45 e0	 mov	 WORD PTR _lfont$[ebp+32], ax
  00032	a0 06 00 00 00	 mov	 al, BYTE PTR ??_C@_06MFMMLLPC@?$LB?$LM?$LI?$LC?C?$LM@+6
  00037	88 45 e2	 mov	 BYTE PTR _lfont$[ebp+34], al
; File C:\Program Files (x86)\Microsoft Visual Studio\2019\Community\VC\Tools\MSVC\14.29.30133\atlmfc\include\afxwin1.inl

; 157  : 	{ return Attach(::CreateFontIndirect(lpLogFont)); }

  0003a	8d 45 c0	 lea	 eax, DWORD PTR _lfont$[ebp]
; File D:\git\src\IBK\IBK_DRFN\ProjSrc\SrcDrfn\Chart\comparechart\control\GfxOutBarCtrl.cpp

; 237  : 	::memset(&lfont, 0x00, sizeof(LOGFONT));

  0003d	66 0f 13 45 e3	 movlpd	 QWORD PTR _lfont$[ebp+35], xmm0
  00042	66 0f 13 45 eb	 movlpd	 QWORD PTR _lfont$[ebp+43], xmm0
  00047	66 0f 13 45 f3	 movlpd	 QWORD PTR _lfont$[ebp+51], xmm0

; 238  : 	lfont.lfWidth = 0; 

  0004c	0f 28 05 00 00
	00 00		 movaps	 xmm0, XMMWORD PTR __xmm@00000190000000000000000000000000
; File C:\Program Files (x86)\Microsoft Visual Studio\2019\Community\VC\Tools\MSVC\14.29.30133\atlmfc\include\afxwin1.inl

; 157  : 	{ return Attach(::CreateFontIndirect(lpLogFont)); }

  00053	50		 push	 eax
; File D:\git\src\IBK\IBK_DRFN\ProjSrc\SrcDrfn\Chart\comparechart\control\GfxOutBarCtrl.cpp

; 237  : 	::memset(&lfont, 0x00, sizeof(LOGFONT));

  00054	c6 45 fb 00	 mov	 BYTE PTR _lfont$[ebp+59], 0

; 238  : 	lfont.lfWidth = 0; 

  00058	0f 11 45 c4	 movups	 XMMWORD PTR _lfont$[ebp+4], xmm0

; 239  : 	lfont.lfEscapement = 0; 
; 240  : 	lfont.lfOrientation = 0; 
; 241  : 	lfont.lfWeight = FW_NORMAL; 
; 242  : 	lfont.lfItalic = 0; 

  0005c	c7 45 d4 00 00
	00 01		 mov	 DWORD PTR _lfont$[ebp+20], 16777216 ; 01000000H

; 243  : 	lfont.lfUnderline = 0; 
; 244  : 	lfont.lfStrikeOut = 0; 
; 245  : 	lfont.lfCharSet = DEFAULT_CHARSET; 
; 246  : 	lfont.lfOutPrecision = OUT_DEFAULT_PRECIS; 

  00063	c7 45 d8 00 00
	00 10		 mov	 DWORD PTR _lfont$[ebp+24], 268435456 ; 10000000H

; 251  : 	lfont.lfHeight = -12;

  0006a	c7 45 c0 f4 ff
	ff ff		 mov	 DWORD PTR _lfont$[ebp], -12 ; fffffff4H
; File C:\Program Files (x86)\Microsoft Visual Studio\2019\Community\VC\Tools\MSVC\14.29.30133\atlmfc\include\afxwin1.inl

; 157  : 	{ return Attach(::CreateFontIndirect(lpLogFont)); }

  00071	ff 15 00 00 00
	00		 call	 DWORD PTR __imp__CreateFontIndirectA@4
  00077	50		 push	 eax
; File D:\git\src\IBK\IBK_DRFN\ProjSrc\SrcDrfn\Chart\comparechart\control\GfxOutBarCtrl.cpp

; 253  : 	if(!m_Font.CreateFontIndirect(&lfont))

  00078	8d 8e 54 01 00
	00		 lea	 ecx, DWORD PTR [esi+340]
; File C:\Program Files (x86)\Microsoft Visual Studio\2019\Community\VC\Tools\MSVC\14.29.30133\atlmfc\include\afxwin1.inl

; 157  : 	{ return Attach(::CreateFontIndirect(lpLogFont)); }

  0007e	e8 00 00 00 00	 call	 ?Attach@CGdiObject@@QAEHPAX@Z ; CGdiObject::Attach
; File D:\git\src\IBK\IBK_DRFN\ProjSrc\SrcDrfn\Chart\comparechart\control\GfxOutBarCtrl.cpp

; 253  : 	if(!m_Font.CreateFontIndirect(&lfont))

  00083	85 c0		 test	 eax, eax
  00085	74 13		 je	 SHORT $LN9@OnCreate

; 254  : 	{
; 255  : 		TRACE("%s[%d] : Tool Button font  !", __FILE__, __LINE__);
; 256  : 		return -1;
; 257  : 	}
; 258  : 	
; 259  : 	return 0;

  00087	33 c0		 xor	 eax, eax
  00089	5e		 pop	 esi

; 260  : }

  0008a	8b 4d fc	 mov	 ecx, DWORD PTR __$ArrayPad$[ebp]
  0008d	33 cd		 xor	 ecx, ebp
  0008f	e8 00 00 00 00	 call	 @__security_check_cookie@4
  00094	8b e5		 mov	 esp, ebp
  00096	5d		 pop	 ebp
  00097	c2 04 00	 ret	 4
$LN9@OnCreate:
  0009a	8b 4d fc	 mov	 ecx, DWORD PTR __$ArrayPad$[ebp]
  0009d	83 c8 ff	 or	 eax, -1
  000a0	33 cd		 xor	 ecx, ebp
  000a2	5e		 pop	 esi
  000a3	e8 00 00 00 00	 call	 @__security_check_cookie@4
  000a8	8b e5		 mov	 esp, ebp
  000aa	5d		 pop	 ebp
  000ab	c2 04 00	 ret	 4
?OnCreate@CGfxOutBarCtrl@@IAEHPAUtagCREATESTRUCTA@@@Z ENDP ; CGfxOutBarCtrl::OnCreate
_TEXT	ENDS
; Function compile flags: /Ogtp
; File D:\git\src\IBK\IBK_DRFN\ProjSrc\SrcDrfn\Chart\comparechart\control\GfxOutBarCtrl.cpp
; File C:\Program Files (x86)\Microsoft Visual Studio\2019\Community\VC\Tools\MSVC\14.29.30133\atlmfc\include\afxcoll.inl
; File D:\git\src\IBK\IBK_DRFN\ProjSrc\SrcDrfn\Chart\comparechart\control\GfxOutBarCtrl.cpp
; File C:\Program Files (x86)\Microsoft Visual Studio\2019\Community\VC\Tools\MSVC\14.29.30133\atlmfc\include\afxcoll.inl
; File D:\git\src\IBK\IBK_DRFN\ProjSrc\SrcDrfn\Chart\comparechart\control\GfxOutBarCtrl.cpp
; File C:\Program Files (x86)\Microsoft Visual Studio\2019\Community\VC\Tools\MSVC\14.29.30133\atlmfc\include\atlsimpstr.h
; File C:\Program Files (x86)\Microsoft Visual Studio\2019\Community\VC\Tools\MSVC\14.29.30133\atlmfc\include\afxwin1.inl
; File D:\git\src\IBK\IBK_DRFN\ProjSrc\SrcDrfn\Chart\comparechart\control\GfxOutBarCtrl.cpp
; File C:\Program Files (x86)\Microsoft Visual Studio\2019\Community\VC\Tools\MSVC\14.29.30133\atlmfc\include\afxwin1.inl
; File D:\git\src\IBK\IBK_DRFN\ProjSrc\SrcDrfn\Chart\comparechart\control\GfxOutBarCtrl.cpp
; File C:\Program Files (x86)\Microsoft Visual Studio\2019\Community\VC\Tools\MSVC\14.29.30133\atlmfc\include\afxwin1.inl
; File D:\git\src\IBK\IBK_DRFN\ProjSrc\SrcDrfn\Chart\comparechart\control\GfxOutBarCtrl.cpp
; File C:\Program Files (x86)\Microsoft Visual Studio\2019\Community\VC\Tools\MSVC\14.29.30133\atlmfc\include\afxwin2.inl
; File C:\Program Files (x86)\Microsoft Visual Studio\2019\Community\VC\Tools\MSVC\14.29.30133\atlmfc\include\atltypes.h
; File C:\Program Files (x86)\Microsoft Visual Studio\2019\Community\VC\Tools\MSVC\14.29.30133\atlmfc\include\afxwin2.inl
; File D:\git\src\IBK\IBK_DRFN\ProjSrc\SrcDrfn\Chart\comparechart\control\GfxOutBarCtrl.cpp
; File C:\Program Files (x86)\Microsoft Visual Studio\2019\Community\VC\Tools\MSVC\14.29.30133\atlmfc\include\afxwin1.inl
; File D:\git\src\IBK\IBK_DRFN\ProjSrc\SrcDrfn\Chart\comparechart\control\GfxOutBarCtrl.cpp
; File C:\Program Files (x86)\Microsoft Visual Studio\2019\Community\VC\Tools\MSVC\14.29.30133\atlmfc\include\atlsimpstr.h
; File C:\Program Files (x86)\Microsoft Visual Studio\2019\Community\VC\Tools\MSVC\14.29.30133\atlmfc\include\afxwin1.inl
; File D:\git\src\IBK\IBK_DRFN\ProjSrc\SrcDrfn\Chart\comparechart\control\GfxOutBarCtrl.cpp
; File C:\Program Files (x86)\Microsoft Visual Studio\2019\Community\VC\Tools\MSVC\14.29.30133\atlmfc\include\afxwin1.inl
; File D:\git\src\IBK\IBK_DRFN\ProjSrc\SrcDrfn\Chart\comparechart\control\GfxOutBarCtrl.cpp
; File C:\Program Files (x86)\Microsoft Visual Studio\2019\Community\VC\Tools\MSVC\14.29.30133\atlmfc\include\afxwin2.inl
; File C:\Program Files (x86)\Microsoft Visual Studio\2019\Community\VC\Tools\MSVC\14.29.30133\atlmfc\include\atltypes.h
; File C:\Program Files (x86)\Microsoft Visual Studio\2019\Community\VC\Tools\MSVC\14.29.30133\atlmfc\include\afxwin2.inl
; File D:\git\src\IBK\IBK_DRFN\ProjSrc\SrcDrfn\Chart\comparechart\control\GfxOutBarCtrl.cpp
; File C:\Program Files (x86)\Microsoft Visual Studio\2019\Community\VC\Tools\MSVC\14.29.30133\atlmfc\include\afxwin1.inl
; File D:\git\src\IBK\IBK_DRFN\ProjSrc\SrcDrfn\Chart\comparechart\control\GfxOutBarCtrl.cpp
; File C:\Program Files (x86)\Microsoft Visual Studio\2019\Community\VC\Tools\MSVC\14.29.30133\atlmfc\include\afxwin1.inl
; File D:\git\src\IBK\IBK_DRFN\ProjSrc\SrcDrfn\Chart\comparechart\control\GfxOutBarCtrl.cpp
; File C:\Program Files (x86)\Microsoft Visual Studio\2019\Community\VC\Tools\MSVC\14.29.30133\atlmfc\include\afxwin1.inl
; File D:\git\src\IBK\IBK_DRFN\ProjSrc\SrcDrfn\Chart\comparechart\control\GfxOutBarCtrl.cpp
; File C:\Program Files (x86)\Microsoft Visual Studio\2019\Community\VC\Tools\MSVC\14.29.30133\atlmfc\include\afxwin1.inl
; File D:\git\src\IBK\IBK_DRFN\ProjSrc\SrcDrfn\Chart\comparechart\control\GfxOutBarCtrl.cpp
; File C:\Program Files (x86)\Microsoft Visual Studio\2019\Community\VC\Tools\MSVC\14.29.30133\atlmfc\include\afxwin1.inl
; File D:\git\src\IBK\IBK_DRFN\ProjSrc\SrcDrfn\Chart\comparechart\control\GfxOutBarCtrl.cpp
; File C:\Program Files (x86)\Microsoft Visual Studio\2019\Community\VC\Tools\MSVC\14.29.30133\atlmfc\include\atlsimpstr.h
; File C:\Program Files (x86)\Microsoft Visual Studio\2019\Community\VC\Tools\MSVC\14.29.30133\atlmfc\include\afxwin1.inl
; File D:\git\src\IBK\IBK_DRFN\ProjSrc\SrcDrfn\Chart\comparechart\control\GfxOutBarCtrl.cpp
; File C:\Program Files (x86)\Microsoft Visual Studio\2019\Community\VC\Tools\MSVC\14.29.30133\atlmfc\include\afxwin1.inl
; File D:\git\src\IBK\IBK_DRFN\ProjSrc\SrcDrfn\Chart\comparechart\control\GfxOutBarCtrl.cpp
; File C:\Program Files (x86)\Microsoft Visual Studio\2019\Community\VC\Tools\MSVC\14.29.30133\atlmfc\include\afxwin1.inl
; File D:\git\src\IBK\IBK_DRFN\ProjSrc\SrcDrfn\Chart\comparechart\control\GfxOutBarCtrl.cpp
; File C:\Program Files (x86)\Microsoft Visual Studio\2019\Community\VC\Tools\MSVC\14.29.30133\atlmfc\include\afxwin2.inl
; File C:\Program Files (x86)\Microsoft Visual Studio\2019\Community\VC\Tools\MSVC\14.29.30133\atlmfc\include\atltypes.h
; File C:\Program Files (x86)\Microsoft Visual Studio\2019\Community\VC\Tools\MSVC\14.29.30133\atlmfc\include\afxwin2.inl
; File D:\git\src\IBK\IBK_DRFN\ProjSrc\SrcDrfn\Chart\comparechart\control\GfxOutBarCtrl.cpp
; File C:\Program Files (x86)\Microsoft Visual Studio\2019\Community\VC\Tools\MSVC\14.29.30133\atlmfc\include\atltypes.h
; File D:\git\src\IBK\IBK_DRFN\ProjSrc\SrcDrfn\Chart\comparechart\control\GfxOutBarCtrl.cpp
; File C:\Program Files (x86)\Microsoft Visual Studio\2019\Community\VC\Tools\MSVC\14.29.30133\atlmfc\include\atlsimpstr.h
; File C:\Program Files (x86)\Microsoft Visual Studio\2019\Community\VC\Tools\MSVC\14.29.30133\atlmfc\include\afxwin1.inl
; File D:\git\src\IBK\IBK_DRFN\ProjSrc\SrcDrfn\Chart\comparechart\control\GfxOutBarCtrl.cpp
; File C:\Program Files (x86)\Microsoft Visual Studio\2019\Community\VC\Tools\MSVC\14.29.30133\atlmfc\include\afxwin1.inl
; File D:\git\src\IBK\IBK_DRFN\ProjSrc\SrcDrfn\Chart\comparechart\control\GfxOutBarCtrl.cpp
; File C:\Program Files (x86)\Microsoft Visual Studio\2019\Community\VC\Tools\MSVC\14.29.30133\atlmfc\include\afxwin1.inl
; File C:\Program Files (x86)\Microsoft Visual Studio\2019\Community\VC\Tools\MSVC\14.29.30133\atlmfc\include\afxcoll.inl
; File D:\git\src\IBK\IBK_DRFN\ProjSrc\SrcDrfn\Chart\comparechart\control\GfxOutBarCtrl.cpp
;	COMDAT ?DrawFolder@CGfxOutBarCtrl@@IAEXPAVCDC@@HVCRect@@_N@Z
_TEXT	SEGMENT
_pn1$6 = -200						; size = 8
$T7 = -200						; size = 8
$T8 = -200						; size = 8
_boldfont$9 = -192					; size = 8
_pn1$10 = -192						; size = 8
_pbf$1$ = -184						; size = 4
_obk$1$ = -180						; size = 4
$T11 = -180						; size = 4
$T12 = -180						; size = 4
_this$GSCopy$1$ = -176					; size = 4
_obk$1$ = -176						; size = 4
$T13 = -176						; size = 4
$T14 = -176						; size = 4
_lfont$15 = -172					; size = 60
_rc$16 = -112						; size = 16
_rc$17 = -96						; size = 16
_rcTemp$18 = -80					; size = 16
_rcTemp2$19 = -64					; size = 16
_rc$20 = -64						; size = 16
_rcTemp$21 = -48					; size = 16
_rcTemp2$22 = -48					; size = 16
_rcTemp$23 = -32					; size = 16
$T24 = -24						; size = 8
_pn1$25 = -24						; size = 8
__$ArrayPad$ = -16					; size = 4
__$EHRec$ = -12						; size = 12
_pDC$ = 8						; size = 4
_iIdx$ = 12						; size = 4
_rect$ = 16						; size = 16
_bSelected$ = 32					; size = 1
?DrawFolder@CGfxOutBarCtrl@@IAEXPAVCDC@@HVCRect@@_N@Z PROC ; CGfxOutBarCtrl::DrawFolder, COMDAT
; _this$ = ecx

; 514  : {

  00000	55		 push	 ebp
  00001	8b ec		 mov	 ebp, esp
  00003	6a ff		 push	 -1
  00005	68 00 00 00 00	 push	 __ehhandler$?DrawFolder@CGfxOutBarCtrl@@IAEXPAVCDC@@HVCRect@@_N@Z
  0000a	64 a1 00 00 00
	00		 mov	 eax, DWORD PTR fs:0
  00010	50		 push	 eax
  00011	81 ec bc 00 00
	00		 sub	 esp, 188		; 000000bcH
  00017	a1 00 00 00 00	 mov	 eax, DWORD PTR ___security_cookie
  0001c	33 c5		 xor	 eax, ebp
  0001e	89 45 f0	 mov	 DWORD PTR __$ArrayPad$[ebp], eax
  00021	53		 push	 ebx
  00022	56		 push	 esi
  00023	57		 push	 edi
  00024	50		 push	 eax
  00025	8d 45 f4	 lea	 eax, DWORD PTR __$EHRec$[ebp]
  00028	64 a3 00 00 00
	00		 mov	 DWORD PTR fs:0, eax
  0002e	8b f9		 mov	 edi, ecx
  00030	89 bd 50 ff ff
	ff		 mov	 DWORD PTR _this$GSCopy$1$[ebp], edi
  00036	8b 4d 0c	 mov	 ecx, DWORD PTR _iIdx$[ebp]
  00039	8b 5d 08	 mov	 ebx, DWORD PTR _pDC$[ebp]
; File C:\Program Files (x86)\Microsoft Visual Studio\2019\Community\VC\Tools\MSVC\14.29.30133\atlmfc\include\afxcoll.inl

; 203  : 		if( nIndex < 0 || nIndex >= m_nSize )

  0003c	85 c9		 test	 ecx, ecx
  0003e	0f 88 9f 06 00
	00		 js	 $LN19@DrawFolder
  00044	3b 8f 0c 01 00
	00		 cmp	 ecx, DWORD PTR [edi+268]
  0004a	0f 8d 93 06 00
	00		 jge	 $LN19@DrawFolder
; File D:\git\src\IBK\IBK_DRFN\ProjSrc\SrcDrfn\Chart\comparechart\control\GfxOutBarCtrl.cpp

; 518  : 	if (!bSelected)

  00050	80 7d 20 00	 cmp	 BYTE PTR _bSelected$[ebp], 0
; File C:\Program Files (x86)\Microsoft Visual Studio\2019\Community\VC\Tools\MSVC\14.29.30133\atlmfc\include\afxcoll.inl

; 205  : 		return m_pData[nIndex]; }

  00054	8b 87 08 01 00
	00		 mov	 eax, DWORD PTR [edi+264]
  0005a	8b 04 88	 mov	 eax, DWORD PTR [eax+ecx*4]
  0005d	89 85 48 ff ff
	ff		 mov	 DWORD PTR _pbf$1$[ebp], eax
  00063	8b 87 5c 01 00
	00		 mov	 eax, DWORD PTR [edi+348]
; File D:\git\src\IBK\IBK_DRFN\ProjSrc\SrcDrfn\Chart\comparechart\control\GfxOutBarCtrl.cpp

; 518  : 	if (!bSelected)

  00069	0f 85 65 02 00
	00		 jne	 $LN2@DrawFolder

; 519  : 	{
; 520  : 		if(!m_pFolderImageList)

  0006f	85 c0		 test	 eax, eax
  00071	0f 85 29 01 00
	00		 jne	 $LN4@DrawFolder

; 521  : 		{
; 522  : 			CPen pn1(PS_SOLID, 1, crBackGroundColor1);

  00077	ff b7 84 00 00
	00		 push	 DWORD PTR [edi+132]
  0007d	8d 8d 40 ff ff
	ff		 lea	 ecx, DWORD PTR _pn1$10[ebp]
  00083	6a 01		 push	 1
  00085	50		 push	 eax
  00086	e8 00 00 00 00	 call	 ??0CPen@@QAE@HHK@Z	; CPen::CPen

; 523  : 			CPen * op = pDC->SelectObject(&pn1);

  0008b	8d 85 40 ff ff
	ff		 lea	 eax, DWORD PTR _pn1$10[ebp]
  00091	c7 45 fc 00 00
	00 00		 mov	 DWORD PTR __$EHRec$[ebp+8], 0
  00098	50		 push	 eax
  00099	8b cb		 mov	 ecx, ebx
  0009b	e8 00 00 00 00	 call	 ?SelectObject@CDC@@QAEPAVCPen@@PAV2@@Z ; CDC::SelectObject

; 524  : 			pDC->MoveTo(rect.left, rect.top);

  000a0	ff 75 14	 push	 DWORD PTR _rect$[ebp+4]
  000a3	8b f0		 mov	 esi, eax
  000a5	8b cb		 mov	 ecx, ebx
  000a7	ff 75 10	 push	 DWORD PTR _rect$[ebp]
  000aa	8d 85 38 ff ff
	ff		 lea	 eax, DWORD PTR $T8[ebp]
  000b0	50		 push	 eax
  000b1	e8 00 00 00 00	 call	 ?MoveTo@CDC@@QAE?AVCPoint@@HH@Z ; CDC::MoveTo

; 525  : 			pDC->LineTo(rect.right, rect.top);

  000b6	ff 75 14	 push	 DWORD PTR _rect$[ebp+4]
  000b9	8b cb		 mov	 ecx, ebx
  000bb	ff 75 18	 push	 DWORD PTR _rect$[ebp+8]
  000be	e8 00 00 00 00	 call	 ?LineTo@CDC@@QAEHHH@Z	; CDC::LineTo

; 526  : 			pDC->SelectObject(op);

  000c3	56		 push	 esi
  000c4	8b cb		 mov	 ecx, ebx
  000c6	e8 00 00 00 00	 call	 ?SelectObject@CDC@@QAEPAVCPen@@PAV2@@Z ; CDC::SelectObject

; 527  : 
; 528  : 			rect.top ++;

  000cb	ff 45 14	 inc	 DWORD PTR _rect$[ebp+4]

; 529  : 			pDC->FillSolidRect(rect, RGB(255,255,255));

  000ce	8d 45 10	 lea	 eax, DWORD PTR _rect$[ebp]
  000d1	68 ff ff ff 00	 push	 16777215		; 00ffffffH
  000d6	50		 push	 eax
  000d7	8b cb		 mov	 ecx, ebx
  000d9	e8 00 00 00 00	 call	 ?FillSolidRect@CDC@@QAEXPBUtagRECT@@K@Z ; CDC::FillSolidRect

; 530  : 			rect.left +=2;
; 531  : 			rect.top +=2;
; 532  : 			pDC->FillSolidRect(rect, cr3dUnFace);

  000de	ff b7 94 00 00
	00		 push	 DWORD PTR [edi+148]
  000e4	83 45 10 02	 add	 DWORD PTR _rect$[ebp], 2
  000e8	8d 45 10	 lea	 eax, DWORD PTR _rect$[ebp]
  000eb	83 45 14 02	 add	 DWORD PTR _rect$[ebp+4], 2
  000ef	8b cb		 mov	 ecx, ebx
  000f1	50		 push	 eax
  000f2	e8 00 00 00 00	 call	 ?FillSolidRect@CDC@@QAEXPBUtagRECT@@K@Z ; CDC::FillSolidRect

; 533  : 			int obk = pDC->SetBkMode(TRANSPARENT);

  000f7	6a 01		 push	 1
  000f9	8b cb		 mov	 ecx, ebx
  000fb	e8 00 00 00 00	 call	 ?SetBkMode@CDC@@QAEHH@Z	; CDC::SetBkMode

; 534  : //			CFont * of = pDC->SelectObject(CFont::FromHandle((HFONT)GetStockObject(DEFAULT_GUI_FONT)));
; 535  : 			CFont * of = pDC->SelectObject(&m_Font);

  00100	8b 8d 50 ff ff
	ff		 mov	 ecx, DWORD PTR _this$GSCopy$1$[ebp]
  00106	8b f8		 mov	 edi, eax
  00108	8b 13		 mov	 edx, DWORD PTR [ebx]
  0010a	81 c1 54 01 00
	00		 add	 ecx, 340		; 00000154H
  00110	51		 push	 ecx
  00111	8b cb		 mov	 ecx, ebx
  00113	ff 52 30	 call	 DWORD PTR [edx+48]

; 536  : 			pDC->SetTextColor(RGB(0,0,0));

  00116	8b 13		 mov	 edx, DWORD PTR [ebx]
  00118	8b cb		 mov	 ecx, ebx
  0011a	6a 00		 push	 0
  0011c	8b f0		 mov	 esi, eax
  0011e	ff 52 38	 call	 DWORD PTR [edx+56]

; 537  : 			pDC->DrawText(CString(pbf->cName), rect, DT_CENTER|DT_VCENTER|DT_SINGLELINE);

  00121	8b 85 48 ff ff
	ff		 mov	 eax, DWORD PTR _pbf$1$[ebp]
  00127	8d 8d 50 ff ff
	ff		 lea	 ecx, DWORD PTR $T14[ebp]
  0012d	ff 70 04	 push	 DWORD PTR [eax+4]
  00130	ff 15 00 00 00
	00		 call	 DWORD PTR __imp_??0?$CStringT@DV?$StrTraitMFC_DLL@DV?$ChTraitsCRT@D@ATL@@@@@ATL@@QAE@PBD@Z
; File C:\Program Files (x86)\Microsoft Visual Studio\2019\Community\VC\Tools\MSVC\14.29.30133\atlmfc\include\atlsimpstr.h

; 519  : 		return( GetData()->nDataLength );

  00136	8b 00		 mov	 eax, DWORD PTR [eax]
; File C:\Program Files (x86)\Microsoft Visual Studio\2019\Community\VC\Tools\MSVC\14.29.30133\atlmfc\include\afxwin1.inl

; 600  : 		return _AFX_FUNCNAME(DrawText)((LPCTSTR)str, (int)str.GetLength(), lpRect, nFormat); }

  00138	8d 4d 10	 lea	 ecx, DWORD PTR _rect$[ebp]
  0013b	8b 13		 mov	 edx, DWORD PTR [ebx]
  0013d	6a 25		 push	 37			; 00000025H
  0013f	51		 push	 ecx
  00140	ff 70 f4	 push	 DWORD PTR [eax-12]
  00143	8b cb		 mov	 ecx, ebx
; File D:\git\src\IBK\IBK_DRFN\ProjSrc\SrcDrfn\Chart\comparechart\control\GfxOutBarCtrl.cpp

; 537  : 			pDC->DrawText(CString(pbf->cName), rect, DT_CENTER|DT_VCENTER|DT_SINGLELINE);

  00145	c6 45 fc 01	 mov	 BYTE PTR __$EHRec$[ebp+8], 1
; File C:\Program Files (x86)\Microsoft Visual Studio\2019\Community\VC\Tools\MSVC\14.29.30133\atlmfc\include\afxwin1.inl

; 600  : 		return _AFX_FUNCNAME(DrawText)((LPCTSTR)str, (int)str.GetLength(), lpRect, nFormat); }

  00149	50		 push	 eax
  0014a	ff 52 70	 call	 DWORD PTR [edx+112]
; File D:\git\src\IBK\IBK_DRFN\ProjSrc\SrcDrfn\Chart\comparechart\control\GfxOutBarCtrl.cpp

; 537  : 			pDC->DrawText(CString(pbf->cName), rect, DT_CENTER|DT_VCENTER|DT_SINGLELINE);

  0014d	8d 8d 50 ff ff
	ff		 lea	 ecx, DWORD PTR $T14[ebp]
  00153	c6 45 fc 00	 mov	 BYTE PTR __$EHRec$[ebp+8], 0
  00157	ff 15 00 00 00
	00		 call	 DWORD PTR __imp_??1?$CStringT@DV?$StrTraitMFC_DLL@DV?$ChTraitsCRT@D@ATL@@@@@ATL@@QAE@XZ

; 538  : 			pDC->SetBkMode(obk);

  0015d	57		 push	 edi
  0015e	8b cb		 mov	 ecx, ebx
  00160	e8 00 00 00 00	 call	 ?SetBkMode@CDC@@QAEHH@Z	; CDC::SetBkMode

; 539  : 			pDC->SelectObject(of);

  00165	8b 03		 mov	 eax, DWORD PTR [ebx]
  00167	8b cb		 mov	 ecx, ebx
  00169	56		 push	 esi
  0016a	ff 50 30	 call	 DWORD PTR [eax+48]
; File C:\Program Files (x86)\Microsoft Visual Studio\2019\Community\VC\Tools\MSVC\14.29.30133\atlmfc\include\afxwin1.inl

; 106  : 	{ }

  0016d	c7 85 40 ff ff
	ff 00 00 00 00	 mov	 DWORD PTR _pn1$10[ebp], OFFSET ??_7CPen@@6B@
  00177	8d 8d 40 ff ff
	ff		 lea	 ecx, DWORD PTR _pn1$10[ebp]
$LN155@DrawFolder:
; File D:\git\src\IBK\IBK_DRFN\ProjSrc\SrcDrfn\Chart\comparechart\control\GfxOutBarCtrl.cpp

; 699  : }

  0017d	e8 00 00 00 00	 call	 ??1CGdiObject@@UAE@XZ	; CGdiObject::~CGdiObject
$LN112@DrawFolder:
  00182	8b 4d f4	 mov	 ecx, DWORD PTR __$EHRec$[ebp]
  00185	64 89 0d 00 00
	00 00		 mov	 DWORD PTR fs:0, ecx
  0018c	59		 pop	 ecx
  0018d	5f		 pop	 edi
  0018e	5e		 pop	 esi
  0018f	5b		 pop	 ebx
  00190	8b 4d f0	 mov	 ecx, DWORD PTR __$ArrayPad$[ebp]
  00193	33 cd		 xor	 ecx, ebp
  00195	e8 00 00 00 00	 call	 @__security_check_cookie@4
  0019a	8b e5		 mov	 esp, ebp
  0019c	5d		 pop	 ebp
  0019d	c2 1c 00	 ret	 28			; 0000001cH
$LN4@DrawFolder:
; File C:\Program Files (x86)\Microsoft Visual Studio\2019\Community\VC\Tools\MSVC\14.29.30133\atlmfc\include\afxwin2.inl

; 86   : 	{ ASSERT(::IsWindow(m_hWnd)); ::GetClientRect(m_hWnd, lpRect); }

  001a0	8d 45 c0	 lea	 eax, DWORD PTR _rc$20[ebp]
  001a3	0f 57 c0	 xorps	 xmm0, xmm0
  001a6	50		 push	 eax
  001a7	ff 77 20	 push	 DWORD PTR [edi+32]
; File C:\Program Files (x86)\Microsoft Visual Studio\2019\Community\VC\Tools\MSVC\14.29.30133\atlmfc\include\atltypes.h

; 528  : 	left = 0;

  001aa	0f 11 45 c0	 movups	 XMMWORD PTR _rc$20[ebp], xmm0
; File C:\Program Files (x86)\Microsoft Visual Studio\2019\Community\VC\Tools\MSVC\14.29.30133\atlmfc\include\afxwin2.inl

; 86   : 	{ ASSERT(::IsWindow(m_hWnd)); ::GetClientRect(m_hWnd, lpRect); }

  001ae	ff 15 00 00 00
	00		 call	 DWORD PTR __imp__GetClientRect@8
; File D:\git\src\IBK\IBK_DRFN\ProjSrc\SrcDrfn\Chart\comparechart\control\GfxOutBarCtrl.cpp

; 559  : 			rcTemp.top = rect.top;

  001b4	8b 45 14	 mov	 eax, DWORD PTR _rect$[ebp+4]

; 560  : 			rcTemp.bottom = rc.bottom + 2;
; 561  : 			rcTemp.left = rect.left;
; 562  : 			rcTemp.right = rect.right;
; 563  : 			//2006.12.07   
; 564  : 			//LeftBar     
; 565  : 			//pDC->FillSolidRect(rcTemp, RGB(239,242,247));
; 566  : //@ pDC->FillSolidRect(rcTemp, RGB(208,186,21));
; 567  : 			pDC->FillSolidRect(rcTemp, RGB(0,0,0));

  001b7	8b cb		 mov	 ecx, ebx
  001b9	89 45 e4	 mov	 DWORD PTR _rcTemp$23[ebp+4], eax
  001bc	8b 45 cc	 mov	 eax, DWORD PTR _rc$20[ebp+12]
  001bf	83 c0 02	 add	 eax, 2
  001c2	89 45 ec	 mov	 DWORD PTR _rcTemp$23[ebp+12], eax
  001c5	8b 45 10	 mov	 eax, DWORD PTR _rect$[ebp]
  001c8	89 45 e0	 mov	 DWORD PTR _rcTemp$23[ebp], eax
  001cb	8b 45 18	 mov	 eax, DWORD PTR _rect$[ebp+8]
  001ce	89 45 e8	 mov	 DWORD PTR _rcTemp$23[ebp+8], eax
  001d1	8d 45 e0	 lea	 eax, DWORD PTR _rcTemp$23[ebp]
  001d4	6a 00		 push	 0
  001d6	50		 push	 eax
  001d7	e8 00 00 00 00	 call	 ?FillSolidRect@CDC@@QAEXPBUtagRECT@@K@Z ; CDC::FillSolidRect

; 568  : 			rcTemp.top = rect.top + 1 ;

  001dc	8b 45 14	 mov	 eax, DWORD PTR _rect$[ebp+4]

; 569  : 			pDC->FillSolidRect(rcTemp, RGB(255,255,255));

  001df	8b cb		 mov	 ecx, ebx
  001e1	40		 inc	 eax
  001e2	89 45 e4	 mov	 DWORD PTR _rcTemp$23[ebp+4], eax
  001e5	8d 45 e0	 lea	 eax, DWORD PTR _rcTemp$23[ebp]
  001e8	68 ff ff ff 00	 push	 16777215		; 00ffffffH
  001ed	50		 push	 eax
  001ee	e8 00 00 00 00	 call	 ?FillSolidRect@CDC@@QAEXPBUtagRECT@@K@Z ; CDC::FillSolidRect

; 570  : 			rcTemp2.top = rect.top + 2 ;

  001f3	8b 45 14	 mov	 eax, DWORD PTR _rect$[ebp+4]

; 571  : 			rcTemp2.bottom = rc.bottom + 2;
; 572  : 			rcTemp2.left = rect.left;
; 573  : 			rcTemp2.right = rect.right;
; 574  : //@ pDC->FillSolidRect(rcTemp2, RGB(255,253,225));
; 575  : 			pDC->FillSolidRect(rcTemp2, RGB(227,227,227));

  001f6	8b cb		 mov	 ecx, ebx
  001f8	83 c0 02	 add	 eax, 2
  001fb	89 45 d4	 mov	 DWORD PTR _rcTemp2$22[ebp+4], eax
  001fe	8b 45 cc	 mov	 eax, DWORD PTR _rc$20[ebp+12]
  00201	83 c0 02	 add	 eax, 2
  00204	89 45 dc	 mov	 DWORD PTR _rcTemp2$22[ebp+12], eax
  00207	8b 45 10	 mov	 eax, DWORD PTR _rect$[ebp]
  0020a	89 45 d0	 mov	 DWORD PTR _rcTemp2$22[ebp], eax
  0020d	8b 45 18	 mov	 eax, DWORD PTR _rect$[ebp+8]
  00210	89 45 d8	 mov	 DWORD PTR _rcTemp2$22[ebp+8], eax
  00213	8d 45 d0	 lea	 eax, DWORD PTR _rcTemp2$22[ebp]
  00216	68 e3 e3 e3 00	 push	 14935011		; 00e3e3e3H
  0021b	50		 push	 eax
  0021c	e8 00 00 00 00	 call	 ?FillSolidRect@CDC@@QAEXPBUtagRECT@@K@Z ; CDC::FillSolidRect

; 576  : 			//2006.12.07  end
; 577  : 			//end
; 578  : 			
; 579  : 			int obk = pDC->SetBkMode(TRANSPARENT);

  00221	6a 01		 push	 1
  00223	8b cb		 mov	 ecx, ebx
  00225	e8 00 00 00 00	 call	 ?SetBkMode@CDC@@QAEHH@Z	; CDC::SetBkMode

; 580  : 			//2006.12.07   
; 581  : 			//LeftBar     
; 582  : 			//m_pFolderImageList->Draw(pDC, m_nNormal, CPoint(rect.left, rect.top), ILD_TRANSPARENT);
; 583  : 			m_pFolderImageList->Draw(pDC, m_nNormal, CPoint(rect.left, rect.top + 1), ILD_TRANSPARENT);		

  0022a	8b 97 5c 01 00
	00		 mov	 edx, DWORD PTR [edi+348]
  00230	89 85 4c ff ff
	ff		 mov	 DWORD PTR _obk$1$[ebp], eax
  00236	8b 45 14	 mov	 eax, DWORD PTR _rect$[ebp+4]
  00239	40		 inc	 eax
; File C:\Program Files (x86)\Microsoft Visual Studio\2019\Community\VC\Tools\MSVC\14.29.30133\atlmfc\include\afxwin1.inl

; 316  : 	{ return this == NULL ? NULL : m_hDC; }

  0023a	85 db		 test	 ebx, ebx
  0023c	75 04		 jne	 SHORT $LN47@DrawFolder
  0023e	33 c9		 xor	 ecx, ecx
  00240	eb 03		 jmp	 SHORT $LN48@DrawFolder
$LN47@DrawFolder:
  00242	8b 4b 04	 mov	 ecx, DWORD PTR [ebx+4]
$LN48@DrawFolder:

; 871  : 	{ ASSERT(m_hImageList != NULL); ASSERT(pDC != NULL); return ImageList_Draw(m_hImageList, nImage, pDC->GetSafeHdc(), pt.x, pt.y, nStyle); }

  00245	6a 01		 push	 1
  00247	50		 push	 eax
  00248	ff 75 10	 push	 DWORD PTR _rect$[ebp]
  0024b	51		 push	 ecx
  0024c	ff b7 60 01 00
	00		 push	 DWORD PTR [edi+352]
  00252	ff 72 04	 push	 DWORD PTR [edx+4]
  00255	ff 15 00 00 00
	00		 call	 DWORD PTR __imp__ImageList_Draw@24
; File D:\git\src\IBK\IBK_DRFN\ProjSrc\SrcDrfn\Chart\comparechart\control\GfxOutBarCtrl.cpp

; 586  : 			CFont * of = pDC->SelectObject(&m_Font);

  0025b	8b 13		 mov	 edx, DWORD PTR [ebx]
  0025d	8d 87 54 01 00
	00		 lea	 eax, DWORD PTR [edi+340]
  00263	50		 push	 eax
  00264	8b cb		 mov	 ecx, ebx
  00266	ff 52 30	 call	 DWORD PTR [edx+48]

; 587  : 			pDC->SetTextColor(RGB(0,0,0));

  00269	8b 13		 mov	 edx, DWORD PTR [ebx]
  0026b	8b cb		 mov	 ecx, ebx
  0026d	6a 00		 push	 0
  0026f	8b f0		 mov	 esi, eax
  00271	ff 52 38	 call	 DWORD PTR [edx+56]

; 589  : 			pDC->DrawText(CString(pbf->cName), rect, DT_LEFT|DT_VCENTER|DT_SINGLELINE);

  00274	8b 85 48 ff ff
	ff		 mov	 eax, DWORD PTR _pbf$1$[ebp]
  0027a	8d 8d 50 ff ff
	ff		 lea	 ecx, DWORD PTR $T13[ebp]
  00280	83 45 10 19	 add	 DWORD PTR _rect$[ebp], 25 ; 00000019H
  00284	ff 70 04	 push	 DWORD PTR [eax+4]
  00287	ff 15 00 00 00
	00		 call	 DWORD PTR __imp_??0?$CStringT@DV?$StrTraitMFC_DLL@DV?$ChTraitsCRT@D@ATL@@@@@ATL@@QAE@PBD@Z
; File C:\Program Files (x86)\Microsoft Visual Studio\2019\Community\VC\Tools\MSVC\14.29.30133\atlmfc\include\atlsimpstr.h

; 519  : 		return( GetData()->nDataLength );

  0028d	8b 00		 mov	 eax, DWORD PTR [eax]
; File C:\Program Files (x86)\Microsoft Visual Studio\2019\Community\VC\Tools\MSVC\14.29.30133\atlmfc\include\afxwin1.inl

; 600  : 		return _AFX_FUNCNAME(DrawText)((LPCTSTR)str, (int)str.GetLength(), lpRect, nFormat); }

  0028f	8d 4d 10	 lea	 ecx, DWORD PTR _rect$[ebp]
  00292	8b 13		 mov	 edx, DWORD PTR [ebx]
  00294	6a 24		 push	 36			; 00000024H
  00296	51		 push	 ecx
  00297	ff 70 f4	 push	 DWORD PTR [eax-12]
  0029a	8b cb		 mov	 ecx, ebx
; File D:\git\src\IBK\IBK_DRFN\ProjSrc\SrcDrfn\Chart\comparechart\control\GfxOutBarCtrl.cpp

; 589  : 			pDC->DrawText(CString(pbf->cName), rect, DT_LEFT|DT_VCENTER|DT_SINGLELINE);

  0029c	c7 45 fc 02 00
	00 00		 mov	 DWORD PTR __$EHRec$[ebp+8], 2
; File C:\Program Files (x86)\Microsoft Visual Studio\2019\Community\VC\Tools\MSVC\14.29.30133\atlmfc\include\afxwin1.inl

; 600  : 		return _AFX_FUNCNAME(DrawText)((LPCTSTR)str, (int)str.GetLength(), lpRect, nFormat); }

  002a3	50		 push	 eax
  002a4	ff 52 70	 call	 DWORD PTR [edx+112]
; File D:\git\src\IBK\IBK_DRFN\ProjSrc\SrcDrfn\Chart\comparechart\control\GfxOutBarCtrl.cpp

; 589  : 			pDC->DrawText(CString(pbf->cName), rect, DT_LEFT|DT_VCENTER|DT_SINGLELINE);

  002a7	8d 8d 50 ff ff
	ff		 lea	 ecx, DWORD PTR $T13[ebp]
  002ad	c7 45 fc ff ff
	ff ff		 mov	 DWORD PTR __$EHRec$[ebp+8], -1
  002b4	ff 15 00 00 00
	00		 call	 DWORD PTR __imp_??1?$CStringT@DV?$StrTraitMFC_DLL@DV?$ChTraitsCRT@D@ATL@@@@@ATL@@QAE@XZ

; 590  : 			pDC->SetBkMode(obk);

  002ba	ff b5 4c ff ff
	ff		 push	 DWORD PTR _obk$1$[ebp]
  002c0	8b cb		 mov	 ecx, ebx
  002c2	e8 00 00 00 00	 call	 ?SetBkMode@CDC@@QAEHH@Z	; CDC::SetBkMode

; 591  : 			pDC->SelectObject(of);

  002c7	8b 03		 mov	 eax, DWORD PTR [ebx]
  002c9	8b cb		 mov	 ecx, ebx
  002cb	56		 push	 esi
  002cc	ff 50 30	 call	 DWORD PTR [eax+48]

; 592  : 		}
; 593  : 	}

  002cf	e9 ae fe ff ff	 jmp	 $LN112@DrawFolder
$LN2@DrawFolder:

; 594  : 	else
; 595  : 	{
; 596  : 		if(m_pFolderImageList)

  002d4	85 c0		 test	 eax, eax
  002d6	0f 84 82 02 00
	00		 je	 $LN6@DrawFolder
; File C:\Program Files (x86)\Microsoft Visual Studio\2019\Community\VC\Tools\MSVC\14.29.30133\atlmfc\include\afxwin2.inl

; 86   : 	{ ASSERT(::IsWindow(m_hWnd)); ::GetClientRect(m_hWnd, lpRect); }

  002dc	8d 45 a0	 lea	 eax, DWORD PTR _rc$17[ebp]
  002df	0f 57 c0	 xorps	 xmm0, xmm0
  002e2	50		 push	 eax
  002e3	ff 77 20	 push	 DWORD PTR [edi+32]
; File C:\Program Files (x86)\Microsoft Visual Studio\2019\Community\VC\Tools\MSVC\14.29.30133\atlmfc\include\atltypes.h

; 528  : 	left = 0;

  002e6	0f 11 45 a0	 movups	 XMMWORD PTR _rc$17[ebp], xmm0
; File C:\Program Files (x86)\Microsoft Visual Studio\2019\Community\VC\Tools\MSVC\14.29.30133\atlmfc\include\afxwin2.inl

; 86   : 	{ ASSERT(::IsWindow(m_hWnd)); ::GetClientRect(m_hWnd, lpRect); }

  002ea	ff 15 00 00 00
	00		 call	 DWORD PTR __imp__GetClientRect@8
; File D:\git\src\IBK\IBK_DRFN\ProjSrc\SrcDrfn\Chart\comparechart\control\GfxOutBarCtrl.cpp

; 602  : 			rcTemp.top = rect.top;

  002f0	8b 45 14	 mov	 eax, DWORD PTR _rect$[ebp+4]

; 603  : 			rcTemp.bottom = rc.bottom - (arFolder.GetSize() - iSelFolder - 1)*(iFolderHeight+iGap);

  002f3	8b 8f 0c 01 00
	00		 mov	 ecx, DWORD PTR [edi+268]
  002f9	2b 8f 34 01 00
	00		 sub	 ecx, DWORD PTR [edi+308]
  002ff	89 45 d4	 mov	 DWORD PTR _rcTemp$21[ebp+4], eax
  00302	49		 dec	 ecx
  00303	8b 87 a0 00 00
	00		 mov	 eax, DWORD PTR [edi+160]
  00309	03 87 a4 00 00
	00		 add	 eax, DWORD PTR [edi+164]
  0030f	0f af c8	 imul	 ecx, eax
  00312	8b 45 ac	 mov	 eax, DWORD PTR _rc$17[ebp+12]

; 604  : 			rcTemp.left = rect.left;
; 605  : 			rcTemp.right = rect.right;
; 606  : 			//2006.12.07   
; 607  : 			//LeftBar     
; 608  : 			//pDC->FillSolidRect(rcTemp, RGB(239,242,247));
; 609  : //@	pDC->FillSolidRect(rcTemp, RGB(208,186,21));
; 610  : 			pDC->FillSolidRect(rcTemp, RGB(0,0,0));

  00315	6a 00		 push	 0
  00317	2b c1		 sub	 eax, ecx
  00319	8b cb		 mov	 ecx, ebx
  0031b	89 45 dc	 mov	 DWORD PTR _rcTemp$21[ebp+12], eax
  0031e	8b 45 10	 mov	 eax, DWORD PTR _rect$[ebp]
  00321	89 45 d0	 mov	 DWORD PTR _rcTemp$21[ebp], eax
  00324	8b 45 18	 mov	 eax, DWORD PTR _rect$[ebp+8]
  00327	89 45 d8	 mov	 DWORD PTR _rcTemp$21[ebp+8], eax
  0032a	8d 45 d0	 lea	 eax, DWORD PTR _rcTemp$21[ebp]
  0032d	50		 push	 eax
  0032e	e8 00 00 00 00	 call	 ?FillSolidRect@CDC@@QAEXPBUtagRECT@@K@Z ; CDC::FillSolidRect

; 611  : 			rcTemp.top = rect.top + 1 ;

  00333	8b 45 14	 mov	 eax, DWORD PTR _rect$[ebp+4]

; 612  : 			pDC->FillSolidRect(rcTemp, RGB(255,255,255));

  00336	8b cb		 mov	 ecx, ebx
  00338	40		 inc	 eax
  00339	89 45 d4	 mov	 DWORD PTR _rcTemp$21[ebp+4], eax
  0033c	8d 45 d0	 lea	 eax, DWORD PTR _rcTemp$21[ebp]
  0033f	68 ff ff ff 00	 push	 16777215		; 00ffffffH
  00344	50		 push	 eax
  00345	e8 00 00 00 00	 call	 ?FillSolidRect@CDC@@QAEXPBUtagRECT@@K@Z ; CDC::FillSolidRect

; 613  : 			rcTemp2.top = rect.top + 2 ;

  0034a	8b 45 14	 mov	 eax, DWORD PTR _rect$[ebp+4]

; 614  : 			rcTemp2.bottom = rc.bottom - (arFolder.GetSize() - iSelFolder - 1)*(iFolderHeight+iGap);

  0034d	8b 8f 0c 01 00
	00		 mov	 ecx, DWORD PTR [edi+268]
  00353	83 c0 02	 add	 eax, 2
  00356	2b 8f 34 01 00
	00		 sub	 ecx, DWORD PTR [edi+308]
  0035c	89 45 c4	 mov	 DWORD PTR _rcTemp2$19[ebp+4], eax
  0035f	49		 dec	 ecx
  00360	8b 87 a0 00 00
	00		 mov	 eax, DWORD PTR [edi+160]
  00366	03 87 a4 00 00
	00		 add	 eax, DWORD PTR [edi+164]
  0036c	0f af c8	 imul	 ecx, eax
  0036f	8b 45 ac	 mov	 eax, DWORD PTR _rc$17[ebp+12]

; 615  : 			rcTemp2.left = rect.left;
; 616  : 			rcTemp2.right = rect.right;
; 617  : //@ pDC->FillSolidRect(rcTemp2, RGB(255,253,225));
; 618  : 			pDC->FillSolidRect(rcTemp2, RGB(227,227,227));

  00372	68 e3 e3 e3 00	 push	 14935011		; 00e3e3e3H
  00377	2b c1		 sub	 eax, ecx
  00379	8b cb		 mov	 ecx, ebx
  0037b	89 45 cc	 mov	 DWORD PTR _rcTemp2$19[ebp+12], eax
  0037e	8b 45 10	 mov	 eax, DWORD PTR _rect$[ebp]
  00381	89 45 c0	 mov	 DWORD PTR _rcTemp2$19[ebp], eax
  00384	8b 45 18	 mov	 eax, DWORD PTR _rect$[ebp+8]
  00387	89 45 c8	 mov	 DWORD PTR _rcTemp2$19[ebp+8], eax
  0038a	8d 45 c0	 lea	 eax, DWORD PTR _rcTemp2$19[ebp]
  0038d	50		 push	 eax
  0038e	e8 00 00 00 00	 call	 ?FillSolidRect@CDC@@QAEXPBUtagRECT@@K@Z ; CDC::FillSolidRect

; 619  : 			//2006.12.07  end
; 620  : 			//end
; 621  : 			
; 622  : 
; 623  : 			//rect.top ++;
; 624  : 			int obk = pDC->SetBkMode(TRANSPARENT);

  00393	6a 01		 push	 1
  00395	8b cb		 mov	 ecx, ebx
  00397	e8 00 00 00 00	 call	 ?SetBkMode@CDC@@QAEHH@Z	; CDC::SetBkMode

; 625  : 			//2006.12.07   
; 626  : 			//LeftBar     
; 627  : 			//m_pFolderImageList->Draw(pDC, m_nDown, CPoint(rect.left, rect.top), ILD_TRANSPARENT);
; 628  : 			m_pFolderImageList->Draw(pDC, m_nDown, CPoint(rect.left, rect.top + 1), ILD_TRANSPARENT);

  0039c	8b 97 5c 01 00
	00		 mov	 edx, DWORD PTR [edi+348]
  003a2	89 85 50 ff ff
	ff		 mov	 DWORD PTR _obk$1$[ebp], eax
  003a8	8b 45 14	 mov	 eax, DWORD PTR _rect$[ebp+4]
  003ab	40		 inc	 eax
; File C:\Program Files (x86)\Microsoft Visual Studio\2019\Community\VC\Tools\MSVC\14.29.30133\atlmfc\include\afxwin1.inl

; 316  : 	{ return this == NULL ? NULL : m_hDC; }

  003ac	85 db		 test	 ebx, ebx
  003ae	75 04		 jne	 SHORT $LN71@DrawFolder
  003b0	33 c9		 xor	 ecx, ecx
  003b2	eb 03		 jmp	 SHORT $LN72@DrawFolder
$LN71@DrawFolder:
  003b4	8b 4b 04	 mov	 ecx, DWORD PTR [ebx+4]
$LN72@DrawFolder:

; 871  : 	{ ASSERT(m_hImageList != NULL); ASSERT(pDC != NULL); return ImageList_Draw(m_hImageList, nImage, pDC->GetSafeHdc(), pt.x, pt.y, nStyle); }

  003b7	6a 01		 push	 1
  003b9	50		 push	 eax
  003ba	ff 75 10	 push	 DWORD PTR _rect$[ebp]
  003bd	51		 push	 ecx
  003be	ff b7 64 01 00
	00		 push	 DWORD PTR [edi+356]
  003c4	ff 72 04	 push	 DWORD PTR [edx+4]
  003c7	ff 15 00 00 00
	00		 call	 DWORD PTR __imp__ImageList_Draw@24
; File D:\git\src\IBK\IBK_DRFN\ProjSrc\SrcDrfn\Chart\comparechart\control\GfxOutBarCtrl.cpp

; 632  : 			CPen pn1(PS_SOLID, 1, RGB(186,186,186));

  003cd	68 ba ba ba 00	 push	 12237498		; 00bababaH
  003d2	6a 01		 push	 1
  003d4	6a 00		 push	 0
  003d6	8d 4d e8	 lea	 ecx, DWORD PTR _pn1$25[ebp]
  003d9	e8 00 00 00 00	 call	 ??0CPen@@QAE@HHK@Z	; CPen::CPen

; 633  : 			CPen* pPnOld = pDC->SelectObject(&pn1);

  003de	8d 45 e8	 lea	 eax, DWORD PTR _pn1$25[ebp]
  003e1	c7 45 fc 03 00
	00 00		 mov	 DWORD PTR __$EHRec$[ebp+8], 3
  003e8	50		 push	 eax
  003e9	8b cb		 mov	 ecx, ebx
  003eb	e8 00 00 00 00	 call	 ?SelectObject@CDC@@QAEPAVCPen@@PAV2@@Z ; CDC::SelectObject

; 634  : 			pDC->MoveTo(rect.left, rect.top + iFolderHeight - 1);

  003f0	8b 4d 14	 mov	 ecx, DWORD PTR _rect$[ebp+4]
  003f3	8b f0		 mov	 esi, eax
  003f5	49		 dec	 ecx
  003f6	8d 85 38 ff ff
	ff		 lea	 eax, DWORD PTR $T7[ebp]
  003fc	03 8f a0 00 00
	00		 add	 ecx, DWORD PTR [edi+160]
  00402	51		 push	 ecx
  00403	ff 75 10	 push	 DWORD PTR _rect$[ebp]
  00406	8b cb		 mov	 ecx, ebx
  00408	50		 push	 eax
  00409	e8 00 00 00 00	 call	 ?MoveTo@CDC@@QAE?AVCPoint@@HH@Z ; CDC::MoveTo

; 635  : 			pDC->LineTo(rect.right, rect.top + iFolderHeight - 1);

  0040e	8b 45 14	 mov	 eax, DWORD PTR _rect$[ebp+4]
  00411	8b cb		 mov	 ecx, ebx
  00413	48		 dec	 eax
  00414	03 87 a0 00 00
	00		 add	 eax, DWORD PTR [edi+160]
  0041a	50		 push	 eax
  0041b	ff 75 18	 push	 DWORD PTR _rect$[ebp+8]
  0041e	e8 00 00 00 00	 call	 ?LineTo@CDC@@QAEHHH@Z	; CDC::LineTo

; 636  : 			pDC->SelectObject(pPnOld);

  00423	56		 push	 esi
  00424	8b cb		 mov	 ecx, ebx
  00426	e8 00 00 00 00	 call	 ?SelectObject@CDC@@QAEPAVCPen@@PAV2@@Z ; CDC::SelectObject

; 637  : 
; 638  : 
; 639  : //			CFont * of = pDC->SelectObject(CFont::FromHandle((HFONT)GetStockObject(DEFAULT_GUI_FONT)));
; 640  : 			CFont * of = pDC->SelectObject(&m_Font);

  0042b	8b 13		 mov	 edx, DWORD PTR [ebx]
  0042d	8d 87 54 01 00
	00		 lea	 eax, DWORD PTR [edi+340]
  00433	50		 push	 eax
  00434	8b cb		 mov	 ecx, ebx
  00436	ff 52 30	 call	 DWORD PTR [edx+48]
  00439	8b f0		 mov	 esi, eax
; File C:\Program Files (x86)\Microsoft Visual Studio\2019\Community\VC\Tools\MSVC\14.29.30133\atlmfc\include\afxwin1.inl

; 70   : 	{ m_hObject = NULL; }

  0043b	c7 85 44 ff ff
	ff 00 00 00 00	 mov	 DWORD PTR _boldfont$9[ebp+4], 0

; 153  : 	{ }

  00445	c7 85 40 ff ff
	ff 00 00 00 00	 mov	 DWORD PTR _boldfont$9[ebp], OFFSET ??_7CFont@@6B@
; File D:\git\src\IBK\IBK_DRFN\ProjSrc\SrcDrfn\Chart\comparechart\control\GfxOutBarCtrl.cpp

; 646  : 			memset(&lfont, 0X00,sizeof(LOGFONT));

  0044f	6a 3c		 push	 60			; 0000003cH
  00451	8d 85 54 ff ff
	ff		 lea	 eax, DWORD PTR _lfont$15[ebp]
  00457	c6 45 fc 04	 mov	 BYTE PTR __$EHRec$[ebp+8], 4
  0045b	6a 00		 push	 0
  0045d	50		 push	 eax
  0045e	e8 00 00 00 00	 call	 _memset
  00463	83 c4 0c	 add	 esp, 12			; 0000000cH
; File C:\Program Files (x86)\Microsoft Visual Studio\2019\Community\VC\Tools\MSVC\14.29.30133\atlmfc\include\afxwin1.inl

; 169  : 		return ::GetObject(m_hObject, sizeof(LOGFONT), pLogFont); }

  00466	8d 85 54 ff ff
	ff		 lea	 eax, DWORD PTR _lfont$15[ebp]
  0046c	50		 push	 eax
  0046d	6a 3c		 push	 60			; 0000003cH
  0046f	ff 76 04	 push	 DWORD PTR [esi+4]
  00472	ff 15 00 00 00
	00		 call	 DWORD PTR __imp__GetObjectA@12
; File D:\git\src\IBK\IBK_DRFN\ProjSrc\SrcDrfn\Chart\comparechart\control\GfxOutBarCtrl.cpp

; 652  : 			strcpy(lfont.lfFaceName, "");

  00478	a1 00 00 00 00	 mov	 eax, DWORD PTR ??_C@_06MFMMLLPC@?$LB?$LM?$LI?$LC?C?$LM@
  0047d	83 ad 54 ff ff
	ff 04		 sub	 DWORD PTR _lfont$15[ebp], 4
  00484	83 ad 58 ff ff
	ff 02		 sub	 DWORD PTR _lfont$15[ebp+4], 2
  0048b	89 85 70 ff ff
	ff		 mov	 DWORD PTR _lfont$15[ebp+28], eax
  00491	66 a1 04 00 00
	00		 mov	 ax, WORD PTR ??_C@_06MFMMLLPC@?$LB?$LM?$LI?$LC?C?$LM@+4
  00497	66 89 85 74 ff
	ff ff		 mov	 WORD PTR _lfont$15[ebp+32], ax
  0049e	a0 06 00 00 00	 mov	 al, BYTE PTR ??_C@_06MFMMLLPC@?$LB?$LM?$LI?$LC?C?$LM@+6
  004a3	88 85 76 ff ff
	ff		 mov	 BYTE PTR _lfont$15[ebp+34], al
; File C:\Program Files (x86)\Microsoft Visual Studio\2019\Community\VC\Tools\MSVC\14.29.30133\atlmfc\include\afxwin1.inl

; 157  : 	{ return Attach(::CreateFontIndirect(lpLogFont)); }

  004a9	8d 85 54 ff ff
	ff		 lea	 eax, DWORD PTR _lfont$15[ebp]
  004af	50		 push	 eax
; File D:\git\src\IBK\IBK_DRFN\ProjSrc\SrcDrfn\Chart\comparechart\control\GfxOutBarCtrl.cpp

; 650  : 			lfont.lfWeight = FW_BOLD;

  004b0	c7 85 64 ff ff
	ff bc 02 00 00	 mov	 DWORD PTR _lfont$15[ebp+16], 700 ; 000002bcH
; File C:\Program Files (x86)\Microsoft Visual Studio\2019\Community\VC\Tools\MSVC\14.29.30133\atlmfc\include\afxwin1.inl

; 157  : 	{ return Attach(::CreateFontIndirect(lpLogFont)); }

  004ba	ff 15 00 00 00
	00		 call	 DWORD PTR __imp__CreateFontIndirectA@4
  004c0	50		 push	 eax
  004c1	8d 8d 40 ff ff
	ff		 lea	 ecx, DWORD PTR _boldfont$9[ebp]
  004c7	e8 00 00 00 00	 call	 ?Attach@CGdiObject@@QAEHPAX@Z ; CGdiObject::Attach
; File D:\git\src\IBK\IBK_DRFN\ProjSrc\SrcDrfn\Chart\comparechart\control\GfxOutBarCtrl.cpp

; 654  : 			of = pDC->SelectObject(&boldfont);

  004cc	8b 03		 mov	 eax, DWORD PTR [ebx]
  004ce	8d 8d 40 ff ff
	ff		 lea	 ecx, DWORD PTR _boldfont$9[ebp]
  004d4	51		 push	 ecx
  004d5	8b cb		 mov	 ecx, ebx
  004d7	ff 50 30	 call	 DWORD PTR [eax+48]

; 655  : 			//2006.12.11   END
; 656  : 			pDC->SetTextColor(RGB(0,0,0));

  004da	8b 13		 mov	 edx, DWORD PTR [ebx]
  004dc	8b f0		 mov	 esi, eax
  004de	6a 00		 push	 0
  004e0	8b cb		 mov	 ecx, ebx
  004e2	ff 52 38	 call	 DWORD PTR [edx+56]

; 658  : 			pDC->DrawText(CString(pbf->cName), rect, DT_LEFT|DT_VCENTER|DT_SINGLELINE);

  004e5	8b 85 48 ff ff
	ff		 mov	 eax, DWORD PTR _pbf$1$[ebp]
  004eb	8d 8d 4c ff ff
	ff		 lea	 ecx, DWORD PTR $T12[ebp]
  004f1	83 45 10 19	 add	 DWORD PTR _rect$[ebp], 25 ; 00000019H
  004f5	ff 70 04	 push	 DWORD PTR [eax+4]
  004f8	ff 15 00 00 00
	00		 call	 DWORD PTR __imp_??0?$CStringT@DV?$StrTraitMFC_DLL@DV?$ChTraitsCRT@D@ATL@@@@@ATL@@QAE@PBD@Z
; File C:\Program Files (x86)\Microsoft Visual Studio\2019\Community\VC\Tools\MSVC\14.29.30133\atlmfc\include\atlsimpstr.h

; 519  : 		return( GetData()->nDataLength );

  004fe	8b 00		 mov	 eax, DWORD PTR [eax]
; File C:\Program Files (x86)\Microsoft Visual Studio\2019\Community\VC\Tools\MSVC\14.29.30133\atlmfc\include\afxwin1.inl

; 600  : 		return _AFX_FUNCNAME(DrawText)((LPCTSTR)str, (int)str.GetLength(), lpRect, nFormat); }

  00500	8d 4d 10	 lea	 ecx, DWORD PTR _rect$[ebp]
  00503	8b 13		 mov	 edx, DWORD PTR [ebx]
  00505	6a 24		 push	 36			; 00000024H
  00507	51		 push	 ecx
  00508	ff 70 f4	 push	 DWORD PTR [eax-12]
  0050b	8b cb		 mov	 ecx, ebx
; File D:\git\src\IBK\IBK_DRFN\ProjSrc\SrcDrfn\Chart\comparechart\control\GfxOutBarCtrl.cpp

; 658  : 			pDC->DrawText(CString(pbf->cName), rect, DT_LEFT|DT_VCENTER|DT_SINGLELINE);

  0050d	c6 45 fc 05	 mov	 BYTE PTR __$EHRec$[ebp+8], 5
; File C:\Program Files (x86)\Microsoft Visual Studio\2019\Community\VC\Tools\MSVC\14.29.30133\atlmfc\include\afxwin1.inl

; 600  : 		return _AFX_FUNCNAME(DrawText)((LPCTSTR)str, (int)str.GetLength(), lpRect, nFormat); }

  00511	50		 push	 eax
  00512	ff 52 70	 call	 DWORD PTR [edx+112]
; File D:\git\src\IBK\IBK_DRFN\ProjSrc\SrcDrfn\Chart\comparechart\control\GfxOutBarCtrl.cpp

; 658  : 			pDC->DrawText(CString(pbf->cName), rect, DT_LEFT|DT_VCENTER|DT_SINGLELINE);

  00515	8d 8d 4c ff ff
	ff		 lea	 ecx, DWORD PTR $T12[ebp]
  0051b	c6 45 fc 04	 mov	 BYTE PTR __$EHRec$[ebp+8], 4
  0051f	ff 15 00 00 00
	00		 call	 DWORD PTR __imp_??1?$CStringT@DV?$StrTraitMFC_DLL@DV?$ChTraitsCRT@D@ATL@@@@@ATL@@QAE@XZ

; 659  : 			pDC->SetBkMode(obk);

  00525	ff b5 50 ff ff
	ff		 push	 DWORD PTR _obk$1$[ebp]
  0052b	8b cb		 mov	 ecx, ebx
  0052d	e8 00 00 00 00	 call	 ?SetBkMode@CDC@@QAEHH@Z	; CDC::SetBkMode

; 660  : 			pDC->SelectObject(of);

  00532	8b 03		 mov	 eax, DWORD PTR [ebx]
  00534	8b cb		 mov	 ecx, ebx
  00536	56		 push	 esi
  00537	ff 50 30	 call	 DWORD PTR [eax+48]
; File C:\Program Files (x86)\Microsoft Visual Studio\2019\Community\VC\Tools\MSVC\14.29.30133\atlmfc\include\afxwin1.inl

; 155  : 	{ }

  0053a	8d 8d 40 ff ff
	ff		 lea	 ecx, DWORD PTR _boldfont$9[ebp]
  00540	c7 85 40 ff ff
	ff 00 00 00 00	 mov	 DWORD PTR _boldfont$9[ebp], OFFSET ??_7CFont@@6B@
  0054a	e8 00 00 00 00	 call	 ??1CGdiObject@@UAE@XZ	; CGdiObject::~CGdiObject

; 106  : 	{ }

  0054f	c7 45 e8 00 00
	00 00		 mov	 DWORD PTR _pn1$25[ebp], OFFSET ??_7CPen@@6B@
  00556	8d 4d e8	 lea	 ecx, DWORD PTR _pn1$25[ebp]
; File D:\git\src\IBK\IBK_DRFN\ProjSrc\SrcDrfn\Chart\comparechart\control\GfxOutBarCtrl.cpp

; 662  : 		}

  00559	e9 1f fc ff ff	 jmp	 $LN155@DrawFolder
$LN6@DrawFolder:

; 663  : 		else
; 664  : 		{
; 665  : 			CPen pn1(PS_SOLID, 1, crBackGroundColor1);

  0055e	ff b7 84 00 00
	00		 push	 DWORD PTR [edi+132]
  00564	8d 8d 38 ff ff
	ff		 lea	 ecx, DWORD PTR _pn1$6[ebp]
  0056a	6a 01		 push	 1
  0056c	6a 00		 push	 0
  0056e	e8 00 00 00 00	 call	 ??0CPen@@QAE@HHK@Z	; CPen::CPen

; 666  : 			CPen * op = pDC->SelectObject(&pn1);

  00573	8d 85 38 ff ff
	ff		 lea	 eax, DWORD PTR _pn1$6[ebp]
  00579	c7 45 fc 06 00
	00 00		 mov	 DWORD PTR __$EHRec$[ebp+8], 6
  00580	50		 push	 eax
  00581	8b cb		 mov	 ecx, ebx
  00583	e8 00 00 00 00	 call	 ?SelectObject@CDC@@QAEPAVCPen@@PAV2@@Z ; CDC::SelectObject

; 667  : 			pDC->MoveTo(rect.left, rect.top);

  00588	ff 75 14	 push	 DWORD PTR _rect$[ebp+4]
  0058b	8b f0		 mov	 esi, eax
  0058d	8b cb		 mov	 ecx, ebx
  0058f	ff 75 10	 push	 DWORD PTR _rect$[ebp]
  00592	8d 45 e8	 lea	 eax, DWORD PTR $T24[ebp]
  00595	50		 push	 eax
  00596	e8 00 00 00 00	 call	 ?MoveTo@CDC@@QAE?AVCPoint@@HH@Z ; CDC::MoveTo

; 668  : 			pDC->LineTo(rect.right, rect.top);

  0059b	ff 75 14	 push	 DWORD PTR _rect$[ebp+4]
  0059e	8b cb		 mov	 ecx, ebx
  005a0	ff 75 18	 push	 DWORD PTR _rect$[ebp+8]
  005a3	e8 00 00 00 00	 call	 ?LineTo@CDC@@QAEHHH@Z	; CDC::LineTo

; 669  : 			pDC->SelectObject(op);

  005a8	56		 push	 esi
  005a9	8b cb		 mov	 ecx, ebx
  005ab	e8 00 00 00 00	 call	 ?SelectObject@CDC@@QAEPAVCPen@@PAV2@@Z ; CDC::SelectObject
; File C:\Program Files (x86)\Microsoft Visual Studio\2019\Community\VC\Tools\MSVC\14.29.30133\atlmfc\include\afxwin2.inl

; 86   : 	{ ASSERT(::IsWindow(m_hWnd)); ::GetClientRect(m_hWnd, lpRect); }

  005b0	8d 45 90	 lea	 eax, DWORD PTR _rc$16[ebp]
  005b3	0f 57 c0	 xorps	 xmm0, xmm0
  005b6	50		 push	 eax
  005b7	ff 77 20	 push	 DWORD PTR [edi+32]
; File C:\Program Files (x86)\Microsoft Visual Studio\2019\Community\VC\Tools\MSVC\14.29.30133\atlmfc\include\atltypes.h

; 528  : 	left = 0;

  005ba	0f 11 45 90	 movups	 XMMWORD PTR _rc$16[ebp], xmm0
; File C:\Program Files (x86)\Microsoft Visual Studio\2019\Community\VC\Tools\MSVC\14.29.30133\atlmfc\include\afxwin2.inl

; 86   : 	{ ASSERT(::IsWindow(m_hWnd)); ::GetClientRect(m_hWnd, lpRect); }

  005be	ff 15 00 00 00
	00		 call	 DWORD PTR __imp__GetClientRect@8
; File D:\git\src\IBK\IBK_DRFN\ProjSrc\SrcDrfn\Chart\comparechart\control\GfxOutBarCtrl.cpp

; 675  : 			rcTemp.top = (iFolderHeight+iGap) * (iSelFolder + 1);

  005c4	8b 8f 34 01 00
	00		 mov	 ecx, DWORD PTR [edi+308]
  005ca	8b b7 a0 00 00
	00		 mov	 esi, DWORD PTR [edi+160]
  005d0	03 b7 a4 00 00
	00		 add	 esi, DWORD PTR [edi+164]

; 676  : 			rcTemp.bottom = rc.bottom - (arFolder.GetSize() - iSelFolder - 1)*(iFolderHeight+iGap);

  005d6	8b 97 0c 01 00
	00		 mov	 edx, DWORD PTR [edi+268]
  005dc	8d 41 01	 lea	 eax, DWORD PTR [ecx+1]
  005df	2b d1		 sub	 edx, ecx
  005e1	0f af c6	 imul	 eax, esi
  005e4	4a		 dec	 edx
  005e5	0f af d6	 imul	 edx, esi

; 677  : 			rcTemp.left = rect.left;
; 678  : 			rcTemp.right = rect.right;
; 679  : 			pDC->FillSolidRect(rcTemp, RGB(239,242,247));

  005e8	8b cb		 mov	 ecx, ebx
  005ea	68 ef f2 f7 00	 push	 16249583		; 00f7f2efH
  005ef	89 45 b4	 mov	 DWORD PTR _rcTemp$18[ebp+4], eax
  005f2	8b 45 9c	 mov	 eax, DWORD PTR _rc$16[ebp+12]
  005f5	2b c2		 sub	 eax, edx
  005f7	89 45 bc	 mov	 DWORD PTR _rcTemp$18[ebp+12], eax
  005fa	8b 45 10	 mov	 eax, DWORD PTR _rect$[ebp]
  005fd	89 45 b0	 mov	 DWORD PTR _rcTemp$18[ebp], eax
  00600	8b 45 18	 mov	 eax, DWORD PTR _rect$[ebp+8]
  00603	89 45 b8	 mov	 DWORD PTR _rcTemp$18[ebp+8], eax
  00606	8d 45 b0	 lea	 eax, DWORD PTR _rcTemp$18[ebp]
  00609	50		 push	 eax
  0060a	e8 00 00 00 00	 call	 ?FillSolidRect@CDC@@QAEXPBUtagRECT@@K@Z ; CDC::FillSolidRect

; 680  : 			//end
; 681  : 
; 682  : 			rect.top ++;

  0060f	ff 45 14	 inc	 DWORD PTR _rect$[ebp+4]

; 683  : 			pDC->FillSolidRect(rect, RGB(255,255,255));

  00612	8d 45 10	 lea	 eax, DWORD PTR _rect$[ebp]
  00615	68 ff ff ff 00	 push	 16777215		; 00ffffffH
  0061a	50		 push	 eax
  0061b	8b cb		 mov	 ecx, ebx
  0061d	e8 00 00 00 00	 call	 ?FillSolidRect@CDC@@QAEXPBUtagRECT@@K@Z ; CDC::FillSolidRect

; 684  : 			pDC->Draw3dRect(rect, crHilightBorder, crBackGroundColor1);

  00622	ff b7 84 00 00
	00		 push	 DWORD PTR [edi+132]
  00628	8d 45 10	 lea	 eax, DWORD PTR _rect$[ebp]
  0062b	8b cb		 mov	 ecx, ebx
  0062d	ff b7 98 00 00
	00		 push	 DWORD PTR [edi+152]
  00633	50		 push	 eax
  00634	e8 00 00 00 00	 call	 ?Draw3dRect@CDC@@QAEXPBUtagRECT@@KK@Z ; CDC::Draw3dRect
; File C:\Program Files (x86)\Microsoft Visual Studio\2019\Community\VC\Tools\MSVC\14.29.30133\atlmfc\include\atltypes.h

; 686  : 	::InflateRect(this, x, y);

  00639	6a ff		 push	 -1
  0063b	6a ff		 push	 -1
  0063d	8d 45 10	 lea	 eax, DWORD PTR _rect$[ebp]
  00640	50		 push	 eax
  00641	ff 15 00 00 00
	00		 call	 DWORD PTR __imp__InflateRect@12
; File D:\git\src\IBK\IBK_DRFN\ProjSrc\SrcDrfn\Chart\comparechart\control\GfxOutBarCtrl.cpp

; 686  : 			pDC->FillSolidRect(rect, cr3dFace);

  00647	ff b7 90 00 00
	00		 push	 DWORD PTR [edi+144]
  0064d	8d 45 10	 lea	 eax, DWORD PTR _rect$[ebp]
  00650	8b cb		 mov	 ecx, ebx
  00652	50		 push	 eax
  00653	e8 00 00 00 00	 call	 ?FillSolidRect@CDC@@QAEXPBUtagRECT@@K@Z ; CDC::FillSolidRect

; 687  : 			int obk = pDC->SetBkMode(TRANSPARENT);

  00658	6a 01		 push	 1
  0065a	8b cb		 mov	 ecx, ebx
  0065c	e8 00 00 00 00	 call	 ?SetBkMode@CDC@@QAEHH@Z	; CDC::SetBkMode

; 688  : //			CFont * of = pDC->SelectObject(CFont::FromHandle((HFONT)GetStockObject(DEFAULT_GUI_FONT)));
; 689  : 			CFont * of = pDC->SelectObject(&m_Font);

  00661	8b 13		 mov	 edx, DWORD PTR [ebx]
  00663	8b f8		 mov	 edi, eax
  00665	8b 8d 50 ff ff
	ff		 mov	 ecx, DWORD PTR _this$GSCopy$1$[ebp]
  0066b	81 c1 54 01 00
	00		 add	 ecx, 340		; 00000154H
  00671	51		 push	 ecx
  00672	8b cb		 mov	 ecx, ebx
  00674	ff 52 30	 call	 DWORD PTR [edx+48]

; 690  : 			pDC->SetTextColor(RGB(0,0,0));

  00677	8b 13		 mov	 edx, DWORD PTR [ebx]
  00679	8b cb		 mov	 ecx, ebx
  0067b	6a 00		 push	 0
  0067d	8b f0		 mov	 esi, eax
  0067f	ff 52 38	 call	 DWORD PTR [edx+56]

; 691  : 			pDC->DrawText(CString(pbf->cName), rect, DT_CENTER|DT_VCENTER|DT_SINGLELINE);

  00682	8b 85 48 ff ff
	ff		 mov	 eax, DWORD PTR _pbf$1$[ebp]
  00688	8d 8d 4c ff ff
	ff		 lea	 ecx, DWORD PTR $T11[ebp]
  0068e	ff 70 04	 push	 DWORD PTR [eax+4]
  00691	ff 15 00 00 00
	00		 call	 DWORD PTR __imp_??0?$CStringT@DV?$StrTraitMFC_DLL@DV?$ChTraitsCRT@D@ATL@@@@@ATL@@QAE@PBD@Z
; File C:\Program Files (x86)\Microsoft Visual Studio\2019\Community\VC\Tools\MSVC\14.29.30133\atlmfc\include\atlsimpstr.h

; 519  : 		return( GetData()->nDataLength );

  00697	8b 00		 mov	 eax, DWORD PTR [eax]
; File C:\Program Files (x86)\Microsoft Visual Studio\2019\Community\VC\Tools\MSVC\14.29.30133\atlmfc\include\afxwin1.inl

; 600  : 		return _AFX_FUNCNAME(DrawText)((LPCTSTR)str, (int)str.GetLength(), lpRect, nFormat); }

  00699	8d 4d 10	 lea	 ecx, DWORD PTR _rect$[ebp]
  0069c	8b 13		 mov	 edx, DWORD PTR [ebx]
  0069e	6a 25		 push	 37			; 00000025H
  006a0	51		 push	 ecx
  006a1	ff 70 f4	 push	 DWORD PTR [eax-12]
  006a4	8b cb		 mov	 ecx, ebx
; File D:\git\src\IBK\IBK_DRFN\ProjSrc\SrcDrfn\Chart\comparechart\control\GfxOutBarCtrl.cpp

; 691  : 			pDC->DrawText(CString(pbf->cName), rect, DT_CENTER|DT_VCENTER|DT_SINGLELINE);

  006a6	c6 45 fc 07	 mov	 BYTE PTR __$EHRec$[ebp+8], 7
; File C:\Program Files (x86)\Microsoft Visual Studio\2019\Community\VC\Tools\MSVC\14.29.30133\atlmfc\include\afxwin1.inl

; 600  : 		return _AFX_FUNCNAME(DrawText)((LPCTSTR)str, (int)str.GetLength(), lpRect, nFormat); }

  006aa	50		 push	 eax
  006ab	ff 52 70	 call	 DWORD PTR [edx+112]
; File D:\git\src\IBK\IBK_DRFN\ProjSrc\SrcDrfn\Chart\comparechart\control\GfxOutBarCtrl.cpp

; 691  : 			pDC->DrawText(CString(pbf->cName), rect, DT_CENTER|DT_VCENTER|DT_SINGLELINE);

  006ae	8d 8d 4c ff ff
	ff		 lea	 ecx, DWORD PTR $T11[ebp]
  006b4	c6 45 fc 06	 mov	 BYTE PTR __$EHRec$[ebp+8], 6
  006b8	ff 15 00 00 00
	00		 call	 DWORD PTR __imp_??1?$CStringT@DV?$StrTraitMFC_DLL@DV?$ChTraitsCRT@D@ATL@@@@@ATL@@QAE@XZ

; 692  : 			pDC->SetBkMode(obk);

  006be	57		 push	 edi
  006bf	8b cb		 mov	 ecx, ebx
  006c1	e8 00 00 00 00	 call	 ?SetBkMode@CDC@@QAEHH@Z	; CDC::SetBkMode

; 693  : 			pDC->SelectObject(of);

  006c6	8b 03		 mov	 eax, DWORD PTR [ebx]
  006c8	8b cb		 mov	 ecx, ebx
  006ca	56		 push	 esi
  006cb	ff 50 30	 call	 DWORD PTR [eax+48]
; File C:\Program Files (x86)\Microsoft Visual Studio\2019\Community\VC\Tools\MSVC\14.29.30133\atlmfc\include\afxwin1.inl

; 106  : 	{ }

  006ce	c7 85 38 ff ff
	ff 00 00 00 00	 mov	 DWORD PTR _pn1$6[ebp], OFFSET ??_7CPen@@6B@
  006d8	8d 8d 38 ff ff
	ff		 lea	 ecx, DWORD PTR _pn1$6[ebp]
  006de	e9 9a fa ff ff	 jmp	 $LN155@DrawFolder
$LN19@DrawFolder:
; File C:\Program Files (x86)\Microsoft Visual Studio\2019\Community\VC\Tools\MSVC\14.29.30133\atlmfc\include\afxcoll.inl

; 204  : 			AfxThrowInvalidArgException();

  006e3	e8 00 00 00 00	 call	 ?AfxThrowInvalidArgException@@YGXXZ ; AfxThrowInvalidArgException
$LN154@DrawFolder:
  006e8	cc		 int	 3
_TEXT	ENDS
;	COMDAT text$x
text$x	SEGMENT
__unwindfunclet$?DrawFolder@CGfxOutBarCtrl@@IAEXPAVCDC@@HVCRect@@_N@Z$0:
  00000	8d 8d 40 ff ff
	ff		 lea	 ecx, DWORD PTR _pn1$10[ebp]
  00006	e9 00 00 00 00	 jmp	 ??1CPen@@UAE@XZ		; CPen::~CPen
__unwindfunclet$?DrawFolder@CGfxOutBarCtrl@@IAEXPAVCDC@@HVCRect@@_N@Z$1:
  0000b	8d 8d 50 ff ff
	ff		 lea	 ecx, DWORD PTR $T14[ebp]
  00011	ff 25 00 00 00
	00		 jmp	 DWORD PTR __imp_??1?$CStringT@DV?$StrTraitMFC_DLL@DV?$ChTraitsCRT@D@ATL@@@@@ATL@@QAE@XZ
__unwindfunclet$?DrawFolder@CGfxOutBarCtrl@@IAEXPAVCDC@@HVCRect@@_N@Z$2:
  00017	8d 8d 50 ff ff
	ff		 lea	 ecx, DWORD PTR $T13[ebp]
  0001d	ff 25 00 00 00
	00		 jmp	 DWORD PTR __imp_??1?$CStringT@DV?$StrTraitMFC_DLL@DV?$ChTraitsCRT@D@ATL@@@@@ATL@@QAE@XZ
__unwindfunclet$?DrawFolder@CGfxOutBarCtrl@@IAEXPAVCDC@@HVCRect@@_N@Z$3:
  00023	8d 4d e8	 lea	 ecx, DWORD PTR _pn1$25[ebp]
  00026	e9 00 00 00 00	 jmp	 ??1CPen@@UAE@XZ		; CPen::~CPen
__unwindfunclet$?DrawFolder@CGfxOutBarCtrl@@IAEXPAVCDC@@HVCRect@@_N@Z$4:
  0002b	8d 8d 40 ff ff
	ff		 lea	 ecx, DWORD PTR _boldfont$9[ebp]
  00031	e9 00 00 00 00	 jmp	 ??1CFont@@UAE@XZ	; CFont::~CFont
__unwindfunclet$?DrawFolder@CGfxOutBarCtrl@@IAEXPAVCDC@@HVCRect@@_N@Z$5:
  00036	8d 8d 4c ff ff
	ff		 lea	 ecx, DWORD PTR $T12[ebp]
  0003c	ff 25 00 00 00
	00		 jmp	 DWORD PTR __imp_??1?$CStringT@DV?$StrTraitMFC_DLL@DV?$ChTraitsCRT@D@ATL@@@@@ATL@@QAE@XZ
__unwindfunclet$?DrawFolder@CGfxOutBarCtrl@@IAEXPAVCDC@@HVCRect@@_N@Z$6:
  00042	8d 8d 38 ff ff
	ff		 lea	 ecx, DWORD PTR _pn1$6[ebp]
  00048	e9 00 00 00 00	 jmp	 ??1CPen@@UAE@XZ		; CPen::~CPen
__unwindfunclet$?DrawFolder@CGfxOutBarCtrl@@IAEXPAVCDC@@HVCRect@@_N@Z$7:
  0004d	8d 8d 4c ff ff
	ff		 lea	 ecx, DWORD PTR $T11[ebp]
  00053	ff 25 00 00 00
	00		 jmp	 DWORD PTR __imp_??1?$CStringT@DV?$StrTraitMFC_DLL@DV?$ChTraitsCRT@D@ATL@@@@@ATL@@QAE@XZ
  00059	cc		 int	 3
  0005a	cc		 int	 3
  0005b	cc		 int	 3
  0005c	cc		 int	 3
  0005d	cc		 int	 3
__ehhandler$?DrawFolder@CGfxOutBarCtrl@@IAEXPAVCDC@@HVCRect@@_N@Z:
  0005e	90		 npad	 1
  0005f	90		 npad	 1
  00060	8b 54 24 08	 mov	 edx, DWORD PTR [esp+8]
  00064	8d 42 0c	 lea	 eax, DWORD PTR [edx+12]
  00067	8b 8a 34 ff ff
	ff		 mov	 ecx, DWORD PTR [edx-204]
  0006d	33 c8		 xor	 ecx, eax
  0006f	e8 00 00 00 00	 call	 @__security_check_cookie@4
  00074	8b 4a fc	 mov	 ecx, DWORD PTR [edx-4]
  00077	33 c8		 xor	 ecx, eax
  00079	e8 00 00 00 00	 call	 @__security_check_cookie@4
  0007e	b8 00 00 00 00	 mov	 eax, OFFSET __ehfuncinfo$?DrawFolder@CGfxOutBarCtrl@@IAEXPAVCDC@@HVCRect@@_N@Z
  00083	e9 00 00 00 00	 jmp	 ___CxxFrameHandler3
text$x	ENDS
?DrawFolder@CGfxOutBarCtrl@@IAEXPAVCDC@@HVCRect@@_N@Z ENDP ; CGfxOutBarCtrl::DrawFolder
; Function compile flags: /Ogtp
; File D:\git\src\IBK\IBK_DRFN\ProjSrc\SrcDrfn\Chart\comparechart\control\GfxOutBarCtrl.cpp
;	COMDAT ?SetFolderImageList@CGfxOutBarCtrl@@QAEXPAVCImageList@@HHH@Z
_TEXT	SEGMENT
_pImageList$ = 8					; size = 4
_nNormal$ = 12						; size = 4
_nDown$ = 16						; size = 4
_nOver$ = 20						; size = 4
?SetFolderImageList@CGfxOutBarCtrl@@QAEXPAVCImageList@@HHH@Z PROC ; CGfxOutBarCtrl::SetFolderImageList, COMDAT
; _this$ = ecx

; 2980 : {

  00000	55		 push	 ebp
  00001	8b ec		 mov	 ebp, esp

; 2981 : 	m_pFolderImageList = pImageList;

  00003	8b 45 08	 mov	 eax, DWORD PTR _pImageList$[ebp]
  00006	89 81 5c 01 00
	00		 mov	 DWORD PTR [ecx+348], eax

; 2982 : 	m_nNormal = nNormal;

  0000c	8b 45 0c	 mov	 eax, DWORD PTR _nNormal$[ebp]
  0000f	89 81 60 01 00
	00		 mov	 DWORD PTR [ecx+352], eax

; 2983 : 	m_nDown = nDown;

  00015	8b 45 10	 mov	 eax, DWORD PTR _nDown$[ebp]
  00018	89 81 64 01 00
	00		 mov	 DWORD PTR [ecx+356], eax

; 2984 : 	m_nOver = nOver;

  0001e	8b 45 14	 mov	 eax, DWORD PTR _nOver$[ebp]
  00021	89 81 68 01 00
	00		 mov	 DWORD PTR [ecx+360], eax

; 2985 : }

  00027	5d		 pop	 ebp
  00028	c2 10 00	 ret	 16			; 00000010H
?SetFolderImageList@CGfxOutBarCtrl@@QAEXPAVCImageList@@HHH@Z ENDP ; CGfxOutBarCtrl::SetFolderImageList
_TEXT	ENDS
; Function compile flags: /Ogtp
; File D:\git\src\IBK\IBK_DRFN\ProjSrc\SrcDrfn\Chart\comparechart\control\GfxOutBarCtrl.cpp
; File C:\Program Files (x86)\Microsoft Visual Studio\2019\Community\VC\Tools\MSVC\14.29.30133\atlmfc\include\afxwin1.inl
; File D:\git\src\IBK\IBK_DRFN\ProjSrc\SrcDrfn\Chart\comparechart\control\GfxOutBarCtrl.cpp
;	COMDAT ??1CGfxOutBarCtrl@@UAE@XZ
_TEXT	SEGMENT
??1CGfxOutBarCtrl@@UAE@XZ PROC				; CGfxOutBarCtrl::~CGfxOutBarCtrl, COMDAT
; _this$ = ecx

; 116  : {

  00000	56		 push	 esi
  00001	8b f1		 mov	 esi, ecx

; 117  : }

  00003	8d 8e 54 01 00
	00		 lea	 ecx, DWORD PTR [esi+340]
  00009	c7 06 00 00 00
	00		 mov	 DWORD PTR [esi], OFFSET ??_7CGfxOutBarCtrl@@6B@
; File C:\Program Files (x86)\Microsoft Visual Studio\2019\Community\VC\Tools\MSVC\14.29.30133\atlmfc\include\afxwin1.inl

; 155  : 	{ }

  0000f	c7 01 00 00 00
	00		 mov	 DWORD PTR [ecx], OFFSET ??_7CFont@@6B@
  00015	e8 00 00 00 00	 call	 ??1CGdiObject@@UAE@XZ	; CGdiObject::~CGdiObject
; File D:\git\src\IBK\IBK_DRFN\ProjSrc\SrcDrfn\Chart\comparechart\control\GfxOutBarCtrl.cpp

; 117  : }

  0001a	8d 8e 04 01 00
	00		 lea	 ecx, DWORD PTR [esi+260]
  00020	e8 00 00 00 00	 call	 ??1CPtrArray@@UAE@XZ	; CPtrArray::~CPtrArray
  00025	8b ce		 mov	 ecx, esi
  00027	5e		 pop	 esi
  00028	e9 00 00 00 00	 jmp	 ??1CWnd@@UAE@XZ		; CWnd::~CWnd
??1CGfxOutBarCtrl@@UAE@XZ ENDP				; CGfxOutBarCtrl::~CGfxOutBarCtrl
_TEXT	ENDS
; Function compile flags: /Ogtp
; File D:\git\src\IBK\IBK_DRFN\ProjSrc\SrcDrfn\Chart\comparechart\control\GfxOutBarCtrl.cpp
;	COMDAT ?Create@CGfxOutBarCtrl@@QAEHKABUtagRECT@@PAVCWnd@@IK@Z
_TEXT	SEGMENT
_dwStyle$ = 8						; size = 4
_rect$ = 12						; size = 4
_pParentWnd$ = 16					; size = 4
_nID$ = 20						; size = 4
_dwFlag$ = 24						; size = 4
?Create@CGfxOutBarCtrl@@QAEHKABUtagRECT@@PAVCWnd@@IK@Z PROC ; CGfxOutBarCtrl::Create, COMDAT
; _this$ = ecx

; 174  : {

  00000	55		 push	 ebp
  00001	8b ec		 mov	 ebp, esp

; 175  : 	dwFlags = dwFlag;

  00003	8b 45 18	 mov	 eax, DWORD PTR _dwFlag$[ebp]
  00006	56		 push	 esi
  00007	57		 push	 edi

; 176  : 	BOOL bRet = CWnd::CreateEx(NULL, NULL, NULL, dwStyle, rect, pParentWnd, nID);

  00008	6a 00		 push	 0
  0000a	ff 75 14	 push	 DWORD PTR _nID$[ebp]
  0000d	8b f9		 mov	 edi, ecx
  0000f	ff 75 10	 push	 DWORD PTR _pParentWnd$[ebp]
  00012	ff 75 0c	 push	 DWORD PTR _rect$[ebp]
  00015	89 87 00 01 00
	00		 mov	 DWORD PTR [edi+256], eax
  0001b	ff 75 08	 push	 DWORD PTR _dwStyle$[ebp]
  0001e	6a 00		 push	 0
  00020	6a 00		 push	 0
  00022	6a 00		 push	 0
  00024	e8 00 00 00 00	 call	 ?CreateEx@CWnd@@UAEHKPBD0KABUtagRECT@@PAV1@IPAX@Z ; CWnd::CreateEx

; 177  : 	CWnd::ModifyStyleEx(0, WS_EX_CLIENTEDGE);

  00029	6a 00		 push	 0
  0002b	68 00 02 00 00	 push	 512			; 00000200H
  00030	6a 00		 push	 0
  00032	8b cf		 mov	 ecx, edi
  00034	8b f0		 mov	 esi, eax
  00036	e8 00 00 00 00	 call	 ?ModifyStyleEx@CWnd@@QAEHKKI@Z ; CWnd::ModifyStyleEx

; 178  : 	//GFXOUTBARCTRL_CLASSNAME
; 179  : 	return bRet;

  0003b	5f		 pop	 edi
  0003c	8b c6		 mov	 eax, esi
  0003e	5e		 pop	 esi

; 180  : }

  0003f	5d		 pop	 ebp
  00040	c2 14 00	 ret	 20			; 00000014H
?Create@CGfxOutBarCtrl@@QAEHKABUtagRECT@@PAVCWnd@@IK@Z ENDP ; CGfxOutBarCtrl::Create
_TEXT	ENDS
; Function compile flags: /Ogtp
; File D:\git\src\IBK\IBK_DRFN\ProjSrc\SrcDrfn\Chart\comparechart\control\GfxOutBarCtrl.cpp
;	COMDAT ?IsSmallIconView@CGfxOutBarCtrl@@QBE_NXZ
_TEXT	SEGMENT
?IsSmallIconView@CGfxOutBarCtrl@@QBE_NXZ PROC		; CGfxOutBarCtrl::IsSmallIconView, COMDAT
; _this$ = ecx

; 184  : 	return dwFlags&fSmallIcon;

  00000	8a 81 00 01 00
	00		 mov	 al, BYTE PTR [ecx+256]
  00006	24 01		 and	 al, 1

; 185  : }

  00008	c3		 ret	 0
?IsSmallIconView@CGfxOutBarCtrl@@QBE_NXZ ENDP		; CGfxOutBarCtrl::IsSmallIconView
_TEXT	ENDS
; Function compile flags: /Ogtp
; File D:\git\src\IBK\IBK_DRFN\ProjSrc\SrcDrfn\Chart\comparechart\control\GfxOutBarCtrl.cpp
;	COMDAT ?SetSmallIconView@CGfxOutBarCtrl@@QAEX_N@Z
_TEXT	SEGMENT
_rc$1 = -20						; size = 16
__$ArrayPad$ = -4					; size = 4
_bSet$ = 8						; size = 1
?SetSmallIconView@CGfxOutBarCtrl@@QAEX_N@Z PROC		; CGfxOutBarCtrl::SetSmallIconView, COMDAT
; _this$ = ecx

; 188  : {

  00000	55		 push	 ebp
  00001	8b ec		 mov	 ebp, esp
  00003	83 ec 14	 sub	 esp, 20			; 00000014H
  00006	a1 00 00 00 00	 mov	 eax, DWORD PTR ___security_cookie
  0000b	33 c5		 xor	 eax, ebp
  0000d	89 45 fc	 mov	 DWORD PTR __$ArrayPad$[ebp], eax

; 189  : 	iFirstItem = 0;
; 190  : 
; 191  : 	if (bSet)

  00010	80 7d 08 00	 cmp	 BYTE PTR _bSet$[ebp], 0
  00014	56		 push	 esi
  00015	8b f1		 mov	 esi, ecx
  00017	57		 push	 edi
  00018	8a 86 00 01 00
	00		 mov	 al, BYTE PTR [esi+256]
  0001e	c7 86 20 01 00
	00 00 00 00 00	 mov	 DWORD PTR [esi+288], 0
  00028	74 0d		 je	 SHORT $LN2@SetSmallIc

; 184  : 	return dwFlags&fSmallIcon;

  0002a	a8 01		 test	 al, 1

; 192  : 	{
; 193  : 		if (!IsSmallIconView()) 

  0002c	75 5f		 jne	 SHORT $LN5@SetSmallIc

; 194  : 		{
; 195  : 			dwFlags |= fSmallIcon;

  0002e	83 8e 00 01 00
	00 01		 or	 DWORD PTR [esi+256], 1

; 196  : 			CRect rc;
; 197  : 			GetInsideRect(rc);
; 198  : 			InvalidateRect(rc, false);
; 199  : 		}
; 200  : 	}

  00035	eb 0b		 jmp	 SHORT $LN31@SetSmallIc
$LN2@SetSmallIc:

; 184  : 	return dwFlags&fSmallIcon;

  00037	a8 01		 test	 al, 1

; 201  : 	else
; 202  : 	{
; 203  : 		if (IsSmallIconView()) 

  00039	74 52		 je	 SHORT $LN5@SetSmallIc

; 204  : 		{
; 205  : 			dwFlags &= ~fSmallIcon;

  0003b	83 a6 00 01 00
	00 fe		 and	 DWORD PTR [esi+256], -2	; fffffffeH
$LN31@SetSmallIc:

; 206  : 			CRect rc;
; 207  : 			GetInsideRect(rc);
; 208  : 			InvalidateRect(rc, false);
; 209  : 		}
; 210  : 	}
; 211  : }

  00042	8d 45 ec	 lea	 eax, DWORD PTR _rc$1[ebp]
  00045	0f 57 c0	 xorps	 xmm0, xmm0
  00048	50		 push	 eax
  00049	ff 76 20	 push	 DWORD PTR [esi+32]
  0004c	0f 11 45 ec	 movups	 XMMWORD PTR _rc$1[ebp], xmm0
  00050	ff 15 00 00 00
	00		 call	 DWORD PTR __imp__GetClientRect@8
  00056	8b be 0c 01 00
	00		 mov	 edi, DWORD PTR [esi+268]
  0005c	85 ff		 test	 edi, edi
  0005e	7e 1e		 jle	 SHORT $LN23@SetSmallIc
  00060	8b 8e 34 01 00
	00		 mov	 ecx, DWORD PTR [esi+308]
  00066	2b f9		 sub	 edi, ecx
  00068	8b 96 a0 00 00
	00		 mov	 edx, DWORD PTR [esi+160]
  0006e	4f		 dec	 edi
  0006f	0f af fa	 imul	 edi, edx
  00072	8d 41 01	 lea	 eax, DWORD PTR [ecx+1]
  00075	0f af c2	 imul	 eax, edx
  00078	01 45 f0	 add	 DWORD PTR _rc$1[ebp+4], eax
  0007b	29 7d f8	 sub	 DWORD PTR _rc$1[ebp+12], edi
$LN23@SetSmallIc:
  0007e	6a 00		 push	 0
  00080	8d 45 ec	 lea	 eax, DWORD PTR _rc$1[ebp]
  00083	50		 push	 eax
  00084	ff 76 20	 push	 DWORD PTR [esi+32]
  00087	ff 15 00 00 00
	00		 call	 DWORD PTR __imp__InvalidateRect@12
$LN5@SetSmallIc:
  0008d	8b 4d fc	 mov	 ecx, DWORD PTR __$ArrayPad$[ebp]
  00090	5f		 pop	 edi
  00091	33 cd		 xor	 ecx, ebp
  00093	5e		 pop	 esi
  00094	e8 00 00 00 00	 call	 @__security_check_cookie@4
  00099	8b e5		 mov	 esp, ebp
  0009b	5d		 pop	 ebp
  0009c	c2 04 00	 ret	 4
?SetSmallIconView@CGfxOutBarCtrl@@QAEX_N@Z ENDP		; CGfxOutBarCtrl::SetSmallIconView
_TEXT	ENDS
; Function compile flags: /Ogtp
; File D:\git\src\IBK\IBK_DRFN\ProjSrc\SrcDrfn\Chart\comparechart\control\GfxOutBarCtrl.cpp
;	COMDAT ?GetFlag@CGfxOutBarCtrl@@QBEKXZ
_TEXT	SEGMENT
?GetFlag@CGfxOutBarCtrl@@QBEKXZ PROC			; CGfxOutBarCtrl::GetFlag, COMDAT
; _this$ = ecx

; 215  : 	return dwFlags;

  00000	8b 81 00 01 00
	00		 mov	 eax, DWORD PTR [ecx+256]

; 216  : }

  00006	c3		 ret	 0
?GetFlag@CGfxOutBarCtrl@@QBEKXZ ENDP			; CGfxOutBarCtrl::GetFlag
_TEXT	ENDS
; Function compile flags: /Ogtp
; File D:\git\src\IBK\IBK_DRFN\ProjSrc\SrcDrfn\Chart\comparechart\control\GfxOutBarCtrl.cpp
; File C:\Program Files (x86)\Microsoft Visual Studio\2019\Community\VC\Tools\MSVC\14.29.30133\atlmfc\include\afxwin2.inl
; File D:\git\src\IBK\IBK_DRFN\ProjSrc\SrcDrfn\Chart\comparechart\control\GfxOutBarCtrl.cpp
; File C:\Program Files (x86)\Microsoft Visual Studio\2019\Community\VC\Tools\MSVC\14.29.30133\atlmfc\include\afxwin2.inl
; File D:\git\src\IBK\IBK_DRFN\ProjSrc\SrcDrfn\Chart\comparechart\control\GfxOutBarCtrl.cpp
; File C:\Program Files (x86)\Microsoft Visual Studio\2019\Community\VC\Tools\MSVC\14.29.30133\atlmfc\include\afxwin2.inl
; File D:\git\src\IBK\IBK_DRFN\ProjSrc\SrcDrfn\Chart\comparechart\control\GfxOutBarCtrl.cpp
;	COMDAT ?ModifyFlag@CGfxOutBarCtrl@@QAEXABK0I@Z
_TEXT	SEGMENT
_dwRemove$ = 8						; size = 4
_dwAdd$ = 12						; size = 4
_redraw$ = 16						; size = 4
?ModifyFlag@CGfxOutBarCtrl@@QAEXABK0I@Z PROC		; CGfxOutBarCtrl::ModifyFlag, COMDAT
; _this$ = ecx

; 219  : {

  00000	55		 push	 ebp
  00001	8b ec		 mov	 ebp, esp

; 220  : 	if (dwRemove)	dwFlags &= ~(dwRemove);

  00003	8b 45 08	 mov	 eax, DWORD PTR _dwRemove$[ebp]
  00006	8b 00		 mov	 eax, DWORD PTR [eax]
  00008	85 c0		 test	 eax, eax
  0000a	74 08		 je	 SHORT $LN15@ModifyFlag
  0000c	f7 d0		 not	 eax
  0000e	21 81 00 01 00
	00		 and	 DWORD PTR [ecx+256], eax
$LN15@ModifyFlag:

; 221  : 	if (dwAdd)		dwFlags |= dwAdd;

  00014	8b 45 0c	 mov	 eax, DWORD PTR _dwAdd$[ebp]
  00017	8b 00		 mov	 eax, DWORD PTR [eax]
  00019	85 c0		 test	 eax, eax
  0001b	74 06		 je	 SHORT $LN3@ModifyFlag
  0001d	09 81 00 01 00
	00		 or	 DWORD PTR [ecx+256], eax
$LN3@ModifyFlag:
; File C:\Program Files (x86)\Microsoft Visual Studio\2019\Community\VC\Tools\MSVC\14.29.30133\atlmfc\include\afxwin2.inl

; 25   : 	{ return this == NULL ? NULL : m_hWnd; }

  00023	85 c9		 test	 ecx, ecx
  00025	74 21		 je	 SHORT $LN6@ModifyFlag
  00027	8b 51 20	 mov	 edx, DWORD PTR [ecx+32]
; File D:\git\src\IBK\IBK_DRFN\ProjSrc\SrcDrfn\Chart\comparechart\control\GfxOutBarCtrl.cpp

; 223  : 	if (GetSafeHwnd())

  0002a	85 d2		 test	 edx, edx
  0002c	74 1a		 je	 SHORT $LN6@ModifyFlag

; 224  : 	{
; 225  : 		if (redraw != 0) SetWindowPos(0,0,0,0,0,SWP_NOZORDER|SWP_NOSIZE|SWP_NOMOVE|redraw);

  0002e	8b 45 10	 mov	 eax, DWORD PTR _redraw$[ebp]
  00031	85 c0		 test	 eax, eax
  00033	74 17		 je	 SHORT $LN5@ModifyFlag
  00035	83 c8 07	 or	 eax, 7
  00038	50		 push	 eax
  00039	6a 00		 push	 0
  0003b	6a 00		 push	 0
  0003d	6a 00		 push	 0
  0003f	6a 00		 push	 0
  00041	6a 00		 push	 0
  00043	e8 00 00 00 00	 call	 ?SetWindowPos@CWnd@@QAEHPBV1@HHHHI@Z ; CWnd::SetWindowPos
$LN6@ModifyFlag:

; 228  : }

  00048	5d		 pop	 ebp
  00049	c2 0c 00	 ret	 12			; 0000000cH
$LN5@ModifyFlag:
; File C:\Program Files (x86)\Microsoft Visual Studio\2019\Community\VC\Tools\MSVC\14.29.30133\atlmfc\include\afxwin2.inl

; 114  : 	{ ASSERT(::IsWindow(m_hWnd)); ::InvalidateRect(m_hWnd, NULL, bErase); }

  0004c	c7 45 10 01 00
	00 00		 mov	 DWORD PTR _redraw$[ebp], 1
  00053	c7 45 0c 00 00
	00 00		 mov	 DWORD PTR _dwAdd$[ebp], 0
  0005a	89 55 08	 mov	 DWORD PTR _dwRemove$[ebp], edx
; File D:\git\src\IBK\IBK_DRFN\ProjSrc\SrcDrfn\Chart\comparechart\control\GfxOutBarCtrl.cpp

; 228  : }

  0005d	5d		 pop	 ebp
; File C:\Program Files (x86)\Microsoft Visual Studio\2019\Community\VC\Tools\MSVC\14.29.30133\atlmfc\include\afxwin2.inl

; 114  : 	{ ASSERT(::IsWindow(m_hWnd)); ::InvalidateRect(m_hWnd, NULL, bErase); }

  0005e	ff 25 00 00 00
	00		 jmp	 DWORD PTR __imp__InvalidateRect@12
?ModifyFlag@CGfxOutBarCtrl@@QAEXABK0I@Z ENDP		; CGfxOutBarCtrl::ModifyFlag
_TEXT	ENDS
; Function compile flags: /Ogtp
; File D:\git\src\IBK\IBK_DRFN\ProjSrc\SrcDrfn\Chart\comparechart\control\GfxOutBarCtrl.cpp
; File C:\Program Files (x86)\Microsoft Visual Studio\2019\Community\VC\Tools\MSVC\14.29.30133\atlmfc\include\afxwin2.inl
; File C:\Program Files (x86)\Microsoft Visual Studio\2019\Community\VC\Tools\MSVC\14.29.30133\atlmfc\include\atltypes.h
; File C:\Program Files (x86)\Microsoft Visual Studio\2019\Community\VC\Tools\MSVC\14.29.30133\atlmfc\include\afxwin2.inl
; File D:\git\src\IBK\IBK_DRFN\ProjSrc\SrcDrfn\Chart\comparechart\control\GfxOutBarCtrl.cpp
; File C:\Program Files (x86)\Microsoft Visual Studio\2019\Community\VC\Tools\MSVC\14.29.30133\atlmfc\include\atltypes.h
; File D:\git\src\IBK\IBK_DRFN\ProjSrc\SrcDrfn\Chart\comparechart\control\GfxOutBarCtrl.cpp
; File C:\Program Files (x86)\Microsoft Visual Studio\2019\Community\VC\Tools\MSVC\14.29.30133\atlmfc\include\atltypes.h
; File D:\git\src\IBK\IBK_DRFN\ProjSrc\SrcDrfn\Chart\comparechart\control\GfxOutBarCtrl.cpp
;	COMDAT ?GetFolderRect@CGfxOutBarCtrl@@QBE_NHAAVCRect@@@Z
_TEXT	SEGMENT
_this$GSCopy$1$ = -28					; size = 4
_rect$GSCopy$1$ = -24					; size = 4
_rc$1 = -20						; size = 16
__$ArrayPad$ = -4					; size = 4
_iIndex$ = 8						; size = 4
_rect$ = 12						; size = 4
?GetFolderRect@CGfxOutBarCtrl@@QBE_NHAAVCRect@@@Z PROC	; CGfxOutBarCtrl::GetFolderRect, COMDAT
; _this$ = ecx

; 454  : {

  00000	55		 push	 ebp
  00001	8b ec		 mov	 ebp, esp
  00003	83 ec 1c	 sub	 esp, 28			; 0000001cH
  00006	a1 00 00 00 00	 mov	 eax, DWORD PTR ___security_cookie
  0000b	33 c5		 xor	 eax, ebp
  0000d	89 45 fc	 mov	 DWORD PTR __$ArrayPad$[ebp], eax
  00010	8b 45 0c	 mov	 eax, DWORD PTR _rect$[ebp]
  00013	53		 push	 ebx
  00014	56		 push	 esi
  00015	57		 push	 edi

; 455  : 	int max = arFolder.GetSize();
; 456  : 	ASSERT(iIndex >= 0 && iIndex < max);
; 457  : 
; 458  : 	if (iIndex >= 0 && iIndex < max)

  00016	8b 7d 08	 mov	 edi, DWORD PTR _iIndex$[ebp]
  00019	8b f1		 mov	 esi, ecx
  0001b	89 75 e4	 mov	 DWORD PTR _this$GSCopy$1$[ebp], esi
  0001e	89 45 e8	 mov	 DWORD PTR _rect$GSCopy$1$[ebp], eax
  00021	85 ff		 test	 edi, edi
  00023	0f 88 a8 00 00
	00		 js	 $LN2@GetFolderR
  00029	8b 9e 0c 01 00
	00		 mov	 ebx, DWORD PTR [esi+268]
  0002f	3b fb		 cmp	 edi, ebx
  00031	0f 8d 9a 00 00
	00		 jge	 $LN2@GetFolderR
; File C:\Program Files (x86)\Microsoft Visual Studio\2019\Community\VC\Tools\MSVC\14.29.30133\atlmfc\include\afxwin2.inl

; 86   : 	{ ASSERT(::IsWindow(m_hWnd)); ::GetClientRect(m_hWnd, lpRect); }

  00037	8d 45 ec	 lea	 eax, DWORD PTR _rc$1[ebp]
  0003a	0f 57 c0	 xorps	 xmm0, xmm0
  0003d	50		 push	 eax
  0003e	ff 76 20	 push	 DWORD PTR [esi+32]
; File C:\Program Files (x86)\Microsoft Visual Studio\2019\Community\VC\Tools\MSVC\14.29.30133\atlmfc\include\atltypes.h

; 528  : 	left = 0;

  00041	0f 11 45 ec	 movups	 XMMWORD PTR _rc$1[ebp], xmm0
; File C:\Program Files (x86)\Microsoft Visual Studio\2019\Community\VC\Tools\MSVC\14.29.30133\atlmfc\include\afxwin2.inl

; 86   : 	{ ASSERT(::IsWindow(m_hWnd)); ::GetClientRect(m_hWnd, lpRect); }

  00045	ff 15 00 00 00
	00		 call	 DWORD PTR __imp__GetClientRect@8
; File D:\git\src\IBK\IBK_DRFN\ProjSrc\SrcDrfn\Chart\comparechart\control\GfxOutBarCtrl.cpp

; 462  : 		if (iIndex > iSelFolder)

  0004b	8b 45 e4	 mov	 eax, DWORD PTR _this$GSCopy$1$[ebp]
  0004e	8b b6 a4 00 00
	00		 mov	 esi, DWORD PTR [esi+164]
  00054	03 b0 a0 00 00
	00		 add	 esi, DWORD PTR [eax+160]
  0005a	3b b8 34 01 00
	00		 cmp	 edi, DWORD PTR [eax+308]
  00060	7e 3a		 jle	 SHORT $LN3@GetFolderR

; 463  : 			rect.SetRect(rc.left, rc.bottom - ((max - iIndex)) * (iFolderHeight+iGap), rc.right, 

  00062	8b 55 f8	 mov	 edx, DWORD PTR _rc$1[ebp+12]
  00065	2b df		 sub	 ebx, edi
  00067	8b c2		 mov	 eax, edx
  00069	8d 4b ff	 lea	 ecx, DWORD PTR [ebx-1]
  0006c	0f af de	 imul	 ebx, esi
  0006f	0f af ce	 imul	 ecx, esi
  00072	2b d3		 sub	 edx, ebx
  00074	2b c1		 sub	 eax, ecx
; File C:\Program Files (x86)\Microsoft Visual Studio\2019\Community\VC\Tools\MSVC\14.29.30133\atlmfc\include\atltypes.h

; 657  : 	::SetRect(this, x1, y1, x2, y2);

  00076	50		 push	 eax
  00077	ff 75 f4	 push	 DWORD PTR _rc$1[ebp+8]
  0007a	52		 push	 edx
; File D:\git\src\IBK\IBK_DRFN\ProjSrc\SrcDrfn\Chart\comparechart\control\GfxOutBarCtrl.cpp

; 468  : 		return true;

  0007b	ff 75 ec	 push	 DWORD PTR _rc$1[ebp]
  0007e	ff 75 e8	 push	 DWORD PTR _rect$GSCopy$1$[ebp]
  00081	ff 15 00 00 00
	00		 call	 DWORD PTR __imp__SetRect@20
  00087	5f		 pop	 edi

; 469  : 	}
; 470  : 	return false;
; 471  : }

  00088	5e		 pop	 esi
  00089	b0 01		 mov	 al, 1
  0008b	5b		 pop	 ebx
  0008c	8b 4d fc	 mov	 ecx, DWORD PTR __$ArrayPad$[ebp]
  0008f	33 cd		 xor	 ecx, ebp
  00091	e8 00 00 00 00	 call	 @__security_check_cookie@4
  00096	8b e5		 mov	 esp, ebp
  00098	5d		 pop	 ebp
  00099	c2 08 00	 ret	 8
$LN3@GetFolderR:

; 464  : 			rc.bottom - (max - iIndex - 1) * (iFolderHeight+iGap));
; 465  : 		else 
; 466  : 			rect.SetRect(rc.left, rc.top + iIndex * (iFolderHeight+iGap), rc.right, 

  0009c	8d 47 01	 lea	 eax, DWORD PTR [edi+1]
  0009f	0f af c6	 imul	 eax, esi
  000a2	0f af f7	 imul	 esi, edi
  000a5	03 45 f0	 add	 eax, DWORD PTR _rc$1[ebp+4]
  000a8	03 75 f0	 add	 esi, DWORD PTR _rc$1[ebp+4]
; File C:\Program Files (x86)\Microsoft Visual Studio\2019\Community\VC\Tools\MSVC\14.29.30133\atlmfc\include\atltypes.h

; 657  : 	::SetRect(this, x1, y1, x2, y2);

  000ab	50		 push	 eax
  000ac	ff 75 f4	 push	 DWORD PTR _rc$1[ebp+8]
  000af	56		 push	 esi
; File D:\git\src\IBK\IBK_DRFN\ProjSrc\SrcDrfn\Chart\comparechart\control\GfxOutBarCtrl.cpp

; 468  : 		return true;

  000b0	ff 75 ec	 push	 DWORD PTR _rc$1[ebp]
  000b3	ff 75 e8	 push	 DWORD PTR _rect$GSCopy$1$[ebp]
  000b6	ff 15 00 00 00
	00		 call	 DWORD PTR __imp__SetRect@20
  000bc	5f		 pop	 edi

; 469  : 	}
; 470  : 	return false;
; 471  : }

  000bd	5e		 pop	 esi
  000be	b0 01		 mov	 al, 1
  000c0	5b		 pop	 ebx
  000c1	8b 4d fc	 mov	 ecx, DWORD PTR __$ArrayPad$[ebp]
  000c4	33 cd		 xor	 ecx, ebp
  000c6	e8 00 00 00 00	 call	 @__security_check_cookie@4
  000cb	8b e5		 mov	 esp, ebp
  000cd	5d		 pop	 ebp
  000ce	c2 08 00	 ret	 8
$LN2@GetFolderR:
  000d1	8b 4d fc	 mov	 ecx, DWORD PTR __$ArrayPad$[ebp]
  000d4	32 c0		 xor	 al, al
  000d6	5f		 pop	 edi
  000d7	5e		 pop	 esi
  000d8	33 cd		 xor	 ecx, ebp
  000da	5b		 pop	 ebx
  000db	e8 00 00 00 00	 call	 @__security_check_cookie@4
  000e0	8b e5		 mov	 esp, ebp
  000e2	5d		 pop	 ebp
  000e3	c2 08 00	 ret	 8
?GetFolderRect@CGfxOutBarCtrl@@QBE_NHAAVCRect@@@Z ENDP	; CGfxOutBarCtrl::GetFolderRect
_TEXT	ENDS
; Function compile flags: /Ogtp
; File D:\git\src\IBK\IBK_DRFN\ProjSrc\SrcDrfn\Chart\comparechart\control\GfxOutBarCtrl.cpp
; File C:\Program Files (x86)\Microsoft Visual Studio\2019\Community\VC\Tools\MSVC\14.29.30133\atlmfc\include\afxwin2.inl
; File C:\Program Files (x86)\Microsoft Visual Studio\2019\Community\VC\Tools\MSVC\14.29.30133\atlmfc\include\atltypes.h
; File C:\Program Files (x86)\Microsoft Visual Studio\2019\Community\VC\Tools\MSVC\14.29.30133\atlmfc\include\afxwin2.inl
; File D:\git\src\IBK\IBK_DRFN\ProjSrc\SrcDrfn\Chart\comparechart\control\GfxOutBarCtrl.cpp
; File C:\Program Files (x86)\Microsoft Visual Studio\2019\Community\VC\Tools\MSVC\14.29.30133\atlmfc\include\atltypes.h
; File D:\git\src\IBK\IBK_DRFN\ProjSrc\SrcDrfn\Chart\comparechart\control\GfxOutBarCtrl.cpp
; File C:\Program Files (x86)\Microsoft Visual Studio\2019\Community\VC\Tools\MSVC\14.29.30133\atlmfc\include\atltypes.h
; File D:\git\src\IBK\IBK_DRFN\ProjSrc\SrcDrfn\Chart\comparechart\control\GfxOutBarCtrl.cpp
;	COMDAT ?GetItemRect@CGfxOutBarCtrl@@QAEXHHAAVCRect@@@Z
_TEXT	SEGMENT
$T1 = -52						; size = 8
tv320 = -44						; size = 8
$T2 = -44						; size = 8
_rect$GSCopy$1$ = -36					; size = 4
_y$1$ = -32						; size = 4
_iFolder$GSCopy$1$ = -28				; size = 4
_iIndex$GSCopy$1$ = -24					; size = 4
_rc$ = -20						; size = 16
__$ArrayPad$ = -4					; size = 4
_iFolder$ = 8						; size = 4
_iIndex$ = 12						; size = 4
_rect$ = 16						; size = 4
?GetItemRect@CGfxOutBarCtrl@@QAEXHHAAVCRect@@@Z PROC	; CGfxOutBarCtrl::GetItemRect, COMDAT
; _this$ = ecx

; 474  : {

  00000	55		 push	 ebp
  00001	8b ec		 mov	 ebp, esp
  00003	83 ec 34	 sub	 esp, 52			; 00000034H
  00006	a1 00 00 00 00	 mov	 eax, DWORD PTR ___security_cookie
  0000b	33 c5		 xor	 eax, ebp
  0000d	89 45 fc	 mov	 DWORD PTR __$ArrayPad$[ebp], eax
  00010	8b 45 08	 mov	 eax, DWORD PTR _iFolder$[ebp]
  00013	0f 57 c0	 xorps	 xmm0, xmm0
  00016	53		 push	 ebx
  00017	89 45 e4	 mov	 DWORD PTR _iFolder$GSCopy$1$[ebp], eax
  0001a	8b 45 0c	 mov	 eax, DWORD PTR _iIndex$[ebp]
  0001d	56		 push	 esi
  0001e	89 45 e8	 mov	 DWORD PTR _iIndex$GSCopy$1$[ebp], eax
  00021	8b f1		 mov	 esi, ecx
  00023	8b 45 10	 mov	 eax, DWORD PTR _rect$[ebp]
  00026	57		 push	 edi
  00027	89 45 dc	 mov	 DWORD PTR _rect$GSCopy$1$[ebp], eax
; File C:\Program Files (x86)\Microsoft Visual Studio\2019\Community\VC\Tools\MSVC\14.29.30133\atlmfc\include\afxwin2.inl

; 86   : 	{ ASSERT(::IsWindow(m_hWnd)); ::GetClientRect(m_hWnd, lpRect); }

  0002a	8d 45 ec	 lea	 eax, DWORD PTR _rc$[ebp]
  0002d	50		 push	 eax
  0002e	ff 76 20	 push	 DWORD PTR [esi+32]
; File C:\Program Files (x86)\Microsoft Visual Studio\2019\Community\VC\Tools\MSVC\14.29.30133\atlmfc\include\atltypes.h

; 528  : 	left = 0;

  00031	0f 11 45 ec	 movups	 XMMWORD PTR _rc$[ebp], xmm0
; File C:\Program Files (x86)\Microsoft Visual Studio\2019\Community\VC\Tools\MSVC\14.29.30133\atlmfc\include\afxwin2.inl

; 86   : 	{ ASSERT(::IsWindow(m_hWnd)); ::GetClientRect(m_hWnd, lpRect); }

  00035	ff 15 00 00 00
	00		 call	 DWORD PTR __imp__GetClientRect@8
; File D:\git\src\IBK\IBK_DRFN\ProjSrc\SrcDrfn\Chart\comparechart\control\GfxOutBarCtrl.cpp

; 746  : 	if (arFolder.GetSize() > 0)

  0003b	8b be 0c 01 00
	00		 mov	 edi, DWORD PTR [esi+268]
  00041	8b 5d f0	 mov	 ebx, DWORD PTR _rc$[ebp+4]
  00044	85 ff		 test	 edi, edi
  00046	7e 20		 jle	 SHORT $LN13@GetItemRec

; 747  : 	{
; 748  : 		int max = arFolder.GetSize();
; 749  : 		rect.top += iFolderHeight * (iSelFolder + 1); + 1;//+ 2;

  00048	8b 8e 34 01 00
	00		 mov	 ecx, DWORD PTR [esi+308]

; 750  : 		rect.bottom -= (max - iSelFolder - 1)*iFolderHeight;

  0004e	2b f9		 sub	 edi, ecx
  00050	8b 96 a0 00 00
	00		 mov	 edx, DWORD PTR [esi+160]
  00056	4f		 dec	 edi
  00057	0f af fa	 imul	 edi, edx
  0005a	8d 41 01	 lea	 eax, DWORD PTR [ecx+1]
  0005d	0f af c2	 imul	 eax, edx
  00060	03 d8		 add	 ebx, eax
  00062	29 7d f8	 sub	 DWORD PTR _rc$[ebp+12], edi
  00065	89 5d f0	 mov	 DWORD PTR _rc$[ebp+4], ebx
$LN13@GetItemRec:

; 475  : 	CRect rc;
; 476  : 	GetInsideRect(rc);
; 477  : 
; 478  : 	int top = rc.top;
; 479  : 	CSize sz(0,0);
; 480  : 	int y = 0;
; 481  : 	for (int t = 0; t < iIndex; t++)

  00068	8b 45 e8	 mov	 eax, DWORD PTR _iIndex$GSCopy$1$[ebp]
  0006b	33 ff		 xor	 edi, edi
  0006d	c7 45 e0 00 00
	00 00		 mov	 DWORD PTR _y$1$[ebp], 0
  00074	85 c0		 test	 eax, eax
  00076	7e 51		 jle	 SHORT $LN30@GetItemRec
$LL4@GetItemRec:

; 482  : 	{
; 483  : 		sz = GetItemSize(iFolder, t, ircAll);

  00078	6a 03		 push	 3
  0007a	57		 push	 edi
  0007b	ff 75 e4	 push	 DWORD PTR _iFolder$GSCopy$1$[ebp]
  0007e	8d 45 cc	 lea	 eax, DWORD PTR $T1[ebp]
  00081	8b ce		 mov	 ecx, esi
  00083	50		 push	 eax
  00084	e8 00 00 00 00	 call	 ?GetItemSize@CGfxOutBarCtrl@@QAE?AVCSize@@HHH@Z ; CGfxOutBarCtrl::GetItemSize

; 184  : 	return dwFlags&fSmallIcon;

  00089	f6 86 00 01 00
	00 01		 test	 BYTE PTR [esi+256], 1

; 482  : 	{
; 483  : 		sz = GetItemSize(iFolder, t, ircAll);

  00090	8b 08		 mov	 ecx, DWORD PTR [eax]
  00092	8b 40 04	 mov	 eax, DWORD PTR [eax+4]
  00095	89 4d d4	 mov	 DWORD PTR tv320[ebp], ecx
  00098	8d 0c 18	 lea	 ecx, DWORD PTR [eax+ebx]

; 484  : 		top += sz.cy;
; 485  : 
; 486  : 		if (IsSmallIconView()) 

  0009b	74 08		 je	 SHORT $LN5@GetItemRec

; 487  : 		{
; 488  : 			top += ySmallIconSpacing; 

  0009d	8b 86 b0 00 00
	00		 mov	 eax, DWORD PTR [esi+176]

; 489  : 		}

  000a3	eb 06		 jmp	 SHORT $LN6@GetItemRec
$LN5@GetItemRec:

; 490  : 		else 
; 491  : 		{
; 492  : 			top += yLargeIconSpacing;

  000a5	8b 86 b4 00 00
	00		 mov	 eax, DWORD PTR [esi+180]
$LN6@GetItemRec:

; 493  : 		}
; 494  : 		if (t == iFirstItem - 1) y = top - rc.top;

  000ab	8d 1c 01	 lea	 ebx, DWORD PTR [ecx+eax]
  000ae	8b 86 20 01 00
	00		 mov	 eax, DWORD PTR [esi+288]
  000b4	48		 dec	 eax
  000b5	3b f8		 cmp	 edi, eax
  000b7	75 08		 jne	 SHORT $LN2@GetItemRec
  000b9	8b c3		 mov	 eax, ebx
  000bb	2b 45 f0	 sub	 eax, DWORD PTR _rc$[ebp+4]
  000be	89 45 e0	 mov	 DWORD PTR _y$1$[ebp], eax
$LN2@GetItemRec:

; 475  : 	CRect rc;
; 476  : 	GetInsideRect(rc);
; 477  : 
; 478  : 	int top = rc.top;
; 479  : 	CSize sz(0,0);
; 480  : 	int y = 0;
; 481  : 	for (int t = 0; t < iIndex; t++)

  000c1	8b 45 e8	 mov	 eax, DWORD PTR _iIndex$GSCopy$1$[ebp]
  000c4	47		 inc	 edi
  000c5	3b f8		 cmp	 edi, eax
  000c7	7c af		 jl	 SHORT $LL4@GetItemRec
$LN30@GetItemRec:

; 496  : 	sz = GetItemSize(iFolder, iIndex, ircAll);

  000c9	6a 03		 push	 3
  000cb	50		 push	 eax
  000cc	ff 75 e4	 push	 DWORD PTR _iFolder$GSCopy$1$[ebp]
  000cf	8d 45 d4	 lea	 eax, DWORD PTR $T2[ebp]
  000d2	8b ce		 mov	 ecx, esi
  000d4	50		 push	 eax
  000d5	e8 00 00 00 00	 call	 ?GetItemSize@CGfxOutBarCtrl@@QAE?AVCSize@@HHH@Z ; CGfxOutBarCtrl::GetItemSize
; File C:\Program Files (x86)\Microsoft Visual Studio\2019\Community\VC\Tools\MSVC\14.29.30133\atlmfc\include\atltypes.h

; 657  : 	::SetRect(this, x1, y1, x2, y2);

  000da	8b 4d ec	 mov	 ecx, DWORD PTR _rc$[ebp]
; File D:\git\src\IBK\IBK_DRFN\ProjSrc\SrcDrfn\Chart\comparechart\control\GfxOutBarCtrl.cpp

; 496  : 	sz = GetItemSize(iFolder, iIndex, ircAll);

  000dd	8b 10		 mov	 edx, DWORD PTR [eax]
  000df	8b 40 04	 mov	 eax, DWORD PTR [eax+4]
  000e2	03 c3		 add	 eax, ebx
; File C:\Program Files (x86)\Microsoft Visual Studio\2019\Community\VC\Tools\MSVC\14.29.30133\atlmfc\include\atltypes.h

; 657  : 	::SetRect(this, x1, y1, x2, y2);

  000e4	50		 push	 eax
  000e5	8d 04 0a	 lea	 eax, DWORD PTR [edx+ecx]
  000e8	50		 push	 eax
  000e9	53		 push	 ebx
  000ea	8b 5d dc	 mov	 ebx, DWORD PTR _rect$GSCopy$1$[ebp]
  000ed	51		 push	 ecx
  000ee	53		 push	 ebx
  000ef	ff 15 00 00 00
	00		 call	 DWORD PTR __imp__SetRect@20
; File D:\git\src\IBK\IBK_DRFN\ProjSrc\SrcDrfn\Chart\comparechart\control\GfxOutBarCtrl.cpp

; 499  : 	rect.top -= y;

  000f5	8b 45 e0	 mov	 eax, DWORD PTR _y$1$[ebp]
  000f8	29 43 04	 sub	 DWORD PTR [ebx+4], eax

; 500  : 	rect.bottom -= y;

  000fb	29 43 0c	 sub	 DWORD PTR [ebx+12], eax

; 501  : 
; 502  : 	rect.left += xLeftMargin;

  000fe	8b 86 b8 00 00
	00		 mov	 eax, DWORD PTR [esi+184]
  00104	01 03		 add	 DWORD PTR [ebx], eax

; 503  : 	rect.top  += yTopMargin;

  00106	8b 86 bc 00 00
	00		 mov	 eax, DWORD PTR [esi+188]
  0010c	01 43 04	 add	 DWORD PTR [ebx+4], eax

; 504  : 	rect.bottom += yTopMargin;

  0010f	8b 86 bc 00 00
	00		 mov	 eax, DWORD PTR [esi+188]
  00115	01 43 0c	 add	 DWORD PTR [ebx+12], eax

; 184  : 	return dwFlags&fSmallIcon;

  00118	f6 86 00 01 00
	00 01		 test	 BYTE PTR [esi+256], 1

; 505  : 
; 506  : 	if (!IsSmallIconView()) 

  0011f	75 0b		 jne	 SHORT $LN8@GetItemRec

; 507  : 	{
; 508  : 		rect.left = rc.left;

  00121	8b 45 ec	 mov	 eax, DWORD PTR _rc$[ebp]
  00124	89 03		 mov	 DWORD PTR [ebx], eax

; 509  : 		rect.right = rc.right;

  00126	8b 45 f4	 mov	 eax, DWORD PTR _rc$[ebp+8]
  00129	89 43 08	 mov	 DWORD PTR [ebx+8], eax
$LN8@GetItemRec:

; 510  : 	}
; 511  : }

  0012c	8b 4d fc	 mov	 ecx, DWORD PTR __$ArrayPad$[ebp]
  0012f	5f		 pop	 edi
  00130	5e		 pop	 esi
  00131	33 cd		 xor	 ecx, ebp
  00133	5b		 pop	 ebx
  00134	e8 00 00 00 00	 call	 @__security_check_cookie@4
  00139	8b e5		 mov	 esp, ebp
  0013b	5d		 pop	 ebp
  0013c	c2 0c 00	 ret	 12			; 0000000cH
?GetItemRect@CGfxOutBarCtrl@@QAEXHHAAVCRect@@@Z ENDP	; CGfxOutBarCtrl::GetItemRect
_TEXT	ENDS
; Function compile flags: /Ogtp
; File D:\git\src\IBK\IBK_DRFN\ProjSrc\SrcDrfn\Chart\comparechart\control\GfxOutBarCtrl.cpp
; File C:\Program Files (x86)\Microsoft Visual Studio\2019\Community\VC\Tools\MSVC\14.29.30133\atlmfc\include\afxcoll.inl
; File D:\git\src\IBK\IBK_DRFN\ProjSrc\SrcDrfn\Chart\comparechart\control\GfxOutBarCtrl.cpp
;	COMDAT ?AddFolder@CGfxOutBarCtrl@@QAEHPBDK@Z
_TEXT	SEGMENT
$T2 = -16						; size = 4
__$EHRec$ = -12						; size = 12
_cFolderName$ = 8					; size = 4
_exData$ = 12						; size = 4
?AddFolder@CGfxOutBarCtrl@@QAEHPBDK@Z PROC		; CGfxOutBarCtrl::AddFolder, COMDAT
; _this$ = ecx

; 702  : {

  00000	55		 push	 ebp
  00001	8b ec		 mov	 ebp, esp
  00003	6a ff		 push	 -1
  00005	68 00 00 00 00	 push	 __ehhandler$?AddFolder@CGfxOutBarCtrl@@QAEHPBDK@Z
  0000a	64 a1 00 00 00
	00		 mov	 eax, DWORD PTR fs:0
  00010	50		 push	 eax
  00011	51		 push	 ecx
  00012	53		 push	 ebx
  00013	56		 push	 esi
  00014	57		 push	 edi
  00015	a1 00 00 00 00	 mov	 eax, DWORD PTR ___security_cookie
  0001a	33 c5		 xor	 eax, ebp
  0001c	50		 push	 eax
  0001d	8d 45 f4	 lea	 eax, DWORD PTR __$EHRec$[ebp]
  00020	64 a3 00 00 00
	00		 mov	 DWORD PTR fs:0, eax
  00026	8b d9		 mov	 ebx, ecx

; 703  : 	CBarFolder * pbf = new CBarFolder(cFolderName, exData);

  00028	6a 2c		 push	 44			; 0000002cH
  0002a	e8 00 00 00 00	 call	 ??2@YAPAXI@Z		; operator new
  0002f	8b f0		 mov	 esi, eax
  00031	83 c4 04	 add	 esp, 4
  00034	89 75 f0	 mov	 DWORD PTR $T2[ebp], esi
  00037	c7 45 fc 00 00
	00 00		 mov	 DWORD PTR __$EHRec$[ebp+8], 0
  0003e	85 f6		 test	 esi, esi
  00040	74 59		 je	 SHORT $LN3@AddFolder

; 711  : {

  00042	8d 4e 14	 lea	 ecx, DWORD PTR [esi+20]
  00045	c7 06 00 00 00
	00		 mov	 DWORD PTR [esi], OFFSET ??_7CBarFolder@CGfxOutBarCtrl@@6B@
  0004b	e8 00 00 00 00	 call	 ??0CPtrArray@@QAE@XZ	; CPtrArray::CPtrArray

; 712  : 	cName = NULL;
; 713  : 	dwData = exData;
; 714  : 
; 715  : 	if (name)

  00050	8b 7d 08	 mov	 edi, DWORD PTR _cFolderName$[ebp]
  00053	8b 45 0c	 mov	 eax, DWORD PTR _exData$[ebp]
  00056	c6 45 fc 01	 mov	 BYTE PTR __$EHRec$[ebp+8], 1
  0005a	c7 46 04 00 00
	00 00		 mov	 DWORD PTR [esi+4], 0
  00061	89 46 08	 mov	 DWORD PTR [esi+8], eax
  00064	85 ff		 test	 edi, edi
  00066	74 1c		 je	 SHORT $LN7@AddFolder

; 716  : 	{
; 717  : 		cName = new char[lstrlen(name)+1];

  00068	57		 push	 edi
  00069	ff 15 00 00 00
	00		 call	 DWORD PTR __imp__lstrlenA@4
  0006f	40		 inc	 eax
  00070	50		 push	 eax
  00071	e8 00 00 00 00	 call	 ??_U@YAPAXI@Z		; operator new[]
  00076	83 c4 04	 add	 esp, 4
  00079	89 46 04	 mov	 DWORD PTR [esi+4], eax

; 718  : 		ASSERT(cName);
; 719  : 		lstrcpy(cName, name);

  0007c	57		 push	 edi
  0007d	50		 push	 eax
  0007e	ff 15 00 00 00
	00		 call	 DWORD PTR __imp__lstrcpyA@8
$LN7@AddFolder:

; 720  : 	}
; 721  : 	pLargeImageList = NULL;

  00084	c7 46 0c 00 00
	00 00		 mov	 DWORD PTR [esi+12], 0

; 722  : 	pSmallImageList = NULL;

  0008b	c7 46 10 00 00
	00 00		 mov	 DWORD PTR [esi+16], 0

; 723  : 	pChild = NULL;

  00092	c7 46 28 00 00
	00 00		 mov	 DWORD PTR [esi+40], 0

; 703  : 	CBarFolder * pbf = new CBarFolder(cFolderName, exData);

  00099	eb 02		 jmp	 SHORT $LN4@AddFolder
$LN3@AddFolder:
  0009b	33 f6		 xor	 esi, esi
$LN4@AddFolder:

; 704  : 	ASSERT(pbf);
; 705  : 	arFolder.Add((void *)pbf);

  0009d	8d 8b 04 01 00
	00		 lea	 ecx, DWORD PTR [ebx+260]
  000a3	c7 45 fc ff ff
	ff ff		 mov	 DWORD PTR __$EHRec$[ebp+8], -1
; File C:\Program Files (x86)\Microsoft Visual Studio\2019\Community\VC\Tools\MSVC\14.29.30133\atlmfc\include\afxcoll.inl

; 223  : 		SetAtGrow(nIndex, newElement);

  000aa	56		 push	 esi
  000ab	ff 71 08	 push	 DWORD PTR [ecx+8]
  000ae	e8 00 00 00 00	 call	 ?SetAtGrow@CPtrArray@@QAEXHPAX@Z ; CPtrArray::SetAtGrow
; File D:\git\src\IBK\IBK_DRFN\ProjSrc\SrcDrfn\Chart\comparechart\control\GfxOutBarCtrl.cpp

; 707  : 	return arFolder.GetSize() - 1;

  000b3	8b 83 0c 01 00
	00		 mov	 eax, DWORD PTR [ebx+268]
  000b9	48		 dec	 eax

; 708  : }

  000ba	8b 4d f4	 mov	 ecx, DWORD PTR __$EHRec$[ebp]
  000bd	64 89 0d 00 00
	00 00		 mov	 DWORD PTR fs:0, ecx
  000c4	59		 pop	 ecx
  000c5	5f		 pop	 edi
  000c6	5e		 pop	 esi
  000c7	5b		 pop	 ebx
  000c8	8b e5		 mov	 esp, ebp
  000ca	5d		 pop	 ebp
  000cb	c2 08 00	 ret	 8
_TEXT	ENDS
;	COMDAT text$x
text$x	SEGMENT
__unwindfunclet$?AddFolder@CGfxOutBarCtrl@@QAEHPBDK@Z$0:
  00000	6a 2c		 push	 44			; 0000002cH
  00002	8b 45 f0	 mov	 eax, DWORD PTR $T2[ebp]
  00005	50		 push	 eax
  00006	e8 00 00 00 00	 call	 ??3@YAXPAXI@Z		; operator delete
  0000b	83 c4 08	 add	 esp, 8
  0000e	c3		 ret	 0
__unwindfunclet$?AddFolder@CGfxOutBarCtrl@@QAEHPBDK@Z$1:
  0000f	8b 4d f0	 mov	 ecx, DWORD PTR $T2[ebp]
  00012	83 c1 14	 add	 ecx, 20			; 00000014H
  00015	e9 00 00 00 00	 jmp	 ??1CPtrArray@@UAE@XZ	; CPtrArray::~CPtrArray
  0001a	cc		 int	 3
  0001b	cc		 int	 3
  0001c	cc		 int	 3
  0001d	cc		 int	 3
  0001e	cc		 int	 3
__ehhandler$?AddFolder@CGfxOutBarCtrl@@QAEHPBDK@Z:
  0001f	90		 npad	 1
  00020	90		 npad	 1
  00021	8b 54 24 08	 mov	 edx, DWORD PTR [esp+8]
  00025	8d 42 0c	 lea	 eax, DWORD PTR [edx+12]
  00028	8b 4a ec	 mov	 ecx, DWORD PTR [edx-20]
  0002b	33 c8		 xor	 ecx, eax
  0002d	e8 00 00 00 00	 call	 @__security_check_cookie@4
  00032	b8 00 00 00 00	 mov	 eax, OFFSET __ehfuncinfo$?AddFolder@CGfxOutBarCtrl@@QAEHPBDK@Z
  00037	e9 00 00 00 00	 jmp	 ___CxxFrameHandler3
text$x	ENDS
?AddFolder@CGfxOutBarCtrl@@QAEHPBDK@Z ENDP		; CGfxOutBarCtrl::AddFolder
; Function compile flags: /Ogtp
; File D:\git\src\IBK\IBK_DRFN\ProjSrc\SrcDrfn\Chart\comparechart\control\GfxOutBarCtrl.cpp
; File C:\Program Files (x86)\Microsoft Visual Studio\2019\Community\VC\Tools\MSVC\14.29.30133\atlmfc\include\afxwin2.inl
; File D:\git\src\IBK\IBK_DRFN\ProjSrc\SrcDrfn\Chart\comparechart\control\GfxOutBarCtrl.cpp
; File C:\Program Files (x86)\Microsoft Visual Studio\2019\Community\VC\Tools\MSVC\14.29.30133\atlmfc\include\afxwin2.inl
; File D:\git\src\IBK\IBK_DRFN\ProjSrc\SrcDrfn\Chart\comparechart\control\GfxOutBarCtrl.cpp
;	COMDAT ?GetInsideRect@CGfxOutBarCtrl@@QBEXAAVCRect@@@Z
_TEXT	SEGMENT
_rect$ = 8						; size = 4
?GetInsideRect@CGfxOutBarCtrl@@QBEXAAVCRect@@@Z PROC	; CGfxOutBarCtrl::GetInsideRect, COMDAT
; _this$ = ecx

; 744  : {

  00000	55		 push	 ebp
  00001	8b ec		 mov	 ebp, esp
  00003	56		 push	 esi
  00004	57		 push	 edi
; File C:\Program Files (x86)\Microsoft Visual Studio\2019\Community\VC\Tools\MSVC\14.29.30133\atlmfc\include\afxwin2.inl

; 86   : 	{ ASSERT(::IsWindow(m_hWnd)); ::GetClientRect(m_hWnd, lpRect); }

  00005	8b 7d 08	 mov	 edi, DWORD PTR _rect$[ebp]
; File D:\git\src\IBK\IBK_DRFN\ProjSrc\SrcDrfn\Chart\comparechart\control\GfxOutBarCtrl.cpp

; 744  : {

  00008	8b f1		 mov	 esi, ecx
; File C:\Program Files (x86)\Microsoft Visual Studio\2019\Community\VC\Tools\MSVC\14.29.30133\atlmfc\include\afxwin2.inl

; 86   : 	{ ASSERT(::IsWindow(m_hWnd)); ::GetClientRect(m_hWnd, lpRect); }

  0000a	57		 push	 edi
  0000b	ff 76 20	 push	 DWORD PTR [esi+32]
  0000e	ff 15 00 00 00
	00		 call	 DWORD PTR __imp__GetClientRect@8
; File D:\git\src\IBK\IBK_DRFN\ProjSrc\SrcDrfn\Chart\comparechart\control\GfxOutBarCtrl.cpp

; 746  : 	if (arFolder.GetSize() > 0)

  00014	8b 96 0c 01 00
	00		 mov	 edx, DWORD PTR [esi+268]
  0001a	85 d2		 test	 edx, edx
  0001c	7e 22		 jle	 SHORT $LN2@GetInsideR

; 747  : 	{
; 748  : 		int max = arFolder.GetSize();
; 749  : 		rect.top += iFolderHeight * (iSelFolder + 1); + 1;//+ 2;

  0001e	8b 86 34 01 00
	00		 mov	 eax, DWORD PTR [esi+308]
  00024	40		 inc	 eax
  00025	0f af 86 a0 00
	00 00		 imul	 eax, DWORD PTR [esi+160]
  0002c	01 47 04	 add	 DWORD PTR [edi+4], eax

; 750  : 		rect.bottom -= (max - iSelFolder - 1)*iFolderHeight;

  0002f	2b 96 34 01 00
	00		 sub	 edx, DWORD PTR [esi+308]
  00035	4a		 dec	 edx
  00036	0f af 96 a0 00
	00 00		 imul	 edx, DWORD PTR [esi+160]
  0003d	29 57 0c	 sub	 DWORD PTR [edi+12], edx
$LN2@GetInsideR:

; 751  : 
; 752  : 		//rect.top += (iFolderHeight+iGap) * (iSelFolder + 1);
; 753  : 		//rect.bottom -= (max - iSelFolder - 1)*(iFolderHeight+iGap) + 2;
; 754  : 		return;
; 755  : 	}
; 756  : }

  00040	5f		 pop	 edi
  00041	5e		 pop	 esi
  00042	5d		 pop	 ebp
  00043	c2 04 00	 ret	 4
?GetInsideRect@CGfxOutBarCtrl@@QBEXAAVCRect@@@Z ENDP	; CGfxOutBarCtrl::GetInsideRect
_TEXT	ENDS
; Function compile flags: /Ogtp
; File D:\git\src\IBK\IBK_DRFN\ProjSrc\SrcDrfn\Chart\comparechart\control\GfxOutBarCtrl.cpp
; File C:\Program Files (x86)\Microsoft Visual Studio\2019\Community\VC\Tools\MSVC\14.29.30133\atlmfc\include\atltypes.h
; File D:\git\src\IBK\IBK_DRFN\ProjSrc\SrcDrfn\Chart\comparechart\control\GfxOutBarCtrl.cpp
; File C:\Program Files (x86)\Microsoft Visual Studio\2019\Community\VC\Tools\MSVC\14.29.30133\atlmfc\include\atltypes.h
; File D:\git\src\IBK\IBK_DRFN\ProjSrc\SrcDrfn\Chart\comparechart\control\GfxOutBarCtrl.cpp
; File C:\Program Files (x86)\Microsoft Visual Studio\2019\Community\VC\Tools\MSVC\14.29.30133\atlmfc\include\atltypes.h
; File D:\git\src\IBK\IBK_DRFN\ProjSrc\SrcDrfn\Chart\comparechart\control\GfxOutBarCtrl.cpp
; File C:\Program Files (x86)\Microsoft Visual Studio\2019\Community\VC\Tools\MSVC\14.29.30133\atlmfc\include\atltypes.h
; File D:\git\src\IBK\IBK_DRFN\ProjSrc\SrcDrfn\Chart\comparechart\control\GfxOutBarCtrl.cpp
; File C:\Program Files (x86)\Microsoft Visual Studio\2019\Community\VC\Tools\MSVC\14.29.30133\atlmfc\include\atltypes.h
; File D:\git\src\IBK\IBK_DRFN\ProjSrc\SrcDrfn\Chart\comparechart\control\GfxOutBarCtrl.cpp
; File C:\Program Files (x86)\Microsoft Visual Studio\2019\Community\VC\Tools\MSVC\14.29.30133\atlmfc\include\atltypes.h
; File D:\git\src\IBK\IBK_DRFN\ProjSrc\SrcDrfn\Chart\comparechart\control\GfxOutBarCtrl.cpp
; File C:\Program Files (x86)\Microsoft Visual Studio\2019\Community\VC\Tools\MSVC\14.29.30133\atlmfc\include\afxwin2.inl
; File D:\git\src\IBK\IBK_DRFN\ProjSrc\SrcDrfn\Chart\comparechart\control\GfxOutBarCtrl.cpp
; File C:\Program Files (x86)\Microsoft Visual Studio\2019\Community\VC\Tools\MSVC\14.29.30133\atlmfc\include\afxcoll.inl
; File D:\git\src\IBK\IBK_DRFN\ProjSrc\SrcDrfn\Chart\comparechart\control\GfxOutBarCtrl.cpp
; File C:\Program Files (x86)\Microsoft Visual Studio\2019\Community\VC\Tools\MSVC\14.29.30133\atlmfc\include\afxcoll.inl
; File D:\git\src\IBK\IBK_DRFN\ProjSrc\SrcDrfn\Chart\comparechart\control\GfxOutBarCtrl.cpp
; File C:\Program Files (x86)\Microsoft Visual Studio\2019\Community\VC\Tools\MSVC\14.29.30133\atlmfc\include\afxcoll.inl
; File D:\git\src\IBK\IBK_DRFN\ProjSrc\SrcDrfn\Chart\comparechart\control\GfxOutBarCtrl.cpp
; File C:\Program Files (x86)\Microsoft Visual Studio\2019\Community\VC\Tools\MSVC\14.29.30133\atlmfc\include\afxcoll.inl
; File D:\git\src\IBK\IBK_DRFN\ProjSrc\SrcDrfn\Chart\comparechart\control\GfxOutBarCtrl.cpp
; File C:\Program Files (x86)\Microsoft Visual Studio\2019\Community\VC\Tools\MSVC\14.29.30133\atlmfc\include\atltypes.h
; File D:\git\src\IBK\IBK_DRFN\ProjSrc\SrcDrfn\Chart\comparechart\control\GfxOutBarCtrl.cpp
; File C:\Program Files (x86)\Microsoft Visual Studio\2019\Community\VC\Tools\MSVC\14.29.30133\atlmfc\include\atltypes.h
; File D:\git\src\IBK\IBK_DRFN\ProjSrc\SrcDrfn\Chart\comparechart\control\GfxOutBarCtrl.cpp
; File C:\Program Files (x86)\Microsoft Visual Studio\2019\Community\VC\Tools\MSVC\14.29.30133\atlmfc\include\atltypes.h
; File D:\git\src\IBK\IBK_DRFN\ProjSrc\SrcDrfn\Chart\comparechart\control\GfxOutBarCtrl.cpp
; File C:\Program Files (x86)\Microsoft Visual Studio\2019\Community\VC\Tools\MSVC\14.29.30133\atlmfc\include\atltypes.h
; File D:\git\src\IBK\IBK_DRFN\ProjSrc\SrcDrfn\Chart\comparechart\control\GfxOutBarCtrl.cpp
; File C:\Program Files (x86)\Microsoft Visual Studio\2019\Community\VC\Tools\MSVC\14.29.30133\atlmfc\include\atltypes.h
; File D:\git\src\IBK\IBK_DRFN\ProjSrc\SrcDrfn\Chart\comparechart\control\GfxOutBarCtrl.cpp
;	COMDAT ?HitTestEx@CGfxOutBarCtrl@@QAEHABVCPoint@@AAH@Z
_TEXT	SEGMENT
_index$GSCopy$1$ = -48					; size = 4
_pbf$1$ = -44						; size = 4
_f$ = -44						; size = 4
_max$2$ = -40						; size = 4
_max$1$ = -40						; size = 4
_l$ = -40						; size = 4
_itemRc$1 = -36						; size = 16
_rc$ = -20						; size = 16
__$ArrayPad$ = -4					; size = 4
_point$ = 8						; size = 4
_index$ = 12						; size = 4
?HitTestEx@CGfxOutBarCtrl@@QAEHABVCPoint@@AAH@Z PROC	; CGfxOutBarCtrl::HitTestEx, COMDAT
; _this$ = ecx

; 780  : {

  00000	55		 push	 ebp
  00001	8b ec		 mov	 ebp, esp
  00003	83 ec 30	 sub	 esp, 48			; 00000030H
  00006	a1 00 00 00 00	 mov	 eax, DWORD PTR ___security_cookie
  0000b	33 c5		 xor	 eax, ebp
  0000d	89 45 fc	 mov	 DWORD PTR __$ArrayPad$[ebp], eax
  00010	8b 45 0c	 mov	 eax, DWORD PTR _index$[ebp]
  00013	53		 push	 ebx
  00014	8b 5d 08	 mov	 ebx, DWORD PTR _point$[ebp]
  00017	56		 push	 esi
  00018	8b f1		 mov	 esi, ecx
  0001a	89 45 d0	 mov	 DWORD PTR _index$GSCopy$1$[ebp], eax

; 781  : 	if (bUpArrow && rcUpArrow.PtInRect(point)) return htUpScroll;

  0001d	8b 0d 00 00 00
	00		 mov	 ecx, DWORD PTR __imp__PtInRect@12
  00023	80 be c0 00 00
	00 00		 cmp	 BYTE PTR [esi+192], 0
  0002a	74 2f		 je	 SHORT $LN8@HitTestEx
; File C:\Program Files (x86)\Microsoft Visual Studio\2019\Community\VC\Tools\MSVC\14.29.30133\atlmfc\include\atltypes.h

; 648  : 	return ::PtInRect(this, point);

  0002c	ff 73 04	 push	 DWORD PTR [ebx+4]
; File D:\git\src\IBK\IBK_DRFN\ProjSrc\SrcDrfn\Chart\comparechart\control\GfxOutBarCtrl.cpp

; 781  : 	if (bUpArrow && rcUpArrow.PtInRect(point)) return htUpScroll;

  0002f	8d 86 c4 00 00
	00		 lea	 eax, DWORD PTR [esi+196]
; File C:\Program Files (x86)\Microsoft Visual Studio\2019\Community\VC\Tools\MSVC\14.29.30133\atlmfc\include\atltypes.h

; 648  : 	return ::PtInRect(this, point);

  00035	ff 33		 push	 DWORD PTR [ebx]
  00037	50		 push	 eax
  00038	ff d1		 call	 ecx
; File D:\git\src\IBK\IBK_DRFN\ProjSrc\SrcDrfn\Chart\comparechart\control\GfxOutBarCtrl.cpp

; 781  : 	if (bUpArrow && rcUpArrow.PtInRect(point)) return htUpScroll;

  0003a	85 c0		 test	 eax, eax
  0003c	74 17		 je	 SHORT $LN89@HitTestEx
  0003e	5e		 pop	 esi
  0003f	b8 02 00 00 00	 mov	 eax, 2

; 847  : }

  00044	5b		 pop	 ebx
  00045	8b 4d fc	 mov	 ecx, DWORD PTR __$ArrayPad$[ebp]
  00048	33 cd		 xor	 ecx, ebp
  0004a	e8 00 00 00 00	 call	 @__security_check_cookie@4
  0004f	8b e5		 mov	 esp, ebp
  00051	5d		 pop	 ebp
  00052	c2 08 00	 ret	 8
$LN89@HitTestEx:

; 781  : 	if (bUpArrow && rcUpArrow.PtInRect(point)) return htUpScroll;

  00055	8b 0d 00 00 00
	00		 mov	 ecx, DWORD PTR __imp__PtInRect@12
$LN8@HitTestEx:

; 782  : 	if (bDownArrow && rcDownArrow.PtInRect(point)) return htDownScroll;

  0005b	80 be c1 00 00
	00 00		 cmp	 BYTE PTR [esi+193], 0
  00062	74 29		 je	 SHORT $LN9@HitTestEx
; File C:\Program Files (x86)\Microsoft Visual Studio\2019\Community\VC\Tools\MSVC\14.29.30133\atlmfc\include\atltypes.h

; 648  : 	return ::PtInRect(this, point);

  00064	ff 73 04	 push	 DWORD PTR [ebx+4]
; File D:\git\src\IBK\IBK_DRFN\ProjSrc\SrcDrfn\Chart\comparechart\control\GfxOutBarCtrl.cpp

; 782  : 	if (bDownArrow && rcDownArrow.PtInRect(point)) return htDownScroll;

  00067	8d 86 d4 00 00
	00		 lea	 eax, DWORD PTR [esi+212]
; File C:\Program Files (x86)\Microsoft Visual Studio\2019\Community\VC\Tools\MSVC\14.29.30133\atlmfc\include\atltypes.h

; 648  : 	return ::PtInRect(this, point);

  0006d	ff 33		 push	 DWORD PTR [ebx]
  0006f	50		 push	 eax
  00070	ff d1		 call	 ecx
; File D:\git\src\IBK\IBK_DRFN\ProjSrc\SrcDrfn\Chart\comparechart\control\GfxOutBarCtrl.cpp

; 782  : 	if (bDownArrow && rcDownArrow.PtInRect(point)) return htDownScroll;

  00072	85 c0		 test	 eax, eax
  00074	74 17		 je	 SHORT $LN9@HitTestEx
  00076	5e		 pop	 esi
  00077	b8 03 00 00 00	 mov	 eax, 3

; 847  : }

  0007c	5b		 pop	 ebx
  0007d	8b 4d fc	 mov	 ecx, DWORD PTR __$ArrayPad$[ebp]
  00080	33 cd		 xor	 ecx, ebp
  00082	e8 00 00 00 00	 call	 @__security_check_cookie@4
  00087	8b e5		 mov	 esp, ebp
  00089	5d		 pop	 ebp
  0008a	c2 08 00	 ret	 8
$LN9@HitTestEx:

; 783  : 
; 784  : 	int max = arFolder.GetSize(), t;

  0008d	8b 86 0c 01 00
	00		 mov	 eax, DWORD PTR [esi+268]
  00093	89 45 d8	 mov	 DWORD PTR _max$2$[ebp], eax

; 785  : 	//max 1  .
; 786  : 	if (max <1)	return -1;

  00096	83 f8 01	 cmp	 eax, 1
  00099	7d 15		 jge	 SHORT $LN10@HitTestEx
  0009b	5e		 pop	 esi
  0009c	83 c8 ff	 or	 eax, -1

; 847  : }

  0009f	5b		 pop	 ebx
  000a0	8b 4d fc	 mov	 ecx, DWORD PTR __$ArrayPad$[ebp]
  000a3	33 cd		 xor	 ecx, ebp
  000a5	e8 00 00 00 00	 call	 @__security_check_cookie@4
  000aa	8b e5		 mov	 esp, ebp
  000ac	5d		 pop	 ebp
  000ad	c2 08 00	 ret	 8
$LN10@HitTestEx:
  000b0	0f 57 c0	 xorps	 xmm0, xmm0
  000b3	57		 push	 edi
; File C:\Program Files (x86)\Microsoft Visual Studio\2019\Community\VC\Tools\MSVC\14.29.30133\atlmfc\include\atltypes.h

; 528  : 	left = 0;

  000b4	0f 11 45 ec	 movups	 XMMWORD PTR _rc$[ebp], xmm0
; File D:\git\src\IBK\IBK_DRFN\ProjSrc\SrcDrfn\Chart\comparechart\control\GfxOutBarCtrl.cpp

; 789  : 	for (t = 0; t < max; t++)

  000b8	33 ff		 xor	 edi, edi
  000ba	66 0f 1f 44 00
	00		 npad	 6
$LL4@HitTestEx:

; 790  : 	{
; 791  : 		GetFolderRect(t, rc);

  000c0	8d 45 ec	 lea	 eax, DWORD PTR _rc$[ebp]
  000c3	8b ce		 mov	 ecx, esi
  000c5	50		 push	 eax
  000c6	57		 push	 edi
  000c7	e8 00 00 00 00	 call	 ?GetFolderRect@CGfxOutBarCtrl@@QBE_NHAAVCRect@@@Z ; CGfxOutBarCtrl::GetFolderRect
; File C:\Program Files (x86)\Microsoft Visual Studio\2019\Community\VC\Tools\MSVC\14.29.30133\atlmfc\include\atltypes.h

; 648  : 	return ::PtInRect(this, point);

  000cc	ff 73 04	 push	 DWORD PTR [ebx+4]
  000cf	8d 45 ec	 lea	 eax, DWORD PTR _rc$[ebp]
  000d2	ff 33		 push	 DWORD PTR [ebx]
  000d4	50		 push	 eax
  000d5	ff 15 00 00 00
	00		 call	 DWORD PTR __imp__PtInRect@12
; File D:\git\src\IBK\IBK_DRFN\ProjSrc\SrcDrfn\Chart\comparechart\control\GfxOutBarCtrl.cpp

; 792  : 		if (rc.PtInRect(point)) 

  000db	85 c0		 test	 eax, eax
  000dd	0f 85 a6 01 00
	00		 jne	 $LN69@HitTestEx

; 789  : 	for (t = 0; t < max; t++)

  000e3	47		 inc	 edi
  000e4	3b 7d d8	 cmp	 edi, DWORD PTR _max$2$[ebp]
  000e7	7c d7		 jl	 SHORT $LL4@HitTestEx
; File C:\Program Files (x86)\Microsoft Visual Studio\2019\Community\VC\Tools\MSVC\14.29.30133\atlmfc\include\afxwin2.inl

; 86   : 	{ ASSERT(::IsWindow(m_hWnd)); ::GetClientRect(m_hWnd, lpRect); }

  000e9	8d 45 ec	 lea	 eax, DWORD PTR _rc$[ebp]
  000ec	50		 push	 eax
  000ed	ff 76 20	 push	 DWORD PTR [esi+32]
  000f0	ff 15 00 00 00
	00		 call	 DWORD PTR __imp__GetClientRect@8
; File D:\git\src\IBK\IBK_DRFN\ProjSrc\SrcDrfn\Chart\comparechart\control\GfxOutBarCtrl.cpp

; 746  : 	if (arFolder.GetSize() > 0)

  000f6	8b 96 0c 01 00
	00		 mov	 edx, DWORD PTR [esi+268]
  000fc	8b be 34 01 00
	00		 mov	 edi, DWORD PTR [esi+308]
  00102	85 d2		 test	 edx, edx
  00104	7e 18		 jle	 SHORT $LN81@HitTestEx

; 747  : 	{
; 748  : 		int max = arFolder.GetSize();
; 749  : 		rect.top += iFolderHeight * (iSelFolder + 1); + 1;//+ 2;

  00106	8b 8e a0 00 00
	00		 mov	 ecx, DWORD PTR [esi+160]
  0010c	8d 47 01	 lea	 eax, DWORD PTR [edi+1]

; 750  : 		rect.bottom -= (max - iSelFolder - 1)*iFolderHeight;

  0010f	2b d7		 sub	 edx, edi
  00111	0f af c1	 imul	 eax, ecx
  00114	4a		 dec	 edx
  00115	0f af d1	 imul	 edx, ecx
  00118	01 45 f0	 add	 DWORD PTR _rc$[ebp+4], eax
  0011b	29 55 f8	 sub	 DWORD PTR _rc$[ebp+12], edx
$LN81@HitTestEx:

; 795  : 			return htFolder;
; 796  : 		}
; 797  : 	}
; 798  : 	
; 799  : 	GetInsideRect(rc);	
; 800  : 
; 801  : 	int f=0,l=0;
; 802  : 	GetVisibleRange(iSelFolder, f,l);

  0011e	8d 45 d8	 lea	 eax, DWORD PTR _l$[ebp]
  00121	c7 45 d4 00 00
	00 00		 mov	 DWORD PTR _f$[ebp], 0
  00128	50		 push	 eax
  00129	8d 45 d4	 lea	 eax, DWORD PTR _f$[ebp]
  0012c	c7 45 d8 00 00
	00 00		 mov	 DWORD PTR _l$[ebp], 0
  00133	50		 push	 eax
  00134	57		 push	 edi
  00135	8b ce		 mov	 ecx, esi
  00137	e8 00 00 00 00	 call	 ?GetVisibleRange@CGfxOutBarCtrl@@QAEXHAAH0@Z ; CGfxOutBarCtrl::GetVisibleRange

; 803  : 
; 804  : 	if (f > 0)

  0013c	83 7d d4 00	 cmp	 DWORD PTR _f$[ebp], 0
  00140	7e 0f		 jle	 SHORT $LN85@HitTestEx

; 805  : 		rc.top += (iFolderHeight+iGap);

  00142	8b 86 a4 00 00
	00		 mov	 eax, DWORD PTR [esi+164]
  00148	03 86 a0 00 00
	00		 add	 eax, DWORD PTR [esi+160]
  0014e	01 45 f0	 add	 DWORD PTR _rc$[ebp+4], eax
$LN85@HitTestEx:

; 1460 : 	CBarFolder * pbf = (CBarFolder *) arFolder.GetAt(iSelFolder);

  00151	8b 8e 34 01 00
	00		 mov	 ecx, DWORD PTR [esi+308]
; File C:\Program Files (x86)\Microsoft Visual Studio\2019\Community\VC\Tools\MSVC\14.29.30133\atlmfc\include\afxcoll.inl

; 203  : 		if( nIndex < 0 || nIndex >= m_nSize )

  00157	85 c9		 test	 ecx, ecx
  00159	0f 88 44 01 00
	00		 js	 $LN53@HitTestEx
  0015f	3b 8e 0c 01 00
	00		 cmp	 ecx, DWORD PTR [esi+268]
  00165	0f 8d 38 01 00
	00		 jge	 $LN53@HitTestEx

; 205  : 		return m_pData[nIndex]; }

  0016b	8b 96 08 01 00
	00		 mov	 edx, DWORD PTR [esi+264]
; File D:\git\src\IBK\IBK_DRFN\ProjSrc\SrcDrfn\Chart\comparechart\control\GfxOutBarCtrl.cpp

; 807  : 	if (l < GetItemCount() - 1)

  00171	8b 04 8a	 mov	 eax, DWORD PTR [edx+ecx*4]
  00174	8b 40 1c	 mov	 eax, DWORD PTR [eax+28]
  00177	48		 dec	 eax
  00178	39 45 d8	 cmp	 DWORD PTR _l$[ebp], eax
  0017b	7d 0f		 jge	 SHORT $LN13@HitTestEx

; 808  : 		rc.bottom -= (iFolderHeight+iGap);

  0017d	8b 86 a4 00 00
	00		 mov	 eax, DWORD PTR [esi+164]
  00183	03 86 a0 00 00
	00		 add	 eax, DWORD PTR [esi+160]
  00189	29 45 f8	 sub	 DWORD PTR _rc$[ebp+12], eax
$LN13@HitTestEx:
; File C:\Program Files (x86)\Microsoft Visual Studio\2019\Community\VC\Tools\MSVC\14.29.30133\atlmfc\include\afxcoll.inl

; 205  : 		return m_pData[nIndex]; }

  0018c	8b 04 8a	 mov	 eax, DWORD PTR [edx+ecx*4]
; File D:\git\src\IBK\IBK_DRFN\ProjSrc\SrcDrfn\Chart\comparechart\control\GfxOutBarCtrl.cpp

; 812  : 	for (t = iFirstItem; t < max; t++)

  0018f	8b be 20 01 00
	00		 mov	 edi, DWORD PTR [esi+288]
; File C:\Program Files (x86)\Microsoft Visual Studio\2019\Community\VC\Tools\MSVC\14.29.30133\atlmfc\include\afxcoll.inl

; 205  : 		return m_pData[nIndex]; }

  00195	89 45 d4	 mov	 DWORD PTR _pbf$1$[ebp], eax
; File D:\git\src\IBK\IBK_DRFN\ProjSrc\SrcDrfn\Chart\comparechart\control\GfxOutBarCtrl.cpp

; 811  : 	max = pbf->GetItemCount();

  00198	8b 48 1c	 mov	 ecx, DWORD PTR [eax+28]
  0019b	89 4d d8	 mov	 DWORD PTR _max$1$[ebp], ecx

; 812  : 	for (t = iFirstItem; t < max; t++)

  0019e	3b f9		 cmp	 edi, ecx
  001a0	0f 8d cd 00 00
	00		 jge	 $LN6@HitTestEx
$LL7@HitTestEx:
; File C:\Program Files (x86)\Microsoft Visual Studio\2019\Community\VC\Tools\MSVC\14.29.30133\atlmfc\include\afxcoll.inl

; 203  : 		if( nIndex < 0 || nIndex >= m_nSize )

  001a6	85 ff		 test	 edi, edi
  001a8	0f 88 f5 00 00
	00		 js	 $LN53@HitTestEx
  001ae	3b 78 1c	 cmp	 edi, DWORD PTR [eax+28]
  001b1	0f 8d ec 00 00
	00		 jge	 $LN53@HitTestEx
; File D:\git\src\IBK\IBK_DRFN\ProjSrc\SrcDrfn\Chart\comparechart\control\GfxOutBarCtrl.cpp

; 184  : 	return dwFlags&fSmallIcon;

  001b7	f6 86 00 01 00
	00 01		 test	 BYTE PTR [esi+256], 1

; 816  : 		if (!IsSmallIconView()) 

  001be	8d 4d dc	 lea	 ecx, DWORD PTR _itemRc$1[ebp]

; 184  : 	return dwFlags&fSmallIcon;

  001c1	8b 86 34 01 00
	00		 mov	 eax, DWORD PTR [esi+308]
  001c7	0f 57 c0	 xorps	 xmm0, xmm0

; 816  : 		if (!IsSmallIconView()) 

  001ca	51		 push	 ecx
  001cb	57		 push	 edi
; File C:\Program Files (x86)\Microsoft Visual Studio\2019\Community\VC\Tools\MSVC\14.29.30133\atlmfc\include\atltypes.h

; 528  : 	left = 0;

  001cc	0f 11 45 dc	 movups	 XMMWORD PTR _itemRc$1[ebp], xmm0
; File D:\git\src\IBK\IBK_DRFN\ProjSrc\SrcDrfn\Chart\comparechart\control\GfxOutBarCtrl.cpp

; 816  : 		if (!IsSmallIconView()) 

  001d0	8b ce		 mov	 ecx, esi
  001d2	50		 push	 eax
  001d3	75 40		 jne	 SHORT $LN14@HitTestEx

; 817  : 		{
; 818  : 			GetIconRect(iSelFolder, t, itemRc);

  001d5	e8 00 00 00 00	 call	 ?GetIconRect@CGfxOutBarCtrl@@QAEXHHAAVCRect@@@Z ; CGfxOutBarCtrl::GetIconRect
; File C:\Program Files (x86)\Microsoft Visual Studio\2019\Community\VC\Tools\MSVC\14.29.30133\atlmfc\include\atltypes.h

; 648  : 	return ::PtInRect(this, point);

  001da	ff 73 04	 push	 DWORD PTR [ebx+4]
  001dd	8d 45 dc	 lea	 eax, DWORD PTR _itemRc$1[ebp]
  001e0	ff 33		 push	 DWORD PTR [ebx]
  001e2	50		 push	 eax
  001e3	ff 15 00 00 00
	00		 call	 DWORD PTR __imp__PtInRect@12
; File D:\git\src\IBK\IBK_DRFN\ProjSrc\SrcDrfn\Chart\comparechart\control\GfxOutBarCtrl.cpp

; 819  : 			if (itemRc.PtInRect(point))

  001e9	85 c0		 test	 eax, eax
  001eb	75 69		 jne	 SHORT $LN75@HitTestEx

; 820  : 			{
; 821  : 				index = t;
; 822  : 				return htItem;
; 823  : 			}
; 824  : 			else if (itemRc.top > rc.bottom) break;

  001ed	8b 45 e0	 mov	 eax, DWORD PTR _itemRc$1[ebp+4]
  001f0	3b 45 f8	 cmp	 eax, DWORD PTR _rc$[ebp+12]
  001f3	7f 7e		 jg	 SHORT $LN6@HitTestEx

; 825  : 			GetLabelRect(iSelFolder, t, itemRc);

  001f5	8d 45 dc	 lea	 eax, DWORD PTR _itemRc$1[ebp]
  001f8	8b ce		 mov	 ecx, esi
  001fa	50		 push	 eax
  001fb	57		 push	 edi
  001fc	ff b6 34 01 00
	00		 push	 DWORD PTR [esi+308]
  00202	e8 00 00 00 00	 call	 ?GetLabelRect@CGfxOutBarCtrl@@QAEXHHAAVCRect@@@Z ; CGfxOutBarCtrl::GetLabelRect

; 826  : 			itemRc.top -= yLargeIconLabelOffset;

  00207	8b 86 ac 00 00
	00		 mov	 eax, DWORD PTR [esi+172]
  0020d	29 45 e0	 sub	 DWORD PTR _itemRc$1[ebp+4], eax
; File C:\Program Files (x86)\Microsoft Visual Studio\2019\Community\VC\Tools\MSVC\14.29.30133\atlmfc\include\atltypes.h

; 648  : 	return ::PtInRect(this, point);

  00210	8d 45 dc	 lea	 eax, DWORD PTR _itemRc$1[ebp]
; File D:\git\src\IBK\IBK_DRFN\ProjSrc\SrcDrfn\Chart\comparechart\control\GfxOutBarCtrl.cpp

; 834  : 		}

  00213	eb 1b		 jmp	 SHORT $LN94@HitTestEx
$LN14@HitTestEx:

; 835  : 		else
; 836  : 		{
; 837  : 			GetItemRect(iSelFolder, t, itemRc);

  00215	e8 00 00 00 00	 call	 ?GetItemRect@CGfxOutBarCtrl@@QAEXHHAAVCRect@@@Z ; CGfxOutBarCtrl::GetItemRect
; File C:\Program Files (x86)\Microsoft Visual Studio\2019\Community\VC\Tools\MSVC\14.29.30133\atlmfc\include\atltypes.h

; 648  : 	return ::PtInRect(this, point);

  0021a	ff 73 04	 push	 DWORD PTR [ebx+4]
  0021d	8d 45 dc	 lea	 eax, DWORD PTR _itemRc$1[ebp]
  00220	ff 33		 push	 DWORD PTR [ebx]
  00222	50		 push	 eax
  00223	ff 15 00 00 00
	00		 call	 DWORD PTR __imp__PtInRect@12
; File D:\git\src\IBK\IBK_DRFN\ProjSrc\SrcDrfn\Chart\comparechart\control\GfxOutBarCtrl.cpp

; 838  : 			if (itemRc.PtInRect(point) && rc.PtInRect(point))

  00229	85 c0		 test	 eax, eax
  0022b	74 13		 je	 SHORT $LN22@HitTestEx
; File C:\Program Files (x86)\Microsoft Visual Studio\2019\Community\VC\Tools\MSVC\14.29.30133\atlmfc\include\atltypes.h

; 648  : 	return ::PtInRect(this, point);

  0022d	8d 45 ec	 lea	 eax, DWORD PTR _rc$[ebp]
$LN94@HitTestEx:
; File D:\git\src\IBK\IBK_DRFN\ProjSrc\SrcDrfn\Chart\comparechart\control\GfxOutBarCtrl.cpp

; 812  : 	for (t = iFirstItem; t < max; t++)

  00230	ff 73 04	 push	 DWORD PTR [ebx+4]
  00233	ff 33		 push	 DWORD PTR [ebx]
  00235	50		 push	 eax
  00236	ff 15 00 00 00
	00		 call	 DWORD PTR __imp__PtInRect@12
  0023c	85 c0		 test	 eax, eax
  0023e	75 16		 jne	 SHORT $LN75@HitTestEx
$LN22@HitTestEx:
  00240	8b 45 e0	 mov	 eax, DWORD PTR _itemRc$1[ebp+4]
  00243	3b 45 f8	 cmp	 eax, DWORD PTR _rc$[ebp+12]
  00246	7f 2b		 jg	 SHORT $LN6@HitTestEx
  00248	47		 inc	 edi
  00249	3b 7d d8	 cmp	 edi, DWORD PTR _max$1$[ebp]
  0024c	7d 25		 jge	 SHORT $LN6@HitTestEx
  0024e	8b 45 d4	 mov	 eax, DWORD PTR _pbf$1$[ebp]
  00251	e9 50 ff ff ff	 jmp	 $LL7@HitTestEx
$LN75@HitTestEx:

; 839  : 			{
; 840  : 				index = t;

  00256	8b 45 d0	 mov	 eax, DWORD PTR _index$GSCopy$1$[ebp]
  00259	89 38		 mov	 DWORD PTR [eax], edi

; 841  : 				return htItem;

  0025b	b8 01 00 00 00	 mov	 eax, 1
  00260	5f		 pop	 edi
  00261	5e		 pop	 esi

; 847  : }

  00262	5b		 pop	 ebx
  00263	8b 4d fc	 mov	 ecx, DWORD PTR __$ArrayPad$[ebp]
  00266	33 cd		 xor	 ecx, ebp
  00268	e8 00 00 00 00	 call	 @__security_check_cookie@4
  0026d	8b e5		 mov	 esp, ebp
  0026f	5d		 pop	 ebp
  00270	c2 08 00	 ret	 8
$LN6@HitTestEx:
  00273	5f		 pop	 edi
  00274	5e		 pop	 esi

; 842  : 			}
; 843  : 			else if (itemRc.top > rc.bottom) break;
; 844  : 		}
; 845  : 	}
; 846  : 	return htNothing;

  00275	83 c8 ff	 or	 eax, -1

; 847  : }

  00278	5b		 pop	 ebx
  00279	8b 4d fc	 mov	 ecx, DWORD PTR __$ArrayPad$[ebp]
  0027c	33 cd		 xor	 ecx, ebp
  0027e	e8 00 00 00 00	 call	 @__security_check_cookie@4
  00283	8b e5		 mov	 esp, ebp
  00285	5d		 pop	 ebp
  00286	c2 08 00	 ret	 8
$LN69@HitTestEx:

; 793  : 		{
; 794  : 			index = t;

  00289	8b 45 d0	 mov	 eax, DWORD PTR _index$GSCopy$1$[ebp]

; 847  : }

  0028c	8b 4d fc	 mov	 ecx, DWORD PTR __$ArrayPad$[ebp]
  0028f	33 cd		 xor	 ecx, ebp
  00291	89 38		 mov	 DWORD PTR [eax], edi
  00293	33 c0		 xor	 eax, eax
  00295	5f		 pop	 edi
  00296	5e		 pop	 esi
  00297	5b		 pop	 ebx
  00298	e8 00 00 00 00	 call	 @__security_check_cookie@4
  0029d	8b e5		 mov	 esp, ebp
  0029f	5d		 pop	 ebp
  002a0	c2 08 00	 ret	 8
$LN53@HitTestEx:
  002a3	e8 00 00 00 00	 call	 ?AfxThrowInvalidArgException@@YGXXZ ; AfxThrowInvalidArgException
$LN91@HitTestEx:
  002a8	cc		 int	 3
?HitTestEx@CGfxOutBarCtrl@@QAEHABVCPoint@@AAH@Z ENDP	; CGfxOutBarCtrl::HitTestEx
_TEXT	ENDS
; Function compile flags: /Ogtp
; File D:\git\src\IBK\IBK_DRFN\ProjSrc\SrcDrfn\Chart\comparechart\control\GfxOutBarCtrl.cpp
; File C:\Program Files (x86)\Microsoft Visual Studio\2019\Community\VC\Tools\MSVC\14.29.30133\atlmfc\include\afxwin2.inl
; File D:\git\src\IBK\IBK_DRFN\ProjSrc\SrcDrfn\Chart\comparechart\control\GfxOutBarCtrl.cpp
; File C:\Program Files (x86)\Microsoft Visual Studio\2019\Community\VC\Tools\MSVC\14.29.30133\atlmfc\include\afxwin2.inl
; File D:\git\src\IBK\IBK_DRFN\ProjSrc\SrcDrfn\Chart\comparechart\control\GfxOutBarCtrl.cpp
; File C:\Program Files (x86)\Microsoft Visual Studio\2019\Community\VC\Tools\MSVC\14.29.30133\atlmfc\include\atltypes.h
; File D:\git\src\IBK\IBK_DRFN\ProjSrc\SrcDrfn\Chart\comparechart\control\GfxOutBarCtrl.cpp
; File C:\Program Files (x86)\Microsoft Visual Studio\2019\Community\VC\Tools\MSVC\14.29.30133\atlmfc\include\atltypes.h
; File D:\git\src\IBK\IBK_DRFN\ProjSrc\SrcDrfn\Chart\comparechart\control\GfxOutBarCtrl.cpp
; File C:\Program Files (x86)\Microsoft Visual Studio\2019\Community\VC\Tools\MSVC\14.29.30133\atlmfc\include\afxwin1.inl
; File D:\git\src\IBK\IBK_DRFN\ProjSrc\SrcDrfn\Chart\comparechart\control\GfxOutBarCtrl.cpp
;	COMDAT ?HighlightFolder@CGfxOutBarCtrl@@QAEXH@Z
_TEXT	SEGMENT
_dc$2 = -104						; size = 20
$T3 = -84						; size = 8
$T4 = -84						; size = 8
_dc$5 = -76						; size = 20
_pn$6 = -56						; size = 8
_pn$7 = -56						; size = 8
_pn$8 = -56						; size = 8
_rc$9 = -48						; size = 16
_rc$10 = -32						; size = 16
__$ArrayPad$ = -16					; size = 4
__$EHRec$ = -12						; size = 12
_index$ = 8						; size = 4
?HighlightFolder@CGfxOutBarCtrl@@QAEXH@Z PROC		; CGfxOutBarCtrl::HighlightFolder, COMDAT
; _this$ = ecx

; 850  : {

  00000	55		 push	 ebp
  00001	8b ec		 mov	 ebp, esp
  00003	6a ff		 push	 -1
  00005	68 00 00 00 00	 push	 __ehhandler$?HighlightFolder@CGfxOutBarCtrl@@QAEXH@Z
  0000a	64 a1 00 00 00
	00		 mov	 eax, DWORD PTR fs:0
  00010	50		 push	 eax
  00011	83 ec 5c	 sub	 esp, 92			; 0000005cH
  00014	a1 00 00 00 00	 mov	 eax, DWORD PTR ___security_cookie
  00019	33 c5		 xor	 eax, ebp
  0001b	89 45 f0	 mov	 DWORD PTR __$ArrayPad$[ebp], eax
  0001e	53		 push	 ebx
  0001f	56		 push	 esi
  00020	57		 push	 edi
  00021	50		 push	 eax
  00022	8d 45 f4	 lea	 eax, DWORD PTR __$EHRec$[ebp]
  00025	64 a3 00 00 00
	00		 mov	 DWORD PTR fs:0, eax
  0002b	8b f9		 mov	 edi, ecx
; File C:\Program Files (x86)\Microsoft Visual Studio\2019\Community\VC\Tools\MSVC\14.29.30133\atlmfc\include\afxwin2.inl

; 165  : 	{ return CWnd::FromHandle(::GetFocus()); }

  0002d	ff 15 00 00 00
	00		 call	 DWORD PTR __imp__GetFocus@0
  00033	50		 push	 eax
  00034	e8 00 00 00 00	 call	 ?FromHandle@CWnd@@SGPAV1@PAUHWND__@@@Z ; CWnd::FromHandle
; File D:\git\src\IBK\IBK_DRFN\ProjSrc\SrcDrfn\Chart\comparechart\control\GfxOutBarCtrl.cpp

; 852  : 	if (pf != NULL && pf != this && IsChild(pf)) return;

  00039	85 c0		 test	 eax, eax
  0003b	74 18		 je	 SHORT $LN2@HighlightF
  0003d	3b c7		 cmp	 eax, edi
  0003f	74 14		 je	 SHORT $LN2@HighlightF
; File C:\Program Files (x86)\Microsoft Visual Studio\2019\Community\VC\Tools\MSVC\14.29.30133\atlmfc\include\afxwin2.inl

; 211  : 	{ ASSERT(::IsWindow(m_hWnd)); return ::IsChild(m_hWnd, pWnd->GetSafeHwnd()); }

  00041	ff 70 20	 push	 DWORD PTR [eax+32]
  00044	ff 77 20	 push	 DWORD PTR [edi+32]
  00047	ff 15 00 00 00
	00		 call	 DWORD PTR __imp__IsChild@8
; File D:\git\src\IBK\IBK_DRFN\ProjSrc\SrcDrfn\Chart\comparechart\control\GfxOutBarCtrl.cpp

; 852  : 	if (pf != NULL && pf != this && IsChild(pf)) return;

  0004d	85 c0		 test	 eax, eax
  0004f	0f 85 9b 01 00
	00		 jne	 $LN9@HighlightF
$LN2@HighlightF:

; 853  : 
; 854  : 	if (iLastFolderHighlighted == index) return;

  00055	8b 87 18 01 00
	00		 mov	 eax, DWORD PTR [edi+280]
  0005b	8b 5d 08	 mov	 ebx, DWORD PTR _index$[ebp]
  0005e	3b c3		 cmp	 eax, ebx
  00060	0f 84 8a 01 00
	00		 je	 $LN9@HighlightF

; 855  : 
; 856  : 	if (iLastFolderHighlighted >= 0)

  00066	85 c0		 test	 eax, eax
  00068	0f 88 cf 00 00
	00		 js	 $LN5@HighlightF

; 859  : 		if (GetFolderRect(iLastFolderHighlighted, rc))

  0006e	8d 4d e0	 lea	 ecx, DWORD PTR _rc$10[ebp]
  00071	0f 57 c0	 xorps	 xmm0, xmm0
  00074	51		 push	 ecx
  00075	50		 push	 eax
  00076	8b cf		 mov	 ecx, edi
; File C:\Program Files (x86)\Microsoft Visual Studio\2019\Community\VC\Tools\MSVC\14.29.30133\atlmfc\include\atltypes.h

; 528  : 	left = 0;

  00078	0f 11 45 e0	 movups	 XMMWORD PTR _rc$10[ebp], xmm0
; File D:\git\src\IBK\IBK_DRFN\ProjSrc\SrcDrfn\Chart\comparechart\control\GfxOutBarCtrl.cpp

; 859  : 		if (GetFolderRect(iLastFolderHighlighted, rc))

  0007c	e8 00 00 00 00	 call	 ?GetFolderRect@CGfxOutBarCtrl@@QBE_NHAAVCRect@@@Z ; CGfxOutBarCtrl::GetFolderRect
  00081	84 c0		 test	 al, al
  00083	0f 84 b4 00 00
	00		 je	 $LN5@HighlightF

; 860  : 		{
; 861  : 			CClientDC dc(this);

  00089	57		 push	 edi
  0008a	8d 4d b4	 lea	 ecx, DWORD PTR _dc$5[ebp]
  0008d	e8 00 00 00 00	 call	 ??0CClientDC@@QAE@PAVCWnd@@@Z ; CClientDC::CClientDC

; 862  : 			if(iLastFolderHighlighted == iSelFolder)

  00092	8b 87 18 01 00
	00		 mov	 eax, DWORD PTR [edi+280]
  00098	8d 4d c8	 lea	 ecx, DWORD PTR _pn$8[ebp]
  0009b	c7 45 fc 00 00
	00 00		 mov	 DWORD PTR __$EHRec$[ebp+8], 0
  000a2	3b 87 34 01 00
	00		 cmp	 eax, DWORD PTR [edi+308]
  000a8	75 15		 jne	 SHORT $LN6@HighlightF

; 863  : 			{
; 864  : 				CPen pn(PS_SOLID, 1, crBackGroundColor1);

  000aa	ff b7 84 00 00
	00		 push	 DWORD PTR [edi+132]
  000b0	6a 01		 push	 1
  000b2	6a 00		 push	 0
  000b4	e8 00 00 00 00	 call	 ??0CPen@@QAE@HHK@Z	; CPen::CPen
  000b9	c6 45 fc 01	 mov	 BYTE PTR __$EHRec$[ebp+8], 1

; 865  : 				CPen * op = dc.SelectObject(&pn);
; 866  : 				dc.MoveTo(rc.left, rc.bottom-1);
; 867  : 				dc.LineTo(rc.right-1, rc.bottom-1);
; 868  : 				dc.LineTo(rc.right-1, rc.top);
; 869  : 				dc.SelectObject(op);
; 870  : 			}

  000bd	eb 13		 jmp	 SHORT $LN39@HighlightF
$LN6@HighlightF:

; 871  : 			else
; 872  : 			{
; 873  : 				CPen pn(PS_SOLID, 1, cr3dUnFace);

  000bf	ff b7 94 00 00
	00		 push	 DWORD PTR [edi+148]
  000c5	6a 01		 push	 1
  000c7	6a 00		 push	 0
  000c9	e8 00 00 00 00	 call	 ??0CPen@@QAE@HHK@Z	; CPen::CPen
  000ce	c6 45 fc 02	 mov	 BYTE PTR __$EHRec$[ebp+8], 2
$LN39@HighlightF:

; 874  : 				CPen * op = dc.SelectObject(&pn);
; 875  : 				dc.MoveTo(rc.left, rc.bottom-1);
; 876  : 				dc.LineTo(rc.right-1, rc.bottom-1);
; 877  : 				dc.LineTo(rc.right-1, rc.top);
; 878  : 				dc.SelectObject(op);
; 879  : 			}
; 880  : 			//CPen pn(PS_SOLID, 1, crBackGroundColor1);
; 881  : 			//CPen * op = dc.SelectObject(&pn);
; 882  : 			//dc.MoveTo(rc.left, rc.bottom-1);
; 883  : 			//dc.LineTo(rc.right-1, rc.bottom-1);
; 884  : 			//dc.LineTo(rc.right-1, rc.top);
; 885  : 			//CPen pn1(PS_SOLID, 1, cr3dFace);
; 886  : 			//dc.SelectObject(&pn1);
; 887  : 			//dc.MoveTo(rc.left+1, rc.bottom-2);
; 888  : 			//dc.LineTo(rc.right-2, rc.bottom-2);
; 889  : 			//dc.LineTo(rc.right-2, rc.top+1);
; 890  : 			//dc.SelectObject(op);
; 891  : 		}

  000d2	8d 45 c8	 lea	 eax, DWORD PTR _pn$7[ebp]
  000d5	8d 4d b4	 lea	 ecx, DWORD PTR _dc$5[ebp]
  000d8	50		 push	 eax
  000d9	e8 00 00 00 00	 call	 ?SelectObject@CDC@@QAEPAVCPen@@PAV2@@Z ; CDC::SelectObject
  000de	8b 4d ec	 mov	 ecx, DWORD PTR _rc$10[ebp+12]
  000e1	8b f0		 mov	 esi, eax
  000e3	49		 dec	 ecx
  000e4	8d 45 ac	 lea	 eax, DWORD PTR $T4[ebp]
  000e7	51		 push	 ecx
  000e8	ff 75 e0	 push	 DWORD PTR _rc$10[ebp]
  000eb	8d 4d b4	 lea	 ecx, DWORD PTR _dc$5[ebp]
  000ee	50		 push	 eax
  000ef	e8 00 00 00 00	 call	 ?MoveTo@CDC@@QAE?AVCPoint@@HH@Z ; CDC::MoveTo
  000f4	8b 45 ec	 mov	 eax, DWORD PTR _rc$10[ebp+12]
  000f7	8d 4d b4	 lea	 ecx, DWORD PTR _dc$5[ebp]
  000fa	48		 dec	 eax
  000fb	50		 push	 eax
  000fc	8b 45 e8	 mov	 eax, DWORD PTR _rc$10[ebp+8]
  000ff	48		 dec	 eax
  00100	50		 push	 eax
  00101	e8 00 00 00 00	 call	 ?LineTo@CDC@@QAEHHH@Z	; CDC::LineTo
  00106	8b 45 e8	 mov	 eax, DWORD PTR _rc$10[ebp+8]
  00109	8d 4d b4	 lea	 ecx, DWORD PTR _dc$5[ebp]
  0010c	ff 75 e4	 push	 DWORD PTR _rc$10[ebp+4]
  0010f	48		 dec	 eax
  00110	50		 push	 eax
  00111	e8 00 00 00 00	 call	 ?LineTo@CDC@@QAEHHH@Z	; CDC::LineTo
  00116	56		 push	 esi
  00117	8d 4d b4	 lea	 ecx, DWORD PTR _dc$5[ebp]
  0011a	e8 00 00 00 00	 call	 ?SelectObject@CDC@@QAEPAVCPen@@PAV2@@Z ; CDC::SelectObject
  0011f	8d 4d c8	 lea	 ecx, DWORD PTR _pn$7[ebp]
  00122	c7 45 c8 00 00
	00 00		 mov	 DWORD PTR _pn$7[ebp], OFFSET ??_7CPen@@6B@
  00129	e8 00 00 00 00	 call	 ??1CGdiObject@@UAE@XZ	; CGdiObject::~CGdiObject
  0012e	8d 4d b4	 lea	 ecx, DWORD PTR _dc$5[ebp]
  00131	c7 45 fc ff ff
	ff ff		 mov	 DWORD PTR __$EHRec$[ebp+8], -1
  00138	e8 00 00 00 00	 call	 ??1CClientDC@@UAE@XZ	; CClientDC::~CClientDC
$LN5@HighlightF:

; 892  : 	}
; 893  : 	iLastFolderHighlighted = index;

  0013d	89 9f 18 01 00
	00		 mov	 DWORD PTR [edi+280], ebx

; 894  : 	if (iLastFolderHighlighted >= 0)

  00143	85 db		 test	 ebx, ebx
  00145	0f 88 a5 00 00
	00		 js	 $LN9@HighlightF

; 897  : 		if (GetFolderRect(iLastFolderHighlighted, rc))

  0014b	8d 45 d0	 lea	 eax, DWORD PTR _rc$9[ebp]
  0014e	0f 57 c0	 xorps	 xmm0, xmm0
  00151	50		 push	 eax
  00152	53		 push	 ebx
  00153	8b cf		 mov	 ecx, edi
; File C:\Program Files (x86)\Microsoft Visual Studio\2019\Community\VC\Tools\MSVC\14.29.30133\atlmfc\include\atltypes.h

; 528  : 	left = 0;

  00155	0f 11 45 d0	 movups	 XMMWORD PTR _rc$9[ebp], xmm0
; File D:\git\src\IBK\IBK_DRFN\ProjSrc\SrcDrfn\Chart\comparechart\control\GfxOutBarCtrl.cpp

; 897  : 		if (GetFolderRect(iLastFolderHighlighted, rc))

  00159	e8 00 00 00 00	 call	 ?GetFolderRect@CGfxOutBarCtrl@@QBE_NHAAVCRect@@@Z ; CGfxOutBarCtrl::GetFolderRect
  0015e	84 c0		 test	 al, al
  00160	0f 84 8a 00 00
	00		 je	 $LN9@HighlightF

; 898  : 		{
; 899  : 			CClientDC dc(this);

  00166	57		 push	 edi
  00167	8d 4d 98	 lea	 ecx, DWORD PTR _dc$2[ebp]
  0016a	e8 00 00 00 00	 call	 ??0CClientDC@@QAE@PAVCWnd@@@Z ; CClientDC::CClientDC

; 900  : 			CPen pn(PS_SOLID, 1, crDkShadowBorder);

  0016f	ff b7 9c 00 00
	00		 push	 DWORD PTR [edi+156]
  00175	8d 4d c8	 lea	 ecx, DWORD PTR _pn$6[ebp]
  00178	c7 45 fc 03 00
	00 00		 mov	 DWORD PTR __$EHRec$[ebp+8], 3
  0017f	6a 01		 push	 1
  00181	6a 00		 push	 0
  00183	e8 00 00 00 00	 call	 ??0CPen@@QAE@HHK@Z	; CPen::CPen

; 901  : 			CPen * op = dc.SelectObject(&pn);

  00188	8d 45 c8	 lea	 eax, DWORD PTR _pn$6[ebp]
  0018b	c6 45 fc 04	 mov	 BYTE PTR __$EHRec$[ebp+8], 4
  0018f	50		 push	 eax
  00190	8d 4d 98	 lea	 ecx, DWORD PTR _dc$2[ebp]
  00193	e8 00 00 00 00	 call	 ?SelectObject@CDC@@QAEPAVCPen@@PAV2@@Z ; CDC::SelectObject

; 902  : 			dc.MoveTo(rc.left, rc.bottom-1);

  00198	8b 4d dc	 mov	 ecx, DWORD PTR _rc$9[ebp+12]
  0019b	8b f0		 mov	 esi, eax
  0019d	49		 dec	 ecx
  0019e	8d 45 ac	 lea	 eax, DWORD PTR $T3[ebp]
  001a1	51		 push	 ecx
  001a2	ff 75 d0	 push	 DWORD PTR _rc$9[ebp]
  001a5	8d 4d 98	 lea	 ecx, DWORD PTR _dc$2[ebp]
  001a8	50		 push	 eax
  001a9	e8 00 00 00 00	 call	 ?MoveTo@CDC@@QAE?AVCPoint@@HH@Z ; CDC::MoveTo

; 903  : 			dc.LineTo(rc.right-1, rc.bottom-1);

  001ae	8b 45 dc	 mov	 eax, DWORD PTR _rc$9[ebp+12]
  001b1	8d 4d 98	 lea	 ecx, DWORD PTR _dc$2[ebp]
  001b4	48		 dec	 eax
  001b5	50		 push	 eax
  001b6	8b 45 d8	 mov	 eax, DWORD PTR _rc$9[ebp+8]
  001b9	48		 dec	 eax
  001ba	50		 push	 eax
  001bb	e8 00 00 00 00	 call	 ?LineTo@CDC@@QAEHHH@Z	; CDC::LineTo

; 904  : 			dc.LineTo(rc.right-1, rc.top);

  001c0	8b 45 d8	 mov	 eax, DWORD PTR _rc$9[ebp+8]
  001c3	8d 4d 98	 lea	 ecx, DWORD PTR _dc$2[ebp]
  001c6	ff 75 d4	 push	 DWORD PTR _rc$9[ebp+4]
  001c9	48		 dec	 eax
  001ca	50		 push	 eax
  001cb	e8 00 00 00 00	 call	 ?LineTo@CDC@@QAEHHH@Z	; CDC::LineTo

; 905  : 			//CPen pn1(PS_SOLID, 1, crBackGroundColor1);
; 906  : 			//dc.SelectObject(&pn1);
; 907  : 			//dc.MoveTo(rc.left+1, rc.bottom-2);
; 908  : 			//dc.LineTo(rc.right-2, rc.bottom-2);
; 909  : 			//dc.LineTo(rc.right-2, rc.top+1);
; 910  : 			dc.SelectObject(op);

  001d0	56		 push	 esi
  001d1	8d 4d 98	 lea	 ecx, DWORD PTR _dc$2[ebp]
  001d4	e8 00 00 00 00	 call	 ?SelectObject@CDC@@QAEPAVCPen@@PAV2@@Z ; CDC::SelectObject
; File C:\Program Files (x86)\Microsoft Visual Studio\2019\Community\VC\Tools\MSVC\14.29.30133\atlmfc\include\afxwin1.inl

; 106  : 	{ }

  001d9	8d 4d c8	 lea	 ecx, DWORD PTR _pn$6[ebp]
  001dc	c7 45 c8 00 00
	00 00		 mov	 DWORD PTR _pn$6[ebp], OFFSET ??_7CPen@@6B@
  001e3	e8 00 00 00 00	 call	 ??1CGdiObject@@UAE@XZ	; CGdiObject::~CGdiObject
; File D:\git\src\IBK\IBK_DRFN\ProjSrc\SrcDrfn\Chart\comparechart\control\GfxOutBarCtrl.cpp

; 911  : 		}

  001e8	8d 4d 98	 lea	 ecx, DWORD PTR _dc$2[ebp]
  001eb	e8 00 00 00 00	 call	 ??1CClientDC@@UAE@XZ	; CClientDC::~CClientDC
$LN9@HighlightF:

; 912  : 	}
; 913  : }

  001f0	8b 4d f4	 mov	 ecx, DWORD PTR __$EHRec$[ebp]
  001f3	64 89 0d 00 00
	00 00		 mov	 DWORD PTR fs:0, ecx
  001fa	59		 pop	 ecx
  001fb	5f		 pop	 edi
  001fc	5e		 pop	 esi
  001fd	5b		 pop	 ebx
  001fe	8b 4d f0	 mov	 ecx, DWORD PTR __$ArrayPad$[ebp]
  00201	33 cd		 xor	 ecx, ebp
  00203	e8 00 00 00 00	 call	 @__security_check_cookie@4
  00208	8b e5		 mov	 esp, ebp
  0020a	5d		 pop	 ebp
  0020b	c2 04 00	 ret	 4
_TEXT	ENDS
;	COMDAT text$x
text$x	SEGMENT
__unwindfunclet$?HighlightFolder@CGfxOutBarCtrl@@QAEXH@Z$0:
  00000	8d 4d b4	 lea	 ecx, DWORD PTR _dc$5[ebp]
  00003	e9 00 00 00 00	 jmp	 ??1CClientDC@@UAE@XZ	; CClientDC::~CClientDC
__unwindfunclet$?HighlightFolder@CGfxOutBarCtrl@@QAEXH@Z$1:
  00008	8d 4d c8	 lea	 ecx, DWORD PTR _pn$8[ebp]
  0000b	e9 00 00 00 00	 jmp	 ??1CPen@@UAE@XZ		; CPen::~CPen
__unwindfunclet$?HighlightFolder@CGfxOutBarCtrl@@QAEXH@Z$2:
  00010	8d 4d c8	 lea	 ecx, DWORD PTR _pn$7[ebp]
  00013	e9 00 00 00 00	 jmp	 ??1CPen@@UAE@XZ		; CPen::~CPen
__unwindfunclet$?HighlightFolder@CGfxOutBarCtrl@@QAEXH@Z$3:
  00018	8d 4d 98	 lea	 ecx, DWORD PTR _dc$2[ebp]
  0001b	e9 00 00 00 00	 jmp	 ??1CClientDC@@UAE@XZ	; CClientDC::~CClientDC
__unwindfunclet$?HighlightFolder@CGfxOutBarCtrl@@QAEXH@Z$4:
  00020	8d 4d c8	 lea	 ecx, DWORD PTR _pn$6[ebp]
  00023	e9 00 00 00 00	 jmp	 ??1CPen@@UAE@XZ		; CPen::~CPen
  00028	cc		 int	 3
  00029	cc		 int	 3
  0002a	cc		 int	 3
  0002b	cc		 int	 3
  0002c	cc		 int	 3
__ehhandler$?HighlightFolder@CGfxOutBarCtrl@@QAEXH@Z:
  0002d	90		 npad	 1
  0002e	90		 npad	 1
  0002f	8b 54 24 08	 mov	 edx, DWORD PTR [esp+8]
  00033	8d 42 0c	 lea	 eax, DWORD PTR [edx+12]
  00036	8b 4a 94	 mov	 ecx, DWORD PTR [edx-108]
  00039	33 c8		 xor	 ecx, eax
  0003b	e8 00 00 00 00	 call	 @__security_check_cookie@4
  00040	8b 4a fc	 mov	 ecx, DWORD PTR [edx-4]
  00043	33 c8		 xor	 ecx, eax
  00045	e8 00 00 00 00	 call	 @__security_check_cookie@4
  0004a	b8 00 00 00 00	 mov	 eax, OFFSET __ehfuncinfo$?HighlightFolder@CGfxOutBarCtrl@@QAEXH@Z
  0004f	e9 00 00 00 00	 jmp	 ___CxxFrameHandler3
text$x	ENDS
?HighlightFolder@CGfxOutBarCtrl@@QAEXH@Z ENDP		; CGfxOutBarCtrl::HighlightFolder
; Function compile flags: /Ogtp
; File D:\git\src\IBK\IBK_DRFN\ProjSrc\SrcDrfn\Chart\comparechart\control\GfxOutBarCtrl.cpp
; File C:\Program Files (x86)\Microsoft Visual Studio\2019\Community\VC\Tools\MSVC\14.29.30133\atlmfc\include\afxcoll.inl
; File D:\git\src\IBK\IBK_DRFN\ProjSrc\SrcDrfn\Chart\comparechart\control\GfxOutBarCtrl.cpp
; File C:\Program Files (x86)\Microsoft Visual Studio\2019\Community\VC\Tools\MSVC\14.29.30133\atlmfc\include\afxcoll.inl
; File D:\git\src\IBK\IBK_DRFN\ProjSrc\SrcDrfn\Chart\comparechart\control\GfxOutBarCtrl.cpp
; File C:\Program Files (x86)\Microsoft Visual Studio\2019\Community\VC\Tools\MSVC\14.29.30133\atlmfc\include\afxcoll.inl
; File D:\git\src\IBK\IBK_DRFN\ProjSrc\SrcDrfn\Chart\comparechart\control\GfxOutBarCtrl.cpp
; File C:\Program Files (x86)\Microsoft Visual Studio\2019\Community\VC\Tools\MSVC\14.29.30133\atlmfc\include\afxcoll.inl
; File D:\git\src\IBK\IBK_DRFN\ProjSrc\SrcDrfn\Chart\comparechart\control\GfxOutBarCtrl.cpp
;	COMDAT ?InsertItem@CGfxOutBarCtrl@@QAEHHHPBDHK@Z
_TEXT	SEGMENT
__$EHRec$ = -12						; size = 12
_pbf$1$ = 8						; size = 4
_folder$ = 8						; size = 4
$T2 = 12						; size = 4
_index$ = 12						; size = 4
_text$ = 16						; size = 4
_image$ = 20						; size = 4
_exData$ = 24						; size = 4
?InsertItem@CGfxOutBarCtrl@@QAEHHHPBDHK@Z PROC		; CGfxOutBarCtrl::InsertItem, COMDAT
; _this$ = ecx

; 1451 : {

  00000	55		 push	 ebp
  00001	8b ec		 mov	 ebp, esp
  00003	6a ff		 push	 -1
  00005	68 00 00 00 00	 push	 __ehhandler$?InsertItem@CGfxOutBarCtrl@@QAEHHHPBDHK@Z
  0000a	64 a1 00 00 00
	00		 mov	 eax, DWORD PTR fs:0
  00010	50		 push	 eax
  00011	53		 push	 ebx
  00012	56		 push	 esi
  00013	57		 push	 edi
  00014	a1 00 00 00 00	 mov	 eax, DWORD PTR ___security_cookie
  00019	33 c5		 xor	 eax, ebp
  0001b	50		 push	 eax
  0001c	8d 45 f4	 lea	 eax, DWORD PTR __$EHRec$[ebp]
  0001f	64 a3 00 00 00
	00		 mov	 DWORD PTR fs:0, eax
; File C:\Program Files (x86)\Microsoft Visual Studio\2019\Community\VC\Tools\MSVC\14.29.30133\atlmfc\include\afxcoll.inl

; 203  : 		if( nIndex < 0 || nIndex >= m_nSize )

  00025	8b 55 08	 mov	 edx, DWORD PTR _folder$[ebp]
  00028	85 d2		 test	 edx, edx
  0002a	0f 88 bf 00 00
	00		 js	 $LN5@InsertItem
  00030	3b 91 0c 01 00
	00		 cmp	 edx, DWORD PTR [ecx+268]
  00036	0f 8d b3 00 00
	00		 jge	 $LN5@InsertItem

; 205  : 		return m_pData[nIndex]; }

  0003c	8b 81 08 01 00
	00		 mov	 eax, DWORD PTR [ecx+264]
; File D:\git\src\IBK\IBK_DRFN\ProjSrc\SrcDrfn\Chart\comparechart\control\GfxOutBarCtrl.cpp

; 1454 : 	return pbf->InsertItem(index, text, image, exData);

  00042	8b 5d 0c	 mov	 ebx, DWORD PTR _index$[ebp]
; File C:\Program Files (x86)\Microsoft Visual Studio\2019\Community\VC\Tools\MSVC\14.29.30133\atlmfc\include\afxcoll.inl

; 205  : 		return m_pData[nIndex]; }

  00045	8b 04 90	 mov	 eax, DWORD PTR [eax+edx*4]
  00048	89 45 08	 mov	 DWORD PTR _pbf$1$[ebp], eax
; File D:\git\src\IBK\IBK_DRFN\ProjSrc\SrcDrfn\Chart\comparechart\control\GfxOutBarCtrl.cpp

; 1522 : 	if (index < 0 || index > GetItemCount()) index = GetItemCount();

  0004b	8d 78 1c	 lea	 edi, DWORD PTR [eax+28]
  0004e	85 db		 test	 ebx, ebx
  00050	78 04		 js	 SHORT $LN22@InsertItem
  00052	3b 1f		 cmp	 ebx, DWORD PTR [edi]
  00054	7e 02		 jle	 SHORT $LN9@InsertItem
$LN22@InsertItem:
  00056	8b 1f		 mov	 ebx, DWORD PTR [edi]
$LN9@InsertItem:

; 1523 : 
; 1524 : 	int c = GetItemCount();
; 1525 : 
; 1526 : 	CBarItem * pbf = new CBarItem(text, image, exData);

  00058	6a 10		 push	 16			; 00000010H
  0005a	e8 00 00 00 00	 call	 ??2@YAPAXI@Z		; operator new
  0005f	8b f0		 mov	 esi, eax
  00061	83 c4 04	 add	 esp, 4
  00064	89 75 0c	 mov	 DWORD PTR $T2[ebp], esi
  00067	c7 45 fc 00 00
	00 00		 mov	 DWORD PTR __$EHRec$[ebp+8], 0
  0006e	85 f6		 test	 esi, esi
  00070	74 40		 je	 SHORT $LN14@InsertItem

; 1588 : 	iImageIndex = image;

  00072	8b 45 14	 mov	 eax, DWORD PTR _image$[ebp]
  00075	89 46 04	 mov	 DWORD PTR [esi+4], eax

; 1589 : 	dwData = exData;

  00078	8b 45 18	 mov	 eax, DWORD PTR _exData$[ebp]
  0007b	89 46 0c	 mov	 DWORD PTR [esi+12], eax

; 1590 : 	if (name)

  0007e	8b 45 10	 mov	 eax, DWORD PTR _text$[ebp]
  00081	c7 06 00 00 00
	00		 mov	 DWORD PTR [esi], OFFSET ??_7CBarItem@CGfxOutBarCtrl@@6B@
  00087	c7 46 08 00 00
	00 00		 mov	 DWORD PTR [esi+8], 0
  0008e	85 c0		 test	 eax, eax
  00090	74 22		 je	 SHORT $LN15@InsertItem

; 1591 : 	{
; 1592 : 		cItem = new char[lstrlen(name)+1];

  00092	50		 push	 eax
  00093	ff 15 00 00 00
	00		 call	 DWORD PTR __imp__lstrlenA@4
  00099	40		 inc	 eax
  0009a	50		 push	 eax
  0009b	e8 00 00 00 00	 call	 ??_U@YAPAXI@Z		; operator new[]
  000a0	83 c4 04	 add	 esp, 4
  000a3	89 46 08	 mov	 DWORD PTR [esi+8], eax

; 1593 : 		ASSERT(cItem);
; 1594 : 		lstrcpy(cItem, name);

  000a6	ff 75 10	 push	 DWORD PTR _text$[ebp]
  000a9	50		 push	 eax
  000aa	ff 15 00 00 00
	00		 call	 DWORD PTR __imp__lstrcpyA@8

; 1526 : 	CBarItem * pbf = new CBarItem(text, image, exData);

  000b0	eb 02		 jmp	 SHORT $LN15@InsertItem
$LN14@InsertItem:
  000b2	33 f6		 xor	 esi, esi
$LN15@InsertItem:

; 1527 : 	ASSERT(pbf);
; 1528 : 	if (index < GetItemCount()) 

  000b4	8b 4d 08	 mov	 ecx, DWORD PTR _pbf$1$[ebp]
  000b7	83 c1 14	 add	 ecx, 20			; 00000014H
  000ba	c7 45 fc ff ff
	ff ff		 mov	 DWORD PTR __$EHRec$[ebp+8], -1
  000c1	3b 1f		 cmp	 ebx, DWORD PTR [edi]
  000c3	7d 0b		 jge	 SHORT $LN11@InsertItem

; 1529 : 		arItems.InsertAt(index, (void *) pbf);

  000c5	6a 01		 push	 1
  000c7	56		 push	 esi
  000c8	53		 push	 ebx
  000c9	e8 00 00 00 00	 call	 ?InsertAt@CPtrArray@@QAEXHPAXH@Z ; CPtrArray::InsertAt
  000ce	eb 09		 jmp	 SHORT $LN12@InsertItem
$LN11@InsertItem:
; File C:\Program Files (x86)\Microsoft Visual Studio\2019\Community\VC\Tools\MSVC\14.29.30133\atlmfc\include\afxcoll.inl

; 223  : 		SetAtGrow(nIndex, newElement);

  000d0	56		 push	 esi
  000d1	ff 71 08	 push	 DWORD PTR [ecx+8]
  000d4	e8 00 00 00 00	 call	 ?SetAtGrow@CPtrArray@@QAEXHPAX@Z ; CPtrArray::SetAtGrow
$LN12@InsertItem:
; File D:\git\src\IBK\IBK_DRFN\ProjSrc\SrcDrfn\Chart\comparechart\control\GfxOutBarCtrl.cpp

; 1454 : 	return pbf->InsertItem(index, text, image, exData);

  000d9	8b c3		 mov	 eax, ebx

; 1455 : }

  000db	8b 4d f4	 mov	 ecx, DWORD PTR __$EHRec$[ebp]
  000de	64 89 0d 00 00
	00 00		 mov	 DWORD PTR fs:0, ecx
  000e5	59		 pop	 ecx
  000e6	5f		 pop	 edi
  000e7	5e		 pop	 esi
  000e8	5b		 pop	 ebx
  000e9	8b e5		 mov	 esp, ebp
  000eb	5d		 pop	 ebp
  000ec	c2 14 00	 ret	 20			; 00000014H
$LN5@InsertItem:
; File C:\Program Files (x86)\Microsoft Visual Studio\2019\Community\VC\Tools\MSVC\14.29.30133\atlmfc\include\afxcoll.inl

; 204  : 			AfxThrowInvalidArgException();

  000ef	e8 00 00 00 00	 call	 ?AfxThrowInvalidArgException@@YGXXZ ; AfxThrowInvalidArgException
$LN25@InsertItem:
  000f4	cc		 int	 3
_TEXT	ENDS
;	COMDAT text$x
text$x	SEGMENT
__unwindfunclet$?InsertItem@CGfxOutBarCtrl@@QAEHHHPBDHK@Z$0:
  00000	6a 10		 push	 16			; 00000010H
  00002	8b 45 0c	 mov	 eax, DWORD PTR $T2[ebp]
  00005	50		 push	 eax
  00006	e8 00 00 00 00	 call	 ??3@YAXPAXI@Z		; operator delete
  0000b	83 c4 08	 add	 esp, 8
  0000e	c3		 ret	 0
  0000f	cc		 int	 3
  00010	cc		 int	 3
  00011	cc		 int	 3
  00012	cc		 int	 3
  00013	cc		 int	 3
__ehhandler$?InsertItem@CGfxOutBarCtrl@@QAEHHHPBDHK@Z:
  00014	90		 npad	 1
  00015	90		 npad	 1
  00016	8b 54 24 08	 mov	 edx, DWORD PTR [esp+8]
  0001a	8d 42 0c	 lea	 eax, DWORD PTR [edx+12]
  0001d	8b 4a f0	 mov	 ecx, DWORD PTR [edx-16]
  00020	33 c8		 xor	 ecx, eax
  00022	e8 00 00 00 00	 call	 @__security_check_cookie@4
  00027	b8 00 00 00 00	 mov	 eax, OFFSET __ehfuncinfo$?InsertItem@CGfxOutBarCtrl@@QAEHHHPBDHK@Z
  0002c	e9 00 00 00 00	 jmp	 ___CxxFrameHandler3
text$x	ENDS
?InsertItem@CGfxOutBarCtrl@@QAEHHHPBDHK@Z ENDP		; CGfxOutBarCtrl::InsertItem
; Function compile flags: /Ogtp
; File D:\git\src\IBK\IBK_DRFN\ProjSrc\SrcDrfn\Chart\comparechart\control\GfxOutBarCtrl.cpp
; File C:\Program Files (x86)\Microsoft Visual Studio\2019\Community\VC\Tools\MSVC\14.29.30133\atlmfc\include\afxcoll.inl
; File D:\git\src\IBK\IBK_DRFN\ProjSrc\SrcDrfn\Chart\comparechart\control\GfxOutBarCtrl.cpp
; File C:\Program Files (x86)\Microsoft Visual Studio\2019\Community\VC\Tools\MSVC\14.29.30133\atlmfc\include\afxcoll.inl
; File D:\git\src\IBK\IBK_DRFN\ProjSrc\SrcDrfn\Chart\comparechart\control\GfxOutBarCtrl.cpp
;	COMDAT ?GetItemCount@CGfxOutBarCtrl@@QBEHXZ
_TEXT	SEGMENT
?GetItemCount@CGfxOutBarCtrl@@QBEHXZ PROC		; CGfxOutBarCtrl::GetItemCount, COMDAT
; _this$ = ecx

; 1459 : 	ASSERT(iSelFolder >= 0 && iSelFolder < GetFolderCount());
; 1460 : 	CBarFolder * pbf = (CBarFolder *) arFolder.GetAt(iSelFolder);

  00000	8b 91 34 01 00
	00		 mov	 edx, DWORD PTR [ecx+308]
; File C:\Program Files (x86)\Microsoft Visual Studio\2019\Community\VC\Tools\MSVC\14.29.30133\atlmfc\include\afxcoll.inl

; 203  : 		if( nIndex < 0 || nIndex >= m_nSize )

  00006	85 d2		 test	 edx, edx
  00008	78 15		 js	 SHORT $LN5@GetItemCou
  0000a	3b 91 0c 01 00
	00		 cmp	 edx, DWORD PTR [ecx+268]
  00010	7d 0d		 jge	 SHORT $LN5@GetItemCou
; File D:\git\src\IBK\IBK_DRFN\ProjSrc\SrcDrfn\Chart\comparechart\control\GfxOutBarCtrl.cpp

; 1461 : 	return 	pbf->GetItemCount();

  00012	8b 81 08 01 00
	00		 mov	 eax, DWORD PTR [ecx+264]
  00018	8b 04 90	 mov	 eax, DWORD PTR [eax+edx*4]
  0001b	8b 40 1c	 mov	 eax, DWORD PTR [eax+28]

; 1462 : }

  0001e	c3		 ret	 0
$LN5@GetItemCou:
; File C:\Program Files (x86)\Microsoft Visual Studio\2019\Community\VC\Tools\MSVC\14.29.30133\atlmfc\include\afxcoll.inl

; 204  : 			AfxThrowInvalidArgException();

  0001f	e9 00 00 00 00	 jmp	 ?AfxThrowInvalidArgException@@YGXXZ ; AfxThrowInvalidArgException
?GetItemCount@CGfxOutBarCtrl@@QBEHXZ ENDP		; CGfxOutBarCtrl::GetItemCount
_TEXT	ENDS
; Function compile flags: /Ogtp
; File D:\git\src\IBK\IBK_DRFN\ProjSrc\SrcDrfn\Chart\comparechart\control\GfxOutBarCtrl.cpp
; File C:\Program Files (x86)\Microsoft Visual Studio\2019\Community\VC\Tools\MSVC\14.29.30133\atlmfc\include\afxcoll.inl
; File D:\git\src\IBK\IBK_DRFN\ProjSrc\SrcDrfn\Chart\comparechart\control\GfxOutBarCtrl.cpp
; File C:\Program Files (x86)\Microsoft Visual Studio\2019\Community\VC\Tools\MSVC\14.29.30133\atlmfc\include\afxcoll.inl
; File D:\git\src\IBK\IBK_DRFN\ProjSrc\SrcDrfn\Chart\comparechart\control\GfxOutBarCtrl.cpp
; File C:\Program Files (x86)\Microsoft Visual Studio\2019\Community\VC\Tools\MSVC\14.29.30133\atlmfc\include\atltypes.h
; File C:\Program Files (x86)\Microsoft Visual Studio\2019\Community\VC\Tools\MSVC\14.29.30133\atlmfc\include\afxwin2.inl
; File C:\Program Files (x86)\Microsoft Visual Studio\2019\Community\VC\Tools\MSVC\14.29.30133\atlmfc\include\atltypes.h
; File C:\Program Files (x86)\Microsoft Visual Studio\2019\Community\VC\Tools\MSVC\14.29.30133\atlmfc\include\afxwin2.inl
; File D:\git\src\IBK\IBK_DRFN\ProjSrc\SrcDrfn\Chart\comparechart\control\GfxOutBarCtrl.cpp
; File C:\Program Files (x86)\Microsoft Visual Studio\2019\Community\VC\Tools\MSVC\14.29.30133\atlmfc\include\afxwin2.inl
; File D:\git\src\IBK\IBK_DRFN\ProjSrc\SrcDrfn\Chart\comparechart\control\GfxOutBarCtrl.cpp
; File C:\Program Files (x86)\Microsoft Visual Studio\2019\Community\VC\Tools\MSVC\14.29.30133\atlmfc\include\afxwin2.inl
; File D:\git\src\IBK\IBK_DRFN\ProjSrc\SrcDrfn\Chart\comparechart\control\GfxOutBarCtrl.cpp
; File C:\Program Files (x86)\Microsoft Visual Studio\2019\Community\VC\Tools\MSVC\14.29.30133\atlmfc\include\afxwin2.inl
; File D:\git\src\IBK\IBK_DRFN\ProjSrc\SrcDrfn\Chart\comparechart\control\GfxOutBarCtrl.cpp
; File C:\Program Files (x86)\Microsoft Visual Studio\2019\Community\VC\Tools\MSVC\14.29.30133\atlmfc\include\afxwin2.inl
; File D:\git\src\IBK\IBK_DRFN\ProjSrc\SrcDrfn\Chart\comparechart\control\GfxOutBarCtrl.cpp
; File C:\Program Files (x86)\Microsoft Visual Studio\2019\Community\VC\Tools\MSVC\14.29.30133\atlmfc\include\afxcoll.inl
; File D:\git\src\IBK\IBK_DRFN\ProjSrc\SrcDrfn\Chart\comparechart\control\GfxOutBarCtrl.cpp
;	COMDAT ?SetSelFolder@CGfxOutBarCtrl@@QAEXH@Z
_TEXT	SEGMENT
_pc$2$ = -24						; size = 4
_rc$1 = -20						; size = 16
__$ArrayPad$ = -4					; size = 4
_index$ = 8						; size = 4
?SetSelFolder@CGfxOutBarCtrl@@QAEXH@Z PROC		; CGfxOutBarCtrl::SetSelFolder, COMDAT
; _this$ = ecx

; 1465 : {

  00000	55		 push	 ebp
  00001	8b ec		 mov	 ebp, esp
  00003	83 ec 18	 sub	 esp, 24			; 00000018H
  00006	a1 00 00 00 00	 mov	 eax, DWORD PTR ___security_cookie
  0000b	33 c5		 xor	 eax, ebp
  0000d	89 45 fc	 mov	 DWORD PTR __$ArrayPad$[ebp], eax
  00010	56		 push	 esi
  00011	8b f1		 mov	 esi, ecx
  00013	57		 push	 edi

; 2392 : 	int nFolderCnt = GetFolderCount();

  00014	8b 86 0c 01 00
	00		 mov	 eax, DWORD PTR [esi+268]

; 2393 : 	if (nFolderCnt <= iFolder) return NULL;

  0001a	83 f8 ff	 cmp	 eax, -1
  0001d	7e 2d		 jle	 SHORT $LN2@SetSelFold

; 2394 : 	if (nFolderCnt)

  0001f	85 c0		 test	 eax, eax
  00021	74 29		 je	 SHORT $LN2@SetSelFold

; 2395 : 	{
; 2396 : 		if (iFolder < 0) iFolder = iSelFolder;

  00023	8b 8e 34 01 00
	00		 mov	 ecx, DWORD PTR [esi+308]

; 2397 : 		if (nFolderCnt <= iFolder) return NULL;

  00029	3b c1		 cmp	 eax, ecx
  0002b	7e 1f		 jle	 SHORT $LN2@SetSelFold
; File C:\Program Files (x86)\Microsoft Visual Studio\2019\Community\VC\Tools\MSVC\14.29.30133\atlmfc\include\afxcoll.inl

; 203  : 		if( nIndex < 0 || nIndex >= m_nSize )

  0002d	85 c9		 test	 ecx, ecx
  0002f	0f 88 49 01 00
	00		 js	 $LN27@SetSelFold
; File D:\git\src\IBK\IBK_DRFN\ProjSrc\SrcDrfn\Chart\comparechart\control\GfxOutBarCtrl.cpp

; 2399 : 		return pbf->pChild;

  00035	8b 86 08 01 00
	00		 mov	 eax, DWORD PTR [esi+264]
  0003b	8b 04 88	 mov	 eax, DWORD PTR [eax+ecx*4]
  0003e	8b 48 28	 mov	 ecx, DWORD PTR [eax+40]

; 1466 : 	ASSERT(index >= 0 && index < GetFolderCount());
; 1467 : //	if (index == iSelFolder) return;
; 1468 : 
; 1469 : 	CWnd * pc = GetFolderChild();
; 1470 : 	if (pc) pc->ShowWindow(SW_HIDE);

  00041	85 c9		 test	 ecx, ecx
  00043	74 07		 je	 SHORT $LN2@SetSelFold
  00045	6a 00		 push	 0
  00047	e8 00 00 00 00	 call	 ?ShowWindow@CWnd@@QAEHH@Z ; CWnd::ShowWindow
$LN2@SetSelFold:

; 1471 : 
; 1472 : 	if (index != iSelFolder)

  0004c	8b 86 34 01 00
	00		 mov	 eax, DWORD PTR [esi+308]
  00052	8b 7d 08	 mov	 edi, DWORD PTR _index$[ebp]
  00055	3b f8		 cmp	 edi, eax
  00057	74 1e		 je	 SHORT $LN4@SetSelFold

; 1473 : 	{
; 1474 : 		if (dwFlags&fAnimation && lAnimationTickCount >= 0) AnimateFolderScroll(iSelFolder, index);

  00059	f7 86 00 01 00
	00 00 01 00 00	 test	 DWORD PTR [esi+256], 256 ; 00000100H
  00063	74 12		 je	 SHORT $LN4@SetSelFold
  00065	83 be f0 00 00
	00 00		 cmp	 DWORD PTR [esi+240], 0
  0006c	7c 09		 jl	 SHORT $LN4@SetSelFold
  0006e	57		 push	 edi
  0006f	50		 push	 eax
  00070	8b ce		 mov	 ecx, esi
  00072	e8 00 00 00 00	 call	 ?AnimateFolderScroll@CGfxOutBarCtrl@@QAEXHH@Z ; CGfxOutBarCtrl::AnimateFolderScroll
$LN4@SetSelFold:

; 2392 : 	int nFolderCnt = GetFolderCount();

  00077	8b 86 0c 01 00
	00		 mov	 eax, DWORD PTR [esi+268]

; 1475 : 	}
; 1476 : 
; 1477 : 	iSelFolder = index;

  0007d	89 be 34 01 00
	00		 mov	 DWORD PTR [esi+308], edi

; 1478 : 	iFirstItem = 0;

  00083	c7 86 20 01 00
	00 00 00 00 00	 mov	 DWORD PTR [esi+288], 0

; 1479 : 	iLastSel = -1;

  0008d	c7 86 f4 00 00
	00 ff ff ff ff	 mov	 DWORD PTR [esi+244], -1

; 2393 : 	if (nFolderCnt <= iFolder) return NULL;

  00097	83 f8 ff	 cmp	 eax, -1
  0009a	0f 8e 9a 00 00
	00		 jle	 $LN5@SetSelFold

; 2394 : 	if (nFolderCnt)

  000a0	85 c0		 test	 eax, eax
  000a2	0f 84 92 00 00
	00		 je	 $LN5@SetSelFold

; 2397 : 		if (nFolderCnt <= iFolder) return NULL;

  000a8	3b c7		 cmp	 eax, edi
  000aa	0f 8e 8a 00 00
	00		 jle	 $LN5@SetSelFold
; File C:\Program Files (x86)\Microsoft Visual Studio\2019\Community\VC\Tools\MSVC\14.29.30133\atlmfc\include\afxcoll.inl

; 203  : 		if( nIndex < 0 || nIndex >= m_nSize )

  000b0	85 ff		 test	 edi, edi
  000b2	0f 88 c6 00 00
	00		 js	 $LN27@SetSelFold
; File D:\git\src\IBK\IBK_DRFN\ProjSrc\SrcDrfn\Chart\comparechart\control\GfxOutBarCtrl.cpp

; 2399 : 		return pbf->pChild;

  000b8	8b 86 08 01 00
	00		 mov	 eax, DWORD PTR [esi+264]
  000be	8b 04 b8	 mov	 eax, DWORD PTR [eax+edi*4]
  000c1	8b 40 28	 mov	 eax, DWORD PTR [eax+40]
  000c4	89 45 e8	 mov	 DWORD PTR _pc$2$[ebp], eax

; 1480 : 
; 1481 : 	pc = GetFolderChild();
; 1482 : 	if (pc)

  000c7	85 c0		 test	 eax, eax
  000c9	74 6f		 je	 SHORT $LN5@SetSelFold
; File C:\Program Files (x86)\Microsoft Visual Studio\2019\Community\VC\Tools\MSVC\14.29.30133\atlmfc\include\atltypes.h

; 528  : 	left = 0;

  000cb	53		 push	 ebx
; File C:\Program Files (x86)\Microsoft Visual Studio\2019\Community\VC\Tools\MSVC\14.29.30133\atlmfc\include\afxwin2.inl

; 86   : 	{ ASSERT(::IsWindow(m_hWnd)); ::GetClientRect(m_hWnd, lpRect); }

  000cc	8d 45 ec	 lea	 eax, DWORD PTR _rc$1[ebp]
  000cf	0f 57 c0	 xorps	 xmm0, xmm0
  000d2	50		 push	 eax
  000d3	ff 76 20	 push	 DWORD PTR [esi+32]
; File C:\Program Files (x86)\Microsoft Visual Studio\2019\Community\VC\Tools\MSVC\14.29.30133\atlmfc\include\atltypes.h

; 528  : 	left = 0;

  000d6	0f 11 45 ec	 movups	 XMMWORD PTR _rc$1[ebp], xmm0
; File C:\Program Files (x86)\Microsoft Visual Studio\2019\Community\VC\Tools\MSVC\14.29.30133\atlmfc\include\afxwin2.inl

; 86   : 	{ ASSERT(::IsWindow(m_hWnd)); ::GetClientRect(m_hWnd, lpRect); }

  000da	ff 15 00 00 00
	00		 call	 DWORD PTR __imp__GetClientRect@8
; File D:\git\src\IBK\IBK_DRFN\ProjSrc\SrcDrfn\Chart\comparechart\control\GfxOutBarCtrl.cpp

; 746  : 	if (arFolder.GetSize() > 0)

  000e0	8b be 0c 01 00
	00		 mov	 edi, DWORD PTR [esi+268]
  000e6	8b 5d f0	 mov	 ebx, DWORD PTR _rc$1[ebp+4]
  000e9	85 ff		 test	 edi, edi
  000eb	7e 27		 jle	 SHORT $LN50@SetSelFold

; 747  : 	{
; 748  : 		int max = arFolder.GetSize();
; 749  : 		rect.top += iFolderHeight * (iSelFolder + 1); + 1;//+ 2;

  000ed	8b 8e 34 01 00
	00		 mov	 ecx, DWORD PTR [esi+308]

; 750  : 		rect.bottom -= (max - iSelFolder - 1)*iFolderHeight;

  000f3	2b f9		 sub	 edi, ecx
  000f5	8b 96 a0 00 00
	00		 mov	 edx, DWORD PTR [esi+160]
  000fb	4f		 dec	 edi
  000fc	0f af fa	 imul	 edi, edx
  000ff	8d 41 01	 lea	 eax, DWORD PTR [ecx+1]
  00102	0f af c2	 imul	 eax, edx
  00105	03 d8		 add	 ebx, eax
  00107	8b 45 f8	 mov	 eax, DWORD PTR _rc$1[ebp+12]
  0010a	2b c7		 sub	 eax, edi
  0010c	89 5d f0	 mov	 DWORD PTR _rc$1[ebp+4], ebx
  0010f	89 45 f8	 mov	 DWORD PTR _rc$1[ebp+12], eax
  00112	eb 03		 jmp	 SHORT $LN49@SetSelFold
$LN50@SetSelFold:

; 746  : 	if (arFolder.GetSize() > 0)

  00114	8b 45 f8	 mov	 eax, DWORD PTR _rc$1[ebp+12]
$LN49@SetSelFold:
; File C:\Program Files (x86)\Microsoft Visual Studio\2019\Community\VC\Tools\MSVC\14.29.30133\atlmfc\include\afxwin2.inl

; 73   : 	{ MoveWindow(lpRect->left, lpRect->top, lpRect->right - lpRect->left,

  00117	8b 55 ec	 mov	 edx, DWORD PTR _rc$1[ebp]
  0011a	2b c3		 sub	 eax, ebx
  0011c	8b 4d e8	 mov	 ecx, DWORD PTR _pc$2$[ebp]
  0011f	6a 01		 push	 1
  00121	50		 push	 eax
  00122	8b 45 f4	 mov	 eax, DWORD PTR _rc$1[ebp+8]
  00125	2b c2		 sub	 eax, edx
  00127	50		 push	 eax
  00128	53		 push	 ebx
  00129	52		 push	 edx
  0012a	e8 00 00 00 00	 call	 ?MoveWindow@CWnd@@QAEXHHHHH@Z ; CWnd::MoveWindow
; File D:\git\src\IBK\IBK_DRFN\ProjSrc\SrcDrfn\Chart\comparechart\control\GfxOutBarCtrl.cpp

; 1491 : 		pc->ShowWindow(SW_SHOW);

  0012f	8b 4d e8	 mov	 ecx, DWORD PTR _pc$2$[ebp]
  00132	6a 05		 push	 5
  00134	e8 00 00 00 00	 call	 ?ShowWindow@CWnd@@QAEHH@Z ; CWnd::ShowWindow
  00139	5b		 pop	 ebx
$LN5@SetSelFold:
; File C:\Program Files (x86)\Microsoft Visual Studio\2019\Community\VC\Tools\MSVC\14.29.30133\atlmfc\include\afxwin2.inl

; 213  : 	{ ASSERT(::IsWindow(m_hWnd)); return CWnd::FromHandle(::GetParent(m_hWnd)); }

  0013a	ff 76 20	 push	 DWORD PTR [esi+32]
  0013d	ff 15 00 00 00
	00		 call	 DWORD PTR __imp__GetParent@4
  00143	50		 push	 eax
  00144	e8 00 00 00 00	 call	 ?FromHandle@CWnd@@SGPAV1@PAUHWND__@@@Z ; CWnd::FromHandle

; 32   : 	{ ASSERT(::IsWindow(m_hWnd)); return ::SendMessage(m_hWnd, message, wParam, lParam); }

  00149	ff b6 34 01 00
	00		 push	 DWORD PTR [esi+308]
  0014f	6a 05		 push	 5
  00151	68 c1 08 00 00	 push	 2241			; 000008c1H
  00156	ff 70 20	 push	 DWORD PTR [eax+32]
  00159	ff 15 00 00 00
	00		 call	 DWORD PTR __imp__SendMessageA@16

; 114  : 	{ ASSERT(::IsWindow(m_hWnd)); ::InvalidateRect(m_hWnd, NULL, bErase); }

  0015f	6a 01		 push	 1
  00161	6a 00		 push	 0
  00163	ff 76 20	 push	 DWORD PTR [esi+32]
  00166	ff 15 00 00 00
	00		 call	 DWORD PTR __imp__InvalidateRect@12
; File D:\git\src\IBK\IBK_DRFN\ProjSrc\SrcDrfn\Chart\comparechart\control\GfxOutBarCtrl.cpp

; 1497 : }

  0016c	8b 4d fc	 mov	 ecx, DWORD PTR __$ArrayPad$[ebp]
; File C:\Program Files (x86)\Microsoft Visual Studio\2019\Community\VC\Tools\MSVC\14.29.30133\atlmfc\include\afxwin2.inl

; 114  : 	{ ASSERT(::IsWindow(m_hWnd)); ::InvalidateRect(m_hWnd, NULL, bErase); }

  0016f	5f		 pop	 edi
; File D:\git\src\IBK\IBK_DRFN\ProjSrc\SrcDrfn\Chart\comparechart\control\GfxOutBarCtrl.cpp

; 1497 : }

  00170	33 cd		 xor	 ecx, ebp
; File C:\Program Files (x86)\Microsoft Visual Studio\2019\Community\VC\Tools\MSVC\14.29.30133\atlmfc\include\afxwin2.inl

; 114  : 	{ ASSERT(::IsWindow(m_hWnd)); ::InvalidateRect(m_hWnd, NULL, bErase); }

  00172	5e		 pop	 esi
; File D:\git\src\IBK\IBK_DRFN\ProjSrc\SrcDrfn\Chart\comparechart\control\GfxOutBarCtrl.cpp

; 1497 : }

  00173	e8 00 00 00 00	 call	 @__security_check_cookie@4
  00178	8b e5		 mov	 esp, ebp
  0017a	5d		 pop	 ebp
  0017b	c2 04 00	 ret	 4
$LN27@SetSelFold:
; File C:\Program Files (x86)\Microsoft Visual Studio\2019\Community\VC\Tools\MSVC\14.29.30133\atlmfc\include\afxcoll.inl

; 204  : 			AfxThrowInvalidArgException();

  0017e	e8 00 00 00 00	 call	 ?AfxThrowInvalidArgException@@YGXXZ ; AfxThrowInvalidArgException
$LN51@SetSelFold:
  00183	cc		 int	 3
?SetSelFolder@CGfxOutBarCtrl@@QAEXH@Z ENDP		; CGfxOutBarCtrl::SetSelFolder
_TEXT	ENDS
; Function compile flags: /Ogtp
; File D:\git\src\IBK\IBK_DRFN\ProjSrc\SrcDrfn\Chart\comparechart\control\GfxOutBarCtrl.cpp
;	COMDAT ?GetFolderCount@CGfxOutBarCtrl@@QBEHXZ
_TEXT	SEGMENT
?GetFolderCount@CGfxOutBarCtrl@@QBEHXZ PROC		; CGfxOutBarCtrl::GetFolderCount, COMDAT
; _this$ = ecx

; 1501 : 	return arFolder.GetSize();

  00000	8b 81 0c 01 00
	00		 mov	 eax, DWORD PTR [ecx+268]

; 1502 : }

  00006	c3		 ret	 0
?GetFolderCount@CGfxOutBarCtrl@@QBEHXZ ENDP		; CGfxOutBarCtrl::GetFolderCount
_TEXT	ENDS
; Function compile flags: /Ogtp
; File D:\git\src\IBK\IBK_DRFN\ProjSrc\SrcDrfn\Chart\comparechart\control\GfxOutBarCtrl.cpp
;	COMDAT ?GetSelFolder@CGfxOutBarCtrl@@QBEHXZ
_TEXT	SEGMENT
?GetSelFolder@CGfxOutBarCtrl@@QBEHXZ PROC		; CGfxOutBarCtrl::GetSelFolder, COMDAT
; _this$ = ecx

; 1506 : 	return iSelFolder;

  00000	8b 81 34 01 00
	00		 mov	 eax, DWORD PTR [ecx+308]

; 1507 : }

  00006	c3		 ret	 0
?GetSelFolder@CGfxOutBarCtrl@@QBEHXZ ENDP		; CGfxOutBarCtrl::GetSelFolder
_TEXT	ENDS
; Function compile flags: /Ogtp
; File D:\git\src\IBK\IBK_DRFN\ProjSrc\SrcDrfn\Chart\comparechart\control\GfxOutBarCtrl.cpp
; File C:\Program Files (x86)\Microsoft Visual Studio\2019\Community\VC\Tools\MSVC\14.29.30133\atlmfc\include\afxcoll.inl
; File D:\git\src\IBK\IBK_DRFN\ProjSrc\SrcDrfn\Chart\comparechart\control\GfxOutBarCtrl.cpp
; File C:\Program Files (x86)\Microsoft Visual Studio\2019\Community\VC\Tools\MSVC\14.29.30133\atlmfc\include\afxcoll.inl
; File D:\git\src\IBK\IBK_DRFN\ProjSrc\SrcDrfn\Chart\comparechart\control\GfxOutBarCtrl.cpp
; File C:\Program Files (x86)\Microsoft Visual Studio\2019\Community\VC\Tools\MSVC\14.29.30133\atlmfc\include\afxwin2.inl
; File D:\git\src\IBK\IBK_DRFN\ProjSrc\SrcDrfn\Chart\comparechart\control\GfxOutBarCtrl.cpp
; File C:\Program Files (x86)\Microsoft Visual Studio\2019\Community\VC\Tools\MSVC\14.29.30133\atlmfc\include\afxcoll.inl
; File D:\git\src\IBK\IBK_DRFN\ProjSrc\SrcDrfn\Chart\comparechart\control\GfxOutBarCtrl.cpp
;	COMDAT ?RemoveFolder@CGfxOutBarCtrl@@QAEXH@Z
_TEXT	SEGMENT
_index$ = 8						; size = 4
?RemoveFolder@CGfxOutBarCtrl@@QAEXH@Z PROC		; CGfxOutBarCtrl::RemoveFolder, COMDAT
; _this$ = ecx

; 1510 : {

  00000	55		 push	 ebp
  00001	8b ec		 mov	 ebp, esp
  00003	53		 push	 ebx
  00004	56		 push	 esi
  00005	57		 push	 edi
; File C:\Program Files (x86)\Microsoft Visual Studio\2019\Community\VC\Tools\MSVC\14.29.30133\atlmfc\include\afxcoll.inl

; 203  : 		if( nIndex < 0 || nIndex >= m_nSize )

  00006	8b 7d 08	 mov	 edi, DWORD PTR _index$[ebp]
; File D:\git\src\IBK\IBK_DRFN\ProjSrc\SrcDrfn\Chart\comparechart\control\GfxOutBarCtrl.cpp

; 1510 : {

  00009	8b f1		 mov	 esi, ecx
; File C:\Program Files (x86)\Microsoft Visual Studio\2019\Community\VC\Tools\MSVC\14.29.30133\atlmfc\include\afxcoll.inl

; 203  : 		if( nIndex < 0 || nIndex >= m_nSize )

  0000b	85 ff		 test	 edi, edi
  0000d	78 67		 js	 SHORT $LN9@RemoveFold
  0000f	3b be 0c 01 00
	00		 cmp	 edi, DWORD PTR [esi+268]
  00015	7d 5f		 jge	 SHORT $LN9@RemoveFold
; File D:\git\src\IBK\IBK_DRFN\ProjSrc\SrcDrfn\Chart\comparechart\control\GfxOutBarCtrl.cpp

; 1513 : 	delete pbf;

  00017	8b 86 08 01 00
	00		 mov	 eax, DWORD PTR [esi+264]
  0001d	8b 0c b8	 mov	 ecx, DWORD PTR [eax+edi*4]
  00020	85 c9		 test	 ecx, ecx
  00022	74 06		 je	 SHORT $LN5@RemoveFold
  00024	8b 01		 mov	 eax, DWORD PTR [ecx]
  00026	6a 01		 push	 1
  00028	ff 10		 call	 DWORD PTR [eax]
$LN5@RemoveFold:

; 1514 : 	arFolder.RemoveAt(index);

  0002a	6a 01		 push	 1
  0002c	57		 push	 edi
  0002d	8d 8e 04 01 00
	00		 lea	 ecx, DWORD PTR [esi+260]
  00033	e8 00 00 00 00	 call	 ?RemoveAt@CPtrArray@@QAEXHH@Z ; CPtrArray::RemoveAt

; 1515 : 	if (iSelFolder >= index) iSelFolder = index - 1;

  00038	8b 86 34 01 00
	00		 mov	 eax, DWORD PTR [esi+308]
  0003e	3b c7		 cmp	 eax, edi
  00040	7c 09		 jl	 SHORT $LN2@RemoveFold
  00042	8d 47 ff	 lea	 eax, DWORD PTR [edi-1]
  00045	89 86 34 01 00
	00		 mov	 DWORD PTR [esi+308], eax
$LN2@RemoveFold:

; 1516 : 	if (iSelFolder < 0 && GetFolderCount() > 0) iSelFolder = 0;

  0004b	85 c0		 test	 eax, eax
  0004d	79 13		 jns	 SHORT $LN3@RemoveFold
  0004f	83 be 0c 01 00
	00 00		 cmp	 DWORD PTR [esi+268], 0
  00056	7e 0a		 jle	 SHORT $LN3@RemoveFold
  00058	c7 86 34 01 00
	00 00 00 00 00	 mov	 DWORD PTR [esi+308], 0
$LN3@RemoveFold:
; File C:\Program Files (x86)\Microsoft Visual Studio\2019\Community\VC\Tools\MSVC\14.29.30133\atlmfc\include\afxwin2.inl

; 114  : 	{ ASSERT(::IsWindow(m_hWnd)); ::InvalidateRect(m_hWnd, NULL, bErase); }

  00062	6a 01		 push	 1
  00064	6a 00		 push	 0
  00066	ff 76 20	 push	 DWORD PTR [esi+32]
  00069	ff 15 00 00 00
	00		 call	 DWORD PTR __imp__InvalidateRect@12
  0006f	5f		 pop	 edi
  00070	5e		 pop	 esi
  00071	5b		 pop	 ebx
; File D:\git\src\IBK\IBK_DRFN\ProjSrc\SrcDrfn\Chart\comparechart\control\GfxOutBarCtrl.cpp

; 1518 : }

  00072	5d		 pop	 ebp
  00073	c2 04 00	 ret	 4
$LN9@RemoveFold:
; File C:\Program Files (x86)\Microsoft Visual Studio\2019\Community\VC\Tools\MSVC\14.29.30133\atlmfc\include\afxcoll.inl

; 204  : 			AfxThrowInvalidArgException();

  00076	e8 00 00 00 00	 call	 ?AfxThrowInvalidArgException@@YGXXZ ; AfxThrowInvalidArgException
$LN14@RemoveFold:
  0007b	cc		 int	 3
?RemoveFolder@CGfxOutBarCtrl@@QAEXH@Z ENDP		; CGfxOutBarCtrl::RemoveFolder
_TEXT	ENDS
; Function compile flags: /Ogtp
; File D:\git\src\IBK\IBK_DRFN\ProjSrc\SrcDrfn\Chart\comparechart\control\GfxOutBarCtrl.cpp
;	COMDAT ?GetCountPerPage@CGfxOutBarCtrl@@QBEHXZ
_TEXT	SEGMENT
?GetCountPerPage@CGfxOutBarCtrl@@QBEHXZ PROC		; CGfxOutBarCtrl::GetCountPerPage, COMDAT
; _this$ = ecx

; 1540 : 	return 0;

  00000	33 c0		 xor	 eax, eax

; 1541 : }

  00002	c3		 ret	 0
?GetCountPerPage@CGfxOutBarCtrl@@QBEHXZ ENDP		; CGfxOutBarCtrl::GetCountPerPage
_TEXT	ENDS
; Function compile flags: /Ogtp
; File D:\git\src\IBK\IBK_DRFN\ProjSrc\SrcDrfn\Chart\comparechart\control\GfxOutBarCtrl.cpp
;	COMDAT ?SetImageList@CGfxOutBarCtrl@@QAEPAVCImageList@@PAV2@H@Z
_TEXT	SEGMENT
_pImageList$ = 8					; size = 4
_nImageList$ = 12					; size = 4
?SetImageList@CGfxOutBarCtrl@@QAEPAVCImageList@@PAV2@H@Z PROC ; CGfxOutBarCtrl::SetImageList, COMDAT
; _this$ = ecx

; 1544 : {

  00000	55		 push	 ebp
  00001	8b ec		 mov	 ebp, esp

; 1545 : 	CImageList * o = NULL;
; 1546 : 	if (nImageList == fSmallIcon)

  00003	8b 45 0c	 mov	 eax, DWORD PTR _nImageList$[ebp]
  00006	56		 push	 esi
  00007	8b f1		 mov	 esi, ecx
  00009	83 f8 01	 cmp	 eax, 1
  0000c	75 16		 jne	 SHORT $LN2@SetImageLi

; 1547 : 	{
; 1548 : 		o = pSmallImageList;

  0000e	8b 96 3c 01 00
	00		 mov	 edx, DWORD PTR [esi+316]

; 1549 : 		pSmallImageList = pImageList;

  00014	8b 45 08	 mov	 eax, DWORD PTR _pImageList$[ebp]
  00017	89 86 3c 01 00
	00		 mov	 DWORD PTR [esi+316], eax

; 1555 : 	}
; 1556 : 	return o;

  0001d	8b c2		 mov	 eax, edx
  0001f	5e		 pop	 esi

; 1557 : }

  00020	5d		 pop	 ebp
  00021	c2 08 00	 ret	 8
$LN2@SetImageLi:

; 1550 : 	}
; 1551 : 	else if (nImageList == fLargeIcon)

  00024	83 f8 02	 cmp	 eax, 2
  00027	75 16		 jne	 SHORT $LN6@SetImageLi

; 1552 : 	{
; 1553 : 		o = pLargeImageList;

  00029	8b 8e 38 01 00
	00		 mov	 ecx, DWORD PTR [esi+312]

; 1554 : 		pLargeImageList = pImageList;

  0002f	8b 45 08	 mov	 eax, DWORD PTR _pImageList$[ebp]
  00032	89 86 38 01 00
	00		 mov	 DWORD PTR [esi+312], eax

; 1555 : 	}
; 1556 : 	return o;

  00038	8b c1		 mov	 eax, ecx
  0003a	5e		 pop	 esi

; 1557 : }

  0003b	5d		 pop	 ebp
  0003c	c2 08 00	 ret	 8
$LN6@SetImageLi:

; 1555 : 	}
; 1556 : 	return o;

  0003f	33 c0		 xor	 eax, eax
  00041	5e		 pop	 esi

; 1557 : }

  00042	5d		 pop	 ebp
  00043	c2 08 00	 ret	 8
?SetImageList@CGfxOutBarCtrl@@QAEPAVCImageList@@PAV2@H@Z ENDP ; CGfxOutBarCtrl::SetImageList
_TEXT	ENDS
; Function compile flags: /Ogtp
; File D:\git\src\IBK\IBK_DRFN\ProjSrc\SrcDrfn\Chart\comparechart\control\GfxOutBarCtrl.cpp
; File C:\Program Files (x86)\Microsoft Visual Studio\2019\Community\VC\Tools\MSVC\14.29.30133\atlmfc\include\afxcoll.inl
; File D:\git\src\IBK\IBK_DRFN\ProjSrc\SrcDrfn\Chart\comparechart\control\GfxOutBarCtrl.cpp
; File C:\Program Files (x86)\Microsoft Visual Studio\2019\Community\VC\Tools\MSVC\14.29.30133\atlmfc\include\afxcoll.inl
; File D:\git\src\IBK\IBK_DRFN\ProjSrc\SrcDrfn\Chart\comparechart\control\GfxOutBarCtrl.cpp
; File C:\Program Files (x86)\Microsoft Visual Studio\2019\Community\VC\Tools\MSVC\14.29.30133\atlmfc\include\afxcoll.inl
; File D:\git\src\IBK\IBK_DRFN\ProjSrc\SrcDrfn\Chart\comparechart\control\GfxOutBarCtrl.cpp
;	COMDAT ?SetFolderImageList@CGfxOutBarCtrl@@QAEPAVCImageList@@HPAV2@H@Z
_TEXT	SEGMENT
_folder$ = 8						; size = 4
_pImageList$ = 12					; size = 4
_nImageList$ = 16					; size = 4
?SetFolderImageList@CGfxOutBarCtrl@@QAEPAVCImageList@@HPAV2@H@Z PROC ; CGfxOutBarCtrl::SetFolderImageList, COMDAT
; _this$ = ecx

; 1567 : {

  00000	55		 push	 ebp
  00001	8b ec		 mov	 ebp, esp
; File C:\Program Files (x86)\Microsoft Visual Studio\2019\Community\VC\Tools\MSVC\14.29.30133\atlmfc\include\afxcoll.inl

; 203  : 		if( nIndex < 0 || nIndex >= m_nSize )

  00003	8b 55 08	 mov	 edx, DWORD PTR _folder$[ebp]
  00006	85 d2		 test	 edx, edx
  00008	78 41		 js	 SHORT $LN8@SetFolderI
  0000a	3b 91 0c 01 00
	00		 cmp	 edx, DWORD PTR [ecx+268]
  00010	7d 39		 jge	 SHORT $LN8@SetFolderI

; 205  : 		return m_pData[nIndex]; }

  00012	8b 81 08 01 00
	00		 mov	 eax, DWORD PTR [ecx+264]
  00018	56		 push	 esi
; File D:\git\src\IBK\IBK_DRFN\ProjSrc\SrcDrfn\Chart\comparechart\control\GfxOutBarCtrl.cpp

; 1570 : 	CImageList * o = NULL;

  00019	33 f6		 xor	 esi, esi
; File C:\Program Files (x86)\Microsoft Visual Studio\2019\Community\VC\Tools\MSVC\14.29.30133\atlmfc\include\afxcoll.inl

; 205  : 		return m_pData[nIndex]; }

  0001b	8b 14 90	 mov	 edx, DWORD PTR [eax+edx*4]
; File D:\git\src\IBK\IBK_DRFN\ProjSrc\SrcDrfn\Chart\comparechart\control\GfxOutBarCtrl.cpp

; 1571 : 	if (nImageList == fSmallIcon)

  0001e	8b 45 10	 mov	 eax, DWORD PTR _nImageList$[ebp]
  00021	83 f8 01	 cmp	 eax, 1
  00024	75 10		 jne	 SHORT $LN2@SetFolderI

; 1572 : 	{
; 1573 : 		o = pbf->pSmallImageList;

  00026	8b 72 10	 mov	 esi, DWORD PTR [edx+16]

; 1574 : 		pbf->pSmallImageList = pImageList;

  00029	8b 45 0c	 mov	 eax, DWORD PTR _pImageList$[ebp]
  0002c	89 42 10	 mov	 DWORD PTR [edx+16], eax

; 1580 : 	}
; 1581 : 	return o;

  0002f	8b c6		 mov	 eax, esi
  00031	5e		 pop	 esi

; 1582 : }

  00032	5d		 pop	 ebp
  00033	c2 0c 00	 ret	 12			; 0000000cH
$LN2@SetFolderI:

; 1575 : 	}
; 1576 : 	else if (nImageList == fLargeIcon)

  00036	83 f8 02	 cmp	 eax, 2
  00039	75 09		 jne	 SHORT $LN4@SetFolderI

; 1577 : 	{
; 1578 : 		o = pbf->pLargeImageList;

  0003b	8b 72 0c	 mov	 esi, DWORD PTR [edx+12]

; 1579 : 		pbf->pLargeImageList = pImageList;

  0003e	8b 4d 0c	 mov	 ecx, DWORD PTR _pImageList$[ebp]
  00041	89 4a 0c	 mov	 DWORD PTR [edx+12], ecx
$LN4@SetFolderI:

; 1580 : 	}
; 1581 : 	return o;

  00044	8b c6		 mov	 eax, esi
  00046	5e		 pop	 esi

; 1582 : }

  00047	5d		 pop	 ebp
  00048	c2 0c 00	 ret	 12			; 0000000cH
$LN8@SetFolderI:
; File C:\Program Files (x86)\Microsoft Visual Studio\2019\Community\VC\Tools\MSVC\14.29.30133\atlmfc\include\afxcoll.inl

; 204  : 			AfxThrowInvalidArgException();

  0004b	e8 00 00 00 00	 call	 ?AfxThrowInvalidArgException@@YGXXZ ; AfxThrowInvalidArgException
$LN11@SetFolderI:
  00050	cc		 int	 3
?SetFolderImageList@CGfxOutBarCtrl@@QAEPAVCImageList@@HPAV2@H@Z ENDP ; CGfxOutBarCtrl::SetFolderImageList
_TEXT	ENDS
; Function compile flags: /Ogtp
; File D:\git\src\IBK\IBK_DRFN\ProjSrc\SrcDrfn\Chart\comparechart\control\GfxOutBarCtrl.cpp
;	COMDAT ?GetImageList@CGfxOutBarCtrl@@QAEPAVCImageList@@PAV2@H@Z
_TEXT	SEGMENT
_pImageList$ = 8					; size = 4
_nImageList$ = 12					; size = 4
?GetImageList@CGfxOutBarCtrl@@QAEPAVCImageList@@PAV2@H@Z PROC ; CGfxOutBarCtrl::GetImageList, COMDAT
; _this$ = ecx

; 1560 : {

  00000	55		 push	 ebp
  00001	8b ec		 mov	 ebp, esp

; 1561 : 	if (nImageList == fSmallIcon) return pSmallImageList;

  00003	8b 45 0c	 mov	 eax, DWORD PTR _nImageList$[ebp]
  00006	83 f8 01	 cmp	 eax, 1
  00009	75 0a		 jne	 SHORT $LN2@GetImageLi
  0000b	8b 81 3c 01 00
	00		 mov	 eax, DWORD PTR [ecx+316]

; 1564 : }

  00011	5d		 pop	 ebp
  00012	c2 08 00	 ret	 8
$LN2@GetImageLi:

; 1562 : 	else if (nImageList == fLargeIcon) return pLargeImageList;

  00015	83 f8 02	 cmp	 eax, 2
  00018	75 0a		 jne	 SHORT $LN4@GetImageLi
  0001a	8b 81 38 01 00
	00		 mov	 eax, DWORD PTR [ecx+312]

; 1564 : }

  00020	5d		 pop	 ebp
  00021	c2 08 00	 ret	 8
$LN4@GetImageLi:

; 1563 : 	return NULL;

  00024	33 c0		 xor	 eax, eax

; 1564 : }

  00026	5d		 pop	 ebp
  00027	c2 08 00	 ret	 8
?GetImageList@CGfxOutBarCtrl@@QAEPAVCImageList@@PAV2@H@Z ENDP ; CGfxOutBarCtrl::GetImageList
_TEXT	ENDS
; Function compile flags: /Ogtp
; File D:\git\src\IBK\IBK_DRFN\ProjSrc\SrcDrfn\Chart\comparechart\control\GfxOutBarCtrl.cpp
; File C:\Program Files (x86)\Microsoft Visual Studio\2019\Community\VC\Tools\MSVC\14.29.30133\atlmfc\include\afxcoll.inl
; File D:\git\src\IBK\IBK_DRFN\ProjSrc\SrcDrfn\Chart\comparechart\control\GfxOutBarCtrl.cpp
; File C:\Program Files (x86)\Microsoft Visual Studio\2019\Community\VC\Tools\MSVC\14.29.30133\atlmfc\include\afxcoll.inl
; File D:\git\src\IBK\IBK_DRFN\ProjSrc\SrcDrfn\Chart\comparechart\control\GfxOutBarCtrl.cpp
; File C:\Program Files (x86)\Microsoft Visual Studio\2019\Community\VC\Tools\MSVC\14.29.30133\atlmfc\include\afxwin1.inl
; File D:\git\src\IBK\IBK_DRFN\ProjSrc\SrcDrfn\Chart\comparechart\control\GfxOutBarCtrl.cpp
; File C:\Program Files (x86)\Microsoft Visual Studio\2019\Community\VC\Tools\MSVC\14.29.30133\atlmfc\include\afxwin1.inl
; File D:\git\src\IBK\IBK_DRFN\ProjSrc\SrcDrfn\Chart\comparechart\control\GfxOutBarCtrl.cpp
; File C:\Program Files (x86)\Microsoft Visual Studio\2019\Community\VC\Tools\MSVC\14.29.30133\atlmfc\include\afxcoll.inl
; File D:\git\src\IBK\IBK_DRFN\ProjSrc\SrcDrfn\Chart\comparechart\control\GfxOutBarCtrl.cpp
; File C:\Program Files (x86)\Microsoft Visual Studio\2019\Community\VC\Tools\MSVC\14.29.30133\atlmfc\include\atltypes.h
; File D:\git\src\IBK\IBK_DRFN\ProjSrc\SrcDrfn\Chart\comparechart\control\GfxOutBarCtrl.cpp
; File C:\Program Files (x86)\Microsoft Visual Studio\2019\Community\VC\Tools\MSVC\14.29.30133\atlmfc\include\afxwin1.inl
; File D:\git\src\IBK\IBK_DRFN\ProjSrc\SrcDrfn\Chart\comparechart\control\GfxOutBarCtrl.cpp
;	COMDAT ?PaintItems@CGfxOutBarCtrl@@QAEXPAVCDC@@HVCRect@@@Z
_TEXT	SEGMENT
_isdc$1$ = -60						; size = 4
_pbf$1$ = -56						; size = 4
_pDC$GSCopy$1$ = -52					; size = 4
_max$1$ = -48						; size = 4
_itemRegion$ = -44					; size = 8
_this$GSCopy$1$ = -36					; size = 4
_itemRc$2 = -32						; size = 16
__$ArrayPad$ = -16					; size = 4
__$EHRec$ = -12						; size = 12
_pDC$ = 8						; size = 4
_iFolder$ = 12						; size = 4
_rc$ = 16						; size = 16
?PaintItems@CGfxOutBarCtrl@@QAEXPAVCDC@@HVCRect@@@Z PROC ; CGfxOutBarCtrl::PaintItems, COMDAT
; _this$ = ecx

; 1609 : {

  00000	55		 push	 ebp
  00001	8b ec		 mov	 ebp, esp
  00003	6a ff		 push	 -1
  00005	68 00 00 00 00	 push	 __ehhandler$?PaintItems@CGfxOutBarCtrl@@QAEXPAVCDC@@HVCRect@@@Z
  0000a	64 a1 00 00 00
	00		 mov	 eax, DWORD PTR fs:0
  00010	50		 push	 eax
  00011	83 ec 30	 sub	 esp, 48			; 00000030H
  00014	a1 00 00 00 00	 mov	 eax, DWORD PTR ___security_cookie
  00019	33 c5		 xor	 eax, ebp
  0001b	89 45 f0	 mov	 DWORD PTR __$ArrayPad$[ebp], eax
  0001e	56		 push	 esi
  0001f	57		 push	 edi
  00020	50		 push	 eax
  00021	8d 45 f4	 lea	 eax, DWORD PTR __$EHRec$[ebp]
  00024	64 a3 00 00 00
	00		 mov	 DWORD PTR fs:0, eax
  0002a	89 4d dc	 mov	 DWORD PTR _this$GSCopy$1$[ebp], ecx
  0002d	8b 7d 0c	 mov	 edi, DWORD PTR _iFolder$[ebp]
  00030	8b 75 08	 mov	 esi, DWORD PTR _pDC$[ebp]
  00033	89 75 cc	 mov	 DWORD PTR _pDC$GSCopy$1$[ebp], esi
; File C:\Program Files (x86)\Microsoft Visual Studio\2019\Community\VC\Tools\MSVC\14.29.30133\atlmfc\include\afxcoll.inl

; 203  : 		if( nIndex < 0 || nIndex >= m_nSize )

  00036	85 ff		 test	 edi, edi
  00038	0f 88 fa 00 00
	00		 js	 $LN22@PaintItems
  0003e	3b b9 0c 01 00
	00		 cmp	 edi, DWORD PTR [ecx+268]
  00044	0f 8d ee 00 00
	00		 jge	 $LN22@PaintItems

; 205  : 		return m_pData[nIndex]; }

  0004a	8b 81 08 01 00
	00		 mov	 eax, DWORD PTR [ecx+264]
; File D:\git\src\IBK\IBK_DRFN\ProjSrc\SrcDrfn\Chart\comparechart\control\GfxOutBarCtrl.cpp

; 1615 : 	int isdc = pDC->SaveDC();

  00050	8b ce		 mov	 ecx, esi
; File C:\Program Files (x86)\Microsoft Visual Studio\2019\Community\VC\Tools\MSVC\14.29.30133\atlmfc\include\afxcoll.inl

; 205  : 		return m_pData[nIndex]; }

  00052	8b 04 b8	 mov	 eax, DWORD PTR [eax+edi*4]
  00055	89 45 c8	 mov	 DWORD PTR _pbf$1$[ebp], eax
; File D:\git\src\IBK\IBK_DRFN\ProjSrc\SrcDrfn\Chart\comparechart\control\GfxOutBarCtrl.cpp

; 1612 : 	int max = pbf->GetItemCount(), t;

  00058	8b 40 1c	 mov	 eax, DWORD PTR [eax+28]
  0005b	89 45 d0	 mov	 DWORD PTR _max$1$[ebp], eax

; 1615 : 	int isdc = pDC->SaveDC();

  0005e	8b 06		 mov	 eax, DWORD PTR [esi]
  00060	8b 40 24	 mov	 eax, DWORD PTR [eax+36]
  00063	ff d0		 call	 eax
  00065	89 45 c4	 mov	 DWORD PTR _isdc$1$[ebp], eax
; File C:\Program Files (x86)\Microsoft Visual Studio\2019\Community\VC\Tools\MSVC\14.29.30133\atlmfc\include\afxwin1.inl

; 70   : 	{ m_hObject = NULL; }

  00068	c7 45 d8 00 00
	00 00		 mov	 DWORD PTR _itemRegion$[ebp+4], 0

; 264  : 	{ }

  0006f	c7 45 d4 00 00
	00 00		 mov	 DWORD PTR _itemRegion$[ebp], OFFSET ??_7CRgn@@6B@

; 270  : 	{ return Attach(::CreateRectRgnIndirect(lpRect)); }

  00076	8d 45 10	 lea	 eax, DWORD PTR _rc$[ebp]
; File D:\git\src\IBK\IBK_DRFN\ProjSrc\SrcDrfn\Chart\comparechart\control\GfxOutBarCtrl.cpp

; 1616 : 	CRgn itemRegion;

  00079	c7 45 fc 00 00
	00 00		 mov	 DWORD PTR __$EHRec$[ebp+8], 0
; File C:\Program Files (x86)\Microsoft Visual Studio\2019\Community\VC\Tools\MSVC\14.29.30133\atlmfc\include\afxwin1.inl

; 270  : 	{ return Attach(::CreateRectRgnIndirect(lpRect)); }

  00080	50		 push	 eax
  00081	ff 15 00 00 00
	00		 call	 DWORD PTR __imp__CreateRectRgnIndirect@4
  00087	50		 push	 eax
  00088	8d 4d d4	 lea	 ecx, DWORD PTR _itemRegion$[ebp]
  0008b	e8 00 00 00 00	 call	 ?Attach@CGdiObject@@QAEHPAX@Z ; CGdiObject::Attach
; File D:\git\src\IBK\IBK_DRFN\ProjSrc\SrcDrfn\Chart\comparechart\control\GfxOutBarCtrl.cpp

; 1618 : 	pDC->SelectClipRgn(&itemRegion);

  00090	8d 45 d4	 lea	 eax, DWORD PTR _itemRegion$[ebp]
  00093	8b ce		 mov	 ecx, esi
  00095	50		 push	 eax
  00096	e8 00 00 00 00	 call	 ?SelectClipRgn@CDC@@QAEHPAVCRgn@@@Z ; CDC::SelectClipRgn

; 1619 : 	itemRegion.DeleteObject();

  0009b	8d 4d d4	 lea	 ecx, DWORD PTR _itemRegion$[ebp]
  0009e	e8 00 00 00 00	 call	 ?DeleteObject@CGdiObject@@QAEHXZ ; CGdiObject::DeleteObject

; 1620 : 	for (t = iFirstItem; t < max; t++)

  000a3	8b 45 dc	 mov	 eax, DWORD PTR _this$GSCopy$1$[ebp]
  000a6	8b b0 20 01 00
	00		 mov	 esi, DWORD PTR [eax+288]
  000ac	3b 75 d0	 cmp	 esi, DWORD PTR _max$1$[ebp]
  000af	7d 50		 jge	 SHORT $LN3@PaintItems
$LL4@PaintItems:
; File C:\Program Files (x86)\Microsoft Visual Studio\2019\Community\VC\Tools\MSVC\14.29.30133\atlmfc\include\afxcoll.inl

; 203  : 		if( nIndex < 0 || nIndex >= m_nSize )

  000b1	85 f6		 test	 esi, esi
  000b3	0f 88 7f 00 00
	00		 js	 $LN22@PaintItems
  000b9	8b 4d c8	 mov	 ecx, DWORD PTR _pbf$1$[ebp]
  000bc	3b 71 1c	 cmp	 esi, DWORD PTR [ecx+28]
  000bf	7d 77		 jge	 SHORT $LN22@PaintItems
; File D:\git\src\IBK\IBK_DRFN\ProjSrc\SrcDrfn\Chart\comparechart\control\GfxOutBarCtrl.cpp

; 1624 : 		GetItemRect(iFolder, t, itemRc);

  000c1	8d 4d e0	 lea	 ecx, DWORD PTR _itemRc$2[ebp]
  000c4	0f 57 c0	 xorps	 xmm0, xmm0
  000c7	51		 push	 ecx
  000c8	56		 push	 esi
  000c9	57		 push	 edi
  000ca	8b c8		 mov	 ecx, eax
; File C:\Program Files (x86)\Microsoft Visual Studio\2019\Community\VC\Tools\MSVC\14.29.30133\atlmfc\include\atltypes.h

; 528  : 	left = 0;

  000cc	0f 11 45 e0	 movups	 XMMWORD PTR _itemRc$2[ebp], xmm0
; File D:\git\src\IBK\IBK_DRFN\ProjSrc\SrcDrfn\Chart\comparechart\control\GfxOutBarCtrl.cpp

; 1624 : 		GetItemRect(iFolder, t, itemRc);

  000d0	e8 00 00 00 00	 call	 ?GetItemRect@CGfxOutBarCtrl@@QAEXHHAAVCRect@@@Z ; CGfxOutBarCtrl::GetItemRect

; 1625 : 		if (itemRc.top > rc.bottom) break;

  000d5	8b 45 e4	 mov	 eax, DWORD PTR _itemRc$2[ebp+4]
  000d8	3b 45 1c	 cmp	 eax, DWORD PTR _rc$[ebp+12]
  000db	7f 24		 jg	 SHORT $LN3@PaintItems

; 1626 : 		else DrawItem(pDC, iFolder, itemRc, t);

  000dd	0f 10 45 e0	 movups	 xmm0, XMMWORD PTR _itemRc$2[ebp]
  000e1	8b 4d dc	 mov	 ecx, DWORD PTR _this$GSCopy$1$[ebp]
  000e4	6a 00		 push	 0
  000e6	56		 push	 esi
  000e7	83 ec 10	 sub	 esp, 16			; 00000010H
  000ea	8b c4		 mov	 eax, esp
  000ec	57		 push	 edi
  000ed	ff 75 cc	 push	 DWORD PTR _pDC$GSCopy$1$[ebp]
  000f0	0f 11 00	 movups	 XMMWORD PTR [eax], xmm0
  000f3	e8 00 00 00 00	 call	 ?DrawItem@CGfxOutBarCtrl@@QAEXPAVCDC@@HVCRect@@H_N@Z ; CGfxOutBarCtrl::DrawItem
  000f8	8b 45 dc	 mov	 eax, DWORD PTR _this$GSCopy$1$[ebp]
  000fb	46		 inc	 esi
  000fc	3b 75 d0	 cmp	 esi, DWORD PTR _max$1$[ebp]
  000ff	7c b0		 jl	 SHORT $LL4@PaintItems
$LN3@PaintItems:

; 1627 : 	}
; 1628 : 	pDC->RestoreDC(isdc);

  00101	8b 4d cc	 mov	 ecx, DWORD PTR _pDC$GSCopy$1$[ebp]
  00104	ff 75 c4	 push	 DWORD PTR _isdc$1$[ebp]
  00107	8b 01		 mov	 eax, DWORD PTR [ecx]
  00109	ff 50 28	 call	 DWORD PTR [eax+40]
; File C:\Program Files (x86)\Microsoft Visual Studio\2019\Community\VC\Tools\MSVC\14.29.30133\atlmfc\include\afxwin1.inl

; 266  : 	{ }

  0010c	8d 4d d4	 lea	 ecx, DWORD PTR _itemRegion$[ebp]
  0010f	c7 45 d4 00 00
	00 00		 mov	 DWORD PTR _itemRegion$[ebp], OFFSET ??_7CRgn@@6B@
  00116	e8 00 00 00 00	 call	 ??1CGdiObject@@UAE@XZ	; CGdiObject::~CGdiObject
; File D:\git\src\IBK\IBK_DRFN\ProjSrc\SrcDrfn\Chart\comparechart\control\GfxOutBarCtrl.cpp

; 1629 : }

  0011b	8b 4d f4	 mov	 ecx, DWORD PTR __$EHRec$[ebp]
  0011e	64 89 0d 00 00
	00 00		 mov	 DWORD PTR fs:0, ecx
  00125	59		 pop	 ecx
  00126	5f		 pop	 edi
  00127	5e		 pop	 esi
  00128	8b 4d f0	 mov	 ecx, DWORD PTR __$ArrayPad$[ebp]
  0012b	33 cd		 xor	 ecx, ebp
  0012d	e8 00 00 00 00	 call	 @__security_check_cookie@4
  00132	8b e5		 mov	 esp, ebp
  00134	5d		 pop	 ebp
  00135	c2 18 00	 ret	 24			; 00000018H
$LN22@PaintItems:
  00138	e8 00 00 00 00	 call	 ?AfxThrowInvalidArgException@@YGXXZ ; AfxThrowInvalidArgException
$LN36@PaintItems:
  0013d	cc		 int	 3
_TEXT	ENDS
;	COMDAT text$x
text$x	SEGMENT
__unwindfunclet$?PaintItems@CGfxOutBarCtrl@@QAEXPAVCDC@@HVCRect@@@Z$0:
  00000	8d 4d d4	 lea	 ecx, DWORD PTR _itemRegion$[ebp]
  00003	e9 00 00 00 00	 jmp	 ??1CRgn@@UAE@XZ		; CRgn::~CRgn
  00008	cc		 int	 3
  00009	cc		 int	 3
  0000a	cc		 int	 3
  0000b	cc		 int	 3
  0000c	cc		 int	 3
__ehhandler$?PaintItems@CGfxOutBarCtrl@@QAEXPAVCDC@@HVCRect@@@Z:
  0000d	90		 npad	 1
  0000e	90		 npad	 1
  0000f	8b 54 24 08	 mov	 edx, DWORD PTR [esp+8]
  00013	8d 42 0c	 lea	 eax, DWORD PTR [edx+12]
  00016	8b 4a c4	 mov	 ecx, DWORD PTR [edx-60]
  00019	33 c8		 xor	 ecx, eax
  0001b	e8 00 00 00 00	 call	 @__security_check_cookie@4
  00020	8b 4a fc	 mov	 ecx, DWORD PTR [edx-4]
  00023	33 c8		 xor	 ecx, eax
  00025	e8 00 00 00 00	 call	 @__security_check_cookie@4
  0002a	b8 00 00 00 00	 mov	 eax, OFFSET __ehfuncinfo$?PaintItems@CGfxOutBarCtrl@@QAEXPAVCDC@@HVCRect@@@Z
  0002f	e9 00 00 00 00	 jmp	 ___CxxFrameHandler3
text$x	ENDS
?PaintItems@CGfxOutBarCtrl@@QAEXPAVCDC@@HVCRect@@@Z ENDP ; CGfxOutBarCtrl::PaintItems
; Function compile flags: /Ogtp
; File D:\git\src\IBK\IBK_DRFN\ProjSrc\SrcDrfn\Chart\comparechart\control\GfxOutBarCtrl.cpp
; File C:\Program Files (x86)\Microsoft Visual Studio\2019\Community\VC\Tools\MSVC\14.29.30133\atlmfc\include\afxcoll.inl
; File C:\Program Files (x86)\Microsoft Visual Studio\2019\Community\VC\Tools\MSVC\14.29.30133\atlmfc\include\atltypes.h
; File C:\Program Files (x86)\Microsoft Visual Studio\2019\Community\VC\Tools\MSVC\14.29.30133\atlmfc\include\afxcoll.inl
; File C:\Program Files (x86)\Microsoft Visual Studio\2019\Community\VC\Tools\MSVC\14.29.30133\atlmfc\include\atltypes.h
; File C:\Program Files (x86)\Microsoft Visual Studio\2019\Community\VC\Tools\MSVC\14.29.30133\atlmfc\include\afxcoll.inl
; File D:\git\src\IBK\IBK_DRFN\ProjSrc\SrcDrfn\Chart\comparechart\control\GfxOutBarCtrl.cpp
; File C:\Program Files (x86)\Microsoft Visual Studio\2019\Community\VC\Tools\MSVC\14.29.30133\atlmfc\include\atltypes.h
; File D:\git\src\IBK\IBK_DRFN\ProjSrc\SrcDrfn\Chart\comparechart\control\GfxOutBarCtrl.cpp
; File C:\Program Files (x86)\Microsoft Visual Studio\2019\Community\VC\Tools\MSVC\14.29.30133\atlmfc\include\afxwin1.inl
; File C:\Program Files (x86)\Microsoft Visual Studio\2019\Community\VC\Tools\MSVC\14.29.30133\atlmfc\include\atltypes.h
; File D:\git\src\IBK\IBK_DRFN\ProjSrc\SrcDrfn\Chart\comparechart\control\GfxOutBarCtrl.cpp
; File C:\Program Files (x86)\Microsoft Visual Studio\2019\Community\VC\Tools\MSVC\14.29.30133\atlmfc\include\afxwin1.inl
; File D:\git\src\IBK\IBK_DRFN\ProjSrc\SrcDrfn\Chart\comparechart\control\GfxOutBarCtrl.cpp
; File C:\Program Files (x86)\Microsoft Visual Studio\2019\Community\VC\Tools\MSVC\14.29.30133\atlmfc\include\atltypes.h
; File D:\git\src\IBK\IBK_DRFN\ProjSrc\SrcDrfn\Chart\comparechart\control\GfxOutBarCtrl.cpp
; File C:\Program Files (x86)\Microsoft Visual Studio\2019\Community\VC\Tools\MSVC\14.29.30133\atlmfc\include\afxwin1.inl
; File C:\Program Files (x86)\Microsoft Visual Studio\2019\Community\VC\Tools\MSVC\14.29.30133\atlmfc\include\atltypes.h
; File D:\git\src\IBK\IBK_DRFN\ProjSrc\SrcDrfn\Chart\comparechart\control\GfxOutBarCtrl.cpp
; File C:\Program Files (x86)\Microsoft Visual Studio\2019\Community\VC\Tools\MSVC\14.29.30133\atlmfc\include\afxcoll.inl
; File D:\git\src\IBK\IBK_DRFN\ProjSrc\SrcDrfn\Chart\comparechart\control\GfxOutBarCtrl.cpp
;	COMDAT ?GetItemSize@CGfxOutBarCtrl@@QAE?AVCSize@@HHH@Z
_TEXT	SEGMENT
_oft$1$ = -104						; size = 4
$T2 = -104						; size = 1
_szImage$1$ = -100					; size = 4
_szImage$2$ = -96					; size = 4
$T3 = -92						; size = 4
_pi$1$ = -88						; size = 4
_ii$4 = -84						; size = 32
_dc$5 = -52						; size = 20
$T6 = -48						; size = 16
_rc$7 = -32						; size = 16
_size$8 = -24						; size = 8
$T9 = -20						; size = 4
__$ArrayPad$ = -16					; size = 4
__$EHRec$ = -12						; size = 12
___$ReturnUdt$ = 8					; size = 4
_iFolder$ = 12						; size = 4
_index$ = 16						; size = 4
_type$ = 20						; size = 4
?GetItemSize@CGfxOutBarCtrl@@QAE?AVCSize@@HHH@Z PROC	; CGfxOutBarCtrl::GetItemSize, COMDAT
; _this$ = ecx

; 1633 : {

  00000	55		 push	 ebp
  00001	8b ec		 mov	 ebp, esp
  00003	6a ff		 push	 -1
  00005	68 00 00 00 00	 push	 __ehhandler$?GetItemSize@CGfxOutBarCtrl@@QAE?AVCSize@@HHH@Z
  0000a	64 a1 00 00 00
	00		 mov	 eax, DWORD PTR fs:0
  00010	50		 push	 eax
  00011	83 ec 5c	 sub	 esp, 92			; 0000005cH
  00014	a1 00 00 00 00	 mov	 eax, DWORD PTR ___security_cookie
  00019	33 c5		 xor	 eax, ebp
  0001b	89 45 f0	 mov	 DWORD PTR __$ArrayPad$[ebp], eax
  0001e	53		 push	 ebx
  0001f	56		 push	 esi
  00020	57		 push	 edi
  00021	50		 push	 eax
  00022	8d 45 f4	 lea	 eax, DWORD PTR __$EHRec$[ebp]
  00025	64 a3 00 00 00
	00		 mov	 DWORD PTR fs:0, eax
  0002b	8b f9		 mov	 edi, ecx
  0002d	8b 4d 0c	 mov	 ecx, DWORD PTR _iFolder$[ebp]
  00030	8b 75 08	 mov	 esi, DWORD PTR ___$ReturnUdt$[ebp]
  00033	8b 5d 10	 mov	 ebx, DWORD PTR _index$[ebp]
; File C:\Program Files (x86)\Microsoft Visual Studio\2019\Community\VC\Tools\MSVC\14.29.30133\atlmfc\include\afxcoll.inl

; 203  : 		if( nIndex < 0 || nIndex >= m_nSize )

  00036	85 c9		 test	 ecx, ecx
  00038	0f 88 1f 02 00
	00		 js	 $LN25@GetItemSiz
  0003e	3b 8f 0c 01 00
	00		 cmp	 ecx, DWORD PTR [edi+268]
  00044	0f 8d 13 02 00
	00		 jge	 $LN25@GetItemSiz

; 205  : 		return m_pData[nIndex]; }

  0004a	8b 87 08 01 00
	00		 mov	 eax, DWORD PTR [edi+264]
  00050	8b 04 88	 mov	 eax, DWORD PTR [eax+ecx*4]

; 203  : 		if( nIndex < 0 || nIndex >= m_nSize )

  00053	85 db		 test	 ebx, ebx
  00055	0f 88 02 02 00
	00		 js	 $LN25@GetItemSiz
  0005b	3b 58 1c	 cmp	 ebx, DWORD PTR [eax+28]
  0005e	0f 8d f9 01 00
	00		 jge	 $LN25@GetItemSiz

; 205  : 		return m_pData[nIndex]; }

  00064	8b 40 18	 mov	 eax, DWORD PTR [eax+24]
; File C:\Program Files (x86)\Microsoft Visual Studio\2019\Community\VC\Tools\MSVC\14.29.30133\atlmfc\include\atltypes.h

; 312  : 	cx = initCX;

  00067	c7 45 a0 00 00
	00 00		 mov	 DWORD PTR _szImage$2$[ebp], 0

; 313  : 	cy = initCY;

  0006e	c7 45 9c 00 00
	00 00		 mov	 DWORD PTR _szImage$1$[ebp], 0

; 312  : 	cx = initCX;

  00075	c7 45 a4 00 00
	00 00		 mov	 DWORD PTR $T3[ebp], 0
; File C:\Program Files (x86)\Microsoft Visual Studio\2019\Community\VC\Tools\MSVC\14.29.30133\atlmfc\include\afxcoll.inl

; 205  : 		return m_pData[nIndex]; }

  0007c	8b 1c 98	 mov	 ebx, DWORD PTR [eax+ebx*4]
; File C:\Program Files (x86)\Microsoft Visual Studio\2019\Community\VC\Tools\MSVC\14.29.30133\atlmfc\include\atltypes.h

; 312  : 	cx = initCX;

  0007f	c7 06 00 00 00
	00		 mov	 DWORD PTR [esi], 0

; 313  : 	cy = initCY;

  00085	c7 46 04 00 00
	00 00		 mov	 DWORD PTR [esi+4], 0
; File C:\Program Files (x86)\Microsoft Visual Studio\2019\Community\VC\Tools\MSVC\14.29.30133\atlmfc\include\afxcoll.inl

; 205  : 		return m_pData[nIndex]; }

  0008c	89 5d a8	 mov	 DWORD PTR _pi$1$[ebp], ebx
; File D:\git\src\IBK\IBK_DRFN\ProjSrc\SrcDrfn\Chart\comparechart\control\GfxOutBarCtrl.cpp

; 1644 : 	if (pi->iImageIndex >= 0)

  0008f	83 7b 04 00	 cmp	 DWORD PTR [ebx+4], 0
  00093	8b 5d 14	 mov	 ebx, DWORD PTR _type$[ebp]
; File C:\Program Files (x86)\Microsoft Visual Studio\2019\Community\VC\Tools\MSVC\14.29.30133\atlmfc\include\atltypes.h

; 313  : 	cy = initCY;

  00096	c7 45 ec 00 00
	00 00		 mov	 DWORD PTR $T9[ebp], 0
; File D:\git\src\IBK\IBK_DRFN\ProjSrc\SrcDrfn\Chart\comparechart\control\GfxOutBarCtrl.cpp

; 1644 : 	if (pi->iImageIndex >= 0)

  0009d	7c 54		 jl	 SHORT $LN4@GetItemSiz

; 1645 : 	{
; 1646 : 		if (type != ircLabel)

  0009f	83 fb 02	 cmp	 ebx, 2
  000a2	74 4f		 je	 SHORT $LN4@GetItemSiz

; 184  : 	return dwFlags&fSmallIcon;

  000a4	8a 87 00 01 00
	00		 mov	 al, BYTE PTR [edi+256]
  000aa	24 01		 and	 al, 1
  000ac	88 45 98	 mov	 BYTE PTR $T2[ebp], al

; 1647 : 		{
; 1648 : 			CImageList * il = GetFolderImageList(iFolder, IsSmallIconView());

  000af	ff 75 98	 push	 DWORD PTR $T2[ebp]
  000b2	51		 push	 ecx
  000b3	8b cf		 mov	 ecx, edi
  000b5	e8 00 00 00 00	 call	 ?GetFolderImageList@CGfxOutBarCtrl@@QBEPAVCImageList@@H_N@Z ; CGfxOutBarCtrl::GetFolderImageList
  000ba	8b c8		 mov	 ecx, eax

; 1649 : 			ASSERT(il);
; 1650 : 			if (il)

  000bc	85 c9		 test	 ecx, ecx
  000be	74 33		 je	 SHORT $LN4@GetItemSiz
; File C:\Program Files (x86)\Microsoft Visual Studio\2019\Community\VC\Tools\MSVC\14.29.30133\atlmfc\include\afxwin1.inl

; 881  : 	{ ASSERT(m_hImageList != NULL); return ImageList_GetImageInfo(m_hImageList, nImage, pImageInfo); }

  000c0	8d 45 ac	 lea	 eax, DWORD PTR _ii$4[ebp]
  000c3	50		 push	 eax
  000c4	8b 45 a8	 mov	 eax, DWORD PTR _pi$1$[ebp]
  000c7	ff 70 04	 push	 DWORD PTR [eax+4]
  000ca	ff 71 04	 push	 DWORD PTR [ecx+4]
  000cd	ff 15 00 00 00
	00		 call	 DWORD PTR __imp__ImageList_GetImageInfo@12
; File C:\Program Files (x86)\Microsoft Visual Studio\2019\Community\VC\Tools\MSVC\14.29.30133\atlmfc\include\atltypes.h

; 548  : 	::CopyRect(this, &srcRect);

  000d3	8d 45 bc	 lea	 eax, DWORD PTR _ii$4[ebp+16]
  000d6	50		 push	 eax
  000d7	8d 45 d0	 lea	 eax, DWORD PTR $T6[ebp]
  000da	50		 push	 eax
  000db	ff 15 00 00 00
	00		 call	 DWORD PTR __imp__CopyRect@8

; 586  : 	return CSize(right - left, bottom - top);

  000e1	8b 4d dc	 mov	 ecx, DWORD PTR $T6[ebp+12]
  000e4	2b 4d d4	 sub	 ecx, DWORD PTR $T6[ebp+4]
  000e7	8b 45 d8	 mov	 eax, DWORD PTR $T6[ebp+8]
  000ea	2b 45 d0	 sub	 eax, DWORD PTR $T6[ebp]
  000ed	89 4d 9c	 mov	 DWORD PTR _szImage$1$[ebp], ecx
  000f0	89 45 a0	 mov	 DWORD PTR _szImage$2$[ebp], eax
$LN4@GetItemSiz:
; File D:\git\src\IBK\IBK_DRFN\ProjSrc\SrcDrfn\Chart\comparechart\control\GfxOutBarCtrl.cpp

; 1658 : 	if (pi->cItem)

  000f3	8b 45 a8	 mov	 eax, DWORD PTR _pi$1$[ebp]
  000f6	83 78 08 00	 cmp	 DWORD PTR [eax+8], 0
  000fa	0f 84 c1 00 00
	00		 je	 $LN6@GetItemSiz

; 1659 : 	{
; 1660 : 		if (type != ircIcon)

  00100	83 fb 01	 cmp	 ebx, 1
  00103	0f 84 b8 00 00
	00		 je	 $LN6@GetItemSiz

; 1661 : 		{
; 1662 : 			CClientDC dc(this);

  00109	57		 push	 edi
  0010a	8d 4d cc	 lea	 ecx, DWORD PTR _dc$5[ebp]
  0010d	e8 00 00 00 00	 call	 ??0CClientDC@@QAE@PAVCWnd@@@Z ; CClientDC::CClientDC

; 1663 : //			CFont * oft = (CFont *) dc.SelectObject(CFont::FromHandle((HFONT)GetStockObject(DEFAULT_GUI_FONT)));
; 1664 : 			CFont * oft = (CFont *) dc.SelectObject(&m_Font);

  00112	8d 87 54 01 00
	00		 lea	 eax, DWORD PTR [edi+340]
  00118	c7 45 fc 00 00
	00 00		 mov	 DWORD PTR __$EHRec$[ebp+8], 0
  0011f	50		 push	 eax
  00120	8d 4d cc	 lea	 ecx, DWORD PTR _dc$5[ebp]
  00123	e8 00 00 00 00	 call	 ?SelectObject@CDC@@UAEPAVCFont@@PAV2@@Z ; CDC::SelectObject

; 184  : 	return dwFlags&fSmallIcon;

  00128	f6 87 00 01 00
	00 01		 test	 BYTE PTR [edi+256], 1

; 1663 : //			CFont * oft = (CFont *) dc.SelectObject(CFont::FromHandle((HFONT)GetStockObject(DEFAULT_GUI_FONT)));
; 1664 : 			CFont * oft = (CFont *) dc.SelectObject(&m_Font);

  0012f	89 45 98	 mov	 DWORD PTR _oft$1$[ebp], eax

; 1665 : 			if (IsSmallIconView())

  00132	74 2b		 je	 SHORT $LN7@GetItemSiz

; 1667 : 				szLabel = dc.GetTextExtent(pi->cItem, lstrlen(pi->cItem));

  00134	8b 45 a8	 mov	 eax, DWORD PTR _pi$1$[ebp]
  00137	ff 70 08	 push	 DWORD PTR [eax+8]
  0013a	ff 15 00 00 00
	00		 call	 DWORD PTR __imp__lstrlenA@4
; File C:\Program Files (x86)\Microsoft Visual Studio\2019\Community\VC\Tools\MSVC\14.29.30133\atlmfc\include\afxwin1.inl

; 632  : 		VERIFY(::GetTextExtentPoint32(m_hAttribDC, lpszString, nCount, &size));

  00140	8d 4d e8	 lea	 ecx, DWORD PTR _size$8[ebp]
  00143	51		 push	 ecx
  00144	50		 push	 eax
  00145	8b 45 a8	 mov	 eax, DWORD PTR _pi$1$[ebp]
  00148	ff 70 08	 push	 DWORD PTR [eax+8]
  0014b	ff 75 d4	 push	 DWORD PTR _dc$5[ebp+8]
  0014e	ff 15 00 00 00
	00		 call	 DWORD PTR __imp__GetTextExtentPoint32A@16
; File D:\git\src\IBK\IBK_DRFN\ProjSrc\SrcDrfn\Chart\comparechart\control\GfxOutBarCtrl.cpp

; 1667 : 				szLabel = dc.GetTextExtent(pi->cItem, lstrlen(pi->cItem));

  00154	8b 45 e8	 mov	 eax, DWORD PTR _size$8[ebp]
  00157	89 45 a4	 mov	 DWORD PTR $T3[ebp], eax
  0015a	8b 45 ec	 mov	 eax, DWORD PTR _size$8[ebp+4]

; 1668 : 			}

  0015d	eb 4c		 jmp	 SHORT $LN70@GetItemSiz
$LN7@GetItemSiz:

; 1672 : 				GetInsideRect(rc);

  0015f	8d 45 e0	 lea	 eax, DWORD PTR _rc$7[ebp]
  00162	0f 57 c0	 xorps	 xmm0, xmm0
  00165	50		 push	 eax
  00166	8b cf		 mov	 ecx, edi
; File C:\Program Files (x86)\Microsoft Visual Studio\2019\Community\VC\Tools\MSVC\14.29.30133\atlmfc\include\atltypes.h

; 528  : 	left = 0;

  00168	0f 11 45 e0	 movups	 XMMWORD PTR _rc$7[ebp], xmm0
; File D:\git\src\IBK\IBK_DRFN\ProjSrc\SrcDrfn\Chart\comparechart\control\GfxOutBarCtrl.cpp

; 1672 : 				GetInsideRect(rc);

  0016c	e8 00 00 00 00	 call	 ?GetInsideRect@CGfxOutBarCtrl@@QBEXAAVCRect@@@Z ; CGfxOutBarCtrl::GetInsideRect

; 1673 : 				rc.bottom = rc.top;

  00171	8b 45 e4	 mov	 eax, DWORD PTR _rc$7[ebp+4]
  00174	89 45 ec	 mov	 DWORD PTR _rc$7[ebp+12], eax

; 1674 : 				dc.DrawText(pi->cItem, lstrlen(pi->cItem), rc, DT_CALCRECT|DT_CENTER|DT_WORDBREAK);

  00177	8b 45 a8	 mov	 eax, DWORD PTR _pi$1$[ebp]
  0017a	ff 70 08	 push	 DWORD PTR [eax+8]
  0017d	ff 15 00 00 00
	00		 call	 DWORD PTR __imp__lstrlenA@4
; File C:\Program Files (x86)\Microsoft Visual Studio\2019\Community\VC\Tools\MSVC\14.29.30133\atlmfc\include\afxwin1.inl

; 594  : 		return ::DrawText(m_hDC, lpszString, nCount, lpRect, nFormat); }

  00183	68 11 04 00 00	 push	 1041			; 00000411H
  00188	8d 4d e0	 lea	 ecx, DWORD PTR _rc$7[ebp]
  0018b	51		 push	 ecx
  0018c	50		 push	 eax
  0018d	8b 45 a8	 mov	 eax, DWORD PTR _pi$1$[ebp]
  00190	ff 70 08	 push	 DWORD PTR [eax+8]
  00193	ff 75 d0	 push	 DWORD PTR _dc$5[ebp+4]
  00196	ff 15 00 00 00
	00		 call	 DWORD PTR __imp__DrawTextA@20
; File C:\Program Files (x86)\Microsoft Visual Studio\2019\Community\VC\Tools\MSVC\14.29.30133\atlmfc\include\atltypes.h

; 586  : 	return CSize(right - left, bottom - top);

  0019c	8b 45 e8	 mov	 eax, DWORD PTR _rc$7[ebp+8]
  0019f	2b 45 e0	 sub	 eax, DWORD PTR _rc$7[ebp]
  001a2	89 45 a4	 mov	 DWORD PTR $T3[ebp], eax
  001a5	8b 45 ec	 mov	 eax, DWORD PTR _rc$7[ebp+12]
  001a8	2b 45 e4	 sub	 eax, DWORD PTR _rc$7[ebp+4]
$LN70@GetItemSiz:
; File D:\git\src\IBK\IBK_DRFN\ProjSrc\SrcDrfn\Chart\comparechart\control\GfxOutBarCtrl.cpp

; 1677 : 			dc.SelectObject(oft);

  001ab	ff 75 98	 push	 DWORD PTR _oft$1$[ebp]
  001ae	8d 4d cc	 lea	 ecx, DWORD PTR _dc$5[ebp]
  001b1	89 45 ec	 mov	 DWORD PTR $T9[ebp], eax
  001b4	e8 00 00 00 00	 call	 ?SelectObject@CDC@@UAEPAVCFont@@PAV2@@Z ; CDC::SelectObject

; 1678 : 		}

  001b9	8d 4d cc	 lea	 ecx, DWORD PTR _dc$5[ebp]
  001bc	e8 00 00 00 00	 call	 ??1CClientDC@@UAE@XZ	; CClientDC::~CClientDC
$LN6@GetItemSiz:

; 184  : 	return dwFlags&fSmallIcon;

  001c1	f6 87 00 01 00
	00 01		 test	 BYTE PTR [edi+256], 1

; 1679 : 	}
; 1680 : 	if (IsSmallIconView())

  001c8	74 29		 je	 SHORT $LN9@GetItemSiz

; 1681 : 	{
; 1682 : 		if (type == ircIcon) szAll = szImage;

  001ca	83 fb 01	 cmp	 ebx, 1
  001cd	74 29		 je	 SHORT $LN73@GetItemSiz

; 1683 : 		else if (type == ircLabel) szAll = szLabel;

  001cf	83 fb 02	 cmp	 ebx, 2
  001d2	74 36		 je	 SHORT $LN72@GetItemSiz

; 1684 : 		else if (type == ircAll) szAll = CSize(szImage.cx + szLabel.cx + xSmallIconLabelOffset, szImage.cy > szLabel.cy ? szImage.cy : szLabel.cy);

  001d4	83 fb 03	 cmp	 ebx, 3
  001d7	75 64		 jne	 SHORT $LN20@GetItemSiz
  001d9	8b 87 a8 00 00
	00		 mov	 eax, DWORD PTR [edi+168]
  001df	03 45 a4	 add	 eax, DWORD PTR $T3[ebp]
  001e2	03 45 a0	 add	 eax, DWORD PTR _szImage$2$[ebp]
  001e5	8b 4d ec	 mov	 ecx, DWORD PTR $T9[ebp]
  001e8	39 4d 9c	 cmp	 DWORD PTR _szImage$1$[ebp], ecx
  001eb	89 06		 mov	 DWORD PTR [esi], eax
  001ed	0f 4f 4d 9c	 cmovg	 ecx, DWORD PTR _szImage$1$[ebp]

; 1685 : 	}

  001f1	eb 47		 jmp	 SHORT $LN71@GetItemSiz
$LN9@GetItemSiz:

; 1686 : 	else
; 1687 : 	{
; 1688 : 		if (type == ircIcon) szAll = szImage;

  001f3	83 fb 01	 cmp	 ebx, 1
  001f6	75 0d		 jne	 SHORT $LN16@GetItemSiz
$LN73@GetItemSiz:

; 1693 : 		}
; 1694 : 	}
; 1695 : 	return szAll;

  001f8	8b 4d a0	 mov	 ecx, DWORD PTR _szImage$2$[ebp]
  001fb	8b 7d 9c	 mov	 edi, DWORD PTR _szImage$1$[ebp]
  001fe	89 0e		 mov	 DWORD PTR [esi], ecx
  00200	89 7e 04	 mov	 DWORD PTR [esi+4], edi
  00203	eb 38		 jmp	 SHORT $LN20@GetItemSiz
$LN16@GetItemSiz:

; 1689 : 		else if (type == ircLabel) szAll = szLabel;

  00205	83 fb 02	 cmp	 ebx, 2
  00208	75 0d		 jne	 SHORT $LN18@GetItemSiz
$LN72@GetItemSiz:

; 1693 : 		}
; 1694 : 	}
; 1695 : 	return szAll;

  0020a	8b 4d a4	 mov	 ecx, DWORD PTR $T3[ebp]
  0020d	8b 45 ec	 mov	 eax, DWORD PTR $T9[ebp]
  00210	89 0e		 mov	 DWORD PTR [esi], ecx
  00212	89 46 04	 mov	 DWORD PTR [esi+4], eax
  00215	eb 26		 jmp	 SHORT $LN20@GetItemSiz
$LN18@GetItemSiz:

; 1690 : 		else if (type == ircAll) 

  00217	83 fb 03	 cmp	 ebx, 3
  0021a	75 21		 jne	 SHORT $LN20@GetItemSiz

; 1691 : 		{
; 1692 : 			szAll = CSize(szImage.cx > szLabel.cx ? szImage.cx : szLabel.cx, szLabel.cy + szImage.cy + yLargeIconLabelOffset + yLargeIconSpacing);

  0021c	8b 55 a4	 mov	 edx, DWORD PTR $T3[ebp]
  0021f	39 55 a0	 cmp	 DWORD PTR _szImage$2$[ebp], edx
  00222	8b 8f b4 00 00
	00		 mov	 ecx, DWORD PTR [edi+180]
  00228	0f 4f 55 a0	 cmovg	 edx, DWORD PTR _szImage$2$[ebp]
  0022c	03 8f ac 00 00
	00		 add	 ecx, DWORD PTR [edi+172]
  00232	03 4d ec	 add	 ecx, DWORD PTR $T9[ebp]
  00235	03 4d 9c	 add	 ecx, DWORD PTR _szImage$1$[ebp]
  00238	89 16		 mov	 DWORD PTR [esi], edx
$LN71@GetItemSiz:

; 1693 : 		}
; 1694 : 	}
; 1695 : 	return szAll;

  0023a	89 4e 04	 mov	 DWORD PTR [esi+4], ecx
$LN20@GetItemSiz:
  0023d	8b c6		 mov	 eax, esi

; 1696 : }

  0023f	8b 4d f4	 mov	 ecx, DWORD PTR __$EHRec$[ebp]
  00242	64 89 0d 00 00
	00 00		 mov	 DWORD PTR fs:0, ecx
  00249	59		 pop	 ecx
  0024a	5f		 pop	 edi
  0024b	5e		 pop	 esi
  0024c	5b		 pop	 ebx
  0024d	8b 4d f0	 mov	 ecx, DWORD PTR __$ArrayPad$[ebp]
  00250	33 cd		 xor	 ecx, ebp
  00252	e8 00 00 00 00	 call	 @__security_check_cookie@4
  00257	8b e5		 mov	 esp, ebp
  00259	5d		 pop	 ebp
  0025a	c2 10 00	 ret	 16			; 00000010H
$LN25@GetItemSiz:
; File C:\Program Files (x86)\Microsoft Visual Studio\2019\Community\VC\Tools\MSVC\14.29.30133\atlmfc\include\afxcoll.inl

; 204  : 			AfxThrowInvalidArgException();

  0025d	e8 00 00 00 00	 call	 ?AfxThrowInvalidArgException@@YGXXZ ; AfxThrowInvalidArgException
$LN69@GetItemSiz:
  00262	cc		 int	 3
_TEXT	ENDS
;	COMDAT text$x
text$x	SEGMENT
__unwindfunclet$?GetItemSize@CGfxOutBarCtrl@@QAE?AVCSize@@HHH@Z$0:
  00000	8d 4d cc	 lea	 ecx, DWORD PTR _dc$5[ebp]
  00003	e9 00 00 00 00	 jmp	 ??1CClientDC@@UAE@XZ	; CClientDC::~CClientDC
  00008	cc		 int	 3
  00009	cc		 int	 3
  0000a	cc		 int	 3
  0000b	cc		 int	 3
  0000c	cc		 int	 3
__ehhandler$?GetItemSize@CGfxOutBarCtrl@@QAE?AVCSize@@HHH@Z:
  0000d	90		 npad	 1
  0000e	90		 npad	 1
  0000f	8b 54 24 08	 mov	 edx, DWORD PTR [esp+8]
  00013	8d 42 0c	 lea	 eax, DWORD PTR [edx+12]
  00016	8b 4a 94	 mov	 ecx, DWORD PTR [edx-108]
  00019	33 c8		 xor	 ecx, eax
  0001b	e8 00 00 00 00	 call	 @__security_check_cookie@4
  00020	8b 4a fc	 mov	 ecx, DWORD PTR [edx-4]
  00023	33 c8		 xor	 ecx, eax
  00025	e8 00 00 00 00	 call	 @__security_check_cookie@4
  0002a	b8 00 00 00 00	 mov	 eax, OFFSET __ehfuncinfo$?GetItemSize@CGfxOutBarCtrl@@QAE?AVCSize@@HHH@Z
  0002f	e9 00 00 00 00	 jmp	 ___CxxFrameHandler3
text$x	ENDS
?GetItemSize@CGfxOutBarCtrl@@QAE?AVCSize@@HHH@Z ENDP	; CGfxOutBarCtrl::GetItemSize
; Function compile flags: /Ogtp
; File D:\git\src\IBK\IBK_DRFN\ProjSrc\SrcDrfn\Chart\comparechart\control\GfxOutBarCtrl.cpp
; File C:\Program Files (x86)\Microsoft Visual Studio\2019\Community\VC\Tools\MSVC\14.29.30133\atlmfc\include\afxcoll.inl
; File D:\git\src\IBK\IBK_DRFN\ProjSrc\SrcDrfn\Chart\comparechart\control\GfxOutBarCtrl.cpp
; File C:\Program Files (x86)\Microsoft Visual Studio\2019\Community\VC\Tools\MSVC\14.29.30133\atlmfc\include\afxcoll.inl
; File D:\git\src\IBK\IBK_DRFN\ProjSrc\SrcDrfn\Chart\comparechart\control\GfxOutBarCtrl.cpp
; File C:\Program Files (x86)\Microsoft Visual Studio\2019\Community\VC\Tools\MSVC\14.29.30133\atlmfc\include\afxcoll.inl
; File D:\git\src\IBK\IBK_DRFN\ProjSrc\SrcDrfn\Chart\comparechart\control\GfxOutBarCtrl.cpp
;	COMDAT ?GetFolderImageList@CGfxOutBarCtrl@@QBEPAVCImageList@@H_N@Z
_TEXT	SEGMENT
_index$ = 8						; size = 4
_bSmall$ = 12						; size = 1
?GetFolderImageList@CGfxOutBarCtrl@@QBEPAVCImageList@@H_N@Z PROC ; CGfxOutBarCtrl::GetFolderImageList, COMDAT
; _this$ = ecx

; 1699 : {

  00000	55		 push	 ebp
  00001	8b ec		 mov	 ebp, esp
; File C:\Program Files (x86)\Microsoft Visual Studio\2019\Community\VC\Tools\MSVC\14.29.30133\atlmfc\include\afxcoll.inl

; 203  : 		if( nIndex < 0 || nIndex >= m_nSize )

  00003	8b 55 08	 mov	 edx, DWORD PTR _index$[ebp]
  00006	85 d2		 test	 edx, edx
  00008	78 39		 js	 SHORT $LN10@GetFolderI
  0000a	3b 91 0c 01 00
	00		 cmp	 edx, DWORD PTR [ecx+268]
  00010	7d 31		 jge	 SHORT $LN10@GetFolderI
; File D:\git\src\IBK\IBK_DRFN\ProjSrc\SrcDrfn\Chart\comparechart\control\GfxOutBarCtrl.cpp

; 1702 : 	if (bSmall)

  00012	80 7d 0c 00	 cmp	 BYTE PTR _bSmall$[ebp], 0
; File C:\Program Files (x86)\Microsoft Visual Studio\2019\Community\VC\Tools\MSVC\14.29.30133\atlmfc\include\afxcoll.inl

; 205  : 		return m_pData[nIndex]; }

  00016	8b 81 08 01 00
	00		 mov	 eax, DWORD PTR [ecx+264]
  0001c	8b 04 90	 mov	 eax, DWORD PTR [eax+edx*4]
; File D:\git\src\IBK\IBK_DRFN\ProjSrc\SrcDrfn\Chart\comparechart\control\GfxOutBarCtrl.cpp

; 1702 : 	if (bSmall)

  0001f	74 11		 je	 SHORT $LN4@GetFolderI

; 1703 : 	{
; 1704 : 		if (pbf->pSmallImageList) return pbf->pSmallImageList; else return pSmallImageList;

  00021	8b 40 10	 mov	 eax, DWORD PTR [eax+16]
  00024	85 c0		 test	 eax, eax
  00026	75 06		 jne	 SHORT $LN6@GetFolderI
  00028	8b 81 3c 01 00
	00		 mov	 eax, DWORD PTR [ecx+316]
$LN6@GetFolderI:

; 1707 : }

  0002e	5d		 pop	 ebp
  0002f	c2 08 00	 ret	 8
$LN4@GetFolderI:

; 1705 : 	}
; 1706 : 	if (pbf->pLargeImageList) return pbf->pLargeImageList; else return pLargeImageList;

  00032	8b 40 0c	 mov	 eax, DWORD PTR [eax+12]
  00035	85 c0		 test	 eax, eax
  00037	75 f5		 jne	 SHORT $LN6@GetFolderI
  00039	8b 81 38 01 00
	00		 mov	 eax, DWORD PTR [ecx+312]

; 1707 : }

  0003f	5d		 pop	 ebp
  00040	c2 08 00	 ret	 8
$LN10@GetFolderI:
; File C:\Program Files (x86)\Microsoft Visual Studio\2019\Community\VC\Tools\MSVC\14.29.30133\atlmfc\include\afxcoll.inl

; 204  : 			AfxThrowInvalidArgException();

  00043	e8 00 00 00 00	 call	 ?AfxThrowInvalidArgException@@YGXXZ ; AfxThrowInvalidArgException
$LN13@GetFolderI:
  00048	cc		 int	 3
?GetFolderImageList@CGfxOutBarCtrl@@QBEPAVCImageList@@H_N@Z ENDP ; CGfxOutBarCtrl::GetFolderImageList
_TEXT	ENDS
; Function compile flags: /Ogtp
; File D:\git\src\IBK\IBK_DRFN\ProjSrc\SrcDrfn\Chart\comparechart\control\GfxOutBarCtrl.cpp
; File C:\Program Files (x86)\Microsoft Visual Studio\2019\Community\VC\Tools\MSVC\14.29.30133\atlmfc\include\afxcoll.inl
; File D:\git\src\IBK\IBK_DRFN\ProjSrc\SrcDrfn\Chart\comparechart\control\GfxOutBarCtrl.cpp
; File C:\Program Files (x86)\Microsoft Visual Studio\2019\Community\VC\Tools\MSVC\14.29.30133\atlmfc\include\afxcoll.inl
; File D:\git\src\IBK\IBK_DRFN\ProjSrc\SrcDrfn\Chart\comparechart\control\GfxOutBarCtrl.cpp
; File C:\Program Files (x86)\Microsoft Visual Studio\2019\Community\VC\Tools\MSVC\14.29.30133\atlmfc\include\afxcoll.inl
; File D:\git\src\IBK\IBK_DRFN\ProjSrc\SrcDrfn\Chart\comparechart\control\GfxOutBarCtrl.cpp
; File C:\Program Files (x86)\Microsoft Visual Studio\2019\Community\VC\Tools\MSVC\14.29.30133\atlmfc\include\afxwin1.inl
; File C:\Program Files (x86)\Microsoft Visual Studio\2019\Community\VC\Tools\MSVC\14.29.30133\atlmfc\include\atltypes.h
; File D:\git\src\IBK\IBK_DRFN\ProjSrc\SrcDrfn\Chart\comparechart\control\GfxOutBarCtrl.cpp
; File C:\Program Files (x86)\Microsoft Visual Studio\2019\Community\VC\Tools\MSVC\14.29.30133\atlmfc\include\atltypes.h
; File D:\git\src\IBK\IBK_DRFN\ProjSrc\SrcDrfn\Chart\comparechart\control\GfxOutBarCtrl.cpp
; File C:\Program Files (x86)\Microsoft Visual Studio\2019\Community\VC\Tools\MSVC\14.29.30133\atlmfc\include\afxwin1.inl
; File D:\git\src\IBK\IBK_DRFN\ProjSrc\SrcDrfn\Chart\comparechart\control\GfxOutBarCtrl.cpp
; File C:\Program Files (x86)\Microsoft Visual Studio\2019\Community\VC\Tools\MSVC\14.29.30133\atlmfc\include\afxwin1.inl
; File D:\git\src\IBK\IBK_DRFN\ProjSrc\SrcDrfn\Chart\comparechart\control\GfxOutBarCtrl.cpp
; File C:\Program Files (x86)\Microsoft Visual Studio\2019\Community\VC\Tools\MSVC\14.29.30133\atlmfc\include\atlsimpstr.h
; File C:\Program Files (x86)\Microsoft Visual Studio\2019\Community\VC\Tools\MSVC\14.29.30133\atlmfc\include\afxwin1.inl
; File D:\git\src\IBK\IBK_DRFN\ProjSrc\SrcDrfn\Chart\comparechart\control\GfxOutBarCtrl.cpp
; File C:\Program Files (x86)\Microsoft Visual Studio\2019\Community\VC\Tools\MSVC\14.29.30133\atlmfc\include\afxwin1.inl
; File D:\git\src\IBK\IBK_DRFN\ProjSrc\SrcDrfn\Chart\comparechart\control\GfxOutBarCtrl.cpp
; File C:\Program Files (x86)\Microsoft Visual Studio\2019\Community\VC\Tools\MSVC\14.29.30133\atlmfc\include\afxwin1.inl
; File C:\Program Files (x86)\Microsoft Visual Studio\2019\Community\VC\Tools\MSVC\14.29.30133\atlmfc\include\atltypes.h
; File D:\git\src\IBK\IBK_DRFN\ProjSrc\SrcDrfn\Chart\comparechart\control\GfxOutBarCtrl.cpp
; File C:\Program Files (x86)\Microsoft Visual Studio\2019\Community\VC\Tools\MSVC\14.29.30133\atlmfc\include\afxwin1.inl
; File D:\git\src\IBK\IBK_DRFN\ProjSrc\SrcDrfn\Chart\comparechart\control\GfxOutBarCtrl.cpp
; File C:\Program Files (x86)\Microsoft Visual Studio\2019\Community\VC\Tools\MSVC\14.29.30133\atlmfc\include\afxwin1.inl
; File D:\git\src\IBK\IBK_DRFN\ProjSrc\SrcDrfn\Chart\comparechart\control\GfxOutBarCtrl.cpp
; File C:\Program Files (x86)\Microsoft Visual Studio\2019\Community\VC\Tools\MSVC\14.29.30133\atlmfc\include\atltypes.h
; File D:\git\src\IBK\IBK_DRFN\ProjSrc\SrcDrfn\Chart\comparechart\control\GfxOutBarCtrl.cpp
; File C:\Program Files (x86)\Microsoft Visual Studio\2019\Community\VC\Tools\MSVC\14.29.30133\atlmfc\include\atltypes.h
; File D:\git\src\IBK\IBK_DRFN\ProjSrc\SrcDrfn\Chart\comparechart\control\GfxOutBarCtrl.cpp
; File C:\Program Files (x86)\Microsoft Visual Studio\2019\Community\VC\Tools\MSVC\14.29.30133\atlmfc\include\afxcoll.inl
; File D:\git\src\IBK\IBK_DRFN\ProjSrc\SrcDrfn\Chart\comparechart\control\GfxOutBarCtrl.cpp
;	COMDAT ?DrawItem@CGfxOutBarCtrl@@QAEXPAVCDC@@HVCRect@@H_N@Z
_TEXT	SEGMENT
_obk$1$ = -96						; size = 4
_index$GSCopy$1$ = -92					; size = 4
_oft$1$ = -88						; size = 4
_ocr$1$ = -84						; size = 4
_ima$1$ = -80						; size = 4
tv894 = -76						; size = 4
tv891 = -76						; size = 4
$T6 = -76						; size = 4
_pi$1$ = -72						; size = 4
$T7 = -65						; size = 1
_ii$8 = -64						; size = 32
_ii$9 = -64						; size = 32
_rc$10 = -32						; size = 16
$T11 = -32						; size = 16
$T12 = -32						; size = 16
__$ArrayPad$ = -16					; size = 4
__$EHRec$ = -12						; size = 12
_pDC$ = 8						; size = 4
_iFolder$ = 12						; size = 4
_rc$ = 16						; size = 16
_index$ = 32						; size = 4
_bOnlyImage$ = 36					; size = 1
?DrawItem@CGfxOutBarCtrl@@QAEXPAVCDC@@HVCRect@@H_N@Z PROC ; CGfxOutBarCtrl::DrawItem, COMDAT
; _this$ = ecx

; 1710 : {

  00000	55		 push	 ebp
  00001	8b ec		 mov	 ebp, esp
  00003	6a ff		 push	 -1
  00005	68 00 00 00 00	 push	 __ehhandler$?DrawItem@CGfxOutBarCtrl@@QAEXPAVCDC@@HVCRect@@H_N@Z
  0000a	64 a1 00 00 00
	00		 mov	 eax, DWORD PTR fs:0
  00010	50		 push	 eax
  00011	83 ec 54	 sub	 esp, 84			; 00000054H
  00014	a1 00 00 00 00	 mov	 eax, DWORD PTR ___security_cookie
  00019	33 c5		 xor	 eax, ebp
  0001b	89 45 f0	 mov	 DWORD PTR __$ArrayPad$[ebp], eax
  0001e	53		 push	 ebx
  0001f	56		 push	 esi
  00020	57		 push	 edi
  00021	50		 push	 eax
  00022	8d 45 f4	 lea	 eax, DWORD PTR __$EHRec$[ebp]
  00025	64 a3 00 00 00
	00		 mov	 DWORD PTR fs:0, eax
  0002b	8b f9		 mov	 edi, ecx

; 184  : 	return dwFlags&fSmallIcon;

  0002d	8a 87 00 01 00
	00		 mov	 al, BYTE PTR [edi+256]

; 1710 : {

  00033	8b 55 0c	 mov	 edx, DWORD PTR _iFolder$[ebp]

; 184  : 	return dwFlags&fSmallIcon;

  00036	24 01		 and	 al, 1

; 1710 : {

  00038	8b 4d 20	 mov	 ecx, DWORD PTR _index$[ebp]
  0003b	8b 5d 08	 mov	 ebx, DWORD PTR _pDC$[ebp]
  0003e	89 4d a4	 mov	 DWORD PTR _index$GSCopy$1$[ebp], ecx

; 184  : 	return dwFlags&fSmallIcon;

  00041	88 45 bf	 mov	 BYTE PTR $T7[ebp], al
; File C:\Program Files (x86)\Microsoft Visual Studio\2019\Community\VC\Tools\MSVC\14.29.30133\atlmfc\include\afxcoll.inl

; 203  : 		if( nIndex < 0 || nIndex >= m_nSize )

  00044	85 d2		 test	 edx, edx
  00046	0f 88 8c 02 00
	00		 js	 $LN24@DrawItem
  0004c	3b 97 0c 01 00
	00		 cmp	 edx, DWORD PTR [edi+268]
  00052	0f 8d 80 02 00
	00		 jge	 $LN24@DrawItem
; File D:\git\src\IBK\IBK_DRFN\ProjSrc\SrcDrfn\Chart\comparechart\control\GfxOutBarCtrl.cpp

; 1702 : 	if (bSmall)

  00058	80 7d bf 00	 cmp	 BYTE PTR $T7[ebp], 0
; File C:\Program Files (x86)\Microsoft Visual Studio\2019\Community\VC\Tools\MSVC\14.29.30133\atlmfc\include\afxcoll.inl

; 205  : 		return m_pData[nIndex]; }

  0005c	8b 87 08 01 00
	00		 mov	 eax, DWORD PTR [edi+264]
  00062	8b 04 90	 mov	 eax, DWORD PTR [eax+edx*4]
; File D:\git\src\IBK\IBK_DRFN\ProjSrc\SrcDrfn\Chart\comparechart\control\GfxOutBarCtrl.cpp

; 1702 : 	if (bSmall)

  00065	74 12		 je	 SHORT $LN18@DrawItem

; 1703 : 	{
; 1704 : 		if (pbf->pSmallImageList) return pbf->pSmallImageList; else return pSmallImageList;

  00067	8b 70 10	 mov	 esi, DWORD PTR [eax+16]
  0006a	89 75 b0	 mov	 DWORD PTR _ima$1$[ebp], esi
  0006d	85 f6		 test	 esi, esi
  0006f	75 1b		 jne	 SHORT $LN20@DrawItem
  00071	8b b7 3c 01 00
	00		 mov	 esi, DWORD PTR [edi+316]
  00077	eb 10		 jmp	 SHORT $LN102@DrawItem
$LN18@DrawItem:

; 1705 : 	}
; 1706 : 	if (pbf->pLargeImageList) return pbf->pLargeImageList; else return pLargeImageList;

  00079	8b 70 0c	 mov	 esi, DWORD PTR [eax+12]
  0007c	89 75 b0	 mov	 DWORD PTR _ima$1$[ebp], esi
  0007f	85 f6		 test	 esi, esi
  00081	75 09		 jne	 SHORT $LN20@DrawItem
  00083	8b b7 38 01 00
	00		 mov	 esi, DWORD PTR [edi+312]
$LN102@DrawItem:
; File C:\Program Files (x86)\Microsoft Visual Studio\2019\Community\VC\Tools\MSVC\14.29.30133\atlmfc\include\afxcoll.inl

; 203  : 		if( nIndex < 0 || nIndex >= m_nSize )

  00089	89 75 b0	 mov	 DWORD PTR _ima$1$[ebp], esi
$LN20@DrawItem:
  0008c	85 c9		 test	 ecx, ecx
  0008e	0f 88 44 02 00
	00		 js	 $LN24@DrawItem
  00094	3b 48 1c	 cmp	 ecx, DWORD PTR [eax+28]
  00097	0f 8d 3b 02 00
	00		 jge	 $LN24@DrawItem

; 205  : 		return m_pData[nIndex]; }

  0009d	8b 40 18	 mov	 eax, DWORD PTR [eax+24]
  000a0	8b 04 88	 mov	 eax, DWORD PTR [eax+ecx*4]
  000a3	89 45 b8	 mov	 DWORD PTR _pi$1$[ebp], eax
; File D:\git\src\IBK\IBK_DRFN\ProjSrc\SrcDrfn\Chart\comparechart\control\GfxOutBarCtrl.cpp

; 1723 : 	if(index == iLastSel && iFolder == iSelFolder)

  000a6	3b 8f f4 00 00
	00		 cmp	 ecx, DWORD PTR [edi+244]
  000ac	75 27		 jne	 SHORT $LN99@DrawItem
  000ae	3b 97 34 01 00
	00		 cmp	 edx, DWORD PTR [edi+308]
  000b4	75 1f		 jne	 SHORT $LN99@DrawItem

; 1724 : 	{
; 1725 : //		oft = (CFont *) pDC->SelectObject(CFont::FromHandle((HFONT)GetStockObject(DEFAULT_GUI_FONT)));
; 1726 : 		oft = (CFont *) pDC->SelectObject(&m_Font);

  000b6	8b 13		 mov	 edx, DWORD PTR [ebx]
  000b8	8d 87 54 01 00
	00		 lea	 eax, DWORD PTR [edi+340]
  000be	50		 push	 eax
  000bf	8b cb		 mov	 ecx, ebx
  000c1	ff 52 30	 call	 DWORD PTR [edx+48]

; 1727 : 		ocr = pDC->SetTextColor(RGB(255, 0, 0));

  000c4	8b 13		 mov	 edx, DWORD PTR [ebx]
  000c6	8b cb		 mov	 ecx, ebx
  000c8	68 ff 00 00 00	 push	 255			; 000000ffH
  000cd	89 45 a8	 mov	 DWORD PTR _oft$1$[ebp], eax
  000d0	ff 52 38	 call	 DWORD PTR [edx+56]

; 1728 : 	}

  000d3	eb 1e		 jmp	 SHORT $LN103@DrawItem
$LN99@DrawItem:

; 1729 : 	else
; 1730 : 	{
; 1731 : //		oft = (CFont *) pDC->SelectObject(CFont::FromHandle((HFONT)GetStockObject(DEFAULT_GUI_FONT)));
; 1732 : 		oft = (CFont *) pDC->SelectObject(&m_Font);

  000d5	8b 13		 mov	 edx, DWORD PTR [ebx]
  000d7	8d 87 54 01 00
	00		 lea	 eax, DWORD PTR [edi+340]
  000dd	50		 push	 eax
  000de	8b cb		 mov	 ecx, ebx
  000e0	ff 52 30	 call	 DWORD PTR [edx+48]

; 1733 : 		ocr = pDC->SetTextColor(crTextColor);

  000e3	ff b7 88 00 00
	00		 push	 DWORD PTR [edi+136]
  000e9	89 45 a8	 mov	 DWORD PTR _oft$1$[ebp], eax
  000ec	8b cb		 mov	 ecx, ebx
  000ee	8b 03		 mov	 eax, DWORD PTR [ebx]
  000f0	ff 50 38	 call	 DWORD PTR [eax+56]
$LN103@DrawItem:

; 1734 : 	}
; 1735 : 
; 1736 : 	int obk = pDC->SetBkMode(TRANSPARENT);

  000f3	6a 01		 push	 1
  000f5	8b cb		 mov	 ecx, ebx
  000f7	89 45 ac	 mov	 DWORD PTR _ocr$1$[ebp], eax
  000fa	e8 00 00 00 00	 call	 ?SetBkMode@CDC@@QAEHH@Z	; CDC::SetBkMode

; 184  : 	return dwFlags&fSmallIcon;

  000ff	8a 8f 00 01 00
	00		 mov	 cl, BYTE PTR [edi+256]
  00105	80 e1 01	 and	 cl, 1

; 1734 : 	}
; 1735 : 
; 1736 : 	int obk = pDC->SetBkMode(TRANSPARENT);

  00108	89 45 a0	 mov	 DWORD PTR _obk$1$[ebp], eax

; 1739 : 	{
; 1740 : 		if (ima)

  0010b	85 f6		 test	 esi, esi
  0010d	0f 84 30 01 00
	00		 je	 $LN9@DrawItem

; 1737 : 
; 1738 : 	if (IsSmallIconView())

  00113	8d 45 c0	 lea	 eax, DWORD PTR _ii$9[ebp]
  00116	50		 push	 eax
  00117	8b 45 b8	 mov	 eax, DWORD PTR _pi$1$[ebp]
  0011a	ff 70 04	 push	 DWORD PTR [eax+4]
  0011d	ff 76 04	 push	 DWORD PTR [esi+4]
  00120	84 c9		 test	 cl, cl
  00122	0f 84 a0 00 00
	00		 je	 $LN4@DrawItem
; File C:\Program Files (x86)\Microsoft Visual Studio\2019\Community\VC\Tools\MSVC\14.29.30133\atlmfc\include\afxwin1.inl

; 881  : 	{ ASSERT(m_hImageList != NULL); return ImageList_GetImageInfo(m_hImageList, nImage, pImageInfo); }

  00128	ff 15 00 00 00
	00		 call	 DWORD PTR __imp__ImageList_GetImageInfo@12
; File C:\Program Files (x86)\Microsoft Visual Studio\2019\Community\VC\Tools\MSVC\14.29.30133\atlmfc\include\atltypes.h

; 548  : 	::CopyRect(this, &srcRect);

  0012e	8d 45 d0	 lea	 eax, DWORD PTR _ii$9[ebp+16]
  00131	50		 push	 eax
  00132	8d 45 e0	 lea	 eax, DWORD PTR $T12[ebp]
  00135	50		 push	 eax
  00136	ff 15 00 00 00
	00		 call	 DWORD PTR __imp__CopyRect@8

; 586  : 	return CSize(right - left, bottom - top);

  0013c	8b 45 e8	 mov	 eax, DWORD PTR $T12[ebp+8]
  0013f	2b 45 e0	 sub	 eax, DWORD PTR $T12[ebp]
  00142	8b 4d ec	 mov	 ecx, DWORD PTR $T12[ebp+12]
  00145	2b 4d e4	 sub	 ecx, DWORD PTR $T12[ebp+4]
; File D:\git\src\IBK\IBK_DRFN\ProjSrc\SrcDrfn\Chart\comparechart\control\GfxOutBarCtrl.cpp

; 1746 : 			pt.x = rc.left + 2;

  00148	8b 75 10	 mov	 esi, DWORD PTR _rc$[ebp]
; File C:\Program Files (x86)\Microsoft Visual Studio\2019\Community\VC\Tools\MSVC\14.29.30133\atlmfc\include\atltypes.h

; 586  : 	return CSize(right - left, bottom - top);

  0014b	89 45 b4	 mov	 DWORD PTR tv894[ebp], eax
; File D:\git\src\IBK\IBK_DRFN\ProjSrc\SrcDrfn\Chart\comparechart\control\GfxOutBarCtrl.cpp

; 1746 : 			pt.x = rc.left + 2;

  0014e	83 c6 02	 add	 esi, 2

; 1747 : 			pt.y = rc.top + (rc.Height() - szImage.cy) / 2;

  00151	8b 45 1c	 mov	 eax, DWORD PTR _rc$[ebp+12]
  00154	2b c1		 sub	 eax, ecx
  00156	2b 45 14	 sub	 eax, DWORD PTR _rc$[ebp+4]
  00159	99		 cdq
  0015a	2b c2		 sub	 eax, edx
; File C:\Program Files (x86)\Microsoft Visual Studio\2019\Community\VC\Tools\MSVC\14.29.30133\atlmfc\include\afxwin1.inl

; 871  : 	{ ASSERT(m_hImageList != NULL); ASSERT(pDC != NULL); return ImageList_Draw(m_hImageList, nImage, pDC->GetSafeHdc(), pt.x, pt.y, nStyle); }

  0015c	6a 00		 push	 0
; File D:\git\src\IBK\IBK_DRFN\ProjSrc\SrcDrfn\Chart\comparechart\control\GfxOutBarCtrl.cpp

; 1747 : 			pt.y = rc.top + (rc.Height() - szImage.cy) / 2;

  0015e	d1 f8		 sar	 eax, 1
  00160	03 45 14	 add	 eax, DWORD PTR _rc$[ebp+4]
; File C:\Program Files (x86)\Microsoft Visual Studio\2019\Community\VC\Tools\MSVC\14.29.30133\atlmfc\include\afxwin1.inl

; 871  : 	{ ASSERT(m_hImageList != NULL); ASSERT(pDC != NULL); return ImageList_Draw(m_hImageList, nImage, pDC->GetSafeHdc(), pt.x, pt.y, nStyle); }

  00163	50		 push	 eax
  00164	8b 45 b0	 mov	 eax, DWORD PTR _ima$1$[ebp]
  00167	56		 push	 esi
  00168	ff 73 04	 push	 DWORD PTR [ebx+4]
  0016b	8b 75 b8	 mov	 esi, DWORD PTR _pi$1$[ebp]
  0016e	ff 76 04	 push	 DWORD PTR [esi+4]
  00171	ff 70 04	 push	 DWORD PTR [eax+4]
  00174	ff 15 00 00 00
	00		 call	 DWORD PTR __imp__ImageList_Draw@24
; File D:\git\src\IBK\IBK_DRFN\ProjSrc\SrcDrfn\Chart\comparechart\control\GfxOutBarCtrl.cpp

; 1750 : 			if (!bOnlyImage)

  0017a	80 7d 24 00	 cmp	 BYTE PTR _bOnlyImage$[ebp], 0
  0017e	0f 85 bf 00 00
	00		 jne	 $LN9@DrawItem

; 1751 : 			{
; 1752 : 				rc.left += szImage.cx + xSmallIconLabelOffset;

  00184	8b 87 a8 00 00
	00		 mov	 eax, DWORD PTR [edi+168]

; 1753 : 				pDC->TextOut(rc.left, rc.top, CString(pi->cItem));

  0018a	8d 4d b4	 lea	 ecx, DWORD PTR $T6[ebp]
  0018d	03 45 b4	 add	 eax, DWORD PTR tv894[ebp]
  00190	01 45 10	 add	 DWORD PTR _rc$[ebp], eax
  00193	ff 76 08	 push	 DWORD PTR [esi+8]
  00196	ff 15 00 00 00
	00		 call	 DWORD PTR __imp_??0?$CStringT@DV?$StrTraitMFC_DLL@DV?$ChTraitsCRT@D@ATL@@@@@ATL@@QAE@PBD@Z
; File C:\Program Files (x86)\Microsoft Visual Studio\2019\Community\VC\Tools\MSVC\14.29.30133\atlmfc\include\atlsimpstr.h

; 519  : 		return( GetData()->nDataLength );

  0019c	8b 00		 mov	 eax, DWORD PTR [eax]
; File C:\Program Files (x86)\Microsoft Visual Studio\2019\Community\VC\Tools\MSVC\14.29.30133\atlmfc\include\afxwin1.inl

; 574  : 	{ ASSERT(m_hDC != NULL); return TextOut(x, y, (LPCTSTR)str, (int)str.GetLength()); } // call virtual

  0019e	8b cb		 mov	 ecx, ebx
  001a0	8b 13		 mov	 edx, DWORD PTR [ebx]
; File D:\git\src\IBK\IBK_DRFN\ProjSrc\SrcDrfn\Chart\comparechart\control\GfxOutBarCtrl.cpp

; 1753 : 				pDC->TextOut(rc.left, rc.top, CString(pi->cItem));

  001a2	c7 45 fc 00 00
	00 00		 mov	 DWORD PTR __$EHRec$[ebp+8], 0
; File C:\Program Files (x86)\Microsoft Visual Studio\2019\Community\VC\Tools\MSVC\14.29.30133\atlmfc\include\afxwin1.inl

; 574  : 	{ ASSERT(m_hDC != NULL); return TextOut(x, y, (LPCTSTR)str, (int)str.GetLength()); } // call virtual

  001a9	ff 70 f4	 push	 DWORD PTR [eax-12]
  001ac	50		 push	 eax
  001ad	ff 75 14	 push	 DWORD PTR _rc$[ebp+4]
  001b0	ff 75 10	 push	 DWORD PTR _rc$[ebp]
  001b3	ff 52 64	 call	 DWORD PTR [edx+100]
; File D:\git\src\IBK\IBK_DRFN\ProjSrc\SrcDrfn\Chart\comparechart\control\GfxOutBarCtrl.cpp

; 1753 : 				pDC->TextOut(rc.left, rc.top, CString(pi->cItem));

  001b6	8d 4d b4	 lea	 ecx, DWORD PTR $T6[ebp]
  001b9	c7 45 fc ff ff
	ff ff		 mov	 DWORD PTR __$EHRec$[ebp+8], -1
  001c0	ff 15 00 00 00
	00		 call	 DWORD PTR __imp_??1?$CStringT@DV?$StrTraitMFC_DLL@DV?$ChTraitsCRT@D@ATL@@@@@ATL@@QAE@XZ

; 1754 : 			}
; 1755 : 			
; 1756 : 		}
; 1757 : 	}

  001c6	eb 7b		 jmp	 SHORT $LN9@DrawItem
$LN4@DrawItem:
; File C:\Program Files (x86)\Microsoft Visual Studio\2019\Community\VC\Tools\MSVC\14.29.30133\atlmfc\include\afxwin1.inl

; 881  : 	{ ASSERT(m_hImageList != NULL); return ImageList_GetImageInfo(m_hImageList, nImage, pImageInfo); }

  001c8	ff 15 00 00 00
	00		 call	 DWORD PTR __imp__ImageList_GetImageInfo@12
; File C:\Program Files (x86)\Microsoft Visual Studio\2019\Community\VC\Tools\MSVC\14.29.30133\atlmfc\include\atltypes.h

; 548  : 	::CopyRect(this, &srcRect);

  001ce	8d 45 d0	 lea	 eax, DWORD PTR _ii$8[ebp+16]
  001d1	50		 push	 eax
  001d2	8d 45 e0	 lea	 eax, DWORD PTR $T11[ebp]
  001d5	50		 push	 eax
  001d6	ff 15 00 00 00
	00		 call	 DWORD PTR __imp__CopyRect@8

; 586  : 	return CSize(right - left, bottom - top);

  001dc	8b 45 ec	 mov	 eax, DWORD PTR $T11[ebp+12]
  001df	2b 45 e4	 sub	 eax, DWORD PTR $T11[ebp+4]
  001e2	89 45 b4	 mov	 DWORD PTR tv891[ebp], eax
; File D:\git\src\IBK\IBK_DRFN\ProjSrc\SrcDrfn\Chart\comparechart\control\GfxOutBarCtrl.cpp

; 1766 : 			pt.x = rc.left + (rc.Width() - szImage.cx) / 2;

  001e5	8b 45 18	 mov	 eax, DWORD PTR _rc$[ebp+8]
  001e8	2b 45 e8	 sub	 eax, DWORD PTR $T11[ebp+8]
  001eb	2b 45 10	 sub	 eax, DWORD PTR _rc$[ebp]
  001ee	03 45 e0	 add	 eax, DWORD PTR $T11[ebp]
  001f1	99		 cdq
; File C:\Program Files (x86)\Microsoft Visual Studio\2019\Community\VC\Tools\MSVC\14.29.30133\atlmfc\include\afxwin1.inl

; 871  : 	{ ASSERT(m_hImageList != NULL); ASSERT(pDC != NULL); return ImageList_Draw(m_hImageList, nImage, pDC->GetSafeHdc(), pt.x, pt.y, nStyle); }

  001f2	6a 00		 push	 0
  001f4	ff 75 14	 push	 DWORD PTR _rc$[ebp+4]
; File D:\git\src\IBK\IBK_DRFN\ProjSrc\SrcDrfn\Chart\comparechart\control\GfxOutBarCtrl.cpp

; 1766 : 			pt.x = rc.left + (rc.Width() - szImage.cx) / 2;

  001f7	2b c2		 sub	 eax, edx
  001f9	d1 f8		 sar	 eax, 1
  001fb	03 45 10	 add	 eax, DWORD PTR _rc$[ebp]
; File C:\Program Files (x86)\Microsoft Visual Studio\2019\Community\VC\Tools\MSVC\14.29.30133\atlmfc\include\afxwin1.inl

; 871  : 	{ ASSERT(m_hImageList != NULL); ASSERT(pDC != NULL); return ImageList_Draw(m_hImageList, nImage, pDC->GetSafeHdc(), pt.x, pt.y, nStyle); }

  001fe	50		 push	 eax
  001ff	8b 45 b8	 mov	 eax, DWORD PTR _pi$1$[ebp]
  00202	ff 73 04	 push	 DWORD PTR [ebx+4]
  00205	ff 70 04	 push	 DWORD PTR [eax+4]
  00208	ff 76 04	 push	 DWORD PTR [esi+4]
  0020b	ff 15 00 00 00
	00		 call	 DWORD PTR __imp__ImageList_Draw@24
; File D:\git\src\IBK\IBK_DRFN\ProjSrc\SrcDrfn\Chart\comparechart\control\GfxOutBarCtrl.cpp

; 1769 : 			if (!bOnlyImage)

  00211	80 7d 24 00	 cmp	 BYTE PTR _bOnlyImage$[ebp], 0
  00215	75 2c		 jne	 SHORT $LN9@DrawItem

; 1770 : 			{
; 1771 : 				rc.top += szImage.cy + yLargeIconLabelOffset;

  00217	8b 87 ac 00 00
	00		 mov	 eax, DWORD PTR [edi+172]
  0021d	03 45 b4	 add	 eax, DWORD PTR tv891[ebp]
  00220	01 45 14	 add	 DWORD PTR _rc$[ebp+4], eax

; 1772 : 				pDC->DrawText(pi->cItem, lstrlen(pi->cItem), rc, DT_CENTER|DT_WORDBREAK);

  00223	8d 45 10	 lea	 eax, DWORD PTR _rc$[ebp]
  00226	8b 33		 mov	 esi, DWORD PTR [ebx]
  00228	6a 11		 push	 17			; 00000011H
  0022a	50		 push	 eax
  0022b	8b 45 b8	 mov	 eax, DWORD PTR _pi$1$[ebp]
  0022e	ff 70 08	 push	 DWORD PTR [eax+8]
  00231	ff 15 00 00 00
	00		 call	 DWORD PTR __imp__lstrlenA@4
  00237	50		 push	 eax
  00238	8b 45 b8	 mov	 eax, DWORD PTR _pi$1$[ebp]
  0023b	8b cb		 mov	 ecx, ebx
  0023d	ff 70 08	 push	 DWORD PTR [eax+8]
  00240	ff 56 70	 call	 DWORD PTR [esi+112]
$LN9@DrawItem:

; 1773 : 			}
; 1774 : 		}
; 1775 : 	}
; 1776 : 	
; 1777 : 	if (dwFlags&fSelHighlight && iLastSel == index && iLastSel >= 0)

  00243	f7 87 00 01 00
	00 00 02 00 00	 test	 DWORD PTR [edi+256], 512 ; 00000200H
  0024d	74 4d		 je	 SHORT $LN10@DrawItem
  0024f	8b 87 f4 00 00
	00		 mov	 eax, DWORD PTR [edi+244]
  00255	3b 45 a4	 cmp	 eax, DWORD PTR _index$GSCopy$1$[ebp]
  00258	75 42		 jne	 SHORT $LN10@DrawItem
  0025a	85 c0		 test	 eax, eax
  0025c	78 3e		 js	 SHORT $LN10@DrawItem

; 1780 : 		GetIconRect(iSelFolder, iLastSel, rc);

  0025e	8d 4d e0	 lea	 ecx, DWORD PTR _rc$10[ebp]
  00261	0f 57 c0	 xorps	 xmm0, xmm0
  00264	51		 push	 ecx
  00265	50		 push	 eax
  00266	ff b7 34 01 00
	00		 push	 DWORD PTR [edi+308]
  0026c	8b cf		 mov	 ecx, edi
; File C:\Program Files (x86)\Microsoft Visual Studio\2019\Community\VC\Tools\MSVC\14.29.30133\atlmfc\include\atltypes.h

; 528  : 	left = 0;

  0026e	0f 11 45 e0	 movups	 XMMWORD PTR _rc$10[ebp], xmm0
; File D:\git\src\IBK\IBK_DRFN\ProjSrc\SrcDrfn\Chart\comparechart\control\GfxOutBarCtrl.cpp

; 1780 : 		GetIconRect(iSelFolder, iLastSel, rc);

  00272	e8 00 00 00 00	 call	 ?GetIconRect@CGfxOutBarCtrl@@QAEXHHAAVCRect@@@Z ; CGfxOutBarCtrl::GetIconRect
; File C:\Program Files (x86)\Microsoft Visual Studio\2019\Community\VC\Tools\MSVC\14.29.30133\atlmfc\include\atltypes.h

; 686  : 	::InflateRect(this, x, y);

  00277	6a 01		 push	 1
  00279	6a 01		 push	 1
  0027b	8d 45 e0	 lea	 eax, DWORD PTR _rc$10[ebp]
  0027e	50		 push	 eax
  0027f	ff 15 00 00 00
	00		 call	 DWORD PTR __imp__InflateRect@12
; File D:\git\src\IBK\IBK_DRFN\ProjSrc\SrcDrfn\Chart\comparechart\control\GfxOutBarCtrl.cpp

; 1782 : 		pDC->Draw3dRect(rc, crDkShadowBorder, cr3dFace);

  00285	ff b7 90 00 00
	00		 push	 DWORD PTR [edi+144]
  0028b	8d 45 e0	 lea	 eax, DWORD PTR _rc$10[ebp]
  0028e	8b cb		 mov	 ecx, ebx
  00290	ff b7 9c 00 00
	00		 push	 DWORD PTR [edi+156]
  00296	50		 push	 eax
  00297	e8 00 00 00 00	 call	 ?Draw3dRect@CDC@@QAEXPBUtagRECT@@KK@Z ; CDC::Draw3dRect
$LN10@DrawItem:

; 1783 : 	}
; 1784 : 
; 1785 : 	pDC->SetTextColor(ocr);

  0029c	8b 03		 mov	 eax, DWORD PTR [ebx]
  0029e	8b cb		 mov	 ecx, ebx
  002a0	ff 75 ac	 push	 DWORD PTR _ocr$1$[ebp]
  002a3	ff 50 38	 call	 DWORD PTR [eax+56]

; 1786 : 	pDC->SelectObject(oft);

  002a6	8b 03		 mov	 eax, DWORD PTR [ebx]
  002a8	8b cb		 mov	 ecx, ebx
  002aa	ff 75 a8	 push	 DWORD PTR _oft$1$[ebp]
  002ad	ff 50 30	 call	 DWORD PTR [eax+48]

; 1787 : 	pDC->SetBkMode(obk);

  002b0	ff 75 a0	 push	 DWORD PTR _obk$1$[ebp]
  002b3	8b cb		 mov	 ecx, ebx
  002b5	e8 00 00 00 00	 call	 ?SetBkMode@CDC@@QAEHH@Z	; CDC::SetBkMode

; 1789 : }

  002ba	8b 4d f4	 mov	 ecx, DWORD PTR __$EHRec$[ebp]
  002bd	64 89 0d 00 00
	00 00		 mov	 DWORD PTR fs:0, ecx
  002c4	59		 pop	 ecx
  002c5	5f		 pop	 edi
  002c6	5e		 pop	 esi
  002c7	5b		 pop	 ebx
  002c8	8b 4d f0	 mov	 ecx, DWORD PTR __$ArrayPad$[ebp]
  002cb	33 cd		 xor	 ecx, ebp
  002cd	e8 00 00 00 00	 call	 @__security_check_cookie@4
  002d2	8b e5		 mov	 esp, ebp
  002d4	5d		 pop	 ebp
  002d5	c2 20 00	 ret	 32			; 00000020H
$LN24@DrawItem:
; File C:\Program Files (x86)\Microsoft Visual Studio\2019\Community\VC\Tools\MSVC\14.29.30133\atlmfc\include\afxcoll.inl

; 204  : 			AfxThrowInvalidArgException();

  002d8	e8 00 00 00 00	 call	 ?AfxThrowInvalidArgException@@YGXXZ ; AfxThrowInvalidArgException
$LN101@DrawItem:
  002dd	cc		 int	 3
_TEXT	ENDS
;	COMDAT text$x
text$x	SEGMENT
__unwindfunclet$?DrawItem@CGfxOutBarCtrl@@QAEXPAVCDC@@HVCRect@@H_N@Z$0:
  00000	8d 4d b4	 lea	 ecx, DWORD PTR $T6[ebp]
  00003	ff 25 00 00 00
	00		 jmp	 DWORD PTR __imp_??1?$CStringT@DV?$StrTraitMFC_DLL@DV?$ChTraitsCRT@D@ATL@@@@@ATL@@QAE@XZ
  00009	cc		 int	 3
  0000a	cc		 int	 3
  0000b	cc		 int	 3
  0000c	cc		 int	 3
  0000d	cc		 int	 3
__ehhandler$?DrawItem@CGfxOutBarCtrl@@QAEXPAVCDC@@HVCRect@@H_N@Z:
  0000e	90		 npad	 1
  0000f	90		 npad	 1
  00010	8b 54 24 08	 mov	 edx, DWORD PTR [esp+8]
  00014	8d 42 0c	 lea	 eax, DWORD PTR [edx+12]
  00017	8b 4a 9c	 mov	 ecx, DWORD PTR [edx-100]
  0001a	33 c8		 xor	 ecx, eax
  0001c	e8 00 00 00 00	 call	 @__security_check_cookie@4
  00021	8b 4a fc	 mov	 ecx, DWORD PTR [edx-4]
  00024	33 c8		 xor	 ecx, eax
  00026	e8 00 00 00 00	 call	 @__security_check_cookie@4
  0002b	b8 00 00 00 00	 mov	 eax, OFFSET __ehfuncinfo$?DrawItem@CGfxOutBarCtrl@@QAEXPAVCDC@@HVCRect@@H_N@Z
  00030	e9 00 00 00 00	 jmp	 ___CxxFrameHandler3
text$x	ENDS
?DrawItem@CGfxOutBarCtrl@@QAEXPAVCDC@@HVCRect@@H_N@Z ENDP ; CGfxOutBarCtrl::DrawItem
; Function compile flags: /Ogtp
; File D:\git\src\IBK\IBK_DRFN\ProjSrc\SrcDrfn\Chart\comparechart\control\GfxOutBarCtrl.cpp
; File C:\Program Files (x86)\Microsoft Visual Studio\2019\Community\VC\Tools\MSVC\14.29.30133\atlmfc\include\atltypes.h
; File D:\git\src\IBK\IBK_DRFN\ProjSrc\SrcDrfn\Chart\comparechart\control\GfxOutBarCtrl.cpp
; File C:\Program Files (x86)\Microsoft Visual Studio\2019\Community\VC\Tools\MSVC\14.29.30133\atlmfc\include\afxwin2.inl
; File D:\git\src\IBK\IBK_DRFN\ProjSrc\SrcDrfn\Chart\comparechart\control\GfxOutBarCtrl.cpp
; File C:\Program Files (x86)\Microsoft Visual Studio\2019\Community\VC\Tools\MSVC\14.29.30133\atlmfc\include\afxcoll.inl
; File D:\git\src\IBK\IBK_DRFN\ProjSrc\SrcDrfn\Chart\comparechart\control\GfxOutBarCtrl.cpp
; File C:\Program Files (x86)\Microsoft Visual Studio\2019\Community\VC\Tools\MSVC\14.29.30133\atlmfc\include\afxcoll.inl
; File D:\git\src\IBK\IBK_DRFN\ProjSrc\SrcDrfn\Chart\comparechart\control\GfxOutBarCtrl.cpp
; File C:\Program Files (x86)\Microsoft Visual Studio\2019\Community\VC\Tools\MSVC\14.29.30133\atlmfc\include\afxcoll.inl
; File D:\git\src\IBK\IBK_DRFN\ProjSrc\SrcDrfn\Chart\comparechart\control\GfxOutBarCtrl.cpp
; File C:\Program Files (x86)\Microsoft Visual Studio\2019\Community\VC\Tools\MSVC\14.29.30133\atlmfc\include\atltypes.h
; File D:\git\src\IBK\IBK_DRFN\ProjSrc\SrcDrfn\Chart\comparechart\control\GfxOutBarCtrl.cpp
;	COMDAT ?GetVisibleRange@CGfxOutBarCtrl@@QAEXHAAH0@Z
_TEXT	SEGMENT
_pbf$1$ = -48						; size = 4
_max$1$ = -44						; size = 4
_last$GSCopy$1$ = -40					; size = 4
_itemRc$1 = -36						; size = 16
_rc$ = -20						; size = 16
__$ArrayPad$ = -4					; size = 4
_iFolder$ = 8						; size = 4
_first$ = 12						; size = 4
_last$ = 16						; size = 4
?GetVisibleRange@CGfxOutBarCtrl@@QAEXHAAH0@Z PROC	; CGfxOutBarCtrl::GetVisibleRange, COMDAT
; _this$ = ecx

; 1807 : {

  00000	55		 push	 ebp
  00001	8b ec		 mov	 ebp, esp
  00003	83 ec 30	 sub	 esp, 48			; 00000030H
  00006	a1 00 00 00 00	 mov	 eax, DWORD PTR ___security_cookie
  0000b	33 c5		 xor	 eax, ebp
  0000d	89 45 fc	 mov	 DWORD PTR __$ArrayPad$[ebp], eax
  00010	8b 55 0c	 mov	 edx, DWORD PTR _first$[ebp]
  00013	0f 57 c0	 xorps	 xmm0, xmm0
  00016	8b 45 10	 mov	 eax, DWORD PTR _last$[ebp]
  00019	53		 push	 ebx
  0001a	8b 5d 08	 mov	 ebx, DWORD PTR _iFolder$[ebp]
  0001d	56		 push	 esi
  0001e	57		 push	 edi
  0001f	8b f9		 mov	 edi, ecx
  00021	89 45 d8	 mov	 DWORD PTR _last$GSCopy$1$[ebp], eax
; File C:\Program Files (x86)\Microsoft Visual Studio\2019\Community\VC\Tools\MSVC\14.29.30133\atlmfc\include\atltypes.h

; 528  : 	left = 0;

  00024	0f 11 45 ec	 movups	 XMMWORD PTR _rc$[ebp], xmm0
; File D:\git\src\IBK\IBK_DRFN\ProjSrc\SrcDrfn\Chart\comparechart\control\GfxOutBarCtrl.cpp

; 1808 : 	first = iFirstItem;

  00028	8b 87 20 01 00
	00		 mov	 eax, DWORD PTR [edi+288]
  0002e	89 02		 mov	 DWORD PTR [edx], eax
; File C:\Program Files (x86)\Microsoft Visual Studio\2019\Community\VC\Tools\MSVC\14.29.30133\atlmfc\include\afxwin2.inl

; 86   : 	{ ASSERT(::IsWindow(m_hWnd)); ::GetClientRect(m_hWnd, lpRect); }

  00030	8d 45 ec	 lea	 eax, DWORD PTR _rc$[ebp]
  00033	50		 push	 eax
  00034	ff 77 20	 push	 DWORD PTR [edi+32]
  00037	ff 15 00 00 00
	00		 call	 DWORD PTR __imp__GetClientRect@8
; File D:\git\src\IBK\IBK_DRFN\ProjSrc\SrcDrfn\Chart\comparechart\control\GfxOutBarCtrl.cpp

; 746  : 	if (arFolder.GetSize() > 0)

  0003d	8b b7 0c 01 00
	00		 mov	 esi, DWORD PTR [edi+268]
  00043	85 f6		 test	 esi, esi
  00045	7e 20		 jle	 SHORT $LN12@GetVisible

; 747  : 	{
; 748  : 		int max = arFolder.GetSize();
; 749  : 		rect.top += iFolderHeight * (iSelFolder + 1); + 1;//+ 2;

  00047	8b 8f 34 01 00
	00		 mov	 ecx, DWORD PTR [edi+308]
  0004d	8b 97 a0 00 00
	00		 mov	 edx, DWORD PTR [edi+160]
  00053	8d 41 01	 lea	 eax, DWORD PTR [ecx+1]
  00056	0f af c2	 imul	 eax, edx
  00059	01 45 f0	 add	 DWORD PTR _rc$[ebp+4], eax

; 750  : 		rect.bottom -= (max - iSelFolder - 1)*iFolderHeight;

  0005c	8b c6		 mov	 eax, esi
  0005e	2b c1		 sub	 eax, ecx
  00060	48		 dec	 eax
  00061	0f af c2	 imul	 eax, edx
  00064	29 45 f8	 sub	 DWORD PTR _rc$[ebp+12], eax
$LN12@GetVisible:

; 1809 : 	CRect rc;
; 1810 : 	GetInsideRect(rc);
; 1811 : 
; 1812 : 	if (arFolder.GetSize() <= iFolder)	return;

  00067	3b f3		 cmp	 esi, ebx
  00069	7e 58		 jle	 SHORT $LN3@GetVisible
; File C:\Program Files (x86)\Microsoft Visual Studio\2019\Community\VC\Tools\MSVC\14.29.30133\atlmfc\include\afxcoll.inl

; 203  : 		if( nIndex < 0 || nIndex >= m_nSize )

  0006b	85 db		 test	 ebx, ebx
  0006d	78 7d		 js	 SHORT $LN23@GetVisible

; 205  : 		return m_pData[nIndex]; }

  0006f	8b 87 08 01 00
	00		 mov	 eax, DWORD PTR [edi+264]
; File D:\git\src\IBK\IBK_DRFN\ProjSrc\SrcDrfn\Chart\comparechart\control\GfxOutBarCtrl.cpp

; 1815 : 	for (t = iFirstItem; t < max; t++)

  00075	8b b7 20 01 00
	00		 mov	 esi, DWORD PTR [edi+288]
; File C:\Program Files (x86)\Microsoft Visual Studio\2019\Community\VC\Tools\MSVC\14.29.30133\atlmfc\include\afxcoll.inl

; 205  : 		return m_pData[nIndex]; }

  0007b	8b 04 98	 mov	 eax, DWORD PTR [eax+ebx*4]
  0007e	89 45 d0	 mov	 DWORD PTR _pbf$1$[ebp], eax
; File D:\git\src\IBK\IBK_DRFN\ProjSrc\SrcDrfn\Chart\comparechart\control\GfxOutBarCtrl.cpp

; 1814 : 	int max = pbf->GetItemCount(), t;

  00081	8b 48 1c	 mov	 ecx, DWORD PTR [eax+28]
  00084	89 4d d4	 mov	 DWORD PTR _max$1$[ebp], ecx

; 1815 : 	for (t = iFirstItem; t < max; t++)

  00087	3b f1		 cmp	 esi, ecx
  00089	7d 38		 jge	 SHORT $LN3@GetVisible
  0008b	0f 1f 44 00 00	 npad	 5
$LL4@GetVisible:
; File C:\Program Files (x86)\Microsoft Visual Studio\2019\Community\VC\Tools\MSVC\14.29.30133\atlmfc\include\afxcoll.inl

; 203  : 		if( nIndex < 0 || nIndex >= m_nSize )

  00090	85 f6		 test	 esi, esi
  00092	78 58		 js	 SHORT $LN23@GetVisible
  00094	3b 70 1c	 cmp	 esi, DWORD PTR [eax+28]
  00097	7d 53		 jge	 SHORT $LN23@GetVisible
; File D:\git\src\IBK\IBK_DRFN\ProjSrc\SrcDrfn\Chart\comparechart\control\GfxOutBarCtrl.cpp

; 1819 : 		GetItemRect(iFolder, t, itemRc);

  00099	8d 45 dc	 lea	 eax, DWORD PTR _itemRc$1[ebp]
  0009c	0f 57 c0	 xorps	 xmm0, xmm0
  0009f	50		 push	 eax
  000a0	56		 push	 esi
  000a1	53		 push	 ebx
  000a2	8b cf		 mov	 ecx, edi
; File C:\Program Files (x86)\Microsoft Visual Studio\2019\Community\VC\Tools\MSVC\14.29.30133\atlmfc\include\atltypes.h

; 528  : 	left = 0;

  000a4	0f 11 45 dc	 movups	 XMMWORD PTR _itemRc$1[ebp], xmm0
; File D:\git\src\IBK\IBK_DRFN\ProjSrc\SrcDrfn\Chart\comparechart\control\GfxOutBarCtrl.cpp

; 1819 : 		GetItemRect(iFolder, t, itemRc);

  000a8	e8 00 00 00 00	 call	 ?GetItemRect@CGfxOutBarCtrl@@QAEXHHAAVCRect@@@Z ; CGfxOutBarCtrl::GetItemRect

; 1820 : 		if (itemRc.bottom > rc.bottom) 

  000ad	8b 45 e8	 mov	 eax, DWORD PTR _itemRc$1[ebp+12]
  000b0	3b 45 f8	 cmp	 eax, DWORD PTR _rc$[ebp+12]
  000b3	8b 45 d8	 mov	 eax, DWORD PTR _last$GSCopy$1$[ebp]
  000b6	7f 1e		 jg	 SHORT $LN29@GetVisible

; 1821 : 		{
; 1822 : 			last = t - 1;
; 1823 : 			break;
; 1824 : 		}
; 1825 : 		else last = t;

  000b8	89 30		 mov	 DWORD PTR [eax], esi
  000ba	46		 inc	 esi
  000bb	8b 45 d0	 mov	 eax, DWORD PTR _pbf$1$[ebp]
  000be	3b 75 d4	 cmp	 esi, DWORD PTR _max$1$[ebp]
  000c1	7c cd		 jl	 SHORT $LL4@GetVisible
$LN3@GetVisible:
  000c3	5f		 pop	 edi

; 1826 : 	}
; 1827 : }

  000c4	5e		 pop	 esi
  000c5	5b		 pop	 ebx
  000c6	8b 4d fc	 mov	 ecx, DWORD PTR __$ArrayPad$[ebp]
  000c9	33 cd		 xor	 ecx, ebp
  000cb	e8 00 00 00 00	 call	 @__security_check_cookie@4
  000d0	8b e5		 mov	 esp, ebp
  000d2	5d		 pop	 ebp
  000d3	c2 0c 00	 ret	 12			; 0000000cH
$LN29@GetVisible:
  000d6	8b 4d fc	 mov	 ecx, DWORD PTR __$ArrayPad$[ebp]
  000d9	4e		 dec	 esi
  000da	5f		 pop	 edi
  000db	89 30		 mov	 DWORD PTR [eax], esi
  000dd	33 cd		 xor	 ecx, ebp
  000df	5e		 pop	 esi
  000e0	5b		 pop	 ebx
  000e1	e8 00 00 00 00	 call	 @__security_check_cookie@4
  000e6	8b e5		 mov	 esp, ebp
  000e8	5d		 pop	 ebp
  000e9	c2 0c 00	 ret	 12			; 0000000cH
$LN23@GetVisible:
  000ec	e8 00 00 00 00	 call	 ?AfxThrowInvalidArgException@@YGXXZ ; AfxThrowInvalidArgException
$LN33@GetVisible:
  000f1	cc		 int	 3
?GetVisibleRange@CGfxOutBarCtrl@@QAEXHAAH0@Z ENDP	; CGfxOutBarCtrl::GetVisibleRange
_TEXT	ENDS
; Function compile flags: /Ogtp
; File D:\git\src\IBK\IBK_DRFN\ProjSrc\SrcDrfn\Chart\comparechart\control\GfxOutBarCtrl.cpp
; File C:\Program Files (x86)\Microsoft Visual Studio\2019\Community\VC\Tools\MSVC\14.29.30133\atlmfc\include\afxwin2.inl
; File D:\git\src\IBK\IBK_DRFN\ProjSrc\SrcDrfn\Chart\comparechart\control\GfxOutBarCtrl.cpp
; File C:\Program Files (x86)\Microsoft Visual Studio\2019\Community\VC\Tools\MSVC\14.29.30133\atlmfc\include\afxwin2.inl
; File D:\git\src\IBK\IBK_DRFN\ProjSrc\SrcDrfn\Chart\comparechart\control\GfxOutBarCtrl.cpp
; File C:\Program Files (x86)\Microsoft Visual Studio\2019\Community\VC\Tools\MSVC\14.29.30133\atlmfc\include\afxwin2.inl
; File D:\git\src\IBK\IBK_DRFN\ProjSrc\SrcDrfn\Chart\comparechart\control\GfxOutBarCtrl.cpp
; File C:\Program Files (x86)\Microsoft Visual Studio\2019\Community\VC\Tools\MSVC\14.29.30133\atlmfc\include\afxwin2.inl
; File C:\Program Files (x86)\Microsoft Visual Studio\2019\Community\VC\Tools\MSVC\14.29.30133\atlmfc\include\atltypes.h
; File C:\Program Files (x86)\Microsoft Visual Studio\2019\Community\VC\Tools\MSVC\14.29.30133\atlmfc\include\afxwin2.inl
; File D:\git\src\IBK\IBK_DRFN\ProjSrc\SrcDrfn\Chart\comparechart\control\GfxOutBarCtrl.cpp
; File C:\Program Files (x86)\Microsoft Visual Studio\2019\Community\VC\Tools\MSVC\14.29.30133\atlmfc\include\afxwin1.inl
; File D:\git\src\IBK\IBK_DRFN\ProjSrc\SrcDrfn\Chart\comparechart\control\GfxOutBarCtrl.cpp
; File C:\Program Files (x86)\Microsoft Visual Studio\2019\Community\VC\Tools\MSVC\14.29.30133\atlmfc\include\afxwin1.inl
; File D:\git\src\IBK\IBK_DRFN\ProjSrc\SrcDrfn\Chart\comparechart\control\GfxOutBarCtrl.cpp
; File C:\Program Files (x86)\Microsoft Visual Studio\2019\Community\VC\Tools\MSVC\14.29.30133\atlmfc\include\afxcoll.inl
; File D:\git\src\IBK\IBK_DRFN\ProjSrc\SrcDrfn\Chart\comparechart\control\GfxOutBarCtrl.cpp
; File C:\Program Files (x86)\Microsoft Visual Studio\2019\Community\VC\Tools\MSVC\14.29.30133\atlmfc\include\atltypes.h
; File D:\git\src\IBK\IBK_DRFN\ProjSrc\SrcDrfn\Chart\comparechart\control\GfxOutBarCtrl.cpp
; File C:\Program Files (x86)\Microsoft Visual Studio\2019\Community\VC\Tools\MSVC\14.29.30133\atlmfc\include\atltypes.h
; File D:\git\src\IBK\IBK_DRFN\ProjSrc\SrcDrfn\Chart\comparechart\control\GfxOutBarCtrl.cpp
; File C:\Program Files (x86)\Microsoft Visual Studio\2019\Community\VC\Tools\MSVC\14.29.30133\atlmfc\include\afxcoll.inl
; File D:\git\src\IBK\IBK_DRFN\ProjSrc\SrcDrfn\Chart\comparechart\control\GfxOutBarCtrl.cpp
; File C:\Program Files (x86)\Microsoft Visual Studio\2019\Community\VC\Tools\MSVC\14.29.30133\atlmfc\include\atltypes.h
; File D:\git\src\IBK\IBK_DRFN\ProjSrc\SrcDrfn\Chart\comparechart\control\GfxOutBarCtrl.cpp
; File C:\Program Files (x86)\Microsoft Visual Studio\2019\Community\VC\Tools\MSVC\14.29.30133\atlmfc\include\atltypes.h
; File D:\git\src\IBK\IBK_DRFN\ProjSrc\SrcDrfn\Chart\comparechart\control\GfxOutBarCtrl.cpp
; File C:\Program Files (x86)\Microsoft Visual Studio\2019\Community\VC\Tools\MSVC\14.29.30133\atlmfc\include\atltypes.h
; File D:\git\src\IBK\IBK_DRFN\ProjSrc\SrcDrfn\Chart\comparechart\control\GfxOutBarCtrl.cpp
; File C:\Program Files (x86)\Microsoft Visual Studio\2019\Community\VC\Tools\MSVC\14.29.30133\atlmfc\include\afxwin1.inl
; File D:\git\src\IBK\IBK_DRFN\ProjSrc\SrcDrfn\Chart\comparechart\control\GfxOutBarCtrl.cpp
; File C:\Program Files (x86)\Microsoft Visual Studio\2019\Community\VC\Tools\MSVC\14.29.30133\atlmfc\include\afxcoll.inl
; File D:\git\src\IBK\IBK_DRFN\ProjSrc\SrcDrfn\Chart\comparechart\control\GfxOutBarCtrl.cpp
;	COMDAT ?HighlightItem@CGfxOutBarCtrl@@QAEXH_N@Z
_TEXT	SEGMENT
_dc$ = -76						; size = 20
_itemRegion$ = -56					; size = 8
_irc$ = -48						; size = 16
_rc$2 = -32						; size = 16
_rc$3 = -32						; size = 16
__$ArrayPad$ = -16					; size = 4
__$EHRec$ = -12						; size = 12
_index$ = 8						; size = 4
_bPressed$ = 12						; size = 1
?HighlightItem@CGfxOutBarCtrl@@QAEXH_N@Z PROC		; CGfxOutBarCtrl::HighlightItem, COMDAT
; _this$ = ecx

; 1882 : {

  00000	55		 push	 ebp
  00001	8b ec		 mov	 ebp, esp
  00003	6a ff		 push	 -1
  00005	68 00 00 00 00	 push	 __ehhandler$?HighlightItem@CGfxOutBarCtrl@@QAEXH_N@Z
  0000a	64 a1 00 00 00
	00		 mov	 eax, DWORD PTR fs:0
  00010	50		 push	 eax
  00011	83 ec 40	 sub	 esp, 64			; 00000040H
  00014	a1 00 00 00 00	 mov	 eax, DWORD PTR ___security_cookie
  00019	33 c5		 xor	 eax, ebp
  0001b	89 45 f0	 mov	 DWORD PTR __$ArrayPad$[ebp], eax
  0001e	53		 push	 ebx
  0001f	56		 push	 esi
  00020	57		 push	 edi
  00021	50		 push	 eax
  00022	8d 45 f4	 lea	 eax, DWORD PTR __$EHRec$[ebp]
  00025	64 a3 00 00 00
	00		 mov	 DWORD PTR fs:0, eax
  0002b	8b f1		 mov	 esi, ecx
; File C:\Program Files (x86)\Microsoft Visual Studio\2019\Community\VC\Tools\MSVC\14.29.30133\atlmfc\include\afxwin2.inl

; 165  : 	{ return CWnd::FromHandle(::GetFocus()); }

  0002d	ff 15 00 00 00
	00		 call	 DWORD PTR __imp__GetFocus@0
  00033	50		 push	 eax
  00034	e8 00 00 00 00	 call	 ?FromHandle@CWnd@@SGPAV1@PAUHWND__@@@Z ; CWnd::FromHandle
; File D:\git\src\IBK\IBK_DRFN\ProjSrc\SrcDrfn\Chart\comparechart\control\GfxOutBarCtrl.cpp

; 1884 : 	if (pf != NULL && pf != this && IsChild(pf)) return;

  00039	85 c0		 test	 eax, eax
  0003b	74 18		 je	 SHORT $LN2@HighlightI
  0003d	3b c6		 cmp	 eax, esi
  0003f	74 14		 je	 SHORT $LN2@HighlightI
; File C:\Program Files (x86)\Microsoft Visual Studio\2019\Community\VC\Tools\MSVC\14.29.30133\atlmfc\include\afxwin2.inl

; 211  : 	{ ASSERT(::IsWindow(m_hWnd)); return ::IsChild(m_hWnd, pWnd->GetSafeHwnd()); }

  00041	ff 70 20	 push	 DWORD PTR [eax+32]
  00044	ff 76 20	 push	 DWORD PTR [esi+32]
  00047	ff 15 00 00 00
	00		 call	 DWORD PTR __imp__IsChild@8
; File D:\git\src\IBK\IBK_DRFN\ProjSrc\SrcDrfn\Chart\comparechart\control\GfxOutBarCtrl.cpp

; 1884 : 	if (pf != NULL && pf != this && IsChild(pf)) return;

  0004d	85 c0		 test	 eax, eax
  0004f	0f 85 e8 01 00
	00		 jne	 $LN1@HighlightI
$LN2@HighlightI:

; 1885 : 
; 1886 : 	static bool bOldPressed = false;
; 1887 : 	if (iLastItemHighlighted == index && bOldPressed == bPressed) return;

  00055	8b 5d 08	 mov	 ebx, DWORD PTR _index$[ebp]
  00058	8a 45 0c	 mov	 al, BYTE PTR _bPressed$[ebp]
  0005b	39 9e 24 01 00
	00		 cmp	 DWORD PTR [esi+292], ebx
  00061	75 0c		 jne	 SHORT $LN3@HighlightI
  00063	38 05 00 00 00
	00		 cmp	 BYTE PTR ?bOldPressed@?1??HighlightItem@CGfxOutBarCtrl@@QAEXH_N@Z@4_NA, al
  00069	0f 84 ce 01 00
	00		 je	 $LN1@HighlightI
$LN3@HighlightI:

; 1891 : 	CClientDC dc(this);

  0006f	56		 push	 esi
  00070	8d 4d b4	 lea	 ecx, DWORD PTR _dc$[ebp]
  00073	a2 00 00 00 00	 mov	 BYTE PTR ?bOldPressed@?1??HighlightItem@CGfxOutBarCtrl@@QAEXH_N@Z@4_NA, al
  00078	e8 00 00 00 00	 call	 ??0CClientDC@@QAE@PAVCWnd@@@Z ; CClientDC::CClientDC
; File C:\Program Files (x86)\Microsoft Visual Studio\2019\Community\VC\Tools\MSVC\14.29.30133\atlmfc\include\afxwin2.inl

; 86   : 	{ ASSERT(::IsWindow(m_hWnd)); ::GetClientRect(m_hWnd, lpRect); }

  0007d	8d 45 d0	 lea	 eax, DWORD PTR _irc$[ebp]
; File D:\git\src\IBK\IBK_DRFN\ProjSrc\SrcDrfn\Chart\comparechart\control\GfxOutBarCtrl.cpp

; 1891 : 	CClientDC dc(this);

  00080	c7 45 fc 00 00
	00 00		 mov	 DWORD PTR __$EHRec$[ebp+8], 0
; File C:\Program Files (x86)\Microsoft Visual Studio\2019\Community\VC\Tools\MSVC\14.29.30133\atlmfc\include\afxwin2.inl

; 86   : 	{ ASSERT(::IsWindow(m_hWnd)); ::GetClientRect(m_hWnd, lpRect); }

  00087	50		 push	 eax
  00088	ff 76 20	 push	 DWORD PTR [esi+32]
  0008b	0f 57 c0	 xorps	 xmm0, xmm0
; File C:\Program Files (x86)\Microsoft Visual Studio\2019\Community\VC\Tools\MSVC\14.29.30133\atlmfc\include\atltypes.h

; 528  : 	left = 0;

  0008e	0f 11 45 d0	 movups	 XMMWORD PTR _irc$[ebp], xmm0
; File C:\Program Files (x86)\Microsoft Visual Studio\2019\Community\VC\Tools\MSVC\14.29.30133\atlmfc\include\afxwin2.inl

; 86   : 	{ ASSERT(::IsWindow(m_hWnd)); ::GetClientRect(m_hWnd, lpRect); }

  00092	ff 15 00 00 00
	00		 call	 DWORD PTR __imp__GetClientRect@8
; File D:\git\src\IBK\IBK_DRFN\ProjSrc\SrcDrfn\Chart\comparechart\control\GfxOutBarCtrl.cpp

; 746  : 	if (arFolder.GetSize() > 0)

  00098	8b be 0c 01 00
	00		 mov	 edi, DWORD PTR [esi+268]
  0009e	85 ff		 test	 edi, edi
  000a0	7e 1e		 jle	 SHORT $LN99@HighlightI

; 747  : 	{
; 748  : 		int max = arFolder.GetSize();
; 749  : 		rect.top += iFolderHeight * (iSelFolder + 1); + 1;//+ 2;

  000a2	8b 8e 34 01 00
	00		 mov	 ecx, DWORD PTR [esi+308]

; 750  : 		rect.bottom -= (max - iSelFolder - 1)*iFolderHeight;

  000a8	2b f9		 sub	 edi, ecx
  000aa	8b 96 a0 00 00
	00		 mov	 edx, DWORD PTR [esi+160]
  000b0	4f		 dec	 edi
  000b1	0f af fa	 imul	 edi, edx
  000b4	8d 41 01	 lea	 eax, DWORD PTR [ecx+1]
  000b7	0f af c2	 imul	 eax, edx
  000ba	01 45 d4	 add	 DWORD PTR _irc$[ebp+4], eax
  000bd	29 7d dc	 sub	 DWORD PTR _irc$[ebp+12], edi
$LN99@HighlightI:

; 1892 : 
; 1893 : 	CRect irc;
; 1894 : 	GetInsideRect(irc);
; 1895 : 	int isdc = dc.SaveDC();

  000c0	8d 4d b4	 lea	 ecx, DWORD PTR _dc$[ebp]
  000c3	e8 00 00 00 00	 call	 ?SaveDC@CDC@@UAEHXZ	; CDC::SaveDC
  000c8	8b f8		 mov	 edi, eax
; File C:\Program Files (x86)\Microsoft Visual Studio\2019\Community\VC\Tools\MSVC\14.29.30133\atlmfc\include\afxwin1.inl

; 70   : 	{ m_hObject = NULL; }

  000ca	c7 45 cc 00 00
	00 00		 mov	 DWORD PTR _itemRegion$[ebp+4], 0

; 264  : 	{ }

  000d1	c7 45 c8 00 00
	00 00		 mov	 DWORD PTR _itemRegion$[ebp], OFFSET ??_7CRgn@@6B@

; 270  : 	{ return Attach(::CreateRectRgnIndirect(lpRect)); }

  000d8	8d 45 d0	 lea	 eax, DWORD PTR _irc$[ebp]
; File D:\git\src\IBK\IBK_DRFN\ProjSrc\SrcDrfn\Chart\comparechart\control\GfxOutBarCtrl.cpp

; 1896 : 	CRgn itemRegion;

  000db	c6 45 fc 01	 mov	 BYTE PTR __$EHRec$[ebp+8], 1
; File C:\Program Files (x86)\Microsoft Visual Studio\2019\Community\VC\Tools\MSVC\14.29.30133\atlmfc\include\afxwin1.inl

; 270  : 	{ return Attach(::CreateRectRgnIndirect(lpRect)); }

  000df	50		 push	 eax
  000e0	ff 15 00 00 00
	00		 call	 DWORD PTR __imp__CreateRectRgnIndirect@4
  000e6	50		 push	 eax
  000e7	8d 4d c8	 lea	 ecx, DWORD PTR _itemRegion$[ebp]
  000ea	e8 00 00 00 00	 call	 ?Attach@CGdiObject@@QAEHPAX@Z ; CGdiObject::Attach
; File D:\git\src\IBK\IBK_DRFN\ProjSrc\SrcDrfn\Chart\comparechart\control\GfxOutBarCtrl.cpp

; 1898 : 	dc.SelectClipRgn(&itemRegion);

  000ef	8d 45 c8	 lea	 eax, DWORD PTR _itemRegion$[ebp]
  000f2	50		 push	 eax
  000f3	8d 4d b4	 lea	 ecx, DWORD PTR _dc$[ebp]
  000f6	e8 00 00 00 00	 call	 ?SelectClipRgn@CDC@@QAEHPAVCRgn@@@Z ; CDC::SelectClipRgn

; 1899 : 	itemRegion.DeleteObject();

  000fb	8d 4d c8	 lea	 ecx, DWORD PTR _itemRegion$[ebp]
  000fe	e8 00 00 00 00	 call	 ?DeleteObject@CGdiObject@@QAEHXZ ; CGdiObject::DeleteObject

; 1900 : 
; 1901 : 	COLORREF clrOldText = dc.SetTextColor(RGB(255, 0, 0));

  00103	68 ff 00 00 00	 push	 255			; 000000ffH
  00108	8d 4d b4	 lea	 ecx, DWORD PTR _dc$[ebp]
  0010b	e8 00 00 00 00	 call	 ?SetTextColor@CDC@@UAEKK@Z ; CDC::SetTextColor

; 1902 : 
; 1903 : 	if (iLastItemHighlighted >= 0 && IsValidItem(iLastItemHighlighted))

  00110	8b 96 24 01 00
	00		 mov	 edx, DWORD PTR [esi+292]
  00116	85 d2		 test	 edx, edx
  00118	78 5e		 js	 SHORT $LN4@HighlightI

; 2077 : 	CBarFolder * pbf = (CBarFolder *) arFolder.GetAt(iSelFolder);

  0011a	8b 8e 34 01 00
	00		 mov	 ecx, DWORD PTR [esi+308]
; File C:\Program Files (x86)\Microsoft Visual Studio\2019\Community\VC\Tools\MSVC\14.29.30133\atlmfc\include\afxcoll.inl

; 203  : 		if( nIndex < 0 || nIndex >= m_nSize )

  00120	85 c9		 test	 ecx, ecx
  00122	0f 88 37 01 00
	00		 js	 $LN62@HighlightI
  00128	3b 8e 0c 01 00
	00		 cmp	 ecx, DWORD PTR [esi+268]
  0012e	0f 8d 2b 01 00
	00		 jge	 $LN62@HighlightI
; File D:\git\src\IBK\IBK_DRFN\ProjSrc\SrcDrfn\Chart\comparechart\control\GfxOutBarCtrl.cpp

; 2078 : 	return (index >= 0 && index < pbf->GetItemCount());

  00134	8b 86 08 01 00
	00		 mov	 eax, DWORD PTR [esi+264]
  0013a	8b 04 88	 mov	 eax, DWORD PTR [eax+ecx*4]
  0013d	3b 50 1c	 cmp	 edx, DWORD PTR [eax+28]
  00140	7d 36		 jge	 SHORT $LN4@HighlightI

; 1906 : 		GetIconRect(iSelFolder, iLastItemHighlighted, rc);

  00142	8d 45 e0	 lea	 eax, DWORD PTR _rc$3[ebp]
  00145	0f 57 c0	 xorps	 xmm0, xmm0
  00148	50		 push	 eax
  00149	52		 push	 edx
  0014a	51		 push	 ecx
  0014b	8b ce		 mov	 ecx, esi
; File C:\Program Files (x86)\Microsoft Visual Studio\2019\Community\VC\Tools\MSVC\14.29.30133\atlmfc\include\atltypes.h

; 528  : 	left = 0;

  0014d	0f 11 45 e0	 movups	 XMMWORD PTR _rc$3[ebp], xmm0
; File D:\git\src\IBK\IBK_DRFN\ProjSrc\SrcDrfn\Chart\comparechart\control\GfxOutBarCtrl.cpp

; 1906 : 		GetIconRect(iSelFolder, iLastItemHighlighted, rc);

  00151	e8 00 00 00 00	 call	 ?GetIconRect@CGfxOutBarCtrl@@QAEXHHAAVCRect@@@Z ; CGfxOutBarCtrl::GetIconRect
; File C:\Program Files (x86)\Microsoft Visual Studio\2019\Community\VC\Tools\MSVC\14.29.30133\atlmfc\include\atltypes.h

; 686  : 	::InflateRect(this, x, y);

  00156	6a 01		 push	 1
  00158	6a 01		 push	 1
  0015a	8d 45 e0	 lea	 eax, DWORD PTR _rc$3[ebp]
  0015d	50		 push	 eax
  0015e	ff 15 00 00 00
	00		 call	 DWORD PTR __imp__InflateRect@12
; File D:\git\src\IBK\IBK_DRFN\ProjSrc\SrcDrfn\Chart\comparechart\control\GfxOutBarCtrl.cpp

; 1908 : 		dc.Draw3dRect(rc, crBackGroundColor, crBackGroundColor);

  00164	8b 86 80 00 00
	00		 mov	 eax, DWORD PTR [esi+128]
  0016a	8d 4d b4	 lea	 ecx, DWORD PTR _dc$[ebp]
  0016d	50		 push	 eax
  0016e	50		 push	 eax
  0016f	8d 45 e0	 lea	 eax, DWORD PTR _rc$3[ebp]
  00172	50		 push	 eax
  00173	e8 00 00 00 00	 call	 ?Draw3dRect@CDC@@QAEXPBUtagRECT@@KK@Z ; CDC::Draw3dRect
$LN4@HighlightI:

; 1909 : 	}
; 1910 : 	if (iSelAnimTiming > 0 && index == iLastSel)

  00178	83 be f8 00 00
	00 00		 cmp	 DWORD PTR [esi+248], 0
  0017f	7e 08		 jle	 SHORT $LN100@HighlightI
  00181	3b 9e f4 00 00
	00		 cmp	 ebx, DWORD PTR [esi+244]
  00187	74 14		 je	 SHORT $LN13@HighlightI
$LN100@HighlightI:

; 1911 : 	{
; 1912 : 		iLastItemHighlighted = -1;
; 1913 : 		return;
; 1914 : 	}
; 1915 : 	if (dwFlags&fSelHighlight && iLastSel == index)

  00189	f7 86 00 01 00
	00 00 02 00 00	 test	 DWORD PTR [esi+256], 512 ; 00000200H
  00193	74 14		 je	 SHORT $LN6@HighlightI
  00195	39 9e f4 00 00
	00		 cmp	 DWORD PTR [esi+244], ebx
  0019b	75 0c		 jne	 SHORT $LN6@HighlightI
$LN13@HighlightI:
  0019d	c7 86 24 01 00
	00 ff ff ff ff	 mov	 DWORD PTR [esi+292], -1
  001a7	eb 7d		 jmp	 SHORT $LN14@HighlightI
$LN6@HighlightI:

; 1916 : 	{
; 1917 : 		iLastItemHighlighted = -1;
; 1918 : 		return;
; 1919 : 	}
; 1920 : 
; 1921 : 	iLastItemHighlighted = index;

  001a9	89 9e 24 01 00
	00		 mov	 DWORD PTR [esi+292], ebx

; 1922 : 	if (iLastItemHighlighted >= 0 && IsValidItem(iLastItemHighlighted))

  001af	85 db		 test	 ebx, ebx
  001b1	78 6a		 js	 SHORT $LN9@HighlightI

; 2077 : 	CBarFolder * pbf = (CBarFolder *) arFolder.GetAt(iSelFolder);

  001b3	8b 8e 34 01 00
	00		 mov	 ecx, DWORD PTR [esi+308]
; File C:\Program Files (x86)\Microsoft Visual Studio\2019\Community\VC\Tools\MSVC\14.29.30133\atlmfc\include\afxcoll.inl

; 203  : 		if( nIndex < 0 || nIndex >= m_nSize )

  001b9	85 c9		 test	 ecx, ecx
  001bb	0f 88 9e 00 00
	00		 js	 $LN62@HighlightI
  001c1	3b 8e 0c 01 00
	00		 cmp	 ecx, DWORD PTR [esi+268]
  001c7	0f 8d 92 00 00
	00		 jge	 $LN62@HighlightI
; File D:\git\src\IBK\IBK_DRFN\ProjSrc\SrcDrfn\Chart\comparechart\control\GfxOutBarCtrl.cpp

; 2078 : 	return (index >= 0 && index < pbf->GetItemCount());

  001cd	8b 86 08 01 00
	00		 mov	 eax, DWORD PTR [esi+264]
  001d3	8b 04 88	 mov	 eax, DWORD PTR [eax+ecx*4]
  001d6	3b 58 1c	 cmp	 ebx, DWORD PTR [eax+28]
  001d9	7d 42		 jge	 SHORT $LN9@HighlightI

; 1925 : 		GetIconRect(iSelFolder, iLastItemHighlighted, rc);

  001db	8d 45 e0	 lea	 eax, DWORD PTR _rc$2[ebp]
  001de	0f 57 c0	 xorps	 xmm0, xmm0
  001e1	50		 push	 eax
  001e2	53		 push	 ebx
  001e3	51		 push	 ecx
  001e4	8b ce		 mov	 ecx, esi
; File C:\Program Files (x86)\Microsoft Visual Studio\2019\Community\VC\Tools\MSVC\14.29.30133\atlmfc\include\atltypes.h

; 528  : 	left = 0;

  001e6	0f 11 45 e0	 movups	 XMMWORD PTR _rc$2[ebp], xmm0
; File D:\git\src\IBK\IBK_DRFN\ProjSrc\SrcDrfn\Chart\comparechart\control\GfxOutBarCtrl.cpp

; 1925 : 		GetIconRect(iSelFolder, iLastItemHighlighted, rc);

  001ea	e8 00 00 00 00	 call	 ?GetIconRect@CGfxOutBarCtrl@@QAEXHHAAVCRect@@@Z ; CGfxOutBarCtrl::GetIconRect
; File C:\Program Files (x86)\Microsoft Visual Studio\2019\Community\VC\Tools\MSVC\14.29.30133\atlmfc\include\atltypes.h

; 686  : 	::InflateRect(this, x, y);

  001ef	6a 01		 push	 1
  001f1	6a 01		 push	 1
  001f3	8d 45 e0	 lea	 eax, DWORD PTR _rc$2[ebp]
  001f6	50		 push	 eax
  001f7	ff 15 00 00 00
	00		 call	 DWORD PTR __imp__InflateRect@12
; File D:\git\src\IBK\IBK_DRFN\ProjSrc\SrcDrfn\Chart\comparechart\control\GfxOutBarCtrl.cpp

; 1927 : 		if (bPressed)

  001fd	80 7d 0c 00	 cmp	 BYTE PTR _bPressed$[ebp], 0
; File C:\Program Files (x86)\Microsoft Visual Studio\2019\Community\VC\Tools\MSVC\14.29.30133\atlmfc\include\atltypes.h

; 686  : 	::InflateRect(this, x, y);

  00201	8b 86 9c 00 00
	00		 mov	 eax, DWORD PTR [esi+156]
  00207	8b 8e 90 00 00
	00		 mov	 ecx, DWORD PTR [esi+144]
; File D:\git\src\IBK\IBK_DRFN\ProjSrc\SrcDrfn\Chart\comparechart\control\GfxOutBarCtrl.cpp

; 1927 : 		if (bPressed)

  0020d	74 4c		 je	 SHORT $LN8@HighlightI

; 1928 : 			dc.Draw3dRect(rc, crDkShadowBorder, cr3dFace);

  0020f	51		 push	 ecx
  00210	50		 push	 eax
$LN104@HighlightI:

; 1931 : 	}
; 1932 : 	dc.RestoreDC(isdc);

  00211	8d 45 e0	 lea	 eax, DWORD PTR _rc$2[ebp]
  00214	50		 push	 eax
  00215	8d 4d b4	 lea	 ecx, DWORD PTR _dc$[ebp]
  00218	e8 00 00 00 00	 call	 ?Draw3dRect@CDC@@QAEXPBUtagRECT@@KK@Z ; CDC::Draw3dRect
$LN9@HighlightI:
  0021d	57		 push	 edi
  0021e	8d 4d b4	 lea	 ecx, DWORD PTR _dc$[ebp]
  00221	e8 00 00 00 00	 call	 ?RestoreDC@CDC@@UAEHH@Z	; CDC::RestoreDC
$LN14@HighlightI:
; File C:\Program Files (x86)\Microsoft Visual Studio\2019\Community\VC\Tools\MSVC\14.29.30133\atlmfc\include\afxwin1.inl

; 266  : 	{ }

  00226	8d 4d c8	 lea	 ecx, DWORD PTR _itemRegion$[ebp]
  00229	c7 45 c8 00 00
	00 00		 mov	 DWORD PTR _itemRegion$[ebp], OFFSET ??_7CRgn@@6B@
  00230	e8 00 00 00 00	 call	 ??1CGdiObject@@UAE@XZ	; CGdiObject::~CGdiObject
; File D:\git\src\IBK\IBK_DRFN\ProjSrc\SrcDrfn\Chart\comparechart\control\GfxOutBarCtrl.cpp

; 1933 : }

  00235	8d 4d b4	 lea	 ecx, DWORD PTR _dc$[ebp]
  00238	e8 00 00 00 00	 call	 ??1CClientDC@@UAE@XZ	; CClientDC::~CClientDC
$LN1@HighlightI:
  0023d	8b 4d f4	 mov	 ecx, DWORD PTR __$EHRec$[ebp]
  00240	64 89 0d 00 00
	00 00		 mov	 DWORD PTR fs:0, ecx
  00247	59		 pop	 ecx
  00248	5f		 pop	 edi
  00249	5e		 pop	 esi
  0024a	5b		 pop	 ebx
  0024b	8b 4d f0	 mov	 ecx, DWORD PTR __$ArrayPad$[ebp]
  0024e	33 cd		 xor	 ecx, ebp
  00250	e8 00 00 00 00	 call	 @__security_check_cookie@4
  00255	8b e5		 mov	 esp, ebp
  00257	5d		 pop	 ebp
  00258	c2 08 00	 ret	 8
$LN8@HighlightI:

; 1929 : 		else
; 1930 : 			dc.Draw3dRect(rc, cr3dFace, crDkShadowBorder);

  0025b	50		 push	 eax
  0025c	51		 push	 ecx
  0025d	eb b2		 jmp	 SHORT $LN104@HighlightI
$LN62@HighlightI:
; File C:\Program Files (x86)\Microsoft Visual Studio\2019\Community\VC\Tools\MSVC\14.29.30133\atlmfc\include\afxcoll.inl

; 204  : 			AfxThrowInvalidArgException();

  0025f	e8 00 00 00 00	 call	 ?AfxThrowInvalidArgException@@YGXXZ ; AfxThrowInvalidArgException
$LN103@HighlightI:
  00264	cc		 int	 3
_TEXT	ENDS
;	COMDAT text$x
text$x	SEGMENT
__unwindfunclet$?HighlightItem@CGfxOutBarCtrl@@QAEXH_N@Z$0:
  00000	8d 4d b4	 lea	 ecx, DWORD PTR _dc$[ebp]
  00003	e9 00 00 00 00	 jmp	 ??1CClientDC@@UAE@XZ	; CClientDC::~CClientDC
__unwindfunclet$?HighlightItem@CGfxOutBarCtrl@@QAEXH_N@Z$1:
  00008	8d 4d c8	 lea	 ecx, DWORD PTR _itemRegion$[ebp]
  0000b	e9 00 00 00 00	 jmp	 ??1CRgn@@UAE@XZ		; CRgn::~CRgn
  00010	cc		 int	 3
  00011	cc		 int	 3
  00012	cc		 int	 3
  00013	cc		 int	 3
  00014	cc		 int	 3
__ehhandler$?HighlightItem@CGfxOutBarCtrl@@QAEXH_N@Z:
  00015	90		 npad	 1
  00016	90		 npad	 1
  00017	8b 54 24 08	 mov	 edx, DWORD PTR [esp+8]
  0001b	8d 42 0c	 lea	 eax, DWORD PTR [edx+12]
  0001e	8b 4a b0	 mov	 ecx, DWORD PTR [edx-80]
  00021	33 c8		 xor	 ecx, eax
  00023	e8 00 00 00 00	 call	 @__security_check_cookie@4
  00028	8b 4a fc	 mov	 ecx, DWORD PTR [edx-4]
  0002b	33 c8		 xor	 ecx, eax
  0002d	e8 00 00 00 00	 call	 @__security_check_cookie@4
  00032	b8 00 00 00 00	 mov	 eax, OFFSET __ehfuncinfo$?HighlightItem@CGfxOutBarCtrl@@QAEXH_N@Z
  00037	e9 00 00 00 00	 jmp	 ___CxxFrameHandler3
text$x	ENDS
?HighlightItem@CGfxOutBarCtrl@@QAEXH_N@Z ENDP		; CGfxOutBarCtrl::HighlightItem
; Function compile flags: /Ogtp
; File D:\git\src\IBK\IBK_DRFN\ProjSrc\SrcDrfn\Chart\comparechart\control\GfxOutBarCtrl.cpp
; File C:\Program Files (x86)\Microsoft Visual Studio\2019\Community\VC\Tools\MSVC\14.29.30133\atlmfc\include\afxwin2.inl
; File C:\Program Files (x86)\Microsoft Visual Studio\2019\Community\VC\Tools\MSVC\14.29.30133\atlmfc\include\atltypes.h
; File C:\Program Files (x86)\Microsoft Visual Studio\2019\Community\VC\Tools\MSVC\14.29.30133\atlmfc\include\afxwin2.inl
; File D:\git\src\IBK\IBK_DRFN\ProjSrc\SrcDrfn\Chart\comparechart\control\GfxOutBarCtrl.cpp
; File C:\Program Files (x86)\Microsoft Visual Studio\2019\Community\VC\Tools\MSVC\14.29.30133\atlmfc\include\afxcoll.inl
; File D:\git\src\IBK\IBK_DRFN\ProjSrc\SrcDrfn\Chart\comparechart\control\GfxOutBarCtrl.cpp
; File C:\Program Files (x86)\Microsoft Visual Studio\2019\Community\VC\Tools\MSVC\14.29.30133\atlmfc\include\afxcoll.inl
; File C:\Program Files (x86)\Microsoft Visual Studio\2019\Community\VC\Tools\MSVC\14.29.30133\atlmfc\include\atltypes.h
; File D:\git\src\IBK\IBK_DRFN\ProjSrc\SrcDrfn\Chart\comparechart\control\GfxOutBarCtrl.cpp
; File C:\Program Files (x86)\Microsoft Visual Studio\2019\Community\VC\Tools\MSVC\14.29.30133\atlmfc\include\afxwin1.inl
; File C:\Program Files (x86)\Microsoft Visual Studio\2019\Community\VC\Tools\MSVC\14.29.30133\atlmfc\include\atltypes.h
; File D:\git\src\IBK\IBK_DRFN\ProjSrc\SrcDrfn\Chart\comparechart\control\GfxOutBarCtrl.cpp
; File C:\Program Files (x86)\Microsoft Visual Studio\2019\Community\VC\Tools\MSVC\14.29.30133\atlmfc\include\atltypes.h
; File D:\git\src\IBK\IBK_DRFN\ProjSrc\SrcDrfn\Chart\comparechart\control\GfxOutBarCtrl.cpp
; File C:\Program Files (x86)\Microsoft Visual Studio\2019\Community\VC\Tools\MSVC\14.29.30133\atlmfc\include\atltypes.h
; File D:\git\src\IBK\IBK_DRFN\ProjSrc\SrcDrfn\Chart\comparechart\control\GfxOutBarCtrl.cpp
; File C:\Program Files (x86)\Microsoft Visual Studio\2019\Community\VC\Tools\MSVC\14.29.30133\atlmfc\include\afxcoll.inl
; File D:\git\src\IBK\IBK_DRFN\ProjSrc\SrcDrfn\Chart\comparechart\control\GfxOutBarCtrl.cpp
;	COMDAT ?GetIconRect@CGfxOutBarCtrl@@QAEXHHAAVCRect@@@Z
_TEXT	SEGMENT
$T2 = -96						; size = 8
_rect$GSCopy$1$ = -88					; size = 4
_iIndex$GSCopy$1$ = -84					; size = 4
_spacing$1$ = -80					; size = 4
_y$1$ = -76						; size = 4
_szImage$2$ = -72					; size = 4
_iFolder$GSCopy$1$ = -72				; size = 4
_ii$3 = -68						; size = 32
$T4 = -36						; size = 16
tv916 = -28						; size = 8
_rc$ = -20						; size = 16
__$ArrayPad$ = -4					; size = 4
_iFolder$ = 8						; size = 4
_iIndex$ = 12						; size = 4
_rect$ = 16						; size = 4
?GetIconRect@CGfxOutBarCtrl@@QAEXHHAAVCRect@@@Z PROC	; CGfxOutBarCtrl::GetIconRect, COMDAT
; _this$ = ecx

; 1936 : {

  00000	55		 push	 ebp
  00001	8b ec		 mov	 ebp, esp
  00003	83 ec 60	 sub	 esp, 96			; 00000060H
  00006	a1 00 00 00 00	 mov	 eax, DWORD PTR ___security_cookie
  0000b	33 c5		 xor	 eax, ebp
  0000d	89 45 fc	 mov	 DWORD PTR __$ArrayPad$[ebp], eax
  00010	8b 45 08	 mov	 eax, DWORD PTR _iFolder$[ebp]
  00013	0f 57 c0	 xorps	 xmm0, xmm0
  00016	53		 push	 ebx
  00017	89 45 b8	 mov	 DWORD PTR _iFolder$GSCopy$1$[ebp], eax
  0001a	8b 45 0c	 mov	 eax, DWORD PTR _iIndex$[ebp]
  0001d	56		 push	 esi
  0001e	89 45 ac	 mov	 DWORD PTR _iIndex$GSCopy$1$[ebp], eax
  00021	8b f1		 mov	 esi, ecx
  00023	8b 45 10	 mov	 eax, DWORD PTR _rect$[ebp]
  00026	57		 push	 edi
  00027	89 45 a8	 mov	 DWORD PTR _rect$GSCopy$1$[ebp], eax
; File C:\Program Files (x86)\Microsoft Visual Studio\2019\Community\VC\Tools\MSVC\14.29.30133\atlmfc\include\afxwin2.inl

; 86   : 	{ ASSERT(::IsWindow(m_hWnd)); ::GetClientRect(m_hWnd, lpRect); }

  0002a	8d 45 ec	 lea	 eax, DWORD PTR _rc$[ebp]
  0002d	50		 push	 eax
  0002e	ff 76 20	 push	 DWORD PTR [esi+32]
; File C:\Program Files (x86)\Microsoft Visual Studio\2019\Community\VC\Tools\MSVC\14.29.30133\atlmfc\include\atltypes.h

; 528  : 	left = 0;

  00031	0f 11 45 ec	 movups	 XMMWORD PTR _rc$[ebp], xmm0
; File C:\Program Files (x86)\Microsoft Visual Studio\2019\Community\VC\Tools\MSVC\14.29.30133\atlmfc\include\afxwin2.inl

; 86   : 	{ ASSERT(::IsWindow(m_hWnd)); ::GetClientRect(m_hWnd, lpRect); }

  00035	ff 15 00 00 00
	00		 call	 DWORD PTR __imp__GetClientRect@8
; File D:\git\src\IBK\IBK_DRFN\ProjSrc\SrcDrfn\Chart\comparechart\control\GfxOutBarCtrl.cpp

; 746  : 	if (arFolder.GetSize() > 0)

  0003b	8b be 0c 01 00
	00		 mov	 edi, DWORD PTR [esi+268]
  00041	8b 5d f0	 mov	 ebx, DWORD PTR _rc$[ebp+4]
  00044	85 ff		 test	 edi, edi
  00046	7e 20		 jle	 SHORT $LN14@GetIconRec

; 747  : 	{
; 748  : 		int max = arFolder.GetSize();
; 749  : 		rect.top += iFolderHeight * (iSelFolder + 1); + 1;//+ 2;

  00048	8b 8e 34 01 00
	00		 mov	 ecx, DWORD PTR [esi+308]

; 750  : 		rect.bottom -= (max - iSelFolder - 1)*iFolderHeight;

  0004e	2b f9		 sub	 edi, ecx
  00050	8b 96 a0 00 00
	00		 mov	 edx, DWORD PTR [esi+160]
  00056	4f		 dec	 edi
  00057	0f af fa	 imul	 edi, edx
  0005a	8d 41 01	 lea	 eax, DWORD PTR [ecx+1]
  0005d	0f af c2	 imul	 eax, edx
  00060	03 d8		 add	 ebx, eax
  00062	29 7d f8	 sub	 DWORD PTR _rc$[ebp+12], edi
  00065	89 5d f0	 mov	 DWORD PTR _rc$[ebp+4], ebx
$LN14@GetIconRec:

; 184  : 	return dwFlags&fSmallIcon;

  00068	f6 86 00 01 00
	00 01		 test	 BYTE PTR [esi+256], 1

; 1937 : 	CRect rc;
; 1938 : 	GetInsideRect(rc);
; 1939 : 	int top = rc.top;
; 1940 : 	CSize sz(0,0);
; 1941 : 	int y = 0;

  0006f	c7 45 b4 00 00
	00 00		 mov	 DWORD PTR _y$1$[ebp], 0

; 1942 : 	int spacing = IsSmallIconView() ? ySmallIconSpacing : yLargeIconSpacing;

  00076	74 08		 je	 SHORT $LN9@GetIconRec
  00078	8b 96 b0 00 00
	00		 mov	 edx, DWORD PTR [esi+176]
  0007e	eb 06		 jmp	 SHORT $LN127@GetIconRec
$LN9@GetIconRec:
  00080	8b 96 b4 00 00
	00		 mov	 edx, DWORD PTR [esi+180]
$LN127@GetIconRec:

; 1943 : 
; 1944 : 	for (int t = 0; t < iIndex; t++)

  00086	8b 4d ac	 mov	 ecx, DWORD PTR _iIndex$GSCopy$1$[ebp]
  00089	33 ff		 xor	 edi, edi
  0008b	89 55 b0	 mov	 DWORD PTR _spacing$1$[ebp], edx
  0008e	85 c9		 test	 ecx, ecx
  00090	7e 3b		 jle	 SHORT $LN3@GetIconRec
$LL4@GetIconRec:

; 1945 : 	{
; 1946 : 		sz = GetItemSize(iFolder, t, ircAll);

  00092	6a 03		 push	 3
  00094	57		 push	 edi
  00095	ff 75 b8	 push	 DWORD PTR _iFolder$GSCopy$1$[ebp]
  00098	8d 45 a0	 lea	 eax, DWORD PTR $T2[ebp]
  0009b	8b ce		 mov	 ecx, esi
  0009d	50		 push	 eax
  0009e	e8 00 00 00 00	 call	 ?GetItemSize@CGfxOutBarCtrl@@QAE?AVCSize@@HHH@Z ; CGfxOutBarCtrl::GetItemSize

; 1947 : 		top += sz.cy;
; 1948 : 		top += spacing;

  000a3	8b 55 b0	 mov	 edx, DWORD PTR _spacing$1$[ebp]
  000a6	8b 08		 mov	 ecx, DWORD PTR [eax]
  000a8	8b 40 04	 mov	 eax, DWORD PTR [eax+4]
  000ab	03 c2		 add	 eax, edx
  000ad	89 4d e4	 mov	 DWORD PTR tv916[ebp], ecx
  000b0	03 d8		 add	 ebx, eax

; 1949 : 		if (t == iFirstItem - 1) y = top - rc.top;

  000b2	8b 86 20 01 00
	00		 mov	 eax, DWORD PTR [esi+288]
  000b8	48		 dec	 eax
  000b9	3b f8		 cmp	 edi, eax
  000bb	75 08		 jne	 SHORT $LN2@GetIconRec
  000bd	8b c3		 mov	 eax, ebx
  000bf	2b 45 f0	 sub	 eax, DWORD PTR _rc$[ebp+4]
  000c2	89 45 b4	 mov	 DWORD PTR _y$1$[ebp], eax
$LN2@GetIconRec:

; 1943 : 
; 1944 : 	for (int t = 0; t < iIndex; t++)

  000c5	8b 4d ac	 mov	 ecx, DWORD PTR _iIndex$GSCopy$1$[ebp]
  000c8	47		 inc	 edi
  000c9	3b f9		 cmp	 edi, ecx
  000cb	7c c5		 jl	 SHORT $LL4@GetIconRec
$LN3@GetIconRec:

; 1950 : 	}
; 1951 : 	top += spacing;

  000cd	03 da		 add	 ebx, edx
; File C:\Program Files (x86)\Microsoft Visual Studio\2019\Community\VC\Tools\MSVC\14.29.30133\atlmfc\include\afxcoll.inl

; 203  : 		if( nIndex < 0 || nIndex >= m_nSize )

  000cf	8b 55 b8	 mov	 edx, DWORD PTR _iFolder$GSCopy$1$[ebp]
  000d2	85 d2		 test	 edx, edx
  000d4	0f 88 42 01 00
	00		 js	 $LN46@GetIconRec
  000da	3b 96 0c 01 00
	00		 cmp	 edx, DWORD PTR [esi+268]
  000e0	0f 8d 36 01 00
	00		 jge	 $LN46@GetIconRec
; File D:\git\src\IBK\IBK_DRFN\ProjSrc\SrcDrfn\Chart\comparechart\control\GfxOutBarCtrl.cpp

; 1638 : 	CBarItem * pi = (CBarItem *) pbf->arItems.GetAt(index);

  000e6	8b 86 08 01 00
	00		 mov	 eax, DWORD PTR [esi+264]
  000ec	8b 14 90	 mov	 edx, DWORD PTR [eax+edx*4]
; File C:\Program Files (x86)\Microsoft Visual Studio\2019\Community\VC\Tools\MSVC\14.29.30133\atlmfc\include\afxcoll.inl

; 203  : 		if( nIndex < 0 || nIndex >= m_nSize )

  000ef	85 c9		 test	 ecx, ecx
  000f1	0f 88 25 01 00
	00		 js	 $LN46@GetIconRec
  000f7	3b 4a 1c	 cmp	 ecx, DWORD PTR [edx+28]
  000fa	0f 8d 1c 01 00
	00		 jge	 $LN46@GetIconRec
; File C:\Program Files (x86)\Microsoft Visual Studio\2019\Community\VC\Tools\MSVC\14.29.30133\atlmfc\include\atltypes.h

; 312  : 	cx = initCX;

  00100	33 c0		 xor	 eax, eax

; 313  : 	cy = initCY;

  00102	33 ff		 xor	 edi, edi
  00104	89 45 b8	 mov	 DWORD PTR _szImage$2$[ebp], eax
; File D:\git\src\IBK\IBK_DRFN\ProjSrc\SrcDrfn\Chart\comparechart\control\GfxOutBarCtrl.cpp

; 1644 : 	if (pi->iImageIndex >= 0)

  00107	8b 42 18	 mov	 eax, DWORD PTR [edx+24]
  0010a	8b 04 88	 mov	 eax, DWORD PTR [eax+ecx*4]
  0010d	8b 48 04	 mov	 ecx, DWORD PTR [eax+4]
  00110	85 c9		 test	 ecx, ecx
  00112	78 56		 js	 SHORT $LN125@GetIconRec

; 184  : 	return dwFlags&fSmallIcon;

  00114	f6 86 00 01 00
	00 01		 test	 BYTE PTR [esi+256], 1

; 1702 : 	if (bSmall)

  0011b	74 0f		 je	 SHORT $LN64@GetIconRec

; 1703 : 	{
; 1704 : 		if (pbf->pSmallImageList) return pbf->pSmallImageList; else return pSmallImageList;

  0011d	8b 42 10	 mov	 eax, DWORD PTR [edx+16]
  00120	85 c0		 test	 eax, eax
  00122	75 19		 jne	 SHORT $LN122@GetIconRec
  00124	8b 86 3c 01 00
	00		 mov	 eax, DWORD PTR [esi+316]
  0012a	eb 0d		 jmp	 SHORT $LN66@GetIconRec
$LN64@GetIconRec:

; 1705 : 	}
; 1706 : 	if (pbf->pLargeImageList) return pbf->pLargeImageList; else return pLargeImageList;

  0012c	8b 42 0c	 mov	 eax, DWORD PTR [edx+12]
  0012f	85 c0		 test	 eax, eax
  00131	75 0a		 jne	 SHORT $LN122@GetIconRec
  00133	8b 86 38 01 00
	00		 mov	 eax, DWORD PTR [esi+312]
$LN66@GetIconRec:

; 1650 : 			if (il)

  00139	85 c0		 test	 eax, eax
  0013b	74 2d		 je	 SHORT $LN125@GetIconRec
$LN122@GetIconRec:
; File C:\Program Files (x86)\Microsoft Visual Studio\2019\Community\VC\Tools\MSVC\14.29.30133\atlmfc\include\afxwin1.inl

; 881  : 	{ ASSERT(m_hImageList != NULL); return ImageList_GetImageInfo(m_hImageList, nImage, pImageInfo); }

  0013d	8d 55 bc	 lea	 edx, DWORD PTR _ii$3[ebp]
  00140	52		 push	 edx
  00141	51		 push	 ecx
  00142	ff 70 04	 push	 DWORD PTR [eax+4]
  00145	ff 15 00 00 00
	00		 call	 DWORD PTR __imp__ImageList_GetImageInfo@12
; File C:\Program Files (x86)\Microsoft Visual Studio\2019\Community\VC\Tools\MSVC\14.29.30133\atlmfc\include\atltypes.h

; 548  : 	::CopyRect(this, &srcRect);

  0014b	8d 45 cc	 lea	 eax, DWORD PTR _ii$3[ebp+16]
  0014e	50		 push	 eax
  0014f	8d 45 dc	 lea	 eax, DWORD PTR $T4[ebp]
  00152	50		 push	 eax
  00153	ff 15 00 00 00
	00		 call	 DWORD PTR __imp__CopyRect@8

; 586  : 	return CSize(right - left, bottom - top);

  00159	8b 4d e4	 mov	 ecx, DWORD PTR $T4[ebp+8]
  0015c	2b 4d dc	 sub	 ecx, DWORD PTR $T4[ebp]
  0015f	8b 7d e8	 mov	 edi, DWORD PTR $T4[ebp+12]
  00162	2b 7d e0	 sub	 edi, DWORD PTR $T4[ebp+4]
  00165	89 4d b8	 mov	 DWORD PTR _szImage$2$[ebp], ecx
; File D:\git\src\IBK\IBK_DRFN\ProjSrc\SrcDrfn\Chart\comparechart\control\GfxOutBarCtrl.cpp

; 1644 : 	if (pi->iImageIndex >= 0)

  00168	eb 02		 jmp	 SHORT $LN25@GetIconRec
$LN125@GetIconRec:

; 184  : 	return dwFlags&fSmallIcon;

  0016a	33 c9		 xor	 ecx, ecx
$LN25@GetIconRec:

; 1680 : 	if (IsSmallIconView())

  0016c	03 fb		 add	 edi, ebx

; 184  : 	return dwFlags&fSmallIcon;

  0016e	f6 86 00 01 00
	00 01		 test	 BYTE PTR [esi+256], 1

; 1680 : 	if (IsSmallIconView())

  00175	57		 push	 edi
  00176	74 59		 je	 SHORT $LN6@GetIconRec
; File C:\Program Files (x86)\Microsoft Visual Studio\2019\Community\VC\Tools\MSVC\14.29.30133\atlmfc\include\atltypes.h

; 657  : 	::SetRect(this, x1, y1, x2, y2);

  00178	8b 4d ec	 mov	 ecx, DWORD PTR _rc$[ebp]
  0017b	8b 45 b8	 mov	 eax, DWORD PTR _szImage$2$[ebp]
  0017e	03 c1		 add	 eax, ecx
  00180	50		 push	 eax
  00181	53		 push	 ebx
  00182	8b 5d a8	 mov	 ebx, DWORD PTR _rect$GSCopy$1$[ebp]
  00185	51		 push	 ecx
  00186	53		 push	 ebx
  00187	ff 15 00 00 00
	00		 call	 DWORD PTR __imp__SetRect@20
; File D:\git\src\IBK\IBK_DRFN\ProjSrc\SrcDrfn\Chart\comparechart\control\GfxOutBarCtrl.cpp

; 1957 : 		rect.left += xLeftMargin + 2;

  0018d	8b 86 b8 00 00
	00		 mov	 eax, DWORD PTR [esi+184]

; 1958 : 		rect.right += xLeftMargin + 2;
; 1959 : 		rect.top -= yTopMargin;
; 1960 : 		rect.bottom -= yTopMargin;
; 1961 : 
; 1962 : 		rect.top -= y;

  00193	8b 55 b4	 mov	 edx, DWORD PTR _y$1$[ebp]
  00196	83 c0 02	 add	 eax, 2
  00199	01 03		 add	 DWORD PTR [ebx], eax
  0019b	8b 86 b8 00 00
	00		 mov	 eax, DWORD PTR [esi+184]
  001a1	83 c0 02	 add	 eax, 2
  001a4	01 43 08	 add	 DWORD PTR [ebx+8], eax
  001a7	8b 86 bc 00 00
	00		 mov	 eax, DWORD PTR [esi+188]
  001ad	29 43 04	 sub	 DWORD PTR [ebx+4], eax
  001b0	8b 86 bc 00 00
	00		 mov	 eax, DWORD PTR [esi+188]
  001b6	29 53 04	 sub	 DWORD PTR [ebx+4], edx

; 1963 : 		rect.bottom -= y;

  001b9	03 c2		 add	 eax, edx
  001bb	29 43 0c	 sub	 DWORD PTR [ebx+12], eax
  001be	5f		 pop	 edi

; 1971 : }

  001bf	5e		 pop	 esi
  001c0	5b		 pop	 ebx
  001c1	8b 4d fc	 mov	 ecx, DWORD PTR __$ArrayPad$[ebp]
  001c4	33 cd		 xor	 ecx, ebp
  001c6	e8 00 00 00 00	 call	 @__security_check_cookie@4
  001cb	8b e5		 mov	 esp, ebp
  001cd	5d		 pop	 ebp
  001ce	c2 0c 00	 ret	 12			; 0000000cH
$LN6@GetIconRec:

; 1964 : 	}
; 1965 : 	else
; 1966 : 	{
; 1967 : 		rect.SetRect(rc.left + (rc.Width() - sz.cx)/2, top, rc.left + (rc.Width() - sz.cx)/2 + sz.cx, top + sz.cy);

  001d1	8b 45 f4	 mov	 eax, DWORD PTR _rc$[ebp+8]
  001d4	8b 75 ec	 mov	 esi, DWORD PTR _rc$[ebp]
  001d7	2b c1		 sub	 eax, ecx
  001d9	2b c6		 sub	 eax, esi
  001db	99		 cdq
  001dc	2b c2		 sub	 eax, edx
  001de	d1 f8		 sar	 eax, 1
  001e0	03 c8		 add	 ecx, eax
  001e2	03 c6		 add	 eax, esi
  001e4	03 ce		 add	 ecx, esi
; File C:\Program Files (x86)\Microsoft Visual Studio\2019\Community\VC\Tools\MSVC\14.29.30133\atlmfc\include\atltypes.h

; 657  : 	::SetRect(this, x1, y1, x2, y2);

  001e6	51		 push	 ecx
  001e7	53		 push	 ebx
  001e8	8b 5d a8	 mov	 ebx, DWORD PTR _rect$GSCopy$1$[ebp]
  001eb	50		 push	 eax
  001ec	53		 push	 ebx
  001ed	ff 15 00 00 00
	00		 call	 DWORD PTR __imp__SetRect@20
; File D:\git\src\IBK\IBK_DRFN\ProjSrc\SrcDrfn\Chart\comparechart\control\GfxOutBarCtrl.cpp

; 1971 : }

  001f3	8b 4d fc	 mov	 ecx, DWORD PTR __$ArrayPad$[ebp]
  001f6	b8 fd ff ff ff	 mov	 eax, -3			; fffffffdH
  001fb	2b 45 b4	 sub	 eax, DWORD PTR _y$1$[ebp]
  001fe	33 cd		 xor	 ecx, ebp
  00200	01 43 04	 add	 DWORD PTR [ebx+4], eax
  00203	b8 fe ff ff ff	 mov	 eax, -2			; fffffffeH
  00208	2b 45 b4	 sub	 eax, DWORD PTR _y$1$[ebp]
  0020b	01 43 0c	 add	 DWORD PTR [ebx+12], eax
  0020e	5f		 pop	 edi
  0020f	5e		 pop	 esi
  00210	5b		 pop	 ebx
  00211	e8 00 00 00 00	 call	 @__security_check_cookie@4
  00216	8b e5		 mov	 esp, ebp
  00218	5d		 pop	 ebp
  00219	c2 0c 00	 ret	 12			; 0000000cH
$LN46@GetIconRec:
; File C:\Program Files (x86)\Microsoft Visual Studio\2019\Community\VC\Tools\MSVC\14.29.30133\atlmfc\include\afxcoll.inl

; 204  : 			AfxThrowInvalidArgException();

  0021c	e8 00 00 00 00	 call	 ?AfxThrowInvalidArgException@@YGXXZ ; AfxThrowInvalidArgException
$LN126@GetIconRec:
  00221	cc		 int	 3
?GetIconRect@CGfxOutBarCtrl@@QAEXHHAAVCRect@@@Z ENDP	; CGfxOutBarCtrl::GetIconRect
_TEXT	ENDS
; Function compile flags: /Ogtp
; File D:\git\src\IBK\IBK_DRFN\ProjSrc\SrcDrfn\Chart\comparechart\control\GfxOutBarCtrl.cpp
; File C:\Program Files (x86)\Microsoft Visual Studio\2019\Community\VC\Tools\MSVC\14.29.30133\atlmfc\include\afxwin2.inl
; File C:\Program Files (x86)\Microsoft Visual Studio\2019\Community\VC\Tools\MSVC\14.29.30133\atlmfc\include\atltypes.h
; File C:\Program Files (x86)\Microsoft Visual Studio\2019\Community\VC\Tools\MSVC\14.29.30133\atlmfc\include\afxwin2.inl
; File D:\git\src\IBK\IBK_DRFN\ProjSrc\SrcDrfn\Chart\comparechart\control\GfxOutBarCtrl.cpp
; File C:\Program Files (x86)\Microsoft Visual Studio\2019\Community\VC\Tools\MSVC\14.29.30133\atlmfc\include\atltypes.h
; File D:\git\src\IBK\IBK_DRFN\ProjSrc\SrcDrfn\Chart\comparechart\control\GfxOutBarCtrl.cpp
; File C:\Program Files (x86)\Microsoft Visual Studio\2019\Community\VC\Tools\MSVC\14.29.30133\atlmfc\include\atltypes.h
; File D:\git\src\IBK\IBK_DRFN\ProjSrc\SrcDrfn\Chart\comparechart\control\GfxOutBarCtrl.cpp
; File C:\Program Files (x86)\Microsoft Visual Studio\2019\Community\VC\Tools\MSVC\14.29.30133\atlmfc\include\atltypes.h
; File D:\git\src\IBK\IBK_DRFN\ProjSrc\SrcDrfn\Chart\comparechart\control\GfxOutBarCtrl.cpp
; File C:\Program Files (x86)\Microsoft Visual Studio\2019\Community\VC\Tools\MSVC\14.29.30133\atlmfc\include\atltypes.h
; File D:\git\src\IBK\IBK_DRFN\ProjSrc\SrcDrfn\Chart\comparechart\control\GfxOutBarCtrl.cpp
;	COMDAT ?GetLabelRect@CGfxOutBarCtrl@@QAEXHHAAVCRect@@@Z
_TEXT	SEGMENT
$T1 = -60						; size = 8
tv377 = -52						; size = 8
$T2 = -52						; size = 8
_y$1$ = -44						; size = 4
_rect$GSCopy$1$ = -40					; size = 4
_szLabel$ = -36						; size = 8
_iFolder$GSCopy$1$ = -32				; size = 4
tv584 = -28						; size = 4
_spacing$1$ = -28					; size = 4
tv608 = -24						; size = 4
_iIndex$GSCopy$1$ = -24					; size = 4
_rc$ = -20						; size = 16
__$ArrayPad$ = -4					; size = 4
_iFolder$ = 8						; size = 4
_iIndex$ = 12						; size = 4
_rect$ = 16						; size = 4
?GetLabelRect@CGfxOutBarCtrl@@QAEXHHAAVCRect@@@Z PROC	; CGfxOutBarCtrl::GetLabelRect, COMDAT
; _this$ = ecx

; 1974 : {

  00000	55		 push	 ebp
  00001	8b ec		 mov	 ebp, esp
  00003	83 ec 3c	 sub	 esp, 60			; 0000003cH
  00006	a1 00 00 00 00	 mov	 eax, DWORD PTR ___security_cookie
  0000b	33 c5		 xor	 eax, ebp
  0000d	89 45 fc	 mov	 DWORD PTR __$ArrayPad$[ebp], eax
  00010	8b 45 08	 mov	 eax, DWORD PTR _iFolder$[ebp]
  00013	0f 57 c0	 xorps	 xmm0, xmm0
  00016	53		 push	 ebx
  00017	89 45 e0	 mov	 DWORD PTR _iFolder$GSCopy$1$[ebp], eax
  0001a	8b 45 0c	 mov	 eax, DWORD PTR _iIndex$[ebp]
  0001d	56		 push	 esi
  0001e	57		 push	 edi
  0001f	89 45 e8	 mov	 DWORD PTR _iIndex$GSCopy$1$[ebp], eax
  00022	8b f9		 mov	 edi, ecx
  00024	8b 45 10	 mov	 eax, DWORD PTR _rect$[ebp]
  00027	89 45 d8	 mov	 DWORD PTR _rect$GSCopy$1$[ebp], eax
; File C:\Program Files (x86)\Microsoft Visual Studio\2019\Community\VC\Tools\MSVC\14.29.30133\atlmfc\include\afxwin2.inl

; 86   : 	{ ASSERT(::IsWindow(m_hWnd)); ::GetClientRect(m_hWnd, lpRect); }

  0002a	8d 45 ec	 lea	 eax, DWORD PTR _rc$[ebp]
  0002d	50		 push	 eax
  0002e	ff 77 20	 push	 DWORD PTR [edi+32]
; File C:\Program Files (x86)\Microsoft Visual Studio\2019\Community\VC\Tools\MSVC\14.29.30133\atlmfc\include\atltypes.h

; 528  : 	left = 0;

  00031	0f 11 45 ec	 movups	 XMMWORD PTR _rc$[ebp], xmm0
; File C:\Program Files (x86)\Microsoft Visual Studio\2019\Community\VC\Tools\MSVC\14.29.30133\atlmfc\include\afxwin2.inl

; 86   : 	{ ASSERT(::IsWindow(m_hWnd)); ::GetClientRect(m_hWnd, lpRect); }

  00035	ff 15 00 00 00
	00		 call	 DWORD PTR __imp__GetClientRect@8
; File D:\git\src\IBK\IBK_DRFN\ProjSrc\SrcDrfn\Chart\comparechart\control\GfxOutBarCtrl.cpp

; 746  : 	if (arFolder.GetSize() > 0)

  0003b	8b b7 0c 01 00
	00		 mov	 esi, DWORD PTR [edi+268]
  00041	8b 5d f0	 mov	 ebx, DWORD PTR _rc$[ebp+4]
  00044	85 f6		 test	 esi, esi
  00046	7e 20		 jle	 SHORT $LN14@GetLabelRe

; 747  : 	{
; 748  : 		int max = arFolder.GetSize();
; 749  : 		rect.top += iFolderHeight * (iSelFolder + 1); + 1;//+ 2;

  00048	8b 8f 34 01 00
	00		 mov	 ecx, DWORD PTR [edi+308]

; 750  : 		rect.bottom -= (max - iSelFolder - 1)*iFolderHeight;

  0004e	2b f1		 sub	 esi, ecx
  00050	8b 97 a0 00 00
	00		 mov	 edx, DWORD PTR [edi+160]
  00056	4e		 dec	 esi
  00057	0f af f2	 imul	 esi, edx
  0005a	8d 41 01	 lea	 eax, DWORD PTR [ecx+1]
  0005d	0f af c2	 imul	 eax, edx
  00060	03 d8		 add	 ebx, eax
  00062	29 75 f8	 sub	 DWORD PTR _rc$[ebp+12], esi
  00065	89 5d f0	 mov	 DWORD PTR _rc$[ebp+4], ebx
$LN14@GetLabelRe:

; 184  : 	return dwFlags&fSmallIcon;

  00068	f6 87 00 01 00
	00 01		 test	 BYTE PTR [edi+256], 1

; 1975 : 	CRect rc;
; 1976 : 	GetInsideRect(rc);
; 1977 : 	int top = rc.top;
; 1978 : 	CSize sz(0,0);
; 1979 : 	int y = 0;

  0006f	c7 45 d4 00 00
	00 00		 mov	 DWORD PTR _y$1$[ebp], 0

; 1980 : 	int spacing = IsSmallIconView() ? ySmallIconSpacing : yLargeIconSpacing;

  00076	74 08		 je	 SHORT $LN9@GetLabelRe
  00078	8b 8f b0 00 00
	00		 mov	 ecx, DWORD PTR [edi+176]
  0007e	eb 06		 jmp	 SHORT $LN37@GetLabelRe
$LN9@GetLabelRe:
  00080	8b 8f b4 00 00
	00		 mov	 ecx, DWORD PTR [edi+180]
$LN37@GetLabelRe:

; 1981 : 
; 1982 : 	for (int t = 0; t < iIndex; t++)

  00086	33 f6		 xor	 esi, esi
  00088	89 4d e4	 mov	 DWORD PTR _spacing$1$[ebp], ecx
  0008b	39 75 e8	 cmp	 DWORD PTR _iIndex$GSCopy$1$[ebp], esi
  0008e	7e 39		 jle	 SHORT $LN3@GetLabelRe
$LL4@GetLabelRe:

; 1983 : 	{
; 1984 : 		sz = GetItemSize(iFolder, t, ircAll);

  00090	6a 03		 push	 3
  00092	56		 push	 esi
  00093	ff 75 e0	 push	 DWORD PTR _iFolder$GSCopy$1$[ebp]
  00096	8d 45 c4	 lea	 eax, DWORD PTR $T1[ebp]
  00099	8b cf		 mov	 ecx, edi
  0009b	50		 push	 eax
  0009c	e8 00 00 00 00	 call	 ?GetItemSize@CGfxOutBarCtrl@@QAE?AVCSize@@HHH@Z ; CGfxOutBarCtrl::GetItemSize
  000a1	8b 08		 mov	 ecx, DWORD PTR [eax]
  000a3	8b 40 04	 mov	 eax, DWORD PTR [eax+4]
  000a6	89 4d cc	 mov	 DWORD PTR tv377[ebp], ecx

; 1985 : 		top += sz.cy;
; 1986 : 		top += spacing;

  000a9	8b 4d e4	 mov	 ecx, DWORD PTR _spacing$1$[ebp]
  000ac	03 c1		 add	 eax, ecx
  000ae	03 d8		 add	 ebx, eax

; 1987 : 		if (t == iFirstItem - 1) y = top - rc.top;

  000b0	8b 87 20 01 00
	00		 mov	 eax, DWORD PTR [edi+288]
  000b6	48		 dec	 eax
  000b7	3b f0		 cmp	 esi, eax
  000b9	75 08		 jne	 SHORT $LN2@GetLabelRe
  000bb	8b c3		 mov	 eax, ebx
  000bd	2b 45 f0	 sub	 eax, DWORD PTR _rc$[ebp+4]
  000c0	89 45 d4	 mov	 DWORD PTR _y$1$[ebp], eax
$LN2@GetLabelRe:

; 1981 : 
; 1982 : 	for (int t = 0; t < iIndex; t++)

  000c3	46		 inc	 esi
  000c4	3b 75 e8	 cmp	 esi, DWORD PTR _iIndex$GSCopy$1$[ebp]
  000c7	7c c7		 jl	 SHORT $LL4@GetLabelRe
$LN3@GetLabelRe:

; 1988 : 	}
; 1989 : 	top += spacing;
; 1990 : 
; 1991 : 	sz = GetItemSize(iFolder, iIndex, ircAll);

  000c9	8b 75 e8	 mov	 esi, DWORD PTR _iIndex$GSCopy$1$[ebp]
  000cc	8d 45 cc	 lea	 eax, DWORD PTR $T2[ebp]
  000cf	6a 03		 push	 3
  000d1	56		 push	 esi
  000d2	ff 75 e0	 push	 DWORD PTR _iFolder$GSCopy$1$[ebp]
  000d5	03 d9		 add	 ebx, ecx
  000d7	8b cf		 mov	 ecx, edi
  000d9	50		 push	 eax
  000da	e8 00 00 00 00	 call	 ?GetItemSize@CGfxOutBarCtrl@@QAE?AVCSize@@HHH@Z ; CGfxOutBarCtrl::GetItemSize

; 1992 : 
; 1993 : 	CSize szLabel = GetItemSize(iFolder, iIndex, ircLabel);

  000df	6a 02		 push	 2
  000e1	56		 push	 esi
  000e2	ff 75 e0	 push	 DWORD PTR _iFolder$GSCopy$1$[ebp]
  000e5	8b 08		 mov	 ecx, DWORD PTR [eax]
  000e7	8b 40 04	 mov	 eax, DWORD PTR [eax+4]
  000ea	89 45 e4	 mov	 DWORD PTR tv584[ebp], eax
  000ed	8d 45 dc	 lea	 eax, DWORD PTR _szLabel$[ebp]
  000f0	89 4d e8	 mov	 DWORD PTR tv608[ebp], ecx
  000f3	8b cf		 mov	 ecx, edi
  000f5	50		 push	 eax
  000f6	e8 00 00 00 00	 call	 ?GetItemSize@CGfxOutBarCtrl@@QAE?AVCSize@@HHH@Z ; CGfxOutBarCtrl::GetItemSize

; 184  : 	return dwFlags&fSmallIcon;

  000fb	f6 87 00 01 00
	00 01		 test	 BYTE PTR [edi+256], 1

; 1994 : 
; 1995 : 	if (IsSmallIconView())

  00102	74 60		 je	 SHORT $LN6@GetLabelRe

; 1997 : 		rect.SetRect(rc.left, top, rc.left + sz.cx, top + sz.cy);

  00104	8b 45 e4	 mov	 eax, DWORD PTR tv584[ebp]
; File C:\Program Files (x86)\Microsoft Visual Studio\2019\Community\VC\Tools\MSVC\14.29.30133\atlmfc\include\atltypes.h

; 657  : 	::SetRect(this, x1, y1, x2, y2);

  00107	8b 4d ec	 mov	 ecx, DWORD PTR _rc$[ebp]
; File D:\git\src\IBK\IBK_DRFN\ProjSrc\SrcDrfn\Chart\comparechart\control\GfxOutBarCtrl.cpp

; 1997 : 		rect.SetRect(rc.left, top, rc.left + sz.cx, top + sz.cy);

  0010a	03 c3		 add	 eax, ebx
; File C:\Program Files (x86)\Microsoft Visual Studio\2019\Community\VC\Tools\MSVC\14.29.30133\atlmfc\include\atltypes.h

; 657  : 	::SetRect(this, x1, y1, x2, y2);

  0010c	50		 push	 eax
  0010d	8b 45 e8	 mov	 eax, DWORD PTR tv608[ebp]
  00110	03 c1		 add	 eax, ecx
  00112	50		 push	 eax
  00113	53		 push	 ebx
  00114	8b 5d d8	 mov	 ebx, DWORD PTR _rect$GSCopy$1$[ebp]
  00117	51		 push	 ecx
  00118	53		 push	 ebx
  00119	ff 15 00 00 00
	00		 call	 DWORD PTR __imp__SetRect@20
; File D:\git\src\IBK\IBK_DRFN\ProjSrc\SrcDrfn\Chart\comparechart\control\GfxOutBarCtrl.cpp

; 1998 : 		rect.left += xLeftMargin + 2;

  0011f	8b 87 b8 00 00
	00		 mov	 eax, DWORD PTR [edi+184]
  00125	83 c0 02	 add	 eax, 2
  00128	01 03		 add	 DWORD PTR [ebx], eax

; 1999 : 		rect.right += xLeftMargin + 2;

  0012a	8b 87 b8 00 00
	00		 mov	 eax, DWORD PTR [edi+184]
  00130	83 c0 02	 add	 eax, 2
  00133	01 43 08	 add	 DWORD PTR [ebx+8], eax

; 2000 : 		rect.top  += yTopMargin - 5;

  00136	8b 87 bc 00 00
	00		 mov	 eax, DWORD PTR [edi+188]
  0013c	83 e8 05	 sub	 eax, 5
  0013f	01 43 04	 add	 DWORD PTR [ebx+4], eax

; 2001 : 		rect.bottom += yTopMargin - 5;

  00142	8b 43 0c	 mov	 eax, DWORD PTR [ebx+12]
  00145	83 c0 fb	 add	 eax, -5			; fffffffbH
  00148	03 87 bc 00 00
	00		 add	 eax, DWORD PTR [edi+188]
  0014e	5f		 pop	 edi

; 2011 : 	}
; 2012 : }

  0014f	5e		 pop	 esi
  00150	89 43 0c	 mov	 DWORD PTR [ebx+12], eax
  00153	5b		 pop	 ebx
  00154	8b 4d fc	 mov	 ecx, DWORD PTR __$ArrayPad$[ebp]
  00157	33 cd		 xor	 ecx, ebp
  00159	e8 00 00 00 00	 call	 @__security_check_cookie@4
  0015e	8b e5		 mov	 esp, ebp
  00160	5d		 pop	 ebp
  00161	c2 0c 00	 ret	 12			; 0000000cH
$LN6@GetLabelRe:

; 2005 : 		rect.SetRect(rc.left + (rc.Width() - sz.cx)/2, top, rc.left + (rc.Width() - sz.cx)/2 + sz.cx, top + sz.cy);

  00164	8b 45 f4	 mov	 eax, DWORD PTR _rc$[ebp+8]
  00167	2b 45 e8	 sub	 eax, DWORD PTR tv608[ebp]
  0016a	8b 75 ec	 mov	 esi, DWORD PTR _rc$[ebp]
  0016d	2b c6		 sub	 eax, esi
  0016f	8b 4d e4	 mov	 ecx, DWORD PTR tv584[ebp]
  00172	03 cb		 add	 ecx, ebx
  00174	99		 cdq
; File C:\Program Files (x86)\Microsoft Visual Studio\2019\Community\VC\Tools\MSVC\14.29.30133\atlmfc\include\atltypes.h

; 657  : 	::SetRect(this, x1, y1, x2, y2);

  00175	51		 push	 ecx
; File D:\git\src\IBK\IBK_DRFN\ProjSrc\SrcDrfn\Chart\comparechart\control\GfxOutBarCtrl.cpp

; 2005 : 		rect.SetRect(rc.left + (rc.Width() - sz.cx)/2, top, rc.left + (rc.Width() - sz.cx)/2 + sz.cx, top + sz.cy);

  00176	8b 4d e8	 mov	 ecx, DWORD PTR tv608[ebp]
  00179	2b c2		 sub	 eax, edx
  0017b	d1 f8		 sar	 eax, 1
  0017d	03 c8		 add	 ecx, eax
  0017f	03 c6		 add	 eax, esi
  00181	03 ce		 add	 ecx, esi
; File C:\Program Files (x86)\Microsoft Visual Studio\2019\Community\VC\Tools\MSVC\14.29.30133\atlmfc\include\atltypes.h

; 657  : 	::SetRect(this, x1, y1, x2, y2);

  00183	51		 push	 ecx
  00184	53		 push	 ebx
  00185	8b 5d d8	 mov	 ebx, DWORD PTR _rect$GSCopy$1$[ebp]
  00188	50		 push	 eax
  00189	53		 push	 ebx
  0018a	ff 15 00 00 00
	00		 call	 DWORD PTR __imp__SetRect@20
; File D:\git\src\IBK\IBK_DRFN\ProjSrc\SrcDrfn\Chart\comparechart\control\GfxOutBarCtrl.cpp

; 2006 : 		rect.top -= y + 3;

  00190	b8 fd ff ff ff	 mov	 eax, -3			; fffffffdH
  00195	2b 45 d4	 sub	 eax, DWORD PTR _y$1$[ebp]
  00198	01 43 04	 add	 DWORD PTR [ebx+4], eax

; 2007 : 		rect.bottom -= y + 2;

  0019b	b8 fe ff ff ff	 mov	 eax, -2			; fffffffeH
  001a0	2b 45 d4	 sub	 eax, DWORD PTR _y$1$[ebp]
  001a3	01 43 0c	 add	 DWORD PTR [ebx+12], eax
  001a6	8b 4b 0c	 mov	 ecx, DWORD PTR [ebx+12]

; 2008 : 
; 2009 : 		rect.bottom -=  yLargeIconSpacing;

  001a9	2b 8f b4 00 00
	00		 sub	 ecx, DWORD PTR [edi+180]

; 2010 : 		rect.top    = rect.bottom - szLabel.cy;

  001af	8b c1		 mov	 eax, ecx
  001b1	2b 45 e0	 sub	 eax, DWORD PTR _szLabel$[ebp+4]
  001b4	89 43 04	 mov	 DWORD PTR [ebx+4], eax

; 2011 : 	}
; 2012 : }

  001b7	89 4b 0c	 mov	 DWORD PTR [ebx+12], ecx
  001ba	8b 4d fc	 mov	 ecx, DWORD PTR __$ArrayPad$[ebp]
  001bd	5f		 pop	 edi
  001be	5e		 pop	 esi
  001bf	33 cd		 xor	 ecx, ebp
  001c1	5b		 pop	 ebx
  001c2	e8 00 00 00 00	 call	 @__security_check_cookie@4
  001c7	8b e5		 mov	 esp, ebp
  001c9	5d		 pop	 ebp
  001ca	c2 0c 00	 ret	 12			; 0000000cH
?GetLabelRect@CGfxOutBarCtrl@@QAEXHHAAVCRect@@@Z ENDP	; CGfxOutBarCtrl::GetLabelRect
_TEXT	ENDS
; Function compile flags: /Ogtp
; File D:\git\src\IBK\IBK_DRFN\ProjSrc\SrcDrfn\Chart\comparechart\control\GfxOutBarCtrl.cpp
; File C:\Program Files (x86)\Microsoft Visual Studio\2019\Community\VC\Tools\MSVC\14.29.30133\atlmfc\include\afxcoll.inl
; File D:\git\src\IBK\IBK_DRFN\ProjSrc\SrcDrfn\Chart\comparechart\control\GfxOutBarCtrl.cpp
; File C:\Program Files (x86)\Microsoft Visual Studio\2019\Community\VC\Tools\MSVC\14.29.30133\atlmfc\include\afxcoll.inl
; File D:\git\src\IBK\IBK_DRFN\ProjSrc\SrcDrfn\Chart\comparechart\control\GfxOutBarCtrl.cpp
;	COMDAT ?SetFolderText@CGfxOutBarCtrl@@QAEXHPBD@Z
_TEXT	SEGMENT
_index$ = 8						; size = 4
_text$ = 12						; size = 4
?SetFolderText@CGfxOutBarCtrl@@QAEXHPBD@Z PROC		; CGfxOutBarCtrl::SetFolderText, COMDAT
; _this$ = ecx

; 147  : {

  00000	55		 push	 ebp
  00001	8b ec		 mov	 ebp, esp
; File C:\Program Files (x86)\Microsoft Visual Studio\2019\Community\VC\Tools\MSVC\14.29.30133\atlmfc\include\afxcoll.inl

; 203  : 		if( nIndex < 0 || nIndex >= m_nSize )

  00003	8b 55 08	 mov	 edx, DWORD PTR _index$[ebp]
  00006	85 d2		 test	 edx, edx
  00008	78 4a		 js	 SHORT $LN6@SetFolderT
  0000a	3b 91 0c 01 00
	00		 cmp	 edx, DWORD PTR [ecx+268]
  00010	7d 42		 jge	 SHORT $LN6@SetFolderT

; 205  : 		return m_pData[nIndex]; }

  00012	8b 81 08 01 00
	00		 mov	 eax, DWORD PTR [ecx+264]
  00018	57		 push	 edi
  00019	8b 3c 90	 mov	 edi, DWORD PTR [eax+edx*4]
; File D:\git\src\IBK\IBK_DRFN\ProjSrc\SrcDrfn\Chart\comparechart\control\GfxOutBarCtrl.cpp

; 150  : 	if (pbf->cName) 

  0001c	8b 47 04	 mov	 eax, DWORD PTR [edi+4]
  0001f	85 c0		 test	 eax, eax
  00021	74 10		 je	 SHORT $LN2@SetFolderT

; 151  : 	{
; 152  : 		delete [] pbf->cName;

  00023	50		 push	 eax
  00024	e8 00 00 00 00	 call	 ??_V@YAXPAX@Z		; operator delete[]
  00029	83 c4 04	 add	 esp, 4

; 153  : 		pbf->cName = NULL;

  0002c	c7 47 04 00 00
	00 00		 mov	 DWORD PTR [edi+4], 0
$LN2@SetFolderT:

; 154  : 	}
; 155  : 	pbf->cName = new char [lstrlen(text)+1];

  00033	ff 75 0c	 push	 DWORD PTR _text$[ebp]
  00036	ff 15 00 00 00
	00		 call	 DWORD PTR __imp__lstrlenA@4
  0003c	40		 inc	 eax
  0003d	50		 push	 eax
  0003e	e8 00 00 00 00	 call	 ??_U@YAPAXI@Z		; operator new[]
  00043	83 c4 04	 add	 esp, 4
  00046	89 47 04	 mov	 DWORD PTR [edi+4], eax

; 156  : 	lstrcpy(pbf->cName, text);

  00049	5f		 pop	 edi
  0004a	89 45 08	 mov	 DWORD PTR _index$[ebp], eax

; 157  : }

  0004d	5d		 pop	 ebp

; 156  : 	lstrcpy(pbf->cName, text);

  0004e	ff 25 00 00 00
	00		 jmp	 DWORD PTR __imp__lstrcpyA@8
$LN6@SetFolderT:
; File C:\Program Files (x86)\Microsoft Visual Studio\2019\Community\VC\Tools\MSVC\14.29.30133\atlmfc\include\afxcoll.inl

; 204  : 			AfxThrowInvalidArgException();

  00054	e8 00 00 00 00	 call	 ?AfxThrowInvalidArgException@@YGXXZ ; AfxThrowInvalidArgException
$LN10@SetFolderT:
  00059	cc		 int	 3
?SetFolderText@CGfxOutBarCtrl@@QAEXHPBD@Z ENDP		; CGfxOutBarCtrl::SetFolderText
_TEXT	ENDS
; Function compile flags: /Ogtp
; File D:\git\src\IBK\IBK_DRFN\ProjSrc\SrcDrfn\Chart\comparechart\control\GfxOutBarCtrl.cpp
; File C:\Program Files (x86)\Microsoft Visual Studio\2019\Community\VC\Tools\MSVC\14.29.30133\atlmfc\include\afxcoll.inl
; File D:\git\src\IBK\IBK_DRFN\ProjSrc\SrcDrfn\Chart\comparechart\control\GfxOutBarCtrl.cpp
; File C:\Program Files (x86)\Microsoft Visual Studio\2019\Community\VC\Tools\MSVC\14.29.30133\atlmfc\include\afxcoll.inl
; File D:\git\src\IBK\IBK_DRFN\ProjSrc\SrcDrfn\Chart\comparechart\control\GfxOutBarCtrl.cpp
; File C:\Program Files (x86)\Microsoft Visual Studio\2019\Community\VC\Tools\MSVC\14.29.30133\atlmfc\include\afxcoll.inl
; File D:\git\src\IBK\IBK_DRFN\ProjSrc\SrcDrfn\Chart\comparechart\control\GfxOutBarCtrl.cpp
; File C:\Program Files (x86)\Microsoft Visual Studio\2019\Community\VC\Tools\MSVC\14.29.30133\atlmfc\include\afxcoll.inl
; File D:\git\src\IBK\IBK_DRFN\ProjSrc\SrcDrfn\Chart\comparechart\control\GfxOutBarCtrl.cpp
;	COMDAT ?SetItemText@CGfxOutBarCtrl@@QAEXHPBD@Z
_TEXT	SEGMENT
_index$ = 8						; size = 4
_text$ = 12						; size = 4
?SetItemText@CGfxOutBarCtrl@@QAEXHPBD@Z PROC		; CGfxOutBarCtrl::SetItemText, COMDAT
; _this$ = ecx

; 160  : {

  00000	55		 push	 ebp
  00001	8b ec		 mov	 ebp, esp

; 161  : 	ASSERT(iSelFolder >= 0 && iSelFolder < GetFolderCount());
; 162  : 	CBarFolder * pbf = (CBarFolder *) arFolder.GetAt(iSelFolder);

  00003	8b 91 34 01 00
	00		 mov	 edx, DWORD PTR [ecx+308]
; File C:\Program Files (x86)\Microsoft Visual Studio\2019\Community\VC\Tools\MSVC\14.29.30133\atlmfc\include\afxcoll.inl

; 203  : 		if( nIndex < 0 || nIndex >= m_nSize )

  00009	85 d2		 test	 edx, edx
  0000b	78 5c		 js	 SHORT $LN6@SetItemTex
  0000d	3b 91 0c 01 00
	00		 cmp	 edx, DWORD PTR [ecx+268]
  00013	7d 54		 jge	 SHORT $LN6@SetItemTex
; File D:\git\src\IBK\IBK_DRFN\ProjSrc\SrcDrfn\Chart\comparechart\control\GfxOutBarCtrl.cpp

; 163  : 	CBarItem * pi = (CBarItem *) pbf->arItems.GetAt(index);

  00015	8b 81 08 01 00
	00		 mov	 eax, DWORD PTR [ecx+264]
; File C:\Program Files (x86)\Microsoft Visual Studio\2019\Community\VC\Tools\MSVC\14.29.30133\atlmfc\include\afxcoll.inl

; 203  : 		if( nIndex < 0 || nIndex >= m_nSize )

  0001b	8b 4d 08	 mov	 ecx, DWORD PTR _index$[ebp]
; File D:\git\src\IBK\IBK_DRFN\ProjSrc\SrcDrfn\Chart\comparechart\control\GfxOutBarCtrl.cpp

; 163  : 	CBarItem * pi = (CBarItem *) pbf->arItems.GetAt(index);

  0001e	8b 04 90	 mov	 eax, DWORD PTR [eax+edx*4]
; File C:\Program Files (x86)\Microsoft Visual Studio\2019\Community\VC\Tools\MSVC\14.29.30133\atlmfc\include\afxcoll.inl

; 203  : 		if( nIndex < 0 || nIndex >= m_nSize )

  00021	85 c9		 test	 ecx, ecx
  00023	78 44		 js	 SHORT $LN6@SetItemTex
  00025	3b 48 1c	 cmp	 ecx, DWORD PTR [eax+28]
  00028	7d 3f		 jge	 SHORT $LN6@SetItemTex

; 205  : 		return m_pData[nIndex]; }

  0002a	8b 40 18	 mov	 eax, DWORD PTR [eax+24]
  0002d	57		 push	 edi
  0002e	8b 3c 88	 mov	 edi, DWORD PTR [eax+ecx*4]
; File D:\git\src\IBK\IBK_DRFN\ProjSrc\SrcDrfn\Chart\comparechart\control\GfxOutBarCtrl.cpp

; 164  : 	if (pi->cItem) 

  00031	8b 47 08	 mov	 eax, DWORD PTR [edi+8]
  00034	85 c0		 test	 eax, eax
  00036	74 10		 je	 SHORT $LN2@SetItemTex

; 165  : 	{
; 166  : 		delete [] pi->cItem;

  00038	50		 push	 eax
  00039	e8 00 00 00 00	 call	 ??_V@YAXPAX@Z		; operator delete[]
  0003e	83 c4 04	 add	 esp, 4

; 167  : 		pi->cItem = NULL;

  00041	c7 47 08 00 00
	00 00		 mov	 DWORD PTR [edi+8], 0
$LN2@SetItemTex:

; 168  : 	}
; 169  : 	pi->cItem = new char [lstrlen(text)+1];

  00048	ff 75 0c	 push	 DWORD PTR _text$[ebp]
  0004b	ff 15 00 00 00
	00		 call	 DWORD PTR __imp__lstrlenA@4
  00051	40		 inc	 eax
  00052	50		 push	 eax
  00053	e8 00 00 00 00	 call	 ??_U@YAPAXI@Z		; operator new[]
  00058	83 c4 04	 add	 esp, 4
  0005b	89 47 08	 mov	 DWORD PTR [edi+8], eax

; 170  : 	lstrcpy(pi->cItem, text);

  0005e	5f		 pop	 edi
  0005f	89 45 08	 mov	 DWORD PTR _index$[ebp], eax

; 171  : }

  00062	5d		 pop	 ebp

; 170  : 	lstrcpy(pi->cItem, text);

  00063	ff 25 00 00 00
	00		 jmp	 DWORD PTR __imp__lstrcpyA@8
$LN6@SetItemTex:
; File C:\Program Files (x86)\Microsoft Visual Studio\2019\Community\VC\Tools\MSVC\14.29.30133\atlmfc\include\afxcoll.inl

; 204  : 			AfxThrowInvalidArgException();

  00069	e8 00 00 00 00	 call	 ?AfxThrowInvalidArgException@@YGXXZ ; AfxThrowInvalidArgException
$LN14@SetItemTex:
  0006e	cc		 int	 3
?SetItemText@CGfxOutBarCtrl@@QAEXHPBD@Z ENDP		; CGfxOutBarCtrl::SetItemText
_TEXT	ENDS
; Function compile flags: /Ogtp
; File D:\git\src\IBK\IBK_DRFN\ProjSrc\SrcDrfn\Chart\comparechart\control\GfxOutBarCtrl.cpp
; File C:\Program Files (x86)\Microsoft Visual Studio\2019\Community\VC\Tools\MSVC\14.29.30133\atlmfc\include\afxcoll.inl
; File D:\git\src\IBK\IBK_DRFN\ProjSrc\SrcDrfn\Chart\comparechart\control\GfxOutBarCtrl.cpp
; File C:\Program Files (x86)\Microsoft Visual Studio\2019\Community\VC\Tools\MSVC\14.29.30133\atlmfc\include\afxwin2.inl
; File C:\Program Files (x86)\Microsoft Visual Studio\2019\Community\VC\Tools\MSVC\14.29.30133\atlmfc\include\atltypes.h
; File C:\Program Files (x86)\Microsoft Visual Studio\2019\Community\VC\Tools\MSVC\14.29.30133\atlmfc\include\afxwin2.inl
; File D:\git\src\IBK\IBK_DRFN\ProjSrc\SrcDrfn\Chart\comparechart\control\GfxOutBarCtrl.cpp
; File C:\Program Files (x86)\Microsoft Visual Studio\2019\Community\VC\Tools\MSVC\14.29.30133\atlmfc\include\afxwin2.inl
; File D:\git\src\IBK\IBK_DRFN\ProjSrc\SrcDrfn\Chart\comparechart\control\GfxOutBarCtrl.cpp
; File C:\Program Files (x86)\Microsoft Visual Studio\2019\Community\VC\Tools\MSVC\14.29.30133\atlmfc\include\afxcoll.inl
; File D:\git\src\IBK\IBK_DRFN\ProjSrc\SrcDrfn\Chart\comparechart\control\GfxOutBarCtrl.cpp
;	COMDAT ?RemoveItem@CGfxOutBarCtrl@@QAEXH@Z
_TEXT	SEGMENT
_rc$1 = -20						; size = 16
__$ArrayPad$ = -4					; size = 4
_index$ = 8						; size = 4
?RemoveItem@CGfxOutBarCtrl@@QAEXH@Z PROC		; CGfxOutBarCtrl::RemoveItem, COMDAT
; _this$ = ecx

; 2058 : {

  00000	55		 push	 ebp
  00001	8b ec		 mov	 ebp, esp
  00003	83 ec 14	 sub	 esp, 20			; 00000014H
  00006	a1 00 00 00 00	 mov	 eax, DWORD PTR ___security_cookie
  0000b	33 c5		 xor	 eax, ebp
  0000d	89 45 fc	 mov	 DWORD PTR __$ArrayPad$[ebp], eax
  00010	56		 push	 esi
  00011	8b f1		 mov	 esi, ecx
  00013	57		 push	 edi
  00014	8b 7d 08	 mov	 edi, DWORD PTR _index$[ebp]

; 2059 : 	ASSERT(iSelFolder >= 0 && iSelFolder < GetFolderCount());
; 2060 : 	CBarFolder * pbf = (CBarFolder *) arFolder.GetAt(iSelFolder);

  00017	8b 8e 34 01 00
	00		 mov	 ecx, DWORD PTR [esi+308]
; File C:\Program Files (x86)\Microsoft Visual Studio\2019\Community\VC\Tools\MSVC\14.29.30133\atlmfc\include\afxcoll.inl

; 203  : 		if( nIndex < 0 || nIndex >= m_nSize )

  0001d	85 c9		 test	 ecx, ecx
  0001f	0f 88 9a 00 00
	00		 js	 $LN8@RemoveItem
  00025	3b 8e 0c 01 00
	00		 cmp	 ecx, DWORD PTR [esi+268]
  0002b	0f 8d 8e 00 00
	00		 jge	 $LN8@RemoveItem

; 205  : 		return m_pData[nIndex]; }

  00031	8b 86 08 01 00
	00		 mov	 eax, DWORD PTR [esi+264]
  00037	8b 04 88	 mov	 eax, DWORD PTR [eax+ecx*4]
; File D:\git\src\IBK\IBK_DRFN\ProjSrc\SrcDrfn\Chart\comparechart\control\GfxOutBarCtrl.cpp

; 2078 : 	return (index >= 0 && index < pbf->GetItemCount());

  0003a	85 ff		 test	 edi, edi
  0003c	78 6f		 js	 SHORT $LN2@RemoveItem
  0003e	3b 78 1c	 cmp	 edi, DWORD PTR [eax+28]
  00041	7d 6a		 jge	 SHORT $LN2@RemoveItem
  00043	53		 push	 ebx
  00044	8d 58 14	 lea	 ebx, DWORD PTR [eax+20]

; 2061 : 	ASSERT(index >= 0 && index < pbf->GetItemCount());
; 2062 : 	if (IsValidItem(index))
; 2063 : 	{
; 2064 : 		CBarItem * i = (CBarItem *) pbf->arItems.GetAt(index);
; 2065 : 		delete i;

  00047	8b 40 18	 mov	 eax, DWORD PTR [eax+24]
  0004a	8b 0c b8	 mov	 ecx, DWORD PTR [eax+edi*4]
  0004d	85 c9		 test	 ecx, ecx
  0004f	74 06		 je	 SHORT $LN4@RemoveItem
  00051	8b 01		 mov	 eax, DWORD PTR [ecx]
  00053	6a 01		 push	 1
  00055	ff 10		 call	 DWORD PTR [eax]
$LN4@RemoveItem:

; 2066 : 
; 2067 : 		pbf->arItems.RemoveAt(index);

  00057	6a 01		 push	 1
  00059	57		 push	 edi
  0005a	8b cb		 mov	 ecx, ebx
  0005c	e8 00 00 00 00	 call	 ?RemoveAt@CPtrArray@@QAEXHH@Z ; CPtrArray::RemoveAt
; File C:\Program Files (x86)\Microsoft Visual Studio\2019\Community\VC\Tools\MSVC\14.29.30133\atlmfc\include\afxwin2.inl

; 86   : 	{ ASSERT(::IsWindow(m_hWnd)); ::GetClientRect(m_hWnd, lpRect); }

  00061	8d 45 ec	 lea	 eax, DWORD PTR _rc$1[ebp]
  00064	0f 57 c0	 xorps	 xmm0, xmm0
  00067	50		 push	 eax
  00068	ff 76 20	 push	 DWORD PTR [esi+32]
; File C:\Program Files (x86)\Microsoft Visual Studio\2019\Community\VC\Tools\MSVC\14.29.30133\atlmfc\include\atltypes.h

; 528  : 	left = 0;

  0006b	0f 11 45 ec	 movups	 XMMWORD PTR _rc$1[ebp], xmm0
; File C:\Program Files (x86)\Microsoft Visual Studio\2019\Community\VC\Tools\MSVC\14.29.30133\atlmfc\include\afxwin2.inl

; 86   : 	{ ASSERT(::IsWindow(m_hWnd)); ::GetClientRect(m_hWnd, lpRect); }

  0006f	ff 15 00 00 00
	00		 call	 DWORD PTR __imp__GetClientRect@8
; File D:\git\src\IBK\IBK_DRFN\ProjSrc\SrcDrfn\Chart\comparechart\control\GfxOutBarCtrl.cpp

; 746  : 	if (arFolder.GetSize() > 0)

  00075	8b be 0c 01 00
	00		 mov	 edi, DWORD PTR [esi+268]
  0007b	5b		 pop	 ebx
  0007c	85 ff		 test	 edi, edi
  0007e	7e 1e		 jle	 SHORT $LN27@RemoveItem

; 747  : 	{
; 748  : 		int max = arFolder.GetSize();
; 749  : 		rect.top += iFolderHeight * (iSelFolder + 1); + 1;//+ 2;

  00080	8b 8e 34 01 00
	00		 mov	 ecx, DWORD PTR [esi+308]

; 750  : 		rect.bottom -= (max - iSelFolder - 1)*iFolderHeight;

  00086	2b f9		 sub	 edi, ecx
  00088	8b 96 a0 00 00
	00		 mov	 edx, DWORD PTR [esi+160]
  0008e	4f		 dec	 edi
  0008f	0f af fa	 imul	 edi, edx
  00092	8d 41 01	 lea	 eax, DWORD PTR [ecx+1]
  00095	0f af c2	 imul	 eax, edx
  00098	01 45 f0	 add	 DWORD PTR _rc$1[ebp+4], eax
  0009b	29 7d f8	 sub	 DWORD PTR _rc$1[ebp+12], edi
$LN27@RemoveItem:
; File C:\Program Files (x86)\Microsoft Visual Studio\2019\Community\VC\Tools\MSVC\14.29.30133\atlmfc\include\afxwin2.inl

; 116  : 	{ ASSERT(::IsWindow(m_hWnd)); ::InvalidateRect(m_hWnd, lpRect, bErase); }

  0009e	6a 01		 push	 1
  000a0	8d 45 ec	 lea	 eax, DWORD PTR _rc$1[ebp]
  000a3	50		 push	 eax
  000a4	ff 76 20	 push	 DWORD PTR [esi+32]
  000a7	ff 15 00 00 00
	00		 call	 DWORD PTR __imp__InvalidateRect@12
$LN2@RemoveItem:
; File D:\git\src\IBK\IBK_DRFN\ProjSrc\SrcDrfn\Chart\comparechart\control\GfxOutBarCtrl.cpp

; 2072 : }

  000ad	8b 4d fc	 mov	 ecx, DWORD PTR __$ArrayPad$[ebp]
  000b0	5f		 pop	 edi
  000b1	33 cd		 xor	 ecx, ebp
  000b3	5e		 pop	 esi
  000b4	e8 00 00 00 00	 call	 @__security_check_cookie@4
  000b9	8b e5		 mov	 esp, ebp
  000bb	5d		 pop	 ebp
  000bc	c2 04 00	 ret	 4
$LN8@RemoveItem:
; File C:\Program Files (x86)\Microsoft Visual Studio\2019\Community\VC\Tools\MSVC\14.29.30133\atlmfc\include\afxcoll.inl

; 204  : 			AfxThrowInvalidArgException();

  000bf	e8 00 00 00 00	 call	 ?AfxThrowInvalidArgException@@YGXXZ ; AfxThrowInvalidArgException
$LN36@RemoveItem:
  000c4	cc		 int	 3
?RemoveItem@CGfxOutBarCtrl@@QAEXH@Z ENDP		; CGfxOutBarCtrl::RemoveItem
_TEXT	ENDS
; Function compile flags: /Ogtp
; File D:\git\src\IBK\IBK_DRFN\ProjSrc\SrcDrfn\Chart\comparechart\control\GfxOutBarCtrl.cpp
; File C:\Program Files (x86)\Microsoft Visual Studio\2019\Community\VC\Tools\MSVC\14.29.30133\atlmfc\include\afxcoll.inl
; File D:\git\src\IBK\IBK_DRFN\ProjSrc\SrcDrfn\Chart\comparechart\control\GfxOutBarCtrl.cpp
; File C:\Program Files (x86)\Microsoft Visual Studio\2019\Community\VC\Tools\MSVC\14.29.30133\atlmfc\include\afxcoll.inl
; File D:\git\src\IBK\IBK_DRFN\ProjSrc\SrcDrfn\Chart\comparechart\control\GfxOutBarCtrl.cpp
;	COMDAT ?IsValidItem@CGfxOutBarCtrl@@QBE_NH@Z
_TEXT	SEGMENT
_index$ = 8						; size = 4
?IsValidItem@CGfxOutBarCtrl@@QBE_NH@Z PROC		; CGfxOutBarCtrl::IsValidItem, COMDAT
; _this$ = ecx

; 2075 : {

  00000	55		 push	 ebp
  00001	8b ec		 mov	 ebp, esp

; 2076 : 	ASSERT(iSelFolder >= 0 && iSelFolder < GetFolderCount());
; 2077 : 	CBarFolder * pbf = (CBarFolder *) arFolder.GetAt(iSelFolder);

  00003	8b 91 34 01 00
	00		 mov	 edx, DWORD PTR [ecx+308]
; File C:\Program Files (x86)\Microsoft Visual Studio\2019\Community\VC\Tools\MSVC\14.29.30133\atlmfc\include\afxcoll.inl

; 203  : 		if( nIndex < 0 || nIndex >= m_nSize )

  00009	85 d2		 test	 edx, edx
  0000b	78 2c		 js	 SHORT $LN7@IsValidIte
  0000d	3b 91 0c 01 00
	00		 cmp	 edx, DWORD PTR [ecx+268]
  00013	7d 24		 jge	 SHORT $LN7@IsValidIte
; File D:\git\src\IBK\IBK_DRFN\ProjSrc\SrcDrfn\Chart\comparechart\control\GfxOutBarCtrl.cpp

; 2078 : 	return (index >= 0 && index < pbf->GetItemCount());

  00015	56		 push	 esi
  00016	8b 75 08	 mov	 esi, DWORD PTR _index$[ebp]
  00019	85 f6		 test	 esi, esi
  0001b	78 15		 js	 SHORT $LN3@IsValidIte
  0001d	8b 81 08 01 00
	00		 mov	 eax, DWORD PTR [ecx+264]
  00023	8b 04 90	 mov	 eax, DWORD PTR [eax+edx*4]
  00026	3b 70 1c	 cmp	 esi, DWORD PTR [eax+28]
  00029	7d 07		 jge	 SHORT $LN3@IsValidIte
  0002b	b0 01		 mov	 al, 1
  0002d	5e		 pop	 esi

; 2079 : }

  0002e	5d		 pop	 ebp
  0002f	c2 04 00	 ret	 4
$LN3@IsValidIte:

; 2078 : 	return (index >= 0 && index < pbf->GetItemCount());

  00032	32 c0		 xor	 al, al
  00034	5e		 pop	 esi

; 2079 : }

  00035	5d		 pop	 ebp
  00036	c2 04 00	 ret	 4
$LN7@IsValidIte:
; File C:\Program Files (x86)\Microsoft Visual Studio\2019\Community\VC\Tools\MSVC\14.29.30133\atlmfc\include\afxcoll.inl

; 204  : 			AfxThrowInvalidArgException();

  00039	e8 00 00 00 00	 call	 ?AfxThrowInvalidArgException@@YGXXZ ; AfxThrowInvalidArgException
$LN10@IsValidIte:
  0003e	cc		 int	 3
?IsValidItem@CGfxOutBarCtrl@@QBE_NH@Z ENDP		; CGfxOutBarCtrl::IsValidItem
_TEXT	ENDS
; Function compile flags: /Ogtp
; File D:\git\src\IBK\IBK_DRFN\ProjSrc\SrcDrfn\Chart\comparechart\control\GfxOutBarCtrl.cpp
; File C:\Program Files (x86)\Microsoft Visual Studio\2019\Community\VC\Tools\MSVC\14.29.30133\atlmfc\include\afxcoll.inl
; File D:\git\src\IBK\IBK_DRFN\ProjSrc\SrcDrfn\Chart\comparechart\control\GfxOutBarCtrl.cpp
; File C:\Program Files (x86)\Microsoft Visual Studio\2019\Community\VC\Tools\MSVC\14.29.30133\atlmfc\include\afxcoll.inl
; File D:\git\src\IBK\IBK_DRFN\ProjSrc\SrcDrfn\Chart\comparechart\control\GfxOutBarCtrl.cpp
; File C:\Program Files (x86)\Microsoft Visual Studio\2019\Community\VC\Tools\MSVC\14.29.30133\atlmfc\include\afxcoll.inl
; File D:\git\src\IBK\IBK_DRFN\ProjSrc\SrcDrfn\Chart\comparechart\control\GfxOutBarCtrl.cpp
;	COMDAT ?GetItemData@CGfxOutBarCtrl@@QBEKH@Z
_TEXT	SEGMENT
_index$ = 8						; size = 4
?GetItemData@CGfxOutBarCtrl@@QBEKH@Z PROC		; CGfxOutBarCtrl::GetItemData, COMDAT
; _this$ = ecx

; 2082 : {

  00000	55		 push	 ebp
  00001	8b ec		 mov	 ebp, esp

; 2083 : 	ASSERT(iSelFolder >= 0 && iSelFolder < GetFolderCount());
; 2084 : 	CBarFolder * pbf = (CBarFolder *) arFolder.GetAt(iSelFolder);

  00003	8b 91 34 01 00
	00		 mov	 edx, DWORD PTR [ecx+308]
; File C:\Program Files (x86)\Microsoft Visual Studio\2019\Community\VC\Tools\MSVC\14.29.30133\atlmfc\include\afxcoll.inl

; 203  : 		if( nIndex < 0 || nIndex >= m_nSize )

  00009	85 d2		 test	 edx, edx
  0000b	78 30		 js	 SHORT $LN6@GetItemDat
  0000d	3b 91 0c 01 00
	00		 cmp	 edx, DWORD PTR [ecx+268]
  00013	7d 28		 jge	 SHORT $LN6@GetItemDat

; 205  : 		return m_pData[nIndex]; }

  00015	8b 81 08 01 00
	00		 mov	 eax, DWORD PTR [ecx+264]
; File D:\git\src\IBK\IBK_DRFN\ProjSrc\SrcDrfn\Chart\comparechart\control\GfxOutBarCtrl.cpp

; 2078 : 	return (index >= 0 && index < pbf->GetItemCount());

  0001b	8b 4d 08	 mov	 ecx, DWORD PTR _index$[ebp]
; File C:\Program Files (x86)\Microsoft Visual Studio\2019\Community\VC\Tools\MSVC\14.29.30133\atlmfc\include\afxcoll.inl

; 205  : 		return m_pData[nIndex]; }

  0001e	8b 04 90	 mov	 eax, DWORD PTR [eax+edx*4]
; File D:\git\src\IBK\IBK_DRFN\ProjSrc\SrcDrfn\Chart\comparechart\control\GfxOutBarCtrl.cpp

; 2078 : 	return (index >= 0 && index < pbf->GetItemCount());

  00021	85 c9		 test	 ecx, ecx
  00023	78 12		 js	 SHORT $LN2@GetItemDat
  00025	3b 48 1c	 cmp	 ecx, DWORD PTR [eax+28]
  00028	7d 0d		 jge	 SHORT $LN2@GetItemDat

; 2085 : 	if (IsValidItem(index))
; 2086 : 	{
; 2087 : 		CBarItem * i = (CBarItem *) pbf->arItems.GetAt(index);
; 2088 : 		return i->dwData;

  0002a	8b 40 18	 mov	 eax, DWORD PTR [eax+24]
  0002d	8b 04 88	 mov	 eax, DWORD PTR [eax+ecx*4]
  00030	8b 40 0c	 mov	 eax, DWORD PTR [eax+12]

; 2091 : }

  00033	5d		 pop	 ebp
  00034	c2 04 00	 ret	 4
$LN2@GetItemDat:

; 2089 : 	}
; 2090 : 	return 0;

  00037	33 c0		 xor	 eax, eax

; 2091 : }

  00039	5d		 pop	 ebp
  0003a	c2 04 00	 ret	 4
$LN6@GetItemDat:
; File C:\Program Files (x86)\Microsoft Visual Studio\2019\Community\VC\Tools\MSVC\14.29.30133\atlmfc\include\afxcoll.inl

; 204  : 			AfxThrowInvalidArgException();

  0003d	e8 00 00 00 00	 call	 ?AfxThrowInvalidArgException@@YGXXZ ; AfxThrowInvalidArgException
$LN23@GetItemDat:
  00042	cc		 int	 3
?GetItemData@CGfxOutBarCtrl@@QBEKH@Z ENDP		; CGfxOutBarCtrl::GetItemData
_TEXT	ENDS
; Function compile flags: /Ogtp
; File D:\git\src\IBK\IBK_DRFN\ProjSrc\SrcDrfn\Chart\comparechart\control\GfxOutBarCtrl.cpp
; File C:\Program Files (x86)\Microsoft Visual Studio\2019\Community\VC\Tools\MSVC\14.29.30133\atlmfc\include\afxcoll.inl
; File D:\git\src\IBK\IBK_DRFN\ProjSrc\SrcDrfn\Chart\comparechart\control\GfxOutBarCtrl.cpp
; File C:\Program Files (x86)\Microsoft Visual Studio\2019\Community\VC\Tools\MSVC\14.29.30133\atlmfc\include\afxcoll.inl
; File D:\git\src\IBK\IBK_DRFN\ProjSrc\SrcDrfn\Chart\comparechart\control\GfxOutBarCtrl.cpp
; File C:\Program Files (x86)\Microsoft Visual Studio\2019\Community\VC\Tools\MSVC\14.29.30133\atlmfc\include\afxcoll.inl
; File D:\git\src\IBK\IBK_DRFN\ProjSrc\SrcDrfn\Chart\comparechart\control\GfxOutBarCtrl.cpp
;	COMDAT ?GetItemImage@CGfxOutBarCtrl@@QBEHH@Z
_TEXT	SEGMENT
_index$ = 8						; size = 4
?GetItemImage@CGfxOutBarCtrl@@QBEHH@Z PROC		; CGfxOutBarCtrl::GetItemImage, COMDAT
; _this$ = ecx

; 2094 : {

  00000	55		 push	 ebp
  00001	8b ec		 mov	 ebp, esp

; 2095 : 	ASSERT(iSelFolder >= 0 && iSelFolder < GetFolderCount());
; 2096 : 	CBarFolder * pbf = (CBarFolder *) arFolder.GetAt(iSelFolder);

  00003	8b 91 34 01 00
	00		 mov	 edx, DWORD PTR [ecx+308]
; File C:\Program Files (x86)\Microsoft Visual Studio\2019\Community\VC\Tools\MSVC\14.29.30133\atlmfc\include\afxcoll.inl

; 203  : 		if( nIndex < 0 || nIndex >= m_nSize )

  00009	85 d2		 test	 edx, edx
  0000b	78 30		 js	 SHORT $LN6@GetItemIma
  0000d	3b 91 0c 01 00
	00		 cmp	 edx, DWORD PTR [ecx+268]
  00013	7d 28		 jge	 SHORT $LN6@GetItemIma

; 205  : 		return m_pData[nIndex]; }

  00015	8b 81 08 01 00
	00		 mov	 eax, DWORD PTR [ecx+264]
; File D:\git\src\IBK\IBK_DRFN\ProjSrc\SrcDrfn\Chart\comparechart\control\GfxOutBarCtrl.cpp

; 2078 : 	return (index >= 0 && index < pbf->GetItemCount());

  0001b	8b 4d 08	 mov	 ecx, DWORD PTR _index$[ebp]
; File C:\Program Files (x86)\Microsoft Visual Studio\2019\Community\VC\Tools\MSVC\14.29.30133\atlmfc\include\afxcoll.inl

; 205  : 		return m_pData[nIndex]; }

  0001e	8b 04 90	 mov	 eax, DWORD PTR [eax+edx*4]
; File D:\git\src\IBK\IBK_DRFN\ProjSrc\SrcDrfn\Chart\comparechart\control\GfxOutBarCtrl.cpp

; 2078 : 	return (index >= 0 && index < pbf->GetItemCount());

  00021	85 c9		 test	 ecx, ecx
  00023	78 12		 js	 SHORT $LN2@GetItemIma
  00025	3b 48 1c	 cmp	 ecx, DWORD PTR [eax+28]
  00028	7d 0d		 jge	 SHORT $LN2@GetItemIma

; 2097 : 	if (IsValidItem(index))
; 2098 : 	{
; 2099 : 		CBarItem * i = (CBarItem *) pbf->arItems.GetAt(index);
; 2100 : 		return i->iImageIndex;

  0002a	8b 40 18	 mov	 eax, DWORD PTR [eax+24]
  0002d	8b 04 88	 mov	 eax, DWORD PTR [eax+ecx*4]
  00030	8b 40 04	 mov	 eax, DWORD PTR [eax+4]

; 2103 : }

  00033	5d		 pop	 ebp
  00034	c2 04 00	 ret	 4
$LN2@GetItemIma:

; 2101 : 	}
; 2102 : 	return 0;

  00037	33 c0		 xor	 eax, eax

; 2103 : }

  00039	5d		 pop	 ebp
  0003a	c2 04 00	 ret	 4
$LN6@GetItemIma:
; File C:\Program Files (x86)\Microsoft Visual Studio\2019\Community\VC\Tools\MSVC\14.29.30133\atlmfc\include\afxcoll.inl

; 204  : 			AfxThrowInvalidArgException();

  0003d	e8 00 00 00 00	 call	 ?AfxThrowInvalidArgException@@YGXXZ ; AfxThrowInvalidArgException
$LN23@GetItemIma:
  00042	cc		 int	 3
?GetItemImage@CGfxOutBarCtrl@@QBEHH@Z ENDP		; CGfxOutBarCtrl::GetItemImage
_TEXT	ENDS
; Function compile flags: /Ogtp
; File D:\git\src\IBK\IBK_DRFN\ProjSrc\SrcDrfn\Chart\comparechart\control\GfxOutBarCtrl.cpp
; File C:\Program Files (x86)\Microsoft Visual Studio\2019\Community\VC\Tools\MSVC\14.29.30133\atlmfc\include\afxcoll.inl
; File D:\git\src\IBK\IBK_DRFN\ProjSrc\SrcDrfn\Chart\comparechart\control\GfxOutBarCtrl.cpp
; File C:\Program Files (x86)\Microsoft Visual Studio\2019\Community\VC\Tools\MSVC\14.29.30133\atlmfc\include\afxcoll.inl
; File D:\git\src\IBK\IBK_DRFN\ProjSrc\SrcDrfn\Chart\comparechart\control\GfxOutBarCtrl.cpp
; File C:\Program Files (x86)\Microsoft Visual Studio\2019\Community\VC\Tools\MSVC\14.29.30133\atlmfc\include\afxcoll.inl
; File D:\git\src\IBK\IBK_DRFN\ProjSrc\SrcDrfn\Chart\comparechart\control\GfxOutBarCtrl.cpp
;	COMDAT ?SetItemData@CGfxOutBarCtrl@@QAEXHK@Z
_TEXT	SEGMENT
_index$ = 8						; size = 4
_dwData$ = 12						; size = 4
?SetItemData@CGfxOutBarCtrl@@QAEXHK@Z PROC		; CGfxOutBarCtrl::SetItemData, COMDAT
; _this$ = ecx

; 2106 : {

  00000	55		 push	 ebp
  00001	8b ec		 mov	 ebp, esp

; 2107 : 	ASSERT(iSelFolder >= 0 && iSelFolder < GetFolderCount());
; 2108 : 	CBarFolder * pbf = (CBarFolder *) arFolder.GetAt(iSelFolder);

  00003	8b 91 34 01 00
	00		 mov	 edx, DWORD PTR [ecx+308]
; File C:\Program Files (x86)\Microsoft Visual Studio\2019\Community\VC\Tools\MSVC\14.29.30133\atlmfc\include\afxcoll.inl

; 203  : 		if( nIndex < 0 || nIndex >= m_nSize )

  00009	85 d2		 test	 edx, edx
  0000b	78 2d		 js	 SHORT $LN6@SetItemDat
  0000d	3b 91 0c 01 00
	00		 cmp	 edx, DWORD PTR [ecx+268]
  00013	7d 25		 jge	 SHORT $LN6@SetItemDat

; 205  : 		return m_pData[nIndex]; }

  00015	8b 81 08 01 00
	00		 mov	 eax, DWORD PTR [ecx+264]
; File D:\git\src\IBK\IBK_DRFN\ProjSrc\SrcDrfn\Chart\comparechart\control\GfxOutBarCtrl.cpp

; 2078 : 	return (index >= 0 && index < pbf->GetItemCount());

  0001b	8b 4d 08	 mov	 ecx, DWORD PTR _index$[ebp]
; File C:\Program Files (x86)\Microsoft Visual Studio\2019\Community\VC\Tools\MSVC\14.29.30133\atlmfc\include\afxcoll.inl

; 205  : 		return m_pData[nIndex]; }

  0001e	8b 04 90	 mov	 eax, DWORD PTR [eax+edx*4]
; File D:\git\src\IBK\IBK_DRFN\ProjSrc\SrcDrfn\Chart\comparechart\control\GfxOutBarCtrl.cpp

; 2078 : 	return (index >= 0 && index < pbf->GetItemCount());

  00021	85 c9		 test	 ecx, ecx
  00023	78 11		 js	 SHORT $LN2@SetItemDat
  00025	3b 48 1c	 cmp	 ecx, DWORD PTR [eax+28]
  00028	7d 0c		 jge	 SHORT $LN2@SetItemDat

; 2109 : 	if (IsValidItem(index))
; 2110 : 	{
; 2111 : 		CBarItem * i = (CBarItem *) pbf->arItems.GetAt(index);
; 2112 : 		i->dwData = dwData;

  0002a	8b 40 18	 mov	 eax, DWORD PTR [eax+24]
  0002d	8b 0c 88	 mov	 ecx, DWORD PTR [eax+ecx*4]
  00030	8b 45 0c	 mov	 eax, DWORD PTR _dwData$[ebp]
  00033	89 41 0c	 mov	 DWORD PTR [ecx+12], eax
$LN2@SetItemDat:

; 2114 : }

  00036	5d		 pop	 ebp
  00037	c2 08 00	 ret	 8
$LN6@SetItemDat:
; File C:\Program Files (x86)\Microsoft Visual Studio\2019\Community\VC\Tools\MSVC\14.29.30133\atlmfc\include\afxcoll.inl

; 204  : 			AfxThrowInvalidArgException();

  0003a	e8 00 00 00 00	 call	 ?AfxThrowInvalidArgException@@YGXXZ ; AfxThrowInvalidArgException
$LN23@SetItemDat:
  0003f	cc		 int	 3
?SetItemData@CGfxOutBarCtrl@@QAEXHK@Z ENDP		; CGfxOutBarCtrl::SetItemData
_TEXT	ENDS
; Function compile flags: /Ogtp
; File D:\git\src\IBK\IBK_DRFN\ProjSrc\SrcDrfn\Chart\comparechart\control\GfxOutBarCtrl.cpp
; File C:\Program Files (x86)\Microsoft Visual Studio\2019\Community\VC\Tools\MSVC\14.29.30133\atlmfc\include\afxcoll.inl
; File D:\git\src\IBK\IBK_DRFN\ProjSrc\SrcDrfn\Chart\comparechart\control\GfxOutBarCtrl.cpp
; File C:\Program Files (x86)\Microsoft Visual Studio\2019\Community\VC\Tools\MSVC\14.29.30133\atlmfc\include\afxcoll.inl
; File D:\git\src\IBK\IBK_DRFN\ProjSrc\SrcDrfn\Chart\comparechart\control\GfxOutBarCtrl.cpp
; File C:\Program Files (x86)\Microsoft Visual Studio\2019\Community\VC\Tools\MSVC\14.29.30133\atlmfc\include\afxcoll.inl
; File D:\git\src\IBK\IBK_DRFN\ProjSrc\SrcDrfn\Chart\comparechart\control\GfxOutBarCtrl.cpp
;	COMDAT ?SetItemImage@CGfxOutBarCtrl@@QAEXHH@Z
_TEXT	SEGMENT
_index$ = 8						; size = 4
_iImage$ = 12						; size = 4
?SetItemImage@CGfxOutBarCtrl@@QAEXHH@Z PROC		; CGfxOutBarCtrl::SetItemImage, COMDAT
; _this$ = ecx

; 2117 : {

  00000	55		 push	 ebp
  00001	8b ec		 mov	 ebp, esp

; 2118 : 	ASSERT(iSelFolder >= 0 && iSelFolder < GetFolderCount());
; 2119 : 	CBarFolder * pbf = (CBarFolder *) arFolder.GetAt(iSelFolder);

  00003	8b 91 34 01 00
	00		 mov	 edx, DWORD PTR [ecx+308]
; File C:\Program Files (x86)\Microsoft Visual Studio\2019\Community\VC\Tools\MSVC\14.29.30133\atlmfc\include\afxcoll.inl

; 203  : 		if( nIndex < 0 || nIndex >= m_nSize )

  00009	85 d2		 test	 edx, edx
  0000b	78 2d		 js	 SHORT $LN6@SetItemIma
  0000d	3b 91 0c 01 00
	00		 cmp	 edx, DWORD PTR [ecx+268]
  00013	7d 25		 jge	 SHORT $LN6@SetItemIma

; 205  : 		return m_pData[nIndex]; }

  00015	8b 81 08 01 00
	00		 mov	 eax, DWORD PTR [ecx+264]
; File D:\git\src\IBK\IBK_DRFN\ProjSrc\SrcDrfn\Chart\comparechart\control\GfxOutBarCtrl.cpp

; 2078 : 	return (index >= 0 && index < pbf->GetItemCount());

  0001b	8b 4d 08	 mov	 ecx, DWORD PTR _index$[ebp]
; File C:\Program Files (x86)\Microsoft Visual Studio\2019\Community\VC\Tools\MSVC\14.29.30133\atlmfc\include\afxcoll.inl

; 205  : 		return m_pData[nIndex]; }

  0001e	8b 04 90	 mov	 eax, DWORD PTR [eax+edx*4]
; File D:\git\src\IBK\IBK_DRFN\ProjSrc\SrcDrfn\Chart\comparechart\control\GfxOutBarCtrl.cpp

; 2078 : 	return (index >= 0 && index < pbf->GetItemCount());

  00021	85 c9		 test	 ecx, ecx
  00023	78 11		 js	 SHORT $LN2@SetItemIma
  00025	3b 48 1c	 cmp	 ecx, DWORD PTR [eax+28]
  00028	7d 0c		 jge	 SHORT $LN2@SetItemIma

; 2120 : 	if (IsValidItem(index))
; 2121 : 	{
; 2122 : 		CBarItem * i = (CBarItem *) pbf->arItems.GetAt(index);
; 2123 : 		i->iImageIndex = iImage;

  0002a	8b 40 18	 mov	 eax, DWORD PTR [eax+24]
  0002d	8b 0c 88	 mov	 ecx, DWORD PTR [eax+ecx*4]
  00030	8b 45 0c	 mov	 eax, DWORD PTR _iImage$[ebp]
  00033	89 41 04	 mov	 DWORD PTR [ecx+4], eax
$LN2@SetItemIma:

; 2125 : }

  00036	5d		 pop	 ebp
  00037	c2 08 00	 ret	 8
$LN6@SetItemIma:
; File C:\Program Files (x86)\Microsoft Visual Studio\2019\Community\VC\Tools\MSVC\14.29.30133\atlmfc\include\afxcoll.inl

; 204  : 			AfxThrowInvalidArgException();

  0003a	e8 00 00 00 00	 call	 ?AfxThrowInvalidArgException@@YGXXZ ; AfxThrowInvalidArgException
$LN23@SetItemIma:
  0003f	cc		 int	 3
?SetItemImage@CGfxOutBarCtrl@@QAEXHH@Z ENDP		; CGfxOutBarCtrl::SetItemImage
_TEXT	ENDS
; Function compile flags: /Ogtp
; File D:\git\src\IBK\IBK_DRFN\ProjSrc\SrcDrfn\Chart\comparechart\control\GfxOutBarCtrl.cpp
; File C:\Program Files (x86)\Microsoft Visual Studio\2019\Community\VC\Tools\MSVC\14.29.30133\atlmfc\include\atltypes.h
; File D:\git\src\IBK\IBK_DRFN\ProjSrc\SrcDrfn\Chart\comparechart\control\GfxOutBarCtrl.cpp
; File C:\Program Files (x86)\Microsoft Visual Studio\2019\Community\VC\Tools\MSVC\14.29.30133\atlmfc\include\afxwin2.inl
; File D:\git\src\IBK\IBK_DRFN\ProjSrc\SrcDrfn\Chart\comparechart\control\GfxOutBarCtrl.cpp
;	COMDAT ?DrawDragArrow@CGfxOutBarCtrl@@QAEXPAVCDC@@HH@Z
_TEXT	SEGMENT
$T1 = -28						; size = 8
$T2 = -28						; size = 8
$T3 = -28						; size = 8
$T4 = -28						; size = 8
$T5 = -28						; size = 8
$T6 = -28						; size = 8
$T7 = -28						; size = 8
$T8 = -28						; size = 8
$T9 = -28						; size = 8
$T10 = -28						; size = 8
$T11 = -28						; size = 8
$T12 = -28						; size = 8
$T13 = -28						; size = 8
$T14 = -28						; size = 8
$T15 = -28						; size = 8
$T16 = -28						; size = 8
_rc1$ = -20						; size = 16
__$ArrayPad$ = -4					; size = 4
_pDC$ = 8						; size = 4
_iFrom$ = 12						; size = 4
_iTo$ = 16						; size = 4
?DrawDragArrow@CGfxOutBarCtrl@@QAEXPAVCDC@@HH@Z PROC	; CGfxOutBarCtrl::DrawDragArrow, COMDAT
; _this$ = ecx

; 2128 : {

  00000	55		 push	 ebp
  00001	8b ec		 mov	 ebp, esp
  00003	83 ec 1c	 sub	 esp, 28			; 0000001cH
  00006	a1 00 00 00 00	 mov	 eax, DWORD PTR ___security_cookie
  0000b	33 c5		 xor	 eax, ebp
  0000d	89 45 fc	 mov	 DWORD PTR __$ArrayPad$[ebp], eax
  00010	53		 push	 ebx

; 2129 : 	if (iTo == iLastDragItemDraw) return;

  00011	8b 5d 10	 mov	 ebx, DWORD PTR _iTo$[ebp]
  00014	56		 push	 esi
  00015	8b f1		 mov	 esi, ecx
  00017	57		 push	 edi
  00018	8b 7d 08	 mov	 edi, DWORD PTR _pDC$[ebp]
  0001b	8b 86 2c 01 00
	00		 mov	 eax, DWORD PTR [esi+300]
  00021	3b d8		 cmp	 ebx, eax
  00023	0f 84 45 03 00
	00		 je	 $LN9@DrawDragAr
  00029	0f 57 c0	 xorps	 xmm0, xmm0
; File C:\Program Files (x86)\Microsoft Visual Studio\2019\Community\VC\Tools\MSVC\14.29.30133\atlmfc\include\atltypes.h

; 528  : 	left = 0;

  0002c	0f 11 45 ec	 movups	 XMMWORD PTR _rc1$[ebp], xmm0
; File D:\git\src\IBK\IBK_DRFN\ProjSrc\SrcDrfn\Chart\comparechart\control\GfxOutBarCtrl.cpp

; 2131 : 	if (iLastDragItemDraw >= 0)

  00030	85 c0		 test	 eax, eax
  00032	78 5a		 js	 SHORT $LN3@DrawDragAr

; 2132 : 	{
; 2133 : 		GetDragItemRect(iLastDragItemDraw, rc1);

  00034	8d 4d ec	 lea	 ecx, DWORD PTR _rc1$[ebp]
  00037	51		 push	 ecx
  00038	50		 push	 eax
  00039	8b ce		 mov	 ecx, esi
  0003b	e8 00 00 00 00	 call	 ?GetDragItemRect@CGfxOutBarCtrl@@QAEHHAAVCRect@@@Z ; CGfxOutBarCtrl::GetDragItemRect

; 2134 : 		if (iLastDragItemDrawType == 0) rc1.bottom = rc1.top + 5;

  00040	8b 86 30 01 00
	00		 mov	 eax, DWORD PTR [esi+304]
  00046	85 c0		 test	 eax, eax
  00048	75 05		 jne	 SHORT $LN4@DrawDragAr
  0004a	8b 45 f0	 mov	 eax, DWORD PTR _rc1$[ebp+4]
  0004d	eb 21		 jmp	 SHORT $LN19@DrawDragAr
$LN4@DrawDragAr:

; 2135 : 		else if (iLastDragItemDrawType == 1) { rc1.top -= 4; rc1.bottom = rc1.top + 9; }

  0004f	83 f8 01	 cmp	 eax, 1
  00052	75 0e		 jne	 SHORT $LN6@DrawDragAr
  00054	8b 45 f0	 mov	 eax, DWORD PTR _rc1$[ebp+4]
  00057	83 e8 04	 sub	 eax, 4
  0005a	89 45 f0	 mov	 DWORD PTR _rc1$[ebp+4], eax
  0005d	83 c0 09	 add	 eax, 9
  00060	eb 11		 jmp	 SHORT $LN20@DrawDragAr
$LN6@DrawDragAr:

; 2136 : 		else if (iLastDragItemDrawType == 2) { rc1.top -= 4; rc1.bottom = rc1.top + 5; }

  00062	83 f8 02	 cmp	 eax, 2
  00065	75 0f		 jne	 SHORT $LN8@DrawDragAr
  00067	8b 45 f0	 mov	 eax, DWORD PTR _rc1$[ebp+4]
  0006a	83 e8 04	 sub	 eax, 4
  0006d	89 45 f0	 mov	 DWORD PTR _rc1$[ebp+4], eax
$LN19@DrawDragAr:
; File C:\Program Files (x86)\Microsoft Visual Studio\2019\Community\VC\Tools\MSVC\14.29.30133\atlmfc\include\afxwin2.inl

; 116  : 	{ ASSERT(::IsWindow(m_hWnd)); ::InvalidateRect(m_hWnd, lpRect, bErase); }

  00070	83 c0 05	 add	 eax, 5
$LN20@DrawDragAr:
  00073	89 45 f8	 mov	 DWORD PTR _rc1$[ebp+12], eax
$LN8@DrawDragAr:
  00076	6a 01		 push	 1
  00078	8d 45 ec	 lea	 eax, DWORD PTR _rc1$[ebp]
  0007b	50		 push	 eax
  0007c	ff 76 20	 push	 DWORD PTR [esi+32]
  0007f	ff 15 00 00 00
	00		 call	 DWORD PTR __imp__InvalidateRect@12

; 106  : 	{ ASSERT(::IsWindow(m_hWnd)); ::UpdateWindow(m_hWnd); }

  00085	ff 76 20	 push	 DWORD PTR [esi+32]
  00088	ff 15 00 00 00
	00		 call	 DWORD PTR __imp__UpdateWindow@4
$LN3@DrawDragAr:
; File D:\git\src\IBK\IBK_DRFN\ProjSrc\SrcDrfn\Chart\comparechart\control\GfxOutBarCtrl.cpp

; 2140 : 	iLastDragItemDraw = iTo;

  0008e	89 9e 2c 01 00
	00		 mov	 DWORD PTR [esi+300], ebx

; 2141 : 
; 2142 : 	if (iLastDragItemDraw >= 0)

  00094	85 db		 test	 ebx, ebx
  00096	0f 88 d2 02 00
	00		 js	 $LN9@DrawDragAr

; 2143 : 	{
; 2144 : 		iLastDragItemDrawType = GetDragItemRect(iLastDragItemDraw, rc1);

  0009c	8d 45 ec	 lea	 eax, DWORD PTR _rc1$[ebp]
  0009f	8b ce		 mov	 ecx, esi
  000a1	50		 push	 eax
  000a2	53		 push	 ebx
  000a3	e8 00 00 00 00	 call	 ?GetDragItemRect@CGfxOutBarCtrl@@QAEHHAAVCRect@@@Z ; CGfxOutBarCtrl::GetDragItemRect

; 2145 : 
; 2146 : 		CPen * op = pDC->SelectObject(pBlackPen);

  000a8	ff b6 4c 01 00
	00		 push	 DWORD PTR [esi+332]
  000ae	8b cf		 mov	 ecx, edi
  000b0	89 86 30 01 00
	00		 mov	 DWORD PTR [esi+304], eax
  000b6	e8 00 00 00 00	 call	 ?SelectObject@CDC@@QAEPAVCPen@@PAV2@@Z ; CDC::SelectObject

; 2147 : 
; 2148 : 		pDC->MoveTo(rc1.left, rc1.top);

  000bb	ff 75 f0	 push	 DWORD PTR _rc1$[ebp+4]
  000be	8b d8		 mov	 ebx, eax
  000c0	8b cf		 mov	 ecx, edi
  000c2	ff 75 ec	 push	 DWORD PTR _rc1$[ebp]
  000c5	8d 45 e4	 lea	 eax, DWORD PTR $T16[ebp]
  000c8	50		 push	 eax
  000c9	e8 00 00 00 00	 call	 ?MoveTo@CDC@@QAE?AVCPoint@@HH@Z ; CDC::MoveTo

; 2149 : 		pDC->LineTo(rc1.right, rc1.top);

  000ce	ff 75 f0	 push	 DWORD PTR _rc1$[ebp+4]
  000d1	8b cf		 mov	 ecx, edi
  000d3	ff 75 f4	 push	 DWORD PTR _rc1$[ebp+8]
  000d6	e8 00 00 00 00	 call	 ?LineTo@CDC@@QAEHHH@Z	; CDC::LineTo

; 2150 : 
; 2151 : 		if (iLastDragItemDrawType != 2)

  000db	8b 86 30 01 00
	00		 mov	 eax, DWORD PTR [esi+304]
  000e1	83 f8 02	 cmp	 eax, 2
  000e4	0f 84 28 01 00
	00		 je	 $LN10@DrawDragAr

; 2152 : 		{
; 2153 : 			pDC->MoveTo(rc1.left, rc1.top+1);

  000ea	8b 45 f0	 mov	 eax, DWORD PTR _rc1$[ebp+4]
  000ed	8b cf		 mov	 ecx, edi
  000ef	40		 inc	 eax
  000f0	50		 push	 eax
  000f1	ff 75 ec	 push	 DWORD PTR _rc1$[ebp]
  000f4	8d 45 e4	 lea	 eax, DWORD PTR $T15[ebp]
  000f7	50		 push	 eax
  000f8	e8 00 00 00 00	 call	 ?MoveTo@CDC@@QAE?AVCPoint@@HH@Z ; CDC::MoveTo

; 2154 : 			pDC->LineTo(rc1.left + 7, rc1.top+1);

  000fd	8b 45 f0	 mov	 eax, DWORD PTR _rc1$[ebp+4]
  00100	8b cf		 mov	 ecx, edi
  00102	40		 inc	 eax
  00103	50		 push	 eax
  00104	8b 45 ec	 mov	 eax, DWORD PTR _rc1$[ebp]
  00107	83 c0 07	 add	 eax, 7
  0010a	50		 push	 eax
  0010b	e8 00 00 00 00	 call	 ?LineTo@CDC@@QAEHHH@Z	; CDC::LineTo

; 2155 : 			pDC->MoveTo(rc1.left, rc1.top+2);

  00110	8b 45 f0	 mov	 eax, DWORD PTR _rc1$[ebp+4]
  00113	8b cf		 mov	 ecx, edi
  00115	83 c0 02	 add	 eax, 2
  00118	50		 push	 eax
  00119	ff 75 ec	 push	 DWORD PTR _rc1$[ebp]
  0011c	8d 45 e4	 lea	 eax, DWORD PTR $T14[ebp]
  0011f	50		 push	 eax
  00120	e8 00 00 00 00	 call	 ?MoveTo@CDC@@QAE?AVCPoint@@HH@Z ; CDC::MoveTo

; 2156 : 			pDC->LineTo(rc1.left + 5, rc1.top+2);

  00125	8b 45 f0	 mov	 eax, DWORD PTR _rc1$[ebp+4]
  00128	8b cf		 mov	 ecx, edi
  0012a	83 c0 02	 add	 eax, 2
  0012d	50		 push	 eax
  0012e	8b 45 ec	 mov	 eax, DWORD PTR _rc1$[ebp]
  00131	83 c0 05	 add	 eax, 5
  00134	50		 push	 eax
  00135	e8 00 00 00 00	 call	 ?LineTo@CDC@@QAEHHH@Z	; CDC::LineTo

; 2157 : 			pDC->MoveTo(rc1.left, rc1.top+3);

  0013a	8b 45 f0	 mov	 eax, DWORD PTR _rc1$[ebp+4]
  0013d	8b cf		 mov	 ecx, edi
  0013f	83 c0 03	 add	 eax, 3
  00142	50		 push	 eax
  00143	ff 75 ec	 push	 DWORD PTR _rc1$[ebp]
  00146	8d 45 e4	 lea	 eax, DWORD PTR $T13[ebp]
  00149	50		 push	 eax
  0014a	e8 00 00 00 00	 call	 ?MoveTo@CDC@@QAE?AVCPoint@@HH@Z ; CDC::MoveTo

; 2158 : 			pDC->LineTo(rc1.left + 3, rc1.top+3);

  0014f	8b 45 f0	 mov	 eax, DWORD PTR _rc1$[ebp+4]
  00152	8b cf		 mov	 ecx, edi
  00154	83 c0 03	 add	 eax, 3
  00157	50		 push	 eax
  00158	8b 45 ec	 mov	 eax, DWORD PTR _rc1$[ebp]
  0015b	83 c0 03	 add	 eax, 3
  0015e	50		 push	 eax
  0015f	e8 00 00 00 00	 call	 ?LineTo@CDC@@QAEHHH@Z	; CDC::LineTo

; 2159 : 			pDC->MoveTo(rc1.left, rc1.top+4);

  00164	8b 45 f0	 mov	 eax, DWORD PTR _rc1$[ebp+4]
  00167	8b cf		 mov	 ecx, edi
  00169	83 c0 04	 add	 eax, 4
  0016c	50		 push	 eax
  0016d	ff 75 ec	 push	 DWORD PTR _rc1$[ebp]
  00170	8d 45 e4	 lea	 eax, DWORD PTR $T12[ebp]
  00173	50		 push	 eax
  00174	e8 00 00 00 00	 call	 ?MoveTo@CDC@@QAE?AVCPoint@@HH@Z ; CDC::MoveTo

; 2160 : 			pDC->LineTo(rc1.left + 1, rc1.top+4);

  00179	8b 45 f0	 mov	 eax, DWORD PTR _rc1$[ebp+4]
  0017c	8b cf		 mov	 ecx, edi
  0017e	83 c0 04	 add	 eax, 4
  00181	50		 push	 eax
  00182	8b 45 ec	 mov	 eax, DWORD PTR _rc1$[ebp]
  00185	40		 inc	 eax
  00186	50		 push	 eax
  00187	e8 00 00 00 00	 call	 ?LineTo@CDC@@QAEHHH@Z	; CDC::LineTo

; 2161 : 
; 2162 : 			pDC->MoveTo(rc1.right-1, rc1.top+1);

  0018c	8b 45 f0	 mov	 eax, DWORD PTR _rc1$[ebp+4]
  0018f	8b cf		 mov	 ecx, edi
  00191	40		 inc	 eax
  00192	50		 push	 eax
  00193	8b 45 f4	 mov	 eax, DWORD PTR _rc1$[ebp+8]
  00196	48		 dec	 eax
  00197	50		 push	 eax
  00198	8d 45 e4	 lea	 eax, DWORD PTR $T11[ebp]
  0019b	50		 push	 eax
  0019c	e8 00 00 00 00	 call	 ?MoveTo@CDC@@QAE?AVCPoint@@HH@Z ; CDC::MoveTo

; 2163 : 			pDC->LineTo(rc1.right - 7, rc1.top+1);

  001a1	8b 45 f0	 mov	 eax, DWORD PTR _rc1$[ebp+4]
  001a4	8b cf		 mov	 ecx, edi
  001a6	40		 inc	 eax
  001a7	50		 push	 eax
  001a8	8b 45 f4	 mov	 eax, DWORD PTR _rc1$[ebp+8]
  001ab	83 c0 f9	 add	 eax, -7			; fffffff9H
  001ae	50		 push	 eax
  001af	e8 00 00 00 00	 call	 ?LineTo@CDC@@QAEHHH@Z	; CDC::LineTo

; 2164 : 			pDC->MoveTo(rc1.right-1, rc1.top+2);

  001b4	8b 45 f0	 mov	 eax, DWORD PTR _rc1$[ebp+4]
  001b7	8b cf		 mov	 ecx, edi
  001b9	83 c0 02	 add	 eax, 2
  001bc	50		 push	 eax
  001bd	8b 45 f4	 mov	 eax, DWORD PTR _rc1$[ebp+8]
  001c0	48		 dec	 eax
  001c1	50		 push	 eax
  001c2	8d 45 e4	 lea	 eax, DWORD PTR $T10[ebp]
  001c5	50		 push	 eax
  001c6	e8 00 00 00 00	 call	 ?MoveTo@CDC@@QAE?AVCPoint@@HH@Z ; CDC::MoveTo

; 2165 : 			pDC->LineTo(rc1.right - 5, rc1.top+2);

  001cb	8b 45 f0	 mov	 eax, DWORD PTR _rc1$[ebp+4]
  001ce	8b cf		 mov	 ecx, edi
  001d0	83 c0 02	 add	 eax, 2
  001d3	50		 push	 eax
  001d4	8b 45 f4	 mov	 eax, DWORD PTR _rc1$[ebp+8]
  001d7	83 c0 fb	 add	 eax, -5			; fffffffbH
  001da	50		 push	 eax
  001db	e8 00 00 00 00	 call	 ?LineTo@CDC@@QAEHHH@Z	; CDC::LineTo

; 2166 : 			pDC->MoveTo(rc1.right-1, rc1.top+3);

  001e0	8b 45 f0	 mov	 eax, DWORD PTR _rc1$[ebp+4]
  001e3	8b cf		 mov	 ecx, edi
  001e5	83 c0 03	 add	 eax, 3
  001e8	50		 push	 eax
  001e9	8b 45 f4	 mov	 eax, DWORD PTR _rc1$[ebp+8]
  001ec	48		 dec	 eax
  001ed	50		 push	 eax
  001ee	8d 45 e4	 lea	 eax, DWORD PTR $T9[ebp]
  001f1	50		 push	 eax
  001f2	e8 00 00 00 00	 call	 ?MoveTo@CDC@@QAE?AVCPoint@@HH@Z ; CDC::MoveTo

; 2167 : 			pDC->LineTo(rc1.right - 3, rc1.top+3);

  001f7	8b 45 f0	 mov	 eax, DWORD PTR _rc1$[ebp+4]
  001fa	8b cf		 mov	 ecx, edi
  001fc	83 c0 03	 add	 eax, 3
  001ff	50		 push	 eax
  00200	8b 45 f4	 mov	 eax, DWORD PTR _rc1$[ebp+8]
  00203	83 c0 fd	 add	 eax, -3			; fffffffdH
  00206	50		 push	 eax
  00207	e8 00 00 00 00	 call	 ?LineTo@CDC@@QAEHHH@Z	; CDC::LineTo
  0020c	8b 86 30 01 00
	00		 mov	 eax, DWORD PTR [esi+304]
$LN10@DrawDragAr:

; 2168 : 		}
; 2169 : 		if (iLastDragItemDrawType != 0)

  00212	85 c0		 test	 eax, eax
  00214	0f 84 4c 01 00
	00		 je	 $LN11@DrawDragAr

; 2170 : 		{
; 2171 : 			pDC->MoveTo(rc1.left, rc1.top-1);

  0021a	8b 45 f0	 mov	 eax, DWORD PTR _rc1$[ebp+4]
  0021d	8b cf		 mov	 ecx, edi
  0021f	48		 dec	 eax
  00220	50		 push	 eax
  00221	ff 75 ec	 push	 DWORD PTR _rc1$[ebp]
  00224	8d 45 e4	 lea	 eax, DWORD PTR $T8[ebp]
  00227	50		 push	 eax
  00228	e8 00 00 00 00	 call	 ?MoveTo@CDC@@QAE?AVCPoint@@HH@Z ; CDC::MoveTo

; 2172 : 			pDC->LineTo(rc1.left + 7, rc1.top-1);

  0022d	8b 45 f0	 mov	 eax, DWORD PTR _rc1$[ebp+4]
  00230	8b cf		 mov	 ecx, edi
  00232	48		 dec	 eax
  00233	50		 push	 eax
  00234	8b 45 ec	 mov	 eax, DWORD PTR _rc1$[ebp]
  00237	83 c0 07	 add	 eax, 7
  0023a	50		 push	 eax
  0023b	e8 00 00 00 00	 call	 ?LineTo@CDC@@QAEHHH@Z	; CDC::LineTo

; 2173 : 			pDC->MoveTo(rc1.left, rc1.top-2);

  00240	8b 45 f0	 mov	 eax, DWORD PTR _rc1$[ebp+4]
  00243	8b cf		 mov	 ecx, edi
  00245	83 c0 fe	 add	 eax, -2			; fffffffeH
  00248	50		 push	 eax
  00249	ff 75 ec	 push	 DWORD PTR _rc1$[ebp]
  0024c	8d 45 e4	 lea	 eax, DWORD PTR $T7[ebp]
  0024f	50		 push	 eax
  00250	e8 00 00 00 00	 call	 ?MoveTo@CDC@@QAE?AVCPoint@@HH@Z ; CDC::MoveTo

; 2174 : 			pDC->LineTo(rc1.left + 5, rc1.top-2);

  00255	8b 45 f0	 mov	 eax, DWORD PTR _rc1$[ebp+4]
  00258	8b cf		 mov	 ecx, edi
  0025a	83 c0 fe	 add	 eax, -2			; fffffffeH
  0025d	50		 push	 eax
  0025e	8b 45 ec	 mov	 eax, DWORD PTR _rc1$[ebp]
  00261	83 c0 05	 add	 eax, 5
  00264	50		 push	 eax
  00265	e8 00 00 00 00	 call	 ?LineTo@CDC@@QAEHHH@Z	; CDC::LineTo

; 2175 : 			pDC->MoveTo(rc1.left, rc1.top-3);

  0026a	8b 45 f0	 mov	 eax, DWORD PTR _rc1$[ebp+4]
  0026d	8b cf		 mov	 ecx, edi
  0026f	83 c0 fd	 add	 eax, -3			; fffffffdH
  00272	50		 push	 eax
  00273	ff 75 ec	 push	 DWORD PTR _rc1$[ebp]
  00276	8d 45 e4	 lea	 eax, DWORD PTR $T6[ebp]
  00279	50		 push	 eax
  0027a	e8 00 00 00 00	 call	 ?MoveTo@CDC@@QAE?AVCPoint@@HH@Z ; CDC::MoveTo

; 2176 : 			pDC->LineTo(rc1.left + 3, rc1.top-3);

  0027f	8b 45 f0	 mov	 eax, DWORD PTR _rc1$[ebp+4]
  00282	8b cf		 mov	 ecx, edi
  00284	83 c0 fd	 add	 eax, -3			; fffffffdH
  00287	50		 push	 eax
  00288	8b 45 ec	 mov	 eax, DWORD PTR _rc1$[ebp]
  0028b	83 c0 03	 add	 eax, 3
  0028e	50		 push	 eax
  0028f	e8 00 00 00 00	 call	 ?LineTo@CDC@@QAEHHH@Z	; CDC::LineTo

; 2177 : 			pDC->MoveTo(rc1.left, rc1.top-4);

  00294	8b 45 f0	 mov	 eax, DWORD PTR _rc1$[ebp+4]
  00297	8b cf		 mov	 ecx, edi
  00299	83 c0 fc	 add	 eax, -4			; fffffffcH
  0029c	50		 push	 eax
  0029d	ff 75 ec	 push	 DWORD PTR _rc1$[ebp]
  002a0	8d 45 e4	 lea	 eax, DWORD PTR $T5[ebp]
  002a3	50		 push	 eax
  002a4	e8 00 00 00 00	 call	 ?MoveTo@CDC@@QAE?AVCPoint@@HH@Z ; CDC::MoveTo

; 2178 : 			pDC->LineTo(rc1.left + 1, rc1.top-4);

  002a9	8b 45 f0	 mov	 eax, DWORD PTR _rc1$[ebp+4]
  002ac	8b cf		 mov	 ecx, edi
  002ae	83 c0 fc	 add	 eax, -4			; fffffffcH
  002b1	50		 push	 eax
  002b2	8b 45 ec	 mov	 eax, DWORD PTR _rc1$[ebp]
  002b5	40		 inc	 eax
  002b6	50		 push	 eax
  002b7	e8 00 00 00 00	 call	 ?LineTo@CDC@@QAEHHH@Z	; CDC::LineTo

; 2179 : 
; 2180 : 			pDC->MoveTo(rc1.right-1, rc1.top-1);

  002bc	8b 45 f0	 mov	 eax, DWORD PTR _rc1$[ebp+4]
  002bf	8b cf		 mov	 ecx, edi
  002c1	48		 dec	 eax
  002c2	50		 push	 eax
  002c3	8b 45 f4	 mov	 eax, DWORD PTR _rc1$[ebp+8]
  002c6	48		 dec	 eax
  002c7	50		 push	 eax
  002c8	8d 45 e4	 lea	 eax, DWORD PTR $T4[ebp]
  002cb	50		 push	 eax
  002cc	e8 00 00 00 00	 call	 ?MoveTo@CDC@@QAE?AVCPoint@@HH@Z ; CDC::MoveTo

; 2181 : 			pDC->LineTo(rc1.right - 7, rc1.top-1);

  002d1	8b 45 f0	 mov	 eax, DWORD PTR _rc1$[ebp+4]
  002d4	8b cf		 mov	 ecx, edi
  002d6	48		 dec	 eax
  002d7	50		 push	 eax
  002d8	8b 45 f4	 mov	 eax, DWORD PTR _rc1$[ebp+8]
  002db	83 c0 f9	 add	 eax, -7			; fffffff9H
  002de	50		 push	 eax
  002df	e8 00 00 00 00	 call	 ?LineTo@CDC@@QAEHHH@Z	; CDC::LineTo

; 2182 : 			pDC->MoveTo(rc1.right-1, rc1.top-2);

  002e4	8b 45 f0	 mov	 eax, DWORD PTR _rc1$[ebp+4]
  002e7	8b cf		 mov	 ecx, edi
  002e9	83 c0 fe	 add	 eax, -2			; fffffffeH
  002ec	50		 push	 eax
  002ed	8b 45 f4	 mov	 eax, DWORD PTR _rc1$[ebp+8]
  002f0	48		 dec	 eax
  002f1	50		 push	 eax
  002f2	8d 45 e4	 lea	 eax, DWORD PTR $T3[ebp]
  002f5	50		 push	 eax
  002f6	e8 00 00 00 00	 call	 ?MoveTo@CDC@@QAE?AVCPoint@@HH@Z ; CDC::MoveTo

; 2183 : 			pDC->LineTo(rc1.right - 5, rc1.top-2);

  002fb	8b 45 f0	 mov	 eax, DWORD PTR _rc1$[ebp+4]
  002fe	8b cf		 mov	 ecx, edi
  00300	83 c0 fe	 add	 eax, -2			; fffffffeH
  00303	50		 push	 eax
  00304	8b 45 f4	 mov	 eax, DWORD PTR _rc1$[ebp+8]
  00307	83 c0 fb	 add	 eax, -5			; fffffffbH
  0030a	50		 push	 eax
  0030b	e8 00 00 00 00	 call	 ?LineTo@CDC@@QAEHHH@Z	; CDC::LineTo

; 2184 : 			pDC->MoveTo(rc1.right-1, rc1.top-3);

  00310	8b 45 f0	 mov	 eax, DWORD PTR _rc1$[ebp+4]
  00313	8b cf		 mov	 ecx, edi
  00315	83 c0 fd	 add	 eax, -3			; fffffffdH
  00318	50		 push	 eax
  00319	8b 45 f4	 mov	 eax, DWORD PTR _rc1$[ebp+8]
  0031c	48		 dec	 eax
  0031d	50		 push	 eax
  0031e	8d 45 e4	 lea	 eax, DWORD PTR $T2[ebp]
  00321	50		 push	 eax
  00322	e8 00 00 00 00	 call	 ?MoveTo@CDC@@QAE?AVCPoint@@HH@Z ; CDC::MoveTo

; 2185 : 			pDC->LineTo(rc1.right - 3, rc1.top-3);

  00327	8b 45 f0	 mov	 eax, DWORD PTR _rc1$[ebp+4]
  0032a	8b cf		 mov	 ecx, edi
  0032c	83 c0 fd	 add	 eax, -3			; fffffffdH
  0032f	50		 push	 eax
  00330	8b 45 f4	 mov	 eax, DWORD PTR _rc1$[ebp+8]
  00333	83 c0 fd	 add	 eax, -3			; fffffffdH
  00336	50		 push	 eax
  00337	e8 00 00 00 00	 call	 ?LineTo@CDC@@QAEHHH@Z	; CDC::LineTo

; 2186 : 			pDC->MoveTo(rc1.right-1, rc1.top-4);

  0033c	8b 45 f0	 mov	 eax, DWORD PTR _rc1$[ebp+4]
  0033f	8b cf		 mov	 ecx, edi
  00341	83 c0 fc	 add	 eax, -4			; fffffffcH
  00344	50		 push	 eax
  00345	8b 45 f4	 mov	 eax, DWORD PTR _rc1$[ebp+8]
  00348	48		 dec	 eax
  00349	50		 push	 eax
  0034a	8d 45 e4	 lea	 eax, DWORD PTR $T1[ebp]
  0034d	50		 push	 eax
  0034e	e8 00 00 00 00	 call	 ?MoveTo@CDC@@QAE?AVCPoint@@HH@Z ; CDC::MoveTo

; 2187 : 			pDC->LineTo(rc1.right - 1, rc1.top-4);

  00353	8b 45 f0	 mov	 eax, DWORD PTR _rc1$[ebp+4]
  00356	8b cf		 mov	 ecx, edi
  00358	83 c0 fc	 add	 eax, -4			; fffffffcH
  0035b	50		 push	 eax
  0035c	8b 45 f4	 mov	 eax, DWORD PTR _rc1$[ebp+8]
  0035f	48		 dec	 eax
  00360	50		 push	 eax
  00361	e8 00 00 00 00	 call	 ?LineTo@CDC@@QAEHHH@Z	; CDC::LineTo
$LN11@DrawDragAr:

; 2188 : 		}
; 2189 : 
; 2190 : 		pDC->SelectObject(op);

  00366	53		 push	 ebx
  00367	8b cf		 mov	 ecx, edi
  00369	e8 00 00 00 00	 call	 ?SelectObject@CDC@@QAEPAVCPen@@PAV2@@Z ; CDC::SelectObject
$LN9@DrawDragAr:

; 2191 : 	}
; 2192 : }

  0036e	8b 4d fc	 mov	 ecx, DWORD PTR __$ArrayPad$[ebp]
  00371	5f		 pop	 edi
  00372	5e		 pop	 esi
  00373	33 cd		 xor	 ecx, ebp
  00375	5b		 pop	 ebx
  00376	e8 00 00 00 00	 call	 @__security_check_cookie@4
  0037b	8b e5		 mov	 esp, ebp
  0037d	5d		 pop	 ebp
  0037e	c2 0c 00	 ret	 12			; 0000000cH
?DrawDragArrow@CGfxOutBarCtrl@@QAEXPAVCDC@@HH@Z ENDP	; CGfxOutBarCtrl::DrawDragArrow
_TEXT	ENDS
; Function compile flags: /Ogtp
; File D:\git\src\IBK\IBK_DRFN\ProjSrc\SrcDrfn\Chart\comparechart\control\GfxOutBarCtrl.cpp
; File C:\Program Files (x86)\Microsoft Visual Studio\2019\Community\VC\Tools\MSVC\14.29.30133\atlmfc\include\afxwin2.inl
; File D:\git\src\IBK\IBK_DRFN\ProjSrc\SrcDrfn\Chart\comparechart\control\GfxOutBarCtrl.cpp
; File C:\Program Files (x86)\Microsoft Visual Studio\2019\Community\VC\Tools\MSVC\14.29.30133\atlmfc\include\afxwin2.inl
; File C:\Program Files (x86)\Microsoft Visual Studio\2019\Community\VC\Tools\MSVC\14.29.30133\atlmfc\include\atltypes.h
; File C:\Program Files (x86)\Microsoft Visual Studio\2019\Community\VC\Tools\MSVC\14.29.30133\atlmfc\include\afxwin2.inl
; File C:\Program Files (x86)\Microsoft Visual Studio\2019\Community\VC\Tools\MSVC\14.29.30133\atlmfc\include\atltypes.h
; File C:\Program Files (x86)\Microsoft Visual Studio\2019\Community\VC\Tools\MSVC\14.29.30133\atlmfc\include\afxwin2.inl
; File D:\git\src\IBK\IBK_DRFN\ProjSrc\SrcDrfn\Chart\comparechart\control\GfxOutBarCtrl.cpp
; File C:\Program Files (x86)\Microsoft Visual Studio\2019\Community\VC\Tools\MSVC\14.29.30133\atlmfc\include\atltypes.h
; File D:\git\src\IBK\IBK_DRFN\ProjSrc\SrcDrfn\Chart\comparechart\control\GfxOutBarCtrl.cpp
; File C:\Program Files (x86)\Microsoft Visual Studio\2019\Community\VC\Tools\MSVC\14.29.30133\atlmfc\include\afxcoll.inl
; File D:\git\src\IBK\IBK_DRFN\ProjSrc\SrcDrfn\Chart\comparechart\control\GfxOutBarCtrl.cpp
; File C:\Program Files (x86)\Microsoft Visual Studio\2019\Community\VC\Tools\MSVC\14.29.30133\atlmfc\include\afxcoll.inl
; File D:\git\src\IBK\IBK_DRFN\ProjSrc\SrcDrfn\Chart\comparechart\control\GfxOutBarCtrl.cpp
; File C:\Program Files (x86)\Microsoft Visual Studio\2019\Community\VC\Tools\MSVC\14.29.30133\atlmfc\include\atltypes.h
; File D:\git\src\IBK\IBK_DRFN\ProjSrc\SrcDrfn\Chart\comparechart\control\GfxOutBarCtrl.cpp
; File C:\Program Files (x86)\Microsoft Visual Studio\2019\Community\VC\Tools\MSVC\14.29.30133\atlmfc\include\atltypes.h
; File D:\git\src\IBK\IBK_DRFN\ProjSrc\SrcDrfn\Chart\comparechart\control\GfxOutBarCtrl.cpp
; File C:\Program Files (x86)\Microsoft Visual Studio\2019\Community\VC\Tools\MSVC\14.29.30133\atlmfc\include\atltypes.h
; File D:\git\src\IBK\IBK_DRFN\ProjSrc\SrcDrfn\Chart\comparechart\control\GfxOutBarCtrl.cpp
; File C:\Program Files (x86)\Microsoft Visual Studio\2019\Community\VC\Tools\MSVC\14.29.30133\atlmfc\include\atltypes.h
; File D:\git\src\IBK\IBK_DRFN\ProjSrc\SrcDrfn\Chart\comparechart\control\GfxOutBarCtrl.cpp
; File C:\Program Files (x86)\Microsoft Visual Studio\2019\Community\VC\Tools\MSVC\14.29.30133\atlmfc\include\atltypes.h
; File D:\git\src\IBK\IBK_DRFN\ProjSrc\SrcDrfn\Chart\comparechart\control\GfxOutBarCtrl.cpp
; File C:\Program Files (x86)\Microsoft Visual Studio\2019\Community\VC\Tools\MSVC\14.29.30133\atlmfc\include\afxcoll.inl
; File D:\git\src\IBK\IBK_DRFN\ProjSrc\SrcDrfn\Chart\comparechart\control\GfxOutBarCtrl.cpp
;	COMDAT ?GetDragItemRect@CGfxOutBarCtrl@@QAEHHAAVCRect@@@Z
_TEXT	SEGMENT
_rc$ = -36						; size = 16
_crc$ = -20						; size = 16
__$ArrayPad$ = -4					; size = 4
_index$ = 8						; size = 4
_rect$ = 12						; size = 4
?GetDragItemRect@CGfxOutBarCtrl@@QAEHHAAVCRect@@@Z PROC	; CGfxOutBarCtrl::GetDragItemRect, COMDAT
; _this$ = ecx

; 2195 : {

  00000	55		 push	 ebp
  00001	8b ec		 mov	 ebp, esp
  00003	83 ec 24	 sub	 esp, 36			; 00000024H
  00006	a1 00 00 00 00	 mov	 eax, DWORD PTR ___security_cookie
  0000b	33 c5		 xor	 eax, ebp
  0000d	89 45 fc	 mov	 DWORD PTR __$ArrayPad$[ebp], eax
  00010	53		 push	 ebx
  00011	56		 push	 esi
  00012	57		 push	 edi
  00013	8b 7d 0c	 mov	 edi, DWORD PTR _rect$[ebp]
; File C:\Program Files (x86)\Microsoft Visual Studio\2019\Community\VC\Tools\MSVC\14.29.30133\atlmfc\include\afxwin2.inl

; 86   : 	{ ASSERT(::IsWindow(m_hWnd)); ::GetClientRect(m_hWnd, lpRect); }

  00016	8d 45 ec	 lea	 eax, DWORD PTR _crc$[ebp]
; File D:\git\src\IBK\IBK_DRFN\ProjSrc\SrcDrfn\Chart\comparechart\control\GfxOutBarCtrl.cpp

; 2195 : {

  00019	8b f1		 mov	 esi, ecx
  0001b	0f 57 c0	 xorps	 xmm0, xmm0
; File C:\Program Files (x86)\Microsoft Visual Studio\2019\Community\VC\Tools\MSVC\14.29.30133\atlmfc\include\afxwin2.inl

; 86   : 	{ ASSERT(::IsWindow(m_hWnd)); ::GetClientRect(m_hWnd, lpRect); }

  0001e	50		 push	 eax
; File C:\Program Files (x86)\Microsoft Visual Studio\2019\Community\VC\Tools\MSVC\14.29.30133\atlmfc\include\atltypes.h

; 528  : 	left = 0;

  0001f	0f 11 45 dc	 movups	 XMMWORD PTR _rc$[ebp], xmm0
; File C:\Program Files (x86)\Microsoft Visual Studio\2019\Community\VC\Tools\MSVC\14.29.30133\atlmfc\include\afxwin2.inl

; 86   : 	{ ASSERT(::IsWindow(m_hWnd)); ::GetClientRect(m_hWnd, lpRect); }

  00023	ff 76 20	 push	 DWORD PTR [esi+32]
; File C:\Program Files (x86)\Microsoft Visual Studio\2019\Community\VC\Tools\MSVC\14.29.30133\atlmfc\include\atltypes.h

; 528  : 	left = 0;

  00026	0f 11 45 ec	 movups	 XMMWORD PTR _crc$[ebp], xmm0
; File C:\Program Files (x86)\Microsoft Visual Studio\2019\Community\VC\Tools\MSVC\14.29.30133\atlmfc\include\afxwin2.inl

; 86   : 	{ ASSERT(::IsWindow(m_hWnd)); ::GetClientRect(m_hWnd, lpRect); }

  0002a	ff 15 00 00 00
	00		 call	 DWORD PTR __imp__GetClientRect@8
; File D:\git\src\IBK\IBK_DRFN\ProjSrc\SrcDrfn\Chart\comparechart\control\GfxOutBarCtrl.cpp

; 746  : 	if (arFolder.GetSize() > 0)

  00030	8b 9e 0c 01 00
	00		 mov	 ebx, DWORD PTR [esi+268]
  00036	85 db		 test	 ebx, ebx
  00038	7e 1e		 jle	 SHORT $LN54@GetDragIte

; 747  : 	{
; 748  : 		int max = arFolder.GetSize();
; 749  : 		rect.top += iFolderHeight * (iSelFolder + 1); + 1;//+ 2;

  0003a	8b 8e 34 01 00
	00		 mov	 ecx, DWORD PTR [esi+308]

; 750  : 		rect.bottom -= (max - iSelFolder - 1)*iFolderHeight;

  00040	2b d9		 sub	 ebx, ecx
  00042	8b 96 a0 00 00
	00		 mov	 edx, DWORD PTR [esi+160]
  00048	4b		 dec	 ebx
  00049	0f af da	 imul	 ebx, edx
  0004c	8d 41 01	 lea	 eax, DWORD PTR [ecx+1]
  0004f	0f af c2	 imul	 eax, edx
  00052	01 45 f0	 add	 DWORD PTR _crc$[ebp+4], eax
  00055	29 5d f8	 sub	 DWORD PTR _crc$[ebp+12], ebx
$LN54@GetDragIte:
; File C:\Program Files (x86)\Microsoft Visual Studio\2019\Community\VC\Tools\MSVC\14.29.30133\atlmfc\include\atltypes.h

; 686  : 	::InflateRect(this, x, y);

  00058	6a 00		 push	 0
  0005a	6a fe		 push	 -2			; fffffffeH
  0005c	8d 45 ec	 lea	 eax, DWORD PTR _crc$[ebp]
  0005f	50		 push	 eax
  00060	ff 15 00 00 00
	00		 call	 DWORD PTR __imp__InflateRect@12
; File D:\git\src\IBK\IBK_DRFN\ProjSrc\SrcDrfn\Chart\comparechart\control\GfxOutBarCtrl.cpp

; 1460 : 	CBarFolder * pbf = (CBarFolder *) arFolder.GetAt(iSelFolder);

  00066	8b 8e 34 01 00
	00		 mov	 ecx, DWORD PTR [esi+308]
; File C:\Program Files (x86)\Microsoft Visual Studio\2019\Community\VC\Tools\MSVC\14.29.30133\atlmfc\include\afxcoll.inl

; 203  : 		if( nIndex < 0 || nIndex >= m_nSize )

  0006c	85 c9		 test	 ecx, ecx
  0006e	0f 88 03 01 00
	00		 js	 $LN27@GetDragIte
  00074	3b 8e 0c 01 00
	00		 cmp	 ecx, DWORD PTR [esi+268]
  0007a	0f 8d f7 00 00
	00		 jge	 $LN27@GetDragIte
; File D:\git\src\IBK\IBK_DRFN\ProjSrc\SrcDrfn\Chart\comparechart\control\GfxOutBarCtrl.cpp

; 2200 : 	GetItemRect(iSelFolder, index < GetItemCount() ? index : index - 1, rc);

  00080	8b 5d 08	 mov	 ebx, DWORD PTR _index$[ebp]
  00083	8d 45 dc	 lea	 eax, DWORD PTR _rc$[ebp]
  00086	50		 push	 eax
  00087	8b 86 08 01 00
	00		 mov	 eax, DWORD PTR [esi+264]
  0008d	8b 14 88	 mov	 edx, DWORD PTR [eax+ecx*4]
  00090	8d 4b ff	 lea	 ecx, DWORD PTR [ebx-1]
  00093	8b c3		 mov	 eax, ebx
  00095	3b 5a 1c	 cmp	 ebx, DWORD PTR [edx+28]
  00098	0f 4d c1	 cmovge	 eax, ecx
  0009b	8b ce		 mov	 ecx, esi
  0009d	50		 push	 eax
  0009e	ff b6 34 01 00
	00		 push	 DWORD PTR [esi+308]
  000a4	e8 00 00 00 00	 call	 ?GetItemRect@CGfxOutBarCtrl@@QAEXHHAAVCRect@@@Z ; CGfxOutBarCtrl::GetItemRect

; 1460 : 	CBarFolder * pbf = (CBarFolder *) arFolder.GetAt(iSelFolder);

  000a9	8b 8e 34 01 00
	00		 mov	 ecx, DWORD PTR [esi+308]
; File C:\Program Files (x86)\Microsoft Visual Studio\2019\Community\VC\Tools\MSVC\14.29.30133\atlmfc\include\afxcoll.inl

; 203  : 		if( nIndex < 0 || nIndex >= m_nSize )

  000af	85 c9		 test	 ecx, ecx
  000b1	0f 88 c0 00 00
	00		 js	 $LN27@GetDragIte
  000b7	3b 8e 0c 01 00
	00		 cmp	 ecx, DWORD PTR [esi+268]
  000bd	0f 8d b4 00 00
	00		 jge	 $LN27@GetDragIte
; File D:\git\src\IBK\IBK_DRFN\ProjSrc\SrcDrfn\Chart\comparechart\control\GfxOutBarCtrl.cpp

; 2202 : 	if (index < GetItemCount())

  000c3	8b 86 08 01 00
	00		 mov	 eax, DWORD PTR [esi+264]
  000c9	8b 04 88	 mov	 eax, DWORD PTR [eax+ecx*4]
  000cc	8b 50 1c	 mov	 edx, DWORD PTR [eax+28]
  000cf	3b da		 cmp	 ebx, edx
  000d1	7d 08		 jge	 SHORT $LN2@GetDragIte

; 2203 : 	{
; 2204 : 		line = rc.top - 4;

  000d3	8b 4d e0	 mov	 ecx, DWORD PTR _rc$[ebp+4]
  000d6	83 c1 fc	 add	 ecx, -4			; fffffffcH

; 2205 : 	}

  000d9	eb 06		 jmp	 SHORT $LN3@GetDragIte
$LN2@GetDragIte:

; 2206 : 	else
; 2207 : 	{
; 2208 : 		line = rc.bottom + 6;

  000db	8b 4d e8	 mov	 ecx, DWORD PTR _rc$[ebp+12]
  000de	83 c1 06	 add	 ecx, 6
$LN3@GetDragIte:

; 2209 : 	}
; 2210 : 	int tpe;
; 2211 : 	if (index == 0)

  000e1	85 db		 test	 ebx, ebx
  000e3	75 2a		 jne	 SHORT $LN56@GetDragIte

; 2213 : 		rect.SetRect(crc.left, line+2, crc.right, line + 7);

  000e5	8d 41 07	 lea	 eax, DWORD PTR [ecx+7]
; File C:\Program Files (x86)\Microsoft Visual Studio\2019\Community\VC\Tools\MSVC\14.29.30133\atlmfc\include\atltypes.h

; 657  : 	::SetRect(this, x1, y1, x2, y2);

  000e8	50		 push	 eax
  000e9	ff 75 f4	 push	 DWORD PTR _crc$[ebp+8]
; File D:\git\src\IBK\IBK_DRFN\ProjSrc\SrcDrfn\Chart\comparechart\control\GfxOutBarCtrl.cpp

; 2213 : 		rect.SetRect(crc.left, line+2, crc.right, line + 7);

  000ec	8d 41 02	 lea	 eax, DWORD PTR [ecx+2]
; File C:\Program Files (x86)\Microsoft Visual Studio\2019\Community\VC\Tools\MSVC\14.29.30133\atlmfc\include\atltypes.h

; 657  : 	::SetRect(this, x1, y1, x2, y2);

  000ef	50		 push	 eax
  000f0	ff 75 ec	 push	 DWORD PTR _crc$[ebp]
  000f3	57		 push	 edi
  000f4	ff 15 00 00 00
	00		 call	 DWORD PTR __imp__SetRect@20
; File D:\git\src\IBK\IBK_DRFN\ProjSrc\SrcDrfn\Chart\comparechart\control\GfxOutBarCtrl.cpp

; 2231 : 	return tpe;

  000fa	5f		 pop	 edi
  000fb	5e		 pop	 esi
  000fc	33 c0		 xor	 eax, eax
  000fe	5b		 pop	 ebx

; 2232 : }

  000ff	8b 4d fc	 mov	 ecx, DWORD PTR __$ArrayPad$[ebp]
  00102	33 cd		 xor	 ecx, ebp
  00104	e8 00 00 00 00	 call	 @__security_check_cookie@4
  00109	8b e5		 mov	 esp, ebp
  0010b	5d		 pop	 ebp
  0010c	c2 08 00	 ret	 8
$LN56@GetDragIte:

; 2214 : 		tpe = 0;
; 2215 : 	}
; 2216 : 	else if (index < GetItemCount())

  0010f	3b da		 cmp	 ebx, edx
  00111	7d 3a		 jge	 SHORT $LN6@GetDragIte
; File C:\Program Files (x86)\Microsoft Visual Studio\2019\Community\VC\Tools\MSVC\14.29.30133\atlmfc\include\atltypes.h

; 657  : 	::SetRect(this, x1, y1, x2, y2);

  00113	51		 push	 ecx
  00114	ff 75 f4	 push	 DWORD PTR _crc$[ebp+8]
; File D:\git\src\IBK\IBK_DRFN\ProjSrc\SrcDrfn\Chart\comparechart\control\GfxOutBarCtrl.cpp

; 2218 : 		rect.SetRect(crc.left, line - 9, crc.right, line);

  00117	8d 41 f7	 lea	 eax, DWORD PTR [ecx-9]
; File C:\Program Files (x86)\Microsoft Visual Studio\2019\Community\VC\Tools\MSVC\14.29.30133\atlmfc\include\atltypes.h

; 657  : 	::SetRect(this, x1, y1, x2, y2);

  0011a	50		 push	 eax
  0011b	ff 75 ec	 push	 DWORD PTR _crc$[ebp]
  0011e	57		 push	 edi
  0011f	ff 15 00 00 00
	00		 call	 DWORD PTR __imp__SetRect@20
; File D:\git\src\IBK\IBK_DRFN\ProjSrc\SrcDrfn\Chart\comparechart\control\GfxOutBarCtrl.cpp

; 2219 : 		tpe = 1;

  00125	b8 01 00 00 00	 mov	 eax, 1

; 184  : 	return dwFlags&fSmallIcon;

  0012a	84 86 00 01 00
	00		 test	 BYTE PTR [esi+256], al

; 2220 : 		if (IsSmallIconView()) 

  00130	74 32		 je	 SHORT $LN7@GetDragIte

; 2221 : 		{
; 2222 : 			rect.top += 8;

  00132	83 47 04 08	 add	 DWORD PTR [edi+4], 8

; 2223 : 			rect.bottom += 8;

  00136	83 47 0c 08	 add	 DWORD PTR [edi+12], 8

; 2231 : 	return tpe;

  0013a	5f		 pop	 edi
  0013b	5e		 pop	 esi
  0013c	5b		 pop	 ebx

; 2232 : }

  0013d	8b 4d fc	 mov	 ecx, DWORD PTR __$ArrayPad$[ebp]
  00140	33 cd		 xor	 ecx, ebp
  00142	e8 00 00 00 00	 call	 @__security_check_cookie@4
  00147	8b e5		 mov	 esp, ebp
  00149	5d		 pop	 ebp
  0014a	c2 08 00	 ret	 8
$LN6@GetDragIte:

; 2224 : 		}
; 2225 : 	}
; 2226 : 	else
; 2227 : 	{
; 2228 : 		rect.SetRect(crc.left, line, crc.right, line + 5);

  0014d	8d 41 05	 lea	 eax, DWORD PTR [ecx+5]
; File C:\Program Files (x86)\Microsoft Visual Studio\2019\Community\VC\Tools\MSVC\14.29.30133\atlmfc\include\atltypes.h

; 657  : 	::SetRect(this, x1, y1, x2, y2);

  00150	50		 push	 eax
  00151	ff 75 f4	 push	 DWORD PTR _crc$[ebp+8]
  00154	51		 push	 ecx
  00155	ff 75 ec	 push	 DWORD PTR _crc$[ebp]
  00158	57		 push	 edi
  00159	ff 15 00 00 00
	00		 call	 DWORD PTR __imp__SetRect@20
; File D:\git\src\IBK\IBK_DRFN\ProjSrc\SrcDrfn\Chart\comparechart\control\GfxOutBarCtrl.cpp

; 2229 : 		tpe = 2;

  0015f	b8 02 00 00 00	 mov	 eax, 2
$LN7@GetDragIte:

; 2232 : }

  00164	8b 4d fc	 mov	 ecx, DWORD PTR __$ArrayPad$[ebp]
  00167	5f		 pop	 edi
  00168	5e		 pop	 esi
  00169	33 cd		 xor	 ecx, ebp
  0016b	5b		 pop	 ebx
  0016c	e8 00 00 00 00	 call	 @__security_check_cookie@4
  00171	8b e5		 mov	 esp, ebp
  00173	5d		 pop	 ebp
  00174	c2 08 00	 ret	 8
$LN27@GetDragIte:
; File C:\Program Files (x86)\Microsoft Visual Studio\2019\Community\VC\Tools\MSVC\14.29.30133\atlmfc\include\afxcoll.inl

; 204  : 			AfxThrowInvalidArgException();

  00177	e8 00 00 00 00	 call	 ?AfxThrowInvalidArgException@@YGXXZ ; AfxThrowInvalidArgException
$LN57@GetDragIte:
  0017c	cc		 int	 3
?GetDragItemRect@CGfxOutBarCtrl@@QAEHHAAVCRect@@@Z ENDP	; CGfxOutBarCtrl::GetDragItemRect
_TEXT	ENDS
; Function compile flags: /Ogtp
; File D:\git\src\IBK\IBK_DRFN\ProjSrc\SrcDrfn\Chart\comparechart\control\GfxOutBarCtrl.cpp
; File C:\Program Files (x86)\Microsoft Visual Studio\2019\Community\VC\Tools\MSVC\14.29.30133\atlmfc\include\afxwin2.inl
; File C:\Program Files (x86)\Microsoft Visual Studio\2019\Community\VC\Tools\MSVC\14.29.30133\atlmfc\include\atltypes.h
; File C:\Program Files (x86)\Microsoft Visual Studio\2019\Community\VC\Tools\MSVC\14.29.30133\atlmfc\include\afxwin2.inl
; File D:\git\src\IBK\IBK_DRFN\ProjSrc\SrcDrfn\Chart\comparechart\control\GfxOutBarCtrl.cpp
; File C:\Program Files (x86)\Microsoft Visual Studio\2019\Community\VC\Tools\MSVC\14.29.30133\atlmfc\include\atltypes.h
; File D:\git\src\IBK\IBK_DRFN\ProjSrc\SrcDrfn\Chart\comparechart\control\GfxOutBarCtrl.cpp
; File C:\Program Files (x86)\Microsoft Visual Studio\2019\Community\VC\Tools\MSVC\14.29.30133\atlmfc\include\afxwin1.inl
; File D:\git\src\IBK\IBK_DRFN\ProjSrc\SrcDrfn\Chart\comparechart\control\GfxOutBarCtrl.cpp
; File C:\Program Files (x86)\Microsoft Visual Studio\2019\Community\VC\Tools\MSVC\14.29.30133\atlmfc\include\afxwin1.inl
; File D:\git\src\IBK\IBK_DRFN\ProjSrc\SrcDrfn\Chart\comparechart\control\GfxOutBarCtrl.cpp
; File C:\Program Files (x86)\Microsoft Visual Studio\2019\Community\VC\Tools\MSVC\14.29.30133\atlmfc\include\atltypes.h
; File D:\git\src\IBK\IBK_DRFN\ProjSrc\SrcDrfn\Chart\comparechart\control\GfxOutBarCtrl.cpp
; File C:\Program Files (x86)\Microsoft Visual Studio\2019\Community\VC\Tools\MSVC\14.29.30133\atlmfc\include\atltypes.h
; File C:\Program Files (x86)\Microsoft Visual Studio\2019\Community\VC\Tools\MSVC\14.29.30133\atlmfc\include\afxwin1.inl
; File D:\git\src\IBK\IBK_DRFN\ProjSrc\SrcDrfn\Chart\comparechart\control\GfxOutBarCtrl.cpp
; File C:\Program Files (x86)\Microsoft Visual Studio\2019\Community\VC\Tools\MSVC\14.29.30133\atlmfc\include\afxwin1.inl
; File D:\git\src\IBK\IBK_DRFN\ProjSrc\SrcDrfn\Chart\comparechart\control\GfxOutBarCtrl.cpp
; File C:\Program Files (x86)\Microsoft Visual Studio\2019\Community\VC\Tools\MSVC\14.29.30133\atlmfc\include\atltypes.h
; File D:\git\src\IBK\IBK_DRFN\ProjSrc\SrcDrfn\Chart\comparechart\control\GfxOutBarCtrl.cpp
; File C:\Program Files (x86)\Microsoft Visual Studio\2019\Community\VC\Tools\MSVC\14.29.30133\atlmfc\include\atltypes.h
; File C:\Program Files (x86)\Microsoft Visual Studio\2019\Community\VC\Tools\MSVC\14.29.30133\atlmfc\include\afxwin1.inl
; File D:\git\src\IBK\IBK_DRFN\ProjSrc\SrcDrfn\Chart\comparechart\control\GfxOutBarCtrl.cpp
; File C:\Program Files (x86)\Microsoft Visual Studio\2019\Community\VC\Tools\MSVC\14.29.30133\atlmfc\include\afxcoll.inl
; File D:\git\src\IBK\IBK_DRFN\ProjSrc\SrcDrfn\Chart\comparechart\control\GfxOutBarCtrl.cpp
; File C:\Program Files (x86)\Microsoft Visual Studio\2019\Community\VC\Tools\MSVC\14.29.30133\atlmfc\include\afxcoll.inl
; File D:\git\src\IBK\IBK_DRFN\ProjSrc\SrcDrfn\Chart\comparechart\control\GfxOutBarCtrl.cpp
; File C:\Program Files (x86)\Microsoft Visual Studio\2019\Community\VC\Tools\MSVC\14.29.30133\atlmfc\include\afxwin1.inl
; File D:\git\src\IBK\IBK_DRFN\ProjSrc\SrcDrfn\Chart\comparechart\control\GfxOutBarCtrl.cpp
; File C:\Program Files (x86)\Microsoft Visual Studio\2019\Community\VC\Tools\MSVC\14.29.30133\atlmfc\include\afxwin2.inl
; File D:\git\src\IBK\IBK_DRFN\ProjSrc\SrcDrfn\Chart\comparechart\control\GfxOutBarCtrl.cpp
; File C:\Program Files (x86)\Microsoft Visual Studio\2019\Community\VC\Tools\MSVC\14.29.30133\atlmfc\include\afxwin2.inl
; File D:\git\src\IBK\IBK_DRFN\ProjSrc\SrcDrfn\Chart\comparechart\control\GfxOutBarCtrl.cpp
; File C:\Program Files (x86)\Microsoft Visual Studio\2019\Community\VC\Tools\MSVC\14.29.30133\atlmfc\include\afxwin1.inl
; File C:\Program Files (x86)\Microsoft Visual Studio\2019\Community\VC\Tools\MSVC\14.29.30133\atlmfc\include\atltypes.h
; File D:\git\src\IBK\IBK_DRFN\ProjSrc\SrcDrfn\Chart\comparechart\control\GfxOutBarCtrl.cpp
; File C:\Program Files (x86)\Microsoft Visual Studio\2019\Community\VC\Tools\MSVC\14.29.30133\atlmfc\include\atltypes.h
; File D:\git\src\IBK\IBK_DRFN\ProjSrc\SrcDrfn\Chart\comparechart\control\GfxOutBarCtrl.cpp
; File C:\Program Files (x86)\Microsoft Visual Studio\2019\Community\VC\Tools\MSVC\14.29.30133\atlmfc\include\atltypes.h
; File D:\git\src\IBK\IBK_DRFN\ProjSrc\SrcDrfn\Chart\comparechart\control\GfxOutBarCtrl.cpp
; File C:\Program Files (x86)\Microsoft Visual Studio\2019\Community\VC\Tools\MSVC\14.29.30133\atlmfc\include\atltypes.h
; File D:\git\src\IBK\IBK_DRFN\ProjSrc\SrcDrfn\Chart\comparechart\control\GfxOutBarCtrl.cpp
; File C:\Program Files (x86)\Microsoft Visual Studio\2019\Community\VC\Tools\MSVC\14.29.30133\atlmfc\include\atltypes.h
; File D:\git\src\IBK\IBK_DRFN\ProjSrc\SrcDrfn\Chart\comparechart\control\GfxOutBarCtrl.cpp
; File C:\Program Files (x86)\Microsoft Visual Studio\2019\Community\VC\Tools\MSVC\14.29.30133\atlmfc\include\afxwin2.inl
; File D:\git\src\IBK\IBK_DRFN\ProjSrc\SrcDrfn\Chart\comparechart\control\GfxOutBarCtrl.cpp
; File C:\Program Files (x86)\Microsoft Visual Studio\2019\Community\VC\Tools\MSVC\14.29.30133\atlmfc\include\afxwin2.inl
; File D:\git\src\IBK\IBK_DRFN\ProjSrc\SrcDrfn\Chart\comparechart\control\GfxOutBarCtrl.cpp
; File C:\Program Files (x86)\Microsoft Visual Studio\2019\Community\VC\Tools\MSVC\14.29.30133\atlmfc\include\afxwin1.inl
; File D:\git\src\IBK\IBK_DRFN\ProjSrc\SrcDrfn\Chart\comparechart\control\GfxOutBarCtrl.cpp
; File C:\Program Files (x86)\Microsoft Visual Studio\2019\Community\VC\Tools\MSVC\14.29.30133\atlmfc\include\atltypes.h
; File D:\git\src\IBK\IBK_DRFN\ProjSrc\SrcDrfn\Chart\comparechart\control\GfxOutBarCtrl.cpp
; File C:\Program Files (x86)\Microsoft Visual Studio\2019\Community\VC\Tools\MSVC\14.29.30133\atlmfc\include\atltypes.h
; File D:\git\src\IBK\IBK_DRFN\ProjSrc\SrcDrfn\Chart\comparechart\control\GfxOutBarCtrl.cpp
; File C:\Program Files (x86)\Microsoft Visual Studio\2019\Community\VC\Tools\MSVC\14.29.30133\atlmfc\include\atltypes.h
; File D:\git\src\IBK\IBK_DRFN\ProjSrc\SrcDrfn\Chart\comparechart\control\GfxOutBarCtrl.cpp
; File C:\Program Files (x86)\Microsoft Visual Studio\2019\Community\VC\Tools\MSVC\14.29.30133\atlmfc\include\afxwin1.inl
; File D:\git\src\IBK\IBK_DRFN\ProjSrc\SrcDrfn\Chart\comparechart\control\GfxOutBarCtrl.cpp
; File C:\Program Files (x86)\Microsoft Visual Studio\2019\Community\VC\Tools\MSVC\14.29.30133\atlmfc\include\atltypes.h
; File D:\git\src\IBK\IBK_DRFN\ProjSrc\SrcDrfn\Chart\comparechart\control\GfxOutBarCtrl.cpp
; File C:\Program Files (x86)\Microsoft Visual Studio\2019\Community\VC\Tools\MSVC\14.29.30133\atlmfc\include\atltypes.h
; File D:\git\src\IBK\IBK_DRFN\ProjSrc\SrcDrfn\Chart\comparechart\control\GfxOutBarCtrl.cpp
; File C:\Program Files (x86)\Microsoft Visual Studio\2019\Community\VC\Tools\MSVC\14.29.30133\atlmfc\include\afxwin1.inl
; File C:\Program Files (x86)\Microsoft Visual Studio\2019\Community\VC\Tools\MSVC\14.29.30133\atlmfc\include\atltypes.h
; File C:\Program Files (x86)\Microsoft Visual Studio\2019\Community\VC\Tools\MSVC\14.29.30133\atlmfc\include\afxwin1.inl
; File D:\git\src\IBK\IBK_DRFN\ProjSrc\SrcDrfn\Chart\comparechart\control\GfxOutBarCtrl.cpp
; File C:\Program Files (x86)\Microsoft Visual Studio\2019\Community\VC\Tools\MSVC\14.29.30133\atlmfc\include\atltypes.h
; File C:\Program Files (x86)\Microsoft Visual Studio\2019\Community\VC\Tools\MSVC\14.29.30133\atlmfc\include\afxwin1.inl
; File D:\git\src\IBK\IBK_DRFN\ProjSrc\SrcDrfn\Chart\comparechart\control\GfxOutBarCtrl.cpp
; File C:\Program Files (x86)\Microsoft Visual Studio\2019\Community\VC\Tools\MSVC\14.29.30133\atlmfc\include\atltypes.h
; File D:\git\src\IBK\IBK_DRFN\ProjSrc\SrcDrfn\Chart\comparechart\control\GfxOutBarCtrl.cpp
; File C:\Program Files (x86)\Microsoft Visual Studio\2019\Community\VC\Tools\MSVC\14.29.30133\atlmfc\include\atltypes.h
; File D:\git\src\IBK\IBK_DRFN\ProjSrc\SrcDrfn\Chart\comparechart\control\GfxOutBarCtrl.cpp
; File C:\Program Files (x86)\Microsoft Visual Studio\2019\Community\VC\Tools\MSVC\14.29.30133\atlmfc\include\atltypes.h
; File D:\git\src\IBK\IBK_DRFN\ProjSrc\SrcDrfn\Chart\comparechart\control\GfxOutBarCtrl.cpp
; File C:\Program Files (x86)\Microsoft Visual Studio\2019\Community\VC\Tools\MSVC\14.29.30133\atlmfc\include\afxwin2.inl
; File D:\git\src\IBK\IBK_DRFN\ProjSrc\SrcDrfn\Chart\comparechart\control\GfxOutBarCtrl.cpp
; File C:\Program Files (x86)\Microsoft Visual Studio\2019\Community\VC\Tools\MSVC\14.29.30133\atlmfc\include\afxwin2.inl
; File D:\git\src\IBK\IBK_DRFN\ProjSrc\SrcDrfn\Chart\comparechart\control\GfxOutBarCtrl.cpp
; File C:\Program Files (x86)\Microsoft Visual Studio\2019\Community\VC\Tools\MSVC\14.29.30133\atlmfc\include\afxwin1.inl
; File D:\git\src\IBK\IBK_DRFN\ProjSrc\SrcDrfn\Chart\comparechart\control\GfxOutBarCtrl.cpp
; File C:\Program Files (x86)\Microsoft Visual Studio\2019\Community\VC\Tools\MSVC\14.29.30133\atlmfc\include\afxwin1.inl
; File D:\git\src\IBK\IBK_DRFN\ProjSrc\SrcDrfn\Chart\comparechart\control\GfxOutBarCtrl.cpp
; File C:\Program Files (x86)\Microsoft Visual Studio\2019\Community\VC\Tools\MSVC\14.29.30133\atlmfc\include\atltypes.h
; File D:\git\src\IBK\IBK_DRFN\ProjSrc\SrcDrfn\Chart\comparechart\control\GfxOutBarCtrl.cpp
; File C:\Program Files (x86)\Microsoft Visual Studio\2019\Community\VC\Tools\MSVC\14.29.30133\atlmfc\include\atltypes.h
; File D:\git\src\IBK\IBK_DRFN\ProjSrc\SrcDrfn\Chart\comparechart\control\GfxOutBarCtrl.cpp
; File C:\Program Files (x86)\Microsoft Visual Studio\2019\Community\VC\Tools\MSVC\14.29.30133\atlmfc\include\afxwin2.inl
; File D:\git\src\IBK\IBK_DRFN\ProjSrc\SrcDrfn\Chart\comparechart\control\GfxOutBarCtrl.cpp
; File C:\Program Files (x86)\Microsoft Visual Studio\2019\Community\VC\Tools\MSVC\14.29.30133\atlmfc\include\afxwin2.inl
; File D:\git\src\IBK\IBK_DRFN\ProjSrc\SrcDrfn\Chart\comparechart\control\GfxOutBarCtrl.cpp
; File C:\Program Files (x86)\Microsoft Visual Studio\2019\Community\VC\Tools\MSVC\14.29.30133\atlmfc\include\atltypes.h
; File D:\git\src\IBK\IBK_DRFN\ProjSrc\SrcDrfn\Chart\comparechart\control\GfxOutBarCtrl.cpp
; File C:\Program Files (x86)\Microsoft Visual Studio\2019\Community\VC\Tools\MSVC\14.29.30133\atlmfc\include\atltypes.h
; File D:\git\src\IBK\IBK_DRFN\ProjSrc\SrcDrfn\Chart\comparechart\control\GfxOutBarCtrl.cpp
; File C:\Program Files (x86)\Microsoft Visual Studio\2019\Community\VC\Tools\MSVC\14.29.30133\atlmfc\include\atltypes.h
; File D:\git\src\IBK\IBK_DRFN\ProjSrc\SrcDrfn\Chart\comparechart\control\GfxOutBarCtrl.cpp
; File C:\Program Files (x86)\Microsoft Visual Studio\2019\Community\VC\Tools\MSVC\14.29.30133\atlmfc\include\atltypes.h
; File D:\git\src\IBK\IBK_DRFN\ProjSrc\SrcDrfn\Chart\comparechart\control\GfxOutBarCtrl.cpp
; File C:\Program Files (x86)\Microsoft Visual Studio\2019\Community\VC\Tools\MSVC\14.29.30133\atlmfc\include\afxwin1.inl
; File C:\Program Files (x86)\Microsoft Visual Studio\2019\Community\VC\Tools\MSVC\14.29.30133\atlmfc\include\atltypes.h
; File D:\git\src\IBK\IBK_DRFN\ProjSrc\SrcDrfn\Chart\comparechart\control\GfxOutBarCtrl.cpp
; File C:\Program Files (x86)\Microsoft Visual Studio\2019\Community\VC\Tools\MSVC\14.29.30133\atlmfc\include\atltypes.h
; File D:\git\src\IBK\IBK_DRFN\ProjSrc\SrcDrfn\Chart\comparechart\control\GfxOutBarCtrl.cpp
; File C:\Program Files (x86)\Microsoft Visual Studio\2019\Community\VC\Tools\MSVC\14.29.30133\atlmfc\include\afxwin1.inl
; File C:\Program Files (x86)\Microsoft Visual Studio\2019\Community\VC\Tools\MSVC\14.29.30133\atlmfc\include\atltypes.h
; File C:\Program Files (x86)\Microsoft Visual Studio\2019\Community\VC\Tools\MSVC\14.29.30133\atlmfc\include\afxwin1.inl
; File D:\git\src\IBK\IBK_DRFN\ProjSrc\SrcDrfn\Chart\comparechart\control\GfxOutBarCtrl.cpp
; File C:\Program Files (x86)\Microsoft Visual Studio\2019\Community\VC\Tools\MSVC\14.29.30133\atlmfc\include\atltypes.h
; File C:\Program Files (x86)\Microsoft Visual Studio\2019\Community\VC\Tools\MSVC\14.29.30133\atlmfc\include\afxwin1.inl
; File D:\git\src\IBK\IBK_DRFN\ProjSrc\SrcDrfn\Chart\comparechart\control\GfxOutBarCtrl.cpp
; File C:\Program Files (x86)\Microsoft Visual Studio\2019\Community\VC\Tools\MSVC\14.29.30133\atlmfc\include\afxwin1.inl
; File D:\git\src\IBK\IBK_DRFN\ProjSrc\SrcDrfn\Chart\comparechart\control\GfxOutBarCtrl.cpp
; File C:\Program Files (x86)\Microsoft Visual Studio\2019\Community\VC\Tools\MSVC\14.29.30133\atlmfc\include\afxcoll.inl
; File D:\git\src\IBK\IBK_DRFN\ProjSrc\SrcDrfn\Chart\comparechart\control\GfxOutBarCtrl.cpp
;	COMDAT ?AnimateFolderScroll@CGfxOutBarCtrl@@QAEXHH@Z
_TEXT	SEGMENT
_dc$ = -164						; size = 20
_obmp$1$ = -144						; size = 4
_bmpFrom$ = -140					; size = 8
_bmpTo$ = -132						; size = 8
_memDC$ = -124						; size = 16
_iTo$GSCopy$1$ = -108					; size = 4
_y$1$ = -108						; size = 4
_y$1$ = -108						; size = 4
_iFrom$GSCopy$1$ = -104					; size = 4
_fh$1$ = -104						; size = 4
_fh$1$ = -104						; size = 4
_pWnd2$1$ = -100					; size = 4
tv1669 = -100						; size = 4
_rcFrom$2 = -96						; size = 16
_rcFrom$3 = -96						; size = 16
_ovpt$4 = -88						; size = 8
$T5 = -88						; size = 8
_rcTo$6 = -80						; size = 16
_rcTo$7 = -80						; size = 16
$T8 = -72						; size = 8
_ovpt$9 = -72						; size = 8
_pWnd1$1$ = -68						; size = 4
_rc1$ = -64						; size = 16
_frc$ = -48						; size = 16
_rc$ = -32						; size = 16
__$ArrayPad$ = -16					; size = 4
__$EHRec$ = -12						; size = 12
_iFrom$ = 8						; size = 4
_iTo$ = 12						; size = 4
?AnimateFolderScroll@CGfxOutBarCtrl@@QAEXHH@Z PROC	; CGfxOutBarCtrl::AnimateFolderScroll, COMDAT
; _this$ = ecx

; 2236 : {

  00000	55		 push	 ebp
  00001	8b ec		 mov	 ebp, esp
  00003	6a ff		 push	 -1
  00005	68 00 00 00 00	 push	 __ehhandler$?AnimateFolderScroll@CGfxOutBarCtrl@@QAEXHH@Z
  0000a	64 a1 00 00 00
	00		 mov	 eax, DWORD PTR fs:0
  00010	50		 push	 eax
  00011	81 ec 98 00 00
	00		 sub	 esp, 152		; 00000098H
  00017	a1 00 00 00 00	 mov	 eax, DWORD PTR ___security_cookie
  0001c	33 c5		 xor	 eax, ebp
  0001e	89 45 f0	 mov	 DWORD PTR __$ArrayPad$[ebp], eax
  00021	56		 push	 esi
  00022	57		 push	 edi
  00023	50		 push	 eax
  00024	8d 45 f4	 lea	 eax, DWORD PTR __$EHRec$[ebp]
  00027	64 a3 00 00 00
	00		 mov	 DWORD PTR fs:0, eax
  0002d	8b f9		 mov	 edi, ecx
  0002f	8b 45 08	 mov	 eax, DWORD PTR _iFrom$[ebp]
  00032	0f 57 c0	 xorps	 xmm0, xmm0
  00035	89 45 98	 mov	 DWORD PTR _iFrom$GSCopy$1$[ebp], eax
  00038	8b 45 0c	 mov	 eax, DWORD PTR _iTo$[ebp]
  0003b	89 45 94	 mov	 DWORD PTR _iTo$GSCopy$1$[ebp], eax
; File C:\Program Files (x86)\Microsoft Visual Studio\2019\Community\VC\Tools\MSVC\14.29.30133\atlmfc\include\afxwin2.inl

; 86   : 	{ ASSERT(::IsWindow(m_hWnd)); ::GetClientRect(m_hWnd, lpRect); }

  0003e	8d 45 e0	 lea	 eax, DWORD PTR _rc$[ebp]
  00041	50		 push	 eax
  00042	ff 77 20	 push	 DWORD PTR [edi+32]
; File C:\Program Files (x86)\Microsoft Visual Studio\2019\Community\VC\Tools\MSVC\14.29.30133\atlmfc\include\atltypes.h

; 528  : 	left = 0;

  00045	0f 11 45 e0	 movups	 XMMWORD PTR _rc$[ebp], xmm0
  00049	0f 11 45 c0	 movups	 XMMWORD PTR _rc1$[ebp], xmm0
  0004d	0f 11 45 d0	 movups	 XMMWORD PTR _frc$[ebp], xmm0
; File C:\Program Files (x86)\Microsoft Visual Studio\2019\Community\VC\Tools\MSVC\14.29.30133\atlmfc\include\afxwin2.inl

; 86   : 	{ ASSERT(::IsWindow(m_hWnd)); ::GetClientRect(m_hWnd, lpRect); }

  00051	ff 15 00 00 00
	00		 call	 DWORD PTR __imp__GetClientRect@8
; File D:\git\src\IBK\IBK_DRFN\ProjSrc\SrcDrfn\Chart\comparechart\control\GfxOutBarCtrl.cpp

; 746  : 	if (arFolder.GetSize() > 0)

  00057	8b b7 0c 01 00
	00		 mov	 esi, DWORD PTR [edi+268]
  0005d	85 f6		 test	 esi, esi
  0005f	7e 2b		 jle	 SHORT $LN308@AnimateFol

; 747  : 	{
; 748  : 		int max = arFolder.GetSize();
; 749  : 		rect.top += iFolderHeight * (iSelFolder + 1); + 1;//+ 2;

  00061	8b 8f 34 01 00
	00		 mov	 ecx, DWORD PTR [edi+308]

; 750  : 		rect.bottom -= (max - iSelFolder - 1)*iFolderHeight;

  00067	2b f1		 sub	 esi, ecx
  00069	8b 97 a0 00 00
	00		 mov	 edx, DWORD PTR [edi+160]
  0006f	4e		 dec	 esi
  00070	0f af f2	 imul	 esi, edx
  00073	8d 41 01	 lea	 eax, DWORD PTR [ecx+1]
  00076	8b 4d ec	 mov	 ecx, DWORD PTR _rc$[ebp+12]
  00079	0f af c2	 imul	 eax, edx
  0007c	01 45 e4	 add	 DWORD PTR _rc$[ebp+4], eax
  0007f	2b ce		 sub	 ecx, esi
  00081	8b 45 e4	 mov	 eax, DWORD PTR _rc$[ebp+4]
  00084	89 45 e4	 mov	 DWORD PTR _rc$[ebp+4], eax
  00087	89 4d ec	 mov	 DWORD PTR _rc$[ebp+12], ecx
  0008a	eb 06		 jmp	 SHORT $LN303@AnimateFol
$LN308@AnimateFol:

; 746  : 	if (arFolder.GetSize() > 0)

  0008c	8b 4d ec	 mov	 ecx, DWORD PTR _rc$[ebp+12]
  0008f	8b 45 e4	 mov	 eax, DWORD PTR _rc$[ebp+4]
$LN303@AnimateFol:
; File C:\Program Files (x86)\Microsoft Visual Studio\2019\Community\VC\Tools\MSVC\14.29.30133\atlmfc\include\atltypes.h

; 581  : 	return bottom - top;

  00092	2b c8		 sub	 ecx, eax

; 576  : 	return right - left;

  00094	8b 45 e8	 mov	 eax, DWORD PTR _rc$[ebp+8]
  00097	2b 45 e0	 sub	 eax, DWORD PTR _rc$[ebp]

; 657  : 	::SetRect(this, x1, y1, x2, y2);

  0009a	51		 push	 ecx
  0009b	50		 push	 eax
  0009c	6a 00		 push	 0
  0009e	6a 00		 push	 0
  000a0	8d 45 c0	 lea	 eax, DWORD PTR _rc1$[ebp]
  000a3	50		 push	 eax
  000a4	ff 15 00 00 00
	00		 call	 DWORD PTR __imp__SetRect@20
; File D:\git\src\IBK\IBK_DRFN\ProjSrc\SrcDrfn\Chart\comparechart\control\GfxOutBarCtrl.cpp

; 2243 : 	GetFolderRect(iTo, frc);

  000aa	8d 45 d0	 lea	 eax, DWORD PTR _frc$[ebp]
  000ad	8b cf		 mov	 ecx, edi
  000af	50		 push	 eax
  000b0	ff 75 94	 push	 DWORD PTR _iTo$GSCopy$1$[ebp]
  000b3	e8 00 00 00 00	 call	 ?GetFolderRect@CGfxOutBarCtrl@@QBE_NHAAVCRect@@@Z ; CGfxOutBarCtrl::GetFolderRect

; 2244 : 	frc1 = frc;
; 2245 : 
; 2246 : 	CClientDC dc(this);

  000b8	57		 push	 edi
  000b9	8d 8d 5c ff ff
	ff		 lea	 ecx, DWORD PTR _dc$[ebp]
  000bf	e8 00 00 00 00	 call	 ??0CClientDC@@QAE@PAVCWnd@@@Z ; CClientDC::CClientDC

; 2247 : 	CDC memDC;

  000c4	8d 4d 84	 lea	 ecx, DWORD PTR _memDC$[ebp]
  000c7	c7 45 fc 00 00
	00 00		 mov	 DWORD PTR __$EHRec$[ebp+8], 0
  000ce	e8 00 00 00 00	 call	 ??0CDC@@QAE@XZ		; CDC::CDC
; File C:\Program Files (x86)\Microsoft Visual Studio\2019\Community\VC\Tools\MSVC\14.29.30133\atlmfc\include\afxwin1.inl

; 330  : 	{ return Attach(::CreateCompatibleDC(pDC->GetSafeHdc())); }

  000d3	ff b5 60 ff ff
	ff		 push	 DWORD PTR _dc$[ebp+4]
; File D:\git\src\IBK\IBK_DRFN\ProjSrc\SrcDrfn\Chart\comparechart\control\GfxOutBarCtrl.cpp

; 2247 : 	CDC memDC;

  000d9	c6 45 fc 01	 mov	 BYTE PTR __$EHRec$[ebp+8], 1
; File C:\Program Files (x86)\Microsoft Visual Studio\2019\Community\VC\Tools\MSVC\14.29.30133\atlmfc\include\afxwin1.inl

; 330  : 	{ return Attach(::CreateCompatibleDC(pDC->GetSafeHdc())); }

  000dd	ff 15 00 00 00
	00		 call	 DWORD PTR __imp__CreateCompatibleDC@4
  000e3	50		 push	 eax
  000e4	8d 4d 84	 lea	 ecx, DWORD PTR _memDC$[ebp]
  000e7	e8 00 00 00 00	 call	 ?Attach@CDC@@QAEHPAUHDC__@@@Z ; CDC::Attach

; 70   : 	{ m_hObject = NULL; }

  000ec	c7 85 78 ff ff
	ff 00 00 00 00	 mov	 DWORD PTR _bmpFrom$[ebp+4], 0

; 177  : 	{ }

  000f6	c7 85 74 ff ff
	ff 00 00 00 00	 mov	 DWORD PTR _bmpFrom$[ebp], OFFSET ??_7CBitmap@@6B@

; 70   : 	{ m_hObject = NULL; }

  00100	c7 45 80 00 00
	00 00		 mov	 DWORD PTR _bmpTo$[ebp+4], 0

; 177  : 	{ }

  00107	c7 85 7c ff ff
	ff 00 00 00 00	 mov	 DWORD PTR _bmpTo$[ebp], OFFSET ??_7CBitmap@@6B@
; File D:\git\src\IBK\IBK_DRFN\ProjSrc\SrcDrfn\Chart\comparechart\control\GfxOutBarCtrl.cpp

; 2250 : 	bmpFrom.CreateCompatibleBitmap(&dc, rc1.Width(), rc1.Height() + frc.Height() * 2);

  00111	8b 4d dc	 mov	 ecx, DWORD PTR _frc$[ebp+12]
  00114	2b 4d d4	 sub	 ecx, DWORD PTR _frc$[ebp+4]
; File C:\Program Files (x86)\Microsoft Visual Studio\2019\Community\VC\Tools\MSVC\14.29.30133\atlmfc\include\atltypes.h

; 576  : 	return right - left;

  00117	8b 45 c8	 mov	 eax, DWORD PTR _rc1$[ebp+8]
; File D:\git\src\IBK\IBK_DRFN\ProjSrc\SrcDrfn\Chart\comparechart\control\GfxOutBarCtrl.cpp

; 2250 : 	bmpFrom.CreateCompatibleBitmap(&dc, rc1.Width(), rc1.Height() + frc.Height() * 2);

  0011a	03 c9		 add	 ecx, ecx
  0011c	2b 4d c4	 sub	 ecx, DWORD PTR _rc1$[ebp+4]
  0011f	03 4d cc	 add	 ecx, DWORD PTR _rc1$[ebp+12]
; File C:\Program Files (x86)\Microsoft Visual Studio\2019\Community\VC\Tools\MSVC\14.29.30133\atlmfc\include\atltypes.h

; 576  : 	return right - left;

  00122	2b 45 c0	 sub	 eax, DWORD PTR _rc1$[ebp]
; File C:\Program Files (x86)\Microsoft Visual Studio\2019\Community\VC\Tools\MSVC\14.29.30133\atlmfc\include\afxwin1.inl

; 217  : 	{ return Attach(::CreateCompatibleBitmap(pDC->m_hDC, nWidth, nHeight)); }

  00125	8b 35 00 00 00
	00		 mov	 esi, DWORD PTR __imp__CreateCompatibleBitmap@12
  0012b	51		 push	 ecx
  0012c	50		 push	 eax
  0012d	ff b5 60 ff ff
	ff		 push	 DWORD PTR _dc$[ebp+4]
; File D:\git\src\IBK\IBK_DRFN\ProjSrc\SrcDrfn\Chart\comparechart\control\GfxOutBarCtrl.cpp

; 2249 : 	CBitmap bmpFrom, bmpTo;

  00133	c6 45 fc 03	 mov	 BYTE PTR __$EHRec$[ebp+8], 3
; File C:\Program Files (x86)\Microsoft Visual Studio\2019\Community\VC\Tools\MSVC\14.29.30133\atlmfc\include\afxwin1.inl

; 217  : 	{ return Attach(::CreateCompatibleBitmap(pDC->m_hDC, nWidth, nHeight)); }

  00137	ff d6		 call	 esi
  00139	50		 push	 eax
  0013a	8d 8d 74 ff ff
	ff		 lea	 ecx, DWORD PTR _bmpFrom$[ebp]
  00140	e8 00 00 00 00	 call	 ?Attach@CGdiObject@@QAEHPAX@Z ; CGdiObject::Attach
; File D:\git\src\IBK\IBK_DRFN\ProjSrc\SrcDrfn\Chart\comparechart\control\GfxOutBarCtrl.cpp

; 2251 : 	bmpTo.CreateCompatibleBitmap(&dc, rc1.Width(), rc1.Height() + frc.Height() * 2);

  00145	8b 4d dc	 mov	 ecx, DWORD PTR _frc$[ebp+12]
  00148	2b 4d d4	 sub	 ecx, DWORD PTR _frc$[ebp+4]
; File C:\Program Files (x86)\Microsoft Visual Studio\2019\Community\VC\Tools\MSVC\14.29.30133\atlmfc\include\atltypes.h

; 576  : 	return right - left;

  0014b	8b 45 c8	 mov	 eax, DWORD PTR _rc1$[ebp+8]
; File D:\git\src\IBK\IBK_DRFN\ProjSrc\SrcDrfn\Chart\comparechart\control\GfxOutBarCtrl.cpp

; 2251 : 	bmpTo.CreateCompatibleBitmap(&dc, rc1.Width(), rc1.Height() + frc.Height() * 2);

  0014e	03 c9		 add	 ecx, ecx
  00150	2b 4d c4	 sub	 ecx, DWORD PTR _rc1$[ebp+4]
  00153	03 4d cc	 add	 ecx, DWORD PTR _rc1$[ebp+12]
; File C:\Program Files (x86)\Microsoft Visual Studio\2019\Community\VC\Tools\MSVC\14.29.30133\atlmfc\include\atltypes.h

; 576  : 	return right - left;

  00156	2b 45 c0	 sub	 eax, DWORD PTR _rc1$[ebp]
; File C:\Program Files (x86)\Microsoft Visual Studio\2019\Community\VC\Tools\MSVC\14.29.30133\atlmfc\include\afxwin1.inl

; 217  : 	{ return Attach(::CreateCompatibleBitmap(pDC->m_hDC, nWidth, nHeight)); }

  00159	51		 push	 ecx
  0015a	50		 push	 eax
  0015b	ff b5 60 ff ff
	ff		 push	 DWORD PTR _dc$[ebp+4]
  00161	ff d6		 call	 esi
  00163	50		 push	 eax
  00164	8d 8d 7c ff ff
	ff		 lea	 ecx, DWORD PTR _bmpTo$[ebp]
  0016a	e8 00 00 00 00	 call	 ?Attach@CGdiObject@@QAEHPAX@Z ; CGdiObject::Attach
; File D:\git\src\IBK\IBK_DRFN\ProjSrc\SrcDrfn\Chart\comparechart\control\GfxOutBarCtrl.cpp

; 2254 : 	CWnd * pWnd1 = GetFolderChild(iFrom);

  0016f	8b 75 98	 mov	 esi, DWORD PTR _iFrom$GSCopy$1$[ebp]
  00172	8b d6		 mov	 edx, esi

; 2392 : 	int nFolderCnt = GetFolderCount();

  00174	8b 8f 0c 01 00
	00		 mov	 ecx, DWORD PTR [edi+268]

; 2393 : 	if (nFolderCnt <= iFolder) return NULL;

  0017a	3b ce		 cmp	 ecx, esi
  0017c	7e 2b		 jle	 SHORT $LN80@AnimateFol

; 2394 : 	if (nFolderCnt)

  0017e	85 c9		 test	 ecx, ecx
  00180	74 27		 je	 SHORT $LN80@AnimateFol

; 2395 : 	{
; 2396 : 		if (iFolder < 0) iFolder = iSelFolder;

  00182	85 f6		 test	 esi, esi
  00184	79 12		 jns	 SHORT $LN306@AnimateFol
  00186	8b 97 34 01 00
	00		 mov	 edx, DWORD PTR [edi+308]

; 2397 : 		if (nFolderCnt <= iFolder) return NULL;

  0018c	3b ca		 cmp	 ecx, edx
  0018e	7e 19		 jle	 SHORT $LN80@AnimateFol
; File C:\Program Files (x86)\Microsoft Visual Studio\2019\Community\VC\Tools\MSVC\14.29.30133\atlmfc\include\afxcoll.inl

; 203  : 		if( nIndex < 0 || nIndex >= m_nSize )

  00190	85 d2		 test	 edx, edx
  00192	0f 88 be 05 00
	00		 js	 $LN98@AnimateFol
$LN306@AnimateFol:
; File D:\git\src\IBK\IBK_DRFN\ProjSrc\SrcDrfn\Chart\comparechart\control\GfxOutBarCtrl.cpp

; 2399 : 		return pbf->pChild;

  00198	8b 87 08 01 00
	00		 mov	 eax, DWORD PTR [edi+264]
  0019e	8b 04 90	 mov	 eax, DWORD PTR [eax+edx*4]
  001a1	8b 40 28	 mov	 eax, DWORD PTR [eax+40]
  001a4	89 45 bc	 mov	 DWORD PTR _pWnd1$1$[ebp], eax
  001a7	eb 07		 jmp	 SHORT $LN78@AnimateFol
$LN80@AnimateFol:

; 2255 : 	CWnd * pWnd2 = GetFolderChild(iTo);

  001a9	c7 45 bc 00 00
	00 00		 mov	 DWORD PTR _pWnd1$1$[ebp], 0
$LN78@AnimateFol:
  001b0	8b 45 94	 mov	 eax, DWORD PTR _iTo$GSCopy$1$[ebp]
  001b3	8b d0		 mov	 edx, eax

; 2393 : 	if (nFolderCnt <= iFolder) return NULL;

  001b5	3b c8		 cmp	 ecx, eax
  001b7	7e 36		 jle	 SHORT $LN92@AnimateFol

; 2394 : 	if (nFolderCnt)

  001b9	85 c9		 test	 ecx, ecx
  001bb	74 32		 je	 SHORT $LN92@AnimateFol

; 2395 : 	{
; 2396 : 		if (iFolder < 0) iFolder = iSelFolder;

  001bd	85 c0		 test	 eax, eax
  001bf	79 0a		 jns	 SHORT $LN94@AnimateFol
  001c1	8b 97 34 01 00
	00		 mov	 edx, DWORD PTR [edi+308]

; 2397 : 		if (nFolderCnt <= iFolder) return NULL;

  001c7	3b ca		 cmp	 ecx, edx
  001c9	7e 24		 jle	 SHORT $LN92@AnimateFol
$LN94@AnimateFol:
; File C:\Program Files (x86)\Microsoft Visual Studio\2019\Community\VC\Tools\MSVC\14.29.30133\atlmfc\include\afxcoll.inl

; 203  : 		if( nIndex < 0 || nIndex >= m_nSize )

  001cb	85 d2		 test	 edx, edx
  001cd	0f 88 83 05 00
	00		 js	 $LN98@AnimateFol
  001d3	3b d1		 cmp	 edx, ecx
  001d5	0f 8d 7b 05 00
	00		 jge	 $LN98@AnimateFol
; File D:\git\src\IBK\IBK_DRFN\ProjSrc\SrcDrfn\Chart\comparechart\control\GfxOutBarCtrl.cpp

; 2399 : 		return pbf->pChild;

  001db	8b 87 08 01 00
	00		 mov	 eax, DWORD PTR [edi+264]
  001e1	8b 04 90	 mov	 eax, DWORD PTR [eax+edx*4]
  001e4	8b 70 28	 mov	 esi, DWORD PTR [eax+40]
  001e7	89 75 9c	 mov	 DWORD PTR _pWnd2$1$[ebp], esi
  001ea	8b 75 98	 mov	 esi, DWORD PTR _iFrom$GSCopy$1$[ebp]
  001ed	eb 07		 jmp	 SHORT $LN90@AnimateFol
$LN92@AnimateFol:
; File C:\Program Files (x86)\Microsoft Visual Studio\2019\Community\VC\Tools\MSVC\14.29.30133\atlmfc\include\afxwin1.inl

; 361  : 	{ ASSERT(m_hDC != NULL); return (CBitmap*) SelectGdiObject(m_hDC, pBitmap->GetSafeHandle()); }

  001ef	c7 45 9c 00 00
	00 00		 mov	 DWORD PTR _pWnd2$1$[ebp], 0
$LN90@AnimateFol:
  001f6	ff b5 78 ff ff
	ff		 push	 DWORD PTR _bmpFrom$[ebp+4]
  001fc	ff 75 88	 push	 DWORD PTR _memDC$[ebp+4]
  001ff	e8 00 00 00 00	 call	 ?SelectGdiObject@CDC@@KGPAVCGdiObject@@PAUHDC__@@PAX@Z ; CDC::SelectGdiObject
; File D:\git\src\IBK\IBK_DRFN\ProjSrc\SrcDrfn\Chart\comparechart\control\GfxOutBarCtrl.cpp

; 2258 : 	CBitmap * obmp = pDC->SelectObject(&bmpFrom);

  00204	89 85 70 ff ff
	ff		 mov	 DWORD PTR _obmp$1$[ebp], eax

; 2259 : 	if (iTo > iFrom)

  0020a	39 75 94	 cmp	 DWORD PTR _iTo$GSCopy$1$[ebp], esi
  0020d	0f 8e 61 02 00
	00		 jle	 $LN8@AnimateFol

; 2260 : 	{
; 2261 : 		rc1.bottom += frc.Height() * 2;

  00213	8b 55 dc	 mov	 edx, DWORD PTR _frc$[ebp+12]

; 2262 : 		// bds     (040305)
; 2263 : 		//rc1.left += 5;
; 2264 : 		pDC->FillSolidRect(rc1, crBackGroundColor);

  00216	8d 45 c0	 lea	 eax, DWORD PTR _rc1$[ebp]
  00219	8b 4d cc	 mov	 ecx, DWORD PTR _rc1$[ebp+12]
  0021c	2b 55 d4	 sub	 edx, DWORD PTR _frc$[ebp+4]
  0021f	ff b7 80 00 00
	00		 push	 DWORD PTR [edi+128]
  00225	50		 push	 eax
  00226	8d 0c 51	 lea	 ecx, DWORD PTR [ecx+edx*2]
  00229	89 4d cc	 mov	 DWORD PTR _rc1$[ebp+12], ecx
  0022c	8d 4d 84	 lea	 ecx, DWORD PTR _memDC$[ebp]
  0022f	e8 00 00 00 00	 call	 ?FillSolidRect@CDC@@QAEXPBUtagRECT@@K@Z ; CDC::FillSolidRect

; 2265 : 		if (pWnd1) 

  00234	8b 45 bc	 mov	 eax, DWORD PTR _pWnd1$1$[ebp]
  00237	85 c0		 test	 eax, eax
  00239	74 40		 je	 SHORT $LN10@AnimateFol

; 2267 : 			BOOL bPrev = pWnd1->ShowWindow(SW_SHOW);

  0023b	6a 05		 push	 5
  0023d	8b c8		 mov	 ecx, eax
  0023f	e8 00 00 00 00	 call	 ?ShowWindow@CWnd@@QAEHH@Z ; CWnd::ShowWindow
; File C:\Program Files (x86)\Microsoft Visual Studio\2019\Community\VC\Tools\MSVC\14.29.30133\atlmfc\include\afxwin2.inl

; 32   : 	{ ASSERT(::IsWindow(m_hWnd)); return ::SendMessage(m_hWnd, message, wParam, lParam); }

  00244	6a 00		 push	 0
  00246	ff 75 88	 push	 DWORD PTR _memDC$[ebp+4]
; File D:\git\src\IBK\IBK_DRFN\ProjSrc\SrcDrfn\Chart\comparechart\control\GfxOutBarCtrl.cpp

; 2267 : 			BOOL bPrev = pWnd1->ShowWindow(SW_SHOW);

  00249	8b f0		 mov	 esi, eax
; File C:\Program Files (x86)\Microsoft Visual Studio\2019\Community\VC\Tools\MSVC\14.29.30133\atlmfc\include\afxwin2.inl

; 32   : 	{ ASSERT(::IsWindow(m_hWnd)); return ::SendMessage(m_hWnd, message, wParam, lParam); }

  0024b	8b 45 bc	 mov	 eax, DWORD PTR _pWnd1$1$[ebp]
  0024e	6a 14		 push	 20			; 00000014H
  00250	ff 70 20	 push	 DWORD PTR [eax+32]
  00253	ff 15 00 00 00
	00		 call	 DWORD PTR __imp__SendMessageA@16
  00259	8b 45 bc	 mov	 eax, DWORD PTR _pWnd1$1$[ebp]
  0025c	6a 00		 push	 0
  0025e	ff 75 88	 push	 DWORD PTR _memDC$[ebp+4]
  00261	6a 0f		 push	 15			; 0000000fH
  00263	ff 70 20	 push	 DWORD PTR [eax+32]
  00266	ff 15 00 00 00
	00		 call	 DWORD PTR __imp__SendMessageA@16
; File D:\git\src\IBK\IBK_DRFN\ProjSrc\SrcDrfn\Chart\comparechart\control\GfxOutBarCtrl.cpp

; 2270 : 			if (!bPrev) pWnd1->ShowWindow(SW_HIDE);

  0026c	85 f6		 test	 esi, esi
  0026e	75 23		 jne	 SHORT $LN11@AnimateFol
  00270	8b 4d bc	 mov	 ecx, DWORD PTR _pWnd1$1$[ebp]
  00273	56		 push	 esi
  00274	e8 00 00 00 00	 call	 ?ShowWindow@CWnd@@QAEHH@Z ; CWnd::ShowWindow

; 2271 : 		}

  00279	eb 18		 jmp	 SHORT $LN11@AnimateFol
$LN10@AnimateFol:

; 2272 : 		else PaintItems(pDC, iFrom, rc1);

  0027b	0f 10 45 c0	 movups	 xmm0, XMMWORD PTR _rc1$[ebp]
  0027f	83 ec 10	 sub	 esp, 16			; 00000010H
  00282	8b cf		 mov	 ecx, edi
  00284	8b c4		 mov	 eax, esp
  00286	56		 push	 esi
  00287	0f 11 00	 movups	 XMMWORD PTR [eax], xmm0
  0028a	8d 45 84	 lea	 eax, DWORD PTR _memDC$[ebp]
  0028d	50		 push	 eax
  0028e	e8 00 00 00 00	 call	 ?PaintItems@CGfxOutBarCtrl@@QAEXPAVCDC@@HVCRect@@@Z ; CGfxOutBarCtrl::PaintItems
$LN11@AnimateFol:
; File C:\Program Files (x86)\Microsoft Visual Studio\2019\Community\VC\Tools\MSVC\14.29.30133\atlmfc\include\afxwin1.inl

; 361  : 	{ ASSERT(m_hDC != NULL); return (CBitmap*) SelectGdiObject(m_hDC, pBitmap->GetSafeHandle()); }

  00293	ff 75 80	 push	 DWORD PTR _bmpTo$[ebp+4]
  00296	ff 75 88	 push	 DWORD PTR _memDC$[ebp+4]
  00299	e8 00 00 00 00	 call	 ?SelectGdiObject@CDC@@KGPAVCGdiObject@@PAUHDC__@@PAX@Z ; CDC::SelectGdiObject
; File C:\Program Files (x86)\Microsoft Visual Studio\2019\Community\VC\Tools\MSVC\14.29.30133\atlmfc\include\atltypes.h

; 581  : 	return bottom - top;

  0029e	8b 45 dc	 mov	 eax, DWORD PTR _frc$[ebp+12]
  002a1	2b 45 d4	 sub	 eax, DWORD PTR _frc$[ebp+4]

; 657  : 	::SetRect(this, x1, y1, x2, y2);

  002a4	8b 35 00 00 00
	00		 mov	 esi, DWORD PTR __imp__SetRect@20
  002aa	50		 push	 eax

; 576  : 	return right - left;

  002ab	8b 45 d8	 mov	 eax, DWORD PTR _frc$[ebp+8]
  002ae	2b 45 d0	 sub	 eax, DWORD PTR _frc$[ebp]

; 657  : 	::SetRect(this, x1, y1, x2, y2);

  002b1	50		 push	 eax
  002b2	6a 00		 push	 0
  002b4	6a 00		 push	 0
  002b6	8d 45 d0	 lea	 eax, DWORD PTR _frc$[ebp]
  002b9	50		 push	 eax
  002ba	ff d6		 call	 esi
; File D:\git\src\IBK\IBK_DRFN\ProjSrc\SrcDrfn\Chart\comparechart\control\GfxOutBarCtrl.cpp

; 2276 : 		rc1.SetRect(0,frc.Height(),rc.Width(), rc.Height()+frc.Height() * 2);

  002bc	8b 4d dc	 mov	 ecx, DWORD PTR _frc$[ebp+12]
  002bf	2b 4d d4	 sub	 ecx, DWORD PTR _frc$[ebp+4]
  002c2	8d 04 09	 lea	 eax, DWORD PTR [ecx+ecx]
; File C:\Program Files (x86)\Microsoft Visual Studio\2019\Community\VC\Tools\MSVC\14.29.30133\atlmfc\include\atltypes.h

; 657  : 	::SetRect(this, x1, y1, x2, y2);

  002c5	2b 45 e4	 sub	 eax, DWORD PTR _rc$[ebp+4]
; File D:\git\src\IBK\IBK_DRFN\ProjSrc\SrcDrfn\Chart\comparechart\control\GfxOutBarCtrl.cpp

; 2276 : 		rc1.SetRect(0,frc.Height(),rc.Width(), rc.Height()+frc.Height() * 2);

  002c8	03 45 ec	 add	 eax, DWORD PTR _rc$[ebp+12]
; File C:\Program Files (x86)\Microsoft Visual Studio\2019\Community\VC\Tools\MSVC\14.29.30133\atlmfc\include\atltypes.h

; 657  : 	::SetRect(this, x1, y1, x2, y2);

  002cb	50		 push	 eax

; 576  : 	return right - left;

  002cc	8b 45 e8	 mov	 eax, DWORD PTR _rc$[ebp+8]
  002cf	2b 45 e0	 sub	 eax, DWORD PTR _rc$[ebp]

; 657  : 	::SetRect(this, x1, y1, x2, y2);

  002d2	50		 push	 eax
  002d3	51		 push	 ecx
  002d4	6a 00		 push	 0
  002d6	8d 45 c0	 lea	 eax, DWORD PTR _rc1$[ebp]
  002d9	50		 push	 eax
  002da	ff d6		 call	 esi
; File D:\git\src\IBK\IBK_DRFN\ProjSrc\SrcDrfn\Chart\comparechart\control\GfxOutBarCtrl.cpp

; 2277 : 		pDC->FillSolidRect(rc1, crBackGroundColor);

  002dc	ff b7 80 00 00
	00		 push	 DWORD PTR [edi+128]
  002e2	8d 45 c0	 lea	 eax, DWORD PTR _rc1$[ebp]
  002e5	50		 push	 eax
  002e6	8d 4d 84	 lea	 ecx, DWORD PTR _memDC$[ebp]
  002e9	e8 00 00 00 00	 call	 ?FillSolidRect@CDC@@QAEXPBUtagRECT@@K@Z ; CDC::FillSolidRect

; 2278 : 
; 2279 : 		if (pWnd2) 

  002ee	8b 75 9c	 mov	 esi, DWORD PTR _pWnd2$1$[ebp]
  002f1	85 f6		 test	 esi, esi
  002f3	74 6c		 je	 SHORT $LN13@AnimateFol
; File C:\Program Files (x86)\Microsoft Visual Studio\2019\Community\VC\Tools\MSVC\14.29.30133\atlmfc\include\atltypes.h

; 581  : 	return bottom - top;

  002f5	8b 45 dc	 mov	 eax, DWORD PTR _frc$[ebp+12]
; File D:\git\src\IBK\IBK_DRFN\ProjSrc\SrcDrfn\Chart\comparechart\control\GfxOutBarCtrl.cpp

; 2281 : 			CPoint ovpt = pDC->SetViewportOrg(0, frc.Height());

  002f8	8d 4d 84	 lea	 ecx, DWORD PTR _memDC$[ebp]
; File C:\Program Files (x86)\Microsoft Visual Studio\2019\Community\VC\Tools\MSVC\14.29.30133\atlmfc\include\atltypes.h

; 581  : 	return bottom - top;

  002fb	2b 45 d4	 sub	 eax, DWORD PTR _frc$[ebp+4]
; File D:\git\src\IBK\IBK_DRFN\ProjSrc\SrcDrfn\Chart\comparechart\control\GfxOutBarCtrl.cpp

; 2281 : 			CPoint ovpt = pDC->SetViewportOrg(0, frc.Height());

  002fe	50		 push	 eax
  002ff	6a 00		 push	 0
  00301	8d 45 b8	 lea	 eax, DWORD PTR _ovpt$9[ebp]
  00304	50		 push	 eax
  00305	8b 45 84	 mov	 eax, DWORD PTR _memDC$[ebp]
  00308	ff 50 40	 call	 DWORD PTR [eax+64]

; 2282 : 			BOOL bPrev = pWnd2->ShowWindow(SW_SHOW);

  0030b	6a 05		 push	 5
  0030d	8b ce		 mov	 ecx, esi
  0030f	e8 00 00 00 00	 call	 ?ShowWindow@CWnd@@QAEHH@Z ; CWnd::ShowWindow
; File C:\Program Files (x86)\Microsoft Visual Studio\2019\Community\VC\Tools\MSVC\14.29.30133\atlmfc\include\afxwin2.inl

; 32   : 	{ ASSERT(::IsWindow(m_hWnd)); return ::SendMessage(m_hWnd, message, wParam, lParam); }

  00314	6a 00		 push	 0
  00316	ff 75 88	 push	 DWORD PTR _memDC$[ebp+4]
; File D:\git\src\IBK\IBK_DRFN\ProjSrc\SrcDrfn\Chart\comparechart\control\GfxOutBarCtrl.cpp

; 2282 : 			BOOL bPrev = pWnd2->ShowWindow(SW_SHOW);

  00319	8b f0		 mov	 esi, eax
; File C:\Program Files (x86)\Microsoft Visual Studio\2019\Community\VC\Tools\MSVC\14.29.30133\atlmfc\include\afxwin2.inl

; 32   : 	{ ASSERT(::IsWindow(m_hWnd)); return ::SendMessage(m_hWnd, message, wParam, lParam); }

  0031b	8b 45 9c	 mov	 eax, DWORD PTR _pWnd2$1$[ebp]
  0031e	6a 14		 push	 20			; 00000014H
  00320	ff 70 20	 push	 DWORD PTR [eax+32]
  00323	ff 15 00 00 00
	00		 call	 DWORD PTR __imp__SendMessageA@16
  00329	8b 45 9c	 mov	 eax, DWORD PTR _pWnd2$1$[ebp]
  0032c	6a 00		 push	 0
  0032e	ff 75 88	 push	 DWORD PTR _memDC$[ebp+4]
  00331	6a 0f		 push	 15			; 0000000fH
  00333	ff 70 20	 push	 DWORD PTR [eax+32]
  00336	ff 15 00 00 00
	00		 call	 DWORD PTR __imp__SendMessageA@16
; File D:\git\src\IBK\IBK_DRFN\ProjSrc\SrcDrfn\Chart\comparechart\control\GfxOutBarCtrl.cpp

; 2285 : 			if (!bPrev) pWnd2->ShowWindow(SW_HIDE);

  0033c	85 f6		 test	 esi, esi
  0033e	75 09		 jne	 SHORT $LN15@AnimateFol
  00340	8b 4d 9c	 mov	 ecx, DWORD PTR _pWnd2$1$[ebp]
  00343	56		 push	 esi
  00344	e8 00 00 00 00	 call	 ?ShowWindow@CWnd@@QAEHH@Z ; CWnd::ShowWindow
$LN15@AnimateFol:
; File C:\Program Files (x86)\Microsoft Visual Studio\2019\Community\VC\Tools\MSVC\14.29.30133\atlmfc\include\afxwin1.inl

; 423  : 	{ ASSERT(m_hDC != NULL); return SetViewportOrg(point.x, point.y); }

  00349	ff 75 bc	 push	 DWORD PTR _ovpt$9[ebp+4]
  0034c	8d 45 a8	 lea	 eax, DWORD PTR $T5[ebp]
  0034f	ff 75 b8	 push	 DWORD PTR _ovpt$9[ebp]
  00352	8d 4d 84	 lea	 ecx, DWORD PTR _memDC$[ebp]
  00355	50		 push	 eax
  00356	8b 45 84	 mov	 eax, DWORD PTR _memDC$[ebp]
  00359	ff 50 40	 call	 DWORD PTR [eax+64]
; File D:\git\src\IBK\IBK_DRFN\ProjSrc\SrcDrfn\Chart\comparechart\control\GfxOutBarCtrl.cpp

; 2287 : 		}

  0035c	8b 75 94	 mov	 esi, DWORD PTR _iTo$GSCopy$1$[ebp]
  0035f	eb 1b		 jmp	 SHORT $LN14@AnimateFol
$LN13@AnimateFol:

; 2288 : 		else PaintItems(pDC, iTo, rc1);

  00361	0f 10 45 c0	 movups	 xmm0, XMMWORD PTR _rc1$[ebp]
  00365	8b 75 94	 mov	 esi, DWORD PTR _iTo$GSCopy$1$[ebp]
  00368	83 ec 10	 sub	 esp, 16			; 00000010H
  0036b	8b c4		 mov	 eax, esp
  0036d	8b cf		 mov	 ecx, edi
  0036f	56		 push	 esi
  00370	0f 11 00	 movups	 XMMWORD PTR [eax], xmm0
  00373	8d 45 84	 lea	 eax, DWORD PTR _memDC$[ebp]
  00376	50		 push	 eax
  00377	e8 00 00 00 00	 call	 ?PaintItems@CGfxOutBarCtrl@@QAEXPAVCDC@@HVCRect@@@Z ; CGfxOutBarCtrl::PaintItems
$LN14@AnimateFol:

; 2289 : 		DrawFolder(pDC, iTo, frc, false);

  0037c	0f 10 45 d0	 movups	 xmm0, XMMWORD PTR _frc$[ebp]
  00380	6a 00		 push	 0
  00382	83 ec 10	 sub	 esp, 16			; 00000010H
  00385	8b cf		 mov	 ecx, edi
  00387	8b c4		 mov	 eax, esp
  00389	56		 push	 esi
  0038a	0f 11 00	 movups	 XMMWORD PTR [eax], xmm0
  0038d	8d 45 84	 lea	 eax, DWORD PTR _memDC$[ebp]
  00390	50		 push	 eax
  00391	e8 00 00 00 00	 call	 ?DrawFolder@CGfxOutBarCtrl@@IAEXPAVCDC@@HVCRect@@_N@Z ; CGfxOutBarCtrl::DrawFolder

; 2331 : 		GetFolderRect(iFrom, rcFrom);

  00396	8d 45 a0	 lea	 eax, DWORD PTR _rcFrom$3[ebp]
  00399	0f 57 c0	 xorps	 xmm0, xmm0
  0039c	50		 push	 eax
  0039d	ff 75 98	 push	 DWORD PTR _iFrom$GSCopy$1$[ebp]
  003a0	8b cf		 mov	 ecx, edi
; File C:\Program Files (x86)\Microsoft Visual Studio\2019\Community\VC\Tools\MSVC\14.29.30133\atlmfc\include\atltypes.h

; 528  : 	left = 0;

  003a2	0f 11 45 a0	 movups	 XMMWORD PTR _rcFrom$3[ebp], xmm0
  003a6	0f 11 45 b0	 movups	 XMMWORD PTR _rcTo$7[ebp], xmm0
; File D:\git\src\IBK\IBK_DRFN\ProjSrc\SrcDrfn\Chart\comparechart\control\GfxOutBarCtrl.cpp

; 2331 : 		GetFolderRect(iFrom, rcFrom);

  003aa	e8 00 00 00 00	 call	 ?GetFolderRect@CGfxOutBarCtrl@@QBE_NHAAVCRect@@@Z ; CGfxOutBarCtrl::GetFolderRect

; 2332 : 		GetFolderRect(iTo, rcTo);

  003af	8d 45 b0	 lea	 eax, DWORD PTR _rcTo$7[ebp]
  003b2	8b cf		 mov	 ecx, edi
  003b4	50		 push	 eax
  003b5	56		 push	 esi
  003b6	e8 00 00 00 00	 call	 ?GetFolderRect@CGfxOutBarCtrl@@QBE_NHAAVCRect@@@Z ; CGfxOutBarCtrl::GetFolderRect
; File C:\Program Files (x86)\Microsoft Visual Studio\2019\Community\VC\Tools\MSVC\14.29.30133\atlmfc\include\atltypes.h

; 581  : 	return bottom - top;

  003bb	8b 4d ac	 mov	 ecx, DWORD PTR _rcFrom$3[ebp+12]
  003be	2b 4d a4	 sub	 ecx, DWORD PTR _rcFrom$3[ebp+4]
; File D:\git\src\IBK\IBK_DRFN\ProjSrc\SrcDrfn\Chart\comparechart\control\GfxOutBarCtrl.cpp

; 2334 : 		for (int y = rcTo.top - fh; y > rcFrom.bottom; y -= fh)

  003c1	8b 75 b4	 mov	 esi, DWORD PTR _rcTo$7[ebp+4]
  003c4	2b f1		 sub	 esi, ecx
; File C:\Program Files (x86)\Microsoft Visual Studio\2019\Community\VC\Tools\MSVC\14.29.30133\atlmfc\include\atltypes.h

; 581  : 	return bottom - top;

  003c6	89 4d 98	 mov	 DWORD PTR _fh$1$[ebp], ecx
; File D:\git\src\IBK\IBK_DRFN\ProjSrc\SrcDrfn\Chart\comparechart\control\GfxOutBarCtrl.cpp

; 2334 : 		for (int y = rcTo.top - fh; y > rcFrom.bottom; y -= fh)

  003c9	89 75 94	 mov	 DWORD PTR _y$1$[ebp], esi
  003cc	3b 75 ac	 cmp	 esi, DWORD PTR _rcFrom$3[ebp+12]
  003cf	0f 8e 11 03 00
	00		 jle	 $LN6@AnimateFol
  003d5	66 66 66 0f 1f
	84 00 00 00 00
	00		 npad	 11
$LL4@AnimateFol:
; File C:\Program Files (x86)\Microsoft Visual Studio\2019\Community\VC\Tools\MSVC\14.29.30133\atlmfc\include\afxwin1.inl

; 361  : 	{ ASSERT(m_hDC != NULL); return (CBitmap*) SelectGdiObject(m_hDC, pBitmap->GetSafeHandle()); }

  003e0	ff b5 78 ff ff
	ff		 push	 DWORD PTR _bmpFrom$[ebp+4]
  003e6	ff 75 88	 push	 DWORD PTR _memDC$[ebp+4]
  003e9	e8 00 00 00 00	 call	 ?SelectGdiObject@CDC@@KGPAVCGdiObject@@PAUHDC__@@PAX@Z ; CDC::SelectGdiObject
; File D:\git\src\IBK\IBK_DRFN\ProjSrc\SrcDrfn\Chart\comparechart\control\GfxOutBarCtrl.cpp

; 2337 : 			dc.BitBlt(rc.left, rcFrom.bottom + 1, rc.Width(), y - rcFrom.bottom - 1, pDC, 0,fh, SRCCOPY);

  003ee	8b 45 ac	 mov	 eax, DWORD PTR _rcFrom$3[ebp+12]
  003f1	2b f0		 sub	 esi, eax
; File C:\Program Files (x86)\Microsoft Visual Studio\2019\Community\VC\Tools\MSVC\14.29.30133\atlmfc\include\atltypes.h

; 576  : 	return right - left;

  003f3	8b 4d e8	 mov	 ecx, DWORD PTR _rc$[ebp+8]
; File D:\git\src\IBK\IBK_DRFN\ProjSrc\SrcDrfn\Chart\comparechart\control\GfxOutBarCtrl.cpp

; 2337 : 			dc.BitBlt(rc.left, rcFrom.bottom + 1, rc.Width(), y - rcFrom.bottom - 1, pDC, 0,fh, SRCCOPY);

  003f6	4e		 dec	 esi
; File C:\Program Files (x86)\Microsoft Visual Studio\2019\Community\VC\Tools\MSVC\14.29.30133\atlmfc\include\atltypes.h

; 576  : 	return right - left;

  003f7	8b 55 e0	 mov	 edx, DWORD PTR _rc$[ebp]
; File D:\git\src\IBK\IBK_DRFN\ProjSrc\SrcDrfn\Chart\comparechart\control\GfxOutBarCtrl.cpp

; 2337 : 			dc.BitBlt(rc.left, rcFrom.bottom + 1, rc.Width(), y - rcFrom.bottom - 1, pDC, 0,fh, SRCCOPY);

  003fa	40		 inc	 eax
; File C:\Program Files (x86)\Microsoft Visual Studio\2019\Community\VC\Tools\MSVC\14.29.30133\atlmfc\include\afxwin1.inl

; 552  : 	{ ASSERT(m_hDC != NULL); return ::BitBlt(m_hDC, x, y, nWidth, nHeight,

  003fb	68 20 00 cc 00	 push	 13369376		; 00cc0020H
  00400	ff 75 98	 push	 DWORD PTR _fh$1$[ebp]
; File C:\Program Files (x86)\Microsoft Visual Studio\2019\Community\VC\Tools\MSVC\14.29.30133\atlmfc\include\atltypes.h

; 576  : 	return right - left;

  00403	2b ca		 sub	 ecx, edx
; File C:\Program Files (x86)\Microsoft Visual Studio\2019\Community\VC\Tools\MSVC\14.29.30133\atlmfc\include\afxwin1.inl

; 552  : 	{ ASSERT(m_hDC != NULL); return ::BitBlt(m_hDC, x, y, nWidth, nHeight,

  00405	6a 00		 push	 0
  00407	ff 75 88	 push	 DWORD PTR _memDC$[ebp+4]
  0040a	56		 push	 esi
  0040b	51		 push	 ecx
  0040c	50		 push	 eax
  0040d	52		 push	 edx
  0040e	ff b5 60 ff ff
	ff		 push	 DWORD PTR _dc$[ebp+4]
  00414	ff 15 00 00 00
	00		 call	 DWORD PTR __imp__BitBlt@36

; 361  : 	{ ASSERT(m_hDC != NULL); return (CBitmap*) SelectGdiObject(m_hDC, pBitmap->GetSafeHandle()); }

  0041a	ff 75 80	 push	 DWORD PTR _bmpTo$[ebp+4]
  0041d	ff 75 88	 push	 DWORD PTR _memDC$[ebp+4]
  00420	e8 00 00 00 00	 call	 ?SelectGdiObject@CDC@@KGPAVCGdiObject@@PAUHDC__@@PAX@Z ; CDC::SelectGdiObject
; File D:\git\src\IBK\IBK_DRFN\ProjSrc\SrcDrfn\Chart\comparechart\control\GfxOutBarCtrl.cpp

; 2339 : 			dc.BitBlt(rc.left, y, rc.Width(), rc.bottom - y + fh, pDC, 0,0, SRCCOPY);

  00425	8b 55 ec	 mov	 edx, DWORD PTR _rc$[ebp+12]
  00428	8b 75 94	 mov	 esi, DWORD PTR _y$1$[ebp]
  0042b	2b d6		 sub	 edx, esi
  0042d	03 55 98	 add	 edx, DWORD PTR _fh$1$[ebp]
; File C:\Program Files (x86)\Microsoft Visual Studio\2019\Community\VC\Tools\MSVC\14.29.30133\atlmfc\include\atltypes.h

; 576  : 	return right - left;

  00430	8b 45 e8	 mov	 eax, DWORD PTR _rc$[ebp+8]
  00433	8b 4d e0	 mov	 ecx, DWORD PTR _rc$[ebp]
  00436	2b c1		 sub	 eax, ecx
; File C:\Program Files (x86)\Microsoft Visual Studio\2019\Community\VC\Tools\MSVC\14.29.30133\atlmfc\include\afxwin1.inl

; 552  : 	{ ASSERT(m_hDC != NULL); return ::BitBlt(m_hDC, x, y, nWidth, nHeight,

  00438	68 20 00 cc 00	 push	 13369376		; 00cc0020H
  0043d	6a 00		 push	 0
  0043f	6a 00		 push	 0
  00441	ff 75 88	 push	 DWORD PTR _memDC$[ebp+4]
  00444	52		 push	 edx
  00445	50		 push	 eax
  00446	56		 push	 esi
  00447	51		 push	 ecx
  00448	ff b5 60 ff ff
	ff		 push	 DWORD PTR _dc$[ebp+4]
  0044e	ff 15 00 00 00
	00		 call	 DWORD PTR __imp__BitBlt@36
; File D:\git\src\IBK\IBK_DRFN\ProjSrc\SrcDrfn\Chart\comparechart\control\GfxOutBarCtrl.cpp

; 2340 : 			Sleep(lAnimationTickCount);

  00454	ff b7 f0 00 00
	00		 push	 DWORD PTR [edi+240]
  0045a	ff 15 00 00 00
	00		 call	 DWORD PTR __imp__Sleep@4
  00460	2b 75 98	 sub	 esi, DWORD PTR _fh$1$[ebp]
  00463	89 75 94	 mov	 DWORD PTR _y$1$[ebp], esi
  00466	3b 75 ac	 cmp	 esi, DWORD PTR _rcFrom$3[ebp+12]
  00469	0f 8f 71 ff ff
	ff		 jg	 $LL4@AnimateFol

; 2341 : 		}
; 2342 : 	}

  0046f	e9 72 02 00 00	 jmp	 $LN6@AnimateFol
$LN8@AnimateFol:
; File C:\Program Files (x86)\Microsoft Visual Studio\2019\Community\VC\Tools\MSVC\14.29.30133\atlmfc\include\atltypes.h

; 581  : 	return bottom - top;

  00474	8b 45 dc	 mov	 eax, DWORD PTR _frc$[ebp+12]
  00477	2b 45 d4	 sub	 eax, DWORD PTR _frc$[ebp+4]

; 657  : 	::SetRect(this, x1, y1, x2, y2);

  0047a	50		 push	 eax

; 576  : 	return right - left;

  0047b	8b 45 d8	 mov	 eax, DWORD PTR _frc$[ebp+8]
  0047e	2b 45 d0	 sub	 eax, DWORD PTR _frc$[ebp]

; 657  : 	::SetRect(this, x1, y1, x2, y2);

  00481	50		 push	 eax
  00482	6a 00		 push	 0
  00484	6a 00		 push	 0
  00486	8d 45 d0	 lea	 eax, DWORD PTR _frc$[ebp]
  00489	50		 push	 eax
  0048a	ff 15 00 00 00
	00		 call	 DWORD PTR __imp__SetRect@20
; File D:\git\src\IBK\IBK_DRFN\ProjSrc\SrcDrfn\Chart\comparechart\control\GfxOutBarCtrl.cpp

; 2294 : 		rc1.top += frc.Height();

  00490	8b 4d dc	 mov	 ecx, DWORD PTR _frc$[ebp+12]
  00493	2b 4d d4	 sub	 ecx, DWORD PTR _frc$[ebp+4]

; 2295 : 		rc1.bottom += frc.Height() * 2;

  00496	8b 45 cc	 mov	 eax, DWORD PTR _rc1$[ebp+12]

; 2296 : 
; 2297 : 		// bds     (040305)
; 2298 : 		//rc1.left += 5;
; 2299 : 
; 2300 : 		pDC->FillSolidRect(rc1, crBackGroundColor);

  00499	ff b7 80 00 00
	00		 push	 DWORD PTR [edi+128]
  0049f	01 4d c4	 add	 DWORD PTR _rc1$[ebp+4], ecx
  004a2	8d 04 48	 lea	 eax, DWORD PTR [eax+ecx*2]
  004a5	89 45 cc	 mov	 DWORD PTR _rc1$[ebp+12], eax
  004a8	8d 4d 84	 lea	 ecx, DWORD PTR _memDC$[ebp]
  004ab	8d 45 c0	 lea	 eax, DWORD PTR _rc1$[ebp]
  004ae	50		 push	 eax
  004af	e8 00 00 00 00	 call	 ?FillSolidRect@CDC@@QAEXPBUtagRECT@@K@Z ; CDC::FillSolidRect

; 2301 : 		if (pWnd1) 

  004b4	8b 75 bc	 mov	 esi, DWORD PTR _pWnd1$1$[ebp]
  004b7	85 f6		 test	 esi, esi
  004b9	74 69		 je	 SHORT $LN16@AnimateFol
; File C:\Program Files (x86)\Microsoft Visual Studio\2019\Community\VC\Tools\MSVC\14.29.30133\atlmfc\include\atltypes.h

; 581  : 	return bottom - top;

  004bb	8b 45 dc	 mov	 eax, DWORD PTR _frc$[ebp+12]
; File D:\git\src\IBK\IBK_DRFN\ProjSrc\SrcDrfn\Chart\comparechart\control\GfxOutBarCtrl.cpp

; 2303 : 			CPoint ovpt = pDC->SetViewportOrg(0, frc.Height());

  004be	8d 4d 84	 lea	 ecx, DWORD PTR _memDC$[ebp]
; File C:\Program Files (x86)\Microsoft Visual Studio\2019\Community\VC\Tools\MSVC\14.29.30133\atlmfc\include\atltypes.h

; 581  : 	return bottom - top;

  004c1	2b 45 d4	 sub	 eax, DWORD PTR _frc$[ebp+4]
; File D:\git\src\IBK\IBK_DRFN\ProjSrc\SrcDrfn\Chart\comparechart\control\GfxOutBarCtrl.cpp

; 2303 : 			CPoint ovpt = pDC->SetViewportOrg(0, frc.Height());

  004c4	50		 push	 eax
  004c5	6a 00		 push	 0
  004c7	8d 45 a8	 lea	 eax, DWORD PTR _ovpt$4[ebp]
  004ca	50		 push	 eax
  004cb	8b 45 84	 mov	 eax, DWORD PTR _memDC$[ebp]
  004ce	ff 50 40	 call	 DWORD PTR [eax+64]

; 2304 : 			BOOL bPrev = pWnd1->ShowWindow(SW_SHOW);

  004d1	6a 05		 push	 5
  004d3	8b ce		 mov	 ecx, esi
  004d5	e8 00 00 00 00	 call	 ?ShowWindow@CWnd@@QAEHH@Z ; CWnd::ShowWindow
; File C:\Program Files (x86)\Microsoft Visual Studio\2019\Community\VC\Tools\MSVC\14.29.30133\atlmfc\include\afxwin2.inl

; 32   : 	{ ASSERT(::IsWindow(m_hWnd)); return ::SendMessage(m_hWnd, message, wParam, lParam); }

  004da	6a 00		 push	 0
  004dc	ff 75 88	 push	 DWORD PTR _memDC$[ebp+4]
; File D:\git\src\IBK\IBK_DRFN\ProjSrc\SrcDrfn\Chart\comparechart\control\GfxOutBarCtrl.cpp

; 2304 : 			BOOL bPrev = pWnd1->ShowWindow(SW_SHOW);

  004df	8b f0		 mov	 esi, eax
; File C:\Program Files (x86)\Microsoft Visual Studio\2019\Community\VC\Tools\MSVC\14.29.30133\atlmfc\include\afxwin2.inl

; 32   : 	{ ASSERT(::IsWindow(m_hWnd)); return ::SendMessage(m_hWnd, message, wParam, lParam); }

  004e1	8b 45 bc	 mov	 eax, DWORD PTR _pWnd1$1$[ebp]
  004e4	6a 14		 push	 20			; 00000014H
  004e6	ff 70 20	 push	 DWORD PTR [eax+32]
  004e9	ff 15 00 00 00
	00		 call	 DWORD PTR __imp__SendMessageA@16
  004ef	8b 45 bc	 mov	 eax, DWORD PTR _pWnd1$1$[ebp]
  004f2	6a 00		 push	 0
  004f4	ff 75 88	 push	 DWORD PTR _memDC$[ebp+4]
  004f7	6a 0f		 push	 15			; 0000000fH
  004f9	ff 70 20	 push	 DWORD PTR [eax+32]
  004fc	ff 15 00 00 00
	00		 call	 DWORD PTR __imp__SendMessageA@16
; File D:\git\src\IBK\IBK_DRFN\ProjSrc\SrcDrfn\Chart\comparechart\control\GfxOutBarCtrl.cpp

; 2307 : 			if (!bPrev) pWnd1->ShowWindow(SW_HIDE);

  00502	85 f6		 test	 esi, esi
  00504	75 09		 jne	 SHORT $LN18@AnimateFol
  00506	8b 4d bc	 mov	 ecx, DWORD PTR _pWnd1$1$[ebp]
  00509	56		 push	 esi
  0050a	e8 00 00 00 00	 call	 ?ShowWindow@CWnd@@QAEHH@Z ; CWnd::ShowWindow
$LN18@AnimateFol:
; File C:\Program Files (x86)\Microsoft Visual Studio\2019\Community\VC\Tools\MSVC\14.29.30133\atlmfc\include\afxwin1.inl

; 423  : 	{ ASSERT(m_hDC != NULL); return SetViewportOrg(point.x, point.y); }

  0050f	ff 75 ac	 push	 DWORD PTR _ovpt$4[ebp+4]
  00512	8d 45 b8	 lea	 eax, DWORD PTR $T8[ebp]
  00515	ff 75 a8	 push	 DWORD PTR _ovpt$4[ebp]
  00518	8d 4d 84	 lea	 ecx, DWORD PTR _memDC$[ebp]
  0051b	50		 push	 eax
  0051c	8b 45 84	 mov	 eax, DWORD PTR _memDC$[ebp]
  0051f	ff 50 40	 call	 DWORD PTR [eax+64]
; File D:\git\src\IBK\IBK_DRFN\ProjSrc\SrcDrfn\Chart\comparechart\control\GfxOutBarCtrl.cpp

; 2309 : 		}

  00522	eb 1a		 jmp	 SHORT $LN17@AnimateFol
$LN16@AnimateFol:

; 2310 : 		else PaintItems(pDC, iFrom, rc1);

  00524	0f 10 45 c0	 movups	 xmm0, XMMWORD PTR _rc1$[ebp]
  00528	83 ec 10	 sub	 esp, 16			; 00000010H
  0052b	8b cf		 mov	 ecx, edi
  0052d	8b c4		 mov	 eax, esp
  0052f	ff 75 98	 push	 DWORD PTR _iFrom$GSCopy$1$[ebp]
  00532	0f 11 00	 movups	 XMMWORD PTR [eax], xmm0
  00535	8d 45 84	 lea	 eax, DWORD PTR _memDC$[ebp]
  00538	50		 push	 eax
  00539	e8 00 00 00 00	 call	 ?PaintItems@CGfxOutBarCtrl@@QAEXPAVCDC@@HVCRect@@@Z ; CGfxOutBarCtrl::PaintItems
$LN17@AnimateFol:

; 2311 : 
; 2312 : 		DrawFolder(pDC, iFrom, frc, false);

  0053e	0f 10 45 d0	 movups	 xmm0, XMMWORD PTR _frc$[ebp]
  00542	6a 00		 push	 0
  00544	83 ec 10	 sub	 esp, 16			; 00000010H
  00547	8b cf		 mov	 ecx, edi
  00549	8b c4		 mov	 eax, esp
  0054b	ff 75 98	 push	 DWORD PTR _iFrom$GSCopy$1$[ebp]
  0054e	0f 11 00	 movups	 XMMWORD PTR [eax], xmm0
  00551	8d 45 84	 lea	 eax, DWORD PTR _memDC$[ebp]
  00554	50		 push	 eax
  00555	e8 00 00 00 00	 call	 ?DrawFolder@CGfxOutBarCtrl@@IAEXPAVCDC@@HVCRect@@_N@Z ; CGfxOutBarCtrl::DrawFolder
; File C:\Program Files (x86)\Microsoft Visual Studio\2019\Community\VC\Tools\MSVC\14.29.30133\atlmfc\include\afxwin1.inl

; 361  : 	{ ASSERT(m_hDC != NULL); return (CBitmap*) SelectGdiObject(m_hDC, pBitmap->GetSafeHandle()); }

  0055a	ff 75 80	 push	 DWORD PTR _bmpTo$[ebp+4]
  0055d	ff 75 88	 push	 DWORD PTR _memDC$[ebp+4]
  00560	e8 00 00 00 00	 call	 ?SelectGdiObject@CDC@@KGPAVCGdiObject@@PAUHDC__@@PAX@Z ; CDC::SelectGdiObject
; File D:\git\src\IBK\IBK_DRFN\ProjSrc\SrcDrfn\Chart\comparechart\control\GfxOutBarCtrl.cpp

; 2315 : 		rc1.SetRect(0,0,rc.Width(), rc.Height() + frc.Height() * 2);

  00565	8b 45 dc	 mov	 eax, DWORD PTR _frc$[ebp+12]
  00568	2b 45 d4	 sub	 eax, DWORD PTR _frc$[ebp+4]
  0056b	03 c0		 add	 eax, eax
; File C:\Program Files (x86)\Microsoft Visual Studio\2019\Community\VC\Tools\MSVC\14.29.30133\atlmfc\include\atltypes.h

; 657  : 	::SetRect(this, x1, y1, x2, y2);

  0056d	2b 45 e4	 sub	 eax, DWORD PTR _rc$[ebp+4]
; File D:\git\src\IBK\IBK_DRFN\ProjSrc\SrcDrfn\Chart\comparechart\control\GfxOutBarCtrl.cpp

; 2315 : 		rc1.SetRect(0,0,rc.Width(), rc.Height() + frc.Height() * 2);

  00570	03 45 ec	 add	 eax, DWORD PTR _rc$[ebp+12]
; File C:\Program Files (x86)\Microsoft Visual Studio\2019\Community\VC\Tools\MSVC\14.29.30133\atlmfc\include\atltypes.h

; 657  : 	::SetRect(this, x1, y1, x2, y2);

  00573	50		 push	 eax

; 576  : 	return right - left;

  00574	8b 45 e8	 mov	 eax, DWORD PTR _rc$[ebp+8]
  00577	2b 45 e0	 sub	 eax, DWORD PTR _rc$[ebp]

; 657  : 	::SetRect(this, x1, y1, x2, y2);

  0057a	50		 push	 eax
  0057b	6a 00		 push	 0
  0057d	6a 00		 push	 0
  0057f	8d 45 c0	 lea	 eax, DWORD PTR _rc1$[ebp]
  00582	50		 push	 eax
  00583	ff 15 00 00 00
	00		 call	 DWORD PTR __imp__SetRect@20
; File D:\git\src\IBK\IBK_DRFN\ProjSrc\SrcDrfn\Chart\comparechart\control\GfxOutBarCtrl.cpp

; 2316 : 		pDC->FillSolidRect(rc1, crBackGroundColor);

  00589	ff b7 80 00 00
	00		 push	 DWORD PTR [edi+128]
  0058f	8d 45 c0	 lea	 eax, DWORD PTR _rc1$[ebp]
  00592	50		 push	 eax
  00593	8d 4d 84	 lea	 ecx, DWORD PTR _memDC$[ebp]
  00596	e8 00 00 00 00	 call	 ?FillSolidRect@CDC@@QAEXPBUtagRECT@@K@Z ; CDC::FillSolidRect

; 2317 : 
; 2318 : 		if (pWnd2) 

  0059b	8b 45 9c	 mov	 eax, DWORD PTR _pWnd2$1$[ebp]
  0059e	85 c0		 test	 eax, eax
  005a0	74 40		 je	 SHORT $LN19@AnimateFol

; 2320 : 			BOOL bPrev = pWnd2->ShowWindow(SW_SHOW);

  005a2	6a 05		 push	 5
  005a4	8b c8		 mov	 ecx, eax
  005a6	e8 00 00 00 00	 call	 ?ShowWindow@CWnd@@QAEHH@Z ; CWnd::ShowWindow
; File C:\Program Files (x86)\Microsoft Visual Studio\2019\Community\VC\Tools\MSVC\14.29.30133\atlmfc\include\afxwin2.inl

; 32   : 	{ ASSERT(::IsWindow(m_hWnd)); return ::SendMessage(m_hWnd, message, wParam, lParam); }

  005ab	6a 00		 push	 0
  005ad	ff 75 88	 push	 DWORD PTR _memDC$[ebp+4]
; File D:\git\src\IBK\IBK_DRFN\ProjSrc\SrcDrfn\Chart\comparechart\control\GfxOutBarCtrl.cpp

; 2320 : 			BOOL bPrev = pWnd2->ShowWindow(SW_SHOW);

  005b0	8b f0		 mov	 esi, eax
; File C:\Program Files (x86)\Microsoft Visual Studio\2019\Community\VC\Tools\MSVC\14.29.30133\atlmfc\include\afxwin2.inl

; 32   : 	{ ASSERT(::IsWindow(m_hWnd)); return ::SendMessage(m_hWnd, message, wParam, lParam); }

  005b2	8b 45 9c	 mov	 eax, DWORD PTR _pWnd2$1$[ebp]
  005b5	6a 14		 push	 20			; 00000014H
  005b7	ff 70 20	 push	 DWORD PTR [eax+32]
  005ba	ff 15 00 00 00
	00		 call	 DWORD PTR __imp__SendMessageA@16
  005c0	8b 45 9c	 mov	 eax, DWORD PTR _pWnd2$1$[ebp]
  005c3	6a 00		 push	 0
  005c5	ff 75 88	 push	 DWORD PTR _memDC$[ebp+4]
  005c8	6a 0f		 push	 15			; 0000000fH
  005ca	ff 70 20	 push	 DWORD PTR [eax+32]
  005cd	ff 15 00 00 00
	00		 call	 DWORD PTR __imp__SendMessageA@16
; File D:\git\src\IBK\IBK_DRFN\ProjSrc\SrcDrfn\Chart\comparechart\control\GfxOutBarCtrl.cpp

; 2323 : 			if (!bPrev) pWnd2->ShowWindow(SW_HIDE);

  005d3	85 f6		 test	 esi, esi
  005d5	75 25		 jne	 SHORT $LN22@AnimateFol
  005d7	8b 4d 9c	 mov	 ecx, DWORD PTR _pWnd2$1$[ebp]
  005da	56		 push	 esi
  005db	e8 00 00 00 00	 call	 ?ShowWindow@CWnd@@QAEHH@Z ; CWnd::ShowWindow

; 2324 : 		}

  005e0	eb 1a		 jmp	 SHORT $LN22@AnimateFol
$LN19@AnimateFol:

; 2325 : 		else PaintItems(pDC, iTo, rc1);

  005e2	0f 10 45 c0	 movups	 xmm0, XMMWORD PTR _rc1$[ebp]
  005e6	83 ec 10	 sub	 esp, 16			; 00000010H
  005e9	8b cf		 mov	 ecx, edi
  005eb	8b c4		 mov	 eax, esp
  005ed	ff 75 94	 push	 DWORD PTR _iTo$GSCopy$1$[ebp]
  005f0	0f 11 00	 movups	 XMMWORD PTR [eax], xmm0
  005f3	8d 45 84	 lea	 eax, DWORD PTR _memDC$[ebp]
  005f6	50		 push	 eax
  005f7	e8 00 00 00 00	 call	 ?PaintItems@CGfxOutBarCtrl@@QAEXPAVCDC@@HVCRect@@@Z ; CGfxOutBarCtrl::PaintItems
$LN22@AnimateFol:

; 2346 : 		GetFolderRect(iFrom, rcFrom);

  005fc	8d 45 a0	 lea	 eax, DWORD PTR _rcFrom$2[ebp]
  005ff	0f 57 c0	 xorps	 xmm0, xmm0
  00602	50		 push	 eax
  00603	ff 75 98	 push	 DWORD PTR _iFrom$GSCopy$1$[ebp]
  00606	8b cf		 mov	 ecx, edi
; File C:\Program Files (x86)\Microsoft Visual Studio\2019\Community\VC\Tools\MSVC\14.29.30133\atlmfc\include\atltypes.h

; 528  : 	left = 0;

  00608	0f 11 45 a0	 movups	 XMMWORD PTR _rcFrom$2[ebp], xmm0
  0060c	0f 11 45 b0	 movups	 XMMWORD PTR _rcTo$6[ebp], xmm0
; File D:\git\src\IBK\IBK_DRFN\ProjSrc\SrcDrfn\Chart\comparechart\control\GfxOutBarCtrl.cpp

; 2346 : 		GetFolderRect(iFrom, rcFrom);

  00610	e8 00 00 00 00	 call	 ?GetFolderRect@CGfxOutBarCtrl@@QBE_NHAAVCRect@@@Z ; CGfxOutBarCtrl::GetFolderRect
; File C:\Program Files (x86)\Microsoft Visual Studio\2019\Community\VC\Tools\MSVC\14.29.30133\atlmfc\include\atltypes.h

; 581  : 	return bottom - top;

  00615	8b 55 ac	 mov	 edx, DWORD PTR _rcFrom$2[ebp+12]
; File D:\git\src\IBK\IBK_DRFN\ProjSrc\SrcDrfn\Chart\comparechart\control\GfxOutBarCtrl.cpp

; 2348 : 		rcTo.SetRect(rc.left, rc.bottom, rc.right, rc.bottom - fh);

  00618	8b 4d ec	 mov	 ecx, DWORD PTR _rc$[ebp+12]
  0061b	8b c1		 mov	 eax, ecx
; File C:\Program Files (x86)\Microsoft Visual Studio\2019\Community\VC\Tools\MSVC\14.29.30133\atlmfc\include\atltypes.h

; 581  : 	return bottom - top;

  0061d	2b 55 a4	 sub	 edx, DWORD PTR _rcFrom$2[ebp+4]
; File D:\git\src\IBK\IBK_DRFN\ProjSrc\SrcDrfn\Chart\comparechart\control\GfxOutBarCtrl.cpp

; 2348 : 		rcTo.SetRect(rc.left, rc.bottom, rc.right, rc.bottom - fh);

  00620	2b c2		 sub	 eax, edx
; File C:\Program Files (x86)\Microsoft Visual Studio\2019\Community\VC\Tools\MSVC\14.29.30133\atlmfc\include\atltypes.h

; 581  : 	return bottom - top;

  00622	89 55 98	 mov	 DWORD PTR _fh$1$[ebp], edx

; 657  : 	::SetRect(this, x1, y1, x2, y2);

  00625	50		 push	 eax
  00626	ff 75 e8	 push	 DWORD PTR _rc$[ebp+8]
  00629	8d 45 b0	 lea	 eax, DWORD PTR _rcTo$6[ebp]
  0062c	51		 push	 ecx
  0062d	ff 75 e0	 push	 DWORD PTR _rc$[ebp]
  00630	50		 push	 eax
  00631	ff 15 00 00 00
	00		 call	 DWORD PTR __imp__SetRect@20
; File D:\git\src\IBK\IBK_DRFN\ProjSrc\SrcDrfn\Chart\comparechart\control\GfxOutBarCtrl.cpp

; 2349 : 		for (int y = rcFrom.top + 1; y < rcTo.top - fh; y += fh)

  00637	8b 75 a4	 mov	 esi, DWORD PTR _rcFrom$2[ebp+4]
  0063a	8b 45 b4	 mov	 eax, DWORD PTR _rcTo$6[ebp+4]
  0063d	46		 inc	 esi
  0063e	8b 4d 98	 mov	 ecx, DWORD PTR _fh$1$[ebp]
  00641	2b c1		 sub	 eax, ecx
  00643	89 75 94	 mov	 DWORD PTR _y$1$[ebp], esi
  00646	3b f0		 cmp	 esi, eax
  00648	0f 8d 98 00 00
	00		 jge	 $LN6@AnimateFol
  0064e	8d 04 09	 lea	 eax, DWORD PTR [ecx+ecx]
  00651	89 45 9c	 mov	 DWORD PTR tv1669[ebp], eax
$LL7@AnimateFol:
; File C:\Program Files (x86)\Microsoft Visual Studio\2019\Community\VC\Tools\MSVC\14.29.30133\atlmfc\include\afxwin1.inl

; 361  : 	{ ASSERT(m_hDC != NULL); return (CBitmap*) SelectGdiObject(m_hDC, pBitmap->GetSafeHandle()); }

  00654	ff 75 80	 push	 DWORD PTR _bmpTo$[ebp+4]
  00657	ff 75 88	 push	 DWORD PTR _memDC$[ebp+4]
  0065a	e8 00 00 00 00	 call	 ?SelectGdiObject@CDC@@KGPAVCGdiObject@@PAUHDC__@@PAX@Z ; CDC::SelectGdiObject
; File C:\Program Files (x86)\Microsoft Visual Studio\2019\Community\VC\Tools\MSVC\14.29.30133\atlmfc\include\atltypes.h

; 576  : 	return right - left;

  0065f	8b 45 e8	 mov	 eax, DWORD PTR _rc$[ebp+8]
; File D:\git\src\IBK\IBK_DRFN\ProjSrc\SrcDrfn\Chart\comparechart\control\GfxOutBarCtrl.cpp

; 2352 : 			dc.BitBlt(rc.left, rcFrom.top, rc.Width(), y - rcFrom.top - 1, pDC, 0, fh*2, SRCCOPY);

  00662	8b d6		 mov	 edx, esi
  00664	8b 75 a4	 mov	 esi, DWORD PTR _rcFrom$2[ebp+4]
  00667	2b d6		 sub	 edx, esi
; File C:\Program Files (x86)\Microsoft Visual Studio\2019\Community\VC\Tools\MSVC\14.29.30133\atlmfc\include\atltypes.h

; 576  : 	return right - left;

  00669	8b 4d e0	 mov	 ecx, DWORD PTR _rc$[ebp]
; File D:\git\src\IBK\IBK_DRFN\ProjSrc\SrcDrfn\Chart\comparechart\control\GfxOutBarCtrl.cpp

; 2352 : 			dc.BitBlt(rc.left, rcFrom.top, rc.Width(), y - rcFrom.top - 1, pDC, 0, fh*2, SRCCOPY);

  0066c	4a		 dec	 edx
; File C:\Program Files (x86)\Microsoft Visual Studio\2019\Community\VC\Tools\MSVC\14.29.30133\atlmfc\include\afxwin1.inl

; 552  : 	{ ASSERT(m_hDC != NULL); return ::BitBlt(m_hDC, x, y, nWidth, nHeight,

  0066d	68 20 00 cc 00	 push	 13369376		; 00cc0020H
  00672	ff 75 9c	 push	 DWORD PTR tv1669[ebp]
; File C:\Program Files (x86)\Microsoft Visual Studio\2019\Community\VC\Tools\MSVC\14.29.30133\atlmfc\include\atltypes.h

; 576  : 	return right - left;

  00675	2b c1		 sub	 eax, ecx
; File C:\Program Files (x86)\Microsoft Visual Studio\2019\Community\VC\Tools\MSVC\14.29.30133\atlmfc\include\afxwin1.inl

; 552  : 	{ ASSERT(m_hDC != NULL); return ::BitBlt(m_hDC, x, y, nWidth, nHeight,

  00677	6a 00		 push	 0
  00679	ff 75 88	 push	 DWORD PTR _memDC$[ebp+4]
  0067c	52		 push	 edx
  0067d	50		 push	 eax
  0067e	56		 push	 esi
  0067f	51		 push	 ecx
  00680	ff b5 60 ff ff
	ff		 push	 DWORD PTR _dc$[ebp+4]
  00686	ff 15 00 00 00
	00		 call	 DWORD PTR __imp__BitBlt@36

; 361  : 	{ ASSERT(m_hDC != NULL); return (CBitmap*) SelectGdiObject(m_hDC, pBitmap->GetSafeHandle()); }

  0068c	ff b5 78 ff ff
	ff		 push	 DWORD PTR _bmpFrom$[ebp+4]
  00692	ff 75 88	 push	 DWORD PTR _memDC$[ebp+4]
  00695	e8 00 00 00 00	 call	 ?SelectGdiObject@CDC@@KGPAVCGdiObject@@PAUHDC__@@PAX@Z ; CDC::SelectGdiObject
; File D:\git\src\IBK\IBK_DRFN\ProjSrc\SrcDrfn\Chart\comparechart\control\GfxOutBarCtrl.cpp

; 2354 : 			dc.BitBlt(rc.left, y, rc.Width(), rc.bottom - y, pDC, 0,0, SRCCOPY);

  0069a	8b 55 ec	 mov	 edx, DWORD PTR _rc$[ebp+12]
  0069d	8b 75 94	 mov	 esi, DWORD PTR _y$1$[ebp]
  006a0	2b d6		 sub	 edx, esi
; File C:\Program Files (x86)\Microsoft Visual Studio\2019\Community\VC\Tools\MSVC\14.29.30133\atlmfc\include\atltypes.h

; 576  : 	return right - left;

  006a2	8b 45 e8	 mov	 eax, DWORD PTR _rc$[ebp+8]
  006a5	8b 4d e0	 mov	 ecx, DWORD PTR _rc$[ebp]
  006a8	2b c1		 sub	 eax, ecx
; File C:\Program Files (x86)\Microsoft Visual Studio\2019\Community\VC\Tools\MSVC\14.29.30133\atlmfc\include\afxwin1.inl

; 552  : 	{ ASSERT(m_hDC != NULL); return ::BitBlt(m_hDC, x, y, nWidth, nHeight,

  006aa	68 20 00 cc 00	 push	 13369376		; 00cc0020H
  006af	6a 00		 push	 0
  006b1	6a 00		 push	 0
  006b3	ff 75 88	 push	 DWORD PTR _memDC$[ebp+4]
  006b6	52		 push	 edx
  006b7	50		 push	 eax
  006b8	56		 push	 esi
  006b9	51		 push	 ecx
  006ba	ff b5 60 ff ff
	ff		 push	 DWORD PTR _dc$[ebp+4]
  006c0	ff 15 00 00 00
	00		 call	 DWORD PTR __imp__BitBlt@36
; File D:\git\src\IBK\IBK_DRFN\ProjSrc\SrcDrfn\Chart\comparechart\control\GfxOutBarCtrl.cpp

; 2355 : 			Sleep(lAnimationTickCount);

  006c6	ff b7 f0 00 00
	00		 push	 DWORD PTR [edi+240]
  006cc	ff 15 00 00 00
	00		 call	 DWORD PTR __imp__Sleep@4
  006d2	8b 45 b4	 mov	 eax, DWORD PTR _rcTo$6[ebp+4]
  006d5	03 75 98	 add	 esi, DWORD PTR _fh$1$[ebp]
  006d8	2b 45 98	 sub	 eax, DWORD PTR _fh$1$[ebp]
  006db	89 75 94	 mov	 DWORD PTR _y$1$[ebp], esi
  006de	3b f0		 cmp	 esi, eax
  006e0	0f 8c 6e ff ff
	ff		 jl	 $LL7@AnimateFol
$LN6@AnimateFol:
; File C:\Program Files (x86)\Microsoft Visual Studio\2019\Community\VC\Tools\MSVC\14.29.30133\atlmfc\include\afxwin1.inl

; 68   : 	{ return this == NULL ? NULL : m_hObject; }

  006e6	8b 85 70 ff ff
	ff		 mov	 eax, DWORD PTR _obmp$1$[ebp]
  006ec	85 c0		 test	 eax, eax
  006ee	74 03		 je	 SHORT $LN286@AnimateFol
$LN285@AnimateFol:
  006f0	8b 40 04	 mov	 eax, DWORD PTR [eax+4]
$LN286@AnimateFol:

; 361  : 	{ ASSERT(m_hDC != NULL); return (CBitmap*) SelectGdiObject(m_hDC, pBitmap->GetSafeHandle()); }

  006f3	50		 push	 eax
  006f4	ff 75 88	 push	 DWORD PTR _memDC$[ebp+4]
  006f7	e8 00 00 00 00	 call	 ?SelectGdiObject@CDC@@KGPAVCGdiObject@@PAUHDC__@@PAX@Z ; CDC::SelectGdiObject

; 179  : 	{ }

  006fc	8d 8d 7c ff ff
	ff		 lea	 ecx, DWORD PTR _bmpTo$[ebp]
  00702	c7 85 7c ff ff
	ff 00 00 00 00	 mov	 DWORD PTR _bmpTo$[ebp], OFFSET ??_7CBitmap@@6B@
  0070c	e8 00 00 00 00	 call	 ??1CGdiObject@@UAE@XZ	; CGdiObject::~CGdiObject
  00711	8d 8d 74 ff ff
	ff		 lea	 ecx, DWORD PTR _bmpFrom$[ebp]
  00717	c7 85 74 ff ff
	ff 00 00 00 00	 mov	 DWORD PTR _bmpFrom$[ebp], OFFSET ??_7CBitmap@@6B@
  00721	e8 00 00 00 00	 call	 ??1CGdiObject@@UAE@XZ	; CGdiObject::~CGdiObject
; File D:\git\src\IBK\IBK_DRFN\ProjSrc\SrcDrfn\Chart\comparechart\control\GfxOutBarCtrl.cpp

; 2360 : }

  00726	8d 4d 84	 lea	 ecx, DWORD PTR _memDC$[ebp]
  00729	e8 00 00 00 00	 call	 ??1CDC@@UAE@XZ		; CDC::~CDC
  0072e	8d 8d 5c ff ff
	ff		 lea	 ecx, DWORD PTR _dc$[ebp]
  00734	e8 00 00 00 00	 call	 ??1CClientDC@@UAE@XZ	; CClientDC::~CClientDC
  00739	8b 4d f4	 mov	 ecx, DWORD PTR __$EHRec$[ebp]
  0073c	64 89 0d 00 00
	00 00		 mov	 DWORD PTR fs:0, ecx
  00743	59		 pop	 ecx
  00744	5f		 pop	 edi
  00745	5e		 pop	 esi
  00746	8b 4d f0	 mov	 ecx, DWORD PTR __$ArrayPad$[ebp]
  00749	33 cd		 xor	 ecx, ebp
  0074b	e8 00 00 00 00	 call	 @__security_check_cookie@4
  00750	8b e5		 mov	 esp, ebp
  00752	5d		 pop	 ebp
  00753	c2 08 00	 ret	 8
$LN98@AnimateFol:
; File C:\Program Files (x86)\Microsoft Visual Studio\2019\Community\VC\Tools\MSVC\14.29.30133\atlmfc\include\afxcoll.inl

; 204  : 			AfxThrowInvalidArgException();

  00756	e8 00 00 00 00	 call	 ?AfxThrowInvalidArgException@@YGXXZ ; AfxThrowInvalidArgException
$LN310@AnimateFol:
  0075b	cc		 int	 3
_TEXT	ENDS
;	COMDAT text$x
text$x	SEGMENT
__unwindfunclet$?AnimateFolderScroll@CGfxOutBarCtrl@@QAEXHH@Z$0:
  00000	8d 8d 5c ff ff
	ff		 lea	 ecx, DWORD PTR _dc$[ebp]
  00006	e9 00 00 00 00	 jmp	 ??1CClientDC@@UAE@XZ	; CClientDC::~CClientDC
__unwindfunclet$?AnimateFolderScroll@CGfxOutBarCtrl@@QAEXHH@Z$1:
  0000b	8d 4d 84	 lea	 ecx, DWORD PTR _memDC$[ebp]
  0000e	e9 00 00 00 00	 jmp	 ??1CDC@@UAE@XZ		; CDC::~CDC
__unwindfunclet$?AnimateFolderScroll@CGfxOutBarCtrl@@QAEXHH@Z$2:
  00013	8d 8d 74 ff ff
	ff		 lea	 ecx, DWORD PTR _bmpFrom$[ebp]
  00019	e9 00 00 00 00	 jmp	 ??1CBitmap@@UAE@XZ	; CBitmap::~CBitmap
__unwindfunclet$?AnimateFolderScroll@CGfxOutBarCtrl@@QAEXHH@Z$3:
  0001e	8d 8d 7c ff ff
	ff		 lea	 ecx, DWORD PTR _bmpTo$[ebp]
  00024	e9 00 00 00 00	 jmp	 ??1CBitmap@@UAE@XZ	; CBitmap::~CBitmap
  00029	cc		 int	 3
  0002a	cc		 int	 3
  0002b	cc		 int	 3
  0002c	cc		 int	 3
  0002d	cc		 int	 3
__ehhandler$?AnimateFolderScroll@CGfxOutBarCtrl@@QAEXHH@Z:
  0002e	90		 npad	 1
  0002f	90		 npad	 1
  00030	8b 54 24 08	 mov	 edx, DWORD PTR [esp+8]
  00034	8d 42 0c	 lea	 eax, DWORD PTR [edx+12]
  00037	8b 8a 5c ff ff
	ff		 mov	 ecx, DWORD PTR [edx-164]
  0003d	33 c8		 xor	 ecx, eax
  0003f	e8 00 00 00 00	 call	 @__security_check_cookie@4
  00044	8b 4a fc	 mov	 ecx, DWORD PTR [edx-4]
  00047	33 c8		 xor	 ecx, eax
  00049	e8 00 00 00 00	 call	 @__security_check_cookie@4
  0004e	b8 00 00 00 00	 mov	 eax, OFFSET __ehfuncinfo$?AnimateFolderScroll@CGfxOutBarCtrl@@QAEXHH@Z
  00053	e9 00 00 00 00	 jmp	 ___CxxFrameHandler3
text$x	ENDS
?AnimateFolderScroll@CGfxOutBarCtrl@@QAEXHH@Z ENDP	; CGfxOutBarCtrl::AnimateFolderScroll
; Function compile flags: /Ogtp
; File D:\git\src\IBK\IBK_DRFN\ProjSrc\SrcDrfn\Chart\comparechart\control\GfxOutBarCtrl.cpp
; File C:\Program Files (x86)\Microsoft Visual Studio\2019\Community\VC\Tools\MSVC\14.29.30133\atlmfc\include\afxcoll.inl
; File D:\git\src\IBK\IBK_DRFN\ProjSrc\SrcDrfn\Chart\comparechart\control\GfxOutBarCtrl.cpp
; File C:\Program Files (x86)\Microsoft Visual Studio\2019\Community\VC\Tools\MSVC\14.29.30133\atlmfc\include\afxcoll.inl
; File D:\git\src\IBK\IBK_DRFN\ProjSrc\SrcDrfn\Chart\comparechart\control\GfxOutBarCtrl.cpp
;	COMDAT ?GetItemText@CGfxOutBarCtrl@@QAE?AV?$CStringT@DV?$StrTraitMFC_DLL@DV?$ChTraitsCRT@D@ATL@@@@@ATL@@H@Z
_TEXT	SEGMENT
$T2 = -16						; size = 4
__$EHRec$ = -12						; size = 12
___$ReturnUdt$ = 8					; size = 4
_index$ = 12						; size = 4
?GetItemText@CGfxOutBarCtrl@@QAE?AV?$CStringT@DV?$StrTraitMFC_DLL@DV?$ChTraitsCRT@D@ATL@@@@@ATL@@H@Z PROC ; CGfxOutBarCtrl::GetItemText, COMDAT
; _this$ = ecx

; 2366 : {

  00000	55		 push	 ebp
  00001	8b ec		 mov	 ebp, esp
  00003	6a ff		 push	 -1
  00005	68 00 00 00 00	 push	 __ehhandler$?GetItemText@CGfxOutBarCtrl@@QAE?AV?$CStringT@DV?$StrTraitMFC_DLL@DV?$ChTraitsCRT@D@ATL@@@@@ATL@@H@Z
  0000a	64 a1 00 00 00
	00		 mov	 eax, DWORD PTR fs:0
  00010	50		 push	 eax
  00011	51		 push	 ecx
  00012	56		 push	 esi
  00013	57		 push	 edi
  00014	a1 00 00 00 00	 mov	 eax, DWORD PTR ___security_cookie
  00019	33 c5		 xor	 eax, ebp
  0001b	50		 push	 eax
  0001c	8d 45 f4	 lea	 eax, DWORD PTR __$EHRec$[ebp]
  0001f	64 a3 00 00 00
	00		 mov	 DWORD PTR fs:0, eax
  00025	8b f9		 mov	 edi, ecx
  00027	c7 45 f0 00 00
	00 00		 mov	 DWORD PTR $T2[ebp], 0

; 2367 : 	CString item;

  0002e	8b 75 08	 mov	 esi, DWORD PTR ___$ReturnUdt$[ebp]
  00031	8b ce		 mov	 ecx, esi
  00033	ff 15 00 00 00
	00		 call	 DWORD PTR __imp_??0?$CStringT@DV?$StrTraitMFC_DLL@DV?$ChTraitsCRT@D@ATL@@@@@ATL@@QAE@XZ

; 2375 : 	}
; 2376 : 	return item;

  00039	8b 8f 34 01 00
	00		 mov	 ecx, DWORD PTR [edi+308]
  0003f	c7 45 fc 00 00
	00 00		 mov	 DWORD PTR __$EHRec$[ebp+8], 0
  00046	c7 45 f0 01 00
	00 00		 mov	 DWORD PTR $T2[ebp], 1
; File C:\Program Files (x86)\Microsoft Visual Studio\2019\Community\VC\Tools\MSVC\14.29.30133\atlmfc\include\afxcoll.inl

; 203  : 		if( nIndex < 0 || nIndex >= m_nSize )

  0004d	85 c9		 test	 ecx, ecx
  0004f	78 48		 js	 SHORT $LN9@GetItemTex
  00051	3b 8f 0c 01 00
	00		 cmp	 ecx, DWORD PTR [edi+268]
  00057	7d 40		 jge	 SHORT $LN9@GetItemTex

; 205  : 		return m_pData[nIndex]; }

  00059	8b 87 08 01 00
	00		 mov	 eax, DWORD PTR [edi+264]
  0005f	8b 04 88	 mov	 eax, DWORD PTR [eax+ecx*4]
; File D:\git\src\IBK\IBK_DRFN\ProjSrc\SrcDrfn\Chart\comparechart\control\GfxOutBarCtrl.cpp

; 2078 : 	return (index >= 0 && index < pbf->GetItemCount());

  00062	8b 4d 0c	 mov	 ecx, DWORD PTR _index$[ebp]
  00065	85 c9		 test	 ecx, ecx
  00067	78 1b		 js	 SHORT $LN3@GetItemTex
  00069	3b 48 1c	 cmp	 ecx, DWORD PTR [eax+28]
  0006c	7d 16		 jge	 SHORT $LN3@GetItemTex

; 2368 : 
; 2369 : 	ASSERT(iSelFolder >= 0 && iSelFolder < GetFolderCount());
; 2370 : 	CBarFolder * pbf = (CBarFolder *) arFolder.GetAt(iSelFolder);
; 2371 : 	if (IsValidItem(index))
; 2372 : 	{
; 2373 : 		CBarItem * pi = (CBarItem *) pbf->arItems.GetAt(index);
; 2374 : 		if (pi->cItem) item = pi->cItem;

  0006e	8b 40 18	 mov	 eax, DWORD PTR [eax+24]
  00071	8b 0c 88	 mov	 ecx, DWORD PTR [eax+ecx*4]
  00074	8b 41 08	 mov	 eax, DWORD PTR [ecx+8]
  00077	85 c0		 test	 eax, eax
  00079	74 09		 je	 SHORT $LN3@GetItemTex
  0007b	50		 push	 eax
  0007c	8b ce		 mov	 ecx, esi
  0007e	ff 15 00 00 00
	00		 call	 DWORD PTR __imp_??4?$CStringT@DV?$StrTraitMFC_DLL@DV?$ChTraitsCRT@D@ATL@@@@@ATL@@QAEAAV01@PBD@Z
$LN3@GetItemTex:

; 2375 : 	}
; 2376 : 	return item;

  00084	8b c6		 mov	 eax, esi

; 2377 : }

  00086	8b 4d f4	 mov	 ecx, DWORD PTR __$EHRec$[ebp]
  00089	64 89 0d 00 00
	00 00		 mov	 DWORD PTR fs:0, ecx
  00090	59		 pop	 ecx
  00091	5f		 pop	 edi
  00092	5e		 pop	 esi
  00093	8b e5		 mov	 esp, ebp
  00095	5d		 pop	 ebp
  00096	c2 08 00	 ret	 8
$LN9@GetItemTex:
; File C:\Program Files (x86)\Microsoft Visual Studio\2019\Community\VC\Tools\MSVC\14.29.30133\atlmfc\include\afxcoll.inl

; 204  : 			AfxThrowInvalidArgException();

  00099	e8 00 00 00 00	 call	 ?AfxThrowInvalidArgException@@YGXXZ ; AfxThrowInvalidArgException
$LN27@GetItemTex:
  0009e	cc		 int	 3
_TEXT	ENDS
;	COMDAT text$x
text$x	SEGMENT
__unwindfunclet$?GetItemText@CGfxOutBarCtrl@@QAE?AV?$CStringT@DV?$StrTraitMFC_DLL@DV?$ChTraitsCRT@D@ATL@@@@@ATL@@H@Z$0:
  00000	8b 45 f0	 mov	 eax, DWORD PTR $T2[ebp]
  00003	83 e0 01	 and	 eax, 1
  00006	0f 84 0d 00 00
	00		 je	 $LN6@GetItemTex
  0000c	83 65 f0 fe	 and	 DWORD PTR $T2[ebp], -2	; fffffffeH
  00010	8b 4d 08	 mov	 ecx, DWORD PTR ___$ReturnUdt$[ebp]
  00013	ff 25 00 00 00
	00		 jmp	 DWORD PTR __imp_??1?$CStringT@DV?$StrTraitMFC_DLL@DV?$ChTraitsCRT@D@ATL@@@@@ATL@@QAE@XZ
$LN6@GetItemTex:
  00019	c3		 ret	 0
  0001a	cc		 int	 3
  0001b	cc		 int	 3
  0001c	cc		 int	 3
  0001d	cc		 int	 3
  0001e	cc		 int	 3
__ehhandler$?GetItemText@CGfxOutBarCtrl@@QAE?AV?$CStringT@DV?$StrTraitMFC_DLL@DV?$ChTraitsCRT@D@ATL@@@@@ATL@@H@Z:
  0001f	90		 npad	 1
  00020	90		 npad	 1
  00021	8b 54 24 08	 mov	 edx, DWORD PTR [esp+8]
  00025	8d 42 0c	 lea	 eax, DWORD PTR [edx+12]
  00028	8b 4a f0	 mov	 ecx, DWORD PTR [edx-16]
  0002b	33 c8		 xor	 ecx, eax
  0002d	e8 00 00 00 00	 call	 @__security_check_cookie@4
  00032	b8 00 00 00 00	 mov	 eax, OFFSET __ehfuncinfo$?GetItemText@CGfxOutBarCtrl@@QAE?AV?$CStringT@DV?$StrTraitMFC_DLL@DV?$ChTraitsCRT@D@ATL@@@@@ATL@@H@Z
  00037	e9 00 00 00 00	 jmp	 ___CxxFrameHandler3
text$x	ENDS
?GetItemText@CGfxOutBarCtrl@@QAE?AV?$CStringT@DV?$StrTraitMFC_DLL@DV?$ChTraitsCRT@D@ATL@@@@@ATL@@H@Z ENDP ; CGfxOutBarCtrl::GetItemText
; Function compile flags: /Ogtp
; File D:\git\src\IBK\IBK_DRFN\ProjSrc\SrcDrfn\Chart\comparechart\control\GfxOutBarCtrl.cpp
; File C:\Program Files (x86)\Microsoft Visual Studio\2019\Community\VC\Tools\MSVC\14.29.30133\atlmfc\include\afxcoll.inl
; File D:\git\src\IBK\IBK_DRFN\ProjSrc\SrcDrfn\Chart\comparechart\control\GfxOutBarCtrl.cpp
; File C:\Program Files (x86)\Microsoft Visual Studio\2019\Community\VC\Tools\MSVC\14.29.30133\atlmfc\include\afxcoll.inl
; File D:\git\src\IBK\IBK_DRFN\ProjSrc\SrcDrfn\Chart\comparechart\control\GfxOutBarCtrl.cpp
; File C:\Program Files (x86)\Microsoft Visual Studio\2019\Community\VC\Tools\MSVC\14.29.30133\atlmfc\include\afxcoll.inl
; File D:\git\src\IBK\IBK_DRFN\ProjSrc\SrcDrfn\Chart\comparechart\control\GfxOutBarCtrl.cpp
;	COMDAT ?AddFolderBar@CGfxOutBarCtrl@@QAEHPBDPAVCWnd@@K@Z
_TEXT	SEGMENT
$T2 = -16						; size = 4
__$EHRec$ = -12						; size = 12
_pFolder$ = 8						; size = 4
_pSon$ = 12						; size = 4
_exData$ = 16						; size = 4
?AddFolderBar@CGfxOutBarCtrl@@QAEHPBDPAVCWnd@@K@Z PROC	; CGfxOutBarCtrl::AddFolderBar, COMDAT
; _this$ = ecx

; 2380 : {

  00000	55		 push	 ebp
  00001	8b ec		 mov	 ebp, esp
  00003	6a ff		 push	 -1
  00005	68 00 00 00 00	 push	 __ehhandler$?AddFolderBar@CGfxOutBarCtrl@@QAEHPBDPAVCWnd@@K@Z
  0000a	64 a1 00 00 00
	00		 mov	 eax, DWORD PTR fs:0
  00010	50		 push	 eax
  00011	51		 push	 ecx
  00012	53		 push	 ebx
  00013	56		 push	 esi
  00014	57		 push	 edi
  00015	a1 00 00 00 00	 mov	 eax, DWORD PTR ___security_cookie
  0001a	33 c5		 xor	 eax, ebp
  0001c	50		 push	 eax
  0001d	8d 45 f4	 lea	 eax, DWORD PTR __$EHRec$[ebp]
  00020	64 a3 00 00 00
	00		 mov	 DWORD PTR fs:0, eax
  00026	8b d9		 mov	 ebx, ecx

; 2381 : 	CBarFolder * pbf = new CBarFolder(pFolder, exData);

  00028	6a 2c		 push	 44			; 0000002cH
  0002a	e8 00 00 00 00	 call	 ??2@YAPAXI@Z		; operator new
  0002f	8b f0		 mov	 esi, eax
  00031	83 c4 04	 add	 esp, 4
  00034	89 75 f0	 mov	 DWORD PTR $T2[ebp], esi
  00037	c7 45 fc 00 00
	00 00		 mov	 DWORD PTR __$EHRec$[ebp+8], 0
  0003e	85 f6		 test	 esi, esi
  00040	74 59		 je	 SHORT $LN3@AddFolderB

; 711  : {

  00042	8d 4e 14	 lea	 ecx, DWORD PTR [esi+20]
  00045	c7 06 00 00 00
	00		 mov	 DWORD PTR [esi], OFFSET ??_7CBarFolder@CGfxOutBarCtrl@@6B@
  0004b	e8 00 00 00 00	 call	 ??0CPtrArray@@QAE@XZ	; CPtrArray::CPtrArray

; 712  : 	cName = NULL;
; 713  : 	dwData = exData;
; 714  : 
; 715  : 	if (name)

  00050	8b 7d 08	 mov	 edi, DWORD PTR _pFolder$[ebp]
  00053	8b 45 10	 mov	 eax, DWORD PTR _exData$[ebp]
  00056	c6 45 fc 01	 mov	 BYTE PTR __$EHRec$[ebp+8], 1
  0005a	c7 46 04 00 00
	00 00		 mov	 DWORD PTR [esi+4], 0
  00061	89 46 08	 mov	 DWORD PTR [esi+8], eax
  00064	85 ff		 test	 edi, edi
  00066	74 1c		 je	 SHORT $LN7@AddFolderB

; 716  : 	{
; 717  : 		cName = new char[lstrlen(name)+1];

  00068	57		 push	 edi
  00069	ff 15 00 00 00
	00		 call	 DWORD PTR __imp__lstrlenA@4
  0006f	40		 inc	 eax
  00070	50		 push	 eax
  00071	e8 00 00 00 00	 call	 ??_U@YAPAXI@Z		; operator new[]
  00076	83 c4 04	 add	 esp, 4
  00079	89 46 04	 mov	 DWORD PTR [esi+4], eax

; 718  : 		ASSERT(cName);
; 719  : 		lstrcpy(cName, name);

  0007c	57		 push	 edi
  0007d	50		 push	 eax
  0007e	ff 15 00 00 00
	00		 call	 DWORD PTR __imp__lstrcpyA@8
$LN7@AddFolderB:

; 720  : 	}
; 721  : 	pLargeImageList = NULL;

  00084	c7 46 0c 00 00
	00 00		 mov	 DWORD PTR [esi+12], 0

; 722  : 	pSmallImageList = NULL;

  0008b	c7 46 10 00 00
	00 00		 mov	 DWORD PTR [esi+16], 0

; 723  : 	pChild = NULL;

  00092	c7 46 28 00 00
	00 00		 mov	 DWORD PTR [esi+40], 0

; 2381 : 	CBarFolder * pbf = new CBarFolder(pFolder, exData);

  00099	eb 02		 jmp	 SHORT $LN4@AddFolderB
$LN3@AddFolderB:
  0009b	33 f6		 xor	 esi, esi
$LN4@AddFolderB:

; 2383 : 	pbf->pChild = pSon;

  0009d	8b 45 0c	 mov	 eax, DWORD PTR _pSon$[ebp]

; 2384 : 
; 2385 : 	arFolder.Add((void *)pbf);

  000a0	8d 8b 04 01 00
	00		 lea	 ecx, DWORD PTR [ebx+260]
; File C:\Program Files (x86)\Microsoft Visual Studio\2019\Community\VC\Tools\MSVC\14.29.30133\atlmfc\include\afxcoll.inl

; 223  : 		SetAtGrow(nIndex, newElement);

  000a6	56		 push	 esi
; File D:\git\src\IBK\IBK_DRFN\ProjSrc\SrcDrfn\Chart\comparechart\control\GfxOutBarCtrl.cpp

; 2383 : 	pbf->pChild = pSon;

  000a7	89 46 28	 mov	 DWORD PTR [esi+40], eax
; File C:\Program Files (x86)\Microsoft Visual Studio\2019\Community\VC\Tools\MSVC\14.29.30133\atlmfc\include\afxcoll.inl

; 223  : 		SetAtGrow(nIndex, newElement);

  000aa	ff 71 08	 push	 DWORD PTR [ecx+8]
; File D:\git\src\IBK\IBK_DRFN\ProjSrc\SrcDrfn\Chart\comparechart\control\GfxOutBarCtrl.cpp

; 2381 : 	CBarFolder * pbf = new CBarFolder(pFolder, exData);

  000ad	c7 45 fc ff ff
	ff ff		 mov	 DWORD PTR __$EHRec$[ebp+8], -1
; File C:\Program Files (x86)\Microsoft Visual Studio\2019\Community\VC\Tools\MSVC\14.29.30133\atlmfc\include\afxcoll.inl

; 223  : 		SetAtGrow(nIndex, newElement);

  000b4	e8 00 00 00 00	 call	 ?SetAtGrow@CPtrArray@@QAEXHPAX@Z ; CPtrArray::SetAtGrow
; File D:\git\src\IBK\IBK_DRFN\ProjSrc\SrcDrfn\Chart\comparechart\control\GfxOutBarCtrl.cpp

; 2387 : 	return arFolder.GetSize() - 1;

  000b9	8b 83 0c 01 00
	00		 mov	 eax, DWORD PTR [ebx+268]
  000bf	48		 dec	 eax

; 2388 : }

  000c0	8b 4d f4	 mov	 ecx, DWORD PTR __$EHRec$[ebp]
  000c3	64 89 0d 00 00
	00 00		 mov	 DWORD PTR fs:0, ecx
  000ca	59		 pop	 ecx
  000cb	5f		 pop	 edi
  000cc	5e		 pop	 esi
  000cd	5b		 pop	 ebx
  000ce	8b e5		 mov	 esp, ebp
  000d0	5d		 pop	 ebp
  000d1	c2 0c 00	 ret	 12			; 0000000cH
_TEXT	ENDS
;	COMDAT text$x
text$x	SEGMENT
__unwindfunclet$?AddFolderBar@CGfxOutBarCtrl@@QAEHPBDPAVCWnd@@K@Z$0:
  00000	6a 2c		 push	 44			; 0000002cH
  00002	8b 45 f0	 mov	 eax, DWORD PTR $T2[ebp]
  00005	50		 push	 eax
  00006	e8 00 00 00 00	 call	 ??3@YAXPAXI@Z		; operator delete
  0000b	83 c4 08	 add	 esp, 8
  0000e	c3		 ret	 0
__unwindfunclet$?AddFolderBar@CGfxOutBarCtrl@@QAEHPBDPAVCWnd@@K@Z$1:
  0000f	8b 4d f0	 mov	 ecx, DWORD PTR $T2[ebp]
  00012	83 c1 14	 add	 ecx, 20			; 00000014H
  00015	e9 00 00 00 00	 jmp	 ??1CPtrArray@@UAE@XZ	; CPtrArray::~CPtrArray
  0001a	cc		 int	 3
  0001b	cc		 int	 3
  0001c	cc		 int	 3
  0001d	cc		 int	 3
  0001e	cc		 int	 3
__ehhandler$?AddFolderBar@CGfxOutBarCtrl@@QAEHPBDPAVCWnd@@K@Z:
  0001f	90		 npad	 1
  00020	90		 npad	 1
  00021	8b 54 24 08	 mov	 edx, DWORD PTR [esp+8]
  00025	8d 42 0c	 lea	 eax, DWORD PTR [edx+12]
  00028	8b 4a ec	 mov	 ecx, DWORD PTR [edx-20]
  0002b	33 c8		 xor	 ecx, eax
  0002d	e8 00 00 00 00	 call	 @__security_check_cookie@4
  00032	b8 00 00 00 00	 mov	 eax, OFFSET __ehfuncinfo$?AddFolderBar@CGfxOutBarCtrl@@QAEHPBDPAVCWnd@@K@Z
  00037	e9 00 00 00 00	 jmp	 ___CxxFrameHandler3
text$x	ENDS
?AddFolderBar@CGfxOutBarCtrl@@QAEHPBDPAVCWnd@@K@Z ENDP	; CGfxOutBarCtrl::AddFolderBar
; Function compile flags: /Ogtp
; File D:\git\src\IBK\IBK_DRFN\ProjSrc\SrcDrfn\Chart\comparechart\control\GfxOutBarCtrl.cpp
; File C:\Program Files (x86)\Microsoft Visual Studio\2019\Community\VC\Tools\MSVC\14.29.30133\atlmfc\include\afxcoll.inl
; File D:\git\src\IBK\IBK_DRFN\ProjSrc\SrcDrfn\Chart\comparechart\control\GfxOutBarCtrl.cpp
; File C:\Program Files (x86)\Microsoft Visual Studio\2019\Community\VC\Tools\MSVC\14.29.30133\atlmfc\include\afxcoll.inl
; File D:\git\src\IBK\IBK_DRFN\ProjSrc\SrcDrfn\Chart\comparechart\control\GfxOutBarCtrl.cpp
;	COMDAT ?GetFolderChild@CGfxOutBarCtrl@@QAEPAVCWnd@@H@Z
_TEXT	SEGMENT
_iFolder$ = 8						; size = 4
?GetFolderChild@CGfxOutBarCtrl@@QAEPAVCWnd@@H@Z PROC	; CGfxOutBarCtrl::GetFolderChild, COMDAT
; _this$ = ecx

; 2391 : {

  00000	55		 push	 ebp
  00001	8b ec		 mov	 ebp, esp

; 2392 : 	int nFolderCnt = GetFolderCount();

  00003	8b 81 0c 01 00
	00		 mov	 eax, DWORD PTR [ecx+268]

; 2393 : 	if (nFolderCnt <= iFolder) return NULL;

  00009	8b 55 08	 mov	 edx, DWORD PTR _iFolder$[ebp]
  0000c	3b c2		 cmp	 eax, edx
  0000e	7e 2a		 jle	 SHORT $LN3@GetFolderC

; 2394 : 	if (nFolderCnt)

  00010	85 c0		 test	 eax, eax
  00012	74 26		 je	 SHORT $LN3@GetFolderC

; 2395 : 	{
; 2396 : 		if (iFolder < 0) iFolder = iSelFolder;

  00014	85 d2		 test	 edx, edx
  00016	79 0e		 jns	 SHORT $LN14@GetFolderC
  00018	8b 91 34 01 00
	00		 mov	 edx, DWORD PTR [ecx+308]

; 2397 : 		if (nFolderCnt <= iFolder) return NULL;

  0001e	3b c2		 cmp	 eax, edx
  00020	7e 18		 jle	 SHORT $LN3@GetFolderC
; File C:\Program Files (x86)\Microsoft Visual Studio\2019\Community\VC\Tools\MSVC\14.29.30133\atlmfc\include\afxcoll.inl

; 203  : 		if( nIndex < 0 || nIndex >= m_nSize )

  00022	85 d2		 test	 edx, edx
  00024	78 1a		 js	 SHORT $LN9@GetFolderC
$LN14@GetFolderC:
  00026	3b d0		 cmp	 edx, eax
  00028	7d 16		 jge	 SHORT $LN9@GetFolderC
; File D:\git\src\IBK\IBK_DRFN\ProjSrc\SrcDrfn\Chart\comparechart\control\GfxOutBarCtrl.cpp

; 2399 : 		return pbf->pChild;

  0002a	8b 81 08 01 00
	00		 mov	 eax, DWORD PTR [ecx+264]
  00030	8b 04 90	 mov	 eax, DWORD PTR [eax+edx*4]
  00033	8b 40 28	 mov	 eax, DWORD PTR [eax+40]

; 2402 : }

  00036	5d		 pop	 ebp
  00037	c2 04 00	 ret	 4
$LN3@GetFolderC:

; 2400 : 	}
; 2401 : 	return NULL;

  0003a	33 c0		 xor	 eax, eax

; 2402 : }

  0003c	5d		 pop	 ebp
  0003d	c2 04 00	 ret	 4
$LN9@GetFolderC:
; File C:\Program Files (x86)\Microsoft Visual Studio\2019\Community\VC\Tools\MSVC\14.29.30133\atlmfc\include\afxcoll.inl

; 204  : 			AfxThrowInvalidArgException();

  00040	e8 00 00 00 00	 call	 ?AfxThrowInvalidArgException@@YGXXZ ; AfxThrowInvalidArgException
$LN12@GetFolderC:
  00045	cc		 int	 3
?GetFolderChild@CGfxOutBarCtrl@@QAEPAVCWnd@@H@Z ENDP	; CGfxOutBarCtrl::GetFolderChild
_TEXT	ENDS
; Function compile flags: /Ogtp
; File D:\git\src\IBK\IBK_DRFN\ProjSrc\SrcDrfn\Chart\comparechart\control\GfxOutBarCtrl.cpp
; File C:\Program Files (x86)\Microsoft Visual Studio\2019\Community\VC\Tools\MSVC\14.29.30133\atlmfc\include\afxcoll.inl
; File D:\git\src\IBK\IBK_DRFN\ProjSrc\SrcDrfn\Chart\comparechart\control\GfxOutBarCtrl.cpp
; File C:\Program Files (x86)\Microsoft Visual Studio\2019\Community\VC\Tools\MSVC\14.29.30133\atlmfc\include\afxcoll.inl
; File D:\git\src\IBK\IBK_DRFN\ProjSrc\SrcDrfn\Chart\comparechart\control\GfxOutBarCtrl.cpp
;	COMDAT ?GetFolderData@CGfxOutBarCtrl@@QAEKH@Z
_TEXT	SEGMENT
_iFolder$ = 8						; size = 4
?GetFolderData@CGfxOutBarCtrl@@QAEKH@Z PROC		; CGfxOutBarCtrl::GetFolderData, COMDAT
; _this$ = ecx

; 2405 : {

  00000	55		 push	 ebp
  00001	8b ec		 mov	 ebp, esp

; 2406 : 	if (iFolder < 0) iFolder = iSelFolder;

  00003	8b 55 08	 mov	 edx, DWORD PTR _iFolder$[ebp]
  00006	85 d2		 test	 edx, edx
  00008	79 0a		 jns	 SHORT $LN9@GetFolderD
  0000a	8b 91 34 01 00
	00		 mov	 edx, DWORD PTR [ecx+308]
; File C:\Program Files (x86)\Microsoft Visual Studio\2019\Community\VC\Tools\MSVC\14.29.30133\atlmfc\include\afxcoll.inl

; 203  : 		if( nIndex < 0 || nIndex >= m_nSize )

  00010	85 d2		 test	 edx, edx
  00012	78 18		 js	 SHORT $LN6@GetFolderD
$LN9@GetFolderD:
  00014	3b 91 0c 01 00
	00		 cmp	 edx, DWORD PTR [ecx+268]
  0001a	7d 10		 jge	 SHORT $LN6@GetFolderD
; File D:\git\src\IBK\IBK_DRFN\ProjSrc\SrcDrfn\Chart\comparechart\control\GfxOutBarCtrl.cpp

; 2408 : 	return pbf->dwData;

  0001c	8b 81 08 01 00
	00		 mov	 eax, DWORD PTR [ecx+264]
  00022	8b 04 90	 mov	 eax, DWORD PTR [eax+edx*4]
  00025	8b 40 08	 mov	 eax, DWORD PTR [eax+8]

; 2409 : }

  00028	5d		 pop	 ebp
  00029	c2 04 00	 ret	 4
$LN6@GetFolderD:
; File C:\Program Files (x86)\Microsoft Visual Studio\2019\Community\VC\Tools\MSVC\14.29.30133\atlmfc\include\afxcoll.inl

; 204  : 			AfxThrowInvalidArgException();

  0002c	e8 00 00 00 00	 call	 ?AfxThrowInvalidArgException@@YGXXZ ; AfxThrowInvalidArgException
$LN10@GetFolderD:
  00031	cc		 int	 3
?GetFolderData@CGfxOutBarCtrl@@QAEKH@Z ENDP		; CGfxOutBarCtrl::GetFolderData
_TEXT	ENDS
; Function compile flags: /Ogtp
; File D:\git\src\IBK\IBK_DRFN\ProjSrc\SrcDrfn\Chart\comparechart\control\GfxOutBarCtrl.cpp
; File C:\Program Files (x86)\Microsoft Visual Studio\2019\Community\VC\Tools\MSVC\14.29.30133\atlmfc\include\afxwin2.inl
; File D:\git\src\IBK\IBK_DRFN\ProjSrc\SrcDrfn\Chart\comparechart\control\GfxOutBarCtrl.cpp
; File C:\Program Files (x86)\Microsoft Visual Studio\2019\Community\VC\Tools\MSVC\14.29.30133\atlmfc\include\afxwin2.inl
; File D:\git\src\IBK\IBK_DRFN\ProjSrc\SrcDrfn\Chart\comparechart\control\GfxOutBarCtrl.cpp
;	COMDAT ?SetAnimSelHighlight@CGfxOutBarCtrl@@QAEXH@Z
_TEXT	SEGMENT
_iTime$ = 8						; size = 4
?SetAnimSelHighlight@CGfxOutBarCtrl@@QAEXH@Z PROC	; CGfxOutBarCtrl::SetAnimSelHighlight, COMDAT
; _this$ = ecx

; 2412 : {

  00000	55		 push	 ebp
  00001	8b ec		 mov	 ebp, esp
  00003	56		 push	 esi

; 2413 : 	if (iTime <= 0) KillTimer(3);

  00004	8b 75 08	 mov	 esi, DWORD PTR _iTime$[ebp]
  00007	57		 push	 edi
  00008	8b f9		 mov	 edi, ecx
  0000a	8b 47 20	 mov	 eax, DWORD PTR [edi+32]
  0000d	85 f6		 test	 esi, esi
  0000f	7f 15		 jg	 SHORT $LN2@SetAnimSel
; File C:\Program Files (x86)\Microsoft Visual Studio\2019\Community\VC\Tools\MSVC\14.29.30133\atlmfc\include\afxwin2.inl

; 155  : 	{ ASSERT(::IsWindow(m_hWnd)); return ::KillTimer(m_hWnd, nIDEvent); }

  00011	6a 03		 push	 3
  00013	50		 push	 eax
  00014	ff 15 00 00 00
	00		 call	 DWORD PTR __imp__KillTimer@8
; File D:\git\src\IBK\IBK_DRFN\ProjSrc\SrcDrfn\Chart\comparechart\control\GfxOutBarCtrl.cpp

; 2416 : }

  0001a	89 b7 f8 00 00
	00		 mov	 DWORD PTR [edi+248], esi
  00020	5f		 pop	 edi
  00021	5e		 pop	 esi
  00022	5d		 pop	 ebp
  00023	c2 04 00	 ret	 4
$LN2@SetAnimSel:
; File C:\Program Files (x86)\Microsoft Visual Studio\2019\Community\VC\Tools\MSVC\14.29.30133\atlmfc\include\afxwin2.inl

; 152  : 	{ ASSERT(::IsWindow(m_hWnd)); return ::SetTimer(m_hWnd, nIDEvent, nElapse,

  00026	6a 00		 push	 0
  00028	56		 push	 esi
  00029	6a 03		 push	 3
  0002b	50		 push	 eax
  0002c	ff 15 00 00 00
	00		 call	 DWORD PTR __imp__SetTimer@16
; File D:\git\src\IBK\IBK_DRFN\ProjSrc\SrcDrfn\Chart\comparechart\control\GfxOutBarCtrl.cpp

; 2416 : }

  00032	89 b7 f8 00 00
	00		 mov	 DWORD PTR [edi+248], esi
  00038	5f		 pop	 edi
  00039	5e		 pop	 esi
  0003a	5d		 pop	 ebp
  0003b	c2 04 00	 ret	 4
?SetAnimSelHighlight@CGfxOutBarCtrl@@QAEXH@Z ENDP	; CGfxOutBarCtrl::SetAnimSelHighlight
_TEXT	ENDS
; Function compile flags: /Ogtp
; File D:\git\src\IBK\IBK_DRFN\ProjSrc\SrcDrfn\Chart\comparechart\control\GfxOutBarCtrl.cpp
; File C:\Program Files (x86)\Microsoft Visual Studio\2019\Community\VC\Tools\MSVC\14.29.30133\atlmfc\include\afxcoll.inl
; File D:\git\src\IBK\IBK_DRFN\ProjSrc\SrcDrfn\Chart\comparechart\control\GfxOutBarCtrl.cpp
; File C:\Program Files (x86)\Microsoft Visual Studio\2019\Community\VC\Tools\MSVC\14.29.30133\atlmfc\include\atltypes.h
; File C:\Program Files (x86)\Microsoft Visual Studio\2019\Community\VC\Tools\MSVC\14.29.30133\atlmfc\include\afxwin2.inl
; File C:\Program Files (x86)\Microsoft Visual Studio\2019\Community\VC\Tools\MSVC\14.29.30133\atlmfc\include\atltypes.h
; File C:\Program Files (x86)\Microsoft Visual Studio\2019\Community\VC\Tools\MSVC\14.29.30133\atlmfc\include\afxwin2.inl
; File D:\git\src\IBK\IBK_DRFN\ProjSrc\SrcDrfn\Chart\comparechart\control\GfxOutBarCtrl.cpp
; File C:\Program Files (x86)\Microsoft Visual Studio\2019\Community\VC\Tools\MSVC\14.29.30133\atlmfc\include\afxcoll.inl
; File D:\git\src\IBK\IBK_DRFN\ProjSrc\SrcDrfn\Chart\comparechart\control\GfxOutBarCtrl.cpp
; File C:\Program Files (x86)\Microsoft Visual Studio\2019\Community\VC\Tools\MSVC\14.29.30133\atlmfc\include\afxcoll.inl
; File D:\git\src\IBK\IBK_DRFN\ProjSrc\SrcDrfn\Chart\comparechart\control\GfxOutBarCtrl.cpp
; File C:\Program Files (x86)\Microsoft Visual Studio\2019\Community\VC\Tools\MSVC\14.29.30133\atlmfc\include\afxcoll.inl
; File D:\git\src\IBK\IBK_DRFN\ProjSrc\SrcDrfn\Chart\comparechart\control\GfxOutBarCtrl.cpp
; File C:\Program Files (x86)\Microsoft Visual Studio\2019\Community\VC\Tools\MSVC\14.29.30133\atlmfc\include\afxwin1.inl
; File C:\Program Files (x86)\Microsoft Visual Studio\2019\Community\VC\Tools\MSVC\14.29.30133\atlmfc\include\atltypes.h
; File D:\git\src\IBK\IBK_DRFN\ProjSrc\SrcDrfn\Chart\comparechart\control\GfxOutBarCtrl.cpp
; File C:\Program Files (x86)\Microsoft Visual Studio\2019\Community\VC\Tools\MSVC\14.29.30133\atlmfc\include\atltypes.h
; File D:\git\src\IBK\IBK_DRFN\ProjSrc\SrcDrfn\Chart\comparechart\control\GfxOutBarCtrl.cpp
; File C:\Program Files (x86)\Microsoft Visual Studio\2019\Community\VC\Tools\MSVC\14.29.30133\atlmfc\include\atltypes.h
; File D:\git\src\IBK\IBK_DRFN\ProjSrc\SrcDrfn\Chart\comparechart\control\GfxOutBarCtrl.cpp
; File C:\Program Files (x86)\Microsoft Visual Studio\2019\Community\VC\Tools\MSVC\14.29.30133\atlmfc\include\atltypes.h
; File D:\git\src\IBK\IBK_DRFN\ProjSrc\SrcDrfn\Chart\comparechart\control\GfxOutBarCtrl.cpp
; File C:\Program Files (x86)\Microsoft Visual Studio\2019\Community\VC\Tools\MSVC\14.29.30133\atlmfc\include\atltypes.h
; File D:\git\src\IBK\IBK_DRFN\ProjSrc\SrcDrfn\Chart\comparechart\control\GfxOutBarCtrl.cpp
; File C:\Program Files (x86)\Microsoft Visual Studio\2019\Community\VC\Tools\MSVC\14.29.30133\atlmfc\include\afxwin1.inl
; File D:\git\src\IBK\IBK_DRFN\ProjSrc\SrcDrfn\Chart\comparechart\control\GfxOutBarCtrl.cpp
; File C:\Program Files (x86)\Microsoft Visual Studio\2019\Community\VC\Tools\MSVC\14.29.30133\atlmfc\include\afxwin1.inl
; File D:\git\src\IBK\IBK_DRFN\ProjSrc\SrcDrfn\Chart\comparechart\control\GfxOutBarCtrl.cpp
; File C:\Program Files (x86)\Microsoft Visual Studio\2019\Community\VC\Tools\MSVC\14.29.30133\atlmfc\include\afxwin1.inl
; File C:\Program Files (x86)\Microsoft Visual Studio\2019\Community\VC\Tools\MSVC\14.29.30133\atlmfc\include\atltypes.h
; File D:\git\src\IBK\IBK_DRFN\ProjSrc\SrcDrfn\Chart\comparechart\control\GfxOutBarCtrl.cpp
; File C:\Program Files (x86)\Microsoft Visual Studio\2019\Community\VC\Tools\MSVC\14.29.30133\atlmfc\include\atltypes.h
; File D:\git\src\IBK\IBK_DRFN\ProjSrc\SrcDrfn\Chart\comparechart\control\GfxOutBarCtrl.cpp
; File C:\Program Files (x86)\Microsoft Visual Studio\2019\Community\VC\Tools\MSVC\14.29.30133\atlmfc\include\atltypes.h
; File D:\git\src\IBK\IBK_DRFN\ProjSrc\SrcDrfn\Chart\comparechart\control\GfxOutBarCtrl.cpp
; File C:\Program Files (x86)\Microsoft Visual Studio\2019\Community\VC\Tools\MSVC\14.29.30133\atlmfc\include\atltypes.h
; File D:\git\src\IBK\IBK_DRFN\ProjSrc\SrcDrfn\Chart\comparechart\control\GfxOutBarCtrl.cpp
; File C:\Program Files (x86)\Microsoft Visual Studio\2019\Community\VC\Tools\MSVC\14.29.30133\atlmfc\include\atltypes.h
; File D:\git\src\IBK\IBK_DRFN\ProjSrc\SrcDrfn\Chart\comparechart\control\GfxOutBarCtrl.cpp
; File C:\Program Files (x86)\Microsoft Visual Studio\2019\Community\VC\Tools\MSVC\14.29.30133\atlmfc\include\afxwin1.inl
; File D:\git\src\IBK\IBK_DRFN\ProjSrc\SrcDrfn\Chart\comparechart\control\GfxOutBarCtrl.cpp
;	COMDAT ?DrawAnimItem@CGfxOutBarCtrl@@QAEXHHH@Z
_TEXT	SEGMENT
_dc$6 = -144						; size = 20
_this$GSCopy$1$ = -124					; size = 4
_index$GSCopy$1$ = -120					; size = 4
_pi$1$ = -120						; size = 4
_ima$1$ = -116						; size = 4
_ii$7 = -112						; size = 32
_ii$8 = -112						; size = 32
_irc$ = -80						; size = 16
$T9 = -64						; size = 16
_rcBck$10 = -64						; size = 16
_rcBck$11 = -48						; size = 16
$T12 = -48						; size = 16
_rc$ = -32						; size = 16
__$ArrayPad$ = -16					; size = 4
__$EHRec$ = -12						; size = 12
_xoffset$ = 8						; size = 4
_yoffset$ = 12						; size = 4
_index$ = 16						; size = 4
?DrawAnimItem@CGfxOutBarCtrl@@QAEXHHH@Z PROC		; CGfxOutBarCtrl::DrawAnimItem, COMDAT
; _this$ = ecx

; 296  : {

  00000	55		 push	 ebp
  00001	8b ec		 mov	 ebp, esp
  00003	6a ff		 push	 -1
  00005	68 00 00 00 00	 push	 __ehhandler$?DrawAnimItem@CGfxOutBarCtrl@@QAEXHHH@Z
  0000a	64 a1 00 00 00
	00		 mov	 eax, DWORD PTR fs:0
  00010	50		 push	 eax
  00011	81 ec 84 00 00
	00		 sub	 esp, 132		; 00000084H
  00017	a1 00 00 00 00	 mov	 eax, DWORD PTR ___security_cookie
  0001c	33 c5		 xor	 eax, ebp
  0001e	89 45 f0	 mov	 DWORD PTR __$ArrayPad$[ebp], eax
  00021	53		 push	 ebx
  00022	56		 push	 esi
  00023	57		 push	 edi
  00024	50		 push	 eax
  00025	8d 45 f4	 lea	 eax, DWORD PTR __$EHRec$[ebp]
  00028	64 a3 00 00 00
	00		 mov	 DWORD PTR fs:0, eax
  0002e	8b d9		 mov	 ebx, ecx
  00030	89 5d 84	 mov	 DWORD PTR _this$GSCopy$1$[ebp], ebx

; 184  : 	return dwFlags&fSmallIcon;

  00033	8a 93 00 01 00
	00		 mov	 dl, BYTE PTR [ebx+256]

; 297  : 	CImageList * ima = GetFolderImageList(iSelFolder, IsSmallIconView());

  00039	8b 8b 34 01 00
	00		 mov	 ecx, DWORD PTR [ebx+308]

; 184  : 	return dwFlags&fSmallIcon;

  0003f	80 e2 01	 and	 dl, 1

; 296  : {

  00042	8b 45 10	 mov	 eax, DWORD PTR _index$[ebp]
  00045	89 45 88	 mov	 DWORD PTR _index$GSCopy$1$[ebp], eax
; File C:\Program Files (x86)\Microsoft Visual Studio\2019\Community\VC\Tools\MSVC\14.29.30133\atlmfc\include\afxcoll.inl

; 203  : 		if( nIndex < 0 || nIndex >= m_nSize )

  00048	85 c9		 test	 ecx, ecx
  0004a	0f 88 61 02 00
	00		 js	 $LN35@DrawAnimIt
  00050	3b 8b 0c 01 00
	00		 cmp	 ecx, DWORD PTR [ebx+268]
  00056	0f 8d 55 02 00
	00		 jge	 $LN35@DrawAnimIt

; 205  : 		return m_pData[nIndex]; }

  0005c	8b 83 08 01 00
	00		 mov	 eax, DWORD PTR [ebx+264]
  00062	8b 34 88	 mov	 esi, DWORD PTR [eax+ecx*4]
; File D:\git\src\IBK\IBK_DRFN\ProjSrc\SrcDrfn\Chart\comparechart\control\GfxOutBarCtrl.cpp

; 1702 : 	if (bSmall)

  00065	84 d2		 test	 dl, dl
  00067	74 12		 je	 SHORT $LN14@DrawAnimIt

; 1703 : 	{
; 1704 : 		if (pbf->pSmallImageList) return pbf->pSmallImageList; else return pSmallImageList;

  00069	8b 76 10	 mov	 esi, DWORD PTR [esi+16]
  0006c	89 75 8c	 mov	 DWORD PTR _ima$1$[ebp], esi
  0006f	85 f6		 test	 esi, esi
  00071	75 1b		 jne	 SHORT $LN16@DrawAnimIt
  00073	8b b3 3c 01 00
	00		 mov	 esi, DWORD PTR [ebx+316]
  00079	eb 10		 jmp	 SHORT $LN86@DrawAnimIt
$LN14@DrawAnimIt:

; 1705 : 	}
; 1706 : 	if (pbf->pLargeImageList) return pbf->pLargeImageList; else return pLargeImageList;

  0007b	8b 76 0c	 mov	 esi, DWORD PTR [esi+12]
  0007e	89 75 8c	 mov	 DWORD PTR _ima$1$[ebp], esi
  00081	85 f6		 test	 esi, esi
  00083	75 09		 jne	 SHORT $LN16@DrawAnimIt
  00085	8b b3 38 01 00
	00		 mov	 esi, DWORD PTR [ebx+312]
$LN86@DrawAnimIt:
; File C:\Program Files (x86)\Microsoft Visual Studio\2019\Community\VC\Tools\MSVC\14.29.30133\atlmfc\include\atltypes.h

; 528  : 	left = 0;

  0008b	89 75 8c	 mov	 DWORD PTR _ima$1$[ebp], esi
$LN16@DrawAnimIt:
; File C:\Program Files (x86)\Microsoft Visual Studio\2019\Community\VC\Tools\MSVC\14.29.30133\atlmfc\include\afxwin2.inl

; 86   : 	{ ASSERT(::IsWindow(m_hWnd)); ::GetClientRect(m_hWnd, lpRect); }

  0008e	8d 45 b0	 lea	 eax, DWORD PTR _irc$[ebp]
  00091	0f 57 c0	 xorps	 xmm0, xmm0
  00094	50		 push	 eax
  00095	ff 73 20	 push	 DWORD PTR [ebx+32]
; File C:\Program Files (x86)\Microsoft Visual Studio\2019\Community\VC\Tools\MSVC\14.29.30133\atlmfc\include\atltypes.h

; 528  : 	left = 0;

  00098	0f 11 45 e0	 movups	 XMMWORD PTR _rc$[ebp], xmm0
  0009c	0f 11 45 b0	 movups	 XMMWORD PTR _irc$[ebp], xmm0
; File C:\Program Files (x86)\Microsoft Visual Studio\2019\Community\VC\Tools\MSVC\14.29.30133\atlmfc\include\afxwin2.inl

; 86   : 	{ ASSERT(::IsWindow(m_hWnd)); ::GetClientRect(m_hWnd, lpRect); }

  000a0	ff 15 00 00 00
	00		 call	 DWORD PTR __imp__GetClientRect@8
; File D:\git\src\IBK\IBK_DRFN\ProjSrc\SrcDrfn\Chart\comparechart\control\GfxOutBarCtrl.cpp

; 746  : 	if (arFolder.GetSize() > 0)

  000a6	8b 93 0c 01 00
	00		 mov	 edx, DWORD PTR [ebx+268]
  000ac	8b bb 34 01 00
	00		 mov	 edi, DWORD PTR [ebx+308]
  000b2	85 d2		 test	 edx, edx
  000b4	7e 18		 jle	 SHORT $LN29@DrawAnimIt

; 747  : 	{
; 748  : 		int max = arFolder.GetSize();
; 749  : 		rect.top += iFolderHeight * (iSelFolder + 1); + 1;//+ 2;

  000b6	8b 8b a0 00 00
	00		 mov	 ecx, DWORD PTR [ebx+160]
  000bc	8d 47 01	 lea	 eax, DWORD PTR [edi+1]

; 750  : 		rect.bottom -= (max - iSelFolder - 1)*iFolderHeight;

  000bf	2b d7		 sub	 edx, edi
  000c1	0f af c1	 imul	 eax, ecx
  000c4	4a		 dec	 edx
  000c5	0f af d1	 imul	 edx, ecx
  000c8	01 45 b4	 add	 DWORD PTR _irc$[ebp+4], eax
  000cb	29 55 bc	 sub	 DWORD PTR _irc$[ebp+12], edx
$LN29@DrawAnimIt:

; 298  : 
; 299  : 	CRect rc, irc;
; 300  : 	GetInsideRect(irc);
; 301  : 	GetItemRect(iSelFolder, iLastSel, rc);

  000ce	8d 45 e0	 lea	 eax, DWORD PTR _rc$[ebp]
  000d1	8b cb		 mov	 ecx, ebx
  000d3	50		 push	 eax
  000d4	ff b3 f4 00 00
	00		 push	 DWORD PTR [ebx+244]
  000da	57		 push	 edi
  000db	e8 00 00 00 00	 call	 ?GetItemRect@CGfxOutBarCtrl@@QAEXHHAAVCRect@@@Z ; CGfxOutBarCtrl::GetItemRect

; 302  : 
; 303  : 	if (iLastSel >= iFirstItem && irc.bottom > rc.bottom && irc.top < rc.top)

  000e0	8b 83 f4 00 00
	00		 mov	 eax, DWORD PTR [ebx+244]
  000e6	3b 83 20 01 00
	00		 cmp	 eax, DWORD PTR [ebx+288]
  000ec	0f 8c a1 01 00
	00		 jl	 $LN2@DrawAnimIt
  000f2	8b 45 bc	 mov	 eax, DWORD PTR _irc$[ebp+12]
  000f5	3b 45 ec	 cmp	 eax, DWORD PTR _rc$[ebp+12]
  000f8	0f 8e 95 01 00
	00		 jle	 $LN2@DrawAnimIt
  000fe	8b 45 b4	 mov	 eax, DWORD PTR _irc$[ebp+4]
  00101	3b 45 e4	 cmp	 eax, DWORD PTR _rc$[ebp+4]
  00104	0f 8d 89 01 00
	00		 jge	 $LN2@DrawAnimIt

; 304  : 	{
; 305  : 		ASSERT(iSelFolder >= 0 && iSelFolder < GetFolderCount());
; 306  : 		CBarFolder * pbf = (CBarFolder *) arFolder.GetAt(iSelFolder);

  0010a	8b 8b 34 01 00
	00		 mov	 ecx, DWORD PTR [ebx+308]
; File C:\Program Files (x86)\Microsoft Visual Studio\2019\Community\VC\Tools\MSVC\14.29.30133\atlmfc\include\afxcoll.inl

; 203  : 		if( nIndex < 0 || nIndex >= m_nSize )

  00110	85 c9		 test	 ecx, ecx
  00112	0f 88 99 01 00
	00		 js	 $LN35@DrawAnimIt
  00118	3b 8b 0c 01 00
	00		 cmp	 ecx, DWORD PTR [ebx+268]
  0011e	0f 8d 8d 01 00
	00		 jge	 $LN35@DrawAnimIt

; 205  : 		return m_pData[nIndex]; }

  00124	8b 83 08 01 00
	00		 mov	 eax, DWORD PTR [ebx+264]
  0012a	8b 04 88	 mov	 eax, DWORD PTR [eax+ecx*4]

; 203  : 		if( nIndex < 0 || nIndex >= m_nSize )

  0012d	8b 4d 88	 mov	 ecx, DWORD PTR _index$GSCopy$1$[ebp]
  00130	85 c9		 test	 ecx, ecx
  00132	0f 88 79 01 00
	00		 js	 $LN35@DrawAnimIt
  00138	3b 48 1c	 cmp	 ecx, DWORD PTR [eax+28]
  0013b	0f 8d 70 01 00
	00		 jge	 $LN35@DrawAnimIt

; 205  : 		return m_pData[nIndex]; }

  00141	8b 40 18	 mov	 eax, DWORD PTR [eax+24]
; File D:\git\src\IBK\IBK_DRFN\ProjSrc\SrcDrfn\Chart\comparechart\control\GfxOutBarCtrl.cpp

; 313  : 		CClientDC dc(this);

  00144	53		 push	 ebx
; File C:\Program Files (x86)\Microsoft Visual Studio\2019\Community\VC\Tools\MSVC\14.29.30133\atlmfc\include\afxcoll.inl

; 205  : 		return m_pData[nIndex]; }

  00145	8b 3c 88	 mov	 edi, DWORD PTR [eax+ecx*4]
; File D:\git\src\IBK\IBK_DRFN\ProjSrc\SrcDrfn\Chart\comparechart\control\GfxOutBarCtrl.cpp

; 313  : 		CClientDC dc(this);

  00148	8d 8d 70 ff ff
	ff		 lea	 ecx, DWORD PTR _dc$6[ebp]
; File C:\Program Files (x86)\Microsoft Visual Studio\2019\Community\VC\Tools\MSVC\14.29.30133\atlmfc\include\afxcoll.inl

; 205  : 		return m_pData[nIndex]; }

  0014e	89 7d 88	 mov	 DWORD PTR _pi$1$[ebp], edi
; File D:\git\src\IBK\IBK_DRFN\ProjSrc\SrcDrfn\Chart\comparechart\control\GfxOutBarCtrl.cpp

; 313  : 		CClientDC dc(this);

  00151	e8 00 00 00 00	 call	 ??0CClientDC@@QAE@PAVCWnd@@@Z ; CClientDC::CClientDC

; 184  : 	return dwFlags&fSmallIcon;

  00156	8a 83 00 01 00
	00		 mov	 al, BYTE PTR [ebx+256]
  0015c	24 01		 and	 al, 1

; 313  : 		CClientDC dc(this);

  0015e	c7 45 fc 00 00
	00 00		 mov	 DWORD PTR __$EHRec$[ebp+8], 0

; 316  : 		{
; 317  : 			if (ima)

  00165	85 f6		 test	 esi, esi
  00167	0f 84 1b 01 00
	00		 je	 $LN6@DrawAnimIt

; 314  : 
; 315  : 		if (IsSmallIconView())

  0016d	84 c0		 test	 al, al
  0016f	8d 45 90	 lea	 eax, DWORD PTR _ii$8[ebp]
  00172	50		 push	 eax
  00173	ff 77 04	 push	 DWORD PTR [edi+4]
  00176	ff 76 04	 push	 DWORD PTR [esi+4]
  00179	74 7e		 je	 SHORT $LN3@DrawAnimIt
; File C:\Program Files (x86)\Microsoft Visual Studio\2019\Community\VC\Tools\MSVC\14.29.30133\atlmfc\include\afxwin1.inl

; 881  : 	{ ASSERT(m_hImageList != NULL); return ImageList_GetImageInfo(m_hImageList, nImage, pImageInfo); }

  0017b	ff 15 00 00 00
	00		 call	 DWORD PTR __imp__ImageList_GetImageInfo@12
; File C:\Program Files (x86)\Microsoft Visual Studio\2019\Community\VC\Tools\MSVC\14.29.30133\atlmfc\include\atltypes.h

; 548  : 	::CopyRect(this, &srcRect);

  00181	8d 45 a0	 lea	 eax, DWORD PTR _ii$8[ebp+16]
  00184	50		 push	 eax
  00185	8d 45 d0	 lea	 eax, DWORD PTR $T12[ebp]
  00188	50		 push	 eax
  00189	ff 15 00 00 00
	00		 call	 DWORD PTR __imp__CopyRect@8

; 586  : 	return CSize(right - left, bottom - top);

  0018f	8b 7d dc	 mov	 edi, DWORD PTR $T12[ebp+12]
  00192	2b 7d d4	 sub	 edi, DWORD PTR $T12[ebp+4]
; File D:\git\src\IBK\IBK_DRFN\ProjSrc\SrcDrfn\Chart\comparechart\control\GfxOutBarCtrl.cpp

; 324  : 				pt.y = rc.top + (rc.Height() - szImage.cy) / 2;

  00195	8b 45 ec	 mov	 eax, DWORD PTR _rc$[ebp+12]
  00198	8b 4d e4	 mov	 ecx, DWORD PTR _rc$[ebp+4]
  0019b	2b c7		 sub	 eax, edi
  0019d	8b 5d e0	 mov	 ebx, DWORD PTR _rc$[ebp]
  001a0	2b c1		 sub	 eax, ecx
  001a2	99		 cdq
  001a3	83 c3 02	 add	 ebx, 2
  001a6	2b c2		 sub	 eax, edx
  001a8	d1 f8		 sar	 eax, 1
  001aa	8d 34 08	 lea	 esi, DWORD PTR [eax+ecx]
; File C:\Program Files (x86)\Microsoft Visual Studio\2019\Community\VC\Tools\MSVC\14.29.30133\atlmfc\include\atltypes.h

; 542  : 	right = r;

  001ad	8b cb		 mov	 ecx, ebx
  001af	2b 4d d0	 sub	 ecx, DWORD PTR $T12[ebp]
; File D:\git\src\IBK\IBK_DRFN\ProjSrc\SrcDrfn\Chart\comparechart\control\GfxOutBarCtrl.cpp

; 324  : 				pt.y = rc.top + (rc.Height() - szImage.cy) / 2;

  001b2	8d 43 ff	 lea	 eax, DWORD PTR [ebx-1]
; File C:\Program Files (x86)\Microsoft Visual Studio\2019\Community\VC\Tools\MSVC\14.29.30133\atlmfc\include\atltypes.h

; 540  : 	left = l;

  001b5	89 45 c0	 mov	 DWORD PTR _rcBck$10[ebp], eax
  001b8	8d 46 ff	 lea	 eax, DWORD PTR [esi-1]

; 541  : 	top = t;

  001bb	89 45 c4	 mov	 DWORD PTR _rcBck$10[ebp+4], eax
; File D:\git\src\IBK\IBK_DRFN\ProjSrc\SrcDrfn\Chart\comparechart\control\GfxOutBarCtrl.cpp

; 326  : 				CRect rcBck(pt.x-1, pt.y-1, pt.x + szImage.cx+2, pt.y + szImage.cy+2);

  001be	8b 45 d8	 mov	 eax, DWORD PTR $T12[ebp+8]
  001c1	83 c0 02	 add	 eax, 2
  001c4	03 c1		 add	 eax, ecx

; 327  : 				dc.FillSolidRect(rcBck, crBackGroundColor);

  001c6	8d 8d 70 ff ff
	ff		 lea	 ecx, DWORD PTR _dc$6[ebp]
; File C:\Program Files (x86)\Microsoft Visual Studio\2019\Community\VC\Tools\MSVC\14.29.30133\atlmfc\include\atltypes.h

; 542  : 	right = r;

  001cc	89 45 c8	 mov	 DWORD PTR _rcBck$10[ebp+8], eax
; File D:\git\src\IBK\IBK_DRFN\ProjSrc\SrcDrfn\Chart\comparechart\control\GfxOutBarCtrl.cpp

; 326  : 				CRect rcBck(pt.x-1, pt.y-1, pt.x + szImage.cx+2, pt.y + szImage.cy+2);

  001cf	8d 47 02	 lea	 eax, DWORD PTR [edi+2]
  001d2	03 c6		 add	 eax, esi
; File C:\Program Files (x86)\Microsoft Visual Studio\2019\Community\VC\Tools\MSVC\14.29.30133\atlmfc\include\atltypes.h

; 543  : 	bottom = b;

  001d4	89 45 cc	 mov	 DWORD PTR _rcBck$10[ebp+12], eax
; File D:\git\src\IBK\IBK_DRFN\ProjSrc\SrcDrfn\Chart\comparechart\control\GfxOutBarCtrl.cpp

; 327  : 				dc.FillSolidRect(rcBck, crBackGroundColor);

  001d7	8b 45 84	 mov	 eax, DWORD PTR _this$GSCopy$1$[ebp]
  001da	ff b0 80 00 00
	00		 push	 DWORD PTR [eax+128]
  001e0	8d 45 c0	 lea	 eax, DWORD PTR _rcBck$10[ebp]
  001e3	50		 push	 eax
  001e4	e8 00 00 00 00	 call	 ?FillSolidRect@CDC@@QAEXPBUtagRECT@@K@Z ; CDC::FillSolidRect
  001e9	8b 4d 08	 mov	 ecx, DWORD PTR _xoffset$[ebp]

; 329  : 				pt.x += xoffset;

  001ec	8b 45 0c	 mov	 eax, DWORD PTR _yoffset$[ebp]
  001ef	03 cb		 add	 ecx, ebx
; File C:\Program Files (x86)\Microsoft Visual Studio\2019\Community\VC\Tools\MSVC\14.29.30133\atlmfc\include\afxwin1.inl

; 871  : 	{ ASSERT(m_hImageList != NULL); ASSERT(pDC != NULL); return ImageList_Draw(m_hImageList, nImage, pDC->GetSafeHdc(), pt.x, pt.y, nStyle); }

  001f1	6a 00		 push	 0
; File D:\git\src\IBK\IBK_DRFN\ProjSrc\SrcDrfn\Chart\comparechart\control\GfxOutBarCtrl.cpp

; 329  : 				pt.x += xoffset;

  001f3	03 c6		 add	 eax, esi
; File C:\Program Files (x86)\Microsoft Visual Studio\2019\Community\VC\Tools\MSVC\14.29.30133\atlmfc\include\afxwin1.inl

; 871  : 	{ ASSERT(m_hImageList != NULL); ASSERT(pDC != NULL); return ImageList_Draw(m_hImageList, nImage, pDC->GetSafeHdc(), pt.x, pt.y, nStyle); }

  001f5	50		 push	 eax
  001f6	51		 push	 ecx
; File D:\git\src\IBK\IBK_DRFN\ProjSrc\SrcDrfn\Chart\comparechart\control\GfxOutBarCtrl.cpp

; 335  : 		}

  001f7	eb 77		 jmp	 SHORT $LN87@DrawAnimIt
$LN3@DrawAnimIt:
; File C:\Program Files (x86)\Microsoft Visual Studio\2019\Community\VC\Tools\MSVC\14.29.30133\atlmfc\include\afxwin1.inl

; 881  : 	{ ASSERT(m_hImageList != NULL); return ImageList_GetImageInfo(m_hImageList, nImage, pImageInfo); }

  001f9	ff 15 00 00 00
	00		 call	 DWORD PTR __imp__ImageList_GetImageInfo@12
; File C:\Program Files (x86)\Microsoft Visual Studio\2019\Community\VC\Tools\MSVC\14.29.30133\atlmfc\include\atltypes.h

; 548  : 	::CopyRect(this, &srcRect);

  001ff	8d 45 a0	 lea	 eax, DWORD PTR _ii$7[ebp+16]
  00202	50		 push	 eax
  00203	8d 45 c0	 lea	 eax, DWORD PTR $T9[ebp]
  00206	50		 push	 eax
  00207	ff 15 00 00 00
	00		 call	 DWORD PTR __imp__CopyRect@8

; 586  : 	return CSize(right - left, bottom - top);

  0020d	8b 75 c8	 mov	 esi, DWORD PTR $T9[ebp+8]
  00210	2b 75 c0	 sub	 esi, DWORD PTR $T9[ebp]
; File D:\git\src\IBK\IBK_DRFN\ProjSrc\SrcDrfn\Chart\comparechart\control\GfxOutBarCtrl.cpp

; 344  : 				pt.x = rc.left + (rc.Width() - szImage.cx) / 2;

  00213	8b 45 e8	 mov	 eax, DWORD PTR _rc$[ebp+8]
  00216	8b 4d e0	 mov	 ecx, DWORD PTR _rc$[ebp]
  00219	2b c6		 sub	 eax, esi

; 345  : 				pt.y = rc.top;

  0021b	8b 5d e4	 mov	 ebx, DWORD PTR _rc$[ebp+4]
  0021e	2b c1		 sub	 eax, ecx
  00220	99		 cdq
  00221	2b c2		 sub	 eax, edx
  00223	d1 f8		 sar	 eax, 1
  00225	8d 3c 08	 lea	 edi, DWORD PTR [eax+ecx]
; File C:\Program Files (x86)\Microsoft Visual Studio\2019\Community\VC\Tools\MSVC\14.29.30133\atlmfc\include\atltypes.h

; 543  : 	bottom = b;

  00228	8b cb		 mov	 ecx, ebx
  0022a	2b 4d c4	 sub	 ecx, DWORD PTR $T9[ebp+4]
; File D:\git\src\IBK\IBK_DRFN\ProjSrc\SrcDrfn\Chart\comparechart\control\GfxOutBarCtrl.cpp

; 345  : 				pt.y = rc.top;

  0022d	8d 47 ff	 lea	 eax, DWORD PTR [edi-1]
; File C:\Program Files (x86)\Microsoft Visual Studio\2019\Community\VC\Tools\MSVC\14.29.30133\atlmfc\include\atltypes.h

; 540  : 	left = l;

  00230	89 45 d0	 mov	 DWORD PTR _rcBck$11[ebp], eax
  00233	8d 43 ff	 lea	 eax, DWORD PTR [ebx-1]

; 541  : 	top = t;

  00236	89 45 d4	 mov	 DWORD PTR _rcBck$11[ebp+4], eax
; File D:\git\src\IBK\IBK_DRFN\ProjSrc\SrcDrfn\Chart\comparechart\control\GfxOutBarCtrl.cpp

; 347  : 				CRect rcBck(pt.x-1, pt.y-1, pt.x + szImage.cx+2, pt.y + szImage.cy+2);

  00239	8d 46 02	 lea	 eax, DWORD PTR [esi+2]
  0023c	03 c7		 add	 eax, edi
; File C:\Program Files (x86)\Microsoft Visual Studio\2019\Community\VC\Tools\MSVC\14.29.30133\atlmfc\include\atltypes.h

; 542  : 	right = r;

  0023e	89 45 d8	 mov	 DWORD PTR _rcBck$11[ebp+8], eax
; File D:\git\src\IBK\IBK_DRFN\ProjSrc\SrcDrfn\Chart\comparechart\control\GfxOutBarCtrl.cpp

; 347  : 				CRect rcBck(pt.x-1, pt.y-1, pt.x + szImage.cx+2, pt.y + szImage.cy+2);

  00241	8b 45 cc	 mov	 eax, DWORD PTR $T9[ebp+12]
  00244	83 c0 02	 add	 eax, 2
  00247	03 c1		 add	 eax, ecx

; 348  : 				dc.FillSolidRect(rcBck, crBackGroundColor);

  00249	8d 8d 70 ff ff
	ff		 lea	 ecx, DWORD PTR _dc$6[ebp]
; File C:\Program Files (x86)\Microsoft Visual Studio\2019\Community\VC\Tools\MSVC\14.29.30133\atlmfc\include\atltypes.h

; 543  : 	bottom = b;

  0024f	89 45 dc	 mov	 DWORD PTR _rcBck$11[ebp+12], eax
; File D:\git\src\IBK\IBK_DRFN\ProjSrc\SrcDrfn\Chart\comparechart\control\GfxOutBarCtrl.cpp

; 348  : 				dc.FillSolidRect(rcBck, crBackGroundColor);

  00252	8b 45 84	 mov	 eax, DWORD PTR _this$GSCopy$1$[ebp]
  00255	ff b0 80 00 00
	00		 push	 DWORD PTR [eax+128]
  0025b	8d 45 d0	 lea	 eax, DWORD PTR _rcBck$11[ebp]
  0025e	50		 push	 eax
  0025f	e8 00 00 00 00	 call	 ?FillSolidRect@CDC@@QAEXPBUtagRECT@@K@Z ; CDC::FillSolidRect
  00264	8b 45 08	 mov	 eax, DWORD PTR _xoffset$[ebp]
  00267	03 c7		 add	 eax, edi

; 349  : 
; 350  : 				pt.x += xoffset;
; 351  : 				pt.y += yoffset;

  00269	03 5d 0c	 add	 ebx, DWORD PTR _yoffset$[ebp]
; File C:\Program Files (x86)\Microsoft Visual Studio\2019\Community\VC\Tools\MSVC\14.29.30133\atlmfc\include\afxwin1.inl

; 871  : 	{ ASSERT(m_hImageList != NULL); ASSERT(pDC != NULL); return ImageList_Draw(m_hImageList, nImage, pDC->GetSafeHdc(), pt.x, pt.y, nStyle); }

  0026c	6a 00		 push	 0
  0026e	53		 push	 ebx
  0026f	50		 push	 eax
$LN87@DrawAnimIt:
; File D:\git\src\IBK\IBK_DRFN\ProjSrc\SrcDrfn\Chart\comparechart\control\GfxOutBarCtrl.cpp

; 356  : 	}

  00270	8b 45 88	 mov	 eax, DWORD PTR _pi$1$[ebp]
  00273	ff b5 74 ff ff
	ff		 push	 DWORD PTR _dc$6[ebp+4]
  00279	ff 70 04	 push	 DWORD PTR [eax+4]
  0027c	8b 45 8c	 mov	 eax, DWORD PTR _ima$1$[ebp]
  0027f	ff 70 04	 push	 DWORD PTR [eax+4]
  00282	ff 15 00 00 00
	00		 call	 DWORD PTR __imp__ImageList_Draw@24
$LN6@DrawAnimIt:
  00288	8d 8d 70 ff ff
	ff		 lea	 ecx, DWORD PTR _dc$6[ebp]
  0028e	e8 00 00 00 00	 call	 ??1CClientDC@@UAE@XZ	; CClientDC::~CClientDC
$LN2@DrawAnimIt:

; 357  : }

  00293	8b 4d f4	 mov	 ecx, DWORD PTR __$EHRec$[ebp]
  00296	64 89 0d 00 00
	00 00		 mov	 DWORD PTR fs:0, ecx
  0029d	59		 pop	 ecx
  0029e	5f		 pop	 edi
  0029f	5e		 pop	 esi
  002a0	5b		 pop	 ebx
  002a1	8b 4d f0	 mov	 ecx, DWORD PTR __$ArrayPad$[ebp]
  002a4	33 cd		 xor	 ecx, ebp
  002a6	e8 00 00 00 00	 call	 @__security_check_cookie@4
  002ab	8b e5		 mov	 esp, ebp
  002ad	5d		 pop	 ebp
  002ae	c2 0c 00	 ret	 12			; 0000000cH
$LN35@DrawAnimIt:
  002b1	e8 00 00 00 00	 call	 ?AfxThrowInvalidArgException@@YGXXZ ; AfxThrowInvalidArgException
$LN85@DrawAnimIt:
  002b6	cc		 int	 3
_TEXT	ENDS
;	COMDAT text$x
text$x	SEGMENT
__unwindfunclet$?DrawAnimItem@CGfxOutBarCtrl@@QAEXHHH@Z$0:
  00000	8d 8d 70 ff ff
	ff		 lea	 ecx, DWORD PTR _dc$6[ebp]
  00006	e9 00 00 00 00	 jmp	 ??1CClientDC@@UAE@XZ	; CClientDC::~CClientDC
  0000b	cc		 int	 3
  0000c	cc		 int	 3
  0000d	cc		 int	 3
  0000e	cc		 int	 3
  0000f	cc		 int	 3
__ehhandler$?DrawAnimItem@CGfxOutBarCtrl@@QAEXHHH@Z:
  00010	90		 npad	 1
  00011	90		 npad	 1
  00012	8b 54 24 08	 mov	 edx, DWORD PTR [esp+8]
  00016	8d 42 0c	 lea	 eax, DWORD PTR [edx+12]
  00019	8b 8a 6c ff ff
	ff		 mov	 ecx, DWORD PTR [edx-148]
  0001f	33 c8		 xor	 ecx, eax
  00021	e8 00 00 00 00	 call	 @__security_check_cookie@4
  00026	8b 4a fc	 mov	 ecx, DWORD PTR [edx-4]
  00029	33 c8		 xor	 ecx, eax
  0002b	e8 00 00 00 00	 call	 @__security_check_cookie@4
  00030	b8 00 00 00 00	 mov	 eax, OFFSET __ehfuncinfo$?DrawAnimItem@CGfxOutBarCtrl@@QAEXHHH@Z
  00035	e9 00 00 00 00	 jmp	 ___CxxFrameHandler3
text$x	ENDS
?DrawAnimItem@CGfxOutBarCtrl@@QAEXHHH@Z ENDP		; CGfxOutBarCtrl::DrawAnimItem
; Function compile flags: /Ogtp
; File D:\git\src\IBK\IBK_DRFN\ProjSrc\SrcDrfn\Chart\comparechart\control\GfxOutBarCtrl.cpp
;	COMDAT ?SetBackColor@CGfxOutBarCtrl@@QAEXHKKKK@Z
_TEXT	SEGMENT
_bGradient$ = 8						; size = 4
_bgTop$ = 12						; size = 4
_bgBottom$ = 16						; size = 4
_TextColor$ = 20					; size = 4
_sTextColor$ = 24					; size = 4
?SetBackColor@CGfxOutBarCtrl@@QAEXHKKKK@Z PROC		; CGfxOutBarCtrl::SetBackColor, COMDAT
; _this$ = ecx

; 2420 : {

  00000	55		 push	 ebp
  00001	8b ec		 mov	 ebp, esp

; 2421 : 	m_bGradient = FALSE;
; 2422 : 
; 2423 : 	crTextColor = TextColor;

  00003	8b 45 14	 mov	 eax, DWORD PTR _TextColor$[ebp]
  00006	89 81 88 00 00
	00		 mov	 DWORD PTR [ecx+136], eax

; 2424 : 	crSelTextColor = sTextColor;

  0000c	8b 45 18	 mov	 eax, DWORD PTR _sTextColor$[ebp]
  0000f	c7 81 50 01 00
	00 00 00 00 00	 mov	 DWORD PTR [ecx+336], 0
  00019	89 81 8c 00 00
	00		 mov	 DWORD PTR [ecx+140], eax

; 2425 : }

  0001f	5d		 pop	 ebp
  00020	c2 14 00	 ret	 20			; 00000014H
?SetBackColor@CGfxOutBarCtrl@@QAEXHKKKK@Z ENDP		; CGfxOutBarCtrl::SetBackColor
_TEXT	ENDS
; Function compile flags: /Ogtp
; File D:\git\src\IBK\IBK_DRFN\ProjSrc\SrcDrfn\Chart\comparechart\control\GfxOutBarCtrl.cpp
; File C:\Program Files (x86)\Microsoft Visual Studio\2019\Community\VC\Tools\MSVC\14.29.30133\atlmfc\include\afxcoll.inl
; File D:\git\src\IBK\IBK_DRFN\ProjSrc\SrcDrfn\Chart\comparechart\control\GfxOutBarCtrl.cpp
; File C:\Program Files (x86)\Microsoft Visual Studio\2019\Community\VC\Tools\MSVC\14.29.30133\atlmfc\include\afxcoll.inl
; File D:\git\src\IBK\IBK_DRFN\ProjSrc\SrcDrfn\Chart\comparechart\control\GfxOutBarCtrl.cpp
; File C:\Program Files (x86)\Microsoft Visual Studio\2019\Community\VC\Tools\MSVC\14.29.30133\atlmfc\include\afxcoll.inl
; File D:\git\src\IBK\IBK_DRFN\ProjSrc\SrcDrfn\Chart\comparechart\control\GfxOutBarCtrl.cpp
;	COMDAT ?DeleteAllFolder@CGfxOutBarCtrl@@QAEXXZ
_TEXT	SEGMENT
?DeleteAllFolder@CGfxOutBarCtrl@@QAEXXZ PROC		; CGfxOutBarCtrl::DeleteAllFolder, COMDAT
; _this$ = ecx

; 2428 : {

  00000	56		 push	 esi
  00001	57		 push	 edi
  00002	8b f9		 mov	 edi, ecx

; 2429 : 	for (int t = 0; t < arFolder.GetSize(); t++)

  00004	33 f6		 xor	 esi, esi
  00006	8b 97 0c 01 00
	00		 mov	 edx, DWORD PTR [edi+268]
  0000c	85 d2		 test	 edx, edx
  0000e	7e 26		 jle	 SHORT $LN25@DeleteAllF
$LL4@DeleteAllF:
; File C:\Program Files (x86)\Microsoft Visual Studio\2019\Community\VC\Tools\MSVC\14.29.30133\atlmfc\include\afxcoll.inl

; 203  : 		if( nIndex < 0 || nIndex >= m_nSize )

  00010	85 f6		 test	 esi, esi
  00012	78 3e		 js	 SHORT $LN21@DeleteAllF
  00014	3b f2		 cmp	 esi, edx
  00016	7d 3a		 jge	 SHORT $LN21@DeleteAllF
; File D:\git\src\IBK\IBK_DRFN\ProjSrc\SrcDrfn\Chart\comparechart\control\GfxOutBarCtrl.cpp

; 2431 : 		if (arFolder.GetAt(t)) delete (CBarFolder*) arFolder.GetAt(t);

  00018	8b 87 08 01 00
	00		 mov	 eax, DWORD PTR [edi+264]
  0001e	8b 0c b0	 mov	 ecx, DWORD PTR [eax+esi*4]
  00021	85 c9		 test	 ecx, ecx
  00023	74 0c		 je	 SHORT $LN2@DeleteAllF
  00025	8b 01		 mov	 eax, DWORD PTR [ecx]
  00027	6a 01		 push	 1
  00029	ff 10		 call	 DWORD PTR [eax]
  0002b	8b 97 0c 01 00
	00		 mov	 edx, DWORD PTR [edi+268]
$LN2@DeleteAllF:

; 2429 : 	for (int t = 0; t < arFolder.GetSize(); t++)

  00031	46		 inc	 esi
  00032	3b f2		 cmp	 esi, edx
  00034	7c da		 jl	 SHORT $LL4@DeleteAllF
$LN25@DeleteAllF:
; File C:\Program Files (x86)\Microsoft Visual Studio\2019\Community\VC\Tools\MSVC\14.29.30133\atlmfc\include\afxcoll.inl

; 200  : 	{ SetSize(0); }

  00036	6a ff		 push	 -1
  00038	6a 00		 push	 0
  0003a	8d 8f 04 01 00
	00		 lea	 ecx, DWORD PTR [edi+260]
  00040	e8 00 00 00 00	 call	 ?SetSize@CPtrArray@@QAEXHH@Z ; CPtrArray::SetSize
; File D:\git\src\IBK\IBK_DRFN\ProjSrc\SrcDrfn\Chart\comparechart\control\GfxOutBarCtrl.cpp

; 2434 : 	iSelFolder = 0;

  00045	c7 87 34 01 00
	00 00 00 00 00	 mov	 DWORD PTR [edi+308], 0
  0004f	5f		 pop	 edi
  00050	5e		 pop	 esi

; 2435 : }

  00051	c3		 ret	 0
$LN21@DeleteAllF:
; File C:\Program Files (x86)\Microsoft Visual Studio\2019\Community\VC\Tools\MSVC\14.29.30133\atlmfc\include\afxcoll.inl

; 204  : 			AfxThrowInvalidArgException();

  00052	e8 00 00 00 00	 call	 ?AfxThrowInvalidArgException@@YGXXZ ; AfxThrowInvalidArgException
$LN27@DeleteAllF:
  00057	cc		 int	 3
?DeleteAllFolder@CGfxOutBarCtrl@@QAEXXZ ENDP		; CGfxOutBarCtrl::DeleteAllFolder
_TEXT	ENDS
; Function compile flags: /Ogtp
; File D:\git\src\IBK\IBK_DRFN\ProjSrc\SrcDrfn\Chart\comparechart\control\GfxOutBarCtrl.cpp
; File C:\Program Files (x86)\Microsoft Visual Studio\2019\Community\VC\Tools\MSVC\14.29.30133\atlmfc\include\afxcoll.inl
; File D:\git\src\IBK\IBK_DRFN\ProjSrc\SrcDrfn\Chart\comparechart\control\GfxOutBarCtrl.cpp
; File C:\Program Files (x86)\Microsoft Visual Studio\2019\Community\VC\Tools\MSVC\14.29.30133\atlmfc\include\afxcoll.inl
; File D:\git\src\IBK\IBK_DRFN\ProjSrc\SrcDrfn\Chart\comparechart\control\GfxOutBarCtrl.cpp
; File C:\Program Files (x86)\Microsoft Visual Studio\2019\Community\VC\Tools\MSVC\14.29.30133\atlmfc\include\afxcoll.inl
;	COMDAT ??_GCBarFolder@CGfxOutBarCtrl@@UAEPAXI@Z
_TEXT	SEGMENT
__$EHRec$ = -12						; size = 12
___flags$ = 8						; size = 4
??_GCBarFolder@CGfxOutBarCtrl@@UAEPAXI@Z PROC		; CGfxOutBarCtrl::CBarFolder::`scalar deleting destructor', COMDAT
; _this$ = ecx
  00000	55		 push	 ebp
  00001	8b ec		 mov	 ebp, esp
  00003	6a ff		 push	 -1
  00005	68 00 00 00 00	 push	 __ehhandler$??_GCBarFolder@CGfxOutBarCtrl@@UAEPAXI@Z
  0000a	64 a1 00 00 00
	00		 mov	 eax, DWORD PTR fs:0
  00010	50		 push	 eax
  00011	56		 push	 esi
  00012	57		 push	 edi
  00013	a1 00 00 00 00	 mov	 eax, DWORD PTR ___security_cookie
  00018	33 c5		 xor	 eax, ebp
  0001a	50		 push	 eax
  0001b	8d 45 f4	 lea	 eax, DWORD PTR __$EHRec$[ebp]
  0001e	64 a3 00 00 00
	00		 mov	 DWORD PTR fs:0, eax
  00024	8b f9		 mov	 edi, ecx
; File D:\git\src\IBK\IBK_DRFN\ProjSrc\SrcDrfn\Chart\comparechart\control\GfxOutBarCtrl.cpp

; 728  : 	if (cName) delete [] cName;

  00026	8b 47 04	 mov	 eax, DWORD PTR [edi+4]
  00029	c7 45 fc 00 00
	00 00		 mov	 DWORD PTR __$EHRec$[ebp+8], 0
  00030	c7 07 00 00 00
	00		 mov	 DWORD PTR [edi], OFFSET ??_7CBarFolder@CGfxOutBarCtrl@@6B@
  00036	85 c0		 test	 eax, eax
  00038	74 09		 je	 SHORT $LN8@scalar
  0003a	50		 push	 eax
  0003b	e8 00 00 00 00	 call	 ??_V@YAXPAX@Z		; operator delete[]
  00040	83 c4 04	 add	 esp, 4
$LN8@scalar:

; 729  : 	for (int t = 0; t < arItems.GetSize(); t++)

  00043	8b 57 1c	 mov	 edx, DWORD PTR [edi+28]
  00046	33 f6		 xor	 esi, esi
  00048	85 d2		 test	 edx, edx
  0004a	7e 24		 jle	 SHORT $LN31@scalar
  0004c	0f 1f 40 00	 npad	 4
$LL7@scalar:
; File C:\Program Files (x86)\Microsoft Visual Studio\2019\Community\VC\Tools\MSVC\14.29.30133\atlmfc\include\afxcoll.inl

; 203  : 		if( nIndex < 0 || nIndex >= m_nSize )

  00050	85 f6		 test	 esi, esi
  00052	78 56		 js	 SHORT $LN27@scalar
  00054	3b f2		 cmp	 esi, edx
  00056	7d 52		 jge	 SHORT $LN27@scalar
; File D:\git\src\IBK\IBK_DRFN\ProjSrc\SrcDrfn\Chart\comparechart\control\GfxOutBarCtrl.cpp

; 730  : 		if (arItems.GetAt(t)) delete (CBarFolder*) arItems.GetAt(t);

  00058	8b 47 18	 mov	 eax, DWORD PTR [edi+24]
  0005b	8b 0c b0	 mov	 ecx, DWORD PTR [eax+esi*4]
  0005e	85 c9		 test	 ecx, ecx
  00060	74 09		 je	 SHORT $LN5@scalar
  00062	8b 01		 mov	 eax, DWORD PTR [ecx]
  00064	6a 01		 push	 1
  00066	ff 10		 call	 DWORD PTR [eax]
  00068	8b 57 1c	 mov	 edx, DWORD PTR [edi+28]
$LN5@scalar:

; 729  : 	for (int t = 0; t < arItems.GetSize(); t++)

  0006b	46		 inc	 esi
  0006c	3b f2		 cmp	 esi, edx
  0006e	7c e0		 jl	 SHORT $LL7@scalar
$LN31@scalar:
; File C:\Program Files (x86)\Microsoft Visual Studio\2019\Community\VC\Tools\MSVC\14.29.30133\atlmfc\include\afxcoll.inl

; 200  : 	{ SetSize(0); }

  00070	6a ff		 push	 -1
  00072	6a 00		 push	 0
  00074	8d 4f 14	 lea	 ecx, DWORD PTR [edi+20]
  00077	e8 00 00 00 00	 call	 ?SetSize@CPtrArray@@QAEXHH@Z ; CPtrArray::SetSize
; File D:\git\src\IBK\IBK_DRFN\ProjSrc\SrcDrfn\Chart\comparechart\control\GfxOutBarCtrl.cpp

; 733  : }

  0007c	8d 4f 14	 lea	 ecx, DWORD PTR [edi+20]
  0007f	e8 00 00 00 00	 call	 ??1CPtrArray@@UAE@XZ	; CPtrArray::~CPtrArray
  00084	f6 45 08 01	 test	 BYTE PTR ___flags$[ebp], 1
  00088	74 0b		 je	 SHORT $LN2@scalar
  0008a	6a 2c		 push	 44			; 0000002cH
  0008c	57		 push	 edi
  0008d	e8 00 00 00 00	 call	 ??3@YAXPAXI@Z		; operator delete
  00092	83 c4 08	 add	 esp, 8
$LN2@scalar:
  00095	8b c7		 mov	 eax, edi
  00097	8b 4d f4	 mov	 ecx, DWORD PTR __$EHRec$[ebp]
  0009a	64 89 0d 00 00
	00 00		 mov	 DWORD PTR fs:0, ecx
  000a1	59		 pop	 ecx
  000a2	5f		 pop	 edi
  000a3	5e		 pop	 esi
  000a4	8b e5		 mov	 esp, ebp
  000a6	5d		 pop	 ebp
  000a7	c2 04 00	 ret	 4
$LN27@scalar:
; File C:\Program Files (x86)\Microsoft Visual Studio\2019\Community\VC\Tools\MSVC\14.29.30133\atlmfc\include\afxcoll.inl

; 204  : 			AfxThrowInvalidArgException();

  000aa	e8 00 00 00 00	 call	 ?AfxThrowInvalidArgException@@YGXXZ ; AfxThrowInvalidArgException
$LN34@scalar:
  000af	cc		 int	 3
  000b0	cc		 int	 3
  000b1	cc		 int	 3
  000b2	cc		 int	 3
  000b3	cc		 int	 3
  000b4	cc		 int	 3
_TEXT	ENDS
;	COMDAT text$x
text$x	SEGMENT
__ehhandler$??_GCBarFolder@CGfxOutBarCtrl@@UAEPAXI@Z:
  00000	90		 npad	 1
  00001	90		 npad	 1
  00002	8b 54 24 08	 mov	 edx, DWORD PTR [esp+8]
  00006	8d 42 0c	 lea	 eax, DWORD PTR [edx+12]
  00009	8b 4a f4	 mov	 ecx, DWORD PTR [edx-12]
  0000c	33 c8		 xor	 ecx, eax
  0000e	e8 00 00 00 00	 call	 @__security_check_cookie@4
  00013	b8 00 00 00 00	 mov	 eax, OFFSET __ehfuncinfo$??_GCBarFolder@CGfxOutBarCtrl@@UAEPAXI@Z
  00018	e9 00 00 00 00	 jmp	 ___CxxFrameHandler3
text$x	ENDS
??_GCBarFolder@CGfxOutBarCtrl@@UAEPAXI@Z ENDP		; CGfxOutBarCtrl::CBarFolder::`scalar deleting destructor'
; Function compile flags: /Ogtp
; File D:\git\src\IBK\IBK_DRFN\ProjSrc\SrcDrfn\Chart\comparechart\control\GfxOutBarCtrl.cpp
; File C:\Program Files (x86)\Microsoft Visual Studio\2019\Community\VC\Tools\MSVC\14.29.30133\atlmfc\include\afxcoll.inl
; File D:\git\src\IBK\IBK_DRFN\ProjSrc\SrcDrfn\Chart\comparechart\control\GfxOutBarCtrl.cpp
;	COMDAT ?InsertItem@CBarFolder@CGfxOutBarCtrl@@QAEHHPBDHK@Z
_TEXT	SEGMENT
_this$1$ = -16						; size = 4
__$EHRec$ = -12						; size = 12
$T2 = 8							; size = 4
_index$ = 8						; size = 4
_text$ = 12						; size = 4
_image$ = 16						; size = 4
_exData$ = 20						; size = 4
?InsertItem@CBarFolder@CGfxOutBarCtrl@@QAEHHPBDHK@Z PROC ; CGfxOutBarCtrl::CBarFolder::InsertItem, COMDAT
; _this$ = ecx

; 1521 : {

  00000	55		 push	 ebp
  00001	8b ec		 mov	 ebp, esp
  00003	6a ff		 push	 -1
  00005	68 00 00 00 00	 push	 __ehhandler$?InsertItem@CBarFolder@CGfxOutBarCtrl@@QAEHHPBDHK@Z
  0000a	64 a1 00 00 00
	00		 mov	 eax, DWORD PTR fs:0
  00010	50		 push	 eax
  00011	51		 push	 ecx
  00012	53		 push	 ebx
  00013	56		 push	 esi
  00014	57		 push	 edi
  00015	a1 00 00 00 00	 mov	 eax, DWORD PTR ___security_cookie
  0001a	33 c5		 xor	 eax, ebp
  0001c	50		 push	 eax
  0001d	8d 45 f4	 lea	 eax, DWORD PTR __$EHRec$[ebp]
  00020	64 a3 00 00 00
	00		 mov	 DWORD PTR fs:0, eax
  00026	8b c1		 mov	 eax, ecx
  00028	89 45 f0	 mov	 DWORD PTR _this$1$[ebp], eax

; 1522 : 	if (index < 0 || index > GetItemCount()) index = GetItemCount();

  0002b	8b 7d 08	 mov	 edi, DWORD PTR _index$[ebp]
  0002e	8d 58 1c	 lea	 ebx, DWORD PTR [eax+28]
  00031	85 ff		 test	 edi, edi
  00033	78 04		 js	 SHORT $LN15@InsertItem
  00035	3b 3b		 cmp	 edi, DWORD PTR [ebx]
  00037	7e 02		 jle	 SHORT $LN2@InsertItem
$LN15@InsertItem:
  00039	8b 3b		 mov	 edi, DWORD PTR [ebx]
$LN2@InsertItem:

; 1523 : 
; 1524 : 	int c = GetItemCount();
; 1525 : 
; 1526 : 	CBarItem * pbf = new CBarItem(text, image, exData);

  0003b	6a 10		 push	 16			; 00000010H
  0003d	e8 00 00 00 00	 call	 ??2@YAPAXI@Z		; operator new
  00042	8b f0		 mov	 esi, eax
  00044	83 c4 04	 add	 esp, 4
  00047	89 75 08	 mov	 DWORD PTR $T2[ebp], esi
  0004a	c7 45 fc 00 00
	00 00		 mov	 DWORD PTR __$EHRec$[ebp+8], 0
  00051	85 f6		 test	 esi, esi
  00053	74 40		 je	 SHORT $LN7@InsertItem

; 1588 : 	iImageIndex = image;

  00055	8b 45 10	 mov	 eax, DWORD PTR _image$[ebp]
  00058	89 46 04	 mov	 DWORD PTR [esi+4], eax

; 1589 : 	dwData = exData;

  0005b	8b 45 14	 mov	 eax, DWORD PTR _exData$[ebp]
  0005e	89 46 0c	 mov	 DWORD PTR [esi+12], eax

; 1590 : 	if (name)

  00061	8b 45 0c	 mov	 eax, DWORD PTR _text$[ebp]
  00064	c7 06 00 00 00
	00		 mov	 DWORD PTR [esi], OFFSET ??_7CBarItem@CGfxOutBarCtrl@@6B@
  0006a	c7 46 08 00 00
	00 00		 mov	 DWORD PTR [esi+8], 0
  00071	85 c0		 test	 eax, eax
  00073	74 22		 je	 SHORT $LN8@InsertItem

; 1591 : 	{
; 1592 : 		cItem = new char[lstrlen(name)+1];

  00075	50		 push	 eax
  00076	ff 15 00 00 00
	00		 call	 DWORD PTR __imp__lstrlenA@4
  0007c	40		 inc	 eax
  0007d	50		 push	 eax
  0007e	e8 00 00 00 00	 call	 ??_U@YAPAXI@Z		; operator new[]
  00083	83 c4 04	 add	 esp, 4
  00086	89 46 08	 mov	 DWORD PTR [esi+8], eax

; 1593 : 		ASSERT(cItem);
; 1594 : 		lstrcpy(cItem, name);

  00089	ff 75 0c	 push	 DWORD PTR _text$[ebp]
  0008c	50		 push	 eax
  0008d	ff 15 00 00 00
	00		 call	 DWORD PTR __imp__lstrcpyA@8

; 1523 : 
; 1524 : 	int c = GetItemCount();
; 1525 : 
; 1526 : 	CBarItem * pbf = new CBarItem(text, image, exData);

  00093	eb 02		 jmp	 SHORT $LN8@InsertItem
$LN7@InsertItem:
  00095	33 f6		 xor	 esi, esi
$LN8@InsertItem:

; 1527 : 	ASSERT(pbf);
; 1528 : 	if (index < GetItemCount()) 

  00097	8b 4d f0	 mov	 ecx, DWORD PTR _this$1$[ebp]
  0009a	83 c1 14	 add	 ecx, 20			; 00000014H
  0009d	c7 45 fc ff ff
	ff ff		 mov	 DWORD PTR __$EHRec$[ebp+8], -1
  000a4	3b 3b		 cmp	 edi, DWORD PTR [ebx]
  000a6	7d 0b		 jge	 SHORT $LN4@InsertItem

; 1529 : 		arItems.InsertAt(index, (void *) pbf);

  000a8	6a 01		 push	 1
  000aa	56		 push	 esi
  000ab	57		 push	 edi
  000ac	e8 00 00 00 00	 call	 ?InsertAt@CPtrArray@@QAEXHPAXH@Z ; CPtrArray::InsertAt
  000b1	eb 09		 jmp	 SHORT $LN18@InsertItem
$LN4@InsertItem:
; File C:\Program Files (x86)\Microsoft Visual Studio\2019\Community\VC\Tools\MSVC\14.29.30133\atlmfc\include\afxcoll.inl

; 223  : 		SetAtGrow(nIndex, newElement);

  000b3	56		 push	 esi
  000b4	ff 71 08	 push	 DWORD PTR [ecx+8]
  000b7	e8 00 00 00 00	 call	 ?SetAtGrow@CPtrArray@@QAEXHPAX@Z ; CPtrArray::SetAtGrow
$LN18@InsertItem:
; File D:\git\src\IBK\IBK_DRFN\ProjSrc\SrcDrfn\Chart\comparechart\control\GfxOutBarCtrl.cpp

; 1536 : }

  000bc	8b c7		 mov	 eax, edi
  000be	8b 4d f4	 mov	 ecx, DWORD PTR __$EHRec$[ebp]
  000c1	64 89 0d 00 00
	00 00		 mov	 DWORD PTR fs:0, ecx
  000c8	59		 pop	 ecx
  000c9	5f		 pop	 edi
  000ca	5e		 pop	 esi
  000cb	5b		 pop	 ebx
  000cc	8b e5		 mov	 esp, ebp
  000ce	5d		 pop	 ebp
  000cf	c2 10 00	 ret	 16			; 00000010H
_TEXT	ENDS
;	COMDAT text$x
text$x	SEGMENT
__unwindfunclet$?InsertItem@CBarFolder@CGfxOutBarCtrl@@QAEHHPBDHK@Z$0:
  00000	6a 10		 push	 16			; 00000010H
  00002	8b 45 08	 mov	 eax, DWORD PTR $T2[ebp]
  00005	50		 push	 eax
  00006	e8 00 00 00 00	 call	 ??3@YAXPAXI@Z		; operator delete
  0000b	83 c4 08	 add	 esp, 8
  0000e	c3		 ret	 0
  0000f	cc		 int	 3
  00010	cc		 int	 3
  00011	cc		 int	 3
  00012	cc		 int	 3
  00013	cc		 int	 3
__ehhandler$?InsertItem@CBarFolder@CGfxOutBarCtrl@@QAEHHPBDHK@Z:
  00014	90		 npad	 1
  00015	90		 npad	 1
  00016	8b 54 24 08	 mov	 edx, DWORD PTR [esp+8]
  0001a	8d 42 0c	 lea	 eax, DWORD PTR [edx+12]
  0001d	8b 4a ec	 mov	 ecx, DWORD PTR [edx-20]
  00020	33 c8		 xor	 ecx, eax
  00022	e8 00 00 00 00	 call	 @__security_check_cookie@4
  00027	b8 00 00 00 00	 mov	 eax, OFFSET __ehfuncinfo$?InsertItem@CBarFolder@CGfxOutBarCtrl@@QAEHHPBDHK@Z
  0002c	e9 00 00 00 00	 jmp	 ___CxxFrameHandler3
text$x	ENDS
?InsertItem@CBarFolder@CGfxOutBarCtrl@@QAEHHPBDHK@Z ENDP ; CGfxOutBarCtrl::CBarFolder::InsertItem
; Function compile flags: /Ogtp
; File D:\git\src\IBK\IBK_DRFN\ProjSrc\SrcDrfn\Chart\comparechart\control\GfxOutBarCtrl.cpp
;	COMDAT ?GetItemCount@CBarFolder@CGfxOutBarCtrl@@QAEHXZ
_TEXT	SEGMENT
?GetItemCount@CBarFolder@CGfxOutBarCtrl@@QAEHXZ PROC	; CGfxOutBarCtrl::CBarFolder::GetItemCount, COMDAT
; _this$ = ecx

; 1605 : 	return arItems.GetSize();

  00000	8b 41 1c	 mov	 eax, DWORD PTR [ecx+28]

; 1606 : }

  00003	c3		 ret	 0
?GetItemCount@CBarFolder@CGfxOutBarCtrl@@QAEHXZ ENDP	; CGfxOutBarCtrl::CBarFolder::GetItemCount
_TEXT	ENDS
; Function compile flags: /Ogtp
; File D:\git\src\IBK\IBK_DRFN\ProjSrc\SrcDrfn\Chart\comparechart\control\GfxOutBarCtrl.cpp
; File C:\Program Files (x86)\Microsoft Visual Studio\2019\Community\VC\Tools\MSVC\14.29.30133\atlmfc\include\afxcoll.inl
; File D:\git\src\IBK\IBK_DRFN\ProjSrc\SrcDrfn\Chart\comparechart\control\GfxOutBarCtrl.cpp
; File C:\Program Files (x86)\Microsoft Visual Studio\2019\Community\VC\Tools\MSVC\14.29.30133\atlmfc\include\afxcoll.inl
; File D:\git\src\IBK\IBK_DRFN\ProjSrc\SrcDrfn\Chart\comparechart\control\GfxOutBarCtrl.cpp
; File C:\Program Files (x86)\Microsoft Visual Studio\2019\Community\VC\Tools\MSVC\14.29.30133\atlmfc\include\afxcoll.inl
; File D:\git\src\IBK\IBK_DRFN\ProjSrc\SrcDrfn\Chart\comparechart\control\GfxOutBarCtrl.cpp
;	COMDAT ?CleanUp@CBarFolder@CGfxOutBarCtrl@@QAEXXZ
_TEXT	SEGMENT
?CleanUp@CBarFolder@CGfxOutBarCtrl@@QAEXXZ PROC		; CGfxOutBarCtrl::CBarFolder::CleanUp, COMDAT
; _this$ = ecx

; 736  : {

  00000	56		 push	 esi
  00001	57		 push	 edi
  00002	8b f9		 mov	 edi, ecx

; 737  : 	if (cName) delete [] cName;

  00004	8b 47 04	 mov	 eax, DWORD PTR [edi+4]
  00007	85 c0		 test	 eax, eax
  00009	74 09		 je	 SHORT $LN5@CleanUp
  0000b	50		 push	 eax
  0000c	e8 00 00 00 00	 call	 ??_V@YAXPAX@Z		; operator delete[]
  00011	83 c4 04	 add	 esp, 4
$LN5@CleanUp:

; 738  : 	for (int t = 0; t < arItems.GetSize(); t++)

  00014	8b 47 1c	 mov	 eax, DWORD PTR [edi+28]
  00017	33 f6		 xor	 esi, esi
  00019	85 c0		 test	 eax, eax
  0001b	7e 23		 jle	 SHORT $LN26@CleanUp
  0001d	0f 1f 00	 npad	 3
$LL4@CleanUp:
; File C:\Program Files (x86)\Microsoft Visual Studio\2019\Community\VC\Tools\MSVC\14.29.30133\atlmfc\include\afxcoll.inl

; 203  : 		if( nIndex < 0 || nIndex >= m_nSize )

  00020	85 f6		 test	 esi, esi
  00022	78 2b		 js	 SHORT $LN22@CleanUp
  00024	3b f0		 cmp	 esi, eax
  00026	7d 27		 jge	 SHORT $LN22@CleanUp
; File D:\git\src\IBK\IBK_DRFN\ProjSrc\SrcDrfn\Chart\comparechart\control\GfxOutBarCtrl.cpp

; 739  : 		if (arItems.GetAt(t)) delete (CBarFolder*) arItems.GetAt(t);

  00028	8b 47 18	 mov	 eax, DWORD PTR [edi+24]
  0002b	8b 0c b0	 mov	 ecx, DWORD PTR [eax+esi*4]
  0002e	85 c9		 test	 ecx, ecx
  00030	74 06		 je	 SHORT $LN2@CleanUp
  00032	8b 01		 mov	 eax, DWORD PTR [ecx]
  00034	6a 01		 push	 1
  00036	ff 10		 call	 DWORD PTR [eax]
$LN2@CleanUp:

; 738  : 	for (int t = 0; t < arItems.GetSize(); t++)

  00038	8b 47 1c	 mov	 eax, DWORD PTR [edi+28]
  0003b	46		 inc	 esi
  0003c	3b f0		 cmp	 esi, eax
  0003e	7c e0		 jl	 SHORT $LL4@CleanUp
$LN26@CleanUp:
; File C:\Program Files (x86)\Microsoft Visual Studio\2019\Community\VC\Tools\MSVC\14.29.30133\atlmfc\include\afxcoll.inl

; 200  : 	{ SetSize(0); }

  00040	6a ff		 push	 -1
  00042	6a 00		 push	 0
  00044	8d 4f 14	 lea	 ecx, DWORD PTR [edi+20]
  00047	e8 00 00 00 00	 call	 ?SetSize@CPtrArray@@QAEXHH@Z ; CPtrArray::SetSize
  0004c	5f		 pop	 edi
  0004d	5e		 pop	 esi
; File D:\git\src\IBK\IBK_DRFN\ProjSrc\SrcDrfn\Chart\comparechart\control\GfxOutBarCtrl.cpp

; 742  : }

  0004e	c3		 ret	 0
$LN22@CleanUp:
; File C:\Program Files (x86)\Microsoft Visual Studio\2019\Community\VC\Tools\MSVC\14.29.30133\atlmfc\include\afxcoll.inl

; 204  : 			AfxThrowInvalidArgException();

  0004f	e8 00 00 00 00	 call	 ?AfxThrowInvalidArgException@@YGXXZ ; AfxThrowInvalidArgException
$LN28@CleanUp:
  00054	cc		 int	 3
?CleanUp@CBarFolder@CGfxOutBarCtrl@@QAEXXZ ENDP		; CGfxOutBarCtrl::CBarFolder::CleanUp
_TEXT	ENDS
; Function compile flags: /Ogtp
; File D:\git\src\IBK\IBK_DRFN\ProjSrc\SrcDrfn\Chart\comparechart\control\GfxOutBarCtrl.cpp
; File C:\Program Files (x86)\Microsoft Visual Studio\2019\Community\VC\Tools\MSVC\14.29.30133\atlmfc\include\afxcoll.inl
; File D:\git\src\IBK\IBK_DRFN\ProjSrc\SrcDrfn\Chart\comparechart\control\GfxOutBarCtrl.cpp
; File C:\Program Files (x86)\Microsoft Visual Studio\2019\Community\VC\Tools\MSVC\14.29.30133\atlmfc\include\afxcoll.inl
; File D:\git\src\IBK\IBK_DRFN\ProjSrc\SrcDrfn\Chart\comparechart\control\GfxOutBarCtrl.cpp
; File C:\Program Files (x86)\Microsoft Visual Studio\2019\Community\VC\Tools\MSVC\14.29.30133\atlmfc\include\afxcoll.inl
; File D:\git\src\IBK\IBK_DRFN\ProjSrc\SrcDrfn\Chart\comparechart\control\GfxOutBarCtrl.cpp
;	COMDAT ??1CBarFolder@CGfxOutBarCtrl@@UAE@XZ
_TEXT	SEGMENT
__$EHRec$ = -12						; size = 12
??1CBarFolder@CGfxOutBarCtrl@@UAE@XZ PROC		; CGfxOutBarCtrl::CBarFolder::~CBarFolder, COMDAT
; _this$ = ecx

; 727  : {

  00000	55		 push	 ebp
  00001	8b ec		 mov	 ebp, esp
  00003	6a ff		 push	 -1
  00005	68 00 00 00 00	 push	 __ehhandler$??1CBarFolder@CGfxOutBarCtrl@@UAE@XZ
  0000a	64 a1 00 00 00
	00		 mov	 eax, DWORD PTR fs:0
  00010	50		 push	 eax
  00011	56		 push	 esi
  00012	57		 push	 edi
  00013	a1 00 00 00 00	 mov	 eax, DWORD PTR ___security_cookie
  00018	33 c5		 xor	 eax, ebp
  0001a	50		 push	 eax
  0001b	8d 45 f4	 lea	 eax, DWORD PTR __$EHRec$[ebp]
  0001e	64 a3 00 00 00
	00		 mov	 DWORD PTR fs:0, eax
  00024	8b f9		 mov	 edi, ecx

; 728  : 	if (cName) delete [] cName;

  00026	8b 47 04	 mov	 eax, DWORD PTR [edi+4]
  00029	c7 07 00 00 00
	00		 mov	 DWORD PTR [edi], OFFSET ??_7CBarFolder@CGfxOutBarCtrl@@6B@
  0002f	85 c0		 test	 eax, eax
  00031	74 09		 je	 SHORT $LN5@CBarFolder
  00033	50		 push	 eax
  00034	e8 00 00 00 00	 call	 ??_V@YAXPAX@Z		; operator delete[]
  00039	83 c4 04	 add	 esp, 4
$LN5@CBarFolder:

; 729  : 	for (int t = 0; t < arItems.GetSize(); t++)

  0003c	8b 57 1c	 mov	 edx, DWORD PTR [edi+28]
  0003f	33 f6		 xor	 esi, esi
  00041	85 d2		 test	 edx, edx
  00043	7e 20		 jle	 SHORT $LN26@CBarFolder
$LL4@CBarFolder:
; File C:\Program Files (x86)\Microsoft Visual Studio\2019\Community\VC\Tools\MSVC\14.29.30133\atlmfc\include\afxcoll.inl

; 203  : 		if( nIndex < 0 || nIndex >= m_nSize )

  00045	85 f6		 test	 esi, esi
  00047	78 41		 js	 SHORT $LN22@CBarFolder
  00049	3b f2		 cmp	 esi, edx
  0004b	7d 3d		 jge	 SHORT $LN22@CBarFolder
; File D:\git\src\IBK\IBK_DRFN\ProjSrc\SrcDrfn\Chart\comparechart\control\GfxOutBarCtrl.cpp

; 730  : 		if (arItems.GetAt(t)) delete (CBarFolder*) arItems.GetAt(t);

  0004d	8b 47 18	 mov	 eax, DWORD PTR [edi+24]
  00050	8b 0c b0	 mov	 ecx, DWORD PTR [eax+esi*4]
  00053	85 c9		 test	 ecx, ecx
  00055	74 09		 je	 SHORT $LN2@CBarFolder
  00057	8b 01		 mov	 eax, DWORD PTR [ecx]
  00059	6a 01		 push	 1
  0005b	ff 10		 call	 DWORD PTR [eax]
  0005d	8b 57 1c	 mov	 edx, DWORD PTR [edi+28]
$LN2@CBarFolder:

; 729  : 	for (int t = 0; t < arItems.GetSize(); t++)

  00060	46		 inc	 esi
  00061	3b f2		 cmp	 esi, edx
  00063	7c e0		 jl	 SHORT $LL4@CBarFolder
$LN26@CBarFolder:
; File C:\Program Files (x86)\Microsoft Visual Studio\2019\Community\VC\Tools\MSVC\14.29.30133\atlmfc\include\afxcoll.inl

; 200  : 	{ SetSize(0); }

  00065	6a ff		 push	 -1
  00067	6a 00		 push	 0
  00069	8d 4f 14	 lea	 ecx, DWORD PTR [edi+20]
  0006c	e8 00 00 00 00	 call	 ?SetSize@CPtrArray@@QAEXHH@Z ; CPtrArray::SetSize
; File D:\git\src\IBK\IBK_DRFN\ProjSrc\SrcDrfn\Chart\comparechart\control\GfxOutBarCtrl.cpp

; 733  : }

  00071	8d 4f 14	 lea	 ecx, DWORD PTR [edi+20]
  00074	e8 00 00 00 00	 call	 ??1CPtrArray@@UAE@XZ	; CPtrArray::~CPtrArray
  00079	8b 4d f4	 mov	 ecx, DWORD PTR __$EHRec$[ebp]
  0007c	64 89 0d 00 00
	00 00		 mov	 DWORD PTR fs:0, ecx
  00083	59		 pop	 ecx
  00084	5f		 pop	 edi
  00085	5e		 pop	 esi
  00086	8b e5		 mov	 esp, ebp
  00088	5d		 pop	 ebp
  00089	c3		 ret	 0
$LN22@CBarFolder:
; File C:\Program Files (x86)\Microsoft Visual Studio\2019\Community\VC\Tools\MSVC\14.29.30133\atlmfc\include\afxcoll.inl

; 204  : 			AfxThrowInvalidArgException();

  0008a	e8 00 00 00 00	 call	 ?AfxThrowInvalidArgException@@YGXXZ ; AfxThrowInvalidArgException
$LN29@CBarFolder:
  0008f	cc		 int	 3
  00090	cc		 int	 3
  00091	cc		 int	 3
  00092	cc		 int	 3
  00093	cc		 int	 3
  00094	cc		 int	 3
_TEXT	ENDS
;	COMDAT text$x
text$x	SEGMENT
__ehhandler$??1CBarFolder@CGfxOutBarCtrl@@UAE@XZ:
  00000	90		 npad	 1
  00001	90		 npad	 1
  00002	8b 54 24 08	 mov	 edx, DWORD PTR [esp+8]
  00006	8d 42 0c	 lea	 eax, DWORD PTR [edx+12]
  00009	8b 4a f4	 mov	 ecx, DWORD PTR [edx-12]
  0000c	33 c8		 xor	 ecx, eax
  0000e	e8 00 00 00 00	 call	 @__security_check_cookie@4
  00013	b8 00 00 00 00	 mov	 eax, OFFSET __ehfuncinfo$??1CBarFolder@CGfxOutBarCtrl@@UAE@XZ
  00018	e9 00 00 00 00	 jmp	 ___CxxFrameHandler3
text$x	ENDS
??1CBarFolder@CGfxOutBarCtrl@@UAE@XZ ENDP		; CGfxOutBarCtrl::CBarFolder::~CBarFolder
; Function compile flags: /Ogtp
; File D:\git\src\IBK\IBK_DRFN\ProjSrc\SrcDrfn\Chart\comparechart\control\GfxOutBarCtrl.cpp
;	COMDAT ??0CBarFolder@CGfxOutBarCtrl@@QAE@PBDK@Z
_TEXT	SEGMENT
_this$ = -16						; size = 4
__$EHRec$ = -12						; size = 12
_name$ = 8						; size = 4
_exData$ = 12						; size = 4
??0CBarFolder@CGfxOutBarCtrl@@QAE@PBDK@Z PROC		; CGfxOutBarCtrl::CBarFolder::CBarFolder, COMDAT
; _this$ = ecx

; 711  : {

  00000	55		 push	 ebp
  00001	8b ec		 mov	 ebp, esp
  00003	6a ff		 push	 -1
  00005	68 00 00 00 00	 push	 __ehhandler$??0CBarFolder@CGfxOutBarCtrl@@QAE@PBDK@Z
  0000a	64 a1 00 00 00
	00		 mov	 eax, DWORD PTR fs:0
  00010	50		 push	 eax
  00011	51		 push	 ecx
  00012	56		 push	 esi
  00013	57		 push	 edi
  00014	a1 00 00 00 00	 mov	 eax, DWORD PTR ___security_cookie
  00019	33 c5		 xor	 eax, ebp
  0001b	50		 push	 eax
  0001c	8d 45 f4	 lea	 eax, DWORD PTR __$EHRec$[ebp]
  0001f	64 a3 00 00 00
	00		 mov	 DWORD PTR fs:0, eax
  00025	8b f1		 mov	 esi, ecx
  00027	89 75 f0	 mov	 DWORD PTR _this$[ebp], esi
  0002a	8d 4e 14	 lea	 ecx, DWORD PTR [esi+20]
  0002d	c7 06 00 00 00
	00		 mov	 DWORD PTR [esi], OFFSET ??_7CBarFolder@CGfxOutBarCtrl@@6B@
  00033	e8 00 00 00 00	 call	 ??0CPtrArray@@QAE@XZ	; CPtrArray::CPtrArray

; 712  : 	cName = NULL;
; 713  : 	dwData = exData;
; 714  : 
; 715  : 	if (name)

  00038	8b 7d 08	 mov	 edi, DWORD PTR _name$[ebp]
  0003b	8b 45 0c	 mov	 eax, DWORD PTR _exData$[ebp]
  0003e	c7 45 fc 00 00
	00 00		 mov	 DWORD PTR __$EHRec$[ebp+8], 0
  00045	c7 46 04 00 00
	00 00		 mov	 DWORD PTR [esi+4], 0
  0004c	89 46 08	 mov	 DWORD PTR [esi+8], eax
  0004f	85 ff		 test	 edi, edi
  00051	74 1c		 je	 SHORT $LN2@CBarFolder

; 716  : 	{
; 717  : 		cName = new char[lstrlen(name)+1];

  00053	57		 push	 edi
  00054	ff 15 00 00 00
	00		 call	 DWORD PTR __imp__lstrlenA@4
  0005a	40		 inc	 eax
  0005b	50		 push	 eax
  0005c	e8 00 00 00 00	 call	 ??_U@YAPAXI@Z		; operator new[]
  00061	83 c4 04	 add	 esp, 4
  00064	89 46 04	 mov	 DWORD PTR [esi+4], eax

; 718  : 		ASSERT(cName);
; 719  : 		lstrcpy(cName, name);

  00067	57		 push	 edi
  00068	50		 push	 eax
  00069	ff 15 00 00 00
	00		 call	 DWORD PTR __imp__lstrcpyA@8
$LN2@CBarFolder:

; 720  : 	}
; 721  : 	pLargeImageList = NULL;

  0006f	c7 46 0c 00 00
	00 00		 mov	 DWORD PTR [esi+12], 0

; 722  : 	pSmallImageList = NULL;
; 723  : 	pChild = NULL;
; 724  : }

  00076	8b c6		 mov	 eax, esi
  00078	c7 46 10 00 00
	00 00		 mov	 DWORD PTR [esi+16], 0
  0007f	c7 46 28 00 00
	00 00		 mov	 DWORD PTR [esi+40], 0
  00086	8b 4d f4	 mov	 ecx, DWORD PTR __$EHRec$[ebp]
  00089	64 89 0d 00 00
	00 00		 mov	 DWORD PTR fs:0, ecx
  00090	59		 pop	 ecx
  00091	5f		 pop	 edi
  00092	5e		 pop	 esi
  00093	8b e5		 mov	 esp, ebp
  00095	5d		 pop	 ebp
  00096	c2 08 00	 ret	 8
_TEXT	ENDS
;	COMDAT text$x
text$x	SEGMENT
__unwindfunclet$??0CBarFolder@CGfxOutBarCtrl@@QAE@PBDK@Z$0:
  00000	8b 4d f0	 mov	 ecx, DWORD PTR _this$[ebp]
  00003	83 c1 14	 add	 ecx, 20			; 00000014H
  00006	e9 00 00 00 00	 jmp	 ??1CPtrArray@@UAE@XZ	; CPtrArray::~CPtrArray
  0000b	cc		 int	 3
  0000c	cc		 int	 3
  0000d	cc		 int	 3
  0000e	cc		 int	 3
  0000f	cc		 int	 3
__ehhandler$??0CBarFolder@CGfxOutBarCtrl@@QAE@PBDK@Z:
  00010	90		 npad	 1
  00011	90		 npad	 1
  00012	8b 54 24 08	 mov	 edx, DWORD PTR [esp+8]
  00016	8d 42 0c	 lea	 eax, DWORD PTR [edx+12]
  00019	8b 4a f0	 mov	 ecx, DWORD PTR [edx-16]
  0001c	33 c8		 xor	 ecx, eax
  0001e	e8 00 00 00 00	 call	 @__security_check_cookie@4
  00023	b8 00 00 00 00	 mov	 eax, OFFSET __ehfuncinfo$??0CBarFolder@CGfxOutBarCtrl@@QAE@PBDK@Z
  00028	e9 00 00 00 00	 jmp	 ___CxxFrameHandler3
text$x	ENDS
??0CBarFolder@CGfxOutBarCtrl@@QAE@PBDK@Z ENDP		; CGfxOutBarCtrl::CBarFolder::CBarFolder
; Function compile flags: /Ogtp
; File D:\git\src\IBK\IBK_DRFN\ProjSrc\SrcDrfn\Chart\comparechart\control\GfxOutBarCtrl.cpp
;	COMDAT ??_GCBarItem@CGfxOutBarCtrl@@UAEPAXI@Z
_TEXT	SEGMENT
___flags$ = 8						; size = 4
??_GCBarItem@CGfxOutBarCtrl@@UAEPAXI@Z PROC		; CGfxOutBarCtrl::CBarItem::`scalar deleting destructor', COMDAT
; _this$ = ecx
  00000	55		 push	 ebp
  00001	8b ec		 mov	 ebp, esp

; 1599 : {

  00003	56		 push	 esi
  00004	8b f1		 mov	 esi, ecx

; 1600 : 	if (cItem) delete [] cItem;

  00006	8b 46 08	 mov	 eax, DWORD PTR [esi+8]
  00009	c7 06 00 00 00
	00		 mov	 DWORD PTR [esi], OFFSET ??_7CBarItem@CGfxOutBarCtrl@@6B@
  0000f	85 c0		 test	 eax, eax
  00011	74 09		 je	 SHORT $LN5@scalar
  00013	50		 push	 eax
  00014	e8 00 00 00 00	 call	 ??_V@YAXPAX@Z		; operator delete[]
  00019	83 c4 04	 add	 esp, 4
$LN5@scalar:
  0001c	f6 45 08 01	 test	 BYTE PTR ___flags$[ebp], 1
  00020	74 0b		 je	 SHORT $LN7@scalar
  00022	6a 10		 push	 16			; 00000010H
  00024	56		 push	 esi
  00025	e8 00 00 00 00	 call	 ??3@YAXPAXI@Z		; operator delete
  0002a	83 c4 08	 add	 esp, 8
$LN7@scalar:
  0002d	8b c6		 mov	 eax, esi
  0002f	5e		 pop	 esi
  00030	5d		 pop	 ebp
  00031	c2 04 00	 ret	 4
??_GCBarItem@CGfxOutBarCtrl@@UAEPAXI@Z ENDP		; CGfxOutBarCtrl::CBarItem::`scalar deleting destructor'
_TEXT	ENDS
; Function compile flags: /Ogtp
; File D:\git\src\IBK\IBK_DRFN\ProjSrc\SrcDrfn\Chart\comparechart\control\GfxOutBarCtrl.cpp
;	COMDAT ??1CBarItem@CGfxOutBarCtrl@@UAE@XZ
_TEXT	SEGMENT
??1CBarItem@CGfxOutBarCtrl@@UAE@XZ PROC			; CGfxOutBarCtrl::CBarItem::~CBarItem, COMDAT
; _this$ = ecx

; 1600 : 	if (cItem) delete [] cItem;

  00000	8b 41 08	 mov	 eax, DWORD PTR [ecx+8]
  00003	c7 01 00 00 00
	00		 mov	 DWORD PTR [ecx], OFFSET ??_7CBarItem@CGfxOutBarCtrl@@6B@
  00009	85 c0		 test	 eax, eax
  0000b	74 07		 je	 SHORT $LN2@CBarItem
  0000d	50		 push	 eax
  0000e	e8 00 00 00 00	 call	 ??_V@YAXPAX@Z		; operator delete[]
  00013	59		 pop	 ecx
$LN2@CBarItem:

; 1601 : }

  00014	c3		 ret	 0
??1CBarItem@CGfxOutBarCtrl@@UAE@XZ ENDP			; CGfxOutBarCtrl::CBarItem::~CBarItem
_TEXT	ENDS
; Function compile flags: /Ogtp
; File D:\git\src\IBK\IBK_DRFN\ProjSrc\SrcDrfn\Chart\comparechart\control\GfxOutBarCtrl.cpp
;	COMDAT ??0CBarItem@CGfxOutBarCtrl@@QAE@PBDHK@Z
_TEXT	SEGMENT
_name$ = 8						; size = 4
_image$ = 12						; size = 4
_exData$ = 16						; size = 4
??0CBarItem@CGfxOutBarCtrl@@QAE@PBDHK@Z PROC		; CGfxOutBarCtrl::CBarItem::CBarItem, COMDAT
; _this$ = ecx

; 1586 : {

  00000	55		 push	 ebp
  00001	8b ec		 mov	 ebp, esp

; 1587 : 	cItem = NULL;
; 1588 : 	iImageIndex = image;

  00003	8b 45 0c	 mov	 eax, DWORD PTR _image$[ebp]
  00006	56		 push	 esi
  00007	8b f1		 mov	 esi, ecx
  00009	57		 push	 edi

; 1589 : 	dwData = exData;
; 1590 : 	if (name)

  0000a	8b 7d 08	 mov	 edi, DWORD PTR _name$[ebp]
  0000d	89 46 04	 mov	 DWORD PTR [esi+4], eax
  00010	8b 45 10	 mov	 eax, DWORD PTR _exData$[ebp]
  00013	c7 06 00 00 00
	00		 mov	 DWORD PTR [esi], OFFSET ??_7CBarItem@CGfxOutBarCtrl@@6B@
  00019	c7 46 08 00 00
	00 00		 mov	 DWORD PTR [esi+8], 0
  00020	89 46 0c	 mov	 DWORD PTR [esi+12], eax
  00023	85 ff		 test	 edi, edi
  00025	74 1c		 je	 SHORT $LN4@CBarItem

; 1591 : 	{
; 1592 : 		cItem = new char[lstrlen(name)+1];

  00027	57		 push	 edi
  00028	ff 15 00 00 00
	00		 call	 DWORD PTR __imp__lstrlenA@4
  0002e	40		 inc	 eax
  0002f	50		 push	 eax
  00030	e8 00 00 00 00	 call	 ??_U@YAPAXI@Z		; operator new[]
  00035	83 c4 04	 add	 esp, 4
  00038	89 46 08	 mov	 DWORD PTR [esi+8], eax

; 1593 : 		ASSERT(cItem);
; 1594 : 		lstrcpy(cItem, name);

  0003b	57		 push	 edi
  0003c	50		 push	 eax
  0003d	ff 15 00 00 00
	00		 call	 DWORD PTR __imp__lstrcpyA@8
$LN4@CBarItem:

; 1595 : 	}
; 1596 : }

  00043	5f		 pop	 edi
  00044	8b c6		 mov	 eax, esi
  00046	5e		 pop	 esi
  00047	5d		 pop	 ebp
  00048	c2 0c 00	 ret	 12			; 0000000cH
??0CBarItem@CGfxOutBarCtrl@@QAE@PBDHK@Z ENDP		; CGfxOutBarCtrl::CBarItem::CBarItem
_TEXT	ENDS
; Function compile flags: /Ogtp
; File D:\git\src\IBK\IBK_DRFN\ProjSrc\SrcDrfn\Chart\comparechart\control\GfxOutBarCtrl.cpp
; File C:\Program Files (x86)\Microsoft Visual Studio\2019\Community\VC\Tools\MSVC\14.29.30133\atlmfc\include\atltypes.h
; File D:\git\src\IBK\IBK_DRFN\ProjSrc\SrcDrfn\Chart\comparechart\control\GfxOutBarCtrl.cpp
; File C:\Program Files (x86)\Microsoft Visual Studio\2019\Community\VC\Tools\MSVC\14.29.30133\atlmfc\include\atltypes.h
; File D:\git\src\IBK\IBK_DRFN\ProjSrc\SrcDrfn\Chart\comparechart\control\GfxOutBarCtrl.cpp
; File C:\Program Files (x86)\Microsoft Visual Studio\2019\Community\VC\Tools\MSVC\14.29.30133\atlmfc\include\afxwin1.inl
; File D:\git\src\IBK\IBK_DRFN\ProjSrc\SrcDrfn\Chart\comparechart\control\GfxOutBarCtrl.cpp
; File C:\Program Files (x86)\Microsoft Visual Studio\2019\Community\VC\Tools\MSVC\14.29.30133\atlmfc\include\afxwin1.inl
; File D:\git\src\IBK\IBK_DRFN\ProjSrc\SrcDrfn\Chart\comparechart\control\GfxOutBarCtrl.cpp
; File C:\Program Files (x86)\Microsoft Visual Studio\2019\Community\VC\Tools\MSVC\14.29.30133\atlmfc\include\afxwin1.inl
; File D:\git\src\IBK\IBK_DRFN\ProjSrc\SrcDrfn\Chart\comparechart\control\GfxOutBarCtrl.cpp
; File C:\Program Files (x86)\Microsoft Visual Studio\2019\Community\VC\Tools\MSVC\14.29.30133\atlmfc\include\afxwin1.inl
; File D:\git\src\IBK\IBK_DRFN\ProjSrc\SrcDrfn\Chart\comparechart\control\GfxOutBarCtrl.cpp
; File C:\Program Files (x86)\Microsoft Visual Studio\2019\Community\VC\Tools\MSVC\14.29.30133\atlmfc\include\afx.inl
; File D:\git\src\IBK\IBK_DRFN\ProjSrc\SrcDrfn\Chart\comparechart\control\GfxOutBarCtrl.cpp
; File C:\Program Files (x86)\Microsoft Visual Studio\2019\Community\VC\Tools\MSVC\14.29.30133\atlmfc\include\afx.inl
; File D:\git\src\IBK\IBK_DRFN\ProjSrc\SrcDrfn\Chart\comparechart\control\GfxOutBarCtrl.cpp
; File C:\Program Files (x86)\Microsoft Visual Studio\2019\Community\VC\Tools\MSVC\14.29.30133\atlmfc\include\afxwin1.inl
; File C:\Program Files (x86)\Microsoft Visual Studio\2019\Community\VC\Tools\MSVC\14.29.30133\atlmfc\include\afxwin2.inl
; File D:\git\src\IBK\IBK_DRFN\ProjSrc\SrcDrfn\Chart\comparechart\control\GfxOutBarCtrl.cpp
; File C:\Program Files (x86)\Microsoft Visual Studio\2019\Community\VC\Tools\MSVC\14.29.30133\atlmfc\include\afxwin1.inl
; File C:\Program Files (x86)\Microsoft Visual Studio\2019\Community\VC\Tools\MSVC\14.29.30133\atlmfc\include\afxwin2.inl
; File D:\git\src\IBK\IBK_DRFN\ProjSrc\SrcDrfn\Chart\comparechart\control\GfxOutBarCtrl.cpp
; File C:\Program Files (x86)\Microsoft Visual Studio\2019\Community\VC\Tools\MSVC\14.29.30133\atlmfc\include\afxwin1.inl
; File C:\Program Files (x86)\Microsoft Visual Studio\2019\Community\VC\Tools\MSVC\14.29.30133\atlmfc\include\afxwin2.inl
; File D:\git\src\IBK\IBK_DRFN\ProjSrc\SrcDrfn\Chart\comparechart\control\GfxOutBarCtrl.cpp
; File C:\Program Files (x86)\Microsoft Visual Studio\2019\Community\VC\Tools\MSVC\14.29.30133\atlmfc\include\afxwin1.inl
; File D:\git\src\IBK\IBK_DRFN\ProjSrc\SrcDrfn\Chart\comparechart\control\GfxOutBarCtrl.cpp
;	COMDAT ??0CGfxOutBarCtrl@@QAE@XZ
_TEXT	SEGMENT
$T2 = -24						; size = 4
_this$ = -20						; size = 4
_hInstResourceClient$1$ = -16				; size = 4
__$EHRec$ = -12						; size = 12
??0CGfxOutBarCtrl@@QAE@XZ PROC				; CGfxOutBarCtrl::CGfxOutBarCtrl, COMDAT
; _this$ = ecx

; 38   : {

  00000	55		 push	 ebp
  00001	8b ec		 mov	 ebp, esp
  00003	6a ff		 push	 -1
  00005	68 00 00 00 00	 push	 __ehhandler$??0CGfxOutBarCtrl@@QAE@XZ
  0000a	64 a1 00 00 00
	00		 mov	 eax, DWORD PTR fs:0
  00010	50		 push	 eax
  00011	83 ec 0c	 sub	 esp, 12			; 0000000cH
  00014	56		 push	 esi
  00015	57		 push	 edi
  00016	a1 00 00 00 00	 mov	 eax, DWORD PTR ___security_cookie
  0001b	33 c5		 xor	 eax, ebp
  0001d	50		 push	 eax
  0001e	8d 45 f4	 lea	 eax, DWORD PTR __$EHRec$[ebp]
  00021	64 a3 00 00 00
	00		 mov	 DWORD PTR fs:0, eax
  00027	8b f9		 mov	 edi, ecx
  00029	89 7d ec	 mov	 DWORD PTR _this$[ebp], edi
  0002c	e8 00 00 00 00	 call	 ??0CWnd@@QAE@XZ		; CWnd::CWnd
  00031	c7 07 00 00 00
	00		 mov	 DWORD PTR [edi], OFFSET ??_7CGfxOutBarCtrl@@6B@
  00037	8d 8f 04 01 00
	00		 lea	 ecx, DWORD PTR [edi+260]
; File C:\Program Files (x86)\Microsoft Visual Studio\2019\Community\VC\Tools\MSVC\14.29.30133\atlmfc\include\atltypes.h

; 528  : 	left = 0;

  0003d	c7 87 c4 00 00
	00 00 00 00 00	 mov	 DWORD PTR [edi+196], 0

; 529  : 	top = 0;

  00047	c7 87 c8 00 00
	00 00 00 00 00	 mov	 DWORD PTR [edi+200], 0

; 530  : 	right = 0;

  00051	c7 87 cc 00 00
	00 00 00 00 00	 mov	 DWORD PTR [edi+204], 0

; 531  : 	bottom = 0;

  0005b	c7 87 d0 00 00
	00 00 00 00 00	 mov	 DWORD PTR [edi+208], 0
; File D:\git\src\IBK\IBK_DRFN\ProjSrc\SrcDrfn\Chart\comparechart\control\GfxOutBarCtrl.cpp

; 38   : {

  00065	c7 45 fc 00 00
	00 00		 mov	 DWORD PTR __$EHRec$[ebp+8], 0
; File C:\Program Files (x86)\Microsoft Visual Studio\2019\Community\VC\Tools\MSVC\14.29.30133\atlmfc\include\atltypes.h

; 528  : 	left = 0;

  0006c	c7 87 d4 00 00
	00 00 00 00 00	 mov	 DWORD PTR [edi+212], 0

; 529  : 	top = 0;

  00076	c7 87 d8 00 00
	00 00 00 00 00	 mov	 DWORD PTR [edi+216], 0

; 530  : 	right = 0;

  00080	c7 87 dc 00 00
	00 00 00 00 00	 mov	 DWORD PTR [edi+220], 0

; 531  : 	bottom = 0;

  0008a	c7 87 e0 00 00
	00 00 00 00 00	 mov	 DWORD PTR [edi+224], 0
; File D:\git\src\IBK\IBK_DRFN\ProjSrc\SrcDrfn\Chart\comparechart\control\GfxOutBarCtrl.cpp

; 38   : {

  00094	e8 00 00 00 00	 call	 ??0CPtrArray@@QAE@XZ	; CPtrArray::CPtrArray
; File C:\Program Files (x86)\Microsoft Visual Studio\2019\Community\VC\Tools\MSVC\14.29.30133\atlmfc\include\afxwin1.inl

; 70   : 	{ m_hObject = NULL; }

  00099	c7 87 58 01 00
	00 00 00 00 00	 mov	 DWORD PTR [edi+344], 0

; 153  : 	{ }

  000a3	c7 87 54 01 00
	00 00 00 00 00	 mov	 DWORD PTR [edi+340], OFFSET ??_7CFont@@6B@
; File D:\git\src\IBK\IBK_DRFN\ProjSrc\SrcDrfn\Chart\comparechart\control\GfxOutBarCtrl.cpp

; 38   : {

  000ad	c6 45 fc 02	 mov	 BYTE PTR __$EHRec$[ebp+8], 2
; File C:\Program Files (x86)\Microsoft Visual Studio\2019\Community\VC\Tools\MSVC\14.29.30133\atlmfc\include\afxwin1.inl

; 25   : 		return afxCurrentResourceHandle; }

  000b1	e8 00 00 00 00	 call	 ?AfxGetModuleState@@YGPAVAFX_MODULE_STATE@@XZ ; AfxGetModuleState
; File D:\git\src\IBK\IBK_DRFN\ProjSrc\SrcDrfn\Chart\comparechart\control\GfxOutBarCtrl.cpp

; 41   : 	AfxSetResourceHandle(g_hInstance);

  000b6	8b 35 00 00 00
	00		 mov	 esi, DWORD PTR ?g_hInstance@@3PAUHINSTANCE__@@A ; g_hInstance
; File C:\Program Files (x86)\Microsoft Visual Studio\2019\Community\VC\Tools\MSVC\14.29.30133\atlmfc\include\afxwin1.inl

; 25   : 		return afxCurrentResourceHandle; }

  000bc	8b 40 0c	 mov	 eax, DWORD PTR [eax+12]
  000bf	89 45 f0	 mov	 DWORD PTR _hInstResourceClient$1$[ebp], eax

; 27   : 	{ ASSERT(hInstResource != NULL); afxCurrentResourceHandle = hInstResource; }

  000c2	e8 00 00 00 00	 call	 ?AfxGetModuleState@@YGPAVAFX_MODULE_STATE@@XZ ; AfxGetModuleState
; File D:\git\src\IBK\IBK_DRFN\ProjSrc\SrcDrfn\Chart\comparechart\control\GfxOutBarCtrl.cpp

; 43   : 	crBackGroundColor = GetSysColor(COLOR_BACKGROUND);//RGB(0,128,128);//

  000c7	6a 01		 push	 1
; File C:\Program Files (x86)\Microsoft Visual Studio\2019\Community\VC\Tools\MSVC\14.29.30133\atlmfc\include\afxwin1.inl

; 27   : 	{ ASSERT(hInstResource != NULL); afxCurrentResourceHandle = hInstResource; }

  000c9	89 70 0c	 mov	 DWORD PTR [eax+12], esi
; File D:\git\src\IBK\IBK_DRFN\ProjSrc\SrcDrfn\Chart\comparechart\control\GfxOutBarCtrl.cpp

; 43   : 	crBackGroundColor = GetSysColor(COLOR_BACKGROUND);//RGB(0,128,128);//

  000cc	8b 35 00 00 00
	00		 mov	 esi, DWORD PTR __imp__GetSysColor@4
  000d2	ff d6		 call	 esi

; 44   : 	crBackGroundColor1 = RGB(143,155,178);
; 45   : 	crTextColor = GetSysColor(COLOR_WINDOW);

  000d4	6a 05		 push	 5
  000d6	89 87 80 00 00
	00		 mov	 DWORD PTR [edi+128], eax
  000dc	c7 87 84 00 00
	00 8f 9b b2 00	 mov	 DWORD PTR [edi+132], 11705231 ; 00b29b8fH
  000e6	ff d6		 call	 esi

; 46   : 	
; 47   : 	
; 48   : 	//cr3dFace = GetSysColor(COLOR_3DFACE);
; 49   : 	cr3dFace = RGB(255,255,0);
; 50   : 	cr3dUnFace = GetSysColor(COLOR_3DFACE);

  000e8	6a 0f		 push	 15			; 0000000fH
  000ea	89 87 88 00 00
	00		 mov	 DWORD PTR [edi+136], eax
  000f0	c7 87 90 00 00
	00 ff ff 00 00	 mov	 DWORD PTR [edi+144], 65535 ; 0000ffffH
  000fa	ff d6		 call	 esi

; 51   : 
; 52   : 	crTextColor = RGB(255,255,255);
; 53   : 	crHilightBorder = GetSysColor(COLOR_3DHILIGHT);

  000fc	6a 14		 push	 20			; 00000014H
  000fe	89 87 94 00 00
	00		 mov	 DWORD PTR [edi+148], eax
  00104	c7 87 88 00 00
	00 ff ff ff 00	 mov	 DWORD PTR [edi+136], 16777215 ; 00ffffffH
  0010e	ff d6		 call	 esi

; 55   : 	crDkShadowBorder = GetSysColor(COLOR_3DDKSHADOW); // 

  00110	6a 15		 push	 21			; 00000015H
  00112	89 87 98 00 00
	00		 mov	 DWORD PTR [edi+152], eax
  00118	ff d6		 call	 esi
; File C:\Program Files (x86)\Microsoft Visual Studio\2019\Community\VC\Tools\MSVC\14.29.30133\atlmfc\include\afx.inl

; 116  : 	{ return ::operator new(nSize); }

  0011a	6a 08		 push	 8
; File D:\git\src\IBK\IBK_DRFN\ProjSrc\SrcDrfn\Chart\comparechart\control\GfxOutBarCtrl.cpp

; 55   : 	crDkShadowBorder = GetSysColor(COLOR_3DDKSHADOW); // 

  0011c	89 87 9c 00 00
	00		 mov	 DWORD PTR [edi+156], eax
; File C:\Program Files (x86)\Microsoft Visual Studio\2019\Community\VC\Tools\MSVC\14.29.30133\atlmfc\include\afx.inl

; 116  : 	{ return ::operator new(nSize); }

  00122	e8 00 00 00 00	 call	 ??2@YAPAXI@Z		; operator new
  00127	83 c4 04	 add	 esp, 4
; File D:\git\src\IBK\IBK_DRFN\ProjSrc\SrcDrfn\Chart\comparechart\control\GfxOutBarCtrl.cpp

; 58   : 	pBlackPen = new CPen(PS_SOLID, 1, RGB(143,155,178));

  0012a	89 45 e8	 mov	 DWORD PTR $T2[ebp], eax
  0012d	c6 45 fc 03	 mov	 BYTE PTR __$EHRec$[ebp+8], 3
  00131	85 c0		 test	 eax, eax
  00133	74 12		 je	 SHORT $LN3@CGfxOutBar
  00135	68 8f 9b b2 00	 push	 11705231		; 00b29b8fH
  0013a	6a 01		 push	 1
  0013c	6a 00		 push	 0
  0013e	8b c8		 mov	 ecx, eax
  00140	e8 00 00 00 00	 call	 ??0CPen@@QAE@HHK@Z	; CPen::CPen
  00145	eb 02		 jmp	 SHORT $LN4@CGfxOutBar
$LN3@CGfxOutBar:
  00147	33 c0		 xor	 eax, eax
$LN4@CGfxOutBar:
  00149	c6 45 fc 02	 mov	 BYTE PTR __$EHRec$[ebp+8], 2
  0014d	89 87 4c 01 00
	00		 mov	 DWORD PTR [edi+332], eax

; 59   : 
; 60   : 	iFolderHeight = 21;

  00153	c7 87 a0 00 00
	00 15 00 00 00	 mov	 DWORD PTR [edi+160], 21	; 00000015H

; 61   : 	iGap = 0;

  0015d	c7 87 a4 00 00
	00 00 00 00 00	 mov	 DWORD PTR [edi+164], 0

; 62   : 
; 63   : 	dwFlags = fDragItems|fEditGroups|fEditItems|fRemoveGroups|fRemoveItems|fAddGroups|fAnimation|fSelHighlight;

  00167	c7 87 00 01 00
	00 fc 03 00 00	 mov	 DWORD PTR [edi+256], 1020 ; 000003fcH

; 64   : 
; 65   : 	iSelFolder = 0;

  00171	c7 87 34 01 00
	00 00 00 00 00	 mov	 DWORD PTR [edi+308], 0

; 66   : 
; 67   : 	iLastFolderHighlighted = -1;

  0017b	c7 87 18 01 00
	00 ff ff ff ff	 mov	 DWORD PTR [edi+280], -1

; 68   : 	iLastSelectedFolder = -1;

  00185	c7 87 1c 01 00
	00 ff ff ff ff	 mov	 DWORD PTR [edi+284], -1

; 69   : 	
; 70   : 	pLargeImageList = NULL;

  0018f	c7 87 38 01 00
	00 00 00 00 00	 mov	 DWORD PTR [edi+312], 0

; 71   : 	pSmallImageList = NULL;

  00199	c7 87 3c 01 00
	00 00 00 00 00	 mov	 DWORD PTR [edi+316], 0

; 72   : 
; 73   : 	iFirstItem = 0;

  001a3	c7 87 20 01 00
	00 00 00 00 00	 mov	 DWORD PTR [edi+288], 0

; 74   : 
; 75   : 	xSmallIconLabelOffset = 4;

  001ad	c7 87 a8 00 00
	00 04 00 00 00	 mov	 DWORD PTR [edi+168], 4

; 76   : 	yLargeIconLabelOffset = 3;

  001b7	c7 87 ac 00 00
	00 03 00 00 00	 mov	 DWORD PTR [edi+172], 3

; 77   : 
; 78   : 	ySmallIconSpacing = 10;

  001c1	c7 87 b0 00 00
	00 0a 00 00 00	 mov	 DWORD PTR [edi+176], 10	; 0000000aH

; 79   : 	yLargeIconSpacing = 8;

  001cb	c7 87 b4 00 00
	00 08 00 00 00	 mov	 DWORD PTR [edi+180], 8

; 80   : 
; 81   : 	xLeftMargin = 5;

  001d5	c7 87 b8 00 00
	00 05 00 00 00	 mov	 DWORD PTR [edi+184], 5

; 82   : 	yTopMargin  = 5;

  001df	c7 87 bc 00 00
	00 05 00 00 00	 mov	 DWORD PTR [edi+188], 5

; 83   : 
; 84   : 	bUpArrow = bDownArrow = false;

  001e9	66 c7 87 c0 00
	00 00 00 00	 mov	 WORD PTR [edi+192], 0
; File C:\Program Files (x86)\Microsoft Visual Studio\2019\Community\VC\Tools\MSVC\14.29.30133\atlmfc\include\afxwin1.inl

; 19   : 	{ return afxCurrentWinApp; }

  001f2	e8 00 00 00 00	 call	 ?AfxGetModuleState@@YGPAVAFX_MODULE_STATE@@XZ ; AfxGetModuleState
; File C:\Program Files (x86)\Microsoft Visual Studio\2019\Community\VC\Tools\MSVC\14.29.30133\atlmfc\include\afxwin2.inl

; 1044 : 	{ return ::LoadCursorW(AfxFindResourceHandle(ATL_MAKEINTRESOURCE(nIDResource),

  001f7	68 8f 00 00 00	 push	 143			; 0000008fH
  001fc	6a 0c		 push	 12			; 0000000cH
  001fe	68 8f 00 00 00	 push	 143			; 0000008fH
  00203	e8 00 00 00 00	 call	 ?AfxFindResourceHandle@@YGPAUHINSTANCE__@@PBD0@Z ; AfxFindResourceHandle
  00208	8b 35 00 00 00
	00		 mov	 esi, DWORD PTR __imp__LoadCursorW@8
  0020e	50		 push	 eax
  0020f	ff d6		 call	 esi
  00211	0f 57 c0	 xorps	 xmm0, xmm0
; File D:\git\src\IBK\IBK_DRFN\ProjSrc\SrcDrfn\Chart\comparechart\control\GfxOutBarCtrl.cpp

; 86   : 	hHandCursor = AfxGetApp()->LoadCursor(IDC_HANDCUR);

  00214	89 87 40 01 00
	00		 mov	 DWORD PTR [edi+320], eax

; 87   : 
; 88   : 	rcUpArrow   = rcDownArrow = CRect(0,0,0,0);

  0021a	0f 11 87 d4 00
	00 00		 movups	 XMMWORD PTR [edi+212], xmm0

; 89   : 
; 90   : 	bUpPressed = bDownPressed = false;

  00221	66 c7 87 c2 00
	00 00 00 00	 mov	 WORD PTR [edi+194], 0
  0022a	0f 11 87 c4 00
	00 00		 movups	 XMMWORD PTR [edi+196], xmm0

; 91   : 
; 92   : 	bLooping = false;

  00231	c6 87 e4 00 00
	00 00		 mov	 BYTE PTR [edi+228], 0

; 93   : 
; 94   : 	iLastItemHighlighted = -1;

  00238	c7 87 24 01 00
	00 ff ff ff ff	 mov	 DWORD PTR [edi+292], -1

; 95   : 	bPressedHighlight = false;

  00242	c6 87 28 01 00
	00 00		 mov	 BYTE PTR [edi+296], 0

; 96   : 
; 97   : 	iLastDragItemDraw = -1;

  00249	c7 87 2c 01 00
	00 ff ff ff ff	 mov	 DWORD PTR [edi+300], -1

; 98   : 
; 99   : 	lAnimationTickCount = 5;

  00253	c7 87 f0 00 00
	00 05 00 00 00	 mov	 DWORD PTR [edi+240], 5
; File C:\Program Files (x86)\Microsoft Visual Studio\2019\Community\VC\Tools\MSVC\14.29.30133\atlmfc\include\afxwin1.inl

; 19   : 	{ return afxCurrentWinApp; }

  0025d	e8 00 00 00 00	 call	 ?AfxGetModuleState@@YGPAVAFX_MODULE_STATE@@XZ ; AfxGetModuleState
; File C:\Program Files (x86)\Microsoft Visual Studio\2019\Community\VC\Tools\MSVC\14.29.30133\atlmfc\include\afxwin2.inl

; 1044 : 	{ return ::LoadCursorW(AfxFindResourceHandle(ATL_MAKEINTRESOURCE(nIDResource),

  00262	68 ab 17 00 00	 push	 6059			; 000017abH
  00267	6a 0c		 push	 12			; 0000000cH
  00269	68 ab 17 00 00	 push	 6059			; 000017abH
  0026e	e8 00 00 00 00	 call	 ?AfxFindResourceHandle@@YGPAUHINSTANCE__@@PBD0@Z ; AfxFindResourceHandle
  00273	50		 push	 eax
  00274	ff d6		 call	 esi
; File D:\git\src\IBK\IBK_DRFN\ProjSrc\SrcDrfn\Chart\comparechart\control\GfxOutBarCtrl.cpp

; 101  : 	hDragCursor = AfxGetApp()->LoadCursor(IDC_DRAGGING);

  00276	89 87 44 01 00
	00		 mov	 DWORD PTR [edi+324], eax
; File C:\Program Files (x86)\Microsoft Visual Studio\2019\Community\VC\Tools\MSVC\14.29.30133\atlmfc\include\afxwin1.inl

; 19   : 	{ return afxCurrentWinApp; }

  0027c	e8 00 00 00 00	 call	 ?AfxGetModuleState@@YGPAVAFX_MODULE_STATE@@XZ ; AfxGetModuleState
; File C:\Program Files (x86)\Microsoft Visual Studio\2019\Community\VC\Tools\MSVC\14.29.30133\atlmfc\include\afxwin2.inl

; 1044 : 	{ return ::LoadCursorW(AfxFindResourceHandle(ATL_MAKEINTRESOURCE(nIDResource),

  00281	68 8b 00 00 00	 push	 139			; 0000008bH
  00286	6a 0c		 push	 12			; 0000000cH
  00288	68 8b 00 00 00	 push	 139			; 0000008bH
  0028d	e8 00 00 00 00	 call	 ?AfxFindResourceHandle@@YGPAUHINSTANCE__@@PBD0@Z ; AfxFindResourceHandle
  00292	50		 push	 eax
  00293	ff d6		 call	 esi
; File D:\git\src\IBK\IBK_DRFN\ProjSrc\SrcDrfn\Chart\comparechart\control\GfxOutBarCtrl.cpp

; 102  : 	hNoDragCursor = AfxGetApp()->LoadCursor(IDC_NODRAGGING);

  00295	89 87 48 01 00
	00		 mov	 DWORD PTR [edi+328], eax

; 103  : 
; 104  : 
; 105  : 	iLastSel = -1;

  0029b	c7 87 f4 00 00
	00 ff ff ff ff	 mov	 DWORD PTR [edi+244], -1

; 106  : 	iSelAnimCount = 0;

  002a5	c7 87 fc 00 00
	00 00 00 00 00	 mov	 DWORD PTR [edi+252], 0

; 107  : 
; 108  : 	iSelAnimTiming = 0;

  002af	c7 87 f8 00 00
	00 00 00 00 00	 mov	 DWORD PTR [edi+248], 0

; 109  : 
; 110  : 	m_bGradient = FALSE;

  002b9	c7 87 50 01 00
	00 00 00 00 00	 mov	 DWORD PTR [edi+336], 0

; 111  : 	m_pFolderImageList = NULL;

  002c3	c7 87 5c 01 00
	00 00 00 00 00	 mov	 DWORD PTR [edi+348], 0
; File C:\Program Files (x86)\Microsoft Visual Studio\2019\Community\VC\Tools\MSVC\14.29.30133\atlmfc\include\afxwin1.inl

; 27   : 	{ ASSERT(hInstResource != NULL); afxCurrentResourceHandle = hInstResource; }

  002cd	e8 00 00 00 00	 call	 ?AfxGetModuleState@@YGPAVAFX_MODULE_STATE@@XZ ; AfxGetModuleState
  002d2	8b 4d f0	 mov	 ecx, DWORD PTR _hInstResourceClient$1$[ebp]
  002d5	89 48 0c	 mov	 DWORD PTR [eax+12], ecx
; File D:\git\src\IBK\IBK_DRFN\ProjSrc\SrcDrfn\Chart\comparechart\control\GfxOutBarCtrl.cpp

; 113  : }

  002d8	8b c7		 mov	 eax, edi
  002da	8b 4d f4	 mov	 ecx, DWORD PTR __$EHRec$[ebp]
  002dd	64 89 0d 00 00
	00 00		 mov	 DWORD PTR fs:0, ecx
  002e4	59		 pop	 ecx
  002e5	5f		 pop	 edi
  002e6	5e		 pop	 esi
  002e7	8b e5		 mov	 esp, ebp
  002e9	5d		 pop	 ebp
  002ea	c3		 ret	 0
_TEXT	ENDS
;	COMDAT text$x
text$x	SEGMENT
__unwindfunclet$??0CGfxOutBarCtrl@@QAE@XZ$0:
  00000	8b 4d ec	 mov	 ecx, DWORD PTR _this$[ebp]
  00003	e9 00 00 00 00	 jmp	 ??1CWnd@@UAE@XZ		; CWnd::~CWnd
__unwindfunclet$??0CGfxOutBarCtrl@@QAE@XZ$1:
  00008	8b 4d ec	 mov	 ecx, DWORD PTR _this$[ebp]
  0000b	81 c1 04 01 00
	00		 add	 ecx, 260		; 00000104H
  00011	e9 00 00 00 00	 jmp	 ??1CPtrArray@@UAE@XZ	; CPtrArray::~CPtrArray
__unwindfunclet$??0CGfxOutBarCtrl@@QAE@XZ$2:
  00016	8b 4d ec	 mov	 ecx, DWORD PTR _this$[ebp]
  00019	81 c1 54 01 00
	00		 add	 ecx, 340		; 00000154H
  0001f	e9 00 00 00 00	 jmp	 ??1CFont@@UAE@XZ	; CFont::~CFont
__unwindfunclet$??0CGfxOutBarCtrl@@QAE@XZ$3:
  00024	8b 45 e8	 mov	 eax, DWORD PTR $T2[ebp]
  00027	50		 push	 eax
  00028	e8 00 00 00 00	 call	 ??3CObject@@SGXPAX@Z	; CObject::operator delete
  0002d	c3		 ret	 0
  0002e	cc		 int	 3
  0002f	cc		 int	 3
  00030	cc		 int	 3
  00031	cc		 int	 3
  00032	cc		 int	 3
__ehhandler$??0CGfxOutBarCtrl@@QAE@XZ:
  00033	90		 npad	 1
  00034	90		 npad	 1
  00035	8b 54 24 08	 mov	 edx, DWORD PTR [esp+8]
  00039	8d 42 0c	 lea	 eax, DWORD PTR [edx+12]
  0003c	8b 4a e8	 mov	 ecx, DWORD PTR [edx-24]
  0003f	33 c8		 xor	 ecx, eax
  00041	e8 00 00 00 00	 call	 @__security_check_cookie@4
  00046	b8 00 00 00 00	 mov	 eax, OFFSET __ehfuncinfo$??0CGfxOutBarCtrl@@QAE@XZ
  0004b	e9 00 00 00 00	 jmp	 ___CxxFrameHandler3
text$x	ENDS
??0CGfxOutBarCtrl@@QAE@XZ ENDP				; CGfxOutBarCtrl::CGfxOutBarCtrl
; Function compile flags: /Ogtp
; File D:\git\src\IBK\IBK_DRFN\ProjSrc\SrcDrfn\Chart\comparechart\control\GfxOutBarCtrl.cpp
; File C:\Program Files (x86)\Microsoft Visual Studio\2019\Community\VC\Tools\MSVC\14.29.30133\atlmfc\include\afx.inl
; File D:\git\src\IBK\IBK_DRFN\ProjSrc\SrcDrfn\Chart\comparechart\control\GfxOutBarCtrl.cpp
;	COMDAT ?CreateObject@CGfxOutBarCtrl@@SGPAVCObject@@XZ
_TEXT	SEGMENT
$T2 = -16						; size = 4
__$EHRec$ = -12						; size = 12
?CreateObject@CGfxOutBarCtrl@@SGPAVCObject@@XZ PROC	; CGfxOutBarCtrl::CreateObject, COMDAT

; 35   : IMPLEMENT_DYNCREATE(CGfxOutBarCtrl, CWnd)

  00000	55		 push	 ebp
  00001	8b ec		 mov	 ebp, esp
  00003	6a ff		 push	 -1
  00005	68 00 00 00 00	 push	 __ehhandler$?CreateObject@CGfxOutBarCtrl@@SGPAVCObject@@XZ
  0000a	64 a1 00 00 00
	00		 mov	 eax, DWORD PTR fs:0
  00010	50		 push	 eax
  00011	51		 push	 ecx
  00012	a1 00 00 00 00	 mov	 eax, DWORD PTR ___security_cookie
  00017	33 c5		 xor	 eax, ebp
  00019	50		 push	 eax
  0001a	8d 45 f4	 lea	 eax, DWORD PTR __$EHRec$[ebp]
  0001d	64 a3 00 00 00
	00		 mov	 DWORD PTR fs:0, eax
; File C:\Program Files (x86)\Microsoft Visual Studio\2019\Community\VC\Tools\MSVC\14.29.30133\atlmfc\include\afx.inl

; 116  : 	{ return ::operator new(nSize); }

  00023	68 70 01 00 00	 push	 368			; 00000170H
  00028	e8 00 00 00 00	 call	 ??2@YAPAXI@Z		; operator new
  0002d	83 c4 04	 add	 esp, 4
; File D:\git\src\IBK\IBK_DRFN\ProjSrc\SrcDrfn\Chart\comparechart\control\GfxOutBarCtrl.cpp

; 35   : IMPLEMENT_DYNCREATE(CGfxOutBarCtrl, CWnd)

  00030	89 45 f0	 mov	 DWORD PTR $T2[ebp], eax
  00033	c7 45 fc 00 00
	00 00		 mov	 DWORD PTR __$EHRec$[ebp+8], 0
  0003a	85 c0		 test	 eax, eax
  0003c	74 16		 je	 SHORT $LN3@CreateObje
  0003e	8b c8		 mov	 ecx, eax
  00040	e8 00 00 00 00	 call	 ??0CGfxOutBarCtrl@@QAE@XZ ; CGfxOutBarCtrl::CGfxOutBarCtrl
  00045	8b 4d f4	 mov	 ecx, DWORD PTR __$EHRec$[ebp]
  00048	64 89 0d 00 00
	00 00		 mov	 DWORD PTR fs:0, ecx
  0004f	59		 pop	 ecx
  00050	8b e5		 mov	 esp, ebp
  00052	5d		 pop	 ebp
  00053	c3		 ret	 0
$LN3@CreateObje:
  00054	33 c0		 xor	 eax, eax
  00056	8b 4d f4	 mov	 ecx, DWORD PTR __$EHRec$[ebp]
  00059	64 89 0d 00 00
	00 00		 mov	 DWORD PTR fs:0, ecx
  00060	59		 pop	 ecx
  00061	8b e5		 mov	 esp, ebp
  00063	5d		 pop	 ebp
  00064	c3		 ret	 0
_TEXT	ENDS
;	COMDAT text$x
text$x	SEGMENT
__unwindfunclet$?CreateObject@CGfxOutBarCtrl@@SGPAVCObject@@XZ$0:
  00000	8b 45 f0	 mov	 eax, DWORD PTR $T2[ebp]
  00003	50		 push	 eax
  00004	e8 00 00 00 00	 call	 ??3CObject@@SGXPAX@Z	; CObject::operator delete
  00009	c3		 ret	 0
  0000a	cc		 int	 3
  0000b	cc		 int	 3
  0000c	cc		 int	 3
  0000d	cc		 int	 3
  0000e	cc		 int	 3
__ehhandler$?CreateObject@CGfxOutBarCtrl@@SGPAVCObject@@XZ:
  0000f	90		 npad	 1
  00010	90		 npad	 1
  00011	8b 54 24 08	 mov	 edx, DWORD PTR [esp+8]
  00015	8d 42 0c	 lea	 eax, DWORD PTR [edx+12]
  00018	8b 4a f8	 mov	 ecx, DWORD PTR [edx-8]
  0001b	33 c8		 xor	 ecx, eax
  0001d	e8 00 00 00 00	 call	 @__security_check_cookie@4
  00022	b8 00 00 00 00	 mov	 eax, OFFSET __ehfuncinfo$?CreateObject@CGfxOutBarCtrl@@SGPAVCObject@@XZ
  00027	e9 00 00 00 00	 jmp	 ___CxxFrameHandler3
text$x	ENDS
?CreateObject@CGfxOutBarCtrl@@SGPAVCObject@@XZ ENDP	; CGfxOutBarCtrl::CreateObject
; Function compile flags: /Ogtp
; File D:\git\src\IBK\IBK_DRFN\ProjSrc\SrcDrfn\Chart\comparechart\control\GfxOutBarCtrl.cpp
;	COMDAT ?GetRuntimeClass@CGfxOutBarCtrl@@UBEPAUCRuntimeClass@@XZ
_TEXT	SEGMENT
?GetRuntimeClass@CGfxOutBarCtrl@@UBEPAUCRuntimeClass@@XZ PROC ; CGfxOutBarCtrl::GetRuntimeClass, COMDAT
; _this$ = ecx

; 35   : IMPLEMENT_DYNCREATE(CGfxOutBarCtrl, CWnd)

  00000	b8 00 00 00 00	 mov	 eax, OFFSET ?classCGfxOutBarCtrl@CGfxOutBarCtrl@@2UCRuntimeClass@@B ; CGfxOutBarCtrl::classCGfxOutBarCtrl
  00005	c3		 ret	 0
?GetRuntimeClass@CGfxOutBarCtrl@@UBEPAUCRuntimeClass@@XZ ENDP ; CGfxOutBarCtrl::GetRuntimeClass
_TEXT	ENDS
; Function compile flags: /Ogtp
; File D:\git\src\IBK\IBK_DRFN\ProjSrc\SrcDrfn\Chart\comparechart\control\GfxOutBarCtrl.cpp
;	COMDAT ?GetThisClass@CGfxOutBarCtrl@@SGPAUCRuntimeClass@@XZ
_TEXT	SEGMENT
?GetThisClass@CGfxOutBarCtrl@@SGPAUCRuntimeClass@@XZ PROC ; CGfxOutBarCtrl::GetThisClass, COMDAT

; 35   : IMPLEMENT_DYNCREATE(CGfxOutBarCtrl, CWnd)

  00000	b8 00 00 00 00	 mov	 eax, OFFSET ?classCGfxOutBarCtrl@CGfxOutBarCtrl@@2UCRuntimeClass@@B ; CGfxOutBarCtrl::classCGfxOutBarCtrl
  00005	c3		 ret	 0
?GetThisClass@CGfxOutBarCtrl@@SGPAUCRuntimeClass@@XZ ENDP ; CGfxOutBarCtrl::GetThisClass
_TEXT	ENDS
; Function compile flags: /Ogtp
; File D:\git\src\IBK\IBK_DRFN\ProjSrc\SrcDrfn\Chart\comparechart\control\GfxOutBarCtrl.cpp
;	COMDAT ?_GetBaseClass@CGfxOutBarCtrl@@KGPAUCRuntimeClass@@XZ
_TEXT	SEGMENT
?_GetBaseClass@CGfxOutBarCtrl@@KGPAUCRuntimeClass@@XZ PROC ; CGfxOutBarCtrl::_GetBaseClass, COMDAT

; 35   : IMPLEMENT_DYNCREATE(CGfxOutBarCtrl, CWnd)

  00000	e9 00 00 00 00	 jmp	 ?GetThisClass@CWnd@@SGPAUCRuntimeClass@@XZ ; CWnd::GetThisClass
?_GetBaseClass@CGfxOutBarCtrl@@KGPAUCRuntimeClass@@XZ ENDP ; CGfxOutBarCtrl::_GetBaseClass
_TEXT	ENDS
; Function compile flags: /Ogtp
; File C:\Program Files (x86)\Microsoft Visual Studio\2019\Community\VC\Tools\MSVC\14.29.30133\atlmfc\include\afxwin2.inl
;	COMDAT ?EndModalState@CWnd@@UAEXXZ
_TEXT	SEGMENT
?EndModalState@CWnd@@UAEXXZ PROC			; CWnd::EndModalState, COMDAT
; _this$ = ecx

; 567  : 	{ ::EnableWindow(m_hWnd, TRUE); }

  00000	6a 01		 push	 1
  00002	ff 71 20	 push	 DWORD PTR [ecx+32]
  00005	ff 15 00 00 00
	00		 call	 DWORD PTR __imp__EnableWindow@8
  0000b	c3		 ret	 0
?EndModalState@CWnd@@UAEXXZ ENDP			; CWnd::EndModalState
_TEXT	ENDS
; Function compile flags: /Ogtp
; File C:\Program Files (x86)\Microsoft Visual Studio\2019\Community\VC\Tools\MSVC\14.29.30133\atlmfc\include\afxwin2.inl
;	COMDAT ?BeginModalState@CWnd@@UAEXXZ
_TEXT	SEGMENT
?BeginModalState@CWnd@@UAEXXZ PROC			; CWnd::BeginModalState, COMDAT
; _this$ = ecx

; 565  : 	{ ::EnableWindow(m_hWnd, FALSE); }

  00000	6a 00		 push	 0
  00002	ff 71 20	 push	 DWORD PTR [ecx+32]
  00005	ff 15 00 00 00
	00		 call	 DWORD PTR __imp__EnableWindow@8
  0000b	c3		 ret	 0
?BeginModalState@CWnd@@UAEXXZ ENDP			; CWnd::BeginModalState
_TEXT	ENDS
; Function compile flags: /Ogtp
; File C:\Program Files (x86)\Microsoft Visual Studio\2019\Community\VC\Tools\MSVC\14.29.30133\atlmfc\include\afxwin2.inl
;	COMDAT ?DoDataExchange@CWnd@@MAEXPAVCDataExchange@@@Z
_TEXT	SEGMENT
___formal$ = 8						; size = 4
?DoDataExchange@CWnd@@MAEXPAVCDataExchange@@@Z PROC	; CWnd::DoDataExchange, COMDAT
; _this$ = ecx

; 561  : 	{ } // default does nothing

  00000	c2 04 00	 ret	 4
?DoDataExchange@CWnd@@MAEXPAVCDataExchange@@@Z ENDP	; CWnd::DoDataExchange
_TEXT	ENDS
; Function compile flags: /Ogtp
; File C:\Program Files (x86)\Microsoft Visual Studio\2019\Community\VC\Tools\MSVC\14.29.30133\atlmfc\include\afxwin2.inl
;	COMDAT ?OnRButtonDown@CWnd@@IAEXIVCPoint@@@Z
_TEXT	SEGMENT
___formal$ = 8						; size = 4
___formal$ = 12						; size = 8
?OnRButtonDown@CWnd@@IAEXIVCPoint@@@Z PROC		; CWnd::OnRButtonDown, COMDAT
; _this$ = ecx

; 462  : 	{ Default(); }

  00000	e8 00 00 00 00	 call	 ?Default@CWnd@@IAEJXZ	; CWnd::Default
  00005	c2 0c 00	 ret	 12			; 0000000cH
?OnRButtonDown@CWnd@@IAEXIVCPoint@@@Z ENDP		; CWnd::OnRButtonDown
_TEXT	ENDS
; Function compile flags: /Ogtp
; File C:\Program Files (x86)\Microsoft Visual Studio\2019\Community\VC\Tools\MSVC\14.29.30133\atlmfc\include\afxwin1.inl
;	COMDAT ?DrawTextA@CDC@@UAEHPBDHPAUtagRECT@@I@Z
_TEXT	SEGMENT
_lpszString$ = 8					; size = 4
_nCount$ = 12						; size = 4
_lpRect$ = 16						; size = 4
_nFormat$ = 20						; size = 4
?DrawTextA@CDC@@UAEHPBDHPAUtagRECT@@I@Z PROC		; CDC::DrawTextA, COMDAT
; _this$ = ecx

; 593  : 	{ ASSERT(m_hDC != NULL);

  00000	55		 push	 ebp
  00001	8b ec		 mov	 ebp, esp

; 594  : 		return ::DrawText(m_hDC, lpszString, nCount, lpRect, nFormat); }

  00003	ff 75 14	 push	 DWORD PTR _nFormat$[ebp]
  00006	ff 75 10	 push	 DWORD PTR _lpRect$[ebp]
  00009	ff 75 0c	 push	 DWORD PTR _nCount$[ebp]
  0000c	ff 75 08	 push	 DWORD PTR _lpszString$[ebp]
  0000f	ff 71 04	 push	 DWORD PTR [ecx+4]
  00012	ff 15 00 00 00
	00		 call	 DWORD PTR __imp__DrawTextA@20
  00018	5d		 pop	 ebp
  00019	c2 10 00	 ret	 16			; 00000010H
?DrawTextA@CDC@@UAEHPBDHPAUtagRECT@@I@Z ENDP		; CDC::DrawTextA
_TEXT	ENDS
; Function compile flags: /Ogtp
; File C:\Program Files (x86)\Microsoft Visual Studio\2019\Community\VC\Tools\MSVC\14.29.30133\atlmfc\include\afxwin1.inl
; File C:\Program Files (x86)\Microsoft Visual Studio\2019\Community\VC\Tools\MSVC\14.29.30133\atlmfc\include\afx.inl
;	COMDAT ??_GCRgn@@UAEPAXI@Z
_TEXT	SEGMENT
___flags$ = 8						; size = 4
??_GCRgn@@UAEPAXI@Z PROC				; CRgn::`scalar deleting destructor', COMDAT
; _this$ = ecx
  00000	55		 push	 ebp
  00001	8b ec		 mov	 ebp, esp
; File C:\Program Files (x86)\Microsoft Visual Studio\2019\Community\VC\Tools\MSVC\14.29.30133\atlmfc\include\afxwin1.inl

; 266  : 	{ }

  00003	56		 push	 esi
  00004	8b f1		 mov	 esi, ecx
  00006	c7 06 00 00 00
	00		 mov	 DWORD PTR [esi], OFFSET ??_7CRgn@@6B@
  0000c	e8 00 00 00 00	 call	 ??1CGdiObject@@UAE@XZ	; CGdiObject::~CGdiObject
  00011	8b 45 08	 mov	 eax, DWORD PTR ___flags$[ebp]
  00014	a8 01		 test	 al, 1
  00016	74 1f		 je	 SHORT $LN12@scalar
  00018	a8 04		 test	 al, 4
  0001a	75 10		 jne	 SHORT $LN3@scalar
; File C:\Program Files (x86)\Microsoft Visual Studio\2019\Community\VC\Tools\MSVC\14.29.30133\atlmfc\include\afx.inl

; 112  : 	{ ::operator delete(p); }

  0001c	56		 push	 esi
  0001d	e8 00 00 00 00	 call	 ??3@YAXPAX@Z		; operator delete
  00022	83 c4 04	 add	 esp, 4
  00025	8b c6		 mov	 eax, esi
  00027	5e		 pop	 esi
  00028	5d		 pop	 ebp
  00029	c2 04 00	 ret	 4
$LN3@scalar:
  0002c	6a 08		 push	 8
  0002e	56		 push	 esi
  0002f	e8 00 00 00 00	 call	 ?__global_delete@@YAXPAXI@Z ; __global_delete
  00034	83 c4 08	 add	 esp, 8
$LN12@scalar:
  00037	8b c6		 mov	 eax, esi
  00039	5e		 pop	 esi
  0003a	5d		 pop	 ebp
  0003b	c2 04 00	 ret	 4
??_GCRgn@@UAEPAXI@Z ENDP				; CRgn::`scalar deleting destructor'
_TEXT	ENDS
; Function compile flags: /Ogtp
; File C:\Program Files (x86)\Microsoft Visual Studio\2019\Community\VC\Tools\MSVC\14.29.30133\atlmfc\include\afxwin1.inl
;	COMDAT ??1CRgn@@UAE@XZ
_TEXT	SEGMENT
??1CRgn@@UAE@XZ PROC					; CRgn::~CRgn, COMDAT
; _this$ = ecx

; 266  : 	{ }

  00000	c7 01 00 00 00
	00		 mov	 DWORD PTR [ecx], OFFSET ??_7CRgn@@6B@
  00006	e9 00 00 00 00	 jmp	 ??1CGdiObject@@UAE@XZ	; CGdiObject::~CGdiObject
??1CRgn@@UAE@XZ ENDP					; CRgn::~CRgn
_TEXT	ENDS
; Function compile flags: /Ogtp
; File C:\Program Files (x86)\Microsoft Visual Studio\2019\Community\VC\Tools\MSVC\14.29.30133\atlmfc\include\afxwin1.inl
; File C:\Program Files (x86)\Microsoft Visual Studio\2019\Community\VC\Tools\MSVC\14.29.30133\atlmfc\include\afx.inl
;	COMDAT ??_GCBitmap@@UAEPAXI@Z
_TEXT	SEGMENT
___flags$ = 8						; size = 4
??_GCBitmap@@UAEPAXI@Z PROC				; CBitmap::`scalar deleting destructor', COMDAT
; _this$ = ecx
  00000	55		 push	 ebp
  00001	8b ec		 mov	 ebp, esp
; File C:\Program Files (x86)\Microsoft Visual Studio\2019\Community\VC\Tools\MSVC\14.29.30133\atlmfc\include\afxwin1.inl

; 179  : 	{ }

  00003	56		 push	 esi
  00004	8b f1		 mov	 esi, ecx
  00006	c7 06 00 00 00
	00		 mov	 DWORD PTR [esi], OFFSET ??_7CBitmap@@6B@
  0000c	e8 00 00 00 00	 call	 ??1CGdiObject@@UAE@XZ	; CGdiObject::~CGdiObject
  00011	8b 45 08	 mov	 eax, DWORD PTR ___flags$[ebp]
  00014	a8 01		 test	 al, 1
  00016	74 1f		 je	 SHORT $LN12@scalar
  00018	a8 04		 test	 al, 4
  0001a	75 10		 jne	 SHORT $LN3@scalar
; File C:\Program Files (x86)\Microsoft Visual Studio\2019\Community\VC\Tools\MSVC\14.29.30133\atlmfc\include\afx.inl

; 112  : 	{ ::operator delete(p); }

  0001c	56		 push	 esi
  0001d	e8 00 00 00 00	 call	 ??3@YAXPAX@Z		; operator delete
  00022	83 c4 04	 add	 esp, 4
  00025	8b c6		 mov	 eax, esi
  00027	5e		 pop	 esi
  00028	5d		 pop	 ebp
  00029	c2 04 00	 ret	 4
$LN3@scalar:
  0002c	6a 08		 push	 8
  0002e	56		 push	 esi
  0002f	e8 00 00 00 00	 call	 ?__global_delete@@YAXPAXI@Z ; __global_delete
  00034	83 c4 08	 add	 esp, 8
$LN12@scalar:
  00037	8b c6		 mov	 eax, esi
  00039	5e		 pop	 esi
  0003a	5d		 pop	 ebp
  0003b	c2 04 00	 ret	 4
??_GCBitmap@@UAEPAXI@Z ENDP				; CBitmap::`scalar deleting destructor'
_TEXT	ENDS
; Function compile flags: /Ogtp
; File C:\Program Files (x86)\Microsoft Visual Studio\2019\Community\VC\Tools\MSVC\14.29.30133\atlmfc\include\afxwin1.inl
;	COMDAT ??1CBitmap@@UAE@XZ
_TEXT	SEGMENT
??1CBitmap@@UAE@XZ PROC					; CBitmap::~CBitmap, COMDAT
; _this$ = ecx

; 179  : 	{ }

  00000	c7 01 00 00 00
	00		 mov	 DWORD PTR [ecx], OFFSET ??_7CBitmap@@6B@
  00006	e9 00 00 00 00	 jmp	 ??1CGdiObject@@UAE@XZ	; CGdiObject::~CGdiObject
??1CBitmap@@UAE@XZ ENDP					; CBitmap::~CBitmap
_TEXT	ENDS
; Function compile flags: /Ogtp
; File C:\Program Files (x86)\Microsoft Visual Studio\2019\Community\VC\Tools\MSVC\14.29.30133\atlmfc\include\afxwin1.inl
; File C:\Program Files (x86)\Microsoft Visual Studio\2019\Community\VC\Tools\MSVC\14.29.30133\atlmfc\include\afx.inl
;	COMDAT ??_GCFont@@UAEPAXI@Z
_TEXT	SEGMENT
___flags$ = 8						; size = 4
??_GCFont@@UAEPAXI@Z PROC				; CFont::`scalar deleting destructor', COMDAT
; _this$ = ecx
  00000	55		 push	 ebp
  00001	8b ec		 mov	 ebp, esp
; File C:\Program Files (x86)\Microsoft Visual Studio\2019\Community\VC\Tools\MSVC\14.29.30133\atlmfc\include\afxwin1.inl

; 155  : 	{ }

  00003	56		 push	 esi
  00004	8b f1		 mov	 esi, ecx
  00006	c7 06 00 00 00
	00		 mov	 DWORD PTR [esi], OFFSET ??_7CFont@@6B@
  0000c	e8 00 00 00 00	 call	 ??1CGdiObject@@UAE@XZ	; CGdiObject::~CGdiObject
  00011	8b 45 08	 mov	 eax, DWORD PTR ___flags$[ebp]
  00014	a8 01		 test	 al, 1
  00016	74 1f		 je	 SHORT $LN12@scalar
  00018	a8 04		 test	 al, 4
  0001a	75 10		 jne	 SHORT $LN3@scalar
; File C:\Program Files (x86)\Microsoft Visual Studio\2019\Community\VC\Tools\MSVC\14.29.30133\atlmfc\include\afx.inl

; 112  : 	{ ::operator delete(p); }

  0001c	56		 push	 esi
  0001d	e8 00 00 00 00	 call	 ??3@YAXPAX@Z		; operator delete
  00022	83 c4 04	 add	 esp, 4
  00025	8b c6		 mov	 eax, esi
  00027	5e		 pop	 esi
  00028	5d		 pop	 ebp
  00029	c2 04 00	 ret	 4
$LN3@scalar:
  0002c	6a 08		 push	 8
  0002e	56		 push	 esi
  0002f	e8 00 00 00 00	 call	 ?__global_delete@@YAXPAXI@Z ; __global_delete
  00034	83 c4 08	 add	 esp, 8
$LN12@scalar:
  00037	8b c6		 mov	 eax, esi
  00039	5e		 pop	 esi
  0003a	5d		 pop	 ebp
  0003b	c2 04 00	 ret	 4
??_GCFont@@UAEPAXI@Z ENDP				; CFont::`scalar deleting destructor'
_TEXT	ENDS
; Function compile flags: /Ogtp
; File C:\Program Files (x86)\Microsoft Visual Studio\2019\Community\VC\Tools\MSVC\14.29.30133\atlmfc\include\afxwin1.inl
;	COMDAT ??1CFont@@UAE@XZ
_TEXT	SEGMENT
??1CFont@@UAE@XZ PROC					; CFont::~CFont, COMDAT
; _this$ = ecx

; 155  : 	{ }

  00000	c7 01 00 00 00
	00		 mov	 DWORD PTR [ecx], OFFSET ??_7CFont@@6B@
  00006	e9 00 00 00 00	 jmp	 ??1CGdiObject@@UAE@XZ	; CGdiObject::~CGdiObject
??1CFont@@UAE@XZ ENDP					; CFont::~CFont
_TEXT	ENDS
; Function compile flags: /Ogtp
; File C:\Program Files (x86)\Microsoft Visual Studio\2019\Community\VC\Tools\MSVC\14.29.30133\atlmfc\include\afxwin1.inl
; File C:\Program Files (x86)\Microsoft Visual Studio\2019\Community\VC\Tools\MSVC\14.29.30133\atlmfc\include\afx.inl
;	COMDAT ??_GCPen@@UAEPAXI@Z
_TEXT	SEGMENT
___flags$ = 8						; size = 4
??_GCPen@@UAEPAXI@Z PROC				; CPen::`scalar deleting destructor', COMDAT
; _this$ = ecx
  00000	55		 push	 ebp
  00001	8b ec		 mov	 ebp, esp
; File C:\Program Files (x86)\Microsoft Visual Studio\2019\Community\VC\Tools\MSVC\14.29.30133\atlmfc\include\afxwin1.inl

; 106  : 	{ }

  00003	56		 push	 esi
  00004	8b f1		 mov	 esi, ecx
  00006	c7 06 00 00 00
	00		 mov	 DWORD PTR [esi], OFFSET ??_7CPen@@6B@
  0000c	e8 00 00 00 00	 call	 ??1CGdiObject@@UAE@XZ	; CGdiObject::~CGdiObject
  00011	8b 45 08	 mov	 eax, DWORD PTR ___flags$[ebp]
  00014	a8 01		 test	 al, 1
  00016	74 1f		 je	 SHORT $LN12@scalar
  00018	a8 04		 test	 al, 4
  0001a	75 10		 jne	 SHORT $LN3@scalar
; File C:\Program Files (x86)\Microsoft Visual Studio\2019\Community\VC\Tools\MSVC\14.29.30133\atlmfc\include\afx.inl

; 112  : 	{ ::operator delete(p); }

  0001c	56		 push	 esi
  0001d	e8 00 00 00 00	 call	 ??3@YAXPAX@Z		; operator delete
  00022	83 c4 04	 add	 esp, 4
  00025	8b c6		 mov	 eax, esi
  00027	5e		 pop	 esi
  00028	5d		 pop	 ebp
  00029	c2 04 00	 ret	 4
$LN3@scalar:
  0002c	6a 08		 push	 8
  0002e	56		 push	 esi
  0002f	e8 00 00 00 00	 call	 ?__global_delete@@YAXPAXI@Z ; __global_delete
  00034	83 c4 08	 add	 esp, 8
$LN12@scalar:
  00037	8b c6		 mov	 eax, esi
  00039	5e		 pop	 esi
  0003a	5d		 pop	 ebp
  0003b	c2 04 00	 ret	 4
??_GCPen@@UAEPAXI@Z ENDP				; CPen::`scalar deleting destructor'
_TEXT	ENDS
; Function compile flags: /Ogtp
; File C:\Program Files (x86)\Microsoft Visual Studio\2019\Community\VC\Tools\MSVC\14.29.30133\atlmfc\include\afxwin1.inl
;	COMDAT ??1CPen@@UAE@XZ
_TEXT	SEGMENT
??1CPen@@UAE@XZ PROC					; CPen::~CPen, COMDAT
; _this$ = ecx

; 106  : 	{ }

  00000	c7 01 00 00 00
	00		 mov	 DWORD PTR [ecx], OFFSET ??_7CPen@@6B@
  00006	e9 00 00 00 00	 jmp	 ??1CGdiObject@@UAE@XZ	; CGdiObject::~CGdiObject
??1CPen@@UAE@XZ ENDP					; CPen::~CPen
_TEXT	ENDS
; Function compile flags: /Ogtp
; File C:\Program Files (x86)\Microsoft Visual Studio\2019\Community\VC\Tools\MSVC\14.29.30133\atlmfc\include\afx.inl
;	COMDAT ??_GCGdiObject@@UAEPAXI@Z
_TEXT	SEGMENT
___flags$ = 8						; size = 4
??_GCGdiObject@@UAEPAXI@Z PROC				; CGdiObject::`scalar deleting destructor', COMDAT
; _this$ = ecx
  00000	55		 push	 ebp
  00001	8b ec		 mov	 ebp, esp
  00003	56		 push	 esi
  00004	8b f1		 mov	 esi, ecx
  00006	e8 00 00 00 00	 call	 ??1CGdiObject@@UAE@XZ	; CGdiObject::~CGdiObject
  0000b	8b 45 08	 mov	 eax, DWORD PTR ___flags$[ebp]
  0000e	a8 01		 test	 al, 1
  00010	74 1f		 je	 SHORT $LN9@scalar
  00012	a8 04		 test	 al, 4
  00014	75 10		 jne	 SHORT $LN3@scalar

; 112  : 	{ ::operator delete(p); }

  00016	56		 push	 esi
  00017	e8 00 00 00 00	 call	 ??3@YAXPAX@Z		; operator delete
  0001c	83 c4 04	 add	 esp, 4
  0001f	8b c6		 mov	 eax, esi
  00021	5e		 pop	 esi
  00022	5d		 pop	 ebp
  00023	c2 04 00	 ret	 4
$LN3@scalar:
  00026	6a 08		 push	 8
  00028	56		 push	 esi
  00029	e8 00 00 00 00	 call	 ?__global_delete@@YAXPAXI@Z ; __global_delete
  0002e	83 c4 08	 add	 esp, 8
$LN9@scalar:
  00031	8b c6		 mov	 eax, esi
  00033	5e		 pop	 esi
  00034	5d		 pop	 ebp
  00035	c2 04 00	 ret	 4
??_GCGdiObject@@UAEPAXI@Z ENDP				; CGdiObject::`scalar deleting destructor'
_TEXT	ENDS
; Function compile flags: /Ogtp
; File C:\Program Files (x86)\Microsoft Visual Studio\2019\Community\VC\Tools\MSVC\14.29.30133\atlmfc\include\afxwin1.inl
;	COMDAT ??1CGdiObject@@UAE@XZ
_TEXT	SEGMENT
_pException$2 = -540					; size = 4
_strMsg$3 = -536					; size = 4
_szErrorMessage$4 = -532				; size = 512
__$ArrayPad$ = -20					; size = 4
__$EHRec$ = -16						; size = 16
??1CGdiObject@@UAE@XZ PROC				; CGdiObject::~CGdiObject, COMDAT
; _this$ = ecx

; 74   : {

  00000	55		 push	 ebp
  00001	8b ec		 mov	 ebp, esp
  00003	6a ff		 push	 -1
  00005	68 00 00 00 00	 push	 __ehhandler$??1CGdiObject@@UAE@XZ
  0000a	64 a1 00 00 00
	00		 mov	 eax, DWORD PTR fs:0
  00010	50		 push	 eax
  00011	81 ec 10 02 00
	00		 sub	 esp, 528		; 00000210H
  00017	a1 00 00 00 00	 mov	 eax, DWORD PTR ___security_cookie
  0001c	33 c5		 xor	 eax, ebp
  0001e	89 45 ec	 mov	 DWORD PTR __$ArrayPad$[ebp], eax
  00021	53		 push	 ebx
  00022	56		 push	 esi
  00023	57		 push	 edi
  00024	50		 push	 eax
  00025	8d 45 f4	 lea	 eax, DWORD PTR __$EHRec$[ebp+4]
  00028	64 a3 00 00 00
	00		 mov	 DWORD PTR fs:0, eax
  0002e	89 65 f0	 mov	 DWORD PTR __$EHRec$[ebp], esp
  00031	c7 01 00 00 00
	00		 mov	 DWORD PTR [ecx], OFFSET ??_7CGdiObject@@6B@

; 75   : 	AFX_BEGIN_DESTRUCTOR

  00037	c7 45 fc 00 00
	00 00		 mov	 DWORD PTR __$EHRec$[ebp+12], 0

; 76   : 	DeleteObject();

  0003e	e8 00 00 00 00	 call	 ?DeleteObject@CGdiObject@@QAEHXZ ; CGdiObject::DeleteObject
$LN18@CGdiObject:

; 78   : }

  00043	8b 4d f4	 mov	 ecx, DWORD PTR __$EHRec$[ebp+4]
  00046	64 89 0d 00 00
	00 00		 mov	 DWORD PTR fs:0, ecx
  0004d	59		 pop	 ecx
  0004e	5f		 pop	 edi
  0004f	5e		 pop	 esi
  00050	5b		 pop	 ebx
  00051	8b 4d ec	 mov	 ecx, DWORD PTR __$ArrayPad$[ebp]
  00054	33 cd		 xor	 ecx, ebp
  00056	e8 00 00 00 00	 call	 @__security_check_cookie@4
  0005b	8b e5		 mov	 esp, ebp
  0005d	5d		 pop	 ebp
  0005e	c3		 ret	 0
__catch$??1CGdiObject@@UAE@XZ$0:

; 77   : 	AFX_END_DESTRUCTOR

  0005f	8d 8d e8 fd ff
	ff		 lea	 ecx, DWORD PTR _strMsg$3[ebp]
  00065	ff 15 00 00 00
	00		 call	 DWORD PTR __imp_??0?$CStringT@DV?$StrTraitMFC_DLL@DV?$ChTraitsCRT@D@ATL@@@@@ATL@@QAE@XZ
  0006b	8b b5 e4 fd ff
	ff		 mov	 esi, DWORD PTR _pException$2[ebp]
  00071	8d 8d ec fd ff
	ff		 lea	 ecx, DWORD PTR _szErrorMessage$4[ebp]
  00077	6a 00		 push	 0
  00079	68 00 02 00 00	 push	 512			; 00000200H
  0007e	51		 push	 ecx
  0007f	8b 06		 mov	 eax, DWORD PTR [esi]
  00081	8b ce		 mov	 ecx, esi
  00083	c6 45 fc 02	 mov	 BYTE PTR __$EHRec$[ebp+12], 2
  00087	ff 50 14	 call	 DWORD PTR [eax+20]
  0008a	85 c0		 test	 eax, eax
  0008c	74 2a		 je	 SHORT $LN9@CGdiObject
  0008e	8d 85 ec fd ff
	ff		 lea	 eax, DWORD PTR _szErrorMessage$4[ebp]
  00094	50		 push	 eax
  00095	6a 4d		 push	 77			; 0000004dH
  00097	68 00 00 00 00	 push	 OFFSET ??_C@_0HD@JJCHHHNK@C?3?2Program?5Files?5?$CIx86?$CJ?2Microsof@
  0009c	68 00 00 00 00	 push	 OFFSET ??_C@_0BP@OIEOKIDM@Exception?5thrown?5in?5destructor@
  000a1	8d 85 e8 fd ff
	ff		 lea	 eax, DWORD PTR _strMsg$3[ebp]
  000a7	68 00 00 00 00	 push	 OFFSET ??_C@_0BB@HBOOMJBF@?$CFTs?5?$CI?$CFTs?3?$CFd?$CJ?6?$CFTs@
  000ac	50		 push	 eax
  000ad	ff 15 00 00 00
	00		 call	 DWORD PTR __imp_?Format@?$CStringT@DV?$StrTraitMFC_DLL@DV?$ChTraitsCRT@D@ATL@@@@@ATL@@QAAXPBDZZ
  000b3	83 c4 18	 add	 esp, 24			; 00000018H
  000b6	eb 21		 jmp	 SHORT $LN10@CGdiObject
$LN9@CGdiObject:
  000b8	6a 4d		 push	 77			; 0000004dH
  000ba	68 00 00 00 00	 push	 OFFSET ??_C@_0HD@JJCHHHNK@C?3?2Program?5Files?5?$CIx86?$CJ?2Microsof@
  000bf	68 00 00 00 00	 push	 OFFSET ??_C@_0BP@OIEOKIDM@Exception?5thrown?5in?5destructor@
  000c4	8d 85 e8 fd ff
	ff		 lea	 eax, DWORD PTR _strMsg$3[ebp]
  000ca	68 00 00 00 00	 push	 OFFSET ??_C@_0N@OMEMOKLE@?$CFTs?5?$CI?$CFTs?3?$CFd?$CJ@
  000cf	50		 push	 eax
  000d0	ff 15 00 00 00
	00		 call	 DWORD PTR __imp_?Format@?$CStringT@DV?$StrTraitMFC_DLL@DV?$ChTraitsCRT@D@ATL@@@@@ATL@@QAAXPBDZZ
  000d6	83 c4 14	 add	 esp, 20			; 00000014H
$LN10@CGdiObject:
  000d9	6a 00		 push	 0
  000db	6a 00		 push	 0
  000dd	ff b5 e8 fd ff
	ff		 push	 DWORD PTR _strMsg$3[ebp]
  000e3	e8 00 00 00 00	 call	 ?AfxMessageBox@@YGHPBDII@Z ; AfxMessageBox
  000e8	8d 8d e8 fd ff
	ff		 lea	 ecx, DWORD PTR _strMsg$3[ebp]
  000ee	ff 15 00 00 00
	00		 call	 DWORD PTR __imp_??1?$CStringT@DV?$StrTraitMFC_DLL@DV?$ChTraitsCRT@D@ATL@@@@@ATL@@QAE@XZ
  000f4	8b 06		 mov	 eax, DWORD PTR [esi]
  000f6	8b ce		 mov	 ecx, esi
  000f8	6a 01		 push	 1
  000fa	ff 50 04	 call	 DWORD PTR [eax+4]
  000fd	b8 00 00 00 00	 mov	 eax, $LN18@CGdiObject
  00102	c3		 ret	 0
_TEXT	ENDS
;	COMDAT text$x
text$x	SEGMENT
__unwindfunclet$??1CGdiObject@@UAE@XZ$2:
  00000	8d 8d e8 fd ff
	ff		 lea	 ecx, DWORD PTR _strMsg$3[ebp]
  00006	ff 25 00 00 00
	00		 jmp	 DWORD PTR __imp_??1?$CStringT@DV?$StrTraitMFC_DLL@DV?$ChTraitsCRT@D@ATL@@@@@ATL@@QAE@XZ
  0000c	cc		 int	 3
  0000d	cc		 int	 3
  0000e	cc		 int	 3
  0000f	cc		 int	 3
  00010	cc		 int	 3
__ehhandler$??1CGdiObject@@UAE@XZ:
  00011	90		 npad	 1
  00012	90		 npad	 1
  00013	8b 54 24 08	 mov	 edx, DWORD PTR [esp+8]
  00017	8d 42 0c	 lea	 eax, DWORD PTR [edx+12]
  0001a	8b 8a e0 fd ff
	ff		 mov	 ecx, DWORD PTR [edx-544]
  00020	33 c8		 xor	 ecx, eax
  00022	e8 00 00 00 00	 call	 @__security_check_cookie@4
  00027	8b 4a f8	 mov	 ecx, DWORD PTR [edx-8]
  0002a	33 c8		 xor	 ecx, eax
  0002c	e8 00 00 00 00	 call	 @__security_check_cookie@4
  00031	b8 00 00 00 00	 mov	 eax, OFFSET __ehfuncinfo$??1CGdiObject@@UAE@XZ
  00036	e9 00 00 00 00	 jmp	 ___CxxFrameHandler3
text$x	ENDS
??1CGdiObject@@UAE@XZ ENDP				; CGdiObject::~CGdiObject
; Function compile flags: /Ogtp
; File C:\Program Files (x86)\Microsoft Visual Studio\2019\Community\VC\Tools\MSVC\14.29.30133\atlmfc\include\afx.inl
;	COMDAT ?Dump@CObject@@UBEXAAVCDumpContext@@@Z
_TEXT	SEGMENT
___formal$ = 8						; size = 4
?Dump@CObject@@UBEXAAVCDumpContext@@@Z PROC		; CObject::Dump, COMDAT
; _this$ = ecx

; 122  : 	{ /* no dumping in release builds */ }

  00000	c2 04 00	 ret	 4
?Dump@CObject@@UBEXAAVCDumpContext@@@Z ENDP		; CObject::Dump
_TEXT	ENDS
; Function compile flags: /Ogtp
; File C:\Program Files (x86)\Microsoft Visual Studio\2019\Community\VC\Tools\MSVC\14.29.30133\atlmfc\include\afx.inl
;	COMDAT ?AssertValid@CObject@@UBEXXZ
_TEXT	SEGMENT
?AssertValid@CObject@@UBEXXZ PROC			; CObject::AssertValid, COMDAT
; _this$ = ecx

; 120  : 	{ /* no asserts in release builds */ }

  00000	c2 00 00	 ret	 0
?AssertValid@CObject@@UBEXXZ ENDP			; CObject::AssertValid
_TEXT	ENDS
; Function compile flags: /Ogtp
; File C:\Program Files (x86)\Microsoft Visual Studio\2019\Community\VC\Tools\MSVC\14.29.30133\atlmfc\include\afx.inl
;	COMDAT ?Serialize@CObject@@UAEXAAVCArchive@@@Z
_TEXT	SEGMENT
___formal$ = 8						; size = 4
?Serialize@CObject@@UAEXAAVCArchive@@@Z PROC		; CObject::Serialize, COMDAT
; _this$ = ecx

; 106  : 	{ /* CObject does not serialize anything by default */ }

  00000	c2 04 00	 ret	 4
?Serialize@CObject@@UAEXAAVCArchive@@@Z ENDP		; CObject::Serialize
_TEXT	ENDS
; Function compile flags: /Ogtp
; File C:\Program Files (x86)\Microsoft Visual Studio\2019\Community\VC\Tools\MSVC\14.29.30133\atlmfc\include\afx.inl
;	COMDAT ??3CObject@@SGXPAX@Z
_TEXT	SEGMENT
_p$ = 8							; size = 4
??3CObject@@SGXPAX@Z PROC				; CObject::operator delete, COMDAT

; 112  : 	{ ::operator delete(p); }

  00000	55		 push	 ebp
  00001	8b ec		 mov	 ebp, esp
  00003	ff 75 08	 push	 DWORD PTR _p$[ebp]
  00006	e8 00 00 00 00	 call	 ??3@YAXPAX@Z		; operator delete
  0000b	83 c4 04	 add	 esp, 4
  0000e	5d		 pop	 ebp
  0000f	c2 04 00	 ret	 4
??3CObject@@SGXPAX@Z ENDP				; CObject::operator delete
_TEXT	ENDS
; Function compile flags: /Ogtp
; File C:\Program Files (x86)\Microsoft Visual Studio\2019\Community\VC\Tools\MSVC\14.29.30133\atlmfc\include\afx.inl
;	COMDAT ??1CObject@@UAE@XZ
_TEXT	SEGMENT
??1CObject@@UAE@XZ PROC					; CObject::~CObject, COMDAT
; _this$ = ecx

; 104  : 	{ }

  00000	c2 00 00	 ret	 0
??1CObject@@UAE@XZ ENDP					; CObject::~CObject
_TEXT	ENDS
; Function compile flags: /Ogtp
; File D:\git\src\IBK\IBK_DRFN\ProjSrc\SrcDrfn\Chart\comparechart\control\GfxOutBarCtrl.cpp
;	COMDAT ?__empty_global_delete@@YAXPAXI@Z
_TEXT	SEGMENT
___formal$ = 8						; size = 4
___formal$ = 12						; size = 4
?__empty_global_delete@@YAXPAXI@Z PROC			; __empty_global_delete, COMDAT

  00000	c2 00 00	 ret	 0
?__empty_global_delete@@YAXPAXI@Z ENDP			; __empty_global_delete
_TEXT	ENDS
; Function compile flags: /Ogtp
; File D:\git\src\IBK\IBK_DRFN\ProjSrc\SrcDrfn\Chart\comparechart\control\GfxOutBarCtrl.cpp
;	COMDAT ?__empty_global_delete@@YAXPAX@Z
_TEXT	SEGMENT
___formal$ = 8						; size = 4
?__empty_global_delete@@YAXPAX@Z PROC			; __empty_global_delete, COMDAT

  00000	c2 00 00	 ret	 0
?__empty_global_delete@@YAXPAX@Z ENDP			; __empty_global_delete
_TEXT	ENDS
END
