; Listing generated by Microsoft (R) Optimizing Compiler Version 19.29.30148.0 

	TITLE	D:\git\src\IBK\IBK_DRFN\#DRfn-CS\_Obj\CompareChart\ILButton.obj
	.686P
	.XMM
	include listing.inc
	.model	flat

INCLUDELIB MSVCRT
INCLUDELIB OLDNAMES

PUBLIC	?__empty_global_delete@@YAXPAX@Z		; __empty_global_delete
PUBLIC	?__empty_global_delete@@YAXPAXI@Z		; __empty_global_delete
PUBLIC	??1CObject@@UAE@XZ				; CObject::~CObject
PUBLIC	?Serialize@CObject@@UAEXAAVCArchive@@@Z		; CObject::Serialize
PUBLIC	?AssertValid@CObject@@UBEXXZ			; CObject::AssertValid
PUBLIC	?Dump@CObject@@UBEXAAVCDumpContext@@@Z		; CObject::Dump
PUBLIC	??1CGdiObject@@UAE@XZ				; CGdiObject::~CGdiObject
PUBLIC	??_GCGdiObject@@UAEPAXI@Z			; CGdiObject::`scalar deleting destructor'
PUBLIC	??1CFont@@UAE@XZ				; CFont::~CFont
PUBLIC	??_GCFont@@UAEPAXI@Z				; CFont::`scalar deleting destructor'
PUBLIC	?DoDataExchange@CWnd@@MAEXPAVCDataExchange@@@Z	; CWnd::DoDataExchange
PUBLIC	?BeginModalState@CWnd@@UAEXXZ			; CWnd::BeginModalState
PUBLIC	?EndModalState@CWnd@@UAEXXZ			; CWnd::EndModalState
PUBLIC	??_GCButton@@UAEPAXI@Z				; CButton::`scalar deleting destructor'
PUBLIC	??0CILButton@@QAE@XZ				; CILButton::CILButton
PUBLIC	?FP_vSetImage@CILButton@@QAEXPAVCImageList@@HHHV?$CStringT@DV?$StrTraitMFC_DLL@DV?$ChTraitsCRT@D@ATL@@@@@ATL@@HHH@Z ; CILButton::FP_vSetImage
PUBLIC	?SetCheck@CILButton@@QAEXH@Z			; CILButton::SetCheck
PUBLIC	?GetCheck@CILButton@@QAEHXZ			; CILButton::GetCheck
PUBLIC	?FP_vSetToolTipText@CILButton@@QAEXV?$CStringT@DV?$StrTraitMFC_DLL@DV?$ChTraitsCRT@D@ATL@@@@@ATL@@@Z ; CILButton::FP_vSetToolTipText
PUBLIC	?RelayEvent@CILButton@@QAEXIIJ@Z		; CILButton::RelayEvent
PUBLIC	?DrawItem@CILButton@@UAEXPAUtagDRAWITEMSTRUCT@@@Z ; CILButton::DrawItem
PUBLIC	?PreSubclassWindow@CILButton@@MAEXXZ		; CILButton::PreSubclassWindow
PUBLIC	?SetBtnTitle@CILButton@@QAEXV?$CStringT@DV?$StrTraitMFC_DLL@DV?$ChTraitsCRT@D@ATL@@@@@ATL@@@Z ; CILButton::SetBtnTitle
PUBLIC	?GetBtnTitle@CILButton@@QAE?AV?$CStringT@DV?$StrTraitMFC_DLL@DV?$ChTraitsCRT@D@ATL@@@@@ATL@@XZ ; CILButton::GetBtnTitle
PUBLIC	??1CILButton@@UAE@XZ				; CILButton::~CILButton
PUBLIC	?OnCreate@CILButton@@IAEHPAUtagCREATESTRUCTA@@@Z ; CILButton::OnCreate
PUBLIC	?OnDestroy@CILButton@@IAEXXZ			; CILButton::OnDestroy
PUBLIC	?OnEraseBkgnd@CILButton@@IAEHPAVCDC@@@Z		; CILButton::OnEraseBkgnd
PUBLIC	?OnLButtonDown@CILButton@@IAEXIVCPoint@@@Z	; CILButton::OnLButtonDown
PUBLIC	?OnLButtonUp@CILButton@@IAEXIVCPoint@@@Z	; CILButton::OnLButtonUp
PUBLIC	?OnMouseMove@CILButton@@IAEXIVCPoint@@@Z	; CILButton::OnMouseMove
PUBLIC	?OnNcLButtonUp@CILButton@@IAEXIVCPoint@@@Z	; CILButton::OnNcLButtonUp
PUBLIC	?OnTimer@CILButton@@IAEXI@Z			; CILButton::OnTimer
PUBLIC	?GetThisMessageMap@CILButton@@KGPBUAFX_MSGMAP@@XZ ; CILButton::GetThisMessageMap
PUBLIC	?GetMessageMap@CILButton@@MBEPBUAFX_MSGMAP@@XZ	; CILButton::GetMessageMap
PUBLIC	??_GCILButton@@UAEPAXI@Z			; CILButton::`scalar deleting destructor'
PUBLIC	??_R0PAVCException@@@8				; CException * `RTTI Type Descriptor'
PUBLIC	??_7CGdiObject@@6B@				; CGdiObject::`vftable'
PUBLIC	??_7CFont@@6B@					; CFont::`vftable'
PUBLIC	??_7CButton@@6B@				; CButton::`vftable'
PUBLIC	??_C@_0HD@JJCHHHNK@C?3?2Program?5Files?5?$CIx86?$CJ?2Microsof@ ; `string'
PUBLIC	??_C@_0BP@OIEOKIDM@Exception?5thrown?5in?5destructor@ ; `string'
PUBLIC	??_C@_0BB@HBOOMJBF@?$CFTs?5?$CI?$CFTs?3?$CFd?$CJ?6?$CFTs@ ; `string'
PUBLIC	??_C@_0N@OMEMOKLE@?$CFTs?5?$CI?$CFTs?3?$CFd?$CJ@ ; `string'
PUBLIC	??_R0?AVCObject@@@8				; CObject `RTTI Type Descriptor'
PUBLIC	??_R3CObject@@8					; CObject::`RTTI Class Hierarchy Descriptor'
PUBLIC	??_R2CObject@@8					; CObject::`RTTI Base Class Array'
PUBLIC	??_R1A@?0A@EA@CObject@@8			; CObject::`RTTI Base Class Descriptor at (0,-1,0,64)'
PUBLIC	??_R4CGdiObject@@6B@				; CGdiObject::`RTTI Complete Object Locator'
PUBLIC	??_R0?AVCGdiObject@@@8				; CGdiObject `RTTI Type Descriptor'
PUBLIC	??_R3CGdiObject@@8				; CGdiObject::`RTTI Class Hierarchy Descriptor'
PUBLIC	??_R2CGdiObject@@8				; CGdiObject::`RTTI Base Class Array'
PUBLIC	??_R1A@?0A@EA@CGdiObject@@8			; CGdiObject::`RTTI Base Class Descriptor at (0,-1,0,64)'
PUBLIC	??_R4CFont@@6B@					; CFont::`RTTI Complete Object Locator'
PUBLIC	??_R0?AVCFont@@@8				; CFont `RTTI Type Descriptor'
PUBLIC	??_R3CFont@@8					; CFont::`RTTI Class Hierarchy Descriptor'
PUBLIC	??_R2CFont@@8					; CFont::`RTTI Base Class Array'
PUBLIC	??_R1A@?0A@EA@CFont@@8				; CFont::`RTTI Base Class Descriptor at (0,-1,0,64)'
PUBLIC	??_R1A@?0A@EA@CWnd@@8				; CWnd::`RTTI Base Class Descriptor at (0,-1,0,64)'
PUBLIC	??_R0?AVCWnd@@@8				; CWnd `RTTI Type Descriptor'
PUBLIC	??_R3CWnd@@8					; CWnd::`RTTI Class Hierarchy Descriptor'
PUBLIC	??_R2CWnd@@8					; CWnd::`RTTI Base Class Array'
PUBLIC	??_R1A@?0A@EA@CCmdTarget@@8			; CCmdTarget::`RTTI Base Class Descriptor at (0,-1,0,64)'
PUBLIC	??_R0?AVCCmdTarget@@@8				; CCmdTarget `RTTI Type Descriptor'
PUBLIC	??_R3CCmdTarget@@8				; CCmdTarget::`RTTI Class Hierarchy Descriptor'
PUBLIC	??_R2CCmdTarget@@8				; CCmdTarget::`RTTI Base Class Array'
PUBLIC	??_R4CButton@@6B@				; CButton::`RTTI Complete Object Locator'
PUBLIC	??_R0?AVCButton@@@8				; CButton `RTTI Type Descriptor'
PUBLIC	??_R3CButton@@8					; CButton::`RTTI Class Hierarchy Descriptor'
PUBLIC	??_R2CButton@@8					; CButton::`RTTI Base Class Array'
PUBLIC	??_R1A@?0A@EA@CButton@@8			; CButton::`RTTI Base Class Descriptor at (0,-1,0,64)'
PUBLIC	??_7CILButton@@6B@				; CILButton::`vftable'
PUBLIC	??_C@_06MFMMLLPC@?$LB?$LM?$LI?$LC?C?$LM@	; `string'
PUBLIC	??_R4CILButton@@6B@				; CILButton::`RTTI Complete Object Locator'
PUBLIC	??_R0?AVCILButton@@@8				; CILButton `RTTI Type Descriptor'
PUBLIC	??_R3CILButton@@8				; CILButton::`RTTI Class Hierarchy Descriptor'
PUBLIC	??_R2CILButton@@8				; CILButton::`RTTI Base Class Array'
PUBLIC	??_R1A@?0A@EA@CILButton@@8			; CILButton::`RTTI Base Class Descriptor at (0,-1,0,64)'
PUBLIC	__xmm@00000190000000000000000000000000
EXTRN	??3@YAXPAX@Z:PROC				; operator delete
EXTRN	?__global_delete@@YAXPAXI@Z:PROC		; __global_delete
EXTRN	___std_terminate:PROC
EXTRN	__imp__CreateFontIndirectA@4:PROC
EXTRN	__imp__GetBkColor@4:PROC
EXTRN	__imp__GetTextMetricsA@8:PROC
EXTRN	__imp__SendMessageA@16:PROC
EXTRN	__imp__GetCapture@0:PROC
EXTRN	__imp__SetTimer@16:PROC
EXTRN	__imp__KillTimer@8:PROC
EXTRN	__imp__EnableWindow@8:PROC
EXTRN	__imp__InvalidateRect@12:PROC
EXTRN	__imp__GetClientRect@8:PROC
EXTRN	__imp__GetCursorPos@4:PROC
EXTRN	__imp__MapWindowPoints@16:PROC
EXTRN	__imp__WindowFromPoint@8:PROC
EXTRN	__imp__CopyRect@8:PROC
EXTRN	__imp__PtInRect@12:PROC
EXTRN	__imp__ImageList_Draw@24:PROC
EXTRN	__imp_??0?$CStringT@DV?$StrTraitMFC_DLL@DV?$ChTraitsCRT@D@ATL@@@@@ATL@@QAE@XZ:PROC
EXTRN	__imp_??0?$CStringT@DV?$StrTraitMFC_DLL@DV?$ChTraitsCRT@D@ATL@@@@@ATL@@QAE@ABV01@@Z:PROC
EXTRN	__imp_??1?$CStringT@DV?$StrTraitMFC_DLL@DV?$ChTraitsCRT@D@ATL@@@@@ATL@@QAE@XZ:PROC
EXTRN	__imp_??4?$CStringT@DV?$StrTraitMFC_DLL@DV?$ChTraitsCRT@D@ATL@@@@@ATL@@QAEAAV01@ABV01@@Z:PROC
EXTRN	__imp_?Format@?$CStringT@DV?$StrTraitMFC_DLL@DV?$ChTraitsCRT@D@ATL@@@@@ATL@@QAAXPBDZZ:PROC
EXTRN	?GetRuntimeClass@CGdiObject@@UBEPAUCRuntimeClass@@XZ:PROC ; CGdiObject::GetRuntimeClass
EXTRN	?Attach@CGdiObject@@QAEHPAX@Z:PROC		; CGdiObject::Attach
EXTRN	?DeleteObject@CGdiObject@@QAEHXZ:PROC		; CGdiObject::DeleteObject
EXTRN	??_ECGdiObject@@UAEPAXI@Z:PROC			; CGdiObject::`vector deleting destructor'
EXTRN	?GetRuntimeClass@CFont@@UBEPAUCRuntimeClass@@XZ:PROC ; CFont::GetRuntimeClass
EXTRN	??_ECFont@@UAEPAXI@Z:PROC			; CFont::`vector deleting destructor'
EXTRN	?FromHandle@CDC@@SGPAV1@PAUHDC__@@@Z:PROC	; CDC::FromHandle
EXTRN	?SetBkMode@CDC@@QAEHH@Z:PROC			; CDC::SetBkMode
EXTRN	?FillSolidRect@CDC@@QAEXPBUtagRECT@@K@Z:PROC	; CDC::FillSolidRect
EXTRN	?OnCmdMsg@CCmdTarget@@UAEHIHPAXPAUAFX_CMDHANDLERINFO@@@Z:PROC ; CCmdTarget::OnCmdMsg
EXTRN	?IsInvokeAllowed@CCmdTarget@@UAEHJ@Z:PROC	; CCmdTarget::IsInvokeAllowed
EXTRN	?GetDispatchIID@CCmdTarget@@UAEHPAU_GUID@@@Z:PROC ; CCmdTarget::GetDispatchIID
EXTRN	?GetTypeInfoCount@CCmdTarget@@UAEIXZ:PROC	; CCmdTarget::GetTypeInfoCount
EXTRN	?GetTypeLibCache@CCmdTarget@@UAEPAVCTypeLibCache@@XZ:PROC ; CCmdTarget::GetTypeLibCache
EXTRN	?GetTypeLib@CCmdTarget@@UAEJKPAPAUITypeLib@@@Z:PROC ; CCmdTarget::GetTypeLib
EXTRN	?GetCommandMap@CCmdTarget@@MBEPBUAFX_OLECMDMAP@@XZ:PROC ; CCmdTarget::GetCommandMap
EXTRN	?GetDispatchMap@CCmdTarget@@MBEPBUAFX_DISPMAP@@XZ:PROC ; CCmdTarget::GetDispatchMap
EXTRN	?GetConnectionMap@CCmdTarget@@MBEPBUAFX_CONNECTIONMAP@@XZ:PROC ; CCmdTarget::GetConnectionMap
EXTRN	?GetEventSinkMap@CCmdTarget@@MBEPBUAFX_EVENTSINKMAP@@XZ:PROC ; CCmdTarget::GetEventSinkMap
EXTRN	?OnCreateAggregates@CCmdTarget@@UAEHXZ:PROC	; CCmdTarget::OnCreateAggregates
EXTRN	?GetInterfaceHook@CCmdTarget@@UAEPAUIUnknown@@PBX@Z:PROC ; CCmdTarget::GetInterfaceHook
EXTRN	?GetExtraConnectionPoints@CCmdTarget@@MAEHPAVCPtrArray@@@Z:PROC ; CCmdTarget::GetExtraConnectionPoints
EXTRN	?GetConnectionHook@CCmdTarget@@MAEPAUIConnectionPoint@@ABU_GUID@@@Z:PROC ; CCmdTarget::GetConnectionHook
EXTRN	?ModifyStyle@CWnd@@QAEHKKI@Z:PROC		; CWnd::ModifyStyle
EXTRN	??0CWnd@@QAE@XZ:PROC				; CWnd::CWnd
EXTRN	?FromHandle@CWnd@@SGPAV1@PAUHWND__@@@Z:PROC	; CWnd::FromHandle
EXTRN	?PreSubclassWindow@CWnd@@UAEXXZ:PROC		; CWnd::PreSubclassWindow
EXTRN	?Create@CWnd@@UAEHPBD0KABUtagRECT@@PAV1@IPAUCCreateContext@@@Z:PROC ; CWnd::Create
EXTRN	?CreateEx@CWnd@@UAEHKPBD0KHHHHPAUHWND__@@PAUHMENU__@@PAX@Z:PROC ; CWnd::CreateEx
EXTRN	?CreateEx@CWnd@@UAEHKPBD0KABUtagRECT@@PAV1@IPAX@Z:PROC ; CWnd::CreateEx
EXTRN	?DestroyWindow@CWnd@@UAEHXZ:PROC		; CWnd::DestroyWindow
EXTRN	?PreCreateWindow@CWnd@@UAEHAAUtagCREATESTRUCTA@@@Z:PROC ; CWnd::PreCreateWindow
EXTRN	?CalcWindowRect@CWnd@@UAEXPAUtagRECT@@I@Z:PROC	; CWnd::CalcWindowRect
EXTRN	?GetMenu@CWnd@@UBEPAVCMenu@@XZ:PROC		; CWnd::GetMenu
EXTRN	?SetMenu@CWnd@@UAEHPAVCMenu@@@Z:PROC		; CWnd::SetMenu
EXTRN	?OnToolHitTest@CWnd@@UBEHVCPoint@@PAUtagTOOLINFOA@@@Z:PROC ; CWnd::OnToolHitTest
EXTRN	?GetScrollBarCtrl@CWnd@@UBEPAVCScrollBar@@H@Z:PROC ; CWnd::GetScrollBarCtrl
EXTRN	?WinHelpA@CWnd@@UAEXKI@Z:PROC			; CWnd::WinHelpA
EXTRN	?HtmlHelpA@CWnd@@UAEXKI@Z:PROC			; CWnd::HtmlHelpA
EXTRN	?WinHelpInternal@CWnd@@UAEXKI@Z:PROC		; CWnd::WinHelpInternal
EXTRN	?ContinueModal@CWnd@@UAEHXZ:PROC		; CWnd::ContinueModal
EXTRN	?EndModalLoop@CWnd@@UAEXH@Z:PROC		; CWnd::EndModalLoop
EXTRN	?OnDrawIconicThumbnailOrLivePreview@CWnd@@UAEXAAVCDC@@VCRect@@VCSize@@HAAH@Z:PROC ; CWnd::OnDrawIconicThumbnailOrLivePreview
EXTRN	?GetInterfaceMap@CWnd@@MBEPBUAFX_INTERFACEMAP@@XZ:PROC ; CWnd::GetInterfaceMap
EXTRN	?EnsureStdObj@CWnd@@UAEJXZ:PROC			; CWnd::EnsureStdObj
EXTRN	?get_accParent@CWnd@@UAEJPAPAUIDispatch@@@Z:PROC ; CWnd::get_accParent
EXTRN	?get_accChildCount@CWnd@@UAEJPAJ@Z:PROC		; CWnd::get_accChildCount
EXTRN	?get_accChild@CWnd@@UAEJUtagVARIANT@@PAPAUIDispatch@@@Z:PROC ; CWnd::get_accChild
EXTRN	?get_accName@CWnd@@UAEJUtagVARIANT@@PAPA_W@Z:PROC ; CWnd::get_accName
EXTRN	?get_accValue@CWnd@@UAEJUtagVARIANT@@PAPA_W@Z:PROC ; CWnd::get_accValue
EXTRN	?get_accDescription@CWnd@@UAEJUtagVARIANT@@PAPA_W@Z:PROC ; CWnd::get_accDescription
EXTRN	?get_accRole@CWnd@@UAEJUtagVARIANT@@PAU2@@Z:PROC ; CWnd::get_accRole
EXTRN	?get_accState@CWnd@@UAEJUtagVARIANT@@PAU2@@Z:PROC ; CWnd::get_accState
EXTRN	?get_accHelp@CWnd@@UAEJUtagVARIANT@@PAPA_W@Z:PROC ; CWnd::get_accHelp
EXTRN	?get_accHelpTopic@CWnd@@UAEJPAPA_WUtagVARIANT@@PAJ@Z:PROC ; CWnd::get_accHelpTopic
EXTRN	?get_accKeyboardShortcut@CWnd@@UAEJUtagVARIANT@@PAPA_W@Z:PROC ; CWnd::get_accKeyboardShortcut
EXTRN	?get_accFocus@CWnd@@UAEJPAUtagVARIANT@@@Z:PROC	; CWnd::get_accFocus
EXTRN	?get_accSelection@CWnd@@UAEJPAUtagVARIANT@@@Z:PROC ; CWnd::get_accSelection
EXTRN	?get_accDefaultAction@CWnd@@UAEJUtagVARIANT@@PAPA_W@Z:PROC ; CWnd::get_accDefaultAction
EXTRN	?accSelect@CWnd@@UAEJJUtagVARIANT@@@Z:PROC	; CWnd::accSelect
EXTRN	?accLocation@CWnd@@UAEJPAJ000UtagVARIANT@@@Z:PROC ; CWnd::accLocation
EXTRN	?accNavigate@CWnd@@UAEJJUtagVARIANT@@PAU2@@Z:PROC ; CWnd::accNavigate
EXTRN	?accHitTest@CWnd@@UAEJJJPAUtagVARIANT@@@Z:PROC	; CWnd::accHitTest
EXTRN	?accDoDefaultAction@CWnd@@UAEJUtagVARIANT@@@Z:PROC ; CWnd::accDoDefaultAction
EXTRN	?put_accName@CWnd@@UAEJUtagVARIANT@@PA_W@Z:PROC	; CWnd::put_accName
EXTRN	?put_accValue@CWnd@@UAEJUtagVARIANT@@PA_W@Z:PROC ; CWnd::put_accValue
EXTRN	?SetProxy@CWnd@@UAEJPAUIAccessibleProxy@@@Z:PROC ; CWnd::SetProxy
EXTRN	?CreateAccessibleProxy@CWnd@@UAEJIJPAJ@Z:PROC	; CWnd::CreateAccessibleProxy
EXTRN	?OnCommand@CWnd@@MAEHIJ@Z:PROC			; CWnd::OnCommand
EXTRN	?OnNotify@CWnd@@MAEHIJPAJ@Z:PROC		; CWnd::OnNotify
EXTRN	?OnDestroy@CWnd@@IAEXXZ:PROC			; CWnd::OnDestroy
EXTRN	?GetSuperWndProcAddr@CWnd@@MAEPAP6GJPAUHWND__@@IIJ@ZXZ:PROC ; CWnd::GetSuperWndProcAddr
EXTRN	?PreTranslateMessage@CWnd@@UAEHPAUtagMSG@@@Z:PROC ; CWnd::PreTranslateMessage
EXTRN	?OnAmbientProperty@CWnd@@UAEHPAVCOleControlSite@@JPAUtagVARIANT@@@Z:PROC ; CWnd::OnAmbientProperty
EXTRN	?WindowProc@CWnd@@MAEJIIJ@Z:PROC		; CWnd::WindowProc
EXTRN	?OnWndMsg@CWnd@@MAEHIIJPAJ@Z:PROC		; CWnd::OnWndMsg
EXTRN	?Default@CWnd@@IAEJXZ:PROC			; CWnd::Default
EXTRN	?DefWindowProcA@CWnd@@MAEJIIJ@Z:PROC		; CWnd::DefWindowProcA
EXTRN	?PostNcDestroy@CWnd@@MAEXXZ:PROC		; CWnd::PostNcDestroy
EXTRN	?OnTouchInputs@CWnd@@MAEHIPAUtagTOUCHINPUT@@@Z:PROC ; CWnd::OnTouchInputs
EXTRN	?OnTouchInput@CWnd@@MAEHVCPoint@@HHPAUtagTOUCHINPUT@@@Z:PROC ; CWnd::OnTouchInput
EXTRN	?GetGestureStatus@CWnd@@MAEKVCPoint@@@Z:PROC	; CWnd::GetGestureStatus
EXTRN	?OnGestureZoom@CWnd@@MAEHVCPoint@@J@Z:PROC	; CWnd::OnGestureZoom
EXTRN	?OnGesturePan@CWnd@@MAEHVCPoint@@0@Z:PROC	; CWnd::OnGesturePan
EXTRN	?OnGestureRotate@CWnd@@MAEHVCPoint@@N@Z:PROC	; CWnd::OnGestureRotate
EXTRN	?OnGestureTwoFingerTap@CWnd@@MAEHVCPoint@@@Z:PROC ; CWnd::OnGestureTwoFingerTap
EXTRN	?OnGesturePressAndTap@CWnd@@MAEHVCPoint@@J@Z:PROC ; CWnd::OnGesturePressAndTap
EXTRN	?ResizeDynamicLayout@CWnd@@MAEXXZ:PROC		; CWnd::ResizeDynamicLayout
EXTRN	?CheckAutoCenter@CWnd@@UAEHXZ:PROC		; CWnd::CheckAutoCenter
EXTRN	?IsFrameWnd@CWnd@@UBEHXZ:PROC			; CWnd::IsFrameWnd
EXTRN	?OnFinalRelease@CWnd@@UAEXXZ:PROC		; CWnd::OnFinalRelease
EXTRN	?CreateControlContainer@CWnd@@MAEHPAPAVCOleControlContainer@@@Z:PROC ; CWnd::CreateControlContainer
EXTRN	?CreateControlSite@CWnd@@MAEHPAVCOleControlContainer@@PAPAVCOleControlSite@@IABU_GUID@@@Z:PROC ; CWnd::CreateControlSite
EXTRN	?SetOccDialogInfo@CWnd@@MAEHPAU_AFX_OCC_DIALOG_INFO@@@Z:PROC ; CWnd::SetOccDialogInfo
EXTRN	?GetOccDialogInfo@CWnd@@MAEPAU_AFX_OCC_DIALOG_INFO@@XZ:PROC ; CWnd::GetOccDialogInfo
EXTRN	?GetThisMessageMap@CWnd@@KGPBUAFX_MSGMAP@@XZ:PROC ; CWnd::GetThisMessageMap
EXTRN	?GetMessageMap@CWnd@@MBEPBUAFX_MSGMAP@@XZ:PROC	; CWnd::GetMessageMap
EXTRN	?GetRuntimeClass@CButton@@UBEPAUCRuntimeClass@@XZ:PROC ; CButton::GetRuntimeClass
EXTRN	?Create@CButton@@UAEHPBDKABUtagRECT@@PAVCWnd@@I@Z:PROC ; CButton::Create
EXTRN	?DrawItem@CButton@@UAEXPAUtagDRAWITEMSTRUCT@@@Z:PROC ; CButton::DrawItem
EXTRN	??1CButton@@UAE@XZ:PROC				; CButton::~CButton
EXTRN	?OnChildNotify@CButton@@MAEHIIJPAJ@Z:PROC	; CButton::OnChildNotify
EXTRN	??_ECButton@@UAEPAXI@Z:PROC			; CButton::`vector deleting destructor'
EXTRN	?AfxMessageBox@@YGHPBDII@Z:PROC			; AfxMessageBox
EXTRN	??0CToolTipCtrl@@QAE@XZ:PROC			; CToolTipCtrl::CToolTipCtrl
EXTRN	?AddTool@CToolTipCtrl@@QAEHPAVCWnd@@PBDPBUtagRECT@@I@Z:PROC ; CToolTipCtrl::AddTool
EXTRN	?UpdateTipText@CToolTipCtrl@@QAEXPBDPAVCWnd@@I@Z:PROC ; CToolTipCtrl::UpdateTipText
EXTRN	??1CToolTipCtrl@@UAE@XZ:PROC			; CToolTipCtrl::~CToolTipCtrl
EXTRN	??_ECILButton@@UAEPAXI@Z:PROC			; CILButton::`vector deleting destructor'
EXTRN	@__security_check_cookie@4:PROC
EXTRN	___CxxFrameHandler3:PROC
EXTRN	??_7type_info@@6B@:QWORD			; type_info::`vftable'
EXTRN	___security_cookie:DWORD
;	COMDAT __xmm@00000190000000000000000000000000
CONST	SEGMENT
__xmm@00000190000000000000000000000000 DB 00H, 00H, 00H, 00H, 00H, 00H, 00H
	DB	00H, 00H, 00H, 00H, 00H, 090H, 01H, 00H, 00H
CONST	ENDS
;	COMDAT ??_R1A@?0A@EA@CILButton@@8
rdata$r	SEGMENT
??_R1A@?0A@EA@CILButton@@8 DD FLAT:??_R0?AVCILButton@@@8 ; CILButton::`RTTI Base Class Descriptor at (0,-1,0,64)'
	DD	04H
	DD	00H
	DD	0ffffffffH
	DD	00H
	DD	040H
	DD	FLAT:??_R3CILButton@@8
rdata$r	ENDS
;	COMDAT ??_R2CILButton@@8
rdata$r	SEGMENT
??_R2CILButton@@8 DD FLAT:??_R1A@?0A@EA@CILButton@@8	; CILButton::`RTTI Base Class Array'
	DD	FLAT:??_R1A@?0A@EA@CButton@@8
	DD	FLAT:??_R1A@?0A@EA@CWnd@@8
	DD	FLAT:??_R1A@?0A@EA@CCmdTarget@@8
	DD	FLAT:??_R1A@?0A@EA@CObject@@8
rdata$r	ENDS
;	COMDAT ??_R3CILButton@@8
rdata$r	SEGMENT
??_R3CILButton@@8 DD 00H				; CILButton::`RTTI Class Hierarchy Descriptor'
	DD	00H
	DD	05H
	DD	FLAT:??_R2CILButton@@8
rdata$r	ENDS
;	COMDAT ??_R0?AVCILButton@@@8
data$rs	SEGMENT
??_R0?AVCILButton@@@8 DD FLAT:??_7type_info@@6B@	; CILButton `RTTI Type Descriptor'
	DD	00H
	DB	'.?AVCILButton@@', 00H
data$rs	ENDS
;	COMDAT ??_R4CILButton@@6B@
rdata$r	SEGMENT
??_R4CILButton@@6B@ DD 00H				; CILButton::`RTTI Complete Object Locator'
	DD	00H
	DD	00H
	DD	FLAT:??_R0?AVCILButton@@@8
	DD	FLAT:??_R3CILButton@@8
rdata$r	ENDS
;	COMDAT ??_C@_06MFMMLLPC@?$LB?$LM?$LI?$LC?C?$LM@
CONST	SEGMENT
??_C@_06MFMMLLPC@?$LB?$LM?$LI?$LC?C?$LM@ DB 0b1H, 0bcH, 0b8H, 0b2H, 0c3H, 0bcH
	DB	00H						; `string'
CONST	ENDS
;	COMDAT ?messageMap@?1??GetThisMessageMap@CILButton@@KGPBUAFX_MSGMAP@@XZ@4U3@B
CONST	SEGMENT
?messageMap@?1??GetThisMessageMap@CILButton@@KGPBUAFX_MSGMAP@@XZ@4U3@B DD FLAT:?GetThisMessageMap@CWnd@@KGPBUAFX_MSGMAP@@XZ ; `CILButton::GetThisMessageMap'::`2'::messageMap
	DD	FLAT:?_messageEntries@?1??GetThisMessageMap@CILButton@@KGPBUAFX_MSGMAP@@XZ@4QBUAFX_MSGMAP_ENTRY@@B
CONST	ENDS
;	COMDAT ?_messageEntries@?1??GetThisMessageMap@CILButton@@KGPBUAFX_MSGMAP@@XZ@4QBUAFX_MSGMAP_ENTRY@@B
CONST	SEGMENT
?_messageEntries@?1??GetThisMessageMap@CILButton@@KGPBUAFX_MSGMAP@@XZ@4QBUAFX_MSGMAP_ENTRY@@B DD 01H ; `CILButton::GetThisMessageMap'::`2'::_messageEntries
	DD	00H
	DD	00H
	DD	00H
	DD	0dH
	DD	FLAT:?OnCreate@CILButton@@IAEHPAUtagCREATESTRUCTA@@@Z
	DD	02H
	DD	00H
	DD	00H
	DD	00H
	DD	013H
	DD	FLAT:?OnDestroy@CILButton@@IAEXXZ
	DD	014H
	DD	00H
	DD	00H
	DD	00H
	DD	01H
	DD	FLAT:?OnEraseBkgnd@CILButton@@IAEHPAVCDC@@@Z
	DD	0201H
	DD	00H
	DD	00H
	DD	00H
	DD	036H
	DD	FLAT:?OnLButtonDown@CILButton@@IAEXIVCPoint@@@Z
	DD	0202H
	DD	00H
	DD	00H
	DD	00H
	DD	036H
	DD	FLAT:?OnLButtonUp@CILButton@@IAEXIVCPoint@@@Z
	DD	0200H
	DD	00H
	DD	00H
	DD	00H
	DD	036H
	DD	FLAT:?OnMouseMove@CILButton@@IAEXIVCPoint@@@Z
	DD	0a2H
	DD	00H
	DD	00H
	DD	00H
	DD	036H
	DD	FLAT:?OnNcLButtonUp@CILButton@@IAEXIVCPoint@@@Z
	DD	0113H
	DD	00H
	DD	00H
	DD	00H
	DD	015H
	DD	FLAT:?OnTimer@CILButton@@IAEXI@Z
	DD	00H
	DD	00H
	DD	00H
	DD	00H
	DD	00H
	DD	00H
CONST	ENDS
;	COMDAT ??_7CILButton@@6B@
CONST	SEGMENT
??_7CILButton@@6B@ DD FLAT:??_R4CILButton@@6B@		; CILButton::`vftable'
	DD	FLAT:?GetRuntimeClass@CButton@@UBEPAUCRuntimeClass@@XZ
	DD	FLAT:??_ECILButton@@UAEPAXI@Z
	DD	FLAT:?Serialize@CObject@@UAEXAAVCArchive@@@Z
	DD	FLAT:?AssertValid@CObject@@UBEXXZ
	DD	FLAT:?Dump@CObject@@UBEXAAVCDumpContext@@@Z
	DD	FLAT:?OnCmdMsg@CCmdTarget@@UAEHIHPAXPAUAFX_CMDHANDLERINFO@@@Z
	DD	FLAT:?OnFinalRelease@CWnd@@UAEXXZ
	DD	FLAT:?IsInvokeAllowed@CCmdTarget@@UAEHJ@Z
	DD	FLAT:?GetDispatchIID@CCmdTarget@@UAEHPAU_GUID@@@Z
	DD	FLAT:?GetTypeInfoCount@CCmdTarget@@UAEIXZ
	DD	FLAT:?GetTypeLibCache@CCmdTarget@@UAEPAVCTypeLibCache@@XZ
	DD	FLAT:?GetTypeLib@CCmdTarget@@UAEJKPAPAUITypeLib@@@Z
	DD	FLAT:?GetMessageMap@CILButton@@MBEPBUAFX_MSGMAP@@XZ
	DD	FLAT:?GetCommandMap@CCmdTarget@@MBEPBUAFX_OLECMDMAP@@XZ
	DD	FLAT:?GetDispatchMap@CCmdTarget@@MBEPBUAFX_DISPMAP@@XZ
	DD	FLAT:?GetConnectionMap@CCmdTarget@@MBEPBUAFX_CONNECTIONMAP@@XZ
	DD	FLAT:?GetInterfaceMap@CWnd@@MBEPBUAFX_INTERFACEMAP@@XZ
	DD	FLAT:?GetEventSinkMap@CCmdTarget@@MBEPBUAFX_EVENTSINKMAP@@XZ
	DD	FLAT:?OnCreateAggregates@CCmdTarget@@UAEHXZ
	DD	FLAT:?GetInterfaceHook@CCmdTarget@@UAEPAUIUnknown@@PBX@Z
	DD	FLAT:?GetExtraConnectionPoints@CCmdTarget@@MAEHPAVCPtrArray@@@Z
	DD	FLAT:?GetConnectionHook@CCmdTarget@@MAEPAUIConnectionPoint@@ABU_GUID@@@Z
	DD	FLAT:?PreSubclassWindow@CILButton@@MAEXXZ
	DD	FLAT:?Create@CWnd@@UAEHPBD0KABUtagRECT@@PAV1@IPAUCCreateContext@@@Z
	DD	FLAT:?CreateEx@CWnd@@UAEHKPBD0KABUtagRECT@@PAV1@IPAX@Z
	DD	FLAT:?CreateEx@CWnd@@UAEHKPBD0KHHHHPAUHWND__@@PAUHMENU__@@PAX@Z
	DD	FLAT:?DestroyWindow@CWnd@@UAEHXZ
	DD	FLAT:?PreCreateWindow@CWnd@@UAEHAAUtagCREATESTRUCTA@@@Z
	DD	FLAT:?CalcWindowRect@CWnd@@UAEXPAUtagRECT@@I@Z
	DD	FLAT:?GetMenu@CWnd@@UBEPAVCMenu@@XZ
	DD	FLAT:?SetMenu@CWnd@@UAEHPAVCMenu@@@Z
	DD	FLAT:?OnToolHitTest@CWnd@@UBEHVCPoint@@PAUtagTOOLINFOA@@@Z
	DD	FLAT:?GetScrollBarCtrl@CWnd@@UBEPAVCScrollBar@@H@Z
	DD	FLAT:?WinHelpA@CWnd@@UAEXKI@Z
	DD	FLAT:?HtmlHelpA@CWnd@@UAEXKI@Z
	DD	FLAT:?WinHelpInternal@CWnd@@UAEXKI@Z
	DD	FLAT:?ContinueModal@CWnd@@UAEHXZ
	DD	FLAT:?EndModalLoop@CWnd@@UAEXH@Z
	DD	FLAT:?OnDrawIconicThumbnailOrLivePreview@CWnd@@UAEXAAVCDC@@VCRect@@VCSize@@HAAH@Z
	DD	FLAT:?EnsureStdObj@CWnd@@UAEJXZ
	DD	FLAT:?get_accParent@CWnd@@UAEJPAPAUIDispatch@@@Z
	DD	FLAT:?get_accChildCount@CWnd@@UAEJPAJ@Z
	DD	FLAT:?get_accChild@CWnd@@UAEJUtagVARIANT@@PAPAUIDispatch@@@Z
	DD	FLAT:?get_accName@CWnd@@UAEJUtagVARIANT@@PAPA_W@Z
	DD	FLAT:?get_accValue@CWnd@@UAEJUtagVARIANT@@PAPA_W@Z
	DD	FLAT:?get_accDescription@CWnd@@UAEJUtagVARIANT@@PAPA_W@Z
	DD	FLAT:?get_accRole@CWnd@@UAEJUtagVARIANT@@PAU2@@Z
	DD	FLAT:?get_accState@CWnd@@UAEJUtagVARIANT@@PAU2@@Z
	DD	FLAT:?get_accHelp@CWnd@@UAEJUtagVARIANT@@PAPA_W@Z
	DD	FLAT:?get_accHelpTopic@CWnd@@UAEJPAPA_WUtagVARIANT@@PAJ@Z
	DD	FLAT:?get_accKeyboardShortcut@CWnd@@UAEJUtagVARIANT@@PAPA_W@Z
	DD	FLAT:?get_accFocus@CWnd@@UAEJPAUtagVARIANT@@@Z
	DD	FLAT:?get_accSelection@CWnd@@UAEJPAUtagVARIANT@@@Z
	DD	FLAT:?get_accDefaultAction@CWnd@@UAEJUtagVARIANT@@PAPA_W@Z
	DD	FLAT:?accSelect@CWnd@@UAEJJUtagVARIANT@@@Z
	DD	FLAT:?accLocation@CWnd@@UAEJPAJ000UtagVARIANT@@@Z
	DD	FLAT:?accNavigate@CWnd@@UAEJJUtagVARIANT@@PAU2@@Z
	DD	FLAT:?accHitTest@CWnd@@UAEJJJPAUtagVARIANT@@@Z
	DD	FLAT:?accDoDefaultAction@CWnd@@UAEJUtagVARIANT@@@Z
	DD	FLAT:?put_accName@CWnd@@UAEJUtagVARIANT@@PA_W@Z
	DD	FLAT:?put_accValue@CWnd@@UAEJUtagVARIANT@@PA_W@Z
	DD	FLAT:?SetProxy@CWnd@@UAEJPAUIAccessibleProxy@@@Z
	DD	FLAT:?CreateAccessibleProxy@CWnd@@UAEJIJPAJ@Z
	DD	FLAT:?OnCommand@CWnd@@MAEHIJ@Z
	DD	FLAT:?OnNotify@CWnd@@MAEHIJPAJ@Z
	DD	FLAT:?GetSuperWndProcAddr@CWnd@@MAEPAP6GJPAUHWND__@@IIJ@ZXZ
	DD	FLAT:?DoDataExchange@CWnd@@MAEXPAVCDataExchange@@@Z
	DD	FLAT:?BeginModalState@CWnd@@UAEXXZ
	DD	FLAT:?EndModalState@CWnd@@UAEXXZ
	DD	FLAT:?PreTranslateMessage@CWnd@@UAEHPAUtagMSG@@@Z
	DD	FLAT:?OnAmbientProperty@CWnd@@UAEHPAVCOleControlSite@@JPAUtagVARIANT@@@Z
	DD	FLAT:?WindowProc@CWnd@@MAEJIIJ@Z
	DD	FLAT:?OnWndMsg@CWnd@@MAEHIIJPAJ@Z
	DD	FLAT:?DefWindowProcA@CWnd@@MAEJIIJ@Z
	DD	FLAT:?PostNcDestroy@CWnd@@MAEXXZ
	DD	FLAT:?OnChildNotify@CButton@@MAEHIIJPAJ@Z
	DD	FLAT:?OnTouchInputs@CWnd@@MAEHIPAUtagTOUCHINPUT@@@Z
	DD	FLAT:?OnTouchInput@CWnd@@MAEHVCPoint@@HHPAUtagTOUCHINPUT@@@Z
	DD	FLAT:?GetGestureStatus@CWnd@@MAEKVCPoint@@@Z
	DD	FLAT:?OnGestureZoom@CWnd@@MAEHVCPoint@@J@Z
	DD	FLAT:?OnGesturePan@CWnd@@MAEHVCPoint@@0@Z
	DD	FLAT:?OnGestureRotate@CWnd@@MAEHVCPoint@@N@Z
	DD	FLAT:?OnGestureTwoFingerTap@CWnd@@MAEHVCPoint@@@Z
	DD	FLAT:?OnGesturePressAndTap@CWnd@@MAEHVCPoint@@J@Z
	DD	FLAT:?ResizeDynamicLayout@CWnd@@MAEXXZ
	DD	FLAT:?CheckAutoCenter@CWnd@@UAEHXZ
	DD	FLAT:?IsFrameWnd@CWnd@@UBEHXZ
	DD	FLAT:?CreateControlContainer@CWnd@@MAEHPAPAVCOleControlContainer@@@Z
	DD	FLAT:?CreateControlSite@CWnd@@MAEHPAVCOleControlContainer@@PAPAVCOleControlSite@@IABU_GUID@@@Z
	DD	FLAT:?SetOccDialogInfo@CWnd@@MAEHPAU_AFX_OCC_DIALOG_INFO@@@Z
	DD	FLAT:?GetOccDialogInfo@CWnd@@MAEPAU_AFX_OCC_DIALOG_INFO@@XZ
	DD	FLAT:?Create@CButton@@UAEHPBDKABUtagRECT@@PAVCWnd@@I@Z
	DD	FLAT:?DrawItem@CILButton@@UAEXPAUtagDRAWITEMSTRUCT@@@Z
CONST	ENDS
;	COMDAT ??_R1A@?0A@EA@CButton@@8
rdata$r	SEGMENT
??_R1A@?0A@EA@CButton@@8 DD FLAT:??_R0?AVCButton@@@8	; CButton::`RTTI Base Class Descriptor at (0,-1,0,64)'
	DD	03H
	DD	00H
	DD	0ffffffffH
	DD	00H
	DD	040H
	DD	FLAT:??_R3CButton@@8
rdata$r	ENDS
;	COMDAT ??_R2CButton@@8
rdata$r	SEGMENT
??_R2CButton@@8 DD FLAT:??_R1A@?0A@EA@CButton@@8	; CButton::`RTTI Base Class Array'
	DD	FLAT:??_R1A@?0A@EA@CWnd@@8
	DD	FLAT:??_R1A@?0A@EA@CCmdTarget@@8
	DD	FLAT:??_R1A@?0A@EA@CObject@@8
rdata$r	ENDS
;	COMDAT ??_R3CButton@@8
rdata$r	SEGMENT
??_R3CButton@@8 DD 00H					; CButton::`RTTI Class Hierarchy Descriptor'
	DD	00H
	DD	04H
	DD	FLAT:??_R2CButton@@8
rdata$r	ENDS
;	COMDAT ??_R0?AVCButton@@@8
data$rs	SEGMENT
??_R0?AVCButton@@@8 DD FLAT:??_7type_info@@6B@		; CButton `RTTI Type Descriptor'
	DD	00H
	DB	'.?AVCButton@@', 00H
data$rs	ENDS
;	COMDAT ??_R4CButton@@6B@
rdata$r	SEGMENT
??_R4CButton@@6B@ DD 00H				; CButton::`RTTI Complete Object Locator'
	DD	00H
	DD	00H
	DD	FLAT:??_R0?AVCButton@@@8
	DD	FLAT:??_R3CButton@@8
rdata$r	ENDS
;	COMDAT ??_R2CCmdTarget@@8
rdata$r	SEGMENT
??_R2CCmdTarget@@8 DD FLAT:??_R1A@?0A@EA@CCmdTarget@@8	; CCmdTarget::`RTTI Base Class Array'
	DD	FLAT:??_R1A@?0A@EA@CObject@@8
rdata$r	ENDS
;	COMDAT ??_R3CCmdTarget@@8
rdata$r	SEGMENT
??_R3CCmdTarget@@8 DD 00H				; CCmdTarget::`RTTI Class Hierarchy Descriptor'
	DD	00H
	DD	02H
	DD	FLAT:??_R2CCmdTarget@@8
rdata$r	ENDS
;	COMDAT ??_R0?AVCCmdTarget@@@8
data$rs	SEGMENT
??_R0?AVCCmdTarget@@@8 DD FLAT:??_7type_info@@6B@	; CCmdTarget `RTTI Type Descriptor'
	DD	00H
	DB	'.?AVCCmdTarget@@', 00H
data$rs	ENDS
;	COMDAT ??_R1A@?0A@EA@CCmdTarget@@8
rdata$r	SEGMENT
??_R1A@?0A@EA@CCmdTarget@@8 DD FLAT:??_R0?AVCCmdTarget@@@8 ; CCmdTarget::`RTTI Base Class Descriptor at (0,-1,0,64)'
	DD	01H
	DD	00H
	DD	0ffffffffH
	DD	00H
	DD	040H
	DD	FLAT:??_R3CCmdTarget@@8
rdata$r	ENDS
;	COMDAT ??_R2CWnd@@8
rdata$r	SEGMENT
??_R2CWnd@@8 DD	FLAT:??_R1A@?0A@EA@CWnd@@8		; CWnd::`RTTI Base Class Array'
	DD	FLAT:??_R1A@?0A@EA@CCmdTarget@@8
	DD	FLAT:??_R1A@?0A@EA@CObject@@8
rdata$r	ENDS
;	COMDAT ??_R3CWnd@@8
rdata$r	SEGMENT
??_R3CWnd@@8 DD	00H					; CWnd::`RTTI Class Hierarchy Descriptor'
	DD	00H
	DD	03H
	DD	FLAT:??_R2CWnd@@8
rdata$r	ENDS
;	COMDAT ??_R0?AVCWnd@@@8
data$rs	SEGMENT
??_R0?AVCWnd@@@8 DD FLAT:??_7type_info@@6B@		; CWnd `RTTI Type Descriptor'
	DD	00H
	DB	'.?AVCWnd@@', 00H
data$rs	ENDS
;	COMDAT ??_R1A@?0A@EA@CWnd@@8
rdata$r	SEGMENT
??_R1A@?0A@EA@CWnd@@8 DD FLAT:??_R0?AVCWnd@@@8		; CWnd::`RTTI Base Class Descriptor at (0,-1,0,64)'
	DD	02H
	DD	00H
	DD	0ffffffffH
	DD	00H
	DD	040H
	DD	FLAT:??_R3CWnd@@8
rdata$r	ENDS
;	COMDAT ??_R1A@?0A@EA@CFont@@8
rdata$r	SEGMENT
??_R1A@?0A@EA@CFont@@8 DD FLAT:??_R0?AVCFont@@@8	; CFont::`RTTI Base Class Descriptor at (0,-1,0,64)'
	DD	02H
	DD	00H
	DD	0ffffffffH
	DD	00H
	DD	040H
	DD	FLAT:??_R3CFont@@8
rdata$r	ENDS
;	COMDAT ??_R2CFont@@8
rdata$r	SEGMENT
??_R2CFont@@8 DD FLAT:??_R1A@?0A@EA@CFont@@8		; CFont::`RTTI Base Class Array'
	DD	FLAT:??_R1A@?0A@EA@CGdiObject@@8
	DD	FLAT:??_R1A@?0A@EA@CObject@@8
rdata$r	ENDS
;	COMDAT ??_R3CFont@@8
rdata$r	SEGMENT
??_R3CFont@@8 DD 00H					; CFont::`RTTI Class Hierarchy Descriptor'
	DD	00H
	DD	03H
	DD	FLAT:??_R2CFont@@8
rdata$r	ENDS
;	COMDAT ??_R0?AVCFont@@@8
data$rs	SEGMENT
??_R0?AVCFont@@@8 DD FLAT:??_7type_info@@6B@		; CFont `RTTI Type Descriptor'
	DD	00H
	DB	'.?AVCFont@@', 00H
data$rs	ENDS
;	COMDAT ??_R4CFont@@6B@
rdata$r	SEGMENT
??_R4CFont@@6B@ DD 00H					; CFont::`RTTI Complete Object Locator'
	DD	00H
	DD	00H
	DD	FLAT:??_R0?AVCFont@@@8
	DD	FLAT:??_R3CFont@@8
rdata$r	ENDS
;	COMDAT ??_R1A@?0A@EA@CGdiObject@@8
rdata$r	SEGMENT
??_R1A@?0A@EA@CGdiObject@@8 DD FLAT:??_R0?AVCGdiObject@@@8 ; CGdiObject::`RTTI Base Class Descriptor at (0,-1,0,64)'
	DD	01H
	DD	00H
	DD	0ffffffffH
	DD	00H
	DD	040H
	DD	FLAT:??_R3CGdiObject@@8
rdata$r	ENDS
;	COMDAT ??_R2CGdiObject@@8
rdata$r	SEGMENT
??_R2CGdiObject@@8 DD FLAT:??_R1A@?0A@EA@CGdiObject@@8	; CGdiObject::`RTTI Base Class Array'
	DD	FLAT:??_R1A@?0A@EA@CObject@@8
rdata$r	ENDS
;	COMDAT ??_R3CGdiObject@@8
rdata$r	SEGMENT
??_R3CGdiObject@@8 DD 00H				; CGdiObject::`RTTI Class Hierarchy Descriptor'
	DD	00H
	DD	02H
	DD	FLAT:??_R2CGdiObject@@8
rdata$r	ENDS
;	COMDAT ??_R0?AVCGdiObject@@@8
data$rs	SEGMENT
??_R0?AVCGdiObject@@@8 DD FLAT:??_7type_info@@6B@	; CGdiObject `RTTI Type Descriptor'
	DD	00H
	DB	'.?AVCGdiObject@@', 00H
data$rs	ENDS
;	COMDAT ??_R4CGdiObject@@6B@
rdata$r	SEGMENT
??_R4CGdiObject@@6B@ DD 00H				; CGdiObject::`RTTI Complete Object Locator'
	DD	00H
	DD	00H
	DD	FLAT:??_R0?AVCGdiObject@@@8
	DD	FLAT:??_R3CGdiObject@@8
rdata$r	ENDS
;	COMDAT ??_R1A@?0A@EA@CObject@@8
rdata$r	SEGMENT
??_R1A@?0A@EA@CObject@@8 DD FLAT:??_R0?AVCObject@@@8	; CObject::`RTTI Base Class Descriptor at (0,-1,0,64)'
	DD	00H
	DD	00H
	DD	0ffffffffH
	DD	00H
	DD	040H
	DD	FLAT:??_R3CObject@@8
rdata$r	ENDS
;	COMDAT ??_R2CObject@@8
rdata$r	SEGMENT
??_R2CObject@@8 DD FLAT:??_R1A@?0A@EA@CObject@@8	; CObject::`RTTI Base Class Array'
rdata$r	ENDS
;	COMDAT ??_R3CObject@@8
rdata$r	SEGMENT
??_R3CObject@@8 DD 00H					; CObject::`RTTI Class Hierarchy Descriptor'
	DD	00H
	DD	01H
	DD	FLAT:??_R2CObject@@8
rdata$r	ENDS
;	COMDAT ??_R0?AVCObject@@@8
data$rs	SEGMENT
??_R0?AVCObject@@@8 DD FLAT:??_7type_info@@6B@		; CObject `RTTI Type Descriptor'
	DD	00H
	DB	'.?AVCObject@@', 00H
data$rs	ENDS
;	COMDAT ??_C@_0N@OMEMOKLE@?$CFTs?5?$CI?$CFTs?3?$CFd?$CJ@
CONST	SEGMENT
??_C@_0N@OMEMOKLE@?$CFTs?5?$CI?$CFTs?3?$CFd?$CJ@ DB '%Ts (%Ts:%d)', 00H ; `string'
CONST	ENDS
;	COMDAT ??_C@_0BB@HBOOMJBF@?$CFTs?5?$CI?$CFTs?3?$CFd?$CJ?6?$CFTs@
CONST	SEGMENT
??_C@_0BB@HBOOMJBF@?$CFTs?5?$CI?$CFTs?3?$CFd?$CJ?6?$CFTs@ DB '%Ts (%Ts:%d'
	DB	')', 0aH, '%Ts', 00H				; `string'
CONST	ENDS
;	COMDAT ??_C@_0BP@OIEOKIDM@Exception?5thrown?5in?5destructor@
CONST	SEGMENT
??_C@_0BP@OIEOKIDM@Exception?5thrown?5in?5destructor@ DB 'Exception throw'
	DB	'n in destructor', 00H			; `string'
CONST	ENDS
;	COMDAT ??_C@_0HD@JJCHHHNK@C?3?2Program?5Files?5?$CIx86?$CJ?2Microsof@
CONST	SEGMENT
??_C@_0HD@JJCHHHNK@C?3?2Program?5Files?5?$CIx86?$CJ?2Microsof@ DB 'C:\Pro'
	DB	'gram Files (x86)\Microsoft Visual Studio\2019\Community\VC\To'
	DB	'ols\MSVC\14.29.30133\atlmfc\include\afxwin1.inl', 00H ; `string'
CONST	ENDS
;	COMDAT ??_7CButton@@6B@
CONST	SEGMENT
??_7CButton@@6B@ DD FLAT:??_R4CButton@@6B@		; CButton::`vftable'
	DD	FLAT:?GetRuntimeClass@CButton@@UBEPAUCRuntimeClass@@XZ
	DD	FLAT:??_ECButton@@UAEPAXI@Z
	DD	FLAT:?Serialize@CObject@@UAEXAAVCArchive@@@Z
	DD	FLAT:?AssertValid@CObject@@UBEXXZ
	DD	FLAT:?Dump@CObject@@UBEXAAVCDumpContext@@@Z
	DD	FLAT:?OnCmdMsg@CCmdTarget@@UAEHIHPAXPAUAFX_CMDHANDLERINFO@@@Z
	DD	FLAT:?OnFinalRelease@CWnd@@UAEXXZ
	DD	FLAT:?IsInvokeAllowed@CCmdTarget@@UAEHJ@Z
	DD	FLAT:?GetDispatchIID@CCmdTarget@@UAEHPAU_GUID@@@Z
	DD	FLAT:?GetTypeInfoCount@CCmdTarget@@UAEIXZ
	DD	FLAT:?GetTypeLibCache@CCmdTarget@@UAEPAVCTypeLibCache@@XZ
	DD	FLAT:?GetTypeLib@CCmdTarget@@UAEJKPAPAUITypeLib@@@Z
	DD	FLAT:?GetMessageMap@CWnd@@MBEPBUAFX_MSGMAP@@XZ
	DD	FLAT:?GetCommandMap@CCmdTarget@@MBEPBUAFX_OLECMDMAP@@XZ
	DD	FLAT:?GetDispatchMap@CCmdTarget@@MBEPBUAFX_DISPMAP@@XZ
	DD	FLAT:?GetConnectionMap@CCmdTarget@@MBEPBUAFX_CONNECTIONMAP@@XZ
	DD	FLAT:?GetInterfaceMap@CWnd@@MBEPBUAFX_INTERFACEMAP@@XZ
	DD	FLAT:?GetEventSinkMap@CCmdTarget@@MBEPBUAFX_EVENTSINKMAP@@XZ
	DD	FLAT:?OnCreateAggregates@CCmdTarget@@UAEHXZ
	DD	FLAT:?GetInterfaceHook@CCmdTarget@@UAEPAUIUnknown@@PBX@Z
	DD	FLAT:?GetExtraConnectionPoints@CCmdTarget@@MAEHPAVCPtrArray@@@Z
	DD	FLAT:?GetConnectionHook@CCmdTarget@@MAEPAUIConnectionPoint@@ABU_GUID@@@Z
	DD	FLAT:?PreSubclassWindow@CWnd@@UAEXXZ
	DD	FLAT:?Create@CWnd@@UAEHPBD0KABUtagRECT@@PAV1@IPAUCCreateContext@@@Z
	DD	FLAT:?CreateEx@CWnd@@UAEHKPBD0KABUtagRECT@@PAV1@IPAX@Z
	DD	FLAT:?CreateEx@CWnd@@UAEHKPBD0KHHHHPAUHWND__@@PAUHMENU__@@PAX@Z
	DD	FLAT:?DestroyWindow@CWnd@@UAEHXZ
	DD	FLAT:?PreCreateWindow@CWnd@@UAEHAAUtagCREATESTRUCTA@@@Z
	DD	FLAT:?CalcWindowRect@CWnd@@UAEXPAUtagRECT@@I@Z
	DD	FLAT:?GetMenu@CWnd@@UBEPAVCMenu@@XZ
	DD	FLAT:?SetMenu@CWnd@@UAEHPAVCMenu@@@Z
	DD	FLAT:?OnToolHitTest@CWnd@@UBEHVCPoint@@PAUtagTOOLINFOA@@@Z
	DD	FLAT:?GetScrollBarCtrl@CWnd@@UBEPAVCScrollBar@@H@Z
	DD	FLAT:?WinHelpA@CWnd@@UAEXKI@Z
	DD	FLAT:?HtmlHelpA@CWnd@@UAEXKI@Z
	DD	FLAT:?WinHelpInternal@CWnd@@UAEXKI@Z
	DD	FLAT:?ContinueModal@CWnd@@UAEHXZ
	DD	FLAT:?EndModalLoop@CWnd@@UAEXH@Z
	DD	FLAT:?OnDrawIconicThumbnailOrLivePreview@CWnd@@UAEXAAVCDC@@VCRect@@VCSize@@HAAH@Z
	DD	FLAT:?EnsureStdObj@CWnd@@UAEJXZ
	DD	FLAT:?get_accParent@CWnd@@UAEJPAPAUIDispatch@@@Z
	DD	FLAT:?get_accChildCount@CWnd@@UAEJPAJ@Z
	DD	FLAT:?get_accChild@CWnd@@UAEJUtagVARIANT@@PAPAUIDispatch@@@Z
	DD	FLAT:?get_accName@CWnd@@UAEJUtagVARIANT@@PAPA_W@Z
	DD	FLAT:?get_accValue@CWnd@@UAEJUtagVARIANT@@PAPA_W@Z
	DD	FLAT:?get_accDescription@CWnd@@UAEJUtagVARIANT@@PAPA_W@Z
	DD	FLAT:?get_accRole@CWnd@@UAEJUtagVARIANT@@PAU2@@Z
	DD	FLAT:?get_accState@CWnd@@UAEJUtagVARIANT@@PAU2@@Z
	DD	FLAT:?get_accHelp@CWnd@@UAEJUtagVARIANT@@PAPA_W@Z
	DD	FLAT:?get_accHelpTopic@CWnd@@UAEJPAPA_WUtagVARIANT@@PAJ@Z
	DD	FLAT:?get_accKeyboardShortcut@CWnd@@UAEJUtagVARIANT@@PAPA_W@Z
	DD	FLAT:?get_accFocus@CWnd@@UAEJPAUtagVARIANT@@@Z
	DD	FLAT:?get_accSelection@CWnd@@UAEJPAUtagVARIANT@@@Z
	DD	FLAT:?get_accDefaultAction@CWnd@@UAEJUtagVARIANT@@PAPA_W@Z
	DD	FLAT:?accSelect@CWnd@@UAEJJUtagVARIANT@@@Z
	DD	FLAT:?accLocation@CWnd@@UAEJPAJ000UtagVARIANT@@@Z
	DD	FLAT:?accNavigate@CWnd@@UAEJJUtagVARIANT@@PAU2@@Z
	DD	FLAT:?accHitTest@CWnd@@UAEJJJPAUtagVARIANT@@@Z
	DD	FLAT:?accDoDefaultAction@CWnd@@UAEJUtagVARIANT@@@Z
	DD	FLAT:?put_accName@CWnd@@UAEJUtagVARIANT@@PA_W@Z
	DD	FLAT:?put_accValue@CWnd@@UAEJUtagVARIANT@@PA_W@Z
	DD	FLAT:?SetProxy@CWnd@@UAEJPAUIAccessibleProxy@@@Z
	DD	FLAT:?CreateAccessibleProxy@CWnd@@UAEJIJPAJ@Z
	DD	FLAT:?OnCommand@CWnd@@MAEHIJ@Z
	DD	FLAT:?OnNotify@CWnd@@MAEHIJPAJ@Z
	DD	FLAT:?GetSuperWndProcAddr@CWnd@@MAEPAP6GJPAUHWND__@@IIJ@ZXZ
	DD	FLAT:?DoDataExchange@CWnd@@MAEXPAVCDataExchange@@@Z
	DD	FLAT:?BeginModalState@CWnd@@UAEXXZ
	DD	FLAT:?EndModalState@CWnd@@UAEXXZ
	DD	FLAT:?PreTranslateMessage@CWnd@@UAEHPAUtagMSG@@@Z
	DD	FLAT:?OnAmbientProperty@CWnd@@UAEHPAVCOleControlSite@@JPAUtagVARIANT@@@Z
	DD	FLAT:?WindowProc@CWnd@@MAEJIIJ@Z
	DD	FLAT:?OnWndMsg@CWnd@@MAEHIIJPAJ@Z
	DD	FLAT:?DefWindowProcA@CWnd@@MAEJIIJ@Z
	DD	FLAT:?PostNcDestroy@CWnd@@MAEXXZ
	DD	FLAT:?OnChildNotify@CButton@@MAEHIIJPAJ@Z
	DD	FLAT:?OnTouchInputs@CWnd@@MAEHIPAUtagTOUCHINPUT@@@Z
	DD	FLAT:?OnTouchInput@CWnd@@MAEHVCPoint@@HHPAUtagTOUCHINPUT@@@Z
	DD	FLAT:?GetGestureStatus@CWnd@@MAEKVCPoint@@@Z
	DD	FLAT:?OnGestureZoom@CWnd@@MAEHVCPoint@@J@Z
	DD	FLAT:?OnGesturePan@CWnd@@MAEHVCPoint@@0@Z
	DD	FLAT:?OnGestureRotate@CWnd@@MAEHVCPoint@@N@Z
	DD	FLAT:?OnGestureTwoFingerTap@CWnd@@MAEHVCPoint@@@Z
	DD	FLAT:?OnGesturePressAndTap@CWnd@@MAEHVCPoint@@J@Z
	DD	FLAT:?ResizeDynamicLayout@CWnd@@MAEXXZ
	DD	FLAT:?CheckAutoCenter@CWnd@@UAEHXZ
	DD	FLAT:?IsFrameWnd@CWnd@@UBEHXZ
	DD	FLAT:?CreateControlContainer@CWnd@@MAEHPAPAVCOleControlContainer@@@Z
	DD	FLAT:?CreateControlSite@CWnd@@MAEHPAVCOleControlContainer@@PAPAVCOleControlSite@@IABU_GUID@@@Z
	DD	FLAT:?SetOccDialogInfo@CWnd@@MAEHPAU_AFX_OCC_DIALOG_INFO@@@Z
	DD	FLAT:?GetOccDialogInfo@CWnd@@MAEPAU_AFX_OCC_DIALOG_INFO@@XZ
	DD	FLAT:?Create@CButton@@UAEHPBDKABUtagRECT@@PAVCWnd@@I@Z
	DD	FLAT:?DrawItem@CButton@@UAEXPAUtagDRAWITEMSTRUCT@@@Z
CONST	ENDS
;	COMDAT ??_7CFont@@6B@
CONST	SEGMENT
??_7CFont@@6B@ DD FLAT:??_R4CFont@@6B@			; CFont::`vftable'
	DD	FLAT:?GetRuntimeClass@CFont@@UBEPAUCRuntimeClass@@XZ
	DD	FLAT:??_ECFont@@UAEPAXI@Z
	DD	FLAT:?Serialize@CObject@@UAEXAAVCArchive@@@Z
	DD	FLAT:?AssertValid@CObject@@UBEXXZ
	DD	FLAT:?Dump@CObject@@UBEXAAVCDumpContext@@@Z
CONST	ENDS
;	COMDAT ??_7CGdiObject@@6B@
CONST	SEGMENT
??_7CGdiObject@@6B@ DD FLAT:??_R4CGdiObject@@6B@	; CGdiObject::`vftable'
	DD	FLAT:?GetRuntimeClass@CGdiObject@@UBEPAUCRuntimeClass@@XZ
	DD	FLAT:??_ECGdiObject@@UAEPAXI@Z
	DD	FLAT:?Serialize@CObject@@UAEXAAVCArchive@@@Z
	DD	FLAT:?AssertValid@CObject@@UBEXXZ
	DD	FLAT:?Dump@CObject@@UBEXAAVCDumpContext@@@Z
CONST	ENDS
;	COMDAT ??_R0PAVCException@@@8
data$r	SEGMENT
??_R0PAVCException@@@8 DD FLAT:??_7type_info@@6B@	; CException * `RTTI Type Descriptor'
	DD	00H
	DB	'.PAVCException@@', 00H
data$r	ENDS
;	COMDAT xdata$x
xdata$x	SEGMENT
__unwindtable$??_GCILButton@@UAEPAXI@Z DD 0ffffffffH
	DD	FLAT:___std_terminate
__ehfuncinfo$??_GCILButton@@UAEPAXI@Z DD 019930522H
	DD	01H
	DD	FLAT:__unwindtable$??_GCILButton@@UAEPAXI@Z
	DD	2 DUP(00H)
	DD	2 DUP(00H)
	DD	00H
	DD	05H
xdata$x	ENDS
;	COMDAT xdata$x
xdata$x	SEGMENT
__ehfuncinfo$??1CILButton@@UAE@XZ DD 019930522H
	DD	00H
	DD	00H
	DD	2 DUP(00H)
	DD	2 DUP(00H)
	DD	00H
	DD	05H
xdata$x	ENDS
;	COMDAT xdata$x
xdata$x	SEGMENT
__unwindtable$?SetBtnTitle@CILButton@@QAEXV?$CStringT@DV?$StrTraitMFC_DLL@DV?$ChTraitsCRT@D@ATL@@@@@ATL@@@Z DD 0ffffffffH
	DD	FLAT:__unwindfunclet$?SetBtnTitle@CILButton@@QAEXV?$CStringT@DV?$StrTraitMFC_DLL@DV?$ChTraitsCRT@D@ATL@@@@@ATL@@@Z$0
__ehfuncinfo$?SetBtnTitle@CILButton@@QAEXV?$CStringT@DV?$StrTraitMFC_DLL@DV?$ChTraitsCRT@D@ATL@@@@@ATL@@@Z DD 019930522H
	DD	01H
	DD	FLAT:__unwindtable$?SetBtnTitle@CILButton@@QAEXV?$CStringT@DV?$StrTraitMFC_DLL@DV?$ChTraitsCRT@D@ATL@@@@@ATL@@@Z
	DD	2 DUP(00H)
	DD	2 DUP(00H)
	DD	00H
	DD	01H
xdata$x	ENDS
;	COMDAT xdata$x
xdata$x	SEGMENT
__unwindtable$?FP_vSetToolTipText@CILButton@@QAEXV?$CStringT@DV?$StrTraitMFC_DLL@DV?$ChTraitsCRT@D@ATL@@@@@ATL@@@Z DD 0ffffffffH
	DD	FLAT:__unwindfunclet$?FP_vSetToolTipText@CILButton@@QAEXV?$CStringT@DV?$StrTraitMFC_DLL@DV?$ChTraitsCRT@D@ATL@@@@@ATL@@@Z$0
__ehfuncinfo$?FP_vSetToolTipText@CILButton@@QAEXV?$CStringT@DV?$StrTraitMFC_DLL@DV?$ChTraitsCRT@D@ATL@@@@@ATL@@@Z DD 019930522H
	DD	01H
	DD	FLAT:__unwindtable$?FP_vSetToolTipText@CILButton@@QAEXV?$CStringT@DV?$StrTraitMFC_DLL@DV?$ChTraitsCRT@D@ATL@@@@@ATL@@@Z
	DD	2 DUP(00H)
	DD	2 DUP(00H)
	DD	00H
	DD	01H
xdata$x	ENDS
;	COMDAT xdata$x
xdata$x	SEGMENT
__unwindtable$?FP_vSetImage@CILButton@@QAEXPAVCImageList@@HHHV?$CStringT@DV?$StrTraitMFC_DLL@DV?$ChTraitsCRT@D@ATL@@@@@ATL@@HHH@Z DD 0ffffffffH
	DD	FLAT:__unwindfunclet$?FP_vSetImage@CILButton@@QAEXPAVCImageList@@HHHV?$CStringT@DV?$StrTraitMFC_DLL@DV?$ChTraitsCRT@D@ATL@@@@@ATL@@HHH@Z$0
__ehfuncinfo$?FP_vSetImage@CILButton@@QAEXPAVCImageList@@HHHV?$CStringT@DV?$StrTraitMFC_DLL@DV?$ChTraitsCRT@D@ATL@@@@@ATL@@HHH@Z DD 019930522H
	DD	01H
	DD	FLAT:__unwindtable$?FP_vSetImage@CILButton@@QAEXPAVCImageList@@HHHV?$CStringT@DV?$StrTraitMFC_DLL@DV?$ChTraitsCRT@D@ATL@@@@@ATL@@HHH@Z
	DD	2 DUP(00H)
	DD	2 DUP(00H)
	DD	00H
	DD	01H
xdata$x	ENDS
;	COMDAT xdata$x
xdata$x	SEGMENT
__unwindtable$??0CILButton@@QAE@XZ DD 0ffffffffH
	DD	FLAT:__unwindfunclet$??0CILButton@@QAE@XZ$0
	DD	00H
	DD	FLAT:__unwindfunclet$??0CILButton@@QAE@XZ$1
	DD	01H
	DD	FLAT:__unwindfunclet$??0CILButton@@QAE@XZ$2
__ehfuncinfo$??0CILButton@@QAE@XZ DD 019930522H
	DD	03H
	DD	FLAT:__unwindtable$??0CILButton@@QAE@XZ
	DD	2 DUP(00H)
	DD	2 DUP(00H)
	DD	00H
	DD	01H
xdata$x	ENDS
;	COMDAT xdata$x
xdata$x	SEGMENT
__catchsym$??1CGdiObject@@UAE@XZ$3 DD 00H
	DD	FLAT:??_R0PAVCException@@@8
	DD	0fffffde4H
	DD	FLAT:__catch$??1CGdiObject@@UAE@XZ$0
__tryblocktable$??1CGdiObject@@UAE@XZ DD 00H
	DD	00H
	DD	02H
	DD	01H
	DD	FLAT:__catchsym$??1CGdiObject@@UAE@XZ$3
__unwindtable$??1CGdiObject@@UAE@XZ DD 0ffffffffH
	DD	00H
	DD	0ffffffffH
	DD	00H
	DD	01H
	DD	FLAT:__unwindfunclet$??1CGdiObject@@UAE@XZ$2
__ehfuncinfo$??1CGdiObject@@UAE@XZ DD 019930522H
	DD	03H
	DD	FLAT:__unwindtable$??1CGdiObject@@UAE@XZ
	DD	01H
	DD	FLAT:__tryblocktable$??1CGdiObject@@UAE@XZ
	DD	2 DUP(00H)
	DD	00H
	DD	05H
xdata$x	ENDS
; Function compile flags: /Ogtp
; File D:\git\src\IBK\IBK_DRFN\ProjSrc\SrcDrfn\Chart\chart_common\ILButton.cpp
; File C:\Program Files (x86)\Microsoft Visual Studio\2019\Community\VC\Tools\MSVC\14.29.30133\atlmfc\include\afxwin2.inl
; File D:\git\src\IBK\IBK_DRFN\ProjSrc\SrcDrfn\Chart\chart_common\ILButton.cpp
; File C:\Program Files (x86)\Microsoft Visual Studio\2019\Community\VC\Tools\MSVC\14.29.30133\atlmfc\include\afxwin1.inl
; File D:\git\src\IBK\IBK_DRFN\ProjSrc\SrcDrfn\Chart\chart_common\ILButton.cpp
; File C:\Program Files (x86)\Microsoft Visual Studio\2019\Community\VC\Tools\MSVC\14.29.30133\atlmfc\include\afx.inl
;	COMDAT ??_GCILButton@@UAEPAXI@Z
_TEXT	SEGMENT
__$EHRec$ = -12						; size = 12
___flags$ = 8						; size = 4
??_GCILButton@@UAEPAXI@Z PROC				; CILButton::`scalar deleting destructor', COMDAT
; _this$ = ecx
  00000	55		 push	 ebp
  00001	8b ec		 mov	 ebp, esp
  00003	6a ff		 push	 -1
  00005	68 00 00 00 00	 push	 __ehhandler$??_GCILButton@@UAEPAXI@Z
  0000a	64 a1 00 00 00
	00		 mov	 eax, DWORD PTR fs:0
  00010	50		 push	 eax
  00011	56		 push	 esi
  00012	a1 00 00 00 00	 mov	 eax, DWORD PTR ___security_cookie
  00017	33 c5		 xor	 eax, ebp
  00019	50		 push	 eax
  0001a	8d 45 f4	 lea	 eax, DWORD PTR __$EHRec$[ebp]
  0001d	64 a3 00 00 00
	00		 mov	 DWORD PTR fs:0, eax
  00023	8b f1		 mov	 esi, ecx
; File D:\git\src\IBK\IBK_DRFN\ProjSrc\SrcDrfn\Chart\chart_common\ILButton.cpp

; 36   : 	if (m_bUseToolTip)

  00025	83 be 84 00 00
	00 00		 cmp	 DWORD PTR [esi+132], 0
  0002c	c7 45 fc 00 00
	00 00		 mov	 DWORD PTR __$EHRec$[ebp+8], 0
  00033	c7 06 00 00 00
	00		 mov	 DWORD PTR [esi], OFFSET ??_7CILButton@@6B@
  00039	74 15		 je	 SHORT $LN9@scalar

; 38   : 		if (m_Tooltip.GetSafeHwnd())

  0003b	8d 8e b8 00 00
	00		 lea	 ecx, DWORD PTR [esi+184]
; File C:\Program Files (x86)\Microsoft Visual Studio\2019\Community\VC\Tools\MSVC\14.29.30133\atlmfc\include\afxwin2.inl

; 25   : 	{ return this == NULL ? NULL : m_hWnd; }

  00041	85 c9		 test	 ecx, ecx
  00043	74 0b		 je	 SHORT $LN9@scalar
; File D:\git\src\IBK\IBK_DRFN\ProjSrc\SrcDrfn\Chart\chart_common\ILButton.cpp

; 38   : 		if (m_Tooltip.GetSafeHwnd())

  00045	83 79 20 00	 cmp	 DWORD PTR [ecx+32], 0
  00049	74 05		 je	 SHORT $LN9@scalar

; 39   : 		{
; 40   : 			//m_Tooltip.DestroyToolTipCtrl();	
; 41   : 			m_Tooltip.DestroyWindow();

  0004b	8b 01		 mov	 eax, DWORD PTR [ecx]
  0004d	ff 50 68	 call	 DWORD PTR [eax+104]
$LN9@scalar:

; 44   : }

  00050	8d 8e b8 00 00
	00		 lea	 ecx, DWORD PTR [esi+184]
  00056	e8 00 00 00 00	 call	 ??1CToolTipCtrl@@UAE@XZ	; CToolTipCtrl::~CToolTipCtrl
  0005b	8d 8e 90 00 00
	00		 lea	 ecx, DWORD PTR [esi+144]
; File C:\Program Files (x86)\Microsoft Visual Studio\2019\Community\VC\Tools\MSVC\14.29.30133\atlmfc\include\afxwin1.inl

; 155  : 	{ }

  00061	c7 01 00 00 00
	00		 mov	 DWORD PTR [ecx], OFFSET ??_7CFont@@6B@
  00067	e8 00 00 00 00	 call	 ??1CGdiObject@@UAE@XZ	; CGdiObject::~CGdiObject
; File D:\git\src\IBK\IBK_DRFN\ProjSrc\SrcDrfn\Chart\chart_common\ILButton.cpp

; 44   : }

  0006c	8d 8e 88 00 00
	00		 lea	 ecx, DWORD PTR [esi+136]
  00072	ff 15 00 00 00
	00		 call	 DWORD PTR __imp_??1?$CStringT@DV?$StrTraitMFC_DLL@DV?$ChTraitsCRT@D@ATL@@@@@ATL@@QAE@XZ
  00078	8b ce		 mov	 ecx, esi
  0007a	e8 00 00 00 00	 call	 ??1CButton@@UAE@XZ	; CButton::~CButton
  0007f	8b 45 08	 mov	 eax, DWORD PTR ___flags$[ebp]
  00082	a8 01		 test	 al, 1
  00084	74 2f		 je	 SHORT $LN21@scalar
  00086	a8 04		 test	 al, 4
  00088	75 1d		 jne	 SHORT $LN3@scalar
; File C:\Program Files (x86)\Microsoft Visual Studio\2019\Community\VC\Tools\MSVC\14.29.30133\atlmfc\include\afx.inl

; 112  : 	{ ::operator delete(p); }

  0008a	56		 push	 esi
  0008b	e8 00 00 00 00	 call	 ??3@YAXPAX@Z		; operator delete
  00090	83 c4 04	 add	 esp, 4
  00093	8b c6		 mov	 eax, esi
  00095	8b 4d f4	 mov	 ecx, DWORD PTR __$EHRec$[ebp]
  00098	64 89 0d 00 00
	00 00		 mov	 DWORD PTR fs:0, ecx
  0009f	59		 pop	 ecx
  000a0	5e		 pop	 esi
  000a1	8b e5		 mov	 esp, ebp
  000a3	5d		 pop	 ebp
  000a4	c2 04 00	 ret	 4
$LN3@scalar:
  000a7	68 60 01 00 00	 push	 352			; 00000160H
  000ac	56		 push	 esi
  000ad	e8 00 00 00 00	 call	 ?__global_delete@@YAXPAXI@Z ; __global_delete
  000b2	83 c4 08	 add	 esp, 8
$LN21@scalar:
  000b5	8b c6		 mov	 eax, esi
  000b7	8b 4d f4	 mov	 ecx, DWORD PTR __$EHRec$[ebp]
  000ba	64 89 0d 00 00
	00 00		 mov	 DWORD PTR fs:0, ecx
  000c1	59		 pop	 ecx
  000c2	5e		 pop	 esi
  000c3	8b e5		 mov	 esp, ebp
  000c5	5d		 pop	 ebp
  000c6	c2 04 00	 ret	 4
  000c9	cc		 int	 3
  000ca	cc		 int	 3
  000cb	cc		 int	 3
  000cc	cc		 int	 3
  000cd	cc		 int	 3
_TEXT	ENDS
;	COMDAT text$x
text$x	SEGMENT
__ehhandler$??_GCILButton@@UAEPAXI@Z:
  00000	90		 npad	 1
  00001	90		 npad	 1
  00002	8b 54 24 08	 mov	 edx, DWORD PTR [esp+8]
  00006	8d 42 0c	 lea	 eax, DWORD PTR [edx+12]
  00009	8b 4a f8	 mov	 ecx, DWORD PTR [edx-8]
  0000c	33 c8		 xor	 ecx, eax
  0000e	e8 00 00 00 00	 call	 @__security_check_cookie@4
  00013	b8 00 00 00 00	 mov	 eax, OFFSET __ehfuncinfo$??_GCILButton@@UAEPAXI@Z
  00018	e9 00 00 00 00	 jmp	 ___CxxFrameHandler3
text$x	ENDS
??_GCILButton@@UAEPAXI@Z ENDP				; CILButton::`scalar deleting destructor'
; Function compile flags: /Ogtp
; File D:\git\src\IBK\IBK_DRFN\ProjSrc\SrcDrfn\Chart\chart_common\ILButton.cpp
;	COMDAT ?GetMessageMap@CILButton@@MBEPBUAFX_MSGMAP@@XZ
_TEXT	SEGMENT
?GetMessageMap@CILButton@@MBEPBUAFX_MSGMAP@@XZ PROC	; CILButton::GetMessageMap, COMDAT
; _this$ = ecx

; 47   : BEGIN_MESSAGE_MAP(CILButton, CButton)

  00000	b8 00 00 00 00	 mov	 eax, OFFSET ?messageMap@?1??GetThisMessageMap@CILButton@@KGPBUAFX_MSGMAP@@XZ@4U3@B
  00005	c3		 ret	 0
?GetMessageMap@CILButton@@MBEPBUAFX_MSGMAP@@XZ ENDP	; CILButton::GetMessageMap
_TEXT	ENDS
; Function compile flags: /Ogtp
; File D:\git\src\IBK\IBK_DRFN\ProjSrc\SrcDrfn\Chart\chart_common\ILButton.cpp
;	COMDAT ?GetThisMessageMap@CILButton@@KGPBUAFX_MSGMAP@@XZ
_TEXT	SEGMENT
?GetThisMessageMap@CILButton@@KGPBUAFX_MSGMAP@@XZ PROC	; CILButton::GetThisMessageMap, COMDAT

; 48   : 	//{{AFX_MSG_MAP(CILButton)
; 49   : 	ON_WM_CREATE()
; 50   : 	ON_WM_DESTROY()
; 51   : 	ON_WM_ERASEBKGND()
; 52   : 	ON_WM_LBUTTONDOWN()
; 53   : 	ON_WM_LBUTTONUP()
; 54   : 	ON_WM_MOUSEMOVE()
; 55   : 	ON_WM_NCLBUTTONUP()
; 56   : 	ON_WM_TIMER()
; 57   : 	//}}AFX_MSG_MAP
; 58   : END_MESSAGE_MAP()

  00000	b8 00 00 00 00	 mov	 eax, OFFSET ?messageMap@?1??GetThisMessageMap@CILButton@@KGPBUAFX_MSGMAP@@XZ@4U3@B
  00005	c3		 ret	 0
?GetThisMessageMap@CILButton@@KGPBUAFX_MSGMAP@@XZ ENDP	; CILButton::GetThisMessageMap
_TEXT	ENDS
; Function compile flags: /Ogtp
; File D:\git\src\IBK\IBK_DRFN\ProjSrc\SrcDrfn\Chart\chart_common\ILButton.cpp
; File C:\Program Files (x86)\Microsoft Visual Studio\2019\Community\VC\Tools\MSVC\14.29.30133\atlmfc\include\atltypes.h
; File C:\Program Files (x86)\Microsoft Visual Studio\2019\Community\VC\Tools\MSVC\14.29.30133\atlmfc\include\afxwin2.inl
; File C:\Program Files (x86)\Microsoft Visual Studio\2019\Community\VC\Tools\MSVC\14.29.30133\atlmfc\include\atltypes.h
; File C:\Program Files (x86)\Microsoft Visual Studio\2019\Community\VC\Tools\MSVC\14.29.30133\atlmfc\include\afxwin2.inl
; File C:\Program Files (x86)\Microsoft Visual Studio\2019\Community\VC\Tools\MSVC\14.29.30133\atlmfc\include\atltypes.h
; File C:\Program Files (x86)\Microsoft Visual Studio\2019\Community\VC\Tools\MSVC\14.29.30133\atlmfc\include\afxwin2.inl
; File D:\git\src\IBK\IBK_DRFN\ProjSrc\SrcDrfn\Chart\chart_common\ILButton.cpp
; File C:\Program Files (x86)\Microsoft Visual Studio\2019\Community\VC\Tools\MSVC\14.29.30133\atlmfc\include\atltypes.h
; File D:\git\src\IBK\IBK_DRFN\ProjSrc\SrcDrfn\Chart\chart_common\ILButton.cpp
; File C:\Program Files (x86)\Microsoft Visual Studio\2019\Community\VC\Tools\MSVC\14.29.30133\atlmfc\include\afxwin2.inl
; File D:\git\src\IBK\IBK_DRFN\ProjSrc\SrcDrfn\Chart\chart_common\ILButton.cpp
; File C:\Program Files (x86)\Microsoft Visual Studio\2019\Community\VC\Tools\MSVC\14.29.30133\atlmfc\include\afxwin2.inl
; File D:\git\src\IBK\IBK_DRFN\ProjSrc\SrcDrfn\Chart\chart_common\ILButton.cpp
; File C:\Program Files (x86)\Microsoft Visual Studio\2019\Community\VC\Tools\MSVC\14.29.30133\atlmfc\include\afxwin2.inl
; File D:\git\src\IBK\IBK_DRFN\ProjSrc\SrcDrfn\Chart\chart_common\ILButton.cpp
;	COMDAT ?OnTimer@CILButton@@IAEXI@Z
_TEXT	SEGMENT
_pt$ = -28						; size = 8
_rcClient$ = -20					; size = 16
__$ArrayPad$ = -4					; size = 4
_nIDEvent$ = 8						; size = 4
?OnTimer@CILButton@@IAEXI@Z PROC			; CILButton::OnTimer, COMDAT
; _this$ = ecx

; 400  : {

  00000	55		 push	 ebp
  00001	8b ec		 mov	 ebp, esp
  00003	83 ec 1c	 sub	 esp, 28			; 0000001cH
  00006	a1 00 00 00 00	 mov	 eax, DWORD PTR ___security_cookie
  0000b	33 c5		 xor	 eax, ebp
  0000d	89 45 fc	 mov	 DWORD PTR __$ArrayPad$[ebp], eax
  00010	56		 push	 esi
  00011	8b f1		 mov	 esi, ecx
; File C:\Program Files (x86)\Microsoft Visual Studio\2019\Community\VC\Tools\MSVC\14.29.30133\atlmfc\include\atltypes.h

; 400  : 	x = 0;

  00013	c7 45 e4 00 00
	00 00		 mov	 DWORD PTR _pt$[ebp], 0
; File C:\Program Files (x86)\Microsoft Visual Studio\2019\Community\VC\Tools\MSVC\14.29.30133\atlmfc\include\afxwin2.inl

; 86   : 	{ ASSERT(::IsWindow(m_hWnd)); ::GetClientRect(m_hWnd, lpRect); }

  0001a	8d 45 ec	 lea	 eax, DWORD PTR _rcClient$[ebp]
; File C:\Program Files (x86)\Microsoft Visual Studio\2019\Community\VC\Tools\MSVC\14.29.30133\atlmfc\include\atltypes.h

; 401  : 	y = 0;

  0001d	c7 45 e8 00 00
	00 00		 mov	 DWORD PTR _pt$[ebp+4], 0
; File C:\Program Files (x86)\Microsoft Visual Studio\2019\Community\VC\Tools\MSVC\14.29.30133\atlmfc\include\afxwin2.inl

; 86   : 	{ ASSERT(::IsWindow(m_hWnd)); ::GetClientRect(m_hWnd, lpRect); }

  00024	50		 push	 eax
  00025	0f 57 c0	 xorps	 xmm0, xmm0
  00028	ff 76 20	 push	 DWORD PTR [esi+32]
; File C:\Program Files (x86)\Microsoft Visual Studio\2019\Community\VC\Tools\MSVC\14.29.30133\atlmfc\include\atltypes.h

; 528  : 	left = 0;

  0002b	0f 11 45 ec	 movups	 XMMWORD PTR _rcClient$[ebp], xmm0
; File C:\Program Files (x86)\Microsoft Visual Studio\2019\Community\VC\Tools\MSVC\14.29.30133\atlmfc\include\afxwin2.inl

; 86   : 	{ ASSERT(::IsWindow(m_hWnd)); ::GetClientRect(m_hWnd, lpRect); }

  0002f	ff 15 00 00 00
	00		 call	 DWORD PTR __imp__GetClientRect@8

; 88   : 	{ ASSERT(::IsWindow(m_hWnd)); ::MapWindowPoints(m_hWnd, pwndTo->GetSafeHwnd(), lpPoint, nCount); }

  00035	6a 02		 push	 2
  00037	8d 45 ec	 lea	 eax, DWORD PTR _rcClient$[ebp]
  0003a	50		 push	 eax
  0003b	6a 00		 push	 0
  0003d	ff 76 20	 push	 DWORD PTR [esi+32]
  00040	ff 15 00 00 00
	00		 call	 DWORD PTR __imp__MapWindowPoints@16
; File D:\git\src\IBK\IBK_DRFN\ProjSrc\SrcDrfn\Chart\chart_common\ILButton.cpp

; 407  :     GetCursorPos(&pt); 

  00046	8d 45 e4	 lea	 eax, DWORD PTR _pt$[ebp]
  00049	50		 push	 eax
  0004a	ff 15 00 00 00
	00		 call	 DWORD PTR __imp__GetCursorPos@4
; File C:\Program Files (x86)\Microsoft Visual Studio\2019\Community\VC\Tools\MSVC\14.29.30133\atlmfc\include\atltypes.h

; 648  : 	return ::PtInRect(this, point);

  00050	ff 75 e8	 push	 DWORD PTR _pt$[ebp+4]
  00053	8d 45 ec	 lea	 eax, DWORD PTR _rcClient$[ebp]
  00056	ff 75 e4	 push	 DWORD PTR _pt$[ebp]
  00059	50		 push	 eax
  0005a	ff 15 00 00 00
	00		 call	 DWORD PTR __imp__PtInRect@12
; File D:\git\src\IBK\IBK_DRFN\ProjSrc\SrcDrfn\Chart\chart_common\ILButton.cpp

; 409  :     if (!rcClient.PtInRect(pt) || (WindowFromPoint(pt) != this))

  00060	85 c0		 test	 eax, eax
  00062	74 16		 je	 SHORT $LN3@OnTimer
; File C:\Program Files (x86)\Microsoft Visual Studio\2019\Community\VC\Tools\MSVC\14.29.30133\atlmfc\include\afxwin2.inl

; 218  : 	{ return CWnd::FromHandle(::WindowFromPoint(point)); }

  00064	ff 75 e8	 push	 DWORD PTR _pt$[ebp+4]
  00067	ff 75 e4	 push	 DWORD PTR _pt$[ebp]
  0006a	ff 15 00 00 00
	00		 call	 DWORD PTR __imp__WindowFromPoint@8
  00070	50		 push	 eax
  00071	e8 00 00 00 00	 call	 ?FromHandle@CWnd@@SGPAV1@PAUHWND__@@@Z ; CWnd::FromHandle
; File D:\git\src\IBK\IBK_DRFN\ProjSrc\SrcDrfn\Chart\chart_common\ILButton.cpp

; 409  :     if (!rcClient.PtInRect(pt) || (WindowFromPoint(pt) != this))

  00076	3b c6		 cmp	 eax, esi
  00078	74 22		 je	 SHORT $LN2@OnTimer
$LN3@OnTimer:
; File C:\Program Files (x86)\Microsoft Visual Studio\2019\Community\VC\Tools\MSVC\14.29.30133\atlmfc\include\afxwin2.inl

; 155  : 	{ ASSERT(::IsWindow(m_hWnd)); return ::KillTimer(m_hWnd, nIDEvent); }

  0007a	6a 05		 push	 5
  0007c	ff 76 20	 push	 DWORD PTR [esi+32]
  0007f	ff 15 00 00 00
	00		 call	 DWORD PTR __imp__KillTimer@8

; 114  : 	{ ASSERT(::IsWindow(m_hWnd)); ::InvalidateRect(m_hWnd, NULL, bErase); }

  00085	6a 01		 push	 1
  00087	6a 00		 push	 0
  00089	ff 76 20	 push	 DWORD PTR [esi+32]
; File D:\git\src\IBK\IBK_DRFN\ProjSrc\SrcDrfn\Chart\chart_common\ILButton.cpp

; 413  : 		m_bHover = FALSE;

  0008c	c7 86 58 01 00
	00 00 00 00 00	 mov	 DWORD PTR [esi+344], 0
; File C:\Program Files (x86)\Microsoft Visual Studio\2019\Community\VC\Tools\MSVC\14.29.30133\atlmfc\include\afxwin2.inl

; 114  : 	{ ASSERT(::IsWindow(m_hWnd)); ::InvalidateRect(m_hWnd, NULL, bErase); }

  00096	ff 15 00 00 00
	00		 call	 DWORD PTR __imp__InvalidateRect@12
$LN2@OnTimer:
; File D:\git\src\IBK\IBK_DRFN\ProjSrc\SrcDrfn\Chart\chart_common\ILButton.cpp

; 416  : }

  0009c	8b 4d fc	 mov	 ecx, DWORD PTR __$ArrayPad$[ebp]
  0009f	33 cd		 xor	 ecx, ebp
  000a1	5e		 pop	 esi
  000a2	e8 00 00 00 00	 call	 @__security_check_cookie@4
  000a7	8b e5		 mov	 esp, ebp
  000a9	5d		 pop	 ebp
  000aa	c2 04 00	 ret	 4
?OnTimer@CILButton@@IAEXI@Z ENDP			; CILButton::OnTimer
_TEXT	ENDS
; Function compile flags: /Ogtp
; File D:\git\src\IBK\IBK_DRFN\ProjSrc\SrcDrfn\Chart\chart_common\ILButton.cpp
; File C:\Program Files (x86)\Microsoft Visual Studio\2019\Community\VC\Tools\MSVC\14.29.30133\atlmfc\include\afxwin2.inl
; File D:\git\src\IBK\IBK_DRFN\ProjSrc\SrcDrfn\Chart\chart_common\ILButton.cpp
;	COMDAT ?OnNcLButtonUp@CILButton@@IAEXIVCPoint@@@Z
_TEXT	SEGMENT
_nFlags$ = 8						; size = 4
_point$ = 12						; size = 8
?OnNcLButtonUp@CILButton@@IAEXIVCPoint@@@Z PROC		; CILButton::OnNcLButtonUp, COMDAT
; _this$ = ecx
; File C:\Program Files (x86)\Microsoft Visual Studio\2019\Community\VC\Tools\MSVC\14.29.30133\atlmfc\include\afxwin2.inl

; 356  : 	{ Default(); }

  00000	e8 00 00 00 00	 call	 ?Default@CWnd@@IAEJXZ	; CWnd::Default
; File D:\git\src\IBK\IBK_DRFN\ProjSrc\SrcDrfn\Chart\chart_common\ILButton.cpp

; 346  : }

  00005	c2 0c 00	 ret	 12			; 0000000cH
?OnNcLButtonUp@CILButton@@IAEXIVCPoint@@@Z ENDP		; CILButton::OnNcLButtonUp
_TEXT	ENDS
; Function compile flags: /Ogtp
; File D:\git\src\IBK\IBK_DRFN\ProjSrc\SrcDrfn\Chart\chart_common\ILButton.cpp
; File C:\Program Files (x86)\Microsoft Visual Studio\2019\Community\VC\Tools\MSVC\14.29.30133\atlmfc\include\afxwin2.inl
; File D:\git\src\IBK\IBK_DRFN\ProjSrc\SrcDrfn\Chart\chart_common\ILButton.cpp
; File C:\Program Files (x86)\Microsoft Visual Studio\2019\Community\VC\Tools\MSVC\14.29.30133\atlmfc\include\afxcmn.inl
; File D:\git\src\IBK\IBK_DRFN\ProjSrc\SrcDrfn\Chart\chart_common\ILButton.cpp
; File C:\Program Files (x86)\Microsoft Visual Studio\2019\Community\VC\Tools\MSVC\14.29.30133\atlmfc\include\afxcmn.inl
; File D:\git\src\IBK\IBK_DRFN\ProjSrc\SrcDrfn\Chart\chart_common\ILButton.cpp
; File C:\Program Files (x86)\Microsoft Visual Studio\2019\Community\VC\Tools\MSVC\14.29.30133\atlmfc\include\afxwin2.inl
; File D:\git\src\IBK\IBK_DRFN\ProjSrc\SrcDrfn\Chart\chart_common\ILButton.cpp
; File C:\Program Files (x86)\Microsoft Visual Studio\2019\Community\VC\Tools\MSVC\14.29.30133\atlmfc\include\afxwin2.inl
; File D:\git\src\IBK\IBK_DRFN\ProjSrc\SrcDrfn\Chart\chart_common\ILButton.cpp
;	COMDAT ?OnMouseMove@CILButton@@IAEXIVCPoint@@@Z
_TEXT	SEGMENT
_msg$1 = -28						; size = 28
_nFlags$ = 8						; size = 4
_point$ = 12						; size = 8
?OnMouseMove@CILButton@@IAEXIVCPoint@@@Z PROC		; CILButton::OnMouseMove, COMDAT
; _this$ = ecx

; 320  : {

  00000	55		 push	 ebp
  00001	8b ec		 mov	 ebp, esp
  00003	83 ec 1c	 sub	 esp, 28			; 0000001cH
  00006	56		 push	 esi
  00007	8b f1		 mov	 esi, ecx

; 321  : 	if (m_bUseToolTip)

  00009	83 be 84 00 00
	00 00		 cmp	 DWORD PTR [esi+132], 0
  00010	74 5d		 je	 SHORT $LN7@OnMouseMov

; 322  : 		RelayEvent(WM_MOUSEMOVE,(WPARAM)nFlags,MAKELPARAM(LOWORD(point.x),LOWORD(point.y)));	

  00012	0f b7 4d 10	 movzx	 ecx, WORD PTR _point$[ebp+4]
  00016	0f b7 45 0c	 movzx	 eax, WORD PTR _point$[ebp]
  0001a	c1 e1 10	 shl	 ecx, 16			; 00000010H
  0001d	0b c8		 or	 ecx, eax

; 292  : 	if(m_Tooltip.GetSafeHwnd())

  0001f	8d 86 b8 00 00
	00		 lea	 eax, DWORD PTR [esi+184]
; File C:\Program Files (x86)\Microsoft Visual Studio\2019\Community\VC\Tools\MSVC\14.29.30133\atlmfc\include\afxwin2.inl

; 25   : 	{ return this == NULL ? NULL : m_hWnd; }

  00025	85 c0		 test	 eax, eax
  00027	74 46		 je	 SHORT $LN7@OnMouseMov
; File D:\git\src\IBK\IBK_DRFN\ProjSrc\SrcDrfn\Chart\chart_common\ILButton.cpp

; 292  : 	if(m_Tooltip.GetSafeHwnd())

  00029	83 78 20 00	 cmp	 DWORD PTR [eax+32], 0
  0002d	74 40		 je	 SHORT $LN7@OnMouseMov

; 293  : 	{
; 294  : 		MSG msg;
; 295  : 		msg.hwnd = m_hWnd;

  0002f	8b 46 20	 mov	 eax, DWORD PTR [esi+32]
  00032	89 45 e4	 mov	 DWORD PTR _msg$1[ebp], eax

; 296  : 		msg.message = message;
; 297  : 		msg.wParam = wParam;

  00035	8b 45 08	 mov	 eax, DWORD PTR _nFlags$[ebp]
  00038	89 45 ec	 mov	 DWORD PTR _msg$1[ebp+8], eax

; 299  : 		msg.time = 0;
; 300  : 		msg.pt.x = LOWORD(lParam);

  0003b	0f b7 c1	 movzx	 eax, cx
  0003e	89 45 f8	 mov	 DWORD PTR _msg$1[ebp+20], eax
; File C:\Program Files (x86)\Microsoft Visual Studio\2019\Community\VC\Tools\MSVC\14.29.30133\atlmfc\include\afxcmn.inl

; 429  : 	{ ASSERT(::IsWindow(m_hWnd));  ::SendMessage(m_hWnd, TTM_RELAYEVENT, 0, (LPARAM)lpMsg); }

  00041	8d 45 e4	 lea	 eax, DWORD PTR _msg$1[ebp]
  00044	50		 push	 eax
  00045	6a 00		 push	 0
  00047	68 07 04 00 00	 push	 1031			; 00000407H
  0004c	ff b6 d8 00 00
	00		 push	 DWORD PTR [esi+216]
; File D:\git\src\IBK\IBK_DRFN\ProjSrc\SrcDrfn\Chart\chart_common\ILButton.cpp

; 298  : 		msg.lParam = lParam;

  00052	89 4d f0	 mov	 DWORD PTR _msg$1[ebp+12], ecx

; 301  : 		msg.pt.y = HIWORD(lParam);

  00055	c1 e9 10	 shr	 ecx, 16			; 00000010H
  00058	c7 45 e8 00 02
	00 00		 mov	 DWORD PTR _msg$1[ebp+4], 512 ; 00000200H
  0005f	c7 45 f4 00 00
	00 00		 mov	 DWORD PTR _msg$1[ebp+16], 0
  00066	89 4d fc	 mov	 DWORD PTR _msg$1[ebp+24], ecx
; File C:\Program Files (x86)\Microsoft Visual Studio\2019\Community\VC\Tools\MSVC\14.29.30133\atlmfc\include\afxcmn.inl

; 429  : 	{ ASSERT(::IsWindow(m_hWnd));  ::SendMessage(m_hWnd, TTM_RELAYEVENT, 0, (LPARAM)lpMsg); }

  00069	ff 15 00 00 00
	00		 call	 DWORD PTR __imp__SendMessageA@16
$LN7@OnMouseMov:
; File D:\git\src\IBK\IBK_DRFN\ProjSrc\SrcDrfn\Chart\chart_common\ILButton.cpp

; 324  : 	if(m_nOver != m_nNormal)

  0006f	8b 86 a8 00 00
	00		 mov	 eax, DWORD PTR [esi+168]
  00075	3b 86 9c 00 00
	00		 cmp	 eax, DWORD PTR [esi+156]
  0007b	74 2f		 je	 SHORT $LN4@OnMouseMov

; 325  : 	{
; 326  : 		if(!m_bHover)

  0007d	83 be 58 01 00
	00 00		 cmp	 DWORD PTR [esi+344], 0
  00084	75 26		 jne	 SHORT $LN4@OnMouseMov
; File C:\Program Files (x86)\Microsoft Visual Studio\2019\Community\VC\Tools\MSVC\14.29.30133\atlmfc\include\afxwin2.inl

; 114  : 	{ ASSERT(::IsWindow(m_hWnd)); ::InvalidateRect(m_hWnd, NULL, bErase); }

  00086	6a 01		 push	 1
  00088	6a 00		 push	 0
  0008a	ff 76 20	 push	 DWORD PTR [esi+32]
; File D:\git\src\IBK\IBK_DRFN\ProjSrc\SrcDrfn\Chart\chart_common\ILButton.cpp

; 328  : 			m_bHover = TRUE;

  0008d	c7 86 58 01 00
	00 01 00 00 00	 mov	 DWORD PTR [esi+344], 1
; File C:\Program Files (x86)\Microsoft Visual Studio\2019\Community\VC\Tools\MSVC\14.29.30133\atlmfc\include\afxwin2.inl

; 114  : 	{ ASSERT(::IsWindow(m_hWnd)); ::InvalidateRect(m_hWnd, NULL, bErase); }

  00097	ff 15 00 00 00
	00		 call	 DWORD PTR __imp__InvalidateRect@12

; 152  : 	{ ASSERT(::IsWindow(m_hWnd)); return ::SetTimer(m_hWnd, nIDEvent, nElapse,

  0009d	6a 00		 push	 0
  0009f	6a 64		 push	 100			; 00000064H
  000a1	6a 05		 push	 5
  000a3	ff 76 20	 push	 DWORD PTR [esi+32]
  000a6	ff 15 00 00 00
	00		 call	 DWORD PTR __imp__SetTimer@16
$LN4@OnMouseMov:

; 454  : 	{ Default(); }

  000ac	8b ce		 mov	 ecx, esi
  000ae	e8 00 00 00 00	 call	 ?Default@CWnd@@IAEJXZ	; CWnd::Default
  000b3	5e		 pop	 esi
; File D:\git\src\IBK\IBK_DRFN\ProjSrc\SrcDrfn\Chart\chart_common\ILButton.cpp

; 336  : }

  000b4	8b e5		 mov	 esp, ebp
  000b6	5d		 pop	 ebp
  000b7	c2 0c 00	 ret	 12			; 0000000cH
?OnMouseMove@CILButton@@IAEXIVCPoint@@@Z ENDP		; CILButton::OnMouseMove
_TEXT	ENDS
; Function compile flags: /Ogtp
; File D:\git\src\IBK\IBK_DRFN\ProjSrc\SrcDrfn\Chart\chart_common\ILButton.cpp
; File C:\Program Files (x86)\Microsoft Visual Studio\2019\Community\VC\Tools\MSVC\14.29.30133\atlmfc\include\afxwin2.inl
; File C:\Program Files (x86)\Microsoft Visual Studio\2019\Community\VC\Tools\MSVC\14.29.30133\atlmfc\include\atltypes.h
; File C:\Program Files (x86)\Microsoft Visual Studio\2019\Community\VC\Tools\MSVC\14.29.30133\atlmfc\include\afxwin2.inl
; File C:\Program Files (x86)\Microsoft Visual Studio\2019\Community\VC\Tools\MSVC\14.29.30133\atlmfc\include\atltypes.h
; File D:\git\src\IBK\IBK_DRFN\ProjSrc\SrcDrfn\Chart\chart_common\ILButton.cpp
; File C:\Program Files (x86)\Microsoft Visual Studio\2019\Community\VC\Tools\MSVC\14.29.30133\atlmfc\include\afxwin2.inl
; File D:\git\src\IBK\IBK_DRFN\ProjSrc\SrcDrfn\Chart\chart_common\ILButton.cpp
; File C:\Program Files (x86)\Microsoft Visual Studio\2019\Community\VC\Tools\MSVC\14.29.30133\atlmfc\include\afxwin2.inl
; File D:\git\src\IBK\IBK_DRFN\ProjSrc\SrcDrfn\Chart\chart_common\ILButton.cpp
; File C:\Program Files (x86)\Microsoft Visual Studio\2019\Community\VC\Tools\MSVC\14.29.30133\atlmfc\include\afxwin2.inl
; File D:\git\src\IBK\IBK_DRFN\ProjSrc\SrcDrfn\Chart\chart_common\ILButton.cpp
;	COMDAT ?OnLButtonUp@CILButton@@IAEXIVCPoint@@@Z
_TEXT	SEGMENT
_rect$ = -20						; size = 16
__$ArrayPad$ = -4					; size = 4
_nFlags$ = 8						; size = 4
_point$ = 12						; size = 8
?OnLButtonUp@CILButton@@IAEXIVCPoint@@@Z PROC		; CILButton::OnLButtonUp, COMDAT
; _this$ = ecx

; 233  : {

  00000	55		 push	 ebp
  00001	8b ec		 mov	 ebp, esp
  00003	83 ec 14	 sub	 esp, 20			; 00000014H
  00006	a1 00 00 00 00	 mov	 eax, DWORD PTR ___security_cookie
  0000b	33 c5		 xor	 eax, ebp
  0000d	89 45 fc	 mov	 DWORD PTR __$ArrayPad$[ebp], eax
  00010	56		 push	 esi
  00011	8b f1		 mov	 esi, ecx
; File C:\Program Files (x86)\Microsoft Visual Studio\2019\Community\VC\Tools\MSVC\14.29.30133\atlmfc\include\afxwin2.inl

; 86   : 	{ ASSERT(::IsWindow(m_hWnd)); ::GetClientRect(m_hWnd, lpRect); }

  00013	8d 45 ec	 lea	 eax, DWORD PTR _rect$[ebp]
  00016	50		 push	 eax
  00017	0f 57 c0	 xorps	 xmm0, xmm0
; File C:\Program Files (x86)\Microsoft Visual Studio\2019\Community\VC\Tools\MSVC\14.29.30133\atlmfc\include\atltypes.h

; 528  : 	left = 0;

  0001a	0f 11 45 ec	 movups	 XMMWORD PTR _rect$[ebp], xmm0
; File C:\Program Files (x86)\Microsoft Visual Studio\2019\Community\VC\Tools\MSVC\14.29.30133\atlmfc\include\afxwin2.inl

; 86   : 	{ ASSERT(::IsWindow(m_hWnd)); ::GetClientRect(m_hWnd, lpRect); }

  0001e	ff 76 20	 push	 DWORD PTR [esi+32]
  00021	ff 15 00 00 00
	00		 call	 DWORD PTR __imp__GetClientRect@8
; File C:\Program Files (x86)\Microsoft Visual Studio\2019\Community\VC\Tools\MSVC\14.29.30133\atlmfc\include\atltypes.h

; 648  : 	return ::PtInRect(this, point);

  00027	ff 75 10	 push	 DWORD PTR _point$[ebp+4]
  0002a	8d 45 ec	 lea	 eax, DWORD PTR _rect$[ebp]
  0002d	ff 75 0c	 push	 DWORD PTR _point$[ebp]
  00030	50		 push	 eax
  00031	ff 15 00 00 00
	00		 call	 DWORD PTR __imp__PtInRect@12
; File D:\git\src\IBK\IBK_DRFN\ProjSrc\SrcDrfn\Chart\chart_common\ILButton.cpp

; 238  : 	if (rect.PtInRect(point))

  00037	85 c0		 test	 eax, eax
  00039	74 23		 je	 SHORT $LN3@OnLButtonU

; 239  : 	{
; 240  : 		if(m_bLbuttonDown && m_bPushLike)

  0003b	83 be b4 00 00
	00 00		 cmp	 DWORD PTR [esi+180], 0
  00042	74 1a		 je	 SHORT $LN3@OnLButtonU
  00044	83 be ac 00 00
	00 00		 cmp	 DWORD PTR [esi+172], 0
  0004b	74 11		 je	 SHORT $LN3@OnLButtonU

; 241  : 		{
; 242  : 			m_bCheck = !m_bCheck;

  0004d	33 c0		 xor	 eax, eax
  0004f	39 86 b0 00 00
	00		 cmp	 DWORD PTR [esi+176], eax
  00055	0f 94 c0	 sete	 al
  00058	89 86 b0 00 00
	00		 mov	 DWORD PTR [esi+176], eax
$LN3@OnLButtonU:
; File C:\Program Files (x86)\Microsoft Visual Studio\2019\Community\VC\Tools\MSVC\14.29.30133\atlmfc\include\afxwin2.inl

; 434  : 	{ Default(); }

  0005e	8b ce		 mov	 ecx, esi
; File D:\git\src\IBK\IBK_DRFN\ProjSrc\SrcDrfn\Chart\chart_common\ILButton.cpp

; 245  : 	m_bLbuttonDown = FALSE;

  00060	c7 86 b4 00 00
	00 00 00 00 00	 mov	 DWORD PTR [esi+180], 0
; File C:\Program Files (x86)\Microsoft Visual Studio\2019\Community\VC\Tools\MSVC\14.29.30133\atlmfc\include\afxwin2.inl

; 434  : 	{ Default(); }

  0006a	e8 00 00 00 00	 call	 ?Default@CWnd@@IAEJXZ	; CWnd::Default
; File D:\git\src\IBK\IBK_DRFN\ProjSrc\SrcDrfn\Chart\chart_common\ILButton.cpp

; 250  : }

  0006f	8b 4d fc	 mov	 ecx, DWORD PTR __$ArrayPad$[ebp]
  00072	33 cd		 xor	 ecx, ebp
; File C:\Program Files (x86)\Microsoft Visual Studio\2019\Community\VC\Tools\MSVC\14.29.30133\atlmfc\include\afxwin2.inl

; 434  : 	{ Default(); }

  00074	5e		 pop	 esi
; File D:\git\src\IBK\IBK_DRFN\ProjSrc\SrcDrfn\Chart\chart_common\ILButton.cpp

; 250  : }

  00075	e8 00 00 00 00	 call	 @__security_check_cookie@4
  0007a	8b e5		 mov	 esp, ebp
  0007c	5d		 pop	 ebp
  0007d	c2 0c 00	 ret	 12			; 0000000cH
?OnLButtonUp@CILButton@@IAEXIVCPoint@@@Z ENDP		; CILButton::OnLButtonUp
_TEXT	ENDS
; Function compile flags: /Ogtp
; File D:\git\src\IBK\IBK_DRFN\ProjSrc\SrcDrfn\Chart\chart_common\ILButton.cpp
; File C:\Program Files (x86)\Microsoft Visual Studio\2019\Community\VC\Tools\MSVC\14.29.30133\atlmfc\include\afxwin2.inl
; File D:\git\src\IBK\IBK_DRFN\ProjSrc\SrcDrfn\Chart\chart_common\ILButton.cpp
;	COMDAT ?OnLButtonDown@CILButton@@IAEXIVCPoint@@@Z
_TEXT	SEGMENT
_nFlags$ = 8						; size = 4
_point$ = 12						; size = 8
?OnLButtonDown@CILButton@@IAEXIVCPoint@@@Z PROC		; CILButton::OnLButtonDown, COMDAT
; _this$ = ecx

; 227  : 	m_bLbuttonDown = TRUE;

  00000	c7 81 b4 00 00
	00 01 00 00 00	 mov	 DWORD PTR [ecx+180], 1
; File C:\Program Files (x86)\Microsoft Visual Studio\2019\Community\VC\Tools\MSVC\14.29.30133\atlmfc\include\afxwin2.inl

; 432  : 	{ Default(); }

  0000a	e8 00 00 00 00	 call	 ?Default@CWnd@@IAEJXZ	; CWnd::Default
; File D:\git\src\IBK\IBK_DRFN\ProjSrc\SrcDrfn\Chart\chart_common\ILButton.cpp

; 230  : }

  0000f	c2 0c 00	 ret	 12			; 0000000cH
?OnLButtonDown@CILButton@@IAEXIVCPoint@@@Z ENDP		; CILButton::OnLButtonDown
_TEXT	ENDS
; Function compile flags: /Ogtp
; File D:\git\src\IBK\IBK_DRFN\ProjSrc\SrcDrfn\Chart\chart_common\ILButton.cpp
;	COMDAT ?OnEraseBkgnd@CILButton@@IAEHPAVCDC@@@Z
_TEXT	SEGMENT
_pDC$ = 8						; size = 4
?OnEraseBkgnd@CILButton@@IAEHPAVCDC@@@Z PROC		; CILButton::OnEraseBkgnd, COMDAT
; _this$ = ecx

; 192  : 	//return FALSE;	
; 193  : 	//return CButton::OnEraseBkgnd(pDC);
; 194  : 	return TRUE;

  00000	b8 01 00 00 00	 mov	 eax, 1

; 195  : }

  00005	c2 04 00	 ret	 4
?OnEraseBkgnd@CILButton@@IAEHPAVCDC@@@Z ENDP		; CILButton::OnEraseBkgnd
_TEXT	ENDS
; Function compile flags: /Ogtp
; File D:\git\src\IBK\IBK_DRFN\ProjSrc\SrcDrfn\Chart\chart_common\ILButton.cpp
; File C:\Program Files (x86)\Microsoft Visual Studio\2019\Community\VC\Tools\MSVC\14.29.30133\atlmfc\include\afxwin1.inl
; File D:\git\src\IBK\IBK_DRFN\ProjSrc\SrcDrfn\Chart\chart_common\ILButton.cpp
;	COMDAT ?OnDestroy@CILButton@@IAEXXZ
_TEXT	SEGMENT
?OnDestroy@CILButton@@IAEXXZ PROC			; CILButton::OnDestroy, COMDAT
; _this$ = ecx

; 392  : {

  00000	56		 push	 esi
  00001	8b f1		 mov	 esi, ecx

; 393  : 	if(m_Font.GetSafeHandle())

  00003	8d 8e 90 00 00
	00		 lea	 ecx, DWORD PTR [esi+144]
; File C:\Program Files (x86)\Microsoft Visual Studio\2019\Community\VC\Tools\MSVC\14.29.30133\atlmfc\include\afxwin1.inl

; 68   : 	{ return this == NULL ? NULL : m_hObject; }

  00009	85 c9		 test	 ecx, ecx
  0000b	74 0b		 je	 SHORT $LN2@OnDestroy
; File D:\git\src\IBK\IBK_DRFN\ProjSrc\SrcDrfn\Chart\chart_common\ILButton.cpp

; 393  : 	if(m_Font.GetSafeHandle())

  0000d	83 79 04 00	 cmp	 DWORD PTR [ecx+4], 0
  00011	74 05		 je	 SHORT $LN2@OnDestroy

; 394  : 		m_Font.DeleteObject();

  00013	e8 00 00 00 00	 call	 ?DeleteObject@CGdiObject@@QAEHXZ ; CGdiObject::DeleteObject
$LN2@OnDestroy:

; 395  : 	
; 396  : 	CButton::OnDestroy();

  00018	8b ce		 mov	 ecx, esi
  0001a	5e		 pop	 esi
  0001b	e9 00 00 00 00	 jmp	 ?OnDestroy@CWnd@@IAEXXZ	; CWnd::OnDestroy
?OnDestroy@CILButton@@IAEXXZ ENDP			; CILButton::OnDestroy
_TEXT	ENDS
; Function compile flags: /Ogtp
; File D:\git\src\IBK\IBK_DRFN\ProjSrc\SrcDrfn\Chart\chart_common\ILButton.cpp
; File C:\Program Files (x86)\Microsoft Visual Studio\2019\Community\VC\Tools\MSVC\14.29.30133\atlmfc\include\afxwin2.inl
; File D:\git\src\IBK\IBK_DRFN\ProjSrc\SrcDrfn\Chart\chart_common\ILButton.cpp
; File C:\Program Files (x86)\Microsoft Visual Studio\2019\Community\VC\Tools\MSVC\14.29.30133\atlmfc\include\afxwin1.inl
; File D:\git\src\IBK\IBK_DRFN\ProjSrc\SrcDrfn\Chart\chart_common\ILButton.cpp
; File C:\Program Files (x86)\Microsoft Visual Studio\2019\Community\VC\Tools\MSVC\14.29.30133\atlmfc\include\afxwin1.inl
; File D:\git\src\IBK\IBK_DRFN\ProjSrc\SrcDrfn\Chart\chart_common\ILButton.cpp
; File C:\Program Files (x86)\Microsoft Visual Studio\2019\Community\VC\Tools\MSVC\14.29.30133\atlmfc\include\afxwin1.inl
; File D:\git\src\IBK\IBK_DRFN\ProjSrc\SrcDrfn\Chart\chart_common\ILButton.cpp
; File C:\Program Files (x86)\Microsoft Visual Studio\2019\Community\VC\Tools\MSVC\14.29.30133\atlmfc\include\afxwin1.inl
; File D:\git\src\IBK\IBK_DRFN\ProjSrc\SrcDrfn\Chart\chart_common\ILButton.cpp
;	COMDAT ?OnCreate@CILButton@@IAEHPAUtagCREATESTRUCTA@@@Z
_TEXT	SEGMENT
_lfont$ = -64						; size = 60
__$ArrayPad$ = -4					; size = 4
_lpCreateStruct$ = 8					; size = 4
?OnCreate@CILButton@@IAEHPAUtagCREATESTRUCTA@@@Z PROC	; CILButton::OnCreate, COMDAT
; _this$ = ecx

; 349  : {

  00000	55		 push	 ebp
  00001	8b ec		 mov	 ebp, esp
  00003	83 ec 40	 sub	 esp, 64			; 00000040H
  00006	a1 00 00 00 00	 mov	 eax, DWORD PTR ___security_cookie
  0000b	33 c5		 xor	 eax, ebp
  0000d	89 45 fc	 mov	 DWORD PTR __$ArrayPad$[ebp], eax
  00010	56		 push	 esi
  00011	8b f1		 mov	 esi, ecx
; File C:\Program Files (x86)\Microsoft Visual Studio\2019\Community\VC\Tools\MSVC\14.29.30133\atlmfc\include\afxwin2.inl

; 296  : 	{ return (int)Default(); }

  00013	e8 00 00 00 00	 call	 ?Default@CWnd@@IAEJXZ	; CWnd::Default
; File D:\git\src\IBK\IBK_DRFN\ProjSrc\SrcDrfn\Chart\chart_common\ILButton.cpp

; 350  : 	if (CButton::OnCreate(lpCreateStruct) == -1)

  00018	83 f8 ff	 cmp	 eax, -1
  0001b	74 7d		 je	 SHORT $LN9@OnCreate

; 365  : 	lfont.lfClipPrecision = CLIP_DEFAULT_PRECIS; 
; 366  : 	lfont.lfQuality = DEFAULT_QUALITY;
; 367  : 	lfont.lfPitchAndFamily = FF_ROMAN; 
; 368  : 	strcpy(lfont.lfFaceName, "");

  0001d	a1 00 00 00 00	 mov	 eax, DWORD PTR ??_C@_06MFMMLLPC@?$LB?$LM?$LI?$LC?C?$LM@
  00022	0f 57 c0	 xorps	 xmm0, xmm0
  00025	89 45 dc	 mov	 DWORD PTR _lfont$[ebp+28], eax
  00028	66 a1 04 00 00
	00		 mov	 ax, WORD PTR ??_C@_06MFMMLLPC@?$LB?$LM?$LI?$LC?C?$LM@+4
  0002e	66 89 45 e0	 mov	 WORD PTR _lfont$[ebp+32], ax
  00032	a0 06 00 00 00	 mov	 al, BYTE PTR ??_C@_06MFMMLLPC@?$LB?$LM?$LI?$LC?C?$LM@+6
  00037	88 45 e2	 mov	 BYTE PTR _lfont$[ebp+34], al
; File C:\Program Files (x86)\Microsoft Visual Studio\2019\Community\VC\Tools\MSVC\14.29.30133\atlmfc\include\afxwin1.inl

; 157  : 	{ return Attach(::CreateFontIndirect(lpLogFont)); }

  0003a	8d 45 c0	 lea	 eax, DWORD PTR _lfont$[ebp]
; File D:\git\src\IBK\IBK_DRFN\ProjSrc\SrcDrfn\Chart\chart_common\ILButton.cpp

; 355  : 	::memset(&lfont, 0x00, sizeof(LOGFONT));

  0003d	66 0f 13 45 e3	 movlpd	 QWORD PTR _lfont$[ebp+35], xmm0
  00042	66 0f 13 45 eb	 movlpd	 QWORD PTR _lfont$[ebp+43], xmm0
  00047	66 0f 13 45 f3	 movlpd	 QWORD PTR _lfont$[ebp+51], xmm0

; 356  : 	lfont.lfWidth = 0; 

  0004c	0f 28 05 00 00
	00 00		 movaps	 xmm0, XMMWORD PTR __xmm@00000190000000000000000000000000
; File C:\Program Files (x86)\Microsoft Visual Studio\2019\Community\VC\Tools\MSVC\14.29.30133\atlmfc\include\afxwin1.inl

; 157  : 	{ return Attach(::CreateFontIndirect(lpLogFont)); }

  00053	50		 push	 eax
; File D:\git\src\IBK\IBK_DRFN\ProjSrc\SrcDrfn\Chart\chart_common\ILButton.cpp

; 355  : 	::memset(&lfont, 0x00, sizeof(LOGFONT));

  00054	c6 45 fb 00	 mov	 BYTE PTR _lfont$[ebp+59], 0

; 356  : 	lfont.lfWidth = 0; 

  00058	0f 11 45 c4	 movups	 XMMWORD PTR _lfont$[ebp+4], xmm0

; 357  : 	lfont.lfEscapement = 0; 
; 358  : 	lfont.lfOrientation = 0; 
; 359  : 	lfont.lfWeight = FW_NORMAL; 
; 360  : 	lfont.lfItalic = 0; 

  0005c	c7 45 d4 00 00
	00 01		 mov	 DWORD PTR _lfont$[ebp+20], 16777216 ; 01000000H

; 361  : 	lfont.lfUnderline = 0; 
; 362  : 	lfont.lfStrikeOut = 0; 
; 363  : 	lfont.lfCharSet = DEFAULT_CHARSET; 
; 364  : 	lfont.lfOutPrecision = OUT_DEFAULT_PRECIS; 

  00063	c7 45 d8 00 00
	00 10		 mov	 DWORD PTR _lfont$[ebp+24], 268435456 ; 10000000H

; 369  : 	lfont.lfHeight = -12;

  0006a	c7 45 c0 f4 ff
	ff ff		 mov	 DWORD PTR _lfont$[ebp], -12 ; fffffff4H
; File C:\Program Files (x86)\Microsoft Visual Studio\2019\Community\VC\Tools\MSVC\14.29.30133\atlmfc\include\afxwin1.inl

; 157  : 	{ return Attach(::CreateFontIndirect(lpLogFont)); }

  00071	ff 15 00 00 00
	00		 call	 DWORD PTR __imp__CreateFontIndirectA@4
  00077	50		 push	 eax
; File D:\git\src\IBK\IBK_DRFN\ProjSrc\SrcDrfn\Chart\chart_common\ILButton.cpp

; 371  : 	if(!m_Font.CreateFontIndirect(&lfont))

  00078	8d 8e 90 00 00
	00		 lea	 ecx, DWORD PTR [esi+144]
; File C:\Program Files (x86)\Microsoft Visual Studio\2019\Community\VC\Tools\MSVC\14.29.30133\atlmfc\include\afxwin1.inl

; 157  : 	{ return Attach(::CreateFontIndirect(lpLogFont)); }

  0007e	e8 00 00 00 00	 call	 ?Attach@CGdiObject@@QAEHPAX@Z ; CGdiObject::Attach
; File D:\git\src\IBK\IBK_DRFN\ProjSrc\SrcDrfn\Chart\chart_common\ILButton.cpp

; 371  : 	if(!m_Font.CreateFontIndirect(&lfont))

  00083	85 c0		 test	 eax, eax
  00085	74 13		 je	 SHORT $LN9@OnCreate

; 372  : 	{
; 373  : 		TRACE("%s[%d] : Tool Button font  !", __FILE__, __LINE__);
; 374  : 		return -1;
; 375  : 	}
; 376  : 	
; 377  : 	return 0;

  00087	33 c0		 xor	 eax, eax
  00089	5e		 pop	 esi

; 378  : }

  0008a	8b 4d fc	 mov	 ecx, DWORD PTR __$ArrayPad$[ebp]
  0008d	33 cd		 xor	 ecx, ebp
  0008f	e8 00 00 00 00	 call	 @__security_check_cookie@4
  00094	8b e5		 mov	 esp, ebp
  00096	5d		 pop	 ebp
  00097	c2 04 00	 ret	 4
$LN9@OnCreate:
  0009a	8b 4d fc	 mov	 ecx, DWORD PTR __$ArrayPad$[ebp]
  0009d	83 c8 ff	 or	 eax, -1
  000a0	33 cd		 xor	 ecx, ebp
  000a2	5e		 pop	 esi
  000a3	e8 00 00 00 00	 call	 @__security_check_cookie@4
  000a8	8b e5		 mov	 esp, ebp
  000aa	5d		 pop	 ebp
  000ab	c2 04 00	 ret	 4
?OnCreate@CILButton@@IAEHPAUtagCREATESTRUCTA@@@Z ENDP	; CILButton::OnCreate
_TEXT	ENDS
; Function compile flags: /Ogtp
; File D:\git\src\IBK\IBK_DRFN\ProjSrc\SrcDrfn\Chart\chart_common\ILButton.cpp
; File C:\Program Files (x86)\Microsoft Visual Studio\2019\Community\VC\Tools\MSVC\14.29.30133\atlmfc\include\afxwin2.inl
; File D:\git\src\IBK\IBK_DRFN\ProjSrc\SrcDrfn\Chart\chart_common\ILButton.cpp
; File C:\Program Files (x86)\Microsoft Visual Studio\2019\Community\VC\Tools\MSVC\14.29.30133\atlmfc\include\afxwin1.inl
; File D:\git\src\IBK\IBK_DRFN\ProjSrc\SrcDrfn\Chart\chart_common\ILButton.cpp
;	COMDAT ??1CILButton@@UAE@XZ
_TEXT	SEGMENT
__$EHRec$ = -12						; size = 12
??1CILButton@@UAE@XZ PROC				; CILButton::~CILButton, COMDAT
; _this$ = ecx

; 35   : {

  00000	55		 push	 ebp
  00001	8b ec		 mov	 ebp, esp
  00003	6a ff		 push	 -1
  00005	68 00 00 00 00	 push	 __ehhandler$??1CILButton@@UAE@XZ
  0000a	64 a1 00 00 00
	00		 mov	 eax, DWORD PTR fs:0
  00010	50		 push	 eax
  00011	56		 push	 esi
  00012	a1 00 00 00 00	 mov	 eax, DWORD PTR ___security_cookie
  00017	33 c5		 xor	 eax, ebp
  00019	50		 push	 eax
  0001a	8d 45 f4	 lea	 eax, DWORD PTR __$EHRec$[ebp]
  0001d	64 a3 00 00 00
	00		 mov	 DWORD PTR fs:0, eax
  00023	8b f1		 mov	 esi, ecx

; 36   : 	if (m_bUseToolTip)

  00025	83 be 84 00 00
	00 00		 cmp	 DWORD PTR [esi+132], 0
  0002c	c7 06 00 00 00
	00		 mov	 DWORD PTR [esi], OFFSET ??_7CILButton@@6B@
  00032	74 15		 je	 SHORT $LN3@CILButton

; 38   : 		if (m_Tooltip.GetSafeHwnd())

  00034	8d 8e b8 00 00
	00		 lea	 ecx, DWORD PTR [esi+184]
; File C:\Program Files (x86)\Microsoft Visual Studio\2019\Community\VC\Tools\MSVC\14.29.30133\atlmfc\include\afxwin2.inl

; 25   : 	{ return this == NULL ? NULL : m_hWnd; }

  0003a	85 c9		 test	 ecx, ecx
  0003c	74 0b		 je	 SHORT $LN3@CILButton
; File D:\git\src\IBK\IBK_DRFN\ProjSrc\SrcDrfn\Chart\chart_common\ILButton.cpp

; 38   : 		if (m_Tooltip.GetSafeHwnd())

  0003e	83 79 20 00	 cmp	 DWORD PTR [ecx+32], 0
  00042	74 05		 je	 SHORT $LN3@CILButton

; 39   : 		{
; 40   : 			//m_Tooltip.DestroyToolTipCtrl();	
; 41   : 			m_Tooltip.DestroyWindow();

  00044	8b 01		 mov	 eax, DWORD PTR [ecx]
  00046	ff 50 68	 call	 DWORD PTR [eax+104]
$LN3@CILButton:

; 44   : }

  00049	8d 8e b8 00 00
	00		 lea	 ecx, DWORD PTR [esi+184]
  0004f	e8 00 00 00 00	 call	 ??1CToolTipCtrl@@UAE@XZ	; CToolTipCtrl::~CToolTipCtrl
  00054	8d 8e 90 00 00
	00		 lea	 ecx, DWORD PTR [esi+144]
; File C:\Program Files (x86)\Microsoft Visual Studio\2019\Community\VC\Tools\MSVC\14.29.30133\atlmfc\include\afxwin1.inl

; 155  : 	{ }

  0005a	c7 01 00 00 00
	00		 mov	 DWORD PTR [ecx], OFFSET ??_7CFont@@6B@
  00060	e8 00 00 00 00	 call	 ??1CGdiObject@@UAE@XZ	; CGdiObject::~CGdiObject
; File D:\git\src\IBK\IBK_DRFN\ProjSrc\SrcDrfn\Chart\chart_common\ILButton.cpp

; 44   : }

  00065	8d 8e 88 00 00
	00		 lea	 ecx, DWORD PTR [esi+136]
  0006b	ff 15 00 00 00
	00		 call	 DWORD PTR __imp_??1?$CStringT@DV?$StrTraitMFC_DLL@DV?$ChTraitsCRT@D@ATL@@@@@ATL@@QAE@XZ
  00071	8b ce		 mov	 ecx, esi
  00073	e8 00 00 00 00	 call	 ??1CButton@@UAE@XZ	; CButton::~CButton
  00078	8b 4d f4	 mov	 ecx, DWORD PTR __$EHRec$[ebp]
  0007b	64 89 0d 00 00
	00 00		 mov	 DWORD PTR fs:0, ecx
  00082	59		 pop	 ecx
  00083	5e		 pop	 esi
  00084	8b e5		 mov	 esp, ebp
  00086	5d		 pop	 ebp
  00087	c3		 ret	 0
  00088	cc		 int	 3
  00089	cc		 int	 3
  0008a	cc		 int	 3
  0008b	cc		 int	 3
  0008c	cc		 int	 3
_TEXT	ENDS
;	COMDAT text$x
text$x	SEGMENT
__ehhandler$??1CILButton@@UAE@XZ:
  00000	90		 npad	 1
  00001	90		 npad	 1
  00002	8b 54 24 08	 mov	 edx, DWORD PTR [esp+8]
  00006	8d 42 0c	 lea	 eax, DWORD PTR [edx+12]
  00009	8b 4a f8	 mov	 ecx, DWORD PTR [edx-8]
  0000c	33 c8		 xor	 ecx, eax
  0000e	e8 00 00 00 00	 call	 @__security_check_cookie@4
  00013	b8 00 00 00 00	 mov	 eax, OFFSET __ehfuncinfo$??1CILButton@@UAE@XZ
  00018	e9 00 00 00 00	 jmp	 ___CxxFrameHandler3
text$x	ENDS
??1CILButton@@UAE@XZ ENDP				; CILButton::~CILButton
; Function compile flags: /Ogtp
; File D:\git\src\IBK\IBK_DRFN\ProjSrc\SrcDrfn\Chart\chart_common\ILButton.cpp
;	COMDAT ?GetBtnTitle@CILButton@@QAE?AV?$CStringT@DV?$StrTraitMFC_DLL@DV?$ChTraitsCRT@D@ATL@@@@@ATL@@XZ
_TEXT	SEGMENT
___$ReturnUdt$ = 8					; size = 4
?GetBtnTitle@CILButton@@QAE?AV?$CStringT@DV?$StrTraitMFC_DLL@DV?$ChTraitsCRT@D@ATL@@@@@ATL@@XZ PROC ; CILButton::GetBtnTitle, COMDAT
; _this$ = ecx

; 387  : {

  00000	55		 push	 ebp
  00001	8b ec		 mov	 ebp, esp

; 388  : 	return m_szDrawTitle;

  00003	8d 81 88 00 00
	00		 lea	 eax, DWORD PTR [ecx+136]
  00009	8b 4d 08	 mov	 ecx, DWORD PTR ___$ReturnUdt$[ebp]
  0000c	50		 push	 eax
  0000d	ff 15 00 00 00
	00		 call	 DWORD PTR __imp_??0?$CStringT@DV?$StrTraitMFC_DLL@DV?$ChTraitsCRT@D@ATL@@@@@ATL@@QAE@ABV01@@Z
  00013	8b 45 08	 mov	 eax, DWORD PTR ___$ReturnUdt$[ebp]

; 389  : }

  00016	5d		 pop	 ebp
  00017	c2 04 00	 ret	 4
?GetBtnTitle@CILButton@@QAE?AV?$CStringT@DV?$StrTraitMFC_DLL@DV?$ChTraitsCRT@D@ATL@@@@@ATL@@XZ ENDP ; CILButton::GetBtnTitle
_TEXT	ENDS
; Function compile flags: /Ogtp
; File D:\git\src\IBK\IBK_DRFN\ProjSrc\SrcDrfn\Chart\chart_common\ILButton.cpp
; File C:\Program Files (x86)\Microsoft Visual Studio\2019\Community\VC\Tools\MSVC\14.29.30133\atlmfc\include\afxwin2.inl
; File D:\git\src\IBK\IBK_DRFN\ProjSrc\SrcDrfn\Chart\chart_common\ILButton.cpp
;	COMDAT ?SetBtnTitle@CILButton@@QAEXV?$CStringT@DV?$StrTraitMFC_DLL@DV?$ChTraitsCRT@D@ATL@@@@@ATL@@@Z
_TEXT	SEGMENT
__$EHRec$ = -12						; size = 12
_szDrawTitle$ = 8					; size = 4
?SetBtnTitle@CILButton@@QAEXV?$CStringT@DV?$StrTraitMFC_DLL@DV?$ChTraitsCRT@D@ATL@@@@@ATL@@@Z PROC ; CILButton::SetBtnTitle, COMDAT
; _this$ = ecx

; 381  : {

  00000	55		 push	 ebp
  00001	8b ec		 mov	 ebp, esp
  00003	6a ff		 push	 -1
  00005	68 00 00 00 00	 push	 __ehhandler$?SetBtnTitle@CILButton@@QAEXV?$CStringT@DV?$StrTraitMFC_DLL@DV?$ChTraitsCRT@D@ATL@@@@@ATL@@@Z
  0000a	64 a1 00 00 00
	00		 mov	 eax, DWORD PTR fs:0
  00010	50		 push	 eax
  00011	56		 push	 esi
  00012	a1 00 00 00 00	 mov	 eax, DWORD PTR ___security_cookie
  00017	33 c5		 xor	 eax, ebp
  00019	50		 push	 eax
  0001a	8d 45 f4	 lea	 eax, DWORD PTR __$EHRec$[ebp]
  0001d	64 a3 00 00 00
	00		 mov	 DWORD PTR fs:0, eax
  00023	8b f1		 mov	 esi, ecx

; 382  : 	m_szDrawTitle = szDrawTitle;

  00025	8d 45 08	 lea	 eax, DWORD PTR _szDrawTitle$[ebp]
  00028	c7 45 fc 00 00
	00 00		 mov	 DWORD PTR __$EHRec$[ebp+8], 0
  0002f	50		 push	 eax
  00030	8d 8e 88 00 00
	00		 lea	 ecx, DWORD PTR [esi+136]
  00036	ff 15 00 00 00
	00		 call	 DWORD PTR __imp_??4?$CStringT@DV?$StrTraitMFC_DLL@DV?$ChTraitsCRT@D@ATL@@@@@ATL@@QAEAAV01@ABV01@@Z
; File C:\Program Files (x86)\Microsoft Visual Studio\2019\Community\VC\Tools\MSVC\14.29.30133\atlmfc\include\afxwin2.inl

; 114  : 	{ ASSERT(::IsWindow(m_hWnd)); ::InvalidateRect(m_hWnd, NULL, bErase); }

  0003c	6a 01		 push	 1
  0003e	6a 00		 push	 0
  00040	ff 76 20	 push	 DWORD PTR [esi+32]
  00043	ff 15 00 00 00
	00		 call	 DWORD PTR __imp__InvalidateRect@12
; File D:\git\src\IBK\IBK_DRFN\ProjSrc\SrcDrfn\Chart\chart_common\ILButton.cpp

; 384  : }

  00049	8d 4d 08	 lea	 ecx, DWORD PTR _szDrawTitle$[ebp]
  0004c	ff 15 00 00 00
	00		 call	 DWORD PTR __imp_??1?$CStringT@DV?$StrTraitMFC_DLL@DV?$ChTraitsCRT@D@ATL@@@@@ATL@@QAE@XZ
  00052	8b 4d f4	 mov	 ecx, DWORD PTR __$EHRec$[ebp]
  00055	64 89 0d 00 00
	00 00		 mov	 DWORD PTR fs:0, ecx
  0005c	59		 pop	 ecx
  0005d	5e		 pop	 esi
  0005e	8b e5		 mov	 esp, ebp
  00060	5d		 pop	 ebp
  00061	c2 04 00	 ret	 4
_TEXT	ENDS
;	COMDAT text$x
text$x	SEGMENT
__unwindfunclet$?SetBtnTitle@CILButton@@QAEXV?$CStringT@DV?$StrTraitMFC_DLL@DV?$ChTraitsCRT@D@ATL@@@@@ATL@@@Z$0:
  00000	8d 4d 08	 lea	 ecx, DWORD PTR _szDrawTitle$[ebp]
  00003	ff 25 00 00 00
	00		 jmp	 DWORD PTR __imp_??1?$CStringT@DV?$StrTraitMFC_DLL@DV?$ChTraitsCRT@D@ATL@@@@@ATL@@QAE@XZ
  00009	cc		 int	 3
  0000a	cc		 int	 3
  0000b	cc		 int	 3
  0000c	cc		 int	 3
  0000d	cc		 int	 3
__ehhandler$?SetBtnTitle@CILButton@@QAEXV?$CStringT@DV?$StrTraitMFC_DLL@DV?$ChTraitsCRT@D@ATL@@@@@ATL@@@Z:
  0000e	90		 npad	 1
  0000f	90		 npad	 1
  00010	8b 54 24 08	 mov	 edx, DWORD PTR [esp+8]
  00014	8d 42 0c	 lea	 eax, DWORD PTR [edx+12]
  00017	8b 4a f8	 mov	 ecx, DWORD PTR [edx-8]
  0001a	33 c8		 xor	 ecx, eax
  0001c	e8 00 00 00 00	 call	 @__security_check_cookie@4
  00021	b8 00 00 00 00	 mov	 eax, OFFSET __ehfuncinfo$?SetBtnTitle@CILButton@@QAEXV?$CStringT@DV?$StrTraitMFC_DLL@DV?$ChTraitsCRT@D@ATL@@@@@ATL@@@Z
  00026	e9 00 00 00 00	 jmp	 ___CxxFrameHandler3
text$x	ENDS
?SetBtnTitle@CILButton@@QAEXV?$CStringT@DV?$StrTraitMFC_DLL@DV?$ChTraitsCRT@D@ATL@@@@@ATL@@@Z ENDP ; CILButton::SetBtnTitle
; Function compile flags: /Ogtp
; File D:\git\src\IBK\IBK_DRFN\ProjSrc\SrcDrfn\Chart\chart_common\ILButton.cpp
;	COMDAT ?PreSubclassWindow@CILButton@@MAEXXZ
_TEXT	SEGMENT
?PreSubclassWindow@CILButton@@MAEXXZ PROC		; CILButton::PreSubclassWindow, COMDAT
; _this$ = ecx

; 64   : {

  00000	56		 push	 esi
  00001	8b f1		 mov	 esi, ecx

; 65   : 	CButton::PreSubclassWindow();

  00003	e8 00 00 00 00	 call	 ?PreSubclassWindow@CWnd@@UAEXXZ ; CWnd::PreSubclassWindow

; 66   : 	ModifyStyle(0, BS_OWNERDRAW);

  00008	6a 00		 push	 0
  0000a	6a 0b		 push	 11			; 0000000bH
  0000c	6a 00		 push	 0
  0000e	8b ce		 mov	 ecx, esi
  00010	e8 00 00 00 00	 call	 ?ModifyStyle@CWnd@@QAEHKKI@Z ; CWnd::ModifyStyle
  00015	5e		 pop	 esi

; 67   : }

  00016	c3		 ret	 0
?PreSubclassWindow@CILButton@@MAEXXZ ENDP		; CILButton::PreSubclassWindow
_TEXT	ENDS
; Function compile flags: /Ogtp
; File D:\git\src\IBK\IBK_DRFN\ProjSrc\SrcDrfn\Chart\chart_common\ILButton.cpp
; File C:\Program Files (x86)\Microsoft Visual Studio\2019\Community\VC\Tools\MSVC\14.29.30133\atlmfc\include\afxwin2.inl
; File D:\git\src\IBK\IBK_DRFN\ProjSrc\SrcDrfn\Chart\chart_common\ILButton.cpp
; File C:\Program Files (x86)\Microsoft Visual Studio\2019\Community\VC\Tools\MSVC\14.29.30133\atlmfc\include\afxwin2.inl
; File D:\git\src\IBK\IBK_DRFN\ProjSrc\SrcDrfn\Chart\chart_common\ILButton.cpp
; File C:\Program Files (x86)\Microsoft Visual Studio\2019\Community\VC\Tools\MSVC\14.29.30133\atlmfc\include\afxwin2.inl
; File D:\git\src\IBK\IBK_DRFN\ProjSrc\SrcDrfn\Chart\chart_common\ILButton.cpp
; File C:\Program Files (x86)\Microsoft Visual Studio\2019\Community\VC\Tools\MSVC\14.29.30133\atlmfc\include\afxwin2.inl
; File D:\git\src\IBK\IBK_DRFN\ProjSrc\SrcDrfn\Chart\chart_common\ILButton.cpp
; File C:\Program Files (x86)\Microsoft Visual Studio\2019\Community\VC\Tools\MSVC\14.29.30133\atlmfc\include\atltypes.h
; File D:\git\src\IBK\IBK_DRFN\ProjSrc\SrcDrfn\Chart\chart_common\ILButton.cpp
; File C:\Program Files (x86)\Microsoft Visual Studio\2019\Community\VC\Tools\MSVC\14.29.30133\atlmfc\include\atltypes.h
; File D:\git\src\IBK\IBK_DRFN\ProjSrc\SrcDrfn\Chart\chart_common\ILButton.cpp
; File C:\Program Files (x86)\Microsoft Visual Studio\2019\Community\VC\Tools\MSVC\14.29.30133\atlmfc\include\afxwin1.inl
; File D:\git\src\IBK\IBK_DRFN\ProjSrc\SrcDrfn\Chart\chart_common\ILButton.cpp
; File C:\Program Files (x86)\Microsoft Visual Studio\2019\Community\VC\Tools\MSVC\14.29.30133\atlmfc\include\afxwin1.inl
; File D:\git\src\IBK\IBK_DRFN\ProjSrc\SrcDrfn\Chart\chart_common\ILButton.cpp
; File C:\Program Files (x86)\Microsoft Visual Studio\2019\Community\VC\Tools\MSVC\14.29.30133\atlmfc\include\afxwin1.inl
; File D:\git\src\IBK\IBK_DRFN\ProjSrc\SrcDrfn\Chart\chart_common\ILButton.cpp
; File C:\Program Files (x86)\Microsoft Visual Studio\2019\Community\VC\Tools\MSVC\14.29.30133\atlmfc\include\afxwin1.inl
; File D:\git\src\IBK\IBK_DRFN\ProjSrc\SrcDrfn\Chart\chart_common\ILButton.cpp
; File C:\Program Files (x86)\Microsoft Visual Studio\2019\Community\VC\Tools\MSVC\14.29.30133\atlmfc\include\afxwin1.inl
; File D:\git\src\IBK\IBK_DRFN\ProjSrc\SrcDrfn\Chart\chart_common\ILButton.cpp
; File C:\Program Files (x86)\Microsoft Visual Studio\2019\Community\VC\Tools\MSVC\14.29.30133\atlmfc\include\afxwin1.inl
; File C:\Program Files (x86)\Microsoft Visual Studio\2019\Community\VC\Tools\MSVC\14.29.30133\atlmfc\include\atltypes.h
; File D:\git\src\IBK\IBK_DRFN\ProjSrc\SrcDrfn\Chart\chart_common\ILButton.cpp
; File C:\Program Files (x86)\Microsoft Visual Studio\2019\Community\VC\Tools\MSVC\14.29.30133\atlmfc\include\atlsimpstr.h
; File C:\Program Files (x86)\Microsoft Visual Studio\2019\Community\VC\Tools\MSVC\14.29.30133\atlmfc\include\afxwin1.inl
; File D:\git\src\IBK\IBK_DRFN\ProjSrc\SrcDrfn\Chart\chart_common\ILButton.cpp
;	COMDAT ?DrawItem@CILButton@@UAEXPAUtagDRAWITEMSTRUCT@@@Z
_TEXT	SEGMENT
_mouse_position$ = -120					; size = 8
_pOldFont$1$ = -112					; size = 4
_tm$9 = -108						; size = 56
_TextRect$10 = -52					; size = 16
_rc$ = -36						; size = 16
_r$ = -20						; size = 16
__$ArrayPad$ = -4					; size = 4
_lpDrawItemStruct$ = 8					; size = 4
?DrawItem@CILButton@@UAEXPAUtagDRAWITEMSTRUCT@@@Z PROC	; CILButton::DrawItem, COMDAT
; _this$ = ecx

; 119  : {

  00000	55		 push	 ebp
  00001	8b ec		 mov	 ebp, esp
  00003	83 ec 78	 sub	 esp, 120		; 00000078H
  00006	a1 00 00 00 00	 mov	 eax, DWORD PTR ___security_cookie
  0000b	33 c5		 xor	 eax, ebp
  0000d	89 45 fc	 mov	 DWORD PTR __$ArrayPad$[ebp], eax
  00010	53		 push	 ebx
  00011	8b 5d 08	 mov	 ebx, DWORD PTR _lpDrawItemStruct$[ebp]
  00014	56		 push	 esi
  00015	8b f1		 mov	 esi, ecx
  00017	57		 push	 edi

; 120  :   POINT mouse_position;
; 121  :     if ((m_bButtonDown) && (::GetCapture() == m_hWnd) && (::GetCursorPos(&mouse_position)))

  00018	83 be 8c 00 00
	00 00		 cmp	 DWORD PTR [esi+140], 0
  0001f	0f 84 8a 00 00
	00		 je	 $LN6@DrawItem
  00025	ff 15 00 00 00
	00		 call	 DWORD PTR __imp__GetCapture@0
  0002b	3b 46 20	 cmp	 eax, DWORD PTR [esi+32]
  0002e	75 7f		 jne	 SHORT $LN6@DrawItem
  00030	8d 45 88	 lea	 eax, DWORD PTR _mouse_position$[ebp]
  00033	50		 push	 eax
  00034	ff 15 00 00 00
	00		 call	 DWORD PTR __imp__GetCursorPos@4
  0003a	85 c0		 test	 eax, eax
  0003c	74 71		 je	 SHORT $LN6@DrawItem

; 122  : 	{
; 123  : 		if (::WindowFromPoint(mouse_position) == m_hWnd)

  0003e	ff 75 8c	 push	 DWORD PTR _mouse_position$[ebp+4]
  00041	ff 75 88	 push	 DWORD PTR _mouse_position$[ebp]
  00044	ff 15 00 00 00
	00		 call	 DWORD PTR __imp__WindowFromPoint@8
  0004a	8b 4e 20	 mov	 ecx, DWORD PTR [esi+32]
  0004d	8b 3d 00 00 00
	00		 mov	 edi, DWORD PTR __imp__SendMessageA@16
  00053	6a 00		 push	 0
  00055	6a 00		 push	 0
  00057	68 f2 00 00 00	 push	 242			; 000000f2H
  0005c	51		 push	 ecx
  0005d	3b c1		 cmp	 eax, ecx
  0005f	75 27		 jne	 SHORT $LN3@DrawItem
; File C:\Program Files (x86)\Microsoft Visual Studio\2019\Community\VC\Tools\MSVC\14.29.30133\atlmfc\include\afxwin2.inl

; 624  : 	{ ASSERT(::IsWindow(m_hWnd)); return (UINT)::SendMessage(m_hWnd, BM_GETSTATE, 0, 0); }

  00061	ff d7		 call	 edi
; File D:\git\src\IBK\IBK_DRFN\ProjSrc\SrcDrfn\Chart\chart_common\ILButton.cpp

; 125  : 			if ((GetState() & BST_PUSHED) != BST_PUSHED) 

  00063	a8 04		 test	 al, 4
  00065	75 48		 jne	 SHORT $LN6@DrawItem
; File C:\Program Files (x86)\Microsoft Visual Studio\2019\Community\VC\Tools\MSVC\14.29.30133\atlmfc\include\afxwin2.inl

; 626  : 	{ ::SendMessage(m_hWnd, BM_SETSTATE, bHighlight, 0); }

  00067	6a 00		 push	 0
  00069	6a 01		 push	 1
  0006b	68 f3 00 00 00	 push	 243			; 000000f3H
  00070	ff 76 20	 push	 DWORD PTR [esi+32]
  00073	ff d7		 call	 edi
  00075	5f		 pop	 edi
; File D:\git\src\IBK\IBK_DRFN\ProjSrc\SrcDrfn\Chart\chart_common\ILButton.cpp

; 187  : }

  00076	5e		 pop	 esi
  00077	5b		 pop	 ebx
  00078	8b 4d fc	 mov	 ecx, DWORD PTR __$ArrayPad$[ebp]
  0007b	33 cd		 xor	 ecx, ebp
  0007d	e8 00 00 00 00	 call	 @__security_check_cookie@4
  00082	8b e5		 mov	 esp, ebp
  00084	5d		 pop	 ebp
  00085	c2 04 00	 ret	 4
$LN3@DrawItem:
; File C:\Program Files (x86)\Microsoft Visual Studio\2019\Community\VC\Tools\MSVC\14.29.30133\atlmfc\include\afxwin2.inl

; 624  : 	{ ASSERT(::IsWindow(m_hWnd)); return (UINT)::SendMessage(m_hWnd, BM_GETSTATE, 0, 0); }

  00088	ff d7		 call	 edi
; File D:\git\src\IBK\IBK_DRFN\ProjSrc\SrcDrfn\Chart\chart_common\ILButton.cpp

; 131  : 			if ((GetState() & BST_PUSHED) == BST_PUSHED) {

  0008a	a8 04		 test	 al, 4
  0008c	74 21		 je	 SHORT $LN6@DrawItem
; File C:\Program Files (x86)\Microsoft Visual Studio\2019\Community\VC\Tools\MSVC\14.29.30133\atlmfc\include\afxwin2.inl

; 626  : 	{ ::SendMessage(m_hWnd, BM_SETSTATE, bHighlight, 0); }

  0008e	6a 00		 push	 0
  00090	6a 00		 push	 0
  00092	68 f3 00 00 00	 push	 243			; 000000f3H
  00097	ff 76 20	 push	 DWORD PTR [esi+32]
  0009a	ff d7		 call	 edi
  0009c	5f		 pop	 edi
; File D:\git\src\IBK\IBK_DRFN\ProjSrc\SrcDrfn\Chart\chart_common\ILButton.cpp

; 187  : }

  0009d	5e		 pop	 esi
  0009e	5b		 pop	 ebx
  0009f	8b 4d fc	 mov	 ecx, DWORD PTR __$ArrayPad$[ebp]
  000a2	33 cd		 xor	 ecx, ebp
  000a4	e8 00 00 00 00	 call	 @__security_check_cookie@4
  000a9	8b e5		 mov	 esp, ebp
  000ab	5d		 pop	 ebp
  000ac	c2 04 00	 ret	 4
$LN6@DrawItem:

; 132  : 				SetState(FALSE);
; 133  : 				return;
; 134  : 			}
; 135  : 		}
; 136  : 	}	
; 137  : 	
; 138  : 	CDC *pDC = CDC::FromHandle(lpDrawItemStruct->hDC);	// DC  .

  000af	ff 73 18	 push	 DWORD PTR [ebx+24]
  000b2	e8 00 00 00 00	 call	 ?FromHandle@CDC@@SGPAV1@PAUHDC__@@@Z ; CDC::FromHandle

; 141  : 	RECT r=lpDrawItemStruct->rcItem;					// Rect  .

  000b7	0f 10 43 1c	 movups	 xmm0, XMMWORD PTR [ebx+28]
  000bb	8b f8		 mov	 edi, eax
; File C:\Program Files (x86)\Microsoft Visual Studio\2019\Community\VC\Tools\MSVC\14.29.30133\atlmfc\include\atltypes.h

; 548  : 	::CopyRect(this, &srcRect);

  000bd	8d 45 ec	 lea	 eax, DWORD PTR _r$[ebp]
  000c0	50		 push	 eax
  000c1	8d 45 dc	 lea	 eax, DWORD PTR _rc$[ebp]
  000c4	50		 push	 eax
; File D:\git\src\IBK\IBK_DRFN\ProjSrc\SrcDrfn\Chart\chart_common\ILButton.cpp

; 141  : 	RECT r=lpDrawItemStruct->rcItem;					// Rect  .

  000c5	0f 11 45 ec	 movups	 XMMWORD PTR _r$[ebp], xmm0
; File C:\Program Files (x86)\Microsoft Visual Studio\2019\Community\VC\Tools\MSVC\14.29.30133\atlmfc\include\atltypes.h

; 548  : 	::CopyRect(this, &srcRect);

  000c9	ff 15 00 00 00
	00		 call	 DWORD PTR __imp__CopyRect@8
; File D:\git\src\IBK\IBK_DRFN\ProjSrc\SrcDrfn\Chart\chart_common\ILButton.cpp

; 144  : 	pDC->SetBkMode(TRANSPARENT);						//   

  000cf	6a 01		 push	 1
  000d1	8b cf		 mov	 ecx, edi
  000d3	e8 00 00 00 00	 call	 ?SetBkMode@CDC@@QAEHH@Z	; CDC::SetBkMode
; File C:\Program Files (x86)\Microsoft Visual Studio\2019\Community\VC\Tools\MSVC\14.29.30133\atlmfc\include\afxwin1.inl

; 374  : 	{ ASSERT(m_hAttribDC != NULL); return ::GetBkColor(m_hAttribDC); }

  000d8	ff 77 08	 push	 DWORD PTR [edi+8]
  000db	ff 15 00 00 00
	00		 call	 DWORD PTR __imp__GetBkColor@4
; File D:\git\src\IBK\IBK_DRFN\ProjSrc\SrcDrfn\Chart\chart_common\ILButton.cpp

; 145  : 	pDC->FillSolidRect(rc, pDC->GetBkColor()); //KHD :  

  000e1	50		 push	 eax
  000e2	8d 45 dc	 lea	 eax, DWORD PTR _rc$[ebp]
  000e5	8b cf		 mov	 ecx, edi
  000e7	50		 push	 eax
  000e8	e8 00 00 00 00	 call	 ?FillSolidRect@CDC@@QAEXPBUtagRECT@@K@Z ; CDC::FillSolidRect

; 146  : 	if(m_pImageList == NULL || m_pImageList->GetSafeHandle() == NULL)

  000ed	8b 86 98 00 00
	00		 mov	 eax, DWORD PTR [esi+152]
  000f3	85 c0		 test	 eax, eax
  000f5	0f 84 f1 00 00
	00		 je	 $LN8@DrawItem
; File C:\Program Files (x86)\Microsoft Visual Studio\2019\Community\VC\Tools\MSVC\14.29.30133\atlmfc\include\afxwin1.inl

; 853  : 	{ return (this == NULL) ? NULL : m_hImageList; }

  000fb	8b 40 04	 mov	 eax, DWORD PTR [eax+4]
; File D:\git\src\IBK\IBK_DRFN\ProjSrc\SrcDrfn\Chart\chart_common\ILButton.cpp

; 146  : 	if(m_pImageList == NULL || m_pImageList->GetSafeHandle() == NULL)

  000fe	85 c0		 test	 eax, eax
  00100	0f 84 e6 00 00
	00		 je	 $LN8@DrawItem

; 147  : 		return;
; 148  : 	if (lpDrawItemStruct->itemState & ODS_DISABLED)		//  

  00106	8b 4b 10	 mov	 ecx, DWORD PTR [ebx+16]
  00109	f6 c1 04	 test	 cl, 4
  0010c	74 11		 je	 SHORT $LN9@DrawItem
; File C:\Program Files (x86)\Microsoft Visual Studio\2019\Community\VC\Tools\MSVC\14.29.30133\atlmfc\include\afxwin1.inl

; 871  : 	{ ASSERT(m_hImageList != NULL); ASSERT(pDC != NULL); return ImageList_Draw(m_hImageList, nImage, pDC->GetSafeHdc(), pt.x, pt.y, nStyle); }

  0010e	6a 01		 push	 1
  00110	6a 00		 push	 0
  00112	6a 00		 push	 0
  00114	ff 77 04	 push	 DWORD PTR [edi+4]
  00117	ff b6 a4 00 00
	00		 push	 DWORD PTR [esi+164]
; File D:\git\src\IBK\IBK_DRFN\ProjSrc\SrcDrfn\Chart\chart_common\ILButton.cpp

; 151  : 	}

  0011d	eb 5a		 jmp	 SHORT $LN82@DrawItem
$LN9@DrawItem:

; 152  : 	else
; 153  : 	{
; 154  : 		if ((lpDrawItemStruct->itemState & ODS_SELECTED) || (m_bPushLike && m_bCheck))// 

  0011f	f6 c1 01	 test	 cl, 1
  00122	75 46		 jne	 SHORT $LN13@DrawItem
  00124	83 be ac 00 00
	00 00		 cmp	 DWORD PTR [esi+172], 0
  0012b	74 09		 je	 SHORT $LN11@DrawItem
  0012d	83 be b0 00 00
	00 00		 cmp	 DWORD PTR [esi+176], 0
  00134	75 34		 jne	 SHORT $LN13@DrawItem
$LN11@DrawItem:

; 155  : 		{
; 156  : 			m_pImageList->Draw(pDC,m_nDown, CPoint(0,0), ILD_TRANSPARENT);
; 157  : 		}
; 158  : 		else if(m_bHover && m_nOver != m_nNormal)

  00136	83 be 58 01 00
	00 00		 cmp	 DWORD PTR [esi+344], 0
  0013d	74 1a		 je	 SHORT $LN81@DrawItem
  0013f	8b 8e a8 00 00
	00		 mov	 ecx, DWORD PTR [esi+168]
  00145	3b 8e 9c 00 00
	00		 cmp	 ecx, DWORD PTR [esi+156]
  0014b	74 0c		 je	 SHORT $LN81@DrawItem
; File C:\Program Files (x86)\Microsoft Visual Studio\2019\Community\VC\Tools\MSVC\14.29.30133\atlmfc\include\afxwin1.inl

; 871  : 	{ ASSERT(m_hImageList != NULL); ASSERT(pDC != NULL); return ImageList_Draw(m_hImageList, nImage, pDC->GetSafeHdc(), pt.x, pt.y, nStyle); }

  0014d	6a 01		 push	 1
  0014f	6a 00		 push	 0
  00151	6a 00		 push	 0
  00153	ff 77 04	 push	 DWORD PTR [edi+4]
  00156	51		 push	 ecx
; File D:\git\src\IBK\IBK_DRFN\ProjSrc\SrcDrfn\Chart\chart_common\ILButton.cpp

; 161  : 		}

  00157	eb 20		 jmp	 SHORT $LN82@DrawItem
$LN81@DrawItem:
; File C:\Program Files (x86)\Microsoft Visual Studio\2019\Community\VC\Tools\MSVC\14.29.30133\atlmfc\include\afxwin1.inl

; 871  : 	{ ASSERT(m_hImageList != NULL); ASSERT(pDC != NULL); return ImageList_Draw(m_hImageList, nImage, pDC->GetSafeHdc(), pt.x, pt.y, nStyle); }

  00159	6a 01		 push	 1
  0015b	6a 00		 push	 0
  0015d	6a 00		 push	 0
  0015f	ff 77 04	 push	 DWORD PTR [edi+4]
  00162	ff b6 9c 00 00
	00		 push	 DWORD PTR [esi+156]
  00168	eb 0f		 jmp	 SHORT $LN82@DrawItem
$LN13@DrawItem:
  0016a	6a 01		 push	 1
  0016c	6a 00		 push	 0
  0016e	6a 00		 push	 0
  00170	ff 77 04	 push	 DWORD PTR [edi+4]
  00173	ff b6 a0 00 00
	00		 push	 DWORD PTR [esi+160]
$LN82@DrawItem:
; File D:\git\src\IBK\IBK_DRFN\ProjSrc\SrcDrfn\Chart\chart_common\ILButton.cpp

; 168  : 	if (m_bUseDrawTitle)

  00179	50		 push	 eax
  0017a	ff 15 00 00 00
	00		 call	 DWORD PTR __imp__ImageList_Draw@24
  00180	83 be 80 00 00
	00 00		 cmp	 DWORD PTR [esi+128], 0
  00187	74 63		 je	 SHORT $LN8@DrawItem

; 169  : 	{
; 170  : //		CFont *pFont = CFont::FromHandle((HFONT)::GetStockObject(DEFAULT_GUI_FONT));
; 171  : 		CFont* pOldFont=pDC->SelectObject(&m_Font);			// get text font

  00189	8b 17		 mov	 edx, DWORD PTR [edi]
  0018b	8d 86 90 00 00
	00		 lea	 eax, DWORD PTR [esi+144]
  00191	50		 push	 eax
  00192	8b cf		 mov	 ecx, edi
  00194	ff 52 30	 call	 DWORD PTR [edx+48]
  00197	89 45 90	 mov	 DWORD PTR _pOldFont$1$[ebp], eax
; File C:\Program Files (x86)\Microsoft Visual Studio\2019\Community\VC\Tools\MSVC\14.29.30133\atlmfc\include\afxwin1.inl

; 689  : 	{ ASSERT(m_hAttribDC != NULL); return ::GetTextMetrics(m_hAttribDC, lpMetrics); }

  0019a	8d 45 94	 lea	 eax, DWORD PTR _tm$9[ebp]
  0019d	50		 push	 eax
  0019e	ff 77 08	 push	 DWORD PTR [edi+8]
  001a1	ff 15 00 00 00
	00		 call	 DWORD PTR __imp__GetTextMetricsA@8
; File C:\Program Files (x86)\Microsoft Visual Studio\2019\Community\VC\Tools\MSVC\14.29.30133\atlmfc\include\atltypes.h

; 548  : 	::CopyRect(this, &srcRect);

  001a7	8d 43 1c	 lea	 eax, DWORD PTR [ebx+28]
  001aa	50		 push	 eax
  001ab	8d 45 cc	 lea	 eax, DWORD PTR _TextRect$10[ebp]
  001ae	50		 push	 eax
  001af	ff 15 00 00 00
	00		 call	 DWORD PTR __imp__CopyRect@8
; File D:\git\src\IBK\IBK_DRFN\ProjSrc\SrcDrfn\Chart\chart_common\ILButton.cpp

; 176  : 		if (lpDrawItemStruct->itemState & ODS_DISABLED)		//  

  001b5	f6 43 10 04	 test	 BYTE PTR [ebx+16], 4
  001b9	8b cf		 mov	 ecx, edi
  001bb	8b 07		 mov	 eax, DWORD PTR [edi]
  001bd	74 07		 je	 SHORT $LN17@DrawItem

; 177  : 			pDC->SetTextColor(RGB(172,168,153));

  001bf	68 ac a8 99 00	 push	 10070188		; 0099a8acH
  001c4	eb 02		 jmp	 SHORT $LN83@DrawItem
$LN17@DrawItem:

; 178  : 		else
; 179  : 			//<<20100422_JS.Kim    
; 180  : 			pDC->SetTextColor(RGB(0,0,0));

  001c6	6a 00		 push	 0
$LN83@DrawItem:
; File C:\Program Files (x86)\Microsoft Visual Studio\2019\Community\VC\Tools\MSVC\14.29.30133\atlmfc\include\atlsimpstr.h

; 519  : 		return( GetData()->nDataLength );

  001c8	ff 50 38	 call	 DWORD PTR [eax+56]
  001cb	8b 86 88 00 00
	00		 mov	 eax, DWORD PTR [esi+136]
; File C:\Program Files (x86)\Microsoft Visual Studio\2019\Community\VC\Tools\MSVC\14.29.30133\atlmfc\include\afxwin1.inl

; 600  : 		return _AFX_FUNCNAME(DrawText)((LPCTSTR)str, (int)str.GetLength(), lpRect, nFormat); }

  001d1	8d 4d cc	 lea	 ecx, DWORD PTR _TextRect$10[ebp]
  001d4	8b 17		 mov	 edx, DWORD PTR [edi]
  001d6	6a 25		 push	 37			; 00000025H
  001d8	51		 push	 ecx
  001d9	ff 70 f4	 push	 DWORD PTR [eax-12]
  001dc	8b cf		 mov	 ecx, edi
  001de	50		 push	 eax
  001df	ff 52 70	 call	 DWORD PTR [edx+112]
; File D:\git\src\IBK\IBK_DRFN\ProjSrc\SrcDrfn\Chart\chart_common\ILButton.cpp

; 185  : 		pDC->SelectObject(pOldFont);

  001e2	8b 07		 mov	 eax, DWORD PTR [edi]
  001e4	8b cf		 mov	 ecx, edi
  001e6	ff 75 90	 push	 DWORD PTR _pOldFont$1$[ebp]
  001e9	ff 50 30	 call	 DWORD PTR [eax+48]
$LN8@DrawItem:

; 187  : }

  001ec	8b 4d fc	 mov	 ecx, DWORD PTR __$ArrayPad$[ebp]
  001ef	5f		 pop	 edi
  001f0	5e		 pop	 esi
  001f1	33 cd		 xor	 ecx, ebp
  001f3	5b		 pop	 ebx
  001f4	e8 00 00 00 00	 call	 @__security_check_cookie@4
  001f9	8b e5		 mov	 esp, ebp
  001fb	5d		 pop	 ebp
  001fc	c2 04 00	 ret	 4
?DrawItem@CILButton@@UAEXPAUtagDRAWITEMSTRUCT@@@Z ENDP	; CILButton::DrawItem
_TEXT	ENDS
; Function compile flags: /Ogtp
; File D:\git\src\IBK\IBK_DRFN\ProjSrc\SrcDrfn\Chart\chart_common\ILButton.cpp
; File C:\Program Files (x86)\Microsoft Visual Studio\2019\Community\VC\Tools\MSVC\14.29.30133\atlmfc\include\afxwin2.inl
; File D:\git\src\IBK\IBK_DRFN\ProjSrc\SrcDrfn\Chart\chart_common\ILButton.cpp
; File C:\Program Files (x86)\Microsoft Visual Studio\2019\Community\VC\Tools\MSVC\14.29.30133\atlmfc\include\afxcmn.inl
; File D:\git\src\IBK\IBK_DRFN\ProjSrc\SrcDrfn\Chart\chart_common\ILButton.cpp
; File C:\Program Files (x86)\Microsoft Visual Studio\2019\Community\VC\Tools\MSVC\14.29.30133\atlmfc\include\afxcmn.inl
; File D:\git\src\IBK\IBK_DRFN\ProjSrc\SrcDrfn\Chart\chart_common\ILButton.cpp
;	COMDAT ?RelayEvent@CILButton@@QAEXIIJ@Z
_TEXT	SEGMENT
_msg$1 = -28						; size = 28
_message$ = 8						; size = 4
_wParam$ = 12						; size = 4
_lParam$ = 16						; size = 4
?RelayEvent@CILButton@@QAEXIIJ@Z PROC			; CILButton::RelayEvent, COMDAT
; _this$ = ecx

; 291  : {

  00000	55		 push	 ebp
  00001	8b ec		 mov	 ebp, esp
  00003	8b d1		 mov	 edx, ecx
  00005	83 ec 1c	 sub	 esp, 28			; 0000001cH

; 292  : 	if(m_Tooltip.GetSafeHwnd())

  00008	8d 82 b8 00 00
	00		 lea	 eax, DWORD PTR [edx+184]
; File C:\Program Files (x86)\Microsoft Visual Studio\2019\Community\VC\Tools\MSVC\14.29.30133\atlmfc\include\afxwin2.inl

; 25   : 	{ return this == NULL ? NULL : m_hWnd; }

  0000e	85 c0		 test	 eax, eax
  00010	74 48		 je	 SHORT $LN2@RelayEvent
; File D:\git\src\IBK\IBK_DRFN\ProjSrc\SrcDrfn\Chart\chart_common\ILButton.cpp

; 292  : 	if(m_Tooltip.GetSafeHwnd())

  00012	83 78 20 00	 cmp	 DWORD PTR [eax+32], 0
  00016	74 42		 je	 SHORT $LN2@RelayEvent

; 293  : 	{
; 294  : 		MSG msg;
; 295  : 		msg.hwnd = m_hWnd;

  00018	8b 42 20	 mov	 eax, DWORD PTR [edx+32]

; 298  : 		msg.lParam = lParam;

  0001b	8b 4d 10	 mov	 ecx, DWORD PTR _lParam$[ebp]
  0001e	89 45 e4	 mov	 DWORD PTR _msg$1[ebp], eax
  00021	8b 45 08	 mov	 eax, DWORD PTR _message$[ebp]
  00024	89 45 e8	 mov	 DWORD PTR _msg$1[ebp+4], eax
  00027	8b 45 0c	 mov	 eax, DWORD PTR _wParam$[ebp]
  0002a	89 45 ec	 mov	 DWORD PTR _msg$1[ebp+8], eax

; 299  : 		msg.time = 0;
; 300  : 		msg.pt.x = LOWORD(lParam);

  0002d	0f b7 c1	 movzx	 eax, cx
  00030	89 45 f8	 mov	 DWORD PTR _msg$1[ebp+20], eax
; File C:\Program Files (x86)\Microsoft Visual Studio\2019\Community\VC\Tools\MSVC\14.29.30133\atlmfc\include\afxcmn.inl

; 429  : 	{ ASSERT(::IsWindow(m_hWnd));  ::SendMessage(m_hWnd, TTM_RELAYEVENT, 0, (LPARAM)lpMsg); }

  00033	8d 45 e4	 lea	 eax, DWORD PTR _msg$1[ebp]
  00036	50		 push	 eax
  00037	6a 00		 push	 0
  00039	68 07 04 00 00	 push	 1031			; 00000407H
  0003e	ff b2 d8 00 00
	00		 push	 DWORD PTR [edx+216]
; File D:\git\src\IBK\IBK_DRFN\ProjSrc\SrcDrfn\Chart\chart_common\ILButton.cpp

; 298  : 		msg.lParam = lParam;

  00044	89 4d f0	 mov	 DWORD PTR _msg$1[ebp+12], ecx

; 301  : 		msg.pt.y = HIWORD(lParam);

  00047	c1 e9 10	 shr	 ecx, 16			; 00000010H
  0004a	c7 45 f4 00 00
	00 00		 mov	 DWORD PTR _msg$1[ebp+16], 0
  00051	89 4d fc	 mov	 DWORD PTR _msg$1[ebp+24], ecx
; File C:\Program Files (x86)\Microsoft Visual Studio\2019\Community\VC\Tools\MSVC\14.29.30133\atlmfc\include\afxcmn.inl

; 429  : 	{ ASSERT(::IsWindow(m_hWnd));  ::SendMessage(m_hWnd, TTM_RELAYEVENT, 0, (LPARAM)lpMsg); }

  00054	ff 15 00 00 00
	00		 call	 DWORD PTR __imp__SendMessageA@16
$LN2@RelayEvent:
; File D:\git\src\IBK\IBK_DRFN\ProjSrc\SrcDrfn\Chart\chart_common\ILButton.cpp

; 317  : }

  0005a	8b e5		 mov	 esp, ebp
  0005c	5d		 pop	 ebp
  0005d	c2 0c 00	 ret	 12			; 0000000cH
?RelayEvent@CILButton@@QAEXIIJ@Z ENDP			; CILButton::RelayEvent
_TEXT	ENDS
; Function compile flags: /Ogtp
; File D:\git\src\IBK\IBK_DRFN\ProjSrc\SrcDrfn\Chart\chart_common\ILButton.cpp
; File C:\Program Files (x86)\Microsoft Visual Studio\2019\Community\VC\Tools\MSVC\14.29.30133\atlmfc\include\afxwin2.inl
; File D:\git\src\IBK\IBK_DRFN\ProjSrc\SrcDrfn\Chart\chart_common\ILButton.cpp
; File C:\Program Files (x86)\Microsoft Visual Studio\2019\Community\VC\Tools\MSVC\14.29.30133\atlmfc\include\afxcmn.inl
; File D:\git\src\IBK\IBK_DRFN\ProjSrc\SrcDrfn\Chart\chart_common\ILButton.cpp
;	COMDAT ?FP_vSetToolTipText@CILButton@@QAEXV?$CStringT@DV?$StrTraitMFC_DLL@DV?$ChTraitsCRT@D@ATL@@@@@ATL@@@Z
_TEXT	SEGMENT
__$EHRec$ = -12						; size = 12
_s$ = 8							; size = 4
?FP_vSetToolTipText@CILButton@@QAEXV?$CStringT@DV?$StrTraitMFC_DLL@DV?$ChTraitsCRT@D@ATL@@@@@ATL@@@Z PROC ; CILButton::FP_vSetToolTipText, COMDAT
; _this$ = ecx

; 253  : {

  00000	55		 push	 ebp
  00001	8b ec		 mov	 ebp, esp
  00003	6a ff		 push	 -1
  00005	68 00 00 00 00	 push	 __ehhandler$?FP_vSetToolTipText@CILButton@@QAEXV?$CStringT@DV?$StrTraitMFC_DLL@DV?$ChTraitsCRT@D@ATL@@@@@ATL@@@Z
  0000a	64 a1 00 00 00
	00		 mov	 eax, DWORD PTR fs:0
  00010	50		 push	 eax
  00011	56		 push	 esi
  00012	57		 push	 edi
  00013	a1 00 00 00 00	 mov	 eax, DWORD PTR ___security_cookie
  00018	33 c5		 xor	 eax, ebp
  0001a	50		 push	 eax
  0001b	8d 45 f4	 lea	 eax, DWORD PTR __$EHRec$[ebp]
  0001e	64 a3 00 00 00
	00		 mov	 DWORD PTR fs:0, eax
  00024	8b f1		 mov	 esi, ecx

; 255  : 	if( ! m_Tooltip.GetSafeHwnd() )

  00026	8d be b8 00 00
	00		 lea	 edi, DWORD PTR [esi+184]
  0002c	c7 45 fc 00 00
	00 00		 mov	 DWORD PTR __$EHRec$[ebp+8], 0
  00033	c7 86 84 00 00
	00 01 00 00 00	 mov	 DWORD PTR [esi+132], 1
; File C:\Program Files (x86)\Microsoft Visual Studio\2019\Community\VC\Tools\MSVC\14.29.30133\atlmfc\include\afxwin2.inl

; 25   : 	{ return this == NULL ? NULL : m_hWnd; }

  0003d	85 ff		 test	 edi, edi
  0003f	74 15		 je	 SHORT $LN18@FP_vSetToo
; File D:\git\src\IBK\IBK_DRFN\ProjSrc\SrcDrfn\Chart\chart_common\ILButton.cpp

; 255  : 	if( ! m_Tooltip.GetSafeHwnd() )

  00041	83 7f 20 00	 cmp	 DWORD PTR [edi+32], 0
  00045	74 0f		 je	 SHORT $LN18@FP_vSetToo

; 261  : 			{
; 262  : 				m_Tooltip.Activate(1);
; 263  : 			}
; 264  : 		}
; 265  : 	}
; 266  : 	else
; 267  : 	{		
; 268  : 		m_Tooltip.UpdateTipText((LPCTSTR)s,this);

  00047	6a 00		 push	 0
  00049	56		 push	 esi
  0004a	ff 75 08	 push	 DWORD PTR _s$[ebp]
  0004d	8b cf		 mov	 ecx, edi
  0004f	e8 00 00 00 00	 call	 ?UpdateTipText@CToolTipCtrl@@QAEXPBDPAVCWnd@@I@Z ; CToolTipCtrl::UpdateTipText
  00054	eb 39		 jmp	 SHORT $LN3@FP_vSetToo
$LN18@FP_vSetToo:

; 256  : 	{
; 257  : 		if( m_Tooltip.Create(this))

  00056	8b 07		 mov	 eax, DWORD PTR [edi]
  00058	8b cf		 mov	 ecx, edi
  0005a	6a 00		 push	 0
  0005c	56		 push	 esi
  0005d	ff 90 6c 01 00
	00		 call	 DWORD PTR [eax+364]
  00063	85 c0		 test	 eax, eax
  00065	74 28		 je	 SHORT $LN3@FP_vSetToo

; 258  : 		{
; 259  : 				
; 260  : 			if(m_Tooltip.AddTool(this, (LPCTSTR)s))

  00067	6a 00		 push	 0
  00069	6a 00		 push	 0
  0006b	ff 75 08	 push	 DWORD PTR _s$[ebp]
  0006e	8b cf		 mov	 ecx, edi
  00070	56		 push	 esi
  00071	e8 00 00 00 00	 call	 ?AddTool@CToolTipCtrl@@QAEHPAVCWnd@@PBDPBUtagRECT@@I@Z ; CToolTipCtrl::AddTool
  00076	85 c0		 test	 eax, eax
  00078	74 15		 je	 SHORT $LN3@FP_vSetToo
; File C:\Program Files (x86)\Microsoft Visual Studio\2019\Community\VC\Tools\MSVC\14.29.30133\atlmfc\include\afxcmn.inl

; 425  : 	{ ASSERT(::IsWindow(m_hWnd));  ::SendMessage(m_hWnd, TTM_ACTIVATE, bActivate, 0L); }

  0007a	6a 00		 push	 0
  0007c	6a 01		 push	 1
  0007e	68 01 04 00 00	 push	 1025			; 00000401H
  00083	ff b6 d8 00 00
	00		 push	 DWORD PTR [esi+216]
  00089	ff 15 00 00 00
	00		 call	 DWORD PTR __imp__SendMessageA@16
$LN3@FP_vSetToo:
; File D:\git\src\IBK\IBK_DRFN\ProjSrc\SrcDrfn\Chart\chart_common\ILButton.cpp

; 288  : }

  0008f	8d 4d 08	 lea	 ecx, DWORD PTR _s$[ebp]
  00092	ff 15 00 00 00
	00		 call	 DWORD PTR __imp_??1?$CStringT@DV?$StrTraitMFC_DLL@DV?$ChTraitsCRT@D@ATL@@@@@ATL@@QAE@XZ
  00098	8b 4d f4	 mov	 ecx, DWORD PTR __$EHRec$[ebp]
  0009b	64 89 0d 00 00
	00 00		 mov	 DWORD PTR fs:0, ecx
  000a2	59		 pop	 ecx
  000a3	5f		 pop	 edi
  000a4	5e		 pop	 esi
  000a5	8b e5		 mov	 esp, ebp
  000a7	5d		 pop	 ebp
  000a8	c2 04 00	 ret	 4
_TEXT	ENDS
;	COMDAT text$x
text$x	SEGMENT
__unwindfunclet$?FP_vSetToolTipText@CILButton@@QAEXV?$CStringT@DV?$StrTraitMFC_DLL@DV?$ChTraitsCRT@D@ATL@@@@@ATL@@@Z$0:
  00000	8d 4d 08	 lea	 ecx, DWORD PTR _s$[ebp]
  00003	ff 25 00 00 00
	00		 jmp	 DWORD PTR __imp_??1?$CStringT@DV?$StrTraitMFC_DLL@DV?$ChTraitsCRT@D@ATL@@@@@ATL@@QAE@XZ
  00009	cc		 int	 3
  0000a	cc		 int	 3
  0000b	cc		 int	 3
  0000c	cc		 int	 3
  0000d	cc		 int	 3
__ehhandler$?FP_vSetToolTipText@CILButton@@QAEXV?$CStringT@DV?$StrTraitMFC_DLL@DV?$ChTraitsCRT@D@ATL@@@@@ATL@@@Z:
  0000e	90		 npad	 1
  0000f	90		 npad	 1
  00010	8b 54 24 08	 mov	 edx, DWORD PTR [esp+8]
  00014	8d 42 0c	 lea	 eax, DWORD PTR [edx+12]
  00017	8b 4a f4	 mov	 ecx, DWORD PTR [edx-12]
  0001a	33 c8		 xor	 ecx, eax
  0001c	e8 00 00 00 00	 call	 @__security_check_cookie@4
  00021	b8 00 00 00 00	 mov	 eax, OFFSET __ehfuncinfo$?FP_vSetToolTipText@CILButton@@QAEXV?$CStringT@DV?$StrTraitMFC_DLL@DV?$ChTraitsCRT@D@ATL@@@@@ATL@@@Z
  00026	e9 00 00 00 00	 jmp	 ___CxxFrameHandler3
text$x	ENDS
?FP_vSetToolTipText@CILButton@@QAEXV?$CStringT@DV?$StrTraitMFC_DLL@DV?$ChTraitsCRT@D@ATL@@@@@ATL@@@Z ENDP ; CILButton::FP_vSetToolTipText
; Function compile flags: /Ogtp
; File D:\git\src\IBK\IBK_DRFN\ProjSrc\SrcDrfn\Chart\chart_common\ILButton.cpp
;	COMDAT ?GetCheck@CILButton@@QAEHXZ
_TEXT	SEGMENT
?GetCheck@CILButton@@QAEHXZ PROC			; CILButton::GetCheck, COMDAT
; _this$ = ecx

; 222  : 	return m_bCheck;

  00000	8b 81 b0 00 00
	00		 mov	 eax, DWORD PTR [ecx+176]

; 223  : }

  00006	c3		 ret	 0
?GetCheck@CILButton@@QAEHXZ ENDP			; CILButton::GetCheck
_TEXT	ENDS
; Function compile flags: /Ogtp
; File D:\git\src\IBK\IBK_DRFN\ProjSrc\SrcDrfn\Chart\chart_common\ILButton.cpp
; File C:\Program Files (x86)\Microsoft Visual Studio\2019\Community\VC\Tools\MSVC\14.29.30133\atlmfc\include\afxwin2.inl
; File D:\git\src\IBK\IBK_DRFN\ProjSrc\SrcDrfn\Chart\chart_common\ILButton.cpp
; File C:\Program Files (x86)\Microsoft Visual Studio\2019\Community\VC\Tools\MSVC\14.29.30133\atlmfc\include\afxwin2.inl
; File D:\git\src\IBK\IBK_DRFN\ProjSrc\SrcDrfn\Chart\chart_common\ILButton.cpp
;	COMDAT ?SetCheck@CILButton@@QAEXH@Z
_TEXT	SEGMENT
_bCheck$ = 8						; size = 4
?SetCheck@CILButton@@QAEXH@Z PROC			; CILButton::SetCheck, COMDAT
; _this$ = ecx

; 207  : {

  00000	55		 push	 ebp
  00001	8b ec		 mov	 ebp, esp

; 208  : 	m_bCheck = bCheck;

  00003	8b 45 08	 mov	 eax, DWORD PTR _bCheck$[ebp]
; File C:\Program Files (x86)\Microsoft Visual Studio\2019\Community\VC\Tools\MSVC\14.29.30133\atlmfc\include\afxwin2.inl

; 114  : 	{ ASSERT(::IsWindow(m_hWnd)); ::InvalidateRect(m_hWnd, NULL, bErase); }

  00006	6a 01		 push	 1
  00008	6a 00		 push	 0
  0000a	ff 71 20	 push	 DWORD PTR [ecx+32]
; File D:\git\src\IBK\IBK_DRFN\ProjSrc\SrcDrfn\Chart\chart_common\ILButton.cpp

; 208  : 	m_bCheck = bCheck;

  0000d	89 81 b0 00 00
	00		 mov	 DWORD PTR [ecx+176], eax
; File C:\Program Files (x86)\Microsoft Visual Studio\2019\Community\VC\Tools\MSVC\14.29.30133\atlmfc\include\afxwin2.inl

; 114  : 	{ ASSERT(::IsWindow(m_hWnd)); ::InvalidateRect(m_hWnd, NULL, bErase); }

  00013	ff 15 00 00 00
	00		 call	 DWORD PTR __imp__InvalidateRect@12
; File D:\git\src\IBK\IBK_DRFN\ProjSrc\SrcDrfn\Chart\chart_common\ILButton.cpp

; 210  : }

  00019	5d		 pop	 ebp
  0001a	c2 04 00	 ret	 4
?SetCheck@CILButton@@QAEXH@Z ENDP			; CILButton::SetCheck
_TEXT	ENDS
; Function compile flags: /Ogtp
; File D:\git\src\IBK\IBK_DRFN\ProjSrc\SrcDrfn\Chart\chart_common\ILButton.cpp
;	COMDAT ?FP_vSetImage@CILButton@@QAEXPAVCImageList@@HHHV?$CStringT@DV?$StrTraitMFC_DLL@DV?$ChTraitsCRT@D@ATL@@@@@ATL@@HHH@Z
_TEXT	SEGMENT
__$EHRec$ = -12						; size = 12
_pImageList$ = 8					; size = 4
_nNormal$ = 12						; size = 4
_nDown$ = 16						; size = 4
_bDrawTitle$ = 20					; size = 4
_strTitle$ = 24						; size = 4
_bPushLike$ = 28					; size = 4
_nDisable$ = 32						; size = 4
_nOver$ = 36						; size = 4
?FP_vSetImage@CILButton@@QAEXPAVCImageList@@HHHV?$CStringT@DV?$StrTraitMFC_DLL@DV?$ChTraitsCRT@D@ATL@@@@@ATL@@HHH@Z PROC ; CILButton::FP_vSetImage, COMDAT
; _this$ = ecx

; 93   : {

  00000	55		 push	 ebp
  00001	8b ec		 mov	 ebp, esp
  00003	6a ff		 push	 -1
  00005	68 00 00 00 00	 push	 __ehhandler$?FP_vSetImage@CILButton@@QAEXPAVCImageList@@HHHV?$CStringT@DV?$StrTraitMFC_DLL@DV?$ChTraitsCRT@D@ATL@@@@@ATL@@HHH@Z
  0000a	64 a1 00 00 00
	00		 mov	 eax, DWORD PTR fs:0
  00010	50		 push	 eax
  00011	56		 push	 esi
  00012	57		 push	 edi
  00013	a1 00 00 00 00	 mov	 eax, DWORD PTR ___security_cookie
  00018	33 c5		 xor	 eax, ebp
  0001a	50		 push	 eax
  0001b	8d 45 f4	 lea	 eax, DWORD PTR __$EHRec$[ebp]
  0001e	64 a3 00 00 00
	00		 mov	 DWORD PTR fs:0, eax
  00024	8b f1		 mov	 esi, ecx

; 94   : 	m_pImageList = pImageList;

  00026	8b 45 08	 mov	 eax, DWORD PTR _pImageList$[ebp]
  00029	8b 7d 0c	 mov	 edi, DWORD PTR _nNormal$[ebp]
  0002c	89 86 98 00 00
	00		 mov	 DWORD PTR [esi+152], eax

; 95   : 	m_bPushLike  = bPushLike;

  00032	8b 45 1c	 mov	 eax, DWORD PTR _bPushLike$[ebp]
  00035	89 86 ac 00 00
	00		 mov	 DWORD PTR [esi+172], eax

; 96   : 	m_bUseDrawTitle = bDrawTitle;

  0003b	8b 45 14	 mov	 eax, DWORD PTR _bDrawTitle$[ebp]
  0003e	c7 45 fc 00 00
	00 00		 mov	 DWORD PTR __$EHRec$[ebp+8], 0
  00045	89 86 80 00 00
	00		 mov	 DWORD PTR [esi+128], eax

; 97   : 
; 98   : 	if(m_bUseDrawTitle)

  0004b	85 c0		 test	 eax, eax
  0004d	74 10		 je	 SHORT $LN2@FP_vSetIma

; 99   : 		m_szDrawTitle = strTitle;

  0004f	8d 45 18	 lea	 eax, DWORD PTR _strTitle$[ebp]
  00052	50		 push	 eax
  00053	8d 8e 88 00 00
	00		 lea	 ecx, DWORD PTR [esi+136]
  00059	ff 15 00 00 00
	00		 call	 DWORD PTR __imp_??4?$CStringT@DV?$StrTraitMFC_DLL@DV?$ChTraitsCRT@D@ATL@@@@@ATL@@QAEAAV01@ABV01@@Z
$LN2@FP_vSetIma:

; 100  : 
; 101  : 	m_nNormal = nNormal;					// Normal   
; 102  : 	if(nDown == -1)							// Down   
; 103  : 	{m_nDown = nNormal;}
; 104  : 	else
; 105  : 	{m_nDown = nDown;}
; 106  : 
; 107  : 	if(nDisable == -1)						// Disable   
; 108  : 	{m_nDisable = nNormal;}
; 109  : 	else
; 110  : 	{m_nDisable = nDisable;}
; 111  : 
; 112  : 	if(nOver == -1)							// Over   

  0005f	83 7d 10 ff	 cmp	 DWORD PTR _nDown$[ebp], -1
  00063	8b c7		 mov	 eax, edi
  00065	8b cf		 mov	 ecx, edi
  00067	89 be 9c 00 00
	00		 mov	 DWORD PTR [esi+156], edi
  0006d	0f 45 45 10	 cmovne	 eax, DWORD PTR _nDown$[ebp]
  00071	83 7d 20 ff	 cmp	 DWORD PTR _nDisable$[ebp], -1
  00075	89 86 a0 00 00
	00		 mov	 DWORD PTR [esi+160], eax
  0007b	0f 45 4d 20	 cmovne	 ecx, DWORD PTR _nDisable$[ebp]

; 113  : 	{m_nOver = nNormal;}
; 114  : 	else
; 115  : 	{m_nOver = nOver;}
; 116  : }

  0007f	83 7d 24 ff	 cmp	 DWORD PTR _nOver$[ebp], -1
  00083	89 8e a4 00 00
	00		 mov	 DWORD PTR [esi+164], ecx
  00089	8d 4d 18	 lea	 ecx, DWORD PTR _strTitle$[ebp]
  0008c	0f 45 7d 24	 cmovne	 edi, DWORD PTR _nOver$[ebp]
  00090	89 be a8 00 00
	00		 mov	 DWORD PTR [esi+168], edi
  00096	ff 15 00 00 00
	00		 call	 DWORD PTR __imp_??1?$CStringT@DV?$StrTraitMFC_DLL@DV?$ChTraitsCRT@D@ATL@@@@@ATL@@QAE@XZ
  0009c	8b 4d f4	 mov	 ecx, DWORD PTR __$EHRec$[ebp]
  0009f	64 89 0d 00 00
	00 00		 mov	 DWORD PTR fs:0, ecx
  000a6	59		 pop	 ecx
  000a7	5f		 pop	 edi
  000a8	5e		 pop	 esi
  000a9	8b e5		 mov	 esp, ebp
  000ab	5d		 pop	 ebp
  000ac	c2 20 00	 ret	 32			; 00000020H
_TEXT	ENDS
;	COMDAT text$x
text$x	SEGMENT
__unwindfunclet$?FP_vSetImage@CILButton@@QAEXPAVCImageList@@HHHV?$CStringT@DV?$StrTraitMFC_DLL@DV?$ChTraitsCRT@D@ATL@@@@@ATL@@HHH@Z$0:
  00000	8d 4d 18	 lea	 ecx, DWORD PTR _strTitle$[ebp]
  00003	ff 25 00 00 00
	00		 jmp	 DWORD PTR __imp_??1?$CStringT@DV?$StrTraitMFC_DLL@DV?$ChTraitsCRT@D@ATL@@@@@ATL@@QAE@XZ
  00009	cc		 int	 3
  0000a	cc		 int	 3
  0000b	cc		 int	 3
  0000c	cc		 int	 3
  0000d	cc		 int	 3
__ehhandler$?FP_vSetImage@CILButton@@QAEXPAVCImageList@@HHHV?$CStringT@DV?$StrTraitMFC_DLL@DV?$ChTraitsCRT@D@ATL@@@@@ATL@@HHH@Z:
  0000e	90		 npad	 1
  0000f	90		 npad	 1
  00010	8b 54 24 08	 mov	 edx, DWORD PTR [esp+8]
  00014	8d 42 0c	 lea	 eax, DWORD PTR [edx+12]
  00017	8b 4a f4	 mov	 ecx, DWORD PTR [edx-12]
  0001a	33 c8		 xor	 ecx, eax
  0001c	e8 00 00 00 00	 call	 @__security_check_cookie@4
  00021	b8 00 00 00 00	 mov	 eax, OFFSET __ehfuncinfo$?FP_vSetImage@CILButton@@QAEXPAVCImageList@@HHHV?$CStringT@DV?$StrTraitMFC_DLL@DV?$ChTraitsCRT@D@ATL@@@@@ATL@@HHH@Z
  00026	e9 00 00 00 00	 jmp	 ___CxxFrameHandler3
text$x	ENDS
?FP_vSetImage@CILButton@@QAEXPAVCImageList@@HHHV?$CStringT@DV?$StrTraitMFC_DLL@DV?$ChTraitsCRT@D@ATL@@@@@ATL@@HHH@Z ENDP ; CILButton::FP_vSetImage
; Function compile flags: /Ogtp
; File D:\git\src\IBK\IBK_DRFN\ProjSrc\SrcDrfn\Chart\chart_common\ILButton.cpp
; File C:\Program Files (x86)\Microsoft Visual Studio\2019\Community\VC\Tools\MSVC\14.29.30133\atlmfc\include\afxwin2.inl
; File D:\git\src\IBK\IBK_DRFN\ProjSrc\SrcDrfn\Chart\chart_common\ILButton.cpp
; File C:\Program Files (x86)\Microsoft Visual Studio\2019\Community\VC\Tools\MSVC\14.29.30133\atlmfc\include\afxwin1.inl
; File D:\git\src\IBK\IBK_DRFN\ProjSrc\SrcDrfn\Chart\chart_common\ILButton.cpp
;	COMDAT ??0CILButton@@QAE@XZ
_TEXT	SEGMENT
_this$ = -16						; size = 4
__$EHRec$ = -12						; size = 12
??0CILButton@@QAE@XZ PROC				; CILButton::CILButton, COMDAT
; _this$ = ecx

; 19   : {

  00000	55		 push	 ebp
  00001	8b ec		 mov	 ebp, esp
  00003	6a ff		 push	 -1
  00005	68 00 00 00 00	 push	 __ehhandler$??0CILButton@@QAE@XZ
  0000a	64 a1 00 00 00
	00		 mov	 eax, DWORD PTR fs:0
  00010	50		 push	 eax
  00011	51		 push	 ecx
  00012	56		 push	 esi
  00013	a1 00 00 00 00	 mov	 eax, DWORD PTR ___security_cookie
  00018	33 c5		 xor	 eax, ebp
  0001a	50		 push	 eax
  0001b	8d 45 f4	 lea	 eax, DWORD PTR __$EHRec$[ebp]
  0001e	64 a3 00 00 00
	00		 mov	 DWORD PTR fs:0, eax
  00024	8b f1		 mov	 esi, ecx
  00026	89 75 f0	 mov	 DWORD PTR _this$[ebp], esi
; File C:\Program Files (x86)\Microsoft Visual Studio\2019\Community\VC\Tools\MSVC\14.29.30133\atlmfc\include\afxwin2.inl

; 622  : 	{ }

  00029	e8 00 00 00 00	 call	 ??0CWnd@@QAE@XZ		; CWnd::CWnd
; File D:\git\src\IBK\IBK_DRFN\ProjSrc\SrcDrfn\Chart\chart_common\ILButton.cpp

; 19   : {

  0002e	8d 8e 88 00 00
	00		 lea	 ecx, DWORD PTR [esi+136]
  00034	c7 45 fc 00 00
	00 00		 mov	 DWORD PTR __$EHRec$[ebp+8], 0
  0003b	c7 06 00 00 00
	00		 mov	 DWORD PTR [esi], OFFSET ??_7CILButton@@6B@
  00041	ff 15 00 00 00
	00		 call	 DWORD PTR __imp_??0?$CStringT@DV?$StrTraitMFC_DLL@DV?$ChTraitsCRT@D@ATL@@@@@ATL@@QAE@XZ
; File C:\Program Files (x86)\Microsoft Visual Studio\2019\Community\VC\Tools\MSVC\14.29.30133\atlmfc\include\afxwin1.inl

; 70   : 	{ m_hObject = NULL; }

  00047	c7 86 94 00 00
	00 00 00 00 00	 mov	 DWORD PTR [esi+148], 0

; 153  : 	{ }

  00051	c7 86 90 00 00
	00 00 00 00 00	 mov	 DWORD PTR [esi+144], OFFSET ??_7CFont@@6B@
; File D:\git\src\IBK\IBK_DRFN\ProjSrc\SrcDrfn\Chart\chart_common\ILButton.cpp

; 19   : {

  0005b	8d 8e b8 00 00
	00		 lea	 ecx, DWORD PTR [esi+184]
  00061	c6 45 fc 02	 mov	 BYTE PTR __$EHRec$[ebp+8], 2
  00065	e8 00 00 00 00	 call	 ??0CToolTipCtrl@@QAE@XZ	; CToolTipCtrl::CToolTipCtrl

; 20   : 	m_pImageList = NULL;

  0006a	c7 86 98 00 00
	00 00 00 00 00	 mov	 DWORD PTR [esi+152], 0

; 21   : 	m_bPushLike  = FALSE;
; 22   : 	m_nNormal    = -1;
; 23   : 	m_nDown		 = -1;
; 24   : 	m_nDisable	 = -1;
; 25   : 	m_nOver		 = -1;
; 26   : 	m_bButtonDown= FALSE;
; 27   : 	m_bCheck	 = FALSE;
; 28   : 	m_bLbuttonDown= FALSE;
; 29   : 	m_bUseToolTip = TRUE;
; 30   : 	m_bUseDrawTitle = FALSE;
; 31   : 	m_bHover = FALSE;
; 32   : }

  00074	8b c6		 mov	 eax, esi
  00076	c7 86 ac 00 00
	00 00 00 00 00	 mov	 DWORD PTR [esi+172], 0
  00080	c7 86 9c 00 00
	00 ff ff ff ff	 mov	 DWORD PTR [esi+156], -1
  0008a	c7 86 a0 00 00
	00 ff ff ff ff	 mov	 DWORD PTR [esi+160], -1
  00094	c7 86 a4 00 00
	00 ff ff ff ff	 mov	 DWORD PTR [esi+164], -1
  0009e	c7 86 a8 00 00
	00 ff ff ff ff	 mov	 DWORD PTR [esi+168], -1
  000a8	c7 86 8c 00 00
	00 00 00 00 00	 mov	 DWORD PTR [esi+140], 0
  000b2	c7 86 b0 00 00
	00 00 00 00 00	 mov	 DWORD PTR [esi+176], 0
  000bc	c7 86 b4 00 00
	00 00 00 00 00	 mov	 DWORD PTR [esi+180], 0
  000c6	c7 86 84 00 00
	00 01 00 00 00	 mov	 DWORD PTR [esi+132], 1
  000d0	c7 86 80 00 00
	00 00 00 00 00	 mov	 DWORD PTR [esi+128], 0
  000da	c7 86 58 01 00
	00 00 00 00 00	 mov	 DWORD PTR [esi+344], 0
  000e4	8b 4d f4	 mov	 ecx, DWORD PTR __$EHRec$[ebp]
  000e7	64 89 0d 00 00
	00 00		 mov	 DWORD PTR fs:0, ecx
  000ee	59		 pop	 ecx
  000ef	5e		 pop	 esi
  000f0	8b e5		 mov	 esp, ebp
  000f2	5d		 pop	 ebp
  000f3	c3		 ret	 0
_TEXT	ENDS
;	COMDAT text$x
text$x	SEGMENT
__unwindfunclet$??0CILButton@@QAE@XZ$0:
  00000	8b 4d f0	 mov	 ecx, DWORD PTR _this$[ebp]
  00003	e9 00 00 00 00	 jmp	 ??1CButton@@UAE@XZ	; CButton::~CButton
__unwindfunclet$??0CILButton@@QAE@XZ$1:
  00008	8b 4d f0	 mov	 ecx, DWORD PTR _this$[ebp]
  0000b	81 c1 88 00 00
	00		 add	 ecx, 136		; 00000088H
  00011	ff 25 00 00 00
	00		 jmp	 DWORD PTR __imp_??1?$CStringT@DV?$StrTraitMFC_DLL@DV?$ChTraitsCRT@D@ATL@@@@@ATL@@QAE@XZ
__unwindfunclet$??0CILButton@@QAE@XZ$2:
  00017	8b 4d f0	 mov	 ecx, DWORD PTR _this$[ebp]
  0001a	81 c1 90 00 00
	00		 add	 ecx, 144		; 00000090H
  00020	e9 00 00 00 00	 jmp	 ??1CFont@@UAE@XZ	; CFont::~CFont
  00025	cc		 int	 3
  00026	cc		 int	 3
  00027	cc		 int	 3
  00028	cc		 int	 3
  00029	cc		 int	 3
__ehhandler$??0CILButton@@QAE@XZ:
  0002a	90		 npad	 1
  0002b	90		 npad	 1
  0002c	8b 54 24 08	 mov	 edx, DWORD PTR [esp+8]
  00030	8d 42 0c	 lea	 eax, DWORD PTR [edx+12]
  00033	8b 4a f4	 mov	 ecx, DWORD PTR [edx-12]
  00036	33 c8		 xor	 ecx, eax
  00038	e8 00 00 00 00	 call	 @__security_check_cookie@4
  0003d	b8 00 00 00 00	 mov	 eax, OFFSET __ehfuncinfo$??0CILButton@@QAE@XZ
  00042	e9 00 00 00 00	 jmp	 ___CxxFrameHandler3
text$x	ENDS
??0CILButton@@QAE@XZ ENDP				; CILButton::CILButton
; Function compile flags: /Ogtp
; File C:\Program Files (x86)\Microsoft Visual Studio\2019\Community\VC\Tools\MSVC\14.29.30133\atlmfc\include\afx.inl
;	COMDAT ??_GCButton@@UAEPAXI@Z
_TEXT	SEGMENT
___flags$ = 8						; size = 4
??_GCButton@@UAEPAXI@Z PROC				; CButton::`scalar deleting destructor', COMDAT
; _this$ = ecx
  00000	55		 push	 ebp
  00001	8b ec		 mov	 ebp, esp
  00003	56		 push	 esi
  00004	8b f1		 mov	 esi, ecx
  00006	e8 00 00 00 00	 call	 ??1CButton@@UAE@XZ	; CButton::~CButton
  0000b	8b 45 08	 mov	 eax, DWORD PTR ___flags$[ebp]
  0000e	a8 01		 test	 al, 1
  00010	74 22		 je	 SHORT $LN9@scalar
  00012	a8 04		 test	 al, 4
  00014	75 10		 jne	 SHORT $LN3@scalar

; 112  : 	{ ::operator delete(p); }

  00016	56		 push	 esi
  00017	e8 00 00 00 00	 call	 ??3@YAXPAX@Z		; operator delete
  0001c	83 c4 04	 add	 esp, 4
  0001f	8b c6		 mov	 eax, esi
  00021	5e		 pop	 esi
  00022	5d		 pop	 ebp
  00023	c2 04 00	 ret	 4
$LN3@scalar:
  00026	68 80 00 00 00	 push	 128			; 00000080H
  0002b	56		 push	 esi
  0002c	e8 00 00 00 00	 call	 ?__global_delete@@YAXPAXI@Z ; __global_delete
  00031	83 c4 08	 add	 esp, 8
$LN9@scalar:
  00034	8b c6		 mov	 eax, esi
  00036	5e		 pop	 esi
  00037	5d		 pop	 ebp
  00038	c2 04 00	 ret	 4
??_GCButton@@UAEPAXI@Z ENDP				; CButton::`scalar deleting destructor'
_TEXT	ENDS
; Function compile flags: /Ogtp
; File C:\Program Files (x86)\Microsoft Visual Studio\2019\Community\VC\Tools\MSVC\14.29.30133\atlmfc\include\afxwin2.inl
;	COMDAT ?EndModalState@CWnd@@UAEXXZ
_TEXT	SEGMENT
?EndModalState@CWnd@@UAEXXZ PROC			; CWnd::EndModalState, COMDAT
; _this$ = ecx

; 567  : 	{ ::EnableWindow(m_hWnd, TRUE); }

  00000	6a 01		 push	 1
  00002	ff 71 20	 push	 DWORD PTR [ecx+32]
  00005	ff 15 00 00 00
	00		 call	 DWORD PTR __imp__EnableWindow@8
  0000b	c3		 ret	 0
?EndModalState@CWnd@@UAEXXZ ENDP			; CWnd::EndModalState
_TEXT	ENDS
; Function compile flags: /Ogtp
; File C:\Program Files (x86)\Microsoft Visual Studio\2019\Community\VC\Tools\MSVC\14.29.30133\atlmfc\include\afxwin2.inl
;	COMDAT ?BeginModalState@CWnd@@UAEXXZ
_TEXT	SEGMENT
?BeginModalState@CWnd@@UAEXXZ PROC			; CWnd::BeginModalState, COMDAT
; _this$ = ecx

; 565  : 	{ ::EnableWindow(m_hWnd, FALSE); }

  00000	6a 00		 push	 0
  00002	ff 71 20	 push	 DWORD PTR [ecx+32]
  00005	ff 15 00 00 00
	00		 call	 DWORD PTR __imp__EnableWindow@8
  0000b	c3		 ret	 0
?BeginModalState@CWnd@@UAEXXZ ENDP			; CWnd::BeginModalState
_TEXT	ENDS
; Function compile flags: /Ogtp
; File C:\Program Files (x86)\Microsoft Visual Studio\2019\Community\VC\Tools\MSVC\14.29.30133\atlmfc\include\afxwin2.inl
;	COMDAT ?DoDataExchange@CWnd@@MAEXPAVCDataExchange@@@Z
_TEXT	SEGMENT
___formal$ = 8						; size = 4
?DoDataExchange@CWnd@@MAEXPAVCDataExchange@@@Z PROC	; CWnd::DoDataExchange, COMDAT
; _this$ = ecx

; 561  : 	{ } // default does nothing

  00000	c2 04 00	 ret	 4
?DoDataExchange@CWnd@@MAEXPAVCDataExchange@@@Z ENDP	; CWnd::DoDataExchange
_TEXT	ENDS
; Function compile flags: /Ogtp
; File C:\Program Files (x86)\Microsoft Visual Studio\2019\Community\VC\Tools\MSVC\14.29.30133\atlmfc\include\afxwin1.inl
; File C:\Program Files (x86)\Microsoft Visual Studio\2019\Community\VC\Tools\MSVC\14.29.30133\atlmfc\include\afx.inl
;	COMDAT ??_GCFont@@UAEPAXI@Z
_TEXT	SEGMENT
___flags$ = 8						; size = 4
??_GCFont@@UAEPAXI@Z PROC				; CFont::`scalar deleting destructor', COMDAT
; _this$ = ecx
  00000	55		 push	 ebp
  00001	8b ec		 mov	 ebp, esp
; File C:\Program Files (x86)\Microsoft Visual Studio\2019\Community\VC\Tools\MSVC\14.29.30133\atlmfc\include\afxwin1.inl

; 155  : 	{ }

  00003	56		 push	 esi
  00004	8b f1		 mov	 esi, ecx
  00006	c7 06 00 00 00
	00		 mov	 DWORD PTR [esi], OFFSET ??_7CFont@@6B@
  0000c	e8 00 00 00 00	 call	 ??1CGdiObject@@UAE@XZ	; CGdiObject::~CGdiObject
  00011	8b 45 08	 mov	 eax, DWORD PTR ___flags$[ebp]
  00014	a8 01		 test	 al, 1
  00016	74 1f		 je	 SHORT $LN12@scalar
  00018	a8 04		 test	 al, 4
  0001a	75 10		 jne	 SHORT $LN3@scalar
; File C:\Program Files (x86)\Microsoft Visual Studio\2019\Community\VC\Tools\MSVC\14.29.30133\atlmfc\include\afx.inl

; 112  : 	{ ::operator delete(p); }

  0001c	56		 push	 esi
  0001d	e8 00 00 00 00	 call	 ??3@YAXPAX@Z		; operator delete
  00022	83 c4 04	 add	 esp, 4
  00025	8b c6		 mov	 eax, esi
  00027	5e		 pop	 esi
  00028	5d		 pop	 ebp
  00029	c2 04 00	 ret	 4
$LN3@scalar:
  0002c	6a 08		 push	 8
  0002e	56		 push	 esi
  0002f	e8 00 00 00 00	 call	 ?__global_delete@@YAXPAXI@Z ; __global_delete
  00034	83 c4 08	 add	 esp, 8
$LN12@scalar:
  00037	8b c6		 mov	 eax, esi
  00039	5e		 pop	 esi
  0003a	5d		 pop	 ebp
  0003b	c2 04 00	 ret	 4
??_GCFont@@UAEPAXI@Z ENDP				; CFont::`scalar deleting destructor'
_TEXT	ENDS
; Function compile flags: /Ogtp
; File C:\Program Files (x86)\Microsoft Visual Studio\2019\Community\VC\Tools\MSVC\14.29.30133\atlmfc\include\afxwin1.inl
;	COMDAT ??1CFont@@UAE@XZ
_TEXT	SEGMENT
??1CFont@@UAE@XZ PROC					; CFont::~CFont, COMDAT
; _this$ = ecx

; 155  : 	{ }

  00000	c7 01 00 00 00
	00		 mov	 DWORD PTR [ecx], OFFSET ??_7CFont@@6B@
  00006	e9 00 00 00 00	 jmp	 ??1CGdiObject@@UAE@XZ	; CGdiObject::~CGdiObject
??1CFont@@UAE@XZ ENDP					; CFont::~CFont
_TEXT	ENDS
; Function compile flags: /Ogtp
; File C:\Program Files (x86)\Microsoft Visual Studio\2019\Community\VC\Tools\MSVC\14.29.30133\atlmfc\include\afx.inl
;	COMDAT ??_GCGdiObject@@UAEPAXI@Z
_TEXT	SEGMENT
___flags$ = 8						; size = 4
??_GCGdiObject@@UAEPAXI@Z PROC				; CGdiObject::`scalar deleting destructor', COMDAT
; _this$ = ecx
  00000	55		 push	 ebp
  00001	8b ec		 mov	 ebp, esp
  00003	56		 push	 esi
  00004	8b f1		 mov	 esi, ecx
  00006	e8 00 00 00 00	 call	 ??1CGdiObject@@UAE@XZ	; CGdiObject::~CGdiObject
  0000b	8b 45 08	 mov	 eax, DWORD PTR ___flags$[ebp]
  0000e	a8 01		 test	 al, 1
  00010	74 1f		 je	 SHORT $LN9@scalar
  00012	a8 04		 test	 al, 4
  00014	75 10		 jne	 SHORT $LN3@scalar

; 112  : 	{ ::operator delete(p); }

  00016	56		 push	 esi
  00017	e8 00 00 00 00	 call	 ??3@YAXPAX@Z		; operator delete
  0001c	83 c4 04	 add	 esp, 4
  0001f	8b c6		 mov	 eax, esi
  00021	5e		 pop	 esi
  00022	5d		 pop	 ebp
  00023	c2 04 00	 ret	 4
$LN3@scalar:
  00026	6a 08		 push	 8
  00028	56		 push	 esi
  00029	e8 00 00 00 00	 call	 ?__global_delete@@YAXPAXI@Z ; __global_delete
  0002e	83 c4 08	 add	 esp, 8
$LN9@scalar:
  00031	8b c6		 mov	 eax, esi
  00033	5e		 pop	 esi
  00034	5d		 pop	 ebp
  00035	c2 04 00	 ret	 4
??_GCGdiObject@@UAEPAXI@Z ENDP				; CGdiObject::`scalar deleting destructor'
_TEXT	ENDS
; Function compile flags: /Ogtp
; File C:\Program Files (x86)\Microsoft Visual Studio\2019\Community\VC\Tools\MSVC\14.29.30133\atlmfc\include\afxwin1.inl
;	COMDAT ??1CGdiObject@@UAE@XZ
_TEXT	SEGMENT
_pException$2 = -540					; size = 4
_strMsg$3 = -536					; size = 4
_szErrorMessage$4 = -532				; size = 512
__$ArrayPad$ = -20					; size = 4
__$EHRec$ = -16						; size = 16
??1CGdiObject@@UAE@XZ PROC				; CGdiObject::~CGdiObject, COMDAT
; _this$ = ecx

; 74   : {

  00000	55		 push	 ebp
  00001	8b ec		 mov	 ebp, esp
  00003	6a ff		 push	 -1
  00005	68 00 00 00 00	 push	 __ehhandler$??1CGdiObject@@UAE@XZ
  0000a	64 a1 00 00 00
	00		 mov	 eax, DWORD PTR fs:0
  00010	50		 push	 eax
  00011	81 ec 10 02 00
	00		 sub	 esp, 528		; 00000210H
  00017	a1 00 00 00 00	 mov	 eax, DWORD PTR ___security_cookie
  0001c	33 c5		 xor	 eax, ebp
  0001e	89 45 ec	 mov	 DWORD PTR __$ArrayPad$[ebp], eax
  00021	53		 push	 ebx
  00022	56		 push	 esi
  00023	57		 push	 edi
  00024	50		 push	 eax
  00025	8d 45 f4	 lea	 eax, DWORD PTR __$EHRec$[ebp+4]
  00028	64 a3 00 00 00
	00		 mov	 DWORD PTR fs:0, eax
  0002e	89 65 f0	 mov	 DWORD PTR __$EHRec$[ebp], esp
  00031	c7 01 00 00 00
	00		 mov	 DWORD PTR [ecx], OFFSET ??_7CGdiObject@@6B@

; 75   : 	AFX_BEGIN_DESTRUCTOR

  00037	c7 45 fc 00 00
	00 00		 mov	 DWORD PTR __$EHRec$[ebp+12], 0

; 76   : 	DeleteObject();

  0003e	e8 00 00 00 00	 call	 ?DeleteObject@CGdiObject@@QAEHXZ ; CGdiObject::DeleteObject
$LN18@CGdiObject:

; 78   : }

  00043	8b 4d f4	 mov	 ecx, DWORD PTR __$EHRec$[ebp+4]
  00046	64 89 0d 00 00
	00 00		 mov	 DWORD PTR fs:0, ecx
  0004d	59		 pop	 ecx
  0004e	5f		 pop	 edi
  0004f	5e		 pop	 esi
  00050	5b		 pop	 ebx
  00051	8b 4d ec	 mov	 ecx, DWORD PTR __$ArrayPad$[ebp]
  00054	33 cd		 xor	 ecx, ebp
  00056	e8 00 00 00 00	 call	 @__security_check_cookie@4
  0005b	8b e5		 mov	 esp, ebp
  0005d	5d		 pop	 ebp
  0005e	c3		 ret	 0
__catch$??1CGdiObject@@UAE@XZ$0:

; 77   : 	AFX_END_DESTRUCTOR

  0005f	8d 8d e8 fd ff
	ff		 lea	 ecx, DWORD PTR _strMsg$3[ebp]
  00065	ff 15 00 00 00
	00		 call	 DWORD PTR __imp_??0?$CStringT@DV?$StrTraitMFC_DLL@DV?$ChTraitsCRT@D@ATL@@@@@ATL@@QAE@XZ
  0006b	8b b5 e4 fd ff
	ff		 mov	 esi, DWORD PTR _pException$2[ebp]
  00071	8d 8d ec fd ff
	ff		 lea	 ecx, DWORD PTR _szErrorMessage$4[ebp]
  00077	6a 00		 push	 0
  00079	68 00 02 00 00	 push	 512			; 00000200H
  0007e	51		 push	 ecx
  0007f	8b 06		 mov	 eax, DWORD PTR [esi]
  00081	8b ce		 mov	 ecx, esi
  00083	c6 45 fc 02	 mov	 BYTE PTR __$EHRec$[ebp+12], 2
  00087	ff 50 14	 call	 DWORD PTR [eax+20]
  0008a	85 c0		 test	 eax, eax
  0008c	74 2a		 je	 SHORT $LN9@CGdiObject
  0008e	8d 85 ec fd ff
	ff		 lea	 eax, DWORD PTR _szErrorMessage$4[ebp]
  00094	50		 push	 eax
  00095	6a 4d		 push	 77			; 0000004dH
  00097	68 00 00 00 00	 push	 OFFSET ??_C@_0HD@JJCHHHNK@C?3?2Program?5Files?5?$CIx86?$CJ?2Microsof@
  0009c	68 00 00 00 00	 push	 OFFSET ??_C@_0BP@OIEOKIDM@Exception?5thrown?5in?5destructor@
  000a1	8d 85 e8 fd ff
	ff		 lea	 eax, DWORD PTR _strMsg$3[ebp]
  000a7	68 00 00 00 00	 push	 OFFSET ??_C@_0BB@HBOOMJBF@?$CFTs?5?$CI?$CFTs?3?$CFd?$CJ?6?$CFTs@
  000ac	50		 push	 eax
  000ad	ff 15 00 00 00
	00		 call	 DWORD PTR __imp_?Format@?$CStringT@DV?$StrTraitMFC_DLL@DV?$ChTraitsCRT@D@ATL@@@@@ATL@@QAAXPBDZZ
  000b3	83 c4 18	 add	 esp, 24			; 00000018H
  000b6	eb 21		 jmp	 SHORT $LN10@CGdiObject
$LN9@CGdiObject:
  000b8	6a 4d		 push	 77			; 0000004dH
  000ba	68 00 00 00 00	 push	 OFFSET ??_C@_0HD@JJCHHHNK@C?3?2Program?5Files?5?$CIx86?$CJ?2Microsof@
  000bf	68 00 00 00 00	 push	 OFFSET ??_C@_0BP@OIEOKIDM@Exception?5thrown?5in?5destructor@
  000c4	8d 85 e8 fd ff
	ff		 lea	 eax, DWORD PTR _strMsg$3[ebp]
  000ca	68 00 00 00 00	 push	 OFFSET ??_C@_0N@OMEMOKLE@?$CFTs?5?$CI?$CFTs?3?$CFd?$CJ@
  000cf	50		 push	 eax
  000d0	ff 15 00 00 00
	00		 call	 DWORD PTR __imp_?Format@?$CStringT@DV?$StrTraitMFC_DLL@DV?$ChTraitsCRT@D@ATL@@@@@ATL@@QAAXPBDZZ
  000d6	83 c4 14	 add	 esp, 20			; 00000014H
$LN10@CGdiObject:
  000d9	6a 00		 push	 0
  000db	6a 00		 push	 0
  000dd	ff b5 e8 fd ff
	ff		 push	 DWORD PTR _strMsg$3[ebp]
  000e3	e8 00 00 00 00	 call	 ?AfxMessageBox@@YGHPBDII@Z ; AfxMessageBox
  000e8	8d 8d e8 fd ff
	ff		 lea	 ecx, DWORD PTR _strMsg$3[ebp]
  000ee	ff 15 00 00 00
	00		 call	 DWORD PTR __imp_??1?$CStringT@DV?$StrTraitMFC_DLL@DV?$ChTraitsCRT@D@ATL@@@@@ATL@@QAE@XZ
  000f4	8b 06		 mov	 eax, DWORD PTR [esi]
  000f6	8b ce		 mov	 ecx, esi
  000f8	6a 01		 push	 1
  000fa	ff 50 04	 call	 DWORD PTR [eax+4]
  000fd	b8 00 00 00 00	 mov	 eax, $LN18@CGdiObject
  00102	c3		 ret	 0
_TEXT	ENDS
;	COMDAT text$x
text$x	SEGMENT
__unwindfunclet$??1CGdiObject@@UAE@XZ$2:
  00000	8d 8d e8 fd ff
	ff		 lea	 ecx, DWORD PTR _strMsg$3[ebp]
  00006	ff 25 00 00 00
	00		 jmp	 DWORD PTR __imp_??1?$CStringT@DV?$StrTraitMFC_DLL@DV?$ChTraitsCRT@D@ATL@@@@@ATL@@QAE@XZ
  0000c	cc		 int	 3
  0000d	cc		 int	 3
  0000e	cc		 int	 3
  0000f	cc		 int	 3
  00010	cc		 int	 3
__ehhandler$??1CGdiObject@@UAE@XZ:
  00011	90		 npad	 1
  00012	90		 npad	 1
  00013	8b 54 24 08	 mov	 edx, DWORD PTR [esp+8]
  00017	8d 42 0c	 lea	 eax, DWORD PTR [edx+12]
  0001a	8b 8a e0 fd ff
	ff		 mov	 ecx, DWORD PTR [edx-544]
  00020	33 c8		 xor	 ecx, eax
  00022	e8 00 00 00 00	 call	 @__security_check_cookie@4
  00027	8b 4a f8	 mov	 ecx, DWORD PTR [edx-8]
  0002a	33 c8		 xor	 ecx, eax
  0002c	e8 00 00 00 00	 call	 @__security_check_cookie@4
  00031	b8 00 00 00 00	 mov	 eax, OFFSET __ehfuncinfo$??1CGdiObject@@UAE@XZ
  00036	e9 00 00 00 00	 jmp	 ___CxxFrameHandler3
text$x	ENDS
??1CGdiObject@@UAE@XZ ENDP				; CGdiObject::~CGdiObject
; Function compile flags: /Ogtp
; File C:\Program Files (x86)\Microsoft Visual Studio\2019\Community\VC\Tools\MSVC\14.29.30133\atlmfc\include\afx.inl
;	COMDAT ?Dump@CObject@@UBEXAAVCDumpContext@@@Z
_TEXT	SEGMENT
___formal$ = 8						; size = 4
?Dump@CObject@@UBEXAAVCDumpContext@@@Z PROC		; CObject::Dump, COMDAT
; _this$ = ecx

; 122  : 	{ /* no dumping in release builds */ }

  00000	c2 04 00	 ret	 4
?Dump@CObject@@UBEXAAVCDumpContext@@@Z ENDP		; CObject::Dump
_TEXT	ENDS
; Function compile flags: /Ogtp
; File C:\Program Files (x86)\Microsoft Visual Studio\2019\Community\VC\Tools\MSVC\14.29.30133\atlmfc\include\afx.inl
;	COMDAT ?AssertValid@CObject@@UBEXXZ
_TEXT	SEGMENT
?AssertValid@CObject@@UBEXXZ PROC			; CObject::AssertValid, COMDAT
; _this$ = ecx

; 120  : 	{ /* no asserts in release builds */ }

  00000	c2 00 00	 ret	 0
?AssertValid@CObject@@UBEXXZ ENDP			; CObject::AssertValid
_TEXT	ENDS
; Function compile flags: /Ogtp
; File C:\Program Files (x86)\Microsoft Visual Studio\2019\Community\VC\Tools\MSVC\14.29.30133\atlmfc\include\afx.inl
;	COMDAT ?Serialize@CObject@@UAEXAAVCArchive@@@Z
_TEXT	SEGMENT
___formal$ = 8						; size = 4
?Serialize@CObject@@UAEXAAVCArchive@@@Z PROC		; CObject::Serialize, COMDAT
; _this$ = ecx

; 106  : 	{ /* CObject does not serialize anything by default */ }

  00000	c2 04 00	 ret	 4
?Serialize@CObject@@UAEXAAVCArchive@@@Z ENDP		; CObject::Serialize
_TEXT	ENDS
; Function compile flags: /Ogtp
; File C:\Program Files (x86)\Microsoft Visual Studio\2019\Community\VC\Tools\MSVC\14.29.30133\atlmfc\include\afx.inl
;	COMDAT ??1CObject@@UAE@XZ
_TEXT	SEGMENT
??1CObject@@UAE@XZ PROC					; CObject::~CObject, COMDAT
; _this$ = ecx

; 104  : 	{ }

  00000	c2 00 00	 ret	 0
??1CObject@@UAE@XZ ENDP					; CObject::~CObject
_TEXT	ENDS
; Function compile flags: /Ogtp
; File D:\git\src\IBK\IBK_DRFN\ProjSrc\SrcDrfn\Chart\chart_common\ILButton.cpp
;	COMDAT ?__empty_global_delete@@YAXPAXI@Z
_TEXT	SEGMENT
___formal$ = 8						; size = 4
___formal$ = 12						; size = 4
?__empty_global_delete@@YAXPAXI@Z PROC			; __empty_global_delete, COMDAT

  00000	c2 00 00	 ret	 0
?__empty_global_delete@@YAXPAXI@Z ENDP			; __empty_global_delete
_TEXT	ENDS
; Function compile flags: /Ogtp
; File D:\git\src\IBK\IBK_DRFN\ProjSrc\SrcDrfn\Chart\chart_common\ILButton.cpp
;	COMDAT ?__empty_global_delete@@YAXPAX@Z
_TEXT	SEGMENT
___formal$ = 8						; size = 4
?__empty_global_delete@@YAXPAX@Z PROC			; __empty_global_delete, COMDAT

  00000	c2 00 00	 ret	 0
?__empty_global_delete@@YAXPAX@Z ENDP			; __empty_global_delete
_TEXT	ENDS
END
