; Listing generated by Microsoft (R) Optimizing Compiler Version 19.29.30148.0 

	TITLE	D:\git\src\IBK\IBK_DRFN\#DRfn-CS\_Obj\CompareChart\LeftBarDlg.obj
	.686P
	.XMM
	include listing.inc
	.model	flat

INCLUDELIB MSVCRT
INCLUDELIB OLDNAMES

PUBLIC	??_C@_0BC@LHNMEPFM@RMSG_SELCHARTCODE@		; `string'
PUBLIC	??_C@_0BE@FJPKENOB@RMSG_GETSIGNAL_REAL@		; `string'
PUBLIC	??_C@_0P@KHFCBIOH@RMSG_CHARTMAIN@		; `string'
PUBLIC	??_C@_0BC@MMPGLPDH@RMS_ANALYSIS_FUNC@		; `string'
PUBLIC	??_C@_0BA@HKNFENJL@RMSG_GET_USERID@		; `string'
PUBLIC	??_C@_0P@LFDACNFE@RMSG_KSDLLINFO@		; `string'
PUBLIC	??_C@_0N@IIOKMIEH@RMSG_GETINFO@			; `string'
PUBLIC	??_C@_0BG@CNPAHNGG@RMSG_CHANGE_SKINCOLOR@	; `string'
PUBLIC	??_C@_0BD@FLDNDDHK@RMSG_GET_SKINCOLOR@		; `string'
PUBLIC	??_C@_0BG@LNLCJKPF@RMSG_CHANGE_CROSSLINE@	; `string'
PUBLIC	??_C@_0BB@IBKHOHJL@RMSG_REPLAY_REAL@		; `string'
PUBLIC	??_C@_0BB@JFLGBADG@RMSG_REPLAY_FAIL@		; `string'
PUBLIC	??_C@_0BI@KDGAIIMD@RMSG_REPLAY_CHANGE_DATE@	; `string'
PUBLIC	??_C@_0BA@NKHHCPON@RMSG_REPLAY_END@		; `string'
PUBLIC	??_C@_0BE@JFCIMCIP@RMSG_REPLAY_INC_SEC@		; `string'
PUBLIC	??_C@_0BG@GIAJEIJF@RMSG_REPLAY_TOTAL_SEC@	; `string'
;	COMDAT ??_C@_0BG@GIAJEIJF@RMSG_REPLAY_TOTAL_SEC@
CONST	SEGMENT
??_C@_0BG@GIAJEIJF@RMSG_REPLAY_TOTAL_SEC@ DB 'RMSG_REPLAY_TOTAL_SEC', 00H ; `string'
CONST	ENDS
;	COMDAT ??_C@_0BE@JFCIMCIP@RMSG_REPLAY_INC_SEC@
CONST	SEGMENT
??_C@_0BE@JFCIMCIP@RMSG_REPLAY_INC_SEC@ DB 'RMSG_REPLAY_INC_SEC', 00H ; `string'
CONST	ENDS
;	COMDAT ??_C@_0BA@NKHHCPON@RMSG_REPLAY_END@
CONST	SEGMENT
??_C@_0BA@NKHHCPON@RMSG_REPLAY_END@ DB 'RMSG_REPLAY_END', 00H ; `string'
CONST	ENDS
;	COMDAT ??_C@_0BI@KDGAIIMD@RMSG_REPLAY_CHANGE_DATE@
CONST	SEGMENT
??_C@_0BI@KDGAIIMD@RMSG_REPLAY_CHANGE_DATE@ DB 'RMSG_REPLAY_CHANGE_DATE', 00H ; `string'
CONST	ENDS
;	COMDAT ??_C@_0BB@JFLGBADG@RMSG_REPLAY_FAIL@
CONST	SEGMENT
??_C@_0BB@JFLGBADG@RMSG_REPLAY_FAIL@ DB 'RMSG_REPLAY_FAIL', 00H ; `string'
CONST	ENDS
;	COMDAT ??_C@_0BB@IBKHOHJL@RMSG_REPLAY_REAL@
CONST	SEGMENT
??_C@_0BB@IBKHOHJL@RMSG_REPLAY_REAL@ DB 'RMSG_REPLAY_REAL', 00H ; `string'
CONST	ENDS
;	COMDAT ??_C@_0BG@LNLCJKPF@RMSG_CHANGE_CROSSLINE@
CONST	SEGMENT
??_C@_0BG@LNLCJKPF@RMSG_CHANGE_CROSSLINE@ DB 'RMSG_CHANGE_CROSSLINE', 00H ; `string'
CONST	ENDS
;	COMDAT ??_C@_0BD@FLDNDDHK@RMSG_GET_SKINCOLOR@
CONST	SEGMENT
??_C@_0BD@FLDNDDHK@RMSG_GET_SKINCOLOR@ DB 'RMSG_GET_SKINCOLOR', 00H ; `string'
CONST	ENDS
;	COMDAT ??_C@_0BG@CNPAHNGG@RMSG_CHANGE_SKINCOLOR@
CONST	SEGMENT
??_C@_0BG@CNPAHNGG@RMSG_CHANGE_SKINCOLOR@ DB 'RMSG_CHANGE_SKINCOLOR', 00H ; `string'
CONST	ENDS
;	COMDAT ??_C@_0N@IIOKMIEH@RMSG_GETINFO@
CONST	SEGMENT
??_C@_0N@IIOKMIEH@RMSG_GETINFO@ DB 'RMSG_GETINFO', 00H	; `string'
CONST	ENDS
;	COMDAT ??_C@_0P@LFDACNFE@RMSG_KSDLLINFO@
CONST	SEGMENT
??_C@_0P@LFDACNFE@RMSG_KSDLLINFO@ DB 'RMSG_KSDLLINFO', 00H ; `string'
CONST	ENDS
;	COMDAT ??_C@_0BA@HKNFENJL@RMSG_GET_USERID@
CONST	SEGMENT
??_C@_0BA@HKNFENJL@RMSG_GET_USERID@ DB 'RMSG_GET_USERID', 00H ; `string'
CONST	ENDS
;	COMDAT ??_C@_0BC@MMPGLPDH@RMS_ANALYSIS_FUNC@
CONST	SEGMENT
??_C@_0BC@MMPGLPDH@RMS_ANALYSIS_FUNC@ DB 'RMS_ANALYSIS_FUNC', 00H ; `string'
CONST	ENDS
;	COMDAT ??_C@_0P@KHFCBIOH@RMSG_CHARTMAIN@
CONST	SEGMENT
??_C@_0P@KHFCBIOH@RMSG_CHARTMAIN@ DB 'RMSG_CHARTMAIN', 00H ; `string'
CONST	ENDS
;	COMDAT ??_C@_0BE@FJPKENOB@RMSG_GETSIGNAL_REAL@
CONST	SEGMENT
??_C@_0BE@FJPKENOB@RMSG_GETSIGNAL_REAL@ DB 'RMSG_GETSIGNAL_REAL', 00H ; `string'
CONST	ENDS
;	COMDAT ??_C@_0BC@LHNMEPFM@RMSG_SELCHARTCODE@
CONST	SEGMENT
??_C@_0BC@LHNMEPFM@RMSG_SELCHARTCODE@ DB 'RMSG_SELCHARTCODE', 00H ; `string'
CONST	ENDS
PUBLIC	?__empty_global_delete@@YAXPAX@Z		; __empty_global_delete
PUBLIC	?__empty_global_delete@@YAXPAXI@Z		; __empty_global_delete
PUBLIC	??1CObject@@UAE@XZ				; CObject::~CObject
PUBLIC	?Serialize@CObject@@UAEXAAVCArchive@@@Z		; CObject::Serialize
PUBLIC	?AssertValid@CObject@@UBEXXZ			; CObject::AssertValid
PUBLIC	?Dump@CObject@@UBEXAAVCDumpContext@@@Z		; CObject::Dump
PUBLIC	??1CGdiObject@@UAE@XZ				; CGdiObject::~CGdiObject
PUBLIC	??_GCGdiObject@@UAEPAXI@Z			; CGdiObject::`scalar deleting destructor'
PUBLIC	??1CBrush@@UAE@XZ				; CBrush::~CBrush
PUBLIC	??_GCBrush@@UAEPAXI@Z				; CBrush::`scalar deleting destructor'
PUBLIC	?BeginModalState@CWnd@@UAEXXZ			; CWnd::BeginModalState
PUBLIC	?EndModalState@CWnd@@UAEXXZ			; CWnd::EndModalState
PUBLIC	?SetBkColor@CRscDlg@@UAEXK@Z			; CRscDlg::SetBkColor
PUBLIC	??1CRscDlg@@UAE@XZ				; CRscDlg::~CRscDlg
PUBLIC	??1CUsrAddListDlg@@UAE@XZ			; CUsrAddListDlg::~CUsrAddListDlg
PUBLIC	??0CLeftBarDlg@@QAE@PAVCWnd@@@Z			; CLeftBarDlg::CLeftBarDlg
PUBLIC	?ChangeSkinColor@CLeftBarDlg@@UAEXK@Z		; CLeftBarDlg::ChangeSkinColor
PUBLIC	?GetIndicatorNameListIntoComboBox@CLeftBarDlg@@QAEXAAVCComboBox@@PBD@Z ; CLeftBarDlg::GetIndicatorNameListIntoComboBox
PUBLIC	?GetCurItemName@CLeftBarDlg@@QAE?AV?$CStringT@DV?$StrTraitMFC_DLL@DV?$ChTraitsCRT@D@ATL@@@@@ATL@@XZ ; CLeftBarDlg::GetCurItemName
PUBLIC	?IsAdvisingCodeOf@CLeftBarDlg@@QAEHPBD@Z	; CLeftBarDlg::IsAdvisingCodeOf
PUBLIC	?SetRealPriceData@CLeftBarDlg@@QAEXPADH@Z	; CLeftBarDlg::SetRealPriceData
PUBLIC	?GetCodeMasterArray@CLeftBarDlg@@QAEJJAAVCStringArray@@0@Z ; CLeftBarDlg::GetCodeMasterArray
PUBLIC	?GetIndicatorNameListIntoListCtrl@CLeftBarDlg@@QAEXAAVCXListCtrl@@PBD@Z ; CLeftBarDlg::GetIndicatorNameListIntoListCtrl
PUBLIC	?GetIndicatorNameListIntoTreeCtrl@CLeftBarDlg@@QAEXAAVCTreeCtrl@@@Z ; CLeftBarDlg::GetIndicatorNameListIntoTreeCtrl
PUBLIC	?ReceiveData@CLeftBarDlg@@QAEJPAUHWND__@@PBD11PAXJ@Z ; CLeftBarDlg::ReceiveData
PUBLIC	?SetPacketFromOutSide@CLeftBarDlg@@QAEXV?$CStringT@DV?$StrTraitMFC_DLL@DV?$ChTraitsCRT@D@ATL@@@@@ATL@@@Z ; CLeftBarDlg::SetPacketFromOutSide
PUBLIC	?GetPacketFromOutSide@CLeftBarDlg@@QAE?AV?$CStringT@DV?$StrTraitMFC_DLL@DV?$ChTraitsCRT@D@ATL@@@@@ATL@@XZ ; CLeftBarDlg::GetPacketFromOutSide
PUBLIC	?EnableWindow@CLeftBarDlg@@QAEHH@Z		; CLeftBarDlg::EnableWindow
PUBLIC	?GetEnableWindow@CLeftBarDlg@@QAEHXZ		; CLeftBarDlg::GetEnableWindow
PUBLIC	?SetConfig@CLeftBarDlg@@QAEXH@Z			; CLeftBarDlg::SetConfig
PUBLIC	?PreTranslateMessage@CLeftBarDlg@@UAEHPAUtagMSG@@@Z ; CLeftBarDlg::PreTranslateMessage
PUBLIC	?DoDataExchange@CLeftBarDlg@@MAEXPAVCDataExchange@@@Z ; CLeftBarDlg::DoDataExchange
PUBLIC	?WindowProc@CLeftBarDlg@@MAEJIIJ@Z		; CLeftBarDlg::WindowProc
PUBLIC	?OnInitDialog@CLeftBarDlg@@MAEHXZ		; CLeftBarDlg::OnInitDialog
PUBLIC	?OnSize@CLeftBarDlg@@IAEXIHH@Z			; CLeftBarDlg::OnSize
PUBLIC	?OnDestroy@CLeftBarDlg@@IAEXXZ			; CLeftBarDlg::OnDestroy
PUBLIC	?OnTimer@CLeftBarDlg@@IAEXI@Z			; CLeftBarDlg::OnTimer
PUBLIC	?OnBthidechart@CLeftBarDlg@@IAEXXZ		; CLeftBarDlg::OnBthidechart
PUBLIC	?OnSelchangeTab@CLeftBarDlg@@IAEXPAUtagNMHDR@@PAJ@Z ; CLeftBarDlg::OnSelchangeTab
PUBLIC	?OnPaint@CLeftBarDlg@@IAEXXZ			; CLeftBarDlg::OnPaint
PUBLIC	?GetThisMessageMap@CLeftBarDlg@@KGPBUAFX_MSGMAP@@XZ ; CLeftBarDlg::GetThisMessageMap
PUBLIC	?GetMessageMap@CLeftBarDlg@@MBEPBUAFX_MSGMAP@@XZ ; CLeftBarDlg::GetMessageMap
PUBLIC	??_GCLeftBarDlg@@UAEPAXI@Z			; CLeftBarDlg::`scalar deleting destructor'
PUBLIC	?GetViewHandleForWndMapView@@YAXAAPAUHWND__@@AAH@Z ; GetViewHandleForWndMapView
PUBLIC	??_R0PAVCException@@@8				; CException * `RTTI Type Descriptor'
PUBLIC	??_7CGdiObject@@6B@				; CGdiObject::`vftable'
PUBLIC	??_7CBrush@@6B@					; CBrush::`vftable'
PUBLIC	??_C@_0HD@JJCHHHNK@C?3?2Program?5Files?5?$CIx86?$CJ?2Microsof@ ; `string'
PUBLIC	??_C@_0BP@OIEOKIDM@Exception?5thrown?5in?5destructor@ ; `string'
PUBLIC	??_C@_0BB@HBOOMJBF@?$CFTs?5?$CI?$CFTs?3?$CFd?$CJ?6?$CFTs@ ; `string'
PUBLIC	??_C@_0N@OMEMOKLE@?$CFTs?5?$CI?$CFTs?3?$CFd?$CJ@ ; `string'
PUBLIC	??_R0?AVCObject@@@8				; CObject `RTTI Type Descriptor'
PUBLIC	??_R3CObject@@8					; CObject::`RTTI Class Hierarchy Descriptor'
PUBLIC	??_R2CObject@@8					; CObject::`RTTI Base Class Array'
PUBLIC	??_R1A@?0A@EA@CObject@@8			; CObject::`RTTI Base Class Descriptor at (0,-1,0,64)'
PUBLIC	??_R4CGdiObject@@6B@				; CGdiObject::`RTTI Complete Object Locator'
PUBLIC	??_R0?AVCGdiObject@@@8				; CGdiObject `RTTI Type Descriptor'
PUBLIC	??_R3CGdiObject@@8				; CGdiObject::`RTTI Class Hierarchy Descriptor'
PUBLIC	??_R2CGdiObject@@8				; CGdiObject::`RTTI Base Class Array'
PUBLIC	??_R1A@?0A@EA@CGdiObject@@8			; CGdiObject::`RTTI Base Class Descriptor at (0,-1,0,64)'
PUBLIC	??_R4CBrush@@6B@				; CBrush::`RTTI Complete Object Locator'
PUBLIC	??_R0?AVCBrush@@@8				; CBrush `RTTI Type Descriptor'
PUBLIC	??_R3CBrush@@8					; CBrush::`RTTI Class Hierarchy Descriptor'
PUBLIC	??_R2CBrush@@8					; CBrush::`RTTI Base Class Array'
PUBLIC	??_R1A@?0A@EA@CBrush@@8				; CBrush::`RTTI Base Class Descriptor at (0,-1,0,64)'
PUBLIC	??_R1A@?0A@EA@CWnd@@8				; CWnd::`RTTI Base Class Descriptor at (0,-1,0,64)'
PUBLIC	??_R0?AVCWnd@@@8				; CWnd `RTTI Type Descriptor'
PUBLIC	??_R3CWnd@@8					; CWnd::`RTTI Class Hierarchy Descriptor'
PUBLIC	??_R2CWnd@@8					; CWnd::`RTTI Base Class Array'
PUBLIC	??_R1A@?0A@EA@CCmdTarget@@8			; CCmdTarget::`RTTI Base Class Descriptor at (0,-1,0,64)'
PUBLIC	??_R0?AVCCmdTarget@@@8				; CCmdTarget `RTTI Type Descriptor'
PUBLIC	??_R3CCmdTarget@@8				; CCmdTarget::`RTTI Class Hierarchy Descriptor'
PUBLIC	??_R2CCmdTarget@@8				; CCmdTarget::`RTTI Base Class Array'
PUBLIC	??_R1A@?0A@EA@CDialog@@8			; CDialog::`RTTI Base Class Descriptor at (0,-1,0,64)'
PUBLIC	??_R0?AVCDialog@@@8				; CDialog `RTTI Type Descriptor'
PUBLIC	??_R3CDialog@@8					; CDialog::`RTTI Class Hierarchy Descriptor'
PUBLIC	??_R2CDialog@@8					; CDialog::`RTTI Base Class Array'
PUBLIC	??_7CLeftBarDlg@@6B@				; CLeftBarDlg::`vftable'
PUBLIC	??_C@_04JNGOCNLJ@9020@				; `string'
PUBLIC	??_R4CLeftBarDlg@@6B@				; CLeftBarDlg::`RTTI Complete Object Locator'
PUBLIC	??_R0?AVCLeftBarDlg@@@8				; CLeftBarDlg `RTTI Type Descriptor'
PUBLIC	??_R3CLeftBarDlg@@8				; CLeftBarDlg::`RTTI Class Hierarchy Descriptor'
PUBLIC	??_R2CLeftBarDlg@@8				; CLeftBarDlg::`RTTI Base Class Array'
PUBLIC	??_R1A@?0A@EA@CLeftBarDlg@@8			; CLeftBarDlg::`RTTI Base Class Descriptor at (0,-1,0,64)'
PUBLIC	??_R1A@?0A@EA@CRscDlg@@8			; CRscDlg::`RTTI Base Class Descriptor at (0,-1,0,64)'
PUBLIC	??_R0?AVCRscDlg@@@8				; CRscDlg `RTTI Type Descriptor'
PUBLIC	??_R3CRscDlg@@8					; CRscDlg::`RTTI Class Hierarchy Descriptor'
PUBLIC	??_R2CRscDlg@@8					; CRscDlg::`RTTI Base Class Array'
EXTRN	??3@YAXPAX@Z:PROC				; operator delete
EXTRN	?__global_delete@@YAXPAXI@Z:PROC		; __global_delete
EXTRN	__imp__RegisterWindowMessageA@4:PROC
EXTRN	__imp__SendMessageA@16:PROC
EXTRN	__imp__IsWindow@4:PROC
EXTRN	__imp__EnableWindow@8:PROC
EXTRN	__imp__InvalidateRect@12:PROC
EXTRN	__imp__GetClientRect@8:PROC
EXTRN	__imp__GetParent@4:PROC
EXTRN	__imp_?Empty@?$CSimpleStringT@D$00@ATL@@QAEXXZ:PROC
EXTRN	__imp_??0?$CStringT@DV?$StrTraitMFC_DLL@DV?$ChTraitsCRT@D@ATL@@@@@ATL@@QAE@XZ:PROC
EXTRN	__imp_??0?$CStringT@DV?$StrTraitMFC_DLL@DV?$ChTraitsCRT@D@ATL@@@@@ATL@@QAE@ABV01@@Z:PROC
EXTRN	__imp_??1?$CStringT@DV?$StrTraitMFC_DLL@DV?$ChTraitsCRT@D@ATL@@@@@ATL@@QAE@XZ:PROC
EXTRN	__imp_??4?$CStringT@DV?$StrTraitMFC_DLL@DV?$ChTraitsCRT@D@ATL@@@@@ATL@@QAEAAV01@ABV01@@Z:PROC
EXTRN	__imp_?Find@?$CStringT@DV?$StrTraitMFC_DLL@DV?$ChTraitsCRT@D@ATL@@@@@ATL@@QBEHPBDH@Z:PROC
EXTRN	__imp_?Format@?$CStringT@DV?$StrTraitMFC_DLL@DV?$ChTraitsCRT@D@ATL@@@@@ATL@@QAAXPBDZZ:PROC
EXTRN	??0CStringList@@QAE@H@Z:PROC			; CStringList::CStringList
EXTRN	?Find@CStringList@@QBEPAU__POSITION@@PBDPAU2@@Z:PROC ; CStringList::Find
EXTRN	??1CStringList@@UAE@XZ:PROC			; CStringList::~CStringList
EXTRN	?GetRuntimeClass@CGdiObject@@UBEPAUCRuntimeClass@@XZ:PROC ; CGdiObject::GetRuntimeClass
EXTRN	?DeleteObject@CGdiObject@@QAEHXZ:PROC		; CGdiObject::DeleteObject
EXTRN	??_ECGdiObject@@UAEPAXI@Z:PROC			; CGdiObject::`vector deleting destructor'
EXTRN	?GetRuntimeClass@CBrush@@UBEPAUCRuntimeClass@@XZ:PROC ; CBrush::GetRuntimeClass
EXTRN	??_ECBrush@@UAEPAXI@Z:PROC			; CBrush::`vector deleting destructor'
EXTRN	?DDX_Control@@YGXPAVCDataExchange@@HAAVCWnd@@@Z:PROC ; DDX_Control
EXTRN	?IsInvokeAllowed@CCmdTarget@@UAEHJ@Z:PROC	; CCmdTarget::IsInvokeAllowed
EXTRN	?GetDispatchIID@CCmdTarget@@UAEHPAU_GUID@@@Z:PROC ; CCmdTarget::GetDispatchIID
EXTRN	?GetTypeInfoCount@CCmdTarget@@UAEIXZ:PROC	; CCmdTarget::GetTypeInfoCount
EXTRN	?GetTypeLibCache@CCmdTarget@@UAEPAVCTypeLibCache@@XZ:PROC ; CCmdTarget::GetTypeLibCache
EXTRN	?GetTypeLib@CCmdTarget@@UAEJKPAPAUITypeLib@@@Z:PROC ; CCmdTarget::GetTypeLib
EXTRN	?GetCommandMap@CCmdTarget@@MBEPBUAFX_OLECMDMAP@@XZ:PROC ; CCmdTarget::GetCommandMap
EXTRN	?GetDispatchMap@CCmdTarget@@MBEPBUAFX_DISPMAP@@XZ:PROC ; CCmdTarget::GetDispatchMap
EXTRN	?GetConnectionMap@CCmdTarget@@MBEPBUAFX_CONNECTIONMAP@@XZ:PROC ; CCmdTarget::GetConnectionMap
EXTRN	?GetEventSinkMap@CCmdTarget@@MBEPBUAFX_EVENTSINKMAP@@XZ:PROC ; CCmdTarget::GetEventSinkMap
EXTRN	?OnCreateAggregates@CCmdTarget@@UAEHXZ:PROC	; CCmdTarget::OnCreateAggregates
EXTRN	?GetInterfaceHook@CCmdTarget@@UAEPAUIUnknown@@PBX@Z:PROC ; CCmdTarget::GetInterfaceHook
EXTRN	?GetExtraConnectionPoints@CCmdTarget@@MAEHPAVCPtrArray@@@Z:PROC ; CCmdTarget::GetExtraConnectionPoints
EXTRN	?GetConnectionHook@CCmdTarget@@MAEPAUIConnectionPoint@@ABU_GUID@@@Z:PROC ; CCmdTarget::GetConnectionHook
EXTRN	?ModifyStyle@CWnd@@QAEHKKI@Z:PROC		; CWnd::ModifyStyle
EXTRN	?FromHandle@CWnd@@SGPAV1@PAUHWND__@@@Z:PROC	; CWnd::FromHandle
EXTRN	?PreSubclassWindow@CWnd@@UAEXXZ:PROC		; CWnd::PreSubclassWindow
EXTRN	?Create@CWnd@@UAEHPBD0KABUtagRECT@@PAV1@IPAUCCreateContext@@@Z:PROC ; CWnd::Create
EXTRN	?CreateEx@CWnd@@UAEHKPBD0KHHHHPAUHWND__@@PAUHMENU__@@PAX@Z:PROC ; CWnd::CreateEx
EXTRN	?CreateEx@CWnd@@UAEHKPBD0KABUtagRECT@@PAV1@IPAX@Z:PROC ; CWnd::CreateEx
EXTRN	?DestroyWindow@CWnd@@UAEHXZ:PROC		; CWnd::DestroyWindow
EXTRN	?PreCreateWindow@CWnd@@UAEHAAUtagCREATESTRUCTA@@@Z:PROC ; CWnd::PreCreateWindow
EXTRN	?CalcWindowRect@CWnd@@UAEXPAUtagRECT@@I@Z:PROC	; CWnd::CalcWindowRect
EXTRN	?GetWindowTextA@CWnd@@QBEXAAV?$CStringT@DV?$StrTraitMFC_DLL@DV?$ChTraitsCRT@D@ATL@@@@@ATL@@@Z:PROC ; CWnd::GetWindowTextA
EXTRN	?GetMenu@CWnd@@UBEPAVCMenu@@XZ:PROC		; CWnd::GetMenu
EXTRN	?SetMenu@CWnd@@UAEHPAVCMenu@@@Z:PROC		; CWnd::SetMenu
EXTRN	?MoveWindow@CWnd@@QAEXHHHHH@Z:PROC		; CWnd::MoveWindow
EXTRN	?ShowWindow@CWnd@@QAEHH@Z:PROC			; CWnd::ShowWindow
EXTRN	?OnToolHitTest@CWnd@@UBEHVCPoint@@PAUtagTOOLINFOA@@@Z:PROC ; CWnd::OnToolHitTest
EXTRN	?EnableWindow@CWnd@@QAEHH@Z:PROC		; CWnd::EnableWindow
EXTRN	?GetScrollBarCtrl@CWnd@@UBEPAVCScrollBar@@H@Z:PROC ; CWnd::GetScrollBarCtrl
EXTRN	?WinHelpA@CWnd@@UAEXKI@Z:PROC			; CWnd::WinHelpA
EXTRN	?HtmlHelpA@CWnd@@UAEXKI@Z:PROC			; CWnd::HtmlHelpA
EXTRN	?WinHelpInternal@CWnd@@UAEXKI@Z:PROC		; CWnd::WinHelpInternal
EXTRN	?ContinueModal@CWnd@@UAEHXZ:PROC		; CWnd::ContinueModal
EXTRN	?EndModalLoop@CWnd@@UAEXH@Z:PROC		; CWnd::EndModalLoop
EXTRN	?OnDrawIconicThumbnailOrLivePreview@CWnd@@UAEXAAVCDC@@VCRect@@VCSize@@HAAH@Z:PROC ; CWnd::OnDrawIconicThumbnailOrLivePreview
EXTRN	?GetInterfaceMap@CWnd@@MBEPBUAFX_INTERFACEMAP@@XZ:PROC ; CWnd::GetInterfaceMap
EXTRN	?EnsureStdObj@CWnd@@UAEJXZ:PROC			; CWnd::EnsureStdObj
EXTRN	?get_accParent@CWnd@@UAEJPAPAUIDispatch@@@Z:PROC ; CWnd::get_accParent
EXTRN	?get_accChildCount@CWnd@@UAEJPAJ@Z:PROC		; CWnd::get_accChildCount
EXTRN	?get_accChild@CWnd@@UAEJUtagVARIANT@@PAPAUIDispatch@@@Z:PROC ; CWnd::get_accChild
EXTRN	?get_accName@CWnd@@UAEJUtagVARIANT@@PAPA_W@Z:PROC ; CWnd::get_accName
EXTRN	?get_accValue@CWnd@@UAEJUtagVARIANT@@PAPA_W@Z:PROC ; CWnd::get_accValue
EXTRN	?get_accDescription@CWnd@@UAEJUtagVARIANT@@PAPA_W@Z:PROC ; CWnd::get_accDescription
EXTRN	?get_accRole@CWnd@@UAEJUtagVARIANT@@PAU2@@Z:PROC ; CWnd::get_accRole
EXTRN	?get_accState@CWnd@@UAEJUtagVARIANT@@PAU2@@Z:PROC ; CWnd::get_accState
EXTRN	?get_accHelp@CWnd@@UAEJUtagVARIANT@@PAPA_W@Z:PROC ; CWnd::get_accHelp
EXTRN	?get_accHelpTopic@CWnd@@UAEJPAPA_WUtagVARIANT@@PAJ@Z:PROC ; CWnd::get_accHelpTopic
EXTRN	?get_accKeyboardShortcut@CWnd@@UAEJUtagVARIANT@@PAPA_W@Z:PROC ; CWnd::get_accKeyboardShortcut
EXTRN	?get_accFocus@CWnd@@UAEJPAUtagVARIANT@@@Z:PROC	; CWnd::get_accFocus
EXTRN	?get_accSelection@CWnd@@UAEJPAUtagVARIANT@@@Z:PROC ; CWnd::get_accSelection
EXTRN	?get_accDefaultAction@CWnd@@UAEJUtagVARIANT@@PAPA_W@Z:PROC ; CWnd::get_accDefaultAction
EXTRN	?accSelect@CWnd@@UAEJJUtagVARIANT@@@Z:PROC	; CWnd::accSelect
EXTRN	?accLocation@CWnd@@UAEJPAJ000UtagVARIANT@@@Z:PROC ; CWnd::accLocation
EXTRN	?accNavigate@CWnd@@UAEJJUtagVARIANT@@PAU2@@Z:PROC ; CWnd::accNavigate
EXTRN	?accHitTest@CWnd@@UAEJJJPAUtagVARIANT@@@Z:PROC	; CWnd::accHitTest
EXTRN	?accDoDefaultAction@CWnd@@UAEJUtagVARIANT@@@Z:PROC ; CWnd::accDoDefaultAction
EXTRN	?put_accName@CWnd@@UAEJUtagVARIANT@@PA_W@Z:PROC	; CWnd::put_accName
EXTRN	?put_accValue@CWnd@@UAEJUtagVARIANT@@PA_W@Z:PROC ; CWnd::put_accValue
EXTRN	?SetProxy@CWnd@@UAEJPAUIAccessibleProxy@@@Z:PROC ; CWnd::SetProxy
EXTRN	?CreateAccessibleProxy@CWnd@@UAEJIJPAJ@Z:PROC	; CWnd::CreateAccessibleProxy
EXTRN	?OnCommand@CWnd@@MAEHIJ@Z:PROC			; CWnd::OnCommand
EXTRN	?OnNotify@CWnd@@MAEHIJPAJ@Z:PROC		; CWnd::OnNotify
EXTRN	?GetSuperWndProcAddr@CWnd@@MAEPAP6GJPAUHWND__@@IIJ@ZXZ:PROC ; CWnd::GetSuperWndProcAddr
EXTRN	?OnAmbientProperty@CWnd@@UAEHPAVCOleControlSite@@JPAUtagVARIANT@@@Z:PROC ; CWnd::OnAmbientProperty
EXTRN	?WindowProc@CWnd@@MAEJIIJ@Z:PROC		; CWnd::WindowProc
EXTRN	?OnWndMsg@CWnd@@MAEHIIJPAJ@Z:PROC		; CWnd::OnWndMsg
EXTRN	?Default@CWnd@@IAEJXZ:PROC			; CWnd::Default
EXTRN	?DefWindowProcA@CWnd@@MAEJIIJ@Z:PROC		; CWnd::DefWindowProcA
EXTRN	?PostNcDestroy@CWnd@@MAEXXZ:PROC		; CWnd::PostNcDestroy
EXTRN	?OnChildNotify@CWnd@@MAEHIIJPAJ@Z:PROC		; CWnd::OnChildNotify
EXTRN	?OnTouchInputs@CWnd@@MAEHIPAUtagTOUCHINPUT@@@Z:PROC ; CWnd::OnTouchInputs
EXTRN	?OnTouchInput@CWnd@@MAEHVCPoint@@HHPAUtagTOUCHINPUT@@@Z:PROC ; CWnd::OnTouchInput
EXTRN	?GetGestureStatus@CWnd@@MAEKVCPoint@@@Z:PROC	; CWnd::GetGestureStatus
EXTRN	?OnGestureZoom@CWnd@@MAEHVCPoint@@J@Z:PROC	; CWnd::OnGestureZoom
EXTRN	?OnGesturePan@CWnd@@MAEHVCPoint@@0@Z:PROC	; CWnd::OnGesturePan
EXTRN	?OnGestureRotate@CWnd@@MAEHVCPoint@@N@Z:PROC	; CWnd::OnGestureRotate
EXTRN	?OnGestureTwoFingerTap@CWnd@@MAEHVCPoint@@@Z:PROC ; CWnd::OnGestureTwoFingerTap
EXTRN	?OnGesturePressAndTap@CWnd@@MAEHVCPoint@@J@Z:PROC ; CWnd::OnGesturePressAndTap
EXTRN	?ResizeDynamicLayout@CWnd@@MAEXXZ:PROC		; CWnd::ResizeDynamicLayout
EXTRN	?IsFrameWnd@CWnd@@UBEHXZ:PROC			; CWnd::IsFrameWnd
EXTRN	?OnFinalRelease@CWnd@@UAEXXZ:PROC		; CWnd::OnFinalRelease
EXTRN	?CreateControlContainer@CWnd@@MAEHPAPAVCOleControlContainer@@@Z:PROC ; CWnd::CreateControlContainer
EXTRN	?CreateControlSite@CWnd@@MAEHPAVCOleControlContainer@@PAPAVCOleControlSite@@IABU_GUID@@@Z:PROC ; CWnd::CreateControlSite
EXTRN	?GetRuntimeClass@CDialog@@UBEPAUCRuntimeClass@@XZ:PROC ; CDialog::GetRuntimeClass
EXTRN	?Create@CDialog@@UAEHPBDPAVCWnd@@@Z:PROC	; CDialog::Create
EXTRN	?CreateIndirect@CDialog@@UAEHPBUDLGTEMPLATE@@PAVCWnd@@PAX@Z:PROC ; CDialog::CreateIndirect
EXTRN	?CreateIndirect@CDialog@@UAEHPAXPAVCWnd@@@Z:PROC ; CDialog::CreateIndirect
EXTRN	?OnSetFont@CDialog@@UAEXPAVCFont@@@Z:PROC	; CDialog::OnSetFont
EXTRN	?OnOK@CDialog@@MAEXXZ:PROC			; CDialog::OnOK
EXTRN	?OnCancel@CDialog@@MAEXXZ:PROC			; CDialog::OnCancel
EXTRN	??1CDialog@@UAE@XZ:PROC				; CDialog::~CDialog
EXTRN	?PreTranslateMessage@CDialog@@UAEHPAUtagMSG@@@Z:PROC ; CDialog::PreTranslateMessage
EXTRN	?OnCmdMsg@CDialog@@UAEHIHPAXPAUAFX_CMDHANDLERINFO@@@Z:PROC ; CDialog::OnCmdMsg
EXTRN	?CheckAutoCenter@CDialog@@UAEHXZ:PROC		; CDialog::CheckAutoCenter
EXTRN	?SetOccDialogInfo@CDialog@@MAEHPAU_AFX_OCC_DIALOG_INFO@@@Z:PROC ; CDialog::SetOccDialogInfo
EXTRN	?GetOccDialogInfo@CDialog@@MAEPAU_AFX_OCC_DIALOG_INFO@@XZ:PROC ; CDialog::GetOccDialogInfo
EXTRN	?PreInitDialog@CDialog@@MAEXXZ:PROC		; CDialog::PreInitDialog
EXTRN	?OnPaint@CDialog@@IAEXXZ:PROC			; CDialog::OnPaint
EXTRN	?AfxMessageBox@@YGHPBDII@Z:PROC			; AfxMessageBox
EXTRN	??0CRscDlg@@QAE@IPAVCWnd@@@Z:PROC		; CRscDlg::CRscDlg
EXTRN	?ChangeSkinColor@CRscDlg@@UAEXK@Z:PROC		; CRscDlg::ChangeSkinColor
EXTRN	?Create@CRscDlg@@UAEHIPAVCWnd@@@Z:PROC		; CRscDlg::Create
EXTRN	?DoModal@CRscDlg@@UAEHXZ:PROC			; CRscDlg::DoModal
EXTRN	?OnInitDialog@CRscDlg@@MAEHXZ:PROC		; CRscDlg::OnInitDialog
EXTRN	?DoDataExchange@CRscDlg@@MAEXPAVCDataExchange@@@Z:PROC ; CRscDlg::DoDataExchange
EXTRN	?OnDestroy@CRscDlg@@IAEXXZ:PROC			; CRscDlg::OnDestroy
EXTRN	?GetThisMessageMap@CRscDlg@@KGPBUAFX_MSGMAP@@XZ:PROC ; CRscDlg::GetThisMessageMap
EXTRN	??1CNsyButtonListCtrl@@UAE@XZ:PROC		; CNsyButtonListCtrl::~CNsyButtonListCtrl
EXTRN	??1CILButton@@UAE@XZ:PROC			; CILButton::~CILButton
EXTRN	??0CUsrAddListDlg@@QAE@PAVCWnd@@@Z:PROC		; CUsrAddListDlg::CUsrAddListDlg
EXTRN	?AddELWIndexCode@CUsrAddListDlg@@QAEXXZ:PROC	; CUsrAddListDlg::AddELWIndexCode
EXTRN	??0CXTabCtrl@@QAE@XZ:PROC			; CXTabCtrl::CXTabCtrl
EXTRN	?Init@CXTabCtrl@@QAEXPAVCWnd@@0HPAX@Z:PROC	; CXTabCtrl::Init
EXTRN	?ShowTab@CXTabCtrl@@QAEXH@Z:PROC		; CXTabCtrl::ShowTab
EXTRN	?SetTopLeftCorner@CXTabCtrl@@QAEXVCPoint@@@Z:PROC ; CXTabCtrl::SetTopLeftCorner
EXTRN	?ChangeSkinColor@CXTabCtrl@@QAEXXZ:PROC		; CXTabCtrl::ChangeSkinColor
EXTRN	??1CXTabCtrl@@UAE@XZ:PROC			; CXTabCtrl::~CXTabCtrl
EXTRN	??_ECLeftBarDlg@@UAEPAXI@Z:PROC			; CLeftBarDlg::`vector deleting destructor'
EXTRN	?GetIndicatorNameListIntoComboBox@CChartMng@@QAEXAAVCComboBox@@PBD@Z:PROC ; CChartMng::GetIndicatorNameListIntoComboBox
EXTRN	?GetIndicatorNameListIntoListCtrl@CChartMng@@QAEXAAVCXListCtrl@@PBD@Z:PROC ; CChartMng::GetIndicatorNameListIntoListCtrl
EXTRN	?GetIndicatorNameListIntoTreeCtrl@CChartMng@@QAEXAAVCTreeCtrl@@@Z:PROC ; CChartMng::GetIndicatorNameListIntoTreeCtrl
EXTRN	?HideChart@CStdDialog@@QAEHXZ:PROC		; CStdDialog::HideChart
EXTRN	@__security_check_cookie@4:PROC
EXTRN	___CxxFrameHandler3:PROC
EXTRN	??_7type_info@@6B@:QWORD			; type_info::`vftable'
EXTRN	___security_cookie:DWORD
_BSS	SEGMENT
?RMSG_GETSIGNAL_REAL@@3IB DD 01H DUP (?)		; RMSG_GETSIGNAL_REAL
?RMSG_CHARTMAIN@@3IB DD 01H DUP (?)			; RMSG_CHARTMAIN
?RMS_ANALYSIS_FUNC@@3IB DD 01H DUP (?)			; RMS_ANALYSIS_FUNC
?RMSG_GET_USERID@@3IB DD 01H DUP (?)			; RMSG_GET_USERID
?RMSG_KSDLLINFO@@3IB DD 01H DUP (?)			; RMSG_KSDLLINFO
?RMSG_GETINFO@@3IB DD 01H DUP (?)			; RMSG_GETINFO
?RMSG_CHANGE_SKINCOLOR@@3IB DD 01H DUP (?)		; RMSG_CHANGE_SKINCOLOR
?RMSG_GET_SKINCOLOR@@3IB DD 01H DUP (?)			; RMSG_GET_SKINCOLOR
?RMSG_CHANGE_CROSSLINE@@3IB DD 01H DUP (?)		; RMSG_CHANGE_CROSSLINE
?RMSG_REPLAY_REAL@@3IB DD 01H DUP (?)			; RMSG_REPLAY_REAL
?RMSG_REPLAY_FAIL@@3IB DD 01H DUP (?)			; RMSG_REPLAY_FAIL
?RMSG_REPLAY_CHANGE_DATE@@3IB DD 01H DUP (?)		; RMSG_REPLAY_CHANGE_DATE
?RMSG_REPLAY_END@@3IB DD 01H DUP (?)			; RMSG_REPLAY_END
?RMSG_REPLAY_INC_SEC@@3IB DD 01H DUP (?)		; RMSG_REPLAY_INC_SEC
?RMSG_REPLAY_TOTAL_SEC@@3IB DD 01H DUP (?)		; RMSG_REPLAY_TOTAL_SEC
?RMSG_SELCHARTCODE@@3IB DD 01H DUP (?)			; RMSG_SELCHARTCODE
_BSS	ENDS
CRT$XCU	SEGMENT
?RMSG_GETSIGNAL_REAL$initializer$@@3P6AXXZA DD FLAT:??__ERMSG_GETSIGNAL_REAL@@YAXXZ ; RMSG_GETSIGNAL_REAL$initializer$
CRT$XCU	ENDS
;	COMDAT ??_R2CRscDlg@@8
rdata$r	SEGMENT
??_R2CRscDlg@@8 DD FLAT:??_R1A@?0A@EA@CRscDlg@@8	; CRscDlg::`RTTI Base Class Array'
	DD	FLAT:??_R1A@?0A@EA@CDialog@@8
	DD	FLAT:??_R1A@?0A@EA@CWnd@@8
	DD	FLAT:??_R1A@?0A@EA@CCmdTarget@@8
	DD	FLAT:??_R1A@?0A@EA@CObject@@8
rdata$r	ENDS
;	COMDAT ??_R3CRscDlg@@8
rdata$r	SEGMENT
??_R3CRscDlg@@8 DD 00H					; CRscDlg::`RTTI Class Hierarchy Descriptor'
	DD	00H
	DD	05H
	DD	FLAT:??_R2CRscDlg@@8
rdata$r	ENDS
;	COMDAT ??_R0?AVCRscDlg@@@8
data$rs	SEGMENT
??_R0?AVCRscDlg@@@8 DD FLAT:??_7type_info@@6B@		; CRscDlg `RTTI Type Descriptor'
	DD	00H
	DB	'.?AVCRscDlg@@', 00H
data$rs	ENDS
;	COMDAT ??_R1A@?0A@EA@CRscDlg@@8
rdata$r	SEGMENT
??_R1A@?0A@EA@CRscDlg@@8 DD FLAT:??_R0?AVCRscDlg@@@8	; CRscDlg::`RTTI Base Class Descriptor at (0,-1,0,64)'
	DD	04H
	DD	00H
	DD	0ffffffffH
	DD	00H
	DD	040H
	DD	FLAT:??_R3CRscDlg@@8
rdata$r	ENDS
;	COMDAT ??_R1A@?0A@EA@CLeftBarDlg@@8
rdata$r	SEGMENT
??_R1A@?0A@EA@CLeftBarDlg@@8 DD FLAT:??_R0?AVCLeftBarDlg@@@8 ; CLeftBarDlg::`RTTI Base Class Descriptor at (0,-1,0,64)'
	DD	05H
	DD	00H
	DD	0ffffffffH
	DD	00H
	DD	040H
	DD	FLAT:??_R3CLeftBarDlg@@8
rdata$r	ENDS
;	COMDAT ??_R2CLeftBarDlg@@8
rdata$r	SEGMENT
??_R2CLeftBarDlg@@8 DD FLAT:??_R1A@?0A@EA@CLeftBarDlg@@8 ; CLeftBarDlg::`RTTI Base Class Array'
	DD	FLAT:??_R1A@?0A@EA@CRscDlg@@8
	DD	FLAT:??_R1A@?0A@EA@CDialog@@8
	DD	FLAT:??_R1A@?0A@EA@CWnd@@8
	DD	FLAT:??_R1A@?0A@EA@CCmdTarget@@8
	DD	FLAT:??_R1A@?0A@EA@CObject@@8
rdata$r	ENDS
;	COMDAT ??_R3CLeftBarDlg@@8
rdata$r	SEGMENT
??_R3CLeftBarDlg@@8 DD 00H				; CLeftBarDlg::`RTTI Class Hierarchy Descriptor'
	DD	00H
	DD	06H
	DD	FLAT:??_R2CLeftBarDlg@@8
rdata$r	ENDS
;	COMDAT ??_R0?AVCLeftBarDlg@@@8
data$rs	SEGMENT
??_R0?AVCLeftBarDlg@@@8 DD FLAT:??_7type_info@@6B@	; CLeftBarDlg `RTTI Type Descriptor'
	DD	00H
	DB	'.?AVCLeftBarDlg@@', 00H
data$rs	ENDS
;	COMDAT ??_R4CLeftBarDlg@@6B@
rdata$r	SEGMENT
??_R4CLeftBarDlg@@6B@ DD 00H				; CLeftBarDlg::`RTTI Complete Object Locator'
	DD	00H
	DD	00H
	DD	FLAT:??_R0?AVCLeftBarDlg@@@8
	DD	FLAT:??_R3CLeftBarDlg@@8
rdata$r	ENDS
;	COMDAT ?messageMap@?1??GetThisMessageMap@CLeftBarDlg@@KGPBUAFX_MSGMAP@@XZ@4U3@B
CONST	SEGMENT
?messageMap@?1??GetThisMessageMap@CLeftBarDlg@@KGPBUAFX_MSGMAP@@XZ@4U3@B DD FLAT:?GetThisMessageMap@CRscDlg@@KGPBUAFX_MSGMAP@@XZ ; `CLeftBarDlg::GetThisMessageMap'::`2'::messageMap
	DD	FLAT:?_messageEntries@?1??GetThisMessageMap@CLeftBarDlg@@KGPBUAFX_MSGMAP@@XZ@4QBUAFX_MSGMAP_ENTRY@@B
CONST	ENDS
;	COMDAT ?_messageEntries@?1??GetThisMessageMap@CLeftBarDlg@@KGPBUAFX_MSGMAP@@XZ@4QBUAFX_MSGMAP_ENTRY@@B
CONST	SEGMENT
?_messageEntries@?1??GetThisMessageMap@CLeftBarDlg@@KGPBUAFX_MSGMAP@@XZ@4QBUAFX_MSGMAP_ENTRY@@B DD 05H ; `CLeftBarDlg::GetThisMessageMap'::`2'::_messageEntries
	DD	00H
	DD	00H
	DD	00H
	DD	01aH
	DD	FLAT:?OnSize@CLeftBarDlg@@IAEXIHH@Z
	DD	02H
	DD	00H
	DD	00H
	DD	00H
	DD	013H
	DD	FLAT:?OnDestroy@CLeftBarDlg@@IAEXXZ
	DD	0113H
	DD	00H
	DD	00H
	DD	00H
	DD	015H
	DD	FLAT:?OnTimer@CLeftBarDlg@@IAEXI@Z
	DD	04eH
	DD	0fdd9H
	DD	01770H
	DD	01770H
	DD	03eH
	DD	FLAT:?OnSelchangeTab@CLeftBarDlg@@IAEXPAUtagNMHDR@@PAJ@Z
	DD	0fH
	DD	00H
	DD	00H
	DD	00H
	DD	013H
	DD	FLAT:?OnPaint@CLeftBarDlg@@IAEXXZ
	DD	00H
	DD	00H
	DD	00H
	DD	00H
	DD	00H
	DD	00H
CONST	ENDS
;	COMDAT ??_C@_04JNGOCNLJ@9020@
CONST	SEGMENT
??_C@_04JNGOCNLJ@9020@ DB '9020', 00H			; `string'
CONST	ENDS
;	COMDAT ??_7CLeftBarDlg@@6B@
CONST	SEGMENT
??_7CLeftBarDlg@@6B@ DD FLAT:??_R4CLeftBarDlg@@6B@	; CLeftBarDlg::`vftable'
	DD	FLAT:?GetRuntimeClass@CDialog@@UBEPAUCRuntimeClass@@XZ
	DD	FLAT:??_ECLeftBarDlg@@UAEPAXI@Z
	DD	FLAT:?Serialize@CObject@@UAEXAAVCArchive@@@Z
	DD	FLAT:?AssertValid@CObject@@UBEXXZ
	DD	FLAT:?Dump@CObject@@UBEXAAVCDumpContext@@@Z
	DD	FLAT:?OnCmdMsg@CDialog@@UAEHIHPAXPAUAFX_CMDHANDLERINFO@@@Z
	DD	FLAT:?OnFinalRelease@CWnd@@UAEXXZ
	DD	FLAT:?IsInvokeAllowed@CCmdTarget@@UAEHJ@Z
	DD	FLAT:?GetDispatchIID@CCmdTarget@@UAEHPAU_GUID@@@Z
	DD	FLAT:?GetTypeInfoCount@CCmdTarget@@UAEIXZ
	DD	FLAT:?GetTypeLibCache@CCmdTarget@@UAEPAVCTypeLibCache@@XZ
	DD	FLAT:?GetTypeLib@CCmdTarget@@UAEJKPAPAUITypeLib@@@Z
	DD	FLAT:?GetMessageMap@CLeftBarDlg@@MBEPBUAFX_MSGMAP@@XZ
	DD	FLAT:?GetCommandMap@CCmdTarget@@MBEPBUAFX_OLECMDMAP@@XZ
	DD	FLAT:?GetDispatchMap@CCmdTarget@@MBEPBUAFX_DISPMAP@@XZ
	DD	FLAT:?GetConnectionMap@CCmdTarget@@MBEPBUAFX_CONNECTIONMAP@@XZ
	DD	FLAT:?GetInterfaceMap@CWnd@@MBEPBUAFX_INTERFACEMAP@@XZ
	DD	FLAT:?GetEventSinkMap@CCmdTarget@@MBEPBUAFX_EVENTSINKMAP@@XZ
	DD	FLAT:?OnCreateAggregates@CCmdTarget@@UAEHXZ
	DD	FLAT:?GetInterfaceHook@CCmdTarget@@UAEPAUIUnknown@@PBX@Z
	DD	FLAT:?GetExtraConnectionPoints@CCmdTarget@@MAEHPAVCPtrArray@@@Z
	DD	FLAT:?GetConnectionHook@CCmdTarget@@MAEPAUIConnectionPoint@@ABU_GUID@@@Z
	DD	FLAT:?PreSubclassWindow@CWnd@@UAEXXZ
	DD	FLAT:?Create@CWnd@@UAEHPBD0KABUtagRECT@@PAV1@IPAUCCreateContext@@@Z
	DD	FLAT:?CreateEx@CWnd@@UAEHKPBD0KABUtagRECT@@PAV1@IPAX@Z
	DD	FLAT:?CreateEx@CWnd@@UAEHKPBD0KHHHHPAUHWND__@@PAUHMENU__@@PAX@Z
	DD	FLAT:?DestroyWindow@CWnd@@UAEHXZ
	DD	FLAT:?PreCreateWindow@CWnd@@UAEHAAUtagCREATESTRUCTA@@@Z
	DD	FLAT:?CalcWindowRect@CWnd@@UAEXPAUtagRECT@@I@Z
	DD	FLAT:?GetMenu@CWnd@@UBEPAVCMenu@@XZ
	DD	FLAT:?SetMenu@CWnd@@UAEHPAVCMenu@@@Z
	DD	FLAT:?OnToolHitTest@CWnd@@UBEHVCPoint@@PAUtagTOOLINFOA@@@Z
	DD	FLAT:?GetScrollBarCtrl@CWnd@@UBEPAVCScrollBar@@H@Z
	DD	FLAT:?WinHelpA@CWnd@@UAEXKI@Z
	DD	FLAT:?HtmlHelpA@CWnd@@UAEXKI@Z
	DD	FLAT:?WinHelpInternal@CWnd@@UAEXKI@Z
	DD	FLAT:?ContinueModal@CWnd@@UAEHXZ
	DD	FLAT:?EndModalLoop@CWnd@@UAEXH@Z
	DD	FLAT:?OnDrawIconicThumbnailOrLivePreview@CWnd@@UAEXAAVCDC@@VCRect@@VCSize@@HAAH@Z
	DD	FLAT:?EnsureStdObj@CWnd@@UAEJXZ
	DD	FLAT:?get_accParent@CWnd@@UAEJPAPAUIDispatch@@@Z
	DD	FLAT:?get_accChildCount@CWnd@@UAEJPAJ@Z
	DD	FLAT:?get_accChild@CWnd@@UAEJUtagVARIANT@@PAPAUIDispatch@@@Z
	DD	FLAT:?get_accName@CWnd@@UAEJUtagVARIANT@@PAPA_W@Z
	DD	FLAT:?get_accValue@CWnd@@UAEJUtagVARIANT@@PAPA_W@Z
	DD	FLAT:?get_accDescription@CWnd@@UAEJUtagVARIANT@@PAPA_W@Z
	DD	FLAT:?get_accRole@CWnd@@UAEJUtagVARIANT@@PAU2@@Z
	DD	FLAT:?get_accState@CWnd@@UAEJUtagVARIANT@@PAU2@@Z
	DD	FLAT:?get_accHelp@CWnd@@UAEJUtagVARIANT@@PAPA_W@Z
	DD	FLAT:?get_accHelpTopic@CWnd@@UAEJPAPA_WUtagVARIANT@@PAJ@Z
	DD	FLAT:?get_accKeyboardShortcut@CWnd@@UAEJUtagVARIANT@@PAPA_W@Z
	DD	FLAT:?get_accFocus@CWnd@@UAEJPAUtagVARIANT@@@Z
	DD	FLAT:?get_accSelection@CWnd@@UAEJPAUtagVARIANT@@@Z
	DD	FLAT:?get_accDefaultAction@CWnd@@UAEJUtagVARIANT@@PAPA_W@Z
	DD	FLAT:?accSelect@CWnd@@UAEJJUtagVARIANT@@@Z
	DD	FLAT:?accLocation@CWnd@@UAEJPAJ000UtagVARIANT@@@Z
	DD	FLAT:?accNavigate@CWnd@@UAEJJUtagVARIANT@@PAU2@@Z
	DD	FLAT:?accHitTest@CWnd@@UAEJJJPAUtagVARIANT@@@Z
	DD	FLAT:?accDoDefaultAction@CWnd@@UAEJUtagVARIANT@@@Z
	DD	FLAT:?put_accName@CWnd@@UAEJUtagVARIANT@@PA_W@Z
	DD	FLAT:?put_accValue@CWnd@@UAEJUtagVARIANT@@PA_W@Z
	DD	FLAT:?SetProxy@CWnd@@UAEJPAUIAccessibleProxy@@@Z
	DD	FLAT:?CreateAccessibleProxy@CWnd@@UAEJIJPAJ@Z
	DD	FLAT:?OnCommand@CWnd@@MAEHIJ@Z
	DD	FLAT:?OnNotify@CWnd@@MAEHIJPAJ@Z
	DD	FLAT:?GetSuperWndProcAddr@CWnd@@MAEPAP6GJPAUHWND__@@IIJ@ZXZ
	DD	FLAT:?DoDataExchange@CLeftBarDlg@@MAEXPAVCDataExchange@@@Z
	DD	FLAT:?BeginModalState@CWnd@@UAEXXZ
	DD	FLAT:?EndModalState@CWnd@@UAEXXZ
	DD	FLAT:?PreTranslateMessage@CLeftBarDlg@@UAEHPAUtagMSG@@@Z
	DD	FLAT:?OnAmbientProperty@CWnd@@UAEHPAVCOleControlSite@@JPAUtagVARIANT@@@Z
	DD	FLAT:?WindowProc@CLeftBarDlg@@MAEJIIJ@Z
	DD	FLAT:?OnWndMsg@CWnd@@MAEHIIJPAJ@Z
	DD	FLAT:?DefWindowProcA@CWnd@@MAEJIIJ@Z
	DD	FLAT:?PostNcDestroy@CWnd@@MAEXXZ
	DD	FLAT:?OnChildNotify@CWnd@@MAEHIIJPAJ@Z
	DD	FLAT:?OnTouchInputs@CWnd@@MAEHIPAUtagTOUCHINPUT@@@Z
	DD	FLAT:?OnTouchInput@CWnd@@MAEHVCPoint@@HHPAUtagTOUCHINPUT@@@Z
	DD	FLAT:?GetGestureStatus@CWnd@@MAEKVCPoint@@@Z
	DD	FLAT:?OnGestureZoom@CWnd@@MAEHVCPoint@@J@Z
	DD	FLAT:?OnGesturePan@CWnd@@MAEHVCPoint@@0@Z
	DD	FLAT:?OnGestureRotate@CWnd@@MAEHVCPoint@@N@Z
	DD	FLAT:?OnGestureTwoFingerTap@CWnd@@MAEHVCPoint@@@Z
	DD	FLAT:?OnGesturePressAndTap@CWnd@@MAEHVCPoint@@J@Z
	DD	FLAT:?ResizeDynamicLayout@CWnd@@MAEXXZ
	DD	FLAT:?CheckAutoCenter@CDialog@@UAEHXZ
	DD	FLAT:?IsFrameWnd@CWnd@@UBEHXZ
	DD	FLAT:?CreateControlContainer@CWnd@@MAEHPAPAVCOleControlContainer@@@Z
	DD	FLAT:?CreateControlSite@CWnd@@MAEHPAVCOleControlContainer@@PAPAVCOleControlSite@@IABU_GUID@@@Z
	DD	FLAT:?SetOccDialogInfo@CDialog@@MAEHPAU_AFX_OCC_DIALOG_INFO@@@Z
	DD	FLAT:?GetOccDialogInfo@CDialog@@MAEPAU_AFX_OCC_DIALOG_INFO@@XZ
	DD	FLAT:?Create@CRscDlg@@UAEHIPAVCWnd@@@Z
	DD	FLAT:?Create@CDialog@@UAEHPBDPAVCWnd@@@Z
	DD	FLAT:?CreateIndirect@CDialog@@UAEHPAXPAVCWnd@@@Z
	DD	FLAT:?CreateIndirect@CDialog@@UAEHPBUDLGTEMPLATE@@PAVCWnd@@PAX@Z
	DD	FLAT:?DoModal@CRscDlg@@UAEHXZ
	DD	FLAT:?OnInitDialog@CLeftBarDlg@@MAEHXZ
	DD	FLAT:?OnSetFont@CDialog@@UAEXPAVCFont@@@Z
	DD	FLAT:?OnOK@CDialog@@MAEXXZ
	DD	FLAT:?OnCancel@CDialog@@MAEXXZ
	DD	FLAT:?PreInitDialog@CDialog@@MAEXXZ
	DD	FLAT:?ChangeSkinColor@CLeftBarDlg@@UAEXK@Z
	DD	FLAT:?SetBkColor@CRscDlg@@UAEXK@Z
CONST	ENDS
;	COMDAT ??_R2CDialog@@8
rdata$r	SEGMENT
??_R2CDialog@@8 DD FLAT:??_R1A@?0A@EA@CDialog@@8	; CDialog::`RTTI Base Class Array'
	DD	FLAT:??_R1A@?0A@EA@CWnd@@8
	DD	FLAT:??_R1A@?0A@EA@CCmdTarget@@8
	DD	FLAT:??_R1A@?0A@EA@CObject@@8
rdata$r	ENDS
;	COMDAT ??_R3CDialog@@8
rdata$r	SEGMENT
??_R3CDialog@@8 DD 00H					; CDialog::`RTTI Class Hierarchy Descriptor'
	DD	00H
	DD	04H
	DD	FLAT:??_R2CDialog@@8
rdata$r	ENDS
;	COMDAT ??_R0?AVCDialog@@@8
data$rs	SEGMENT
??_R0?AVCDialog@@@8 DD FLAT:??_7type_info@@6B@		; CDialog `RTTI Type Descriptor'
	DD	00H
	DB	'.?AVCDialog@@', 00H
data$rs	ENDS
;	COMDAT ??_R1A@?0A@EA@CDialog@@8
rdata$r	SEGMENT
??_R1A@?0A@EA@CDialog@@8 DD FLAT:??_R0?AVCDialog@@@8	; CDialog::`RTTI Base Class Descriptor at (0,-1,0,64)'
	DD	03H
	DD	00H
	DD	0ffffffffH
	DD	00H
	DD	040H
	DD	FLAT:??_R3CDialog@@8
rdata$r	ENDS
;	COMDAT ??_R2CCmdTarget@@8
rdata$r	SEGMENT
??_R2CCmdTarget@@8 DD FLAT:??_R1A@?0A@EA@CCmdTarget@@8	; CCmdTarget::`RTTI Base Class Array'
	DD	FLAT:??_R1A@?0A@EA@CObject@@8
rdata$r	ENDS
;	COMDAT ??_R3CCmdTarget@@8
rdata$r	SEGMENT
??_R3CCmdTarget@@8 DD 00H				; CCmdTarget::`RTTI Class Hierarchy Descriptor'
	DD	00H
	DD	02H
	DD	FLAT:??_R2CCmdTarget@@8
rdata$r	ENDS
;	COMDAT ??_R0?AVCCmdTarget@@@8
data$rs	SEGMENT
??_R0?AVCCmdTarget@@@8 DD FLAT:??_7type_info@@6B@	; CCmdTarget `RTTI Type Descriptor'
	DD	00H
	DB	'.?AVCCmdTarget@@', 00H
data$rs	ENDS
;	COMDAT ??_R1A@?0A@EA@CCmdTarget@@8
rdata$r	SEGMENT
??_R1A@?0A@EA@CCmdTarget@@8 DD FLAT:??_R0?AVCCmdTarget@@@8 ; CCmdTarget::`RTTI Base Class Descriptor at (0,-1,0,64)'
	DD	01H
	DD	00H
	DD	0ffffffffH
	DD	00H
	DD	040H
	DD	FLAT:??_R3CCmdTarget@@8
rdata$r	ENDS
;	COMDAT ??_R2CWnd@@8
rdata$r	SEGMENT
??_R2CWnd@@8 DD	FLAT:??_R1A@?0A@EA@CWnd@@8		; CWnd::`RTTI Base Class Array'
	DD	FLAT:??_R1A@?0A@EA@CCmdTarget@@8
	DD	FLAT:??_R1A@?0A@EA@CObject@@8
rdata$r	ENDS
;	COMDAT ??_R3CWnd@@8
rdata$r	SEGMENT
??_R3CWnd@@8 DD	00H					; CWnd::`RTTI Class Hierarchy Descriptor'
	DD	00H
	DD	03H
	DD	FLAT:??_R2CWnd@@8
rdata$r	ENDS
;	COMDAT ??_R0?AVCWnd@@@8
data$rs	SEGMENT
??_R0?AVCWnd@@@8 DD FLAT:??_7type_info@@6B@		; CWnd `RTTI Type Descriptor'
	DD	00H
	DB	'.?AVCWnd@@', 00H
data$rs	ENDS
;	COMDAT ??_R1A@?0A@EA@CWnd@@8
rdata$r	SEGMENT
??_R1A@?0A@EA@CWnd@@8 DD FLAT:??_R0?AVCWnd@@@8		; CWnd::`RTTI Base Class Descriptor at (0,-1,0,64)'
	DD	02H
	DD	00H
	DD	0ffffffffH
	DD	00H
	DD	040H
	DD	FLAT:??_R3CWnd@@8
rdata$r	ENDS
;	COMDAT ??_R1A@?0A@EA@CBrush@@8
rdata$r	SEGMENT
??_R1A@?0A@EA@CBrush@@8 DD FLAT:??_R0?AVCBrush@@@8	; CBrush::`RTTI Base Class Descriptor at (0,-1,0,64)'
	DD	02H
	DD	00H
	DD	0ffffffffH
	DD	00H
	DD	040H
	DD	FLAT:??_R3CBrush@@8
rdata$r	ENDS
;	COMDAT ??_R2CBrush@@8
rdata$r	SEGMENT
??_R2CBrush@@8 DD FLAT:??_R1A@?0A@EA@CBrush@@8		; CBrush::`RTTI Base Class Array'
	DD	FLAT:??_R1A@?0A@EA@CGdiObject@@8
	DD	FLAT:??_R1A@?0A@EA@CObject@@8
rdata$r	ENDS
;	COMDAT ??_R3CBrush@@8
rdata$r	SEGMENT
??_R3CBrush@@8 DD 00H					; CBrush::`RTTI Class Hierarchy Descriptor'
	DD	00H
	DD	03H
	DD	FLAT:??_R2CBrush@@8
rdata$r	ENDS
;	COMDAT ??_R0?AVCBrush@@@8
data$rs	SEGMENT
??_R0?AVCBrush@@@8 DD FLAT:??_7type_info@@6B@		; CBrush `RTTI Type Descriptor'
	DD	00H
	DB	'.?AVCBrush@@', 00H
data$rs	ENDS
;	COMDAT ??_R4CBrush@@6B@
rdata$r	SEGMENT
??_R4CBrush@@6B@ DD 00H					; CBrush::`RTTI Complete Object Locator'
	DD	00H
	DD	00H
	DD	FLAT:??_R0?AVCBrush@@@8
	DD	FLAT:??_R3CBrush@@8
rdata$r	ENDS
;	COMDAT ??_R1A@?0A@EA@CGdiObject@@8
rdata$r	SEGMENT
??_R1A@?0A@EA@CGdiObject@@8 DD FLAT:??_R0?AVCGdiObject@@@8 ; CGdiObject::`RTTI Base Class Descriptor at (0,-1,0,64)'
	DD	01H
	DD	00H
	DD	0ffffffffH
	DD	00H
	DD	040H
	DD	FLAT:??_R3CGdiObject@@8
rdata$r	ENDS
;	COMDAT ??_R2CGdiObject@@8
rdata$r	SEGMENT
??_R2CGdiObject@@8 DD FLAT:??_R1A@?0A@EA@CGdiObject@@8	; CGdiObject::`RTTI Base Class Array'
	DD	FLAT:??_R1A@?0A@EA@CObject@@8
rdata$r	ENDS
;	COMDAT ??_R3CGdiObject@@8
rdata$r	SEGMENT
??_R3CGdiObject@@8 DD 00H				; CGdiObject::`RTTI Class Hierarchy Descriptor'
	DD	00H
	DD	02H
	DD	FLAT:??_R2CGdiObject@@8
rdata$r	ENDS
;	COMDAT ??_R0?AVCGdiObject@@@8
data$rs	SEGMENT
??_R0?AVCGdiObject@@@8 DD FLAT:??_7type_info@@6B@	; CGdiObject `RTTI Type Descriptor'
	DD	00H
	DB	'.?AVCGdiObject@@', 00H
data$rs	ENDS
;	COMDAT ??_R4CGdiObject@@6B@
rdata$r	SEGMENT
??_R4CGdiObject@@6B@ DD 00H				; CGdiObject::`RTTI Complete Object Locator'
	DD	00H
	DD	00H
	DD	FLAT:??_R0?AVCGdiObject@@@8
	DD	FLAT:??_R3CGdiObject@@8
rdata$r	ENDS
;	COMDAT ??_R1A@?0A@EA@CObject@@8
rdata$r	SEGMENT
??_R1A@?0A@EA@CObject@@8 DD FLAT:??_R0?AVCObject@@@8	; CObject::`RTTI Base Class Descriptor at (0,-1,0,64)'
	DD	00H
	DD	00H
	DD	0ffffffffH
	DD	00H
	DD	040H
	DD	FLAT:??_R3CObject@@8
rdata$r	ENDS
;	COMDAT ??_R2CObject@@8
rdata$r	SEGMENT
??_R2CObject@@8 DD FLAT:??_R1A@?0A@EA@CObject@@8	; CObject::`RTTI Base Class Array'
rdata$r	ENDS
;	COMDAT ??_R3CObject@@8
rdata$r	SEGMENT
??_R3CObject@@8 DD 00H					; CObject::`RTTI Class Hierarchy Descriptor'
	DD	00H
	DD	01H
	DD	FLAT:??_R2CObject@@8
rdata$r	ENDS
;	COMDAT ??_R0?AVCObject@@@8
data$rs	SEGMENT
??_R0?AVCObject@@@8 DD FLAT:??_7type_info@@6B@		; CObject `RTTI Type Descriptor'
	DD	00H
	DB	'.?AVCObject@@', 00H
data$rs	ENDS
;	COMDAT ??_C@_0N@OMEMOKLE@?$CFTs?5?$CI?$CFTs?3?$CFd?$CJ@
CONST	SEGMENT
??_C@_0N@OMEMOKLE@?$CFTs?5?$CI?$CFTs?3?$CFd?$CJ@ DB '%Ts (%Ts:%d)', 00H ; `string'
CONST	ENDS
;	COMDAT ??_C@_0BB@HBOOMJBF@?$CFTs?5?$CI?$CFTs?3?$CFd?$CJ?6?$CFTs@
CONST	SEGMENT
??_C@_0BB@HBOOMJBF@?$CFTs?5?$CI?$CFTs?3?$CFd?$CJ?6?$CFTs@ DB '%Ts (%Ts:%d'
	DB	')', 0aH, '%Ts', 00H				; `string'
CONST	ENDS
;	COMDAT ??_C@_0BP@OIEOKIDM@Exception?5thrown?5in?5destructor@
CONST	SEGMENT
??_C@_0BP@OIEOKIDM@Exception?5thrown?5in?5destructor@ DB 'Exception throw'
	DB	'n in destructor', 00H			; `string'
CONST	ENDS
;	COMDAT ??_C@_0HD@JJCHHHNK@C?3?2Program?5Files?5?$CIx86?$CJ?2Microsof@
CONST	SEGMENT
??_C@_0HD@JJCHHHNK@C?3?2Program?5Files?5?$CIx86?$CJ?2Microsof@ DB 'C:\Pro'
	DB	'gram Files (x86)\Microsoft Visual Studio\2019\Community\VC\To'
	DB	'ols\MSVC\14.29.30133\atlmfc\include\afxwin1.inl', 00H ; `string'
CONST	ENDS
;	COMDAT ??_7CBrush@@6B@
CONST	SEGMENT
??_7CBrush@@6B@ DD FLAT:??_R4CBrush@@6B@		; CBrush::`vftable'
	DD	FLAT:?GetRuntimeClass@CBrush@@UBEPAUCRuntimeClass@@XZ
	DD	FLAT:??_ECBrush@@UAEPAXI@Z
	DD	FLAT:?Serialize@CObject@@UAEXAAVCArchive@@@Z
	DD	FLAT:?AssertValid@CObject@@UBEXXZ
	DD	FLAT:?Dump@CObject@@UBEXAAVCDumpContext@@@Z
CONST	ENDS
;	COMDAT ??_7CGdiObject@@6B@
CONST	SEGMENT
??_7CGdiObject@@6B@ DD FLAT:??_R4CGdiObject@@6B@	; CGdiObject::`vftable'
	DD	FLAT:?GetRuntimeClass@CGdiObject@@UBEPAUCRuntimeClass@@XZ
	DD	FLAT:??_ECGdiObject@@UAEPAXI@Z
	DD	FLAT:?Serialize@CObject@@UAEXAAVCArchive@@@Z
	DD	FLAT:?AssertValid@CObject@@UBEXXZ
	DD	FLAT:?Dump@CObject@@UBEXAAVCDumpContext@@@Z
CONST	ENDS
;	COMDAT ??_R0PAVCException@@@8
data$r	SEGMENT
??_R0PAVCException@@@8 DD FLAT:??_7type_info@@6B@	; CException * `RTTI Type Descriptor'
	DD	00H
	DB	'.PAVCException@@', 00H
data$r	ENDS
;	COMDAT xdata$x
xdata$x	SEGMENT
__unwindtable$?GetViewHandleForWndMapView@@YAXAAPAUHWND__@@AAH@Z DD 0ffffffffH
	DD	FLAT:__unwindfunclet$?GetViewHandleForWndMapView@@YAXAAPAUHWND__@@AAH@Z$0
__ehfuncinfo$?GetViewHandleForWndMapView@@YAXAAPAUHWND__@@AAH@Z DD 019930522H
	DD	01H
	DD	FLAT:__unwindtable$?GetViewHandleForWndMapView@@YAXAAPAUHWND__@@AAH@Z
	DD	2 DUP(00H)
	DD	2 DUP(00H)
	DD	00H
	DD	01H
xdata$x	ENDS
;	COMDAT xdata$x
xdata$x	SEGMENT
__unwindtable$?OnInitDialog@CLeftBarDlg@@MAEHXZ DD 0ffffffffH
	DD	FLAT:__unwindfunclet$?OnInitDialog@CLeftBarDlg@@MAEHXZ$0
	DD	00H
	DD	FLAT:__unwindfunclet$?OnInitDialog@CLeftBarDlg@@MAEHXZ$1
__ehfuncinfo$?OnInitDialog@CLeftBarDlg@@MAEHXZ DD 019930522H
	DD	02H
	DD	FLAT:__unwindtable$?OnInitDialog@CLeftBarDlg@@MAEHXZ
	DD	2 DUP(00H)
	DD	2 DUP(00H)
	DD	00H
	DD	01H
xdata$x	ENDS
;	COMDAT xdata$x
xdata$x	SEGMENT
__unwindtable$?SetPacketFromOutSide@CLeftBarDlg@@QAEXV?$CStringT@DV?$StrTraitMFC_DLL@DV?$ChTraitsCRT@D@ATL@@@@@ATL@@@Z DD 0ffffffffH
	DD	FLAT:__unwindfunclet$?SetPacketFromOutSide@CLeftBarDlg@@QAEXV?$CStringT@DV?$StrTraitMFC_DLL@DV?$ChTraitsCRT@D@ATL@@@@@ATL@@@Z$0
__ehfuncinfo$?SetPacketFromOutSide@CLeftBarDlg@@QAEXV?$CStringT@DV?$StrTraitMFC_DLL@DV?$ChTraitsCRT@D@ATL@@@@@ATL@@@Z DD 019930522H
	DD	01H
	DD	FLAT:__unwindtable$?SetPacketFromOutSide@CLeftBarDlg@@QAEXV?$CStringT@DV?$StrTraitMFC_DLL@DV?$ChTraitsCRT@D@ATL@@@@@ATL@@@Z
	DD	2 DUP(00H)
	DD	2 DUP(00H)
	DD	00H
	DD	01H
xdata$x	ENDS
;	COMDAT xdata$x
xdata$x	SEGMENT
__ehfuncinfo$??0CLeftBarDlg@@QAE@PAVCWnd@@@Z DD 019930522H
	DD	06H
	DD	FLAT:__unwindtable$??0CLeftBarDlg@@QAE@PAVCWnd@@@Z
	DD	2 DUP(00H)
	DD	2 DUP(00H)
	DD	00H
	DD	01H
__unwindtable$??0CLeftBarDlg@@QAE@PAVCWnd@@@Z DD 0ffffffffH
	DD	FLAT:__unwindfunclet$??0CLeftBarDlg@@QAE@PAVCWnd@@@Z$0
	DD	00H
	DD	FLAT:__unwindfunclet$??0CLeftBarDlg@@QAE@PAVCWnd@@@Z$1
	DD	01H
	DD	FLAT:__unwindfunclet$??0CLeftBarDlg@@QAE@PAVCWnd@@@Z$2
	DD	02H
	DD	FLAT:__unwindfunclet$??0CLeftBarDlg@@QAE@PAVCWnd@@@Z$3
	DD	03H
	DD	FLAT:__unwindfunclet$??0CLeftBarDlg@@QAE@PAVCWnd@@@Z$4
	DD	04H
	DD	FLAT:__unwindfunclet$??0CLeftBarDlg@@QAE@PAVCWnd@@@Z$5
xdata$x	ENDS
;	COMDAT xdata$x
xdata$x	SEGMENT
__catchsym$??1CGdiObject@@UAE@XZ$3 DD 00H
	DD	FLAT:??_R0PAVCException@@@8
	DD	0fffffde4H
	DD	FLAT:__catch$??1CGdiObject@@UAE@XZ$0
__tryblocktable$??1CGdiObject@@UAE@XZ DD 00H
	DD	00H
	DD	02H
	DD	01H
	DD	FLAT:__catchsym$??1CGdiObject@@UAE@XZ$3
__unwindtable$??1CGdiObject@@UAE@XZ DD 0ffffffffH
	DD	00H
	DD	0ffffffffH
	DD	00H
	DD	01H
	DD	FLAT:__unwindfunclet$??1CGdiObject@@UAE@XZ$2
__ehfuncinfo$??1CGdiObject@@UAE@XZ DD 019930522H
	DD	03H
	DD	FLAT:__unwindtable$??1CGdiObject@@UAE@XZ
	DD	01H
	DD	FLAT:__tryblocktable$??1CGdiObject@@UAE@XZ
	DD	2 DUP(00H)
	DD	00H
	DD	05H
xdata$x	ENDS
CRT$XCU	SEGMENT
?RMSG_CHARTMAIN$initializer$@@3P6AXXZA DD FLAT:??__ERMSG_CHARTMAIN@@YAXXZ ; RMSG_CHARTMAIN$initializer$
CRT$XCU	ENDS
CRT$XCU	SEGMENT
?RMS_ANALYSIS_FUNC$initializer$@@3P6AXXZA DD FLAT:??__ERMS_ANALYSIS_FUNC@@YAXXZ ; RMS_ANALYSIS_FUNC$initializer$
CRT$XCU	ENDS
CRT$XCU	SEGMENT
?RMSG_GET_USERID$initializer$@@3P6AXXZA DD FLAT:??__ERMSG_GET_USERID@@YAXXZ ; RMSG_GET_USERID$initializer$
CRT$XCU	ENDS
CRT$XCU	SEGMENT
?RMSG_KSDLLINFO$initializer$@@3P6AXXZA DD FLAT:??__ERMSG_KSDLLINFO@@YAXXZ ; RMSG_KSDLLINFO$initializer$
CRT$XCU	ENDS
CRT$XCU	SEGMENT
?RMSG_GETINFO$initializer$@@3P6AXXZA DD FLAT:??__ERMSG_GETINFO@@YAXXZ ; RMSG_GETINFO$initializer$
CRT$XCU	ENDS
CRT$XCU	SEGMENT
?RMSG_CHANGE_SKINCOLOR$initializer$@@3P6AXXZA DD FLAT:??__ERMSG_CHANGE_SKINCOLOR@@YAXXZ ; RMSG_CHANGE_SKINCOLOR$initializer$
CRT$XCU	ENDS
CRT$XCU	SEGMENT
?RMSG_GET_SKINCOLOR$initializer$@@3P6AXXZA DD FLAT:??__ERMSG_GET_SKINCOLOR@@YAXXZ ; RMSG_GET_SKINCOLOR$initializer$
CRT$XCU	ENDS
CRT$XCU	SEGMENT
?RMSG_CHANGE_CROSSLINE$initializer$@@3P6AXXZA DD FLAT:??__ERMSG_CHANGE_CROSSLINE@@YAXXZ ; RMSG_CHANGE_CROSSLINE$initializer$
CRT$XCU	ENDS
CRT$XCU	SEGMENT
?RMSG_REPLAY_REAL$initializer$@@3P6AXXZA DD FLAT:??__ERMSG_REPLAY_REAL@@YAXXZ ; RMSG_REPLAY_REAL$initializer$
CRT$XCU	ENDS
CRT$XCU	SEGMENT
?RMSG_REPLAY_FAIL$initializer$@@3P6AXXZA DD FLAT:??__ERMSG_REPLAY_FAIL@@YAXXZ ; RMSG_REPLAY_FAIL$initializer$
CRT$XCU	ENDS
CRT$XCU	SEGMENT
?RMSG_REPLAY_CHANGE_DATE$initializer$@@3P6AXXZA DD FLAT:??__ERMSG_REPLAY_CHANGE_DATE@@YAXXZ ; RMSG_REPLAY_CHANGE_DATE$initializer$
CRT$XCU	ENDS
CRT$XCU	SEGMENT
?RMSG_REPLAY_END$initializer$@@3P6AXXZA DD FLAT:??__ERMSG_REPLAY_END@@YAXXZ ; RMSG_REPLAY_END$initializer$
CRT$XCU	ENDS
CRT$XCU	SEGMENT
?RMSG_REPLAY_INC_SEC$initializer$@@3P6AXXZA DD FLAT:??__ERMSG_REPLAY_INC_SEC@@YAXXZ ; RMSG_REPLAY_INC_SEC$initializer$
CRT$XCU	ENDS
CRT$XCU	SEGMENT
?RMSG_REPLAY_TOTAL_SEC$initializer$@@3P6AXXZA DD FLAT:??__ERMSG_REPLAY_TOTAL_SEC@@YAXXZ ; RMSG_REPLAY_TOTAL_SEC$initializer$
CRT$XCU	ENDS
CRT$XCU	SEGMENT
?RMSG_SELCHARTCODE$initializer$@@3P6AXXZA DD FLAT:??__ERMSG_SELCHARTCODE@@YAXXZ ; RMSG_SELCHARTCODE$initializer$
CRT$XCU	ENDS
; Function compile flags: /Ogtp
; File D:\git\src\IBK\IBK_DRFN\ProjSrc\SrcDrfn\Chart\comparechart\LeftBarDlg.cpp
;	COMDAT ?GetViewHandleForWndMapView@@YAXAAPAUHWND__@@AAH@Z
_TEXT	SEGMENT
_hTemp15$1$ = -16					; size = 4
__$EHRec$ = -12						; size = 12
_strTitle$2 = 8						; size = 4
_rHParentView$ = 8					; size = 4
_rBUseSetTR$ = 12					; size = 4
?GetViewHandleForWndMapView@@YAXAAPAUHWND__@@AAH@Z PROC	; GetViewHandleForWndMapView, COMDAT

; 26   : {

  00000	55		 push	 ebp
  00001	8b ec		 mov	 ebp, esp
  00003	6a ff		 push	 -1
  00005	68 00 00 00 00	 push	 __ehhandler$?GetViewHandleForWndMapView@@YAXAAPAUHWND__@@AAH@Z
  0000a	64 a1 00 00 00
	00		 mov	 eax, DWORD PTR fs:0
  00010	50		 push	 eax
  00011	51		 push	 ecx
  00012	53		 push	 ebx
  00013	56		 push	 esi
  00014	57		 push	 edi
  00015	a1 00 00 00 00	 mov	 eax, DWORD PTR ___security_cookie
  0001a	33 c5		 xor	 eax, ebp
  0001c	50		 push	 eax
  0001d	8d 45 f4	 lea	 eax, DWORD PTR __$EHRec$[ebp]
  00020	64 a3 00 00 00
	00		 mov	 DWORD PTR fs:0, eax

; 27   : 	HWND hTemp11 = rHParentView; // view handle when 9001,9000.....

  00026	8b 7d 08	 mov	 edi, DWORD PTR _rHParentView$[ebp]

; 28   : 	HWND hTemp12 = ::GetParent(hTemp11);

  00029	8b 35 00 00 00
	00		 mov	 esi, DWORD PTR __imp__GetParent@4
  0002f	8b 1f		 mov	 ebx, DWORD PTR [edi]
  00031	53		 push	 ebx
  00032	ff d6		 call	 esi

; 29   : 	HWND hTemp13 = ::GetParent(hTemp12);

  00034	50		 push	 eax
  00035	ff d6		 call	 esi

; 30   : 	HWND hTemp14 = ::GetParent(hTemp13);

  00037	50		 push	 eax
  00038	ff d6		 call	 esi

; 31   : 	HWND hTemp15 = ::GetParent(hTemp14);	// view handle when 9020

  0003a	50		 push	 eax
  0003b	ff d6		 call	 esi

; 32   : 	HWND hTemp16 = ::GetParent(hTemp15);	// view handle when 9020

  0003d	50		 push	 eax
  0003e	89 45 f0	 mov	 DWORD PTR _hTemp15$1$[ebp], eax
  00041	ff d6		 call	 esi
  00043	8b f0		 mov	 esi, eax

; 33   : 	if(hTemp16)

  00045	85 f6		 test	 esi, esi
  00047	74 67		 je	 SHORT $LN6@GetViewHan

; 34   : 	{
; 35   : 		CString strTitle;

  00049	8d 4d 08	 lea	 ecx, DWORD PTR _strTitle$2[ebp]
  0004c	ff 15 00 00 00
	00		 call	 DWORD PTR __imp_??0?$CStringT@DV?$StrTraitMFC_DLL@DV?$ChTraitsCRT@D@ATL@@@@@ATL@@QAE@XZ

; 36   : 		CWnd *pWnd = CWnd::FromHandle(hTemp16);

  00052	56		 push	 esi
  00053	c7 45 fc 00 00
	00 00		 mov	 DWORD PTR __$EHRec$[ebp+8], 0
  0005a	e8 00 00 00 00	 call	 ?FromHandle@CWnd@@SGPAV1@PAUHWND__@@@Z ; CWnd::FromHandle

; 37   : 		pWnd->GetWindowText(strTitle);

  0005f	8d 4d 08	 lea	 ecx, DWORD PTR _strTitle$2[ebp]
  00062	51		 push	 ecx
  00063	8b c8		 mov	 ecx, eax
  00065	e8 00 00 00 00	 call	 ?GetWindowTextA@CWnd@@QBEXAAV?$CStringT@DV?$StrTraitMFC_DLL@DV?$ChTraitsCRT@D@ATL@@@@@ATL@@@Z ; CWnd::GetWindowTextA

; 38   : 		if(strTitle.Find("9020")!=-1)

  0006a	6a 00		 push	 0
  0006c	68 00 00 00 00	 push	 OFFSET ??_C@_04JNGOCNLJ@9020@
  00071	8d 4d 08	 lea	 ecx, DWORD PTR _strTitle$2[ebp]
  00074	ff 15 00 00 00
	00		 call	 DWORD PTR __imp_?Find@?$CStringT@DV?$StrTraitMFC_DLL@DV?$ChTraitsCRT@D@ATL@@@@@ATL@@QBEHPBDH@Z
  0007a	8b 75 0c	 mov	 esi, DWORD PTR _rBUseSetTR$[ebp]
  0007d	83 f8 ff	 cmp	 eax, -1
  00080	74 0b		 je	 SHORT $LN3@GetViewHan

; 39   : 		{
; 40   : 			rHParentView =  hTemp15;

  00082	8b 45 f0	 mov	 eax, DWORD PTR _hTemp15$1$[ebp]
  00085	89 07		 mov	 DWORD PTR [edi], eax

; 41   : 			rBUseSetTR = TRUE;

  00087	c7 06 01 00 00
	00		 mov	 DWORD PTR [esi], 1
$LN3@GetViewHan:

; 42   : 		}		
; 43   : 	}

  0008d	8d 4d 08	 lea	 ecx, DWORD PTR _strTitle$2[ebp]
  00090	ff 15 00 00 00
	00		 call	 DWORD PTR __imp_??1?$CStringT@DV?$StrTraitMFC_DLL@DV?$ChTraitsCRT@D@ATL@@@@@ATL@@QAE@XZ

; 44   : 	rHParentView = hTemp11;

  00096	89 1f		 mov	 DWORD PTR [edi], ebx

; 45   : 	rBUseSetTR = FALSE;

  00098	c7 06 00 00 00
	00		 mov	 DWORD PTR [esi], 0

; 46   : }

  0009e	8b 4d f4	 mov	 ecx, DWORD PTR __$EHRec$[ebp]
  000a1	64 89 0d 00 00
	00 00		 mov	 DWORD PTR fs:0, ecx
  000a8	59		 pop	 ecx
  000a9	5f		 pop	 edi
  000aa	5e		 pop	 esi
  000ab	5b		 pop	 ebx
  000ac	8b e5		 mov	 esp, ebp
  000ae	5d		 pop	 ebp
  000af	c3		 ret	 0
$LN6@GetViewHan:

; 45   : 	rBUseSetTR = FALSE;

  000b0	8b 45 0c	 mov	 eax, DWORD PTR _rBUseSetTR$[ebp]
  000b3	89 1f		 mov	 DWORD PTR [edi], ebx
  000b5	c7 00 00 00 00
	00		 mov	 DWORD PTR [eax], 0

; 46   : }

  000bb	8b 4d f4	 mov	 ecx, DWORD PTR __$EHRec$[ebp]
  000be	64 89 0d 00 00
	00 00		 mov	 DWORD PTR fs:0, ecx
  000c5	59		 pop	 ecx
  000c6	5f		 pop	 edi
  000c7	5e		 pop	 esi
  000c8	5b		 pop	 ebx
  000c9	8b e5		 mov	 esp, ebp
  000cb	5d		 pop	 ebp
  000cc	c3		 ret	 0
_TEXT	ENDS
;	COMDAT text$x
text$x	SEGMENT
__unwindfunclet$?GetViewHandleForWndMapView@@YAXAAPAUHWND__@@AAH@Z$0:
  00000	8d 4d 08	 lea	 ecx, DWORD PTR _strTitle$2[ebp]
  00003	ff 25 00 00 00
	00		 jmp	 DWORD PTR __imp_??1?$CStringT@DV?$StrTraitMFC_DLL@DV?$ChTraitsCRT@D@ATL@@@@@ATL@@QAE@XZ
  00009	cc		 int	 3
  0000a	cc		 int	 3
  0000b	cc		 int	 3
  0000c	cc		 int	 3
  0000d	cc		 int	 3
__ehhandler$?GetViewHandleForWndMapView@@YAXAAPAUHWND__@@AAH@Z:
  0000e	90		 npad	 1
  0000f	90		 npad	 1
  00010	8b 54 24 08	 mov	 edx, DWORD PTR [esp+8]
  00014	8d 42 0c	 lea	 eax, DWORD PTR [edx+12]
  00017	8b 4a ec	 mov	 ecx, DWORD PTR [edx-20]
  0001a	33 c8		 xor	 ecx, eax
  0001c	e8 00 00 00 00	 call	 @__security_check_cookie@4
  00021	b8 00 00 00 00	 mov	 eax, OFFSET __ehfuncinfo$?GetViewHandleForWndMapView@@YAXAAPAUHWND__@@AAH@Z
  00026	e9 00 00 00 00	 jmp	 ___CxxFrameHandler3
text$x	ENDS
?GetViewHandleForWndMapView@@YAXAAPAUHWND__@@AAH@Z ENDP	; GetViewHandleForWndMapView
; Function compile flags: /Ogtp
; File D:\git\src\IBK\IBK_DRFN\ProjSrc\SrcDrfn\Chart\comparechart\StdDialog.h
;	COMDAT ??__ERMSG_SELCHARTCODE@@YAXXZ
text$di	SEGMENT
??__ERMSG_SELCHARTCODE@@YAXXZ PROC			; `dynamic initializer for 'RMSG_SELCHARTCODE'', COMDAT

; 73   : const UINT RMSG_SELCHARTCODE = ::RegisterWindowMessage( "RMSG_SELCHARTCODE" );

  00000	68 00 00 00 00	 push	 OFFSET ??_C@_0BC@LHNMEPFM@RMSG_SELCHARTCODE@
  00005	ff 15 00 00 00
	00		 call	 DWORD PTR __imp__RegisterWindowMessageA@4
  0000b	a3 00 00 00 00	 mov	 DWORD PTR ?RMSG_SELCHARTCODE@@3IB, eax
  00010	c3		 ret	 0
??__ERMSG_SELCHARTCODE@@YAXXZ ENDP			; `dynamic initializer for 'RMSG_SELCHARTCODE''
text$di	ENDS
; Function compile flags: /Ogtp
; File D:\git\src\IBK\IBK_DRFN\ProjSrc\SrcDrfn\Chart\chart_common\ReplayChartInfoDef.h
;	COMDAT ??__ERMSG_REPLAY_TOTAL_SEC@@YAXXZ
text$di	SEGMENT
??__ERMSG_REPLAY_TOTAL_SEC@@YAXXZ PROC			; `dynamic initializer for 'RMSG_REPLAY_TOTAL_SEC'', COMDAT

; 97   : 	const UINT RMSG_REPLAY_TOTAL_SEC = ::RegisterWindowMessage(_T("RMSG_REPLAY_TOTAL_SEC"));		// 전체 시간(초단위)를 전송

  00000	68 00 00 00 00	 push	 OFFSET ??_C@_0BG@GIAJEIJF@RMSG_REPLAY_TOTAL_SEC@
  00005	ff 15 00 00 00
	00		 call	 DWORD PTR __imp__RegisterWindowMessageA@4
  0000b	a3 00 00 00 00	 mov	 DWORD PTR ?RMSG_REPLAY_TOTAL_SEC@@3IB, eax
  00010	c3		 ret	 0
??__ERMSG_REPLAY_TOTAL_SEC@@YAXXZ ENDP			; `dynamic initializer for 'RMSG_REPLAY_TOTAL_SEC''
text$di	ENDS
; Function compile flags: /Ogtp
; File D:\git\src\IBK\IBK_DRFN\ProjSrc\SrcDrfn\Chart\chart_common\ReplayChartInfoDef.h
;	COMDAT ??__ERMSG_REPLAY_INC_SEC@@YAXXZ
text$di	SEGMENT
??__ERMSG_REPLAY_INC_SEC@@YAXXZ PROC			; `dynamic initializer for 'RMSG_REPLAY_INC_SEC'', COMDAT

; 96   : 	const UINT RMSG_REPLAY_INC_SEC = ::RegisterWindowMessage(_T("RMSG_REPLAY_INC_SEC"));			// 1초가 증가 될때마다 전송

  00000	68 00 00 00 00	 push	 OFFSET ??_C@_0BE@JFCIMCIP@RMSG_REPLAY_INC_SEC@
  00005	ff 15 00 00 00
	00		 call	 DWORD PTR __imp__RegisterWindowMessageA@4
  0000b	a3 00 00 00 00	 mov	 DWORD PTR ?RMSG_REPLAY_INC_SEC@@3IB, eax
  00010	c3		 ret	 0
??__ERMSG_REPLAY_INC_SEC@@YAXXZ ENDP			; `dynamic initializer for 'RMSG_REPLAY_INC_SEC''
text$di	ENDS
; Function compile flags: /Ogtp
; File D:\git\src\IBK\IBK_DRFN\ProjSrc\SrcDrfn\Chart\chart_common\ReplayChartInfoDef.h
;	COMDAT ??__ERMSG_REPLAY_END@@YAXXZ
text$di	SEGMENT
??__ERMSG_REPLAY_END@@YAXXZ PROC			; `dynamic initializer for 'RMSG_REPLAY_END'', COMDAT

; 95   : 	const UINT RMSG_REPLAY_END			= ::RegisterWindowMessage(_T("RMSG_REPLAY_END"));

  00000	68 00 00 00 00	 push	 OFFSET ??_C@_0BA@NKHHCPON@RMSG_REPLAY_END@
  00005	ff 15 00 00 00
	00		 call	 DWORD PTR __imp__RegisterWindowMessageA@4
  0000b	a3 00 00 00 00	 mov	 DWORD PTR ?RMSG_REPLAY_END@@3IB, eax
  00010	c3		 ret	 0
??__ERMSG_REPLAY_END@@YAXXZ ENDP			; `dynamic initializer for 'RMSG_REPLAY_END''
text$di	ENDS
; Function compile flags: /Ogtp
; File D:\git\src\IBK\IBK_DRFN\ProjSrc\SrcDrfn\Chart\chart_common\ReplayChartInfoDef.h
;	COMDAT ??__ERMSG_REPLAY_CHANGE_DATE@@YAXXZ
text$di	SEGMENT
??__ERMSG_REPLAY_CHANGE_DATE@@YAXXZ PROC		; `dynamic initializer for 'RMSG_REPLAY_CHANGE_DATE'', COMDAT

; 94   : 	const UINT RMSG_REPLAY_CHANGE_DATE	= ::RegisterWindowMessage(_T("RMSG_REPLAY_CHANGE_DATE"));

  00000	68 00 00 00 00	 push	 OFFSET ??_C@_0BI@KDGAIIMD@RMSG_REPLAY_CHANGE_DATE@
  00005	ff 15 00 00 00
	00		 call	 DWORD PTR __imp__RegisterWindowMessageA@4
  0000b	a3 00 00 00 00	 mov	 DWORD PTR ?RMSG_REPLAY_CHANGE_DATE@@3IB, eax
  00010	c3		 ret	 0
??__ERMSG_REPLAY_CHANGE_DATE@@YAXXZ ENDP		; `dynamic initializer for 'RMSG_REPLAY_CHANGE_DATE''
text$di	ENDS
; Function compile flags: /Ogtp
; File D:\git\src\IBK\IBK_DRFN\ProjSrc\SrcDrfn\Chart\chart_common\ReplayChartInfoDef.h
;	COMDAT ??__ERMSG_REPLAY_FAIL@@YAXXZ
text$di	SEGMENT
??__ERMSG_REPLAY_FAIL@@YAXXZ PROC			; `dynamic initializer for 'RMSG_REPLAY_FAIL'', COMDAT

; 93   : 	const UINT RMSG_REPLAY_FAIL			= ::RegisterWindowMessage(_T("RMSG_REPLAY_FAIL"));

  00000	68 00 00 00 00	 push	 OFFSET ??_C@_0BB@JFLGBADG@RMSG_REPLAY_FAIL@
  00005	ff 15 00 00 00
	00		 call	 DWORD PTR __imp__RegisterWindowMessageA@4
  0000b	a3 00 00 00 00	 mov	 DWORD PTR ?RMSG_REPLAY_FAIL@@3IB, eax
  00010	c3		 ret	 0
??__ERMSG_REPLAY_FAIL@@YAXXZ ENDP			; `dynamic initializer for 'RMSG_REPLAY_FAIL''
text$di	ENDS
; Function compile flags: /Ogtp
; File D:\git\src\IBK\IBK_DRFN\ProjSrc\SrcDrfn\Chart\chart_common\ReplayChartInfoDef.h
;	COMDAT ??__ERMSG_REPLAY_REAL@@YAXXZ
text$di	SEGMENT
??__ERMSG_REPLAY_REAL@@YAXXZ PROC			; `dynamic initializer for 'RMSG_REPLAY_REAL'', COMDAT

; 92   : 	const UINT RMSG_REPLAY_REAL			= ::RegisterWindowMessage(_T("RMSG_REPLAY_REAL"));

  00000	68 00 00 00 00	 push	 OFFSET ??_C@_0BB@IBKHOHJL@RMSG_REPLAY_REAL@
  00005	ff 15 00 00 00
	00		 call	 DWORD PTR __imp__RegisterWindowMessageA@4
  0000b	a3 00 00 00 00	 mov	 DWORD PTR ?RMSG_REPLAY_REAL@@3IB, eax
  00010	c3		 ret	 0
??__ERMSG_REPLAY_REAL@@YAXXZ ENDP			; `dynamic initializer for 'RMSG_REPLAY_REAL''
text$di	ENDS
; Function compile flags: /Ogtp
; File C:\Program Files (x86)\Microsoft Visual Studio\2019\Community\VC\Tools\MSVC\14.29.30133\atlmfc\include\afxwin1.inl
; File C:\Program Files (x86)\Microsoft Visual Studio\2019\Community\VC\Tools\MSVC\14.29.30133\atlmfc\include\afx.inl
;	COMDAT ??_GCLeftBarDlg@@UAEPAXI@Z
_TEXT	SEGMENT
___flags$ = 8						; size = 4
??_GCLeftBarDlg@@UAEPAXI@Z PROC				; CLeftBarDlg::`scalar deleting destructor', COMDAT
; _this$ = ecx
  00000	55		 push	 ebp
  00001	8b ec		 mov	 ebp, esp
; File C:\Program Files (x86)\Microsoft Visual Studio\2019\Community\VC\Tools\MSVC\14.29.30133\atlmfc\include\afxwin1.inl

; 130  : 	{ }

  00003	56		 push	 esi
  00004	8b f1		 mov	 esi, ecx
  00006	8d 8e 34 09 00
	00		 lea	 ecx, DWORD PTR [esi+2356]
  0000c	ff 15 00 00 00
	00		 call	 DWORD PTR __imp_??1?$CStringT@DV?$StrTraitMFC_DLL@DV?$ChTraitsCRT@D@ATL@@@@@ATL@@QAE@XZ
  00012	8d 8e 0c 09 00
	00		 lea	 ecx, DWORD PTR [esi+2316]
  00018	e8 00 00 00 00	 call	 ??1CStringList@@UAE@XZ	; CStringList::~CStringList
  0001d	8d 8e 08 09 00
	00		 lea	 ecx, DWORD PTR [esi+2312]
  00023	ff 15 00 00 00
	00		 call	 DWORD PTR __imp_??1?$CStringT@DV?$StrTraitMFC_DLL@DV?$ChTraitsCRT@D@ATL@@@@@ATL@@QAE@XZ
  00029	8d 8e 04 09 00
	00		 lea	 ecx, DWORD PTR [esi+2308]
  0002f	ff 15 00 00 00
	00		 call	 DWORD PTR __imp_??1?$CStringT@DV?$StrTraitMFC_DLL@DV?$ChTraitsCRT@D@ATL@@@@@ATL@@QAE@XZ
  00035	8d 8e 00 09 00
	00		 lea	 ecx, DWORD PTR [esi+2304]
  0003b	ff 15 00 00 00
	00		 call	 DWORD PTR __imp_??1?$CStringT@DV?$StrTraitMFC_DLL@DV?$ChTraitsCRT@D@ATL@@@@@ATL@@QAE@XZ
  00041	8d 8e e8 07 00
	00		 lea	 ecx, DWORD PTR [esi+2024]
  00047	e8 00 00 00 00	 call	 ??1CXTabCtrl@@UAE@XZ	; CXTabCtrl::~CXTabCtrl
  0004c	8d 8e b8 00 00
	00		 lea	 ecx, DWORD PTR [esi+184]
  00052	e8 00 00 00 00	 call	 ??1CUsrAddListDlg@@UAE@XZ
  00057	8d 8e a8 00 00
	00		 lea	 ecx, DWORD PTR [esi+168]
  0005d	c7 01 00 00 00
	00		 mov	 DWORD PTR [ecx], OFFSET ??_7CBrush@@6B@
  00063	e8 00 00 00 00	 call	 ??1CGdiObject@@UAE@XZ	; CGdiObject::~CGdiObject
  00068	8b ce		 mov	 ecx, esi
  0006a	e8 00 00 00 00	 call	 ??1CDialog@@UAE@XZ	; CDialog::~CDialog
  0006f	8b 45 08	 mov	 eax, DWORD PTR ___flags$[ebp]
  00072	a8 01		 test	 al, 1
  00074	74 22		 je	 SHORT $LN18@scalar
  00076	a8 04		 test	 al, 4
  00078	75 10		 jne	 SHORT $LN3@scalar
; File C:\Program Files (x86)\Microsoft Visual Studio\2019\Community\VC\Tools\MSVC\14.29.30133\atlmfc\include\afx.inl

; 112  : 	{ ::operator delete(p); }

  0007a	56		 push	 esi
  0007b	e8 00 00 00 00	 call	 ??3@YAXPAX@Z		; operator delete
  00080	83 c4 04	 add	 esp, 4
  00083	8b c6		 mov	 eax, esi
  00085	5e		 pop	 esi
  00086	5d		 pop	 ebp
  00087	c2 04 00	 ret	 4
$LN3@scalar:
  0008a	68 40 09 00 00	 push	 2368			; 00000940H
  0008f	56		 push	 esi
  00090	e8 00 00 00 00	 call	 ?__global_delete@@YAXPAXI@Z ; __global_delete
  00095	83 c4 08	 add	 esp, 8
$LN18@scalar:
  00098	8b c6		 mov	 eax, esi
  0009a	5e		 pop	 esi
  0009b	5d		 pop	 ebp
  0009c	c2 04 00	 ret	 4
??_GCLeftBarDlg@@UAEPAXI@Z ENDP				; CLeftBarDlg::`scalar deleting destructor'
_TEXT	ENDS
; Function compile flags: /Ogtp
; File D:\git\src\IBK\IBK_DRFN\ProjSrc\SrcDrfn\Chart\comparechart\LeftBarDlg.cpp
;	COMDAT ?GetMessageMap@CLeftBarDlg@@MBEPBUAFX_MSGMAP@@XZ
_TEXT	SEGMENT
?GetMessageMap@CLeftBarDlg@@MBEPBUAFX_MSGMAP@@XZ PROC	; CLeftBarDlg::GetMessageMap, COMDAT
; _this$ = ecx

; 82   : BEGIN_MESSAGE_MAP(CLeftBarDlg, CRscDlg)

  00000	b8 00 00 00 00	 mov	 eax, OFFSET ?messageMap@?1??GetThisMessageMap@CLeftBarDlg@@KGPBUAFX_MSGMAP@@XZ@4U3@B
  00005	c3		 ret	 0
?GetMessageMap@CLeftBarDlg@@MBEPBUAFX_MSGMAP@@XZ ENDP	; CLeftBarDlg::GetMessageMap
_TEXT	ENDS
; Function compile flags: /Ogtp
; File D:\git\src\IBK\IBK_DRFN\ProjSrc\SrcDrfn\Chart\comparechart\LeftBarDlg.cpp
;	COMDAT ?GetThisMessageMap@CLeftBarDlg@@KGPBUAFX_MSGMAP@@XZ
_TEXT	SEGMENT
?GetThisMessageMap@CLeftBarDlg@@KGPBUAFX_MSGMAP@@XZ PROC ; CLeftBarDlg::GetThisMessageMap, COMDAT

; 83   : 	//{{AFX_MSG_MAP(CLeftBarDlg)
; 84   : 	ON_WM_SIZE()
; 85   : 	ON_WM_DESTROY()
; 86   : 	ON_WM_TIMER()
; 87   : 	ON_NOTIFY(TCN_SELCHANGE, IDC_TAB, OnSelchangeTab)
; 88   : 	ON_WM_PAINT()
; 89   : //	ON_BN_CLICKED(IDC_BTHIDECHART, OnBthidechart)
; 90   : 	//}}AFX_MSG_MAP
; 91   : END_MESSAGE_MAP()

  00000	b8 00 00 00 00	 mov	 eax, OFFSET ?messageMap@?1??GetThisMessageMap@CLeftBarDlg@@KGPBUAFX_MSGMAP@@XZ@4U3@B
  00005	c3		 ret	 0
?GetThisMessageMap@CLeftBarDlg@@KGPBUAFX_MSGMAP@@XZ ENDP ; CLeftBarDlg::GetThisMessageMap
_TEXT	ENDS
; Function compile flags: /Ogtp
; File D:\git\src\IBK\IBK_DRFN\ProjSrc\SrcDrfn\Chart\comparechart\LeftBarDlg.cpp
;	COMDAT ?OnPaint@CLeftBarDlg@@IAEXXZ
_TEXT	SEGMENT
?OnPaint@CLeftBarDlg@@IAEXXZ PROC			; CLeftBarDlg::OnPaint, COMDAT
; _this$ = ecx

; 574  : //	CPaintDC dc(this); // device context for painting
; 575  : //	CRect rcClient;
; 576  : //	GetClientRect(&rcClient);
; 577  : //	rcClient.bottom = rcClient.top + 2;
; 578  : //	dc.FillSolidRect(rcClient, RGB(255,255,255));
; 579  : 	CRscDlg::OnPaint();

  00000	e9 00 00 00 00	 jmp	 ?OnPaint@CDialog@@IAEXXZ ; CDialog::OnPaint
?OnPaint@CLeftBarDlg@@IAEXXZ ENDP			; CLeftBarDlg::OnPaint
_TEXT	ENDS
; Function compile flags: /Ogtp
; File D:\git\src\IBK\IBK_DRFN\ProjSrc\SrcDrfn\Chart\comparechart\LeftBarDlg.cpp
; File C:\Program Files (x86)\Microsoft Visual Studio\2019\Community\VC\Tools\MSVC\14.29.30133\atlmfc\include\afxcmn.inl
; File D:\git\src\IBK\IBK_DRFN\ProjSrc\SrcDrfn\Chart\comparechart\LeftBarDlg.cpp
; File C:\Program Files (x86)\Microsoft Visual Studio\2019\Community\VC\Tools\MSVC\14.29.30133\atlmfc\include\afxcmn.inl
; File C:\Program Files (x86)\Microsoft Visual Studio\2019\Community\VC\Tools\MSVC\14.29.30133\atlmfc\include\afxwin2.inl
; File D:\git\src\IBK\IBK_DRFN\ProjSrc\SrcDrfn\Chart\comparechart\LeftBarDlg.cpp
; File C:\Program Files (x86)\Microsoft Visual Studio\2019\Community\VC\Tools\MSVC\14.29.30133\atlmfc\include\afxwin2.inl
; File D:\git\src\IBK\IBK_DRFN\ProjSrc\SrcDrfn\Chart\comparechart\LeftBarDlg.cpp
;	COMDAT ?OnSelchangeTab@CLeftBarDlg@@IAEXPAUtagNMHDR@@PAJ@Z
_TEXT	SEGMENT
_pNMHDR$ = 8						; size = 4
_pResult$ = 12						; size = 4
?OnSelchangeTab@CLeftBarDlg@@IAEXPAUtagNMHDR@@PAJ@Z PROC ; CLeftBarDlg::OnSelchangeTab, COMDAT
; _this$ = ecx

; 556  : {

  00000	55		 push	 ebp
  00001	8b ec		 mov	 ebp, esp
  00003	56		 push	 esi
  00004	57		 push	 edi
; File C:\Program Files (x86)\Microsoft Visual Studio\2019\Community\VC\Tools\MSVC\14.29.30133\atlmfc\include\afxcmn.inl

; 586  : 	{ ASSERT(::IsWindow(m_hWnd)); return (int)::SendMessage(m_hWnd, TCM_GETCURSEL, 0, 0L); }

  00005	6a 00		 push	 0
; File D:\git\src\IBK\IBK_DRFN\ProjSrc\SrcDrfn\Chart\comparechart\LeftBarDlg.cpp

; 556  : {

  00007	8b f9		 mov	 edi, ecx
; File C:\Program Files (x86)\Microsoft Visual Studio\2019\Community\VC\Tools\MSVC\14.29.30133\atlmfc\include\afxcmn.inl

; 586  : 	{ ASSERT(::IsWindow(m_hWnd)); return (int)::SendMessage(m_hWnd, TCM_GETCURSEL, 0, 0L); }

  00009	6a 00		 push	 0
  0000b	68 0b 13 00 00	 push	 4875			; 0000130bH
  00010	ff b7 08 08 00
	00		 push	 DWORD PTR [edi+2056]
  00016	ff 15 00 00 00
	00		 call	 DWORD PTR __imp__SendMessageA@16
; File C:\Program Files (x86)\Microsoft Visual Studio\2019\Community\VC\Tools\MSVC\14.29.30133\atlmfc\include\afxwin2.inl

; 213  : 	{ ASSERT(::IsWindow(m_hWnd)); return CWnd::FromHandle(::GetParent(m_hWnd)); }

  0001c	ff 77 20	 push	 DWORD PTR [edi+32]
; File D:\git\src\IBK\IBK_DRFN\ProjSrc\SrcDrfn\Chart\comparechart\LeftBarDlg.cpp

; 558  : 	int iNewTab = m_tabctrl.GetCurSel();	

  0001f	8b f0		 mov	 esi, eax
; File C:\Program Files (x86)\Microsoft Visual Studio\2019\Community\VC\Tools\MSVC\14.29.30133\atlmfc\include\afxwin2.inl

; 213  : 	{ ASSERT(::IsWindow(m_hWnd)); return CWnd::FromHandle(::GetParent(m_hWnd)); }

  00021	ff 15 00 00 00
	00		 call	 DWORD PTR __imp__GetParent@4
  00027	50		 push	 eax
  00028	e8 00 00 00 00	 call	 ?FromHandle@CWnd@@SGPAV1@PAUHWND__@@@Z ; CWnd::FromHandle

; 32   : 	{ ASSERT(::IsWindow(m_hWnd)); return ::SendMessage(m_hWnd, message, wParam, lParam); }

  0002d	56		 push	 esi
  0002e	6a 00		 push	 0
  00030	68 b9 04 00 00	 push	 1209			; 000004b9H
  00035	ff 70 20	 push	 DWORD PTR [eax+32]
  00038	ff 15 00 00 00
	00		 call	 DWORD PTR __imp__SendMessageA@16
; File D:\git\src\IBK\IBK_DRFN\ProjSrc\SrcDrfn\Chart\comparechart\LeftBarDlg.cpp

; 560  : 	*pResult = 0;

  0003e	8b 45 0c	 mov	 eax, DWORD PTR _pResult$[ebp]
  00041	5f		 pop	 edi
  00042	5e		 pop	 esi
  00043	c7 00 00 00 00
	00		 mov	 DWORD PTR [eax], 0

; 561  : }

  00049	5d		 pop	 ebp
  0004a	c2 08 00	 ret	 8
?OnSelchangeTab@CLeftBarDlg@@IAEXPAUtagNMHDR@@PAJ@Z ENDP ; CLeftBarDlg::OnSelchangeTab
_TEXT	ENDS
; Function compile flags: /Ogtp
; File D:\git\src\IBK\IBK_DRFN\ProjSrc\SrcDrfn\Chart\comparechart\LeftBarDlg.cpp
; File C:\Program Files (x86)\Microsoft Visual Studio\2019\Community\VC\Tools\MSVC\14.29.30133\atlmfc\include\afxwin2.inl
; File D:\git\src\IBK\IBK_DRFN\ProjSrc\SrcDrfn\Chart\comparechart\LeftBarDlg.cpp
;	COMDAT ?OnBthidechart@CLeftBarDlg@@IAEXXZ
_TEXT	SEGMENT
?OnBthidechart@CLeftBarDlg@@IAEXXZ PROC			; CLeftBarDlg::OnBthidechart, COMDAT
; _this$ = ecx
; File C:\Program Files (x86)\Microsoft Visual Studio\2019\Community\VC\Tools\MSVC\14.29.30133\atlmfc\include\afxwin2.inl

; 213  : 	{ ASSERT(::IsWindow(m_hWnd)); return CWnd::FromHandle(::GetParent(m_hWnd)); }

  00000	ff 71 20	 push	 DWORD PTR [ecx+32]
  00003	ff 15 00 00 00
	00		 call	 DWORD PTR __imp__GetParent@4
  00009	50		 push	 eax
  0000a	e8 00 00 00 00	 call	 ?FromHandle@CWnd@@SGPAV1@PAUHWND__@@@Z ; CWnd::FromHandle
; File D:\git\src\IBK\IBK_DRFN\ProjSrc\SrcDrfn\Chart\comparechart\LeftBarDlg.cpp

; 523  : 	((CStdDialog*)GetParent())->HideChart();

  0000f	8b c8		 mov	 ecx, eax
  00011	e9 00 00 00 00	 jmp	 ?HideChart@CStdDialog@@QAEHXZ ; CStdDialog::HideChart
?OnBthidechart@CLeftBarDlg@@IAEXXZ ENDP			; CLeftBarDlg::OnBthidechart
_TEXT	ENDS
; Function compile flags: /Ogtp
; File D:\git\src\IBK\IBK_DRFN\ProjSrc\SrcDrfn\Chart\comparechart\LeftBarDlg.cpp
; File C:\Program Files (x86)\Microsoft Visual Studio\2019\Community\VC\Tools\MSVC\14.29.30133\atlmfc\include\afxwin2.inl
; File D:\git\src\IBK\IBK_DRFN\ProjSrc\SrcDrfn\Chart\comparechart\LeftBarDlg.cpp
;	COMDAT ?OnTimer@CLeftBarDlg@@IAEXI@Z
_TEXT	SEGMENT
_nIDEvent$ = 8						; size = 4
?OnTimer@CLeftBarDlg@@IAEXI@Z PROC			; CLeftBarDlg::OnTimer, COMDAT
; _this$ = ecx
; File C:\Program Files (x86)\Microsoft Visual Studio\2019\Community\VC\Tools\MSVC\14.29.30133\atlmfc\include\afxwin2.inl

; 466  : 	{ Default(); }

  00000	e8 00 00 00 00	 call	 ?Default@CWnd@@IAEJXZ	; CWnd::Default
; File D:\git\src\IBK\IBK_DRFN\ProjSrc\SrcDrfn\Chart\comparechart\LeftBarDlg.cpp

; 507  : }

  00005	c2 04 00	 ret	 4
?OnTimer@CLeftBarDlg@@IAEXI@Z ENDP			; CLeftBarDlg::OnTimer
_TEXT	ENDS
; Function compile flags: /Ogtp
; File D:\git\src\IBK\IBK_DRFN\ProjSrc\SrcDrfn\Chart\comparechart\LeftBarDlg.cpp
;	COMDAT ?OnDestroy@CLeftBarDlg@@IAEXXZ
_TEXT	SEGMENT
?OnDestroy@CLeftBarDlg@@IAEXXZ PROC			; CLeftBarDlg::OnDestroy, COMDAT
; _this$ = ecx

; 196  : 	// TODO: Add your message handler code here
; 197  : 	/*=============== 2005. 06. 09 sy, nam ============================
; 198  : 	if(m_pWndMapView)
; 199  : 	{
; 200  : 		m_pWndMapView->DestroyWindow();
; 201  : 		delete m_pWndMapView;
; 202  : 		m_pWndMapView = NULL;
; 203  : 	}
; 204  : 	/*=============== 2005. 06. 09 sy, nam ============================*/
; 205  : 	//@유진삭제 SetConfig(FALSE);
; 206  : 	CRscDlg::OnDestroy();	

  00000	e9 00 00 00 00	 jmp	 ?OnDestroy@CRscDlg@@IAEXXZ ; CRscDlg::OnDestroy
?OnDestroy@CLeftBarDlg@@IAEXXZ ENDP			; CLeftBarDlg::OnDestroy
_TEXT	ENDS
; Function compile flags: /Ogtp
; File D:\git\src\IBK\IBK_DRFN\ProjSrc\SrcDrfn\Chart\comparechart\LeftBarDlg.cpp
; File C:\Program Files (x86)\Microsoft Visual Studio\2019\Community\VC\Tools\MSVC\14.29.30133\atlmfc\include\afxwin2.inl
; File D:\git\src\IBK\IBK_DRFN\ProjSrc\SrcDrfn\Chart\comparechart\LeftBarDlg.cpp
; File C:\Program Files (x86)\Microsoft Visual Studio\2019\Community\VC\Tools\MSVC\14.29.30133\atlmfc\include\afxwin2.inl
; File D:\git\src\IBK\IBK_DRFN\ProjSrc\SrcDrfn\Chart\comparechart\LeftBarDlg.cpp
; File C:\Program Files (x86)\Microsoft Visual Studio\2019\Community\VC\Tools\MSVC\14.29.30133\atlmfc\include\afxwin2.inl
; File C:\Program Files (x86)\Microsoft Visual Studio\2019\Community\VC\Tools\MSVC\14.29.30133\atlmfc\include\atltypes.h
; File C:\Program Files (x86)\Microsoft Visual Studio\2019\Community\VC\Tools\MSVC\14.29.30133\atlmfc\include\afxwin2.inl
; File D:\git\src\IBK\IBK_DRFN\ProjSrc\SrcDrfn\Chart\comparechart\LeftBarDlg.cpp
; File C:\Program Files (x86)\Microsoft Visual Studio\2019\Community\VC\Tools\MSVC\14.29.30133\atlmfc\include\afxwin2.inl
; File D:\git\src\IBK\IBK_DRFN\ProjSrc\SrcDrfn\Chart\comparechart\LeftBarDlg.cpp
; File C:\Program Files (x86)\Microsoft Visual Studio\2019\Community\VC\Tools\MSVC\14.29.30133\atlmfc\include\afxwin2.inl
; File D:\git\src\IBK\IBK_DRFN\ProjSrc\SrcDrfn\Chart\comparechart\LeftBarDlg.cpp
; File C:\Program Files (x86)\Microsoft Visual Studio\2019\Community\VC\Tools\MSVC\14.29.30133\atlmfc\include\afxwin2.inl
; File D:\git\src\IBK\IBK_DRFN\ProjSrc\SrcDrfn\Chart\comparechart\LeftBarDlg.cpp
; File C:\Program Files (x86)\Microsoft Visual Studio\2019\Community\VC\Tools\MSVC\14.29.30133\atlmfc\include\afxwin2.inl
; File D:\git\src\IBK\IBK_DRFN\ProjSrc\SrcDrfn\Chart\comparechart\LeftBarDlg.cpp
; File C:\Program Files (x86)\Microsoft Visual Studio\2019\Community\VC\Tools\MSVC\14.29.30133\atlmfc\include\afxwin2.inl
; File D:\git\src\IBK\IBK_DRFN\ProjSrc\SrcDrfn\Chart\comparechart\LeftBarDlg.cpp
; File C:\Program Files (x86)\Microsoft Visual Studio\2019\Community\VC\Tools\MSVC\14.29.30133\atlmfc\include\afxwin2.inl
; File D:\git\src\IBK\IBK_DRFN\ProjSrc\SrcDrfn\Chart\comparechart\LeftBarDlg.cpp
; File C:\Program Files (x86)\Microsoft Visual Studio\2019\Community\VC\Tools\MSVC\14.29.30133\atlmfc\include\afxwin2.inl
; File D:\git\src\IBK\IBK_DRFN\ProjSrc\SrcDrfn\Chart\comparechart\LeftBarDlg.cpp
; File C:\Program Files (x86)\Microsoft Visual Studio\2019\Community\VC\Tools\MSVC\14.29.30133\atlmfc\include\afxwin2.inl
; File D:\git\src\IBK\IBK_DRFN\ProjSrc\SrcDrfn\Chart\comparechart\LeftBarDlg.cpp
; File C:\Program Files (x86)\Microsoft Visual Studio\2019\Community\VC\Tools\MSVC\14.29.30133\atlmfc\include\afxwin2.inl
; File D:\git\src\IBK\IBK_DRFN\ProjSrc\SrcDrfn\Chart\comparechart\LeftBarDlg.cpp
; File C:\Program Files (x86)\Microsoft Visual Studio\2019\Community\VC\Tools\MSVC\14.29.30133\atlmfc\include\afxwin2.inl
; File D:\git\src\IBK\IBK_DRFN\ProjSrc\SrcDrfn\Chart\comparechart\LeftBarDlg.cpp
;	COMDAT ?OnSize@CLeftBarDlg@@IAEXIHH@Z
_TEXT	SEGMENT
_tabRect$1 = -52					; size = 16
_rect$2 = -36						; size = 16
_listDlgRect$3 = -20					; size = 16
__$ArrayPad$ = -4					; size = 4
_nType$ = 8						; size = 4
_cx$ = 12						; size = 4
_cy$ = 16						; size = 4
?OnSize@CLeftBarDlg@@IAEXIHH@Z PROC			; CLeftBarDlg::OnSize, COMDAT
; _this$ = ecx

; 125  : {

  00000	55		 push	 ebp
  00001	8b ec		 mov	 ebp, esp
  00003	83 ec 34	 sub	 esp, 52			; 00000034H
  00006	a1 00 00 00 00	 mov	 eax, DWORD PTR ___security_cookie
  0000b	33 c5		 xor	 eax, ebp
  0000d	89 45 fc	 mov	 DWORD PTR __$ArrayPad$[ebp], eax
  00010	56		 push	 esi
  00011	57		 push	 edi
  00012	8b f9		 mov	 edi, ecx
; File C:\Program Files (x86)\Microsoft Visual Studio\2019\Community\VC\Tools\MSVC\14.29.30133\atlmfc\include\afxwin2.inl

; 330  : 	{ Default(); }

  00014	e8 00 00 00 00	 call	 ?Default@CWnd@@IAEJXZ	; CWnd::Default

; 213  : 	{ ASSERT(::IsWindow(m_hWnd)); return CWnd::FromHandle(::GetParent(m_hWnd)); }

  00019	ff 77 20	 push	 DWORD PTR [edi+32]
  0001c	8b 35 00 00 00
	00		 mov	 esi, DWORD PTR __imp__GetParent@4
  00022	ff d6		 call	 esi
  00024	50		 push	 eax
  00025	e8 00 00 00 00	 call	 ?FromHandle@CWnd@@SGPAV1@PAUHWND__@@@Z ; CWnd::FromHandle
; File D:\git\src\IBK\IBK_DRFN\ProjSrc\SrcDrfn\Chart\comparechart\LeftBarDlg.cpp

; 130  : 	if(pParent==NULL || pParent->GetSafeHwnd()==NULL) return;

  0002a	85 c0		 test	 eax, eax
  0002c	0f 84 e4 00 00
	00		 je	 $LN3@OnSize
  00032	83 78 20 00	 cmp	 DWORD PTR [eax+32], 0
  00036	0f 84 da 00 00
	00		 je	 $LN3@OnSize
; File C:\Program Files (x86)\Microsoft Visual Studio\2019\Community\VC\Tools\MSVC\14.29.30133\atlmfc\include\afxwin2.inl

; 213  : 	{ ASSERT(::IsWindow(m_hWnd)); return CWnd::FromHandle(::GetParent(m_hWnd)); }

  0003c	ff 77 20	 push	 DWORD PTR [edi+32]
  0003f	ff d6		 call	 esi
  00041	50		 push	 eax
  00042	e8 00 00 00 00	 call	 ?FromHandle@CWnd@@SGPAV1@PAUHWND__@@@Z ; CWnd::FromHandle
; File D:\git\src\IBK\IBK_DRFN\ProjSrc\SrcDrfn\Chart\comparechart\LeftBarDlg.cpp

; 132  : 	if(((CStdDialog*)GetParent())->m_nChartType==2)

  00047	83 b8 fc 05 00
	00 02		 cmp	 DWORD PTR [eax+1532], 2
  0004e	0f 84 c2 00 00
	00		 je	 $LN3@OnSize
; File C:\Program Files (x86)\Microsoft Visual Studio\2019\Community\VC\Tools\MSVC\14.29.30133\atlmfc\include\afxwin2.inl

; 86   : 	{ ASSERT(::IsWindow(m_hWnd)); ::GetClientRect(m_hWnd, lpRect); }

  00054	8b 35 00 00 00
	00		 mov	 esi, DWORD PTR __imp__GetClientRect@8
  0005a	8d 45 dc	 lea	 eax, DWORD PTR _rect$2[ebp]
  0005d	50		 push	 eax
  0005e	ff 77 20	 push	 DWORD PTR [edi+32]
  00061	0f 57 c0	 xorps	 xmm0, xmm0
; File C:\Program Files (x86)\Microsoft Visual Studio\2019\Community\VC\Tools\MSVC\14.29.30133\atlmfc\include\atltypes.h

; 528  : 	left = 0;

  00064	0f 11 45 dc	 movups	 XMMWORD PTR _rect$2[ebp], xmm0
  00068	0f 11 45 ec	 movups	 XMMWORD PTR _listDlgRect$3[ebp], xmm0
; File C:\Program Files (x86)\Microsoft Visual Studio\2019\Community\VC\Tools\MSVC\14.29.30133\atlmfc\include\afxwin2.inl

; 86   : 	{ ASSERT(::IsWindow(m_hWnd)); ::GetClientRect(m_hWnd, lpRect); }

  0006c	ff d6		 call	 esi
; File D:\git\src\IBK\IBK_DRFN\ProjSrc\SrcDrfn\Chart\comparechart\LeftBarDlg.cpp

; 145  : 		if(m_tabctrl.GetSafeHwnd())

  0006e	8d 8f e8 07 00
	00		 lea	 ecx, DWORD PTR [edi+2024]
; File C:\Program Files (x86)\Microsoft Visual Studio\2019\Community\VC\Tools\MSVC\14.29.30133\atlmfc\include\afxwin2.inl

; 25   : 	{ return this == NULL ? NULL : m_hWnd; }

  00074	85 c9		 test	 ecx, ecx
  00076	74 4d		 je	 SHORT $LN6@OnSize
; File D:\git\src\IBK\IBK_DRFN\ProjSrc\SrcDrfn\Chart\comparechart\LeftBarDlg.cpp

; 145  : 		if(m_tabctrl.GetSafeHwnd())

  00078	83 79 20 00	 cmp	 DWORD PTR [ecx+32], 0
  0007c	74 47		 je	 SHORT $LN6@OnSize

; 151  : 			tabRect = rect;

  0007e	0f 10 45 dc	 movups	 xmm0, XMMWORD PTR _rect$2[ebp]
; File C:\Program Files (x86)\Microsoft Visual Studio\2019\Community\VC\Tools\MSVC\14.29.30133\atlmfc\include\afxwin2.inl

; 73   : 	{ MoveWindow(lpRect->left, lpRect->top, lpRect->right - lpRect->left,

  00082	6a 01		 push	 1
; File D:\git\src\IBK\IBK_DRFN\ProjSrc\SrcDrfn\Chart\comparechart\LeftBarDlg.cpp

; 151  : 			tabRect = rect;

  00084	0f 11 45 cc	 movups	 XMMWORD PTR _tabRect$1[ebp], xmm0
; File C:\Program Files (x86)\Microsoft Visual Studio\2019\Community\VC\Tools\MSVC\14.29.30133\atlmfc\include\afxwin2.inl

; 73   : 	{ MoveWindow(lpRect->left, lpRect->top, lpRect->right - lpRect->left,

  00088	8b 45 d8	 mov	 eax, DWORD PTR _tabRect$1[ebp+12]
  0008b	8b 55 cc	 mov	 edx, DWORD PTR _tabRect$1[ebp]
; File D:\git\src\IBK\IBK_DRFN\ProjSrc\SrcDrfn\Chart\comparechart\LeftBarDlg.cpp

; 153  : 			tabRect.top += 2;

  0008e	66 0f 73 d8 04	 psrldq	 xmm0, 4
  00093	66 0f 7e c6	 movd	 esi, xmm0
  00097	83 c6 02	 add	 esi, 2
; File C:\Program Files (x86)\Microsoft Visual Studio\2019\Community\VC\Tools\MSVC\14.29.30133\atlmfc\include\afxwin2.inl

; 73   : 	{ MoveWindow(lpRect->left, lpRect->top, lpRect->right - lpRect->left,

  0009a	2b c6		 sub	 eax, esi
  0009c	2d c8 00 00 00	 sub	 eax, 200		; 000000c8H
  000a1	50		 push	 eax
  000a2	8b 45 d4	 mov	 eax, DWORD PTR _tabRect$1[ebp+8]
  000a5	2b c2		 sub	 eax, edx
  000a7	50		 push	 eax
  000a8	56		 push	 esi
  000a9	52		 push	 edx
  000aa	e8 00 00 00 00	 call	 ?MoveWindow@CWnd@@QAEXHHHHH@Z ; CWnd::MoveWindow

; 114  : 	{ ASSERT(::IsWindow(m_hWnd)); ::InvalidateRect(m_hWnd, NULL, bErase); }

  000af	6a 01		 push	 1
  000b1	6a 00		 push	 0
  000b3	ff b7 08 08 00
	00		 push	 DWORD PTR [edi+2056]
  000b9	ff 15 00 00 00
	00		 call	 DWORD PTR __imp__InvalidateRect@12
  000bf	8b 35 00 00 00
	00		 mov	 esi, DWORD PTR __imp__GetClientRect@8
$LN6@OnSize:
  000c5	53		 push	 ebx
; File D:\git\src\IBK\IBK_DRFN\ProjSrc\SrcDrfn\Chart\comparechart\LeftBarDlg.cpp

; 172  : 		if(m_UsrAddListDlg.GetSafeHwnd())

  000c6	8d 9f b8 00 00
	00		 lea	 ebx, DWORD PTR [edi+184]
; File C:\Program Files (x86)\Microsoft Visual Studio\2019\Community\VC\Tools\MSVC\14.29.30133\atlmfc\include\afxwin2.inl

; 25   : 	{ return this == NULL ? NULL : m_hWnd; }

  000cc	85 db		 test	 ebx, ebx
  000ce	74 45		 je	 SHORT $LN45@OnSize
; File D:\git\src\IBK\IBK_DRFN\ProjSrc\SrcDrfn\Chart\comparechart\LeftBarDlg.cpp

; 172  : 		if(m_UsrAddListDlg.GetSafeHwnd())

  000d0	83 7b 20 00	 cmp	 DWORD PTR [ebx+32], 0
  000d4	74 3f		 je	 SHORT $LN45@OnSize
; File C:\Program Files (x86)\Microsoft Visual Studio\2019\Community\VC\Tools\MSVC\14.29.30133\atlmfc\include\afxwin2.inl

; 86   : 	{ ASSERT(::IsWindow(m_hWnd)); ::GetClientRect(m_hWnd, lpRect); }

  000d6	8d 45 ec	 lea	 eax, DWORD PTR _listDlgRect$3[ebp]
  000d9	50		 push	 eax
  000da	ff 77 20	 push	 DWORD PTR [edi+32]
  000dd	ff d6		 call	 esi
; File D:\git\src\IBK\IBK_DRFN\ProjSrc\SrcDrfn\Chart\comparechart\LeftBarDlg.cpp

; 175  : 			listDlgRect.top = listDlgRect.bottom - 200;

  000df	8b 45 f8	 mov	 eax, DWORD PTR _listDlgRect$3[ebp+12]
; File C:\Program Files (x86)\Microsoft Visual Studio\2019\Community\VC\Tools\MSVC\14.29.30133\atlmfc\include\afxwin2.inl

; 73   : 	{ MoveWindow(lpRect->left, lpRect->top, lpRect->right - lpRect->left,

  000e2	8b cb		 mov	 ecx, ebx
; File D:\git\src\IBK\IBK_DRFN\ProjSrc\SrcDrfn\Chart\comparechart\LeftBarDlg.cpp

; 176  : 			listDlgRect.right = rect.right;

  000e4	8b 55 e4	 mov	 edx, DWORD PTR _rect$2[ebp+8]
; File C:\Program Files (x86)\Microsoft Visual Studio\2019\Community\VC\Tools\MSVC\14.29.30133\atlmfc\include\afxwin2.inl

; 73   : 	{ MoveWindow(lpRect->left, lpRect->top, lpRect->right - lpRect->left,

  000e7	6a 01		 push	 1
; File D:\git\src\IBK\IBK_DRFN\ProjSrc\SrcDrfn\Chart\comparechart\LeftBarDlg.cpp

; 176  : 			listDlgRect.right = rect.right;

  000e9	89 55 f4	 mov	 DWORD PTR _listDlgRect$3[ebp+8], edx
  000ec	8d b0 38 ff ff
	ff		 lea	 esi, DWORD PTR [eax-200]
; File C:\Program Files (x86)\Microsoft Visual Studio\2019\Community\VC\Tools\MSVC\14.29.30133\atlmfc\include\afxwin2.inl

; 73   : 	{ MoveWindow(lpRect->left, lpRect->top, lpRect->right - lpRect->left,

  000f2	2b c6		 sub	 eax, esi
; File D:\git\src\IBK\IBK_DRFN\ProjSrc\SrcDrfn\Chart\comparechart\LeftBarDlg.cpp

; 175  : 			listDlgRect.top = listDlgRect.bottom - 200;

  000f4	89 75 f0	 mov	 DWORD PTR _listDlgRect$3[ebp+4], esi
; File C:\Program Files (x86)\Microsoft Visual Studio\2019\Community\VC\Tools\MSVC\14.29.30133\atlmfc\include\afxwin2.inl

; 73   : 	{ MoveWindow(lpRect->left, lpRect->top, lpRect->right - lpRect->left,

  000f7	50		 push	 eax
  000f8	8b 45 ec	 mov	 eax, DWORD PTR _listDlgRect$3[ebp]
  000fb	2b d0		 sub	 edx, eax
  000fd	52		 push	 edx
  000fe	56		 push	 esi
  000ff	50		 push	 eax
  00100	e8 00 00 00 00	 call	 ?MoveWindow@CWnd@@QAEXHHHHH@Z ; CWnd::MoveWindow

; 114  : 	{ ASSERT(::IsWindow(m_hWnd)); ::InvalidateRect(m_hWnd, NULL, bErase); }

  00105	6a 01		 push	 1
  00107	6a 00		 push	 0
  00109	ff b7 d8 00 00
	00		 push	 DWORD PTR [edi+216]
  0010f	ff 15 00 00 00
	00		 call	 DWORD PTR __imp__InvalidateRect@12
$LN45@OnSize:
  00115	5b		 pop	 ebx
$LN3@OnSize:
; File D:\git\src\IBK\IBK_DRFN\ProjSrc\SrcDrfn\Chart\comparechart\LeftBarDlg.cpp

; 181  : }

  00116	8b 4d fc	 mov	 ecx, DWORD PTR __$ArrayPad$[ebp]
  00119	5f		 pop	 edi
  0011a	33 cd		 xor	 ecx, ebp
  0011c	5e		 pop	 esi
  0011d	e8 00 00 00 00	 call	 @__security_check_cookie@4
  00122	8b e5		 mov	 esp, ebp
  00124	5d		 pop	 ebp
  00125	c2 0c 00	 ret	 12			; 0000000cH
?OnSize@CLeftBarDlg@@IAEXIHH@Z ENDP			; CLeftBarDlg::OnSize
_TEXT	ENDS
; Function compile flags: /Ogtp
; File D:\git\src\IBK\IBK_DRFN\ProjSrc\SrcDrfn\Chart\comparechart\LeftBarDlg.cpp
; File C:\Program Files (x86)\Microsoft Visual Studio\2019\Community\VC\Tools\MSVC\14.29.30133\atlmfc\include\afxwin2.inl
; File D:\git\src\IBK\IBK_DRFN\ProjSrc\SrcDrfn\Chart\comparechart\LeftBarDlg.cpp
; File C:\Program Files (x86)\Microsoft Visual Studio\2019\Community\VC\Tools\MSVC\14.29.30133\atlmfc\include\afxwin2.inl
; File D:\git\src\IBK\IBK_DRFN\ProjSrc\SrcDrfn\Chart\comparechart\LeftBarDlg.cpp
; File C:\Program Files (x86)\Microsoft Visual Studio\2019\Community\VC\Tools\MSVC\14.29.30133\atlmfc\include\afxwin2.inl
; File D:\git\src\IBK\IBK_DRFN\ProjSrc\SrcDrfn\Chart\comparechart\LeftBarDlg.cpp
; File C:\Program Files (x86)\Microsoft Visual Studio\2019\Community\VC\Tools\MSVC\14.29.30133\atlmfc\include\afxwin2.inl
; File D:\git\src\IBK\IBK_DRFN\ProjSrc\SrcDrfn\Chart\comparechart\LeftBarDlg.cpp
; File C:\Program Files (x86)\Microsoft Visual Studio\2019\Community\VC\Tools\MSVC\14.29.30133\atlmfc\include\afxwin2.inl
; File D:\git\src\IBK\IBK_DRFN\ProjSrc\SrcDrfn\Chart\comparechart\LeftBarDlg.cpp
; File C:\Program Files (x86)\Microsoft Visual Studio\2019\Community\VC\Tools\MSVC\14.29.30133\atlmfc\include\afxwin2.inl
; File D:\git\src\IBK\IBK_DRFN\ProjSrc\SrcDrfn\Chart\comparechart\LeftBarDlg.cpp
;	COMDAT ?OnInitDialog@CLeftBarDlg@@MAEHXZ
_TEXT	SEGMENT
_strImageUp$ = -20					; size = 4
_strImageDown$ = -16					; size = 4
__$EHRec$ = -12						; size = 12
?OnInitDialog@CLeftBarDlg@@MAEHXZ PROC			; CLeftBarDlg::OnInitDialog, COMDAT
; _this$ = ecx

; 97   : {

  00000	55		 push	 ebp
  00001	8b ec		 mov	 ebp, esp
  00003	6a ff		 push	 -1
  00005	68 00 00 00 00	 push	 __ehhandler$?OnInitDialog@CLeftBarDlg@@MAEHXZ
  0000a	64 a1 00 00 00
	00		 mov	 eax, DWORD PTR fs:0
  00010	50		 push	 eax
  00011	83 ec 08	 sub	 esp, 8
  00014	53		 push	 ebx
  00015	56		 push	 esi
  00016	57		 push	 edi
  00017	a1 00 00 00 00	 mov	 eax, DWORD PTR ___security_cookie
  0001c	33 c5		 xor	 eax, ebp
  0001e	50		 push	 eax
  0001f	8d 45 f4	 lea	 eax, DWORD PTR __$EHRec$[ebp]
  00022	64 a3 00 00 00
	00		 mov	 DWORD PTR fs:0, eax
  00028	8b d9		 mov	 ebx, ecx

; 98   : 	CRscDlg::OnInitDialog();

  0002a	e8 00 00 00 00	 call	 ?OnInitDialog@CRscDlg@@MAEHXZ ; CRscDlg::OnInitDialog
; File C:\Program Files (x86)\Microsoft Visual Studio\2019\Community\VC\Tools\MSVC\14.29.30133\atlmfc\include\afxwin2.inl

; 213  : 	{ ASSERT(::IsWindow(m_hWnd)); return CWnd::FromHandle(::GetParent(m_hWnd)); }

  0002f	ff 73 20	 push	 DWORD PTR [ebx+32]
  00032	8b 35 00 00 00
	00		 mov	 esi, DWORD PTR __imp__GetParent@4
  00038	ff d6		 call	 esi
  0003a	50		 push	 eax
  0003b	e8 00 00 00 00	 call	 ?FromHandle@CWnd@@SGPAV1@PAUHWND__@@@Z ; CWnd::FromHandle
; File D:\git\src\IBK\IBK_DRFN\ProjSrc\SrcDrfn\Chart\comparechart\LeftBarDlg.cpp

; 101  : 	m_strRootPath = ((CStdDialog*)GetParent())->m_strRootPath;

  00040	05 e4 05 00 00	 add	 eax, 1508		; 000005e4H
  00045	8d 8b 00 09 00
	00		 lea	 ecx, DWORD PTR [ebx+2304]
  0004b	50		 push	 eax
  0004c	ff 15 00 00 00
	00		 call	 DWORD PTR __imp_??4?$CStringT@DV?$StrTraitMFC_DLL@DV?$ChTraitsCRT@D@ATL@@@@@ATL@@QAEAAV01@ABV01@@Z
; File C:\Program Files (x86)\Microsoft Visual Studio\2019\Community\VC\Tools\MSVC\14.29.30133\atlmfc\include\afxwin2.inl

; 213  : 	{ ASSERT(::IsWindow(m_hWnd)); return CWnd::FromHandle(::GetParent(m_hWnd)); }

  00052	ff 73 20	 push	 DWORD PTR [ebx+32]
  00055	ff d6		 call	 esi
  00057	50		 push	 eax
  00058	e8 00 00 00 00	 call	 ?FromHandle@CWnd@@SGPAV1@PAUHWND__@@@Z ; CWnd::FromHandle
; File D:\git\src\IBK\IBK_DRFN\ProjSrc\SrcDrfn\Chart\comparechart\LeftBarDlg.cpp

; 102  : 	m_strConfig = ((CStdDialog*)GetParent())->m_strConfig;

  0005d	05 d4 05 00 00	 add	 eax, 1492		; 000005d4H
  00062	8d 8b 08 09 00
	00		 lea	 ecx, DWORD PTR [ebx+2312]
  00068	50		 push	 eax
  00069	ff 15 00 00 00
	00		 call	 DWORD PTR __imp_??4?$CStringT@DV?$StrTraitMFC_DLL@DV?$ChTraitsCRT@D@ATL@@@@@ATL@@QAEAAV01@ABV01@@Z
; File C:\Program Files (x86)\Microsoft Visual Studio\2019\Community\VC\Tools\MSVC\14.29.30133\atlmfc\include\afxwin2.inl

; 213  : 	{ ASSERT(::IsWindow(m_hWnd)); return CWnd::FromHandle(::GetParent(m_hWnd)); }

  0006f	ff 73 20	 push	 DWORD PTR [ebx+32]
; File D:\git\src\IBK\IBK_DRFN\ProjSrc\SrcDrfn\Chart\comparechart\LeftBarDlg.cpp

; 103  : 	m_szImageDir = ((CStdDialog*)GetParent())->m_szImageDir;

  00072	8d bb 04 09 00
	00		 lea	 edi, DWORD PTR [ebx+2308]
; File C:\Program Files (x86)\Microsoft Visual Studio\2019\Community\VC\Tools\MSVC\14.29.30133\atlmfc\include\afxwin2.inl

; 213  : 	{ ASSERT(::IsWindow(m_hWnd)); return CWnd::FromHandle(::GetParent(m_hWnd)); }

  00078	ff d6		 call	 esi
  0007a	50		 push	 eax
  0007b	e8 00 00 00 00	 call	 ?FromHandle@CWnd@@SGPAV1@PAUHWND__@@@Z ; CWnd::FromHandle
; File D:\git\src\IBK\IBK_DRFN\ProjSrc\SrcDrfn\Chart\comparechart\LeftBarDlg.cpp

; 103  : 	m_szImageDir = ((CStdDialog*)GetParent())->m_szImageDir;

  00080	05 e0 05 00 00	 add	 eax, 1504		; 000005e0H
  00085	8b cf		 mov	 ecx, edi
  00087	50		 push	 eax
  00088	ff 15 00 00 00
	00		 call	 DWORD PTR __imp_??4?$CStringT@DV?$StrTraitMFC_DLL@DV?$ChTraitsCRT@D@ATL@@@@@ATL@@QAEAAV01@ABV01@@Z

; 104  : 
; 105  : 	CString strImageUp;

  0008e	8d 4d ec	 lea	 ecx, DWORD PTR _strImageUp$[ebp]
  00091	ff 15 00 00 00
	00		 call	 DWORD PTR __imp_??0?$CStringT@DV?$StrTraitMFC_DLL@DV?$ChTraitsCRT@D@ATL@@@@@ATL@@QAE@XZ

; 106  : 	CString strImageDown;

  00097	8d 4d f0	 lea	 ecx, DWORD PTR _strImageDown$[ebp]
  0009a	c7 45 fc 00 00
	00 00		 mov	 DWORD PTR __$EHRec$[ebp+8], 0
  000a1	ff 15 00 00 00
	00		 call	 DWORD PTR __imp_??0?$CStringT@DV?$StrTraitMFC_DLL@DV?$ChTraitsCRT@D@ATL@@@@@ATL@@QAE@XZ
; File C:\Program Files (x86)\Microsoft Visual Studio\2019\Community\VC\Tools\MSVC\14.29.30133\atlmfc\include\afxwin2.inl

; 213  : 	{ ASSERT(::IsWindow(m_hWnd)); return CWnd::FromHandle(::GetParent(m_hWnd)); }

  000a7	ff 73 20	 push	 DWORD PTR [ebx+32]
; File D:\git\src\IBK\IBK_DRFN\ProjSrc\SrcDrfn\Chart\comparechart\LeftBarDlg.cpp

; 106  : 	CString strImageDown;

  000aa	c6 45 fc 01	 mov	 BYTE PTR __$EHRec$[ebp+8], 1
; File C:\Program Files (x86)\Microsoft Visual Studio\2019\Community\VC\Tools\MSVC\14.29.30133\atlmfc\include\afxwin2.inl

; 213  : 	{ ASSERT(::IsWindow(m_hWnd)); return CWnd::FromHandle(::GetParent(m_hWnd)); }

  000ae	ff d6		 call	 esi
  000b0	50		 push	 eax
  000b1	e8 00 00 00 00	 call	 ?FromHandle@CWnd@@SGPAV1@PAUHWND__@@@Z ; CWnd::FromHandle
; File D:\git\src\IBK\IBK_DRFN\ProjSrc\SrcDrfn\Chart\comparechart\LeftBarDlg.cpp

; 108  : 	m_tabctrl.Init(GetParent(),m_pChartMng, 0);//05.06.13 DBMgr추가

  000b6	6a 00		 push	 0
  000b8	6a 00		 push	 0
  000ba	ff b3 28 09 00
	00		 push	 DWORD PTR [ebx+2344]
  000c0	8d 8b e8 07 00
	00		 lea	 ecx, DWORD PTR [ebx+2024]
  000c6	50		 push	 eax
  000c7	e8 00 00 00 00	 call	 ?Init@CXTabCtrl@@QAEXPAVCWnd@@0HPAX@Z ; CXTabCtrl::Init

; 109  : 	m_tabctrl.SetTopLeftCorner(CPoint(0,20));

  000cc	6a 14		 push	 20			; 00000014H
  000ce	6a 00		 push	 0
  000d0	8d 8b e8 07 00
	00		 lea	 ecx, DWORD PTR [ebx+2024]
  000d6	e8 00 00 00 00	 call	 ?SetTopLeftCorner@CXTabCtrl@@QAEXVCPoint@@@Z ; CXTabCtrl::SetTopLeftCorner

; 110  : //	SetTimer(200,1,NULL);
; 111  : 	//JS.Kim_20101005   화면 깜박임 현상 제거
; 112  : 	m_tabctrl.ModifyStyle(0, WS_CLIPSIBLINGS|WS_CLIPCHILDREN);

  000db	6a 00		 push	 0
  000dd	68 00 00 00 06	 push	 100663296		; 06000000H
  000e2	6a 00		 push	 0
  000e4	8d 8b e8 07 00
	00		 lea	 ecx, DWORD PTR [ebx+2024]
  000ea	e8 00 00 00 00	 call	 ?ModifyStyle@CWnd@@QAEHKKI@Z ; CWnd::ModifyStyle

; 113  : 
; 114  : 	m_UsrAddListDlg.m_szImageDir = m_szImageDir;

  000ef	57		 push	 edi
  000f0	8d 8b 7c 01 00
	00		 lea	 ecx, DWORD PTR [ebx+380]
  000f6	ff 15 00 00 00
	00		 call	 DWORD PTR __imp_??4?$CStringT@DV?$StrTraitMFC_DLL@DV?$ChTraitsCRT@D@ATL@@@@@ATL@@QAEAAV01@ABV01@@Z

; 115  : 	m_UsrAddListDlg.Create(CUsrAddListDlg::IDD, this);	

  000fc	8b 83 b8 00 00
	00		 mov	 eax, DWORD PTR [ebx+184]
  00102	8d 8b b8 00 00
	00		 lea	 ecx, DWORD PTR [ebx+184]
  00108	53		 push	 ebx
  00109	68 e9 2e 00 00	 push	 12009			; 00002ee9H
  0010e	ff 90 6c 01 00
	00		 call	 DWORD PTR [eax+364]

; 116  : 
; 117  : 	m_UsrAddListDlg.ShowWindow(SW_SHOW);

  00114	6a 05		 push	 5
  00116	8d 8b b8 00 00
	00		 lea	 ecx, DWORD PTR [ebx+184]
  0011c	e8 00 00 00 00	 call	 ?ShowWindow@CWnd@@QAEHH@Z ; CWnd::ShowWindow

; 118  : 	
; 119  : 	return TRUE;  // return TRUE unless you set the focus to a control

  00121	8d 4d f0	 lea	 ecx, DWORD PTR _strImageDown$[ebp]
  00124	ff 15 00 00 00
	00		 call	 DWORD PTR __imp_??1?$CStringT@DV?$StrTraitMFC_DLL@DV?$ChTraitsCRT@D@ATL@@@@@ATL@@QAE@XZ
  0012a	8d 4d ec	 lea	 ecx, DWORD PTR _strImageUp$[ebp]
  0012d	ff 15 00 00 00
	00		 call	 DWORD PTR __imp_??1?$CStringT@DV?$StrTraitMFC_DLL@DV?$ChTraitsCRT@D@ATL@@@@@ATL@@QAE@XZ
  00133	b8 01 00 00 00	 mov	 eax, 1

; 120  : 	              // EXCEPTION: OCX Property Pages should return FALSE
; 121  : }

  00138	8b 4d f4	 mov	 ecx, DWORD PTR __$EHRec$[ebp]
  0013b	64 89 0d 00 00
	00 00		 mov	 DWORD PTR fs:0, ecx
  00142	59		 pop	 ecx
  00143	5f		 pop	 edi
  00144	5e		 pop	 esi
  00145	5b		 pop	 ebx
  00146	8b e5		 mov	 esp, ebp
  00148	5d		 pop	 ebp
  00149	c3		 ret	 0
_TEXT	ENDS
;	COMDAT text$x
text$x	SEGMENT
__unwindfunclet$?OnInitDialog@CLeftBarDlg@@MAEHXZ$0:
  00000	8d 4d ec	 lea	 ecx, DWORD PTR _strImageUp$[ebp]
  00003	ff 25 00 00 00
	00		 jmp	 DWORD PTR __imp_??1?$CStringT@DV?$StrTraitMFC_DLL@DV?$ChTraitsCRT@D@ATL@@@@@ATL@@QAE@XZ
__unwindfunclet$?OnInitDialog@CLeftBarDlg@@MAEHXZ$1:
  00009	8d 4d f0	 lea	 ecx, DWORD PTR _strImageDown$[ebp]
  0000c	ff 25 00 00 00
	00		 jmp	 DWORD PTR __imp_??1?$CStringT@DV?$StrTraitMFC_DLL@DV?$ChTraitsCRT@D@ATL@@@@@ATL@@QAE@XZ
  00012	cc		 int	 3
  00013	cc		 int	 3
  00014	cc		 int	 3
  00015	cc		 int	 3
  00016	cc		 int	 3
__ehhandler$?OnInitDialog@CLeftBarDlg@@MAEHXZ:
  00017	90		 npad	 1
  00018	90		 npad	 1
  00019	8b 54 24 08	 mov	 edx, DWORD PTR [esp+8]
  0001d	8d 42 0c	 lea	 eax, DWORD PTR [edx+12]
  00020	8b 4a e8	 mov	 ecx, DWORD PTR [edx-24]
  00023	33 c8		 xor	 ecx, eax
  00025	e8 00 00 00 00	 call	 @__security_check_cookie@4
  0002a	b8 00 00 00 00	 mov	 eax, OFFSET __ehfuncinfo$?OnInitDialog@CLeftBarDlg@@MAEHXZ
  0002f	e9 00 00 00 00	 jmp	 ___CxxFrameHandler3
text$x	ENDS
?OnInitDialog@CLeftBarDlg@@MAEHXZ ENDP			; CLeftBarDlg::OnInitDialog
; Function compile flags: /Ogtp
; File D:\git\src\IBK\IBK_DRFN\ProjSrc\SrcDrfn\Chart\comparechart\LeftBarDlg.cpp
; File C:\Program Files (x86)\Microsoft Visual Studio\2019\Community\VC\Tools\MSVC\14.29.30133\atlmfc\include\afxcmn.inl
; File C:\Program Files (x86)\Microsoft Visual Studio\2019\Community\VC\Tools\MSVC\14.29.30133\atlmfc\include\afxwin2.inl
; File D:\git\src\IBK\IBK_DRFN\ProjSrc\SrcDrfn\Chart\comparechart\LeftBarDlg.cpp
; File C:\Program Files (x86)\Microsoft Visual Studio\2019\Community\VC\Tools\MSVC\14.29.30133\atlmfc\include\afxwin2.inl
; File D:\git\src\IBK\IBK_DRFN\ProjSrc\SrcDrfn\Chart\comparechart\LeftBarDlg.cpp
; File C:\Program Files (x86)\Microsoft Visual Studio\2019\Community\VC\Tools\MSVC\14.29.30133\atlmfc\include\afxwin2.inl
; File D:\git\src\IBK\IBK_DRFN\ProjSrc\SrcDrfn\Chart\comparechart\LeftBarDlg.cpp
; File C:\Program Files (x86)\Microsoft Visual Studio\2019\Community\VC\Tools\MSVC\14.29.30133\atlmfc\include\afxwin2.inl
; File D:\git\src\IBK\IBK_DRFN\ProjSrc\SrcDrfn\Chart\comparechart\LeftBarDlg.cpp
; File C:\Program Files (x86)\Microsoft Visual Studio\2019\Community\VC\Tools\MSVC\14.29.30133\atlmfc\include\afxwin2.inl
; File D:\git\src\IBK\IBK_DRFN\ProjSrc\SrcDrfn\Chart\comparechart\LeftBarDlg.cpp
; File C:\Program Files (x86)\Microsoft Visual Studio\2019\Community\VC\Tools\MSVC\14.29.30133\atlmfc\include\afxwin2.inl
; File D:\git\src\IBK\IBK_DRFN\ProjSrc\SrcDrfn\Chart\comparechart\LeftBarDlg.cpp
; File C:\Program Files (x86)\Microsoft Visual Studio\2019\Community\VC\Tools\MSVC\14.29.30133\atlmfc\include\afxwin2.inl
; File D:\git\src\IBK\IBK_DRFN\ProjSrc\SrcDrfn\Chart\comparechart\LeftBarDlg.cpp
; File C:\Program Files (x86)\Microsoft Visual Studio\2019\Community\VC\Tools\MSVC\14.29.30133\atlmfc\include\afxwin2.inl
; File D:\git\src\IBK\IBK_DRFN\ProjSrc\SrcDrfn\Chart\comparechart\LeftBarDlg.cpp
;	COMDAT ?WindowProc@CLeftBarDlg@@MAEJIIJ@Z
_TEXT	SEGMENT
_iNewTab$1$ = 8						; size = 4
_message$ = 8						; size = 4
_wParam$ = 12						; size = 4
_lParam$ = 16						; size = 4
?WindowProc@CLeftBarDlg@@MAEJIIJ@Z PROC			; CLeftBarDlg::WindowProc, COMDAT
; _this$ = ecx

; 261  : {

  00000	55		 push	 ebp
  00001	8b ec		 mov	 ebp, esp
  00003	53		 push	 ebx

; 262  : 	// TODO: Add your specialized code here and/or call the base class
; 263  : 	switch(message)

  00004	8b 5d 10	 mov	 ebx, DWORD PTR _lParam$[ebp]
  00007	56		 push	 esi
  00008	57		 push	 edi
  00009	8b 7d 08	 mov	 edi, DWORD PTR _message$[ebp]
  0000c	8b f1		 mov	 esi, ecx
  0000e	8b 4d 0c	 mov	 ecx, DWORD PTR _wParam$[ebp]
  00011	81 ff 38 04 00
	00		 cmp	 edi, 1080		; 00000438H
  00017	0f 87 80 00 00
	00		 ja	 $LN24@WindowProc
  0001d	0f 84 97 00 00
	00		 je	 $LN5@WindowProc
  00023	83 ff 4e	 cmp	 edi, 78			; 0000004eH
  00026	0f 85 b3 01 00
	00		 jne	 $LN2@WindowProc

; 264  : 	{
; 265  : 	case UMSG_SETINITIALCHARTDATA:// 차트의 기본초기값을 보낸다.
; 266  : 		{
; 267  : 			/*=============== 2005. 08. 03 sy, nam ============================
; 268  : 			CWnd *pWnd = m_tabctrl.GetWndFocused();
; 269  : 			if(pWnd)
; 270  : 			{
; 271  : 				pWnd->SendMessage(message,wParam,lParam);
; 272  : 			}
; 273  : 			pWnd = (CTabDlg *)m_tabctrl.GetWndCodeSearch();
; 274  : 			if(pWnd)
; 275  : 			{
; 276  : 				pWnd->SendMessage(message,wParam,lParam);
; 277  : 			}	
; 278  : 			/*=============== 2005. 06. 09 sy, nam ============================
; 279  : 			if(m_pWndMapView)
; 280  : 			{
; 281  : 				stChartInitData* _pstData;
; 282  : 				_pstData = (stChartInitData*)lParam;
; 283  : 				if(!_pstData->m_strCode.IsEmpty()) 
; 284  : 				{
; 285  : 					STSHAREDDATA stData;
; 286  : 					stData.m_szKey = "코드-코코2";
; 287  : 					stData.m_szValue = _pstData->m_strCode;
; 288  : 					m_pWndMapView->SetGShareData(&stData);				
; 289  : 				}
; 290  : 			}
; 291  : 			/*=============== 2005. 06. 09 sy, nam ============================*/
; 292  : 		}
; 293  : 		break;
; 294  : 	case UMSG_SETCHARTHOGA:
; 295  : 		{
; 296  : 			CWnd *pWnd = m_tabctrl.GetWndFocused();
; 297  : 			if(pWnd)
; 298  : 			{
; 299  : 				pWnd->SendMessage(message,wParam,lParam);
; 300  : 			}	
; 301  : 			pWnd = (CTabDlg *)m_tabctrl.GetWndCodeSearch();
; 302  : 			if(pWnd)
; 303  : 			{
; 304  : 				pWnd->SendMessage(message,wParam,lParam);
; 305  : 			}			
; 306  : 			/*=============== 2005. 06. 09 sy, nam ============================
; 307  : 			if(m_pWndMapView)
; 308  : 			{
; 309  : 				m_pWndMapView->SetGShareData((LPVOID)lParam);				
; 310  : 			}
; 311  : 			/*=============== 2005. 06. 09 sy, nam ============================*/
; 312  : 		}
; 313  : 		break;
; 314  : 	case UMSG_SENDJCODECHECKED:
; 315  : 	case UMSG_GETJCODECHECKEDFROMLEFTBAR:
; 316  : 	case UMSG_SENDJCODEUNHIGHLIGHTED:	
; 317  : 		{
; 318  : 			CWnd *pWnd = m_tabctrl.GetWndFocused();
; 319  : 			if(pWnd)
; 320  : 			{
; 321  : 				pWnd->SendMessage(message,wParam,lParam);
; 322  : 			}	
; 323  : 			pWnd = (CTabDlg *)m_tabctrl.GetWndCodeSearch();
; 324  : 			if(pWnd)
; 325  : 			{
; 326  : 				pWnd->SendMessage(message,wParam,lParam);
; 327  : 			}						
; 328  : 		}
; 329  : 		break;
; 330  : 	case UMSG_UPDATECODE:
; 331  : 		{
; 332  : 			GetParent()->SendMessage(UMSG_UPDATECODE,wParam,lParam);
; 333  : 		}
; 334  : 		break;
; 335  : //	case UMSG_GETFAVORITETHINGSMNG:
; 336  : //		{
; 337  : //			return (LRESULT)m_pFavoriteMng;
; 338  : //		}
; 339  : //		break;
; 340  : 	//===================================================================
; 341  : 	//2005. 06. 14 add by sy,nam
; 342  : 	//===================================================================
; 343  : 	case UMSG_ADDITEM_BTNCLICK:
; 344  : 		m_tabctrl.SendMessage(UMSG_ADDITEM_BTNCLICK, 0, 0);
; 345  : 		break;
; 346  : 	case UMSG_DELITEM_BTNCLICK:
; 347  : 		
; 348  : 		break;
; 349  : 	case UMSG_INITIAL_BTNCLICK:
; 350  : 		//Drds끊기.
; 351  : 		//차트 내용없애기 
; 352  : 		m_UsrAddListDlg.SendMessage(UMSG_INITIAL_BTNCLICK);
; 353  : 		break;
; 354  : 	case UMSG_ADDITEM:
; 355  : 		m_UsrAddListDlg.SendMessage(UMSG_ADDITEM, wParam, lParam);
; 356  : 		// 종목코드 연동처리.
; 357  : //		{
; 358  : //			CString szTmp = *((CString*)lParam);	//넘어온 lparam내의 값을 CString 변수에 넣는다.
; 359  : //
; 360  : //			int nPos = szTmp.Find('|', 0);
; 361  : //			if(nPos>0) 
; 362  : //			{
; 363  : //				CString szCode;
; 364  : //				szCode = szTmp.Mid(nPos+1);	szCode.TrimLeft(); szCode.TrimRight();
; 365  : //				if(szCode.GetLength()>0)
; 366  : //					GetParent()->GetParent()->SendMessage(WM_USER+107, 0, (LPARAM)(LPCSTR)szCode);
; 367  : //			}
; 368  : //		}
; 369  : 		break;
; 370  : 	case UMSG_RE_REQUEST_TRDATA:  //Real 모두 다시 요청한다.
; 371  : 		m_UsrAddListDlg.SendMessage(UMSG_RE_REQUEST_TRDATA, wParam, lParam);
; 372  : 		break;
; 373  : 	case WM_NOTIFY:
; 374  : 		{
; 375  : 			NMHDR* nmhdr = (NMHDR*)lParam;
; 376  : 			int nCode = nmhdr->code;
; 377  : 			
; 378  : 			if(nCode == TCN_SELCHANGE)			// Left button click

  0002c	81 7b 08 d9 fd
	ff ff		 cmp	 DWORD PTR [ebx+8], -551	; fffffdd9H
  00033	0f 85 a6 01 00
	00		 jne	 $LN2@WindowProc
; File C:\Program Files (x86)\Microsoft Visual Studio\2019\Community\VC\Tools\MSVC\14.29.30133\atlmfc\include\afxcmn.inl

; 586  : 	{ ASSERT(::IsWindow(m_hWnd)); return (int)::SendMessage(m_hWnd, TCM_GETCURSEL, 0, 0L); }

  00039	6a 00		 push	 0
  0003b	6a 00		 push	 0
  0003d	68 0b 13 00 00	 push	 4875			; 0000130bH
  00042	ff b6 08 08 00
	00		 push	 DWORD PTR [esi+2056]
  00048	ff 15 00 00 00
	00		 call	 DWORD PTR __imp__SendMessageA@16
; File C:\Program Files (x86)\Microsoft Visual Studio\2019\Community\VC\Tools\MSVC\14.29.30133\atlmfc\include\afxwin2.inl

; 213  : 	{ ASSERT(::IsWindow(m_hWnd)); return CWnd::FromHandle(::GetParent(m_hWnd)); }

  0004e	ff 76 20	 push	 DWORD PTR [esi+32]
; File D:\git\src\IBK\IBK_DRFN\ProjSrc\SrcDrfn\Chart\comparechart\LeftBarDlg.cpp

; 380  : 				int iNewTab = m_tabctrl.GetCurSel();	

  00051	89 45 08	 mov	 DWORD PTR _iNewTab$1$[ebp], eax
; File C:\Program Files (x86)\Microsoft Visual Studio\2019\Community\VC\Tools\MSVC\14.29.30133\atlmfc\include\afxwin2.inl

; 213  : 	{ ASSERT(::IsWindow(m_hWnd)); return CWnd::FromHandle(::GetParent(m_hWnd)); }

  00054	ff 15 00 00 00
	00		 call	 DWORD PTR __imp__GetParent@4
  0005a	50		 push	 eax
  0005b	e8 00 00 00 00	 call	 ?FromHandle@CWnd@@SGPAV1@PAUHWND__@@@Z ; CWnd::FromHandle
; File D:\git\src\IBK\IBK_DRFN\ProjSrc\SrcDrfn\Chart\comparechart\LeftBarDlg.cpp

; 381  : 				if(GetParent())

  00060	85 c0		 test	 eax, eax
  00062	0f 84 77 01 00
	00		 je	 $LN2@WindowProc
; File C:\Program Files (x86)\Microsoft Visual Studio\2019\Community\VC\Tools\MSVC\14.29.30133\atlmfc\include\afxwin2.inl

; 213  : 	{ ASSERT(::IsWindow(m_hWnd)); return CWnd::FromHandle(::GetParent(m_hWnd)); }

  00068	ff 76 20	 push	 DWORD PTR [esi+32]
  0006b	ff 15 00 00 00
	00		 call	 DWORD PTR __imp__GetParent@4
  00071	50		 push	 eax
  00072	e8 00 00 00 00	 call	 ?FromHandle@CWnd@@SGPAV1@PAUHWND__@@@Z ; CWnd::FromHandle

; 32   : 	{ ASSERT(::IsWindow(m_hWnd)); return ::SendMessage(m_hWnd, message, wParam, lParam); }

  00077	ff 75 08	 push	 DWORD PTR _iNewTab$1$[ebp]
  0007a	6a 00		 push	 0
  0007c	68 b9 04 00 00	 push	 1209			; 000004b9H
  00081	ff 70 20	 push	 DWORD PTR [eax+32]
  00084	ff 15 00 00 00
	00		 call	 DWORD PTR __imp__SendMessageA@16
; File D:\git\src\IBK\IBK_DRFN\ProjSrc\SrcDrfn\Chart\comparechart\LeftBarDlg.cpp

; 391  : 	return CRscDlg::WindowProc(message, wParam, lParam);

  0008a	53		 push	 ebx
  0008b	ff 75 0c	 push	 DWORD PTR _wParam$[ebp]
  0008e	8b ce		 mov	 ecx, esi
  00090	57		 push	 edi
  00091	e8 00 00 00 00	 call	 ?WindowProc@CWnd@@MAEJIIJ@Z ; CWnd::WindowProc
  00096	5f		 pop	 edi
  00097	5e		 pop	 esi
  00098	5b		 pop	 ebx

; 392  : }

  00099	5d		 pop	 ebp
  0009a	c2 0c 00	 ret	 12			; 0000000cH
$LN24@WindowProc:

; 262  : 	// TODO: Add your specialized code here and/or call the base class
; 263  : 	switch(message)

  0009d	8d 87 c6 fb ff
	ff		 lea	 eax, DWORD PTR [edi-1082]
  000a3	83 f8 7b	 cmp	 eax, 123		; 0000007bH
  000a6	0f 87 33 01 00
	00		 ja	 $LN2@WindowProc
  000ac	0f b6 80 00 00
	00 00		 movzx	 eax, BYTE PTR $LN53@WindowProc[eax]
  000b3	ff 24 85 00 00
	00 00		 jmp	 DWORD PTR $LN54@WindowProc[eax*4]
$LN5@WindowProc:

; 391  : 	return CRscDlg::WindowProc(message, wParam, lParam);

  000ba	8b 86 f4 08 00
	00		 mov	 eax, DWORD PTR [esi+2292]
  000c0	8b 15 00 00 00
	00		 mov	 edx, DWORD PTR __imp__SendMessageA@16
  000c6	85 c0		 test	 eax, eax
  000c8	74 11		 je	 SHORT $LN6@WindowProc
  000ca	53		 push	 ebx
  000cb	51		 push	 ecx
  000cc	57		 push	 edi
  000cd	ff 70 20	 push	 DWORD PTR [eax+32]
  000d0	ff d2		 call	 edx
  000d2	8b 4d 0c	 mov	 ecx, DWORD PTR _wParam$[ebp]
  000d5	8b 15 00 00 00
	00		 mov	 edx, DWORD PTR __imp__SendMessageA@16
$LN6@WindowProc:
  000db	8b 86 f8 08 00
	00		 mov	 eax, DWORD PTR [esi+2296]
  000e1	85 c0		 test	 eax, eax
  000e3	0f 84 f6 00 00
	00		 je	 $LN2@WindowProc
  000e9	53		 push	 ebx
  000ea	51		 push	 ecx
  000eb	57		 push	 edi
  000ec	ff 70 20	 push	 DWORD PTR [eax+32]
  000ef	ff d2		 call	 edx
  000f1	53		 push	 ebx
  000f2	ff 75 0c	 push	 DWORD PTR _wParam$[ebp]
  000f5	8b ce		 mov	 ecx, esi
  000f7	57		 push	 edi
  000f8	e8 00 00 00 00	 call	 ?WindowProc@CWnd@@MAEJIIJ@Z ; CWnd::WindowProc
  000fd	5f		 pop	 edi
  000fe	5e		 pop	 esi
  000ff	5b		 pop	 ebx

; 392  : }

  00100	5d		 pop	 ebp
  00101	c2 0c 00	 ret	 12			; 0000000cH
$LN13@WindowProc:
; File C:\Program Files (x86)\Microsoft Visual Studio\2019\Community\VC\Tools\MSVC\14.29.30133\atlmfc\include\afxwin2.inl

; 213  : 	{ ASSERT(::IsWindow(m_hWnd)); return CWnd::FromHandle(::GetParent(m_hWnd)); }

  00104	ff 76 20	 push	 DWORD PTR [esi+32]
  00107	ff 15 00 00 00
	00		 call	 DWORD PTR __imp__GetParent@4
  0010d	50		 push	 eax
  0010e	e8 00 00 00 00	 call	 ?FromHandle@CWnd@@SGPAV1@PAUHWND__@@@Z ; CWnd::FromHandle

; 32   : 	{ ASSERT(::IsWindow(m_hWnd)); return ::SendMessage(m_hWnd, message, wParam, lParam); }

  00113	53		 push	 ebx
  00114	ff 75 0c	 push	 DWORD PTR _wParam$[ebp]
  00117	68 3d 04 00 00	 push	 1085			; 0000043dH
  0011c	ff 70 20	 push	 DWORD PTR [eax+32]
  0011f	ff 15 00 00 00
	00		 call	 DWORD PTR __imp__SendMessageA@16
; File D:\git\src\IBK\IBK_DRFN\ProjSrc\SrcDrfn\Chart\comparechart\LeftBarDlg.cpp

; 391  : 	return CRscDlg::WindowProc(message, wParam, lParam);

  00125	53		 push	 ebx
  00126	ff 75 0c	 push	 DWORD PTR _wParam$[ebp]
  00129	8b ce		 mov	 ecx, esi
  0012b	57		 push	 edi
  0012c	e8 00 00 00 00	 call	 ?WindowProc@CWnd@@MAEJIIJ@Z ; CWnd::WindowProc
  00131	5f		 pop	 edi
  00132	5e		 pop	 esi
  00133	5b		 pop	 ebx

; 392  : }

  00134	5d		 pop	 ebp
  00135	c2 0c 00	 ret	 12			; 0000000cH
$LN14@WindowProc:
; File C:\Program Files (x86)\Microsoft Visual Studio\2019\Community\VC\Tools\MSVC\14.29.30133\atlmfc\include\afxwin2.inl

; 32   : 	{ ASSERT(::IsWindow(m_hWnd)); return ::SendMessage(m_hWnd, message, wParam, lParam); }

  00138	6a 00		 push	 0
  0013a	6a 00		 push	 0
  0013c	68 58 04 00 00	 push	 1112			; 00000458H
  00141	ff b6 08 08 00
	00		 push	 DWORD PTR [esi+2056]
  00147	ff 15 00 00 00
	00		 call	 DWORD PTR __imp__SendMessageA@16
; File D:\git\src\IBK\IBK_DRFN\ProjSrc\SrcDrfn\Chart\comparechart\LeftBarDlg.cpp

; 391  : 	return CRscDlg::WindowProc(message, wParam, lParam);

  0014d	53		 push	 ebx
  0014e	ff 75 0c	 push	 DWORD PTR _wParam$[ebp]
  00151	8b ce		 mov	 ecx, esi
  00153	57		 push	 edi
  00154	e8 00 00 00 00	 call	 ?WindowProc@CWnd@@MAEJIIJ@Z ; CWnd::WindowProc
  00159	5f		 pop	 edi
  0015a	5e		 pop	 esi
  0015b	5b		 pop	 ebx

; 392  : }

  0015c	5d		 pop	 ebp
  0015d	c2 0c 00	 ret	 12			; 0000000cH
$LN16@WindowProc:
; File C:\Program Files (x86)\Microsoft Visual Studio\2019\Community\VC\Tools\MSVC\14.29.30133\atlmfc\include\afxwin2.inl

; 32   : 	{ ASSERT(::IsWindow(m_hWnd)); return ::SendMessage(m_hWnd, message, wParam, lParam); }

  00160	6a 00		 push	 0
  00162	6a 00		 push	 0
  00164	68 5a 04 00 00	 push	 1114			; 0000045aH
  00169	ff b6 d8 00 00
	00		 push	 DWORD PTR [esi+216]
  0016f	ff 15 00 00 00
	00		 call	 DWORD PTR __imp__SendMessageA@16
; File D:\git\src\IBK\IBK_DRFN\ProjSrc\SrcDrfn\Chart\comparechart\LeftBarDlg.cpp

; 391  : 	return CRscDlg::WindowProc(message, wParam, lParam);

  00175	53		 push	 ebx
  00176	ff 75 0c	 push	 DWORD PTR _wParam$[ebp]
  00179	8b ce		 mov	 ecx, esi
  0017b	57		 push	 edi
  0017c	e8 00 00 00 00	 call	 ?WindowProc@CWnd@@MAEJIIJ@Z ; CWnd::WindowProc
  00181	5f		 pop	 edi
  00182	5e		 pop	 esi
  00183	5b		 pop	 ebx

; 392  : }

  00184	5d		 pop	 ebp
  00185	c2 0c 00	 ret	 12			; 0000000cH
$LN17@WindowProc:
; File C:\Program Files (x86)\Microsoft Visual Studio\2019\Community\VC\Tools\MSVC\14.29.30133\atlmfc\include\afxwin2.inl

; 32   : 	{ ASSERT(::IsWindow(m_hWnd)); return ::SendMessage(m_hWnd, message, wParam, lParam); }

  00188	53		 push	 ebx
  00189	51		 push	 ecx
  0018a	68 5b 04 00 00	 push	 1115			; 0000045bH
  0018f	ff b6 d8 00 00
	00		 push	 DWORD PTR [esi+216]
  00195	ff 15 00 00 00
	00		 call	 DWORD PTR __imp__SendMessageA@16
; File D:\git\src\IBK\IBK_DRFN\ProjSrc\SrcDrfn\Chart\comparechart\LeftBarDlg.cpp

; 391  : 	return CRscDlg::WindowProc(message, wParam, lParam);

  0019b	53		 push	 ebx
  0019c	ff 75 0c	 push	 DWORD PTR _wParam$[ebp]
  0019f	8b ce		 mov	 ecx, esi
  001a1	57		 push	 edi
  001a2	e8 00 00 00 00	 call	 ?WindowProc@CWnd@@MAEJIIJ@Z ; CWnd::WindowProc
  001a7	5f		 pop	 edi
  001a8	5e		 pop	 esi
  001a9	5b		 pop	 ebx

; 392  : }

  001aa	5d		 pop	 ebp
  001ab	c2 0c 00	 ret	 12			; 0000000cH
$LN18@WindowProc:
; File C:\Program Files (x86)\Microsoft Visual Studio\2019\Community\VC\Tools\MSVC\14.29.30133\atlmfc\include\afxwin2.inl

; 32   : 	{ ASSERT(::IsWindow(m_hWnd)); return ::SendMessage(m_hWnd, message, wParam, lParam); }

  001ae	53		 push	 ebx
  001af	51		 push	 ecx
  001b0	68 a1 04 00 00	 push	 1185			; 000004a1H
  001b5	ff b6 d8 00 00
	00		 push	 DWORD PTR [esi+216]
  001bb	ff 15 00 00 00
	00		 call	 DWORD PTR __imp__SendMessageA@16
; File D:\git\src\IBK\IBK_DRFN\ProjSrc\SrcDrfn\Chart\comparechart\LeftBarDlg.cpp

; 391  : 	return CRscDlg::WindowProc(message, wParam, lParam);

  001c1	53		 push	 ebx
  001c2	ff 75 0c	 push	 DWORD PTR _wParam$[ebp]
  001c5	8b ce		 mov	 ecx, esi
  001c7	57		 push	 edi
  001c8	e8 00 00 00 00	 call	 ?WindowProc@CWnd@@MAEJIIJ@Z ; CWnd::WindowProc
  001cd	5f		 pop	 edi
  001ce	5e		 pop	 esi
  001cf	5b		 pop	 ebx

; 392  : }

  001d0	5d		 pop	 ebp
  001d1	c2 0c 00	 ret	 12			; 0000000cH
$LN22@WindowProc:

; 382  : 					GetParent()->SendMessage(UMSG_TAB_SELCHANGED, 0, iNewTab);
; 383  : 			}
; 384  : 		}
; 385  : 		break;
; 386  : 	case UMSG_END_REQUEST_CHARTDATA:
; 387  : 		m_UsrAddListDlg.AddELWIndexCode();

  001d4	8d 8e b8 00 00
	00		 lea	 ecx, DWORD PTR [esi+184]
  001da	e8 00 00 00 00	 call	 ?AddELWIndexCode@CUsrAddListDlg@@QAEXXZ ; CUsrAddListDlg::AddELWIndexCode
$LN2@WindowProc:

; 391  : 	return CRscDlg::WindowProc(message, wParam, lParam);

  001df	53		 push	 ebx
  001e0	ff 75 0c	 push	 DWORD PTR _wParam$[ebp]
  001e3	8b ce		 mov	 ecx, esi
  001e5	57		 push	 edi
  001e6	e8 00 00 00 00	 call	 ?WindowProc@CWnd@@MAEJIIJ@Z ; CWnd::WindowProc
  001eb	5f		 pop	 edi
  001ec	5e		 pop	 esi
  001ed	5b		 pop	 ebx

; 392  : }

  001ee	5d		 pop	 ebp
  001ef	c2 0c 00	 ret	 12			; 0000000cH
  001f2	66 90		 npad	 2
$LN54@WindowProc:
  001f4	00 00 00 00	 DD	 $LN5@WindowProc
  001f8	00 00 00 00	 DD	 $LN13@WindowProc
  001fc	00 00 00 00	 DD	 $LN14@WindowProc
  00200	00 00 00 00	 DD	 $LN16@WindowProc
  00204	00 00 00 00	 DD	 $LN17@WindowProc
  00208	00 00 00 00	 DD	 $LN18@WindowProc
  0020c	00 00 00 00	 DD	 $LN22@WindowProc
  00210	00 00 00 00	 DD	 $LN2@WindowProc
$LN53@WindowProc:
  00214	00		 DB	 0
  00215	00		 DB	 0
  00216	07		 DB	 7
  00217	01		 DB	 1
  00218	00		 DB	 0
  00219	07		 DB	 7
  0021a	07		 DB	 7
  0021b	07		 DB	 7
  0021c	07		 DB	 7
  0021d	07		 DB	 7
  0021e	07		 DB	 7
  0021f	07		 DB	 7
  00220	07		 DB	 7
  00221	07		 DB	 7
  00222	07		 DB	 7
  00223	07		 DB	 7
  00224	07		 DB	 7
  00225	07		 DB	 7
  00226	07		 DB	 7
  00227	07		 DB	 7
  00228	07		 DB	 7
  00229	07		 DB	 7
  0022a	07		 DB	 7
  0022b	07		 DB	 7
  0022c	07		 DB	 7
  0022d	07		 DB	 7
  0022e	07		 DB	 7
  0022f	07		 DB	 7
  00230	07		 DB	 7
  00231	07		 DB	 7
  00232	02		 DB	 2
  00233	07		 DB	 7
  00234	03		 DB	 3
  00235	04		 DB	 4
  00236	07		 DB	 7
  00237	07		 DB	 7
  00238	07		 DB	 7
  00239	07		 DB	 7
  0023a	07		 DB	 7
  0023b	07		 DB	 7
  0023c	07		 DB	 7
  0023d	07		 DB	 7
  0023e	07		 DB	 7
  0023f	07		 DB	 7
  00240	07		 DB	 7
  00241	07		 DB	 7
  00242	07		 DB	 7
  00243	07		 DB	 7
  00244	07		 DB	 7
  00245	07		 DB	 7
  00246	07		 DB	 7
  00247	07		 DB	 7
  00248	07		 DB	 7
  00249	07		 DB	 7
  0024a	07		 DB	 7
  0024b	07		 DB	 7
  0024c	07		 DB	 7
  0024d	07		 DB	 7
  0024e	07		 DB	 7
  0024f	07		 DB	 7
  00250	07		 DB	 7
  00251	07		 DB	 7
  00252	07		 DB	 7
  00253	07		 DB	 7
  00254	07		 DB	 7
  00255	07		 DB	 7
  00256	07		 DB	 7
  00257	07		 DB	 7
  00258	07		 DB	 7
  00259	07		 DB	 7
  0025a	07		 DB	 7
  0025b	07		 DB	 7
  0025c	07		 DB	 7
  0025d	07		 DB	 7
  0025e	07		 DB	 7
  0025f	07		 DB	 7
  00260	07		 DB	 7
  00261	07		 DB	 7
  00262	07		 DB	 7
  00263	07		 DB	 7
  00264	07		 DB	 7
  00265	07		 DB	 7
  00266	07		 DB	 7
  00267	07		 DB	 7
  00268	07		 DB	 7
  00269	07		 DB	 7
  0026a	07		 DB	 7
  0026b	07		 DB	 7
  0026c	07		 DB	 7
  0026d	07		 DB	 7
  0026e	07		 DB	 7
  0026f	07		 DB	 7
  00270	07		 DB	 7
  00271	07		 DB	 7
  00272	07		 DB	 7
  00273	07		 DB	 7
  00274	07		 DB	 7
  00275	07		 DB	 7
  00276	07		 DB	 7
  00277	07		 DB	 7
  00278	07		 DB	 7
  00279	07		 DB	 7
  0027a	07		 DB	 7
  0027b	05		 DB	 5
  0027c	07		 DB	 7
  0027d	07		 DB	 7
  0027e	07		 DB	 7
  0027f	07		 DB	 7
  00280	07		 DB	 7
  00281	07		 DB	 7
  00282	07		 DB	 7
  00283	07		 DB	 7
  00284	07		 DB	 7
  00285	07		 DB	 7
  00286	07		 DB	 7
  00287	07		 DB	 7
  00288	07		 DB	 7
  00289	07		 DB	 7
  0028a	07		 DB	 7
  0028b	07		 DB	 7
  0028c	07		 DB	 7
  0028d	07		 DB	 7
  0028e	07		 DB	 7
  0028f	06		 DB	 6
?WindowProc@CLeftBarDlg@@MAEJIIJ@Z ENDP			; CLeftBarDlg::WindowProc
_TEXT	ENDS
; Function compile flags: /Ogtp
; File D:\git\src\IBK\IBK_DRFN\ProjSrc\SrcDrfn\Chart\comparechart\LeftBarDlg.cpp
;	COMDAT ?DoDataExchange@CLeftBarDlg@@MAEXPAVCDataExchange@@@Z
_TEXT	SEGMENT
_pDX$ = 8						; size = 4
?DoDataExchange@CLeftBarDlg@@MAEXPAVCDataExchange@@@Z PROC ; CLeftBarDlg::DoDataExchange, COMDAT
; _this$ = ecx

; 73   : {

  00000	55		 push	 ebp
  00001	8b ec		 mov	 ebp, esp
  00003	56		 push	 esi

; 74   : 	CRscDlg::DoDataExchange(pDX);

  00004	ff 75 08	 push	 DWORD PTR _pDX$[ebp]
  00007	8b f1		 mov	 esi, ecx
  00009	e8 00 00 00 00	 call	 ?DoDataExchange@CRscDlg@@MAEXPAVCDataExchange@@@Z ; CRscDlg::DoDataExchange

; 75   : 	//{{AFX_DATA_MAP(CLeftBarDlg)
; 76   : //	DDX_Control(pDX, IDC_BTHIDECHART, m_btHideChart);
; 77   : 	DDX_Control(pDX, IDC_TAB, m_tabctrl);

  0000e	8d 86 e8 07 00
	00		 lea	 eax, DWORD PTR [esi+2024]
  00014	50		 push	 eax
  00015	68 70 17 00 00	 push	 6000			; 00001770H
  0001a	ff 75 08	 push	 DWORD PTR _pDX$[ebp]
  0001d	e8 00 00 00 00	 call	 ?DDX_Control@@YGXPAVCDataExchange@@HAAVCWnd@@@Z ; DDX_Control
  00022	5e		 pop	 esi

; 78   : 	//}}AFX_DATA_MAP
; 79   : }

  00023	5d		 pop	 ebp
  00024	c2 04 00	 ret	 4
?DoDataExchange@CLeftBarDlg@@MAEXPAVCDataExchange@@@Z ENDP ; CLeftBarDlg::DoDataExchange
_TEXT	ENDS
; Function compile flags: /Ogtp
; File D:\git\src\IBK\IBK_DRFN\ProjSrc\SrcDrfn\Chart\comparechart\LeftBarDlg.cpp
; File C:\Program Files (x86)\Microsoft Visual Studio\2019\Community\VC\Tools\MSVC\14.29.30133\atlmfc\include\afxwin2.inl
; File D:\git\src\IBK\IBK_DRFN\ProjSrc\SrcDrfn\Chart\comparechart\LeftBarDlg.cpp
;	COMDAT ?PreTranslateMessage@CLeftBarDlg@@UAEHPAUtagMSG@@@Z
_TEXT	SEGMENT
_pMsg$ = 8						; size = 4
?PreTranslateMessage@CLeftBarDlg@@UAEHPAUtagMSG@@@Z PROC ; CLeftBarDlg::PreTranslateMessage, COMDAT
; _this$ = ecx

; 543  : {

  00000	55		 push	 ebp
  00001	8b ec		 mov	 ebp, esp
  00003	56		 push	 esi

; 544  : 	// TODO: Add your specialized code here and/or call the base class
; 545  : 	if(pMsg->wParam == VK_HOME)

  00004	8b 75 08	 mov	 esi, DWORD PTR _pMsg$[ebp]
  00007	57		 push	 edi
  00008	8b f9		 mov	 edi, ecx
  0000a	83 7e 08 24	 cmp	 DWORD PTR [esi+8], 36	; 00000024H
  0000e	75 08		 jne	 SHORT $LN2@PreTransla

; 546  : 			return FALSE;

  00010	5f		 pop	 edi
  00011	33 c0		 xor	 eax, eax

; 553  : }

  00013	5e		 pop	 esi
  00014	5d		 pop	 ebp
  00015	c2 04 00	 ret	 4
$LN2@PreTransla:

; 547  : 
; 548  : 	if(::IsWindow(m_hWnd))

  00018	ff 77 20	 push	 DWORD PTR [edi+32]
  0001b	ff 15 00 00 00
	00		 call	 DWORD PTR __imp__IsWindow@4
  00021	85 c0		 test	 eax, eax
  00023	74 20		 je	 SHORT $LN3@PreTransla
; File C:\Program Files (x86)\Microsoft Visual Studio\2019\Community\VC\Tools\MSVC\14.29.30133\atlmfc\include\afxwin2.inl

; 213  : 	{ ASSERT(::IsWindow(m_hWnd)); return CWnd::FromHandle(::GetParent(m_hWnd)); }

  00025	ff 77 20	 push	 DWORD PTR [edi+32]
  00028	ff 15 00 00 00
	00		 call	 DWORD PTR __imp__GetParent@4
  0002e	50		 push	 eax
  0002f	e8 00 00 00 00	 call	 ?FromHandle@CWnd@@SGPAV1@PAUHWND__@@@Z ; CWnd::FromHandle
; File D:\git\src\IBK\IBK_DRFN\ProjSrc\SrcDrfn\Chart\comparechart\LeftBarDlg.cpp

; 550  : 		return GetParent()->PreTranslateMessage(pMsg);

  00034	56		 push	 esi
  00035	8b c8		 mov	 ecx, eax
  00037	8b 10		 mov	 edx, DWORD PTR [eax]
  00039	ff 92 14 01 00
	00		 call	 DWORD PTR [edx+276]
  0003f	5f		 pop	 edi

; 553  : }

  00040	5e		 pop	 esi
  00041	5d		 pop	 ebp
  00042	c2 04 00	 ret	 4
$LN3@PreTransla:

; 551  : 	else
; 552  : 		return CRscDlg::PreTranslateMessage(pMsg);	

  00045	56		 push	 esi
  00046	8b cf		 mov	 ecx, edi
  00048	e8 00 00 00 00	 call	 ?PreTranslateMessage@CDialog@@UAEHPAUtagMSG@@@Z ; CDialog::PreTranslateMessage
  0004d	5f		 pop	 edi

; 553  : }

  0004e	5e		 pop	 esi
  0004f	5d		 pop	 ebp
  00050	c2 04 00	 ret	 4
?PreTranslateMessage@CLeftBarDlg@@UAEHPAUtagMSG@@@Z ENDP ; CLeftBarDlg::PreTranslateMessage
_TEXT	ENDS
; Function compile flags: /Ogtp
; File D:\git\src\IBK\IBK_DRFN\ProjSrc\SrcDrfn\Chart\comparechart\LeftBarDlg.cpp
; File C:\Program Files (x86)\Microsoft Visual Studio\2019\Community\VC\Tools\MSVC\14.29.30133\atlmfc\include\afxcmn.inl
; File D:\git\src\IBK\IBK_DRFN\ProjSrc\SrcDrfn\Chart\comparechart\LeftBarDlg.cpp
;	COMDAT ?SetConfig@CLeftBarDlg@@QAEXH@Z
_TEXT	SEGMENT
_bLoad$ = 8						; size = 4
?SetConfig@CLeftBarDlg@@QAEXH@Z PROC			; CLeftBarDlg::SetConfig, COMDAT
; _this$ = ecx

; 184  : {	

  00000	55		 push	 ebp
  00001	8b ec		 mov	 ebp, esp

; 185  : 	if(bLoad)

  00003	83 7d 08 00	 cmp	 DWORD PTR _bLoad$[ebp], 0
  00007	74 15		 je	 SHORT $LN2@SetConfig
; File C:\Program Files (x86)\Microsoft Visual Studio\2019\Community\VC\Tools\MSVC\14.29.30133\atlmfc\include\afxcmn.inl

; 588  : 	{ ASSERT(::IsWindow(m_hWnd)); return (int)::SendMessage(m_hWnd, TCM_SETCURSEL, nItem, 0L); }

  00009	6a 00		 push	 0
  0000b	6a 00		 push	 0
  0000d	68 0c 13 00 00	 push	 4876			; 0000130cH
  00012	ff b1 08 08 00
	00		 push	 DWORD PTR [ecx+2056]
  00018	ff 15 00 00 00
	00		 call	 DWORD PTR __imp__SendMessageA@16
$LN2@SetConfig:
; File D:\git\src\IBK\IBK_DRFN\ProjSrc\SrcDrfn\Chart\comparechart\LeftBarDlg.cpp

; 192  : }

  0001e	5d		 pop	 ebp
  0001f	c2 04 00	 ret	 4
?SetConfig@CLeftBarDlg@@QAEXH@Z ENDP			; CLeftBarDlg::SetConfig
_TEXT	ENDS
; Function compile flags: /Ogtp
; File D:\git\src\IBK\IBK_DRFN\ProjSrc\SrcDrfn\Chart\comparechart\LeftBarDlg.cpp
;	COMDAT ?GetEnableWindow@CLeftBarDlg@@QAEHXZ
_TEXT	SEGMENT
?GetEnableWindow@CLeftBarDlg@@QAEHXZ PROC		; CLeftBarDlg::GetEnableWindow, COMDAT
; _this$ = ecx

; 517  : 	return m_bEnable;

  00000	8b 81 38 09 00
	00		 mov	 eax, DWORD PTR [ecx+2360]

; 518  : }

  00006	c3		 ret	 0
?GetEnableWindow@CLeftBarDlg@@QAEHXZ ENDP		; CLeftBarDlg::GetEnableWindow
_TEXT	ENDS
; Function compile flags: /Ogtp
; File D:\git\src\IBK\IBK_DRFN\ProjSrc\SrcDrfn\Chart\comparechart\LeftBarDlg.cpp
;	COMDAT ?EnableWindow@CLeftBarDlg@@QAEHH@Z
_TEXT	SEGMENT
_bEnable$ = 8						; size = 4
?EnableWindow@CLeftBarDlg@@QAEHH@Z PROC			; CLeftBarDlg::EnableWindow, COMDAT
; _this$ = ecx

; 510  : {

  00000	55		 push	 ebp
  00001	8b ec		 mov	 ebp, esp

; 511  : 	m_bEnable = bEnable;

  00003	8b 45 08	 mov	 eax, DWORD PTR _bEnable$[ebp]
  00006	89 81 38 09 00
	00		 mov	 DWORD PTR [ecx+2360], eax

; 512  : 	return CRscDlg::EnableWindow(bEnable);

  0000c	89 45 08	 mov	 DWORD PTR _bEnable$[ebp], eax

; 513  : }

  0000f	5d		 pop	 ebp

; 512  : 	return CRscDlg::EnableWindow(bEnable);

  00010	e9 00 00 00 00	 jmp	 ?EnableWindow@CWnd@@QAEHH@Z ; CWnd::EnableWindow
?EnableWindow@CLeftBarDlg@@QAEHH@Z ENDP			; CLeftBarDlg::EnableWindow
_TEXT	ENDS
; Function compile flags: /Ogtp
; File D:\git\src\IBK\IBK_DRFN\ProjSrc\SrcDrfn\Chart\comparechart\LeftBarDlg.cpp
;	COMDAT ?GetPacketFromOutSide@CLeftBarDlg@@QAE?AV?$CStringT@DV?$StrTraitMFC_DLL@DV?$ChTraitsCRT@D@ATL@@@@@ATL@@XZ
_TEXT	SEGMENT
___$ReturnUdt$ = 8					; size = 4
?GetPacketFromOutSide@CLeftBarDlg@@QAE?AV?$CStringT@DV?$StrTraitMFC_DLL@DV?$ChTraitsCRT@D@ATL@@@@@ATL@@XZ PROC ; CLeftBarDlg::GetPacketFromOutSide, COMDAT
; _this$ = ecx

; 493  : {		

  00000	55		 push	 ebp
  00001	8b ec		 mov	 ebp, esp

; 494  : 	return m_strPacketFromOutSide;

  00003	8d 81 34 09 00
	00		 lea	 eax, DWORD PTR [ecx+2356]
  00009	8b 4d 08	 mov	 ecx, DWORD PTR ___$ReturnUdt$[ebp]
  0000c	50		 push	 eax
  0000d	ff 15 00 00 00
	00		 call	 DWORD PTR __imp_??0?$CStringT@DV?$StrTraitMFC_DLL@DV?$ChTraitsCRT@D@ATL@@@@@ATL@@QAE@ABV01@@Z
  00013	8b 45 08	 mov	 eax, DWORD PTR ___$ReturnUdt$[ebp]

; 495  : }

  00016	5d		 pop	 ebp
  00017	c2 04 00	 ret	 4
?GetPacketFromOutSide@CLeftBarDlg@@QAE?AV?$CStringT@DV?$StrTraitMFC_DLL@DV?$ChTraitsCRT@D@ATL@@@@@ATL@@XZ ENDP ; CLeftBarDlg::GetPacketFromOutSide
_TEXT	ENDS
; Function compile flags: /Ogtp
; File D:\git\src\IBK\IBK_DRFN\ProjSrc\SrcDrfn\Chart\comparechart\LeftBarDlg.cpp
; File C:\Program Files (x86)\Microsoft Visual Studio\2019\Community\VC\Tools\MSVC\14.29.30133\atlmfc\include\afxwin2.inl
; File D:\git\src\IBK\IBK_DRFN\ProjSrc\SrcDrfn\Chart\comparechart\LeftBarDlg.cpp
; File C:\Program Files (x86)\Microsoft Visual Studio\2019\Community\VC\Tools\MSVC\14.29.30133\atlmfc\include\afxwin2.inl
; File D:\git\src\IBK\IBK_DRFN\ProjSrc\SrcDrfn\Chart\comparechart\LeftBarDlg.cpp
;	COMDAT ?SetPacketFromOutSide@CLeftBarDlg@@QAEXV?$CStringT@DV?$StrTraitMFC_DLL@DV?$ChTraitsCRT@D@ATL@@@@@ATL@@@Z
_TEXT	SEGMENT
__$EHRec$ = -12						; size = 12
_strPacketFromOutSide$ = 8				; size = 4
?SetPacketFromOutSide@CLeftBarDlg@@QAEXV?$CStringT@DV?$StrTraitMFC_DLL@DV?$ChTraitsCRT@D@ATL@@@@@ATL@@@Z PROC ; CLeftBarDlg::SetPacketFromOutSide, COMDAT
; _this$ = ecx

; 482  : {	

  00000	55		 push	 ebp
  00001	8b ec		 mov	 ebp, esp
  00003	6a ff		 push	 -1
  00005	68 00 00 00 00	 push	 __ehhandler$?SetPacketFromOutSide@CLeftBarDlg@@QAEXV?$CStringT@DV?$StrTraitMFC_DLL@DV?$ChTraitsCRT@D@ATL@@@@@ATL@@@Z
  0000a	64 a1 00 00 00
	00		 mov	 eax, DWORD PTR fs:0
  00010	50		 push	 eax
  00011	56		 push	 esi
  00012	57		 push	 edi
  00013	a1 00 00 00 00	 mov	 eax, DWORD PTR ___security_cookie
  00018	33 c5		 xor	 eax, ebp
  0001a	50		 push	 eax
  0001b	8d 45 f4	 lea	 eax, DWORD PTR __$EHRec$[ebp]
  0001e	64 a3 00 00 00
	00		 mov	 DWORD PTR fs:0, eax
  00024	8b f9		 mov	 edi, ecx

; 483  : 	m_strPacketFromOutSide.Empty();

  00026	8d 8f 34 09 00
	00		 lea	 ecx, DWORD PTR [edi+2356]
  0002c	c7 45 fc 00 00
	00 00		 mov	 DWORD PTR __$EHRec$[ebp+8], 0
  00033	ff 15 00 00 00
	00		 call	 DWORD PTR __imp_?Empty@?$CSimpleStringT@D$00@ATL@@QAEXXZ

; 484  : 	m_strPacketFromOutSide = strPacketFromOutSide;

  00039	8d 45 08	 lea	 eax, DWORD PTR _strPacketFromOutSide$[ebp]
  0003c	50		 push	 eax
  0003d	8d 8f 34 09 00
	00		 lea	 ecx, DWORD PTR [edi+2356]
  00043	ff 15 00 00 00
	00		 call	 DWORD PTR __imp_??4?$CStringT@DV?$StrTraitMFC_DLL@DV?$ChTraitsCRT@D@ATL@@@@@ATL@@QAEAAV01@ABV01@@Z

; 485  : 	if(m_pChartMng->GetSafeHwnd()) // 2005. 04. 22 by Nam

  00049	8b 87 28 09 00
	00		 mov	 eax, DWORD PTR [edi+2344]
; File C:\Program Files (x86)\Microsoft Visual Studio\2019\Community\VC\Tools\MSVC\14.29.30133\atlmfc\include\afxwin2.inl

; 25   : 	{ return this == NULL ? NULL : m_hWnd; }

  0004f	85 c0		 test	 eax, eax
  00051	74 17		 je	 SHORT $LN2@SetPacketF
  00053	8b 40 20	 mov	 eax, DWORD PTR [eax+32]
; File D:\git\src\IBK\IBK_DRFN\ProjSrc\SrcDrfn\Chart\comparechart\LeftBarDlg.cpp

; 485  : 	if(m_pChartMng->GetSafeHwnd()) // 2005. 04. 22 by Nam

  00056	85 c0		 test	 eax, eax
  00058	74 10		 je	 SHORT $LN2@SetPacketF
; File C:\Program Files (x86)\Microsoft Visual Studio\2019\Community\VC\Tools\MSVC\14.29.30133\atlmfc\include\afxwin2.inl

; 32   : 	{ ASSERT(::IsWindow(m_hWnd)); return ::SendMessage(m_hWnd, message, wParam, lParam); }

  0005a	6a 00		 push	 0
  0005c	6a 00		 push	 0
  0005e	68 12 04 00 00	 push	 1042			; 00000412H
  00063	50		 push	 eax
  00064	ff 15 00 00 00
	00		 call	 DWORD PTR __imp__SendMessageA@16
$LN2@SetPacketF:
; File D:\git\src\IBK\IBK_DRFN\ProjSrc\SrcDrfn\Chart\comparechart\LeftBarDlg.cpp

; 487  : 	CTabDlg *pTabDlg = m_tabctrl.GetWndCodeSearch();

  0006a	8b 8f f8 08 00
	00		 mov	 ecx, DWORD PTR [edi+2296]

; 488  : 	pTabDlg->ReceiveDataFromOutSide();

  00070	8b 01		 mov	 eax, DWORD PTR [ecx]
  00072	ff 90 a4 01 00
	00		 call	 DWORD PTR [eax+420]

; 489  : 	m_tabctrl.ShowTab(TABNO_CODESEARCH);

  00078	6a 00		 push	 0
  0007a	8d 8f e8 07 00
	00		 lea	 ecx, DWORD PTR [edi+2024]
  00080	e8 00 00 00 00	 call	 ?ShowTab@CXTabCtrl@@QAEXH@Z ; CXTabCtrl::ShowTab

; 490  : }

  00085	8d 4d 08	 lea	 ecx, DWORD PTR _strPacketFromOutSide$[ebp]
  00088	ff 15 00 00 00
	00		 call	 DWORD PTR __imp_??1?$CStringT@DV?$StrTraitMFC_DLL@DV?$ChTraitsCRT@D@ATL@@@@@ATL@@QAE@XZ
  0008e	8b 4d f4	 mov	 ecx, DWORD PTR __$EHRec$[ebp]
  00091	64 89 0d 00 00
	00 00		 mov	 DWORD PTR fs:0, ecx
  00098	59		 pop	 ecx
  00099	5f		 pop	 edi
  0009a	5e		 pop	 esi
  0009b	8b e5		 mov	 esp, ebp
  0009d	5d		 pop	 ebp
  0009e	c2 04 00	 ret	 4
_TEXT	ENDS
;	COMDAT text$x
text$x	SEGMENT
__unwindfunclet$?SetPacketFromOutSide@CLeftBarDlg@@QAEXV?$CStringT@DV?$StrTraitMFC_DLL@DV?$ChTraitsCRT@D@ATL@@@@@ATL@@@Z$0:
  00000	8d 4d 08	 lea	 ecx, DWORD PTR _strPacketFromOutSide$[ebp]
  00003	ff 25 00 00 00
	00		 jmp	 DWORD PTR __imp_??1?$CStringT@DV?$StrTraitMFC_DLL@DV?$ChTraitsCRT@D@ATL@@@@@ATL@@QAE@XZ
  00009	cc		 int	 3
  0000a	cc		 int	 3
  0000b	cc		 int	 3
  0000c	cc		 int	 3
  0000d	cc		 int	 3
__ehhandler$?SetPacketFromOutSide@CLeftBarDlg@@QAEXV?$CStringT@DV?$StrTraitMFC_DLL@DV?$ChTraitsCRT@D@ATL@@@@@ATL@@@Z:
  0000e	90		 npad	 1
  0000f	90		 npad	 1
  00010	8b 54 24 08	 mov	 edx, DWORD PTR [esp+8]
  00014	8d 42 0c	 lea	 eax, DWORD PTR [edx+12]
  00017	8b 4a f4	 mov	 ecx, DWORD PTR [edx-12]
  0001a	33 c8		 xor	 ecx, eax
  0001c	e8 00 00 00 00	 call	 @__security_check_cookie@4
  00021	b8 00 00 00 00	 mov	 eax, OFFSET __ehfuncinfo$?SetPacketFromOutSide@CLeftBarDlg@@QAEXV?$CStringT@DV?$StrTraitMFC_DLL@DV?$ChTraitsCRT@D@ATL@@@@@ATL@@@Z
  00026	e9 00 00 00 00	 jmp	 ___CxxFrameHandler3
text$x	ENDS
?SetPacketFromOutSide@CLeftBarDlg@@QAEXV?$CStringT@DV?$StrTraitMFC_DLL@DV?$ChTraitsCRT@D@ATL@@@@@ATL@@@Z ENDP ; CLeftBarDlg::SetPacketFromOutSide
; Function compile flags: /Ogtp
; File D:\git\src\IBK\IBK_DRFN\ProjSrc\SrcDrfn\Chart\comparechart\LeftBarDlg.cpp
;	COMDAT ?ReceiveData@CLeftBarDlg@@QAEJPAUHWND__@@PBD11PAXJ@Z
_TEXT	SEGMENT
_hTrComm$ = 8						; size = 4
_szTR$ = 12						; size = 4
_szMsgCode$ = 16					; size = 4
_szMessage$ = 20					; size = 4
_aTRData$ = 24						; size = 4
_dwTRDateLen$ = 28					; size = 4
?ReceiveData@CLeftBarDlg@@QAEJPAUHWND__@@PBD11PAXJ@Z PROC ; CLeftBarDlg::ReceiveData, COMDAT
; _this$ = ecx

; 210  : {

  00000	55		 push	 ebp
  00001	8b ec		 mov	 ebp, esp

; 211  : 	CTabDlg *ptabDlg = (CTabDlg *)m_tabctrl.GetWndFocused();
; 212  : 	if(ptabDlg)

  00003	8b 55 14	 mov	 edx, DWORD PTR _szMessage$[ebp]
  00006	56		 push	 esi
  00007	8b f1		 mov	 esi, ecx
  00009	8b 8e f4 08 00
	00		 mov	 ecx, DWORD PTR [esi+2292]
  0000f	85 c9		 test	 ecx, ecx
  00011	74 1b		 je	 SHORT $LN2@ReceiveDat

; 213  : 	{
; 214  : 		ptabDlg->ReceiveData( hTrComm,  szTR,  szMsgCode,  szMessage,  aTRData,  dwTRDateLen);

  00013	ff 75 1c	 push	 DWORD PTR _dwTRDateLen$[ebp]
  00016	8b 01		 mov	 eax, DWORD PTR [ecx]
  00018	ff 75 18	 push	 DWORD PTR _aTRData$[ebp]
  0001b	52		 push	 edx
  0001c	ff 75 10	 push	 DWORD PTR _szMsgCode$[ebp]
  0001f	ff 75 0c	 push	 DWORD PTR _szTR$[ebp]
  00022	ff 75 08	 push	 DWORD PTR _hTrComm$[ebp]
  00025	ff 90 9c 01 00
	00		 call	 DWORD PTR [eax+412]
  0002b	8b 55 14	 mov	 edx, DWORD PTR _szMessage$[ebp]
$LN2@ReceiveDat:

; 215  : 	}	
; 216  : 	ptabDlg = (CTabDlg *)m_tabctrl.GetWndCodeSearch();

  0002e	8b 8e f8 08 00
	00		 mov	 ecx, DWORD PTR [esi+2296]
  00034	5e		 pop	 esi

; 217  : 	if(ptabDlg)

  00035	85 c9		 test	 ecx, ecx
  00037	74 18		 je	 SHORT $LN5@ReceiveDat

; 218  : 	{
; 219  : 		ptabDlg->ReceiveData( hTrComm,  szTR,  szMsgCode,  szMessage,  aTRData,  dwTRDateLen);

  00039	ff 75 1c	 push	 DWORD PTR _dwTRDateLen$[ebp]
  0003c	8b 01		 mov	 eax, DWORD PTR [ecx]
  0003e	ff 75 18	 push	 DWORD PTR _aTRData$[ebp]
  00041	52		 push	 edx
  00042	ff 75 10	 push	 DWORD PTR _szMsgCode$[ebp]
  00045	ff 75 0c	 push	 DWORD PTR _szTR$[ebp]
  00048	ff 75 08	 push	 DWORD PTR _hTrComm$[ebp]
  0004b	ff 90 9c 01 00
	00		 call	 DWORD PTR [eax+412]
$LN5@ReceiveDat:

; 220  : 	}
; 221  : 	return NULL;
; 222  : }

  00051	33 c0		 xor	 eax, eax
  00053	5d		 pop	 ebp
  00054	c2 18 00	 ret	 24			; 00000018H
?ReceiveData@CLeftBarDlg@@QAEJPAUHWND__@@PBD11PAXJ@Z ENDP ; CLeftBarDlg::ReceiveData
_TEXT	ENDS
; Function compile flags: /Ogtp
; File D:\git\src\IBK\IBK_DRFN\ProjSrc\SrcDrfn\Chart\comparechart\LeftBarDlg.cpp
;	COMDAT ?GetIndicatorNameListIntoTreeCtrl@CLeftBarDlg@@QAEXAAVCTreeCtrl@@@Z
_TEXT	SEGMENT
_rxtreeCtrl$ = 8					; size = 4
?GetIndicatorNameListIntoTreeCtrl@CLeftBarDlg@@QAEXAAVCTreeCtrl@@@Z PROC ; CLeftBarDlg::GetIndicatorNameListIntoTreeCtrl, COMDAT
; _this$ = ecx

; 239  : {

  00000	55		 push	 ebp
  00001	8b ec		 mov	 ebp, esp

; 240  : 	//Han Hwa ======================================
; 241  : 	if(
; 242  : 		(m_pChartMng == NULL) ||

  00003	8b 89 28 09 00
	00		 mov	 ecx, DWORD PTR [ecx+2344]
  00009	85 c9		 test	 ecx, ecx
  0000b	74 0c		 je	 SHORT $LN3@GetIndicat
  0000d	83 79 20 00	 cmp	 DWORD PTR [ecx+32], 0
  00011	74 06		 je	 SHORT $LN3@GetIndicat

; 255  : 		}		
; 256  : 	}
; 257  : 	
; 258  : }

  00013	5d		 pop	 ebp

; 243  : 		(m_pChartMng->GetSafeHwnd() == NULL) 
; 244  : 		)
; 245  : 		return;
; 246  : 	//Han Hwa ======================================
; 247  : 
; 248  : 	//VERIFY(m_pChartMng);
; 249  : 	//VERIFY(m_pChartMng->GetSafeHwnd());
; 250  : 	if(m_pChartMng)
; 251  : 	{
; 252  : 		if(m_pChartMng->GetSafeHwnd())
; 253  : 		{
; 254  : 			m_pChartMng->GetIndicatorNameListIntoTreeCtrl(rxtreeCtrl);

  00014	e9 00 00 00 00	 jmp	 ?GetIndicatorNameListIntoTreeCtrl@CChartMng@@QAEXAAVCTreeCtrl@@@Z ; CChartMng::GetIndicatorNameListIntoTreeCtrl
$LN3@GetIndicat:

; 255  : 		}		
; 256  : 	}
; 257  : 	
; 258  : }

  00019	5d		 pop	 ebp
  0001a	c2 04 00	 ret	 4
?GetIndicatorNameListIntoTreeCtrl@CLeftBarDlg@@QAEXAAVCTreeCtrl@@@Z ENDP ; CLeftBarDlg::GetIndicatorNameListIntoTreeCtrl
_TEXT	ENDS
; Function compile flags: /Ogtp
; File D:\git\src\IBK\IBK_DRFN\ProjSrc\SrcDrfn\Chart\comparechart\LeftBarDlg.cpp
;	COMDAT ?GetIndicatorNameListIntoListCtrl@CLeftBarDlg@@QAEXAAVCXListCtrl@@PBD@Z
_TEXT	SEGMENT
_rxlistCtrl$ = 8					; size = 4
_p_strGroup$ = 12					; size = 4
?GetIndicatorNameListIntoListCtrl@CLeftBarDlg@@QAEXAAVCXListCtrl@@PBD@Z PROC ; CLeftBarDlg::GetIndicatorNameListIntoListCtrl, COMDAT
; _this$ = ecx

; 225  : {

  00000	55		 push	 ebp
  00001	8b ec		 mov	 ebp, esp

; 226  : 	VERIFY(m_pChartMng);
; 227  : 	VERIFY(m_pChartMng->GetSafeHwnd());
; 228  : 	if(m_pChartMng)

  00003	8b 89 28 09 00
	00		 mov	 ecx, DWORD PTR [ecx+2344]
  00009	85 c9		 test	 ecx, ecx
  0000b	74 0c		 je	 SHORT $LN3@GetIndicat

; 229  : 	{
; 230  : 		if(m_pChartMng->GetSafeHwnd())

  0000d	83 79 20 00	 cmp	 DWORD PTR [ecx+32], 0
  00011	74 06		 je	 SHORT $LN3@GetIndicat

; 233  : 		}		
; 234  : 	}
; 235  : 	
; 236  : }

  00013	5d		 pop	 ebp

; 231  : 		{
; 232  : 			m_pChartMng->GetIndicatorNameListIntoListCtrl(rxlistCtrl, p_strGroup);

  00014	e9 00 00 00 00	 jmp	 ?GetIndicatorNameListIntoListCtrl@CChartMng@@QAEXAAVCXListCtrl@@PBD@Z ; CChartMng::GetIndicatorNameListIntoListCtrl
$LN3@GetIndicat:

; 233  : 		}		
; 234  : 	}
; 235  : 	
; 236  : }

  00019	5d		 pop	 ebp
  0001a	c2 08 00	 ret	 8
?GetIndicatorNameListIntoListCtrl@CLeftBarDlg@@QAEXAAVCXListCtrl@@PBD@Z ENDP ; CLeftBarDlg::GetIndicatorNameListIntoListCtrl
_TEXT	ENDS
; Function compile flags: /Ogtp
; File D:\git\src\IBK\IBK_DRFN\ProjSrc\SrcDrfn\Chart\comparechart\LeftBarDlg.cpp
;	COMDAT ?GetCodeMasterArray@CLeftBarDlg@@QAEJJAAVCStringArray@@0@Z
_TEXT	SEGMENT
_lGubun$ = 8						; size = 4
_arCode$ = 12						; size = 4
_arName$ = 16						; size = 4
?GetCodeMasterArray@CLeftBarDlg@@QAEJJAAVCStringArray@@0@Z PROC ; CLeftBarDlg::GetCodeMasterArray, COMDAT
; _this$ = ecx

; 425  : 	/*=====================================================================
; 426  : 		-> 종목 코드로 종목 명을 찾는다.
; 427  : 	  	-> CODE_UPJONGSTOCK  : 장내/코스닥종목, All 업종   에서 종목을 찾는다.
; 428  : 				     : CODE_ALLUPJONG|CODE_LKJONG	
; 429  : 
; 430  : 		-> CODE_ALLUPJONG    : 장내/KOSPI200/KOSDAQ 업종
; 431  : 		-> CODE_LKJONG	     : 장내/코스닥 겸용 
; 432  : 		-> CODE_JONGMOK	     : 상장 종목 ( 거래소 )
; 433  : 		-> CODE_KJONGMOK     : 코스닥 종목 
; 434  : 	========================================================================*/
; 435  : //	if(m_pDBMgr)
; 436  : //	{	
; 437  : //		CStringArray arCode, arName;
; 438  : //		m_pDBMgr->GetMasterData(lGubun, arCode, arName);
; 439  : //		return 1;
; 440  : //	}
; 441  : 
; 442  : 	return 0;

  00000	33 c0		 xor	 eax, eax

; 443  : 
; 444  : /*	CString strMaster = lpMaster;
; 445  : 	if(strMaster=="JMASTER")
; 446  : 	{
; 447  : 		return m_lJMaster;
; 448  : 	}
; 449  : 	else if(strMaster=="KMASTER")
; 450  : 	{
; 451  : 		return m_lKMaster;		
; 452  : 	}
; 453  : 	else if(m_pctrlCode)
; 454  : 	{
; 455  : 		return m_pctrlCode->GetCodePointer(lpMaster);
; 456  : 	}
; 457  : */
; 458  : 	
; 459  : }

  00002	c2 0c 00	 ret	 12			; 0000000cH
?GetCodeMasterArray@CLeftBarDlg@@QAEJJAAVCStringArray@@0@Z ENDP ; CLeftBarDlg::GetCodeMasterArray
_TEXT	ENDS
; Function compile flags: /Ogtp
; File D:\git\src\IBK\IBK_DRFN\ProjSrc\SrcDrfn\Chart\comparechart\LeftBarDlg.cpp
;	COMDAT ?SetRealPriceData@CLeftBarDlg@@QAEXPADH@Z
_TEXT	SEGMENT
_pData$ = 8						; size = 4
_nSize$ = 12						; size = 4
?SetRealPriceData@CLeftBarDlg@@QAEXPADH@Z PROC		; CLeftBarDlg::SetRealPriceData, COMDAT
; _this$ = ecx

; 403  : //	CTabDlg *ptabDlg = (CTabDlg *)m_tabctrl.GetWndFocused();
; 404  : //	if(ptabDlg)
; 405  : //	{
; 406  : //		ptabDlg->SetRealPriceData(pData, nSize);
; 407  : //	}	
; 408  : //	ptabDlg = (CTabDlg *)m_tabctrl.GetWndCodeSearch();
; 409  : //	if(ptabDlg)
; 410  : //	{
; 411  : //		ptabDlg->SetRealPriceData(pData, nSize);
; 412  : //	}
; 413  : }

  00000	c2 08 00	 ret	 8
?SetRealPriceData@CLeftBarDlg@@QAEXPADH@Z ENDP		; CLeftBarDlg::SetRealPriceData
_TEXT	ENDS
; Function compile flags: /Ogtp
; File D:\git\src\IBK\IBK_DRFN\ProjSrc\SrcDrfn\Chart\comparechart\LeftBarDlg.cpp
;	COMDAT ?IsAdvisingCodeOf@CLeftBarDlg@@QAEHPBD@Z
_TEXT	SEGMENT
_lpCode$ = 8						; size = 4
?IsAdvisingCodeOf@CLeftBarDlg@@QAEHPBD@Z PROC		; CLeftBarDlg::IsAdvisingCodeOf, COMDAT
; _this$ = ecx

; 395  : {

  00000	55		 push	 ebp
  00001	8b ec		 mov	 ebp, esp

; 396  : 	return (BOOL)m_Codes.Find(lpCode);

  00003	6a 00		 push	 0
  00005	ff 75 08	 push	 DWORD PTR _lpCode$[ebp]
  00008	81 c1 0c 09 00
	00		 add	 ecx, 2316		; 0000090cH
  0000e	e8 00 00 00 00	 call	 ?Find@CStringList@@QBEPAU__POSITION@@PBDPAU2@@Z ; CStringList::Find

; 397  : }

  00013	5d		 pop	 ebp
  00014	c2 04 00	 ret	 4
?IsAdvisingCodeOf@CLeftBarDlg@@QAEHPBD@Z ENDP		; CLeftBarDlg::IsAdvisingCodeOf
_TEXT	ENDS
; Function compile flags: /Ogtp
; File D:\git\src\IBK\IBK_DRFN\ProjSrc\SrcDrfn\Chart\comparechart\LeftBarDlg.cpp
; File D:\git\src\IBK\IBK_DRFN\ProjSrc\SrcDrfn\Chart\comparechart\UsrAddListDlg.h
; File D:\git\src\IBK\IBK_DRFN\ProjSrc\SrcDrfn\Chart\comparechart\LeftBarDlg.cpp
;	COMDAT ?GetCurItemName@CLeftBarDlg@@QAE?AV?$CStringT@DV?$StrTraitMFC_DLL@DV?$ChTraitsCRT@D@ATL@@@@@ATL@@XZ
_TEXT	SEGMENT
___$ReturnUdt$ = 8					; size = 4
?GetCurItemName@CLeftBarDlg@@QAE?AV?$CStringT@DV?$StrTraitMFC_DLL@DV?$ChTraitsCRT@D@ATL@@@@@ATL@@XZ PROC ; CLeftBarDlg::GetCurItemName, COMDAT
; _this$ = ecx

; 584  : {

  00000	55		 push	 ebp
  00001	8b ec		 mov	 ebp, esp
; File D:\git\src\IBK\IBK_DRFN\ProjSrc\SrcDrfn\Chart\comparechart\UsrAddListDlg.h

; 53   : 	CString GetCodeName() { return m_strOpCodeName; }

  00003	8d 81 84 01 00
	00		 lea	 eax, DWORD PTR [ecx+388]
  00009	8b 4d 08	 mov	 ecx, DWORD PTR ___$ReturnUdt$[ebp]
  0000c	50		 push	 eax
  0000d	ff 15 00 00 00
	00		 call	 DWORD PTR __imp_??0?$CStringT@DV?$StrTraitMFC_DLL@DV?$ChTraitsCRT@D@ATL@@@@@ATL@@QAE@ABV01@@Z
; File D:\git\src\IBK\IBK_DRFN\ProjSrc\SrcDrfn\Chart\comparechart\LeftBarDlg.cpp

; 585  : 	return m_UsrAddListDlg.GetCodeName();

  00013	8b 45 08	 mov	 eax, DWORD PTR ___$ReturnUdt$[ebp]

; 586  : }

  00016	5d		 pop	 ebp
  00017	c2 04 00	 ret	 4
?GetCurItemName@CLeftBarDlg@@QAE?AV?$CStringT@DV?$StrTraitMFC_DLL@DV?$ChTraitsCRT@D@ATL@@@@@ATL@@XZ ENDP ; CLeftBarDlg::GetCurItemName
_TEXT	ENDS
; Function compile flags: /Ogtp
; File D:\git\src\IBK\IBK_DRFN\ProjSrc\SrcDrfn\Chart\comparechart\LeftBarDlg.cpp
;	COMDAT ?GetIndicatorNameListIntoComboBox@CLeftBarDlg@@QAEXAAVCComboBox@@PBD@Z
_TEXT	SEGMENT
_rComboBox$ = 8						; size = 4
_p_strGroup$ = 12					; size = 4
?GetIndicatorNameListIntoComboBox@CLeftBarDlg@@QAEXAAVCComboBox@@PBD@Z PROC ; CLeftBarDlg::GetIndicatorNameListIntoComboBox, COMDAT
; _this$ = ecx

; 527  : {

  00000	55		 push	 ebp
  00001	8b ec		 mov	 ebp, esp

; 528  : #ifdef _DEBUG	
; 529  : 	VERIFY(m_pChartMng);
; 530  : 	if(NULL == m_pChartMng->GetSafeHwnd()) return;
; 531  : 	//VERIFY(m_pChartMng->GetSafeHwnd());
; 532  : #endif
; 533  : 
; 534  : 	if(m_pChartMng)

  00003	8b 89 28 09 00
	00		 mov	 ecx, DWORD PTR [ecx+2344]
  00009	85 c9		 test	 ecx, ecx
  0000b	74 0c		 je	 SHORT $LN3@GetIndicat

; 535  : 	{
; 536  : 		if(m_pChartMng->GetSafeHwnd())

  0000d	83 79 20 00	 cmp	 DWORD PTR [ecx+32], 0
  00011	74 06		 je	 SHORT $LN3@GetIndicat

; 539  : 		}		
; 540  : 	}	
; 541  : }

  00013	5d		 pop	 ebp

; 537  : 		{
; 538  : 			m_pChartMng->GetIndicatorNameListIntoComboBox(rComboBox, p_strGroup);

  00014	e9 00 00 00 00	 jmp	 ?GetIndicatorNameListIntoComboBox@CChartMng@@QAEXAAVCComboBox@@PBD@Z ; CChartMng::GetIndicatorNameListIntoComboBox
$LN3@GetIndicat:

; 539  : 		}		
; 540  : 	}	
; 541  : }

  00019	5d		 pop	 ebp
  0001a	c2 08 00	 ret	 8
?GetIndicatorNameListIntoComboBox@CLeftBarDlg@@QAEXAAVCComboBox@@PBD@Z ENDP ; CLeftBarDlg::GetIndicatorNameListIntoComboBox
_TEXT	ENDS
; Function compile flags: /Ogtp
; File D:\git\src\IBK\IBK_DRFN\ProjSrc\SrcDrfn\Chart\comparechart\LeftBarDlg.cpp
;	COMDAT ?ChangeSkinColor@CLeftBarDlg@@UAEXK@Z
_TEXT	SEGMENT
_clrBackground$ = 8					; size = 4
?ChangeSkinColor@CLeftBarDlg@@UAEXK@Z PROC		; CLeftBarDlg::ChangeSkinColor, COMDAT
; _this$ = ecx

; 565  : {

  00000	55		 push	 ebp
  00001	8b ec		 mov	 ebp, esp
  00003	57		 push	 edi
  00004	8b f9		 mov	 edi, ecx

; 566  : 	m_tabctrl.ChangeSkinColor();

  00006	8d 8f e8 07 00
	00		 lea	 ecx, DWORD PTR [edi+2024]
  0000c	e8 00 00 00 00	 call	 ?ChangeSkinColor@CXTabCtrl@@QAEXXZ ; CXTabCtrl::ChangeSkinColor

; 567  : 	m_UsrAddListDlg.ChangeSkinColor(clrBackground);

  00011	8b 87 b8 00 00
	00		 mov	 eax, DWORD PTR [edi+184]
  00017	8d 8f b8 00 00
	00		 lea	 ecx, DWORD PTR [edi+184]
  0001d	ff 75 08	 push	 DWORD PTR _clrBackground$[ebp]
  00020	ff 90 94 01 00
	00		 call	 DWORD PTR [eax+404]

; 568  : 	CRscDlg::ChangeSkinColor(clrBackground);

  00026	ff 75 08	 push	 DWORD PTR _clrBackground$[ebp]
  00029	8b cf		 mov	 ecx, edi
  0002b	e8 00 00 00 00	 call	 ?ChangeSkinColor@CRscDlg@@UAEXK@Z ; CRscDlg::ChangeSkinColor
  00030	5f		 pop	 edi

; 569  : }

  00031	5d		 pop	 ebp
  00032	c2 04 00	 ret	 4
?ChangeSkinColor@CLeftBarDlg@@UAEXK@Z ENDP		; CLeftBarDlg::ChangeSkinColor
_TEXT	ENDS
; Function compile flags: /Ogtp
; File D:\git\src\IBK\IBK_DRFN\ProjSrc\SrcDrfn\Chart\comparechart\LeftBarDlg.cpp
;	COMDAT ??0CLeftBarDlg@@QAE@PAVCWnd@@@Z
_TEXT	SEGMENT
_this$ = -16						; size = 4
__$EHRec$ = -12						; size = 12
_pParent$ = 8						; size = 4
??0CLeftBarDlg@@QAE@PAVCWnd@@@Z PROC			; CLeftBarDlg::CLeftBarDlg, COMDAT
; _this$ = ecx

; 51   : {

  00000	55		 push	 ebp
  00001	8b ec		 mov	 ebp, esp
  00003	6a ff		 push	 -1
  00005	68 00 00 00 00	 push	 __ehhandler$??0CLeftBarDlg@@QAE@PAVCWnd@@@Z
  0000a	64 a1 00 00 00
	00		 mov	 eax, DWORD PTR fs:0
  00010	50		 push	 eax
  00011	51		 push	 ecx
  00012	56		 push	 esi
  00013	a1 00 00 00 00	 mov	 eax, DWORD PTR ___security_cookie
  00018	33 c5		 xor	 eax, ebp
  0001a	50		 push	 eax
  0001b	8d 45 f4	 lea	 eax, DWORD PTR __$EHRec$[ebp]
  0001e	64 a3 00 00 00
	00		 mov	 DWORD PTR fs:0, eax
  00024	8b f1		 mov	 esi, ecx
  00026	89 75 f0	 mov	 DWORD PTR _this$[ebp], esi

; 50   : 	: CRscDlg(CLeftBarDlg::IDD, pParent)

  00029	ff 75 08	 push	 DWORD PTR _pParent$[ebp]
  0002c	68 70 17 00 00	 push	 6000			; 00001770H
  00031	e8 00 00 00 00	 call	 ??0CRscDlg@@QAE@IPAVCWnd@@@Z ; CRscDlg::CRscDlg

; 51   : {

  00036	6a 00		 push	 0
  00038	8d 8e b8 00 00
	00		 lea	 ecx, DWORD PTR [esi+184]
  0003e	c7 45 fc 00 00
	00 00		 mov	 DWORD PTR __$EHRec$[ebp+8], 0
  00045	c7 06 00 00 00
	00		 mov	 DWORD PTR [esi], OFFSET ??_7CLeftBarDlg@@6B@
  0004b	e8 00 00 00 00	 call	 ??0CUsrAddListDlg@@QAE@PAVCWnd@@@Z ; CUsrAddListDlg::CUsrAddListDlg
  00050	8d 8e e8 07 00
	00		 lea	 ecx, DWORD PTR [esi+2024]
  00056	c6 45 fc 01	 mov	 BYTE PTR __$EHRec$[ebp+8], 1
  0005a	e8 00 00 00 00	 call	 ??0CXTabCtrl@@QAE@XZ	; CXTabCtrl::CXTabCtrl
  0005f	8d 8e 00 09 00
	00		 lea	 ecx, DWORD PTR [esi+2304]
  00065	ff 15 00 00 00
	00		 call	 DWORD PTR __imp_??0?$CStringT@DV?$StrTraitMFC_DLL@DV?$ChTraitsCRT@D@ATL@@@@@ATL@@QAE@XZ
  0006b	8d 8e 04 09 00
	00		 lea	 ecx, DWORD PTR [esi+2308]
  00071	ff 15 00 00 00
	00		 call	 DWORD PTR __imp_??0?$CStringT@DV?$StrTraitMFC_DLL@DV?$ChTraitsCRT@D@ATL@@@@@ATL@@QAE@XZ
  00077	8d 8e 08 09 00
	00		 lea	 ecx, DWORD PTR [esi+2312]
  0007d	ff 15 00 00 00
	00		 call	 DWORD PTR __imp_??0?$CStringT@DV?$StrTraitMFC_DLL@DV?$ChTraitsCRT@D@ATL@@@@@ATL@@QAE@XZ
  00083	6a 0a		 push	 10			; 0000000aH
  00085	8d 8e 0c 09 00
	00		 lea	 ecx, DWORD PTR [esi+2316]
  0008b	c6 45 fc 05	 mov	 BYTE PTR __$EHRec$[ebp+8], 5
  0008f	e8 00 00 00 00	 call	 ??0CStringList@@QAE@H@Z	; CStringList::CStringList
  00094	8d 8e 34 09 00
	00		 lea	 ecx, DWORD PTR [esi+2356]
  0009a	ff 15 00 00 00
	00		 call	 DWORD PTR __imp_??0?$CStringT@DV?$StrTraitMFC_DLL@DV?$ChTraitsCRT@D@ATL@@@@@ATL@@QAE@XZ

; 52   : 	//{{AFX_DATA_INIT(CLeftBarDlg)
; 53   : 		// NOTE: the ClassWizard will add member initialization here
; 54   : 	//}}AFX_DATA_INIT
; 55   : //	m_pctrlCode = NULL;
; 56   : 	m_pChartMng = NULL;

  000a0	c7 86 28 09 00
	00 00 00 00 00	 mov	 DWORD PTR [esi+2344], 0

; 57   : 	m_lJMaster = NULL;
; 58   : 	m_lKMaster = NULL;
; 59   : 	m_bEnable = FALSE;
; 60   : 	/*=============== 2005. 06. 09 sy, nam ============================
; 61   : 	m_pWndMapView = NULL;
; 62   : 	/*=============== 2005. 06. 09 sy, nam ============================*/
; 63   : //	m_pFavoriteMng = NULL;
; 64   : 	m_bIgnoreShareData = FALSE;
; 65   : 
; 66   : 	m_nID = 1;
; 67   : 
; 68   : //	m_pDBMgr = NULL; //2005. 05. 12 - CAny2Code 대체용...
; 69   : }

  000aa	8b c6		 mov	 eax, esi
  000ac	c7 86 2c 09 00
	00 00 00 00 00	 mov	 DWORD PTR [esi+2348], 0
  000b6	c7 86 30 09 00
	00 00 00 00 00	 mov	 DWORD PTR [esi+2352], 0
  000c0	c7 86 38 09 00
	00 00 00 00 00	 mov	 DWORD PTR [esi+2360], 0
  000ca	c7 86 3c 09 00
	00 00 00 00 00	 mov	 DWORD PTR [esi+2364], 0
  000d4	c7 86 e4 07 00
	00 01 00 00 00	 mov	 DWORD PTR [esi+2020], 1
  000de	8b 4d f4	 mov	 ecx, DWORD PTR __$EHRec$[ebp]
  000e1	64 89 0d 00 00
	00 00		 mov	 DWORD PTR fs:0, ecx
  000e8	59		 pop	 ecx
  000e9	5e		 pop	 esi
  000ea	8b e5		 mov	 esp, ebp
  000ec	5d		 pop	 ebp
  000ed	c2 04 00	 ret	 4
_TEXT	ENDS
;	COMDAT text$x
text$x	SEGMENT
__unwindfunclet$??0CLeftBarDlg@@QAE@PAVCWnd@@@Z$0:
  00000	8b 4d f0	 mov	 ecx, DWORD PTR _this$[ebp]
  00003	e9 00 00 00 00	 jmp	 ??1CRscDlg@@UAE@XZ
__unwindfunclet$??0CLeftBarDlg@@QAE@PAVCWnd@@@Z$1:
  00008	8b 4d f0	 mov	 ecx, DWORD PTR _this$[ebp]
  0000b	81 c1 b8 00 00
	00		 add	 ecx, 184		; 000000b8H
  00011	e9 00 00 00 00	 jmp	 ??1CUsrAddListDlg@@UAE@XZ
__unwindfunclet$??0CLeftBarDlg@@QAE@PAVCWnd@@@Z$2:
  00016	8b 4d f0	 mov	 ecx, DWORD PTR _this$[ebp]
  00019	81 c1 e8 07 00
	00		 add	 ecx, 2024		; 000007e8H
  0001f	e9 00 00 00 00	 jmp	 ??1CXTabCtrl@@UAE@XZ	; CXTabCtrl::~CXTabCtrl
__unwindfunclet$??0CLeftBarDlg@@QAE@PAVCWnd@@@Z$3:
  00024	8b 4d f0	 mov	 ecx, DWORD PTR _this$[ebp]
  00027	81 c1 00 09 00
	00		 add	 ecx, 2304		; 00000900H
  0002d	ff 25 00 00 00
	00		 jmp	 DWORD PTR __imp_??1?$CStringT@DV?$StrTraitMFC_DLL@DV?$ChTraitsCRT@D@ATL@@@@@ATL@@QAE@XZ
__unwindfunclet$??0CLeftBarDlg@@QAE@PAVCWnd@@@Z$4:
  00033	8b 4d f0	 mov	 ecx, DWORD PTR _this$[ebp]
  00036	81 c1 04 09 00
	00		 add	 ecx, 2308		; 00000904H
  0003c	ff 25 00 00 00
	00		 jmp	 DWORD PTR __imp_??1?$CStringT@DV?$StrTraitMFC_DLL@DV?$ChTraitsCRT@D@ATL@@@@@ATL@@QAE@XZ
__unwindfunclet$??0CLeftBarDlg@@QAE@PAVCWnd@@@Z$5:
  00042	8b 4d f0	 mov	 ecx, DWORD PTR _this$[ebp]
  00045	81 c1 08 09 00
	00		 add	 ecx, 2312		; 00000908H
  0004b	ff 25 00 00 00
	00		 jmp	 DWORD PTR __imp_??1?$CStringT@DV?$StrTraitMFC_DLL@DV?$ChTraitsCRT@D@ATL@@@@@ATL@@QAE@XZ
  00051	cc		 int	 3
  00052	cc		 int	 3
  00053	cc		 int	 3
  00054	cc		 int	 3
  00055	cc		 int	 3
__ehhandler$??0CLeftBarDlg@@QAE@PAVCWnd@@@Z:
  00056	90		 npad	 1
  00057	90		 npad	 1
  00058	8b 54 24 08	 mov	 edx, DWORD PTR [esp+8]
  0005c	8d 42 0c	 lea	 eax, DWORD PTR [edx+12]
  0005f	8b 4a f4	 mov	 ecx, DWORD PTR [edx-12]
  00062	33 c8		 xor	 ecx, eax
  00064	e8 00 00 00 00	 call	 @__security_check_cookie@4
  00069	b8 00 00 00 00	 mov	 eax, OFFSET __ehfuncinfo$??0CLeftBarDlg@@QAE@PAVCWnd@@@Z
  0006e	e9 00 00 00 00	 jmp	 ___CxxFrameHandler3
text$x	ENDS
??0CLeftBarDlg@@QAE@PAVCWnd@@@Z ENDP			; CLeftBarDlg::CLeftBarDlg
; Function compile flags: /Ogtp
; File C:\Program Files (x86)\Microsoft Visual Studio\2019\Community\VC\Tools\MSVC\14.29.30133\atlmfc\include\afxwin1.inl
;	COMDAT ??1CUsrAddListDlg@@UAE@XZ
_TEXT	SEGMENT
??1CUsrAddListDlg@@UAE@XZ PROC				; CUsrAddListDlg::~CUsrAddListDlg, COMDAT
; _this$ = ecx

; 130  : 	{ }

  00000	56		 push	 esi
  00001	8b f1		 mov	 esi, ecx
  00003	8d 8e f0 04 00
	00		 lea	 ecx, DWORD PTR [esi+1264]
  00009	e8 00 00 00 00	 call	 ??1CNsyButtonListCtrl@@UAE@XZ ; CNsyButtonListCtrl::~CNsyButtonListCtrl
  0000e	8d 8e 90 03 00
	00		 lea	 ecx, DWORD PTR [esi+912]
  00014	e8 00 00 00 00	 call	 ??1CILButton@@UAE@XZ	; CILButton::~CILButton
  00019	8d 8e 30 02 00
	00		 lea	 ecx, DWORD PTR [esi+560]
  0001f	e8 00 00 00 00	 call	 ??1CILButton@@UAE@XZ	; CILButton::~CILButton
  00024	8d 8e d0 00 00
	00		 lea	 ecx, DWORD PTR [esi+208]
  0002a	e8 00 00 00 00	 call	 ??1CILButton@@UAE@XZ	; CILButton::~CILButton
  0002f	8d 8e cc 00 00
	00		 lea	 ecx, DWORD PTR [esi+204]
  00035	ff 15 00 00 00
	00		 call	 DWORD PTR __imp_??1?$CStringT@DV?$StrTraitMFC_DLL@DV?$ChTraitsCRT@D@ATL@@@@@ATL@@QAE@XZ
  0003b	8d 8e c8 00 00
	00		 lea	 ecx, DWORD PTR [esi+200]
  00041	ff 15 00 00 00
	00		 call	 DWORD PTR __imp_??1?$CStringT@DV?$StrTraitMFC_DLL@DV?$ChTraitsCRT@D@ATL@@@@@ATL@@QAE@XZ
  00047	8d 8e c4 00 00
	00		 lea	 ecx, DWORD PTR [esi+196]
  0004d	ff 15 00 00 00
	00		 call	 DWORD PTR __imp_??1?$CStringT@DV?$StrTraitMFC_DLL@DV?$ChTraitsCRT@D@ATL@@@@@ATL@@QAE@XZ
  00053	8d 8e c0 00 00
	00		 lea	 ecx, DWORD PTR [esi+192]
  00059	ff 15 00 00 00
	00		 call	 DWORD PTR __imp_??1?$CStringT@DV?$StrTraitMFC_DLL@DV?$ChTraitsCRT@D@ATL@@@@@ATL@@QAE@XZ
  0005f	8d 8e a8 00 00
	00		 lea	 ecx, DWORD PTR [esi+168]
  00065	c7 01 00 00 00
	00		 mov	 DWORD PTR [ecx], OFFSET ??_7CBrush@@6B@
  0006b	e8 00 00 00 00	 call	 ??1CGdiObject@@UAE@XZ	; CGdiObject::~CGdiObject
  00070	8b ce		 mov	 ecx, esi
  00072	5e		 pop	 esi
  00073	e9 00 00 00 00	 jmp	 ??1CDialog@@UAE@XZ	; CDialog::~CDialog
??1CUsrAddListDlg@@UAE@XZ ENDP				; CUsrAddListDlg::~CUsrAddListDlg
_TEXT	ENDS
; Function compile flags: /Ogtp
; File D:\git\src\IBK\IBK_DRFN\ProjSrc\SrcDrfn\Chart\comparechart\define\ChartMsgDef.h
;	COMDAT ??__ERMSG_CHANGE_CROSSLINE@@YAXXZ
text$di	SEGMENT
??__ERMSG_CHANGE_CROSSLINE@@YAXXZ PROC			; `dynamic initializer for 'RMSG_CHANGE_CROSSLINE'', COMDAT

; 216  : const UINT RMSG_CHANGE_CROSSLINE = ::RegisterWindowMessage(_T("RMSG_CHANGE_CROSSLINE"));

  00000	68 00 00 00 00	 push	 OFFSET ??_C@_0BG@LNLCJKPF@RMSG_CHANGE_CROSSLINE@
  00005	ff 15 00 00 00
	00		 call	 DWORD PTR __imp__RegisterWindowMessageA@4
  0000b	a3 00 00 00 00	 mov	 DWORD PTR ?RMSG_CHANGE_CROSSLINE@@3IB, eax
  00010	c3		 ret	 0
??__ERMSG_CHANGE_CROSSLINE@@YAXXZ ENDP			; `dynamic initializer for 'RMSG_CHANGE_CROSSLINE''
text$di	ENDS
; Function compile flags: /Ogtp
; File D:\git\src\IBK\IBK_DRFN\ProjSrc\SrcDrfn\Chart\comparechart\define\ChartMsgDef.h
;	COMDAT ??__ERMSG_GET_SKINCOLOR@@YAXXZ
text$di	SEGMENT
??__ERMSG_GET_SKINCOLOR@@YAXXZ PROC			; `dynamic initializer for 'RMSG_GET_SKINCOLOR'', COMDAT

; 214  : const UINT RMSG_GET_SKINCOLOR = ::RegisterWindowMessage(_T("RMSG_GET_SKINCOLOR"));

  00000	68 00 00 00 00	 push	 OFFSET ??_C@_0BD@FLDNDDHK@RMSG_GET_SKINCOLOR@
  00005	ff 15 00 00 00
	00		 call	 DWORD PTR __imp__RegisterWindowMessageA@4
  0000b	a3 00 00 00 00	 mov	 DWORD PTR ?RMSG_GET_SKINCOLOR@@3IB, eax
  00010	c3		 ret	 0
??__ERMSG_GET_SKINCOLOR@@YAXXZ ENDP			; `dynamic initializer for 'RMSG_GET_SKINCOLOR''
text$di	ENDS
; Function compile flags: /Ogtp
; File D:\git\src\IBK\IBK_DRFN\ProjSrc\SrcDrfn\Chart\comparechart\define\ChartMsgDef.h
;	COMDAT ??__ERMSG_CHANGE_SKINCOLOR@@YAXXZ
text$di	SEGMENT
??__ERMSG_CHANGE_SKINCOLOR@@YAXXZ PROC			; `dynamic initializer for 'RMSG_CHANGE_SKINCOLOR'', COMDAT

; 213  : const UINT RMSG_CHANGE_SKINCOLOR = ::RegisterWindowMessage(_T("RMSG_CHANGE_SKINCOLOR"));

  00000	68 00 00 00 00	 push	 OFFSET ??_C@_0BG@CNPAHNGG@RMSG_CHANGE_SKINCOLOR@
  00005	ff 15 00 00 00
	00		 call	 DWORD PTR __imp__RegisterWindowMessageA@4
  0000b	a3 00 00 00 00	 mov	 DWORD PTR ?RMSG_CHANGE_SKINCOLOR@@3IB, eax
  00010	c3		 ret	 0
??__ERMSG_CHANGE_SKINCOLOR@@YAXXZ ENDP			; `dynamic initializer for 'RMSG_CHANGE_SKINCOLOR''
text$di	ENDS
; Function compile flags: /Ogtp
; File D:\git\src\IBK\IBK_DRFN\ProjSrc\SrcDrfn\Chart\comparechart\define\ChartMsgDef.h
;	COMDAT ??__ERMSG_GETINFO@@YAXXZ
text$di	SEGMENT
??__ERMSG_GETINFO@@YAXXZ PROC				; `dynamic initializer for 'RMSG_GETINFO'', COMDAT

; 204  : const UINT RMSG_GETINFO = ::RegisterWindowMessage(_T("RMSG_GETINFO"));

  00000	68 00 00 00 00	 push	 OFFSET ??_C@_0N@IIOKMIEH@RMSG_GETINFO@
  00005	ff 15 00 00 00
	00		 call	 DWORD PTR __imp__RegisterWindowMessageA@4
  0000b	a3 00 00 00 00	 mov	 DWORD PTR ?RMSG_GETINFO@@3IB, eax
  00010	c3		 ret	 0
??__ERMSG_GETINFO@@YAXXZ ENDP				; `dynamic initializer for 'RMSG_GETINFO''
text$di	ENDS
; Function compile flags: /Ogtp
; File D:\git\src\IBK\IBK_DRFN\ProjSrc\SrcDrfn\Chart\comparechart\define\ChartMsgDef.h
;	COMDAT ??__ERMSG_KSDLLINFO@@YAXXZ
text$di	SEGMENT
??__ERMSG_KSDLLINFO@@YAXXZ PROC				; `dynamic initializer for 'RMSG_KSDLLINFO'', COMDAT

; 203  : const UINT RMSG_KSDLLINFO = ::RegisterWindowMessage(_T("RMSG_KSDLLINFO"));		// TrmCompCharView에게 정보얻기

  00000	68 00 00 00 00	 push	 OFFSET ??_C@_0P@LFDACNFE@RMSG_KSDLLINFO@
  00005	ff 15 00 00 00
	00		 call	 DWORD PTR __imp__RegisterWindowMessageA@4
  0000b	a3 00 00 00 00	 mov	 DWORD PTR ?RMSG_KSDLLINFO@@3IB, eax
  00010	c3		 ret	 0
??__ERMSG_KSDLLINFO@@YAXXZ ENDP				; `dynamic initializer for 'RMSG_KSDLLINFO''
text$di	ENDS
; Function compile flags: /Ogtp
; File D:\git\src\IBK\IBK_DRFN\ProjSrc\SrcDrfn\Chart\comparechart\define\ChartMsgDef.h
;	COMDAT ??__ERMSG_GET_USERID@@YAXXZ
text$di	SEGMENT
??__ERMSG_GET_USERID@@YAXXZ PROC			; `dynamic initializer for 'RMSG_GET_USERID'', COMDAT

; 200  : const UINT RMSG_GET_USERID = ::RegisterWindowMessage(_T("RMSG_GET_USERID"));	// User ID 얻기

  00000	68 00 00 00 00	 push	 OFFSET ??_C@_0BA@HKNFENJL@RMSG_GET_USERID@
  00005	ff 15 00 00 00
	00		 call	 DWORD PTR __imp__RegisterWindowMessageA@4
  0000b	a3 00 00 00 00	 mov	 DWORD PTR ?RMSG_GET_USERID@@3IB, eax
  00010	c3		 ret	 0
??__ERMSG_GET_USERID@@YAXXZ ENDP			; `dynamic initializer for 'RMSG_GET_USERID''
text$di	ENDS
; Function compile flags: /Ogtp
; File D:\git\src\IBK\IBK_DRFN\ProjSrc\SrcDrfn\Chart\comparechart\define\ChartMsgDef.h
;	COMDAT ??__ERMS_ANALYSIS_FUNC@@YAXXZ
text$di	SEGMENT
??__ERMS_ANALYSIS_FUNC@@YAXXZ PROC			; `dynamic initializer for 'RMS_ANALYSIS_FUNC'', COMDAT

; 196  : const UINT RMS_ANALYSIS_FUNC	= ::RegisterWindowMessage(_T("RMS_ANALYSIS_FUNC"));

  00000	68 00 00 00 00	 push	 OFFSET ??_C@_0BC@MMPGLPDH@RMS_ANALYSIS_FUNC@
  00005	ff 15 00 00 00
	00		 call	 DWORD PTR __imp__RegisterWindowMessageA@4
  0000b	a3 00 00 00 00	 mov	 DWORD PTR ?RMS_ANALYSIS_FUNC@@3IB, eax
  00010	c3		 ret	 0
??__ERMS_ANALYSIS_FUNC@@YAXXZ ENDP			; `dynamic initializer for 'RMS_ANALYSIS_FUNC''
text$di	ENDS
; Function compile flags: /Ogtp
; File D:\git\src\IBK\IBK_DRFN\ProjSrc\SrcDrfn\Chart\comparechart\define\ChartMsgDef.h
;	COMDAT ??__ERMSG_CHARTMAIN@@YAXXZ
text$di	SEGMENT
??__ERMSG_CHARTMAIN@@YAXXZ PROC				; `dynamic initializer for 'RMSG_CHARTMAIN'', COMDAT

; 193  : const UINT RMSG_CHARTMAIN		= ::RegisterWindowMessage(_T("RMSG_CHARTMAIN"));

  00000	68 00 00 00 00	 push	 OFFSET ??_C@_0P@KHFCBIOH@RMSG_CHARTMAIN@
  00005	ff 15 00 00 00
	00		 call	 DWORD PTR __imp__RegisterWindowMessageA@4
  0000b	a3 00 00 00 00	 mov	 DWORD PTR ?RMSG_CHARTMAIN@@3IB, eax
  00010	c3		 ret	 0
??__ERMSG_CHARTMAIN@@YAXXZ ENDP				; `dynamic initializer for 'RMSG_CHARTMAIN''
text$di	ENDS
; Function compile flags: /Ogtp
; File D:\git\src\IBK\IBK_DRFN\ProjSrc\SrcDrfn\Chart\commontr\TRDefine.h
;	COMDAT ??__ERMSG_GETSIGNAL_REAL@@YAXXZ
text$di	SEGMENT
??__ERMSG_GETSIGNAL_REAL@@YAXXZ PROC			; `dynamic initializer for 'RMSG_GETSIGNAL_REAL'', COMDAT

; 213  : const UINT RMSG_GETSIGNAL_REAL = ::RegisterWindowMessage(_T("RMSG_GETSIGNAL_REAL"));

  00000	68 00 00 00 00	 push	 OFFSET ??_C@_0BE@FJPKENOB@RMSG_GETSIGNAL_REAL@
  00005	ff 15 00 00 00
	00		 call	 DWORD PTR __imp__RegisterWindowMessageA@4
  0000b	a3 00 00 00 00	 mov	 DWORD PTR ?RMSG_GETSIGNAL_REAL@@3IB, eax
  00010	c3		 ret	 0
??__ERMSG_GETSIGNAL_REAL@@YAXXZ ENDP			; `dynamic initializer for 'RMSG_GETSIGNAL_REAL''
text$di	ENDS
; Function compile flags: /Ogtp
; File C:\Program Files (x86)\Microsoft Visual Studio\2019\Community\VC\Tools\MSVC\14.29.30133\atlmfc\include\afxwin1.inl
;	COMDAT ??1CRscDlg@@UAE@XZ
_TEXT	SEGMENT
??1CRscDlg@@UAE@XZ PROC					; CRscDlg::~CRscDlg, COMDAT
; _this$ = ecx

; 130  : 	{ }

  00000	56		 push	 esi
  00001	8b f1		 mov	 esi, ecx
  00003	8d 8e a8 00 00
	00		 lea	 ecx, DWORD PTR [esi+168]
  00009	c7 01 00 00 00
	00		 mov	 DWORD PTR [ecx], OFFSET ??_7CBrush@@6B@
  0000f	e8 00 00 00 00	 call	 ??1CGdiObject@@UAE@XZ	; CGdiObject::~CGdiObject
  00014	8b ce		 mov	 ecx, esi
  00016	5e		 pop	 esi
  00017	e9 00 00 00 00	 jmp	 ??1CDialog@@UAE@XZ	; CDialog::~CDialog
??1CRscDlg@@UAE@XZ ENDP					; CRscDlg::~CRscDlg
_TEXT	ENDS
; Function compile flags: /Ogtp
; File D:\git\src\IBK\IBK_DRFN\ProjSrc\SrcDrfn\Chart\comparechart\control\RscDlg.h
;	COMDAT ?SetBkColor@CRscDlg@@UAEXK@Z
_TEXT	SEGMENT
_crBk$ = 8						; size = 4
?SetBkColor@CRscDlg@@UAEXK@Z PROC			; CRscDlg::SetBkColor, COMDAT
; _this$ = ecx

; 24   : 	virtual void SetBkColor(COLORREF crBk) {m_crBk=crBk;}

  00000	55		 push	 ebp
  00001	8b ec		 mov	 ebp, esp
  00003	8b 45 08	 mov	 eax, DWORD PTR _crBk$[ebp]
  00006	89 81 b0 00 00
	00		 mov	 DWORD PTR [ecx+176], eax
  0000c	5d		 pop	 ebp
  0000d	c2 04 00	 ret	 4
?SetBkColor@CRscDlg@@UAEXK@Z ENDP			; CRscDlg::SetBkColor
_TEXT	ENDS
; Function compile flags: /Ogtp
; File C:\Program Files (x86)\Microsoft Visual Studio\2019\Community\VC\Tools\MSVC\14.29.30133\atlmfc\include\afxwin2.inl
;	COMDAT ?EndModalState@CWnd@@UAEXXZ
_TEXT	SEGMENT
?EndModalState@CWnd@@UAEXXZ PROC			; CWnd::EndModalState, COMDAT
; _this$ = ecx

; 567  : 	{ ::EnableWindow(m_hWnd, TRUE); }

  00000	6a 01		 push	 1
  00002	ff 71 20	 push	 DWORD PTR [ecx+32]
  00005	ff 15 00 00 00
	00		 call	 DWORD PTR __imp__EnableWindow@8
  0000b	c3		 ret	 0
?EndModalState@CWnd@@UAEXXZ ENDP			; CWnd::EndModalState
_TEXT	ENDS
; Function compile flags: /Ogtp
; File C:\Program Files (x86)\Microsoft Visual Studio\2019\Community\VC\Tools\MSVC\14.29.30133\atlmfc\include\afxwin2.inl
;	COMDAT ?BeginModalState@CWnd@@UAEXXZ
_TEXT	SEGMENT
?BeginModalState@CWnd@@UAEXXZ PROC			; CWnd::BeginModalState, COMDAT
; _this$ = ecx

; 565  : 	{ ::EnableWindow(m_hWnd, FALSE); }

  00000	6a 00		 push	 0
  00002	ff 71 20	 push	 DWORD PTR [ecx+32]
  00005	ff 15 00 00 00
	00		 call	 DWORD PTR __imp__EnableWindow@8
  0000b	c3		 ret	 0
?BeginModalState@CWnd@@UAEXXZ ENDP			; CWnd::BeginModalState
_TEXT	ENDS
; Function compile flags: /Ogtp
; File C:\Program Files (x86)\Microsoft Visual Studio\2019\Community\VC\Tools\MSVC\14.29.30133\atlmfc\include\afxwin1.inl
; File C:\Program Files (x86)\Microsoft Visual Studio\2019\Community\VC\Tools\MSVC\14.29.30133\atlmfc\include\afx.inl
;	COMDAT ??_GCBrush@@UAEPAXI@Z
_TEXT	SEGMENT
___flags$ = 8						; size = 4
??_GCBrush@@UAEPAXI@Z PROC				; CBrush::`scalar deleting destructor', COMDAT
; _this$ = ecx
  00000	55		 push	 ebp
  00001	8b ec		 mov	 ebp, esp
; File C:\Program Files (x86)\Microsoft Visual Studio\2019\Community\VC\Tools\MSVC\14.29.30133\atlmfc\include\afxwin1.inl

; 130  : 	{ }

  00003	56		 push	 esi
  00004	8b f1		 mov	 esi, ecx
  00006	c7 06 00 00 00
	00		 mov	 DWORD PTR [esi], OFFSET ??_7CBrush@@6B@
  0000c	e8 00 00 00 00	 call	 ??1CGdiObject@@UAE@XZ	; CGdiObject::~CGdiObject
  00011	8b 45 08	 mov	 eax, DWORD PTR ___flags$[ebp]
  00014	a8 01		 test	 al, 1
  00016	74 1f		 je	 SHORT $LN12@scalar
  00018	a8 04		 test	 al, 4
  0001a	75 10		 jne	 SHORT $LN3@scalar
; File C:\Program Files (x86)\Microsoft Visual Studio\2019\Community\VC\Tools\MSVC\14.29.30133\atlmfc\include\afx.inl

; 112  : 	{ ::operator delete(p); }

  0001c	56		 push	 esi
  0001d	e8 00 00 00 00	 call	 ??3@YAXPAX@Z		; operator delete
  00022	83 c4 04	 add	 esp, 4
  00025	8b c6		 mov	 eax, esi
  00027	5e		 pop	 esi
  00028	5d		 pop	 ebp
  00029	c2 04 00	 ret	 4
$LN3@scalar:
  0002c	6a 08		 push	 8
  0002e	56		 push	 esi
  0002f	e8 00 00 00 00	 call	 ?__global_delete@@YAXPAXI@Z ; __global_delete
  00034	83 c4 08	 add	 esp, 8
$LN12@scalar:
  00037	8b c6		 mov	 eax, esi
  00039	5e		 pop	 esi
  0003a	5d		 pop	 ebp
  0003b	c2 04 00	 ret	 4
??_GCBrush@@UAEPAXI@Z ENDP				; CBrush::`scalar deleting destructor'
_TEXT	ENDS
; Function compile flags: /Ogtp
; File C:\Program Files (x86)\Microsoft Visual Studio\2019\Community\VC\Tools\MSVC\14.29.30133\atlmfc\include\afxwin1.inl
;	COMDAT ??1CBrush@@UAE@XZ
_TEXT	SEGMENT
??1CBrush@@UAE@XZ PROC					; CBrush::~CBrush, COMDAT
; _this$ = ecx

; 130  : 	{ }

  00000	c7 01 00 00 00
	00		 mov	 DWORD PTR [ecx], OFFSET ??_7CBrush@@6B@
  00006	e9 00 00 00 00	 jmp	 ??1CGdiObject@@UAE@XZ	; CGdiObject::~CGdiObject
??1CBrush@@UAE@XZ ENDP					; CBrush::~CBrush
_TEXT	ENDS
; Function compile flags: /Ogtp
; File C:\Program Files (x86)\Microsoft Visual Studio\2019\Community\VC\Tools\MSVC\14.29.30133\atlmfc\include\afx.inl
;	COMDAT ??_GCGdiObject@@UAEPAXI@Z
_TEXT	SEGMENT
___flags$ = 8						; size = 4
??_GCGdiObject@@UAEPAXI@Z PROC				; CGdiObject::`scalar deleting destructor', COMDAT
; _this$ = ecx
  00000	55		 push	 ebp
  00001	8b ec		 mov	 ebp, esp
  00003	56		 push	 esi
  00004	8b f1		 mov	 esi, ecx
  00006	e8 00 00 00 00	 call	 ??1CGdiObject@@UAE@XZ	; CGdiObject::~CGdiObject
  0000b	8b 45 08	 mov	 eax, DWORD PTR ___flags$[ebp]
  0000e	a8 01		 test	 al, 1
  00010	74 1f		 je	 SHORT $LN9@scalar
  00012	a8 04		 test	 al, 4
  00014	75 10		 jne	 SHORT $LN3@scalar

; 112  : 	{ ::operator delete(p); }

  00016	56		 push	 esi
  00017	e8 00 00 00 00	 call	 ??3@YAXPAX@Z		; operator delete
  0001c	83 c4 04	 add	 esp, 4
  0001f	8b c6		 mov	 eax, esi
  00021	5e		 pop	 esi
  00022	5d		 pop	 ebp
  00023	c2 04 00	 ret	 4
$LN3@scalar:
  00026	6a 08		 push	 8
  00028	56		 push	 esi
  00029	e8 00 00 00 00	 call	 ?__global_delete@@YAXPAXI@Z ; __global_delete
  0002e	83 c4 08	 add	 esp, 8
$LN9@scalar:
  00031	8b c6		 mov	 eax, esi
  00033	5e		 pop	 esi
  00034	5d		 pop	 ebp
  00035	c2 04 00	 ret	 4
??_GCGdiObject@@UAEPAXI@Z ENDP				; CGdiObject::`scalar deleting destructor'
_TEXT	ENDS
; Function compile flags: /Ogtp
; File C:\Program Files (x86)\Microsoft Visual Studio\2019\Community\VC\Tools\MSVC\14.29.30133\atlmfc\include\afxwin1.inl
;	COMDAT ??1CGdiObject@@UAE@XZ
_TEXT	SEGMENT
_pException$2 = -540					; size = 4
_strMsg$3 = -536					; size = 4
_szErrorMessage$4 = -532				; size = 512
__$ArrayPad$ = -20					; size = 4
__$EHRec$ = -16						; size = 16
??1CGdiObject@@UAE@XZ PROC				; CGdiObject::~CGdiObject, COMDAT
; _this$ = ecx

; 74   : {

  00000	55		 push	 ebp
  00001	8b ec		 mov	 ebp, esp
  00003	6a ff		 push	 -1
  00005	68 00 00 00 00	 push	 __ehhandler$??1CGdiObject@@UAE@XZ
  0000a	64 a1 00 00 00
	00		 mov	 eax, DWORD PTR fs:0
  00010	50		 push	 eax
  00011	81 ec 10 02 00
	00		 sub	 esp, 528		; 00000210H
  00017	a1 00 00 00 00	 mov	 eax, DWORD PTR ___security_cookie
  0001c	33 c5		 xor	 eax, ebp
  0001e	89 45 ec	 mov	 DWORD PTR __$ArrayPad$[ebp], eax
  00021	53		 push	 ebx
  00022	56		 push	 esi
  00023	57		 push	 edi
  00024	50		 push	 eax
  00025	8d 45 f4	 lea	 eax, DWORD PTR __$EHRec$[ebp+4]
  00028	64 a3 00 00 00
	00		 mov	 DWORD PTR fs:0, eax
  0002e	89 65 f0	 mov	 DWORD PTR __$EHRec$[ebp], esp
  00031	c7 01 00 00 00
	00		 mov	 DWORD PTR [ecx], OFFSET ??_7CGdiObject@@6B@

; 75   : 	AFX_BEGIN_DESTRUCTOR

  00037	c7 45 fc 00 00
	00 00		 mov	 DWORD PTR __$EHRec$[ebp+12], 0

; 76   : 	DeleteObject();

  0003e	e8 00 00 00 00	 call	 ?DeleteObject@CGdiObject@@QAEHXZ ; CGdiObject::DeleteObject
$LN18@CGdiObject:

; 78   : }

  00043	8b 4d f4	 mov	 ecx, DWORD PTR __$EHRec$[ebp+4]
  00046	64 89 0d 00 00
	00 00		 mov	 DWORD PTR fs:0, ecx
  0004d	59		 pop	 ecx
  0004e	5f		 pop	 edi
  0004f	5e		 pop	 esi
  00050	5b		 pop	 ebx
  00051	8b 4d ec	 mov	 ecx, DWORD PTR __$ArrayPad$[ebp]
  00054	33 cd		 xor	 ecx, ebp
  00056	e8 00 00 00 00	 call	 @__security_check_cookie@4
  0005b	8b e5		 mov	 esp, ebp
  0005d	5d		 pop	 ebp
  0005e	c3		 ret	 0
__catch$??1CGdiObject@@UAE@XZ$0:

; 77   : 	AFX_END_DESTRUCTOR

  0005f	8d 8d e8 fd ff
	ff		 lea	 ecx, DWORD PTR _strMsg$3[ebp]
  00065	ff 15 00 00 00
	00		 call	 DWORD PTR __imp_??0?$CStringT@DV?$StrTraitMFC_DLL@DV?$ChTraitsCRT@D@ATL@@@@@ATL@@QAE@XZ
  0006b	8b b5 e4 fd ff
	ff		 mov	 esi, DWORD PTR _pException$2[ebp]
  00071	8d 8d ec fd ff
	ff		 lea	 ecx, DWORD PTR _szErrorMessage$4[ebp]
  00077	6a 00		 push	 0
  00079	68 00 02 00 00	 push	 512			; 00000200H
  0007e	51		 push	 ecx
  0007f	8b 06		 mov	 eax, DWORD PTR [esi]
  00081	8b ce		 mov	 ecx, esi
  00083	c6 45 fc 02	 mov	 BYTE PTR __$EHRec$[ebp+12], 2
  00087	ff 50 14	 call	 DWORD PTR [eax+20]
  0008a	85 c0		 test	 eax, eax
  0008c	74 2a		 je	 SHORT $LN9@CGdiObject
  0008e	8d 85 ec fd ff
	ff		 lea	 eax, DWORD PTR _szErrorMessage$4[ebp]
  00094	50		 push	 eax
  00095	6a 4d		 push	 77			; 0000004dH
  00097	68 00 00 00 00	 push	 OFFSET ??_C@_0HD@JJCHHHNK@C?3?2Program?5Files?5?$CIx86?$CJ?2Microsof@
  0009c	68 00 00 00 00	 push	 OFFSET ??_C@_0BP@OIEOKIDM@Exception?5thrown?5in?5destructor@
  000a1	8d 85 e8 fd ff
	ff		 lea	 eax, DWORD PTR _strMsg$3[ebp]
  000a7	68 00 00 00 00	 push	 OFFSET ??_C@_0BB@HBOOMJBF@?$CFTs?5?$CI?$CFTs?3?$CFd?$CJ?6?$CFTs@
  000ac	50		 push	 eax
  000ad	ff 15 00 00 00
	00		 call	 DWORD PTR __imp_?Format@?$CStringT@DV?$StrTraitMFC_DLL@DV?$ChTraitsCRT@D@ATL@@@@@ATL@@QAAXPBDZZ
  000b3	83 c4 18	 add	 esp, 24			; 00000018H
  000b6	eb 21		 jmp	 SHORT $LN10@CGdiObject
$LN9@CGdiObject:
  000b8	6a 4d		 push	 77			; 0000004dH
  000ba	68 00 00 00 00	 push	 OFFSET ??_C@_0HD@JJCHHHNK@C?3?2Program?5Files?5?$CIx86?$CJ?2Microsof@
  000bf	68 00 00 00 00	 push	 OFFSET ??_C@_0BP@OIEOKIDM@Exception?5thrown?5in?5destructor@
  000c4	8d 85 e8 fd ff
	ff		 lea	 eax, DWORD PTR _strMsg$3[ebp]
  000ca	68 00 00 00 00	 push	 OFFSET ??_C@_0N@OMEMOKLE@?$CFTs?5?$CI?$CFTs?3?$CFd?$CJ@
  000cf	50		 push	 eax
  000d0	ff 15 00 00 00
	00		 call	 DWORD PTR __imp_?Format@?$CStringT@DV?$StrTraitMFC_DLL@DV?$ChTraitsCRT@D@ATL@@@@@ATL@@QAAXPBDZZ
  000d6	83 c4 14	 add	 esp, 20			; 00000014H
$LN10@CGdiObject:
  000d9	6a 00		 push	 0
  000db	6a 00		 push	 0
  000dd	ff b5 e8 fd ff
	ff		 push	 DWORD PTR _strMsg$3[ebp]
  000e3	e8 00 00 00 00	 call	 ?AfxMessageBox@@YGHPBDII@Z ; AfxMessageBox
  000e8	8d 8d e8 fd ff
	ff		 lea	 ecx, DWORD PTR _strMsg$3[ebp]
  000ee	ff 15 00 00 00
	00		 call	 DWORD PTR __imp_??1?$CStringT@DV?$StrTraitMFC_DLL@DV?$ChTraitsCRT@D@ATL@@@@@ATL@@QAE@XZ
  000f4	8b 06		 mov	 eax, DWORD PTR [esi]
  000f6	8b ce		 mov	 ecx, esi
  000f8	6a 01		 push	 1
  000fa	ff 50 04	 call	 DWORD PTR [eax+4]
  000fd	b8 00 00 00 00	 mov	 eax, $LN18@CGdiObject
  00102	c3		 ret	 0
_TEXT	ENDS
;	COMDAT text$x
text$x	SEGMENT
__unwindfunclet$??1CGdiObject@@UAE@XZ$2:
  00000	8d 8d e8 fd ff
	ff		 lea	 ecx, DWORD PTR _strMsg$3[ebp]
  00006	ff 25 00 00 00
	00		 jmp	 DWORD PTR __imp_??1?$CStringT@DV?$StrTraitMFC_DLL@DV?$ChTraitsCRT@D@ATL@@@@@ATL@@QAE@XZ
  0000c	cc		 int	 3
  0000d	cc		 int	 3
  0000e	cc		 int	 3
  0000f	cc		 int	 3
  00010	cc		 int	 3
__ehhandler$??1CGdiObject@@UAE@XZ:
  00011	90		 npad	 1
  00012	90		 npad	 1
  00013	8b 54 24 08	 mov	 edx, DWORD PTR [esp+8]
  00017	8d 42 0c	 lea	 eax, DWORD PTR [edx+12]
  0001a	8b 8a e0 fd ff
	ff		 mov	 ecx, DWORD PTR [edx-544]
  00020	33 c8		 xor	 ecx, eax
  00022	e8 00 00 00 00	 call	 @__security_check_cookie@4
  00027	8b 4a f8	 mov	 ecx, DWORD PTR [edx-8]
  0002a	33 c8		 xor	 ecx, eax
  0002c	e8 00 00 00 00	 call	 @__security_check_cookie@4
  00031	b8 00 00 00 00	 mov	 eax, OFFSET __ehfuncinfo$??1CGdiObject@@UAE@XZ
  00036	e9 00 00 00 00	 jmp	 ___CxxFrameHandler3
text$x	ENDS
??1CGdiObject@@UAE@XZ ENDP				; CGdiObject::~CGdiObject
; Function compile flags: /Ogtp
; File C:\Program Files (x86)\Microsoft Visual Studio\2019\Community\VC\Tools\MSVC\14.29.30133\atlmfc\include\afx.inl
;	COMDAT ?Dump@CObject@@UBEXAAVCDumpContext@@@Z
_TEXT	SEGMENT
___formal$ = 8						; size = 4
?Dump@CObject@@UBEXAAVCDumpContext@@@Z PROC		; CObject::Dump, COMDAT
; _this$ = ecx

; 122  : 	{ /* no dumping in release builds */ }

  00000	c2 04 00	 ret	 4
?Dump@CObject@@UBEXAAVCDumpContext@@@Z ENDP		; CObject::Dump
_TEXT	ENDS
; Function compile flags: /Ogtp
; File C:\Program Files (x86)\Microsoft Visual Studio\2019\Community\VC\Tools\MSVC\14.29.30133\atlmfc\include\afx.inl
;	COMDAT ?AssertValid@CObject@@UBEXXZ
_TEXT	SEGMENT
?AssertValid@CObject@@UBEXXZ PROC			; CObject::AssertValid, COMDAT
; _this$ = ecx

; 120  : 	{ /* no asserts in release builds */ }

  00000	c2 00 00	 ret	 0
?AssertValid@CObject@@UBEXXZ ENDP			; CObject::AssertValid
_TEXT	ENDS
; Function compile flags: /Ogtp
; File C:\Program Files (x86)\Microsoft Visual Studio\2019\Community\VC\Tools\MSVC\14.29.30133\atlmfc\include\afx.inl
;	COMDAT ?Serialize@CObject@@UAEXAAVCArchive@@@Z
_TEXT	SEGMENT
___formal$ = 8						; size = 4
?Serialize@CObject@@UAEXAAVCArchive@@@Z PROC		; CObject::Serialize, COMDAT
; _this$ = ecx

; 106  : 	{ /* CObject does not serialize anything by default */ }

  00000	c2 04 00	 ret	 4
?Serialize@CObject@@UAEXAAVCArchive@@@Z ENDP		; CObject::Serialize
_TEXT	ENDS
; Function compile flags: /Ogtp
; File C:\Program Files (x86)\Microsoft Visual Studio\2019\Community\VC\Tools\MSVC\14.29.30133\atlmfc\include\afx.inl
;	COMDAT ??1CObject@@UAE@XZ
_TEXT	SEGMENT
??1CObject@@UAE@XZ PROC					; CObject::~CObject, COMDAT
; _this$ = ecx

; 104  : 	{ }

  00000	c2 00 00	 ret	 0
??1CObject@@UAE@XZ ENDP					; CObject::~CObject
_TEXT	ENDS
; Function compile flags: /Ogtp
; File D:\git\src\IBK\IBK_DRFN\ProjSrc\SrcDrfn\Chart\comparechart\LeftBarDlg.cpp
;	COMDAT ?__empty_global_delete@@YAXPAXI@Z
_TEXT	SEGMENT
___formal$ = 8						; size = 4
___formal$ = 12						; size = 4
?__empty_global_delete@@YAXPAXI@Z PROC			; __empty_global_delete, COMDAT

  00000	c2 00 00	 ret	 0
?__empty_global_delete@@YAXPAXI@Z ENDP			; __empty_global_delete
_TEXT	ENDS
; Function compile flags: /Ogtp
; File D:\git\src\IBK\IBK_DRFN\ProjSrc\SrcDrfn\Chart\comparechart\LeftBarDlg.cpp
;	COMDAT ?__empty_global_delete@@YAXPAX@Z
_TEXT	SEGMENT
___formal$ = 8						; size = 4
?__empty_global_delete@@YAXPAX@Z PROC			; __empty_global_delete, COMDAT

  00000	c2 00 00	 ret	 0
?__empty_global_delete@@YAXPAX@Z ENDP			; __empty_global_delete
_TEXT	ENDS
END
