; Listing generated by Microsoft (R) Optimizing Compiler Version 19.29.30145.0 

	TITLE	D:\git\src\IBK\IBK_DRFN\#DRfn-CS\_Obj\CompareChart\MsgWnd.obj
	.686P
	.XMM
	include listing.inc
	.model	flat

INCLUDELIB MSVCRT
INCLUDELIB OLDNAMES

PUBLIC	?__empty_global_delete@@YAXPAX@Z		; __empty_global_delete
PUBLIC	?__empty_global_delete@@YAXPAXI@Z		; __empty_global_delete
PUBLIC	??1CObject@@UAE@XZ				; CObject::~CObject
PUBLIC	?Serialize@CObject@@UAEXAAVCArchive@@@Z		; CObject::Serialize
PUBLIC	?AssertValid@CObject@@UBEXXZ			; CObject::AssertValid
PUBLIC	?Dump@CObject@@UBEXAAVCDumpContext@@@Z		; CObject::Dump
PUBLIC	??1CGdiObject@@UAE@XZ				; CGdiObject::~CGdiObject
PUBLIC	??_GCGdiObject@@UAEPAXI@Z			; CGdiObject::`scalar deleting destructor'
PUBLIC	??1CFont@@UAE@XZ				; CFont::~CFont
PUBLIC	??_GCFont@@UAEPAXI@Z				; CFont::`scalar deleting destructor'
PUBLIC	?DoDataExchange@CWnd@@MAEXPAVCDataExchange@@@Z	; CWnd::DoDataExchange
PUBLIC	?BeginModalState@CWnd@@UAEXXZ			; CWnd::BeginModalState
PUBLIC	?EndModalState@CWnd@@UAEXXZ			; CWnd::EndModalState
PUBLIC	??_GCButton@@UAEPAXI@Z				; CButton::`scalar deleting destructor'
PUBLIC	??_GCComboBox@@UAEPAXI@Z			; CComboBox::`scalar deleting destructor'
PUBLIC	??0CMessageWindow@@QAE@XZ			; CMessageWindow::CMessageWindow
PUBLIC	?CreateMessageWnd@CMessageWindow@@QAEHPAVCWnd@@@Z ; CMessageWindow::CreateMessageWnd
PUBLIC	?GetWndHeight@CMessageWindow@@QAEHXZ		; CMessageWindow::GetWndHeight
PUBLIC	?AddMessage@CMessageWindow@@QAEXPADI@Z		; CMessageWindow::AddMessage
PUBLIC	?GetMessageA@CMessageWindow@@QAEHAAV?$CStringT@DV?$StrTraitMFC_DLL@DV?$ChTraitsCRT@D@ATL@@@@@ATL@@@Z ; CMessageWindow::GetMessageA
PUBLIC	?DelMessage@CMessageWindow@@QAEXXZ		; CMessageWindow::DelMessage
PUBLIC	?ResizeMessageWnd@CMessageWindow@@QAEXIHH@Z	; CMessageWindow::ResizeMessageWnd
PUBLIC	?MoveMessageWnd@CMessageWindow@@QAEXVCRect@@@Z	; CMessageWindow::MoveMessageWnd
PUBLIC	?CheckMaxLines@CMessageWindow@@QAEXXZ		; CMessageWindow::CheckMaxLines
PUBLIC	?SetConfigFile@CMessageWindow@@QAEXPBD@Z	; CMessageWindow::SetConfigFile
PUBLIC	??1CMessageWindow@@UAE@XZ			; CMessageWindow::~CMessageWindow
PUBLIC	?OnCreate@CMessageWindow@@IAEHPAUtagCREATESTRUCTA@@@Z ; CMessageWindow::OnCreate
PUBLIC	?OnEraseBkgnd@CMessageWindow@@IAEHPAVCDC@@@Z	; CMessageWindow::OnEraseBkgnd
PUBLIC	?OnClickedButton@CMessageWindow@@IAEXI@Z	; CMessageWindow::OnClickedButton
PUBLIC	?GetThisMessageMap@CMessageWindow@@KGPBUAFX_MSGMAP@@XZ ; CMessageWindow::GetThisMessageMap
PUBLIC	?GetMessageMap@CMessageWindow@@MBEPBUAFX_MSGMAP@@XZ ; CMessageWindow::GetMessageMap
PUBLIC	??_GCMessageWindow@@UAEPAXI@Z			; CMessageWindow::`scalar deleting destructor'
PUBLIC	??_R0PAVCException@@@8				; CException * `RTTI Type Descriptor'
PUBLIC	??_C@_00CNPNBAHC@@				; `string'
PUBLIC	??_7CGdiObject@@6B@				; CGdiObject::`vftable'
PUBLIC	??_7CFont@@6B@					; CFont::`vftable'
PUBLIC	??_7CButton@@6B@				; CButton::`vftable'
PUBLIC	??_7CComboBox@@6B@				; CComboBox::`vftable'
PUBLIC	??_C@_0HD@JJCHHHNK@C?3?2Program?5Files?5?$CIx86?$CJ?2Microsof@ ; `string'
PUBLIC	??_C@_0BP@OIEOKIDM@Exception?5thrown?5in?5destructor@ ; `string'
PUBLIC	??_C@_0BB@HBOOMJBF@?$CFTs?5?$CI?$CFTs?3?$CFd?$CJ?6?$CFTs@ ; `string'
PUBLIC	??_C@_0N@OMEMOKLE@?$CFTs?5?$CI?$CFTs?3?$CFd?$CJ@ ; `string'
PUBLIC	??_R0?AVCObject@@@8				; CObject `RTTI Type Descriptor'
PUBLIC	??_R3CObject@@8					; CObject::`RTTI Class Hierarchy Descriptor'
PUBLIC	??_R2CObject@@8					; CObject::`RTTI Base Class Array'
PUBLIC	??_R1A@?0A@EA@CObject@@8			; CObject::`RTTI Base Class Descriptor at (0,-1,0,64)'
PUBLIC	??_R4CGdiObject@@6B@				; CGdiObject::`RTTI Complete Object Locator'
PUBLIC	??_R0?AVCGdiObject@@@8				; CGdiObject `RTTI Type Descriptor'
PUBLIC	??_R3CGdiObject@@8				; CGdiObject::`RTTI Class Hierarchy Descriptor'
PUBLIC	??_R2CGdiObject@@8				; CGdiObject::`RTTI Base Class Array'
PUBLIC	??_R1A@?0A@EA@CGdiObject@@8			; CGdiObject::`RTTI Base Class Descriptor at (0,-1,0,64)'
PUBLIC	??_R4CFont@@6B@					; CFont::`RTTI Complete Object Locator'
PUBLIC	??_R0?AVCFont@@@8				; CFont `RTTI Type Descriptor'
PUBLIC	??_R3CFont@@8					; CFont::`RTTI Class Hierarchy Descriptor'
PUBLIC	??_R2CFont@@8					; CFont::`RTTI Base Class Array'
PUBLIC	??_R1A@?0A@EA@CFont@@8				; CFont::`RTTI Base Class Descriptor at (0,-1,0,64)'
PUBLIC	??_R1A@?0A@EA@CWnd@@8				; CWnd::`RTTI Base Class Descriptor at (0,-1,0,64)'
PUBLIC	??_R0?AVCWnd@@@8				; CWnd `RTTI Type Descriptor'
PUBLIC	??_R3CWnd@@8					; CWnd::`RTTI Class Hierarchy Descriptor'
PUBLIC	??_R2CWnd@@8					; CWnd::`RTTI Base Class Array'
PUBLIC	??_R1A@?0A@EA@CCmdTarget@@8			; CCmdTarget::`RTTI Base Class Descriptor at (0,-1,0,64)'
PUBLIC	??_R0?AVCCmdTarget@@@8				; CCmdTarget `RTTI Type Descriptor'
PUBLIC	??_R3CCmdTarget@@8				; CCmdTarget::`RTTI Class Hierarchy Descriptor'
PUBLIC	??_R2CCmdTarget@@8				; CCmdTarget::`RTTI Base Class Array'
PUBLIC	??_R4CButton@@6B@				; CButton::`RTTI Complete Object Locator'
PUBLIC	??_R0?AVCButton@@@8				; CButton `RTTI Type Descriptor'
PUBLIC	??_R3CButton@@8					; CButton::`RTTI Class Hierarchy Descriptor'
PUBLIC	??_R2CButton@@8					; CButton::`RTTI Base Class Array'
PUBLIC	??_R1A@?0A@EA@CButton@@8			; CButton::`RTTI Base Class Descriptor at (0,-1,0,64)'
PUBLIC	??_R4CComboBox@@6B@				; CComboBox::`RTTI Complete Object Locator'
PUBLIC	??_R0?AVCComboBox@@@8				; CComboBox `RTTI Type Descriptor'
PUBLIC	??_R3CComboBox@@8				; CComboBox::`RTTI Class Hierarchy Descriptor'
PUBLIC	??_R2CComboBox@@8				; CComboBox::`RTTI Base Class Array'
PUBLIC	??_R1A@?0A@EA@CComboBox@@8			; CComboBox::`RTTI Base Class Descriptor at (0,-1,0,64)'
PUBLIC	??_7CMessageWindow@@6B@				; CMessageWindow::`vftable'
PUBLIC	??_C@_06NFFIFIHG@?$LA?m?$LF?q?C?$LM@		; `string'
PUBLIC	??_C@_08ILACPJID@COMBOBOX@			; `string'
PUBLIC	??_C@_05PPEIMAMB@LINES@				; `string'
PUBLIC	??_C@_0M@CDBONBPF@MESSAGELINE@			; `string'
PUBLIC	??_R4CMessageWindow@@6B@			; CMessageWindow::`RTTI Complete Object Locator'
PUBLIC	??_R0?AVCMessageWindow@@@8			; CMessageWindow `RTTI Type Descriptor'
PUBLIC	??_R3CMessageWindow@@8				; CMessageWindow::`RTTI Class Hierarchy Descriptor'
PUBLIC	??_R2CMessageWindow@@8				; CMessageWindow::`RTTI Base Class Array'
PUBLIC	??_R1A@?0A@EA@CMessageWindow@@8			; CMessageWindow::`RTTI Base Class Descriptor at (0,-1,0,64)'
EXTRN	??3@YAXPAX@Z:PROC				; operator delete
EXTRN	?__global_delete@@YAXPAXI@Z:PROC		; __global_delete
EXTRN	___std_terminate:PROC
EXTRN	__imp__GetPrivateProfileIntA@16:PROC
EXTRN	__imp__CreateFontIndirectA@4:PROC
EXTRN	__imp__SendMessageA@16:PROC
EXTRN	__imp__EnableWindow@8:PROC
EXTRN	__imp__GetClientRect@8:PROC
EXTRN	__imp__SetRect@20:PROC
EXTRN	__imp__GetParent@4:PROC
EXTRN	?AfxThrowInvalidArgException@@YGXXZ:PROC	; AfxThrowInvalidArgException
EXTRN	__imp_??0?$CStringT@DV?$StrTraitMFC_DLL@DV?$ChTraitsCRT@D@ATL@@@@@ATL@@QAE@XZ:PROC
EXTRN	__imp_??0?$CStringT@DV?$StrTraitMFC_DLL@DV?$ChTraitsCRT@D@ATL@@@@@ATL@@QAE@PBD@Z:PROC
EXTRN	__imp_??1?$CStringT@DV?$StrTraitMFC_DLL@DV?$ChTraitsCRT@D@ATL@@@@@ATL@@QAE@XZ:PROC
EXTRN	__imp_??4?$CStringT@DV?$StrTraitMFC_DLL@DV?$ChTraitsCRT@D@ATL@@@@@ATL@@QAEAAV01@PBD@Z:PROC
EXTRN	__imp_?TrimRight@?$CStringT@DV?$StrTraitMFC_DLL@DV?$ChTraitsCRT@D@ATL@@@@@ATL@@QAEAAV12@XZ:PROC
EXTRN	__imp_?Left@?$CStringT@DV?$StrTraitMFC_DLL@DV?$ChTraitsCRT@D@ATL@@@@@ATL@@QBE?AV12@H@Z:PROC
EXTRN	__imp_?Format@?$CStringT@DV?$StrTraitMFC_DLL@DV?$ChTraitsCRT@D@ATL@@@@@ATL@@QAAXPBDZZ:PROC
EXTRN	??0CDWordArray@@QAE@XZ:PROC			; CDWordArray::CDWordArray
EXTRN	?SetSize@CDWordArray@@QAEXHH@Z:PROC		; CDWordArray::SetSize
EXTRN	?SetAtGrow@CDWordArray@@QAEXHK@Z:PROC		; CDWordArray::SetAtGrow
EXTRN	?InsertAt@CDWordArray@@QAEXHKH@Z:PROC		; CDWordArray::InsertAt
EXTRN	?RemoveAt@CDWordArray@@QAEXHH@Z:PROC		; CDWordArray::RemoveAt
EXTRN	??1CDWordArray@@UAE@XZ:PROC			; CDWordArray::~CDWordArray
EXTRN	?GetRuntimeClass@CGdiObject@@UBEPAUCRuntimeClass@@XZ:PROC ; CGdiObject::GetRuntimeClass
EXTRN	?Attach@CGdiObject@@QAEHPAX@Z:PROC		; CGdiObject::Attach
EXTRN	?DeleteObject@CGdiObject@@QAEHXZ:PROC		; CGdiObject::DeleteObject
EXTRN	??_ECGdiObject@@UAEPAXI@Z:PROC			; CGdiObject::`vector deleting destructor'
EXTRN	?GetRuntimeClass@CFont@@UBEPAUCRuntimeClass@@XZ:PROC ; CFont::GetRuntimeClass
EXTRN	??_ECFont@@UAEPAXI@Z:PROC			; CFont::`vector deleting destructor'
EXTRN	?FillSolidRect@CDC@@QAEXPBUtagRECT@@K@Z:PROC	; CDC::FillSolidRect
EXTRN	?OnCmdMsg@CCmdTarget@@UAEHIHPAXPAUAFX_CMDHANDLERINFO@@@Z:PROC ; CCmdTarget::OnCmdMsg
EXTRN	?IsInvokeAllowed@CCmdTarget@@UAEHJ@Z:PROC	; CCmdTarget::IsInvokeAllowed
EXTRN	?GetDispatchIID@CCmdTarget@@UAEHPAU_GUID@@@Z:PROC ; CCmdTarget::GetDispatchIID
EXTRN	?GetTypeInfoCount@CCmdTarget@@UAEIXZ:PROC	; CCmdTarget::GetTypeInfoCount
EXTRN	?GetTypeLibCache@CCmdTarget@@UAEPAVCTypeLibCache@@XZ:PROC ; CCmdTarget::GetTypeLibCache
EXTRN	?GetTypeLib@CCmdTarget@@UAEJKPAPAUITypeLib@@@Z:PROC ; CCmdTarget::GetTypeLib
EXTRN	?GetCommandMap@CCmdTarget@@MBEPBUAFX_OLECMDMAP@@XZ:PROC ; CCmdTarget::GetCommandMap
EXTRN	?GetDispatchMap@CCmdTarget@@MBEPBUAFX_DISPMAP@@XZ:PROC ; CCmdTarget::GetDispatchMap
EXTRN	?GetConnectionMap@CCmdTarget@@MBEPBUAFX_CONNECTIONMAP@@XZ:PROC ; CCmdTarget::GetConnectionMap
EXTRN	?GetEventSinkMap@CCmdTarget@@MBEPBUAFX_EVENTSINKMAP@@XZ:PROC ; CCmdTarget::GetEventSinkMap
EXTRN	?OnCreateAggregates@CCmdTarget@@UAEHXZ:PROC	; CCmdTarget::OnCreateAggregates
EXTRN	?GetInterfaceHook@CCmdTarget@@UAEPAUIUnknown@@PBX@Z:PROC ; CCmdTarget::GetInterfaceHook
EXTRN	?GetExtraConnectionPoints@CCmdTarget@@MAEHPAVCPtrArray@@@Z:PROC ; CCmdTarget::GetExtraConnectionPoints
EXTRN	?GetConnectionHook@CCmdTarget@@MAEPAUIConnectionPoint@@ABU_GUID@@@Z:PROC ; CCmdTarget::GetConnectionHook
EXTRN	?GetRuntimeClass@CWnd@@UBEPAUCRuntimeClass@@XZ:PROC ; CWnd::GetRuntimeClass
EXTRN	??0CWnd@@QAE@XZ:PROC				; CWnd::CWnd
EXTRN	?FromHandle@CWnd@@SGPAV1@PAUHWND__@@@Z:PROC	; CWnd::FromHandle
EXTRN	?PreSubclassWindow@CWnd@@UAEXXZ:PROC		; CWnd::PreSubclassWindow
EXTRN	?Create@CWnd@@UAEHPBD0KABUtagRECT@@PAV1@IPAUCCreateContext@@@Z:PROC ; CWnd::Create
EXTRN	?CreateEx@CWnd@@UAEHKPBD0KHHHHPAUHWND__@@PAUHMENU__@@PAX@Z:PROC ; CWnd::CreateEx
EXTRN	?CreateEx@CWnd@@UAEHKPBD0KABUtagRECT@@PAV1@IPAX@Z:PROC ; CWnd::CreateEx
EXTRN	?DestroyWindow@CWnd@@UAEHXZ:PROC		; CWnd::DestroyWindow
EXTRN	?PreCreateWindow@CWnd@@UAEHAAUtagCREATESTRUCTA@@@Z:PROC ; CWnd::PreCreateWindow
EXTRN	?CalcWindowRect@CWnd@@UAEXPAUtagRECT@@I@Z:PROC	; CWnd::CalcWindowRect
EXTRN	?GetMenu@CWnd@@UBEPAVCMenu@@XZ:PROC		; CWnd::GetMenu
EXTRN	?SetMenu@CWnd@@UAEHPAVCMenu@@@Z:PROC		; CWnd::SetMenu
EXTRN	?MoveWindow@CWnd@@QAEXHHHHH@Z:PROC		; CWnd::MoveWindow
EXTRN	?OnToolHitTest@CWnd@@UBEHVCPoint@@PAUtagTOOLINFOA@@@Z:PROC ; CWnd::OnToolHitTest
EXTRN	?GetScrollBarCtrl@CWnd@@UBEPAVCScrollBar@@H@Z:PROC ; CWnd::GetScrollBarCtrl
EXTRN	?WinHelpA@CWnd@@UAEXKI@Z:PROC			; CWnd::WinHelpA
EXTRN	?HtmlHelpA@CWnd@@UAEXKI@Z:PROC			; CWnd::HtmlHelpA
EXTRN	?WinHelpInternal@CWnd@@UAEXKI@Z:PROC		; CWnd::WinHelpInternal
EXTRN	?ContinueModal@CWnd@@UAEHXZ:PROC		; CWnd::ContinueModal
EXTRN	?EndModalLoop@CWnd@@UAEXH@Z:PROC		; CWnd::EndModalLoop
EXTRN	?OnDrawIconicThumbnailOrLivePreview@CWnd@@UAEXAAVCDC@@VCRect@@VCSize@@HAAH@Z:PROC ; CWnd::OnDrawIconicThumbnailOrLivePreview
EXTRN	?GetInterfaceMap@CWnd@@MBEPBUAFX_INTERFACEMAP@@XZ:PROC ; CWnd::GetInterfaceMap
EXTRN	?EnsureStdObj@CWnd@@UAEJXZ:PROC			; CWnd::EnsureStdObj
EXTRN	?get_accParent@CWnd@@UAEJPAPAUIDispatch@@@Z:PROC ; CWnd::get_accParent
EXTRN	?get_accChildCount@CWnd@@UAEJPAJ@Z:PROC		; CWnd::get_accChildCount
EXTRN	?get_accChild@CWnd@@UAEJUtagVARIANT@@PAPAUIDispatch@@@Z:PROC ; CWnd::get_accChild
EXTRN	?get_accName@CWnd@@UAEJUtagVARIANT@@PAPA_W@Z:PROC ; CWnd::get_accName
EXTRN	?get_accValue@CWnd@@UAEJUtagVARIANT@@PAPA_W@Z:PROC ; CWnd::get_accValue
EXTRN	?get_accDescription@CWnd@@UAEJUtagVARIANT@@PAPA_W@Z:PROC ; CWnd::get_accDescription
EXTRN	?get_accRole@CWnd@@UAEJUtagVARIANT@@PAU2@@Z:PROC ; CWnd::get_accRole
EXTRN	?get_accState@CWnd@@UAEJUtagVARIANT@@PAU2@@Z:PROC ; CWnd::get_accState
EXTRN	?get_accHelp@CWnd@@UAEJUtagVARIANT@@PAPA_W@Z:PROC ; CWnd::get_accHelp
EXTRN	?get_accHelpTopic@CWnd@@UAEJPAPA_WUtagVARIANT@@PAJ@Z:PROC ; CWnd::get_accHelpTopic
EXTRN	?get_accKeyboardShortcut@CWnd@@UAEJUtagVARIANT@@PAPA_W@Z:PROC ; CWnd::get_accKeyboardShortcut
EXTRN	?get_accFocus@CWnd@@UAEJPAUtagVARIANT@@@Z:PROC	; CWnd::get_accFocus
EXTRN	?get_accSelection@CWnd@@UAEJPAUtagVARIANT@@@Z:PROC ; CWnd::get_accSelection
EXTRN	?get_accDefaultAction@CWnd@@UAEJUtagVARIANT@@PAPA_W@Z:PROC ; CWnd::get_accDefaultAction
EXTRN	?accSelect@CWnd@@UAEJJUtagVARIANT@@@Z:PROC	; CWnd::accSelect
EXTRN	?accLocation@CWnd@@UAEJPAJ000UtagVARIANT@@@Z:PROC ; CWnd::accLocation
EXTRN	?accNavigate@CWnd@@UAEJJUtagVARIANT@@PAU2@@Z:PROC ; CWnd::accNavigate
EXTRN	?accHitTest@CWnd@@UAEJJJPAUtagVARIANT@@@Z:PROC	; CWnd::accHitTest
EXTRN	?accDoDefaultAction@CWnd@@UAEJUtagVARIANT@@@Z:PROC ; CWnd::accDoDefaultAction
EXTRN	?put_accName@CWnd@@UAEJUtagVARIANT@@PA_W@Z:PROC	; CWnd::put_accName
EXTRN	?put_accValue@CWnd@@UAEJUtagVARIANT@@PA_W@Z:PROC ; CWnd::put_accValue
EXTRN	?SetProxy@CWnd@@UAEJPAUIAccessibleProxy@@@Z:PROC ; CWnd::SetProxy
EXTRN	?CreateAccessibleProxy@CWnd@@UAEJIJPAJ@Z:PROC	; CWnd::CreateAccessibleProxy
EXTRN	?OnCommand@CWnd@@MAEHIJ@Z:PROC			; CWnd::OnCommand
EXTRN	?OnNotify@CWnd@@MAEHIJPAJ@Z:PROC		; CWnd::OnNotify
EXTRN	?GetSuperWndProcAddr@CWnd@@MAEPAP6GJPAUHWND__@@IIJ@ZXZ:PROC ; CWnd::GetSuperWndProcAddr
EXTRN	?PreTranslateMessage@CWnd@@UAEHPAUtagMSG@@@Z:PROC ; CWnd::PreTranslateMessage
EXTRN	?OnAmbientProperty@CWnd@@UAEHPAVCOleControlSite@@JPAUtagVARIANT@@@Z:PROC ; CWnd::OnAmbientProperty
EXTRN	?WindowProc@CWnd@@MAEJIIJ@Z:PROC		; CWnd::WindowProc
EXTRN	?OnWndMsg@CWnd@@MAEHIIJPAJ@Z:PROC		; CWnd::OnWndMsg
EXTRN	?Default@CWnd@@IAEJXZ:PROC			; CWnd::Default
EXTRN	?DefWindowProcA@CWnd@@MAEJIIJ@Z:PROC		; CWnd::DefWindowProcA
EXTRN	?PostNcDestroy@CWnd@@MAEXXZ:PROC		; CWnd::PostNcDestroy
EXTRN	?OnChildNotify@CWnd@@MAEHIIJPAJ@Z:PROC		; CWnd::OnChildNotify
EXTRN	?OnTouchInputs@CWnd@@MAEHIPAUtagTOUCHINPUT@@@Z:PROC ; CWnd::OnTouchInputs
EXTRN	?OnTouchInput@CWnd@@MAEHVCPoint@@HHPAUtagTOUCHINPUT@@@Z:PROC ; CWnd::OnTouchInput
EXTRN	?GetGestureStatus@CWnd@@MAEKVCPoint@@@Z:PROC	; CWnd::GetGestureStatus
EXTRN	?OnGestureZoom@CWnd@@MAEHVCPoint@@J@Z:PROC	; CWnd::OnGestureZoom
EXTRN	?OnGesturePan@CWnd@@MAEHVCPoint@@0@Z:PROC	; CWnd::OnGesturePan
EXTRN	?OnGestureRotate@CWnd@@MAEHVCPoint@@N@Z:PROC	; CWnd::OnGestureRotate
EXTRN	?OnGestureTwoFingerTap@CWnd@@MAEHVCPoint@@@Z:PROC ; CWnd::OnGestureTwoFingerTap
EXTRN	?OnGesturePressAndTap@CWnd@@MAEHVCPoint@@J@Z:PROC ; CWnd::OnGesturePressAndTap
EXTRN	?ResizeDynamicLayout@CWnd@@MAEXXZ:PROC		; CWnd::ResizeDynamicLayout
EXTRN	??1CWnd@@UAE@XZ:PROC				; CWnd::~CWnd
EXTRN	?CheckAutoCenter@CWnd@@UAEHXZ:PROC		; CWnd::CheckAutoCenter
EXTRN	?IsFrameWnd@CWnd@@UBEHXZ:PROC			; CWnd::IsFrameWnd
EXTRN	?OnFinalRelease@CWnd@@UAEXXZ:PROC		; CWnd::OnFinalRelease
EXTRN	?CreateControlContainer@CWnd@@MAEHPAPAVCOleControlContainer@@@Z:PROC ; CWnd::CreateControlContainer
EXTRN	?CreateControlSite@CWnd@@MAEHPAVCOleControlContainer@@PAPAVCOleControlSite@@IABU_GUID@@@Z:PROC ; CWnd::CreateControlSite
EXTRN	?SetOccDialogInfo@CWnd@@MAEHPAU_AFX_OCC_DIALOG_INFO@@@Z:PROC ; CWnd::SetOccDialogInfo
EXTRN	?GetOccDialogInfo@CWnd@@MAEPAU_AFX_OCC_DIALOG_INFO@@XZ:PROC ; CWnd::GetOccDialogInfo
EXTRN	?GetThisMessageMap@CWnd@@KGPBUAFX_MSGMAP@@XZ:PROC ; CWnd::GetThisMessageMap
EXTRN	?GetMessageMap@CWnd@@MBEPBUAFX_MSGMAP@@XZ:PROC	; CWnd::GetMessageMap
EXTRN	?GetRuntimeClass@CButton@@UBEPAUCRuntimeClass@@XZ:PROC ; CButton::GetRuntimeClass
EXTRN	?Create@CButton@@UAEHPBDKABUtagRECT@@PAVCWnd@@I@Z:PROC ; CButton::Create
EXTRN	?DrawItem@CButton@@UAEXPAUtagDRAWITEMSTRUCT@@@Z:PROC ; CButton::DrawItem
EXTRN	??1CButton@@UAE@XZ:PROC				; CButton::~CButton
EXTRN	?OnChildNotify@CButton@@MAEHIIJPAJ@Z:PROC	; CButton::OnChildNotify
EXTRN	??_ECButton@@UAEPAXI@Z:PROC			; CButton::`vector deleting destructor'
EXTRN	?GetRuntimeClass@CComboBox@@UBEPAUCRuntimeClass@@XZ:PROC ; CComboBox::GetRuntimeClass
EXTRN	?Create@CComboBox@@UAEHKABUtagRECT@@PAVCWnd@@I@Z:PROC ; CComboBox::Create
EXTRN	?GetLBText@CComboBox@@QBEXHAAV?$CStringT@DV?$StrTraitMFC_DLL@DV?$ChTraitsCRT@D@ATL@@@@@ATL@@@Z:PROC ; CComboBox::GetLBText
EXTRN	?DrawItem@CComboBox@@UAEXPAUtagDRAWITEMSTRUCT@@@Z:PROC ; CComboBox::DrawItem
EXTRN	?MeasureItem@CComboBox@@UAEXPAUtagMEASUREITEMSTRUCT@@@Z:PROC ; CComboBox::MeasureItem
EXTRN	?CompareItem@CComboBox@@UAEHPAUtagCOMPAREITEMSTRUCT@@@Z:PROC ; CComboBox::CompareItem
EXTRN	?DeleteItem@CComboBox@@UAEXPAUtagDELETEITEMSTRUCT@@@Z:PROC ; CComboBox::DeleteItem
EXTRN	??1CComboBox@@UAE@XZ:PROC			; CComboBox::~CComboBox
EXTRN	?OnChildNotify@CComboBox@@MAEHIIJPAJ@Z:PROC	; CComboBox::OnChildNotify
EXTRN	??_ECComboBox@@UAEPAXI@Z:PROC			; CComboBox::`vector deleting destructor'
EXTRN	?AfxMessageBox@@YGHPBDII@Z:PROC			; AfxMessageBox
EXTRN	??_ECMessageWindow@@UAEPAXI@Z:PROC		; CMessageWindow::`vector deleting destructor'
EXTRN	@__security_check_cookie@4:PROC
EXTRN	___CxxFrameHandler3:PROC
EXTRN	_memset:PROC
EXTRN	??_7type_info@@6B@:QWORD			; type_info::`vftable'
EXTRN	___security_cookie:DWORD
;	COMDAT ??_R1A@?0A@EA@CMessageWindow@@8
rdata$r	SEGMENT
??_R1A@?0A@EA@CMessageWindow@@8 DD FLAT:??_R0?AVCMessageWindow@@@8 ; CMessageWindow::`RTTI Base Class Descriptor at (0,-1,0,64)'
	DD	03H
	DD	00H
	DD	0ffffffffH
	DD	00H
	DD	040H
	DD	FLAT:??_R3CMessageWindow@@8
rdata$r	ENDS
;	COMDAT ??_R2CMessageWindow@@8
rdata$r	SEGMENT
??_R2CMessageWindow@@8 DD FLAT:??_R1A@?0A@EA@CMessageWindow@@8 ; CMessageWindow::`RTTI Base Class Array'
	DD	FLAT:??_R1A@?0A@EA@CWnd@@8
	DD	FLAT:??_R1A@?0A@EA@CCmdTarget@@8
	DD	FLAT:??_R1A@?0A@EA@CObject@@8
rdata$r	ENDS
;	COMDAT ??_R3CMessageWindow@@8
rdata$r	SEGMENT
??_R3CMessageWindow@@8 DD 00H				; CMessageWindow::`RTTI Class Hierarchy Descriptor'
	DD	00H
	DD	04H
	DD	FLAT:??_R2CMessageWindow@@8
rdata$r	ENDS
;	COMDAT ??_R0?AVCMessageWindow@@@8
data$rs	SEGMENT
??_R0?AVCMessageWindow@@@8 DD FLAT:??_7type_info@@6B@	; CMessageWindow `RTTI Type Descriptor'
	DD	00H
	DB	'.?AVCMessageWindow@@', 00H
data$rs	ENDS
;	COMDAT ??_R4CMessageWindow@@6B@
rdata$r	SEGMENT
??_R4CMessageWindow@@6B@ DD 00H				; CMessageWindow::`RTTI Complete Object Locator'
	DD	00H
	DD	00H
	DD	FLAT:??_R0?AVCMessageWindow@@@8
	DD	FLAT:??_R3CMessageWindow@@8
rdata$r	ENDS
;	COMDAT ??_C@_0M@CDBONBPF@MESSAGELINE@
CONST	SEGMENT
??_C@_0M@CDBONBPF@MESSAGELINE@ DB 'MESSAGELINE', 00H	; `string'
CONST	ENDS
;	COMDAT ??_C@_05PPEIMAMB@LINES@
CONST	SEGMENT
??_C@_05PPEIMAMB@LINES@ DB 'LINES', 00H			; `string'
CONST	ENDS
;	COMDAT ??_C@_08ILACPJID@COMBOBOX@
CONST	SEGMENT
??_C@_08ILACPJID@COMBOBOX@ DB 'COMBOBOX', 00H		; `string'
CONST	ENDS
;	COMDAT ??_C@_06NFFIFIHG@?$LA?m?$LF?q?C?$LM@
CONST	SEGMENT
??_C@_06NFFIFIHG@?$LA?m?$LF?q?C?$LM@ DB 0b0H, 0edH, 0b5H, 0f1H, 0c3H, 0bcH
	DB	00H						; `string'
CONST	ENDS
;	COMDAT ?messageMap@?1??GetThisMessageMap@CMessageWindow@@KGPBUAFX_MSGMAP@@XZ@4U3@B
CONST	SEGMENT
?messageMap@?1??GetThisMessageMap@CMessageWindow@@KGPBUAFX_MSGMAP@@XZ@4U3@B DD FLAT:?GetThisMessageMap@CWnd@@KGPBUAFX_MSGMAP@@XZ ; `CMessageWindow::GetThisMessageMap'::`2'::messageMap
	DD	FLAT:?_messageEntries@?1??GetThisMessageMap@CMessageWindow@@KGPBUAFX_MSGMAP@@XZ@4QBUAFX_MSGMAP_ENTRY@@B
CONST	ENDS
;	COMDAT ?_messageEntries@?1??GetThisMessageMap@CMessageWindow@@KGPBUAFX_MSGMAP@@XZ@4QBUAFX_MSGMAP_ENTRY@@B
CONST	SEGMENT
?_messageEntries@?1??GetThisMessageMap@CMessageWindow@@KGPBUAFX_MSGMAP@@XZ@4QBUAFX_MSGMAP_ENTRY@@B DD 01H ; `CMessageWindow::GetThisMessageMap'::`2'::_messageEntries
	DD	00H
	DD	00H
	DD	00H
	DD	0dH
	DD	FLAT:?OnCreate@CMessageWindow@@IAEHPAUtagCREATESTRUCTA@@@Z
	DD	014H
	DD	00H
	DD	00H
	DD	00H
	DD	01H
	DD	FLAT:?OnEraseBkgnd@CMessageWindow@@IAEHPAVCDC@@@Z
	DD	0111H
	DD	00H
	DD	0834H
	DD	0837H
	DD	03cH
	DD	FLAT:?OnClickedButton@CMessageWindow@@IAEXI@Z
	DD	00H
	DD	00H
	DD	00H
	DD	00H
	DD	00H
	DD	00H
CONST	ENDS
;	COMDAT ??_7CMessageWindow@@6B@
CONST	SEGMENT
??_7CMessageWindow@@6B@ DD FLAT:??_R4CMessageWindow@@6B@ ; CMessageWindow::`vftable'
	DD	FLAT:?GetRuntimeClass@CWnd@@UBEPAUCRuntimeClass@@XZ
	DD	FLAT:??_ECMessageWindow@@UAEPAXI@Z
	DD	FLAT:?Serialize@CObject@@UAEXAAVCArchive@@@Z
	DD	FLAT:?AssertValid@CObject@@UBEXXZ
	DD	FLAT:?Dump@CObject@@UBEXAAVCDumpContext@@@Z
	DD	FLAT:?OnCmdMsg@CCmdTarget@@UAEHIHPAXPAUAFX_CMDHANDLERINFO@@@Z
	DD	FLAT:?OnFinalRelease@CWnd@@UAEXXZ
	DD	FLAT:?IsInvokeAllowed@CCmdTarget@@UAEHJ@Z
	DD	FLAT:?GetDispatchIID@CCmdTarget@@UAEHPAU_GUID@@@Z
	DD	FLAT:?GetTypeInfoCount@CCmdTarget@@UAEIXZ
	DD	FLAT:?GetTypeLibCache@CCmdTarget@@UAEPAVCTypeLibCache@@XZ
	DD	FLAT:?GetTypeLib@CCmdTarget@@UAEJKPAPAUITypeLib@@@Z
	DD	FLAT:?GetMessageMap@CMessageWindow@@MBEPBUAFX_MSGMAP@@XZ
	DD	FLAT:?GetCommandMap@CCmdTarget@@MBEPBUAFX_OLECMDMAP@@XZ
	DD	FLAT:?GetDispatchMap@CCmdTarget@@MBEPBUAFX_DISPMAP@@XZ
	DD	FLAT:?GetConnectionMap@CCmdTarget@@MBEPBUAFX_CONNECTIONMAP@@XZ
	DD	FLAT:?GetInterfaceMap@CWnd@@MBEPBUAFX_INTERFACEMAP@@XZ
	DD	FLAT:?GetEventSinkMap@CCmdTarget@@MBEPBUAFX_EVENTSINKMAP@@XZ
	DD	FLAT:?OnCreateAggregates@CCmdTarget@@UAEHXZ
	DD	FLAT:?GetInterfaceHook@CCmdTarget@@UAEPAUIUnknown@@PBX@Z
	DD	FLAT:?GetExtraConnectionPoints@CCmdTarget@@MAEHPAVCPtrArray@@@Z
	DD	FLAT:?GetConnectionHook@CCmdTarget@@MAEPAUIConnectionPoint@@ABU_GUID@@@Z
	DD	FLAT:?PreSubclassWindow@CWnd@@UAEXXZ
	DD	FLAT:?Create@CWnd@@UAEHPBD0KABUtagRECT@@PAV1@IPAUCCreateContext@@@Z
	DD	FLAT:?CreateEx@CWnd@@UAEHKPBD0KABUtagRECT@@PAV1@IPAX@Z
	DD	FLAT:?CreateEx@CWnd@@UAEHKPBD0KHHHHPAUHWND__@@PAUHMENU__@@PAX@Z
	DD	FLAT:?DestroyWindow@CWnd@@UAEHXZ
	DD	FLAT:?PreCreateWindow@CWnd@@UAEHAAUtagCREATESTRUCTA@@@Z
	DD	FLAT:?CalcWindowRect@CWnd@@UAEXPAUtagRECT@@I@Z
	DD	FLAT:?GetMenu@CWnd@@UBEPAVCMenu@@XZ
	DD	FLAT:?SetMenu@CWnd@@UAEHPAVCMenu@@@Z
	DD	FLAT:?OnToolHitTest@CWnd@@UBEHVCPoint@@PAUtagTOOLINFOA@@@Z
	DD	FLAT:?GetScrollBarCtrl@CWnd@@UBEPAVCScrollBar@@H@Z
	DD	FLAT:?WinHelpA@CWnd@@UAEXKI@Z
	DD	FLAT:?HtmlHelpA@CWnd@@UAEXKI@Z
	DD	FLAT:?WinHelpInternal@CWnd@@UAEXKI@Z
	DD	FLAT:?ContinueModal@CWnd@@UAEHXZ
	DD	FLAT:?EndModalLoop@CWnd@@UAEXH@Z
	DD	FLAT:?OnDrawIconicThumbnailOrLivePreview@CWnd@@UAEXAAVCDC@@VCRect@@VCSize@@HAAH@Z
	DD	FLAT:?EnsureStdObj@CWnd@@UAEJXZ
	DD	FLAT:?get_accParent@CWnd@@UAEJPAPAUIDispatch@@@Z
	DD	FLAT:?get_accChildCount@CWnd@@UAEJPAJ@Z
	DD	FLAT:?get_accChild@CWnd@@UAEJUtagVARIANT@@PAPAUIDispatch@@@Z
	DD	FLAT:?get_accName@CWnd@@UAEJUtagVARIANT@@PAPA_W@Z
	DD	FLAT:?get_accValue@CWnd@@UAEJUtagVARIANT@@PAPA_W@Z
	DD	FLAT:?get_accDescription@CWnd@@UAEJUtagVARIANT@@PAPA_W@Z
	DD	FLAT:?get_accRole@CWnd@@UAEJUtagVARIANT@@PAU2@@Z
	DD	FLAT:?get_accState@CWnd@@UAEJUtagVARIANT@@PAU2@@Z
	DD	FLAT:?get_accHelp@CWnd@@UAEJUtagVARIANT@@PAPA_W@Z
	DD	FLAT:?get_accHelpTopic@CWnd@@UAEJPAPA_WUtagVARIANT@@PAJ@Z
	DD	FLAT:?get_accKeyboardShortcut@CWnd@@UAEJUtagVARIANT@@PAPA_W@Z
	DD	FLAT:?get_accFocus@CWnd@@UAEJPAUtagVARIANT@@@Z
	DD	FLAT:?get_accSelection@CWnd@@UAEJPAUtagVARIANT@@@Z
	DD	FLAT:?get_accDefaultAction@CWnd@@UAEJUtagVARIANT@@PAPA_W@Z
	DD	FLAT:?accSelect@CWnd@@UAEJJUtagVARIANT@@@Z
	DD	FLAT:?accLocation@CWnd@@UAEJPAJ000UtagVARIANT@@@Z
	DD	FLAT:?accNavigate@CWnd@@UAEJJUtagVARIANT@@PAU2@@Z
	DD	FLAT:?accHitTest@CWnd@@UAEJJJPAUtagVARIANT@@@Z
	DD	FLAT:?accDoDefaultAction@CWnd@@UAEJUtagVARIANT@@@Z
	DD	FLAT:?put_accName@CWnd@@UAEJUtagVARIANT@@PA_W@Z
	DD	FLAT:?put_accValue@CWnd@@UAEJUtagVARIANT@@PA_W@Z
	DD	FLAT:?SetProxy@CWnd@@UAEJPAUIAccessibleProxy@@@Z
	DD	FLAT:?CreateAccessibleProxy@CWnd@@UAEJIJPAJ@Z
	DD	FLAT:?OnCommand@CWnd@@MAEHIJ@Z
	DD	FLAT:?OnNotify@CWnd@@MAEHIJPAJ@Z
	DD	FLAT:?GetSuperWndProcAddr@CWnd@@MAEPAP6GJPAUHWND__@@IIJ@ZXZ
	DD	FLAT:?DoDataExchange@CWnd@@MAEXPAVCDataExchange@@@Z
	DD	FLAT:?BeginModalState@CWnd@@UAEXXZ
	DD	FLAT:?EndModalState@CWnd@@UAEXXZ
	DD	FLAT:?PreTranslateMessage@CWnd@@UAEHPAUtagMSG@@@Z
	DD	FLAT:?OnAmbientProperty@CWnd@@UAEHPAVCOleControlSite@@JPAUtagVARIANT@@@Z
	DD	FLAT:?WindowProc@CWnd@@MAEJIIJ@Z
	DD	FLAT:?OnWndMsg@CWnd@@MAEHIIJPAJ@Z
	DD	FLAT:?DefWindowProcA@CWnd@@MAEJIIJ@Z
	DD	FLAT:?PostNcDestroy@CWnd@@MAEXXZ
	DD	FLAT:?OnChildNotify@CWnd@@MAEHIIJPAJ@Z
	DD	FLAT:?OnTouchInputs@CWnd@@MAEHIPAUtagTOUCHINPUT@@@Z
	DD	FLAT:?OnTouchInput@CWnd@@MAEHVCPoint@@HHPAUtagTOUCHINPUT@@@Z
	DD	FLAT:?GetGestureStatus@CWnd@@MAEKVCPoint@@@Z
	DD	FLAT:?OnGestureZoom@CWnd@@MAEHVCPoint@@J@Z
	DD	FLAT:?OnGesturePan@CWnd@@MAEHVCPoint@@0@Z
	DD	FLAT:?OnGestureRotate@CWnd@@MAEHVCPoint@@N@Z
	DD	FLAT:?OnGestureTwoFingerTap@CWnd@@MAEHVCPoint@@@Z
	DD	FLAT:?OnGesturePressAndTap@CWnd@@MAEHVCPoint@@J@Z
	DD	FLAT:?ResizeDynamicLayout@CWnd@@MAEXXZ
	DD	FLAT:?CheckAutoCenter@CWnd@@UAEHXZ
	DD	FLAT:?IsFrameWnd@CWnd@@UBEHXZ
	DD	FLAT:?CreateControlContainer@CWnd@@MAEHPAPAVCOleControlContainer@@@Z
	DD	FLAT:?CreateControlSite@CWnd@@MAEHPAVCOleControlContainer@@PAPAVCOleControlSite@@IABU_GUID@@@Z
	DD	FLAT:?SetOccDialogInfo@CWnd@@MAEHPAU_AFX_OCC_DIALOG_INFO@@@Z
	DD	FLAT:?GetOccDialogInfo@CWnd@@MAEPAU_AFX_OCC_DIALOG_INFO@@XZ
CONST	ENDS
;	COMDAT ??_R1A@?0A@EA@CComboBox@@8
rdata$r	SEGMENT
??_R1A@?0A@EA@CComboBox@@8 DD FLAT:??_R0?AVCComboBox@@@8 ; CComboBox::`RTTI Base Class Descriptor at (0,-1,0,64)'
	DD	03H
	DD	00H
	DD	0ffffffffH
	DD	00H
	DD	040H
	DD	FLAT:??_R3CComboBox@@8
rdata$r	ENDS
;	COMDAT ??_R2CComboBox@@8
rdata$r	SEGMENT
??_R2CComboBox@@8 DD FLAT:??_R1A@?0A@EA@CComboBox@@8	; CComboBox::`RTTI Base Class Array'
	DD	FLAT:??_R1A@?0A@EA@CWnd@@8
	DD	FLAT:??_R1A@?0A@EA@CCmdTarget@@8
	DD	FLAT:??_R1A@?0A@EA@CObject@@8
rdata$r	ENDS
;	COMDAT ??_R3CComboBox@@8
rdata$r	SEGMENT
??_R3CComboBox@@8 DD 00H				; CComboBox::`RTTI Class Hierarchy Descriptor'
	DD	00H
	DD	04H
	DD	FLAT:??_R2CComboBox@@8
rdata$r	ENDS
;	COMDAT ??_R0?AVCComboBox@@@8
data$rs	SEGMENT
??_R0?AVCComboBox@@@8 DD FLAT:??_7type_info@@6B@	; CComboBox `RTTI Type Descriptor'
	DD	00H
	DB	'.?AVCComboBox@@', 00H
data$rs	ENDS
;	COMDAT ??_R4CComboBox@@6B@
rdata$r	SEGMENT
??_R4CComboBox@@6B@ DD 00H				; CComboBox::`RTTI Complete Object Locator'
	DD	00H
	DD	00H
	DD	FLAT:??_R0?AVCComboBox@@@8
	DD	FLAT:??_R3CComboBox@@8
rdata$r	ENDS
;	COMDAT ??_R1A@?0A@EA@CButton@@8
rdata$r	SEGMENT
??_R1A@?0A@EA@CButton@@8 DD FLAT:??_R0?AVCButton@@@8	; CButton::`RTTI Base Class Descriptor at (0,-1,0,64)'
	DD	03H
	DD	00H
	DD	0ffffffffH
	DD	00H
	DD	040H
	DD	FLAT:??_R3CButton@@8
rdata$r	ENDS
;	COMDAT ??_R2CButton@@8
rdata$r	SEGMENT
??_R2CButton@@8 DD FLAT:??_R1A@?0A@EA@CButton@@8	; CButton::`RTTI Base Class Array'
	DD	FLAT:??_R1A@?0A@EA@CWnd@@8
	DD	FLAT:??_R1A@?0A@EA@CCmdTarget@@8
	DD	FLAT:??_R1A@?0A@EA@CObject@@8
rdata$r	ENDS
;	COMDAT ??_R3CButton@@8
rdata$r	SEGMENT
??_R3CButton@@8 DD 00H					; CButton::`RTTI Class Hierarchy Descriptor'
	DD	00H
	DD	04H
	DD	FLAT:??_R2CButton@@8
rdata$r	ENDS
;	COMDAT ??_R0?AVCButton@@@8
data$rs	SEGMENT
??_R0?AVCButton@@@8 DD FLAT:??_7type_info@@6B@		; CButton `RTTI Type Descriptor'
	DD	00H
	DB	'.?AVCButton@@', 00H
data$rs	ENDS
;	COMDAT ??_R4CButton@@6B@
rdata$r	SEGMENT
??_R4CButton@@6B@ DD 00H				; CButton::`RTTI Complete Object Locator'
	DD	00H
	DD	00H
	DD	FLAT:??_R0?AVCButton@@@8
	DD	FLAT:??_R3CButton@@8
rdata$r	ENDS
;	COMDAT ??_R2CCmdTarget@@8
rdata$r	SEGMENT
??_R2CCmdTarget@@8 DD FLAT:??_R1A@?0A@EA@CCmdTarget@@8	; CCmdTarget::`RTTI Base Class Array'
	DD	FLAT:??_R1A@?0A@EA@CObject@@8
rdata$r	ENDS
;	COMDAT ??_R3CCmdTarget@@8
rdata$r	SEGMENT
??_R3CCmdTarget@@8 DD 00H				; CCmdTarget::`RTTI Class Hierarchy Descriptor'
	DD	00H
	DD	02H
	DD	FLAT:??_R2CCmdTarget@@8
rdata$r	ENDS
;	COMDAT ??_R0?AVCCmdTarget@@@8
data$rs	SEGMENT
??_R0?AVCCmdTarget@@@8 DD FLAT:??_7type_info@@6B@	; CCmdTarget `RTTI Type Descriptor'
	DD	00H
	DB	'.?AVCCmdTarget@@', 00H
data$rs	ENDS
;	COMDAT ??_R1A@?0A@EA@CCmdTarget@@8
rdata$r	SEGMENT
??_R1A@?0A@EA@CCmdTarget@@8 DD FLAT:??_R0?AVCCmdTarget@@@8 ; CCmdTarget::`RTTI Base Class Descriptor at (0,-1,0,64)'
	DD	01H
	DD	00H
	DD	0ffffffffH
	DD	00H
	DD	040H
	DD	FLAT:??_R3CCmdTarget@@8
rdata$r	ENDS
;	COMDAT ??_R2CWnd@@8
rdata$r	SEGMENT
??_R2CWnd@@8 DD	FLAT:??_R1A@?0A@EA@CWnd@@8		; CWnd::`RTTI Base Class Array'
	DD	FLAT:??_R1A@?0A@EA@CCmdTarget@@8
	DD	FLAT:??_R1A@?0A@EA@CObject@@8
rdata$r	ENDS
;	COMDAT ??_R3CWnd@@8
rdata$r	SEGMENT
??_R3CWnd@@8 DD	00H					; CWnd::`RTTI Class Hierarchy Descriptor'
	DD	00H
	DD	03H
	DD	FLAT:??_R2CWnd@@8
rdata$r	ENDS
;	COMDAT ??_R0?AVCWnd@@@8
data$rs	SEGMENT
??_R0?AVCWnd@@@8 DD FLAT:??_7type_info@@6B@		; CWnd `RTTI Type Descriptor'
	DD	00H
	DB	'.?AVCWnd@@', 00H
data$rs	ENDS
;	COMDAT ??_R1A@?0A@EA@CWnd@@8
rdata$r	SEGMENT
??_R1A@?0A@EA@CWnd@@8 DD FLAT:??_R0?AVCWnd@@@8		; CWnd::`RTTI Base Class Descriptor at (0,-1,0,64)'
	DD	02H
	DD	00H
	DD	0ffffffffH
	DD	00H
	DD	040H
	DD	FLAT:??_R3CWnd@@8
rdata$r	ENDS
;	COMDAT ??_R1A@?0A@EA@CFont@@8
rdata$r	SEGMENT
??_R1A@?0A@EA@CFont@@8 DD FLAT:??_R0?AVCFont@@@8	; CFont::`RTTI Base Class Descriptor at (0,-1,0,64)'
	DD	02H
	DD	00H
	DD	0ffffffffH
	DD	00H
	DD	040H
	DD	FLAT:??_R3CFont@@8
rdata$r	ENDS
;	COMDAT ??_R2CFont@@8
rdata$r	SEGMENT
??_R2CFont@@8 DD FLAT:??_R1A@?0A@EA@CFont@@8		; CFont::`RTTI Base Class Array'
	DD	FLAT:??_R1A@?0A@EA@CGdiObject@@8
	DD	FLAT:??_R1A@?0A@EA@CObject@@8
rdata$r	ENDS
;	COMDAT ??_R3CFont@@8
rdata$r	SEGMENT
??_R3CFont@@8 DD 00H					; CFont::`RTTI Class Hierarchy Descriptor'
	DD	00H
	DD	03H
	DD	FLAT:??_R2CFont@@8
rdata$r	ENDS
;	COMDAT ??_R0?AVCFont@@@8
data$rs	SEGMENT
??_R0?AVCFont@@@8 DD FLAT:??_7type_info@@6B@		; CFont `RTTI Type Descriptor'
	DD	00H
	DB	'.?AVCFont@@', 00H
data$rs	ENDS
;	COMDAT ??_R4CFont@@6B@
rdata$r	SEGMENT
??_R4CFont@@6B@ DD 00H					; CFont::`RTTI Complete Object Locator'
	DD	00H
	DD	00H
	DD	FLAT:??_R0?AVCFont@@@8
	DD	FLAT:??_R3CFont@@8
rdata$r	ENDS
;	COMDAT ??_R1A@?0A@EA@CGdiObject@@8
rdata$r	SEGMENT
??_R1A@?0A@EA@CGdiObject@@8 DD FLAT:??_R0?AVCGdiObject@@@8 ; CGdiObject::`RTTI Base Class Descriptor at (0,-1,0,64)'
	DD	01H
	DD	00H
	DD	0ffffffffH
	DD	00H
	DD	040H
	DD	FLAT:??_R3CGdiObject@@8
rdata$r	ENDS
;	COMDAT ??_R2CGdiObject@@8
rdata$r	SEGMENT
??_R2CGdiObject@@8 DD FLAT:??_R1A@?0A@EA@CGdiObject@@8	; CGdiObject::`RTTI Base Class Array'
	DD	FLAT:??_R1A@?0A@EA@CObject@@8
rdata$r	ENDS
;	COMDAT ??_R3CGdiObject@@8
rdata$r	SEGMENT
??_R3CGdiObject@@8 DD 00H				; CGdiObject::`RTTI Class Hierarchy Descriptor'
	DD	00H
	DD	02H
	DD	FLAT:??_R2CGdiObject@@8
rdata$r	ENDS
;	COMDAT ??_R0?AVCGdiObject@@@8
data$rs	SEGMENT
??_R0?AVCGdiObject@@@8 DD FLAT:??_7type_info@@6B@	; CGdiObject `RTTI Type Descriptor'
	DD	00H
	DB	'.?AVCGdiObject@@', 00H
data$rs	ENDS
;	COMDAT ??_R4CGdiObject@@6B@
rdata$r	SEGMENT
??_R4CGdiObject@@6B@ DD 00H				; CGdiObject::`RTTI Complete Object Locator'
	DD	00H
	DD	00H
	DD	FLAT:??_R0?AVCGdiObject@@@8
	DD	FLAT:??_R3CGdiObject@@8
rdata$r	ENDS
;	COMDAT ??_R1A@?0A@EA@CObject@@8
rdata$r	SEGMENT
??_R1A@?0A@EA@CObject@@8 DD FLAT:??_R0?AVCObject@@@8	; CObject::`RTTI Base Class Descriptor at (0,-1,0,64)'
	DD	00H
	DD	00H
	DD	0ffffffffH
	DD	00H
	DD	040H
	DD	FLAT:??_R3CObject@@8
rdata$r	ENDS
;	COMDAT ??_R2CObject@@8
rdata$r	SEGMENT
??_R2CObject@@8 DD FLAT:??_R1A@?0A@EA@CObject@@8	; CObject::`RTTI Base Class Array'
rdata$r	ENDS
;	COMDAT ??_R3CObject@@8
rdata$r	SEGMENT
??_R3CObject@@8 DD 00H					; CObject::`RTTI Class Hierarchy Descriptor'
	DD	00H
	DD	01H
	DD	FLAT:??_R2CObject@@8
rdata$r	ENDS
;	COMDAT ??_R0?AVCObject@@@8
data$rs	SEGMENT
??_R0?AVCObject@@@8 DD FLAT:??_7type_info@@6B@		; CObject `RTTI Type Descriptor'
	DD	00H
	DB	'.?AVCObject@@', 00H
data$rs	ENDS
;	COMDAT ??_C@_0N@OMEMOKLE@?$CFTs?5?$CI?$CFTs?3?$CFd?$CJ@
CONST	SEGMENT
??_C@_0N@OMEMOKLE@?$CFTs?5?$CI?$CFTs?3?$CFd?$CJ@ DB '%Ts (%Ts:%d)', 00H ; `string'
CONST	ENDS
;	COMDAT ??_C@_0BB@HBOOMJBF@?$CFTs?5?$CI?$CFTs?3?$CFd?$CJ?6?$CFTs@
CONST	SEGMENT
??_C@_0BB@HBOOMJBF@?$CFTs?5?$CI?$CFTs?3?$CFd?$CJ?6?$CFTs@ DB '%Ts (%Ts:%d'
	DB	')', 0aH, '%Ts', 00H				; `string'
CONST	ENDS
;	COMDAT ??_C@_0BP@OIEOKIDM@Exception?5thrown?5in?5destructor@
CONST	SEGMENT
??_C@_0BP@OIEOKIDM@Exception?5thrown?5in?5destructor@ DB 'Exception throw'
	DB	'n in destructor', 00H			; `string'
CONST	ENDS
;	COMDAT ??_C@_0HD@JJCHHHNK@C?3?2Program?5Files?5?$CIx86?$CJ?2Microsof@
CONST	SEGMENT
??_C@_0HD@JJCHHHNK@C?3?2Program?5Files?5?$CIx86?$CJ?2Microsof@ DB 'C:\Pro'
	DB	'gram Files (x86)\Microsoft Visual Studio\2019\Community\VC\To'
	DB	'ols\MSVC\14.29.30133\atlmfc\include\afxwin1.inl', 00H ; `string'
CONST	ENDS
;	COMDAT ??_7CComboBox@@6B@
CONST	SEGMENT
??_7CComboBox@@6B@ DD FLAT:??_R4CComboBox@@6B@		; CComboBox::`vftable'
	DD	FLAT:?GetRuntimeClass@CComboBox@@UBEPAUCRuntimeClass@@XZ
	DD	FLAT:??_ECComboBox@@UAEPAXI@Z
	DD	FLAT:?Serialize@CObject@@UAEXAAVCArchive@@@Z
	DD	FLAT:?AssertValid@CObject@@UBEXXZ
	DD	FLAT:?Dump@CObject@@UBEXAAVCDumpContext@@@Z
	DD	FLAT:?OnCmdMsg@CCmdTarget@@UAEHIHPAXPAUAFX_CMDHANDLERINFO@@@Z
	DD	FLAT:?OnFinalRelease@CWnd@@UAEXXZ
	DD	FLAT:?IsInvokeAllowed@CCmdTarget@@UAEHJ@Z
	DD	FLAT:?GetDispatchIID@CCmdTarget@@UAEHPAU_GUID@@@Z
	DD	FLAT:?GetTypeInfoCount@CCmdTarget@@UAEIXZ
	DD	FLAT:?GetTypeLibCache@CCmdTarget@@UAEPAVCTypeLibCache@@XZ
	DD	FLAT:?GetTypeLib@CCmdTarget@@UAEJKPAPAUITypeLib@@@Z
	DD	FLAT:?GetMessageMap@CWnd@@MBEPBUAFX_MSGMAP@@XZ
	DD	FLAT:?GetCommandMap@CCmdTarget@@MBEPBUAFX_OLECMDMAP@@XZ
	DD	FLAT:?GetDispatchMap@CCmdTarget@@MBEPBUAFX_DISPMAP@@XZ
	DD	FLAT:?GetConnectionMap@CCmdTarget@@MBEPBUAFX_CONNECTIONMAP@@XZ
	DD	FLAT:?GetInterfaceMap@CWnd@@MBEPBUAFX_INTERFACEMAP@@XZ
	DD	FLAT:?GetEventSinkMap@CCmdTarget@@MBEPBUAFX_EVENTSINKMAP@@XZ
	DD	FLAT:?OnCreateAggregates@CCmdTarget@@UAEHXZ
	DD	FLAT:?GetInterfaceHook@CCmdTarget@@UAEPAUIUnknown@@PBX@Z
	DD	FLAT:?GetExtraConnectionPoints@CCmdTarget@@MAEHPAVCPtrArray@@@Z
	DD	FLAT:?GetConnectionHook@CCmdTarget@@MAEPAUIConnectionPoint@@ABU_GUID@@@Z
	DD	FLAT:?PreSubclassWindow@CWnd@@UAEXXZ
	DD	FLAT:?Create@CWnd@@UAEHPBD0KABUtagRECT@@PAV1@IPAUCCreateContext@@@Z
	DD	FLAT:?CreateEx@CWnd@@UAEHKPBD0KABUtagRECT@@PAV1@IPAX@Z
	DD	FLAT:?CreateEx@CWnd@@UAEHKPBD0KHHHHPAUHWND__@@PAUHMENU__@@PAX@Z
	DD	FLAT:?DestroyWindow@CWnd@@UAEHXZ
	DD	FLAT:?PreCreateWindow@CWnd@@UAEHAAUtagCREATESTRUCTA@@@Z
	DD	FLAT:?CalcWindowRect@CWnd@@UAEXPAUtagRECT@@I@Z
	DD	FLAT:?GetMenu@CWnd@@UBEPAVCMenu@@XZ
	DD	FLAT:?SetMenu@CWnd@@UAEHPAVCMenu@@@Z
	DD	FLAT:?OnToolHitTest@CWnd@@UBEHVCPoint@@PAUtagTOOLINFOA@@@Z
	DD	FLAT:?GetScrollBarCtrl@CWnd@@UBEPAVCScrollBar@@H@Z
	DD	FLAT:?WinHelpA@CWnd@@UAEXKI@Z
	DD	FLAT:?HtmlHelpA@CWnd@@UAEXKI@Z
	DD	FLAT:?WinHelpInternal@CWnd@@UAEXKI@Z
	DD	FLAT:?ContinueModal@CWnd@@UAEHXZ
	DD	FLAT:?EndModalLoop@CWnd@@UAEXH@Z
	DD	FLAT:?OnDrawIconicThumbnailOrLivePreview@CWnd@@UAEXAAVCDC@@VCRect@@VCSize@@HAAH@Z
	DD	FLAT:?EnsureStdObj@CWnd@@UAEJXZ
	DD	FLAT:?get_accParent@CWnd@@UAEJPAPAUIDispatch@@@Z
	DD	FLAT:?get_accChildCount@CWnd@@UAEJPAJ@Z
	DD	FLAT:?get_accChild@CWnd@@UAEJUtagVARIANT@@PAPAUIDispatch@@@Z
	DD	FLAT:?get_accName@CWnd@@UAEJUtagVARIANT@@PAPA_W@Z
	DD	FLAT:?get_accValue@CWnd@@UAEJUtagVARIANT@@PAPA_W@Z
	DD	FLAT:?get_accDescription@CWnd@@UAEJUtagVARIANT@@PAPA_W@Z
	DD	FLAT:?get_accRole@CWnd@@UAEJUtagVARIANT@@PAU2@@Z
	DD	FLAT:?get_accState@CWnd@@UAEJUtagVARIANT@@PAU2@@Z
	DD	FLAT:?get_accHelp@CWnd@@UAEJUtagVARIANT@@PAPA_W@Z
	DD	FLAT:?get_accHelpTopic@CWnd@@UAEJPAPA_WUtagVARIANT@@PAJ@Z
	DD	FLAT:?get_accKeyboardShortcut@CWnd@@UAEJUtagVARIANT@@PAPA_W@Z
	DD	FLAT:?get_accFocus@CWnd@@UAEJPAUtagVARIANT@@@Z
	DD	FLAT:?get_accSelection@CWnd@@UAEJPAUtagVARIANT@@@Z
	DD	FLAT:?get_accDefaultAction@CWnd@@UAEJUtagVARIANT@@PAPA_W@Z
	DD	FLAT:?accSelect@CWnd@@UAEJJUtagVARIANT@@@Z
	DD	FLAT:?accLocation@CWnd@@UAEJPAJ000UtagVARIANT@@@Z
	DD	FLAT:?accNavigate@CWnd@@UAEJJUtagVARIANT@@PAU2@@Z
	DD	FLAT:?accHitTest@CWnd@@UAEJJJPAUtagVARIANT@@@Z
	DD	FLAT:?accDoDefaultAction@CWnd@@UAEJUtagVARIANT@@@Z
	DD	FLAT:?put_accName@CWnd@@UAEJUtagVARIANT@@PA_W@Z
	DD	FLAT:?put_accValue@CWnd@@UAEJUtagVARIANT@@PA_W@Z
	DD	FLAT:?SetProxy@CWnd@@UAEJPAUIAccessibleProxy@@@Z
	DD	FLAT:?CreateAccessibleProxy@CWnd@@UAEJIJPAJ@Z
	DD	FLAT:?OnCommand@CWnd@@MAEHIJ@Z
	DD	FLAT:?OnNotify@CWnd@@MAEHIJPAJ@Z
	DD	FLAT:?GetSuperWndProcAddr@CWnd@@MAEPAP6GJPAUHWND__@@IIJ@ZXZ
	DD	FLAT:?DoDataExchange@CWnd@@MAEXPAVCDataExchange@@@Z
	DD	FLAT:?BeginModalState@CWnd@@UAEXXZ
	DD	FLAT:?EndModalState@CWnd@@UAEXXZ
	DD	FLAT:?PreTranslateMessage@CWnd@@UAEHPAUtagMSG@@@Z
	DD	FLAT:?OnAmbientProperty@CWnd@@UAEHPAVCOleControlSite@@JPAUtagVARIANT@@@Z
	DD	FLAT:?WindowProc@CWnd@@MAEJIIJ@Z
	DD	FLAT:?OnWndMsg@CWnd@@MAEHIIJPAJ@Z
	DD	FLAT:?DefWindowProcA@CWnd@@MAEJIIJ@Z
	DD	FLAT:?PostNcDestroy@CWnd@@MAEXXZ
	DD	FLAT:?OnChildNotify@CComboBox@@MAEHIIJPAJ@Z
	DD	FLAT:?OnTouchInputs@CWnd@@MAEHIPAUtagTOUCHINPUT@@@Z
	DD	FLAT:?OnTouchInput@CWnd@@MAEHVCPoint@@HHPAUtagTOUCHINPUT@@@Z
	DD	FLAT:?GetGestureStatus@CWnd@@MAEKVCPoint@@@Z
	DD	FLAT:?OnGestureZoom@CWnd@@MAEHVCPoint@@J@Z
	DD	FLAT:?OnGesturePan@CWnd@@MAEHVCPoint@@0@Z
	DD	FLAT:?OnGestureRotate@CWnd@@MAEHVCPoint@@N@Z
	DD	FLAT:?OnGestureTwoFingerTap@CWnd@@MAEHVCPoint@@@Z
	DD	FLAT:?OnGesturePressAndTap@CWnd@@MAEHVCPoint@@J@Z
	DD	FLAT:?ResizeDynamicLayout@CWnd@@MAEXXZ
	DD	FLAT:?CheckAutoCenter@CWnd@@UAEHXZ
	DD	FLAT:?IsFrameWnd@CWnd@@UBEHXZ
	DD	FLAT:?CreateControlContainer@CWnd@@MAEHPAPAVCOleControlContainer@@@Z
	DD	FLAT:?CreateControlSite@CWnd@@MAEHPAVCOleControlContainer@@PAPAVCOleControlSite@@IABU_GUID@@@Z
	DD	FLAT:?SetOccDialogInfo@CWnd@@MAEHPAU_AFX_OCC_DIALOG_INFO@@@Z
	DD	FLAT:?GetOccDialogInfo@CWnd@@MAEPAU_AFX_OCC_DIALOG_INFO@@XZ
	DD	FLAT:?Create@CComboBox@@UAEHKABUtagRECT@@PAVCWnd@@I@Z
	DD	FLAT:?DrawItem@CComboBox@@UAEXPAUtagDRAWITEMSTRUCT@@@Z
	DD	FLAT:?MeasureItem@CComboBox@@UAEXPAUtagMEASUREITEMSTRUCT@@@Z
	DD	FLAT:?CompareItem@CComboBox@@UAEHPAUtagCOMPAREITEMSTRUCT@@@Z
	DD	FLAT:?DeleteItem@CComboBox@@UAEXPAUtagDELETEITEMSTRUCT@@@Z
CONST	ENDS
;	COMDAT ??_7CButton@@6B@
CONST	SEGMENT
??_7CButton@@6B@ DD FLAT:??_R4CButton@@6B@		; CButton::`vftable'
	DD	FLAT:?GetRuntimeClass@CButton@@UBEPAUCRuntimeClass@@XZ
	DD	FLAT:??_ECButton@@UAEPAXI@Z
	DD	FLAT:?Serialize@CObject@@UAEXAAVCArchive@@@Z
	DD	FLAT:?AssertValid@CObject@@UBEXXZ
	DD	FLAT:?Dump@CObject@@UBEXAAVCDumpContext@@@Z
	DD	FLAT:?OnCmdMsg@CCmdTarget@@UAEHIHPAXPAUAFX_CMDHANDLERINFO@@@Z
	DD	FLAT:?OnFinalRelease@CWnd@@UAEXXZ
	DD	FLAT:?IsInvokeAllowed@CCmdTarget@@UAEHJ@Z
	DD	FLAT:?GetDispatchIID@CCmdTarget@@UAEHPAU_GUID@@@Z
	DD	FLAT:?GetTypeInfoCount@CCmdTarget@@UAEIXZ
	DD	FLAT:?GetTypeLibCache@CCmdTarget@@UAEPAVCTypeLibCache@@XZ
	DD	FLAT:?GetTypeLib@CCmdTarget@@UAEJKPAPAUITypeLib@@@Z
	DD	FLAT:?GetMessageMap@CWnd@@MBEPBUAFX_MSGMAP@@XZ
	DD	FLAT:?GetCommandMap@CCmdTarget@@MBEPBUAFX_OLECMDMAP@@XZ
	DD	FLAT:?GetDispatchMap@CCmdTarget@@MBEPBUAFX_DISPMAP@@XZ
	DD	FLAT:?GetConnectionMap@CCmdTarget@@MBEPBUAFX_CONNECTIONMAP@@XZ
	DD	FLAT:?GetInterfaceMap@CWnd@@MBEPBUAFX_INTERFACEMAP@@XZ
	DD	FLAT:?GetEventSinkMap@CCmdTarget@@MBEPBUAFX_EVENTSINKMAP@@XZ
	DD	FLAT:?OnCreateAggregates@CCmdTarget@@UAEHXZ
	DD	FLAT:?GetInterfaceHook@CCmdTarget@@UAEPAUIUnknown@@PBX@Z
	DD	FLAT:?GetExtraConnectionPoints@CCmdTarget@@MAEHPAVCPtrArray@@@Z
	DD	FLAT:?GetConnectionHook@CCmdTarget@@MAEPAUIConnectionPoint@@ABU_GUID@@@Z
	DD	FLAT:?PreSubclassWindow@CWnd@@UAEXXZ
	DD	FLAT:?Create@CWnd@@UAEHPBD0KABUtagRECT@@PAV1@IPAUCCreateContext@@@Z
	DD	FLAT:?CreateEx@CWnd@@UAEHKPBD0KABUtagRECT@@PAV1@IPAX@Z
	DD	FLAT:?CreateEx@CWnd@@UAEHKPBD0KHHHHPAUHWND__@@PAUHMENU__@@PAX@Z
	DD	FLAT:?DestroyWindow@CWnd@@UAEHXZ
	DD	FLAT:?PreCreateWindow@CWnd@@UAEHAAUtagCREATESTRUCTA@@@Z
	DD	FLAT:?CalcWindowRect@CWnd@@UAEXPAUtagRECT@@I@Z
	DD	FLAT:?GetMenu@CWnd@@UBEPAVCMenu@@XZ
	DD	FLAT:?SetMenu@CWnd@@UAEHPAVCMenu@@@Z
	DD	FLAT:?OnToolHitTest@CWnd@@UBEHVCPoint@@PAUtagTOOLINFOA@@@Z
	DD	FLAT:?GetScrollBarCtrl@CWnd@@UBEPAVCScrollBar@@H@Z
	DD	FLAT:?WinHelpA@CWnd@@UAEXKI@Z
	DD	FLAT:?HtmlHelpA@CWnd@@UAEXKI@Z
	DD	FLAT:?WinHelpInternal@CWnd@@UAEXKI@Z
	DD	FLAT:?ContinueModal@CWnd@@UAEHXZ
	DD	FLAT:?EndModalLoop@CWnd@@UAEXH@Z
	DD	FLAT:?OnDrawIconicThumbnailOrLivePreview@CWnd@@UAEXAAVCDC@@VCRect@@VCSize@@HAAH@Z
	DD	FLAT:?EnsureStdObj@CWnd@@UAEJXZ
	DD	FLAT:?get_accParent@CWnd@@UAEJPAPAUIDispatch@@@Z
	DD	FLAT:?get_accChildCount@CWnd@@UAEJPAJ@Z
	DD	FLAT:?get_accChild@CWnd@@UAEJUtagVARIANT@@PAPAUIDispatch@@@Z
	DD	FLAT:?get_accName@CWnd@@UAEJUtagVARIANT@@PAPA_W@Z
	DD	FLAT:?get_accValue@CWnd@@UAEJUtagVARIANT@@PAPA_W@Z
	DD	FLAT:?get_accDescription@CWnd@@UAEJUtagVARIANT@@PAPA_W@Z
	DD	FLAT:?get_accRole@CWnd@@UAEJUtagVARIANT@@PAU2@@Z
	DD	FLAT:?get_accState@CWnd@@UAEJUtagVARIANT@@PAU2@@Z
	DD	FLAT:?get_accHelp@CWnd@@UAEJUtagVARIANT@@PAPA_W@Z
	DD	FLAT:?get_accHelpTopic@CWnd@@UAEJPAPA_WUtagVARIANT@@PAJ@Z
	DD	FLAT:?get_accKeyboardShortcut@CWnd@@UAEJUtagVARIANT@@PAPA_W@Z
	DD	FLAT:?get_accFocus@CWnd@@UAEJPAUtagVARIANT@@@Z
	DD	FLAT:?get_accSelection@CWnd@@UAEJPAUtagVARIANT@@@Z
	DD	FLAT:?get_accDefaultAction@CWnd@@UAEJUtagVARIANT@@PAPA_W@Z
	DD	FLAT:?accSelect@CWnd@@UAEJJUtagVARIANT@@@Z
	DD	FLAT:?accLocation@CWnd@@UAEJPAJ000UtagVARIANT@@@Z
	DD	FLAT:?accNavigate@CWnd@@UAEJJUtagVARIANT@@PAU2@@Z
	DD	FLAT:?accHitTest@CWnd@@UAEJJJPAUtagVARIANT@@@Z
	DD	FLAT:?accDoDefaultAction@CWnd@@UAEJUtagVARIANT@@@Z
	DD	FLAT:?put_accName@CWnd@@UAEJUtagVARIANT@@PA_W@Z
	DD	FLAT:?put_accValue@CWnd@@UAEJUtagVARIANT@@PA_W@Z
	DD	FLAT:?SetProxy@CWnd@@UAEJPAUIAccessibleProxy@@@Z
	DD	FLAT:?CreateAccessibleProxy@CWnd@@UAEJIJPAJ@Z
	DD	FLAT:?OnCommand@CWnd@@MAEHIJ@Z
	DD	FLAT:?OnNotify@CWnd@@MAEHIJPAJ@Z
	DD	FLAT:?GetSuperWndProcAddr@CWnd@@MAEPAP6GJPAUHWND__@@IIJ@ZXZ
	DD	FLAT:?DoDataExchange@CWnd@@MAEXPAVCDataExchange@@@Z
	DD	FLAT:?BeginModalState@CWnd@@UAEXXZ
	DD	FLAT:?EndModalState@CWnd@@UAEXXZ
	DD	FLAT:?PreTranslateMessage@CWnd@@UAEHPAUtagMSG@@@Z
	DD	FLAT:?OnAmbientProperty@CWnd@@UAEHPAVCOleControlSite@@JPAUtagVARIANT@@@Z
	DD	FLAT:?WindowProc@CWnd@@MAEJIIJ@Z
	DD	FLAT:?OnWndMsg@CWnd@@MAEHIIJPAJ@Z
	DD	FLAT:?DefWindowProcA@CWnd@@MAEJIIJ@Z
	DD	FLAT:?PostNcDestroy@CWnd@@MAEXXZ
	DD	FLAT:?OnChildNotify@CButton@@MAEHIIJPAJ@Z
	DD	FLAT:?OnTouchInputs@CWnd@@MAEHIPAUtagTOUCHINPUT@@@Z
	DD	FLAT:?OnTouchInput@CWnd@@MAEHVCPoint@@HHPAUtagTOUCHINPUT@@@Z
	DD	FLAT:?GetGestureStatus@CWnd@@MAEKVCPoint@@@Z
	DD	FLAT:?OnGestureZoom@CWnd@@MAEHVCPoint@@J@Z
	DD	FLAT:?OnGesturePan@CWnd@@MAEHVCPoint@@0@Z
	DD	FLAT:?OnGestureRotate@CWnd@@MAEHVCPoint@@N@Z
	DD	FLAT:?OnGestureTwoFingerTap@CWnd@@MAEHVCPoint@@@Z
	DD	FLAT:?OnGesturePressAndTap@CWnd@@MAEHVCPoint@@J@Z
	DD	FLAT:?ResizeDynamicLayout@CWnd@@MAEXXZ
	DD	FLAT:?CheckAutoCenter@CWnd@@UAEHXZ
	DD	FLAT:?IsFrameWnd@CWnd@@UBEHXZ
	DD	FLAT:?CreateControlContainer@CWnd@@MAEHPAPAVCOleControlContainer@@@Z
	DD	FLAT:?CreateControlSite@CWnd@@MAEHPAVCOleControlContainer@@PAPAVCOleControlSite@@IABU_GUID@@@Z
	DD	FLAT:?SetOccDialogInfo@CWnd@@MAEHPAU_AFX_OCC_DIALOG_INFO@@@Z
	DD	FLAT:?GetOccDialogInfo@CWnd@@MAEPAU_AFX_OCC_DIALOG_INFO@@XZ
	DD	FLAT:?Create@CButton@@UAEHPBDKABUtagRECT@@PAVCWnd@@I@Z
	DD	FLAT:?DrawItem@CButton@@UAEXPAUtagDRAWITEMSTRUCT@@@Z
CONST	ENDS
;	COMDAT ??_7CFont@@6B@
CONST	SEGMENT
??_7CFont@@6B@ DD FLAT:??_R4CFont@@6B@			; CFont::`vftable'
	DD	FLAT:?GetRuntimeClass@CFont@@UBEPAUCRuntimeClass@@XZ
	DD	FLAT:??_ECFont@@UAEPAXI@Z
	DD	FLAT:?Serialize@CObject@@UAEXAAVCArchive@@@Z
	DD	FLAT:?AssertValid@CObject@@UBEXXZ
	DD	FLAT:?Dump@CObject@@UBEXAAVCDumpContext@@@Z
CONST	ENDS
;	COMDAT ??_7CGdiObject@@6B@
CONST	SEGMENT
??_7CGdiObject@@6B@ DD FLAT:??_R4CGdiObject@@6B@	; CGdiObject::`vftable'
	DD	FLAT:?GetRuntimeClass@CGdiObject@@UBEPAUCRuntimeClass@@XZ
	DD	FLAT:??_ECGdiObject@@UAEPAXI@Z
	DD	FLAT:?Serialize@CObject@@UAEXAAVCArchive@@@Z
	DD	FLAT:?AssertValid@CObject@@UBEXXZ
	DD	FLAT:?Dump@CObject@@UBEXAAVCDumpContext@@@Z
CONST	ENDS
;	COMDAT ??_C@_00CNPNBAHC@@
CONST	SEGMENT
??_C@_00CNPNBAHC@@ DB 00H				; `string'
CONST	ENDS
;	COMDAT ??_R0PAVCException@@@8
data$r	SEGMENT
??_R0PAVCException@@@8 DD FLAT:??_7type_info@@6B@	; CException * `RTTI Type Descriptor'
	DD	00H
	DB	'.PAVCException@@', 00H
data$r	ENDS
;	COMDAT xdata$x
xdata$x	SEGMENT
__unwindtable$??_GCMessageWindow@@UAEPAXI@Z DD 0ffffffffH
	DD	FLAT:___std_terminate
__ehfuncinfo$??_GCMessageWindow@@UAEPAXI@Z DD 019930522H
	DD	01H
	DD	FLAT:__unwindtable$??_GCMessageWindow@@UAEPAXI@Z
	DD	2 DUP(00H)
	DD	2 DUP(00H)
	DD	00H
	DD	05H
xdata$x	ENDS
;	COMDAT xdata$x
xdata$x	SEGMENT
__ehfuncinfo$??1CMessageWindow@@UAE@XZ DD 019930522H
	DD	00H
	DD	00H
	DD	2 DUP(00H)
	DD	2 DUP(00H)
	DD	00H
	DD	05H
xdata$x	ENDS
;	COMDAT xdata$x
xdata$x	SEGMENT
__unwindtable$?AddMessage@CMessageWindow@@QAEXPADI@Z DD 0ffffffffH
	DD	FLAT:__unwindfunclet$?AddMessage@CMessageWindow@@QAEXPADI@Z$0
__ehfuncinfo$?AddMessage@CMessageWindow@@QAEXPADI@Z DD 019930522H
	DD	01H
	DD	FLAT:__unwindtable$?AddMessage@CMessageWindow@@QAEXPADI@Z
	DD	2 DUP(00H)
	DD	2 DUP(00H)
	DD	00H
	DD	01H
xdata$x	ENDS
;	COMDAT xdata$x
xdata$x	SEGMENT
__ehfuncinfo$??0CMessageWindow@@QAE@XZ DD 019930522H
	DD	08H
	DD	FLAT:__unwindtable$??0CMessageWindow@@QAE@XZ
	DD	2 DUP(00H)
	DD	2 DUP(00H)
	DD	00H
	DD	01H
__unwindtable$??0CMessageWindow@@QAE@XZ DD 0ffffffffH
	DD	FLAT:__unwindfunclet$??0CMessageWindow@@QAE@XZ$0
	DD	00H
	DD	FLAT:__unwindfunclet$??0CMessageWindow@@QAE@XZ$1
	DD	01H
	DD	FLAT:__unwindfunclet$??0CMessageWindow@@QAE@XZ$2
	DD	02H
	DD	FLAT:__unwindfunclet$??0CMessageWindow@@QAE@XZ$3
	DD	03H
	DD	FLAT:__unwindfunclet$??0CMessageWindow@@QAE@XZ$4
	DD	04H
	DD	FLAT:__unwindfunclet$??0CMessageWindow@@QAE@XZ$5
	DD	05H
	DD	FLAT:__unwindfunclet$??0CMessageWindow@@QAE@XZ$6
	DD	06H
	DD	FLAT:__unwindfunclet$??0CMessageWindow@@QAE@XZ$7
xdata$x	ENDS
;	COMDAT xdata$x
xdata$x	SEGMENT
__catchsym$??1CGdiObject@@UAE@XZ$3 DD 00H
	DD	FLAT:??_R0PAVCException@@@8
	DD	0fffffde4H
	DD	FLAT:__catch$??1CGdiObject@@UAE@XZ$0
__tryblocktable$??1CGdiObject@@UAE@XZ DD 00H
	DD	00H
	DD	02H
	DD	01H
	DD	FLAT:__catchsym$??1CGdiObject@@UAE@XZ$3
__unwindtable$??1CGdiObject@@UAE@XZ DD 0ffffffffH
	DD	00H
	DD	0ffffffffH
	DD	00H
	DD	01H
	DD	FLAT:__unwindfunclet$??1CGdiObject@@UAE@XZ$2
__ehfuncinfo$??1CGdiObject@@UAE@XZ DD 019930522H
	DD	03H
	DD	FLAT:__unwindtable$??1CGdiObject@@UAE@XZ
	DD	01H
	DD	FLAT:__tryblocktable$??1CGdiObject@@UAE@XZ
	DD	2 DUP(00H)
	DD	00H
	DD	05H
xdata$x	ENDS
; Function compile flags: /Ogtp
; File D:\git\src\IBK\IBK_DRFN\ProjSrc\SrcDrfn\Chart\comparechart\include\MsgWnd.cpp
; File C:\Program Files (x86)\Microsoft Visual Studio\2019\Community\VC\Tools\MSVC\14.29.30133\atlmfc\include\afxwin1.inl
; File D:\git\src\IBK\IBK_DRFN\ProjSrc\SrcDrfn\Chart\comparechart\include\MsgWnd.cpp
; File C:\Program Files (x86)\Microsoft Visual Studio\2019\Community\VC\Tools\MSVC\14.29.30133\atlmfc\include\afx.inl
;	COMDAT ??_GCMessageWindow@@UAEPAXI@Z
_TEXT	SEGMENT
__$EHRec$ = -12						; size = 12
___flags$ = 8						; size = 4
??_GCMessageWindow@@UAEPAXI@Z PROC			; CMessageWindow::`scalar deleting destructor', COMDAT
; _this$ = ecx
  00000	55		 push	 ebp
  00001	8b ec		 mov	 ebp, esp
  00003	6a ff		 push	 -1
  00005	68 00 00 00 00	 push	 __ehhandler$??_GCMessageWindow@@UAEPAXI@Z
  0000a	64 a1 00 00 00
	00		 mov	 eax, DWORD PTR fs:0
  00010	50		 push	 eax
  00011	56		 push	 esi
  00012	57		 push	 edi
  00013	a1 00 00 00 00	 mov	 eax, DWORD PTR ___security_cookie
  00018	33 c5		 xor	 eax, ebp
  0001a	50		 push	 eax
  0001b	8d 45 f4	 lea	 eax, DWORD PTR __$EHRec$[ebp]
  0001e	64 a3 00 00 00
	00		 mov	 DWORD PTR fs:0, eax
  00024	8b f9		 mov	 edi, ecx
; File D:\git\src\IBK\IBK_DRFN\ProjSrc\SrcDrfn\Chart\comparechart\include\MsgWnd.cpp

; 41   : 	m_Font.DeleteObject();

  00026	8d 8f 80 03 00
	00		 lea	 ecx, DWORD PTR [edi+896]
  0002c	c7 45 fc 00 00
	00 00		 mov	 DWORD PTR __$EHRec$[ebp+8], 0
  00033	c7 07 00 00 00
	00		 mov	 DWORD PTR [edi], OFFSET ??_7CMessageWindow@@6B@
  00039	e8 00 00 00 00	 call	 ?DeleteObject@CGdiObject@@QAEHXZ ; CGdiObject::DeleteObject

; 42   : 	DestroyWindow();

  0003e	8b cf		 mov	 ecx, edi
  00040	e8 00 00 00 00	 call	 ?DestroyWindow@CWnd@@UAEHXZ ; CWnd::DestroyWindow

; 43   : }

  00045	8d 8f a0 03 00
	00		 lea	 ecx, DWORD PTR [edi+928]
  0004b	ff 15 00 00 00
	00		 call	 DWORD PTR __imp_??1?$CStringT@DV?$StrTraitMFC_DLL@DV?$ChTraitsCRT@D@ATL@@@@@ATL@@QAE@XZ
  00051	8d 8f 88 03 00
	00		 lea	 ecx, DWORD PTR [edi+904]
  00057	e8 00 00 00 00	 call	 ??1CDWordArray@@UAE@XZ	; CDWordArray::~CDWordArray
; File C:\Program Files (x86)\Microsoft Visual Studio\2019\Community\VC\Tools\MSVC\14.29.30133\atlmfc\include\afxwin1.inl

; 155  : 	{ }

  0005c	8d 8f 80 03 00
	00		 lea	 ecx, DWORD PTR [edi+896]
  00062	c7 87 80 03 00
	00 00 00 00 00	 mov	 DWORD PTR [edi+896], OFFSET ??_7CFont@@6B@
  0006c	e8 00 00 00 00	 call	 ??1CGdiObject@@UAE@XZ	; CGdiObject::~CGdiObject
; File D:\git\src\IBK\IBK_DRFN\ProjSrc\SrcDrfn\Chart\comparechart\include\MsgWnd.cpp

; 43   : }

  00071	8d 8f 00 03 00
	00		 lea	 ecx, DWORD PTR [edi+768]
  00077	e8 00 00 00 00	 call	 ??1CButton@@UAE@XZ	; CButton::~CButton
  0007c	8d 8f 80 02 00
	00		 lea	 ecx, DWORD PTR [edi+640]
  00082	e8 00 00 00 00	 call	 ??1CButton@@UAE@XZ	; CButton::~CButton
  00087	8d 8f 00 02 00
	00		 lea	 ecx, DWORD PTR [edi+512]
  0008d	e8 00 00 00 00	 call	 ??1CButton@@UAE@XZ	; CButton::~CButton
  00092	8d 8f 80 01 00
	00		 lea	 ecx, DWORD PTR [edi+384]
  00098	e8 00 00 00 00	 call	 ??1CButton@@UAE@XZ	; CButton::~CButton
  0009d	8d 8f 00 01 00
	00		 lea	 ecx, DWORD PTR [edi+256]
  000a3	e8 00 00 00 00	 call	 ??1CButton@@UAE@XZ	; CButton::~CButton
  000a8	8d 8f 80 00 00
	00		 lea	 ecx, DWORD PTR [edi+128]
  000ae	e8 00 00 00 00	 call	 ??1CComboBox@@UAE@XZ	; CComboBox::~CComboBox
  000b3	8b cf		 mov	 ecx, edi
  000b5	e8 00 00 00 00	 call	 ??1CWnd@@UAE@XZ		; CWnd::~CWnd
  000ba	8b 45 08	 mov	 eax, DWORD PTR ___flags$[ebp]
  000bd	a8 01		 test	 al, 1
  000bf	74 1d		 je	 SHORT $LN15@scalar
  000c1	a8 04		 test	 al, 4
  000c3	75 0b		 jne	 SHORT $LN3@scalar
; File C:\Program Files (x86)\Microsoft Visual Studio\2019\Community\VC\Tools\MSVC\14.29.30133\atlmfc\include\afx.inl

; 112  : 	{ ::operator delete(p); }

  000c5	57		 push	 edi
  000c6	e8 00 00 00 00	 call	 ??3@YAXPAX@Z		; operator delete
  000cb	83 c4 04	 add	 esp, 4
  000ce	eb 0e		 jmp	 SHORT $LN15@scalar
$LN3@scalar:
  000d0	68 a8 03 00 00	 push	 936			; 000003a8H
  000d5	57		 push	 edi
  000d6	e8 00 00 00 00	 call	 ?__global_delete@@YAXPAXI@Z ; __global_delete
  000db	83 c4 08	 add	 esp, 8
$LN15@scalar:
  000de	8b c7		 mov	 eax, edi
  000e0	8b 4d f4	 mov	 ecx, DWORD PTR __$EHRec$[ebp]
  000e3	64 89 0d 00 00
	00 00		 mov	 DWORD PTR fs:0, ecx
  000ea	59		 pop	 ecx
  000eb	5f		 pop	 edi
  000ec	5e		 pop	 esi
  000ed	8b e5		 mov	 esp, ebp
  000ef	5d		 pop	 ebp
  000f0	c2 04 00	 ret	 4
  000f3	cc		 int	 3
  000f4	cc		 int	 3
  000f5	cc		 int	 3
  000f6	cc		 int	 3
  000f7	cc		 int	 3
_TEXT	ENDS
;	COMDAT text$x
text$x	SEGMENT
__ehhandler$??_GCMessageWindow@@UAEPAXI@Z:
  00000	90		 npad	 1
  00001	90		 npad	 1
  00002	8b 54 24 08	 mov	 edx, DWORD PTR [esp+8]
  00006	8d 42 0c	 lea	 eax, DWORD PTR [edx+12]
  00009	8b 4a f4	 mov	 ecx, DWORD PTR [edx-12]
  0000c	33 c8		 xor	 ecx, eax
  0000e	e8 00 00 00 00	 call	 @__security_check_cookie@4
  00013	b8 00 00 00 00	 mov	 eax, OFFSET __ehfuncinfo$??_GCMessageWindow@@UAEPAXI@Z
  00018	e9 00 00 00 00	 jmp	 ___CxxFrameHandler3
text$x	ENDS
??_GCMessageWindow@@UAEPAXI@Z ENDP			; CMessageWindow::`scalar deleting destructor'
; Function compile flags: /Ogtp
; File D:\git\src\IBK\IBK_DRFN\ProjSrc\SrcDrfn\Chart\comparechart\include\MsgWnd.cpp
;	COMDAT ?GetMessageMap@CMessageWindow@@MBEPBUAFX_MSGMAP@@XZ
_TEXT	SEGMENT
?GetMessageMap@CMessageWindow@@MBEPBUAFX_MSGMAP@@XZ PROC ; CMessageWindow::GetMessageMap, COMDAT
; _this$ = ecx

; 46   : BEGIN_MESSAGE_MAP(CMessageWindow, CWnd)

  00000	b8 00 00 00 00	 mov	 eax, OFFSET ?messageMap@?1??GetThisMessageMap@CMessageWindow@@KGPBUAFX_MSGMAP@@XZ@4U3@B
  00005	c3		 ret	 0
?GetMessageMap@CMessageWindow@@MBEPBUAFX_MSGMAP@@XZ ENDP ; CMessageWindow::GetMessageMap
_TEXT	ENDS
; Function compile flags: /Ogtp
; File D:\git\src\IBK\IBK_DRFN\ProjSrc\SrcDrfn\Chart\comparechart\include\MsgWnd.cpp
;	COMDAT ?GetThisMessageMap@CMessageWindow@@KGPBUAFX_MSGMAP@@XZ
_TEXT	SEGMENT
?GetThisMessageMap@CMessageWindow@@KGPBUAFX_MSGMAP@@XZ PROC ; CMessageWindow::GetThisMessageMap, COMDAT

; 47   : 	//{{AFX_MSG_MAP(CMessageWindow)
; 48   : 	ON_WM_CREATE()
; 49   : 	ON_WM_ERASEBKGND()
; 50   : 	//}}AFX_MSG_MAP
; 51   : 	ON_CONTROL_RANGE(BN_CLICKED, MESSAGE_BUTTON1_ID, MESSAGE_BUTTON4_ID, OnClickedButton)
; 52   : END_MESSAGE_MAP()

  00000	b8 00 00 00 00	 mov	 eax, OFFSET ?messageMap@?1??GetThisMessageMap@CMessageWindow@@KGPBUAFX_MSGMAP@@XZ@4U3@B
  00005	c3		 ret	 0
?GetThisMessageMap@CMessageWindow@@KGPBUAFX_MSGMAP@@XZ ENDP ; CMessageWindow::GetThisMessageMap
_TEXT	ENDS
; Function compile flags: /Ogtp
; File D:\git\src\IBK\IBK_DRFN\ProjSrc\SrcDrfn\Chart\comparechart\include\MsgWnd.cpp
; File C:\Program Files (x86)\Microsoft Visual Studio\2019\Community\VC\Tools\MSVC\14.29.30133\atlmfc\include\afxwin2.inl
; File D:\git\src\IBK\IBK_DRFN\ProjSrc\SrcDrfn\Chart\comparechart\include\MsgWnd.cpp
; File C:\Program Files (x86)\Microsoft Visual Studio\2019\Community\VC\Tools\MSVC\14.29.30133\atlmfc\include\afxwin2.inl
; File D:\git\src\IBK\IBK_DRFN\ProjSrc\SrcDrfn\Chart\comparechart\include\MsgWnd.cpp
;	COMDAT ?OnClickedButton@CMessageWindow@@IAEXI@Z
_TEXT	SEGMENT
_nID$ = 8						; size = 4
?OnClickedButton@CMessageWindow@@IAEXI@Z PROC		; CMessageWindow::OnClickedButton, COMDAT
; _this$ = ecx

; 96   : {

  00000	55		 push	 ebp
  00001	8b ec		 mov	 ebp, esp

; 97   : 	switch (nID)

  00003	8b 45 08	 mov	 eax, DWORD PTR _nID$[ebp]
  00006	56		 push	 esi
  00007	57		 push	 edi
  00008	8b f9		 mov	 edi, ecx
  0000a	2d 34 08 00 00	 sub	 eax, 2100		; 00000834H
  0000f	74 14		 je	 SHORT $LN4@OnClickedB
  00011	83 e8 01	 sub	 eax, 1
  00014	75 4c		 jne	 SHORT $LN5@OnClickedB
; File C:\Program Files (x86)\Microsoft Visual Studio\2019\Community\VC\Tools\MSVC\14.29.30133\atlmfc\include\afxwin2.inl

; 763  : 	{ ASSERT(::IsWindow(m_hWnd)); return (int)::SendMessage(m_hWnd, CB_GETCOUNT, 0, 0); }

  00016	8b 35 00 00 00
	00		 mov	 esi, DWORD PTR __imp__SendMessageA@16
  0001c	50		 push	 eax
  0001d	50		 push	 eax
  0001e	68 46 01 00 00	 push	 326			; 00000146H

; 767  : 	{ ASSERT(::IsWindow(m_hWnd)); return (int)::SendMessage(m_hWnd, CB_SETCURSEL, nSelect, 0); }

  00023	eb 24		 jmp	 SHORT $LN18@OnClickedB
$LN4@OnClickedB:

; 765  : 	{ ASSERT(::IsWindow(m_hWnd)); return (int)::SendMessage(m_hWnd, CB_GETCURSEL, 0, 0); }

  00025	8b 35 00 00 00
	00		 mov	 esi, DWORD PTR __imp__SendMessageA@16
  0002b	6a 00		 push	 0
  0002d	6a 00		 push	 0
  0002f	68 47 01 00 00	 push	 327			; 00000147H
  00034	ff b7 a0 00 00
	00		 push	 DWORD PTR [edi+160]
  0003a	ff d6		 call	 esi
; File D:\git\src\IBK\IBK_DRFN\ProjSrc\SrcDrfn\Chart\comparechart\include\MsgWnd.cpp

; 100  : 		if (m_combobox.GetCurSel()!=0) 

  0003c	85 c0		 test	 eax, eax
  0003e	74 22		 je	 SHORT $LN5@OnClickedB
; File C:\Program Files (x86)\Microsoft Visual Studio\2019\Community\VC\Tools\MSVC\14.29.30133\atlmfc\include\afxwin2.inl

; 765  : 	{ ASSERT(::IsWindow(m_hWnd)); return (int)::SendMessage(m_hWnd, CB_GETCURSEL, 0, 0); }

  00040	6a 00		 push	 0
  00042	6a 00		 push	 0
  00044	68 47 01 00 00	 push	 327			; 00000147H
$LN18@OnClickedB:
; File D:\git\src\IBK\IBK_DRFN\ProjSrc\SrcDrfn\Chart\comparechart\include\MsgWnd.cpp

; 107  : }

  00049	ff b7 a0 00 00
	00		 push	 DWORD PTR [edi+160]
  0004f	ff d6		 call	 esi
  00051	6a 00		 push	 0
  00053	48		 dec	 eax
  00054	50		 push	 eax
  00055	68 4e 01 00 00	 push	 334			; 0000014eH
  0005a	ff b7 a0 00 00
	00		 push	 DWORD PTR [edi+160]
  00060	ff d6		 call	 esi
$LN5@OnClickedB:
  00062	5f		 pop	 edi
  00063	5e		 pop	 esi
  00064	5d		 pop	 ebp
  00065	c2 04 00	 ret	 4
?OnClickedButton@CMessageWindow@@IAEXI@Z ENDP		; CMessageWindow::OnClickedButton
_TEXT	ENDS
; Function compile flags: /Ogtp
; File D:\git\src\IBK\IBK_DRFN\ProjSrc\SrcDrfn\Chart\comparechart\include\MsgWnd.cpp
; File C:\Program Files (x86)\Microsoft Visual Studio\2019\Community\VC\Tools\MSVC\14.29.30133\atlmfc\include\afxwin2.inl
; File C:\Program Files (x86)\Microsoft Visual Studio\2019\Community\VC\Tools\MSVC\14.29.30133\atlmfc\include\atltypes.h
; File C:\Program Files (x86)\Microsoft Visual Studio\2019\Community\VC\Tools\MSVC\14.29.30133\atlmfc\include\afxwin2.inl
; File D:\git\src\IBK\IBK_DRFN\ProjSrc\SrcDrfn\Chart\comparechart\include\MsgWnd.cpp
;	COMDAT ?OnEraseBkgnd@CMessageWindow@@IAEHPAVCDC@@@Z
_TEXT	SEGMENT
_rect$ = -20						; size = 16
__$ArrayPad$ = -4					; size = 4
_pDC$ = 8						; size = 4
?OnEraseBkgnd@CMessageWindow@@IAEHPAVCDC@@@Z PROC	; CMessageWindow::OnEraseBkgnd, COMDAT
; _this$ = ecx

; 191  : {

  00000	55		 push	 ebp
  00001	8b ec		 mov	 ebp, esp
  00003	83 ec 14	 sub	 esp, 20			; 00000014H
  00006	a1 00 00 00 00	 mov	 eax, DWORD PTR ___security_cookie
  0000b	33 c5		 xor	 eax, ebp
  0000d	89 45 fc	 mov	 DWORD PTR __$ArrayPad$[ebp], eax
  00010	56		 push	 esi
  00011	8b 75 08	 mov	 esi, DWORD PTR _pDC$[ebp]
; File C:\Program Files (x86)\Microsoft Visual Studio\2019\Community\VC\Tools\MSVC\14.29.30133\atlmfc\include\afxwin2.inl

; 86   : 	{ ASSERT(::IsWindow(m_hWnd)); ::GetClientRect(m_hWnd, lpRect); }

  00014	8d 45 ec	 lea	 eax, DWORD PTR _rect$[ebp]
  00017	50		 push	 eax
  00018	ff 71 20	 push	 DWORD PTR [ecx+32]
  0001b	0f 57 c0	 xorps	 xmm0, xmm0
; File C:\Program Files (x86)\Microsoft Visual Studio\2019\Community\VC\Tools\MSVC\14.29.30133\atlmfc\include\atltypes.h

; 528  : 	left = 0;

  0001e	0f 11 45 ec	 movups	 XMMWORD PTR _rect$[ebp], xmm0
; File C:\Program Files (x86)\Microsoft Visual Studio\2019\Community\VC\Tools\MSVC\14.29.30133\atlmfc\include\afxwin2.inl

; 86   : 	{ ASSERT(::IsWindow(m_hWnd)); ::GetClientRect(m_hWnd, lpRect); }

  00022	ff 15 00 00 00
	00		 call	 DWORD PTR __imp__GetClientRect@8
; File D:\git\src\IBK\IBK_DRFN\ProjSrc\SrcDrfn\Chart\comparechart\include\MsgWnd.cpp

; 196  : 	pDC->FillSolidRect(rect, RGB(253, 253, 253));

  00028	68 fd fd fd 00	 push	 16645629		; 00fdfdfdH
  0002d	8d 45 ec	 lea	 eax, DWORD PTR _rect$[ebp]
  00030	8b ce		 mov	 ecx, esi
  00032	50		 push	 eax
  00033	e8 00 00 00 00	 call	 ?FillSolidRect@CDC@@QAEXPBUtagRECT@@K@Z ; CDC::FillSolidRect

; 197  : 	
; 198  : 	return TRUE;
; 199  : }

  00038	8b 4d fc	 mov	 ecx, DWORD PTR __$ArrayPad$[ebp]
  0003b	b8 01 00 00 00	 mov	 eax, 1
  00040	33 cd		 xor	 ecx, ebp
  00042	5e		 pop	 esi
  00043	e8 00 00 00 00	 call	 @__security_check_cookie@4
  00048	8b e5		 mov	 esp, ebp
  0004a	5d		 pop	 ebp
  0004b	c2 04 00	 ret	 4
?OnEraseBkgnd@CMessageWindow@@IAEHPAVCDC@@@Z ENDP	; CMessageWindow::OnEraseBkgnd
_TEXT	ENDS
; Function compile flags: /Ogtp
; File D:\git\src\IBK\IBK_DRFN\ProjSrc\SrcDrfn\Chart\comparechart\include\MsgWnd.cpp
; File C:\Program Files (x86)\Microsoft Visual Studio\2019\Community\VC\Tools\MSVC\14.29.30133\atlmfc\include\afxwin2.inl
; File D:\git\src\IBK\IBK_DRFN\ProjSrc\SrcDrfn\Chart\comparechart\include\MsgWnd.cpp
; File C:\Program Files (x86)\Microsoft Visual Studio\2019\Community\VC\Tools\MSVC\14.29.30133\atlmfc\include\afxwin2.inl
; File C:\Program Files (x86)\Microsoft Visual Studio\2019\Community\VC\Tools\MSVC\14.29.30133\atlmfc\include\atltypes.h
; File C:\Program Files (x86)\Microsoft Visual Studio\2019\Community\VC\Tools\MSVC\14.29.30133\atlmfc\include\afxwin2.inl
; File C:\Program Files (x86)\Microsoft Visual Studio\2019\Community\VC\Tools\MSVC\14.29.30133\atlmfc\include\atltypes.h
; File C:\Program Files (x86)\Microsoft Visual Studio\2019\Community\VC\Tools\MSVC\14.29.30133\atlmfc\include\afxwin2.inl
; File D:\git\src\IBK\IBK_DRFN\ProjSrc\SrcDrfn\Chart\comparechart\include\MsgWnd.cpp
; File C:\Program Files (x86)\Microsoft Visual Studio\2019\Community\VC\Tools\MSVC\14.29.30133\atlmfc\include\afxwin1.inl
; File D:\git\src\IBK\IBK_DRFN\ProjSrc\SrcDrfn\Chart\comparechart\include\MsgWnd.cpp
; File C:\Program Files (x86)\Microsoft Visual Studio\2019\Community\VC\Tools\MSVC\14.29.30133\atlmfc\include\afxwin1.inl
; File D:\git\src\IBK\IBK_DRFN\ProjSrc\SrcDrfn\Chart\comparechart\include\MsgWnd.cpp
; File C:\Program Files (x86)\Microsoft Visual Studio\2019\Community\VC\Tools\MSVC\14.29.30133\atlmfc\include\afxwin1.inl
; File C:\Program Files (x86)\Microsoft Visual Studio\2019\Community\VC\Tools\MSVC\14.29.30133\atlmfc\include\afxwin2.inl
; File D:\git\src\IBK\IBK_DRFN\ProjSrc\SrcDrfn\Chart\comparechart\include\MsgWnd.cpp
;	COMDAT ?OnCreate@CMessageWindow@@IAEHPAUtagCREATESTRUCTA@@@Z
_TEXT	SEGMENT
_lf$ = -96						; size = 60
_rect$ = -36						; size = 16
_rcc$ = -20						; size = 16
__$ArrayPad$ = -4					; size = 4
_lpCreateStruct$ = 8					; size = 4
?OnCreate@CMessageWindow@@IAEHPAUtagCREATESTRUCTA@@@Z PROC ; CMessageWindow::OnCreate, COMDAT
; _this$ = ecx

; 71   : {

  00000	55		 push	 ebp
  00001	8b ec		 mov	 ebp, esp
  00003	83 ec 60	 sub	 esp, 96			; 00000060H
  00006	a1 00 00 00 00	 mov	 eax, DWORD PTR ___security_cookie
  0000b	33 c5		 xor	 eax, ebp
  0000d	89 45 fc	 mov	 DWORD PTR __$ArrayPad$[ebp], eax
  00010	56		 push	 esi
  00011	8b f1		 mov	 esi, ecx
; File C:\Program Files (x86)\Microsoft Visual Studio\2019\Community\VC\Tools\MSVC\14.29.30133\atlmfc\include\afxwin2.inl

; 296  : 	{ return (int)Default(); }

  00013	e8 00 00 00 00	 call	 ?Default@CWnd@@IAEJXZ	; CWnd::Default
; File D:\git\src\IBK\IBK_DRFN\ProjSrc\SrcDrfn\Chart\comparechart\include\MsgWnd.cpp

; 72   : 	if (CWnd::OnCreate(lpCreateStruct) == -1)

  00018	83 f8 ff	 cmp	 eax, -1
  0001b	75 13		 jne	 SHORT $LN2@OnCreate

; 73   : 		return -1;

  0001d	0b c0		 or	 eax, eax
  0001f	5e		 pop	 esi

; 93   : }

  00020	8b 4d fc	 mov	 ecx, DWORD PTR __$ArrayPad$[ebp]
  00023	33 cd		 xor	 ecx, ebp
  00025	e8 00 00 00 00	 call	 @__security_check_cookie@4
  0002a	8b e5		 mov	 esp, ebp
  0002c	5d		 pop	 ebp
  0002d	c2 04 00	 ret	 4
$LN2@OnCreate:
  00030	57		 push	 edi
; File C:\Program Files (x86)\Microsoft Visual Studio\2019\Community\VC\Tools\MSVC\14.29.30133\atlmfc\include\afxwin2.inl

; 86   : 	{ ASSERT(::IsWindow(m_hWnd)); ::GetClientRect(m_hWnd, lpRect); }

  00031	8d 45 ec	 lea	 eax, DWORD PTR _rcc$[ebp]
; File C:\Program Files (x86)\Microsoft Visual Studio\2019\Community\VC\Tools\MSVC\14.29.30133\atlmfc\include\atltypes.h

; 540  : 	left = l;

  00034	c7 45 dc 00 00
	00 00		 mov	 DWORD PTR _rect$[ebp], 0
; File C:\Program Files (x86)\Microsoft Visual Studio\2019\Community\VC\Tools\MSVC\14.29.30133\atlmfc\include\afxwin2.inl

; 86   : 	{ ASSERT(::IsWindow(m_hWnd)); ::GetClientRect(m_hWnd, lpRect); }

  0003b	50		 push	 eax
  0003c	ff 76 20	 push	 DWORD PTR [esi+32]
; File C:\Program Files (x86)\Microsoft Visual Studio\2019\Community\VC\Tools\MSVC\14.29.30133\atlmfc\include\atltypes.h

; 528  : 	left = 0;

  0003f	c7 45 ec 00 00
	00 00		 mov	 DWORD PTR _rcc$[ebp], 0

; 540  : 	left = l;

  00046	c7 45 e0 00 00
	00 00		 mov	 DWORD PTR _rect$[ebp+4], 0

; 528  : 	left = 0;

  0004d	c7 45 f0 00 00
	00 00		 mov	 DWORD PTR _rcc$[ebp+4], 0

; 540  : 	left = l;

  00054	c7 45 e4 00 00
	00 00		 mov	 DWORD PTR _rect$[ebp+8], 0

; 528  : 	left = 0;

  0005b	c7 45 f4 00 00
	00 00		 mov	 DWORD PTR _rcc$[ebp+8], 0

; 540  : 	left = l;

  00062	c7 45 e8 00 00
	00 00		 mov	 DWORD PTR _rect$[ebp+12], 0

; 528  : 	left = 0;

  00069	c7 45 f8 00 00
	00 00		 mov	 DWORD PTR _rcc$[ebp+12], 0
; File C:\Program Files (x86)\Microsoft Visual Studio\2019\Community\VC\Tools\MSVC\14.29.30133\atlmfc\include\afxwin2.inl

; 86   : 	{ ASSERT(::IsWindow(m_hWnd)); ::GetClientRect(m_hWnd, lpRect); }

  00070	ff 15 00 00 00
	00		 call	 DWORD PTR __imp__GetClientRect@8
; File D:\git\src\IBK\IBK_DRFN\ProjSrc\SrcDrfn\Chart\comparechart\include\MsgWnd.cpp

; 80   : 	memset(&lf, 0, sizeof(LOGFONT));       // zero out structure

  00076	6a 3c		 push	 60			; 0000003cH
  00078	8d 45 a0	 lea	 eax, DWORD PTR _lf$[ebp]
  0007b	6a 00		 push	 0
  0007d	50		 push	 eax
  0007e	e8 00 00 00 00	 call	 _memset

; 84   : 	strcpy(lf.lfFaceName, "");

  00083	a1 00 00 00 00	 mov	 eax, DWORD PTR ??_C@_06NFFIFIHG@?$LA?m?$LF?q?C?$LM@

; 85   : 	VERIFY(m_Font.CreateFontIndirect(&lf));  // create the font

  00088	8d be 80 03 00
	00		 lea	 edi, DWORD PTR [esi+896]
  0008e	89 45 bc	 mov	 DWORD PTR _lf$[ebp+28], eax
  00091	83 c4 0c	 add	 esp, 12			; 0000000cH
  00094	66 a1 04 00 00
	00		 mov	 ax, WORD PTR ??_C@_06NFFIFIHG@?$LA?m?$LF?q?C?$LM@+4
  0009a	66 89 45 c0	 mov	 WORD PTR _lf$[ebp+32], ax
  0009e	a0 06 00 00 00	 mov	 al, BYTE PTR ??_C@_06NFFIFIHG@?$LA?m?$LF?q?C?$LM@+6
  000a3	88 45 c2	 mov	 BYTE PTR _lf$[ebp+34], al
; File C:\Program Files (x86)\Microsoft Visual Studio\2019\Community\VC\Tools\MSVC\14.29.30133\atlmfc\include\afxwin1.inl

; 157  : 	{ return Attach(::CreateFontIndirect(lpLogFont)); }

  000a6	8d 45 a0	 lea	 eax, DWORD PTR _lf$[ebp]
  000a9	50		 push	 eax
; File D:\git\src\IBK\IBK_DRFN\ProjSrc\SrcDrfn\Chart\comparechart\include\MsgWnd.cpp

; 81   : 	lf.lfHeight = 13;                      // request a 12-pixel-height font

  000aa	c7 45 a0 0d 00
	00 00		 mov	 DWORD PTR _lf$[ebp], 13	; 0000000dH

; 82   : 	lf.lfWeight = FW_BOLD;

  000b1	c7 45 b0 bc 02
	00 00		 mov	 DWORD PTR _lf$[ebp+16], 700 ; 000002bcH

; 83   : 	lf.lfCharSet = 0x81;				   //  Character Set

  000b8	c6 45 b7 81	 mov	 BYTE PTR _lf$[ebp+23], 129 ; 00000081H
; File C:\Program Files (x86)\Microsoft Visual Studio\2019\Community\VC\Tools\MSVC\14.29.30133\atlmfc\include\afxwin1.inl

; 157  : 	{ return Attach(::CreateFontIndirect(lpLogFont)); }

  000bc	ff 15 00 00 00
	00		 call	 DWORD PTR __imp__CreateFontIndirectA@4
  000c2	50		 push	 eax
  000c3	8b cf		 mov	 ecx, edi
  000c5	e8 00 00 00 00	 call	 ?Attach@CGdiObject@@QAEHPAX@Z ; CGdiObject::Attach
; File D:\git\src\IBK\IBK_DRFN\ProjSrc\SrcDrfn\Chart\comparechart\include\MsgWnd.cpp

; 87   : 	m_combobox.CreateEx(WS_EX_CLIENTEDGE,"COMBOBOX",NULL,

  000ca	8b 86 80 00 00
	00		 mov	 eax, DWORD PTR [esi+128]
  000d0	8d 55 dc	 lea	 edx, DWORD PTR _rect$[ebp]
  000d3	6a 00		 push	 0
  000d5	68 38 08 00 00	 push	 2104			; 00000838H
  000da	56		 push	 esi
  000db	52		 push	 edx
  000dc	68 03 00 80 50	 push	 1350565891		; 50800003H
  000e1	8d 8e 80 00 00
	00		 lea	 ecx, DWORD PTR [esi+128]
  000e7	6a 00		 push	 0
  000e9	68 00 00 00 00	 push	 OFFSET ??_C@_08ILACPJID@COMBOBOX@
  000ee	68 00 02 00 00	 push	 512			; 00000200H
  000f3	ff 50 60	 call	 DWORD PTR [eax+96]
; File C:\Program Files (x86)\Microsoft Visual Studio\2019\Community\VC\Tools\MSVC\14.29.30133\atlmfc\include\afxwin1.inl

; 68   : 	{ return this == NULL ? NULL : m_hObject; }

  000f6	85 ff		 test	 edi, edi
  000f8	75 04		 jne	 SHORT $LN18@OnCreate
  000fa	33 c0		 xor	 eax, eax
  000fc	eb 03		 jmp	 SHORT $LN19@OnCreate
$LN18@OnCreate:
  000fe	8b 47 04	 mov	 eax, DWORD PTR [edi+4]
$LN19@OnCreate:
; File C:\Program Files (x86)\Microsoft Visual Studio\2019\Community\VC\Tools\MSVC\14.29.30133\atlmfc\include\afxwin2.inl

; 43   : 	{ ASSERT(::IsWindow(m_hWnd)); ::SendMessage(m_hWnd, WM_SETFONT, (WPARAM)pFont->GetSafeHandle(), bRedraw); }

  00101	6a 01		 push	 1
  00103	50		 push	 eax
  00104	6a 30		 push	 48			; 00000030H
  00106	ff b6 a0 00 00
	00		 push	 DWORD PTR [esi+160]
  0010c	ff 15 00 00 00
	00		 call	 DWORD PTR __imp__SendMessageA@16
; File D:\git\src\IBK\IBK_DRFN\ProjSrc\SrcDrfn\Chart\comparechart\include\MsgWnd.cpp

; 93   : }

  00112	8b 4d fc	 mov	 ecx, DWORD PTR __$ArrayPad$[ebp]
  00115	33 c0		 xor	 eax, eax
  00117	5f		 pop	 edi
  00118	33 cd		 xor	 ecx, ebp
  0011a	5e		 pop	 esi
  0011b	e8 00 00 00 00	 call	 @__security_check_cookie@4
  00120	8b e5		 mov	 esp, ebp
  00122	5d		 pop	 ebp
  00123	c2 04 00	 ret	 4
?OnCreate@CMessageWindow@@IAEHPAUtagCREATESTRUCTA@@@Z ENDP ; CMessageWindow::OnCreate
_TEXT	ENDS
; Function compile flags: /Ogtp
; File D:\git\src\IBK\IBK_DRFN\ProjSrc\SrcDrfn\Chart\comparechart\include\MsgWnd.cpp
; File C:\Program Files (x86)\Microsoft Visual Studio\2019\Community\VC\Tools\MSVC\14.29.30133\atlmfc\include\afxwin1.inl
; File D:\git\src\IBK\IBK_DRFN\ProjSrc\SrcDrfn\Chart\comparechart\include\MsgWnd.cpp
;	COMDAT ??1CMessageWindow@@UAE@XZ
_TEXT	SEGMENT
__$EHRec$ = -12						; size = 12
??1CMessageWindow@@UAE@XZ PROC				; CMessageWindow::~CMessageWindow, COMDAT
; _this$ = ecx

; 40   : {

  00000	55		 push	 ebp
  00001	8b ec		 mov	 ebp, esp
  00003	6a ff		 push	 -1
  00005	68 00 00 00 00	 push	 __ehhandler$??1CMessageWindow@@UAE@XZ
  0000a	64 a1 00 00 00
	00		 mov	 eax, DWORD PTR fs:0
  00010	50		 push	 eax
  00011	56		 push	 esi
  00012	57		 push	 edi
  00013	a1 00 00 00 00	 mov	 eax, DWORD PTR ___security_cookie
  00018	33 c5		 xor	 eax, ebp
  0001a	50		 push	 eax
  0001b	8d 45 f4	 lea	 eax, DWORD PTR __$EHRec$[ebp]
  0001e	64 a3 00 00 00
	00		 mov	 DWORD PTR fs:0, eax
  00024	8b f9		 mov	 edi, ecx

; 41   : 	m_Font.DeleteObject();

  00026	8d 8f 80 03 00
	00		 lea	 ecx, DWORD PTR [edi+896]
  0002c	c7 07 00 00 00
	00		 mov	 DWORD PTR [edi], OFFSET ??_7CMessageWindow@@6B@
  00032	e8 00 00 00 00	 call	 ?DeleteObject@CGdiObject@@QAEHXZ ; CGdiObject::DeleteObject

; 42   : 	DestroyWindow();

  00037	8b cf		 mov	 ecx, edi
  00039	e8 00 00 00 00	 call	 ?DestroyWindow@CWnd@@UAEHXZ ; CWnd::DestroyWindow

; 43   : }

  0003e	8d 8f a0 03 00
	00		 lea	 ecx, DWORD PTR [edi+928]
  00044	ff 15 00 00 00
	00		 call	 DWORD PTR __imp_??1?$CStringT@DV?$StrTraitMFC_DLL@DV?$ChTraitsCRT@D@ATL@@@@@ATL@@QAE@XZ
  0004a	8d 8f 88 03 00
	00		 lea	 ecx, DWORD PTR [edi+904]
  00050	e8 00 00 00 00	 call	 ??1CDWordArray@@UAE@XZ	; CDWordArray::~CDWordArray
; File C:\Program Files (x86)\Microsoft Visual Studio\2019\Community\VC\Tools\MSVC\14.29.30133\atlmfc\include\afxwin1.inl

; 155  : 	{ }

  00055	8d 8f 80 03 00
	00		 lea	 ecx, DWORD PTR [edi+896]
  0005b	c7 87 80 03 00
	00 00 00 00 00	 mov	 DWORD PTR [edi+896], OFFSET ??_7CFont@@6B@
  00065	e8 00 00 00 00	 call	 ??1CGdiObject@@UAE@XZ	; CGdiObject::~CGdiObject
; File D:\git\src\IBK\IBK_DRFN\ProjSrc\SrcDrfn\Chart\comparechart\include\MsgWnd.cpp

; 43   : }

  0006a	8d 8f 00 03 00
	00		 lea	 ecx, DWORD PTR [edi+768]
  00070	e8 00 00 00 00	 call	 ??1CButton@@UAE@XZ	; CButton::~CButton
  00075	8d 8f 80 02 00
	00		 lea	 ecx, DWORD PTR [edi+640]
  0007b	e8 00 00 00 00	 call	 ??1CButton@@UAE@XZ	; CButton::~CButton
  00080	8d 8f 00 02 00
	00		 lea	 ecx, DWORD PTR [edi+512]
  00086	e8 00 00 00 00	 call	 ??1CButton@@UAE@XZ	; CButton::~CButton
  0008b	8d 8f 80 01 00
	00		 lea	 ecx, DWORD PTR [edi+384]
  00091	e8 00 00 00 00	 call	 ??1CButton@@UAE@XZ	; CButton::~CButton
  00096	8d 8f 00 01 00
	00		 lea	 ecx, DWORD PTR [edi+256]
  0009c	e8 00 00 00 00	 call	 ??1CButton@@UAE@XZ	; CButton::~CButton
  000a1	8d 8f 80 00 00
	00		 lea	 ecx, DWORD PTR [edi+128]
  000a7	e8 00 00 00 00	 call	 ??1CComboBox@@UAE@XZ	; CComboBox::~CComboBox
  000ac	8b cf		 mov	 ecx, edi
  000ae	e8 00 00 00 00	 call	 ??1CWnd@@UAE@XZ		; CWnd::~CWnd
  000b3	8b 4d f4	 mov	 ecx, DWORD PTR __$EHRec$[ebp]
  000b6	64 89 0d 00 00
	00 00		 mov	 DWORD PTR fs:0, ecx
  000bd	59		 pop	 ecx
  000be	5f		 pop	 edi
  000bf	5e		 pop	 esi
  000c0	8b e5		 mov	 esp, ebp
  000c2	5d		 pop	 ebp
  000c3	c3		 ret	 0
  000c4	cc		 int	 3
  000c5	cc		 int	 3
  000c6	cc		 int	 3
  000c7	cc		 int	 3
  000c8	cc		 int	 3
_TEXT	ENDS
;	COMDAT text$x
text$x	SEGMENT
__ehhandler$??1CMessageWindow@@UAE@XZ:
  00000	90		 npad	 1
  00001	90		 npad	 1
  00002	8b 54 24 08	 mov	 edx, DWORD PTR [esp+8]
  00006	8d 42 0c	 lea	 eax, DWORD PTR [edx+12]
  00009	8b 4a f4	 mov	 ecx, DWORD PTR [edx-12]
  0000c	33 c8		 xor	 ecx, eax
  0000e	e8 00 00 00 00	 call	 @__security_check_cookie@4
  00013	b8 00 00 00 00	 mov	 eax, OFFSET __ehfuncinfo$??1CMessageWindow@@UAE@XZ
  00018	e9 00 00 00 00	 jmp	 ___CxxFrameHandler3
text$x	ENDS
??1CMessageWindow@@UAE@XZ ENDP				; CMessageWindow::~CMessageWindow
; Function compile flags: /Ogtp
; File D:\git\src\IBK\IBK_DRFN\ProjSrc\SrcDrfn\Chart\comparechart\include\MsgWnd.cpp
;	COMDAT ?SetConfigFile@CMessageWindow@@QAEXPBD@Z
_TEXT	SEGMENT
__szFile$ = 8						; size = 4
?SetConfigFile@CMessageWindow@@QAEXPBD@Z PROC		; CMessageWindow::SetConfigFile, COMDAT
; _this$ = ecx

; 219  : {

  00000	55		 push	 ebp
  00001	8b ec		 mov	 ebp, esp
  00003	56		 push	 esi
  00004	57		 push	 edi

; 220  : 	m_szCfgFile=_szFile;

  00005	ff 75 08	 push	 DWORD PTR __szFile$[ebp]
  00008	8b f9		 mov	 edi, ecx
  0000a	8d 8f a0 03 00
	00		 lea	 ecx, DWORD PTR [edi+928]
  00010	ff 15 00 00 00
	00		 call	 DWORD PTR __imp_??4?$CStringT@DV?$StrTraitMFC_DLL@DV?$ChTraitsCRT@D@ATL@@@@@ATL@@QAEAAV01@PBD@Z

; 221  : 	m_nMaxLine = ::GetPrivateProfileInt("MESSAGELINE", "LINES", 5, m_szCfgFile);

  00016	ff b7 a0 03 00
	00		 push	 DWORD PTR [edi+928]
  0001c	6a 05		 push	 5
  0001e	68 00 00 00 00	 push	 OFFSET ??_C@_05PPEIMAMB@LINES@
  00023	68 00 00 00 00	 push	 OFFSET ??_C@_0M@CDBONBPF@MESSAGELINE@
  00028	ff 15 00 00 00
	00		 call	 DWORD PTR __imp__GetPrivateProfileIntA@16
  0002e	89 87 9c 03 00
	00		 mov	 DWORD PTR [edi+924], eax
  00034	5f		 pop	 edi
  00035	5e		 pop	 esi

; 222  : }

  00036	5d		 pop	 ebp
  00037	c2 04 00	 ret	 4
?SetConfigFile@CMessageWindow@@QAEXPBD@Z ENDP		; CMessageWindow::SetConfigFile
_TEXT	ENDS
; Function compile flags: /Ogtp
; File D:\git\src\IBK\IBK_DRFN\ProjSrc\SrcDrfn\Chart\comparechart\include\MsgWnd.cpp
; File C:\Program Files (x86)\Microsoft Visual Studio\2019\Community\VC\Tools\MSVC\14.29.30133\atlmfc\include\afxwin2.inl
; File D:\git\src\IBK\IBK_DRFN\ProjSrc\SrcDrfn\Chart\comparechart\include\MsgWnd.cpp
; File C:\Program Files (x86)\Microsoft Visual Studio\2019\Community\VC\Tools\MSVC\14.29.30133\atlmfc\include\afxwin2.inl
; File D:\git\src\IBK\IBK_DRFN\ProjSrc\SrcDrfn\Chart\comparechart\include\MsgWnd.cpp
; File C:\Program Files (x86)\Microsoft Visual Studio\2019\Community\VC\Tools\MSVC\14.29.30133\atlmfc\include\afxwin2.inl
; File D:\git\src\IBK\IBK_DRFN\ProjSrc\SrcDrfn\Chart\comparechart\include\MsgWnd.cpp
; File C:\Program Files (x86)\Microsoft Visual Studio\2019\Community\VC\Tools\MSVC\14.29.30133\atlmfc\include\afxwin2.inl
; File D:\git\src\IBK\IBK_DRFN\ProjSrc\SrcDrfn\Chart\comparechart\include\MsgWnd.cpp
;	COMDAT ?CheckMaxLines@CMessageWindow@@QAEXXZ
_TEXT	SEGMENT
?CheckMaxLines@CMessageWindow@@QAEXXZ PROC		; CMessageWindow::CheckMaxLines, COMDAT
; _this$ = ecx

; 207  : {

  00000	56		 push	 esi
; File C:\Program Files (x86)\Microsoft Visual Studio\2019\Community\VC\Tools\MSVC\14.29.30133\atlmfc\include\afxwin2.inl

; 763  : 	{ ASSERT(::IsWindow(m_hWnd)); return (int)::SendMessage(m_hWnd, CB_GETCOUNT, 0, 0); }

  00001	6a 00		 push	 0
; File D:\git\src\IBK\IBK_DRFN\ProjSrc\SrcDrfn\Chart\comparechart\include\MsgWnd.cpp

; 207  : {

  00003	8b f1		 mov	 esi, ecx
; File C:\Program Files (x86)\Microsoft Visual Studio\2019\Community\VC\Tools\MSVC\14.29.30133\atlmfc\include\afxwin2.inl

; 763  : 	{ ASSERT(::IsWindow(m_hWnd)); return (int)::SendMessage(m_hWnd, CB_GETCOUNT, 0, 0); }

  00005	6a 00		 push	 0
  00007	68 46 01 00 00	 push	 326			; 00000146H
  0000c	ff b6 a0 00 00
	00		 push	 DWORD PTR [esi+160]
  00012	ff 15 00 00 00
	00		 call	 DWORD PTR __imp__SendMessageA@16
; File D:\git\src\IBK\IBK_DRFN\ProjSrc\SrcDrfn\Chart\comparechart\include\MsgWnd.cpp

; 210  : 	if(m_nMaxLine<nLine) 

  00018	39 86 9c 03 00
	00		 cmp	 DWORD PTR [esi+924], eax
  0001e	7d 24		 jge	 SHORT $LN2@CheckMaxLi
; File C:\Program Files (x86)\Microsoft Visual Studio\2019\Community\VC\Tools\MSVC\14.29.30133\atlmfc\include\afxwin2.inl

; 797  : 	{ ASSERT(::IsWindow(m_hWnd)); return (int)::SendMessage(m_hWnd, CB_DELETESTRING, nIndex, 0);}

  00020	6a 00		 push	 0
; File D:\git\src\IBK\IBK_DRFN\ProjSrc\SrcDrfn\Chart\comparechart\include\MsgWnd.cpp

; 212  : 		m_combobox.DeleteString(nLine-1);

  00022	48		 dec	 eax
; File C:\Program Files (x86)\Microsoft Visual Studio\2019\Community\VC\Tools\MSVC\14.29.30133\atlmfc\include\afxwin2.inl

; 797  : 	{ ASSERT(::IsWindow(m_hWnd)); return (int)::SendMessage(m_hWnd, CB_DELETESTRING, nIndex, 0);}

  00023	50		 push	 eax
  00024	68 44 01 00 00	 push	 324			; 00000144H
  00029	ff b6 a0 00 00
	00		 push	 DWORD PTR [esi+160]
  0002f	ff 15 00 00 00
	00		 call	 DWORD PTR __imp__SendMessageA@16
; File D:\git\src\IBK\IBK_DRFN\ProjSrc\SrcDrfn\Chart\comparechart\include\MsgWnd.cpp

; 213  : 		m_ErrOppArray.RemoveAt(0);

  00035	6a 01		 push	 1
  00037	6a 00		 push	 0
  00039	8d 8e 88 03 00
	00		 lea	 ecx, DWORD PTR [esi+904]
  0003f	e8 00 00 00 00	 call	 ?RemoveAt@CDWordArray@@QAEXHH@Z ; CDWordArray::RemoveAt
$LN2@CheckMaxLi:

; 214  : 	}
; 215  : 	// }
; 216  : }

  00044	5e		 pop	 esi
  00045	c3		 ret	 0
?CheckMaxLines@CMessageWindow@@QAEXXZ ENDP		; CMessageWindow::CheckMaxLines
_TEXT	ENDS
; Function compile flags: /Ogtp
; File D:\git\src\IBK\IBK_DRFN\ProjSrc\SrcDrfn\Chart\comparechart\include\MsgWnd.cpp
; File C:\Program Files (x86)\Microsoft Visual Studio\2019\Community\VC\Tools\MSVC\14.29.30133\atlmfc\include\atltypes.h
; File D:\git\src\IBK\IBK_DRFN\ProjSrc\SrcDrfn\Chart\comparechart\include\MsgWnd.cpp
; File C:\Program Files (x86)\Microsoft Visual Studio\2019\Community\VC\Tools\MSVC\14.29.30133\atlmfc\include\afxwin2.inl
; File C:\Program Files (x86)\Microsoft Visual Studio\2019\Community\VC\Tools\MSVC\14.29.30133\atlmfc\include\atltypes.h
; File C:\Program Files (x86)\Microsoft Visual Studio\2019\Community\VC\Tools\MSVC\14.29.30133\atlmfc\include\afxwin2.inl
; File D:\git\src\IBK\IBK_DRFN\ProjSrc\SrcDrfn\Chart\comparechart\include\MsgWnd.cpp
;	COMDAT ?MoveMessageWnd@CMessageWindow@@QAEXVCRect@@@Z
_TEXT	SEGMENT
_rcc$ = -20						; size = 16
__$ArrayPad$ = -4					; size = 4
_rect$ = 8						; size = 16
?MoveMessageWnd@CMessageWindow@@QAEXVCRect@@@Z PROC	; CMessageWindow::MoveMessageWnd, COMDAT
; _this$ = ecx

; 182  : {

  00000	55		 push	 ebp
  00001	8b ec		 mov	 ebp, esp
  00003	83 ec 14	 sub	 esp, 20			; 00000014H
  00006	a1 00 00 00 00	 mov	 eax, DWORD PTR ___security_cookie
  0000b	33 c5		 xor	 eax, ebp
  0000d	89 45 fc	 mov	 DWORD PTR __$ArrayPad$[ebp], eax
; File C:\Program Files (x86)\Microsoft Visual Studio\2019\Community\VC\Tools\MSVC\14.29.30133\atlmfc\include\atltypes.h

; 576  : 	return right - left;

  00010	8b 45 10	 mov	 eax, DWORD PTR _rect$[ebp+8]
  00013	2b 45 08	 sub	 eax, DWORD PTR _rect$[ebp]
; File D:\git\src\IBK\IBK_DRFN\ProjSrc\SrcDrfn\Chart\comparechart\include\MsgWnd.cpp

; 182  : {

  00016	56		 push	 esi

; 183  : 	MoveWindow(0, rect.bottom-(BTN_HEIGHT), rect.Width(), BTN_HEIGHT);

  00017	6a 01		 push	 1
  00019	6a 17		 push	 23			; 00000017H
  0001b	50		 push	 eax
  0001c	8b 45 14	 mov	 eax, DWORD PTR _rect$[ebp+12]
  0001f	8b f1		 mov	 esi, ecx
  00021	83 c0 e9	 add	 eax, -23		; ffffffe9H
  00024	50		 push	 eax
  00025	6a 00		 push	 0
  00027	e8 00 00 00 00	 call	 ?MoveWindow@CWnd@@QAEXHHHHH@Z ; CWnd::MoveWindow
; File C:\Program Files (x86)\Microsoft Visual Studio\2019\Community\VC\Tools\MSVC\14.29.30133\atlmfc\include\afxwin2.inl

; 86   : 	{ ASSERT(::IsWindow(m_hWnd)); ::GetClientRect(m_hWnd, lpRect); }

  0002c	8d 45 ec	 lea	 eax, DWORD PTR _rcc$[ebp]
  0002f	0f 57 c0	 xorps	 xmm0, xmm0
  00032	50		 push	 eax
  00033	ff 76 20	 push	 DWORD PTR [esi+32]
; File C:\Program Files (x86)\Microsoft Visual Studio\2019\Community\VC\Tools\MSVC\14.29.30133\atlmfc\include\atltypes.h

; 528  : 	left = 0;

  00036	0f 11 45 ec	 movups	 XMMWORD PTR _rcc$[ebp], xmm0
; File C:\Program Files (x86)\Microsoft Visual Studio\2019\Community\VC\Tools\MSVC\14.29.30133\atlmfc\include\afxwin2.inl

; 86   : 	{ ASSERT(::IsWindow(m_hWnd)); ::GetClientRect(m_hWnd, lpRect); }

  0003a	ff 15 00 00 00
	00		 call	 DWORD PTR __imp__GetClientRect@8
; File D:\git\src\IBK\IBK_DRFN\ProjSrc\SrcDrfn\Chart\comparechart\include\MsgWnd.cpp

; 187  : 	m_combobox.MoveWindow(1, rcc.top+1, rcc.right-2, 200);

  00040	8b 45 f4	 mov	 eax, DWORD PTR _rcc$[ebp+8]
  00043	8d 8e 80 00 00
	00		 lea	 ecx, DWORD PTR [esi+128]
  00049	6a 01		 push	 1
  0004b	68 c8 00 00 00	 push	 200			; 000000c8H
  00050	83 c0 fe	 add	 eax, -2			; fffffffeH
  00053	50		 push	 eax
  00054	8b 45 f0	 mov	 eax, DWORD PTR _rcc$[ebp+4]
  00057	40		 inc	 eax
  00058	50		 push	 eax
  00059	6a 01		 push	 1
  0005b	e8 00 00 00 00	 call	 ?MoveWindow@CWnd@@QAEXHHHHH@Z ; CWnd::MoveWindow

; 188  : }

  00060	8b 4d fc	 mov	 ecx, DWORD PTR __$ArrayPad$[ebp]
  00063	33 cd		 xor	 ecx, ebp
  00065	5e		 pop	 esi
  00066	e8 00 00 00 00	 call	 @__security_check_cookie@4
  0006b	8b e5		 mov	 esp, ebp
  0006d	5d		 pop	 ebp
  0006e	c2 10 00	 ret	 16			; 00000010H
?MoveMessageWnd@CMessageWindow@@QAEXVCRect@@@Z ENDP	; CMessageWindow::MoveMessageWnd
_TEXT	ENDS
; Function compile flags: /Ogtp
; File D:\git\src\IBK\IBK_DRFN\ProjSrc\SrcDrfn\Chart\comparechart\include\MsgWnd.cpp
; File C:\Program Files (x86)\Microsoft Visual Studio\2019\Community\VC\Tools\MSVC\14.29.30133\atlmfc\include\atltypes.h
; File C:\Program Files (x86)\Microsoft Visual Studio\2019\Community\VC\Tools\MSVC\14.29.30133\atlmfc\include\afxwin2.inl
; File D:\git\src\IBK\IBK_DRFN\ProjSrc\SrcDrfn\Chart\comparechart\include\MsgWnd.cpp
; File C:\Program Files (x86)\Microsoft Visual Studio\2019\Community\VC\Tools\MSVC\14.29.30133\atlmfc\include\afxwin2.inl
; File D:\git\src\IBK\IBK_DRFN\ProjSrc\SrcDrfn\Chart\comparechart\include\MsgWnd.cpp
;	COMDAT ?ResizeMessageWnd@CMessageWindow@@QAEXIHH@Z
_TEXT	SEGMENT
_rcc$ = -36						; size = 16
_rect$ = -20						; size = 16
__$ArrayPad$ = -4					; size = 4
_nType$ = 8						; size = 4
_cx$ = 12						; size = 4
_cy$ = 16						; size = 4
?ResizeMessageWnd@CMessageWindow@@QAEXIHH@Z PROC	; CMessageWindow::ResizeMessageWnd, COMDAT
; _this$ = ecx

; 162  : {

  00000	55		 push	 ebp
  00001	8b ec		 mov	 ebp, esp
  00003	83 ec 24	 sub	 esp, 36			; 00000024H
  00006	a1 00 00 00 00	 mov	 eax, DWORD PTR ___security_cookie
  0000b	33 c5		 xor	 eax, ebp
  0000d	89 45 fc	 mov	 DWORD PTR __$ArrayPad$[ebp], eax
  00010	57		 push	 edi
  00011	8b f9		 mov	 edi, ecx
  00013	0f 57 c0	 xorps	 xmm0, xmm0
; File C:\Program Files (x86)\Microsoft Visual Studio\2019\Community\VC\Tools\MSVC\14.29.30133\atlmfc\include\atltypes.h

; 528  : 	left = 0;

  00016	0f 11 45 ec	 movups	 XMMWORD PTR _rect$[ebp], xmm0
  0001a	0f 11 45 dc	 movups	 XMMWORD PTR _rcc$[ebp], xmm0
; File C:\Program Files (x86)\Microsoft Visual Studio\2019\Community\VC\Tools\MSVC\14.29.30133\atlmfc\include\afxwin2.inl

; 213  : 	{ ASSERT(::IsWindow(m_hWnd)); return CWnd::FromHandle(::GetParent(m_hWnd)); }

  0001e	ff 77 20	 push	 DWORD PTR [edi+32]
  00021	ff 15 00 00 00
	00		 call	 DWORD PTR __imp__GetParent@4
  00027	50		 push	 eax
  00028	e8 00 00 00 00	 call	 ?FromHandle@CWnd@@SGPAV1@PAUHWND__@@@Z ; CWnd::FromHandle

; 86   : 	{ ASSERT(::IsWindow(m_hWnd)); ::GetClientRect(m_hWnd, lpRect); }

  0002d	8d 4d ec	 lea	 ecx, DWORD PTR _rect$[ebp]
  00030	51		 push	 ecx
  00031	ff 70 20	 push	 DWORD PTR [eax+32]
  00034	ff 15 00 00 00
	00		 call	 DWORD PTR __imp__GetClientRect@8
; File D:\git\src\IBK\IBK_DRFN\ProjSrc\SrcDrfn\Chart\comparechart\include\MsgWnd.cpp

; 175  : 	MoveWindow(0, rect.bottom-(BTN_HEIGHT) - nGapX, rect.Width() - nGapY, BTN_HEIGHT);

  0003a	33 c0		 xor	 eax, eax
  0003c	b9 04 00 00 00	 mov	 ecx, 4
  00041	83 7d 08 01	 cmp	 DWORD PTR _nType$[ebp], 1
  00045	6a 01		 push	 1
  00047	0f 45 c8	 cmovne	 ecx, eax
  0004a	8b 45 f4	 mov	 eax, DWORD PTR _rect$[ebp+8]
  0004d	2b c1		 sub	 eax, ecx
  0004f	b9 06 00 00 00	 mov	 ecx, 6
  00054	2b 45 ec	 sub	 eax, DWORD PTR _rect$[ebp]
  00057	6a 17		 push	 23			; 00000017H
  00059	50		 push	 eax
  0005a	33 c0		 xor	 eax, eax
  0005c	83 7d 08 01	 cmp	 DWORD PTR _nType$[ebp], 1
  00060	0f 45 c8	 cmovne	 ecx, eax
  00063	8b 45 f8	 mov	 eax, DWORD PTR _rect$[ebp+12]
  00066	2b c1		 sub	 eax, ecx
  00068	8b cf		 mov	 ecx, edi
  0006a	83 e8 17	 sub	 eax, 23			; 00000017H
  0006d	50		 push	 eax
  0006e	6a 00		 push	 0
  00070	e8 00 00 00 00	 call	 ?MoveWindow@CWnd@@QAEXHHHHH@Z ; CWnd::MoveWindow
; File C:\Program Files (x86)\Microsoft Visual Studio\2019\Community\VC\Tools\MSVC\14.29.30133\atlmfc\include\afxwin2.inl

; 86   : 	{ ASSERT(::IsWindow(m_hWnd)); ::GetClientRect(m_hWnd, lpRect); }

  00075	8d 45 dc	 lea	 eax, DWORD PTR _rcc$[ebp]
  00078	50		 push	 eax
  00079	ff 77 20	 push	 DWORD PTR [edi+32]
  0007c	ff 15 00 00 00
	00		 call	 DWORD PTR __imp__GetClientRect@8
; File D:\git\src\IBK\IBK_DRFN\ProjSrc\SrcDrfn\Chart\comparechart\include\MsgWnd.cpp

; 178  : 	m_combobox.MoveWindow(1, rcc.top+1, rcc.right-2, 200);

  00082	8b 45 e4	 mov	 eax, DWORD PTR _rcc$[ebp+8]
  00085	8d 8f 80 00 00
	00		 lea	 ecx, DWORD PTR [edi+128]
  0008b	6a 01		 push	 1
  0008d	68 c8 00 00 00	 push	 200			; 000000c8H
  00092	83 c0 fe	 add	 eax, -2			; fffffffeH
  00095	50		 push	 eax
  00096	8b 45 e0	 mov	 eax, DWORD PTR _rcc$[ebp+4]
  00099	40		 inc	 eax
  0009a	50		 push	 eax
  0009b	6a 01		 push	 1
  0009d	e8 00 00 00 00	 call	 ?MoveWindow@CWnd@@QAEXHHHHH@Z ; CWnd::MoveWindow

; 179  : }

  000a2	8b 4d fc	 mov	 ecx, DWORD PTR __$ArrayPad$[ebp]
  000a5	33 cd		 xor	 ecx, ebp
  000a7	5f		 pop	 edi
  000a8	e8 00 00 00 00	 call	 @__security_check_cookie@4
  000ad	8b e5		 mov	 esp, ebp
  000af	5d		 pop	 ebp
  000b0	c2 0c 00	 ret	 12			; 0000000cH
?ResizeMessageWnd@CMessageWindow@@QAEXIHH@Z ENDP	; CMessageWindow::ResizeMessageWnd
_TEXT	ENDS
; Function compile flags: /Ogtp
; File D:\git\src\IBK\IBK_DRFN\ProjSrc\SrcDrfn\Chart\comparechart\include\MsgWnd.cpp
; File C:\Program Files (x86)\Microsoft Visual Studio\2019\Community\VC\Tools\MSVC\14.29.30133\atlmfc\include\afxcoll.inl
; File D:\git\src\IBK\IBK_DRFN\ProjSrc\SrcDrfn\Chart\comparechart\include\MsgWnd.cpp
; File C:\Program Files (x86)\Microsoft Visual Studio\2019\Community\VC\Tools\MSVC\14.29.30133\atlmfc\include\afxcoll.inl
; File C:\Program Files (x86)\Microsoft Visual Studio\2019\Community\VC\Tools\MSVC\14.29.30133\atlmfc\include\afxwin2.inl
; File D:\git\src\IBK\IBK_DRFN\ProjSrc\SrcDrfn\Chart\comparechart\include\MsgWnd.cpp
;	COMDAT ?DelMessage@CMessageWindow@@QAEXXZ
_TEXT	SEGMENT
?DelMessage@CMessageWindow@@QAEXXZ PROC			; CMessageWindow::DelMessage, COMDAT
; _this$ = ecx

; 155  : {

  00000	56		 push	 esi
  00001	8b f1		 mov	 esi, ecx
; File C:\Program Files (x86)\Microsoft Visual Studio\2019\Community\VC\Tools\MSVC\14.29.30133\atlmfc\include\afxcoll.inl

; 114  : 	{ SetSize(0); }

  00003	6a ff		 push	 -1
  00005	6a 00		 push	 0
; File D:\git\src\IBK\IBK_DRFN\ProjSrc\SrcDrfn\Chart\comparechart\include\MsgWnd.cpp

; 156  : 	m_ErrOppArray.RemoveAll();

  00007	8d 8e 88 03 00
	00		 lea	 ecx, DWORD PTR [esi+904]
; File C:\Program Files (x86)\Microsoft Visual Studio\2019\Community\VC\Tools\MSVC\14.29.30133\atlmfc\include\afxcoll.inl

; 114  : 	{ SetSize(0); }

  0000d	e8 00 00 00 00	 call	 ?SetSize@CDWordArray@@QAEXHH@Z ; CDWordArray::SetSize
; File C:\Program Files (x86)\Microsoft Visual Studio\2019\Community\VC\Tools\MSVC\14.29.30133\atlmfc\include\afxwin2.inl

; 801  : 	{ ASSERT(::IsWindow(m_hWnd)); ::SendMessage(m_hWnd, CB_RESETCONTENT, 0, 0); }

  00012	6a 00		 push	 0
  00014	6a 00		 push	 0
  00016	68 4b 01 00 00	 push	 331			; 0000014bH
  0001b	ff b6 a0 00 00
	00		 push	 DWORD PTR [esi+160]
  00021	ff 15 00 00 00
	00		 call	 DWORD PTR __imp__SendMessageA@16
  00027	5e		 pop	 esi
; File D:\git\src\IBK\IBK_DRFN\ProjSrc\SrcDrfn\Chart\comparechart\include\MsgWnd.cpp

; 158  : }

  00028	c3		 ret	 0
?DelMessage@CMessageWindow@@QAEXXZ ENDP			; CMessageWindow::DelMessage
_TEXT	ENDS
; Function compile flags: /Ogtp
; File D:\git\src\IBK\IBK_DRFN\ProjSrc\SrcDrfn\Chart\comparechart\include\MsgWnd.cpp
; File C:\Program Files (x86)\Microsoft Visual Studio\2019\Community\VC\Tools\MSVC\14.29.30133\atlmfc\include\afxwin2.inl
; File D:\git\src\IBK\IBK_DRFN\ProjSrc\SrcDrfn\Chart\comparechart\include\MsgWnd.cpp
;	COMDAT ?GetMessageA@CMessageWindow@@QAEHAAV?$CStringT@DV?$StrTraitMFC_DLL@DV?$ChTraitsCRT@D@ATL@@@@@ATL@@@Z
_TEXT	SEGMENT
_Message$ = 8						; size = 4
?GetMessageA@CMessageWindow@@QAEHAAV?$CStringT@DV?$StrTraitMFC_DLL@DV?$ChTraitsCRT@D@ATL@@@@@ATL@@@Z PROC ; CMessageWindow::GetMessageA, COMDAT
; _this$ = ecx

; 146  : {

  00000	55		 push	 ebp
  00001	8b ec		 mov	 ebp, esp
  00003	56		 push	 esi

; 147  : 	Message = "";

  00004	8b 75 08	 mov	 esi, DWORD PTR _Message$[ebp]
  00007	57		 push	 edi
  00008	8b f9		 mov	 edi, ecx
  0000a	8b ce		 mov	 ecx, esi
  0000c	68 00 00 00 00	 push	 OFFSET ??_C@_00CNPNBAHC@@
  00011	ff 15 00 00 00
	00		 call	 DWORD PTR __imp_??4?$CStringT@DV?$StrTraitMFC_DLL@DV?$ChTraitsCRT@D@ATL@@@@@ATL@@QAEAAV01@PBD@Z
; File C:\Program Files (x86)\Microsoft Visual Studio\2019\Community\VC\Tools\MSVC\14.29.30133\atlmfc\include\afxwin2.inl

; 765  : 	{ ASSERT(::IsWindow(m_hWnd)); return (int)::SendMessage(m_hWnd, CB_GETCURSEL, 0, 0); }

  00017	6a 00		 push	 0
  00019	6a 00		 push	 0
  0001b	68 47 01 00 00	 push	 327			; 00000147H
  00020	ff b7 a0 00 00
	00		 push	 DWORD PTR [edi+160]
  00026	ff 15 00 00 00
	00		 call	 DWORD PTR __imp__SendMessageA@16
; File D:\git\src\IBK\IBK_DRFN\ProjSrc\SrcDrfn\Chart\comparechart\include\MsgWnd.cpp

; 149  : 	if(index != CB_ERR)

  0002c	83 f8 ff	 cmp	 eax, -1
  0002f	74 0d		 je	 SHORT $LN10@GetMessage

; 150  : 		m_combobox.GetLBText(index, Message);

  00031	56		 push	 esi
  00032	50		 push	 eax
  00033	8d 8f 80 00 00
	00		 lea	 ecx, DWORD PTR [edi+128]
  00039	e8 00 00 00 00	 call	 ?GetLBText@CComboBox@@QBEXHAAV?$CStringT@DV?$StrTraitMFC_DLL@DV?$ChTraitsCRT@D@ATL@@@@@ATL@@@Z ; CComboBox::GetLBText
$LN10@GetMessage:

; 151  : 	return Message.GetLength();
; 152  : }

  0003e	8b 06		 mov	 eax, DWORD PTR [esi]
  00040	5f		 pop	 edi
  00041	5e		 pop	 esi
  00042	8b 40 f4	 mov	 eax, DWORD PTR [eax-12]
  00045	5d		 pop	 ebp
  00046	c2 04 00	 ret	 4
?GetMessageA@CMessageWindow@@QAEHAAV?$CStringT@DV?$StrTraitMFC_DLL@DV?$ChTraitsCRT@D@ATL@@@@@ATL@@@Z ENDP ; CMessageWindow::GetMessageA
_TEXT	ENDS
; Function compile flags: /Ogtp
; File D:\git\src\IBK\IBK_DRFN\ProjSrc\SrcDrfn\Chart\comparechart\include\MsgWnd.cpp
; File C:\Program Files (x86)\Microsoft Visual Studio\2019\Community\VC\Tools\MSVC\14.29.30133\atlmfc\include\afxcoll.inl
; File D:\git\src\IBK\IBK_DRFN\ProjSrc\SrcDrfn\Chart\comparechart\include\MsgWnd.cpp
; File C:\Program Files (x86)\Microsoft Visual Studio\2019\Community\VC\Tools\MSVC\14.29.30133\atlmfc\include\afxcoll.inl
; File C:\Program Files (x86)\Microsoft Visual Studio\2019\Community\VC\Tools\MSVC\14.29.30133\atlmfc\include\afxwin2.inl
; File D:\git\src\IBK\IBK_DRFN\ProjSrc\SrcDrfn\Chart\comparechart\include\MsgWnd.cpp
; File C:\Program Files (x86)\Microsoft Visual Studio\2019\Community\VC\Tools\MSVC\14.29.30133\atlmfc\include\afxwin2.inl
; File C:\Program Files (x86)\Microsoft Visual Studio\2019\Community\VC\Tools\MSVC\14.29.30133\atlmfc\include\afxcoll.inl
; File D:\git\src\IBK\IBK_DRFN\ProjSrc\SrcDrfn\Chart\comparechart\include\MsgWnd.cpp
; File C:\Program Files (x86)\Microsoft Visual Studio\2019\Community\VC\Tools\MSVC\14.29.30133\atlmfc\include\afxcoll.inl
; File C:\Program Files (x86)\Microsoft Visual Studio\2019\Community\VC\Tools\MSVC\14.29.30133\atlmfc\include\afxwin2.inl
; File D:\git\src\IBK\IBK_DRFN\ProjSrc\SrcDrfn\Chart\comparechart\include\MsgWnd.cpp
; File C:\Program Files (x86)\Microsoft Visual Studio\2019\Community\VC\Tools\MSVC\14.29.30133\atlmfc\include\afxcoll.inl
; File D:\git\src\IBK\IBK_DRFN\ProjSrc\SrcDrfn\Chart\comparechart\include\MsgWnd.cpp
;	COMDAT ?AddMessage@CMessageWindow@@QAEXPADI@Z
_TEXT	SEGMENT
$T2 = -16						; size = 4
__$EHRec$ = -12						; size = 12
_strMessage$ = 8					; size = 4
_lpstr$ = 8						; size = 4
_errOpp$ = 12						; size = 4
?AddMessage@CMessageWindow@@QAEXPADI@Z PROC		; CMessageWindow::AddMessage, COMDAT
; _this$ = ecx

; 114  : {

  00000	55		 push	 ebp
  00001	8b ec		 mov	 ebp, esp
  00003	6a ff		 push	 -1
  00005	68 00 00 00 00	 push	 __ehhandler$?AddMessage@CMessageWindow@@QAEXPADI@Z
  0000a	64 a1 00 00 00
	00		 mov	 eax, DWORD PTR fs:0
  00010	50		 push	 eax
  00011	51		 push	 ecx
  00012	53		 push	 ebx
  00013	56		 push	 esi
  00014	57		 push	 edi
  00015	a1 00 00 00 00	 mov	 eax, DWORD PTR ___security_cookie
  0001a	33 c5		 xor	 eax, ebp
  0001c	50		 push	 eax
  0001d	8d 45 f4	 lea	 eax, DWORD PTR __$EHRec$[ebp]
  00020	64 a3 00 00 00
	00		 mov	 DWORD PTR fs:0, eax
  00026	8b f9		 mov	 edi, ecx

; 115  : 	if(lpstr == NULL || errOpp < 0)

  00028	8b 45 08	 mov	 eax, DWORD PTR _lpstr$[ebp]
  0002b	85 c0		 test	 eax, eax
  0002d	0f 84 1d 01 00
	00		 je	 $LN6@AddMessage

; 116  : 	{
; 117  : 		DelMessage();
; 118  : 		return;
; 119  : 	}
; 120  : 	CString strMessage = lpstr;

  00033	50		 push	 eax
  00034	8d 4d 08	 lea	 ecx, DWORD PTR _strMessage$[ebp]
  00037	ff 15 00 00 00
	00		 call	 DWORD PTR __imp_??0?$CStringT@DV?$StrTraitMFC_DLL@DV?$ChTraitsCRT@D@ATL@@@@@ATL@@QAE@PBD@Z

; 121  : 	TRACE(strMessage);
; 122  : 
; 123  : 	int nMin = min( MESSAGE_MAX, strMessage.GetLength());

  0003d	8b 45 08	 mov	 eax, DWORD PTR _strMessage$[ebp]
  00040	b9 ff 00 00 00	 mov	 ecx, 255		; 000000ffH
  00045	c7 45 fc 00 00
	00 00		 mov	 DWORD PTR __$EHRec$[ebp+8], 0
  0004c	8b 40 f4	 mov	 eax, DWORD PTR [eax-12]
  0004f	3b c1		 cmp	 eax, ecx
  00051	0f 4f c1	 cmovg	 eax, ecx

; 124  : 	strMessage.Left(nMin);

  00054	8d 4d 08	 lea	 ecx, DWORD PTR _strMessage$[ebp]
  00057	50		 push	 eax
  00058	8d 45 f0	 lea	 eax, DWORD PTR $T2[ebp]
  0005b	50		 push	 eax
  0005c	ff 15 00 00 00
	00		 call	 DWORD PTR __imp_?Left@?$CStringT@DV?$StrTraitMFC_DLL@DV?$ChTraitsCRT@D@ATL@@@@@ATL@@QBE?AV12@H@Z
  00062	8d 4d f0	 lea	 ecx, DWORD PTR $T2[ebp]
  00065	ff 15 00 00 00
	00		 call	 DWORD PTR __imp_??1?$CStringT@DV?$StrTraitMFC_DLL@DV?$ChTraitsCRT@D@ATL@@@@@ATL@@QAE@XZ

; 125  : 	strMessage.TrimRight();

  0006b	8d 4d 08	 lea	 ecx, DWORD PTR _strMessage$[ebp]
  0006e	ff 15 00 00 00
	00		 call	 DWORD PTR __imp_?TrimRight@?$CStringT@DV?$StrTraitMFC_DLL@DV?$ChTraitsCRT@D@ATL@@@@@ATL@@QAEAAV12@XZ

; 126  : 	for(int i=0; i<m_ErrOppArray.GetSize(); i++)

  00074	8b 8f 90 03 00
	00		 mov	 ecx, DWORD PTR [edi+912]
  0007a	33 f6		 xor	 esi, esi
  0007c	8b 55 0c	 mov	 edx, DWORD PTR _errOpp$[ebp]
  0007f	85 c9		 test	 ecx, ecx
  00081	7e 24		 jle	 SHORT $LN66@AddMessage
$LL4@AddMessage:
; File C:\Program Files (x86)\Microsoft Visual Studio\2019\Community\VC\Tools\MSVC\14.29.30133\atlmfc\include\afxcoll.inl

; 117  : 		if( nIndex < 0 || nIndex >= m_nSize )

  00083	85 f6		 test	 esi, esi
  00085	0f 88 fd 00 00
	00		 js	 $LN30@AddMessage
  0008b	3b f1		 cmp	 esi, ecx
  0008d	0f 8d f5 00 00
	00		 jge	 $LN30@AddMessage
; File D:\git\src\IBK\IBK_DRFN\ProjSrc\SrcDrfn\Chart\comparechart\include\MsgWnd.cpp

; 128  : 		if((UINT)m_ErrOppArray.GetAt(i) >= errOpp)

  00093	8b 87 8c 03 00
	00		 mov	 eax, DWORD PTR [edi+908]
  00099	39 14 b0	 cmp	 DWORD PTR [eax+esi*4], edx
  0009c	0f 83 91 00 00
	00		 jae	 $LN63@AddMessage

; 126  : 	for(int i=0; i<m_ErrOppArray.GetSize(); i++)

  000a2	46		 inc	 esi
  000a3	3b f1		 cmp	 esi, ecx
  000a5	7c dc		 jl	 SHORT $LL4@AddMessage
$LN66@AddMessage:
; File C:\Program Files (x86)\Microsoft Visual Studio\2019\Community\VC\Tools\MSVC\14.29.30133\atlmfc\include\afxcoll.inl

; 137  : 		SetAtGrow(nIndex, newElement);

  000a7	52		 push	 edx
  000a8	51		 push	 ecx
  000a9	8d 8f 88 03 00
	00		 lea	 ecx, DWORD PTR [edi+904]
  000af	e8 00 00 00 00	 call	 ?SetAtGrow@CDWordArray@@QAEXHK@Z ; CDWordArray::SetAtGrow
; File C:\Program Files (x86)\Microsoft Visual Studio\2019\Community\VC\Tools\MSVC\14.29.30133\atlmfc\include\afxwin2.inl

; 795  : 	{ ASSERT(::IsWindow(m_hWnd)); return (int)::SendMessage(m_hWnd, CB_ADDSTRING, 0, (LPARAM)lpszString); }

  000b4	ff 75 08	 push	 DWORD PTR _strMessage$[ebp]
  000b7	6a 00		 push	 0
  000b9	68 43 01 00 00	 push	 323			; 00000143H
$LN71@AddMessage:
; File D:\git\src\IBK\IBK_DRFN\ProjSrc\SrcDrfn\Chart\comparechart\include\MsgWnd.cpp

; 141  : }

  000be	ff b7 a0 00 00
	00		 push	 DWORD PTR [edi+160]
  000c4	8b 35 00 00 00
	00		 mov	 esi, DWORD PTR __imp__SendMessageA@16
  000ca	ff d6		 call	 esi
  000cc	6a 00		 push	 0
  000ce	6a 00		 push	 0
  000d0	68 4e 01 00 00	 push	 334			; 0000014eH
  000d5	ff b7 a0 00 00
	00		 push	 DWORD PTR [edi+160]
  000db	ff d6		 call	 esi
  000dd	6a 00		 push	 0
  000df	6a 00		 push	 0
  000e1	68 46 01 00 00	 push	 326			; 00000146H
  000e6	ff b7 a0 00 00
	00		 push	 DWORD PTR [edi+160]
  000ec	ff d6		 call	 esi
  000ee	39 87 9c 03 00
	00		 cmp	 DWORD PTR [edi+924], eax
  000f4	7d 20		 jge	 SHORT $LN55@AddMessage
  000f6	6a 00		 push	 0
  000f8	48		 dec	 eax
  000f9	50		 push	 eax
  000fa	68 44 01 00 00	 push	 324			; 00000144H
  000ff	ff b7 a0 00 00
	00		 push	 DWORD PTR [edi+160]
  00105	ff d6		 call	 esi
  00107	6a 01		 push	 1
  00109	6a 00		 push	 0
  0010b	8d 8f 88 03 00
	00		 lea	 ecx, DWORD PTR [edi+904]
  00111	e8 00 00 00 00	 call	 ?RemoveAt@CDWordArray@@QAEXHH@Z ; CDWordArray::RemoveAt
$LN55@AddMessage:
  00116	8d 4d 08	 lea	 ecx, DWORD PTR _strMessage$[ebp]
  00119	ff 15 00 00 00
	00		 call	 DWORD PTR __imp_??1?$CStringT@DV?$StrTraitMFC_DLL@DV?$ChTraitsCRT@D@ATL@@@@@ATL@@QAE@XZ
  0011f	8b 4d f4	 mov	 ecx, DWORD PTR __$EHRec$[ebp]
  00122	64 89 0d 00 00
	00 00		 mov	 DWORD PTR fs:0, ecx
  00129	59		 pop	 ecx
  0012a	5f		 pop	 edi
  0012b	5e		 pop	 esi
  0012c	5b		 pop	 ebx
  0012d	8b e5		 mov	 esp, ebp
  0012f	5d		 pop	 ebp
  00130	c2 08 00	 ret	 8
$LN63@AddMessage:

; 129  : 		{
; 130  : 			m_ErrOppArray.InsertAt(i, errOpp);

  00133	6a 01		 push	 1
  00135	52		 push	 edx
  00136	56		 push	 esi
  00137	8d 8f 88 03 00
	00		 lea	 ecx, DWORD PTR [edi+904]
  0013d	e8 00 00 00 00	 call	 ?InsertAt@CDWordArray@@QAEXHKH@Z ; CDWordArray::InsertAt
; File C:\Program Files (x86)\Microsoft Visual Studio\2019\Community\VC\Tools\MSVC\14.29.30133\atlmfc\include\afxwin2.inl

; 799  : 	{ ASSERT(::IsWindow(m_hWnd)); return (int)::SendMessage(m_hWnd, CB_INSERTSTRING, nIndex, (LPARAM)lpszString); }

  00142	ff 75 08	 push	 DWORD PTR _strMessage$[ebp]
  00145	56		 push	 esi
  00146	68 4a 01 00 00	 push	 330			; 0000014aH
  0014b	e9 6e ff ff ff	 jmp	 $LN71@AddMessage
$LN6@AddMessage:
; File C:\Program Files (x86)\Microsoft Visual Studio\2019\Community\VC\Tools\MSVC\14.29.30133\atlmfc\include\afxcoll.inl

; 114  : 	{ SetSize(0); }

  00150	6a ff		 push	 -1
  00152	6a 00		 push	 0
; File D:\git\src\IBK\IBK_DRFN\ProjSrc\SrcDrfn\Chart\comparechart\include\MsgWnd.cpp

; 156  : 	m_ErrOppArray.RemoveAll();

  00154	8d 8f 88 03 00
	00		 lea	 ecx, DWORD PTR [edi+904]
; File C:\Program Files (x86)\Microsoft Visual Studio\2019\Community\VC\Tools\MSVC\14.29.30133\atlmfc\include\afxcoll.inl

; 114  : 	{ SetSize(0); }

  0015a	e8 00 00 00 00	 call	 ?SetSize@CDWordArray@@QAEXHH@Z ; CDWordArray::SetSize
; File C:\Program Files (x86)\Microsoft Visual Studio\2019\Community\VC\Tools\MSVC\14.29.30133\atlmfc\include\afxwin2.inl

; 801  : 	{ ASSERT(::IsWindow(m_hWnd)); ::SendMessage(m_hWnd, CB_RESETCONTENT, 0, 0); }

  0015f	6a 00		 push	 0
  00161	6a 00		 push	 0
  00163	68 4b 01 00 00	 push	 331			; 0000014bH
  00168	ff b7 a0 00 00
	00		 push	 DWORD PTR [edi+160]
  0016e	ff 15 00 00 00
	00		 call	 DWORD PTR __imp__SendMessageA@16
; File D:\git\src\IBK\IBK_DRFN\ProjSrc\SrcDrfn\Chart\comparechart\include\MsgWnd.cpp

; 141  : }

  00174	8b 4d f4	 mov	 ecx, DWORD PTR __$EHRec$[ebp]
  00177	64 89 0d 00 00
	00 00		 mov	 DWORD PTR fs:0, ecx
  0017e	59		 pop	 ecx
  0017f	5f		 pop	 edi
  00180	5e		 pop	 esi
  00181	5b		 pop	 ebx
  00182	8b e5		 mov	 esp, ebp
  00184	5d		 pop	 ebp
  00185	c2 08 00	 ret	 8
$LN30@AddMessage:
; File C:\Program Files (x86)\Microsoft Visual Studio\2019\Community\VC\Tools\MSVC\14.29.30133\atlmfc\include\afxcoll.inl

; 118  : 			AfxThrowInvalidArgException();

  00188	e8 00 00 00 00	 call	 ?AfxThrowInvalidArgException@@YGXXZ ; AfxThrowInvalidArgException
$LN69@AddMessage:
  0018d	cc		 int	 3
_TEXT	ENDS
;	COMDAT text$x
text$x	SEGMENT
__unwindfunclet$?AddMessage@CMessageWindow@@QAEXPADI@Z$0:
  00000	8d 4d 08	 lea	 ecx, DWORD PTR _strMessage$[ebp]
  00003	ff 25 00 00 00
	00		 jmp	 DWORD PTR __imp_??1?$CStringT@DV?$StrTraitMFC_DLL@DV?$ChTraitsCRT@D@ATL@@@@@ATL@@QAE@XZ
  00009	cc		 int	 3
  0000a	cc		 int	 3
  0000b	cc		 int	 3
  0000c	cc		 int	 3
  0000d	cc		 int	 3
__ehhandler$?AddMessage@CMessageWindow@@QAEXPADI@Z:
  0000e	90		 npad	 1
  0000f	90		 npad	 1
  00010	8b 54 24 08	 mov	 edx, DWORD PTR [esp+8]
  00014	8d 42 0c	 lea	 eax, DWORD PTR [edx+12]
  00017	8b 4a ec	 mov	 ecx, DWORD PTR [edx-20]
  0001a	33 c8		 xor	 ecx, eax
  0001c	e8 00 00 00 00	 call	 @__security_check_cookie@4
  00021	b8 00 00 00 00	 mov	 eax, OFFSET __ehfuncinfo$?AddMessage@CMessageWindow@@QAEXPADI@Z
  00026	e9 00 00 00 00	 jmp	 ___CxxFrameHandler3
text$x	ENDS
?AddMessage@CMessageWindow@@QAEXPADI@Z ENDP		; CMessageWindow::AddMessage
; Function compile flags: /Ogtp
; File D:\git\src\IBK\IBK_DRFN\ProjSrc\SrcDrfn\Chart\comparechart\include\MsgWnd.cpp
;	COMDAT ?GetWndHeight@CMessageWindow@@QAEHXZ
_TEXT	SEGMENT
?GetWndHeight@CMessageWindow@@QAEHXZ PROC		; CMessageWindow::GetWndHeight, COMDAT
; _this$ = ecx

; 203  : 	return BTN_HEIGHT;

  00000	b8 17 00 00 00	 mov	 eax, 23			; 00000017H

; 204  : }

  00005	c3		 ret	 0
?GetWndHeight@CMessageWindow@@QAEHXZ ENDP		; CMessageWindow::GetWndHeight
_TEXT	ENDS
; Function compile flags: /Ogtp
; File D:\git\src\IBK\IBK_DRFN\ProjSrc\SrcDrfn\Chart\comparechart\include\MsgWnd.cpp
; File C:\Program Files (x86)\Microsoft Visual Studio\2019\Community\VC\Tools\MSVC\14.29.30133\atlmfc\include\afxwin2.inl
; File D:\git\src\IBK\IBK_DRFN\ProjSrc\SrcDrfn\Chart\comparechart\include\MsgWnd.cpp
; File C:\Program Files (x86)\Microsoft Visual Studio\2019\Community\VC\Tools\MSVC\14.29.30133\atlmfc\include\afxwin2.inl
; File D:\git\src\IBK\IBK_DRFN\ProjSrc\SrcDrfn\Chart\comparechart\include\MsgWnd.cpp
; File C:\Program Files (x86)\Microsoft Visual Studio\2019\Community\VC\Tools\MSVC\14.29.30133\atlmfc\include\afxwin2.inl
; File C:\Program Files (x86)\Microsoft Visual Studio\2019\Community\VC\Tools\MSVC\14.29.30133\atlmfc\include\atltypes.h
; File C:\Program Files (x86)\Microsoft Visual Studio\2019\Community\VC\Tools\MSVC\14.29.30133\atlmfc\include\afxwin2.inl
; File C:\Program Files (x86)\Microsoft Visual Studio\2019\Community\VC\Tools\MSVC\14.29.30133\atlmfc\include\atltypes.h
; File D:\git\src\IBK\IBK_DRFN\ProjSrc\SrcDrfn\Chart\comparechart\include\MsgWnd.cpp
; File C:\Program Files (x86)\Microsoft Visual Studio\2019\Community\VC\Tools\MSVC\14.29.30133\atlmfc\include\atltypes.h
; File D:\git\src\IBK\IBK_DRFN\ProjSrc\SrcDrfn\Chart\comparechart\include\MsgWnd.cpp
;	COMDAT ?CreateMessageWnd@CMessageWindow@@QAEHPAVCWnd@@@Z
_TEXT	SEGMENT
_rect$ = -36						; size = 16
_rcc$ = -20						; size = 16
__$ArrayPad$ = -4					; size = 4
_pWnd$ = 8						; size = 4
?CreateMessageWnd@CMessageWindow@@QAEHPAVCWnd@@@Z PROC	; CMessageWindow::CreateMessageWnd, COMDAT
; _this$ = ecx

; 58   : {

  00000	55		 push	 ebp
  00001	8b ec		 mov	 ebp, esp
  00003	83 ec 24	 sub	 esp, 36			; 00000024H
  00006	a1 00 00 00 00	 mov	 eax, DWORD PTR ___security_cookie
  0000b	33 c5		 xor	 eax, ebp
  0000d	89 45 fc	 mov	 DWORD PTR __$ArrayPad$[ebp], eax
  00010	56		 push	 esi
  00011	8b 75 08	 mov	 esi, DWORD PTR _pWnd$[ebp]
; File C:\Program Files (x86)\Microsoft Visual Studio\2019\Community\VC\Tools\MSVC\14.29.30133\atlmfc\include\afxwin2.inl

; 86   : 	{ ASSERT(::IsWindow(m_hWnd)); ::GetClientRect(m_hWnd, lpRect); }

  00014	8d 45 ec	 lea	 eax, DWORD PTR _rcc$[ebp]
; File D:\git\src\IBK\IBK_DRFN\ProjSrc\SrcDrfn\Chart\comparechart\include\MsgWnd.cpp

; 58   : {

  00017	57		 push	 edi
; File C:\Program Files (x86)\Microsoft Visual Studio\2019\Community\VC\Tools\MSVC\14.29.30133\atlmfc\include\afxwin2.inl

; 86   : 	{ ASSERT(::IsWindow(m_hWnd)); ::GetClientRect(m_hWnd, lpRect); }

  00018	50		 push	 eax
  00019	0f 57 c0	 xorps	 xmm0, xmm0
; File D:\git\src\IBK\IBK_DRFN\ProjSrc\SrcDrfn\Chart\comparechart\include\MsgWnd.cpp

; 58   : {

  0001c	8b f9		 mov	 edi, ecx
; File C:\Program Files (x86)\Microsoft Visual Studio\2019\Community\VC\Tools\MSVC\14.29.30133\atlmfc\include\afxwin2.inl

; 86   : 	{ ASSERT(::IsWindow(m_hWnd)); ::GetClientRect(m_hWnd, lpRect); }

  0001e	ff 76 20	 push	 DWORD PTR [esi+32]
; File C:\Program Files (x86)\Microsoft Visual Studio\2019\Community\VC\Tools\MSVC\14.29.30133\atlmfc\include\atltypes.h

; 528  : 	left = 0;

  00021	0f 11 45 dc	 movups	 XMMWORD PTR _rect$[ebp], xmm0
  00025	0f 11 45 ec	 movups	 XMMWORD PTR _rcc$[ebp], xmm0
; File C:\Program Files (x86)\Microsoft Visual Studio\2019\Community\VC\Tools\MSVC\14.29.30133\atlmfc\include\afxwin2.inl

; 86   : 	{ ASSERT(::IsWindow(m_hWnd)); ::GetClientRect(m_hWnd, lpRect); }

  00029	ff 15 00 00 00
	00		 call	 DWORD PTR __imp__GetClientRect@8
; File C:\Program Files (x86)\Microsoft Visual Studio\2019\Community\VC\Tools\MSVC\14.29.30133\atlmfc\include\atltypes.h

; 657  : 	::SetRect(this, x1, y1, x2, y2);

  0002f	8b 45 f8	 mov	 eax, DWORD PTR _rcc$[ebp+12]
  00032	50		 push	 eax
  00033	ff 75 f4	 push	 DWORD PTR _rcc$[ebp+8]
; File D:\git\src\IBK\IBK_DRFN\ProjSrc\SrcDrfn\Chart\comparechart\include\MsgWnd.cpp

; 63   : 	rect.SetRect(0, rcc.bottom-(BTN_HEIGHT), rcc.right, rcc.bottom);

  00036	83 c0 e9	 add	 eax, -23		; ffffffe9H
; File C:\Program Files (x86)\Microsoft Visual Studio\2019\Community\VC\Tools\MSVC\14.29.30133\atlmfc\include\atltypes.h

; 657  : 	::SetRect(this, x1, y1, x2, y2);

  00039	50		 push	 eax
  0003a	6a 00		 push	 0
  0003c	8d 45 dc	 lea	 eax, DWORD PTR _rect$[ebp]
  0003f	50		 push	 eax
  00040	ff 15 00 00 00
	00		 call	 DWORD PTR __imp__SetRect@20
; File D:\git\src\IBK\IBK_DRFN\ProjSrc\SrcDrfn\Chart\comparechart\include\MsgWnd.cpp

; 65   : 	return CWnd::Create(NULL, NULL,	dwStyle, 

  00046	6a 00		 push	 0
  00048	68 d0 07 00 00	 push	 2000			; 000007d0H
  0004d	56		 push	 esi
  0004e	8d 45 dc	 lea	 eax, DWORD PTR _rect$[ebp]
  00051	8b cf		 mov	 ecx, edi
  00053	50		 push	 eax
  00054	68 01 01 00 50	 push	 1342177537		; 50000101H
  00059	6a 00		 push	 0
  0005b	6a 00		 push	 0
  0005d	e8 00 00 00 00	 call	 ?Create@CWnd@@UAEHPBD0KABUtagRECT@@PAV1@IPAUCCreateContext@@@Z ; CWnd::Create

; 66   : 					rect,	(pWnd != NULL) ? pWnd : NULL,
; 67   : 					MESSAGE_WND_ID);
; 68   : }

  00062	8b 4d fc	 mov	 ecx, DWORD PTR __$ArrayPad$[ebp]
  00065	5f		 pop	 edi
  00066	33 cd		 xor	 ecx, ebp
  00068	5e		 pop	 esi
  00069	e8 00 00 00 00	 call	 @__security_check_cookie@4
  0006e	8b e5		 mov	 esp, ebp
  00070	5d		 pop	 ebp
  00071	c2 04 00	 ret	 4
?CreateMessageWnd@CMessageWindow@@QAEHPAVCWnd@@@Z ENDP	; CMessageWindow::CreateMessageWnd
_TEXT	ENDS
; Function compile flags: /Ogtp
; File D:\git\src\IBK\IBK_DRFN\ProjSrc\SrcDrfn\Chart\comparechart\include\MsgWnd.cpp
; File C:\Program Files (x86)\Microsoft Visual Studio\2019\Community\VC\Tools\MSVC\14.29.30133\atlmfc\include\afxwin2.inl
; File D:\git\src\IBK\IBK_DRFN\ProjSrc\SrcDrfn\Chart\comparechart\include\MsgWnd.cpp
; File C:\Program Files (x86)\Microsoft Visual Studio\2019\Community\VC\Tools\MSVC\14.29.30133\atlmfc\include\afxwin2.inl
; File D:\git\src\IBK\IBK_DRFN\ProjSrc\SrcDrfn\Chart\comparechart\include\MsgWnd.cpp
; File C:\Program Files (x86)\Microsoft Visual Studio\2019\Community\VC\Tools\MSVC\14.29.30133\atlmfc\include\afxwin2.inl
; File D:\git\src\IBK\IBK_DRFN\ProjSrc\SrcDrfn\Chart\comparechart\include\MsgWnd.cpp
; File C:\Program Files (x86)\Microsoft Visual Studio\2019\Community\VC\Tools\MSVC\14.29.30133\atlmfc\include\afxwin2.inl
; File D:\git\src\IBK\IBK_DRFN\ProjSrc\SrcDrfn\Chart\comparechart\include\MsgWnd.cpp
; File C:\Program Files (x86)\Microsoft Visual Studio\2019\Community\VC\Tools\MSVC\14.29.30133\atlmfc\include\afxwin2.inl
; File D:\git\src\IBK\IBK_DRFN\ProjSrc\SrcDrfn\Chart\comparechart\include\MsgWnd.cpp
; File C:\Program Files (x86)\Microsoft Visual Studio\2019\Community\VC\Tools\MSVC\14.29.30133\atlmfc\include\afxwin2.inl
; File D:\git\src\IBK\IBK_DRFN\ProjSrc\SrcDrfn\Chart\comparechart\include\MsgWnd.cpp
; File C:\Program Files (x86)\Microsoft Visual Studio\2019\Community\VC\Tools\MSVC\14.29.30133\atlmfc\include\afxwin2.inl
; File D:\git\src\IBK\IBK_DRFN\ProjSrc\SrcDrfn\Chart\comparechart\include\MsgWnd.cpp
; File C:\Program Files (x86)\Microsoft Visual Studio\2019\Community\VC\Tools\MSVC\14.29.30133\atlmfc\include\afxwin2.inl
; File D:\git\src\IBK\IBK_DRFN\ProjSrc\SrcDrfn\Chart\comparechart\include\MsgWnd.cpp
; File C:\Program Files (x86)\Microsoft Visual Studio\2019\Community\VC\Tools\MSVC\14.29.30133\atlmfc\include\afxwin2.inl
; File D:\git\src\IBK\IBK_DRFN\ProjSrc\SrcDrfn\Chart\comparechart\include\MsgWnd.cpp
; File C:\Program Files (x86)\Microsoft Visual Studio\2019\Community\VC\Tools\MSVC\14.29.30133\atlmfc\include\afxwin2.inl
; File D:\git\src\IBK\IBK_DRFN\ProjSrc\SrcDrfn\Chart\comparechart\include\MsgWnd.cpp
; File C:\Program Files (x86)\Microsoft Visual Studio\2019\Community\VC\Tools\MSVC\14.29.30133\atlmfc\include\afxwin2.inl
; File D:\git\src\IBK\IBK_DRFN\ProjSrc\SrcDrfn\Chart\comparechart\include\MsgWnd.cpp
; File C:\Program Files (x86)\Microsoft Visual Studio\2019\Community\VC\Tools\MSVC\14.29.30133\atlmfc\include\afxwin2.inl
; File C:\Program Files (x86)\Microsoft Visual Studio\2019\Community\VC\Tools\MSVC\14.29.30133\atlmfc\include\afxwin1.inl
; File D:\git\src\IBK\IBK_DRFN\ProjSrc\SrcDrfn\Chart\comparechart\include\MsgWnd.cpp
;	COMDAT ??0CMessageWindow@@QAE@XZ
_TEXT	SEGMENT
_this$ = -20						; size = 4
_this$ = -20						; size = 4
_this$ = -20						; size = 4
_this$ = -20						; size = 4
_this$ = -20						; size = 4
_this$ = -20						; size = 4
_this$ = -16						; size = 4
__$EHRec$ = -12						; size = 12
??0CMessageWindow@@QAE@XZ PROC				; CMessageWindow::CMessageWindow, COMDAT
; _this$ = ecx

; 36   : {	

  00000	55		 push	 ebp
  00001	8b ec		 mov	 ebp, esp
  00003	6a ff		 push	 -1
  00005	68 00 00 00 00	 push	 __ehhandler$??0CMessageWindow@@QAE@XZ
  0000a	64 a1 00 00 00
	00		 mov	 eax, DWORD PTR fs:0
  00010	50		 push	 eax
  00011	83 ec 08	 sub	 esp, 8
  00014	56		 push	 esi
  00015	57		 push	 edi
  00016	a1 00 00 00 00	 mov	 eax, DWORD PTR ___security_cookie
  0001b	33 c5		 xor	 eax, ebp
  0001d	50		 push	 eax
  0001e	8d 45 f4	 lea	 eax, DWORD PTR __$EHRec$[ebp]
  00021	64 a3 00 00 00
	00		 mov	 DWORD PTR fs:0, eax
  00027	8b f9		 mov	 edi, ecx
  00029	89 7d f0	 mov	 DWORD PTR _this$[ebp], edi
  0002c	e8 00 00 00 00	 call	 ??0CWnd@@QAE@XZ		; CWnd::CWnd
  00031	8d b7 80 00 00
	00		 lea	 esi, DWORD PTR [edi+128]
  00037	c7 45 fc 00 00
	00 00		 mov	 DWORD PTR __$EHRec$[ebp+8], 0
; File C:\Program Files (x86)\Microsoft Visual Studio\2019\Community\VC\Tools\MSVC\14.29.30133\atlmfc\include\afxwin2.inl

; 761  : 	{ }

  0003e	8b ce		 mov	 ecx, esi
; File D:\git\src\IBK\IBK_DRFN\ProjSrc\SrcDrfn\Chart\comparechart\include\MsgWnd.cpp

; 36   : {	

  00040	c7 07 00 00 00
	00		 mov	 DWORD PTR [edi], OFFSET ??_7CMessageWindow@@6B@
  00046	89 75 ec	 mov	 DWORD PTR _this$[ebp], esi
; File C:\Program Files (x86)\Microsoft Visual Studio\2019\Community\VC\Tools\MSVC\14.29.30133\atlmfc\include\afxwin2.inl

; 761  : 	{ }

  00049	e8 00 00 00 00	 call	 ??0CWnd@@QAE@XZ		; CWnd::CWnd
  0004e	c7 06 00 00 00
	00		 mov	 DWORD PTR [esi], OFFSET ??_7CComboBox@@6B@
; File D:\git\src\IBK\IBK_DRFN\ProjSrc\SrcDrfn\Chart\comparechart\include\MsgWnd.cpp

; 36   : {	

  00054	8d b7 00 01 00
	00		 lea	 esi, DWORD PTR [edi+256]
  0005a	c6 45 fc 01	 mov	 BYTE PTR __$EHRec$[ebp+8], 1
; File C:\Program Files (x86)\Microsoft Visual Studio\2019\Community\VC\Tools\MSVC\14.29.30133\atlmfc\include\afxwin2.inl

; 622  : 	{ }

  0005e	8b ce		 mov	 ecx, esi
; File D:\git\src\IBK\IBK_DRFN\ProjSrc\SrcDrfn\Chart\comparechart\include\MsgWnd.cpp

; 36   : {	

  00060	89 75 ec	 mov	 DWORD PTR _this$[ebp], esi
; File C:\Program Files (x86)\Microsoft Visual Studio\2019\Community\VC\Tools\MSVC\14.29.30133\atlmfc\include\afxwin2.inl

; 622  : 	{ }

  00063	e8 00 00 00 00	 call	 ??0CWnd@@QAE@XZ		; CWnd::CWnd
  00068	c7 06 00 00 00
	00		 mov	 DWORD PTR [esi], OFFSET ??_7CButton@@6B@
; File D:\git\src\IBK\IBK_DRFN\ProjSrc\SrcDrfn\Chart\comparechart\include\MsgWnd.cpp

; 36   : {	

  0006e	8d b7 80 01 00
	00		 lea	 esi, DWORD PTR [edi+384]
  00074	c6 45 fc 02	 mov	 BYTE PTR __$EHRec$[ebp+8], 2
; File C:\Program Files (x86)\Microsoft Visual Studio\2019\Community\VC\Tools\MSVC\14.29.30133\atlmfc\include\afxwin2.inl

; 622  : 	{ }

  00078	8b ce		 mov	 ecx, esi
; File D:\git\src\IBK\IBK_DRFN\ProjSrc\SrcDrfn\Chart\comparechart\include\MsgWnd.cpp

; 36   : {	

  0007a	89 75 ec	 mov	 DWORD PTR _this$[ebp], esi
; File C:\Program Files (x86)\Microsoft Visual Studio\2019\Community\VC\Tools\MSVC\14.29.30133\atlmfc\include\afxwin2.inl

; 622  : 	{ }

  0007d	e8 00 00 00 00	 call	 ??0CWnd@@QAE@XZ		; CWnd::CWnd
  00082	c7 06 00 00 00
	00		 mov	 DWORD PTR [esi], OFFSET ??_7CButton@@6B@
; File D:\git\src\IBK\IBK_DRFN\ProjSrc\SrcDrfn\Chart\comparechart\include\MsgWnd.cpp

; 36   : {	

  00088	8d b7 00 02 00
	00		 lea	 esi, DWORD PTR [edi+512]
  0008e	c6 45 fc 03	 mov	 BYTE PTR __$EHRec$[ebp+8], 3
; File C:\Program Files (x86)\Microsoft Visual Studio\2019\Community\VC\Tools\MSVC\14.29.30133\atlmfc\include\afxwin2.inl

; 622  : 	{ }

  00092	8b ce		 mov	 ecx, esi
; File D:\git\src\IBK\IBK_DRFN\ProjSrc\SrcDrfn\Chart\comparechart\include\MsgWnd.cpp

; 36   : {	

  00094	89 75 ec	 mov	 DWORD PTR _this$[ebp], esi
; File C:\Program Files (x86)\Microsoft Visual Studio\2019\Community\VC\Tools\MSVC\14.29.30133\atlmfc\include\afxwin2.inl

; 622  : 	{ }

  00097	e8 00 00 00 00	 call	 ??0CWnd@@QAE@XZ		; CWnd::CWnd
  0009c	c7 06 00 00 00
	00		 mov	 DWORD PTR [esi], OFFSET ??_7CButton@@6B@
; File D:\git\src\IBK\IBK_DRFN\ProjSrc\SrcDrfn\Chart\comparechart\include\MsgWnd.cpp

; 36   : {	

  000a2	8d b7 80 02 00
	00		 lea	 esi, DWORD PTR [edi+640]
  000a8	c6 45 fc 04	 mov	 BYTE PTR __$EHRec$[ebp+8], 4
; File C:\Program Files (x86)\Microsoft Visual Studio\2019\Community\VC\Tools\MSVC\14.29.30133\atlmfc\include\afxwin2.inl

; 622  : 	{ }

  000ac	8b ce		 mov	 ecx, esi
; File D:\git\src\IBK\IBK_DRFN\ProjSrc\SrcDrfn\Chart\comparechart\include\MsgWnd.cpp

; 36   : {	

  000ae	89 75 ec	 mov	 DWORD PTR _this$[ebp], esi
; File C:\Program Files (x86)\Microsoft Visual Studio\2019\Community\VC\Tools\MSVC\14.29.30133\atlmfc\include\afxwin2.inl

; 622  : 	{ }

  000b1	e8 00 00 00 00	 call	 ??0CWnd@@QAE@XZ		; CWnd::CWnd
  000b6	c7 06 00 00 00
	00		 mov	 DWORD PTR [esi], OFFSET ??_7CButton@@6B@
; File D:\git\src\IBK\IBK_DRFN\ProjSrc\SrcDrfn\Chart\comparechart\include\MsgWnd.cpp

; 36   : {	

  000bc	8d b7 00 03 00
	00		 lea	 esi, DWORD PTR [edi+768]
  000c2	c6 45 fc 05	 mov	 BYTE PTR __$EHRec$[ebp+8], 5
; File C:\Program Files (x86)\Microsoft Visual Studio\2019\Community\VC\Tools\MSVC\14.29.30133\atlmfc\include\afxwin2.inl

; 622  : 	{ }

  000c6	8b ce		 mov	 ecx, esi
; File D:\git\src\IBK\IBK_DRFN\ProjSrc\SrcDrfn\Chart\comparechart\include\MsgWnd.cpp

; 36   : {	

  000c8	89 75 ec	 mov	 DWORD PTR _this$[ebp], esi
; File C:\Program Files (x86)\Microsoft Visual Studio\2019\Community\VC\Tools\MSVC\14.29.30133\atlmfc\include\afxwin2.inl

; 622  : 	{ }

  000cb	e8 00 00 00 00	 call	 ??0CWnd@@QAE@XZ		; CWnd::CWnd
  000d0	c7 06 00 00 00
	00		 mov	 DWORD PTR [esi], OFFSET ??_7CButton@@6B@
; File C:\Program Files (x86)\Microsoft Visual Studio\2019\Community\VC\Tools\MSVC\14.29.30133\atlmfc\include\afxwin1.inl

; 70   : 	{ m_hObject = NULL; }

  000d6	c7 87 84 03 00
	00 00 00 00 00	 mov	 DWORD PTR [edi+900], 0

; 153  : 	{ }

  000e0	c7 87 80 03 00
	00 00 00 00 00	 mov	 DWORD PTR [edi+896], OFFSET ??_7CFont@@6B@
; File D:\git\src\IBK\IBK_DRFN\ProjSrc\SrcDrfn\Chart\comparechart\include\MsgWnd.cpp

; 36   : {	

  000ea	8d 8f 88 03 00
	00		 lea	 ecx, DWORD PTR [edi+904]
  000f0	c6 45 fc 07	 mov	 BYTE PTR __$EHRec$[ebp+8], 7
  000f4	e8 00 00 00 00	 call	 ??0CDWordArray@@QAE@XZ	; CDWordArray::CDWordArray
  000f9	8d 8f a0 03 00
	00		 lea	 ecx, DWORD PTR [edi+928]
  000ff	c7 87 9c 03 00
	00 05 00 00 00	 mov	 DWORD PTR [edi+924], 5
  00109	ff 15 00 00 00
	00		 call	 DWORD PTR __imp_??0?$CStringT@DV?$StrTraitMFC_DLL@DV?$ChTraitsCRT@D@ATL@@@@@ATL@@QAE@XZ

; 37   : }

  0010f	8b c7		 mov	 eax, edi
  00111	8b 4d f4	 mov	 ecx, DWORD PTR __$EHRec$[ebp]
  00114	64 89 0d 00 00
	00 00		 mov	 DWORD PTR fs:0, ecx
  0011b	59		 pop	 ecx
  0011c	5f		 pop	 edi
  0011d	5e		 pop	 esi
  0011e	8b e5		 mov	 esp, ebp
  00120	5d		 pop	 ebp
  00121	c3		 ret	 0
_TEXT	ENDS
;	COMDAT text$x
text$x	SEGMENT
__unwindfunclet$??0CMessageWindow@@QAE@XZ$0:
  00000	8b 4d f0	 mov	 ecx, DWORD PTR _this$[ebp]
  00003	e9 00 00 00 00	 jmp	 ??1CWnd@@UAE@XZ		; CWnd::~CWnd
__unwindfunclet$??0CMessageWindow@@QAE@XZ$1:
  00008	8b 4d f0	 mov	 ecx, DWORD PTR _this$[ebp]
  0000b	81 c1 80 00 00
	00		 add	 ecx, 128		; 00000080H
  00011	e9 00 00 00 00	 jmp	 ??1CComboBox@@UAE@XZ	; CComboBox::~CComboBox
__unwindfunclet$??0CMessageWindow@@QAE@XZ$2:
  00016	8b 4d f0	 mov	 ecx, DWORD PTR _this$[ebp]
  00019	81 c1 00 01 00
	00		 add	 ecx, 256		; 00000100H
  0001f	e9 00 00 00 00	 jmp	 ??1CButton@@UAE@XZ	; CButton::~CButton
__unwindfunclet$??0CMessageWindow@@QAE@XZ$3:
  00024	8b 4d f0	 mov	 ecx, DWORD PTR _this$[ebp]
  00027	81 c1 80 01 00
	00		 add	 ecx, 384		; 00000180H
  0002d	e9 00 00 00 00	 jmp	 ??1CButton@@UAE@XZ	; CButton::~CButton
__unwindfunclet$??0CMessageWindow@@QAE@XZ$4:
  00032	8b 4d f0	 mov	 ecx, DWORD PTR _this$[ebp]
  00035	81 c1 00 02 00
	00		 add	 ecx, 512		; 00000200H
  0003b	e9 00 00 00 00	 jmp	 ??1CButton@@UAE@XZ	; CButton::~CButton
__unwindfunclet$??0CMessageWindow@@QAE@XZ$5:
  00040	8b 4d f0	 mov	 ecx, DWORD PTR _this$[ebp]
  00043	81 c1 80 02 00
	00		 add	 ecx, 640		; 00000280H
  00049	e9 00 00 00 00	 jmp	 ??1CButton@@UAE@XZ	; CButton::~CButton
__unwindfunclet$??0CMessageWindow@@QAE@XZ$6:
  0004e	8b 4d f0	 mov	 ecx, DWORD PTR _this$[ebp]
  00051	81 c1 00 03 00
	00		 add	 ecx, 768		; 00000300H
  00057	e9 00 00 00 00	 jmp	 ??1CButton@@UAE@XZ	; CButton::~CButton
__unwindfunclet$??0CMessageWindow@@QAE@XZ$7:
  0005c	8b 4d f0	 mov	 ecx, DWORD PTR _this$[ebp]
  0005f	81 c1 80 03 00
	00		 add	 ecx, 896		; 00000380H
  00065	e9 00 00 00 00	 jmp	 ??1CFont@@UAE@XZ	; CFont::~CFont
  0006a	cc		 int	 3
  0006b	cc		 int	 3
  0006c	cc		 int	 3
  0006d	cc		 int	 3
  0006e	cc		 int	 3
__ehhandler$??0CMessageWindow@@QAE@XZ:
  0006f	90		 npad	 1
  00070	90		 npad	 1
  00071	8b 54 24 08	 mov	 edx, DWORD PTR [esp+8]
  00075	8d 42 0c	 lea	 eax, DWORD PTR [edx+12]
  00078	8b 4a ec	 mov	 ecx, DWORD PTR [edx-20]
  0007b	33 c8		 xor	 ecx, eax
  0007d	e8 00 00 00 00	 call	 @__security_check_cookie@4
  00082	b8 00 00 00 00	 mov	 eax, OFFSET __ehfuncinfo$??0CMessageWindow@@QAE@XZ
  00087	e9 00 00 00 00	 jmp	 ___CxxFrameHandler3
text$x	ENDS
??0CMessageWindow@@QAE@XZ ENDP				; CMessageWindow::CMessageWindow
; Function compile flags: /Ogtp
; File C:\Program Files (x86)\Microsoft Visual Studio\2019\Community\VC\Tools\MSVC\14.29.30133\atlmfc\include\afx.inl
;	COMDAT ??_GCComboBox@@UAEPAXI@Z
_TEXT	SEGMENT
___flags$ = 8						; size = 4
??_GCComboBox@@UAEPAXI@Z PROC				; CComboBox::`scalar deleting destructor', COMDAT
; _this$ = ecx
  00000	55		 push	 ebp
  00001	8b ec		 mov	 ebp, esp
  00003	56		 push	 esi
  00004	8b f1		 mov	 esi, ecx
  00006	e8 00 00 00 00	 call	 ??1CComboBox@@UAE@XZ	; CComboBox::~CComboBox
  0000b	8b 45 08	 mov	 eax, DWORD PTR ___flags$[ebp]
  0000e	a8 01		 test	 al, 1
  00010	74 22		 je	 SHORT $LN9@scalar
  00012	a8 04		 test	 al, 4
  00014	75 10		 jne	 SHORT $LN3@scalar

; 112  : 	{ ::operator delete(p); }

  00016	56		 push	 esi
  00017	e8 00 00 00 00	 call	 ??3@YAXPAX@Z		; operator delete
  0001c	83 c4 04	 add	 esp, 4
  0001f	8b c6		 mov	 eax, esi
  00021	5e		 pop	 esi
  00022	5d		 pop	 ebp
  00023	c2 04 00	 ret	 4
$LN3@scalar:
  00026	68 80 00 00 00	 push	 128			; 00000080H
  0002b	56		 push	 esi
  0002c	e8 00 00 00 00	 call	 ?__global_delete@@YAXPAXI@Z ; __global_delete
  00031	83 c4 08	 add	 esp, 8
$LN9@scalar:
  00034	8b c6		 mov	 eax, esi
  00036	5e		 pop	 esi
  00037	5d		 pop	 ebp
  00038	c2 04 00	 ret	 4
??_GCComboBox@@UAEPAXI@Z ENDP				; CComboBox::`scalar deleting destructor'
_TEXT	ENDS
; Function compile flags: /Ogtp
; File C:\Program Files (x86)\Microsoft Visual Studio\2019\Community\VC\Tools\MSVC\14.29.30133\atlmfc\include\afx.inl
;	COMDAT ??_GCButton@@UAEPAXI@Z
_TEXT	SEGMENT
___flags$ = 8						; size = 4
??_GCButton@@UAEPAXI@Z PROC				; CButton::`scalar deleting destructor', COMDAT
; _this$ = ecx
  00000	55		 push	 ebp
  00001	8b ec		 mov	 ebp, esp
  00003	56		 push	 esi
  00004	8b f1		 mov	 esi, ecx
  00006	e8 00 00 00 00	 call	 ??1CButton@@UAE@XZ	; CButton::~CButton
  0000b	8b 45 08	 mov	 eax, DWORD PTR ___flags$[ebp]
  0000e	a8 01		 test	 al, 1
  00010	74 22		 je	 SHORT $LN9@scalar
  00012	a8 04		 test	 al, 4
  00014	75 10		 jne	 SHORT $LN3@scalar

; 112  : 	{ ::operator delete(p); }

  00016	56		 push	 esi
  00017	e8 00 00 00 00	 call	 ??3@YAXPAX@Z		; operator delete
  0001c	83 c4 04	 add	 esp, 4
  0001f	8b c6		 mov	 eax, esi
  00021	5e		 pop	 esi
  00022	5d		 pop	 ebp
  00023	c2 04 00	 ret	 4
$LN3@scalar:
  00026	68 80 00 00 00	 push	 128			; 00000080H
  0002b	56		 push	 esi
  0002c	e8 00 00 00 00	 call	 ?__global_delete@@YAXPAXI@Z ; __global_delete
  00031	83 c4 08	 add	 esp, 8
$LN9@scalar:
  00034	8b c6		 mov	 eax, esi
  00036	5e		 pop	 esi
  00037	5d		 pop	 ebp
  00038	c2 04 00	 ret	 4
??_GCButton@@UAEPAXI@Z ENDP				; CButton::`scalar deleting destructor'
_TEXT	ENDS
; Function compile flags: /Ogtp
; File C:\Program Files (x86)\Microsoft Visual Studio\2019\Community\VC\Tools\MSVC\14.29.30133\atlmfc\include\afxwin2.inl
;	COMDAT ?EndModalState@CWnd@@UAEXXZ
_TEXT	SEGMENT
?EndModalState@CWnd@@UAEXXZ PROC			; CWnd::EndModalState, COMDAT
; _this$ = ecx

; 567  : 	{ ::EnableWindow(m_hWnd, TRUE); }

  00000	6a 01		 push	 1
  00002	ff 71 20	 push	 DWORD PTR [ecx+32]
  00005	ff 15 00 00 00
	00		 call	 DWORD PTR __imp__EnableWindow@8
  0000b	c3		 ret	 0
?EndModalState@CWnd@@UAEXXZ ENDP			; CWnd::EndModalState
_TEXT	ENDS
; Function compile flags: /Ogtp
; File C:\Program Files (x86)\Microsoft Visual Studio\2019\Community\VC\Tools\MSVC\14.29.30133\atlmfc\include\afxwin2.inl
;	COMDAT ?BeginModalState@CWnd@@UAEXXZ
_TEXT	SEGMENT
?BeginModalState@CWnd@@UAEXXZ PROC			; CWnd::BeginModalState, COMDAT
; _this$ = ecx

; 565  : 	{ ::EnableWindow(m_hWnd, FALSE); }

  00000	6a 00		 push	 0
  00002	ff 71 20	 push	 DWORD PTR [ecx+32]
  00005	ff 15 00 00 00
	00		 call	 DWORD PTR __imp__EnableWindow@8
  0000b	c3		 ret	 0
?BeginModalState@CWnd@@UAEXXZ ENDP			; CWnd::BeginModalState
_TEXT	ENDS
; Function compile flags: /Ogtp
; File C:\Program Files (x86)\Microsoft Visual Studio\2019\Community\VC\Tools\MSVC\14.29.30133\atlmfc\include\afxwin2.inl
;	COMDAT ?DoDataExchange@CWnd@@MAEXPAVCDataExchange@@@Z
_TEXT	SEGMENT
___formal$ = 8						; size = 4
?DoDataExchange@CWnd@@MAEXPAVCDataExchange@@@Z PROC	; CWnd::DoDataExchange, COMDAT
; _this$ = ecx

; 561  : 	{ } // default does nothing

  00000	c2 04 00	 ret	 4
?DoDataExchange@CWnd@@MAEXPAVCDataExchange@@@Z ENDP	; CWnd::DoDataExchange
_TEXT	ENDS
; Function compile flags: /Ogtp
; File C:\Program Files (x86)\Microsoft Visual Studio\2019\Community\VC\Tools\MSVC\14.29.30133\atlmfc\include\afxwin1.inl
; File C:\Program Files (x86)\Microsoft Visual Studio\2019\Community\VC\Tools\MSVC\14.29.30133\atlmfc\include\afx.inl
;	COMDAT ??_GCFont@@UAEPAXI@Z
_TEXT	SEGMENT
___flags$ = 8						; size = 4
??_GCFont@@UAEPAXI@Z PROC				; CFont::`scalar deleting destructor', COMDAT
; _this$ = ecx
  00000	55		 push	 ebp
  00001	8b ec		 mov	 ebp, esp
; File C:\Program Files (x86)\Microsoft Visual Studio\2019\Community\VC\Tools\MSVC\14.29.30133\atlmfc\include\afxwin1.inl

; 155  : 	{ }

  00003	56		 push	 esi
  00004	8b f1		 mov	 esi, ecx
  00006	c7 06 00 00 00
	00		 mov	 DWORD PTR [esi], OFFSET ??_7CFont@@6B@
  0000c	e8 00 00 00 00	 call	 ??1CGdiObject@@UAE@XZ	; CGdiObject::~CGdiObject
  00011	8b 45 08	 mov	 eax, DWORD PTR ___flags$[ebp]
  00014	a8 01		 test	 al, 1
  00016	74 1f		 je	 SHORT $LN12@scalar
  00018	a8 04		 test	 al, 4
  0001a	75 10		 jne	 SHORT $LN3@scalar
; File C:\Program Files (x86)\Microsoft Visual Studio\2019\Community\VC\Tools\MSVC\14.29.30133\atlmfc\include\afx.inl

; 112  : 	{ ::operator delete(p); }

  0001c	56		 push	 esi
  0001d	e8 00 00 00 00	 call	 ??3@YAXPAX@Z		; operator delete
  00022	83 c4 04	 add	 esp, 4
  00025	8b c6		 mov	 eax, esi
  00027	5e		 pop	 esi
  00028	5d		 pop	 ebp
  00029	c2 04 00	 ret	 4
$LN3@scalar:
  0002c	6a 08		 push	 8
  0002e	56		 push	 esi
  0002f	e8 00 00 00 00	 call	 ?__global_delete@@YAXPAXI@Z ; __global_delete
  00034	83 c4 08	 add	 esp, 8
$LN12@scalar:
  00037	8b c6		 mov	 eax, esi
  00039	5e		 pop	 esi
  0003a	5d		 pop	 ebp
  0003b	c2 04 00	 ret	 4
??_GCFont@@UAEPAXI@Z ENDP				; CFont::`scalar deleting destructor'
_TEXT	ENDS
; Function compile flags: /Ogtp
; File C:\Program Files (x86)\Microsoft Visual Studio\2019\Community\VC\Tools\MSVC\14.29.30133\atlmfc\include\afxwin1.inl
;	COMDAT ??1CFont@@UAE@XZ
_TEXT	SEGMENT
??1CFont@@UAE@XZ PROC					; CFont::~CFont, COMDAT
; _this$ = ecx

; 155  : 	{ }

  00000	c7 01 00 00 00
	00		 mov	 DWORD PTR [ecx], OFFSET ??_7CFont@@6B@
  00006	e9 00 00 00 00	 jmp	 ??1CGdiObject@@UAE@XZ	; CGdiObject::~CGdiObject
??1CFont@@UAE@XZ ENDP					; CFont::~CFont
_TEXT	ENDS
; Function compile flags: /Ogtp
; File C:\Program Files (x86)\Microsoft Visual Studio\2019\Community\VC\Tools\MSVC\14.29.30133\atlmfc\include\afx.inl
;	COMDAT ??_GCGdiObject@@UAEPAXI@Z
_TEXT	SEGMENT
___flags$ = 8						; size = 4
??_GCGdiObject@@UAEPAXI@Z PROC				; CGdiObject::`scalar deleting destructor', COMDAT
; _this$ = ecx
  00000	55		 push	 ebp
  00001	8b ec		 mov	 ebp, esp
  00003	56		 push	 esi
  00004	8b f1		 mov	 esi, ecx
  00006	e8 00 00 00 00	 call	 ??1CGdiObject@@UAE@XZ	; CGdiObject::~CGdiObject
  0000b	8b 45 08	 mov	 eax, DWORD PTR ___flags$[ebp]
  0000e	a8 01		 test	 al, 1
  00010	74 1f		 je	 SHORT $LN9@scalar
  00012	a8 04		 test	 al, 4
  00014	75 10		 jne	 SHORT $LN3@scalar

; 112  : 	{ ::operator delete(p); }

  00016	56		 push	 esi
  00017	e8 00 00 00 00	 call	 ??3@YAXPAX@Z		; operator delete
  0001c	83 c4 04	 add	 esp, 4
  0001f	8b c6		 mov	 eax, esi
  00021	5e		 pop	 esi
  00022	5d		 pop	 ebp
  00023	c2 04 00	 ret	 4
$LN3@scalar:
  00026	6a 08		 push	 8
  00028	56		 push	 esi
  00029	e8 00 00 00 00	 call	 ?__global_delete@@YAXPAXI@Z ; __global_delete
  0002e	83 c4 08	 add	 esp, 8
$LN9@scalar:
  00031	8b c6		 mov	 eax, esi
  00033	5e		 pop	 esi
  00034	5d		 pop	 ebp
  00035	c2 04 00	 ret	 4
??_GCGdiObject@@UAEPAXI@Z ENDP				; CGdiObject::`scalar deleting destructor'
_TEXT	ENDS
; Function compile flags: /Ogtp
; File C:\Program Files (x86)\Microsoft Visual Studio\2019\Community\VC\Tools\MSVC\14.29.30133\atlmfc\include\afxwin1.inl
;	COMDAT ??1CGdiObject@@UAE@XZ
_TEXT	SEGMENT
_pException$2 = -540					; size = 4
_strMsg$3 = -536					; size = 4
_szErrorMessage$4 = -532				; size = 512
__$ArrayPad$ = -20					; size = 4
__$EHRec$ = -16						; size = 16
??1CGdiObject@@UAE@XZ PROC				; CGdiObject::~CGdiObject, COMDAT
; _this$ = ecx

; 74   : {

  00000	55		 push	 ebp
  00001	8b ec		 mov	 ebp, esp
  00003	6a ff		 push	 -1
  00005	68 00 00 00 00	 push	 __ehhandler$??1CGdiObject@@UAE@XZ
  0000a	64 a1 00 00 00
	00		 mov	 eax, DWORD PTR fs:0
  00010	50		 push	 eax
  00011	81 ec 10 02 00
	00		 sub	 esp, 528		; 00000210H
  00017	a1 00 00 00 00	 mov	 eax, DWORD PTR ___security_cookie
  0001c	33 c5		 xor	 eax, ebp
  0001e	89 45 ec	 mov	 DWORD PTR __$ArrayPad$[ebp], eax
  00021	53		 push	 ebx
  00022	56		 push	 esi
  00023	57		 push	 edi
  00024	50		 push	 eax
  00025	8d 45 f4	 lea	 eax, DWORD PTR __$EHRec$[ebp+4]
  00028	64 a3 00 00 00
	00		 mov	 DWORD PTR fs:0, eax
  0002e	89 65 f0	 mov	 DWORD PTR __$EHRec$[ebp], esp
  00031	c7 01 00 00 00
	00		 mov	 DWORD PTR [ecx], OFFSET ??_7CGdiObject@@6B@

; 75   : 	AFX_BEGIN_DESTRUCTOR

  00037	c7 45 fc 00 00
	00 00		 mov	 DWORD PTR __$EHRec$[ebp+12], 0

; 76   : 	DeleteObject();

  0003e	e8 00 00 00 00	 call	 ?DeleteObject@CGdiObject@@QAEHXZ ; CGdiObject::DeleteObject
$LN18@CGdiObject:

; 78   : }

  00043	8b 4d f4	 mov	 ecx, DWORD PTR __$EHRec$[ebp+4]
  00046	64 89 0d 00 00
	00 00		 mov	 DWORD PTR fs:0, ecx
  0004d	59		 pop	 ecx
  0004e	5f		 pop	 edi
  0004f	5e		 pop	 esi
  00050	5b		 pop	 ebx
  00051	8b 4d ec	 mov	 ecx, DWORD PTR __$ArrayPad$[ebp]
  00054	33 cd		 xor	 ecx, ebp
  00056	e8 00 00 00 00	 call	 @__security_check_cookie@4
  0005b	8b e5		 mov	 esp, ebp
  0005d	5d		 pop	 ebp
  0005e	c3		 ret	 0
__catch$??1CGdiObject@@UAE@XZ$0:

; 77   : 	AFX_END_DESTRUCTOR

  0005f	8d 8d e8 fd ff
	ff		 lea	 ecx, DWORD PTR _strMsg$3[ebp]
  00065	ff 15 00 00 00
	00		 call	 DWORD PTR __imp_??0?$CStringT@DV?$StrTraitMFC_DLL@DV?$ChTraitsCRT@D@ATL@@@@@ATL@@QAE@XZ
  0006b	8b b5 e4 fd ff
	ff		 mov	 esi, DWORD PTR _pException$2[ebp]
  00071	8d 8d ec fd ff
	ff		 lea	 ecx, DWORD PTR _szErrorMessage$4[ebp]
  00077	6a 00		 push	 0
  00079	68 00 02 00 00	 push	 512			; 00000200H
  0007e	51		 push	 ecx
  0007f	8b 06		 mov	 eax, DWORD PTR [esi]
  00081	8b ce		 mov	 ecx, esi
  00083	c6 45 fc 02	 mov	 BYTE PTR __$EHRec$[ebp+12], 2
  00087	ff 50 14	 call	 DWORD PTR [eax+20]
  0008a	85 c0		 test	 eax, eax
  0008c	74 2a		 je	 SHORT $LN9@CGdiObject
  0008e	8d 85 ec fd ff
	ff		 lea	 eax, DWORD PTR _szErrorMessage$4[ebp]
  00094	50		 push	 eax
  00095	6a 4d		 push	 77			; 0000004dH
  00097	68 00 00 00 00	 push	 OFFSET ??_C@_0HD@JJCHHHNK@C?3?2Program?5Files?5?$CIx86?$CJ?2Microsof@
  0009c	68 00 00 00 00	 push	 OFFSET ??_C@_0BP@OIEOKIDM@Exception?5thrown?5in?5destructor@
  000a1	8d 85 e8 fd ff
	ff		 lea	 eax, DWORD PTR _strMsg$3[ebp]
  000a7	68 00 00 00 00	 push	 OFFSET ??_C@_0BB@HBOOMJBF@?$CFTs?5?$CI?$CFTs?3?$CFd?$CJ?6?$CFTs@
  000ac	50		 push	 eax
  000ad	ff 15 00 00 00
	00		 call	 DWORD PTR __imp_?Format@?$CStringT@DV?$StrTraitMFC_DLL@DV?$ChTraitsCRT@D@ATL@@@@@ATL@@QAAXPBDZZ
  000b3	83 c4 18	 add	 esp, 24			; 00000018H
  000b6	eb 21		 jmp	 SHORT $LN10@CGdiObject
$LN9@CGdiObject:
  000b8	6a 4d		 push	 77			; 0000004dH
  000ba	68 00 00 00 00	 push	 OFFSET ??_C@_0HD@JJCHHHNK@C?3?2Program?5Files?5?$CIx86?$CJ?2Microsof@
  000bf	68 00 00 00 00	 push	 OFFSET ??_C@_0BP@OIEOKIDM@Exception?5thrown?5in?5destructor@
  000c4	8d 85 e8 fd ff
	ff		 lea	 eax, DWORD PTR _strMsg$3[ebp]
  000ca	68 00 00 00 00	 push	 OFFSET ??_C@_0N@OMEMOKLE@?$CFTs?5?$CI?$CFTs?3?$CFd?$CJ@
  000cf	50		 push	 eax
  000d0	ff 15 00 00 00
	00		 call	 DWORD PTR __imp_?Format@?$CStringT@DV?$StrTraitMFC_DLL@DV?$ChTraitsCRT@D@ATL@@@@@ATL@@QAAXPBDZZ
  000d6	83 c4 14	 add	 esp, 20			; 00000014H
$LN10@CGdiObject:
  000d9	6a 00		 push	 0
  000db	6a 00		 push	 0
  000dd	ff b5 e8 fd ff
	ff		 push	 DWORD PTR _strMsg$3[ebp]
  000e3	e8 00 00 00 00	 call	 ?AfxMessageBox@@YGHPBDII@Z ; AfxMessageBox
  000e8	8d 8d e8 fd ff
	ff		 lea	 ecx, DWORD PTR _strMsg$3[ebp]
  000ee	ff 15 00 00 00
	00		 call	 DWORD PTR __imp_??1?$CStringT@DV?$StrTraitMFC_DLL@DV?$ChTraitsCRT@D@ATL@@@@@ATL@@QAE@XZ
  000f4	8b 06		 mov	 eax, DWORD PTR [esi]
  000f6	8b ce		 mov	 ecx, esi
  000f8	6a 01		 push	 1
  000fa	ff 50 04	 call	 DWORD PTR [eax+4]
  000fd	b8 00 00 00 00	 mov	 eax, $LN18@CGdiObject
  00102	c3		 ret	 0
_TEXT	ENDS
;	COMDAT text$x
text$x	SEGMENT
__unwindfunclet$??1CGdiObject@@UAE@XZ$2:
  00000	8d 8d e8 fd ff
	ff		 lea	 ecx, DWORD PTR _strMsg$3[ebp]
  00006	ff 25 00 00 00
	00		 jmp	 DWORD PTR __imp_??1?$CStringT@DV?$StrTraitMFC_DLL@DV?$ChTraitsCRT@D@ATL@@@@@ATL@@QAE@XZ
  0000c	cc		 int	 3
  0000d	cc		 int	 3
  0000e	cc		 int	 3
  0000f	cc		 int	 3
  00010	cc		 int	 3
__ehhandler$??1CGdiObject@@UAE@XZ:
  00011	90		 npad	 1
  00012	90		 npad	 1
  00013	8b 54 24 08	 mov	 edx, DWORD PTR [esp+8]
  00017	8d 42 0c	 lea	 eax, DWORD PTR [edx+12]
  0001a	8b 8a e0 fd ff
	ff		 mov	 ecx, DWORD PTR [edx-544]
  00020	33 c8		 xor	 ecx, eax
  00022	e8 00 00 00 00	 call	 @__security_check_cookie@4
  00027	8b 4a f8	 mov	 ecx, DWORD PTR [edx-8]
  0002a	33 c8		 xor	 ecx, eax
  0002c	e8 00 00 00 00	 call	 @__security_check_cookie@4
  00031	b8 00 00 00 00	 mov	 eax, OFFSET __ehfuncinfo$??1CGdiObject@@UAE@XZ
  00036	e9 00 00 00 00	 jmp	 ___CxxFrameHandler3
text$x	ENDS
??1CGdiObject@@UAE@XZ ENDP				; CGdiObject::~CGdiObject
; Function compile flags: /Ogtp
; File C:\Program Files (x86)\Microsoft Visual Studio\2019\Community\VC\Tools\MSVC\14.29.30133\atlmfc\include\afx.inl
;	COMDAT ?Dump@CObject@@UBEXAAVCDumpContext@@@Z
_TEXT	SEGMENT
___formal$ = 8						; size = 4
?Dump@CObject@@UBEXAAVCDumpContext@@@Z PROC		; CObject::Dump, COMDAT
; _this$ = ecx

; 122  : 	{ /* no dumping in release builds */ }

  00000	c2 04 00	 ret	 4
?Dump@CObject@@UBEXAAVCDumpContext@@@Z ENDP		; CObject::Dump
_TEXT	ENDS
; Function compile flags: /Ogtp
; File C:\Program Files (x86)\Microsoft Visual Studio\2019\Community\VC\Tools\MSVC\14.29.30133\atlmfc\include\afx.inl
;	COMDAT ?AssertValid@CObject@@UBEXXZ
_TEXT	SEGMENT
?AssertValid@CObject@@UBEXXZ PROC			; CObject::AssertValid, COMDAT
; _this$ = ecx

; 120  : 	{ /* no asserts in release builds */ }

  00000	c2 00 00	 ret	 0
?AssertValid@CObject@@UBEXXZ ENDP			; CObject::AssertValid
_TEXT	ENDS
; Function compile flags: /Ogtp
; File C:\Program Files (x86)\Microsoft Visual Studio\2019\Community\VC\Tools\MSVC\14.29.30133\atlmfc\include\afx.inl
;	COMDAT ?Serialize@CObject@@UAEXAAVCArchive@@@Z
_TEXT	SEGMENT
___formal$ = 8						; size = 4
?Serialize@CObject@@UAEXAAVCArchive@@@Z PROC		; CObject::Serialize, COMDAT
; _this$ = ecx

; 106  : 	{ /* CObject does not serialize anything by default */ }

  00000	c2 04 00	 ret	 4
?Serialize@CObject@@UAEXAAVCArchive@@@Z ENDP		; CObject::Serialize
_TEXT	ENDS
; Function compile flags: /Ogtp
; File C:\Program Files (x86)\Microsoft Visual Studio\2019\Community\VC\Tools\MSVC\14.29.30133\atlmfc\include\afx.inl
;	COMDAT ??1CObject@@UAE@XZ
_TEXT	SEGMENT
??1CObject@@UAE@XZ PROC					; CObject::~CObject, COMDAT
; _this$ = ecx

; 104  : 	{ }

  00000	c2 00 00	 ret	 0
??1CObject@@UAE@XZ ENDP					; CObject::~CObject
_TEXT	ENDS
; Function compile flags: /Ogtp
; File D:\git\src\IBK\IBK_DRFN\ProjSrc\SrcDrfn\Chart\comparechart\include\MsgWnd.cpp
;	COMDAT ?__empty_global_delete@@YAXPAXI@Z
_TEXT	SEGMENT
___formal$ = 8						; size = 4
___formal$ = 12						; size = 4
?__empty_global_delete@@YAXPAXI@Z PROC			; __empty_global_delete, COMDAT

  00000	c2 00 00	 ret	 0
?__empty_global_delete@@YAXPAXI@Z ENDP			; __empty_global_delete
_TEXT	ENDS
; Function compile flags: /Ogtp
; File D:\git\src\IBK\IBK_DRFN\ProjSrc\SrcDrfn\Chart\comparechart\include\MsgWnd.cpp
;	COMDAT ?__empty_global_delete@@YAXPAX@Z
_TEXT	SEGMENT
___formal$ = 8						; size = 4
?__empty_global_delete@@YAXPAX@Z PROC			; __empty_global_delete, COMDAT

  00000	c2 00 00	 ret	 0
?__empty_global_delete@@YAXPAX@Z ENDP			; __empty_global_delete
_TEXT	ENDS
END
