; Listing generated by Microsoft (R) Optimizing Compiler Version 19.29.30145.0 

	TITLE	D:\git\src\IBK\IBK_DRFN\#DRfn-CS\_Obj\CompareChart\NsyButtonListCtrl.obj
	.686P
	.XMM
	include listing.inc
	.model	flat

INCLUDELIB MSVCRT
INCLUDELIB OLDNAMES

PUBLIC	??_C@_0BC@LHNMEPFM@RMSG_SELCHARTCODE@		; `string'
PUBLIC	??_C@_0BB@IBKHOHJL@RMSG_REPLAY_REAL@		; `string'
PUBLIC	??_C@_0BB@JFLGBADG@RMSG_REPLAY_FAIL@		; `string'
PUBLIC	??_C@_0BI@KDGAIIMD@RMSG_REPLAY_CHANGE_DATE@	; `string'
PUBLIC	??_C@_0BA@NKHHCPON@RMSG_REPLAY_END@		; `string'
PUBLIC	??_C@_0BE@JFCIMCIP@RMSG_REPLAY_INC_SEC@		; `string'
PUBLIC	??_C@_0BG@GIAJEIJF@RMSG_REPLAY_TOTAL_SEC@	; `string'
PUBLIC	??_C@_0BE@FJPKENOB@RMSG_GETSIGNAL_REAL@		; `string'
PUBLIC	??_C@_0P@KHFCBIOH@RMSG_CHARTMAIN@		; `string'
PUBLIC	??_C@_0BC@MMPGLPDH@RMS_ANALYSIS_FUNC@		; `string'
PUBLIC	??_C@_0BA@HKNFENJL@RMSG_GET_USERID@		; `string'
PUBLIC	??_C@_0P@LFDACNFE@RMSG_KSDLLINFO@		; `string'
PUBLIC	??_C@_0N@IIOKMIEH@RMSG_GETINFO@			; `string'
PUBLIC	??_C@_0BG@CNPAHNGG@RMSG_CHANGE_SKINCOLOR@	; `string'
PUBLIC	??_C@_0BD@FLDNDDHK@RMSG_GET_SKINCOLOR@		; `string'
PUBLIC	??_C@_0BG@LNLCJKPF@RMSG_CHANGE_CROSSLINE@	; `string'
;	COMDAT ??_C@_0BG@LNLCJKPF@RMSG_CHANGE_CROSSLINE@
CONST	SEGMENT
??_C@_0BG@LNLCJKPF@RMSG_CHANGE_CROSSLINE@ DB 'RMSG_CHANGE_CROSSLINE', 00H ; `string'
CONST	ENDS
;	COMDAT ??_C@_0BD@FLDNDDHK@RMSG_GET_SKINCOLOR@
CONST	SEGMENT
??_C@_0BD@FLDNDDHK@RMSG_GET_SKINCOLOR@ DB 'RMSG_GET_SKINCOLOR', 00H ; `string'
CONST	ENDS
;	COMDAT ??_C@_0BG@CNPAHNGG@RMSG_CHANGE_SKINCOLOR@
CONST	SEGMENT
??_C@_0BG@CNPAHNGG@RMSG_CHANGE_SKINCOLOR@ DB 'RMSG_CHANGE_SKINCOLOR', 00H ; `string'
CONST	ENDS
;	COMDAT ??_C@_0N@IIOKMIEH@RMSG_GETINFO@
CONST	SEGMENT
??_C@_0N@IIOKMIEH@RMSG_GETINFO@ DB 'RMSG_GETINFO', 00H	; `string'
CONST	ENDS
;	COMDAT ??_C@_0P@LFDACNFE@RMSG_KSDLLINFO@
CONST	SEGMENT
??_C@_0P@LFDACNFE@RMSG_KSDLLINFO@ DB 'RMSG_KSDLLINFO', 00H ; `string'
CONST	ENDS
;	COMDAT ??_C@_0BA@HKNFENJL@RMSG_GET_USERID@
CONST	SEGMENT
??_C@_0BA@HKNFENJL@RMSG_GET_USERID@ DB 'RMSG_GET_USERID', 00H ; `string'
CONST	ENDS
;	COMDAT ??_C@_0BC@MMPGLPDH@RMS_ANALYSIS_FUNC@
CONST	SEGMENT
??_C@_0BC@MMPGLPDH@RMS_ANALYSIS_FUNC@ DB 'RMS_ANALYSIS_FUNC', 00H ; `string'
CONST	ENDS
;	COMDAT ??_C@_0P@KHFCBIOH@RMSG_CHARTMAIN@
CONST	SEGMENT
??_C@_0P@KHFCBIOH@RMSG_CHARTMAIN@ DB 'RMSG_CHARTMAIN', 00H ; `string'
CONST	ENDS
;	COMDAT ??_C@_0BE@FJPKENOB@RMSG_GETSIGNAL_REAL@
CONST	SEGMENT
??_C@_0BE@FJPKENOB@RMSG_GETSIGNAL_REAL@ DB 'RMSG_GETSIGNAL_REAL', 00H ; `string'
CONST	ENDS
;	COMDAT ??_C@_0BG@GIAJEIJF@RMSG_REPLAY_TOTAL_SEC@
CONST	SEGMENT
??_C@_0BG@GIAJEIJF@RMSG_REPLAY_TOTAL_SEC@ DB 'RMSG_REPLAY_TOTAL_SEC', 00H ; `string'
CONST	ENDS
;	COMDAT ??_C@_0BE@JFCIMCIP@RMSG_REPLAY_INC_SEC@
CONST	SEGMENT
??_C@_0BE@JFCIMCIP@RMSG_REPLAY_INC_SEC@ DB 'RMSG_REPLAY_INC_SEC', 00H ; `string'
CONST	ENDS
;	COMDAT ??_C@_0BA@NKHHCPON@RMSG_REPLAY_END@
CONST	SEGMENT
??_C@_0BA@NKHHCPON@RMSG_REPLAY_END@ DB 'RMSG_REPLAY_END', 00H ; `string'
CONST	ENDS
;	COMDAT ??_C@_0BI@KDGAIIMD@RMSG_REPLAY_CHANGE_DATE@
CONST	SEGMENT
??_C@_0BI@KDGAIIMD@RMSG_REPLAY_CHANGE_DATE@ DB 'RMSG_REPLAY_CHANGE_DATE', 00H ; `string'
CONST	ENDS
;	COMDAT ??_C@_0BB@JFLGBADG@RMSG_REPLAY_FAIL@
CONST	SEGMENT
??_C@_0BB@JFLGBADG@RMSG_REPLAY_FAIL@ DB 'RMSG_REPLAY_FAIL', 00H ; `string'
CONST	ENDS
;	COMDAT ??_C@_0BB@IBKHOHJL@RMSG_REPLAY_REAL@
CONST	SEGMENT
??_C@_0BB@IBKHOHJL@RMSG_REPLAY_REAL@ DB 'RMSG_REPLAY_REAL', 00H ; `string'
CONST	ENDS
;	COMDAT ??_C@_0BC@LHNMEPFM@RMSG_SELCHARTCODE@
CONST	SEGMENT
??_C@_0BC@LHNMEPFM@RMSG_SELCHARTCODE@ DB 'RMSG_SELCHARTCODE', 00H ; `string'
CONST	ENDS
PUBLIC	?__empty_global_delete@@YAXPAX@Z		; __empty_global_delete
PUBLIC	?__empty_global_delete@@YAXPAXI@Z		; __empty_global_delete
PUBLIC	??1CObject@@UAE@XZ				; CObject::~CObject
PUBLIC	?Serialize@CObject@@UAEXAAVCArchive@@@Z		; CObject::Serialize
PUBLIC	?AssertValid@CObject@@UBEXXZ			; CObject::AssertValid
PUBLIC	?Dump@CObject@@UBEXAAVCDumpContext@@@Z		; CObject::Dump
PUBLIC	??1CGdiObject@@UAE@XZ				; CGdiObject::~CGdiObject
PUBLIC	??_GCGdiObject@@UAEPAXI@Z			; CGdiObject::`scalar deleting destructor'
PUBLIC	??1CFont@@UAE@XZ				; CFont::~CFont
PUBLIC	??_GCFont@@UAEPAXI@Z				; CFont::`scalar deleting destructor'
PUBLIC	?DoDataExchange@CWnd@@MAEXPAVCDataExchange@@@Z	; CWnd::DoDataExchange
PUBLIC	?BeginModalState@CWnd@@UAEXXZ			; CWnd::BeginModalState
PUBLIC	?EndModalState@CWnd@@UAEXXZ			; CWnd::EndModalState
PUBLIC	??0CNsyButtonListCtrl@@QAE@XZ			; CNsyButtonListCtrl::CNsyButtonListCtrl
PUBLIC	?DeleteChartData@CNsyButtonListCtrl@@QAEXH@Z	; CNsyButtonListCtrl::DeleteChartData
PUBLIC	?SendToChartRemoveGraph@CNsyButtonListCtrl@@QAEXH@Z ; CNsyButtonListCtrl::SendToChartRemoveGraph
PUBLIC	?ClearArrayBtnWnd@CNsyButtonListCtrl@@QAEXXZ	; CNsyButtonListCtrl::ClearArrayBtnWnd
PUBLIC	?Init_CompareChart@CNsyButtonListCtrl@@QAEXXZ	; CNsyButtonListCtrl::Init_CompareChart
PUBLIC	?DeleteOneItem@CNsyButtonListCtrl@@QAEXXZ	; CNsyButtonListCtrl::DeleteOneItem
PUBLIC	?DeleteSelectItem@CNsyButtonListCtrl@@QAEXH@Z	; CNsyButtonListCtrl::DeleteSelectItem
PUBLIC	?RemoveOnlyList@CNsyButtonListCtrl@@QAEXH@Z	; CNsyButtonListCtrl::RemoveOnlyList
PUBLIC	?Init@CNsyButtonListCtrl@@QAEXXZ		; CNsyButtonListCtrl::Init
PUBLIC	?SetItemButton@CNsyButtonListCtrl@@QAEXHV?$CStringT@DV?$StrTraitMFC_DLL@DV?$ChTraitsCRT@D@ATL@@@@@ATL@@H@Z ; CNsyButtonListCtrl::SetItemButton
PUBLIC	??1CNsyButtonListCtrl@@UAE@XZ			; CNsyButtonListCtrl::~CNsyButtonListCtrl
PUBLIC	?SetItemButtonVisible@CNsyButtonListCtrl@@QAEXHH@Z ; CNsyButtonListCtrl::SetItemButtonVisible
PUBLIC	?OnSize@CNsyButtonListCtrl@@IAEXIHH@Z		; CNsyButtonListCtrl::OnSize
PUBLIC	?OnDestroy@CNsyButtonListCtrl@@IAEXXZ		; CNsyButtonListCtrl::OnDestroy
PUBLIC	?WindowProc@CNsyButtonListCtrl@@MAEJIIJ@Z	; CNsyButtonListCtrl::WindowProc
PUBLIC	?GetThisMessageMap@CNsyButtonListCtrl@@KGPBUAFX_MSGMAP@@XZ ; CNsyButtonListCtrl::GetThisMessageMap
PUBLIC	?GetMessageMap@CNsyButtonListCtrl@@MBEPBUAFX_MSGMAP@@XZ ; CNsyButtonListCtrl::GetMessageMap
PUBLIC	??_GCNsyButtonListCtrl@@UAEPAXI@Z		; CNsyButtonListCtrl::`scalar deleting destructor'
PUBLIC	??_R0PAVCException@@@8				; CException * `RTTI Type Descriptor'
PUBLIC	??_C@_00CNPNBAHC@@				; `string'
PUBLIC	??_7CGdiObject@@6B@				; CGdiObject::`vftable'
PUBLIC	??_7CFont@@6B@					; CFont::`vftable'
PUBLIC	??_C@_0HD@JJCHHHNK@C?3?2Program?5Files?5?$CIx86?$CJ?2Microsof@ ; `string'
PUBLIC	??_C@_0BP@OIEOKIDM@Exception?5thrown?5in?5destructor@ ; `string'
PUBLIC	??_C@_0BB@HBOOMJBF@?$CFTs?5?$CI?$CFTs?3?$CFd?$CJ?6?$CFTs@ ; `string'
PUBLIC	??_C@_0N@OMEMOKLE@?$CFTs?5?$CI?$CFTs?3?$CFd?$CJ@ ; `string'
PUBLIC	??_R0?AVCObject@@@8				; CObject `RTTI Type Descriptor'
PUBLIC	??_R3CObject@@8					; CObject::`RTTI Class Hierarchy Descriptor'
PUBLIC	??_R2CObject@@8					; CObject::`RTTI Base Class Array'
PUBLIC	??_R1A@?0A@EA@CObject@@8			; CObject::`RTTI Base Class Descriptor at (0,-1,0,64)'
PUBLIC	??_R4CGdiObject@@6B@				; CGdiObject::`RTTI Complete Object Locator'
PUBLIC	??_R0?AVCGdiObject@@@8				; CGdiObject `RTTI Type Descriptor'
PUBLIC	??_R3CGdiObject@@8				; CGdiObject::`RTTI Class Hierarchy Descriptor'
PUBLIC	??_R2CGdiObject@@8				; CGdiObject::`RTTI Base Class Array'
PUBLIC	??_R1A@?0A@EA@CGdiObject@@8			; CGdiObject::`RTTI Base Class Descriptor at (0,-1,0,64)'
PUBLIC	??_R4CFont@@6B@					; CFont::`RTTI Complete Object Locator'
PUBLIC	??_R0?AVCFont@@@8				; CFont `RTTI Type Descriptor'
PUBLIC	??_R3CFont@@8					; CFont::`RTTI Class Hierarchy Descriptor'
PUBLIC	??_R2CFont@@8					; CFont::`RTTI Base Class Array'
PUBLIC	??_R1A@?0A@EA@CFont@@8				; CFont::`RTTI Base Class Descriptor at (0,-1,0,64)'
PUBLIC	??_R1A@?0A@EA@CWnd@@8				; CWnd::`RTTI Base Class Descriptor at (0,-1,0,64)'
PUBLIC	??_R0?AVCWnd@@@8				; CWnd `RTTI Type Descriptor'
PUBLIC	??_R3CWnd@@8					; CWnd::`RTTI Class Hierarchy Descriptor'
PUBLIC	??_R2CWnd@@8					; CWnd::`RTTI Base Class Array'
PUBLIC	??_R1A@?0A@EA@CCmdTarget@@8			; CCmdTarget::`RTTI Base Class Descriptor at (0,-1,0,64)'
PUBLIC	??_R0?AVCCmdTarget@@@8				; CCmdTarget `RTTI Type Descriptor'
PUBLIC	??_R3CCmdTarget@@8				; CCmdTarget::`RTTI Class Hierarchy Descriptor'
PUBLIC	??_R2CCmdTarget@@8				; CCmdTarget::`RTTI Base Class Array'
PUBLIC	??_R0?AVCListCtrl@@@8				; CListCtrl `RTTI Type Descriptor'
PUBLIC	??_R3CListCtrl@@8				; CListCtrl::`RTTI Class Hierarchy Descriptor'
PUBLIC	??_R2CListCtrl@@8				; CListCtrl::`RTTI Base Class Array'
PUBLIC	??_R1A@?0A@EA@CListCtrl@@8			; CListCtrl::`RTTI Base Class Descriptor at (0,-1,0,64)'
PUBLIC	??_7CNsyButtonListCtrl@@6B@			; CNsyButtonListCtrl::`vftable'
PUBLIC	??_C@_04FOGALLPG@?$LB?$LM?$LI?$LC@		; `string'
PUBLIC	??_C@_0BA@LMIEAEHI@?2del_btn_up?4bmp@		; `string'
PUBLIC	??_C@_0BC@LFFHAOMB@?2del_btn_down?4bmp@		; `string'
PUBLIC	??_C@_0BA@HOPMFNH@?2btn_select?4bmp@		; `string'
PUBLIC	??_C@_06BGMJNGKF@?A?$LO?$LI?q?$LI?m@		; `string'
PUBLIC	??_C@_04CKNILEAC@?$LO?K?$LI?$LC@		; `string'
PUBLIC	??_C@_0BM@DDPBINJL@?$LL?h?A?$KG?G?R?5?G?W?$LI?q?$MA?$LL?5?$LM?$LB?E?C?G?O?$LN?J?$LN?C?$LP?$MA?4@ ; `string'
PUBLIC	??_C@_01CLKCMJKC@?5@				; `string'
PUBLIC	??_C@_01IHBHIGKO@?0@				; `string'
PUBLIC	??_R4CNsyButtonListCtrl@@6B@			; CNsyButtonListCtrl::`RTTI Complete Object Locator'
PUBLIC	??_R0?AVCNsyButtonListCtrl@@@8			; CNsyButtonListCtrl `RTTI Type Descriptor'
PUBLIC	??_R3CNsyButtonListCtrl@@8			; CNsyButtonListCtrl::`RTTI Class Hierarchy Descriptor'
PUBLIC	??_R2CNsyButtonListCtrl@@8			; CNsyButtonListCtrl::`RTTI Base Class Array'
PUBLIC	??_R1A@?0A@EA@CNsyButtonListCtrl@@8		; CNsyButtonListCtrl::`RTTI Base Class Descriptor at (0,-1,0,64)'
PUBLIC	??_R1A@?0A@EA@CXListCtrl@@8			; CXListCtrl::`RTTI Base Class Descriptor at (0,-1,0,64)'
PUBLIC	??_R0?AVCXListCtrl@@@8				; CXListCtrl `RTTI Type Descriptor'
PUBLIC	??_R3CXListCtrl@@8				; CXListCtrl::`RTTI Class Hierarchy Descriptor'
PUBLIC	??_R2CXListCtrl@@8				; CXListCtrl::`RTTI Base Class Array'
EXTRN	??2@YAPAXI@Z:PROC				; operator new
EXTRN	??3@YAXPAX@Z:PROC				; operator delete
EXTRN	??3@YAXPAXI@Z:PROC				; operator delete
EXTRN	?__global_delete@@YAXPAXI@Z:PROC		; __global_delete
EXTRN	__imp__RegisterWindowMessageA@4:PROC
EXTRN	__imp__SendMessageA@16:PROC
EXTRN	__imp__EnableWindow@8:PROC
EXTRN	__imp__InvalidateRect@12:PROC
EXTRN	__imp__GetWindowRect@8:PROC
EXTRN	__imp__GetParent@4:PROC
EXTRN	?AfxThrowInvalidArgException@@YGXXZ:PROC	; AfxThrowInvalidArgException
EXTRN	__imp_?Concatenate@?$CSimpleStringT@D$00@ATL@@KAXAAV12@PBDH1H@Z:PROC
EXTRN	__imp_??0?$CStringT@DV?$StrTraitMFC_DLL@DV?$ChTraitsCRT@D@ATL@@@@@ATL@@QAE@XZ:PROC
EXTRN	__imp_??0?$CStringT@DV?$StrTraitMFC_DLL@DV?$ChTraitsCRT@D@ATL@@@@@ATL@@QAE@PAUIAtlStringMgr@1@@Z:PROC
EXTRN	__imp_??0?$CStringT@DV?$StrTraitMFC_DLL@DV?$ChTraitsCRT@D@ATL@@@@@ATL@@QAE@ABV01@@Z:PROC
EXTRN	__imp_??0?$CStringT@DV?$StrTraitMFC_DLL@DV?$ChTraitsCRT@D@ATL@@@@@ATL@@QAE@PBD@Z:PROC
EXTRN	__imp_??1?$CStringT@DV?$StrTraitMFC_DLL@DV?$ChTraitsCRT@D@ATL@@@@@ATL@@QAE@XZ:PROC
EXTRN	__imp_??4?$CStringT@DV?$StrTraitMFC_DLL@DV?$ChTraitsCRT@D@ATL@@@@@ATL@@QAEAAV01@ABV01@@Z:PROC
EXTRN	__imp_??4?$CStringT@DV?$StrTraitMFC_DLL@DV?$ChTraitsCRT@D@ATL@@@@@ATL@@QAEAAV01@PBD@Z:PROC
EXTRN	__imp_?GetManager@?$CStringT@DV?$StrTraitMFC_DLL@DV?$ChTraitsCRT@D@ATL@@@@@ATL@@QBEPAUIAtlStringMgr@2@XZ:PROC
EXTRN	__imp_?Replace@?$CStringT@DV?$StrTraitMFC_DLL@DV?$ChTraitsCRT@D@ATL@@@@@ATL@@QAEHPBD0@Z:PROC
EXTRN	__imp_?TrimRight@?$CStringT@DV?$StrTraitMFC_DLL@DV?$ChTraitsCRT@D@ATL@@@@@ATL@@QAEAAV12@XZ:PROC
EXTRN	__imp_?TrimLeft@?$CStringT@DV?$StrTraitMFC_DLL@DV?$ChTraitsCRT@D@ATL@@@@@ATL@@QAEAAV12@XZ:PROC
EXTRN	__imp_?Format@?$CStringT@DV?$StrTraitMFC_DLL@DV?$ChTraitsCRT@D@ATL@@@@@ATL@@QAAXPBDZZ:PROC
EXTRN	??0CPtrArray@@QAE@XZ:PROC			; CPtrArray::CPtrArray
EXTRN	?SetSize@CPtrArray@@QAEXHH@Z:PROC		; CPtrArray::SetSize
EXTRN	?SetAtGrow@CPtrArray@@QAEXHPAX@Z:PROC		; CPtrArray::SetAtGrow
EXTRN	?RemoveAt@CPtrArray@@QAEXHH@Z:PROC		; CPtrArray::RemoveAt
EXTRN	??1CPtrArray@@UAE@XZ:PROC			; CPtrArray::~CPtrArray
EXTRN	?GetRuntimeClass@CGdiObject@@UBEPAUCRuntimeClass@@XZ:PROC ; CGdiObject::GetRuntimeClass
EXTRN	?FromHandle@CGdiObject@@SGPAV1@PAX@Z:PROC	; CGdiObject::FromHandle
EXTRN	?DeleteObject@CGdiObject@@QAEHXZ:PROC		; CGdiObject::DeleteObject
EXTRN	??_ECGdiObject@@UAEPAXI@Z:PROC			; CGdiObject::`vector deleting destructor'
EXTRN	?GetRuntimeClass@CFont@@UBEPAUCRuntimeClass@@XZ:PROC ; CFont::GetRuntimeClass
EXTRN	?CreatePointFont@CFont@@QAEHHPBDPAVCDC@@@Z:PROC	; CFont::CreatePointFont
EXTRN	??_ECFont@@UAEPAXI@Z:PROC			; CFont::`vector deleting destructor'
EXTRN	??0CImageList@@QAE@XZ:PROC			; CImageList::CImageList
EXTRN	?Create@CImageList@@QAEHHHIHH@Z:PROC		; CImageList::Create
EXTRN	?FromHandle@CImageList@@SGPAV1@PAU_IMAGELIST@@@Z:PROC ; CImageList::FromHandle
EXTRN	??1CImageList@@UAE@XZ:PROC			; CImageList::~CImageList
EXTRN	?OnCmdMsg@CCmdTarget@@UAEHIHPAXPAUAFX_CMDHANDLERINFO@@@Z:PROC ; CCmdTarget::OnCmdMsg
EXTRN	?IsInvokeAllowed@CCmdTarget@@UAEHJ@Z:PROC	; CCmdTarget::IsInvokeAllowed
EXTRN	?GetDispatchIID@CCmdTarget@@UAEHPAU_GUID@@@Z:PROC ; CCmdTarget::GetDispatchIID
EXTRN	?GetTypeInfoCount@CCmdTarget@@UAEIXZ:PROC	; CCmdTarget::GetTypeInfoCount
EXTRN	?GetTypeLibCache@CCmdTarget@@UAEPAVCTypeLibCache@@XZ:PROC ; CCmdTarget::GetTypeLibCache
EXTRN	?GetTypeLib@CCmdTarget@@UAEJKPAPAUITypeLib@@@Z:PROC ; CCmdTarget::GetTypeLib
EXTRN	?GetCommandMap@CCmdTarget@@MBEPBUAFX_OLECMDMAP@@XZ:PROC ; CCmdTarget::GetCommandMap
EXTRN	?GetDispatchMap@CCmdTarget@@MBEPBUAFX_DISPMAP@@XZ:PROC ; CCmdTarget::GetDispatchMap
EXTRN	?GetConnectionMap@CCmdTarget@@MBEPBUAFX_CONNECTIONMAP@@XZ:PROC ; CCmdTarget::GetConnectionMap
EXTRN	?GetEventSinkMap@CCmdTarget@@MBEPBUAFX_EVENTSINKMAP@@XZ:PROC ; CCmdTarget::GetEventSinkMap
EXTRN	?OnCreateAggregates@CCmdTarget@@UAEHXZ:PROC	; CCmdTarget::OnCreateAggregates
EXTRN	?GetInterfaceHook@CCmdTarget@@UAEPAUIUnknown@@PBX@Z:PROC ; CCmdTarget::GetInterfaceHook
EXTRN	?GetExtraConnectionPoints@CCmdTarget@@MAEHPAVCPtrArray@@@Z:PROC ; CCmdTarget::GetExtraConnectionPoints
EXTRN	?GetConnectionHook@CCmdTarget@@MAEPAUIConnectionPoint@@ABU_GUID@@@Z:PROC ; CCmdTarget::GetConnectionHook
EXTRN	?FromHandle@CWnd@@SGPAV1@PAUHWND__@@@Z:PROC	; CWnd::FromHandle
EXTRN	?Create@CWnd@@UAEHPBD0KABUtagRECT@@PAV1@IPAUCCreateContext@@@Z:PROC ; CWnd::Create
EXTRN	?CreateEx@CWnd@@UAEHKPBD0KHHHHPAUHWND__@@PAUHMENU__@@PAX@Z:PROC ; CWnd::CreateEx
EXTRN	?CreateEx@CWnd@@UAEHKPBD0KABUtagRECT@@PAV1@IPAX@Z:PROC ; CWnd::CreateEx
EXTRN	?DestroyWindow@CWnd@@UAEHXZ:PROC		; CWnd::DestroyWindow
EXTRN	?PreCreateWindow@CWnd@@UAEHAAUtagCREATESTRUCTA@@@Z:PROC ; CWnd::PreCreateWindow
EXTRN	?CalcWindowRect@CWnd@@UAEXPAUtagRECT@@I@Z:PROC	; CWnd::CalcWindowRect
EXTRN	?GetMenu@CWnd@@UBEPAVCMenu@@XZ:PROC		; CWnd::GetMenu
EXTRN	?SetMenu@CWnd@@UAEHPAVCMenu@@@Z:PROC		; CWnd::SetMenu
EXTRN	?MoveWindow@CWnd@@QAEXHHHHH@Z:PROC		; CWnd::MoveWindow
EXTRN	?ShowWindow@CWnd@@QAEHH@Z:PROC			; CWnd::ShowWindow
EXTRN	?EnableWindow@CWnd@@QAEHH@Z:PROC		; CWnd::EnableWindow
EXTRN	?GetScrollBarCtrl@CWnd@@UBEPAVCScrollBar@@H@Z:PROC ; CWnd::GetScrollBarCtrl
EXTRN	?MessageBoxA@CWnd@@QAEHPBD0I@Z:PROC		; CWnd::MessageBoxA
EXTRN	?WinHelpA@CWnd@@UAEXKI@Z:PROC			; CWnd::WinHelpA
EXTRN	?HtmlHelpA@CWnd@@UAEXKI@Z:PROC			; CWnd::HtmlHelpA
EXTRN	?WinHelpInternal@CWnd@@UAEXKI@Z:PROC		; CWnd::WinHelpInternal
EXTRN	?ContinueModal@CWnd@@UAEHXZ:PROC		; CWnd::ContinueModal
EXTRN	?EndModalLoop@CWnd@@UAEXH@Z:PROC		; CWnd::EndModalLoop
EXTRN	?OnDrawIconicThumbnailOrLivePreview@CWnd@@UAEXAAVCDC@@VCRect@@VCSize@@HAAH@Z:PROC ; CWnd::OnDrawIconicThumbnailOrLivePreview
EXTRN	?GetInterfaceMap@CWnd@@MBEPBUAFX_INTERFACEMAP@@XZ:PROC ; CWnd::GetInterfaceMap
EXTRN	?EnsureStdObj@CWnd@@UAEJXZ:PROC			; CWnd::EnsureStdObj
EXTRN	?get_accParent@CWnd@@UAEJPAPAUIDispatch@@@Z:PROC ; CWnd::get_accParent
EXTRN	?get_accChildCount@CWnd@@UAEJPAJ@Z:PROC		; CWnd::get_accChildCount
EXTRN	?get_accChild@CWnd@@UAEJUtagVARIANT@@PAPAUIDispatch@@@Z:PROC ; CWnd::get_accChild
EXTRN	?get_accName@CWnd@@UAEJUtagVARIANT@@PAPA_W@Z:PROC ; CWnd::get_accName
EXTRN	?get_accValue@CWnd@@UAEJUtagVARIANT@@PAPA_W@Z:PROC ; CWnd::get_accValue
EXTRN	?get_accDescription@CWnd@@UAEJUtagVARIANT@@PAPA_W@Z:PROC ; CWnd::get_accDescription
EXTRN	?get_accRole@CWnd@@UAEJUtagVARIANT@@PAU2@@Z:PROC ; CWnd::get_accRole
EXTRN	?get_accState@CWnd@@UAEJUtagVARIANT@@PAU2@@Z:PROC ; CWnd::get_accState
EXTRN	?get_accHelp@CWnd@@UAEJUtagVARIANT@@PAPA_W@Z:PROC ; CWnd::get_accHelp
EXTRN	?get_accHelpTopic@CWnd@@UAEJPAPA_WUtagVARIANT@@PAJ@Z:PROC ; CWnd::get_accHelpTopic
EXTRN	?get_accKeyboardShortcut@CWnd@@UAEJUtagVARIANT@@PAPA_W@Z:PROC ; CWnd::get_accKeyboardShortcut
EXTRN	?get_accFocus@CWnd@@UAEJPAUtagVARIANT@@@Z:PROC	; CWnd::get_accFocus
EXTRN	?get_accSelection@CWnd@@UAEJPAUtagVARIANT@@@Z:PROC ; CWnd::get_accSelection
EXTRN	?get_accDefaultAction@CWnd@@UAEJUtagVARIANT@@PAPA_W@Z:PROC ; CWnd::get_accDefaultAction
EXTRN	?accSelect@CWnd@@UAEJJUtagVARIANT@@@Z:PROC	; CWnd::accSelect
EXTRN	?accLocation@CWnd@@UAEJPAJ000UtagVARIANT@@@Z:PROC ; CWnd::accLocation
EXTRN	?accNavigate@CWnd@@UAEJJUtagVARIANT@@PAU2@@Z:PROC ; CWnd::accNavigate
EXTRN	?accHitTest@CWnd@@UAEJJJPAUtagVARIANT@@@Z:PROC	; CWnd::accHitTest
EXTRN	?accDoDefaultAction@CWnd@@UAEJUtagVARIANT@@@Z:PROC ; CWnd::accDoDefaultAction
EXTRN	?put_accName@CWnd@@UAEJUtagVARIANT@@PA_W@Z:PROC	; CWnd::put_accName
EXTRN	?put_accValue@CWnd@@UAEJUtagVARIANT@@PA_W@Z:PROC ; CWnd::put_accValue
EXTRN	?SetProxy@CWnd@@UAEJPAUIAccessibleProxy@@@Z:PROC ; CWnd::SetProxy
EXTRN	?CreateAccessibleProxy@CWnd@@UAEJIJPAJ@Z:PROC	; CWnd::CreateAccessibleProxy
EXTRN	?OnCommand@CWnd@@MAEHIJ@Z:PROC			; CWnd::OnCommand
EXTRN	?OnNotify@CWnd@@MAEHIJPAJ@Z:PROC		; CWnd::OnNotify
EXTRN	?OnDestroy@CWnd@@IAEXXZ:PROC			; CWnd::OnDestroy
EXTRN	?GetSuperWndProcAddr@CWnd@@MAEPAP6GJPAUHWND__@@IIJ@ZXZ:PROC ; CWnd::GetSuperWndProcAddr
EXTRN	?PreTranslateMessage@CWnd@@UAEHPAUtagMSG@@@Z:PROC ; CWnd::PreTranslateMessage
EXTRN	?OnAmbientProperty@CWnd@@UAEHPAVCOleControlSite@@JPAUtagVARIANT@@@Z:PROC ; CWnd::OnAmbientProperty
EXTRN	?WindowProc@CWnd@@MAEJIIJ@Z:PROC		; CWnd::WindowProc
EXTRN	?OnWndMsg@CWnd@@MAEHIIJPAJ@Z:PROC		; CWnd::OnWndMsg
EXTRN	?Default@CWnd@@IAEJXZ:PROC			; CWnd::Default
EXTRN	?DefWindowProcA@CWnd@@MAEJIIJ@Z:PROC		; CWnd::DefWindowProcA
EXTRN	?PostNcDestroy@CWnd@@MAEXXZ:PROC		; CWnd::PostNcDestroy
EXTRN	?OnTouchInputs@CWnd@@MAEHIPAUtagTOUCHINPUT@@@Z:PROC ; CWnd::OnTouchInputs
EXTRN	?OnTouchInput@CWnd@@MAEHVCPoint@@HHPAUtagTOUCHINPUT@@@Z:PROC ; CWnd::OnTouchInput
EXTRN	?GetGestureStatus@CWnd@@MAEKVCPoint@@@Z:PROC	; CWnd::GetGestureStatus
EXTRN	?OnGestureZoom@CWnd@@MAEHVCPoint@@J@Z:PROC	; CWnd::OnGestureZoom
EXTRN	?OnGesturePan@CWnd@@MAEHVCPoint@@0@Z:PROC	; CWnd::OnGesturePan
EXTRN	?OnGestureRotate@CWnd@@MAEHVCPoint@@N@Z:PROC	; CWnd::OnGestureRotate
EXTRN	?OnGestureTwoFingerTap@CWnd@@MAEHVCPoint@@@Z:PROC ; CWnd::OnGestureTwoFingerTap
EXTRN	?OnGesturePressAndTap@CWnd@@MAEHVCPoint@@J@Z:PROC ; CWnd::OnGesturePressAndTap
EXTRN	?ResizeDynamicLayout@CWnd@@MAEXXZ:PROC		; CWnd::ResizeDynamicLayout
EXTRN	?CheckAutoCenter@CWnd@@UAEHXZ:PROC		; CWnd::CheckAutoCenter
EXTRN	?IsFrameWnd@CWnd@@UBEHXZ:PROC			; CWnd::IsFrameWnd
EXTRN	?OnFinalRelease@CWnd@@UAEXXZ:PROC		; CWnd::OnFinalRelease
EXTRN	?CreateControlContainer@CWnd@@MAEHPAPAVCOleControlContainer@@@Z:PROC ; CWnd::CreateControlContainer
EXTRN	?CreateControlSite@CWnd@@MAEHPAVCOleControlContainer@@PAPAVCOleControlSite@@IABU_GUID@@@Z:PROC ; CWnd::CreateControlSite
EXTRN	?SetOccDialogInfo@CWnd@@MAEHPAU_AFX_OCC_DIALOG_INFO@@@Z:PROC ; CWnd::SetOccDialogInfo
EXTRN	?GetOccDialogInfo@CWnd@@MAEPAU_AFX_OCC_DIALOG_INFO@@XZ:PROC ; CWnd::GetOccDialogInfo
EXTRN	?AfxMessageBox@@YGHPBDII@Z:PROC			; AfxMessageBox
EXTRN	?GetRuntimeClass@CListCtrl@@UBEPAUCRuntimeClass@@XZ:PROC ; CListCtrl::GetRuntimeClass
EXTRN	?GetItemText@CListCtrl@@QBE?AV?$CStringT@DV?$StrTraitMFC_DLL@DV?$ChTraitsCRT@D@ATL@@@@@ATL@@HH@Z:PROC ; CListCtrl::GetItemText
EXTRN	?GetHeaderCtrl@CListCtrl@@QBEPAVCHeaderCtrl@@XZ:PROC ; CListCtrl::GetHeaderCtrl
EXTRN	?DrawItem@CListCtrl@@UAEXPAUtagDRAWITEMSTRUCT@@@Z:PROC ; CListCtrl::DrawItem
EXTRN	?OnChildNotify@CListCtrl@@MAEHIIJPAJ@Z:PROC	; CListCtrl::OnChildNotify
EXTRN	??0CxSkinButton@@QAE@XZ:PROC			; CxSkinButton::CxSkinButton
EXTRN	?SetSkin@CxSkinButton@@QAEXV?$CStringT@DV?$StrTraitMFC_DLL@DV?$ChTraitsCRT@D@ATL@@@@@ATL@@00000FFF@Z:PROC ; CxSkinButton::SetSkin
EXTRN	??1CxSkinButton@@UAE@XZ:PROC			; CxSkinButton::~CxSkinButton
EXTRN	??0CXListCtrl@@QAE@XZ:PROC			; CXListCtrl::CXListCtrl
EXTRN	??1CXListCtrl@@UAE@XZ:PROC			; CXListCtrl::~CXListCtrl
EXTRN	?DeleteAllItems@CXListCtrl@@QAEHXZ:PROC		; CXListCtrl::DeleteAllItems
EXTRN	?DeleteItem@CXListCtrl@@QAEHH@Z:PROC		; CXListCtrl::DeleteItem
EXTRN	?GetSubItemRect@CXListCtrl@@QAEHHHHAAVCRect@@@Z:PROC ; CXListCtrl::GetSubItemRect
EXTRN	?OnToolHitTest@CXListCtrl@@UBEHVCPoint@@PAUtagTOOLINFOA@@@Z:PROC ; CXListCtrl::OnToolHitTest
EXTRN	?PreSubclassWindow@CXListCtrl@@UAEXXZ:PROC	; CXListCtrl::PreSubclassWindow
EXTRN	?GetDrawColors@CXListCtrl@@MAEXHHAAK0@Z:PROC	; CXListCtrl::GetDrawColors
EXTRN	?OnToolTipText@CXListCtrl@@MAEHIPAUtagNMHDR@@PAJ@Z:PROC ; CXListCtrl::OnToolTipText
EXTRN	?GetThisMessageMap@CXListCtrl@@KGPBUAFX_MSGMAP@@XZ:PROC ; CXListCtrl::GetThisMessageMap
EXTRN	??_ECNsyButtonListCtrl@@UAEPAXI@Z:PROC		; CNsyButtonListCtrl::`vector deleting destructor'
EXTRN	?RemoveGraph@CStdDialog@@QAEHHHV?$CStringT@DV?$StrTraitMFC_DLL@DV?$ChTraitsCRT@D@ATL@@@@@ATL@@0@Z:PROC ; CStdDialog::RemoveGraph
EXTRN	@__security_check_cookie@4:PROC
EXTRN	___CxxFrameHandler3:PROC
EXTRN	??_7type_info@@6B@:QWORD			; type_info::`vftable'
EXTRN	___security_cookie:DWORD
_BSS	SEGMENT
?RMSG_REPLAY_REAL@@3IB DD 01H DUP (?)			; RMSG_REPLAY_REAL
?RMSG_REPLAY_FAIL@@3IB DD 01H DUP (?)			; RMSG_REPLAY_FAIL
?RMSG_REPLAY_CHANGE_DATE@@3IB DD 01H DUP (?)		; RMSG_REPLAY_CHANGE_DATE
?RMSG_REPLAY_END@@3IB DD 01H DUP (?)			; RMSG_REPLAY_END
?RMSG_REPLAY_INC_SEC@@3IB DD 01H DUP (?)		; RMSG_REPLAY_INC_SEC
?RMSG_REPLAY_TOTAL_SEC@@3IB DD 01H DUP (?)		; RMSG_REPLAY_TOTAL_SEC
?RMSG_GETSIGNAL_REAL@@3IB DD 01H DUP (?)		; RMSG_GETSIGNAL_REAL
?RMSG_CHARTMAIN@@3IB DD 01H DUP (?)			; RMSG_CHARTMAIN
?RMS_ANALYSIS_FUNC@@3IB DD 01H DUP (?)			; RMS_ANALYSIS_FUNC
?RMSG_GET_USERID@@3IB DD 01H DUP (?)			; RMSG_GET_USERID
?RMSG_KSDLLINFO@@3IB DD 01H DUP (?)			; RMSG_KSDLLINFO
?RMSG_GETINFO@@3IB DD 01H DUP (?)			; RMSG_GETINFO
?RMSG_CHANGE_SKINCOLOR@@3IB DD 01H DUP (?)		; RMSG_CHANGE_SKINCOLOR
?RMSG_GET_SKINCOLOR@@3IB DD 01H DUP (?)			; RMSG_GET_SKINCOLOR
?RMSG_CHANGE_CROSSLINE@@3IB DD 01H DUP (?)		; RMSG_CHANGE_CROSSLINE
?RMSG_SELCHARTCODE@@3IB DD 01H DUP (?)			; RMSG_SELCHARTCODE
_BSS	ENDS
CRT$XCU	SEGMENT
?RMSG_REPLAY_REAL$initializer$@@3P6AXXZA DD FLAT:??__ERMSG_REPLAY_REAL@@YAXXZ ; RMSG_REPLAY_REAL$initializer$
CRT$XCU	ENDS
;	COMDAT ??_R2CXListCtrl@@8
rdata$r	SEGMENT
??_R2CXListCtrl@@8 DD FLAT:??_R1A@?0A@EA@CXListCtrl@@8	; CXListCtrl::`RTTI Base Class Array'
	DD	FLAT:??_R1A@?0A@EA@CListCtrl@@8
	DD	FLAT:??_R1A@?0A@EA@CWnd@@8
	DD	FLAT:??_R1A@?0A@EA@CCmdTarget@@8
	DD	FLAT:??_R1A@?0A@EA@CObject@@8
rdata$r	ENDS
;	COMDAT ??_R3CXListCtrl@@8
rdata$r	SEGMENT
??_R3CXListCtrl@@8 DD 00H				; CXListCtrl::`RTTI Class Hierarchy Descriptor'
	DD	00H
	DD	05H
	DD	FLAT:??_R2CXListCtrl@@8
rdata$r	ENDS
;	COMDAT ??_R0?AVCXListCtrl@@@8
data$rs	SEGMENT
??_R0?AVCXListCtrl@@@8 DD FLAT:??_7type_info@@6B@	; CXListCtrl `RTTI Type Descriptor'
	DD	00H
	DB	'.?AVCXListCtrl@@', 00H
data$rs	ENDS
;	COMDAT ??_R1A@?0A@EA@CXListCtrl@@8
rdata$r	SEGMENT
??_R1A@?0A@EA@CXListCtrl@@8 DD FLAT:??_R0?AVCXListCtrl@@@8 ; CXListCtrl::`RTTI Base Class Descriptor at (0,-1,0,64)'
	DD	04H
	DD	00H
	DD	0ffffffffH
	DD	00H
	DD	040H
	DD	FLAT:??_R3CXListCtrl@@8
rdata$r	ENDS
;	COMDAT ??_R1A@?0A@EA@CNsyButtonListCtrl@@8
rdata$r	SEGMENT
??_R1A@?0A@EA@CNsyButtonListCtrl@@8 DD FLAT:??_R0?AVCNsyButtonListCtrl@@@8 ; CNsyButtonListCtrl::`RTTI Base Class Descriptor at (0,-1,0,64)'
	DD	05H
	DD	00H
	DD	0ffffffffH
	DD	00H
	DD	040H
	DD	FLAT:??_R3CNsyButtonListCtrl@@8
rdata$r	ENDS
;	COMDAT ??_R2CNsyButtonListCtrl@@8
rdata$r	SEGMENT
??_R2CNsyButtonListCtrl@@8 DD FLAT:??_R1A@?0A@EA@CNsyButtonListCtrl@@8 ; CNsyButtonListCtrl::`RTTI Base Class Array'
	DD	FLAT:??_R1A@?0A@EA@CXListCtrl@@8
	DD	FLAT:??_R1A@?0A@EA@CListCtrl@@8
	DD	FLAT:??_R1A@?0A@EA@CWnd@@8
	DD	FLAT:??_R1A@?0A@EA@CCmdTarget@@8
	DD	FLAT:??_R1A@?0A@EA@CObject@@8
rdata$r	ENDS
;	COMDAT ??_R3CNsyButtonListCtrl@@8
rdata$r	SEGMENT
??_R3CNsyButtonListCtrl@@8 DD 00H			; CNsyButtonListCtrl::`RTTI Class Hierarchy Descriptor'
	DD	00H
	DD	06H
	DD	FLAT:??_R2CNsyButtonListCtrl@@8
rdata$r	ENDS
;	COMDAT ??_R0?AVCNsyButtonListCtrl@@@8
data$rs	SEGMENT
??_R0?AVCNsyButtonListCtrl@@@8 DD FLAT:??_7type_info@@6B@ ; CNsyButtonListCtrl `RTTI Type Descriptor'
	DD	00H
	DB	'.?AVCNsyButtonListCtrl@@', 00H
data$rs	ENDS
;	COMDAT ??_R4CNsyButtonListCtrl@@6B@
rdata$r	SEGMENT
??_R4CNsyButtonListCtrl@@6B@ DD 00H			; CNsyButtonListCtrl::`RTTI Complete Object Locator'
	DD	00H
	DD	00H
	DD	FLAT:??_R0?AVCNsyButtonListCtrl@@@8
	DD	FLAT:??_R3CNsyButtonListCtrl@@8
rdata$r	ENDS
;	COMDAT ??_C@_01IHBHIGKO@?0@
CONST	SEGMENT
??_C@_01IHBHIGKO@?0@ DB ',', 00H			; `string'
CONST	ENDS
;	COMDAT ??_C@_01CLKCMJKC@?5@
CONST	SEGMENT
??_C@_01CLKCMJKC@?5@ DB ' ', 00H			; `string'
CONST	ENDS
;	COMDAT ??_C@_0BM@DDPBINJL@?$LL?h?A?$KG?G?R?5?G?W?$LI?q?$MA?$LL?5?$LM?$LB?E?C?G?O?$LN?J?$LN?C?$LP?$MA?4@
CONST	SEGMENT
??_C@_0BM@DDPBINJL@?$LL?h?A?$KG?G?R?5?G?W?$LI?q?$MA?$LL?5?$LM?$LB?E?C?G?O?$LN?J?$LN?C?$LP?$MA?4@ DB 0bbH
	DB	0e8H, 0c1H, 0a6H, 0c7H, 0d2H, ' ', 0c7H, 0d7H, 0b8H, 0f1H, 0c0H
	DB	0bbH, ' ', 0bcH, 0b1H, 0c5H, 0c3H, 0c7H, 0cfH, 0bdH, 0caH, 0bdH
	DB	0c3H, 0bfH, 0c0H, '.', 00H			; `string'
CONST	ENDS
;	COMDAT ??_C@_04CKNILEAC@?$LO?K?$LI?$LC@
CONST	SEGMENT
??_C@_04CKNILEAC@?$LO?K?$LI?$LC@ DB 0beH, 0cbH, 0b8H, 0b2H, 00H ; `string'
CONST	ENDS
;	COMDAT ??_C@_06BGMJNGKF@?A?$LO?$LI?q?$LI?m@
CONST	SEGMENT
??_C@_06BGMJNGKF@?A?$LO?$LI?q?$LI?m@ DB 0c1H, 0beH, 0b8H, 0f1H, 0b8H, 0edH
	DB	00H						; `string'
CONST	ENDS
;	COMDAT ??_C@_0BA@HOPMFNH@?2btn_select?4bmp@
CONST	SEGMENT
??_C@_0BA@HOPMFNH@?2btn_select?4bmp@ DB '\btn_select.bmp', 00H ; `string'
CONST	ENDS
;	COMDAT ??_C@_0BC@LFFHAOMB@?2del_btn_down?4bmp@
CONST	SEGMENT
??_C@_0BC@LFFHAOMB@?2del_btn_down?4bmp@ DB '\del_btn_down.bmp', 00H ; `string'
CONST	ENDS
;	COMDAT ??_C@_0BA@LMIEAEHI@?2del_btn_up?4bmp@
CONST	SEGMENT
??_C@_0BA@LMIEAEHI@?2del_btn_up?4bmp@ DB '\del_btn_up.bmp', 00H ; `string'
CONST	ENDS
;	COMDAT ?messageMap@?1??GetThisMessageMap@CNsyButtonListCtrl@@KGPBUAFX_MSGMAP@@XZ@4U3@B
CONST	SEGMENT
?messageMap@?1??GetThisMessageMap@CNsyButtonListCtrl@@KGPBUAFX_MSGMAP@@XZ@4U3@B DD FLAT:?GetThisMessageMap@CXListCtrl@@KGPBUAFX_MSGMAP@@XZ ; `CNsyButtonListCtrl::GetThisMessageMap'::`2'::messageMap
	DD	FLAT:?_messageEntries@?1??GetThisMessageMap@CNsyButtonListCtrl@@KGPBUAFX_MSGMAP@@XZ@4QBUAFX_MSGMAP_ENTRY@@B
CONST	ENDS
;	COMDAT ?_messageEntries@?1??GetThisMessageMap@CNsyButtonListCtrl@@KGPBUAFX_MSGMAP@@XZ@4QBUAFX_MSGMAP_ENTRY@@B
CONST	SEGMENT
?_messageEntries@?1??GetThisMessageMap@CNsyButtonListCtrl@@KGPBUAFX_MSGMAP@@XZ@4QBUAFX_MSGMAP_ENTRY@@B DD 05H ; `CNsyButtonListCtrl::GetThisMessageMap'::`2'::_messageEntries
	DD	00H
	DD	00H
	DD	00H
	DD	01aH
	DD	FLAT:?OnSize@CNsyButtonListCtrl@@IAEXIHH@Z
	DD	02H
	DD	00H
	DD	00H
	DD	00H
	DD	013H
	DD	FLAT:?OnDestroy@CNsyButtonListCtrl@@IAEXXZ
	DD	00H
	DD	00H
	DD	00H
	DD	00H
	DD	00H
	DD	00H
CONST	ENDS
;	COMDAT ??_C@_04FOGALLPG@?$LB?$LM?$LI?$LC@
CONST	SEGMENT
??_C@_04FOGALLPG@?$LB?$LM?$LI?$LC@ DB 0b1H, 0bcH, 0b8H, 0b2H, 00H ; `string'
CONST	ENDS
;	COMDAT ??_7CNsyButtonListCtrl@@6B@
CONST	SEGMENT
??_7CNsyButtonListCtrl@@6B@ DD FLAT:??_R4CNsyButtonListCtrl@@6B@ ; CNsyButtonListCtrl::`vftable'
	DD	FLAT:?GetRuntimeClass@CListCtrl@@UBEPAUCRuntimeClass@@XZ
	DD	FLAT:??_ECNsyButtonListCtrl@@UAEPAXI@Z
	DD	FLAT:?Serialize@CObject@@UAEXAAVCArchive@@@Z
	DD	FLAT:?AssertValid@CObject@@UBEXXZ
	DD	FLAT:?Dump@CObject@@UBEXAAVCDumpContext@@@Z
	DD	FLAT:?OnCmdMsg@CCmdTarget@@UAEHIHPAXPAUAFX_CMDHANDLERINFO@@@Z
	DD	FLAT:?OnFinalRelease@CWnd@@UAEXXZ
	DD	FLAT:?IsInvokeAllowed@CCmdTarget@@UAEHJ@Z
	DD	FLAT:?GetDispatchIID@CCmdTarget@@UAEHPAU_GUID@@@Z
	DD	FLAT:?GetTypeInfoCount@CCmdTarget@@UAEIXZ
	DD	FLAT:?GetTypeLibCache@CCmdTarget@@UAEPAVCTypeLibCache@@XZ
	DD	FLAT:?GetTypeLib@CCmdTarget@@UAEJKPAPAUITypeLib@@@Z
	DD	FLAT:?GetMessageMap@CNsyButtonListCtrl@@MBEPBUAFX_MSGMAP@@XZ
	DD	FLAT:?GetCommandMap@CCmdTarget@@MBEPBUAFX_OLECMDMAP@@XZ
	DD	FLAT:?GetDispatchMap@CCmdTarget@@MBEPBUAFX_DISPMAP@@XZ
	DD	FLAT:?GetConnectionMap@CCmdTarget@@MBEPBUAFX_CONNECTIONMAP@@XZ
	DD	FLAT:?GetInterfaceMap@CWnd@@MBEPBUAFX_INTERFACEMAP@@XZ
	DD	FLAT:?GetEventSinkMap@CCmdTarget@@MBEPBUAFX_EVENTSINKMAP@@XZ
	DD	FLAT:?OnCreateAggregates@CCmdTarget@@UAEHXZ
	DD	FLAT:?GetInterfaceHook@CCmdTarget@@UAEPAUIUnknown@@PBX@Z
	DD	FLAT:?GetExtraConnectionPoints@CCmdTarget@@MAEHPAVCPtrArray@@@Z
	DD	FLAT:?GetConnectionHook@CCmdTarget@@MAEPAUIConnectionPoint@@ABU_GUID@@@Z
	DD	FLAT:?PreSubclassWindow@CXListCtrl@@UAEXXZ
	DD	FLAT:?Create@CWnd@@UAEHPBD0KABUtagRECT@@PAV1@IPAUCCreateContext@@@Z
	DD	FLAT:?CreateEx@CWnd@@UAEHKPBD0KABUtagRECT@@PAV1@IPAX@Z
	DD	FLAT:?CreateEx@CWnd@@UAEHKPBD0KHHHHPAUHWND__@@PAUHMENU__@@PAX@Z
	DD	FLAT:?DestroyWindow@CWnd@@UAEHXZ
	DD	FLAT:?PreCreateWindow@CWnd@@UAEHAAUtagCREATESTRUCTA@@@Z
	DD	FLAT:?CalcWindowRect@CWnd@@UAEXPAUtagRECT@@I@Z
	DD	FLAT:?GetMenu@CWnd@@UBEPAVCMenu@@XZ
	DD	FLAT:?SetMenu@CWnd@@UAEHPAVCMenu@@@Z
	DD	FLAT:?OnToolHitTest@CXListCtrl@@UBEHVCPoint@@PAUtagTOOLINFOA@@@Z
	DD	FLAT:?GetScrollBarCtrl@CWnd@@UBEPAVCScrollBar@@H@Z
	DD	FLAT:?WinHelpA@CWnd@@UAEXKI@Z
	DD	FLAT:?HtmlHelpA@CWnd@@UAEXKI@Z
	DD	FLAT:?WinHelpInternal@CWnd@@UAEXKI@Z
	DD	FLAT:?ContinueModal@CWnd@@UAEHXZ
	DD	FLAT:?EndModalLoop@CWnd@@UAEXH@Z
	DD	FLAT:?OnDrawIconicThumbnailOrLivePreview@CWnd@@UAEXAAVCDC@@VCRect@@VCSize@@HAAH@Z
	DD	FLAT:?EnsureStdObj@CWnd@@UAEJXZ
	DD	FLAT:?get_accParent@CWnd@@UAEJPAPAUIDispatch@@@Z
	DD	FLAT:?get_accChildCount@CWnd@@UAEJPAJ@Z
	DD	FLAT:?get_accChild@CWnd@@UAEJUtagVARIANT@@PAPAUIDispatch@@@Z
	DD	FLAT:?get_accName@CWnd@@UAEJUtagVARIANT@@PAPA_W@Z
	DD	FLAT:?get_accValue@CWnd@@UAEJUtagVARIANT@@PAPA_W@Z
	DD	FLAT:?get_accDescription@CWnd@@UAEJUtagVARIANT@@PAPA_W@Z
	DD	FLAT:?get_accRole@CWnd@@UAEJUtagVARIANT@@PAU2@@Z
	DD	FLAT:?get_accState@CWnd@@UAEJUtagVARIANT@@PAU2@@Z
	DD	FLAT:?get_accHelp@CWnd@@UAEJUtagVARIANT@@PAPA_W@Z
	DD	FLAT:?get_accHelpTopic@CWnd@@UAEJPAPA_WUtagVARIANT@@PAJ@Z
	DD	FLAT:?get_accKeyboardShortcut@CWnd@@UAEJUtagVARIANT@@PAPA_W@Z
	DD	FLAT:?get_accFocus@CWnd@@UAEJPAUtagVARIANT@@@Z
	DD	FLAT:?get_accSelection@CWnd@@UAEJPAUtagVARIANT@@@Z
	DD	FLAT:?get_accDefaultAction@CWnd@@UAEJUtagVARIANT@@PAPA_W@Z
	DD	FLAT:?accSelect@CWnd@@UAEJJUtagVARIANT@@@Z
	DD	FLAT:?accLocation@CWnd@@UAEJPAJ000UtagVARIANT@@@Z
	DD	FLAT:?accNavigate@CWnd@@UAEJJUtagVARIANT@@PAU2@@Z
	DD	FLAT:?accHitTest@CWnd@@UAEJJJPAUtagVARIANT@@@Z
	DD	FLAT:?accDoDefaultAction@CWnd@@UAEJUtagVARIANT@@@Z
	DD	FLAT:?put_accName@CWnd@@UAEJUtagVARIANT@@PA_W@Z
	DD	FLAT:?put_accValue@CWnd@@UAEJUtagVARIANT@@PA_W@Z
	DD	FLAT:?SetProxy@CWnd@@UAEJPAUIAccessibleProxy@@@Z
	DD	FLAT:?CreateAccessibleProxy@CWnd@@UAEJIJPAJ@Z
	DD	FLAT:?OnCommand@CWnd@@MAEHIJ@Z
	DD	FLAT:?OnNotify@CWnd@@MAEHIJPAJ@Z
	DD	FLAT:?GetSuperWndProcAddr@CWnd@@MAEPAP6GJPAUHWND__@@IIJ@ZXZ
	DD	FLAT:?DoDataExchange@CWnd@@MAEXPAVCDataExchange@@@Z
	DD	FLAT:?BeginModalState@CWnd@@UAEXXZ
	DD	FLAT:?EndModalState@CWnd@@UAEXXZ
	DD	FLAT:?PreTranslateMessage@CWnd@@UAEHPAUtagMSG@@@Z
	DD	FLAT:?OnAmbientProperty@CWnd@@UAEHPAVCOleControlSite@@JPAUtagVARIANT@@@Z
	DD	FLAT:?WindowProc@CNsyButtonListCtrl@@MAEJIIJ@Z
	DD	FLAT:?OnWndMsg@CWnd@@MAEHIIJPAJ@Z
	DD	FLAT:?DefWindowProcA@CWnd@@MAEJIIJ@Z
	DD	FLAT:?PostNcDestroy@CWnd@@MAEXXZ
	DD	FLAT:?OnChildNotify@CListCtrl@@MAEHIIJPAJ@Z
	DD	FLAT:?OnTouchInputs@CWnd@@MAEHIPAUtagTOUCHINPUT@@@Z
	DD	FLAT:?OnTouchInput@CWnd@@MAEHVCPoint@@HHPAUtagTOUCHINPUT@@@Z
	DD	FLAT:?GetGestureStatus@CWnd@@MAEKVCPoint@@@Z
	DD	FLAT:?OnGestureZoom@CWnd@@MAEHVCPoint@@J@Z
	DD	FLAT:?OnGesturePan@CWnd@@MAEHVCPoint@@0@Z
	DD	FLAT:?OnGestureRotate@CWnd@@MAEHVCPoint@@N@Z
	DD	FLAT:?OnGestureTwoFingerTap@CWnd@@MAEHVCPoint@@@Z
	DD	FLAT:?OnGesturePressAndTap@CWnd@@MAEHVCPoint@@J@Z
	DD	FLAT:?ResizeDynamicLayout@CWnd@@MAEXXZ
	DD	FLAT:?CheckAutoCenter@CWnd@@UAEHXZ
	DD	FLAT:?IsFrameWnd@CWnd@@UBEHXZ
	DD	FLAT:?CreateControlContainer@CWnd@@MAEHPAPAVCOleControlContainer@@@Z
	DD	FLAT:?CreateControlSite@CWnd@@MAEHPAVCOleControlContainer@@PAPAVCOleControlSite@@IABU_GUID@@@Z
	DD	FLAT:?SetOccDialogInfo@CWnd@@MAEHPAU_AFX_OCC_DIALOG_INFO@@@Z
	DD	FLAT:?GetOccDialogInfo@CWnd@@MAEPAU_AFX_OCC_DIALOG_INFO@@XZ
	DD	FLAT:?DrawItem@CListCtrl@@UAEXPAUtagDRAWITEMSTRUCT@@@Z
	DD	FLAT:?GetDrawColors@CXListCtrl@@MAEXHHAAK0@Z
	DD	FLAT:?OnToolTipText@CXListCtrl@@MAEHIPAUtagNMHDR@@PAJ@Z
CONST	ENDS
;	COMDAT ??_R1A@?0A@EA@CListCtrl@@8
rdata$r	SEGMENT
??_R1A@?0A@EA@CListCtrl@@8 DD FLAT:??_R0?AVCListCtrl@@@8 ; CListCtrl::`RTTI Base Class Descriptor at (0,-1,0,64)'
	DD	03H
	DD	00H
	DD	0ffffffffH
	DD	00H
	DD	040H
	DD	FLAT:??_R3CListCtrl@@8
rdata$r	ENDS
;	COMDAT ??_R2CListCtrl@@8
rdata$r	SEGMENT
??_R2CListCtrl@@8 DD FLAT:??_R1A@?0A@EA@CListCtrl@@8	; CListCtrl::`RTTI Base Class Array'
	DD	FLAT:??_R1A@?0A@EA@CWnd@@8
	DD	FLAT:??_R1A@?0A@EA@CCmdTarget@@8
	DD	FLAT:??_R1A@?0A@EA@CObject@@8
rdata$r	ENDS
;	COMDAT ??_R3CListCtrl@@8
rdata$r	SEGMENT
??_R3CListCtrl@@8 DD 00H				; CListCtrl::`RTTI Class Hierarchy Descriptor'
	DD	00H
	DD	04H
	DD	FLAT:??_R2CListCtrl@@8
rdata$r	ENDS
;	COMDAT ??_R0?AVCListCtrl@@@8
data$rs	SEGMENT
??_R0?AVCListCtrl@@@8 DD FLAT:??_7type_info@@6B@	; CListCtrl `RTTI Type Descriptor'
	DD	00H
	DB	'.?AVCListCtrl@@', 00H
data$rs	ENDS
;	COMDAT ??_R2CCmdTarget@@8
rdata$r	SEGMENT
??_R2CCmdTarget@@8 DD FLAT:??_R1A@?0A@EA@CCmdTarget@@8	; CCmdTarget::`RTTI Base Class Array'
	DD	FLAT:??_R1A@?0A@EA@CObject@@8
rdata$r	ENDS
;	COMDAT ??_R3CCmdTarget@@8
rdata$r	SEGMENT
??_R3CCmdTarget@@8 DD 00H				; CCmdTarget::`RTTI Class Hierarchy Descriptor'
	DD	00H
	DD	02H
	DD	FLAT:??_R2CCmdTarget@@8
rdata$r	ENDS
;	COMDAT ??_R0?AVCCmdTarget@@@8
data$rs	SEGMENT
??_R0?AVCCmdTarget@@@8 DD FLAT:??_7type_info@@6B@	; CCmdTarget `RTTI Type Descriptor'
	DD	00H
	DB	'.?AVCCmdTarget@@', 00H
data$rs	ENDS
;	COMDAT ??_R1A@?0A@EA@CCmdTarget@@8
rdata$r	SEGMENT
??_R1A@?0A@EA@CCmdTarget@@8 DD FLAT:??_R0?AVCCmdTarget@@@8 ; CCmdTarget::`RTTI Base Class Descriptor at (0,-1,0,64)'
	DD	01H
	DD	00H
	DD	0ffffffffH
	DD	00H
	DD	040H
	DD	FLAT:??_R3CCmdTarget@@8
rdata$r	ENDS
;	COMDAT ??_R2CWnd@@8
rdata$r	SEGMENT
??_R2CWnd@@8 DD	FLAT:??_R1A@?0A@EA@CWnd@@8		; CWnd::`RTTI Base Class Array'
	DD	FLAT:??_R1A@?0A@EA@CCmdTarget@@8
	DD	FLAT:??_R1A@?0A@EA@CObject@@8
rdata$r	ENDS
;	COMDAT ??_R3CWnd@@8
rdata$r	SEGMENT
??_R3CWnd@@8 DD	00H					; CWnd::`RTTI Class Hierarchy Descriptor'
	DD	00H
	DD	03H
	DD	FLAT:??_R2CWnd@@8
rdata$r	ENDS
;	COMDAT ??_R0?AVCWnd@@@8
data$rs	SEGMENT
??_R0?AVCWnd@@@8 DD FLAT:??_7type_info@@6B@		; CWnd `RTTI Type Descriptor'
	DD	00H
	DB	'.?AVCWnd@@', 00H
data$rs	ENDS
;	COMDAT ??_R1A@?0A@EA@CWnd@@8
rdata$r	SEGMENT
??_R1A@?0A@EA@CWnd@@8 DD FLAT:??_R0?AVCWnd@@@8		; CWnd::`RTTI Base Class Descriptor at (0,-1,0,64)'
	DD	02H
	DD	00H
	DD	0ffffffffH
	DD	00H
	DD	040H
	DD	FLAT:??_R3CWnd@@8
rdata$r	ENDS
;	COMDAT ??_R1A@?0A@EA@CFont@@8
rdata$r	SEGMENT
??_R1A@?0A@EA@CFont@@8 DD FLAT:??_R0?AVCFont@@@8	; CFont::`RTTI Base Class Descriptor at (0,-1,0,64)'
	DD	02H
	DD	00H
	DD	0ffffffffH
	DD	00H
	DD	040H
	DD	FLAT:??_R3CFont@@8
rdata$r	ENDS
;	COMDAT ??_R2CFont@@8
rdata$r	SEGMENT
??_R2CFont@@8 DD FLAT:??_R1A@?0A@EA@CFont@@8		; CFont::`RTTI Base Class Array'
	DD	FLAT:??_R1A@?0A@EA@CGdiObject@@8
	DD	FLAT:??_R1A@?0A@EA@CObject@@8
rdata$r	ENDS
;	COMDAT ??_R3CFont@@8
rdata$r	SEGMENT
??_R3CFont@@8 DD 00H					; CFont::`RTTI Class Hierarchy Descriptor'
	DD	00H
	DD	03H
	DD	FLAT:??_R2CFont@@8
rdata$r	ENDS
;	COMDAT ??_R0?AVCFont@@@8
data$rs	SEGMENT
??_R0?AVCFont@@@8 DD FLAT:??_7type_info@@6B@		; CFont `RTTI Type Descriptor'
	DD	00H
	DB	'.?AVCFont@@', 00H
data$rs	ENDS
;	COMDAT ??_R4CFont@@6B@
rdata$r	SEGMENT
??_R4CFont@@6B@ DD 00H					; CFont::`RTTI Complete Object Locator'
	DD	00H
	DD	00H
	DD	FLAT:??_R0?AVCFont@@@8
	DD	FLAT:??_R3CFont@@8
rdata$r	ENDS
;	COMDAT ??_R1A@?0A@EA@CGdiObject@@8
rdata$r	SEGMENT
??_R1A@?0A@EA@CGdiObject@@8 DD FLAT:??_R0?AVCGdiObject@@@8 ; CGdiObject::`RTTI Base Class Descriptor at (0,-1,0,64)'
	DD	01H
	DD	00H
	DD	0ffffffffH
	DD	00H
	DD	040H
	DD	FLAT:??_R3CGdiObject@@8
rdata$r	ENDS
;	COMDAT ??_R2CGdiObject@@8
rdata$r	SEGMENT
??_R2CGdiObject@@8 DD FLAT:??_R1A@?0A@EA@CGdiObject@@8	; CGdiObject::`RTTI Base Class Array'
	DD	FLAT:??_R1A@?0A@EA@CObject@@8
rdata$r	ENDS
;	COMDAT ??_R3CGdiObject@@8
rdata$r	SEGMENT
??_R3CGdiObject@@8 DD 00H				; CGdiObject::`RTTI Class Hierarchy Descriptor'
	DD	00H
	DD	02H
	DD	FLAT:??_R2CGdiObject@@8
rdata$r	ENDS
;	COMDAT ??_R0?AVCGdiObject@@@8
data$rs	SEGMENT
??_R0?AVCGdiObject@@@8 DD FLAT:??_7type_info@@6B@	; CGdiObject `RTTI Type Descriptor'
	DD	00H
	DB	'.?AVCGdiObject@@', 00H
data$rs	ENDS
;	COMDAT ??_R4CGdiObject@@6B@
rdata$r	SEGMENT
??_R4CGdiObject@@6B@ DD 00H				; CGdiObject::`RTTI Complete Object Locator'
	DD	00H
	DD	00H
	DD	FLAT:??_R0?AVCGdiObject@@@8
	DD	FLAT:??_R3CGdiObject@@8
rdata$r	ENDS
;	COMDAT ??_R1A@?0A@EA@CObject@@8
rdata$r	SEGMENT
??_R1A@?0A@EA@CObject@@8 DD FLAT:??_R0?AVCObject@@@8	; CObject::`RTTI Base Class Descriptor at (0,-1,0,64)'
	DD	00H
	DD	00H
	DD	0ffffffffH
	DD	00H
	DD	040H
	DD	FLAT:??_R3CObject@@8
rdata$r	ENDS
;	COMDAT ??_R2CObject@@8
rdata$r	SEGMENT
??_R2CObject@@8 DD FLAT:??_R1A@?0A@EA@CObject@@8	; CObject::`RTTI Base Class Array'
rdata$r	ENDS
;	COMDAT ??_R3CObject@@8
rdata$r	SEGMENT
??_R3CObject@@8 DD 00H					; CObject::`RTTI Class Hierarchy Descriptor'
	DD	00H
	DD	01H
	DD	FLAT:??_R2CObject@@8
rdata$r	ENDS
;	COMDAT ??_R0?AVCObject@@@8
data$rs	SEGMENT
??_R0?AVCObject@@@8 DD FLAT:??_7type_info@@6B@		; CObject `RTTI Type Descriptor'
	DD	00H
	DB	'.?AVCObject@@', 00H
data$rs	ENDS
;	COMDAT ??_C@_0N@OMEMOKLE@?$CFTs?5?$CI?$CFTs?3?$CFd?$CJ@
CONST	SEGMENT
??_C@_0N@OMEMOKLE@?$CFTs?5?$CI?$CFTs?3?$CFd?$CJ@ DB '%Ts (%Ts:%d)', 00H ; `string'
CONST	ENDS
;	COMDAT ??_C@_0BB@HBOOMJBF@?$CFTs?5?$CI?$CFTs?3?$CFd?$CJ?6?$CFTs@
CONST	SEGMENT
??_C@_0BB@HBOOMJBF@?$CFTs?5?$CI?$CFTs?3?$CFd?$CJ?6?$CFTs@ DB '%Ts (%Ts:%d'
	DB	')', 0aH, '%Ts', 00H				; `string'
CONST	ENDS
;	COMDAT ??_C@_0BP@OIEOKIDM@Exception?5thrown?5in?5destructor@
CONST	SEGMENT
??_C@_0BP@OIEOKIDM@Exception?5thrown?5in?5destructor@ DB 'Exception throw'
	DB	'n in destructor', 00H			; `string'
CONST	ENDS
;	COMDAT ??_C@_0HD@JJCHHHNK@C?3?2Program?5Files?5?$CIx86?$CJ?2Microsof@
CONST	SEGMENT
??_C@_0HD@JJCHHHNK@C?3?2Program?5Files?5?$CIx86?$CJ?2Microsof@ DB 'C:\Pro'
	DB	'gram Files (x86)\Microsoft Visual Studio\2019\Community\VC\To'
	DB	'ols\MSVC\14.29.30133\atlmfc\include\afxwin1.inl', 00H ; `string'
CONST	ENDS
;	COMDAT ??_7CFont@@6B@
CONST	SEGMENT
??_7CFont@@6B@ DD FLAT:??_R4CFont@@6B@			; CFont::`vftable'
	DD	FLAT:?GetRuntimeClass@CFont@@UBEPAUCRuntimeClass@@XZ
	DD	FLAT:??_ECFont@@UAEPAXI@Z
	DD	FLAT:?Serialize@CObject@@UAEXAAVCArchive@@@Z
	DD	FLAT:?AssertValid@CObject@@UBEXXZ
	DD	FLAT:?Dump@CObject@@UBEXAAVCDumpContext@@@Z
CONST	ENDS
;	COMDAT ??_7CGdiObject@@6B@
CONST	SEGMENT
??_7CGdiObject@@6B@ DD FLAT:??_R4CGdiObject@@6B@	; CGdiObject::`vftable'
	DD	FLAT:?GetRuntimeClass@CGdiObject@@UBEPAUCRuntimeClass@@XZ
	DD	FLAT:??_ECGdiObject@@UAEPAXI@Z
	DD	FLAT:?Serialize@CObject@@UAEXAAVCArchive@@@Z
	DD	FLAT:?AssertValid@CObject@@UBEXXZ
	DD	FLAT:?Dump@CObject@@UBEXAAVCDumpContext@@@Z
CONST	ENDS
;	COMDAT ??_C@_00CNPNBAHC@@
CONST	SEGMENT
??_C@_00CNPNBAHC@@ DB 00H				; `string'
CONST	ENDS
;	COMDAT ??_R0PAVCException@@@8
data$r	SEGMENT
??_R0PAVCException@@@8 DD FLAT:??_7type_info@@6B@	; CException * `RTTI Type Descriptor'
	DD	00H
	DB	'.PAVCException@@', 00H
data$r	ENDS
;	COMDAT xdata$x
xdata$x	SEGMENT
__unwindtable$?WindowProc@CNsyButtonListCtrl@@MAEJIIJ@Z DD 0ffffffffH
	DD	FLAT:__unwindfunclet$?WindowProc@CNsyButtonListCtrl@@MAEJIIJ@Z$0
	DD	00H
	DD	FLAT:__unwindfunclet$?WindowProc@CNsyButtonListCtrl@@MAEJIIJ@Z$1
	DD	01H
	DD	FLAT:__unwindfunclet$?WindowProc@CNsyButtonListCtrl@@MAEJIIJ@Z$2
__ehfuncinfo$?WindowProc@CNsyButtonListCtrl@@MAEJIIJ@Z DD 019930522H
	DD	03H
	DD	FLAT:__unwindtable$?WindowProc@CNsyButtonListCtrl@@MAEJIIJ@Z
	DD	2 DUP(00H)
	DD	2 DUP(00H)
	DD	00H
	DD	01H
xdata$x	ENDS
;	COMDAT xdata$x
xdata$x	SEGMENT
__ehfuncinfo$?SetItemButton@CNsyButtonListCtrl@@QAEXHV?$CStringT@DV?$StrTraitMFC_DLL@DV?$ChTraitsCRT@D@ATL@@@@@ATL@@H@Z DD 019930522H
	DD	0dH
	DD	FLAT:__unwindtable$?SetItemButton@CNsyButtonListCtrl@@QAEXHV?$CStringT@DV?$StrTraitMFC_DLL@DV?$ChTraitsCRT@D@ATL@@@@@ATL@@H@Z
	DD	2 DUP(00H)
	DD	2 DUP(00H)
	DD	00H
	DD	01H
__unwindtable$?SetItemButton@CNsyButtonListCtrl@@QAEXHV?$CStringT@DV?$StrTraitMFC_DLL@DV?$ChTraitsCRT@D@ATL@@@@@ATL@@H@Z DD 0ffffffffH
	DD	FLAT:__unwindfunclet$?SetItemButton@CNsyButtonListCtrl@@QAEXHV?$CStringT@DV?$StrTraitMFC_DLL@DV?$ChTraitsCRT@D@ATL@@@@@ATL@@H@Z$0
	DD	00H
	DD	FLAT:__unwindfunclet$?SetItemButton@CNsyButtonListCtrl@@QAEXHV?$CStringT@DV?$StrTraitMFC_DLL@DV?$ChTraitsCRT@D@ATL@@@@@ATL@@H@Z$1
	DD	01H
	DD	FLAT:__unwindfunclet$?SetItemButton@CNsyButtonListCtrl@@QAEXHV?$CStringT@DV?$StrTraitMFC_DLL@DV?$ChTraitsCRT@D@ATL@@@@@ATL@@H@Z$2
	DD	02H
	DD	FLAT:__unwindfunclet$?SetItemButton@CNsyButtonListCtrl@@QAEXHV?$CStringT@DV?$StrTraitMFC_DLL@DV?$ChTraitsCRT@D@ATL@@@@@ATL@@H@Z$3
	DD	03H
	DD	FLAT:__unwindfunclet$?SetItemButton@CNsyButtonListCtrl@@QAEXHV?$CStringT@DV?$StrTraitMFC_DLL@DV?$ChTraitsCRT@D@ATL@@@@@ATL@@H@Z$14
	DD	03H
	DD	FLAT:__unwindfunclet$?SetItemButton@CNsyButtonListCtrl@@QAEXHV?$CStringT@DV?$StrTraitMFC_DLL@DV?$ChTraitsCRT@D@ATL@@@@@ATL@@H@Z$15
	DD	03H
	DD	FLAT:__unwindfunclet$?SetItemButton@CNsyButtonListCtrl@@QAEXHV?$CStringT@DV?$StrTraitMFC_DLL@DV?$ChTraitsCRT@D@ATL@@@@@ATL@@H@Z$16
	DD	03H
	DD	FLAT:__unwindfunclet$?SetItemButton@CNsyButtonListCtrl@@QAEXHV?$CStringT@DV?$StrTraitMFC_DLL@DV?$ChTraitsCRT@D@ATL@@@@@ATL@@H@Z$7
	DD	03H
	DD	FLAT:__unwindfunclet$?SetItemButton@CNsyButtonListCtrl@@QAEXHV?$CStringT@DV?$StrTraitMFC_DLL@DV?$ChTraitsCRT@D@ATL@@@@@ATL@@H@Z$8
	DD	08H
	DD	FLAT:__unwindfunclet$?SetItemButton@CNsyButtonListCtrl@@QAEXHV?$CStringT@DV?$StrTraitMFC_DLL@DV?$ChTraitsCRT@D@ATL@@@@@ATL@@H@Z$9
	DD	09H
	DD	FLAT:__unwindfunclet$?SetItemButton@CNsyButtonListCtrl@@QAEXHV?$CStringT@DV?$StrTraitMFC_DLL@DV?$ChTraitsCRT@D@ATL@@@@@ATL@@H@Z$10
	DD	0aH
	DD	FLAT:__unwindfunclet$?SetItemButton@CNsyButtonListCtrl@@QAEXHV?$CStringT@DV?$StrTraitMFC_DLL@DV?$ChTraitsCRT@D@ATL@@@@@ATL@@H@Z$11
	DD	0bH
	DD	FLAT:__unwindfunclet$?SetItemButton@CNsyButtonListCtrl@@QAEXHV?$CStringT@DV?$StrTraitMFC_DLL@DV?$ChTraitsCRT@D@ATL@@@@@ATL@@H@Z$12
xdata$x	ENDS
;	COMDAT xdata$x
xdata$x	SEGMENT
__unwindtable$?Init@CNsyButtonListCtrl@@QAEXXZ DD 0ffffffffH
	DD	FLAT:__unwindfunclet$?Init@CNsyButtonListCtrl@@QAEXXZ$0
__ehfuncinfo$?Init@CNsyButtonListCtrl@@QAEXXZ DD 019930522H
	DD	01H
	DD	FLAT:__unwindtable$?Init@CNsyButtonListCtrl@@QAEXXZ
	DD	2 DUP(00H)
	DD	2 DUP(00H)
	DD	00H
	DD	01H
xdata$x	ENDS
;	COMDAT xdata$x
xdata$x	SEGMENT
__unwindtable$?Init_CompareChart@CNsyButtonListCtrl@@QAEXXZ DD 0ffffffffH
	DD	FLAT:__unwindfunclet$?Init_CompareChart@CNsyButtonListCtrl@@QAEXXZ$0
	DD	00H
	DD	FLAT:__unwindfunclet$?Init_CompareChart@CNsyButtonListCtrl@@QAEXXZ$1
__ehfuncinfo$?Init_CompareChart@CNsyButtonListCtrl@@QAEXXZ DD 019930522H
	DD	02H
	DD	FLAT:__unwindtable$?Init_CompareChart@CNsyButtonListCtrl@@QAEXXZ
	DD	2 DUP(00H)
	DD	2 DUP(00H)
	DD	00H
	DD	01H
xdata$x	ENDS
;	COMDAT xdata$x
xdata$x	SEGMENT
__ehfuncinfo$?SendToChartRemoveGraph@CNsyButtonListCtrl@@QAEXH@Z DD 019930522H
	DD	06H
	DD	FLAT:__unwindtable$?SendToChartRemoveGraph@CNsyButtonListCtrl@@QAEXH@Z
	DD	2 DUP(00H)
	DD	2 DUP(00H)
	DD	00H
	DD	01H
__unwindtable$?SendToChartRemoveGraph@CNsyButtonListCtrl@@QAEXH@Z DD 0ffffffffH
	DD	FLAT:__unwindfunclet$?SendToChartRemoveGraph@CNsyButtonListCtrl@@QAEXH@Z$0
	DD	00H
	DD	FLAT:__unwindfunclet$?SendToChartRemoveGraph@CNsyButtonListCtrl@@QAEXH@Z$1
	DD	01H
	DD	FLAT:__unwindfunclet$?SendToChartRemoveGraph@CNsyButtonListCtrl@@QAEXH@Z$2
	DD	01H
	DD	FLAT:__unwindfunclet$?SendToChartRemoveGraph@CNsyButtonListCtrl@@QAEXH@Z$3
	DD	01H
	DD	FLAT:__unwindfunclet$?SendToChartRemoveGraph@CNsyButtonListCtrl@@QAEXH@Z$4
	DD	04H
	DD	FLAT:__unwindfunclet$?SendToChartRemoveGraph@CNsyButtonListCtrl@@QAEXH@Z$5
xdata$x	ENDS
;	COMDAT xdata$x
xdata$x	SEGMENT
__unwindtable$??0CNsyButtonListCtrl@@QAE@XZ DD 0ffffffffH
	DD	FLAT:__unwindfunclet$??0CNsyButtonListCtrl@@QAE@XZ$0
	DD	00H
	DD	FLAT:__unwindfunclet$??0CNsyButtonListCtrl@@QAE@XZ$1
	DD	01H
	DD	FLAT:__unwindfunclet$??0CNsyButtonListCtrl@@QAE@XZ$2
	DD	02H
	DD	FLAT:__unwindfunclet$??0CNsyButtonListCtrl@@QAE@XZ$3
__ehfuncinfo$??0CNsyButtonListCtrl@@QAE@XZ DD 019930522H
	DD	04H
	DD	FLAT:__unwindtable$??0CNsyButtonListCtrl@@QAE@XZ
	DD	2 DUP(00H)
	DD	2 DUP(00H)
	DD	00H
	DD	01H
xdata$x	ENDS
;	COMDAT xdata$x
xdata$x	SEGMENT
__catchsym$??1CGdiObject@@UAE@XZ$3 DD 00H
	DD	FLAT:??_R0PAVCException@@@8
	DD	0fffffde4H
	DD	FLAT:__catch$??1CGdiObject@@UAE@XZ$0
__tryblocktable$??1CGdiObject@@UAE@XZ DD 00H
	DD	00H
	DD	02H
	DD	01H
	DD	FLAT:__catchsym$??1CGdiObject@@UAE@XZ$3
__unwindtable$??1CGdiObject@@UAE@XZ DD 0ffffffffH
	DD	00H
	DD	0ffffffffH
	DD	00H
	DD	01H
	DD	FLAT:__unwindfunclet$??1CGdiObject@@UAE@XZ$2
__ehfuncinfo$??1CGdiObject@@UAE@XZ DD 019930522H
	DD	03H
	DD	FLAT:__unwindtable$??1CGdiObject@@UAE@XZ
	DD	01H
	DD	FLAT:__tryblocktable$??1CGdiObject@@UAE@XZ
	DD	2 DUP(00H)
	DD	00H
	DD	05H
xdata$x	ENDS
;	COMDAT xdata$x
xdata$x	SEGMENT
__unwindtable$??HATL@@YA?AV?$CStringT@DV?$StrTraitMFC_DLL@DV?$ChTraitsCRT@D@ATL@@@@@0@ABV10@PBD@Z DD 0ffffffffH
	DD	FLAT:__unwindfunclet$??HATL@@YA?AV?$CStringT@DV?$StrTraitMFC_DLL@DV?$ChTraitsCRT@D@ATL@@@@@0@ABV10@PBD@Z$0
__ehfuncinfo$??HATL@@YA?AV?$CStringT@DV?$StrTraitMFC_DLL@DV?$ChTraitsCRT@D@ATL@@@@@0@ABV10@PBD@Z DD 019930522H
	DD	01H
	DD	FLAT:__unwindtable$??HATL@@YA?AV?$CStringT@DV?$StrTraitMFC_DLL@DV?$ChTraitsCRT@D@ATL@@@@@0@ABV10@PBD@Z
	DD	2 DUP(00H)
	DD	2 DUP(00H)
	DD	00H
	DD	01H
xdata$x	ENDS
CRT$XCU	SEGMENT
?RMSG_REPLAY_FAIL$initializer$@@3P6AXXZA DD FLAT:??__ERMSG_REPLAY_FAIL@@YAXXZ ; RMSG_REPLAY_FAIL$initializer$
CRT$XCU	ENDS
CRT$XCU	SEGMENT
?RMSG_REPLAY_CHANGE_DATE$initializer$@@3P6AXXZA DD FLAT:??__ERMSG_REPLAY_CHANGE_DATE@@YAXXZ ; RMSG_REPLAY_CHANGE_DATE$initializer$
CRT$XCU	ENDS
CRT$XCU	SEGMENT
?RMSG_REPLAY_END$initializer$@@3P6AXXZA DD FLAT:??__ERMSG_REPLAY_END@@YAXXZ ; RMSG_REPLAY_END$initializer$
CRT$XCU	ENDS
CRT$XCU	SEGMENT
?RMSG_REPLAY_INC_SEC$initializer$@@3P6AXXZA DD FLAT:??__ERMSG_REPLAY_INC_SEC@@YAXXZ ; RMSG_REPLAY_INC_SEC$initializer$
CRT$XCU	ENDS
CRT$XCU	SEGMENT
?RMSG_REPLAY_TOTAL_SEC$initializer$@@3P6AXXZA DD FLAT:??__ERMSG_REPLAY_TOTAL_SEC@@YAXXZ ; RMSG_REPLAY_TOTAL_SEC$initializer$
CRT$XCU	ENDS
CRT$XCU	SEGMENT
?RMSG_GETSIGNAL_REAL$initializer$@@3P6AXXZA DD FLAT:??__ERMSG_GETSIGNAL_REAL@@YAXXZ ; RMSG_GETSIGNAL_REAL$initializer$
CRT$XCU	ENDS
CRT$XCU	SEGMENT
?RMSG_CHARTMAIN$initializer$@@3P6AXXZA DD FLAT:??__ERMSG_CHARTMAIN@@YAXXZ ; RMSG_CHARTMAIN$initializer$
CRT$XCU	ENDS
CRT$XCU	SEGMENT
?RMS_ANALYSIS_FUNC$initializer$@@3P6AXXZA DD FLAT:??__ERMS_ANALYSIS_FUNC@@YAXXZ ; RMS_ANALYSIS_FUNC$initializer$
CRT$XCU	ENDS
CRT$XCU	SEGMENT
?RMSG_GET_USERID$initializer$@@3P6AXXZA DD FLAT:??__ERMSG_GET_USERID@@YAXXZ ; RMSG_GET_USERID$initializer$
CRT$XCU	ENDS
CRT$XCU	SEGMENT
?RMSG_KSDLLINFO$initializer$@@3P6AXXZA DD FLAT:??__ERMSG_KSDLLINFO@@YAXXZ ; RMSG_KSDLLINFO$initializer$
CRT$XCU	ENDS
CRT$XCU	SEGMENT
?RMSG_GETINFO$initializer$@@3P6AXXZA DD FLAT:??__ERMSG_GETINFO@@YAXXZ ; RMSG_GETINFO$initializer$
CRT$XCU	ENDS
CRT$XCU	SEGMENT
?RMSG_CHANGE_SKINCOLOR$initializer$@@3P6AXXZA DD FLAT:??__ERMSG_CHANGE_SKINCOLOR@@YAXXZ ; RMSG_CHANGE_SKINCOLOR$initializer$
CRT$XCU	ENDS
CRT$XCU	SEGMENT
?RMSG_GET_SKINCOLOR$initializer$@@3P6AXXZA DD FLAT:??__ERMSG_GET_SKINCOLOR@@YAXXZ ; RMSG_GET_SKINCOLOR$initializer$
CRT$XCU	ENDS
CRT$XCU	SEGMENT
?RMSG_CHANGE_CROSSLINE$initializer$@@3P6AXXZA DD FLAT:??__ERMSG_CHANGE_CROSSLINE@@YAXXZ ; RMSG_CHANGE_CROSSLINE$initializer$
CRT$XCU	ENDS
CRT$XCU	SEGMENT
?RMSG_SELCHARTCODE$initializer$@@3P6AXXZA DD FLAT:??__ERMSG_SELCHARTCODE@@YAXXZ ; RMSG_SELCHARTCODE$initializer$
CRT$XCU	ENDS
; Function compile flags: /Ogtp
; File D:\git\src\IBK\IBK_DRFN\ProjSrc\SrcDrfn\Chart\comparechart\StdDialog.h
;	COMDAT ??__ERMSG_SELCHARTCODE@@YAXXZ
text$di	SEGMENT
??__ERMSG_SELCHARTCODE@@YAXXZ PROC			; `dynamic initializer for 'RMSG_SELCHARTCODE'', COMDAT

; 73   : const UINT RMSG_SELCHARTCODE = ::RegisterWindowMessage( "RMSG_SELCHARTCODE" );

  00000	68 00 00 00 00	 push	 OFFSET ??_C@_0BC@LHNMEPFM@RMSG_SELCHARTCODE@
  00005	ff 15 00 00 00
	00		 call	 DWORD PTR __imp__RegisterWindowMessageA@4
  0000b	a3 00 00 00 00	 mov	 DWORD PTR ?RMSG_SELCHARTCODE@@3IB, eax
  00010	c3		 ret	 0
??__ERMSG_SELCHARTCODE@@YAXXZ ENDP			; `dynamic initializer for 'RMSG_SELCHARTCODE''
text$di	ENDS
; Function compile flags: /Ogtp
; File D:\git\src\IBK\IBK_DRFN\ProjSrc\SrcDrfn\Chart\comparechart\define\ChartMsgDef.h
;	COMDAT ??__ERMSG_CHANGE_CROSSLINE@@YAXXZ
text$di	SEGMENT
??__ERMSG_CHANGE_CROSSLINE@@YAXXZ PROC			; `dynamic initializer for 'RMSG_CHANGE_CROSSLINE'', COMDAT

; 216  : const UINT RMSG_CHANGE_CROSSLINE = ::RegisterWindowMessage(_T("RMSG_CHANGE_CROSSLINE"));

  00000	68 00 00 00 00	 push	 OFFSET ??_C@_0BG@LNLCJKPF@RMSG_CHANGE_CROSSLINE@
  00005	ff 15 00 00 00
	00		 call	 DWORD PTR __imp__RegisterWindowMessageA@4
  0000b	a3 00 00 00 00	 mov	 DWORD PTR ?RMSG_CHANGE_CROSSLINE@@3IB, eax
  00010	c3		 ret	 0
??__ERMSG_CHANGE_CROSSLINE@@YAXXZ ENDP			; `dynamic initializer for 'RMSG_CHANGE_CROSSLINE''
text$di	ENDS
; Function compile flags: /Ogtp
; File D:\git\src\IBK\IBK_DRFN\ProjSrc\SrcDrfn\Chart\comparechart\define\ChartMsgDef.h
;	COMDAT ??__ERMSG_GET_SKINCOLOR@@YAXXZ
text$di	SEGMENT
??__ERMSG_GET_SKINCOLOR@@YAXXZ PROC			; `dynamic initializer for 'RMSG_GET_SKINCOLOR'', COMDAT

; 214  : const UINT RMSG_GET_SKINCOLOR = ::RegisterWindowMessage(_T("RMSG_GET_SKINCOLOR"));

  00000	68 00 00 00 00	 push	 OFFSET ??_C@_0BD@FLDNDDHK@RMSG_GET_SKINCOLOR@
  00005	ff 15 00 00 00
	00		 call	 DWORD PTR __imp__RegisterWindowMessageA@4
  0000b	a3 00 00 00 00	 mov	 DWORD PTR ?RMSG_GET_SKINCOLOR@@3IB, eax
  00010	c3		 ret	 0
??__ERMSG_GET_SKINCOLOR@@YAXXZ ENDP			; `dynamic initializer for 'RMSG_GET_SKINCOLOR''
text$di	ENDS
; Function compile flags: /Ogtp
; File D:\git\src\IBK\IBK_DRFN\ProjSrc\SrcDrfn\Chart\comparechart\define\ChartMsgDef.h
;	COMDAT ??__ERMSG_CHANGE_SKINCOLOR@@YAXXZ
text$di	SEGMENT
??__ERMSG_CHANGE_SKINCOLOR@@YAXXZ PROC			; `dynamic initializer for 'RMSG_CHANGE_SKINCOLOR'', COMDAT

; 213  : const UINT RMSG_CHANGE_SKINCOLOR = ::RegisterWindowMessage(_T("RMSG_CHANGE_SKINCOLOR"));

  00000	68 00 00 00 00	 push	 OFFSET ??_C@_0BG@CNPAHNGG@RMSG_CHANGE_SKINCOLOR@
  00005	ff 15 00 00 00
	00		 call	 DWORD PTR __imp__RegisterWindowMessageA@4
  0000b	a3 00 00 00 00	 mov	 DWORD PTR ?RMSG_CHANGE_SKINCOLOR@@3IB, eax
  00010	c3		 ret	 0
??__ERMSG_CHANGE_SKINCOLOR@@YAXXZ ENDP			; `dynamic initializer for 'RMSG_CHANGE_SKINCOLOR''
text$di	ENDS
; Function compile flags: /Ogtp
; File D:\git\src\IBK\IBK_DRFN\ProjSrc\SrcDrfn\Chart\comparechart\define\ChartMsgDef.h
;	COMDAT ??__ERMSG_GETINFO@@YAXXZ
text$di	SEGMENT
??__ERMSG_GETINFO@@YAXXZ PROC				; `dynamic initializer for 'RMSG_GETINFO'', COMDAT

; 204  : const UINT RMSG_GETINFO = ::RegisterWindowMessage(_T("RMSG_GETINFO"));

  00000	68 00 00 00 00	 push	 OFFSET ??_C@_0N@IIOKMIEH@RMSG_GETINFO@
  00005	ff 15 00 00 00
	00		 call	 DWORD PTR __imp__RegisterWindowMessageA@4
  0000b	a3 00 00 00 00	 mov	 DWORD PTR ?RMSG_GETINFO@@3IB, eax
  00010	c3		 ret	 0
??__ERMSG_GETINFO@@YAXXZ ENDP				; `dynamic initializer for 'RMSG_GETINFO''
text$di	ENDS
; Function compile flags: /Ogtp
; File D:\git\src\IBK\IBK_DRFN\ProjSrc\SrcDrfn\Chart\comparechart\define\ChartMsgDef.h
;	COMDAT ??__ERMSG_KSDLLINFO@@YAXXZ
text$di	SEGMENT
??__ERMSG_KSDLLINFO@@YAXXZ PROC				; `dynamic initializer for 'RMSG_KSDLLINFO'', COMDAT

; 203  : const UINT RMSG_KSDLLINFO = ::RegisterWindowMessage(_T("RMSG_KSDLLINFO"));		// TrmCompCharView 

  00000	68 00 00 00 00	 push	 OFFSET ??_C@_0P@LFDACNFE@RMSG_KSDLLINFO@
  00005	ff 15 00 00 00
	00		 call	 DWORD PTR __imp__RegisterWindowMessageA@4
  0000b	a3 00 00 00 00	 mov	 DWORD PTR ?RMSG_KSDLLINFO@@3IB, eax
  00010	c3		 ret	 0
??__ERMSG_KSDLLINFO@@YAXXZ ENDP				; `dynamic initializer for 'RMSG_KSDLLINFO''
text$di	ENDS
; Function compile flags: /Ogtp
; File D:\git\src\IBK\IBK_DRFN\ProjSrc\SrcDrfn\Chart\comparechart\define\ChartMsgDef.h
;	COMDAT ??__ERMSG_GET_USERID@@YAXXZ
text$di	SEGMENT
??__ERMSG_GET_USERID@@YAXXZ PROC			; `dynamic initializer for 'RMSG_GET_USERID'', COMDAT

; 200  : const UINT RMSG_GET_USERID = ::RegisterWindowMessage(_T("RMSG_GET_USERID"));	// User ID 

  00000	68 00 00 00 00	 push	 OFFSET ??_C@_0BA@HKNFENJL@RMSG_GET_USERID@
  00005	ff 15 00 00 00
	00		 call	 DWORD PTR __imp__RegisterWindowMessageA@4
  0000b	a3 00 00 00 00	 mov	 DWORD PTR ?RMSG_GET_USERID@@3IB, eax
  00010	c3		 ret	 0
??__ERMSG_GET_USERID@@YAXXZ ENDP			; `dynamic initializer for 'RMSG_GET_USERID''
text$di	ENDS
; Function compile flags: /Ogtp
; File D:\git\src\IBK\IBK_DRFN\ProjSrc\SrcDrfn\Chart\comparechart\define\ChartMsgDef.h
;	COMDAT ??__ERMS_ANALYSIS_FUNC@@YAXXZ
text$di	SEGMENT
??__ERMS_ANALYSIS_FUNC@@YAXXZ PROC			; `dynamic initializer for 'RMS_ANALYSIS_FUNC'', COMDAT

; 196  : const UINT RMS_ANALYSIS_FUNC	= ::RegisterWindowMessage(_T("RMS_ANALYSIS_FUNC"));

  00000	68 00 00 00 00	 push	 OFFSET ??_C@_0BC@MMPGLPDH@RMS_ANALYSIS_FUNC@
  00005	ff 15 00 00 00
	00		 call	 DWORD PTR __imp__RegisterWindowMessageA@4
  0000b	a3 00 00 00 00	 mov	 DWORD PTR ?RMS_ANALYSIS_FUNC@@3IB, eax
  00010	c3		 ret	 0
??__ERMS_ANALYSIS_FUNC@@YAXXZ ENDP			; `dynamic initializer for 'RMS_ANALYSIS_FUNC''
text$di	ENDS
; Function compile flags: /Ogtp
; File D:\git\src\IBK\IBK_DRFN\ProjSrc\SrcDrfn\Chart\comparechart\define\ChartMsgDef.h
;	COMDAT ??__ERMSG_CHARTMAIN@@YAXXZ
text$di	SEGMENT
??__ERMSG_CHARTMAIN@@YAXXZ PROC				; `dynamic initializer for 'RMSG_CHARTMAIN'', COMDAT

; 193  : const UINT RMSG_CHARTMAIN		= ::RegisterWindowMessage(_T("RMSG_CHARTMAIN"));

  00000	68 00 00 00 00	 push	 OFFSET ??_C@_0P@KHFCBIOH@RMSG_CHARTMAIN@
  00005	ff 15 00 00 00
	00		 call	 DWORD PTR __imp__RegisterWindowMessageA@4
  0000b	a3 00 00 00 00	 mov	 DWORD PTR ?RMSG_CHARTMAIN@@3IB, eax
  00010	c3		 ret	 0
??__ERMSG_CHARTMAIN@@YAXXZ ENDP				; `dynamic initializer for 'RMSG_CHARTMAIN''
text$di	ENDS
; Function compile flags: /Ogtp
; File D:\git\src\IBK\IBK_DRFN\ProjSrc\SrcDrfn\Chart\commontr\TRDefine.h
;	COMDAT ??__ERMSG_GETSIGNAL_REAL@@YAXXZ
text$di	SEGMENT
??__ERMSG_GETSIGNAL_REAL@@YAXXZ PROC			; `dynamic initializer for 'RMSG_GETSIGNAL_REAL'', COMDAT

; 213  : const UINT RMSG_GETSIGNAL_REAL = ::RegisterWindowMessage(_T("RMSG_GETSIGNAL_REAL"));

  00000	68 00 00 00 00	 push	 OFFSET ??_C@_0BE@FJPKENOB@RMSG_GETSIGNAL_REAL@
  00005	ff 15 00 00 00
	00		 call	 DWORD PTR __imp__RegisterWindowMessageA@4
  0000b	a3 00 00 00 00	 mov	 DWORD PTR ?RMSG_GETSIGNAL_REAL@@3IB, eax
  00010	c3		 ret	 0
??__ERMSG_GETSIGNAL_REAL@@YAXXZ ENDP			; `dynamic initializer for 'RMSG_GETSIGNAL_REAL''
text$di	ENDS
; Function compile flags: /Ogtp
; File D:\git\src\IBK\IBK_DRFN\ProjSrc\SrcDrfn\Chart\chart_common\ReplayChartInfoDef.h
;	COMDAT ??__ERMSG_REPLAY_TOTAL_SEC@@YAXXZ
text$di	SEGMENT
??__ERMSG_REPLAY_TOTAL_SEC@@YAXXZ PROC			; `dynamic initializer for 'RMSG_REPLAY_TOTAL_SEC'', COMDAT

; 97   : 	const UINT RMSG_REPLAY_TOTAL_SEC = ::RegisterWindowMessage(_T("RMSG_REPLAY_TOTAL_SEC"));		//  () 

  00000	68 00 00 00 00	 push	 OFFSET ??_C@_0BG@GIAJEIJF@RMSG_REPLAY_TOTAL_SEC@
  00005	ff 15 00 00 00
	00		 call	 DWORD PTR __imp__RegisterWindowMessageA@4
  0000b	a3 00 00 00 00	 mov	 DWORD PTR ?RMSG_REPLAY_TOTAL_SEC@@3IB, eax
  00010	c3		 ret	 0
??__ERMSG_REPLAY_TOTAL_SEC@@YAXXZ ENDP			; `dynamic initializer for 'RMSG_REPLAY_TOTAL_SEC''
text$di	ENDS
; Function compile flags: /Ogtp
; File D:\git\src\IBK\IBK_DRFN\ProjSrc\SrcDrfn\Chart\chart_common\ReplayChartInfoDef.h
;	COMDAT ??__ERMSG_REPLAY_INC_SEC@@YAXXZ
text$di	SEGMENT
??__ERMSG_REPLAY_INC_SEC@@YAXXZ PROC			; `dynamic initializer for 'RMSG_REPLAY_INC_SEC'', COMDAT

; 96   : 	const UINT RMSG_REPLAY_INC_SEC = ::RegisterWindowMessage(_T("RMSG_REPLAY_INC_SEC"));			// 1   

  00000	68 00 00 00 00	 push	 OFFSET ??_C@_0BE@JFCIMCIP@RMSG_REPLAY_INC_SEC@
  00005	ff 15 00 00 00
	00		 call	 DWORD PTR __imp__RegisterWindowMessageA@4
  0000b	a3 00 00 00 00	 mov	 DWORD PTR ?RMSG_REPLAY_INC_SEC@@3IB, eax
  00010	c3		 ret	 0
??__ERMSG_REPLAY_INC_SEC@@YAXXZ ENDP			; `dynamic initializer for 'RMSG_REPLAY_INC_SEC''
text$di	ENDS
; Function compile flags: /Ogtp
; File D:\git\src\IBK\IBK_DRFN\ProjSrc\SrcDrfn\Chart\chart_common\ReplayChartInfoDef.h
;	COMDAT ??__ERMSG_REPLAY_END@@YAXXZ
text$di	SEGMENT
??__ERMSG_REPLAY_END@@YAXXZ PROC			; `dynamic initializer for 'RMSG_REPLAY_END'', COMDAT

; 95   : 	const UINT RMSG_REPLAY_END			= ::RegisterWindowMessage(_T("RMSG_REPLAY_END"));

  00000	68 00 00 00 00	 push	 OFFSET ??_C@_0BA@NKHHCPON@RMSG_REPLAY_END@
  00005	ff 15 00 00 00
	00		 call	 DWORD PTR __imp__RegisterWindowMessageA@4
  0000b	a3 00 00 00 00	 mov	 DWORD PTR ?RMSG_REPLAY_END@@3IB, eax
  00010	c3		 ret	 0
??__ERMSG_REPLAY_END@@YAXXZ ENDP			; `dynamic initializer for 'RMSG_REPLAY_END''
text$di	ENDS
; Function compile flags: /Ogtp
; File D:\git\src\IBK\IBK_DRFN\ProjSrc\SrcDrfn\Chart\chart_common\ReplayChartInfoDef.h
;	COMDAT ??__ERMSG_REPLAY_CHANGE_DATE@@YAXXZ
text$di	SEGMENT
??__ERMSG_REPLAY_CHANGE_DATE@@YAXXZ PROC		; `dynamic initializer for 'RMSG_REPLAY_CHANGE_DATE'', COMDAT

; 94   : 	const UINT RMSG_REPLAY_CHANGE_DATE	= ::RegisterWindowMessage(_T("RMSG_REPLAY_CHANGE_DATE"));

  00000	68 00 00 00 00	 push	 OFFSET ??_C@_0BI@KDGAIIMD@RMSG_REPLAY_CHANGE_DATE@
  00005	ff 15 00 00 00
	00		 call	 DWORD PTR __imp__RegisterWindowMessageA@4
  0000b	a3 00 00 00 00	 mov	 DWORD PTR ?RMSG_REPLAY_CHANGE_DATE@@3IB, eax
  00010	c3		 ret	 0
??__ERMSG_REPLAY_CHANGE_DATE@@YAXXZ ENDP		; `dynamic initializer for 'RMSG_REPLAY_CHANGE_DATE''
text$di	ENDS
; Function compile flags: /Ogtp
; File D:\git\src\IBK\IBK_DRFN\ProjSrc\SrcDrfn\Chart\chart_common\ReplayChartInfoDef.h
;	COMDAT ??__ERMSG_REPLAY_FAIL@@YAXXZ
text$di	SEGMENT
??__ERMSG_REPLAY_FAIL@@YAXXZ PROC			; `dynamic initializer for 'RMSG_REPLAY_FAIL'', COMDAT

; 93   : 	const UINT RMSG_REPLAY_FAIL			= ::RegisterWindowMessage(_T("RMSG_REPLAY_FAIL"));

  00000	68 00 00 00 00	 push	 OFFSET ??_C@_0BB@JFLGBADG@RMSG_REPLAY_FAIL@
  00005	ff 15 00 00 00
	00		 call	 DWORD PTR __imp__RegisterWindowMessageA@4
  0000b	a3 00 00 00 00	 mov	 DWORD PTR ?RMSG_REPLAY_FAIL@@3IB, eax
  00010	c3		 ret	 0
??__ERMSG_REPLAY_FAIL@@YAXXZ ENDP			; `dynamic initializer for 'RMSG_REPLAY_FAIL''
text$di	ENDS
; Function compile flags: /Ogtp
; File D:\git\src\IBK\IBK_DRFN\ProjSrc\SrcDrfn\Chart\chart_common\ReplayChartInfoDef.h
;	COMDAT ??__ERMSG_REPLAY_REAL@@YAXXZ
text$di	SEGMENT
??__ERMSG_REPLAY_REAL@@YAXXZ PROC			; `dynamic initializer for 'RMSG_REPLAY_REAL'', COMDAT

; 92   : 	const UINT RMSG_REPLAY_REAL			= ::RegisterWindowMessage(_T("RMSG_REPLAY_REAL"));

  00000	68 00 00 00 00	 push	 OFFSET ??_C@_0BB@IBKHOHJL@RMSG_REPLAY_REAL@
  00005	ff 15 00 00 00
	00		 call	 DWORD PTR __imp__RegisterWindowMessageA@4
  0000b	a3 00 00 00 00	 mov	 DWORD PTR ?RMSG_REPLAY_REAL@@3IB, eax
  00010	c3		 ret	 0
??__ERMSG_REPLAY_REAL@@YAXXZ ENDP			; `dynamic initializer for 'RMSG_REPLAY_REAL''
text$di	ENDS
; Function compile flags: /Ogtp
; File D:\git\src\IBK\IBK_DRFN\ProjSrc\SrcDrfn\Chart\comparechart\control\NsyButtonListCtrl.cpp
; File C:\Program Files (x86)\Microsoft Visual Studio\2019\Community\VC\Tools\MSVC\14.29.30133\atlmfc\include\afxwin1.inl
; File D:\git\src\IBK\IBK_DRFN\ProjSrc\SrcDrfn\Chart\comparechart\control\NsyButtonListCtrl.cpp
; File C:\Program Files (x86)\Microsoft Visual Studio\2019\Community\VC\Tools\MSVC\14.29.30133\atlmfc\include\afx.inl
;	COMDAT ??_GCNsyButtonListCtrl@@UAEPAXI@Z
_TEXT	SEGMENT
___flags$ = 8						; size = 4
??_GCNsyButtonListCtrl@@UAEPAXI@Z PROC			; CNsyButtonListCtrl::`scalar deleting destructor', COMDAT
; _this$ = ecx
  00000	55		 push	 ebp
  00001	8b ec		 mov	 ebp, esp
; File D:\git\src\IBK\IBK_DRFN\ProjSrc\SrcDrfn\Chart\comparechart\control\NsyButtonListCtrl.cpp

; 25   : {

  00003	56		 push	 esi
  00004	8b f1		 mov	 esi, ecx

; 26   : }

  00006	8d 8e 2c 02 00
	00		 lea	 ecx, DWORD PTR [esi+556]
  0000c	c7 06 00 00 00
	00		 mov	 DWORD PTR [esi], OFFSET ??_7CNsyButtonListCtrl@@6B@
  00012	ff 15 00 00 00
	00		 call	 DWORD PTR __imp_??1?$CStringT@DV?$StrTraitMFC_DLL@DV?$ChTraitsCRT@D@ATL@@@@@ATL@@QAE@XZ
  00018	8d 8e 18 02 00
	00		 lea	 ecx, DWORD PTR [esi+536]
  0001e	e8 00 00 00 00	 call	 ??1CPtrArray@@UAE@XZ	; CPtrArray::~CPtrArray
  00023	8d 8e 10 02 00
	00		 lea	 ecx, DWORD PTR [esi+528]
; File C:\Program Files (x86)\Microsoft Visual Studio\2019\Community\VC\Tools\MSVC\14.29.30133\atlmfc\include\afxwin1.inl

; 155  : 	{ }

  00029	c7 01 00 00 00
	00		 mov	 DWORD PTR [ecx], OFFSET ??_7CFont@@6B@
  0002f	e8 00 00 00 00	 call	 ??1CGdiObject@@UAE@XZ	; CGdiObject::~CGdiObject
; File D:\git\src\IBK\IBK_DRFN\ProjSrc\SrcDrfn\Chart\comparechart\control\NsyButtonListCtrl.cpp

; 26   : }

  00034	8b ce		 mov	 ecx, esi
  00036	e8 00 00 00 00	 call	 ??1CXListCtrl@@UAE@XZ	; CXListCtrl::~CXListCtrl
  0003b	8b 45 08	 mov	 eax, DWORD PTR ___flags$[ebp]
  0003e	a8 01		 test	 al, 1
  00040	74 22		 je	 SHORT $LN15@scalar
  00042	a8 04		 test	 al, 4
  00044	75 10		 jne	 SHORT $LN3@scalar
; File C:\Program Files (x86)\Microsoft Visual Studio\2019\Community\VC\Tools\MSVC\14.29.30133\atlmfc\include\afx.inl

; 112  : 	{ ::operator delete(p); }

  00046	56		 push	 esi
  00047	e8 00 00 00 00	 call	 ??3@YAXPAX@Z		; operator delete
  0004c	83 c4 04	 add	 esp, 4
  0004f	8b c6		 mov	 eax, esi
  00051	5e		 pop	 esi
  00052	5d		 pop	 ebp
  00053	c2 04 00	 ret	 4
$LN3@scalar:
  00056	68 38 02 00 00	 push	 568			; 00000238H
  0005b	56		 push	 esi
  0005c	e8 00 00 00 00	 call	 ?__global_delete@@YAXPAXI@Z ; __global_delete
  00061	83 c4 08	 add	 esp, 8
$LN15@scalar:
  00064	8b c6		 mov	 eax, esi
  00066	5e		 pop	 esi
  00067	5d		 pop	 ebp
  00068	c2 04 00	 ret	 4
??_GCNsyButtonListCtrl@@UAEPAXI@Z ENDP			; CNsyButtonListCtrl::`scalar deleting destructor'
_TEXT	ENDS
; Function compile flags: /Ogtp
; File D:\git\src\IBK\IBK_DRFN\ProjSrc\SrcDrfn\Chart\comparechart\control\NsyButtonListCtrl.cpp
;	COMDAT ?GetMessageMap@CNsyButtonListCtrl@@MBEPBUAFX_MSGMAP@@XZ
_TEXT	SEGMENT
?GetMessageMap@CNsyButtonListCtrl@@MBEPBUAFX_MSGMAP@@XZ PROC ; CNsyButtonListCtrl::GetMessageMap, COMDAT
; _this$ = ecx

; 29   : BEGIN_MESSAGE_MAP(CNsyButtonListCtrl, CXListCtrl)

  00000	b8 00 00 00 00	 mov	 eax, OFFSET ?messageMap@?1??GetThisMessageMap@CNsyButtonListCtrl@@KGPBUAFX_MSGMAP@@XZ@4U3@B
  00005	c3		 ret	 0
?GetMessageMap@CNsyButtonListCtrl@@MBEPBUAFX_MSGMAP@@XZ ENDP ; CNsyButtonListCtrl::GetMessageMap
_TEXT	ENDS
; Function compile flags: /Ogtp
; File D:\git\src\IBK\IBK_DRFN\ProjSrc\SrcDrfn\Chart\comparechart\control\NsyButtonListCtrl.cpp
;	COMDAT ?GetThisMessageMap@CNsyButtonListCtrl@@KGPBUAFX_MSGMAP@@XZ
_TEXT	SEGMENT
?GetThisMessageMap@CNsyButtonListCtrl@@KGPBUAFX_MSGMAP@@XZ PROC ; CNsyButtonListCtrl::GetThisMessageMap, COMDAT

; 30   : 	//{{AFX_MSG_MAP(CNsyButtonListCtrl)	
; 31   : 	ON_WM_SIZE()
; 32   : 	ON_WM_DESTROY()
; 33   : 	//}}AFX_MSG_MAP
; 34   : 	//ON_WM_MEASUREITEM()
; 35   : 	//ON_WM_MEASUREITEM_REFLECT()
; 36   : END_MESSAGE_MAP()

  00000	b8 00 00 00 00	 mov	 eax, OFFSET ?messageMap@?1??GetThisMessageMap@CNsyButtonListCtrl@@KGPBUAFX_MSGMAP@@XZ@4U3@B
  00005	c3		 ret	 0
?GetThisMessageMap@CNsyButtonListCtrl@@KGPBUAFX_MSGMAP@@XZ ENDP ; CNsyButtonListCtrl::GetThisMessageMap
_TEXT	ENDS
; Function compile flags: /Ogtp
; File D:\git\src\IBK\IBK_DRFN\ProjSrc\SrcDrfn\Chart\comparechart\control\NsyButtonListCtrl.cpp
; File C:\Program Files (x86)\Microsoft Visual Studio\2019\Community\VC\Tools\MSVC\14.29.30133\atlmfc\include\afxcmn.inl
; File D:\git\src\IBK\IBK_DRFN\ProjSrc\SrcDrfn\Chart\comparechart\control\NsyButtonListCtrl.cpp
; File C:\Program Files (x86)\Microsoft Visual Studio\2019\Community\VC\Tools\MSVC\14.29.30133\atlmfc\include\afxwin2.inl
; File D:\git\src\IBK\IBK_DRFN\ProjSrc\SrcDrfn\Chart\comparechart\control\NsyButtonListCtrl.cpp
; File C:\Program Files (x86)\Microsoft Visual Studio\2019\Community\VC\Tools\MSVC\14.29.30133\atlmfc\include\afxcoll.inl
; File D:\git\src\IBK\IBK_DRFN\ProjSrc\SrcDrfn\Chart\comparechart\control\NsyButtonListCtrl.cpp
; File C:\Program Files (x86)\Microsoft Visual Studio\2019\Community\VC\Tools\MSVC\14.29.30133\atlmfc\include\afxwin2.inl
; File D:\git\src\IBK\IBK_DRFN\ProjSrc\SrcDrfn\Chart\comparechart\control\NsyButtonListCtrl.cpp
; File C:\Program Files (x86)\Microsoft Visual Studio\2019\Community\VC\Tools\MSVC\14.29.30133\atlmfc\include\afxcoll.inl
; File D:\git\src\IBK\IBK_DRFN\ProjSrc\SrcDrfn\Chart\comparechart\control\NsyButtonListCtrl.cpp
;	COMDAT ?WindowProc@CNsyButtonListCtrl@@MAEJIIJ@Z
_TEXT	SEGMENT
_sTemp$ = -20						; size = 4
$T2 = -16						; size = 4
__$EHRec$ = -12						; size = 12
_message$ = 8						; size = 4
_wParam$ = 12						; size = 4
_strCode$3 = 16						; size = 4
_lParam$ = 16						; size = 4
?WindowProc@CNsyButtonListCtrl@@MAEJIIJ@Z PROC		; CNsyButtonListCtrl::WindowProc, COMDAT
; _this$ = ecx

; 197  : {

  00000	55		 push	 ebp
  00001	8b ec		 mov	 ebp, esp
  00003	6a ff		 push	 -1
  00005	68 00 00 00 00	 push	 __ehhandler$?WindowProc@CNsyButtonListCtrl@@MAEJIIJ@Z
  0000a	64 a1 00 00 00
	00		 mov	 eax, DWORD PTR fs:0
  00010	50		 push	 eax
  00011	83 ec 08	 sub	 esp, 8
  00014	53		 push	 ebx
  00015	56		 push	 esi
  00016	57		 push	 edi
  00017	a1 00 00 00 00	 mov	 eax, DWORD PTR ___security_cookie
  0001c	33 c5		 xor	 eax, ebp
  0001e	50		 push	 eax
  0001f	8d 45 f4	 lea	 eax, DWORD PTR __$EHRec$[ebp]
  00022	64 a3 00 00 00
	00		 mov	 DWORD PTR fs:0, eax
  00028	8b f9		 mov	 edi, ecx

; 198  : 	// TODO: Add your specialized code here and/or call the base class
; 199  : 	CString sTemp;

  0002a	8d 4d ec	 lea	 ecx, DWORD PTR _sTemp$[ebp]
  0002d	ff 15 00 00 00
	00		 call	 DWORD PTR __imp_??0?$CStringT@DV?$StrTraitMFC_DLL@DV?$ChTraitsCRT@D@ATL@@@@@ATL@@QAE@XZ

; 200  : 	switch(message)

  00033	81 7d 08 11 01
	00 00		 cmp	 DWORD PTR _message$[ebp], 273 ; 00000111H
  0003a	8b 5d 10	 mov	 ebx, DWORD PTR _lParam$[ebp]
  0003d	8b 75 0c	 mov	 esi, DWORD PTR _wParam$[ebp]
  00040	c7 45 fc 00 00
	00 00		 mov	 DWORD PTR __$EHRec$[ebp+8], 0
  00047	0f 85 10 01 00
	00		 jne	 $LN5@WindowProc

; 201  : 	{	
; 202  : //		case WM_COMMAND:
; 203  : //			{
; 204  : //				if( BN_CLICKED == (int)HIWORD(wParam) )				
; 205  : //				{
; 206  : //					for(int i = 0; i < m_ptrArrayBtnWnd.GetSize(); i++)
; 207  : //					{
; 208  : //						BTNINFO *pBtnInfo = NULL;
; 209  : //						pBtnInfo = (BTNINFO*)m_ptrArrayBtnWnd.GetAt(i);
; 210  : //						if(pBtnInfo != NULL)
; 211  : //						{
; 212  : //							if( pBtnInfo->xSkinButton.GetSafeHwnd() == (HWND)lParam)
; 213  : //							{
; 214  : //								DeleteChartData(i);
; 215  : //								
; 216  : //								pBtnInfo->xSkinButton.DestroyWindow();
; 217  : //								delete pBtnInfo;
; 218  : //								m_ptrArrayBtnWnd.RemoveAt(i);
; 219  : //								DeleteItem(i);
; 220  : //								Invalidate();
; 221  : //
; 222  : //								//     Index Button   .
; 223  : //								for(int j = i; j < m_ptrArrayBtnWnd.GetSize(); j++)
; 224  : //								{
; 225  : //									BTNINFO *pBtnInfo2 = NULL;
; 226  : //									pBtnInfo2 = (BTNINFO*)m_ptrArrayBtnWnd.GetAt(j);
; 227  : //									if(pBtnInfo2 != NULL)
; 228  : //									{
; 229  : //										if( pBtnInfo2->xSkinButton.GetSafeHwnd())
; 230  : //										{											
; 231  : //											pBtnInfo2->nIndex -= 1;
; 232  : //											CRect subRect;
; 233  : //											GetSubItemRect(pBtnInfo2->nIndex, 1,LVIR_BOUNDS, subRect);
; 234  : //											pBtnInfo2->xSkinButton.MoveWindow(subRect);
; 235  : //										}
; 236  : //									}
; 237  : //								}
; 238  : //
; 239  : //								Invalidate();
; 240  : //								return S_OK;
; 241  : //							}
; 242  : //						}
; 243  : //					}
; 244  : //				}
; 245  : //			}
; 246  : //			break;
; 247  : 		case WM_COMMAND:
; 248  : 			{
; 249  : 				if( BN_CLICKED == (int)HIWORD(wParam) )				

  0004d	8b c6		 mov	 eax, esi
  0004f	33 c9		 xor	 ecx, ecx
  00051	c1 e8 10	 shr	 eax, 16			; 00000010H
  00054	66 3b c8	 cmp	 cx, ax
  00057	0f 85 00 01 00
	00		 jne	 $LN5@WindowProc

; 250  : 				{
; 251  : 					int nCount = m_ptrArrayBtnWnd.GetSize();

  0005d	8b 97 20 02 00
	00		 mov	 edx, DWORD PTR [edi+544]

; 252  : 					if(nCount==1)

  00063	83 fa 01	 cmp	 edx, 1
  00066	0f 85 1e 01 00
	00		 jne	 $LN9@WindowProc
; File C:\Program Files (x86)\Microsoft Visual Studio\2019\Community\VC\Tools\MSVC\14.29.30133\atlmfc\include\afxcmn.inl

; 155  : 	{ ASSERT(::IsWindow(m_hWnd)); return (int) ::SendMessage(m_hWnd, LVM_GETITEMCOUNT, 0, 0L); }

  0006c	51		 push	 ecx
  0006d	51		 push	 ecx
  0006e	68 04 10 00 00	 push	 4100			; 00001004H
  00073	ff 77 20	 push	 DWORD PTR [edi+32]
  00076	ff 15 00 00 00
	00		 call	 DWORD PTR __imp__SendMessageA@16
; File D:\git\src\IBK\IBK_DRFN\ProjSrc\SrcDrfn\Chart\comparechart\control\NsyButtonListCtrl.cpp

; 384  : 	for(int i=nTot-1; i >= 0; i--)

  0007c	8d 70 ff	 lea	 esi, DWORD PTR [eax-1]
  0007f	85 f6		 test	 esi, esi
  00081	78 50		 js	 SHORT $LN18@WindowProc
$LL19@WindowProc:

; 385  : 	{
; 386  : 		CString strCode;

  00083	8d 4d 10	 lea	 ecx, DWORD PTR _strCode$3[ebp]
  00086	ff 15 00 00 00
	00		 call	 DWORD PTR __imp_??0?$CStringT@DV?$StrTraitMFC_DLL@DV?$ChTraitsCRT@D@ATL@@@@@ATL@@QAE@XZ

; 387  : 		strCode = GetItemText(i, 1);

  0008c	6a 01		 push	 1
  0008e	56		 push	 esi
  0008f	8d 45 f0	 lea	 eax, DWORD PTR $T2[ebp]
  00092	c6 45 fc 01	 mov	 BYTE PTR __$EHRec$[ebp+8], 1
  00096	50		 push	 eax
  00097	8b cf		 mov	 ecx, edi
  00099	e8 00 00 00 00	 call	 ?GetItemText@CListCtrl@@QBE?AV?$CStringT@DV?$StrTraitMFC_DLL@DV?$ChTraitsCRT@D@ATL@@@@@ATL@@HH@Z ; CListCtrl::GetItemText
  0009e	50		 push	 eax
  0009f	8d 4d 10	 lea	 ecx, DWORD PTR _strCode$3[ebp]
  000a2	c6 45 fc 02	 mov	 BYTE PTR __$EHRec$[ebp+8], 2
  000a6	ff 15 00 00 00
	00		 call	 DWORD PTR __imp_??4?$CStringT@DV?$StrTraitMFC_DLL@DV?$ChTraitsCRT@D@ATL@@@@@ATL@@QAEAAV01@ABV01@@Z
  000ac	8d 4d f0	 lea	 ecx, DWORD PTR $T2[ebp]
  000af	c6 45 fc 01	 mov	 BYTE PTR __$EHRec$[ebp+8], 1
  000b3	ff 15 00 00 00
	00		 call	 DWORD PTR __imp_??1?$CStringT@DV?$StrTraitMFC_DLL@DV?$ChTraitsCRT@D@ATL@@@@@ATL@@QAE@XZ

; 388  : 		// 1. Real     .
; 389  : 		//DeleteChartData(i);		
; 390  : 		SendToChartRemoveGraph(i);

  000b9	56		 push	 esi
  000ba	8b cf		 mov	 ecx, edi
  000bc	e8 00 00 00 00	 call	 ?SendToChartRemoveGraph@CNsyButtonListCtrl@@QAEXH@Z ; CNsyButtonListCtrl::SendToChartRemoveGraph

; 391  : 	}

  000c1	8d 4d 10	 lea	 ecx, DWORD PTR _strCode$3[ebp]
  000c4	c6 45 fc 00	 mov	 BYTE PTR __$EHRec$[ebp+8], 0
  000c8	ff 15 00 00 00
	00		 call	 DWORD PTR __imp_??1?$CStringT@DV?$StrTraitMFC_DLL@DV?$ChTraitsCRT@D@ATL@@@@@ATL@@QAE@XZ
  000ce	83 ee 01	 sub	 esi, 1
  000d1	79 b0		 jns	 SHORT $LL19@WindowProc
$LN18@WindowProc:

; 392  : 	//2. List  
; 393  : 	DeleteAllItems();

  000d3	8b cf		 mov	 ecx, edi
  000d5	e8 00 00 00 00	 call	 ?DeleteAllItems@CXListCtrl@@QAEHXZ ; CXListCtrl::DeleteAllItems

; 394  : 
; 395  : 	//3. BtnArray  .
; 396  : 	ClearArrayBtnWnd();

  000da	8b cf		 mov	 ecx, edi
  000dc	e8 00 00 00 00	 call	 ?ClearArrayBtnWnd@CNsyButtonListCtrl@@QAEXXZ ; CNsyButtonListCtrl::ClearArrayBtnWnd
; File C:\Program Files (x86)\Microsoft Visual Studio\2019\Community\VC\Tools\MSVC\14.29.30133\atlmfc\include\afxwin2.inl

; 114  : 	{ ASSERT(::IsWindow(m_hWnd)); ::InvalidateRect(m_hWnd, NULL, bErase); }

  000e1	6a 01		 push	 1
  000e3	6a 00		 push	 0
  000e5	ff 77 20	 push	 DWORD PTR [edi+32]
  000e8	ff 15 00 00 00
	00		 call	 DWORD PTR __imp__InvalidateRect@12

; 213  : 	{ ASSERT(::IsWindow(m_hWnd)); return CWnd::FromHandle(::GetParent(m_hWnd)); }

  000ee	ff 77 20	 push	 DWORD PTR [edi+32]
  000f1	8b 35 00 00 00
	00		 mov	 esi, DWORD PTR __imp__GetParent@4
  000f7	ff d6		 call	 esi
  000f9	50		 push	 eax
  000fa	e8 00 00 00 00	 call	 ?FromHandle@CWnd@@SGPAV1@PAUHWND__@@@Z ; CWnd::FromHandle
  000ff	ff 70 20	 push	 DWORD PTR [eax+32]
  00102	ff d6		 call	 esi
  00104	50		 push	 eax
  00105	e8 00 00 00 00	 call	 ?FromHandle@CWnd@@SGPAV1@PAUHWND__@@@Z ; CWnd::FromHandle
  0010a	ff 70 20	 push	 DWORD PTR [eax+32]
  0010d	ff d6		 call	 esi
  0010f	50		 push	 eax
  00110	e8 00 00 00 00	 call	 ?FromHandle@CWnd@@SGPAV1@PAUHWND__@@@Z ; CWnd::FromHandle

; 32   : 	{ ASSERT(::IsWindow(m_hWnd)); return ::SendMessage(m_hWnd, message, wParam, lParam); }

  00115	6a 00		 push	 0
  00117	6a 00		 push	 0
  00119	68 0d 04 00 00	 push	 1037			; 0000040dH
  0011e	ff 70 20	 push	 DWORD PTR [eax+32]
  00121	ff 15 00 00 00
	00		 call	 DWORD PTR __imp__SendMessageA@16

; 213  : 	{ ASSERT(::IsWindow(m_hWnd)); return CWnd::FromHandle(::GetParent(m_hWnd)); }

  00127	ff 77 20	 push	 DWORD PTR [edi+32]
  0012a	ff d6		 call	 esi
  0012c	50		 push	 eax
  0012d	e8 00 00 00 00	 call	 ?FromHandle@CWnd@@SGPAV1@PAUHWND__@@@Z ; CWnd::FromHandle
  00132	ff 70 20	 push	 DWORD PTR [eax+32]
  00135	ff d6		 call	 esi
  00137	50		 push	 eax
  00138	e8 00 00 00 00	 call	 ?FromHandle@CWnd@@SGPAV1@PAUHWND__@@@Z ; CWnd::FromHandle
  0013d	ff 70 20	 push	 DWORD PTR [eax+32]
  00140	ff d6		 call	 esi
  00142	50		 push	 eax
  00143	e8 00 00 00 00	 call	 ?FromHandle@CWnd@@SGPAV1@PAUHWND__@@@Z ; CWnd::FromHandle

; 32   : 	{ ASSERT(::IsWindow(m_hWnd)); return ::SendMessage(m_hWnd, message, wParam, lParam); }

  00148	6a 00		 push	 0
  0014a	6a 00		 push	 0
  0014c	68 9d 04 00 00	 push	 1181			; 0000049dH
  00151	ff 70 20	 push	 DWORD PTR [eax+32]
  00154	ff 15 00 00 00
	00		 call	 DWORD PTR __imp__SendMessageA@16
; File D:\git\src\IBK\IBK_DRFN\ProjSrc\SrcDrfn\Chart\comparechart\control\NsyButtonListCtrl.cpp

; 255  : 					}

  0015a	8b 75 0c	 mov	 esi, DWORD PTR _wParam$[ebp]
$LN5@WindowProc:

; 267  : 									return S_OK;
; 268  : 								}
; 269  : 							}
; 270  : 						}
; 271  : 					}
; 272  : 				}
; 273  : 			}
; 274  : 			break;
; 275  : 	}
; 276  : 	return CListCtrl::WindowProc(message, wParam, lParam);

  0015d	53		 push	 ebx
  0015e	56		 push	 esi
  0015f	ff 75 08	 push	 DWORD PTR _message$[ebp]
  00162	8b cf		 mov	 ecx, edi
  00164	e8 00 00 00 00	 call	 ?WindowProc@CWnd@@MAEJIIJ@Z ; CWnd::WindowProc
  00169	8b f0		 mov	 esi, eax
$LN15@WindowProc:
  0016b	8d 4d ec	 lea	 ecx, DWORD PTR _sTemp$[ebp]
  0016e	ff 15 00 00 00
	00		 call	 DWORD PTR __imp_??1?$CStringT@DV?$StrTraitMFC_DLL@DV?$ChTraitsCRT@D@ATL@@@@@ATL@@QAE@XZ
  00174	8b c6		 mov	 eax, esi

; 277  : }

  00176	8b 4d f4	 mov	 ecx, DWORD PTR __$EHRec$[ebp]
  00179	64 89 0d 00 00
	00 00		 mov	 DWORD PTR fs:0, ecx
  00180	59		 pop	 ecx
  00181	5f		 pop	 edi
  00182	5e		 pop	 esi
  00183	5b		 pop	 ebx
  00184	8b e5		 mov	 esp, ebp
  00186	5d		 pop	 ebp
  00187	c2 0c 00	 ret	 12			; 0000000cH
$LN9@WindowProc:

; 256  : 					else
; 257  : 					{
; 258  : 						for(int i = 0; i < nCount; i++)

  0018a	33 c0		 xor	 eax, eax
  0018c	85 d2		 test	 edx, edx
  0018e	7e cd		 jle	 SHORT $LN5@WindowProc
$LL6@WindowProc:
; File C:\Program Files (x86)\Microsoft Visual Studio\2019\Community\VC\Tools\MSVC\14.29.30133\atlmfc\include\afxcoll.inl

; 203  : 		if( nIndex < 0 || nIndex >= m_nSize )

  00190	85 c0		 test	 eax, eax
  00192	78 30		 js	 SHORT $LN45@WindowProc
  00194	3b c2		 cmp	 eax, edx
  00196	7d 2c		 jge	 SHORT $LN45@WindowProc

; 205  : 		return m_pData[nIndex]; }

  00198	8b 8f 1c 02 00
	00		 mov	 ecx, DWORD PTR [edi+540]
  0019e	8b 0c 81	 mov	 ecx, DWORD PTR [ecx+eax*4]
; File D:\git\src\IBK\IBK_DRFN\ProjSrc\SrcDrfn\Chart\comparechart\control\NsyButtonListCtrl.cpp

; 262  : 							if(pBtnInfo != NULL)

  001a1	85 c9		 test	 ecx, ecx
  001a3	74 0c		 je	 SHORT $LN4@WindowProc

; 264  : 								if( pBtnInfo->xSkinButton.GetSafeHwnd() == (HWND)lParam)

  001a5	83 c1 08	 add	 ecx, 8
; File C:\Program Files (x86)\Microsoft Visual Studio\2019\Community\VC\Tools\MSVC\14.29.30133\atlmfc\include\afxwin2.inl

; 25   : 	{ return this == NULL ? NULL : m_hWnd; }

  001a8	74 03		 je	 SHORT $LN51@WindowProc
$LN50@WindowProc:
  001aa	8b 49 20	 mov	 ecx, DWORD PTR [ecx+32]
$LN51@WindowProc:
; File D:\git\src\IBK\IBK_DRFN\ProjSrc\SrcDrfn\Chart\comparechart\control\NsyButtonListCtrl.cpp

; 264  : 								if( pBtnInfo->xSkinButton.GetSafeHwnd() == (HWND)lParam)

  001ad	3b cb		 cmp	 ecx, ebx
  001af	74 07		 je	 SHORT $LN55@WindowProc
$LN4@WindowProc:

; 256  : 					else
; 257  : 					{
; 258  : 						for(int i = 0; i < nCount; i++)

  001b1	40		 inc	 eax
  001b2	3b c2		 cmp	 eax, edx
  001b4	7c da		 jl	 SHORT $LL6@WindowProc
  001b6	eb a5		 jmp	 SHORT $LN5@WindowProc
$LN55@WindowProc:

; 265  : 								{
; 266  : 									SendToChartRemoveGraph(i);

  001b8	50		 push	 eax
  001b9	8b cf		 mov	 ecx, edi
  001bb	e8 00 00 00 00	 call	 ?SendToChartRemoveGraph@CNsyButtonListCtrl@@QAEXH@Z ; CNsyButtonListCtrl::SendToChartRemoveGraph
  001c0	33 f6		 xor	 esi, esi
  001c2	eb a7		 jmp	 SHORT $LN15@WindowProc
$LN45@WindowProc:
; File C:\Program Files (x86)\Microsoft Visual Studio\2019\Community\VC\Tools\MSVC\14.29.30133\atlmfc\include\afxcoll.inl

; 204  : 			AfxThrowInvalidArgException();

  001c4	e8 00 00 00 00	 call	 ?AfxThrowInvalidArgException@@YGXXZ ; AfxThrowInvalidArgException
$LN64@WindowProc:
  001c9	cc		 int	 3
_TEXT	ENDS
;	COMDAT text$x
text$x	SEGMENT
__unwindfunclet$?WindowProc@CNsyButtonListCtrl@@MAEJIIJ@Z$0:
  00000	8d 4d ec	 lea	 ecx, DWORD PTR _sTemp$[ebp]
  00003	ff 25 00 00 00
	00		 jmp	 DWORD PTR __imp_??1?$CStringT@DV?$StrTraitMFC_DLL@DV?$ChTraitsCRT@D@ATL@@@@@ATL@@QAE@XZ
__unwindfunclet$?WindowProc@CNsyButtonListCtrl@@MAEJIIJ@Z$1:
  00009	8d 4d 10	 lea	 ecx, DWORD PTR _strCode$3[ebp]
  0000c	ff 25 00 00 00
	00		 jmp	 DWORD PTR __imp_??1?$CStringT@DV?$StrTraitMFC_DLL@DV?$ChTraitsCRT@D@ATL@@@@@ATL@@QAE@XZ
__unwindfunclet$?WindowProc@CNsyButtonListCtrl@@MAEJIIJ@Z$2:
  00012	8d 4d f0	 lea	 ecx, DWORD PTR $T2[ebp]
  00015	ff 25 00 00 00
	00		 jmp	 DWORD PTR __imp_??1?$CStringT@DV?$StrTraitMFC_DLL@DV?$ChTraitsCRT@D@ATL@@@@@ATL@@QAE@XZ
  0001b	cc		 int	 3
  0001c	cc		 int	 3
  0001d	cc		 int	 3
  0001e	cc		 int	 3
  0001f	cc		 int	 3
__ehhandler$?WindowProc@CNsyButtonListCtrl@@MAEJIIJ@Z:
  00020	90		 npad	 1
  00021	90		 npad	 1
  00022	8b 54 24 08	 mov	 edx, DWORD PTR [esp+8]
  00026	8d 42 0c	 lea	 eax, DWORD PTR [edx+12]
  00029	8b 4a e8	 mov	 ecx, DWORD PTR [edx-24]
  0002c	33 c8		 xor	 ecx, eax
  0002e	e8 00 00 00 00	 call	 @__security_check_cookie@4
  00033	b8 00 00 00 00	 mov	 eax, OFFSET __ehfuncinfo$?WindowProc@CNsyButtonListCtrl@@MAEJIIJ@Z
  00038	e9 00 00 00 00	 jmp	 ___CxxFrameHandler3
text$x	ENDS
?WindowProc@CNsyButtonListCtrl@@MAEJIIJ@Z ENDP		; CNsyButtonListCtrl::WindowProc
; Function compile flags: /Ogtp
; File D:\git\src\IBK\IBK_DRFN\ProjSrc\SrcDrfn\Chart\comparechart\control\NsyButtonListCtrl.cpp
;	COMDAT ?OnDestroy@CNsyButtonListCtrl@@IAEXXZ
_TEXT	SEGMENT
?OnDestroy@CNsyButtonListCtrl@@IAEXXZ PROC		; CNsyButtonListCtrl::OnDestroy, COMDAT
; _this$ = ecx

; 189  : {

  00000	56		 push	 esi
  00001	8b f1		 mov	 esi, ecx

; 190  : 	ClearArrayBtnWnd();

  00003	e8 00 00 00 00	 call	 ?ClearArrayBtnWnd@CNsyButtonListCtrl@@QAEXXZ ; CNsyButtonListCtrl::ClearArrayBtnWnd

; 191  : 
; 192  : 	
; 193  : 	CListCtrl::OnDestroy();

  00008	8b ce		 mov	 ecx, esi
  0000a	5e		 pop	 esi
  0000b	e9 00 00 00 00	 jmp	 ?OnDestroy@CWnd@@IAEXXZ	; CWnd::OnDestroy
?OnDestroy@CNsyButtonListCtrl@@IAEXXZ ENDP		; CNsyButtonListCtrl::OnDestroy
_TEXT	ENDS
; Function compile flags: /Ogtp
; File D:\git\src\IBK\IBK_DRFN\ProjSrc\SrcDrfn\Chart\comparechart\control\NsyButtonListCtrl.cpp
; File C:\Program Files (x86)\Microsoft Visual Studio\2019\Community\VC\Tools\MSVC\14.29.30133\atlmfc\include\afxwin2.inl
; File D:\git\src\IBK\IBK_DRFN\ProjSrc\SrcDrfn\Chart\comparechart\control\NsyButtonListCtrl.cpp
; File C:\Program Files (x86)\Microsoft Visual Studio\2019\Community\VC\Tools\MSVC\14.29.30133\atlmfc\include\afxcmn.inl
; File D:\git\src\IBK\IBK_DRFN\ProjSrc\SrcDrfn\Chart\comparechart\control\NsyButtonListCtrl.cpp
; File C:\Program Files (x86)\Microsoft Visual Studio\2019\Community\VC\Tools\MSVC\14.29.30133\atlmfc\include\afxcoll.inl
; File D:\git\src\IBK\IBK_DRFN\ProjSrc\SrcDrfn\Chart\comparechart\control\NsyButtonListCtrl.cpp
; File C:\Program Files (x86)\Microsoft Visual Studio\2019\Community\VC\Tools\MSVC\14.29.30133\atlmfc\include\afxcmn.inl
; File C:\Program Files (x86)\Microsoft Visual Studio\2019\Community\VC\Tools\MSVC\14.29.30133\atlmfc\include\atltypes.h
; File C:\Program Files (x86)\Microsoft Visual Studio\2019\Community\VC\Tools\MSVC\14.29.30133\atlmfc\include\afxcmn.inl
; File D:\git\src\IBK\IBK_DRFN\ProjSrc\SrcDrfn\Chart\comparechart\control\NsyButtonListCtrl.cpp
; File C:\Program Files (x86)\Microsoft Visual Studio\2019\Community\VC\Tools\MSVC\14.29.30133\atlmfc\include\afxwin2.inl
; File D:\git\src\IBK\IBK_DRFN\ProjSrc\SrcDrfn\Chart\comparechart\control\NsyButtonListCtrl.cpp
; File C:\Program Files (x86)\Microsoft Visual Studio\2019\Community\VC\Tools\MSVC\14.29.30133\atlmfc\include\afxwin2.inl
; File D:\git\src\IBK\IBK_DRFN\ProjSrc\SrcDrfn\Chart\comparechart\control\NsyButtonListCtrl.cpp
; File C:\Program Files (x86)\Microsoft Visual Studio\2019\Community\VC\Tools\MSVC\14.29.30133\atlmfc\include\afxcoll.inl
; File D:\git\src\IBK\IBK_DRFN\ProjSrc\SrcDrfn\Chart\comparechart\control\NsyButtonListCtrl.cpp
; File C:\Program Files (x86)\Microsoft Visual Studio\2019\Community\VC\Tools\MSVC\14.29.30133\atlmfc\include\afxcoll.inl
; File D:\git\src\IBK\IBK_DRFN\ProjSrc\SrcDrfn\Chart\comparechart\control\NsyButtonListCtrl.cpp
;	COMDAT ?OnSize@CNsyButtonListCtrl@@IAEXIHH@Z
_TEXT	SEGMENT
_subRect$1 = -20					; size = 16
__$ArrayPad$ = -4					; size = 4
_nType$ = 8						; size = 4
_cx$ = 12						; size = 4
_cy$ = 16						; size = 4
?OnSize@CNsyButtonListCtrl@@IAEXIHH@Z PROC		; CNsyButtonListCtrl::OnSize, COMDAT
; _this$ = ecx

; 153  : {

  00000	55		 push	 ebp
  00001	8b ec		 mov	 ebp, esp
  00003	83 ec 14	 sub	 esp, 20			; 00000014H
  00006	a1 00 00 00 00	 mov	 eax, DWORD PTR ___security_cookie
  0000b	33 c5		 xor	 eax, ebp
  0000d	89 45 fc	 mov	 DWORD PTR __$ArrayPad$[ebp], eax
  00010	57		 push	 edi
  00011	8b f9		 mov	 edi, ecx
; File C:\Program Files (x86)\Microsoft Visual Studio\2019\Community\VC\Tools\MSVC\14.29.30133\atlmfc\include\afxwin2.inl

; 330  : 	{ Default(); }

  00013	e8 00 00 00 00	 call	 ?Default@CWnd@@IAEJXZ	; CWnd::Default

; 25   : 	{ return this == NULL ? NULL : m_hWnd; }

  00018	85 ff		 test	 edi, edi
  0001a	0f 84 a2 00 00
	00		 je	 $LN3@OnSize
  00020	8b 4f 20	 mov	 ecx, DWORD PTR [edi+32]
; File D:\git\src\IBK\IBK_DRFN\ProjSrc\SrcDrfn\Chart\comparechart\control\NsyButtonListCtrl.cpp

; 155  : 	if(GetSafeHwnd())

  00023	85 c9		 test	 ecx, ecx
  00025	0f 84 97 00 00
	00		 je	 $LN3@OnSize

; 156  : 	{
; 157  : 		SetColumnWidth(0, cx - 20);	

  0002b	8b 45 0c	 mov	 eax, DWORD PTR _cx$[ebp]
  0002e	56		 push	 esi
  0002f	83 c0 ec	 add	 eax, -20		; ffffffecH
; File C:\Program Files (x86)\Microsoft Visual Studio\2019\Community\VC\Tools\MSVC\14.29.30133\atlmfc\include\afxcmn.inl

; 215  : 	{ ASSERT(::IsWindow(m_hWnd)); return (BOOL) ::SendMessage(m_hWnd, LVM_SETCOLUMNWIDTH, nCol, MAKELPARAM(cx, 0)); }

  00032	0f b7 c0	 movzx	 eax, ax
  00035	50		 push	 eax
  00036	6a 00		 push	 0
  00038	68 1e 10 00 00	 push	 4126			; 0000101eH
  0003d	51		 push	 ecx
  0003e	ff 15 00 00 00
	00		 call	 DWORD PTR __imp__SendMessageA@16
; File D:\git\src\IBK\IBK_DRFN\ProjSrc\SrcDrfn\Chart\comparechart\control\NsyButtonListCtrl.cpp

; 158  : 		for(int i = 0; i < m_ptrArrayBtnWnd.GetSize(); i++)

  00044	8b 87 20 02 00
	00		 mov	 eax, DWORD PTR [edi+544]
  0004a	33 f6		 xor	 esi, esi
  0004c	85 c0		 test	 eax, eax
  0004e	7e 71		 jle	 SHORT $LN33@OnSize
  00050	53		 push	 ebx
$LL4@OnSize:
; File C:\Program Files (x86)\Microsoft Visual Studio\2019\Community\VC\Tools\MSVC\14.29.30133\atlmfc\include\afxcoll.inl

; 203  : 		if( nIndex < 0 || nIndex >= m_nSize )

  00051	85 f6		 test	 esi, esi
  00053	0f 88 7a 00 00
	00		 js	 $LN29@OnSize
  00059	3b f0		 cmp	 esi, eax
  0005b	7d 76		 jge	 SHORT $LN29@OnSize

; 205  : 		return m_pData[nIndex]; }

  0005d	8b 87 1c 02 00
	00		 mov	 eax, DWORD PTR [edi+540]
  00063	8b 1c b0	 mov	 ebx, DWORD PTR [eax+esi*4]
; File D:\git\src\IBK\IBK_DRFN\ProjSrc\SrcDrfn\Chart\comparechart\control\NsyButtonListCtrl.cpp

; 162  : 			if(pBtnInfo != NULL)

  00066	85 db		 test	 ebx, ebx
  00068	74 4b		 je	 SHORT $LN2@OnSize
; File C:\Program Files (x86)\Microsoft Visual Studio\2019\Community\VC\Tools\MSVC\14.29.30133\atlmfc\include\afxcmn.inl

; 155  : 	{ ASSERT(::IsWindow(m_hWnd)); return (int) ::SendMessage(m_hWnd, LVM_GETITEMCOUNT, 0, 0L); }

  0006a	6a 00		 push	 0
  0006c	6a 00		 push	 0
  0006e	68 04 10 00 00	 push	 4100			; 00001004H
  00073	ff 77 20	 push	 DWORD PTR [edi+32]
  00076	0f 57 c0	 xorps	 xmm0, xmm0
; File C:\Program Files (x86)\Microsoft Visual Studio\2019\Community\VC\Tools\MSVC\14.29.30133\atlmfc\include\atltypes.h

; 528  : 	left = 0;

  00079	0f 11 45 ec	 movups	 XMMWORD PTR _subRect$1[ebp], xmm0
; File C:\Program Files (x86)\Microsoft Visual Studio\2019\Community\VC\Tools\MSVC\14.29.30133\atlmfc\include\afxcmn.inl

; 155  : 	{ ASSERT(::IsWindow(m_hWnd)); return (int) ::SendMessage(m_hWnd, LVM_GETITEMCOUNT, 0, 0L); }

  0007d	ff 15 00 00 00
	00		 call	 DWORD PTR __imp__SendMessageA@16
; File D:\git\src\IBK\IBK_DRFN\ProjSrc\SrcDrfn\Chart\comparechart\control\NsyButtonListCtrl.cpp

; 165  : 				if(i < GetItemCount())

  00083	3b f0		 cmp	 esi, eax
  00085	7d 2e		 jge	 SHORT $LN2@OnSize

; 166  : 				{
; 167  : 					GetSubItemRect(i, 1,LVIR_BOUNDS, subRect);

  00087	8d 45 ec	 lea	 eax, DWORD PTR _subRect$1[ebp]
  0008a	8b cf		 mov	 ecx, edi
  0008c	50		 push	 eax
  0008d	6a 00		 push	 0
  0008f	6a 01		 push	 1
  00091	56		 push	 esi
  00092	e8 00 00 00 00	 call	 ?GetSubItemRect@CXListCtrl@@QAEHHHHAAVCRect@@@Z ; CXListCtrl::GetSubItemRect
; File C:\Program Files (x86)\Microsoft Visual Studio\2019\Community\VC\Tools\MSVC\14.29.30133\atlmfc\include\afxwin2.inl

; 73   : 	{ MoveWindow(lpRect->left, lpRect->top, lpRect->right - lpRect->left,

  00097	8b 45 f8	 mov	 eax, DWORD PTR _subRect$1[ebp+12]
  0009a	8b 55 f0	 mov	 edx, DWORD PTR _subRect$1[ebp+4]
  0009d	2b c2		 sub	 eax, edx
  0009f	8b 4d ec	 mov	 ecx, DWORD PTR _subRect$1[ebp]
  000a2	6a 01		 push	 1
  000a4	50		 push	 eax
  000a5	8b 45 f4	 mov	 eax, DWORD PTR _subRect$1[ebp+8]
  000a8	2b c1		 sub	 eax, ecx
  000aa	50		 push	 eax
  000ab	52		 push	 edx
  000ac	51		 push	 ecx
; File D:\git\src\IBK\IBK_DRFN\ProjSrc\SrcDrfn\Chart\comparechart\control\NsyButtonListCtrl.cpp

; 168  : 					pBtnInfo->xSkinButton.MoveWindow(subRect);

  000ad	8d 4b 08	 lea	 ecx, DWORD PTR [ebx+8]
; File C:\Program Files (x86)\Microsoft Visual Studio\2019\Community\VC\Tools\MSVC\14.29.30133\atlmfc\include\afxwin2.inl

; 73   : 	{ MoveWindow(lpRect->left, lpRect->top, lpRect->right - lpRect->left,

  000b0	e8 00 00 00 00	 call	 ?MoveWindow@CWnd@@QAEXHHHHH@Z ; CWnd::MoveWindow
$LN2@OnSize:
; File D:\git\src\IBK\IBK_DRFN\ProjSrc\SrcDrfn\Chart\comparechart\control\NsyButtonListCtrl.cpp

; 158  : 		for(int i = 0; i < m_ptrArrayBtnWnd.GetSize(); i++)

  000b5	8b 87 20 02 00
	00		 mov	 eax, DWORD PTR [edi+544]
  000bb	46		 inc	 esi
  000bc	3b f0		 cmp	 esi, eax
  000be	7c 91		 jl	 SHORT $LL4@OnSize
; File C:\Program Files (x86)\Microsoft Visual Studio\2019\Community\VC\Tools\MSVC\14.29.30133\atlmfc\include\afxcoll.inl

; 203  : 		if( nIndex < 0 || nIndex >= m_nSize )

  000c0	5b		 pop	 ebx
$LN33@OnSize:
  000c1	5e		 pop	 esi
$LN3@OnSize:
; File D:\git\src\IBK\IBK_DRFN\ProjSrc\SrcDrfn\Chart\comparechart\control\NsyButtonListCtrl.cpp

; 186  : }

  000c2	8b 4d fc	 mov	 ecx, DWORD PTR __$ArrayPad$[ebp]
  000c5	33 cd		 xor	 ecx, ebp
  000c7	5f		 pop	 edi
  000c8	e8 00 00 00 00	 call	 @__security_check_cookie@4
  000cd	8b e5		 mov	 esp, ebp
  000cf	5d		 pop	 ebp
  000d0	c2 0c 00	 ret	 12			; 0000000cH
$LN29@OnSize:
; File C:\Program Files (x86)\Microsoft Visual Studio\2019\Community\VC\Tools\MSVC\14.29.30133\atlmfc\include\afxcoll.inl

; 204  : 			AfxThrowInvalidArgException();

  000d3	e8 00 00 00 00	 call	 ?AfxThrowInvalidArgException@@YGXXZ ; AfxThrowInvalidArgException
$LN34@OnSize:
  000d8	cc		 int	 3
?OnSize@CNsyButtonListCtrl@@IAEXIHH@Z ENDP		; CNsyButtonListCtrl::OnSize
_TEXT	ENDS
; Function compile flags: /Ogtp
; File D:\git\src\IBK\IBK_DRFN\ProjSrc\SrcDrfn\Chart\comparechart\control\NsyButtonListCtrl.cpp
; File C:\Program Files (x86)\Microsoft Visual Studio\2019\Community\VC\Tools\MSVC\14.29.30133\atlmfc\include\afxcoll.inl
; File D:\git\src\IBK\IBK_DRFN\ProjSrc\SrcDrfn\Chart\comparechart\control\NsyButtonListCtrl.cpp
; File C:\Program Files (x86)\Microsoft Visual Studio\2019\Community\VC\Tools\MSVC\14.29.30133\atlmfc\include\afxcoll.inl
; File D:\git\src\IBK\IBK_DRFN\ProjSrc\SrcDrfn\Chart\comparechart\control\NsyButtonListCtrl.cpp
; File C:\Program Files (x86)\Microsoft Visual Studio\2019\Community\VC\Tools\MSVC\14.29.30133\atlmfc\include\afxcoll.inl
; File D:\git\src\IBK\IBK_DRFN\ProjSrc\SrcDrfn\Chart\comparechart\control\NsyButtonListCtrl.cpp
;	COMDAT ?SetItemButtonVisible@CNsyButtonListCtrl@@QAEXHH@Z
_TEXT	SEGMENT
_nItem$ = 8						; size = 4
_bVisible$ = 12						; size = 4
?SetItemButtonVisible@CNsyButtonListCtrl@@QAEXHH@Z PROC	; CNsyButtonListCtrl::SetItemButtonVisible, COMDAT
; _this$ = ecx

; 481  : {

  00000	55		 push	 ebp
  00001	8b ec		 mov	 ebp, esp
  00003	56		 push	 esi
  00004	57		 push	 edi
  00005	8b f9		 mov	 edi, ecx

; 482  : 	for(int i = 0; i < m_ptrArrayBtnWnd.GetSize(); i++)

  00007	33 f6		 xor	 esi, esi
  00009	8b 87 20 02 00
	00		 mov	 eax, DWORD PTR [edi+544]
  0000f	85 c0		 test	 eax, eax
  00011	7e 37		 jle	 SHORT $LN3@SetItemBut
  00013	53		 push	 ebx
  00014	8b 5d 0c	 mov	 ebx, DWORD PTR _bVisible$[ebp]
$LL4@SetItemBut:
; File C:\Program Files (x86)\Microsoft Visual Studio\2019\Community\VC\Tools\MSVC\14.29.30133\atlmfc\include\afxcoll.inl

; 203  : 		if( nIndex < 0 || nIndex >= m_nSize )

  00017	85 f6		 test	 esi, esi
  00019	78 35		 js	 SHORT $LN15@SetItemBut
  0001b	3b f0		 cmp	 esi, eax
  0001d	7d 31		 jge	 SHORT $LN15@SetItemBut

; 205  : 		return m_pData[nIndex]; }

  0001f	8b 87 1c 02 00
	00		 mov	 eax, DWORD PTR [edi+540]
  00025	8b 04 b0	 mov	 eax, DWORD PTR [eax+esi*4]
; File D:\git\src\IBK\IBK_DRFN\ProjSrc\SrcDrfn\Chart\comparechart\control\NsyButtonListCtrl.cpp

; 486  : 		if(pBtnInfo != NULL)

  00028	85 c0		 test	 eax, eax
  0002a	74 12		 je	 SHORT $LN2@SetItemBut

; 487  : 		{
; 488  : 			if(bVisible)

  0002c	8d 48 08	 lea	 ecx, DWORD PTR [eax+8]
  0002f	85 db		 test	 ebx, ebx
  00031	74 04		 je	 SHORT $LN6@SetItemBut

; 489  : 				pBtnInfo->xSkinButton.ShowWindow(SW_SHOW);

  00033	6a 05		 push	 5
  00035	eb 02		 jmp	 SHORT $LN20@SetItemBut
$LN6@SetItemBut:

; 490  : 			else
; 491  : 				pBtnInfo->xSkinButton.ShowWindow(SW_HIDE);

  00037	6a 00		 push	 0
$LN20@SetItemBut:

; 482  : 	for(int i = 0; i < m_ptrArrayBtnWnd.GetSize(); i++)

  00039	e8 00 00 00 00	 call	 ?ShowWindow@CWnd@@QAEHH@Z ; CWnd::ShowWindow
$LN2@SetItemBut:
  0003e	8b 87 20 02 00
	00		 mov	 eax, DWORD PTR [edi+544]
  00044	46		 inc	 esi
  00045	3b f0		 cmp	 esi, eax
  00047	7c ce		 jl	 SHORT $LL4@SetItemBut
; File C:\Program Files (x86)\Microsoft Visual Studio\2019\Community\VC\Tools\MSVC\14.29.30133\atlmfc\include\afxcoll.inl

; 203  : 		if( nIndex < 0 || nIndex >= m_nSize )

  00049	5b		 pop	 ebx
$LN3@SetItemBut:
  0004a	5f		 pop	 edi
; File D:\git\src\IBK\IBK_DRFN\ProjSrc\SrcDrfn\Chart\comparechart\control\NsyButtonListCtrl.cpp

; 494  : }

  0004b	5e		 pop	 esi
  0004c	5d		 pop	 ebp
  0004d	c2 08 00	 ret	 8
$LN15@SetItemBut:
; File C:\Program Files (x86)\Microsoft Visual Studio\2019\Community\VC\Tools\MSVC\14.29.30133\atlmfc\include\afxcoll.inl

; 204  : 			AfxThrowInvalidArgException();

  00050	e8 00 00 00 00	 call	 ?AfxThrowInvalidArgException@@YGXXZ ; AfxThrowInvalidArgException
$LN19@SetItemBut:
  00055	cc		 int	 3
?SetItemButtonVisible@CNsyButtonListCtrl@@QAEXHH@Z ENDP	; CNsyButtonListCtrl::SetItemButtonVisible
_TEXT	ENDS
; Function compile flags: /Ogtp
; File D:\git\src\IBK\IBK_DRFN\ProjSrc\SrcDrfn\Chart\comparechart\control\NsyButtonListCtrl.cpp
; File C:\Program Files (x86)\Microsoft Visual Studio\2019\Community\VC\Tools\MSVC\14.29.30133\atlmfc\include\afxwin1.inl
; File D:\git\src\IBK\IBK_DRFN\ProjSrc\SrcDrfn\Chart\comparechart\control\NsyButtonListCtrl.cpp
;	COMDAT ??1CNsyButtonListCtrl@@UAE@XZ
_TEXT	SEGMENT
??1CNsyButtonListCtrl@@UAE@XZ PROC			; CNsyButtonListCtrl::~CNsyButtonListCtrl, COMDAT
; _this$ = ecx

; 25   : {

  00000	56		 push	 esi
  00001	8b f1		 mov	 esi, ecx

; 26   : }

  00003	8d 8e 2c 02 00
	00		 lea	 ecx, DWORD PTR [esi+556]
  00009	c7 06 00 00 00
	00		 mov	 DWORD PTR [esi], OFFSET ??_7CNsyButtonListCtrl@@6B@
  0000f	ff 15 00 00 00
	00		 call	 DWORD PTR __imp_??1?$CStringT@DV?$StrTraitMFC_DLL@DV?$ChTraitsCRT@D@ATL@@@@@ATL@@QAE@XZ
  00015	8d 8e 18 02 00
	00		 lea	 ecx, DWORD PTR [esi+536]
  0001b	e8 00 00 00 00	 call	 ??1CPtrArray@@UAE@XZ	; CPtrArray::~CPtrArray
  00020	8d 8e 10 02 00
	00		 lea	 ecx, DWORD PTR [esi+528]
; File C:\Program Files (x86)\Microsoft Visual Studio\2019\Community\VC\Tools\MSVC\14.29.30133\atlmfc\include\afxwin1.inl

; 155  : 	{ }

  00026	c7 01 00 00 00
	00		 mov	 DWORD PTR [ecx], OFFSET ??_7CFont@@6B@
  0002c	e8 00 00 00 00	 call	 ??1CGdiObject@@UAE@XZ	; CGdiObject::~CGdiObject
; File D:\git\src\IBK\IBK_DRFN\ProjSrc\SrcDrfn\Chart\comparechart\control\NsyButtonListCtrl.cpp

; 26   : }

  00031	8b ce		 mov	 ecx, esi
  00033	5e		 pop	 esi
  00034	e9 00 00 00 00	 jmp	 ??1CXListCtrl@@UAE@XZ	; CXListCtrl::~CXListCtrl
??1CNsyButtonListCtrl@@UAE@XZ ENDP			; CNsyButtonListCtrl::~CNsyButtonListCtrl
_TEXT	ENDS
; Function compile flags: /Ogtp
; File D:\git\src\IBK\IBK_DRFN\ProjSrc\SrcDrfn\Chart\comparechart\control\NsyButtonListCtrl.cpp
; File C:\Program Files (x86)\Microsoft Visual Studio\2019\Community\VC\Tools\MSVC\14.29.30133\atlmfc\include\atltypes.h
; File D:\git\src\IBK\IBK_DRFN\ProjSrc\SrcDrfn\Chart\comparechart\control\NsyButtonListCtrl.cpp
; File C:\Program Files (x86)\Microsoft Visual Studio\2019\Community\VC\Tools\MSVC\14.29.30133\atlmfc\include\cstringt.h
; File D:\git\src\IBK\IBK_DRFN\ProjSrc\SrcDrfn\Chart\comparechart\control\NsyButtonListCtrl.cpp
; File C:\Program Files (x86)\Microsoft Visual Studio\2019\Community\VC\Tools\MSVC\14.29.30133\atlmfc\include\cstringt.h
; File C:\Program Files (x86)\Microsoft Visual Studio\2019\Community\VC\Tools\MSVC\14.29.30133\atlmfc\include\atlsimpstr.h
; File C:\Program Files (x86)\Microsoft Visual Studio\2019\Community\VC\Tools\MSVC\14.29.30133\atlmfc\include\cstringt.h
; File D:\git\src\IBK\IBK_DRFN\ProjSrc\SrcDrfn\Chart\comparechart\control\NsyButtonListCtrl.cpp
; File C:\Program Files (x86)\Microsoft Visual Studio\2019\Community\VC\Tools\MSVC\14.29.30133\atlmfc\include\cstringt.h
; File D:\git\src\IBK\IBK_DRFN\ProjSrc\SrcDrfn\Chart\comparechart\control\NsyButtonListCtrl.cpp
; File C:\Program Files (x86)\Microsoft Visual Studio\2019\Community\VC\Tools\MSVC\14.29.30133\atlmfc\include\cstringt.h
; File C:\Program Files (x86)\Microsoft Visual Studio\2019\Community\VC\Tools\MSVC\14.29.30133\atlmfc\include\atlsimpstr.h
; File C:\Program Files (x86)\Microsoft Visual Studio\2019\Community\VC\Tools\MSVC\14.29.30133\atlmfc\include\cstringt.h
; File D:\git\src\IBK\IBK_DRFN\ProjSrc\SrcDrfn\Chart\comparechart\control\NsyButtonListCtrl.cpp
; File C:\Program Files (x86)\Microsoft Visual Studio\2019\Community\VC\Tools\MSVC\14.29.30133\atlmfc\include\cstringt.h
; File D:\git\src\IBK\IBK_DRFN\ProjSrc\SrcDrfn\Chart\comparechart\control\NsyButtonListCtrl.cpp
; File C:\Program Files (x86)\Microsoft Visual Studio\2019\Community\VC\Tools\MSVC\14.29.30133\atlmfc\include\cstringt.h
; File C:\Program Files (x86)\Microsoft Visual Studio\2019\Community\VC\Tools\MSVC\14.29.30133\atlmfc\include\atlsimpstr.h
; File C:\Program Files (x86)\Microsoft Visual Studio\2019\Community\VC\Tools\MSVC\14.29.30133\atlmfc\include\cstringt.h
; File D:\git\src\IBK\IBK_DRFN\ProjSrc\SrcDrfn\Chart\comparechart\control\NsyButtonListCtrl.cpp
; File C:\Program Files (x86)\Microsoft Visual Studio\2019\Community\VC\Tools\MSVC\14.29.30133\atlmfc\include\afxcoll.inl
; File D:\git\src\IBK\IBK_DRFN\ProjSrc\SrcDrfn\Chart\comparechart\control\NsyButtonListCtrl.cpp
;	COMDAT ?SetItemButton@CNsyButtonListCtrl@@QAEXHV?$CStringT@DV?$StrTraitMFC_DLL@DV?$ChTraitsCRT@D@ATL@@@@@ATL@@H@Z
_TEXT	SEGMENT
$T2 = -64						; size = 4
$T3 = -60						; size = 4
$T4 = -56						; size = 4
_strImageUp$ = -52					; size = 4
_strImageDown$ = -48					; size = 4
_strImageOver$ = -44					; size = 4
$T5 = -40						; size = 4
$T6 = -40						; size = 4
$T7 = -40						; size = 4
$T8 = -36						; size = 4
$T9 = -36						; size = 4
$T10 = -36						; size = 4
$T11 = -36						; size = 4
_subRect$ = -32						; size = 16
__$ArrayPad$ = -16					; size = 4
__$EHRec$ = -12						; size = 12
_nItem$ = 8						; size = 4
_strJongName$ = 12					; size = 4
_nJongCode$ = 16					; size = 4
?SetItemButton@CNsyButtonListCtrl@@QAEXHV?$CStringT@DV?$StrTraitMFC_DLL@DV?$ChTraitsCRT@D@ATL@@@@@ATL@@H@Z PROC ; CNsyButtonListCtrl::SetItemButton, COMDAT
; _this$ = ecx

; 41   : {

  00000	55		 push	 ebp
  00001	8b ec		 mov	 ebp, esp
  00003	6a ff		 push	 -1
  00005	68 00 00 00 00	 push	 __ehhandler$?SetItemButton@CNsyButtonListCtrl@@QAEXHV?$CStringT@DV?$StrTraitMFC_DLL@DV?$ChTraitsCRT@D@ATL@@@@@ATL@@H@Z
  0000a	64 a1 00 00 00
	00		 mov	 eax, DWORD PTR fs:0
  00010	50		 push	 eax
  00011	83 ec 38	 sub	 esp, 56			; 00000038H
  00014	a1 00 00 00 00	 mov	 eax, DWORD PTR ___security_cookie
  00019	33 c5		 xor	 eax, ebp
  0001b	89 45 f0	 mov	 DWORD PTR __$ArrayPad$[ebp], eax
  0001e	53		 push	 ebx
  0001f	56		 push	 esi
  00020	57		 push	 edi
  00021	50		 push	 eax
  00022	8d 45 f4	 lea	 eax, DWORD PTR __$EHRec$[ebp]
  00025	64 a3 00 00 00
	00		 mov	 DWORD PTR fs:0, eax
  0002b	8b d9		 mov	 ebx, ecx
  0002d	c7 45 d8 00 00
	00 00		 mov	 DWORD PTR $T5[ebp], 0
  00034	0f 57 c0	 xorps	 xmm0, xmm0
  00037	c7 45 fc 00 00
	00 00		 mov	 DWORD PTR __$EHRec$[ebp+8], 0

; 44   : 	CString strImageUp, strImageDown, strImageOver;

  0003e	8d 4d cc	 lea	 ecx, DWORD PTR _strImageUp$[ebp]
; File C:\Program Files (x86)\Microsoft Visual Studio\2019\Community\VC\Tools\MSVC\14.29.30133\atlmfc\include\atltypes.h

; 528  : 	left = 0;

  00041	0f 11 45 e0	 movups	 XMMWORD PTR _subRect$[ebp], xmm0
; File D:\git\src\IBK\IBK_DRFN\ProjSrc\SrcDrfn\Chart\comparechart\control\NsyButtonListCtrl.cpp

; 44   : 	CString strImageUp, strImageDown, strImageOver;

  00045	ff 15 00 00 00
	00		 call	 DWORD PTR __imp_??0?$CStringT@DV?$StrTraitMFC_DLL@DV?$ChTraitsCRT@D@ATL@@@@@ATL@@QAE@XZ
  0004b	8d 4d d0	 lea	 ecx, DWORD PTR _strImageDown$[ebp]
  0004e	ff 15 00 00 00
	00		 call	 DWORD PTR __imp_??0?$CStringT@DV?$StrTraitMFC_DLL@DV?$ChTraitsCRT@D@ATL@@@@@ATL@@QAE@XZ
  00054	8d 4d d4	 lea	 ecx, DWORD PTR _strImageOver$[ebp]
  00057	ff 15 00 00 00
	00		 call	 DWORD PTR __imp_??0?$CStringT@DV?$StrTraitMFC_DLL@DV?$ChTraitsCRT@D@ATL@@@@@ATL@@QAE@XZ

; 54   : 		strImageUp		= m_szImageDir + "\\del_btn_up.bmp";

  0005d	8d b3 2c 02 00
	00		 lea	 esi, DWORD PTR [ebx+556]
; File C:\Program Files (x86)\Microsoft Visual Studio\2019\Community\VC\Tools\MSVC\14.29.30133\atlmfc\include\cstringt.h

; 2401 : 		CStringT strResult( str1.GetManager() );

  00063	8b ce		 mov	 ecx, esi
; File D:\git\src\IBK\IBK_DRFN\ProjSrc\SrcDrfn\Chart\comparechart\control\NsyButtonListCtrl.cpp

; 54   : 		strImageUp		= m_szImageDir + "\\del_btn_up.bmp";

  00065	c6 45 fc 04	 mov	 BYTE PTR __$EHRec$[ebp+8], 4
; File C:\Program Files (x86)\Microsoft Visual Studio\2019\Community\VC\Tools\MSVC\14.29.30133\atlmfc\include\cstringt.h

; 2401 : 		CStringT strResult( str1.GetManager() );

  00069	ff 15 00 00 00
	00		 call	 DWORD PTR __imp_?GetManager@?$CStringT@DV?$StrTraitMFC_DLL@DV?$ChTraitsCRT@D@ATL@@@@@ATL@@QBEPAUIAtlStringMgr@2@XZ
  0006f	50		 push	 eax
  00070	8d 4d dc	 lea	 ecx, DWORD PTR $T11[ebp]
  00073	ff 15 00 00 00
	00		 call	 DWORD PTR __imp_??0?$CStringT@DV?$StrTraitMFC_DLL@DV?$ChTraitsCRT@D@ATL@@@@@ATL@@QAE@PAUIAtlStringMgr@1@@Z
; File C:\Program Files (x86)\Microsoft Visual Studio\2019\Community\VC\Tools\MSVC\14.29.30133\atlmfc\include\atlsimpstr.h

; 519  : 		return( GetData()->nDataLength );

  00079	8b 06		 mov	 eax, DWORD PTR [esi]
; File C:\Program Files (x86)\Microsoft Visual Studio\2019\Community\VC\Tools\MSVC\14.29.30133\atlmfc\include\cstringt.h

; 2403 : 		CThisSimpleString::Concatenate( strResult, str1, str1.GetLength(), psz2, CThisSimpleString::StringLength( psz2 ) );

  0007b	6a 0f		 push	 15			; 0000000fH
  0007d	68 00 00 00 00	 push	 OFFSET ??_C@_0BA@LMIEAEHI@?2del_btn_up?4bmp@

; 2404 : 
; 2405 : 		return( strResult );

  00082	c7 45 d8 01 00
	00 00		 mov	 DWORD PTR $T5[ebp], 1
  00089	ff 70 f4	 push	 DWORD PTR [eax-12]
  0008c	50		 push	 eax
  0008d	8d 45 dc	 lea	 eax, DWORD PTR $T11[ebp]
  00090	50		 push	 eax
  00091	ff 15 00 00 00
	00		 call	 DWORD PTR __imp_?Concatenate@?$CSimpleStringT@D$00@ATL@@KAXAAV12@PBDH1H@Z
  00097	83 c4 14	 add	 esp, 20			; 00000014H
; File D:\git\src\IBK\IBK_DRFN\ProjSrc\SrcDrfn\Chart\comparechart\control\NsyButtonListCtrl.cpp

; 54   : 		strImageUp		= m_szImageDir + "\\del_btn_up.bmp";

  0009a	8d 45 dc	 lea	 eax, DWORD PTR $T11[ebp]
  0009d	8d 4d cc	 lea	 ecx, DWORD PTR _strImageUp$[ebp]
  000a0	50		 push	 eax
  000a1	ff 15 00 00 00
	00		 call	 DWORD PTR __imp_??4?$CStringT@DV?$StrTraitMFC_DLL@DV?$ChTraitsCRT@D@ATL@@@@@ATL@@QAEAAV01@ABV01@@Z
  000a7	8d 4d dc	 lea	 ecx, DWORD PTR $T11[ebp]
  000aa	ff 15 00 00 00
	00		 call	 DWORD PTR __imp_??1?$CStringT@DV?$StrTraitMFC_DLL@DV?$ChTraitsCRT@D@ATL@@@@@ATL@@QAE@XZ
; File C:\Program Files (x86)\Microsoft Visual Studio\2019\Community\VC\Tools\MSVC\14.29.30133\atlmfc\include\cstringt.h

; 2401 : 		CStringT strResult( str1.GetManager() );

  000b0	8b ce		 mov	 ecx, esi
; File D:\git\src\IBK\IBK_DRFN\ProjSrc\SrcDrfn\Chart\comparechart\control\NsyButtonListCtrl.cpp

; 55   : 		strImageDown	= m_szImageDir + "\\del_btn_down.bmp";

  000b2	c6 45 fc 05	 mov	 BYTE PTR __$EHRec$[ebp+8], 5
; File C:\Program Files (x86)\Microsoft Visual Studio\2019\Community\VC\Tools\MSVC\14.29.30133\atlmfc\include\cstringt.h

; 2401 : 		CStringT strResult( str1.GetManager() );

  000b6	ff 15 00 00 00
	00		 call	 DWORD PTR __imp_?GetManager@?$CStringT@DV?$StrTraitMFC_DLL@DV?$ChTraitsCRT@D@ATL@@@@@ATL@@QBEPAUIAtlStringMgr@2@XZ
  000bc	50		 push	 eax
  000bd	8d 4d dc	 lea	 ecx, DWORD PTR $T10[ebp]
  000c0	ff 15 00 00 00
	00		 call	 DWORD PTR __imp_??0?$CStringT@DV?$StrTraitMFC_DLL@DV?$ChTraitsCRT@D@ATL@@@@@ATL@@QAE@PAUIAtlStringMgr@1@@Z
; File C:\Program Files (x86)\Microsoft Visual Studio\2019\Community\VC\Tools\MSVC\14.29.30133\atlmfc\include\atlsimpstr.h

; 519  : 		return( GetData()->nDataLength );

  000c6	8b 06		 mov	 eax, DWORD PTR [esi]
; File C:\Program Files (x86)\Microsoft Visual Studio\2019\Community\VC\Tools\MSVC\14.29.30133\atlmfc\include\cstringt.h

; 2403 : 		CThisSimpleString::Concatenate( strResult, str1, str1.GetLength(), psz2, CThisSimpleString::StringLength( psz2 ) );

  000c8	6a 11		 push	 17			; 00000011H
  000ca	68 00 00 00 00	 push	 OFFSET ??_C@_0BC@LFFHAOMB@?2del_btn_down?4bmp@

; 2404 : 
; 2405 : 		return( strResult );

  000cf	c7 45 d8 02 00
	00 00		 mov	 DWORD PTR $T5[ebp], 2
  000d6	ff 70 f4	 push	 DWORD PTR [eax-12]
  000d9	50		 push	 eax
  000da	8d 45 dc	 lea	 eax, DWORD PTR $T10[ebp]
  000dd	50		 push	 eax
  000de	ff 15 00 00 00
	00		 call	 DWORD PTR __imp_?Concatenate@?$CSimpleStringT@D$00@ATL@@KAXAAV12@PBDH1H@Z
  000e4	83 c4 14	 add	 esp, 20			; 00000014H
; File D:\git\src\IBK\IBK_DRFN\ProjSrc\SrcDrfn\Chart\comparechart\control\NsyButtonListCtrl.cpp

; 55   : 		strImageDown	= m_szImageDir + "\\del_btn_down.bmp";

  000e7	8d 45 dc	 lea	 eax, DWORD PTR $T10[ebp]
  000ea	8d 4d d0	 lea	 ecx, DWORD PTR _strImageDown$[ebp]
  000ed	50		 push	 eax
  000ee	ff 15 00 00 00
	00		 call	 DWORD PTR __imp_??4?$CStringT@DV?$StrTraitMFC_DLL@DV?$ChTraitsCRT@D@ATL@@@@@ATL@@QAEAAV01@ABV01@@Z
  000f4	8d 4d dc	 lea	 ecx, DWORD PTR $T10[ebp]
  000f7	ff 15 00 00 00
	00		 call	 DWORD PTR __imp_??1?$CStringT@DV?$StrTraitMFC_DLL@DV?$ChTraitsCRT@D@ATL@@@@@ATL@@QAE@XZ
; File C:\Program Files (x86)\Microsoft Visual Studio\2019\Community\VC\Tools\MSVC\14.29.30133\atlmfc\include\cstringt.h

; 2401 : 		CStringT strResult( str1.GetManager() );

  000fd	8b ce		 mov	 ecx, esi
; File D:\git\src\IBK\IBK_DRFN\ProjSrc\SrcDrfn\Chart\comparechart\control\NsyButtonListCtrl.cpp

; 56   : 		strImageOver	= m_szImageDir + "\\btn_select.bmp";

  000ff	c6 45 fc 06	 mov	 BYTE PTR __$EHRec$[ebp+8], 6
; File C:\Program Files (x86)\Microsoft Visual Studio\2019\Community\VC\Tools\MSVC\14.29.30133\atlmfc\include\cstringt.h

; 2401 : 		CStringT strResult( str1.GetManager() );

  00103	ff 15 00 00 00
	00		 call	 DWORD PTR __imp_?GetManager@?$CStringT@DV?$StrTraitMFC_DLL@DV?$ChTraitsCRT@D@ATL@@@@@ATL@@QBEPAUIAtlStringMgr@2@XZ
  00109	50		 push	 eax
  0010a	8d 4d dc	 lea	 ecx, DWORD PTR $T9[ebp]
  0010d	ff 15 00 00 00
	00		 call	 DWORD PTR __imp_??0?$CStringT@DV?$StrTraitMFC_DLL@DV?$ChTraitsCRT@D@ATL@@@@@ATL@@QAE@PAUIAtlStringMgr@1@@Z
; File C:\Program Files (x86)\Microsoft Visual Studio\2019\Community\VC\Tools\MSVC\14.29.30133\atlmfc\include\atlsimpstr.h

; 519  : 		return( GetData()->nDataLength );

  00113	8b 06		 mov	 eax, DWORD PTR [esi]
; File C:\Program Files (x86)\Microsoft Visual Studio\2019\Community\VC\Tools\MSVC\14.29.30133\atlmfc\include\cstringt.h

; 2403 : 		CThisSimpleString::Concatenate( strResult, str1, str1.GetLength(), psz2, CThisSimpleString::StringLength( psz2 ) );

  00115	6a 0f		 push	 15			; 0000000fH
  00117	68 00 00 00 00	 push	 OFFSET ??_C@_0BA@HOPMFNH@?2btn_select?4bmp@

; 2404 : 
; 2405 : 		return( strResult );

  0011c	c7 45 d8 04 00
	00 00		 mov	 DWORD PTR $T5[ebp], 4
  00123	ff 70 f4	 push	 DWORD PTR [eax-12]
  00126	50		 push	 eax
  00127	8d 45 dc	 lea	 eax, DWORD PTR $T9[ebp]
  0012a	50		 push	 eax
  0012b	ff 15 00 00 00
	00		 call	 DWORD PTR __imp_?Concatenate@?$CSimpleStringT@D$00@ATL@@KAXAAV12@PBDH1H@Z
  00131	83 c4 14	 add	 esp, 20			; 00000014H
; File D:\git\src\IBK\IBK_DRFN\ProjSrc\SrcDrfn\Chart\comparechart\control\NsyButtonListCtrl.cpp

; 56   : 		strImageOver	= m_szImageDir + "\\btn_select.bmp";

  00134	8d 45 dc	 lea	 eax, DWORD PTR $T9[ebp]
  00137	8d 4d d4	 lea	 ecx, DWORD PTR _strImageOver$[ebp]
  0013a	50		 push	 eax
  0013b	ff 15 00 00 00
	00		 call	 DWORD PTR __imp_??4?$CStringT@DV?$StrTraitMFC_DLL@DV?$ChTraitsCRT@D@ATL@@@@@ATL@@QAEAAV01@ABV01@@Z
  00141	8d 4d dc	 lea	 ecx, DWORD PTR $T9[ebp]
  00144	c6 45 fc 03	 mov	 BYTE PTR __$EHRec$[ebp+8], 3
  00148	ff 15 00 00 00
	00		 call	 DWORD PTR __imp_??1?$CStringT@DV?$StrTraitMFC_DLL@DV?$ChTraitsCRT@D@ATL@@@@@ATL@@QAE@XZ

; 57   : 	}
; 58   : 
; 59   : //	CxSkinButton* pButton = NULL;
; 60   : //	pButton = new CxSkinButton;
; 61   : //
; 62   : //	m_ptrArrayBtnWnd.Add(pButton);
; 63   : //	pButton->Create(_T(""), WS_VISIBLE | WS_CHILD,  subRect, this, nJongCode + nItem);
; 64   : //	pButton->SetSkin(strImageUp,strImageDown,strImageOver,"","","",0,0,0);
; 65   : //	pButton->SetWindowText(strJongName);
; 66   : 	
; 67   : 
; 68   : 	GetSubItemRect(nItem, 1,LVIR_BOUNDS, subRect);	

  0014e	8d 45 e0	 lea	 eax, DWORD PTR _subRect$[ebp]
  00151	8b cb		 mov	 ecx, ebx
  00153	50		 push	 eax
  00154	6a 00		 push	 0
  00156	6a 01		 push	 1
  00158	ff 75 08	 push	 DWORD PTR _nItem$[ebp]
  0015b	e8 00 00 00 00	 call	 ?GetSubItemRect@CXListCtrl@@QAEHHHHAAVCRect@@@Z ; CXListCtrl::GetSubItemRect

; 69   : 
; 70   : 	BTNINFO* pBtnInfo = NULL;
; 71   : 	pBtnInfo = new BTNINFO;

  00160	68 80 01 00 00	 push	 384			; 00000180H
  00165	e8 00 00 00 00	 call	 ??2@YAPAXI@Z		; operator new
  0016a	8b f8		 mov	 edi, eax
  0016c	83 c4 04	 add	 esp, 4
  0016f	89 7d d8	 mov	 DWORD PTR $T7[ebp], edi
  00172	c6 45 fc 07	 mov	 BYTE PTR __$EHRec$[ebp+8], 7
  00176	85 ff		 test	 edi, edi
  00178	74 0a		 je	 SHORT $LN4@SetItemBut
  0017a	8d 4f 08	 lea	 ecx, DWORD PTR [edi+8]
  0017d	e8 00 00 00 00	 call	 ??0CxSkinButton@@QAE@XZ	; CxSkinButton::CxSkinButton
  00182	eb 02		 jmp	 SHORT $LN5@SetItemBut
$LN4@SetItemBut:
  00184	33 ff		 xor	 edi, edi
$LN5@SetItemBut:
  00186	c6 45 fc 03	 mov	 BYTE PTR __$EHRec$[ebp+8], 3

; 72   : 	if(pBtnInfo != NULL)

  0018a	85 ff		 test	 edi, edi
  0018c	0f 84 bb 00 00
	00		 je	 $LN2@SetItemBut

; 73   : 	{
; 74   : 		pBtnInfo->nIndex = nItem;		

  00192	8b 4d 08	 mov	 ecx, DWORD PTR _nItem$[ebp]

; 75   : 		pBtnInfo->xSkinButton.Create(_T(""), WS_VISIBLE | WS_CHILD,  subRect, this, nJongCode + nItem);

  00195	8b 45 10	 mov	 eax, DWORD PTR _nJongCode$[ebp]
  00198	8b 57 08	 mov	 edx, DWORD PTR [edi+8]
  0019b	03 c1		 add	 eax, ecx
  0019d	50		 push	 eax
  0019e	53		 push	 ebx
  0019f	8d 45 e0	 lea	 eax, DWORD PTR _subRect$[ebp]
  001a2	89 0f		 mov	 DWORD PTR [edi], ecx
  001a4	50		 push	 eax
  001a5	68 00 00 00 50	 push	 1342177280		; 50000000H
  001aa	68 00 00 00 00	 push	 OFFSET ??_C@_00CNPNBAHC@@
  001af	8d 4f 08	 lea	 ecx, DWORD PTR [edi+8]
  001b2	ff 92 6c 01 00
	00		 call	 DWORD PTR [edx+364]

; 76   : 		pBtnInfo->xSkinButton.SetSkin(strImageUp,strImageDown,strImageOver,"","","",0,0,0);

  001b8	6a 00		 push	 0
  001ba	6a 00		 push	 0
  001bc	6a 00		 push	 0
  001be	51		 push	 ecx
  001bf	8b cc		 mov	 ecx, esp
  001c1	89 65 d8	 mov	 DWORD PTR $T6[ebp], esp
  001c4	68 00 00 00 00	 push	 OFFSET ??_C@_00CNPNBAHC@@
  001c9	ff 15 00 00 00
	00		 call	 DWORD PTR __imp_??0?$CStringT@DV?$StrTraitMFC_DLL@DV?$ChTraitsCRT@D@ATL@@@@@ATL@@QAE@PBD@Z
  001cf	51		 push	 ecx
  001d0	8b cc		 mov	 ecx, esp
  001d2	89 65 dc	 mov	 DWORD PTR $T8[ebp], esp
  001d5	68 00 00 00 00	 push	 OFFSET ??_C@_00CNPNBAHC@@
  001da	c6 45 fc 08	 mov	 BYTE PTR __$EHRec$[ebp+8], 8
  001de	ff 15 00 00 00
	00		 call	 DWORD PTR __imp_??0?$CStringT@DV?$StrTraitMFC_DLL@DV?$ChTraitsCRT@D@ATL@@@@@ATL@@QAE@PBD@Z
  001e4	51		 push	 ecx
  001e5	8b cc		 mov	 ecx, esp
  001e7	89 65 c8	 mov	 DWORD PTR $T4[ebp], esp
  001ea	68 00 00 00 00	 push	 OFFSET ??_C@_00CNPNBAHC@@
  001ef	c6 45 fc 09	 mov	 BYTE PTR __$EHRec$[ebp+8], 9
  001f3	ff 15 00 00 00
	00		 call	 DWORD PTR __imp_??0?$CStringT@DV?$StrTraitMFC_DLL@DV?$ChTraitsCRT@D@ATL@@@@@ATL@@QAE@PBD@Z
  001f9	51		 push	 ecx
  001fa	8d 45 d4	 lea	 eax, DWORD PTR _strImageOver$[ebp]
  001fd	89 65 c4	 mov	 DWORD PTR $T3[ebp], esp
  00200	8b cc		 mov	 ecx, esp
  00202	c6 45 fc 0a	 mov	 BYTE PTR __$EHRec$[ebp+8], 10 ; 0000000aH
  00206	50		 push	 eax
  00207	ff 15 00 00 00
	00		 call	 DWORD PTR __imp_??0?$CStringT@DV?$StrTraitMFC_DLL@DV?$ChTraitsCRT@D@ATL@@@@@ATL@@QAE@ABV01@@Z
  0020d	51		 push	 ecx
  0020e	8d 45 d0	 lea	 eax, DWORD PTR _strImageDown$[ebp]
  00211	89 65 c0	 mov	 DWORD PTR $T2[ebp], esp
  00214	8b cc		 mov	 ecx, esp
  00216	c6 45 fc 0b	 mov	 BYTE PTR __$EHRec$[ebp+8], 11 ; 0000000bH
  0021a	50		 push	 eax
  0021b	ff 15 00 00 00
	00		 call	 DWORD PTR __imp_??0?$CStringT@DV?$StrTraitMFC_DLL@DV?$ChTraitsCRT@D@ATL@@@@@ATL@@QAE@ABV01@@Z
  00221	51		 push	 ecx
  00222	8d 45 cc	 lea	 eax, DWORD PTR _strImageUp$[ebp]
  00225	c6 45 fc 0c	 mov	 BYTE PTR __$EHRec$[ebp+8], 12 ; 0000000cH
  00229	8b cc		 mov	 ecx, esp
  0022b	50		 push	 eax
  0022c	ff 15 00 00 00
	00		 call	 DWORD PTR __imp_??0?$CStringT@DV?$StrTraitMFC_DLL@DV?$ChTraitsCRT@D@ATL@@@@@ATL@@QAE@ABV01@@Z
  00232	8d 4f 08	 lea	 ecx, DWORD PTR [edi+8]
  00235	c6 45 fc 03	 mov	 BYTE PTR __$EHRec$[ebp+8], 3
  00239	e8 00 00 00 00	 call	 ?SetSkin@CxSkinButton@@QAEXV?$CStringT@DV?$StrTraitMFC_DLL@DV?$ChTraitsCRT@D@ATL@@@@@ATL@@00000FFF@Z ; CxSkinButton::SetSkin

; 77   : 		//pBtnInfo->xSkinButton.SetWindowText(strJongName);
; 78   : 		m_ptrArrayBtnWnd.Add(pBtnInfo);		

  0023e	8d 8b 18 02 00
	00		 lea	 ecx, DWORD PTR [ebx+536]
; File C:\Program Files (x86)\Microsoft Visual Studio\2019\Community\VC\Tools\MSVC\14.29.30133\atlmfc\include\afxcoll.inl

; 223  : 		SetAtGrow(nIndex, newElement);

  00244	57		 push	 edi
  00245	ff 71 08	 push	 DWORD PTR [ecx+8]
  00248	e8 00 00 00 00	 call	 ?SetAtGrow@CPtrArray@@QAEXHPAX@Z ; CPtrArray::SetAtGrow
$LN2@SetItemBut:
; File D:\git\src\IBK\IBK_DRFN\ProjSrc\SrcDrfn\Chart\comparechart\control\NsyButtonListCtrl.cpp

; 80   : }

  0024d	8d 4d d4	 lea	 ecx, DWORD PTR _strImageOver$[ebp]
  00250	ff 15 00 00 00
	00		 call	 DWORD PTR __imp_??1?$CStringT@DV?$StrTraitMFC_DLL@DV?$ChTraitsCRT@D@ATL@@@@@ATL@@QAE@XZ
  00256	8d 4d d0	 lea	 ecx, DWORD PTR _strImageDown$[ebp]
  00259	ff 15 00 00 00
	00		 call	 DWORD PTR __imp_??1?$CStringT@DV?$StrTraitMFC_DLL@DV?$ChTraitsCRT@D@ATL@@@@@ATL@@QAE@XZ
  0025f	8d 4d cc	 lea	 ecx, DWORD PTR _strImageUp$[ebp]
  00262	ff 15 00 00 00
	00		 call	 DWORD PTR __imp_??1?$CStringT@DV?$StrTraitMFC_DLL@DV?$ChTraitsCRT@D@ATL@@@@@ATL@@QAE@XZ
  00268	8d 4d 0c	 lea	 ecx, DWORD PTR _strJongName$[ebp]
  0026b	ff 15 00 00 00
	00		 call	 DWORD PTR __imp_??1?$CStringT@DV?$StrTraitMFC_DLL@DV?$ChTraitsCRT@D@ATL@@@@@ATL@@QAE@XZ
  00271	8b 4d f4	 mov	 ecx, DWORD PTR __$EHRec$[ebp]
  00274	64 89 0d 00 00
	00 00		 mov	 DWORD PTR fs:0, ecx
  0027b	59		 pop	 ecx
  0027c	5f		 pop	 edi
  0027d	5e		 pop	 esi
  0027e	5b		 pop	 ebx
  0027f	8b 4d f0	 mov	 ecx, DWORD PTR __$ArrayPad$[ebp]
  00282	33 cd		 xor	 ecx, ebp
  00284	e8 00 00 00 00	 call	 @__security_check_cookie@4
  00289	8b e5		 mov	 esp, ebp
  0028b	5d		 pop	 ebp
  0028c	c2 0c 00	 ret	 12			; 0000000cH
_TEXT	ENDS
;	COMDAT text$x
text$x	SEGMENT
__unwindfunclet$?SetItemButton@CNsyButtonListCtrl@@QAEXHV?$CStringT@DV?$StrTraitMFC_DLL@DV?$ChTraitsCRT@D@ATL@@@@@ATL@@H@Z$0:
  00000	8d 4d 0c	 lea	 ecx, DWORD PTR _strJongName$[ebp]
  00003	ff 25 00 00 00
	00		 jmp	 DWORD PTR __imp_??1?$CStringT@DV?$StrTraitMFC_DLL@DV?$ChTraitsCRT@D@ATL@@@@@ATL@@QAE@XZ
__unwindfunclet$?SetItemButton@CNsyButtonListCtrl@@QAEXHV?$CStringT@DV?$StrTraitMFC_DLL@DV?$ChTraitsCRT@D@ATL@@@@@ATL@@H@Z$1:
  00009	8d 4d cc	 lea	 ecx, DWORD PTR _strImageUp$[ebp]
  0000c	ff 25 00 00 00
	00		 jmp	 DWORD PTR __imp_??1?$CStringT@DV?$StrTraitMFC_DLL@DV?$ChTraitsCRT@D@ATL@@@@@ATL@@QAE@XZ
__unwindfunclet$?SetItemButton@CNsyButtonListCtrl@@QAEXHV?$CStringT@DV?$StrTraitMFC_DLL@DV?$ChTraitsCRT@D@ATL@@@@@ATL@@H@Z$2:
  00012	8d 4d d0	 lea	 ecx, DWORD PTR _strImageDown$[ebp]
  00015	ff 25 00 00 00
	00		 jmp	 DWORD PTR __imp_??1?$CStringT@DV?$StrTraitMFC_DLL@DV?$ChTraitsCRT@D@ATL@@@@@ATL@@QAE@XZ
__unwindfunclet$?SetItemButton@CNsyButtonListCtrl@@QAEXHV?$CStringT@DV?$StrTraitMFC_DLL@DV?$ChTraitsCRT@D@ATL@@@@@ATL@@H@Z$3:
  0001b	8d 4d d4	 lea	 ecx, DWORD PTR _strImageOver$[ebp]
  0001e	ff 25 00 00 00
	00		 jmp	 DWORD PTR __imp_??1?$CStringT@DV?$StrTraitMFC_DLL@DV?$ChTraitsCRT@D@ATL@@@@@ATL@@QAE@XZ
__unwindfunclet$?SetItemButton@CNsyButtonListCtrl@@QAEXHV?$CStringT@DV?$StrTraitMFC_DLL@DV?$ChTraitsCRT@D@ATL@@@@@ATL@@H@Z$14:
  00024	8b 45 d8	 mov	 eax, DWORD PTR $T5[ebp]
  00027	83 e0 01	 and	 eax, 1
  0002a	0f 84 0d 00 00
	00		 je	 $LN25@SetItemBut
  00030	83 65 d8 fe	 and	 DWORD PTR $T5[ebp], -2	; fffffffeH
  00034	8d 4d dc	 lea	 ecx, DWORD PTR $T11[ebp]
  00037	ff 25 00 00 00
	00		 jmp	 DWORD PTR __imp_??1?$CStringT@DV?$StrTraitMFC_DLL@DV?$ChTraitsCRT@D@ATL@@@@@ATL@@QAE@XZ
$LN25@SetItemBut:
  0003d	c3		 ret	 0
__unwindfunclet$?SetItemButton@CNsyButtonListCtrl@@QAEXHV?$CStringT@DV?$StrTraitMFC_DLL@DV?$ChTraitsCRT@D@ATL@@@@@ATL@@H@Z$15:
  0003e	8b 45 d8	 mov	 eax, DWORD PTR $T5[ebp]
  00041	83 e0 02	 and	 eax, 2
  00044	0f 84 0d 00 00
	00		 je	 $LN38@SetItemBut
  0004a	83 65 d8 fd	 and	 DWORD PTR $T5[ebp], -3	; fffffffdH
  0004e	8d 4d dc	 lea	 ecx, DWORD PTR $T10[ebp]
  00051	ff 25 00 00 00
	00		 jmp	 DWORD PTR __imp_??1?$CStringT@DV?$StrTraitMFC_DLL@DV?$ChTraitsCRT@D@ATL@@@@@ATL@@QAE@XZ
$LN38@SetItemBut:
  00057	c3		 ret	 0
__unwindfunclet$?SetItemButton@CNsyButtonListCtrl@@QAEXHV?$CStringT@DV?$StrTraitMFC_DLL@DV?$ChTraitsCRT@D@ATL@@@@@ATL@@H@Z$16:
  00058	8b 45 d8	 mov	 eax, DWORD PTR $T5[ebp]
  0005b	83 e0 04	 and	 eax, 4
  0005e	0f 84 0d 00 00
	00		 je	 $LN51@SetItemBut
  00064	83 65 d8 fb	 and	 DWORD PTR $T5[ebp], -5	; fffffffbH
  00068	8d 4d dc	 lea	 ecx, DWORD PTR $T9[ebp]
  0006b	ff 25 00 00 00
	00		 jmp	 DWORD PTR __imp_??1?$CStringT@DV?$StrTraitMFC_DLL@DV?$ChTraitsCRT@D@ATL@@@@@ATL@@QAE@XZ
$LN51@SetItemBut:
  00071	c3		 ret	 0
__unwindfunclet$?SetItemButton@CNsyButtonListCtrl@@QAEXHV?$CStringT@DV?$StrTraitMFC_DLL@DV?$ChTraitsCRT@D@ATL@@@@@ATL@@H@Z$7:
  00072	68 80 01 00 00	 push	 384			; 00000180H
  00077	8b 45 d8	 mov	 eax, DWORD PTR $T7[ebp]
  0007a	50		 push	 eax
  0007b	e8 00 00 00 00	 call	 ??3@YAXPAXI@Z		; operator delete
  00080	83 c4 08	 add	 esp, 8
  00083	c3		 ret	 0
__unwindfunclet$?SetItemButton@CNsyButtonListCtrl@@QAEXHV?$CStringT@DV?$StrTraitMFC_DLL@DV?$ChTraitsCRT@D@ATL@@@@@ATL@@H@Z$8:
  00084	8b 4d d8	 mov	 ecx, DWORD PTR $T6[ebp]
  00087	ff 25 00 00 00
	00		 jmp	 DWORD PTR __imp_??1?$CStringT@DV?$StrTraitMFC_DLL@DV?$ChTraitsCRT@D@ATL@@@@@ATL@@QAE@XZ
__unwindfunclet$?SetItemButton@CNsyButtonListCtrl@@QAEXHV?$CStringT@DV?$StrTraitMFC_DLL@DV?$ChTraitsCRT@D@ATL@@@@@ATL@@H@Z$9:
  0008d	8b 4d dc	 mov	 ecx, DWORD PTR $T8[ebp]
  00090	ff 25 00 00 00
	00		 jmp	 DWORD PTR __imp_??1?$CStringT@DV?$StrTraitMFC_DLL@DV?$ChTraitsCRT@D@ATL@@@@@ATL@@QAE@XZ
__unwindfunclet$?SetItemButton@CNsyButtonListCtrl@@QAEXHV?$CStringT@DV?$StrTraitMFC_DLL@DV?$ChTraitsCRT@D@ATL@@@@@ATL@@H@Z$10:
  00096	8b 4d c8	 mov	 ecx, DWORD PTR $T4[ebp]
  00099	ff 25 00 00 00
	00		 jmp	 DWORD PTR __imp_??1?$CStringT@DV?$StrTraitMFC_DLL@DV?$ChTraitsCRT@D@ATL@@@@@ATL@@QAE@XZ
__unwindfunclet$?SetItemButton@CNsyButtonListCtrl@@QAEXHV?$CStringT@DV?$StrTraitMFC_DLL@DV?$ChTraitsCRT@D@ATL@@@@@ATL@@H@Z$11:
  0009f	8b 4d c4	 mov	 ecx, DWORD PTR $T3[ebp]
  000a2	ff 25 00 00 00
	00		 jmp	 DWORD PTR __imp_??1?$CStringT@DV?$StrTraitMFC_DLL@DV?$ChTraitsCRT@D@ATL@@@@@ATL@@QAE@XZ
__unwindfunclet$?SetItemButton@CNsyButtonListCtrl@@QAEXHV?$CStringT@DV?$StrTraitMFC_DLL@DV?$ChTraitsCRT@D@ATL@@@@@ATL@@H@Z$12:
  000a8	8b 4d c0	 mov	 ecx, DWORD PTR $T2[ebp]
  000ab	ff 25 00 00 00
	00		 jmp	 DWORD PTR __imp_??1?$CStringT@DV?$StrTraitMFC_DLL@DV?$ChTraitsCRT@D@ATL@@@@@ATL@@QAE@XZ
  000b1	cc		 int	 3
  000b2	cc		 int	 3
  000b3	cc		 int	 3
  000b4	cc		 int	 3
  000b5	cc		 int	 3
__ehhandler$?SetItemButton@CNsyButtonListCtrl@@QAEXHV?$CStringT@DV?$StrTraitMFC_DLL@DV?$ChTraitsCRT@D@ATL@@@@@ATL@@H@Z:
  000b6	90		 npad	 1
  000b7	90		 npad	 1
  000b8	8b 54 24 08	 mov	 edx, DWORD PTR [esp+8]
  000bc	8d 42 0c	 lea	 eax, DWORD PTR [edx+12]
  000bf	8b 4a b8	 mov	 ecx, DWORD PTR [edx-72]
  000c2	33 c8		 xor	 ecx, eax
  000c4	e8 00 00 00 00	 call	 @__security_check_cookie@4
  000c9	8b 4a fc	 mov	 ecx, DWORD PTR [edx-4]
  000cc	33 c8		 xor	 ecx, eax
  000ce	e8 00 00 00 00	 call	 @__security_check_cookie@4
  000d3	b8 00 00 00 00	 mov	 eax, OFFSET __ehfuncinfo$?SetItemButton@CNsyButtonListCtrl@@QAEXHV?$CStringT@DV?$StrTraitMFC_DLL@DV?$ChTraitsCRT@D@ATL@@@@@ATL@@H@Z
  000d8	e9 00 00 00 00	 jmp	 ___CxxFrameHandler3
text$x	ENDS
?SetItemButton@CNsyButtonListCtrl@@QAEXHV?$CStringT@DV?$StrTraitMFC_DLL@DV?$ChTraitsCRT@D@ATL@@@@@ATL@@H@Z ENDP ; CNsyButtonListCtrl::SetItemButton
; Function compile flags: /Ogtp
; File D:\git\src\IBK\IBK_DRFN\ProjSrc\SrcDrfn\Chart\comparechart\control\NsyButtonListCtrl.cpp
; File C:\Program Files (x86)\Microsoft Visual Studio\2019\Community\VC\Tools\MSVC\14.29.30133\atlmfc\include\afxwin2.inl
; File C:\Program Files (x86)\Microsoft Visual Studio\2019\Community\VC\Tools\MSVC\14.29.30133\atlmfc\include\afxwin1.inl
; File C:\Program Files (x86)\Microsoft Visual Studio\2019\Community\VC\Tools\MSVC\14.29.30133\atlmfc\include\afxwin2.inl
; File D:\git\src\IBK\IBK_DRFN\ProjSrc\SrcDrfn\Chart\comparechart\control\NsyButtonListCtrl.cpp
; File C:\Program Files (x86)\Microsoft Visual Studio\2019\Community\VC\Tools\MSVC\14.29.30133\atlmfc\include\afxcmn2.inl
; File C:\Program Files (x86)\Microsoft Visual Studio\2019\Community\VC\Tools\MSVC\14.29.30133\atlmfc\include\afxwin2.inl
; File D:\git\src\IBK\IBK_DRFN\ProjSrc\SrcDrfn\Chart\comparechart\control\xListCtrl.h
; File C:\Program Files (x86)\Microsoft Visual Studio\2019\Community\VC\Tools\MSVC\14.29.30133\atlmfc\include\afxwin2.inl
; File D:\git\src\IBK\IBK_DRFN\ProjSrc\SrcDrfn\Chart\comparechart\control\xListCtrl.h
; File C:\Program Files (x86)\Microsoft Visual Studio\2019\Community\VC\Tools\MSVC\14.29.30133\atlmfc\include\atltypes.h
; File C:\Program Files (x86)\Microsoft Visual Studio\2019\Community\VC\Tools\MSVC\14.29.30133\atlmfc\include\afxwin2.inl
; File D:\git\src\IBK\IBK_DRFN\ProjSrc\SrcDrfn\Chart\comparechart\control\NsyButtonListCtrl.cpp
; File C:\Program Files (x86)\Microsoft Visual Studio\2019\Community\VC\Tools\MSVC\14.29.30133\atlmfc\include\afxwin2.inl
; File D:\git\src\IBK\IBK_DRFN\ProjSrc\SrcDrfn\Chart\comparechart\control\NsyButtonListCtrl.cpp
; File C:\Program Files (x86)\Microsoft Visual Studio\2019\Community\VC\Tools\MSVC\14.29.30133\atlmfc\include\afxwin2.inl
; File D:\git\src\IBK\IBK_DRFN\ProjSrc\SrcDrfn\Chart\comparechart\control\NsyButtonListCtrl.cpp
; File C:\Program Files (x86)\Microsoft Visual Studio\2019\Community\VC\Tools\MSVC\14.29.30133\atlmfc\include\afxcmn.inl
; File D:\git\src\IBK\IBK_DRFN\ProjSrc\SrcDrfn\Chart\comparechart\control\NsyButtonListCtrl.cpp
; File C:\Program Files (x86)\Microsoft Visual Studio\2019\Community\VC\Tools\MSVC\14.29.30133\atlmfc\include\afxcmn.inl
; File D:\git\src\IBK\IBK_DRFN\ProjSrc\SrcDrfn\Chart\comparechart\control\NsyButtonListCtrl.cpp
; File C:\Program Files (x86)\Microsoft Visual Studio\2019\Community\VC\Tools\MSVC\14.29.30133\atlmfc\include\afxcmn.inl
; File D:\git\src\IBK\IBK_DRFN\ProjSrc\SrcDrfn\Chart\comparechart\control\NsyButtonListCtrl.cpp
;	COMDAT ?Init@CNsyButtonListCtrl@@QAEXXZ
_TEXT	SEGMENT
_lvcolumn$ = -92					; size = 44
_colwidthsType$ = -48					; size = 8
_imageList$ = -40					; size = 8
_rect$ = -32						; size = 16
__$ArrayPad$ = -16					; size = 4
__$EHRec$ = -12						; size = 12
?Init@CNsyButtonListCtrl@@QAEXXZ PROC			; CNsyButtonListCtrl::Init, COMDAT
; _this$ = ecx

; 97   : {

  00000	55		 push	 ebp
  00001	8b ec		 mov	 ebp, esp
  00003	6a ff		 push	 -1
  00005	68 00 00 00 00	 push	 __ehhandler$?Init@CNsyButtonListCtrl@@QAEXXZ
  0000a	64 a1 00 00 00
	00		 mov	 eax, DWORD PTR fs:0
  00010	50		 push	 eax
  00011	83 ec 50	 sub	 esp, 80			; 00000050H
  00014	a1 00 00 00 00	 mov	 eax, DWORD PTR ___security_cookie
  00019	33 c5		 xor	 eax, ebp
  0001b	89 45 f0	 mov	 DWORD PTR __$ArrayPad$[ebp], eax
  0001e	53		 push	 ebx
  0001f	56		 push	 esi
  00020	57		 push	 edi
  00021	50		 push	 eax
  00022	8d 45 f4	 lea	 eax, DWORD PTR __$EHRec$[ebp]
  00025	64 a3 00 00 00
	00		 mov	 DWORD PTR fs:0, eax
  0002b	8b f9		 mov	 edi, ecx
; File C:\Program Files (x86)\Microsoft Visual Studio\2019\Community\VC\Tools\MSVC\14.29.30133\atlmfc\include\afxwin2.inl

; 213  : 	{ ASSERT(::IsWindow(m_hWnd)); return CWnd::FromHandle(::GetParent(m_hWnd)); }

  0002d	ff 77 20	 push	 DWORD PTR [edi+32]
  00030	ff 15 00 00 00
	00		 call	 DWORD PTR __imp__GetParent@4
  00036	50		 push	 eax
  00037	e8 00 00 00 00	 call	 ?FromHandle@CWnd@@SGPAV1@PAUHWND__@@@Z ; CWnd::FromHandle

; 45   : 	{ ASSERT(::IsWindow(m_hWnd)); return CFont::FromHandle(

  0003c	8b 1d 00 00 00
	00		 mov	 ebx, DWORD PTR __imp__SendMessageA@16
  00042	6a 00		 push	 0
  00044	6a 00		 push	 0
  00046	6a 31		 push	 49			; 00000031H
  00048	ff 70 20	 push	 DWORD PTR [eax+32]
  0004b	ff d3		 call	 ebx
; File C:\Program Files (x86)\Microsoft Visual Studio\2019\Community\VC\Tools\MSVC\14.29.30133\atlmfc\include\afxwin1.inl

; 151  : 	{ return (CFont*) CGdiObject::FromHandle(hFont); }

  0004d	50		 push	 eax
  0004e	e8 00 00 00 00	 call	 ?FromHandle@CGdiObject@@SGPAV1@PAX@Z ; CGdiObject::FromHandle

; 68   : 	{ return this == NULL ? NULL : m_hObject; }

  00053	85 c0		 test	 eax, eax
  00055	74 03		 je	 SHORT $LN20@Init
$LN19@Init:
  00057	8b 40 04	 mov	 eax, DWORD PTR [eax+4]
$LN20@Init:
; File C:\Program Files (x86)\Microsoft Visual Studio\2019\Community\VC\Tools\MSVC\14.29.30133\atlmfc\include\afxwin2.inl

; 43   : 	{ ASSERT(::IsWindow(m_hWnd)); ::SendMessage(m_hWnd, WM_SETFONT, (WPARAM)pFont->GetSafeHandle(), bRedraw); }

  0005a	6a 01		 push	 1
  0005c	50		 push	 eax
  0005d	6a 30		 push	 48			; 00000030H
  0005f	ff 77 20	 push	 DWORD PTR [edi+32]
  00062	ff d3		 call	 ebx
; File D:\git\src\IBK\IBK_DRFN\ProjSrc\SrcDrfn\Chart\comparechart\control\NsyButtonListCtrl.cpp

; 103  : 	GetHeaderCtrl()->EnableWindow(FALSE);

  00064	6a 00		 push	 0
  00066	8b cf		 mov	 ecx, edi
  00068	e8 00 00 00 00	 call	 ?GetHeaderCtrl@CListCtrl@@QBEPAVCHeaderCtrl@@XZ ; CListCtrl::GetHeaderCtrl
  0006d	8b c8		 mov	 ecx, eax
  0006f	e8 00 00 00 00	 call	 ?EnableWindow@CWnd@@QAEHH@Z ; CWnd::EnableWindow
; File C:\Program Files (x86)\Microsoft Visual Studio\2019\Community\VC\Tools\MSVC\14.29.30133\atlmfc\include\afxcmn2.inl

; 117  : 	{ ASSERT(::IsWindow(m_hWnd)); return (DWORD) ::SendMessage(m_hWnd, LVM_SETEXTENDEDLISTVIEWSTYLE, 0, (LPARAM) dwNewStyle); }

  00074	6a 20		 push	 32			; 00000020H
  00076	6a 00		 push	 0
  00078	68 36 10 00 00	 push	 4150			; 00001036H
  0007d	ff 77 20	 push	 DWORD PTR [edi+32]
  00080	ff d3		 call	 ebx
; File C:\Program Files (x86)\Microsoft Visual Studio\2019\Community\VC\Tools\MSVC\14.29.30133\atlmfc\include\afxwin2.inl

; 84   : 	{ ASSERT(::IsWindow(m_hWnd)); ::GetWindowRect(m_hWnd, lpRect); }

  00082	8d 45 e0	 lea	 eax, DWORD PTR _rect$[ebp]
; File D:\git\src\IBK\IBK_DRFN\ProjSrc\SrcDrfn\Chart\comparechart\control\xListCtrl.h

; 174  : 		m_crHighLightText = m_crUsrHighLightText = crText;

  00085	c7 87 a8 01 00
	00 00 00 00 00	 mov	 DWORD PTR [edi+424], 0
; File C:\Program Files (x86)\Microsoft Visual Studio\2019\Community\VC\Tools\MSVC\14.29.30133\atlmfc\include\afxwin2.inl

; 84   : 	{ ASSERT(::IsWindow(m_hWnd)); ::GetWindowRect(m_hWnd, lpRect); }

  0008f	50		 push	 eax
  00090	ff 77 20	 push	 DWORD PTR [edi+32]
  00093	0f 57 c0	 xorps	 xmm0, xmm0
; File D:\git\src\IBK\IBK_DRFN\ProjSrc\SrcDrfn\Chart\comparechart\control\xListCtrl.h

; 174  : 		m_crHighLightText = m_crUsrHighLightText = crText;

  00096	c7 87 98 01 00
	00 00 00 00 00	 mov	 DWORD PTR [edi+408], 0

; 175  : 		m_crHighLight = m_crUsrHighLight = crBackground;

  000a0	c7 87 a4 01 00
	00 d0 dd f0 00	 mov	 DWORD PTR [edi+420], 15785424 ; 00f0ddd0H
  000aa	c7 87 94 01 00
	00 d0 dd f0 00	 mov	 DWORD PTR [edi+404], 15785424 ; 00f0ddd0H
; File C:\Program Files (x86)\Microsoft Visual Studio\2019\Community\VC\Tools\MSVC\14.29.30133\atlmfc\include\atltypes.h

; 528  : 	left = 0;

  000b4	0f 11 45 e0	 movups	 XMMWORD PTR _rect$[ebp], xmm0
; File C:\Program Files (x86)\Microsoft Visual Studio\2019\Community\VC\Tools\MSVC\14.29.30133\atlmfc\include\afxwin2.inl

; 84   : 	{ ASSERT(::IsWindow(m_hWnd)); ::GetWindowRect(m_hWnd, lpRect); }

  000b8	ff 15 00 00 00
	00		 call	 DWORD PTR __imp__GetWindowRect@8
; File D:\git\src\IBK\IBK_DRFN\ProjSrc\SrcDrfn\Chart\comparechart\control\NsyButtonListCtrl.cpp

; 129  : 	int colwidthsType[2] = {nColWd - 20 , 20};

  000be	8b 45 e8	 mov	 eax, DWORD PTR _rect$[ebp+8]
; File C:\Program Files (x86)\Microsoft Visual Studio\2019\Community\VC\Tools\MSVC\14.29.30133\atlmfc\include\afxwin2.inl

; 43   : 	{ ASSERT(::IsWindow(m_hWnd)); ::SendMessage(m_hWnd, WM_SETFONT, (WPARAM)pFont->GetSafeHandle(), bRedraw); }

  000c1	b9 00 00 00 00	 mov	 ecx, OFFSET ??_C@_00CNPNBAHC@@
; File D:\git\src\IBK\IBK_DRFN\ProjSrc\SrcDrfn\Chart\comparechart\control\NsyButtonListCtrl.cpp

; 129  : 	int colwidthsType[2] = {nColWd - 20 , 20};

  000c6	2b 45 e0	 sub	 eax, DWORD PTR _rect$[ebp]
  000c9	83 e8 28	 sub	 eax, 40			; 00000028H
  000cc	c7 45 d4 14 00
	00 00		 mov	 DWORD PTR _colwidthsType$[ebp+4], 20 ; 00000014H
  000d3	89 45 d0	 mov	 DWORD PTR _colwidthsType$[ebp], eax
; File C:\Program Files (x86)\Microsoft Visual Studio\2019\Community\VC\Tools\MSVC\14.29.30133\atlmfc\include\afxwin2.inl

; 43   : 	{ ASSERT(::IsWindow(m_hWnd)); ::SendMessage(m_hWnd, WM_SETFONT, (WPARAM)pFont->GetSafeHandle(), bRedraw); }

  000d6	33 f6		 xor	 esi, esi
  000d8	0f 1f 84 00 00
	00 00 00	 npad	 8
$LL4@Init:
; File D:\git\src\IBK\IBK_DRFN\ProjSrc\SrcDrfn\Chart\comparechart\control\NsyButtonListCtrl.cpp

; 136  : 		if(i == 0 )lvcolumn.pszText = _T("");

  000e0	85 f6		 test	 esi, esi
  000e2	c7 45 b4 00 00
	00 00		 mov	 DWORD PTR _lvcolumn$[ebp+16], 0
  000e9	b8 00 00 00 00	 mov	 eax, OFFSET ??_C@_06BGMJNGKF@?A?$LO?$LI?q?$LI?m@
  000ee	c7 45 cc 00 00
	00 00		 mov	 DWORD PTR _lvcolumn$[ebp+40], 0
  000f5	0f 45 c1	 cmovne	 eax, ecx
  000f8	c7 45 a4 0f 00
	00 00		 mov	 DWORD PTR _lvcolumn$[ebp], 15 ; 0000000fH
  000ff	89 45 b0	 mov	 DWORD PTR _lvcolumn$[ebp+12], eax
  00102	0f 57 c0	 xorps	 xmm0, xmm0

; 140  : 		lvcolumn.cx = colwidthsType[i];		

  00105	8b 44 b5 d0	 mov	 eax, DWORD PTR _colwidthsType$[ebp+esi*4]
  00109	89 45 ac	 mov	 DWORD PTR _lvcolumn$[ebp+8], eax
; File C:\Program Files (x86)\Microsoft Visual Studio\2019\Community\VC\Tools\MSVC\14.29.30133\atlmfc\include\afxcmn.inl

; 209  : 	{ ASSERT(::IsWindow(m_hWnd)); return (int) ::SendMessage(m_hWnd, LVM_INSERTCOLUMN, nCol, (LPARAM)pColumn); }

  0010c	8d 45 a4	 lea	 eax, DWORD PTR _lvcolumn$[ebp]
  0010f	50		 push	 eax
  00110	56		 push	 esi
  00111	68 1b 10 00 00	 push	 4123			; 0000101bH
  00116	ff 77 20	 push	 DWORD PTR [edi+32]
; File D:\git\src\IBK\IBK_DRFN\ProjSrc\SrcDrfn\Chart\comparechart\control\NsyButtonListCtrl.cpp

; 132  : 		memset(&lvcolumn, 0, sizeof(lvcolumn));

  00119	66 0f 13 45 bc	 movlpd	 QWORD PTR _lvcolumn$[ebp+24], xmm0
  0011e	66 0f 13 45 c4	 movlpd	 QWORD PTR _lvcolumn$[ebp+32], xmm0

; 133  : 		lvcolumn.mask = LVCF_FMT | LVCF_SUBITEM | LVCF_TEXT | LVCF_WIDTH;
; 134  : 		lvcolumn.fmt =  LVCFMT_CENTER;

  00123	c7 45 a8 02 00
	00 00		 mov	 DWORD PTR _lvcolumn$[ebp+4], 2

; 137  : 		else lvcolumn.pszText = _T("");
; 138  : 
; 139  : 		lvcolumn.iSubItem = i;

  0012a	89 75 b8	 mov	 DWORD PTR _lvcolumn$[ebp+20], esi
; File C:\Program Files (x86)\Microsoft Visual Studio\2019\Community\VC\Tools\MSVC\14.29.30133\atlmfc\include\afxcmn.inl

; 209  : 	{ ASSERT(::IsWindow(m_hWnd)); return (int) ::SendMessage(m_hWnd, LVM_INSERTCOLUMN, nCol, (LPARAM)pColumn); }

  0012d	ff d3		 call	 ebx
; File D:\git\src\IBK\IBK_DRFN\ProjSrc\SrcDrfn\Chart\comparechart\control\NsyButtonListCtrl.cpp

; 130  : 	for(int i = 0; i < 2; i++)

  0012f	46		 inc	 esi
  00130	b9 00 00 00 00	 mov	 ecx, OFFSET ??_C@_00CNPNBAHC@@
  00135	83 fe 02	 cmp	 esi, 2
  00138	7c a6		 jl	 SHORT $LL4@Init

; 141  : 		InsertColumn(i, &lvcolumn);
; 142  : 	}	
; 143  : 
; 144  : 	CImageList imageList; 	

  0013a	8d 4d d8	 lea	 ecx, DWORD PTR _imageList$[ebp]
  0013d	e8 00 00 00 00	 call	 ??0CImageList@@QAE@XZ	; CImageList::CImageList

; 145  : 	long nheight; 	
; 146  : 	nheight = 13; 	
; 147  : 
; 148  : 	imageList.Create(1,nheight,ILC_COLOR4,1,1); 

  00142	6a 01		 push	 1
  00144	6a 01		 push	 1
  00146	6a 04		 push	 4
  00148	6a 0d		 push	 13			; 0000000dH
  0014a	6a 01		 push	 1
  0014c	8d 4d d8	 lea	 ecx, DWORD PTR _imageList$[ebp]
  0014f	c7 45 fc 00 00
	00 00		 mov	 DWORD PTR __$EHRec$[ebp+8], 0
  00156	e8 00 00 00 00	 call	 ?Create@CImageList@@QAEHHHIHH@Z ; CImageList::Create
; File C:\Program Files (x86)\Microsoft Visual Studio\2019\Community\VC\Tools\MSVC\14.29.30133\atlmfc\include\afxcmn.inl

; 153  : 	{ ASSERT(::IsWindow(m_hWnd)); return CImageList::FromHandle((HIMAGELIST) ::SendMessage(m_hWnd, LVM_SETIMAGELIST, nImageList, (LPARAM)pImageList->GetSafeHandle())); }

  0015b	ff 75 dc	 push	 DWORD PTR _imageList$[ebp+4]
  0015e	6a 01		 push	 1
  00160	68 03 10 00 00	 push	 4099			; 00001003H
  00165	ff 77 20	 push	 DWORD PTR [edi+32]
  00168	ff d3		 call	 ebx
  0016a	50		 push	 eax
  0016b	e8 00 00 00 00	 call	 ?FromHandle@CImageList@@SGPAV1@PAU_IMAGELIST@@@Z ; CImageList::FromHandle
; File D:\git\src\IBK\IBK_DRFN\ProjSrc\SrcDrfn\Chart\comparechart\control\NsyButtonListCtrl.cpp

; 150  : }

  00170	8d 4d d8	 lea	 ecx, DWORD PTR _imageList$[ebp]
  00173	e8 00 00 00 00	 call	 ??1CImageList@@UAE@XZ	; CImageList::~CImageList
  00178	8b 4d f4	 mov	 ecx, DWORD PTR __$EHRec$[ebp]
  0017b	64 89 0d 00 00
	00 00		 mov	 DWORD PTR fs:0, ecx
  00182	59		 pop	 ecx
  00183	5f		 pop	 edi
  00184	5e		 pop	 esi
  00185	5b		 pop	 ebx
  00186	8b 4d f0	 mov	 ecx, DWORD PTR __$ArrayPad$[ebp]
  00189	33 cd		 xor	 ecx, ebp
  0018b	e8 00 00 00 00	 call	 @__security_check_cookie@4
  00190	8b e5		 mov	 esp, ebp
  00192	5d		 pop	 ebp
  00193	c3		 ret	 0
_TEXT	ENDS
;	COMDAT text$x
text$x	SEGMENT
__unwindfunclet$?Init@CNsyButtonListCtrl@@QAEXXZ$0:
  00000	8d 4d d8	 lea	 ecx, DWORD PTR _imageList$[ebp]
  00003	e9 00 00 00 00	 jmp	 ??1CImageList@@UAE@XZ	; CImageList::~CImageList
  00008	cc		 int	 3
  00009	cc		 int	 3
  0000a	cc		 int	 3
  0000b	cc		 int	 3
  0000c	cc		 int	 3
__ehhandler$?Init@CNsyButtonListCtrl@@QAEXXZ:
  0000d	90		 npad	 1
  0000e	90		 npad	 1
  0000f	8b 54 24 08	 mov	 edx, DWORD PTR [esp+8]
  00013	8d 42 0c	 lea	 eax, DWORD PTR [edx+12]
  00016	8b 4a a0	 mov	 ecx, DWORD PTR [edx-96]
  00019	33 c8		 xor	 ecx, eax
  0001b	e8 00 00 00 00	 call	 @__security_check_cookie@4
  00020	8b 4a fc	 mov	 ecx, DWORD PTR [edx-4]
  00023	33 c8		 xor	 ecx, eax
  00025	e8 00 00 00 00	 call	 @__security_check_cookie@4
  0002a	b8 00 00 00 00	 mov	 eax, OFFSET __ehfuncinfo$?Init@CNsyButtonListCtrl@@QAEXXZ
  0002f	e9 00 00 00 00	 jmp	 ___CxxFrameHandler3
text$x	ENDS
?Init@CNsyButtonListCtrl@@QAEXXZ ENDP			; CNsyButtonListCtrl::Init
; Function compile flags: /Ogtp
; File D:\git\src\IBK\IBK_DRFN\ProjSrc\SrcDrfn\Chart\comparechart\control\NsyButtonListCtrl.cpp
;	COMDAT ?RemoveOnlyList@CNsyButtonListCtrl@@QAEXH@Z
_TEXT	SEGMENT
_nItem$ = 8						; size = 4
?RemoveOnlyList@CNsyButtonListCtrl@@QAEXH@Z PROC	; CNsyButtonListCtrl::RemoveOnlyList, COMDAT
; _this$ = ecx

; 338  : {

  00000	55		 push	 ebp
  00001	8b ec		 mov	 ebp, esp

; 339  : 	if(m_bDirectRemove==FALSE)

  00003	83 b9 34 02 00
	00 00		 cmp	 DWORD PTR [ecx+564], 0
  0000a	75 06		 jne	 SHORT $LN2@RemoveOnly

; 341  : }

  0000c	5d		 pop	 ebp

; 340  : 		DeleteSelectItem(nItem);

  0000d	e9 00 00 00 00	 jmp	 ?DeleteSelectItem@CNsyButtonListCtrl@@QAEXH@Z ; CNsyButtonListCtrl::DeleteSelectItem
$LN2@RemoveOnly:

; 341  : }

  00012	5d		 pop	 ebp
  00013	c2 04 00	 ret	 4
?RemoveOnlyList@CNsyButtonListCtrl@@QAEXH@Z ENDP	; CNsyButtonListCtrl::RemoveOnlyList
_TEXT	ENDS
; Function compile flags: /Ogtp
; File D:\git\src\IBK\IBK_DRFN\ProjSrc\SrcDrfn\Chart\comparechart\control\NsyButtonListCtrl.cpp
; File C:\Program Files (x86)\Microsoft Visual Studio\2019\Community\VC\Tools\MSVC\14.29.30133\atlmfc\include\afxcoll.inl
; File D:\git\src\IBK\IBK_DRFN\ProjSrc\SrcDrfn\Chart\comparechart\control\NsyButtonListCtrl.cpp
; File C:\Program Files (x86)\Microsoft Visual Studio\2019\Community\VC\Tools\MSVC\14.29.30133\atlmfc\include\afxwin2.inl
; File D:\git\src\IBK\IBK_DRFN\ProjSrc\SrcDrfn\Chart\comparechart\control\NsyButtonListCtrl.cpp
; File C:\Program Files (x86)\Microsoft Visual Studio\2019\Community\VC\Tools\MSVC\14.29.30133\atlmfc\include\afxwin2.inl
; File D:\git\src\IBK\IBK_DRFN\ProjSrc\SrcDrfn\Chart\comparechart\control\NsyButtonListCtrl.cpp
; File C:\Program Files (x86)\Microsoft Visual Studio\2019\Community\VC\Tools\MSVC\14.29.30133\atlmfc\include\afxcoll.inl
; File D:\git\src\IBK\IBK_DRFN\ProjSrc\SrcDrfn\Chart\comparechart\control\NsyButtonListCtrl.cpp
; File C:\Program Files (x86)\Microsoft Visual Studio\2019\Community\VC\Tools\MSVC\14.29.30133\atlmfc\include\afxwin2.inl
; File D:\git\src\IBK\IBK_DRFN\ProjSrc\SrcDrfn\Chart\comparechart\control\NsyButtonListCtrl.cpp
; File C:\Program Files (x86)\Microsoft Visual Studio\2019\Community\VC\Tools\MSVC\14.29.30133\atlmfc\include\atltypes.h
; File D:\git\src\IBK\IBK_DRFN\ProjSrc\SrcDrfn\Chart\comparechart\control\NsyButtonListCtrl.cpp
; File C:\Program Files (x86)\Microsoft Visual Studio\2019\Community\VC\Tools\MSVC\14.29.30133\atlmfc\include\afxwin2.inl
; File D:\git\src\IBK\IBK_DRFN\ProjSrc\SrcDrfn\Chart\comparechart\control\NsyButtonListCtrl.cpp
; File C:\Program Files (x86)\Microsoft Visual Studio\2019\Community\VC\Tools\MSVC\14.29.30133\atlmfc\include\afxwin2.inl
; File D:\git\src\IBK\IBK_DRFN\ProjSrc\SrcDrfn\Chart\comparechart\control\NsyButtonListCtrl.cpp
; File C:\Program Files (x86)\Microsoft Visual Studio\2019\Community\VC\Tools\MSVC\14.29.30133\atlmfc\include\afxcoll.inl
; File D:\git\src\IBK\IBK_DRFN\ProjSrc\SrcDrfn\Chart\comparechart\control\NsyButtonListCtrl.cpp
;	COMDAT ?DeleteSelectItem@CNsyButtonListCtrl@@QAEXH@Z
_TEXT	SEGMENT
_this$GSCopy$1$ = -28					; size = 4
_pBtnInfo$1$ = -24					; size = 4
_subRect$1 = -20					; size = 16
__$ArrayPad$ = -4					; size = 4
_nItem$ = 8						; size = 4
?DeleteSelectItem@CNsyButtonListCtrl@@QAEXH@Z PROC	; CNsyButtonListCtrl::DeleteSelectItem, COMDAT
; _this$ = ecx

; 344  : {

  00000	55		 push	 ebp
  00001	8b ec		 mov	 ebp, esp
  00003	83 ec 1c	 sub	 esp, 28			; 0000001cH
  00006	a1 00 00 00 00	 mov	 eax, DWORD PTR ___security_cookie
  0000b	33 c5		 xor	 eax, ebp
  0000d	89 45 fc	 mov	 DWORD PTR __$ArrayPad$[ebp], eax
  00010	56		 push	 esi
  00011	57		 push	 edi
  00012	8b 7d 08	 mov	 edi, DWORD PTR _nItem$[ebp]
  00015	8b f1		 mov	 esi, ecx
  00017	89 75 e4	 mov	 DWORD PTR _this$GSCopy$1$[ebp], esi
; File C:\Program Files (x86)\Microsoft Visual Studio\2019\Community\VC\Tools\MSVC\14.29.30133\atlmfc\include\afxcoll.inl

; 203  : 		if( nIndex < 0 || nIndex >= m_nSize )

  0001a	85 ff		 test	 edi, edi
  0001c	0f 88 10 01 00
	00		 js	 $LN14@DeleteSele
  00022	3b be 20 02 00
	00		 cmp	 edi, DWORD PTR [esi+544]
  00028	0f 8d 04 01 00
	00		 jge	 $LN14@DeleteSele

; 205  : 		return m_pData[nIndex]; }

  0002e	8b 86 1c 02 00
	00		 mov	 eax, DWORD PTR [esi+540]
  00034	8b 04 b8	 mov	 eax, DWORD PTR [eax+edi*4]
  00037	89 45 e8	 mov	 DWORD PTR _pBtnInfo$1$[ebp], eax
; File D:\git\src\IBK\IBK_DRFN\ProjSrc\SrcDrfn\Chart\comparechart\control\NsyButtonListCtrl.cpp

; 349  : 	if(pBtnInfo != NULL)

  0003a	85 c0		 test	 eax, eax
  0003c	0f 84 de 00 00
	00		 je	 $LN6@DeleteSele

; 351  : 		if( pBtnInfo->xSkinButton.GetSafeHwnd())

  00042	53		 push	 ebx
  00043	8d 58 08	 lea	 ebx, DWORD PTR [eax+8]
; File C:\Program Files (x86)\Microsoft Visual Studio\2019\Community\VC\Tools\MSVC\14.29.30133\atlmfc\include\afxwin2.inl

; 25   : 	{ return this == NULL ? NULL : m_hWnd; }

  00046	85 db		 test	 ebx, ebx
  00048	0f 84 d1 00 00
	00		 je	 $LN48@DeleteSele
; File D:\git\src\IBK\IBK_DRFN\ProjSrc\SrcDrfn\Chart\comparechart\control\NsyButtonListCtrl.cpp

; 351  : 		if( pBtnInfo->xSkinButton.GetSafeHwnd())

  0004e	83 7b 20 00	 cmp	 DWORD PTR [ebx+32], 0
  00052	0f 84 c7 00 00
	00		 je	 $LN48@DeleteSele

; 352  : 		{
; 353  : 			pBtnInfo->xSkinButton.DestroyWindow();

  00058	8b 03		 mov	 eax, DWORD PTR [ebx]
  0005a	8b cb		 mov	 ecx, ebx
  0005c	ff 50 68	 call	 DWORD PTR [eax+104]
  0005f	8b cb		 mov	 ecx, ebx
  00061	e8 00 00 00 00	 call	 ??1CxSkinButton@@UAE@XZ	; CxSkinButton::~CxSkinButton
  00066	68 80 01 00 00	 push	 384			; 00000180H
  0006b	ff 75 e8	 push	 DWORD PTR _pBtnInfo$1$[ebp]
  0006e	e8 00 00 00 00	 call	 ??3@YAXPAXI@Z		; operator delete
  00073	83 c4 08	 add	 esp, 8

; 354  : 			delete pBtnInfo;
; 355  : 			m_ptrArrayBtnWnd.RemoveAt(nItem);

  00076	8d 8e 18 02 00
	00		 lea	 ecx, DWORD PTR [esi+536]
  0007c	6a 01		 push	 1
  0007e	57		 push	 edi
  0007f	e8 00 00 00 00	 call	 ?RemoveAt@CPtrArray@@QAEXHH@Z ; CPtrArray::RemoveAt

; 356  : 			DeleteItem(nItem);

  00084	57		 push	 edi
  00085	8b ce		 mov	 ecx, esi
  00087	e8 00 00 00 00	 call	 ?DeleteItem@CXListCtrl@@QAEHH@Z ; CXListCtrl::DeleteItem
; File C:\Program Files (x86)\Microsoft Visual Studio\2019\Community\VC\Tools\MSVC\14.29.30133\atlmfc\include\afxwin2.inl

; 114  : 	{ ASSERT(::IsWindow(m_hWnd)); ::InvalidateRect(m_hWnd, NULL, bErase); }

  0008c	6a 01		 push	 1
  0008e	6a 00		 push	 0
  00090	ff 76 20	 push	 DWORD PTR [esi+32]
  00093	ff 15 00 00 00
	00		 call	 DWORD PTR __imp__InvalidateRect@12
; File D:\git\src\IBK\IBK_DRFN\ProjSrc\SrcDrfn\Chart\comparechart\control\NsyButtonListCtrl.cpp

; 360  : 			for(int j = nItem; j < m_ptrArrayBtnWnd.GetSize(); j++)

  00099	8b 86 20 02 00
	00		 mov	 eax, DWORD PTR [esi+544]
  0009f	3b f8		 cmp	 edi, eax
  000a1	7d 6f		 jge	 SHORT $LN3@DeleteSele
$LL4@DeleteSele:
; File C:\Program Files (x86)\Microsoft Visual Studio\2019\Community\VC\Tools\MSVC\14.29.30133\atlmfc\include\afxcoll.inl

; 203  : 		if( nIndex < 0 || nIndex >= m_nSize )

  000a3	85 ff		 test	 edi, edi
  000a5	0f 88 87 00 00
	00		 js	 $LN14@DeleteSele
  000ab	3b f8		 cmp	 edi, eax
  000ad	0f 8d 7f 00 00
	00		 jge	 $LN14@DeleteSele

; 205  : 		return m_pData[nIndex]; }

  000b3	8b 8e 1c 02 00
	00		 mov	 ecx, DWORD PTR [esi+540]
  000b9	8b 0c b9	 mov	 ecx, DWORD PTR [ecx+edi*4]
; File D:\git\src\IBK\IBK_DRFN\ProjSrc\SrcDrfn\Chart\comparechart\control\NsyButtonListCtrl.cpp

; 364  : 				if(pBtnInfo2 != NULL)

  000bc	85 c9		 test	 ecx, ecx
  000be	74 4d		 je	 SHORT $LN2@DeleteSele

; 366  : 					if( pBtnInfo2->xSkinButton.GetSafeHwnd())

  000c0	8d 59 08	 lea	 ebx, DWORD PTR [ecx+8]
; File C:\Program Files (x86)\Microsoft Visual Studio\2019\Community\VC\Tools\MSVC\14.29.30133\atlmfc\include\afxwin2.inl

; 25   : 	{ return this == NULL ? NULL : m_hWnd; }

  000c3	85 db		 test	 ebx, ebx
  000c5	74 46		 je	 SHORT $LN2@DeleteSele
; File D:\git\src\IBK\IBK_DRFN\ProjSrc\SrcDrfn\Chart\comparechart\control\NsyButtonListCtrl.cpp

; 366  : 					if( pBtnInfo2->xSkinButton.GetSafeHwnd())

  000c7	83 7b 20 00	 cmp	 DWORD PTR [ebx+32], 0
  000cb	74 40		 je	 SHORT $LN2@DeleteSele

; 367  : 					{											
; 368  : 						pBtnInfo2->nIndex -= 1;

  000cd	ff 09		 dec	 DWORD PTR [ecx]

; 370  : 						GetSubItemRect(pBtnInfo2->nIndex, 1,LVIR_BOUNDS, subRect);

  000cf	8d 45 ec	 lea	 eax, DWORD PTR _subRect$1[ebp]
  000d2	50		 push	 eax
  000d3	6a 00		 push	 0
  000d5	6a 01		 push	 1
  000d7	ff 31		 push	 DWORD PTR [ecx]
  000d9	0f 57 c0	 xorps	 xmm0, xmm0
  000dc	8b ce		 mov	 ecx, esi
; File C:\Program Files (x86)\Microsoft Visual Studio\2019\Community\VC\Tools\MSVC\14.29.30133\atlmfc\include\atltypes.h

; 528  : 	left = 0;

  000de	0f 11 45 ec	 movups	 XMMWORD PTR _subRect$1[ebp], xmm0
; File D:\git\src\IBK\IBK_DRFN\ProjSrc\SrcDrfn\Chart\comparechart\control\NsyButtonListCtrl.cpp

; 370  : 						GetSubItemRect(pBtnInfo2->nIndex, 1,LVIR_BOUNDS, subRect);

  000e2	e8 00 00 00 00	 call	 ?GetSubItemRect@CXListCtrl@@QAEHHHHAAVCRect@@@Z ; CXListCtrl::GetSubItemRect
; File C:\Program Files (x86)\Microsoft Visual Studio\2019\Community\VC\Tools\MSVC\14.29.30133\atlmfc\include\afxwin2.inl

; 73   : 	{ MoveWindow(lpRect->left, lpRect->top, lpRect->right - lpRect->left,

  000e7	8b 45 f8	 mov	 eax, DWORD PTR _subRect$1[ebp+12]
  000ea	8b cb		 mov	 ecx, ebx
  000ec	8b 75 f0	 mov	 esi, DWORD PTR _subRect$1[ebp+4]
  000ef	2b c6		 sub	 eax, esi
  000f1	8b 55 ec	 mov	 edx, DWORD PTR _subRect$1[ebp]
  000f4	6a 01		 push	 1
  000f6	50		 push	 eax
  000f7	8b 45 f4	 mov	 eax, DWORD PTR _subRect$1[ebp+8]
  000fa	2b c2		 sub	 eax, edx
  000fc	50		 push	 eax
  000fd	56		 push	 esi
  000fe	52		 push	 edx
  000ff	e8 00 00 00 00	 call	 ?MoveWindow@CWnd@@QAEXHHHHH@Z ; CWnd::MoveWindow
  00104	8b 75 e4	 mov	 esi, DWORD PTR _this$GSCopy$1$[ebp]
  00107	8b 86 20 02 00
	00		 mov	 eax, DWORD PTR [esi+544]
$LN2@DeleteSele:
; File D:\git\src\IBK\IBK_DRFN\ProjSrc\SrcDrfn\Chart\comparechart\control\NsyButtonListCtrl.cpp

; 360  : 			for(int j = nItem; j < m_ptrArrayBtnWnd.GetSize(); j++)

  0010d	47		 inc	 edi
  0010e	3b f8		 cmp	 edi, eax
  00110	7c 91		 jl	 SHORT $LL4@DeleteSele
$LN3@DeleteSele:
; File C:\Program Files (x86)\Microsoft Visual Studio\2019\Community\VC\Tools\MSVC\14.29.30133\atlmfc\include\afxwin2.inl

; 114  : 	{ ASSERT(::IsWindow(m_hWnd)); ::InvalidateRect(m_hWnd, NULL, bErase); }

  00112	6a 01		 push	 1
  00114	6a 00		 push	 0
  00116	ff 76 20	 push	 DWORD PTR [esi+32]
  00119	ff 15 00 00 00
	00		 call	 DWORD PTR __imp__InvalidateRect@12
$LN48@DeleteSele:
  0011f	5b		 pop	 ebx
$LN6@DeleteSele:
; File D:\git\src\IBK\IBK_DRFN\ProjSrc\SrcDrfn\Chart\comparechart\control\NsyButtonListCtrl.cpp

; 378  : }

  00120	8b 4d fc	 mov	 ecx, DWORD PTR __$ArrayPad$[ebp]
  00123	5f		 pop	 edi
  00124	33 cd		 xor	 ecx, ebp
  00126	5e		 pop	 esi
  00127	e8 00 00 00 00	 call	 @__security_check_cookie@4
  0012c	8b e5		 mov	 esp, ebp
  0012e	5d		 pop	 ebp
  0012f	c2 04 00	 ret	 4
$LN14@DeleteSele:
; File C:\Program Files (x86)\Microsoft Visual Studio\2019\Community\VC\Tools\MSVC\14.29.30133\atlmfc\include\afxcoll.inl

; 204  : 			AfxThrowInvalidArgException();

  00132	e8 00 00 00 00	 call	 ?AfxThrowInvalidArgException@@YGXXZ ; AfxThrowInvalidArgException
$LN49@DeleteSele:
  00137	cc		 int	 3
?DeleteSelectItem@CNsyButtonListCtrl@@QAEXH@Z ENDP	; CNsyButtonListCtrl::DeleteSelectItem
_TEXT	ENDS
; Function compile flags: /Ogtp
; File D:\git\src\IBK\IBK_DRFN\ProjSrc\SrcDrfn\Chart\comparechart\control\NsyButtonListCtrl.cpp
; File C:\Program Files (x86)\Microsoft Visual Studio\2019\Community\VC\Tools\MSVC\14.29.30133\atlmfc\include\afxcmn.inl
; File D:\git\src\IBK\IBK_DRFN\ProjSrc\SrcDrfn\Chart\comparechart\control\NsyButtonListCtrl.cpp
; File C:\Program Files (x86)\Microsoft Visual Studio\2019\Community\VC\Tools\MSVC\14.29.30133\atlmfc\include\afxcmn.inl
; File D:\git\src\IBK\IBK_DRFN\ProjSrc\SrcDrfn\Chart\comparechart\control\NsyButtonListCtrl.cpp
; File C:\Program Files (x86)\Microsoft Visual Studio\2019\Community\VC\Tools\MSVC\14.29.30133\atlmfc\include\afxcmn.inl
; File C:\Program Files (x86)\Microsoft Visual Studio\2019\Community\VC\Tools\MSVC\14.29.30133\atlmfc\include\afxcoll.inl
; File D:\git\src\IBK\IBK_DRFN\ProjSrc\SrcDrfn\Chart\comparechart\control\NsyButtonListCtrl.cpp
; File C:\Program Files (x86)\Microsoft Visual Studio\2019\Community\VC\Tools\MSVC\14.29.30133\atlmfc\include\afxwin2.inl
; File D:\git\src\IBK\IBK_DRFN\ProjSrc\SrcDrfn\Chart\comparechart\control\NsyButtonListCtrl.cpp
; File C:\Program Files (x86)\Microsoft Visual Studio\2019\Community\VC\Tools\MSVC\14.29.30133\atlmfc\include\afxwin2.inl
; File D:\git\src\IBK\IBK_DRFN\ProjSrc\SrcDrfn\Chart\comparechart\control\NsyButtonListCtrl.cpp
; File C:\Program Files (x86)\Microsoft Visual Studio\2019\Community\VC\Tools\MSVC\14.29.30133\atlmfc\include\afxcoll.inl
; File D:\git\src\IBK\IBK_DRFN\ProjSrc\SrcDrfn\Chart\comparechart\control\NsyButtonListCtrl.cpp
; File C:\Program Files (x86)\Microsoft Visual Studio\2019\Community\VC\Tools\MSVC\14.29.30133\atlmfc\include\afxwin2.inl
; File D:\git\src\IBK\IBK_DRFN\ProjSrc\SrcDrfn\Chart\comparechart\control\NsyButtonListCtrl.cpp
; File C:\Program Files (x86)\Microsoft Visual Studio\2019\Community\VC\Tools\MSVC\14.29.30133\atlmfc\include\atltypes.h
; File D:\git\src\IBK\IBK_DRFN\ProjSrc\SrcDrfn\Chart\comparechart\control\NsyButtonListCtrl.cpp
; File C:\Program Files (x86)\Microsoft Visual Studio\2019\Community\VC\Tools\MSVC\14.29.30133\atlmfc\include\afxwin2.inl
; File D:\git\src\IBK\IBK_DRFN\ProjSrc\SrcDrfn\Chart\comparechart\control\NsyButtonListCtrl.cpp
; File C:\Program Files (x86)\Microsoft Visual Studio\2019\Community\VC\Tools\MSVC\14.29.30133\atlmfc\include\afxwin2.inl
; File D:\git\src\IBK\IBK_DRFN\ProjSrc\SrcDrfn\Chart\comparechart\control\NsyButtonListCtrl.cpp
; File C:\Program Files (x86)\Microsoft Visual Studio\2019\Community\VC\Tools\MSVC\14.29.30133\atlmfc\include\afxcoll.inl
; File D:\git\src\IBK\IBK_DRFN\ProjSrc\SrcDrfn\Chart\comparechart\control\NsyButtonListCtrl.cpp
;	COMDAT ?DeleteOneItem@CNsyButtonListCtrl@@QAEXXZ
_TEXT	SEGMENT
_this$1$ = -24						; size = 4
_pBtnInfo$1$ = -24					; size = 4
_subRect$1 = -20					; size = 16
__$ArrayPad$ = -4					; size = 4
?DeleteOneItem@CNsyButtonListCtrl@@QAEXXZ PROC		; CNsyButtonListCtrl::DeleteOneItem, COMDAT
; _this$ = ecx

; 280  : {

  00000	55		 push	 ebp
  00001	8b ec		 mov	 ebp, esp
  00003	83 ec 18	 sub	 esp, 24			; 00000018H
  00006	a1 00 00 00 00	 mov	 eax, DWORD PTR ___security_cookie
  0000b	33 c5		 xor	 eax, ebp
  0000d	89 45 fc	 mov	 DWORD PTR __$ArrayPad$[ebp], eax
  00010	53		 push	 ebx
  00011	56		 push	 esi
; File C:\Program Files (x86)\Microsoft Visual Studio\2019\Community\VC\Tools\MSVC\14.29.30133\atlmfc\include\afxcmn.inl

; 177  : 	{ ASSERT(::IsWindow(m_hWnd)); return (int) ::SendMessage(m_hWnd, LVM_GETNEXTITEM, nItem, MAKELPARAM(nFlags, 0)); }

  00012	8b 35 00 00 00
	00		 mov	 esi, DWORD PTR __imp__SendMessageA@16
; File D:\git\src\IBK\IBK_DRFN\ProjSrc\SrcDrfn\Chart\comparechart\control\NsyButtonListCtrl.cpp

; 280  : {

  00018	8b d9		 mov	 ebx, ecx
; File C:\Program Files (x86)\Microsoft Visual Studio\2019\Community\VC\Tools\MSVC\14.29.30133\atlmfc\include\afxcmn.inl

; 177  : 	{ ASSERT(::IsWindow(m_hWnd)); return (int) ::SendMessage(m_hWnd, LVM_GETNEXTITEM, nItem, MAKELPARAM(nFlags, 0)); }

  0001a	6a 02		 push	 2
  0001c	6a ff		 push	 -1
  0001e	68 0c 10 00 00	 push	 4108			; 0000100cH
  00023	ff 73 20	 push	 DWORD PTR [ebx+32]
  00026	ff d6		 call	 esi

; 179  : 	{ ASSERT(::IsWindow(m_hWnd)); return (POSITION)(DWORD_PTR)(1+GetNextItem(-1, LVIS_SELECTED)); }

  00028	83 c0 01	 add	 eax, 1
; File D:\git\src\IBK\IBK_DRFN\ProjSrc\SrcDrfn\Chart\comparechart\control\NsyButtonListCtrl.cpp

; 283  : 	if(pos == NULL)

  0002b	75 23		 jne	 SHORT $LN5@DeleteOneI

; 284  : 	{
; 285  : 		MessageBox("  .", "", MB_OK | MB_ICONERROR);

  0002d	6a 10		 push	 16			; 00000010H
  0002f	68 00 00 00 00	 push	 OFFSET ??_C@_04CKNILEAC@?$LO?K?$LI?$LC@
  00034	68 00 00 00 00	 push	 OFFSET ??_C@_0BM@DDPBINJL@?$LL?h?A?$KG?G?R?5?G?W?$LI?q?$MA?$LL?5?$LM?$LB?E?C?G?O?$LN?J?$LN?C?$LP?$MA?4@
  00039	8b cb		 mov	 ecx, ebx
  0003b	e8 00 00 00 00	 call	 ?MessageBoxA@CWnd@@QAEHPBD0I@Z ; CWnd::MessageBoxA
  00040	5e		 pop	 esi

; 334  : }

  00041	5b		 pop	 ebx
  00042	8b 4d fc	 mov	 ecx, DWORD PTR __$ArrayPad$[ebp]
  00045	33 cd		 xor	 ecx, ebp
  00047	e8 00 00 00 00	 call	 @__security_check_cookie@4
  0004c	8b e5		 mov	 esp, ebp
  0004e	5d		 pop	 ebp
  0004f	c3		 ret	 0
$LN5@DeleteOneI:
  00050	57		 push	 edi
; File C:\Program Files (x86)\Microsoft Visual Studio\2019\Community\VC\Tools\MSVC\14.29.30133\atlmfc\include\afxcmn.inl

; 177  : 	{ ASSERT(::IsWindow(m_hWnd)); return (int) ::SendMessage(m_hWnd, LVM_GETNEXTITEM, nItem, MAKELPARAM(nFlags, 0)); }

  00051	6a 02		 push	 2

; 181  : 	{ ASSERT(::IsWindow(m_hWnd)); DWORD_PTR nOldPos = (DWORD_PTR)pos-1; pos = (POSITION)(DWORD_PTR)(1+GetNextItem((UINT)nOldPos, LVIS_SELECTED)); return (UINT)nOldPos; }

  00053	8d 78 ff	 lea	 edi, DWORD PTR [eax-1]

; 177  : 	{ ASSERT(::IsWindow(m_hWnd)); return (int) ::SendMessage(m_hWnd, LVM_GETNEXTITEM, nItem, MAKELPARAM(nFlags, 0)); }

  00056	57		 push	 edi
  00057	68 0c 10 00 00	 push	 4108			; 0000100cH
  0005c	ff 73 20	 push	 DWORD PTR [ebx+32]
  0005f	ff d6		 call	 esi
; File C:\Program Files (x86)\Microsoft Visual Studio\2019\Community\VC\Tools\MSVC\14.29.30133\atlmfc\include\afxcoll.inl

; 203  : 		if( nIndex < 0 || nIndex >= m_nSize )

  00061	85 ff		 test	 edi, edi
  00063	0f 88 11 01 00
	00		 js	 $LN24@DeleteOneI
  00069	3b bb 20 02 00
	00		 cmp	 edi, DWORD PTR [ebx+544]
  0006f	0f 8d 05 01 00
	00		 jge	 $LN24@DeleteOneI

; 205  : 		return m_pData[nIndex]; }

  00075	8b 83 1c 02 00
	00		 mov	 eax, DWORD PTR [ebx+540]
  0007b	8b 04 b8	 mov	 eax, DWORD PTR [eax+edi*4]
  0007e	89 45 e8	 mov	 DWORD PTR _pBtnInfo$1$[ebp], eax
; File D:\git\src\IBK\IBK_DRFN\ProjSrc\SrcDrfn\Chart\comparechart\control\NsyButtonListCtrl.cpp

; 298  : 		if(pBtnInfo != NULL)

  00081	85 c0		 test	 eax, eax
  00083	0f 84 e0 00 00
	00		 je	 $LN58@DeleteOneI

; 300  : 			if( pBtnInfo->xSkinButton.GetSafeHwnd())

  00089	8d 70 08	 lea	 esi, DWORD PTR [eax+8]
; File C:\Program Files (x86)\Microsoft Visual Studio\2019\Community\VC\Tools\MSVC\14.29.30133\atlmfc\include\afxwin2.inl

; 25   : 	{ return this == NULL ? NULL : m_hWnd; }

  0008c	85 f6		 test	 esi, esi
  0008e	0f 84 d5 00 00
	00		 je	 $LN58@DeleteOneI
; File D:\git\src\IBK\IBK_DRFN\ProjSrc\SrcDrfn\Chart\comparechart\control\NsyButtonListCtrl.cpp

; 300  : 			if( pBtnInfo->xSkinButton.GetSafeHwnd())

  00094	83 7e 20 00	 cmp	 DWORD PTR [esi+32], 0
  00098	0f 84 cb 00 00
	00		 je	 $LN58@DeleteOneI

; 301  : 			{
; 302  : //				CString sTemp;
; 303  : //				sTemp.Format("pBtnInfo->nIndex : %d", pBtnInfo->nIndex);
; 304  : //				AfxMessageBox(sTemp);
; 305  : 				
; 306  : 				
; 307  : 				pBtnInfo->xSkinButton.DestroyWindow();

  0009e	8b 06		 mov	 eax, DWORD PTR [esi]
  000a0	8b ce		 mov	 ecx, esi
  000a2	ff 50 68	 call	 DWORD PTR [eax+104]
  000a5	8b ce		 mov	 ecx, esi
  000a7	e8 00 00 00 00	 call	 ??1CxSkinButton@@UAE@XZ	; CxSkinButton::~CxSkinButton
  000ac	68 80 01 00 00	 push	 384			; 00000180H
  000b1	ff 75 e8	 push	 DWORD PTR _pBtnInfo$1$[ebp]
  000b4	e8 00 00 00 00	 call	 ??3@YAXPAXI@Z		; operator delete
  000b9	83 c4 08	 add	 esp, 8

; 308  : 				delete pBtnInfo;
; 309  : 				m_ptrArrayBtnWnd.RemoveAt(i);

  000bc	8d 8b 18 02 00
	00		 lea	 ecx, DWORD PTR [ebx+536]
  000c2	6a 01		 push	 1
  000c4	57		 push	 edi
  000c5	e8 00 00 00 00	 call	 ?RemoveAt@CPtrArray@@QAEXHH@Z ; CPtrArray::RemoveAt

; 310  : 				DeleteItem(i);

  000ca	57		 push	 edi
  000cb	8b cb		 mov	 ecx, ebx
  000cd	e8 00 00 00 00	 call	 ?DeleteItem@CXListCtrl@@QAEHH@Z ; CXListCtrl::DeleteItem
; File C:\Program Files (x86)\Microsoft Visual Studio\2019\Community\VC\Tools\MSVC\14.29.30133\atlmfc\include\afxwin2.inl

; 114  : 	{ ASSERT(::IsWindow(m_hWnd)); ::InvalidateRect(m_hWnd, NULL, bErase); }

  000d2	6a 01		 push	 1
  000d4	6a 00		 push	 0
  000d6	ff 73 20	 push	 DWORD PTR [ebx+32]
  000d9	ff 15 00 00 00
	00		 call	 DWORD PTR __imp__InvalidateRect@12
; File D:\git\src\IBK\IBK_DRFN\ProjSrc\SrcDrfn\Chart\comparechart\control\NsyButtonListCtrl.cpp

; 314  : 				for(int j = i; j < m_ptrArrayBtnWnd.GetSize(); j++)

  000df	8b 83 20 02 00
	00		 mov	 eax, DWORD PTR [ebx+544]
  000e5	3b f8		 cmp	 edi, eax
  000e7	7d 73		 jge	 SHORT $LN3@DeleteOneI
  000e9	0f 1f 80 00 00
	00 00		 npad	 7
$LL4@DeleteOneI:
; File C:\Program Files (x86)\Microsoft Visual Studio\2019\Community\VC\Tools\MSVC\14.29.30133\atlmfc\include\afxcoll.inl

; 203  : 		if( nIndex < 0 || nIndex >= m_nSize )

  000f0	85 ff		 test	 edi, edi
  000f2	0f 88 82 00 00
	00		 js	 $LN24@DeleteOneI
  000f8	3b f8		 cmp	 edi, eax
  000fa	7d 7e		 jge	 SHORT $LN24@DeleteOneI

; 205  : 		return m_pData[nIndex]; }

  000fc	8b 8b 1c 02 00
	00		 mov	 ecx, DWORD PTR [ebx+540]
  00102	8b 0c b9	 mov	 ecx, DWORD PTR [ecx+edi*4]
; File D:\git\src\IBK\IBK_DRFN\ProjSrc\SrcDrfn\Chart\comparechart\control\NsyButtonListCtrl.cpp

; 318  : 					if(pBtnInfo2 != NULL)

  00105	85 c9		 test	 ecx, ecx
  00107	74 4e		 je	 SHORT $LN2@DeleteOneI

; 320  : 						if( pBtnInfo2->xSkinButton.GetSafeHwnd())

  00109	8d 51 08	 lea	 edx, DWORD PTR [ecx+8]
  0010c	89 55 e8	 mov	 DWORD PTR _this$1$[ebp], edx
; File C:\Program Files (x86)\Microsoft Visual Studio\2019\Community\VC\Tools\MSVC\14.29.30133\atlmfc\include\afxwin2.inl

; 25   : 	{ return this == NULL ? NULL : m_hWnd; }

  0010f	85 d2		 test	 edx, edx
  00111	74 44		 je	 SHORT $LN2@DeleteOneI
; File D:\git\src\IBK\IBK_DRFN\ProjSrc\SrcDrfn\Chart\comparechart\control\NsyButtonListCtrl.cpp

; 320  : 						if( pBtnInfo2->xSkinButton.GetSafeHwnd())

  00113	83 7a 20 00	 cmp	 DWORD PTR [edx+32], 0
  00117	74 3e		 je	 SHORT $LN2@DeleteOneI

; 321  : 						{											
; 322  : 							pBtnInfo2->nIndex -= 1;

  00119	ff 09		 dec	 DWORD PTR [ecx]

; 324  : 							GetSubItemRect(pBtnInfo2->nIndex, 1,LVIR_BOUNDS, subRect);

  0011b	8d 45 ec	 lea	 eax, DWORD PTR _subRect$1[ebp]
  0011e	50		 push	 eax
  0011f	6a 00		 push	 0
  00121	6a 01		 push	 1
  00123	ff 31		 push	 DWORD PTR [ecx]
  00125	0f 57 c0	 xorps	 xmm0, xmm0
  00128	8b cb		 mov	 ecx, ebx
; File C:\Program Files (x86)\Microsoft Visual Studio\2019\Community\VC\Tools\MSVC\14.29.30133\atlmfc\include\atltypes.h

; 528  : 	left = 0;

  0012a	0f 11 45 ec	 movups	 XMMWORD PTR _subRect$1[ebp], xmm0
; File D:\git\src\IBK\IBK_DRFN\ProjSrc\SrcDrfn\Chart\comparechart\control\NsyButtonListCtrl.cpp

; 324  : 							GetSubItemRect(pBtnInfo2->nIndex, 1,LVIR_BOUNDS, subRect);

  0012e	e8 00 00 00 00	 call	 ?GetSubItemRect@CXListCtrl@@QAEHHHHAAVCRect@@@Z ; CXListCtrl::GetSubItemRect
; File C:\Program Files (x86)\Microsoft Visual Studio\2019\Community\VC\Tools\MSVC\14.29.30133\atlmfc\include\afxwin2.inl

; 73   : 	{ MoveWindow(lpRect->left, lpRect->top, lpRect->right - lpRect->left,

  00133	8b 45 f8	 mov	 eax, DWORD PTR _subRect$1[ebp+12]
  00136	8b 75 f0	 mov	 esi, DWORD PTR _subRect$1[ebp+4]
  00139	2b c6		 sub	 eax, esi
  0013b	8b 55 ec	 mov	 edx, DWORD PTR _subRect$1[ebp]
  0013e	8b 4d e8	 mov	 ecx, DWORD PTR _this$1$[ebp]
  00141	6a 01		 push	 1
  00143	50		 push	 eax
  00144	8b 45 f4	 mov	 eax, DWORD PTR _subRect$1[ebp+8]
  00147	2b c2		 sub	 eax, edx
  00149	50		 push	 eax
  0014a	56		 push	 esi
  0014b	52		 push	 edx
  0014c	e8 00 00 00 00	 call	 ?MoveWindow@CWnd@@QAEXHHHHH@Z ; CWnd::MoveWindow
  00151	8b 83 20 02 00
	00		 mov	 eax, DWORD PTR [ebx+544]
$LN2@DeleteOneI:
; File D:\git\src\IBK\IBK_DRFN\ProjSrc\SrcDrfn\Chart\comparechart\control\NsyButtonListCtrl.cpp

; 314  : 				for(int j = i; j < m_ptrArrayBtnWnd.GetSize(); j++)

  00157	47		 inc	 edi
  00158	3b f8		 cmp	 edi, eax
  0015a	7c 94		 jl	 SHORT $LL4@DeleteOneI
$LN3@DeleteOneI:
; File C:\Program Files (x86)\Microsoft Visual Studio\2019\Community\VC\Tools\MSVC\14.29.30133\atlmfc\include\afxwin2.inl

; 114  : 	{ ASSERT(::IsWindow(m_hWnd)); ::InvalidateRect(m_hWnd, NULL, bErase); }

  0015c	6a 01		 push	 1
  0015e	6a 00		 push	 0
  00160	ff 73 20	 push	 DWORD PTR [ebx+32]
  00163	ff 15 00 00 00
	00		 call	 DWORD PTR __imp__InvalidateRect@12
$LN58@DeleteOneI:
; File D:\git\src\IBK\IBK_DRFN\ProjSrc\SrcDrfn\Chart\comparechart\control\NsyButtonListCtrl.cpp

; 334  : }

  00169	8b 4d fc	 mov	 ecx, DWORD PTR __$ArrayPad$[ebp]
  0016c	5f		 pop	 edi
  0016d	5e		 pop	 esi
  0016e	33 cd		 xor	 ecx, ebp
  00170	5b		 pop	 ebx
  00171	e8 00 00 00 00	 call	 @__security_check_cookie@4
  00176	8b e5		 mov	 esp, ebp
  00178	5d		 pop	 ebp
  00179	c3		 ret	 0
$LN24@DeleteOneI:
; File C:\Program Files (x86)\Microsoft Visual Studio\2019\Community\VC\Tools\MSVC\14.29.30133\atlmfc\include\afxcoll.inl

; 204  : 			AfxThrowInvalidArgException();

  0017a	e8 00 00 00 00	 call	 ?AfxThrowInvalidArgException@@YGXXZ ; AfxThrowInvalidArgException
$LN59@DeleteOneI:
  0017f	cc		 int	 3
?DeleteOneItem@CNsyButtonListCtrl@@QAEXXZ ENDP		; CNsyButtonListCtrl::DeleteOneItem
_TEXT	ENDS
; Function compile flags: /Ogtp
; File D:\git\src\IBK\IBK_DRFN\ProjSrc\SrcDrfn\Chart\comparechart\control\NsyButtonListCtrl.cpp
; File C:\Program Files (x86)\Microsoft Visual Studio\2019\Community\VC\Tools\MSVC\14.29.30133\atlmfc\include\afxcmn.inl
; File D:\git\src\IBK\IBK_DRFN\ProjSrc\SrcDrfn\Chart\comparechart\control\NsyButtonListCtrl.cpp
; File C:\Program Files (x86)\Microsoft Visual Studio\2019\Community\VC\Tools\MSVC\14.29.30133\atlmfc\include\afxwin2.inl
; File D:\git\src\IBK\IBK_DRFN\ProjSrc\SrcDrfn\Chart\comparechart\control\NsyButtonListCtrl.cpp
;	COMDAT ?Init_CompareChart@CNsyButtonListCtrl@@QAEXXZ
_TEXT	SEGMENT
$T2 = -20						; size = 4
_strCode$3 = -16					; size = 4
__$EHRec$ = -12						; size = 12
?Init_CompareChart@CNsyButtonListCtrl@@QAEXXZ PROC	; CNsyButtonListCtrl::Init_CompareChart, COMDAT
; _this$ = ecx

; 381  : {

  00000	55		 push	 ebp
  00001	8b ec		 mov	 ebp, esp
  00003	6a ff		 push	 -1
  00005	68 00 00 00 00	 push	 __ehhandler$?Init_CompareChart@CNsyButtonListCtrl@@QAEXXZ
  0000a	64 a1 00 00 00
	00		 mov	 eax, DWORD PTR fs:0
  00010	50		 push	 eax
  00011	83 ec 08	 sub	 esp, 8
  00014	53		 push	 ebx
  00015	56		 push	 esi
  00016	57		 push	 edi
  00017	a1 00 00 00 00	 mov	 eax, DWORD PTR ___security_cookie
  0001c	33 c5		 xor	 eax, ebp
  0001e	50		 push	 eax
  0001f	8d 45 f4	 lea	 eax, DWORD PTR __$EHRec$[ebp]
  00022	64 a3 00 00 00
	00		 mov	 DWORD PTR fs:0, eax
  00028	8b f9		 mov	 edi, ecx
; File C:\Program Files (x86)\Microsoft Visual Studio\2019\Community\VC\Tools\MSVC\14.29.30133\atlmfc\include\afxcmn.inl

; 155  : 	{ ASSERT(::IsWindow(m_hWnd)); return (int) ::SendMessage(m_hWnd, LVM_GETITEMCOUNT, 0, 0L); }

  0002a	8b 1d 00 00 00
	00		 mov	 ebx, DWORD PTR __imp__SendMessageA@16
  00030	6a 00		 push	 0
  00032	6a 00		 push	 0
  00034	68 04 10 00 00	 push	 4100			; 00001004H
  00039	ff 77 20	 push	 DWORD PTR [edi+32]
  0003c	ff d3		 call	 ebx
; File D:\git\src\IBK\IBK_DRFN\ProjSrc\SrcDrfn\Chart\comparechart\control\NsyButtonListCtrl.cpp

; 384  : 	for(int i=nTot-1; i >= 0; i--)

  0003e	8d 70 ff	 lea	 esi, DWORD PTR [eax-1]
  00041	85 f6		 test	 esi, esi
  00043	78 56		 js	 SHORT $LN3@Init_Compa
$LL4@Init_Compa:

; 385  : 	{
; 386  : 		CString strCode;

  00045	8d 4d f0	 lea	 ecx, DWORD PTR _strCode$3[ebp]
  00048	ff 15 00 00 00
	00		 call	 DWORD PTR __imp_??0?$CStringT@DV?$StrTraitMFC_DLL@DV?$ChTraitsCRT@D@ATL@@@@@ATL@@QAE@XZ

; 387  : 		strCode = GetItemText(i, 1);

  0004e	6a 01		 push	 1
  00050	56		 push	 esi
  00051	8d 45 ec	 lea	 eax, DWORD PTR $T2[ebp]
  00054	c7 45 fc 00 00
	00 00		 mov	 DWORD PTR __$EHRec$[ebp+8], 0
  0005b	50		 push	 eax
  0005c	8b cf		 mov	 ecx, edi
  0005e	e8 00 00 00 00	 call	 ?GetItemText@CListCtrl@@QBE?AV?$CStringT@DV?$StrTraitMFC_DLL@DV?$ChTraitsCRT@D@ATL@@@@@ATL@@HH@Z ; CListCtrl::GetItemText
  00063	50		 push	 eax
  00064	8d 4d f0	 lea	 ecx, DWORD PTR _strCode$3[ebp]
  00067	c6 45 fc 01	 mov	 BYTE PTR __$EHRec$[ebp+8], 1
  0006b	ff 15 00 00 00
	00		 call	 DWORD PTR __imp_??4?$CStringT@DV?$StrTraitMFC_DLL@DV?$ChTraitsCRT@D@ATL@@@@@ATL@@QAEAAV01@ABV01@@Z
  00071	8d 4d ec	 lea	 ecx, DWORD PTR $T2[ebp]
  00074	c6 45 fc 00	 mov	 BYTE PTR __$EHRec$[ebp+8], 0
  00078	ff 15 00 00 00
	00		 call	 DWORD PTR __imp_??1?$CStringT@DV?$StrTraitMFC_DLL@DV?$ChTraitsCRT@D@ATL@@@@@ATL@@QAE@XZ

; 388  : 		// 1. Real     .
; 389  : 		//DeleteChartData(i);		
; 390  : 		SendToChartRemoveGraph(i);

  0007e	56		 push	 esi
  0007f	8b cf		 mov	 ecx, edi
  00081	e8 00 00 00 00	 call	 ?SendToChartRemoveGraph@CNsyButtonListCtrl@@QAEXH@Z ; CNsyButtonListCtrl::SendToChartRemoveGraph

; 391  : 	}

  00086	8d 4d f0	 lea	 ecx, DWORD PTR _strCode$3[ebp]
  00089	c7 45 fc ff ff
	ff ff		 mov	 DWORD PTR __$EHRec$[ebp+8], -1
  00090	ff 15 00 00 00
	00		 call	 DWORD PTR __imp_??1?$CStringT@DV?$StrTraitMFC_DLL@DV?$ChTraitsCRT@D@ATL@@@@@ATL@@QAE@XZ
  00096	83 ee 01	 sub	 esi, 1
  00099	79 aa		 jns	 SHORT $LL4@Init_Compa
$LN3@Init_Compa:

; 392  : 	//2. List  
; 393  : 	DeleteAllItems();

  0009b	8b cf		 mov	 ecx, edi
  0009d	e8 00 00 00 00	 call	 ?DeleteAllItems@CXListCtrl@@QAEHXZ ; CXListCtrl::DeleteAllItems

; 394  : 
; 395  : 	//3. BtnArray  .
; 396  : 	ClearArrayBtnWnd();

  000a2	8b cf		 mov	 ecx, edi
  000a4	e8 00 00 00 00	 call	 ?ClearArrayBtnWnd@CNsyButtonListCtrl@@QAEXXZ ; CNsyButtonListCtrl::ClearArrayBtnWnd
; File C:\Program Files (x86)\Microsoft Visual Studio\2019\Community\VC\Tools\MSVC\14.29.30133\atlmfc\include\afxwin2.inl

; 114  : 	{ ASSERT(::IsWindow(m_hWnd)); ::InvalidateRect(m_hWnd, NULL, bErase); }

  000a9	6a 01		 push	 1
  000ab	6a 00		 push	 0
  000ad	ff 77 20	 push	 DWORD PTR [edi+32]
  000b0	ff 15 00 00 00
	00		 call	 DWORD PTR __imp__InvalidateRect@12

; 213  : 	{ ASSERT(::IsWindow(m_hWnd)); return CWnd::FromHandle(::GetParent(m_hWnd)); }

  000b6	ff 77 20	 push	 DWORD PTR [edi+32]
  000b9	8b 35 00 00 00
	00		 mov	 esi, DWORD PTR __imp__GetParent@4
  000bf	ff d6		 call	 esi
  000c1	50		 push	 eax
  000c2	e8 00 00 00 00	 call	 ?FromHandle@CWnd@@SGPAV1@PAUHWND__@@@Z ; CWnd::FromHandle
  000c7	ff 70 20	 push	 DWORD PTR [eax+32]
  000ca	ff d6		 call	 esi
  000cc	50		 push	 eax
  000cd	e8 00 00 00 00	 call	 ?FromHandle@CWnd@@SGPAV1@PAUHWND__@@@Z ; CWnd::FromHandle
  000d2	ff 70 20	 push	 DWORD PTR [eax+32]
  000d5	ff d6		 call	 esi
  000d7	50		 push	 eax
  000d8	e8 00 00 00 00	 call	 ?FromHandle@CWnd@@SGPAV1@PAUHWND__@@@Z ; CWnd::FromHandle

; 32   : 	{ ASSERT(::IsWindow(m_hWnd)); return ::SendMessage(m_hWnd, message, wParam, lParam); }

  000dd	6a 00		 push	 0
  000df	6a 00		 push	 0
  000e1	68 0d 04 00 00	 push	 1037			; 0000040dH
  000e6	ff 70 20	 push	 DWORD PTR [eax+32]
  000e9	ff d3		 call	 ebx

; 213  : 	{ ASSERT(::IsWindow(m_hWnd)); return CWnd::FromHandle(::GetParent(m_hWnd)); }

  000eb	ff 77 20	 push	 DWORD PTR [edi+32]
  000ee	ff d6		 call	 esi
  000f0	50		 push	 eax
  000f1	e8 00 00 00 00	 call	 ?FromHandle@CWnd@@SGPAV1@PAUHWND__@@@Z ; CWnd::FromHandle
  000f6	ff 70 20	 push	 DWORD PTR [eax+32]
  000f9	ff d6		 call	 esi
  000fb	50		 push	 eax
  000fc	e8 00 00 00 00	 call	 ?FromHandle@CWnd@@SGPAV1@PAUHWND__@@@Z ; CWnd::FromHandle
  00101	ff 70 20	 push	 DWORD PTR [eax+32]
  00104	ff d6		 call	 esi
  00106	50		 push	 eax
  00107	e8 00 00 00 00	 call	 ?FromHandle@CWnd@@SGPAV1@PAUHWND__@@@Z ; CWnd::FromHandle

; 32   : 	{ ASSERT(::IsWindow(m_hWnd)); return ::SendMessage(m_hWnd, message, wParam, lParam); }

  0010c	6a 00		 push	 0
  0010e	6a 00		 push	 0
  00110	68 9d 04 00 00	 push	 1181			; 0000049dH
  00115	ff 70 20	 push	 DWORD PTR [eax+32]
  00118	ff d3		 call	 ebx
; File D:\git\src\IBK\IBK_DRFN\ProjSrc\SrcDrfn\Chart\comparechart\control\NsyButtonListCtrl.cpp

; 403  : }

  0011a	8b 4d f4	 mov	 ecx, DWORD PTR __$EHRec$[ebp]
  0011d	64 89 0d 00 00
	00 00		 mov	 DWORD PTR fs:0, ecx
  00124	59		 pop	 ecx
  00125	5f		 pop	 edi
  00126	5e		 pop	 esi
  00127	5b		 pop	 ebx
  00128	8b e5		 mov	 esp, ebp
  0012a	5d		 pop	 ebp
  0012b	c3		 ret	 0
_TEXT	ENDS
;	COMDAT text$x
text$x	SEGMENT
__unwindfunclet$?Init_CompareChart@CNsyButtonListCtrl@@QAEXXZ$0:
  00000	8d 4d f0	 lea	 ecx, DWORD PTR _strCode$3[ebp]
  00003	ff 25 00 00 00
	00		 jmp	 DWORD PTR __imp_??1?$CStringT@DV?$StrTraitMFC_DLL@DV?$ChTraitsCRT@D@ATL@@@@@ATL@@QAE@XZ
__unwindfunclet$?Init_CompareChart@CNsyButtonListCtrl@@QAEXXZ$1:
  00009	8d 4d ec	 lea	 ecx, DWORD PTR $T2[ebp]
  0000c	ff 25 00 00 00
	00		 jmp	 DWORD PTR __imp_??1?$CStringT@DV?$StrTraitMFC_DLL@DV?$ChTraitsCRT@D@ATL@@@@@ATL@@QAE@XZ
  00012	cc		 int	 3
  00013	cc		 int	 3
  00014	cc		 int	 3
  00015	cc		 int	 3
  00016	cc		 int	 3
__ehhandler$?Init_CompareChart@CNsyButtonListCtrl@@QAEXXZ:
  00017	90		 npad	 1
  00018	90		 npad	 1
  00019	8b 54 24 08	 mov	 edx, DWORD PTR [esp+8]
  0001d	8d 42 0c	 lea	 eax, DWORD PTR [edx+12]
  00020	8b 4a e8	 mov	 ecx, DWORD PTR [edx-24]
  00023	33 c8		 xor	 ecx, eax
  00025	e8 00 00 00 00	 call	 @__security_check_cookie@4
  0002a	b8 00 00 00 00	 mov	 eax, OFFSET __ehfuncinfo$?Init_CompareChart@CNsyButtonListCtrl@@QAEXXZ
  0002f	e9 00 00 00 00	 jmp	 ___CxxFrameHandler3
text$x	ENDS
?Init_CompareChart@CNsyButtonListCtrl@@QAEXXZ ENDP	; CNsyButtonListCtrl::Init_CompareChart
; Function compile flags: /Ogtp
; File D:\git\src\IBK\IBK_DRFN\ProjSrc\SrcDrfn\Chart\comparechart\control\NsyButtonListCtrl.cpp
; File C:\Program Files (x86)\Microsoft Visual Studio\2019\Community\VC\Tools\MSVC\14.29.30133\atlmfc\include\afxcoll.inl
; File D:\git\src\IBK\IBK_DRFN\ProjSrc\SrcDrfn\Chart\comparechart\control\NsyButtonListCtrl.cpp
; File C:\Program Files (x86)\Microsoft Visual Studio\2019\Community\VC\Tools\MSVC\14.29.30133\atlmfc\include\afxcoll.inl
; File D:\git\src\IBK\IBK_DRFN\ProjSrc\SrcDrfn\Chart\comparechart\control\NsyButtonListCtrl.cpp
; File C:\Program Files (x86)\Microsoft Visual Studio\2019\Community\VC\Tools\MSVC\14.29.30133\atlmfc\include\afxcoll.inl
; File D:\git\src\IBK\IBK_DRFN\ProjSrc\SrcDrfn\Chart\comparechart\control\NsyButtonListCtrl.cpp
;	COMDAT ?ClearArrayBtnWnd@CNsyButtonListCtrl@@QAEXXZ
_TEXT	SEGMENT
_this$1$ = -4						; size = 4
?ClearArrayBtnWnd@CNsyButtonListCtrl@@QAEXXZ PROC	; CNsyButtonListCtrl::ClearArrayBtnWnd, COMDAT
; _this$ = ecx

; 406  : {

  00000	55		 push	 ebp
  00001	8b ec		 mov	 ebp, esp
  00003	51		 push	 ecx

; 407  : 	for(int i = 0; i < m_ptrArrayBtnWnd.GetSize(); i++)

  00004	8b 81 20 02 00
	00		 mov	 eax, DWORD PTR [ecx+544]
  0000a	56		 push	 esi
  0000b	33 f6		 xor	 esi, esi
  0000d	89 4d fc	 mov	 DWORD PTR _this$1$[ebp], ecx
  00010	85 c0		 test	 eax, eax
  00012	7e 46		 jle	 SHORT $LN26@ClearArray
  00014	53		 push	 ebx
  00015	57		 push	 edi
$LL4@ClearArray:
; File C:\Program Files (x86)\Microsoft Visual Studio\2019\Community\VC\Tools\MSVC\14.29.30133\atlmfc\include\afxcoll.inl

; 203  : 		if( nIndex < 0 || nIndex >= m_nSize )

  00016	85 f6		 test	 esi, esi
  00018	78 54		 js	 SHORT $LN23@ClearArray
  0001a	3b f0		 cmp	 esi, eax
  0001c	7d 50		 jge	 SHORT $LN23@ClearArray

; 205  : 		return m_pData[nIndex]; }

  0001e	8b 81 1c 02 00
	00		 mov	 eax, DWORD PTR [ecx+540]
  00024	8b 1c b0	 mov	 ebx, DWORD PTR [eax+esi*4]
; File D:\git\src\IBK\IBK_DRFN\ProjSrc\SrcDrfn\Chart\comparechart\control\NsyButtonListCtrl.cpp

; 411  : 		if(pBtnInfo)

  00027	85 db		 test	 ebx, ebx
  00029	74 22		 je	 SHORT $LN2@ClearArray

; 412  : 		{
; 413  : 			pBtnInfo->xSkinButton.DestroyWindow();

  0002b	8b 43 08	 mov	 eax, DWORD PTR [ebx+8]
  0002e	8d 4b 08	 lea	 ecx, DWORD PTR [ebx+8]
  00031	ff 50 68	 call	 DWORD PTR [eax+104]
  00034	8d 4b 08	 lea	 ecx, DWORD PTR [ebx+8]
  00037	e8 00 00 00 00	 call	 ??1CxSkinButton@@UAE@XZ	; CxSkinButton::~CxSkinButton
  0003c	68 80 01 00 00	 push	 384			; 00000180H
  00041	53		 push	 ebx
  00042	e8 00 00 00 00	 call	 ??3@YAXPAXI@Z		; operator delete
  00047	8b 4d fc	 mov	 ecx, DWORD PTR _this$1$[ebp]
  0004a	83 c4 08	 add	 esp, 8
$LN2@ClearArray:

; 407  : 	for(int i = 0; i < m_ptrArrayBtnWnd.GetSize(); i++)

  0004d	8b 81 20 02 00
	00		 mov	 eax, DWORD PTR [ecx+544]
  00053	46		 inc	 esi
  00054	3b f0		 cmp	 esi, eax
  00056	7c be		 jl	 SHORT $LL4@ClearArray
; File C:\Program Files (x86)\Microsoft Visual Studio\2019\Community\VC\Tools\MSVC\14.29.30133\atlmfc\include\afxcoll.inl

; 203  : 		if( nIndex < 0 || nIndex >= m_nSize )

  00058	5f		 pop	 edi
  00059	5b		 pop	 ebx
$LN26@ClearArray:

; 200  : 	{ SetSize(0); }

  0005a	6a ff		 push	 -1
  0005c	6a 00		 push	 0
  0005e	81 c1 18 02 00
	00		 add	 ecx, 536		; 00000218H
  00064	e8 00 00 00 00	 call	 ?SetSize@CPtrArray@@QAEXHH@Z ; CPtrArray::SetSize
  00069	5e		 pop	 esi
; File D:\git\src\IBK\IBK_DRFN\ProjSrc\SrcDrfn\Chart\comparechart\control\NsyButtonListCtrl.cpp

; 419  : }

  0006a	8b e5		 mov	 esp, ebp
  0006c	5d		 pop	 ebp
  0006d	c3		 ret	 0
$LN23@ClearArray:
; File C:\Program Files (x86)\Microsoft Visual Studio\2019\Community\VC\Tools\MSVC\14.29.30133\atlmfc\include\afxcoll.inl

; 204  : 			AfxThrowInvalidArgException();

  0006e	e8 00 00 00 00	 call	 ?AfxThrowInvalidArgException@@YGXXZ ; AfxThrowInvalidArgException
$LN28@ClearArray:
  00073	cc		 int	 3
?ClearArrayBtnWnd@CNsyButtonListCtrl@@QAEXXZ ENDP	; CNsyButtonListCtrl::ClearArrayBtnWnd
_TEXT	ENDS
; Function compile flags: /Ogtp
; File D:\git\src\IBK\IBK_DRFN\ProjSrc\SrcDrfn\Chart\comparechart\control\NsyButtonListCtrl.cpp
; File C:\Program Files (x86)\Microsoft Visual Studio\2019\Community\VC\Tools\MSVC\14.29.30133\atlmfc\include\afxcmn.inl
; File D:\git\src\IBK\IBK_DRFN\ProjSrc\SrcDrfn\Chart\comparechart\control\NsyButtonListCtrl.cpp
; File C:\Program Files (x86)\Microsoft Visual Studio\2019\Community\VC\Tools\MSVC\14.29.30133\atlmfc\include\afxwin2.inl
; File D:\git\src\IBK\IBK_DRFN\ProjSrc\SrcDrfn\Chart\comparechart\control\NsyButtonListCtrl.cpp
; File C:\Program Files (x86)\Microsoft Visual Studio\2019\Community\VC\Tools\MSVC\14.29.30133\atlmfc\include\afxwin2.inl
; File D:\git\src\IBK\IBK_DRFN\ProjSrc\SrcDrfn\Chart\comparechart\control\NsyButtonListCtrl.cpp
;	COMDAT ?SendToChartRemoveGraph@CNsyButtonListCtrl@@QAEXH@Z
_TEXT	SEGMENT
$T2 = -24						; size = 4
$T3 = -20						; size = 4
$T4 = -20						; size = 4
$T5 = -20						; size = 4
_strCode$ = -16						; size = 4
__$EHRec$ = -12						; size = 12
_strName$ = 8						; size = 4
_nItem$ = 8						; size = 4
?SendToChartRemoveGraph@CNsyButtonListCtrl@@QAEXH@Z PROC ; CNsyButtonListCtrl::SendToChartRemoveGraph, COMDAT
; _this$ = ecx

; 455  : {

  00000	55		 push	 ebp
  00001	8b ec		 mov	 ebp, esp
  00003	6a ff		 push	 -1
  00005	68 00 00 00 00	 push	 __ehhandler$?SendToChartRemoveGraph@CNsyButtonListCtrl@@QAEXH@Z
  0000a	64 a1 00 00 00
	00		 mov	 eax, DWORD PTR fs:0
  00010	50		 push	 eax
  00011	83 ec 0c	 sub	 esp, 12			; 0000000cH
  00014	53		 push	 ebx
  00015	56		 push	 esi
  00016	57		 push	 edi
  00017	a1 00 00 00 00	 mov	 eax, DWORD PTR ___security_cookie
  0001c	33 c5		 xor	 eax, ebp
  0001e	50		 push	 eax
  0001f	8d 45 f4	 lea	 eax, DWORD PTR __$EHRec$[ebp]
  00022	64 a3 00 00 00
	00		 mov	 DWORD PTR fs:0, eax
  00028	8b d9		 mov	 ebx, ecx

; 456  : 	if(nItem<0 || nItem>=GetItemCount()) return;

  0002a	8b 7d 08	 mov	 edi, DWORD PTR _nItem$[ebp]
  0002d	85 ff		 test	 edi, edi
  0002f	0f 88 4d 01 00
	00		 js	 $LN3@SendToChar
; File C:\Program Files (x86)\Microsoft Visual Studio\2019\Community\VC\Tools\MSVC\14.29.30133\atlmfc\include\afxcmn.inl

; 155  : 	{ ASSERT(::IsWindow(m_hWnd)); return (int) ::SendMessage(m_hWnd, LVM_GETITEMCOUNT, 0, 0L); }

  00035	6a 00		 push	 0
  00037	6a 00		 push	 0
  00039	68 04 10 00 00	 push	 4100			; 00001004H
  0003e	ff 73 20	 push	 DWORD PTR [ebx+32]
  00041	ff 15 00 00 00
	00		 call	 DWORD PTR __imp__SendMessageA@16
; File D:\git\src\IBK\IBK_DRFN\ProjSrc\SrcDrfn\Chart\comparechart\control\NsyButtonListCtrl.cpp

; 456  : 	if(nItem<0 || nItem>=GetItemCount()) return;

  00047	3b f8		 cmp	 edi, eax
  00049	0f 8d 33 01 00
	00		 jge	 $LN3@SendToChar

; 457  : 	
; 458  : 	m_bDirectRemove = TRUE;
; 459  : 	CString strCode, strName;

  0004f	8d 4d f0	 lea	 ecx, DWORD PTR _strCode$[ebp]
  00052	c7 83 34 02 00
	00 01 00 00 00	 mov	 DWORD PTR [ebx+564], 1
  0005c	ff 15 00 00 00
	00		 call	 DWORD PTR __imp_??0?$CStringT@DV?$StrTraitMFC_DLL@DV?$ChTraitsCRT@D@ATL@@@@@ATL@@QAE@XZ
  00062	8d 4d 08	 lea	 ecx, DWORD PTR _strName$[ebp]
  00065	c7 45 fc 00 00
	00 00		 mov	 DWORD PTR __$EHRec$[ebp+8], 0
  0006c	ff 15 00 00 00
	00		 call	 DWORD PTR __imp_??0?$CStringT@DV?$StrTraitMFC_DLL@DV?$ChTraitsCRT@D@ATL@@@@@ATL@@QAE@XZ

; 460  : 	strName = GetItemText(nItem, 0);

  00072	6a 00		 push	 0
  00074	57		 push	 edi
  00075	8d 45 ec	 lea	 eax, DWORD PTR $T5[ebp]
  00078	c6 45 fc 01	 mov	 BYTE PTR __$EHRec$[ebp+8], 1
  0007c	50		 push	 eax
  0007d	8b cb		 mov	 ecx, ebx
  0007f	e8 00 00 00 00	 call	 ?GetItemText@CListCtrl@@QBE?AV?$CStringT@DV?$StrTraitMFC_DLL@DV?$ChTraitsCRT@D@ATL@@@@@ATL@@HH@Z ; CListCtrl::GetItemText
  00084	50		 push	 eax
  00085	8d 4d 08	 lea	 ecx, DWORD PTR _strName$[ebp]
  00088	c6 45 fc 02	 mov	 BYTE PTR __$EHRec$[ebp+8], 2
  0008c	ff 15 00 00 00
	00		 call	 DWORD PTR __imp_??4?$CStringT@DV?$StrTraitMFC_DLL@DV?$ChTraitsCRT@D@ATL@@@@@ATL@@QAEAAV01@ABV01@@Z
  00092	8d 4d ec	 lea	 ecx, DWORD PTR $T5[ebp]
  00095	c6 45 fc 01	 mov	 BYTE PTR __$EHRec$[ebp+8], 1
  00099	ff 15 00 00 00
	00		 call	 DWORD PTR __imp_??1?$CStringT@DV?$StrTraitMFC_DLL@DV?$ChTraitsCRT@D@ATL@@@@@ATL@@QAE@XZ

; 461  : 	strCode = GetItemText(nItem, 1);

  0009f	6a 01		 push	 1
  000a1	57		 push	 edi
  000a2	8d 45 ec	 lea	 eax, DWORD PTR $T4[ebp]
  000a5	8b cb		 mov	 ecx, ebx
  000a7	50		 push	 eax
  000a8	e8 00 00 00 00	 call	 ?GetItemText@CListCtrl@@QBE?AV?$CStringT@DV?$StrTraitMFC_DLL@DV?$ChTraitsCRT@D@ATL@@@@@ATL@@HH@Z ; CListCtrl::GetItemText
  000ad	50		 push	 eax
  000ae	8d 4d f0	 lea	 ecx, DWORD PTR _strCode$[ebp]
  000b1	c6 45 fc 03	 mov	 BYTE PTR __$EHRec$[ebp+8], 3
  000b5	ff 15 00 00 00
	00		 call	 DWORD PTR __imp_??4?$CStringT@DV?$StrTraitMFC_DLL@DV?$ChTraitsCRT@D@ATL@@@@@ATL@@QAEAAV01@ABV01@@Z
  000bb	8d 4d ec	 lea	 ecx, DWORD PTR $T4[ebp]
  000be	c6 45 fc 01	 mov	 BYTE PTR __$EHRec$[ebp+8], 1
  000c2	ff 15 00 00 00
	00		 call	 DWORD PTR __imp_??1?$CStringT@DV?$StrTraitMFC_DLL@DV?$ChTraitsCRT@D@ATL@@@@@ATL@@QAE@XZ

; 462  : 	
; 463  : 	strName.TrimLeft(); strName.TrimRight();

  000c8	8d 4d 08	 lea	 ecx, DWORD PTR _strName$[ebp]
  000cb	ff 15 00 00 00
	00		 call	 DWORD PTR __imp_?TrimLeft@?$CStringT@DV?$StrTraitMFC_DLL@DV?$ChTraitsCRT@D@ATL@@@@@ATL@@QAEAAV12@XZ
  000d1	8d 4d 08	 lea	 ecx, DWORD PTR _strName$[ebp]
  000d4	ff 15 00 00 00
	00		 call	 DWORD PTR __imp_?TrimRight@?$CStringT@DV?$StrTraitMFC_DLL@DV?$ChTraitsCRT@D@ATL@@@@@ATL@@QAEAAV12@XZ

; 464  : 	strName.Replace(" ", "");

  000da	68 00 00 00 00	 push	 OFFSET ??_C@_00CNPNBAHC@@
  000df	68 00 00 00 00	 push	 OFFSET ??_C@_01CLKCMJKC@?5@
  000e4	8d 4d 08	 lea	 ecx, DWORD PTR _strName$[ebp]
  000e7	ff 15 00 00 00
	00		 call	 DWORD PTR __imp_?Replace@?$CStringT@DV?$StrTraitMFC_DLL@DV?$ChTraitsCRT@D@ATL@@@@@ATL@@QAEHPBD0@Z

; 465  : 	strName.Replace(",", "");

  000ed	68 00 00 00 00	 push	 OFFSET ??_C@_00CNPNBAHC@@
  000f2	68 00 00 00 00	 push	 OFFSET ??_C@_01IHBHIGKO@?0@
  000f7	8d 4d 08	 lea	 ecx, DWORD PTR _strName$[ebp]
  000fa	ff 15 00 00 00
	00		 call	 DWORD PTR __imp_?Replace@?$CStringT@DV?$StrTraitMFC_DLL@DV?$ChTraitsCRT@D@ATL@@@@@ATL@@QAEHPBD0@Z

; 466  : 	((CStdDialog*)(GetParent()->GetParent()->GetParent()))->RemoveGraph(0, 0, strCode, strName);

  00100	51		 push	 ecx
  00101	8d 45 08	 lea	 eax, DWORD PTR _strName$[ebp]
  00104	89 65 ec	 mov	 DWORD PTR $T3[ebp], esp
  00107	8b cc		 mov	 ecx, esp
  00109	50		 push	 eax
  0010a	ff 15 00 00 00
	00		 call	 DWORD PTR __imp_??0?$CStringT@DV?$StrTraitMFC_DLL@DV?$ChTraitsCRT@D@ATL@@@@@ATL@@QAE@ABV01@@Z
  00110	51		 push	 ecx
  00111	8d 45 f0	 lea	 eax, DWORD PTR _strCode$[ebp]
  00114	89 65 e8	 mov	 DWORD PTR $T2[ebp], esp
  00117	8b cc		 mov	 ecx, esp
  00119	c6 45 fc 04	 mov	 BYTE PTR __$EHRec$[ebp+8], 4
  0011d	50		 push	 eax
  0011e	ff 15 00 00 00
	00		 call	 DWORD PTR __imp_??0?$CStringT@DV?$StrTraitMFC_DLL@DV?$ChTraitsCRT@D@ATL@@@@@ATL@@QAE@ABV01@@Z
; File C:\Program Files (x86)\Microsoft Visual Studio\2019\Community\VC\Tools\MSVC\14.29.30133\atlmfc\include\afxwin2.inl

; 213  : 	{ ASSERT(::IsWindow(m_hWnd)); return CWnd::FromHandle(::GetParent(m_hWnd)); }

  00124	ff 73 20	 push	 DWORD PTR [ebx+32]
  00127	8b 35 00 00 00
	00		 mov	 esi, DWORD PTR __imp__GetParent@4
; File D:\git\src\IBK\IBK_DRFN\ProjSrc\SrcDrfn\Chart\comparechart\control\NsyButtonListCtrl.cpp

; 466  : 	((CStdDialog*)(GetParent()->GetParent()->GetParent()))->RemoveGraph(0, 0, strCode, strName);

  0012d	c6 45 fc 05	 mov	 BYTE PTR __$EHRec$[ebp+8], 5
; File C:\Program Files (x86)\Microsoft Visual Studio\2019\Community\VC\Tools\MSVC\14.29.30133\atlmfc\include\afxwin2.inl

; 213  : 	{ ASSERT(::IsWindow(m_hWnd)); return CWnd::FromHandle(::GetParent(m_hWnd)); }

  00131	ff d6		 call	 esi
  00133	50		 push	 eax
  00134	e8 00 00 00 00	 call	 ?FromHandle@CWnd@@SGPAV1@PAUHWND__@@@Z ; CWnd::FromHandle
  00139	ff 70 20	 push	 DWORD PTR [eax+32]
  0013c	ff d6		 call	 esi
  0013e	50		 push	 eax
  0013f	e8 00 00 00 00	 call	 ?FromHandle@CWnd@@SGPAV1@PAUHWND__@@@Z ; CWnd::FromHandle
  00144	ff 70 20	 push	 DWORD PTR [eax+32]
  00147	ff d6		 call	 esi
  00149	50		 push	 eax
  0014a	e8 00 00 00 00	 call	 ?FromHandle@CWnd@@SGPAV1@PAUHWND__@@@Z ; CWnd::FromHandle
; File D:\git\src\IBK\IBK_DRFN\ProjSrc\SrcDrfn\Chart\comparechart\control\NsyButtonListCtrl.cpp

; 466  : 	((CStdDialog*)(GetParent()->GetParent()->GetParent()))->RemoveGraph(0, 0, strCode, strName);

  0014f	6a 00		 push	 0
  00151	6a 00		 push	 0
  00153	c6 45 fc 01	 mov	 BYTE PTR __$EHRec$[ebp+8], 1
  00157	8b c8		 mov	 ecx, eax
  00159	e8 00 00 00 00	 call	 ?RemoveGraph@CStdDialog@@QAEHHHV?$CStringT@DV?$StrTraitMFC_DLL@DV?$ChTraitsCRT@D@ATL@@@@@ATL@@0@Z ; CStdDialog::RemoveGraph

; 467  : 
; 468  : 	// DEFAULT RQ   
; 469  : //	if(GetItemCount()==0)	Init_CompareChart();
; 470  : 
; 471  : 	// DEFAULT RQ   ...
; 472  : //	if(nItem==0)
; 473  : 	{
; 474  : 		DeleteSelectItem(nItem);

  0015e	57		 push	 edi
  0015f	8b cb		 mov	 ecx, ebx
  00161	e8 00 00 00 00	 call	 ?DeleteSelectItem@CNsyButtonListCtrl@@QAEXH@Z ; CNsyButtonListCtrl::DeleteSelectItem

; 475  : 		//DeleteItem(nItem);
; 476  : 	}
; 477  : 	m_bDirectRemove = FALSE;
; 478  : }

  00166	8d 4d 08	 lea	 ecx, DWORD PTR _strName$[ebp]
  00169	c7 83 34 02 00
	00 00 00 00 00	 mov	 DWORD PTR [ebx+564], 0
  00173	ff 15 00 00 00
	00		 call	 DWORD PTR __imp_??1?$CStringT@DV?$StrTraitMFC_DLL@DV?$ChTraitsCRT@D@ATL@@@@@ATL@@QAE@XZ
  00179	8d 4d f0	 lea	 ecx, DWORD PTR _strCode$[ebp]
  0017c	ff 15 00 00 00
	00		 call	 DWORD PTR __imp_??1?$CStringT@DV?$StrTraitMFC_DLL@DV?$ChTraitsCRT@D@ATL@@@@@ATL@@QAE@XZ
$LN3@SendToChar:
  00182	8b 4d f4	 mov	 ecx, DWORD PTR __$EHRec$[ebp]
  00185	64 89 0d 00 00
	00 00		 mov	 DWORD PTR fs:0, ecx
  0018c	59		 pop	 ecx
  0018d	5f		 pop	 edi
  0018e	5e		 pop	 esi
  0018f	5b		 pop	 ebx
  00190	8b e5		 mov	 esp, ebp
  00192	5d		 pop	 ebp
  00193	c2 04 00	 ret	 4
_TEXT	ENDS
;	COMDAT text$x
text$x	SEGMENT
__unwindfunclet$?SendToChartRemoveGraph@CNsyButtonListCtrl@@QAEXH@Z$0:
  00000	8d 4d f0	 lea	 ecx, DWORD PTR _strCode$[ebp]
  00003	ff 25 00 00 00
	00		 jmp	 DWORD PTR __imp_??1?$CStringT@DV?$StrTraitMFC_DLL@DV?$ChTraitsCRT@D@ATL@@@@@ATL@@QAE@XZ
__unwindfunclet$?SendToChartRemoveGraph@CNsyButtonListCtrl@@QAEXH@Z$1:
  00009	8d 4d 08	 lea	 ecx, DWORD PTR _strName$[ebp]
  0000c	ff 25 00 00 00
	00		 jmp	 DWORD PTR __imp_??1?$CStringT@DV?$StrTraitMFC_DLL@DV?$ChTraitsCRT@D@ATL@@@@@ATL@@QAE@XZ
__unwindfunclet$?SendToChartRemoveGraph@CNsyButtonListCtrl@@QAEXH@Z$2:
  00012	8d 4d ec	 lea	 ecx, DWORD PTR $T5[ebp]
  00015	ff 25 00 00 00
	00		 jmp	 DWORD PTR __imp_??1?$CStringT@DV?$StrTraitMFC_DLL@DV?$ChTraitsCRT@D@ATL@@@@@ATL@@QAE@XZ
__unwindfunclet$?SendToChartRemoveGraph@CNsyButtonListCtrl@@QAEXH@Z$3:
  0001b	8d 4d ec	 lea	 ecx, DWORD PTR $T4[ebp]
  0001e	ff 25 00 00 00
	00		 jmp	 DWORD PTR __imp_??1?$CStringT@DV?$StrTraitMFC_DLL@DV?$ChTraitsCRT@D@ATL@@@@@ATL@@QAE@XZ
__unwindfunclet$?SendToChartRemoveGraph@CNsyButtonListCtrl@@QAEXH@Z$4:
  00024	8b 4d ec	 mov	 ecx, DWORD PTR $T3[ebp]
  00027	ff 25 00 00 00
	00		 jmp	 DWORD PTR __imp_??1?$CStringT@DV?$StrTraitMFC_DLL@DV?$ChTraitsCRT@D@ATL@@@@@ATL@@QAE@XZ
__unwindfunclet$?SendToChartRemoveGraph@CNsyButtonListCtrl@@QAEXH@Z$5:
  0002d	8b 4d e8	 mov	 ecx, DWORD PTR $T2[ebp]
  00030	ff 25 00 00 00
	00		 jmp	 DWORD PTR __imp_??1?$CStringT@DV?$StrTraitMFC_DLL@DV?$ChTraitsCRT@D@ATL@@@@@ATL@@QAE@XZ
  00036	cc		 int	 3
  00037	cc		 int	 3
  00038	cc		 int	 3
  00039	cc		 int	 3
  0003a	cc		 int	 3
__ehhandler$?SendToChartRemoveGraph@CNsyButtonListCtrl@@QAEXH@Z:
  0003b	90		 npad	 1
  0003c	90		 npad	 1
  0003d	8b 54 24 08	 mov	 edx, DWORD PTR [esp+8]
  00041	8d 42 0c	 lea	 eax, DWORD PTR [edx+12]
  00044	8b 4a e4	 mov	 ecx, DWORD PTR [edx-28]
  00047	33 c8		 xor	 ecx, eax
  00049	e8 00 00 00 00	 call	 @__security_check_cookie@4
  0004e	b8 00 00 00 00	 mov	 eax, OFFSET __ehfuncinfo$?SendToChartRemoveGraph@CNsyButtonListCtrl@@QAEXH@Z
  00053	e9 00 00 00 00	 jmp	 ___CxxFrameHandler3
text$x	ENDS
?SendToChartRemoveGraph@CNsyButtonListCtrl@@QAEXH@Z ENDP ; CNsyButtonListCtrl::SendToChartRemoveGraph
; Function compile flags: /Ogtp
; File D:\git\src\IBK\IBK_DRFN\ProjSrc\SrcDrfn\Chart\comparechart\control\NsyButtonListCtrl.cpp
;	COMDAT ?DeleteChartData@CNsyButtonListCtrl@@QAEXH@Z
_TEXT	SEGMENT
_nItem$ = 8						; size = 4
?DeleteChartData@CNsyButtonListCtrl@@QAEXH@Z PROC	; CNsyButtonListCtrl::DeleteChartData, COMDAT
; _this$ = ecx

; 423  : //080604 RemoveGraph   SendToChartRemoveGraph(..)  .
; 424  : //   
; 425  : return;
; 426  : 
; 427  : 	if(nItem<0 || nItem>=GetItemCount()) return;
; 428  : 
; 429  : 	//2005. 07. 14=====================================================
; 430  : 	CString strCode, strName;
; 431  : 	strName = GetItemText(nItem, 0);
; 432  : 	strCode = GetItemText(nItem, 1);
; 433  : 	// 1. Real 
; 434  : 	((CStdDialog*)(GetParent()->GetParent()->GetParent()))->OnCodeUnAdvise(strCode, TRUE);
; 435  : 
; 436  : 	// 2.  .
; 437  : 	//     .
; 438  : 	//  /   
; 439  : 	// ,    
; 440  : 	// CChartItemData SetKorName(CString strName)    
; 441  : 	//    .
; 442  : 	strName.TrimLeft(); strName.TrimRight();
; 443  : 	strName.Replace(" ", "");
; 444  : 	strName.Replace(",", "");
; 445  : 	//((CStdDialog*)(GetParent()->GetParent()->GetParent()))->RemoveGraph_Title(-1, -1, strCode, strName, FALSE);
; 446  : 	((CStdDialog*)(GetParent()->GetParent()->GetParent()))->RemoveGraph(0, 0, strCode, strName);
; 447  : 	//=================================================================
; 448  : 
; 449  : // 	// DEFAULT RQ   
; 450  : // 	if(GetItemCount()==0)
; 451  : // 		Init_CompareChart();
; 452  : }

  00000	c2 04 00	 ret	 4
?DeleteChartData@CNsyButtonListCtrl@@QAEXH@Z ENDP	; CNsyButtonListCtrl::DeleteChartData
_TEXT	ENDS
; Function compile flags: /Ogtp
; File D:\git\src\IBK\IBK_DRFN\ProjSrc\SrcDrfn\Chart\comparechart\control\NsyButtonListCtrl.cpp
; File C:\Program Files (x86)\Microsoft Visual Studio\2019\Community\VC\Tools\MSVC\14.29.30133\atlmfc\include\afxwin1.inl
; File D:\git\src\IBK\IBK_DRFN\ProjSrc\SrcDrfn\Chart\comparechart\control\NsyButtonListCtrl.cpp
;	COMDAT ??0CNsyButtonListCtrl@@QAE@XZ
_TEXT	SEGMENT
_this$ = -16						; size = 4
__$EHRec$ = -12						; size = 12
??0CNsyButtonListCtrl@@QAE@XZ PROC			; CNsyButtonListCtrl::CNsyButtonListCtrl, COMDAT
; _this$ = ecx

; 17   : {	

  00000	55		 push	 ebp
  00001	8b ec		 mov	 ebp, esp
  00003	6a ff		 push	 -1
  00005	68 00 00 00 00	 push	 __ehhandler$??0CNsyButtonListCtrl@@QAE@XZ
  0000a	64 a1 00 00 00
	00		 mov	 eax, DWORD PTR fs:0
  00010	50		 push	 eax
  00011	51		 push	 ecx
  00012	53		 push	 ebx
  00013	56		 push	 esi
  00014	57		 push	 edi
  00015	a1 00 00 00 00	 mov	 eax, DWORD PTR ___security_cookie
  0001a	33 c5		 xor	 eax, ebp
  0001c	50		 push	 eax
  0001d	8d 45 f4	 lea	 eax, DWORD PTR __$EHRec$[ebp]
  00020	64 a3 00 00 00
	00		 mov	 DWORD PTR fs:0, eax
  00026	8b d9		 mov	 ebx, ecx
  00028	89 5d f0	 mov	 DWORD PTR _this$[ebp], ebx
  0002b	e8 00 00 00 00	 call	 ??0CXListCtrl@@QAE@XZ	; CXListCtrl::CXListCtrl
  00030	c7 03 00 00 00
	00		 mov	 DWORD PTR [ebx], OFFSET ??_7CNsyButtonListCtrl@@6B@
  00036	c7 45 fc 00 00
	00 00		 mov	 DWORD PTR __$EHRec$[ebp+8], 0
; File C:\Program Files (x86)\Microsoft Visual Studio\2019\Community\VC\Tools\MSVC\14.29.30133\atlmfc\include\afxwin1.inl

; 70   : 	{ m_hObject = NULL; }

  0003d	c7 83 14 02 00
	00 00 00 00 00	 mov	 DWORD PTR [ebx+532], 0

; 153  : 	{ }

  00047	c7 83 10 02 00
	00 00 00 00 00	 mov	 DWORD PTR [ebx+528], OFFSET ??_7CFont@@6B@
; File D:\git\src\IBK\IBK_DRFN\ProjSrc\SrcDrfn\Chart\comparechart\control\NsyButtonListCtrl.cpp

; 17   : {	

  00051	8d 8b 18 02 00
	00		 lea	 ecx, DWORD PTR [ebx+536]
  00057	c6 45 fc 01	 mov	 BYTE PTR __$EHRec$[ebp+8], 1
  0005b	e8 00 00 00 00	 call	 ??0CPtrArray@@QAE@XZ	; CPtrArray::CPtrArray
  00060	8d 8b 2c 02 00
	00		 lea	 ecx, DWORD PTR [ebx+556]
  00066	ff 15 00 00 00
	00		 call	 DWORD PTR __imp_??0?$CStringT@DV?$StrTraitMFC_DLL@DV?$ChTraitsCRT@D@ATL@@@@@ATL@@QAE@XZ

; 18   : 	m_szImageDir = _T("");

  0006c	68 00 00 00 00	 push	 OFFSET ??_C@_00CNPNBAHC@@
  00071	8d 8b 2c 02 00
	00		 lea	 ecx, DWORD PTR [ebx+556]
  00077	c6 45 fc 03	 mov	 BYTE PTR __$EHRec$[ebp+8], 3
  0007b	ff 15 00 00 00
	00		 call	 DWORD PTR __imp_??4?$CStringT@DV?$StrTraitMFC_DLL@DV?$ChTraitsCRT@D@ATL@@@@@ATL@@QAEAAV01@PBD@Z

; 19   : 	m_FontOfFont.CreatePointFont(9, "");

  00081	6a 00		 push	 0
  00083	68 00 00 00 00	 push	 OFFSET ??_C@_04FOGALLPG@?$LB?$LM?$LI?$LC@
  00088	6a 09		 push	 9
  0008a	8d 8b 10 02 00
	00		 lea	 ecx, DWORD PTR [ebx+528]
  00090	e8 00 00 00 00	 call	 ?CreatePointFont@CFont@@QAEHHPBDPAVCDC@@@Z ; CFont::CreatePointFont

; 20   : 
; 21   : 	m_bDirectRemove = FALSE;

  00095	c7 83 34 02 00
	00 00 00 00 00	 mov	 DWORD PTR [ebx+564], 0

; 22   : }

  0009f	8b c3		 mov	 eax, ebx
  000a1	8b 4d f4	 mov	 ecx, DWORD PTR __$EHRec$[ebp]
  000a4	64 89 0d 00 00
	00 00		 mov	 DWORD PTR fs:0, ecx
  000ab	59		 pop	 ecx
  000ac	5f		 pop	 edi
  000ad	5e		 pop	 esi
  000ae	5b		 pop	 ebx
  000af	8b e5		 mov	 esp, ebp
  000b1	5d		 pop	 ebp
  000b2	c3		 ret	 0
_TEXT	ENDS
;	COMDAT text$x
text$x	SEGMENT
__unwindfunclet$??0CNsyButtonListCtrl@@QAE@XZ$0:
  00000	8b 4d f0	 mov	 ecx, DWORD PTR _this$[ebp]
  00003	e9 00 00 00 00	 jmp	 ??1CXListCtrl@@UAE@XZ	; CXListCtrl::~CXListCtrl
__unwindfunclet$??0CNsyButtonListCtrl@@QAE@XZ$1:
  00008	8b 4d f0	 mov	 ecx, DWORD PTR _this$[ebp]
  0000b	81 c1 10 02 00
	00		 add	 ecx, 528		; 00000210H
  00011	e9 00 00 00 00	 jmp	 ??1CFont@@UAE@XZ	; CFont::~CFont
__unwindfunclet$??0CNsyButtonListCtrl@@QAE@XZ$2:
  00016	8b 4d f0	 mov	 ecx, DWORD PTR _this$[ebp]
  00019	81 c1 18 02 00
	00		 add	 ecx, 536		; 00000218H
  0001f	e9 00 00 00 00	 jmp	 ??1CPtrArray@@UAE@XZ	; CPtrArray::~CPtrArray
__unwindfunclet$??0CNsyButtonListCtrl@@QAE@XZ$3:
  00024	8b 4d f0	 mov	 ecx, DWORD PTR _this$[ebp]
  00027	81 c1 2c 02 00
	00		 add	 ecx, 556		; 0000022cH
  0002d	ff 25 00 00 00
	00		 jmp	 DWORD PTR __imp_??1?$CStringT@DV?$StrTraitMFC_DLL@DV?$ChTraitsCRT@D@ATL@@@@@ATL@@QAE@XZ
  00033	cc		 int	 3
  00034	cc		 int	 3
  00035	cc		 int	 3
  00036	cc		 int	 3
  00037	cc		 int	 3
__ehhandler$??0CNsyButtonListCtrl@@QAE@XZ:
  00038	90		 npad	 1
  00039	90		 npad	 1
  0003a	8b 54 24 08	 mov	 edx, DWORD PTR [esp+8]
  0003e	8d 42 0c	 lea	 eax, DWORD PTR [edx+12]
  00041	8b 4a ec	 mov	 ecx, DWORD PTR [edx-20]
  00044	33 c8		 xor	 ecx, eax
  00046	e8 00 00 00 00	 call	 @__security_check_cookie@4
  0004b	b8 00 00 00 00	 mov	 eax, OFFSET __ehfuncinfo$??0CNsyButtonListCtrl@@QAE@XZ
  00050	e9 00 00 00 00	 jmp	 ___CxxFrameHandler3
text$x	ENDS
??0CNsyButtonListCtrl@@QAE@XZ ENDP			; CNsyButtonListCtrl::CNsyButtonListCtrl
; Function compile flags: /Ogtp
; File C:\Program Files (x86)\Microsoft Visual Studio\2019\Community\VC\Tools\MSVC\14.29.30133\atlmfc\include\afxwin2.inl
;	COMDAT ?EndModalState@CWnd@@UAEXXZ
_TEXT	SEGMENT
?EndModalState@CWnd@@UAEXXZ PROC			; CWnd::EndModalState, COMDAT
; _this$ = ecx

; 567  : 	{ ::EnableWindow(m_hWnd, TRUE); }

  00000	6a 01		 push	 1
  00002	ff 71 20	 push	 DWORD PTR [ecx+32]
  00005	ff 15 00 00 00
	00		 call	 DWORD PTR __imp__EnableWindow@8
  0000b	c3		 ret	 0
?EndModalState@CWnd@@UAEXXZ ENDP			; CWnd::EndModalState
_TEXT	ENDS
; Function compile flags: /Ogtp
; File C:\Program Files (x86)\Microsoft Visual Studio\2019\Community\VC\Tools\MSVC\14.29.30133\atlmfc\include\afxwin2.inl
;	COMDAT ?BeginModalState@CWnd@@UAEXXZ
_TEXT	SEGMENT
?BeginModalState@CWnd@@UAEXXZ PROC			; CWnd::BeginModalState, COMDAT
; _this$ = ecx

; 565  : 	{ ::EnableWindow(m_hWnd, FALSE); }

  00000	6a 00		 push	 0
  00002	ff 71 20	 push	 DWORD PTR [ecx+32]
  00005	ff 15 00 00 00
	00		 call	 DWORD PTR __imp__EnableWindow@8
  0000b	c3		 ret	 0
?BeginModalState@CWnd@@UAEXXZ ENDP			; CWnd::BeginModalState
_TEXT	ENDS
; Function compile flags: /Ogtp
; File C:\Program Files (x86)\Microsoft Visual Studio\2019\Community\VC\Tools\MSVC\14.29.30133\atlmfc\include\afxwin2.inl
;	COMDAT ?DoDataExchange@CWnd@@MAEXPAVCDataExchange@@@Z
_TEXT	SEGMENT
___formal$ = 8						; size = 4
?DoDataExchange@CWnd@@MAEXPAVCDataExchange@@@Z PROC	; CWnd::DoDataExchange, COMDAT
; _this$ = ecx

; 561  : 	{ } // default does nothing

  00000	c2 04 00	 ret	 4
?DoDataExchange@CWnd@@MAEXPAVCDataExchange@@@Z ENDP	; CWnd::DoDataExchange
_TEXT	ENDS
; Function compile flags: /Ogtp
; File C:\Program Files (x86)\Microsoft Visual Studio\2019\Community\VC\Tools\MSVC\14.29.30133\atlmfc\include\afxwin1.inl
; File C:\Program Files (x86)\Microsoft Visual Studio\2019\Community\VC\Tools\MSVC\14.29.30133\atlmfc\include\afx.inl
;	COMDAT ??_GCFont@@UAEPAXI@Z
_TEXT	SEGMENT
___flags$ = 8						; size = 4
??_GCFont@@UAEPAXI@Z PROC				; CFont::`scalar deleting destructor', COMDAT
; _this$ = ecx
  00000	55		 push	 ebp
  00001	8b ec		 mov	 ebp, esp
; File C:\Program Files (x86)\Microsoft Visual Studio\2019\Community\VC\Tools\MSVC\14.29.30133\atlmfc\include\afxwin1.inl

; 155  : 	{ }

  00003	56		 push	 esi
  00004	8b f1		 mov	 esi, ecx
  00006	c7 06 00 00 00
	00		 mov	 DWORD PTR [esi], OFFSET ??_7CFont@@6B@
  0000c	e8 00 00 00 00	 call	 ??1CGdiObject@@UAE@XZ	; CGdiObject::~CGdiObject
  00011	8b 45 08	 mov	 eax, DWORD PTR ___flags$[ebp]
  00014	a8 01		 test	 al, 1
  00016	74 1f		 je	 SHORT $LN12@scalar
  00018	a8 04		 test	 al, 4
  0001a	75 10		 jne	 SHORT $LN3@scalar
; File C:\Program Files (x86)\Microsoft Visual Studio\2019\Community\VC\Tools\MSVC\14.29.30133\atlmfc\include\afx.inl

; 112  : 	{ ::operator delete(p); }

  0001c	56		 push	 esi
  0001d	e8 00 00 00 00	 call	 ??3@YAXPAX@Z		; operator delete
  00022	83 c4 04	 add	 esp, 4
  00025	8b c6		 mov	 eax, esi
  00027	5e		 pop	 esi
  00028	5d		 pop	 ebp
  00029	c2 04 00	 ret	 4
$LN3@scalar:
  0002c	6a 08		 push	 8
  0002e	56		 push	 esi
  0002f	e8 00 00 00 00	 call	 ?__global_delete@@YAXPAXI@Z ; __global_delete
  00034	83 c4 08	 add	 esp, 8
$LN12@scalar:
  00037	8b c6		 mov	 eax, esi
  00039	5e		 pop	 esi
  0003a	5d		 pop	 ebp
  0003b	c2 04 00	 ret	 4
??_GCFont@@UAEPAXI@Z ENDP				; CFont::`scalar deleting destructor'
_TEXT	ENDS
; Function compile flags: /Ogtp
; File C:\Program Files (x86)\Microsoft Visual Studio\2019\Community\VC\Tools\MSVC\14.29.30133\atlmfc\include\afxwin1.inl
;	COMDAT ??1CFont@@UAE@XZ
_TEXT	SEGMENT
??1CFont@@UAE@XZ PROC					; CFont::~CFont, COMDAT
; _this$ = ecx

; 155  : 	{ }

  00000	c7 01 00 00 00
	00		 mov	 DWORD PTR [ecx], OFFSET ??_7CFont@@6B@
  00006	e9 00 00 00 00	 jmp	 ??1CGdiObject@@UAE@XZ	; CGdiObject::~CGdiObject
??1CFont@@UAE@XZ ENDP					; CFont::~CFont
_TEXT	ENDS
; Function compile flags: /Ogtp
; File C:\Program Files (x86)\Microsoft Visual Studio\2019\Community\VC\Tools\MSVC\14.29.30133\atlmfc\include\afx.inl
;	COMDAT ??_GCGdiObject@@UAEPAXI@Z
_TEXT	SEGMENT
___flags$ = 8						; size = 4
??_GCGdiObject@@UAEPAXI@Z PROC				; CGdiObject::`scalar deleting destructor', COMDAT
; _this$ = ecx
  00000	55		 push	 ebp
  00001	8b ec		 mov	 ebp, esp
  00003	56		 push	 esi
  00004	8b f1		 mov	 esi, ecx
  00006	e8 00 00 00 00	 call	 ??1CGdiObject@@UAE@XZ	; CGdiObject::~CGdiObject
  0000b	8b 45 08	 mov	 eax, DWORD PTR ___flags$[ebp]
  0000e	a8 01		 test	 al, 1
  00010	74 1f		 je	 SHORT $LN9@scalar
  00012	a8 04		 test	 al, 4
  00014	75 10		 jne	 SHORT $LN3@scalar

; 112  : 	{ ::operator delete(p); }

  00016	56		 push	 esi
  00017	e8 00 00 00 00	 call	 ??3@YAXPAX@Z		; operator delete
  0001c	83 c4 04	 add	 esp, 4
  0001f	8b c6		 mov	 eax, esi
  00021	5e		 pop	 esi
  00022	5d		 pop	 ebp
  00023	c2 04 00	 ret	 4
$LN3@scalar:
  00026	6a 08		 push	 8
  00028	56		 push	 esi
  00029	e8 00 00 00 00	 call	 ?__global_delete@@YAXPAXI@Z ; __global_delete
  0002e	83 c4 08	 add	 esp, 8
$LN9@scalar:
  00031	8b c6		 mov	 eax, esi
  00033	5e		 pop	 esi
  00034	5d		 pop	 ebp
  00035	c2 04 00	 ret	 4
??_GCGdiObject@@UAEPAXI@Z ENDP				; CGdiObject::`scalar deleting destructor'
_TEXT	ENDS
; Function compile flags: /Ogtp
; File C:\Program Files (x86)\Microsoft Visual Studio\2019\Community\VC\Tools\MSVC\14.29.30133\atlmfc\include\afxwin1.inl
;	COMDAT ??1CGdiObject@@UAE@XZ
_TEXT	SEGMENT
_pException$2 = -540					; size = 4
_strMsg$3 = -536					; size = 4
_szErrorMessage$4 = -532				; size = 512
__$ArrayPad$ = -20					; size = 4
__$EHRec$ = -16						; size = 16
??1CGdiObject@@UAE@XZ PROC				; CGdiObject::~CGdiObject, COMDAT
; _this$ = ecx

; 74   : {

  00000	55		 push	 ebp
  00001	8b ec		 mov	 ebp, esp
  00003	6a ff		 push	 -1
  00005	68 00 00 00 00	 push	 __ehhandler$??1CGdiObject@@UAE@XZ
  0000a	64 a1 00 00 00
	00		 mov	 eax, DWORD PTR fs:0
  00010	50		 push	 eax
  00011	81 ec 10 02 00
	00		 sub	 esp, 528		; 00000210H
  00017	a1 00 00 00 00	 mov	 eax, DWORD PTR ___security_cookie
  0001c	33 c5		 xor	 eax, ebp
  0001e	89 45 ec	 mov	 DWORD PTR __$ArrayPad$[ebp], eax
  00021	53		 push	 ebx
  00022	56		 push	 esi
  00023	57		 push	 edi
  00024	50		 push	 eax
  00025	8d 45 f4	 lea	 eax, DWORD PTR __$EHRec$[ebp+4]
  00028	64 a3 00 00 00
	00		 mov	 DWORD PTR fs:0, eax
  0002e	89 65 f0	 mov	 DWORD PTR __$EHRec$[ebp], esp
  00031	c7 01 00 00 00
	00		 mov	 DWORD PTR [ecx], OFFSET ??_7CGdiObject@@6B@

; 75   : 	AFX_BEGIN_DESTRUCTOR

  00037	c7 45 fc 00 00
	00 00		 mov	 DWORD PTR __$EHRec$[ebp+12], 0

; 76   : 	DeleteObject();

  0003e	e8 00 00 00 00	 call	 ?DeleteObject@CGdiObject@@QAEHXZ ; CGdiObject::DeleteObject
$LN18@CGdiObject:

; 78   : }

  00043	8b 4d f4	 mov	 ecx, DWORD PTR __$EHRec$[ebp+4]
  00046	64 89 0d 00 00
	00 00		 mov	 DWORD PTR fs:0, ecx
  0004d	59		 pop	 ecx
  0004e	5f		 pop	 edi
  0004f	5e		 pop	 esi
  00050	5b		 pop	 ebx
  00051	8b 4d ec	 mov	 ecx, DWORD PTR __$ArrayPad$[ebp]
  00054	33 cd		 xor	 ecx, ebp
  00056	e8 00 00 00 00	 call	 @__security_check_cookie@4
  0005b	8b e5		 mov	 esp, ebp
  0005d	5d		 pop	 ebp
  0005e	c3		 ret	 0
__catch$??1CGdiObject@@UAE@XZ$0:

; 77   : 	AFX_END_DESTRUCTOR

  0005f	8d 8d e8 fd ff
	ff		 lea	 ecx, DWORD PTR _strMsg$3[ebp]
  00065	ff 15 00 00 00
	00		 call	 DWORD PTR __imp_??0?$CStringT@DV?$StrTraitMFC_DLL@DV?$ChTraitsCRT@D@ATL@@@@@ATL@@QAE@XZ
  0006b	8b b5 e4 fd ff
	ff		 mov	 esi, DWORD PTR _pException$2[ebp]
  00071	8d 8d ec fd ff
	ff		 lea	 ecx, DWORD PTR _szErrorMessage$4[ebp]
  00077	6a 00		 push	 0
  00079	68 00 02 00 00	 push	 512			; 00000200H
  0007e	51		 push	 ecx
  0007f	8b 06		 mov	 eax, DWORD PTR [esi]
  00081	8b ce		 mov	 ecx, esi
  00083	c6 45 fc 02	 mov	 BYTE PTR __$EHRec$[ebp+12], 2
  00087	ff 50 14	 call	 DWORD PTR [eax+20]
  0008a	85 c0		 test	 eax, eax
  0008c	74 2a		 je	 SHORT $LN9@CGdiObject
  0008e	8d 85 ec fd ff
	ff		 lea	 eax, DWORD PTR _szErrorMessage$4[ebp]
  00094	50		 push	 eax
  00095	6a 4d		 push	 77			; 0000004dH
  00097	68 00 00 00 00	 push	 OFFSET ??_C@_0HD@JJCHHHNK@C?3?2Program?5Files?5?$CIx86?$CJ?2Microsof@
  0009c	68 00 00 00 00	 push	 OFFSET ??_C@_0BP@OIEOKIDM@Exception?5thrown?5in?5destructor@
  000a1	8d 85 e8 fd ff
	ff		 lea	 eax, DWORD PTR _strMsg$3[ebp]
  000a7	68 00 00 00 00	 push	 OFFSET ??_C@_0BB@HBOOMJBF@?$CFTs?5?$CI?$CFTs?3?$CFd?$CJ?6?$CFTs@
  000ac	50		 push	 eax
  000ad	ff 15 00 00 00
	00		 call	 DWORD PTR __imp_?Format@?$CStringT@DV?$StrTraitMFC_DLL@DV?$ChTraitsCRT@D@ATL@@@@@ATL@@QAAXPBDZZ
  000b3	83 c4 18	 add	 esp, 24			; 00000018H
  000b6	eb 21		 jmp	 SHORT $LN10@CGdiObject
$LN9@CGdiObject:
  000b8	6a 4d		 push	 77			; 0000004dH
  000ba	68 00 00 00 00	 push	 OFFSET ??_C@_0HD@JJCHHHNK@C?3?2Program?5Files?5?$CIx86?$CJ?2Microsof@
  000bf	68 00 00 00 00	 push	 OFFSET ??_C@_0BP@OIEOKIDM@Exception?5thrown?5in?5destructor@
  000c4	8d 85 e8 fd ff
	ff		 lea	 eax, DWORD PTR _strMsg$3[ebp]
  000ca	68 00 00 00 00	 push	 OFFSET ??_C@_0N@OMEMOKLE@?$CFTs?5?$CI?$CFTs?3?$CFd?$CJ@
  000cf	50		 push	 eax
  000d0	ff 15 00 00 00
	00		 call	 DWORD PTR __imp_?Format@?$CStringT@DV?$StrTraitMFC_DLL@DV?$ChTraitsCRT@D@ATL@@@@@ATL@@QAAXPBDZZ
  000d6	83 c4 14	 add	 esp, 20			; 00000014H
$LN10@CGdiObject:
  000d9	6a 00		 push	 0
  000db	6a 00		 push	 0
  000dd	ff b5 e8 fd ff
	ff		 push	 DWORD PTR _strMsg$3[ebp]
  000e3	e8 00 00 00 00	 call	 ?AfxMessageBox@@YGHPBDII@Z ; AfxMessageBox
  000e8	8d 8d e8 fd ff
	ff		 lea	 ecx, DWORD PTR _strMsg$3[ebp]
  000ee	ff 15 00 00 00
	00		 call	 DWORD PTR __imp_??1?$CStringT@DV?$StrTraitMFC_DLL@DV?$ChTraitsCRT@D@ATL@@@@@ATL@@QAE@XZ
  000f4	8b 06		 mov	 eax, DWORD PTR [esi]
  000f6	8b ce		 mov	 ecx, esi
  000f8	6a 01		 push	 1
  000fa	ff 50 04	 call	 DWORD PTR [eax+4]
  000fd	b8 00 00 00 00	 mov	 eax, $LN18@CGdiObject
  00102	c3		 ret	 0
_TEXT	ENDS
;	COMDAT text$x
text$x	SEGMENT
__unwindfunclet$??1CGdiObject@@UAE@XZ$2:
  00000	8d 8d e8 fd ff
	ff		 lea	 ecx, DWORD PTR _strMsg$3[ebp]
  00006	ff 25 00 00 00
	00		 jmp	 DWORD PTR __imp_??1?$CStringT@DV?$StrTraitMFC_DLL@DV?$ChTraitsCRT@D@ATL@@@@@ATL@@QAE@XZ
  0000c	cc		 int	 3
  0000d	cc		 int	 3
  0000e	cc		 int	 3
  0000f	cc		 int	 3
  00010	cc		 int	 3
__ehhandler$??1CGdiObject@@UAE@XZ:
  00011	90		 npad	 1
  00012	90		 npad	 1
  00013	8b 54 24 08	 mov	 edx, DWORD PTR [esp+8]
  00017	8d 42 0c	 lea	 eax, DWORD PTR [edx+12]
  0001a	8b 8a e0 fd ff
	ff		 mov	 ecx, DWORD PTR [edx-544]
  00020	33 c8		 xor	 ecx, eax
  00022	e8 00 00 00 00	 call	 @__security_check_cookie@4
  00027	8b 4a f8	 mov	 ecx, DWORD PTR [edx-8]
  0002a	33 c8		 xor	 ecx, eax
  0002c	e8 00 00 00 00	 call	 @__security_check_cookie@4
  00031	b8 00 00 00 00	 mov	 eax, OFFSET __ehfuncinfo$??1CGdiObject@@UAE@XZ
  00036	e9 00 00 00 00	 jmp	 ___CxxFrameHandler3
text$x	ENDS
??1CGdiObject@@UAE@XZ ENDP				; CGdiObject::~CGdiObject
; Function compile flags: /Ogtp
; File C:\Program Files (x86)\Microsoft Visual Studio\2019\Community\VC\Tools\MSVC\14.29.30133\atlmfc\include\afx.inl
;	COMDAT ?Dump@CObject@@UBEXAAVCDumpContext@@@Z
_TEXT	SEGMENT
___formal$ = 8						; size = 4
?Dump@CObject@@UBEXAAVCDumpContext@@@Z PROC		; CObject::Dump, COMDAT
; _this$ = ecx

; 122  : 	{ /* no dumping in release builds */ }

  00000	c2 04 00	 ret	 4
?Dump@CObject@@UBEXAAVCDumpContext@@@Z ENDP		; CObject::Dump
_TEXT	ENDS
; Function compile flags: /Ogtp
; File C:\Program Files (x86)\Microsoft Visual Studio\2019\Community\VC\Tools\MSVC\14.29.30133\atlmfc\include\afx.inl
;	COMDAT ?AssertValid@CObject@@UBEXXZ
_TEXT	SEGMENT
?AssertValid@CObject@@UBEXXZ PROC			; CObject::AssertValid, COMDAT
; _this$ = ecx

; 120  : 	{ /* no asserts in release builds */ }

  00000	c2 00 00	 ret	 0
?AssertValid@CObject@@UBEXXZ ENDP			; CObject::AssertValid
_TEXT	ENDS
; Function compile flags: /Ogtp
; File C:\Program Files (x86)\Microsoft Visual Studio\2019\Community\VC\Tools\MSVC\14.29.30133\atlmfc\include\afx.inl
;	COMDAT ?Serialize@CObject@@UAEXAAVCArchive@@@Z
_TEXT	SEGMENT
___formal$ = 8						; size = 4
?Serialize@CObject@@UAEXAAVCArchive@@@Z PROC		; CObject::Serialize, COMDAT
; _this$ = ecx

; 106  : 	{ /* CObject does not serialize anything by default */ }

  00000	c2 04 00	 ret	 4
?Serialize@CObject@@UAEXAAVCArchive@@@Z ENDP		; CObject::Serialize
_TEXT	ENDS
; Function compile flags: /Ogtp
; File C:\Program Files (x86)\Microsoft Visual Studio\2019\Community\VC\Tools\MSVC\14.29.30133\atlmfc\include\afx.inl
;	COMDAT ??1CObject@@UAE@XZ
_TEXT	SEGMENT
??1CObject@@UAE@XZ PROC					; CObject::~CObject, COMDAT
; _this$ = ecx

; 104  : 	{ }

  00000	c2 00 00	 ret	 0
??1CObject@@UAE@XZ ENDP					; CObject::~CObject
_TEXT	ENDS
; Function compile flags: /Ogtp
; File D:\git\src\IBK\IBK_DRFN\ProjSrc\SrcDrfn\Chart\comparechart\control\NsyButtonListCtrl.cpp
;	COMDAT ?__empty_global_delete@@YAXPAXI@Z
_TEXT	SEGMENT
___formal$ = 8						; size = 4
___formal$ = 12						; size = 4
?__empty_global_delete@@YAXPAXI@Z PROC			; __empty_global_delete, COMDAT

  00000	c2 00 00	 ret	 0
?__empty_global_delete@@YAXPAXI@Z ENDP			; __empty_global_delete
_TEXT	ENDS
; Function compile flags: /Ogtp
; File D:\git\src\IBK\IBK_DRFN\ProjSrc\SrcDrfn\Chart\comparechart\control\NsyButtonListCtrl.cpp
;	COMDAT ?__empty_global_delete@@YAXPAX@Z
_TEXT	SEGMENT
___formal$ = 8						; size = 4
?__empty_global_delete@@YAXPAX@Z PROC			; __empty_global_delete, COMDAT

  00000	c2 00 00	 ret	 0
?__empty_global_delete@@YAXPAX@Z ENDP			; __empty_global_delete
_TEXT	ENDS
END
