; Listing generated by Microsoft (R) Optimizing Compiler Version 19.29.30145.0 

	TITLE	D:\git\src\IBK\IBK_DRFN\#DRfn-CS\_Obj\CompareChart\StdDialogPartnerSite.obj
	.686P
	.XMM
	include listing.inc
	.model	flat

INCLUDELIB MSVCRT
INCLUDELIB OLDNAMES

PUBLIC	??_C@_0BC@LHNMEPFM@RMSG_SELCHARTCODE@		; `string'
PUBLIC	??_C@_0BB@IBKHOHJL@RMSG_REPLAY_REAL@		; `string'
PUBLIC	??_C@_0BB@JFLGBADG@RMSG_REPLAY_FAIL@		; `string'
PUBLIC	??_C@_0BI@KDGAIIMD@RMSG_REPLAY_CHANGE_DATE@	; `string'
PUBLIC	??_C@_0BA@NKHHCPON@RMSG_REPLAY_END@		; `string'
PUBLIC	??_C@_0BE@JFCIMCIP@RMSG_REPLAY_INC_SEC@		; `string'
PUBLIC	??_C@_0BG@GIAJEIJF@RMSG_REPLAY_TOTAL_SEC@	; `string'
PUBLIC	??_C@_0BE@FJPKENOB@RMSG_GETSIGNAL_REAL@		; `string'
PUBLIC	??_C@_0P@KHFCBIOH@RMSG_CHARTMAIN@		; `string'
PUBLIC	??_C@_0BC@MMPGLPDH@RMS_ANALYSIS_FUNC@		; `string'
PUBLIC	??_C@_0BA@HKNFENJL@RMSG_GET_USERID@		; `string'
PUBLIC	??_C@_0P@LFDACNFE@RMSG_KSDLLINFO@		; `string'
PUBLIC	??_C@_0N@IIOKMIEH@RMSG_GETINFO@			; `string'
PUBLIC	??_C@_0BG@CNPAHNGG@RMSG_CHANGE_SKINCOLOR@	; `string'
PUBLIC	??_C@_0BD@FLDNDDHK@RMSG_GET_SKINCOLOR@		; `string'
PUBLIC	??_C@_0BG@LNLCJKPF@RMSG_CHANGE_CROSSLINE@	; `string'
;	COMDAT ??_C@_0BG@LNLCJKPF@RMSG_CHANGE_CROSSLINE@
CONST	SEGMENT
??_C@_0BG@LNLCJKPF@RMSG_CHANGE_CROSSLINE@ DB 'RMSG_CHANGE_CROSSLINE', 00H ; `string'
CONST	ENDS
;	COMDAT ??_C@_0BD@FLDNDDHK@RMSG_GET_SKINCOLOR@
CONST	SEGMENT
??_C@_0BD@FLDNDDHK@RMSG_GET_SKINCOLOR@ DB 'RMSG_GET_SKINCOLOR', 00H ; `string'
CONST	ENDS
;	COMDAT ??_C@_0BG@CNPAHNGG@RMSG_CHANGE_SKINCOLOR@
CONST	SEGMENT
??_C@_0BG@CNPAHNGG@RMSG_CHANGE_SKINCOLOR@ DB 'RMSG_CHANGE_SKINCOLOR', 00H ; `string'
CONST	ENDS
;	COMDAT ??_C@_0N@IIOKMIEH@RMSG_GETINFO@
CONST	SEGMENT
??_C@_0N@IIOKMIEH@RMSG_GETINFO@ DB 'RMSG_GETINFO', 00H	; `string'
CONST	ENDS
;	COMDAT ??_C@_0P@LFDACNFE@RMSG_KSDLLINFO@
CONST	SEGMENT
??_C@_0P@LFDACNFE@RMSG_KSDLLINFO@ DB 'RMSG_KSDLLINFO', 00H ; `string'
CONST	ENDS
;	COMDAT ??_C@_0BA@HKNFENJL@RMSG_GET_USERID@
CONST	SEGMENT
??_C@_0BA@HKNFENJL@RMSG_GET_USERID@ DB 'RMSG_GET_USERID', 00H ; `string'
CONST	ENDS
;	COMDAT ??_C@_0BC@MMPGLPDH@RMS_ANALYSIS_FUNC@
CONST	SEGMENT
??_C@_0BC@MMPGLPDH@RMS_ANALYSIS_FUNC@ DB 'RMS_ANALYSIS_FUNC', 00H ; `string'
CONST	ENDS
;	COMDAT ??_C@_0P@KHFCBIOH@RMSG_CHARTMAIN@
CONST	SEGMENT
??_C@_0P@KHFCBIOH@RMSG_CHARTMAIN@ DB 'RMSG_CHARTMAIN', 00H ; `string'
CONST	ENDS
;	COMDAT ??_C@_0BE@FJPKENOB@RMSG_GETSIGNAL_REAL@
CONST	SEGMENT
??_C@_0BE@FJPKENOB@RMSG_GETSIGNAL_REAL@ DB 'RMSG_GETSIGNAL_REAL', 00H ; `string'
CONST	ENDS
;	COMDAT ??_C@_0BG@GIAJEIJF@RMSG_REPLAY_TOTAL_SEC@
CONST	SEGMENT
??_C@_0BG@GIAJEIJF@RMSG_REPLAY_TOTAL_SEC@ DB 'RMSG_REPLAY_TOTAL_SEC', 00H ; `string'
CONST	ENDS
;	COMDAT ??_C@_0BE@JFCIMCIP@RMSG_REPLAY_INC_SEC@
CONST	SEGMENT
??_C@_0BE@JFCIMCIP@RMSG_REPLAY_INC_SEC@ DB 'RMSG_REPLAY_INC_SEC', 00H ; `string'
CONST	ENDS
;	COMDAT ??_C@_0BA@NKHHCPON@RMSG_REPLAY_END@
CONST	SEGMENT
??_C@_0BA@NKHHCPON@RMSG_REPLAY_END@ DB 'RMSG_REPLAY_END', 00H ; `string'
CONST	ENDS
;	COMDAT ??_C@_0BI@KDGAIIMD@RMSG_REPLAY_CHANGE_DATE@
CONST	SEGMENT
??_C@_0BI@KDGAIIMD@RMSG_REPLAY_CHANGE_DATE@ DB 'RMSG_REPLAY_CHANGE_DATE', 00H ; `string'
CONST	ENDS
;	COMDAT ??_C@_0BB@JFLGBADG@RMSG_REPLAY_FAIL@
CONST	SEGMENT
??_C@_0BB@JFLGBADG@RMSG_REPLAY_FAIL@ DB 'RMSG_REPLAY_FAIL', 00H ; `string'
CONST	ENDS
;	COMDAT ??_C@_0BB@IBKHOHJL@RMSG_REPLAY_REAL@
CONST	SEGMENT
??_C@_0BB@IBKHOHJL@RMSG_REPLAY_REAL@ DB 'RMSG_REPLAY_REAL', 00H ; `string'
CONST	ENDS
;	COMDAT ??_C@_0BC@LHNMEPFM@RMSG_SELCHARTCODE@
CONST	SEGMENT
??_C@_0BC@LHNMEPFM@RMSG_SELCHARTCODE@ DB 'RMSG_SELCHARTCODE', 00H ; `string'
CONST	ENDS
PUBLIC	?__empty_global_delete@@YAXPAX@Z		; __empty_global_delete
PUBLIC	?__empty_global_delete@@YAXPAXI@Z		; __empty_global_delete
PUBLIC	?_AfxInitManaged@@YAHXZ				; _AfxInitManaged
PUBLIC	?DoSetPartnerSite@CStdDialog@@QAEXPAUIPartnerManager@@@Z ; CStdDialog::DoSetPartnerSite
PUBLIC	?RecieveFidData@CPartnerSite@CStdDialog@@UAGJJPBD00PAXJ@Z ; CStdDialog::CPartnerSite::RecieveFidData
PUBLIC	?RecieveTRData@CPartnerSite@CStdDialog@@UAGJJPBD00PAXJ@Z ; CStdDialog::CPartnerSite::RecieveTRData
PUBLIC	?RecieveRealData@CPartnerSite@CStdDialog@@UAGJJJ@Z ; CStdDialog::CPartnerSite::RecieveRealData
PUBLIC	?RecieveKeyData@CPartnerSite@CStdDialog@@UAGJHPBD@Z ; CStdDialog::CPartnerSite::RecieveKeyData
PUBLIC	?RecieveRealDataEx@CPartnerSite@CStdDialog@@UAGJJPBDJ@Z ; CStdDialog::CPartnerSite::RecieveRealDataEx
PUBLIC	?ReceiveOnUser@CPartnerSite@CStdDialog@@UAGJIJ@Z ; CStdDialog::CPartnerSite::ReceiveOnUser
PUBLIC	??_C@_04JIMNDDED@?$CF08X@			; `string'
EXTRN	__imp__RegisterWindowMessageA@4:PROC
EXTRN	__imp_??0?$CStringT@DV?$StrTraitMFC_DLL@DV?$ChTraitsCRT@D@ATL@@@@@ATL@@QAE@ABV01@@Z:PROC
EXTRN	__imp_??0?$CStringT@DV?$StrTraitMFC_DLL@DV?$ChTraitsCRT@D@ATL@@@@@ATL@@QAE@PBD@Z:PROC
EXTRN	__imp_??1?$CStringT@DV?$StrTraitMFC_DLL@DV?$ChTraitsCRT@D@ATL@@@@@ATL@@QAE@XZ:PROC
EXTRN	__imp_??4?$CStringT@DV?$StrTraitMFC_DLL@DV?$ChTraitsCRT@D@ATL@@@@@ATL@@QAEAAV01@ABV01@@Z:PROC
EXTRN	__imp_?Find@?$CStringT@DV?$StrTraitMFC_DLL@DV?$ChTraitsCRT@D@ATL@@@@@ATL@@QBEHDH@Z:PROC
EXTRN	__imp_?Left@?$CStringT@DV?$StrTraitMFC_DLL@DV?$ChTraitsCRT@D@ATL@@@@@ATL@@QBE?AV12@H@Z:PROC
EXTRN	__imp_?Format@?$CStringT@DV?$StrTraitMFC_DLL@DV?$ChTraitsCRT@D@ATL@@@@@ATL@@QAAXPBDZZ:PROC
EXTRN	??0AFX_MAINTAIN_STATE2@@QAE@PAVAFX_MODULE_STATE@@@Z:PROC ; AFX_MAINTAIN_STATE2::AFX_MAINTAIN_STATE2
EXTRN	??1AFX_MAINTAIN_STATE2@@QAE@XZ:PROC		; AFX_MAINTAIN_STATE2::~AFX_MAINTAIN_STATE2
EXTRN	?SetRealJPriceData@CChartMng@@QAEXPAX@Z:PROC	; CChartMng::SetRealJPriceData
EXTRN	?GetMarketTypeFromCode@CStdDialog@@QAEHV?$CStringT@DV?$StrTraitMFC_DLL@DV?$ChTraitsCRT@D@ATL@@@@@ATL@@AAH@Z:PROC ; CStdDialog::GetMarketTypeFromCode
_BSS	SEGMENT
?RMSG_REPLAY_REAL@@3IB DD 01H DUP (?)			; RMSG_REPLAY_REAL
?RMSG_REPLAY_FAIL@@3IB DD 01H DUP (?)			; RMSG_REPLAY_FAIL
?RMSG_REPLAY_CHANGE_DATE@@3IB DD 01H DUP (?)		; RMSG_REPLAY_CHANGE_DATE
?RMSG_REPLAY_END@@3IB DD 01H DUP (?)			; RMSG_REPLAY_END
?RMSG_REPLAY_INC_SEC@@3IB DD 01H DUP (?)		; RMSG_REPLAY_INC_SEC
?RMSG_REPLAY_TOTAL_SEC@@3IB DD 01H DUP (?)		; RMSG_REPLAY_TOTAL_SEC
?RMSG_GETSIGNAL_REAL@@3IB DD 01H DUP (?)		; RMSG_GETSIGNAL_REAL
?RMSG_CHARTMAIN@@3IB DD 01H DUP (?)			; RMSG_CHARTMAIN
?RMS_ANALYSIS_FUNC@@3IB DD 01H DUP (?)			; RMS_ANALYSIS_FUNC
?RMSG_GET_USERID@@3IB DD 01H DUP (?)			; RMSG_GET_USERID
?RMSG_KSDLLINFO@@3IB DD 01H DUP (?)			; RMSG_KSDLLINFO
?RMSG_GETINFO@@3IB DD 01H DUP (?)			; RMSG_GETINFO
?RMSG_CHANGE_SKINCOLOR@@3IB DD 01H DUP (?)		; RMSG_CHANGE_SKINCOLOR
?RMSG_GET_SKINCOLOR@@3IB DD 01H DUP (?)			; RMSG_GET_SKINCOLOR
?RMSG_CHANGE_CROSSLINE@@3IB DD 01H DUP (?)		; RMSG_CHANGE_CROSSLINE
?RMSG_SELCHARTCODE@@3IB DD 01H DUP (?)			; RMSG_SELCHARTCODE
_BSS	ENDS
CRT$XCU	SEGMENT
?RMSG_REPLAY_REAL$initializer$@@3P6AXXZA DD FLAT:??__ERMSG_REPLAY_REAL@@YAXXZ ; RMSG_REPLAY_REAL$initializer$
CRT$XCU	ENDS
;	COMDAT ??_C@_04JIMNDDED@?$CF08X@
CONST	SEGMENT
??_C@_04JIMNDDED@?$CF08X@ DB '%08X', 00H		; `string'
CONST	ENDS
CRT$XCU	SEGMENT
?RMSG_REPLAY_FAIL$initializer$@@3P6AXXZA DD FLAT:??__ERMSG_REPLAY_FAIL@@YAXXZ ; RMSG_REPLAY_FAIL$initializer$
CRT$XCU	ENDS
CRT$XCU	SEGMENT
?RMSG_REPLAY_CHANGE_DATE$initializer$@@3P6AXXZA DD FLAT:??__ERMSG_REPLAY_CHANGE_DATE@@YAXXZ ; RMSG_REPLAY_CHANGE_DATE$initializer$
CRT$XCU	ENDS
CRT$XCU	SEGMENT
?RMSG_REPLAY_END$initializer$@@3P6AXXZA DD FLAT:??__ERMSG_REPLAY_END@@YAXXZ ; RMSG_REPLAY_END$initializer$
CRT$XCU	ENDS
CRT$XCU	SEGMENT
?RMSG_REPLAY_INC_SEC$initializer$@@3P6AXXZA DD FLAT:??__ERMSG_REPLAY_INC_SEC@@YAXXZ ; RMSG_REPLAY_INC_SEC$initializer$
CRT$XCU	ENDS
CRT$XCU	SEGMENT
?RMSG_REPLAY_TOTAL_SEC$initializer$@@3P6AXXZA DD FLAT:??__ERMSG_REPLAY_TOTAL_SEC@@YAXXZ ; RMSG_REPLAY_TOTAL_SEC$initializer$
CRT$XCU	ENDS
CRT$XCU	SEGMENT
?RMSG_GETSIGNAL_REAL$initializer$@@3P6AXXZA DD FLAT:??__ERMSG_GETSIGNAL_REAL@@YAXXZ ; RMSG_GETSIGNAL_REAL$initializer$
CRT$XCU	ENDS
CRT$XCU	SEGMENT
?RMSG_CHARTMAIN$initializer$@@3P6AXXZA DD FLAT:??__ERMSG_CHARTMAIN@@YAXXZ ; RMSG_CHARTMAIN$initializer$
CRT$XCU	ENDS
CRT$XCU	SEGMENT
?RMS_ANALYSIS_FUNC$initializer$@@3P6AXXZA DD FLAT:??__ERMS_ANALYSIS_FUNC@@YAXXZ ; RMS_ANALYSIS_FUNC$initializer$
CRT$XCU	ENDS
CRT$XCU	SEGMENT
?RMSG_GET_USERID$initializer$@@3P6AXXZA DD FLAT:??__ERMSG_GET_USERID@@YAXXZ ; RMSG_GET_USERID$initializer$
CRT$XCU	ENDS
CRT$XCU	SEGMENT
?RMSG_KSDLLINFO$initializer$@@3P6AXXZA DD FLAT:??__ERMSG_KSDLLINFO@@YAXXZ ; RMSG_KSDLLINFO$initializer$
CRT$XCU	ENDS
CRT$XCU	SEGMENT
?RMSG_GETINFO$initializer$@@3P6AXXZA DD FLAT:??__ERMSG_GETINFO@@YAXXZ ; RMSG_GETINFO$initializer$
CRT$XCU	ENDS
CRT$XCU	SEGMENT
?RMSG_CHANGE_SKINCOLOR$initializer$@@3P6AXXZA DD FLAT:??__ERMSG_CHANGE_SKINCOLOR@@YAXXZ ; RMSG_CHANGE_SKINCOLOR$initializer$
CRT$XCU	ENDS
CRT$XCU	SEGMENT
?RMSG_GET_SKINCOLOR$initializer$@@3P6AXXZA DD FLAT:??__ERMSG_GET_SKINCOLOR@@YAXXZ ; RMSG_GET_SKINCOLOR$initializer$
CRT$XCU	ENDS
CRT$XCU	SEGMENT
?RMSG_CHANGE_CROSSLINE$initializer$@@3P6AXXZA DD FLAT:??__ERMSG_CHANGE_CROSSLINE@@YAXXZ ; RMSG_CHANGE_CROSSLINE$initializer$
CRT$XCU	ENDS
CRT$XCU	SEGMENT
?RMSG_SELCHARTCODE$initializer$@@3P6AXXZA DD FLAT:??__ERMSG_SELCHARTCODE@@YAXXZ ; RMSG_SELCHARTCODE$initializer$
CRT$XCU	ENDS
; Function compile flags: /Ogtp
; File D:\git\src\IBK\IBK_DRFN\ProjSrc\SrcDrfn\Chart\comparechart\StdDialogPartnerSite.cpp
;	COMDAT ?ReceiveOnUser@CPartnerSite@CStdDialog@@UAGJIJ@Z
_TEXT	SEGMENT
_this$ = 8						; size = 4
_wParam$ = 12						; size = 4
_lParam$ = 16						; size = 4
?ReceiveOnUser@CPartnerSite@CStdDialog@@UAGJIJ@Z PROC	; CStdDialog::CPartnerSite::ReceiveOnUser, COMDAT

; 108  : 	return S_OK;

  00000	33 c0		 xor	 eax, eax

; 109  : }

  00002	c2 0c 00	 ret	 12			; 0000000cH
?ReceiveOnUser@CPartnerSite@CStdDialog@@UAGJIJ@Z ENDP	; CStdDialog::CPartnerSite::ReceiveOnUser
_TEXT	ENDS
; Function compile flags: /Ogtp
; File D:\git\src\IBK\IBK_DRFN\ProjSrc\SrcDrfn\Chart\comparechart\StdDialogPartnerSite.cpp
;	COMDAT ?RecieveRealDataEx@CPartnerSite@CStdDialog@@UAGJJPBDJ@Z
_TEXT	SEGMENT
_this$ = 8						; size = 4
_dwKey$ = 12						; size = 4
_pszCode$ = 16						; size = 4
_dwData$ = 20						; size = 4
?RecieveRealDataEx@CPartnerSite@CStdDialog@@UAGJJPBDJ@Z PROC ; CStdDialog::CPartnerSite::RecieveRealDataEx, COMDAT

; 99   : /*
; 100  : 	METHOD_PROLOGUE(CStdDialog, PartnerSite)
; 101  : //	pThis->m_ChartMng.ReceiveRealHogaData(dwKey, pszCode, dwData);
; 102  : */
; 103  : 	return S_OK;

  00000	33 c0		 xor	 eax, eax

; 104  : }

  00002	c2 10 00	 ret	 16			; 00000010H
?RecieveRealDataEx@CPartnerSite@CStdDialog@@UAGJJPBDJ@Z ENDP ; CStdDialog::CPartnerSite::RecieveRealDataEx
_TEXT	ENDS
; Function compile flags: /Ogtp
; File D:\git\src\IBK\IBK_DRFN\ProjSrc\SrcDrfn\Chart\comparechart\StdDialogPartnerSite.cpp
;	COMDAT ?RecieveKeyData@CPartnerSite@CStdDialog@@UAGJHPBD@Z
_TEXT	SEGMENT
__ctlState$ = -8					; size = 8
_szCode$1 = 8						; size = 4
_this$ = 8						; size = 4
$T2 = 12						; size = 4
_nKey$ = 12						; size = 4
_nCodeType$3 = 16					; size = 4
__szData$ = 16						; size = 4
?RecieveKeyData@CPartnerSite@CStdDialog@@UAGJHPBD@Z PROC ; CStdDialog::CPartnerSite::RecieveKeyData, COMDAT

; 42   : {

  00000	55		 push	 ebp
  00001	8b ec		 mov	 ebp, esp
  00003	83 ec 08	 sub	 esp, 8

; 43   : 	METHOD_PROLOGUE(CStdDialog, PartnerSite)

  00006	8d 4d f8	 lea	 ecx, DWORD PTR __ctlState$[ebp]
  00009	56		 push	 esi
  0000a	8b 75 08	 mov	 esi, DWORD PTR _this$[ebp]
  0000d	ff b6 18 ef ff
	ff		 push	 DWORD PTR [esi-4328]
  00013	e8 00 00 00 00	 call	 ??0AFX_MAINTAIN_STATE2@@QAE@PAVAFX_MODULE_STATE@@@Z ; AFX_MAINTAIN_STATE2::AFX_MAINTAIN_STATE2

; 44   : 		
; 45   : 	switch(nKey)

  00018	8b 45 0c	 mov	 eax, DWORD PTR _nKey$[ebp]
  0001b	83 e8 01	 sub	 eax, 1
  0001e	74 2b		 je	 SHORT $LN7@RecieveKey
  00020	83 e8 01	 sub	 eax, 1
  00023	0f 85 b0 00 00
	00		 jne	 $LN13@RecieveKey

; 83   : 			break;
; 84   : 		case IPartnerSite::IPS_RK_gwansim:
; 85   : 			{
; 86   : 				//관심그룹이 변경되었다는 메시지를 받아서 관심그룹 갱신을 요청함.
; 87   : 				if(pThis->m_pGwanMng)

  00029	8b 4e 04	 mov	 ecx, DWORD PTR [esi+4]
  0002c	85 c9		 test	 ecx, ecx
  0002e	0f 84 a5 00 00
	00		 je	 $LN13@RecieveKey

; 88   : 					pThis->m_pGwanMng->RequestGwansimGroup();

  00034	8b 01		 mov	 eax, DWORD PTR [ecx]
  00036	51		 push	 ecx
  00037	ff 50 30	 call	 DWORD PTR [eax+48]

; 89   : 			}		
; 90   : 			break;
; 91   : 	}
; 92   : 	
; 93   : 	return S_OK;

  0003a	8d 4d f8	 lea	 ecx, DWORD PTR __ctlState$[ebp]
  0003d	e8 00 00 00 00	 call	 ??1AFX_MAINTAIN_STATE2@@QAE@XZ ; AFX_MAINTAIN_STATE2::~AFX_MAINTAIN_STATE2
  00042	33 c0		 xor	 eax, eax

; 94   : }

  00044	5e		 pop	 esi
  00045	8b e5		 mov	 esp, ebp
  00047	5d		 pop	 ebp
  00048	c2 0c 00	 ret	 12			; 0000000cH
$LN7@RecieveKey:

; 46   : 	{
; 47   : 		case IPartnerSite::IPS_RK_shareCode:	//0
; 48   : 			//WPARAM 종목코드, LPARAM MarketType	
; 49   : 			break;
; 50   : 
; 51   : 		//case 1: //종목Dialog에서 선택한 Code
; 52   : 		case IPartnerSite::IPS_RK_codeDlg: //종목Dialog에서 선택한 Code
; 53   : 			{
; 54   : 				//CString szSymbol;
; 55   : 				//g_pPtUtilMng->GetSymboCode(_szData, szSymbol);
; 56   : 				
; 57   : 				CString szCode(_szData);

  0004b	ff 75 10	 push	 DWORD PTR __szData$[ebp]
  0004e	8d 4d 08	 lea	 ecx, DWORD PTR _szCode$1[ebp]
  00051	ff 15 00 00 00
	00		 call	 DWORD PTR __imp_??0?$CStringT@DV?$StrTraitMFC_DLL@DV?$ChTraitsCRT@D@ATL@@@@@ATL@@QAE@PBD@Z

; 58   : 				int nPos = szCode.Find('\t');

  00057	6a 00		 push	 0
  00059	6a 09		 push	 9
  0005b	8d 4d 08	 lea	 ecx, DWORD PTR _szCode$1[ebp]
  0005e	ff 15 00 00 00
	00		 call	 DWORD PTR __imp_?Find@?$CStringT@DV?$StrTraitMFC_DLL@DV?$ChTraitsCRT@D@ATL@@@@@ATL@@QBEHDH@Z

; 59   : 				if(nPos>0) szCode = szCode.Left(nPos);

  00064	85 c0		 test	 eax, eax
  00066	7e 21		 jle	 SHORT $LN8@RecieveKey
  00068	50		 push	 eax
  00069	8d 45 0c	 lea	 eax, DWORD PTR $T2[ebp]
  0006c	50		 push	 eax
  0006d	8d 4d 08	 lea	 ecx, DWORD PTR _szCode$1[ebp]
  00070	ff 15 00 00 00
	00		 call	 DWORD PTR __imp_?Left@?$CStringT@DV?$StrTraitMFC_DLL@DV?$ChTraitsCRT@D@ATL@@@@@ATL@@QBE?AV12@H@Z
  00076	50		 push	 eax
  00077	8d 4d 08	 lea	 ecx, DWORD PTR _szCode$1[ebp]
  0007a	ff 15 00 00 00
	00		 call	 DWORD PTR __imp_??4?$CStringT@DV?$StrTraitMFC_DLL@DV?$ChTraitsCRT@D@ATL@@@@@ATL@@QAEAAV01@ABV01@@Z
  00080	8d 4d 0c	 lea	 ecx, DWORD PTR $T2[ebp]
  00083	ff 15 00 00 00
	00		 call	 DWORD PTR __imp_??1?$CStringT@DV?$StrTraitMFC_DLL@DV?$ChTraitsCRT@D@ATL@@@@@ATL@@QAE@XZ
$LN8@RecieveKey:

; 60   : 				
; 61   : 				//WPARAM wp = (WPARAM)(LPCSTR)szCode;
; 62   : 				//LPARAM lp = pThis->m_nChartType;
; 63   : 				//pThis->SendMessage(UMSG_SENDSHAREDCODE, wp, lp);
; 64   : 				int nCodeType;
; 65   : 				int nMarketType = pThis->GetMarketTypeFromCode(szCode, nCodeType);

  00089	8d 45 10	 lea	 eax, DWORD PTR _nCodeType$3[ebp]
  0008c	50		 push	 eax
  0008d	51		 push	 ecx
  0008e	8d 45 08	 lea	 eax, DWORD PTR _szCode$1[ebp]
  00091	8b cc		 mov	 ecx, esp
  00093	50		 push	 eax
  00094	ff 15 00 00 00
	00		 call	 DWORD PTR __imp_??0?$CStringT@DV?$StrTraitMFC_DLL@DV?$ChTraitsCRT@D@ATL@@@@@ATL@@QAE@ABV01@@Z
  0009a	8d 8e fc ee ff
	ff		 lea	 ecx, DWORD PTR [esi-4356]
  000a0	e8 00 00 00 00	 call	 ?GetMarketTypeFromCode@CStdDialog@@QAEHV?$CStringT@DV?$StrTraitMFC_DLL@DV?$ChTraitsCRT@D@ATL@@@@@ATL@@AAH@Z ; CStdDialog::GetMarketTypeFromCode

; 66   : //				if(pThis->m_nMarketType == nMarketType)
; 67   : //					pThis->ChangeCode(szCode);
; 68   : 
; 69   : 				CTabDlg *pTabDlg = pThis->m_pLeftBarDlg->m_tabctrl.GetWndCodeSearch();

  000a5	8b 86 a4 fe ff
	ff		 mov	 eax, DWORD PTR [esi-348]
  000ab	8b 88 f8 08 00
	00		 mov	 ecx, DWORD PTR [eax+2296]

; 70   : 				if(pTabDlg)

  000b1	85 c9		 test	 ecx, ecx
  000b3	74 1b		 je	 SHORT $LN4@RecieveKey

; 71   : 				{
; 72   : 					switch(pThis->m_nScreenType)

  000b5	8b 86 e0 f1 ff
	ff		 mov	 eax, DWORD PTR [esi-3616]
  000bb	83 e8 00	 sub	 eax, 0
  000be	74 05		 je	 SHORT $LN10@RecieveKey
  000c0	83 e8 02	 sub	 eax, 2
  000c3	75 0b		 jne	 SHORT $LN4@RecieveKey
$LN10@RecieveKey:

; 73   : 					{
; 74   : 					case Screen_Compchart:
; 75   : 						((CTabStockDlg*)pTabDlg)->SetCodeFromOutSide(szCode);
; 76   : 							break;
; 77   : 					case Screen_ForeignChart:
; 78   : 						((CTabForeignDlg*)pTabDlg)->SetCodeFromOutSide(szCode);
; 79   : 						break;
; 80   : 					}
; 81   : 				}
; 82   : 			}

  000c5	8b 01		 mov	 eax, DWORD PTR [ecx]
  000c7	ff 75 08	 push	 DWORD PTR _szCode$1[ebp]
  000ca	ff 90 a8 01 00
	00		 call	 DWORD PTR [eax+424]
$LN4@RecieveKey:
  000d0	8d 4d 08	 lea	 ecx, DWORD PTR _szCode$1[ebp]
  000d3	ff 15 00 00 00
	00		 call	 DWORD PTR __imp_??1?$CStringT@DV?$StrTraitMFC_DLL@DV?$ChTraitsCRT@D@ATL@@@@@ATL@@QAE@XZ
$LN13@RecieveKey:

; 89   : 			}		
; 90   : 			break;
; 91   : 	}
; 92   : 	
; 93   : 	return S_OK;

  000d9	8d 4d f8	 lea	 ecx, DWORD PTR __ctlState$[ebp]
  000dc	e8 00 00 00 00	 call	 ??1AFX_MAINTAIN_STATE2@@QAE@XZ ; AFX_MAINTAIN_STATE2::~AFX_MAINTAIN_STATE2
  000e1	33 c0		 xor	 eax, eax

; 94   : }

  000e3	5e		 pop	 esi
  000e4	8b e5		 mov	 esp, ebp
  000e6	5d		 pop	 ebp
  000e7	c2 0c 00	 ret	 12			; 0000000cH
?RecieveKeyData@CPartnerSite@CStdDialog@@UAGJHPBD@Z ENDP ; CStdDialog::CPartnerSite::RecieveKeyData
_TEXT	ENDS
; Function compile flags: /Ogtp
; File D:\git\src\IBK\IBK_DRFN\ProjSrc\SrcDrfn\Chart\comparechart\StdDialogPartnerSite.cpp
;	COMDAT ?RecieveRealData@CPartnerSite@CStdDialog@@UAGJJJ@Z
_TEXT	SEGMENT
__ctlState$ = -8					; size = 8
_this$ = 8						; size = 4
_dwKey$ = 12						; size = 4
_dwData$ = 16						; size = 4
?RecieveRealData@CPartnerSite@CStdDialog@@UAGJJJ@Z PROC	; CStdDialog::CPartnerSite::RecieveRealData, COMDAT

; 34   : {

  00000	55		 push	 ebp
  00001	8b ec		 mov	 ebp, esp
  00003	83 ec 08	 sub	 esp, 8

; 35   : 	METHOD_PROLOGUE(CStdDialog, PartnerSite)

  00006	8d 4d f8	 lea	 ecx, DWORD PTR __ctlState$[ebp]
  00009	56		 push	 esi
  0000a	8b 75 08	 mov	 esi, DWORD PTR _this$[ebp]
  0000d	ff b6 18 ef ff
	ff		 push	 DWORD PTR [esi-4328]
  00013	e8 00 00 00 00	 call	 ??0AFX_MAINTAIN_STATE2@@QAE@PAVAFX_MODULE_STATE@@@Z ; AFX_MAINTAIN_STATE2::AFX_MAINTAIN_STATE2

; 36   : 		
; 37   : 	pThis->m_ChartMng.SetRealJPriceData((LPVOID)dwData);

  00018	ff 75 10	 push	 DWORD PTR _dwData$[ebp]
  0001b	8d 8e 1c f5 ff
	ff		 lea	 ecx, DWORD PTR [esi-2788]
  00021	e8 00 00 00 00	 call	 ?SetRealJPriceData@CChartMng@@QAEXPAX@Z ; CChartMng::SetRealJPriceData

; 38   : 	return S_OK;

  00026	8d 4d f8	 lea	 ecx, DWORD PTR __ctlState$[ebp]
  00029	e8 00 00 00 00	 call	 ??1AFX_MAINTAIN_STATE2@@QAE@XZ ; AFX_MAINTAIN_STATE2::~AFX_MAINTAIN_STATE2
  0002e	33 c0		 xor	 eax, eax
  00030	5e		 pop	 esi

; 39   : }

  00031	8b e5		 mov	 esp, ebp
  00033	5d		 pop	 ebp
  00034	c2 0c 00	 ret	 12			; 0000000cH
?RecieveRealData@CPartnerSite@CStdDialog@@UAGJJJ@Z ENDP	; CStdDialog::CPartnerSite::RecieveRealData
_TEXT	ENDS
; Function compile flags: /Ogtp
; File D:\git\src\IBK\IBK_DRFN\ProjSrc\SrcDrfn\Chart\comparechart\StdDialogPartnerSite.cpp
;	COMDAT ?RecieveTRData@CPartnerSite@CStdDialog@@UAGJJPBD00PAXJ@Z
_TEXT	SEGMENT
__ctlState$ = -8					; size = 8
_this$ = 8						; size = 4
_dwKey$ = 12						; size = 4
_szTR$ = 16						; size = 4
_szMsgCode$ = 20					; size = 4
_szMessage$ = 24					; size = 4
_aTRData$ = 28						; size = 4
_dwTRDateLen$ = 32					; size = 4
?RecieveTRData@CPartnerSite@CStdDialog@@UAGJJPBD00PAXJ@Z PROC ; CStdDialog::CPartnerSite::RecieveTRData, COMDAT

; 24   : {

  00000	55		 push	 ebp
  00001	8b ec		 mov	 ebp, esp
  00003	83 ec 08	 sub	 esp, 8

; 25   : 	METHOD_PROLOGUE(CStdDialog, PartnerSite)

  00006	8d 4d f8	 lea	 ecx, DWORD PTR __ctlState$[ebp]
  00009	56		 push	 esi
  0000a	8b 75 08	 mov	 esi, DWORD PTR _this$[ebp]
  0000d	ff b6 18 ef ff
	ff		 push	 DWORD PTR [esi-4328]
  00013	e8 00 00 00 00	 call	 ??0AFX_MAINTAIN_STATE2@@QAE@PAVAFX_MODULE_STATE@@@Z ; AFX_MAINTAIN_STATE2::AFX_MAINTAIN_STATE2

; 26   : 
; 27   : 	pThis->ReceiveData(0, szTR, szMsgCode, szMessage, aTRData, dwTRDateLen);

  00018	ff 75 20	 push	 DWORD PTR _dwTRDateLen$[ebp]
  0001b	8b 86 fc ee ff
	ff		 mov	 eax, DWORD PTR [esi-4356]
  00021	8d 8e fc ee ff
	ff		 lea	 ecx, DWORD PTR [esi-4356]
  00027	ff 75 1c	 push	 DWORD PTR _aTRData$[ebp]
  0002a	ff 75 18	 push	 DWORD PTR _szMessage$[ebp]
  0002d	ff 75 14	 push	 DWORD PTR _szMsgCode$[ebp]
  00030	ff 75 10	 push	 DWORD PTR _szTR$[ebp]
  00033	6a 00		 push	 0
  00035	ff 90 94 01 00
	00		 call	 DWORD PTR [eax+404]

; 28   : 
; 29   : 	return S_OK;

  0003b	8d 4d f8	 lea	 ecx, DWORD PTR __ctlState$[ebp]
  0003e	e8 00 00 00 00	 call	 ??1AFX_MAINTAIN_STATE2@@QAE@XZ ; AFX_MAINTAIN_STATE2::~AFX_MAINTAIN_STATE2
  00043	33 c0		 xor	 eax, eax
  00045	5e		 pop	 esi

; 30   : }

  00046	8b e5		 mov	 esp, ebp
  00048	5d		 pop	 ebp
  00049	c2 1c 00	 ret	 28			; 0000001cH
?RecieveTRData@CPartnerSite@CStdDialog@@UAGJJPBD00PAXJ@Z ENDP ; CStdDialog::CPartnerSite::RecieveTRData
_TEXT	ENDS
; Function compile flags: /Ogtp
; File D:\git\src\IBK\IBK_DRFN\ProjSrc\SrcDrfn\Chart\comparechart\StdDialogPartnerSite.cpp
;	COMDAT ?RecieveFidData@CPartnerSite@CStdDialog@@UAGJJPBD00PAXJ@Z
_TEXT	SEGMENT
__ctlState$ = -8					; size = 8
_this$ = 8						; size = 4
_dwKey$ = 12						; size = 4
_szTR$ = 16						; size = 4
_szMsgCode$ = 20					; size = 4
_szMessage$ = 24					; size = 4
_aTRData$ = 28						; size = 4
_dwTRDateLen$ = 32					; size = 4
?RecieveFidData@CPartnerSite@CStdDialog@@UAGJJPBD00PAXJ@Z PROC ; CStdDialog::CPartnerSite::RecieveFidData, COMDAT

; 17   : {

  00000	55		 push	 ebp
  00001	8b ec		 mov	 ebp, esp

; 18   : 	METHOD_PROLOGUE(CStdDialog, PartnerSite)

  00003	8b 45 08	 mov	 eax, DWORD PTR _this$[ebp]
  00006	8d 4d f8	 lea	 ecx, DWORD PTR __ctlState$[ebp]
  00009	83 ec 08	 sub	 esp, 8
  0000c	ff b0 18 ef ff
	ff		 push	 DWORD PTR [eax-4328]
  00012	e8 00 00 00 00	 call	 ??0AFX_MAINTAIN_STATE2@@QAE@PAVAFX_MODULE_STATE@@@Z ; AFX_MAINTAIN_STATE2::AFX_MAINTAIN_STATE2

; 19   : 
; 20   : 	return S_OK;

  00017	8d 4d f8	 lea	 ecx, DWORD PTR __ctlState$[ebp]
  0001a	e8 00 00 00 00	 call	 ??1AFX_MAINTAIN_STATE2@@QAE@XZ ; AFX_MAINTAIN_STATE2::~AFX_MAINTAIN_STATE2
  0001f	33 c0		 xor	 eax, eax

; 21   : }

  00021	8b e5		 mov	 esp, ebp
  00023	5d		 pop	 ebp
  00024	c2 1c 00	 ret	 28			; 0000001cH
?RecieveFidData@CPartnerSite@CStdDialog@@UAGJJPBD00PAXJ@Z ENDP ; CStdDialog::CPartnerSite::RecieveFidData
_TEXT	ENDS
; Function compile flags: /Ogtp
; File D:\git\src\IBK\IBK_DRFN\ProjSrc\SrcDrfn\Chart\comparechart\StdDialogPartnerSite.cpp
;	COMDAT ?DoSetPartnerSite@CStdDialog@@QAEXPAUIPartnerManager@@@Z
_TEXT	SEGMENT
_pPtManager$ = 8					; size = 4
?DoSetPartnerSite@CStdDialog@@QAEXPAUIPartnerManager@@@Z PROC ; CStdDialog::DoSetPartnerSite, COMDAT
; _this$ = ecx

; 10   : {

  00000	55		 push	 ebp
  00001	8b ec		 mov	 ebp, esp
  00003	56		 push	 esi

; 11   : 	m_pPTManager = pPtManager;

  00004	8b 75 08	 mov	 esi, DWORD PTR _pPtManager$[ebp]
  00007	57		 push	 edi
  00008	8b f9		 mov	 edi, ecx

; 12   : 	m_szPTManager.Format("%08X", pPtManager);

  0000a	56		 push	 esi
  0000b	68 00 00 00 00	 push	 OFFSET ??_C@_04JIMNDDED@?$CF08X@
  00010	8d 87 00 11 00
	00		 lea	 eax, DWORD PTR [edi+4352]
  00016	89 b7 fc 10 00
	00		 mov	 DWORD PTR [edi+4348], esi
  0001c	50		 push	 eax
  0001d	ff 15 00 00 00
	00		 call	 DWORD PTR __imp_?Format@?$CStringT@DV?$StrTraitMFC_DLL@DV?$ChTraitsCRT@D@ATL@@@@@ATL@@QAAXPBDZZ
  00023	83 c4 0c	 add	 esp, 12			; 0000000cH

; 13   : 	if(pPtManager) pPtManager->SetSite(&m_xPartnerSite);

  00026	85 f6		 test	 esi, esi
  00028	74 0c		 je	 SHORT $LN2@DoSetPartn
  0002a	8b 0e		 mov	 ecx, DWORD PTR [esi]
  0002c	8d 87 04 11 00
	00		 lea	 eax, DWORD PTR [edi+4356]
  00032	50		 push	 eax
  00033	56		 push	 esi
  00034	ff 11		 call	 DWORD PTR [ecx]
$LN2@DoSetPartn:

; 14   : }

  00036	5f		 pop	 edi
  00037	5e		 pop	 esi
  00038	5d		 pop	 ebp
  00039	c2 04 00	 ret	 4
?DoSetPartnerSite@CStdDialog@@QAEXPAUIPartnerManager@@@Z ENDP ; CStdDialog::DoSetPartnerSite
_TEXT	ENDS
; Function compile flags: /Ogtp
; File D:\git\src\IBK\IBK_DRFN\ProjSrc\SrcDrfn\Chart\comparechart\StdDialog.h
;	COMDAT ??__ERMSG_SELCHARTCODE@@YAXXZ
text$di	SEGMENT
??__ERMSG_SELCHARTCODE@@YAXXZ PROC			; `dynamic initializer for 'RMSG_SELCHARTCODE'', COMDAT

; 73   : const UINT RMSG_SELCHARTCODE = ::RegisterWindowMessage( "RMSG_SELCHARTCODE" );

  00000	68 00 00 00 00	 push	 OFFSET ??_C@_0BC@LHNMEPFM@RMSG_SELCHARTCODE@
  00005	ff 15 00 00 00
	00		 call	 DWORD PTR __imp__RegisterWindowMessageA@4
  0000b	a3 00 00 00 00	 mov	 DWORD PTR ?RMSG_SELCHARTCODE@@3IB, eax
  00010	c3		 ret	 0
??__ERMSG_SELCHARTCODE@@YAXXZ ENDP			; `dynamic initializer for 'RMSG_SELCHARTCODE''
text$di	ENDS
; Function compile flags: /Ogtp
; File D:\git\src\IBK\IBK_DRFN\ProjSrc\SrcDrfn\Chart\comparechart\define\ChartMsgDef.h
;	COMDAT ??__ERMSG_CHANGE_CROSSLINE@@YAXXZ
text$di	SEGMENT
??__ERMSG_CHANGE_CROSSLINE@@YAXXZ PROC			; `dynamic initializer for 'RMSG_CHANGE_CROSSLINE'', COMDAT

; 216  : const UINT RMSG_CHANGE_CROSSLINE = ::RegisterWindowMessage(_T("RMSG_CHANGE_CROSSLINE"));

  00000	68 00 00 00 00	 push	 OFFSET ??_C@_0BG@LNLCJKPF@RMSG_CHANGE_CROSSLINE@
  00005	ff 15 00 00 00
	00		 call	 DWORD PTR __imp__RegisterWindowMessageA@4
  0000b	a3 00 00 00 00	 mov	 DWORD PTR ?RMSG_CHANGE_CROSSLINE@@3IB, eax
  00010	c3		 ret	 0
??__ERMSG_CHANGE_CROSSLINE@@YAXXZ ENDP			; `dynamic initializer for 'RMSG_CHANGE_CROSSLINE''
text$di	ENDS
; Function compile flags: /Ogtp
; File D:\git\src\IBK\IBK_DRFN\ProjSrc\SrcDrfn\Chart\comparechart\define\ChartMsgDef.h
;	COMDAT ??__ERMSG_GET_SKINCOLOR@@YAXXZ
text$di	SEGMENT
??__ERMSG_GET_SKINCOLOR@@YAXXZ PROC			; `dynamic initializer for 'RMSG_GET_SKINCOLOR'', COMDAT

; 214  : const UINT RMSG_GET_SKINCOLOR = ::RegisterWindowMessage(_T("RMSG_GET_SKINCOLOR"));

  00000	68 00 00 00 00	 push	 OFFSET ??_C@_0BD@FLDNDDHK@RMSG_GET_SKINCOLOR@
  00005	ff 15 00 00 00
	00		 call	 DWORD PTR __imp__RegisterWindowMessageA@4
  0000b	a3 00 00 00 00	 mov	 DWORD PTR ?RMSG_GET_SKINCOLOR@@3IB, eax
  00010	c3		 ret	 0
??__ERMSG_GET_SKINCOLOR@@YAXXZ ENDP			; `dynamic initializer for 'RMSG_GET_SKINCOLOR''
text$di	ENDS
; Function compile flags: /Ogtp
; File D:\git\src\IBK\IBK_DRFN\ProjSrc\SrcDrfn\Chart\comparechart\define\ChartMsgDef.h
;	COMDAT ??__ERMSG_CHANGE_SKINCOLOR@@YAXXZ
text$di	SEGMENT
??__ERMSG_CHANGE_SKINCOLOR@@YAXXZ PROC			; `dynamic initializer for 'RMSG_CHANGE_SKINCOLOR'', COMDAT

; 213  : const UINT RMSG_CHANGE_SKINCOLOR = ::RegisterWindowMessage(_T("RMSG_CHANGE_SKINCOLOR"));

  00000	68 00 00 00 00	 push	 OFFSET ??_C@_0BG@CNPAHNGG@RMSG_CHANGE_SKINCOLOR@
  00005	ff 15 00 00 00
	00		 call	 DWORD PTR __imp__RegisterWindowMessageA@4
  0000b	a3 00 00 00 00	 mov	 DWORD PTR ?RMSG_CHANGE_SKINCOLOR@@3IB, eax
  00010	c3		 ret	 0
??__ERMSG_CHANGE_SKINCOLOR@@YAXXZ ENDP			; `dynamic initializer for 'RMSG_CHANGE_SKINCOLOR''
text$di	ENDS
; Function compile flags: /Ogtp
; File D:\git\src\IBK\IBK_DRFN\ProjSrc\SrcDrfn\Chart\comparechart\define\ChartMsgDef.h
;	COMDAT ??__ERMSG_GETINFO@@YAXXZ
text$di	SEGMENT
??__ERMSG_GETINFO@@YAXXZ PROC				; `dynamic initializer for 'RMSG_GETINFO'', COMDAT

; 204  : const UINT RMSG_GETINFO = ::RegisterWindowMessage(_T("RMSG_GETINFO"));

  00000	68 00 00 00 00	 push	 OFFSET ??_C@_0N@IIOKMIEH@RMSG_GETINFO@
  00005	ff 15 00 00 00
	00		 call	 DWORD PTR __imp__RegisterWindowMessageA@4
  0000b	a3 00 00 00 00	 mov	 DWORD PTR ?RMSG_GETINFO@@3IB, eax
  00010	c3		 ret	 0
??__ERMSG_GETINFO@@YAXXZ ENDP				; `dynamic initializer for 'RMSG_GETINFO''
text$di	ENDS
; Function compile flags: /Ogtp
; File D:\git\src\IBK\IBK_DRFN\ProjSrc\SrcDrfn\Chart\comparechart\define\ChartMsgDef.h
;	COMDAT ??__ERMSG_KSDLLINFO@@YAXXZ
text$di	SEGMENT
??__ERMSG_KSDLLINFO@@YAXXZ PROC				; `dynamic initializer for 'RMSG_KSDLLINFO'', COMDAT

; 203  : const UINT RMSG_KSDLLINFO = ::RegisterWindowMessage(_T("RMSG_KSDLLINFO"));		// TrmCompCharView에게 정보얻기

  00000	68 00 00 00 00	 push	 OFFSET ??_C@_0P@LFDACNFE@RMSG_KSDLLINFO@
  00005	ff 15 00 00 00
	00		 call	 DWORD PTR __imp__RegisterWindowMessageA@4
  0000b	a3 00 00 00 00	 mov	 DWORD PTR ?RMSG_KSDLLINFO@@3IB, eax
  00010	c3		 ret	 0
??__ERMSG_KSDLLINFO@@YAXXZ ENDP				; `dynamic initializer for 'RMSG_KSDLLINFO''
text$di	ENDS
; Function compile flags: /Ogtp
; File D:\git\src\IBK\IBK_DRFN\ProjSrc\SrcDrfn\Chart\comparechart\define\ChartMsgDef.h
;	COMDAT ??__ERMSG_GET_USERID@@YAXXZ
text$di	SEGMENT
??__ERMSG_GET_USERID@@YAXXZ PROC			; `dynamic initializer for 'RMSG_GET_USERID'', COMDAT

; 200  : const UINT RMSG_GET_USERID = ::RegisterWindowMessage(_T("RMSG_GET_USERID"));	// User ID 얻기

  00000	68 00 00 00 00	 push	 OFFSET ??_C@_0BA@HKNFENJL@RMSG_GET_USERID@
  00005	ff 15 00 00 00
	00		 call	 DWORD PTR __imp__RegisterWindowMessageA@4
  0000b	a3 00 00 00 00	 mov	 DWORD PTR ?RMSG_GET_USERID@@3IB, eax
  00010	c3		 ret	 0
??__ERMSG_GET_USERID@@YAXXZ ENDP			; `dynamic initializer for 'RMSG_GET_USERID''
text$di	ENDS
; Function compile flags: /Ogtp
; File D:\git\src\IBK\IBK_DRFN\ProjSrc\SrcDrfn\Chart\comparechart\define\ChartMsgDef.h
;	COMDAT ??__ERMS_ANALYSIS_FUNC@@YAXXZ
text$di	SEGMENT
??__ERMS_ANALYSIS_FUNC@@YAXXZ PROC			; `dynamic initializer for 'RMS_ANALYSIS_FUNC'', COMDAT

; 196  : const UINT RMS_ANALYSIS_FUNC	= ::RegisterWindowMessage(_T("RMS_ANALYSIS_FUNC"));

  00000	68 00 00 00 00	 push	 OFFSET ??_C@_0BC@MMPGLPDH@RMS_ANALYSIS_FUNC@
  00005	ff 15 00 00 00
	00		 call	 DWORD PTR __imp__RegisterWindowMessageA@4
  0000b	a3 00 00 00 00	 mov	 DWORD PTR ?RMS_ANALYSIS_FUNC@@3IB, eax
  00010	c3		 ret	 0
??__ERMS_ANALYSIS_FUNC@@YAXXZ ENDP			; `dynamic initializer for 'RMS_ANALYSIS_FUNC''
text$di	ENDS
; Function compile flags: /Ogtp
; File D:\git\src\IBK\IBK_DRFN\ProjSrc\SrcDrfn\Chart\comparechart\define\ChartMsgDef.h
;	COMDAT ??__ERMSG_CHARTMAIN@@YAXXZ
text$di	SEGMENT
??__ERMSG_CHARTMAIN@@YAXXZ PROC				; `dynamic initializer for 'RMSG_CHARTMAIN'', COMDAT

; 193  : const UINT RMSG_CHARTMAIN		= ::RegisterWindowMessage(_T("RMSG_CHARTMAIN"));

  00000	68 00 00 00 00	 push	 OFFSET ??_C@_0P@KHFCBIOH@RMSG_CHARTMAIN@
  00005	ff 15 00 00 00
	00		 call	 DWORD PTR __imp__RegisterWindowMessageA@4
  0000b	a3 00 00 00 00	 mov	 DWORD PTR ?RMSG_CHARTMAIN@@3IB, eax
  00010	c3		 ret	 0
??__ERMSG_CHARTMAIN@@YAXXZ ENDP				; `dynamic initializer for 'RMSG_CHARTMAIN''
text$di	ENDS
; Function compile flags: /Ogtp
; File D:\git\src\IBK\IBK_DRFN\ProjSrc\SrcDrfn\Chart\commontr\TRDefine.h
;	COMDAT ??__ERMSG_GETSIGNAL_REAL@@YAXXZ
text$di	SEGMENT
??__ERMSG_GETSIGNAL_REAL@@YAXXZ PROC			; `dynamic initializer for 'RMSG_GETSIGNAL_REAL'', COMDAT

; 213  : const UINT RMSG_GETSIGNAL_REAL = ::RegisterWindowMessage(_T("RMSG_GETSIGNAL_REAL"));

  00000	68 00 00 00 00	 push	 OFFSET ??_C@_0BE@FJPKENOB@RMSG_GETSIGNAL_REAL@
  00005	ff 15 00 00 00
	00		 call	 DWORD PTR __imp__RegisterWindowMessageA@4
  0000b	a3 00 00 00 00	 mov	 DWORD PTR ?RMSG_GETSIGNAL_REAL@@3IB, eax
  00010	c3		 ret	 0
??__ERMSG_GETSIGNAL_REAL@@YAXXZ ENDP			; `dynamic initializer for 'RMSG_GETSIGNAL_REAL''
text$di	ENDS
; Function compile flags: /Ogtp
; File D:\git\src\IBK\IBK_DRFN\ProjSrc\SrcDrfn\Chart\chart_common\ReplayChartInfoDef.h
;	COMDAT ??__ERMSG_REPLAY_TOTAL_SEC@@YAXXZ
text$di	SEGMENT
??__ERMSG_REPLAY_TOTAL_SEC@@YAXXZ PROC			; `dynamic initializer for 'RMSG_REPLAY_TOTAL_SEC'', COMDAT

; 97   : 	const UINT RMSG_REPLAY_TOTAL_SEC = ::RegisterWindowMessage(_T("RMSG_REPLAY_TOTAL_SEC"));		// 전체 시간(초단위)를 전송

  00000	68 00 00 00 00	 push	 OFFSET ??_C@_0BG@GIAJEIJF@RMSG_REPLAY_TOTAL_SEC@
  00005	ff 15 00 00 00
	00		 call	 DWORD PTR __imp__RegisterWindowMessageA@4
  0000b	a3 00 00 00 00	 mov	 DWORD PTR ?RMSG_REPLAY_TOTAL_SEC@@3IB, eax
  00010	c3		 ret	 0
??__ERMSG_REPLAY_TOTAL_SEC@@YAXXZ ENDP			; `dynamic initializer for 'RMSG_REPLAY_TOTAL_SEC''
text$di	ENDS
; Function compile flags: /Ogtp
; File D:\git\src\IBK\IBK_DRFN\ProjSrc\SrcDrfn\Chart\chart_common\ReplayChartInfoDef.h
;	COMDAT ??__ERMSG_REPLAY_INC_SEC@@YAXXZ
text$di	SEGMENT
??__ERMSG_REPLAY_INC_SEC@@YAXXZ PROC			; `dynamic initializer for 'RMSG_REPLAY_INC_SEC'', COMDAT

; 96   : 	const UINT RMSG_REPLAY_INC_SEC = ::RegisterWindowMessage(_T("RMSG_REPLAY_INC_SEC"));			// 1초가 증가 될때마다 전송

  00000	68 00 00 00 00	 push	 OFFSET ??_C@_0BE@JFCIMCIP@RMSG_REPLAY_INC_SEC@
  00005	ff 15 00 00 00
	00		 call	 DWORD PTR __imp__RegisterWindowMessageA@4
  0000b	a3 00 00 00 00	 mov	 DWORD PTR ?RMSG_REPLAY_INC_SEC@@3IB, eax
  00010	c3		 ret	 0
??__ERMSG_REPLAY_INC_SEC@@YAXXZ ENDP			; `dynamic initializer for 'RMSG_REPLAY_INC_SEC''
text$di	ENDS
; Function compile flags: /Ogtp
; File D:\git\src\IBK\IBK_DRFN\ProjSrc\SrcDrfn\Chart\chart_common\ReplayChartInfoDef.h
;	COMDAT ??__ERMSG_REPLAY_END@@YAXXZ
text$di	SEGMENT
??__ERMSG_REPLAY_END@@YAXXZ PROC			; `dynamic initializer for 'RMSG_REPLAY_END'', COMDAT

; 95   : 	const UINT RMSG_REPLAY_END			= ::RegisterWindowMessage(_T("RMSG_REPLAY_END"));

  00000	68 00 00 00 00	 push	 OFFSET ??_C@_0BA@NKHHCPON@RMSG_REPLAY_END@
  00005	ff 15 00 00 00
	00		 call	 DWORD PTR __imp__RegisterWindowMessageA@4
  0000b	a3 00 00 00 00	 mov	 DWORD PTR ?RMSG_REPLAY_END@@3IB, eax
  00010	c3		 ret	 0
??__ERMSG_REPLAY_END@@YAXXZ ENDP			; `dynamic initializer for 'RMSG_REPLAY_END''
text$di	ENDS
; Function compile flags: /Ogtp
; File D:\git\src\IBK\IBK_DRFN\ProjSrc\SrcDrfn\Chart\chart_common\ReplayChartInfoDef.h
;	COMDAT ??__ERMSG_REPLAY_CHANGE_DATE@@YAXXZ
text$di	SEGMENT
??__ERMSG_REPLAY_CHANGE_DATE@@YAXXZ PROC		; `dynamic initializer for 'RMSG_REPLAY_CHANGE_DATE'', COMDAT

; 94   : 	const UINT RMSG_REPLAY_CHANGE_DATE	= ::RegisterWindowMessage(_T("RMSG_REPLAY_CHANGE_DATE"));

  00000	68 00 00 00 00	 push	 OFFSET ??_C@_0BI@KDGAIIMD@RMSG_REPLAY_CHANGE_DATE@
  00005	ff 15 00 00 00
	00		 call	 DWORD PTR __imp__RegisterWindowMessageA@4
  0000b	a3 00 00 00 00	 mov	 DWORD PTR ?RMSG_REPLAY_CHANGE_DATE@@3IB, eax
  00010	c3		 ret	 0
??__ERMSG_REPLAY_CHANGE_DATE@@YAXXZ ENDP		; `dynamic initializer for 'RMSG_REPLAY_CHANGE_DATE''
text$di	ENDS
; Function compile flags: /Ogtp
; File D:\git\src\IBK\IBK_DRFN\ProjSrc\SrcDrfn\Chart\chart_common\ReplayChartInfoDef.h
;	COMDAT ??__ERMSG_REPLAY_FAIL@@YAXXZ
text$di	SEGMENT
??__ERMSG_REPLAY_FAIL@@YAXXZ PROC			; `dynamic initializer for 'RMSG_REPLAY_FAIL'', COMDAT

; 93   : 	const UINT RMSG_REPLAY_FAIL			= ::RegisterWindowMessage(_T("RMSG_REPLAY_FAIL"));

  00000	68 00 00 00 00	 push	 OFFSET ??_C@_0BB@JFLGBADG@RMSG_REPLAY_FAIL@
  00005	ff 15 00 00 00
	00		 call	 DWORD PTR __imp__RegisterWindowMessageA@4
  0000b	a3 00 00 00 00	 mov	 DWORD PTR ?RMSG_REPLAY_FAIL@@3IB, eax
  00010	c3		 ret	 0
??__ERMSG_REPLAY_FAIL@@YAXXZ ENDP			; `dynamic initializer for 'RMSG_REPLAY_FAIL''
text$di	ENDS
; Function compile flags: /Ogtp
; File D:\git\src\IBK\IBK_DRFN\ProjSrc\SrcDrfn\Chart\chart_common\ReplayChartInfoDef.h
;	COMDAT ??__ERMSG_REPLAY_REAL@@YAXXZ
text$di	SEGMENT
??__ERMSG_REPLAY_REAL@@YAXXZ PROC			; `dynamic initializer for 'RMSG_REPLAY_REAL'', COMDAT

; 92   : 	const UINT RMSG_REPLAY_REAL			= ::RegisterWindowMessage(_T("RMSG_REPLAY_REAL"));

  00000	68 00 00 00 00	 push	 OFFSET ??_C@_0BB@IBKHOHJL@RMSG_REPLAY_REAL@
  00005	ff 15 00 00 00
	00		 call	 DWORD PTR __imp__RegisterWindowMessageA@4
  0000b	a3 00 00 00 00	 mov	 DWORD PTR ?RMSG_REPLAY_REAL@@3IB, eax
  00010	c3		 ret	 0
??__ERMSG_REPLAY_REAL@@YAXXZ ENDP			; `dynamic initializer for 'RMSG_REPLAY_REAL''
text$di	ENDS
; Function compile flags: /Ogtp
; File C:\Program Files (x86)\Microsoft Visual Studio\2019\Community\VC\Tools\MSVC\14.29.30133\atlmfc\include\afx.inl
;	COMDAT ?_AfxInitManaged@@YAHXZ
_TEXT	SEGMENT
?_AfxInitManaged@@YAHXZ PROC				; _AfxInitManaged, COMDAT

; 87   : 	return 0;

  00000	33 c0		 xor	 eax, eax

; 88   : }

  00002	c3		 ret	 0
?_AfxInitManaged@@YAHXZ ENDP				; _AfxInitManaged
_TEXT	ENDS
; Function compile flags: /Ogtp
; File D:\git\src\IBK\IBK_DRFN\ProjSrc\SrcDrfn\Chart\comparechart\StdDialogPartnerSite.cpp
;	COMDAT ?__empty_global_delete@@YAXPAXI@Z
_TEXT	SEGMENT
___formal$ = 8						; size = 4
___formal$ = 12						; size = 4
?__empty_global_delete@@YAXPAXI@Z PROC			; __empty_global_delete, COMDAT

  00000	c2 00 00	 ret	 0
?__empty_global_delete@@YAXPAXI@Z ENDP			; __empty_global_delete
_TEXT	ENDS
; Function compile flags: /Ogtp
; File D:\git\src\IBK\IBK_DRFN\ProjSrc\SrcDrfn\Chart\comparechart\StdDialogPartnerSite.cpp
;	COMDAT ?__empty_global_delete@@YAXPAX@Z
_TEXT	SEGMENT
___formal$ = 8						; size = 4
?__empty_global_delete@@YAXPAX@Z PROC			; __empty_global_delete, COMDAT

  00000	c2 00 00	 ret	 0
?__empty_global_delete@@YAXPAX@Z ENDP			; __empty_global_delete
_TEXT	ENDS
END
