; Listing generated by Microsoft (R) Optimizing Compiler Version 19.29.30148.0 

	TITLE	D:\git\src\IBK\IBK_DRFN\#DRfn-CS\_Obj\CompareChart\TabCodeSearchFO.obj
	.686P
	.XMM
	include listing.inc
	.model	flat

INCLUDELIB MSVCRT
INCLUDELIB OLDNAMES

PUBLIC	??_C@_0BE@FJPKENOB@RMSG_GETSIGNAL_REAL@		; `string'
PUBLIC	??_C@_0P@KHFCBIOH@RMSG_CHARTMAIN@		; `string'
PUBLIC	??_C@_0BC@MMPGLPDH@RMS_ANALYSIS_FUNC@		; `string'
PUBLIC	??_C@_0BA@HKNFENJL@RMSG_GET_USERID@		; `string'
PUBLIC	??_C@_0P@LFDACNFE@RMSG_KSDLLINFO@		; `string'
PUBLIC	??_C@_0N@IIOKMIEH@RMSG_GETINFO@			; `string'
PUBLIC	??_C@_0BG@CNPAHNGG@RMSG_CHANGE_SKINCOLOR@	; `string'
PUBLIC	??_C@_0BD@FLDNDDHK@RMSG_GET_SKINCOLOR@		; `string'
PUBLIC	??_C@_0BG@LNLCJKPF@RMSG_CHANGE_CROSSLINE@	; `string'
PUBLIC	??_C@_0BB@GOOPDKI@RMSG_GETPCTRDATA@		; `string'
PUBLIC	??_C@_0BC@LHNMEPFM@RMSG_SELCHARTCODE@		; `string'
PUBLIC	??_C@_0BB@IBKHOHJL@RMSG_REPLAY_REAL@		; `string'
PUBLIC	??_C@_0BB@JFLGBADG@RMSG_REPLAY_FAIL@		; `string'
PUBLIC	??_C@_0BI@KDGAIIMD@RMSG_REPLAY_CHANGE_DATE@	; `string'
PUBLIC	??_C@_0BA@NKHHCPON@RMSG_REPLAY_END@		; `string'
PUBLIC	??_C@_0BE@JFCIMCIP@RMSG_REPLAY_INC_SEC@		; `string'
PUBLIC	??_C@_0BG@GIAJEIJF@RMSG_REPLAY_TOTAL_SEC@	; `string'
;	COMDAT ??_C@_0BG@GIAJEIJF@RMSG_REPLAY_TOTAL_SEC@
CONST	SEGMENT
??_C@_0BG@GIAJEIJF@RMSG_REPLAY_TOTAL_SEC@ DB 'RMSG_REPLAY_TOTAL_SEC', 00H ; `string'
CONST	ENDS
;	COMDAT ??_C@_0BE@JFCIMCIP@RMSG_REPLAY_INC_SEC@
CONST	SEGMENT
??_C@_0BE@JFCIMCIP@RMSG_REPLAY_INC_SEC@ DB 'RMSG_REPLAY_INC_SEC', 00H ; `string'
CONST	ENDS
;	COMDAT ??_C@_0BA@NKHHCPON@RMSG_REPLAY_END@
CONST	SEGMENT
??_C@_0BA@NKHHCPON@RMSG_REPLAY_END@ DB 'RMSG_REPLAY_END', 00H ; `string'
CONST	ENDS
;	COMDAT ??_C@_0BI@KDGAIIMD@RMSG_REPLAY_CHANGE_DATE@
CONST	SEGMENT
??_C@_0BI@KDGAIIMD@RMSG_REPLAY_CHANGE_DATE@ DB 'RMSG_REPLAY_CHANGE_DATE', 00H ; `string'
CONST	ENDS
;	COMDAT ??_C@_0BB@JFLGBADG@RMSG_REPLAY_FAIL@
CONST	SEGMENT
??_C@_0BB@JFLGBADG@RMSG_REPLAY_FAIL@ DB 'RMSG_REPLAY_FAIL', 00H ; `string'
CONST	ENDS
;	COMDAT ??_C@_0BB@IBKHOHJL@RMSG_REPLAY_REAL@
CONST	SEGMENT
??_C@_0BB@IBKHOHJL@RMSG_REPLAY_REAL@ DB 'RMSG_REPLAY_REAL', 00H ; `string'
CONST	ENDS
;	COMDAT ??_C@_0BC@LHNMEPFM@RMSG_SELCHARTCODE@
CONST	SEGMENT
??_C@_0BC@LHNMEPFM@RMSG_SELCHARTCODE@ DB 'RMSG_SELCHARTCODE', 00H ; `string'
CONST	ENDS
;	COMDAT ??_C@_0BB@GOOPDKI@RMSG_GETPCTRDATA@
CONST	SEGMENT
??_C@_0BB@GOOPDKI@RMSG_GETPCTRDATA@ DB 'RMSG_GETPCTRDATA', 00H ; `string'
CONST	ENDS
;	COMDAT ??_C@_0BG@LNLCJKPF@RMSG_CHANGE_CROSSLINE@
CONST	SEGMENT
??_C@_0BG@LNLCJKPF@RMSG_CHANGE_CROSSLINE@ DB 'RMSG_CHANGE_CROSSLINE', 00H ; `string'
CONST	ENDS
;	COMDAT ??_C@_0BD@FLDNDDHK@RMSG_GET_SKINCOLOR@
CONST	SEGMENT
??_C@_0BD@FLDNDDHK@RMSG_GET_SKINCOLOR@ DB 'RMSG_GET_SKINCOLOR', 00H ; `string'
CONST	ENDS
;	COMDAT ??_C@_0BG@CNPAHNGG@RMSG_CHANGE_SKINCOLOR@
CONST	SEGMENT
??_C@_0BG@CNPAHNGG@RMSG_CHANGE_SKINCOLOR@ DB 'RMSG_CHANGE_SKINCOLOR', 00H ; `string'
CONST	ENDS
;	COMDAT ??_C@_0N@IIOKMIEH@RMSG_GETINFO@
CONST	SEGMENT
??_C@_0N@IIOKMIEH@RMSG_GETINFO@ DB 'RMSG_GETINFO', 00H	; `string'
CONST	ENDS
;	COMDAT ??_C@_0P@LFDACNFE@RMSG_KSDLLINFO@
CONST	SEGMENT
??_C@_0P@LFDACNFE@RMSG_KSDLLINFO@ DB 'RMSG_KSDLLINFO', 00H ; `string'
CONST	ENDS
;	COMDAT ??_C@_0BA@HKNFENJL@RMSG_GET_USERID@
CONST	SEGMENT
??_C@_0BA@HKNFENJL@RMSG_GET_USERID@ DB 'RMSG_GET_USERID', 00H ; `string'
CONST	ENDS
;	COMDAT ??_C@_0BC@MMPGLPDH@RMS_ANALYSIS_FUNC@
CONST	SEGMENT
??_C@_0BC@MMPGLPDH@RMS_ANALYSIS_FUNC@ DB 'RMS_ANALYSIS_FUNC', 00H ; `string'
CONST	ENDS
;	COMDAT ??_C@_0P@KHFCBIOH@RMSG_CHARTMAIN@
CONST	SEGMENT
??_C@_0P@KHFCBIOH@RMSG_CHARTMAIN@ DB 'RMSG_CHARTMAIN', 00H ; `string'
CONST	ENDS
;	COMDAT ??_C@_0BE@FJPKENOB@RMSG_GETSIGNAL_REAL@
CONST	SEGMENT
??_C@_0BE@FJPKENOB@RMSG_GETSIGNAL_REAL@ DB 'RMSG_GETSIGNAL_REAL', 00H ; `string'
CONST	ENDS
PUBLIC	??_H@YGXPAXIIP6EPAX0@Z@Z			; `vector constructor iterator'
PUBLIC	?__empty_global_delete@@YAXPAX@Z		; __empty_global_delete
PUBLIC	?__empty_global_delete@@YAXPAXI@Z		; __empty_global_delete
PUBLIC	___local_stdio_scanf_options
PUBLIC	_sscanf
PUBLIC	??1CObject@@UAE@XZ				; CObject::~CObject
PUBLIC	??3CObject@@SGXPAX@Z				; CObject::operator delete
PUBLIC	?Serialize@CObject@@UAEXAAVCArchive@@@Z		; CObject::Serialize
PUBLIC	?AssertValid@CObject@@UBEXXZ			; CObject::AssertValid
PUBLIC	?Dump@CObject@@UBEXAAVCDumpContext@@@Z		; CObject::Dump
PUBLIC	?_AfxInitManaged@@YAHXZ				; _AfxInitManaged
PUBLIC	?DoDataExchange@CWnd@@MAEXPAVCDataExchange@@@Z	; CWnd::DoDataExchange
PUBLIC	?BeginModalState@CWnd@@UAEXXZ			; CWnd::BeginModalState
PUBLIC	?EndModalState@CWnd@@UAEXXZ			; CWnd::EndModalState
PUBLIC	??_GCButton@@UAEPAXI@Z				; CButton::`scalar deleting destructor'
PUBLIC	??_GCListBox@@UAEPAXI@Z				; CListBox::`scalar deleting destructor'
PUBLIC	?GetCurSel@CComboBox@@QBEHXZ			; CComboBox::GetCurSel
PUBLIC	?SetBkColor@CRscDlg@@UAEXK@Z			; CRscDlg::SetBkColor
PUBLIC	?ReceiveData@CTabDlg@@UAEXPAUHWND__@@PBD11PAXJ@Z ; CTabDlg::ReceiveData
PUBLIC	?SetRealPriceData@CTabDlg@@UAEXPAX@Z		; CTabDlg::SetRealPriceData
PUBLIC	?ReceiveDataFromOutSide@CTabDlg@@UAEXXZ		; CTabDlg::ReceiveDataFromOutSide
PUBLIC	?SetCodeFromOutSide@CTabDlg@@UAEXPBD@Z		; CTabDlg::SetCodeFromOutSide
PUBLIC	??1_GV_ITEM@@QAE@XZ				; _GV_ITEM::~_GV_ITEM
PUBLIC	??0_codeinfo@@QAE@XZ				; _codeinfo::_codeinfo
PUBLIC	??0CTabCodeSearchFO@@QAE@PAVCWnd@@@Z		; CTabCodeSearchFO::CTabCodeSearchFO
PUBLIC	??0?$CList@U_codeinfo@@AAU1@@@QAE@H@Z		; CList<_codeinfo,_codeinfo &>::CList<_codeinfo,_codeinfo &>
PUBLIC	?AddTail@?$CList@U_codeinfo@@AAU1@@@QAEPAU__POSITION@@AAU_codeinfo@@@Z ; CList<_codeinfo,_codeinfo &>::AddTail
PUBLIC	?RemoveAll@?$CList@U_codeinfo@@AAU1@@@QAEXXZ	; CList<_codeinfo,_codeinfo &>::RemoveAll
PUBLIC	?NewNode@?$CList@U_codeinfo@@AAU1@@@IAEPAUCNode@1@PAU21@0@Z ; CList<_codeinfo,_codeinfo &>::NewNode
PUBLIC	??1?$CList@U_codeinfo@@AAU1@@@UAE@XZ		; CList<_codeinfo,_codeinfo &>::~CList<_codeinfo,_codeinfo &>
PUBLIC	?Serialize@?$CList@U_codeinfo@@AAU1@@@UAEXAAVCArchive@@@Z ; CList<_codeinfo,_codeinfo &>::Serialize
PUBLIC	??_G?$CList@U_codeinfo@@AAU1@@@UAEPAXI@Z	; CList<_codeinfo,_codeinfo &>::`scalar deleting destructor'
PUBLIC	?DoDataExchange@CTabCodeSearchFO@@MAEXPAVCDataExchange@@@Z ; CTabCodeSearchFO::DoDataExchange
PUBLIC	?WindowProc@CTabCodeSearchFO@@MAEJIIJ@Z		; CTabCodeSearchFO::WindowProc
PUBLIC	?GetRectOfCtrl@CTabCodeSearchFO@@UAE?AVCRect@@HH@Z ; CTabCodeSearchFO::GetRectOfCtrl
PUBLIC	?RecalcLayout@CTabCodeSearchFO@@QAEXXZ		; CTabCodeSearchFO::RecalcLayout
PUBLIC	?InitGrid@CTabCodeSearchFO@@QAEXXZ		; CTabCodeSearchFO::InitGrid
PUBLIC	?InitGridRowCol@CTabCodeSearchFO@@QAEXXZ	; CTabCodeSearchFO::InitGridRowCol
PUBLIC	?ChangeGridRowCol@CTabCodeSearchFO@@QAEXXZ	; CTabCodeSearchFO::ChangeGridRowCol
PUBLIC	?InsertGridData@CTabCodeSearchFO@@QAEXXZ	; CTabCodeSearchFO::InsertGridData
PUBLIC	?InsertMasterData@CTabCodeSearchFO@@QAEXH@Z	; CTabCodeSearchFO::InsertMasterData
PUBLIC	?GetInsertGridDataText@CTabCodeSearchFO@@QAE?AV?$CStringT@DV?$StrTraitMFC_DLL@DV?$ChTraitsCRT@D@ATL@@@@@ATL@@HH@Z ; CTabCodeSearchFO::GetInsertGridDataText
PUBLIC	?InitMasterData@CTabCodeSearchFO@@QAEHXZ	; CTabCodeSearchFO::InitMasterData
PUBLIC	?GetGridRow@CTabCodeSearchFO@@QAEHH@Z		; CTabCodeSearchFO::GetGridRow
PUBLIC	?GetGridExercise@CTabCodeSearchFO@@QAEHH@Z	; CTabCodeSearchFO::GetGridExercise
PUBLIC	?UpdateHogaData@CTabCodeSearchFO@@QAEXHHNKH@Z	; CTabCodeSearchFO::UpdateHogaData
PUBLIC	?GetRealExercise@CTabCodeSearchFO@@QAEJH@Z	; CTabCodeSearchFO::GetRealExercise
PUBLIC	?GetCodeInfo@CTabCodeSearchFO@@QAEHHAAH0AAV?$CStringT@DV?$StrTraitMFC_DLL@DV?$ChTraitsCRT@D@ATL@@@@@ATL@@@Z ; CTabCodeSearchFO::GetCodeInfo
PUBLIC	?OnSize@CTabCodeSearchFO@@IAEXIHH@Z		; CTabCodeSearchFO::OnSize
PUBLIC	?OnInitDialog@CTabCodeSearchFO@@MAEHXZ		; CTabCodeSearchFO::OnInitDialog
PUBLIC	?OnDestroy@CTabCodeSearchFO@@IAEXXZ		; CTabCodeSearchFO::OnDestroy
PUBLIC	?OnEditchangeComboMonth@CTabCodeSearchFO@@IAEXXZ ; CTabCodeSearchFO::OnEditchangeComboMonth
PUBLIC	?OnSelchangeComboMonth@CTabCodeSearchFO@@IAEXXZ	; CTabCodeSearchFO::OnSelchangeComboMonth
PUBLIC	?OnSelchangeComboFO@CTabCodeSearchFO@@IAEXXZ	; CTabCodeSearchFO::OnSelchangeComboFO
PUBLIC	?OnCtlColor@CTabCodeSearchFO@@IAEPAUHBRUSH__@@PAVCDC@@PAVCWnd@@I@Z ; CTabCodeSearchFO::OnCtlColor
PUBLIC	?OnSelchangeListFuture@CTabCodeSearchFO@@IAEXXZ	; CTabCodeSearchFO::OnSelchangeListFuture
PUBLIC	?OnDblclkListFuture@CTabCodeSearchFO@@IAEXXZ	; CTabCodeSearchFO::OnDblclkListFuture
PUBLIC	?OnClickRadioKospi200@CTabCodeSearchFO@@IAEXXZ	; CTabCodeSearchFO::OnClickRadioKospi200
PUBLIC	?OnClickRadioMiniKospi@CTabCodeSearchFO@@IAEXXZ	; CTabCodeSearchFO::OnClickRadioMiniKospi
PUBLIC	?OnClickRadioWeeklyKospi@CTabCodeSearchFO@@IAEXXZ ; CTabCodeSearchFO::OnClickRadioWeeklyKospi
PUBLIC	?GetThisMessageMap@CTabCodeSearchFO@@KGPBUAFX_MSGMAP@@XZ ; CTabCodeSearchFO::GetThisMessageMap
PUBLIC	?GetMessageMap@CTabCodeSearchFO@@MBEPBUAFX_MSGMAP@@XZ ; CTabCodeSearchFO::GetMessageMap
PUBLIC	??_GCTabCodeSearchFO@@UAEPAXI@Z			; CTabCodeSearchFO::`scalar deleting destructor'
PUBLIC	?CompareFileName@@YAHPBX0@Z			; CompareFileName
PUBLIC	?SortFileName@@YAXAAVCStringArray@@@Z		; SortFileName
PUBLIC	??$SerializeElements@U_codeinfo@@@@YGXAAVCArchive@@PAU_codeinfo@@H@Z ; SerializeElements<_codeinfo>
PUBLIC	?_OptionsStorage@?1??__local_stdio_scanf_options@@9@4_KA ; `__local_stdio_scanf_options'::`2'::_OptionsStorage
PUBLIC	??_C@_01PLPBNMEI@M@				; `string'
PUBLIC	??_C@_00CNPNBAHC@@				; `string'
PUBLIC	??_7CButton@@6B@				; CButton::`vftable'
PUBLIC	??_7CListBox@@6B@				; CListBox::`vftable'
PUBLIC	??_C@_0M@CBBNGGHM@PcTrMng?4dll@			; `string'
PUBLIC	??_C@_0P@IDMAJEGN@HANAROPCTRMAIN@		; `string'
PUBLIC	??_C@_06NDLAHCHE@?$CFs?$CF08X@			; `string'
PUBLIC	??_C@_02EMFKHFLK@?$CFX@				; `string'
PUBLIC	??_R0?AVCObject@@@8				; CObject `RTTI Type Descriptor'
PUBLIC	??_R3CObject@@8					; CObject::`RTTI Class Hierarchy Descriptor'
PUBLIC	??_R2CObject@@8					; CObject::`RTTI Base Class Array'
PUBLIC	??_R1A@?0A@EA@CObject@@8			; CObject::`RTTI Base Class Descriptor at (0,-1,0,64)'
PUBLIC	??_R1A@?0A@EA@CWnd@@8				; CWnd::`RTTI Base Class Descriptor at (0,-1,0,64)'
PUBLIC	??_R0?AVCWnd@@@8				; CWnd `RTTI Type Descriptor'
PUBLIC	??_R3CWnd@@8					; CWnd::`RTTI Class Hierarchy Descriptor'
PUBLIC	??_R2CWnd@@8					; CWnd::`RTTI Base Class Array'
PUBLIC	??_R1A@?0A@EA@CCmdTarget@@8			; CCmdTarget::`RTTI Base Class Descriptor at (0,-1,0,64)'
PUBLIC	??_R0?AVCCmdTarget@@@8				; CCmdTarget `RTTI Type Descriptor'
PUBLIC	??_R3CCmdTarget@@8				; CCmdTarget::`RTTI Class Hierarchy Descriptor'
PUBLIC	??_R2CCmdTarget@@8				; CCmdTarget::`RTTI Base Class Array'
PUBLIC	??_R4CButton@@6B@				; CButton::`RTTI Complete Object Locator'
PUBLIC	??_R0?AVCButton@@@8				; CButton `RTTI Type Descriptor'
PUBLIC	??_R3CButton@@8					; CButton::`RTTI Class Hierarchy Descriptor'
PUBLIC	??_R2CButton@@8					; CButton::`RTTI Base Class Array'
PUBLIC	??_R1A@?0A@EA@CButton@@8			; CButton::`RTTI Base Class Descriptor at (0,-1,0,64)'
PUBLIC	??_R4CListBox@@6B@				; CListBox::`RTTI Complete Object Locator'
PUBLIC	??_R0?AVCListBox@@@8				; CListBox `RTTI Type Descriptor'
PUBLIC	??_R3CListBox@@8				; CListBox::`RTTI Class Hierarchy Descriptor'
PUBLIC	??_R2CListBox@@8				; CListBox::`RTTI Base Class Array'
PUBLIC	??_R1A@?0A@EA@CListBox@@8			; CListBox::`RTTI Base Class Descriptor at (0,-1,0,64)'
PUBLIC	??_R1A@?0A@EA@CDialog@@8			; CDialog::`RTTI Base Class Descriptor at (0,-1,0,64)'
PUBLIC	??_R0?AVCDialog@@@8				; CDialog `RTTI Type Descriptor'
PUBLIC	??_R3CDialog@@8					; CDialog::`RTTI Class Hierarchy Descriptor'
PUBLIC	??_R2CDialog@@8					; CDialog::`RTTI Base Class Array'
PUBLIC	??_7?$CList@U_codeinfo@@AAU1@@@6B@		; CList<_codeinfo,_codeinfo &>::`vftable'
PUBLIC	??_7CTabCodeSearchFO@@6B@			; CTabCodeSearchFO::`vftable'
PUBLIC	??_C@_08FPNDIEGG@KOSPI200@			; `string'
PUBLIC	??_C@_0L@IANMHGBM@M?5KOSPI200@			; `string'
PUBLIC	??_C@_0L@MMIFOKFD@W?5KOSPI200@			; `string'
PUBLIC	??_R0PAVCMemoryException@@@8			; CMemoryException * `RTTI Type Descriptor'
PUBLIC	??_C@_06CDJAKJDK@?G?$OA?$LL?g?$LA?$KB@		; `string'
PUBLIC	??_C@_02KCIOKDCD@?D?$NN@			; `string'
PUBLIC	??_C@_02ECKNGKBC@?G?$LC@			; `string'
PUBLIC	??_C@_04IPMECLBL@?$CFd?$LP?y@			; `string'
PUBLIC	??_C@_0P@JIBKHGJJ@master?2atm?4dat@		; `string'
PUBLIC	??_C@_05BMGBEOOC@?$CFs?2?$CFs@			; `string'
PUBLIC	??_C@_05BJKOFFGO@PRICE@				; `string'
PUBLIC	??_C@_03NDHBKIJP@ATM@				; `string'
PUBLIC	??_C@_01CLKCMJKC@?5@				; `string'
PUBLIC	??_C@_0BD@CMCCCNBF@HANAROIGATEMANAGER@		; `string'
PUBLIC	??_C@_02NHMFCJJJ@AF@				; `string'
PUBLIC	??_C@_01FHEEJDEE@A@				; `string'
PUBLIC	??_C@_01GFHCPBMG@C@				; `string'
PUBLIC	??_C@_06LDAHLMHO@?$CFd?$CF02d@			; `string'
PUBLIC	??_C@_09JIGINAPD@?$CF02d?4MW?$CFc@		; `string'
PUBLIC	??_C@_08KALJJMOG@?$CF02d?4W?$CFc@		; `string'
PUBLIC	??_C@_04HGGMHPIM@?$CF?4?$CKf@			; `string'
PUBLIC	??_C@_05LMFDOBNM@?$CFs?$HM?$CFs@		; `string'
PUBLIC	??_C@_0BC@EHJNOJGF@?$CF1c?$CF02d?$CF1c?$CF1X?$CF03d@ ; `string'
PUBLIC	??_C@_0O@EHJFFJCN@?$CF1cAF?$CF02s?$CF03d@	; `string'
PUBLIC	??_C@_0BA@MIOHKIAF@?$CF1c?$CF02d?$CF02s?$CF03d@	; `string'
PUBLIC	??_R4CTabCodeSearchFO@@6B@			; CTabCodeSearchFO::`RTTI Complete Object Locator'
PUBLIC	??_R0?AVCTabCodeSearchFO@@@8			; CTabCodeSearchFO `RTTI Type Descriptor'
PUBLIC	??_R3CTabCodeSearchFO@@8			; CTabCodeSearchFO::`RTTI Class Hierarchy Descriptor'
PUBLIC	??_R2CTabCodeSearchFO@@8			; CTabCodeSearchFO::`RTTI Base Class Array'
PUBLIC	??_R1A@?0A@EA@CTabCodeSearchFO@@8		; CTabCodeSearchFO::`RTTI Base Class Descriptor at (0,-1,0,64)'
PUBLIC	??_R1A@?0A@EA@CTabDlg@@8			; CTabDlg::`RTTI Base Class Descriptor at (0,-1,0,64)'
PUBLIC	??_R0?AVCTabDlg@@@8				; CTabDlg `RTTI Type Descriptor'
PUBLIC	??_R3CTabDlg@@8					; CTabDlg::`RTTI Class Hierarchy Descriptor'
PUBLIC	??_R2CTabDlg@@8					; CTabDlg::`RTTI Base Class Array'
PUBLIC	??_R1A@?0A@EA@CRscDlg@@8			; CRscDlg::`RTTI Base Class Descriptor at (0,-1,0,64)'
PUBLIC	??_R0?AVCRscDlg@@@8				; CRscDlg `RTTI Type Descriptor'
PUBLIC	??_R3CRscDlg@@8					; CRscDlg::`RTTI Class Hierarchy Descriptor'
PUBLIC	??_R2CRscDlg@@8					; CRscDlg::`RTTI Base Class Array'
PUBLIC	??_R4?$CList@U_codeinfo@@AAU1@@@6B@		; CList<_codeinfo,_codeinfo &>::`RTTI Complete Object Locator'
PUBLIC	??_R0?AV?$CList@U_codeinfo@@AAU1@@@@8		; CList<_codeinfo,_codeinfo &> `RTTI Type Descriptor'
PUBLIC	??_R3?$CList@U_codeinfo@@AAU1@@@8		; CList<_codeinfo,_codeinfo &>::`RTTI Class Hierarchy Descriptor'
PUBLIC	??_R2?$CList@U_codeinfo@@AAU1@@@8		; CList<_codeinfo,_codeinfo &>::`RTTI Base Class Array'
PUBLIC	??_R1A@?0A@EA@?$CList@U_codeinfo@@AAU1@@@8	; CList<_codeinfo,_codeinfo &>::`RTTI Base Class Descriptor at (0,-1,0,64)'
PUBLIC	__real@4059000000000000
PUBLIC	__xmm@ffffffffffffffffffffffffffffffff
EXTRN	??_L@YGXPAXIIP6EX0@Z1@Z:PROC			; `eh vector constructor iterator'
EXTRN	??_M@YGXPAXIIP6EX0@Z@Z:PROC			; `eh vector destructor iterator'
EXTRN	??2@YAPAXI@Z:PROC				; operator new
EXTRN	??3@YAXPAX@Z:PROC				; operator delete
EXTRN	?__global_delete@@YAXPAXI@Z:PROC		; __global_delete
EXTRN	___std_terminate:PROC
EXTRN	__imp__strncmp:PROC
EXTRN	__imp__strncpy:PROC
EXTRN	__imp__GetEnvironmentVariableA@12:PROC
EXTRN	__imp__GetModuleHandleA@4:PROC
EXTRN	__imp__GetPrivateProfileStringA@24:PROC
EXTRN	__imp__RegisterWindowMessageA@4:PROC
EXTRN	__imp__SendMessageA@16:PROC
EXTRN	__imp__EnableWindow@8:PROC
EXTRN	__imp__GetClientRect@8:PROC
EXTRN	__imp__GetWindowRect@8:PROC
EXTRN	__imp__GetParent@4:PROC
EXTRN	__imp___mbsnbicmp:PROC
EXTRN	__imp____stdio_common_vsscanf:PROC
EXTRN	__imp__qsort:PROC
EXTRN	__imp__atof:PROC
EXTRN	__imp__atoi:PROC
EXTRN	?AfxThrowInvalidArgException@@YGXXZ:PROC	; AfxThrowInvalidArgException
EXTRN	?AfxThrowArchiveException@@YGXHPBD@Z:PROC	; AfxThrowArchiveException
EXTRN	?GetRuntimeClass@CObject@@UBEPAUCRuntimeClass@@XZ:PROC ; CObject::GetRuntimeClass
EXTRN	?Delete@CException@@QAEXXZ:PROC			; CException::Delete
EXTRN	__imp_??A?$CSimpleStringT@D$00@ATL@@QBEDH@Z:PROC
EXTRN	__imp_?GetAt@?$CSimpleStringT@D$00@ATL@@QBEDH@Z:PROC
EXTRN	__imp_?GetBuffer@?$CSimpleStringT@D$00@ATL@@QAEPADH@Z:PROC
EXTRN	__imp_??0?$CStringT@DV?$StrTraitMFC_DLL@DV?$ChTraitsCRT@D@ATL@@@@@ATL@@QAE@XZ:PROC
EXTRN	__imp_??0?$CStringT@DV?$StrTraitMFC_DLL@DV?$ChTraitsCRT@D@ATL@@@@@ATL@@QAE@ABV01@@Z:PROC
EXTRN	__imp_??0?$CStringT@DV?$StrTraitMFC_DLL@DV?$ChTraitsCRT@D@ATL@@@@@ATL@@QAE@PBD@Z:PROC
EXTRN	__imp_??1?$CStringT@DV?$StrTraitMFC_DLL@DV?$ChTraitsCRT@D@ATL@@@@@ATL@@QAE@XZ:PROC
EXTRN	__imp_??4?$CStringT@DV?$StrTraitMFC_DLL@DV?$ChTraitsCRT@D@ATL@@@@@ATL@@QAEAAV01@ABV01@@Z:PROC
EXTRN	__imp_??4?$CStringT@DV?$StrTraitMFC_DLL@DV?$ChTraitsCRT@D@ATL@@@@@ATL@@QAEAAV01@PBD@Z:PROC
EXTRN	__imp_?Compare@?$CStringT@DV?$StrTraitMFC_DLL@DV?$ChTraitsCRT@D@ATL@@@@@ATL@@QBEHPBD@Z:PROC
EXTRN	__imp_?Find@?$CStringT@DV?$StrTraitMFC_DLL@DV?$ChTraitsCRT@D@ATL@@@@@ATL@@QBEHPBDH@Z:PROC
EXTRN	__imp_?MakeUpper@?$CStringT@DV?$StrTraitMFC_DLL@DV?$ChTraitsCRT@D@ATL@@@@@ATL@@QAEAAV12@XZ:PROC
EXTRN	__imp_?TrimRight@?$CStringT@DV?$StrTraitMFC_DLL@DV?$ChTraitsCRT@D@ATL@@@@@ATL@@QAEAAV12@XZ:PROC
EXTRN	__imp_?TrimLeft@?$CStringT@DV?$StrTraitMFC_DLL@DV?$ChTraitsCRT@D@ATL@@@@@ATL@@QAEAAV12@XZ:PROC
EXTRN	__imp_?Mid@?$CStringT@DV?$StrTraitMFC_DLL@DV?$ChTraitsCRT@D@ATL@@@@@ATL@@QBE?AV12@HH@Z:PROC
EXTRN	__imp_?Left@?$CStringT@DV?$StrTraitMFC_DLL@DV?$ChTraitsCRT@D@ATL@@@@@ATL@@QBE?AV12@H@Z:PROC
EXTRN	__imp_?Format@?$CStringT@DV?$StrTraitMFC_DLL@DV?$ChTraitsCRT@D@ATL@@@@@ATL@@QAAXPBDZZ:PROC
EXTRN	?Read@CArchive@@QAEIPAXI@Z:PROC			; CArchive::Read
EXTRN	?Write@CArchive@@QAEXPBXI@Z:PROC		; CArchive::Write
EXTRN	?ReadCount@CArchive@@QAEKXZ:PROC		; CArchive::ReadCount
EXTRN	?WriteCount@CArchive@@QAEXK@Z:PROC		; CArchive::WriteCount
EXTRN	??0CStringArray@@QAE@XZ:PROC			; CStringArray::CStringArray
EXTRN	?SetSize@CStringArray@@QAEXHH@Z:PROC		; CStringArray::SetSize
EXTRN	?SetAtGrow@CStringArray@@QAEXHABV?$CStringT@DV?$StrTraitMFC_DLL@DV?$ChTraitsCRT@D@ATL@@@@@ATL@@@Z:PROC ; CStringArray::SetAtGrow
EXTRN	?Copy@CStringArray@@QAEXABV1@@Z:PROC		; CStringArray::Copy
EXTRN	??1CStringArray@@UAE@XZ:PROC			; CStringArray::~CStringArray
EXTRN	?AfxGetStaticModuleState@@YGPAVAFX_MODULE_STATE@@XZ:PROC ; AfxGetStaticModuleState
EXTRN	??0AFX_MAINTAIN_STATE2@@QAE@PAVAFX_MODULE_STATE@@@Z:PROC ; AFX_MAINTAIN_STATE2::AFX_MAINTAIN_STATE2
EXTRN	??1AFX_MAINTAIN_STATE2@@QAE@XZ:PROC		; AFX_MAINTAIN_STATE2::~AFX_MAINTAIN_STATE2
EXTRN	?Create@CPlex@@SGPAU1@AAPAU1@II@Z:PROC		; CPlex::Create
EXTRN	?FreeDataChain@CPlex@@QAEXXZ:PROC		; CPlex::FreeDataChain
EXTRN	?DDX_Control@@YGXPAVCDataExchange@@HAAVCWnd@@@Z:PROC ; DDX_Control
EXTRN	?OnCmdMsg@CCmdTarget@@UAEHIHPAXPAUAFX_CMDHANDLERINFO@@@Z:PROC ; CCmdTarget::OnCmdMsg
EXTRN	?IsInvokeAllowed@CCmdTarget@@UAEHJ@Z:PROC	; CCmdTarget::IsInvokeAllowed
EXTRN	?GetDispatchIID@CCmdTarget@@UAEHPAU_GUID@@@Z:PROC ; CCmdTarget::GetDispatchIID
EXTRN	?GetTypeInfoCount@CCmdTarget@@UAEIXZ:PROC	; CCmdTarget::GetTypeInfoCount
EXTRN	?GetTypeLibCache@CCmdTarget@@UAEPAVCTypeLibCache@@XZ:PROC ; CCmdTarget::GetTypeLibCache
EXTRN	?GetTypeLib@CCmdTarget@@UAEJKPAPAUITypeLib@@@Z:PROC ; CCmdTarget::GetTypeLib
EXTRN	?GetCommandMap@CCmdTarget@@MBEPBUAFX_OLECMDMAP@@XZ:PROC ; CCmdTarget::GetCommandMap
EXTRN	?GetDispatchMap@CCmdTarget@@MBEPBUAFX_DISPMAP@@XZ:PROC ; CCmdTarget::GetDispatchMap
EXTRN	?GetConnectionMap@CCmdTarget@@MBEPBUAFX_CONNECTIONMAP@@XZ:PROC ; CCmdTarget::GetConnectionMap
EXTRN	?GetEventSinkMap@CCmdTarget@@MBEPBUAFX_EVENTSINKMAP@@XZ:PROC ; CCmdTarget::GetEventSinkMap
EXTRN	?OnCreateAggregates@CCmdTarget@@UAEHXZ:PROC	; CCmdTarget::OnCreateAggregates
EXTRN	?GetInterfaceHook@CCmdTarget@@UAEPAUIUnknown@@PBX@Z:PROC ; CCmdTarget::GetInterfaceHook
EXTRN	?GetExtraConnectionPoints@CCmdTarget@@MAEHPAVCPtrArray@@@Z:PROC ; CCmdTarget::GetExtraConnectionPoints
EXTRN	?GetConnectionHook@CCmdTarget@@MAEPAUIConnectionPoint@@ABU_GUID@@@Z:PROC ; CCmdTarget::GetConnectionHook
EXTRN	??0CWnd@@QAE@XZ:PROC				; CWnd::CWnd
EXTRN	?FromHandle@CWnd@@SGPAV1@PAUHWND__@@@Z:PROC	; CWnd::FromHandle
EXTRN	?PreSubclassWindow@CWnd@@UAEXXZ:PROC		; CWnd::PreSubclassWindow
EXTRN	?Create@CWnd@@UAEHPBD0KABUtagRECT@@PAV1@IPAUCCreateContext@@@Z:PROC ; CWnd::Create
EXTRN	?CreateEx@CWnd@@UAEHKPBD0KHHHHPAUHWND__@@PAUHMENU__@@PAX@Z:PROC ; CWnd::CreateEx
EXTRN	?CreateEx@CWnd@@UAEHKPBD0KABUtagRECT@@PAV1@IPAX@Z:PROC ; CWnd::CreateEx
EXTRN	?DestroyWindow@CWnd@@UAEHXZ:PROC		; CWnd::DestroyWindow
EXTRN	?PreCreateWindow@CWnd@@UAEHAAUtagCREATESTRUCTA@@@Z:PROC ; CWnd::PreCreateWindow
EXTRN	?CalcWindowRect@CWnd@@UAEXPAUtagRECT@@I@Z:PROC	; CWnd::CalcWindowRect
EXTRN	?GetDlgItem@CWnd@@QBEPAV1@H@Z:PROC		; CWnd::GetDlgItem
EXTRN	?GetMenu@CWnd@@UBEPAVCMenu@@XZ:PROC		; CWnd::GetMenu
EXTRN	?SetMenu@CWnd@@UAEHPAVCMenu@@@Z:PROC		; CWnd::SetMenu
EXTRN	?ScreenToClient@CWnd@@QBEXPAUtagRECT@@@Z:PROC	; CWnd::ScreenToClient
EXTRN	?OnToolHitTest@CWnd@@UBEHVCPoint@@PAUtagTOOLINFOA@@@Z:PROC ; CWnd::OnToolHitTest
EXTRN	?GetScrollBarCtrl@CWnd@@UBEPAVCScrollBar@@H@Z:PROC ; CWnd::GetScrollBarCtrl
EXTRN	?WinHelpA@CWnd@@UAEXKI@Z:PROC			; CWnd::WinHelpA
EXTRN	?HtmlHelpA@CWnd@@UAEXKI@Z:PROC			; CWnd::HtmlHelpA
EXTRN	?WinHelpInternal@CWnd@@UAEXKI@Z:PROC		; CWnd::WinHelpInternal
EXTRN	?ContinueModal@CWnd@@UAEHXZ:PROC		; CWnd::ContinueModal
EXTRN	?EndModalLoop@CWnd@@UAEXH@Z:PROC		; CWnd::EndModalLoop
EXTRN	?OnDrawIconicThumbnailOrLivePreview@CWnd@@UAEXAAVCDC@@VCRect@@VCSize@@HAAH@Z:PROC ; CWnd::OnDrawIconicThumbnailOrLivePreview
EXTRN	?GetInterfaceMap@CWnd@@MBEPBUAFX_INTERFACEMAP@@XZ:PROC ; CWnd::GetInterfaceMap
EXTRN	?EnsureStdObj@CWnd@@UAEJXZ:PROC			; CWnd::EnsureStdObj
EXTRN	?get_accParent@CWnd@@UAEJPAPAUIDispatch@@@Z:PROC ; CWnd::get_accParent
EXTRN	?get_accChildCount@CWnd@@UAEJPAJ@Z:PROC		; CWnd::get_accChildCount
EXTRN	?get_accChild@CWnd@@UAEJUtagVARIANT@@PAPAUIDispatch@@@Z:PROC ; CWnd::get_accChild
EXTRN	?get_accName@CWnd@@UAEJUtagVARIANT@@PAPA_W@Z:PROC ; CWnd::get_accName
EXTRN	?get_accValue@CWnd@@UAEJUtagVARIANT@@PAPA_W@Z:PROC ; CWnd::get_accValue
EXTRN	?get_accDescription@CWnd@@UAEJUtagVARIANT@@PAPA_W@Z:PROC ; CWnd::get_accDescription
EXTRN	?get_accRole@CWnd@@UAEJUtagVARIANT@@PAU2@@Z:PROC ; CWnd::get_accRole
EXTRN	?get_accState@CWnd@@UAEJUtagVARIANT@@PAU2@@Z:PROC ; CWnd::get_accState
EXTRN	?get_accHelp@CWnd@@UAEJUtagVARIANT@@PAPA_W@Z:PROC ; CWnd::get_accHelp
EXTRN	?get_accHelpTopic@CWnd@@UAEJPAPA_WUtagVARIANT@@PAJ@Z:PROC ; CWnd::get_accHelpTopic
EXTRN	?get_accKeyboardShortcut@CWnd@@UAEJUtagVARIANT@@PAPA_W@Z:PROC ; CWnd::get_accKeyboardShortcut
EXTRN	?get_accFocus@CWnd@@UAEJPAUtagVARIANT@@@Z:PROC	; CWnd::get_accFocus
EXTRN	?get_accSelection@CWnd@@UAEJPAUtagVARIANT@@@Z:PROC ; CWnd::get_accSelection
EXTRN	?get_accDefaultAction@CWnd@@UAEJUtagVARIANT@@PAPA_W@Z:PROC ; CWnd::get_accDefaultAction
EXTRN	?accSelect@CWnd@@UAEJJUtagVARIANT@@@Z:PROC	; CWnd::accSelect
EXTRN	?accLocation@CWnd@@UAEJPAJ000UtagVARIANT@@@Z:PROC ; CWnd::accLocation
EXTRN	?accNavigate@CWnd@@UAEJJUtagVARIANT@@PAU2@@Z:PROC ; CWnd::accNavigate
EXTRN	?accHitTest@CWnd@@UAEJJJPAUtagVARIANT@@@Z:PROC	; CWnd::accHitTest
EXTRN	?accDoDefaultAction@CWnd@@UAEJUtagVARIANT@@@Z:PROC ; CWnd::accDoDefaultAction
EXTRN	?put_accName@CWnd@@UAEJUtagVARIANT@@PA_W@Z:PROC	; CWnd::put_accName
EXTRN	?put_accValue@CWnd@@UAEJUtagVARIANT@@PA_W@Z:PROC ; CWnd::put_accValue
EXTRN	?SetProxy@CWnd@@UAEJPAUIAccessibleProxy@@@Z:PROC ; CWnd::SetProxy
EXTRN	?CreateAccessibleProxy@CWnd@@UAEJIJPAJ@Z:PROC	; CWnd::CreateAccessibleProxy
EXTRN	?OnCommand@CWnd@@MAEHIJ@Z:PROC			; CWnd::OnCommand
EXTRN	?OnNotify@CWnd@@MAEHIJPAJ@Z:PROC		; CWnd::OnNotify
EXTRN	?GetSuperWndProcAddr@CWnd@@MAEPAP6GJPAUHWND__@@IIJ@ZXZ:PROC ; CWnd::GetSuperWndProcAddr
EXTRN	?PreTranslateMessage@CWnd@@UAEHPAUtagMSG@@@Z:PROC ; CWnd::PreTranslateMessage
EXTRN	?OnAmbientProperty@CWnd@@UAEHPAVCOleControlSite@@JPAUtagVARIANT@@@Z:PROC ; CWnd::OnAmbientProperty
EXTRN	?WindowProc@CWnd@@MAEJIIJ@Z:PROC		; CWnd::WindowProc
EXTRN	?OnWndMsg@CWnd@@MAEHIIJPAJ@Z:PROC		; CWnd::OnWndMsg
EXTRN	?Default@CWnd@@IAEJXZ:PROC			; CWnd::Default
EXTRN	?DefWindowProcA@CWnd@@MAEJIIJ@Z:PROC		; CWnd::DefWindowProcA
EXTRN	?PostNcDestroy@CWnd@@MAEXXZ:PROC		; CWnd::PostNcDestroy
EXTRN	?OnChildNotify@CWnd@@MAEHIIJPAJ@Z:PROC		; CWnd::OnChildNotify
EXTRN	?OnTouchInputs@CWnd@@MAEHIPAUtagTOUCHINPUT@@@Z:PROC ; CWnd::OnTouchInputs
EXTRN	?OnTouchInput@CWnd@@MAEHVCPoint@@HHPAUtagTOUCHINPUT@@@Z:PROC ; CWnd::OnTouchInput
EXTRN	?GetGestureStatus@CWnd@@MAEKVCPoint@@@Z:PROC	; CWnd::GetGestureStatus
EXTRN	?OnGestureZoom@CWnd@@MAEHVCPoint@@J@Z:PROC	; CWnd::OnGestureZoom
EXTRN	?OnGesturePan@CWnd@@MAEHVCPoint@@0@Z:PROC	; CWnd::OnGesturePan
EXTRN	?OnGestureRotate@CWnd@@MAEHVCPoint@@N@Z:PROC	; CWnd::OnGestureRotate
EXTRN	?OnGestureTwoFingerTap@CWnd@@MAEHVCPoint@@@Z:PROC ; CWnd::OnGestureTwoFingerTap
EXTRN	?OnGesturePressAndTap@CWnd@@MAEHVCPoint@@J@Z:PROC ; CWnd::OnGesturePressAndTap
EXTRN	?ResizeDynamicLayout@CWnd@@MAEXXZ:PROC		; CWnd::ResizeDynamicLayout
EXTRN	?CheckAutoCenter@CWnd@@UAEHXZ:PROC		; CWnd::CheckAutoCenter
EXTRN	?IsFrameWnd@CWnd@@UBEHXZ:PROC			; CWnd::IsFrameWnd
EXTRN	?OnFinalRelease@CWnd@@UAEXXZ:PROC		; CWnd::OnFinalRelease
EXTRN	?CreateControlContainer@CWnd@@MAEHPAPAVCOleControlContainer@@@Z:PROC ; CWnd::CreateControlContainer
EXTRN	?CreateControlSite@CWnd@@MAEHPAVCOleControlContainer@@PAPAVCOleControlSite@@IABU_GUID@@@Z:PROC ; CWnd::CreateControlSite
EXTRN	?SetOccDialogInfo@CWnd@@MAEHPAU_AFX_OCC_DIALOG_INFO@@@Z:PROC ; CWnd::SetOccDialogInfo
EXTRN	?GetOccDialogInfo@CWnd@@MAEPAU_AFX_OCC_DIALOG_INFO@@XZ:PROC ; CWnd::GetOccDialogInfo
EXTRN	?GetMessageMap@CWnd@@MBEPBUAFX_MSGMAP@@XZ:PROC	; CWnd::GetMessageMap
EXTRN	?GetRuntimeClass@CDialog@@UBEPAUCRuntimeClass@@XZ:PROC ; CDialog::GetRuntimeClass
EXTRN	?Create@CDialog@@UAEHPBDPAVCWnd@@@Z:PROC	; CDialog::Create
EXTRN	?CreateIndirect@CDialog@@UAEHPBUDLGTEMPLATE@@PAVCWnd@@PAX@Z:PROC ; CDialog::CreateIndirect
EXTRN	?CreateIndirect@CDialog@@UAEHPAXPAVCWnd@@@Z:PROC ; CDialog::CreateIndirect
EXTRN	?OnSetFont@CDialog@@UAEXPAVCFont@@@Z:PROC	; CDialog::OnSetFont
EXTRN	?OnOK@CDialog@@MAEXXZ:PROC			; CDialog::OnOK
EXTRN	?OnCancel@CDialog@@MAEXXZ:PROC			; CDialog::OnCancel
EXTRN	?OnCmdMsg@CDialog@@UAEHIHPAXPAUAFX_CMDHANDLERINFO@@@Z:PROC ; CDialog::OnCmdMsg
EXTRN	?CheckAutoCenter@CDialog@@UAEHXZ:PROC		; CDialog::CheckAutoCenter
EXTRN	?SetOccDialogInfo@CDialog@@MAEHPAU_AFX_OCC_DIALOG_INFO@@@Z:PROC ; CDialog::SetOccDialogInfo
EXTRN	?GetOccDialogInfo@CDialog@@MAEPAU_AFX_OCC_DIALOG_INFO@@XZ:PROC ; CDialog::GetOccDialogInfo
EXTRN	?PreInitDialog@CDialog@@MAEXXZ:PROC		; CDialog::PreInitDialog
EXTRN	?GetThisMessageMap@CDialog@@KGPBUAFX_MSGMAP@@XZ:PROC ; CDialog::GetThisMessageMap
EXTRN	?GetRuntimeClass@CButton@@UBEPAUCRuntimeClass@@XZ:PROC ; CButton::GetRuntimeClass
EXTRN	?Create@CButton@@UAEHPBDKABUtagRECT@@PAVCWnd@@I@Z:PROC ; CButton::Create
EXTRN	?DrawItem@CButton@@UAEXPAUtagDRAWITEMSTRUCT@@@Z:PROC ; CButton::DrawItem
EXTRN	??1CButton@@UAE@XZ:PROC				; CButton::~CButton
EXTRN	?OnChildNotify@CButton@@MAEHIIJPAJ@Z:PROC	; CButton::OnChildNotify
EXTRN	??_ECButton@@UAEPAXI@Z:PROC			; CButton::`vector deleting destructor'
EXTRN	?GetRuntimeClass@CListBox@@UBEPAUCRuntimeClass@@XZ:PROC ; CListBox::GetRuntimeClass
EXTRN	?Create@CListBox@@UAEHKABUtagRECT@@PAVCWnd@@I@Z:PROC ; CListBox::Create
EXTRN	?DrawItem@CListBox@@UAEXPAUtagDRAWITEMSTRUCT@@@Z:PROC ; CListBox::DrawItem
EXTRN	?MeasureItem@CListBox@@UAEXPAUtagMEASUREITEMSTRUCT@@@Z:PROC ; CListBox::MeasureItem
EXTRN	?CompareItem@CListBox@@UAEHPAUtagCOMPAREITEMSTRUCT@@@Z:PROC ; CListBox::CompareItem
EXTRN	?DeleteItem@CListBox@@UAEXPAUtagDELETEITEMSTRUCT@@@Z:PROC ; CListBox::DeleteItem
EXTRN	?VKeyToItem@CListBox@@UAEHII@Z:PROC		; CListBox::VKeyToItem
EXTRN	?CharToItem@CListBox@@UAEHII@Z:PROC		; CListBox::CharToItem
EXTRN	??1CListBox@@UAE@XZ:PROC			; CListBox::~CListBox
EXTRN	?OnChildNotify@CListBox@@MAEHIIJPAJ@Z:PROC	; CListBox::OnChildNotify
EXTRN	??_ECListBox@@UAEPAXI@Z:PROC			; CListBox::`vector deleting destructor'
EXTRN	?GetLBText@CComboBox@@QBEXHAAV?$CStringT@DV?$StrTraitMFC_DLL@DV?$ChTraitsCRT@D@ATL@@@@@ATL@@@Z:PROC ; CComboBox::GetLBText
EXTRN	?ChangeSkinColor@CRscDlg@@UAEXK@Z:PROC		; CRscDlg::ChangeSkinColor
EXTRN	?Create@CRscDlg@@UAEHIPAVCWnd@@@Z:PROC		; CRscDlg::Create
EXTRN	?DoModal@CRscDlg@@UAEHXZ:PROC			; CRscDlg::DoModal
EXTRN	?OnCtlColor@CRscDlg@@IAEPAUHBRUSH__@@PAVCDC@@PAVCWnd@@I@Z:PROC ; CRscDlg::OnCtlColor
EXTRN	??0CTabDlg@@QAE@IPAVCWnd@@@Z:PROC		; CTabDlg::CTabDlg
EXTRN	??1CTabDlg@@UAE@XZ:PROC				; CTabDlg::~CTabDlg
EXTRN	?PreTranslateMessage@CTabDlg@@UAEHPAUtagMSG@@@Z:PROC ; CTabDlg::PreTranslateMessage
EXTRN	?RecalcLayoutCtrl@CTabDlg@@IAEXAAVCWnd@@H@Z:PROC ; CTabDlg::RecalcLayoutCtrl
EXTRN	?OnInitDialog@CTabDlg@@MAEHXZ:PROC		; CTabDlg::OnInitDialog
EXTRN	?OnDestroy@CTabDlg@@IAEXXZ:PROC			; CTabDlg::OnDestroy
EXTRN	??0CExComboBox@@QAE@H@Z:PROC			; CExComboBox::CExComboBox
EXTRN	??1CExComboBox@@UAE@XZ:PROC			; CExComboBox::~CExComboBox
EXTRN	??0CExGridCtrl@@QAE@HHHH@Z:PROC			; CExGridCtrl::CExGridCtrl
EXTRN	?Create@CExGridCtrl@@QAEHAAUtagRECT@@PAVCWnd@@IK@Z:PROC ; CExGridCtrl::Create
EXTRN	?GetRowCount@CExGridCtrl@@QAEHXZ:PROC		; CExGridCtrl::GetRowCount
EXTRN	?GetColumnCount@CExGridCtrl@@QAEHXZ:PROC	; CExGridCtrl::GetColumnCount
EXTRN	?SetRowCount@CExGridCtrl@@QAEHH@Z:PROC		; CExGridCtrl::SetRowCount
EXTRN	?SetColumnCount@CExGridCtrl@@QAEHH@Z:PROC	; CExGridCtrl::SetColumnCount
EXTRN	?SetFixedColumnCount@CExGridCtrl@@QAEHH@Z:PROC	; CExGridCtrl::SetFixedColumnCount
EXTRN	?SetRowHeight@CExGridCtrl@@QAEHHH@Z:PROC	; CExGridCtrl::SetRowHeight
EXTRN	?SetColumnWidth@CExGridCtrl@@QAEHHH@Z:PROC	; CExGridCtrl::SetColumnWidth
EXTRN	?SetGridLineColor@CExGridCtrl@@QAEXK@Z:PROC	; CExGridCtrl::SetGridLineColor
EXTRN	?SetGridColor@CExGridCtrl@@QAEXK@Z:PROC		; CExGridCtrl::SetGridColor
EXTRN	?SetBkColor@CExGridCtrl@@QAEXK@Z:PROC		; CExGridCtrl::SetBkColor
EXTRN	?EnableTitleTips@CExGridCtrl@@QAEXH@Z:PROC	; CExGridCtrl::EnableTitleTips
EXTRN	?EnableColumnHide@CExGridCtrl@@QAEXH@Z:PROC	; CExGridCtrl::EnableColumnHide
EXTRN	?EnableRowHide@CExGridCtrl@@QAEXH@Z:PROC	; CExGridCtrl::EnableRowHide
EXTRN	?SetItem@CExGridCtrl@@QAEHPAU_GV_ITEM@@@Z:PROC	; CExGridCtrl::SetItem
EXTRN	?SetItemText@CExGridCtrl@@QAEHHHPBD@Z:PROC	; CExGridCtrl::SetItemText
EXTRN	?SetItemData@CExGridCtrl@@QAEHHHJ@Z:PROC	; CExGridCtrl::SetItemData
EXTRN	?GetItemData@CExGridCtrl@@QAEJHH@Z:PROC		; CExGridCtrl::GetItemData
EXTRN	?SetItemBkColour@CExGridCtrl@@QAEHHHK@Z:PROC	; CExGridCtrl::SetItemBkColour
EXTRN	?SetItemFgColour@CExGridCtrl@@QAEHHHK@Z:PROC	; CExGridCtrl::SetItemFgColour
EXTRN	?Refresh@CExGridCtrl@@QAEXXZ:PROC		; CExGridCtrl::Refresh
EXTRN	?RedrawCell@CExGridCtrl@@QAEHHHPAVCDC@@@Z:PROC	; CExGridCtrl::RedrawCell
EXTRN	??_E?$CList@U_codeinfo@@AAU1@@@UAEPAXI@Z:PROC	; CList<_codeinfo,_codeinfo &>::`vector deleting destructor'
EXTRN	??_ECTabCodeSearchFO@@UAEPAXI@Z:PROC		; CTabCodeSearchFO::`vector deleting destructor'
EXTRN	@__security_check_cookie@4:PROC
EXTRN	___CxxFrameHandler3:PROC
EXTRN	_memset:PROC
EXTRN	??_7type_info@@6B@:QWORD			; type_info::`vftable'
EXTRN	___security_cookie:DWORD
EXTRN	__fltused:DWORD
;	COMDAT ?_OptionsStorage@?1??__local_stdio_scanf_options@@9@4_KA
_BSS	SEGMENT
?_OptionsStorage@?1??__local_stdio_scanf_options@@9@4_KA DQ 01H DUP (?) ; `__local_stdio_scanf_options'::`2'::_OptionsStorage
_BSS	ENDS
_BSS	SEGMENT
?RMSG_GETPCTRDATA@@3IB DD 01H DUP (?)			; RMSG_GETPCTRDATA
?RMSG_GETSIGNAL_REAL@@3IB DD 01H DUP (?)		; RMSG_GETSIGNAL_REAL
?RMSG_CHARTMAIN@@3IB DD 01H DUP (?)			; RMSG_CHARTMAIN
?RMS_ANALYSIS_FUNC@@3IB DD 01H DUP (?)			; RMS_ANALYSIS_FUNC
?RMSG_GET_USERID@@3IB DD 01H DUP (?)			; RMSG_GET_USERID
?RMSG_KSDLLINFO@@3IB DD 01H DUP (?)			; RMSG_KSDLLINFO
?RMSG_GETINFO@@3IB DD 01H DUP (?)			; RMSG_GETINFO
?RMSG_CHANGE_SKINCOLOR@@3IB DD 01H DUP (?)		; RMSG_CHANGE_SKINCOLOR
?RMSG_GET_SKINCOLOR@@3IB DD 01H DUP (?)			; RMSG_GET_SKINCOLOR
?RMSG_CHANGE_CROSSLINE@@3IB DD 01H DUP (?)		; RMSG_CHANGE_CROSSLINE
?RMSG_REPLAY_REAL@@3IB DD 01H DUP (?)			; RMSG_REPLAY_REAL
?RMSG_REPLAY_FAIL@@3IB DD 01H DUP (?)			; RMSG_REPLAY_FAIL
?RMSG_REPLAY_CHANGE_DATE@@3IB DD 01H DUP (?)		; RMSG_REPLAY_CHANGE_DATE
?RMSG_REPLAY_END@@3IB DD 01H DUP (?)			; RMSG_REPLAY_END
?RMSG_REPLAY_INC_SEC@@3IB DD 01H DUP (?)		; RMSG_REPLAY_INC_SEC
?RMSG_REPLAY_TOTAL_SEC@@3IB DD 01H DUP (?)		; RMSG_REPLAY_TOTAL_SEC
?RMSG_SELCHARTCODE@@3IB DD 01H DUP (?)			; RMSG_SELCHARTCODE
_BSS	ENDS
CRT$XCU	SEGMENT
?RMSG_GETPCTRDATA$initializer$@@3P6AXXZA DD FLAT:??__ERMSG_GETPCTRDATA@@YAXXZ ; RMSG_GETPCTRDATA$initializer$
CRT$XCU	ENDS
;	COMDAT __xmm@ffffffffffffffffffffffffffffffff
CONST	SEGMENT
__xmm@ffffffffffffffffffffffffffffffff DB 0ffH, 0ffH, 0ffH, 0ffH, 0ffH, 0ffH
	DB	0ffH, 0ffH, 0ffH, 0ffH, 0ffH, 0ffH, 0ffH, 0ffH, 0ffH, 0ffH
CONST	ENDS
;	COMDAT __real@4059000000000000
CONST	SEGMENT
__real@4059000000000000 DQ 04059000000000000r	; 100
CONST	ENDS
;	COMDAT ??_R1A@?0A@EA@?$CList@U_codeinfo@@AAU1@@@8
rdata$r	SEGMENT
??_R1A@?0A@EA@?$CList@U_codeinfo@@AAU1@@@8 DD FLAT:??_R0?AV?$CList@U_codeinfo@@AAU1@@@@8 ; CList<_codeinfo,_codeinfo &>::`RTTI Base Class Descriptor at (0,-1,0,64)'
	DD	01H
	DD	00H
	DD	0ffffffffH
	DD	00H
	DD	040H
	DD	FLAT:??_R3?$CList@U_codeinfo@@AAU1@@@8
rdata$r	ENDS
;	COMDAT ??_R2?$CList@U_codeinfo@@AAU1@@@8
rdata$r	SEGMENT
??_R2?$CList@U_codeinfo@@AAU1@@@8 DD FLAT:??_R1A@?0A@EA@?$CList@U_codeinfo@@AAU1@@@8 ; CList<_codeinfo,_codeinfo &>::`RTTI Base Class Array'
	DD	FLAT:??_R1A@?0A@EA@CObject@@8
rdata$r	ENDS
;	COMDAT ??_R3?$CList@U_codeinfo@@AAU1@@@8
rdata$r	SEGMENT
??_R3?$CList@U_codeinfo@@AAU1@@@8 DD 00H		; CList<_codeinfo,_codeinfo &>::`RTTI Class Hierarchy Descriptor'
	DD	00H
	DD	02H
	DD	FLAT:??_R2?$CList@U_codeinfo@@AAU1@@@8
rdata$r	ENDS
;	COMDAT ??_R0?AV?$CList@U_codeinfo@@AAU1@@@@8
data$rs	SEGMENT
??_R0?AV?$CList@U_codeinfo@@AAU1@@@@8 DD FLAT:??_7type_info@@6B@ ; CList<_codeinfo,_codeinfo &> `RTTI Type Descriptor'
	DD	00H
	DB	'.?AV?$CList@U_codeinfo@@AAU1@@@', 00H
data$rs	ENDS
;	COMDAT ??_R4?$CList@U_codeinfo@@AAU1@@@6B@
rdata$r	SEGMENT
??_R4?$CList@U_codeinfo@@AAU1@@@6B@ DD 00H		; CList<_codeinfo,_codeinfo &>::`RTTI Complete Object Locator'
	DD	00H
	DD	00H
	DD	FLAT:??_R0?AV?$CList@U_codeinfo@@AAU1@@@@8
	DD	FLAT:??_R3?$CList@U_codeinfo@@AAU1@@@8
rdata$r	ENDS
;	COMDAT ??_R2CRscDlg@@8
rdata$r	SEGMENT
??_R2CRscDlg@@8 DD FLAT:??_R1A@?0A@EA@CRscDlg@@8	; CRscDlg::`RTTI Base Class Array'
	DD	FLAT:??_R1A@?0A@EA@CDialog@@8
	DD	FLAT:??_R1A@?0A@EA@CWnd@@8
	DD	FLAT:??_R1A@?0A@EA@CCmdTarget@@8
	DD	FLAT:??_R1A@?0A@EA@CObject@@8
rdata$r	ENDS
;	COMDAT ??_R3CRscDlg@@8
rdata$r	SEGMENT
??_R3CRscDlg@@8 DD 00H					; CRscDlg::`RTTI Class Hierarchy Descriptor'
	DD	00H
	DD	05H
	DD	FLAT:??_R2CRscDlg@@8
rdata$r	ENDS
;	COMDAT ??_R0?AVCRscDlg@@@8
data$rs	SEGMENT
??_R0?AVCRscDlg@@@8 DD FLAT:??_7type_info@@6B@		; CRscDlg `RTTI Type Descriptor'
	DD	00H
	DB	'.?AVCRscDlg@@', 00H
data$rs	ENDS
;	COMDAT ??_R1A@?0A@EA@CRscDlg@@8
rdata$r	SEGMENT
??_R1A@?0A@EA@CRscDlg@@8 DD FLAT:??_R0?AVCRscDlg@@@8	; CRscDlg::`RTTI Base Class Descriptor at (0,-1,0,64)'
	DD	04H
	DD	00H
	DD	0ffffffffH
	DD	00H
	DD	040H
	DD	FLAT:??_R3CRscDlg@@8
rdata$r	ENDS
;	COMDAT ??_R2CTabDlg@@8
rdata$r	SEGMENT
??_R2CTabDlg@@8 DD FLAT:??_R1A@?0A@EA@CTabDlg@@8	; CTabDlg::`RTTI Base Class Array'
	DD	FLAT:??_R1A@?0A@EA@CRscDlg@@8
	DD	FLAT:??_R1A@?0A@EA@CDialog@@8
	DD	FLAT:??_R1A@?0A@EA@CWnd@@8
	DD	FLAT:??_R1A@?0A@EA@CCmdTarget@@8
	DD	FLAT:??_R1A@?0A@EA@CObject@@8
rdata$r	ENDS
;	COMDAT ??_R3CTabDlg@@8
rdata$r	SEGMENT
??_R3CTabDlg@@8 DD 00H					; CTabDlg::`RTTI Class Hierarchy Descriptor'
	DD	00H
	DD	06H
	DD	FLAT:??_R2CTabDlg@@8
rdata$r	ENDS
;	COMDAT ??_R0?AVCTabDlg@@@8
data$rs	SEGMENT
??_R0?AVCTabDlg@@@8 DD FLAT:??_7type_info@@6B@		; CTabDlg `RTTI Type Descriptor'
	DD	00H
	DB	'.?AVCTabDlg@@', 00H
data$rs	ENDS
;	COMDAT ??_R1A@?0A@EA@CTabDlg@@8
rdata$r	SEGMENT
??_R1A@?0A@EA@CTabDlg@@8 DD FLAT:??_R0?AVCTabDlg@@@8	; CTabDlg::`RTTI Base Class Descriptor at (0,-1,0,64)'
	DD	05H
	DD	00H
	DD	0ffffffffH
	DD	00H
	DD	040H
	DD	FLAT:??_R3CTabDlg@@8
rdata$r	ENDS
;	COMDAT ??_R1A@?0A@EA@CTabCodeSearchFO@@8
rdata$r	SEGMENT
??_R1A@?0A@EA@CTabCodeSearchFO@@8 DD FLAT:??_R0?AVCTabCodeSearchFO@@@8 ; CTabCodeSearchFO::`RTTI Base Class Descriptor at (0,-1,0,64)'
	DD	06H
	DD	00H
	DD	0ffffffffH
	DD	00H
	DD	040H
	DD	FLAT:??_R3CTabCodeSearchFO@@8
rdata$r	ENDS
;	COMDAT ??_R2CTabCodeSearchFO@@8
rdata$r	SEGMENT
??_R2CTabCodeSearchFO@@8 DD FLAT:??_R1A@?0A@EA@CTabCodeSearchFO@@8 ; CTabCodeSearchFO::`RTTI Base Class Array'
	DD	FLAT:??_R1A@?0A@EA@CTabDlg@@8
	DD	FLAT:??_R1A@?0A@EA@CRscDlg@@8
	DD	FLAT:??_R1A@?0A@EA@CDialog@@8
	DD	FLAT:??_R1A@?0A@EA@CWnd@@8
	DD	FLAT:??_R1A@?0A@EA@CCmdTarget@@8
	DD	FLAT:??_R1A@?0A@EA@CObject@@8
rdata$r	ENDS
;	COMDAT ??_R3CTabCodeSearchFO@@8
rdata$r	SEGMENT
??_R3CTabCodeSearchFO@@8 DD 00H				; CTabCodeSearchFO::`RTTI Class Hierarchy Descriptor'
	DD	00H
	DD	07H
	DD	FLAT:??_R2CTabCodeSearchFO@@8
rdata$r	ENDS
;	COMDAT ??_R0?AVCTabCodeSearchFO@@@8
data$rs	SEGMENT
??_R0?AVCTabCodeSearchFO@@@8 DD FLAT:??_7type_info@@6B@	; CTabCodeSearchFO `RTTI Type Descriptor'
	DD	00H
	DB	'.?AVCTabCodeSearchFO@@', 00H
data$rs	ENDS
;	COMDAT ??_R4CTabCodeSearchFO@@6B@
rdata$r	SEGMENT
??_R4CTabCodeSearchFO@@6B@ DD 00H			; CTabCodeSearchFO::`RTTI Complete Object Locator'
	DD	00H
	DD	00H
	DD	FLAT:??_R0?AVCTabCodeSearchFO@@@8
	DD	FLAT:??_R3CTabCodeSearchFO@@8
rdata$r	ENDS
;	COMDAT ??_C@_0BA@MIOHKIAF@?$CF1c?$CF02d?$CF02s?$CF03d@
CONST	SEGMENT
??_C@_0BA@MIOHKIAF@?$CF1c?$CF02d?$CF02s?$CF03d@ DB '%1c%02d%02s%03d', 00H ; `string'
CONST	ENDS
;	COMDAT ??_C@_0O@EHJFFJCN@?$CF1cAF?$CF02s?$CF03d@
CONST	SEGMENT
??_C@_0O@EHJFFJCN@?$CF1cAF?$CF02s?$CF03d@ DB '%1cAF%02s%03d', 00H ; `string'
CONST	ENDS
;	COMDAT ??_C@_0BC@EHJNOJGF@?$CF1c?$CF02d?$CF1c?$CF1X?$CF03d@
CONST	SEGMENT
??_C@_0BC@EHJNOJGF@?$CF1c?$CF02d?$CF1c?$CF1X?$CF03d@ DB '%1c%02d%1c%1X%03'
	DB	'd', 00H					; `string'
CONST	ENDS
;	COMDAT ??_C@_05LMFDOBNM@?$CFs?$HM?$CFs@
CONST	SEGMENT
??_C@_05LMFDOBNM@?$CFs?$HM?$CFs@ DB '%s|%s', 00H	; `string'
CONST	ENDS
;	COMDAT ??_C@_04HGGMHPIM@?$CF?4?$CKf@
CONST	SEGMENT
??_C@_04HGGMHPIM@?$CF?4?$CKf@ DB '%.*f', 00H		; `string'
CONST	ENDS
;	COMDAT ??_C@_08KALJJMOG@?$CF02d?4W?$CFc@
CONST	SEGMENT
??_C@_08KALJJMOG@?$CF02d?4W?$CFc@ DB '%02d.W%c', 00H	; `string'
CONST	ENDS
;	COMDAT ??_C@_09JIGINAPD@?$CF02d?4MW?$CFc@
CONST	SEGMENT
??_C@_09JIGINAPD@?$CF02d?4MW?$CFc@ DB '%02d.MW%c', 00H	; `string'
CONST	ENDS
;	COMDAT ??_C@_06LDAHLMHO@?$CFd?$CF02d@
CONST	SEGMENT
??_C@_06LDAHLMHO@?$CFd?$CF02d@ DB '%d%02d', 00H		; `string'
CONST	ENDS
;	COMDAT ??_C@_01GFHCPBMG@C@
CONST	SEGMENT
??_C@_01GFHCPBMG@C@ DB 'C', 00H				; `string'
CONST	ENDS
;	COMDAT ??_C@_01FHEEJDEE@A@
CONST	SEGMENT
??_C@_01FHEEJDEE@A@ DB 'A', 00H				; `string'
CONST	ENDS
;	COMDAT ??_C@_02NHMFCJJJ@AF@
CONST	SEGMENT
??_C@_02NHMFCJJJ@AF@ DB 'AF', 00H			; `string'
CONST	ENDS
;	COMDAT ??_C@_0BD@CMCCCNBF@HANAROIGATEMANAGER@
CONST	SEGMENT
??_C@_0BD@CMCCCNBF@HANAROIGATEMANAGER@ DB 'HANAROIGATEMANAGER', 00H ; `string'
CONST	ENDS
;	COMDAT ??_C@_01CLKCMJKC@?5@
CONST	SEGMENT
??_C@_01CLKCMJKC@?5@ DB ' ', 00H			; `string'
CONST	ENDS
;	COMDAT ??_C@_03NDHBKIJP@ATM@
CONST	SEGMENT
??_C@_03NDHBKIJP@ATM@ DB 'ATM', 00H			; `string'
CONST	ENDS
;	COMDAT ??_C@_05BJKOFFGO@PRICE@
CONST	SEGMENT
??_C@_05BJKOFFGO@PRICE@ DB 'PRICE', 00H			; `string'
CONST	ENDS
;	COMDAT ??_C@_05BMGBEOOC@?$CFs?2?$CFs@
CONST	SEGMENT
??_C@_05BMGBEOOC@?$CFs?2?$CFs@ DB '%s\%s', 00H		; `string'
CONST	ENDS
;	COMDAT ??_C@_0P@JIBKHGJJ@master?2atm?4dat@
CONST	SEGMENT
??_C@_0P@JIBKHGJJ@master?2atm?4dat@ DB 'master\atm.dat', 00H ; `string'
CONST	ENDS
;	COMDAT ??_C@_04IPMECLBL@?$CFd?$LP?y@
CONST	SEGMENT
??_C@_04IPMECLBL@?$CFd?$LP?y@ DB '%d', 0bfH, 0f9H, 00H	; `string'
CONST	ENDS
;	COMDAT ??_C@_02ECKNGKBC@?G?$LC@
CONST	SEGMENT
??_C@_02ECKNGKBC@?G?$LC@ DB 0c7H, 0b2H, 00H		; `string'
CONST	ENDS
;	COMDAT ??_C@_02KCIOKDCD@?D?$NN@
CONST	SEGMENT
??_C@_02KCIOKDCD@?D?$NN@ DB 0c4H, 0ddH, 00H		; `string'
CONST	ENDS
;	COMDAT ??_C@_06CDJAKJDK@?G?$OA?$LL?g?$LA?$KB@
CONST	SEGMENT
??_C@_06CDJAKJDK@?G?$OA?$LL?g?$LA?$KB@ DB 0c7H, 0e0H, 0bbH, 0e7H, 0b0H, 0a1H
	DB	00H						; `string'
CONST	ENDS
;	COMDAT ??_R0PAVCMemoryException@@@8
data$r	SEGMENT
??_R0PAVCMemoryException@@@8 DD FLAT:??_7type_info@@6B@	; CMemoryException * `RTTI Type Descriptor'
	DD	00H
	DB	'.PAVCMemoryException@@', 00H
data$r	ENDS
;	COMDAT ?messageMap@?1??GetThisMessageMap@CTabCodeSearchFO@@KGPBUAFX_MSGMAP@@XZ@4U3@B
CONST	SEGMENT
?messageMap@?1??GetThisMessageMap@CTabCodeSearchFO@@KGPBUAFX_MSGMAP@@XZ@4U3@B DD FLAT:?GetThisMessageMap@CDialog@@KGPBUAFX_MSGMAP@@XZ ; `CTabCodeSearchFO::GetThisMessageMap'::`2'::messageMap
	DD	FLAT:?_messageEntries@?1??GetThisMessageMap@CTabCodeSearchFO@@KGPBUAFX_MSGMAP@@XZ@4QBUAFX_MSGMAP_ENTRY@@B
CONST	ENDS
;	COMDAT ?_messageEntries@?1??GetThisMessageMap@CTabCodeSearchFO@@KGPBUAFX_MSGMAP@@XZ@4QBUAFX_MSGMAP_ENTRY@@B
CONST	SEGMENT
?_messageEntries@?1??GetThisMessageMap@CTabCodeSearchFO@@KGPBUAFX_MSGMAP@@XZ@4QBUAFX_MSGMAP_ENTRY@@B DD 05H ; `CTabCodeSearchFO::GetThisMessageMap'::`2'::_messageEntries
	DD	00H
	DD	00H
	DD	00H
	DD	01aH
	DD	FLAT:?OnSize@CTabCodeSearchFO@@IAEXIHH@Z
	DD	02H
	DD	00H
	DD	00H
	DD	00H
	DD	013H
	DD	FLAT:?OnDestroy@CTabCodeSearchFO@@IAEXXZ
	DD	0111H
	DD	01H
	DD	01795H
	DD	01795H
	DD	03aH
	DD	FLAT:?OnSelchangeComboFO@CTabCodeSearchFO@@IAEXXZ
	DD	0111H
	DD	05H
	DD	01794H
	DD	01794H
	DD	03aH
	DD	FLAT:?OnEditchangeComboMonth@CTabCodeSearchFO@@IAEXXZ
	DD	0111H
	DD	01H
	DD	01794H
	DD	01794H
	DD	03aH
	DD	FLAT:?OnSelchangeComboMonth@CTabCodeSearchFO@@IAEXXZ
	DD	019H
	DD	00H
	DD	00H
	DD	00H
	DD	08H
	DD	FLAT:?OnCtlColor@CTabCodeSearchFO@@IAEPAUHBRUSH__@@PAVCDC@@PAVCWnd@@I@Z
	DD	0111H
	DD	01H
	DD	01870H
	DD	01870H
	DD	03aH
	DD	FLAT:?OnSelchangeListFuture@CTabCodeSearchFO@@IAEXXZ
	DD	0111H
	DD	02H
	DD	01870H
	DD	01870H
	DD	03aH
	DD	FLAT:?OnDblclkListFuture@CTabCodeSearchFO@@IAEXXZ
	DD	0111H
	DD	00H
	DD	01891H
	DD	01891H
	DD	03aH
	DD	FLAT:?OnClickRadioKospi200@CTabCodeSearchFO@@IAEXXZ
	DD	0111H
	DD	00H
	DD	01892H
	DD	01892H
	DD	03aH
	DD	FLAT:?OnClickRadioMiniKospi@CTabCodeSearchFO@@IAEXXZ
	DD	0111H
	DD	00H
	DD	01893H
	DD	01893H
	DD	03aH
	DD	FLAT:?OnClickRadioWeeklyKospi@CTabCodeSearchFO@@IAEXXZ
	DD	00H
	DD	00H
	DD	00H
	DD	00H
	DD	00H
	DD	00H
CONST	ENDS
;	COMDAT ??_C@_0L@MMIFOKFD@W?5KOSPI200@
CONST	SEGMENT
??_C@_0L@MMIFOKFD@W?5KOSPI200@ DB 'W KOSPI200', 00H	; `string'
CONST	ENDS
;	COMDAT ??_C@_0L@IANMHGBM@M?5KOSPI200@
CONST	SEGMENT
??_C@_0L@IANMHGBM@M?5KOSPI200@ DB 'M KOSPI200', 00H	; `string'
CONST	ENDS
;	COMDAT ??_C@_08FPNDIEGG@KOSPI200@
CONST	SEGMENT
??_C@_08FPNDIEGG@KOSPI200@ DB 'KOSPI200', 00H		; `string'
CONST	ENDS
CONST	SEGMENT
?FUTOPT_COMBO@@3QBQBDB DD FLAT:??_C@_08FPNDIEGG@KOSPI200@ ; FUTOPT_COMBO
	DD	FLAT:??_C@_0L@IANMHGBM@M?5KOSPI200@
	DD	FLAT:??_C@_0L@MMIFOKFD@W?5KOSPI200@
CONST	ENDS
;	COMDAT ??_7CTabCodeSearchFO@@6B@
CONST	SEGMENT
??_7CTabCodeSearchFO@@6B@ DD FLAT:??_R4CTabCodeSearchFO@@6B@ ; CTabCodeSearchFO::`vftable'
	DD	FLAT:?GetRuntimeClass@CDialog@@UBEPAUCRuntimeClass@@XZ
	DD	FLAT:??_ECTabCodeSearchFO@@UAEPAXI@Z
	DD	FLAT:?Serialize@CObject@@UAEXAAVCArchive@@@Z
	DD	FLAT:?AssertValid@CObject@@UBEXXZ
	DD	FLAT:?Dump@CObject@@UBEXAAVCDumpContext@@@Z
	DD	FLAT:?OnCmdMsg@CDialog@@UAEHIHPAXPAUAFX_CMDHANDLERINFO@@@Z
	DD	FLAT:?OnFinalRelease@CWnd@@UAEXXZ
	DD	FLAT:?IsInvokeAllowed@CCmdTarget@@UAEHJ@Z
	DD	FLAT:?GetDispatchIID@CCmdTarget@@UAEHPAU_GUID@@@Z
	DD	FLAT:?GetTypeInfoCount@CCmdTarget@@UAEIXZ
	DD	FLAT:?GetTypeLibCache@CCmdTarget@@UAEPAVCTypeLibCache@@XZ
	DD	FLAT:?GetTypeLib@CCmdTarget@@UAEJKPAPAUITypeLib@@@Z
	DD	FLAT:?GetMessageMap@CTabCodeSearchFO@@MBEPBUAFX_MSGMAP@@XZ
	DD	FLAT:?GetCommandMap@CCmdTarget@@MBEPBUAFX_OLECMDMAP@@XZ
	DD	FLAT:?GetDispatchMap@CCmdTarget@@MBEPBUAFX_DISPMAP@@XZ
	DD	FLAT:?GetConnectionMap@CCmdTarget@@MBEPBUAFX_CONNECTIONMAP@@XZ
	DD	FLAT:?GetInterfaceMap@CWnd@@MBEPBUAFX_INTERFACEMAP@@XZ
	DD	FLAT:?GetEventSinkMap@CCmdTarget@@MBEPBUAFX_EVENTSINKMAP@@XZ
	DD	FLAT:?OnCreateAggregates@CCmdTarget@@UAEHXZ
	DD	FLAT:?GetInterfaceHook@CCmdTarget@@UAEPAUIUnknown@@PBX@Z
	DD	FLAT:?GetExtraConnectionPoints@CCmdTarget@@MAEHPAVCPtrArray@@@Z
	DD	FLAT:?GetConnectionHook@CCmdTarget@@MAEPAUIConnectionPoint@@ABU_GUID@@@Z
	DD	FLAT:?PreSubclassWindow@CWnd@@UAEXXZ
	DD	FLAT:?Create@CWnd@@UAEHPBD0KABUtagRECT@@PAV1@IPAUCCreateContext@@@Z
	DD	FLAT:?CreateEx@CWnd@@UAEHKPBD0KABUtagRECT@@PAV1@IPAX@Z
	DD	FLAT:?CreateEx@CWnd@@UAEHKPBD0KHHHHPAUHWND__@@PAUHMENU__@@PAX@Z
	DD	FLAT:?DestroyWindow@CWnd@@UAEHXZ
	DD	FLAT:?PreCreateWindow@CWnd@@UAEHAAUtagCREATESTRUCTA@@@Z
	DD	FLAT:?CalcWindowRect@CWnd@@UAEXPAUtagRECT@@I@Z
	DD	FLAT:?GetMenu@CWnd@@UBEPAVCMenu@@XZ
	DD	FLAT:?SetMenu@CWnd@@UAEHPAVCMenu@@@Z
	DD	FLAT:?OnToolHitTest@CWnd@@UBEHVCPoint@@PAUtagTOOLINFOA@@@Z
	DD	FLAT:?GetScrollBarCtrl@CWnd@@UBEPAVCScrollBar@@H@Z
	DD	FLAT:?WinHelpA@CWnd@@UAEXKI@Z
	DD	FLAT:?HtmlHelpA@CWnd@@UAEXKI@Z
	DD	FLAT:?WinHelpInternal@CWnd@@UAEXKI@Z
	DD	FLAT:?ContinueModal@CWnd@@UAEHXZ
	DD	FLAT:?EndModalLoop@CWnd@@UAEXH@Z
	DD	FLAT:?OnDrawIconicThumbnailOrLivePreview@CWnd@@UAEXAAVCDC@@VCRect@@VCSize@@HAAH@Z
	DD	FLAT:?EnsureStdObj@CWnd@@UAEJXZ
	DD	FLAT:?get_accParent@CWnd@@UAEJPAPAUIDispatch@@@Z
	DD	FLAT:?get_accChildCount@CWnd@@UAEJPAJ@Z
	DD	FLAT:?get_accChild@CWnd@@UAEJUtagVARIANT@@PAPAUIDispatch@@@Z
	DD	FLAT:?get_accName@CWnd@@UAEJUtagVARIANT@@PAPA_W@Z
	DD	FLAT:?get_accValue@CWnd@@UAEJUtagVARIANT@@PAPA_W@Z
	DD	FLAT:?get_accDescription@CWnd@@UAEJUtagVARIANT@@PAPA_W@Z
	DD	FLAT:?get_accRole@CWnd@@UAEJUtagVARIANT@@PAU2@@Z
	DD	FLAT:?get_accState@CWnd@@UAEJUtagVARIANT@@PAU2@@Z
	DD	FLAT:?get_accHelp@CWnd@@UAEJUtagVARIANT@@PAPA_W@Z
	DD	FLAT:?get_accHelpTopic@CWnd@@UAEJPAPA_WUtagVARIANT@@PAJ@Z
	DD	FLAT:?get_accKeyboardShortcut@CWnd@@UAEJUtagVARIANT@@PAPA_W@Z
	DD	FLAT:?get_accFocus@CWnd@@UAEJPAUtagVARIANT@@@Z
	DD	FLAT:?get_accSelection@CWnd@@UAEJPAUtagVARIANT@@@Z
	DD	FLAT:?get_accDefaultAction@CWnd@@UAEJUtagVARIANT@@PAPA_W@Z
	DD	FLAT:?accSelect@CWnd@@UAEJJUtagVARIANT@@@Z
	DD	FLAT:?accLocation@CWnd@@UAEJPAJ000UtagVARIANT@@@Z
	DD	FLAT:?accNavigate@CWnd@@UAEJJUtagVARIANT@@PAU2@@Z
	DD	FLAT:?accHitTest@CWnd@@UAEJJJPAUtagVARIANT@@@Z
	DD	FLAT:?accDoDefaultAction@CWnd@@UAEJUtagVARIANT@@@Z
	DD	FLAT:?put_accName@CWnd@@UAEJUtagVARIANT@@PA_W@Z
	DD	FLAT:?put_accValue@CWnd@@UAEJUtagVARIANT@@PA_W@Z
	DD	FLAT:?SetProxy@CWnd@@UAEJPAUIAccessibleProxy@@@Z
	DD	FLAT:?CreateAccessibleProxy@CWnd@@UAEJIJPAJ@Z
	DD	FLAT:?OnCommand@CWnd@@MAEHIJ@Z
	DD	FLAT:?OnNotify@CWnd@@MAEHIJPAJ@Z
	DD	FLAT:?GetSuperWndProcAddr@CWnd@@MAEPAP6GJPAUHWND__@@IIJ@ZXZ
	DD	FLAT:?DoDataExchange@CTabCodeSearchFO@@MAEXPAVCDataExchange@@@Z
	DD	FLAT:?BeginModalState@CWnd@@UAEXXZ
	DD	FLAT:?EndModalState@CWnd@@UAEXXZ
	DD	FLAT:?PreTranslateMessage@CTabDlg@@UAEHPAUtagMSG@@@Z
	DD	FLAT:?OnAmbientProperty@CWnd@@UAEHPAVCOleControlSite@@JPAUtagVARIANT@@@Z
	DD	FLAT:?WindowProc@CTabCodeSearchFO@@MAEJIIJ@Z
	DD	FLAT:?OnWndMsg@CWnd@@MAEHIIJPAJ@Z
	DD	FLAT:?DefWindowProcA@CWnd@@MAEJIIJ@Z
	DD	FLAT:?PostNcDestroy@CWnd@@MAEXXZ
	DD	FLAT:?OnChildNotify@CWnd@@MAEHIIJPAJ@Z
	DD	FLAT:?OnTouchInputs@CWnd@@MAEHIPAUtagTOUCHINPUT@@@Z
	DD	FLAT:?OnTouchInput@CWnd@@MAEHVCPoint@@HHPAUtagTOUCHINPUT@@@Z
	DD	FLAT:?GetGestureStatus@CWnd@@MAEKVCPoint@@@Z
	DD	FLAT:?OnGestureZoom@CWnd@@MAEHVCPoint@@J@Z
	DD	FLAT:?OnGesturePan@CWnd@@MAEHVCPoint@@0@Z
	DD	FLAT:?OnGestureRotate@CWnd@@MAEHVCPoint@@N@Z
	DD	FLAT:?OnGestureTwoFingerTap@CWnd@@MAEHVCPoint@@@Z
	DD	FLAT:?OnGesturePressAndTap@CWnd@@MAEHVCPoint@@J@Z
	DD	FLAT:?ResizeDynamicLayout@CWnd@@MAEXXZ
	DD	FLAT:?CheckAutoCenter@CDialog@@UAEHXZ
	DD	FLAT:?IsFrameWnd@CWnd@@UBEHXZ
	DD	FLAT:?CreateControlContainer@CWnd@@MAEHPAPAVCOleControlContainer@@@Z
	DD	FLAT:?CreateControlSite@CWnd@@MAEHPAVCOleControlContainer@@PAPAVCOleControlSite@@IABU_GUID@@@Z
	DD	FLAT:?SetOccDialogInfo@CDialog@@MAEHPAU_AFX_OCC_DIALOG_INFO@@@Z
	DD	FLAT:?GetOccDialogInfo@CDialog@@MAEPAU_AFX_OCC_DIALOG_INFO@@XZ
	DD	FLAT:?Create@CRscDlg@@UAEHIPAVCWnd@@@Z
	DD	FLAT:?Create@CDialog@@UAEHPBDPAVCWnd@@@Z
	DD	FLAT:?CreateIndirect@CDialog@@UAEHPAXPAVCWnd@@@Z
	DD	FLAT:?CreateIndirect@CDialog@@UAEHPBUDLGTEMPLATE@@PAVCWnd@@PAX@Z
	DD	FLAT:?DoModal@CRscDlg@@UAEHXZ
	DD	FLAT:?OnInitDialog@CTabCodeSearchFO@@MAEHXZ
	DD	FLAT:?OnSetFont@CDialog@@UAEXPAVCFont@@@Z
	DD	FLAT:?OnOK@CDialog@@MAEXXZ
	DD	FLAT:?OnCancel@CDialog@@MAEXXZ
	DD	FLAT:?PreInitDialog@CDialog@@MAEXXZ
	DD	FLAT:?ChangeSkinColor@CRscDlg@@UAEXK@Z
	DD	FLAT:?SetBkColor@CRscDlg@@UAEXK@Z
	DD	FLAT:?ReceiveData@CTabDlg@@UAEXPAUHWND__@@PBD11PAXJ@Z
	DD	FLAT:?SetRealPriceData@CTabDlg@@UAEXPAX@Z
	DD	FLAT:?ReceiveDataFromOutSide@CTabDlg@@UAEXXZ
	DD	FLAT:?SetCodeFromOutSide@CTabDlg@@UAEXPBD@Z
	DD	FLAT:?GetRectOfCtrl@CTabCodeSearchFO@@UAE?AVCRect@@HH@Z
CONST	ENDS
;	COMDAT ??_7?$CList@U_codeinfo@@AAU1@@@6B@
CONST	SEGMENT
??_7?$CList@U_codeinfo@@AAU1@@@6B@ DD FLAT:??_R4?$CList@U_codeinfo@@AAU1@@@6B@ ; CList<_codeinfo,_codeinfo &>::`vftable'
	DD	FLAT:?GetRuntimeClass@CObject@@UBEPAUCRuntimeClass@@XZ
	DD	FLAT:??_E?$CList@U_codeinfo@@AAU1@@@UAEPAXI@Z
	DD	FLAT:?Serialize@?$CList@U_codeinfo@@AAU1@@@UAEXAAVCArchive@@@Z
	DD	FLAT:?AssertValid@CObject@@UBEXXZ
	DD	FLAT:?Dump@CObject@@UBEXAAVCDumpContext@@@Z
CONST	ENDS
;	COMDAT ??_R2CDialog@@8
rdata$r	SEGMENT
??_R2CDialog@@8 DD FLAT:??_R1A@?0A@EA@CDialog@@8	; CDialog::`RTTI Base Class Array'
	DD	FLAT:??_R1A@?0A@EA@CWnd@@8
	DD	FLAT:??_R1A@?0A@EA@CCmdTarget@@8
	DD	FLAT:??_R1A@?0A@EA@CObject@@8
rdata$r	ENDS
;	COMDAT ??_R3CDialog@@8
rdata$r	SEGMENT
??_R3CDialog@@8 DD 00H					; CDialog::`RTTI Class Hierarchy Descriptor'
	DD	00H
	DD	04H
	DD	FLAT:??_R2CDialog@@8
rdata$r	ENDS
;	COMDAT ??_R0?AVCDialog@@@8
data$rs	SEGMENT
??_R0?AVCDialog@@@8 DD FLAT:??_7type_info@@6B@		; CDialog `RTTI Type Descriptor'
	DD	00H
	DB	'.?AVCDialog@@', 00H
data$rs	ENDS
;	COMDAT ??_R1A@?0A@EA@CDialog@@8
rdata$r	SEGMENT
??_R1A@?0A@EA@CDialog@@8 DD FLAT:??_R0?AVCDialog@@@8	; CDialog::`RTTI Base Class Descriptor at (0,-1,0,64)'
	DD	03H
	DD	00H
	DD	0ffffffffH
	DD	00H
	DD	040H
	DD	FLAT:??_R3CDialog@@8
rdata$r	ENDS
;	COMDAT ??_R1A@?0A@EA@CListBox@@8
rdata$r	SEGMENT
??_R1A@?0A@EA@CListBox@@8 DD FLAT:??_R0?AVCListBox@@@8	; CListBox::`RTTI Base Class Descriptor at (0,-1,0,64)'
	DD	03H
	DD	00H
	DD	0ffffffffH
	DD	00H
	DD	040H
	DD	FLAT:??_R3CListBox@@8
rdata$r	ENDS
;	COMDAT ??_R2CListBox@@8
rdata$r	SEGMENT
??_R2CListBox@@8 DD FLAT:??_R1A@?0A@EA@CListBox@@8	; CListBox::`RTTI Base Class Array'
	DD	FLAT:??_R1A@?0A@EA@CWnd@@8
	DD	FLAT:??_R1A@?0A@EA@CCmdTarget@@8
	DD	FLAT:??_R1A@?0A@EA@CObject@@8
rdata$r	ENDS
;	COMDAT ??_R3CListBox@@8
rdata$r	SEGMENT
??_R3CListBox@@8 DD 00H					; CListBox::`RTTI Class Hierarchy Descriptor'
	DD	00H
	DD	04H
	DD	FLAT:??_R2CListBox@@8
rdata$r	ENDS
;	COMDAT ??_R0?AVCListBox@@@8
data$rs	SEGMENT
??_R0?AVCListBox@@@8 DD FLAT:??_7type_info@@6B@		; CListBox `RTTI Type Descriptor'
	DD	00H
	DB	'.?AVCListBox@@', 00H
data$rs	ENDS
;	COMDAT ??_R4CListBox@@6B@
rdata$r	SEGMENT
??_R4CListBox@@6B@ DD 00H				; CListBox::`RTTI Complete Object Locator'
	DD	00H
	DD	00H
	DD	FLAT:??_R0?AVCListBox@@@8
	DD	FLAT:??_R3CListBox@@8
rdata$r	ENDS
;	COMDAT ??_R1A@?0A@EA@CButton@@8
rdata$r	SEGMENT
??_R1A@?0A@EA@CButton@@8 DD FLAT:??_R0?AVCButton@@@8	; CButton::`RTTI Base Class Descriptor at (0,-1,0,64)'
	DD	03H
	DD	00H
	DD	0ffffffffH
	DD	00H
	DD	040H
	DD	FLAT:??_R3CButton@@8
rdata$r	ENDS
;	COMDAT ??_R2CButton@@8
rdata$r	SEGMENT
??_R2CButton@@8 DD FLAT:??_R1A@?0A@EA@CButton@@8	; CButton::`RTTI Base Class Array'
	DD	FLAT:??_R1A@?0A@EA@CWnd@@8
	DD	FLAT:??_R1A@?0A@EA@CCmdTarget@@8
	DD	FLAT:??_R1A@?0A@EA@CObject@@8
rdata$r	ENDS
;	COMDAT ??_R3CButton@@8
rdata$r	SEGMENT
??_R3CButton@@8 DD 00H					; CButton::`RTTI Class Hierarchy Descriptor'
	DD	00H
	DD	04H
	DD	FLAT:??_R2CButton@@8
rdata$r	ENDS
;	COMDAT ??_R0?AVCButton@@@8
data$rs	SEGMENT
??_R0?AVCButton@@@8 DD FLAT:??_7type_info@@6B@		; CButton `RTTI Type Descriptor'
	DD	00H
	DB	'.?AVCButton@@', 00H
data$rs	ENDS
;	COMDAT ??_R4CButton@@6B@
rdata$r	SEGMENT
??_R4CButton@@6B@ DD 00H				; CButton::`RTTI Complete Object Locator'
	DD	00H
	DD	00H
	DD	FLAT:??_R0?AVCButton@@@8
	DD	FLAT:??_R3CButton@@8
rdata$r	ENDS
;	COMDAT ??_R2CCmdTarget@@8
rdata$r	SEGMENT
??_R2CCmdTarget@@8 DD FLAT:??_R1A@?0A@EA@CCmdTarget@@8	; CCmdTarget::`RTTI Base Class Array'
	DD	FLAT:??_R1A@?0A@EA@CObject@@8
rdata$r	ENDS
;	COMDAT ??_R3CCmdTarget@@8
rdata$r	SEGMENT
??_R3CCmdTarget@@8 DD 00H				; CCmdTarget::`RTTI Class Hierarchy Descriptor'
	DD	00H
	DD	02H
	DD	FLAT:??_R2CCmdTarget@@8
rdata$r	ENDS
;	COMDAT ??_R0?AVCCmdTarget@@@8
data$rs	SEGMENT
??_R0?AVCCmdTarget@@@8 DD FLAT:??_7type_info@@6B@	; CCmdTarget `RTTI Type Descriptor'
	DD	00H
	DB	'.?AVCCmdTarget@@', 00H
data$rs	ENDS
;	COMDAT ??_R1A@?0A@EA@CCmdTarget@@8
rdata$r	SEGMENT
??_R1A@?0A@EA@CCmdTarget@@8 DD FLAT:??_R0?AVCCmdTarget@@@8 ; CCmdTarget::`RTTI Base Class Descriptor at (0,-1,0,64)'
	DD	01H
	DD	00H
	DD	0ffffffffH
	DD	00H
	DD	040H
	DD	FLAT:??_R3CCmdTarget@@8
rdata$r	ENDS
;	COMDAT ??_R2CWnd@@8
rdata$r	SEGMENT
??_R2CWnd@@8 DD	FLAT:??_R1A@?0A@EA@CWnd@@8		; CWnd::`RTTI Base Class Array'
	DD	FLAT:??_R1A@?0A@EA@CCmdTarget@@8
	DD	FLAT:??_R1A@?0A@EA@CObject@@8
rdata$r	ENDS
;	COMDAT ??_R3CWnd@@8
rdata$r	SEGMENT
??_R3CWnd@@8 DD	00H					; CWnd::`RTTI Class Hierarchy Descriptor'
	DD	00H
	DD	03H
	DD	FLAT:??_R2CWnd@@8
rdata$r	ENDS
;	COMDAT ??_R0?AVCWnd@@@8
data$rs	SEGMENT
??_R0?AVCWnd@@@8 DD FLAT:??_7type_info@@6B@		; CWnd `RTTI Type Descriptor'
	DD	00H
	DB	'.?AVCWnd@@', 00H
data$rs	ENDS
;	COMDAT ??_R1A@?0A@EA@CWnd@@8
rdata$r	SEGMENT
??_R1A@?0A@EA@CWnd@@8 DD FLAT:??_R0?AVCWnd@@@8		; CWnd::`RTTI Base Class Descriptor at (0,-1,0,64)'
	DD	02H
	DD	00H
	DD	0ffffffffH
	DD	00H
	DD	040H
	DD	FLAT:??_R3CWnd@@8
rdata$r	ENDS
;	COMDAT ??_R1A@?0A@EA@CObject@@8
rdata$r	SEGMENT
??_R1A@?0A@EA@CObject@@8 DD FLAT:??_R0?AVCObject@@@8	; CObject::`RTTI Base Class Descriptor at (0,-1,0,64)'
	DD	00H
	DD	00H
	DD	0ffffffffH
	DD	00H
	DD	040H
	DD	FLAT:??_R3CObject@@8
rdata$r	ENDS
;	COMDAT ??_R2CObject@@8
rdata$r	SEGMENT
??_R2CObject@@8 DD FLAT:??_R1A@?0A@EA@CObject@@8	; CObject::`RTTI Base Class Array'
rdata$r	ENDS
;	COMDAT ??_R3CObject@@8
rdata$r	SEGMENT
??_R3CObject@@8 DD 00H					; CObject::`RTTI Class Hierarchy Descriptor'
	DD	00H
	DD	01H
	DD	FLAT:??_R2CObject@@8
rdata$r	ENDS
;	COMDAT ??_R0?AVCObject@@@8
data$rs	SEGMENT
??_R0?AVCObject@@@8 DD FLAT:??_7type_info@@6B@		; CObject `RTTI Type Descriptor'
	DD	00H
	DB	'.?AVCObject@@', 00H
data$rs	ENDS
;	COMDAT ??_C@_02EMFKHFLK@?$CFX@
CONST	SEGMENT
??_C@_02EMFKHFLK@?$CFX@ DB '%X', 00H			; `string'
CONST	ENDS
;	COMDAT ??_C@_06NDLAHCHE@?$CFs?$CF08X@
CONST	SEGMENT
??_C@_06NDLAHCHE@?$CFs?$CF08X@ DB '%s%08X', 00H		; `string'
CONST	ENDS
;	COMDAT ??_C@_0P@IDMAJEGN@HANAROPCTRMAIN@
CONST	SEGMENT
??_C@_0P@IDMAJEGN@HANAROPCTRMAIN@ DB 'HANAROPCTRMAIN', 00H ; `string'
CONST	ENDS
;	COMDAT ??_C@_0M@CBBNGGHM@PcTrMng?4dll@
CONST	SEGMENT
??_C@_0M@CBBNGGHM@PcTrMng?4dll@ DB 'PcTrMng.dll', 00H	; `string'
CONST	ENDS
;	COMDAT ??_7CListBox@@6B@
CONST	SEGMENT
??_7CListBox@@6B@ DD FLAT:??_R4CListBox@@6B@		; CListBox::`vftable'
	DD	FLAT:?GetRuntimeClass@CListBox@@UBEPAUCRuntimeClass@@XZ
	DD	FLAT:??_ECListBox@@UAEPAXI@Z
	DD	FLAT:?Serialize@CObject@@UAEXAAVCArchive@@@Z
	DD	FLAT:?AssertValid@CObject@@UBEXXZ
	DD	FLAT:?Dump@CObject@@UBEXAAVCDumpContext@@@Z
	DD	FLAT:?OnCmdMsg@CCmdTarget@@UAEHIHPAXPAUAFX_CMDHANDLERINFO@@@Z
	DD	FLAT:?OnFinalRelease@CWnd@@UAEXXZ
	DD	FLAT:?IsInvokeAllowed@CCmdTarget@@UAEHJ@Z
	DD	FLAT:?GetDispatchIID@CCmdTarget@@UAEHPAU_GUID@@@Z
	DD	FLAT:?GetTypeInfoCount@CCmdTarget@@UAEIXZ
	DD	FLAT:?GetTypeLibCache@CCmdTarget@@UAEPAVCTypeLibCache@@XZ
	DD	FLAT:?GetTypeLib@CCmdTarget@@UAEJKPAPAUITypeLib@@@Z
	DD	FLAT:?GetMessageMap@CWnd@@MBEPBUAFX_MSGMAP@@XZ
	DD	FLAT:?GetCommandMap@CCmdTarget@@MBEPBUAFX_OLECMDMAP@@XZ
	DD	FLAT:?GetDispatchMap@CCmdTarget@@MBEPBUAFX_DISPMAP@@XZ
	DD	FLAT:?GetConnectionMap@CCmdTarget@@MBEPBUAFX_CONNECTIONMAP@@XZ
	DD	FLAT:?GetInterfaceMap@CWnd@@MBEPBUAFX_INTERFACEMAP@@XZ
	DD	FLAT:?GetEventSinkMap@CCmdTarget@@MBEPBUAFX_EVENTSINKMAP@@XZ
	DD	FLAT:?OnCreateAggregates@CCmdTarget@@UAEHXZ
	DD	FLAT:?GetInterfaceHook@CCmdTarget@@UAEPAUIUnknown@@PBX@Z
	DD	FLAT:?GetExtraConnectionPoints@CCmdTarget@@MAEHPAVCPtrArray@@@Z
	DD	FLAT:?GetConnectionHook@CCmdTarget@@MAEPAUIConnectionPoint@@ABU_GUID@@@Z
	DD	FLAT:?PreSubclassWindow@CWnd@@UAEXXZ
	DD	FLAT:?Create@CWnd@@UAEHPBD0KABUtagRECT@@PAV1@IPAUCCreateContext@@@Z
	DD	FLAT:?CreateEx@CWnd@@UAEHKPBD0KABUtagRECT@@PAV1@IPAX@Z
	DD	FLAT:?CreateEx@CWnd@@UAEHKPBD0KHHHHPAUHWND__@@PAUHMENU__@@PAX@Z
	DD	FLAT:?DestroyWindow@CWnd@@UAEHXZ
	DD	FLAT:?PreCreateWindow@CWnd@@UAEHAAUtagCREATESTRUCTA@@@Z
	DD	FLAT:?CalcWindowRect@CWnd@@UAEXPAUtagRECT@@I@Z
	DD	FLAT:?GetMenu@CWnd@@UBEPAVCMenu@@XZ
	DD	FLAT:?SetMenu@CWnd@@UAEHPAVCMenu@@@Z
	DD	FLAT:?OnToolHitTest@CWnd@@UBEHVCPoint@@PAUtagTOOLINFOA@@@Z
	DD	FLAT:?GetScrollBarCtrl@CWnd@@UBEPAVCScrollBar@@H@Z
	DD	FLAT:?WinHelpA@CWnd@@UAEXKI@Z
	DD	FLAT:?HtmlHelpA@CWnd@@UAEXKI@Z
	DD	FLAT:?WinHelpInternal@CWnd@@UAEXKI@Z
	DD	FLAT:?ContinueModal@CWnd@@UAEHXZ
	DD	FLAT:?EndModalLoop@CWnd@@UAEXH@Z
	DD	FLAT:?OnDrawIconicThumbnailOrLivePreview@CWnd@@UAEXAAVCDC@@VCRect@@VCSize@@HAAH@Z
	DD	FLAT:?EnsureStdObj@CWnd@@UAEJXZ
	DD	FLAT:?get_accParent@CWnd@@UAEJPAPAUIDispatch@@@Z
	DD	FLAT:?get_accChildCount@CWnd@@UAEJPAJ@Z
	DD	FLAT:?get_accChild@CWnd@@UAEJUtagVARIANT@@PAPAUIDispatch@@@Z
	DD	FLAT:?get_accName@CWnd@@UAEJUtagVARIANT@@PAPA_W@Z
	DD	FLAT:?get_accValue@CWnd@@UAEJUtagVARIANT@@PAPA_W@Z
	DD	FLAT:?get_accDescription@CWnd@@UAEJUtagVARIANT@@PAPA_W@Z
	DD	FLAT:?get_accRole@CWnd@@UAEJUtagVARIANT@@PAU2@@Z
	DD	FLAT:?get_accState@CWnd@@UAEJUtagVARIANT@@PAU2@@Z
	DD	FLAT:?get_accHelp@CWnd@@UAEJUtagVARIANT@@PAPA_W@Z
	DD	FLAT:?get_accHelpTopic@CWnd@@UAEJPAPA_WUtagVARIANT@@PAJ@Z
	DD	FLAT:?get_accKeyboardShortcut@CWnd@@UAEJUtagVARIANT@@PAPA_W@Z
	DD	FLAT:?get_accFocus@CWnd@@UAEJPAUtagVARIANT@@@Z
	DD	FLAT:?get_accSelection@CWnd@@UAEJPAUtagVARIANT@@@Z
	DD	FLAT:?get_accDefaultAction@CWnd@@UAEJUtagVARIANT@@PAPA_W@Z
	DD	FLAT:?accSelect@CWnd@@UAEJJUtagVARIANT@@@Z
	DD	FLAT:?accLocation@CWnd@@UAEJPAJ000UtagVARIANT@@@Z
	DD	FLAT:?accNavigate@CWnd@@UAEJJUtagVARIANT@@PAU2@@Z
	DD	FLAT:?accHitTest@CWnd@@UAEJJJPAUtagVARIANT@@@Z
	DD	FLAT:?accDoDefaultAction@CWnd@@UAEJUtagVARIANT@@@Z
	DD	FLAT:?put_accName@CWnd@@UAEJUtagVARIANT@@PA_W@Z
	DD	FLAT:?put_accValue@CWnd@@UAEJUtagVARIANT@@PA_W@Z
	DD	FLAT:?SetProxy@CWnd@@UAEJPAUIAccessibleProxy@@@Z
	DD	FLAT:?CreateAccessibleProxy@CWnd@@UAEJIJPAJ@Z
	DD	FLAT:?OnCommand@CWnd@@MAEHIJ@Z
	DD	FLAT:?OnNotify@CWnd@@MAEHIJPAJ@Z
	DD	FLAT:?GetSuperWndProcAddr@CWnd@@MAEPAP6GJPAUHWND__@@IIJ@ZXZ
	DD	FLAT:?DoDataExchange@CWnd@@MAEXPAVCDataExchange@@@Z
	DD	FLAT:?BeginModalState@CWnd@@UAEXXZ
	DD	FLAT:?EndModalState@CWnd@@UAEXXZ
	DD	FLAT:?PreTranslateMessage@CWnd@@UAEHPAUtagMSG@@@Z
	DD	FLAT:?OnAmbientProperty@CWnd@@UAEHPAVCOleControlSite@@JPAUtagVARIANT@@@Z
	DD	FLAT:?WindowProc@CWnd@@MAEJIIJ@Z
	DD	FLAT:?OnWndMsg@CWnd@@MAEHIIJPAJ@Z
	DD	FLAT:?DefWindowProcA@CWnd@@MAEJIIJ@Z
	DD	FLAT:?PostNcDestroy@CWnd@@MAEXXZ
	DD	FLAT:?OnChildNotify@CListBox@@MAEHIIJPAJ@Z
	DD	FLAT:?OnTouchInputs@CWnd@@MAEHIPAUtagTOUCHINPUT@@@Z
	DD	FLAT:?OnTouchInput@CWnd@@MAEHVCPoint@@HHPAUtagTOUCHINPUT@@@Z
	DD	FLAT:?GetGestureStatus@CWnd@@MAEKVCPoint@@@Z
	DD	FLAT:?OnGestureZoom@CWnd@@MAEHVCPoint@@J@Z
	DD	FLAT:?OnGesturePan@CWnd@@MAEHVCPoint@@0@Z
	DD	FLAT:?OnGestureRotate@CWnd@@MAEHVCPoint@@N@Z
	DD	FLAT:?OnGestureTwoFingerTap@CWnd@@MAEHVCPoint@@@Z
	DD	FLAT:?OnGesturePressAndTap@CWnd@@MAEHVCPoint@@J@Z
	DD	FLAT:?ResizeDynamicLayout@CWnd@@MAEXXZ
	DD	FLAT:?CheckAutoCenter@CWnd@@UAEHXZ
	DD	FLAT:?IsFrameWnd@CWnd@@UBEHXZ
	DD	FLAT:?CreateControlContainer@CWnd@@MAEHPAPAVCOleControlContainer@@@Z
	DD	FLAT:?CreateControlSite@CWnd@@MAEHPAVCOleControlContainer@@PAPAVCOleControlSite@@IABU_GUID@@@Z
	DD	FLAT:?SetOccDialogInfo@CWnd@@MAEHPAU_AFX_OCC_DIALOG_INFO@@@Z
	DD	FLAT:?GetOccDialogInfo@CWnd@@MAEPAU_AFX_OCC_DIALOG_INFO@@XZ
	DD	FLAT:?Create@CListBox@@UAEHKABUtagRECT@@PAVCWnd@@I@Z
	DD	FLAT:?DrawItem@CListBox@@UAEXPAUtagDRAWITEMSTRUCT@@@Z
	DD	FLAT:?MeasureItem@CListBox@@UAEXPAUtagMEASUREITEMSTRUCT@@@Z
	DD	FLAT:?CompareItem@CListBox@@UAEHPAUtagCOMPAREITEMSTRUCT@@@Z
	DD	FLAT:?DeleteItem@CListBox@@UAEXPAUtagDELETEITEMSTRUCT@@@Z
	DD	FLAT:?VKeyToItem@CListBox@@UAEHII@Z
	DD	FLAT:?CharToItem@CListBox@@UAEHII@Z
CONST	ENDS
;	COMDAT ??_7CButton@@6B@
CONST	SEGMENT
??_7CButton@@6B@ DD FLAT:??_R4CButton@@6B@		; CButton::`vftable'
	DD	FLAT:?GetRuntimeClass@CButton@@UBEPAUCRuntimeClass@@XZ
	DD	FLAT:??_ECButton@@UAEPAXI@Z
	DD	FLAT:?Serialize@CObject@@UAEXAAVCArchive@@@Z
	DD	FLAT:?AssertValid@CObject@@UBEXXZ
	DD	FLAT:?Dump@CObject@@UBEXAAVCDumpContext@@@Z
	DD	FLAT:?OnCmdMsg@CCmdTarget@@UAEHIHPAXPAUAFX_CMDHANDLERINFO@@@Z
	DD	FLAT:?OnFinalRelease@CWnd@@UAEXXZ
	DD	FLAT:?IsInvokeAllowed@CCmdTarget@@UAEHJ@Z
	DD	FLAT:?GetDispatchIID@CCmdTarget@@UAEHPAU_GUID@@@Z
	DD	FLAT:?GetTypeInfoCount@CCmdTarget@@UAEIXZ
	DD	FLAT:?GetTypeLibCache@CCmdTarget@@UAEPAVCTypeLibCache@@XZ
	DD	FLAT:?GetTypeLib@CCmdTarget@@UAEJKPAPAUITypeLib@@@Z
	DD	FLAT:?GetMessageMap@CWnd@@MBEPBUAFX_MSGMAP@@XZ
	DD	FLAT:?GetCommandMap@CCmdTarget@@MBEPBUAFX_OLECMDMAP@@XZ
	DD	FLAT:?GetDispatchMap@CCmdTarget@@MBEPBUAFX_DISPMAP@@XZ
	DD	FLAT:?GetConnectionMap@CCmdTarget@@MBEPBUAFX_CONNECTIONMAP@@XZ
	DD	FLAT:?GetInterfaceMap@CWnd@@MBEPBUAFX_INTERFACEMAP@@XZ
	DD	FLAT:?GetEventSinkMap@CCmdTarget@@MBEPBUAFX_EVENTSINKMAP@@XZ
	DD	FLAT:?OnCreateAggregates@CCmdTarget@@UAEHXZ
	DD	FLAT:?GetInterfaceHook@CCmdTarget@@UAEPAUIUnknown@@PBX@Z
	DD	FLAT:?GetExtraConnectionPoints@CCmdTarget@@MAEHPAVCPtrArray@@@Z
	DD	FLAT:?GetConnectionHook@CCmdTarget@@MAEPAUIConnectionPoint@@ABU_GUID@@@Z
	DD	FLAT:?PreSubclassWindow@CWnd@@UAEXXZ
	DD	FLAT:?Create@CWnd@@UAEHPBD0KABUtagRECT@@PAV1@IPAUCCreateContext@@@Z
	DD	FLAT:?CreateEx@CWnd@@UAEHKPBD0KABUtagRECT@@PAV1@IPAX@Z
	DD	FLAT:?CreateEx@CWnd@@UAEHKPBD0KHHHHPAUHWND__@@PAUHMENU__@@PAX@Z
	DD	FLAT:?DestroyWindow@CWnd@@UAEHXZ
	DD	FLAT:?PreCreateWindow@CWnd@@UAEHAAUtagCREATESTRUCTA@@@Z
	DD	FLAT:?CalcWindowRect@CWnd@@UAEXPAUtagRECT@@I@Z
	DD	FLAT:?GetMenu@CWnd@@UBEPAVCMenu@@XZ
	DD	FLAT:?SetMenu@CWnd@@UAEHPAVCMenu@@@Z
	DD	FLAT:?OnToolHitTest@CWnd@@UBEHVCPoint@@PAUtagTOOLINFOA@@@Z
	DD	FLAT:?GetScrollBarCtrl@CWnd@@UBEPAVCScrollBar@@H@Z
	DD	FLAT:?WinHelpA@CWnd@@UAEXKI@Z
	DD	FLAT:?HtmlHelpA@CWnd@@UAEXKI@Z
	DD	FLAT:?WinHelpInternal@CWnd@@UAEXKI@Z
	DD	FLAT:?ContinueModal@CWnd@@UAEHXZ
	DD	FLAT:?EndModalLoop@CWnd@@UAEXH@Z
	DD	FLAT:?OnDrawIconicThumbnailOrLivePreview@CWnd@@UAEXAAVCDC@@VCRect@@VCSize@@HAAH@Z
	DD	FLAT:?EnsureStdObj@CWnd@@UAEJXZ
	DD	FLAT:?get_accParent@CWnd@@UAEJPAPAUIDispatch@@@Z
	DD	FLAT:?get_accChildCount@CWnd@@UAEJPAJ@Z
	DD	FLAT:?get_accChild@CWnd@@UAEJUtagVARIANT@@PAPAUIDispatch@@@Z
	DD	FLAT:?get_accName@CWnd@@UAEJUtagVARIANT@@PAPA_W@Z
	DD	FLAT:?get_accValue@CWnd@@UAEJUtagVARIANT@@PAPA_W@Z
	DD	FLAT:?get_accDescription@CWnd@@UAEJUtagVARIANT@@PAPA_W@Z
	DD	FLAT:?get_accRole@CWnd@@UAEJUtagVARIANT@@PAU2@@Z
	DD	FLAT:?get_accState@CWnd@@UAEJUtagVARIANT@@PAU2@@Z
	DD	FLAT:?get_accHelp@CWnd@@UAEJUtagVARIANT@@PAPA_W@Z
	DD	FLAT:?get_accHelpTopic@CWnd@@UAEJPAPA_WUtagVARIANT@@PAJ@Z
	DD	FLAT:?get_accKeyboardShortcut@CWnd@@UAEJUtagVARIANT@@PAPA_W@Z
	DD	FLAT:?get_accFocus@CWnd@@UAEJPAUtagVARIANT@@@Z
	DD	FLAT:?get_accSelection@CWnd@@UAEJPAUtagVARIANT@@@Z
	DD	FLAT:?get_accDefaultAction@CWnd@@UAEJUtagVARIANT@@PAPA_W@Z
	DD	FLAT:?accSelect@CWnd@@UAEJJUtagVARIANT@@@Z
	DD	FLAT:?accLocation@CWnd@@UAEJPAJ000UtagVARIANT@@@Z
	DD	FLAT:?accNavigate@CWnd@@UAEJJUtagVARIANT@@PAU2@@Z
	DD	FLAT:?accHitTest@CWnd@@UAEJJJPAUtagVARIANT@@@Z
	DD	FLAT:?accDoDefaultAction@CWnd@@UAEJUtagVARIANT@@@Z
	DD	FLAT:?put_accName@CWnd@@UAEJUtagVARIANT@@PA_W@Z
	DD	FLAT:?put_accValue@CWnd@@UAEJUtagVARIANT@@PA_W@Z
	DD	FLAT:?SetProxy@CWnd@@UAEJPAUIAccessibleProxy@@@Z
	DD	FLAT:?CreateAccessibleProxy@CWnd@@UAEJIJPAJ@Z
	DD	FLAT:?OnCommand@CWnd@@MAEHIJ@Z
	DD	FLAT:?OnNotify@CWnd@@MAEHIJPAJ@Z
	DD	FLAT:?GetSuperWndProcAddr@CWnd@@MAEPAP6GJPAUHWND__@@IIJ@ZXZ
	DD	FLAT:?DoDataExchange@CWnd@@MAEXPAVCDataExchange@@@Z
	DD	FLAT:?BeginModalState@CWnd@@UAEXXZ
	DD	FLAT:?EndModalState@CWnd@@UAEXXZ
	DD	FLAT:?PreTranslateMessage@CWnd@@UAEHPAUtagMSG@@@Z
	DD	FLAT:?OnAmbientProperty@CWnd@@UAEHPAVCOleControlSite@@JPAUtagVARIANT@@@Z
	DD	FLAT:?WindowProc@CWnd@@MAEJIIJ@Z
	DD	FLAT:?OnWndMsg@CWnd@@MAEHIIJPAJ@Z
	DD	FLAT:?DefWindowProcA@CWnd@@MAEJIIJ@Z
	DD	FLAT:?PostNcDestroy@CWnd@@MAEXXZ
	DD	FLAT:?OnChildNotify@CButton@@MAEHIIJPAJ@Z
	DD	FLAT:?OnTouchInputs@CWnd@@MAEHIPAUtagTOUCHINPUT@@@Z
	DD	FLAT:?OnTouchInput@CWnd@@MAEHVCPoint@@HHPAUtagTOUCHINPUT@@@Z
	DD	FLAT:?GetGestureStatus@CWnd@@MAEKVCPoint@@@Z
	DD	FLAT:?OnGestureZoom@CWnd@@MAEHVCPoint@@J@Z
	DD	FLAT:?OnGesturePan@CWnd@@MAEHVCPoint@@0@Z
	DD	FLAT:?OnGestureRotate@CWnd@@MAEHVCPoint@@N@Z
	DD	FLAT:?OnGestureTwoFingerTap@CWnd@@MAEHVCPoint@@@Z
	DD	FLAT:?OnGesturePressAndTap@CWnd@@MAEHVCPoint@@J@Z
	DD	FLAT:?ResizeDynamicLayout@CWnd@@MAEXXZ
	DD	FLAT:?CheckAutoCenter@CWnd@@UAEHXZ
	DD	FLAT:?IsFrameWnd@CWnd@@UBEHXZ
	DD	FLAT:?CreateControlContainer@CWnd@@MAEHPAPAVCOleControlContainer@@@Z
	DD	FLAT:?CreateControlSite@CWnd@@MAEHPAVCOleControlContainer@@PAPAVCOleControlSite@@IABU_GUID@@@Z
	DD	FLAT:?SetOccDialogInfo@CWnd@@MAEHPAU_AFX_OCC_DIALOG_INFO@@@Z
	DD	FLAT:?GetOccDialogInfo@CWnd@@MAEPAU_AFX_OCC_DIALOG_INFO@@XZ
	DD	FLAT:?Create@CButton@@UAEHPBDKABUtagRECT@@PAVCWnd@@I@Z
	DD	FLAT:?DrawItem@CButton@@UAEXPAUtagDRAWITEMSTRUCT@@@Z
CONST	ENDS
;	COMDAT ??_C@_00CNPNBAHC@@
CONST	SEGMENT
??_C@_00CNPNBAHC@@ DB 00H				; `string'
CONST	ENDS
;	COMDAT ??_C@_01PLPBNMEI@M@
CONST	SEGMENT
??_C@_01PLPBNMEI@M@ DB 'M', 00H				; `string'
CONST	ENDS
;	COMDAT xdata$x
xdata$x	SEGMENT
__unwindtable$??_GCTabCodeSearchFO@@UAEPAXI@Z DD 0ffffffffH
	DD	FLAT:___std_terminate
	DD	00H
	DD	FLAT:___std_terminate
__ehfuncinfo$??_GCTabCodeSearchFO@@UAEPAXI@Z DD 019930522H
	DD	02H
	DD	FLAT:__unwindtable$??_GCTabCodeSearchFO@@UAEPAXI@Z
	DD	2 DUP(00H)
	DD	2 DUP(00H)
	DD	00H
	DD	05H
xdata$x	ENDS
;	COMDAT xdata$x
xdata$x	SEGMENT
__unwindtable$??1CTabCodeSearchFO@@UAE@XZ DD 0ffffffffH
	DD	FLAT:___std_terminate
__ehfuncinfo$??1CTabCodeSearchFO@@UAE@XZ DD 019930522H
	DD	01H
	DD	FLAT:__unwindtable$??1CTabCodeSearchFO@@UAE@XZ
	DD	2 DUP(00H)
	DD	2 DUP(00H)
	DD	00H
	DD	05H
xdata$x	ENDS
;	COMDAT xdata$x
xdata$x	SEGMENT
__ehfuncinfo$?OnDblclkListFuture@CTabCodeSearchFO@@IAEXXZ DD 019930522H
	DD	09H
	DD	FLAT:__unwindtable$?OnDblclkListFuture@CTabCodeSearchFO@@IAEXXZ
	DD	2 DUP(00H)
	DD	2 DUP(00H)
	DD	00H
	DD	01H
__unwindtable$?OnDblclkListFuture@CTabCodeSearchFO@@IAEXXZ DD 0ffffffffH
	DD	FLAT:__unwindfunclet$?OnDblclkListFuture@CTabCodeSearchFO@@IAEXXZ$0
	DD	00H
	DD	FLAT:__unwindfunclet$?OnDblclkListFuture@CTabCodeSearchFO@@IAEXXZ$1
	DD	01H
	DD	FLAT:__unwindfunclet$?OnDblclkListFuture@CTabCodeSearchFO@@IAEXXZ$2
	DD	01H
	DD	FLAT:__unwindfunclet$?OnDblclkListFuture@CTabCodeSearchFO@@IAEXXZ$3
	DD	01H
	DD	FLAT:__unwindfunclet$?OnDblclkListFuture@CTabCodeSearchFO@@IAEXXZ$4
	DD	01H
	DD	FLAT:__unwindfunclet$?OnDblclkListFuture@CTabCodeSearchFO@@IAEXXZ$5
	DD	05H
	DD	FLAT:__unwindfunclet$?OnDblclkListFuture@CTabCodeSearchFO@@IAEXXZ$6
	DD	06H
	DD	FLAT:__unwindfunclet$?OnDblclkListFuture@CTabCodeSearchFO@@IAEXXZ$7
	DD	07H
	DD	FLAT:__unwindfunclet$?OnDblclkListFuture@CTabCodeSearchFO@@IAEXXZ$8
xdata$x	ENDS
;	COMDAT xdata$x
xdata$x	SEGMENT
__ehfuncinfo$?OnSelchangeListFuture@CTabCodeSearchFO@@IAEXXZ DD 019930522H
	DD	07H
	DD	FLAT:__unwindtable$?OnSelchangeListFuture@CTabCodeSearchFO@@IAEXXZ
	DD	2 DUP(00H)
	DD	2 DUP(00H)
	DD	00H
	DD	01H
__unwindtable$?OnSelchangeListFuture@CTabCodeSearchFO@@IAEXXZ DD 0ffffffffH
	DD	FLAT:__unwindfunclet$?OnSelchangeListFuture@CTabCodeSearchFO@@IAEXXZ$0
	DD	00H
	DD	FLAT:__unwindfunclet$?OnSelchangeListFuture@CTabCodeSearchFO@@IAEXXZ$1
	DD	00H
	DD	FLAT:__unwindfunclet$?OnSelchangeListFuture@CTabCodeSearchFO@@IAEXXZ$2
	DD	00H
	DD	FLAT:__unwindfunclet$?OnSelchangeListFuture@CTabCodeSearchFO@@IAEXXZ$3
	DD	00H
	DD	FLAT:__unwindfunclet$?OnSelchangeListFuture@CTabCodeSearchFO@@IAEXXZ$4
	DD	04H
	DD	FLAT:__unwindfunclet$?OnSelchangeListFuture@CTabCodeSearchFO@@IAEXXZ$5
	DD	05H
	DD	FLAT:__unwindfunclet$?OnSelchangeListFuture@CTabCodeSearchFO@@IAEXXZ$6
xdata$x	ENDS
;	COMDAT xdata$x
xdata$x	SEGMENT
__unwindtable$?OnInitDialog@CTabCodeSearchFO@@MAEHXZ DD 0ffffffffH
	DD	FLAT:__unwindfunclet$?OnInitDialog@CTabCodeSearchFO@@MAEHXZ$0
__ehfuncinfo$?OnInitDialog@CTabCodeSearchFO@@MAEHXZ DD 019930522H
	DD	01H
	DD	FLAT:__unwindtable$?OnInitDialog@CTabCodeSearchFO@@MAEHXZ
	DD	2 DUP(00H)
	DD	2 DUP(00H)
	DD	00H
	DD	01H
xdata$x	ENDS
;	COMDAT xdata$x
xdata$x	SEGMENT
__unwindtable$?GetCodeInfo@CTabCodeSearchFO@@QAEHHAAH0AAV?$CStringT@DV?$StrTraitMFC_DLL@DV?$ChTraitsCRT@D@ATL@@@@@ATL@@@Z DD 0ffffffffH
	DD	FLAT:__unwindfunclet$?GetCodeInfo@CTabCodeSearchFO@@QAEHHAAH0AAV?$CStringT@DV?$StrTraitMFC_DLL@DV?$ChTraitsCRT@D@ATL@@@@@ATL@@@Z$0
	DD	00H
	DD	FLAT:__unwindfunclet$?GetCodeInfo@CTabCodeSearchFO@@QAEHHAAH0AAV?$CStringT@DV?$StrTraitMFC_DLL@DV?$ChTraitsCRT@D@ATL@@@@@ATL@@@Z$1
__ehfuncinfo$?GetCodeInfo@CTabCodeSearchFO@@QAEHHAAH0AAV?$CStringT@DV?$StrTraitMFC_DLL@DV?$ChTraitsCRT@D@ATL@@@@@ATL@@@Z DD 019930522H
	DD	02H
	DD	FLAT:__unwindtable$?GetCodeInfo@CTabCodeSearchFO@@QAEHHAAH0AAV?$CStringT@DV?$StrTraitMFC_DLL@DV?$ChTraitsCRT@D@ATL@@@@@ATL@@@Z
	DD	2 DUP(00H)
	DD	2 DUP(00H)
	DD	00H
	DD	01H
xdata$x	ENDS
;	COMDAT xdata$x
xdata$x	SEGMENT
__unwindtable$?UpdateHogaData@CTabCodeSearchFO@@QAEXHHNKH@Z DD 0ffffffffH
	DD	FLAT:__unwindfunclet$?UpdateHogaData@CTabCodeSearchFO@@QAEXHHNKH@Z$0
__ehfuncinfo$?UpdateHogaData@CTabCodeSearchFO@@QAEXHHNKH@Z DD 019930522H
	DD	01H
	DD	FLAT:__unwindtable$?UpdateHogaData@CTabCodeSearchFO@@QAEXHHNKH@Z
	DD	2 DUP(00H)
	DD	2 DUP(00H)
	DD	00H
	DD	01H
xdata$x	ENDS
;	COMDAT xdata$x
xdata$x	SEGMENT
__ehfuncinfo$?InitMasterData@CTabCodeSearchFO@@QAEHXZ DD 019930522H
	DD	010H
	DD	FLAT:__unwindtable$?InitMasterData@CTabCodeSearchFO@@QAEHXZ
	DD	2 DUP(00H)
	DD	2 DUP(00H)
	DD	00H
	DD	01H
__unwindtable$?InitMasterData@CTabCodeSearchFO@@QAEHXZ DD 0ffffffffH
	DD	FLAT:__unwindfunclet$?InitMasterData@CTabCodeSearchFO@@QAEHXZ$0
	DD	0ffffffffH
	DD	FLAT:__unwindfunclet$?InitMasterData@CTabCodeSearchFO@@QAEHXZ$1
	DD	0ffffffffH
	DD	FLAT:__unwindfunclet$?InitMasterData@CTabCodeSearchFO@@QAEHXZ$2
	DD	0ffffffffH
	DD	FLAT:__unwindfunclet$?InitMasterData@CTabCodeSearchFO@@QAEHXZ$3
	DD	0ffffffffH
	DD	FLAT:__unwindfunclet$?InitMasterData@CTabCodeSearchFO@@QAEHXZ$4
	DD	0ffffffffH
	DD	FLAT:__unwindfunclet$?InitMasterData@CTabCodeSearchFO@@QAEHXZ$5
	DD	0ffffffffH
	DD	FLAT:__unwindfunclet$?InitMasterData@CTabCodeSearchFO@@QAEHXZ$6
	DD	0ffffffffH
	DD	FLAT:__unwindfunclet$?InitMasterData@CTabCodeSearchFO@@QAEHXZ$7
	DD	07H
	DD	FLAT:__unwindfunclet$?InitMasterData@CTabCodeSearchFO@@QAEHXZ$8
	DD	08H
	DD	FLAT:__unwindfunclet$?InitMasterData@CTabCodeSearchFO@@QAEHXZ$9
	DD	09H
	DD	FLAT:__unwindfunclet$?InitMasterData@CTabCodeSearchFO@@QAEHXZ$10
	DD	0aH
	DD	FLAT:__unwindfunclet$?InitMasterData@CTabCodeSearchFO@@QAEHXZ$11
	DD	0bH
	DD	FLAT:__unwindfunclet$?InitMasterData@CTabCodeSearchFO@@QAEHXZ$15
	DD	0bH
	DD	FLAT:__unwindfunclet$?InitMasterData@CTabCodeSearchFO@@QAEHXZ$18
	DD	0bH
	DD	FLAT:__unwindfunclet$?InitMasterData@CTabCodeSearchFO@@QAEHXZ$20
	DD	0bH
	DD	FLAT:__unwindfunclet$?InitMasterData@CTabCodeSearchFO@@QAEHXZ$22
xdata$x	ENDS
;	COMDAT xdata$x
xdata$x	SEGMENT
__unwindtable$?GetInsertGridDataText@CTabCodeSearchFO@@QAE?AV?$CStringT@DV?$StrTraitMFC_DLL@DV?$ChTraitsCRT@D@ATL@@@@@ATL@@HH@Z DD 0ffffffffH
	DD	FLAT:__unwindfunclet$?GetInsertGridDataText@CTabCodeSearchFO@@QAE?AV?$CStringT@DV?$StrTraitMFC_DLL@DV?$ChTraitsCRT@D@ATL@@@@@ATL@@HH@Z$1
__ehfuncinfo$?GetInsertGridDataText@CTabCodeSearchFO@@QAE?AV?$CStringT@DV?$StrTraitMFC_DLL@DV?$ChTraitsCRT@D@ATL@@@@@ATL@@HH@Z DD 019930522H
	DD	01H
	DD	FLAT:__unwindtable$?GetInsertGridDataText@CTabCodeSearchFO@@QAE?AV?$CStringT@DV?$StrTraitMFC_DLL@DV?$ChTraitsCRT@D@ATL@@@@@ATL@@HH@Z
	DD	2 DUP(00H)
	DD	2 DUP(00H)
	DD	00H
	DD	01H
xdata$x	ENDS
;	COMDAT xdata$x
xdata$x	SEGMENT
__ehfuncinfo$?InsertMasterData@CTabCodeSearchFO@@QAEXH@Z DD 019930522H
	DD	05H
	DD	FLAT:__unwindtable$?InsertMasterData@CTabCodeSearchFO@@QAEXH@Z
	DD	2 DUP(00H)
	DD	2 DUP(00H)
	DD	00H
	DD	01H
__unwindtable$?InsertMasterData@CTabCodeSearchFO@@QAEXH@Z DD 0ffffffffH
	DD	FLAT:__unwindfunclet$?InsertMasterData@CTabCodeSearchFO@@QAEXH@Z$0
	DD	00H
	DD	FLAT:__unwindfunclet$?InsertMasterData@CTabCodeSearchFO@@QAEXH@Z$1
	DD	01H
	DD	FLAT:__unwindfunclet$?InsertMasterData@CTabCodeSearchFO@@QAEXH@Z$2
	DD	02H
	DD	FLAT:__unwindfunclet$?InsertMasterData@CTabCodeSearchFO@@QAEXH@Z$3
	DD	03H
	DD	FLAT:__unwindfunclet$?InsertMasterData@CTabCodeSearchFO@@QAEXH@Z$4
xdata$x	ENDS
;	COMDAT xdata$x
xdata$x	SEGMENT
__unwindtable$?InsertGridData@CTabCodeSearchFO@@QAEXXZ DD 0ffffffffH
	DD	FLAT:__unwindfunclet$?InsertGridData@CTabCodeSearchFO@@QAEXXZ$0
	DD	00H
	DD	FLAT:__unwindfunclet$?InsertGridData@CTabCodeSearchFO@@QAEXXZ$4
	DD	00H
	DD	FLAT:__unwindfunclet$?InsertGridData@CTabCodeSearchFO@@QAEXXZ$1
__ehfuncinfo$?InsertGridData@CTabCodeSearchFO@@QAEXXZ DD 019930522H
	DD	03H
	DD	FLAT:__unwindtable$?InsertGridData@CTabCodeSearchFO@@QAEXXZ
	DD	2 DUP(00H)
	DD	2 DUP(00H)
	DD	00H
	DD	01H
xdata$x	ENDS
;	COMDAT xdata$x
xdata$x	SEGMENT
__catchsym$?InitGridRowCol@CTabCodeSearchFO@@QAEXXZ$2 DD 00H
	DD	FLAT:??_R0PAVCMemoryException@@@8
	DD	0ffffffecH
	DD	FLAT:__catch$?InitGridRowCol@CTabCodeSearchFO@@QAEXXZ$0
__unwindtable$?InitGridRowCol@CTabCodeSearchFO@@QAEXXZ DD 0ffffffffH
	DD	00H
	DD	0ffffffffH
	DD	00H
__tryblocktable$?InitGridRowCol@CTabCodeSearchFO@@QAEXXZ DD 00H
	DD	00H
	DD	01H
	DD	01H
	DD	FLAT:__catchsym$?InitGridRowCol@CTabCodeSearchFO@@QAEXXZ$2
__ehfuncinfo$?InitGridRowCol@CTabCodeSearchFO@@QAEXXZ DD 019930522H
	DD	02H
	DD	FLAT:__unwindtable$?InitGridRowCol@CTabCodeSearchFO@@QAEXXZ
	DD	01H
	DD	FLAT:__tryblocktable$?InitGridRowCol@CTabCodeSearchFO@@QAEXXZ
	DD	2 DUP(00H)
	DD	00H
	DD	01H
xdata$x	ENDS
;	COMDAT xdata$x
xdata$x	SEGMENT
__unwindtable$?InitGrid@CTabCodeSearchFO@@QAEXXZ DD 0ffffffffH
	DD	FLAT:__unwindfunclet$?InitGrid@CTabCodeSearchFO@@QAEXXZ$0
	DD	00H
	DD	FLAT:__unwindfunclet$?InitGrid@CTabCodeSearchFO@@QAEXXZ$1
__ehfuncinfo$?InitGrid@CTabCodeSearchFO@@QAEXXZ DD 019930522H
	DD	02H
	DD	FLAT:__unwindtable$?InitGrid@CTabCodeSearchFO@@QAEXXZ
	DD	2 DUP(00H)
	DD	2 DUP(00H)
	DD	00H
	DD	01H
xdata$x	ENDS
;	COMDAT xdata$x
xdata$x	SEGMENT
__ehfuncinfo$?WindowProc@CTabCodeSearchFO@@MAEJIIJ@Z DD 019930522H
	DD	0bH
	DD	FLAT:__unwindtable$?WindowProc@CTabCodeSearchFO@@MAEJIIJ@Z
	DD	2 DUP(00H)
	DD	2 DUP(00H)
	DD	00H
	DD	01H
__unwindtable$?WindowProc@CTabCodeSearchFO@@MAEJIIJ@Z DD 0ffffffffH
	DD	FLAT:__unwindfunclet$?WindowProc@CTabCodeSearchFO@@MAEJIIJ@Z$0
	DD	00H
	DD	FLAT:__unwindfunclet$?WindowProc@CTabCodeSearchFO@@MAEJIIJ@Z$1
	DD	01H
	DD	FLAT:__unwindfunclet$?WindowProc@CTabCodeSearchFO@@MAEJIIJ@Z$2
	DD	02H
	DD	FLAT:__unwindfunclet$?WindowProc@CTabCodeSearchFO@@MAEJIIJ@Z$3
	DD	02H
	DD	FLAT:__unwindfunclet$?WindowProc@CTabCodeSearchFO@@MAEJIIJ@Z$4
	DD	02H
	DD	FLAT:__unwindfunclet$?WindowProc@CTabCodeSearchFO@@MAEJIIJ@Z$5
	DD	02H
	DD	FLAT:__unwindfunclet$?WindowProc@CTabCodeSearchFO@@MAEJIIJ@Z$6
	DD	02H
	DD	FLAT:__unwindfunclet$?WindowProc@CTabCodeSearchFO@@MAEJIIJ@Z$7
	DD	02H
	DD	FLAT:__unwindfunclet$?WindowProc@CTabCodeSearchFO@@MAEJIIJ@Z$8
	DD	02H
	DD	FLAT:__unwindfunclet$?WindowProc@CTabCodeSearchFO@@MAEJIIJ@Z$9
	DD	09H
	DD	FLAT:__unwindfunclet$?WindowProc@CTabCodeSearchFO@@MAEJIIJ@Z$10
xdata$x	ENDS
;	COMDAT xdata$x
xdata$x	SEGMENT
__unwindtable$??_G?$CList@U_codeinfo@@AAU1@@@UAEPAXI@Z DD 0ffffffffH
	DD	FLAT:___std_terminate
__ehfuncinfo$??_G?$CList@U_codeinfo@@AAU1@@@UAEPAXI@Z DD 019930522H
	DD	01H
	DD	FLAT:__unwindtable$??_G?$CList@U_codeinfo@@AAU1@@@UAEPAXI@Z
	DD	2 DUP(00H)
	DD	2 DUP(00H)
	DD	00H
	DD	05H
xdata$x	ENDS
;	COMDAT xdata$x
xdata$x	SEGMENT
__ehfuncinfo$??1?$CList@U_codeinfo@@AAU1@@@UAE@XZ DD 019930522H
	DD	00H
	DD	00H
	DD	2 DUP(00H)
	DD	2 DUP(00H)
	DD	00H
	DD	05H
xdata$x	ENDS
;	COMDAT xdata$x
xdata$x	SEGMENT
__ehfuncinfo$??0CTabCodeSearchFO@@QAE@PAVCWnd@@@Z DD 019930522H
	DD	0cH
	DD	FLAT:__unwindtable$??0CTabCodeSearchFO@@QAE@PAVCWnd@@@Z
	DD	2 DUP(00H)
	DD	2 DUP(00H)
	DD	00H
	DD	01H
__unwindtable$??0CTabCodeSearchFO@@QAE@PAVCWnd@@@Z DD 0ffffffffH
	DD	FLAT:__unwindfunclet$??0CTabCodeSearchFO@@QAE@PAVCWnd@@@Z$0
	DD	00H
	DD	FLAT:__unwindfunclet$??0CTabCodeSearchFO@@QAE@PAVCWnd@@@Z$1
	DD	01H
	DD	FLAT:__unwindfunclet$??0CTabCodeSearchFO@@QAE@PAVCWnd@@@Z$2
	DD	02H
	DD	FLAT:__unwindfunclet$??0CTabCodeSearchFO@@QAE@PAVCWnd@@@Z$3
	DD	03H
	DD	FLAT:__unwindfunclet$??0CTabCodeSearchFO@@QAE@PAVCWnd@@@Z$4
	DD	04H
	DD	FLAT:__unwindfunclet$??0CTabCodeSearchFO@@QAE@PAVCWnd@@@Z$5
	DD	05H
	DD	FLAT:__unwindfunclet$??0CTabCodeSearchFO@@QAE@PAVCWnd@@@Z$6
	DD	06H
	DD	FLAT:__unwindfunclet$??0CTabCodeSearchFO@@QAE@PAVCWnd@@@Z$7
	DD	07H
	DD	FLAT:__unwindfunclet$??0CTabCodeSearchFO@@QAE@PAVCWnd@@@Z$8
	DD	08H
	DD	FLAT:__unwindfunclet$??0CTabCodeSearchFO@@QAE@PAVCWnd@@@Z$9
	DD	09H
	DD	FLAT:__unwindfunclet$??0CTabCodeSearchFO@@QAE@PAVCWnd@@@Z$10
	DD	0aH
	DD	FLAT:__unwindfunclet$??0CTabCodeSearchFO@@QAE@PAVCWnd@@@Z$11
xdata$x	ENDS
;	COMDAT xdata$x
xdata$x	SEGMENT
__unwindtable$?AfxGetPctrData@@YGJH@Z DD 0ffffffffH
	DD	FLAT:__unwindfunclet$?AfxGetPctrData@@YGJH@Z$0
__ehfuncinfo$?AfxGetPctrData@@YGJH@Z DD 019930522H
	DD	01H
	DD	FLAT:__unwindtable$?AfxGetPctrData@@YGJH@Z
	DD	2 DUP(00H)
	DD	2 DUP(00H)
	DD	00H
	DD	01H
xdata$x	ENDS
CRT$XCU	SEGMENT
?RMSG_GETSIGNAL_REAL$initializer$@@3P6AXXZA DD FLAT:??__ERMSG_GETSIGNAL_REAL@@YAXXZ ; RMSG_GETSIGNAL_REAL$initializer$
CRT$XCU	ENDS
CRT$XCU	SEGMENT
?RMSG_CHARTMAIN$initializer$@@3P6AXXZA DD FLAT:??__ERMSG_CHARTMAIN@@YAXXZ ; RMSG_CHARTMAIN$initializer$
CRT$XCU	ENDS
CRT$XCU	SEGMENT
?RMS_ANALYSIS_FUNC$initializer$@@3P6AXXZA DD FLAT:??__ERMS_ANALYSIS_FUNC@@YAXXZ ; RMS_ANALYSIS_FUNC$initializer$
CRT$XCU	ENDS
CRT$XCU	SEGMENT
?RMSG_GET_USERID$initializer$@@3P6AXXZA DD FLAT:??__ERMSG_GET_USERID@@YAXXZ ; RMSG_GET_USERID$initializer$
CRT$XCU	ENDS
CRT$XCU	SEGMENT
?RMSG_KSDLLINFO$initializer$@@3P6AXXZA DD FLAT:??__ERMSG_KSDLLINFO@@YAXXZ ; RMSG_KSDLLINFO$initializer$
CRT$XCU	ENDS
CRT$XCU	SEGMENT
?RMSG_GETINFO$initializer$@@3P6AXXZA DD FLAT:??__ERMSG_GETINFO@@YAXXZ ; RMSG_GETINFO$initializer$
CRT$XCU	ENDS
CRT$XCU	SEGMENT
?RMSG_CHANGE_SKINCOLOR$initializer$@@3P6AXXZA DD FLAT:??__ERMSG_CHANGE_SKINCOLOR@@YAXXZ ; RMSG_CHANGE_SKINCOLOR$initializer$
CRT$XCU	ENDS
CRT$XCU	SEGMENT
?RMSG_GET_SKINCOLOR$initializer$@@3P6AXXZA DD FLAT:??__ERMSG_GET_SKINCOLOR@@YAXXZ ; RMSG_GET_SKINCOLOR$initializer$
CRT$XCU	ENDS
CRT$XCU	SEGMENT
?RMSG_CHANGE_CROSSLINE$initializer$@@3P6AXXZA DD FLAT:??__ERMSG_CHANGE_CROSSLINE@@YAXXZ ; RMSG_CHANGE_CROSSLINE$initializer$
CRT$XCU	ENDS
CRT$XCU	SEGMENT
?RMSG_REPLAY_REAL$initializer$@@3P6AXXZA DD FLAT:??__ERMSG_REPLAY_REAL@@YAXXZ ; RMSG_REPLAY_REAL$initializer$
CRT$XCU	ENDS
CRT$XCU	SEGMENT
?RMSG_REPLAY_FAIL$initializer$@@3P6AXXZA DD FLAT:??__ERMSG_REPLAY_FAIL@@YAXXZ ; RMSG_REPLAY_FAIL$initializer$
CRT$XCU	ENDS
CRT$XCU	SEGMENT
?RMSG_REPLAY_CHANGE_DATE$initializer$@@3P6AXXZA DD FLAT:??__ERMSG_REPLAY_CHANGE_DATE@@YAXXZ ; RMSG_REPLAY_CHANGE_DATE$initializer$
CRT$XCU	ENDS
CRT$XCU	SEGMENT
?RMSG_REPLAY_END$initializer$@@3P6AXXZA DD FLAT:??__ERMSG_REPLAY_END@@YAXXZ ; RMSG_REPLAY_END$initializer$
CRT$XCU	ENDS
CRT$XCU	SEGMENT
?RMSG_REPLAY_INC_SEC$initializer$@@3P6AXXZA DD FLAT:??__ERMSG_REPLAY_INC_SEC@@YAXXZ ; RMSG_REPLAY_INC_SEC$initializer$
CRT$XCU	ENDS
CRT$XCU	SEGMENT
?RMSG_REPLAY_TOTAL_SEC$initializer$@@3P6AXXZA DD FLAT:??__ERMSG_REPLAY_TOTAL_SEC@@YAXXZ ; RMSG_REPLAY_TOTAL_SEC$initializer$
CRT$XCU	ENDS
CRT$XCU	SEGMENT
?RMSG_SELCHARTCODE$initializer$@@3P6AXXZA DD FLAT:??__ERMSG_SELCHARTCODE@@YAXXZ ; RMSG_SELCHARTCODE$initializer$
CRT$XCU	ENDS
; Function compile flags: /Ogtp
; File C:\Program Files (x86)\Microsoft Visual Studio\2019\Community\VC\Tools\MSVC\14.29.30133\atlmfc\include\afxtempl.h
; File C:\Program Files (x86)\Microsoft Visual Studio\2019\Community\VC\Tools\MSVC\14.29.30133\atlmfc\include\afx.inl
; File C:\Program Files (x86)\Microsoft Visual Studio\2019\Community\VC\Tools\MSVC\14.29.30133\atlmfc\include\afxtempl.h
; File C:\Program Files (x86)\Microsoft Visual Studio\2019\Community\VC\Tools\MSVC\14.29.30133\atlmfc\include\afx.inl
; File C:\Program Files (x86)\Microsoft Visual Studio\2019\Community\VC\Tools\MSVC\14.29.30133\atlmfc\include\afxtempl.h
; File C:\Program Files (x86)\Microsoft Visual Studio\2019\Community\VC\Tools\MSVC\14.29.30133\atlmfc\include\afx.inl
; File C:\Program Files (x86)\Microsoft Visual Studio\2019\Community\VC\Tools\MSVC\14.29.30133\atlmfc\include\afxtempl.h
;	COMDAT ??$SerializeElements@U_codeinfo@@@@YGXAAVCArchive@@PAU_codeinfo@@H@Z
_TEXT	SEGMENT
_ar$ = 8						; size = 4
_pElements$ = 12					; size = 4
_nCount$ = 16						; size = 4
??$SerializeElements@U_codeinfo@@@@YGXAAVCArchive@@PAU_codeinfo@@H@Z PROC ; SerializeElements<_codeinfo>, COMDAT

; 67   : {

  00000	55		 push	 ebp
  00001	8b ec		 mov	 ebp, esp

; 68   : 	ENSURE(nCount == 0 || pElements != NULL);

  00003	8b 4d 0c	 mov	 ecx, DWORD PTR _pElements$[ebp]
  00006	53		 push	 ebx
  00007	56		 push	 esi
  00008	8b 75 10	 mov	 esi, DWORD PTR _nCount$[ebp]
  0000b	57		 push	 edi
  0000c	85 f6		 test	 esi, esi
  0000e	74 04		 je	 SHORT $LN2@SerializeE
  00010	85 c9		 test	 ecx, ecx
  00012	74 79		 je	 SHORT $LN34@SerializeE
$LN2@SerializeE:
; File C:\Program Files (x86)\Microsoft Visual Studio\2019\Community\VC\Tools\MSVC\14.29.30133\atlmfc\include\afx.inl

; 212  : 	{ return (m_nMode & CArchive::load) == 0; }

  00014	8b 55 08	 mov	 edx, DWORD PTR _ar$[ebp]
  00017	8b 42 18	 mov	 eax, DWORD PTR [edx+24]
  0001a	f7 d0		 not	 eax
  0001c	a8 01		 test	 al, 1
; File C:\Program Files (x86)\Microsoft Visual Studio\2019\Community\VC\Tools\MSVC\14.29.30133\atlmfc\include\afxtempl.h

; 73   : 	if (ar.IsStoring())

  0001e	74 30		 je	 SHORT $LN10@SerializeE

; 74   : 	{
; 75   : 		TYPE* pData;
; 76   : 		UINT_PTR nElementsLeft;
; 77   : 
; 78   : 		nElementsLeft = nCount;
; 79   : 		pData = pElements;
; 80   : 		while( nElementsLeft > 0 )

  00020	85 f6		 test	 esi, esi
  00022	74 25		 je	 SHORT $LN8@SerializeE
$LL5@SerializeE:

; 81   : 		{
; 82   : 			UINT nElementsToWrite;
; 83   : 
; 84   : 			nElementsToWrite = UINT(__min(nElementsLeft, INT_MAX/sizeof(TYPE)));

  00024	bb 14 ae 47 01	 mov	 ebx, 21474836		; 0147ae14H
  00029	3b f3		 cmp	 esi, ebx
  0002b	0f 42 de	 cmovb	 ebx, esi

; 85   : 			ar.Write(pData, nElementsToWrite*sizeof(TYPE));

  0002e	6b fb 64	 imul	 edi, ebx, 100
  00031	57		 push	 edi
  00032	51		 push	 ecx
  00033	8b ca		 mov	 ecx, edx
  00035	e8 00 00 00 00	 call	 ?Write@CArchive@@QAEXPBXI@Z ; CArchive::Write

; 86   : 			nElementsLeft -= nElementsToWrite;
; 87   : 			pData += nElementsToWrite;

  0003a	8b 4d 0c	 mov	 ecx, DWORD PTR _pElements$[ebp]
  0003d	8b 55 08	 mov	 edx, DWORD PTR _ar$[ebp]
  00040	03 cf		 add	 ecx, edi
  00042	89 4d 0c	 mov	 DWORD PTR _pElements$[ebp], ecx
  00045	2b f3		 sub	 esi, ebx
  00047	75 db		 jne	 SHORT $LL5@SerializeE
$LN8@SerializeE:
  00049	5f		 pop	 edi

; 105  : 		}
; 106  : 	}
; 107  : }

  0004a	5e		 pop	 esi
  0004b	5b		 pop	 ebx
  0004c	5d		 pop	 ebp
  0004d	c2 0c 00	 ret	 12			; 0000000cH
$LN10@SerializeE:

; 97   : 		while( nElementsLeft > 0 )

  00050	85 f6		 test	 esi, esi
  00052	74 f5		 je	 SHORT $LN8@SerializeE
$LL7@SerializeE:

; 98   : 		{
; 99   : 			UINT nElementsToRead;
; 100  : 
; 101  : 			nElementsToRead = UINT(__min(nElementsLeft, INT_MAX/sizeof(TYPE)));

  00054	bf 14 ae 47 01	 mov	 edi, 21474836		; 0147ae14H
  00059	3b f7		 cmp	 esi, edi
  0005b	0f 42 fe	 cmovb	 edi, esi

; 102  : 			ar.EnsureRead(pData, nElementsToRead*sizeof(TYPE));

  0005e	6b df 64	 imul	 ebx, edi, 100
; File C:\Program Files (x86)\Microsoft Visual Studio\2019\Community\VC\Tools\MSVC\14.29.30133\atlmfc\include\afx.inl

; 399  : 	UINT nRead=Read(lpBuf, nCount);

  00061	53		 push	 ebx
  00062	51		 push	 ecx
  00063	8b ca		 mov	 ecx, edx
  00065	e8 00 00 00 00	 call	 ?Read@CArchive@@QAEIPAXI@Z ; CArchive::Read

; 400  : 	if(nRead!=nCount)

  0006a	3b c3		 cmp	 eax, ebx
  0006c	75 16		 jne	 SHORT $LN23@SerializeE
; File C:\Program Files (x86)\Microsoft Visual Studio\2019\Community\VC\Tools\MSVC\14.29.30133\atlmfc\include\afxtempl.h

; 97   : 		while( nElementsLeft > 0 )

  0006e	8b 4d 0c	 mov	 ecx, DWORD PTR _pElements$[ebp]
  00071	8b 55 08	 mov	 edx, DWORD PTR _ar$[ebp]

; 103  : 			nElementsLeft -= nElementsToRead;
; 104  : 			pData += nElementsToRead;

  00074	03 cb		 add	 ecx, ebx
  00076	89 4d 0c	 mov	 DWORD PTR _pElements$[ebp], ecx
  00079	2b f7		 sub	 esi, edi
  0007b	75 d7		 jne	 SHORT $LL7@SerializeE

; 105  : 		}
; 106  : 	}
; 107  : }

  0007d	5f		 pop	 edi
  0007e	5e		 pop	 esi
  0007f	5b		 pop	 ebx
  00080	5d		 pop	 ebp
  00081	c2 0c 00	 ret	 12			; 0000000cH
$LN23@SerializeE:
; File C:\Program Files (x86)\Microsoft Visual Studio\2019\Community\VC\Tools\MSVC\14.29.30133\atlmfc\include\afx.inl

; 402  : 		AfxThrowArchiveException(CArchiveException::endOfFile);

  00084	6a 00		 push	 0
  00086	6a 03		 push	 3
  00088	e8 00 00 00 00	 call	 ?AfxThrowArchiveException@@YGXHPBD@Z ; AfxThrowArchiveException
$LN34@SerializeE:
; File C:\Program Files (x86)\Microsoft Visual Studio\2019\Community\VC\Tools\MSVC\14.29.30133\atlmfc\include\afxtempl.h

; 68   : 	ENSURE(nCount == 0 || pElements != NULL);

  0008d	e8 00 00 00 00	 call	 ?AfxThrowInvalidArgException@@YGXXZ ; AfxThrowInvalidArgException
$LN32@SerializeE:
  00092	cc		 int	 3
??$SerializeElements@U_codeinfo@@@@YGXAAVCArchive@@PAU_codeinfo@@H@Z ENDP ; SerializeElements<_codeinfo>
_TEXT	ENDS
; Function compile flags: /Ogtp
; File D:\git\src\IBK\IBK_DRFN\ProjSrc\SrcDrfn\Chart\comparechart\TabCodeSearchFO.cpp
;	COMDAT ?SortFileName@@YAXAAVCStringArray@@@Z
_TEXT	SEGMENT
_arrStr$ = 8						; size = 4
?SortFileName@@YAXAAVCStringArray@@@Z PROC		; SortFileName, COMDAT

; 418  : {

  00000	55		 push	 ebp
  00001	8b ec		 mov	 ebp, esp

; 419  :     qsort(arrStr.GetData(), arrStr.GetSize(), sizeof(CString*), CompareFileName);

  00003	8b 45 08	 mov	 eax, DWORD PTR _arrStr$[ebp]
  00006	68 00 00 00 00	 push	 OFFSET ?CompareFileName@@YAHPBX0@Z ; CompareFileName
  0000b	6a 04		 push	 4
  0000d	ff 70 08	 push	 DWORD PTR [eax+8]
  00010	ff 70 04	 push	 DWORD PTR [eax+4]
  00013	ff 15 00 00 00
	00		 call	 DWORD PTR __imp__qsort
  00019	83 c4 10	 add	 esp, 16			; 00000010H

; 420  : } 

  0001c	5d		 pop	 ebp
  0001d	c3		 ret	 0
?SortFileName@@YAXAAVCStringArray@@@Z ENDP		; SortFileName
_TEXT	ENDS
; Function compile flags: /Ogtp
; File D:\git\src\IBK\IBK_DRFN\ProjSrc\SrcDrfn\Chart\comparechart\TabCodeSearchFO.cpp
; File C:\Program Files (x86)\Windows Kits\10\Include\10.0.22000.0\ucrt\tchar.h
; File D:\git\src\IBK\IBK_DRFN\ProjSrc\SrcDrfn\Chart\comparechart\TabCodeSearchFO.cpp
; File C:\Program Files (x86)\Windows Kits\10\Include\10.0.22000.0\ucrt\tchar.h
; File D:\git\src\IBK\IBK_DRFN\ProjSrc\SrcDrfn\Chart\comparechart\TabCodeSearchFO.cpp
; File C:\Program Files (x86)\Windows Kits\10\Include\10.0.22000.0\ucrt\tchar.h
; File D:\git\src\IBK\IBK_DRFN\ProjSrc\SrcDrfn\Chart\comparechart\TabCodeSearchFO.cpp
; File C:\Program Files (x86)\Windows Kits\10\Include\10.0.22000.0\ucrt\tchar.h
; File D:\git\src\IBK\IBK_DRFN\ProjSrc\SrcDrfn\Chart\comparechart\TabCodeSearchFO.cpp
;	COMDAT ?CompareFileName@@YAHPBX0@Z
_TEXT	SEGMENT
tv415 = -16						; size = 4
tv416 = -12						; size = 4
_sz1$1$ = -8						; size = 4
_sz2$1$ = -4						; size = 4
_p1$ = 8						; size = 4
_p2$ = 12						; size = 4
?CompareFileName@@YAHPBX0@Z PROC			; CompareFileName, COMDAT

; 336  : {

  00000	55		 push	 ebp
  00001	8b ec		 mov	 ebp, esp
  00003	83 ec 10	 sub	 esp, 16			; 00000010H

; 337  :     TCHAR *sz1 = ((CString*)(p1))->GetBuffer(0);

  00006	8b 4d 08	 mov	 ecx, DWORD PTR _p1$[ebp]
  00009	53		 push	 ebx
  0000a	56		 push	 esi
  0000b	57		 push	 edi
  0000c	6a 00		 push	 0
  0000e	ff 15 00 00 00
	00		 call	 DWORD PTR __imp_?GetBuffer@?$CSimpleStringT@D$00@ATL@@QAEPADH@Z

; 338  :     TCHAR *sz2 = ((CString*)(p2))->GetBuffer(0);

  00014	8b 4d 0c	 mov	 ecx, DWORD PTR _p2$[ebp]
  00017	8b d8		 mov	 ebx, eax
  00019	6a 00		 push	 0
  0001b	89 5d f8	 mov	 DWORD PTR _sz1$1$[ebp], ebx
  0001e	ff 15 00 00 00
	00		 call	 DWORD PTR __imp_?GetBuffer@?$CSimpleStringT@D$00@ATL@@QAEPADH@Z

; 339  :     int nPos1 = -1;

  00024	83 ce ff	 or	 esi, -1
  00027	89 45 fc	 mov	 DWORD PTR _sz2$1$[ebp], eax

; 340  :     int nPos2 = -1;

  0002a	0b fe		 or	 edi, esi
  0002c	0f 1f 40 00	 npad	 4
$LL2@CompareFil:

; 341  :     int nEndPos1;
; 342  :     int nEndPos2;
; 343  :     int nResult;
; 344  :     while (1)
; 345  :     {
; 346  :         nPos1++;

  00030	46		 inc	 esi

; 347  :         nPos2++;

  00031	47		 inc	 edi

; 348  :         // Make sure we haven't hit the end of either of the strings
; 349  :         if (sz1[nPos1] == 0 && sz2[nPos2] == 0)

  00032	03 de		 add	 ebx, esi
  00034	8d 14 38	 lea	 edx, DWORD PTR [eax+edi]
  00037	8a 0b		 mov	 cl, BYTE PTR [ebx]
  00039	84 c9		 test	 cl, cl
  0003b	0f 84 cc 00 00
	00		 je	 $LN55@CompareFil

; 350  :             return 0;
; 351  :         if (sz1[nPos1] == 0)
; 352  :             return -1;
; 353  :         if (sz2[nPos2] == 0)

  00041	8a 02		 mov	 al, BYTE PTR [edx]
  00043	84 c0		 test	 al, al
  00045	0f 84 b6 00 00
	00		 je	 $LN25@CompareFil

; 354  :             return 1;
; 355  :         // See if this part of both strings is a number
; 356  :         if (sz1[nPos1] >= _T('0') && sz1[nPos1] <= _T('9') &&
; 357  :             sz2[nPos2] >= _T('0') && sz2[nPos2] <= _T('9'))

  0004b	80 e9 30	 sub	 cl, 48			; 00000030H
  0004e	80 f9 09	 cmp	 cl, 9
  00051	0f 87 8e 00 00
	00		 ja	 $LN15@CompareFil
  00057	2c 30		 sub	 al, 48			; 00000030H
  00059	3c 09		 cmp	 al, 9
  0005b	0f 87 84 00 00
	00		 ja	 $LN15@CompareFil

; 358  :         {
; 359  :             // Find the end of each number
; 360  :             nEndPos1 = nPos1;

  00061	8b 5d f8	 mov	 ebx, DWORD PTR _sz1$1$[ebp]
  00064	8b ce		 mov	 ecx, esi
$LL6@CompareFil:

; 361  :             do
; 362  :             {
; 363  :                 nEndPos1++;
; 364  :             } while (sz1[nEndPos1] >= _T('0') && sz1[nEndPos1] <= _T('9'));

  00066	8a 44 19 01	 mov	 al, BYTE PTR [ecx+ebx+1]
  0006a	89 4d f4	 mov	 DWORD PTR tv416[ebp], ecx
  0006d	41		 inc	 ecx
  0006e	3c 30		 cmp	 al, 48			; 00000030H
  00070	7c 04		 jl	 SHORT $LN17@CompareFil
  00072	3c 39		 cmp	 al, 57			; 00000039H
  00074	7e f0		 jle	 SHORT $LL6@CompareFil
$LN17@CompareFil:
  00076	8b 5d fc	 mov	 ebx, DWORD PTR _sz2$1$[ebp]

; 365  :             nEndPos2 = nPos2;

  00079	8b c7		 mov	 eax, edi
  0007b	0f 1f 44 00 00	 npad	 5
$LL9@CompareFil:

; 366  :             do
; 367  :             {
; 368  :                 nEndPos2++;
; 369  :             } while (sz2[nEndPos2] >= _T('0') && sz2[nEndPos2] <= _T('9'));

  00080	8a 54 18 01	 mov	 dl, BYTE PTR [eax+ebx+1]
  00084	89 45 f0	 mov	 DWORD PTR tv415[ebp], eax
  00087	40		 inc	 eax
  00088	80 fa 30	 cmp	 dl, 48			; 00000030H
  0008b	7c 05		 jl	 SHORT $LN18@CompareFil
  0008d	80 fa 39	 cmp	 dl, 57			; 00000039H
  00090	7e ee		 jle	 SHORT $LL9@CompareFil
$LN18@CompareFil:

; 370  :             while (true)
; 371  :             {
; 372  :                 if (nEndPos1 - nPos1 == nEndPos2 - nPos2)

  00092	8b 5d f8	 mov	 ebx, DWORD PTR _sz1$1$[ebp]
  00095	8b d1		 mov	 edx, ecx
  00097	2b c7		 sub	 eax, edi
  00099	2b d6		 sub	 edx, esi
  0009b	3b d0		 cmp	 edx, eax
  0009d	74 1e		 je	 SHORT $LN40@CompareFil
$LN56@CompareFil:

; 380  :                         break;
; 381  :                     }
; 382  :                     else
; 383  :                     {
; 384  :                         return nResult;
; 385  :                     }
; 386  :                 }
; 387  :                 else if (nEndPos1 - nPos1 > nEndPos2 - nPos2)

  0009f	7e 0a		 jle	 SHORT $LN23@CompareFil

; 388  :                 {
; 389  :                     // First number is longer, so if it's not zero padded, it's bigger
; 390  :                     if (sz1[nPos1] == _T('0'))

  000a1	80 3c 1e 30	 cmp	 BYTE PTR [esi+ebx], 48	; 00000030H
  000a5	75 5a		 jne	 SHORT $LN25@CompareFil

; 391  :                         nPos1 ++;

  000a7	46		 inc	 esi
  000a8	4a		 dec	 edx

; 392  :                     else
; 393  :                         return 1;
; 394  :                 }

  000a9	eb 0e		 jmp	 SHORT $LN28@CompareFil
$LN23@CompareFil:

; 395  :                 else
; 396  :                 {
; 397  :                     // Second number is longer, so if it's not zero padded, it's bigger
; 398  :                     if (sz2[nPos2] == _T('0'))

  000ab	8b 5d fc	 mov	 ebx, DWORD PTR _sz2$1$[ebp]
  000ae	80 3c 1f 30	 cmp	 BYTE PTR [edi+ebx], 48	; 00000030H
  000b2	8b 5d f8	 mov	 ebx, DWORD PTR _sz1$1$[ebp]
  000b5	75 64		 jne	 SHORT $LN27@CompareFil

; 399  :                         nPos2 ++;

  000b7	47		 inc	 edi
  000b8	48		 dec	 eax
$LN28@CompareFil:

; 370  :             while (true)
; 371  :             {
; 372  :                 if (nEndPos1 - nPos1 == nEndPos2 - nPos2)

  000b9	3b d0		 cmp	 edx, eax
  000bb	75 e2		 jne	 SHORT $LN56@CompareFil
$LN40@CompareFil:

; 375  :                     nResult = _tcsnicmp(sz1 + nPos1, sz2 + nPos2, nEndPos1 - nPos1);

  000bd	8b 45 fc	 mov	 eax, DWORD PTR _sz2$1$[ebp]
  000c0	2b ce		 sub	 ecx, esi
; File C:\Program Files (x86)\Windows Kits\10\Include\10.0.22000.0\ucrt\tchar.h

; 1657 :     return _mbsnbicmp((const unsigned char *)_String1,(const unsigned char *)_String2,_Char_count);

  000c2	51		 push	 ecx
; File D:\git\src\IBK\IBK_DRFN\ProjSrc\SrcDrfn\Chart\comparechart\TabCodeSearchFO.cpp

; 375  :                     nResult = _tcsnicmp(sz1 + nPos1, sz2 + nPos2, nEndPos1 - nPos1);

  000c3	03 c7		 add	 eax, edi
; File C:\Program Files (x86)\Windows Kits\10\Include\10.0.22000.0\ucrt\tchar.h

; 1657 :     return _mbsnbicmp((const unsigned char *)_String1,(const unsigned char *)_String2,_Char_count);

  000c5	50		 push	 eax
; File D:\git\src\IBK\IBK_DRFN\ProjSrc\SrcDrfn\Chart\comparechart\TabCodeSearchFO.cpp

; 375  :                     nResult = _tcsnicmp(sz1 + nPos1, sz2 + nPos2, nEndPos1 - nPos1);

  000c6	8d 04 1e	 lea	 eax, DWORD PTR [esi+ebx]
; File C:\Program Files (x86)\Windows Kits\10\Include\10.0.22000.0\ucrt\tchar.h

; 1657 :     return _mbsnbicmp((const unsigned char *)_String1,(const unsigned char *)_String2,_Char_count);

  000c9	50		 push	 eax
  000ca	ff 15 00 00 00
	00		 call	 DWORD PTR __imp___mbsnbicmp
  000d0	83 c4 0c	 add	 esp, 12			; 0000000cH
; File D:\git\src\IBK\IBK_DRFN\ProjSrc\SrcDrfn\Chart\comparechart\TabCodeSearchFO.cpp

; 376  :                     if (nResult == 0)

  000d3	85 c0		 test	 eax, eax
  000d5	75 47		 jne	 SHORT $LN3@CompareFil

; 377  :                     {
; 378  :                         nPos1 = nEndPos1 - 1;

  000d7	8b 75 f4	 mov	 esi, DWORD PTR tv416[ebp]

; 379  :                         nPos2 = nEndPos2 - 1;

  000da	8b 7d f0	 mov	 edi, DWORD PTR tv415[ebp]

; 402  :                 }
; 403  :             }
; 404  :         }

  000dd	8b 45 fc	 mov	 eax, DWORD PTR _sz2$1$[ebp]
  000e0	e9 4b ff ff ff	 jmp	 $LL2@CompareFil
$LN15@CompareFil:
; File C:\Program Files (x86)\Windows Kits\10\Include\10.0.22000.0\ucrt\tchar.h

; 1657 :     return _mbsnbicmp((const unsigned char *)_String1,(const unsigned char *)_String2,_Char_count);

  000e5	6a 01		 push	 1
  000e7	52		 push	 edx
  000e8	53		 push	 ebx
  000e9	ff 15 00 00 00
	00		 call	 DWORD PTR __imp___mbsnbicmp
  000ef	83 c4 0c	 add	 esp, 12			; 0000000cH
; File D:\git\src\IBK\IBK_DRFN\ProjSrc\SrcDrfn\Chart\comparechart\TabCodeSearchFO.cpp

; 409  :             if (nResult != 0)

  000f2	85 c0		 test	 eax, eax
  000f4	75 28		 jne	 SHORT $LN3@CompareFil

; 410  :             {
; 411  :                 return nResult;
; 412  :             }
; 413  :         }
; 414  :     }

  000f6	8b 5d f8	 mov	 ebx, DWORD PTR _sz1$1$[ebp]
  000f9	8b 45 fc	 mov	 eax, DWORD PTR _sz2$1$[ebp]
  000fc	e9 2f ff ff ff	 jmp	 $LL2@CompareFil
$LN25@CompareFil:
  00101	5f		 pop	 edi

; 415  : }

  00102	5e		 pop	 esi
  00103	b8 01 00 00 00	 mov	 eax, 1
  00108	5b		 pop	 ebx
  00109	8b e5		 mov	 esp, ebp
  0010b	5d		 pop	 ebp
  0010c	c3		 ret	 0
$LN55@CompareFil:

; 348  :         // Make sure we haven't hit the end of either of the strings
; 349  :         if (sz1[nPos1] == 0 && sz2[nPos2] == 0)

  0010d	80 3a 00	 cmp	 BYTE PTR [edx], 0
  00110	75 09		 jne	 SHORT $LN27@CompareFil

; 415  : }

  00112	5f		 pop	 edi
  00113	5e		 pop	 esi
  00114	33 c0		 xor	 eax, eax
  00116	5b		 pop	 ebx
  00117	8b e5		 mov	 esp, ebp
  00119	5d		 pop	 ebp
  0011a	c3		 ret	 0
$LN27@CompareFil:

; 400  :                     else
; 401  :                         return -1;

  0011b	83 c8 ff	 or	 eax, -1
$LN3@CompareFil:
  0011e	5f		 pop	 edi

; 415  : }

  0011f	5e		 pop	 esi
  00120	5b		 pop	 ebx
  00121	8b e5		 mov	 esp, ebp
  00123	5d		 pop	 ebp
  00124	c3		 ret	 0
?CompareFileName@@YAHPBX0@Z ENDP			; CompareFileName
_TEXT	ENDS
; Function compile flags: /Ogtp
; File D:\git\src\IBK\IBK_DRFN\ProjSrc\SrcDrfn\Chart\comparechart\StdDialog.h
;	COMDAT ??__ERMSG_SELCHARTCODE@@YAXXZ
text$di	SEGMENT
??__ERMSG_SELCHARTCODE@@YAXXZ PROC			; `dynamic initializer for 'RMSG_SELCHARTCODE'', COMDAT

; 73   : const UINT RMSG_SELCHARTCODE = ::RegisterWindowMessage( "RMSG_SELCHARTCODE" );

  00000	68 00 00 00 00	 push	 OFFSET ??_C@_0BC@LHNMEPFM@RMSG_SELCHARTCODE@
  00005	ff 15 00 00 00
	00		 call	 DWORD PTR __imp__RegisterWindowMessageA@4
  0000b	a3 00 00 00 00	 mov	 DWORD PTR ?RMSG_SELCHARTCODE@@3IB, eax
  00010	c3		 ret	 0
??__ERMSG_SELCHARTCODE@@YAXXZ ENDP			; `dynamic initializer for 'RMSG_SELCHARTCODE''
text$di	ENDS
; Function compile flags: /Ogtp
; File D:\git\src\IBK\IBK_DRFN\ProjSrc\SrcDrfn\Chart\chart_common\ReplayChartInfoDef.h
;	COMDAT ??__ERMSG_REPLAY_TOTAL_SEC@@YAXXZ
text$di	SEGMENT
??__ERMSG_REPLAY_TOTAL_SEC@@YAXXZ PROC			; `dynamic initializer for 'RMSG_REPLAY_TOTAL_SEC'', COMDAT

; 97   : 	const UINT RMSG_REPLAY_TOTAL_SEC = ::RegisterWindowMessage(_T("RMSG_REPLAY_TOTAL_SEC"));		//  () 

  00000	68 00 00 00 00	 push	 OFFSET ??_C@_0BG@GIAJEIJF@RMSG_REPLAY_TOTAL_SEC@
  00005	ff 15 00 00 00
	00		 call	 DWORD PTR __imp__RegisterWindowMessageA@4
  0000b	a3 00 00 00 00	 mov	 DWORD PTR ?RMSG_REPLAY_TOTAL_SEC@@3IB, eax
  00010	c3		 ret	 0
??__ERMSG_REPLAY_TOTAL_SEC@@YAXXZ ENDP			; `dynamic initializer for 'RMSG_REPLAY_TOTAL_SEC''
text$di	ENDS
; Function compile flags: /Ogtp
; File D:\git\src\IBK\IBK_DRFN\ProjSrc\SrcDrfn\Chart\chart_common\ReplayChartInfoDef.h
;	COMDAT ??__ERMSG_REPLAY_INC_SEC@@YAXXZ
text$di	SEGMENT
??__ERMSG_REPLAY_INC_SEC@@YAXXZ PROC			; `dynamic initializer for 'RMSG_REPLAY_INC_SEC'', COMDAT

; 96   : 	const UINT RMSG_REPLAY_INC_SEC = ::RegisterWindowMessage(_T("RMSG_REPLAY_INC_SEC"));			// 1   

  00000	68 00 00 00 00	 push	 OFFSET ??_C@_0BE@JFCIMCIP@RMSG_REPLAY_INC_SEC@
  00005	ff 15 00 00 00
	00		 call	 DWORD PTR __imp__RegisterWindowMessageA@4
  0000b	a3 00 00 00 00	 mov	 DWORD PTR ?RMSG_REPLAY_INC_SEC@@3IB, eax
  00010	c3		 ret	 0
??__ERMSG_REPLAY_INC_SEC@@YAXXZ ENDP			; `dynamic initializer for 'RMSG_REPLAY_INC_SEC''
text$di	ENDS
; Function compile flags: /Ogtp
; File D:\git\src\IBK\IBK_DRFN\ProjSrc\SrcDrfn\Chart\chart_common\ReplayChartInfoDef.h
;	COMDAT ??__ERMSG_REPLAY_END@@YAXXZ
text$di	SEGMENT
??__ERMSG_REPLAY_END@@YAXXZ PROC			; `dynamic initializer for 'RMSG_REPLAY_END'', COMDAT

; 95   : 	const UINT RMSG_REPLAY_END			= ::RegisterWindowMessage(_T("RMSG_REPLAY_END"));

  00000	68 00 00 00 00	 push	 OFFSET ??_C@_0BA@NKHHCPON@RMSG_REPLAY_END@
  00005	ff 15 00 00 00
	00		 call	 DWORD PTR __imp__RegisterWindowMessageA@4
  0000b	a3 00 00 00 00	 mov	 DWORD PTR ?RMSG_REPLAY_END@@3IB, eax
  00010	c3		 ret	 0
??__ERMSG_REPLAY_END@@YAXXZ ENDP			; `dynamic initializer for 'RMSG_REPLAY_END''
text$di	ENDS
; Function compile flags: /Ogtp
; File D:\git\src\IBK\IBK_DRFN\ProjSrc\SrcDrfn\Chart\chart_common\ReplayChartInfoDef.h
;	COMDAT ??__ERMSG_REPLAY_CHANGE_DATE@@YAXXZ
text$di	SEGMENT
??__ERMSG_REPLAY_CHANGE_DATE@@YAXXZ PROC		; `dynamic initializer for 'RMSG_REPLAY_CHANGE_DATE'', COMDAT

; 94   : 	const UINT RMSG_REPLAY_CHANGE_DATE	= ::RegisterWindowMessage(_T("RMSG_REPLAY_CHANGE_DATE"));

  00000	68 00 00 00 00	 push	 OFFSET ??_C@_0BI@KDGAIIMD@RMSG_REPLAY_CHANGE_DATE@
  00005	ff 15 00 00 00
	00		 call	 DWORD PTR __imp__RegisterWindowMessageA@4
  0000b	a3 00 00 00 00	 mov	 DWORD PTR ?RMSG_REPLAY_CHANGE_DATE@@3IB, eax
  00010	c3		 ret	 0
??__ERMSG_REPLAY_CHANGE_DATE@@YAXXZ ENDP		; `dynamic initializer for 'RMSG_REPLAY_CHANGE_DATE''
text$di	ENDS
; Function compile flags: /Ogtp
; File D:\git\src\IBK\IBK_DRFN\ProjSrc\SrcDrfn\Chart\chart_common\ReplayChartInfoDef.h
;	COMDAT ??__ERMSG_REPLAY_FAIL@@YAXXZ
text$di	SEGMENT
??__ERMSG_REPLAY_FAIL@@YAXXZ PROC			; `dynamic initializer for 'RMSG_REPLAY_FAIL'', COMDAT

; 93   : 	const UINT RMSG_REPLAY_FAIL			= ::RegisterWindowMessage(_T("RMSG_REPLAY_FAIL"));

  00000	68 00 00 00 00	 push	 OFFSET ??_C@_0BB@JFLGBADG@RMSG_REPLAY_FAIL@
  00005	ff 15 00 00 00
	00		 call	 DWORD PTR __imp__RegisterWindowMessageA@4
  0000b	a3 00 00 00 00	 mov	 DWORD PTR ?RMSG_REPLAY_FAIL@@3IB, eax
  00010	c3		 ret	 0
??__ERMSG_REPLAY_FAIL@@YAXXZ ENDP			; `dynamic initializer for 'RMSG_REPLAY_FAIL''
text$di	ENDS
; Function compile flags: /Ogtp
; File D:\git\src\IBK\IBK_DRFN\ProjSrc\SrcDrfn\Chart\chart_common\ReplayChartInfoDef.h
;	COMDAT ??__ERMSG_REPLAY_REAL@@YAXXZ
text$di	SEGMENT
??__ERMSG_REPLAY_REAL@@YAXXZ PROC			; `dynamic initializer for 'RMSG_REPLAY_REAL'', COMDAT

; 92   : 	const UINT RMSG_REPLAY_REAL			= ::RegisterWindowMessage(_T("RMSG_REPLAY_REAL"));

  00000	68 00 00 00 00	 push	 OFFSET ??_C@_0BB@IBKHOHJL@RMSG_REPLAY_REAL@
  00005	ff 15 00 00 00
	00		 call	 DWORD PTR __imp__RegisterWindowMessageA@4
  0000b	a3 00 00 00 00	 mov	 DWORD PTR ?RMSG_REPLAY_REAL@@3IB, eax
  00010	c3		 ret	 0
??__ERMSG_REPLAY_REAL@@YAXXZ ENDP			; `dynamic initializer for 'RMSG_REPLAY_REAL''
text$di	ENDS
; Function compile flags: /Ogtp
; File C:\Program Files (x86)\Microsoft Visual Studio\2019\Community\VC\Tools\MSVC\14.29.30133\atlmfc\include\afxtempl.h
; File C:\Program Files (x86)\Microsoft Visual Studio\2019\Community\VC\Tools\MSVC\14.29.30133\atlmfc\include\afx.inl
;	COMDAT ??_GCTabCodeSearchFO@@UAEPAXI@Z
_TEXT	SEGMENT
__$EHRec$ = -12						; size = 12
___flags$ = 8						; size = 4
??_GCTabCodeSearchFO@@UAEPAXI@Z PROC			; CTabCodeSearchFO::`scalar deleting destructor', COMDAT
; _this$ = ecx
  00000	55		 push	 ebp
  00001	8b ec		 mov	 ebp, esp
  00003	6a ff		 push	 -1
  00005	68 00 00 00 00	 push	 __ehhandler$??_GCTabCodeSearchFO@@UAEPAXI@Z
  0000a	64 a1 00 00 00
	00		 mov	 eax, DWORD PTR fs:0
  00010	50		 push	 eax
  00011	56		 push	 esi
  00012	a1 00 00 00 00	 mov	 eax, DWORD PTR ___security_cookie
  00017	33 c5		 xor	 eax, ebp
  00019	50		 push	 eax
  0001a	8d 45 f4	 lea	 eax, DWORD PTR __$EHRec$[ebp]
  0001d	64 a3 00 00 00
	00		 mov	 DWORD PTR fs:0, eax
  00023	8b f1		 mov	 esi, ecx
  00025	8d 8e e8 04 00
	00		 lea	 ecx, DWORD PTR [esi+1256]
  0002b	c7 45 fc 00 00
	00 00		 mov	 DWORD PTR __$EHRec$[ebp+8], 0
  00032	ff 15 00 00 00
	00		 call	 DWORD PTR __imp_??1?$CStringT@DV?$StrTraitMFC_DLL@DV?$ChTraitsCRT@D@ATL@@@@@ATL@@QAE@XZ
  00038	8d 8e e4 04 00
	00		 lea	 ecx, DWORD PTR [esi+1252]
  0003e	ff 15 00 00 00
	00		 call	 DWORD PTR __imp_??1?$CStringT@DV?$StrTraitMFC_DLL@DV?$ChTraitsCRT@D@ATL@@@@@ATL@@QAE@XZ
  00044	8d 8e e0 04 00
	00		 lea	 ecx, DWORD PTR [esi+1248]
  0004a	ff 15 00 00 00
	00		 call	 DWORD PTR __imp_??1?$CStringT@DV?$StrTraitMFC_DLL@DV?$ChTraitsCRT@D@ATL@@@@@ATL@@QAE@XZ
  00050	ff 35 00 00 00
	00		 push	 DWORD PTR __imp_??1?$CStringT@DV?$StrTraitMFC_DLL@DV?$ChTraitsCRT@D@ATL@@@@@ATL@@QAE@XZ
  00056	8d 86 64 04 00
	00		 lea	 eax, DWORD PTR [esi+1124]
  0005c	6a 0c		 push	 12			; 0000000cH
  0005e	6a 04		 push	 4
  00060	50		 push	 eax
  00061	e8 00 00 00 00	 call	 ??_M@YGXPAXIIP6EX0@Z@Z
; File C:\Program Files (x86)\Microsoft Visual Studio\2019\Community\VC\Tools\MSVC\14.29.30133\atlmfc\include\afxtempl.h

; 872  : 	m_pBlocks->FreeDataChain();

  00066	8b 8e f8 03 00
	00		 mov	 ecx, DWORD PTR [esi+1016]

; 878  : {

  0006c	c6 45 fc 01	 mov	 BYTE PTR __$EHRec$[ebp+8], 1
  00070	c7 86 e4 03 00
	00 00 00 00 00	 mov	 DWORD PTR [esi+996], OFFSET ??_7?$CList@U_codeinfo@@AAU1@@@6B@

; 870  : 	m_nCount = 0;

  0007a	c7 86 f0 03 00
	00 00 00 00 00	 mov	 DWORD PTR [esi+1008], 0

; 871  : 	m_pNodeHead = m_pNodeTail = m_pNodeFree = NULL;

  00084	c7 86 f4 03 00
	00 00 00 00 00	 mov	 DWORD PTR [esi+1012], 0
  0008e	c7 86 ec 03 00
	00 00 00 00 00	 mov	 DWORD PTR [esi+1004], 0
  00098	c7 86 e8 03 00
	00 00 00 00 00	 mov	 DWORD PTR [esi+1000], 0

; 872  : 	m_pBlocks->FreeDataChain();

  000a2	e8 00 00 00 00	 call	 ?FreeDataChain@CPlex@@QAEXXZ ; CPlex::FreeDataChain
  000a7	8d 8e 60 03 00
	00		 lea	 ecx, DWORD PTR [esi+864]

; 873  : 	m_pBlocks = NULL;

  000ad	c7 86 f8 03 00
	00 00 00 00 00	 mov	 DWORD PTR [esi+1016], 0
  000b7	e8 00 00 00 00	 call	 ??1CButton@@UAE@XZ	; CButton::~CButton
  000bc	8d 8e e0 02 00
	00		 lea	 ecx, DWORD PTR [esi+736]
  000c2	e8 00 00 00 00	 call	 ??1CButton@@UAE@XZ	; CButton::~CButton
  000c7	8d 8e 60 02 00
	00		 lea	 ecx, DWORD PTR [esi+608]
  000cd	e8 00 00 00 00	 call	 ??1CButton@@UAE@XZ	; CButton::~CButton
  000d2	8d 8e e0 01 00
	00		 lea	 ecx, DWORD PTR [esi+480]
  000d8	e8 00 00 00 00	 call	 ??1CListBox@@UAE@XZ	; CListBox::~CListBox
  000dd	8d 8e 58 01 00
	00		 lea	 ecx, DWORD PTR [esi+344]
  000e3	e8 00 00 00 00	 call	 ??1CExComboBox@@UAE@XZ	; CExComboBox::~CExComboBox
  000e8	8d 8e d0 00 00
	00		 lea	 ecx, DWORD PTR [esi+208]
  000ee	e8 00 00 00 00	 call	 ??1CExComboBox@@UAE@XZ	; CExComboBox::~CExComboBox
  000f3	8b ce		 mov	 ecx, esi
  000f5	e8 00 00 00 00	 call	 ??1CTabDlg@@UAE@XZ	; CTabDlg::~CTabDlg
  000fa	8b 45 08	 mov	 eax, DWORD PTR ___flags$[ebp]
  000fd	a8 01		 test	 al, 1
  000ff	74 2f		 je	 SHORT $LN25@scalar
  00101	a8 04		 test	 al, 4
  00103	75 1d		 jne	 SHORT $LN3@scalar
; File C:\Program Files (x86)\Microsoft Visual Studio\2019\Community\VC\Tools\MSVC\14.29.30133\atlmfc\include\afx.inl

; 112  : 	{ ::operator delete(p); }

  00105	56		 push	 esi
  00106	e8 00 00 00 00	 call	 ??3@YAXPAX@Z		; operator delete
  0010b	83 c4 04	 add	 esp, 4
  0010e	8b c6		 mov	 eax, esi
  00110	8b 4d f4	 mov	 ecx, DWORD PTR __$EHRec$[ebp]
  00113	64 89 0d 00 00
	00 00		 mov	 DWORD PTR fs:0, ecx
  0011a	59		 pop	 ecx
  0011b	5e		 pop	 esi
  0011c	8b e5		 mov	 esp, ebp
  0011e	5d		 pop	 ebp
  0011f	c2 04 00	 ret	 4
$LN3@scalar:
  00122	68 f8 04 00 00	 push	 1272			; 000004f8H
  00127	56		 push	 esi
  00128	e8 00 00 00 00	 call	 ?__global_delete@@YAXPAXI@Z ; __global_delete
  0012d	83 c4 08	 add	 esp, 8
$LN25@scalar:
  00130	8b c6		 mov	 eax, esi
  00132	8b 4d f4	 mov	 ecx, DWORD PTR __$EHRec$[ebp]
  00135	64 89 0d 00 00
	00 00		 mov	 DWORD PTR fs:0, ecx
  0013c	59		 pop	 ecx
  0013d	5e		 pop	 esi
  0013e	8b e5		 mov	 esp, ebp
  00140	5d		 pop	 ebp
  00141	c2 04 00	 ret	 4
  00144	cc		 int	 3
  00145	cc		 int	 3
  00146	cc		 int	 3
  00147	cc		 int	 3
  00148	cc		 int	 3
_TEXT	ENDS
;	COMDAT text$x
text$x	SEGMENT
__ehhandler$??_GCTabCodeSearchFO@@UAEPAXI@Z:
  00000	90		 npad	 1
  00001	90		 npad	 1
  00002	8b 54 24 08	 mov	 edx, DWORD PTR [esp+8]
  00006	8d 42 0c	 lea	 eax, DWORD PTR [edx+12]
  00009	8b 4a f8	 mov	 ecx, DWORD PTR [edx-8]
  0000c	33 c8		 xor	 ecx, eax
  0000e	e8 00 00 00 00	 call	 @__security_check_cookie@4
  00013	b8 00 00 00 00	 mov	 eax, OFFSET __ehfuncinfo$??_GCTabCodeSearchFO@@UAEPAXI@Z
  00018	e9 00 00 00 00	 jmp	 ___CxxFrameHandler3
text$x	ENDS
??_GCTabCodeSearchFO@@UAEPAXI@Z ENDP			; CTabCodeSearchFO::`scalar deleting destructor'
; Function compile flags: /Ogtp
; File D:\git\src\IBK\IBK_DRFN\ProjSrc\SrcDrfn\Chart\comparechart\TabCodeSearchFO.cpp
;	COMDAT ?GetMessageMap@CTabCodeSearchFO@@MBEPBUAFX_MSGMAP@@XZ
_TEXT	SEGMENT
?GetMessageMap@CTabCodeSearchFO@@MBEPBUAFX_MSGMAP@@XZ PROC ; CTabCodeSearchFO::GetMessageMap, COMDAT
; _this$ = ecx

; 56   : BEGIN_MESSAGE_MAP(CTabCodeSearchFO, CDialog)

  00000	b8 00 00 00 00	 mov	 eax, OFFSET ?messageMap@?1??GetThisMessageMap@CTabCodeSearchFO@@KGPBUAFX_MSGMAP@@XZ@4U3@B
  00005	c3		 ret	 0
?GetMessageMap@CTabCodeSearchFO@@MBEPBUAFX_MSGMAP@@XZ ENDP ; CTabCodeSearchFO::GetMessageMap
_TEXT	ENDS
; Function compile flags: /Ogtp
; File D:\git\src\IBK\IBK_DRFN\ProjSrc\SrcDrfn\Chart\comparechart\TabCodeSearchFO.cpp
;	COMDAT ?GetThisMessageMap@CTabCodeSearchFO@@KGPBUAFX_MSGMAP@@XZ
_TEXT	SEGMENT
?GetThisMessageMap@CTabCodeSearchFO@@KGPBUAFX_MSGMAP@@XZ PROC ; CTabCodeSearchFO::GetThisMessageMap, COMDAT

; 57   : 	//{{AFX_MSG_MAP(CTabCodeSearchFO)
; 58   : 	ON_WM_SIZE()
; 59   : 	ON_WM_DESTROY()
; 60   : 	ON_CBN_SELCHANGE(IDC_COMBO_FO, OnSelchangeComboFO)
; 61   : 	ON_CBN_EDITCHANGE(IDC_COMBO_MONTH, OnEditchangeComboMonth)
; 62   : 	ON_CBN_SELCHANGE(IDC_COMBO_MONTH, OnSelchangeComboMonth)
; 63   : 	ON_WM_CTLCOLOR()
; 64   : 	ON_LBN_SELCHANGE(IDC_LIST_FUTURE, OnSelchangeListFuture)
; 65   : 	ON_LBN_DBLCLK(IDC_LIST_FUTURE, OnDblclkListFuture)
; 66   : 	ON_BN_CLICKED(IDC_RADIO_KOSPI200, OnClickRadioKospi200)
; 67   : 	ON_BN_CLICKED(IDC_RADIO_MINIKOSPI, OnClickRadioMiniKospi)
; 68   : 	ON_BN_CLICKED(IDC_RADIO_WEEKLYKOSPI, OnClickRadioWeeklyKospi)
; 69   : 	//}}AFX_MSG_MAP
; 70   : END_MESSAGE_MAP()

  00000	b8 00 00 00 00	 mov	 eax, OFFSET ?messageMap@?1??GetThisMessageMap@CTabCodeSearchFO@@KGPBUAFX_MSGMAP@@XZ@4U3@B
  00005	c3		 ret	 0
?GetThisMessageMap@CTabCodeSearchFO@@KGPBUAFX_MSGMAP@@XZ ENDP ; CTabCodeSearchFO::GetThisMessageMap
_TEXT	ENDS
; Function compile flags: /Ogtp
; File D:\git\src\IBK\IBK_DRFN\ProjSrc\SrcDrfn\Chart\comparechart\TabCodeSearchFO.cpp
; File C:\Program Files (x86)\Microsoft Visual Studio\2019\Community\VC\Tools\MSVC\14.29.30133\atlmfc\include\afxwin2.inl
; File D:\git\src\IBK\IBK_DRFN\ProjSrc\SrcDrfn\Chart\comparechart\TabCodeSearchFO.cpp
;	COMDAT ?OnClickRadioWeeklyKospi@CTabCodeSearchFO@@IAEXXZ
_TEXT	SEGMENT
?OnClickRadioWeeklyKospi@CTabCodeSearchFO@@IAEXXZ PROC	; CTabCodeSearchFO::OnClickRadioWeeklyKospi, COMDAT
; _this$ = ecx

; 1051 : {

  00000	56		 push	 esi
  00001	8b f1		 mov	 esi, ecx

; 1052 : 	m_nRadioSel = 2;

  00003	c7 86 ec 04 00
	00 02 00 00 00	 mov	 DWORD PTR [esi+1260], 2

; 1053 : 	InitMasterData();

  0000d	e8 00 00 00 00	 call	 ?InitMasterData@CTabCodeSearchFO@@QAEHXZ ; CTabCodeSearchFO::InitMasterData
; File C:\Program Files (x86)\Microsoft Visual Studio\2019\Community\VC\Tools\MSVC\14.29.30133\atlmfc\include\afxwin2.inl

; 765  : 	{ ASSERT(::IsWindow(m_hWnd)); return (int)::SendMessage(m_hWnd, CB_GETCURSEL, 0, 0); }

  00012	6a 00		 push	 0
  00014	6a 00		 push	 0
  00016	68 47 01 00 00	 push	 327			; 00000147H
  0001b	ff b6 78 01 00
	00		 push	 DWORD PTR [esi+376]
  00021	ff 15 00 00 00
	00		 call	 DWORD PTR __imp__SendMessageA@16
; File D:\git\src\IBK\IBK_DRFN\ProjSrc\SrcDrfn\Chart\comparechart\TabCodeSearchFO.cpp

; 757  : 	m_nIndex = m_ctrlComboMonth.GetCurSel() +1;

  00027	40		 inc	 eax

; 758  : 	InsertGridData();

  00028	8b ce		 mov	 ecx, esi
  0002a	89 86 d4 04 00
	00		 mov	 DWORD PTR [esi+1236], eax
  00030	e8 00 00 00 00	 call	 ?InsertGridData@CTabCodeSearchFO@@QAEXXZ ; CTabCodeSearchFO::InsertGridData

; 759  : 	InsertMasterData(m_nIndex);

  00035	ff b6 d4 04 00
	00		 push	 DWORD PTR [esi+1236]
  0003b	8b ce		 mov	 ecx, esi
  0003d	e8 00 00 00 00	 call	 ?InsertMasterData@CTabCodeSearchFO@@QAEXH@Z ; CTabCodeSearchFO::InsertMasterData
  00042	5e		 pop	 esi

; 1054 : 	OnSelchangeComboMonth();
; 1055 : }

  00043	c3		 ret	 0
?OnClickRadioWeeklyKospi@CTabCodeSearchFO@@IAEXXZ ENDP	; CTabCodeSearchFO::OnClickRadioWeeklyKospi
_TEXT	ENDS
; Function compile flags: /Ogtp
; File D:\git\src\IBK\IBK_DRFN\ProjSrc\SrcDrfn\Chart\comparechart\TabCodeSearchFO.cpp
; File C:\Program Files (x86)\Microsoft Visual Studio\2019\Community\VC\Tools\MSVC\14.29.30133\atlmfc\include\afxwin2.inl
; File D:\git\src\IBK\IBK_DRFN\ProjSrc\SrcDrfn\Chart\comparechart\TabCodeSearchFO.cpp
;	COMDAT ?OnClickRadioMiniKospi@CTabCodeSearchFO@@IAEXXZ
_TEXT	SEGMENT
?OnClickRadioMiniKospi@CTabCodeSearchFO@@IAEXXZ PROC	; CTabCodeSearchFO::OnClickRadioMiniKospi, COMDAT
; _this$ = ecx

; 1044 : {

  00000	56		 push	 esi
  00001	8b f1		 mov	 esi, ecx

; 1045 : 	m_nRadioSel = 0;

  00003	c7 86 ec 04 00
	00 00 00 00 00	 mov	 DWORD PTR [esi+1260], 0

; 1046 : 	InitMasterData();

  0000d	e8 00 00 00 00	 call	 ?InitMasterData@CTabCodeSearchFO@@QAEHXZ ; CTabCodeSearchFO::InitMasterData
; File C:\Program Files (x86)\Microsoft Visual Studio\2019\Community\VC\Tools\MSVC\14.29.30133\atlmfc\include\afxwin2.inl

; 765  : 	{ ASSERT(::IsWindow(m_hWnd)); return (int)::SendMessage(m_hWnd, CB_GETCURSEL, 0, 0); }

  00012	6a 00		 push	 0
  00014	6a 00		 push	 0
  00016	68 47 01 00 00	 push	 327			; 00000147H
  0001b	ff b6 78 01 00
	00		 push	 DWORD PTR [esi+376]
  00021	ff 15 00 00 00
	00		 call	 DWORD PTR __imp__SendMessageA@16
; File D:\git\src\IBK\IBK_DRFN\ProjSrc\SrcDrfn\Chart\comparechart\TabCodeSearchFO.cpp

; 757  : 	m_nIndex = m_ctrlComboMonth.GetCurSel() +1;

  00027	40		 inc	 eax

; 758  : 	InsertGridData();

  00028	8b ce		 mov	 ecx, esi
  0002a	89 86 d4 04 00
	00		 mov	 DWORD PTR [esi+1236], eax
  00030	e8 00 00 00 00	 call	 ?InsertGridData@CTabCodeSearchFO@@QAEXXZ ; CTabCodeSearchFO::InsertGridData

; 759  : 	InsertMasterData(m_nIndex);

  00035	ff b6 d4 04 00
	00		 push	 DWORD PTR [esi+1236]
  0003b	8b ce		 mov	 ecx, esi
  0003d	e8 00 00 00 00	 call	 ?InsertMasterData@CTabCodeSearchFO@@QAEXH@Z ; CTabCodeSearchFO::InsertMasterData
  00042	5e		 pop	 esi

; 1047 : 	OnSelchangeComboMonth();
; 1048 : }

  00043	c3		 ret	 0
?OnClickRadioMiniKospi@CTabCodeSearchFO@@IAEXXZ ENDP	; CTabCodeSearchFO::OnClickRadioMiniKospi
_TEXT	ENDS
; Function compile flags: /Ogtp
; File D:\git\src\IBK\IBK_DRFN\ProjSrc\SrcDrfn\Chart\comparechart\TabCodeSearchFO.cpp
; File C:\Program Files (x86)\Microsoft Visual Studio\2019\Community\VC\Tools\MSVC\14.29.30133\atlmfc\include\afxwin2.inl
; File D:\git\src\IBK\IBK_DRFN\ProjSrc\SrcDrfn\Chart\comparechart\TabCodeSearchFO.cpp
;	COMDAT ?OnClickRadioKospi200@CTabCodeSearchFO@@IAEXXZ
_TEXT	SEGMENT
?OnClickRadioKospi200@CTabCodeSearchFO@@IAEXXZ PROC	; CTabCodeSearchFO::OnClickRadioKospi200, COMDAT
; _this$ = ecx

; 1037 : {

  00000	56		 push	 esi
  00001	8b f1		 mov	 esi, ecx

; 1038 : 	m_nRadioSel = 1;

  00003	c7 86 ec 04 00
	00 01 00 00 00	 mov	 DWORD PTR [esi+1260], 1

; 1039 : 	InitMasterData();

  0000d	e8 00 00 00 00	 call	 ?InitMasterData@CTabCodeSearchFO@@QAEHXZ ; CTabCodeSearchFO::InitMasterData
; File C:\Program Files (x86)\Microsoft Visual Studio\2019\Community\VC\Tools\MSVC\14.29.30133\atlmfc\include\afxwin2.inl

; 765  : 	{ ASSERT(::IsWindow(m_hWnd)); return (int)::SendMessage(m_hWnd, CB_GETCURSEL, 0, 0); }

  00012	6a 00		 push	 0
  00014	6a 00		 push	 0
  00016	68 47 01 00 00	 push	 327			; 00000147H
  0001b	ff b6 78 01 00
	00		 push	 DWORD PTR [esi+376]
  00021	ff 15 00 00 00
	00		 call	 DWORD PTR __imp__SendMessageA@16
; File D:\git\src\IBK\IBK_DRFN\ProjSrc\SrcDrfn\Chart\comparechart\TabCodeSearchFO.cpp

; 757  : 	m_nIndex = m_ctrlComboMonth.GetCurSel() +1;

  00027	40		 inc	 eax

; 758  : 	InsertGridData();

  00028	8b ce		 mov	 ecx, esi
  0002a	89 86 d4 04 00
	00		 mov	 DWORD PTR [esi+1236], eax
  00030	e8 00 00 00 00	 call	 ?InsertGridData@CTabCodeSearchFO@@QAEXXZ ; CTabCodeSearchFO::InsertGridData

; 759  : 	InsertMasterData(m_nIndex);

  00035	ff b6 d4 04 00
	00		 push	 DWORD PTR [esi+1236]
  0003b	8b ce		 mov	 ecx, esi
  0003d	e8 00 00 00 00	 call	 ?InsertMasterData@CTabCodeSearchFO@@QAEXH@Z ; CTabCodeSearchFO::InsertMasterData
  00042	5e		 pop	 esi

; 1040 : 	OnSelchangeComboMonth();
; 1041 : }

  00043	c3		 ret	 0
?OnClickRadioKospi200@CTabCodeSearchFO@@IAEXXZ ENDP	; CTabCodeSearchFO::OnClickRadioKospi200
_TEXT	ENDS
; Function compile flags: /Ogtp
; File D:\git\src\IBK\IBK_DRFN\ProjSrc\SrcDrfn\Chart\comparechart\TabCodeSearchFO.cpp
; File C:\Program Files (x86)\Microsoft Visual Studio\2019\Community\VC\Tools\MSVC\14.29.30133\atlmfc\include\afxwin2.inl
; File D:\git\src\IBK\IBK_DRFN\ProjSrc\SrcDrfn\Chart\comparechart\TabCodeSearchFO.cpp
; File C:\Program Files (x86)\Microsoft Visual Studio\2019\Community\VC\Tools\MSVC\14.29.30133\atlmfc\include\afxwin2.inl
; File C:\Program Files (x86)\Microsoft Visual Studio\2019\Community\VC\Tools\MSVC\14.29.30133\atlmfc\include\afx.inl
; File D:\git\src\IBK\IBK_DRFN\ProjSrc\SrcDrfn\Chart\comparechart\TabCodeSearchFO.cpp
; File C:\Program Files (x86)\Microsoft Visual Studio\2019\Community\VC\Tools\MSVC\14.29.30133\atlmfc\include\afx.inl
; File D:\git\src\IBK\IBK_DRFN\ProjSrc\SrcDrfn\Chart\comparechart\TabCodeSearchFO.cpp
; File C:\Program Files (x86)\Microsoft Visual Studio\2019\Community\VC\Tools\MSVC\14.29.30133\atlmfc\include\afx.inl
; File D:\git\src\IBK\IBK_DRFN\ProjSrc\SrcDrfn\Chart\comparechart\TabCodeSearchFO.cpp
; File C:\Program Files (x86)\Microsoft Visual Studio\2019\Community\VC\Tools\MSVC\14.29.30133\atlmfc\include\afx.inl
; File D:\git\src\IBK\IBK_DRFN\ProjSrc\SrcDrfn\Chart\comparechart\TabCodeSearchFO.cpp
; File C:\Program Files (x86)\Microsoft Visual Studio\2019\Community\VC\Tools\MSVC\14.29.30133\atlmfc\include\afx.inl
; File D:\git\src\IBK\IBK_DRFN\ProjSrc\SrcDrfn\Chart\comparechart\TabCodeSearchFO.cpp
; File C:\Program Files (x86)\Microsoft Visual Studio\2019\Community\VC\Tools\MSVC\14.29.30133\atlmfc\include\afx.inl
; File D:\git\src\IBK\IBK_DRFN\ProjSrc\SrcDrfn\Chart\comparechart\TabCodeSearchFO.cpp
; File C:\Program Files (x86)\Microsoft Visual Studio\2019\Community\VC\Tools\MSVC\14.29.30133\atlmfc\include\afxcoll.inl
; File D:\git\src\IBK\IBK_DRFN\ProjSrc\SrcDrfn\Chart\comparechart\TabCodeSearchFO.cpp
; File C:\Program Files (x86)\Microsoft Visual Studio\2019\Community\VC\Tools\MSVC\14.29.30133\atlmfc\include\afxcoll.inl
; File D:\git\src\IBK\IBK_DRFN\ProjSrc\SrcDrfn\Chart\comparechart\TabCodeSearchFO.cpp
; File C:\Program Files (x86)\Microsoft Visual Studio\2019\Community\VC\Tools\MSVC\14.29.30133\atlmfc\include\afxcoll.inl
; File D:\git\src\IBK\IBK_DRFN\ProjSrc\SrcDrfn\Chart\comparechart\TabCodeSearchFO.cpp
; File C:\Program Files (x86)\Microsoft Visual Studio\2019\Community\VC\Tools\MSVC\14.29.30133\atlmfc\include\atlsimpstr.h
; File D:\git\src\IBK\IBK_DRFN\ProjSrc\SrcDrfn\Chart\comparechart\TabCodeSearchFO.cpp
; File C:\Program Files (x86)\Microsoft Visual Studio\2019\Community\VC\Tools\MSVC\14.29.30133\atlmfc\include\atlsimpstr.h
; File D:\git\src\IBK\IBK_DRFN\ProjSrc\SrcDrfn\Chart\comparechart\TabCodeSearchFO.cpp
; File C:\Program Files (x86)\Microsoft Visual Studio\2019\Community\VC\Tools\MSVC\14.29.30133\atlmfc\include\afxwin2.inl
; File D:\git\src\IBK\IBK_DRFN\ProjSrc\SrcDrfn\Chart\comparechart\TabCodeSearchFO.cpp
; File C:\Program Files (x86)\Microsoft Visual Studio\2019\Community\VC\Tools\MSVC\14.29.30133\atlmfc\include\afxcoll.inl
; File D:\git\src\IBK\IBK_DRFN\ProjSrc\SrcDrfn\Chart\comparechart\TabCodeSearchFO.cpp
;	COMDAT ?OnDblclkListFuture@CTabCodeSearchFO@@IAEXXZ
_TEXT	SEGMENT
__ctlState$2 = -52					; size = 8
_strNameSelected$ = -44					; size = 4
_strCode$3 = -40					; size = 4
$T4 = -40						; size = 4
$T5 = -40						; size = 4
$T6 = -40						; size = 4
_strData$7 = -36					; size = 4
_pastrJongEngName$ = -32				; size = 4
_strCodeSelected$ = -28					; size = 4
_pastrJongName$ = -24					; size = 4
_pastrJongCode$ = -20					; size = 4
_strName$8 = -16					; size = 4
__$EHRec$ = -12						; size = 12
?OnDblclkListFuture@CTabCodeSearchFO@@IAEXXZ PROC	; CTabCodeSearchFO::OnDblclkListFuture, COMDAT
; _this$ = ecx

; 989  : {

  00000	55		 push	 ebp
  00001	8b ec		 mov	 ebp, esp
  00003	6a ff		 push	 -1
  00005	68 00 00 00 00	 push	 __ehhandler$?OnDblclkListFuture@CTabCodeSearchFO@@IAEXXZ
  0000a	64 a1 00 00 00
	00		 mov	 eax, DWORD PTR fs:0
  00010	50		 push	 eax
  00011	83 ec 28	 sub	 esp, 40			; 00000028H
  00014	53		 push	 ebx
  00015	56		 push	 esi
  00016	57		 push	 edi
  00017	a1 00 00 00 00	 mov	 eax, DWORD PTR ___security_cookie
  0001c	33 c5		 xor	 eax, ebp
  0001e	50		 push	 eax
  0001f	8d 45 f4	 lea	 eax, DWORD PTR __$EHRec$[ebp]
  00022	64 a3 00 00 00
	00		 mov	 DWORD PTR fs:0, eax
  00028	8b d9		 mov	 ebx, ecx

; 990  : 	// TODO: Add your control notification handler code here
; 991  : 		CString strCodeSelected;

  0002a	8d 4d e4	 lea	 ecx, DWORD PTR _strCodeSelected$[ebp]
  0002d	ff 15 00 00 00
	00		 call	 DWORD PTR __imp_??0?$CStringT@DV?$StrTraitMFC_DLL@DV?$ChTraitsCRT@D@ATL@@@@@ATL@@QAE@XZ

; 992  : 		CString strNameSelected;

  00033	8d 4d d4	 lea	 ecx, DWORD PTR _strNameSelected$[ebp]
  00036	c7 45 fc 00 00
	00 00		 mov	 DWORD PTR __$EHRec$[ebp+8], 0
  0003d	ff 15 00 00 00
	00		 call	 DWORD PTR __imp_??0?$CStringT@DV?$StrTraitMFC_DLL@DV?$ChTraitsCRT@D@ATL@@@@@ATL@@QAE@XZ
; File C:\Program Files (x86)\Microsoft Visual Studio\2019\Community\VC\Tools\MSVC\14.29.30133\atlmfc\include\afxwin2.inl

; 666  : 	{ ASSERT(::IsWindow(m_hWnd)); return (int)::SendMessage(m_hWnd, LB_GETCURSEL, 0, 0); }

  00043	6a 00		 push	 0
  00045	6a 00		 push	 0
  00047	68 88 01 00 00	 push	 392			; 00000188H
  0004c	ff b3 00 02 00
	00		 push	 DWORD PTR [ebx+512]
; File D:\git\src\IBK\IBK_DRFN\ProjSrc\SrcDrfn\Chart\comparechart\TabCodeSearchFO.cpp

; 992  : 		CString strNameSelected;

  00052	c6 45 fc 01	 mov	 BYTE PTR __$EHRec$[ebp+8], 1
; File C:\Program Files (x86)\Microsoft Visual Studio\2019\Community\VC\Tools\MSVC\14.29.30133\atlmfc\include\afxwin2.inl

; 666  : 	{ ASSERT(::IsWindow(m_hWnd)); return (int)::SendMessage(m_hWnd, LB_GETCURSEL, 0, 0); }

  00056	ff 15 00 00 00
	00		 call	 DWORD PTR __imp__SendMessageA@16
; File C:\Program Files (x86)\Microsoft Visual Studio\2019\Community\VC\Tools\MSVC\14.29.30133\atlmfc\include\afx.inl

; 116  : 	{ return ::operator new(nSize); }

  0005c	6a 14		 push	 20			; 00000014H
; File D:\git\src\IBK\IBK_DRFN\ProjSrc\SrcDrfn\Chart\comparechart\TabCodeSearchFO.cpp

; 993  : 		int nSel = m_listFuture.GetCurSel();

  0005e	8b f0		 mov	 esi, eax
; File C:\Program Files (x86)\Microsoft Visual Studio\2019\Community\VC\Tools\MSVC\14.29.30133\atlmfc\include\afx.inl

; 116  : 	{ return ::operator new(nSize); }

  00060	e8 00 00 00 00	 call	 ??2@YAPAXI@Z		; operator new
  00065	83 c4 04	 add	 esp, 4
; File D:\git\src\IBK\IBK_DRFN\ProjSrc\SrcDrfn\Chart\comparechart\TabCodeSearchFO.cpp

; 999  : 		pastrJongCode = new CStringArray;

  00068	89 45 d8	 mov	 DWORD PTR $T6[ebp], eax
  0006b	c6 45 fc 02	 mov	 BYTE PTR __$EHRec$[ebp+8], 2
  0006f	85 c0		 test	 eax, eax
  00071	74 09		 je	 SHORT $LN7@OnDblclkLi
  00073	8b c8		 mov	 ecx, eax
  00075	e8 00 00 00 00	 call	 ??0CStringArray@@QAE@XZ	; CStringArray::CStringArray
  0007a	eb 02		 jmp	 SHORT $LN8@OnDblclkLi
$LN7@OnDblclkLi:
  0007c	33 c0		 xor	 eax, eax
$LN8@OnDblclkLi:
; File C:\Program Files (x86)\Microsoft Visual Studio\2019\Community\VC\Tools\MSVC\14.29.30133\atlmfc\include\afx.inl

; 116  : 	{ return ::operator new(nSize); }

  0007e	6a 14		 push	 20			; 00000014H
; File D:\git\src\IBK\IBK_DRFN\ProjSrc\SrcDrfn\Chart\comparechart\TabCodeSearchFO.cpp

; 999  : 		pastrJongCode = new CStringArray;

  00080	c6 45 fc 01	 mov	 BYTE PTR __$EHRec$[ebp+8], 1
  00084	89 45 ec	 mov	 DWORD PTR _pastrJongCode$[ebp], eax
; File C:\Program Files (x86)\Microsoft Visual Studio\2019\Community\VC\Tools\MSVC\14.29.30133\atlmfc\include\afx.inl

; 116  : 	{ return ::operator new(nSize); }

  00087	e8 00 00 00 00	 call	 ??2@YAPAXI@Z		; operator new
  0008c	83 c4 04	 add	 esp, 4
; File D:\git\src\IBK\IBK_DRFN\ProjSrc\SrcDrfn\Chart\comparechart\TabCodeSearchFO.cpp

; 1000 : 		pastrJongName = new CStringArray;

  0008f	89 45 d8	 mov	 DWORD PTR $T5[ebp], eax
  00092	c6 45 fc 03	 mov	 BYTE PTR __$EHRec$[ebp+8], 3
  00096	85 c0		 test	 eax, eax
  00098	74 09		 je	 SHORT $LN9@OnDblclkLi
  0009a	8b c8		 mov	 ecx, eax
  0009c	e8 00 00 00 00	 call	 ??0CStringArray@@QAE@XZ	; CStringArray::CStringArray
  000a1	eb 02		 jmp	 SHORT $LN10@OnDblclkLi
$LN9@OnDblclkLi:
  000a3	33 c0		 xor	 eax, eax
$LN10@OnDblclkLi:
; File C:\Program Files (x86)\Microsoft Visual Studio\2019\Community\VC\Tools\MSVC\14.29.30133\atlmfc\include\afx.inl

; 116  : 	{ return ::operator new(nSize); }

  000a5	6a 14		 push	 20			; 00000014H
; File D:\git\src\IBK\IBK_DRFN\ProjSrc\SrcDrfn\Chart\comparechart\TabCodeSearchFO.cpp

; 1000 : 		pastrJongName = new CStringArray;

  000a7	c6 45 fc 01	 mov	 BYTE PTR __$EHRec$[ebp+8], 1
  000ab	89 45 e8	 mov	 DWORD PTR _pastrJongName$[ebp], eax
; File C:\Program Files (x86)\Microsoft Visual Studio\2019\Community\VC\Tools\MSVC\14.29.30133\atlmfc\include\afx.inl

; 116  : 	{ return ::operator new(nSize); }

  000ae	e8 00 00 00 00	 call	 ??2@YAPAXI@Z		; operator new
  000b3	83 c4 04	 add	 esp, 4
; File D:\git\src\IBK\IBK_DRFN\ProjSrc\SrcDrfn\Chart\comparechart\TabCodeSearchFO.cpp

; 1001 : 		pastrJongEngName = new CStringArray;

  000b6	89 45 d8	 mov	 DWORD PTR $T4[ebp], eax
  000b9	c6 45 fc 04	 mov	 BYTE PTR __$EHRec$[ebp+8], 4
  000bd	85 c0		 test	 eax, eax
  000bf	74 09		 je	 SHORT $LN11@OnDblclkLi
  000c1	8b c8		 mov	 ecx, eax
  000c3	e8 00 00 00 00	 call	 ??0CStringArray@@QAE@XZ	; CStringArray::CStringArray
  000c8	eb 02		 jmp	 SHORT $LN12@OnDblclkLi
$LN11@OnDblclkLi:
  000ca	33 c0		 xor	 eax, eax
$LN12@OnDblclkLi:

; 1002 : 		if(m_nComboSel == 1)

  000cc	83 bb f0 04 00
	00 01		 cmp	 DWORD PTR [ebx+1264], 1
  000d3	8d 55 e0	 lea	 edx, DWORD PTR _pastrJongEngName$[ebp]
  000d6	52		 push	 edx
  000d7	8d 55 e8	 lea	 edx, DWORD PTR _pastrJongName$[ebp]
  000da	89 45 e0	 mov	 DWORD PTR _pastrJongEngName$[ebp], eax
  000dd	8b 83 dc 04 00
	00		 mov	 eax, DWORD PTR [ebx+1244]
  000e3	52		 push	 edx
  000e4	8d 55 ec	 lea	 edx, DWORD PTR _pastrJongCode$[ebp]
  000e7	c6 45 fc 01	 mov	 BYTE PTR __$EHRec$[ebp+8], 1
  000eb	52		 push	 edx
  000ec	8b 08		 mov	 ecx, DWORD PTR [eax]
  000ee	50		 push	 eax
  000ef	75 05		 jne	 SHORT $LN2@OnDblclkLi

; 1003 : 			m_pDataManager->GetMiniFutureJongMst(pastrJongCode, pastrJongName, pastrJongEngName);

  000f1	ff 51 60	 call	 DWORD PTR [ecx+96]
  000f4	eb 03		 jmp	 SHORT $LN3@OnDblclkLi
$LN2@OnDblclkLi:

; 1004 : 		else
; 1005 : 			m_pDataManager->GetFutureJongMst(pastrJongCode, pastrJongName, pastrJongEngName);

  000f6	ff 51 48	 call	 DWORD PTR [ecx+72]
$LN3@OnDblclkLi:
; File C:\Program Files (x86)\Microsoft Visual Studio\2019\Community\VC\Tools\MSVC\14.29.30133\atlmfc\include\afxcoll.inl

; 289  : 		if( nIndex < 0 || nIndex >= m_nSize )

  000f9	85 f6		 test	 esi, esi
  000fb	0f 88 69 01 00
	00		 js	 $LN39@OnDblclkLi
  00101	8b 45 ec	 mov	 eax, DWORD PTR _pastrJongCode$[ebp]
  00104	3b 70 08	 cmp	 esi, DWORD PTR [eax+8]
  00107	0f 8d 5d 01 00
	00		 jge	 $LN39@OnDblclkLi

; 291  : 		return m_pData[nIndex]; }

  0010d	8b 40 04	 mov	 eax, DWORD PTR [eax+4]
  00110	8d 3c b5 00 00
	00 00		 lea	 edi, DWORD PTR [esi*4]
  00117	03 c7		 add	 eax, edi
; File D:\git\src\IBK\IBK_DRFN\ProjSrc\SrcDrfn\Chart\comparechart\TabCodeSearchFO.cpp

; 1007 : 		strCodeSelected = pastrJongCode->GetAt(nSel);

  00119	8d 4d e4	 lea	 ecx, DWORD PTR _strCodeSelected$[ebp]
  0011c	50		 push	 eax
  0011d	ff 15 00 00 00
	00		 call	 DWORD PTR __imp_??4?$CStringT@DV?$StrTraitMFC_DLL@DV?$ChTraitsCRT@D@ATL@@@@@ATL@@QAEAAV01@ABV01@@Z
; File C:\Program Files (x86)\Microsoft Visual Studio\2019\Community\VC\Tools\MSVC\14.29.30133\atlmfc\include\afxcoll.inl

; 289  : 		if( nIndex < 0 || nIndex >= m_nSize )

  00123	8b 45 e8	 mov	 eax, DWORD PTR _pastrJongName$[ebp]
  00126	3b 70 08	 cmp	 esi, DWORD PTR [eax+8]
  00129	0f 8d 3b 01 00
	00		 jge	 $LN39@OnDblclkLi

; 291  : 		return m_pData[nIndex]; }

  0012f	8b 40 04	 mov	 eax, DWORD PTR [eax+4]
; File D:\git\src\IBK\IBK_DRFN\ProjSrc\SrcDrfn\Chart\comparechart\TabCodeSearchFO.cpp

; 1008 : 		strNameSelected = pastrJongName->GetAt(nSel);

  00132	8d 4d d4	 lea	 ecx, DWORD PTR _strNameSelected$[ebp]
; File C:\Program Files (x86)\Microsoft Visual Studio\2019\Community\VC\Tools\MSVC\14.29.30133\atlmfc\include\afxcoll.inl

; 291  : 		return m_pData[nIndex]; }

  00135	03 c7		 add	 eax, edi
; File D:\git\src\IBK\IBK_DRFN\ProjSrc\SrcDrfn\Chart\comparechart\TabCodeSearchFO.cpp

; 1008 : 		strNameSelected = pastrJongName->GetAt(nSel);

  00137	50		 push	 eax
  00138	ff 15 00 00 00
	00		 call	 DWORD PTR __imp_??4?$CStringT@DV?$StrTraitMFC_DLL@DV?$ChTraitsCRT@D@ATL@@@@@ATL@@QAEAAV01@ABV01@@Z

; 1009 : 
; 1010 : 		delete pastrJongCode;

  0013e	8b 4d ec	 mov	 ecx, DWORD PTR _pastrJongCode$[ebp]
  00141	85 c9		 test	 ecx, ecx
  00143	74 07		 je	 SHORT $LN13@OnDblclkLi
  00145	8b 01		 mov	 eax, DWORD PTR [ecx]
  00147	6a 01		 push	 1
  00149	ff 50 04	 call	 DWORD PTR [eax+4]
$LN13@OnDblclkLi:

; 1011 : 		delete pastrJongName;	//    

  0014c	8b 4d e8	 mov	 ecx, DWORD PTR _pastrJongName$[ebp]
  0014f	85 c9		 test	 ecx, ecx
  00151	74 07		 je	 SHORT $LN15@OnDblclkLi
  00153	8b 01		 mov	 eax, DWORD PTR [ecx]
  00155	6a 01		 push	 1
  00157	ff 50 04	 call	 DWORD PTR [eax+4]
$LN15@OnDblclkLi:

; 1012 : 		delete pastrJongEngName;	//    

  0015a	8b 4d e0	 mov	 ecx, DWORD PTR _pastrJongEngName$[ebp]
  0015d	85 c9		 test	 ecx, ecx
  0015f	74 07		 je	 SHORT $LN17@OnDblclkLi
  00161	8b 01		 mov	 eax, DWORD PTR [ecx]
  00163	6a 01		 push	 1
  00165	ff 50 04	 call	 DWORD PTR [eax+4]
$LN17@OnDblclkLi:
; File C:\Program Files (x86)\Microsoft Visual Studio\2019\Community\VC\Tools\MSVC\14.29.30133\atlmfc\include\atlsimpstr.h

; 519  : 		return( GetData()->nDataLength );

  00168	8b 45 e4	 mov	 eax, DWORD PTR _strCodeSelected$[ebp]

; 533  : 		return( GetLength() == 0 );

  0016b	83 78 f4 00	 cmp	 DWORD PTR [eax-12], 0
; File D:\git\src\IBK\IBK_DRFN\ProjSrc\SrcDrfn\Chart\comparechart\TabCodeSearchFO.cpp

; 1014 : 		if(!strCodeSelected.IsEmpty())

  0016f	0f 84 d1 00 00
	00		 je	 $LN4@OnDblclkLi

; 1015 : 		{
; 1016 : 			CString strCode = strCodeSelected;

  00175	8d 45 e4	 lea	 eax, DWORD PTR _strCodeSelected$[ebp]
  00178	50		 push	 eax
  00179	8d 4d d8	 lea	 ecx, DWORD PTR _strCode$3[ebp]
  0017c	ff 15 00 00 00
	00		 call	 DWORD PTR __imp_??0?$CStringT@DV?$StrTraitMFC_DLL@DV?$ChTraitsCRT@D@ATL@@@@@ATL@@QAE@ABV01@@Z

; 1017 : 			CString strName = strNameSelected;	

  00182	8d 45 d4	 lea	 eax, DWORD PTR _strNameSelected$[ebp]
  00185	c6 45 fc 05	 mov	 BYTE PTR __$EHRec$[ebp+8], 5
  00189	50		 push	 eax
  0018a	8d 4d f0	 lea	 ecx, DWORD PTR _strName$8[ebp]
  0018d	ff 15 00 00 00
	00		 call	 DWORD PTR __imp_??0?$CStringT@DV?$StrTraitMFC_DLL@DV?$ChTraitsCRT@D@ATL@@@@@ATL@@QAE@ABV01@@Z

; 1018 : 			strName.TrimLeft();			

  00193	8d 4d f0	 lea	 ecx, DWORD PTR _strName$8[ebp]
  00196	c6 45 fc 06	 mov	 BYTE PTR __$EHRec$[ebp+8], 6
  0019a	ff 15 00 00 00
	00		 call	 DWORD PTR __imp_?TrimLeft@?$CStringT@DV?$StrTraitMFC_DLL@DV?$ChTraitsCRT@D@ATL@@@@@ATL@@QAEAAV12@XZ
; File C:\Program Files (x86)\Microsoft Visual Studio\2019\Community\VC\Tools\MSVC\14.29.30133\atlmfc\include\atlsimpstr.h

; 519  : 		return( GetData()->nDataLength );

  001a0	8b 45 f0	 mov	 eax, DWORD PTR _strName$8[ebp]
; File D:\git\src\IBK\IBK_DRFN\ProjSrc\SrcDrfn\Chart\comparechart\TabCodeSearchFO.cpp

; 1020 : 			if(strName.GetLength()<=0)

  001a3	83 78 f4 00	 cmp	 DWORD PTR [eax-12], 0
  001a7	0f 8e 87 00 00
	00		 jle	 $LN64@OnDblclkLi

; 1021 : 				return;
; 1022 : 			CString strData;

  001ad	8d 4d dc	 lea	 ecx, DWORD PTR _strData$7[ebp]
  001b0	ff 15 00 00 00
	00		 call	 DWORD PTR __imp_??0?$CStringT@DV?$StrTraitMFC_DLL@DV?$ChTraitsCRT@D@ATL@@@@@ATL@@QAE@XZ

; 1023 : 			strData.Format("%s|%s", strName, strCode);

  001b6	ff 75 d8	 push	 DWORD PTR _strCode$3[ebp]
  001b9	8d 45 dc	 lea	 eax, DWORD PTR _strData$7[ebp]
  001bc	c6 45 fc 07	 mov	 BYTE PTR __$EHRec$[ebp+8], 7
  001c0	ff 75 f0	 push	 DWORD PTR _strName$8[ebp]
  001c3	68 00 00 00 00	 push	 OFFSET ??_C@_05LMFDOBNM@?$CFs?$HM?$CFs@
  001c8	50		 push	 eax
  001c9	ff 15 00 00 00
	00		 call	 DWORD PTR __imp_?Format@?$CStringT@DV?$StrTraitMFC_DLL@DV?$ChTraitsCRT@D@ATL@@@@@ATL@@QAAXPBDZZ
  001cf	83 c4 10	 add	 esp, 16			; 00000010H

; 1024 : 
; 1025 : 			// .
; 1026 : 			//if(strData != m_strCodeNName)
; 1027 : 			{
; 1028 : 				AFX_MANAGE_STATE(AfxGetStaticModuleState()); 

  001d2	e8 00 00 00 00	 call	 ?AfxGetStaticModuleState@@YGPAVAFX_MODULE_STATE@@XZ ; AfxGetStaticModuleState
  001d7	50		 push	 eax
  001d8	8d 4d cc	 lea	 ecx, DWORD PTR __ctlState$2[ebp]
  001db	e8 00 00 00 00	 call	 ??0AFX_MAINTAIN_STATE2@@QAE@PAVAFX_MODULE_STATE@@@Z ; AFX_MAINTAIN_STATE2::AFX_MAINTAIN_STATE2

; 1029 : 				m_strCodeNName = strData;

  001e0	8d 45 dc	 lea	 eax, DWORD PTR _strData$7[ebp]
  001e3	c6 45 fc 08	 mov	 BYTE PTR __$EHRec$[ebp+8], 8
  001e7	8d bb e0 04 00
	00		 lea	 edi, DWORD PTR [ebx+1248]
  001ed	50		 push	 eax
  001ee	8b cf		 mov	 ecx, edi
  001f0	ff 15 00 00 00
	00		 call	 DWORD PTR __imp_??4?$CStringT@DV?$StrTraitMFC_DLL@DV?$ChTraitsCRT@D@ATL@@@@@ATL@@QAEAAV01@ABV01@@Z
; File C:\Program Files (x86)\Microsoft Visual Studio\2019\Community\VC\Tools\MSVC\14.29.30133\atlmfc\include\afxwin2.inl

; 213  : 	{ ASSERT(::IsWindow(m_hWnd)); return CWnd::FromHandle(::GetParent(m_hWnd)); }

  001f6	ff 73 20	 push	 DWORD PTR [ebx+32]
  001f9	8b 35 00 00 00
	00		 mov	 esi, DWORD PTR __imp__GetParent@4
  001ff	ff d6		 call	 esi
  00201	50		 push	 eax
  00202	e8 00 00 00 00	 call	 ?FromHandle@CWnd@@SGPAV1@PAUHWND__@@@Z ; CWnd::FromHandle
  00207	ff 70 20	 push	 DWORD PTR [eax+32]
  0020a	ff d6		 call	 esi
  0020c	50		 push	 eax
  0020d	e8 00 00 00 00	 call	 ?FromHandle@CWnd@@SGPAV1@PAUHWND__@@@Z ; CWnd::FromHandle

; 32   : 	{ ASSERT(::IsWindow(m_hWnd)); return ::SendMessage(m_hWnd, message, wParam, lParam); }

  00212	57		 push	 edi
  00213	6a 00		 push	 0
  00215	68 5b 04 00 00	 push	 1115			; 0000045bH
  0021a	ff 70 20	 push	 DWORD PTR [eax+32]
  0021d	ff 15 00 00 00
	00		 call	 DWORD PTR __imp__SendMessageA@16
; File D:\git\src\IBK\IBK_DRFN\ProjSrc\SrcDrfn\Chart\comparechart\TabCodeSearchFO.cpp

; 1031 : 			}

  00223	8d 4d cc	 lea	 ecx, DWORD PTR __ctlState$2[ebp]
  00226	e8 00 00 00 00	 call	 ??1AFX_MAINTAIN_STATE2@@QAE@XZ ; AFX_MAINTAIN_STATE2::~AFX_MAINTAIN_STATE2

; 1032 : 		}

  0022b	8d 4d dc	 lea	 ecx, DWORD PTR _strData$7[ebp]
  0022e	ff 15 00 00 00
	00		 call	 DWORD PTR __imp_??1?$CStringT@DV?$StrTraitMFC_DLL@DV?$ChTraitsCRT@D@ATL@@@@@ATL@@QAE@XZ
$LN64@OnDblclkLi:

; 1034 : }

  00234	8d 4d f0	 lea	 ecx, DWORD PTR _strName$8[ebp]
  00237	ff 15 00 00 00
	00		 call	 DWORD PTR __imp_??1?$CStringT@DV?$StrTraitMFC_DLL@DV?$ChTraitsCRT@D@ATL@@@@@ATL@@QAE@XZ
  0023d	8d 4d d8	 lea	 ecx, DWORD PTR _strCode$3[ebp]
  00240	ff 15 00 00 00
	00		 call	 DWORD PTR __imp_??1?$CStringT@DV?$StrTraitMFC_DLL@DV?$ChTraitsCRT@D@ATL@@@@@ATL@@QAE@XZ
$LN4@OnDblclkLi:
  00246	8d 4d d4	 lea	 ecx, DWORD PTR _strNameSelected$[ebp]
  00249	ff 15 00 00 00
	00		 call	 DWORD PTR __imp_??1?$CStringT@DV?$StrTraitMFC_DLL@DV?$ChTraitsCRT@D@ATL@@@@@ATL@@QAE@XZ
  0024f	8d 4d e4	 lea	 ecx, DWORD PTR _strCodeSelected$[ebp]
  00252	ff 15 00 00 00
	00		 call	 DWORD PTR __imp_??1?$CStringT@DV?$StrTraitMFC_DLL@DV?$ChTraitsCRT@D@ATL@@@@@ATL@@QAE@XZ
  00258	8b 4d f4	 mov	 ecx, DWORD PTR __$EHRec$[ebp]
  0025b	64 89 0d 00 00
	00 00		 mov	 DWORD PTR fs:0, ecx
  00262	59		 pop	 ecx
  00263	5f		 pop	 edi
  00264	5e		 pop	 esi
  00265	5b		 pop	 ebx
  00266	8b e5		 mov	 esp, ebp
  00268	5d		 pop	 ebp
  00269	c3		 ret	 0
$LN39@OnDblclkLi:
; File C:\Program Files (x86)\Microsoft Visual Studio\2019\Community\VC\Tools\MSVC\14.29.30133\atlmfc\include\afxcoll.inl

; 290  : 			AfxThrowInvalidArgException();

  0026a	e8 00 00 00 00	 call	 ?AfxThrowInvalidArgException@@YGXXZ ; AfxThrowInvalidArgException
$LN63@OnDblclkLi:
  0026f	cc		 int	 3
_TEXT	ENDS
;	COMDAT text$x
text$x	SEGMENT
__unwindfunclet$?OnDblclkListFuture@CTabCodeSearchFO@@IAEXXZ$0:
  00000	8d 4d e4	 lea	 ecx, DWORD PTR _strCodeSelected$[ebp]
  00003	ff 25 00 00 00
	00		 jmp	 DWORD PTR __imp_??1?$CStringT@DV?$StrTraitMFC_DLL@DV?$ChTraitsCRT@D@ATL@@@@@ATL@@QAE@XZ
__unwindfunclet$?OnDblclkListFuture@CTabCodeSearchFO@@IAEXXZ$1:
  00009	8d 4d d4	 lea	 ecx, DWORD PTR _strNameSelected$[ebp]
  0000c	ff 25 00 00 00
	00		 jmp	 DWORD PTR __imp_??1?$CStringT@DV?$StrTraitMFC_DLL@DV?$ChTraitsCRT@D@ATL@@@@@ATL@@QAE@XZ
__unwindfunclet$?OnDblclkListFuture@CTabCodeSearchFO@@IAEXXZ$2:
  00012	8b 45 d8	 mov	 eax, DWORD PTR $T6[ebp]
  00015	50		 push	 eax
  00016	e8 00 00 00 00	 call	 ??3CObject@@SGXPAX@Z	; CObject::operator delete
  0001b	c3		 ret	 0
__unwindfunclet$?OnDblclkListFuture@CTabCodeSearchFO@@IAEXXZ$3:
  0001c	8b 45 d8	 mov	 eax, DWORD PTR $T5[ebp]
  0001f	50		 push	 eax
  00020	e8 00 00 00 00	 call	 ??3CObject@@SGXPAX@Z	; CObject::operator delete
  00025	c3		 ret	 0
__unwindfunclet$?OnDblclkListFuture@CTabCodeSearchFO@@IAEXXZ$4:
  00026	8b 45 d8	 mov	 eax, DWORD PTR $T4[ebp]
  00029	50		 push	 eax
  0002a	e8 00 00 00 00	 call	 ??3CObject@@SGXPAX@Z	; CObject::operator delete
  0002f	c3		 ret	 0
__unwindfunclet$?OnDblclkListFuture@CTabCodeSearchFO@@IAEXXZ$5:
  00030	8d 4d d8	 lea	 ecx, DWORD PTR _strCode$3[ebp]
  00033	ff 25 00 00 00
	00		 jmp	 DWORD PTR __imp_??1?$CStringT@DV?$StrTraitMFC_DLL@DV?$ChTraitsCRT@D@ATL@@@@@ATL@@QAE@XZ
__unwindfunclet$?OnDblclkListFuture@CTabCodeSearchFO@@IAEXXZ$6:
  00039	8d 4d f0	 lea	 ecx, DWORD PTR _strName$8[ebp]
  0003c	ff 25 00 00 00
	00		 jmp	 DWORD PTR __imp_??1?$CStringT@DV?$StrTraitMFC_DLL@DV?$ChTraitsCRT@D@ATL@@@@@ATL@@QAE@XZ
__unwindfunclet$?OnDblclkListFuture@CTabCodeSearchFO@@IAEXXZ$7:
  00042	8d 4d dc	 lea	 ecx, DWORD PTR _strData$7[ebp]
  00045	ff 25 00 00 00
	00		 jmp	 DWORD PTR __imp_??1?$CStringT@DV?$StrTraitMFC_DLL@DV?$ChTraitsCRT@D@ATL@@@@@ATL@@QAE@XZ
__unwindfunclet$?OnDblclkListFuture@CTabCodeSearchFO@@IAEXXZ$8:
  0004b	8d 4d cc	 lea	 ecx, DWORD PTR __ctlState$2[ebp]
  0004e	e9 00 00 00 00	 jmp	 ??1AFX_MAINTAIN_STATE2@@QAE@XZ ; AFX_MAINTAIN_STATE2::~AFX_MAINTAIN_STATE2
  00053	cc		 int	 3
  00054	cc		 int	 3
  00055	cc		 int	 3
  00056	cc		 int	 3
  00057	cc		 int	 3
__ehhandler$?OnDblclkListFuture@CTabCodeSearchFO@@IAEXXZ:
  00058	90		 npad	 1
  00059	90		 npad	 1
  0005a	8b 54 24 08	 mov	 edx, DWORD PTR [esp+8]
  0005e	8d 42 0c	 lea	 eax, DWORD PTR [edx+12]
  00061	8b 4a c8	 mov	 ecx, DWORD PTR [edx-56]
  00064	33 c8		 xor	 ecx, eax
  00066	e8 00 00 00 00	 call	 @__security_check_cookie@4
  0006b	b8 00 00 00 00	 mov	 eax, OFFSET __ehfuncinfo$?OnDblclkListFuture@CTabCodeSearchFO@@IAEXXZ
  00070	e9 00 00 00 00	 jmp	 ___CxxFrameHandler3
text$x	ENDS
?OnDblclkListFuture@CTabCodeSearchFO@@IAEXXZ ENDP	; CTabCodeSearchFO::OnDblclkListFuture
; Function compile flags: /Ogtp
; File D:\git\src\IBK\IBK_DRFN\ProjSrc\SrcDrfn\Chart\comparechart\TabCodeSearchFO.cpp
; File C:\Program Files (x86)\Microsoft Visual Studio\2019\Community\VC\Tools\MSVC\14.29.30133\atlmfc\include\afxwin2.inl
; File D:\git\src\IBK\IBK_DRFN\ProjSrc\SrcDrfn\Chart\comparechart\TabCodeSearchFO.cpp
; File C:\Program Files (x86)\Microsoft Visual Studio\2019\Community\VC\Tools\MSVC\14.29.30133\atlmfc\include\afxwin2.inl
; File C:\Program Files (x86)\Microsoft Visual Studio\2019\Community\VC\Tools\MSVC\14.29.30133\atlmfc\include\afx.inl
; File D:\git\src\IBK\IBK_DRFN\ProjSrc\SrcDrfn\Chart\comparechart\TabCodeSearchFO.cpp
; File C:\Program Files (x86)\Microsoft Visual Studio\2019\Community\VC\Tools\MSVC\14.29.30133\atlmfc\include\afx.inl
; File D:\git\src\IBK\IBK_DRFN\ProjSrc\SrcDrfn\Chart\comparechart\TabCodeSearchFO.cpp
; File C:\Program Files (x86)\Microsoft Visual Studio\2019\Community\VC\Tools\MSVC\14.29.30133\atlmfc\include\afx.inl
; File D:\git\src\IBK\IBK_DRFN\ProjSrc\SrcDrfn\Chart\comparechart\TabCodeSearchFO.cpp
; File C:\Program Files (x86)\Microsoft Visual Studio\2019\Community\VC\Tools\MSVC\14.29.30133\atlmfc\include\afx.inl
; File D:\git\src\IBK\IBK_DRFN\ProjSrc\SrcDrfn\Chart\comparechart\TabCodeSearchFO.cpp
; File C:\Program Files (x86)\Microsoft Visual Studio\2019\Community\VC\Tools\MSVC\14.29.30133\atlmfc\include\afx.inl
; File D:\git\src\IBK\IBK_DRFN\ProjSrc\SrcDrfn\Chart\comparechart\TabCodeSearchFO.cpp
; File C:\Program Files (x86)\Microsoft Visual Studio\2019\Community\VC\Tools\MSVC\14.29.30133\atlmfc\include\afx.inl
; File D:\git\src\IBK\IBK_DRFN\ProjSrc\SrcDrfn\Chart\comparechart\TabCodeSearchFO.cpp
; File C:\Program Files (x86)\Microsoft Visual Studio\2019\Community\VC\Tools\MSVC\14.29.30133\atlmfc\include\afxcoll.inl
; File D:\git\src\IBK\IBK_DRFN\ProjSrc\SrcDrfn\Chart\comparechart\TabCodeSearchFO.cpp
; File C:\Program Files (x86)\Microsoft Visual Studio\2019\Community\VC\Tools\MSVC\14.29.30133\atlmfc\include\afxcoll.inl
; File D:\git\src\IBK\IBK_DRFN\ProjSrc\SrcDrfn\Chart\comparechart\TabCodeSearchFO.cpp
; File C:\Program Files (x86)\Microsoft Visual Studio\2019\Community\VC\Tools\MSVC\14.29.30133\atlmfc\include\atlsimpstr.h
; File D:\git\src\IBK\IBK_DRFN\ProjSrc\SrcDrfn\Chart\comparechart\TabCodeSearchFO.cpp
; File C:\Program Files (x86)\Microsoft Visual Studio\2019\Community\VC\Tools\MSVC\14.29.30133\atlmfc\include\atlsimpstr.h
; File D:\git\src\IBK\IBK_DRFN\ProjSrc\SrcDrfn\Chart\comparechart\TabCodeSearchFO.cpp
; File C:\Program Files (x86)\Microsoft Visual Studio\2019\Community\VC\Tools\MSVC\14.29.30133\atlmfc\include\cstringt.h
; File D:\git\src\IBK\IBK_DRFN\ProjSrc\SrcDrfn\Chart\comparechart\TabCodeSearchFO.cpp
; File C:\Program Files (x86)\Microsoft Visual Studio\2019\Community\VC\Tools\MSVC\14.29.30133\atlmfc\include\afxcoll.inl
; File D:\git\src\IBK\IBK_DRFN\ProjSrc\SrcDrfn\Chart\comparechart\TabCodeSearchFO.cpp
;	COMDAT ?OnSelchangeListFuture@CTabCodeSearchFO@@IAEXXZ
_TEXT	SEGMENT
_pastrJongEngName$ = -40				; size = 4
_pastrJongName$ = -36					; size = 4
_strCodeSelected$ = -32					; size = 4
_strCode$2 = -28					; size = 4
$T3 = -28						; size = 4
$T4 = -28						; size = 4
$T5 = -28						; size = 4
_strData$6 = -24					; size = 4
_pastrJongCode$ = -20					; size = 4
_strName$7 = -16					; size = 4
__$EHRec$ = -12						; size = 12
?OnSelchangeListFuture@CTabCodeSearchFO@@IAEXXZ PROC	; CTabCodeSearchFO::OnSelchangeListFuture, COMDAT
; _this$ = ecx

; 945  : {

  00000	55		 push	 ebp
  00001	8b ec		 mov	 ebp, esp
  00003	6a ff		 push	 -1
  00005	68 00 00 00 00	 push	 __ehhandler$?OnSelchangeListFuture@CTabCodeSearchFO@@IAEXXZ
  0000a	64 a1 00 00 00
	00		 mov	 eax, DWORD PTR fs:0
  00010	50		 push	 eax
  00011	83 ec 1c	 sub	 esp, 28			; 0000001cH
  00014	56		 push	 esi
  00015	57		 push	 edi
  00016	a1 00 00 00 00	 mov	 eax, DWORD PTR ___security_cookie
  0001b	33 c5		 xor	 eax, ebp
  0001d	50		 push	 eax
  0001e	8d 45 f4	 lea	 eax, DWORD PTR __$EHRec$[ebp]
  00021	64 a3 00 00 00
	00		 mov	 DWORD PTR fs:0, eax
  00027	8b f1		 mov	 esi, ecx

; 946  : 	CString strCodeSelected;

  00029	8d 4d e0	 lea	 ecx, DWORD PTR _strCodeSelected$[ebp]
  0002c	ff 15 00 00 00
	00		 call	 DWORD PTR __imp_??0?$CStringT@DV?$StrTraitMFC_DLL@DV?$ChTraitsCRT@D@ATL@@@@@ATL@@QAE@XZ
; File C:\Program Files (x86)\Microsoft Visual Studio\2019\Community\VC\Tools\MSVC\14.29.30133\atlmfc\include\afxwin2.inl

; 666  : 	{ ASSERT(::IsWindow(m_hWnd)); return (int)::SendMessage(m_hWnd, LB_GETCURSEL, 0, 0); }

  00032	6a 00		 push	 0
  00034	6a 00		 push	 0
  00036	68 88 01 00 00	 push	 392			; 00000188H
  0003b	ff b6 00 02 00
	00		 push	 DWORD PTR [esi+512]
; File D:\git\src\IBK\IBK_DRFN\ProjSrc\SrcDrfn\Chart\comparechart\TabCodeSearchFO.cpp

; 946  : 	CString strCodeSelected;

  00041	c7 45 fc 00 00
	00 00		 mov	 DWORD PTR __$EHRec$[ebp+8], 0
; File C:\Program Files (x86)\Microsoft Visual Studio\2019\Community\VC\Tools\MSVC\14.29.30133\atlmfc\include\afxwin2.inl

; 666  : 	{ ASSERT(::IsWindow(m_hWnd)); return (int)::SendMessage(m_hWnd, LB_GETCURSEL, 0, 0); }

  00048	ff 15 00 00 00
	00		 call	 DWORD PTR __imp__SendMessageA@16
; File C:\Program Files (x86)\Microsoft Visual Studio\2019\Community\VC\Tools\MSVC\14.29.30133\atlmfc\include\afx.inl

; 116  : 	{ return ::operator new(nSize); }

  0004e	6a 14		 push	 20			; 00000014H
; File D:\git\src\IBK\IBK_DRFN\ProjSrc\SrcDrfn\Chart\comparechart\TabCodeSearchFO.cpp

; 947  : 	int nSel = m_listFuture.GetCurSel();

  00050	8b f8		 mov	 edi, eax
; File C:\Program Files (x86)\Microsoft Visual Studio\2019\Community\VC\Tools\MSVC\14.29.30133\atlmfc\include\afx.inl

; 116  : 	{ return ::operator new(nSize); }

  00052	e8 00 00 00 00	 call	 ??2@YAPAXI@Z		; operator new
  00057	83 c4 04	 add	 esp, 4
; File D:\git\src\IBK\IBK_DRFN\ProjSrc\SrcDrfn\Chart\comparechart\TabCodeSearchFO.cpp

; 953  : 	pastrJongCode = new CStringArray;

  0005a	89 45 e4	 mov	 DWORD PTR $T5[ebp], eax
  0005d	c6 45 fc 01	 mov	 BYTE PTR __$EHRec$[ebp+8], 1
  00061	85 c0		 test	 eax, eax
  00063	74 09		 je	 SHORT $LN8@OnSelchang
  00065	8b c8		 mov	 ecx, eax
  00067	e8 00 00 00 00	 call	 ??0CStringArray@@QAE@XZ	; CStringArray::CStringArray
  0006c	eb 02		 jmp	 SHORT $LN9@OnSelchang
$LN8@OnSelchang:
  0006e	33 c0		 xor	 eax, eax
$LN9@OnSelchang:
; File C:\Program Files (x86)\Microsoft Visual Studio\2019\Community\VC\Tools\MSVC\14.29.30133\atlmfc\include\afx.inl

; 116  : 	{ return ::operator new(nSize); }

  00070	6a 14		 push	 20			; 00000014H
; File D:\git\src\IBK\IBK_DRFN\ProjSrc\SrcDrfn\Chart\comparechart\TabCodeSearchFO.cpp

; 953  : 	pastrJongCode = new CStringArray;

  00072	c6 45 fc 00	 mov	 BYTE PTR __$EHRec$[ebp+8], 0
  00076	89 45 ec	 mov	 DWORD PTR _pastrJongCode$[ebp], eax
; File C:\Program Files (x86)\Microsoft Visual Studio\2019\Community\VC\Tools\MSVC\14.29.30133\atlmfc\include\afx.inl

; 116  : 	{ return ::operator new(nSize); }

  00079	e8 00 00 00 00	 call	 ??2@YAPAXI@Z		; operator new
  0007e	83 c4 04	 add	 esp, 4
; File D:\git\src\IBK\IBK_DRFN\ProjSrc\SrcDrfn\Chart\comparechart\TabCodeSearchFO.cpp

; 954  : 	pastrJongName = new CStringArray;

  00081	89 45 e4	 mov	 DWORD PTR $T4[ebp], eax
  00084	c6 45 fc 02	 mov	 BYTE PTR __$EHRec$[ebp+8], 2
  00088	85 c0		 test	 eax, eax
  0008a	74 09		 je	 SHORT $LN10@OnSelchang
  0008c	8b c8		 mov	 ecx, eax
  0008e	e8 00 00 00 00	 call	 ??0CStringArray@@QAE@XZ	; CStringArray::CStringArray
  00093	eb 02		 jmp	 SHORT $LN11@OnSelchang
$LN10@OnSelchang:
  00095	33 c0		 xor	 eax, eax
$LN11@OnSelchang:
; File C:\Program Files (x86)\Microsoft Visual Studio\2019\Community\VC\Tools\MSVC\14.29.30133\atlmfc\include\afx.inl

; 116  : 	{ return ::operator new(nSize); }

  00097	6a 14		 push	 20			; 00000014H
; File D:\git\src\IBK\IBK_DRFN\ProjSrc\SrcDrfn\Chart\comparechart\TabCodeSearchFO.cpp

; 954  : 	pastrJongName = new CStringArray;

  00099	c6 45 fc 00	 mov	 BYTE PTR __$EHRec$[ebp+8], 0
  0009d	89 45 dc	 mov	 DWORD PTR _pastrJongName$[ebp], eax
; File C:\Program Files (x86)\Microsoft Visual Studio\2019\Community\VC\Tools\MSVC\14.29.30133\atlmfc\include\afx.inl

; 116  : 	{ return ::operator new(nSize); }

  000a0	e8 00 00 00 00	 call	 ??2@YAPAXI@Z		; operator new
  000a5	83 c4 04	 add	 esp, 4
; File D:\git\src\IBK\IBK_DRFN\ProjSrc\SrcDrfn\Chart\comparechart\TabCodeSearchFO.cpp

; 955  : 	pastrJongEngName = new CStringArray;

  000a8	89 45 e4	 mov	 DWORD PTR $T3[ebp], eax
  000ab	c6 45 fc 03	 mov	 BYTE PTR __$EHRec$[ebp+8], 3
  000af	85 c0		 test	 eax, eax
  000b1	74 09		 je	 SHORT $LN12@OnSelchang
  000b3	8b c8		 mov	 ecx, eax
  000b5	e8 00 00 00 00	 call	 ??0CStringArray@@QAE@XZ	; CStringArray::CStringArray
  000ba	eb 02		 jmp	 SHORT $LN13@OnSelchang
$LN12@OnSelchang:
  000bc	33 c0		 xor	 eax, eax
$LN13@OnSelchang:

; 956  : 
; 957  : 	if( m_nComboSel == 1 )

  000be	83 be f0 04 00
	00 01		 cmp	 DWORD PTR [esi+1264], 1
  000c5	8d 55 d8	 lea	 edx, DWORD PTR _pastrJongEngName$[ebp]
  000c8	52		 push	 edx
  000c9	8d 55 dc	 lea	 edx, DWORD PTR _pastrJongName$[ebp]
  000cc	89 45 d8	 mov	 DWORD PTR _pastrJongEngName$[ebp], eax
  000cf	8b 86 dc 04 00
	00		 mov	 eax, DWORD PTR [esi+1244]
  000d5	52		 push	 edx
  000d6	8d 55 ec	 lea	 edx, DWORD PTR _pastrJongCode$[ebp]
  000d9	c6 45 fc 00	 mov	 BYTE PTR __$EHRec$[ebp+8], 0
  000dd	52		 push	 edx
  000de	8b 08		 mov	 ecx, DWORD PTR [eax]
  000e0	50		 push	 eax
  000e1	75 05		 jne	 SHORT $LN2@OnSelchang

; 958  : 		m_pDataManager->GetMiniFutureJongMst(pastrJongCode, pastrJongName, pastrJongEngName);

  000e3	ff 51 60	 call	 DWORD PTR [ecx+96]
  000e6	eb 03		 jmp	 SHORT $LN3@OnSelchang
$LN2@OnSelchang:

; 959  : 	else
; 960  : 		m_pDataManager->GetFutureJongMst(pastrJongCode, pastrJongName, pastrJongEngName);

  000e8	ff 51 48	 call	 DWORD PTR [ecx+72]
$LN3@OnSelchang:
; File C:\Program Files (x86)\Microsoft Visual Studio\2019\Community\VC\Tools\MSVC\14.29.30133\atlmfc\include\afxcoll.inl

; 289  : 		if( nIndex < 0 || nIndex >= m_nSize )

  000eb	85 ff		 test	 edi, edi
  000ed	0f 88 0d 01 00
	00		 js	 $LN38@OnSelchang
  000f3	8b 45 ec	 mov	 eax, DWORD PTR _pastrJongCode$[ebp]
  000f6	3b 78 08	 cmp	 edi, DWORD PTR [eax+8]
  000f9	0f 8d 01 01 00
	00		 jge	 $LN38@OnSelchang

; 291  : 		return m_pData[nIndex]; }

  000ff	8b 40 04	 mov	 eax, DWORD PTR [eax+4]
; File D:\git\src\IBK\IBK_DRFN\ProjSrc\SrcDrfn\Chart\comparechart\TabCodeSearchFO.cpp

; 963  : 	strCodeSelected = pastrJongCode->GetAt(nSel);

  00102	8d 4d e0	 lea	 ecx, DWORD PTR _strCodeSelected$[ebp]
; File C:\Program Files (x86)\Microsoft Visual Studio\2019\Community\VC\Tools\MSVC\14.29.30133\atlmfc\include\afxcoll.inl

; 291  : 		return m_pData[nIndex]; }

  00105	8d 04 b8	 lea	 eax, DWORD PTR [eax+edi*4]
; File D:\git\src\IBK\IBK_DRFN\ProjSrc\SrcDrfn\Chart\comparechart\TabCodeSearchFO.cpp

; 963  : 	strCodeSelected = pastrJongCode->GetAt(nSel);

  00108	50		 push	 eax
  00109	ff 15 00 00 00
	00		 call	 DWORD PTR __imp_??4?$CStringT@DV?$StrTraitMFC_DLL@DV?$ChTraitsCRT@D@ATL@@@@@ATL@@QAEAAV01@ABV01@@Z

; 964  : 
; 965  : 	delete pastrJongCode;

  0010f	8b 4d ec	 mov	 ecx, DWORD PTR _pastrJongCode$[ebp]
  00112	85 c9		 test	 ecx, ecx
  00114	74 07		 je	 SHORT $LN14@OnSelchang
  00116	8b 01		 mov	 eax, DWORD PTR [ecx]
  00118	6a 01		 push	 1
  0011a	ff 50 04	 call	 DWORD PTR [eax+4]
$LN14@OnSelchang:

; 966  : 	delete pastrJongName;	//    

  0011d	8b 4d dc	 mov	 ecx, DWORD PTR _pastrJongName$[ebp]
  00120	85 c9		 test	 ecx, ecx
  00122	74 07		 je	 SHORT $LN16@OnSelchang
  00124	8b 01		 mov	 eax, DWORD PTR [ecx]
  00126	6a 01		 push	 1
  00128	ff 50 04	 call	 DWORD PTR [eax+4]
$LN16@OnSelchang:

; 967  : 	delete pastrJongEngName;	//    

  0012b	8b 4d d8	 mov	 ecx, DWORD PTR _pastrJongEngName$[ebp]
  0012e	85 c9		 test	 ecx, ecx
  00130	74 07		 je	 SHORT $LN18@OnSelchang
  00132	8b 01		 mov	 eax, DWORD PTR [ecx]
  00134	6a 01		 push	 1
  00136	ff 50 04	 call	 DWORD PTR [eax+4]
$LN18@OnSelchang:
; File C:\Program Files (x86)\Microsoft Visual Studio\2019\Community\VC\Tools\MSVC\14.29.30133\atlmfc\include\atlsimpstr.h

; 519  : 		return( GetData()->nDataLength );

  00139	8b 45 e0	 mov	 eax, DWORD PTR _strCodeSelected$[ebp]

; 533  : 		return( GetLength() == 0 );

  0013c	83 78 f4 00	 cmp	 DWORD PTR [eax-12], 0
; File D:\git\src\IBK\IBK_DRFN\ProjSrc\SrcDrfn\Chart\comparechart\TabCodeSearchFO.cpp

; 969  : 	if(!strCodeSelected.IsEmpty())

  00140	0f 84 a0 00 00
	00		 je	 $LN4@OnSelchang

; 970  : 	{
; 971  : 		CString strCode = strCodeSelected;

  00146	8d 45 e0	 lea	 eax, DWORD PTR _strCodeSelected$[ebp]
  00149	50		 push	 eax
  0014a	8d 4d e4	 lea	 ecx, DWORD PTR _strCode$2[ebp]
  0014d	ff 15 00 00 00
	00		 call	 DWORD PTR __imp_??0?$CStringT@DV?$StrTraitMFC_DLL@DV?$ChTraitsCRT@D@ATL@@@@@ATL@@QAE@ABV01@@Z

; 972  : 		//@Solomon CString strName = m_pDataManager->GetCodeInfo("FMASTER", 0, strCode);	
; 973  : 		CString strName = m_pDataManager->GetCodeName(strCode);

  00153	8b 86 dc 04 00
	00		 mov	 eax, DWORD PTR [esi+1244]
  00159	8d 55 f0	 lea	 edx, DWORD PTR _strName$7[ebp]
  0015c	ff 75 e4	 push	 DWORD PTR _strCode$2[ebp]
  0015f	c6 45 fc 04	 mov	 BYTE PTR __$EHRec$[ebp+8], 4
  00163	52		 push	 edx
  00164	8b 08		 mov	 ecx, DWORD PTR [eax]
  00166	50		 push	 eax
  00167	ff 91 bc 00 00
	00		 call	 DWORD PTR [ecx+188]

; 974  : 		strName.TrimLeft();			

  0016d	8d 4d f0	 lea	 ecx, DWORD PTR _strName$7[ebp]
  00170	c6 45 fc 05	 mov	 BYTE PTR __$EHRec$[ebp+8], 5
  00174	ff 15 00 00 00
	00		 call	 DWORD PTR __imp_?TrimLeft@?$CStringT@DV?$StrTraitMFC_DLL@DV?$ChTraitsCRT@D@ATL@@@@@ATL@@QAEAAV12@XZ
; File C:\Program Files (x86)\Microsoft Visual Studio\2019\Community\VC\Tools\MSVC\14.29.30133\atlmfc\include\atlsimpstr.h

; 519  : 		return( GetData()->nDataLength );

  0017a	8b 45 f0	 mov	 eax, DWORD PTR _strName$7[ebp]
; File D:\git\src\IBK\IBK_DRFN\ProjSrc\SrcDrfn\Chart\comparechart\TabCodeSearchFO.cpp

; 976  : 		if(strName.GetLength()<=0)

  0017d	83 78 f4 00	 cmp	 DWORD PTR [eax-12], 0
  00181	7e 51		 jle	 SHORT $LN59@OnSelchang

; 977  : 			return;
; 978  : 		CString strData;

  00183	8d 4d e8	 lea	 ecx, DWORD PTR _strData$6[ebp]
  00186	ff 15 00 00 00
	00		 call	 DWORD PTR __imp_??0?$CStringT@DV?$StrTraitMFC_DLL@DV?$ChTraitsCRT@D@ATL@@@@@ATL@@QAE@XZ

; 979  : 		strData.Format("%s|%s", strName, strCode);

  0018c	ff 75 e4	 push	 DWORD PTR _strCode$2[ebp]
  0018f	8d 45 e8	 lea	 eax, DWORD PTR _strData$6[ebp]
  00192	c6 45 fc 06	 mov	 BYTE PTR __$EHRec$[ebp+8], 6
  00196	ff 75 f0	 push	 DWORD PTR _strName$7[ebp]
  00199	68 00 00 00 00	 push	 OFFSET ??_C@_05LMFDOBNM@?$CFs?$HM?$CFs@
  0019e	50		 push	 eax
  0019f	ff 15 00 00 00
	00		 call	 DWORD PTR __imp_?Format@?$CStringT@DV?$StrTraitMFC_DLL@DV?$ChTraitsCRT@D@ATL@@@@@ATL@@QAAXPBDZZ
  001a5	83 c4 10	 add	 esp, 16			; 00000010H
; File C:\Program Files (x86)\Microsoft Visual Studio\2019\Community\VC\Tools\MSVC\14.29.30133\atlmfc\include\cstringt.h

; 2560 : 		return( str1.Compare( str2 ) != 0 );

  001a8	8d 4d e8	 lea	 ecx, DWORD PTR _strData$6[ebp]
  001ab	ff b6 e8 04 00
	00		 push	 DWORD PTR [esi+1256]
  001b1	ff 15 00 00 00
	00		 call	 DWORD PTR __imp_?Compare@?$CStringT@DV?$StrTraitMFC_DLL@DV?$ChTraitsCRT@D@ATL@@@@@ATL@@QBEHPBD@Z
  001b7	85 c0		 test	 eax, eax
; File D:\git\src\IBK\IBK_DRFN\ProjSrc\SrcDrfn\Chart\comparechart\TabCodeSearchFO.cpp

; 980  : 		if(strData != m_strSelCodeNName)

  001b9	74 10		 je	 SHORT $LN6@OnSelchang

; 981  : 		{
; 982  : 			m_strSelCodeNName = strData;

  001bb	8d 45 e8	 lea	 eax, DWORD PTR _strData$6[ebp]
  001be	50		 push	 eax
  001bf	8d 8e e8 04 00
	00		 lea	 ecx, DWORD PTR [esi+1256]
  001c5	ff 15 00 00 00
	00		 call	 DWORD PTR __imp_??4?$CStringT@DV?$StrTraitMFC_DLL@DV?$ChTraitsCRT@D@ATL@@@@@ATL@@QAEAAV01@ABV01@@Z
$LN6@OnSelchang:

; 983  : 		}
; 984  : 	}

  001cb	8d 4d e8	 lea	 ecx, DWORD PTR _strData$6[ebp]
  001ce	ff 15 00 00 00
	00		 call	 DWORD PTR __imp_??1?$CStringT@DV?$StrTraitMFC_DLL@DV?$ChTraitsCRT@D@ATL@@@@@ATL@@QAE@XZ
$LN59@OnSelchang:

; 985  : }

  001d4	8d 4d f0	 lea	 ecx, DWORD PTR _strName$7[ebp]
  001d7	ff 15 00 00 00
	00		 call	 DWORD PTR __imp_??1?$CStringT@DV?$StrTraitMFC_DLL@DV?$ChTraitsCRT@D@ATL@@@@@ATL@@QAE@XZ
  001dd	8d 4d e4	 lea	 ecx, DWORD PTR _strCode$2[ebp]
  001e0	ff 15 00 00 00
	00		 call	 DWORD PTR __imp_??1?$CStringT@DV?$StrTraitMFC_DLL@DV?$ChTraitsCRT@D@ATL@@@@@ATL@@QAE@XZ
$LN4@OnSelchang:
  001e6	8d 4d e0	 lea	 ecx, DWORD PTR _strCodeSelected$[ebp]
  001e9	ff 15 00 00 00
	00		 call	 DWORD PTR __imp_??1?$CStringT@DV?$StrTraitMFC_DLL@DV?$ChTraitsCRT@D@ATL@@@@@ATL@@QAE@XZ
  001ef	8b 4d f4	 mov	 ecx, DWORD PTR __$EHRec$[ebp]
  001f2	64 89 0d 00 00
	00 00		 mov	 DWORD PTR fs:0, ecx
  001f9	59		 pop	 ecx
  001fa	5f		 pop	 edi
  001fb	5e		 pop	 esi
  001fc	8b e5		 mov	 esp, ebp
  001fe	5d		 pop	 ebp
  001ff	c3		 ret	 0
$LN38@OnSelchang:
; File C:\Program Files (x86)\Microsoft Visual Studio\2019\Community\VC\Tools\MSVC\14.29.30133\atlmfc\include\afxcoll.inl

; 290  : 			AfxThrowInvalidArgException();

  00200	e8 00 00 00 00	 call	 ?AfxThrowInvalidArgException@@YGXXZ ; AfxThrowInvalidArgException
$LN58@OnSelchang:
  00205	cc		 int	 3
_TEXT	ENDS
;	COMDAT text$x
text$x	SEGMENT
__unwindfunclet$?OnSelchangeListFuture@CTabCodeSearchFO@@IAEXXZ$0:
  00000	8d 4d e0	 lea	 ecx, DWORD PTR _strCodeSelected$[ebp]
  00003	ff 25 00 00 00
	00		 jmp	 DWORD PTR __imp_??1?$CStringT@DV?$StrTraitMFC_DLL@DV?$ChTraitsCRT@D@ATL@@@@@ATL@@QAE@XZ
__unwindfunclet$?OnSelchangeListFuture@CTabCodeSearchFO@@IAEXXZ$1:
  00009	8b 45 e4	 mov	 eax, DWORD PTR $T5[ebp]
  0000c	50		 push	 eax
  0000d	e8 00 00 00 00	 call	 ??3CObject@@SGXPAX@Z	; CObject::operator delete
  00012	c3		 ret	 0
__unwindfunclet$?OnSelchangeListFuture@CTabCodeSearchFO@@IAEXXZ$2:
  00013	8b 45 e4	 mov	 eax, DWORD PTR $T4[ebp]
  00016	50		 push	 eax
  00017	e8 00 00 00 00	 call	 ??3CObject@@SGXPAX@Z	; CObject::operator delete
  0001c	c3		 ret	 0
__unwindfunclet$?OnSelchangeListFuture@CTabCodeSearchFO@@IAEXXZ$3:
  0001d	8b 45 e4	 mov	 eax, DWORD PTR $T3[ebp]
  00020	50		 push	 eax
  00021	e8 00 00 00 00	 call	 ??3CObject@@SGXPAX@Z	; CObject::operator delete
  00026	c3		 ret	 0
__unwindfunclet$?OnSelchangeListFuture@CTabCodeSearchFO@@IAEXXZ$4:
  00027	8d 4d e4	 lea	 ecx, DWORD PTR _strCode$2[ebp]
  0002a	ff 25 00 00 00
	00		 jmp	 DWORD PTR __imp_??1?$CStringT@DV?$StrTraitMFC_DLL@DV?$ChTraitsCRT@D@ATL@@@@@ATL@@QAE@XZ
__unwindfunclet$?OnSelchangeListFuture@CTabCodeSearchFO@@IAEXXZ$5:
  00030	8d 4d f0	 lea	 ecx, DWORD PTR _strName$7[ebp]
  00033	ff 25 00 00 00
	00		 jmp	 DWORD PTR __imp_??1?$CStringT@DV?$StrTraitMFC_DLL@DV?$ChTraitsCRT@D@ATL@@@@@ATL@@QAE@XZ
__unwindfunclet$?OnSelchangeListFuture@CTabCodeSearchFO@@IAEXXZ$6:
  00039	8d 4d e8	 lea	 ecx, DWORD PTR _strData$6[ebp]
  0003c	ff 25 00 00 00
	00		 jmp	 DWORD PTR __imp_??1?$CStringT@DV?$StrTraitMFC_DLL@DV?$ChTraitsCRT@D@ATL@@@@@ATL@@QAE@XZ
  00042	cc		 int	 3
  00043	cc		 int	 3
  00044	cc		 int	 3
  00045	cc		 int	 3
  00046	cc		 int	 3
__ehhandler$?OnSelchangeListFuture@CTabCodeSearchFO@@IAEXXZ:
  00047	90		 npad	 1
  00048	90		 npad	 1
  00049	8b 54 24 08	 mov	 edx, DWORD PTR [esp+8]
  0004d	8d 42 0c	 lea	 eax, DWORD PTR [edx+12]
  00050	8b 4a d8	 mov	 ecx, DWORD PTR [edx-40]
  00053	33 c8		 xor	 ecx, eax
  00055	e8 00 00 00 00	 call	 @__security_check_cookie@4
  0005a	b8 00 00 00 00	 mov	 eax, OFFSET __ehfuncinfo$?OnSelchangeListFuture@CTabCodeSearchFO@@IAEXXZ
  0005f	e9 00 00 00 00	 jmp	 ___CxxFrameHandler3
text$x	ENDS
?OnSelchangeListFuture@CTabCodeSearchFO@@IAEXXZ ENDP	; CTabCodeSearchFO::OnSelchangeListFuture
; Function compile flags: /Ogtp
; File D:\git\src\IBK\IBK_DRFN\ProjSrc\SrcDrfn\Chart\comparechart\TabCodeSearchFO.cpp
; File C:\Program Files (x86)\Microsoft Visual Studio\2019\Community\VC\Tools\MSVC\14.29.30133\atlmfc\include\afxwin1.inl
; File D:\git\src\IBK\IBK_DRFN\ProjSrc\SrcDrfn\Chart\comparechart\TabCodeSearchFO.cpp
; File C:\Program Files (x86)\Microsoft Visual Studio\2019\Community\VC\Tools\MSVC\14.29.30133\atlmfc\include\afxwin1.inl
; File D:\git\src\IBK\IBK_DRFN\ProjSrc\SrcDrfn\Chart\comparechart\TabCodeSearchFO.cpp
;	COMDAT ?OnCtlColor@CTabCodeSearchFO@@IAEPAUHBRUSH__@@PAVCDC@@PAVCWnd@@I@Z
_TEXT	SEGMENT
_pDC$ = 8						; size = 4
_pWnd$ = 12						; size = 4
_nCtlColor$ = 16					; size = 4
?OnCtlColor@CTabCodeSearchFO@@IAEPAUHBRUSH__@@PAVCDC@@PAVCWnd@@I@Z PROC ; CTabCodeSearchFO::OnCtlColor, COMDAT
; _this$ = ecx

; 840  : {

  00000	55		 push	 ebp
  00001	8b ec		 mov	 ebp, esp
  00003	53		 push	 ebx

; 841  : 	HBRUSH hbr = CTabDlg::OnCtlColor(pDC, pWnd, nCtlColor);

  00004	8b 5d 08	 mov	 ebx, DWORD PTR _pDC$[ebp]
  00007	56		 push	 esi
  00008	8b 75 10	 mov	 esi, DWORD PTR _nCtlColor$[ebp]
  0000b	57		 push	 edi
  0000c	56		 push	 esi
  0000d	ff 75 0c	 push	 DWORD PTR _pWnd$[ebp]
  00010	8b f9		 mov	 edi, ecx
  00012	53		 push	 ebx
  00013	e8 00 00 00 00	 call	 ?OnCtlColor@CRscDlg@@IAEPAUHBRUSH__@@PAVCDC@@PAVCWnd@@I@Z ; CRscDlg::OnCtlColor

; 842  : 	
; 843  : 	// TODO: Change any attributes of the DC here
; 844  : 	switch(nCtlColor) 

  00018	83 ee 01	 sub	 esi, 1
  0001b	74 26		 je	 SHORT $LN1@OnCtlColor
  0001d	83 ee 01	 sub	 esi, 1
  00020	74 21		 je	 SHORT $LN1@OnCtlColor

; 845  : 	{
; 846  : 	case CTLCOLOR_EDIT:
; 847  : 	case CTLCOLOR_LISTBOX:
; 848  : 		return hbr;
; 849  : 		break;
; 850  : 	default:
; 851  : 		{
; 852  : 			pDC->SetBkColor(m_crBk);

  00022	8b 03		 mov	 eax, DWORD PTR [ebx]
  00024	8b cb		 mov	 ecx, ebx
  00026	ff b7 b0 00 00
	00		 push	 DWORD PTR [edi+176]
  0002c	ff 50 34	 call	 DWORD PTR [eax+52]

; 853  : 			return m_brBkColor;

  0002f	8d 87 a8 00 00
	00		 lea	 eax, DWORD PTR [edi+168]
; File C:\Program Files (x86)\Microsoft Visual Studio\2019\Community\VC\Tools\MSVC\14.29.30133\atlmfc\include\afxwin1.inl

; 124  : 	{ return (HBRUSH)(this == NULL ? NULL : m_hObject); }

  00035	85 c0		 test	 eax, eax
  00037	75 07		 jne	 SHORT $LN10@OnCtlColor
; File D:\git\src\IBK\IBK_DRFN\ProjSrc\SrcDrfn\Chart\comparechart\TabCodeSearchFO.cpp

; 860  : }

  00039	5f		 pop	 edi
  0003a	5e		 pop	 esi
  0003b	5b		 pop	 ebx
  0003c	5d		 pop	 ebp
  0003d	c2 0c 00	 ret	 12			; 0000000cH
$LN10@OnCtlColor:
; File C:\Program Files (x86)\Microsoft Visual Studio\2019\Community\VC\Tools\MSVC\14.29.30133\atlmfc\include\afxwin1.inl

; 124  : 	{ return (HBRUSH)(this == NULL ? NULL : m_hObject); }

  00040	8b 40 04	 mov	 eax, DWORD PTR [eax+4]
$LN1@OnCtlColor:
  00043	5f		 pop	 edi
; File D:\git\src\IBK\IBK_DRFN\ProjSrc\SrcDrfn\Chart\comparechart\TabCodeSearchFO.cpp

; 860  : }

  00044	5e		 pop	 esi
  00045	5b		 pop	 ebx
  00046	5d		 pop	 ebp
  00047	c2 0c 00	 ret	 12			; 0000000cH
?OnCtlColor@CTabCodeSearchFO@@IAEPAUHBRUSH__@@PAVCDC@@PAVCWnd@@I@Z ENDP ; CTabCodeSearchFO::OnCtlColor
_TEXT	ENDS
; Function compile flags: /Ogtp
; File D:\git\src\IBK\IBK_DRFN\ProjSrc\SrcDrfn\Chart\comparechart\TabCodeSearchFO.cpp
; File C:\Program Files (x86)\Microsoft Visual Studio\2019\Community\VC\Tools\MSVC\14.29.30133\atlmfc\include\afxwin2.inl
; File D:\git\src\IBK\IBK_DRFN\ProjSrc\SrcDrfn\Chart\comparechart\TabCodeSearchFO.cpp
; File C:\Program Files (x86)\Microsoft Visual Studio\2019\Community\VC\Tools\MSVC\14.29.30133\atlmfc\include\afxwin2.inl
; File D:\git\src\IBK\IBK_DRFN\ProjSrc\SrcDrfn\Chart\comparechart\TabCodeSearchFO.cpp
; File C:\Program Files (x86)\Microsoft Visual Studio\2019\Community\VC\Tools\MSVC\14.29.30133\atlmfc\include\afxwin2.inl
; File D:\git\src\IBK\IBK_DRFN\ProjSrc\SrcDrfn\Chart\comparechart\TabCodeSearchFO.cpp
;	COMDAT ?OnSelchangeComboFO@CTabCodeSearchFO@@IAEXXZ
_TEXT	SEGMENT
?OnSelchangeComboFO@CTabCodeSearchFO@@IAEXXZ PROC	; CTabCodeSearchFO::OnSelchangeComboFO, COMDAT
; _this$ = ecx

; 1058 : {

  00000	57		 push	 edi
; File C:\Program Files (x86)\Microsoft Visual Studio\2019\Community\VC\Tools\MSVC\14.29.30133\atlmfc\include\afxwin2.inl

; 765  : 	{ ASSERT(::IsWindow(m_hWnd)); return (int)::SendMessage(m_hWnd, CB_GETCURSEL, 0, 0); }

  00001	6a 00		 push	 0
; File D:\git\src\IBK\IBK_DRFN\ProjSrc\SrcDrfn\Chart\comparechart\TabCodeSearchFO.cpp

; 1058 : {

  00003	8b f9		 mov	 edi, ecx
; File C:\Program Files (x86)\Microsoft Visual Studio\2019\Community\VC\Tools\MSVC\14.29.30133\atlmfc\include\afxwin2.inl

; 765  : 	{ ASSERT(::IsWindow(m_hWnd)); return (int)::SendMessage(m_hWnd, CB_GETCURSEL, 0, 0); }

  00005	6a 00		 push	 0
  00007	68 47 01 00 00	 push	 327			; 00000147H
  0000c	ff b7 f0 00 00
	00		 push	 DWORD PTR [edi+240]
  00012	ff 15 00 00 00
	00		 call	 DWORD PTR __imp__SendMessageA@16
; File D:\git\src\IBK\IBK_DRFN\ProjSrc\SrcDrfn\Chart\comparechart\TabCodeSearchFO.cpp

; 1060 : 	InitMasterData();

  00018	8b cf		 mov	 ecx, edi
  0001a	89 87 f0 04 00
	00		 mov	 DWORD PTR [edi+1264], eax
  00020	e8 00 00 00 00	 call	 ?InitMasterData@CTabCodeSearchFO@@QAEHXZ ; CTabCodeSearchFO::InitMasterData
; File C:\Program Files (x86)\Microsoft Visual Studio\2019\Community\VC\Tools\MSVC\14.29.30133\atlmfc\include\afxwin2.inl

; 765  : 	{ ASSERT(::IsWindow(m_hWnd)); return (int)::SendMessage(m_hWnd, CB_GETCURSEL, 0, 0); }

  00025	6a 00		 push	 0
  00027	6a 00		 push	 0
  00029	68 47 01 00 00	 push	 327			; 00000147H
  0002e	ff b7 78 01 00
	00		 push	 DWORD PTR [edi+376]
  00034	ff 15 00 00 00
	00		 call	 DWORD PTR __imp__SendMessageA@16
; File D:\git\src\IBK\IBK_DRFN\ProjSrc\SrcDrfn\Chart\comparechart\TabCodeSearchFO.cpp

; 757  : 	m_nIndex = m_ctrlComboMonth.GetCurSel() +1;

  0003a	40		 inc	 eax

; 758  : 	InsertGridData();

  0003b	8b cf		 mov	 ecx, edi
  0003d	89 87 d4 04 00
	00		 mov	 DWORD PTR [edi+1236], eax
  00043	e8 00 00 00 00	 call	 ?InsertGridData@CTabCodeSearchFO@@QAEXXZ ; CTabCodeSearchFO::InsertGridData

; 759  : 	InsertMasterData(m_nIndex);

  00048	ff b7 d4 04 00
	00		 push	 DWORD PTR [edi+1236]
  0004e	8b cf		 mov	 ecx, edi
  00050	e8 00 00 00 00	 call	 ?InsertMasterData@CTabCodeSearchFO@@QAEXH@Z ; CTabCodeSearchFO::InsertMasterData
  00055	5f		 pop	 edi

; 1061 : 	OnSelchangeComboMonth();
; 1062 : }

  00056	c3		 ret	 0
?OnSelchangeComboFO@CTabCodeSearchFO@@IAEXXZ ENDP	; CTabCodeSearchFO::OnSelchangeComboFO
_TEXT	ENDS
; Function compile flags: /Ogtp
; File D:\git\src\IBK\IBK_DRFN\ProjSrc\SrcDrfn\Chart\comparechart\TabCodeSearchFO.cpp
; File C:\Program Files (x86)\Microsoft Visual Studio\2019\Community\VC\Tools\MSVC\14.29.30133\atlmfc\include\afxwin2.inl
; File D:\git\src\IBK\IBK_DRFN\ProjSrc\SrcDrfn\Chart\comparechart\TabCodeSearchFO.cpp
; File C:\Program Files (x86)\Microsoft Visual Studio\2019\Community\VC\Tools\MSVC\14.29.30133\atlmfc\include\afxwin2.inl
; File D:\git\src\IBK\IBK_DRFN\ProjSrc\SrcDrfn\Chart\comparechart\TabCodeSearchFO.cpp
;	COMDAT ?OnSelchangeComboMonth@CTabCodeSearchFO@@IAEXXZ
_TEXT	SEGMENT
?OnSelchangeComboMonth@CTabCodeSearchFO@@IAEXXZ PROC	; CTabCodeSearchFO::OnSelchangeComboMonth, COMDAT
; _this$ = ecx

; 755  : {

  00000	56		 push	 esi
; File C:\Program Files (x86)\Microsoft Visual Studio\2019\Community\VC\Tools\MSVC\14.29.30133\atlmfc\include\afxwin2.inl

; 765  : 	{ ASSERT(::IsWindow(m_hWnd)); return (int)::SendMessage(m_hWnd, CB_GETCURSEL, 0, 0); }

  00001	6a 00		 push	 0
; File D:\git\src\IBK\IBK_DRFN\ProjSrc\SrcDrfn\Chart\comparechart\TabCodeSearchFO.cpp

; 755  : {

  00003	8b f1		 mov	 esi, ecx
; File C:\Program Files (x86)\Microsoft Visual Studio\2019\Community\VC\Tools\MSVC\14.29.30133\atlmfc\include\afxwin2.inl

; 765  : 	{ ASSERT(::IsWindow(m_hWnd)); return (int)::SendMessage(m_hWnd, CB_GETCURSEL, 0, 0); }

  00005	6a 00		 push	 0
  00007	68 47 01 00 00	 push	 327			; 00000147H
  0000c	ff b6 78 01 00
	00		 push	 DWORD PTR [esi+376]
  00012	ff 15 00 00 00
	00		 call	 DWORD PTR __imp__SendMessageA@16
; File D:\git\src\IBK\IBK_DRFN\ProjSrc\SrcDrfn\Chart\comparechart\TabCodeSearchFO.cpp

; 757  : 	m_nIndex = m_ctrlComboMonth.GetCurSel() +1;

  00018	40		 inc	 eax

; 758  : 	InsertGridData();

  00019	8b ce		 mov	 ecx, esi
  0001b	89 86 d4 04 00
	00		 mov	 DWORD PTR [esi+1236], eax
  00021	e8 00 00 00 00	 call	 ?InsertGridData@CTabCodeSearchFO@@QAEXXZ ; CTabCodeSearchFO::InsertGridData

; 759  : 	InsertMasterData(m_nIndex);

  00026	ff b6 d4 04 00
	00		 push	 DWORD PTR [esi+1236]
  0002c	8b ce		 mov	 ecx, esi
  0002e	e8 00 00 00 00	 call	 ?InsertMasterData@CTabCodeSearchFO@@QAEXH@Z ; CTabCodeSearchFO::InsertMasterData
  00033	5e		 pop	 esi

; 760  : }

  00034	c3		 ret	 0
?OnSelchangeComboMonth@CTabCodeSearchFO@@IAEXXZ ENDP	; CTabCodeSearchFO::OnSelchangeComboMonth
_TEXT	ENDS
; Function compile flags: /Ogtp
; File D:\git\src\IBK\IBK_DRFN\ProjSrc\SrcDrfn\Chart\comparechart\TabCodeSearchFO.cpp
; File C:\Program Files (x86)\Microsoft Visual Studio\2019\Community\VC\Tools\MSVC\14.29.30133\atlmfc\include\afxwin2.inl
; File D:\git\src\IBK\IBK_DRFN\ProjSrc\SrcDrfn\Chart\comparechart\TabCodeSearchFO.cpp
; File C:\Program Files (x86)\Microsoft Visual Studio\2019\Community\VC\Tools\MSVC\14.29.30133\atlmfc\include\afxwin2.inl
; File D:\git\src\IBK\IBK_DRFN\ProjSrc\SrcDrfn\Chart\comparechart\TabCodeSearchFO.cpp
;	COMDAT ?OnEditchangeComboMonth@CTabCodeSearchFO@@IAEXXZ
_TEXT	SEGMENT
?OnEditchangeComboMonth@CTabCodeSearchFO@@IAEXXZ PROC	; CTabCodeSearchFO::OnEditchangeComboMonth, COMDAT
; _this$ = ecx

; 748  : {

  00000	56		 push	 esi
; File C:\Program Files (x86)\Microsoft Visual Studio\2019\Community\VC\Tools\MSVC\14.29.30133\atlmfc\include\afxwin2.inl

; 765  : 	{ ASSERT(::IsWindow(m_hWnd)); return (int)::SendMessage(m_hWnd, CB_GETCURSEL, 0, 0); }

  00001	6a 00		 push	 0
; File D:\git\src\IBK\IBK_DRFN\ProjSrc\SrcDrfn\Chart\comparechart\TabCodeSearchFO.cpp

; 748  : {

  00003	8b f1		 mov	 esi, ecx
; File C:\Program Files (x86)\Microsoft Visual Studio\2019\Community\VC\Tools\MSVC\14.29.30133\atlmfc\include\afxwin2.inl

; 765  : 	{ ASSERT(::IsWindow(m_hWnd)); return (int)::SendMessage(m_hWnd, CB_GETCURSEL, 0, 0); }

  00005	6a 00		 push	 0
  00007	68 47 01 00 00	 push	 327			; 00000147H
  0000c	ff b6 78 01 00
	00		 push	 DWORD PTR [esi+376]
  00012	ff 15 00 00 00
	00		 call	 DWORD PTR __imp__SendMessageA@16
; File D:\git\src\IBK\IBK_DRFN\ProjSrc\SrcDrfn\Chart\comparechart\TabCodeSearchFO.cpp

; 751  : 	InsertMasterData(nSel);

  00018	50		 push	 eax
  00019	8b ce		 mov	 ecx, esi
  0001b	e8 00 00 00 00	 call	 ?InsertMasterData@CTabCodeSearchFO@@QAEXH@Z ; CTabCodeSearchFO::InsertMasterData
  00020	5e		 pop	 esi

; 752  : }

  00021	c3		 ret	 0
?OnEditchangeComboMonth@CTabCodeSearchFO@@IAEXXZ ENDP	; CTabCodeSearchFO::OnEditchangeComboMonth
_TEXT	ENDS
; Function compile flags: /Ogtp
; File D:\git\src\IBK\IBK_DRFN\ProjSrc\SrcDrfn\Chart\comparechart\TabCodeSearchFO.cpp
;	COMDAT ?OnDestroy@CTabCodeSearchFO@@IAEXXZ
_TEXT	SEGMENT
__ctlState$ = -8					; size = 8
?OnDestroy@CTabCodeSearchFO@@IAEXXZ PROC		; CTabCodeSearchFO::OnDestroy, COMDAT
; _this$ = ecx

; 137  : {

  00000	55		 push	 ebp
  00001	8b ec		 mov	 ebp, esp
  00003	83 ec 08	 sub	 esp, 8
  00006	56		 push	 esi
  00007	8b f1		 mov	 esi, ecx

; 138  : 	CTabDlg::OnDestroy();

  00009	e8 00 00 00 00	 call	 ?OnDestroy@CTabDlg@@IAEXXZ ; CTabDlg::OnDestroy

; 139  : 	
; 140  : 	// TODO: Add your message handler code here
; 141  : 	AFX_MANAGE_STATE(AfxGetStaticModuleState()); 

  0000e	e8 00 00 00 00	 call	 ?AfxGetStaticModuleState@@YGPAVAFX_MODULE_STATE@@XZ ; AfxGetStaticModuleState
  00013	50		 push	 eax
  00014	8d 4d f8	 lea	 ecx, DWORD PTR __ctlState$[ebp]
  00017	e8 00 00 00 00	 call	 ??0AFX_MAINTAIN_STATE2@@QAE@PAVAFX_MODULE_STATE@@@Z ; AFX_MAINTAIN_STATE2::AFX_MAINTAIN_STATE2

; 142  : 	 if(m_pGridCtrl)

  0001c	8b 8e e0 03 00
	00		 mov	 ecx, DWORD PTR [esi+992]
  00022	85 c9		 test	 ecx, ecx
  00024	74 11		 je	 SHORT $LN2@OnDestroy

; 143  : 	 {
; 144  : 		delete m_pGridCtrl;

  00026	8b 01		 mov	 eax, DWORD PTR [ecx]
  00028	6a 01		 push	 1
  0002a	ff 50 04	 call	 DWORD PTR [eax+4]

; 145  : 		m_pGridCtrl = NULL;

  0002d	c7 86 e0 03 00
	00 00 00 00 00	 mov	 DWORD PTR [esi+992], 0
$LN2@OnDestroy:

; 146  : 	 } 
; 147  : }

  00037	8d 4d f8	 lea	 ecx, DWORD PTR __ctlState$[ebp]
  0003a	e8 00 00 00 00	 call	 ??1AFX_MAINTAIN_STATE2@@QAE@XZ ; AFX_MAINTAIN_STATE2::~AFX_MAINTAIN_STATE2
  0003f	5e		 pop	 esi
  00040	8b e5		 mov	 esp, ebp
  00042	5d		 pop	 ebp
  00043	c3		 ret	 0
?OnDestroy@CTabCodeSearchFO@@IAEXXZ ENDP		; CTabCodeSearchFO::OnDestroy
_TEXT	ENDS
; Function compile flags: /Ogtp
; File D:\git\src\IBK\IBK_DRFN\ProjSrc\SrcDrfn\Chart\comparechart\TabCodeSearchFO.cpp
; File D:\git\src\IBK\IBK_DRFN\ProjSrc\SrcDrfn\inc\IBaseDefine.h
; File D:\git\src\IBK\IBK_DRFN\ProjSrc\SrcDrfn\Chart\comparechart\TabCodeSearchFO.cpp
; File C:\Program Files (x86)\Microsoft Visual Studio\2019\Community\VC\Tools\MSVC\14.29.30133\atlmfc\include\afxwin2.inl
; File D:\git\src\IBK\IBK_DRFN\ProjSrc\SrcDrfn\Chart\comparechart\TabCodeSearchFO.cpp
; File C:\Program Files (x86)\Microsoft Visual Studio\2019\Community\VC\Tools\MSVC\14.29.30133\atlmfc\include\afxwin2.inl
; File D:\git\src\IBK\IBK_DRFN\ProjSrc\SrcDrfn\Chart\comparechart\TabCodeSearchFO.cpp
; File C:\Program Files (x86)\Microsoft Visual Studio\2019\Community\VC\Tools\MSVC\14.29.30133\atlmfc\include\afxwin2.inl
; File D:\git\src\IBK\IBK_DRFN\ProjSrc\SrcDrfn\Chart\comparechart\TabCodeSearchFO.cpp
; File C:\Program Files (x86)\Microsoft Visual Studio\2019\Community\VC\Tools\MSVC\14.29.30133\atlmfc\include\afxwin2.inl
; File D:\git\src\IBK\IBK_DRFN\ProjSrc\SrcDrfn\Chart\comparechart\TabCodeSearchFO.cpp
;	COMDAT ?OnInitDialog@CTabCodeSearchFO@@MAEHXZ
_TEXT	SEGMENT
_hMainWnd$2 = -36					; size = 4
_szClipFormat$3 = -32					; size = 4
_aBufWnd$4 = -28					; size = 9
__$ArrayPad$ = -16					; size = 4
__$EHRec$ = -12						; size = 12
?OnInitDialog@CTabCodeSearchFO@@MAEHXZ PROC		; CTabCodeSearchFO::OnInitDialog, COMDAT
; _this$ = ecx

; 82   : {

  00000	55		 push	 ebp
  00001	8b ec		 mov	 ebp, esp
  00003	6a ff		 push	 -1
  00005	68 00 00 00 00	 push	 __ehhandler$?OnInitDialog@CTabCodeSearchFO@@MAEHXZ
  0000a	64 a1 00 00 00
	00		 mov	 eax, DWORD PTR fs:0
  00010	50		 push	 eax
  00011	83 ec 18	 sub	 esp, 24			; 00000018H
  00014	a1 00 00 00 00	 mov	 eax, DWORD PTR ___security_cookie
  00019	33 c5		 xor	 eax, ebp
  0001b	89 45 f0	 mov	 DWORD PTR __$ArrayPad$[ebp], eax
  0001e	53		 push	 ebx
  0001f	56		 push	 esi
  00020	57		 push	 edi
  00021	50		 push	 eax
  00022	8d 45 f4	 lea	 eax, DWORD PTR __$EHRec$[ebp]
  00025	64 a3 00 00 00
	00		 mov	 DWORD PTR fs:0, eax
  0002b	8b f9		 mov	 edi, ecx

; 83   : 	CTabDlg::OnInitDialog();

  0002d	e8 00 00 00 00	 call	 ?OnInitDialog@CTabDlg@@MAEHXZ ; CTabDlg::OnInitDialog
  00032	0f 57 c0	 xorps	 xmm0, xmm0
; File D:\git\src\IBK\IBK_DRFN\ProjSrc\SrcDrfn\inc\IBaseDefine.h

; 272  : 	AfxGetHanaroMainWnd(hMainWnd);

  00035	c7 45 dc 00 00
	00 00		 mov	 DWORD PTR _hMainWnd$2[ebp], 0
  0003c	8d 4d e0	 lea	 ecx, DWORD PTR _szClipFormat$3[ebp]
  0003f	66 0f d6 45 e4	 movq	 QWORD PTR _aBufWnd$4[ebp], xmm0
  00044	c6 45 ec 00	 mov	 BYTE PTR _aBufWnd$4[ebp+8], 0
  00048	ff 15 00 00 00
	00		 call	 DWORD PTR __imp_??0?$CStringT@DV?$StrTraitMFC_DLL@DV?$ChTraitsCRT@D@ATL@@@@@ATL@@QAE@XZ
  0004e	68 00 00 00 00	 push	 OFFSET ??_C@_0M@CBBNGGHM@PcTrMng?4dll@
  00053	c7 45 fc 00 00
	00 00		 mov	 DWORD PTR __$EHRec$[ebp+8], 0
  0005a	ff 15 00 00 00
	00		 call	 DWORD PTR __imp__GetModuleHandleA@4
  00060	50		 push	 eax
  00061	68 00 00 00 00	 push	 OFFSET ??_C@_0P@IDMAJEGN@HANAROPCTRMAIN@
  00066	8d 45 e0	 lea	 eax, DWORD PTR _szClipFormat$3[ebp]
  00069	68 00 00 00 00	 push	 OFFSET ??_C@_06NDLAHCHE@?$CFs?$CF08X@
  0006e	50		 push	 eax
  0006f	ff 15 00 00 00
	00		 call	 DWORD PTR __imp_?Format@?$CStringT@DV?$StrTraitMFC_DLL@DV?$ChTraitsCRT@D@ATL@@@@@ATL@@QAAXPBDZZ
  00075	83 c4 10	 add	 esp, 16			; 00000010H
  00078	8d 45 e4	 lea	 eax, DWORD PTR _aBufWnd$4[ebp]
  0007b	6a 09		 push	 9
  0007d	50		 push	 eax
  0007e	ff 75 e0	 push	 DWORD PTR _szClipFormat$3[ebp]
  00081	ff 15 00 00 00
	00		 call	 DWORD PTR __imp__GetEnvironmentVariableA@12
  00087	8d 45 dc	 lea	 eax, DWORD PTR _hMainWnd$2[ebp]
  0008a	50		 push	 eax
  0008b	8d 45 e4	 lea	 eax, DWORD PTR _aBufWnd$4[ebp]
  0008e	68 00 00 00 00	 push	 OFFSET ??_C@_02EMFKHFLK@?$CFX@
  00093	50		 push	 eax
  00094	e8 00 00 00 00	 call	 _sscanf
  00099	83 c4 0c	 add	 esp, 12			; 0000000cH
  0009c	c7 45 fc ff ff
	ff ff		 mov	 DWORD PTR __$EHRec$[ebp+8], -1
  000a3	8d 4d e0	 lea	 ecx, DWORD PTR _szClipFormat$3[ebp]
  000a6	ff 15 00 00 00
	00		 call	 DWORD PTR __imp_??1?$CStringT@DV?$StrTraitMFC_DLL@DV?$ChTraitsCRT@D@ATL@@@@@ATL@@QAE@XZ

; 273  : 
; 274  : 	return ::SendMessage(hMainWnd, RMSG_GETPCTRDATA, (WPARAM)'A', (LPARAM)nID);

  000ac	8b 1d 00 00 00
	00		 mov	 ebx, DWORD PTR __imp__SendMessageA@16
  000b2	6a 0c		 push	 12			; 0000000cH
  000b4	6a 41		 push	 65			; 00000041H
  000b6	ff 35 00 00 00
	00		 push	 DWORD PTR ?RMSG_GETPCTRDATA@@3IB
  000bc	ff 75 dc	 push	 DWORD PTR _hMainWnd$2[ebp]
  000bf	ff d3		 call	 ebx
; File D:\git\src\IBK\IBK_DRFN\ProjSrc\SrcDrfn\Chart\comparechart\TabCodeSearchFO.cpp

; 87   : 	m_strDataDirPath = (LPCTSTR)(LPCSTR)AfxGetPctrData(nID);

  000c1	50		 push	 eax
  000c2	8d 8f e4 04 00
	00		 lea	 ecx, DWORD PTR [edi+1252]
  000c8	ff 15 00 00 00
	00		 call	 DWORD PTR __imp_??4?$CStringT@DV?$StrTraitMFC_DLL@DV?$ChTraitsCRT@D@ATL@@@@@ATL@@QAEAAV01@PBD@Z
; File C:\Program Files (x86)\Microsoft Visual Studio\2019\Community\VC\Tools\MSVC\14.29.30133\atlmfc\include\afxwin2.inl

; 801  : 	{ ASSERT(::IsWindow(m_hWnd)); ::SendMessage(m_hWnd, CB_RESETCONTENT, 0, 0); }

  000ce	6a 00		 push	 0
  000d0	6a 00		 push	 0
  000d2	68 4b 01 00 00	 push	 331			; 0000014bH
  000d7	ff b7 f0 00 00
	00		 push	 DWORD PTR [edi+240]
; File D:\git\src\IBK\IBK_DRFN\ProjSrc\SrcDrfn\Chart\comparechart\TabCodeSearchFO.cpp

; 89   : 	m_nComboSel = 0;

  000dd	c7 87 f0 04 00
	00 00 00 00 00	 mov	 DWORD PTR [edi+1264], 0
; File C:\Program Files (x86)\Microsoft Visual Studio\2019\Community\VC\Tools\MSVC\14.29.30133\atlmfc\include\afxwin2.inl

; 801  : 	{ ASSERT(::IsWindow(m_hWnd)); ::SendMessage(m_hWnd, CB_RESETCONTENT, 0, 0); }

  000e7	ff d3		 call	 ebx
; File D:\git\src\IBK\IBK_DRFN\ProjSrc\SrcDrfn\Chart\comparechart\TabCodeSearchFO.cpp

; 82   : {

  000e9	33 f6		 xor	 esi, esi
  000eb	0f 1f 44 00 00	 npad	 5
$LL4@OnInitDial:
; File C:\Program Files (x86)\Microsoft Visual Studio\2019\Community\VC\Tools\MSVC\14.29.30133\atlmfc\include\afxwin2.inl

; 795  : 	{ ASSERT(::IsWindow(m_hWnd)); return (int)::SendMessage(m_hWnd, CB_ADDSTRING, 0, (LPARAM)lpszString); }

  000f0	ff b6 00 00 00
	00		 push	 DWORD PTR ?FUTOPT_COMBO@@3QBQBDB[esi]
  000f6	6a 00		 push	 0
  000f8	68 43 01 00 00	 push	 323			; 00000143H
  000fd	ff b7 f0 00 00
	00		 push	 DWORD PTR [edi+240]
  00103	ff d3		 call	 ebx
; File D:\git\src\IBK\IBK_DRFN\ProjSrc\SrcDrfn\Chart\comparechart\TabCodeSearchFO.cpp

; 91   : 	for (int nCount = 0; nCount < _countof(FUTOPT_COMBO); ++nCount)

  00105	83 c6 04	 add	 esi, 4
  00108	83 fe 0c	 cmp	 esi, 12			; 0000000cH
  0010b	72 e3		 jb	 SHORT $LL4@OnInitDial
; File C:\Program Files (x86)\Microsoft Visual Studio\2019\Community\VC\Tools\MSVC\14.29.30133\atlmfc\include\afxwin2.inl

; 767  : 	{ ASSERT(::IsWindow(m_hWnd)); return (int)::SendMessage(m_hWnd, CB_SETCURSEL, nSelect, 0); }

  0010d	6a 00		 push	 0
  0010f	ff b7 f0 04 00
	00		 push	 DWORD PTR [edi+1264]
  00115	68 4e 01 00 00	 push	 334			; 0000014eH
  0011a	ff b7 f0 00 00
	00		 push	 DWORD PTR [edi+240]
  00120	ff d3		 call	 ebx
; File D:\git\src\IBK\IBK_DRFN\ProjSrc\SrcDrfn\Chart\comparechart\TabCodeSearchFO.cpp

; 95   : 	InitMasterData();

  00122	8b cf		 mov	 ecx, edi
  00124	e8 00 00 00 00	 call	 ?InitMasterData@CTabCodeSearchFO@@QAEHXZ ; CTabCodeSearchFO::InitMasterData

; 96   : 	InitGrid();

  00129	8b cf		 mov	 ecx, edi
  0012b	e8 00 00 00 00	 call	 ?InitGrid@CTabCodeSearchFO@@QAEXXZ ; CTabCodeSearchFO::InitGrid

; 97   : 	InsertMasterData(m_nIndex);			// master file data grid edit/color setting

  00130	ff b7 d4 04 00
	00		 push	 DWORD PTR [edi+1236]
  00136	8b cf		 mov	 ecx, edi
  00138	e8 00 00 00 00	 call	 ?InsertMasterData@CTabCodeSearchFO@@QAEXH@Z ; CTabCodeSearchFO::InsertMasterData

; 98   : 	return TRUE;  // return TRUE unless you set the focus to a control

  0013d	b8 01 00 00 00	 mov	 eax, 1

; 99   : 	              // EXCEPTION: OCX Property Pages should return FALSE
; 100  : }

  00142	8b 4d f4	 mov	 ecx, DWORD PTR __$EHRec$[ebp]
  00145	64 89 0d 00 00
	00 00		 mov	 DWORD PTR fs:0, ecx
  0014c	59		 pop	 ecx
  0014d	5f		 pop	 edi
  0014e	5e		 pop	 esi
  0014f	5b		 pop	 ebx
  00150	8b 4d f0	 mov	 ecx, DWORD PTR __$ArrayPad$[ebp]
  00153	33 cd		 xor	 ecx, ebp
  00155	e8 00 00 00 00	 call	 @__security_check_cookie@4
  0015a	8b e5		 mov	 esp, ebp
  0015c	5d		 pop	 ebp
  0015d	c3		 ret	 0
_TEXT	ENDS
;	COMDAT text$x
text$x	SEGMENT
__unwindfunclet$?OnInitDialog@CTabCodeSearchFO@@MAEHXZ$0:
  00000	8d 4d e0	 lea	 ecx, DWORD PTR _szClipFormat$3[ebp]
  00003	ff 25 00 00 00
	00		 jmp	 DWORD PTR __imp_??1?$CStringT@DV?$StrTraitMFC_DLL@DV?$ChTraitsCRT@D@ATL@@@@@ATL@@QAE@XZ
  00009	cc		 int	 3
  0000a	cc		 int	 3
  0000b	cc		 int	 3
  0000c	cc		 int	 3
  0000d	cc		 int	 3
__ehhandler$?OnInitDialog@CTabCodeSearchFO@@MAEHXZ:
  0000e	90		 npad	 1
  0000f	90		 npad	 1
  00010	8b 54 24 08	 mov	 edx, DWORD PTR [esp+8]
  00014	8d 42 0c	 lea	 eax, DWORD PTR [edx+12]
  00017	8b 4a d8	 mov	 ecx, DWORD PTR [edx-40]
  0001a	33 c8		 xor	 ecx, eax
  0001c	e8 00 00 00 00	 call	 @__security_check_cookie@4
  00021	8b 4a fc	 mov	 ecx, DWORD PTR [edx-4]
  00024	33 c8		 xor	 ecx, eax
  00026	e8 00 00 00 00	 call	 @__security_check_cookie@4
  0002b	b8 00 00 00 00	 mov	 eax, OFFSET __ehfuncinfo$?OnInitDialog@CTabCodeSearchFO@@MAEHXZ
  00030	e9 00 00 00 00	 jmp	 ___CxxFrameHandler3
text$x	ENDS
?OnInitDialog@CTabCodeSearchFO@@MAEHXZ ENDP		; CTabCodeSearchFO::OnInitDialog
; Function compile flags: /Ogtp
; File D:\git\src\IBK\IBK_DRFN\ProjSrc\SrcDrfn\Chart\comparechart\TabCodeSearchFO.cpp
; File C:\Program Files (x86)\Microsoft Visual Studio\2019\Community\VC\Tools\MSVC\14.29.30133\atlmfc\include\afxwin2.inl
; File D:\git\src\IBK\IBK_DRFN\ProjSrc\SrcDrfn\Chart\comparechart\TabCodeSearchFO.cpp
;	COMDAT ?OnSize@CTabCodeSearchFO@@IAEXIHH@Z
_TEXT	SEGMENT
_nType$ = 8						; size = 4
_cx$ = 12						; size = 4
_cy$ = 16						; size = 4
?OnSize@CTabCodeSearchFO@@IAEXIHH@Z PROC		; CTabCodeSearchFO::OnSize, COMDAT
; _this$ = ecx

; 75   : {

  00000	56		 push	 esi
  00001	8b f1		 mov	 esi, ecx
; File C:\Program Files (x86)\Microsoft Visual Studio\2019\Community\VC\Tools\MSVC\14.29.30133\atlmfc\include\afxwin2.inl

; 330  : 	{ Default(); }

  00003	e8 00 00 00 00	 call	 ?Default@CWnd@@IAEJXZ	; CWnd::Default
; File D:\git\src\IBK\IBK_DRFN\ProjSrc\SrcDrfn\Chart\comparechart\TabCodeSearchFO.cpp

; 131  : 	RecalcLayoutCtrl(m_listFuture);

  00008	6a 00		 push	 0
  0000a	8d 86 e0 01 00
	00		 lea	 eax, DWORD PTR [esi+480]
  00010	8b ce		 mov	 ecx, esi
  00012	50		 push	 eax
  00013	e8 00 00 00 00	 call	 ?RecalcLayoutCtrl@CTabDlg@@IAEXAAVCWnd@@H@Z ; CTabDlg::RecalcLayoutCtrl

; 132  : 	if(m_pGridCtrl)

  00018	8b 86 e0 03 00
	00		 mov	 eax, DWORD PTR [esi+992]
  0001e	85 c0		 test	 eax, eax
  00020	74 0d		 je	 SHORT $LN6@OnSize

; 133  : 		RecalcLayoutCtrl(*m_pGridCtrl,ID_GRIDCTRL);	

  00022	68 74 27 00 00	 push	 10100			; 00002774H
  00027	50		 push	 eax
  00028	8b ce		 mov	 ecx, esi
  0002a	e8 00 00 00 00	 call	 ?RecalcLayoutCtrl@CTabDlg@@IAEXAAVCWnd@@H@Z ; CTabDlg::RecalcLayoutCtrl
$LN6@OnSize:
  0002f	5e		 pop	 esi

; 76   : 	CTabDlg::OnSize(nType, cx, cy);	
; 77   : 	// TODO: Add your message handler code here
; 78   : 	RecalcLayout();	
; 79   : }

  00030	c2 0c 00	 ret	 12			; 0000000cH
?OnSize@CTabCodeSearchFO@@IAEXIHH@Z ENDP		; CTabCodeSearchFO::OnSize
_TEXT	ENDS
; Function compile flags: /Ogtp
; File D:\git\src\IBK\IBK_DRFN\ProjSrc\SrcDrfn\Chart\comparechart\TabCodeSearchFO.cpp
;	COMDAT ?GetCodeInfo@CTabCodeSearchFO@@QAEHHAAH0AAV?$CStringT@DV?$StrTraitMFC_DLL@DV?$ChTraitsCRT@D@ATL@@@@@ATL@@@Z
_TEXT	SEGMENT
_strMonth$ = -16					; size = 4
__$EHRec$ = -12						; size = 12
_nType$ = 8						; size = 4
_strWeek$2 = 12						; size = 4
_row$ = 12						; size = 4
_nExercise$1$ = 16					; size = 4
_col$ = 16						; size = 4
_strCode$ = 20						; size = 4
?GetCodeInfo@CTabCodeSearchFO@@QAEHHAAH0AAV?$CStringT@DV?$StrTraitMFC_DLL@DV?$ChTraitsCRT@D@ATL@@@@@ATL@@@Z PROC ; CTabCodeSearchFO::GetCodeInfo, COMDAT
; _this$ = ecx

; 877  : {

  00000	55		 push	 ebp
  00001	8b ec		 mov	 ebp, esp
  00003	6a ff		 push	 -1
  00005	68 00 00 00 00	 push	 __ehhandler$?GetCodeInfo@CTabCodeSearchFO@@QAEHHAAH0AAV?$CStringT@DV?$StrTraitMFC_DLL@DV?$ChTraitsCRT@D@ATL@@@@@ATL@@@Z
  0000a	64 a1 00 00 00
	00		 mov	 eax, DWORD PTR fs:0
  00010	50		 push	 eax
  00011	51		 push	 ecx
  00012	53		 push	 ebx
  00013	56		 push	 esi
  00014	57		 push	 edi
  00015	a1 00 00 00 00	 mov	 eax, DWORD PTR ___security_cookie
  0001a	33 c5		 xor	 eax, ebp
  0001c	50		 push	 eax
  0001d	8d 45 f4	 lea	 eax, DWORD PTR __$EHRec$[ebp]
  00020	64 a3 00 00 00
	00		 mov	 DWORD PTR fs:0, eax
  00026	8b f9		 mov	 edi, ecx

; 878  : 	BOOL bRet = FALSE;
; 879  : 	CString strMonth;

  00028	8d 4d f0	 lea	 ecx, DWORD PTR _strMonth$[ebp]
  0002b	ff 15 00 00 00
	00		 call	 DWORD PTR __imp_??0?$CStringT@DV?$StrTraitMFC_DLL@DV?$ChTraitsCRT@D@ATL@@@@@ATL@@QAE@XZ

; 880  : 	int nMonth, nExercise;
; 881  : //	switch (nType)
; 882  : //	{
; 883  : //		case ROWCOL:
; 884  : //			{
; 885  : //				if (strCode.GetLength() < 8)		return FALSE;
; 886  : //				
; 887  : //				nGubun = atoi(strCode.Left(1));
; 888  : //				strMonth = strCode.Mid(4, 1);				strMonth.MakeUpper();
; 889  : //				if (strMonth >= "A" && strMonth <= "C")		nMonth = (strMonth[0] - 'A')+10;
; 890  : //				else										nMonth = atoi(strMonth);
; 891  : //				
; 892  : //				nExercise = atoi(strCode.Mid(5, 3));
; 893  : //
; 894  : //				for (int i=FIRST; i <= FOURTH; i++)	
; 895  : //				{	if (nMonth == m_nMonth.nInfo[i])		break;		}
; 896  : //
; 897  : //				if (i > FOURTH)		return FALSE;
; 898  : //
; 899  : //				row = GetGridRow(nExercise);
; 900  : //				col = (nGubun == 2) ? (COL_CENTER - i) : (COL_CENTER + i);
; 901  : //				bRet = TRUE;
; 902  : //			}
; 903  : //			break;
; 904  : //
; 905  : //		case CODE:
; 906  : //			{
; 907  : 				int nRowTotal = m_pGridCtrl->GetRowCount();

  00031	8b 8f e0 03 00
	00		 mov	 ecx, DWORD PTR [edi+992]
  00037	c7 45 fc 00 00
	00 00		 mov	 DWORD PTR __$EHRec$[ebp+8], 0
  0003e	e8 00 00 00 00	 call	 ?GetRowCount@CExGridCtrl@@QAEHXZ ; CExGridCtrl::GetRowCount

; 908  : 				if (row < TITLE_ROW || row > nRowTotal || col == COL_CENTER)		return FALSE;

  00043	8b 4d 0c	 mov	 ecx, DWORD PTR _row$[ebp]
  00046	8b 09		 mov	 ecx, DWORD PTR [ecx]
  00048	83 f9 01	 cmp	 ecx, 1
  0004b	0f 8c 46 01 00
	00		 jl	 $LN3@GetCodeInf
  00051	3b c8		 cmp	 ecx, eax
  00053	0f 8f 3e 01 00
	00		 jg	 $LN3@GetCodeInf
  00059	8b 45 10	 mov	 eax, DWORD PTR _col$[ebp]
  0005c	8b 00		 mov	 eax, DWORD PTR [eax]
  0005e	83 f8 01	 cmp	 eax, 1
  00061	0f 84 30 01 00
	00		 je	 $LN3@GetCodeInf

; 909  : 
; 910  : 				char cPCode = (char)m_pGridCtrl->GetItemData(row, col); // 0024696:     

  00067	50		 push	 eax
  00068	51		 push	 ecx
  00069	8b 8f e0 03 00
	00		 mov	 ecx, DWORD PTR [edi+992]
  0006f	e8 00 00 00 00	 call	 ?GetItemData@CExGridCtrl@@QAEJHH@Z ; CExGridCtrl::GetItemData

; 718  : 	long lPrice = m_lMaxLimit - (row - TITLE_ROW)* 250; 

  00074	8b 97 d0 04 00
	00		 mov	 edx, DWORD PTR [edi+1232]

; 909  : 
; 910  : 				char cPCode = (char)m_pGridCtrl->GetItemData(row, col); // 0024696:     

  0007a	8a d8		 mov	 bl, al

; 718  : 	long lPrice = m_lMaxLimit - (row - TITLE_ROW)* 250; 

  0007c	8b 45 0c	 mov	 eax, DWORD PTR _row$[ebp]

; 911  : 
; 912  : 				//if (col < COL_CENTER)	{ nGubun = 2; nIndex = COL_CENTER - col; }
; 913  : 				//else					{ nGubun = 3; nIndex = col - COL_CENTER; }
; 914  : 
; 915  : 				nMonth = m_nMonth.nInfo[m_nIndex]; 

  0007f	8b b7 d4 04 00
	00		 mov	 esi, DWORD PTR [edi+1236]

; 916  : 				//nYear = m_cYear[m_nIndex];
; 917  : 				nExercise = GetGridExercise(row);
; 918  : 
; 919  : 				if(m_nComboSel == 0 )

  00085	0f be db	 movsx	 ebx, bl

; 718  : 	long lPrice = m_lMaxLimit - (row - TITLE_ROW)* 250; 

  00088	69 08 fa 00 00
	00		 imul	 ecx, DWORD PTR [eax], 250

; 719  : 
; 720  : 	return (int)(lPrice / 100);

  0008e	b8 1f 85 eb 51	 mov	 eax, 1374389535		; 51eb851fH
  00093	2b d1		 sub	 edx, ecx

; 916  : 				//nYear = m_cYear[m_nIndex];
; 917  : 				nExercise = GetGridExercise(row);
; 918  : 
; 919  : 				if(m_nComboSel == 0 )

  00095	8b 8f f0 04 00
	00		 mov	 ecx, DWORD PTR [edi+1264]

; 718  : 	long lPrice = m_lMaxLimit - (row - TITLE_ROW)* 250; 

  0009b	81 c2 fa 00 00
	00		 add	 edx, 250		; 000000faH

; 719  : 
; 720  : 	return (int)(lPrice / 100);

  000a1	f7 ea		 imul	 edx
  000a3	c1 fa 05	 sar	 edx, 5
  000a6	8b c2		 mov	 eax, edx
  000a8	c1 e8 1f	 shr	 eax, 31			; 0000001fH
  000ab	03 c2		 add	 eax, edx
  000ad	89 45 10	 mov	 DWORD PTR _nExercise$1$[ebp], eax

; 916  : 				//nYear = m_cYear[m_nIndex];
; 917  : 				nExercise = GetGridExercise(row);
; 918  : 
; 919  : 				if(m_nComboSel == 0 )

  000b0	85 c9		 test	 ecx, ecx
  000b2	75 19		 jne	 SHORT $LN4@GetCodeInf

; 920  : 					strCode.Format("%1c%02d%1c%1X%03d", cPCode, 1, m_cYear[m_nIndex], nMonth, nExercise); // 0024696:    

  000b4	50		 push	 eax
  000b5	8b 84 b7 00 04
	00 00		 mov	 eax, DWORD PTR [edi+esi*4+1024]
  000bc	50		 push	 eax
  000bd	0f be 84 3e 94
	04 00 00	 movsx	 eax, BYTE PTR [esi+edi+1172]
  000c5	50		 push	 eax
  000c6	6a 01		 push	 1
  000c8	e9 b1 00 00 00	 jmp	 $LN17@GetCodeInf
$LN4@GetCodeInf:

; 921  : 				else if (m_nComboSel == 2)

  000cd	83 f9 02	 cmp	 ecx, 2
  000d0	0f 85 94 00 00
	00		 jne	 $LN6@GetCodeInf

; 922  : 				{
; 923  : 					CString strWeek;

  000d6	8d 4d 0c	 lea	 ecx, DWORD PTR _strWeek$2[ebp]
  000d9	ff 15 00 00 00
	00		 call	 DWORD PTR __imp_??0?$CStringT@DV?$StrTraitMFC_DLL@DV?$ChTraitsCRT@D@ATL@@@@@ATL@@QAE@XZ

; 924  : 					m_ctrlComboMonth.GetLBText(m_ctrlComboMonth.GetCurSel(), strWeek);

  000df	8d 45 0c	 lea	 eax, DWORD PTR _strWeek$2[ebp]
  000e2	c6 45 fc 01	 mov	 BYTE PTR __$EHRec$[ebp+8], 1
  000e6	50		 push	 eax
  000e7	8d 8f 58 01 00
	00		 lea	 ecx, DWORD PTR [edi+344]
  000ed	e8 00 00 00 00	 call	 ?GetCurSel@CComboBox@@QBEHXZ ; CComboBox::GetCurSel
  000f2	50		 push	 eax
  000f3	8d 8f 58 01 00
	00		 lea	 ecx, DWORD PTR [edi+344]
  000f9	e8 00 00 00 00	 call	 ?GetLBText@CComboBox@@QBEXHAAV?$CStringT@DV?$StrTraitMFC_DLL@DV?$ChTraitsCRT@D@ATL@@@@@ATL@@@Z ; CComboBox::GetLBText

; 925  : 					
; 926  : 					if(strWeek.Find("M") >= 0)

  000fe	6a 00		 push	 0
  00100	68 00 00 00 00	 push	 OFFSET ??_C@_01PLPBNMEI@M@
  00105	8d 4d 0c	 lea	 ecx, DWORD PTR _strWeek$2[ebp]
  00108	ff 15 00 00 00
	00		 call	 DWORD PTR __imp_?Find@?$CStringT@DV?$StrTraitMFC_DLL@DV?$ChTraitsCRT@D@ATL@@@@@ATL@@QBEHPBDH@Z
  0010e	8b 8f d4 04 00
	00		 mov	 ecx, DWORD PTR [edi+1236]
  00114	8d 0c 8f	 lea	 ecx, DWORD PTR [edi+ecx*4]
  00117	ff 75 10	 push	 DWORD PTR _nExercise$1$[ebp]
  0011a	ff b1 64 04 00
	00		 push	 DWORD PTR [ecx+1124]
  00120	85 c0		 test	 eax, eax
  00122	78 22		 js	 SHORT $LN8@GetCodeInf

; 927  : 						strCode.Format("%1cAF%02s%03d", cPCode, m_strWeeklyNo[m_nIndex], nExercise);

  00124	53		 push	 ebx
  00125	68 00 00 00 00	 push	 OFFSET ??_C@_0O@EHJFFJCN@?$CF1cAF?$CF02s?$CF03d@
  0012a	ff 75 14	 push	 DWORD PTR _strCode$[ebp]
  0012d	ff 15 00 00 00
	00		 call	 DWORD PTR __imp_?Format@?$CStringT@DV?$StrTraitMFC_DLL@DV?$ChTraitsCRT@D@ATL@@@@@ATL@@QAAXPBDZZ
  00133	83 c4 14	 add	 esp, 20			; 00000014H

; 930  : 				}

  00136	8d 4d 0c	 lea	 ecx, DWORD PTR _strWeek$2[ebp]
  00139	ff 15 00 00 00
	00		 call	 DWORD PTR __imp_??1?$CStringT@DV?$StrTraitMFC_DLL@DV?$ChTraitsCRT@D@ATL@@@@@ATL@@QAE@XZ

; 933  : 
; 934  : 				bRet = TRUE;
; 935  : 
; 936  : //			}
; 937  : //			break;
; 938  : //	}
; 939  : 
; 940  : 	return bRet;

  0013f	be 01 00 00 00	 mov	 esi, 1
  00144	eb 53		 jmp	 SHORT $LN13@GetCodeInf
$LN8@GetCodeInf:

; 928  : 					else
; 929  : 						strCode.Format("%1c%02d%02s%03d", cPCode, 9, m_strWeeklyNo[m_nIndex], nExercise); // 0024696:    

  00146	6a 09		 push	 9
  00148	53		 push	 ebx
  00149	68 00 00 00 00	 push	 OFFSET ??_C@_0BA@MIOHKIAF@?$CF1c?$CF02d?$CF02s?$CF03d@
  0014e	ff 75 14	 push	 DWORD PTR _strCode$[ebp]
  00151	ff 15 00 00 00
	00		 call	 DWORD PTR __imp_?Format@?$CStringT@DV?$StrTraitMFC_DLL@DV?$ChTraitsCRT@D@ATL@@@@@ATL@@QAAXPBDZZ
  00157	83 c4 18	 add	 esp, 24			; 00000018H

; 930  : 				}

  0015a	8d 4d 0c	 lea	 ecx, DWORD PTR _strWeek$2[ebp]
  0015d	ff 15 00 00 00
	00		 call	 DWORD PTR __imp_??1?$CStringT@DV?$StrTraitMFC_DLL@DV?$ChTraitsCRT@D@ATL@@@@@ATL@@QAE@XZ

; 933  : 
; 934  : 				bRet = TRUE;
; 935  : 
; 936  : //			}
; 937  : //			break;
; 938  : //	}
; 939  : 
; 940  : 	return bRet;

  00163	be 01 00 00 00	 mov	 esi, 1
  00168	eb 2f		 jmp	 SHORT $LN13@GetCodeInf
$LN6@GetCodeInf:

; 931  : 				else
; 932  : 					strCode.Format("%1c%02d%1c%1X%03d", cPCode, 5, m_cYear[m_nIndex], nMonth, nExercise); // 0024696:    

  0016a	50		 push	 eax
  0016b	8b 84 b7 00 04
	00 00		 mov	 eax, DWORD PTR [edi+esi*4+1024]
  00172	50		 push	 eax
  00173	0f be 84 3e 94
	04 00 00	 movsx	 eax, BYTE PTR [esi+edi+1172]
  0017b	50		 push	 eax
  0017c	6a 05		 push	 5
$LN17@GetCodeInf:

; 933  : 
; 934  : 				bRet = TRUE;
; 935  : 
; 936  : //			}
; 937  : //			break;
; 938  : //	}
; 939  : 
; 940  : 	return bRet;

  0017e	53		 push	 ebx
  0017f	68 00 00 00 00	 push	 OFFSET ??_C@_0BC@EHJNOJGF@?$CF1c?$CF02d?$CF1c?$CF1X?$CF03d@
  00184	ff 75 14	 push	 DWORD PTR _strCode$[ebp]
  00187	ff 15 00 00 00
	00		 call	 DWORD PTR __imp_?Format@?$CStringT@DV?$StrTraitMFC_DLL@DV?$ChTraitsCRT@D@ATL@@@@@ATL@@QAAXPBDZZ
  0018d	83 c4 1c	 add	 esp, 28			; 0000001cH
  00190	be 01 00 00 00	 mov	 esi, 1
  00195	eb 02		 jmp	 SHORT $LN13@GetCodeInf
$LN3@GetCodeInf:
  00197	33 f6		 xor	 esi, esi
$LN13@GetCodeInf:
  00199	8d 4d f0	 lea	 ecx, DWORD PTR _strMonth$[ebp]
  0019c	ff 15 00 00 00
	00		 call	 DWORD PTR __imp_??1?$CStringT@DV?$StrTraitMFC_DLL@DV?$ChTraitsCRT@D@ATL@@@@@ATL@@QAE@XZ
  001a2	8b c6		 mov	 eax, esi

; 941  : 
; 942  : }

  001a4	8b 4d f4	 mov	 ecx, DWORD PTR __$EHRec$[ebp]
  001a7	64 89 0d 00 00
	00 00		 mov	 DWORD PTR fs:0, ecx
  001ae	59		 pop	 ecx
  001af	5f		 pop	 edi
  001b0	5e		 pop	 esi
  001b1	5b		 pop	 ebx
  001b2	8b e5		 mov	 esp, ebp
  001b4	5d		 pop	 ebp
  001b5	c2 10 00	 ret	 16			; 00000010H
_TEXT	ENDS
;	COMDAT text$x
text$x	SEGMENT
__unwindfunclet$?GetCodeInfo@CTabCodeSearchFO@@QAEHHAAH0AAV?$CStringT@DV?$StrTraitMFC_DLL@DV?$ChTraitsCRT@D@ATL@@@@@ATL@@@Z$0:
  00000	8d 4d f0	 lea	 ecx, DWORD PTR _strMonth$[ebp]
  00003	ff 25 00 00 00
	00		 jmp	 DWORD PTR __imp_??1?$CStringT@DV?$StrTraitMFC_DLL@DV?$ChTraitsCRT@D@ATL@@@@@ATL@@QAE@XZ
__unwindfunclet$?GetCodeInfo@CTabCodeSearchFO@@QAEHHAAH0AAV?$CStringT@DV?$StrTraitMFC_DLL@DV?$ChTraitsCRT@D@ATL@@@@@ATL@@@Z$1:
  00009	8d 4d 0c	 lea	 ecx, DWORD PTR _strWeek$2[ebp]
  0000c	ff 25 00 00 00
	00		 jmp	 DWORD PTR __imp_??1?$CStringT@DV?$StrTraitMFC_DLL@DV?$ChTraitsCRT@D@ATL@@@@@ATL@@QAE@XZ
  00012	cc		 int	 3
  00013	cc		 int	 3
  00014	cc		 int	 3
  00015	cc		 int	 3
  00016	cc		 int	 3
__ehhandler$?GetCodeInfo@CTabCodeSearchFO@@QAEHHAAH0AAV?$CStringT@DV?$StrTraitMFC_DLL@DV?$ChTraitsCRT@D@ATL@@@@@ATL@@@Z:
  00017	90		 npad	 1
  00018	90		 npad	 1
  00019	8b 54 24 08	 mov	 edx, DWORD PTR [esp+8]
  0001d	8d 42 0c	 lea	 eax, DWORD PTR [edx+12]
  00020	8b 4a ec	 mov	 ecx, DWORD PTR [edx-20]
  00023	33 c8		 xor	 ecx, eax
  00025	e8 00 00 00 00	 call	 @__security_check_cookie@4
  0002a	b8 00 00 00 00	 mov	 eax, OFFSET __ehfuncinfo$?GetCodeInfo@CTabCodeSearchFO@@QAEHHAAH0AAV?$CStringT@DV?$StrTraitMFC_DLL@DV?$ChTraitsCRT@D@ATL@@@@@ATL@@@Z
  0002f	e9 00 00 00 00	 jmp	 ___CxxFrameHandler3
text$x	ENDS
?GetCodeInfo@CTabCodeSearchFO@@QAEHHAAH0AAV?$CStringT@DV?$StrTraitMFC_DLL@DV?$ChTraitsCRT@D@ATL@@@@@ATL@@@Z ENDP ; CTabCodeSearchFO::GetCodeInfo
; Function compile flags: /Ogtp
; File D:\git\src\IBK\IBK_DRFN\ProjSrc\SrcDrfn\Chart\comparechart\TabCodeSearchFO.cpp
;	COMDAT ?GetRealExercise@CTabCodeSearchFO@@QAEJH@Z
_TEXT	SEGMENT
_nPrice$ = 8						; size = 4
?GetRealExercise@CTabCodeSearchFO@@QAEJH@Z PROC		; CTabCodeSearchFO::GetRealExercise, COMDAT
; _this$ = ecx

; 741  : { 

  00000	55		 push	 ebp
  00001	8b ec		 mov	 ebp, esp
  00003	56		 push	 esi
  00004	6b 75 08 64	 imul	 esi, DWORD PTR _nPrice$[ebp], 100

; 742  : 	long lPrice = nPrice * 100; 
; 743  : 	if (lPrice % 500) lPrice += 50;	

  00008	b8 d3 4d 62 10	 mov	 eax, 274877907		; 10624dd3H
  0000d	f7 ee		 imul	 esi
  0000f	c1 fa 05	 sar	 edx, 5
  00012	8b c2		 mov	 eax, edx
  00014	c1 e8 1f	 shr	 eax, 31			; 0000001fH
  00017	03 c2		 add	 eax, edx
  00019	69 c8 f4 01 00
	00		 imul	 ecx, eax, 500

; 744  : 	return lPrice;

  0001f	8d 46 32	 lea	 eax, DWORD PTR [esi+50]
  00022	3b f1		 cmp	 esi, ecx
  00024	0f 44 c6	 cmove	 eax, esi
  00027	5e		 pop	 esi

; 745  : }

  00028	5d		 pop	 ebp
  00029	c2 04 00	 ret	 4
?GetRealExercise@CTabCodeSearchFO@@QAEJH@Z ENDP		; CTabCodeSearchFO::GetRealExercise
_TEXT	ENDS
; Function compile flags: /Ogtp
; File D:\git\src\IBK\IBK_DRFN\ProjSrc\SrcDrfn\Chart\comparechart\TabCodeSearchFO.cpp
;	COMDAT ?UpdateHogaData@CTabCodeSearchFO@@QAEXHHNKH@Z
_TEXT	SEGMENT
_strText$ = -16						; size = 4
__$EHRec$ = -12						; size = 12
_nRow$ = 8						; size = 4
_nCol$ = 12						; size = 4
_dPrice$ = 16						; size = 8
_crFgClr$ = 24						; size = 4
_nPoint$ = 28						; size = 4
?UpdateHogaData@CTabCodeSearchFO@@QAEXHHNKH@Z PROC	; CTabCodeSearchFO::UpdateHogaData, COMDAT
; _this$ = ecx

; 725  : {

  00000	55		 push	 ebp
  00001	8b ec		 mov	 ebp, esp
  00003	6a ff		 push	 -1
  00005	68 00 00 00 00	 push	 __ehhandler$?UpdateHogaData@CTabCodeSearchFO@@QAEXHHNKH@Z
  0000a	64 a1 00 00 00
	00		 mov	 eax, DWORD PTR fs:0
  00010	50		 push	 eax
  00011	51		 push	 ecx
  00012	53		 push	 ebx
  00013	56		 push	 esi
  00014	57		 push	 edi
  00015	a1 00 00 00 00	 mov	 eax, DWORD PTR ___security_cookie
  0001a	33 c5		 xor	 eax, ebp
  0001c	50		 push	 eax
  0001d	8d 45 f4	 lea	 eax, DWORD PTR __$EHRec$[ebp]
  00020	64 a3 00 00 00
	00		 mov	 DWORD PTR fs:0, eax
  00026	8b d9		 mov	 ebx, ecx

; 726  : 
; 727  : 	CString strText;

  00028	8d 4d f0	 lea	 ecx, DWORD PTR _strText$[ebp]
  0002b	ff 15 00 00 00
	00		 call	 DWORD PTR __imp_??0?$CStringT@DV?$StrTraitMFC_DLL@DV?$ChTraitsCRT@D@ATL@@@@@ATL@@QAE@XZ

; 728  : 	strText.Format("%.*f", nPoint, dPrice);

  00031	f2 0f 10 45 10	 movsd	 xmm0, QWORD PTR _dPrice$[ebp]
  00036	8d 45 f0	 lea	 eax, DWORD PTR _strText$[ebp]
  00039	83 ec 08	 sub	 esp, 8
  0003c	c7 45 fc 00 00
	00 00		 mov	 DWORD PTR __$EHRec$[ebp+8], 0
  00043	f2 0f 11 04 24	 movsd	 QWORD PTR [esp], xmm0
  00048	ff 75 1c	 push	 DWORD PTR _nPoint$[ebp]
  0004b	68 00 00 00 00	 push	 OFFSET ??_C@_04HGGMHPIM@?$CF?4?$CKf@
  00050	50		 push	 eax
  00051	ff 15 00 00 00
	00		 call	 DWORD PTR __imp_?Format@?$CStringT@DV?$StrTraitMFC_DLL@DV?$ChTraitsCRT@D@ATL@@@@@ATL@@QAAXPBDZZ

; 729  : 
; 730  : 	//  
; 731  : 	m_pGridCtrl->SetItemText(nRow, nCol, strText);

  00057	8b 7d 0c	 mov	 edi, DWORD PTR _nCol$[ebp]
  0005a	83 c4 14	 add	 esp, 20			; 00000014H
  0005d	8b 75 08	 mov	 esi, DWORD PTR _nRow$[ebp]
  00060	8b 8b e0 03 00
	00		 mov	 ecx, DWORD PTR [ebx+992]
  00066	ff 75 f0	 push	 DWORD PTR _strText$[ebp]
  00069	57		 push	 edi
  0006a	56		 push	 esi
  0006b	e8 00 00 00 00	 call	 ?SetItemText@CExGridCtrl@@QAEHHHPBD@Z ; CExGridCtrl::SetItemText

; 732  : 
; 733  : 	//      
; 734  : 	m_pGridCtrl->SetItemFgColour(nRow, nCol, crFgClr);

  00070	ff 75 18	 push	 DWORD PTR _crFgClr$[ebp]
  00073	8b 8b e0 03 00
	00		 mov	 ecx, DWORD PTR [ebx+992]
  00079	57		 push	 edi
  0007a	56		 push	 esi
  0007b	e8 00 00 00 00	 call	 ?SetItemFgColour@CExGridCtrl@@QAEHHHK@Z ; CExGridCtrl::SetItemFgColour

; 735  : 
; 736  : 	m_pGridCtrl->RedrawCell(nRow, nCol);

  00080	8b 8b e0 03 00
	00		 mov	 ecx, DWORD PTR [ebx+992]
  00086	6a 00		 push	 0
  00088	57		 push	 edi
  00089	56		 push	 esi
  0008a	e8 00 00 00 00	 call	 ?RedrawCell@CExGridCtrl@@QAEHHHPAVCDC@@@Z ; CExGridCtrl::RedrawCell

; 737  : }

  0008f	8d 4d f0	 lea	 ecx, DWORD PTR _strText$[ebp]
  00092	ff 15 00 00 00
	00		 call	 DWORD PTR __imp_??1?$CStringT@DV?$StrTraitMFC_DLL@DV?$ChTraitsCRT@D@ATL@@@@@ATL@@QAE@XZ
  00098	8b 4d f4	 mov	 ecx, DWORD PTR __$EHRec$[ebp]
  0009b	64 89 0d 00 00
	00 00		 mov	 DWORD PTR fs:0, ecx
  000a2	59		 pop	 ecx
  000a3	5f		 pop	 edi
  000a4	5e		 pop	 esi
  000a5	5b		 pop	 ebx
  000a6	8b e5		 mov	 esp, ebp
  000a8	5d		 pop	 ebp
  000a9	c2 18 00	 ret	 24			; 00000018H
_TEXT	ENDS
;	COMDAT text$x
text$x	SEGMENT
__unwindfunclet$?UpdateHogaData@CTabCodeSearchFO@@QAEXHHNKH@Z$0:
  00000	8d 4d f0	 lea	 ecx, DWORD PTR _strText$[ebp]
  00003	ff 25 00 00 00
	00		 jmp	 DWORD PTR __imp_??1?$CStringT@DV?$StrTraitMFC_DLL@DV?$ChTraitsCRT@D@ATL@@@@@ATL@@QAE@XZ
  00009	cc		 int	 3
  0000a	cc		 int	 3
  0000b	cc		 int	 3
  0000c	cc		 int	 3
  0000d	cc		 int	 3
__ehhandler$?UpdateHogaData@CTabCodeSearchFO@@QAEXHHNKH@Z:
  0000e	90		 npad	 1
  0000f	90		 npad	 1
  00010	8b 54 24 08	 mov	 edx, DWORD PTR [esp+8]
  00014	8d 42 0c	 lea	 eax, DWORD PTR [edx+12]
  00017	8b 4a ec	 mov	 ecx, DWORD PTR [edx-20]
  0001a	33 c8		 xor	 ecx, eax
  0001c	e8 00 00 00 00	 call	 @__security_check_cookie@4
  00021	b8 00 00 00 00	 mov	 eax, OFFSET __ehfuncinfo$?UpdateHogaData@CTabCodeSearchFO@@QAEXHHNKH@Z
  00026	e9 00 00 00 00	 jmp	 ___CxxFrameHandler3
text$x	ENDS
?UpdateHogaData@CTabCodeSearchFO@@QAEXHHNKH@Z ENDP	; CTabCodeSearchFO::UpdateHogaData
; Function compile flags: /Ogtp
; File D:\git\src\IBK\IBK_DRFN\ProjSrc\SrcDrfn\Chart\comparechart\TabCodeSearchFO.cpp
;	COMDAT ?GetGridExercise@CTabCodeSearchFO@@QAEHH@Z
_TEXT	SEGMENT
_row$ = 8						; size = 4
?GetGridExercise@CTabCodeSearchFO@@QAEHH@Z PROC		; CTabCodeSearchFO::GetGridExercise, COMDAT
; _this$ = ecx

; 717  : {

  00000	55		 push	 ebp
  00001	8b ec		 mov	 ebp, esp

; 718  : 	long lPrice = m_lMaxLimit - (row - TITLE_ROW)* 250; 

  00003	69 45 08 fa 00
	00 00		 imul	 eax, DWORD PTR _row$[ebp], 250
  0000a	8b 89 d0 04 00
	00		 mov	 ecx, DWORD PTR [ecx+1232]
  00010	2b c8		 sub	 ecx, eax

; 719  : 
; 720  : 	return (int)(lPrice / 100);

  00012	b8 1f 85 eb 51	 mov	 eax, 1374389535		; 51eb851fH
  00017	81 c1 fa 00 00
	00		 add	 ecx, 250		; 000000faH
  0001d	f7 e9		 imul	 ecx
  0001f	c1 fa 05	 sar	 edx, 5
  00022	8b c2		 mov	 eax, edx
  00024	c1 e8 1f	 shr	 eax, 31			; 0000001fH
  00027	03 c2		 add	 eax, edx

; 721  : }

  00029	5d		 pop	 ebp
  0002a	c2 04 00	 ret	 4
?GetGridExercise@CTabCodeSearchFO@@QAEHH@Z ENDP		; CTabCodeSearchFO::GetGridExercise
_TEXT	ENDS
; Function compile flags: /Ogtp
; File D:\git\src\IBK\IBK_DRFN\ProjSrc\SrcDrfn\Chart\comparechart\TabCodeSearchFO.cpp
;	COMDAT ?GetGridRow@CTabCodeSearchFO@@QAEHH@Z
_TEXT	SEGMENT
_nExercise$ = 8						; size = 4
?GetGridRow@CTabCodeSearchFO@@QAEHH@Z PROC		; CTabCodeSearchFO::GetGridRow, COMDAT
; _this$ = ecx

; 708  : {

  00000	55		 push	 ebp
  00001	8b ec		 mov	 ebp, esp
  00003	56		 push	 esi
  00004	6b 75 08 64	 imul	 esi, DWORD PTR _nExercise$[ebp], 100

; 743  : 	if (lPrice % 500) lPrice += 50;	

  00008	b8 d3 4d 62 10	 mov	 eax, 274877907		; 10624dd3H

; 708  : {

  0000d	57		 push	 edi
  0000e	8b f9		 mov	 edi, ecx

; 743  : 	if (lPrice % 500) lPrice += 50;	

  00010	f7 ee		 imul	 esi

; 709  : 	// int() -> long() (:92 ==> 9250 : 92.50)
; 710  : 	long lPrice = GetRealExercise(nExercise);
; 711  : 
; 712  :     return TITLE_ROW + ((m_lMaxLimit - lPrice) / 250); 

  00012	b8 d3 4d 62 10	 mov	 eax, 274877907		; 10624dd3H

; 743  : 	if (lPrice % 500) lPrice += 50;	

  00017	c1 fa 05	 sar	 edx, 5
  0001a	8b ca		 mov	 ecx, edx
  0001c	c1 e9 1f	 shr	 ecx, 31			; 0000001fH
  0001f	03 ca		 add	 ecx, edx

; 709  : 	// int() -> long() (:92 ==> 9250 : 92.50)
; 710  : 	long lPrice = GetRealExercise(nExercise);
; 711  : 
; 712  :     return TITLE_ROW + ((m_lMaxLimit - lPrice) / 250); 

  00021	8d 56 32	 lea	 edx, DWORD PTR [esi+50]

; 743  : 	if (lPrice % 500) lPrice += 50;	

  00024	69 c9 f4 01 00
	00		 imul	 ecx, ecx, 500

; 709  : 	// int() -> long() (:92 ==> 9250 : 92.50)
; 710  : 	long lPrice = GetRealExercise(nExercise);
; 711  : 
; 712  :     return TITLE_ROW + ((m_lMaxLimit - lPrice) / 250); 

  0002a	3b f1		 cmp	 esi, ecx
  0002c	8b 8f d0 04 00
	00		 mov	 ecx, DWORD PTR [edi+1232]
  00032	5f		 pop	 edi
  00033	0f 44 d6	 cmove	 edx, esi
  00036	2b ca		 sub	 ecx, edx
  00038	f7 e9		 imul	 ecx
  0003a	5e		 pop	 esi
  0003b	c1 fa 04	 sar	 edx, 4
  0003e	8b c2		 mov	 eax, edx
  00040	c1 e8 1f	 shr	 eax, 31			; 0000001fH
  00043	40		 inc	 eax
  00044	03 c2		 add	 eax, edx

; 713  : }

  00046	5d		 pop	 ebp
  00047	c2 04 00	 ret	 4
?GetGridRow@CTabCodeSearchFO@@QAEHH@Z ENDP		; CTabCodeSearchFO::GetGridRow
_TEXT	ENDS
; Function compile flags: /Ogtp
; File D:\git\src\IBK\IBK_DRFN\ProjSrc\SrcDrfn\Chart\comparechart\TabCodeSearchFO.cpp
; File C:\Program Files (x86)\Microsoft Visual Studio\2019\Community\VC\Tools\MSVC\14.29.30133\atlmfc\include\afxtempl.h
; File C:\Program Files (x86)\Microsoft Visual Studio\2019\Community\VC\Tools\MSVC\14.29.30133\atlmfc\include\afxwin2.inl
; File C:\Program Files (x86)\Microsoft Visual Studio\2019\Community\VC\Tools\MSVC\14.29.30133\atlmfc\include\afxtempl.h
; File C:\Program Files (x86)\Microsoft Visual Studio\2019\Community\VC\Tools\MSVC\14.29.30133\atlmfc\include\afxwin2.inl
; File C:\Program Files (x86)\Microsoft Visual Studio\2019\Community\VC\Tools\MSVC\14.29.30133\atlmfc\include\afxtempl.h
; File D:\git\src\IBK\IBK_DRFN\ProjSrc\SrcDrfn\Chart\comparechart\TabCodeSearchFO.cpp
; File C:\Program Files (x86)\Microsoft Visual Studio\2019\Community\VC\Tools\MSVC\14.29.30133\atlmfc\include\afxtempl.h
; File C:\Program Files (x86)\Microsoft Visual Studio\2019\Community\VC\Tools\MSVC\14.29.30133\atlmfc\include\afx.inl
; File C:\Program Files (x86)\Microsoft Visual Studio\2019\Community\VC\Tools\MSVC\14.29.30133\atlmfc\include\afxtempl.h
; File D:\git\src\IBK\IBK_DRFN\ProjSrc\SrcDrfn\Chart\comparechart\TabCodeSearchFO.cpp
; File C:\Program Files (x86)\Microsoft Visual Studio\2019\Community\VC\Tools\MSVC\14.29.30133\atlmfc\include\afxtempl.h
; File D:\git\src\IBK\IBK_DRFN\ProjSrc\SrcDrfn\Chart\comparechart\TabCodeSearchFO.cpp
; File C:\Program Files (x86)\Microsoft Visual Studio\2019\Community\VC\Tools\MSVC\14.29.30133\atlmfc\include\afx.inl
; File D:\git\src\IBK\IBK_DRFN\ProjSrc\SrcDrfn\Chart\comparechart\TabCodeSearchFO.cpp
; File C:\Program Files (x86)\Microsoft Visual Studio\2019\Community\VC\Tools\MSVC\14.29.30133\atlmfc\include\afx.inl
; File D:\git\src\IBK\IBK_DRFN\ProjSrc\SrcDrfn\Chart\comparechart\TabCodeSearchFO.cpp
; File C:\Program Files (x86)\Microsoft Visual Studio\2019\Community\VC\Tools\MSVC\14.29.30133\atlmfc\include\afx.inl
; File D:\git\src\IBK\IBK_DRFN\ProjSrc\SrcDrfn\Chart\comparechart\TabCodeSearchFO.cpp
; File C:\Program Files (x86)\Microsoft Visual Studio\2019\Community\VC\Tools\MSVC\14.29.30133\atlmfc\include\afx.inl
; File D:\git\src\IBK\IBK_DRFN\ProjSrc\SrcDrfn\Chart\comparechart\TabCodeSearchFO.cpp
; File C:\Program Files (x86)\Microsoft Visual Studio\2019\Community\VC\Tools\MSVC\14.29.30133\atlmfc\include\afx.inl
; File D:\git\src\IBK\IBK_DRFN\ProjSrc\SrcDrfn\Chart\comparechart\TabCodeSearchFO.cpp
; File C:\Program Files (x86)\Microsoft Visual Studio\2019\Community\VC\Tools\MSVC\14.29.30133\atlmfc\include\afx.inl
; File D:\git\src\IBK\IBK_DRFN\ProjSrc\SrcDrfn\Chart\comparechart\TabCodeSearchFO.cpp
; File C:\Program Files (x86)\Microsoft Visual Studio\2019\Community\VC\Tools\MSVC\14.29.30133\atlmfc\include\afx.inl
; File D:\git\src\IBK\IBK_DRFN\ProjSrc\SrcDrfn\Chart\comparechart\TabCodeSearchFO.cpp
; File C:\Program Files (x86)\Microsoft Visual Studio\2019\Community\VC\Tools\MSVC\14.29.30133\atlmfc\include\afx.inl
; File D:\git\src\IBK\IBK_DRFN\ProjSrc\SrcDrfn\Chart\comparechart\TabCodeSearchFO.cpp
; File C:\Program Files (x86)\Microsoft Visual Studio\2019\Community\VC\Tools\MSVC\14.29.30133\atlmfc\include\afx.inl
; File D:\git\src\IBK\IBK_DRFN\ProjSrc\SrcDrfn\Chart\comparechart\TabCodeSearchFO.cpp
; File C:\Program Files (x86)\Microsoft Visual Studio\2019\Community\VC\Tools\MSVC\14.29.30133\atlmfc\include\afx.inl
; File D:\git\src\IBK\IBK_DRFN\ProjSrc\SrcDrfn\Chart\comparechart\TabCodeSearchFO.cpp
; File C:\Program Files (x86)\Microsoft Visual Studio\2019\Community\VC\Tools\MSVC\14.29.30133\atlmfc\include\afx.inl
; File D:\git\src\IBK\IBK_DRFN\ProjSrc\SrcDrfn\Chart\comparechart\TabCodeSearchFO.cpp
; File C:\Program Files (x86)\Microsoft Visual Studio\2019\Community\VC\Tools\MSVC\14.29.30133\atlmfc\include\afxwin2.inl
; File D:\git\src\IBK\IBK_DRFN\ProjSrc\SrcDrfn\Chart\comparechart\TabCodeSearchFO.cpp
; File C:\Program Files (x86)\Microsoft Visual Studio\2019\Community\VC\Tools\MSVC\14.29.30133\atlmfc\include\afxwin2.inl
; File D:\git\src\IBK\IBK_DRFN\ProjSrc\SrcDrfn\Chart\comparechart\TabCodeSearchFO.cpp
; File C:\Program Files (x86)\Microsoft Visual Studio\2019\Community\VC\Tools\MSVC\14.29.30133\atlmfc\include\afxwin2.inl
; File D:\git\src\IBK\IBK_DRFN\ProjSrc\SrcDrfn\Chart\comparechart\TabCodeSearchFO.cpp
; File C:\Program Files (x86)\Microsoft Visual Studio\2019\Community\VC\Tools\MSVC\14.29.30133\atlmfc\include\afxcoll.inl
; File C:\Program Files (x86)\Microsoft Visual Studio\2019\Community\VC\Tools\MSVC\14.29.30133\atlmfc\include\cstringt.h
; File C:\Program Files (x86)\Microsoft Visual Studio\2019\Community\VC\Tools\MSVC\14.29.30133\atlmfc\include\afxcoll.inl
; File C:\Program Files (x86)\Microsoft Visual Studio\2019\Community\VC\Tools\MSVC\14.29.30133\atlmfc\include\cstringt.h
; File D:\git\src\IBK\IBK_DRFN\ProjSrc\SrcDrfn\Chart\comparechart\TabCodeSearchFO.cpp
; File C:\Program Files (x86)\Microsoft Visual Studio\2019\Community\VC\Tools\MSVC\14.29.30133\atlmfc\include\afxcoll.inl
; File D:\git\src\IBK\IBK_DRFN\ProjSrc\SrcDrfn\Chart\comparechart\TabCodeSearchFO.cpp
; File C:\Program Files (x86)\Microsoft Visual Studio\2019\Community\VC\Tools\MSVC\14.29.30133\atlmfc\include\afxcoll.inl
; File D:\git\src\IBK\IBK_DRFN\ProjSrc\SrcDrfn\Chart\comparechart\TabCodeSearchFO.cpp
; File C:\Program Files (x86)\Microsoft Visual Studio\2019\Community\VC\Tools\MSVC\14.29.30133\atlmfc\include\afxcoll.inl
; File D:\git\src\IBK\IBK_DRFN\ProjSrc\SrcDrfn\Chart\comparechart\TabCodeSearchFO.cpp
; File C:\Program Files (x86)\Microsoft Visual Studio\2019\Community\VC\Tools\MSVC\14.29.30133\atlmfc\include\afxcoll.inl
; File D:\git\src\IBK\IBK_DRFN\ProjSrc\SrcDrfn\Chart\comparechart\TabCodeSearchFO.cpp
; File C:\Program Files (x86)\Microsoft Visual Studio\2019\Community\VC\Tools\MSVC\14.29.30133\atlmfc\include\afxcoll.inl
; File D:\git\src\IBK\IBK_DRFN\ProjSrc\SrcDrfn\Chart\comparechart\TabCodeSearchFO.cpp
; File C:\Program Files (x86)\Microsoft Visual Studio\2019\Community\VC\Tools\MSVC\14.29.30133\atlmfc\include\afxcoll.inl
; File D:\git\src\IBK\IBK_DRFN\ProjSrc\SrcDrfn\Chart\comparechart\TabCodeSearchFO.cpp
; File C:\Program Files (x86)\Microsoft Visual Studio\2019\Community\VC\Tools\MSVC\14.29.30133\atlmfc\include\atlsimpstr.h
; File D:\git\src\IBK\IBK_DRFN\ProjSrc\SrcDrfn\Chart\comparechart\TabCodeSearchFO.cpp
; File C:\Program Files (x86)\Microsoft Visual Studio\2019\Community\VC\Tools\MSVC\14.29.30133\atlmfc\include\cstringt.h
; File D:\git\src\IBK\IBK_DRFN\ProjSrc\SrcDrfn\Chart\comparechart\TabCodeSearchFO.cpp
; File C:\Program Files (x86)\Microsoft Visual Studio\2019\Community\VC\Tools\MSVC\14.29.30133\atlmfc\include\cstringt.h
; File D:\git\src\IBK\IBK_DRFN\ProjSrc\SrcDrfn\Chart\comparechart\TabCodeSearchFO.cpp
; File C:\Program Files (x86)\Microsoft Visual Studio\2019\Community\VC\Tools\MSVC\14.29.30133\atlmfc\include\afxtempl.h
; File D:\git\src\IBK\IBK_DRFN\ProjSrc\SrcDrfn\Chart\comparechart\TabCodeSearchFO.cpp
; File D:\git\src\IBK\IBK_DRFN\ProjSrc\SrcDrfn\Chart\comparechart\define\ChartMsgDef.h
; File D:\git\src\IBK\IBK_DRFN\ProjSrc\SrcDrfn\Chart\comparechart\TabCodeSearchFO.cpp
; File D:\git\src\IBK\IBK_DRFN\ProjSrc\SrcDrfn\Chart\comparechart\define\ChartMsgDef.h
; File D:\git\src\IBK\IBK_DRFN\ProjSrc\SrcDrfn\Chart\comparechart\TabCodeSearchFO.cpp
; File C:\Program Files (x86)\Microsoft Visual Studio\2019\Community\VC\Tools\MSVC\14.29.30133\atlmfc\include\afxwin2.inl
; File D:\git\src\IBK\IBK_DRFN\ProjSrc\SrcDrfn\Chart\comparechart\TabCodeSearchFO.cpp
; File C:\Program Files (x86)\Microsoft Visual Studio\2019\Community\VC\Tools\MSVC\14.29.30133\atlmfc\include\afxwin2.inl
; File D:\git\src\IBK\IBK_DRFN\ProjSrc\SrcDrfn\Chart\comparechart\TabCodeSearchFO.cpp
; File C:\Program Files (x86)\Microsoft Visual Studio\2019\Community\VC\Tools\MSVC\14.29.30133\atlmfc\include\afxwin2.inl
; File D:\git\src\IBK\IBK_DRFN\ProjSrc\SrcDrfn\Chart\comparechart\TabCodeSearchFO.cpp
; File C:\Program Files (x86)\Microsoft Visual Studio\2019\Community\VC\Tools\MSVC\14.29.30133\atlmfc\include\afxwin2.inl
; File D:\git\src\IBK\IBK_DRFN\ProjSrc\SrcDrfn\Chart\comparechart\TabCodeSearchFO.cpp
; File C:\Program Files (x86)\Microsoft Visual Studio\2019\Community\VC\Tools\MSVC\14.29.30133\atlmfc\include\afxcoll.inl
; File D:\git\src\IBK\IBK_DRFN\ProjSrc\SrcDrfn\Chart\comparechart\TabCodeSearchFO.cpp
; File C:\Program Files (x86)\Microsoft Visual Studio\2019\Community\VC\Tools\MSVC\14.29.30133\atlmfc\include\afxcoll.inl
; File D:\git\src\IBK\IBK_DRFN\ProjSrc\SrcDrfn\Chart\comparechart\TabCodeSearchFO.cpp
; File C:\Program Files (x86)\Microsoft Visual Studio\2019\Community\VC\Tools\MSVC\14.29.30133\atlmfc\include\afxcoll.inl
; File D:\git\src\IBK\IBK_DRFN\ProjSrc\SrcDrfn\Chart\comparechart\TabCodeSearchFO.cpp
; File C:\Program Files (x86)\Microsoft Visual Studio\2019\Community\VC\Tools\MSVC\14.29.30133\atlmfc\include\afxwin2.inl
; File D:\git\src\IBK\IBK_DRFN\ProjSrc\SrcDrfn\Chart\comparechart\TabCodeSearchFO.cpp
; File C:\Program Files (x86)\Microsoft Visual Studio\2019\Community\VC\Tools\MSVC\14.29.30133\atlmfc\include\afxcoll.inl
; File D:\git\src\IBK\IBK_DRFN\ProjSrc\SrcDrfn\Chart\comparechart\TabCodeSearchFO.cpp
;	COMDAT ?InitMasterData@CTabCodeSearchFO@@QAEHXZ
_TEXT	SEGMENT
_arrCode$ = -316					; size = 20
$T2 = -296						; size = 4
_arrName$ = -292					; size = 20
$T3 = -272						; size = 4
$T4 = -268						; size = 4
$T5 = -264						; size = 4
$T6 = -260						; size = 4
$T7 = -256						; size = 4
$T8 = -252						; size = 4
$T9 = -248						; size = 4
$T10 = -244						; size = 4
_nMondayMonth$1$ = -240					; size = 4
_pGateMng$ = -236					; size = 4
_nMondayMonthNow$1$ = -232				; size = 4
_pastrValueGubun$ = -228				; size = 4
_pastrFinalYM$ = -224					; size = 4
_pastrEventPrice$ = -220				; size = 4
_this$GSCopy$1$ = -216					; size = 4
_strName$ = -212					; size = 4
_MaxExercise$1$ = -208					; size = 4
_nIndex$1$ = -204					; size = 4
_nMonthNow$1$ = -200					; size = 4
tv2529 = -196						; size = 4
tv2521 = -196						; size = 4
_nPrevExercise$1$ = -192				; size = 4
tv2528 = -192						; size = 4
_pastrJongEngName$ = -188				; size = 4
tv2490 = -184						; size = 4
_nMonth$ = -180						; size = 4
tv2493 = -176						; size = 4
$T11 = -172						; size = 4
$T12 = -172						; size = 4
$T13 = -172						; size = 4
$T14 = -172						; size = 4
$T15 = -172						; size = 4
$T16 = -172						; size = 4
$T17 = -172						; size = 4
_strMonth$ = -168					; size = 4
tv2494 = -164						; size = 4
_cGubunPut$18 = -158					; size = 1
_cMCode$19 = -157					; size = 1
tv2491 = -156						; size = 4
_szClipFormat$20 = -156					; size = 4
_strCodeName$ = -152					; size = 4
_nIndexMonth$1$ = -148					; size = 4
_pastrJongCode$ = -144					; size = 4
_pastrJongName$ = -140					; size = 4
_cGubun$ = -133						; size = 1
_strCode$ = -132					; size = 4
_info$21 = -128						; size = 100
_aBufWnd$22 = -28					; size = 9
__$ArrayPad$ = -16					; size = 4
__$EHRec$ = -12						; size = 12
?InitMasterData@CTabCodeSearchFO@@QAEHXZ PROC		; CTabCodeSearchFO::InitMasterData, COMDAT
; _this$ = ecx

; 434  : {

  00000	55		 push	 ebp
  00001	8b ec		 mov	 ebp, esp
  00003	6a ff		 push	 -1
  00005	68 00 00 00 00	 push	 __ehhandler$?InitMasterData@CTabCodeSearchFO@@QAEHXZ
  0000a	64 a1 00 00 00
	00		 mov	 eax, DWORD PTR fs:0
  00010	50		 push	 eax
  00011	81 ec 30 01 00
	00		 sub	 esp, 304		; 00000130H
  00017	a1 00 00 00 00	 mov	 eax, DWORD PTR ___security_cookie
  0001c	33 c5		 xor	 eax, ebp
  0001e	89 45 f0	 mov	 DWORD PTR __$ArrayPad$[ebp], eax
  00021	56		 push	 esi
  00022	57		 push	 edi
  00023	50		 push	 eax
  00024	8d 45 f4	 lea	 eax, DWORD PTR __$EHRec$[ebp]
  00027	64 a3 00 00 00
	00		 mov	 DWORD PTR fs:0, eax
  0002d	8b f1		 mov	 esi, ecx
  0002f	89 b5 28 ff ff
	ff		 mov	 DWORD PTR _this$GSCopy$1$[ebp], esi
  00035	0f 57 c0	 xorps	 xmm0, xmm0

; 435  : 	int nID = 5;
; 436  : 	IGateManager* pGateMng;	AfxGetIGateManager(pGateMng);

  00038	c7 85 14 ff ff
	ff 00 00 00 00	 mov	 DWORD PTR _pGateMng$[ebp], 0
  00042	8d 8d 64 ff ff
	ff		 lea	 ecx, DWORD PTR _szClipFormat$20[ebp]
  00048	66 0f d6 45 e4	 movq	 QWORD PTR _aBufWnd$22[ebp], xmm0
  0004d	c6 45 ec 00	 mov	 BYTE PTR _aBufWnd$22[ebp+8], 0
  00051	ff 15 00 00 00
	00		 call	 DWORD PTR __imp_??0?$CStringT@DV?$StrTraitMFC_DLL@DV?$ChTraitsCRT@D@ATL@@@@@ATL@@QAE@XZ
  00057	68 00 00 00 00	 push	 OFFSET ??_C@_0M@CBBNGGHM@PcTrMng?4dll@
  0005c	c7 45 fc 00 00
	00 00		 mov	 DWORD PTR __$EHRec$[ebp+8], 0
  00063	ff 15 00 00 00
	00		 call	 DWORD PTR __imp__GetModuleHandleA@4
  00069	50		 push	 eax
  0006a	68 00 00 00 00	 push	 OFFSET ??_C@_0BD@CMCCCNBF@HANAROIGATEMANAGER@
  0006f	8d 85 64 ff ff
	ff		 lea	 eax, DWORD PTR _szClipFormat$20[ebp]
  00075	68 00 00 00 00	 push	 OFFSET ??_C@_06NDLAHCHE@?$CFs?$CF08X@
  0007a	50		 push	 eax
  0007b	ff 15 00 00 00
	00		 call	 DWORD PTR __imp_?Format@?$CStringT@DV?$StrTraitMFC_DLL@DV?$ChTraitsCRT@D@ATL@@@@@ATL@@QAAXPBDZZ
  00081	83 c4 10	 add	 esp, 16			; 00000010H
  00084	8d 45 e4	 lea	 eax, DWORD PTR _aBufWnd$22[ebp]
  00087	6a 09		 push	 9
  00089	50		 push	 eax
  0008a	ff b5 64 ff ff
	ff		 push	 DWORD PTR _szClipFormat$20[ebp]
  00090	ff 15 00 00 00
	00		 call	 DWORD PTR __imp__GetEnvironmentVariableA@12
  00096	8d 85 14 ff ff
	ff		 lea	 eax, DWORD PTR _pGateMng$[ebp]
  0009c	50		 push	 eax
  0009d	8d 45 e4	 lea	 eax, DWORD PTR _aBufWnd$22[ebp]
  000a0	68 00 00 00 00	 push	 OFFSET ??_C@_02EMFKHFLK@?$CFX@
  000a5	50		 push	 eax
  000a6	e8 00 00 00 00	 call	 _sscanf
  000ab	83 c4 0c	 add	 esp, 12			; 0000000cH
  000ae	c7 45 fc ff ff
	ff ff		 mov	 DWORD PTR __$EHRec$[ebp+8], -1
  000b5	8d 8d 64 ff ff
	ff		 lea	 ecx, DWORD PTR _szClipFormat$20[ebp]
  000bb	ff 15 00 00 00
	00		 call	 DWORD PTR __imp_??1?$CStringT@DV?$StrTraitMFC_DLL@DV?$ChTraitsCRT@D@ATL@@@@@ATL@@QAE@XZ

; 437  : 	m_pDataManager = (IMasterDataManagerLast*)pGateMng->GetInterface(nID);

  000c1	8b 85 14 ff ff
	ff		 mov	 eax, DWORD PTR _pGateMng$[ebp]
  000c7	6a 00		 push	 0
  000c9	6a 05		 push	 5
  000cb	50		 push	 eax
  000cc	8b 08		 mov	 ecx, DWORD PTR [eax]
  000ce	ff 11		 call	 DWORD PTR [ecx]
  000d0	89 86 dc 04 00
	00		 mov	 DWORD PTR [esi+1244], eax

; 438  : 
; 439  : 	if (m_pDataManager == NULL)		return FALSE;

  000d6	85 c0		 test	 eax, eax
  000d8	0f 84 aa 0d 00
	00		 je	 $LN1@InitMaster
$LN32@InitMaster:
; File C:\Program Files (x86)\Microsoft Visual Studio\2019\Community\VC\Tools\MSVC\14.29.30133\atlmfc\include\afxtempl.h

; 872  : 	m_pBlocks->FreeDataChain();

  000de	8b 8e f8 03 00
	00		 mov	 ecx, DWORD PTR [esi+1016]
  000e4	c7 86 f0 03 00
	00 00 00 00 00	 mov	 DWORD PTR [esi+1008], 0
  000ee	c7 86 f4 03 00
	00 00 00 00 00	 mov	 DWORD PTR [esi+1012], 0
  000f8	c7 86 ec 03 00
	00 00 00 00 00	 mov	 DWORD PTR [esi+1004], 0
  00102	c7 86 e8 03 00
	00 00 00 00 00	 mov	 DWORD PTR [esi+1000], 0
  0010c	e8 00 00 00 00	 call	 ?FreeDataChain@CPlex@@QAEXXZ ; CPlex::FreeDataChain
; File C:\Program Files (x86)\Microsoft Visual Studio\2019\Community\VC\Tools\MSVC\14.29.30133\atlmfc\include\afxwin2.inl

; 731  : 	{ ASSERT(::IsWindow(m_hWnd)); ::SendMessage(m_hWnd, LB_RESETCONTENT, 0, 0); }

  00111	8b 3d 00 00 00
	00		 mov	 edi, DWORD PTR __imp__SendMessageA@16
  00117	6a 00		 push	 0
  00119	6a 00		 push	 0
  0011b	68 84 01 00 00	 push	 388			; 00000184H
; File C:\Program Files (x86)\Microsoft Visual Studio\2019\Community\VC\Tools\MSVC\14.29.30133\atlmfc\include\afxtempl.h

; 873  : 	m_pBlocks = NULL;

  00120	c7 86 f8 03 00
	00 00 00 00 00	 mov	 DWORD PTR [esi+1016], 0
; File C:\Program Files (x86)\Microsoft Visual Studio\2019\Community\VC\Tools\MSVC\14.29.30133\atlmfc\include\afxwin2.inl

; 731  : 	{ ASSERT(::IsWindow(m_hWnd)); ::SendMessage(m_hWnd, LB_RESETCONTENT, 0, 0); }

  0012a	ff b6 00 02 00
	00		 push	 DWORD PTR [esi+512]
  00130	ff d7		 call	 edi

; 801  : 	{ ASSERT(::IsWindow(m_hWnd)); ::SendMessage(m_hWnd, CB_RESETCONTENT, 0, 0); }

  00132	6a 00		 push	 0
  00134	6a 00		 push	 0
  00136	68 4b 01 00 00	 push	 331			; 0000014bH
  0013b	ff b6 78 01 00
	00		 push	 DWORD PTR [esi+376]
  00141	ff d7		 call	 edi
; File C:\Program Files (x86)\Microsoft Visual Studio\2019\Community\VC\Tools\MSVC\14.29.30133\atlmfc\include\afxtempl.h

; 870  : 	m_nCount = 0;

  00143	0f 28 05 00 00
	00 00		 movaps	 xmm0, XMMWORD PTR __xmm@ffffffffffffffffffffffffffffffff
; File D:\git\src\IBK\IBK_DRFN\ProjSrc\SrcDrfn\Chart\comparechart\TabCodeSearchFO.cpp

; 448  : 	for (int i = 1; i < 12; i++)

  0014a	8d 86 a4 04 00
	00		 lea	 eax, DWORD PTR [esi+1188]
; File C:\Program Files (x86)\Microsoft Visual Studio\2019\Community\VC\Tools\MSVC\14.29.30133\atlmfc\include\afxtempl.h

; 870  : 	m_nCount = 0;

  00150	0f 11 86 34 04
	00 00		 movups	 XMMWORD PTR [esi+1076], xmm0
; File C:\Program Files (x86)\Microsoft Visual Studio\2019\Community\VC\Tools\MSVC\14.29.30133\atlmfc\include\afx.inl

; 116  : 	{ return ::operator new(nSize); }

  00157	6a 14		 push	 20			; 00000014H
; File C:\Program Files (x86)\Microsoft Visual Studio\2019\Community\VC\Tools\MSVC\14.29.30133\atlmfc\include\afxtempl.h

; 870  : 	m_nCount = 0;

  00159	0f 11 86 44 04
	00 00		 movups	 XMMWORD PTR [esi+1092], xmm0
; File D:\git\src\IBK\IBK_DRFN\ProjSrc\SrcDrfn\Chart\comparechart\TabCodeSearchFO.cpp

; 448  : 	for (int i = 1; i < 12; i++)

  00160	89 85 3c ff ff
	ff		 mov	 DWORD PTR tv2521[ebp], eax
; File C:\Program Files (x86)\Microsoft Visual Studio\2019\Community\VC\Tools\MSVC\14.29.30133\atlmfc\include\afxtempl.h

; 870  : 	m_nCount = 0;

  00166	66 0f d6 86 54
	04 00 00	 movq	 QWORD PTR [esi+1108], xmm0
  0016e	0f 57 c0	 xorps	 xmm0, xmm0
  00171	c7 86 5c 04 00
	00 ff ff ff ff	 mov	 DWORD PTR [esi+1116], -1
; File D:\git\src\IBK\IBK_DRFN\ProjSrc\SrcDrfn\Chart\comparechart\TabCodeSearchFO.cpp

; 448  : 	for (int i = 1; i < 12; i++)

  0017b	0f 11 00	 movups	 XMMWORD PTR [eax], xmm0
  0017e	0f 11 40 10	 movups	 XMMWORD PTR [eax+16], xmm0
  00182	66 0f d6 40 20	 movq	 QWORD PTR [eax+32], xmm0
  00187	c7 40 28 00 00
	00 00		 mov	 DWORD PTR [eax+40], 0
; File C:\Program Files (x86)\Microsoft Visual Studio\2019\Community\VC\Tools\MSVC\14.29.30133\atlmfc\include\afx.inl

; 116  : 	{ return ::operator new(nSize); }

  0018e	e8 00 00 00 00	 call	 ??2@YAPAXI@Z		; operator new
  00193	83 c4 04	 add	 esp, 4
; File D:\git\src\IBK\IBK_DRFN\ProjSrc\SrcDrfn\Chart\comparechart\TabCodeSearchFO.cpp

; 460  : 	pastrJongCode = new CStringArray;

  00196	89 85 54 ff ff
	ff		 mov	 DWORD PTR $T17[ebp], eax
  0019c	c7 45 fc 01 00
	00 00		 mov	 DWORD PTR __$EHRec$[ebp+8], 1
  001a3	85 c0		 test	 eax, eax
  001a5	74 09		 je	 SHORT $LN76@InitMaster
  001a7	8b c8		 mov	 ecx, eax
  001a9	e8 00 00 00 00	 call	 ??0CStringArray@@QAE@XZ	; CStringArray::CStringArray
  001ae	eb 02		 jmp	 SHORT $LN77@InitMaster
$LN76@InitMaster:
  001b0	33 c0		 xor	 eax, eax
$LN77@InitMaster:
; File C:\Program Files (x86)\Microsoft Visual Studio\2019\Community\VC\Tools\MSVC\14.29.30133\atlmfc\include\afx.inl

; 116  : 	{ return ::operator new(nSize); }

  001b2	6a 14		 push	 20			; 00000014H
; File D:\git\src\IBK\IBK_DRFN\ProjSrc\SrcDrfn\Chart\comparechart\TabCodeSearchFO.cpp

; 460  : 	pastrJongCode = new CStringArray;

  001b4	c7 45 fc ff ff
	ff ff		 mov	 DWORD PTR __$EHRec$[ebp+8], -1
  001bb	89 85 70 ff ff
	ff		 mov	 DWORD PTR _pastrJongCode$[ebp], eax
; File C:\Program Files (x86)\Microsoft Visual Studio\2019\Community\VC\Tools\MSVC\14.29.30133\atlmfc\include\afx.inl

; 116  : 	{ return ::operator new(nSize); }

  001c1	e8 00 00 00 00	 call	 ??2@YAPAXI@Z		; operator new
  001c6	83 c4 04	 add	 esp, 4
; File D:\git\src\IBK\IBK_DRFN\ProjSrc\SrcDrfn\Chart\comparechart\TabCodeSearchFO.cpp

; 461  : 	pastrJongName = new CStringArray;

  001c9	89 85 54 ff ff
	ff		 mov	 DWORD PTR $T16[ebp], eax
  001cf	c7 45 fc 02 00
	00 00		 mov	 DWORD PTR __$EHRec$[ebp+8], 2
  001d6	85 c0		 test	 eax, eax
  001d8	74 09		 je	 SHORT $LN78@InitMaster
  001da	8b c8		 mov	 ecx, eax
  001dc	e8 00 00 00 00	 call	 ??0CStringArray@@QAE@XZ	; CStringArray::CStringArray
  001e1	eb 02		 jmp	 SHORT $LN79@InitMaster
$LN78@InitMaster:
  001e3	33 c0		 xor	 eax, eax
$LN79@InitMaster:
; File C:\Program Files (x86)\Microsoft Visual Studio\2019\Community\VC\Tools\MSVC\14.29.30133\atlmfc\include\afx.inl

; 116  : 	{ return ::operator new(nSize); }

  001e5	6a 14		 push	 20			; 00000014H
; File D:\git\src\IBK\IBK_DRFN\ProjSrc\SrcDrfn\Chart\comparechart\TabCodeSearchFO.cpp

; 461  : 	pastrJongName = new CStringArray;

  001e7	c7 45 fc ff ff
	ff ff		 mov	 DWORD PTR __$EHRec$[ebp+8], -1
  001ee	89 85 74 ff ff
	ff		 mov	 DWORD PTR _pastrJongName$[ebp], eax
; File C:\Program Files (x86)\Microsoft Visual Studio\2019\Community\VC\Tools\MSVC\14.29.30133\atlmfc\include\afx.inl

; 116  : 	{ return ::operator new(nSize); }

  001f4	e8 00 00 00 00	 call	 ??2@YAPAXI@Z		; operator new
  001f9	83 c4 04	 add	 esp, 4
; File D:\git\src\IBK\IBK_DRFN\ProjSrc\SrcDrfn\Chart\comparechart\TabCodeSearchFO.cpp

; 462  : 	pastrJongEngName = new CStringArray;

  001fc	89 85 54 ff ff
	ff		 mov	 DWORD PTR $T15[ebp], eax
  00202	c7 45 fc 03 00
	00 00		 mov	 DWORD PTR __$EHRec$[ebp+8], 3
  00209	85 c0		 test	 eax, eax
  0020b	74 09		 je	 SHORT $LN80@InitMaster
  0020d	8b c8		 mov	 ecx, eax
  0020f	e8 00 00 00 00	 call	 ??0CStringArray@@QAE@XZ	; CStringArray::CStringArray
  00214	eb 02		 jmp	 SHORT $LN81@InitMaster
$LN80@InitMaster:
  00216	33 c0		 xor	 eax, eax
$LN81@InitMaster:
; File C:\Program Files (x86)\Microsoft Visual Studio\2019\Community\VC\Tools\MSVC\14.29.30133\atlmfc\include\afx.inl

; 116  : 	{ return ::operator new(nSize); }

  00218	6a 14		 push	 20			; 00000014H
; File D:\git\src\IBK\IBK_DRFN\ProjSrc\SrcDrfn\Chart\comparechart\TabCodeSearchFO.cpp

; 462  : 	pastrJongEngName = new CStringArray;

  0021a	c7 45 fc ff ff
	ff ff		 mov	 DWORD PTR __$EHRec$[ebp+8], -1
  00221	89 85 44 ff ff
	ff		 mov	 DWORD PTR _pastrJongEngName$[ebp], eax
; File C:\Program Files (x86)\Microsoft Visual Studio\2019\Community\VC\Tools\MSVC\14.29.30133\atlmfc\include\afx.inl

; 116  : 	{ return ::operator new(nSize); }

  00227	e8 00 00 00 00	 call	 ??2@YAPAXI@Z		; operator new
  0022c	83 c4 04	 add	 esp, 4
; File D:\git\src\IBK\IBK_DRFN\ProjSrc\SrcDrfn\Chart\comparechart\TabCodeSearchFO.cpp

; 463  : 	pastrEventPrice = new CStringArray;

  0022f	89 85 54 ff ff
	ff		 mov	 DWORD PTR $T14[ebp], eax
  00235	c7 45 fc 04 00
	00 00		 mov	 DWORD PTR __$EHRec$[ebp+8], 4
  0023c	85 c0		 test	 eax, eax
  0023e	74 09		 je	 SHORT $LN82@InitMaster
  00240	8b c8		 mov	 ecx, eax
  00242	e8 00 00 00 00	 call	 ??0CStringArray@@QAE@XZ	; CStringArray::CStringArray
  00247	eb 02		 jmp	 SHORT $LN83@InitMaster
$LN82@InitMaster:
  00249	33 c0		 xor	 eax, eax
$LN83@InitMaster:
; File C:\Program Files (x86)\Microsoft Visual Studio\2019\Community\VC\Tools\MSVC\14.29.30133\atlmfc\include\afx.inl

; 116  : 	{ return ::operator new(nSize); }

  0024b	6a 14		 push	 20			; 00000014H
; File D:\git\src\IBK\IBK_DRFN\ProjSrc\SrcDrfn\Chart\comparechart\TabCodeSearchFO.cpp

; 463  : 	pastrEventPrice = new CStringArray;

  0024d	c7 45 fc ff ff
	ff ff		 mov	 DWORD PTR __$EHRec$[ebp+8], -1
  00254	89 85 24 ff ff
	ff		 mov	 DWORD PTR _pastrEventPrice$[ebp], eax
; File C:\Program Files (x86)\Microsoft Visual Studio\2019\Community\VC\Tools\MSVC\14.29.30133\atlmfc\include\afx.inl

; 116  : 	{ return ::operator new(nSize); }

  0025a	e8 00 00 00 00	 call	 ??2@YAPAXI@Z		; operator new
  0025f	83 c4 04	 add	 esp, 4
; File D:\git\src\IBK\IBK_DRFN\ProjSrc\SrcDrfn\Chart\comparechart\TabCodeSearchFO.cpp

; 464  : 	pastrFinalYM = new CStringArray;

  00262	89 85 54 ff ff
	ff		 mov	 DWORD PTR $T13[ebp], eax
  00268	c7 45 fc 05 00
	00 00		 mov	 DWORD PTR __$EHRec$[ebp+8], 5
  0026f	85 c0		 test	 eax, eax
  00271	74 09		 je	 SHORT $LN84@InitMaster
  00273	8b c8		 mov	 ecx, eax
  00275	e8 00 00 00 00	 call	 ??0CStringArray@@QAE@XZ	; CStringArray::CStringArray
  0027a	eb 02		 jmp	 SHORT $LN85@InitMaster
$LN84@InitMaster:
  0027c	33 c0		 xor	 eax, eax
$LN85@InitMaster:
; File C:\Program Files (x86)\Microsoft Visual Studio\2019\Community\VC\Tools\MSVC\14.29.30133\atlmfc\include\afx.inl

; 116  : 	{ return ::operator new(nSize); }

  0027e	6a 14		 push	 20			; 00000014H
; File D:\git\src\IBK\IBK_DRFN\ProjSrc\SrcDrfn\Chart\comparechart\TabCodeSearchFO.cpp

; 464  : 	pastrFinalYM = new CStringArray;

  00280	c7 45 fc ff ff
	ff ff		 mov	 DWORD PTR __$EHRec$[ebp+8], -1
  00287	89 85 20 ff ff
	ff		 mov	 DWORD PTR _pastrFinalYM$[ebp], eax
; File C:\Program Files (x86)\Microsoft Visual Studio\2019\Community\VC\Tools\MSVC\14.29.30133\atlmfc\include\afx.inl

; 116  : 	{ return ::operator new(nSize); }

  0028d	e8 00 00 00 00	 call	 ??2@YAPAXI@Z		; operator new
  00292	83 c4 04	 add	 esp, 4
; File D:\git\src\IBK\IBK_DRFN\ProjSrc\SrcDrfn\Chart\comparechart\TabCodeSearchFO.cpp

; 465  : 	pastrValueGubun = new CStringArray;

  00295	89 85 54 ff ff
	ff		 mov	 DWORD PTR $T12[ebp], eax
  0029b	c7 45 fc 06 00
	00 00		 mov	 DWORD PTR __$EHRec$[ebp+8], 6
  002a2	85 c0		 test	 eax, eax
  002a4	74 09		 je	 SHORT $LN86@InitMaster
  002a6	8b c8		 mov	 ecx, eax
  002a8	e8 00 00 00 00	 call	 ??0CStringArray@@QAE@XZ	; CStringArray::CStringArray
  002ad	eb 02		 jmp	 SHORT $LN87@InitMaster
$LN86@InitMaster:
  002af	33 c0		 xor	 eax, eax
$LN87@InitMaster:

; 466  : 	int nIndex = 0;
; 467  : 
; 468  : 	if (m_nComboSel == 0)

  002b1	6a 00		 push	 0
  002b3	89 85 1c ff ff
	ff		 mov	 DWORD PTR _pastrValueGubun$[ebp], eax
  002b9	8b 86 f0 04 00
	00		 mov	 eax, DWORD PTR [esi+1264]
  002bf	c7 45 fc ff ff
	ff ff		 mov	 DWORD PTR __$EHRec$[ebp+8], -1
  002c6	6a 01		 push	 1
  002c8	68 f1 00 00 00	 push	 241			; 000000f1H
  002cd	85 c0		 test	 eax, eax
  002cf	75 40		 jne	 SHORT $LN33@InitMaster
; File C:\Program Files (x86)\Microsoft Visual Studio\2019\Community\VC\Tools\MSVC\14.29.30133\atlmfc\include\afxwin2.inl

; 630  : 	{ ASSERT(::IsWindow(m_hWnd)); ::SendMessage(m_hWnd, BM_SETCHECK, nCheck, 0); }

  002d1	ff b6 80 02 00
	00		 push	 DWORD PTR [esi+640]
  002d7	ff d7		 call	 edi
; File D:\git\src\IBK\IBK_DRFN\ProjSrc\SrcDrfn\Chart\comparechart\TabCodeSearchFO.cpp

; 471  : 		m_pDataManager->GetOptionJongMst(pastrJongCode, pastrJongName, pastrJongEngName, pastrEventPrice, pastrFinalYM, pastrValueGubun);

  002d9	8b 86 dc 04 00
	00		 mov	 eax, DWORD PTR [esi+1244]
  002df	8d 95 1c ff ff
	ff		 lea	 edx, DWORD PTR _pastrValueGubun$[ebp]
  002e5	52		 push	 edx
  002e6	8d 95 20 ff ff
	ff		 lea	 edx, DWORD PTR _pastrFinalYM$[ebp]
  002ec	52		 push	 edx
  002ed	8b 08		 mov	 ecx, DWORD PTR [eax]
  002ef	8d 95 24 ff ff
	ff		 lea	 edx, DWORD PTR _pastrEventPrice$[ebp]
  002f5	52		 push	 edx
  002f6	8d 95 44 ff ff
	ff		 lea	 edx, DWORD PTR _pastrJongEngName$[ebp]
  002fc	52		 push	 edx
  002fd	8d 95 74 ff ff
	ff		 lea	 edx, DWORD PTR _pastrJongName$[ebp]
  00303	52		 push	 edx
  00304	8d 95 70 ff ff
	ff		 lea	 edx, DWORD PTR _pastrJongCode$[ebp]
  0030a	52		 push	 edx
  0030b	50		 push	 eax
  0030c	ff 51 44	 call	 DWORD PTR [ecx+68]

; 472  : 	}

  0030f	eb 4e		 jmp	 SHORT $LN36@InitMaster
$LN33@InitMaster:

; 473  : 	else if (m_nComboSel == 2)

  00311	83 f8 02	 cmp	 eax, 2
  00314	75 27		 jne	 SHORT $LN35@InitMaster
; File C:\Program Files (x86)\Microsoft Visual Studio\2019\Community\VC\Tools\MSVC\14.29.30133\atlmfc\include\afxwin2.inl

; 630  : 	{ ASSERT(::IsWindow(m_hWnd)); ::SendMessage(m_hWnd, BM_SETCHECK, nCheck, 0); }

  00316	ff b6 80 03 00
	00		 push	 DWORD PTR [esi+896]
  0031c	ff d7		 call	 edi
; File D:\git\src\IBK\IBK_DRFN\ProjSrc\SrcDrfn\Chart\comparechart\TabCodeSearchFO.cpp

; 476  : 		m_pDataManager->GetWeeklyOptionJongMst(pastrJongCode, pastrJongName);

  0031e	8b 86 dc 04 00
	00		 mov	 eax, DWORD PTR [esi+1244]
  00324	8d 95 74 ff ff
	ff		 lea	 edx, DWORD PTR _pastrJongName$[ebp]
  0032a	52		 push	 edx
  0032b	8d 95 70 ff ff
	ff		 lea	 edx, DWORD PTR _pastrJongCode$[ebp]
  00331	52		 push	 edx
  00332	8b 08		 mov	 ecx, DWORD PTR [eax]
  00334	50		 push	 eax
  00335	ff 91 90 00 00
	00		 call	 DWORD PTR [ecx+144]

; 477  : 	}

  0033b	eb 22		 jmp	 SHORT $LN36@InitMaster
$LN35@InitMaster:
; File C:\Program Files (x86)\Microsoft Visual Studio\2019\Community\VC\Tools\MSVC\14.29.30133\atlmfc\include\afxwin2.inl

; 630  : 	{ ASSERT(::IsWindow(m_hWnd)); ::SendMessage(m_hWnd, BM_SETCHECK, nCheck, 0); }

  0033d	ff b6 00 03 00
	00		 push	 DWORD PTR [esi+768]
  00343	ff d7		 call	 edi
; File D:\git\src\IBK\IBK_DRFN\ProjSrc\SrcDrfn\Chart\comparechart\TabCodeSearchFO.cpp

; 481  : 		m_pDataManager->GetMiniOptionJongMst(pastrJongCode, pastrJongName);

  00345	8b 86 dc 04 00
	00		 mov	 eax, DWORD PTR [esi+1244]
  0034b	8d 95 74 ff ff
	ff		 lea	 edx, DWORD PTR _pastrJongName$[ebp]
  00351	52		 push	 edx
  00352	8d 95 70 ff ff
	ff		 lea	 edx, DWORD PTR _pastrJongCode$[ebp]
  00358	52		 push	 edx
  00359	8b 08		 mov	 ecx, DWORD PTR [eax]
  0035b	50		 push	 eax
  0035c	ff 51 64	 call	 DWORD PTR [ecx+100]
$LN36@InitMaster:

; 482  : 	}
; 483  : 
; 484  : 	CStringArray arrCode;

  0035f	8d 8d c4 fe ff
	ff		 lea	 ecx, DWORD PTR _arrCode$[ebp]
  00365	e8 00 00 00 00	 call	 ??0CStringArray@@QAE@XZ	; CStringArray::CStringArray

; 485  : 	CStringArray arrName;

  0036a	8d 8d dc fe ff
	ff		 lea	 ecx, DWORD PTR _arrName$[ebp]
  00370	c7 45 fc 07 00
	00 00		 mov	 DWORD PTR __$EHRec$[ebp+8], 7
  00377	e8 00 00 00 00	 call	 ??0CStringArray@@QAE@XZ	; CStringArray::CStringArray

; 486  : 	
; 487  : 	arrName.Copy(*pastrJongName);

  0037c	ff b5 74 ff ff
	ff		 push	 DWORD PTR _pastrJongName$[ebp]
  00382	8d 8d dc fe ff
	ff		 lea	 ecx, DWORD PTR _arrName$[ebp]
  00388	c6 45 fc 08	 mov	 BYTE PTR __$EHRec$[ebp+8], 8
  0038c	e8 00 00 00 00	 call	 ?Copy@CStringArray@@QAEXABV1@@Z ; CStringArray::Copy

; 419  :     qsort(arrStr.GetData(), arrStr.GetSize(), sizeof(CString*), CompareFileName);

  00391	68 00 00 00 00	 push	 OFFSET ?CompareFileName@@YAHPBX0@Z ; CompareFileName
  00396	6a 04		 push	 4
  00398	ff b5 e4 fe ff
	ff		 push	 DWORD PTR _arrName$[ebp+8]
  0039e	ff b5 e0 fe ff
	ff		 push	 DWORD PTR _arrName$[ebp+4]
  003a4	ff 15 00 00 00
	00		 call	 DWORD PTR __imp__qsort

; 488  : 	
; 489  : 	SortFileName(arrName);
; 490  : 	
; 491  : 	for(int index = 0; index < arrName.GetSize(); index++)

  003aa	33 ff		 xor	 edi, edi

; 419  :     qsort(arrStr.GetData(), arrStr.GetSize(), sizeof(CString*), CompareFileName);

  003ac	83 c4 10	 add	 esp, 16			; 00000010H

; 488  : 	
; 489  : 	SortFileName(arrName);
; 490  : 	
; 491  : 	for(int index = 0; index < arrName.GetSize(); index++)

  003af	39 bd e4 fe ff
	ff		 cmp	 DWORD PTR _arrName$[ebp+8], edi
  003b5	0f 8e a8 00 00
	00		 jle	 $LN9@InitMaster
  003bb	8b 8d 74 ff ff
	ff		 mov	 ecx, DWORD PTR _pastrJongName$[ebp]
$LL10@InitMaster:

; 493  : 		for(int j = 0; j < pastrJongName->GetSize(); j++)

  003c1	8b 41 08	 mov	 eax, DWORD PTR [ecx+8]
  003c4	33 f6		 xor	 esi, esi
  003c6	85 c0		 test	 eax, eax
  003c8	0f 8e 82 00 00
	00		 jle	 $LN8@InitMaster
  003ce	66 90		 npad	 2
$LL13@InitMaster:
; File C:\Program Files (x86)\Microsoft Visual Studio\2019\Community\VC\Tools\MSVC\14.29.30133\atlmfc\include\afxcoll.inl

; 289  : 		if( nIndex < 0 || nIndex >= m_nSize )

  003d0	85 f6		 test	 esi, esi
  003d2	0f 88 cb 0a 00
	00		 js	 $LN242@InitMaster
  003d8	3b f0		 cmp	 esi, eax
  003da	0f 8d c3 0a 00
	00		 jge	 $LN242@InitMaster

; 291  : 		return m_pData[nIndex]; }

  003e0	8b 51 04	 mov	 edx, DWORD PTR [ecx+4]
  003e3	8d 04 b5 00 00
	00 00		 lea	 eax, DWORD PTR [esi*4]
  003ea	03 d0		 add	 edx, eax

; 289  : 		if( nIndex < 0 || nIndex >= m_nSize )

  003ec	85 ff		 test	 edi, edi
  003ee	0f 88 af 0a 00
	00		 js	 $LN242@InitMaster
  003f4	3b bd e4 fe ff
	ff		 cmp	 edi, DWORD PTR _arrName$[ebp+8]
  003fa	0f 8d a3 0a 00
	00		 jge	 $LN242@InitMaster

; 291  : 		return m_pData[nIndex]; }

  00400	8b 85 e0 fe ff
	ff		 mov	 eax, DWORD PTR _arrName$[ebp+4]
; File C:\Program Files (x86)\Microsoft Visual Studio\2019\Community\VC\Tools\MSVC\14.29.30133\atlmfc\include\cstringt.h

; 2479 : 		return(str1.Compare(str2) == 0);

  00406	ff 32		 push	 DWORD PTR [edx]
; File C:\Program Files (x86)\Microsoft Visual Studio\2019\Community\VC\Tools\MSVC\14.29.30133\atlmfc\include\afxcoll.inl

; 291  : 		return m_pData[nIndex]; }

  00408	8d 0c b8	 lea	 ecx, DWORD PTR [eax+edi*4]
; File C:\Program Files (x86)\Microsoft Visual Studio\2019\Community\VC\Tools\MSVC\14.29.30133\atlmfc\include\cstringt.h

; 2479 : 		return(str1.Compare(str2) == 0);

  0040b	ff 15 00 00 00
	00		 call	 DWORD PTR __imp_?Compare@?$CStringT@DV?$StrTraitMFC_DLL@DV?$ChTraitsCRT@D@ATL@@@@@ATL@@QBEHPBD@Z
  00411	85 c0		 test	 eax, eax
; File D:\git\src\IBK\IBK_DRFN\ProjSrc\SrcDrfn\Chart\comparechart\TabCodeSearchFO.cpp

; 495  : 			if(arrName.GetAt(index) == pastrJongName->GetAt(j))

  00413	75 2d		 jne	 SHORT $LN11@InitMaster
; File C:\Program Files (x86)\Microsoft Visual Studio\2019\Community\VC\Tools\MSVC\14.29.30133\atlmfc\include\afxcoll.inl

; 289  : 		if( nIndex < 0 || nIndex >= m_nSize )

  00415	8b 85 70 ff ff
	ff		 mov	 eax, DWORD PTR _pastrJongCode$[ebp]
  0041b	3b 70 08	 cmp	 esi, DWORD PTR [eax+8]
  0041e	0f 8d 7f 0a 00
	00		 jge	 $LN242@InitMaster

; 291  : 		return m_pData[nIndex]; }

  00424	8b 40 04	 mov	 eax, DWORD PTR [eax+4]
  00427	8d 0c b5 00 00
	00 00		 lea	 ecx, DWORD PTR [esi*4]
  0042e	03 c1		 add	 eax, ecx

; 321  : 		SetAtGrow(nIndex, newElement);

  00430	8d 8d c4 fe ff
	ff		 lea	 ecx, DWORD PTR _arrCode$[ebp]
  00436	50		 push	 eax
  00437	ff b5 cc fe ff
	ff		 push	 DWORD PTR _arrCode$[ebp+8]
  0043d	e8 00 00 00 00	 call	 ?SetAtGrow@CStringArray@@QAEXHABV?$CStringT@DV?$StrTraitMFC_DLL@DV?$ChTraitsCRT@D@ATL@@@@@ATL@@@Z ; CStringArray::SetAtGrow
$LN11@InitMaster:
; File D:\git\src\IBK\IBK_DRFN\ProjSrc\SrcDrfn\Chart\comparechart\TabCodeSearchFO.cpp

; 493  : 		for(int j = 0; j < pastrJongName->GetSize(); j++)

  00442	8b 8d 74 ff ff
	ff		 mov	 ecx, DWORD PTR _pastrJongName$[ebp]
  00448	46		 inc	 esi
  00449	8b 41 08	 mov	 eax, DWORD PTR [ecx+8]
  0044c	3b f0		 cmp	 esi, eax
  0044e	7c 80		 jl	 SHORT $LL13@InitMaster
$LN8@InitMaster:

; 488  : 	
; 489  : 	SortFileName(arrName);
; 490  : 	
; 491  : 	for(int index = 0; index < arrName.GetSize(); index++)

  00450	47		 inc	 edi
  00451	3b bd e4 fe ff
	ff		 cmp	 edi, DWORD PTR _arrName$[ebp+8]
  00457	0f 8c 64 ff ff
	ff		 jl	 $LL10@InitMaster
  0045d	8b b5 28 ff ff
	ff		 mov	 esi, DWORD PTR _this$GSCopy$1$[ebp]
$LN9@InitMaster:
; File C:\Program Files (x86)\Microsoft Visual Studio\2019\Community\VC\Tools\MSVC\14.29.30133\atlmfc\include\afxcoll.inl

; 286  : 	{ SetSize(0); }

  00463	8b 8d 70 ff ff
	ff		 mov	 ecx, DWORD PTR _pastrJongCode$[ebp]
  00469	6a ff		 push	 -1
  0046b	6a 00		 push	 0
  0046d	e8 00 00 00 00	 call	 ?SetSize@CStringArray@@QAEXHH@Z ; CStringArray::SetSize
  00472	8b 8d 74 ff ff
	ff		 mov	 ecx, DWORD PTR _pastrJongName$[ebp]
  00478	6a ff		 push	 -1
  0047a	6a 00		 push	 0
  0047c	e8 00 00 00 00	 call	 ?SetSize@CStringArray@@QAEXHH@Z ; CStringArray::SetSize
; File D:\git\src\IBK\IBK_DRFN\ProjSrc\SrcDrfn\Chart\comparechart\TabCodeSearchFO.cpp

; 503  : 	pastrJongCode->Copy(arrCode);

  00481	8b 8d 70 ff ff
	ff		 mov	 ecx, DWORD PTR _pastrJongCode$[ebp]
  00487	8d 85 c4 fe ff
	ff		 lea	 eax, DWORD PTR _arrCode$[ebp]
  0048d	50		 push	 eax
  0048e	e8 00 00 00 00	 call	 ?Copy@CStringArray@@QAEXABV1@@Z ; CStringArray::Copy

; 504  : 	pastrJongName->Copy(arrName);

  00493	8b 8d 74 ff ff
	ff		 mov	 ecx, DWORD PTR _pastrJongName$[ebp]
  00499	8d 85 dc fe ff
	ff		 lea	 eax, DWORD PTR _arrName$[ebp]
  0049f	50		 push	 eax
  004a0	e8 00 00 00 00	 call	 ?Copy@CStringArray@@QAEXABV1@@Z ; CStringArray::Copy

; 505  : 
; 506  : //	if (pListP == NULL)		return FALSE;
; 507  : 	CString  strCode, strMonth, strCodeName;

  004a5	8d 8d 7c ff ff
	ff		 lea	 ecx, DWORD PTR _strCode$[ebp]
  004ab	ff 15 00 00 00
	00		 call	 DWORD PTR __imp_??0?$CStringT@DV?$StrTraitMFC_DLL@DV?$ChTraitsCRT@D@ATL@@@@@ATL@@QAE@XZ
  004b1	8d 8d 58 ff ff
	ff		 lea	 ecx, DWORD PTR _strMonth$[ebp]
  004b7	ff 15 00 00 00
	00		 call	 DWORD PTR __imp_??0?$CStringT@DV?$StrTraitMFC_DLL@DV?$ChTraitsCRT@D@ATL@@@@@ATL@@QAE@XZ
  004bd	8d 8d 68 ff ff
	ff		 lea	 ecx, DWORD PTR _strCodeName$[ebp]
  004c3	ff 15 00 00 00
	00		 call	 DWORD PTR __imp_??0?$CStringT@DV?$StrTraitMFC_DLL@DV?$ChTraitsCRT@D@ATL@@@@@ATL@@QAE@XZ

; 508  : 	int		 nMonth, nExercise, nMonthNow, nMondayMonth, nMondayMonthNow;
; 509  : 	int		 nIndexMonth = EXERCISE;
; 510  : 	BOOL	 bFind;
; 511  : 
; 512  : 	//--> 0024696:    
; 513  : 	char cGubun;
; 514  : 	m_nJumpCnt = 0;
; 515  : 	int nPrevExercise = 0;
; 516  : 	//<--
; 517  : 	nMonthNow = 0;
; 518  : 	nMondayMonth = 0;
; 519  : 	nMondayMonthNow = 0;
; 520  : 	int MaxExercise = 0;
; 521  : //	codeinfo oldInfo; oldInfo.nInfo[EXERCISE]=0;
; 522  : 	for(nIndex=0; nIndex < pastrJongCode->GetSize(); nIndex++)

  004c9	8b 8d 70 ff ff
	ff		 mov	 ecx, DWORD PTR _pastrJongCode$[ebp]
  004cf	33 c0		 xor	 eax, eax
  004d1	c7 86 d8 04 00
	00 00 00 00 00	 mov	 DWORD PTR [esi+1240], 0
  004db	33 ff		 xor	 edi, edi
  004dd	89 85 10 ff ff
	ff		 mov	 DWORD PTR _nMondayMonth$1$[ebp], eax
  004e3	89 85 18 ff ff
	ff		 mov	 DWORD PTR _nMondayMonthNow$1$[ebp], eax
  004e9	89 85 30 ff ff
	ff		 mov	 DWORD PTR _MaxExercise$1$[ebp], eax
  004ef	8b 41 08	 mov	 eax, DWORD PTR [ecx+8]
  004f2	c6 45 fc 0b	 mov	 BYTE PTR __$EHRec$[ebp+8], 11 ; 0000000bH
  004f6	c7 85 6c ff ff
	ff 00 00 00 00	 mov	 DWORD PTR _nIndexMonth$1$[ebp], 0
  00500	c7 85 40 ff ff
	ff 00 00 00 00	 mov	 DWORD PTR _nPrevExercise$1$[ebp], 0
  0050a	c7 85 38 ff ff
	ff 00 00 00 00	 mov	 DWORD PTR _nMonthNow$1$[ebp], 0
  00514	89 bd 34 ff ff
	ff		 mov	 DWORD PTR _nIndex$1$[ebp], edi
  0051a	85 c0		 test	 eax, eax
  0051c	0f 8e f7 05 00
	00		 jle	 $LN15@InitMaster
; File C:\Program Files (x86)\Microsoft Visual Studio\2019\Community\VC\Tools\MSVC\14.29.30133\atlmfc\include\afxcoll.inl

; 286  : 	{ SetSize(0); }

  00522	ba 30 04 00 00	 mov	 edx, 1072		; 00000430H
  00527	89 95 5c ff ff
	ff		 mov	 DWORD PTR tv2494[ebp], edx
  0052d	8d 96 94 04 00
	00		 lea	 edx, DWORD PTR [esi+1172]
  00533	89 95 50 ff ff
	ff		 mov	 DWORD PTR tv2493[ebp], edx
  00539	8d 96 00 04 00
	00		 lea	 edx, DWORD PTR [esi+1024]
  0053f	89 95 64 ff ff
	ff		 mov	 DWORD PTR tv2491[ebp], edx
  00545	8d 96 a0 04 00
	00		 lea	 edx, DWORD PTR [esi+1184]
  0054b	89 95 48 ff ff
	ff		 mov	 DWORD PTR tv2490[ebp], edx
$LL16@InitMaster:

; 289  : 		if( nIndex < 0 || nIndex >= m_nSize )

  00551	85 ff		 test	 edi, edi
  00553	0f 88 4a 09 00
	00		 js	 $LN242@InitMaster
  00559	3b f8		 cmp	 edi, eax
  0055b	0f 8d 42 09 00
	00		 jge	 $LN242@InitMaster

; 291  : 		return m_pData[nIndex]; }

  00561	8b 41 04	 mov	 eax, DWORD PTR [ecx+4]
; File D:\git\src\IBK\IBK_DRFN\ProjSrc\SrcDrfn\Chart\comparechart\TabCodeSearchFO.cpp

; 525  : 		strCode = pastrJongCode->GetAt(nIndex);

  00564	8d 8d 7c ff ff
	ff		 lea	 ecx, DWORD PTR _strCode$[ebp]
; File C:\Program Files (x86)\Microsoft Visual Studio\2019\Community\VC\Tools\MSVC\14.29.30133\atlmfc\include\afxcoll.inl

; 291  : 		return m_pData[nIndex]; }

  0056a	c1 e7 02	 shl	 edi, 2
  0056d	03 c7		 add	 eax, edi
; File D:\git\src\IBK\IBK_DRFN\ProjSrc\SrcDrfn\Chart\comparechart\TabCodeSearchFO.cpp

; 525  : 		strCode = pastrJongCode->GetAt(nIndex);

  0056f	50		 push	 eax
  00570	ff 15 00 00 00
	00		 call	 DWORD PTR __imp_??4?$CStringT@DV?$StrTraitMFC_DLL@DV?$ChTraitsCRT@D@ATL@@@@@ATL@@QAEAAV01@ABV01@@Z
; File C:\Program Files (x86)\Microsoft Visual Studio\2019\Community\VC\Tools\MSVC\14.29.30133\atlmfc\include\afxcoll.inl

; 289  : 		if( nIndex < 0 || nIndex >= m_nSize )

  00576	8b 85 74 ff ff
	ff		 mov	 eax, DWORD PTR _pastrJongName$[ebp]
  0057c	8b 8d 34 ff ff
	ff		 mov	 ecx, DWORD PTR _nIndex$1$[ebp]
  00582	3b 48 08	 cmp	 ecx, DWORD PTR [eax+8]
  00585	0f 8d 18 09 00
	00		 jge	 $LN242@InitMaster

; 291  : 		return m_pData[nIndex]; }

  0058b	8b 40 04	 mov	 eax, DWORD PTR [eax+4]
; File D:\git\src\IBK\IBK_DRFN\ProjSrc\SrcDrfn\Chart\comparechart\TabCodeSearchFO.cpp

; 527  : 		strCodeName = pastrJongName->GetAt(nIndex);

  0058e	8d 8d 68 ff ff
	ff		 lea	 ecx, DWORD PTR _strCodeName$[ebp]
; File C:\Program Files (x86)\Microsoft Visual Studio\2019\Community\VC\Tools\MSVC\14.29.30133\atlmfc\include\afxcoll.inl

; 291  : 		return m_pData[nIndex]; }

  00594	03 c7		 add	 eax, edi
; File D:\git\src\IBK\IBK_DRFN\ProjSrc\SrcDrfn\Chart\comparechart\TabCodeSearchFO.cpp

; 527  : 		strCodeName = pastrJongName->GetAt(nIndex);

  00596	50		 push	 eax
  00597	ff 15 00 00 00
	00		 call	 DWORD PTR __imp_??4?$CStringT@DV?$StrTraitMFC_DLL@DV?$ChTraitsCRT@D@ATL@@@@@ATL@@QAEAAV01@ABV01@@Z
; File C:\Program Files (x86)\Microsoft Visual Studio\2019\Community\VC\Tools\MSVC\14.29.30133\atlmfc\include\atlsimpstr.h

; 519  : 		return( GetData()->nDataLength );

  0059d	8b 85 7c ff ff
	ff		 mov	 eax, DWORD PTR _strCode$[ebp]
; File D:\git\src\IBK\IBK_DRFN\ProjSrc\SrcDrfn\Chart\comparechart\TabCodeSearchFO.cpp

; 529  : 		if (strCode.GetLength() >= 8)// && nGubun != 3)

  005a3	83 78 f4 08	 cmp	 DWORD PTR [eax-12], 8
  005a7	0f 8c 4e 05 00
	00		 jl	 $LN14@InitMaster

; 530  : 		{
; 531  : //			nGubun = atoi(strCode.Left(1));
; 532  : 			strncpy(&cGubun, strCode.Left(1), 1); // 0024696:    

  005ad	6a 01		 push	 1
  005af	8d 85 0c ff ff
	ff		 lea	 eax, DWORD PTR $T10[ebp]
  005b5	50		 push	 eax
  005b6	8d 8d 7c ff ff
	ff		 lea	 ecx, DWORD PTR _strCode$[ebp]
  005bc	ff 15 00 00 00
	00		 call	 DWORD PTR __imp_?Left@?$CStringT@DV?$StrTraitMFC_DLL@DV?$ChTraitsCRT@D@ATL@@@@@ATL@@QBE?AV12@H@Z
  005c2	6a 01		 push	 1
  005c4	ff 30		 push	 DWORD PTR [eax]
  005c6	8d 85 7b ff ff
	ff		 lea	 eax, DWORD PTR _cGubun$[ebp]
  005cc	50		 push	 eax
  005cd	ff 15 00 00 00
	00		 call	 DWORD PTR __imp__strncpy
  005d3	83 c4 0c	 add	 esp, 12			; 0000000cH
  005d6	8d 8d 0c ff ff
	ff		 lea	 ecx, DWORD PTR $T10[ebp]
  005dc	ff 15 00 00 00
	00		 call	 DWORD PTR __imp_??1?$CStringT@DV?$StrTraitMFC_DLL@DV?$ChTraitsCRT@D@ATL@@@@@ATL@@QAE@XZ

; 533  : 
; 534  : 			if (IS_PUT_CODE_1(cGubun))	 continue;		//   read // 0024696:    

  005e2	8a 85 7b ff ff
	ff		 mov	 al, BYTE PTR _cGubun$[ebp]
  005e8	3c 33		 cmp	 al, 51			; 00000033H
  005ea	0f 84 0b 05 00
	00		 je	 $LN14@InitMaster
  005f0	3c 43		 cmp	 al, 67			; 00000043H
  005f2	0f 84 03 05 00
	00		 je	 $LN14@InitMaster

; 535  : 			//@Solomon if (nGubun == 3)	 break;		//   read
; 536  : 			//if (nGubun == 3)	 continue;		//   read
; 537  : 
; 538  : 			if(m_nComboSel == 2 )

  005f8	83 be f0 04 00
	00 02		 cmp	 DWORD PTR [esi+1264], 2
  005ff	8d 8d 7c ff ff
	ff		 lea	 ecx, DWORD PTR _strCode$[ebp]
  00605	0f 85 7d 00 00
	00		 jne	 $LN41@InitMaster

; 539  : 			{
; 540  : 				if(strCode.Find("AF") >= 0)

  0060b	6a 00		 push	 0
  0060d	68 00 00 00 00	 push	 OFFSET ??_C@_02NHMFCJJJ@AF@
  00612	ff 15 00 00 00
	00		 call	 DWORD PTR __imp_?Find@?$CStringT@DV?$StrTraitMFC_DLL@DV?$ChTraitsCRT@D@ATL@@@@@ATL@@QBEHPBDH@Z
  00618	8d 8d 68 ff ff
	ff		 lea	 ecx, DWORD PTR _strCodeName$[ebp]
  0061e	6a 02		 push	 2
  00620	85 c0		 test	 eax, eax
  00622	78 32		 js	 SHORT $LN43@InitMaster

; 541  : 					nMondayMonth = atoi(strCodeName.Mid(6, 2));

  00624	6a 06		 push	 6
  00626	8d 85 f4 fe ff
	ff		 lea	 eax, DWORD PTR $T4[ebp]
  0062c	50		 push	 eax
  0062d	ff 15 00 00 00
	00		 call	 DWORD PTR __imp_?Mid@?$CStringT@DV?$StrTraitMFC_DLL@DV?$ChTraitsCRT@D@ATL@@@@@ATL@@QBE?AV12@HH@Z
  00633	ff 30		 push	 DWORD PTR [eax]
  00635	a1 00 00 00 00	 mov	 eax, DWORD PTR __imp__atoi
  0063a	ff d0		 call	 eax
  0063c	83 c4 04	 add	 esp, 4
  0063f	89 85 10 ff ff
	ff		 mov	 DWORD PTR _nMondayMonth$1$[ebp], eax
  00645	8d 8d f4 fe ff
	ff		 lea	 ecx, DWORD PTR $T4[ebp]
  0064b	ff 15 00 00 00
	00		 call	 DWORD PTR __imp_??1?$CStringT@DV?$StrTraitMFC_DLL@DV?$ChTraitsCRT@D@ATL@@@@@ATL@@QAE@XZ
  00651	e9 c6 00 00 00	 jmp	 $LN46@InitMaster
$LN43@InitMaster:

; 542  : 				else
; 543  : 					nMonth = atoi(strCodeName.Mid(4, 2));

  00656	6a 04		 push	 4
  00658	8d 85 f0 fe ff
	ff		 lea	 eax, DWORD PTR $T3[ebp]
  0065e	50		 push	 eax
  0065f	ff 15 00 00 00
	00		 call	 DWORD PTR __imp_?Mid@?$CStringT@DV?$StrTraitMFC_DLL@DV?$ChTraitsCRT@D@ATL@@@@@ATL@@QBE?AV12@HH@Z
  00665	ff 30		 push	 DWORD PTR [eax]
  00667	a1 00 00 00 00	 mov	 eax, DWORD PTR __imp__atoi
  0066c	ff d0		 call	 eax
  0066e	83 c4 04	 add	 esp, 4
  00671	89 85 4c ff ff
	ff		 mov	 DWORD PTR _nMonth$[ebp], eax
  00677	8d 8d f0 fe ff
	ff		 lea	 ecx, DWORD PTR $T3[ebp]
  0067d	ff 15 00 00 00
	00		 call	 DWORD PTR __imp_??1?$CStringT@DV?$StrTraitMFC_DLL@DV?$ChTraitsCRT@D@ATL@@@@@ATL@@QAE@XZ

; 544  : 			}

  00683	e9 94 00 00 00	 jmp	 $LN46@InitMaster
$LN41@InitMaster:

; 545  : 			else
; 546  : 			{
; 547  : 				strMonth = strCode.Mid(4, 1);		strMonth.MakeUpper();

  00688	6a 01		 push	 1
  0068a	6a 04		 push	 4
  0068c	8d 85 f8 fe ff
	ff		 lea	 eax, DWORD PTR $T5[ebp]
  00692	50		 push	 eax
  00693	ff 15 00 00 00
	00		 call	 DWORD PTR __imp_?Mid@?$CStringT@DV?$StrTraitMFC_DLL@DV?$ChTraitsCRT@D@ATL@@@@@ATL@@QBE?AV12@HH@Z
  00699	50		 push	 eax
  0069a	8d 8d 58 ff ff
	ff		 lea	 ecx, DWORD PTR _strMonth$[ebp]
  006a0	c6 45 fc 0c	 mov	 BYTE PTR __$EHRec$[ebp+8], 12 ; 0000000cH
  006a4	ff 15 00 00 00
	00		 call	 DWORD PTR __imp_??4?$CStringT@DV?$StrTraitMFC_DLL@DV?$ChTraitsCRT@D@ATL@@@@@ATL@@QAEAAV01@ABV01@@Z
  006aa	8d 8d f8 fe ff
	ff		 lea	 ecx, DWORD PTR $T5[ebp]
  006b0	c6 45 fc 0b	 mov	 BYTE PTR __$EHRec$[ebp+8], 11 ; 0000000bH
  006b4	ff 15 00 00 00
	00		 call	 DWORD PTR __imp_??1?$CStringT@DV?$StrTraitMFC_DLL@DV?$ChTraitsCRT@D@ATL@@@@@ATL@@QAE@XZ
  006ba	8d 8d 58 ff ff
	ff		 lea	 ecx, DWORD PTR _strMonth$[ebp]
  006c0	ff 15 00 00 00
	00		 call	 DWORD PTR __imp_?MakeUpper@?$CStringT@DV?$StrTraitMFC_DLL@DV?$ChTraitsCRT@D@ATL@@@@@ATL@@QAEAAV12@XZ
; File C:\Program Files (x86)\Microsoft Visual Studio\2019\Community\VC\Tools\MSVC\14.29.30133\atlmfc\include\cstringt.h

; 2671 : 		return( str1.Compare( psz2 ) >= 0 );

  006c6	68 00 00 00 00	 push	 OFFSET ??_C@_01FHEEJDEE@A@
  006cb	8d 8d 58 ff ff
	ff		 lea	 ecx, DWORD PTR _strMonth$[ebp]
  006d1	ff 15 00 00 00
	00		 call	 DWORD PTR __imp_?Compare@?$CStringT@DV?$StrTraitMFC_DLL@DV?$ChTraitsCRT@D@ATL@@@@@ATL@@QBEHPBD@Z
  006d7	85 c0		 test	 eax, eax
; File D:\git\src\IBK\IBK_DRFN\ProjSrc\SrcDrfn\Chart\comparechart\TabCodeSearchFO.cpp

; 548  : 				if (strMonth >= "A" && strMonth <= "C")		nMonth = (strMonth[0] - 'A')+10;

  006d9	78 2b		 js	 SHORT $LN45@InitMaster
; File C:\Program Files (x86)\Microsoft Visual Studio\2019\Community\VC\Tools\MSVC\14.29.30133\atlmfc\include\cstringt.h

; 2650 : 		return( str1.Compare( psz2 ) <= 0 );

  006db	68 00 00 00 00	 push	 OFFSET ??_C@_01GFHCPBMG@C@
  006e0	8d 8d 58 ff ff
	ff		 lea	 ecx, DWORD PTR _strMonth$[ebp]
  006e6	ff 15 00 00 00
	00		 call	 DWORD PTR __imp_?Compare@?$CStringT@DV?$StrTraitMFC_DLL@DV?$ChTraitsCRT@D@ATL@@@@@ATL@@QBEHPBD@Z
  006ec	85 c0		 test	 eax, eax
; File D:\git\src\IBK\IBK_DRFN\ProjSrc\SrcDrfn\Chart\comparechart\TabCodeSearchFO.cpp

; 548  : 				if (strMonth >= "A" && strMonth <= "C")		nMonth = (strMonth[0] - 'A')+10;

  006ee	7f 16		 jg	 SHORT $LN45@InitMaster
  006f0	6a 00		 push	 0
  006f2	8d 8d 58 ff ff
	ff		 lea	 ecx, DWORD PTR _strMonth$[ebp]
  006f8	ff 15 00 00 00
	00		 call	 DWORD PTR __imp_??A?$CSimpleStringT@D$00@ATL@@QBEDH@Z
  006fe	0f be c0	 movsx	 eax, al
  00701	83 e8 37	 sub	 eax, 55			; 00000037H
  00704	eb 10		 jmp	 SHORT $LN329@InitMaster
$LN45@InitMaster:

; 549  : 				else										nMonth = atoi(strMonth);

  00706	ff b5 58 ff ff
	ff		 push	 DWORD PTR _strMonth$[ebp]
  0070c	a1 00 00 00 00	 mov	 eax, DWORD PTR __imp__atoi
  00711	ff d0		 call	 eax
  00713	83 c4 04	 add	 esp, 4
$LN329@InitMaster:

; 550  : 			}
; 551  : 			nExercise = atoi(strCode.Mid(5, 3));

  00716	89 85 4c ff ff
	ff		 mov	 DWORD PTR _nMonth$[ebp], eax
$LN46@InitMaster:
  0071c	6a 03		 push	 3
  0071e	6a 05		 push	 5
  00720	8d 85 08 ff ff
	ff		 lea	 eax, DWORD PTR $T9[ebp]
  00726	50		 push	 eax
  00727	8d 8d 7c ff ff
	ff		 lea	 ecx, DWORD PTR _strCode$[ebp]
  0072d	ff 15 00 00 00
	00		 call	 DWORD PTR __imp_?Mid@?$CStringT@DV?$StrTraitMFC_DLL@DV?$ChTraitsCRT@D@ATL@@@@@ATL@@QBE?AV12@HH@Z
  00733	ff 30		 push	 DWORD PTR [eax]
  00735	ff 15 00 00 00
	00		 call	 DWORD PTR __imp__atoi
  0073b	83 c4 04	 add	 esp, 4
  0073e	8d 8d 08 ff ff
	ff		 lea	 ecx, DWORD PTR $T9[ebp]
  00744	8b f8		 mov	 edi, eax
  00746	ff 15 00 00 00
