; Listing generated by Microsoft (R) Optimizing Compiler Version 19.29.30148.0 

	TITLE	D:\git\src\IBK\IBK_DRFN\#DRfn-CS\_Obj\CompareChart\TabCodeSearchFO.obj
	.686P
	.XMM
	include listing.inc
	.model	flat

INCLUDELIB MSVCRT
INCLUDELIB OLDNAMES

PUBLIC	??_C@_0BE@FJPKENOB@RMSG_GETSIGNAL_REAL@		; `string'
PUBLIC	??_C@_0P@KHFCBIOH@RMSG_CHARTMAIN@		; `string'
PUBLIC	??_C@_0BC@MMPGLPDH@RMS_ANALYSIS_FUNC@		; `string'
PUBLIC	??_C@_0BA@HKNFENJL@RMSG_GET_USERID@		; `string'
PUBLIC	??_C@_0P@LFDACNFE@RMSG_KSDLLINFO@		; `string'
PUBLIC	??_C@_0N@IIOKMIEH@RMSG_GETINFO@			; `string'
PUBLIC	??_C@_0BG@CNPAHNGG@RMSG_CHANGE_SKINCOLOR@	; `string'
PUBLIC	??_C@_0BD@FLDNDDHK@RMSG_GET_SKINCOLOR@		; `string'
PUBLIC	??_C@_0BG@LNLCJKPF@RMSG_CHANGE_CROSSLINE@	; `string'
PUBLIC	??_C@_0BB@GOOPDKI@RMSG_GETPCTRDATA@		; `string'
PUBLIC	??_C@_0BC@LHNMEPFM@RMSG_SELCHARTCODE@		; `string'
PUBLIC	??_C@_0BB@IBKHOHJL@RMSG_REPLAY_REAL@		; `string'
PUBLIC	??_C@_0BB@JFLGBADG@RMSG_REPLAY_FAIL@		; `string'
PUBLIC	??_C@_0BI@KDGAIIMD@RMSG_REPLAY_CHANGE_DATE@	; `string'
PUBLIC	??_C@_0BA@NKHHCPON@RMSG_REPLAY_END@		; `string'
PUBLIC	??_C@_0BE@JFCIMCIP@RMSG_REPLAY_INC_SEC@		; `string'
PUBLIC	??_C@_0BG@GIAJEIJF@RMSG_REPLAY_TOTAL_SEC@	; `string'
;	COMDAT ??_C@_0BG@GIAJEIJF@RMSG_REPLAY_TOTAL_SEC@
CONST	SEGMENT
??_C@_0BG@GIAJEIJF@RMSG_REPLAY_TOTAL_SEC@ DB 'RMSG_REPLAY_TOTAL_SEC', 00H ; `string'
CONST	ENDS
;	COMDAT ??_C@_0BE@JFCIMCIP@RMSG_REPLAY_INC_SEC@
CONST	SEGMENT
??_C@_0BE@JFCIMCIP@RMSG_REPLAY_INC_SEC@ DB 'RMSG_REPLAY_INC_SEC', 00H ; `string'
CONST	ENDS
;	COMDAT ??_C@_0BA@NKHHCPON@RMSG_REPLAY_END@
CONST	SEGMENT
??_C@_0BA@NKHHCPON@RMSG_REPLAY_END@ DB 'RMSG_REPLAY_END', 00H ; `string'
CONST	ENDS
;	COMDAT ??_C@_0BI@KDGAIIMD@RMSG_REPLAY_CHANGE_DATE@
CONST	SEGMENT
??_C@_0BI@KDGAIIMD@RMSG_REPLAY_CHANGE_DATE@ DB 'RMSG_REPLAY_CHANGE_DATE', 00H ; `string'
CONST	ENDS
;	COMDAT ??_C@_0BB@JFLGBADG@RMSG_REPLAY_FAIL@
CONST	SEGMENT
??_C@_0BB@JFLGBADG@RMSG_REPLAY_FAIL@ DB 'RMSG_REPLAY_FAIL', 00H ; `string'
CONST	ENDS
;	COMDAT ??_C@_0BB@IBKHOHJL@RMSG_REPLAY_REAL@
CONST	SEGMENT
??_C@_0BB@IBKHOHJL@RMSG_REPLAY_REAL@ DB 'RMSG_REPLAY_REAL', 00H ; `string'
CONST	ENDS
;	COMDAT ??_C@_0BC@LHNMEPFM@RMSG_SELCHARTCODE@
CONST	SEGMENT
??_C@_0BC@LHNMEPFM@RMSG_SELCHARTCODE@ DB 'RMSG_SELCHARTCODE', 00H ; `string'
CONST	ENDS
;	COMDAT ??_C@_0BB@GOOPDKI@RMSG_GETPCTRDATA@
CONST	SEGMENT
??_C@_0BB@GOOPDKI@RMSG_GETPCTRDATA@ DB 'RMSG_GETPCTRDATA', 00H ; `string'
CONST	ENDS
;	COMDAT ??_C@_0BG@LNLCJKPF@RMSG_CHANGE_CROSSLINE@
CONST	SEGMENT
??_C@_0BG@LNLCJKPF@RMSG_CHANGE_CROSSLINE@ DB 'RMSG_CHANGE_CROSSLINE', 00H ; `string'
CONST	ENDS
;	COMDAT ??_C@_0BD@FLDNDDHK@RMSG_GET_SKINCOLOR@
CONST	SEGMENT
??_C@_0BD@FLDNDDHK@RMSG_GET_SKINCOLOR@ DB 'RMSG_GET_SKINCOLOR', 00H ; `string'
CONST	ENDS
;	COMDAT ??_C@_0BG@CNPAHNGG@RMSG_CHANGE_SKINCOLOR@
CONST	SEGMENT
??_C@_0BG@CNPAHNGG@RMSG_CHANGE_SKINCOLOR@ DB 'RMSG_CHANGE_SKINCOLOR', 00H ; `string'
CONST	ENDS
;	COMDAT ??_C@_0N@IIOKMIEH@RMSG_GETINFO@
CONST	SEGMENT
??_C@_0N@IIOKMIEH@RMSG_GETINFO@ DB 'RMSG_GETINFO', 00H	; `string'
CONST	ENDS
;	COMDAT ??_C@_0P@LFDACNFE@RMSG_KSDLLINFO@
CONST	SEGMENT
??_C@_0P@LFDACNFE@RMSG_KSDLLINFO@ DB 'RMSG_KSDLLINFO', 00H ; `string'
CONST	ENDS
;	COMDAT ??_C@_0BA@HKNFENJL@RMSG_GET_USERID@
CONST	SEGMENT
??_C@_0BA@HKNFENJL@RMSG_GET_USERID@ DB 'RMSG_GET_USERID', 00H ; `string'
CONST	ENDS
;	COMDAT ??_C@_0BC@MMPGLPDH@RMS_ANALYSIS_FUNC@
CONST	SEGMENT
??_C@_0BC@MMPGLPDH@RMS_ANALYSIS_FUNC@ DB 'RMS_ANALYSIS_FUNC', 00H ; `string'
CONST	ENDS
;	COMDAT ??_C@_0P@KHFCBIOH@RMSG_CHARTMAIN@
CONST	SEGMENT
??_C@_0P@KHFCBIOH@RMSG_CHARTMAIN@ DB 'RMSG_CHARTMAIN', 00H ; `string'
CONST	ENDS
;	COMDAT ??_C@_0BE@FJPKENOB@RMSG_GETSIGNAL_REAL@
CONST	SEGMENT
??_C@_0BE@FJPKENOB@RMSG_GETSIGNAL_REAL@ DB 'RMSG_GETSIGNAL_REAL', 00H ; `string'
CONST	ENDS
PUBLIC	??_H@YGXPAXIIP6EPAX0@Z@Z			; `vector constructor iterator'
PUBLIC	?__empty_global_delete@@YAXPAX@Z		; __empty_global_delete
PUBLIC	?__empty_global_delete@@YAXPAXI@Z		; __empty_global_delete
PUBLIC	___local_stdio_scanf_options
PUBLIC	_sscanf
PUBLIC	??1CObject@@UAE@XZ				; CObject::~CObject
PUBLIC	??3CObject@@SGXPAX@Z				; CObject::operator delete
PUBLIC	?Serialize@CObject@@UAEXAAVCArchive@@@Z		; CObject::Serialize
PUBLIC	?AssertValid@CObject@@UBEXXZ			; CObject::AssertValid
PUBLIC	?Dump@CObject@@UBEXAAVCDumpContext@@@Z		; CObject::Dump
PUBLIC	?_AfxInitManaged@@YAHXZ				; _AfxInitManaged
PUBLIC	?DoDataExchange@CWnd@@MAEXPAVCDataExchange@@@Z	; CWnd::DoDataExchange
PUBLIC	?BeginModalState@CWnd@@UAEXXZ			; CWnd::BeginModalState
PUBLIC	?EndModalState@CWnd@@UAEXXZ			; CWnd::EndModalState
PUBLIC	??_GCButton@@UAEPAXI@Z				; CButton::`scalar deleting destructor'
PUBLIC	??_GCListBox@@UAEPAXI@Z				; CListBox::`scalar deleting destructor'
PUBLIC	?GetCurSel@CComboBox@@QBEHXZ			; CComboBox::GetCurSel
PUBLIC	?SetBkColor@CRscDlg@@UAEXK@Z			; CRscDlg::SetBkColor
PUBLIC	?ReceiveData@CTabDlg@@UAEXPAUHWND__@@PBD11PAXJ@Z ; CTabDlg::ReceiveData
PUBLIC	?SetRealPriceData@CTabDlg@@UAEXPAX@Z		; CTabDlg::SetRealPriceData
PUBLIC	?ReceiveDataFromOutSide@CTabDlg@@UAEXXZ		; CTabDlg::ReceiveDataFromOutSide
PUBLIC	?SetCodeFromOutSide@CTabDlg@@UAEXPBD@Z		; CTabDlg::SetCodeFromOutSide
PUBLIC	??1_GV_ITEM@@QAE@XZ				; _GV_ITEM::~_GV_ITEM
PUBLIC	??0_codeinfo@@QAE@XZ				; _codeinfo::_codeinfo
PUBLIC	??0CTabCodeSearchFO@@QAE@PAVCWnd@@@Z		; CTabCodeSearchFO::CTabCodeSearchFO
PUBLIC	??0?$CList@U_codeinfo@@AAU1@@@QAE@H@Z		; CList<_codeinfo,_codeinfo &>::CList<_codeinfo,_codeinfo &>
PUBLIC	?AddTail@?$CList@U_codeinfo@@AAU1@@@QAEPAU__POSITION@@AAU_codeinfo@@@Z ; CList<_codeinfo,_codeinfo &>::AddTail
PUBLIC	?RemoveAll@?$CList@U_codeinfo@@AAU1@@@QAEXXZ	; CList<_codeinfo,_codeinfo &>::RemoveAll
PUBLIC	?NewNode@?$CList@U_codeinfo@@AAU1@@@IAEPAUCNode@1@PAU21@0@Z ; CList<_codeinfo,_codeinfo &>::NewNode
PUBLIC	??1?$CList@U_codeinfo@@AAU1@@@UAE@XZ		; CList<_codeinfo,_codeinfo &>::~CList<_codeinfo,_codeinfo &>
PUBLIC	?Serialize@?$CList@U_codeinfo@@AAU1@@@UAEXAAVCArchive@@@Z ; CList<_codeinfo,_codeinfo &>::Serialize
PUBLIC	??_G?$CList@U_codeinfo@@AAU1@@@UAEPAXI@Z	; CList<_codeinfo,_codeinfo &>::`scalar deleting destructor'
PUBLIC	?DoDataExchange@CTabCodeSearchFO@@MAEXPAVCDataExchange@@@Z ; CTabCodeSearchFO::DoDataExchange
PUBLIC	?WindowProc@CTabCodeSearchFO@@MAEJIIJ@Z		; CTabCodeSearchFO::WindowProc
PUBLIC	?GetRectOfCtrl@CTabCodeSearchFO@@UAE?AVCRect@@HH@Z ; CTabCodeSearchFO::GetRectOfCtrl
PUBLIC	?RecalcLayout@CTabCodeSearchFO@@QAEXXZ		; CTabCodeSearchFO::RecalcLayout
PUBLIC	?InitGrid@CTabCodeSearchFO@@QAEXXZ		; CTabCodeSearchFO::InitGrid
PUBLIC	?InitGridRowCol@CTabCodeSearchFO@@QAEXXZ	; CTabCodeSearchFO::InitGridRowCol
PUBLIC	?ChangeGridRowCol@CTabCodeSearchFO@@QAEXXZ	; CTabCodeSearchFO::ChangeGridRowCol
PUBLIC	?InsertGridData@CTabCodeSearchFO@@QAEXXZ	; CTabCodeSearchFO::InsertGridData
PUBLIC	?InsertMasterData@CTabCodeSearchFO@@QAEXH@Z	; CTabCodeSearchFO::InsertMasterData
PUBLIC	?GetInsertGridDataText@CTabCodeSearchFO@@QAE?AV?$CStringT@DV?$StrTraitMFC_DLL@DV?$ChTraitsCRT@D@ATL@@@@@ATL@@HH@Z ; CTabCodeSearchFO::GetInsertGridDataText
PUBLIC	?InitMasterData@CTabCodeSearchFO@@QAEHXZ	; CTabCodeSearchFO::InitMasterData
PUBLIC	?GetGridRow@CTabCodeSearchFO@@QAEHH@Z		; CTabCodeSearchFO::GetGridRow
PUBLIC	?GetGridExercise@CTabCodeSearchFO@@QAEHH@Z	; CTabCodeSearchFO::GetGridExercise
PUBLIC	?UpdateHogaData@CTabCodeSearchFO@@QAEXHHNKH@Z	; CTabCodeSearchFO::UpdateHogaData
PUBLIC	?GetRealExercise@CTabCodeSearchFO@@QAEJH@Z	; CTabCodeSearchFO::GetRealExercise
PUBLIC	?GetCodeInfo@CTabCodeSearchFO@@QAEHHAAH0AAV?$CStringT@DV?$StrTraitMFC_DLL@DV?$ChTraitsCRT@D@ATL@@@@@ATL@@@Z ; CTabCodeSearchFO::GetCodeInfo
PUBLIC	?OnSize@CTabCodeSearchFO@@IAEXIHH@Z		; CTabCodeSearchFO::OnSize
PUBLIC	?OnInitDialog@CTabCodeSearchFO@@MAEHXZ		; CTabCodeSearchFO::OnInitDialog
PUBLIC	?OnDestroy@CTabCodeSearchFO@@IAEXXZ		; CTabCodeSearchFO::OnDestroy
PUBLIC	?OnEditchangeComboMonth@CTabCodeSearchFO@@IAEXXZ ; CTabCodeSearchFO::OnEditchangeComboMonth
PUBLIC	?OnSelchangeComboMonth@CTabCodeSearchFO@@IAEXXZ	; CTabCodeSearchFO::OnSelchangeComboMonth
PUBLIC	?OnSelchangeComboFO@CTabCodeSearchFO@@IAEXXZ	; CTabCodeSearchFO::OnSelchangeComboFO
PUBLIC	?OnCtlColor@CTabCodeSearchFO@@IAEPAUHBRUSH__@@PAVCDC@@PAVCWnd@@I@Z ; CTabCodeSearchFO::OnCtlColor
PUBLIC	?OnSelchangeListFuture@CTabCodeSearchFO@@IAEXXZ	; CTabCodeSearchFO::OnSelchangeListFuture
PUBLIC	?OnDblclkListFuture@CTabCodeSearchFO@@IAEXXZ	; CTabCodeSearchFO::OnDblclkListFuture
PUBLIC	?OnClickRadioKospi200@CTabCodeSearchFO@@IAEXXZ	; CTabCodeSearchFO::OnClickRadioKospi200
PUBLIC	?OnClickRadioMiniKospi@CTabCodeSearchFO@@IAEXXZ	; CTabCodeSearchFO::OnClickRadioMiniKospi
PUBLIC	?OnClickRadioWeeklyKospi@CTabCodeSearchFO@@IAEXXZ ; CTabCodeSearchFO::OnClickRadioWeeklyKospi
PUBLIC	?GetThisMessageMap@CTabCodeSearchFO@@KGPBUAFX_MSGMAP@@XZ ; CTabCodeSearchFO::GetThisMessageMap
PUBLIC	?GetMessageMap@CTabCodeSearchFO@@MBEPBUAFX_MSGMAP@@XZ ; CTabCodeSearchFO::GetMessageMap
PUBLIC	??_GCTabCodeSearchFO@@UAEPAXI@Z			; CTabCodeSearchFO::`scalar deleting destructor'
PUBLIC	?CompareFileName@@YAHPBX0@Z			; CompareFileName
PUBLIC	?SortFileName@@YAXAAVCStringArray@@@Z		; SortFileName
PUBLIC	??$SerializeElements@U_codeinfo@@@@YGXAAVCArchive@@PAU_codeinfo@@H@Z ; SerializeElements<_codeinfo>
PUBLIC	?_OptionsStorage@?1??__local_stdio_scanf_options@@9@4_KA ; `__local_stdio_scanf_options'::`2'::_OptionsStorage
PUBLIC	??_C@_01PLPBNMEI@M@				; `string'
PUBLIC	??_C@_00CNPNBAHC@@				; `string'
PUBLIC	??_7CButton@@6B@				; CButton::`vftable'
PUBLIC	??_7CListBox@@6B@				; CListBox::`vftable'
PUBLIC	??_C@_0M@CBBNGGHM@PcTrMng?4dll@			; `string'
PUBLIC	??_C@_0P@IDMAJEGN@HANAROPCTRMAIN@		; `string'
PUBLIC	??_C@_06NDLAHCHE@?$CFs?$CF08X@			; `string'
PUBLIC	??_C@_02EMFKHFLK@?$CFX@				; `string'
PUBLIC	??_R0?AVCObject@@@8				; CObject `RTTI Type Descriptor'
PUBLIC	??_R3CObject@@8					; CObject::`RTTI Class Hierarchy Descriptor'
PUBLIC	??_R2CObject@@8					; CObject::`RTTI Base Class Array'
PUBLIC	??_R1A@?0A@EA@CObject@@8			; CObject::`RTTI Base Class Descriptor at (0,-1,0,64)'
PUBLIC	??_R1A@?0A@EA@CWnd@@8				; CWnd::`RTTI Base Class Descriptor at (0,-1,0,64)'
PUBLIC	??_R0?AVCWnd@@@8				; CWnd `RTTI Type Descriptor'
PUBLIC	??_R3CWnd@@8					; CWnd::`RTTI Class Hierarchy Descriptor'
PUBLIC	??_R2CWnd@@8					; CWnd::`RTTI Base Class Array'
PUBLIC	??_R1A@?0A@EA@CCmdTarget@@8			; CCmdTarget::`RTTI Base Class Descriptor at (0,-1,0,64)'
PUBLIC	??_R0?AVCCmdTarget@@@8				; CCmdTarget `RTTI Type Descriptor'
PUBLIC	??_R3CCmdTarget@@8				; CCmdTarget::`RTTI Class Hierarchy Descriptor'
PUBLIC	??_R2CCmdTarget@@8				; CCmdTarget::`RTTI Base Class Array'
PUBLIC	??_R4CButton@@6B@				; CButton::`RTTI Complete Object Locator'
PUBLIC	??_R0?AVCButton@@@8				; CButton `RTTI Type Descriptor'
PUBLIC	??_R3CButton@@8					; CButton::`RTTI Class Hierarchy Descriptor'
PUBLIC	??_R2CButton@@8					; CButton::`RTTI Base Class Array'
PUBLIC	??_R1A@?0A@EA@CButton@@8			; CButton::`RTTI Base Class Descriptor at (0,-1,0,64)'
PUBLIC	??_R4CListBox@@6B@				; CListBox::`RTTI Complete Object Locator'
PUBLIC	??_R0?AVCListBox@@@8				; CListBox `RTTI Type Descriptor'
PUBLIC	??_R3CListBox@@8				; CListBox::`RTTI Class Hierarchy Descriptor'
PUBLIC	??_R2CListBox@@8				; CListBox::`RTTI Base Class Array'
PUBLIC	??_R1A@?0A@EA@CListBox@@8			; CListBox::`RTTI Base Class Descriptor at (0,-1,0,64)'
PUBLIC	??_R1A@?0A@EA@CDialog@@8			; CDialog::`RTTI Base Class Descriptor at (0,-1,0,64)'
PUBLIC	??_R0?AVCDialog@@@8				; CDialog `RTTI Type Descriptor'
PUBLIC	??_R3CDialog@@8					; CDialog::`RTTI Class Hierarchy Descriptor'
PUBLIC	??_R2CDialog@@8					; CDialog::`RTTI Base Class Array'
PUBLIC	??_7?$CList@U_codeinfo@@AAU1@@@6B@		; CList<_codeinfo,_codeinfo &>::`vftable'
PUBLIC	??_7CTabCodeSearchFO@@6B@			; CTabCodeSearchFO::`vftable'
PUBLIC	??_C@_08FPNDIEGG@KOSPI200@			; `string'
PUBLIC	??_C@_0L@IANMHGBM@M?5KOSPI200@			; `string'
PUBLIC	??_C@_0L@MMIFOKFD@W?5KOSPI200@			; `string'
PUBLIC	??_R0PAVCMemoryException@@@8			; CMemoryException * `RTTI Type Descriptor'
PUBLIC	??_C@_06CDJAKJDK@?G?$OA?$LL?g?$LA?$KB@		; `string'
PUBLIC	??_C@_02KCIOKDCD@?D?$NN@			; `string'
PUBLIC	??_C@_02ECKNGKBC@?G?$LC@			; `string'
PUBLIC	??_C@_04IPMECLBL@?$CFd?$LP?y@			; `string'
PUBLIC	??_C@_0P@JIBKHGJJ@master?2atm?4dat@		; `string'
PUBLIC	??_C@_05BMGBEOOC@?$CFs?2?$CFs@			; `string'
PUBLIC	??_C@_05BJKOFFGO@PRICE@				; `string'
PUBLIC	??_C@_03NDHBKIJP@ATM@				; `string'
PUBLIC	??_C@_01CLKCMJKC@?5@				; `string'
PUBLIC	??_C@_0BD@CMCCCNBF@HANAROIGATEMANAGER@		; `string'
PUBLIC	??_C@_02NHMFCJJJ@AF@				; `string'
PUBLIC	??_C@_01FHEEJDEE@A@				; `string'
PUBLIC	??_C@_01GFHCPBMG@C@				; `string'
PUBLIC	??_C@_06LDAHLMHO@?$CFd?$CF02d@			; `string'
PUBLIC	??_C@_09JIGINAPD@?$CF02d?4MW?$CFc@		; `string'
PUBLIC	??_C@_08KALJJMOG@?$CF02d?4W?$CFc@		; `string'
PUBLIC	??_C@_04HGGMHPIM@?$CF?4?$CKf@			; `string'
PUBLIC	??_C@_05LMFDOBNM@?$CFs?$HM?$CFs@		; `string'
PUBLIC	??_C@_0BC@EHJNOJGF@?$CF1c?$CF02d?$CF1c?$CF1X?$CF03d@ ; `string'
PUBLIC	??_C@_0O@EHJFFJCN@?$CF1cAF?$CF02s?$CF03d@	; `string'
PUBLIC	??_C@_0BA@MIOHKIAF@?$CF1c?$CF02d?$CF02s?$CF03d@	; `string'
PUBLIC	??_R4CTabCodeSearchFO@@6B@			; CTabCodeSearchFO::`RTTI Complete Object Locator'
PUBLIC	??_R0?AVCTabCodeSearchFO@@@8			; CTabCodeSearchFO `RTTI Type Descriptor'
PUBLIC	??_R3CTabCodeSearchFO@@8			; CTabCodeSearchFO::`RTTI Class Hierarchy Descriptor'
PUBLIC	??_R2CTabCodeSearchFO@@8			; CTabCodeSearchFO::`RTTI Base Class Array'
PUBLIC	??_R1A@?0A@EA@CTabCodeSearchFO@@8		; CTabCodeSearchFO::`RTTI Base Class Descriptor at (0,-1,0,64)'
PUBLIC	??_R1A@?0A@EA@CTabDlg@@8			; CTabDlg::`RTTI Base Class Descriptor at (0,-1,0,64)'
PUBLIC	??_R0?AVCTabDlg@@@8				; CTabDlg `RTTI Type Descriptor'
PUBLIC	??_R3CTabDlg@@8					; CTabDlg::`RTTI Class Hierarchy Descriptor'
PUBLIC	??_R2CTabDlg@@8					; CTabDlg::`RTTI Base Class Array'
PUBLIC	??_R1A@?0A@EA@CRscDlg@@8			; CRscDlg::`RTTI Base Class Descriptor at (0,-1,0,64)'
PUBLIC	??_R0?AVCRscDlg@@@8				; CRscDlg `RTTI Type Descriptor'
PUBLIC	??_R3CRscDlg@@8					; CRscDlg::`RTTI Class Hierarchy Descriptor'
PUBLIC	??_R2CRscDlg@@8					; CRscDlg::`RTTI Base Class Array'
PUBLIC	??_R4?$CList@U_codeinfo@@AAU1@@@6B@		; CList<_codeinfo,_codeinfo &>::`RTTI Complete Object Locator'
PUBLIC	??_R0?AV?$CList@U_codeinfo@@AAU1@@@@8		; CList<_codeinfo,_codeinfo &> `RTTI Type Descriptor'
PUBLIC	??_R3?$CList@U_codeinfo@@AAU1@@@8		; CList<_codeinfo,_codeinfo &>::`RTTI Class Hierarchy Descriptor'
PUBLIC	??_R2?$CList@U_codeinfo@@AAU1@@@8		; CList<_codeinfo,_codeinfo &>::`RTTI Base Class Array'
PUBLIC	??_R1A@?0A@EA@?$CList@U_codeinfo@@AAU1@@@8	; CList<_codeinfo,_codeinfo &>::`RTTI Base Class Descriptor at (0,-1,0,64)'
PUBLIC	__real@4059000000000000
PUBLIC	__xmm@ffffffffffffffffffffffffffffffff
EXTRN	??_L@YGXPAXIIP6EX0@Z1@Z:PROC			; `eh vector constructor iterator'
EXTRN	??_M@YGXPAXIIP6EX0@Z@Z:PROC			; `eh vector destructor iterator'
EXTRN	??2@YAPAXI@Z:PROC				; operator new
EXTRN	??3@YAXPAX@Z:PROC				; operator delete
EXTRN	?__global_delete@@YAXPAXI@Z:PROC		; __global_delete
EXTRN	___std_terminate:PROC
EXTRN	__imp__strncmp:PROC
EXTRN	__imp__strncpy:PROC
EXTRN	__imp__GetEnvironmentVariableA@12:PROC
EXTRN	__imp__GetModuleHandleA@4:PROC
EXTRN	__imp__GetPrivateProfileStringA@24:PROC
EXTRN	__imp__RegisterWindowMessageA@4:PROC
EXTRN	__imp__SendMessageA@16:PROC
EXTRN	__imp__EnableWindow@8:PROC
EXTRN	__imp__GetClientRect@8:PROC
EXTRN	__imp__GetWindowRect@8:PROC
EXTRN	__imp__GetParent@4:PROC
EXTRN	__imp___mbsnbicmp:PROC
EXTRN	__imp____stdio_common_vsscanf:PROC
EXTRN	__imp__qsort:PROC
EXTRN	__imp__atof:PROC
EXTRN	__imp__atoi:PROC
EXTRN	?AfxThrowInvalidArgException@@YGXXZ:PROC	; AfxThrowInvalidArgException
EXTRN	?AfxThrowArchiveException@@YGXHPBD@Z:PROC	; AfxThrowArchiveException
EXTRN	?GetRuntimeClass@CObject@@UBEPAUCRuntimeClass@@XZ:PROC ; CObject::GetRuntimeClass
EXTRN	?Delete@CException@@QAEXXZ:PROC			; CException::Delete
EXTRN	__imp_??A?$CSimpleStringT@D$00@ATL@@QBEDH@Z:PROC
EXTRN	__imp_?GetAt@?$CSimpleStringT@D$00@ATL@@QBEDH@Z:PROC
EXTRN	__imp_?GetBuffer@?$CSimpleStringT@D$00@ATL@@QAEPADH@Z:PROC
EXTRN	__imp_??0?$CStringT@DV?$StrTraitMFC_DLL@DV?$ChTraitsCRT@D@ATL@@@@@ATL@@QAE@XZ:PROC
EXTRN	__imp_??0?$CStringT@DV?$StrTraitMFC_DLL@DV?$ChTraitsCRT@D@ATL@@@@@ATL@@QAE@ABV01@@Z:PROC
EXTRN	__imp_??0?$CStringT@DV?$StrTraitMFC_DLL@DV?$ChTraitsCRT@D@ATL@@@@@ATL@@QAE@PBD@Z:PROC
EXTRN	__imp_??1?$CStringT@DV?$StrTraitMFC_DLL@DV?$ChTraitsCRT@D@ATL@@@@@ATL@@QAE@XZ:PROC
EXTRN	__imp_??4?$CStringT@DV?$StrTraitMFC_DLL@DV?$ChTraitsCRT@D@ATL@@@@@ATL@@QAEAAV01@ABV01@@Z:PROC
EXTRN	__imp_??4?$CStringT@DV?$StrTraitMFC_DLL@DV?$ChTraitsCRT@D@ATL@@@@@ATL@@QAEAAV01@PBD@Z:PROC
EXTRN	__imp_?Compare@?$CStringT@DV?$StrTraitMFC_DLL@DV?$ChTraitsCRT@D@ATL@@@@@ATL@@QBEHPBD@Z:PROC
EXTRN	__imp_?Find@?$CStringT@DV?$StrTraitMFC_DLL@DV?$ChTraitsCRT@D@ATL@@@@@ATL@@QBEHPBDH@Z:PROC
EXTRN	__imp_?MakeUpper@?$CStringT@DV?$StrTraitMFC_DLL@DV?$ChTraitsCRT@D@ATL@@@@@ATL@@QAEAAV12@XZ:PROC
EXTRN	__imp_?TrimRight@?$CStringT@DV?$StrTraitMFC_DLL@DV?$ChTraitsCRT@D@ATL@@@@@ATL@@QAEAAV12@XZ:PROC
EXTRN	__imp_?TrimLeft@?$CStringT@DV?$StrTraitMFC_DLL@DV?$ChTraitsCRT@D@ATL@@@@@ATL@@QAEAAV12@XZ:PROC
EXTRN	__imp_?Mid@?$CStringT@DV?$StrTraitMFC_DLL@DV?$ChTraitsCRT@D@ATL@@@@@ATL@@QBE?AV12@HH@Z:PROC
EXTRN	__imp_?Left@?$CStringT@DV?$StrTraitMFC_DLL@DV?$ChTraitsCRT@D@ATL@@@@@ATL@@QBE?AV12@H@Z:PROC
EXTRN	__imp_?Format@?$CStringT@DV?$StrTraitMFC_DLL@DV?$ChTraitsCRT@D@ATL@@@@@ATL@@QAAXPBDZZ:PROC
EXTRN	?Read@CArchive@@QAEIPAXI@Z:PROC			; CArchive::Read
EXTRN	?Write@CArchive@@QAEXPBXI@Z:PROC		; CArchive::Write
EXTRN	?ReadCount@CArchive@@QAEKXZ:PROC		; CArchive::ReadCount
EXTRN	?WriteCount@CArchive@@QAEXK@Z:PROC		; CArchive::WriteCount
EXTRN	??0CStringArray@@QAE@XZ:PROC			; CStringArray::CStringArray
EXTRN	?SetSize@CStringArray@@QAEXHH@Z:PROC		; CStringArray::SetSize
EXTRN	?SetAtGrow@CStringArray@@QAEXHABV?$CStringT@DV?$StrTraitMFC_DLL@DV?$ChTraitsCRT@D@ATL@@@@@ATL@@@Z:PROC ; CStringArray::SetAtGrow
EXTRN	?Copy@CStringArray@@QAEXABV1@@Z:PROC		; CStringArray::Copy
EXTRN	??1CStringArray@@UAE@XZ:PROC			; CStringArray::~CStringArray
EXTRN	?AfxGetStaticModuleState@@YGPAVAFX_MODULE_STATE@@XZ:PROC ; AfxGetStaticModuleState
EXTRN	??0AFX_MAINTAIN_STATE2@@QAE@PAVAFX_MODULE_STATE@@@Z:PROC ; AFX_MAINTAIN_STATE2::AFX_MAINTAIN_STATE2
EXTRN	??1AFX_MAINTAIN_STATE2@@QAE@XZ:PROC		; AFX_MAINTAIN_STATE2::~AFX_MAINTAIN_STATE2
EXTRN	?Create@CPlex@@SGPAU1@AAPAU1@II@Z:PROC		; CPlex::Create
EXTRN	?FreeDataChain@CPlex@@QAEXXZ:PROC		; CPlex::FreeDataChain
EXTRN	?DDX_Control@@YGXPAVCDataExchange@@HAAVCWnd@@@Z:PROC ; DDX_Control
EXTRN	?OnCmdMsg@CCmdTarget@@UAEHIHPAXPAUAFX_CMDHANDLERINFO@@@Z:PROC ; CCmdTarget::OnCmdMsg
EXTRN	?IsInvokeAllowed@CCmdTarget@@UAEHJ@Z:PROC	; CCmdTarget::IsInvokeAllowed
EXTRN	?GetDispatchIID@CCmdTarget@@UAEHPAU_GUID@@@Z:PROC ; CCmdTarget::GetDispatchIID
EXTRN	?GetTypeInfoCount@CCmdTarget@@UAEIXZ:PROC	; CCmdTarget::GetTypeInfoCount
EXTRN	?GetTypeLibCache@CCmdTarget@@UAEPAVCTypeLibCache@@XZ:PROC ; CCmdTarget::GetTypeLibCache
EXTRN	?GetTypeLib@CCmdTarget@@UAEJKPAPAUITypeLib@@@Z:PROC ; CCmdTarget::GetTypeLib
EXTRN	?GetCommandMap@CCmdTarget@@MBEPBUAFX_OLECMDMAP@@XZ:PROC ; CCmdTarget::GetCommandMap
EXTRN	?GetDispatchMap@CCmdTarget@@MBEPBUAFX_DISPMAP@@XZ:PROC ; CCmdTarget::GetDispatchMap
EXTRN	?GetConnectionMap@CCmdTarget@@MBEPBUAFX_CONNECTIONMAP@@XZ:PROC ; CCmdTarget::GetConnectionMap
EXTRN	?GetEventSinkMap@CCmdTarget@@MBEPBUAFX_EVENTSINKMAP@@XZ:PROC ; CCmdTarget::GetEventSinkMap
EXTRN	?OnCreateAggregates@CCmdTarget@@UAEHXZ:PROC	; CCmdTarget::OnCreateAggregates
EXTRN	?GetInterfaceHook@CCmdTarget@@UAEPAUIUnknown@@PBX@Z:PROC ; CCmdTarget::GetInterfaceHook
EXTRN	?GetExtraConnectionPoints@CCmdTarget@@MAEHPAVCPtrArray@@@Z:PROC ; CCmdTarget::GetExtraConnectionPoints
EXTRN	?GetConnectionHook@CCmdTarget@@MAEPAUIConnectionPoint@@ABU_GUID@@@Z:PROC ; CCmdTarget::GetConnectionHook
EXTRN	??0CWnd@@QAE@XZ:PROC				; CWnd::CWnd
EXTRN	?FromHandle@CWnd@@SGPAV1@PAUHWND__@@@Z:PROC	; CWnd::FromHandle
EXTRN	?PreSubclassWindow@CWnd@@UAEXXZ:PROC		; CWnd::PreSubclassWindow
EXTRN	?Create@CWnd@@UAEHPBD0KABUtagRECT@@PAV1@IPAUCCreateContext@@@Z:PROC ; CWnd::Create
EXTRN	?CreateEx@CWnd@@UAEHKPBD0KHHHHPAUHWND__@@PAUHMENU__@@PAX@Z:PROC ; CWnd::CreateEx
EXTRN	?CreateEx@CWnd@@UAEHKPBD0KABUtagRECT@@PAV1@IPAX@Z:PROC ; CWnd::CreateEx
EXTRN	?DestroyWindow@CWnd@@UAEHXZ:PROC		; CWnd::DestroyWindow
EXTRN	?PreCreateWindow@CWnd@@UAEHAAUtagCREATESTRUCTA@@@Z:PROC ; CWnd::PreCreateWindow
EXTRN	?CalcWindowRect@CWnd@@UAEXPAUtagRECT@@I@Z:PROC	; CWnd::CalcWindowRect
EXTRN	?GetDlgItem@CWnd@@QBEPAV1@H@Z:PROC		; CWnd::GetDlgItem
EXTRN	?GetMenu@CWnd@@UBEPAVCMenu@@XZ:PROC		; CWnd::GetMenu
EXTRN	?SetMenu@CWnd@@UAEHPAVCMenu@@@Z:PROC		; CWnd::SetMenu
EXTRN	?ScreenToClient@CWnd@@QBEXPAUtagRECT@@@Z:PROC	; CWnd::ScreenToClient
EXTRN	?OnToolHitTest@CWnd@@UBEHVCPoint@@PAUtagTOOLINFOA@@@Z:PROC ; CWnd::OnToolHitTest
EXTRN	?GetScrollBarCtrl@CWnd@@UBEPAVCScrollBar@@H@Z:PROC ; CWnd::GetScrollBarCtrl
EXTRN	?WinHelpA@CWnd@@UAEXKI@Z:PROC			; CWnd::WinHelpA
EXTRN	?HtmlHelpA@CWnd@@UAEXKI@Z:PROC			; CWnd::HtmlHelpA
EXTRN	?WinHelpInternal@CWnd@@UAEXKI@Z:PROC		; CWnd::WinHelpInternal
EXTRN	?ContinueModal@CWnd@@UAEHXZ:PROC		; CWnd::ContinueModal
EXTRN	?EndModalLoop@CWnd@@UAEXH@Z:PROC		; CWnd::EndModalLoop
EXTRN	?OnDrawIconicThumbnailOrLivePreview@CWnd@@UAEXAAVCDC@@VCRect@@VCSize@@HAAH@Z:PROC ; CWnd::OnDrawIconicThumbnailOrLivePreview
EXTRN	?GetInterfaceMap@CWnd@@MBEPBUAFX_INTERFACEMAP@@XZ:PROC ; CWnd::GetInterfaceMap
EXTRN	?EnsureStdObj@CWnd@@UAEJXZ:PROC			; CWnd::EnsureStdObj
EXTRN	?get_accParent@CWnd@@UAEJPAPAUIDispatch@@@Z:PROC ; CWnd::get_accParent
EXTRN	?get_accChildCount@CWnd@@UAEJPAJ@Z:PROC		; CWnd::get_accChildCount
EXTRN	?get_accChild@CWnd@@UAEJUtagVARIANT@@PAPAUIDispatch@@@Z:PROC ; CWnd::get_accChild
EXTRN	?get_accName@CWnd@@UAEJUtagVARIANT@@PAPA_W@Z:PROC ; CWnd::get_accName
EXTRN	?get_accValue@CWnd@@UAEJUtagVARIANT@@PAPA_W@Z:PROC ; CWnd::get_accValue
EXTRN	?get_accDescription@CWnd@@UAEJUtagVARIANT@@PAPA_W@Z:PROC ; CWnd::get_accDescription
EXTRN	?get_accRole@CWnd@@UAEJUtagVARIANT@@PAU2@@Z:PROC ; CWnd::get_accRole
EXTRN	?get_accState@CWnd@@UAEJUtagVARIANT@@PAU2@@Z:PROC ; CWnd::get_accState
EXTRN	?get_accHelp@CWnd@@UAEJUtagVARIANT@@PAPA_W@Z:PROC ; CWnd::get_accHelp
EXTRN	?get_accHelpTopic@CWnd@@UAEJPAPA_WUtagVARIANT@@PAJ@Z:PROC ; CWnd::get_accHelpTopic
EXTRN	?get_accKeyboardShortcut@CWnd@@UAEJUtagVARIANT@@PAPA_W@Z:PROC ; CWnd::get_accKeyboardShortcut
EXTRN	?get_accFocus@CWnd@@UAEJPAUtagVARIANT@@@Z:PROC	; CWnd::get_accFocus
EXTRN	?get_accSelection@CWnd@@UAEJPAUtagVARIANT@@@Z:PROC ; CWnd::get_accSelection
EXTRN	?get_accDefaultAction@CWnd@@UAEJUtagVARIANT@@PAPA_W@Z:PROC ; CWnd::get_accDefaultAction
EXTRN	?accSelect@CWnd@@UAEJJUtagVARIANT@@@Z:PROC	; CWnd::accSelect
EXTRN	?accLocation@CWnd@@UAEJPAJ000UtagVARIANT@@@Z:PROC ; CWnd::accLocation
EXTRN	?accNavigate@CWnd@@UAEJJUtagVARIANT@@PAU2@@Z:PROC ; CWnd::accNavigate
EXTRN	?accHitTest@CWnd@@UAEJJJPAUtagVARIANT@@@Z:PROC	; CWnd::accHitTest
EXTRN	?accDoDefaultAction@CWnd@@UAEJUtagVARIANT@@@Z:PROC ; CWnd::accDoDefaultAction
EXTRN	?put_accName@CWnd@@UAEJUtagVARIANT@@PA_W@Z:PROC	; CWnd::put_accName
EXTRN	?put_accValue@CWnd@@UAEJUtagVARIANT@@PA_W@Z:PROC ; CWnd::put_accValue
EXTRN	?SetProxy@CWnd@@UAEJPAUIAccessibleProxy@@@Z:PROC ; CWnd::SetProxy
EXTRN	?CreateAccessibleProxy@CWnd@@UAEJIJPAJ@Z:PROC	; CWnd::CreateAccessibleProxy
EXTRN	?OnCommand@CWnd@@MAEHIJ@Z:PROC			; CWnd::OnCommand
EXTRN	?OnNotify@CWnd@@MAEHIJPAJ@Z:PROC		; CWnd::OnNotify
EXTRN	?GetSuperWndProcAddr@CWnd@@MAEPAP6GJPAUHWND__@@IIJ@ZXZ:PROC ; CWnd::GetSuperWndProcAddr
EXTRN	?PreTranslateMessage@CWnd@@UAEHPAUtagMSG@@@Z:PROC ; CWnd::PreTranslateMessage
EXTRN	?OnAmbientProperty@CWnd@@UAEHPAVCOleControlSite@@JPAUtagVARIANT@@@Z:PROC ; CWnd::OnAmbientProperty
EXTRN	?WindowProc@CWnd@@MAEJIIJ@Z:PROC		; CWnd::WindowProc
EXTRN	?OnWndMsg@CWnd@@MAEHIIJPAJ@Z:PROC		; CWnd::OnWndMsg
EXTRN	?Default@CWnd@@IAEJXZ:PROC			; CWnd::Default
EXTRN	?DefWindowProcA@CWnd@@MAEJIIJ@Z:PROC		; CWnd::DefWindowProcA
EXTRN	?PostNcDestroy@CWnd@@MAEXXZ:PROC		; CWnd::PostNcDestroy
EXTRN	?OnChildNotify@CWnd@@MAEHIIJPAJ@Z:PROC		; CWnd::OnChildNotify
EXTRN	?OnTouchInputs@CWnd@@MAEHIPAUtagTOUCHINPUT@@@Z:PROC ; CWnd::OnTouchInputs
EXTRN	?OnTouchInput@CWnd@@MAEHVCPoint@@HHPAUtagTOUCHINPUT@@@Z:PROC ; CWnd::OnTouchInput
EXTRN	?GetGestureStatus@CWnd@@MAEKVCPoint@@@Z:PROC	; CWnd::GetGestureStatus
EXTRN	?OnGestureZoom@CWnd@@MAEHVCPoint@@J@Z:PROC	; CWnd::OnGestureZoom
EXTRN	?OnGesturePan@CWnd@@MAEHVCPoint@@0@Z:PROC	; CWnd::OnGesturePan
EXTRN	?OnGestureRotate@CWnd@@MAEHVCPoint@@N@Z:PROC	; CWnd::OnGestureRotate
EXTRN	?OnGestureTwoFingerTap@CWnd@@MAEHVCPoint@@@Z:PROC ; CWnd::OnGestureTwoFingerTap
EXTRN	?OnGesturePressAndTap@CWnd@@MAEHVCPoint@@J@Z:PROC ; CWnd::OnGesturePressAndTap
EXTRN	?ResizeDynamicLayout@CWnd@@MAEXXZ:PROC		; CWnd::ResizeDynamicLayout
EXTRN	?CheckAutoCenter@CWnd@@UAEHXZ:PROC		; CWnd::CheckAutoCenter
EXTRN	?IsFrameWnd@CWnd@@UBEHXZ:PROC			; CWnd::IsFrameWnd
EXTRN	?OnFinalRelease@CWnd@@UAEXXZ:PROC		; CWnd::OnFinalRelease
EXTRN	?CreateControlContainer@CWnd@@MAEHPAPAVCOleControlContainer@@@Z:PROC ; CWnd::CreateControlContainer
EXTRN	?CreateControlSite@CWnd@@MAEHPAVCOleControlContainer@@PAPAVCOleControlSite@@IABU_GUID@@@Z:PROC ; CWnd::CreateControlSite
EXTRN	?SetOccDialogInfo@CWnd@@MAEHPAU_AFX_OCC_DIALOG_INFO@@@Z:PROC ; CWnd::SetOccDialogInfo
EXTRN	?GetOccDialogInfo@CWnd@@MAEPAU_AFX_OCC_DIALOG_INFO@@XZ:PROC ; CWnd::GetOccDialogInfo
EXTRN	?GetMessageMap@CWnd@@MBEPBUAFX_MSGMAP@@XZ:PROC	; CWnd::GetMessageMap
EXTRN	?GetRuntimeClass@CDialog@@UBEPAUCRuntimeClass@@XZ:PROC ; CDialog::GetRuntimeClass
EXTRN	?Create@CDialog@@UAEHPBDPAVCWnd@@@Z:PROC	; CDialog::Create
EXTRN	?CreateIndirect@CDialog@@UAEHPBUDLGTEMPLATE@@PAVCWnd@@PAX@Z:PROC ; CDialog::CreateIndirect
EXTRN	?CreateIndirect@CDialog@@UAEHPAXPAVCWnd@@@Z:PROC ; CDialog::CreateIndirect
EXTRN	?OnSetFont@CDialog@@UAEXPAVCFont@@@Z:PROC	; CDialog::OnSetFont
EXTRN	?OnOK@CDialog@@MAEXXZ:PROC			; CDialog::OnOK
EXTRN	?OnCancel@CDialog@@MAEXXZ:PROC			; CDialog::OnCancel
EXTRN	?OnCmdMsg@CDialog@@UAEHIHPAXPAUAFX_CMDHANDLERINFO@@@Z:PROC ; CDialog::OnCmdMsg
EXTRN	?CheckAutoCenter@CDialog@@UAEHXZ:PROC		; CDialog::CheckAutoCenter
EXTRN	?SetOccDialogInfo@CDialog@@MAEHPAU_AFX_OCC_DIALOG_INFO@@@Z:PROC ; CDialog::SetOccDialogInfo
EXTRN	?GetOccDialogInfo@CDialog@@MAEPAU_AFX_OCC_DIALOG_INFO@@XZ:PROC ; CDialog::GetOccDialogInfo
EXTRN	?PreInitDialog@CDialog@@MAEXXZ:PROC		; CDialog::PreInitDialog
EXTRN	?GetThisMessageMap@CDialog@@KGPBUAFX_MSGMAP@@XZ:PROC ; CDialog::GetThisMessageMap
EXTRN	?GetRuntimeClass@CButton@@UBEPAUCRuntimeClass@@XZ:PROC ; CButton::GetRuntimeClass
EXTRN	?Create@CButton@@UAEHPBDKABUtagRECT@@PAVCWnd@@I@Z:PROC ; CButton::Create
EXTRN	?DrawItem@CButton@@UAEXPAUtagDRAWITEMSTRUCT@@@Z:PROC ; CButton::DrawItem
EXTRN	??1CButton@@UAE@XZ:PROC				; CButton::~CButton
EXTRN	?OnChildNotify@CButton@@MAEHIIJPAJ@Z:PROC	; CButton::OnChildNotify
EXTRN	??_ECButton@@UAEPAXI@Z:PROC			; CButton::`vector deleting destructor'
EXTRN	?GetRuntimeClass@CListBox@@UBEPAUCRuntimeClass@@XZ:PROC ; CListBox::GetRuntimeClass
EXTRN	?Create@CListBox@@UAEHKABUtagRECT@@PAVCWnd@@I@Z:PROC ; CListBox::Create
EXTRN	?DrawItem@CListBox@@UAEXPAUtagDRAWITEMSTRUCT@@@Z:PROC ; CListBox::DrawItem
EXTRN	?MeasureItem@CListBox@@UAEXPAUtagMEASUREITEMSTRUCT@@@Z:PROC ; CListBox::MeasureItem
EXTRN	?CompareItem@CListBox@@UAEHPAUtagCOMPAREITEMSTRUCT@@@Z:PROC ; CListBox::CompareItem
EXTRN	?DeleteItem@CListBox@@UAEXPAUtagDELETEITEMSTRUCT@@@Z:PROC ; CListBox::DeleteItem
EXTRN	?VKeyToItem@CListBox@@UAEHII@Z:PROC		; CListBox::VKeyToItem
EXTRN	?CharToItem@CListBox@@UAEHII@Z:PROC		; CListBox::CharToItem
EXTRN	??1CListBox@@UAE@XZ:PROC			; CListBox::~CListBox
EXTRN	?OnChildNotify@CListBox@@MAEHIIJPAJ@Z:PROC	; CListBox::OnChildNotify
EXTRN	??_ECListBox@@UAEPAXI@Z:PROC			; CListBox::`vector deleting destructor'
EXTRN	?GetLBText@CComboBox@@QBEXHAAV?$CStringT@DV?$StrTraitMFC_DLL@DV?$ChTraitsCRT@D@ATL@@@@@ATL@@@Z:PROC ; CComboBox::GetLBText
EXTRN	?ChangeSkinColor@CRscDlg@@UAEXK@Z:PROC		; CRscDlg::ChangeSkinColor
EXTRN	?Create@CRscDlg@@UAEHIPAVCWnd@@@Z:PROC		; CRscDlg::Create
EXTRN	?DoModal@CRscDlg@@UAEHXZ:PROC			; CRscDlg::DoModal
EXTRN	?OnCtlColor@CRscDlg@@IAEPAUHBRUSH__@@PAVCDC@@PAVCWnd@@I@Z:PROC ; CRscDlg::OnCtlColor
EXTRN	??0CTabDlg@@QAE@IPAVCWnd@@@Z:PROC		; CTabDlg::CTabDlg
EXTRN	??1CTabDlg@@UAE@XZ:PROC				; CTabDlg::~CTabDlg
EXTRN	?PreTranslateMessage@CTabDlg@@UAEHPAUtagMSG@@@Z:PROC ; CTabDlg::PreTranslateMessage
EXTRN	?RecalcLayoutCtrl@CTabDlg@@IAEXAAVCWnd@@H@Z:PROC ; CTabDlg::RecalcLayoutCtrl
EXTRN	?OnInitDialog@CTabDlg@@MAEHXZ:PROC		; CTabDlg::OnInitDialog
EXTRN	?OnDestroy@CTabDlg@@IAEXXZ:PROC			; CTabDlg::OnDestroy
EXTRN	??0CExComboBox@@QAE@H@Z:PROC			; CExComboBox::CExComboBox
EXTRN	??1CExComboBox@@UAE@XZ:PROC			; CExComboBox::~CExComboBox
EXTRN	??0CExGridCtrl@@QAE@HHHH@Z:PROC			; CExGridCtrl::CExGridCtrl
EXTRN	?Create@CExGridCtrl@@QAEHAAUtagRECT@@PAVCWnd@@IK@Z:PROC ; CExGridCtrl::Create
EXTRN	?GetRowCount@CExGridCtrl@@QAEHXZ:PROC		; CExGridCtrl::GetRowCount
EXTRN	?GetColumnCount@CExGridCtrl@@QAEHXZ:PROC	; CExGridCtrl::GetColumnCount
EXTRN	?SetRowCount@CExGridCtrl@@QAEHH@Z:PROC		; CExGridCtrl::SetRowCount
EXTRN	?SetColumnCount@CExGridCtrl@@QAEHH@Z:PROC	; CExGridCtrl::SetColumnCount
EXTRN	?SetFixedColumnCount@CExGridCtrl@@QAEHH@Z:PROC	; CExGridCtrl::SetFixedColumnCount
EXTRN	?SetRowHeight@CExGridCtrl@@QAEHHH@Z:PROC	; CExGridCtrl::SetRowHeight
EXTRN	?SetColumnWidth@CExGridCtrl@@QAEHHH@Z:PROC	; CExGridCtrl::SetColumnWidth
EXTRN	?SetGridLineColor@CExGridCtrl@@QAEXK@Z:PROC	; CExGridCtrl::SetGridLineColor
EXTRN	?SetGridColor@CExGridCtrl@@QAEXK@Z:PROC		; CExGridCtrl::SetGridColor
EXTRN	?SetBkColor@CExGridCtrl@@QAEXK@Z:PROC		; CExGridCtrl::SetBkColor
EXTRN	?EnableTitleTips@CExGridCtrl@@QAEXH@Z:PROC	; CExGridCtrl::EnableTitleTips
EXTRN	?EnableColumnHide@CExGridCtrl@@QAEXH@Z:PROC	; CExGridCtrl::EnableColumnHide
EXTRN	?EnableRowHide@CExGridCtrl@@QAEXH@Z:PROC	; CExGridCtrl::EnableRowHide
EXTRN	?SetItem@CExGridCtrl@@QAEHPAU_GV_ITEM@@@Z:PROC	; CExGridCtrl::SetItem
EXTRN	?SetItemText@CExGridCtrl@@QAEHHHPBD@Z:PROC	; CExGridCtrl::SetItemText
EXTRN	?SetItemData@CExGridCtrl@@QAEHHHJ@Z:PROC	; CExGridCtrl::SetItemData
EXTRN	?GetItemData@CExGridCtrl@@QAEJHH@Z:PROC		; CExGridCtrl::GetItemData
EXTRN	?SetItemBkColour@CExGridCtrl@@QAEHHHK@Z:PROC	; CExGridCtrl::SetItemBkColour
EXTRN	?SetItemFgColour@CExGridCtrl@@QAEHHHK@Z:PROC	; CExGridCtrl::SetItemFgColour
EXTRN	?Refresh@CExGridCtrl@@QAEXXZ:PROC		; CExGridCtrl::Refresh
EXTRN	?RedrawCell@CExGridCtrl@@QAEHHHPAVCDC@@@Z:PROC	; CExGridCtrl::RedrawCell
EXTRN	??_E?$CList@U_codeinfo@@AAU1@@@UAEPAXI@Z:PROC	; CList<_codeinfo,_codeinfo &>::`vector deleting destructor'
EXTRN	??_ECTabCodeSearchFO@@UAEPAXI@Z:PROC		; CTabCodeSearchFO::`vector deleting destructor'
EXTRN	@__security_check_cookie@4:PROC
EXTRN	___CxxFrameHandler3:PROC
EXTRN	_memset:PROC
EXTRN	??_7type_info@@6B@:QWORD			; type_info::`vftable'
EXTRN	___security_cookie:DWORD
EXTRN	__fltused:DWORD
;	COMDAT ?_OptionsStorage@?1??__local_stdio_scanf_options@@9@4_KA
_BSS	SEGMENT
?_OptionsStorage@?1??__local_stdio_scanf_options@@9@4_KA DQ 01H DUP (?) ; `__local_stdio_scanf_options'::`2'::_OptionsStorage
_BSS	ENDS
_BSS	SEGMENT
?RMSG_GETPCTRDATA@@3IB DD 01H DUP (?)			; RMSG_GETPCTRDATA
?RMSG_GETSIGNAL_REAL@@3IB DD 01H DUP (?)		; RMSG_GETSIGNAL_REAL
?RMSG_CHARTMAIN@@3IB DD 01H DUP (?)			; RMSG_CHARTMAIN
?RMS_ANALYSIS_FUNC@@3IB DD 01H DUP (?)			; RMS_ANALYSIS_FUNC
?RMSG_GET_USERID@@3IB DD 01H DUP (?)			; RMSG_GET_USERID
?RMSG_KSDLLINFO@@3IB DD 01H DUP (?)			; RMSG_KSDLLINFO
?RMSG_GETINFO@@3IB DD 01H DUP (?)			; RMSG_GETINFO
?RMSG_CHANGE_SKINCOLOR@@3IB DD 01H DUP (?)		; RMSG_CHANGE_SKINCOLOR
?RMSG_GET_SKINCOLOR@@3IB DD 01H DUP (?)			; RMSG_GET_SKINCOLOR
?RMSG_CHANGE_CROSSLINE@@3IB DD 01H DUP (?)		; RMSG_CHANGE_CROSSLINE
?RMSG_REPLAY_REAL@@3IB DD 01H DUP (?)			; RMSG_REPLAY_REAL
?RMSG_REPLAY_FAIL@@3IB DD 01H DUP (?)			; RMSG_REPLAY_FAIL
?RMSG_REPLAY_CHANGE_DATE@@3IB DD 01H DUP (?)		; RMSG_REPLAY_CHANGE_DATE
?RMSG_REPLAY_END@@3IB DD 01H DUP (?)			; RMSG_REPLAY_END
?RMSG_REPLAY_INC_SEC@@3IB DD 01H DUP (?)		; RMSG_REPLAY_INC_SEC
?RMSG_REPLAY_TOTAL_SEC@@3IB DD 01H DUP (?)		; RMSG_REPLAY_TOTAL_SEC
?RMSG_SELCHARTCODE@@3IB DD 01H DUP (?)			; RMSG_SELCHARTCODE
_BSS	ENDS
CRT$XCU	SEGMENT
?RMSG_GETPCTRDATA$initializer$@@3P6AXXZA DD FLAT:??__ERMSG_GETPCTRDATA@@YAXXZ ; RMSG_GETPCTRDATA$initializer$
CRT$XCU	ENDS
;	COMDAT __xmm@ffffffffffffffffffffffffffffffff
CONST	SEGMENT
__xmm@ffffffffffffffffffffffffffffffff DB 0ffH, 0ffH, 0ffH, 0ffH, 0ffH, 0ffH
	DB	0ffH, 0ffH, 0ffH, 0ffH, 0ffH, 0ffH, 0ffH, 0ffH, 0ffH, 0ffH
CONST	ENDS
;	COMDAT __real@4059000000000000
CONST	SEGMENT
__real@4059000000000000 DQ 04059000000000000r	; 100
CONST	ENDS
;	COMDAT ??_R1A@?0A@EA@?$CList@U_codeinfo@@AAU1@@@8
rdata$r	SEGMENT
??_R1A@?0A@EA@?$CList@U_codeinfo@@AAU1@@@8 DD FLAT:??_R0?AV?$CList@U_codeinfo@@AAU1@@@@8 ; CList<_codeinfo,_codeinfo &>::`RTTI Base Class Descriptor at (0,-1,0,64)'
	DD	01H
	DD	00H
	DD	0ffffffffH
	DD	00H
	DD	040H
	DD	FLAT:??_R3?$CList@U_codeinfo@@AAU1@@@8
rdata$r	ENDS
;	COMDAT ??_R2?$CList@U_codeinfo@@AAU1@@@8
rdata$r	SEGMENT
??_R2?$CList@U_codeinfo@@AAU1@@@8 DD FLAT:??_R1A@?0A@EA@?$CList@U_codeinfo@@AAU1@@@8 ; CList<_codeinfo,_codeinfo &>::`RTTI Base Class Array'
	DD	FLAT:??_R1A@?0A@EA@CObject@@8
rdata$r	ENDS
;	COMDAT ??_R3?$CList@U_codeinfo@@AAU1@@@8
rdata$r	SEGMENT
??_R3?$CList@U_codeinfo@@AAU1@@@8 DD 00H		; CList<_codeinfo,_codeinfo &>::`RTTI Class Hierarchy Descriptor'
	DD	00H
	DD	02H
	DD	FLAT:??_R2?$CList@U_codeinfo@@AAU1@@@8
rdata$r	ENDS
;	COMDAT ??_R0?AV?$CList@U_codeinfo@@AAU1@@@@8
data$rs	SEGMENT
??_R0?AV?$CList@U_codeinfo@@AAU1@@@@8 DD FLAT:??_7type_info@@6B@ ; CList<_codeinfo,_codeinfo &> `RTTI Type Descriptor'
	DD	00H
	DB	'.?AV?$CList@U_codeinfo@@AAU1@@@', 00H
data$rs	ENDS
;	COMDAT ??_R4?$CList@U_codeinfo@@AAU1@@@6B@
rdata$r	SEGMENT
??_R4?$CList@U_codeinfo@@AAU1@@@6B@ DD 00H		; CList<_codeinfo,_codeinfo &>::`RTTI Complete Object Locator'
	DD	00H
	DD	00H
	DD	FLAT:??_R0?AV?$CList@U_codeinfo@@AAU1@@@@8
	DD	FLAT:??_R3?$CList@U_codeinfo@@AAU1@@@8
rdata$r	ENDS
;	COMDAT ??_R2CRscDlg@@8
rdata$r	SEGMENT
??_R2CRscDlg@@8 DD FLAT:??_R1A@?0A@EA@CRscDlg@@8	; CRscDlg::`RTTI Base Class Array'
	DD	FLAT:??_R1A@?0A@EA@CDialog@@8
	DD	FLAT:??_R1A@?0A@EA@CWnd@@8
	DD	FLAT:??_R1A@?0A@EA@CCmdTarget@@8
	DD	FLAT:??_R1A@?0A@EA@CObject@@8
rdata$r	ENDS
;	COMDAT ??_R3CRscDlg@@8
rdata$r	SEGMENT
??_R3CRscDlg@@8 DD 00H					; CRscDlg::`RTTI Class Hierarchy Descriptor'
	DD	00H
	DD	05H
	DD	FLAT:??_R2CRscDlg@@8
rdata$r	ENDS
;	COMDAT ??_R0?AVCRscDlg@@@8
data$rs	SEGMENT
??_R0?AVCRscDlg@@@8 DD FLAT:??_7type_info@@6B@		; CRscDlg `RTTI Type Descriptor'
	DD	00H
	DB	'.?AVCRscDlg@@', 00H
data$rs	ENDS
;	COMDAT ??_R1A@?0A@EA@CRscDlg@@8
rdata$r	SEGMENT
??_R1A@?0A@EA@CRscDlg@@8 DD FLAT:??_R0?AVCRscDlg@@@8	; CRscDlg::`RTTI Base Class Descriptor at (0,-1,0,64)'
	DD	04H
	DD	00H
	DD	0ffffffffH
	DD	00H
	DD	040H
	DD	FLAT:??_R3CRscDlg@@8
rdata$r	ENDS
;	COMDAT ??_R2CTabDlg@@8
rdata$r	SEGMENT
??_R2CTabDlg@@8 DD FLAT:??_R1A@?0A@EA@CTabDlg@@8	; CTabDlg::`RTTI Base Class Array'
	DD	FLAT:??_R1A@?0A@EA@CRscDlg@@8
	DD	FLAT:??_R1A@?0A@EA@CDialog@@8
	DD	FLAT:??_R1A@?0A@EA@CWnd@@8
	DD	FLAT:??_R1A@?0A@EA@CCmdTarget@@8
	DD	FLAT:??_R1A@?0A@EA@CObject@@8
rdata$r	ENDS
;	COMDAT ??_R3CTabDlg@@8
rdata$r	SEGMENT
??_R3CTabDlg@@8 DD 00H					; CTabDlg::`RTTI Class Hierarchy Descriptor'
	DD	00H
	DD	06H
	DD	FLAT:??_R2CTabDlg@@8
rdata$r	ENDS
;	COMDAT ??_R0?AVCTabDlg@@@8
data$rs	SEGMENT
??_R0?AVCTabDlg@@@8 DD FLAT:??_7type_info@@6B@		; CTabDlg `RTTI Type Descriptor'
	DD	00H
	DB	'.?AVCTabDlg@@', 00H
data$rs	ENDS
;	COMDAT ??_R1A@?0A@EA@CTabDlg@@8
rdata$r	SEGMENT
??_R1A@?0A@EA@CTabDlg@@8 DD FLAT:??_R0?AVCTabDlg@@@8	; CTabDlg::`RTTI Base Class Descriptor at (0,-1,0,64)'
	DD	05H
	DD	00H
	DD	0ffffffffH
	DD	00H
	DD	040H
	DD	FLAT:??_R3CTabDlg@@8
rdata$r	ENDS
;	COMDAT ??_R1A@?0A@EA@CTabCodeSearchFO@@8
rdata$r	SEGMENT
??_R1A@?0A@EA@CTabCodeSearchFO@@8 DD FLAT:??_R0?AVCTabCodeSearchFO@@@8 ; CTabCodeSearchFO::`RTTI Base Class Descriptor at (0,-1,0,64)'
	DD	06H
	DD	00H
	DD	0ffffffffH
	DD	00H
	DD	040H
	DD	FLAT:??_R3CTabCodeSearchFO@@8
rdata$r	ENDS
;	COMDAT ??_R2CTabCodeSearchFO@@8
rdata$r	SEGMENT
??_R2CTabCodeSearchFO@@8 DD FLAT:??_R1A@?0A@EA@CTabCodeSearchFO@@8 ; CTabCodeSearchFO::`RTTI Base Class Array'
	DD	FLAT:??_R1A@?0A@EA@CTabDlg@@8
	DD	FLAT:??_R1A@?0A@EA@CRscDlg@@8
	DD	FLAT:??_R1A@?0A@EA@CDialog@@8
	DD	FLAT:??_R1A@?0A@EA@CWnd@@8
	DD	FLAT:??_R1A@?0A@EA@CCmdTarget@@8
	DD	FLAT:??_R1A@?0A@EA@CObject@@8
rdata$r	ENDS
;	COMDAT ??_R3CTabCodeSearchFO@@8
rdata$r	SEGMENT
??_R3CTabCodeSearchFO@@8 DD 00H				; CTabCodeSearchFO::`RTTI Class Hierarchy Descriptor'
	DD	00H
	DD	07H
	DD	FLAT:??_R2CTabCodeSearchFO@@8
rdata$r	ENDS
;	COMDAT ??_R0?AVCTabCodeSearchFO@@@8
data$rs	SEGMENT
??_R0?AVCTabCodeSearchFO@@@8 DD FLAT:??_7type_info@@6B@	; CTabCodeSearchFO `RTTI Type Descriptor'
	DD	00H
	DB	'.?AVCTabCodeSearchFO@@', 00H
data$rs	ENDS
;	COMDAT ??_R4CTabCodeSearchFO@@6B@
rdata$r	SEGMENT
??_R4CTabCodeSearchFO@@6B@ DD 00H			; CTabCodeSearchFO::`RTTI Complete Object Locator'
	DD	00H
	DD	00H
	DD	FLAT:??_R0?AVCTabCodeSearchFO@@@8
	DD	FLAT:??_R3CTabCodeSearchFO@@8
rdata$r	ENDS
;	COMDAT ??_C@_0BA@MIOHKIAF@?$CF1c?$CF02d?$CF02s?$CF03d@
CONST	SEGMENT
??_C@_0BA@MIOHKIAF@?$CF1c?$CF02d?$CF02s?$CF03d@ DB '%1c%02d%02s%03d', 00H ; `string'
CONST	ENDS
;	COMDAT ??_C@_0O@EHJFFJCN@?$CF1cAF?$CF02s?$CF03d@
CONST	SEGMENT
??_C@_0O@EHJFFJCN@?$CF1cAF?$CF02s?$CF03d@ DB '%1cAF%02s%03d', 00H ; `string'
CONST	ENDS
;	COMDAT ??_C@_0BC@EHJNOJGF@?$CF1c?$CF02d?$CF1c?$CF1X?$CF03d@
CONST	SEGMENT
??_C@_0BC@EHJNOJGF@?$CF1c?$CF02d?$CF1c?$CF1X?$CF03d@ DB '%1c%02d%1c%1X%03'
	DB	'd', 00H					; `string'
CONST	ENDS
;	COMDAT ??_C@_05LMFDOBNM@?$CFs?$HM?$CFs@
CONST	SEGMENT
??_C@_05LMFDOBNM@?$CFs?$HM?$CFs@ DB '%s|%s', 00H	; `string'
CONST	ENDS
;	COMDAT ??_C@_04HGGMHPIM@?$CF?4?$CKf@
CONST	SEGMENT
??_C@_04HGGMHPIM@?$CF?4?$CKf@ DB '%.*f', 00H		; `string'
CONST	ENDS
;	COMDAT ??_C@_08KALJJMOG@?$CF02d?4W?$CFc@
CONST	SEGMENT
??_C@_08KALJJMOG@?$CF02d?4W?$CFc@ DB '%02d.W%c', 00H	; `string'
CONST	ENDS
;	COMDAT ??_C@_09JIGINAPD@?$CF02d?4MW?$CFc@
CONST	SEGMENT
??_C@_09JIGINAPD@?$CF02d?4MW?$CFc@ DB '%02d.MW%c', 00H	; `string'
CONST	ENDS
;	COMDAT ??_C@_06LDAHLMHO@?$CFd?$CF02d@
CONST	SEGMENT
??_C@_06LDAHLMHO@?$CFd?$CF02d@ DB '%d%02d', 00H		; `string'
CONST	ENDS
;	COMDAT ??_C@_01GFHCPBMG@C@
CONST	SEGMENT
??_C@_01GFHCPBMG@C@ DB 'C', 00H				; `string'
CONST	ENDS
;	COMDAT ??_C@_01FHEEJDEE@A@
CONST	SEGMENT
??_C@_01FHEEJDEE@A@ DB 'A', 00H				; `string'
CONST	ENDS
;	COMDAT ??_C@_02NHMFCJJJ@AF@
CONST	SEGMENT
??_C@_02NHMFCJJJ@AF@ DB 'AF', 00H			; `string'
CONST	ENDS
;	COMDAT ??_C@_0BD@CMCCCNBF@HANAROIGATEMANAGER@
CONST	SEGMENT
??_C@_0BD@CMCCCNBF@HANAROIGATEMANAGER@ DB 'HANAROIGATEMANAGER', 00H ; `string'
CONST	ENDS
;	COMDAT ??_C@_01CLKCMJKC@?5@
CONST	SEGMENT
??_C@_01CLKCMJKC@?5@ DB ' ', 00H			; `string'
CONST	ENDS
;	COMDAT ??_C@_03NDHBKIJP@ATM@
CONST	SEGMENT
??_C@_03NDHBKIJP@ATM@ DB 'ATM', 00H			; `string'
CONST	ENDS
;	COMDAT ??_C@_05BJKOFFGO@PRICE@
CONST	SEGMENT
??_C@_05BJKOFFGO@PRICE@ DB 'PRICE', 00H			; `string'
CONST	ENDS
;	COMDAT ??_C@_05BMGBEOOC@?$CFs?2?$CFs@
CONST	SEGMENT
??_C@_05BMGBEOOC@?$CFs?2?$CFs@ DB '%s\%s', 00H		; `string'
CONST	ENDS
;	COMDAT ??_C@_0P@JIBKHGJJ@master?2atm?4dat@
CONST	SEGMENT
??_C@_0P@JIBKHGJJ@master?2atm?4dat@ DB 'master\atm.dat', 00H ; `string'
CONST	ENDS
;	COMDAT ??_C@_04IPMECLBL@?$CFd?$LP?y@
CONST	SEGMENT
??_C@_04IPMECLBL@?$CFd?$LP?y@ DB '%d', 0bfH, 0f9H, 00H	; `string'
CONST	ENDS
;	COMDAT ??_C@_02ECKNGKBC@?G?$LC@
CONST	SEGMENT
??_C@_02ECKNGKBC@?G?$LC@ DB 0c7H, 0b2H, 00H		; `string'
CONST	ENDS
;	COMDAT ??_C@_02KCIOKDCD@?D?$NN@
CONST	SEGMENT
??_C@_02KCIOKDCD@?D?$NN@ DB 0c4H, 0ddH, 00H		; `string'
CONST	ENDS
;	COMDAT ??_C@_06CDJAKJDK@?G?$OA?$LL?g?$LA?$KB@
CONST	SEGMENT
??_C@_06CDJAKJDK@?G?$OA?$LL?g?$LA?$KB@ DB 0c7H, 0e0H, 0bbH, 0e7H, 0b0H, 0a1H
	DB	00H						; `string'
CONST	ENDS
;	COMDAT ??_R0PAVCMemoryException@@@8
data$r	SEGMENT
??_R0PAVCMemoryException@@@8 DD FLAT:??_7type_info@@6B@	; CMemoryException * `RTTI Type Descriptor'
	DD	00H
	DB	'.PAVCMemoryException@@', 00H
data$r	ENDS
;	COMDAT ?messageMap@?1??GetThisMessageMap@CTabCodeSearchFO@@KGPBUAFX_MSGMAP@@XZ@4U3@B
CONST	SEGMENT
?messageMap@?1??GetThisMessageMap@CTabCodeSearchFO@@KGPBUAFX_MSGMAP@@XZ@4U3@B DD FLAT:?GetThisMessageMap@CDialog@@KGPBUAFX_MSGMAP@@XZ ; `CTabCodeSearchFO::GetThisMessageMap'::`2'::messageMap
	DD	FLAT:?_messageEntries@?1??GetThisMessageMap@CTabCodeSearchFO@@KGPBUAFX_MSGMAP@@XZ@4QBUAFX_MSGMAP_ENTRY@@B
CONST	ENDS
;	COMDAT ?_messageEntries@?1??GetThisMessageMap@CTabCodeSearchFO@@KGPBUAFX_MSGMAP@@XZ@4QBUAFX_MSGMAP_ENTRY@@B
CONST	SEGMENT
?_messageEntries@?1??GetThisMessageMap@CTabCodeSearchFO@@KGPBUAFX_MSGMAP@@XZ@4QBUAFX_MSGMAP_ENTRY@@B DD 05H ; `CTabCodeSearchFO::GetThisMessageMap'::`2'::_messageEntries
	DD	00H
	DD	00H
	DD	00H
	DD	01aH
	DD	FLAT:?OnSize@CTabCodeSearchFO@@IAEXIHH@Z
	DD	02H
	DD	00H
	DD	00H
	DD	00H
	DD	013H
	DD	FLAT:?OnDestroy@CTabCodeSearchFO@@IAEXXZ
	DD	0111H
	DD	01H
	DD	01795H
	DD	01795H
	DD	03aH
	DD	FLAT:?OnSelchangeComboFO@CTabCodeSearchFO@@IAEXXZ
	DD	0111H
	DD	05H
	DD	01794H
	DD	01794H
	DD	03aH
	DD	FLAT:?OnEditchangeComboMonth@CTabCodeSearchFO@@IAEXXZ
	DD	0111H
	DD	01H
	DD	01794H
	DD	01794H
	DD	03aH
	DD	FLAT:?OnSelchangeComboMonth@CTabCodeSearchFO@@IAEXXZ
	DD	019H
	DD	00H
	DD	00H
	DD	00H
	DD	08H
	DD	FLAT:?OnCtlColor@CTabCodeSearchFO@@IAEPAUHBRUSH__@@PAVCDC@@PAVCWnd@@I@Z
	DD	0111H
	DD	01H
	DD	01870H
	DD	01870H
	DD	03aH
	DD	FLAT:?OnSelchangeListFuture@CTabCodeSearchFO@@IAEXXZ
	DD	0111H
	DD	02H
	DD	01870H
	DD	01870H
	DD	03aH
	DD	FLAT:?OnDblclkListFuture@CTabCodeSearchFO@@IAEXXZ
	DD	0111H
	DD	00H
	DD	01891H
	DD	01891H
	DD	03aH
	DD	FLAT:?OnClickRadioKospi200@CTabCodeSearchFO@@IAEXXZ
	DD	0111H
	DD	00H
	DD	01892H
	DD	01892H
	DD	03aH
	DD	FLAT:?OnClickRadioMiniKospi@CTabCodeSearchFO@@IAEXXZ
	DD	0111H
	DD	00H
	DD	01893H
	DD	01893H
	DD	03aH
	DD	FLAT:?OnClickRadioWeeklyKospi@CTabCodeSearchFO@@IAEXXZ
	DD	00H
	DD	00H
	DD	00H
	DD	00H
	DD	00H
	DD	00H
CONST	ENDS
;	COMDAT ??_C@_0L@MMIFOKFD@W?5KOSPI200@
CONST	SEGMENT
??_C@_0L@MMIFOKFD@W?5KOSPI200@ DB 'W KOSPI200', 00H	; `string'
CONST	ENDS
;	COMDAT ??_C@_0L@IANMHGBM@M?5KOSPI200@
CONST	SEGMENT
??_C@_0L@IANMHGBM@M?5KOSPI200@ DB 'M KOSPI200', 00H	; `string'
CONST	ENDS
;	COMDAT ??_C@_08FPNDIEGG@KOSPI200@
CONST	SEGMENT
??_C@_08FPNDIEGG@KOSPI200@ DB 'KOSPI200', 00H		; `string'
CONST	ENDS
CONST	SEGMENT
?FUTOPT_COMBO@@3QBQBDB DD FLAT:??_C@_08FPNDIEGG@KOSPI200@ ; FUTOPT_COMBO
	DD	FLAT:??_C@_0L@IANMHGBM@M?5KOSPI200@
	DD	FLAT:??_C@_0L@MMIFOKFD@W?5KOSPI200@
CONST	ENDS
;	COMDAT ??_7CTabCodeSearchFO@@6B@
CONST	SEGMENT
??_7CTabCodeSearchFO@@6B@ DD FLAT:??_R4CTabCodeSearchFO@@6B@ ; CTabCodeSearchFO::`vftable'
	DD	FLAT:?GetRuntimeClass@CDialog@@UBEPAUCRuntimeClass@@XZ
	DD	FLAT:??_ECTabCodeSearchFO@@UAEPAXI@Z
	DD	FLAT:?Serialize@CObject@@UAEXAAVCArchive@@@Z
	DD	FLAT:?AssertValid@CObject@@UBEXXZ
	DD	FLAT:?Dump@CObject@@UBEXAAVCDumpContext@@@Z
	DD	FLAT:?OnCmdMsg@CDialog@@UAEHIHPAXPAUAFX_CMDHANDLERINFO@@@Z
	DD	FLAT:?OnFinalRelease@CWnd@@UAEXXZ
	DD	FLAT:?IsInvokeAllowed@CCmdTarget@@UAEHJ@Z
	DD	FLAT:?GetDispatchIID@CCmdTarget@@UAEHPAU_GUID@@@Z
	DD	FLAT:?GetTypeInfoCount@CCmdTarget@@UAEIXZ
	DD	FLAT:?GetTypeLibCache@CCmdTarget@@UAEPAVCTypeLibCache@@XZ
	DD	FLAT:?GetTypeLib@CCmdTarget@@UAEJKPAPAUITypeLib@@@Z
	DD	FLAT:?GetMessageMap@CTabCodeSearchFO@@MBEPBUAFX_MSGMAP@@XZ
	DD	FLAT:?GetCommandMap@CCmdTarget@@MBEPBUAFX_OLECMDMAP@@XZ
	DD	FLAT:?GetDispatchMap@CCmdTarget@@MBEPBUAFX_DISPMAP@@XZ
	DD	FLAT:?GetConnectionMap@CCmdTarget@@MBEPBUAFX_CONNECTIONMAP@@XZ
	DD	FLAT:?GetInterfaceMap@CWnd@@MBEPBUAFX_INTERFACEMAP@@XZ
	DD	FLAT:?GetEventSinkMap@CCmdTarget@@MBEPBUAFX_EVENTSINKMAP@@XZ
	DD	FLAT:?OnCreateAggregates@CCmdTarget@@UAEHXZ
	DD	FLAT:?GetInterfaceHook@CCmdTarget@@UAEPAUIUnknown@@PBX@Z
	DD	FLAT:?GetExtraConnectionPoints@CCmdTarget@@MAEHPAVCPtrArray@@@Z
	DD	FLAT:?GetConnectionHook@CCmdTarget@@MAEPAUIConnectionPoint@@ABU_GUID@@@Z
	DD	FLAT:?PreSubclassWindow@CWnd@@UAEXXZ
	DD	FLAT:?Create@CWnd@@UAEHPBD0KABUtagRECT@@PAV1@IPAUCCreateContext@@@Z
	DD	FLAT:?CreateEx@CWnd@@UAEHKPBD0KABUtagRECT@@PAV1@IPAX@Z
	DD	FLAT:?CreateEx@CWnd@@UAEHKPBD0KHHHHPAUHWND__@@PAUHMENU__@@PAX@Z
	DD	FLAT:?DestroyWindow@CWnd@@UAEHXZ
	DD	FLAT:?PreCreateWindow@CWnd@@UAEHAAUtagCREATESTRUCTA@@@Z
	DD	FLAT:?CalcWindowRect@CWnd@@UAEXPAUtagRECT@@I@Z
	DD	FLAT:?GetMenu@CWnd@@UBEPAVCMenu@@XZ
	DD	FLAT:?SetMenu@CWnd@@UAEHPAVCMenu@@@Z
	DD	FLAT:?OnToolHitTest@CWnd@@UBEHVCPoint@@PAUtagTOOLINFOA@@@Z
	DD	FLAT:?GetScrollBarCtrl@CWnd@@UBEPAVCScrollBar@@H@Z
	DD	FLAT:?WinHelpA@CWnd@@UAEXKI@Z
	DD	FLAT:?HtmlHelpA@CWnd@@UAEXKI@Z
	DD	FLAT:?WinHelpInternal@CWnd@@UAEXKI@Z
	DD	FLAT:?ContinueModal@CWnd@@UAEHXZ
	DD	FLAT:?EndModalLoop@CWnd@@UAEXH@Z
	DD	FLAT:?OnDrawIconicThumbnailOrLivePreview@CWnd@@UAEXAAVCDC@@VCRect@@VCSize@@HAAH@Z
	DD	FLAT:?EnsureStdObj@CWnd@@UAEJXZ
	DD	FLAT:?get_accParent@CWnd@@UAEJPAPAUIDispatch@@@Z
	DD	FLAT:?get_accChildCount@CWnd@@UAEJPAJ@Z
	DD	FLAT:?get_accChild@CWnd@@UAEJUtagVARIANT@@PAPAUIDispatch@@@Z
	DD	FLAT:?get_accName@CWnd@@UAEJUtagVARIANT@@PAPA_W@Z
	DD	FLAT:?get_accValue@CWnd@@UAEJUtagVARIANT@@PAPA_W@Z
	DD	FLAT:?get_accDescription@CWnd@@UAEJUtagVARIANT@@PAPA_W@Z
	DD	FLAT:?get_accRole@CWnd@@UAEJUtagVARIANT@@PAU2@@Z
	DD	FLAT:?get_accState@CWnd@@UAEJUtagVARIANT@@PAU2@@Z
	DD	FLAT:?get_accHelp@CWnd@@UAEJUtagVARIANT@@PAPA_W@Z
	DD	FLAT:?get_accHelpTopic@CWnd@@UAEJPAPA_WUtagVARIANT@@PAJ@Z
	DD	FLAT:?get_accKeyboardShortcut@CWnd@@UAEJUtagVARIANT@@PAPA_W@Z
	DD	FLAT:?get_accFocus@CWnd@@UAEJPAUtagVARIANT@@@Z
	DD	FLAT:?get_accSelection@CWnd@@UAEJPAUtagVARIANT@@@Z
	DD	FLAT:?get_accDefaultAction@CWnd@@UAEJUtagVARIANT@@PAPA_W@Z
	DD	FLAT:?accSelect@CWnd@@UAEJJUtagVARIANT@@@Z
	DD	FLAT:?accLocation@CWnd@@UAEJPAJ000UtagVARIANT@@@Z
	DD	FLAT:?accNavigate@CWnd@@UAEJJUtagVARIANT@@PAU2@@Z
	DD	FLAT:?accHitTest@CWnd@@UAEJJJPAUtagVARIANT@@@Z
	DD	FLAT:?accDoDefaultAction@CWnd@@UAEJUtagVARIANT@@@Z
	DD	FLAT:?put_accName@CWnd@@UAEJUtagVARIANT@@PA_W@Z
	DD	FLAT:?put_accValue@CWnd@@UAEJUtagVARIANT@@PA_W@Z
	DD	FLAT:?SetProxy@CWnd@@UAEJPAUIAccessibleProxy@@@Z
	DD	FLAT:?CreateAccessibleProxy@CWnd@@UAEJIJPAJ@Z
	DD	FLAT:?OnCommand@CWnd@@MAEHIJ@Z
	DD	FLAT:?OnNotify@CWnd@@MAEHIJPAJ@Z
	DD	FLAT:?GetSuperWndProcAddr@CWnd@@MAEPAP6GJPAUHWND__@@IIJ@ZXZ
	DD	FLAT:?DoDataExchange@CTabCodeSearchFO@@MAEXPAVCDataExchange@@@Z
	DD	FLAT:?BeginModalState@CWnd@@UAEXXZ
	DD	FLAT:?EndModalState@CWnd@@UAEXXZ
	DD	FLAT:?PreTranslateMessage@CTabDlg@@UAEHPAUtagMSG@@@Z
	DD	FLAT:?OnAmbientProperty@CWnd@@UAEHPAVCOleControlSite@@JPAUtagVARIANT@@@Z
	DD	FLAT:?WindowProc@CTabCodeSearchFO@@MAEJIIJ@Z
	DD	FLAT:?OnWndMsg@CWnd@@MAEHIIJPAJ@Z
	DD	FLAT:?DefWindowProcA@CWnd@@MAEJIIJ@Z
	DD	FLAT:?PostNcDestroy@CWnd@@MAEXXZ
	DD	FLAT:?OnChildNotify@CWnd@@MAEHIIJPAJ@Z
	DD	FLAT:?OnTouchInputs@CWnd@@MAEHIPAUtagTOUCHINPUT@@@Z
	DD	FLAT:?OnTouchInput@CWnd@@MAEHVCPoint@@HHPAUtagTOUCHINPUT@@@Z
	DD	FLAT:?GetGestureStatus@CWnd@@MAEKVCPoint@@@Z
	DD	FLAT:?OnGestureZoom@CWnd@@MAEHVCPoint@@J@Z
	DD	FLAT:?OnGesturePan@CWnd@@MAEHVCPoint@@0@Z
	DD	FLAT:?OnGestureRotate@CWnd@@MAEHVCPoint@@N@Z
	DD	FLAT:?OnGestureTwoFingerTap@CWnd@@MAEHVCPoint@@@Z
	DD	FLAT:?OnGesturePressAndTap@CWnd@@MAEHVCPoint@@J@Z
	DD	FLAT:?ResizeDynamicLayout@CWnd@@MAEXXZ
	DD	FLAT:?CheckAutoCenter@CDialog@@UAEHXZ
	DD	FLAT:?IsFrameWnd@CWnd@@UBEHXZ
	DD	FLAT:?CreateControlContainer@CWnd@@MAEHPAPAVCOleControlContainer@@@Z
	DD	FLAT:?CreateControlSite@CWnd@@MAEHPAVCOleControlContainer@@PAPAVCOleControlSite@@IABU_GUID@@@Z
	DD	FLAT:?SetOccDialogInfo@CDialog@@MAEHPAU_AFX_OCC_DIALOG_INFO@@@Z
	DD	FLAT:?GetOccDialogInfo@CDialog@@MAEPAU_AFX_OCC_DIALOG_INFO@@XZ
	DD	FLAT:?Create@CRscDlg@@UAEHIPAVCWnd@@@Z
	DD	FLAT:?Create@CDialog@@UAEHPBDPAVCWnd@@@Z
	DD	FLAT:?CreateIndirect@CDialog@@UAEHPAXPAVCWnd@@@Z
	DD	FLAT:?CreateIndirect@CDialog@@UAEHPBUDLGTEMPLATE@@PAVCWnd@@PAX@Z
	DD	FLAT:?DoModal@CRscDlg@@UAEHXZ
	DD	FLAT:?OnInitDialog@CTabCodeSearchFO@@MAEHXZ
	DD	FLAT:?OnSetFont@CDialog@@UAEXPAVCFont@@@Z
	DD	FLAT:?OnOK@CDialog@@MAEXXZ
	DD	FLAT:?OnCancel@CDialog@@MAEXXZ
	DD	FLAT:?PreInitDialog@CDialog@@MAEXXZ
	DD	FLAT:?ChangeSkinColor@CRscDlg@@UAEXK@Z
	DD	FLAT:?SetBkColor@CRscDlg@@UAEXK@Z
	DD	FLAT:?ReceiveData@CTabDlg@@UAEXPAUHWND__@@PBD11PAXJ@Z
	DD	FLAT:?SetRealPriceData@CTabDlg@@UAEXPAX@Z
	DD	FLAT:?ReceiveDataFromOutSide@CTabDlg@@UAEXXZ
	DD	FLAT:?SetCodeFromOutSide@CTabDlg@@UAEXPBD@Z
	DD	FLAT:?GetRectOfCtrl@CTabCodeSearchFO@@UAE?AVCRect@@HH@Z
CONST	ENDS
;	COMDAT ??_7?$CList@U_codeinfo@@AAU1@@@6B@
CONST	SEGMENT
??_7?$CList@U_codeinfo@@AAU1@@@6B@ DD FLAT:??_R4?$CList@U_codeinfo@@AAU1@@@6B@ ; CList<_codeinfo,_codeinfo &>::`vftable'
	DD	FLAT:?GetRuntimeClass@CObject@@UBEPAUCRuntimeClass@@XZ
	DD	FLAT:??_E?$CList@U_codeinfo@@AAU1@@@UAEPAXI@Z
	DD	FLAT:?Serialize@?$CList@U_codeinfo@@AAU1@@@UAEXAAVCArchive@@@Z
	DD	FLAT:?AssertValid@CObject@@UBEXXZ
	DD	FLAT:?Dump@CObject@@UBEXAAVCDumpContext@@@Z
CONST	ENDS
;	COMDAT ??_R2CDialog@@8
rdata$r	SEGMENT
??_R2CDialog@@8 DD FLAT:??_R1A@?0A@EA@CDialog@@8	; CDialog::`RTTI Base Class Array'
	DD	FLAT:??_R1A@?0A@EA@CWnd@@8
	DD	FLAT:??_R1A@?0A@EA@CCmdTarget@@8
	DD	FLAT:??_R1A@?0A@EA@CObject@@8
rdata$r	ENDS
;	COMDAT ??_R3CDialog@@8
rdata$r	SEGMENT
??_R3CDialog@@8 DD 00H					; CDialog::`RTTI Class Hierarchy Descriptor'
	DD	00H
	DD	04H
	DD	FLAT:??_R2CDialog@@8
rdata$r	ENDS
;	COMDAT ??_R0?AVCDialog@@@8
data$rs	SEGMENT
??_R0?AVCDialog@@@8 DD FLAT:??_7type_info@@6B@		; CDialog `RTTI Type Descriptor'
	DD	00H
	DB	'.?AVCDialog@@', 00H
data$rs	ENDS
;	COMDAT ??_R1A@?0A@EA@CDialog@@8
rdata$r	SEGMENT
??_R1A@?0A@EA@CDialog@@8 DD FLAT:??_R0?AVCDialog@@@8	; CDialog::`RTTI Base Class Descriptor at (0,-1,0,64)'
	DD	03H
	DD	00H
	DD	0ffffffffH
	DD	00H
	DD	040H
	DD	FLAT:??_R3CDialog@@8
rdata$r	ENDS
;	COMDAT ??_R1A@?0A@EA@CListBox@@8
rdata$r	SEGMENT
??_R1A@?0A@EA@CListBox@@8 DD FLAT:??_R0?AVCListBox@@@8	; CListBox::`RTTI Base Class Descriptor at (0,-1,0,64)'
	DD	03H
	DD	00H
	DD	0ffffffffH
	DD	00H
	DD	040H
	DD	FLAT:??_R3CListBox@@8
rdata$r	ENDS
;	COMDAT ??_R2CListBox@@8
rdata$r	SEGMENT
??_R2CListBox@@8 DD FLAT:??_R1A@?0A@EA@CListBox@@8	; CListBox::`RTTI Base Class Array'
	DD	FLAT:??_R1A@?0A@EA@CWnd@@8
	DD	FLAT:??_R1A@?0A@EA@CCmdTarget@@8
	DD	FLAT:??_R1A@?0A@EA@CObject@@8
rdata$r	ENDS
;	COMDAT ??_R3CListBox@@8
rdata$r	SEGMENT
??_R3CListBox@@8 DD 00H					; CListBox::`RTTI Class Hierarchy Descriptor'
	DD	00H
	DD	04H
	DD	FLAT:??_R2CListBox@@8
rdata$r	ENDS
;	COMDAT ??_R0?AVCListBox@@@8
data$rs	SEGMENT
??_R0?AVCListBox@@@8 DD FLAT:??_7type_info@@6B@		; CListBox `RTTI Type Descriptor'
	DD	00H
	DB	'.?AVCListBox@@', 00H
data$rs	ENDS
;	COMDAT ??_R4CListBox@@6B@
rdata$r	SEGMENT
??_R4CListBox@@6B@ DD 00H				; CListBox::`RTTI Complete Object Locator'
	DD	00H
	DD	00H
	DD	FLAT:??_R0?AVCListBox@@@8
	DD	FLAT:??_R3CListBox@@8
rdata$r	ENDS
;	COMDAT ??_R1A@?0A@EA@CButton@@8
rdata$r	SEGMENT
??_R1A@?0A@EA@CButton@@8 DD FLAT:??_R0?AVCButton@@@8	; CButton::`RTTI Base Class Descriptor at (0,-1,0,64)'
	DD	03H
	DD	00H
	DD	0ffffffffH
	DD	00H
	DD	040H
	DD	FLAT:??_R3CButton@@8
rdata$r	ENDS
;	COMDAT ??_R2CButton@@8
rdata$r	SEGMENT
??_R2CButton@@8 DD FLAT:??_R1A@?0A@EA@CButton@@8	; CButton::`RTTI Base Class Array'
	DD	FLAT:??_R1A@?0A@EA@CWnd@@8
	DD	FLAT:??_R1A@?0A@EA@CCmdTarget@@8
	DD	FLAT:??_R1A@?0A@EA@CObject@@8
rdata$r	ENDS
;	COMDAT ??_R3CButton@@8
rdata$r	SEGMENT
??_R3CButton@@8 DD 00H					; CButton::`RTTI Class Hierarchy Descriptor'
	DD	00H
	DD	04H
	DD	FLAT:??_R2CButton@@8
rdata$r	ENDS
;	COMDAT ??_R0?AVCButton@@@8
data$rs	SEGMENT
??_R0?AVCButton@@@8 DD FLAT:??_7type_info@@6B@		; CButton `RTTI Type Descriptor'
	DD	00H
	DB	'.?AVCButton@@', 00H
data$rs	ENDS
;	COMDAT ??_R4CButton@@6B@
rdata$r	SEGMENT
??_R4CButton@@6B@ DD 00H				; CButton::`RTTI Complete Object Locator'
	DD	00H
	DD	00H
	DD	FLAT:??_R0?AVCButton@@@8
	DD	FLAT:??_R3CButton@@8
rdata$r	ENDS
;	COMDAT ??_R2CCmdTarget@@8
rdata$r	SEGMENT
??_R2CCmdTarget@@8 DD FLAT:??_R1A@?0A@EA@CCmdTarget@@8	; CCmdTarget::`RTTI Base Class Array'
	DD	FLAT:??_R1A@?0A@EA@CObject@@8
rdata$r	ENDS
;	COMDAT ??_R3CCmdTarget@@8
rdata$r	SEGMENT
??_R3CCmdTarget@@8 DD 00H				; CCmdTarget::`RTTI Class Hierarchy Descriptor'
	DD	00H
	DD	02H
	DD	FLAT:??_R2CCmdTarget@@8
rdata$r	ENDS
;	COMDAT ??_R0?AVCCmdTarget@@@8
data$rs	SEGMENT
??_R0?AVCCmdTarget@@@8 DD FLAT:??_7type_info@@6B@	; CCmdTarget `RTTI Type Descriptor'
	DD	00H
	DB	'.?AVCCmdTarget@@', 00H
data$rs	ENDS
;	COMDAT ??_R1A@?0A@EA@CCmdTarget@@8
rdata$r	SEGMENT
??_R1A@?0A@EA@CCmdTarget@@8 DD FLAT:??_R0?AVCCmdTarget@@@8 ; CCmdTarget::`RTTI Base Class Descriptor at (0,-1,0,64)'
	DD	01H
	DD	00H
	DD	0ffffffffH
	DD	00H
	DD	040H
	DD	FLAT:??_R3CCmdTarget@@8
rdata$r	ENDS
;	COMDAT ??_R2CWnd@@8
rdata$r	SEGMENT
??_R2CWnd@@8 DD	FLAT:??_R1A@?0A@EA@CWnd@@8		; CWnd::`RTTI Base Class Array'
	DD	FLAT:??_R1A@?0A@EA@CCmdTarget@@8
	DD	FLAT:??_R1A@?0A@EA@CObject@@8
rdata$r	ENDS
;	COMDAT ??_R3CWnd@@8
rdata$r	SEGMENT
??_R3CWnd@@8 DD	00H					; CWnd::`RTTI Class Hierarchy Descriptor'
	DD	00H
	DD	03H
	DD	FLAT:??_R2CWnd@@8
rdata$r	ENDS
;	COMDAT ??_R0?AVCWnd@@@8
data$rs	SEGMENT
??_R0?AVCWnd@@@8 DD FLAT:??_7type_info@@6B@		; CWnd `RTTI Type Descriptor'
	DD	00H
	DB	'.?AVCWnd@@', 00H
data$rs	ENDS
;	COMDAT ??_R1A@?0A@EA@CWnd@@8
rdata$r	SEGMENT
??_R1A@?0A@EA@CWnd@@8 DD FLAT:??_R0?AVCWnd@@@8		; CWnd::`RTTI Base Class Descriptor at (0,-1,0,64)'
	DD	02H
	DD	00H
	DD	0ffffffffH
	DD	00H
	DD	040H
	DD	FLAT:??_R3CWnd@@8
rdata$r	ENDS
;	COMDAT ??_R1A@?0A@EA@CObject@@8
rdata$r	SEGMENT
??_R1A@?0A@EA@CObject@@8 DD FLAT:??_R0?AVCObject@@@8	; CObject::`RTTI Base Class Descriptor at (0,-1,0,64)'
	DD	00H
	DD	00H
	DD	0ffffffffH
	DD	00H
	DD	040H
	DD	FLAT:??_R3CObject@@8
rdata$r	ENDS
;	COMDAT ??_R2CObject@@8
rdata$r	SEGMENT
??_R2CObject@@8 DD FLAT:??_R1A@?0A@EA@CObject@@8	; CObject::`RTTI Base Class Array'
rdata$r	ENDS
;	COMDAT ??_R3CObject@@8
rdata$r	SEGMENT
??_R3CObject@@8 DD 00H					; CObject::`RTTI Class Hierarchy Descriptor'
	DD	00H
	DD	01H
	DD	FLAT:??_R2CObject@@8
rdata$r	ENDS
;	COMDAT ??_R0?AVCObject@@@8
data$rs	SEGMENT
??_R0?AVCObject@@@8 DD FLAT:??_7type_info@@6B@		; CObject `RTTI Type Descriptor'
	DD	00H
	DB	'.?AVCObject@@', 00H
data$rs	ENDS
;	COMDAT ??_C@_02EMFKHFLK@?$CFX@
CONST	SEGMENT
??_C@_02EMFKHFLK@?$CFX@ DB '%X', 00H			; `string'
CONST	ENDS
;	COMDAT ??_C@_06NDLAHCHE@?$CFs?$CF08X@
CONST	SEGMENT
??_C@_06NDLAHCHE@?$CFs?$CF08X@ DB '%s%08X', 00H		; `string'
CONST	ENDS
;	COMDAT ??_C@_0P@IDMAJEGN@HANAROPCTRMAIN@
CONST	SEGMENT
??_C@_0P@IDMAJEGN@HANAROPCTRMAIN@ DB 'HANAROPCTRMAIN', 00H ; `string'
CONST	ENDS
;	COMDAT ??_C@_0M@CBBNGGHM@PcTrMng?4dll@
CONST	SEGMENT
??_C@_0M@CBBNGGHM@PcTrMng?4dll@ DB 'PcTrMng.dll', 00H	; `string'
CONST	ENDS
;	COMDAT ??_7CListBox@@6B@
CONST	SEGMENT
??_7CListBox@@6B@ DD FLAT:??_R4CListBox@@6B@		; CListBox::`vftable'
	DD	FLAT:?GetRuntimeClass@CListBox@@UBEPAUCRuntimeClass@@XZ
	DD	FLAT:??_ECListBox@@UAEPAXI@Z
	DD	FLAT:?Serialize@CObject@@UAEXAAVCArchive@@@Z
	DD	FLAT:?AssertValid@CObject@@UBEXXZ
	DD	FLAT:?Dump@CObject@@UBEXAAVCDumpContext@@@Z
	DD	FLAT:?OnCmdMsg@CCmdTarget@@UAEHIHPAXPAUAFX_CMDHANDLERINFO@@@Z
	DD	FLAT:?OnFinalRelease@CWnd@@UAEXXZ
	DD	FLAT:?IsInvokeAllowed@CCmdTarget@@UAEHJ@Z
	DD	FLAT:?GetDispatchIID@CCmdTarget@@UAEHPAU_GUID@@@Z
	DD	FLAT:?GetTypeInfoCount@CCmdTarget@@UAEIXZ
	DD	FLAT:?GetTypeLibCache@CCmdTarget@@UAEPAVCTypeLibCache@@XZ
	DD	FLAT:?GetTypeLib@CCmdTarget@@UAEJKPAPAUITypeLib@@@Z
	DD	FLAT:?GetMessageMap@CWnd@@MBEPBUAFX_MSGMAP@@XZ
	DD	FLAT:?GetCommandMap@CCmdTarget@@MBEPBUAFX_OLECMDMAP@@XZ
	DD	FLAT:?GetDispatchMap@CCmdTarget@@MBEPBUAFX_DISPMAP@@XZ
	DD	FLAT:?GetConnectionMap@CCmdTarget@@MBEPBUAFX_CONNECTIONMAP@@XZ
	DD	FLAT:?GetInterfaceMap@CWnd@@MBEPBUAFX_INTERFACEMAP@@XZ
	DD	FLAT:?GetEventSinkMap@CCmdTarget@@MBEPBUAFX_EVENTSINKMAP@@XZ
	DD	FLAT:?OnCreateAggregates@CCmdTarget@@UAEHXZ
	DD	FLAT:?GetInterfaceHook@CCmdTarget@@UAEPAUIUnknown@@PBX@Z
	DD	FLAT:?GetExtraConnectionPoints@CCmdTarget@@MAEHPAVCPtrArray@@@Z
	DD	FLAT:?GetConnectionHook@CCmdTarget@@MAEPAUIConnectionPoint@@ABU_GUID@@@Z
	DD	FLAT:?PreSubclassWindow@CWnd@@UAEXXZ
	DD	FLAT:?Create@CWnd@@UAEHPBD0KABUtagRECT@@PAV1@IPAUCCreateContext@@@Z
	DD	FLAT:?CreateEx@CWnd@@UAEHKPBD0KABUtagRECT@@PAV1@IPAX@Z
	DD	FLAT:?CreateEx@CWnd@@UAEHKPBD0KHHHHPAUHWND__@@PAUHMENU__@@PAX@Z
	DD	FLAT:?DestroyWindow@CWnd@@UAEHXZ
	DD	FLAT:?PreCreateWindow@CWnd@@UAEHAAUtagCREATESTRUCTA@@@Z
	DD	FLAT:?CalcWindowRect@CWnd@@UAEXPAUtagRECT@@I@Z
	DD	FLAT:?GetMenu@CWnd@@UBEPAVCMenu@@XZ
	DD	FLAT:?SetMenu@CWnd@@UAEHPAVCMenu@@@Z
	DD	FLAT:?OnToolHitTest@CWnd@@UBEHVCPoint@@PAUtagTOOLINFOA@@@Z
	DD	FLAT:?GetScrollBarCtrl@CWnd@@UBEPAVCScrollBar@@H@Z
	DD	FLAT:?WinHelpA@CWnd@@UAEXKI@Z
	DD	FLAT:?HtmlHelpA@CWnd@@UAEXKI@Z
	DD	FLAT:?WinHelpInternal@CWnd@@UAEXKI@Z
	DD	FLAT:?ContinueModal@CWnd@@UAEHXZ
	DD	FLAT:?EndModalLoop@CWnd@@UAEXH@Z
	DD	FLAT:?OnDrawIconicThumbnailOrLivePreview@CWnd@@UAEXAAVCDC@@VCRect@@VCSize@@HAAH@Z
	DD	FLAT:?EnsureStdObj@CWnd@@UAEJXZ
	DD	FLAT:?get_accParent@CWnd@@UAEJPAPAUIDispatch@@@Z
	DD	FLAT:?get_accChildCount@CWnd@@UAEJPAJ@Z
	DD	FLAT:?get_accChild@CWnd@@UAEJUtagVARIANT@@PAPAUIDispatch@@@Z
	DD	FLAT:?get_accName@CWnd@@UAEJUtagVARIANT@@PAPA_W@Z
	DD	FLAT:?get_accValue@CWnd@@UAEJUtagVARIANT@@PAPA_W@Z
	DD	FLAT:?get_accDescription@CWnd@@UAEJUtagVARIANT@@PAPA_W@Z
	DD	FLAT:?get_accRole@CWnd@@UAEJUtagVARIANT@@PAU2@@Z
	DD	FLAT:?get_accState@CWnd@@UAEJUtagVARIANT@@PAU2@@Z
	DD	FLAT:?get_accHelp@CWnd@@UAEJUtagVARIANT@@PAPA_W@Z
	DD	FLAT:?get_accHelpTopic@CWnd@@UAEJPAPA_WUtagVARIANT@@PAJ@Z
	DD	FLAT:?get_accKeyboardShortcut@CWnd@@UAEJUtagVARIANT@@PAPA_W@Z
	DD	FLAT:?get_accFocus@CWnd@@UAEJPAUtagVARIANT@@@Z
	DD	FLAT:?get_accSelection@CWnd@@UAEJPAUtagVARIANT@@@Z
	DD	FLAT:?get_accDefaultAction@CWnd@@UAEJUtagVARIANT@@PAPA_W@Z
	DD	FLAT:?accSelect@CWnd@@UAEJJUtagVARIANT@@@Z
	DD	FLAT:?accLocation@CWnd@@UAEJPAJ000UtagVARIANT@@@Z
	DD	FLAT:?accNavigate@CWnd@@UAEJJUtagVARIANT@@PAU2@@Z
	DD	FLAT:?accHitTest@CWnd@@UAEJJJPAUtagVARIANT@@@Z
	DD	FLAT:?accDoDefaultAction@CWnd@@UAEJUtagVARIANT@@@Z
	DD	FLAT:?put_accName@CWnd@@UAEJUtagVARIANT@@PA_W@Z
	DD	FLAT:?put_accValue@CWnd@@UAEJUtagVARIANT@@PA_W@Z
	DD	FLAT:?SetProxy@CWnd@@UAEJPAUIAccessibleProxy@@@Z
	DD	FLAT:?CreateAccessibleProxy@CWnd@@UAEJIJPAJ@Z
	DD	FLAT:?OnCommand@CWnd@@MAEHIJ@Z
	DD	FLAT:?OnNotify@CWnd@@MAEHIJPAJ@Z
	DD	FLAT:?GetSuperWndProcAddr@CWnd@@MAEPAP6GJPAUHWND__@@IIJ@ZXZ
	DD	FLAT:?DoDataExchange@CWnd@@MAEXPAVCDataExchange@@@Z
	DD	FLAT:?BeginModalState@CWnd@@UAEXXZ
	DD	FLAT:?EndModalState@CWnd@@UAEXXZ
	DD	FLAT:?PreTranslateMessage@CWnd@@UAEHPAUtagMSG@@@Z
	DD	FLAT:?OnAmbientProperty@CWnd@@UAEHPAVCOleControlSite@@JPAUtagVARIANT@@@Z
	DD	FLAT:?WindowProc@CWnd@@MAEJIIJ@Z
	DD	FLAT:?OnWndMsg@CWnd@@MAEHIIJPAJ@Z
	DD	FLAT:?DefWindowProcA@CWnd@@MAEJIIJ@Z
	DD	FLAT:?PostNcDestroy@CWnd@@MAEXXZ
	DD	FLAT:?OnChildNotify@CListBox@@MAEHIIJPAJ@Z
	DD	FLAT:?OnTouchInputs@CWnd@@MAEHIPAUtagTOUCHINPUT@@@Z
	DD	FLAT:?OnTouchInput@CWnd@@MAEHVCPoint@@HHPAUtagTOUCHINPUT@@@Z
	DD	FLAT:?GetGestureStatus@CWnd@@MAEKVCPoint@@@Z
	DD	FLAT:?OnGestureZoom@CWnd@@MAEHVCPoint@@J@Z
	DD	FLAT:?OnGesturePan@CWnd@@MAEHVCPoint@@0@Z
	DD	FLAT:?OnGestureRotate@CWnd@@MAEHVCPoint@@N@Z
	DD	FLAT:?OnGestureTwoFingerTap@CWnd@@MAEHVCPoint@@@Z
	DD	FLAT:?OnGesturePressAndTap@CWnd@@MAEHVCPoint@@J@Z
	DD	FLAT:?ResizeDynamicLayout@CWnd@@MAEXXZ
	DD	FLAT:?CheckAutoCenter@CWnd@@UAEHXZ
	DD	FLAT:?IsFrameWnd@CWnd@@UBEHXZ
	DD	FLAT:?CreateControlContainer@CWnd@@MAEHPAPAVCOleControlContainer@@@Z
	DD	FLAT:?CreateControlSite@CWnd@@MAEHPAVCOleControlContainer@@PAPAVCOleControlSite@@IABU_GUID@@@Z
	DD	FLAT:?SetOccDialogInfo@CWnd@@MAEHPAU_AFX_OCC_DIALOG_INFO@@@Z
	DD	FLAT:?GetOccDialogInfo@CWnd@@MAEPAU_AFX_OCC_DIALOG_INFO@@XZ
	DD	FLAT:?Create@CListBox@@UAEHKABUtagRECT@@PAVCWnd@@I@Z
	DD	FLAT:?DrawItem@CListBox@@UAEXPAUtagDRAWITEMSTRUCT@@@Z
	DD	FLAT:?MeasureItem@CListBox@@UAEXPAUtagMEASUREITEMSTRUCT@@@Z
	DD	FLAT:?CompareItem@CListBox@@UAEHPAUtagCOMPAREITEMSTRUCT@@@Z
	DD	FLAT:?DeleteItem@CListBox@@UAEXPAUtagDELETEITEMSTRUCT@@@Z
	DD	FLAT:?VKeyToItem@CListBox@@UAEHII@Z
	DD	FLAT:?CharToItem@CListBox@@UAEHII@Z
CONST	ENDS
;	COMDAT ??_7CButton@@6B@
CONST	SEGMENT
??_7CButton@@6B@ DD FLAT:??_R4CButton@@6B@		; CButton::`vftable'
	DD	FLAT:?GetRuntimeClass@CButton@@UBEPAUCRuntimeClass@@XZ
	DD	FLAT:??_ECButton@@UAEPAXI@Z
	DD	FLAT:?Serialize@CObject@@UAEXAAVCArchive@@@Z
	DD	FLAT:?AssertValid@CObject@@UBEXXZ
	DD	FLAT:?Dump@CObject@@UBEXAAVCDumpContext@@@Z
	DD	FLAT:?OnCmdMsg@CCmdTarget@@UAEHIHPAXPAUAFX_CMDHANDLERINFO@@@Z
	DD	FLAT:?OnFinalRelease@CWnd@@UAEXXZ
	DD	FLAT:?IsInvokeAllowed@CCmdTarget@@UAEHJ@Z
	DD	FLAT:?GetDispatchIID@CCmdTarget@@UAEHPAU_GUID@@@Z
	DD	FLAT:?GetTypeInfoCount@CCmdTarget@@UAEIXZ
	DD	FLAT:?GetTypeLibCache@CCmdTarget@@UAEPAVCTypeLibCache@@XZ
	DD	FLAT:?GetTypeLib@CCmdTarget@@UAEJKPAPAUITypeLib@@@Z
	DD	FLAT:?GetMessageMap@CWnd@@MBEPBUAFX_MSGMAP@@XZ
	DD	FLAT:?GetCommandMap@CCmdTarget@@MBEPBUAFX_OLECMDMAP@@XZ
	DD	FLAT:?GetDispatchMap@CCmdTarget@@MBEPBUAFX_DISPMAP@@XZ
	DD	FLAT:?GetConnectionMap@CCmdTarget@@MBEPBUAFX_CONNECTIONMAP@@XZ
	DD	FLAT:?GetInterfaceMap@CWnd@@MBEPBUAFX_INTERFACEMAP@@XZ
	DD	FLAT:?GetEventSinkMap@CCmdTarget@@MBEPBUAFX_EVENTSINKMAP@@XZ
	DD	FLAT:?OnCreateAggregates@CCmdTarget@@UAEHXZ
	DD	FLAT:?GetInterfaceHook@CCmdTarget@@UAEPAUIUnknown@@PBX@Z
	DD	FLAT:?GetExtraConnectionPoints@CCmdTarget@@MAEHPAVCPtrArray@@@Z
	DD	FLAT:?GetConnectionHook@CCmdTarget@@MAEPAUIConnectionPoint@@ABU_GUID@@@Z
	DD	FLAT:?PreSubclassWindow@CWnd@@UAEXXZ
	DD	FLAT:?Create@CWnd@@UAEHPBD0KABUtagRECT@@PAV1@IPAUCCreateContext@@@Z
	DD	FLAT:?CreateEx@CWnd@@UAEHKPBD0KABUtagRECT@@PAV1@IPAX@Z
	DD	FLAT:?CreateEx@CWnd@@UAEHKPBD0KHHHHPAUHWND__@@PAUHMENU__@@PAX@Z
	DD	FLAT:?DestroyWindow@CWnd@@UAEHXZ
	DD	FLAT:?PreCreateWindow@CWnd@@UAEHAAUtagCREATESTRUCTA@@@Z
	DD	FLAT:?CalcWindowRect@CWnd@@UAEXPAUtagRECT@@I@Z
	DD	FLAT:?GetMenu@CWnd@@UBEPAVCMenu@@XZ
	DD	FLAT:?SetMenu@CWnd@@UAEHPAVCMenu@@@Z
	DD	FLAT:?OnToolHitTest@CWnd@@UBEHVCPoint@@PAUtagTOOLINFOA@@@Z
	DD	FLAT:?GetScrollBarCtrl@CWnd@@UBEPAVCScrollBar@@H@Z
	DD	FLAT:?WinHelpA@CWnd@@UAEXKI@Z
	DD	FLAT:?HtmlHelpA@CWnd@@UAEXKI@Z
	DD	FLAT:?WinHelpInternal@CWnd@@UAEXKI@Z
	DD	FLAT:?ContinueModal@CWnd@@UAEHXZ
	DD	FLAT:?EndModalLoop@CWnd@@UAEXH@Z
	DD	FLAT:?OnDrawIconicThumbnailOrLivePreview@CWnd@@UAEXAAVCDC@@VCRect@@VCSize@@HAAH@Z
	DD	FLAT:?EnsureStdObj@CWnd@@UAEJXZ
	DD	FLAT:?get_accParent@CWnd@@UAEJPAPAUIDispatch@@@Z
	DD	FLAT:?get_accChildCount@CWnd@@UAEJPAJ@Z
	DD	FLAT:?get_accChild@CWnd@@UAEJUtagVARIANT@@PAPAUIDispatch@@@Z
	DD	FLAT:?get_accName@CWnd@@UAEJUtagVARIANT@@PAPA_W@Z
	DD	FLAT:?get_accValue@CWnd@@UAEJUtagVARIANT@@PAPA_W@Z
	DD	FLAT:?get_accDescription@CWnd@@UAEJUtagVARIANT@@PAPA_W@Z
	DD	FLAT:?get_accRole@CWnd@@UAEJUtagVARIANT@@PAU2@@Z
	DD	FLAT:?get_accState@CWnd@@UAEJUtagVARIANT@@PAU2@@Z
	DD	FLAT:?get_accHelp@CWnd@@UAEJUtagVARIANT@@PAPA_W@Z
	DD	FLAT:?get_accHelpTopic@CWnd@@UAEJPAPA_WUtagVARIANT@@PAJ@Z
	DD	FLAT:?get_accKeyboardShortcut@CWnd@@UAEJUtagVARIANT@@PAPA_W@Z
	DD	FLAT:?get_accFocus@CWnd@@UAEJPAUtagVARIANT@@@Z
	DD	FLAT:?get_accSelection@CWnd@@UAEJPAUtagVARIANT@@@Z
	DD	FLAT:?get_accDefaultAction@CWnd@@UAEJUtagVARIANT@@PAPA_W@Z
	DD	FLAT:?accSelect@CWnd@@UAEJJUtagVARIANT@@@Z
	DD	FLAT:?accLocation@CWnd@@UAEJPAJ000UtagVARIANT@@@Z
	DD	FLAT:?accNavigate@CWnd@@UAEJJUtagVARIANT@@PAU2@@Z
	DD	FLAT:?accHitTest@CWnd@@UAEJJJPAUtagVARIANT@@@Z
	DD	FLAT:?accDoDefaultAction@CWnd@@UAEJUtagVARIANT@@@Z
	DD	FLAT:?put_accName@CWnd@@UAEJUtagVARIANT@@PA_W@Z
	DD	FLAT:?put_accValue@CWnd@@UAEJUtagVARIANT@@PA_W@Z
	DD	FLAT:?SetProxy@CWnd@@UAEJPAUIAccessibleProxy@@@Z
	DD	FLAT:?CreateAccessibleProxy@CWnd@@UAEJIJPAJ@Z
	DD	FLAT:?OnCommand@CWnd@@MAEHIJ@Z
	DD	FLAT:?OnNotify@CWnd@@MAEHIJPAJ@Z
	DD	FLAT:?GetSuperWndProcAddr@CWnd@@MAEPAP6GJPAUHWND__@@IIJ@ZXZ
	DD	FLAT:?DoDataExchange@CWnd@@MAEXPAVCDataExchange@@@Z
	DD	FLAT:?BeginModalState@CWnd@@UAEXXZ
	DD	FLAT:?EndModalState@CWnd@@UAEXXZ
	DD	FLAT:?PreTranslateMessage@CWnd@@UAEHPAUtagMSG@@@Z
	DD	FLAT:?OnAmbientProperty@CWnd@@UAEHPAVCOleControlSite@@JPAUtagVARIANT@@@Z
	DD	FLAT:?WindowProc@CWnd@@MAEJIIJ@Z
	DD	FLAT:?OnWndMsg@CWnd@@MAEHIIJPAJ@Z
	DD	FLAT:?DefWindowProcA@CWnd@@MAEJIIJ@Z
	DD	FLAT:?PostNcDestroy@CWnd@@MAEXXZ
	DD	FLAT:?OnChildNotify@CButton@@MAEHIIJPAJ@Z
	DD	FLAT:?OnTouchInputs@CWnd@@MAEHIPAUtagTOUCHINPUT@@@Z
	DD	FLAT:?OnTouchInput@CWnd@@MAEHVCPoint@@HHPAUtagTOUCHINPUT@@@Z
	DD	FLAT:?GetGestureStatus@CWnd@@MAEKVCPoint@@@Z
	DD	FLAT:?OnGestureZoom@CWnd@@MAEHVCPoint@@J@Z
	DD	FLAT:?OnGesturePan@CWnd@@MAEHVCPoint@@0@Z
	DD	FLAT:?OnGestureRotate@CWnd@@MAEHVCPoint@@N@Z
	DD	FLAT:?OnGestureTwoFingerTap@CWnd@@MAEHVCPoint@@@Z
	DD	FLAT:?OnGesturePressAndTap@CWnd@@MAEHVCPoint@@J@Z
	DD	FLAT:?ResizeDynamicLayout@CWnd@@MAEXXZ
	DD	FLAT:?CheckAutoCenter@CWnd@@UAEHXZ
	DD	FLAT:?IsFrameWnd@CWnd@@UBEHXZ
	DD	FLAT:?CreateControlContainer@CWnd@@MAEHPAPAVCOleControlContainer@@@Z
	DD	FLAT:?CreateControlSite@CWnd@@MAEHPAVCOleControlContainer@@PAPAVCOleControlSite@@IABU_GUID@@@Z
	DD	FLAT:?SetOccDialogInfo@CWnd@@MAEHPAU_AFX_OCC_DIALOG_INFO@@@Z
	DD	FLAT:?GetOccDialogInfo@CWnd@@MAEPAU_AFX_OCC_DIALOG_INFO@@XZ
	DD	FLAT:?Create@CButton@@UAEHPBDKABUtagRECT@@PAVCWnd@@I@Z
	DD	FLAT:?DrawItem@CButton@@UAEXPAUtagDRAWITEMSTRUCT@@@Z
CONST	ENDS
;	COMDAT ??_C@_00CNPNBAHC@@
CONST	SEGMENT
??_C@_00CNPNBAHC@@ DB 00H				; `string'
CONST	ENDS
;	COMDAT ??_C@_01PLPBNMEI@M@
CONST	SEGMENT
??_C@_01PLPBNMEI@M@ DB 'M', 00H				; `string'
CONST	ENDS
;	COMDAT xdata$x
xdata$x	SEGMENT
__unwindtable$??_GCTabCodeSearchFO@@UAEPAXI@Z DD 0ffffffffH
	DD	FLAT:___std_terminate
	DD	00H
	DD	FLAT:___std_terminate
__ehfuncinfo$??_GCTabCodeSearchFO@@UAEPAXI@Z DD 019930522H
	DD	02H
	DD	FLAT:__unwindtable$??_GCTabCodeSearchFO@@UAEPAXI@Z
	DD	2 DUP(00H)
	DD	2 DUP(00H)
	DD	00H
	DD	05H
xdata$x	ENDS
;	COMDAT xdata$x
xdata$x	SEGMENT
__unwindtable$??1CTabCodeSearchFO@@UAE@XZ DD 0ffffffffH
	DD	FLAT:___std_terminate
__ehfuncinfo$??1CTabCodeSearchFO@@UAE@XZ DD 019930522H
	DD	01H
	DD	FLAT:__unwindtable$??1CTabCodeSearchFO@@UAE@XZ
	DD	2 DUP(00H)
	DD	2 DUP(00H)
	DD	00H
	DD	05H
xdata$x	ENDS
;	COMDAT xdata$x
xdata$x	SEGMENT
__ehfuncinfo$?OnDblclkListFuture@CTabCodeSearchFO@@IAEXXZ DD 019930522H
	DD	09H
	DD	FLAT:__unwindtable$?OnDblclkListFuture@CTabCodeSearchFO@@IAEXXZ
	DD	2 DUP(00H)
	DD	2 DUP(00H)
	DD	00H
	DD	01H
__unwindtable$?OnDblclkListFuture@CTabCodeSearchFO@@IAEXXZ DD 0ffffffffH
	DD	FLAT:__unwindfunclet$?OnDblclkListFuture@CTabCodeSearchFO@@IAEXXZ$0
	DD	00H
	DD	FLAT:__unwindfunclet$?OnDblclkListFuture@CTabCodeSearchFO@@IAEXXZ$1
	DD	01H
	DD	FLAT:__unwindfunclet$?OnDblclkListFuture@CTabCodeSearchFO@@IAEXXZ$2
	DD	01H
	DD	FLAT:__unwindfunclet$?OnDblclkListFuture@CTabCodeSearchFO@@IAEXXZ$3
	DD	01H
	DD	FLAT:__unwindfunclet$?OnDblclkListFuture@CTabCodeSearchFO@@IAEXXZ$4
	DD	01H
	DD	FLAT:__unwindfunclet$?OnDblclkListFuture@CTabCodeSearchFO@@IAEXXZ$5
	DD	05H
	DD	FLAT:__unwindfunclet$?OnDblclkListFuture@CTabCodeSearchFO@@IAEXXZ$6
	DD	06H
	DD	FLAT:__unwindfunclet$?OnDblclkListFuture@CTabCodeSearchFO@@IAEXXZ$7
	DD	07H
	DD	FLAT:__unwindfunclet$?OnDblclkListFuture@CTabCodeSearchFO@@IAEXXZ$8
xdata$x	ENDS
;	COMDAT xdata$x
xdata$x	SEGMENT
__ehfuncinfo$?OnSelchangeListFuture@CTabCodeSearchFO@@IAEXXZ DD 019930522H
	DD	07H
	DD	FLAT:__unwindtable$?OnSelchangeListFuture@CTabCodeSearchFO@@IAEXXZ
	DD	2 DUP(00H)
	DD	2 DUP(00H)
	DD	00H
	DD	01H
__unwindtable$?OnSelchangeListFuture@CTabCodeSearchFO@@IAEXXZ DD 0ffffffffH
	DD	FLAT:__unwindfunclet$?OnSelchangeListFuture@CTabCodeSearchFO@@IAEXXZ$0
	DD	00H
	DD	FLAT:__unwindfunclet$?OnSelchangeListFuture@CTabCodeSearchFO@@IAEXXZ$1
	DD	00H
	DD	FLAT:__unwindfunclet$?OnSelchangeListFuture@CTabCodeSearchFO@@IAEXXZ$2
	DD	00H
	DD	FLAT:__unwindfunclet$?OnSelchangeListFuture@CTabCodeSearchFO@@IAEXXZ$3
	DD	00H
	DD	FLAT:__unwindfunclet$?OnSelchangeListFuture@CTabCodeSearchFO@@IAEXXZ$4
	DD	04H
	DD	FLAT:__unwindfunclet$?OnSelchangeListFuture@CTabCodeSearchFO@@IAEXXZ$5
	DD	05H
	DD	FLAT:__unwindfunclet$?OnSelchangeListFuture@CTabCodeSearchFO@@IAEXXZ$6
xdata$x	ENDS
;	COMDAT xdata$x
xdata$x	SEGMENT
__unwindtable$?OnInitDialog@CTabCodeSearchFO@@MAEHXZ DD 0ffffffffH
	DD	FLAT:__unwindfunclet$?OnInitDialog@CTabCodeSearchFO@@MAEHXZ$0
__ehfuncinfo$?OnInitDialog@CTabCodeSearchFO@@MAEHXZ DD 019930522H
	DD	01H
	DD	FLAT:__unwindtable$?OnInitDialog@CTabCodeSearchFO@@MAEHXZ
	DD	2 DUP(00H)
	DD	2 DUP(00H)
	DD	00H
	DD	01H
xdata$x	ENDS
;	COMDAT xdata$x
xdata$x	SEGMENT
__unwindtable$?GetCodeInfo@CTabCodeSearchFO@@QAEHHAAH0AAV?$CStringT@DV?$StrTraitMFC_DLL@DV?$ChTraitsCRT@D@ATL@@@@@ATL@@@Z DD 0ffffffffH
	DD	FLAT:__unwindfunclet$?GetCodeInfo@CTabCodeSearchFO@@QAEHHAAH0AAV?$CStringT@DV?$StrTraitMFC_DLL@DV?$ChTraitsCRT@D@ATL@@@@@ATL@@@Z$0
	DD	00H
	DD	FLAT:__unwindfunclet$?GetCodeInfo@CTabCodeSearchFO@@QAEHHAAH0AAV?$CStringT@DV?$StrTraitMFC_DLL@DV?$ChTraitsCRT@D@ATL@@@@@ATL@@@Z$1
__ehfuncinfo$?GetCodeInfo@CTabCodeSearchFO@@QAEHHAAH0AAV?$CStringT@DV?$StrTraitMFC_DLL@DV?$ChTraitsCRT@D@ATL@@@@@ATL@@@Z DD 019930522H
	DD	02H
	DD	FLAT:__unwindtable$?GetCodeInfo@CTabCodeSearchFO@@QAEHHAAH0AAV?$CStringT@DV?$StrTraitMFC_DLL@DV?$ChTraitsCRT@D@ATL@@@@@ATL@@@Z
	DD	2 DUP(00H)
	DD	2 DUP(00H)
	DD	00H
	DD	01H
xdata$x	ENDS
;	COMDAT xdata$x
xdata$x	SEGMENT
__unwindtable$?UpdateHogaData@CTabCodeSearchFO@@QAEXHHNKH@Z DD 0ffffffffH
	DD	FLAT:__unwindfunclet$?UpdateHogaData@CTabCodeSearchFO@@QAEXHHNKH@Z$0
__ehfuncinfo$?UpdateHogaData@CTabCodeSearchFO@@QAEXHHNKH@Z DD 019930522H
	DD	01H
	DD	FLAT:__unwindtable$?UpdateHogaData@CTabCodeSearchFO@@QAEXHHNKH@Z
	DD	2 DUP(00H)
	DD	2 DUP(00H)
	DD	00H
	DD	01H
xdata$x	ENDS
;	COMDAT xdata$x
xdata$x	SEGMENT
__ehfuncinfo$?InitMasterData@CTabCodeSearchFO@@QAEHXZ DD 019930522H
	DD	010H
	DD	FLAT:__unwindtable$?InitMasterData@CTabCodeSearchFO@@QAEHXZ
	DD	2 DUP(00H)
	DD	2 DUP(00H)
	DD	00H
	DD	01H
__unwindtable$?InitMasterData@CTabCodeSearchFO@@QAEHXZ DD 0ffffffffH
	DD	FLAT:__unwindfunclet$?InitMasterData@CTabCodeSearchFO@@QAEHXZ$0
	DD	0ffffffffH
	DD	FLAT:__unwindfunclet$?InitMasterData@CTabCodeSearchFO@@QAEHXZ$1
	DD	0ffffffffH
	DD	FLAT:__unwindfunclet$?InitMasterData@CTabCodeSearchFO@@QAEHXZ$2
	DD	0ffffffffH
	DD	FLAT:__unwindfunclet$?InitMasterData@CTabCodeSearchFO@@QAEHXZ$3
	DD	0ffffffffH
	DD	FLAT:__unwindfunclet$?InitMasterData@CTabCodeSearchFO@@QAEHXZ$4
	DD	0ffffffffH
	DD	FLAT:__unwindfunclet$?InitMasterData@CTabCodeSearchFO@@QAEHXZ$5
	DD	0ffffffffH
	DD	FLAT:__unwindfunclet$?InitMasterData@CTabCodeSearchFO@@QAEHXZ$6
	DD	0ffffffffH
	DD	FLAT:__unwindfunclet$?InitMasterData@CTabCodeSearchFO@@QAEHXZ$7
	DD	07H
	DD	FLAT:__unwindfunclet$?InitMasterData@CTabCodeSearchFO@@QAEHXZ$8
	DD	08H
	DD	FLAT:__unwindfunclet$?InitMasterData@CTabCodeSearchFO@@QAEHXZ$9
	DD	09H
	DD	FLAT:__unwindfunclet$?InitMasterData@CTabCodeSearchFO@@QAEHXZ$10
	DD	0aH
	DD	FLAT:__unwindfunclet$?InitMasterData@CTabCodeSearchFO@@QAEHXZ$11
	DD	0bH
	DD	FLAT:__unwindfunclet$?InitMasterData@CTabCodeSearchFO@@QAEHXZ$15
	DD	0bH
	DD	FLAT:__unwindfunclet$?InitMasterData@CTabCodeSearchFO@@QAEHXZ$18
	DD	0bH
	DD	FLAT:__unwindfunclet$?InitMasterData@CTabCodeSearchFO@@QAEHXZ$20
	DD	0bH
	DD	FLAT:__unwindfunclet$?InitMasterData@CTabCodeSearchFO@@QAEHXZ$22
xdata$x	ENDS
;	COMDAT xdata$x
xdata$x	SEGMENT
__unwindtable$?GetInsertGridDataText@CTabCodeSearchFO@@QAE?AV?$CStringT@DV?$StrTraitMFC_DLL@DV?$ChTraitsCRT@D@ATL@@@@@ATL@@HH@Z DD 0ffffffffH
	DD	FLAT:__unwindfunclet$?GetInsertGridDataText@CTabCodeSearchFO@@QAE?AV?$CStringT@DV?$StrTraitMFC_DLL@DV?$ChTraitsCRT@D@ATL@@@@@ATL@@HH@Z$1
__ehfuncinfo$?GetInsertGridDataText@CTabCodeSearchFO@@QAE?AV?$CStringT@DV?$StrTraitMFC_DLL@DV?$ChTraitsCRT@D@ATL@@@@@ATL@@HH@Z DD 019930522H
	DD	01H
	DD	FLAT:__unwindtable$?GetInsertGridDataText@CTabCodeSearchFO@@QAE?AV?$CStringT@DV?$StrTraitMFC_DLL@DV?$ChTraitsCRT@D@ATL@@@@@ATL@@HH@Z
	DD	2 DUP(00H)
	DD	2 DUP(00H)
	DD	00H
	DD	01H
xdata$x	ENDS
;	COMDAT xdata$x
xdata$x	SEGMENT
__ehfuncinfo$?InsertMasterData@CTabCodeSearchFO@@QAEXH@Z DD 019930522H
	DD	05H
	DD	FLAT:__unwindtable$?InsertMasterData@CTabCodeSearchFO@@QAEXH@Z
	DD	2 DUP(00H)
	DD	2 DUP(00H)
	DD	00H
	DD	01H
__unwindtable$?InsertMasterData@CTabCodeSearchFO@@QAEXH@Z DD 0ffffffffH
	DD	FLAT:__unwindfunclet$?InsertMasterData@CTabCodeSearchFO@@QAEXH@Z$0
	DD	00H
	DD	FLAT:__unwindfunclet$?InsertMasterData@CTabCodeSearchFO@@QAEXH@Z$1
	DD	01H
	DD	FLAT:__unwindfunclet$?InsertMasterData@CTabCodeSearchFO@@QAEXH@Z$2
	DD	02H
	DD	FLAT:__unwindfunclet$?InsertMasterData@CTabCodeSearchFO@@QAEXH@Z$3
	DD	03H
	DD	FLAT:__unwindfunclet$?InsertMasterData@CTabCodeSearchFO@@QAEXH@Z$4
xdata$x	ENDS
;	COMDAT xdata$x
xdata$x	SEGMENT
__unwindtable$?InsertGridData@CTabCodeSearchFO@@QAEXXZ DD 0ffffffffH
	DD	FLAT:__unwindfunclet$?InsertGridData@CTabCodeSearchFO@@QAEXXZ$0
	DD	00H
	DD	FLAT:__unwindfunclet$?InsertGridData@CTabCodeSearchFO@@QAEXXZ$4
	DD	00H
	DD	FLAT:__unwindfunclet$?InsertGridData@CTabCodeSearchFO@@QAEXXZ$1
__ehfuncinfo$?InsertGridData@CTabCodeSearchFO@@QAEXXZ DD 019930522H
	DD	03H
	DD	FLAT:__unwindtable$?InsertGridData@CTabCodeSearchFO@@QAEXXZ
	DD	2 DUP(00H)
	DD	2 DUP(00H)
	DD	00H
	DD	01H
xdata$x	ENDS
;	COMDAT xdata$x
xdata$x	SEGMENT
__catchsym$?InitGridRowCol@CTabCodeSearchFO@@QAEXXZ$2 DD 00H
	DD	FLAT:??_R0PAVCMemoryException@@@8
	DD	0ffffffecH
	DD	FLAT:__catch$?InitGridRowCol@CTabCodeSearchFO@@QAEXXZ$0
__unwindtable$?InitGridRowCol@CTabCodeSearchFO@@QAEXXZ DD 0ffffffffH
	DD	00H
	DD	0ffffffffH
	DD	00H
__tryblocktable$?InitGridRowCol@CTabCodeSearchFO@@QAEXXZ DD 00H
	DD	00H
	DD	01H
	DD	01H
	DD	FLAT:__catchsym$?InitGridRowCol@CTabCodeSearchFO@@QAEXXZ$2
__ehfuncinfo$?InitGridRowCol@CTabCodeSearchFO@@QAEXXZ DD 019930522H
	DD	02H
	DD	FLAT:__unwindtable$?InitGridRowCol@CTabCodeSearchFO@@QAEXXZ
	DD	01H
	DD	FLAT:__tryblocktable$?InitGridRowCol@CTabCodeSearchFO@@QAEXXZ
	DD	2 DUP(00H)
	DD	00H
	DD	01H
xdata$x	ENDS
;	COMDAT xdata$x
xdata$x	SEGMENT
__unwindtable$?InitGrid@CTabCodeSearchFO@@QAEXXZ DD 0ffffffffH
	DD	FLAT:__unwindfunclet$?InitGrid@CTabCodeSearchFO@@QAEXXZ$0
	DD	00H
	DD	FLAT:__unwindfunclet$?InitGrid@CTabCodeSearchFO@@QAEXXZ$1
__ehfuncinfo$?InitGrid@CTabCodeSearchFO@@QAEXXZ DD 019930522H
	DD	02H
	DD	FLAT:__unwindtable$?InitGrid@CTabCodeSearchFO@@QAEXXZ
	DD	2 DUP(00H)
	DD	2 DUP(00H)
	DD	00H
	DD	01H
xdata$x	ENDS
;	COMDAT xdata$x
xdata$x	SEGMENT
__ehfuncinfo$?WindowProc@CTabCodeSearchFO@@MAEJIIJ@Z DD 019930522H
	DD	0bH
	DD	FLAT:__unwindtable$?WindowProc@CTabCodeSearchFO@@MAEJIIJ@Z
	DD	2 DUP(00H)
	DD	2 DUP(00H)
	DD	00H
	DD	01H
__unwindtable$?WindowProc@CTabCodeSearchFO@@MAEJIIJ@Z DD 0ffffffffH
	DD	FLAT:__unwindfunclet$?WindowProc@CTabCodeSearchFO@@MAEJIIJ@Z$0
	DD	00H
	DD	FLAT:__unwindfunclet$?WindowProc@CTabCodeSearchFO@@MAEJIIJ@Z$1
	DD	01H
	DD	FLAT:__unwindfunclet$?WindowProc@CTabCodeSearchFO@@MAEJIIJ@Z$2
	DD	02H
	DD	FLAT:__unwindfunclet$?WindowProc@CTabCodeSearchFO@@MAEJIIJ@Z$3
	DD	02H
	DD	FLAT:__unwindfunclet$?WindowProc@CTabCodeSearchFO@@MAEJIIJ@Z$4
	DD	02H
	DD	FLAT:__unwindfunclet$?WindowProc@CTabCodeSearchFO@@MAEJIIJ@Z$5
	DD	02H
	DD	FLAT:__unwindfunclet$?WindowProc@CTabCodeSearchFO@@MAEJIIJ@Z$6
	DD	02H
	DD	FLAT:__unwindfunclet$?WindowProc@CTabCodeSearchFO@@MAEJIIJ@Z$7
	DD	02H
	DD	FLAT:__unwindfunclet$?WindowProc@CTabCodeSearchFO@@MAEJIIJ@Z$8
	DD	02H
	DD	FLAT:__unwindfunclet$?WindowProc@CTabCodeSearchFO@@MAEJIIJ@Z$9
	DD	09H
	DD	FLAT:__unwindfunclet$?WindowProc@CTabCodeSearchFO@@MAEJIIJ@Z$10
xdata$x	ENDS
;	COMDAT xdata$x
xdata$x	SEGMENT
__unwindtable$??_G?$CList@U_codeinfo@@AAU1@@@UAEPAXI@Z DD 0ffffffffH
	DD	FLAT:___std_terminate
__ehfuncinfo$??_G?$CList@U_codeinfo@@AAU1@@@UAEPAXI@Z DD 019930522H
	DD	01H
	DD	FLAT:__unwindtable$??_G?$CList@U_codeinfo@@AAU1@@@UAEPAXI@Z
	DD	2 DUP(00H)
	DD	2 DUP(00H)
	DD	00H
	DD	05H
xdata$x	ENDS
;	COMDAT xdata$x
xdata$x	SEGMENT
__ehfuncinfo$??1?$CList@U_codeinfo@@AAU1@@@UAE@XZ DD 019930522H
	DD	00H
	DD	00H
	DD	2 DUP(00H)
	DD	2 DUP(00H)
	DD	00H
	DD	05H
xdata$x	ENDS
;	COMDAT xdata$x
xdata$x	SEGMENT
__ehfuncinfo$??0CTabCodeSearchFO@@QAE@PAVCWnd@@@Z DD 019930522H
	DD	0cH
	DD	FLAT:__unwindtable$??0CTabCodeSearchFO@@QAE@PAVCWnd@@@Z
	DD	2 DUP(00H)
	DD	2 DUP(00H)
	DD	00H
	DD	01H
__unwindtable$??0CTabCodeSearchFO@@QAE@PAVCWnd@@@Z DD 0ffffffffH
	DD	FLAT:__unwindfunclet$??0CTabCodeSearchFO@@QAE@PAVCWnd@@@Z$0
	DD	00H
	DD	FLAT:__unwindfunclet$??0CTabCodeSearchFO@@QAE@PAVCWnd@@@Z$1
	DD	01H
	DD	FLAT:__unwindfunclet$??0CTabCodeSearchFO@@QAE@PAVCWnd@@@Z$2
	DD	02H
	DD	FLAT:__unwindfunclet$??0CTabCodeSearchFO@@QAE@PAVCWnd@@@Z$3
	DD	03H
	DD	FLAT:__unwindfunclet$??0CTabCodeSearchFO@@QAE@PAVCWnd@@@Z$4
	DD	04H
	DD	FLAT:__unwindfunclet$??0CTabCodeSearchFO@@QAE@PAVCWnd@@@Z$5
	DD	05H
	DD	FLAT:__unwindfunclet$??0CTabCodeSearchFO@@QAE@PAVCWnd@@@Z$6
	DD	06H
	DD	FLAT:__unwindfunclet$??0CTabCodeSearchFO@@QAE@PAVCWnd@@@Z$7
	DD	07H
	DD	FLAT:__unwindfunclet$??0CTabCodeSearchFO@@QAE@PAVCWnd@@@Z$8
	DD	08H
	DD	FLAT:__unwindfunclet$??0CTabCodeSearchFO@@QAE@PAVCWnd@@@Z$9
	DD	09H
	DD	FLAT:__unwindfunclet$??0CTabCodeSearchFO@@QAE@PAVCWnd@@@Z$10
	DD	0aH
	DD	FLAT:__unwindfunclet$??0CTabCodeSearchFO@@QAE@PAVCWnd@@@Z$11
xdata$x	ENDS
;	COMDAT xdata$x
xdata$x	SEGMENT
__unwindtable$?AfxGetPctrData@@YGJH@Z DD 0ffffffffH
	DD	FLAT:__unwindfunclet$?AfxGetPctrData@@YGJH@Z$0
__ehfuncinfo$?AfxGetPctrData@@YGJH@Z DD 019930522H
	DD	01H
	DD	FLAT:__unwindtable$?AfxGetPctrData@@YGJH@Z
	DD	2 DUP(00H)
	DD	2 DUP(00H)
	DD	00H
	DD	01H
xdata$x	ENDS
CRT$XCU	SEGMENT
?RMSG_GETSIGNAL_REAL$initializer$@@3P6AXXZA DD FLAT:??__ERMSG_GETSIGNAL_REAL@@YAXXZ ; RMSG_GETSIGNAL_REAL$initializer$
CRT$XCU	ENDS
CRT$XCU	SEGMENT
?RMSG_CHARTMAIN$initializer$@@3P6AXXZA DD FLAT:??__ERMSG_CHARTMAIN@@YAXXZ ; RMSG_CHARTMAIN$initializer$
CRT$XCU	ENDS
CRT$XCU	SEGMENT
?RMS_ANALYSIS_FUNC$initializer$@@3P6AXXZA DD FLAT:??__ERMS_ANALYSIS_FUNC@@YAXXZ ; RMS_ANALYSIS_FUNC$initializer$
CRT$XCU	ENDS
CRT$XCU	SEGMENT
?RMSG_GET_USERID$initializer$@@3P6AXXZA DD FLAT:??__ERMSG_GET_USERID@@YAXXZ ; RMSG_GET_USERID$initializer$
CRT$XCU	ENDS
CRT$XCU	SEGMENT
?RMSG_KSDLLINFO$initializer$@@3P6AXXZA DD FLAT:??__ERMSG_KSDLLINFO@@YAXXZ ; RMSG_KSDLLINFO$initializer$
CRT$XCU	ENDS
CRT$XCU	SEGMENT
?RMSG_GETINFO$initializer$@@3P6AXXZA DD FLAT:??__ERMSG_GETINFO@@YAXXZ ; RMSG_GETINFO$initializer$
CRT$XCU	ENDS
CRT$XCU	SEGMENT
?RMSG_CHANGE_SKINCOLOR$initializer$@@3P6AXXZA DD FLAT:??__ERMSG_CHANGE_SKINCOLOR@@YAXXZ ; RMSG_CHANGE_SKINCOLOR$initializer$
CRT$XCU	ENDS
CRT$XCU	SEGMENT
?RMSG_GET_SKINCOLOR$initializer$@@3P6AXXZA DD FLAT:??__ERMSG_GET_SKINCOLOR@@YAXXZ ; RMSG_GET_SKINCOLOR$initializer$
CRT$XCU	ENDS
CRT$XCU	SEGMENT
?RMSG_CHANGE_CROSSLINE$initializer$@@3P6AXXZA DD FLAT:??__ERMSG_CHANGE_CROSSLINE@@YAXXZ ; RMSG_CHANGE_CROSSLINE$initializer$
CRT$XCU	ENDS
CRT$XCU	SEGMENT
?RMSG_REPLAY_REAL$initializer$@@3P6AXXZA DD FLAT:??__ERMSG_REPLAY_REAL@@YAXXZ ; RMSG_REPLAY_REAL$initializer$
CRT$XCU	ENDS
CRT$XCU	SEGMENT
?RMSG_REPLAY_FAIL$initializer$@@3P6AXXZA DD FLAT:??__ERMSG_REPLAY_FAIL@@YAXXZ ; RMSG_REPLAY_FAIL$initializer$
CRT$XCU	ENDS
CRT$XCU	SEGMENT
?RMSG_REPLAY_CHANGE_DATE$initializer$@@3P6AXXZA DD FLAT:??__ERMSG_REPLAY_CHANGE_DATE@@YAXXZ ; RMSG_REPLAY_CHANGE_DATE$initializer$
CRT$XCU	ENDS
CRT$XCU	SEGMENT
?RMSG_REPLAY_END$initializer$@@3P6AXXZA DD FLAT:??__ERMSG_REPLAY_END@@YAXXZ ; RMSG_REPLAY_END$initializer$
CRT$XCU	ENDS
CRT$XCU	SEGMENT
?RMSG_REPLAY_INC_SEC$initializer$@@3P6AXXZA DD FLAT:??__ERMSG_REPLAY_INC_SEC@@YAXXZ ; RMSG_REPLAY_INC_SEC$initializer$
CRT$XCU	ENDS
CRT$XCU	SEGMENT
?RMSG_REPLAY_TOTAL_SEC$initializer$@@3P6AXXZA DD FLAT:??__ERMSG_REPLAY_TOTAL_SEC@@YAXXZ ; RMSG_REPLAY_TOTAL_SEC$initializer$
CRT$XCU	ENDS
CRT$XCU	SEGMENT
?RMSG_SELCHARTCODE$initializer$@@3P6AXXZA DD FLAT:??__ERMSG_SELCHARTCODE@@YAXXZ ; RMSG_SELCHARTCODE$initializer$
CRT$XCU	ENDS
; Function compile flags: /Ogtp
; File C:\Program Files (x86)\Microsoft Visual Studio\2019\Community\VC\Tools\MSVC\14.29.30133\atlmfc\include\afxtempl.h
; File C:\Program Files (x86)\Microsoft Visual Studio\2019\Community\VC\Tools\MSVC\14.29.30133\atlmfc\include\afx.inl
; File C:\Program Files (x86)\Microsoft Visual Studio\2019\Community\VC\Tools\MSVC\14.29.30133\atlmfc\include\afxtempl.h
; File C:\Program Files (x86)\Microsoft Visual Studio\2019\Community\VC\Tools\MSVC\14.29.30133\atlmfc\include\afx.inl
; File C:\Program Files (x86)\Microsoft Visual Studio\2019\Community\VC\Tools\MSVC\14.29.30133\atlmfc\include\afxtempl.h
; File C:\Program Files (x86)\Microsoft Visual Studio\2019\Community\VC\Tools\MSVC\14.29.30133\atlmfc\include\afx.inl
; File C:\Program Files (x86)\Microsoft Visual Studio\2019\Community\VC\Tools\MSVC\14.29.30133\atlmfc\include\afxtempl.h
;	COMDAT ??$SerializeElements@U_codeinfo@@@@YGXAAVCArchive@@PAU_codeinfo@@H@Z
_TEXT	SEGMENT
_ar$ = 8						; size = 4
_pElements$ = 12					; size = 4
_nCount$ = 16						; size = 4
??$SerializeElements@U_codeinfo@@@@YGXAAVCArchive@@PAU_codeinfo@@H@Z PROC ; SerializeElements<_codeinfo>, COMDAT

; 67   : {

  00000	55		 push	 ebp
  00001	8b ec		 mov	 ebp, esp

; 68   : 	ENSURE(nCount == 0 || pElements != NULL);

  00003	8b 4d 0c	 mov	 ecx, DWORD PTR _pElements$[ebp]
  00006	53		 push	 ebx
  00007	56		 push	 esi
  00008	8b 75 10	 mov	 esi, DWORD PTR _nCount$[ebp]
  0000b	57		 push	 edi
  0000c	85 f6		 test	 esi, esi
  0000e	74 04		 je	 SHORT $LN2@SerializeE
  00010	85 c9		 test	 ecx, ecx
  00012	74 79		 je	 SHORT $LN34@SerializeE
$LN2@SerializeE:
; File C:\Program Files (x86)\Microsoft Visual Studio\2019\Community\VC\Tools\MSVC\14.29.30133\atlmfc\include\afx.inl

; 212  : 	{ return (m_nMode & CArchive::load) == 0; }

  00014	8b 55 08	 mov	 edx, DWORD PTR _ar$[ebp]
  00017	8b 42 18	 mov	 eax, DWORD PTR [edx+24]
  0001a	f7 d0		 not	 eax
  0001c	a8 01		 test	 al, 1
; File C:\Program Files (x86)\Microsoft Visual Studio\2019\Community\VC\Tools\MSVC\14.29.30133\atlmfc\include\afxtempl.h

; 73   : 	if (ar.IsStoring())

  0001e	74 30		 je	 SHORT $LN10@SerializeE

; 74   : 	{
; 75   : 		TYPE* pData;
; 76   : 		UINT_PTR nElementsLeft;
; 77   : 
; 78   : 		nElementsLeft = nCount;
; 79   : 		pData = pElements;
; 80   : 		while( nElementsLeft > 0 )

  00020	85 f6		 test	 esi, esi
  00022	74 25		 je	 SHORT $LN8@SerializeE
$LL5@SerializeE:

; 81   : 		{
; 82   : 			UINT nElementsToWrite;
; 83   : 
; 84   : 			nElementsToWrite = UINT(__min(nElementsLeft, INT_MAX/sizeof(TYPE)));

  00024	bb 14 ae 47 01	 mov	 ebx, 21474836		; 0147ae14H
  00029	3b f3		 cmp	 esi, ebx
  0002b	0f 42 de	 cmovb	 ebx, esi

; 85   : 			ar.Write(pData, nElementsToWrite*sizeof(TYPE));

  0002e	6b fb 64	 imul	 edi, ebx, 100
  00031	57		 push	 edi
  00032	51		 push	 ecx
  00033	8b ca		 mov	 ecx, edx
  00035	e8 00 00 00 00	 call	 ?Write@CArchive@@QAEXPBXI@Z ; CArchive::Write

; 86   : 			nElementsLeft -= nElementsToWrite;
; 87   : 			pData += nElementsToWrite;

  0003a	8b 4d 0c	 mov	 ecx, DWORD PTR _pElements$[ebp]
  0003d	8b 55 08	 mov	 edx, DWORD PTR _ar$[ebp]
  00040	03 cf		 add	 ecx, edi
  00042	89 4d 0c	 mov	 DWORD PTR _pElements$[ebp], ecx
  00045	2b f3		 sub	 esi, ebx
  00047	75 db		 jne	 SHORT $LL5@SerializeE
$LN8@SerializeE:
  00049	5f		 pop	 edi

; 105  : 		}
; 106  : 	}
; 107  : }

  0004a	5e		 pop	 esi
  0004b	5b		 pop	 ebx
  0004c	5d		 pop	 ebp
  0004d	c2 0c 00	 ret	 12			; 0000000cH
$LN10@SerializeE:

; 97   : 		while( nElementsLeft > 0 )

  00050	85 f6		 test	 esi, esi
  00052	74 f5		 je	 SHORT $LN8@SerializeE
$LL7@SerializeE:

; 98   : 		{
; 99   : 			UINT nElementsToRead;
; 100  : 
; 101  : 			nElementsToRead = UINT(__min(nElementsLeft, INT_MAX/sizeof(TYPE)));

  00054	bf 14 ae 47 01	 mov	 edi, 21474836		; 0147ae14H
  00059	3b f7		 cmp	 esi, edi
  0005b	0f 42 fe	 cmovb	 edi, esi

; 102  : 			ar.EnsureRead(pData, nElementsToRead*sizeof(TYPE));

  0005e	6b df 64	 imul	 ebx, edi, 100
; File C:\Program Files (x86)\Microsoft Visual Studio\2019\Community\VC\Tools\MSVC\14.29.30133\atlmfc\include\afx.inl

; 399  : 	UINT nRead=Read(lpBuf, nCount);

  00061	53		 push	 ebx
  00062	51		 push	 ecx
  00063	8b ca		 mov	 ecx, edx
  00065	e8 00 00 00 00	 call	 ?Read@CArchive@@QAEIPAXI@Z ; CArchive::Read

; 400  : 	if(nRead!=nCount)

  0006a	3b c3		 cmp	 eax, ebx
  0006c	75 16		 jne	 SHORT $LN23@SerializeE
; File C:\Program Files (x86)\Microsoft Visual Studio\2019\Community\VC\Tools\MSVC\14.29.30133\atlmfc\include\afxtempl.h

; 97   : 		while( nElementsLeft > 0 )

  0006e	8b 4d 0c	 mov	 ecx, DWORD PTR _pElements$[ebp]
  00071	8b 55 08	 mov	 edx, DWORD PTR _ar$[ebp]

; 103  : 			nElementsLeft -= nElementsToRead;
; 104  : 			pData += nElementsToRead;

  00074	03 cb		 add	 ecx, ebx
  00076	89 4d 0c	 mov	 DWORD PTR _pElements$[ebp], ecx
  00079	2b f7		 sub	 esi, edi
  0007b	75 d7		 jne	 SHORT $LL7@SerializeE

; 105  : 		}
; 106  : 	}
; 107  : }

  0007d	5f		 pop	 edi
  0007e	5e		 pop	 esi
  0007f	5b		 pop	 ebx
  00080	5d		 pop	 ebp
  00081	c2 0c 00	 ret	 12			; 0000000cH
$LN23@SerializeE:
; File C:\Program Files (x86)\Microsoft Visual Studio\2019\Community\VC\Tools\MSVC\14.29.30133\atlmfc\include\afx.inl

; 402  : 		AfxThrowArchiveException(CArchiveException::endOfFile);

  00084	6a 00		 push	 0
  00086	6a 03		 push	 3
  00088	e8 00 00 00 00	 call	 ?AfxThrowArchiveException@@YGXHPBD@Z ; AfxThrowArchiveException
$LN34@SerializeE:
; File C:\Program Files (x86)\Microsoft Visual Studio\2019\Community\VC\Tools\MSVC\14.29.30133\atlmfc\include\afxtempl.h

; 68   : 	ENSURE(nCount == 0 || pElements != NULL);

  0008d	e8 00 00 00 00	 call	 ?AfxThrowInvalidArgException@@YGXXZ ; AfxThrowInvalidArgException
$LN32@SerializeE:
  00092	cc		 int	 3
??$SerializeElements@U_codeinfo@@@@YGXAAVCArchive@@PAU_codeinfo@@H@Z ENDP ; SerializeElements<_codeinfo>
_TEXT	ENDS
; Function compile flags: /Ogtp
; File D:\git\src\IBK\IBK_DRFN\ProjSrc\SrcDrfn\Chart\comparechart\TabCodeSearchFO.cpp
;	COMDAT ?SortFileName@@YAXAAVCStringArray@@@Z
_TEXT	SEGMENT
_arrStr$ = 8						; size = 4
?SortFileName@@YAXAAVCStringArray@@@Z PROC		; SortFileName, COMDAT

; 418  : {

  00000	55		 push	 ebp
  00001	8b ec		 mov	 ebp, esp

; 419  :     qsort(arrStr.GetData(), arrStr.GetSize(), sizeof(CString*), CompareFileName);

  00003	8b 45 08	 mov	 eax, DWORD PTR _arrStr$[ebp]
  00006	68 00 00 00 00	 push	 OFFSET ?CompareFileName@@YAHPBX0@Z ; CompareFileName
  0000b	6a 04		 push	 4
  0000d	ff 70 08	 push	 DWORD PTR [eax+8]
  00010	ff 70 04	 push	 DWORD PTR [eax+4]
  00013	ff 15 00 00 00
	00		 call	 DWORD PTR __imp__qsort
  00019	83 c4 10	 add	 esp, 16			; 00000010H

; 420  : } 

  0001c	5d		 pop	 ebp
  0001d	c3		 ret	 0
?SortFileName@@YAXAAVCStringArray@@@Z ENDP		; SortFileName
_TEXT	ENDS
; Function compile flags: /Ogtp
; File D:\git\src\IBK\IBK_DRFN\ProjSrc\SrcDrfn\Chart\comparechart\TabCodeSearchFO.cpp
; File C:\Program Files (x86)\Windows Kits\10\Include\10.0.22000.0\ucrt\tchar.h
; File D:\git\src\IBK\IBK_DRFN\ProjSrc\SrcDrfn\Chart\comparechart\TabCodeSearchFO.cpp
; File C:\Program Files (x86)\Windows Kits\10\Include\10.0.22000.0\ucrt\tchar.h
; File D:\git\src\IBK\IBK_DRFN\ProjSrc\SrcDrfn\Chart\comparechart\TabCodeSearchFO.cpp
; File C:\Program Files (x86)\Windows Kits\10\Include\10.0.22000.0\ucrt\tchar.h
; File D:\git\src\IBK\IBK_DRFN\ProjSrc\SrcDrfn\Chart\comparechart\TabCodeSearchFO.cpp
; File C:\Program Files (x86)\Windows Kits\10\Include\10.0.22000.0\ucrt\tchar.h
; File D:\git\src\IBK\IBK_DRFN\ProjSrc\SrcDrfn\Chart\comparechart\TabCodeSearchFO.cpp
;	COMDAT ?CompareFileName@@YAHPBX0@Z
_TEXT	SEGMENT
tv415 = -16						; size = 4
tv416 = -12						; size = 4
_sz1$1$ = -8						; size = 4
_sz2$1$ = -4						; size = 4
_p1$ = 8						; size = 4
_p2$ = 12						; size = 4
?CompareFileName@@YAHPBX0@Z PROC			; CompareFileName, COMDAT

; 336  : {

  00000	55		 push	 ebp
  00001	8b ec		 mov	 ebp, esp
  00003	83 ec 10	 sub	 esp, 16			; 00000010H

; 337  :     TCHAR *sz1 = ((CString*)(p1))->GetBuffer(0);

  00006	8b 4d 08	 mov	 ecx, DWORD PTR _p1$[ebp]
  00009	53		 push	 ebx
  0000a	56		 push	 esi
  0000b	57		 push	 edi
  0000c	6a 00		 push	 0
  0000e	ff 15 00 00 00
	00		 call	 DWORD PTR __imp_?GetBuffer@?$CSimpleStringT@D$00@ATL@@QAEPADH@Z

; 338  :     TCHAR *sz2 = ((CString*)(p2))->GetBuffer(0);

  00014	8b 4d 0c	 mov	 ecx, DWORD PTR _p2$[ebp]
  00017	8b d8		 mov	 ebx, eax
  00019	6a 00		 push	 0
  0001b	89 5d f8	 mov	 DWORD PTR _sz1$1$[ebp], ebx
  0001e	ff 15 00 00 00
	00		 call	 DWORD PTR __imp_?GetBuffer@?$CSimpleStringT@D$00@ATL@@QAEPADH@Z

; 339  :     int nPos1 = -1;

  00024	83 ce ff	 or	 esi, -1
  00027	89 45 fc	 mov	 DWORD PTR _sz2$1$[ebp], eax

; 340  :     int nPos2 = -1;

  0002a	0b fe		 or	 edi, esi
  0002c	0f 1f 40 00	 npad	 4
$LL2@CompareFil:

; 341  :     int nEndPos1;
; 342  :     int nEndPos2;
; 343  :     int nResult;
; 344  :     while (1)
; 345  :     {
; 346  :         nPos1++;

  00030	46		 inc	 esi

; 347  :         nPos2++;

  00031	47		 inc	 edi

; 348  :         // Make sure we haven't hit the end of either of the strings
; 349  :         if (sz1[nPos1] == 0 && sz2[nPos2] == 0)

  00032	03 de		 add	 ebx, esi
  00034	8d 14 38	 lea	 edx, DWORD PTR [eax+edi]
  00037	8a 0b		 mov	 cl, BYTE PTR [ebx]
  00039	84 c9		 test	 cl, cl
  0003b	0f 84 cc 00 00
	00		 je	 $LN55@CompareFil

; 350  :             return 0;
; 351  :         if (sz1[nPos1] == 0)
; 352  :             return -1;
; 353  :         if (sz2[nPos2] == 0)

  00041	8a 02		 mov	 al, BYTE PTR [edx]
  00043	84 c0		 test	 al, al
  00045	0f 84 b6 00 00
	00		 je	 $LN25@CompareFil

; 354  :             return 1;
; 355  :         // See if this part of both strings is a number
; 356  :         if (sz1[nPos1] >= _T('0') && sz1[nPos1] <= _T('9') &&
; 357  :             sz2[nPos2] >= _T('0') && sz2[nPos2] <= _T('9'))

  0004b	80 e9 30	 sub	 cl, 48			; 00000030H
  0004e	80 f9 09	 cmp	 cl, 9
  00051	0f 87 8e 00 00
	00		 ja	 $LN15@CompareFil
  00057	2c 30		 sub	 al, 48			; 00000030H
  00059	3c 09		 cmp	 al, 9
  0005b	0f 87 84 00 00
	00		 ja	 $LN15@CompareFil

; 358  :         {
; 359  :             // Find the end of each number
; 360  :             nEndPos1 = nPos1;

  00061	8b 5d f8	 mov	 ebx, DWORD PTR _sz1$1$[ebp]
  00064	8b ce		 mov	 ecx, esi
$LL6@CompareFil:

; 361  :             do
; 362  :             {
; 363  :                 nEndPos1++;
; 364  :             } while (sz1[nEndPos1] >= _T('0') && sz1[nEndPos1] <= _T('9'));

  00066	8a 44 19 01	 mov	 al, BYTE PTR [ecx+ebx+1]
  0006a	89 4d f4	 mov	 DWORD PTR tv416[ebp], ecx
  0006d	41		 inc	 ecx
  0006e	3c 30		 cmp	 al, 48			; 00000030H
  00070	7c 04		 jl	 SHORT $LN17@CompareFil
  00072	3c 39		 cmp	 al, 57			; 00000039H
  00074	7e f0		 jle	 SHORT $LL6@CompareFil
$LN17@CompareFil:
  00076	8b 5d fc	 mov	 ebx, DWORD PTR _sz2$1$[ebp]

; 365  :             nEndPos2 = nPos2;

  00079	8b c7		 mov	 eax, edi
  0007b	0f 1f 44 00 00	 npad	 5
$LL9@CompareFil:

; 366  :             do
; 367  :             {
; 368  :                 nEndPos2++;
; 369  :             } while (sz2[nEndPos2] >= _T('0') && sz2[nEndPos2] <= _T('9'));

  00080	8a 54 18 01	 mov	 dl, BYTE PTR [eax+ebx+1]
  00084	89 45 f0	 mov	 DWORD PTR tv415[ebp], eax
  00087	40		 inc	 eax
  00088	80 fa 30	 cmp	 dl, 48			; 00000030H
  0008b	7c 05		 jl	 SHORT $LN18@CompareFil
  0008d	80 fa 39	 cmp	 dl, 57			; 00000039H
  00090	7e ee		 jle	 SHORT $LL9@CompareFil
$LN18@CompareFil:

; 370  :             while (true)
; 371  :             {
; 372  :                 if (nEndPos1 - nPos1 == nEndPos2 - nPos2)

  00092	8b 5d f8	 mov	 ebx, DWORD PTR _sz1$1$[ebp]
  00095	8b d1		 mov	 edx, ecx
  00097	2b c7		 sub	 eax, edi
  00099	2b d6		 sub	 edx, esi
  0009b	3b d0		 cmp	 edx, eax
  0009d	74 1e		 je	 SHORT $LN40@CompareFil
$LN56@CompareFil:

; 380  :                         break;
; 381  :                     }
; 382  :                     else
; 383  :                     {
; 384  :                         return nResult;
; 385  :                     }
; 386  :                 }
; 387  :                 else if (nEndPos1 - nPos1 > nEndPos2 - nPos2)

  0009f	7e 0a		 jle	 SHORT $LN23@CompareFil

; 388  :                 {
; 389  :                     // First number is longer, so if it's not zero padded, it's bigger
; 390  :                     if (sz1[nPos1] == _T('0'))

  000a1	80 3c 1e 30	 cmp	 BYTE PTR [esi+ebx], 48	; 00000030H
  000a5	75 5a		 jne	 SHORT $LN25@CompareFil

; 391  :                         nPos1 ++;

  000a7	46		 inc	 esi
  000a8	4a		 dec	 edx

; 392  :                     else
; 393  :                         return 1;
; 394  :                 }

  000a9	eb 0e		 jmp	 SHORT $LN28@CompareFil
$LN23@CompareFil:

; 395  :                 else
; 396  :                 {
; 397  :                     // Second number is longer, so if it's not zero padded, it's bigger
; 398  :                     if (sz2[nPos2] == _T('0'))

  000ab	8b 5d fc	 mov	 ebx, DWORD PTR _sz2$1$[ebp]
  000ae	80 3c 1f 30	 cmp	 BYTE PTR [edi+ebx], 48	; 00000030H
  000b2	8b 5d f8	 mov	 ebx, DWORD PTR _sz1$1$[ebp]
  000b5	75 64		 jne	 SHORT $LN27@CompareFil

; 399  :                         nPos2 ++;

  000b7	47		 inc	 edi
  000b8	48		 dec	 eax
$LN28@CompareFil:

; 370  :             while (true)
; 371  :             {
; 372  :                 if (nEndPos1 - nPos1 == nEndPos2 - nPos2)

  000b9	3b d0		 cmp	 edx, eax
  000bb	75 e2		 jne	 SHORT $LN56@CompareFil
$LN40@CompareFil:

; 375  :                     nResult = _tcsnicmp(sz1 + nPos1, sz2 + nPos2, nEndPos1 - nPos1);

  000bd	8b 45 fc	 mov	 eax, DWORD PTR _sz2$1$[ebp]
  000c0	2b ce		 sub	 ecx, esi
; File C:\Program Files (x86)\Windows Kits\10\Include\10.0.22000.0\ucrt\tchar.h

; 1657 :     return _mbsnbicmp((const unsigned char *)_String1,(const unsigned char *)_String2,_Char_count);

  000c2	51		 push	 ecx
; File D:\git\src\IBK\IBK_DRFN\ProjSrc\SrcDrfn\Chart\comparechart\TabCodeSearchFO.cpp

; 375  :                     nResult = _tcsnicmp(sz1 + nPos1, sz2 + nPos2, nEndPos1 - nPos1);

  000c3	03 c7		 add	 eax, edi
; File C:\Program Files (x86)\Windows Kits\10\Include\10.0.22000.0\ucrt\tchar.h

; 1657 :     return _mbsnbicmp((const unsigned char *)_String1,(const unsigned char *)_String2,_Char_count);

  000c5	50		 push	 eax
; File D:\git\src\IBK\IBK_DRFN\ProjSrc\SrcDrfn\Chart\comparechart\TabCodeSearchFO.cpp

; 375  :                     nResult = _tcsnicmp(sz1 + nPos1, sz2 + nPos2, nEndPos1 - nPos1);

  000c6	8d 04 1e	 lea	 eax, DWORD PTR [esi+ebx]
; File C:\Program Files (x86)\Windows Kits\10\Include\10.0.22000.0\ucrt\tchar.h

; 1657 :     return _mbsnbicmp((const unsigned char *)_String1,(const unsigned char *)_String2,_Char_count);

  000c9	50		 push	 eax
  000ca	ff 15 00 00 00
	00		 call	 DWORD PTR __imp___mbsnbicmp
  000d0	83 c4 0c	 add	 esp, 12			; 0000000cH
; File D:\git\src\IBK\IBK_DRFN\ProjSrc\SrcDrfn\Chart\comparechart\TabCodeSearchFO.cpp

; 376  :                     if (nResult == 0)

  000d3	85 c0		 test	 eax, eax
  000d5	75 47		 jne	 SHORT $LN3@CompareFil

; 377  :                     {
; 378  :                         nPos1 = nEndPos1 - 1;

  000d7	8b 75 f4	 mov	 esi, DWORD PTR tv416[ebp]

; 379  :                         nPos2 = nEndPos2 - 1;

  000da	8b 7d f0	 mov	 edi, DWORD PTR tv415[ebp]

; 402  :                 }
; 403  :             }
; 404  :         }

  000dd	8b 45 fc	 mov	 eax, DWORD PTR _sz2$1$[ebp]
  000e0	e9 4b ff ff ff	 jmp	 $LL2@CompareFil
$LN15@CompareFil:
; File C:\Program Files (x86)\Windows Kits\10\Include\10.0.22000.0\ucrt\tchar.h

; 1657 :     return _mbsnbicmp((const unsigned char *)_String1,(const unsigned char *)_String2,_Char_count);

  000e5	6a 01		 push	 1
  000e7	52		 push	 edx
  000e8	53		 push	 ebx
  000e9	ff 15 00 00 00
	00		 call	 DWORD PTR __imp___mbsnbicmp
  000ef	83 c4 0c	 add	 esp, 12			; 0000000cH
; File D:\git\src\IBK\IBK_DRFN\ProjSrc\SrcDrfn\Chart\comparechart\TabCodeSearchFO.cpp

; 409  :             if (nResult != 0)

  000f2	85 c0		 test	 eax, eax
  000f4	75 28		 jne	 SHORT $LN3@CompareFil

; 410  :             {
; 411  :                 return nResult;
; 412  :             }
; 413  :         }
; 414  :     }

  000f6	8b 5d f8	 mov	 ebx, DWORD PTR _sz1$1$[ebp]
  000f9	8b 45 fc	 mov	 eax, DWORD PTR _sz2$1$[ebp]
  000fc	e9 2f ff ff ff	 jmp	 $LL2@CompareFil
$LN25@CompareFil:
  00101	5f		 pop	 edi

; 415  : }

  00102	5e		 pop	 esi
  00103	b8 01 00 00 00	 mov	 eax, 1
  00108	5b		 pop	 ebx
  00109	8b e5		 mov	 esp, ebp
  0010b	5d		 pop	 ebp
  0010c	c3		 ret	 0
$LN55@CompareFil:

; 348  :         // Make sure we haven't hit the end of either of the strings
; 349  :         if (sz1[nPos1] == 0 && sz2[nPos2] == 0)

  0010d	80 3a 00	 cmp	 BYTE PTR [edx], 0
  00110	75 09		 jne	 SHORT $LN27@CompareFil

; 415  : }

  00112	5f		 pop	 edi
  00113	5e		 pop	 esi
  00114	33 c0		 xor	 eax, eax
  00116	5b		 pop	 ebx
  00117	8b e5		 mov	 esp, ebp
  00119	5d		 pop	 ebp
  0011a	c3		 ret	 0
$LN27@CompareFil:

; 400  :                     else
; 401  :                         return -1;

  0011b	83 c8 ff	 or	 eax, -1
$LN3@CompareFil:
  0011e	5f		 pop	 edi

; 415  : }

  0011f	5e		 pop	 esi
  00120	5b		 pop	 ebx
  00121	8b e5		 mov	 esp, ebp
  00123	5d		 pop	 ebp
  00124	c3		 ret	 0
?CompareFileName@@YAHPBX0@Z ENDP			; CompareFileName
_TEXT	ENDS
; Function compile flags: /Ogtp
; File D:\git\src\IBK\IBK_DRFN\ProjSrc\SrcDrfn\Chart\comparechart\StdDialog.h
;	COMDAT ??__ERMSG_SELCHARTCODE@@YAXXZ
text$di	SEGMENT
??__ERMSG_SELCHARTCODE@@YAXXZ PROC			; `dynamic initializer for 'RMSG_SELCHARTCODE'', COMDAT

; 73   : const UINT RMSG_SELCHARTCODE = ::RegisterWindowMessage( "RMSG_SELCHARTCODE" );

  00000	68 00 00 00 00	 push	 OFFSET ??_C@_0BC@LHNMEPFM@RMSG_SELCHARTCODE@
  00005	ff 15 00 00 00
	00		 call	 DWORD PTR __imp__RegisterWindowMessageA@4
  0000b	a3 00 00 00 00	 mov	 DWORD PTR ?RMSG_SELCHARTCODE@@3IB, eax
  00010	c3		 ret	 0
??__ERMSG_SELCHARTCODE@@YAXXZ ENDP			; `dynamic initializer for 'RMSG_SELCHARTCODE''
text$di	ENDS
; Function compile flags: /Ogtp
; File D:\git\src\IBK\IBK_DRFN\ProjSrc\SrcDrfn\Chart\chart_common\ReplayChartInfoDef.h
;	COMDAT ??__ERMSG_REPLAY_TOTAL_SEC@@YAXXZ
text$di	SEGMENT
??__ERMSG_REPLAY_TOTAL_SEC@@YAXXZ PROC			; `dynamic initializer for 'RMSG_REPLAY_TOTAL_SEC'', COMDAT

; 97   : 	const UINT RMSG_REPLAY_TOTAL_SEC = ::RegisterWindowMessage(_T("RMSG_REPLAY_TOTAL_SEC"));		//  () 

  00000	68 00 00 00 00	 push	 OFFSET ??_C@_0BG@GIAJEIJF@RMSG_REPLAY_TOTAL_SEC@
  00005	ff 15 00 00 00
	00		 call	 DWORD PTR __imp__RegisterWindowMessageA@4
  0000b	a3 00 00 00 00	 mov	 DWORD PTR ?RMSG_REPLAY_TOTAL_SEC@@3IB, eax
  00010	c3		 ret	 0
??__ERMSG_REPLAY_TOTAL_SEC@@YAXXZ ENDP			; `dynamic initializer for 'RMSG_REPLAY_TOTAL_SEC''
text$di	ENDS
; Function compile flags: /Ogtp
; File D:\git\src\IBK\IBK_DRFN\ProjSrc\SrcDrfn\Chart\chart_common\ReplayChartInfoDef.h
;	COMDAT ??__ERMSG_REPLAY_INC_SEC@@YAXXZ
text$di	SEGMENT
??__ERMSG_REPLAY_INC_SEC@@YAXXZ PROC			; `dynamic initializer for 'RMSG_REPLAY_INC_SEC'', COMDAT

; 96   : 	const UINT RMSG_REPLAY_INC_SEC = ::RegisterWindowMessage(_T("RMSG_REPLAY_INC_SEC"));			// 1   

  00000	68 00 00 00 00	 push	 OFFSET ??_C@_0BE@JFCIMCIP@RMSG_REPLAY_INC_SEC@
  00005	ff 15 00 00 00
	00		 call	 DWORD PTR __imp__RegisterWindowMessageA@4
  0000b	a3 00 00 00 00	 mov	 DWORD PTR ?RMSG_REPLAY_INC_SEC@@3IB, eax
  00010	c3		 ret	 0
??__ERMSG_REPLAY_INC_SEC@@YAXXZ ENDP			; `dynamic initializer for 'RMSG_REPLAY_INC_SEC''
text$di	ENDS
; Function compile flags: /Ogtp
; File D:\git\src\IBK\IBK_DRFN\ProjSrc\SrcDrfn\Chart\chart_common\ReplayChartInfoDef.h
;	COMDAT ??__ERMSG_REPLAY_END@@YAXXZ
text$di	SEGMENT
??__ERMSG_REPLAY_END@@YAXXZ PROC			; `dynamic initializer for 'RMSG_REPLAY_END'', COMDAT

; 95   : 	const UINT RMSG_REPLAY_END			= ::RegisterWindowMessage(_T("RMSG_REPLAY_END"));

  00000	68 00 00 00 00	 push	 OFFSET ??_C@_0BA@NKHHCPON@RMSG_REPLAY_END@
  00005	ff 15 00 00 00
	00		 call	 DWORD PTR __imp__RegisterWindowMessageA@4
  0000b	a3 00 00 00 00	 mov	 DWORD PTR ?RMSG_REPLAY_END@@3IB, eax
  00010	c3		 ret	 0
??__ERMSG_REPLAY_END@@YAXXZ ENDP			; `dynamic initializer for 'RMSG_REPLAY_END''
text$di	ENDS
; Function compile flags: /Ogtp
; File D:\git\src\IBK\IBK_DRFN\ProjSrc\SrcDrfn\Chart\chart_common\ReplayChartInfoDef.h
;	COMDAT ??__ERMSG_REPLAY_CHANGE_DATE@@YAXXZ
text$di	SEGMENT
??__ERMSG_REPLAY_CHANGE_DATE@@YAXXZ PROC		; `dynamic initializer for 'RMSG_REPLAY_CHANGE_DATE'', COMDAT

; 94   : 	const UINT RMSG_REPLAY_CHANGE_DATE	= ::RegisterWindowMessage(_T("RMSG_REPLAY_CHANGE_DATE"));

  00000	68 00 00 00 00	 push	 OFFSET ??_C@_0BI@KDGAIIMD@RMSG_REPLAY_CHANGE_DATE@
  00005	ff 15 00 00 00
	00		 call	 DWORD PTR __imp__RegisterWindowMessageA@4
  0000b	a3 00 00 00 00	 mov	 DWORD PTR ?RMSG_REPLAY_CHANGE_DATE@@3IB, eax
  00010	c3		 ret	 0
??__ERMSG_REPLAY_CHANGE_DATE@@YAXXZ ENDP		; `dynamic initializer for 'RMSG_REPLAY_CHANGE_DATE''
text$di	ENDS
; Function compile flags: /Ogtp
; File D:\git\src\IBK\IBK_DRFN\ProjSrc\SrcDrfn\Chart\chart_common\ReplayChartInfoDef.h
;	COMDAT ??__ERMSG_REPLAY_FAIL@@YAXXZ
text$di	SEGMENT
??__ERMSG_REPLAY_FAIL@@YAXXZ PROC			; `dynamic initializer for 'RMSG_REPLAY_FAIL'', COMDAT

; 93   : 	const UINT RMSG_REPLAY_FAIL			= ::RegisterWindowMessage(_T("RMSG_REPLAY_FAIL"));

  00000	68 00 00 00 00	 push	 OFFSET ??_C@_0BB@JFLGBADG@RMSG_REPLAY_FAIL@
  00005	ff 15 00 00 00
	00		 call	 DWORD PTR __imp__RegisterWindowMessageA@4
  0000b	a3 00 00 00 00	 mov	 DWORD PTR ?RMSG_REPLAY_FAIL@@3IB, eax
  00010	c3		 ret	 0
??__ERMSG_REPLAY_FAIL@@YAXXZ ENDP			; `dynamic initializer for 'RMSG_REPLAY_FAIL''
text$di	ENDS
; Function compile flags: /Ogtp
; File D:\git\src\IBK\IBK_DRFN\ProjSrc\SrcDrfn\Chart\chart_common\ReplayChartInfoDef.h
;	COMDAT ??__ERMSG_REPLAY_REAL@@YAXXZ
text$di	SEGMENT
??__ERMSG_REPLAY_REAL@@YAXXZ PROC			; `dynamic initializer for 'RMSG_REPLAY_REAL'', COMDAT

; 92   : 	const UINT RMSG_REPLAY_REAL			= ::RegisterWindowMessage(_T("RMSG_REPLAY_REAL"));

  00000	68 00 00 00 00	 push	 OFFSET ??_C@_0BB@IBKHOHJL@RMSG_REPLAY_REAL@
  00005	ff 15 00 00 00
	00		 call	 DWORD PTR __imp__RegisterWindowMessageA@4
  0000b	a3 00 00 00 00	 mov	 DWORD PTR ?RMSG_REPLAY_REAL@@3IB, eax
  00010	c3		 ret	 0
??__ERMSG_REPLAY_REAL@@YAXXZ ENDP			; `dynamic initializer for 'RMSG_REPLAY_REAL''
text$di	ENDS
; Function compile flags: /Ogtp
; File C:\Program Files (x86)\Microsoft Visual Studio\2019\Community\VC\Tools\MSVC\14.29.30133\atlmfc\include\afxtempl.h
; File C:\Program Files (x86)\Microsoft Visual Studio\2019\Community\VC\Tools\MSVC\14.29.30133\atlmfc\include\afx.inl
;	COMDAT ??_GCTabCodeSearchFO@@UAEPAXI@Z
_TEXT	SEGMENT
__$EHRec$ = -12						; size = 12
___flags$ = 8						; size = 4
??_GCTabCodeSearchFO@@UAEPAXI@Z PROC			; CTabCodeSearchFO::`scalar deleting destructor', COMDAT
; _this$ = ecx
  00000	55		 push	 ebp
  00001	8b ec		 mov	 ebp, esp
  00003	6a ff		 push	 -1
  00005	68 00 00 00 00	 push	 __ehhandler$??_GCTabCodeSearchFO@@UAEPAXI@Z
  0000a	64 a1 00 00 00
	00		 mov	 eax, DWORD PTR fs:0
  00010	50		 push	 eax
  00011	56		 push	 esi
  00012	a1 00 00 00 00	 mov	 eax, DWORD PTR ___security_cookie
  00017	33 c5		 xor	 eax, ebp
  00019	50		 push	 eax
  0001a	8d 45 f4	 lea	 eax, DWORD PTR __$EHRec$[ebp]
  0001d	64 a3 00 00 00
	00		 mov	 DWORD PTR fs:0, eax
  00023	8b f1		 mov	 esi, ecx
  00025	8d 8e e8 04 00
	00		 lea	 ecx, DWORD PTR [esi+1256]
  0002b	c7 45 fc 00 00
	00 00		 mov	 DWORD PTR __$EHRec$[ebp+8], 0
  00032	ff 15 00 00 00
	00		 call	 DWORD PTR __imp_??1?$CStringT@DV?$StrTraitMFC_DLL@DV?$ChTraitsCRT@D@ATL@@@@@ATL@@QAE@XZ
  00038	8d 8e e4 04 00
	00		 lea	 ecx, DWORD PTR [esi+1252]
  0003e	ff 15 00 00 00
	00		 call	 DWORD PTR __imp_??1?$CStringT@DV?$StrTraitMFC_DLL@DV?$ChTraitsCRT@D@ATL@@@@@ATL@@QAE@XZ
  00044	8d 8e e0 04 00
	00		 lea	 ecx, DWORD PTR [esi+1248]
  0004a	ff 15 00 00 00
	00		 call	 DWORD PTR __imp_??1?$CStringT@DV?$StrTraitMFC_DLL@DV?$ChTraitsCRT@D@ATL@@@@@ATL@@QAE@XZ
  00050	ff 35 00 00 00
	00		 push	 DWORD PTR __imp_??1?$CStringT@DV?$StrTraitMFC_DLL@DV?$ChTraitsCRT@D@ATL@@@@@ATL@@QAE@XZ
  00056	8d 86 64 04 00
	00		 lea	 eax, DWORD PTR [esi+1124]
  0005c	6a 0c		 push	 12			; 0000000cH
  0005e	6a 04		 push	 4
  00060	50		 push	 eax
  00061	e8 00 00 00 00	 call	 ??_M@YGXPAXIIP6EX0@Z@Z
; File C:\Program Files (x86)\Microsoft Visual Studio\2019\Community\VC\Tools\MSVC\14.29.30133\atlmfc\include\afxtempl.h

; 872  : 	m_pBlocks->FreeDataChain();

  00066	8b 8e f8 03 00
	00		 mov	 ecx, DWORD PTR [esi+1016]

; 878  : {

  0006c	c6 45 fc 01	 mov	 BYTE PTR __$EHRec$[ebp+8], 1
  00070	c7 86 e4 03 00
	00 00 00 00 00	 mov	 DWORD PTR [esi+996], OFFSET ??_7?$CList@U_codeinfo@@AAU1@@@6B@

; 870  : 	m_nCount = 0;

  0007a	c7 86 f0 03 00
	00 00 00 00 00	 mov	 DWORD PTR [esi+1008], 0

; 871  : 	m_pNodeHead = m_pNodeTail = m_pNodeFree = NULL;

  00084	c7 86 f4 03 00
	00 00 00 00 00	 mov	 DWORD PTR [esi+1012], 0
  0008e	c7 86 ec 03 00
	00 00 00 00 00	 mov	 DWORD PTR [esi+1004], 0
  00098	c7 86 e8 03 00
	00 00 00 00 00	 mov	 DWORD PTR [esi+1000], 0

; 872  : 	m_pBlocks->FreeDataChain();

  000a2	e8 00 00 00 00	 call	 ?FreeDataChain@CPlex@@QAEXXZ ; CPlex::FreeDataChain
  000a7	8d 8e 60 03 00
	00		 lea	 ecx, DWORD PTR [esi+864]

; 873  : 	m_pBlocks = NULL;

  000ad	c7 86 f8 03 00
	00 00 00 00 00	 mov	 DWORD PTR [esi+1016], 0
  000b7	e8 00 00 00 00	 call	 ??1CButton@@UAE@XZ	; CButton::~CButton
  000bc	8d 8e e0 02 00
	00		 lea	 ecx, DWORD PTR [esi+736]
  000c2	e8 00 00 00 00	 call	 ??1CButton@@UAE@XZ	; CButton::~CButton
  000c7	8d 8e 60 02 00
	00		 lea	 ecx, DWORD PTR [esi+608]
  000cd	e8 00 00 00 00	 call	 ??1CButton@@UAE@XZ	; CButton::~CButton
  000d2	8d 8e e0 01 00
	00		 lea	 ecx, DWORD PTR [esi+480]
  000d8	e8 00 00 00 00	 call	 ??1CListBox@@UAE@XZ	; CListBox::~CListBox
  000dd	8d 8e 58 01 00
	00		 lea	 ecx, DWORD PTR [esi+344]
  000e3	e8 00 00 00 00	 call	 ??1CExComboBox@@UAE@XZ	; CExComboBox::~CExComboBox
  000e8	8d 8e d0 00 00
	00		 lea	 ecx, DWORD PTR [esi+208]
  000ee	e8 00 00 00 00	 call	 ??1CExComboBox@@UAE@XZ	; CExComboBox::~CExComboBox
  000f3	8b ce		 mov	 ecx, esi
  000f5	e8 00 00 00 00	 call	 ??1CTabDlg@@UAE@XZ	; CTabDlg::~CTabDlg
  000fa	8b 45 08	 mov	 eax, DWORD PTR ___flags$[ebp]
  000fd	a8 01		 test	 al, 1
  000ff	74 2f		 je	 SHORT $LN25@scalar
  00101	a8 04		 test	 al, 4
  00103	75 1d		 jne	 SHORT $LN3@scalar
; File C:\Program Files (x86)\Microsoft Visual Studio\2019\Community\VC\Tools\MSVC\14.29.30133\atlmfc\include\afx.inl

; 112  : 	{ ::operator delete(p); }

  00105	56		 push	 esi
  00106	e8 00 00 00 00	 call	 ??3@YAXPAX@Z		; operator delete
  0010b	83 c4 04	 add	 esp, 4
  0010e	8b c6		 mov	 eax, esi
  00110	8b 4d f4	 mov	 ecx, DWORD PTR __$EHRec$[ebp]
  00113	64 89 0d 00 00
	00 00		 mov	 DWORD PTR fs:0, ecx
  0011a	59		 pop	 ecx
  0011b	5e		 pop	 esi
  0011c	8b e5		 mov	 esp, ebp
  0011e	5d		 pop	 ebp
  0011f	c2 04 00	 ret	 4
$LN3@scalar:
  00122	68 f8 04 00 00	 push	 1272			; 000004f8H
  00127	56		 push	 esi
  00128	e8 00 00 00 00	 call	 ?__global_delete@@YAXPAXI@Z ; __global_delete
  0012d	83 c4 08	 add	 esp, 8
$LN25@scalar:
  00130	8b c6		 mov	 eax, esi
  00132	8b 4d f4	 mov	 ecx, DWORD PTR __$EHRec$[ebp]
  00135	64 89 0d 00 00
	00 00		 mov	 DWORD PTR fs:0, ecx
  0013c	59		 pop	 ecx
  0013d	5e		 pop	 esi
  0013e	8b e5		 mov	 esp, ebp
  00140	5d		 pop	 ebp
  00141	c2 04 00	 ret	 4
  00144	cc		 int	 3
  00145	cc		 int	 3
  00146	cc		 int	 3
  00147	cc		 int	 3
  00148	cc		 int	 3
_TEXT	ENDS
;	COMDAT text$x
text$x	SEGMENT
__ehhandler$??_GCTabCodeSearchFO@@UAEPAXI@Z:
  00000	90		 npad	 1
  00001	90		 npad	 1
  00002	8b 54 24 08	 mov	 edx, DWORD PTR [esp+8]
  00006	8d 42 0c	 lea	 eax, DWORD PTR [edx+12]
  00009	8b 4a f8	 mov	 ecx, DWORD PTR [edx-8]
  0000c	33 c8		 xor	 ecx, eax
  0000e	e8 00 00 00 00	 call	 @__security_check_cookie@4
  00013	b8 00 00 00 00	 mov	 eax, OFFSET __ehfuncinfo$??_GCTabCodeSearchFO@@UAEPAXI@Z
  00018	e9 00 00 00 00	 jmp	 ___CxxFrameHandler3
text$x	ENDS
??_GCTabCodeSearchFO@@UAEPAXI@Z ENDP			; CTabCodeSearchFO::`scalar deleting destructor'
; Function compile flags: /Ogtp
; File D:\git\src\IBK\IBK_DRFN\ProjSrc\SrcDrfn\Chart\comparechart\TabCodeSearchFO.cpp
;	COMDAT ?GetMessageMap@CTabCodeSearchFO@@MBEPBUAFX_MSGMAP@@XZ
_TEXT	SEGMENT
?GetMessageMap@CTabCodeSearchFO@@MBEPBUAFX_MSGMAP@@XZ PROC ; CTabCodeSearchFO::GetMessageMap, COMDAT
; _this$ = ecx

; 56   : BEGIN_MESSAGE_MAP(CTabCodeSearchFO, CDialog)

  00000	b8 00 00 00 00	 mov	 eax, OFFSET ?messageMap@?1??GetThisMessageMap@CTabCodeSearchFO@@KGPBUAFX_MSGMAP@@XZ@4U3@B
  00005	c3		 ret	 0
?GetMessageMap@CTabCodeSearchFO@@MBEPBUAFX_MSGMAP@@XZ ENDP ; CTabCodeSearchFO::GetMessageMap
_TEXT	ENDS
; Function compile flags: /Ogtp
; File D:\git\src\IBK\IBK_DRFN\ProjSrc\SrcDrfn\Chart\comparechart\TabCodeSearchFO.cpp
;	COMDAT ?GetThisMessageMap@CTabCodeSearchFO@@KGPBUAFX_MSGMAP@@XZ
_TEXT	SEGMENT
?GetThisMessageMap@CTabCodeSearchFO@@KGPBUAFX_MSGMAP@@XZ PROC ; CTabCodeSearchFO::GetThisMessageMap, COMDAT

; 57   : 	//{{AFX_MSG_MAP(CTabCodeSearchFO)
; 58   : 	ON_WM_SIZE()
; 59   : 	ON_WM_DESTROY()
; 60   : 	ON_CBN_SELCHANGE(IDC_COMBO_FO, OnSelchangeComboFO)
; 61   : 	ON_CBN_EDITCHANGE(IDC_COMBO_MONTH, OnEditchangeComboMonth)
; 62   : 	ON_CBN_SELCHANGE(IDC_COMBO_MONTH, OnSelchangeComboMonth)
; 63   : 	ON_WM_CTLCOLOR()
; 64   : 	ON_LBN_SELCHANGE(IDC_LIST_FUTURE, OnSelchangeListFuture)
; 65   : 	ON_LBN_DBLCLK(IDC_LIST_FUTURE, OnDblclkListFuture)
; 66   : 	ON_BN_CLICKED(IDC_RADIO_KOSPI200, OnClickRadioKospi200)
; 67   : 	ON_BN_CLICKED(IDC_RADIO_MINIKOSPI, OnClickRadioMiniKospi)
; 68   : 	ON_BN_CLICKED(IDC_RADIO_WEEKLYKOSPI, OnClickRadioWeeklyKospi)
; 69   : 	//}}AFX_MSG_MAP
; 70   : END_MESSAGE_MAP()

  00000	b8 00 00 00 00	 mov	 eax, OFFSET ?messageMap@?1??GetThisMessageMap@CTabCodeSearchFO@@KGPBUAFX_MSGMAP@@XZ@4U3@B
  00005	c3		 ret	 0
?GetThisMessageMap@CTabCodeSearchFO@@KGPBUAFX_MSGMAP@@XZ ENDP ; CTabCodeSearchFO::GetThisMessageMap
_TEXT	ENDS
; Function compile flags: /Ogtp
; File D:\git\src\IBK\IBK_DRFN\ProjSrc\SrcDrfn\Chart\comparechart\TabCodeSearchFO.cpp
; File C:\Program Files (x86)\Microsoft Visual Studio\2019\Community\VC\Tools\MSVC\14.29.30133\atlmfc\include\afxwin2.inl
; File D:\git\src\IBK\IBK_DRFN\ProjSrc\SrcDrfn\Chart\comparechart\TabCodeSearchFO.cpp
;	COMDAT ?OnClickRadioWeeklyKospi@CTabCodeSearchFO@@IAEXXZ
_TEXT	SEGMENT
?OnClickRadioWeeklyKospi@CTabCodeSearchFO@@IAEXXZ PROC	; CTabCodeSearchFO::OnClickRadioWeeklyKospi, COMDAT
; _this$ = ecx

; 1051 : {

  00000	56		 push	 esi
  00001	8b f1		 mov	 esi, ecx

; 1052 : 	m_nRadioSel = 2;

  00003	c7 86 ec 04 00
	00 02 00 00 00	 mov	 DWORD PTR [esi+1260], 2

; 1053 : 	InitMasterData();

  0000d	e8 00 00 00 00	 call	 ?InitMasterData@CTabCodeSearchFO@@QAEHXZ ; CTabCodeSearchFO::InitMasterData
; File C:\Program Files (x86)\Microsoft Visual Studio\2019\Community\VC\Tools\MSVC\14.29.30133\atlmfc\include\afxwin2.inl

; 765  : 	{ ASSERT(::IsWindow(m_hWnd)); return (int)::SendMessage(m_hWnd, CB_GETCURSEL, 0, 0); }

  00012	6a 00		 push	 0
  00014	6a 00		 push	 0
  00016	68 47 01 00 00	 push	 327			; 00000147H
  0001b	ff b6 78 01 00
	00		 push	 DWORD PTR [esi+376]
  00021	ff 15 00 00 00
	00		 call	 DWORD PTR __imp__SendMessageA@16
; File D:\git\src\IBK\IBK_DRFN\ProjSrc\SrcDrfn\Chart\comparechart\TabCodeSearchFO.cpp

; 757  : 	m_nIndex = m_ctrlComboMonth.GetCurSel() +1;

  00027	40		 inc	 eax

; 758  : 	InsertGridData();

  00028	8b ce		 mov	 ecx, esi
  0002a	89 86 d4 04 00
	00		 mov	 DWORD PTR [esi+1236], eax
  00030	e8 00 00 00 00	 call	 ?InsertGridData@CTabCodeSearchFO@@QAEXXZ ; CTabCodeSearchFO::InsertGridData

; 759  : 	InsertMasterData(m_nIndex);

  00035	ff b6 d4 04 00
	00		 push	 DWORD PTR [esi+1236]
  0003b	8b ce		 mov	 ecx, esi
  0003d	e8 00 00 00 00	 call	 ?InsertMasterData@CTabCodeSearchFO@@QAEXH@Z ; CTabCodeSearchFO::InsertMasterData
  00042	5e		 pop	 esi

; 1054 : 	OnSelchangeComboMonth();
; 1055 : }

  00043	c3		 ret	 0
?OnClickRadioWeeklyKospi@CTabCodeSearchFO@@IAEXXZ ENDP	; CTabCodeSearchFO::OnClickRadioWeeklyKospi
_TEXT	ENDS
; Function compile flags: /Ogtp
; File D:\git\src\IBK\IBK_DRFN\ProjSrc\SrcDrfn\Chart\comparechart\TabCodeSearchFO.cpp
; File C:\Program Files (x86)\Microsoft Visual Studio\2019\Community\VC\Tools\MSVC\14.29.30133\atlmfc\include\afxwin2.inl
; File D:\git\src\IBK\IBK_DRFN\ProjSrc\SrcDrfn\Chart\comparechart\TabCodeSearchFO.cpp
;	COMDAT ?OnClickRadioMiniKospi@CTabCodeSearchFO@@IAEXXZ
_TEXT	SEGMENT
?OnClickRadioMiniKospi@CTabCodeSearchFO@@IAEXXZ PROC	; CTabCodeSearchFO::OnClickRadioMiniKospi, COMDAT
; _this$ = ecx

; 1044 : {

  00000	56		 push	 esi
  00001	8b f1		 mov	 esi, ecx

; 1045 : 	m_nRadioSel = 0;

  00003	c7 86 ec 04 00
	00 00 00 00 00	 mov	 DWORD PTR [esi+1260], 0

; 1046 : 	InitMasterData();

  0000d	e8 00 00 00 00	 call	 ?InitMasterData@CTabCodeSearchFO@@QAEHXZ ; CTabCodeSearchFO::InitMasterData
; File C:\Program Files (x86)\Microsoft Visual Studio\2019\Community\VC\Tools\MSVC\14.29.30133\atlmfc\include\afxwin2.inl

; 765  : 	{ ASSERT(::IsWindow(m_hWnd)); return (int)::SendMessage(m_hWnd, CB_GETCURSEL, 0, 0); }

  00012	6a 00		 push	 0
  00014	6a 00		 push	 0
  00016	68 47 01 00 00	 push	 327			; 00000147H
  0001b	ff b6 78 01 00
	00		 push	 DWORD PTR [esi+376]
  00021	ff 15 00 00 00
	00		 call	 DWORD PTR __imp__SendMessageA@16
; File D:\git\src\IBK\IBK_DRFN\ProjSrc\SrcDrfn\Chart\comparechart\TabCodeSearchFO.cpp

; 757  : 	m_nIndex = m_ctrlComboMonth.GetCurSel() +1;

  00027	40		 inc	 eax

; 758  : 	InsertGridData();

  00028	8b ce		 mov	 ecx, esi
  0002a	89 86 d4 04 00
	00		 mov	 DWORD PTR [esi+1236], eax
  00030	e8 00 00 00 00	 call	 ?InsertGridData@CTabCodeSearchFO@@QAEXXZ ; CTabCodeSearchFO::InsertGridData

; 759  : 	InsertMasterData(m_nIndex);

  00035	ff b6 d4 04 00
	00		 push	 DWORD PTR [esi+1236]
  0003b	8b ce		 mov	 ecx, esi
  0003d	e8 00 00 00 00	 call	 ?InsertMasterData@CTabCodeSearchFO@@QAEXH@Z ; CTabCodeSearchFO::InsertMasterData
  00042	5e		 pop	 esi

; 1047 : 	OnSelchangeComboMonth();
; 1048 : }

  00043	c3		 ret	 0
?OnClickRadioMiniKospi@CTabCodeSearchFO@@IAEXXZ ENDP	; CTabCodeSearchFO::OnClickRadioMiniKospi
_TEXT	ENDS
; Function compile flags: /Ogtp
; File D:\git\src\IBK\IBK_DRFN\ProjSrc\SrcDrfn\Chart\comparechart\TabCodeSearchFO.cpp
; File C:\Program Files (x86)\Microsoft Visual Studio\2019\Community\VC\Tools\MSVC\14.29.30133\atlmfc\include\afxwin2.inl
; File D:\git\src\IBK\IBK_DRFN\ProjSrc\SrcDrfn\Chart\comparechart\TabCodeSearchFO.cpp
;	COMDAT ?OnClickRadioKospi200@CTabCodeSearchFO@@IAEXXZ
_TEXT	SEGMENT
?OnClickRadioKospi200@CTabCodeSearchFO@@IAEXXZ PROC	; CTabCodeSearchFO::OnClickRadioKospi200, COMDAT
; _this$ = ecx

; 1037 : {

  00000	56		 push	 esi
  00001	8b f1		 mov	 esi, ecx

; 1038 : 	m_nRadioSel = 1;

  00003	c7 86 ec 04 00
	00 01 00 00 00	 mov	 DWORD PTR [esi+1260], 1

; 1039 : 	InitMasterData();

  0000d	e8 00 00 00 00	 call	 ?InitMasterData@CTabCodeSearchFO@@QAEHXZ ; CTabCodeSearchFO::InitMasterData
; File C:\Program Files (x86)\Microsoft Visual Studio\2019\Community\VC\Tools\MSVC\14.29.30133\atlmfc\include\afxwin2.inl

; 765  : 	{ ASSERT(::IsWindow(m_hWnd)); return (int)::SendMessage(m_hWnd, CB_GETCURSEL, 0, 0); }

  00012	6a 00		 push	 0
  00014	6a 00		 push	 0
  00016	68 47 01 00 00	 push	 327			; 00000147H
  0001b	ff b6 78 01 00
	00		 push	 DWORD PTR [esi+376]
  00021	ff 15 00 00 00
	00		 call	 DWORD PTR __imp__SendMessageA@16
; File D:\git\src\IBK\IBK_DRFN\ProjSrc\SrcDrfn\Chart\comparechart\TabCodeSearchFO.cpp

; 757  : 	m_nIndex = m_ctrlComboMonth.GetCurSel() +1;

  00027	40		 inc	 eax

; 758  : 	InsertGridData();

  00028	8b ce		 mov	 ecx, esi
  0002a	89 86 d4 04 00
	00		 mov	 DWORD PTR [esi+1236], eax
  00030	e8 00 00 00 00	 call	 ?InsertGridData@CTabCodeSearchFO@@QAEXXZ ; CTabCodeSearchFO::InsertGridData

; 759  : 	InsertMasterData(m_nIndex);

  00035	ff b6 d4 04 00
	00		 push	 DWORD PTR [esi+1236]
  0003b	8b ce		 mov	 ecx, esi
  0003d	e8 00 00 00 00	 call	 ?InsertMasterData@CTabCodeSearchFO@@QAEXH@Z ; CTabCodeSearchFO::InsertMasterData
  00042	5e		 pop	 esi

; 1040 : 	OnSelchangeComboMonth();
; 1041 : }

  00043	c3		 ret	 0
?OnClickRadioKospi200@CTabCodeSearchFO@@IAEXXZ ENDP	; CTabCodeSearchFO::OnClickRadioKospi200
_TEXT	ENDS
; Function compile flags: /Ogtp
; File D:\git\src\IBK\IBK_DRFN\ProjSrc\SrcDrfn\Chart\comparechart\TabCodeSearchFO.cpp
; File C:\Program Files (x86)\Microsoft Visual Studio\2019\Community\VC\Tools\MSVC\14.29.30133\atlmfc\include\afxwin2.inl
; File D:\git\src\IBK\IBK_DRFN\ProjSrc\SrcDrfn\Chart\comparechart\TabCodeSearchFO.cpp
; File C:\Program Files (x86)\Microsoft Visual Studio\2019\Community\VC\Tools\MSVC\14.29.30133\atlmfc\include\afxwin2.inl
; File C:\Program Files (x86)\Microsoft Visual Studio\2019\Community\VC\Tools\MSVC\14.29.30133\atlmfc\include\afx.inl
; File D:\git\src\IBK\IBK_DRFN\ProjSrc\SrcDrfn\Chart\comparechart\TabCodeSearchFO.cpp
; File C:\Program Files (x86)\Microsoft Visual Studio\2019\Community\VC\Tools\MSVC\14.29.30133\atlmfc\include\afx.inl
; File D:\git\src\IBK\IBK_DRFN\ProjSrc\SrcDrfn\Chart\comparechart\TabCodeSearchFO.cpp
; File C:\Program Files (x86)\Microsoft Visual Studio\2019\Community\VC\Tools\MSVC\14.29.30133\atlmfc\include\afx.inl
; File D:\git\src\IBK\IBK_DRFN\ProjSrc\SrcDrfn\Chart\comparechart\TabCodeSearchFO.cpp
; File C:\Program Files (x86)\Microsoft Visual Studio\2019\Community\VC\Tools\MSVC\14.29.30133\atlmfc\include\afx.inl
; File D:\git\src\IBK\IBK_DRFN\ProjSrc\SrcDrfn\Chart\comparechart\TabCodeSearchFO.cpp
; File C:\Program Files (x86)\Microsoft Visual Studio\2019\Community\VC\Tools\MSVC\14.29.30133\atlmfc\include\afx.inl
; File D:\git\src\IBK\IBK_DRFN\ProjSrc\SrcDrfn\Chart\comparechart\TabCodeSearchFO.cpp
; File C:\Program Files (x86)\Microsoft Visual Studio\2019\Community\VC\Tools\MSVC\14.29.30133\atlmfc\include\afx.inl
; File D:\git\src\IBK\IBK_DRFN\ProjSrc\SrcDrfn\Chart\comparechart\TabCodeSearchFO.cpp
; File C:\Program Files (x86)\Microsoft Visual Studio\2019\Community\VC\Tools\MSVC\14.29.30133\atlmfc\include\afxcoll.inl
; File D:\git\src\IBK\IBK_DRFN\ProjSrc\SrcDrfn\Chart\comparechart\TabCodeSearchFO.cpp
; File C:\Program Files (x86)\Microsoft Visual Studio\2019\Community\VC\Tools\MSVC\14.29.30133\atlmfc\include\afxcoll.inl
; File D:\git\src\IBK\IBK_DRFN\ProjSrc\SrcDrfn\Chart\comparechart\TabCodeSearchFO.cpp
; File C:\Program Files (x86)\Microsoft Visual Studio\2019\Community\VC\Tools\MSVC\14.29.30133\atlmfc\include\afxcoll.inl
; File D:\git\src\IBK\IBK_DRFN\ProjSrc\SrcDrfn\Chart\comparechart\TabCodeSearchFO.cpp
; File C:\Program Files (x86)\Microsoft Visual Studio\2019\Community\VC\Tools\MSVC\14.29.30133\atlmfc\include\atlsimpstr.h
; File D:\git\src\IBK\IBK_DRFN\ProjSrc\SrcDrfn\Chart\comparechart\TabCodeSearchFO.cpp
; File C:\Program Files (x86)\Microsoft Visual Studio\2019\Community\VC\Tools\MSVC\14.29.30133\atlmfc\include\atlsimpstr.h
; File D:\git\src\IBK\IBK_DRFN\ProjSrc\SrcDrfn\Chart\comparechart\TabCodeSearchFO.cpp
; File C:\Program Files (x86)\Microsoft Visual Studio\2019\Community\VC\Tools\MSVC\14.29.30133\atlmfc\include\afxwin2.inl
; File D:\git\src\IBK\IBK_DRFN\ProjSrc\SrcDrfn\Chart\comparechart\TabCodeSearchFO.cpp
; File C:\Program Files (x86)\Microsoft Visual Studio\2019\Community\VC\Tools\MSVC\14.29.30133\atlmfc\include\afxcoll.inl
; File D:\git\src\IBK\IBK_DRFN\ProjSrc\SrcDrfn\Chart\comparechart\TabCodeSearchFO.cpp
;	COMDAT ?OnDblclkListFuture@CTabCodeSearchFO@@IAEXXZ
_TEXT	SEGMENT
__ctlState$2 = -52					; size = 8
_strNameSelected$ = -44					; size = 4
_strCode$3 = -40					; size = 4
$T4 = -40						; size = 4
$T5 = -40						; size = 4
$T6 = -40						; size = 4
_strData$7 = -36					; size = 4
_pastrJongEngName$ = -32				; size = 4
_strCodeSelected$ = -28					; size = 4
_pastrJongName$ = -24					; size = 4
_pastrJongCode$ = -20					; size = 4
_strName$8 = -16					; size = 4
__$EHRec$ = -12						; size = 12
?OnDblclkListFuture@CTabCodeSearchFO@@IAEXXZ PROC	; CTabCodeSearchFO::OnDblclkListFuture, COMDAT
; _this$ = ecx

; 989  : {

  00000	55		 push	 ebp
  00001	8b ec		 mov	 ebp, esp
  00003	6a ff		 push	 -1
  00005	68 00 00 00 00	 push	 __ehhandler$?OnDblclkListFuture@CTabCodeSearchFO@@IAEXXZ
  0000a	64 a1 00 00 00
	00		 mov	 eax, DWORD PTR fs:0
  00010	50		 push	 eax
  00011	83 ec 28	 sub	 esp, 40			; 00000028H
  00014	53		 push	 ebx
  00015	56		 push	 esi
  00016	57		 push	 edi
  00017	a1 00 00 00 00	 mov	 eax, DWORD PTR ___security_cookie
  0001c	33 c5		 xor	 eax, ebp
  0001e	50		 push	 eax
  0001f	8d 45 f4	 lea	 eax, DWORD PTR __$EHRec$[ebp]
  00022	64 a3 00 00 00
	00		 mov	 DWORD PTR fs:0, eax
  00028	8b d9		 mov	 ebx, ecx

; 990  : 	// TODO: Add your control notification handler code here
; 991  : 		CString strCodeSelected;

  0002a	8d 4d e4	 lea	 ecx, DWORD PTR _strCodeSelected$[ebp]
  0002d	ff 15 00 00 00
	00		 call	 DWORD PTR __imp_??0?$CStringT@DV?$StrTraitMFC_DLL@DV?$ChTraitsCRT@D@ATL@@@@@ATL@@QAE@XZ

; 992  : 		CString strNameSelected;

  00033	8d 4d d4	 lea	 ecx, DWORD PTR _strNameSelected$[ebp]
  00036	c7 45 fc 00 00
	00 00		 mov	 DWORD PTR __$EHRec$[ebp+8], 0
  0003d	ff 15 00 00 00
	00		 call	 DWORD PTR __imp_??0?$CStringT@DV?$StrTraitMFC_DLL@DV?$ChTraitsCRT@D@ATL@@@@@ATL@@QAE@XZ
; File C:\Program Files (x86)\Microsoft Visual Studio\2019\Community\VC\Tools\MSVC\14.29.30133\atlmfc\include\afxwin2.inl

; 666  : 	{ ASSERT(::IsWindow(m_hWnd)); return (int)::SendMessage(m_hWnd, LB_GETCURSEL, 0, 0); }

  00043	6a 00		 push	 0
  00045	6a 00		 push	 0
  00047	68 88 01 00 00	 push	 392			; 00000188H
  0004c	ff b3 00 02 00
	00		 push	 DWORD PTR [ebx+512]
; File D:\git\src\IBK\IBK_DRFN\ProjSrc\SrcDrfn\Chart\comparechart\TabCodeSearchFO.cpp

; 992  : 		CString strNameSelected;

  00052	c6 45 fc 01	 mov	 BYTE PTR __$EHRec$[ebp+8], 1
; File C:\Program Files (x86)\Microsoft Visual Studio\2019\Community\VC\Tools\MSVC\14.29.30133\atlmfc\include\afxwin2.inl

; 666  : 	{ ASSERT(::IsWindow(m_hWnd)); return (int)::SendMessage(m_hWnd, LB_GETCURSEL, 0, 0); }

  00056	ff 15 00 00 00
	00		 call	 DWORD PTR __imp__SendMessageA@16
; File C:\Program Files (x86)\Microsoft Visual Studio\2019\Community\VC\Tools\MSVC\14.29.30133\atlmfc\include\afx.inl

; 116  : 	{ return ::operator new(nSize); }

  0005c	6a 14		 push	 20			; 00000014H
; File D:\git\src\IBK\IBK_DRFN\ProjSrc\SrcDrfn\Chart\comparechart\TabCodeSearchFO.cpp

; 993  : 		int nSel = m_listFuture.GetCurSel();

  0005e	8b f0		 mov	 esi, eax
; File C:\Program Files (x86)\Microsoft Visual Studio\2019\Community\VC\Tools\MSVC\14.29.30133\atlmfc\include\afx.inl

; 116  : 	{ return ::operator new(nSize); }

  00060	e8 00 00 00 00	 call	 ??2@YAPAXI@Z		; operator new
  00065	83 c4 04	 add	 esp, 4
; File D:\git\src\IBK\IBK_DRFN\ProjSrc\SrcDrfn\Chart\comparechart\TabCodeSearchFO.cpp

; 999  : 		pastrJongCode = new CStringArray;

  00068	89 45 d8	 mov	 DWORD PTR $T6[ebp], eax
  0006b	c6 45 fc 02	 mov	 BYTE PTR __$EHRec$[ebp+8], 2
  0006f	85 c0		 test	 eax, eax
  00071	74 09		 je	 SHORT $LN7@OnDblclkLi
  00073	8b c8		 mov	 ecx, eax
  00075	e8 00 00 00 00	 call	 ??0CStringArray@@QAE@XZ	; CStringArray::CStringArray
  0007a	eb 02		 jmp	 SHORT $LN8@OnDblclkLi
$LN7@OnDblclkLi:
  0007c	33 c0		 xor	 eax, eax
$LN8@OnDblclkLi:
; File C:\Program Files (x86)\Microsoft Visual Studio\2019\Community\VC\Tools\MSVC\14.29.30133\atlmfc\include\afx.inl

; 116  : 	{ return ::operator new(nSize); }

  0007e	6a 14		 push	 20			; 00000014H
; File D:\git\src\IBK\IBK_DRFN\ProjSrc\SrcDrfn\Chart\comparechart\TabCodeSearchFO.cpp

; 999  : 		pastrJongCode = new CStringArray;

  00080	c6 45 fc 01	 mov	 BYTE PTR __$EHRec$[ebp+8], 1
  00084	89 45 ec	 mov	 DWORD PTR _pastrJongCode$[ebp], eax
; File C:\Program Files (x86)\Microsoft Visual Studio\2019\Community\VC\Tools\MSVC\14.29.30133\atlmfc\include\afx.inl

; 116  : 	{ return ::operator new(nSize); }

  00087	e8 00 00 00 00	 call	 ??2@YAPAXI@Z		; operator new
  0008c	83 c4 04	 add	 esp, 4
; File D:\git\src\IBK\IBK_DRFN\ProjSrc\SrcDrfn\Chart\comparechart\TabCodeSearchFO.cpp

; 1000 : 		pastrJongName = new CStringArray;

  0008f	89 45 d8	 mov	 DWORD PTR $T5[ebp], eax
  00092	c6 45 fc 03	 mov	 BYTE PTR __$EHRec$[ebp+8], 3
  00096	85 c0		 test	 eax, eax
  00098	74 09		 je	 SHORT $LN9@OnDblclkLi
  0009a	8b c8		 mov	 ecx, eax
  0009c	e8 00 00 00 00	 call	 ??0CStringArray@@QAE@XZ	; CStringArray::CStringArray
  000a1	eb 02		 jmp	 SHORT $LN10@OnDblclkLi
$LN9@OnDblclkLi:
  000a3	33 c0		 xor	 eax, eax
$LN10@OnDblclkLi:
; File C:\Program Files (x86)\Microsoft Visual Studio\2019\Community\VC\Tools\MSVC\14.29.30133\atlmfc\include\afx.inl

; 116  : 	{ return ::operator new(nSize); }

  000a5	6a 14		 push	 20			; 00000014H
; File D:\git\src\IBK\IBK_DRFN\ProjSrc\SrcDrfn\Chart\comparechart\TabCodeSearchFO.cpp

; 1000 : 		pastrJongName = new CStringArray;

  000a7	c6 45 fc 01	 mov	 BYTE PTR __$EHRec$[ebp+8], 1
  000ab	89 45 e8	 mov	 DWORD PTR _pastrJongName$[ebp], eax
; File C:\Program Files (x86)\Microsoft Visual Studio\2019\Community\VC\Tools\MSVC\14.29.30133\atlmfc\include\afx.inl

; 116  : 	{ return ::operator new(nSize); }

  000ae	e8 00 00 00 00	 call	 ??2@YAPAXI@Z		; operator new
  000b3	83 c4 04	 add	 esp, 4
; File D:\git\src\IBK\IBK_DRFN\ProjSrc\SrcDrfn\Chart\comparechart\TabCodeSearchFO.cpp

; 1001 : 		pastrJongEngName = new CStringArray;

  000b6	89 45 d8	 mov	 DWORD PTR $T4[ebp], eax
  000b9	c6 45 fc 04	 mov	 BYTE PTR __$EHRec$[ebp+8], 4
  000bd	85 c0		 test	 eax, eax
  000bf	74 09		 je	 SHORT $LN11@OnDblclkLi
  000c1	8b c8		 mov	 ecx, eax
  000c3	e8 00 00 00 00	 call	 ??0CStringArray@@QAE@XZ	; CStringArray::CStringArray
  000c8	eb 02		 jmp	 SHORT $LN12@OnDblclkLi
$LN11@OnDblclkLi:
  000ca	33 c0		 xor	 eax, eax
$LN12@OnDblclkLi:

; 1002 : 		if(m_nComboSel == 1)

  000cc	83 bb f0 04 00
	00 01		 cmp	 DWORD PTR [ebx+1264], 1
  000d3	8d 55 e0	 lea	 edx, DWORD PTR _pastrJongEngName$[ebp]
  000d6	52		 push	 edx
  000d7	8d 55 e8	 lea	 edx, DWORD PTR _pastrJongName$[ebp]
  000da	89 45 e0	 mov	 DWORD PTR _pastrJongEngName$[ebp], eax
  000dd	8b 83 dc 04 00
	00		 mov	 eax, DWORD PTR [ebx+1244]
  000e3	52		 push	 edx
  000e4	8d 55 ec	 lea	 edx, DWORD PTR _pastrJongCode$[ebp]
  000e7	c6 45 fc 01	 mov	 BYTE PTR __$EHRec$[ebp+8], 1
  000eb	52		 push	 edx
  000ec	8b 08		 mov	 ecx, DWORD PTR [eax]
  000ee	50		 push	 eax
  000ef	75 05		 jne	 SHORT $LN2@OnDblclkLi

; 1003 : 			m_pDataManager->GetMiniFutureJongMst(pastrJongCode, pastrJongName, pastrJongEngName);

  000f1	ff 51 60	 call	 DWORD PTR [ecx+96]
  000f4	eb 03		 jmp	 SHORT $LN3@OnDblclkLi
$LN2@OnDblclkLi:

; 1004 : 		else
; 1005 : 			m_pDataManager->GetFutureJongMst(pastrJongCode, pastrJongName, pastrJongEngName);

  000f6	ff 51 48	 call	 DWORD PTR [ecx+72]
$LN3@OnDblclkLi:
; File C:\Program Files (x86)\Microsoft Visual Studio\2019\Community\VC\Tools\MSVC\14.29.30133\atlmfc\include\afxcoll.inl

; 289  : 		if( nIndex < 0 || nIndex >= m_nSize )

  000f9	85 f6		 test	 esi, esi
  000fb	0f 88 69 01 00
	00		 js	 $LN39@OnDblclkLi
  00101	8b 45 ec	 mov	 eax, DWORD PTR _pastrJongCode$[ebp]
  00104	3b 70 08	 cmp	 esi, DWORD PTR [eax+8]
  00107	0f 8d 5d 01 00
	00		 jge	 $LN39@OnDblclkLi

; 291  : 		return m_pData[nIndex]; }

  0010d	8b 40 04	 mov	 eax, DWORD PTR [eax+4]
  00110	8d 3c b5 00 00
	00 00		 lea	 edi, DWORD PTR [esi*4]
  00117	03 c7		 add	 eax, edi
; File D:\git\src\IBK\IBK_DRFN\ProjSrc\SrcDrfn\Chart\comparechart\TabCodeSearchFO.cpp

; 1007 : 		strCodeSelected = pastrJongCode->GetAt(nSel);

  00119	8d 4d e4	 lea	 ecx, DWORD PTR _strCodeSelected$[ebp]
  0011c	50		 push	 eax
  0011d	ff 15 00 00 00
	00		 call	 DWORD PTR __imp_??4?$CStringT@DV?$StrTraitMFC_DLL@DV?$ChTraitsCRT@D@ATL@@@@@ATL@@QAEAAV01@ABV01@@Z
; File C:\Program Files (x86)\Microsoft Visual Studio\2019\Community\VC\Tools\MSVC\14.29.30133\atlmfc\include\afxcoll.inl

; 289  : 		if( nIndex < 0 || nIndex >= m_nSize )

  00123	8b 45 e8	 mov	 eax, DWORD PTR _pastrJongName$[ebp]
  00126	3b 70 08	 cmp	 esi, DWORD PTR [eax+8]
  00129	0f 8d 3b 01 00
	00		 jge	 $LN39@OnDblclkLi

; 291  : 		return m_pData[nIndex]; }

  0012f	8b 40 04	 mov	 eax, DWORD PTR [eax+4]
; File D:\git\src\IBK\IBK_DRFN\ProjSrc\SrcDrfn\Chart\comparechart\TabCodeSearchFO.cpp

; 1008 : 		strNameSelected = pastrJongName->GetAt(nSel);

  00132	8d 4d d4	 lea	 ecx, DWORD PTR _strNameSelected$[ebp]
; File C:\Program Files (x86)\Microsoft Visual Studio\2019\Community\VC\Tools\MSVC\14.29.30133\atlmfc\include\afxcoll.inl

; 291  : 		return m_pData[nIndex]; }

  00135	03 c7		 add	 eax, edi
; File D:\git\src\IBK\IBK_DRFN\ProjSrc\SrcDrfn\Chart\comparechart\TabCodeSearchFO.cpp

; 1008 : 		strNameSelected = pastrJongName->GetAt(nSel);

  00137	50		 push	 eax
  00138	ff 15 00 00 00
	00		 call	 DWORD PTR __imp_??4?$CStringT@DV?$StrTraitMFC_DLL@DV?$ChTraitsCRT@D@ATL@@@@@ATL@@QAEAAV01@ABV01@@Z

; 1009 : 
; 1010 : 		delete pastrJongCode;

  0013e	8b 4d ec	 mov	 ecx, DWORD PTR _pastrJongCode$[ebp]
  00141	85 c9		 test	 ecx, ecx
  00143	74 07		 je	 SHORT $LN13@OnDblclkLi
  00145	8b 01		 mov	 eax, DWORD PTR [ecx]
  00147	6a 01		 push	 1
  00149	ff 50 04	 call	 DWORD PTR [eax+4]
$LN13@OnDblclkLi:

; 1011 : 		delete pastrJongName;	//    

  0014c	8b 4d e8	 mov	 ecx, DWORD PTR _pastrJongName$[ebp]
  0014f	85 c9		 test	 ecx, ecx
  00151	74 07		 je	 SHORT $LN15@OnDblclkLi
  00153	8b 01		 mov	 eax, DWORD PTR [ecx]
  00155	6a 01		 push	 1
  00157	ff 50 04	 call	 DWORD PTR [eax+4]
$LN15@OnDblclkLi:

; 1012 : 		delete pastrJongEngName;	//    

  0015a	8b 4d e0	 mov	 ecx, DWORD PTR _pastrJongEngName$[ebp]
  0015d	85 c9		 test	 ecx, ecx
  0015f	74 07		 je	 SHORT $LN17@OnDblclkLi
  00161	8b 01		 mov	 eax, DWORD PTR [ecx]
  00163	6a 01		 push	 1
  00165	ff 50 04	 call	 DWORD PTR [eax+4]
$LN17@OnDblclkLi:
; File C:\Program Files (x86)\Microsoft Visual Studio\2019\Community\VC\Tools\MSVC\14.29.30133\atlmfc\include\atlsimpstr.h

; 519  : 		return( GetData()->nDataLength );

  00168	8b 45 e4	 mov	 eax, DWORD PTR _strCodeSelected$[ebp]

; 533  : 		return( GetLength() == 0 );

  0016b	83 78 f4 00	 cmp	 DWORD PTR [eax-12], 0
; File D:\git\src\IBK\IBK_DRFN\ProjSrc\SrcDrfn\Chart\comparechart\TabCodeSearchFO.cpp

; 1014 : 		if(!strCodeSelected.IsEmpty())

  0016f	0f 84 d1 00 00
	00		 je	 $LN4@OnDblclkLi

; 1015 : 		{
; 1016 : 			CString strCode = strCodeSelected;

  00175	8d 45 e4	 lea	 eax, DWORD PTR _strCodeSelected$[ebp]
  00178	50		 push	 eax
  00179	8d 4d d8	 lea	 ecx, DWORD PTR _strCode$3[ebp]
  0017c	ff 15 00 00 00
	00		 call	 DWORD PTR __imp_??0?$CStringT@DV?$StrTraitMFC_DLL@DV?$ChTraitsCRT@D@ATL@@@@@ATL@@QAE@ABV01@@Z

; 1017 : 			CString strName = strNameSelected;	

  00182	8d 45 d4	 lea	 eax, DWORD PTR _strNameSelected$[ebp]
  00185	c6 45 fc 05	 mov	 BYTE PTR __$EHRec$[ebp+8], 5
  00189	50		 push	 eax
  0018a	8d 4d f0	 lea	 ecx, DWORD PTR _strName$8[ebp]
  0018d	ff 15 00 00 00
	00		 call	 DWORD PTR __imp_??0?$CStringT@DV?$StrTraitMFC_DLL@DV?$ChTraitsCRT@D@ATL@@@@@ATL@@QAE@ABV01@@Z

; 1018 : 			strName.TrimLeft();			

  00193	8d 4d f0	 lea	 ecx, DWORD PTR _strName$8[ebp]
  00196	c6 45 fc 06	 mov	 BYTE PTR __$EHRec$[ebp+8], 6
  0019a	ff 15 00 00 00
	00		 call	 DWORD PTR __imp_?TrimLeft@?$CStringT@DV?$StrTraitMFC_DLL@DV?$ChTraitsCRT@D@ATL@@@@@ATL@@QAEAAV12@XZ
; File C:\Program Files (x86)\Microsoft Visual Studio\2019\Community\VC\Tools\MSVC\14.29.30133\atlmfc\include\atlsimpstr.h

; 519  : 		return( GetData()->nDataLength );

  001a0	8b 45 f0	 mov	 eax, DWORD PTR _strName$8[ebp]
; File D:\git\src\IBK\IBK_DRFN\ProjSrc\SrcDrfn\Chart\comparechart\TabCodeSearchFO.cpp

; 1020 : 			if(strName.GetLength()<=0)

  001a3	83 78 f4 00	 cmp	 DWORD PTR [eax-12], 0
  001a7	0f 8e 87 00 00
	00		 jle	 $LN64@OnDblclkLi

; 1021 : 				return;
; 1022 : 			CString strData;

  001ad	8d 4d dc	 lea	 ecx, DWORD PTR _strData$7[ebp]
  001b0	ff 15 00 00 00
	00		 call	 DWORD PTR __imp_??0?$CStringT@DV?$StrTraitMFC_DLL@DV?$ChTraitsCRT@D@ATL@@@@@ATL@@QAE@XZ

; 1023 : 			strData.Format("%s|%s", strName, strCode);

  001b6	ff 75 d8	 push	 DWORD PTR _strCode$3[ebp]
  001b9	8d 45 dc	 lea	 eax, DWORD PTR _strData$7[ebp]
  001bc	c6 45 fc 07	 mov	 BYTE PTR __$EHRec$[ebp+8], 7
  001c0	ff 75 f0	 push	 DWORD PTR _strName$8[ebp]
  001c3	68 00 00 00 00	 push	 OFFSET ??_C@_05LMFDOBNM@?$CFs?$HM?$CFs@
  001c8	50		 push	 eax
  001c9	ff 15 00 00 00
	00		 call	 DWORD PTR __imp_?Format@?$CStringT@DV?$StrTraitMFC_DLL@DV?$ChTraitsCRT@D@ATL@@@@@ATL@@QAAXPBDZZ
  001cf	83 c4 10	 add	 esp, 16			; 00000010H

; 1024 : 
; 1025 : 			// .
; 1026 : 			//if(strData != m_strCodeNName)
; 1027 : 			{
; 1028 : 				AFX_MANAGE_STATE(AfxGetStaticModuleState()); 

  001d2	e8 00 00 00 00	 call	 ?AfxGetStaticModuleState@@YGPAVAFX_MODULE_STATE@@XZ ; AfxGetStaticModuleState
  001d7	50		 push	 eax
  001d8	8d 4d cc	 lea	 ecx, DWORD PTR __ctlState$2[ebp]
  001db	e8 00 00 00 00	 call	 ??0AFX_MAINTAIN_STATE2@@QAE@PAVAFX_MODULE_STATE@@@Z ; AFX_MAINTAIN_STATE2::AFX_MAINTAIN_STATE2

; 1029 : 				m_strCodeNName = strData;

  001e0	8d 45 dc	 lea	 eax, DWORD PTR _strData$7[ebp]
  001e3	c6 45 fc 08	 mov	 BYTE PTR __$EHRec$[ebp+8], 8
  001e7	8d bb e0 04 00
	00		 lea	 edi, DWORD PTR [ebx+1248]
  001ed	50		 push	 eax
  001ee	8b cf		 mov	 ecx, edi
  001f0	ff 15 00 00 00
	00		 call	 DWORD PTR __imp_??4?$CStringT@DV?$StrTraitMFC_DLL@DV?$ChTraitsCRT@D@ATL@@@@@ATL@@QAEAAV01@ABV01@@Z
; File C:\Program Files (x86)\Microsoft Visual Studio\2019\Community\VC\Tools\MSVC\14.29.30133\atlmfc\include\afxwin2.inl

; 213  : 	{ ASSERT(::IsWindow(m_hWnd)); return CWnd::FromHandle(::GetParent(m_hWnd)); }

  001f6	ff 73 20	 push	 DWORD PTR [ebx+32]
  001f9	8b 35 00 00 00
	00		 mov	 esi, DWORD PTR __imp__GetParent@4
  001ff	ff d6		 call	 esi
  00201	50		 push	 eax
  00202	e8 00 00 00 00	 call	 ?FromHandle@CWnd@@SGPAV1@PAUHWND__@@@Z ; CWnd::FromHandle
  00207	ff 70 20	 push	 DWORD PTR [eax+32]
  0020a	ff d6		 call	 esi
  0020c	50		 push	 eax
  0020d	e8 00 00 00 00	 call	 ?FromHandle@CWnd@@SGPAV1@PAUHWND__@@@Z ; CWnd::FromHandle

; 32   : 	{ ASSERT(::IsWindow(m_hWnd)); return ::SendMessage(m_hWnd, message, wParam, lParam); }

  00212	57		 push	 edi
  00213	6a 00		 push	 0
  00215	68 5b 04 00 00	 push	 1115			; 0000045bH
  0021a	ff 70 20	 push	 DWORD PTR [eax+32]
  0021d	ff 15 00 00 00
	00		 call	 DWORD PTR __imp__SendMessageA@16
; File D:\git\src\IBK\IBK_DRFN\ProjSrc\SrcDrfn\Chart\comparechart\TabCodeSearchFO.cpp

; 1031 : 			}

  00223	8d 4d cc	 lea	 ecx, DWORD PTR __ctlState$2[ebp]
  00226	e8 00 00 00 00	 call	 ??1AFX_MAINTAIN_STATE2@@QAE@XZ ; AFX_MAINTAIN_STATE2::~AFX_MAINTAIN_STATE2

; 1032 : 		}

  0022b	8d 4d dc	 lea	 ecx, DWORD PTR _strData$7[ebp]
  0022e	ff 15 00 00 00
	00		 call	 DWORD PTR __imp_??1?$CStringT@DV?$StrTraitMFC_DLL@DV?$ChTraitsCRT@D@ATL@@@@@ATL@@QAE@XZ
$LN64@OnDblclkLi:

; 1034 : }

  00234	8d 4d f0	 lea	 ecx, DWORD PTR _strName$8[ebp]
  00237	ff 15 00 00 00
	00		 call	 DWORD PTR __imp_??1?$CStringT@DV?$StrTraitMFC_DLL@DV?$ChTraitsCRT@D@ATL@@@@@ATL@@QAE@XZ
  0023d	8d 4d d8	 lea	 ecx, DWORD PTR _strCode$3[ebp]
  00240	ff 15 00 00 00
	00		 call	 DWORD PTR __imp_??1?$CStringT@DV?$StrTraitMFC_DLL@DV?$ChTraitsCRT@D@ATL@@@@@ATL@@QAE@XZ
$LN4@OnDblclkLi:
  00246	8d 4d d4	 lea	 ecx, DWORD PTR _strNameSelected$[ebp]
  00249	ff 15 00 00 00
	00		 call	 DWORD PTR __imp_??1?$CStringT@DV?$StrTraitMFC_DLL@DV?$ChTraitsCRT@D@ATL@@@@@ATL@@QAE@XZ
  0024f	8d 4d e4	 lea	 ecx, DWORD PTR _strCodeSelected$[ebp]
  00252	ff 15 00 00 00
	00		 call	 DWORD PTR __imp_??1?$CStringT@DV?$StrTraitMFC_DLL@DV?$ChTraitsCRT@D@ATL@@@@@ATL@@QAE@XZ
  00258	8b 4d f4	 mov	 ecx, DWORD PTR __$EHRec$[ebp]
  0025b	64 89 0d 00 00
	00 00		 mov	 DWORD PTR fs:0, ecx
  00262	59		 pop	 ecx
  00263	5f		 pop	 edi
  00264	5e		 pop	 esi
  00265	5b		 pop	 ebx
  00266	8b e5		 mov	 esp, ebp
  00268	5d		 pop	 ebp
  00269	c3		 ret	 0
$LN39@OnDblclkLi:
; File C:\Program Files (x86)\Microsoft Visual Studio\2019\Community\VC\Tools\MSVC\14.29.30133\atlmfc\include\afxcoll.inl

; 290  : 			AfxThrowInvalidArgException();

  0026a	e8 00 00 00 00	 call	 ?AfxThrowInvalidArgException@@YGXXZ ; AfxThrowInvalidArgException
$LN63@OnDblclkLi:
  0026f	cc		 int	 3
_TEXT	ENDS
;	COMDAT text$x
text$x	SEGMENT
__unwindfunclet$?OnDblclkListFuture@CTabCodeSearchFO@@IAEXXZ$0:
  00000	8d 4d e4	 lea	 ecx, DWORD PTR _strCodeSelected$[ebp]
  00003	ff 25 00 00 00
	00		 jmp	 DWORD PTR __imp_??1?$CStringT@DV?$StrTraitMFC_DLL@DV?$ChTraitsCRT@D@ATL@@@@@ATL@@QAE@XZ
__unwindfunclet$?OnDblclkListFuture@CTabCodeSearchFO@@IAEXXZ$1:
  00009	8d 4d d4	 lea	 ecx, DWORD PTR _strNameSelected$[ebp]
  0000c	ff 25 00 00 00
	00		 jmp	 DWORD PTR __imp_??1?$CStringT@DV?$StrTraitMFC_DLL@DV?$ChTraitsCRT@D@ATL@@@@@ATL@@QAE@XZ
__unwindfunclet$?OnDblclkListFuture@CTabCodeSearchFO@@IAEXXZ$2:
  00012	8b 45 d8	 mov	 eax, DWORD PTR $T6[ebp]
  00015	50		 push	 eax
  00016	e8 00 00 00 00	 call	 ??3CObject@@SGXPAX@Z	; CObject::operator delete
  0001b	c3		 ret	 0
__unwindfunclet$?OnDblclkListFuture@CTabCodeSearchFO@@IAEXXZ$3:
  0001c	8b 45 d8	 mov	 eax, DWORD PTR $T5[ebp]
  0001f	50		 push	 eax
  00020	e8 00 00 00 00	 call	 ??3CObject@@SGXPAX@Z	; CObject::operator delete
  00025	c3		 ret	 0
__unwindfunclet$?OnDblclkListFuture@CTabCodeSearchFO@@IAEXXZ$4:
  00026	8b 45 d8	 mov	 eax, DWORD PTR $T4[ebp]
  00029	50		 push	 eax
  0002a	e8 00 00 00 00	 call	 ??3CObject@@SGXPAX@Z	; CObject::operator delete
  0002f	c3		 ret	 0
__unwindfunclet$?OnDblclkListFuture@CTabCodeSearchFO@@IAEXXZ$5:
  00030	8d 4d d8	 lea	 ecx, DWORD PTR _strCode$3[ebp]
  00033	ff 25 00 00 00
	00		 jmp	 DWORD PTR __imp_??1?$CStringT@DV?$StrTraitMFC_DLL@DV?$ChTraitsCRT@D@ATL@@@@@ATL@@QAE@XZ
__unwindfunclet$?OnDblclkListFuture@CTabCodeSearchFO@@IAEXXZ$6:
  00039	8d 4d f0	 lea	 ecx, DWORD PTR _strName$8[ebp]
  0003c	ff 25 00 00 00
	00		 jmp	 DWORD PTR __imp_??1?$CStringT@DV?$StrTraitMFC_DLL@DV?$ChTraitsCRT@D@ATL@@@@@ATL@@QAE@XZ
__unwindfunclet$?OnDblclkListFuture@CTabCodeSearchFO@@IAEXXZ$7:
  00042	8d 4d dc	 lea	 ecx, DWORD PTR _strData$7[ebp]
  00045	ff 25 00 00 00
	00		 jmp	 DWORD PTR __imp_??1?$CStringT@DV?$StrTraitMFC_DLL@DV?$ChTraitsCRT@D@ATL@@@@@ATL@@QAE@XZ
__unwindfunclet$?OnDblclkListFuture@CTabCodeSearchFO@@IAEXXZ$8:
  0004b	8d 4d cc	 lea	 ecx, DWORD PTR __ctlState$2[ebp]
  0004e	e9 00 00 00 00	 jmp	 ??1AFX_MAINTAIN_STATE2@@QAE@XZ ; AFX_MAINTAIN_STATE2::~AFX_MAINTAIN_STATE2
  00053	cc		 int	 3
  00054	cc		 int	 3
  00055	cc		 int	 3
  00056	cc		 int	 3
  00057	cc		 int	 3
__ehhandler$?OnDblclkListFuture@CTabCodeSearchFO@@IAEXXZ:
  00058	90		 npad	 1
  00059	90		 npad	 1
  0005a	8b 54 24 08	 mov	 edx, DWORD PTR [esp+8]
  0005e	8d 42 0c	 lea	 eax, DWORD PTR [edx+12]
  00061	8b 4a c8	 mov	 ecx, DWORD PTR [edx-56]
  00064	33 c8		 xor	 ecx, eax
  00066	e8 00 00 00 00	 call	 @__security_check_cookie@4
  0006b	b8 00 00 00 00	 mov	 eax, OFFSET __ehfuncinfo$?OnDblclkListFuture@CTabCodeSearchFO@@IAEXXZ
  00070	e9 00 00 00 00	 jmp	 ___CxxFrameHandler3
text$x	ENDS
?OnDblclkListFuture@CTabCodeSearchFO@@IAEXXZ ENDP	; CTabCodeSearchFO::OnDblclkListFuture
; Function compile flags: /Ogtp
; File D:\git\src\IBK\IBK_DRFN\ProjSrc\SrcDrfn\Chart\comparechart\TabCodeSearchFO.cpp
; File C:\Program Files (x86)\Microsoft Visual Studio\2019\Community\VC\Tools\MSVC\14.29.30133\atlmfc\include\afxwin2.inl
; File D:\git\src\IBK\IBK_DRFN\ProjSrc\SrcDrfn\Chart\comparechart\TabCodeSearchFO.cpp
; File C:\Program Files (x86)\Microsoft Visual Studio\2019\Community\VC\Tools\MSVC\14.29.30133\atlmfc\include\afxwin2.inl
; File C:\Program Files (x86)\Microsoft Visual Studio\2019\Community\VC\Tools\MSVC\14.29.30133\atlmfc\include\afx.inl
; File D:\git\src\IBK\IBK_DRFN\ProjSrc\SrcDrfn\Chart\comparechart\TabCodeSearchFO.cpp
; File C:\Program Files (x86)\Microsoft Visual Studio\2019\Community\VC\Tools\MSVC\14.29.30133\atlmfc\include\afx.inl
; File D:\git\src\IBK\IBK_DRFN\ProjSrc\SrcDrfn\Chart\comparechart\TabCodeSearchFO.cpp
; File C:\Program Files (x86)\Microsoft Visual Studio\2019\Community\VC\Tools\MSVC\14.29.30133\atlmfc\include\afx.inl
; File D:\git\src\IBK\IBK_DRFN\ProjSrc\SrcDrfn\Chart\comparechart\TabCodeSearchFO.cpp
; File C:\Program Files (x86)\Microsoft Visual Studio\2019\Community\VC\Tools\MSVC\14.29.30133\atlmfc\include\afx.inl
; File D:\git\src\IBK\IBK_DRFN\ProjSrc\SrcDrfn\Chart\comparechart\TabCodeSearchFO.cpp
; File C:\Program Files (x86)\Microsoft Visual Studio\2019\Community\VC\Tools\MSVC\14.29.30133\atlmfc\include\afx.inl
; File D:\git\src\IBK\IBK_DRFN\ProjSrc\SrcDrfn\Chart\comparechart\TabCodeSearchFO.cpp
; File C:\Program Files (x86)\Microsoft Visual Studio\2019\Community\VC\Tools\MSVC\14.29.30133\atlmfc\include\afx.inl
; File D:\git\src\IBK\IBK_DRFN\ProjSrc\SrcDrfn\Chart\comparechart\TabCodeSearchFO.cpp
; File C:\Program Files (x86)\Microsoft Visual Studio\2019\Community\VC\Tools\MSVC\14.29.30133\atlmfc\include\afxcoll.inl
; File D:\git\src\IBK\IBK_DRFN\ProjSrc\SrcDrfn\Chart\comparechart\TabCodeSearchFO.cpp
; File C:\Program Files (x86)\Microsoft Visual Studio\2019\Community\VC\Tools\MSVC\14.29.30133\atlmfc\include\afxcoll.inl
; File D:\git\src\IBK\IBK_DRFN\ProjSrc\SrcDrfn\Chart\comparechart\TabCodeSearchFO.cpp
; File C:\Program Files (x86)\Microsoft Visual Studio\2019\Community\VC\Tools\MSVC\14.29.30133\atlmfc\include\atlsimpstr.h
; File D:\git\src\IBK\IBK_DRFN\ProjSrc\SrcDrfn\Chart\comparechart\TabCodeSearchFO.cpp
; File C:\Program Files (x86)\Microsoft Visual Studio\2019\Community\VC\Tools\MSVC\14.29.30133\atlmfc\include\atlsimpstr.h
; File D:\git\src\IBK\IBK_DRFN\ProjSrc\SrcDrfn\Chart\comparechart\TabCodeSearchFO.cpp
; File C:\Program Files (x86)\Microsoft Visual Studio\2019\Community\VC\Tools\MSVC\14.29.30133\atlmfc\include\cstringt.h
; File D:\git\src\IBK\IBK_DRFN\ProjSrc\SrcDrfn\Chart\comparechart\TabCodeSearchFO.cpp
; File C:\Program Files (x86)\Microsoft Visual Studio\2019\Community\VC\Tools\MSVC\14.29.30133\atlmfc\include\afxcoll.inl
; File D:\git\src\IBK\IBK_DRFN\ProjSrc\SrcDrfn\Chart\comparechart\TabCodeSearchFO.cpp
;	COMDAT ?OnSelchangeListFuture@CTabCodeSearchFO@@IAEXXZ
_TEXT	SEGMENT
_pastrJongEngName$ = -40				; size = 4
_pastrJongName$ = -36					; size = 4
_strCodeSelected$ = -32					; size = 4
_strCode$2 = -28					; size = 4
$T3 = -28						; size = 4
$T4 = -28						; size = 4
$T5 = -28						; size = 4
_strData$6 = -24					; size = 4
_pastrJongCode$ = -20					; size = 4
_strName$7 = -16					; size = 4
__$EHRec$ = -12						; size = 12
?OnSelchangeListFuture@CTabCodeSearchFO@@IAEXXZ PROC	; CTabCodeSearchFO::OnSelchangeListFuture, COMDAT
; _this$ = ecx

; 945  : {

  00000	55		 push	 ebp
  00001	8b ec		 mov	 ebp, esp
  00003	6a ff		 push	 -1
  00005	68 00 00 00 00	 push	 __ehhandler$?OnSelchangeListFuture@CTabCodeSearchFO@@IAEXXZ
  0000a	64 a1 00 00 00
	00		 mov	 eax, DWORD PTR fs:0
  00010	50		 push	 eax
  00011	83 ec 1c	 sub	 esp, 28			; 0000001cH
  00014	56		 push	 esi
  00015	57		 push	 edi
  00016	a1 00 00 00 00	 mov	 eax, DWORD PTR ___security_cookie
  0001b	33 c5		 xor	 eax, ebp
  0001d	50		 push	 eax
  0001e	8d 45 f4	 lea	 eax, DWORD PTR __$EHRec$[ebp]
  00021	64 a3 00 00 00
	00		 mov	 DWORD PTR fs:0, eax
  00027	8b f1		 mov	 esi, ecx

; 946  : 	CString strCodeSelected;

  00029	8d 4d e0	 lea	 ecx, DWORD PTR _strCodeSelected$[ebp]
  0002c	ff 15 00 00 00
	00		 call	 DWORD PTR __imp_??0?$CStringT@DV?$StrTraitMFC_DLL@DV?$ChTraitsCRT@D@ATL@@@@@ATL@@QAE@XZ
; File C:\Program Files (x86)\Microsoft Visual Studio\2019\Community\VC\Tools\MSVC\14.29.30133\atlmfc\include\afxwin2.inl

; 666  : 	{ ASSERT(::IsWindow(m_hWnd)); return (int)::SendMessage(m_hWnd, LB_GETCURSEL, 0, 0); }

  00032	6a 00		 push	 0
  00034	6a 00		 push	 0
  00036	68 88 01 00 00	 push	 392			; 00000188H
  0003b	ff b6 00 02 00
	00		 push	 DWORD PTR [esi+512]
; File D:\git\src\IBK\IBK_DRFN\ProjSrc\SrcDrfn\Chart\comparechart\TabCodeSearchFO.cpp

; 946  : 	CString strCodeSelected;

  00041	c7 45 fc 00 00
	00 00		 mov	 DWORD PTR __$EHRec$[ebp+8], 0
; File C:\Program Files (x86)\Microsoft Visual Studio\2019\Community\VC\Tools\MSVC\14.29.30133\atlmfc\include\afxwin2.inl

; 666  : 	{ ASSERT(::IsWindow(m_hWnd)); return (int)::SendMessage(m_hWnd, LB_GETCURSEL, 0, 0); }

  00048	ff 15 00 00 00
	00		 call	 DWORD PTR __imp__SendMessageA@16
; File C:\Program Files (x86)\Microsoft Visual Studio\2019\Community\VC\Tools\MSVC\14.29.30133\atlmfc\include\afx.inl

; 116  : 	{ return ::operator new(nSize); }

  0004e	6a 14		 push	 20			; 00000014H
; File D:\git\src\IBK\IBK_DRFN\ProjSrc\SrcDrfn\Chart\comparechart\TabCodeSearchFO.cpp

; 947  : 	int nSel = m_listFuture.GetCurSel();

  00050	8b f8		 mov	 edi, eax
; File C:\Program Files (x86)\Microsoft Visual Studio\2019\Community\VC\Tools\MSVC\14.29.30133\atlmfc\include\afx.inl

; 116  : 	{ return ::operator new(nSize); }

  00052	e8 00 00 00 00	 call	 ??2@YAPAXI@Z		; operator new
  00057	83 c4 04	 add	 esp, 4
; File D:\git\src\IBK\IBK_DRFN\ProjSrc\SrcDrfn\Chart\comparechart\TabCodeSearchFO.cpp

; 953  : 	pastrJongCode = new CStringArray;

  0005a	89 45 e4	 mov	 DWORD PTR $T5[ebp], eax
  0005d	c6 45 fc 01	 mov	 BYTE PTR __$EHRec$[ebp+8], 1
  00061	85 c0		 test	 eax, eax
  00063	74 09		 je	 SHORT $LN8@OnSelchang
  00065	8b c8		 mov	 ecx, eax
  00067	e8 00 00 00 00	 call	 ??0CStringArray@@QAE@XZ	; CStringArray::CStringArray
  0006c	eb 02		 jmp	 SHORT $LN9@OnSelchang
$LN8@OnSelchang:
  0006e	33 c0		 xor	 eax, eax
$LN9@OnSelchang:
; File C:\Program Files (x86)\Microsoft Visual Studio\2019\Community\VC\Tools\MSVC\14.29.30133\atlmfc\include\afx.inl

; 116  : 	{ return ::operator new(nSize); }

  00070	6a 14		 push	 20			; 00000014H
; File D:\git\src\IBK\IBK_DRFN\ProjSrc\SrcDrfn\Chart\comparechart\TabCodeSearchFO.cpp

; 953  : 	pastrJongCode = new CStringArray;

  00072	c6 45 fc 00	 mov	 BYTE PTR __$EHRec$[ebp+8], 0
  00076	89 45 ec	 mov	 DWORD PTR _pastrJongCode$[ebp], eax
; File C:\Program Files (x86)\Microsoft Visual Studio\2019\Community\VC\Tools\MSVC\14.29.30133\atlmfc\include\afx.inl

; 116  : 	{ return ::operator new(nSize); }

  00079	e8 00 00 00 00	 call	 ??2@YAPAXI@Z		; operator new
  0007e	83 c4 04	 add	 esp, 4
; File D:\git\src\IBK\IBK_DRFN\ProjSrc\SrcDrfn\Chart\comparechart\TabCodeSearchFO.cpp

; 954  : 	pastrJongName = new CStringArray;

  00081	89 45 e4	 mov	 DWORD PTR $T4[ebp], eax
  00084	c6 45 fc 02	 mov	 BYTE PTR __$EHRec$[ebp+8], 2
  00088	85 c0		 test	 eax, eax
  0008a	74 09		 je	 SHORT $LN10@OnSelchang
  0008c	8b c8		 mov	 ecx, eax
  0008e	e8 00 00 00 00	 call	 ??0CStringArray@@QAE@XZ	; CStringArray::CStringArray
  00093	eb 02		 jmp	 SHORT $LN11@OnSelchang
$LN10@OnSelchang:
  00095	33 c0		 xor	 eax, eax
$LN11@OnSelchang:
; File C:\Program Files (x86)\Microsoft Visual Studio\2019\Community\VC\Tools\MSVC\14.29.30133\atlmfc\include\afx.inl

; 116  : 	{ return ::operator new(nSize); }

  00097	6a 14		 push	 20			; 00000014H
; File D:\git\src\IBK\IBK_DRFN\ProjSrc\SrcDrfn\Chart\comparechart\TabCodeSearchFO.cpp

; 954  : 	pastrJongName = new CStringArray;

  00099	c6 45 fc 00	 mov	 BYTE PTR __$EHRec$[ebp+8], 0
  0009d	89 45 dc	 mov	 DWORD PTR _pastrJongName$[ebp], eax
; File C:\Program Files (x86)\Microsoft Visual Studio\2019\Community\VC\Tools\MSVC\14.29.30133\atlmfc\include\afx.inl

; 116  : 	{ return ::operator new(nSize); }

  000a0	e8 00 00 00 00	 call	 ??2@YAPAXI@Z		; operator new
  000a5	83 c4 04	 add	 esp, 4
; File D:\git\src\IBK\IBK_DRFN\ProjSrc\SrcDrfn\Chart\comparechart\TabCodeSearchFO.cpp

; 955  : 	pastrJongEngName = new CStringArray;

  000a8	89 45 e4	 mov	 DWORD PTR $T3[ebp], eax
  000ab	c6 45 fc 03	 mov	 BYTE PTR __$EHRec$[ebp+8], 3
  000af	85 c0		 test	 eax, eax
  000b1	74 09		 je	 SHORT $LN12@OnSelchang
  000b3	8b c8		 mov	 ecx, eax
  000b5	e8 00 00 00 00	 call	 ??0CStringArray@@QAE@XZ	; CStringArray::CStringArray
  000ba	eb 02		 jmp	 SHORT $LN13@OnSelchang
$LN12@OnSelchang:
  000bc	33 c0		 xor	 eax, eax
$LN13@OnSelchang:

; 956  : 
; 957  : 	if( m_nComboSel == 1 )

  000be	83 be f0 04 00
	00 01		 cmp	 DWORD PTR [esi+1264], 1
  000c5	8d 55 d8	 lea	 edx, DWORD PTR _pastrJongEngName$[ebp]
  000c8	52		 push	 edx
  000c9	8d 55 dc	 lea	 edx, DWORD PTR _pastrJongName$[ebp]
  000cc	89 45 d8	 mov	 DWORD PTR _pastrJongEngName$[ebp], eax
  000cf	8b 86 dc 04 00
	00		 mov	 eax, DWORD PTR [esi+1244]
  000d5	52		 push	 edx
  000d6	8d 55 ec	 lea	 edx, DWORD PTR _pastrJongCode$[ebp]
  000d9	c6 45 fc 00	 mov	 BYTE PTR __$EHRec$[ebp+8], 0
  000dd	52		 push	 edx
  000de	8b 08		 mov	 ecx, DWORD PTR [eax]
  000e0	50		 push	 eax
  000e1	75 05		 jne	 SHORT $LN2@OnSelchang

; 958  : 		m_pDataManager->GetMiniFutureJongMst(pastrJongCode, pastrJongName, pastrJongEngName);

  000e3	ff 51 60	 call	 DWORD PTR [ecx+96]
  000e6	eb 03		 jmp	 SHORT $LN3@OnSelchang
$LN2@OnSelchang:

; 959  : 	else
; 960  : 		m_pDataManager->GetFutureJongMst(pastrJongCode, pastrJongName, pastrJongEngName);

  000e8	ff 51 48	 call	 DWORD PTR [ecx+72]
$LN3@OnSelchang:
; File C:\Program Files (x86)\Microsoft Visual Studio\2019\Community\VC\Tools\MSVC\14.29.30133\atlmfc\include\afxcoll.inl

; 289  : 		if( nIndex < 0 || nIndex >= m_nSize )

  000eb	85 ff		 test	 edi, edi
  000ed	0f 88 0d 01 00
	00		 js	 $LN38@OnSelchang
  000f3	8b 45 ec	 mov	 eax, DWORD PTR _pastrJongCode$[ebp]
  000f6	3b 78 08	 cmp	 edi, DWORD PTR [eax+8]
  000f9	0f 8d 01 01 00
	00		 jge	 $LN38@OnSelchang

; 291  : 		return m_pData[nIndex]; }

  000ff	8b 40 04	 mov	 eax, DWORD PTR [eax+4]
; File D:\git\src\IBK\IBK_DRFN\ProjSrc\SrcDrfn\Chart\comparechart\TabCodeSearchFO.cpp

; 963  : 	strCodeSelected = pastrJongCode->GetAt(nSel);

  00102	8d 4d e0	 lea	 ecx, DWORD PTR _strCodeSelected$[ebp]
; File C:\Program Files (x86)\Microsoft Visual Studio\2019\Community\VC\Tools\MSVC\14.29.30133\atlmfc\include\afxcoll.inl

; 291  : 		return m_pData[nIndex]; }

  00105	8d 04 b8	 lea	 eax, DWORD PTR [eax+edi*4]
; File D:\git\src\IBK\IBK_DRFN\ProjSrc\SrcDrfn\Chart\comparechart\TabCodeSearchFO.cpp

; 963  : 	strCodeSelected = pastrJongCode->GetAt(nSel);

  00108	50		 push	 eax
  00109	ff 15 00 00 00
	00		 call	 DWORD PTR __imp_??4?$CStringT@DV?$StrTraitMFC_DLL@DV?$ChTraitsCRT@D@ATL@@@@@ATL@@QAEAAV01@ABV01@@Z

; 964  : 
; 965  : 	delete pastrJongCode;

  0010f	8b 4d ec	 mov	 ecx, DWORD PTR _pastrJongCode$[ebp]
  00112	85 c9		 test	 ecx, ecx
  00114	74 07		 je	 SHORT $LN14@OnSelchang
  00116	8b 01		 mov	 eax, DWORD PTR [ecx]
  00118	6a 01		 push	 1
  0011a	ff 50 04	 call	 DWORD PTR [eax+4]
$LN14@OnSelchang:

; 966  : 	delete pastrJongName;	//    

  0011d	8b 4d dc	 mov	 ecx, DWORD PTR _pastrJongName$[ebp]
  00120	85 c9		 test	 ecx, ecx
  00122	74 07		 je	 SHORT $LN16@OnSelchang
  00124	8b 01		 mov	 eax, DWORD PTR [ecx]
  00126	6a 01		 push	 1
  00128	ff 50 04	 call	 DWORD PTR [eax+4]
$LN16@OnSelchang:

; 967  : 	delete pastrJongEngName;	//    

  0012b	8b 4d d8	 mov	 ecx, DWORD PTR _pastrJongEngName$[ebp]
  0012e	85 c9		 test	 ecx, ecx
  00130	74 07		 je	 SHORT $LN18@OnSelchang
  00132	8b 01		 mov	 eax, DWORD PTR [ecx]
  00134	6a 01		 push	 1
  00136	ff 50 04	 call	 DWORD PTR [eax+4]
$LN18@OnSelchang:
; File C:\Program Files (x86)\Microsoft Visual Studio\2019\Community\VC\Tools\MSVC\14.29.30133\atlmfc\include\atlsimpstr.h

; 519  : 		return( GetData()->nDataLength );

  00139	8b 45 e0	 mov	 eax, DWORD PTR _strCodeSelected$[ebp]

; 533  : 		return( GetLength() == 0 );

  0013c	83 78 f4 00	 cmp	 DWORD PTR [eax-12], 0
; File D:\git\src\IBK\IBK_DRFN\ProjSrc\SrcDrfn\Chart\comparechart\TabCodeSearchFO.cpp

; 969  : 	if(!strCodeSelected.IsEmpty())

  00140	0f 84 a0 00 00
	00		 je	 $LN4@OnSelchang

; 970  : 	{
; 971  : 		CString strCode = strCodeSelected;

  00146	8d 45 e0	 lea	 eax, DWORD PTR _strCodeSelected$[ebp]
  00149	50		 push	 eax
  0014a	8d 4d e4	 lea	 ecx, DWORD PTR _strCode$2[ebp]
  0014d	ff 15 00 00 00
	00		 call	 DWORD PTR __imp_??0?$CStringT@DV?$StrTraitMFC_DLL@DV?$ChTraitsCRT@D@ATL@@@@@ATL@@QAE@ABV01@@Z

; 972  : 		//@Solomon CString strName = m_pDataManager->GetCodeInfo("FMASTER", 0, strCode);	
; 973  : 		CString strName = m_pDataManager->GetCodeName(strCode);

  00153	8b 86 dc 04 00
	00		 mov	 eax, DWORD PTR [esi+1244]
  00159	8d 55 f0	 lea	 edx, DWORD PTR _strName$7[ebp]
  0015c	ff 75 e4	 push	 DWORD PTR _strCode$2[ebp]
  0015f	c6 45 fc 04	 mov	 BYTE PTR __$EHRec$[ebp+8], 4
  00163	52		 push	 edx
  00164	8b 08		 mov	 ecx, DWORD PTR [eax]
  00166	50		 push	 eax
  00167	ff 91 bc 00 00
	00		 call	 DWORD PTR [ecx+188]

; 974  : 		strName.TrimLeft();			

  0016d	8d 4d f0	 lea	 ecx, DWORD PTR _strName$7[ebp]
  00170	c6 45 fc 05	 mov	 BYTE PTR __$EHRec$[ebp+8], 5
  00174	ff 15 00 00 00
	00		 call	 DWORD PTR __imp_?TrimLeft@?$CStringT@DV?$StrTraitMFC_DLL@DV?$ChTraitsCRT@D@ATL@@@@@ATL@@QAEAAV12@XZ
; File C:\Program Files (x86)\Microsoft Visual Studio\2019\Community\VC\Tools\MSVC\14.29.30133\atlmfc\include\atlsimpstr.h

; 519  : 		return( GetData()->nDataLength );

  0017a	8b 45 f0	 mov	 eax, DWORD PTR _strName$7[ebp]
; File D:\git\src\IBK\IBK_DRFN\ProjSrc\SrcDrfn\Chart\comparechart\TabCodeSearchFO.cpp

; 976  : 		if(strName.GetLength()<=0)

  0017d	83 78 f4 00	 cmp	 DWORD PTR [eax-12], 0
  00181	7e 51		 jle	 SHORT $LN59@OnSelchang

; 977  : 			return;
; 978  : 		CString strData;

  00183	8d 4d e8	 lea	 ecx, DWORD PTR _strData$6[ebp]
  00186	ff 15 00 00 00
	00		 call	 DWORD PTR __imp_??0?$CStringT@DV?$StrTraitMFC_DLL@DV?$ChTraitsCRT@D@ATL@@@@@ATL@@QAE@XZ

; 979  : 		strData.Format("%s|%s", strName, strCode);

  0018c	ff 75 e4	 push	 DWORD PTR _strCode$2[ebp]
  0018f	8d 45 e8	 lea	 eax, DWORD PTR _strData$6[ebp]
  00192	c6 45 fc 06	 mov	 BYTE PTR __$EHRec$[ebp+8], 6
  00196	ff 75 f0	 push	 DWORD PTR _strName$7[ebp]
  00199	68 00 00 00 00	 push	 OFFSET ??_C@_05LMFDOBNM@?$CFs?$HM?$CFs@
  0019e	50		 push	 eax
  0019f	ff 15 00 00 00
	00		 call	 DWORD PTR __imp_?Format@?$CStringT@DV?$StrTraitMFC_DLL@DV?$ChTraitsCRT@D@ATL@@@@@ATL@@QAAXPBDZZ
  001a5	83 c4 10	 add	 esp, 16			; 00000010H
; File C:\Program Files (x86)\Microsoft Visual Studio\2019\Community\VC\Tools\MSVC\14.29.30133\atlmfc\include\cstringt.h

; 2560 : 		return( str1.Compare( str2 ) != 0 );

  001a8	8d 4d e8	 lea	 ecx, DWORD PTR _strData$6[ebp]
  001ab	ff b6 e8 04 00
	00		 push	 DWORD PTR [esi+1256]
  001b1	ff 15 00 00 00
	00		 call	 DWORD PTR __imp_?Compare@?$CStringT@DV?$StrTraitMFC_DLL@DV?$ChTraitsCRT@D@ATL@@@@@ATL@@QBEHPBD@Z
  001b7	85 c0		 test	 eax, eax
; File D:\git\src\IBK\IBK_DRFN\ProjSrc\SrcDrfn\Chart\comparechart\TabCodeSearchFO.cpp

; 980  : 		if(strData != m_strSelCodeNName)

  001b9	74 10		 je	 SHORT $LN6@OnSelchang

; 981  : 		{
; 982  : 			m_strSelCodeNName = strData;

  001bb	8d 45 e8	 lea	 eax, DWORD PTR _strData$6[ebp]
  001be	50		 push	 eax
  001bf	8d 8e e8 04 00
	00		 lea	 ecx, DWORD PTR [esi+1256]
  001c5	ff 15 00 00 00
	00		 call	 DWORD PTR __imp_??4?$CStringT@DV?$StrTraitMFC_DLL@DV?$ChTraitsCRT@D@ATL@@@@@ATL@@QAEAAV01@ABV01@@Z
$LN6@OnSelchang:

; 983  : 		}
; 984  : 	}

  001cb	8d 4d e8	 lea	 ecx, DWORD PTR _strData$6[ebp]
  001ce	ff 15 00 00 00
	00		 call	 DWORD PTR __imp_??1?$CStringT@DV?$StrTraitMFC_DLL@DV?$ChTraitsCRT@D@ATL@@@@@ATL@@QAE@XZ
$LN59@OnSelchang:

; 985  : }

  001d4	8d 4d f0	 lea	 ecx, DWORD PTR _strName$7[ebp]
  001d7	ff 15 00 00 00
	00		 call	 DWORD PTR __imp_??1?$CStringT@DV?$StrTraitMFC_DLL@DV?$ChTraitsCRT@D@ATL@@@@@ATL@@QAE@XZ
  001dd	8d 4d e4	 lea	 ecx, DWORD PTR _strCode$2[ebp]
  001e0	ff 15 00 00 00
	00		 call	 DWORD PTR __imp_??1?$CStringT@DV?$StrTraitMFC_DLL@DV?$ChTraitsCRT@D@ATL@@@@@ATL@@QAE@XZ
$LN4@OnSelchang:
  001e6	8d 4d e0	 lea	 ecx, DWORD PTR _strCodeSelected$[ebp]
  001e9	ff 15 00 00 00
	00		 call	 DWORD PTR __imp_??1?$CStringT@DV?$StrTraitMFC_DLL@DV?$ChTraitsCRT@D@ATL@@@@@ATL@@QAE@XZ
  001ef	8b 4d f4	 mov	 ecx, DWORD PTR __$EHRec$[ebp]
  001f2	64 89 0d 00 00
	00 00		 mov	 DWORD PTR fs:0, ecx
  001f9	59		 pop	 ecx
  001fa	5f		 pop	 edi
  001fb	5e		 pop	 esi
  001fc	8b e5		 mov	 esp, ebp
  001fe	5d		 pop	 ebp
  001ff	c3		 ret	 0
$LN38@OnSelchang:
; File C:\Program Files (x86)\Microsoft Visual Studio\2019\Community\VC\Tools\MSVC\14.29.30133\atlmfc\include\afxcoll.inl

; 290  : 			AfxThrowInvalidArgException();

  00200	e8 00 00 00 00	 call	 ?AfxThrowInvalidArgException@@YGXXZ ; AfxThrowInvalidArgException
$LN58@OnSelchang:
  00205	cc		 int	 3
_TEXT	ENDS
;	COMDAT text$x
text$x	SEGMENT
__unwindfunclet$?OnSelchangeListFuture@CTabCodeSearchFO@@IAEXXZ$0:
  00000	8d 4d e0	 lea	 ecx, DWORD PTR _strCodeSelected$[ebp]
  00003	ff 25 00 00 00
	00		 jmp	 DWORD PTR __imp_??1?$CStringT@DV?$StrTraitMFC_DLL@DV?$ChTraitsCRT@D@ATL@@@@@ATL@@QAE@XZ
__unwindfunclet$?OnSelchangeListFuture@CTabCodeSearchFO@@IAEXXZ$1:
  00009	8b 45 e4	 mov	 eax, DWORD PTR $T5[ebp]
  0000c	50		 push	 eax
  0000d	e8 00 00 00 00	 call	 ??3CObject@@SGXPAX@Z	; CObject::operator delete
  00012	c3		 ret	 0
__unwindfunclet$?OnSelchangeListFuture@CTabCodeSearchFO@@IAEXXZ$2:
  00013	8b 45 e4	 mov	 eax, DWORD PTR $T4[ebp]
  00016	50		 push	 eax
  00017	e8 00 00 00 00	 call	 ??3CObject@@SGXPAX@Z	; CObject::operator delete
  0001c	c3		 ret	 0
__unwindfunclet$?OnSelchangeListFuture@CTabCodeSearchFO@@IAEXXZ$3:
  0001d	8b 45 e4	 mov	 eax, DWORD PTR $T3[ebp]
  00020	50		 push	 eax
  00021	e8 00 00 00 00	 call	 ??3CObject@@SGXPAX@Z	; CObject::operator delete
  00026	c3		 ret	 0
__unwindfunclet$?OnSelchangeListFuture@CTabCodeSearchFO@@IAEXXZ$4:
  00027	8d 4d e4	 lea	 ecx, DWORD PTR _strCode$2[ebp]
  0002a	ff 25 00 00 00
	00		 jmp	 DWORD PTR __imp_??1?$CStringT@DV?$StrTraitMFC_DLL@DV?$ChTraitsCRT@D@ATL@@@@@ATL@@QAE@XZ
__unwindfunclet$?OnSelchangeListFuture@CTabCodeSearchFO@@IAEXXZ$5:
  00030	8d 4d f0	 lea	 ecx, DWORD PTR _strName$7[ebp]
  00033	ff 25 00 00 00
	00		 jmp	 DWORD PTR __imp_??1?$CStringT@DV?$StrTraitMFC_DLL@DV?$ChTraitsCRT@D@ATL@@@@@ATL@@QAE@XZ
__unwindfunclet$?OnSelchangeListFuture@CTabCodeSearchFO@@IAEXXZ$6:
  00039	8d 4d e8	 lea	 ecx, DWORD PTR _strData$6[ebp]
  0003c	ff 25 00 00 00
	00		 jmp	 DWORD PTR __imp_??1?$CStringT@DV?$StrTraitMFC_DLL@DV?$ChTraitsCRT@D@ATL@@@@@ATL@@QAE@XZ
  00042	cc		 int	 3
  00043	cc		 int	 3
  00044	cc		 int	 3
  00045	cc		 int	 3
  00046	cc		 int	 3
__ehhandler$?OnSelchangeListFuture@CTabCodeSearchFO@@IAEXXZ:
  00047	90		 npad	 1
  00048	90		 npad	 1
  00049	8b 54 24 08	 mov	 edx, DWORD PTR [esp+8]
  0004d	8d 42 0c	 lea	 eax, DWORD PTR [edx+12]
  00050	8b 4a d8	 mov	 ecx, DWORD PTR [edx-40]
  00053	33 c8		 xor	 ecx, eax
  00055	e8 00 00 00 00	 call	 @__security_check_cookie@4
  0005a	b8 00 00 00 00	 mov	 eax, OFFSET __ehfuncinfo$?OnSelchangeListFuture@CTabCodeSearchFO@@IAEXXZ
  0005f	e9 00 00 00 00	 jmp	 ___CxxFrameHandler3
text$x	ENDS
?OnSelchangeListFuture@CTabCodeSearchFO@@IAEXXZ ENDP	; CTabCodeSearchFO::OnSelchangeListFuture
; Function compile flags: /Ogtp
; File D:\git\src\IBK\IBK_DRFN\ProjSrc\SrcDrfn\Chart\comparechart\TabCodeSearchFO.cpp
; File C:\Program Files (x86)\Microsoft Visual Studio\2019\Community\VC\Tools\MSVC\14.29.30133\atlmfc\include\afxwin1.inl
; File D:\git\src\IBK\IBK_DRFN\ProjSrc\SrcDrfn\Chart\comparechart\TabCodeSearchFO.cpp
; File C:\Program Files (x86)\Microsoft Visual Studio\2019\Community\VC\Tools\MSVC\14.29.30133\atlmfc\include\afxwin1.inl
; File D:\git\src\IBK\IBK_DRFN\ProjSrc\SrcDrfn\Chart\comparechart\TabCodeSearchFO.cpp
;	COMDAT ?OnCtlColor@CTabCodeSearchFO@@IAEPAUHBRUSH__@@PAVCDC@@PAVCWnd@@I@Z
_TEXT	SEGMENT
_pDC$ = 8						; size = 4
_pWnd$ = 12						; size = 4
_nCtlColor$ = 16					; size = 4
?OnCtlColor@CTabCodeSearchFO@@IAEPAUHBRUSH__@@PAVCDC@@PAVCWnd@@I@Z PROC ; CTabCodeSearchFO::OnCtlColor, COMDAT
; _this$ = ecx

; 840  : {

  00000	55		 push	 ebp
  00001	8b ec		 mov	 ebp, esp
  00003	53		 push	 ebx

; 841  : 	HBRUSH hbr = CTabDlg::OnCtlColor(pDC, pWnd, nCtlColor);

  00004	8b 5d 08	 mov	 ebx, DWORD PTR _pDC$[ebp]
  00007	56		 push	 esi
  00008	8b 75 10	 mov	 esi, DWORD PTR _nCtlColor$[ebp]
  0000b	57		 push	 edi
  0000c	56		 push	 esi
  0000d	ff 75 0c	 push	 DWORD PTR _pWnd$[ebp]
  00010	8b f9		 mov	 edi, ecx
  00012	53		 push	 ebx
  00013	e8 00 00 00 00	 call	 ?OnCtlColor@CRscDlg@@IAEPAUHBRUSH__@@PAVCDC@@PAVCWnd@@I@Z ; CRscDlg::OnCtlColor

; 842  : 	
; 843  : 	// TODO: Change any attributes of the DC here
; 844  : 	switch(nCtlColor) 

  00018	83 ee 01	 sub	 esi, 1
  0001b	74 26		 je	 SHORT $LN1@OnCtlColor
  0001d	83 ee 01	 sub	 esi, 1
  00020	74 21		 je	 SHORT $LN1@OnCtlColor

; 845  : 	{
; 846  : 	case CTLCOLOR_EDIT:
; 847  : 	case CTLCOLOR_LISTBOX:
; 848  : 		return hbr;
; 849  : 		break;
; 850  : 	default:
; 851  : 		{
; 852  : 			pDC->SetBkColor(m_crBk);

  00022	8b 03		 mov	 eax, DWORD PTR [ebx]
  00024	8b cb		 mov	 ecx, ebx
  00026	ff b7 b0 00 00
	00		 push	 DWORD PTR [edi+176]
  0002c	ff 50 34	 call	 DWORD PTR [eax+52]

; 853  : 			return m_brBkColor;

  0002f	8d 87 a8 00 00
	00		 lea	 eax, DWORD PTR [edi+168]
; File C:\Program Files (x86)\Microsoft Visual Studio\2019\Community\VC\Tools\MSVC\14.29.30133\atlmfc\include\afxwin1.inl

; 124  : 	{ return (HBRUSH)(this == NULL ? NULL : m_hObject); }

  00035	85 c0		 test	 eax, eax
  00037	75 07		 jne	 SHORT $LN10@OnCtlColor
; File D:\git\src\IBK\IBK_DRFN\ProjSrc\SrcDrfn\Chart\comparechart\TabCodeSearchFO.cpp

; 860  : }

  00039	5f		 pop	 edi
  0003a	5e		 pop	 esi
  0003b	5b		 pop	 ebx
  0003c	5d		 pop	 ebp
  0003d	c2 0c 00	 ret	 12			; 0000000cH
$LN10@OnCtlColor:
; File C:\Program Files (x86)\Microsoft Visual Studio\2019\Community\VC\Tools\MSVC\14.29.30133\atlmfc\include\afxwin1.inl

; 124  : 	{ return (HBRUSH)(this == NULL ? NULL : m_hObject); }

  00040	8b 40 04	 mov	 eax, DWORD PTR [eax+4]
$LN1@OnCtlColor:
  00043	5f		 pop	 edi
; File D:\git\src\IBK\IBK_DRFN\ProjSrc\SrcDrfn\Chart\comparechart\TabCodeSearchFO.cpp

; 860  : }

  00044	5e		 pop	 esi
  00045	5b		 pop	 ebx
  00046	5d		 pop	 ebp
  00047	c2 0c 00	 ret	 12			; 0000000cH
?OnCtlColor@CTabCodeSearchFO@@IAEPAUHBRUSH__@@PAVCDC@@PAVCWnd@@I@Z ENDP ; CTabCodeSearchFO::OnCtlColor
_TEXT	ENDS
; Function compile flags: /Ogtp
; File D:\git\src\IBK\IBK_DRFN\ProjSrc\SrcDrfn\Chart\comparechart\TabCodeSearchFO.cpp
; File C:\Program Files (x86)\Microsoft Visual Studio\2019\Community\VC\Tools\MSVC\14.29.30133\atlmfc\include\afxwin2.inl
; File D:\git\src\IBK\IBK_DRFN\ProjSrc\SrcDrfn\Chart\comparechart\TabCodeSearchFO.cpp
; File C:\Program Files (x86)\Microsoft Visual Studio\2019\Community\VC\Tools\MSVC\14.29.30133\atlmfc\include\afxwin2.inl
; File D:\git\src\IBK\IBK_DRFN\ProjSrc\SrcDrfn\Chart\comparechart\TabCodeSearchFO.cpp
; File C:\Program Files (x86)\Microsoft Visual Studio\2019\Community\VC\Tools\MSVC\14.29.30133\atlmfc\include\afxwin2.inl
; File D:\git\src\IBK\IBK_DRFN\ProjSrc\SrcDrfn\Chart\comparechart\TabCodeSearchFO.cpp
;	COMDAT ?OnSelchangeComboFO@CTabCodeSearchFO@@IAEXXZ
_TEXT	SEGMENT
?OnSelchangeComboFO@CTabCodeSearchFO@@IAEXXZ PROC	; CTabCodeSearchFO::OnSelchangeComboFO, COMDAT
; _this$ = ecx

; 1058 : {

  00000	57		 push	 edi
; File C:\Program Files (x86)\Microsoft Visual Studio\2019\Community\VC\Tools\MSVC\14.29.30133\atlmfc\include\afxwin2.inl

; 765  : 	{ ASSERT(::IsWindow(m_hWnd)); return (int)::SendMessage(m_hWnd, CB_GETCURSEL, 0, 0); }

  00001	6a 00		 push	 0
; File D:\git\src\IBK\IBK_DRFN\ProjSrc\SrcDrfn\Chart\comparechart\TabCodeSearchFO.cpp

; 1058 : {

  00003	8b f9		 mov	 edi, ecx
; File C:\Program Files (x86)\Microsoft Visual Studio\2019\Community\VC\Tools\MSVC\14.29.30133\atlmfc\include\afxwin2.inl

; 765  : 	{ ASSERT(::IsWindow(m_hWnd)); return (int)::SendMessage(m_hWnd, CB_GETCURSEL, 0, 0); }

  00005	6a 00		 push	 0
  00007	68 47 01 00 00	 push	 327			; 00000147H
  0000c	ff b7 f0 00 00
	00		 push	 DWORD PTR [edi+240]
  00012	ff 15 00 00 00
	00		 call	 DWORD PTR __imp__SendMessageA@16
; File D:\git\src\IBK\IBK_DRFN\ProjSrc\SrcDrfn\Chart\comparechart\TabCodeSearchFO.cpp

; 1060 : 	InitMasterData();

  00018	8b cf		 mov	 ecx, edi
  0001a	89 87 f0 04 00
	00		 mov	 DWORD PTR [edi+1264], eax
  00020	e8 00 00 00 00	 call	 ?InitMasterData@CTabCodeSearchFO@@QAEHXZ ; CTabCodeSearchFO::InitMasterData
; File C:\Program Files (x86)\Microsoft Visual Studio\2019\Community\VC\Tools\MSVC\14.29.30133\atlmfc\include\afxwin2.inl

; 765  : 	{ ASSERT(::IsWindow(m_hWnd)); return (int)::SendMessage(m_hWnd, CB_GETCURSEL, 0, 0); }

  00025	6a 00		 push	 0
  00027	6a 00		 push	 0
  00029	68 47 01 00 00	 push	 327			; 00000147H
  0002e	ff b7 78 01 00
	00		 push	 DWORD PTR [edi+376]
  00034	ff 15 00 00 00
	00		 call	 DWORD PTR __imp__SendMessageA@16
; File D:\git\src\IBK\IBK_DRFN\ProjSrc\SrcDrfn\Chart\comparechart\TabCodeSearchFO.cpp

; 757  : 	m_nIndex = m_ctrlComboMonth.GetCurSel() +1;

  0003a	40		 inc	 eax

; 758  : 	InsertGridData();

  0003b	8b cf		 mov	 ecx, edi
  0003d	89 87 d4 04 00
	00		 mov	 DWORD PTR [edi+1236], eax
  00043	e8 00 00 00 00	 call	 ?InsertGridData@CTabCodeSearchFO@@QAEXXZ ; CTabCodeSearchFO::InsertGridData

; 759  : 	InsertMasterData(m_nIndex);

  00048	ff b7 d4 04 00
	00		 push	 DWORD PTR [edi+1236]
  0004e	8b cf		 mov	 ecx, edi
  00050	e8 00 00 00 00	 call	 ?InsertMasterData@CTabCodeSearchFO@@QAEXH@Z ; CTabCodeSearchFO::InsertMasterData
  00055	5f		 pop	 edi

; 1061 : 	OnSelchangeComboMonth();
; 1062 : }

  00056	c3		 ret	 0
?OnSelchangeComboFO@CTabCodeSearchFO@@IAEXXZ ENDP	; CTabCodeSearchFO::OnSelchangeComboFO
_TEXT	ENDS
; Function compile flags: /Ogtp
; File D:\git\src\IBK\IBK_DRFN\ProjSrc\SrcDrfn\Chart\comparechart\TabCodeSearchFO.cpp
; File C:\Program Files (x86)\Microsoft Visual Studio\2019\Community\VC\Tools\MSVC\14.29.30133\atlmfc\include\afxwin2.inl
; File D:\git\src\IBK\IBK_DRFN\ProjSrc\SrcDrfn\Chart\comparechart\TabCodeSearchFO.cpp
; File C:\Program Files (x86)\Microsoft Visual Studio\2019\Community\VC\Tools\MSVC\14.29.30133\atlmfc\include\afxwin2.inl
; File D:\git\src\IBK\IBK_DRFN\ProjSrc\SrcDrfn\Chart\comparechart\TabCodeSearchFO.cpp
;	COMDAT ?OnSelchangeComboMonth@CTabCodeSearchFO@@IAEXXZ
_TEXT	SEGMENT
?OnSelchangeComboMonth@CTabCodeSearchFO@@IAEXXZ PROC	; CTabCodeSearchFO::OnSelchangeComboMonth, COMDAT
; _this$ = ecx

; 755  : {

  00000	56		 push	 esi
; File C:\Program Files (x86)\Microsoft Visual Studio\2019\Community\VC\Tools\MSVC\14.29.30133\atlmfc\include\afxwin2.inl

; 765  : 	{ ASSERT(::IsWindow(m_hWnd)); return (int)::SendMessage(m_hWnd, CB_GETCURSEL, 0, 0); }

  00001	6a 00		 push	 0
; File D:\git\src\IBK\IBK_DRFN\ProjSrc\SrcDrfn\Chart\comparechart\TabCodeSearchFO.cpp

; 755  : {

  00003	8b f1		 mov	 esi, ecx
; File C:\Program Files (x86)\Microsoft Visual Studio\2019\Community\VC\Tools\MSVC\14.29.30133\atlmfc\include\afxwin2.inl

; 765  : 	{ ASSERT(::IsWindow(m_hWnd)); return (int)::SendMessage(m_hWnd, CB_GETCURSEL, 0, 0); }

  00005	6a 00		 push	 0
  00007	68 47 01 00 00	 push	 327			; 00000147H
  0000c	ff b6 78 01 00
	00		 push	 DWORD PTR [esi+376]
  00012	ff 15 00 00 00
	00		 call	 DWORD PTR __imp__SendMessageA@16
; File D:\git\src\IBK\IBK_DRFN\ProjSrc\SrcDrfn\Chart\comparechart\TabCodeSearchFO.cpp

; 757  : 	m_nIndex = m_ctrlComboMonth.GetCurSel() +1;

  00018	40		 inc	 eax

; 758  : 	InsertGridData();

  00019	8b ce		 mov	 ecx, esi
  0001b	89 86 d4 04 00
	00		 mov	 DWORD PTR [esi+1236], eax
  00021	e8 00 00 00 00	 call	 ?InsertGridData@CTabCodeSearchFO@@QAEXXZ ; CTabCodeSearchFO::InsertGridData

; 759  : 	InsertMasterData(m_nIndex);

  00026	ff b6 d4 04 00
	00		 push	 DWORD PTR [esi+1236]
  0002c	8b ce		 mov	 ecx, esi
  0002e	e8 00 00 00 00	 call	 ?InsertMasterData@CTabCodeSearchFO@@QAEXH@Z ; CTabCodeSearchFO::InsertMasterData
  00033	5e		 pop	 esi

; 760  : }

  00034	c3		 ret	 0
?OnSelchangeComboMonth@CTabCodeSearchFO@@IAEXXZ ENDP	; CTabCodeSearchFO::OnSelchangeComboMonth
_TEXT	ENDS
; Function compile flags: /Ogtp
; File D:\git\src\IBK\IBK_DRFN\ProjSrc\SrcDrfn\Chart\comparechart\TabCodeSearchFO.cpp
; File C:\Program Files (x86)\Microsoft Visual Studio\2019\Community\VC\Tools\MSVC\14.29.30133\atlmfc\include\afxwin2.inl
; File D:\git\src\IBK\IBK_DRFN\ProjSrc\SrcDrfn\Chart\comparechart\TabCodeSearchFO.cpp
; File C:\Program Files (x86)\Microsoft Visual Studio\2019\Community\VC\Tools\MSVC\14.29.30133\atlmfc\include\afxwin2.inl
; File D:\git\src\IBK\IBK_DRFN\ProjSrc\SrcDrfn\Chart\comparechart\TabCodeSearchFO.cpp
;	COMDAT ?OnEditchangeComboMonth@CTabCodeSearchFO@@IAEXXZ
_TEXT	SEGMENT
?OnEditchangeComboMonth@CTabCodeSearchFO@@IAEXXZ PROC	; CTabCodeSearchFO::OnEditchangeComboMonth, COMDAT
; _this$ = ecx

; 748  : {

  00000	56		 push	 esi
; File C:\Program Files (x86)\Microsoft Visual Studio\2019\Community\VC\Tools\MSVC\14.29.30133\atlmfc\include\afxwin2.inl

; 765  : 	{ ASSERT(::IsWindow(m_hWnd)); return (int)::SendMessage(m_hWnd, CB_GETCURSEL, 0, 0); }

  00001	6a 00		 push	 0
; File D:\git\src\IBK\IBK_DRFN\ProjSrc\SrcDrfn\Chart\comparechart\TabCodeSearchFO.cpp

; 748  : {

  00003	8b f1		 mov	 esi, ecx
; File C:\Program Files (x86)\Microsoft Visual Studio\2019\Community\VC\Tools\MSVC\14.29.30133\atlmfc\include\afxwin2.inl

; 765  : 	{ ASSERT(::IsWindow(m_hWnd)); return (int)::SendMessage(m_hWnd, CB_GETCURSEL, 0, 0); }

  00005	6a 00		 push	 0
  00007	68 47 01 00 00	 push	 327			; 00000147H
  0000c	ff b6 78 01 00
	00		 push	 DWORD PTR [esi+376]
  00012	ff 15 00 00 00
	00		 call	 DWORD PTR __imp__SendMessageA@16
; File D:\git\src\IBK\IBK_DRFN\ProjSrc\SrcDrfn\Chart\comparechart\TabCodeSearchFO.cpp

; 751  : 	InsertMasterData(nSel);

  00018	50		 push	 eax
  00019	8b ce		 mov	 ecx, esi
  0001b	e8 00 00 00 00	 call	 ?InsertMasterData@CTabCodeSearchFO@@QAEXH@Z ; CTabCodeSearchFO::InsertMasterData
  00020	5e		 pop	 esi

; 752  : }

  00021	c3		 ret	 0
?OnEditchangeComboMonth@CTabCodeSearchFO@@IAEXXZ ENDP	; CTabCodeSearchFO::OnEditchangeComboMonth
_TEXT	ENDS
; Function compile flags: /Ogtp
; File D:\git\src\IBK\IBK_DRFN\ProjSrc\SrcDrfn\Chart\comparechart\TabCodeSearchFO.cpp
;	COMDAT ?OnDestroy@CTabCodeSearchFO@@IAEXXZ
_TEXT	SEGMENT
__ctlState$ = -8					; size = 8
?OnDestroy@CTabCodeSearchFO@@IAEXXZ PROC		; CTabCodeSearchFO::OnDestroy, COMDAT
; _this$ = ecx

; 137  : {

  00000	55		 push	 ebp
  00001	8b ec		 mov	 ebp, esp
  00003	83 ec 08	 sub	 esp, 8
  00006	56		 push	 esi
  00007	8b f1		 mov	 esi, ecx

; 138  : 	CTabDlg::OnDestroy();

  00009	e8 00 00 00 00	 call	 ?OnDestroy@CTabDlg@@IAEXXZ ; CTabDlg::OnDestroy

; 139  : 	
; 140  : 	// TODO: Add your message handler code here
; 141  : 	AFX_MANAGE_STATE(AfxGetStaticModuleState()); 

  0000e	e8 00 00 00 00	 call	 ?AfxGetStaticModuleState@@YGPAVAFX_MODULE_STATE@@XZ ; AfxGetStaticModuleState
  00013	50		 push	 eax
  00014	8d 4d f8	 lea	 ecx, DWORD PTR __ctlState$[ebp]
  00017	e8 00 00 00 00	 call	 ??0AFX_MAINTAIN_STATE2@@QAE@PAVAFX_MODULE_STATE@@@Z ; AFX_MAINTAIN_STATE2::AFX_MAINTAIN_STATE2

; 142  : 	 if(m_pGridCtrl)

  0001c	8b 8e e0 03 00
	00		 mov	 ecx, DWORD PTR [esi+992]
  00022	85 c9		 test	 ecx, ecx
  00024	74 11		 je	 SHORT $LN2@OnDestroy

; 143  : 	 {
; 144  : 		delete m_pGridCtrl;

  00026	8b 01		 mov	 eax, DWORD PTR [ecx]
  00028	6a 01		 push	 1
  0002a	ff 50 04	 call	 DWORD PTR [eax+4]

; 145  : 		m_pGridCtrl = NULL;

  0002d	c7 86 e0 03 00
	00 00 00 00 00	 mov	 DWORD PTR [esi+992], 0
$LN2@OnDestroy:

; 146  : 	 } 
; 147  : }

  00037	8d 4d f8	 lea	 ecx, DWORD PTR __ctlState$[ebp]
  0003a	e8 00 00 00 00	 call	 ??1AFX_MAINTAIN_STATE2@@QAE@XZ ; AFX_MAINTAIN_STATE2::~AFX_MAINTAIN_STATE2
  0003f	5e		 pop	 esi
  00040	8b e5		 mov	 esp, ebp
  00042	5d		 pop	 ebp
  00043	c3		 ret	 0
?OnDestroy@CTabCodeSearchFO@@IAEXXZ ENDP		; CTabCodeSearchFO::OnDestroy
_TEXT	ENDS
; Function compile flags: /Ogtp
; File D:\git\src\IBK\IBK_DRFN\ProjSrc\SrcDrfn\Chart\comparechart\TabCodeSearchFO.cpp
; File D:\git\src\IBK\IBK_DRFN\ProjSrc\SrcDrfn\inc\IBaseDefine.h
; File D:\git\src\IBK\IBK_DRFN\ProjSrc\SrcDrfn\Chart\comparechart\TabCodeSearchFO.cpp
; File C:\Program Files (x86)\Microsoft Visual Studio\2019\Community\VC\Tools\MSVC\14.29.30133\atlmfc\include\afxwin2.inl
; File D:\git\src\IBK\IBK_DRFN\ProjSrc\SrcDrfn\Chart\comparechart\TabCodeSearchFO.cpp
; File C:\Program Files (x86)\Microsoft Visual Studio\2019\Community\VC\Tools\MSVC\14.29.30133\atlmfc\include\afxwin2.inl
; File D:\git\src\IBK\IBK_DRFN\ProjSrc\SrcDrfn\Chart\comparechart\TabCodeSearchFO.cpp
; File C:\Program Files (x86)\Microsoft Visual Studio\2019\Community\VC\Tools\MSVC\14.29.30133\atlmfc\include\afxwin2.inl
; File D:\git\src\IBK\IBK_DRFN\ProjSrc\SrcDrfn\Chart\comparechart\TabCodeSearchFO.cpp
; File C:\Program Files (x86)\Microsoft Visual Studio\2019\Community\VC\Tools\MSVC\14.29.30133\atlmfc\include\afxwin2.inl
; File D:\git\src\IBK\IBK_DRFN\ProjSrc\SrcDrfn\Chart\comparechart\TabCodeSearchFO.cpp
;	COMDAT ?OnInitDialog@CTabCodeSearchFO@@MAEHXZ
_TEXT	SEGMENT
_hMainWnd$2 = -36					; size = 4
_szClipFormat$3 = -32					; size = 4
_aBufWnd$4 = -28					; size = 9
__$ArrayPad$ = -16					; size = 4
__$EHRec$ = -12						; size = 12
?OnInitDialog@CTabCodeSearchFO@@MAEHXZ PROC		; CTabCodeSearchFO::OnInitDialog, COMDAT
; _this$ = ecx

; 82   : {

  00000	55		 push	 ebp
  00001	8b ec		 mov	 ebp, esp
  00003	6a ff		 push	 -1
  00005	68 00 00 00 00	 push	 __ehhandler$?OnInitDialog@CTabCodeSearchFO@@MAEHXZ
  0000a	64 a1 00 00 00
	00		 mov	 eax, DWORD PTR fs:0
  00010	50		 push	 eax
  00011	83 ec 18	 sub	 esp, 24			; 00000018H
  00014	a1 00 00 00 00	 mov	 eax, DWORD PTR ___security_cookie
  00019	33 c5		 xor	 eax, ebp
  0001b	89 45 f0	 mov	 DWORD PTR __$ArrayPad$[ebp], eax
  0001e	53		 push	 ebx
  0001f	56		 push	 esi
  00020	57		 push	 edi
  00021	50		 push	 eax
  00022	8d 45 f4	 lea	 eax, DWORD PTR __$EHRec$[ebp]
  00025	64 a3 00 00 00
	00		 mov	 DWORD PTR fs:0, eax
  0002b	8b f9		 mov	 edi, ecx

; 83   : 	CTabDlg::OnInitDialog();

  0002d	e8 00 00 00 00	 call	 ?OnInitDialog@CTabDlg@@MAEHXZ ; CTabDlg::OnInitDialog
  00032	0f 57 c0	 xorps	 xmm0, xmm0
; File D:\git\src\IBK\IBK_DRFN\ProjSrc\SrcDrfn\inc\IBaseDefine.h

; 272  : 	AfxGetHanaroMainWnd(hMainWnd);

  00035	c7 45 dc 00 00
	00 00		 mov	 DWORD PTR _hMainWnd$2[ebp], 0
  0003c	8d 4d e0	 lea	 ecx, DWORD PTR _szClipFormat$3[ebp]
  0003f	66 0f d6 45 e4	 movq	 QWORD PTR _aBufWnd$4[ebp], xmm0
  00044	c6 45 ec 00	 mov	 BYTE PTR _aBufWnd$4[ebp+8], 0
  00048	ff 15 00 00 00
	00		 call	 DWORD PTR __imp_??0?$CStringT@DV?$StrTraitMFC_DLL@DV?$ChTraitsCRT@D@ATL@@@@@ATL@@QAE@XZ
  0004e	68 00 00 00 00	 push	 OFFSET ??_C@_0M@CBBNGGHM@PcTrMng?4dll@
  00053	c7 45 fc 00 00
	00 00		 mov	 DWORD PTR __$EHRec$[ebp+8], 0
  0005a	ff 15 00 00 00
	00		 call	 DWORD PTR __imp__GetModuleHandleA@4
  00060	50		 push	 eax
  00061	68 00 00 00 00	 push	 OFFSET ??_C@_0P@IDMAJEGN@HANAROPCTRMAIN@
  00066	8d 45 e0	 lea	 eax, DWORD PTR _szClipFormat$3[ebp]
  00069	68 00 00 00 00	 push	 OFFSET ??_C@_06NDLAHCHE@?$CFs?$CF08X@
  0006e	50		 push	 eax
  0006f	ff 15 00 00 00
	00		 call	 DWORD PTR __imp_?Format@?$CStringT@DV?$StrTraitMFC_DLL@DV?$ChTraitsCRT@D@ATL@@@@@ATL@@QAAXPBDZZ
  00075	83 c4 10	 add	 esp, 16			; 00000010H
  00078	8d 45 e4	 lea	 eax, DWORD PTR _aBufWnd$4[ebp]
  0007b	6a 09		 push	 9
  0007d	50		 push	 eax
  0007e	ff 75 e0	 push	 DWORD PTR _szClipFormat$3[ebp]
  00081	ff 15 00 00 00
	00		 call	 DWORD PTR __imp__GetEnvironmentVariableA@12
  00087	8d 45 dc	 lea	 eax, DWORD PTR _hMainWnd$2[ebp]
  0008a	50		 push	 eax
  0008b	8d 45 e4	 lea	 eax, DWORD PTR _aBufWnd$4[ebp]
  0008e	68 00 00 00 00	 push	 OFFSET ??_C@_02EMFKHFLK@?$CFX@
  00093	50		 push	 eax
  00094	e8 00 00 00 00	 call	 _sscanf
  00099	83 c4 0c	 add	 esp, 12			; 0000000cH
  0009c	c7 45 fc ff ff
	ff ff		 mov	 DWORD PTR __$EHRec$[ebp+8], -1
  000a3	8d 4d e0	 lea	 ecx, DWORD PTR _szClipFormat$3[ebp]
  000a6	ff 15 00 00 00
	00		 call	 DWORD PTR __imp_??1?$CStringT@DV?$StrTraitMFC_DLL@DV?$ChTraitsCRT@D@ATL@@@@@ATL@@QAE@XZ

; 273  : 
; 274  : 	return ::SendMessage(hMainWnd, RMSG_GETPCTRDATA, (WPARAM)'A', (LPARAM)nID);

  000ac	8b 1d 00 00 00
	00		 mov	 ebx, DWORD PTR __imp__SendMessageA@16
  000b2	6a 0c		 push	 12			; 0000000cH
  000b4	6a 41		 push	 65			; 00000041H
  000b6	ff 35 00 00 00
	00		 push	 DWORD PTR ?RMSG_GETPCTRDATA@@3IB
  000bc	ff 75 dc	 push	 DWORD PTR _hMainWnd$2[ebp]
  000bf	ff d3		 call	 ebx
; File D:\git\src\IBK\IBK_DRFN\ProjSrc\SrcDrfn\Chart\comparechart\TabCodeSearchFO.cpp

; 87   : 	m_strDataDirPath = (LPCTSTR)(LPCSTR)AfxGetPctrData(nID);

  000c1	50		 push	 eax
  000c2	8d 8f e4 04 00
	00		 lea	 ecx, DWORD PTR [edi+1252]
  000c8	ff 15 00 00 00
	00		 call	 DWORD PTR __imp_??4?$CStringT@DV?$StrTraitMFC_DLL@DV?$ChTraitsCRT@D@ATL@@@@@ATL@@QAEAAV01@PBD@Z
; File C:\Program Files (x86)\Microsoft Visual Studio\2019\Community\VC\Tools\MSVC\14.29.30133\atlmfc\include\afxwin2.inl

; 801  : 	{ ASSERT(::IsWindow(m_hWnd)); ::SendMessage(m_hWnd, CB_RESETCONTENT, 0, 0); }

  000ce	6a 00		 push	 0
  000d0	6a 00		 push	 0
  000d2	68 4b 01 00 00	 push	 331			; 0000014bH
  000d7	ff b7 f0 00 00
	00		 push	 DWORD PTR [edi+240]
; File D:\git\src\IBK\IBK_DRFN\ProjSrc\SrcDrfn\Chart\comparechart\TabCodeSearchFO.cpp

; 89   : 	m_nComboSel = 0;

  000dd	c7 87 f0 04 00
	00 00 00 00 00	 mov	 DWORD PTR [edi+1264], 0
; File C:\Program Files (x86)\Microsoft Visual Studio\2019\Community\VC\Tools\MSVC\14.29.30133\atlmfc\include\afxwin2.inl

; 801  : 	{ ASSERT(::IsWindow(m_hWnd)); ::SendMessage(m_hWnd, CB_RESETCONTENT, 0, 0); }

  000e7	ff d3		 call	 ebx
; File D:\git\src\IBK\IBK_DRFN\ProjSrc\SrcDrfn\Chart\comparechart\TabCodeSearchFO.cpp

; 82   : {

  000e9	33 f6		 xor	 esi, esi
  000eb	0f 1f 44 00 00	 npad	 5
$LL4@OnInitDial:
; File C:\Program Files (x86)\Microsoft Visual Studio\2019\Community\VC\Tools\MSVC\14.29.30133\atlmfc\include\afxwin2.inl

; 795  : 	{ ASSERT(::IsWindow(m_hWnd)); return (int)::SendMessage(m_hWnd, CB_ADDSTRING, 0, (LPARAM)lpszString); }

  000f0	ff b6 00 00 00
	00		 push	 DWORD PTR ?FUTOPT_COMBO@@3QBQBDB[esi]
  000f6	6a 00		 push	 0
  000f8	68 43 01 00 00	 push	 323			; 00000143H
  000fd	ff b7 f0 00 00
	00		 push	 DWORD PTR [edi+240]
  00103	ff d3		 call	 ebx
; File D:\git\src\IBK\IBK_DRFN\ProjSrc\SrcDrfn\Chart\comparechart\TabCodeSearchFO.cpp

; 91   : 	for (int nCount = 0; nCount < _countof(FUTOPT_COMBO); ++nCount)

  00105	83 c6 04	 add	 esi, 4
  00108	83 fe 0c	 cmp	 esi, 12			; 0000000cH
  0010b	72 e3		 jb	 SHORT $LL4@OnInitDial
; File C:\Program Files (x86)\Microsoft Visual Studio\2019\Community\VC\Tools\MSVC\14.29.30133\atlmfc\include\afxwin2.inl

; 767  : 	{ ASSERT(::IsWindow(m_hWnd)); return (int)::SendMessage(m_hWnd, CB_SETCURSEL, nSelect, 0); }

  0010d	6a 00		 push	 0
  0010f	ff b7 f0 04 00
	00		 push	 DWORD PTR [edi+1264]
  00115	68 4e 01 00 00	 push	 334			; 0000014eH
  0011a	ff b7 f0 00 00
	00		 push	 DWORD PTR [edi+240]
  00120	ff d3		 call	 ebx
; File D:\git\src\IBK\IBK_DRFN\ProjSrc\SrcDrfn\Chart\comparechart\TabCodeSearchFO.cpp

; 95   : 	InitMasterData();

  00122	8b cf		 mov	 ecx, edi
  00124	e8 00 00 00 00	 call	 ?InitMasterData@CTabCodeSearchFO@@QAEHXZ ; CTabCodeSearchFO::InitMasterData

; 96   : 	InitGrid();

  00129	8b cf		 mov	 ecx, edi
  0012b	e8 00 00 00 00	 call	 ?InitGrid@CTabCodeSearchFO@@QAEXXZ ; CTabCodeSearchFO::InitGrid

; 97   : 	InsertMasterData(m_nIndex);			// master file data grid edit/color setting

  00130	ff b7 d4 04 00
	00		 push	 DWORD PTR [edi+1236]
  00136	8b cf		 mov	 ecx, edi
  00138	e8 00 00 00 00	 call	 ?InsertMasterData@CTabCodeSearchFO@@QAEXH@Z ; CTabCodeSearchFO::InsertMasterData

; 98   : 	return TRUE;  // return TRUE unless you set the focus to a control

  0013d	b8 01 00 00 00	 mov	 eax, 1

; 99   : 	              // EXCEPTION: OCX Property Pages should return FALSE
; 100  : }

  00142	8b 4d f4	 mov	 ecx, DWORD PTR __$EHRec$[ebp]
  00145	64 89 0d 00 00
	00 00		 mov	 DWORD PTR fs:0, ecx
  0014c	59		 pop	 ecx
  0014d	5f		 pop	 edi
  0014e	5e		 pop	 esi
  0014f	5b		 pop	 ebx
  00150	8b 4d f0	 mov	 ecx, DWORD PTR __$ArrayPad$[ebp]
  00153	33 cd		 xor	 ecx, ebp
  00155	e8 00 00 00 00	 call	 @__security_check_cookie@4
  0015a	8b e5		 mov	 esp, ebp
  0015c	5d		 pop	 ebp
  0015d	c3		 ret	 0
_TEXT	ENDS
;	COMDAT text$x
text$x	SEGMENT
__unwindfunclet$?OnInitDialog@CTabCodeSearchFO@@MAEHXZ$0:
  00000	8d 4d e0	 lea	 ecx, DWORD PTR _szClipFormat$3[ebp]
  00003	ff 25 00 00 00
	00		 jmp	 DWORD PTR __imp_??1?$CStringT@DV?$StrTraitMFC_DLL@DV?$ChTraitsCRT@D@ATL@@@@@ATL@@QAE@XZ
  00009	cc		 int	 3
  0000a	cc		 int	 3
  0000b	cc		 int	 3
  0000c	cc		 int	 3
  0000d	cc		 int	 3
__ehhandler$?OnInitDialog@CTabCodeSearchFO@@MAEHXZ:
  0000e	90		 npad	 1
  0000f	90		 npad	 1
  00010	8b 54 24 08	 mov	 edx, DWORD PTR [esp+8]
  00014	8d 42 0c	 lea	 eax, DWORD PTR [edx+12]
  00017	8b 4a d8	 mov	 ecx, DWORD PTR [edx-40]
  0001a	33 c8		 xor	 ecx, eax
  0001c	e8 00 00 00 00	 call	 @__security_check_cookie@4
  00021	8b 4a fc	 mov	 ecx, DWORD PTR [edx-4]
  00024	33 c8		 xor	 ecx, eax
  00026	e8 00 00 00 00	 call	 @__security_check_cookie@4
  0002b	b8 00 00 00 00	 mov	 eax, OFFSET __ehfuncinfo$?OnInitDialog@CTabCodeSearchFO@@MAEHXZ
  00030	e9 00 00 00 00	 jmp	 ___CxxFrameHandler3
text$x	ENDS
?OnInitDialog@CTabCodeSearchFO@@MAEHXZ ENDP		; CTabCodeSearchFO::OnInitDialog
; Function compile flags: /Ogtp
; File D:\git\src\IBK\IBK_DRFN\ProjSrc\SrcDrfn\Chart\comparechart\TabCodeSearchFO.cpp
; File C:\Program Files (x86)\Microsoft Visual Studio\2019\Community\VC\Tools\MSVC\14.29.30133\atlmfc\include\afxwin2.inl
; File D:\git\src\IBK\IBK_DRFN\ProjSrc\SrcDrfn\Chart\comparechart\TabCodeSearchFO.cpp
;	COMDAT ?OnSize@CTabCodeSearchFO@@IAEXIHH@Z
_TEXT	SEGMENT
_nType$ = 8						; size = 4
_cx$ = 12						; size = 4
_cy$ = 16						; size = 4
?OnSize@CTabCodeSearchFO@@IAEXIHH@Z PROC		; CTabCodeSearchFO::OnSize, COMDAT
; _this$ = ecx

; 75   : {

  00000	56		 push	 esi
  00001	8b f1		 mov	 esi, ecx
; File C:\Program Files (x86)\Microsoft Visual Studio\2019\Community\VC\Tools\MSVC\14.29.30133\atlmfc\include\afxwin2.inl

; 330  : 	{ Default(); }

  00003	e8 00 00 00 00	 call	 ?Default@CWnd@@IAEJXZ	; CWnd::Default
; File D:\git\src\IBK\IBK_DRFN\ProjSrc\SrcDrfn\Chart\comparechart\TabCodeSearchFO.cpp

; 131  : 	RecalcLayoutCtrl(m_listFuture);

  00008	6a 00		 push	 0
  0000a	8d 86 e0 01 00
	00		 lea	 eax, DWORD PTR [esi+480]
  00010	8b ce		 mov	 ecx, esi
  00012	50		 push	 eax
  00013	e8 00 00 00 00	 call	 ?RecalcLayoutCtrl@CTabDlg@@IAEXAAVCWnd@@H@Z ; CTabDlg::RecalcLayoutCtrl

; 132  : 	if(m_pGridCtrl)

  00018	8b 86 e0 03 00
	00		 mov	 eax, DWORD PTR [esi+992]
  0001e	85 c0		 test	 eax, eax
  00020	74 0d		 je	 SHORT $LN6@OnSize

; 133  : 		RecalcLayoutCtrl(*m_pGridCtrl,ID_GRIDCTRL);	

  00022	68 74 27 00 00	 push	 10100			; 00002774H
  00027	50		 push	 eax
  00028	8b ce		 mov	 ecx, esi
  0002a	e8 00 00 00 00	 call	 ?RecalcLayoutCtrl@CTabDlg@@IAEXAAVCWnd@@H@Z ; CTabDlg::RecalcLayoutCtrl
$LN6@OnSize:
  0002f	5e		 pop	 esi

; 76   : 	CTabDlg::OnSize(nType, cx, cy);	
; 77   : 	// TODO: Add your message handler code here
; 78   : 	RecalcLayout();	
; 79   : }

  00030	c2 0c 00	 ret	 12			; 0000000cH
?OnSize@CTabCodeSearchFO@@IAEXIHH@Z ENDP		; CTabCodeSearchFO::OnSize
_TEXT	ENDS
; Function compile flags: /Ogtp
; File D:\git\src\IBK\IBK_DRFN\ProjSrc\SrcDrfn\Chart\comparechart\TabCodeSearchFO.cpp
;	COMDAT ?GetCodeInfo@CTabCodeSearchFO@@QAEHHAAH0AAV?$CStringT@DV?$StrTraitMFC_DLL@DV?$ChTraitsCRT@D@ATL@@@@@ATL@@@Z
_TEXT	SEGMENT
_strMonth$ = -16					; size = 4
__$EHRec$ = -12						; size = 12
_nType$ = 8						; size = 4
_strWeek$2 = 12						; size = 4
_row$ = 12						; size = 4
_nExercise$1$ = 16					; size = 4
_col$ = 16						; size = 4
_strCode$ = 20						; size = 4
?GetCodeInfo@CTabCodeSearchFO@@QAEHHAAH0AAV?$CStringT@DV?$StrTraitMFC_DLL@DV?$ChTraitsCRT@D@ATL@@@@@ATL@@@Z PROC ; CTabCodeSearchFO::GetCodeInfo, COMDAT
; _this$ = ecx

; 877  : {

  00000	55		 push	 ebp
  00001	8b ec		 mov	 ebp, esp
  00003	6a ff		 push	 -1
  00005	68 00 00 00 00	 push	 __ehhandler$?GetCodeInfo@CTabCodeSearchFO@@QAEHHAAH0AAV?$CStringT@DV?$StrTraitMFC_DLL@DV?$ChTraitsCRT@D@ATL@@@@@ATL@@@Z
  0000a	64 a1 00 00 00
	00		 mov	 eax, DWORD PTR fs:0
  00010	50		 push	 eax
  00011	51		 push	 ecx
  00012	53		 push	 ebx
  00013	56		 push	 esi
  00014	57		 push	 edi
  00015	a1 00 00 00 00	 mov	 eax, DWORD PTR ___security_cookie
  0001a	33 c5		 xor	 eax, ebp
  0001c	50		 push	 eax
  0001d	8d 45 f4	 lea	 eax, DWORD PTR __$EHRec$[ebp]
  00020	64 a3 00 00 00
	00		 mov	 DWORD PTR fs:0, eax
  00026	8b f9		 mov	 edi, ecx

; 878  : 	BOOL bRet = FALSE;
; 879  : 	CString strMonth;

  00028	8d 4d f0	 lea	 ecx, DWORD PTR _strMonth$[ebp]
  0002b	ff 15 00 00 00
	00		 call	 DWORD PTR __imp_??0?$CStringT@DV?$StrTraitMFC_DLL@DV?$ChTraitsCRT@D@ATL@@@@@ATL@@QAE@XZ

; 880  : 	int nMonth, nExercise;
; 881  : //	switch (nType)
; 882  : //	{
; 883  : //		case ROWCOL:
; 884  : //			{
; 885  : //				if (strCode.GetLength() < 8)		return FALSE;
; 886  : //				
; 887  : //				nGubun = atoi(strCode.Left(1));
; 888  : //				strMonth = strCode.Mid(4, 1);				strMonth.MakeUpper();
; 889  : //				if (strMonth >= "A" && strMonth <= "C")		nMonth = (strMonth[0] - 'A')+10;
; 890  : //				else										nMonth = atoi(strMonth);
; 891  : //				
; 892  : //				nExercise = atoi(strCode.Mid(5, 3));
; 893  : //
; 894  : //				for (int i=FIRST; i <= FOURTH; i++)	
; 895  : //				{	if (nMonth == m_nMonth.nInfo[i])		break;		}
; 896  : //
; 897  : //				if (i > FOURTH)		return FALSE;
; 898  : //
; 899  : //				row = GetGridRow(nExercise);
; 900  : //				col = (nGubun == 2) ? (COL_CENTER - i) : (COL_CENTER + i);
; 901  : //				bRet = TRUE;
; 902  : //			}
; 903  : //			break;
; 904  : //
; 905  : //		case CODE:
; 906  : //			{
; 907  : 				int nRowTotal = m_pGridCtrl->GetRowCount();

  00031	8b 8f e0 03 00
	00		 mov	 ecx, DWORD PTR [edi+992]
  00037	c7 45 fc 00 00
	00 00		 mov	 DWORD PTR __$EHRec$[ebp+8], 0
  0003e	e8 00 00 00 00	 call	 ?GetRowCount@CExGridCtrl@@QAEHXZ ; CExGridCtrl::GetRowCount

; 908  : 				if (row < TITLE_ROW || row > nRowTotal || col == COL_CENTER)		return FALSE;

  00043	8b 4d 0c	 mov	 ecx, DWORD PTR _row$[ebp]
  00046	8b 09		 mov	 ecx, DWORD PTR [ecx]
  00048	83 f9 01	 cmp	 ecx, 1
  0004b	0f 8c 46 01 00
	00		 jl	 $LN3@GetCodeInf
  00051	3b c8		 cmp	 ecx, eax
  00053	0f 8f 3e 01 00
	00		 jg	 $LN3@GetCodeInf
  00059	8b 45 10	 mov	 eax, DWORD PTR _col$[ebp]
  0005c	8b 00		 mov	 eax, DWORD PTR [eax]
  0005e	83 f8 01	 cmp	 eax, 1
  00061	0f 84 30 01 00
	00		 je	 $LN3@GetCodeInf

; 909  : 
; 910  : 				char cPCode = (char)m_pGridCtrl->GetItemData(row, col); // 0024696:     

  00067	50		 push	 eax
  00068	51		 push	 ecx
  00069	8b 8f e0 03 00
	00		 mov	 ecx, DWORD PTR [edi+992]
  0006f	e8 00 00 00 00	 call	 ?GetItemData@CExGridCtrl@@QAEJHH@Z ; CExGridCtrl::GetItemData

; 718  : 	long lPrice = m_lMaxLimit - (row - TITLE_ROW)* 250; 

  00074	8b 97 d0 04 00
	00		 mov	 edx, DWORD PTR [edi+1232]

; 909  : 
; 910  : 				char cPCode = (char)m_pGridCtrl->GetItemData(row, col); // 0024696:     

  0007a	8a d8		 mov	 bl, al

; 718  : 	long lPrice = m_lMaxLimit - (row - TITLE_ROW)* 250; 

  0007c	8b 45 0c	 mov	 eax, DWORD PTR _row$[ebp]

; 911  : 
; 912  : 				//if (col < COL_CENTER)	{ nGubun = 2; nIndex = COL_CENTER - col; }
; 913  : 				//else					{ nGubun = 3; nIndex = col - COL_CENTER; }
; 914  : 
; 915  : 				nMonth = m_nMonth.nInfo[m_nIndex]; 

  0007f	8b b7 d4 04 00
	00		 mov	 esi, DWORD PTR [edi+1236]

; 916  : 				//nYear = m_cYear[m_nIndex];
; 917  : 				nExercise = GetGridExercise(row);
; 918  : 
; 919  : 				if(m_nComboSel == 0 )

  00085	0f be db	 movsx	 ebx, bl

; 718  : 	long lPrice = m_lMaxLimit - (row - TITLE_ROW)* 250; 

  00088	69 08 fa 00 00
	00		 imul	 ecx, DWORD PTR [eax], 250

; 719  : 
; 720  : 	return (int)(lPrice / 100);

  0008e	b8 1f 85 eb 51	 mov	 eax, 1374389535		; 51eb851fH
  00093	2b d1		 sub	 edx, ecx

; 916  : 				//nYear = m_cYear[m_nIndex];
; 917  : 				nExercise = GetGridExercise(row);
; 918  : 
; 919  : 				if(m_nComboSel == 0 )

  00095	8b 8f f0 04 00
	00		 mov	 ecx, DWORD PTR [edi+1264]

; 718  : 	long lPrice = m_lMaxLimit - (row - TITLE_ROW)* 250; 

  0009b	81 c2 fa 00 00
	00		 add	 edx, 250		; 000000faH

; 719  : 
; 720  : 	return (int)(lPrice / 100);

  000a1	f7 ea		 imul	 edx
  000a3	c1 fa 05	 sar	 edx, 5
  000a6	8b c2		 mov	 eax, edx
  000a8	c1 e8 1f	 shr	 eax, 31			; 0000001fH
  000ab	03 c2		 add	 eax, edx
  000ad	89 45 10	 mov	 DWORD PTR _nExercise$1$[ebp], eax

; 916  : 				//nYear = m_cYear[m_nIndex];
; 917  : 				nExercise = GetGridExercise(row);
; 918  : 
; 919  : 				if(m_nComboSel == 0 )

  000b0	85 c9		 test	 ecx, ecx
  000b2	75 19		 jne	 SHORT $LN4@GetCodeInf

; 920  : 					strCode.Format("%1c%02d%1c%1X%03d", cPCode, 1, m_cYear[m_nIndex], nMonth, nExercise); // 0024696:    

  000b4	50		 push	 eax
  000b5	8b 84 b7 00 04
	00 00		 mov	 eax, DWORD PTR [edi+esi*4+1024]
  000bc	50		 push	 eax
  000bd	0f be 84 3e 94
	04 00 00	 movsx	 eax, BYTE PTR [esi+edi+1172]
  000c5	50		 push	 eax
  000c6	6a 01		 push	 1
  000c8	e9 b1 00 00 00	 jmp	 $LN17@GetCodeInf
$LN4@GetCodeInf:

; 921  : 				else if (m_nComboSel == 2)

  000cd	83 f9 02	 cmp	 ecx, 2
  000d0	0f 85 94 00 00
	00		 jne	 $LN6@GetCodeInf

; 922  : 				{
; 923  : 					CString strWeek;

  000d6	8d 4d 0c	 lea	 ecx, DWORD PTR _strWeek$2[ebp]
  000d9	ff 15 00 00 00
	00		 call	 DWORD PTR __imp_??0?$CStringT@DV?$StrTraitMFC_DLL@DV?$ChTraitsCRT@D@ATL@@@@@ATL@@QAE@XZ

; 924  : 					m_ctrlComboMonth.GetLBText(m_ctrlComboMonth.GetCurSel(), strWeek);

  000df	8d 45 0c	 lea	 eax, DWORD PTR _strWeek$2[ebp]
  000e2	c6 45 fc 01	 mov	 BYTE PTR __$EHRec$[ebp+8], 1
  000e6	50		 push	 eax
  000e7	8d 8f 58 01 00
	00		 lea	 ecx, DWORD PTR [edi+344]
  000ed	e8 00 00 00 00	 call	 ?GetCurSel@CComboBox@@QBEHXZ ; CComboBox::GetCurSel
  000f2	50		 push	 eax
  000f3	8d 8f 58 01 00
	00		 lea	 ecx, DWORD PTR [edi+344]
  000f9	e8 00 00 00 00	 call	 ?GetLBText@CComboBox@@QBEXHAAV?$CStringT@DV?$StrTraitMFC_DLL@DV?$ChTraitsCRT@D@ATL@@@@@ATL@@@Z ; CComboBox::GetLBText

; 925  : 					
; 926  : 					if(strWeek.Find("M") >= 0)

  000fe	6a 00		 push	 0
  00100	68 00 00 00 00	 push	 OFFSET ??_C@_01PLPBNMEI@M@
  00105	8d 4d 0c	 lea	 ecx, DWORD PTR _strWeek$2[ebp]
  00108	ff 15 00 00 00
	00		 call	 DWORD PTR __imp_?Find@?$CStringT@DV?$StrTraitMFC_DLL@DV?$ChTraitsCRT@D@ATL@@@@@ATL@@QBEHPBDH@Z
  0010e	8b 8f d4 04 00
	00		 mov	 ecx, DWORD PTR [edi+1236]
  00114	8d 0c 8f	 lea	 ecx, DWORD PTR [edi+ecx*4]
  00117	ff 75 10	 push	 DWORD PTR _nExercise$1$[ebp]
  0011a	ff b1 64 04 00
	00		 push	 DWORD PTR [ecx+1124]
  00120	85 c0		 test	 eax, eax
  00122	78 22		 js	 SHORT $LN8@GetCodeInf

; 927  : 						strCode.Format("%1cAF%02s%03d", cPCode, m_strWeeklyNo[m_nIndex], nExercise);

  00124	53		 push	 ebx
  00125	68 00 00 00 00	 push	 OFFSET ??_C@_0O@EHJFFJCN@?$CF1cAF?$CF02s?$CF03d@
  0012a	ff 75 14	 push	 DWORD PTR _strCode$[ebp]
  0012d	ff 15 00 00 00
	00		 call	 DWORD PTR __imp_?Format@?$CStringT@DV?$StrTraitMFC_DLL@DV?$ChTraitsCRT@D@ATL@@@@@ATL@@QAAXPBDZZ
  00133	83 c4 14	 add	 esp, 20			; 00000014H

; 930  : 				}

  00136	8d 4d 0c	 lea	 ecx, DWORD PTR _strWeek$2[ebp]
  00139	ff 15 00 00 00
	00		 call	 DWORD PTR __imp_??1?$CStringT@DV?$StrTraitMFC_DLL@DV?$ChTraitsCRT@D@ATL@@@@@ATL@@QAE@XZ

; 933  : 
; 934  : 				bRet = TRUE;
; 935  : 
; 936  : //			}
; 937  : //			break;
; 938  : //	}
; 939  : 
; 940  : 	return bRet;

  0013f	be 01 00 00 00	 mov	 esi, 1
  00144	eb 53		 jmp	 SHORT $LN13@GetCodeInf
$LN8@GetCodeInf:

; 928  : 					else
; 929  : 						strCode.Format("%1c%02d%02s%03d", cPCode, 9, m_strWeeklyNo[m_nIndex], nExercise); // 0024696:    

  00146	6a 09		 push	 9
  00148	53		 push	 ebx
  00149	68 00 00 00 00	 push	 OFFSET ??_C@_0BA@MIOHKIAF@?$CF1c?$CF02d?$CF02s?$CF03d@
  0014e	ff 75 14	 push	 DWORD PTR _strCode$[ebp]
  00151	ff 15 00 00 00
	00		 call	 DWORD PTR __imp_?Format@?$CStringT@DV?$StrTraitMFC_DLL@DV?$ChTraitsCRT@D@ATL@@@@@ATL@@QAAXPBDZZ
  00157	83 c4 18	 add	 esp, 24			; 00000018H

; 930  : 				}

  0015a	8d 4d 0c	 lea	 ecx, DWORD PTR _strWeek$2[ebp]
  0015d	ff 15 00 00 00
	00		 call	 DWORD PTR __imp_??1?$CStringT@DV?$StrTraitMFC_DLL@DV?$ChTraitsCRT@D@ATL@@@@@ATL@@QAE@XZ

; 933  : 
; 934  : 				bRet = TRUE;
; 935  : 
; 936  : //			}
; 937  : //			break;
; 938  : //	}
; 939  : 
; 940  : 	return bRet;

  00163	be 01 00 00 00	 mov	 esi, 1
  00168	eb 2f		 jmp	 SHORT $LN13@GetCodeInf
$LN6@GetCodeInf:

; 931  : 				else
; 932  : 					strCode.Format("%1c%02d%1c%1X%03d", cPCode, 5, m_cYear[m_nIndex], nMonth, nExercise); // 0024696:    

  0016a	50		 push	 eax
  0016b	8b 84 b7 00 04
	00 00		 mov	 eax, DWORD PTR [edi+esi*4+1024]
  00172	50		 push	 eax
  00173	0f be 84 3e 94
	04 00 00	 movsx	 eax, BYTE PTR [esi+edi+1172]
  0017b	50		 push	 eax
  0017c	6a 05		 push	 5
$LN17@GetCodeInf:

; 933  : 
; 934  : 				bRet = TRUE;
; 935  : 
; 936  : //			}
; 937  : //			break;
; 938  : //	}
; 939  : 
; 940  : 	return bRet;

  0017e	53		 push	 ebx
  0017f	68 00 00 00 00	 push	 OFFSET ??_C@_0BC@EHJNOJGF@?$CF1c?$CF02d?$CF1c?$CF1X?$CF03d@
  00184	ff 75 14	 push	 DWORD PTR _strCode$[ebp]
  00187	ff 15 00 00 00
	00		 call	 DWORD PTR __imp_?Format@?$CStringT@DV?$StrTraitMFC_DLL@DV?$ChTraitsCRT@D@ATL@@@@@ATL@@QAAXPBDZZ
  0018d	83 c4 1c	 add	 esp, 28			; 0000001cH
  00190	be 01 00 00 00	 mov	 esi, 1
  00195	eb 02		 jmp	 SHORT $LN13@GetCodeInf
$LN3@GetCodeInf:
  00197	33 f6		 xor	 esi, esi
$LN13@GetCodeInf:
  00199	8d 4d f0	 lea	 ecx, DWORD PTR _strMonth$[ebp]
  0019c	ff 15 00 00 00
	00		 call	 DWORD PTR __imp_??1?$CStringT@DV?$StrTraitMFC_DLL@DV?$ChTraitsCRT@D@ATL@@@@@ATL@@QAE@XZ
  001a2	8b c6		 mov	 eax, esi

; 941  : 
; 942  : }

  001a4	8b 4d f4	 mov	 ecx, DWORD PTR __$EHRec$[ebp]
  001a7	64 89 0d 00 00
	00 00		 mov	 DWORD PTR fs:0, ecx
  001ae	59		 pop	 ecx
  001af	5f		 pop	 edi
  001b0	5e		 pop	 esi
  001b1	5b		 pop	 ebx
  001b2	8b e5		 mov	 esp, ebp
  001b4	5d		 pop	 ebp
  001b5	c2 10 00	 ret	 16			; 00000010H
_TEXT	ENDS
;	COMDAT text$x
text$x	SEGMENT
__unwindfunclet$?GetCodeInfo@CTabCodeSearchFO@@QAEHHAAH0AAV?$CStringT@DV?$StrTraitMFC_DLL@DV?$ChTraitsCRT@D@ATL@@@@@ATL@@@Z$0:
  00000	8d 4d f0	 lea	 ecx, DWORD PTR _strMonth$[ebp]
  00003	ff 25 00 00 00
	00		 jmp	 DWORD PTR __imp_??1?$CStringT@DV?$StrTraitMFC_DLL@DV?$ChTraitsCRT@D@ATL@@@@@ATL@@QAE@XZ
__unwindfunclet$?GetCodeInfo@CTabCodeSearchFO@@QAEHHAAH0AAV?$CStringT@DV?$StrTraitMFC_DLL@DV?$ChTraitsCRT@D@ATL@@@@@ATL@@@Z$1:
  00009	8d 4d 0c	 lea	 ecx, DWORD PTR _strWeek$2[ebp]
  0000c	ff 25 00 00 00
	00		 jmp	 DWORD PTR __imp_??1?$CStringT@DV?$StrTraitMFC_DLL@DV?$ChTraitsCRT@D@ATL@@@@@ATL@@QAE@XZ
  00012	cc		 int	 3
  00013	cc		 int	 3
  00014	cc		 int	 3
  00015	cc		 int	 3
  00016	cc		 int	 3
__ehhandler$?GetCodeInfo@CTabCodeSearchFO@@QAEHHAAH0AAV?$CStringT@DV?$StrTraitMFC_DLL@DV?$ChTraitsCRT@D@ATL@@@@@ATL@@@Z:
  00017	90		 npad	 1
  00018	90		 npad	 1
  00019	8b 54 24 08	 mov	 edx, DWORD PTR [esp+8]
  0001d	8d 42 0c	 lea	 eax, DWORD PTR [edx+12]
  00020	8b 4a ec	 mov	 ecx, DWORD PTR [edx-20]
  00023	33 c8		 xor	 ecx, eax
  00025	e8 00 00 00 00	 call	 @__security_check_cookie@4
  0002a	b8 00 00 00 00	 mov	 eax, OFFSET __ehfuncinfo$?GetCodeInfo@CTabCodeSearchFO@@QAEHHAAH0AAV?$CStringT@DV?$StrTraitMFC_DLL@DV?$ChTraitsCRT@D@ATL@@@@@ATL@@@Z
  0002f	e9 00 00 00 00	 jmp	 ___CxxFrameHandler3
text$x	ENDS
?GetCodeInfo@CTabCodeSearchFO@@QAEHHAAH0AAV?$CStringT@DV?$StrTraitMFC_DLL@DV?$ChTraitsCRT@D@ATL@@@@@ATL@@@Z ENDP ; CTabCodeSearchFO::GetCodeInfo
; Function compile flags: /Ogtp
; File D:\git\src\IBK\IBK_DRFN\ProjSrc\SrcDrfn\Chart\comparechart\TabCodeSearchFO.cpp
;	COMDAT ?GetRealExercise@CTabCodeSearchFO@@QAEJH@Z
_TEXT	SEGMENT
_nPrice$ = 8						; size = 4
?GetRealExercise@CTabCodeSearchFO@@QAEJH@Z PROC		; CTabCodeSearchFO::GetRealExercise, COMDAT
; _this$ = ecx

; 741  : { 

  00000	55		 push	 ebp
  00001	8b ec		 mov	 ebp, esp
  00003	56		 push	 esi
  00004	6b 75 08 64	 imul	 esi, DWORD PTR _nPrice$[ebp], 100

; 742  : 	long lPrice = nPrice * 100; 
; 743  : 	if (lPrice % 500) lPrice += 50;	

  00008	b8 d3 4d 62 10	 mov	 eax, 274877907		; 10624dd3H
  0000d	f7 ee		 imul	 esi
  0000f	c1 fa 05	 sar	 edx, 5
  00012	8b c2		 mov	 eax, edx
  00014	c1 e8 1f	 shr	 eax, 31			; 0000001fH
  00017	03 c2		 add	 eax, edx
  00019	69 c8 f4 01 00
	00		 imul	 ecx, eax, 500

; 744  : 	return lPrice;

  0001f	8d 46 32	 lea	 eax, DWORD PTR [esi+50]
  00022	3b f1		 cmp	 esi, ecx
  00024	0f 44 c6	 cmove	 eax, esi
  00027	5e		 pop	 esi

; 745  : }

  00028	5d		 pop	 ebp
  00029	c2 04 00	 ret	 4
?GetRealExercise@CTabCodeSearchFO@@QAEJH@Z ENDP		; CTabCodeSearchFO::GetRealExercise
_TEXT	ENDS
; Function compile flags: /Ogtp
; File D:\git\src\IBK\IBK_DRFN\ProjSrc\SrcDrfn\Chart\comparechart\TabCodeSearchFO.cpp
;	COMDAT ?UpdateHogaData@CTabCodeSearchFO@@QAEXHHNKH@Z
_TEXT	SEGMENT
_strText$ = -16						; size = 4
__$EHRec$ = -12						; size = 12
_nRow$ = 8						; size = 4
_nCol$ = 12						; size = 4
_dPrice$ = 16						; size = 8
_crFgClr$ = 24						; size = 4
_nPoint$ = 28						; size = 4
?UpdateHogaData@CTabCodeSearchFO@@QAEXHHNKH@Z PROC	; CTabCodeSearchFO::UpdateHogaData, COMDAT
; _this$ = ecx

; 725  : {

  00000	55		 push	 ebp
  00001	8b ec		 mov	 ebp, esp
  00003	6a ff		 push	 -1
  00005	68 00 00 00 00	 push	 __ehhandler$?UpdateHogaData@CTabCodeSearchFO@@QAEXHHNKH@Z
  0000a	64 a1 00 00 00
	00		 mov	 eax, DWORD PTR fs:0
  00010	50		 push	 eax
  00011	51		 push	 ecx
  00012	53		 push	 ebx
  00013	56		 push	 esi
  00014	57		 push	 edi
  00015	a1 00 00 00 00	 mov	 eax, DWORD PTR ___security_cookie
  0001a	33 c5		 xor	 eax, ebp
  0001c	50		 push	 eax
  0001d	8d 45 f4	 lea	 eax, DWORD PTR __$EHRec$[ebp]
  00020	64 a3 00 00 00
	00		 mov	 DWORD PTR fs:0, eax
  00026	8b d9		 mov	 ebx, ecx

; 726  : 
; 727  : 	CString strText;

  00028	8d 4d f0	 lea	 ecx, DWORD PTR _strText$[ebp]
  0002b	ff 15 00 00 00
	00		 call	 DWORD PTR __imp_??0?$CStringT@DV?$StrTraitMFC_DLL@DV?$ChTraitsCRT@D@ATL@@@@@ATL@@QAE@XZ

; 728  : 	strText.Format("%.*f", nPoint, dPrice);

  00031	f2 0f 10 45 10	 movsd	 xmm0, QWORD PTR _dPrice$[ebp]
  00036	8d 45 f0	 lea	 eax, DWORD PTR _strText$[ebp]
  00039	83 ec 08	 sub	 esp, 8
  0003c	c7 45 fc 00 00
	00 00		 mov	 DWORD PTR __$EHRec$[ebp+8], 0
  00043	f2 0f 11 04 24	 movsd	 QWORD PTR [esp], xmm0
  00048	ff 75 1c	 push	 DWORD PTR _nPoint$[ebp]
  0004b	68 00 00 00 00	 push	 OFFSET ??_C@_04HGGMHPIM@?$CF?4?$CKf@
  00050	50		 push	 eax
  00051	ff 15 00 00 00
	00		 call	 DWORD PTR __imp_?Format@?$CStringT@DV?$StrTraitMFC_DLL@DV?$ChTraitsCRT@D@ATL@@@@@ATL@@QAAXPBDZZ

; 729  : 
; 730  : 	//  
; 731  : 	m_pGridCtrl->SetItemText(nRow, nCol, strText);

  00057	8b 7d 0c	 mov	 edi, DWORD PTR _nCol$[ebp]
  0005a	83 c4 14	 add	 esp, 20			; 00000014H
  0005d	8b 75 08	 mov	 esi, DWORD PTR _nRow$[ebp]
  00060	8b 8b e0 03 00
	00		 mov	 ecx, DWORD PTR [ebx+992]
  00066	ff 75 f0	 push	 DWORD PTR _strText$[ebp]
  00069	57		 push	 edi
  0006a	56		 push	 esi
  0006b	e8 00 00 00 00	 call	 ?SetItemText@CExGridCtrl@@QAEHHHPBD@Z ; CExGridCtrl::SetItemText

; 732  : 
; 733  : 	//      
; 734  : 	m_pGridCtrl->SetItemFgColour(nRow, nCol, crFgClr);

  00070	ff 75 18	 push	 DWORD PTR _crFgClr$[ebp]
  00073	8b 8b e0 03 00
	00		 mov	 ecx, DWORD PTR [ebx+992]
  00079	57		 push	 edi
  0007a	56		 push	 esi
  0007b	e8 00 00 00 00	 call	 ?SetItemFgColour@CExGridCtrl@@QAEHHHK@Z ; CExGridCtrl::SetItemFgColour

; 735  : 
; 736  : 	m_pGridCtrl->RedrawCell(nRow, nCol);

  00080	8b 8b e0 03 00
	00		 mov	 ecx, DWORD PTR [ebx+992]
  00086	6a 00		 push	 0
  00088	57		 push	 edi
  00089	56		 push	 esi
  0008a	e8 00 00 00 00	 call	 ?RedrawCell@CExGridCtrl@@QAEHHHPAVCDC@@@Z ; CExGridCtrl::RedrawCell

; 737  : }

  0008f	8d 4d f0	 lea	 ecx, DWORD PTR _strText$[ebp]
  00092	ff 15 00 00 00
	00		 call	 DWORD PTR __imp_??1?$CStringT@DV?$StrTraitMFC_DLL@DV?$ChTraitsCRT@D@ATL@@@@@ATL@@QAE@XZ
  00098	8b 4d f4	 mov	 ecx, DWORD PTR __$EHRec$[ebp]
  0009b	64 89 0d 00 00
	00 00		 mov	 DWORD PTR fs:0, ecx
  000a2	59		 pop	 ecx
  000a3	5f		 pop	 edi
  000a4	5e		 pop	 esi
  000a5	5b		 pop	 ebx
  000a6	8b e5		 mov	 esp, ebp
  000a8	5d		 pop	 ebp
  000a9	c2 18 00	 ret	 24			; 00000018H
_TEXT	ENDS
;	COMDAT text$x
text$x	SEGMENT
__unwindfunclet$?UpdateHogaData@CTabCodeSearchFO@@QAEXHHNKH@Z$0:
  00000	8d 4d f0	 lea	 ecx, DWORD PTR _strText$[ebp]
  00003	ff 25 00 00 00
	00		 jmp	 DWORD PTR __imp_??1?$CStringT@DV?$StrTraitMFC_DLL@DV?$ChTraitsCRT@D@ATL@@@@@ATL@@QAE@XZ
  00009	cc		 int	 3
  0000a	cc		 int	 3
  0000b	cc		 int	 3
  0000c	cc		 int	 3
  0000d	cc		 int	 3
__ehhandler$?UpdateHogaData@CTabCodeSearchFO@@QAEXHHNKH@Z:
  0000e	90		 npad	 1
  0000f	90		 npad	 1
  00010	8b 54 24 08	 mov	 edx, DWORD PTR [esp+8]
  00014	8d 42 0c	 lea	 eax, DWORD PTR [edx+12]
  00017	8b 4a ec	 mov	 ecx, DWORD PTR [edx-20]
  0001a	33 c8		 xor	 ecx, eax
  0001c	e8 00 00 00 00	 call	 @__security_check_cookie@4
  00021	b8 00 00 00 00	 mov	 eax, OFFSET __ehfuncinfo$?UpdateHogaData@CTabCodeSearchFO@@QAEXHHNKH@Z
  00026	e9 00 00 00 00	 jmp	 ___CxxFrameHandler3
text$x	ENDS
?UpdateHogaData@CTabCodeSearchFO@@QAEXHHNKH@Z ENDP	; CTabCodeSearchFO::UpdateHogaData
; Function compile flags: /Ogtp
; File D:\git\src\IBK\IBK_DRFN\ProjSrc\SrcDrfn\Chart\comparechart\TabCodeSearchFO.cpp
;	COMDAT ?GetGridExercise@CTabCodeSearchFO@@QAEHH@Z
_TEXT	SEGMENT
_row$ = 8						; size = 4
?GetGridExercise@CTabCodeSearchFO@@QAEHH@Z PROC		; CTabCodeSearchFO::GetGridExercise, COMDAT
; _this$ = ecx

; 717  : {

  00000	55		 push	 ebp
  00001	8b ec		 mov	 ebp, esp

; 718  : 	long lPrice = m_lMaxLimit - (row - TITLE_ROW)* 250; 

  00003	69 45 08 fa 00
	00 00		 imul	 eax, DWORD PTR _row$[ebp], 250
  0000a	8b 89 d0 04 00
	00		 mov	 ecx, DWORD PTR [ecx+1232]
  00010	2b c8		 sub	 ecx, eax

; 719  : 
; 720  : 	return (int)(lPrice / 100);

  00012	b8 1f 85 eb 51	 mov	 eax, 1374389535		; 51eb851fH
  00017	81 c1 fa 00 00
	00		 add	 ecx, 250		; 000000faH
  0001d	f7 e9		 imul	 ecx
  0001f	c1 fa 05	 sar	 edx, 5
  00022	8b c2		 mov	 eax, edx
  00024	c1 e8 1f	 shr	 eax, 31			; 0000001fH
  00027	03 c2		 add	 eax, edx

; 721  : }

  00029	5d		 pop	 ebp
  0002a	c2 04 00	 ret	 4
?GetGridExercise@CTabCodeSearchFO@@QAEHH@Z ENDP		; CTabCodeSearchFO::GetGridExercise
_TEXT	ENDS
; Function compile flags: /Ogtp
; File D:\git\src\IBK\IBK_DRFN\ProjSrc\SrcDrfn\Chart\comparechart\TabCodeSearchFO.cpp
;	COMDAT ?GetGridRow@CTabCodeSearchFO@@QAEHH@Z
_TEXT	SEGMENT
_nExercise$ = 8						; size = 4
?GetGridRow@CTabCodeSearchFO@@QAEHH@Z PROC		; CTabCodeSearchFO::GetGridRow, COMDAT
; _this$ = ecx

; 708  : {

  00000	55		 push	 ebp
  00001	8b ec		 mov	 ebp, esp
  00003	56		 push	 esi
  00004	6b 75 08 64	 imul	 esi, DWORD PTR _nExercise$[ebp], 100

; 743  : 	if (lPrice % 500) lPrice += 50;	

  00008	b8 d3 4d 62 10	 mov	 eax, 274877907		; 10624dd3H

; 708  : {

  0000d	57		 push	 edi
  0000e	8b f9		 mov	 edi, ecx

; 743  : 	if (lPrice % 500) lPrice += 50;	

  00010	f7 ee		 imul	 esi

; 709  : 	// int() -> long() (:92 ==> 9250 : 92.50)
; 710  : 	long lPrice = GetRealExercise(nExercise);
; 711  : 
; 712  :     return TITLE_ROW + ((m_lMaxLimit - lPrice) / 250); 

  00012	b8 d3 4d 62 10	 mov	 eax, 274877907		; 10624dd3H

; 743  : 	if (lPrice % 500) lPrice += 50;	

  00017	c1 fa 05	 sar	 edx, 5
  0001a	8b ca		 mov	 ecx, edx
  0001c	c1 e9 1f	 shr	 ecx, 31			; 0000001fH
  0001f	03 ca		 add	 ecx, edx

; 709  : 	// int() -> long() (:92 ==> 9250 : 92.50)
; 710  : 	long lPrice = GetRealExercise(nExercise);
; 711  : 
; 712  :     return TITLE_ROW + ((m_lMaxLimit - lPrice) / 250); 

  00021	8d 56 32	 lea	 edx, DWORD PTR [esi+50]

; 743  : 	if (lPrice % 500) lPrice += 50;	

  00024	69 c9 f4 01 00
	00		 imul	 ecx, ecx, 500

; 709  : 	// int() -> long() (:92 ==> 9250 : 92.50)
; 710  : 	long lPrice = GetRealExercise(nExercise);
; 711  : 
; 712  :     return TITLE_ROW + ((m_lMaxLimit - lPrice) / 250); 

  0002a	3b f1		 cmp	 esi, ecx
  0002c	8b 8f d0 04 00
	00		 mov	 ecx, DWORD PTR [edi+1232]
  00032	5f		 pop	 edi
  00033	0f 44 d6	 cmove	 edx, esi
  00036	2b ca		 sub	 ecx, edx
  00038	f7 e9		 imul	 ecx
  0003a	5e		 pop	 esi
  0003b	c1 fa 04	 sar	 edx, 4
  0003e	8b c2		 mov	 eax, edx
  00040	c1 e8 1f	 shr	 eax, 31			; 0000001fH
  00043	40		 inc	 eax
  00044	03 c2		 add	 eax, edx

; 713  : }

  00046	5d		 pop	 ebp
  00047	c2 04 00	 ret	 4
?GetGridRow@CTabCodeSearchFO@@QAEHH@Z ENDP		; CTabCodeSearchFO::GetGridRow
_TEXT	ENDS
; Function compile flags: /Ogtp
; File D:\git\src\IBK\IBK_DRFN\ProjSrc\SrcDrfn\Chart\comparechart\TabCodeSearchFO.cpp
; File C:\Program Files (x86)\Microsoft Visual Studio\2019\Community\VC\Tools\MSVC\14.29.30133\atlmfc\include\afxtempl.h
; File C:\Program Files (x86)\Microsoft Visual Studio\2019\Community\VC\Tools\MSVC\14.29.30133\atlmfc\include\afxwin2.inl
; File C:\Program Files (x86)\Microsoft Visual Studio\2019\Community\VC\Tools\MSVC\14.29.30133\atlmfc\include\afxtempl.h
; File C:\Program Files (x86)\Microsoft Visual Studio\2019\Community\VC\Tools\MSVC\14.29.30133\atlmfc\include\afxwin2.inl
; File C:\Program Files (x86)\Microsoft Visual Studio\2019\Community\VC\Tools\MSVC\14.29.30133\atlmfc\include\afxtempl.h
; File D:\git\src\IBK\IBK_DRFN\ProjSrc\SrcDrfn\Chart\comparechart\TabCodeSearchFO.cpp
; File C:\Program Files (x86)\Microsoft Visual Studio\2019\Community\VC\Tools\MSVC\14.29.30133\atlmfc\include\afxtempl.h
; File C:\Program Files (x86)\Microsoft Visual Studio\2019\Community\VC\Tools\MSVC\14.29.30133\atlmfc\include\afx.inl
; File C:\Program Files (x86)\Microsoft Visual Studio\2019\Community\VC\Tools\MSVC\14.29.30133\atlmfc\include\afxtempl.h
; File D:\git\src\IBK\IBK_DRFN\ProjSrc\SrcDrfn\Chart\comparechart\TabCodeSearchFO.cpp
; File C:\Program Files (x86)\Microsoft Visual Studio\2019\Community\VC\Tools\MSVC\14.29.30133\atlmfc\include\afxtempl.h
; File D:\git\src\IBK\IBK_DRFN\ProjSrc\SrcDrfn\Chart\comparechart\TabCodeSearchFO.cpp
; File C:\Program Files (x86)\Microsoft Visual Studio\2019\Community\VC\Tools\MSVC\14.29.30133\atlmfc\include\afx.inl
; File D:\git\src\IBK\IBK_DRFN\ProjSrc\SrcDrfn\Chart\comparechart\TabCodeSearchFO.cpp
; File C:\Program Files (x86)\Microsoft Visual Studio\2019\Community\VC\Tools\MSVC\14.29.30133\atlmfc\include\afx.inl
; File D:\git\src\IBK\IBK_DRFN\ProjSrc\SrcDrfn\Chart\comparechart\TabCodeSearchFO.cpp
; File C:\Program Files (x86)\Microsoft Visual Studio\2019\Community\VC\Tools\MSVC\14.29.30133\atlmfc\include\afx.inl
; File D:\git\src\IBK\IBK_DRFN\ProjSrc\SrcDrfn\Chart\comparechart\TabCodeSearchFO.cpp
; File C:\Program Files (x86)\Microsoft Visual Studio\2019\Community\VC\Tools\MSVC\14.29.30133\atlmfc\include\afx.inl
; File D:\git\src\IBK\IBK_DRFN\ProjSrc\SrcDrfn\Chart\comparechart\TabCodeSearchFO.cpp
; File C:\Program Files (x86)\Microsoft Visual Studio\2019\Community\VC\Tools\MSVC\14.29.30133\atlmfc\include\afx.inl
; File D:\git\src\IBK\IBK_DRFN\ProjSrc\SrcDrfn\Chart\comparechart\TabCodeSearchFO.cpp
; File C:\Program Files (x86)\Microsoft Visual Studio\2019\Community\VC\Tools\MSVC\14.29.30133\atlmfc\include\afx.inl
; File D:\git\src\IBK\IBK_DRFN\ProjSrc\SrcDrfn\Chart\comparechart\TabCodeSearchFO.cpp
; File C:\Program Files (x86)\Microsoft Visual Studio\2019\Community\VC\Tools\MSVC\14.29.30133\atlmfc\include\afx.inl
; File D:\git\src\IBK\IBK_DRFN\ProjSrc\SrcDrfn\Chart\comparechart\TabCodeSearchFO.cpp
; File C:\Program Files (x86)\Microsoft Visual Studio\2019\Community\VC\Tools\MSVC\14.29.30133\atlmfc\include\afx.inl
; File D:\git\src\IBK\IBK_DRFN\ProjSrc\SrcDrfn\Chart\comparechart\TabCodeSearchFO.cpp
; File C:\Program Files (x86)\Microsoft Visual Studio\2019\Community\VC\Tools\MSVC\14.29.30133\atlmfc\include\afx.inl
; File D:\git\src\IBK\IBK_DRFN\ProjSrc\SrcDrfn\Chart\comparechart\TabCodeSearchFO.cpp
; File C:\Program Files (x86)\Microsoft Visual Studio\2019\Community\VC\Tools\MSVC\14.29.30133\atlmfc\include\afx.inl
; File D:\git\src\IBK\IBK_DRFN\ProjSrc\SrcDrfn\Chart\comparechart\TabCodeSearchFO.cpp
; File C:\Program Files (x86)\Microsoft Visual Studio\2019\Community\VC\Tools\MSVC\14.29.30133\atlmfc\include\afx.inl
; File D:\git\src\IBK\IBK_DRFN\ProjSrc\SrcDrfn\Chart\comparechart\TabCodeSearchFO.cpp
; File C:\Program Files (x86)\Microsoft Visual Studio\2019\Community\VC\Tools\MSVC\14.29.30133\atlmfc\include\afxwin2.inl
; File D:\git\src\IBK\IBK_DRFN\ProjSrc\SrcDrfn\Chart\comparechart\TabCodeSearchFO.cpp
; File C:\Program Files (x86)\Microsoft Visual Studio\2019\Community\VC\Tools\MSVC\14.29.30133\atlmfc\include\afxwin2.inl
; File D:\git\src\IBK\IBK_DRFN\ProjSrc\SrcDrfn\Chart\comparechart\TabCodeSearchFO.cpp
; File C:\Program Files (x86)\Microsoft Visual Studio\2019\Community\VC\Tools\MSVC\14.29.30133\atlmfc\include\afxwin2.inl
; File D:\git\src\IBK\IBK_DRFN\ProjSrc\SrcDrfn\Chart\comparechart\TabCodeSearchFO.cpp
; File C:\Program Files (x86)\Microsoft Visual Studio\2019\Community\VC\Tools\MSVC\14.29.30133\atlmfc\include\afxcoll.inl
; File C:\Program Files (x86)\Microsoft Visual Studio\2019\Community\VC\Tools\MSVC\14.29.30133\atlmfc\include\cstringt.h
; File C:\Program Files (x86)\Microsoft Visual Studio\2019\Community\VC\Tools\MSVC\14.29.30133\atlmfc\include\afxcoll.inl
; File C:\Program Files (x86)\Microsoft Visual Studio\2019\Community\VC\Tools\MSVC\14.29.30133\atlmfc\include\cstringt.h
; File D:\git\src\IBK\IBK_DRFN\ProjSrc\SrcDrfn\Chart\comparechart\TabCodeSearchFO.cpp
; File C:\Program Files (x86)\Microsoft Visual Studio\2019\Community\VC\Tools\MSVC\14.29.30133\atlmfc\include\afxcoll.inl
; File D:\git\src\IBK\IBK_DRFN\ProjSrc\SrcDrfn\Chart\comparechart\TabCodeSearchFO.cpp
; File C:\Program Files (x86)\Microsoft Visual Studio\2019\Community\VC\Tools\MSVC\14.29.30133\atlmfc\include\afxcoll.inl
; File D:\git\src\IBK\IBK_DRFN\ProjSrc\SrcDrfn\Chart\comparechart\TabCodeSearchFO.cpp
; File C:\Program Files (x86)\Microsoft Visual Studio\2019\Community\VC\Tools\MSVC\14.29.30133\atlmfc\include\afxcoll.inl
; File D:\git\src\IBK\IBK_DRFN\ProjSrc\SrcDrfn\Chart\comparechart\TabCodeSearchFO.cpp
; File C:\Program Files (x86)\Microsoft Visual Studio\2019\Community\VC\Tools\MSVC\14.29.30133\atlmfc\include\afxcoll.inl
; File D:\git\src\IBK\IBK_DRFN\ProjSrc\SrcDrfn\Chart\comparechart\TabCodeSearchFO.cpp
; File C:\Program Files (x86)\Microsoft Visual Studio\2019\Community\VC\Tools\MSVC\14.29.30133\atlmfc\include\afxcoll.inl
; File D:\git\src\IBK\IBK_DRFN\ProjSrc\SrcDrfn\Chart\comparechart\TabCodeSearchFO.cpp
; File C:\Program Files (x86)\Microsoft Visual Studio\2019\Community\VC\Tools\MSVC\14.29.30133\atlmfc\include\afxcoll.inl
; File D:\git\src\IBK\IBK_DRFN\ProjSrc\SrcDrfn\Chart\comparechart\TabCodeSearchFO.cpp
; File C:\Program Files (x86)\Microsoft Visual Studio\2019\Community\VC\Tools\MSVC\14.29.30133\atlmfc\include\atlsimpstr.h
; File D:\git\src\IBK\IBK_DRFN\ProjSrc\SrcDrfn\Chart\comparechart\TabCodeSearchFO.cpp
; File C:\Program Files (x86)\Microsoft Visual Studio\2019\Community\VC\Tools\MSVC\14.29.30133\atlmfc\include\cstringt.h
; File D:\git\src\IBK\IBK_DRFN\ProjSrc\SrcDrfn\Chart\comparechart\TabCodeSearchFO.cpp
; File C:\Program Files (x86)\Microsoft Visual Studio\2019\Community\VC\Tools\MSVC\14.29.30133\atlmfc\include\cstringt.h
; File D:\git\src\IBK\IBK_DRFN\ProjSrc\SrcDrfn\Chart\comparechart\TabCodeSearchFO.cpp
; File C:\Program Files (x86)\Microsoft Visual Studio\2019\Community\VC\Tools\MSVC\14.29.30133\atlmfc\include\afxtempl.h
; File D:\git\src\IBK\IBK_DRFN\ProjSrc\SrcDrfn\Chart\comparechart\TabCodeSearchFO.cpp
; File D:\git\src\IBK\IBK_DRFN\ProjSrc\SrcDrfn\Chart\comparechart\define\ChartMsgDef.h
; File D:\git\src\IBK\IBK_DRFN\ProjSrc\SrcDrfn\Chart\comparechart\TabCodeSearchFO.cpp
; File D:\git\src\IBK\IBK_DRFN\ProjSrc\SrcDrfn\Chart\comparechart\define\ChartMsgDef.h
; File D:\git\src\IBK\IBK_DRFN\ProjSrc\SrcDrfn\Chart\comparechart\TabCodeSearchFO.cpp
; File C:\Program Files (x86)\Microsoft Visual Studio\2019\Community\VC\Tools\MSVC\14.29.30133\atlmfc\include\afxwin2.inl
; File D:\git\src\IBK\IBK_DRFN\ProjSrc\SrcDrfn\Chart\comparechart\TabCodeSearchFO.cpp
; File C:\Program Files (x86)\Microsoft Visual Studio\2019\Community\VC\Tools\MSVC\14.29.30133\atlmfc\include\afxwin2.inl
; File D:\git\src\IBK\IBK_DRFN\ProjSrc\SrcDrfn\Chart\comparechart\TabCodeSearchFO.cpp
; File C:\Program Files (x86)\Microsoft Visual Studio\2019\Community\VC\Tools\MSVC\14.29.30133\atlmfc\include\afxwin2.inl
; File D:\git\src\IBK\IBK_DRFN\ProjSrc\SrcDrfn\Chart\comparechart\TabCodeSearchFO.cpp
; File C:\Program Files (x86)\Microsoft Visual Studio\2019\Community\VC\Tools\MSVC\14.29.30133\atlmfc\include\afxwin2.inl
; File D:\git\src\IBK\IBK_DRFN\ProjSrc\SrcDrfn\Chart\comparechart\TabCodeSearchFO.cpp
; File C:\Program Files (x86)\Microsoft Visual Studio\2019\Community\VC\Tools\MSVC\14.29.30133\atlmfc\include\afxcoll.inl
; File D:\git\src\IBK\IBK_DRFN\ProjSrc\SrcDrfn\Chart\comparechart\TabCodeSearchFO.cpp
; File C:\Program Files (x86)\Microsoft Visual Studio\2019\Community\VC\Tools\MSVC\14.29.30133\atlmfc\include\afxcoll.inl
; File D:\git\src\IBK\IBK_DRFN\ProjSrc\SrcDrfn\Chart\comparechart\TabCodeSearchFO.cpp
; File C:\Program Files (x86)\Microsoft Visual Studio\2019\Community\VC\Tools\MSVC\14.29.30133\atlmfc\include\afxcoll.inl
; File D:\git\src\IBK\IBK_DRFN\ProjSrc\SrcDrfn\Chart\comparechart\TabCodeSearchFO.cpp
; File C:\Program Files (x86)\Microsoft Visual Studio\2019\Community\VC\Tools\MSVC\14.29.30133\atlmfc\include\afxwin2.inl
; File D:\git\src\IBK\IBK_DRFN\ProjSrc\SrcDrfn\Chart\comparechart\TabCodeSearchFO.cpp
; File C:\Program Files (x86)\Microsoft Visual Studio\2019\Community\VC\Tools\MSVC\14.29.30133\atlmfc\include\afxcoll.inl
; File D:\git\src\IBK\IBK_DRFN\ProjSrc\SrcDrfn\Chart\comparechart\TabCodeSearchFO.cpp
;	COMDAT ?InitMasterData@CTabCodeSearchFO@@QAEHXZ
_TEXT	SEGMENT
_arrCode$ = -316					; size = 20
$T2 = -296						; size = 4
_arrName$ = -292					; size = 20
$T3 = -272						; size = 4
$T4 = -268						; size = 4
$T5 = -264						; size = 4
$T6 = -260						; size = 4
$T7 = -256						; size = 4
$T8 = -252						; size = 4
$T9 = -248						; size = 4
$T10 = -244						; size = 4
_nMondayMonth$1$ = -240					; size = 4
_pGateMng$ = -236					; size = 4
_nMondayMonthNow$1$ = -232				; size = 4
_pastrValueGubun$ = -228				; size = 4
_pastrFinalYM$ = -224					; size = 4
_pastrEventPrice$ = -220				; size = 4
_this$GSCopy$1$ = -216					; size = 4
_strName$ = -212					; size = 4
_MaxExercise$1$ = -208					; size = 4
_nIndex$1$ = -204					; size = 4
_nMonthNow$1$ = -200					; size = 4
tv2529 = -196						; size = 4
tv2521 = -196						; size = 4
_nPrevExercise$1$ = -192				; size = 4
tv2528 = -192						; size = 4
_pastrJongEngName$ = -188				; size = 4
tv2490 = -184						; size = 4
_nMonth$ = -180						; size = 4
tv2493 = -176						; size = 4
$T11 = -172						; size = 4
$T12 = -172						; size = 4
$T13 = -172						; size = 4
$T14 = -172						; size = 4
$T15 = -172						; size = 4
$T16 = -172						; size = 4
$T17 = -172						; size = 4
_strMonth$ = -168					; size = 4
tv2494 = -164						; size = 4
_cGubunPut$18 = -158					; size = 1
_cMCode$19 = -157					; size = 1
tv2491 = -156						; size = 4
_szClipFormat$20 = -156					; size = 4
_strCodeName$ = -152					; size = 4
_nIndexMonth$1$ = -148					; size = 4
_pastrJongCode$ = -144					; size = 4
_pastrJongName$ = -140					; size = 4
_cGubun$ = -133						; size = 1
_strCode$ = -132					; size = 4
_info$21 = -128						; size = 100
_aBufWnd$22 = -28					; size = 9
__$ArrayPad$ = -16					; size = 4
__$EHRec$ = -12						; size = 12
?InitMasterData@CTabCodeSearchFO@@QAEHXZ PROC		; CTabCodeSearchFO::InitMasterData, COMDAT
; _this$ = ecx

; 434  : {

  00000	55		 push	 ebp
  00001	8b ec		 mov	 ebp, esp
  00003	6a ff		 push	 -1
  00005	68 00 00 00 00	 push	 __ehhandler$?InitMasterData@CTabCodeSearchFO@@QAEHXZ
  0000a	64 a1 00 00 00
	00		 mov	 eax, DWORD PTR fs:0
  00010	50		 push	 eax
  00011	81 ec 30 01 00
	00		 sub	 esp, 304		; 00000130H
  00017	a1 00 00 00 00	 mov	 eax, DWORD PTR ___security_cookie
  0001c	33 c5		 xor	 eax, ebp
  0001e	89 45 f0	 mov	 DWORD PTR __$ArrayPad$[ebp], eax
  00021	56		 push	 esi
  00022	57		 push	 edi
  00023	50		 push	 eax
  00024	8d 45 f4	 lea	 eax, DWORD PTR __$EHRec$[ebp]
  00027	64 a3 00 00 00
	00		 mov	 DWORD PTR fs:0, eax
  0002d	8b f1		 mov	 esi, ecx
  0002f	89 b5 28 ff ff
	ff		 mov	 DWORD PTR _this$GSCopy$1$[ebp], esi
  00035	0f 57 c0	 xorps	 xmm0, xmm0

; 435  : 	int nID = 5;
; 436  : 	IGateManager* pGateMng;	AfxGetIGateManager(pGateMng);

  00038	c7 85 14 ff ff
	ff 00 00 00 00	 mov	 DWORD PTR _pGateMng$[ebp], 0
  00042	8d 8d 64 ff ff
	ff		 lea	 ecx, DWORD PTR _szClipFormat$20[ebp]
  00048	66 0f d6 45 e4	 movq	 QWORD PTR _aBufWnd$22[ebp], xmm0
  0004d	c6 45 ec 00	 mov	 BYTE PTR _aBufWnd$22[ebp+8], 0
  00051	ff 15 00 00 00
	00		 call	 DWORD PTR __imp_??0?$CStringT@DV?$StrTraitMFC_DLL@DV?$ChTraitsCRT@D@ATL@@@@@ATL@@QAE@XZ
  00057	68 00 00 00 00	 push	 OFFSET ??_C@_0M@CBBNGGHM@PcTrMng?4dll@
  0005c	c7 45 fc 00 00
	00 00		 mov	 DWORD PTR __$EHRec$[ebp+8], 0
  00063	ff 15 00 00 00
	00		 call	 DWORD PTR __imp__GetModuleHandleA@4
  00069	50		 push	 eax
  0006a	68 00 00 00 00	 push	 OFFSET ??_C@_0BD@CMCCCNBF@HANAROIGATEMANAGER@
  0006f	8d 85 64 ff ff
	ff		 lea	 eax, DWORD PTR _szClipFormat$20[ebp]
  00075	68 00 00 00 00	 push	 OFFSET ??_C@_06NDLAHCHE@?$CFs?$CF08X@
  0007a	50		 push	 eax
  0007b	ff 15 00 00 00
	00		 call	 DWORD PTR __imp_?Format@?$CStringT@DV?$StrTraitMFC_DLL@DV?$ChTraitsCRT@D@ATL@@@@@ATL@@QAAXPBDZZ
  00081	83 c4 10	 add	 esp, 16			; 00000010H
  00084	8d 45 e4	 lea	 eax, DWORD PTR _aBufWnd$22[ebp]
  00087	6a 09		 push	 9
  00089	50		 push	 eax
  0008a	ff b5 64 ff ff
	ff		 push	 DWORD PTR _szClipFormat$20[ebp]
  00090	ff 15 00 00 00
	00		 call	 DWORD PTR __imp__GetEnvironmentVariableA@12
  00096	8d 85 14 ff ff
	ff		 lea	 eax, DWORD PTR _pGateMng$[ebp]
  0009c	50		 push	 eax
  0009d	8d 45 e4	 lea	 eax, DWORD PTR _aBufWnd$22[ebp]
  000a0	68 00 00 00 00	 push	 OFFSET ??_C@_02EMFKHFLK@?$CFX@
  000a5	50		 push	 eax
  000a6	e8 00 00 00 00	 call	 _sscanf
  000ab	83 c4 0c	 add	 esp, 12			; 0000000cH
  000ae	c7 45 fc ff ff
	ff ff		 mov	 DWORD PTR __$EHRec$[ebp+8], -1
  000b5	8d 8d 64 ff ff
	ff		 lea	 ecx, DWORD PTR _szClipFormat$20[ebp]
  000bb	ff 15 00 00 00
	00		 call	 DWORD PTR __imp_??1?$CStringT@DV?$StrTraitMFC_DLL@DV?$ChTraitsCRT@D@ATL@@@@@ATL@@QAE@XZ

; 437  : 	m_pDataManager = (IMasterDataManagerLast*)pGateMng->GetInterface(nID);

  000c1	8b 85 14 ff ff
	ff		 mov	 eax, DWORD PTR _pGateMng$[ebp]
  000c7	6a 00		 push	 0
  000c9	6a 05		 push	 5
  000cb	50		 push	 eax
  000cc	8b 08		 mov	 ecx, DWORD PTR [eax]
  000ce	ff 11		 call	 DWORD PTR [ecx]
  000d0	89 86 dc 04 00
	00		 mov	 DWORD PTR [esi+1244], eax

; 438  : 
; 439  : 	if (m_pDataManager == NULL)		return FALSE;

  000d6	85 c0		 test	 eax, eax
  000d8	0f 84 aa 0d 00
	00		 je	 $LN1@InitMaster
$LN32@InitMaster:
; File C:\Program Files (x86)\Microsoft Visual Studio\2019\Community\VC\Tools\MSVC\14.29.30133\atlmfc\include\afxtempl.h

; 872  : 	m_pBlocks->FreeDataChain();

  000de	8b 8e f8 03 00
	00		 mov	 ecx, DWORD PTR [esi+1016]
  000e4	c7 86 f0 03 00
	00 00 00 00 00	 mov	 DWORD PTR [esi+1008], 0
  000ee	c7 86 f4 03 00
	00 00 00 00 00	 mov	 DWORD PTR [esi+1012], 0
  000f8	c7 86 ec 03 00
	00 00 00 00 00	 mov	 DWORD PTR [esi+1004], 0
  00102	c7 86 e8 03 00
	00 00 00 00 00	 mov	 DWORD PTR [esi+1000], 0
  0010c	e8 00 00 00 00	 call	 ?FreeDataChain@CPlex@@QAEXXZ ; CPlex::FreeDataChain
; File C:\Program Files (x86)\Microsoft Visual Studio\2019\Community\VC\Tools\MSVC\14.29.30133\atlmfc\include\afxwin2.inl

; 731  : 	{ ASSERT(::IsWindow(m_hWnd)); ::SendMessage(m_hWnd, LB_RESETCONTENT, 0, 0); }

  00111	8b 3d 00 00 00
	00		 mov	 edi, DWORD PTR __imp__SendMessageA@16
  00117	6a 00		 push	 0
  00119	6a 00		 push	 0
  0011b	68 84 01 00 00	 push	 388			; 00000184H
; File C:\Program Files (x86)\Microsoft Visual Studio\2019\Community\VC\Tools\MSVC\14.29.30133\atlmfc\include\afxtempl.h

; 873  : 	m_pBlocks = NULL;

  00120	c7 86 f8 03 00
	00 00 00 00 00	 mov	 DWORD PTR [esi+1016], 0
; File C:\Program Files (x86)\Microsoft Visual Studio\2019\Community\VC\Tools\MSVC\14.29.30133\atlmfc\include\afxwin2.inl

; 731  : 	{ ASSERT(::IsWindow(m_hWnd)); ::SendMessage(m_hWnd, LB_RESETCONTENT, 0, 0); }

  0012a	ff b6 00 02 00
	00		 push	 DWORD PTR [esi+512]
  00130	ff d7		 call	 edi

; 801  : 	{ ASSERT(::IsWindow(m_hWnd)); ::SendMessage(m_hWnd, CB_RESETCONTENT, 0, 0); }

  00132	6a 00		 push	 0
  00134	6a 00		 push	 0
  00136	68 4b 01 00 00	 push	 331			; 0000014bH
  0013b	ff b6 78 01 00
	00		 push	 DWORD PTR [esi+376]
  00141	ff d7		 call	 edi
; File C:\Program Files (x86)\Microsoft Visual Studio\2019\Community\VC\Tools\MSVC\14.29.30133\atlmfc\include\afxtempl.h

; 870  : 	m_nCount = 0;

  00143	0f 28 05 00 00
	00 00		 movaps	 xmm0, XMMWORD PTR __xmm@ffffffffffffffffffffffffffffffff
; File D:\git\src\IBK\IBK_DRFN\ProjSrc\SrcDrfn\Chart\comparechart\TabCodeSearchFO.cpp

; 448  : 	for (int i = 1; i < 12; i++)

  0014a	8d 86 a4 04 00
	00		 lea	 eax, DWORD PTR [esi+1188]
; File C:\Program Files (x86)\Microsoft Visual Studio\2019\Community\VC\Tools\MSVC\14.29.30133\atlmfc\include\afxtempl.h

; 870  : 	m_nCount = 0;

  00150	0f 11 86 34 04
	00 00		 movups	 XMMWORD PTR [esi+1076], xmm0
; File C:\Program Files (x86)\Microsoft Visual Studio\2019\Community\VC\Tools\MSVC\14.29.30133\atlmfc\include\afx.inl

; 116  : 	{ return ::operator new(nSize); }

  00157	6a 14		 push	 20			; 00000014H
; File C:\Program Files (x86)\Microsoft Visual Studio\2019\Community\VC\Tools\MSVC\14.29.30133\atlmfc\include\afxtempl.h

; 870  : 	m_nCount = 0;

  00159	0f 11 86 44 04
	00 00		 movups	 XMMWORD PTR [esi+1092], xmm0
; File D:\git\src\IBK\IBK_DRFN\ProjSrc\SrcDrfn\Chart\comparechart\TabCodeSearchFO.cpp

; 448  : 	for (int i = 1; i < 12; i++)

  00160	89 85 3c ff ff
	ff		 mov	 DWORD PTR tv2521[ebp], eax
; File C:\Program Files (x86)\Microsoft Visual Studio\2019\Community\VC\Tools\MSVC\14.29.30133\atlmfc\include\afxtempl.h

; 870  : 	m_nCount = 0;

  00166	66 0f d6 86 54
	04 00 00	 movq	 QWORD PTR [esi+1108], xmm0
  0016e	0f 57 c0	 xorps	 xmm0, xmm0
  00171	c7 86 5c 04 00
	00 ff ff ff ff	 mov	 DWORD PTR [esi+1116], -1
; File D:\git\src\IBK\IBK_DRFN\ProjSrc\SrcDrfn\Chart\comparechart\TabCodeSearchFO.cpp

; 448  : 	for (int i = 1; i < 12; i++)

  0017b	0f 11 00	 movups	 XMMWORD PTR [eax], xmm0
  0017e	0f 11 40 10	 movups	 XMMWORD PTR [eax+16], xmm0
  00182	66 0f d6 40 20	 movq	 QWORD PTR [eax+32], xmm0
  00187	c7 40 28 00 00
	00 00		 mov	 DWORD PTR [eax+40], 0
; File C:\Program Files (x86)\Microsoft Visual Studio\2019\Community\VC\Tools\MSVC\14.29.30133\atlmfc\include\afx.inl

; 116  : 	{ return ::operator new(nSize); }

  0018e	e8 00 00 00 00	 call	 ??2@YAPAXI@Z		; operator new
  00193	83 c4 04	 add	 esp, 4
; File D:\git\src\IBK\IBK_DRFN\ProjSrc\SrcDrfn\Chart\comparechart\TabCodeSearchFO.cpp

; 460  : 	pastrJongCode = new CStringArray;

  00196	89 85 54 ff ff
	ff		 mov	 DWORD PTR $T17[ebp], eax
  0019c	c7 45 fc 01 00
	00 00		 mov	 DWORD PTR __$EHRec$[ebp+8], 1
  001a3	85 c0		 test	 eax, eax
  001a5	74 09		 je	 SHORT $LN76@InitMaster
  001a7	8b c8		 mov	 ecx, eax
  001a9	e8 00 00 00 00	 call	 ??0CStringArray@@QAE@XZ	; CStringArray::CStringArray
  001ae	eb 02		 jmp	 SHORT $LN77@InitMaster
$LN76@InitMaster:
  001b0	33 c0		 xor	 eax, eax
$LN77@InitMaster:
; File C:\Program Files (x86)\Microsoft Visual Studio\2019\Community\VC\Tools\MSVC\14.29.30133\atlmfc\include\afx.inl

; 116  : 	{ return ::operator new(nSize); }

  001b2	6a 14		 push	 20			; 00000014H
; File D:\git\src\IBK\IBK_DRFN\ProjSrc\SrcDrfn\Chart\comparechart\TabCodeSearchFO.cpp

; 460  : 	pastrJongCode = new CStringArray;

  001b4	c7 45 fc ff ff
	ff ff		 mov	 DWORD PTR __$EHRec$[ebp+8], -1
  001bb	89 85 70 ff ff
	ff		 mov	 DWORD PTR _pastrJongCode$[ebp], eax
; File C:\Program Files (x86)\Microsoft Visual Studio\2019\Community\VC\Tools\MSVC\14.29.30133\atlmfc\include\afx.inl

; 116  : 	{ return ::operator new(nSize); }

  001c1	e8 00 00 00 00	 call	 ??2@YAPAXI@Z		; operator new
  001c6	83 c4 04	 add	 esp, 4
; File D:\git\src\IBK\IBK_DRFN\ProjSrc\SrcDrfn\Chart\comparechart\TabCodeSearchFO.cpp

; 461  : 	pastrJongName = new CStringArray;

  001c9	89 85 54 ff ff
	ff		 mov	 DWORD PTR $T16[ebp], eax
  001cf	c7 45 fc 02 00
	00 00		 mov	 DWORD PTR __$EHRec$[ebp+8], 2
  001d6	85 c0		 test	 eax, eax
  001d8	74 09		 je	 SHORT $LN78@InitMaster
  001da	8b c8		 mov	 ecx, eax
  001dc	e8 00 00 00 00	 call	 ??0CStringArray@@QAE@XZ	; CStringArray::CStringArray
  001e1	eb 02		 jmp	 SHORT $LN79@InitMaster
$LN78@InitMaster:
  001e3	33 c0		 xor	 eax, eax
$LN79@InitMaster:
; File C:\Program Files (x86)\Microsoft Visual Studio\2019\Community\VC\Tools\MSVC\14.29.30133\atlmfc\include\afx.inl

; 116  : 	{ return ::operator new(nSize); }

  001e5	6a 14		 push	 20			; 00000014H
; File D:\git\src\IBK\IBK_DRFN\ProjSrc\SrcDrfn\Chart\comparechart\TabCodeSearchFO.cpp

; 461  : 	pastrJongName = new CStringArray;

  001e7	c7 45 fc ff ff
	ff ff		 mov	 DWORD PTR __$EHRec$[ebp+8], -1
  001ee	89 85 74 ff ff
	ff		 mov	 DWORD PTR _pastrJongName$[ebp], eax
; File C:\Program Files (x86)\Microsoft Visual Studio\2019\Community\VC\Tools\MSVC\14.29.30133\atlmfc\include\afx.inl

; 116  : 	{ return ::operator new(nSize); }

  001f4	e8 00 00 00 00	 call	 ??2@YAPAXI@Z		; operator new
  001f9	83 c4 04	 add	 esp, 4
; File D:\git\src\IBK\IBK_DRFN\ProjSrc\SrcDrfn\Chart\comparechart\TabCodeSearchFO.cpp

; 462  : 	pastrJongEngName = new CStringArray;

  001fc	89 85 54 ff ff
	ff		 mov	 DWORD PTR $T15[ebp], eax
  00202	c7 45 fc 03 00
	00 00		 mov	 DWORD PTR __$EHRec$[ebp+8], 3
  00209	85 c0		 test	 eax, eax
  0020b	74 09		 je	 SHORT $LN80@InitMaster
  0020d	8b c8		 mov	 ecx, eax
  0020f	e8 00 00 00 00	 call	 ??0CStringArray@@QAE@XZ	; CStringArray::CStringArray
  00214	eb 02		 jmp	 SHORT $LN81@InitMaster
$LN80@InitMaster:
  00216	33 c0		 xor	 eax, eax
$LN81@InitMaster:
; File C:\Program Files (x86)\Microsoft Visual Studio\2019\Community\VC\Tools\MSVC\14.29.30133\atlmfc\include\afx.inl

; 116  : 	{ return ::operator new(nSize); }

  00218	6a 14		 push	 20			; 00000014H
; File D:\git\src\IBK\IBK_DRFN\ProjSrc\SrcDrfn\Chart\comparechart\TabCodeSearchFO.cpp

; 462  : 	pastrJongEngName = new CStringArray;

  0021a	c7 45 fc ff ff
	ff ff		 mov	 DWORD PTR __$EHRec$[ebp+8], -1
  00221	89 85 44 ff ff
	ff		 mov	 DWORD PTR _pastrJongEngName$[ebp], eax
; File C:\Program Files (x86)\Microsoft Visual Studio\2019\Community\VC\Tools\MSVC\14.29.30133\atlmfc\include\afx.inl

; 116  : 	{ return ::operator new(nSize); }

  00227	e8 00 00 00 00	 call	 ??2@YAPAXI@Z		; operator new
  0022c	83 c4 04	 add	 esp, 4
; File D:\git\src\IBK\IBK_DRFN\ProjSrc\SrcDrfn\Chart\comparechart\TabCodeSearchFO.cpp

; 463  : 	pastrEventPrice = new CStringArray;

  0022f	89 85 54 ff ff
	ff		 mov	 DWORD PTR $T14[ebp], eax
  00235	c7 45 fc 04 00
	00 00		 mov	 DWORD PTR __$EHRec$[ebp+8], 4
  0023c	85 c0		 test	 eax, eax
  0023e	74 09		 je	 SHORT $LN82@InitMaster
  00240	8b c8		 mov	 ecx, eax
  00242	e8 00 00 00 00	 call	 ??0CStringArray@@QAE@XZ	; CStringArray::CStringArray
  00247	eb 02		 jmp	 SHORT $LN83@InitMaster
$LN82@InitMaster:
  00249	33 c0		 xor	 eax, eax
$LN83@InitMaster:
; File C:\Program Files (x86)\Microsoft Visual Studio\2019\Community\VC\Tools\MSVC\14.29.30133\atlmfc\include\afx.inl

; 116  : 	{ return ::operator new(nSize); }

  0024b	6a 14		 push	 20			; 00000014H
; File D:\git\src\IBK\IBK_DRFN\ProjSrc\SrcDrfn\Chart\comparechart\TabCodeSearchFO.cpp

; 463  : 	pastrEventPrice = new CStringArray;

  0024d	c7 45 fc ff ff
	ff ff		 mov	 DWORD PTR __$EHRec$[ebp+8], -1
  00254	89 85 24 ff ff
	ff		 mov	 DWORD PTR _pastrEventPrice$[ebp], eax
; File C:\Program Files (x86)\Microsoft Visual Studio\2019\Community\VC\Tools\MSVC\14.29.30133\atlmfc\include\afx.inl

; 116  : 	{ return ::operator new(nSize); }

  0025a	e8 00 00 00 00	 call	 ??2@YAPAXI@Z		; operator new
  0025f	83 c4 04	 add	 esp, 4
; File D:\git\src\IBK\IBK_DRFN\ProjSrc\SrcDrfn\Chart\comparechart\TabCodeSearchFO.cpp

; 464  : 	pastrFinalYM = new CStringArray;

  00262	89 85 54 ff ff
	ff		 mov	 DWORD PTR $T13[ebp], eax
  00268	c7 45 fc 05 00
	00 00		 mov	 DWORD PTR __$EHRec$[ebp+8], 5
  0026f	85 c0		 test	 eax, eax
  00271	74 09		 je	 SHORT $LN84@InitMaster
  00273	8b c8		 mov	 ecx, eax
  00275	e8 00 00 00 00	 call	 ??0CStringArray@@QAE@XZ	; CStringArray::CStringArray
  0027a	eb 02		 jmp	 SHORT $LN85@InitMaster
$LN84@InitMaster:
  0027c	33 c0		 xor	 eax, eax
$LN85@InitMaster:
; File C:\Program Files (x86)\Microsoft Visual Studio\2019\Community\VC\Tools\MSVC\14.29.30133\atlmfc\include\afx.inl

; 116  : 	{ return ::operator new(nSize); }

  0027e	6a 14		 push	 20			; 00000014H
; File D:\git\src\IBK\IBK_DRFN\ProjSrc\SrcDrfn\Chart\comparechart\TabCodeSearchFO.cpp

; 464  : 	pastrFinalYM = new CStringArray;

  00280	c7 45 fc ff ff
	ff ff		 mov	 DWORD PTR __$EHRec$[ebp+8], -1
  00287	89 85 20 ff ff
	ff		 mov	 DWORD PTR _pastrFinalYM$[ebp], eax
; File C:\Program Files (x86)\Microsoft Visual Studio\2019\Community\VC\Tools\MSVC\14.29.30133\atlmfc\include\afx.inl

; 116  : 	{ return ::operator new(nSize); }

  0028d	e8 00 00 00 00	 call	 ??2@YAPAXI@Z		; operator new
  00292	83 c4 04	 add	 esp, 4
; File D:\git\src\IBK\IBK_DRFN\ProjSrc\SrcDrfn\Chart\comparechart\TabCodeSearchFO.cpp

; 465  : 	pastrValueGubun = new CStringArray;

  00295	89 85 54 ff ff
	ff		 mov	 DWORD PTR $T12[ebp], eax
  0029b	c7 45 fc 06 00
	00 00		 mov	 DWORD PTR __$EHRec$[ebp+8], 6
  002a2	85 c0		 test	 eax, eax
  002a4	74 09		 je	 SHORT $LN86@InitMaster
  002a6	8b c8		 mov	 ecx, eax
  002a8	e8 00 00 00 00	 call	 ??0CStringArray@@QAE@XZ	; CStringArray::CStringArray
  002ad	eb 02		 jmp	 SHORT $LN87@InitMaster
$LN86@InitMaster:
  002af	33 c0		 xor	 eax, eax
$LN87@InitMaster:

; 466  : 	int nIndex = 0;
; 467  : 
; 468  : 	if (m_nComboSel == 0)

  002b1	6a 00		 push	 0
  002b3	89 85 1c ff ff
	ff		 mov	 DWORD PTR _pastrValueGubun$[ebp], eax
  002b9	8b 86 f0 04 00
	00		 mov	 eax, DWORD PTR [esi+1264]
  002bf	c7 45 fc ff ff
	ff ff		 mov	 DWORD PTR __$EHRec$[ebp+8], -1
  002c6	6a 01		 push	 1
  002c8	68 f1 00 00 00	 push	 241			; 000000f1H
  002cd	85 c0		 test	 eax, eax
  002cf	75 40		 jne	 SHORT $LN33@InitMaster
; File C:\Program Files (x86)\Microsoft Visual Studio\2019\Community\VC\Tools\MSVC\14.29.30133\atlmfc\include\afxwin2.inl

; 630  : 	{ ASSERT(::IsWindow(m_hWnd)); ::SendMessage(m_hWnd, BM_SETCHECK, nCheck, 0); }

  002d1	ff b6 80 02 00
	00		 push	 DWORD PTR [esi+640]
  002d7	ff d7		 call	 edi
; File D:\git\src\IBK\IBK_DRFN\ProjSrc\SrcDrfn\Chart\comparechart\TabCodeSearchFO.cpp

; 471  : 		m_pDataManager->GetOptionJongMst(pastrJongCode, pastrJongName, pastrJongEngName, pastrEventPrice, pastrFinalYM, pastrValueGubun);

  002d9	8b 86 dc 04 00
	00		 mov	 eax, DWORD PTR [esi+1244]
  002df	8d 95 1c ff ff
	ff		 lea	 edx, DWORD PTR _pastrValueGubun$[ebp]
  002e5	52		 push	 edx
  002e6	8d 95 20 ff ff
	ff		 lea	 edx, DWORD PTR _pastrFinalYM$[ebp]
  002ec	52		 push	 edx
  002ed	8b 08		 mov	 ecx, DWORD PTR [eax]
  002ef	8d 95 24 ff ff
	ff		 lea	 edx, DWORD PTR _pastrEventPrice$[ebp]
  002f5	52		 push	 edx
  002f6	8d 95 44 ff ff
	ff		 lea	 edx, DWORD PTR _pastrJongEngName$[ebp]
  002fc	52		 push	 edx
  002fd	8d 95 74 ff ff
	ff		 lea	 edx, DWORD PTR _pastrJongName$[ebp]
  00303	52		 push	 edx
  00304	8d 95 70 ff ff
	ff		 lea	 edx, DWORD PTR _pastrJongCode$[ebp]
  0030a	52		 push	 edx
  0030b	50		 push	 eax
  0030c	ff 51 44	 call	 DWORD PTR [ecx+68]

; 472  : 	}

  0030f	eb 4e		 jmp	 SHORT $LN36@InitMaster
$LN33@InitMaster:

; 473  : 	else if (m_nComboSel == 2)

  00311	83 f8 02	 cmp	 eax, 2
  00314	75 27		 jne	 SHORT $LN35@InitMaster
; File C:\Program Files (x86)\Microsoft Visual Studio\2019\Community\VC\Tools\MSVC\14.29.30133\atlmfc\include\afxwin2.inl

; 630  : 	{ ASSERT(::IsWindow(m_hWnd)); ::SendMessage(m_hWnd, BM_SETCHECK, nCheck, 0); }

  00316	ff b6 80 03 00
	00		 push	 DWORD PTR [esi+896]
  0031c	ff d7		 call	 edi
; File D:\git\src\IBK\IBK_DRFN\ProjSrc\SrcDrfn\Chart\comparechart\TabCodeSearchFO.cpp

; 476  : 		m_pDataManager->GetWeeklyOptionJongMst(pastrJongCode, pastrJongName);

  0031e	8b 86 dc 04 00
	00		 mov	 eax, DWORD PTR [esi+1244]
  00324	8d 95 74 ff ff
	ff		 lea	 edx, DWORD PTR _pastrJongName$[ebp]
  0032a	52		 push	 edx
  0032b	8d 95 70 ff ff
	ff		 lea	 edx, DWORD PTR _pastrJongCode$[ebp]
  00331	52		 push	 edx
  00332	8b 08		 mov	 ecx, DWORD PTR [eax]
  00334	50		 push	 eax
  00335	ff 91 90 00 00
	00		 call	 DWORD PTR [ecx+144]

; 477  : 	}

  0033b	eb 22		 jmp	 SHORT $LN36@InitMaster
$LN35@InitMaster:
; File C:\Program Files (x86)\Microsoft Visual Studio\2019\Community\VC\Tools\MSVC\14.29.30133\atlmfc\include\afxwin2.inl

; 630  : 	{ ASSERT(::IsWindow(m_hWnd)); ::SendMessage(m_hWnd, BM_SETCHECK, nCheck, 0); }

  0033d	ff b6 00 03 00
	00		 push	 DWORD PTR [esi+768]
  00343	ff d7		 call	 edi
; File D:\git\src\IBK\IBK_DRFN\ProjSrc\SrcDrfn\Chart\comparechart\TabCodeSearchFO.cpp

; 481  : 		m_pDataManager->GetMiniOptionJongMst(pastrJongCode, pastrJongName);

  00345	8b 86 dc 04 00
	00		 mov	 eax, DWORD PTR [esi+1244]
  0034b	8d 95 74 ff ff
	ff		 lea	 edx, DWORD PTR _pastrJongName$[ebp]
  00351	52		 push	 edx
  00352	8d 95 70 ff ff
	ff		 lea	 edx, DWORD PTR _pastrJongCode$[ebp]
  00358	52		 push	 edx
  00359	8b 08		 mov	 ecx, DWORD PTR [eax]
  0035b	50		 push	 eax
  0035c	ff 51 64	 call	 DWORD PTR [ecx+100]
$LN36@InitMaster:

; 482  : 	}
; 483  : 
; 484  : 	CStringArray arrCode;

  0035f	8d 8d c4 fe ff
	ff		 lea	 ecx, DWORD PTR _arrCode$[ebp]
  00365	e8 00 00 00 00	 call	 ??0CStringArray@@QAE@XZ	; CStringArray::CStringArray

; 485  : 	CStringArray arrName;

  0036a	8d 8d dc fe ff
	ff		 lea	 ecx, DWORD PTR _arrName$[ebp]
  00370	c7 45 fc 07 00
	00 00		 mov	 DWORD PTR __$EHRec$[ebp+8], 7
  00377	e8 00 00 00 00	 call	 ??0CStringArray@@QAE@XZ	; CStringArray::CStringArray

; 486  : 	
; 487  : 	arrName.Copy(*pastrJongName);

  0037c	ff b5 74 ff ff
	ff		 push	 DWORD PTR _pastrJongName$[ebp]
  00382	8d 8d dc fe ff
	ff		 lea	 ecx, DWORD PTR _arrName$[ebp]
  00388	c6 45 fc 08	 mov	 BYTE PTR __$EHRec$[ebp+8], 8
  0038c	e8 00 00 00 00	 call	 ?Copy@CStringArray@@QAEXABV1@@Z ; CStringArray::Copy

; 419  :     qsort(arrStr.GetData(), arrStr.GetSize(), sizeof(CString*), CompareFileName);

  00391	68 00 00 00 00	 push	 OFFSET ?CompareFileName@@YAHPBX0@Z ; CompareFileName
  00396	6a 04		 push	 4
  00398	ff b5 e4 fe ff
	ff		 push	 DWORD PTR _arrName$[ebp+8]
  0039e	ff b5 e0 fe ff
	ff		 push	 DWORD PTR _arrName$[ebp+4]
  003a4	ff 15 00 00 00
	00		 call	 DWORD PTR __imp__qsort

; 488  : 	
; 489  : 	SortFileName(arrName);
; 490  : 	
; 491  : 	for(int index = 0; index < arrName.GetSize(); index++)

  003aa	33 ff		 xor	 edi, edi

; 419  :     qsort(arrStr.GetData(), arrStr.GetSize(), sizeof(CString*), CompareFileName);

  003ac	83 c4 10	 add	 esp, 16			; 00000010H

; 488  : 	
; 489  : 	SortFileName(arrName);
; 490  : 	
; 491  : 	for(int index = 0; index < arrName.GetSize(); index++)

  003af	39 bd e4 fe ff
	ff		 cmp	 DWORD PTR _arrName$[ebp+8], edi
  003b5	0f 8e a8 00 00
	00		 jle	 $LN9@InitMaster
  003bb	8b 8d 74 ff ff
	ff		 mov	 ecx, DWORD PTR _pastrJongName$[ebp]
$LL10@InitMaster:

; 493  : 		for(int j = 0; j < pastrJongName->GetSize(); j++)

  003c1	8b 41 08	 mov	 eax, DWORD PTR [ecx+8]
  003c4	33 f6		 xor	 esi, esi
  003c6	85 c0		 test	 eax, eax
  003c8	0f 8e 82 00 00
	00		 jle	 $LN8@InitMaster
  003ce	66 90		 npad	 2
$LL13@InitMaster:
; File C:\Program Files (x86)\Microsoft Visual Studio\2019\Community\VC\Tools\MSVC\14.29.30133\atlmfc\include\afxcoll.inl

; 289  : 		if( nIndex < 0 || nIndex >= m_nSize )

  003d0	85 f6		 test	 esi, esi
  003d2	0f 88 cb 0a 00
	00		 js	 $LN242@InitMaster
  003d8	3b f0		 cmp	 esi, eax
  003da	0f 8d c3 0a 00
	00		 jge	 $LN242@InitMaster

; 291  : 		return m_pData[nIndex]; }

  003e0	8b 51 04	 mov	 edx, DWORD PTR [ecx+4]
  003e3	8d 04 b5 00 00
	00 00		 lea	 eax, DWORD PTR [esi*4]
  003ea	03 d0		 add	 edx, eax

; 289  : 		if( nIndex < 0 || nIndex >= m_nSize )

  003ec	85 ff		 test	 edi, edi
  003ee	0f 88 af 0a 00
	00		 js	 $LN242@InitMaster
  003f4	3b bd e4 fe ff
	ff		 cmp	 edi, DWORD PTR _arrName$[ebp+8]
  003fa	0f 8d a3 0a 00
	00		 jge	 $LN242@InitMaster

; 291  : 		return m_pData[nIndex]; }

  00400	8b 85 e0 fe ff
	ff		 mov	 eax, DWORD PTR _arrName$[ebp+4]
; File C:\Program Files (x86)\Microsoft Visual Studio\2019\Community\VC\Tools\MSVC\14.29.30133\atlmfc\include\cstringt.h

; 2479 : 		return(str1.Compare(str2) == 0);

  00406	ff 32		 push	 DWORD PTR [edx]
; File C:\Program Files (x86)\Microsoft Visual Studio\2019\Community\VC\Tools\MSVC\14.29.30133\atlmfc\include\afxcoll.inl

; 291  : 		return m_pData[nIndex]; }

  00408	8d 0c b8	 lea	 ecx, DWORD PTR [eax+edi*4]
; File C:\Program Files (x86)\Microsoft Visual Studio\2019\Community\VC\Tools\MSVC\14.29.30133\atlmfc\include\cstringt.h

; 2479 : 		return(str1.Compare(str2) == 0);

  0040b	ff 15 00 00 00
	00		 call	 DWORD PTR __imp_?Compare@?$CStringT@DV?$StrTraitMFC_DLL@DV?$ChTraitsCRT@D@ATL@@@@@ATL@@QBEHPBD@Z
  00411	85 c0		 test	 eax, eax
; File D:\git\src\IBK\IBK_DRFN\ProjSrc\SrcDrfn\Chart\comparechart\TabCodeSearchFO.cpp

; 495  : 			if(arrName.GetAt(index) == pastrJongName->GetAt(j))

  00413	75 2d		 jne	 SHORT $LN11@InitMaster
; File C:\Program Files (x86)\Microsoft Visual Studio\2019\Community\VC\Tools\MSVC\14.29.30133\atlmfc\include\afxcoll.inl

; 289  : 		if( nIndex < 0 || nIndex >= m_nSize )

  00415	8b 85 70 ff ff
	ff		 mov	 eax, DWORD PTR _pastrJongCode$[ebp]
  0041b	3b 70 08	 cmp	 esi, DWORD PTR [eax+8]
  0041e	0f 8d 7f 0a 00
	00		 jge	 $LN242@InitMaster

; 291  : 		return m_pData[nIndex]; }

  00424	8b 40 04	 mov	 eax, DWORD PTR [eax+4]
  00427	8d 0c b5 00 00
	00 00		 lea	 ecx, DWORD PTR [esi*4]
  0042e	03 c1		 add	 eax, ecx

; 321  : 		SetAtGrow(nIndex, newElement);

  00430	8d 8d c4 fe ff
	ff		 lea	 ecx, DWORD PTR _arrCode$[ebp]
  00436	50		 push	 eax
  00437	ff b5 cc fe ff
	ff		 push	 DWORD PTR _arrCode$[ebp+8]
  0043d	e8 00 00 00 00	 call	 ?SetAtGrow@CStringArray@@QAEXHABV?$CStringT@DV?$StrTraitMFC_DLL@DV?$ChTraitsCRT@D@ATL@@@@@ATL@@@Z ; CStringArray::SetAtGrow
$LN11@InitMaster:
; File D:\git\src\IBK\IBK_DRFN\ProjSrc\SrcDrfn\Chart\comparechart\TabCodeSearchFO.cpp

; 493  : 		for(int j = 0; j < pastrJongName->GetSize(); j++)

  00442	8b 8d 74 ff ff
	ff		 mov	 ecx, DWORD PTR _pastrJongName$[ebp]
  00448	46		 inc	 esi
  00449	8b 41 08	 mov	 eax, DWORD PTR [ecx+8]
  0044c	3b f0		 cmp	 esi, eax
  0044e	7c 80		 jl	 SHORT $LL13@InitMaster
$LN8@InitMaster:

; 488  : 	
; 489  : 	SortFileName(arrName);
; 490  : 	
; 491  : 	for(int index = 0; index < arrName.GetSize(); index++)

  00450	47		 inc	 edi
  00451	3b bd e4 fe ff
	ff		 cmp	 edi, DWORD PTR _arrName$[ebp+8]
  00457	0f 8c 64 ff ff
	ff		 jl	 $LL10@InitMaster
  0045d	8b b5 28 ff ff
	ff		 mov	 esi, DWORD PTR _this$GSCopy$1$[ebp]
$LN9@InitMaster:
; File C:\Program Files (x86)\Microsoft Visual Studio\2019\Community\VC\Tools\MSVC\14.29.30133\atlmfc\include\afxcoll.inl

; 286  : 	{ SetSize(0); }

  00463	8b 8d 70 ff ff
	ff		 mov	 ecx, DWORD PTR _pastrJongCode$[ebp]
  00469	6a ff		 push	 -1
  0046b	6a 00		 push	 0
  0046d	e8 00 00 00 00	 call	 ?SetSize@CStringArray@@QAEXHH@Z ; CStringArray::SetSize
  00472	8b 8d 74 ff ff
	ff		 mov	 ecx, DWORD PTR _pastrJongName$[ebp]
  00478	6a ff		 push	 -1
  0047a	6a 00		 push	 0
  0047c	e8 00 00 00 00	 call	 ?SetSize@CStringArray@@QAEXHH@Z ; CStringArray::SetSize
; File D:\git\src\IBK\IBK_DRFN\ProjSrc\SrcDrfn\Chart\comparechart\TabCodeSearchFO.cpp

; 503  : 	pastrJongCode->Copy(arrCode);

  00481	8b 8d 70 ff ff
	ff		 mov	 ecx, DWORD PTR _pastrJongCode$[ebp]
  00487	8d 85 c4 fe ff
	ff		 lea	 eax, DWORD PTR _arrCode$[ebp]
  0048d	50		 push	 eax
  0048e	e8 00 00 00 00	 call	 ?Copy@CStringArray@@QAEXABV1@@Z ; CStringArray::Copy

; 504  : 	pastrJongName->Copy(arrName);

  00493	8b 8d 74 ff ff
	ff		 mov	 ecx, DWORD PTR _pastrJongName$[ebp]
  00499	8d 85 dc fe ff
	ff		 lea	 eax, DWORD PTR _arrName$[ebp]
  0049f	50		 push	 eax
  004a0	e8 00 00 00 00	 call	 ?Copy@CStringArray@@QAEXABV1@@Z ; CStringArray::Copy

; 505  : 
; 506  : //	if (pListP == NULL)		return FALSE;
; 507  : 	CString  strCode, strMonth, strCodeName;

  004a5	8d 8d 7c ff ff
	ff		 lea	 ecx, DWORD PTR _strCode$[ebp]
  004ab	ff 15 00 00 00
	00		 call	 DWORD PTR __imp_??0?$CStringT@DV?$StrTraitMFC_DLL@DV?$ChTraitsCRT@D@ATL@@@@@ATL@@QAE@XZ
  004b1	8d 8d 58 ff ff
	ff		 lea	 ecx, DWORD PTR _strMonth$[ebp]
  004b7	ff 15 00 00 00
	00		 call	 DWORD PTR __imp_??0?$CStringT@DV?$StrTraitMFC_DLL@DV?$ChTraitsCRT@D@ATL@@@@@ATL@@QAE@XZ
  004bd	8d 8d 68 ff ff
	ff		 lea	 ecx, DWORD PTR _strCodeName$[ebp]
  004c3	ff 15 00 00 00
	00		 call	 DWORD PTR __imp_??0?$CStringT@DV?$StrTraitMFC_DLL@DV?$ChTraitsCRT@D@ATL@@@@@ATL@@QAE@XZ

; 508  : 	int		 nMonth, nExercise, nMonthNow, nMondayMonth, nMondayMonthNow;
; 509  : 	int		 nIndexMonth = EXERCISE;
; 510  : 	BOOL	 bFind;
; 511  : 
; 512  : 	//--> 0024696:    
; 513  : 	char cGubun;
; 514  : 	m_nJumpCnt = 0;
; 515  : 	int nPrevExercise = 0;
; 516  : 	//<--
; 517  : 	nMonthNow = 0;
; 518  : 	nMondayMonth = 0;
; 519  : 	nMondayMonthNow = 0;
; 520  : 	int MaxExercise = 0;
; 521  : //	codeinfo oldInfo; oldInfo.nInfo[EXERCISE]=0;
; 522  : 	for(nIndex=0; nIndex < pastrJongCode->GetSize(); nIndex++)

  004c9	8b 8d 70 ff ff
	ff		 mov	 ecx, DWORD PTR _pastrJongCode$[ebp]
  004cf	33 c0		 xor	 eax, eax
  004d1	c7 86 d8 04 00
	00 00 00 00 00	 mov	 DWORD PTR [esi+1240], 0
  004db	33 ff		 xor	 edi, edi
  004dd	89 85 10 ff ff
	ff		 mov	 DWORD PTR _nMondayMonth$1$[ebp], eax
  004e3	89 85 18 ff ff
	ff		 mov	 DWORD PTR _nMondayMonthNow$1$[ebp], eax
  004e9	89 85 30 ff ff
	ff		 mov	 DWORD PTR _MaxExercise$1$[ebp], eax
  004ef	8b 41 08	 mov	 eax, DWORD PTR [ecx+8]
  004f2	c6 45 fc 0b	 mov	 BYTE PTR __$EHRec$[ebp+8], 11 ; 0000000bH
  004f6	c7 85 6c ff ff
	ff 00 00 00 00	 mov	 DWORD PTR _nIndexMonth$1$[ebp], 0
  00500	c7 85 40 ff ff
	ff 00 00 00 00	 mov	 DWORD PTR _nPrevExercise$1$[ebp], 0
  0050a	c7 85 38 ff ff
	ff 00 00 00 00	 mov	 DWORD PTR _nMonthNow$1$[ebp], 0
  00514	89 bd 34 ff ff
	ff		 mov	 DWORD PTR _nIndex$1$[ebp], edi
  0051a	85 c0		 test	 eax, eax
  0051c	0f 8e f7 05 00
	00		 jle	 $LN15@InitMaster
; File C:\Program Files (x86)\Microsoft Visual Studio\2019\Community\VC\Tools\MSVC\14.29.30133\atlmfc\include\afxcoll.inl

; 286  : 	{ SetSize(0); }

  00522	ba 30 04 00 00	 mov	 edx, 1072		; 00000430H
  00527	89 95 5c ff ff
	ff		 mov	 DWORD PTR tv2494[ebp], edx
  0052d	8d 96 94 04 00
	00		 lea	 edx, DWORD PTR [esi+1172]
  00533	89 95 50 ff ff
	ff		 mov	 DWORD PTR tv2493[ebp], edx
  00539	8d 96 00 04 00
	00		 lea	 edx, DWORD PTR [esi+1024]
  0053f	89 95 64 ff ff
	ff		 mov	 DWORD PTR tv2491[ebp], edx
  00545	8d 96 a0 04 00
	00		 lea	 edx, DWORD PTR [esi+1184]
  0054b	89 95 48 ff ff
	ff		 mov	 DWORD PTR tv2490[ebp], edx
$LL16@InitMaster:

; 289  : 		if( nIndex < 0 || nIndex >= m_nSize )

  00551	85 ff		 test	 edi, edi
  00553	0f 88 4a 09 00
	00		 js	 $LN242@InitMaster
  00559	3b f8		 cmp	 edi, eax
  0055b	0f 8d 42 09 00
	00		 jge	 $LN242@InitMaster

; 291  : 		return m_pData[nIndex]; }

  00561	8b 41 04	 mov	 eax, DWORD PTR [ecx+4]
; File D:\git\src\IBK\IBK_DRFN\ProjSrc\SrcDrfn\Chart\comparechart\TabCodeSearchFO.cpp

; 525  : 		strCode = pastrJongCode->GetAt(nIndex);

  00564	8d 8d 7c ff ff
	ff		 lea	 ecx, DWORD PTR _strCode$[ebp]
; File C:\Program Files (x86)\Microsoft Visual Studio\2019\Community\VC\Tools\MSVC\14.29.30133\atlmfc\include\afxcoll.inl

; 291  : 		return m_pData[nIndex]; }

  0056a	c1 e7 02	 shl	 edi, 2
  0056d	03 c7		 add	 eax, edi
; File D:\git\src\IBK\IBK_DRFN\ProjSrc\SrcDrfn\Chart\comparechart\TabCodeSearchFO.cpp

; 525  : 		strCode = pastrJongCode->GetAt(nIndex);

  0056f	50		 push	 eax
  00570	ff 15 00 00 00
	00		 call	 DWORD PTR __imp_??4?$CStringT@DV?$StrTraitMFC_DLL@DV?$ChTraitsCRT@D@ATL@@@@@ATL@@QAEAAV01@ABV01@@Z
; File C:\Program Files (x86)\Microsoft Visual Studio\2019\Community\VC\Tools\MSVC\14.29.30133\atlmfc\include\afxcoll.inl

; 289  : 		if( nIndex < 0 || nIndex >= m_nSize )

  00576	8b 85 74 ff ff
	ff		 mov	 eax, DWORD PTR _pastrJongName$[ebp]
  0057c	8b 8d 34 ff ff
	ff		 mov	 ecx, DWORD PTR _nIndex$1$[ebp]
  00582	3b 48 08	 cmp	 ecx, DWORD PTR [eax+8]
  00585	0f 8d 18 09 00
	00		 jge	 $LN242@InitMaster

; 291  : 		return m_pData[nIndex]; }

  0058b	8b 40 04	 mov	 eax, DWORD PTR [eax+4]
; File D:\git\src\IBK\IBK_DRFN\ProjSrc\SrcDrfn\Chart\comparechart\TabCodeSearchFO.cpp

; 527  : 		strCodeName = pastrJongName->GetAt(nIndex);

  0058e	8d 8d 68 ff ff
	ff		 lea	 ecx, DWORD PTR _strCodeName$[ebp]
; File C:\Program Files (x86)\Microsoft Visual Studio\2019\Community\VC\Tools\MSVC\14.29.30133\atlmfc\include\afxcoll.inl

; 291  : 		return m_pData[nIndex]; }

  00594	03 c7		 add	 eax, edi
; File D:\git\src\IBK\IBK_DRFN\ProjSrc\SrcDrfn\Chart\comparechart\TabCodeSearchFO.cpp

; 527  : 		strCodeName = pastrJongName->GetAt(nIndex);

  00596	50		 push	 eax
  00597	ff 15 00 00 00
	00		 call	 DWORD PTR __imp_??4?$CStringT@DV?$StrTraitMFC_DLL@DV?$ChTraitsCRT@D@ATL@@@@@ATL@@QAEAAV01@ABV01@@Z
; File C:\Program Files (x86)\Microsoft Visual Studio\2019\Community\VC\Tools\MSVC\14.29.30133\atlmfc\include\atlsimpstr.h

; 519  : 		return( GetData()->nDataLength );

  0059d	8b 85 7c ff ff
	ff		 mov	 eax, DWORD PTR _strCode$[ebp]
; File D:\git\src\IBK\IBK_DRFN\ProjSrc\SrcDrfn\Chart\comparechart\TabCodeSearchFO.cpp

; 529  : 		if (strCode.GetLength() >= 8)// && nGubun != 3)

  005a3	83 78 f4 08	 cmp	 DWORD PTR [eax-12], 8
  005a7	0f 8c 4e 05 00
	00		 jl	 $LN14@InitMaster

; 530  : 		{
; 531  : //			nGubun = atoi(strCode.Left(1));
; 532  : 			strncpy(&cGubun, strCode.Left(1), 1); // 0024696:    

  005ad	6a 01		 push	 1
  005af	8d 85 0c ff ff
	ff		 lea	 eax, DWORD PTR $T10[ebp]
  005b5	50		 push	 eax
  005b6	8d 8d 7c ff ff
	ff		 lea	 ecx, DWORD PTR _strCode$[ebp]
  005bc	ff 15 00 00 00
	00		 call	 DWORD PTR __imp_?Left@?$CStringT@DV?$StrTraitMFC_DLL@DV?$ChTraitsCRT@D@ATL@@@@@ATL@@QBE?AV12@H@Z
  005c2	6a 01		 push	 1
  005c4	ff 30		 push	 DWORD PTR [eax]
  005c6	8d 85 7b ff ff
	ff		 lea	 eax, DWORD PTR _cGubun$[ebp]
  005cc	50		 push	 eax
  005cd	ff 15 00 00 00
	00		 call	 DWORD PTR __imp__strncpy
  005d3	83 c4 0c	 add	 esp, 12			; 0000000cH
  005d6	8d 8d 0c ff ff
	ff		 lea	 ecx, DWORD PTR $T10[ebp]
  005dc	ff 15 00 00 00
	00		 call	 DWORD PTR __imp_??1?$CStringT@DV?$StrTraitMFC_DLL@DV?$ChTraitsCRT@D@ATL@@@@@ATL@@QAE@XZ

; 533  : 
; 534  : 			if (IS_PUT_CODE_1(cGubun))	 continue;		//   read // 0024696:    

  005e2	8a 85 7b ff ff
	ff		 mov	 al, BYTE PTR _cGubun$[ebp]
  005e8	3c 33		 cmp	 al, 51			; 00000033H
  005ea	0f 84 0b 05 00
	00		 je	 $LN14@InitMaster
  005f0	3c 43		 cmp	 al, 67			; 00000043H
  005f2	0f 84 03 05 00
	00		 je	 $LN14@InitMaster

; 535  : 			//@Solomon if (nGubun == 3)	 break;		//   read
; 536  : 			//if (nGubun == 3)	 continue;		//   read
; 537  : 
; 538  : 			if(m_nComboSel == 2 )

  005f8	83 be f0 04 00
	00 02		 cmp	 DWORD PTR [esi+1264], 2
  005ff	8d 8d 7c ff ff
	ff		 lea	 ecx, DWORD PTR _strCode$[ebp]
  00605	0f 85 7d 00 00
	00		 jne	 $LN41@InitMaster

; 539  : 			{
; 540  : 				if(strCode.Find("AF") >= 0)

  0060b	6a 00		 push	 0
  0060d	68 00 00 00 00	 push	 OFFSET ??_C@_02NHMFCJJJ@AF@
  00612	ff 15 00 00 00
	00		 call	 DWORD PTR __imp_?Find@?$CStringT@DV?$StrTraitMFC_DLL@DV?$ChTraitsCRT@D@ATL@@@@@ATL@@QBEHPBDH@Z
  00618	8d 8d 68 ff ff
	ff		 lea	 ecx, DWORD PTR _strCodeName$[ebp]
  0061e	6a 02		 push	 2
  00620	85 c0		 test	 eax, eax
  00622	78 32		 js	 SHORT $LN43@InitMaster

; 541  : 					nMondayMonth = atoi(strCodeName.Mid(6, 2));

  00624	6a 06		 push	 6
  00626	8d 85 f4 fe ff
	ff		 lea	 eax, DWORD PTR $T4[ebp]
  0062c	50		 push	 eax
  0062d	ff 15 00 00 00
	00		 call	 DWORD PTR __imp_?Mid@?$CStringT@DV?$StrTraitMFC_DLL@DV?$ChTraitsCRT@D@ATL@@@@@ATL@@QBE?AV12@HH@Z
  00633	ff 30		 push	 DWORD PTR [eax]
  00635	a1 00 00 00 00	 mov	 eax, DWORD PTR __imp__atoi
  0063a	ff d0		 call	 eax
  0063c	83 c4 04	 add	 esp, 4
  0063f	89 85 10 ff ff
	ff		 mov	 DWORD PTR _nMondayMonth$1$[ebp], eax
  00645	8d 8d f4 fe ff
	ff		 lea	 ecx, DWORD PTR $T4[ebp]
  0064b	ff 15 00 00 00
	00		 call	 DWORD PTR __imp_??1?$CStringT@DV?$StrTraitMFC_DLL@DV?$ChTraitsCRT@D@ATL@@@@@ATL@@QAE@XZ
  00651	e9 c6 00 00 00	 jmp	 $LN46@InitMaster
$LN43@InitMaster:

; 542  : 				else
; 543  : 					nMonth = atoi(strCodeName.Mid(4, 2));

  00656	6a 04		 push	 4
  00658	8d 85 f0 fe ff
	ff		 lea	 eax, DWORD PTR $T3[ebp]
  0065e	50		 push	 eax
  0065f	ff 15 00 00 00
	00		 call	 DWORD PTR __imp_?Mid@?$CStringT@DV?$StrTraitMFC_DLL@DV?$ChTraitsCRT@D@ATL@@@@@ATL@@QBE?AV12@HH@Z
  00665	ff 30		 push	 DWORD PTR [eax]
  00667	a1 00 00 00 00	 mov	 eax, DWORD PTR __imp__atoi
  0066c	ff d0		 call	 eax
  0066e	83 c4 04	 add	 esp, 4
  00671	89 85 4c ff ff
	ff		 mov	 DWORD PTR _nMonth$[ebp], eax
  00677	8d 8d f0 fe ff
	ff		 lea	 ecx, DWORD PTR $T3[ebp]
  0067d	ff 15 00 00 00
	00		 call	 DWORD PTR __imp_??1?$CStringT@DV?$StrTraitMFC_DLL@DV?$ChTraitsCRT@D@ATL@@@@@ATL@@QAE@XZ

; 544  : 			}

  00683	e9 94 00 00 00	 jmp	 $LN46@InitMaster
$LN41@InitMaster:

; 545  : 			else
; 546  : 			{
; 547  : 				strMonth = strCode.Mid(4, 1);		strMonth.MakeUpper();

  00688	6a 01		 push	 1
  0068a	6a 04		 push	 4
  0068c	8d 85 f8 fe ff
	ff		 lea	 eax, DWORD PTR $T5[ebp]
  00692	50		 push	 eax
  00693	ff 15 00 00 00
	00		 call	 DWORD PTR __imp_?Mid@?$CStringT@DV?$StrTraitMFC_DLL@DV?$ChTraitsCRT@D@ATL@@@@@ATL@@QBE?AV12@HH@Z
  00699	50		 push	 eax
  0069a	8d 8d 58 ff ff
	ff		 lea	 ecx, DWORD PTR _strMonth$[ebp]
  006a0	c6 45 fc 0c	 mov	 BYTE PTR __$EHRec$[ebp+8], 12 ; 0000000cH
  006a4	ff 15 00 00 00
	00		 call	 DWORD PTR __imp_??4?$CStringT@DV?$StrTraitMFC_DLL@DV?$ChTraitsCRT@D@ATL@@@@@ATL@@QAEAAV01@ABV01@@Z
  006aa	8d 8d f8 fe ff
	ff		 lea	 ecx, DWORD PTR $T5[ebp]
  006b0	c6 45 fc 0b	 mov	 BYTE PTR __$EHRec$[ebp+8], 11 ; 0000000bH
  006b4	ff 15 00 00 00
	00		 call	 DWORD PTR __imp_??1?$CStringT@DV?$StrTraitMFC_DLL@DV?$ChTraitsCRT@D@ATL@@@@@ATL@@QAE@XZ
  006ba	8d 8d 58 ff ff
	ff		 lea	 ecx, DWORD PTR _strMonth$[ebp]
  006c0	ff 15 00 00 00
	00		 call	 DWORD PTR __imp_?MakeUpper@?$CStringT@DV?$StrTraitMFC_DLL@DV?$ChTraitsCRT@D@ATL@@@@@ATL@@QAEAAV12@XZ
; File C:\Program Files (x86)\Microsoft Visual Studio\2019\Community\VC\Tools\MSVC\14.29.30133\atlmfc\include\cstringt.h

; 2671 : 		return( str1.Compare( psz2 ) >= 0 );

  006c6	68 00 00 00 00	 push	 OFFSET ??_C@_01FHEEJDEE@A@
  006cb	8d 8d 58 ff ff
	ff		 lea	 ecx, DWORD PTR _strMonth$[ebp]
  006d1	ff 15 00 00 00
	00		 call	 DWORD PTR __imp_?Compare@?$CStringT@DV?$StrTraitMFC_DLL@DV?$ChTraitsCRT@D@ATL@@@@@ATL@@QBEHPBD@Z
  006d7	85 c0		 test	 eax, eax
; File D:\git\src\IBK\IBK_DRFN\ProjSrc\SrcDrfn\Chart\comparechart\TabCodeSearchFO.cpp

; 548  : 				if (strMonth >= "A" && strMonth <= "C")		nMonth = (strMonth[0] - 'A')+10;

  006d9	78 2b		 js	 SHORT $LN45@InitMaster
; File C:\Program Files (x86)\Microsoft Visual Studio\2019\Community\VC\Tools\MSVC\14.29.30133\atlmfc\include\cstringt.h

; 2650 : 		return( str1.Compare( psz2 ) <= 0 );

  006db	68 00 00 00 00	 push	 OFFSET ??_C@_01GFHCPBMG@C@
  006e0	8d 8d 58 ff ff
	ff		 lea	 ecx, DWORD PTR _strMonth$[ebp]
  006e6	ff 15 00 00 00
	00		 call	 DWORD PTR __imp_?Compare@?$CStringT@DV?$StrTraitMFC_DLL@DV?$ChTraitsCRT@D@ATL@@@@@ATL@@QBEHPBD@Z
  006ec	85 c0		 test	 eax, eax
; File D:\git\src\IBK\IBK_DRFN\ProjSrc\SrcDrfn\Chart\comparechart\TabCodeSearchFO.cpp

; 548  : 				if (strMonth >= "A" && strMonth <= "C")		nMonth = (strMonth[0] - 'A')+10;

  006ee	7f 16		 jg	 SHORT $LN45@InitMaster
  006f0	6a 00		 push	 0
  006f2	8d 8d 58 ff ff
	ff		 lea	 ecx, DWORD PTR _strMonth$[ebp]
  006f8	ff 15 00 00 00
	00		 call	 DWORD PTR __imp_??A?$CSimpleStringT@D$00@ATL@@QBEDH@Z
  006fe	0f be c0	 movsx	 eax, al
  00701	83 e8 37	 sub	 eax, 55			; 00000037H
  00704	eb 10		 jmp	 SHORT $LN329@InitMaster
$LN45@InitMaster:

; 549  : 				else										nMonth = atoi(strMonth);

  00706	ff b5 58 ff ff
	ff		 push	 DWORD PTR _strMonth$[ebp]
  0070c	a1 00 00 00 00	 mov	 eax, DWORD PTR __imp__atoi
  00711	ff d0		 call	 eax
  00713	83 c4 04	 add	 esp, 4
$LN329@InitMaster:

; 550  : 			}
; 551  : 			nExercise = atoi(strCode.Mid(5, 3));

  00716	89 85 4c ff ff
	ff		 mov	 DWORD PTR _nMonth$[ebp], eax
$LN46@InitMaster:
  0071c	6a 03		 push	 3
  0071e	6a 05		 push	 5
  00720	8d 85 08 ff ff
	ff		 lea	 eax, DWORD PTR $T9[ebp]
  00726	50		 push	 eax
  00727	8d 8d 7c ff ff
	ff		 lea	 ecx, DWORD PTR _strCode$[ebp]
  0072d	ff 15 00 00 00
	00		 call	 DWORD PTR __imp_?Mid@?$CStringT@DV?$StrTraitMFC_DLL@DV?$ChTraitsCRT@D@ATL@@@@@ATL@@QBE?AV12@HH@Z
  00733	ff 30		 push	 DWORD PTR [eax]
  00735	ff 15 00 00 00
	00		 call	 DWORD PTR __imp__atoi
  0073b	83 c4 04	 add	 esp, 4
  0073e	8d 8d 08 ff ff
	ff		 lea	 ecx, DWORD PTR $T9[ebp]
  00744	8b f8		 mov	 edi, eax
  00746	ff 15 00 00 00
	00		 call	 DWORD PTR __imp_??1?$CStringT@DV?$StrTraitMFC_DLL@DV?$ChTraitsCRT@D@ATL@@@@@ATL@@QAE@XZ

; 552  : 
; 553  : 			if (MaxExercise < nExercise)		MaxExercise = nExercise;

  0074c	8b 85 30 ff ff
	ff		 mov	 eax, DWORD PTR _MaxExercise$1$[ebp]

; 554  : 
; 555  : 			char cMCode = strCode.GetAt(3); // 0024696:    

  00752	8d 8d 7c ff ff
	ff		 lea	 ecx, DWORD PTR _strCode$[ebp]
  00758	3b c7		 cmp	 eax, edi
  0075a	6a 03		 push	 3
  0075c	0f 4c c7	 cmovl	 eax, edi
  0075f	89 85 30 ff ff
	ff		 mov	 DWORD PTR _MaxExercise$1$[ebp], eax
  00765	ff 15 00 00 00
	00		 call	 DWORD PTR __imp_?GetAt@?$CSimpleStringT@D$00@ATL@@QBEDH@Z

; 556  : 
; 557  : 			if (strCode.Find("AF") >= 0 && m_nComboSel == 2 && nMondayMonth != nMondayMonthNow)

  0076b	6a 00		 push	 0
  0076d	68 00 00 00 00	 push	 OFFSET ??_C@_02NHMFCJJJ@AF@
  00772	8d 8d 7c ff ff
	ff		 lea	 ecx, DWORD PTR _strCode$[ebp]
  00778	88 85 63 ff ff
	ff		 mov	 BYTE PTR _cMCode$19[ebp], al
  0077e	ff 15 00 00 00
	00		 call	 DWORD PTR __imp_?Find@?$CStringT@DV?$StrTraitMFC_DLL@DV?$ChTraitsCRT@D@ATL@@@@@ATL@@QBEHPBDH@Z
  00784	85 c0		 test	 eax, eax
  00786	0f 88 02 01 00
	00		 js	 $LN312@InitMaster
  0078c	83 be f0 04 00
	00 02		 cmp	 DWORD PTR [esi+1264], 2
  00793	0f 85 fe 00 00
	00		 jne	 $LN310@InitMaster
  00799	8b 95 10 ff ff
	ff		 mov	 edx, DWORD PTR _nMondayMonth$1$[ebp]
  0079f	3b 95 18 ff ff
	ff		 cmp	 edx, DWORD PTR _nMondayMonthNow$1$[ebp]
  007a5	0f 84 e3 00 00
	00		 je	 $LN312@InitMaster

; 558  : 			{
; 559  : 				nIndexMonth++;

  007ab	8b 85 5c ff ff
	ff		 mov	 eax, DWORD PTR tv2494[ebp]
  007b1	8b 8d 64 ff ff
	ff		 mov	 ecx, DWORD PTR tv2491[ebp]
  007b7	83 c0 04	 add	 eax, 4
  007ba	ff 85 6c ff ff
	ff		 inc	 DWORD PTR _nIndexMonth$1$[ebp]
  007c0	83 c1 04	 add	 ecx, 4
  007c3	ff 85 50 ff ff
	ff		 inc	 DWORD PTR tv2493[ebp]
  007c9	83 85 48 ff ff
	ff 04		 add	 DWORD PTR tv2490[ebp], 4
  007d0	89 8d 64 ff ff
	ff		 mov	 DWORD PTR tv2491[ebp], ecx
  007d6	89 85 5c ff ff
	ff		 mov	 DWORD PTR tv2494[ebp], eax

; 560  : 				if (nIndexMonth == 12) break;

  007dc	3d 60 04 00 00	 cmp	 eax, 1120		; 00000460H
  007e1	0f 84 32 03 00
	00		 je	 $LN15@InitMaster

; 561  : 
; 562  : 				m_nMonth.nInfo[nIndexMonth] = nMondayMonthNow = nMondayMonth;
; 563  : 				
; 564  : 				m_nMonth.nYear[nIndexMonth] = atoi(strCodeName.Mid(4, 2));

  007e7	6a 02		 push	 2
  007e9	6a 04		 push	 4
  007eb	8d 85 04 ff ff
	ff		 lea	 eax, DWORD PTR $T8[ebp]
  007f1	89 11		 mov	 DWORD PTR [ecx], edx
  007f3	50		 push	 eax
  007f4	8d 8d 68 ff ff
	ff		 lea	 ecx, DWORD PTR _strCodeName$[ebp]
  007fa	89 95 18 ff ff
	ff		 mov	 DWORD PTR _nMondayMonthNow$1$[ebp], edx
  00800	ff 15 00 00 00
	00		 call	 DWORD PTR __imp_?Mid@?$CStringT@DV?$StrTraitMFC_DLL@DV?$ChTraitsCRT@D@ATL@@@@@ATL@@QBE?AV12@HH@Z
  00806	ff 30		 push	 DWORD PTR [eax]
  00808	ff 15 00 00 00
	00		 call	 DWORD PTR __imp__atoi
  0080e	8b 95 5c ff ff
	ff		 mov	 edx, DWORD PTR tv2494[ebp]
  00814	8d 8d 04 ff ff
	ff		 lea	 ecx, DWORD PTR $T8[ebp]
  0081a	83 c4 04	 add	 esp, 4
  0081d	89 04 16	 mov	 DWORD PTR [esi+edx], eax
  00820	ff 15 00 00 00
	00		 call	 DWORD PTR __imp_??1?$CStringT@DV?$StrTraitMFC_DLL@DV?$ChTraitsCRT@D@ATL@@@@@ATL@@QAE@XZ

; 565  : 				m_cYear[nIndexMonth] = strCodeName.GetAt(9);

  00826	6a 09		 push	 9
  00828	8d 8d 68 ff ff
	ff		 lea	 ecx, DWORD PTR _strCodeName$[ebp]
  0082e	ff 15 00 00 00
	00		 call	 DWORD PTR __imp_?GetAt@?$CSimpleStringT@D$00@ATL@@QBEDH@Z
  00834	8b 8d 50 ff ff
	ff		 mov	 ecx, DWORD PTR tv2493[ebp]

; 566  : 				m_strWeeklyNo[nIndexMonth] = strCode.Mid(3, 2); // 0024696:    

  0083a	6a 02		 push	 2
  0083c	6a 03		 push	 3
  0083e	88 01		 mov	 BYTE PTR [ecx], al
  00840	8d 85 00 ff ff
	ff		 lea	 eax, DWORD PTR $T7[ebp]
  00846	50		 push	 eax
  00847	8d 8d 7c ff ff
	ff		 lea	 ecx, DWORD PTR _strCode$[ebp]
  0084d	ff 15 00 00 00
	00		 call	 DWORD PTR __imp_?Mid@?$CStringT@DV?$StrTraitMFC_DLL@DV?$ChTraitsCRT@D@ATL@@@@@ATL@@QBE?AV12@HH@Z
  00853	8b 8d 6c ff ff
	ff		 mov	 ecx, DWORD PTR _nIndexMonth$1$[ebp]
  00859	81 c1 19 01 00
	00		 add	 ecx, 281		; 00000119H
  0085f	c6 45 fc 0d	 mov	 BYTE PTR __$EHRec$[ebp+8], 13 ; 0000000dH
  00863	50		 push	 eax
  00864	8d 0c 8e	 lea	 ecx, DWORD PTR [esi+ecx*4]
  00867	ff 15 00 00 00
	00		 call	 DWORD PTR __imp_??4?$CStringT@DV?$StrTraitMFC_DLL@DV?$ChTraitsCRT@D@ATL@@@@@ATL@@QAEAAV01@ABV01@@Z
  0086d	8d 8d 00 ff ff
	ff		 lea	 ecx, DWORD PTR $T7[ebp]
  00873	c6 45 fc 0b	 mov	 BYTE PTR __$EHRec$[ebp+8], 11 ; 0000000bH
  00877	ff 15 00 00 00
	00		 call	 DWORD PTR __imp_??1?$CStringT@DV?$StrTraitMFC_DLL@DV?$ChTraitsCRT@D@ATL@@@@@ATL@@QAE@XZ

; 567  : 				m_bMonday[nIndexMonth] = TRUE;

  0087d	8b 95 48 ff ff
	ff		 mov	 edx, DWORD PTR tv2490[ebp]
  00883	c7 02 01 00 00
	00		 mov	 DWORD PTR [edx], 1

; 568  : 			}

  00889	e9 9c 01 00 00	 jmp	 $LN57@InitMaster
$LN312@InitMaster:

; 569  : 			else if ( (m_nComboSel != 2 && (nMonthNow != nMonth || strncmp(&m_cYear[nIndexMonth], &cMCode, 1)) && nIndexMonth < 11) || (m_nComboSel == 2 && nMonthNow != nMonth))

  0088e	83 be f0 04 00
	00 02		 cmp	 DWORD PTR [esi+1264], 2
  00895	74 48		 je	 SHORT $LN311@InitMaster
$LN310@InitMaster:
  00897	8b 85 4c ff ff
	ff		 mov	 eax, DWORD PTR _nMonth$[ebp]
  0089d	39 85 38 ff ff
	ff		 cmp	 DWORD PTR _nMonthNow$1$[ebp], eax
  008a3	75 22		 jne	 SHORT $LN54@InitMaster
  008a5	6a 01		 push	 1
  008a7	8d 85 63 ff ff
	ff		 lea	 eax, DWORD PTR _cMCode$19[ebp]
  008ad	50		 push	 eax
  008ae	ff b5 50 ff ff
	ff		 push	 DWORD PTR tv2493[ebp]
  008b4	ff 15 00 00 00
	00		 call	 DWORD PTR __imp__strncmp
  008ba	83 c4 0c	 add	 esp, 12			; 0000000cH
  008bd	85 c0		 test	 eax, eax
  008bf	74 11		 je	 SHORT $LN53@InitMaster
  008c1	8b 85 4c ff ff
	ff		 mov	 eax, DWORD PTR _nMonth$[ebp]
$LN54@InitMaster:
  008c7	8b 8d 6c ff ff
	ff		 mov	 ecx, DWORD PTR _nIndexMonth$1$[ebp]
  008cd	83 f9 0b	 cmp	 ecx, 11			; 0000000bH
  008d0	7c 25		 jl	 SHORT $LN313@InitMaster
$LN53@InitMaster:
  008d2	83 be f0 04 00
	00 02		 cmp	 DWORD PTR [esi+1264], 2
  008d9	0f 85 4b 01 00
	00		 jne	 $LN57@InitMaster
$LN311@InitMaster:
  008df	8b 85 4c ff ff
	ff		 mov	 eax, DWORD PTR _nMonth$[ebp]
  008e5	39 85 38 ff ff
	ff		 cmp	 DWORD PTR _nMonthNow$1$[ebp], eax
  008eb	0f 84 39 01 00
	00		 je	 $LN57@InitMaster
  008f1	8b 8d 6c ff ff
	ff		 mov	 ecx, DWORD PTR _nIndexMonth$1$[ebp]
$LN313@InitMaster:

; 570  : 			{	
; 571  : 				nIndexMonth++;

  008f7	8b 95 64 ff ff
	ff		 mov	 edx, DWORD PTR tv2491[ebp]
  008fd	41		 inc	 ecx
  008fe	ff 85 50 ff ff
	ff		 inc	 DWORD PTR tv2493[ebp]
  00904	83 c2 04	 add	 edx, 4
  00907	83 85 48 ff ff
	ff 04		 add	 DWORD PTR tv2490[ebp], 4
  0090e	89 8d 6c ff ff
	ff		 mov	 DWORD PTR _nIndexMonth$1$[ebp], ecx
  00914	8b 8d 5c ff ff
	ff		 mov	 ecx, DWORD PTR tv2494[ebp]
  0091a	83 c1 04	 add	 ecx, 4
  0091d	89 95 64 ff ff
	ff		 mov	 DWORD PTR tv2491[ebp], edx
  00923	89 8d 5c ff ff
	ff		 mov	 DWORD PTR tv2494[ebp], ecx

; 572  : 				if(nIndexMonth==12) break;

  00929	81 f9 60 04 00
	00		 cmp	 ecx, 1120		; 00000460H
  0092f	0f 84 e4 01 00
	00		 je	 $LN15@InitMaster

; 573  : 
; 574  : 				m_nMonth.nInfo[nIndexMonth] = nMonthNow = nMonth;

  00935	89 02		 mov	 DWORD PTR [edx], eax

; 575  : 
; 576  : 				if(m_nComboSel == 2 )

  00937	8d 8d 68 ff ff
	ff		 lea	 ecx, DWORD PTR _strCodeName$[ebp]
  0093d	83 be f0 04 00
	00 02		 cmp	 DWORD PTR [esi+1264], 2
  00944	89 85 38 ff ff
	ff		 mov	 DWORD PTR _nMonthNow$1$[ebp], eax
  0094a	0f 85 8e 00 00
	00		 jne	 $LN56@InitMaster

; 577  : 				{
; 578  : 					m_nMonth.nYear[nIndexMonth] = atoi( strCodeName.Mid( 2, 2) );

  00950	6a 02		 push	 2
  00952	6a 02		 push	 2
  00954	8d 85 fc fe ff
	ff		 lea	 eax, DWORD PTR $T6[ebp]
  0095a	50		 push	 eax
  0095b	ff 15 00 00 00
	00		 call	 DWORD PTR __imp_?Mid@?$CStringT@DV?$StrTraitMFC_DLL@DV?$ChTraitsCRT@D@ATL@@@@@ATL@@QBE?AV12@HH@Z
  00961	ff 30		 push	 DWORD PTR [eax]
  00963	ff 15 00 00 00
	00		 call	 DWORD PTR __imp__atoi
  00969	8b 95 5c ff ff
	ff		 mov	 edx, DWORD PTR tv2494[ebp]
  0096f	8d 8d fc fe ff
	ff		 lea	 ecx, DWORD PTR $T6[ebp]
  00975	83 c4 04	 add	 esp, 4
  00978	89 04 16	 mov	 DWORD PTR [esi+edx], eax
  0097b	ff 15 00 00 00
	00		 call	 DWORD PTR __imp_??1?$CStringT@DV?$StrTraitMFC_DLL@DV?$ChTraitsCRT@D@ATL@@@@@ATL@@QAE@XZ

; 579  : 					m_cYear[nIndexMonth] = strCodeName.GetAt(7);

  00981	6a 07		 push	 7
  00983	8d 8d 68 ff ff
	ff		 lea	 ecx, DWORD PTR _strCodeName$[ebp]
  00989	ff 15 00 00 00
	00		 call	 DWORD PTR __imp_?GetAt@?$CSimpleStringT@D$00@ATL@@QBEDH@Z
  0098f	8b 8d 6c ff ff
	ff		 mov	 ecx, DWORD PTR _nIndexMonth$1$[ebp]

; 580  : 					m_strWeeklyNo[nIndexMonth] = strCode.Mid( 3, 2); // 0024696:    

  00995	6a 02		 push	 2
  00997	6a 03		 push	 3
  00999	88 84 0e 94 04
	00 00		 mov	 BYTE PTR [esi+ecx+1172], al
  009a0	8d 85 d8 fe ff
	ff		 lea	 eax, DWORD PTR $T2[ebp]
  009a6	50		 push	 eax
  009a7	8d 8d 7c ff ff
	ff		 lea	 ecx, DWORD PTR _strCode$[ebp]
  009ad	ff 15 00 00 00
	00		 call	 DWORD PTR __imp_?Mid@?$CStringT@DV?$StrTraitMFC_DLL@DV?$ChTraitsCRT@D@ATL@@@@@ATL@@QBE?AV12@HH@Z
  009b3	50		 push	 eax
  009b4	8b 85 6c ff ff
	ff		 mov	 eax, DWORD PTR _nIndexMonth$1$[ebp]
  009ba	05 19 01 00 00	 add	 eax, 281		; 00000119H
  009bf	c6 45 fc 0e	 mov	 BYTE PTR __$EHRec$[ebp+8], 14 ; 0000000eH
  009c3	8d 0c 86	 lea	 ecx, DWORD PTR [esi+eax*4]
  009c6	ff 15 00 00 00
	00		 call	 DWORD PTR __imp_??4?$CStringT@DV?$StrTraitMFC_DLL@DV?$ChTraitsCRT@D@ATL@@@@@ATL@@QAEAAV01@ABV01@@Z
  009cc	8d 8d d8 fe ff
	ff		 lea	 ecx, DWORD PTR $T2[ebp]
  009d2	c6 45 fc 0b	 mov	 BYTE PTR __$EHRec$[ebp+8], 11 ; 0000000bH
  009d6	ff 15 00 00 00
	00		 call	 DWORD PTR __imp_??1?$CStringT@DV?$StrTraitMFC_DLL@DV?$ChTraitsCRT@D@ATL@@@@@ATL@@QAE@XZ

; 581  : 				}

  009dc	eb 4c		 jmp	 SHORT $LN57@InitMaster
$LN56@InitMaster:

; 582  : 				else
; 583  : 				{
; 584  : 					m_nMonth.nYear[nIndexMonth] = atoi( strCodeName.Mid( 2, 4) );

  009de	6a 04		 push	 4
  009e0	6a 02		 push	 2
  009e2	8d 85 54 ff ff
	ff		 lea	 eax, DWORD PTR $T11[ebp]
  009e8	50		 push	 eax
  009e9	ff 15 00 00 00
	00		 call	 DWORD PTR __imp_?Mid@?$CStringT@DV?$StrTraitMFC_DLL@DV?$ChTraitsCRT@D@ATL@@@@@ATL@@QBE?AV12@HH@Z
  009ef	ff 30		 push	 DWORD PTR [eax]
  009f1	ff 15 00 00 00
	00		 call	 DWORD PTR __imp__atoi
  009f7	8b 95 5c ff ff
	ff		 mov	 edx, DWORD PTR tv2494[ebp]
  009fd	8d 8d 54 ff ff
	ff		 lea	 ecx, DWORD PTR $T11[ebp]
  00a03	83 c4 04	 add	 esp, 4
  00a06	89 04 16	 mov	 DWORD PTR [esi+edx], eax
  00a09	ff 15 00 00 00
	00		 call	 DWORD PTR __imp_??1?$CStringT@DV?$StrTraitMFC_DLL@DV?$ChTraitsCRT@D@ATL@@@@@ATL@@QAE@XZ

; 585  : 					m_cYear[nIndexMonth] = strCode.GetAt(3); 

  00a0f	6a 03		 push	 3
  00a11	8d 8d 7c ff ff
	ff		 lea	 ecx, DWORD PTR _strCode$[ebp]
  00a17	ff 15 00 00 00
	00		 call	 DWORD PTR __imp_?GetAt@?$CSimpleStringT@D$00@ATL@@QBEDH@Z
  00a1d	8b 8d 6c ff ff
	ff		 mov	 ecx, DWORD PTR _nIndexMonth$1$[ebp]
  00a23	88 84 0e 94 04
	00 00		 mov	 BYTE PTR [esi+ecx+1172], al
$LN57@InitMaster:

; 586  : 				}
; 587  : 				//m_cYear = strCode.GetAt(3);
; 588  : 			}
; 589  : 
; 590  : 			bFind = FALSE;
; 591  : //			if(oldInfo.nInfo[EXERCISE] == nExercise)
; 592  : //				bFind = TRUE;
; 593  : 			for(POSITION pos=m_listMaster.GetHeadPosition(); pos; )

  00a2a	8b 8e e8 03 00
	00		 mov	 ecx, DWORD PTR [esi+1000]
  00a30	33 d2		 xor	 edx, edx
  00a32	85 c9		 test	 ecx, ecx
  00a34	74 11		 je	 SHORT $LN326@InitMaster
$LL17@InitMaster:
; File C:\Program Files (x86)\Microsoft Visual Studio\2019\Community\VC\Tools\MSVC\14.29.30133\atlmfc\include\afxtempl.h

; 811  : 	{ CNode* pNode = (CNode*) rPosition;

  00a36	8d 01		 lea	 eax, DWORD PTR [ecx]

; 812  : 		ASSERT(AfxIsValidAddress(pNode, sizeof(CNode)));
; 813  : 		rPosition = (POSITION) pNode->pNext;

  00a38	8b 09		 mov	 ecx, DWORD PTR [ecx]
; File D:\git\src\IBK\IBK_DRFN\ProjSrc\SrcDrfn\Chart\comparechart\TabCodeSearchFO.cpp

; 596  : 				if (info.nInfo[EXERCISE] == nExercise)

  00a3a	39 78 08	 cmp	 DWORD PTR [eax+8], edi
  00a3d	0f 84 46 01 00
	00		 je	 $LN267@InitMaster

; 586  : 				}
; 587  : 				//m_cYear = strCode.GetAt(3);
; 588  : 			}
; 589  : 
; 590  : 			bFind = FALSE;
; 591  : //			if(oldInfo.nInfo[EXERCISE] == nExercise)
; 592  : //				bFind = TRUE;
; 593  : 			for(POSITION pos=m_listMaster.GetHeadPosition(); pos; )

  00a43	85 c9		 test	 ecx, ecx
  00a45	75 ef		 jne	 SHORT $LL17@InitMaster
$LN326@InitMaster:

; 600  : 					break;
; 601  : 				}
; 602  : 			}
; 603  : 
; 604  : 			if (!bFind)

  00a47	8b 8d 6c ff ff
	ff		 mov	 ecx, DWORD PTR _nIndexMonth$1$[ebp]
$LN18@InitMaster:
  00a4d	85 d2		 test	 edx, edx
  00a4f	0f 85 a6 00 00
	00		 jne	 $LN14@InitMaster
; File D:\git\src\IBK\IBK_DRFN\ProjSrc\SrcDrfn\Chart\comparechart\define\ChartMsgDef.h

; 1520 : 		for (int i=0; i < 12; i++)

  00a55	33 c0		 xor	 eax, eax
  00a57	66 0f 1f 84 00
	00 00 00 00	 npad	 9
$LL215@InitMaster:

; 1521 : 		{
; 1522 : 			nInfo[i] = 0;

  00a60	c7 44 85 80 00
	00 00 00	 mov	 DWORD PTR _info$21[ebp+eax*4], 0

; 1523 : 			nYear[i] = 0;

  00a68	c7 44 85 b0 00
	00 00 00	 mov	 DWORD PTR _info$21[ebp+eax*4+48], 0
  00a70	40		 inc	 eax
  00a71	83 f8 0c	 cmp	 eax, 12			; 0000000cH
  00a74	7c ea		 jl	 SHORT $LL215@InitMaster
; File D:\git\src\IBK\IBK_DRFN\ProjSrc\SrcDrfn\Chart\comparechart\TabCodeSearchFO.cpp

; 611  : 				char cGubunPut = cGubun + 1;

  00a76	8a 85 7b ff ff
	ff		 mov	 al, BYTE PTR _cGubun$[ebp]
  00a7c	fe c0		 inc	 al
; File D:\git\src\IBK\IBK_DRFN\ProjSrc\SrcDrfn\Chart\comparechart\define\ChartMsgDef.h

; 1526 : 		memset(szPCode, 0x00, sizeof(szPCode)); // 0024696:    

  00a7e	c7 45 e0 00 00
	00 00		 mov	 DWORD PTR _info$21[ebp+96], 0
; File D:\git\src\IBK\IBK_DRFN\ProjSrc\SrcDrfn\Chart\comparechart\TabCodeSearchFO.cpp

; 611  : 				char cGubunPut = cGubun + 1;

  00a85	88 85 62 ff ff
	ff		 mov	 BYTE PTR _cGubunPut$18[ebp], al

; 612  : 				strncpy(&info.szPCode[COL_CENTER - 1], &cGubun, 1);		//

  00a8b	8d 85 7b ff ff
	ff		 lea	 eax, DWORD PTR _cGubun$[ebp]
  00a91	6a 01		 push	 1
  00a93	50		 push	 eax
  00a94	8d 45 e0	 lea	 eax, DWORD PTR _info$21[ebp+96]
  00a97	89 7d 80	 mov	 DWORD PTR _info$21[ebp], edi
  00a9a	50		 push	 eax
  00a9b	c7 44 8d 80 01
	00 00 00	 mov	 DWORD PTR _info$21[ebp+ecx*4], 1
  00aa3	ff 15 00 00 00
	00		 call	 DWORD PTR __imp__strncpy

; 613  : 				strncpy(&info.szPCode[COL_CENTER + 1], &cGubunPut, 1);	//

  00aa9	6a 01		 push	 1
  00aab	8d 85 62 ff ff
	ff		 lea	 eax, DWORD PTR _cGubunPut$18[ebp]
  00ab1	50		 push	 eax
  00ab2	8d 45 e2	 lea	 eax, DWORD PTR _info$21[ebp+98]
  00ab5	50		 push	 eax
  00ab6	ff 15 00 00 00
	00		 call	 DWORD PTR __imp__strncpy
  00abc	83 c4 18	 add	 esp, 24			; 00000018H

; 614  : 				//<--
; 615  : 
; 616  : 				m_listMaster.AddTail(info);

  00abf	8d 45 80	 lea	 eax, DWORD PTR _info$21[ebp]
  00ac2	8d 8e e4 03 00
	00		 lea	 ecx, DWORD PTR [esi+996]
  00ac8	50		 push	 eax
  00ac9	e8 00 00 00 00	 call	 ?AddTail@?$CList@U_codeinfo@@AAU1@@@QAEPAU__POSITION@@AAU_codeinfo@@@Z ; CList<_codeinfo,_codeinfo &>::AddTail

; 617  : 
; 618  : 				//--> 0024696:    
; 619  : 				if (m_nComboSel != 2)

  00ace	83 be f0 04 00
	00 02		 cmp	 DWORD PTR [esi+1264], 2
  00ad5	74 24		 je	 SHORT $LN14@InitMaster

; 620  : 				{
; 621  : 					if (nPrevExercise > 0 && abs(nExercise - nPrevExercise) > 3) m_nJumpCnt++;

  00ad7	8b 8d 40 ff ff
	ff		 mov	 ecx, DWORD PTR _nPrevExercise$1$[ebp]
  00add	85 c9		 test	 ecx, ecx
  00adf	7e 14		 jle	 SHORT $LN61@InitMaster
  00ae1	8b c7		 mov	 eax, edi
  00ae3	2b c1		 sub	 eax, ecx
  00ae5	99		 cdq
  00ae6	33 c2		 xor	 eax, edx
  00ae8	2b c2		 sub	 eax, edx
  00aea	83 f8 03	 cmp	 eax, 3
  00aed	7e 06		 jle	 SHORT $LN61@InitMaster
  00aef	ff 86 d8 04 00
	00		 inc	 DWORD PTR [esi+1240]
$LN61@InitMaster:

; 622  : 					nPrevExercise = nExercise;

  00af5	89 bd 40 ff ff
	ff		 mov	 DWORD PTR _nPrevExercise$1$[ebp], edi
$LN14@InitMaster:

; 508  : 	int		 nMonth, nExercise, nMonthNow, nMondayMonth, nMondayMonthNow;
; 509  : 	int		 nIndexMonth = EXERCISE;
; 510  : 	BOOL	 bFind;
; 511  : 
; 512  : 	//--> 0024696:    
; 513  : 	char cGubun;
; 514  : 	m_nJumpCnt = 0;
; 515  : 	int nPrevExercise = 0;
; 516  : 	//<--
; 517  : 	nMonthNow = 0;
; 518  : 	nMondayMonth = 0;
; 519  : 	nMondayMonthNow = 0;
; 520  : 	int MaxExercise = 0;
; 521  : //	codeinfo oldInfo; oldInfo.nInfo[EXERCISE]=0;
; 522  : 	for(nIndex=0; nIndex < pastrJongCode->GetSize(); nIndex++)

  00afb	8b 8d 70 ff ff
	ff		 mov	 ecx, DWORD PTR _pastrJongCode$[ebp]
  00b01	8b bd 34 ff ff
	ff		 mov	 edi, DWORD PTR _nIndex$1$[ebp]
  00b07	47		 inc	 edi
  00b08	89 bd 34 ff ff
	ff		 mov	 DWORD PTR _nIndex$1$[ebp], edi
  00b0e	8b 41 08	 mov	 eax, DWORD PTR [ecx+8]
  00b11	3b f8		 cmp	 edi, eax
  00b13	0f 8c 38 fa ff
	ff		 jl	 $LL16@InitMaster
$LN15@InitMaster:

; 623  : 				}
; 624  : 				//<--
; 625  : 			}
; 626  : 
; 627  : //			oldInfo.nInfo[EXERCISE] = nExercise;
; 628  : 		}
; 629  : 	}
; 630  : 
; 631  : 	if(m_nComboSel == 0 )

  00b19	8b 86 f0 04 00
	00		 mov	 eax, DWORD PTR [esi+1264]
  00b1f	85 c0		 test	 eax, eax
  00b21	0f 85 7a 00 00
	00		 jne	 $LN62@InitMaster

; 633  : 		for(int i=1; i<12; i++)

  00b27	b9 0b 00 00 00	 mov	 ecx, 11			; 0000000bH
  00b2c	8d be 04 04 00
	00		 lea	 edi, DWORD PTR [esi+1028]
  00b32	89 8d 40 ff ff
	ff		 mov	 DWORD PTR tv2528[ebp], ecx
$LL22@InitMaster:

; 634  : 		{
; 635  : 			if (m_nMonth.nYear[i] < 0)

  00b38	8b 47 30	 mov	 eax, DWORD PTR [edi+48]
  00b3b	85 c0		 test	 eax, eax
  00b3d	78 37		 js	 SHORT $LN20@InitMaster

; 636  : 				continue;
; 637  : 			strCode.Format("%d%02d", m_nMonth.nYear[i], m_nMonth.nInfo[i]);

  00b3f	ff 37		 push	 DWORD PTR [edi]
  00b41	50		 push	 eax
  00b42	8d 85 7c ff ff
	ff		 lea	 eax, DWORD PTR _strCode$[ebp]
  00b48	68 00 00 00 00	 push	 OFFSET ??_C@_06LDAHLMHO@?$CFd?$CF02d@
  00b4d	50		 push	 eax
  00b4e	ff 15 00 00 00
	00		 call	 DWORD PTR __imp_?Format@?$CStringT@DV?$StrTraitMFC_DLL@DV?$ChTraitsCRT@D@ATL@@@@@ATL@@QAAXPBDZZ
  00b54	83 c4 10	 add	 esp, 16			; 00000010H
; File C:\Program Files (x86)\Microsoft Visual Studio\2019\Community\VC\Tools\MSVC\14.29.30133\atlmfc\include\afxwin2.inl

; 795  : 	{ ASSERT(::IsWindow(m_hWnd)); return (int)::SendMessage(m_hWnd, CB_ADDSTRING, 0, (LPARAM)lpszString); }

  00b57	ff b5 7c ff ff
	ff		 push	 DWORD PTR _strCode$[ebp]
  00b5d	6a 00		 push	 0
  00b5f	68 43 01 00 00	 push	 323			; 00000143H
  00b64	ff b6 78 01 00
	00		 push	 DWORD PTR [esi+376]
  00b6a	ff 15 00 00 00
	00		 call	 DWORD PTR __imp__SendMessageA@16
  00b70	8b 8d 40 ff ff
	ff		 mov	 ecx, DWORD PTR tv2528[ebp]
$LN20@InitMaster:
; File D:\git\src\IBK\IBK_DRFN\ProjSrc\SrcDrfn\Chart\comparechart\TabCodeSearchFO.cpp

; 633  : 		for(int i=1; i<12; i++)

  00b76	83 c7 04	 add	 edi, 4
  00b79	83 e9 01	 sub	 ecx, 1
  00b7c	89 8d 40 ff ff
	ff		 mov	 DWORD PTR tv2528[ebp], ecx
  00b82	75 b4		 jne	 SHORT $LL22@InitMaster

; 638  : 			m_ctrlComboMonth.AddString(strCode);
; 639  : 		}
; 640  : 	}

  00b84	e9 eb 00 00 00	 jmp	 $LN27@InitMaster
$LN267@InitMaster:

; 597  : 				{
; 598  : 					info.nInfo[nIndexMonth] = 1;

  00b89	8b 8d 6c ff ff
	ff		 mov	 ecx, DWORD PTR _nIndexMonth$1$[ebp]

; 599  : 					bFind = TRUE;

  00b8f	ba 01 00 00 00	 mov	 edx, 1
  00b94	c7 44 88 08 01
	00 00 00	 mov	 DWORD PTR [eax+ecx*4+8], 1
  00b9c	e9 ac fe ff ff	 jmp	 $LN18@InitMaster
$LN62@InitMaster:

; 641  : 	else if(m_nComboSel == 2 )

  00ba1	83 f8 02	 cmp	 eax, 2
  00ba4	75 71		 jne	 SHORT $LN65@InitMaster

; 643  : 		for(int i=1; i<12; i++)

  00ba6	8d 78 ff	 lea	 edi, DWORD PTR [eax-1]
  00ba9	8d 96 a4 04 00
	00		 lea	 edx, DWORD PTR [esi+1188]
  00baf	90		 npad	 1
$LL25@InitMaster:

; 644  : 		{			
; 645  : 			if (m_nMonth.nYear[i] < 0)

  00bb0	83 7a 90 00	 cmp	 DWORD PTR [edx-112], 0
  00bb4	7c 50		 jl	 SHORT $LN23@InitMaster

; 646  : 				continue;
; 647  : 			if (m_bMonday[i] == TRUE)

  00bb6	83 3a 01	 cmp	 DWORD PTR [edx], 1
  00bb9	0f be 8c 3e 94
	04 00 00	 movsx	 ecx, BYTE PTR [esi+edi+1172]
  00bc1	8b 82 60 ff ff
	ff		 mov	 eax, DWORD PTR [edx-160]
  00bc7	51		 push	 ecx
  00bc8	50		 push	 eax
  00bc9	8d 85 7c ff ff
	ff		 lea	 eax, DWORD PTR _strCode$[ebp]
  00bcf	75 07		 jne	 SHORT $LN68@InitMaster

; 648  : 				strCode.Format("%02d.MW%c", m_nMonth.nInfo[i], m_cYear[i]);

  00bd1	68 00 00 00 00	 push	 OFFSET ??_C@_09JIGINAPD@?$CF02d?4MW?$CFc@
  00bd6	eb 05		 jmp	 SHORT $LN330@InitMaster
$LN68@InitMaster:

; 649  : 			else
; 650  : 				strCode.Format("%02d.W%c", m_nMonth.nInfo[i], m_cYear[i]);

  00bd8	68 00 00 00 00	 push	 OFFSET ??_C@_08KALJJMOG@?$CF02d?4W?$CFc@
$LN330@InitMaster:
; File C:\Program Files (x86)\Microsoft Visual Studio\2019\Community\VC\Tools\MSVC\14.29.30133\atlmfc\include\afxwin2.inl

; 795  : 	{ ASSERT(::IsWindow(m_hWnd)); return (int)::SendMessage(m_hWnd, CB_ADDSTRING, 0, (LPARAM)lpszString); }

  00bdd	50		 push	 eax
  00bde	ff 15 00 00 00
	00		 call	 DWORD PTR __imp_?Format@?$CStringT@DV?$StrTraitMFC_DLL@DV?$ChTraitsCRT@D@ATL@@@@@ATL@@QAAXPBDZZ
  00be4	83 c4 10	 add	 esp, 16			; 00000010H
  00be7	ff b5 7c ff ff
	ff		 push	 DWORD PTR _strCode$[ebp]
  00bed	6a 00		 push	 0
  00bef	68 43 01 00 00	 push	 323			; 00000143H
  00bf4	ff b6 78 01 00
	00		 push	 DWORD PTR [esi+376]
  00bfa	ff 15 00 00 00
	00		 call	 DWORD PTR __imp__SendMessageA@16
  00c00	8b 95 3c ff ff
	ff		 mov	 edx, DWORD PTR tv2521[ebp]
$LN23@InitMaster:
; File D:\git\src\IBK\IBK_DRFN\ProjSrc\SrcDrfn\Chart\comparechart\TabCodeSearchFO.cpp

; 643  : 		for(int i=1; i<12; i++)

  00c06	47		 inc	 edi
  00c07	83 c2 04	 add	 edx, 4
  00c0a	89 95 3c ff ff
	ff		 mov	 DWORD PTR tv2521[ebp], edx
  00c10	83 ff 0c	 cmp	 edi, 12			; 0000000cH
  00c13	7c 9b		 jl	 SHORT $LL25@InitMaster

; 651  : 
; 652  : 			
; 653  : 			m_ctrlComboMonth.AddString(strCode);
; 654  : 		}
; 655  : 	}

  00c15	eb 5d		 jmp	 SHORT $LN27@InitMaster
$LN65@InitMaster:

; 658  : 		for(int i=1; i<6; i++)

  00c17	b9 05 00 00 00	 mov	 ecx, 5
  00c1c	8d be 04 04 00
	00		 lea	 edi, DWORD PTR [esi+1028]
  00c22	89 8d 3c ff ff
	ff		 mov	 DWORD PTR tv2529[ebp], ecx
$LL28@InitMaster:

; 659  : 		{			
; 660  : 			if (m_nMonth.nYear[i] < 0)

  00c28	8b 47 30	 mov	 eax, DWORD PTR [edi+48]
  00c2b	85 c0		 test	 eax, eax
  00c2d	78 37		 js	 SHORT $LN26@InitMaster

; 661  : 				continue;
; 662  : 			strCode.Format("%d%02d", m_nMonth.nYear[i], m_nMonth.nInfo[i]);

  00c2f	ff 37		 push	 DWORD PTR [edi]
  00c31	50		 push	 eax
  00c32	8d 85 7c ff ff
	ff		 lea	 eax, DWORD PTR _strCode$[ebp]
  00c38	68 00 00 00 00	 push	 OFFSET ??_C@_06LDAHLMHO@?$CFd?$CF02d@
  00c3d	50		 push	 eax
  00c3e	ff 15 00 00 00
	00		 call	 DWORD PTR __imp_?Format@?$CStringT@DV?$StrTraitMFC_DLL@DV?$ChTraitsCRT@D@ATL@@@@@ATL@@QAAXPBDZZ
  00c44	83 c4 10	 add	 esp, 16			; 00000010H
; File C:\Program Files (x86)\Microsoft Visual Studio\2019\Community\VC\Tools\MSVC\14.29.30133\atlmfc\include\afxwin2.inl

; 795  : 	{ ASSERT(::IsWindow(m_hWnd)); return (int)::SendMessage(m_hWnd, CB_ADDSTRING, 0, (LPARAM)lpszString); }

  00c47	ff b5 7c ff ff
	ff		 push	 DWORD PTR _strCode$[ebp]
  00c4d	6a 00		 push	 0
  00c4f	68 43 01 00 00	 push	 323			; 00000143H
  00c54	ff b6 78 01 00
	00		 push	 DWORD PTR [esi+376]
  00c5a	ff 15 00 00 00
	00		 call	 DWORD PTR __imp__SendMessageA@16
  00c60	8b 8d 3c ff ff
	ff		 mov	 ecx, DWORD PTR tv2529[ebp]
$LN26@InitMaster:
; File D:\git\src\IBK\IBK_DRFN\ProjSrc\SrcDrfn\Chart\comparechart\TabCodeSearchFO.cpp

; 658  : 		for(int i=1; i<6; i++)

  00c66	83 c7 04	 add	 edi, 4
  00c69	83 e9 01	 sub	 ecx, 1
  00c6c	89 8d 3c ff ff
	ff		 mov	 DWORD PTR tv2529[ebp], ecx
  00c72	75 b4		 jne	 SHORT $LL28@InitMaster
$LN27@InitMaster:
; File C:\Program Files (x86)\Microsoft Visual Studio\2019\Community\VC\Tools\MSVC\14.29.30133\atlmfc\include\afxwin2.inl

; 767  : 	{ ASSERT(::IsWindow(m_hWnd)); return (int)::SendMessage(m_hWnd, CB_SETCURSEL, nSelect, 0); }

  00c74	6a 00		 push	 0
  00c76	6a 00		 push	 0
  00c78	68 4e 01 00 00	 push	 334			; 0000014eH
  00c7d	ff b6 78 01 00
	00		 push	 DWORD PTR [esi+376]
  00c83	ff 15 00 00 00
	00		 call	 DWORD PTR __imp__SendMessageA@16
; File D:\git\src\IBK\IBK_DRFN\ProjSrc\SrcDrfn\Chart\comparechart\TabCodeSearchFO.cpp

; 669  : 	if (MaxExercise > 0)	m_lMaxLimit = GetRealExercise(MaxExercise);

  00c89	8b 85 30 ff ff
	ff		 mov	 eax, DWORD PTR _MaxExercise$1$[ebp]
  00c8f	85 c0		 test	 eax, eax
  00c91	7e 2e		 jle	 SHORT $LN71@InitMaster

; 742  : 	long lPrice = nPrice * 100; 

  00c93	6b f0 64	 imul	 esi, eax, 100

; 743  : 	if (lPrice % 500) lPrice += 50;	

  00c96	b8 d3 4d 62 10	 mov	 eax, 274877907		; 10624dd3H
  00c9b	f7 ee		 imul	 esi

; 669  : 	if (MaxExercise > 0)	m_lMaxLimit = GetRealExercise(MaxExercise);

  00c9d	8d 4e 32	 lea	 ecx, DWORD PTR [esi+50]

; 743  : 	if (lPrice % 500) lPrice += 50;	

  00ca0	c1 fa 05	 sar	 edx, 5
  00ca3	8b c2		 mov	 eax, edx
  00ca5	c1 e8 1f	 shr	 eax, 31			; 0000001fH
  00ca8	03 c2		 add	 eax, edx
  00caa	69 c0 f4 01 00
	00		 imul	 eax, eax, 500

; 669  : 	if (MaxExercise > 0)	m_lMaxLimit = GetRealExercise(MaxExercise);

  00cb0	3b f0		 cmp	 esi, eax
  00cb2	0f 44 ce	 cmove	 ecx, esi
  00cb5	8b b5 28 ff ff
	ff		 mov	 esi, DWORD PTR _this$GSCopy$1$[ebp]
  00cbb	89 8e d0 04 00
	00		 mov	 DWORD PTR [esi+1232], ecx
$LN71@InitMaster:

; 670  : 
; 671  : 	delete pastrEventPrice;

  00cc1	8b 8d 24 ff ff
	ff		 mov	 ecx, DWORD PTR _pastrEventPrice$[ebp]
  00cc7	85 c9		 test	 ecx, ecx
  00cc9	74 07		 je	 SHORT $LN88@InitMaster
  00ccb	8b 01		 mov	 eax, DWORD PTR [ecx]
  00ccd	6a 01		 push	 1
  00ccf	ff 50 04	 call	 DWORD PTR [eax+4]
$LN88@InitMaster:

; 672  : 	delete pastrFinalYM;

  00cd2	8b 8d 20 ff ff
	ff		 mov	 ecx, DWORD PTR _pastrFinalYM$[ebp]
  00cd8	85 c9		 test	 ecx, ecx
  00cda	74 07		 je	 SHORT $LN90@InitMaster
  00cdc	8b 01		 mov	 eax, DWORD PTR [ecx]
  00cde	6a 01		 push	 1
  00ce0	ff 50 04	 call	 DWORD PTR [eax+4]
$LN90@InitMaster:

; 673  : 	delete pastrValueGubun;

  00ce3	8b 8d 1c ff ff
	ff		 mov	 ecx, DWORD PTR _pastrValueGubun$[ebp]
  00ce9	85 c9		 test	 ecx, ecx
  00ceb	74 07		 je	 SHORT $LN92@InitMaster
  00ced	8b 01		 mov	 eax, DWORD PTR [ecx]
  00cef	6a 01		 push	 1
  00cf1	ff 50 04	 call	 DWORD PTR [eax+4]
$LN92@InitMaster:
; File C:\Program Files (x86)\Microsoft Visual Studio\2019\Community\VC\Tools\MSVC\14.29.30133\atlmfc\include\afxcoll.inl

; 286  : 	{ SetSize(0); }

  00cf4	8b 8d 70 ff ff
	ff		 mov	 ecx, DWORD PTR _pastrJongCode$[ebp]
  00cfa	6a ff		 push	 -1
  00cfc	6a 00		 push	 0
  00cfe	e8 00 00 00 00	 call	 ?SetSize@CStringArray@@QAEXHH@Z ; CStringArray::SetSize
  00d03	8b 8d 74 ff ff
	ff		 mov	 ecx, DWORD PTR _pastrJongName$[ebp]
  00d09	6a ff		 push	 -1
  00d0b	6a 00		 push	 0
  00d0d	e8 00 00 00 00	 call	 ?SetSize@CStringArray@@QAEXHH@Z ; CStringArray::SetSize
  00d12	8b 8d 44 ff ff
	ff		 mov	 ecx, DWORD PTR _pastrJongEngName$[ebp]
  00d18	6a ff		 push	 -1
  00d1a	6a 00		 push	 0
  00d1c	e8 00 00 00 00	 call	 ?SetSize@CStringArray@@QAEXHH@Z ; CStringArray::SetSize
; File D:\git\src\IBK\IBK_DRFN\ProjSrc\SrcDrfn\Chart\comparechart\TabCodeSearchFO.cpp

; 681  : 	if(m_nComboSel == 2 )

  00d21	8b 8e f0 04 00
	00		 mov	 ecx, DWORD PTR [esi+1264]
  00d27	83 f9 02	 cmp	 ecx, 2
  00d2a	0f 84 19 01 00
	00		 je	 $LN123@InitMaster

; 682  : 		return TRUE;
; 683  : 
; 684  : 	if(m_nComboSel == 1)

  00d30	8b 86 dc 04 00
	00		 mov	 eax, DWORD PTR [esi+1244]
  00d36	83 f9 01	 cmp	 ecx, 1
  00d39	8d 8d 44 ff ff
	ff		 lea	 ecx, DWORD PTR _pastrJongEngName$[ebp]
  00d3f	51		 push	 ecx
  00d40	8d 8d 74 ff ff
	ff		 lea	 ecx, DWORD PTR _pastrJongName$[ebp]
  00d46	8b 10		 mov	 edx, DWORD PTR [eax]
  00d48	51		 push	 ecx
  00d49	8d 8d 70 ff ff
	ff		 lea	 ecx, DWORD PTR _pastrJongCode$[ebp]
  00d4f	51		 push	 ecx
  00d50	50		 push	 eax
  00d51	75 05		 jne	 SHORT $LN73@InitMaster

; 685  : 		m_pDataManager->GetMiniFutureJongMst(pastrJongCode, pastrJongName, pastrJongEngName);

  00d53	ff 52 60	 call	 DWORD PTR [edx+96]
  00d56	eb 03		 jmp	 SHORT $LN74@InitMaster
$LN73@InitMaster:

; 686  : 	else
; 687  : 		m_pDataManager->GetFutureJongMst(pastrJongCode, pastrJongName, pastrJongEngName);

  00d58	ff 52 48	 call	 DWORD PTR [edx+72]
$LN74@InitMaster:

; 688  : 
; 689  : 	int iIdx = 0;
; 690  : 	CString strName;

  00d5b	8d 8d 2c ff ff
	ff		 lea	 ecx, DWORD PTR _strName$[ebp]
  00d61	ff 15 00 00 00
	00		 call	 DWORD PTR __imp_??0?$CStringT@DV?$StrTraitMFC_DLL@DV?$ChTraitsCRT@D@ATL@@@@@ATL@@QAE@XZ

; 691  : 	for(nIndex=0; nIndex < pastrJongCode->GetSize(); nIndex++)

  00d67	8b 8d 70 ff ff
	ff		 mov	 ecx, DWORD PTR _pastrJongCode$[ebp]
  00d6d	33 ff		 xor	 edi, edi
  00d6f	c6 45 fc 0f	 mov	 BYTE PTR __$EHRec$[ebp+8], 15 ; 0000000fH
  00d73	8b 41 08	 mov	 eax, DWORD PTR [ecx+8]
  00d76	85 c0		 test	 eax, eax
  00d78	0f 8e 96 00 00
	00		 jle	 $LN30@InitMaster
  00d7e	66 90		 npad	 2
$LL31@InitMaster:
; File C:\Program Files (x86)\Microsoft Visual Studio\2019\Community\VC\Tools\MSVC\14.29.30133\atlmfc\include\afxcoll.inl

; 289  : 		if( nIndex < 0 || nIndex >= m_nSize )

  00d80	85 ff		 test	 edi, edi
  00d82	0f 88 1b 01 00
	00		 js	 $LN242@InitMaster
  00d88	3b f8		 cmp	 edi, eax
  00d8a	0f 8d 13 01 00
	00		 jge	 $LN242@InitMaster

; 291  : 		return m_pData[nIndex]; }

  00d90	8b 41 04	 mov	 eax, DWORD PTR [ecx+4]
  00d93	8d 14 bd 00 00
	00 00		 lea	 edx, DWORD PTR [edi*4]
  00d9a	03 c2		 add	 eax, edx
; File D:\git\src\IBK\IBK_DRFN\ProjSrc\SrcDrfn\Chart\comparechart\TabCodeSearchFO.cpp

; 693  : 		strCode = pastrJongCode->GetAt(nIndex); 	

  00d9c	8d 8d 7c ff ff
	ff		 lea	 ecx, DWORD PTR _strCode$[ebp]
  00da2	50		 push	 eax
  00da3	ff 15 00 00 00
	00		 call	 DWORD PTR __imp_??4?$CStringT@DV?$StrTraitMFC_DLL@DV?$ChTraitsCRT@D@ATL@@@@@ATL@@QAEAAV01@ABV01@@Z

; 694  : 		strCode.TrimLeft();		strCode.TrimRight();

  00da9	8d 8d 7c ff ff
	ff		 lea	 ecx, DWORD PTR _strCode$[ebp]
  00daf	ff 15 00 00 00
	00		 call	 DWORD PTR __imp_?TrimLeft@?$CStringT@DV?$StrTraitMFC_DLL@DV?$ChTraitsCRT@D@ATL@@@@@ATL@@QAEAAV12@XZ
  00db5	8d 8d 7c ff ff
	ff		 lea	 ecx, DWORD PTR _strCode$[ebp]
  00dbb	ff 15 00 00 00
	00		 call	 DWORD PTR __imp_?TrimRight@?$CStringT@DV?$StrTraitMFC_DLL@DV?$ChTraitsCRT@D@ATL@@@@@ATL@@QAEAAV12@XZ
; File C:\Program Files (x86)\Microsoft Visual Studio\2019\Community\VC\Tools\MSVC\14.29.30133\atlmfc\include\afxcoll.inl

; 289  : 		if( nIndex < 0 || nIndex >= m_nSize )

  00dc1	8b 85 74 ff ff
	ff		 mov	 eax, DWORD PTR _pastrJongName$[ebp]
  00dc7	3b 78 08	 cmp	 edi, DWORD PTR [eax+8]
  00dca	0f 8d d3 00 00
	00		 jge	 $LN242@InitMaster

; 291  : 		return m_pData[nIndex]; }

  00dd0	8b 40 04	 mov	 eax, DWORD PTR [eax+4]
  00dd3	8d 0c bd 00 00
	00 00		 lea	 ecx, DWORD PTR [edi*4]
  00dda	03 c1		 add	 eax, ecx
; File D:\git\src\IBK\IBK_DRFN\ProjSrc\SrcDrfn\Chart\comparechart\TabCodeSearchFO.cpp

; 695  : 		strName = pastrJongName->GetAt(nIndex);

  00ddc	8d 8d 2c ff ff
	ff		 lea	 ecx, DWORD PTR _strName$[ebp]
  00de2	50		 push	 eax
  00de3	ff 15 00 00 00
	00		 call	 DWORD PTR __imp_??4?$CStringT@DV?$StrTraitMFC_DLL@DV?$ChTraitsCRT@D@ATL@@@@@ATL@@QAEAAV01@ABV01@@Z
; File C:\Program Files (x86)\Microsoft Visual Studio\2019\Community\VC\Tools\MSVC\14.29.30133\atlmfc\include\afxwin2.inl

; 725  : 	{ ASSERT(::IsWindow(m_hWnd)); return (int)::SendMessage(m_hWnd, LB_ADDSTRING, 0, (LPARAM)lpszItem); }

  00de9	ff b5 2c ff ff
	ff		 push	 DWORD PTR _strName$[ebp]
  00def	6a 00		 push	 0
  00df1	68 80 01 00 00	 push	 384			; 00000180H
  00df6	ff b6 00 02 00
	00		 push	 DWORD PTR [esi+512]
  00dfc	ff 15 00 00 00
	00		 call	 DWORD PTR __imp__SendMessageA@16
; File D:\git\src\IBK\IBK_DRFN\ProjSrc\SrcDrfn\Chart\comparechart\TabCodeSearchFO.cpp

; 691  : 	for(nIndex=0; nIndex < pastrJongCode->GetSize(); nIndex++)

  00e02	8b 8d 70 ff ff
	ff		 mov	 ecx, DWORD PTR _pastrJongCode$[ebp]
  00e08	47		 inc	 edi
  00e09	8b 41 08	 mov	 eax, DWORD PTR [ecx+8]
  00e0c	3b f8		 cmp	 edi, eax
  00e0e	0f 8c 6c ff ff
	ff		 jl	 $LL31@InitMaster
$LN30@InitMaster:

; 696  : 		iIdx = m_listFuture.AddString(strName);
; 697  : 	}
; 698  : 	delete pastrJongCode;

  00e14	8b 01		 mov	 eax, DWORD PTR [ecx]
  00e16	6a 01		 push	 1
  00e18	ff 50 04	 call	 DWORD PTR [eax+4]

; 699  : 	delete pastrJongName;

  00e1b	8b 8d 74 ff ff
	ff		 mov	 ecx, DWORD PTR _pastrJongName$[ebp]
  00e21	85 c9		 test	 ecx, ecx
  00e23	74 07		 je	 SHORT $LN96@InitMaster
  00e25	8b 01		 mov	 eax, DWORD PTR [ecx]
  00e27	6a 01		 push	 1
  00e29	ff 50 04	 call	 DWORD PTR [eax+4]
$LN96@InitMaster:

; 700  : 	delete pastrJongEngName;

  00e2c	8b 8d 44 ff ff
	ff		 mov	 ecx, DWORD PTR _pastrJongEngName$[ebp]
  00e32	85 c9		 test	 ecx, ecx
  00e34	74 07		 je	 SHORT $LN98@InitMaster
  00e36	8b 01		 mov	 eax, DWORD PTR [ecx]
  00e38	6a 01		 push	 1
  00e3a	ff 50 04	 call	 DWORD PTR [eax+4]
$LN98@InitMaster:

; 701  : // }}
; 702  : 
; 703  : 	return TRUE;

  00e3d	8d 8d 2c ff ff
	ff		 lea	 ecx, DWORD PTR _strName$[ebp]
  00e43	ff 15 00 00 00
	00		 call	 DWORD PTR __imp_??1?$CStringT@DV?$StrTraitMFC_DLL@DV?$ChTraitsCRT@D@ATL@@@@@ATL@@QAE@XZ
$LN123@InitMaster:
  00e49	8d 8d 68 ff ff
	ff		 lea	 ecx, DWORD PTR _strCodeName$[ebp]
  00e4f	ff 15 00 00 00
	00		 call	 DWORD PTR __imp_??1?$CStringT@DV?$StrTraitMFC_DLL@DV?$ChTraitsCRT@D@ATL@@@@@ATL@@QAE@XZ
  00e55	8d 8d 58 ff ff
	ff		 lea	 ecx, DWORD PTR _strMonth$[ebp]
  00e5b	ff 15 00 00 00
	00		 call	 DWORD PTR __imp_??1?$CStringT@DV?$StrTraitMFC_DLL@DV?$ChTraitsCRT@D@ATL@@@@@ATL@@QAE@XZ
  00e61	8d 8d 7c ff ff
	ff		 lea	 ecx, DWORD PTR _strCode$[ebp]
  00e67	ff 15 00 00 00
	00		 call	 DWORD PTR __imp_??1?$CStringT@DV?$StrTraitMFC_DLL@DV?$ChTraitsCRT@D@ATL@@@@@ATL@@QAE@XZ
  00e6d	8d 8d dc fe ff
	ff		 lea	 ecx, DWORD PTR _arrName$[ebp]
  00e73	e8 00 00 00 00	 call	 ??1CStringArray@@UAE@XZ	; CStringArray::~CStringArray
  00e78	8d 8d c4 fe ff
	ff		 lea	 ecx, DWORD PTR _arrCode$[ebp]
  00e7e	e8 00 00 00 00	 call	 ??1CStringArray@@UAE@XZ	; CStringArray::~CStringArray
  00e83	b8 01 00 00 00	 mov	 eax, 1
$LN1@InitMaster:

; 704  : }

  00e88	8b 4d f4	 mov	 ecx, DWORD PTR __$EHRec$[ebp]
  00e8b	64 89 0d 00 00
	00 00		 mov	 DWORD PTR fs:0, ecx
  00e92	59		 pop	 ecx
  00e93	5f		 pop	 edi
  00e94	5e		 pop	 esi
  00e95	8b 4d f0	 mov	 ecx, DWORD PTR __$ArrayPad$[ebp]
  00e98	33 cd		 xor	 ecx, ebp
  00e9a	e8 00 00 00 00	 call	 @__security_check_cookie@4
  00e9f	8b e5		 mov	 esp, ebp
  00ea1	5d		 pop	 ebp
  00ea2	c3		 ret	 0
$LN242@InitMaster:
; File C:\Program Files (x86)\Microsoft Visual Studio\2019\Community\VC\Tools\MSVC\14.29.30133\atlmfc\include\afxcoll.inl

; 290  : 			AfxThrowInvalidArgException();

  00ea3	e8 00 00 00 00	 call	 ?AfxThrowInvalidArgException@@YGXXZ ; AfxThrowInvalidArgException
$LN328@InitMaster:
  00ea8	cc		 int	 3
_TEXT	ENDS
;	COMDAT text$x
text$x	SEGMENT
__unwindfunclet$?InitMasterData@CTabCodeSearchFO@@QAEHXZ$0:
  00000	8d 8d 64 ff ff
	ff		 lea	 ecx, DWORD PTR _szClipFormat$20[ebp]
  00006	ff 25 00 00 00
	00		 jmp	 DWORD PTR __imp_??1?$CStringT@DV?$StrTraitMFC_DLL@DV?$ChTraitsCRT@D@ATL@@@@@ATL@@QAE@XZ
__unwindfunclet$?InitMasterData@CTabCodeSearchFO@@QAEHXZ$1:
  0000c	8b 85 54 ff ff
	ff		 mov	 eax, DWORD PTR $T17[ebp]
  00012	50		 push	 eax
  00013	e8 00 00 00 00	 call	 ??3CObject@@SGXPAX@Z	; CObject::operator delete
  00018	c3		 ret	 0
__unwindfunclet$?InitMasterData@CTabCodeSearchFO@@QAEHXZ$2:
  00019	8b 85 54 ff ff
	ff		 mov	 eax, DWORD PTR $T16[ebp]
  0001f	50		 push	 eax
  00020	e8 00 00 00 00	 call	 ??3CObject@@SGXPAX@Z	; CObject::operator delete
  00025	c3		 ret	 0
__unwindfunclet$?InitMasterData@CTabCodeSearchFO@@QAEHXZ$3:
  00026	8b 85 54 ff ff
	ff		 mov	 eax, DWORD PTR $T15[ebp]
  0002c	50		 push	 eax
  0002d	e8 00 00 00 00	 call	 ??3CObject@@SGXPAX@Z	; CObject::operator delete
  00032	c3		 ret	 0
__unwindfunclet$?InitMasterData@CTabCodeSearchFO@@QAEHXZ$4:
  00033	8b 85 54 ff ff
	ff		 mov	 eax, DWORD PTR $T14[ebp]
  00039	50		 push	 eax
  0003a	e8 00 00 00 00	 call	 ??3CObject@@SGXPAX@Z	; CObject::operator delete
  0003f	c3		 ret	 0
__unwindfunclet$?InitMasterData@CTabCodeSearchFO@@QAEHXZ$5:
  00040	8b 85 54 ff ff
	ff		 mov	 eax, DWORD PTR $T13[ebp]
  00046	50		 push	 eax
  00047	e8 00 00 00 00	 call	 ??3CObject@@SGXPAX@Z	; CObject::operator delete
  0004c	c3		 ret	 0
__unwindfunclet$?InitMasterData@CTabCodeSearchFO@@QAEHXZ$6:
  0004d	8b 85 54 ff ff
	ff		 mov	 eax, DWORD PTR $T12[ebp]
  00053	50		 push	 eax
  00054	e8 00 00 00 00	 call	 ??3CObject@@SGXPAX@Z	; CObject::operator delete
  00059	c3		 ret	 0
__unwindfunclet$?InitMasterData@CTabCodeSearchFO@@QAEHXZ$7:
  0005a	8d 8d c4 fe ff
	ff		 lea	 ecx, DWORD PTR _arrCode$[ebp]
  00060	e9 00 00 00 00	 jmp	 ??1CStringArray@@UAE@XZ	; CStringArray::~CStringArray
__unwindfunclet$?InitMasterData@CTabCodeSearchFO@@QAEHXZ$8:
  00065	8d 8d dc fe ff
	ff		 lea	 ecx, DWORD PTR _arrName$[ebp]
  0006b	e9 00 00 00 00	 jmp	 ??1CStringArray@@UAE@XZ	; CStringArray::~CStringArray
__unwindfunclet$?InitMasterData@CTabCodeSearchFO@@QAEHXZ$9:
  00070	8d 8d 7c ff ff
	ff		 lea	 ecx, DWORD PTR _strCode$[ebp]
  00076	ff 25 00 00 00
	00		 jmp	 DWORD PTR __imp_??1?$CStringT@DV?$StrTraitMFC_DLL@DV?$ChTraitsCRT@D@ATL@@@@@ATL@@QAE@XZ
__unwindfunclet$?InitMasterData@CTabCodeSearchFO@@QAEHXZ$10:
  0007c	8d 8d 58 ff ff
	ff		 lea	 ecx, DWORD PTR _strMonth$[ebp]
  00082	ff 25 00 00 00
	00		 jmp	 DWORD PTR __imp_??1?$CStringT@DV?$StrTraitMFC_DLL@DV?$ChTraitsCRT@D@ATL@@@@@ATL@@QAE@XZ
__unwindfunclet$?InitMasterData@CTabCodeSearchFO@@QAEHXZ$11:
  00088	8d 8d 68 ff ff
	ff		 lea	 ecx, DWORD PTR _strCodeName$[ebp]
  0008e	ff 25 00 00 00
	00		 jmp	 DWORD PTR __imp_??1?$CStringT@DV?$StrTraitMFC_DLL@DV?$ChTraitsCRT@D@ATL@@@@@ATL@@QAE@XZ
__unwindfunclet$?InitMasterData@CTabCodeSearchFO@@QAEHXZ$15:
  00094	8d 8d f8 fe ff
	ff		 lea	 ecx, DWORD PTR $T5[ebp]
  0009a	ff 25 00 00 00
	00		 jmp	 DWORD PTR __imp_??1?$CStringT@DV?$StrTraitMFC_DLL@DV?$ChTraitsCRT@D@ATL@@@@@ATL@@QAE@XZ
__unwindfunclet$?InitMasterData@CTabCodeSearchFO@@QAEHXZ$18:
  000a0	8d 8d 00 ff ff
	ff		 lea	 ecx, DWORD PTR $T7[ebp]
  000a6	ff 25 00 00 00
	00		 jmp	 DWORD PTR __imp_??1?$CStringT@DV?$StrTraitMFC_DLL@DV?$ChTraitsCRT@D@ATL@@@@@ATL@@QAE@XZ
__unwindfunclet$?InitMasterData@CTabCodeSearchFO@@QAEHXZ$20:
  000ac	8d 8d d8 fe ff
	ff		 lea	 ecx, DWORD PTR $T2[ebp]
  000b2	ff 25 00 00 00
	00		 jmp	 DWORD PTR __imp_??1?$CStringT@DV?$StrTraitMFC_DLL@DV?$ChTraitsCRT@D@ATL@@@@@ATL@@QAE@XZ
__unwindfunclet$?InitMasterData@CTabCodeSearchFO@@QAEHXZ$22:
  000b8	8d 8d 2c ff ff
	ff		 lea	 ecx, DWORD PTR _strName$[ebp]
  000be	ff 25 00 00 00
	00		 jmp	 DWORD PTR __imp_??1?$CStringT@DV?$StrTraitMFC_DLL@DV?$ChTraitsCRT@D@ATL@@@@@ATL@@QAE@XZ
  000c4	cc		 int	 3
  000c5	cc		 int	 3
  000c6	cc		 int	 3
  000c7	cc		 int	 3
  000c8	cc		 int	 3
__ehhandler$?InitMasterData@CTabCodeSearchFO@@QAEHXZ:
  000c9	90		 npad	 1
  000ca	90		 npad	 1
  000cb	8b 54 24 08	 mov	 edx, DWORD PTR [esp+8]
  000cf	8d 42 0c	 lea	 eax, DWORD PTR [edx+12]
  000d2	8b 8a c4 fe ff
	ff		 mov	 ecx, DWORD PTR [edx-316]
  000d8	33 c8		 xor	 ecx, eax
  000da	e8 00 00 00 00	 call	 @__security_check_cookie@4
  000df	8b 4a fc	 mov	 ecx, DWORD PTR [edx-4]
  000e2	33 c8		 xor	 ecx, eax
  000e4	e8 00 00 00 00	 call	 @__security_check_cookie@4
  000e9	b8 00 00 00 00	 mov	 eax, OFFSET __ehfuncinfo$?InitMasterData@CTabCodeSearchFO@@QAEHXZ
  000ee	e9 00 00 00 00	 jmp	 ___CxxFrameHandler3
text$x	ENDS
?InitMasterData@CTabCodeSearchFO@@QAEHXZ ENDP		; CTabCodeSearchFO::InitMasterData
; Function compile flags: /Ogtp
; File D:\git\src\IBK\IBK_DRFN\ProjSrc\SrcDrfn\Chart\comparechart\TabCodeSearchFO.cpp
;	COMDAT ?GetInsertGridDataText@CTabCodeSearchFO@@QAE?AV?$CStringT@DV?$StrTraitMFC_DLL@DV?$ChTraitsCRT@D@ATL@@@@@ATL@@HH@Z
_TEXT	SEGMENT
__$EHRec$ = -12						; size = 12
___$ReturnUdt$ = 8					; size = 4
_strText$ = 12						; size = 4
_row$ = 12						; size = 4
_col$ = 16						; size = 4
?GetInsertGridDataText@CTabCodeSearchFO@@QAE?AV?$CStringT@DV?$StrTraitMFC_DLL@DV?$ChTraitsCRT@D@ATL@@@@@ATL@@HH@Z PROC ; CTabCodeSearchFO::GetInsertGridDataText, COMDAT
; _this$ = ecx

; 268  : {

  00000	55		 push	 ebp
  00001	8b ec		 mov	 ebp, esp
  00003	6a ff		 push	 -1
  00005	68 00 00 00 00	 push	 __ehhandler$?GetInsertGridDataText@CTabCodeSearchFO@@QAE?AV?$CStringT@DV?$StrTraitMFC_DLL@DV?$ChTraitsCRT@D@ATL@@@@@ATL@@HH@Z
  0000a	64 a1 00 00 00
	00		 mov	 eax, DWORD PTR fs:0
  00010	50		 push	 eax
  00011	56		 push	 esi
  00012	a1 00 00 00 00	 mov	 eax, DWORD PTR ___security_cookie
  00017	33 c5		 xor	 eax, ebp
  00019	50		 push	 eax
  0001a	8d 45 f4	 lea	 eax, DWORD PTR __$EHRec$[ebp]
  0001d	64 a3 00 00 00
	00		 mov	 DWORD PTR fs:0, eax
  00023	8b f1		 mov	 esi, ecx

; 269  : 	
; 270  : 	if (row != 0 )		return "";

  00025	83 7d 0c 00	 cmp	 DWORD PTR _row$[ebp], 0
  00029	74 10		 je	 SHORT $LN2@GetInsertG
  0002b	8b 4d 08	 mov	 ecx, DWORD PTR ___$ReturnUdt$[ebp]
  0002e	68 00 00 00 00	 push	 OFFSET ??_C@_00CNPNBAHC@@
  00033	ff 15 00 00 00
	00		 call	 DWORD PTR __imp_??0?$CStringT@DV?$StrTraitMFC_DLL@DV?$ChTraitsCRT@D@ATL@@@@@ATL@@QAE@PBD@Z
  00039	eb 7f		 jmp	 SHORT $LN13@GetInsertG
$LN2@GetInsertG:

; 271  : 
; 272  : 	if (col == COL_CENTER)	return "";

  0003b	83 7d 10 01	 cmp	 DWORD PTR _col$[ebp], 1
  0003f	75 10		 jne	 SHORT $LN3@GetInsertG
  00041	8b 4d 08	 mov	 ecx, DWORD PTR ___$ReturnUdt$[ebp]
  00044	68 00 00 00 00	 push	 OFFSET ??_C@_06CDJAKJDK@?G?$OA?$LL?g?$LA?$KB@
  00049	ff 15 00 00 00
	00		 call	 DWORD PTR __imp_??0?$CStringT@DV?$StrTraitMFC_DLL@DV?$ChTraitsCRT@D@ATL@@@@@ATL@@QAE@PBD@Z
  0004f	eb 69		 jmp	 SHORT $LN13@GetInsertG
$LN3@GetInsertG:

; 273  : 	else if (col < COL_CENTER)	return "";

  00051	7d 10		 jge	 SHORT $LN5@GetInsertG
  00053	8b 4d 08	 mov	 ecx, DWORD PTR ___$ReturnUdt$[ebp]
  00056	68 00 00 00 00	 push	 OFFSET ??_C@_02KCIOKDCD@?D?$NN@
  0005b	ff 15 00 00 00
	00		 call	 DWORD PTR __imp_??0?$CStringT@DV?$StrTraitMFC_DLL@DV?$ChTraitsCRT@D@ATL@@@@@ATL@@QAE@PBD@Z
  00061	eb 57		 jmp	 SHORT $LN13@GetInsertG
$LN5@GetInsertG:

; 274  : 	else if (col > COL_CENTER)	return "";

  00063	7e 10		 jle	 SHORT $LN7@GetInsertG
  00065	8b 4d 08	 mov	 ecx, DWORD PTR ___$ReturnUdt$[ebp]
  00068	68 00 00 00 00	 push	 OFFSET ??_C@_02ECKNGKBC@?G?$LC@
  0006d	ff 15 00 00 00
	00		 call	 DWORD PTR __imp_??0?$CStringT@DV?$StrTraitMFC_DLL@DV?$ChTraitsCRT@D@ATL@@@@@ATL@@QAE@PBD@Z
  00073	eb 45		 jmp	 SHORT $LN13@GetInsertG
$LN7@GetInsertG:

; 275  : 
; 276  : //	int nIndex;
; 277  : //	if (col < COL_CENTER)	nIndex = COL_CENTER	- col;
; 278  : //	else					nIndex = col - COL_CENTER;
; 279  : 
; 280  : 	CString strText;

  00075	8d 4d 0c	 lea	 ecx, DWORD PTR _strText$[ebp]
  00078	ff 15 00 00 00
	00		 call	 DWORD PTR __imp_??0?$CStringT@DV?$StrTraitMFC_DLL@DV?$ChTraitsCRT@D@ATL@@@@@ATL@@QAE@XZ

; 281  : 	strText.Format("%d", m_nMonth.nInfo[m_nIndex]);

  0007e	8b 86 d4 04 00
	00		 mov	 eax, DWORD PTR [esi+1236]
  00084	c7 45 fc 00 00
	00 00		 mov	 DWORD PTR __$EHRec$[ebp+8], 0
  0008b	ff b4 86 00 04
	00 00		 push	 DWORD PTR [esi+eax*4+1024]
  00092	8d 45 0c	 lea	 eax, DWORD PTR _strText$[ebp]
  00095	68 00 00 00 00	 push	 OFFSET ??_C@_04IPMECLBL@?$CFd?$LP?y@
  0009a	50		 push	 eax
  0009b	ff 15 00 00 00
	00		 call	 DWORD PTR __imp_?Format@?$CStringT@DV?$StrTraitMFC_DLL@DV?$ChTraitsCRT@D@ATL@@@@@ATL@@QAAXPBDZZ

; 282  : 	return strText;

  000a1	8b 4d 08	 mov	 ecx, DWORD PTR ___$ReturnUdt$[ebp]
  000a4	8d 45 0c	 lea	 eax, DWORD PTR _strText$[ebp]
  000a7	83 c4 0c	 add	 esp, 12			; 0000000cH
  000aa	50		 push	 eax
  000ab	ff 15 00 00 00
	00		 call	 DWORD PTR __imp_??0?$CStringT@DV?$StrTraitMFC_DLL@DV?$ChTraitsCRT@D@ATL@@@@@ATL@@QAE@ABV01@@Z
  000b1	8d 4d 0c	 lea	 ecx, DWORD PTR _strText$[ebp]
  000b4	ff 15 00 00 00
	00		 call	 DWORD PTR __imp_??1?$CStringT@DV?$StrTraitMFC_DLL@DV?$ChTraitsCRT@D@ATL@@@@@ATL@@QAE@XZ
$LN13@GetInsertG:

; 283  : }

  000ba	8b 45 08	 mov	 eax, DWORD PTR ___$ReturnUdt$[ebp]
  000bd	8b 4d f4	 mov	 ecx, DWORD PTR __$EHRec$[ebp]
  000c0	64 89 0d 00 00
	00 00		 mov	 DWORD PTR fs:0, ecx
  000c7	59		 pop	 ecx
  000c8	5e		 pop	 esi
  000c9	8b e5		 mov	 esp, ebp
  000cb	5d		 pop	 ebp
  000cc	c2 0c 00	 ret	 12			; 0000000cH
_TEXT	ENDS
;	COMDAT text$x
text$x	SEGMENT
__unwindfunclet$?GetInsertGridDataText@CTabCodeSearchFO@@QAE?AV?$CStringT@DV?$StrTraitMFC_DLL@DV?$ChTraitsCRT@D@ATL@@@@@ATL@@HH@Z$1:
  00000	8d 4d 0c	 lea	 ecx, DWORD PTR _strText$[ebp]
  00003	ff 25 00 00 00
	00		 jmp	 DWORD PTR __imp_??1?$CStringT@DV?$StrTraitMFC_DLL@DV?$ChTraitsCRT@D@ATL@@@@@ATL@@QAE@XZ
  00009	cc		 int	 3
  0000a	cc		 int	 3
  0000b	cc		 int	 3
  0000c	cc		 int	 3
  0000d	cc		 int	 3
__ehhandler$?GetInsertGridDataText@CTabCodeSearchFO@@QAE?AV?$CStringT@DV?$StrTraitMFC_DLL@DV?$ChTraitsCRT@D@ATL@@@@@ATL@@HH@Z:
  0000e	90		 npad	 1
  0000f	90		 npad	 1
  00010	8b 54 24 08	 mov	 edx, DWORD PTR [esp+8]
  00014	8d 42 0c	 lea	 eax, DWORD PTR [edx+12]
  00017	8b 4a f8	 mov	 ecx, DWORD PTR [edx-8]
  0001a	33 c8		 xor	 ecx, eax
  0001c	e8 00 00 00 00	 call	 @__security_check_cookie@4
  00021	b8 00 00 00 00	 mov	 eax, OFFSET __ehfuncinfo$?GetInsertGridDataText@CTabCodeSearchFO@@QAE?AV?$CStringT@DV?$StrTraitMFC_DLL@DV?$ChTraitsCRT@D@ATL@@@@@ATL@@HH@Z
  00026	e9 00 00 00 00	 jmp	 ___CxxFrameHandler3
text$x	ENDS
?GetInsertGridDataText@CTabCodeSearchFO@@QAE?AV?$CStringT@DV?$StrTraitMFC_DLL@DV?$ChTraitsCRT@D@ATL@@@@@ATL@@HH@Z ENDP ; CTabCodeSearchFO::GetInsertGridDataText
; Function compile flags: /Ogtp
; File D:\git\src\IBK\IBK_DRFN\ProjSrc\SrcDrfn\Chart\comparechart\TabCodeSearchFO.cpp
; File C:\Program Files (x86)\Microsoft Visual Studio\2019\Community\VC\Tools\MSVC\14.29.30133\atlmfc\include\afxtempl.h
; File D:\git\src\IBK\IBK_DRFN\ProjSrc\SrcDrfn\Chart\comparechart\TabCodeSearchFO.cpp
;	COMDAT ?InsertMasterData@CTabCodeSearchFO@@QAEXH@Z
_TEXT	SEGMENT
_strPrice$ = -176					; size = 4
_strTmp$ = -172						; size = 4
_dPrice$1$ = -168					; size = 8
tv350 = -164						; size = 4
_nExercise$1$ = -160					; size = 4
_nRowTotal$1$ = -156					; size = 4
tv376 = -152						; size = 8
_pos$1$ = -148						; size = 4
tv138 = -148						; size = 4
_pNode$1$ = -144					; size = 4
_lPrice$1$ = -140					; size = 4
_nATM$1$ = -136						; size = 4
_strPath$ = -132					; size = 4
_strATM$ = -128						; size = 4
_this$GSCopy$1$ = -124					; size = 4
_strText$2 = -120					; size = 4
_szAtm$ = -116						; size = 100
__$ArrayPad$ = -16					; size = 4
__$EHRec$ = -12						; size = 12
_index$ = 8						; size = 4
?InsertMasterData@CTabCodeSearchFO@@QAEXH@Z PROC	; CTabCodeSearchFO::InsertMasterData, COMDAT
; _this$ = ecx

; 287  : {

  00000	55		 push	 ebp
  00001	8b ec		 mov	 ebp, esp
  00003	6a ff		 push	 -1
  00005	68 00 00 00 00	 push	 __ehhandler$?InsertMasterData@CTabCodeSearchFO@@QAEXH@Z
  0000a	64 a1 00 00 00
	00		 mov	 eax, DWORD PTR fs:0
  00010	50		 push	 eax
  00011	81 ec a4 00 00
	00		 sub	 esp, 164		; 000000a4H
  00017	a1 00 00 00 00	 mov	 eax, DWORD PTR ___security_cookie
  0001c	33 c5		 xor	 eax, ebp
  0001e	89 45 f0	 mov	 DWORD PTR __$ArrayPad$[ebp], eax
  00021	53		 push	 ebx
  00022	56		 push	 esi
  00023	57		 push	 edi
  00024	50		 push	 eax
  00025	8d 45 f4	 lea	 eax, DWORD PTR __$EHRec$[ebp]
  00028	64 a3 00 00 00
	00		 mov	 DWORD PTR fs:0, eax
  0002e	8b f1		 mov	 esi, ecx
  00030	89 75 84	 mov	 DWORD PTR _this$GSCopy$1$[ebp], esi

; 288  : 	int nRow, nCol, nRowTotal, nExercise, nATM = 0;
; 289  : 
; 290  : 	CString		strPrice, strTmp;

  00033	8d 8d 50 ff ff
	ff		 lea	 ecx, DWORD PTR _strPrice$[ebp]
  00039	c7 85 78 ff ff
	ff 00 00 00 00	 mov	 DWORD PTR _nATM$1$[ebp], 0
  00043	ff 15 00 00 00
	00		 call	 DWORD PTR __imp_??0?$CStringT@DV?$StrTraitMFC_DLL@DV?$ChTraitsCRT@D@ATL@@@@@ATL@@QAE@XZ
  00049	8d 8d 54 ff ff
	ff		 lea	 ecx, DWORD PTR _strTmp$[ebp]
  0004f	c7 45 fc 00 00
	00 00		 mov	 DWORD PTR __$EHRec$[ebp+8], 0
  00056	ff 15 00 00 00
	00		 call	 DWORD PTR __imp_??0?$CStringT@DV?$StrTraitMFC_DLL@DV?$ChTraitsCRT@D@ATL@@@@@ATL@@QAE@XZ

; 291  : 	COLORREF	clrText;
; 292  : 
; 293  : 	// ATM
; 294  : 	CString strPath, strATM;

  0005c	8d 8d 7c ff ff
	ff		 lea	 ecx, DWORD PTR _strPath$[ebp]
  00062	ff 15 00 00 00
	00		 call	 DWORD PTR __imp_??0?$CStringT@DV?$StrTraitMFC_DLL@DV?$ChTraitsCRT@D@ATL@@@@@ATL@@QAE@XZ
  00068	8d 4d 80	 lea	 ecx, DWORD PTR _strATM$[ebp]
  0006b	ff 15 00 00 00
	00		 call	 DWORD PTR __imp_??0?$CStringT@DV?$StrTraitMFC_DLL@DV?$ChTraitsCRT@D@ATL@@@@@ATL@@QAE@XZ

; 295  : 	strPath.Format("%s\\%s",  m_strDataDirPath, "master\\atm.dat");

  00071	68 00 00 00 00	 push	 OFFSET ??_C@_0P@JIBKHGJJ@master?2atm?4dat@
  00076	ff b6 e4 04 00
	00		 push	 DWORD PTR [esi+1252]
  0007c	8d 85 7c ff ff
	ff		 lea	 eax, DWORD PTR _strPath$[ebp]
  00082	c6 45 fc 03	 mov	 BYTE PTR __$EHRec$[ebp+8], 3
  00086	68 00 00 00 00	 push	 OFFSET ??_C@_05BMGBEOOC@?$CFs?2?$CFs@
  0008b	50		 push	 eax
  0008c	ff 15 00 00 00
	00		 call	 DWORD PTR __imp_?Format@?$CStringT@DV?$StrTraitMFC_DLL@DV?$ChTraitsCRT@D@ATL@@@@@ATL@@QAAXPBDZZ

; 296  : 	char szAtm[100]; memset(szAtm,0x00,sizeof(szAtm));

  00092	6a 64		 push	 100			; 00000064H
  00094	8d 45 8c	 lea	 eax, DWORD PTR _szAtm$[ebp]
  00097	6a 00		 push	 0
  00099	50		 push	 eax
  0009a	e8 00 00 00 00	 call	 _memset
  0009f	83 c4 1c	 add	 esp, 28			; 0000001cH

; 297  : 	::GetPrivateProfileString("ATM", "PRICE", "", szAtm, 100, strPath);

  000a2	8d 45 8c	 lea	 eax, DWORD PTR _szAtm$[ebp]
  000a5	ff b5 7c ff ff
	ff		 push	 DWORD PTR _strPath$[ebp]
  000ab	6a 64		 push	 100			; 00000064H
  000ad	50		 push	 eax
  000ae	68 00 00 00 00	 push	 OFFSET ??_C@_00CNPNBAHC@@
  000b3	68 00 00 00 00	 push	 OFFSET ??_C@_05BJKOFFGO@PRICE@
  000b8	68 00 00 00 00	 push	 OFFSET ??_C@_03NDHBKIJP@ATM@
  000bd	ff 15 00 00 00
	00		 call	 DWORD PTR __imp__GetPrivateProfileStringA@24

; 298  : 	strATM = (LPCSTR)(LPSTR)szAtm;

  000c3	8d 45 8c	 lea	 eax, DWORD PTR _szAtm$[ebp]
  000c6	50		 push	 eax
  000c7	8d 4d 80	 lea	 ecx, DWORD PTR _strATM$[ebp]
  000ca	ff 15 00 00 00
	00		 call	 DWORD PTR __imp_??4?$CStringT@DV?$StrTraitMFC_DLL@DV?$ChTraitsCRT@D@ATL@@@@@ATL@@QAEAAV01@PBD@Z

; 299  : 	//m_pDBMgr->GetOptionATM(strATM);
; 300  : 	if (strlen(strATM)> 0)	nATM = (int)atof(strATM);

  000d0	8b 45 80	 mov	 eax, DWORD PTR _strATM$[ebp]
  000d3	8b d0		 mov	 edx, eax
  000d5	8d 7a 01	 lea	 edi, DWORD PTR [edx+1]
$LL49@InsertMast:
  000d8	8a 0a		 mov	 cl, BYTE PTR [edx]
  000da	42		 inc	 edx
  000db	84 c9		 test	 cl, cl
  000dd	75 f9		 jne	 SHORT $LL49@InsertMast
  000df	2b d7		 sub	 edx, edi
  000e1	74 1e		 je	 SHORT $LN8@InsertMast
  000e3	50		 push	 eax
  000e4	ff 15 00 00 00
	00		 call	 DWORD PTR __imp__atof
  000ea	dd 9d 68 ff ff
	ff		 fstp	 QWORD PTR tv376[ebp]
  000f0	f2 0f 2c 85 68
	ff ff ff	 cvttsd2si eax, QWORD PTR tv376[ebp]
  000f8	83 c4 04	 add	 esp, 4
  000fb	89 85 78 ff ff
	ff		 mov	 DWORD PTR _nATM$1$[ebp], eax
$LN8@InsertMast:

; 301  : 
; 302  : 	nRowTotal = m_pGridCtrl->GetRowCount();

  00101	8b 8e e0 03 00
	00		 mov	 ecx, DWORD PTR [esi+992]
  00107	e8 00 00 00 00	 call	 ?GetRowCount@CExGridCtrl@@QAEHXZ ; CExGridCtrl::GetRowCount

; 303  : 	for (POSITION pos = m_listMaster.GetHeadPosition(); pos; )

  0010c	8b 8e e8 03 00
	00		 mov	 ecx, DWORD PTR [esi+1000]
  00112	89 85 64 ff ff
	ff		 mov	 DWORD PTR _nRowTotal$1$[ebp], eax
  00118	85 c9		 test	 ecx, ecx
  0011a	0f 84 a3 01 00
	00		 je	 $LN3@InsertMast
$LL2@InsertMast:
; File C:\Program Files (x86)\Microsoft Visual Studio\2019\Community\VC\Tools\MSVC\14.29.30133\atlmfc\include\afxtempl.h

; 811  : 	{ CNode* pNode = (CNode*) rPosition;

  00120	8b c1		 mov	 eax, ecx

; 812  : 		ASSERT(AfxIsValidAddress(pNode, sizeof(CNode)));
; 813  : 		rPosition = (POSITION) pNode->pNext;

  00122	8b 09		 mov	 ecx, DWORD PTR [ecx]
  00124	89 85 70 ff ff
	ff		 mov	 DWORD PTR _pNode$1$[ebp], eax
  0012a	89 8d 6c ff ff
	ff		 mov	 DWORD PTR _pos$1$[ebp], ecx
; File D:\git\src\IBK\IBK_DRFN\ProjSrc\SrcDrfn\Chart\comparechart\TabCodeSearchFO.cpp

; 307  : 		nExercise = info.nInfo[EXERCISE];

  00130	8b 40 08	 mov	 eax, DWORD PTR [eax+8]
  00133	89 85 60 ff ff
	ff		 mov	 DWORD PTR _nExercise$1$[ebp], eax

; 742  : 	long lPrice = nPrice * 100; 

  00139	6b c0 64	 imul	 eax, eax, 100
  0013c	8b f8		 mov	 edi, eax
  0013e	89 85 74 ff ff
	ff		 mov	 DWORD PTR _lPrice$1$[ebp], eax

; 743  : 	if (lPrice % 500) lPrice += 50;	

  00144	b8 d3 4d 62 10	 mov	 eax, 274877907		; 10624dd3H
  00149	8b cf		 mov	 ecx, edi
  0014b	f7 ef		 imul	 edi
  0014d	c1 fa 05	 sar	 edx, 5
  00150	8b c2		 mov	 eax, edx
  00152	c1 e8 1f	 shr	 eax, 31			; 0000001fH
  00155	03 c2		 add	 eax, edx
  00157	69 c0 f4 01 00
	00		 imul	 eax, eax, 500
  0015d	2b c8		 sub	 ecx, eax
  0015f	89 8d 5c ff ff
	ff		 mov	 DWORD PTR tv350[ebp], ecx
  00165	74 03		 je	 SHORT $LN48@InsertMast
  00167	83 c7 32	 add	 edi, 50			; 00000032H
$LN48@InsertMast:

; 712  :     return TITLE_ROW + ((m_lMaxLimit - lPrice) / 250); 

  0016a	8b 8e d0 04 00
	00		 mov	 ecx, DWORD PTR [esi+1232]
  00170	b8 d3 4d 62 10	 mov	 eax, 274877907		; 10624dd3H
  00175	2b cf		 sub	 ecx, edi
  00177	f7 e9		 imul	 ecx
  00179	c1 fa 04	 sar	 edx, 4
  0017c	8b da		 mov	 ebx, edx
  0017e	c1 eb 1f	 shr	 ebx, 31			; 0000001fH
  00181	43		 inc	 ebx
  00182	03 da		 add	 ebx, edx

; 308  : 		nRow = GetGridRow(nExercise);
; 309  : 		
; 310  : 		//  check
; 311  : 		if (nRow < TITLE_ROW || nRow >= nRowTotal)		continue;

  00184	83 fb 01	 cmp	 ebx, 1
  00187	0f 8c 28 01 00
	00		 jl	 $LN6@InsertMast
  0018d	3b 9d 64 ff ff
	ff		 cmp	 ebx, DWORD PTR _nRowTotal$1$[ebp]
  00193	0f 8d 1c 01 00
	00		 jge	 $LN6@InsertMast

; 312  : 		
; 313  : 		clrText = (nATM == nExercise) ? COLOR_RED : COLOR_BLACK;

  00199	8b 85 78 ff ff
	ff		 mov	 eax, DWORD PTR _nATM$1$[ebp]
  0019f	33 ff		 xor	 edi, edi
  001a1	3b 85 60 ff ff
	ff		 cmp	 eax, DWORD PTR _nExercise$1$[ebp]
  001a7	b8 ff 00 00 00	 mov	 eax, 255		; 000000ffH
  001ac	0f 44 f8	 cmove	 edi, eax

; 743  : 	if (lPrice % 500) lPrice += 50;	

  001af	83 bd 5c ff ff
	ff 00		 cmp	 DWORD PTR tv350[ebp], 0
  001b6	8b 85 74 ff ff
	ff		 mov	 eax, DWORD PTR _lPrice$1$[ebp]
  001bc	74 03		 je	 SHORT $LN47@InsertMast
  001be	83 c0 32	 add	 eax, 50			; 00000032H
$LN47@InsertMast:
  001c1	66 0f 6e c0	 movd	 xmm0, eax

; 727  : 	CString strText;

  001c5	8d 4d 88	 lea	 ecx, DWORD PTR _strText$2[ebp]

; 314  : 		UpdateHogaData(nRow, COL_CENTER, GetRealExercise(nExercise)/100. , clrText, 1);

  001c8	f3 0f e6 c0	 cvtdq2pd xmm0, xmm0
  001cc	f2 0f 5e 05 00
	00 00 00	 divsd	 xmm0, QWORD PTR __real@4059000000000000
  001d4	f2 0f 11 85 58
	ff ff ff	 movsd	 QWORD PTR _dPrice$1$[ebp], xmm0

; 727  : 	CString strText;

  001dc	ff 15 00 00 00
	00		 call	 DWORD PTR __imp_??0?$CStringT@DV?$StrTraitMFC_DLL@DV?$ChTraitsCRT@D@ATL@@@@@ATL@@QAE@XZ

; 728  : 	strText.Format("%.*f", nPoint, dPrice);

  001e2	f2 0f 10 85 58
	ff ff ff	 movsd	 xmm0, QWORD PTR _dPrice$1$[ebp]
  001ea	8d 45 88	 lea	 eax, DWORD PTR _strText$2[ebp]
  001ed	83 ec 08	 sub	 esp, 8
  001f0	c6 45 fc 04	 mov	 BYTE PTR __$EHRec$[ebp+8], 4
  001f4	f2 0f 11 04 24	 movsd	 QWORD PTR [esp], xmm0
  001f9	6a 01		 push	 1
  001fb	68 00 00 00 00	 push	 OFFSET ??_C@_04HGGMHPIM@?$CF?4?$CKf@
  00200	50		 push	 eax
  00201	ff 15 00 00 00
	00		 call	 DWORD PTR __imp_?Format@?$CStringT@DV?$StrTraitMFC_DLL@DV?$ChTraitsCRT@D@ATL@@@@@ATL@@QAAXPBDZZ

; 729  : 
; 730  : 	//  
; 731  : 	m_pGridCtrl->SetItemText(nRow, nCol, strText);

  00207	8b 8e e0 03 00
	00		 mov	 ecx, DWORD PTR [esi+992]
  0020d	83 c4 14	 add	 esp, 20			; 00000014H
  00210	ff 75 88	 push	 DWORD PTR _strText$2[ebp]
  00213	6a 01		 push	 1
  00215	53		 push	 ebx
  00216	e8 00 00 00 00	 call	 ?SetItemText@CExGridCtrl@@QAEHHHPBD@Z ; CExGridCtrl::SetItemText

; 732  : 
; 733  : 	//      
; 734  : 	m_pGridCtrl->SetItemFgColour(nRow, nCol, crFgClr);

  0021b	8b 8e e0 03 00
	00		 mov	 ecx, DWORD PTR [esi+992]
  00221	57		 push	 edi
  00222	6a 01		 push	 1
  00224	53		 push	 ebx
  00225	e8 00 00 00 00	 call	 ?SetItemFgColour@CExGridCtrl@@QAEHHHK@Z ; CExGridCtrl::SetItemFgColour

; 735  : 
; 736  : 	m_pGridCtrl->RedrawCell(nRow, nCol);

  0022a	8b 8e e0 03 00
	00		 mov	 ecx, DWORD PTR [esi+992]
  00230	6a 00		 push	 0
  00232	6a 01		 push	 1
  00234	53		 push	 ebx
  00235	e8 00 00 00 00	 call	 ?RedrawCell@CExGridCtrl@@QAEHHHPAVCDC@@@Z ; CExGridCtrl::RedrawCell

; 737  : }

  0023a	8d 4d 88	 lea	 ecx, DWORD PTR _strText$2[ebp]
  0023d	c6 45 fc 03	 mov	 BYTE PTR __$EHRec$[ebp+8], 3
  00241	ff 15 00 00 00
	00		 call	 DWORD PTR __imp_??1?$CStringT@DV?$StrTraitMFC_DLL@DV?$ChTraitsCRT@D@ATL@@@@@ATL@@QAE@XZ

; 315  : //		for (int i=FIRST; i <= FOURTH; i++)
; 316  : //		{
; 317  : 			if (info.nInfo[index] == 0)	

  00247	8b 85 70 ff ff
	ff		 mov	 eax, DWORD PTR _pNode$1$[ebp]
  0024d	8b 4d 08	 mov	 ecx, DWORD PTR _index$[ebp]
  00250	83 7c 88 08 00	 cmp	 DWORD PTR [eax+ecx*4+8], 0
  00255	74 5e		 je	 SHORT $LN6@InsertMast

; 318  : 				continue;
; 319  : 			
; 320  : 			for (int j=0; j < 2; j++)

  00257	33 ff		 xor	 edi, edi
  00259	0f 1f 80 00 00
	00 00		 npad	 7
$LL7@InsertMast:

; 321  : 			{
; 322  : 				
; 323  : 				nCol = (j == 0)	? (COL_CENTER - 1) : (COL_CENTER + 1);
; 324  : 				
; 325  : 				m_pGridCtrl->SetItemText(nRow, nCol, " ");

  00260	8b 4d 84	 mov	 ecx, DWORD PTR _this$GSCopy$1$[ebp]
  00263	8b f7		 mov	 esi, edi
  00265	f7 de		 neg	 esi
  00267	68 00 00 00 00	 push	 OFFSET ??_C@_01CLKCMJKC@?5@
  0026c	1b f6		 sbb	 esi, esi
  0026e	8b 89 e0 03 00
	00		 mov	 ecx, DWORD PTR [ecx+992]
  00274	83 e6 02	 and	 esi, 2
  00277	56		 push	 esi
  00278	53		 push	 ebx
  00279	e8 00 00 00 00	 call	 ?SetItemText@CExGridCtrl@@QAEHHHPBD@Z ; CExGridCtrl::SetItemText

; 326  : 				m_pGridCtrl->SetItemBkColour(nRow, nCol, COLOR_WHITE);

  0027e	8b 45 84	 mov	 eax, DWORD PTR _this$GSCopy$1$[ebp]
  00281	68 ff ff ff 00	 push	 16777215		; 00ffffffH
  00286	56		 push	 esi
  00287	53		 push	 ebx
  00288	8b 88 e0 03 00
	00		 mov	 ecx, DWORD PTR [eax+992]
  0028e	e8 00 00 00 00	 call	 ?SetItemBkColour@CExGridCtrl@@QAEHHHK@Z ; CExGridCtrl::SetItemBkColour

; 327  : 				m_pGridCtrl->SetItemData(nRow, nCol, (LPARAM)info.szPCode[nCol]); // 0024696:    

  00293	8b 8d 70 ff ff
	ff		 mov	 ecx, DWORD PTR _pNode$1$[ebp]
  00299	0f be 44 0e 68	 movsx	 eax, BYTE PTR [esi+ecx+104]
  0029e	50		 push	 eax
  0029f	56		 push	 esi
  002a0	8b 75 84	 mov	 esi, DWORD PTR _this$GSCopy$1$[ebp]
  002a3	53		 push	 ebx
  002a4	8b 8e e0 03 00
	00		 mov	 ecx, DWORD PTR [esi+992]
  002aa	e8 00 00 00 00	 call	 ?SetItemData@CExGridCtrl@@QAEHHHJ@Z ; CExGridCtrl::SetItemData
  002af	47		 inc	 edi
  002b0	83 ff 02	 cmp	 edi, 2
  002b3	7c ab		 jl	 SHORT $LL7@InsertMast
$LN6@InsertMast:

; 303  : 	for (POSITION pos = m_listMaster.GetHeadPosition(); pos; )

  002b5	8b 8d 6c ff ff
	ff		 mov	 ecx, DWORD PTR _pos$1$[ebp]
  002bb	85 c9		 test	 ecx, ecx
  002bd	0f 85 5d fe ff
	ff		 jne	 $LL2@InsertMast
$LN3@InsertMast:

; 328  : 			}
; 329  : //		}
; 330  : 	}
; 331  : 	m_pGridCtrl->Refresh();

  002c3	8b 8e e0 03 00
	00		 mov	 ecx, DWORD PTR [esi+992]
  002c9	e8 00 00 00 00	 call	 ?Refresh@CExGridCtrl@@QAEXXZ ; CExGridCtrl::Refresh

; 332  : 
; 333  : }	

  002ce	8d 4d 80	 lea	 ecx, DWORD PTR _strATM$[ebp]
  002d1	ff 15 00 00 00
	00		 call	 DWORD PTR __imp_??1?$CStringT@DV?$StrTraitMFC_DLL@DV?$ChTraitsCRT@D@ATL@@@@@ATL@@QAE@XZ
  002d7	8d 8d 7c ff ff
	ff		 lea	 ecx, DWORD PTR _strPath$[ebp]
  002dd	ff 15 00 00 00
	00		 call	 DWORD PTR __imp_??1?$CStringT@DV?$StrTraitMFC_DLL@DV?$ChTraitsCRT@D@ATL@@@@@ATL@@QAE@XZ
  002e3	8d 8d 54 ff ff
	ff		 lea	 ecx, DWORD PTR _strTmp$[ebp]
  002e9	ff 15 00 00 00
	00		 call	 DWORD PTR __imp_??1?$CStringT@DV?$StrTraitMFC_DLL@DV?$ChTraitsCRT@D@ATL@@@@@ATL@@QAE@XZ
  002ef	8d 8d 50 ff ff
	ff		 lea	 ecx, DWORD PTR _strPrice$[ebp]
  002f5	ff 15 00 00 00
	00		 call	 DWORD PTR __imp_??1?$CStringT@DV?$StrTraitMFC_DLL@DV?$ChTraitsCRT@D@ATL@@@@@ATL@@QAE@XZ
  002fb	8b 4d f4	 mov	 ecx, DWORD PTR __$EHRec$[ebp]
  002fe	64 89 0d 00 00
	00 00		 mov	 DWORD PTR fs:0, ecx
  00305	59		 pop	 ecx
  00306	5f		 pop	 edi
  00307	5e		 pop	 esi
  00308	5b		 pop	 ebx
  00309	8b 4d f0	 mov	 ecx, DWORD PTR __$ArrayPad$[ebp]
  0030c	33 cd		 xor	 ecx, ebp
  0030e	e8 00 00 00 00	 call	 @__security_check_cookie@4
  00313	8b e5		 mov	 esp, ebp
  00315	5d		 pop	 ebp
  00316	c2 04 00	 ret	 4
_TEXT	ENDS
;	COMDAT text$x
text$x	SEGMENT
__unwindfunclet$?InsertMasterData@CTabCodeSearchFO@@QAEXH@Z$0:
  00000	8d 8d 50 ff ff
	ff		 lea	 ecx, DWORD PTR _strPrice$[ebp]
  00006	ff 25 00 00 00
	00		 jmp	 DWORD PTR __imp_??1?$CStringT@DV?$StrTraitMFC_DLL@DV?$ChTraitsCRT@D@ATL@@@@@ATL@@QAE@XZ
__unwindfunclet$?InsertMasterData@CTabCodeSearchFO@@QAEXH@Z$1:
  0000c	8d 8d 54 ff ff
	ff		 lea	 ecx, DWORD PTR _strTmp$[ebp]
  00012	ff 25 00 00 00
	00		 jmp	 DWORD PTR __imp_??1?$CStringT@DV?$StrTraitMFC_DLL@DV?$ChTraitsCRT@D@ATL@@@@@ATL@@QAE@XZ
__unwindfunclet$?InsertMasterData@CTabCodeSearchFO@@QAEXH@Z$2:
  00018	8d 8d 7c ff ff
	ff		 lea	 ecx, DWORD PTR _strPath$[ebp]
  0001e	ff 25 00 00 00
	00		 jmp	 DWORD PTR __imp_??1?$CStringT@DV?$StrTraitMFC_DLL@DV?$ChTraitsCRT@D@ATL@@@@@ATL@@QAE@XZ
__unwindfunclet$?InsertMasterData@CTabCodeSearchFO@@QAEXH@Z$3:
  00024	8d 4d 80	 lea	 ecx, DWORD PTR _strATM$[ebp]
  00027	ff 25 00 00 00
	00		 jmp	 DWORD PTR __imp_??1?$CStringT@DV?$StrTraitMFC_DLL@DV?$ChTraitsCRT@D@ATL@@@@@ATL@@QAE@XZ
__unwindfunclet$?InsertMasterData@CTabCodeSearchFO@@QAEXH@Z$4:
  0002d	8d 4d 88	 lea	 ecx, DWORD PTR _strText$2[ebp]
  00030	ff 25 00 00 00
	00		 jmp	 DWORD PTR __imp_??1?$CStringT@DV?$StrTraitMFC_DLL@DV?$ChTraitsCRT@D@ATL@@@@@ATL@@QAE@XZ
  00036	cc		 int	 3
  00037	cc		 int	 3
  00038	cc		 int	 3
  00039	cc		 int	 3
  0003a	cc		 int	 3
__ehhandler$?InsertMasterData@CTabCodeSearchFO@@QAEXH@Z:
  0003b	90		 npad	 1
  0003c	90		 npad	 1
  0003d	8b 54 24 08	 mov	 edx, DWORD PTR [esp+8]
  00041	8d 42 0c	 lea	 eax, DWORD PTR [edx+12]
  00044	8b 8a 4c ff ff
	ff		 mov	 ecx, DWORD PTR [edx-180]
  0004a	33 c8		 xor	 ecx, eax
  0004c	e8 00 00 00 00	 call	 @__security_check_cookie@4
  00051	8b 4a fc	 mov	 ecx, DWORD PTR [edx-4]
  00054	33 c8		 xor	 ecx, eax
  00056	e8 00 00 00 00	 call	 @__security_check_cookie@4
  0005b	b8 00 00 00 00	 mov	 eax, OFFSET __ehfuncinfo$?InsertMasterData@CTabCodeSearchFO@@QAEXH@Z
  00060	e9 00 00 00 00	 jmp	 ___CxxFrameHandler3
text$x	ENDS
?InsertMasterData@CTabCodeSearchFO@@QAEXH@Z ENDP	; CTabCodeSearchFO::InsertMasterData
; Function compile flags: /Ogtp
; File D:\git\src\IBK\IBK_DRFN\ProjSrc\SrcDrfn\Chart\comparechart\TabCodeSearchFO.cpp
;	COMDAT ?InsertGridData@CTabCodeSearchFO@@QAEXXZ
_TEXT	SEGMENT
_nRow$1$ = -136						; size = 4
_nCol$1$ = -132						; size = 4
_strText$2 = -128					; size = 4
$T3 = -124						; size = 4
_Item$4 = -120						; size = 104
__$ArrayPad$ = -16					; size = 4
__$EHRec$ = -12						; size = 12
?InsertGridData@CTabCodeSearchFO@@QAEXXZ PROC		; CTabCodeSearchFO::InsertGridData, COMDAT
; _this$ = ecx

; 232  : {

  00000	55		 push	 ebp
  00001	8b ec		 mov	 ebp, esp
  00003	6a ff		 push	 -1
  00005	68 00 00 00 00	 push	 __ehhandler$?InsertGridData@CTabCodeSearchFO@@QAEXXZ
  0000a	64 a1 00 00 00
	00		 mov	 eax, DWORD PTR fs:0
  00010	50		 push	 eax
  00011	83 ec 7c	 sub	 esp, 124		; 0000007cH
  00014	a1 00 00 00 00	 mov	 eax, DWORD PTR ___security_cookie
  00019	33 c5		 xor	 eax, ebp
  0001b	89 45 f0	 mov	 DWORD PTR __$ArrayPad$[ebp], eax
  0001e	53		 push	 ebx
  0001f	56		 push	 esi
  00020	57		 push	 edi
  00021	50		 push	 eax
  00022	8d 45 f4	 lea	 eax, DWORD PTR __$EHRec$[ebp]
  00025	64 a3 00 00 00
	00		 mov	 DWORD PTR fs:0, eax
  0002b	8b d9		 mov	 ebx, ecx

; 233  : 	int nCol = m_pGridCtrl->GetColumnCount();

  0002d	8b 8b e0 03 00
	00		 mov	 ecx, DWORD PTR [ebx+992]
  00033	e8 00 00 00 00	 call	 ?GetColumnCount@CExGridCtrl@@QAEHXZ ; CExGridCtrl::GetColumnCount

; 234  : 	int nRow = m_pGridCtrl->GetRowCount();

  00038	8b 8b e0 03 00
	00		 mov	 ecx, DWORD PTR [ebx+992]
  0003e	89 85 7c ff ff
	ff		 mov	 DWORD PTR _nCol$1$[ebp], eax
  00044	e8 00 00 00 00	 call	 ?GetRowCount@CExGridCtrl@@QAEHXZ ; CExGridCtrl::GetRowCount

; 235  : 	
; 236  : 	// fill rows/cols with text
; 237  : 	int row, col;	
; 238  : 	for (row = 0; row < nRow; row++)

  00049	33 ff		 xor	 edi, edi
  0004b	89 85 78 ff ff
	ff		 mov	 DWORD PTR _nRow$1$[ebp], eax
  00051	85 c0		 test	 eax, eax
  00053	0f 8e 58 01 00
	00		 jle	 $LN3@InsertGrid
  00059	8b 85 7c ff ff
	ff		 mov	 eax, DWORD PTR _nCol$1$[ebp]
  0005f	8b 8d 78 ff ff
	ff		 mov	 ecx, DWORD PTR _nRow$1$[ebp]
$LL4@InsertGrid:

; 239  : 	{
; 240  : 		for (col = 0; col < nCol; col++)

  00065	33 f6		 xor	 esi, esi
  00067	85 c0		 test	 eax, eax
  00069	0f 8e 39 01 00
	00		 jle	 $LN2@InsertGrid
  0006f	90		 npad	 1
$LL7@InsertGrid:
  00070	8d 4d ec	 lea	 ecx, DWORD PTR _Item$4[ebp+100]
  00073	ff 15 00 00 00
	00		 call	 DWORD PTR __imp_??0?$CStringT@DV?$StrTraitMFC_DLL@DV?$ChTraitsCRT@D@ATL@@@@@ATL@@QAE@XZ

; 241  : 		{ 
; 242  : 
; 243  : 			GV_ITEM Item;

  00079	c7 45 fc 00 00
	00 00		 mov	 DWORD PTR __$EHRec$[ebp+8], 0

; 244  : 			Item.mask = GVIF_TEXT|GVIF_FORMAT|GVIF_FGCLR|GVIF_BKCLR|GVIF_STATE|GVIF_PARAM;

  00080	c7 45 90 7d 00
	00 00		 mov	 DWORD PTR _Item$4[ebp+8], 125 ; 0000007dH

; 245  : 			Item.nState = GVIS_READONLY | GVIS_MODIFIED ;//| GVIS_DROPHILITED;

  00087	c7 45 94 88 00
	00 00		 mov	 DWORD PTR _Item$4[ebp+12], 136 ; 00000088H

; 246  : 			Item.row = row;

  0008e	89 7d 88	 mov	 DWORD PTR _Item$4[ebp], edi

; 247  : 			Item.col = col;

  00091	89 75 8c	 mov	 DWORD PTR _Item$4[ebp+4], esi

; 248  : 			
; 249  : 			Item.nFormat = DT_VCENTER|DT_SINGLELINE|DT_END_ELLIPSIS|DT_NOPREFIX|DT_CENTER;

  00094	c7 45 98 25 88
	00 00		 mov	 DWORD PTR _Item$4[ebp+16], 34853 ; 00008825H

; 270  : 	if (row != 0 )		return "";

  0009b	85 ff		 test	 edi, edi
  0009d	74 10		 je	 SHORT $LN18@InsertGrid
  0009f	68 00 00 00 00	 push	 OFFSET ??_C@_00CNPNBAHC@@
  000a4	8d 4d 84	 lea	 ecx, DWORD PTR $T3[ebp]
  000a7	ff 15 00 00 00
	00		 call	 DWORD PTR __imp_??0?$CStringT@DV?$StrTraitMFC_DLL@DV?$ChTraitsCRT@D@ATL@@@@@ATL@@QAE@PBD@Z
  000ad	eb 7b		 jmp	 SHORT $LN17@InsertGrid
$LN18@InsertGrid:

; 271  : 
; 272  : 	if (col == COL_CENTER)	return "";

  000af	83 fe 01	 cmp	 esi, 1
  000b2	75 10		 jne	 SHORT $LN19@InsertGrid
  000b4	68 00 00 00 00	 push	 OFFSET ??_C@_06CDJAKJDK@?G?$OA?$LL?g?$LA?$KB@
  000b9	8d 4d 84	 lea	 ecx, DWORD PTR $T3[ebp]
  000bc	ff 15 00 00 00
	00		 call	 DWORD PTR __imp_??0?$CStringT@DV?$StrTraitMFC_DLL@DV?$ChTraitsCRT@D@ATL@@@@@ATL@@QAE@PBD@Z
  000c2	eb 66		 jmp	 SHORT $LN17@InsertGrid
$LN19@InsertGrid:

; 273  : 	else if (col < COL_CENTER)	return "";

  000c4	73 10		 jae	 SHORT $LN21@InsertGrid
  000c6	68 00 00 00 00	 push	 OFFSET ??_C@_02KCIOKDCD@?D?$NN@
  000cb	8d 4d 84	 lea	 ecx, DWORD PTR $T3[ebp]
  000ce	ff 15 00 00 00
	00		 call	 DWORD PTR __imp_??0?$CStringT@DV?$StrTraitMFC_DLL@DV?$ChTraitsCRT@D@ATL@@@@@ATL@@QAE@PBD@Z
  000d4	eb 54		 jmp	 SHORT $LN17@InsertGrid
$LN21@InsertGrid:

; 274  : 	else if (col > COL_CENTER)	return "";

  000d6	76 10		 jbe	 SHORT $LN23@InsertGrid
  000d8	68 00 00 00 00	 push	 OFFSET ??_C@_02ECKNGKBC@?G?$LC@
  000dd	8d 4d 84	 lea	 ecx, DWORD PTR $T3[ebp]
  000e0	ff 15 00 00 00
	00		 call	 DWORD PTR __imp_??0?$CStringT@DV?$StrTraitMFC_DLL@DV?$ChTraitsCRT@D@ATL@@@@@ATL@@QAE@PBD@Z
  000e6	eb 42		 jmp	 SHORT $LN17@InsertGrid
$LN23@InsertGrid:

; 275  : 
; 276  : //	int nIndex;
; 277  : //	if (col < COL_CENTER)	nIndex = COL_CENTER	- col;
; 278  : //	else					nIndex = col - COL_CENTER;
; 279  : 
; 280  : 	CString strText;

  000e8	8d 4d 80	 lea	 ecx, DWORD PTR _strText$2[ebp]
  000eb	ff 15 00 00 00
	00		 call	 DWORD PTR __imp_??0?$CStringT@DV?$StrTraitMFC_DLL@DV?$ChTraitsCRT@D@ATL@@@@@ATL@@QAE@XZ

; 281  : 	strText.Format("%d", m_nMonth.nInfo[m_nIndex]);

  000f1	8b 83 d4 04 00
	00		 mov	 eax, DWORD PTR [ebx+1236]
  000f7	c6 45 fc 01	 mov	 BYTE PTR __$EHRec$[ebp+8], 1
  000fb	ff b4 83 00 04
	00 00		 push	 DWORD PTR [ebx+eax*4+1024]
  00102	8d 45 80	 lea	 eax, DWORD PTR _strText$2[ebp]
  00105	68 00 00 00 00	 push	 OFFSET ??_C@_04IPMECLBL@?$CFd?$LP?y@
  0010a	50		 push	 eax
  0010b	ff 15 00 00 00
	00		 call	 DWORD PTR __imp_?Format@?$CStringT@DV?$StrTraitMFC_DLL@DV?$ChTraitsCRT@D@ATL@@@@@ATL@@QAAXPBDZZ
  00111	83 c4 0c	 add	 esp, 12			; 0000000cH

; 282  : 	return strText;

  00114	8d 45 80	 lea	 eax, DWORD PTR _strText$2[ebp]
  00117	8d 4d 84	 lea	 ecx, DWORD PTR $T3[ebp]
  0011a	50		 push	 eax
  0011b	ff 15 00 00 00
	00		 call	 DWORD PTR __imp_??0?$CStringT@DV?$StrTraitMFC_DLL@DV?$ChTraitsCRT@D@ATL@@@@@ATL@@QAE@ABV01@@Z
  00121	8d 4d 80	 lea	 ecx, DWORD PTR _strText$2[ebp]
  00124	ff 15 00 00 00
	00		 call	 DWORD PTR __imp_??1?$CStringT@DV?$StrTraitMFC_DLL@DV?$ChTraitsCRT@D@ATL@@@@@ATL@@QAE@XZ
$LN17@InsertGrid:

; 250  : 
; 251  : 			Item.strText = GetInsertGridDataText(row, col);

  0012a	8d 45 84	 lea	 eax, DWORD PTR $T3[ebp]
  0012d	c6 45 fc 02	 mov	 BYTE PTR __$EHRec$[ebp+8], 2
  00131	50		 push	 eax
  00132	8d 4d ec	 lea	 ecx, DWORD PTR _Item$4[ebp+100]
  00135	ff 15 00 00 00
	00		 call	 DWORD PTR __imp_??4?$CStringT@DV?$StrTraitMFC_DLL@DV?$ChTraitsCRT@D@ATL@@@@@ATL@@QAEAAV01@ABV01@@Z
  0013b	8d 4d 84	 lea	 ecx, DWORD PTR $T3[ebp]
  0013e	c6 45 fc 00	 mov	 BYTE PTR __$EHRec$[ebp+8], 0
  00142	ff 15 00 00 00
	00		 call	 DWORD PTR __imp_??1?$CStringT@DV?$StrTraitMFC_DLL@DV?$ChTraitsCRT@D@ATL@@@@@ATL@@QAE@XZ

; 252  : //			Item.crBkClr = GetColorTable(row, col);
; 253  : 			Item.crBkClr = RGB(238,239,243);

  00148	b8 ee ef f3 00	 mov	 eax, 15986670		; 00f3efeeH
  0014d	89 45 a0	 mov	 DWORD PTR _Item$4[ebp+24], eax

; 254  : 			if(row == 0 && col < COL_CENTER)			Item.crBkClr = RGB(244, 180, 180);

  00150	85 ff		 test	 edi, edi
  00152	75 19		 jne	 SHORT $LN10@InsertGrid
  00154	83 fe 01	 cmp	 esi, 1
  00157	73 09		 jae	 SHORT $LN39@InsertGrid
  00159	c7 45 a0 f4 b4
	b4 00		 mov	 DWORD PTR _Item$4[ebp+24], 11842804 ; 00b4b4f4H
  00160	eb 0b		 jmp	 SHORT $LN10@InsertGrid
$LN39@InsertGrid:

; 255  : 			else if(row == 0 && col > COL_CENTER)		Item.crBkClr = RGB(180, 207, 244);

  00162	b9 b4 cf f4 00	 mov	 ecx, 16043956		; 00f4cfb4H
  00167	0f 47 c1	 cmova	 eax, ecx
  0016a	89 45 a0	 mov	 DWORD PTR _Item$4[ebp+24], eax
$LN10@InsertGrid:

; 256  : 			Item.crFgClr = COLOR_BLACK;
; 257  : 			//Item.crSelectedBkClr = COLOR_GRAY_LIGHT;
; 258  : 
; 259  : 			//Item.lParam = NOEDIT;
; 260  : 			
; 261  : 			m_pGridCtrl->SetItem(&Item);

  0016d	8b 8b e0 03 00
	00		 mov	 ecx, DWORD PTR [ebx+992]
  00173	8d 45 88	 lea	 eax, DWORD PTR _Item$4[ebp]
  00176	50		 push	 eax
  00177	c7 45 a4 00 00
	00 00		 mov	 DWORD PTR _Item$4[ebp+28], 0
  0017e	e8 00 00 00 00	 call	 ?SetItem@CExGridCtrl@@QAEHPAU_GV_ITEM@@@Z ; CExGridCtrl::SetItem
  00183	8d 4d ec	 lea	 ecx, DWORD PTR _Item$4[ebp+100]

; 262  : 		}

  00186	c7 45 fc ff ff
	ff ff		 mov	 DWORD PTR __$EHRec$[ebp+8], -1
  0018d	ff 15 00 00 00
	00		 call	 DWORD PTR __imp_??1?$CStringT@DV?$StrTraitMFC_DLL@DV?$ChTraitsCRT@D@ATL@@@@@ATL@@QAE@XZ
  00193	8b 85 7c ff ff
	ff		 mov	 eax, DWORD PTR _nCol$1$[ebp]
  00199	46		 inc	 esi
  0019a	3b f0		 cmp	 esi, eax
  0019c	0f 8c ce fe ff
	ff		 jl	 $LL7@InsertGrid
  001a2	8b 8d 78 ff ff
	ff		 mov	 ecx, DWORD PTR _nRow$1$[ebp]
$LN2@InsertGrid:

; 235  : 	
; 236  : 	// fill rows/cols with text
; 237  : 	int row, col;	
; 238  : 	for (row = 0; row < nRow; row++)

  001a8	47		 inc	 edi
  001a9	3b f9		 cmp	 edi, ecx
  001ab	0f 8c b4 fe ff
	ff		 jl	 $LL4@InsertGrid
$LN3@InsertGrid:

; 263  : 	}	
; 264  : 
; 265  : }

  001b1	8b 4d f4	 mov	 ecx, DWORD PTR __$EHRec$[ebp]
  001b4	64 89 0d 00 00
	00 00		 mov	 DWORD PTR fs:0, ecx
  001bb	59		 pop	 ecx
  001bc	5f		 pop	 edi
  001bd	5e		 pop	 esi
  001be	5b		 pop	 ebx
  001bf	8b 4d f0	 mov	 ecx, DWORD PTR __$ArrayPad$[ebp]
  001c2	33 cd		 xor	 ecx, ebp
  001c4	e8 00 00 00 00	 call	 @__security_check_cookie@4
  001c9	8b e5		 mov	 esp, ebp
  001cb	5d		 pop	 ebp
  001cc	c3		 ret	 0
_TEXT	ENDS
;	COMDAT text$x
text$x	SEGMENT
__unwindfunclet$?InsertGridData@CTabCodeSearchFO@@QAEXXZ$0:
  00000	8d 4d 88	 lea	 ecx, DWORD PTR _Item$4[ebp]
  00003	e9 00 00 00 00	 jmp	 ??1_GV_ITEM@@QAE@XZ
__unwindfunclet$?InsertGridData@CTabCodeSearchFO@@QAEXXZ$4:
  00008	8d 4d 80	 lea	 ecx, DWORD PTR _strText$2[ebp]
  0000b	ff 25 00 00 00
	00		 jmp	 DWORD PTR __imp_??1?$CStringT@DV?$StrTraitMFC_DLL@DV?$ChTraitsCRT@D@ATL@@@@@ATL@@QAE@XZ
__unwindfunclet$?InsertGridData@CTabCodeSearchFO@@QAEXXZ$1:
  00011	8d 4d 84	 lea	 ecx, DWORD PTR $T3[ebp]
  00014	ff 25 00 00 00
	00		 jmp	 DWORD PTR __imp_??1?$CStringT@DV?$StrTraitMFC_DLL@DV?$ChTraitsCRT@D@ATL@@@@@ATL@@QAE@XZ
  0001a	cc		 int	 3
  0001b	cc		 int	 3
  0001c	cc		 int	 3
  0001d	cc		 int	 3
  0001e	cc		 int	 3
__ehhandler$?InsertGridData@CTabCodeSearchFO@@QAEXXZ:
  0001f	90		 npad	 1
  00020	90		 npad	 1
  00021	8b 54 24 08	 mov	 edx, DWORD PTR [esp+8]
  00025	8d 42 0c	 lea	 eax, DWORD PTR [edx+12]
  00028	8b 8a 74 ff ff
	ff		 mov	 ecx, DWORD PTR [edx-140]
  0002e	33 c8		 xor	 ecx, eax
  00030	e8 00 00 00 00	 call	 @__security_check_cookie@4
  00035	8b 4a fc	 mov	 ecx, DWORD PTR [edx-4]
  00038	33 c8		 xor	 ecx, eax
  0003a	e8 00 00 00 00	 call	 @__security_check_cookie@4
  0003f	b8 00 00 00 00	 mov	 eax, OFFSET __ehfuncinfo$?InsertGridData@CTabCodeSearchFO@@QAEXXZ
  00044	e9 00 00 00 00	 jmp	 ___CxxFrameHandler3
text$x	ENDS
?InsertGridData@CTabCodeSearchFO@@QAEXXZ ENDP		; CTabCodeSearchFO::InsertGridData
; Function compile flags: /Ogtp
; File D:\git\src\IBK\IBK_DRFN\ProjSrc\SrcDrfn\Chart\comparechart\TabCodeSearchFO.cpp
;	COMDAT ?ChangeGridRowCol@CTabCodeSearchFO@@QAEXXZ
_TEXT	SEGMENT
_nCol$1$ = -8						; size = 4
?ChangeGridRowCol@CTabCodeSearchFO@@QAEXXZ PROC		; CTabCodeSearchFO::ChangeGridRowCol, COMDAT
; _this$ = ecx

; 213  : {

  00000	55		 push	 ebp
  00001	8b ec		 mov	 ebp, esp
  00003	83 ec 08	 sub	 esp, 8
  00006	53		 push	 ebx
  00007	56		 push	 esi
  00008	57		 push	 edi
  00009	8b f9		 mov	 edi, ecx

; 214  : 	int nCol = m_pGridCtrl->GetColumnCount();		// Column Count 

  0000b	8b 8f e0 03 00
	00		 mov	 ecx, DWORD PTR [edi+992]
  00011	e8 00 00 00 00	 call	 ?GetColumnCount@CExGridCtrl@@QAEHXZ ; CExGridCtrl::GetColumnCount

; 215  : 	int nRow = m_pGridCtrl->GetRowCount();			// Row Count 

  00016	8b 8f e0 03 00
	00		 mov	 ecx, DWORD PTR [edi+992]
  0001c	8b d8		 mov	 ebx, eax
  0001e	89 5d f8	 mov	 DWORD PTR _nCol$1$[ebp], ebx
  00021	e8 00 00 00 00	 call	 ?GetRowCount@CExGridCtrl@@QAEHXZ ; CExGridCtrl::GetRowCount

; 216  : 
; 217  : 	// fill rows/cols with text
; 218  : 	for (int row = 0; row < nRow+m_nJumpCnt; row++) // 0024696:    

  00026	8b 8f d8 04 00
	00		 mov	 ecx, DWORD PTR [edi+1240]
  0002c	33 f6		 xor	 esi, esi
  0002e	03 c8		 add	 ecx, eax
  00030	85 c9		 test	 ecx, ecx
  00032	7e 20		 jle	 SHORT $LN3@ChangeGrid
  00034	8b d8		 mov	 ebx, eax
$LL4@ChangeGrid:

; 219  : 		m_pGridCtrl->SetRowHeight(row, ROW_HEIGHT);

  00036	8b 8f e0 03 00
	00		 mov	 ecx, DWORD PTR [edi+992]
  0003c	6a 0f		 push	 15			; 0000000fH
  0003e	56		 push	 esi
  0003f	e8 00 00 00 00	 call	 ?SetRowHeight@CExGridCtrl@@QAEHHH@Z ; CExGridCtrl::SetRowHeight
  00044	8b 87 d8 04 00
	00		 mov	 eax, DWORD PTR [edi+1240]
  0004a	46		 inc	 esi
  0004b	03 c3		 add	 eax, ebx
  0004d	3b f0		 cmp	 esi, eax
  0004f	7c e5		 jl	 SHORT $LL4@ChangeGrid
  00051	8b 5d f8	 mov	 ebx, DWORD PTR _nCol$1$[ebp]
$LN3@ChangeGrid:

; 220  : 	
; 221  : 	for (int col = 0; col < nCol; col++)

  00054	33 f6		 xor	 esi, esi
  00056	85 db		 test	 ebx, ebx
  00058	7e 19		 jle	 SHORT $LN6@ChangeGrid
  0005a	66 0f 1f 44 00
	00		 npad	 6
$LL7@ChangeGrid:

; 222  : 		m_pGridCtrl->SetColumnWidth(col, ROW_WIDTH);

  00060	8b 8f e0 03 00
	00		 mov	 ecx, DWORD PTR [edi+992]
  00066	6a 2e		 push	 46			; 0000002eH
  00068	56		 push	 esi
  00069	e8 00 00 00 00	 call	 ?SetColumnWidth@CExGridCtrl@@QAEHHH@Z ; CExGridCtrl::SetColumnWidth
  0006e	46		 inc	 esi
  0006f	3b f3		 cmp	 esi, ebx
  00071	7c ed		 jl	 SHORT $LL7@ChangeGrid
$LN6@ChangeGrid:

; 223  : 
; 224  : 	m_pGridCtrl->SetColumnWidth(COL_CENTER, ROW_WIDTH + 12);		

  00073	8b 8f e0 03 00
	00		 mov	 ecx, DWORD PTR [edi+992]
  00079	6a 3a		 push	 58			; 0000003aH
  0007b	6a 01		 push	 1
  0007d	e8 00 00 00 00	 call	 ?SetColumnWidth@CExGridCtrl@@QAEHHH@Z ; CExGridCtrl::SetColumnWidth

; 225  : 
; 226  : 	m_pGridCtrl->Refresh();

  00082	8b 8f e0 03 00
	00		 mov	 ecx, DWORD PTR [edi+992]
  00088	e8 00 00 00 00	 call	 ?Refresh@CExGridCtrl@@QAEXXZ ; CExGridCtrl::Refresh
  0008d	5f		 pop	 edi
  0008e	5e		 pop	 esi
  0008f	5b		 pop	 ebx

; 227  : }

  00090	8b e5		 mov	 esp, ebp
  00092	5d		 pop	 ebp
  00093	c3		 ret	 0
?ChangeGridRowCol@CTabCodeSearchFO@@QAEXXZ ENDP		; CTabCodeSearchFO::ChangeGridRowCol
_TEXT	ENDS
; Function compile flags: /Ogtp
; File D:\git\src\IBK\IBK_DRFN\ProjSrc\SrcDrfn\Chart\comparechart\TabCodeSearchFO.cpp
;	COMDAT ?InitGridRowCol@CTabCodeSearchFO@@QAEXXZ
_TEXT	SEGMENT
_e$2 = -20						; size = 4
__$EHRec$ = -16						; size = 16
?InitGridRowCol@CTabCodeSearchFO@@QAEXXZ PROC		; CTabCodeSearchFO::InitGridRowCol, COMDAT
; _this$ = ecx

; 189  : {	

  00000	55		 push	 ebp
  00001	8b ec		 mov	 ebp, esp
  00003	6a ff		 push	 -1
  00005	68 00 00 00 00	 push	 __ehhandler$?InitGridRowCol@CTabCodeSearchFO@@QAEXXZ
  0000a	64 a1 00 00 00
	00		 mov	 eax, DWORD PTR fs:0
  00010	50		 push	 eax
  00011	83 ec 08	 sub	 esp, 8
  00014	53		 push	 ebx
  00015	56		 push	 esi
  00016	57		 push	 edi
  00017	a1 00 00 00 00	 mov	 eax, DWORD PTR ___security_cookie
  0001c	33 c5		 xor	 eax, ebp
  0001e	50		 push	 eax
  0001f	8d 45 f4	 lea	 eax, DWORD PTR __$EHRec$[ebp+4]
  00022	64 a3 00 00 00
	00		 mov	 DWORD PTR fs:0, eax
  00028	89 65 f0	 mov	 DWORD PTR __$EHRec$[ebp], esp
  0002b	8b f1		 mov	 esi, ecx

; 190  : 	try {
; 191  : 		int nRow, nCol;
; 192  : 
; 193  : 		nRow = m_listMaster.GetCount() + TITLE_ROW;
; 194  : 		//nCol = DEFAULT_COLUMN_COUNT;
; 195  : 		nCol = 3;
; 196  : 		
; 197  : 		m_pGridCtrl->SetRowCount(nRow+m_nJumpCnt);				// Row A // 0024696:    

  0002d	8b 96 d8 04 00
	00		 mov	 edx, DWORD PTR [esi+1240]
  00033	8b 86 f0 03 00
	00		 mov	 eax, DWORD PTR [esi+1008]
  00039	42		 inc	 edx
  0003a	8b 8e e0 03 00
	00		 mov	 ecx, DWORD PTR [esi+992]
  00040	03 c2		 add	 eax, edx
  00042	50		 push	 eax
  00043	c7 45 fc 00 00
	00 00		 mov	 DWORD PTR __$EHRec$[ebp+12], 0
  0004a	e8 00 00 00 00	 call	 ?SetRowCount@CExGridCtrl@@QAEHH@Z ; CExGridCtrl::SetRowCount

; 198  : 		m_pGridCtrl->SetColumnCount(nCol);			// Column A

  0004f	8b 8e e0 03 00
	00		 mov	 ecx, DWORD PTR [esi+992]
  00055	6a 03		 push	 3
  00057	e8 00 00 00 00	 call	 ?SetColumnCount@CExGridCtrl@@QAEHH@Z ; CExGridCtrl::SetColumnCount

; 199  : //		m_pGridCtrl->SetFixedRowCount(1);	// Fixed Row A
; 200  : 		m_pGridCtrl->SetFixedColumnCount(0);		// Fixed Column A

  0005c	8b 8e e0 03 00
	00		 mov	 ecx, DWORD PTR [esi+992]
  00062	6a 00		 push	 0
  00064	e8 00 00 00 00	 call	 ?SetFixedColumnCount@CExGridCtrl@@QAEHH@Z ; CExGridCtrl::SetFixedColumnCount
$LN7@InitGridRo:

; 209  : 	}
; 210  : }

  00069	8b 4d f4	 mov	 ecx, DWORD PTR __$EHRec$[ebp+4]
  0006c	64 89 0d 00 00
	00 00		 mov	 DWORD PTR fs:0, ecx
  00073	59		 pop	 ecx
  00074	5f		 pop	 edi
  00075	5e		 pop	 esi
  00076	5b		 pop	 ebx
  00077	8b e5		 mov	 esp, ebp
  00079	5d		 pop	 ebp
  0007a	c3		 ret	 0
__catch$?InitGridRowCol@CTabCodeSearchFO@@QAEXXZ$0:

; 201  : 
; 202  : //		m_pGridCtrl->SetColCenter(COL_CENTER);		// Column AO A
; 203  : 	}
; 204  : 	catch (CMemoryException* e)
; 205  : 	{
; 206  : 		e->ReportError();

  0007b	8b 75 ec	 mov	 esi, DWORD PTR _e$2[ebp]
  0007e	8b ce		 mov	 ecx, esi
  00080	6a 00		 push	 0
  00082	6a 00		 push	 0
  00084	8b 06		 mov	 eax, DWORD PTR [esi]
  00086	ff 50 1c	 call	 DWORD PTR [eax+28]

; 207  : 		e->Delete();

  00089	8b ce		 mov	 ecx, esi
  0008b	e8 00 00 00 00	 call	 ?Delete@CException@@QAEXXZ ; CException::Delete

; 208  : 		return;

  00090	b8 00 00 00 00	 mov	 eax, $LN7@InitGridRo
  00095	c3		 ret	 0
  00096	cc		 int	 3
  00097	cc		 int	 3
  00098	cc		 int	 3
  00099	cc		 int	 3
  0009a	cc		 int	 3
_TEXT	ENDS
;	COMDAT text$x
text$x	SEGMENT
__ehhandler$?InitGridRowCol@CTabCodeSearchFO@@QAEXXZ:
  00000	90		 npad	 1
  00001	90		 npad	 1
  00002	8b 54 24 08	 mov	 edx, DWORD PTR [esp+8]
  00006	8d 42 0c	 lea	 eax, DWORD PTR [edx+12]
  00009	8b 4a e8	 mov	 ecx, DWORD PTR [edx-24]
  0000c	33 c8		 xor	 ecx, eax
  0000e	e8 00 00 00 00	 call	 @__security_check_cookie@4
  00013	b8 00 00 00 00	 mov	 eax, OFFSET __ehfuncinfo$?InitGridRowCol@CTabCodeSearchFO@@QAEXXZ
  00018	e9 00 00 00 00	 jmp	 ___CxxFrameHandler3
text$x	ENDS
?InitGridRowCol@CTabCodeSearchFO@@QAEXXZ ENDP		; CTabCodeSearchFO::InitGridRowCol
; Function compile flags: /Ogtp
; File D:\git\src\IBK\IBK_DRFN\ProjSrc\SrcDrfn\Chart\comparechart\TabCodeSearchFO.cpp
; File C:\Program Files (x86)\Microsoft Visual Studio\2019\Community\VC\Tools\MSVC\14.29.30133\atlmfc\include\afx.inl
; File D:\git\src\IBK\IBK_DRFN\ProjSrc\SrcDrfn\Chart\comparechart\TabCodeSearchFO.cpp
; File C:\Program Files (x86)\Microsoft Visual Studio\2019\Community\VC\Tools\MSVC\14.29.30133\atlmfc\include\afx.inl
; File D:\git\src\IBK\IBK_DRFN\ProjSrc\SrcDrfn\Chart\comparechart\TabCodeSearchFO.cpp
; File C:\Program Files (x86)\Microsoft Visual Studio\2019\Community\VC\Tools\MSVC\14.29.30133\atlmfc\include\atltypes.h
; File D:\git\src\IBK\IBK_DRFN\ProjSrc\SrcDrfn\Chart\comparechart\TabCodeSearchFO.cpp
; File C:\Program Files (x86)\Microsoft Visual Studio\2019\Community\VC\Tools\MSVC\14.29.30133\atlmfc\include\afxwin2.inl
; File D:\git\src\IBK\IBK_DRFN\ProjSrc\SrcDrfn\Chart\comparechart\TabCodeSearchFO.cpp
;	COMDAT ?InitGrid@CTabCodeSearchFO@@QAEXXZ
_TEXT	SEGMENT
__ctlState$2 = -48					; size = 8
_nRow$1$ = -40						; size = 4
_nCol$1$ = -36						; size = 4
$T3 = -36						; size = 4
_rcRect$4 = -32						; size = 16
__$ArrayPad$ = -16					; size = 4
__$EHRec$ = -12						; size = 12
?InitGrid@CTabCodeSearchFO@@QAEXXZ PROC			; CTabCodeSearchFO::InitGrid, COMDAT
; _this$ = ecx

; 151  : {

  00000	55		 push	 ebp
  00001	8b ec		 mov	 ebp, esp
  00003	6a ff		 push	 -1
  00005	68 00 00 00 00	 push	 __ehhandler$?InitGrid@CTabCodeSearchFO@@QAEXXZ
  0000a	64 a1 00 00 00
	00		 mov	 eax, DWORD PTR fs:0
  00010	50		 push	 eax
  00011	83 ec 24	 sub	 esp, 36			; 00000024H
  00014	a1 00 00 00 00	 mov	 eax, DWORD PTR ___security_cookie
  00019	33 c5		 xor	 eax, ebp
  0001b	89 45 f0	 mov	 DWORD PTR __$ArrayPad$[ebp], eax
  0001e	53		 push	 ebx
  0001f	56		 push	 esi
  00020	57		 push	 edi
  00021	50		 push	 eax
  00022	8d 45 f4	 lea	 eax, DWORD PTR __$EHRec$[ebp]
  00025	64 a3 00 00 00
	00		 mov	 DWORD PTR fs:0, eax
  0002b	8b f1		 mov	 esi, ecx

; 152  : 	if (m_pGridCtrl == NULL)

  0002d	83 be e0 03 00
	00 00		 cmp	 DWORD PTR [esi+992], 0
  00034	0f 85 86 01 00
	00		 jne	 $LN2@InitGrid

; 155  : 		AFX_MANAGE_STATE(AfxGetStaticModuleState());

  0003a	e8 00 00 00 00	 call	 ?AfxGetStaticModuleState@@YGPAVAFX_MODULE_STATE@@XZ ; AfxGetStaticModuleState
  0003f	50		 push	 eax
  00040	8d 4d d0	 lea	 ecx, DWORD PTR __ctlState$2[ebp]
  00043	e8 00 00 00 00	 call	 ??0AFX_MAINTAIN_STATE2@@QAE@PAVAFX_MODULE_STATE@@@Z ; AFX_MAINTAIN_STATE2::AFX_MAINTAIN_STATE2
; File C:\Program Files (x86)\Microsoft Visual Studio\2019\Community\VC\Tools\MSVC\14.29.30133\atlmfc\include\afx.inl

; 116  : 	{ return ::operator new(nSize); }

  00048	68 88 00 00 00	 push	 136			; 00000088H
; File D:\git\src\IBK\IBK_DRFN\ProjSrc\SrcDrfn\Chart\comparechart\TabCodeSearchFO.cpp

; 155  : 		AFX_MANAGE_STATE(AfxGetStaticModuleState());

  0004d	c7 45 fc 00 00
	00 00		 mov	 DWORD PTR __$EHRec$[ebp+8], 0
; File C:\Program Files (x86)\Microsoft Visual Studio\2019\Community\VC\Tools\MSVC\14.29.30133\atlmfc\include\afx.inl

; 116  : 	{ return ::operator new(nSize); }

  00054	e8 00 00 00 00	 call	 ??2@YAPAXI@Z		; operator new
  00059	83 c4 04	 add	 esp, 4
; File D:\git\src\IBK\IBK_DRFN\ProjSrc\SrcDrfn\Chart\comparechart\TabCodeSearchFO.cpp

; 156  : 		m_pGridCtrl = new CExGridCtrl;

  0005c	89 45 dc	 mov	 DWORD PTR $T3[ebp], eax
  0005f	c6 45 fc 01	 mov	 BYTE PTR __$EHRec$[ebp+8], 1
  00063	85 c0		 test	 eax, eax
  00065	74 11		 je	 SHORT $LN5@InitGrid
  00067	6a 00		 push	 0
  00069	6a 00		 push	 0
  0006b	6a 00		 push	 0
  0006d	6a 00		 push	 0
  0006f	8b c8		 mov	 ecx, eax
  00071	e8 00 00 00 00	 call	 ??0CExGridCtrl@@QAE@HHHH@Z ; CExGridCtrl::CExGridCtrl
  00076	eb 02		 jmp	 SHORT $LN6@InitGrid
$LN5@InitGrid:
  00078	33 c0		 xor	 eax, eax
$LN6@InitGrid:
  0007a	c6 45 fc 00	 mov	 BYTE PTR __$EHRec$[ebp+8], 0
  0007e	89 86 e0 03 00
	00		 mov	 DWORD PTR [esi+992], eax

; 157  : 		if (!m_pGridCtrl) return;

  00084	85 c0		 test	 eax, eax
  00086	0f 84 2c 01 00
	00		 je	 $LN45@InitGrid

; 160  : 		GetDlgItem(IDC_FRAME_OPTION)->GetWindowRect(rcRect);		

  0008c	0f 57 c0	 xorps	 xmm0, xmm0
  0008f	8b ce		 mov	 ecx, esi
  00091	68 71 18 00 00	 push	 6257			; 00001871H
; File C:\Program Files (x86)\Microsoft Visual Studio\2019\Community\VC\Tools\MSVC\14.29.30133\atlmfc\include\atltypes.h

; 528  : 	left = 0;

  00096	0f 11 45 e0	 movups	 XMMWORD PTR _rcRect$4[ebp], xmm0
; File D:\git\src\IBK\IBK_DRFN\ProjSrc\SrcDrfn\Chart\comparechart\TabCodeSearchFO.cpp

; 160  : 		GetDlgItem(IDC_FRAME_OPTION)->GetWindowRect(rcRect);		

  0009a	e8 00 00 00 00	 call	 ?GetDlgItem@CWnd@@QBEPAV1@H@Z ; CWnd::GetDlgItem
; File C:\Program Files (x86)\Microsoft Visual Studio\2019\Community\VC\Tools\MSVC\14.29.30133\atlmfc\include\afxwin2.inl

; 84   : 	{ ASSERT(::IsWindow(m_hWnd)); ::GetWindowRect(m_hWnd, lpRect); }

  0009f	8d 4d e0	 lea	 ecx, DWORD PTR _rcRect$4[ebp]
  000a2	51		 push	 ecx
  000a3	ff 70 20	 push	 DWORD PTR [eax+32]
  000a6	ff 15 00 00 00
	00		 call	 DWORD PTR __imp__GetWindowRect@8
; File D:\git\src\IBK\IBK_DRFN\ProjSrc\SrcDrfn\Chart\comparechart\TabCodeSearchFO.cpp

; 161  : 		ScreenToClient(&rcRect);		

  000ac	8d 45 e0	 lea	 eax, DWORD PTR _rcRect$4[ebp]
  000af	8b ce		 mov	 ecx, esi
  000b1	50		 push	 eax
  000b2	e8 00 00 00 00	 call	 ?ScreenToClient@CWnd@@QBEXPAUtagRECT@@@Z ; CWnd::ScreenToClient

; 162  : 		
; 163  : 		m_pGridCtrl->Create(rcRect, this, ID_GRIDCTRL);

  000b7	8b 8e e0 03 00
	00		 mov	 ecx, DWORD PTR [esi+992]
  000bd	8d 45 e0	 lea	 eax, DWORD PTR _rcRect$4[ebp]
  000c0	68 00 00 81 50	 push	 1350631424		; 50810000H
  000c5	68 74 27 00 00	 push	 10100			; 00002774H
  000ca	56		 push	 esi
  000cb	50		 push	 eax
  000cc	e8 00 00 00 00	 call	 ?Create@CExGridCtrl@@QAEHAAUtagRECT@@PAVCWnd@@IK@Z ; CExGridCtrl::Create

; 164  : 		
; 165  : 		///////////////////////////////////////////////////
; 166  : 		//  
; 167  : 		//m_pGridCtrl->SetEditable(TRUE);				// CInplaceEdit 
; 168  : //		m_pGridCtrl->SetFont(GetParent()->GetFont());
; 169  : 		m_pGridCtrl->SetGridColor(COLOR_GRIDHEADER);		// Grid Color 

  000d1	8b 8e e0 03 00
	00		 mov	 ecx, DWORD PTR [esi+992]
  000d7	68 f2 f8 fe 00	 push	 16709874		; 00fef8f2H
  000dc	e8 00 00 00 00	 call	 ?SetGridColor@CExGridCtrl@@QAEXK@Z ; CExGridCtrl::SetGridColor

; 170  : 		m_pGridCtrl->SetBkColor(COLOR_WHITE);			// Grid Back Color 

  000e1	8b 8e e0 03 00
	00		 mov	 ecx, DWORD PTR [esi+992]
  000e7	68 ff ff ff 00	 push	 16777215		; 00ffffffH
  000ec	e8 00 00 00 00	 call	 ?SetBkColor@CExGridCtrl@@QAEXK@Z ; CExGridCtrl::SetBkColor

; 171  : 		m_pGridCtrl->EnableColumnHide();				// Column    

  000f1	8b 8e e0 03 00
	00		 mov	 ecx, DWORD PTR [esi+992]
  000f7	6a 01		 push	 1
  000f9	e8 00 00 00 00	 call	 ?EnableColumnHide@CExGridCtrl@@QAEXH@Z ; CExGridCtrl::EnableColumnHide

; 172  : 		m_pGridCtrl->EnableRowHide();					// Row    

  000fe	8b 8e e0 03 00
	00		 mov	 ecx, DWORD PTR [esi+992]
  00104	6a 01		 push	 1
  00106	e8 00 00 00 00	 call	 ?EnableRowHide@CExGridCtrl@@QAEXH@Z ; CExGridCtrl::EnableRowHide

; 173  : 		m_pGridCtrl->EnableTitleTips(FALSE);			// ToolTip 

  0010b	8b 8e e0 03 00
	00		 mov	 ecx, DWORD PTR [esi+992]
  00111	6a 00		 push	 0
  00113	e8 00 00 00 00	 call	 ?EnableTitleTips@CExGridCtrl@@QAEXH@Z ; CExGridCtrl::EnableTitleTips

; 174  : 		m_pGridCtrl->SetGridLineColor(COLOR_GRIDLINE);	// Grid Line color

  00118	8b 8e e0 03 00
	00		 mov	 ecx, DWORD PTR [esi+992]
  0011e	68 cc d2 e0 00	 push	 14734028		; 00e0d2ccH
  00123	e8 00 00 00 00	 call	 ?SetGridLineColor@CExGridCtrl@@QAEXK@Z ; CExGridCtrl::SetGridLineColor

; 175  : 
; 176  : 		///////////////////////////////////////////////////
; 177  : 		//   Default 
; 178  : 		InitGridRowCol();

  00128	8b ce		 mov	 ecx, esi
  0012a	e8 00 00 00 00	 call	 ?InitGridRowCol@CTabCodeSearchFO@@QAEXXZ ; CTabCodeSearchFO::InitGridRowCol

; 214  : 	int nCol = m_pGridCtrl->GetColumnCount();		// Column Count 

  0012f	8b 8e e0 03 00
	00		 mov	 ecx, DWORD PTR [esi+992]
  00135	e8 00 00 00 00	 call	 ?GetColumnCount@CExGridCtrl@@QAEHXZ ; CExGridCtrl::GetColumnCount

; 215  : 	int nRow = m_pGridCtrl->GetRowCount();			// Row Count 

  0013a	8b 8e e0 03 00
	00		 mov	 ecx, DWORD PTR [esi+992]
  00140	8b d8		 mov	 ebx, eax
  00142	89 5d dc	 mov	 DWORD PTR _nCol$1$[ebp], ebx
  00145	e8 00 00 00 00	 call	 ?GetRowCount@CExGridCtrl@@QAEHXZ ; CExGridCtrl::GetRowCount

; 216  : 
; 217  : 	// fill rows/cols with text
; 218  : 	for (int row = 0; row < nRow+m_nJumpCnt; row++) // 0024696:    

  0014a	8b 8e d8 04 00
	00		 mov	 ecx, DWORD PTR [esi+1240]
  00150	33 ff		 xor	 edi, edi
  00152	03 c8		 add	 ecx, eax
  00154	89 45 d8	 mov	 DWORD PTR _nRow$1$[ebp], eax
  00157	85 c9		 test	 ecx, ecx
  00159	7e 23		 jle	 SHORT $LN17@InitGrid
  0015b	8b d8		 mov	 ebx, eax
  0015d	0f 1f 00	 npad	 3
$LL18@InitGrid:

; 219  : 		m_pGridCtrl->SetRowHeight(row, ROW_HEIGHT);

  00160	8b 8e e0 03 00
	00		 mov	 ecx, DWORD PTR [esi+992]
  00166	6a 0f		 push	 15			; 0000000fH
  00168	57		 push	 edi
  00169	e8 00 00 00 00	 call	 ?SetRowHeight@CExGridCtrl@@QAEHHH@Z ; CExGridCtrl::SetRowHeight
  0016e	8b 86 d8 04 00
	00		 mov	 eax, DWORD PTR [esi+1240]
  00174	47		 inc	 edi
  00175	03 c3		 add	 eax, ebx
  00177	3b f8		 cmp	 edi, eax
  00179	7c e5		 jl	 SHORT $LL18@InitGrid
  0017b	8b 5d dc	 mov	 ebx, DWORD PTR _nCol$1$[ebp]
$LN17@InitGrid:

; 220  : 	
; 221  : 	for (int col = 0; col < nCol; col++)

  0017e	33 ff		 xor	 edi, edi
  00180	85 db		 test	 ebx, ebx
  00182	7e 13		 jle	 SHORT $LN20@InitGrid
$LL21@InitGrid:

; 222  : 		m_pGridCtrl->SetColumnWidth(col, ROW_WIDTH);

  00184	8b 8e e0 03 00
	00		 mov	 ecx, DWORD PTR [esi+992]
  0018a	6a 2e		 push	 46			; 0000002eH
  0018c	57		 push	 edi
  0018d	e8 00 00 00 00	 call	 ?SetColumnWidth@CExGridCtrl@@QAEHHH@Z ; CExGridCtrl::SetColumnWidth
  00192	47		 inc	 edi
  00193	3b fb		 cmp	 edi, ebx
  00195	7c ed		 jl	 SHORT $LL21@InitGrid
$LN20@InitGrid:

; 223  : 
; 224  : 	m_pGridCtrl->SetColumnWidth(COL_CENTER, ROW_WIDTH + 12);		

  00197	8b 8e e0 03 00
	00		 mov	 ecx, DWORD PTR [esi+992]
  0019d	6a 3a		 push	 58			; 0000003aH
  0019f	6a 01		 push	 1
  001a1	e8 00 00 00 00	 call	 ?SetColumnWidth@CExGridCtrl@@QAEHHH@Z ; CExGridCtrl::SetColumnWidth

; 225  : 
; 226  : 	m_pGridCtrl->Refresh();

  001a6	8b 8e e0 03 00
	00		 mov	 ecx, DWORD PTR [esi+992]
  001ac	e8 00 00 00 00	 call	 ?Refresh@CExGridCtrl@@QAEXXZ ; CExGridCtrl::Refresh

; 179  : 	
; 180  : 		//   
; 181  : 		ChangeGridRowCol();
; 182  : 
; 183  : 		//   .
; 184  : 		InsertGridData();

  001b1	8b ce		 mov	 ecx, esi
  001b3	e8 00 00 00 00	 call	 ?InsertGridData@CTabCodeSearchFO@@QAEXXZ ; CTabCodeSearchFO::InsertGridData
$LN45@InitGrid:

; 185  : 	}
; 186  : }

  001b8	8d 4d d0	 lea	 ecx, DWORD PTR __ctlState$2[ebp]
  001bb	e8 00 00 00 00	 call	 ??1AFX_MAINTAIN_STATE2@@QAE@XZ ; AFX_MAINTAIN_STATE2::~AFX_MAINTAIN_STATE2
$LN2@InitGrid:
  001c0	8b 4d f4	 mov	 ecx, DWORD PTR __$EHRec$[ebp]
  001c3	64 89 0d 00 00
	00 00		 mov	 DWORD PTR fs:0, ecx
  001ca	59		 pop	 ecx
  001cb	5f		 pop	 edi
  001cc	5e		 pop	 esi
  001cd	5b		 pop	 ebx
  001ce	8b 4d f0	 mov	 ecx, DWORD PTR __$ArrayPad$[ebp]
  001d1	33 cd		 xor	 ecx, ebp
  001d3	e8 00 00 00 00	 call	 @__security_check_cookie@4
  001d8	8b e5		 mov	 esp, ebp
  001da	5d		 pop	 ebp
  001db	c3		 ret	 0
_TEXT	ENDS
;	COMDAT text$x
text$x	SEGMENT
__unwindfunclet$?InitGrid@CTabCodeSearchFO@@QAEXXZ$0:
  00000	8d 4d d0	 lea	 ecx, DWORD PTR __ctlState$2[ebp]
  00003	e9 00 00 00 00	 jmp	 ??1AFX_MAINTAIN_STATE2@@QAE@XZ ; AFX_MAINTAIN_STATE2::~AFX_MAINTAIN_STATE2
__unwindfunclet$?InitGrid@CTabCodeSearchFO@@QAEXXZ$1:
  00008	8b 45 dc	 mov	 eax, DWORD PTR $T3[ebp]
  0000b	50		 push	 eax
  0000c	e8 00 00 00 00	 call	 ??3CObject@@SGXPAX@Z	; CObject::operator delete
  00011	c3		 ret	 0
  00012	cc		 int	 3
  00013	cc		 int	 3
  00014	cc		 int	 3
  00015	cc		 int	 3
  00016	cc		 int	 3
__ehhandler$?InitGrid@CTabCodeSearchFO@@QAEXXZ:
  00017	90		 npad	 1
  00018	90		 npad	 1
  00019	8b 54 24 08	 mov	 edx, DWORD PTR [esp+8]
  0001d	8d 42 0c	 lea	 eax, DWORD PTR [edx+12]
  00020	8b 4a cc	 mov	 ecx, DWORD PTR [edx-52]
  00023	33 c8		 xor	 ecx, eax
  00025	e8 00 00 00 00	 call	 @__security_check_cookie@4
  0002a	8b 4a fc	 mov	 ecx, DWORD PTR [edx-4]
  0002d	33 c8		 xor	 ecx, eax
  0002f	e8 00 00 00 00	 call	 @__security_check_cookie@4
  00034	b8 00 00 00 00	 mov	 eax, OFFSET __ehfuncinfo$?InitGrid@CTabCodeSearchFO@@QAEXXZ
  00039	e9 00 00 00 00	 jmp	 ___CxxFrameHandler3
text$x	ENDS
?InitGrid@CTabCodeSearchFO@@QAEXXZ ENDP			; CTabCodeSearchFO::InitGrid
; Function compile flags: /Ogtp
; File D:\git\src\IBK\IBK_DRFN\ProjSrc\SrcDrfn\Chart\comparechart\TabCodeSearchFO.cpp
;	COMDAT ?RecalcLayout@CTabCodeSearchFO@@QAEXXZ
_TEXT	SEGMENT
?RecalcLayout@CTabCodeSearchFO@@QAEXXZ PROC		; CTabCodeSearchFO::RecalcLayout, COMDAT
; _this$ = ecx

; 130  : {	

  00000	56		 push	 esi
  00001	8b f1		 mov	 esi, ecx

; 131  : 	RecalcLayoutCtrl(m_listFuture);

  00003	6a 00		 push	 0
  00005	8d 86 e0 01 00
	00		 lea	 eax, DWORD PTR [esi+480]
  0000b	50		 push	 eax
  0000c	e8 00 00 00 00	 call	 ?RecalcLayoutCtrl@CTabDlg@@IAEXAAVCWnd@@H@Z ; CTabDlg::RecalcLayoutCtrl

; 132  : 	if(m_pGridCtrl)

  00011	8b 86 e0 03 00
	00		 mov	 eax, DWORD PTR [esi+992]
  00017	85 c0		 test	 eax, eax
  00019	74 0d		 je	 SHORT $LN2@RecalcLayo

; 133  : 		RecalcLayoutCtrl(*m_pGridCtrl,ID_GRIDCTRL);	

  0001b	68 74 27 00 00	 push	 10100			; 00002774H
  00020	50		 push	 eax
  00021	8b ce		 mov	 ecx, esi
  00023	e8 00 00 00 00	 call	 ?RecalcLayoutCtrl@CTabDlg@@IAEXAAVCWnd@@H@Z ; CTabDlg::RecalcLayoutCtrl
$LN2@RecalcLayo:

; 134  : }

  00028	5e		 pop	 esi
  00029	c3		 ret	 0
?RecalcLayout@CTabCodeSearchFO@@QAEXXZ ENDP		; CTabCodeSearchFO::RecalcLayout
_TEXT	ENDS
; Function compile flags: /Ogtp
; File D:\git\src\IBK\IBK_DRFN\ProjSrc\SrcDrfn\Chart\comparechart\TabCodeSearchFO.cpp
; File C:\Program Files (x86)\Microsoft Visual Studio\2019\Community\VC\Tools\MSVC\14.29.30133\atlmfc\include\atltypes.h
; File C:\Program Files (x86)\Microsoft Visual Studio\2019\Community\VC\Tools\MSVC\14.29.30133\atlmfc\include\afxwin2.inl
; File C:\Program Files (x86)\Microsoft Visual Studio\2019\Community\VC\Tools\MSVC\14.29.30133\atlmfc\include\atltypes.h
; File C:\Program Files (x86)\Microsoft Visual Studio\2019\Community\VC\Tools\MSVC\14.29.30133\atlmfc\include\afxwin2.inl
; File D:\git\src\IBK\IBK_DRFN\ProjSrc\SrcDrfn\Chart\comparechart\TabCodeSearchFO.cpp
;	COMDAT ?GetRectOfCtrl@CTabCodeSearchFO@@UAE?AVCRect@@HH@Z
_TEXT	SEGMENT
___$ReturnUdt$ = 8					; size = 4
_nID$ = 12						; size = 4
_bInit$ = 16						; size = 4
?GetRectOfCtrl@CTabCodeSearchFO@@UAE?AVCRect@@HH@Z PROC	; CTabCodeSearchFO::GetRectOfCtrl, COMDAT
; _this$ = ecx

; 103  : {

  00000	55		 push	 ebp
  00001	8b ec		 mov	 ebp, esp
  00003	56		 push	 esi
; File C:\Program Files (x86)\Microsoft Visual Studio\2019\Community\VC\Tools\MSVC\14.29.30133\atlmfc\include\atltypes.h

; 528  : 	left = 0;

  00004	8b 75 08	 mov	 esi, DWORD PTR ___$ReturnUdt$[ebp]
; File C:\Program Files (x86)\Microsoft Visual Studio\2019\Community\VC\Tools\MSVC\14.29.30133\atlmfc\include\afxwin2.inl

; 86   : 	{ ASSERT(::IsWindow(m_hWnd)); ::GetClientRect(m_hWnd, lpRect); }

  00007	56		 push	 esi
; File C:\Program Files (x86)\Microsoft Visual Studio\2019\Community\VC\Tools\MSVC\14.29.30133\atlmfc\include\atltypes.h

; 528  : 	left = 0;

  00008	c7 06 00 00 00
	00		 mov	 DWORD PTR [esi], 0

; 529  : 	top = 0;

  0000e	c7 46 04 00 00
	00 00		 mov	 DWORD PTR [esi+4], 0

; 530  : 	right = 0;

  00015	c7 46 08 00 00
	00 00		 mov	 DWORD PTR [esi+8], 0

; 531  : 	bottom = 0;

  0001c	c7 46 0c 00 00
	00 00		 mov	 DWORD PTR [esi+12], 0
; File C:\Program Files (x86)\Microsoft Visual Studio\2019\Community\VC\Tools\MSVC\14.29.30133\atlmfc\include\afxwin2.inl

; 86   : 	{ ASSERT(::IsWindow(m_hWnd)); ::GetClientRect(m_hWnd, lpRect); }

  00023	ff 71 20	 push	 DWORD PTR [ecx+32]
  00026	ff 15 00 00 00
	00		 call	 DWORD PTR __imp__GetClientRect@8
; File D:\git\src\IBK\IBK_DRFN\ProjSrc\SrcDrfn\Chart\comparechart\TabCodeSearchFO.cpp

; 108  : 	switch(nID)

  0002c	8b 45 0c	 mov	 eax, DWORD PTR _nID$[ebp]
  0002f	3d 70 18 00 00	 cmp	 eax, 6256		; 00001870H
  00034	74 17		 je	 SHORT $LN4@GetRectOfC
  00036	3d 74 27 00 00	 cmp	 eax, 10100		; 00002774H
  0003b	8b c6		 mov	 eax, esi
  0003d	75 1f		 jne	 SHORT $LN6@GetRectOfC

; 116  : 		break;		
; 117  : 	case ID_GRIDCTRL:
; 118  : 		rect.left += 1;

  0003f	ff 06		 inc	 DWORD PTR [esi]

; 119  : 		rect.top = rect.top + HEIGHTOFCOMBO * 2 + GAP_TABDLG + 105;

  00041	81 46 04 95 00
	00 00		 add	 DWORD PTR [esi+4], 149	; 00000095H
  00048	5e		 pop	 esi

; 127  : }

  00049	5d		 pop	 ebp
  0004a	c2 0c 00	 ret	 12			; 0000000cH
$LN4@GetRectOfC:

; 109  : 	{
; 110  : 	case IDC_LIST_FUTURE:
; 111  : //		rect.top = rect.top + HEIGHTOFCOMBO + GAP_TABDLG;
; 112  : 		rect.left += 1;
; 113  : 		rect.top = rect.top + HEIGHTOFCOMBO + GAP_TABDLG * 2 + 4;

  0004d	83 46 04 20	 add	 DWORD PTR [esi+4], 32	; 00000020H
  00051	8b 46 04	 mov	 eax, DWORD PTR [esi+4]
  00054	ff 06		 inc	 DWORD PTR [esi]

; 114  : 		//rect.bottom = rect.bottom - HEIGHTOFJONGSTATUS - GAP_TABDLG - HEIGHTOFBUTTON - GAP_TABDLG;
; 115  : 		rect.bottom = rect.top + 120;

  00056	83 c0 78	 add	 eax, 120		; 00000078H
  00059	89 46 0c	 mov	 DWORD PTR [esi+12], eax

; 120  : 		//rect.top = rect.bottom - GAP_TABDLG - HEIGHTOFJONGSTATUS - HEIGHTOFBUTTON;
; 121  : 		rect.bottom = rect.bottom;// - GAP_TABDLG;// - HEIGHTOFBUTTON;
; 122  : 		break;
; 123  : 	default:
; 124  : 		break;
; 125  : 	}
; 126  : 	return rect;

  0005c	8b c6		 mov	 eax, esi
$LN6@GetRectOfC:
  0005e	5e		 pop	 esi

; 127  : }

  0005f	5d		 pop	 ebp
  00060	c2 0c 00	 ret	 12			; 0000000cH
?GetRectOfCtrl@CTabCodeSearchFO@@UAE?AVCRect@@HH@Z ENDP	; CTabCodeSearchFO::GetRectOfCtrl
_TEXT	ENDS
; Function compile flags: /Ogtp
; File D:\git\src\IBK\IBK_DRFN\ProjSrc\SrcDrfn\Chart\comparechart\TabCodeSearchFO.cpp
; File C:\Program Files (x86)\Microsoft Visual Studio\2019\Community\VC\Tools\MSVC\14.29.30133\atlmfc\include\atlsimpstr.h
; File D:\git\src\IBK\IBK_DRFN\ProjSrc\SrcDrfn\Chart\comparechart\TabCodeSearchFO.cpp
; File C:\Program Files (x86)\Microsoft Visual Studio\2019\Community\VC\Tools\MSVC\14.29.30133\atlmfc\include\afxwin2.inl
; File D:\git\src\IBK\IBK_DRFN\ProjSrc\SrcDrfn\Chart\comparechart\TabCodeSearchFO.cpp
; File C:\Program Files (x86)\Microsoft Visual Studio\2019\Community\VC\Tools\MSVC\14.29.30133\atlmfc\include\atlsimpstr.h
; File D:\git\src\IBK\IBK_DRFN\ProjSrc\SrcDrfn\Chart\comparechart\TabCodeSearchFO.cpp
; File C:\Program Files (x86)\Microsoft Visual Studio\2019\Community\VC\Tools\MSVC\14.29.30133\atlmfc\include\afx.inl
; File D:\git\src\IBK\IBK_DRFN\ProjSrc\SrcDrfn\Chart\comparechart\TabCodeSearchFO.cpp
; File C:\Program Files (x86)\Microsoft Visual Studio\2019\Community\VC\Tools\MSVC\14.29.30133\atlmfc\include\afx.inl
; File D:\git\src\IBK\IBK_DRFN\ProjSrc\SrcDrfn\Chart\comparechart\TabCodeSearchFO.cpp
; File C:\Program Files (x86)\Microsoft Visual Studio\2019\Community\VC\Tools\MSVC\14.29.30133\atlmfc\include\afx.inl
; File D:\git\src\IBK\IBK_DRFN\ProjSrc\SrcDrfn\Chart\comparechart\TabCodeSearchFO.cpp
; File C:\Program Files (x86)\Microsoft Visual Studio\2019\Community\VC\Tools\MSVC\14.29.30133\atlmfc\include\afx.inl
; File D:\git\src\IBK\IBK_DRFN\ProjSrc\SrcDrfn\Chart\comparechart\TabCodeSearchFO.cpp
; File C:\Program Files (x86)\Microsoft Visual Studio\2019\Community\VC\Tools\MSVC\14.29.30133\atlmfc\include\afx.inl
; File D:\git\src\IBK\IBK_DRFN\ProjSrc\SrcDrfn\Chart\comparechart\TabCodeSearchFO.cpp
; File C:\Program Files (x86)\Microsoft Visual Studio\2019\Community\VC\Tools\MSVC\14.29.30133\atlmfc\include\afx.inl
; File D:\git\src\IBK\IBK_DRFN\ProjSrc\SrcDrfn\Chart\comparechart\TabCodeSearchFO.cpp
; File C:\Program Files (x86)\Microsoft Visual Studio\2019\Community\VC\Tools\MSVC\14.29.30133\atlmfc\include\afx.inl
; File D:\git\src\IBK\IBK_DRFN\ProjSrc\SrcDrfn\Chart\comparechart\TabCodeSearchFO.cpp
; File C:\Program Files (x86)\Microsoft Visual Studio\2019\Community\VC\Tools\MSVC\14.29.30133\atlmfc\include\afx.inl
; File D:\git\src\IBK\IBK_DRFN\ProjSrc\SrcDrfn\Chart\comparechart\TabCodeSearchFO.cpp
; File C:\Program Files (x86)\Microsoft Visual Studio\2019\Community\VC\Tools\MSVC\14.29.30133\atlmfc\include\afx.inl
; File D:\git\src\IBK\IBK_DRFN\ProjSrc\SrcDrfn\Chart\comparechart\TabCodeSearchFO.cpp
; File C:\Program Files (x86)\Microsoft Visual Studio\2019\Community\VC\Tools\MSVC\14.29.30133\atlmfc\include\afx.inl
; File D:\git\src\IBK\IBK_DRFN\ProjSrc\SrcDrfn\Chart\comparechart\TabCodeSearchFO.cpp
; File C:\Program Files (x86)\Microsoft Visual Studio\2019\Community\VC\Tools\MSVC\14.29.30133\atlmfc\include\afx.inl
; File D:\git\src\IBK\IBK_DRFN\ProjSrc\SrcDrfn\Chart\comparechart\TabCodeSearchFO.cpp
; File C:\Program Files (x86)\Microsoft Visual Studio\2019\Community\VC\Tools\MSVC\14.29.30133\atlmfc\include\afx.inl
; File D:\git\src\IBK\IBK_DRFN\ProjSrc\SrcDrfn\Chart\comparechart\TabCodeSearchFO.cpp
; File C:\Program Files (x86)\Microsoft Visual Studio\2019\Community\VC\Tools\MSVC\14.29.30133\atlmfc\include\afxcoll.inl
; File D:\git\src\IBK\IBK_DRFN\ProjSrc\SrcDrfn\Chart\comparechart\TabCodeSearchFO.cpp
; File C:\Program Files (x86)\Microsoft Visual Studio\2019\Community\VC\Tools\MSVC\14.29.30133\atlmfc\include\afxcoll.inl
; File D:\git\src\IBK\IBK_DRFN\ProjSrc\SrcDrfn\Chart\comparechart\TabCodeSearchFO.cpp
; File C:\Program Files (x86)\Microsoft Visual Studio\2019\Community\VC\Tools\MSVC\14.29.30133\atlmfc\include\afxcoll.inl
; File D:\git\src\IBK\IBK_DRFN\ProjSrc\SrcDrfn\Chart\comparechart\TabCodeSearchFO.cpp
; File C:\Program Files (x86)\Microsoft Visual Studio\2019\Community\VC\Tools\MSVC\14.29.30133\atlmfc\include\atlsimpstr.h
; File D:\git\src\IBK\IBK_DRFN\ProjSrc\SrcDrfn\Chart\comparechart\TabCodeSearchFO.cpp
; File C:\Program Files (x86)\Microsoft Visual Studio\2019\Community\VC\Tools\MSVC\14.29.30133\atlmfc\include\afxcoll.inl
; File D:\git\src\IBK\IBK_DRFN\ProjSrc\SrcDrfn\Chart\comparechart\TabCodeSearchFO.cpp
; File C:\Program Files (x86)\Microsoft Visual Studio\2019\Community\VC\Tools\MSVC\14.29.30133\atlmfc\include\afxcoll.inl
; File D:\git\src\IBK\IBK_DRFN\ProjSrc\SrcDrfn\Chart\comparechart\TabCodeSearchFO.cpp
; File C:\Program Files (x86)\Microsoft Visual Studio\2019\Community\VC\Tools\MSVC\14.29.30133\atlmfc\include\afxcoll.inl
; File D:\git\src\IBK\IBK_DRFN\ProjSrc\SrcDrfn\Chart\comparechart\TabCodeSearchFO.cpp
; File C:\Program Files (x86)\Microsoft Visual Studio\2019\Community\VC\Tools\MSVC\14.29.30133\atlmfc\include\atlsimpstr.h
; File C:\Program Files (x86)\Microsoft Visual Studio\2019\Community\VC\Tools\MSVC\14.29.30133\atlmfc\include\cstringt.h
; File D:\git\src\IBK\IBK_DRFN\ProjSrc\SrcDrfn\Chart\comparechart\TabCodeSearchFO.cpp
; File C:\Program Files (x86)\Microsoft Visual Studio\2019\Community\VC\Tools\MSVC\14.29.30133\atlmfc\include\afxwin2.inl
; File D:\git\src\IBK\IBK_DRFN\ProjSrc\SrcDrfn\Chart\comparechart\TabCodeSearchFO.cpp
; File C:\Program Files (x86)\Microsoft Visual Studio\2019\Community\VC\Tools\MSVC\14.29.30133\atlmfc\include\afxcoll.inl
; File D:\git\src\IBK\IBK_DRFN\ProjSrc\SrcDrfn\Chart\comparechart\TabCodeSearchFO.cpp
;	COMDAT ?WindowProc@CTabCodeSearchFO@@MAEJIIJ@Z
_TEXT	SEGMENT
__ctlState$2 = -60					; size = 8
$T3 = -56						; size = 4
$T4 = -56						; size = 4
$T5 = -56						; size = 4
$T6 = -56						; size = 4
$T7 = -56						; size = 4
$T8 = -56						; size = 4
_pastrValueGubun$9 = -52				; size = 4
_pastrFinalYM$10 = -48					; size = 4
_pastrEventPrice$11 = -44				; size = 4
_pastrJongEngName$12 = -40				; size = 4
_strData$13 = -36					; size = 4
_strCode$14 = -32					; size = 4
_pastrJongName$15 = -28					; size = 4
_strCodeSelected$16 = -24				; size = 4
_strName$17 = -20					; size = 4
_pastrJongCode$18 = -16					; size = 4
__$EHRec$ = -12						; size = 12
_message$ = 8						; size = 4
_wParam$ = 12						; size = 4
_lParam$ = 16						; size = 4
?WindowProc@CTabCodeSearchFO@@MAEJIIJ@Z PROC		; CTabCodeSearchFO::WindowProc, COMDAT
; _this$ = ecx

; 763  : {

  00000	55		 push	 ebp
  00001	8b ec		 mov	 ebp, esp
  00003	6a ff		 push	 -1
  00005	68 00 00 00 00	 push	 __ehhandler$?WindowProc@CTabCodeSearchFO@@MAEJIIJ@Z
  0000a	64 a1 00 00 00
	00		 mov	 eax, DWORD PTR fs:0
  00010	50		 push	 eax
  00011	83 ec 30	 sub	 esp, 48			; 00000030H
  00014	53		 push	 ebx
  00015	56		 push	 esi
  00016	57		 push	 edi
  00017	a1 00 00 00 00	 mov	 eax, DWORD PTR ___security_cookie
  0001c	33 c5		 xor	 eax, ebp
  0001e	50		 push	 eax
  0001f	8d 45 f4	 lea	 eax, DWORD PTR __$EHRec$[ebp]
  00022	64 a3 00 00 00
	00		 mov	 DWORD PTR fs:0, eax
  00028	8b d9		 mov	 ebx, ecx

; 764  : 	// TODO: Add your specialized code here and/or call the base class
; 765  : 	switch(message)

  0002a	8b 7d 08	 mov	 edi, DWORD PTR _message$[ebp]
  0002d	81 ff 58 04 00
	00		 cmp	 edi, 1112		; 00000458H
  00033	75 5a		 jne	 SHORT $LN2@WindowProc
; File C:\Program Files (x86)\Microsoft Visual Studio\2019\Community\VC\Tools\MSVC\14.29.30133\atlmfc\include\atlsimpstr.h

; 519  : 		return( GetData()->nDataLength );

  00035	8b 83 e8 04 00
	00		 mov	 eax, DWORD PTR [ebx+1256]

; 800  : 		return( reinterpret_cast< CStringData* >( m_pszData )-1 );

  0003b	8d bb e8 04 00
	00		 lea	 edi, DWORD PTR [ebx+1256]
; File D:\git\src\IBK\IBK_DRFN\ProjSrc\SrcDrfn\Chart\comparechart\TabCodeSearchFO.cpp

; 768  : 			if(!m_strSelCodeNName.GetLength()) return 0l;

  00041	83 78 f4 00	 cmp	 DWORD PTR [eax-12], 0
  00045	75 16		 jne	 SHORT $LN8@WindowProc
  00047	33 c0		 xor	 eax, eax

; 837  : }

  00049	8b 4d f4	 mov	 ecx, DWORD PTR __$EHRec$[ebp]
  0004c	64 89 0d 00 00
	00 00		 mov	 DWORD PTR fs:0, ecx
  00053	59		 pop	 ecx
  00054	5f		 pop	 edi
  00055	5e		 pop	 esi
  00056	5b		 pop	 ebx
  00057	8b e5		 mov	 esp, ebp
  00059	5d		 pop	 ebp
  0005a	c2 0c 00	 ret	 12			; 0000000cH
$LN8@WindowProc:
; File C:\Program Files (x86)\Microsoft Visual Studio\2019\Community\VC\Tools\MSVC\14.29.30133\atlmfc\include\afxwin2.inl

; 213  : 	{ ASSERT(::IsWindow(m_hWnd)); return CWnd::FromHandle(::GetParent(m_hWnd)); }

  0005d	ff 73 20	 push	 DWORD PTR [ebx+32]
  00060	8b 35 00 00 00
	00		 mov	 esi, DWORD PTR __imp__GetParent@4
  00066	ff d6		 call	 esi
  00068	50		 push	 eax
  00069	e8 00 00 00 00	 call	 ?FromHandle@CWnd@@SGPAV1@PAUHWND__@@@Z ; CWnd::FromHandle
  0006e	ff 70 20	 push	 DWORD PTR [eax+32]
  00071	ff d6		 call	 esi
  00073	50		 push	 eax
  00074	e8 00 00 00 00	 call	 ?FromHandle@CWnd@@SGPAV1@PAUHWND__@@@Z ; CWnd::FromHandle

; 32   : 	{ ASSERT(::IsWindow(m_hWnd)); return ::SendMessage(m_hWnd, message, wParam, lParam); }

  00079	57		 push	 edi
  0007a	6a 00		 push	 0
  0007c	68 5b 04 00 00	 push	 1115			; 0000045bH
  00081	ff 70 20	 push	 DWORD PTR [eax+32]
  00084	ff 15 00 00 00
	00		 call	 DWORD PTR __imp__SendMessageA@16
; File D:\git\src\IBK\IBK_DRFN\ProjSrc\SrcDrfn\Chart\comparechart\TabCodeSearchFO.cpp

; 772  : 	if(message == WM_NOTIFY)

  0008a	e9 9d 03 00 00	 jmp	 $LN11@WindowProc
$LN2@WindowProc:
  0008f	83 ff 4e	 cmp	 edi, 78			; 0000004eH
  00092	0f 85 94 03 00
	00		 jne	 $LN11@WindowProc

; 773  : 	{
; 774  : 		NM_GRIDVIEW *pNmgv = (NM_GRIDVIEW *)lParam;
; 775  : 		int nCode = pNmgv->hdr.code;
; 776  : 		
; 777  : 		if(nCode == GVN_SELCHANGED)			// Left button click

  00098	8b 75 10	 mov	 esi, DWORD PTR _lParam$[ebp]
  0009b	83 7e 08 9b	 cmp	 DWORD PTR [esi+8], -101	; ffffff9bH
  0009f	0f 85 87 03 00
	00		 jne	 $LN11@WindowProc

; 778  : 		{
; 779  : 			if(pNmgv->hdr.hwndFrom == m_pGridCtrl->m_hWnd) //       

  000a5	8b 8b e0 03 00
	00		 mov	 ecx, DWORD PTR [ebx+992]
  000ab	8b 06		 mov	 eax, DWORD PTR [esi]
  000ad	3b 41 20	 cmp	 eax, DWORD PTR [ecx+32]
  000b0	0f 85 76 03 00
	00		 jne	 $LN11@WindowProc

; 780  : 			{
; 781  : 				CString strCodeSelected;

  000b6	8d 4d e8	 lea	 ecx, DWORD PTR _strCodeSelected$16[ebp]
  000b9	ff 15 00 00 00
	00		 call	 DWORD PTR __imp_??0?$CStringT@DV?$StrTraitMFC_DLL@DV?$ChTraitsCRT@D@ATL@@@@@ATL@@QAE@XZ

; 782  : 				GetCodeInfo(1, pNmgv->iClickRow, pNmgv->iClickCol, strCodeSelected);

  000bf	8d 45 e8	 lea	 eax, DWORD PTR _strCodeSelected$16[ebp]
  000c2	c7 45 fc 00 00
	00 00		 mov	 DWORD PTR __$EHRec$[ebp+8], 0
  000c9	50		 push	 eax
  000ca	8d 46 18	 lea	 eax, DWORD PTR [esi+24]
  000cd	8b cb		 mov	 ecx, ebx
  000cf	50		 push	 eax
  000d0	8d 46 14	 lea	 eax, DWORD PTR [esi+20]
  000d3	50		 push	 eax
  000d4	6a 01		 push	 1
  000d6	e8 00 00 00 00	 call	 ?GetCodeInfo@CTabCodeSearchFO@@QAEHHAAH0AAV?$CStringT@DV?$StrTraitMFC_DLL@DV?$ChTraitsCRT@D@ATL@@@@@ATL@@@Z ; CTabCodeSearchFO::GetCodeInfo
; File C:\Program Files (x86)\Microsoft Visual Studio\2019\Community\VC\Tools\MSVC\14.29.30133\atlmfc\include\atlsimpstr.h

; 519  : 		return( GetData()->nDataLength );

  000db	8b 45 e8	 mov	 eax, DWORD PTR _strCodeSelected$16[ebp]

; 533  : 		return( GetLength() == 0 );

  000de	83 78 f4 00	 cmp	 DWORD PTR [eax-12], 0
; File D:\git\src\IBK\IBK_DRFN\ProjSrc\SrcDrfn\Chart\comparechart\TabCodeSearchFO.cpp

; 783  : 				if(!strCodeSelected.IsEmpty())

  000e2	0f 84 34 03 00
	00		 je	 $LN12@WindowProc

; 784  : 				{
; 785  : 					CString strCode = strCodeSelected;

  000e8	8d 45 e8	 lea	 eax, DWORD PTR _strCodeSelected$16[ebp]
  000eb	50		 push	 eax
  000ec	8d 4d e0	 lea	 ecx, DWORD PTR _strCode$14[ebp]
  000ef	ff 15 00 00 00
	00		 call	 DWORD PTR __imp_??0?$CStringT@DV?$StrTraitMFC_DLL@DV?$ChTraitsCRT@D@ATL@@@@@ATL@@QAE@ABV01@@Z

; 786  : 					CString strName;

  000f5	8d 4d ec	 lea	 ecx, DWORD PTR _strName$17[ebp]
  000f8	ff 15 00 00 00
	00		 call	 DWORD PTR __imp_??0?$CStringT@DV?$StrTraitMFC_DLL@DV?$ChTraitsCRT@D@ATL@@@@@ATL@@QAE@XZ
; File C:\Program Files (x86)\Microsoft Visual Studio\2019\Community\VC\Tools\MSVC\14.29.30133\atlmfc\include\afx.inl

; 116  : 	{ return ::operator new(nSize); }

  000fe	6a 14		 push	 20			; 00000014H
; File D:\git\src\IBK\IBK_DRFN\ProjSrc\SrcDrfn\Chart\comparechart\TabCodeSearchFO.cpp

; 786  : 					CString strName;

  00100	c6 45 fc 02	 mov	 BYTE PTR __$EHRec$[ebp+8], 2
; File C:\Program Files (x86)\Microsoft Visual Studio\2019\Community\VC\Tools\MSVC\14.29.30133\atlmfc\include\afx.inl

; 116  : 	{ return ::operator new(nSize); }

  00104	e8 00 00 00 00	 call	 ??2@YAPAXI@Z		; operator new
  00109	83 c4 04	 add	 esp, 4
; File D:\git\src\IBK\IBK_DRFN\ProjSrc\SrcDrfn\Chart\comparechart\TabCodeSearchFO.cpp

; 788  : 					CStringArray* pastrJongCode = new CStringArray;

  0010c	89 45 c8	 mov	 DWORD PTR $T8[ebp], eax
  0010f	c6 45 fc 03	 mov	 BYTE PTR __$EHRec$[ebp+8], 3
  00113	85 c0		 test	 eax, eax
  00115	74 09		 je	 SHORT $LN21@WindowProc
  00117	8b c8		 mov	 ecx, eax
  00119	e8 00 00 00 00	 call	 ??0CStringArray@@QAE@XZ	; CStringArray::CStringArray
  0011e	eb 02		 jmp	 SHORT $LN22@WindowProc
$LN21@WindowProc:
  00120	33 c0		 xor	 eax, eax
$LN22@WindowProc:
; File C:\Program Files (x86)\Microsoft Visual Studio\2019\Community\VC\Tools\MSVC\14.29.30133\atlmfc\include\afx.inl

; 116  : 	{ return ::operator new(nSize); }

  00122	6a 14		 push	 20			; 00000014H
; File D:\git\src\IBK\IBK_DRFN\ProjSrc\SrcDrfn\Chart\comparechart\TabCodeSearchFO.cpp

; 788  : 					CStringArray* pastrJongCode = new CStringArray;

  00124	c6 45 fc 02	 mov	 BYTE PTR __$EHRec$[ebp+8], 2
  00128	89 45 f0	 mov	 DWORD PTR _pastrJongCode$18[ebp], eax
; File C:\Program Files (x86)\Microsoft Visual Studio\2019\Community\VC\Tools\MSVC\14.29.30133\atlmfc\include\afx.inl

; 116  : 	{ return ::operator new(nSize); }

  0012b	e8 00 00 00 00	 call	 ??2@YAPAXI@Z		; operator new
  00130	83 c4 04	 add	 esp, 4
; File D:\git\src\IBK\IBK_DRFN\ProjSrc\SrcDrfn\Chart\comparechart\TabCodeSearchFO.cpp

; 789  : 					CStringArray* pastrJongName = new CStringArray;

  00133	89 45 c8	 mov	 DWORD PTR $T7[ebp], eax
  00136	c6 45 fc 04	 mov	 BYTE PTR __$EHRec$[ebp+8], 4
  0013a	85 c0		 test	 eax, eax
  0013c	74 09		 je	 SHORT $LN23@WindowProc
  0013e	8b c8		 mov	 ecx, eax
  00140	e8 00 00 00 00	 call	 ??0CStringArray@@QAE@XZ	; CStringArray::CStringArray
  00145	eb 02		 jmp	 SHORT $LN24@WindowProc
$LN23@WindowProc:
  00147	33 c0		 xor	 eax, eax
$LN24@WindowProc:
; File C:\Program Files (x86)\Microsoft Visual Studio\2019\Community\VC\Tools\MSVC\14.29.30133\atlmfc\include\afx.inl

; 116  : 	{ return ::operator new(nSize); }

  00149	6a 14		 push	 20			; 00000014H
; File D:\git\src\IBK\IBK_DRFN\ProjSrc\SrcDrfn\Chart\comparechart\TabCodeSearchFO.cpp

; 789  : 					CStringArray* pastrJongName = new CStringArray;

  0014b	c6 45 fc 02	 mov	 BYTE PTR __$EHRec$[ebp+8], 2
  0014f	89 45 e4	 mov	 DWORD PTR _pastrJongName$15[ebp], eax
; File C:\Program Files (x86)\Microsoft Visual Studio\2019\Community\VC\Tools\MSVC\14.29.30133\atlmfc\include\afx.inl

; 116  : 	{ return ::operator new(nSize); }

  00152	e8 00 00 00 00	 call	 ??2@YAPAXI@Z		; operator new
  00157	83 c4 04	 add	 esp, 4
; File D:\git\src\IBK\IBK_DRFN\ProjSrc\SrcDrfn\Chart\comparechart\TabCodeSearchFO.cpp

; 790  : 					CStringArray* pastrJongEngName = new CStringArray;

  0015a	89 45 c8	 mov	 DWORD PTR $T6[ebp], eax
  0015d	c6 45 fc 05	 mov	 BYTE PTR __$EHRec$[ebp+8], 5
  00161	85 c0		 test	 eax, eax
  00163	74 09		 je	 SHORT $LN25@WindowProc
  00165	8b c8		 mov	 ecx, eax
  00167	e8 00 00 00 00	 call	 ??0CStringArray@@QAE@XZ	; CStringArray::CStringArray
  0016c	eb 02		 jmp	 SHORT $LN26@WindowProc
$LN25@WindowProc:
  0016e	33 c0		 xor	 eax, eax
$LN26@WindowProc:
; File C:\Program Files (x86)\Microsoft Visual Studio\2019\Community\VC\Tools\MSVC\14.29.30133\atlmfc\include\afx.inl

; 116  : 	{ return ::operator new(nSize); }

  00170	6a 14		 push	 20			; 00000014H
; File D:\git\src\IBK\IBK_DRFN\ProjSrc\SrcDrfn\Chart\comparechart\TabCodeSearchFO.cpp

; 790  : 					CStringArray* pastrJongEngName = new CStringArray;

  00172	c6 45 fc 02	 mov	 BYTE PTR __$EHRec$[ebp+8], 2
  00176	89 45 d8	 mov	 DWORD PTR _pastrJongEngName$12[ebp], eax
; File C:\Program Files (x86)\Microsoft Visual Studio\2019\Community\VC\Tools\MSVC\14.29.30133\atlmfc\include\afx.inl

; 116  : 	{ return ::operator new(nSize); }

  00179	e8 00 00 00 00	 call	 ??2@YAPAXI@Z		; operator new
  0017e	83 c4 04	 add	 esp, 4
; File D:\git\src\IBK\IBK_DRFN\ProjSrc\SrcDrfn\Chart\comparechart\TabCodeSearchFO.cpp

; 791  : 					CStringArray* pastrEventPrice = new CStringArray;

  00181	89 45 c8	 mov	 DWORD PTR $T5[ebp], eax
  00184	c6 45 fc 06	 mov	 BYTE PTR __$EHRec$[ebp+8], 6
  00188	85 c0		 test	 eax, eax
  0018a	74 09		 je	 SHORT $LN27@WindowProc
  0018c	8b c8		 mov	 ecx, eax
  0018e	e8 00 00 00 00	 call	 ??0CStringArray@@QAE@XZ	; CStringArray::CStringArray
  00193	eb 02		 jmp	 SHORT $LN28@WindowProc
$LN27@WindowProc:
  00195	33 c0		 xor	 eax, eax
$LN28@WindowProc:
; File C:\Program Files (x86)\Microsoft Visual Studio\2019\Community\VC\Tools\MSVC\14.29.30133\atlmfc\include\afx.inl

; 116  : 	{ return ::operator new(nSize); }

  00197	6a 14		 push	 20			; 00000014H
; File D:\git\src\IBK\IBK_DRFN\ProjSrc\SrcDrfn\Chart\comparechart\TabCodeSearchFO.cpp

; 791  : 					CStringArray* pastrEventPrice = new CStringArray;

  00199	c6 45 fc 02	 mov	 BYTE PTR __$EHRec$[ebp+8], 2
  0019d	89 45 d4	 mov	 DWORD PTR _pastrEventPrice$11[ebp], eax
; File C:\Program Files (x86)\Microsoft Visual Studio\2019\Community\VC\Tools\MSVC\14.29.30133\atlmfc\include\afx.inl

; 116  : 	{ return ::operator new(nSize); }

  001a0	e8 00 00 00 00	 call	 ??2@YAPAXI@Z		; operator new
  001a5	83 c4 04	 add	 esp, 4
; File D:\git\src\IBK\IBK_DRFN\ProjSrc\SrcDrfn\Chart\comparechart\TabCodeSearchFO.cpp

; 792  : 					CStringArray* pastrFinalYM = new CStringArray;

  001a8	89 45 c8	 mov	 DWORD PTR $T4[ebp], eax
  001ab	c6 45 fc 07	 mov	 BYTE PTR __$EHRec$[ebp+8], 7
  001af	85 c0		 test	 eax, eax
  001b1	74 09		 je	 SHORT $LN29@WindowProc
  001b3	8b c8		 mov	 ecx, eax
  001b5	e8 00 00 00 00	 call	 ??0CStringArray@@QAE@XZ	; CStringArray::CStringArray
  001ba	eb 02		 jmp	 SHORT $LN30@WindowProc
$LN29@WindowProc:
  001bc	33 c0		 xor	 eax, eax
$LN30@WindowProc:
; File C:\Program Files (x86)\Microsoft Visual Studio\2019\Community\VC\Tools\MSVC\14.29.30133\atlmfc\include\afx.inl

; 116  : 	{ return ::operator new(nSize); }

  001be	6a 14		 push	 20			; 00000014H
; File D:\git\src\IBK\IBK_DRFN\ProjSrc\SrcDrfn\Chart\comparechart\TabCodeSearchFO.cpp

; 792  : 					CStringArray* pastrFinalYM = new CStringArray;

  001c0	c6 45 fc 02	 mov	 BYTE PTR __$EHRec$[ebp+8], 2
  001c4	89 45 d0	 mov	 DWORD PTR _pastrFinalYM$10[ebp], eax
; File C:\Program Files (x86)\Microsoft Visual Studio\2019\Community\VC\Tools\MSVC\14.29.30133\atlmfc\include\afx.inl

; 116  : 	{ return ::operator new(nSize); }

  001c7	e8 00 00 00 00	 call	 ??2@YAPAXI@Z		; operator new
  001cc	83 c4 04	 add	 esp, 4
; File D:\git\src\IBK\IBK_DRFN\ProjSrc\SrcDrfn\Chart\comparechart\TabCodeSearchFO.cpp

; 793  : 					CStringArray* pastrValueGubun = new CStringArray;

  001cf	89 45 c8	 mov	 DWORD PTR $T3[ebp], eax
  001d2	c6 45 fc 08	 mov	 BYTE PTR __$EHRec$[ebp+8], 8
  001d6	85 c0		 test	 eax, eax
  001d8	74 09		 je	 SHORT $LN31@WindowProc
  001da	8b c8		 mov	 ecx, eax
  001dc	e8 00 00 00 00	 call	 ??0CStringArray@@QAE@XZ	; CStringArray::CStringArray
  001e1	eb 02		 jmp	 SHORT $LN32@WindowProc
$LN31@WindowProc:
  001e3	33 c0		 xor	 eax, eax
$LN32@WindowProc:

; 794  : 
; 795  : 					if(m_nComboSel == 0 )

  001e5	8b 8b dc 04 00
	00		 mov	 ecx, DWORD PTR [ebx+1244]
  001eb	89 45 cc	 mov	 DWORD PTR _pastrValueGubun$9[ebp], eax
  001ee	8b 83 f0 04 00
	00		 mov	 eax, DWORD PTR [ebx+1264]
  001f4	c6 45 fc 02	 mov	 BYTE PTR __$EHRec$[ebp+8], 2
  001f8	85 c0		 test	 eax, eax
  001fa	75 20		 jne	 SHORT $LN13@WindowProc

; 796  : 						m_pDataManager->GetOptionJongMst(pastrJongCode, pastrJongName, pastrJongEngName, pastrEventPrice, pastrFinalYM, pastrValueGubun);

  001fc	8b 01		 mov	 eax, DWORD PTR [ecx]
  001fe	8d 55 cc	 lea	 edx, DWORD PTR _pastrValueGubun$9[ebp]
  00201	52		 push	 edx
  00202	8d 55 d0	 lea	 edx, DWORD PTR _pastrFinalYM$10[ebp]
  00205	52		 push	 edx
  00206	8d 55 d4	 lea	 edx, DWORD PTR _pastrEventPrice$11[ebp]
  00209	52		 push	 edx
  0020a	8d 55 d8	 lea	 edx, DWORD PTR _pastrJongEngName$12[ebp]
  0020d	52		 push	 edx
  0020e	8d 55 e4	 lea	 edx, DWORD PTR _pastrJongName$15[ebp]
  00211	52		 push	 edx
  00212	8d 55 f0	 lea	 edx, DWORD PTR _pastrJongCode$18[ebp]
  00215	52		 push	 edx
  00216	51		 push	 ecx
  00217	ff 50 44	 call	 DWORD PTR [eax+68]
  0021a	eb 1b		 jmp	 SHORT $LN16@WindowProc
$LN13@WindowProc:

; 797  : 					else if(m_nComboSel == 2 )

  0021c	8b 11		 mov	 edx, DWORD PTR [ecx]
  0021e	83 f8 02	 cmp	 eax, 2
  00221	8d 45 e4	 lea	 eax, DWORD PTR _pastrJongName$15[ebp]
  00224	50		 push	 eax
  00225	8d 45 f0	 lea	 eax, DWORD PTR _pastrJongCode$18[ebp]
  00228	50		 push	 eax
  00229	51		 push	 ecx
  0022a	75 08		 jne	 SHORT $LN15@WindowProc

; 798  : 						m_pDataManager->GetWeeklyOptionJongMst(pastrJongCode, pastrJongName);

  0022c	ff 92 90 00 00
	00		 call	 DWORD PTR [edx+144]
  00232	eb 03		 jmp	 SHORT $LN16@WindowProc
$LN15@WindowProc:

; 799  : 					else
; 800  : 						m_pDataManager->GetMiniOptionJongMst(pastrJongCode, pastrJongName);

  00234	ff 52 64	 call	 DWORD PTR [edx+100]
$LN16@WindowProc:

; 801  : 
; 802  : 					for(int i = 0; i < pastrJongCode->GetSize(); i++)

  00237	8b 4d f0	 mov	 ecx, DWORD PTR _pastrJongCode$18[ebp]
  0023a	33 f6		 xor	 esi, esi
  0023c	8b 41 08	 mov	 eax, DWORD PTR [ecx+8]
  0023f	85 c0		 test	 eax, eax
  00241	7e 55		 jle	 SHORT $LN5@WindowProc
$LL6@WindowProc:
; File C:\Program Files (x86)\Microsoft Visual Studio\2019\Community\VC\Tools\MSVC\14.29.30133\atlmfc\include\afxcoll.inl

; 289  : 		if( nIndex < 0 || nIndex >= m_nSize )

  00243	85 f6		 test	 esi, esi
  00245	0f 88 05 02 00
	00		 js	 $LN86@WindowProc
  0024b	3b f0		 cmp	 esi, eax
  0024d	0f 8d fd 01 00
	00		 jge	 $LN86@WindowProc

; 291  : 		return m_pData[nIndex]; }

  00253	8b 41 04	 mov	 eax, DWORD PTR [ecx+4]
  00256	8d 3c b5 00 00
	00 00		 lea	 edi, DWORD PTR [esi*4]
  0025d	03 c7		 add	 eax, edi
; File D:\git\src\IBK\IBK_DRFN\ProjSrc\SrcDrfn\Chart\comparechart\TabCodeSearchFO.cpp

; 804  : 						strCodeSelected = pastrJongCode->GetAt(i);

  0025f	8d 4d e8	 lea	 ecx, DWORD PTR _strCodeSelected$16[ebp]
  00262	50		 push	 eax
  00263	ff 15 00 00 00
	00		 call	 DWORD PTR __imp_??4?$CStringT@DV?$StrTraitMFC_DLL@DV?$ChTraitsCRT@D@ATL@@@@@ATL@@QAEAAV01@ABV01@@Z
; File C:\Program Files (x86)\Microsoft Visual Studio\2019\Community\VC\Tools\MSVC\14.29.30133\atlmfc\include\afxcoll.inl

; 289  : 		if( nIndex < 0 || nIndex >= m_nSize )

  00269	8b 4d f0	 mov	 ecx, DWORD PTR _pastrJongCode$18[ebp]
  0026c	3b 71 08	 cmp	 esi, DWORD PTR [ecx+8]
  0026f	0f 8d db 01 00
	00		 jge	 $LN86@WindowProc

; 291  : 		return m_pData[nIndex]; }

  00275	8b 49 04	 mov	 ecx, DWORD PTR [ecx+4]
; File D:\git\src\IBK\IBK_DRFN\ProjSrc\SrcDrfn\Chart\comparechart\TabCodeSearchFO.cpp

; 805  : 						if(pastrJongCode->GetAt(i).Find(strCode) >= 0)

  00278	6a 00		 push	 0
  0027a	ff 75 e0	 push	 DWORD PTR _strCode$14[ebp]
; File C:\Program Files (x86)\Microsoft Visual Studio\2019\Community\VC\Tools\MSVC\14.29.30133\atlmfc\include\afxcoll.inl

; 291  : 		return m_pData[nIndex]; }

  0027d	03 cf		 add	 ecx, edi
; File D:\git\src\IBK\IBK_DRFN\ProjSrc\SrcDrfn\Chart\comparechart\TabCodeSearchFO.cpp

; 805  : 						if(pastrJongCode->GetAt(i).Find(strCode) >= 0)

  0027f	ff 15 00 00 00
	00		 call	 DWORD PTR __imp_?Find@?$CStringT@DV?$StrTraitMFC_DLL@DV?$ChTraitsCRT@D@ATL@@@@@ATL@@QBEHPBDH@Z
  00285	85 c0		 test	 eax, eax
  00287	0f 89 a2 00 00
	00		 jns	 $LN120@WindowProc

; 801  : 
; 802  : 					for(int i = 0; i < pastrJongCode->GetSize(); i++)

  0028d	8b 4d f0	 mov	 ecx, DWORD PTR _pastrJongCode$18[ebp]
  00290	46		 inc	 esi
  00291	8b 41 08	 mov	 eax, DWORD PTR [ecx+8]
  00294	3b f0		 cmp	 esi, eax
  00296	7c ab		 jl	 SHORT $LL6@WindowProc
$LN5@WindowProc:

; 810  : 						}
; 811  : 					}
; 812  : 
; 813  : 					delete pastrJongCode;

  00298	85 c9		 test	 ecx, ecx
  0029a	74 07		 je	 SHORT $LN33@WindowProc
  0029c	8b 01		 mov	 eax, DWORD PTR [ecx]
  0029e	6a 01		 push	 1
  002a0	ff 50 04	 call	 DWORD PTR [eax+4]
$LN33@WindowProc:

; 814  : 					delete pastrJongName;

  002a3	8b 4d e4	 mov	 ecx, DWORD PTR _pastrJongName$15[ebp]
  002a6	85 c9		 test	 ecx, ecx
  002a8	74 07		 je	 SHORT $LN35@WindowProc
  002aa	8b 01		 mov	 eax, DWORD PTR [ecx]
  002ac	6a 01		 push	 1
  002ae	ff 50 04	 call	 DWORD PTR [eax+4]
$LN35@WindowProc:

; 815  : 					delete pastrJongEngName;

  002b1	8b 4d d8	 mov	 ecx, DWORD PTR _pastrJongEngName$12[ebp]
  002b4	85 c9		 test	 ecx, ecx
  002b6	74 07		 je	 SHORT $LN37@WindowProc
  002b8	8b 01		 mov	 eax, DWORD PTR [ecx]
  002ba	6a 01		 push	 1
  002bc	ff 50 04	 call	 DWORD PTR [eax+4]
$LN37@WindowProc:

; 816  : 					delete pastrEventPrice;

  002bf	8b 4d d4	 mov	 ecx, DWORD PTR _pastrEventPrice$11[ebp]
  002c2	85 c9		 test	 ecx, ecx
  002c4	74 07		 je	 SHORT $LN39@WindowProc
  002c6	8b 01		 mov	 eax, DWORD PTR [ecx]
  002c8	6a 01		 push	 1
  002ca	ff 50 04	 call	 DWORD PTR [eax+4]
$LN39@WindowProc:

; 817  : 					delete pastrFinalYM;

  002cd	8b 4d d0	 mov	 ecx, DWORD PTR _pastrFinalYM$10[ebp]
  002d0	85 c9		 test	 ecx, ecx
  002d2	74 07		 je	 SHORT $LN41@WindowProc
  002d4	8b 01		 mov	 eax, DWORD PTR [ecx]
  002d6	6a 01		 push	 1
  002d8	ff 50 04	 call	 DWORD PTR [eax+4]
$LN41@WindowProc:

; 818  : 					delete pastrValueGubun;

  002db	8b 4d cc	 mov	 ecx, DWORD PTR _pastrValueGubun$9[ebp]
  002de	85 c9		 test	 ecx, ecx
  002e0	74 07		 je	 SHORT $LN43@WindowProc
  002e2	8b 01		 mov	 eax, DWORD PTR [ecx]
  002e4	6a 01		 push	 1
  002e6	ff 50 04	 call	 DWORD PTR [eax+4]
$LN43@WindowProc:

; 819  : 
; 820  : 					strName.TrimLeft();			

  002e9	8d 4d ec	 lea	 ecx, DWORD PTR _strName$17[ebp]
  002ec	ff 15 00 00 00
	00		 call	 DWORD PTR __imp_?TrimLeft@?$CStringT@DV?$StrTraitMFC_DLL@DV?$ChTraitsCRT@D@ATL@@@@@ATL@@QAEAAV12@XZ
; File C:\Program Files (x86)\Microsoft Visual Studio\2019\Community\VC\Tools\MSVC\14.29.30133\atlmfc\include\atlsimpstr.h

; 519  : 		return( GetData()->nDataLength );

  002f2	8b 45 ec	 mov	 eax, DWORD PTR _strName$17[ebp]
; File D:\git\src\IBK\IBK_DRFN\ProjSrc\SrcDrfn\Chart\comparechart\TabCodeSearchFO.cpp

; 822  : 					if(strName.GetLength()<=0)

  002f5	83 78 f4 00	 cmp	 DWORD PTR [eax-12], 0
  002f9	7f 79		 jg	 SHORT $LN18@WindowProc

; 823  : 						return TRUE;

  002fb	8d 4d ec	 lea	 ecx, DWORD PTR _strName$17[ebp]
  002fe	ff 15 00 00 00
	00		 call	 DWORD PTR __imp_??1?$CStringT@DV?$StrTraitMFC_DLL@DV?$ChTraitsCRT@D@ATL@@@@@ATL@@QAE@XZ
  00304	8d 4d e0	 lea	 ecx, DWORD PTR _strCode$14[ebp]
  00307	ff 15 00 00 00
	00		 call	 DWORD PTR __imp_??1?$CStringT@DV?$StrTraitMFC_DLL@DV?$ChTraitsCRT@D@ATL@@@@@ATL@@QAE@XZ
  0030d	8d 4d e8	 lea	 ecx, DWORD PTR _strCodeSelected$16[ebp]
  00310	ff 15 00 00 00
	00		 call	 DWORD PTR __imp_??1?$CStringT@DV?$StrTraitMFC_DLL@DV?$ChTraitsCRT@D@ATL@@@@@ATL@@QAE@XZ
  00316	b8 01 00 00 00	 mov	 eax, 1

; 837  : }

  0031b	8b 4d f4	 mov	 ecx, DWORD PTR __$EHRec$[ebp]
  0031e	64 89 0d 00 00
	00 00		 mov	 DWORD PTR fs:0, ecx
  00325	59		 pop	 ecx
  00326	5f		 pop	 edi
  00327	5e		 pop	 esi
  00328	5b		 pop	 ebx
  00329	8b e5		 mov	 esp, ebp
  0032b	5d		 pop	 ebp
  0032c	c2 0c 00	 ret	 12			; 0000000cH
$LN120@WindowProc:
; File C:\Program Files (x86)\Microsoft Visual Studio\2019\Community\VC\Tools\MSVC\14.29.30133\atlmfc\include\afxcoll.inl

; 289  : 		if( nIndex < 0 || nIndex >= m_nSize )

  0032f	8b 45 f0	 mov	 eax, DWORD PTR _pastrJongCode$18[ebp]
  00332	3b 70 08	 cmp	 esi, DWORD PTR [eax+8]
  00335	0f 8d 15 01 00
	00		 jge	 $LN86@WindowProc

; 291  : 		return m_pData[nIndex]; }

  0033b	8b 40 04	 mov	 eax, DWORD PTR [eax+4]
  0033e	8d 3c b5 00 00
	00 00		 lea	 edi, DWORD PTR [esi*4]
  00345	03 c7		 add	 eax, edi
; File D:\git\src\IBK\IBK_DRFN\ProjSrc\SrcDrfn\Chart\comparechart\TabCodeSearchFO.cpp

; 807  : 							strCode = pastrJongCode->GetAt(i);

  00347	8d 4d e0	 lea	 ecx, DWORD PTR _strCode$14[ebp]
  0034a	50		 push	 eax
  0034b	ff 15 00 00 00
	00		 call	 DWORD PTR __imp_??4?$CStringT@DV?$StrTraitMFC_DLL@DV?$ChTraitsCRT@D@ATL@@@@@ATL@@QAEAAV01@ABV01@@Z
; File C:\Program Files (x86)\Microsoft Visual Studio\2019\Community\VC\Tools\MSVC\14.29.30133\atlmfc\include\afxcoll.inl

; 289  : 		if( nIndex < 0 || nIndex >= m_nSize )

  00351	8b 45 e4	 mov	 eax, DWORD PTR _pastrJongName$15[ebp]
  00354	3b 70 08	 cmp	 esi, DWORD PTR [eax+8]
  00357	0f 8d f3 00 00
	00		 jge	 $LN86@WindowProc

; 291  : 		return m_pData[nIndex]; }

  0035d	8b 40 04	 mov	 eax, DWORD PTR [eax+4]
; File D:\git\src\IBK\IBK_DRFN\ProjSrc\SrcDrfn\Chart\comparechart\TabCodeSearchFO.cpp

; 808  : 							strName = pastrJongName->GetAt(i);

  00360	8d 4d ec	 lea	 ecx, DWORD PTR _strName$17[ebp]
; File C:\Program Files (x86)\Microsoft Visual Studio\2019\Community\VC\Tools\MSVC\14.29.30133\atlmfc\include\afxcoll.inl

; 291  : 		return m_pData[nIndex]; }

  00363	03 c7		 add	 eax, edi
; File D:\git\src\IBK\IBK_DRFN\ProjSrc\SrcDrfn\Chart\comparechart\TabCodeSearchFO.cpp

; 808  : 							strName = pastrJongName->GetAt(i);

  00365	50		 push	 eax
  00366	ff 15 00 00 00
	00		 call	 DWORD PTR __imp_??4?$CStringT@DV?$StrTraitMFC_DLL@DV?$ChTraitsCRT@D@ATL@@@@@ATL@@QAEAAV01@ABV01@@Z

; 809  : 							break;

  0036c	8b 4d f0	 mov	 ecx, DWORD PTR _pastrJongCode$18[ebp]
  0036f	e9 24 ff ff ff	 jmp	 $LN5@WindowProc
$LN18@WindowProc:

; 824  : 					CString strData;

  00374	8d 4d dc	 lea	 ecx, DWORD PTR _strData$13[ebp]
  00377	ff 15 00 00 00
	00		 call	 DWORD PTR __imp_??0?$CStringT@DV?$StrTraitMFC_DLL@DV?$ChTraitsCRT@D@ATL@@@@@ATL@@QAE@XZ

; 825  : 					strData.Format("%s|%s", strName, strCode);

  0037d	ff 75 e0	 push	 DWORD PTR _strCode$14[ebp]
  00380	8d 45 dc	 lea	 eax, DWORD PTR _strData$13[ebp]
  00383	c6 45 fc 09	 mov	 BYTE PTR __$EHRec$[ebp+8], 9
  00387	ff 75 ec	 push	 DWORD PTR _strName$17[ebp]
  0038a	68 00 00 00 00	 push	 OFFSET ??_C@_05LMFDOBNM@?$CFs?$HM?$CFs@
  0038f	50		 push	 eax
  00390	ff 15 00 00 00
	00		 call	 DWORD PTR __imp_?Format@?$CStringT@DV?$StrTraitMFC_DLL@DV?$ChTraitsCRT@D@ATL@@@@@ATL@@QAAXPBDZZ
  00396	83 c4 10	 add	 esp, 16			; 00000010H
; File C:\Program Files (x86)\Microsoft Visual Studio\2019\Community\VC\Tools\MSVC\14.29.30133\atlmfc\include\atlsimpstr.h

; 377  : 		return( m_pszData );

  00399	8d bb e0 04 00
	00		 lea	 edi, DWORD PTR [ebx+1248]
; File C:\Program Files (x86)\Microsoft Visual Studio\2019\Community\VC\Tools\MSVC\14.29.30133\atlmfc\include\cstringt.h

; 2560 : 		return( str1.Compare( str2 ) != 0 );

  0039f	8d 4d dc	 lea	 ecx, DWORD PTR _strData$13[ebp]
  003a2	ff 37		 push	 DWORD PTR [edi]
  003a4	ff 15 00 00 00
	00		 call	 DWORD PTR __imp_?Compare@?$CStringT@DV?$StrTraitMFC_DLL@DV?$ChTraitsCRT@D@ATL@@@@@ATL@@QBEHPBD@Z
  003aa	85 c0		 test	 eax, eax
; File D:\git\src\IBK\IBK_DRFN\ProjSrc\SrcDrfn\Chart\comparechart\TabCodeSearchFO.cpp

; 826  : 					if(strData != m_strCodeNName)

  003ac	74 53		 je	 SHORT $LN19@WindowProc

; 827  : 					{
; 828  : 						AFX_MANAGE_STATE(AfxGetStaticModuleState()); 

  003ae	e8 00 00 00 00	 call	 ?AfxGetStaticModuleState@@YGPAVAFX_MODULE_STATE@@XZ ; AfxGetStaticModuleState
  003b3	50		 push	 eax
  003b4	8d 4d c4	 lea	 ecx, DWORD PTR __ctlState$2[ebp]
  003b7	e8 00 00 00 00	 call	 ??0AFX_MAINTAIN_STATE2@@QAE@PAVAFX_MODULE_STATE@@@Z ; AFX_MAINTAIN_STATE2::AFX_MAINTAIN_STATE2

; 829  : 						m_strCodeNName = strData;

  003bc	8d 45 dc	 lea	 eax, DWORD PTR _strData$13[ebp]
  003bf	c6 45 fc 0a	 mov	 BYTE PTR __$EHRec$[ebp+8], 10 ; 0000000aH
  003c3	50		 push	 eax
  003c4	8b cf		 mov	 ecx, edi
  003c6	ff 15 00 00 00
	00		 call	 DWORD PTR __imp_??4?$CStringT@DV?$StrTraitMFC_DLL@DV?$ChTraitsCRT@D@ATL@@@@@ATL@@QAEAAV01@ABV01@@Z
; File C:\Program Files (x86)\Microsoft Visual Studio\2019\Community\VC\Tools\MSVC\14.29.30133\atlmfc\include\afxwin2.inl

; 213  : 	{ ASSERT(::IsWindow(m_hWnd)); return CWnd::FromHandle(::GetParent(m_hWnd)); }

  003cc	ff 73 20	 push	 DWORD PTR [ebx+32]
  003cf	8b 35 00 00 00
	00		 mov	 esi, DWORD PTR __imp__GetParent@4
  003d5	ff d6		 call	 esi
  003d7	50		 push	 eax
  003d8	e8 00 00 00 00	 call	 ?FromHandle@CWnd@@SGPAV1@PAUHWND__@@@Z ; CWnd::FromHandle
  003dd	ff 70 20	 push	 DWORD PTR [eax+32]
  003e0	ff d6		 call	 esi
  003e2	50		 push	 eax
  003e3	e8 00 00 00 00	 call	 ?FromHandle@CWnd@@SGPAV1@PAUHWND__@@@Z ; CWnd::FromHandle

; 32   : 	{ ASSERT(::IsWindow(m_hWnd)); return ::SendMessage(m_hWnd, message, wParam, lParam); }

  003e8	57		 push	 edi
  003e9	6a 00		 push	 0
  003eb	68 5b 04 00 00	 push	 1115			; 0000045bH
  003f0	ff 70 20	 push	 DWORD PTR [eax+32]
  003f3	ff 15 00 00 00
	00		 call	 DWORD PTR __imp__SendMessageA@16
; File D:\git\src\IBK\IBK_DRFN\ProjSrc\SrcDrfn\Chart\comparechart\TabCodeSearchFO.cpp

; 831  : 					}

  003f9	8d 4d c4	 lea	 ecx, DWORD PTR __ctlState$2[ebp]
  003fc	e8 00 00 00 00	 call	 ??1AFX_MAINTAIN_STATE2@@QAE@XZ ; AFX_MAINTAIN_STATE2::~AFX_MAINTAIN_STATE2
$LN19@WindowProc:

; 832  : 				}

  00401	8d 4d dc	 lea	 ecx, DWORD PTR _strData$13[ebp]
  00404	ff 15 00 00 00
	00		 call	 DWORD PTR __imp_??1?$CStringT@DV?$StrTraitMFC_DLL@DV?$ChTraitsCRT@D@ATL@@@@@ATL@@QAE@XZ
  0040a	8d 4d ec	 lea	 ecx, DWORD PTR _strName$17[ebp]
  0040d	ff 15 00 00 00
	00		 call	 DWORD PTR __imp_??1?$CStringT@DV?$StrTraitMFC_DLL@DV?$ChTraitsCRT@D@ATL@@@@@ATL@@QAE@XZ
  00413	8d 4d e0	 lea	 ecx, DWORD PTR _strCode$14[ebp]
  00416	ff 15 00 00 00
	00		 call	 DWORD PTR __imp_??1?$CStringT@DV?$StrTraitMFC_DLL@DV?$ChTraitsCRT@D@ATL@@@@@ATL@@QAE@XZ
$LN12@WindowProc:

; 833  : 			}

  0041c	8d 4d e8	 lea	 ecx, DWORD PTR _strCodeSelected$16[ebp]
  0041f	c7 45 fc ff ff
	ff ff		 mov	 DWORD PTR __$EHRec$[ebp+8], -1
  00426	ff 15 00 00 00
	00		 call	 DWORD PTR __imp_??1?$CStringT@DV?$StrTraitMFC_DLL@DV?$ChTraitsCRT@D@ATL@@@@@ATL@@QAE@XZ
$LN11@WindowProc:

; 834  : 		}
; 835  : 	}	
; 836  : 	return CTabDlg::WindowProc(message, wParam, lParam);

  0042c	ff 75 10	 push	 DWORD PTR _lParam$[ebp]
  0042f	8b cb		 mov	 ecx, ebx
  00431	ff 75 0c	 push	 DWORD PTR _wParam$[ebp]
  00434	ff 75 08	 push	 DWORD PTR _message$[ebp]
  00437	e8 00 00 00 00	 call	 ?WindowProc@CWnd@@MAEJIIJ@Z ; CWnd::WindowProc

; 837  : }

  0043c	8b 4d f4	 mov	 ecx, DWORD PTR __$EHRec$[ebp]
  0043f	64 89 0d 00 00
	00 00		 mov	 DWORD PTR fs:0, ecx
  00446	59		 pop	 ecx
  00447	5f		 pop	 edi
  00448	5e		 pop	 esi
  00449	5b		 pop	 ebx
  0044a	8b e5		 mov	 esp, ebp
  0044c	5d		 pop	 ebp
  0044d	c2 0c 00	 ret	 12			; 0000000cH
$LN86@WindowProc:
; File C:\Program Files (x86)\Microsoft Visual Studio\2019\Community\VC\Tools\MSVC\14.29.30133\atlmfc\include\afxcoll.inl

; 290  : 			AfxThrowInvalidArgException();

  00450	e8 00 00 00 00	 call	 ?AfxThrowInvalidArgException@@YGXXZ ; AfxThrowInvalidArgException
$LN125@WindowProc:
  00455	cc		 int	 3
_TEXT	ENDS
;	COMDAT text$x
text$x	SEGMENT
__unwindfunclet$?WindowProc@CTabCodeSearchFO@@MAEJIIJ@Z$0:
  00000	8d 4d e8	 lea	 ecx, DWORD PTR _strCodeSelected$16[ebp]
  00003	ff 25 00 00 00
	00		 jmp	 DWORD PTR __imp_??1?$CStringT@DV?$StrTraitMFC_DLL@DV?$ChTraitsCRT@D@ATL@@@@@ATL@@QAE@XZ
__unwindfunclet$?WindowProc@CTabCodeSearchFO@@MAEJIIJ@Z$1:
  00009	8d 4d e0	 lea	 ecx, DWORD PTR _strCode$14[ebp]
  0000c	ff 25 00 00 00
	00		 jmp	 DWORD PTR __imp_??1?$CStringT@DV?$StrTraitMFC_DLL@DV?$ChTraitsCRT@D@ATL@@@@@ATL@@QAE@XZ
__unwindfunclet$?WindowProc@CTabCodeSearchFO@@MAEJIIJ@Z$2:
  00012	8d 4d ec	 lea	 ecx, DWORD PTR _strName$17[ebp]
  00015	ff 25 00 00 00
	00		 jmp	 DWORD PTR __imp_??1?$CStringT@DV?$StrTraitMFC_DLL@DV?$ChTraitsCRT@D@ATL@@@@@ATL@@QAE@XZ
__unwindfunclet$?WindowProc@CTabCodeSearchFO@@MAEJIIJ@Z$3:
  0001b	8b 45 c8	 mov	 eax, DWORD PTR $T8[ebp]
  0001e	50		 push	 eax
  0001f	e8 00 00 00 00	 call	 ??3CObject@@SGXPAX@Z	; CObject::operator delete
  00024	c3		 ret	 0
__unwindfunclet$?WindowProc@CTabCodeSearchFO@@MAEJIIJ@Z$4:
  00025	8b 45 c8	 mov	 eax, DWORD PTR $T7[ebp]
  00028	50		 push	 eax
  00029	e8 00 00 00 00	 call	 ??3CObject@@SGXPAX@Z	; CObject::operator delete
  0002e	c3		 ret	 0
__unwindfunclet$?WindowProc@CTabCodeSearchFO@@MAEJIIJ@Z$5:
  0002f	8b 45 c8	 mov	 eax, DWORD PTR $T6[ebp]
  00032	50		 push	 eax
  00033	e8 00 00 00 00	 call	 ??3CObject@@SGXPAX@Z	; CObject::operator delete
  00038	c3		 ret	 0
__unwindfunclet$?WindowProc@CTabCodeSearchFO@@MAEJIIJ@Z$6:
  00039	8b 45 c8	 mov	 eax, DWORD PTR $T5[ebp]
  0003c	50		 push	 eax
  0003d	e8 00 00 00 00	 call	 ??3CObject@@SGXPAX@Z	; CObject::operator delete
  00042	c3		 ret	 0
__unwindfunclet$?WindowProc@CTabCodeSearchFO@@MAEJIIJ@Z$7:
  00043	8b 45 c8	 mov	 eax, DWORD PTR $T4[ebp]
  00046	50		 push	 eax
  00047	e8 00 00 00 00	 call	 ??3CObject@@SGXPAX@Z	; CObject::operator delete
  0004c	c3		 ret	 0
__unwindfunclet$?WindowProc@CTabCodeSearchFO@@MAEJIIJ@Z$8:
  0004d	8b 45 c8	 mov	 eax, DWORD PTR $T3[ebp]
  00050	50		 push	 eax
  00051	e8 00 00 00 00	 call	 ??3CObject@@SGXPAX@Z	; CObject::operator delete
  00056	c3		 ret	 0
__unwindfunclet$?WindowProc@CTabCodeSearchFO@@MAEJIIJ@Z$9:
  00057	8d 4d dc	 lea	 ecx, DWORD PTR _strData$13[ebp]
  0005a	ff 25 00 00 00
	00		 jmp	 DWORD PTR __imp_??1?$CStringT@DV?$StrTraitMFC_DLL@DV?$ChTraitsCRT@D@ATL@@@@@ATL@@QAE@XZ
__unwindfunclet$?WindowProc@CTabCodeSearchFO@@MAEJIIJ@Z$10:
  00060	8d 4d c4	 lea	 ecx, DWORD PTR __ctlState$2[ebp]
  00063	e9 00 00 00 00	 jmp	 ??1AFX_MAINTAIN_STATE2@@QAE@XZ ; AFX_MAINTAIN_STATE2::~AFX_MAINTAIN_STATE2
  00068	cc		 int	 3
  00069	cc		 int	 3
  0006a	cc		 int	 3
  0006b	cc		 int	 3
  0006c	cc		 int	 3
__ehhandler$?WindowProc@CTabCodeSearchFO@@MAEJIIJ@Z:
  0006d	90		 npad	 1
  0006e	90		 npad	 1
  0006f	8b 54 24 08	 mov	 edx, DWORD PTR [esp+8]
  00073	8d 42 0c	 lea	 eax, DWORD PTR [edx+12]
  00076	8b 4a c0	 mov	 ecx, DWORD PTR [edx-64]
  00079	33 c8		 xor	 ecx, eax
  0007b	e8 00 00 00 00	 call	 @__security_check_cookie@4
  00080	b8 00 00 00 00	 mov	 eax, OFFSET __ehfuncinfo$?WindowProc@CTabCodeSearchFO@@MAEJIIJ@Z
  00085	e9 00 00 00 00	 jmp	 ___CxxFrameHandler3
text$x	ENDS
?WindowProc@CTabCodeSearchFO@@MAEJIIJ@Z ENDP		; CTabCodeSearchFO::WindowProc
; Function compile flags: /Ogtp
; File D:\git\src\IBK\IBK_DRFN\ProjSrc\SrcDrfn\Chart\comparechart\TabCodeSearchFO.cpp
;	COMDAT ?DoDataExchange@CTabCodeSearchFO@@MAEXPAVCDataExchange@@@Z
_TEXT	SEGMENT
_pDX$ = 8						; size = 4
?DoDataExchange@CTabCodeSearchFO@@MAEXPAVCDataExchange@@@Z PROC ; CTabCodeSearchFO::DoDataExchange, COMDAT
; _this$ = ecx

; 43   : {

  00000	55		 push	 ebp
  00001	8b ec		 mov	 ebp, esp
  00003	56		 push	 esi

; 44   : 	CDialog::DoDataExchange(pDX);
; 45   : 	//{{AFX_DATA_MAP(CTabCodeSearchFO)
; 46   : 	DDX_Control(pDX, IDC_COMBO_FO, m_ctrlComboFOType);

  00004	8b 75 08	 mov	 esi, DWORD PTR _pDX$[ebp]
  00007	57		 push	 edi
  00008	8b f9		 mov	 edi, ecx
  0000a	8d 87 d0 00 00
	00		 lea	 eax, DWORD PTR [edi+208]
  00010	50		 push	 eax
  00011	68 95 17 00 00	 push	 6037			; 00001795H
  00016	56		 push	 esi
  00017	e8 00 00 00 00	 call	 ?DDX_Control@@YGXPAVCDataExchange@@HAAVCWnd@@@Z ; DDX_Control

; 47   : 	DDX_Control(pDX, IDC_COMBO_MONTH, m_ctrlComboMonth);

  0001c	8d 87 58 01 00
	00		 lea	 eax, DWORD PTR [edi+344]
  00022	50		 push	 eax
  00023	68 94 17 00 00	 push	 6036			; 00001794H
  00028	56		 push	 esi
  00029	e8 00 00 00 00	 call	 ?DDX_Control@@YGXPAVCDataExchange@@HAAVCWnd@@@Z ; DDX_Control

; 48   : 	DDX_Control(pDX, IDC_LIST_FUTURE, m_listFuture);

  0002e	8d 87 e0 01 00
	00		 lea	 eax, DWORD PTR [edi+480]
  00034	50		 push	 eax
  00035	68 70 18 00 00	 push	 6256			; 00001870H
  0003a	56		 push	 esi
  0003b	e8 00 00 00 00	 call	 ?DDX_Control@@YGXPAVCDataExchange@@HAAVCWnd@@@Z ; DDX_Control

; 49   : 	DDX_Control(pDX, IDC_RADIO_KOSPI200, m_ctrlRadioKospi200);

  00040	8d 87 60 02 00
	00		 lea	 eax, DWORD PTR [edi+608]
  00046	50		 push	 eax
  00047	68 91 18 00 00	 push	 6289			; 00001891H
  0004c	56		 push	 esi
  0004d	e8 00 00 00 00	 call	 ?DDX_Control@@YGXPAVCDataExchange@@HAAVCWnd@@@Z ; DDX_Control

; 50   : 	DDX_Control(pDX, IDC_RADIO_MINIKOSPI, m_ctrlRadioMiniKospi);

  00052	8d 87 e0 02 00
	00		 lea	 eax, DWORD PTR [edi+736]
  00058	50		 push	 eax
  00059	68 92 18 00 00	 push	 6290			; 00001892H
  0005e	56		 push	 esi
  0005f	e8 00 00 00 00	 call	 ?DDX_Control@@YGXPAVCDataExchange@@HAAVCWnd@@@Z ; DDX_Control

; 51   : 	DDX_Control(pDX, IDC_RADIO_WEEKLYKOSPI, m_ctrlRadioWeeklyKospi);

  00064	8d 87 60 03 00
	00		 lea	 eax, DWORD PTR [edi+864]
  0006a	50		 push	 eax
  0006b	68 93 18 00 00	 push	 6291			; 00001893H
  00070	56		 push	 esi
  00071	e8 00 00 00 00	 call	 ?DDX_Control@@YGXPAVCDataExchange@@HAAVCWnd@@@Z ; DDX_Control
  00076	5f		 pop	 edi
  00077	5e		 pop	 esi

; 52   : 	//}}AFX_DATA_MAP
; 53   : }

  00078	5d		 pop	 ebp
  00079	c2 04 00	 ret	 4
?DoDataExchange@CTabCodeSearchFO@@MAEXPAVCDataExchange@@@Z ENDP ; CTabCodeSearchFO::DoDataExchange
_TEXT	ENDS
; Function compile flags: /Ogtp
; File C:\Program Files (x86)\Microsoft Visual Studio\2019\Community\VC\Tools\MSVC\14.29.30133\atlmfc\include\afxtempl.h
; File C:\Program Files (x86)\Microsoft Visual Studio\2019\Community\VC\Tools\MSVC\14.29.30133\atlmfc\include\afx.inl
;	COMDAT ??_G?$CList@U_codeinfo@@AAU1@@@UAEPAXI@Z
_TEXT	SEGMENT
__$EHRec$ = -12						; size = 12
___flags$ = 8						; size = 4
??_G?$CList@U_codeinfo@@AAU1@@@UAEPAXI@Z PROC		; CList<_codeinfo,_codeinfo &>::`scalar deleting destructor', COMDAT
; _this$ = ecx
  00000	55		 push	 ebp
  00001	8b ec		 mov	 ebp, esp
  00003	6a ff		 push	 -1
  00005	68 00 00 00 00	 push	 __ehhandler$??_G?$CList@U_codeinfo@@AAU1@@@UAEPAXI@Z
  0000a	64 a1 00 00 00
	00		 mov	 eax, DWORD PTR fs:0
  00010	50		 push	 eax
  00011	56		 push	 esi
  00012	a1 00 00 00 00	 mov	 eax, DWORD PTR ___security_cookie
  00017	33 c5		 xor	 eax, ebp
  00019	50		 push	 eax
  0001a	8d 45 f4	 lea	 eax, DWORD PTR __$EHRec$[ebp]
  0001d	64 a3 00 00 00
	00		 mov	 DWORD PTR fs:0, eax
  00023	8b f1		 mov	 esi, ecx
; File C:\Program Files (x86)\Microsoft Visual Studio\2019\Community\VC\Tools\MSVC\14.29.30133\atlmfc\include\afxtempl.h

; 872  : 	m_pBlocks->FreeDataChain();

  00025	8b 4e 14	 mov	 ecx, DWORD PTR [esi+20]

; 878  : {

  00028	c7 45 fc 00 00
	00 00		 mov	 DWORD PTR __$EHRec$[ebp+8], 0
  0002f	c7 06 00 00 00
	00		 mov	 DWORD PTR [esi], OFFSET ??_7?$CList@U_codeinfo@@AAU1@@@6B@

; 870  : 	m_nCount = 0;

  00035	c7 46 0c 00 00
	00 00		 mov	 DWORD PTR [esi+12], 0

; 871  : 	m_pNodeHead = m_pNodeTail = m_pNodeFree = NULL;

  0003c	c7 46 10 00 00
	00 00		 mov	 DWORD PTR [esi+16], 0
  00043	c7 46 08 00 00
	00 00		 mov	 DWORD PTR [esi+8], 0
  0004a	c7 46 04 00 00
	00 00		 mov	 DWORD PTR [esi+4], 0

; 872  : 	m_pBlocks->FreeDataChain();

  00051	e8 00 00 00 00	 call	 ?FreeDataChain@CPlex@@QAEXXZ ; CPlex::FreeDataChain

; 873  : 	m_pBlocks = NULL;

  00056	8b 45 08	 mov	 eax, DWORD PTR ___flags$[ebp]
  00059	c7 46 14 00 00
	00 00		 mov	 DWORD PTR [esi+20], 0
  00060	a8 01		 test	 al, 1
  00062	74 2c		 je	 SHORT $LN22@scalar
  00064	a8 04		 test	 al, 4
  00066	75 1d		 jne	 SHORT $LN3@scalar
; File C:\Program Files (x86)\Microsoft Visual Studio\2019\Community\VC\Tools\MSVC\14.29.30133\atlmfc\include\afx.inl

; 112  : 	{ ::operator delete(p); }

  00068	56		 push	 esi
  00069	e8 00 00 00 00	 call	 ??3@YAXPAX@Z		; operator delete
  0006e	83 c4 04	 add	 esp, 4
  00071	8b c6		 mov	 eax, esi
  00073	8b 4d f4	 mov	 ecx, DWORD PTR __$EHRec$[ebp]
  00076	64 89 0d 00 00
	00 00		 mov	 DWORD PTR fs:0, ecx
  0007d	59		 pop	 ecx
  0007e	5e		 pop	 esi
  0007f	8b e5		 mov	 esp, ebp
  00081	5d		 pop	 ebp
  00082	c2 04 00	 ret	 4
$LN3@scalar:
  00085	6a 1c		 push	 28			; 0000001cH
  00087	56		 push	 esi
  00088	e8 00 00 00 00	 call	 ?__global_delete@@YAXPAXI@Z ; __global_delete
  0008d	83 c4 08	 add	 esp, 8
$LN22@scalar:
  00090	8b c6		 mov	 eax, esi
  00092	8b 4d f4	 mov	 ecx, DWORD PTR __$EHRec$[ebp]
  00095	64 89 0d 00 00
	00 00		 mov	 DWORD PTR fs:0, ecx
  0009c	59		 pop	 ecx
  0009d	5e		 pop	 esi
  0009e	8b e5		 mov	 esp, ebp
  000a0	5d		 pop	 ebp
  000a1	c2 04 00	 ret	 4
  000a4	cc		 int	 3
  000a5	cc		 int	 3
  000a6	cc		 int	 3
  000a7	cc		 int	 3
  000a8	cc		 int	 3
_TEXT	ENDS
;	COMDAT text$x
text$x	SEGMENT
__ehhandler$??_G?$CList@U_codeinfo@@AAU1@@@UAEPAXI@Z:
  00000	90		 npad	 1
  00001	90		 npad	 1
  00002	8b 54 24 08	 mov	 edx, DWORD PTR [esp+8]
  00006	8d 42 0c	 lea	 eax, DWORD PTR [edx+12]
  00009	8b 4a f8	 mov	 ecx, DWORD PTR [edx-8]
  0000c	33 c8		 xor	 ecx, eax
  0000e	e8 00 00 00 00	 call	 @__security_check_cookie@4
  00013	b8 00 00 00 00	 mov	 eax, OFFSET __ehfuncinfo$??_G?$CList@U_codeinfo@@AAU1@@@UAEPAXI@Z
  00018	e9 00 00 00 00	 jmp	 ___CxxFrameHandler3
text$x	ENDS
??_G?$CList@U_codeinfo@@AAU1@@@UAEPAXI@Z ENDP		; CList<_codeinfo,_codeinfo &>::`scalar deleting destructor'
; Function compile flags: /Ogtp
; File C:\Program Files (x86)\Microsoft Visual Studio\2019\Community\VC\Tools\MSVC\14.29.30133\atlmfc\include\afxtempl.h
; File C:\Program Files (x86)\Microsoft Visual Studio\2019\Community\VC\Tools\MSVC\14.29.30133\atlmfc\include\afx.inl
; File C:\Program Files (x86)\Microsoft Visual Studio\2019\Community\VC\Tools\MSVC\14.29.30133\atlmfc\include\afxtempl.h
; File C:\Program Files (x86)\Microsoft Visual Studio\2019\Community\VC\Tools\MSVC\14.29.30133\atlmfc\include\afx.inl
; File C:\Program Files (x86)\Microsoft Visual Studio\2019\Community\VC\Tools\MSVC\14.29.30133\atlmfc\include\afxtempl.h
; File C:\Program Files (x86)\Microsoft Visual Studio\2019\Community\VC\Tools\MSVC\14.29.30133\atlmfc\include\afx.inl
; File C:\Program Files (x86)\Microsoft Visual Studio\2019\Community\VC\Tools\MSVC\14.29.30133\atlmfc\include\afxtempl.h
; File C:\Program Files (x86)\Microsoft Visual Studio\2019\Community\VC\Tools\MSVC\14.29.30133\atlmfc\include\afx.inl
; File C:\Program Files (x86)\Microsoft Visual Studio\2019\Community\VC\Tools\MSVC\14.29.30133\atlmfc\include\afxtempl.h
; File C:\Program Files (x86)\Microsoft Visual Studio\2019\Community\VC\Tools\MSVC\14.29.30133\atlmfc\include\afx.inl
; File C:\Program Files (x86)\Microsoft Visual Studio\2019\Community\VC\Tools\MSVC\14.29.30133\atlmfc\include\afxtempl.h
; File D:\git\src\IBK\IBK_DRFN\ProjSrc\SrcDrfn\Chart\comparechart\define\ChartMsgDef.h
; File C:\Program Files (x86)\Microsoft Visual Studio\2019\Community\VC\Tools\MSVC\14.29.30133\atlmfc\include\afx.inl
; File D:\git\src\IBK\IBK_DRFN\ProjSrc\SrcDrfn\Chart\comparechart\define\ChartMsgDef.h
; File C:\Program Files (x86)\Microsoft Visual Studio\2019\Community\VC\Tools\MSVC\14.29.30133\atlmfc\include\afx.inl
; File C:\Program Files (x86)\Microsoft Visual Studio\2019\Community\VC\Tools\MSVC\14.29.30133\atlmfc\include\afxtempl.h
; File C:\Program Files (x86)\Microsoft Visual Studio\2019\Community\VC\Tools\MSVC\14.29.30133\atlmfc\include\afx.inl
; File C:\Program Files (x86)\Microsoft Visual Studio\2019\Community\VC\Tools\MSVC\14.29.30133\atlmfc\include\afxtempl.h
; File C:\Program Files (x86)\Microsoft Visual Studio\2019\Community\VC\Tools\MSVC\14.29.30133\atlmfc\include\afx.inl
; File C:\Program Files (x86)\Microsoft Visual Studio\2019\Community\VC\Tools\MSVC\14.29.30133\atlmfc\include\afxtempl.h
;	COMDAT ?Serialize@?$CList@U_codeinfo@@AAU1@@@UAEXAAVCArchive@@@Z
_TEXT	SEGMENT
_nNewCount$1$ = -120					; size = 4
_nCount$1$ = -116					; size = 4
_nElementsLeft$1$ = -116				; size = 4
_this$GSCopy$1$ = -116					; size = 4
_ar$GSCopy$1$ = -112					; size = 4
_nCount$1$ = -108					; size = 4
_pData$1$ = -108					; size = 4
_pNode$1$ = -108					; size = 4
_newData$1 = -104					; size = 100
__$ArrayPad$ = -4					; size = 4
_ar$ = 8						; size = 4
?Serialize@?$CList@U_codeinfo@@AAU1@@@UAEXAAVCArchive@@@Z PROC ; CList<_codeinfo,_codeinfo &>::Serialize, COMDAT
; _this$ = ecx

; 1169 : {

  00000	55		 push	 ebp
  00001	8b ec		 mov	 ebp, esp
  00003	83 ec 78	 sub	 esp, 120		; 00000078H
  00006	a1 00 00 00 00	 mov	 eax, DWORD PTR ___security_cookie
  0000b	33 c5		 xor	 eax, ebp
  0000d	89 45 fc	 mov	 DWORD PTR __$ArrayPad$[ebp], eax
  00010	53		 push	 ebx
  00011	8b d9		 mov	 ebx, ecx
  00013	8b 4d 08	 mov	 ecx, DWORD PTR _ar$[ebp]
  00016	56		 push	 esi
  00017	57		 push	 edi
  00018	89 5d 8c	 mov	 DWORD PTR _this$GSCopy$1$[ebp], ebx
; File C:\Program Files (x86)\Microsoft Visual Studio\2019\Community\VC\Tools\MSVC\14.29.30133\atlmfc\include\afx.inl

; 212  : 	{ return (m_nMode & CArchive::load) == 0; }

  0001b	8b 41 18	 mov	 eax, DWORD PTR [ecx+24]
  0001e	f7 d0		 not	 eax
; File C:\Program Files (x86)\Microsoft Visual Studio\2019\Community\VC\Tools\MSVC\14.29.30133\atlmfc\include\afxtempl.h

; 1169 : {

  00020	89 4d 90	 mov	 DWORD PTR _ar$GSCopy$1$[ebp], ecx
; File C:\Program Files (x86)\Microsoft Visual Studio\2019\Community\VC\Tools\MSVC\14.29.30133\atlmfc\include\afx.inl

; 212  : 	{ return (m_nMode & CArchive::load) == 0; }

  00023	a8 01		 test	 al, 1
; File C:\Program Files (x86)\Microsoft Visual Studio\2019\Community\VC\Tools\MSVC\14.29.30133\atlmfc\include\afxtempl.h

; 1174 : 	if (ar.IsStoring())

  00025	0f 84 b3 00 00
	00		 je	 $LN7@Serialize

; 1175 : 	{
; 1176 : 		ar.WriteCount(m_nCount);

  0002b	ff 73 0c	 push	 DWORD PTR [ebx+12]
  0002e	e8 00 00 00 00	 call	 ?WriteCount@CArchive@@QAEXK@Z ; CArchive::WriteCount

; 1177 : 		for (CNode* pNode = m_pNodeHead; pNode != NULL; pNode = pNode->pNext)

  00033	8b 43 04	 mov	 eax, DWORD PTR [ebx+4]
  00036	89 45 94	 mov	 DWORD PTR _pNode$1$[ebp], eax
  00039	85 c0		 test	 eax, eax
  0003b	0f 84 5e 01 00
	00		 je	 $LN82@Serialize
$LL4@Serialize:

; 1178 : 		{
; 1179 : 			ASSERT(AfxIsValidAddress(pNode, sizeof(CNode)));
; 1180 : 			TYPE* pData;
; 1181 : 			/*
; 1182 : 			 * in some cases the & operator might be overloaded, and we cannot use it to obtain
; 1183 : 			 * the address of a given object.  We then use the following trick to get the address
; 1184 : 			 */
; 1185 : 			pData = reinterpret_cast< TYPE* >( &reinterpret_cast< int& >( static_cast< TYPE& >( pNode->data ) ) );

  00041	8d 70 08	 lea	 esi, DWORD PTR [eax+8]

; 68   : 	ENSURE(nCount == 0 || pElements != NULL);

  00044	85 f6		 test	 esi, esi
  00046	0f 84 6f 01 00
	00		 je	 $LN71@Serialize
; File C:\Program Files (x86)\Microsoft Visual Studio\2019\Community\VC\Tools\MSVC\14.29.30133\atlmfc\include\afx.inl

; 212  : 	{ return (m_nMode & CArchive::load) == 0; }

  0004c	8b 4d 90	 mov	 ecx, DWORD PTR _ar$GSCopy$1$[ebp]
  0004f	8b 41 18	 mov	 eax, DWORD PTR [ecx+24]
  00052	f7 d0		 not	 eax
  00054	a8 01		 test	 al, 1
; File C:\Program Files (x86)\Microsoft Visual Studio\2019\Community\VC\Tools\MSVC\14.29.30133\atlmfc\include\afxtempl.h

; 73   : 	if (ar.IsStoring())

  00056	74 2f		 je	 SHORT $LN21@Serialize

; 74   : 	{
; 75   : 		TYPE* pData;
; 76   : 		UINT_PTR nElementsLeft;
; 77   : 
; 78   : 		nElementsLeft = nCount;

  00058	b8 01 00 00 00	 mov	 eax, 1
  0005d	89 45 8c	 mov	 DWORD PTR _nElementsLeft$1$[ebp], eax
$LL16@Serialize:

; 80   : 		while( nElementsLeft > 0 )
; 81   : 		{
; 82   : 			UINT nElementsToWrite;
; 83   : 
; 84   : 			nElementsToWrite = UINT(__min(nElementsLeft, INT_MAX/sizeof(TYPE)));

  00060	bb 14 ae 47 01	 mov	 ebx, 21474836		; 0147ae14H
  00065	3b c3		 cmp	 eax, ebx
  00067	0f 42 d8	 cmovb	 ebx, eax

; 85   : 			ar.Write(pData, nElementsToWrite*sizeof(TYPE));

  0006a	6b fb 64	 imul	 edi, ebx, 100
  0006d	57		 push	 edi
  0006e	56		 push	 esi
  0006f	e8 00 00 00 00	 call	 ?Write@CArchive@@QAEXPBXI@Z ; CArchive::Write

; 86   : 			nElementsLeft -= nElementsToWrite;

  00074	8b 45 8c	 mov	 eax, DWORD PTR _nElementsLeft$1$[ebp]

; 87   : 			pData += nElementsToWrite;

  00077	03 f7		 add	 esi, edi
  00079	8b 4d 90	 mov	 ecx, DWORD PTR _ar$GSCopy$1$[ebp]
  0007c	2b c3		 sub	 eax, ebx
  0007e	89 45 8c	 mov	 DWORD PTR _nElementsLeft$1$[ebp], eax
  00081	85 c0		 test	 eax, eax
  00083	75 db		 jne	 SHORT $LL16@Serialize

; 88   : 		}
; 89   : 	}

  00085	eb 34		 jmp	 SHORT $LN2@Serialize
$LN21@Serialize:

; 90   : 	else
; 91   : 	{
; 92   : 		TYPE* pData;
; 93   : 		UINT_PTR nElementsLeft;
; 94   : 
; 95   : 		nElementsLeft = nCount;

  00087	bf 01 00 00 00	 mov	 edi, 1
  0008c	0f 1f 40 00	 npad	 4
$LL18@Serialize:

; 98   : 		{
; 99   : 			UINT nElementsToRead;
; 100  : 
; 101  : 			nElementsToRead = UINT(__min(nElementsLeft, INT_MAX/sizeof(TYPE)));

  00090	bb 14 ae 47 01	 mov	 ebx, 21474836		; 0147ae14H
  00095	3b fb		 cmp	 edi, ebx
  00097	0f 42 df	 cmovb	 ebx, edi

; 102  : 			ar.EnsureRead(pData, nElementsToRead*sizeof(TYPE));

  0009a	6b c3 64	 imul	 eax, ebx, 100
; File C:\Program Files (x86)\Microsoft Visual Studio\2019\Community\VC\Tools\MSVC\14.29.30133\atlmfc\include\afx.inl

; 399  : 	UINT nRead=Read(lpBuf, nCount);

  0009d	50		 push	 eax
  0009e	56		 push	 esi
; File C:\Program Files (x86)\Microsoft Visual Studio\2019\Community\VC\Tools\MSVC\14.29.30133\atlmfc\include\afxtempl.h

; 102  : 			ar.EnsureRead(pData, nElementsToRead*sizeof(TYPE));

  0009f	89 45 8c	 mov	 DWORD PTR _nCount$1$[ebp], eax
; File C:\Program Files (x86)\Microsoft Visual Studio\2019\Community\VC\Tools\MSVC\14.29.30133\atlmfc\include\afx.inl

; 399  : 	UINT nRead=Read(lpBuf, nCount);

  000a2	e8 00 00 00 00	 call	 ?Read@CArchive@@QAEIPAXI@Z ; CArchive::Read

; 400  : 	if(nRead!=nCount)

  000a7	8b 4d 8c	 mov	 ecx, DWORD PTR _nCount$1$[ebp]
  000aa	3b c1		 cmp	 eax, ecx
  000ac	0f 85 00 01 00
	00		 jne	 $LN70@Serialize
; File C:\Program Files (x86)\Microsoft Visual Studio\2019\Community\VC\Tools\MSVC\14.29.30133\atlmfc\include\afxtempl.h

; 97   : 		while( nElementsLeft > 0 )

  000b2	03 f1		 add	 esi, ecx
  000b4	8b 4d 90	 mov	 ecx, DWORD PTR _ar$GSCopy$1$[ebp]

; 103  : 			nElementsLeft -= nElementsToRead;

  000b7	2b fb		 sub	 edi, ebx
  000b9	75 d5		 jne	 SHORT $LL18@Serialize
$LN2@Serialize:

; 1177 : 		for (CNode* pNode = m_pNodeHead; pNode != NULL; pNode = pNode->pNext)

  000bb	8b 45 94	 mov	 eax, DWORD PTR _pNode$1$[ebp]
  000be	8b 00		 mov	 eax, DWORD PTR [eax]
  000c0	89 45 94	 mov	 DWORD PTR _pNode$1$[ebp], eax
  000c3	85 c0		 test	 eax, eax
  000c5	0f 85 76 ff ff
	ff		 jne	 $LL4@Serialize

; 1197 : 		}
; 1198 : 	}
; 1199 : }

  000cb	5f		 pop	 edi
  000cc	5e		 pop	 esi
  000cd	5b		 pop	 ebx
  000ce	8b 4d fc	 mov	 ecx, DWORD PTR __$ArrayPad$[ebp]
  000d1	33 cd		 xor	 ecx, ebp
  000d3	e8 00 00 00 00	 call	 @__security_check_cookie@4
  000d8	8b e5		 mov	 esp, ebp
  000da	5d		 pop	 ebp
  000db	c2 04 00	 ret	 4
$LN7@Serialize:

; 1186 : 			SerializeElements<TYPE>(ar, pData, 1);
; 1187 : 		}
; 1188 : 	}
; 1189 : 	else
; 1190 : 	{
; 1191 : 		DWORD_PTR nNewCount = ar.ReadCount();

  000de	e8 00 00 00 00	 call	 ?ReadCount@CArchive@@QAEKXZ ; CArchive::ReadCount

; 1192 : 		while (nNewCount--)

  000e3	85 c0		 test	 eax, eax
  000e5	0f 84 b4 00 00
	00		 je	 $LN82@Serialize
  000eb	0f 1f 44 00 00	 npad	 5
$LL5@Serialize:
  000f0	48		 dec	 eax
  000f1	89 45 88	 mov	 DWORD PTR _nNewCount$1$[ebp], eax
; File D:\git\src\IBK\IBK_DRFN\ProjSrc\SrcDrfn\Chart\comparechart\define\ChartMsgDef.h

; 1520 : 		for (int i=0; i < 12; i++)

  000f4	33 c0		 xor	 eax, eax
  000f6	66 66 0f 1f 84
	00 00 00 00 00	 npad	 10
$LL40@Serialize:

; 1521 : 		{
; 1522 : 			nInfo[i] = 0;

  00100	c7 44 85 98 00
	00 00 00	 mov	 DWORD PTR _newData$1[ebp+eax*4], 0

; 1523 : 			nYear[i] = 0;

  00108	c7 44 85 c8 00
	00 00 00	 mov	 DWORD PTR _newData$1[ebp+eax*4+48], 0
  00110	40		 inc	 eax
  00111	83 f8 0c	 cmp	 eax, 12			; 0000000cH
  00114	7c ea		 jl	 SHORT $LL40@Serialize
; File C:\Program Files (x86)\Microsoft Visual Studio\2019\Community\VC\Tools\MSVC\14.29.30133\atlmfc\include\afx.inl

; 212  : 	{ return (m_nMode & CArchive::load) == 0; }

  00116	8b 4d 90	 mov	 ecx, DWORD PTR _ar$GSCopy$1$[ebp]
; File D:\git\src\IBK\IBK_DRFN\ProjSrc\SrcDrfn\Chart\comparechart\define\ChartMsgDef.h

; 1526 : 		memset(szPCode, 0x00, sizeof(szPCode)); // 0024696:    

  00119	c7 45 f8 00 00
	00 00		 mov	 DWORD PTR _newData$1[ebp+96], 0
; File C:\Program Files (x86)\Microsoft Visual Studio\2019\Community\VC\Tools\MSVC\14.29.30133\atlmfc\include\afx.inl

; 212  : 	{ return (m_nMode & CArchive::load) == 0; }

  00120	8b 41 18	 mov	 eax, DWORD PTR [ecx+24]
  00123	f7 d0		 not	 eax
  00125	a8 01		 test	 al, 1
; File C:\Program Files (x86)\Microsoft Visual Studio\2019\Community\VC\Tools\MSVC\14.29.30133\atlmfc\include\afxtempl.h

; 73   : 	if (ar.IsStoring())

  00127	74 30		 je	 SHORT $LN51@Serialize

; 79   : 		pData = pElements;

  00129	8d 45 98	 lea	 eax, DWORD PTR _newData$1[ebp]
  0012c	bb 01 00 00 00	 mov	 ebx, 1
  00131	89 45 94	 mov	 DWORD PTR _pData$1$[ebp], eax
$LL46@Serialize:

; 80   : 		while( nElementsLeft > 0 )
; 81   : 		{
; 82   : 			UINT nElementsToWrite;
; 83   : 
; 84   : 			nElementsToWrite = UINT(__min(nElementsLeft, INT_MAX/sizeof(TYPE)));

  00134	bf 14 ae 47 01	 mov	 edi, 21474836		; 0147ae14H
  00139	3b df		 cmp	 ebx, edi
  0013b	0f 42 fb	 cmovb	 edi, ebx

; 85   : 			ar.Write(pData, nElementsToWrite*sizeof(TYPE));

  0013e	6b f7 64	 imul	 esi, edi, 100
  00141	56		 push	 esi
  00142	50		 push	 eax
  00143	e8 00 00 00 00	 call	 ?Write@CArchive@@QAEXPBXI@Z ; CArchive::Write

; 87   : 			pData += nElementsToWrite;

  00148	8b 45 94	 mov	 eax, DWORD PTR _pData$1$[ebp]
  0014b	8b 4d 90	 mov	 ecx, DWORD PTR _ar$GSCopy$1$[ebp]
  0014e	03 c6		 add	 eax, esi
  00150	89 45 94	 mov	 DWORD PTR _pData$1$[ebp], eax
  00153	2b df		 sub	 ebx, edi
  00155	75 dd		 jne	 SHORT $LL46@Serialize

; 88   : 		}
; 89   : 	}

  00157	eb 2f		 jmp	 SHORT $LN49@Serialize
$LN51@Serialize:

; 90   : 	else
; 91   : 	{
; 92   : 		TYPE* pData;
; 93   : 		UINT_PTR nElementsLeft;
; 94   : 
; 95   : 		nElementsLeft = nCount;

  00159	be 01 00 00 00	 mov	 esi, 1

; 96   : 		pData = pElements;

  0015e	8d 5d 98	 lea	 ebx, DWORD PTR _newData$1[ebp]
$LL48@Serialize:

; 98   : 		{
; 99   : 			UINT nElementsToRead;
; 100  : 
; 101  : 			nElementsToRead = UINT(__min(nElementsLeft, INT_MAX/sizeof(TYPE)));

  00161	bf 14 ae 47 01	 mov	 edi, 21474836		; 0147ae14H
  00166	3b f7		 cmp	 esi, edi
  00168	0f 42 fe	 cmovb	 edi, esi

; 102  : 			ar.EnsureRead(pData, nElementsToRead*sizeof(TYPE));

  0016b	6b c7 64	 imul	 eax, edi, 100
; File C:\Program Files (x86)\Microsoft Visual Studio\2019\Community\VC\Tools\MSVC\14.29.30133\atlmfc\include\afx.inl

; 399  : 	UINT nRead=Read(lpBuf, nCount);

  0016e	50		 push	 eax
  0016f	53		 push	 ebx
; File C:\Program Files (x86)\Microsoft Visual Studio\2019\Community\VC\Tools\MSVC\14.29.30133\atlmfc\include\afxtempl.h

; 102  : 			ar.EnsureRead(pData, nElementsToRead*sizeof(TYPE));

  00170	89 45 94	 mov	 DWORD PTR _nCount$1$[ebp], eax
; File C:\Program Files (x86)\Microsoft Visual Studio\2019\Community\VC\Tools\MSVC\14.29.30133\atlmfc\include\afx.inl

; 399  : 	UINT nRead=Read(lpBuf, nCount);

  00173	e8 00 00 00 00	 call	 ?Read@CArchive@@QAEIPAXI@Z ; CArchive::Read

; 400  : 	if(nRead!=nCount)

  00178	8b 4d 94	 mov	 ecx, DWORD PTR _nCount$1$[ebp]
  0017b	3b c1		 cmp	 eax, ecx
  0017d	75 33		 jne	 SHORT $LN70@Serialize
; File C:\Program Files (x86)\Microsoft Visual Studio\2019\Community\VC\Tools\MSVC\14.29.30133\atlmfc\include\afxtempl.h

; 97   : 		while( nElementsLeft > 0 )

  0017f	03 d9		 add	 ebx, ecx
  00181	8b 4d 90	 mov	 ecx, DWORD PTR _ar$GSCopy$1$[ebp]

; 103  : 			nElementsLeft -= nElementsToRead;

  00184	2b f7		 sub	 esi, edi
  00186	75 d9		 jne	 SHORT $LL48@Serialize
$LN49@Serialize:

; 1193 : 		{
; 1194 : 			TYPE newData[1];
; 1195 : 			SerializeElements<TYPE>(ar, newData, 1);
; 1196 : 			AddTail(newData[0]);

  00188	8b 4d 8c	 mov	 ecx, DWORD PTR _this$GSCopy$1$[ebp]
  0018b	8d 45 98	 lea	 eax, DWORD PTR _newData$1[ebp]
  0018e	50		 push	 eax
  0018f	e8 00 00 00 00	 call	 ?AddTail@?$CList@U_codeinfo@@AAU1@@@QAEPAU__POSITION@@AAU_codeinfo@@@Z ; CList<_codeinfo,_codeinfo &>::AddTail
  00194	8b 45 88	 mov	 eax, DWORD PTR _nNewCount$1$[ebp]
  00197	85 c0		 test	 eax, eax
  00199	0f 85 51 ff ff
	ff		 jne	 $LL5@Serialize
$LN82@Serialize:

; 1197 : 		}
; 1198 : 	}
; 1199 : }

  0019f	8b 4d fc	 mov	 ecx, DWORD PTR __$ArrayPad$[ebp]
  001a2	5f		 pop	 edi
  001a3	5e		 pop	 esi
  001a4	33 cd		 xor	 ecx, ebp
  001a6	5b		 pop	 ebx
  001a7	e8 00 00 00 00	 call	 @__security_check_cookie@4
  001ac	8b e5		 mov	 esp, ebp
  001ae	5d		 pop	 ebp
  001af	c2 04 00	 ret	 4
$LN70@Serialize:
  001b2	6a 00		 push	 0
  001b4	6a 03		 push	 3
  001b6	e8 00 00 00 00	 call	 ?AfxThrowArchiveException@@YGXHPBD@Z ; AfxThrowArchiveException
$LN71@Serialize:

; 68   : 	ENSURE(nCount == 0 || pElements != NULL);

  001bb	e8 00 00 00 00	 call	 ?AfxThrowInvalidArgException@@YGXXZ ; AfxThrowInvalidArgException
$LN103@Serialize:
  001c0	cc		 int	 3
?Serialize@?$CList@U_codeinfo@@AAU1@@@UAEXAAVCArchive@@@Z ENDP ; CList<_codeinfo,_codeinfo &>::Serialize
_TEXT	ENDS
; Function compile flags: /Ogtp
; File C:\Program Files (x86)\Microsoft Visual Studio\2019\Community\VC\Tools\MSVC\14.29.30133\atlmfc\include\afxtempl.h
;	COMDAT ??1?$CList@U_codeinfo@@AAU1@@@UAE@XZ
_TEXT	SEGMENT
__$EHRec$ = -12						; size = 12
??1?$CList@U_codeinfo@@AAU1@@@UAE@XZ PROC		; CList<_codeinfo,_codeinfo &>::~CList<_codeinfo,_codeinfo &>, COMDAT
; _this$ = ecx

; 878  : {

  00000	55		 push	 ebp
  00001	8b ec		 mov	 ebp, esp
  00003	6a ff		 push	 -1
  00005	68 00 00 00 00	 push	 __ehhandler$??1?$CList@U_codeinfo@@AAU1@@@UAE@XZ
  0000a	64 a1 00 00 00
	00		 mov	 eax, DWORD PTR fs:0
  00010	50		 push	 eax
  00011	56		 push	 esi
  00012	a1 00 00 00 00	 mov	 eax, DWORD PTR ___security_cookie
  00017	33 c5		 xor	 eax, ebp
  00019	50		 push	 eax
  0001a	8d 45 f4	 lea	 eax, DWORD PTR __$EHRec$[ebp]
  0001d	64 a3 00 00 00
	00		 mov	 DWORD PTR fs:0, eax
  00023	8b f1		 mov	 esi, ecx

; 872  : 	m_pBlocks->FreeDataChain();

  00025	8b 4e 14	 mov	 ecx, DWORD PTR [esi+20]

; 878  : {

  00028	c7 06 00 00 00
	00		 mov	 DWORD PTR [esi], OFFSET ??_7?$CList@U_codeinfo@@AAU1@@@6B@

; 870  : 	m_nCount = 0;

  0002e	c7 46 0c 00 00
	00 00		 mov	 DWORD PTR [esi+12], 0

; 871  : 	m_pNodeHead = m_pNodeTail = m_pNodeFree = NULL;

  00035	c7 46 10 00 00
	00 00		 mov	 DWORD PTR [esi+16], 0
  0003c	c7 46 08 00 00
	00 00		 mov	 DWORD PTR [esi+8], 0
  00043	c7 46 04 00 00
	00 00		 mov	 DWORD PTR [esi+4], 0

; 872  : 	m_pBlocks->FreeDataChain();

  0004a	e8 00 00 00 00	 call	 ?FreeDataChain@CPlex@@QAEXXZ ; CPlex::FreeDataChain

; 873  : 	m_pBlocks = NULL;

  0004f	c7 46 14 00 00
	00 00		 mov	 DWORD PTR [esi+20], 0

; 879  : 	RemoveAll();
; 880  : 	ASSERT(m_nCount == 0);
; 881  : }

  00056	8b 4d f4	 mov	 ecx, DWORD PTR __$EHRec$[ebp]
  00059	64 89 0d 00 00
	00 00		 mov	 DWORD PTR fs:0, ecx
  00060	59		 pop	 ecx
  00061	5e		 pop	 esi
  00062	8b e5		 mov	 esp, ebp
  00064	5d		 pop	 ebp
  00065	c3		 ret	 0
  00066	cc		 int	 3
  00067	cc		 int	 3
  00068	cc		 int	 3
  00069	cc		 int	 3
  0006a	cc		 int	 3
_TEXT	ENDS
;	COMDAT text$x
text$x	SEGMENT
__ehhandler$??1?$CList@U_codeinfo@@AAU1@@@UAE@XZ:
  00000	90		 npad	 1
  00001	90		 npad	 1
  00002	8b 54 24 08	 mov	 edx, DWORD PTR [esp+8]
  00006	8d 42 0c	 lea	 eax, DWORD PTR [edx+12]
  00009	8b 4a f8	 mov	 ecx, DWORD PTR [edx-8]
  0000c	33 c8		 xor	 ecx, eax
  0000e	e8 00 00 00 00	 call	 @__security_check_cookie@4
  00013	b8 00 00 00 00	 mov	 eax, OFFSET __ehfuncinfo$??1?$CList@U_codeinfo@@AAU1@@@UAE@XZ
  00018	e9 00 00 00 00	 jmp	 ___CxxFrameHandler3
text$x	ENDS
??1?$CList@U_codeinfo@@AAU1@@@UAE@XZ ENDP		; CList<_codeinfo,_codeinfo &>::~CList<_codeinfo,_codeinfo &>
; Function compile flags: /Ogtp
; File C:\Program Files (x86)\Microsoft Visual Studio\2019\Community\VC\Tools\MSVC\14.29.30133\atlmfc\include\afxtempl.h
; File D:\git\src\IBK\IBK_DRFN\ProjSrc\SrcDrfn\Chart\comparechart\define\ChartMsgDef.h
; File C:\Program Files (x86)\Microsoft Visual Studio\2019\Community\VC\Tools\MSVC\14.29.30133\atlmfc\include\afxtempl.h
;	COMDAT ?NewNode@?$CList@U_codeinfo@@AAU1@@@IAEPAUCNode@1@PAU21@0@Z
_TEXT	SEGMENT
_pPrev$ = 8						; size = 4
_pNext$ = 12						; size = 4
?NewNode@?$CList@U_codeinfo@@AAU1@@@IAEPAUCNode@1@PAU21@0@Z PROC ; CList<_codeinfo,_codeinfo &>::NewNode, COMDAT
; _this$ = ecx

; 901  : {

  00000	55		 push	 ebp
  00001	8b ec		 mov	 ebp, esp
  00003	56		 push	 esi
  00004	8b f1		 mov	 esi, ecx

; 902  : 	if (m_pNodeFree == NULL)

  00006	83 7e 10 00	 cmp	 DWORD PTR [esi+16], 0
  0000a	75 34		 jne	 SHORT $LN7@NewNode

; 903  : 	{
; 904  : 		// add another block
; 905  : 		CPlex* pNewBlock = CPlex::Create(m_pBlocks, m_nBlockSize,

  0000c	6a 6c		 push	 108			; 0000006cH
  0000e	ff 76 18	 push	 DWORD PTR [esi+24]
  00011	8d 46 14	 lea	 eax, DWORD PTR [esi+20]
  00014	50		 push	 eax
  00015	e8 00 00 00 00	 call	 ?Create@CPlex@@SGPAU1@AAPAU1@II@Z ; CPlex::Create

; 906  : 				 sizeof(CNode));
; 907  : 
; 908  : 		// chain them into free list
; 909  : 		CNode* pNode = (CNode*) pNewBlock->data();
; 910  : 		// free in reverse order to make it easier to debug
; 911  : 		pNode += m_nBlockSize - 1;

  0001a	8b 56 18	 mov	 edx, DWORD PTR [esi+24]
  0001d	83 c0 08	 add	 eax, 8
  00020	6b ca 6c	 imul	 ecx, edx, 108
  00023	83 c1 94	 add	 ecx, -108		; ffffff94H
  00026	03 c8		 add	 ecx, eax

; 912  : 		for (INT_PTR i = m_nBlockSize-1; i >= 0; i--, pNode--)

  00028	83 c2 ff	 add	 edx, -1
  0002b	78 13		 js	 SHORT $LN7@NewNode
  0002d	0f 1f 00	 npad	 3
$LL4@NewNode:

; 913  : 		{
; 914  : 			pNode->pNext = m_pNodeFree;

  00030	8b 46 10	 mov	 eax, DWORD PTR [esi+16]
  00033	89 01		 mov	 DWORD PTR [ecx], eax

; 915  : 			m_pNodeFree = pNode;

  00035	89 4e 10	 mov	 DWORD PTR [esi+16], ecx
  00038	83 e9 6c	 sub	 ecx, 108		; 0000006cH
  0003b	83 ea 01	 sub	 edx, 1
  0003e	79 f0		 jns	 SHORT $LL4@NewNode
$LN7@NewNode:

; 916  : 		}
; 917  : 	}
; 918  : 	ENSURE(m_pNodeFree != NULL);  // we must have something

  00040	8b 56 10	 mov	 edx, DWORD PTR [esi+16]
  00043	85 d2		 test	 edx, edx
  00045	74 3c		 je	 SHORT $LN26@NewNode

; 919  : 
; 920  : 	CList::CNode* pNode = m_pNodeFree;
; 921  : 	m_pNodeFree = m_pNodeFree->pNext;

  00047	8b 02		 mov	 eax, DWORD PTR [edx]
  00049	89 46 10	 mov	 DWORD PTR [esi+16], eax

; 922  : 	pNode->pPrev = pPrev;

  0004c	8b 45 08	 mov	 eax, DWORD PTR _pPrev$[ebp]
  0004f	89 42 04	 mov	 DWORD PTR [edx+4], eax

; 923  : 	pNode->pNext = pNext;

  00052	8b 45 0c	 mov	 eax, DWORD PTR _pNext$[ebp]
  00055	89 02		 mov	 DWORD PTR [edx], eax

; 924  : 	m_nCount++;

  00057	ff 46 0c	 inc	 DWORD PTR [esi+12]
  0005a	33 c9		 xor	 ecx, ecx
  0005c	5e		 pop	 esi
  0005d	0f 1f 00	 npad	 3
$LL14@NewNode:
; File D:\git\src\IBK\IBK_DRFN\ProjSrc\SrcDrfn\Chart\comparechart\define\ChartMsgDef.h

; 1522 : 			nInfo[i] = 0;

  00060	c7 44 8a 08 00
	00 00 00	 mov	 DWORD PTR [edx+ecx*4+8], 0

; 1523 : 			nYear[i] = 0;

  00068	c7 44 8a 38 00
	00 00 00	 mov	 DWORD PTR [edx+ecx*4+56], 0
  00070	41		 inc	 ecx
  00071	83 f9 0c	 cmp	 ecx, 12			; 0000000cH
  00074	7c ea		 jl	 SHORT $LL14@NewNode

; 1524 : 		}
; 1525 : 
; 1526 : 		memset(szPCode, 0x00, sizeof(szPCode)); // 0024696:    

  00076	c7 42 68 00 00
	00 00		 mov	 DWORD PTR [edx+104], 0
; File C:\Program Files (x86)\Microsoft Visual Studio\2019\Community\VC\Tools\MSVC\14.29.30133\atlmfc\include\afxtempl.h

; 931  : 	return pNode;

  0007d	8b c2		 mov	 eax, edx

; 932  : }

  0007f	5d		 pop	 ebp
  00080	c2 08 00	 ret	 8
$LN26@NewNode:

; 916  : 		}
; 917  : 	}
; 918  : 	ENSURE(m_pNodeFree != NULL);  // we must have something

  00083	e8 00 00 00 00	 call	 ?AfxThrowInvalidArgException@@YGXXZ ; AfxThrowInvalidArgException
$LN24@NewNode:
  00088	cc		 int	 3
?NewNode@?$CList@U_codeinfo@@AAU1@@@IAEPAUCNode@1@PAU21@0@Z ENDP ; CList<_codeinfo,_codeinfo &>::NewNode
_TEXT	ENDS
; Function compile flags: /Ogtp
; File C:\Program Files (x86)\Microsoft Visual Studio\2019\Community\VC\Tools\MSVC\14.29.30133\atlmfc\include\afxtempl.h
;	COMDAT ?RemoveAll@?$CList@U_codeinfo@@AAU1@@@QAEXXZ
_TEXT	SEGMENT
?RemoveAll@?$CList@U_codeinfo@@AAU1@@@QAEXXZ PROC	; CList<_codeinfo,_codeinfo &>::RemoveAll, COMDAT
; _this$ = ecx

; 862  : {

  00000	56		 push	 esi
  00001	8b f1		 mov	 esi, ecx

; 863  : 	ASSERT_VALID(this);
; 864  : 
; 865  : 	// destroy elements
; 866  : 	CNode* pNode;
; 867  : 	for (pNode = m_pNodeHead; pNode != NULL; pNode = pNode->pNext)
; 868  : 		pNode->data.~TYPE();
; 869  : 
; 870  : 	m_nCount = 0;
; 871  : 	m_pNodeHead = m_pNodeTail = m_pNodeFree = NULL;
; 872  : 	m_pBlocks->FreeDataChain();

  00003	8b 4e 14	 mov	 ecx, DWORD PTR [esi+20]
  00006	c7 46 0c 00 00
	00 00		 mov	 DWORD PTR [esi+12], 0
  0000d	c7 46 10 00 00
	00 00		 mov	 DWORD PTR [esi+16], 0
  00014	c7 46 08 00 00
	00 00		 mov	 DWORD PTR [esi+8], 0
  0001b	c7 46 04 00 00
	00 00		 mov	 DWORD PTR [esi+4], 0
  00022	e8 00 00 00 00	 call	 ?FreeDataChain@CPlex@@QAEXXZ ; CPlex::FreeDataChain

; 873  : 	m_pBlocks = NULL;

  00027	c7 46 14 00 00
	00 00		 mov	 DWORD PTR [esi+20], 0
  0002e	5e		 pop	 esi

; 874  : }

  0002f	c3		 ret	 0
?RemoveAll@?$CList@U_codeinfo@@AAU1@@@QAEXXZ ENDP	; CList<_codeinfo,_codeinfo &>::RemoveAll
_TEXT	ENDS
; Function compile flags: /Ogtp
; File C:\Program Files (x86)\Microsoft Visual Studio\2019\Community\VC\Tools\MSVC\14.29.30133\atlmfc\include\afxtempl.h
; File D:\git\src\IBK\IBK_DRFN\ProjSrc\SrcDrfn\Chart\comparechart\define\ChartMsgDef.h
; File C:\Program Files (x86)\Microsoft Visual Studio\2019\Community\VC\Tools\MSVC\14.29.30133\atlmfc\include\afxtempl.h
; File D:\git\src\IBK\IBK_DRFN\ProjSrc\SrcDrfn\Chart\comparechart\define\ChartMsgDef.h
; File C:\Program Files (x86)\Microsoft Visual Studio\2019\Community\VC\Tools\MSVC\14.29.30133\atlmfc\include\afxtempl.h
;	COMDAT ?AddTail@?$CList@U_codeinfo@@AAU1@@@QAEPAU__POSITION@@AAU_codeinfo@@@Z
_TEXT	SEGMENT
_newElement$ = 8					; size = 4
?AddTail@?$CList@U_codeinfo@@AAU1@@@QAEPAU__POSITION@@AAU_codeinfo@@@Z PROC ; CList<_codeinfo,_codeinfo &>::AddTail, COMDAT
; _this$ = ecx

; 965  : {

  00000	55		 push	 ebp
  00001	8b ec		 mov	 ebp, esp
  00003	53		 push	 ebx
  00004	8b d9		 mov	 ebx, ecx
  00006	56		 push	 esi

; 902  : 	if (m_pNodeFree == NULL)

  00007	83 7b 10 00	 cmp	 DWORD PTR [ebx+16], 0

; 966  : 	ASSERT_VALID(this);
; 967  : 
; 968  : 	CNode* pNewNode = NewNode(m_pNodeTail, NULL);

  0000b	8b 73 08	 mov	 esi, DWORD PTR [ebx+8]

; 902  : 	if (m_pNodeFree == NULL)

  0000e	75 31		 jne	 SHORT $LN11@AddTail

; 903  : 	{
; 904  : 		// add another block
; 905  : 		CPlex* pNewBlock = CPlex::Create(m_pBlocks, m_nBlockSize,

  00010	6a 6c		 push	 108			; 0000006cH
  00012	ff 73 18	 push	 DWORD PTR [ebx+24]
  00015	8d 43 14	 lea	 eax, DWORD PTR [ebx+20]
  00018	50		 push	 eax
  00019	e8 00 00 00 00	 call	 ?Create@CPlex@@SGPAU1@AAPAU1@II@Z ; CPlex::Create

; 906  : 				 sizeof(CNode));
; 907  : 
; 908  : 		// chain them into free list
; 909  : 		CNode* pNode = (CNode*) pNewBlock->data();
; 910  : 		// free in reverse order to make it easier to debug
; 911  : 		pNode += m_nBlockSize - 1;

  0001e	8b 53 18	 mov	 edx, DWORD PTR [ebx+24]
  00021	83 c0 08	 add	 eax, 8
  00024	6b ca 6c	 imul	 ecx, edx, 108
  00027	83 c1 94	 add	 ecx, -108		; ffffff94H
  0002a	03 c8		 add	 ecx, eax

; 912  : 		for (INT_PTR i = m_nBlockSize-1; i >= 0; i--, pNode--)

  0002c	83 c2 ff	 add	 edx, -1
  0002f	78 10		 js	 SHORT $LN11@AddTail
$LL8@AddTail:

; 913  : 		{
; 914  : 			pNode->pNext = m_pNodeFree;

  00031	8b 43 10	 mov	 eax, DWORD PTR [ebx+16]
  00034	89 01		 mov	 DWORD PTR [ecx], eax

; 915  : 			m_pNodeFree = pNode;

  00036	89 4b 10	 mov	 DWORD PTR [ebx+16], ecx
  00039	83 e9 6c	 sub	 ecx, 108		; 0000006cH
  0003c	83 ea 01	 sub	 edx, 1
  0003f	79 f0		 jns	 SHORT $LL8@AddTail
$LN11@AddTail:

; 916  : 		}
; 917  : 	}
; 918  : 	ENSURE(m_pNodeFree != NULL);  // we must have something

  00041	8b 53 10	 mov	 edx, DWORD PTR [ebx+16]
  00044	85 d2		 test	 edx, edx
  00046	74 61		 je	 SHORT $LN31@AddTail

; 919  : 
; 920  : 	CList::CNode* pNode = m_pNodeFree;
; 921  : 	m_pNodeFree = m_pNodeFree->pNext;

  00048	8b 02		 mov	 eax, DWORD PTR [edx]
  0004a	89 43 10	 mov	 DWORD PTR [ebx+16], eax

; 922  : 	pNode->pPrev = pPrev;

  0004d	89 72 04	 mov	 DWORD PTR [edx+4], esi

; 923  : 	pNode->pNext = pNext;

  00050	c7 02 00 00 00
	00		 mov	 DWORD PTR [edx], 0

; 924  : 	m_nCount++;

  00056	ff 43 0c	 inc	 DWORD PTR [ebx+12]
  00059	33 c0		 xor	 eax, eax
  0005b	57		 push	 edi

; 925  : 	ASSERT(m_nCount > 0);  // make sure we don't overflow
; 926  : 
; 927  : #pragma push_macro("new")
; 928  : #undef new
; 929  : 	::new( (void*)( &pNode->data ) ) TYPE;

  0005c	8d 7a 08	 lea	 edi, DWORD PTR [edx+8]
  0005f	90		 npad	 1
$LL18@AddTail:
; File D:\git\src\IBK\IBK_DRFN\ProjSrc\SrcDrfn\Chart\comparechart\define\ChartMsgDef.h

; 1522 : 			nInfo[i] = 0;

  00060	c7 04 87 00 00
	00 00		 mov	 DWORD PTR [edi+eax*4], 0

; 1523 : 			nYear[i] = 0;

  00067	c7 44 87 30 00
	00 00 00	 mov	 DWORD PTR [edi+eax*4+48], 0
  0006f	40		 inc	 eax
  00070	83 f8 0c	 cmp	 eax, 12			; 0000000cH
  00073	7c eb		 jl	 SHORT $LL18@AddTail
; File C:\Program Files (x86)\Microsoft Visual Studio\2019\Community\VC\Tools\MSVC\14.29.30133\atlmfc\include\afxtempl.h

; 969  : 	pNewNode->data = newElement;

  00075	8b 75 08	 mov	 esi, DWORD PTR _newElement$[ebp]
  00078	b9 19 00 00 00	 mov	 ecx, 25			; 00000019H
; File D:\git\src\IBK\IBK_DRFN\ProjSrc\SrcDrfn\Chart\comparechart\define\ChartMsgDef.h

; 1526 : 		memset(szPCode, 0x00, sizeof(szPCode)); // 0024696:    

  0007d	c7 47 60 00 00
	00 00		 mov	 DWORD PTR [edi+96], 0
; File C:\Program Files (x86)\Microsoft Visual Studio\2019\Community\VC\Tools\MSVC\14.29.30133\atlmfc\include\afxtempl.h

; 969  : 	pNewNode->data = newElement;

  00084	f3 a5		 rep movsd

; 970  : 	if (m_pNodeTail != NULL)

  00086	8b 43 08	 mov	 eax, DWORD PTR [ebx+8]
  00089	5f		 pop	 edi
  0008a	85 c0		 test	 eax, eax
  0008c	74 0d		 je	 SHORT $LN2@AddTail

; 971  : 		m_pNodeTail->pNext = pNewNode;

  0008e	89 10		 mov	 DWORD PTR [eax], edx

; 972  : 	else
; 973  : 		m_pNodeHead = pNewNode;
; 974  : 	m_pNodeTail = pNewNode;
; 975  : 	return (POSITION) pNewNode;

  00090	8b c2		 mov	 eax, edx
  00092	5e		 pop	 esi
  00093	89 53 08	 mov	 DWORD PTR [ebx+8], edx
  00096	5b		 pop	 ebx

; 976  : }

  00097	5d		 pop	 ebp
  00098	c2 04 00	 ret	 4
$LN2@AddTail:

; 972  : 	else
; 973  : 		m_pNodeHead = pNewNode;
; 974  : 	m_pNodeTail = pNewNode;
; 975  : 	return (POSITION) pNewNode;

  0009b	5e		 pop	 esi
  0009c	89 53 04	 mov	 DWORD PTR [ebx+4], edx
  0009f	8b c2		 mov	 eax, edx
  000a1	89 53 08	 mov	 DWORD PTR [ebx+8], edx
  000a4	5b		 pop	 ebx

; 976  : }

  000a5	5d		 pop	 ebp
  000a6	c2 04 00	 ret	 4
$LN31@AddTail:

; 918  : 	ENSURE(m_pNodeFree != NULL);  // we must have something

  000a9	e8 00 00 00 00	 call	 ?AfxThrowInvalidArgException@@YGXXZ ; AfxThrowInvalidArgException
$LN29@AddTail:
  000ae	cc		 int	 3
?AddTail@?$CList@U_codeinfo@@AAU1@@@QAEPAU__POSITION@@AAU_codeinfo@@@Z ENDP ; CList<_codeinfo,_codeinfo &>::AddTail
_TEXT	ENDS
; Function compile flags: /Ogtp
; File C:\Program Files (x86)\Microsoft Visual Studio\2019\Community\VC\Tools\MSVC\14.29.30133\atlmfc\include\afxtempl.h
;	COMDAT ??0?$CList@U_codeinfo@@AAU1@@@QAE@H@Z
_TEXT	SEGMENT
_nBlockSize$ = 8					; size = 4
??0?$CList@U_codeinfo@@AAU1@@@QAE@H@Z PROC		; CList<_codeinfo,_codeinfo &>::CList<_codeinfo,_codeinfo &>, COMDAT
; _this$ = ecx

; 851  : {

  00000	55		 push	 ebp
  00001	8b ec		 mov	 ebp, esp

; 852  : 	ASSERT(nBlockSize > 0);
; 853  : 
; 854  : 	m_nCount = 0;
; 855  : 	m_pNodeHead = m_pNodeTail = m_pNodeFree = NULL;
; 856  : 	m_pBlocks = NULL;
; 857  : 	m_nBlockSize = nBlockSize;

  00003	8b 45 08	 mov	 eax, DWORD PTR _nBlockSize$[ebp]
  00006	89 41 18	 mov	 DWORD PTR [ecx+24], eax

; 858  : }

  00009	8b c1		 mov	 eax, ecx
  0000b	c7 01 00 00 00
	00		 mov	 DWORD PTR [ecx], OFFSET ??_7?$CList@U_codeinfo@@AAU1@@@6B@
  00011	c7 41 0c 00 00
	00 00		 mov	 DWORD PTR [ecx+12], 0
  00018	c7 41 10 00 00
	00 00		 mov	 DWORD PTR [ecx+16], 0
  0001f	c7 41 08 00 00
	00 00		 mov	 DWORD PTR [ecx+8], 0
  00026	c7 41 04 00 00
	00 00		 mov	 DWORD PTR [ecx+4], 0
  0002d	c7 41 14 00 00
	00 00		 mov	 DWORD PTR [ecx+20], 0
  00034	5d		 pop	 ebp
  00035	c2 04 00	 ret	 4
??0?$CList@U_codeinfo@@AAU1@@@QAE@H@Z ENDP		; CList<_codeinfo,_codeinfo &>::CList<_codeinfo,_codeinfo &>
_TEXT	ENDS
; Function compile flags: /Ogtp
; File D:\git\src\IBK\IBK_DRFN\ProjSrc\SrcDrfn\Chart\comparechart\TabCodeSearchFO.cpp
; File C:\Program Files (x86)\Microsoft Visual Studio\2019\Community\VC\Tools\MSVC\14.29.30133\atlmfc\include\afxwin2.inl
; File D:\git\src\IBK\IBK_DRFN\ProjSrc\SrcDrfn\Chart\comparechart\TabCodeSearchFO.cpp
; File C:\Program Files (x86)\Microsoft Visual Studio\2019\Community\VC\Tools\MSVC\14.29.30133\atlmfc\include\afxwin2.inl
; File D:\git\src\IBK\IBK_DRFN\ProjSrc\SrcDrfn\Chart\comparechart\TabCodeSearchFO.cpp
; File C:\Program Files (x86)\Microsoft Visual Studio\2019\Community\VC\Tools\MSVC\14.29.30133\atlmfc\include\afxwin2.inl
; File D:\git\src\IBK\IBK_DRFN\ProjSrc\SrcDrfn\Chart\comparechart\TabCodeSearchFO.cpp
; File C:\Program Files (x86)\Microsoft Visual Studio\2019\Community\VC\Tools\MSVC\14.29.30133\atlmfc\include\afxwin2.inl
; File D:\git\src\IBK\IBK_DRFN\ProjSrc\SrcDrfn\Chart\comparechart\TabCodeSearchFO.cpp
; File C:\Program Files (x86)\Microsoft Visual Studio\2019\Community\VC\Tools\MSVC\14.29.30133\atlmfc\include\afxwin2.inl
; File D:\git\src\IBK\IBK_DRFN\ProjSrc\SrcDrfn\Chart\comparechart\TabCodeSearchFO.cpp
; File C:\Program Files (x86)\Microsoft Visual Studio\2019\Community\VC\Tools\MSVC\14.29.30133\atlmfc\include\afxwin2.inl
; File D:\git\src\IBK\IBK_DRFN\ProjSrc\SrcDrfn\Chart\comparechart\TabCodeSearchFO.cpp
; File C:\Program Files (x86)\Microsoft Visual Studio\2019\Community\VC\Tools\MSVC\14.29.30133\atlmfc\include\afxwin2.inl
; File D:\git\src\IBK\IBK_DRFN\ProjSrc\SrcDrfn\Chart\comparechart\TabCodeSearchFO.cpp
; File C:\Program Files (x86)\Microsoft Visual Studio\2019\Community\VC\Tools\MSVC\14.29.30133\atlmfc\include\afxwin2.inl
; File C:\Program Files (x86)\Microsoft Visual Studio\2019\Community\VC\Tools\MSVC\14.29.30133\atlmfc\include\afxtempl.h
; File D:\git\src\IBK\IBK_DRFN\ProjSrc\SrcDrfn\Chart\comparechart\TabCodeSearchFO.cpp
; File D:\git\src\IBK\IBK_DRFN\ProjSrc\SrcDrfn\Chart\comparechart\define\ChartMsgDef.h
; File D:\git\src\IBK\IBK_DRFN\ProjSrc\SrcDrfn\Chart\comparechart\TabCodeSearchFO.cpp
; File D:\git\src\IBK\IBK_DRFN\ProjSrc\SrcDrfn\Chart\comparechart\define\ChartMsgDef.h
; File D:\git\src\IBK\IBK_DRFN\ProjSrc\SrcDrfn\Chart\comparechart\TabCodeSearchFO.cpp
;	COMDAT ??0CTabCodeSearchFO@@QAE@PAVCWnd@@@Z
_TEXT	SEGMENT
_this$ = -16						; size = 4
__$EHRec$ = -12						; size = 12
_this$ = 8						; size = 4
_this$ = 8						; size = 4
_this$ = 8						; size = 4
_this$ = 8						; size = 4
_pParent$ = 8						; size = 4
??0CTabCodeSearchFO@@QAE@PAVCWnd@@@Z PROC		; CTabCodeSearchFO::CTabCodeSearchFO, COMDAT
; _this$ = ecx

; 29   : {

  00000	55		 push	 ebp
  00001	8b ec		 mov	 ebp, esp
  00003	6a ff		 push	 -1
  00005	68 00 00 00 00	 push	 __ehhandler$??0CTabCodeSearchFO@@QAE@PAVCWnd@@@Z
  0000a	64 a1 00 00 00
	00		 mov	 eax, DWORD PTR fs:0
  00010	50		 push	 eax
  00011	51		 push	 ecx
  00012	53		 push	 ebx
  00013	56		 push	 esi
  00014	57		 push	 edi
  00015	a1 00 00 00 00	 mov	 eax, DWORD PTR ___security_cookie
  0001a	33 c5		 xor	 eax, ebp
  0001c	50		 push	 eax
  0001d	8d 45 f4	 lea	 eax, DWORD PTR __$EHRec$[ebp]
  00020	64 a3 00 00 00
	00		 mov	 DWORD PTR fs:0, eax
  00026	8b d9		 mov	 ebx, ecx
  00028	89 5d f0	 mov	 DWORD PTR _this$[ebp], ebx

; 28   : 	: CTabDlg(CTabCodeSearchFO::IDD, pParent)

  0002b	ff 75 08	 push	 DWORD PTR _pParent$[ebp]
  0002e	68 e7 2e 00 00	 push	 12007			; 00002ee7H
  00033	e8 00 00 00 00	 call	 ??0CTabDlg@@QAE@IPAVCWnd@@@Z ; CTabDlg::CTabDlg

; 29   : {

  00038	6a 00		 push	 0
  0003a	8d 8b d0 00 00
	00		 lea	 ecx, DWORD PTR [ebx+208]
  00040	c7 45 fc 00 00
	00 00		 mov	 DWORD PTR __$EHRec$[ebp+8], 0
  00047	c7 03 00 00 00
	00		 mov	 DWORD PTR [ebx], OFFSET ??_7CTabCodeSearchFO@@6B@
  0004d	e8 00 00 00 00	 call	 ??0CExComboBox@@QAE@H@Z	; CExComboBox::CExComboBox
  00052	6a 00		 push	 0
  00054	8d 8b 58 01 00
	00		 lea	 ecx, DWORD PTR [ebx+344]
  0005a	c6 45 fc 01	 mov	 BYTE PTR __$EHRec$[ebp+8], 1
  0005e	e8 00 00 00 00	 call	 ??0CExComboBox@@QAE@H@Z	; CExComboBox::CExComboBox
  00063	8d b3 e0 01 00
	00		 lea	 esi, DWORD PTR [ebx+480]
  00069	c6 45 fc 02	 mov	 BYTE PTR __$EHRec$[ebp+8], 2
; File C:\Program Files (x86)\Microsoft Visual Studio\2019\Community\VC\Tools\MSVC\14.29.30133\atlmfc\include\afxwin2.inl

; 662  : 	{ }

  0006d	8b ce		 mov	 ecx, esi
; File D:\git\src\IBK\IBK_DRFN\ProjSrc\SrcDrfn\Chart\comparechart\TabCodeSearchFO.cpp

; 29   : {

  0006f	89 75 08	 mov	 DWORD PTR _this$[ebp], esi
; File C:\Program Files (x86)\Microsoft Visual Studio\2019\Community\VC\Tools\MSVC\14.29.30133\atlmfc\include\afxwin2.inl

; 662  : 	{ }

  00072	e8 00 00 00 00	 call	 ??0CWnd@@QAE@XZ		; CWnd::CWnd
  00077	c7 06 00 00 00
	00		 mov	 DWORD PTR [esi], OFFSET ??_7CListBox@@6B@
; File D:\git\src\IBK\IBK_DRFN\ProjSrc\SrcDrfn\Chart\comparechart\TabCodeSearchFO.cpp

; 29   : {

  0007d	8d b3 60 02 00
	00		 lea	 esi, DWORD PTR [ebx+608]
  00083	c6 45 fc 03	 mov	 BYTE PTR __$EHRec$[ebp+8], 3
; File C:\Program Files (x86)\Microsoft Visual Studio\2019\Community\VC\Tools\MSVC\14.29.30133\atlmfc\include\afxwin2.inl

; 622  : 	{ }

  00087	8b ce		 mov	 ecx, esi
; File D:\git\src\IBK\IBK_DRFN\ProjSrc\SrcDrfn\Chart\comparechart\TabCodeSearchFO.cpp

; 29   : {

  00089	89 75 08	 mov	 DWORD PTR _this$[ebp], esi
; File C:\Program Files (x86)\Microsoft Visual Studio\2019\Community\VC\Tools\MSVC\14.29.30133\atlmfc\include\afxwin2.inl

; 622  : 	{ }

  0008c	e8 00 00 00 00	 call	 ??0CWnd@@QAE@XZ		; CWnd::CWnd
  00091	c7 06 00 00 00
	00		 mov	 DWORD PTR [esi], OFFSET ??_7CButton@@6B@
; File D:\git\src\IBK\IBK_DRFN\ProjSrc\SrcDrfn\Chart\comparechart\TabCodeSearchFO.cpp

; 29   : {

  00097	8d b3 e0 02 00
	00		 lea	 esi, DWORD PTR [ebx+736]
  0009d	c6 45 fc 04	 mov	 BYTE PTR __$EHRec$[ebp+8], 4
; File C:\Program Files (x86)\Microsoft Visual Studio\2019\Community\VC\Tools\MSVC\14.29.30133\atlmfc\include\afxwin2.inl

; 622  : 	{ }

  000a1	8b ce		 mov	 ecx, esi
; File D:\git\src\IBK\IBK_DRFN\ProjSrc\SrcDrfn\Chart\comparechart\TabCodeSearchFO.cpp

; 29   : {

  000a3	89 75 08	 mov	 DWORD PTR _this$[ebp], esi
; File C:\Program Files (x86)\Microsoft Visual Studio\2019\Community\VC\Tools\MSVC\14.29.30133\atlmfc\include\afxwin2.inl

; 622  : 	{ }

  000a6	e8 00 00 00 00	 call	 ??0CWnd@@QAE@XZ		; CWnd::CWnd
  000ab	c7 06 00 00 00
	00		 mov	 DWORD PTR [esi], OFFSET ??_7CButton@@6B@
; File D:\git\src\IBK\IBK_DRFN\ProjSrc\SrcDrfn\Chart\comparechart\TabCodeSearchFO.cpp

; 29   : {

  000b1	8d b3 60 03 00
	00		 lea	 esi, DWORD PTR [ebx+864]
  000b7	c6 45 fc 05	 mov	 BYTE PTR __$EHRec$[ebp+8], 5
; File C:\Program Files (x86)\Microsoft Visual Studio\2019\Community\VC\Tools\MSVC\14.29.30133\atlmfc\include\afxwin2.inl

; 622  : 	{ }

  000bb	8b ce		 mov	 ecx, esi
; File D:\git\src\IBK\IBK_DRFN\ProjSrc\SrcDrfn\Chart\comparechart\TabCodeSearchFO.cpp

; 29   : {

  000bd	89 75 08	 mov	 DWORD PTR _this$[ebp], esi
; File C:\Program Files (x86)\Microsoft Visual Studio\2019\Community\VC\Tools\MSVC\14.29.30133\atlmfc\include\afxwin2.inl

; 622  : 	{ }

  000c0	e8 00 00 00 00	 call	 ??0CWnd@@QAE@XZ		; CWnd::CWnd
  000c5	c7 06 00 00 00
	00		 mov	 DWORD PTR [esi], OFFSET ??_7CButton@@6B@
; File C:\Program Files (x86)\Microsoft Visual Studio\2019\Community\VC\Tools\MSVC\14.29.30133\atlmfc\include\afxtempl.h

; 851  : {

  000cb	c7 83 e4 03 00
	00 00 00 00 00	 mov	 DWORD PTR [ebx+996], OFFSET ??_7?$CList@U_codeinfo@@AAU1@@@6B@

; 852  : 	ASSERT(nBlockSize > 0);
; 853  : 
; 854  : 	m_nCount = 0;

  000d5	c7 83 f0 03 00
	00 00 00 00 00	 mov	 DWORD PTR [ebx+1008], 0

; 855  : 	m_pNodeHead = m_pNodeTail = m_pNodeFree = NULL;

  000df	c7 83 f4 03 00
	00 00 00 00 00	 mov	 DWORD PTR [ebx+1012], 0
  000e9	c7 83 ec 03 00
	00 00 00 00 00	 mov	 DWORD PTR [ebx+1004], 0
  000f3	c7 83 e8 03 00
	00 00 00 00 00	 mov	 DWORD PTR [ebx+1000], 0

; 856  : 	m_pBlocks = NULL;

  000fd	c7 83 f8 03 00
	00 00 00 00 00	 mov	 DWORD PTR [ebx+1016], 0

; 857  : 	m_nBlockSize = nBlockSize;

  00107	c7 83 fc 03 00
	00 0a 00 00 00	 mov	 DWORD PTR [ebx+1020], 10 ; 0000000aH
; File D:\git\src\IBK\IBK_DRFN\ProjSrc\SrcDrfn\Chart\comparechart\TabCodeSearchFO.cpp

; 29   : {

  00111	c6 45 fc 07	 mov	 BYTE PTR __$EHRec$[ebp+8], 7
  00115	33 c0		 xor	 eax, eax
  00117	66 0f 1f 84 00
	00 00 00 00	 npad	 9
$LL32@CTabCodeSe:
; File D:\git\src\IBK\IBK_DRFN\ProjSrc\SrcDrfn\Chart\comparechart\define\ChartMsgDef.h

; 1522 : 			nInfo[i] = 0;

  00120	c7 84 83 00 04
	00 00 00 00 00
	00		 mov	 DWORD PTR [ebx+eax*4+1024], 0

; 1523 : 			nYear[i] = 0;

  0012b	c7 84 83 30 04
	00 00 00 00 00
	00		 mov	 DWORD PTR [ebx+eax*4+1072], 0
  00136	40		 inc	 eax
  00137	83 f8 0c	 cmp	 eax, 12			; 0000000cH
  0013a	7c e4		 jl	 SHORT $LL32@CTabCodeSe
; File D:\git\src\IBK\IBK_DRFN\ProjSrc\SrcDrfn\Chart\comparechart\TabCodeSearchFO.cpp

; 29   : {

  0013c	ff 35 00 00 00
	00		 push	 DWORD PTR __imp_??1?$CStringT@DV?$StrTraitMFC_DLL@DV?$ChTraitsCRT@D@ATL@@@@@ATL@@QAE@XZ
  00142	8d 83 64 04 00
	00		 lea	 eax, DWORD PTR [ebx+1124]
; File D:\git\src\IBK\IBK_DRFN\ProjSrc\SrcDrfn\Chart\comparechart\define\ChartMsgDef.h

; 1526 : 		memset(szPCode, 0x00, sizeof(szPCode)); // 0024696:    

  00148	c7 83 60 04 00
	00 00 00 00 00	 mov	 DWORD PTR [ebx+1120], 0
; File D:\git\src\IBK\IBK_DRFN\ProjSrc\SrcDrfn\Chart\comparechart\TabCodeSearchFO.cpp

; 29   : {

  00152	ff 35 00 00 00
	00		 push	 DWORD PTR __imp_??0?$CStringT@DV?$StrTraitMFC_DLL@DV?$ChTraitsCRT@D@ATL@@@@@ATL@@QAE@XZ
  00158	6a 0c		 push	 12			; 0000000cH
  0015a	6a 04		 push	 4
  0015c	50		 push	 eax
  0015d	e8 00 00 00 00	 call	 ??_L@YGXPAXIIP6EX0@Z1@Z
  00162	8d 8b e0 04 00
	00		 lea	 ecx, DWORD PTR [ebx+1248]
  00168	ff 15 00 00 00
	00		 call	 DWORD PTR __imp_??0?$CStringT@DV?$StrTraitMFC_DLL@DV?$ChTraitsCRT@D@ATL@@@@@ATL@@QAE@XZ
  0016e	8d 8b e4 04 00
	00		 lea	 ecx, DWORD PTR [ebx+1252]
  00174	ff 15 00 00 00
	00		 call	 DWORD PTR __imp_??0?$CStringT@DV?$StrTraitMFC_DLL@DV?$ChTraitsCRT@D@ATL@@@@@ATL@@QAE@XZ
  0017a	8d 8b e8 04 00
	00		 lea	 ecx, DWORD PTR [ebx+1256]
  00180	ff 15 00 00 00
	00		 call	 DWORD PTR __imp_??0?$CStringT@DV?$StrTraitMFC_DLL@DV?$ChTraitsCRT@D@ATL@@@@@ATL@@QAE@XZ

; 30   : 	//{{AFX_DATA_INIT(CTabCodeSearchFO)
; 31   : 		// NOTE: the ClassWizard will add member initialization here
; 32   : 	m_pGridCtrl = NULL;
; 33   : 	m_nIndex = 1;
; 34   : 	m_strCodeNName = "";

  00186	68 00 00 00 00	 push	 OFFSET ??_C@_00CNPNBAHC@@
  0018b	8d 8b e0 04 00
	00		 lea	 ecx, DWORD PTR [ebx+1248]
  00191	c6 45 fc 0b	 mov	 BYTE PTR __$EHRec$[ebp+8], 11 ; 0000000bH
  00195	c7 83 e0 03 00
	00 00 00 00 00	 mov	 DWORD PTR [ebx+992], 0
  0019f	c7 83 d4 04 00
	00 01 00 00 00	 mov	 DWORD PTR [ebx+1236], 1
  001a9	ff 15 00 00 00
	00		 call	 DWORD PTR __imp_??4?$CStringT@DV?$StrTraitMFC_DLL@DV?$ChTraitsCRT@D@ATL@@@@@ATL@@QAEAAV01@PBD@Z

; 35   : 	m_strSelCodeNName = "";

  001af	68 00 00 00 00	 push	 OFFSET ??_C@_00CNPNBAHC@@
  001b4	8d 8b e8 04 00
	00		 lea	 ecx, DWORD PTR [ebx+1256]
  001ba	ff 15 00 00 00
	00		 call	 DWORD PTR __imp_??4?$CStringT@DV?$StrTraitMFC_DLL@DV?$ChTraitsCRT@D@ATL@@@@@ATL@@QAEAAV01@PBD@Z

; 36   : 
; 37   : 	//m_nRadioSel = 1;
; 38   : 	//}}AFX_DATA_INIT
; 39   : }

  001c0	8b c3		 mov	 eax, ebx
  001c2	8b 4d f4	 mov	 ecx, DWORD PTR __$EHRec$[ebp]
  001c5	64 89 0d 00 00
	00 00		 mov	 DWORD PTR fs:0, ecx
  001cc	59		 pop	 ecx
  001cd	5f		 pop	 edi
  001ce	5e		 pop	 esi
  001cf	5b		 pop	 ebx
  001d0	8b e5		 mov	 esp, ebp
  001d2	5d		 pop	 ebp
  001d3	c2 04 00	 ret	 4
_TEXT	ENDS
;	COMDAT text$x
text$x	SEGMENT
__unwindfunclet$??0CTabCodeSearchFO@@QAE@PAVCWnd@@@Z$0:
  00000	8b 4d f0	 mov	 ecx, DWORD PTR _this$[ebp]
  00003	e9 00 00 00 00	 jmp	 ??1CTabDlg@@UAE@XZ	; CTabDlg::~CTabDlg
__unwindfunclet$??0CTabCodeSearchFO@@QAE@PAVCWnd@@@Z$1:
  00008	8b 4d f0	 mov	 ecx, DWORD PTR _this$[ebp]
  0000b	81 c1 d0 00 00
	00		 add	 ecx, 208		; 000000d0H
  00011	e9 00 00 00 00	 jmp	 ??1CExComboBox@@UAE@XZ	; CExComboBox::~CExComboBox
__unwindfunclet$??0CTabCodeSearchFO@@QAE@PAVCWnd@@@Z$2:
  00016	8b 4d f0	 mov	 ecx, DWORD PTR _this$[ebp]
  00019	81 c1 58 01 00
	00		 add	 ecx, 344		; 00000158H
  0001f	e9 00 00 00 00	 jmp	 ??1CExComboBox@@UAE@XZ	; CExComboBox::~CExComboBox
__unwindfunclet$??0CTabCodeSearchFO@@QAE@PAVCWnd@@@Z$3:
  00024	8b 4d f0	 mov	 ecx, DWORD PTR _this$[ebp]
  00027	81 c1 e0 01 00
	00		 add	 ecx, 480		; 000001e0H
  0002d	e9 00 00 00 00	 jmp	 ??1CListBox@@UAE@XZ	; CListBox::~CListBox
__unwindfunclet$??0CTabCodeSearchFO@@QAE@PAVCWnd@@@Z$4:
  00032	8b 4d f0	 mov	 ecx, DWORD PTR _this$[ebp]
  00035	81 c1 60 02 00
	00		 add	 ecx, 608		; 00000260H
  0003b	e9 00 00 00 00	 jmp	 ??1CButton@@UAE@XZ	; CButton::~CButton
__unwindfunclet$??0CTabCodeSearchFO@@QAE@PAVCWnd@@@Z$5:
  00040	8b 4d f0	 mov	 ecx, DWORD PTR _this$[ebp]
  00043	81 c1 e0 02 00
	00		 add	 ecx, 736		; 000002e0H
  00049	e9 00 00 00 00	 jmp	 ??1CButton@@UAE@XZ	; CButton::~CButton
__unwindfunclet$??0CTabCodeSearchFO@@QAE@PAVCWnd@@@Z$6:
  0004e	8b 4d f0	 mov	 ecx, DWORD PTR _this$[ebp]
  00051	81 c1 60 03 00
	00		 add	 ecx, 864		; 00000360H
  00057	e9 00 00 00 00	 jmp	 ??1CButton@@UAE@XZ	; CButton::~CButton
__unwindfunclet$??0CTabCodeSearchFO@@QAE@PAVCWnd@@@Z$7:
  0005c	8b 4d f0	 mov	 ecx, DWORD PTR _this$[ebp]
  0005f	81 c1 e4 03 00
	00		 add	 ecx, 996		; 000003e4H
  00065	e9 00 00 00 00	 jmp	 ??1?$CList@U_codeinfo@@AAU1@@@UAE@XZ ; CList<_codeinfo,_codeinfo &>::~CList<_codeinfo,_codeinfo &>
__unwindfunclet$??0CTabCodeSearchFO@@QAE@PAVCWnd@@@Z$8:
  0006a	a1 00 00 00 00	 mov	 eax, DWORD PTR __imp_??1?$CStringT@DV?$StrTraitMFC_DLL@DV?$ChTraitsCRT@D@ATL@@@@@ATL@@QAE@XZ
  0006f	50		 push	 eax
  00070	6a 0c		 push	 12			; 0000000cH
  00072	6a 04		 push	 4
  00074	8b 45 f0	 mov	 eax, DWORD PTR _this$[ebp]
  00077	05 64 04 00 00	 add	 eax, 1124		; 00000464H
  0007c	50		 push	 eax
  0007d	e8 00 00 00 00	 call	 ??_M@YGXPAXIIP6EX0@Z@Z
  00082	c3		 ret	 0
__unwindfunclet$??0CTabCodeSearchFO@@QAE@PAVCWnd@@@Z$9:
  00083	8b 4d f0	 mov	 ecx, DWORD PTR _this$[ebp]
  00086	81 c1 e0 04 00
	00		 add	 ecx, 1248		; 000004e0H
  0008c	ff 25 00 00 00
	00		 jmp	 DWORD PTR __imp_??1?$CStringT@DV?$StrTraitMFC_DLL@DV?$ChTraitsCRT@D@ATL@@@@@ATL@@QAE@XZ
__unwindfunclet$??0CTabCodeSearchFO@@QAE@PAVCWnd@@@Z$10:
  00092	8b 4d f0	 mov	 ecx, DWORD PTR _this$[ebp]
  00095	81 c1 e4 04 00
	00		 add	 ecx, 1252		; 000004e4H
  0009b	ff 25 00 00 00
	00		 jmp	 DWORD PTR __imp_??1?$CStringT@DV?$StrTraitMFC_DLL@DV?$ChTraitsCRT@D@ATL@@@@@ATL@@QAE@XZ
__unwindfunclet$??0CTabCodeSearchFO@@QAE@PAVCWnd@@@Z$11:
  000a1	8b 4d f0	 mov	 ecx, DWORD PTR _this$[ebp]
  000a4	81 c1 e8 04 00
	00		 add	 ecx, 1256		; 000004e8H
  000aa	ff 25 00 00 00
	00		 jmp	 DWORD PTR __imp_??1?$CStringT@DV?$StrTraitMFC_DLL@DV?$ChTraitsCRT@D@ATL@@@@@ATL@@QAE@XZ
  000b0	cc		 int	 3
  000b1	cc		 int	 3
  000b2	cc		 int	 3
  000b3	cc		 int	 3
  000b4	cc		 int	 3
__ehhandler$??0CTabCodeSearchFO@@QAE@PAVCWnd@@@Z:
  000b5	90		 npad	 1
  000b6	90		 npad	 1
  000b7	8b 54 24 08	 mov	 edx, DWORD PTR [esp+8]
  000bb	8d 42 0c	 lea	 eax, DWORD PTR [edx+12]
  000be	8b 4a ec	 mov	 ecx, DWORD PTR [edx-20]
  000c1	33 c8		 xor	 ecx, eax
  000c3	e8 00 00 00 00	 call	 @__security_check_cookie@4
  000c8	b8 00 00 00 00	 mov	 eax, OFFSET __ehfuncinfo$??0CTabCodeSearchFO@@QAE@PAVCWnd@@@Z
  000cd	e9 00 00 00 00	 jmp	 ___CxxFrameHandler3
text$x	ENDS
??0CTabCodeSearchFO@@QAE@PAVCWnd@@@Z ENDP		; CTabCodeSearchFO::CTabCodeSearchFO
; Function compile flags: /Ogtp
; File D:\git\src\IBK\IBK_DRFN\ProjSrc\SrcDrfn\Chart\comparechart\define\ChartMsgDef.h
;	COMDAT ??0_codeinfo@@QAE@XZ
_TEXT	SEGMENT
??0_codeinfo@@QAE@XZ PROC				; _codeinfo::_codeinfo, COMDAT
; _this$ = ecx

; 1519 : 	{
; 1520 : 		for (int i=0; i < 12; i++)

  00000	33 c0		 xor	 eax, eax
  00002	0f 1f 40 00 66
	66 0f 1f 84 00
	00 00 00 00	 npad	 14
$LL4@codeinfo:

; 1521 : 		{
; 1522 : 			nInfo[i] = 0;

  00010	c7 04 81 00 00
	00 00		 mov	 DWORD PTR [ecx+eax*4], 0

; 1523 : 			nYear[i] = 0;

  00017	c7 44 81 30 00
	00 00 00	 mov	 DWORD PTR [ecx+eax*4+48], 0
  0001f	40		 inc	 eax
  00020	83 f8 0c	 cmp	 eax, 12			; 0000000cH
  00023	7c eb		 jl	 SHORT $LL4@codeinfo

; 1524 : 		}
; 1525 : 
; 1526 : 		memset(szPCode, 0x00, sizeof(szPCode)); // 0024696:    

  00025	c7 41 60 00 00
	00 00		 mov	 DWORD PTR [ecx+96], 0

; 1527 : 	}

  0002c	8b c1		 mov	 eax, ecx
  0002e	c3		 ret	 0
??0_codeinfo@@QAE@XZ ENDP				; _codeinfo::_codeinfo
_TEXT	ENDS
; Function compile flags: /Ogtp
; File D:\git\src\IBK\IBK_DRFN\ProjSrc\SrcDrfn\Chart\comparechart\define\ChartMsgDef.h
;	COMDAT ??__ERMSG_CHANGE_CROSSLINE@@YAXXZ
text$di	SEGMENT
??__ERMSG_CHANGE_CROSSLINE@@YAXXZ PROC			; `dynamic initializer for 'RMSG_CHANGE_CROSSLINE'', COMDAT

; 216  : const UINT RMSG_CHANGE_CROSSLINE = ::RegisterWindowMessage(_T("RMSG_CHANGE_CROSSLINE"));

  00000	68 00 00 00 00	 push	 OFFSET ??_C@_0BG@LNLCJKPF@RMSG_CHANGE_CROSSLINE@
  00005	ff 15 00 00 00
	00		 call	 DWORD PTR __imp__RegisterWindowMessageA@4
  0000b	a3 00 00 00 00	 mov	 DWORD PTR ?RMSG_CHANGE_CROSSLINE@@3IB, eax
  00010	c3		 ret	 0
??__ERMSG_CHANGE_CROSSLINE@@YAXXZ ENDP			; `dynamic initializer for 'RMSG_CHANGE_CROSSLINE''
text$di	ENDS
; Function compile flags: /Ogtp
; File D:\git\src\IBK\IBK_DRFN\ProjSrc\SrcDrfn\Chart\comparechart\define\ChartMsgDef.h
;	COMDAT ??__ERMSG_GET_SKINCOLOR@@YAXXZ
text$di	SEGMENT
??__ERMSG_GET_SKINCOLOR@@YAXXZ PROC			; `dynamic initializer for 'RMSG_GET_SKINCOLOR'', COMDAT

; 214  : const UINT RMSG_GET_SKINCOLOR = ::RegisterWindowMessage(_T("RMSG_GET_SKINCOLOR"));

  00000	68 00 00 00 00	 push	 OFFSET ??_C@_0BD@FLDNDDHK@RMSG_GET_SKINCOLOR@
  00005	ff 15 00 00 00
	00		 call	 DWORD PTR __imp__RegisterWindowMessageA@4
  0000b	a3 00 00 00 00	 mov	 DWORD PTR ?RMSG_GET_SKINCOLOR@@3IB, eax
  00010	c3		 ret	 0
??__ERMSG_GET_SKINCOLOR@@YAXXZ ENDP			; `dynamic initializer for 'RMSG_GET_SKINCOLOR''
text$di	ENDS
; Function compile flags: /Ogtp
; File D:\git\src\IBK\IBK_DRFN\ProjSrc\SrcDrfn\Chart\comparechart\define\ChartMsgDef.h
;	COMDAT ??__ERMSG_CHANGE_SKINCOLOR@@YAXXZ
text$di	SEGMENT
??__ERMSG_CHANGE_SKINCOLOR@@YAXXZ PROC			; `dynamic initializer for 'RMSG_CHANGE_SKINCOLOR'', COMDAT

; 213  : const UINT RMSG_CHANGE_SKINCOLOR = ::RegisterWindowMessage(_T("RMSG_CHANGE_SKINCOLOR"));

  00000	68 00 00 00 00	 push	 OFFSET ??_C@_0BG@CNPAHNGG@RMSG_CHANGE_SKINCOLOR@
  00005	ff 15 00 00 00
	00		 call	 DWORD PTR __imp__RegisterWindowMessageA@4
  0000b	a3 00 00 00 00	 mov	 DWORD PTR ?RMSG_CHANGE_SKINCOLOR@@3IB, eax
  00010	c3		 ret	 0
??__ERMSG_CHANGE_SKINCOLOR@@YAXXZ ENDP			; `dynamic initializer for 'RMSG_CHANGE_SKINCOLOR''
text$di	ENDS
; Function compile flags: /Ogtp
; File D:\git\src\IBK\IBK_DRFN\ProjSrc\SrcDrfn\Chart\comparechart\define\ChartMsgDef.h
;	COMDAT ??__ERMSG_GETINFO@@YAXXZ
text$di	SEGMENT
??__ERMSG_GETINFO@@YAXXZ PROC				; `dynamic initializer for 'RMSG_GETINFO'', COMDAT

; 204  : const UINT RMSG_GETINFO = ::RegisterWindowMessage(_T("RMSG_GETINFO"));

  00000	68 00 00 00 00	 push	 OFFSET ??_C@_0N@IIOKMIEH@RMSG_GETINFO@
  00005	ff 15 00 00 00
	00		 call	 DWORD PTR __imp__RegisterWindowMessageA@4
  0000b	a3 00 00 00 00	 mov	 DWORD PTR ?RMSG_GETINFO@@3IB, eax
  00010	c3		 ret	 0
??__ERMSG_GETINFO@@YAXXZ ENDP				; `dynamic initializer for 'RMSG_GETINFO''
text$di	ENDS
; Function compile flags: /Ogtp
; File D:\git\src\IBK\IBK_DRFN\ProjSrc\SrcDrfn\Chart\comparechart\define\ChartMsgDef.h
;	COMDAT ??__ERMSG_KSDLLINFO@@YAXXZ
text$di	SEGMENT
??__ERMSG_KSDLLINFO@@YAXXZ PROC				; `dynamic initializer for 'RMSG_KSDLLINFO'', COMDAT

; 203  : const UINT RMSG_KSDLLINFO = ::RegisterWindowMessage(_T("RMSG_KSDLLINFO"));		// TrmCompCharView 

  00000	68 00 00 00 00	 push	 OFFSET ??_C@_0P@LFDACNFE@RMSG_KSDLLINFO@
  00005	ff 15 00 00 00
	00		 call	 DWORD PTR __imp__RegisterWindowMessageA@4
  0000b	a3 00 00 00 00	 mov	 DWORD PTR ?RMSG_KSDLLINFO@@3IB, eax
  00010	c3		 ret	 0
??__ERMSG_KSDLLINFO@@YAXXZ ENDP				; `dynamic initializer for 'RMSG_KSDLLINFO''
text$di	ENDS
; Function compile flags: /Ogtp
; File D:\git\src\IBK\IBK_DRFN\ProjSrc\SrcDrfn\Chart\comparechart\define\ChartMsgDef.h
;	COMDAT ??__ERMSG_GET_USERID@@YAXXZ
text$di	SEGMENT
??__ERMSG_GET_USERID@@YAXXZ PROC			; `dynamic initializer for 'RMSG_GET_USERID'', COMDAT

; 200  : const UINT RMSG_GET_USERID = ::RegisterWindowMessage(_T("RMSG_GET_USERID"));	// User ID 

  00000	68 00 00 00 00	 push	 OFFSET ??_C@_0BA@HKNFENJL@RMSG_GET_USERID@
  00005	ff 15 00 00 00
	00		 call	 DWORD PTR __imp__RegisterWindowMessageA@4
  0000b	a3 00 00 00 00	 mov	 DWORD PTR ?RMSG_GET_USERID@@3IB, eax
  00010	c3		 ret	 0
??__ERMSG_GET_USERID@@YAXXZ ENDP			; `dynamic initializer for 'RMSG_GET_USERID''
text$di	ENDS
; Function compile flags: /Ogtp
; File D:\git\src\IBK\IBK_DRFN\ProjSrc\SrcDrfn\Chart\comparechart\define\ChartMsgDef.h
;	COMDAT ??__ERMS_ANALYSIS_FUNC@@YAXXZ
text$di	SEGMENT
??__ERMS_ANALYSIS_FUNC@@YAXXZ PROC			; `dynamic initializer for 'RMS_ANALYSIS_FUNC'', COMDAT

; 196  : const UINT RMS_ANALYSIS_FUNC	= ::RegisterWindowMessage(_T("RMS_ANALYSIS_FUNC"));

  00000	68 00 00 00 00	 push	 OFFSET ??_C@_0BC@MMPGLPDH@RMS_ANALYSIS_FUNC@
  00005	ff 15 00 00 00
	00		 call	 DWORD PTR __imp__RegisterWindowMessageA@4
  0000b	a3 00 00 00 00	 mov	 DWORD PTR ?RMS_ANALYSIS_FUNC@@3IB, eax
  00010	c3		 ret	 0
??__ERMS_ANALYSIS_FUNC@@YAXXZ ENDP			; `dynamic initializer for 'RMS_ANALYSIS_FUNC''
text$di	ENDS
; Function compile flags: /Ogtp
; File D:\git\src\IBK\IBK_DRFN\ProjSrc\SrcDrfn\Chart\comparechart\define\ChartMsgDef.h
;	COMDAT ??__ERMSG_CHARTMAIN@@YAXXZ
text$di	SEGMENT
??__ERMSG_CHARTMAIN@@YAXXZ PROC				; `dynamic initializer for 'RMSG_CHARTMAIN'', COMDAT

; 193  : const UINT RMSG_CHARTMAIN		= ::RegisterWindowMessage(_T("RMSG_CHARTMAIN"));

  00000	68 00 00 00 00	 push	 OFFSET ??_C@_0P@KHFCBIOH@RMSG_CHARTMAIN@
  00005	ff 15 00 00 00
	00		 call	 DWORD PTR __imp__RegisterWindowMessageA@4
  0000b	a3 00 00 00 00	 mov	 DWORD PTR ?RMSG_CHARTMAIN@@3IB, eax
  00010	c3		 ret	 0
??__ERMSG_CHARTMAIN@@YAXXZ ENDP				; `dynamic initializer for 'RMSG_CHARTMAIN''
text$di	ENDS
; Function compile flags: /Ogtp
; File D:\git\src\IBK\IBK_DRFN\ProjSrc\SrcDrfn\Chart\commontr\TRDefine.h
;	COMDAT ??__ERMSG_GETSIGNAL_REAL@@YAXXZ
text$di	SEGMENT
??__ERMSG_GETSIGNAL_REAL@@YAXXZ PROC			; `dynamic initializer for 'RMSG_GETSIGNAL_REAL'', COMDAT

; 213  : const UINT RMSG_GETSIGNAL_REAL = ::RegisterWindowMessage(_T("RMSG_GETSIGNAL_REAL"));

  00000	68 00 00 00 00	 push	 OFFSET ??_C@_0BE@FJPKENOB@RMSG_GETSIGNAL_REAL@
  00005	ff 15 00 00 00
	00		 call	 DWORD PTR __imp__RegisterWindowMessageA@4
  0000b	a3 00 00 00 00	 mov	 DWORD PTR ?RMSG_GETSIGNAL_REAL@@3IB, eax
  00010	c3		 ret	 0
??__ERMSG_GETSIGNAL_REAL@@YAXXZ ENDP			; `dynamic initializer for 'RMSG_GETSIGNAL_REAL''
text$di	ENDS
; Function compile flags: /Ogtp
;	COMDAT ??1_GV_ITEM@@QAE@XZ
_TEXT	SEGMENT
??1_GV_ITEM@@QAE@XZ PROC				; _GV_ITEM::~_GV_ITEM, COMDAT
; _this$ = ecx
  00000	83 c1 64	 add	 ecx, 100		; 00000064H
  00003	ff 25 00 00 00
	00		 jmp	 DWORD PTR __imp_??1?$CStringT@DV?$StrTraitMFC_DLL@DV?$ChTraitsCRT@D@ATL@@@@@ATL@@QAE@XZ
??1_GV_ITEM@@QAE@XZ ENDP				; _GV_ITEM::~_GV_ITEM
_TEXT	ENDS
; Function compile flags: /Ogtp
; File D:\git\src\IBK\IBK_DRFN\ProjSrc\SrcDrfn\Chart\comparechart\TabDlg.h
;	COMDAT ?SetCodeFromOutSide@CTabDlg@@UAEXPBD@Z
_TEXT	SEGMENT
_szCode$ = 8						; size = 4
?SetCodeFromOutSide@CTabDlg@@UAEXPBD@Z PROC		; CTabDlg::SetCodeFromOutSide, COMDAT
; _this$ = ecx

; 89   : 	virtual void SetCodeFromOutSide(LPCSTR szCode) {}

  00000	c2 04 00	 ret	 4
?SetCodeFromOutSide@CTabDlg@@UAEXPBD@Z ENDP		; CTabDlg::SetCodeFromOutSide
_TEXT	ENDS
; Function compile flags: /Ogtp
; File D:\git\src\IBK\IBK_DRFN\ProjSrc\SrcDrfn\Chart\comparechart\TabDlg.h
;	COMDAT ?ReceiveDataFromOutSide@CTabDlg@@UAEXXZ
_TEXT	SEGMENT
?ReceiveDataFromOutSide@CTabDlg@@UAEXXZ PROC		; CTabDlg::ReceiveDataFromOutSide, COMDAT
; _this$ = ecx

; 88   : 	virtual void ReceiveDataFromOutSide() {}

  00000	c2 00 00	 ret	 0
?ReceiveDataFromOutSide@CTabDlg@@UAEXXZ ENDP		; CTabDlg::ReceiveDataFromOutSide
_TEXT	ENDS
; Function compile flags: /Ogtp
; File D:\git\src\IBK\IBK_DRFN\ProjSrc\SrcDrfn\Chart\comparechart\TabDlg.h
;	COMDAT ?SetRealPriceData@CTabDlg@@UAEXPAX@Z
_TEXT	SEGMENT
_pData$ = 8						; size = 4
?SetRealPriceData@CTabDlg@@UAEXPAX@Z PROC		; CTabDlg::SetRealPriceData, COMDAT
; _this$ = ecx

; 87   : 	virtual void SetRealPriceData(void *pData) {}

  00000	c2 04 00	 ret	 4
?SetRealPriceData@CTabDlg@@UAEXPAX@Z ENDP		; CTabDlg::SetRealPriceData
_TEXT	ENDS
; Function compile flags: /Ogtp
; File D:\git\src\IBK\IBK_DRFN\ProjSrc\SrcDrfn\Chart\comparechart\TabDlg.h
;	COMDAT ?ReceiveData@CTabDlg@@UAEXPAUHWND__@@PBD11PAXJ@Z
_TEXT	SEGMENT
_hTrComm$ = 8						; size = 4
_szTR$ = 12						; size = 4
_szMsgCode$ = 16					; size = 4
_szMessage$ = 20					; size = 4
_aTRData$ = 24						; size = 4
_dwTRDateLen$ = 28					; size = 4
?ReceiveData@CTabDlg@@UAEXPAUHWND__@@PBD11PAXJ@Z PROC	; CTabDlg::ReceiveData, COMDAT
; _this$ = ecx

; 86   : 	virtual void ReceiveData(HWND hTrComm, LPCSTR szTR, LPCSTR szMsgCode, LPCSTR szMessage, LPVOID aTRData, long dwTRDateLen) {}

  00000	c2 18 00	 ret	 24			; 00000018H
?ReceiveData@CTabDlg@@UAEXPAUHWND__@@PBD11PAXJ@Z ENDP	; CTabDlg::ReceiveData
_TEXT	ENDS
; Function compile flags: /Ogtp
; File D:\git\src\IBK\IBK_DRFN\ProjSrc\SrcDrfn\Chart\comparechart\control\RscDlg.h
;	COMDAT ?SetBkColor@CRscDlg@@UAEXK@Z
_TEXT	SEGMENT
_crBk$ = 8						; size = 4
?SetBkColor@CRscDlg@@UAEXK@Z PROC			; CRscDlg::SetBkColor, COMDAT
; _this$ = ecx

; 24   : 	virtual void SetBkColor(COLORREF crBk) {m_crBk=crBk;}

  00000	55		 push	 ebp
  00001	8b ec		 mov	 ebp, esp
  00003	8b 45 08	 mov	 eax, DWORD PTR _crBk$[ebp]
  00006	89 81 b0 00 00
	00		 mov	 DWORD PTR [ecx+176], eax
  0000c	5d		 pop	 ebp
  0000d	c2 04 00	 ret	 4
?SetBkColor@CRscDlg@@UAEXK@Z ENDP			; CRscDlg::SetBkColor
_TEXT	ENDS
; Function compile flags: /Ogtp
; File D:\git\src\IBK\IBK_DRFN\ProjSrc\SrcDrfn\inc\IBaseDefine.h
;	COMDAT ??__ERMSG_GETPCTRDATA@@YAXXZ
text$di	SEGMENT
??__ERMSG_GETPCTRDATA@@YAXXZ PROC			; `dynamic initializer for 'RMSG_GETPCTRDATA'', COMDAT

; 171  : const UINT RMSG_GETPCTRDATA = ::RegisterWindowMessage("RMSG_GETPCTRDATA");

  00000	68 00 00 00 00	 push	 OFFSET ??_C@_0BB@GOOPDKI@RMSG_GETPCTRDATA@
  00005	ff 15 00 00 00
	00		 call	 DWORD PTR __imp__RegisterWindowMessageA@4
  0000b	a3 00 00 00 00	 mov	 DWORD PTR ?RMSG_GETPCTRDATA@@3IB, eax
  00010	c3		 ret	 0
??__ERMSG_GETPCTRDATA@@YAXXZ ENDP			; `dynamic initializer for 'RMSG_GETPCTRDATA''
text$di	ENDS
; Function compile flags: /Ogtp
; File C:\Program Files (x86)\Microsoft Visual Studio\2019\Community\VC\Tools\MSVC\14.29.30133\atlmfc\include\afxwin2.inl
;	COMDAT ?GetCurSel@CComboBox@@QBEHXZ
_TEXT	SEGMENT
?GetCurSel@CComboBox@@QBEHXZ PROC			; CComboBox::GetCurSel, COMDAT
; _this$ = ecx

; 765  : 	{ ASSERT(::IsWindow(m_hWnd)); return (int)::SendMessage(m_hWnd, CB_GETCURSEL, 0, 0); }

  00000	6a 00		 push	 0
  00002	6a 00		 push	 0
  00004	68 47 01 00 00	 push	 327			; 00000147H
  00009	ff 71 20	 push	 DWORD PTR [ecx+32]
  0000c	ff 15 00 00 00
	00		 call	 DWORD PTR __imp__SendMessageA@16
  00012	c3		 ret	 0
?GetCurSel@CComboBox@@QBEHXZ ENDP			; CComboBox::GetCurSel
_TEXT	ENDS
; Function compile flags: /Ogtp
; File C:\Program Files (x86)\Microsoft Visual Studio\2019\Community\VC\Tools\MSVC\14.29.30133\atlmfc\include\afx.inl
;	COMDAT ??_GCListBox@@UAEPAXI@Z
_TEXT	SEGMENT
___flags$ = 8						; size = 4
??_GCListBox@@UAEPAXI@Z PROC				; CListBox::`scalar deleting destructor', COMDAT
; _this$ = ecx
  00000	55		 push	 ebp
  00001	8b ec		 mov	 ebp, esp
  00003	56		 push	 esi
  00004	8b f1		 mov	 esi, ecx
  00006	e8 00 00 00 00	 call	 ??1CListBox@@UAE@XZ	; CListBox::~CListBox
  0000b	8b 45 08	 mov	 eax, DWORD PTR ___flags$[ebp]
  0000e	a8 01		 test	 al, 1
  00010	74 22		 je	 SHORT $LN9@scalar
  00012	a8 04		 test	 al, 4
  00014	75 10		 jne	 SHORT $LN3@scalar

; 112  : 	{ ::operator delete(p); }

  00016	56		 push	 esi
  00017	e8 00 00 00 00	 call	 ??3@YAXPAX@Z		; operator delete
  0001c	83 c4 04	 add	 esp, 4
  0001f	8b c6		 mov	 eax, esi
  00021	5e		 pop	 esi
  00022	5d		 pop	 ebp
  00023	c2 04 00	 ret	 4
$LN3@scalar:
  00026	68 80 00 00 00	 push	 128			; 00000080H
  0002b	56		 push	 esi
  0002c	e8 00 00 00 00	 call	 ?__global_delete@@YAXPAXI@Z ; __global_delete
  00031	83 c4 08	 add	 esp, 8
$LN9@scalar:
  00034	8b c6		 mov	 eax, esi
  00036	5e		 pop	 esi
  00037	5d		 pop	 ebp
  00038	c2 04 00	 ret	 4
??_GCListBox@@UAEPAXI@Z ENDP				; CListBox::`scalar deleting destructor'
_TEXT	ENDS
; Function compile flags: /Ogtp
; File C:\Program Files (x86)\Microsoft Visual Studio\2019\Community\VC\Tools\MSVC\14.29.30133\atlmfc\include\afx.inl
;	COMDAT ??_GCButton@@UAEPAXI@Z
_TEXT	SEGMENT
___flags$ = 8						; size = 4
??_GCButton@@UAEPAXI@Z PROC				; CButton::`scalar deleting destructor', COMDAT
; _this$ = ecx
  00000	55		 push	 ebp
  00001	8b ec		 mov	 ebp, esp
  00003	56		 push	 esi
  00004	8b f1		 mov	 esi, ecx
  00006	e8 00 00 00 00	 call	 ??1CButton@@UAE@XZ	; CButton::~CButton
  0000b	8b 45 08	 mov	 eax, DWORD PTR ___flags$[ebp]
  0000e	a8 01		 test	 al, 1
  00010	74 22		 je	 SHORT $LN9@scalar
  00012	a8 04		 test	 al, 4
  00014	75 10		 jne	 SHORT $LN3@scalar

; 112  : 	{ ::operator delete(p); }

  00016	56		 push	 esi
  00017	e8 00 00 00 00	 call	 ??3@YAXPAX@Z		; operator delete
  0001c	83 c4 04	 add	 esp, 4
  0001f	8b c6		 mov	 eax, esi
  00021	5e		 pop	 esi
  00022	5d		 pop	 ebp
  00023	c2 04 00	 ret	 4
$LN3@scalar:
  00026	68 80 00 00 00	 push	 128			; 00000080H
  0002b	56		 push	 esi
  0002c	e8 00 00 00 00	 call	 ?__global_delete@@YAXPAXI@Z ; __global_delete
  00031	83 c4 08	 add	 esp, 8
$LN9@scalar:
  00034	8b c6		 mov	 eax, esi
  00036	5e		 pop	 esi
  00037	5d		 pop	 ebp
  00038	c2 04 00	 ret	 4
??_GCButton@@UAEPAXI@Z ENDP				; CButton::`scalar deleting destructor'
_TEXT	ENDS
; Function compile flags: /Ogtp
; File C:\Program Files (x86)\Microsoft Visual Studio\2019\Community\VC\Tools\MSVC\14.29.30133\atlmfc\include\afxwin2.inl
;	COMDAT ?EndModalState@CWnd@@UAEXXZ
_TEXT	SEGMENT
?EndModalState@CWnd@@UAEXXZ PROC			; CWnd::EndModalState, COMDAT
; _this$ = ecx

; 567  : 	{ ::EnableWindow(m_hWnd, TRUE); }

  00000	6a 01		 push	 1
  00002	ff 71 20	 push	 DWORD PTR [ecx+32]
  00005	ff 15 00 00 00
	00		 call	 DWORD PTR __imp__EnableWindow@8
  0000b	c3		 ret	 0
?EndModalState@CWnd@@UAEXXZ ENDP			; CWnd::EndModalState
_TEXT	ENDS
; Function compile flags: /Ogtp
; File C:\Program Files (x86)\Microsoft Visual Studio\2019\Community\VC\Tools\MSVC\14.29.30133\atlmfc\include\afxwin2.inl
;	COMDAT ?BeginModalState@CWnd@@UAEXXZ
_TEXT	SEGMENT
?BeginModalState@CWnd@@UAEXXZ PROC			; CWnd::BeginModalState, COMDAT
; _this$ = ecx

; 565  : 	{ ::EnableWindow(m_hWnd, FALSE); }

  00000	6a 00		 push	 0
  00002	ff 71 20	 push	 DWORD PTR [ecx+32]
  00005	ff 15 00 00 00
	00		 call	 DWORD PTR __imp__EnableWindow@8
  0000b	c3		 ret	 0
?BeginModalState@CWnd@@UAEXXZ ENDP			; CWnd::BeginModalState
_TEXT	ENDS
; Function compile flags: /Ogtp
; File C:\Program Files (x86)\Microsoft Visual Studio\2019\Community\VC\Tools\MSVC\14.29.30133\atlmfc\include\afxwin2.inl
;	COMDAT ?DoDataExchange@CWnd@@MAEXPAVCDataExchange@@@Z
_TEXT	SEGMENT
___formal$ = 8						; size = 4
?DoDataExchange@CWnd@@MAEXPAVCDataExchange@@@Z PROC	; CWnd::DoDataExchange, COMDAT
; _this$ = ecx

; 561  : 	{ } // default does nothing

  00000	c2 04 00	 ret	 4
?DoDataExchange@CWnd@@MAEXPAVCDataExchange@@@Z ENDP	; CWnd::DoDataExchange
_TEXT	ENDS
; Function compile flags: /Ogtp
; File C:\Program Files (x86)\Microsoft Visual Studio\2019\Community\VC\Tools\MSVC\14.29.30133\atlmfc\include\afx.inl
;	COMDAT ?_AfxInitManaged@@YAHXZ
_TEXT	SEGMENT
?_AfxInitManaged@@YAHXZ PROC				; _AfxInitManaged, COMDAT

; 87   : 	return 0;

  00000	33 c0		 xor	 eax, eax

; 88   : }

  00002	c3		 ret	 0
?_AfxInitManaged@@YAHXZ ENDP				; _AfxInitManaged
_TEXT	ENDS
; Function compile flags: /Ogtp
; File C:\Program Files (x86)\Microsoft Visual Studio\2019\Community\VC\Tools\MSVC\14.29.30133\atlmfc\include\afx.inl
;	COMDAT ?Dump@CObject@@UBEXAAVCDumpContext@@@Z
_TEXT	SEGMENT
___formal$ = 8						; size = 4
?Dump@CObject@@UBEXAAVCDumpContext@@@Z PROC		; CObject::Dump, COMDAT
; _this$ = ecx

; 122  : 	{ /* no dumping in release builds */ }

  00000	c2 04 00	 ret	 4
?Dump@CObject@@UBEXAAVCDumpContext@@@Z ENDP		; CObject::Dump
_TEXT	ENDS
; Function compile flags: /Ogtp
; File C:\Program Files (x86)\Microsoft Visual Studio\2019\Community\VC\Tools\MSVC\14.29.30133\atlmfc\include\afx.inl
;	COMDAT ?AssertValid@CObject@@UBEXXZ
_TEXT	SEGMENT
?AssertValid@CObject@@UBEXXZ PROC			; CObject::AssertValid, COMDAT
; _this$ = ecx

; 120  : 	{ /* no asserts in release builds */ }

  00000	c2 00 00	 ret	 0
?AssertValid@CObject@@UBEXXZ ENDP			; CObject::AssertValid
_TEXT	ENDS
; Function compile flags: /Ogtp
; File C:\Program Files (x86)\Microsoft Visual Studio\2019\Community\VC\Tools\MSVC\14.29.30133\atlmfc\include\afx.inl
;	COMDAT ?Serialize@CObject@@UAEXAAVCArchive@@@Z
_TEXT	SEGMENT
___formal$ = 8						; size = 4
?Serialize@CObject@@UAEXAAVCArchive@@@Z PROC		; CObject::Serialize, COMDAT
; _this$ = ecx

; 106  : 	{ /* CObject does not serialize anything by default */ }

  00000	c2 04 00	 ret	 4
?Serialize@CObject@@UAEXAAVCArchive@@@Z ENDP		; CObject::Serialize
_TEXT	ENDS
; Function compile flags: /Ogtp
; File C:\Program Files (x86)\Microsoft Visual Studio\2019\Community\VC\Tools\MSVC\14.29.30133\atlmfc\include\afx.inl
;	COMDAT ??3CObject@@SGXPAX@Z
_TEXT	SEGMENT
_p$ = 8							; size = 4
??3CObject@@SGXPAX@Z PROC				; CObject::operator delete, COMDAT

; 112  : 	{ ::operator delete(p); }

  00000	55		 push	 ebp
  00001	8b ec		 mov	 ebp, esp
  00003	ff 75 08	 push	 DWORD PTR _p$[ebp]
  00006	e8 00 00 00 00	 call	 ??3@YAXPAX@Z		; operator delete
  0000b	83 c4 04	 add	 esp, 4
  0000e	5d		 pop	 ebp
  0000f	c2 04 00	 ret	 4
??3CObject@@SGXPAX@Z ENDP				; CObject::operator delete
_TEXT	ENDS
; Function compile flags: /Ogtp
; File C:\Program Files (x86)\Microsoft Visual Studio\2019\Community\VC\Tools\MSVC\14.29.30133\atlmfc\include\afx.inl
;	COMDAT ??1CObject@@UAE@XZ
_TEXT	SEGMENT
??1CObject@@UAE@XZ PROC					; CObject::~CObject, COMDAT
; _this$ = ecx

; 104  : 	{ }

  00000	c2 00 00	 ret	 0
??1CObject@@UAE@XZ ENDP					; CObject::~CObject
_TEXT	ENDS
; Function compile flags: /Ogtp
; File C:\Program Files (x86)\Windows Kits\10\Include\10.0.22000.0\ucrt\stdio.h
;	COMDAT _sscanf
_TEXT	SEGMENT
__Buffer$ = 8						; size = 4
__Format$ = 12						; size = 4
_sscanf	PROC						; COMDAT

; 2247 :     {

  00000	55		 push	 ebp
  00001	8b ec		 mov	 ebp, esp

; 2153 :         return __stdio_common_vsscanf(

  00003	8d 45 10	 lea	 eax, DWORD PTR __Format$[ebp+4]
  00006	50		 push	 eax
  00007	6a 00		 push	 0
  00009	ff 75 0c	 push	 DWORD PTR __Format$[ebp]
  0000c	6a ff		 push	 -1
  0000e	ff 75 08	 push	 DWORD PTR __Buffer$[ebp]
  00011	e8 00 00 00 00	 call	 ___local_stdio_scanf_options
  00016	ff 70 04	 push	 DWORD PTR [eax+4]
  00019	ff 30		 push	 DWORD PTR [eax]
  0001b	ff 15 00 00 00
	00		 call	 DWORD PTR __imp____stdio_common_vsscanf
  00021	83 c4 1c	 add	 esp, 28			; 0000001cH

; 2248 :         int _Result;
; 2249 :         va_list _ArgList;
; 2250 :         __crt_va_start(_ArgList, _Format);
; 2251 :         _Result = _vsscanf_l(_Buffer, _Format, NULL, _ArgList);
; 2252 :         __crt_va_end(_ArgList);
; 2253 :         return _Result;
; 2254 :     }

  00024	5d		 pop	 ebp
  00025	c3		 ret	 0
_sscanf	ENDP
_TEXT	ENDS
; Function compile flags: /Ogtp
; File C:\Program Files (x86)\Windows Kits\10\Include\10.0.22000.0\ucrt\corecrt_stdio_config.h
;	COMDAT ___local_stdio_scanf_options
_TEXT	SEGMENT
___local_stdio_scanf_options PROC			; COMDAT

; 101  :         static unsigned __int64 _OptionsStorage;
; 102  :         return &_OptionsStorage;

  00000	b8 00 00 00 00	 mov	 eax, OFFSET ?_OptionsStorage@?1??__local_stdio_scanf_options@@9@4_KA ; `__local_stdio_scanf_options'::`2'::_OptionsStorage

; 103  :     }

  00005	c3		 ret	 0
___local_stdio_scanf_options ENDP
_TEXT	ENDS
; Function compile flags: /Ogtp
; File D:\git\src\IBK\IBK_DRFN\ProjSrc\SrcDrfn\Chart\comparechart\TabCodeSearchFO.cpp
;	COMDAT ?__empty_global_delete@@YAXPAXI@Z
_TEXT	SEGMENT
___formal$ = 8						; size = 4
___formal$ = 12						; size = 4
?__empty_global_delete@@YAXPAXI@Z PROC			; __empty_global_delete, COMDAT

  00000	c2 00 00	 ret	 0
?__empty_global_delete@@YAXPAXI@Z ENDP			; __empty_global_delete
_TEXT	ENDS
; Function compile flags: /Ogtp
; File D:\git\src\IBK\IBK_DRFN\ProjSrc\SrcDrfn\Chart\comparechart\TabCodeSearchFO.cpp
;	COMDAT ?__empty_global_delete@@YAXPAX@Z
_TEXT	SEGMENT
___formal$ = 8						; size = 4
?__empty_global_delete@@YAXPAX@Z PROC			; __empty_global_delete, COMDAT

  00000	c2 00 00	 ret	 0
?__empty_global_delete@@YAXPAX@Z ENDP			; __empty_global_delete
_TEXT	ENDS
; Function compile flags: /Ogtp
;	COMDAT ??_H@YGXPAXIIP6EPAX0@Z@Z
_TEXT	SEGMENT
___t$ = 8						; size = 4
___s$ = 12						; size = 4
___n$ = 16						; size = 4
___f$ = 20						; size = 4
??_H@YGXPAXIIP6EPAX0@Z@Z PROC				; `vector constructor iterator', COMDAT
  00000	55		 push	 ebp
  00001	8b ec		 mov	 ebp, esp
  00003	56		 push	 esi
  00004	8b 75 10	 mov	 esi, DWORD PTR ___n$[ebp]
  00007	85 f6		 test	 esi, esi
  00009	74 16		 je	 SHORT $LN6@vector
  0000b	53		 push	 ebx
  0000c	8b 5d 14	 mov	 ebx, DWORD PTR ___f$[ebp]
  0000f	57		 push	 edi
  00010	8b 7d 08	 mov	 edi, DWORD PTR ___t$[ebp]
$LL2@vector:
  00013	8b cf		 mov	 ecx, edi
  00015	ff d3		 call	 ebx
  00017	03 7d 0c	 add	 edi, DWORD PTR ___s$[ebp]
  0001a	83 ee 01	 sub	 esi, 1
  0001d	75 f4		 jne	 SHORT $LL2@vector
  0001f	5f		 pop	 edi
  00020	5b		 pop	 ebx
$LN6@vector:
  00021	5e		 pop	 esi
  00022	5d		 pop	 ebp
  00023	c2 10 00	 ret	 16			; 00000010H
??_H@YGXPAXIIP6EPAX0@Z@Z ENDP				; `vector constructor iterator'
_TEXT	ENDS
END
