; Listing generated by Microsoft (R) Optimizing Compiler Version 19.29.30145.0 

	TITLE	D:\git\src\IBK\IBK_DRFN\#DRfn-CS\_Obj\CompareChart\TabDlgCreator.obj
	.686P
	.XMM
	include listing.inc
	.model	flat

INCLUDELIB MSVCRT
INCLUDELIB OLDNAMES

PUBLIC	??_C@_0BE@FJPKENOB@RMSG_GETSIGNAL_REAL@		; `string'
PUBLIC	??_C@_0P@KHFCBIOH@RMSG_CHARTMAIN@		; `string'
PUBLIC	??_C@_0BC@MMPGLPDH@RMS_ANALYSIS_FUNC@		; `string'
PUBLIC	??_C@_0BA@HKNFENJL@RMSG_GET_USERID@		; `string'
PUBLIC	??_C@_0P@LFDACNFE@RMSG_KSDLLINFO@		; `string'
PUBLIC	??_C@_0N@IIOKMIEH@RMSG_GETINFO@			; `string'
PUBLIC	??_C@_0BG@CNPAHNGG@RMSG_CHANGE_SKINCOLOR@	; `string'
PUBLIC	??_C@_0BD@FLDNDDHK@RMSG_GET_SKINCOLOR@		; `string'
PUBLIC	??_C@_0BG@LNLCJKPF@RMSG_CHANGE_CROSSLINE@	; `string'
PUBLIC	??_C@_0BC@LHNMEPFM@RMSG_SELCHARTCODE@		; `string'
PUBLIC	??_C@_0BB@IBKHOHJL@RMSG_REPLAY_REAL@		; `string'
PUBLIC	??_C@_0BB@JFLGBADG@RMSG_REPLAY_FAIL@		; `string'
PUBLIC	??_C@_0BI@KDGAIIMD@RMSG_REPLAY_CHANGE_DATE@	; `string'
PUBLIC	??_C@_0BA@NKHHCPON@RMSG_REPLAY_END@		; `string'
PUBLIC	??_C@_0BE@JFCIMCIP@RMSG_REPLAY_INC_SEC@		; `string'
PUBLIC	??_C@_0BG@GIAJEIJF@RMSG_REPLAY_TOTAL_SEC@	; `string'
;	COMDAT ??_C@_0BG@GIAJEIJF@RMSG_REPLAY_TOTAL_SEC@
CONST	SEGMENT
??_C@_0BG@GIAJEIJF@RMSG_REPLAY_TOTAL_SEC@ DB 'RMSG_REPLAY_TOTAL_SEC', 00H ; `string'
CONST	ENDS
;	COMDAT ??_C@_0BE@JFCIMCIP@RMSG_REPLAY_INC_SEC@
CONST	SEGMENT
??_C@_0BE@JFCIMCIP@RMSG_REPLAY_INC_SEC@ DB 'RMSG_REPLAY_INC_SEC', 00H ; `string'
CONST	ENDS
;	COMDAT ??_C@_0BA@NKHHCPON@RMSG_REPLAY_END@
CONST	SEGMENT
??_C@_0BA@NKHHCPON@RMSG_REPLAY_END@ DB 'RMSG_REPLAY_END', 00H ; `string'
CONST	ENDS
;	COMDAT ??_C@_0BI@KDGAIIMD@RMSG_REPLAY_CHANGE_DATE@
CONST	SEGMENT
??_C@_0BI@KDGAIIMD@RMSG_REPLAY_CHANGE_DATE@ DB 'RMSG_REPLAY_CHANGE_DATE', 00H ; `string'
CONST	ENDS
;	COMDAT ??_C@_0BB@JFLGBADG@RMSG_REPLAY_FAIL@
CONST	SEGMENT
??_C@_0BB@JFLGBADG@RMSG_REPLAY_FAIL@ DB 'RMSG_REPLAY_FAIL', 00H ; `string'
CONST	ENDS
;	COMDAT ??_C@_0BB@IBKHOHJL@RMSG_REPLAY_REAL@
CONST	SEGMENT
??_C@_0BB@IBKHOHJL@RMSG_REPLAY_REAL@ DB 'RMSG_REPLAY_REAL', 00H ; `string'
CONST	ENDS
;	COMDAT ??_C@_0BC@LHNMEPFM@RMSG_SELCHARTCODE@
CONST	SEGMENT
??_C@_0BC@LHNMEPFM@RMSG_SELCHARTCODE@ DB 'RMSG_SELCHARTCODE', 00H ; `string'
CONST	ENDS
;	COMDAT ??_C@_0BG@LNLCJKPF@RMSG_CHANGE_CROSSLINE@
CONST	SEGMENT
??_C@_0BG@LNLCJKPF@RMSG_CHANGE_CROSSLINE@ DB 'RMSG_CHANGE_CROSSLINE', 00H ; `string'
CONST	ENDS
;	COMDAT ??_C@_0BD@FLDNDDHK@RMSG_GET_SKINCOLOR@
CONST	SEGMENT
??_C@_0BD@FLDNDDHK@RMSG_GET_SKINCOLOR@ DB 'RMSG_GET_SKINCOLOR', 00H ; `string'
CONST	ENDS
;	COMDAT ??_C@_0BG@CNPAHNGG@RMSG_CHANGE_SKINCOLOR@
CONST	SEGMENT
??_C@_0BG@CNPAHNGG@RMSG_CHANGE_SKINCOLOR@ DB 'RMSG_CHANGE_SKINCOLOR', 00H ; `string'
CONST	ENDS
;	COMDAT ??_C@_0N@IIOKMIEH@RMSG_GETINFO@
CONST	SEGMENT
??_C@_0N@IIOKMIEH@RMSG_GETINFO@ DB 'RMSG_GETINFO', 00H	; `string'
CONST	ENDS
;	COMDAT ??_C@_0P@LFDACNFE@RMSG_KSDLLINFO@
CONST	SEGMENT
??_C@_0P@LFDACNFE@RMSG_KSDLLINFO@ DB 'RMSG_KSDLLINFO', 00H ; `string'
CONST	ENDS
;	COMDAT ??_C@_0BA@HKNFENJL@RMSG_GET_USERID@
CONST	SEGMENT
??_C@_0BA@HKNFENJL@RMSG_GET_USERID@ DB 'RMSG_GET_USERID', 00H ; `string'
CONST	ENDS
;	COMDAT ??_C@_0BC@MMPGLPDH@RMS_ANALYSIS_FUNC@
CONST	SEGMENT
??_C@_0BC@MMPGLPDH@RMS_ANALYSIS_FUNC@ DB 'RMS_ANALYSIS_FUNC', 00H ; `string'
CONST	ENDS
;	COMDAT ??_C@_0P@KHFCBIOH@RMSG_CHARTMAIN@
CONST	SEGMENT
??_C@_0P@KHFCBIOH@RMSG_CHARTMAIN@ DB 'RMSG_CHARTMAIN', 00H ; `string'
CONST	ENDS
;	COMDAT ??_C@_0BE@FJPKENOB@RMSG_GETSIGNAL_REAL@
CONST	SEGMENT
??_C@_0BE@FJPKENOB@RMSG_GETSIGNAL_REAL@ DB 'RMSG_GETSIGNAL_REAL', 00H ; `string'
CONST	ENDS
PUBLIC	??_H@YGXPAXIIP6EPAX0@Z@Z			; `vector constructor iterator'
PUBLIC	?__empty_global_delete@@YAXPAX@Z		; __empty_global_delete
PUBLIC	?__empty_global_delete@@YAXPAXI@Z		; __empty_global_delete
PUBLIC	??3CObject@@SGXPAX@Z				; CObject::operator delete
PUBLIC	??0CTabDlgCreator@@QAE@XZ			; CTabDlgCreator::CTabDlgCreator
PUBLIC	??1CTabDlgCreator@@UAE@XZ			; CTabDlgCreator::~CTabDlgCreator
PUBLIC	?Init@CTabDlgCreator@@QAEXPAVCWnd@@PAVCLeftBarDlg@@PAVCTabCtrl@@0PAX@Z ; CTabDlgCreator::Init
PUBLIC	?GetCaptionOfTabDlg@CTabDlgCreator@@QAEXIPAD@Z	; CTabDlgCreator::GetCaptionOfTabDlg
PUBLIC	?CreateTabDlg@CTabDlgCreator@@QAEPAVCTabDlg@@I@Z ; CTabDlgCreator::CreateTabDlg
PUBLIC	?GetCntOfTabDlg@CTabDlgCreator@@QAEHXZ		; CTabDlgCreator::GetCntOfTabDlg
PUBLIC	??_GCTabDlgCreator@@UAEPAXI@Z			; CTabDlgCreator::`scalar deleting destructor'
PUBLIC	??_7CTabDlgCreator@@6B@				; CTabDlgCreator::`vftable'
PUBLIC	??_C@_04GHLAOPMI@?$LO?w?A?$LO@			; `string'
PUBLIC	??_C@_04IMIHFAMF@?A?V?$LN?D@			; `string'
PUBLIC	??_C@_05CCPJMGLE@?$LM?$LB?1?$LP?I@		; `string'
PUBLIC	??_R4CTabDlgCreator@@6B@			; CTabDlgCreator::`RTTI Complete Object Locator'
PUBLIC	??_R0?AVCTabDlgCreator@@@8			; CTabDlgCreator `RTTI Type Descriptor'
PUBLIC	??_R3CTabDlgCreator@@8				; CTabDlgCreator::`RTTI Class Hierarchy Descriptor'
PUBLIC	??_R2CTabDlgCreator@@8				; CTabDlgCreator::`RTTI Base Class Array'
PUBLIC	??_R1A@?0A@EA@CTabDlgCreator@@8			; CTabDlgCreator::`RTTI Base Class Descriptor at (0,-1,0,64)'
EXTRN	??2@YAPAXI@Z:PROC				; operator new
EXTRN	??3@YAXPAX@Z:PROC				; operator delete
EXTRN	??3@YAXPAXI@Z:PROC				; operator delete
EXTRN	__imp__RegisterWindowMessageA@4:PROC
EXTRN	??_ECTabDlgCreator@@UAEPAXI@Z:PROC		; CTabDlgCreator::`vector deleting destructor'
EXTRN	??0CTabStockDlg@@QAE@PAVCWnd@@@Z:PROC		; CTabStockDlg::CTabStockDlg
EXTRN	??0CTabUpJongDlg@@QAE@PAVCWnd@@@Z:PROC		; CTabUpJongDlg::CTabUpJongDlg
EXTRN	??0CTabCodeSearchFO@@QAE@PAVCWnd@@@Z:PROC	; CTabCodeSearchFO::CTabCodeSearchFO
EXTRN	??0CTabELWDlg@@QAE@PAVCWnd@@@Z:PROC		; CTabELWDlg::CTabELWDlg
EXTRN	@__security_check_cookie@4:PROC
EXTRN	___CxxFrameHandler3:PROC
EXTRN	??_7type_info@@6B@:QWORD			; type_info::`vftable'
EXTRN	___security_cookie:DWORD
_BSS	SEGMENT
?RMSG_GETSIGNAL_REAL@@3IB DD 01H DUP (?)		; RMSG_GETSIGNAL_REAL
?RMSG_CHARTMAIN@@3IB DD 01H DUP (?)			; RMSG_CHARTMAIN
?RMS_ANALYSIS_FUNC@@3IB DD 01H DUP (?)			; RMS_ANALYSIS_FUNC
?RMSG_GET_USERID@@3IB DD 01H DUP (?)			; RMSG_GET_USERID
?RMSG_KSDLLINFO@@3IB DD 01H DUP (?)			; RMSG_KSDLLINFO
?RMSG_GETINFO@@3IB DD 01H DUP (?)			; RMSG_GETINFO
?RMSG_CHANGE_SKINCOLOR@@3IB DD 01H DUP (?)		; RMSG_CHANGE_SKINCOLOR
?RMSG_GET_SKINCOLOR@@3IB DD 01H DUP (?)			; RMSG_GET_SKINCOLOR
?RMSG_CHANGE_CROSSLINE@@3IB DD 01H DUP (?)		; RMSG_CHANGE_CROSSLINE
?RMSG_REPLAY_REAL@@3IB DD 01H DUP (?)			; RMSG_REPLAY_REAL
?RMSG_REPLAY_FAIL@@3IB DD 01H DUP (?)			; RMSG_REPLAY_FAIL
?RMSG_REPLAY_CHANGE_DATE@@3IB DD 01H DUP (?)		; RMSG_REPLAY_CHANGE_DATE
?RMSG_REPLAY_END@@3IB DD 01H DUP (?)			; RMSG_REPLAY_END
?RMSG_REPLAY_INC_SEC@@3IB DD 01H DUP (?)		; RMSG_REPLAY_INC_SEC
?RMSG_REPLAY_TOTAL_SEC@@3IB DD 01H DUP (?)		; RMSG_REPLAY_TOTAL_SEC
?RMSG_SELCHARTCODE@@3IB DD 01H DUP (?)			; RMSG_SELCHARTCODE
_BSS	ENDS
CRT$XCU	SEGMENT
?RMSG_GETSIGNAL_REAL$initializer$@@3P6AXXZA DD FLAT:??__ERMSG_GETSIGNAL_REAL@@YAXXZ ; RMSG_GETSIGNAL_REAL$initializer$
CRT$XCU	ENDS
;	COMDAT ??_R1A@?0A@EA@CTabDlgCreator@@8
rdata$r	SEGMENT
??_R1A@?0A@EA@CTabDlgCreator@@8 DD FLAT:??_R0?AVCTabDlgCreator@@@8 ; CTabDlgCreator::`RTTI Base Class Descriptor at (0,-1,0,64)'
	DD	00H
	DD	00H
	DD	0ffffffffH
	DD	00H
	DD	040H
	DD	FLAT:??_R3CTabDlgCreator@@8
rdata$r	ENDS
;	COMDAT ??_R2CTabDlgCreator@@8
rdata$r	SEGMENT
??_R2CTabDlgCreator@@8 DD FLAT:??_R1A@?0A@EA@CTabDlgCreator@@8 ; CTabDlgCreator::`RTTI Base Class Array'
rdata$r	ENDS
;	COMDAT ??_R3CTabDlgCreator@@8
rdata$r	SEGMENT
??_R3CTabDlgCreator@@8 DD 00H				; CTabDlgCreator::`RTTI Class Hierarchy Descriptor'
	DD	00H
	DD	01H
	DD	FLAT:??_R2CTabDlgCreator@@8
rdata$r	ENDS
;	COMDAT ??_R0?AVCTabDlgCreator@@@8
data$rs	SEGMENT
??_R0?AVCTabDlgCreator@@@8 DD FLAT:??_7type_info@@6B@	; CTabDlgCreator `RTTI Type Descriptor'
	DD	00H
	DB	'.?AVCTabDlgCreator@@', 00H
data$rs	ENDS
;	COMDAT ??_R4CTabDlgCreator@@6B@
rdata$r	SEGMENT
??_R4CTabDlgCreator@@6B@ DD 00H				; CTabDlgCreator::`RTTI Complete Object Locator'
	DD	00H
	DD	00H
	DD	FLAT:??_R0?AVCTabDlgCreator@@@8
	DD	FLAT:??_R3CTabDlgCreator@@8
rdata$r	ENDS
;	COMDAT ??_C@_05CCPJMGLE@?$LM?$LB?1?$LP?I@
CONST	SEGMENT
??_C@_05CCPJMGLE@?$LM?$LB?1?$LP?I@ DB 0bcH, 0b1H, '/', 0bfH, 0c9H, 00H ; `string'
CONST	ENDS
;	COMDAT ??_C@_04IMIHFAMF@?A?V?$LN?D@
CONST	SEGMENT
??_C@_04IMIHFAMF@?A?V?$LN?D@ DB 0c1H, 0d6H, 0bdH, 0c4H, 00H ; `string'
CONST	ENDS
;	COMDAT ??_C@_04GHLAOPMI@?$LO?w?A?$LO@
CONST	SEGMENT
??_C@_04GHLAOPMI@?$LO?w?A?$LO@ DB 0beH, 0f7H, 0c1H, 0beH, 00H ; `string'
CONST	ENDS
;	COMDAT ??_7CTabDlgCreator@@6B@
CONST	SEGMENT
??_7CTabDlgCreator@@6B@ DD FLAT:??_R4CTabDlgCreator@@6B@ ; CTabDlgCreator::`vftable'
	DD	FLAT:??_ECTabDlgCreator@@UAEPAXI@Z
CONST	ENDS
;	COMDAT xdata$x
xdata$x	SEGMENT
__ehfuncinfo$?CreateTabDlg@CTabDlgCreator@@QAEPAVCTabDlg@@I@Z DD 019930522H
	DD	05H
	DD	FLAT:__unwindtable$?CreateTabDlg@CTabDlgCreator@@QAEPAVCTabDlg@@I@Z
	DD	2 DUP(00H)
	DD	2 DUP(00H)
	DD	00H
	DD	01H
__unwindtable$?CreateTabDlg@CTabDlgCreator@@QAEPAVCTabDlg@@I@Z DD 0ffffffffH
	DD	FLAT:__unwindfunclet$?CreateTabDlg@CTabDlgCreator@@QAEPAVCTabDlg@@I@Z$0
	DD	0ffffffffH
	DD	FLAT:__unwindfunclet$?CreateTabDlg@CTabDlgCreator@@QAEPAVCTabDlg@@I@Z$1
	DD	0ffffffffH
	DD	FLAT:__unwindfunclet$?CreateTabDlg@CTabDlgCreator@@QAEPAVCTabDlg@@I@Z$2
	DD	0ffffffffH
	DD	FLAT:__unwindfunclet$?CreateTabDlg@CTabDlgCreator@@QAEPAVCTabDlg@@I@Z$3
	DD	0ffffffffH
	DD	FLAT:__unwindfunclet$?CreateTabDlg@CTabDlgCreator@@QAEPAVCTabDlg@@I@Z$4
xdata$x	ENDS
CRT$XCU	SEGMENT
?RMSG_CHARTMAIN$initializer$@@3P6AXXZA DD FLAT:??__ERMSG_CHARTMAIN@@YAXXZ ; RMSG_CHARTMAIN$initializer$
CRT$XCU	ENDS
CRT$XCU	SEGMENT
?RMS_ANALYSIS_FUNC$initializer$@@3P6AXXZA DD FLAT:??__ERMS_ANALYSIS_FUNC@@YAXXZ ; RMS_ANALYSIS_FUNC$initializer$
CRT$XCU	ENDS
CRT$XCU	SEGMENT
?RMSG_GET_USERID$initializer$@@3P6AXXZA DD FLAT:??__ERMSG_GET_USERID@@YAXXZ ; RMSG_GET_USERID$initializer$
CRT$XCU	ENDS
CRT$XCU	SEGMENT
?RMSG_KSDLLINFO$initializer$@@3P6AXXZA DD FLAT:??__ERMSG_KSDLLINFO@@YAXXZ ; RMSG_KSDLLINFO$initializer$
CRT$XCU	ENDS
CRT$XCU	SEGMENT
?RMSG_GETINFO$initializer$@@3P6AXXZA DD FLAT:??__ERMSG_GETINFO@@YAXXZ ; RMSG_GETINFO$initializer$
CRT$XCU	ENDS
CRT$XCU	SEGMENT
?RMSG_CHANGE_SKINCOLOR$initializer$@@3P6AXXZA DD FLAT:??__ERMSG_CHANGE_SKINCOLOR@@YAXXZ ; RMSG_CHANGE_SKINCOLOR$initializer$
CRT$XCU	ENDS
CRT$XCU	SEGMENT
?RMSG_GET_SKINCOLOR$initializer$@@3P6AXXZA DD FLAT:??__ERMSG_GET_SKINCOLOR@@YAXXZ ; RMSG_GET_SKINCOLOR$initializer$
CRT$XCU	ENDS
CRT$XCU	SEGMENT
?RMSG_CHANGE_CROSSLINE$initializer$@@3P6AXXZA DD FLAT:??__ERMSG_CHANGE_CROSSLINE@@YAXXZ ; RMSG_CHANGE_CROSSLINE$initializer$
CRT$XCU	ENDS
CRT$XCU	SEGMENT
?RMSG_REPLAY_REAL$initializer$@@3P6AXXZA DD FLAT:??__ERMSG_REPLAY_REAL@@YAXXZ ; RMSG_REPLAY_REAL$initializer$
CRT$XCU	ENDS
CRT$XCU	SEGMENT
?RMSG_REPLAY_FAIL$initializer$@@3P6AXXZA DD FLAT:??__ERMSG_REPLAY_FAIL@@YAXXZ ; RMSG_REPLAY_FAIL$initializer$
CRT$XCU	ENDS
CRT$XCU	SEGMENT
?RMSG_REPLAY_CHANGE_DATE$initializer$@@3P6AXXZA DD FLAT:??__ERMSG_REPLAY_CHANGE_DATE@@YAXXZ ; RMSG_REPLAY_CHANGE_DATE$initializer$
CRT$XCU	ENDS
CRT$XCU	SEGMENT
?RMSG_REPLAY_END$initializer$@@3P6AXXZA DD FLAT:??__ERMSG_REPLAY_END@@YAXXZ ; RMSG_REPLAY_END$initializer$
CRT$XCU	ENDS
CRT$XCU	SEGMENT
?RMSG_REPLAY_INC_SEC$initializer$@@3P6AXXZA DD FLAT:??__ERMSG_REPLAY_INC_SEC@@YAXXZ ; RMSG_REPLAY_INC_SEC$initializer$
CRT$XCU	ENDS
CRT$XCU	SEGMENT
?RMSG_REPLAY_TOTAL_SEC$initializer$@@3P6AXXZA DD FLAT:??__ERMSG_REPLAY_TOTAL_SEC@@YAXXZ ; RMSG_REPLAY_TOTAL_SEC$initializer$
CRT$XCU	ENDS
CRT$XCU	SEGMENT
?RMSG_SELCHARTCODE$initializer$@@3P6AXXZA DD FLAT:??__ERMSG_SELCHARTCODE@@YAXXZ ; RMSG_SELCHARTCODE$initializer$
CRT$XCU	ENDS
; Function compile flags: /Ogtp
; File D:\git\src\IBK\IBK_DRFN\ProjSrc\SrcDrfn\Chart\comparechart\StdDialog.h
;	COMDAT ??__ERMSG_SELCHARTCODE@@YAXXZ
text$di	SEGMENT
??__ERMSG_SELCHARTCODE@@YAXXZ PROC			; `dynamic initializer for 'RMSG_SELCHARTCODE'', COMDAT

; 73   : const UINT RMSG_SELCHARTCODE = ::RegisterWindowMessage( "RMSG_SELCHARTCODE" );

  00000	68 00 00 00 00	 push	 OFFSET ??_C@_0BC@LHNMEPFM@RMSG_SELCHARTCODE@
  00005	ff 15 00 00 00
	00		 call	 DWORD PTR __imp__RegisterWindowMessageA@4
  0000b	a3 00 00 00 00	 mov	 DWORD PTR ?RMSG_SELCHARTCODE@@3IB, eax
  00010	c3		 ret	 0
??__ERMSG_SELCHARTCODE@@YAXXZ ENDP			; `dynamic initializer for 'RMSG_SELCHARTCODE''
text$di	ENDS
; Function compile flags: /Ogtp
; File D:\git\src\IBK\IBK_DRFN\ProjSrc\SrcDrfn\Chart\chart_common\ReplayChartInfoDef.h
;	COMDAT ??__ERMSG_REPLAY_TOTAL_SEC@@YAXXZ
text$di	SEGMENT
??__ERMSG_REPLAY_TOTAL_SEC@@YAXXZ PROC			; `dynamic initializer for 'RMSG_REPLAY_TOTAL_SEC'', COMDAT

; 97   : 	const UINT RMSG_REPLAY_TOTAL_SEC = ::RegisterWindowMessage(_T("RMSG_REPLAY_TOTAL_SEC"));		// 전체 시간(초단위)를 전송

  00000	68 00 00 00 00	 push	 OFFSET ??_C@_0BG@GIAJEIJF@RMSG_REPLAY_TOTAL_SEC@
  00005	ff 15 00 00 00
	00		 call	 DWORD PTR __imp__RegisterWindowMessageA@4
  0000b	a3 00 00 00 00	 mov	 DWORD PTR ?RMSG_REPLAY_TOTAL_SEC@@3IB, eax
  00010	c3		 ret	 0
??__ERMSG_REPLAY_TOTAL_SEC@@YAXXZ ENDP			; `dynamic initializer for 'RMSG_REPLAY_TOTAL_SEC''
text$di	ENDS
; Function compile flags: /Ogtp
; File D:\git\src\IBK\IBK_DRFN\ProjSrc\SrcDrfn\Chart\chart_common\ReplayChartInfoDef.h
;	COMDAT ??__ERMSG_REPLAY_INC_SEC@@YAXXZ
text$di	SEGMENT
??__ERMSG_REPLAY_INC_SEC@@YAXXZ PROC			; `dynamic initializer for 'RMSG_REPLAY_INC_SEC'', COMDAT

; 96   : 	const UINT RMSG_REPLAY_INC_SEC = ::RegisterWindowMessage(_T("RMSG_REPLAY_INC_SEC"));			// 1초가 증가 될때마다 전송

  00000	68 00 00 00 00	 push	 OFFSET ??_C@_0BE@JFCIMCIP@RMSG_REPLAY_INC_SEC@
  00005	ff 15 00 00 00
	00		 call	 DWORD PTR __imp__RegisterWindowMessageA@4
  0000b	a3 00 00 00 00	 mov	 DWORD PTR ?RMSG_REPLAY_INC_SEC@@3IB, eax
  00010	c3		 ret	 0
??__ERMSG_REPLAY_INC_SEC@@YAXXZ ENDP			; `dynamic initializer for 'RMSG_REPLAY_INC_SEC''
text$di	ENDS
; Function compile flags: /Ogtp
; File D:\git\src\IBK\IBK_DRFN\ProjSrc\SrcDrfn\Chart\chart_common\ReplayChartInfoDef.h
;	COMDAT ??__ERMSG_REPLAY_END@@YAXXZ
text$di	SEGMENT
??__ERMSG_REPLAY_END@@YAXXZ PROC			; `dynamic initializer for 'RMSG_REPLAY_END'', COMDAT

; 95   : 	const UINT RMSG_REPLAY_END			= ::RegisterWindowMessage(_T("RMSG_REPLAY_END"));

  00000	68 00 00 00 00	 push	 OFFSET ??_C@_0BA@NKHHCPON@RMSG_REPLAY_END@
  00005	ff 15 00 00 00
	00		 call	 DWORD PTR __imp__RegisterWindowMessageA@4
  0000b	a3 00 00 00 00	 mov	 DWORD PTR ?RMSG_REPLAY_END@@3IB, eax
  00010	c3		 ret	 0
??__ERMSG_REPLAY_END@@YAXXZ ENDP			; `dynamic initializer for 'RMSG_REPLAY_END''
text$di	ENDS
; Function compile flags: /Ogtp
; File D:\git\src\IBK\IBK_DRFN\ProjSrc\SrcDrfn\Chart\chart_common\ReplayChartInfoDef.h
;	COMDAT ??__ERMSG_REPLAY_CHANGE_DATE@@YAXXZ
text$di	SEGMENT
??__ERMSG_REPLAY_CHANGE_DATE@@YAXXZ PROC		; `dynamic initializer for 'RMSG_REPLAY_CHANGE_DATE'', COMDAT

; 94   : 	const UINT RMSG_REPLAY_CHANGE_DATE	= ::RegisterWindowMessage(_T("RMSG_REPLAY_CHANGE_DATE"));

  00000	68 00 00 00 00	 push	 OFFSET ??_C@_0BI@KDGAIIMD@RMSG_REPLAY_CHANGE_DATE@
  00005	ff 15 00 00 00
	00		 call	 DWORD PTR __imp__RegisterWindowMessageA@4
  0000b	a3 00 00 00 00	 mov	 DWORD PTR ?RMSG_REPLAY_CHANGE_DATE@@3IB, eax
  00010	c3		 ret	 0
??__ERMSG_REPLAY_CHANGE_DATE@@YAXXZ ENDP		; `dynamic initializer for 'RMSG_REPLAY_CHANGE_DATE''
text$di	ENDS
; Function compile flags: /Ogtp
; File D:\git\src\IBK\IBK_DRFN\ProjSrc\SrcDrfn\Chart\chart_common\ReplayChartInfoDef.h
;	COMDAT ??__ERMSG_REPLAY_FAIL@@YAXXZ
text$di	SEGMENT
??__ERMSG_REPLAY_FAIL@@YAXXZ PROC			; `dynamic initializer for 'RMSG_REPLAY_FAIL'', COMDAT

; 93   : 	const UINT RMSG_REPLAY_FAIL			= ::RegisterWindowMessage(_T("RMSG_REPLAY_FAIL"));

  00000	68 00 00 00 00	 push	 OFFSET ??_C@_0BB@JFLGBADG@RMSG_REPLAY_FAIL@
  00005	ff 15 00 00 00
	00		 call	 DWORD PTR __imp__RegisterWindowMessageA@4
  0000b	a3 00 00 00 00	 mov	 DWORD PTR ?RMSG_REPLAY_FAIL@@3IB, eax
  00010	c3		 ret	 0
??__ERMSG_REPLAY_FAIL@@YAXXZ ENDP			; `dynamic initializer for 'RMSG_REPLAY_FAIL''
text$di	ENDS
; Function compile flags: /Ogtp
; File D:\git\src\IBK\IBK_DRFN\ProjSrc\SrcDrfn\Chart\chart_common\ReplayChartInfoDef.h
;	COMDAT ??__ERMSG_REPLAY_REAL@@YAXXZ
text$di	SEGMENT
??__ERMSG_REPLAY_REAL@@YAXXZ PROC			; `dynamic initializer for 'RMSG_REPLAY_REAL'', COMDAT

; 92   : 	const UINT RMSG_REPLAY_REAL			= ::RegisterWindowMessage(_T("RMSG_REPLAY_REAL"));

  00000	68 00 00 00 00	 push	 OFFSET ??_C@_0BB@IBKHOHJL@RMSG_REPLAY_REAL@
  00005	ff 15 00 00 00
	00		 call	 DWORD PTR __imp__RegisterWindowMessageA@4
  0000b	a3 00 00 00 00	 mov	 DWORD PTR ?RMSG_REPLAY_REAL@@3IB, eax
  00010	c3		 ret	 0
??__ERMSG_REPLAY_REAL@@YAXXZ ENDP			; `dynamic initializer for 'RMSG_REPLAY_REAL''
text$di	ENDS
; Function compile flags: /Ogtp
; File D:\git\src\IBK\IBK_DRFN\ProjSrc\SrcDrfn\Chart\comparechart\define\ChartMsgDef.h
;	COMDAT ??__ERMSG_CHANGE_CROSSLINE@@YAXXZ
text$di	SEGMENT
??__ERMSG_CHANGE_CROSSLINE@@YAXXZ PROC			; `dynamic initializer for 'RMSG_CHANGE_CROSSLINE'', COMDAT

; 216  : const UINT RMSG_CHANGE_CROSSLINE = ::RegisterWindowMessage(_T("RMSG_CHANGE_CROSSLINE"));

  00000	68 00 00 00 00	 push	 OFFSET ??_C@_0BG@LNLCJKPF@RMSG_CHANGE_CROSSLINE@
  00005	ff 15 00 00 00
	00		 call	 DWORD PTR __imp__RegisterWindowMessageA@4
  0000b	a3 00 00 00 00	 mov	 DWORD PTR ?RMSG_CHANGE_CROSSLINE@@3IB, eax
  00010	c3		 ret	 0
??__ERMSG_CHANGE_CROSSLINE@@YAXXZ ENDP			; `dynamic initializer for 'RMSG_CHANGE_CROSSLINE''
text$di	ENDS
; Function compile flags: /Ogtp
; File D:\git\src\IBK\IBK_DRFN\ProjSrc\SrcDrfn\Chart\comparechart\define\ChartMsgDef.h
;	COMDAT ??__ERMSG_GET_SKINCOLOR@@YAXXZ
text$di	SEGMENT
??__ERMSG_GET_SKINCOLOR@@YAXXZ PROC			; `dynamic initializer for 'RMSG_GET_SKINCOLOR'', COMDAT

; 214  : const UINT RMSG_GET_SKINCOLOR = ::RegisterWindowMessage(_T("RMSG_GET_SKINCOLOR"));

  00000	68 00 00 00 00	 push	 OFFSET ??_C@_0BD@FLDNDDHK@RMSG_GET_SKINCOLOR@
  00005	ff 15 00 00 00
	00		 call	 DWORD PTR __imp__RegisterWindowMessageA@4
  0000b	a3 00 00 00 00	 mov	 DWORD PTR ?RMSG_GET_SKINCOLOR@@3IB, eax
  00010	c3		 ret	 0
??__ERMSG_GET_SKINCOLOR@@YAXXZ ENDP			; `dynamic initializer for 'RMSG_GET_SKINCOLOR''
text$di	ENDS
; Function compile flags: /Ogtp
; File D:\git\src\IBK\IBK_DRFN\ProjSrc\SrcDrfn\Chart\comparechart\define\ChartMsgDef.h
;	COMDAT ??__ERMSG_CHANGE_SKINCOLOR@@YAXXZ
text$di	SEGMENT
??__ERMSG_CHANGE_SKINCOLOR@@YAXXZ PROC			; `dynamic initializer for 'RMSG_CHANGE_SKINCOLOR'', COMDAT

; 213  : const UINT RMSG_CHANGE_SKINCOLOR = ::RegisterWindowMessage(_T("RMSG_CHANGE_SKINCOLOR"));

  00000	68 00 00 00 00	 push	 OFFSET ??_C@_0BG@CNPAHNGG@RMSG_CHANGE_SKINCOLOR@
  00005	ff 15 00 00 00
	00		 call	 DWORD PTR __imp__RegisterWindowMessageA@4
  0000b	a3 00 00 00 00	 mov	 DWORD PTR ?RMSG_CHANGE_SKINCOLOR@@3IB, eax
  00010	c3		 ret	 0
??__ERMSG_CHANGE_SKINCOLOR@@YAXXZ ENDP			; `dynamic initializer for 'RMSG_CHANGE_SKINCOLOR''
text$di	ENDS
; Function compile flags: /Ogtp
; File D:\git\src\IBK\IBK_DRFN\ProjSrc\SrcDrfn\Chart\comparechart\define\ChartMsgDef.h
;	COMDAT ??__ERMSG_GETINFO@@YAXXZ
text$di	SEGMENT
??__ERMSG_GETINFO@@YAXXZ PROC				; `dynamic initializer for 'RMSG_GETINFO'', COMDAT

; 204  : const UINT RMSG_GETINFO = ::RegisterWindowMessage(_T("RMSG_GETINFO"));

  00000	68 00 00 00 00	 push	 OFFSET ??_C@_0N@IIOKMIEH@RMSG_GETINFO@
  00005	ff 15 00 00 00
	00		 call	 DWORD PTR __imp__RegisterWindowMessageA@4
  0000b	a3 00 00 00 00	 mov	 DWORD PTR ?RMSG_GETINFO@@3IB, eax
  00010	c3		 ret	 0
??__ERMSG_GETINFO@@YAXXZ ENDP				; `dynamic initializer for 'RMSG_GETINFO''
text$di	ENDS
; Function compile flags: /Ogtp
; File D:\git\src\IBK\IBK_DRFN\ProjSrc\SrcDrfn\Chart\comparechart\define\ChartMsgDef.h
;	COMDAT ??__ERMSG_KSDLLINFO@@YAXXZ
text$di	SEGMENT
??__ERMSG_KSDLLINFO@@YAXXZ PROC				; `dynamic initializer for 'RMSG_KSDLLINFO'', COMDAT

; 203  : const UINT RMSG_KSDLLINFO = ::RegisterWindowMessage(_T("RMSG_KSDLLINFO"));		// TrmCompCharView에게 정보얻기

  00000	68 00 00 00 00	 push	 OFFSET ??_C@_0P@LFDACNFE@RMSG_KSDLLINFO@
  00005	ff 15 00 00 00
	00		 call	 DWORD PTR __imp__RegisterWindowMessageA@4
  0000b	a3 00 00 00 00	 mov	 DWORD PTR ?RMSG_KSDLLINFO@@3IB, eax
  00010	c3		 ret	 0
??__ERMSG_KSDLLINFO@@YAXXZ ENDP				; `dynamic initializer for 'RMSG_KSDLLINFO''
text$di	ENDS
; Function compile flags: /Ogtp
; File D:\git\src\IBK\IBK_DRFN\ProjSrc\SrcDrfn\Chart\comparechart\define\ChartMsgDef.h
;	COMDAT ??__ERMSG_GET_USERID@@YAXXZ
text$di	SEGMENT
??__ERMSG_GET_USERID@@YAXXZ PROC			; `dynamic initializer for 'RMSG_GET_USERID'', COMDAT

; 200  : const UINT RMSG_GET_USERID = ::RegisterWindowMessage(_T("RMSG_GET_USERID"));	// User ID 얻기

  00000	68 00 00 00 00	 push	 OFFSET ??_C@_0BA@HKNFENJL@RMSG_GET_USERID@
  00005	ff 15 00 00 00
	00		 call	 DWORD PTR __imp__RegisterWindowMessageA@4
  0000b	a3 00 00 00 00	 mov	 DWORD PTR ?RMSG_GET_USERID@@3IB, eax
  00010	c3		 ret	 0
??__ERMSG_GET_USERID@@YAXXZ ENDP			; `dynamic initializer for 'RMSG_GET_USERID''
text$di	ENDS
; Function compile flags: /Ogtp
; File D:\git\src\IBK\IBK_DRFN\ProjSrc\SrcDrfn\Chart\comparechart\define\ChartMsgDef.h
;	COMDAT ??__ERMS_ANALYSIS_FUNC@@YAXXZ
text$di	SEGMENT
??__ERMS_ANALYSIS_FUNC@@YAXXZ PROC			; `dynamic initializer for 'RMS_ANALYSIS_FUNC'', COMDAT

; 196  : const UINT RMS_ANALYSIS_FUNC	= ::RegisterWindowMessage(_T("RMS_ANALYSIS_FUNC"));

  00000	68 00 00 00 00	 push	 OFFSET ??_C@_0BC@MMPGLPDH@RMS_ANALYSIS_FUNC@
  00005	ff 15 00 00 00
	00		 call	 DWORD PTR __imp__RegisterWindowMessageA@4
  0000b	a3 00 00 00 00	 mov	 DWORD PTR ?RMS_ANALYSIS_FUNC@@3IB, eax
  00010	c3		 ret	 0
??__ERMS_ANALYSIS_FUNC@@YAXXZ ENDP			; `dynamic initializer for 'RMS_ANALYSIS_FUNC''
text$di	ENDS
; Function compile flags: /Ogtp
; File D:\git\src\IBK\IBK_DRFN\ProjSrc\SrcDrfn\Chart\comparechart\define\ChartMsgDef.h
;	COMDAT ??__ERMSG_CHARTMAIN@@YAXXZ
text$di	SEGMENT
??__ERMSG_CHARTMAIN@@YAXXZ PROC				; `dynamic initializer for 'RMSG_CHARTMAIN'', COMDAT

; 193  : const UINT RMSG_CHARTMAIN		= ::RegisterWindowMessage(_T("RMSG_CHARTMAIN"));

  00000	68 00 00 00 00	 push	 OFFSET ??_C@_0P@KHFCBIOH@RMSG_CHARTMAIN@
  00005	ff 15 00 00 00
	00		 call	 DWORD PTR __imp__RegisterWindowMessageA@4
  0000b	a3 00 00 00 00	 mov	 DWORD PTR ?RMSG_CHARTMAIN@@3IB, eax
  00010	c3		 ret	 0
??__ERMSG_CHARTMAIN@@YAXXZ ENDP				; `dynamic initializer for 'RMSG_CHARTMAIN''
text$di	ENDS
; Function compile flags: /Ogtp
; File D:\git\src\IBK\IBK_DRFN\ProjSrc\SrcDrfn\Chart\commontr\TRDefine.h
;	COMDAT ??__ERMSG_GETSIGNAL_REAL@@YAXXZ
text$di	SEGMENT
??__ERMSG_GETSIGNAL_REAL@@YAXXZ PROC			; `dynamic initializer for 'RMSG_GETSIGNAL_REAL'', COMDAT

; 213  : const UINT RMSG_GETSIGNAL_REAL = ::RegisterWindowMessage(_T("RMSG_GETSIGNAL_REAL"));

  00000	68 00 00 00 00	 push	 OFFSET ??_C@_0BE@FJPKENOB@RMSG_GETSIGNAL_REAL@
  00005	ff 15 00 00 00
	00		 call	 DWORD PTR __imp__RegisterWindowMessageA@4
  0000b	a3 00 00 00 00	 mov	 DWORD PTR ?RMSG_GETSIGNAL_REAL@@3IB, eax
  00010	c3		 ret	 0
??__ERMSG_GETSIGNAL_REAL@@YAXXZ ENDP			; `dynamic initializer for 'RMSG_GETSIGNAL_REAL''
text$di	ENDS
; Function compile flags: /Ogtp
;	COMDAT ??_GCTabDlgCreator@@UAEPAXI@Z
_TEXT	SEGMENT
___flags$ = 8						; size = 4
??_GCTabDlgCreator@@UAEPAXI@Z PROC			; CTabDlgCreator::`scalar deleting destructor', COMDAT
; _this$ = ecx
  00000	55		 push	 ebp
  00001	8b ec		 mov	 ebp, esp
  00003	f6 45 08 01	 test	 BYTE PTR ___flags$[ebp], 1
  00007	56		 push	 esi
  00008	8b f1		 mov	 esi, ecx
  0000a	c7 06 00 00 00
	00		 mov	 DWORD PTR [esi], OFFSET ??_7CTabDlgCreator@@6B@
  00010	74 0b		 je	 SHORT $LN4@scalar
  00012	6a 18		 push	 24			; 00000018H
  00014	56		 push	 esi
  00015	e8 00 00 00 00	 call	 ??3@YAXPAXI@Z		; operator delete
  0001a	83 c4 08	 add	 esp, 8
$LN4@scalar:
  0001d	8b c6		 mov	 eax, esi
  0001f	5e		 pop	 esi
  00020	5d		 pop	 ebp
  00021	c2 04 00	 ret	 4
??_GCTabDlgCreator@@UAEPAXI@Z ENDP			; CTabDlgCreator::`scalar deleting destructor'
_TEXT	ENDS
; Function compile flags: /Ogtp
; File D:\git\src\IBK\IBK_DRFN\ProjSrc\SrcDrfn\Chart\comparechart\TabDlgCreator.cpp
;	COMDAT ?GetCntOfTabDlg@CTabDlgCreator@@QAEHXZ
_TEXT	SEGMENT
?GetCntOfTabDlg@CTabDlgCreator@@QAEHXZ PROC		; CTabDlgCreator::GetCntOfTabDlg, COMDAT
; _this$ = ecx

; 66   : 	return COMPARECHART_TABTOTALCNT;

  00000	b8 03 00 00 00	 mov	 eax, 3

; 67   : }

  00005	c3		 ret	 0
?GetCntOfTabDlg@CTabDlgCreator@@QAEHXZ ENDP		; CTabDlgCreator::GetCntOfTabDlg
_TEXT	ENDS
; Function compile flags: /Ogtp
; File D:\git\src\IBK\IBK_DRFN\ProjSrc\SrcDrfn\Chart\comparechart\TabDlgCreator.cpp
; File C:\Program Files (x86)\Microsoft Visual Studio\2019\Community\VC\Tools\MSVC\14.29.30133\atlmfc\include\afx.inl
; File D:\git\src\IBK\IBK_DRFN\ProjSrc\SrcDrfn\Chart\comparechart\TabDlgCreator.cpp
; File C:\Program Files (x86)\Microsoft Visual Studio\2019\Community\VC\Tools\MSVC\14.29.30133\atlmfc\include\afx.inl
; File D:\git\src\IBK\IBK_DRFN\ProjSrc\SrcDrfn\Chart\comparechart\TabDlgCreator.cpp
; File C:\Program Files (x86)\Microsoft Visual Studio\2019\Community\VC\Tools\MSVC\14.29.30133\atlmfc\include\afx.inl
; File D:\git\src\IBK\IBK_DRFN\ProjSrc\SrcDrfn\Chart\comparechart\TabDlgCreator.cpp
; File C:\Program Files (x86)\Microsoft Visual Studio\2019\Community\VC\Tools\MSVC\14.29.30133\atlmfc\include\afx.inl
; File D:\git\src\IBK\IBK_DRFN\ProjSrc\SrcDrfn\Chart\comparechart\TabDlgCreator.cpp
; File C:\Program Files (x86)\Microsoft Visual Studio\2019\Community\VC\Tools\MSVC\14.29.30133\atlmfc\include\afx.inl
; File D:\git\src\IBK\IBK_DRFN\ProjSrc\SrcDrfn\Chart\comparechart\TabDlgCreator.cpp
;	COMDAT ?CreateTabDlg@CTabDlgCreator@@QAEPAVCTabDlg@@I@Z
_TEXT	SEGMENT
__$EHRec$ = -12						; size = 12
$T2 = 8							; size = 4
$T3 = 8							; size = 4
$T4 = 8							; size = 4
$T5 = 8							; size = 4
$T6 = 8							; size = 4
_nIndex$ = 8						; size = 4
?CreateTabDlg@CTabDlgCreator@@QAEPAVCTabDlg@@I@Z PROC	; CTabDlgCreator::CreateTabDlg, COMDAT
; _this$ = ecx

; 117  : {

  00000	55		 push	 ebp
  00001	8b ec		 mov	 ebp, esp
  00003	6a ff		 push	 -1
  00005	68 00 00 00 00	 push	 __ehhandler$?CreateTabDlg@CTabDlgCreator@@QAEPAVCTabDlg@@I@Z
  0000a	64 a1 00 00 00
	00		 mov	 eax, DWORD PTR fs:0
  00010	50		 push	 eax
  00011	56		 push	 esi
  00012	57		 push	 edi
  00013	a1 00 00 00 00	 mov	 eax, DWORD PTR ___security_cookie
  00018	33 c5		 xor	 eax, ebp
  0001a	50		 push	 eax
  0001b	8d 45 f4	 lea	 eax, DWORD PTR __$EHRec$[ebp]
  0001e	64 a3 00 00 00
	00		 mov	 DWORD PTR fs:0, eax
  00024	8b f9		 mov	 edi, ecx

; 118  : 	CTabDlg* _pTab = NULL;
; 119  : 	if(((CStdDialog*)m_pCompareChartWnd)->m_nScreenType == CStdDialog::Screen_ELWChart)

  00026	8b 47 0c	 mov	 eax, DWORD PTR [edi+12]
  00029	33 f6		 xor	 esi, esi
  0002b	8b 80 e4 02 00
	00		 mov	 eax, DWORD PTR [eax+740]
  00031	83 f8 01	 cmp	 eax, 1
  00034	75 5c		 jne	 SHORT $LN6@CreateTabD
; File C:\Program Files (x86)\Microsoft Visual Studio\2019\Community\VC\Tools\MSVC\14.29.30133\atlmfc\include\afx.inl

; 116  : 	{ return ::operator new(nSize); }

  00036	68 a8 04 00 00	 push	 1192			; 000004a8H
  0003b	e8 00 00 00 00	 call	 ??2@YAPAXI@Z		; operator new
  00040	83 c4 04	 add	 esp, 4
; File D:\git\src\IBK\IBK_DRFN\ProjSrc\SrcDrfn\Chart\comparechart\TabDlgCreator.cpp

; 121  : 		CREATETAB(_pTab,CTabELWDlg)

  00043	89 45 08	 mov	 DWORD PTR $T6[ebp], eax
  00046	89 75 fc	 mov	 DWORD PTR __$EHRec$[ebp+8], esi
  00049	85 c0		 test	 eax, eax
  0004b	74 0c		 je	 SHORT $LN18@CreateTabD
  0004d	56		 push	 esi
  0004e	8b c8		 mov	 ecx, eax
  00050	e8 00 00 00 00	 call	 ??0CTabELWDlg@@QAE@PAVCWnd@@@Z ; CTabELWDlg::CTabELWDlg
  00055	8b f0		 mov	 esi, eax
  00057	eb 02		 jmp	 SHORT $LN19@CreateTabD
$LN18@CreateTabD:
  00059	33 f6		 xor	 esi, esi
$LN19@CreateTabD:
  0005b	c7 45 fc ff ff
	ff ff		 mov	 DWORD PTR __$EHRec$[ebp+8], -1
  00062	85 f6		 test	 esi, esi
  00064	0f 84 dc 01 00
	00		 je	 $LN12@CreateTabD
  0006a	8b 47 04	 mov	 eax, DWORD PTR [edi+4]
  0006d	89 86 c0 00 00
	00		 mov	 DWORD PTR [esi+192], eax
  00073	8b 47 0c	 mov	 eax, DWORD PTR [edi+12]
  00076	89 86 c4 00 00
	00		 mov	 DWORD PTR [esi+196], eax
  0007c	8b 47 10	 mov	 eax, DWORD PTR [edi+16]
  0007f	89 86 c8 00 00
	00		 mov	 DWORD PTR [esi+200], eax
  00085	ff 77 08	 push	 DWORD PTR [edi+8]
  00088	68 ea 2e 00 00	 push	 12010			; 00002eeaH

; 122  : 		return _pTab;

  0008d	e9 aa 01 00 00	 jmp	 $LN44@CreateTabD
$LN6@CreateTabD:

; 123  : 	}
; 124  : 
; 125  : 	if(((CStdDialog*)m_pCompareChartWnd)->m_nScreenType == CStdDialog::Screen_ForeignChart)

  00092	83 f8 02	 cmp	 eax, 2
  00095	75 74		 jne	 SHORT $LN8@CreateTabD

; 126  : 	{
; 127  : 		switch(nIndex)

  00097	39 75 08	 cmp	 DWORD PTR _nIndex$[ebp], esi
  0009a	0f 85 a6 01 00
	00		 jne	 $LN12@CreateTabD
; File C:\Program Files (x86)\Microsoft Visual Studio\2019\Community\VC\Tools\MSVC\14.29.30133\atlmfc\include\afx.inl

; 116  : 	{ return ::operator new(nSize); }

  000a0	68 28 06 00 00	 push	 1576			; 00000628H
  000a5	e8 00 00 00 00	 call	 ??2@YAPAXI@Z		; operator new
  000aa	83 c4 04	 add	 esp, 4
; File D:\git\src\IBK\IBK_DRFN\ProjSrc\SrcDrfn\Chart\comparechart\TabDlgCreator.cpp

; 136  : 			CREATETAB(_pTab,CTabUpJongDlg)		break;

  000ad	89 45 08	 mov	 DWORD PTR $T5[ebp], eax
  000b0	c7 45 fc 01 00
	00 00		 mov	 DWORD PTR __$EHRec$[ebp+8], 1
  000b7	85 c0		 test	 eax, eax
  000b9	74 0d		 je	 SHORT $LN20@CreateTabD
  000bb	6a 00		 push	 0
  000bd	8b c8		 mov	 ecx, eax
  000bf	e8 00 00 00 00	 call	 ??0CTabUpJongDlg@@QAE@PAVCWnd@@@Z ; CTabUpJongDlg::CTabUpJongDlg
  000c4	8b f0		 mov	 esi, eax
  000c6	eb 02		 jmp	 SHORT $LN21@CreateTabD
$LN20@CreateTabD:
  000c8	33 f6		 xor	 esi, esi
$LN21@CreateTabD:
  000ca	c7 45 fc ff ff
	ff ff		 mov	 DWORD PTR __$EHRec$[ebp+8], -1
  000d1	85 f6		 test	 esi, esi
  000d3	0f 84 6d 01 00
	00		 je	 $LN12@CreateTabD
  000d9	8b 47 04	 mov	 eax, DWORD PTR [edi+4]
  000dc	8b ce		 mov	 ecx, esi
  000de	8b 16		 mov	 edx, DWORD PTR [esi]
  000e0	89 86 c0 00 00
	00		 mov	 DWORD PTR [esi+192], eax
  000e6	8b 47 0c	 mov	 eax, DWORD PTR [edi+12]
  000e9	89 86 c4 00 00
	00		 mov	 DWORD PTR [esi+196], eax
  000ef	8b 47 10	 mov	 eax, DWORD PTR [edi+16]
  000f2	89 86 c8 00 00
	00		 mov	 DWORD PTR [esi+200], eax
  000f8	ff 77 08	 push	 DWORD PTR [edi+8]
  000fb	68 e8 2e 00 00	 push	 12008			; 00002ee8H
  00100	ff 92 6c 01 00
	00		 call	 DWORD PTR [edx+364]

; 137  : 		}
; 138  : 		return _pTab;

  00106	e9 3b 01 00 00	 jmp	 $LN12@CreateTabD
$LN8@CreateTabD:

; 139  : 	}
; 140  : 
; 141  : 	switch(nIndex)

  0010b	8b 45 08	 mov	 eax, DWORD PTR _nIndex$[ebp]
  0010e	83 e8 00	 sub	 eax, 0
  00111	0f 84 cd 00 00
	00		 je	 $LN11@CreateTabD
  00117	83 e8 01	 sub	 eax, 1
  0011a	74 6a		 je	 SHORT $LN13@CreateTabD
  0011c	83 e8 01	 sub	 eax, 1
  0011f	0f 85 21 01 00
	00		 jne	 $LN12@CreateTabD
; File C:\Program Files (x86)\Microsoft Visual Studio\2019\Community\VC\Tools\MSVC\14.29.30133\atlmfc\include\afx.inl

; 116  : 	{ return ::operator new(nSize); }

  00125	68 38 04 00 00	 push	 1080			; 00000438H
  0012a	e8 00 00 00 00	 call	 ??2@YAPAXI@Z		; operator new
  0012f	83 c4 04	 add	 esp, 4
; File D:\git\src\IBK\IBK_DRFN\ProjSrc\SrcDrfn\Chart\comparechart\TabDlgCreator.cpp

; 151  : 			CREATETAB(_pTab,CTabCodeSearchFO)		break;

  00132	89 45 08	 mov	 DWORD PTR $T2[ebp], eax
  00135	c7 45 fc 04 00
	00 00		 mov	 DWORD PTR __$EHRec$[ebp+8], 4
  0013c	85 c0		 test	 eax, eax
  0013e	74 0d		 je	 SHORT $LN26@CreateTabD
  00140	6a 00		 push	 0
  00142	8b c8		 mov	 ecx, eax
  00144	e8 00 00 00 00	 call	 ??0CTabCodeSearchFO@@QAE@PAVCWnd@@@Z ; CTabCodeSearchFO::CTabCodeSearchFO
  00149	8b f0		 mov	 esi, eax
  0014b	eb 02		 jmp	 SHORT $LN27@CreateTabD
$LN26@CreateTabD:
  0014d	33 f6		 xor	 esi, esi
$LN27@CreateTabD:
  0014f	c7 45 fc ff ff
	ff ff		 mov	 DWORD PTR __$EHRec$[ebp+8], -1
  00156	85 f6		 test	 esi, esi
  00158	0f 84 e8 00 00
	00		 je	 $LN12@CreateTabD
  0015e	8b 47 04	 mov	 eax, DWORD PTR [edi+4]
  00161	89 86 c0 00 00
	00		 mov	 DWORD PTR [esi+192], eax
  00167	8b 47 0c	 mov	 eax, DWORD PTR [edi+12]
  0016a	89 86 c4 00 00
	00		 mov	 DWORD PTR [esi+196], eax
  00170	8b 47 10	 mov	 eax, DWORD PTR [edi+16]
  00173	89 86 c8 00 00
	00		 mov	 DWORD PTR [esi+200], eax
  00179	ff 77 08	 push	 DWORD PTR [edi+8]
  0017c	68 e7 2e 00 00	 push	 12007			; 00002ee7H
  00181	e9 b6 00 00 00	 jmp	 $LN44@CreateTabD
$LN13@CreateTabD:
; File C:\Program Files (x86)\Microsoft Visual Studio\2019\Community\VC\Tools\MSVC\14.29.30133\atlmfc\include\afx.inl

; 116  : 	{ return ::operator new(nSize); }

  00186	68 28 06 00 00	 push	 1576			; 00000628H
  0018b	e8 00 00 00 00	 call	 ??2@YAPAXI@Z		; operator new
  00190	83 c4 04	 add	 esp, 4
; File D:\git\src\IBK\IBK_DRFN\ProjSrc\SrcDrfn\Chart\comparechart\TabDlgCreator.cpp

; 148  : 			CREATETAB(_pTab,CTabUpJongDlg)		break;

  00193	89 45 08	 mov	 DWORD PTR $T3[ebp], eax
  00196	c7 45 fc 03 00
	00 00		 mov	 DWORD PTR __$EHRec$[ebp+8], 3
  0019d	85 c0		 test	 eax, eax
  0019f	74 0d		 je	 SHORT $LN24@CreateTabD
  001a1	6a 00		 push	 0
  001a3	8b c8		 mov	 ecx, eax
  001a5	e8 00 00 00 00	 call	 ??0CTabUpJongDlg@@QAE@PAVCWnd@@@Z ; CTabUpJongDlg::CTabUpJongDlg
  001aa	8b f0		 mov	 esi, eax
  001ac	eb 02		 jmp	 SHORT $LN25@CreateTabD
$LN24@CreateTabD:
  001ae	33 f6		 xor	 esi, esi
$LN25@CreateTabD:
  001b0	c7 45 fc ff ff
	ff ff		 mov	 DWORD PTR __$EHRec$[ebp+8], -1
  001b7	85 f6		 test	 esi, esi
  001b9	0f 84 87 00 00
	00		 je	 $LN12@CreateTabD
  001bf	8b 47 04	 mov	 eax, DWORD PTR [edi+4]
  001c2	89 86 c0 00 00
	00		 mov	 DWORD PTR [esi+192], eax
  001c8	8b 47 0c	 mov	 eax, DWORD PTR [edi+12]
  001cb	89 86 c4 00 00
	00		 mov	 DWORD PTR [esi+196], eax
  001d1	8b 47 10	 mov	 eax, DWORD PTR [edi+16]
  001d4	89 86 c8 00 00
	00		 mov	 DWORD PTR [esi+200], eax
  001da	ff 77 08	 push	 DWORD PTR [edi+8]
  001dd	68 e8 2e 00 00	 push	 12008			; 00002ee8H
  001e2	eb 58		 jmp	 SHORT $LN44@CreateTabD
$LN11@CreateTabD:
; File C:\Program Files (x86)\Microsoft Visual Studio\2019\Community\VC\Tools\MSVC\14.29.30133\atlmfc\include\afx.inl

; 116  : 	{ return ::operator new(nSize); }

  001e4	68 a8 04 00 00	 push	 1192			; 000004a8H
  001e9	e8 00 00 00 00	 call	 ??2@YAPAXI@Z		; operator new
  001ee	83 c4 04	 add	 esp, 4
; File D:\git\src\IBK\IBK_DRFN\ProjSrc\SrcDrfn\Chart\comparechart\TabDlgCreator.cpp

; 146  : 			CREATETAB(_pTab,CTabStockDlg)		break;

  001f1	89 45 08	 mov	 DWORD PTR $T4[ebp], eax
  001f4	c7 45 fc 02 00
	00 00		 mov	 DWORD PTR __$EHRec$[ebp+8], 2
  001fb	85 c0		 test	 eax, eax
  001fd	74 0d		 je	 SHORT $LN22@CreateTabD
  001ff	6a 00		 push	 0
  00201	8b c8		 mov	 ecx, eax
  00203	e8 00 00 00 00	 call	 ??0CTabStockDlg@@QAE@PAVCWnd@@@Z ; CTabStockDlg::CTabStockDlg
  00208	8b f0		 mov	 esi, eax
  0020a	eb 02		 jmp	 SHORT $LN23@CreateTabD
$LN22@CreateTabD:
  0020c	33 f6		 xor	 esi, esi
$LN23@CreateTabD:
  0020e	c7 45 fc ff ff
	ff ff		 mov	 DWORD PTR __$EHRec$[ebp+8], -1
  00215	85 f6		 test	 esi, esi
  00217	74 2d		 je	 SHORT $LN12@CreateTabD
  00219	8b 47 04	 mov	 eax, DWORD PTR [edi+4]
  0021c	89 86 c0 00 00
	00		 mov	 DWORD PTR [esi+192], eax
  00222	8b 47 0c	 mov	 eax, DWORD PTR [edi+12]
  00225	89 86 c4 00 00
	00		 mov	 DWORD PTR [esi+196], eax
  0022b	8b 47 10	 mov	 eax, DWORD PTR [edi+16]
  0022e	89 86 c8 00 00
	00		 mov	 DWORD PTR [esi+200], eax
  00234	ff 77 08	 push	 DWORD PTR [edi+8]
  00237	68 e6 2e 00 00	 push	 12006			; 00002ee6H
$LN44@CreateTabD:

; 152  : 	//	case TABNO_FOREIGN:	
; 153  : 	//		CREATETAB(_pTab,CTabForeignDlg)		break;	
; 154  : 	}
; 155  : 
; 156  : 	return _pTab;
; 157  : }

  0023c	8b 06		 mov	 eax, DWORD PTR [esi]
  0023e	8b ce		 mov	 ecx, esi
  00240	ff 90 6c 01 00
	00		 call	 DWORD PTR [eax+364]
$LN12@CreateTabD:
  00246	8b c6		 mov	 eax, esi
  00248	8b 4d f4	 mov	 ecx, DWORD PTR __$EHRec$[ebp]
  0024b	64 89 0d 00 00
	00 00		 mov	 DWORD PTR fs:0, ecx
  00252	59		 pop	 ecx
  00253	5f		 pop	 edi
  00254	5e		 pop	 esi
  00255	8b e5		 mov	 esp, ebp
  00257	5d		 pop	 ebp
  00258	c2 04 00	 ret	 4
_TEXT	ENDS
;	COMDAT text$x
text$x	SEGMENT
__unwindfunclet$?CreateTabDlg@CTabDlgCreator@@QAEPAVCTabDlg@@I@Z$0:
  00000	8b 45 08	 mov	 eax, DWORD PTR $T6[ebp]
  00003	50		 push	 eax
  00004	e8 00 00 00 00	 call	 ??3CObject@@SGXPAX@Z	; CObject::operator delete
  00009	c3		 ret	 0
__unwindfunclet$?CreateTabDlg@CTabDlgCreator@@QAEPAVCTabDlg@@I@Z$1:
  0000a	8b 45 08	 mov	 eax, DWORD PTR $T5[ebp]
  0000d	50		 push	 eax
  0000e	e8 00 00 00 00	 call	 ??3CObject@@SGXPAX@Z	; CObject::operator delete
  00013	c3		 ret	 0
__unwindfunclet$?CreateTabDlg@CTabDlgCreator@@QAEPAVCTabDlg@@I@Z$4:
  00014	8b 45 08	 mov	 eax, DWORD PTR $T2[ebp]
  00017	50		 push	 eax
  00018	e8 00 00 00 00	 call	 ??3CObject@@SGXPAX@Z	; CObject::operator delete
  0001d	c3		 ret	 0
__unwindfunclet$?CreateTabDlg@CTabDlgCreator@@QAEPAVCTabDlg@@I@Z$3:
  0001e	8b 45 08	 mov	 eax, DWORD PTR $T3[ebp]
  00021	50		 push	 eax
  00022	e8 00 00 00 00	 call	 ??3CObject@@SGXPAX@Z	; CObject::operator delete
  00027	c3		 ret	 0
__unwindfunclet$?CreateTabDlg@CTabDlgCreator@@QAEPAVCTabDlg@@I@Z$2:
  00028	8b 45 08	 mov	 eax, DWORD PTR $T4[ebp]
  0002b	50		 push	 eax
  0002c	e8 00 00 00 00	 call	 ??3CObject@@SGXPAX@Z	; CObject::operator delete
  00031	c3		 ret	 0
  00032	cc		 int	 3
  00033	cc		 int	 3
  00034	cc		 int	 3
  00035	cc		 int	 3
  00036	cc		 int	 3
__ehhandler$?CreateTabDlg@CTabDlgCreator@@QAEPAVCTabDlg@@I@Z:
  00037	90		 npad	 1
  00038	90		 npad	 1
  00039	8b 54 24 08	 mov	 edx, DWORD PTR [esp+8]
  0003d	8d 42 0c	 lea	 eax, DWORD PTR [edx+12]
  00040	8b 4a f4	 mov	 ecx, DWORD PTR [edx-12]
  00043	33 c8		 xor	 ecx, eax
  00045	e8 00 00 00 00	 call	 @__security_check_cookie@4
  0004a	b8 00 00 00 00	 mov	 eax, OFFSET __ehfuncinfo$?CreateTabDlg@CTabDlgCreator@@QAEPAVCTabDlg@@I@Z
  0004f	e9 00 00 00 00	 jmp	 ___CxxFrameHandler3
text$x	ENDS
?CreateTabDlg@CTabDlgCreator@@QAEPAVCTabDlg@@I@Z ENDP	; CTabDlgCreator::CreateTabDlg
; Function compile flags: /Ogtp
; File D:\git\src\IBK\IBK_DRFN\ProjSrc\SrcDrfn\Chart\comparechart\TabDlgCreator.cpp
;	COMDAT ?GetCaptionOfTabDlg@CTabDlgCreator@@QAEXIPAD@Z
_TEXT	SEGMENT
_nIndex$ = 8						; size = 4
_pszCaption$ = 12					; size = 4
?GetCaptionOfTabDlg@CTabDlgCreator@@QAEXIPAD@Z PROC	; CTabDlgCreator::GetCaptionOfTabDlg, COMDAT
; _this$ = ecx

; 71   : {

  00000	55		 push	 ebp
  00001	8b ec		 mov	 ebp, esp

; 72   : 	if(((CStdDialog*)m_pCompareChartWnd)->m_nScreenType == CStdDialog::Screen_ELWChart)

  00003	8b 41 0c	 mov	 eax, DWORD PTR [ecx+12]
  00006	8b 80 e4 02 00
	00		 mov	 eax, DWORD PTR [eax+740]
  0000c	83 f8 01	 cmp	 eax, 1
  0000f	75 0d		 jne	 SHORT $LN6@GetCaption

; 73   : 	{
; 74   : 		strcpy(pszCaption, TAB_ELW);

  00011	8b 45 0c	 mov	 eax, DWORD PTR _pszCaption$[ebp]
  00014	c7 00 45 4c 57
	00		 mov	 DWORD PTR [eax], 5721157 ; 00574c45H

; 109  : 			break;
; 110  : 	//	case TABNO_FOREIGN:
; 111  : 	//		strcpy(pszCaption,TAB_FOREIGN);
; 112  : 			break;
; 113  : 	}
; 114  : }

  0001a	5d		 pop	 ebp
  0001b	c2 08 00	 ret	 8
$LN6@GetCaption:

; 75   : 		return;
; 76   : 	}
; 77   : 
; 78   : 	if(((CStdDialog*)m_pCompareChartWnd)->m_nScreenType == CStdDialog::Screen_ForeignChart)

  0001e	83 f8 02	 cmp	 eax, 2
  00021	75 1c		 jne	 SHORT $LN7@GetCaption

; 79   : 	{
; 80   : 		switch(nIndex)

  00023	83 7d 08 00	 cmp	 DWORD PTR _nIndex$[ebp], 0
  00027	75 52		 jne	 SHORT $LN4@GetCaption
$LN10@GetCaption:

; 109  : 			break;
; 110  : 	//	case TABNO_FOREIGN:
; 111  : 	//		strcpy(pszCaption,TAB_FOREIGN);
; 112  : 			break;
; 113  : 	}
; 114  : }

  00029	8b 4d 0c	 mov	 ecx, DWORD PTR _pszCaption$[ebp]
  0002c	a1 00 00 00 00	 mov	 eax, DWORD PTR ??_C@_04GHLAOPMI@?$LO?w?A?$LO@
  00031	89 01		 mov	 DWORD PTR [ecx], eax
  00033	a0 04 00 00 00	 mov	 al, BYTE PTR ??_C@_04GHLAOPMI@?$LO?w?A?$LO@+4
  00038	88 41 04	 mov	 BYTE PTR [ecx+4], al
  0003b	5d		 pop	 ebp
  0003c	c2 08 00	 ret	 8
$LN7@GetCaption:

; 81   : 		{
; 82   : //	20130515 이상신 : 해외지수 삭제.(issue No - 0006748)
; 83   : /*		case TABNO_STOCK:
; 84   : 			strcpy(pszCaption,"해외");
; 85   : 			break;
; 86   : 		case TABNO_UPJONG:
; 87   : 			strcpy(pszCaption,TAB_UPJONG);
; 88   : 			break;
; 89   : */
; 90   : 		case TABNO_STOCK:
; 91   : 			strcpy(pszCaption,TAB_UPJONG);
; 92   : 			break;
; 93   : 		}
; 94   : 		return;
; 95   : 	}
; 96   : 	switch(nIndex)

  0003f	8b 45 08	 mov	 eax, DWORD PTR _nIndex$[ebp]
  00042	83 e8 00	 sub	 eax, 0
  00045	74 22		 je	 SHORT $LN9@GetCaption
  00047	83 e8 01	 sub	 eax, 1
  0004a	74 dd		 je	 SHORT $LN10@GetCaption
  0004c	83 e8 01	 sub	 eax, 1
  0004f	75 2a		 jne	 SHORT $LN4@GetCaption

; 103  : 			break;
; 104  : 		case TABNO_UPJONG:
; 105  : 			strcpy(pszCaption,TAB_UPJONG);
; 106  : 			break;
; 107  : 		case TABNO_FUTOPT:
; 108  : 			strcpy(pszCaption,TAB_FUTOPT);

  00051	8b 4d 0c	 mov	 ecx, DWORD PTR _pszCaption$[ebp]
  00054	a1 00 00 00 00	 mov	 eax, DWORD PTR ??_C@_05CCPJMGLE@?$LM?$LB?1?$LP?I@
  00059	89 01		 mov	 DWORD PTR [ecx], eax
  0005b	66 a1 04 00 00
	00		 mov	 ax, WORD PTR ??_C@_05CCPJMGLE@?$LM?$LB?1?$LP?I@+4
  00061	66 89 41 04	 mov	 WORD PTR [ecx+4], ax

; 109  : 			break;
; 110  : 	//	case TABNO_FOREIGN:
; 111  : 	//		strcpy(pszCaption,TAB_FOREIGN);
; 112  : 			break;
; 113  : 	}
; 114  : }

  00065	5d		 pop	 ebp
  00066	c2 08 00	 ret	 8
$LN9@GetCaption:

; 97   : 	{
; 98   : //		case TABNO_FAVORITE:
; 99   : //			strcpy(pszCaption,TAB_FAVORITE);
; 100  : //			break;
; 101  : 		case TABNO_STOCK:
; 102  : 			strcpy(pszCaption,TAB_STOCK);

  00069	8b 4d 0c	 mov	 ecx, DWORD PTR _pszCaption$[ebp]
  0006c	a1 00 00 00 00	 mov	 eax, DWORD PTR ??_C@_04IMIHFAMF@?A?V?$LN?D@
  00071	89 01		 mov	 DWORD PTR [ecx], eax
  00073	a0 04 00 00 00	 mov	 al, BYTE PTR ??_C@_04IMIHFAMF@?A?V?$LN?D@+4

; 109  : 			break;
; 110  : 	//	case TABNO_FOREIGN:
; 111  : 	//		strcpy(pszCaption,TAB_FOREIGN);
; 112  : 			break;
; 113  : 	}
; 114  : }

  00078	88 41 04	 mov	 BYTE PTR [ecx+4], al
$LN4@GetCaption:
  0007b	5d		 pop	 ebp
  0007c	c2 08 00	 ret	 8
?GetCaptionOfTabDlg@CTabDlgCreator@@QAEXIPAD@Z ENDP	; CTabDlgCreator::GetCaptionOfTabDlg
_TEXT	ENDS
; Function compile flags: /Ogtp
; File D:\git\src\IBK\IBK_DRFN\ProjSrc\SrcDrfn\Chart\comparechart\TabDlgCreator.cpp
;	COMDAT ?Init@CTabDlgCreator@@QAEXPAVCWnd@@PAVCLeftBarDlg@@PAVCTabCtrl@@0PAX@Z
_TEXT	SEGMENT
_pCompareChartWnd$ = 8					; size = 4
_pParentDlg$ = 12					; size = 4
_pTabCtrl$ = 16						; size = 4
_pChartMng$ = 20					; size = 4
_pDBMgr$ = 24						; size = 4
?Init@CTabDlgCreator@@QAEXPAVCWnd@@PAVCLeftBarDlg@@PAVCTabCtrl@@0PAX@Z PROC ; CTabDlgCreator::Init, COMDAT
; _this$ = ecx

; 56   : {

  00000	55		 push	 ebp
  00001	8b ec		 mov	 ebp, esp

; 57   : 	m_pCompareChartWnd = pCompareChartWnd;

  00003	8b 45 08	 mov	 eax, DWORD PTR _pCompareChartWnd$[ebp]
  00006	89 41 0c	 mov	 DWORD PTR [ecx+12], eax

; 58   : 	m_pParentDlg = pParentDlg;

  00009	8b 45 0c	 mov	 eax, DWORD PTR _pParentDlg$[ebp]
  0000c	89 41 04	 mov	 DWORD PTR [ecx+4], eax

; 59   : 	m_pTabCtrl = pTabCtrl;

  0000f	8b 45 10	 mov	 eax, DWORD PTR _pTabCtrl$[ebp]
  00012	89 41 08	 mov	 DWORD PTR [ecx+8], eax

; 60   : 	m_pChartMng = pChartMng;

  00015	8b 45 14	 mov	 eax, DWORD PTR _pChartMng$[ebp]
  00018	89 41 10	 mov	 DWORD PTR [ecx+16], eax

; 61   : 	m_pDBMgr	= pDBMgr;

  0001b	8b 45 18	 mov	 eax, DWORD PTR _pDBMgr$[ebp]
  0001e	89 41 14	 mov	 DWORD PTR [ecx+20], eax

; 62   : }

  00021	5d		 pop	 ebp
  00022	c2 14 00	 ret	 20			; 00000014H
?Init@CTabDlgCreator@@QAEXPAVCWnd@@PAVCLeftBarDlg@@PAVCTabCtrl@@0PAX@Z ENDP ; CTabDlgCreator::Init
_TEXT	ENDS
; Function compile flags: /Ogtp
; File D:\git\src\IBK\IBK_DRFN\ProjSrc\SrcDrfn\Chart\comparechart\TabDlgCreator.cpp
;	COMDAT ??1CTabDlgCreator@@UAE@XZ
_TEXT	SEGMENT
??1CTabDlgCreator@@UAE@XZ PROC				; CTabDlgCreator::~CTabDlgCreator, COMDAT
; _this$ = ecx

; 51   : {

  00000	c7 01 00 00 00
	00		 mov	 DWORD PTR [ecx], OFFSET ??_7CTabDlgCreator@@6B@

; 52   : 
; 53   : }

  00006	c3		 ret	 0
??1CTabDlgCreator@@UAE@XZ ENDP				; CTabDlgCreator::~CTabDlgCreator
_TEXT	ENDS
; Function compile flags: /Ogtp
; File D:\git\src\IBK\IBK_DRFN\ProjSrc\SrcDrfn\Chart\comparechart\TabDlgCreator.cpp
;	COMDAT ??0CTabDlgCreator@@QAE@XZ
_TEXT	SEGMENT
??0CTabDlgCreator@@QAE@XZ PROC				; CTabDlgCreator::CTabDlgCreator, COMDAT
; _this$ = ecx

; 42   : {

  00000	c7 01 00 00 00
	00		 mov	 DWORD PTR [ecx], OFFSET ??_7CTabDlgCreator@@6B@

; 43   : 	m_pParentDlg		= NULL;
; 44   : 	m_pTabCtrl			= NULL;
; 45   : 	m_pCompareChartWnd	= NULL;
; 46   : 	m_pChartMng			= NULL;
; 47   : 	m_pDBMgr			= NULL;
; 48   : }

  00006	8b c1		 mov	 eax, ecx
  00008	c7 41 04 00 00
	00 00		 mov	 DWORD PTR [ecx+4], 0
  0000f	c7 41 08 00 00
	00 00		 mov	 DWORD PTR [ecx+8], 0
  00016	c7 41 0c 00 00
	00 00		 mov	 DWORD PTR [ecx+12], 0
  0001d	c7 41 10 00 00
	00 00		 mov	 DWORD PTR [ecx+16], 0
  00024	c7 41 14 00 00
	00 00		 mov	 DWORD PTR [ecx+20], 0
  0002b	c3		 ret	 0
??0CTabDlgCreator@@QAE@XZ ENDP				; CTabDlgCreator::CTabDlgCreator
_TEXT	ENDS
; Function compile flags: /Ogtp
; File C:\Program Files (x86)\Microsoft Visual Studio\2019\Community\VC\Tools\MSVC\14.29.30133\atlmfc\include\afx.inl
;	COMDAT ??3CObject@@SGXPAX@Z
_TEXT	SEGMENT
_p$ = 8							; size = 4
??3CObject@@SGXPAX@Z PROC				; CObject::operator delete, COMDAT

; 112  : 	{ ::operator delete(p); }

  00000	55		 push	 ebp
  00001	8b ec		 mov	 ebp, esp
  00003	ff 75 08	 push	 DWORD PTR _p$[ebp]
  00006	e8 00 00 00 00	 call	 ??3@YAXPAX@Z		; operator delete
  0000b	83 c4 04	 add	 esp, 4
  0000e	5d		 pop	 ebp
  0000f	c2 04 00	 ret	 4
??3CObject@@SGXPAX@Z ENDP				; CObject::operator delete
_TEXT	ENDS
; Function compile flags: /Ogtp
; File D:\git\src\IBK\IBK_DRFN\ProjSrc\SrcDrfn\Chart\comparechart\TabDlgCreator.cpp
;	COMDAT ?__empty_global_delete@@YAXPAXI@Z
_TEXT	SEGMENT
___formal$ = 8						; size = 4
___formal$ = 12						; size = 4
?__empty_global_delete@@YAXPAXI@Z PROC			; __empty_global_delete, COMDAT

  00000	c2 00 00	 ret	 0
?__empty_global_delete@@YAXPAXI@Z ENDP			; __empty_global_delete
_TEXT	ENDS
; Function compile flags: /Ogtp
; File D:\git\src\IBK\IBK_DRFN\ProjSrc\SrcDrfn\Chart\comparechart\TabDlgCreator.cpp
;	COMDAT ?__empty_global_delete@@YAXPAX@Z
_TEXT	SEGMENT
___formal$ = 8						; size = 4
?__empty_global_delete@@YAXPAX@Z PROC			; __empty_global_delete, COMDAT

  00000	c2 00 00	 ret	 0
?__empty_global_delete@@YAXPAX@Z ENDP			; __empty_global_delete
_TEXT	ENDS
; Function compile flags: /Ogtp
;	COMDAT ??_H@YGXPAXIIP6EPAX0@Z@Z
_TEXT	SEGMENT
___t$ = 8						; size = 4
___s$ = 12						; size = 4
___n$ = 16						; size = 4
___f$ = 20						; size = 4
??_H@YGXPAXIIP6EPAX0@Z@Z PROC				; `vector constructor iterator', COMDAT
  00000	55		 push	 ebp
  00001	8b ec		 mov	 ebp, esp
  00003	56		 push	 esi
  00004	8b 75 10	 mov	 esi, DWORD PTR ___n$[ebp]
  00007	85 f6		 test	 esi, esi
  00009	74 16		 je	 SHORT $LN6@vector
  0000b	53		 push	 ebx
  0000c	8b 5d 14	 mov	 ebx, DWORD PTR ___f$[ebp]
  0000f	57		 push	 edi
  00010	8b 7d 08	 mov	 edi, DWORD PTR ___t$[ebp]
$LL2@vector:
  00013	8b cf		 mov	 ecx, edi
  00015	ff d3		 call	 ebx
  00017	03 7d 0c	 add	 edi, DWORD PTR ___s$[ebp]
  0001a	83 ee 01	 sub	 esi, 1
  0001d	75 f4		 jne	 SHORT $LL2@vector
  0001f	5f		 pop	 edi
  00020	5b		 pop	 ebx
$LN6@vector:
  00021	5e		 pop	 esi
  00022	5d		 pop	 ebp
  00023	c2 10 00	 ret	 16			; 00000010H
??_H@YGXPAXIIP6EPAX0@Z@Z ENDP				; `vector constructor iterator'
_TEXT	ENDS
END
