; Listing generated by Microsoft (R) Optimizing Compiler Version 19.29.30145.0 

	TITLE	D:\git\src\IBK\IBK_DRFN\#DRfn-CS\_Obj\CompareChart\TabStockDlg.obj
	.686P
	.XMM
	include listing.inc
	.model	flat

INCLUDELIB MSVCRT
INCLUDELIB OLDNAMES

PUBLIC	??_C@_0P@BKKCOCLK@RMSG_INTERFACE@		; `string'
PUBLIC	??_C@_0BB@IBKHOHJL@RMSG_REPLAY_REAL@		; `string'
PUBLIC	??_C@_0BB@JFLGBADG@RMSG_REPLAY_FAIL@		; `string'
PUBLIC	??_C@_0BI@KDGAIIMD@RMSG_REPLAY_CHANGE_DATE@	; `string'
PUBLIC	??_C@_0BA@NKHHCPON@RMSG_REPLAY_END@		; `string'
PUBLIC	??_C@_0BE@JFCIMCIP@RMSG_REPLAY_INC_SEC@		; `string'
PUBLIC	??_C@_0BG@GIAJEIJF@RMSG_REPLAY_TOTAL_SEC@	; `string'
PUBLIC	??_C@_0BC@LHNMEPFM@RMSG_SELCHARTCODE@		; `string'
PUBLIC	??_C@_0BE@FJPKENOB@RMSG_GETSIGNAL_REAL@		; `string'
PUBLIC	??_C@_0P@KHFCBIOH@RMSG_CHARTMAIN@		; `string'
PUBLIC	??_C@_0BC@MMPGLPDH@RMS_ANALYSIS_FUNC@		; `string'
PUBLIC	??_C@_0BA@HKNFENJL@RMSG_GET_USERID@		; `string'
PUBLIC	??_C@_0P@LFDACNFE@RMSG_KSDLLINFO@		; `string'
PUBLIC	??_C@_0N@IIOKMIEH@RMSG_GETINFO@			; `string'
PUBLIC	??_C@_0BG@CNPAHNGG@RMSG_CHANGE_SKINCOLOR@	; `string'
PUBLIC	??_C@_0BD@FLDNDDHK@RMSG_GET_SKINCOLOR@		; `string'
PUBLIC	??_C@_0BG@LNLCJKPF@RMSG_CHANGE_CROSSLINE@	; `string'
PUBLIC	??_C@_0BC@NOGENPAJ@RMSG_GETINTERFACE@		; `string'
;	COMDAT ??_C@_0BC@NOGENPAJ@RMSG_GETINTERFACE@
CONST	SEGMENT
??_C@_0BC@NOGENPAJ@RMSG_GETINTERFACE@ DB 'RMSG_GETINTERFACE', 00H ; `string'
CONST	ENDS
;	COMDAT ??_C@_0BG@LNLCJKPF@RMSG_CHANGE_CROSSLINE@
CONST	SEGMENT
??_C@_0BG@LNLCJKPF@RMSG_CHANGE_CROSSLINE@ DB 'RMSG_CHANGE_CROSSLINE', 00H ; `string'
CONST	ENDS
;	COMDAT ??_C@_0BD@FLDNDDHK@RMSG_GET_SKINCOLOR@
CONST	SEGMENT
??_C@_0BD@FLDNDDHK@RMSG_GET_SKINCOLOR@ DB 'RMSG_GET_SKINCOLOR', 00H ; `string'
CONST	ENDS
;	COMDAT ??_C@_0BG@CNPAHNGG@RMSG_CHANGE_SKINCOLOR@
CONST	SEGMENT
??_C@_0BG@CNPAHNGG@RMSG_CHANGE_SKINCOLOR@ DB 'RMSG_CHANGE_SKINCOLOR', 00H ; `string'
CONST	ENDS
;	COMDAT ??_C@_0N@IIOKMIEH@RMSG_GETINFO@
CONST	SEGMENT
??_C@_0N@IIOKMIEH@RMSG_GETINFO@ DB 'RMSG_GETINFO', 00H	; `string'
CONST	ENDS
;	COMDAT ??_C@_0P@LFDACNFE@RMSG_KSDLLINFO@
CONST	SEGMENT
??_C@_0P@LFDACNFE@RMSG_KSDLLINFO@ DB 'RMSG_KSDLLINFO', 00H ; `string'
CONST	ENDS
;	COMDAT ??_C@_0BA@HKNFENJL@RMSG_GET_USERID@
CONST	SEGMENT
??_C@_0BA@HKNFENJL@RMSG_GET_USERID@ DB 'RMSG_GET_USERID', 00H ; `string'
CONST	ENDS
;	COMDAT ??_C@_0BC@MMPGLPDH@RMS_ANALYSIS_FUNC@
CONST	SEGMENT
??_C@_0BC@MMPGLPDH@RMS_ANALYSIS_FUNC@ DB 'RMS_ANALYSIS_FUNC', 00H ; `string'
CONST	ENDS
;	COMDAT ??_C@_0P@KHFCBIOH@RMSG_CHARTMAIN@
CONST	SEGMENT
??_C@_0P@KHFCBIOH@RMSG_CHARTMAIN@ DB 'RMSG_CHARTMAIN', 00H ; `string'
CONST	ENDS
;	COMDAT ??_C@_0BE@FJPKENOB@RMSG_GETSIGNAL_REAL@
CONST	SEGMENT
??_C@_0BE@FJPKENOB@RMSG_GETSIGNAL_REAL@ DB 'RMSG_GETSIGNAL_REAL', 00H ; `string'
CONST	ENDS
;	COMDAT ??_C@_0BC@LHNMEPFM@RMSG_SELCHARTCODE@
CONST	SEGMENT
??_C@_0BC@LHNMEPFM@RMSG_SELCHARTCODE@ DB 'RMSG_SELCHARTCODE', 00H ; `string'
CONST	ENDS
;	COMDAT ??_C@_0BG@GIAJEIJF@RMSG_REPLAY_TOTAL_SEC@
CONST	SEGMENT
??_C@_0BG@GIAJEIJF@RMSG_REPLAY_TOTAL_SEC@ DB 'RMSG_REPLAY_TOTAL_SEC', 00H ; `string'
CONST	ENDS
;	COMDAT ??_C@_0BE@JFCIMCIP@RMSG_REPLAY_INC_SEC@
CONST	SEGMENT
??_C@_0BE@JFCIMCIP@RMSG_REPLAY_INC_SEC@ DB 'RMSG_REPLAY_INC_SEC', 00H ; `string'
CONST	ENDS
;	COMDAT ??_C@_0BA@NKHHCPON@RMSG_REPLAY_END@
CONST	SEGMENT
??_C@_0BA@NKHHCPON@RMSG_REPLAY_END@ DB 'RMSG_REPLAY_END', 00H ; `string'
CONST	ENDS
;	COMDAT ??_C@_0BI@KDGAIIMD@RMSG_REPLAY_CHANGE_DATE@
CONST	SEGMENT
??_C@_0BI@KDGAIIMD@RMSG_REPLAY_CHANGE_DATE@ DB 'RMSG_REPLAY_CHANGE_DATE', 00H ; `string'
CONST	ENDS
;	COMDAT ??_C@_0BB@JFLGBADG@RMSG_REPLAY_FAIL@
CONST	SEGMENT
??_C@_0BB@JFLGBADG@RMSG_REPLAY_FAIL@ DB 'RMSG_REPLAY_FAIL', 00H ; `string'
CONST	ENDS
;	COMDAT ??_C@_0BB@IBKHOHJL@RMSG_REPLAY_REAL@
CONST	SEGMENT
??_C@_0BB@IBKHOHJL@RMSG_REPLAY_REAL@ DB 'RMSG_REPLAY_REAL', 00H ; `string'
CONST	ENDS
;	COMDAT ??_C@_0P@BKKCOCLK@RMSG_INTERFACE@
CONST	SEGMENT
??_C@_0P@BKKCOCLK@RMSG_INTERFACE@ DB 'RMSG_INTERFACE', 00H ; `string'
CONST	ENDS
PUBLIC	?__empty_global_delete@@YAXPAX@Z		; __empty_global_delete
PUBLIC	?__empty_global_delete@@YAXPAXI@Z		; __empty_global_delete
PUBLIC	___local_stdio_scanf_options
PUBLIC	_sscanf
PUBLIC	?AfxCrtErrorCheck@@YAHH@Z			; AfxCrtErrorCheck
PUBLIC	??1CObject@@UAE@XZ				; CObject::~CObject
PUBLIC	??3CObject@@SGXPAX@Z				; CObject::operator delete
PUBLIC	?Serialize@CObject@@UAEXAAVCArchive@@@Z		; CObject::Serialize
PUBLIC	?AssertValid@CObject@@UBEXXZ			; CObject::AssertValid
PUBLIC	?Dump@CObject@@UBEXAAVCDumpContext@@@Z		; CObject::Dump
PUBLIC	?_AfxInitManaged@@YAHXZ				; _AfxInitManaged
PUBLIC	?DoDataExchange@CWnd@@MAEXPAVCDataExchange@@@Z	; CWnd::DoDataExchange
PUBLIC	?BeginModalState@CWnd@@UAEXXZ			; CWnd::BeginModalState
PUBLIC	?EndModalState@CWnd@@UAEXXZ			; CWnd::EndModalState
PUBLIC	??_GCComboBox@@UAEPAXI@Z			; CComboBox::`scalar deleting destructor'
PUBLIC	?SetBkColor@CRscDlg@@UAEXK@Z			; CRscDlg::SetBkColor
PUBLIC	?ReceiveData@CTabDlg@@UAEXPAUHWND__@@PBD11PAXJ@Z ; CTabDlg::ReceiveData
PUBLIC	?SetRealPriceData@CTabDlg@@UAEXPAX@Z		; CTabDlg::SetRealPriceData
PUBLIC	?ReceiveDataFromOutSide@CTabDlg@@UAEXXZ		; CTabDlg::ReceiveDataFromOutSide
PUBLIC	?GetRectOfCtrl@CTabDlg@@MAE?AVCRect@@HH@Z	; CTabDlg::GetRectOfCtrl
PUBLIC	?SetSize@?$CArray@PAU__MASTERCODE@@PAU1@@@QAEXHH@Z ; CArray<__MASTERCODE *,__MASTERCODE *>::SetSize
PUBLIC	?SetAtGrow@?$CArray@PAU__MASTERCODE@@PAU1@@@QAEXHPAU__MASTERCODE@@@Z ; CArray<__MASTERCODE *,__MASTERCODE *>::SetAtGrow
PUBLIC	??1CInputCodeListEx@@QAE@XZ			; CInputCodeListEx::~CInputCodeListEx
PUBLIC	?Convert@CCodeTypeBase@@UAEXPAD@Z		; CCodeTypeBase::Convert
PUBLIC	?Convert2@CCodeTypeBase@@UAEXPAD@Z		; CCodeTypeBase::Convert2
PUBLIC	?ConvertOneClickData@CCodeTypeBase@@UAEXPAD@Z	; CCodeTypeBase::ConvertOneClickData
PUBLIC	?Convert@CCodeTypeA@@UAEXPAD@Z			; CCodeTypeA::Convert
PUBLIC	?Convert2@CCodeTypeA@@UAEXPAD@Z			; CCodeTypeA::Convert2
PUBLIC	?ConvertOneClickData@CCodeTypeA@@UAEXPAD@Z	; CCodeTypeA::ConvertOneClickData
PUBLIC	??1CCodeTypeA@@QAE@XZ				; CCodeTypeA::~CCodeTypeA
PUBLIC	??0CTabStockDlg@@QAE@PAVCWnd@@@Z		; CTabStockDlg::CTabStockDlg
PUBLIC	?PreTranslateMessage@CTabStockDlg@@UAEHPAUtagMSG@@@Z ; CTabStockDlg::PreTranslateMessage
PUBLIC	?DoDataExchange@CTabStockDlg@@MAEXPAVCDataExchange@@@Z ; CTabStockDlg::DoDataExchange
PUBLIC	?WindowProc@CTabStockDlg@@MAEJIIJ@Z		; CTabStockDlg::WindowProc
PUBLIC	?OnInitDialog@CTabStockDlg@@MAEHXZ		; CTabStockDlg::OnInitDialog
PUBLIC	?OnSize@CTabStockDlg@@IAEXIHH@Z			; CTabStockDlg::OnSize
PUBLIC	?OnDestroy@CTabStockDlg@@IAEXXZ			; CTabStockDlg::OnDestroy
PUBLIC	?OnSelchangedTreesearch@CTabStockDlg@@IAEXPAUtagNMHDR@@PAJ@Z ; CTabStockDlg::OnSelchangedTreesearch
PUBLIC	?OnSelchangeCodeInput@CTabStockDlg@@IAEXXZ	; CTabStockDlg::OnSelchangeCodeInput
PUBLIC	?OnBtnAdd@CTabStockDlg@@IAEXXZ			; CTabStockDlg::OnBtnAdd
PUBLIC	?GetThisMessageMap@CTabStockDlg@@KGPBUAFX_MSGMAP@@XZ ; CTabStockDlg::GetThisMessageMap
PUBLIC	?GetMessageMap@CTabStockDlg@@MBEPBUAFX_MSGMAP@@XZ ; CTabStockDlg::GetMessageMap
PUBLIC	?ReceiveData@CTLMCallback@CTabStockDlg@@UAGXHDJHPAX@Z ; CTabStockDlg::CTLMCallback::ReceiveData
PUBLIC	?InitTreeSearch@CTabStockDlg@@QAEXXZ		; CTabStockDlg::InitTreeSearch
PUBLIC	?fnRemovelistStockCode@CTabStockDlg@@QAEXXZ	; CTabStockDlg::fnRemovelistStockCode
PUBLIC	?AdviseGwansim@CTabStockDlg@@QAEXXZ		; CTabStockDlg::AdviseGwansim
PUBLIC	?UnAdviseGwansim@CTabStockDlg@@QAEXXZ		; CTabStockDlg::UnAdviseGwansim
PUBLIC	?SetCodeFromOutSide@CTabStockDlg@@UAEXPBD@Z	; CTabStockDlg::SetCodeFromOutSide
PUBLIC	??0?$CList@PAVCItemLongData@@PAV1@@@QAE@H@Z	; CList<CItemLongData *,CItemLongData *>::CList<CItemLongData *,CItemLongData *>
PUBLIC	?AddTail@?$CList@PAVCItemLongData@@PAV1@@@QAEPAU__POSITION@@PAVCItemLongData@@@Z ; CList<CItemLongData *,CItemLongData *>::AddTail
PUBLIC	?RemoveAll@?$CList@PAVCItemLongData@@PAV1@@@QAEXXZ ; CList<CItemLongData *,CItemLongData *>::RemoveAll
PUBLIC	?NewNode@?$CList@PAVCItemLongData@@PAV1@@@IAEPAUCNode@1@PAU21@0@Z ; CList<CItemLongData *,CItemLongData *>::NewNode
PUBLIC	??1?$CList@PAVCItemLongData@@PAV1@@@UAE@XZ	; CList<CItemLongData *,CItemLongData *>::~CList<CItemLongData *,CItemLongData *>
PUBLIC	?Serialize@?$CList@PAVCItemLongData@@PAV1@@@UAEXAAVCArchive@@@Z ; CList<CItemLongData *,CItemLongData *>::Serialize
PUBLIC	??_G?$CList@PAVCItemLongData@@PAV1@@@UAEPAXI@Z	; CList<CItemLongData *,CItemLongData *>::`scalar deleting destructor'
PUBLIC	??_GCTabStockDlg@@UAEPAXI@Z			; CTabStockDlg::`scalar deleting destructor'
PUBLIC	??$SerializeElements@PAVCItemLongData@@@@YGXAAVCArchive@@PAPAVCItemLongData@@H@Z ; SerializeElements<CItemLongData *>
PUBLIC	?_OptionsStorage@?1??__local_stdio_scanf_options@@9@4_KA ; `__local_stdio_scanf_options'::`2'::_OptionsStorage
PUBLIC	??_C@_00CNPNBAHC@@				; `string'
PUBLIC	??_7CComboBox@@6B@				; CComboBox::`vftable'
PUBLIC	??_C@_0M@CBBNGGHM@PcTrMng?4dll@			; `string'
PUBLIC	??_C@_0P@IDMAJEGN@HANAROPCTRMAIN@		; `string'
PUBLIC	??_C@_06NDLAHCHE@?$CFs?$CF08X@			; `string'
PUBLIC	??_C@_02EMFKHFLK@?$CFX@				; `string'
PUBLIC	??_R0?AVCObject@@@8				; CObject `RTTI Type Descriptor'
PUBLIC	??_R3CObject@@8					; CObject::`RTTI Class Hierarchy Descriptor'
PUBLIC	??_R2CObject@@8					; CObject::`RTTI Base Class Array'
PUBLIC	??_R1A@?0A@EA@CObject@@8			; CObject::`RTTI Base Class Descriptor at (0,-1,0,64)'
PUBLIC	??_R1A@?0A@EA@CWnd@@8				; CWnd::`RTTI Base Class Descriptor at (0,-1,0,64)'
PUBLIC	??_R0?AVCWnd@@@8				; CWnd `RTTI Type Descriptor'
PUBLIC	??_R3CWnd@@8					; CWnd::`RTTI Class Hierarchy Descriptor'
PUBLIC	??_R2CWnd@@8					; CWnd::`RTTI Base Class Array'
PUBLIC	??_R1A@?0A@EA@CCmdTarget@@8			; CCmdTarget::`RTTI Base Class Descriptor at (0,-1,0,64)'
PUBLIC	??_R0?AVCCmdTarget@@@8				; CCmdTarget `RTTI Type Descriptor'
PUBLIC	??_R3CCmdTarget@@8				; CCmdTarget::`RTTI Class Hierarchy Descriptor'
PUBLIC	??_R2CCmdTarget@@8				; CCmdTarget::`RTTI Base Class Array'
PUBLIC	??_R4CComboBox@@6B@				; CComboBox::`RTTI Complete Object Locator'
PUBLIC	??_R0?AVCComboBox@@@8				; CComboBox `RTTI Type Descriptor'
PUBLIC	??_R3CComboBox@@8				; CComboBox::`RTTI Class Hierarchy Descriptor'
PUBLIC	??_R2CComboBox@@8				; CComboBox::`RTTI Base Class Array'
PUBLIC	??_R1A@?0A@EA@CComboBox@@8			; CComboBox::`RTTI Base Class Descriptor at (0,-1,0,64)'
PUBLIC	??_R1A@?0A@EA@CDialog@@8			; CDialog::`RTTI Base Class Descriptor at (0,-1,0,64)'
PUBLIC	??_R0?AVCDialog@@@8				; CDialog `RTTI Type Descriptor'
PUBLIC	??_R3CDialog@@8					; CDialog::`RTTI Class Hierarchy Descriptor'
PUBLIC	??_R2CDialog@@8					; CDialog::`RTTI Base Class Array'
PUBLIC	??_C@_08KDNPGENH@TREELIST@			; `string'
PUBLIC	??_7CCodeTypeBase@@6B@				; CCodeTypeBase::`vftable'
PUBLIC	??_C@_05KBKNOCPJ@?$CF2?42s@			; `string'
PUBLIC	??_C@_02BJKMHJON@?$KI?W@			; `string'
PUBLIC	??_C@_02IJKLNJNJ@?$KI?$OA@			; `string'
PUBLIC	??_7CCodeTypeA@@6B@				; CCodeTypeA::`vftable'
PUBLIC	??_7CTLMCallback@CTabStockDlg@@6B@		; CTabStockDlg::CTLMCallback::`vftable'
PUBLIC	??_7?$CList@PAVCItemLongData@@PAV1@@@6B@	; CList<CItemLongData *,CItemLongData *>::`vftable'
PUBLIC	??_7CTabStockDlg@@6B@				; CTabStockDlg::`vftable'
PUBLIC	??_C@_04IMIHFAMF@?A?V?$LN?D@			; `string'
PUBLIC	??_C@_04JLBNEAJO@?C?$NP?$LA?$KB@		; `string'
PUBLIC	??_C@_08KMOBEFEF@?A?$LO?$LI?q?$LI?m?$LM?x@	; `string'
PUBLIC	??_C@_0L@GENKOAG@?A?$LO?$LI?q?D?Z?$LF?e?$LM?x@	; `string'
PUBLIC	??_C@_0BC@KBBCDNCC@COMPCHARTTREELIST@		; `string'
PUBLIC	??_C@_0L@DIKICJIA@SCREENCODE@			; `string'
PUBLIC	??_C@_09MICNPEAJ@DRFNGWAN?3@			; `string'
PUBLIC	??_C@_05LMFDOBNM@?$CFs?$HM?$CFs@		; `string'
PUBLIC	??_C@_0BA@INBCGBNE@?$CF08X?7?$CF08X?7?$CF08X?7@	; `string'
PUBLIC	??_R0?AUITLMCallback@@@8			; ITLMCallback `RTTI Type Descriptor'
PUBLIC	??_R3ITLMCallback@@8				; ITLMCallback::`RTTI Class Hierarchy Descriptor'
PUBLIC	??_R2ITLMCallback@@8				; ITLMCallback::`RTTI Base Class Array'
PUBLIC	??_R1A@?0A@EA@ITLMCallback@@8			; ITLMCallback::`RTTI Base Class Descriptor at (0,-1,0,64)'
PUBLIC	??_R4?$CList@PAVCItemLongData@@PAV1@@@6B@	; CList<CItemLongData *,CItemLongData *>::`RTTI Complete Object Locator'
PUBLIC	??_R0?AV?$CList@PAVCItemLongData@@PAV1@@@@8	; CList<CItemLongData *,CItemLongData *> `RTTI Type Descriptor'
PUBLIC	??_R3?$CList@PAVCItemLongData@@PAV1@@@8		; CList<CItemLongData *,CItemLongData *>::`RTTI Class Hierarchy Descriptor'
PUBLIC	??_R2?$CList@PAVCItemLongData@@PAV1@@@8		; CList<CItemLongData *,CItemLongData *>::`RTTI Base Class Array'
PUBLIC	??_R1A@?0A@EA@?$CList@PAVCItemLongData@@PAV1@@@8 ; CList<CItemLongData *,CItemLongData *>::`RTTI Base Class Descriptor at (0,-1,0,64)'
PUBLIC	??_R4CCodeTypeBase@@6B@				; CCodeTypeBase::`RTTI Complete Object Locator'
PUBLIC	??_R0?AVCCodeTypeBase@@@8			; CCodeTypeBase `RTTI Type Descriptor'
PUBLIC	??_R3CCodeTypeBase@@8				; CCodeTypeBase::`RTTI Class Hierarchy Descriptor'
PUBLIC	??_R2CCodeTypeBase@@8				; CCodeTypeBase::`RTTI Base Class Array'
PUBLIC	??_R1A@?0A@EA@CCodeTypeBase@@8			; CCodeTypeBase::`RTTI Base Class Descriptor at (0,-1,0,64)'
PUBLIC	??_R4CCodeTypeA@@6B@				; CCodeTypeA::`RTTI Complete Object Locator'
PUBLIC	??_R0?AVCCodeTypeA@@@8				; CCodeTypeA `RTTI Type Descriptor'
PUBLIC	??_R3CCodeTypeA@@8				; CCodeTypeA::`RTTI Class Hierarchy Descriptor'
PUBLIC	??_R2CCodeTypeA@@8				; CCodeTypeA::`RTTI Base Class Array'
PUBLIC	??_R1A@?0A@EA@CCodeTypeA@@8			; CCodeTypeA::`RTTI Base Class Descriptor at (0,-1,0,64)'
PUBLIC	??_R4CTabStockDlg@@6B@				; CTabStockDlg::`RTTI Complete Object Locator'
PUBLIC	??_R0?AVCTabStockDlg@@@8			; CTabStockDlg `RTTI Type Descriptor'
PUBLIC	??_R3CTabStockDlg@@8				; CTabStockDlg::`RTTI Class Hierarchy Descriptor'
PUBLIC	??_R2CTabStockDlg@@8				; CTabStockDlg::`RTTI Base Class Array'
PUBLIC	??_R1A@?0A@EA@CTabStockDlg@@8			; CTabStockDlg::`RTTI Base Class Descriptor at (0,-1,0,64)'
PUBLIC	??_R1A@?0A@EA@CTabDlg@@8			; CTabDlg::`RTTI Base Class Descriptor at (0,-1,0,64)'
PUBLIC	??_R0?AVCTabDlg@@@8				; CTabDlg `RTTI Type Descriptor'
PUBLIC	??_R3CTabDlg@@8					; CTabDlg::`RTTI Class Hierarchy Descriptor'
PUBLIC	??_R2CTabDlg@@8					; CTabDlg::`RTTI Base Class Array'
PUBLIC	??_R1A@?0A@EA@CRscDlg@@8			; CRscDlg::`RTTI Base Class Descriptor at (0,-1,0,64)'
PUBLIC	??_R0?AVCRscDlg@@@8				; CRscDlg `RTTI Type Descriptor'
PUBLIC	??_R3CRscDlg@@8					; CRscDlg::`RTTI Class Hierarchy Descriptor'
PUBLIC	??_R2CRscDlg@@8					; CRscDlg::`RTTI Base Class Array'
PUBLIC	??_R4CTLMCallback@CTabStockDlg@@6B@		; CTabStockDlg::CTLMCallback::`RTTI Complete Object Locator'
PUBLIC	??_R0?AVCTLMCallback@CTabStockDlg@@@8		; CTabStockDlg::CTLMCallback `RTTI Type Descriptor'
PUBLIC	??_R3CTLMCallback@CTabStockDlg@@8		; CTabStockDlg::CTLMCallback::`RTTI Class Hierarchy Descriptor'
PUBLIC	??_R2CTLMCallback@CTabStockDlg@@8		; CTabStockDlg::CTLMCallback::`RTTI Base Class Array'
PUBLIC	??_R1A@?0A@EA@CTLMCallback@CTabStockDlg@@8	; CTabStockDlg::CTLMCallback::`RTTI Base Class Descriptor at (0,-1,0,64)'
EXTRN	??2@YAPAXI@Z:PROC				; operator new
EXTRN	??3@YAXPAX@Z:PROC				; operator delete
EXTRN	??3@YAXPAXI@Z:PROC				; operator delete
EXTRN	?__global_delete@@YAXPAXI@Z:PROC		; __global_delete
EXTRN	??_U@YAPAXI@Z:PROC				; operator new[]
EXTRN	??_V@YAXPAX@Z:PROC				; operator delete[]
EXTRN	___std_terminate:PROC
EXTRN	__imp___invalid_parameter_noinfo:PROC
EXTRN	__imp___errno:PROC
EXTRN	__imp__GetEnvironmentVariableA@12:PROC
EXTRN	__imp__GetModuleHandleA@4:PROC
EXTRN	__imp__RegisterWindowMessageA@4:PROC
EXTRN	__imp__SendMessageA@16:PROC
EXTRN	__imp__IsWindow@4:PROC
EXTRN	__imp__EnableWindow@8:PROC
EXTRN	__imp__GetClientRect@8:PROC
EXTRN	__imp__GetWindowRect@8:PROC
EXTRN	__imp__GetParent@4:PROC
EXTRN	__imp____stdio_common_vsscanf:PROC
EXTRN	?AfxThrowMemoryException@@YGXXZ:PROC		; AfxThrowMemoryException
EXTRN	?AfxThrowInvalidArgException@@YGXXZ:PROC	; AfxThrowInvalidArgException
EXTRN	?AfxThrowArchiveException@@YGXHPBD@Z:PROC	; AfxThrowArchiveException
EXTRN	?GetRuntimeClass@CObject@@UBEPAUCRuntimeClass@@XZ:PROC ; CObject::GetRuntimeClass
EXTRN	__imp_??0?$CStringT@DV?$StrTraitMFC_DLL@DV?$ChTraitsCRT@D@ATL@@@@@ATL@@QAE@XZ:PROC
EXTRN	__imp_??0?$CStringT@DV?$StrTraitMFC_DLL@DV?$ChTraitsCRT@D@ATL@@@@@ATL@@QAE@ABV01@@Z:PROC
EXTRN	__imp_??0?$CStringT@DV?$StrTraitMFC_DLL@DV?$ChTraitsCRT@D@ATL@@@@@ATL@@QAE@PBD@Z:PROC
EXTRN	__imp_??1?$CStringT@DV?$StrTraitMFC_DLL@DV?$ChTraitsCRT@D@ATL@@@@@ATL@@QAE@XZ:PROC
EXTRN	__imp_??4?$CStringT@DV?$StrTraitMFC_DLL@DV?$ChTraitsCRT@D@ATL@@@@@ATL@@QAEAAV01@ABV01@@Z:PROC
EXTRN	__imp_??4?$CStringT@DV?$StrTraitMFC_DLL@DV?$ChTraitsCRT@D@ATL@@@@@ATL@@QAEAAV01@PBD@Z:PROC
EXTRN	__imp_?Compare@?$CStringT@DV?$StrTraitMFC_DLL@DV?$ChTraitsCRT@D@ATL@@@@@ATL@@QBEHPBD@Z:PROC
EXTRN	__imp_?Find@?$CStringT@DV?$StrTraitMFC_DLL@DV?$ChTraitsCRT@D@ATL@@@@@ATL@@QBEHPBDH@Z:PROC
EXTRN	__imp_?TrimRight@?$CStringT@DV?$StrTraitMFC_DLL@DV?$ChTraitsCRT@D@ATL@@@@@ATL@@QAEAAV12@XZ:PROC
EXTRN	__imp_?TrimLeft@?$CStringT@DV?$StrTraitMFC_DLL@DV?$ChTraitsCRT@D@ATL@@@@@ATL@@QAEAAV12@XZ:PROC
EXTRN	__imp_?Mid@?$CStringT@DV?$StrTraitMFC_DLL@DV?$ChTraitsCRT@D@ATL@@@@@ATL@@QBE?AV12@HH@Z:PROC
EXTRN	__imp_?Format@?$CStringT@DV?$StrTraitMFC_DLL@DV?$ChTraitsCRT@D@ATL@@@@@ATL@@QAAXPBDZZ:PROC
EXTRN	?Read@CArchive@@QAEIPAXI@Z:PROC			; CArchive::Read
EXTRN	?Write@CArchive@@QAEXPBXI@Z:PROC		; CArchive::Write
EXTRN	?ReadCount@CArchive@@QAEKXZ:PROC		; CArchive::ReadCount
EXTRN	?WriteCount@CArchive@@QAEXK@Z:PROC		; CArchive::WriteCount
EXTRN	??0CStringArray@@QAE@XZ:PROC			; CStringArray::CStringArray
EXTRN	??1CStringArray@@UAE@XZ:PROC			; CStringArray::~CStringArray
EXTRN	??0AFX_MAINTAIN_STATE2@@QAE@PAVAFX_MODULE_STATE@@@Z:PROC ; AFX_MAINTAIN_STATE2::AFX_MAINTAIN_STATE2
EXTRN	??1AFX_MAINTAIN_STATE2@@QAE@XZ:PROC		; AFX_MAINTAIN_STATE2::~AFX_MAINTAIN_STATE2
EXTRN	?Create@CPlex@@SGPAU1@AAPAU1@II@Z:PROC		; CPlex::Create
EXTRN	?FreeDataChain@CPlex@@QAEXXZ:PROC		; CPlex::FreeDataChain
EXTRN	?DDX_Control@@YGXPAVCDataExchange@@HAAVCWnd@@@Z:PROC ; DDX_Control
EXTRN	?OnCmdMsg@CCmdTarget@@UAEHIHPAXPAUAFX_CMDHANDLERINFO@@@Z:PROC ; CCmdTarget::OnCmdMsg
EXTRN	?IsInvokeAllowed@CCmdTarget@@UAEHJ@Z:PROC	; CCmdTarget::IsInvokeAllowed
EXTRN	?GetDispatchIID@CCmdTarget@@UAEHPAU_GUID@@@Z:PROC ; CCmdTarget::GetDispatchIID
EXTRN	?GetTypeInfoCount@CCmdTarget@@UAEIXZ:PROC	; CCmdTarget::GetTypeInfoCount
EXTRN	?GetTypeLibCache@CCmdTarget@@UAEPAVCTypeLibCache@@XZ:PROC ; CCmdTarget::GetTypeLibCache
EXTRN	?GetTypeLib@CCmdTarget@@UAEJKPAPAUITypeLib@@@Z:PROC ; CCmdTarget::GetTypeLib
EXTRN	?GetCommandMap@CCmdTarget@@MBEPBUAFX_OLECMDMAP@@XZ:PROC ; CCmdTarget::GetCommandMap
EXTRN	?GetDispatchMap@CCmdTarget@@MBEPBUAFX_DISPMAP@@XZ:PROC ; CCmdTarget::GetDispatchMap
EXTRN	?GetConnectionMap@CCmdTarget@@MBEPBUAFX_CONNECTIONMAP@@XZ:PROC ; CCmdTarget::GetConnectionMap
EXTRN	?GetEventSinkMap@CCmdTarget@@MBEPBUAFX_EVENTSINKMAP@@XZ:PROC ; CCmdTarget::GetEventSinkMap
EXTRN	?OnCreateAggregates@CCmdTarget@@UAEHXZ:PROC	; CCmdTarget::OnCreateAggregates
EXTRN	?GetInterfaceHook@CCmdTarget@@UAEPAUIUnknown@@PBX@Z:PROC ; CCmdTarget::GetInterfaceHook
EXTRN	?GetExtraConnectionPoints@CCmdTarget@@MAEHPAVCPtrArray@@@Z:PROC ; CCmdTarget::GetExtraConnectionPoints
EXTRN	?GetConnectionHook@CCmdTarget@@MAEPAUIConnectionPoint@@ABU_GUID@@@Z:PROC ; CCmdTarget::GetConnectionHook
EXTRN	?ModifyStyle@CWnd@@QAEHKKI@Z:PROC		; CWnd::ModifyStyle
EXTRN	??0CWnd@@QAE@XZ:PROC				; CWnd::CWnd
EXTRN	?FromHandle@CWnd@@SGPAV1@PAUHWND__@@@Z:PROC	; CWnd::FromHandle
EXTRN	?PreSubclassWindow@CWnd@@UAEXXZ:PROC		; CWnd::PreSubclassWindow
EXTRN	?Create@CWnd@@UAEHPBD0KABUtagRECT@@PAV1@IPAUCCreateContext@@@Z:PROC ; CWnd::Create
EXTRN	?CreateEx@CWnd@@UAEHKPBD0KHHHHPAUHWND__@@PAUHMENU__@@PAX@Z:PROC ; CWnd::CreateEx
EXTRN	?CreateEx@CWnd@@UAEHKPBD0KABUtagRECT@@PAV1@IPAX@Z:PROC ; CWnd::CreateEx
EXTRN	?DestroyWindow@CWnd@@UAEHXZ:PROC		; CWnd::DestroyWindow
EXTRN	?PreCreateWindow@CWnd@@UAEHAAUtagCREATESTRUCTA@@@Z:PROC ; CWnd::PreCreateWindow
EXTRN	?CalcWindowRect@CWnd@@UAEXPAUtagRECT@@I@Z:PROC	; CWnd::CalcWindowRect
EXTRN	?GetDlgItem@CWnd@@QBEPAV1@H@Z:PROC		; CWnd::GetDlgItem
EXTRN	?GetMenu@CWnd@@UBEPAVCMenu@@XZ:PROC		; CWnd::GetMenu
EXTRN	?SetMenu@CWnd@@UAEHPAVCMenu@@@Z:PROC		; CWnd::SetMenu
EXTRN	?MoveWindow@CWnd@@QAEXHHHHH@Z:PROC		; CWnd::MoveWindow
EXTRN	?SetWindowPos@CWnd@@QAEHPBV1@HHHHI@Z:PROC	; CWnd::SetWindowPos
EXTRN	?ScreenToClient@CWnd@@QBEXPAUtagRECT@@@Z:PROC	; CWnd::ScreenToClient
EXTRN	?OnToolHitTest@CWnd@@UBEHVCPoint@@PAUtagTOOLINFOA@@@Z:PROC ; CWnd::OnToolHitTest
EXTRN	?GetScrollBarCtrl@CWnd@@UBEPAVCScrollBar@@H@Z:PROC ; CWnd::GetScrollBarCtrl
EXTRN	?WinHelpA@CWnd@@UAEXKI@Z:PROC			; CWnd::WinHelpA
EXTRN	?HtmlHelpA@CWnd@@UAEXKI@Z:PROC			; CWnd::HtmlHelpA
EXTRN	?WinHelpInternal@CWnd@@UAEXKI@Z:PROC		; CWnd::WinHelpInternal
EXTRN	?ContinueModal@CWnd@@UAEHXZ:PROC		; CWnd::ContinueModal
EXTRN	?EndModalLoop@CWnd@@UAEXH@Z:PROC		; CWnd::EndModalLoop
EXTRN	?OnDrawIconicThumbnailOrLivePreview@CWnd@@UAEXAAVCDC@@VCRect@@VCSize@@HAAH@Z:PROC ; CWnd::OnDrawIconicThumbnailOrLivePreview
EXTRN	?GetInterfaceMap@CWnd@@MBEPBUAFX_INTERFACEMAP@@XZ:PROC ; CWnd::GetInterfaceMap
EXTRN	?EnsureStdObj@CWnd@@UAEJXZ:PROC			; CWnd::EnsureStdObj
EXTRN	?get_accParent@CWnd@@UAEJPAPAUIDispatch@@@Z:PROC ; CWnd::get_accParent
EXTRN	?get_accChildCount@CWnd@@UAEJPAJ@Z:PROC		; CWnd::get_accChildCount
EXTRN	?get_accChild@CWnd@@UAEJUtagVARIANT@@PAPAUIDispatch@@@Z:PROC ; CWnd::get_accChild
EXTRN	?get_accName@CWnd@@UAEJUtagVARIANT@@PAPA_W@Z:PROC ; CWnd::get_accName
EXTRN	?get_accValue@CWnd@@UAEJUtagVARIANT@@PAPA_W@Z:PROC ; CWnd::get_accValue
EXTRN	?get_accDescription@CWnd@@UAEJUtagVARIANT@@PAPA_W@Z:PROC ; CWnd::get_accDescription
EXTRN	?get_accRole@CWnd@@UAEJUtagVARIANT@@PAU2@@Z:PROC ; CWnd::get_accRole
EXTRN	?get_accState@CWnd@@UAEJUtagVARIANT@@PAU2@@Z:PROC ; CWnd::get_accState
EXTRN	?get_accHelp@CWnd@@UAEJUtagVARIANT@@PAPA_W@Z:PROC ; CWnd::get_accHelp
EXTRN	?get_accHelpTopic@CWnd@@UAEJPAPA_WUtagVARIANT@@PAJ@Z:PROC ; CWnd::get_accHelpTopic
EXTRN	?get_accKeyboardShortcut@CWnd@@UAEJUtagVARIANT@@PAPA_W@Z:PROC ; CWnd::get_accKeyboardShortcut
EXTRN	?get_accFocus@CWnd@@UAEJPAUtagVARIANT@@@Z:PROC	; CWnd::get_accFocus
EXTRN	?get_accSelection@CWnd@@UAEJPAUtagVARIANT@@@Z:PROC ; CWnd::get_accSelection
EXTRN	?get_accDefaultAction@CWnd@@UAEJUtagVARIANT@@PAPA_W@Z:PROC ; CWnd::get_accDefaultAction
EXTRN	?accSelect@CWnd@@UAEJJUtagVARIANT@@@Z:PROC	; CWnd::accSelect
EXTRN	?accLocation@CWnd@@UAEJPAJ000UtagVARIANT@@@Z:PROC ; CWnd::accLocation
EXTRN	?accNavigate@CWnd@@UAEJJUtagVARIANT@@PAU2@@Z:PROC ; CWnd::accNavigate
EXTRN	?accHitTest@CWnd@@UAEJJJPAUtagVARIANT@@@Z:PROC	; CWnd::accHitTest
EXTRN	?accDoDefaultAction@CWnd@@UAEJUtagVARIANT@@@Z:PROC ; CWnd::accDoDefaultAction
EXTRN	?put_accName@CWnd@@UAEJUtagVARIANT@@PA_W@Z:PROC	; CWnd::put_accName
EXTRN	?put_accValue@CWnd@@UAEJUtagVARIANT@@PA_W@Z:PROC ; CWnd::put_accValue
EXTRN	?SetProxy@CWnd@@UAEJPAUIAccessibleProxy@@@Z:PROC ; CWnd::SetProxy
EXTRN	?CreateAccessibleProxy@CWnd@@UAEJIJPAJ@Z:PROC	; CWnd::CreateAccessibleProxy
EXTRN	?OnCommand@CWnd@@MAEHIJ@Z:PROC			; CWnd::OnCommand
EXTRN	?OnNotify@CWnd@@MAEHIJPAJ@Z:PROC		; CWnd::OnNotify
EXTRN	?GetSuperWndProcAddr@CWnd@@MAEPAP6GJPAUHWND__@@IIJ@ZXZ:PROC ; CWnd::GetSuperWndProcAddr
EXTRN	?PreTranslateMessage@CWnd@@UAEHPAUtagMSG@@@Z:PROC ; CWnd::PreTranslateMessage
EXTRN	?OnAmbientProperty@CWnd@@UAEHPAVCOleControlSite@@JPAUtagVARIANT@@@Z:PROC ; CWnd::OnAmbientProperty
EXTRN	?WindowProc@CWnd@@MAEJIIJ@Z:PROC		; CWnd::WindowProc
EXTRN	?OnWndMsg@CWnd@@MAEHIIJPAJ@Z:PROC		; CWnd::OnWndMsg
EXTRN	?Default@CWnd@@IAEJXZ:PROC			; CWnd::Default
EXTRN	?DefWindowProcA@CWnd@@MAEJIIJ@Z:PROC		; CWnd::DefWindowProcA
EXTRN	?PostNcDestroy@CWnd@@MAEXXZ:PROC		; CWnd::PostNcDestroy
EXTRN	?OnChildNotify@CWnd@@MAEHIIJPAJ@Z:PROC		; CWnd::OnChildNotify
EXTRN	?OnTouchInputs@CWnd@@MAEHIPAUtagTOUCHINPUT@@@Z:PROC ; CWnd::OnTouchInputs
EXTRN	?OnTouchInput@CWnd@@MAEHVCPoint@@HHPAUtagTOUCHINPUT@@@Z:PROC ; CWnd::OnTouchInput
EXTRN	?GetGestureStatus@CWnd@@MAEKVCPoint@@@Z:PROC	; CWnd::GetGestureStatus
EXTRN	?OnGestureZoom@CWnd@@MAEHVCPoint@@J@Z:PROC	; CWnd::OnGestureZoom
EXTRN	?OnGesturePan@CWnd@@MAEHVCPoint@@0@Z:PROC	; CWnd::OnGesturePan
EXTRN	?OnGestureRotate@CWnd@@MAEHVCPoint@@N@Z:PROC	; CWnd::OnGestureRotate
EXTRN	?OnGestureTwoFingerTap@CWnd@@MAEHVCPoint@@@Z:PROC ; CWnd::OnGestureTwoFingerTap
EXTRN	?OnGesturePressAndTap@CWnd@@MAEHVCPoint@@J@Z:PROC ; CWnd::OnGesturePressAndTap
EXTRN	?ResizeDynamicLayout@CWnd@@MAEXXZ:PROC		; CWnd::ResizeDynamicLayout
EXTRN	?CheckAutoCenter@CWnd@@UAEHXZ:PROC		; CWnd::CheckAutoCenter
EXTRN	?IsFrameWnd@CWnd@@UBEHXZ:PROC			; CWnd::IsFrameWnd
EXTRN	?OnFinalRelease@CWnd@@UAEXXZ:PROC		; CWnd::OnFinalRelease
EXTRN	?CreateControlContainer@CWnd@@MAEHPAPAVCOleControlContainer@@@Z:PROC ; CWnd::CreateControlContainer
EXTRN	?CreateControlSite@CWnd@@MAEHPAVCOleControlContainer@@PAPAVCOleControlSite@@IABU_GUID@@@Z:PROC ; CWnd::CreateControlSite
EXTRN	?SetOccDialogInfo@CWnd@@MAEHPAU_AFX_OCC_DIALOG_INFO@@@Z:PROC ; CWnd::SetOccDialogInfo
EXTRN	?GetOccDialogInfo@CWnd@@MAEPAU_AFX_OCC_DIALOG_INFO@@XZ:PROC ; CWnd::GetOccDialogInfo
EXTRN	?GetMessageMap@CWnd@@MBEPBUAFX_MSGMAP@@XZ:PROC	; CWnd::GetMessageMap
EXTRN	?GetRuntimeClass@CDialog@@UBEPAUCRuntimeClass@@XZ:PROC ; CDialog::GetRuntimeClass
EXTRN	?Create@CDialog@@UAEHPBDPAVCWnd@@@Z:PROC	; CDialog::Create
EXTRN	?CreateIndirect@CDialog@@UAEHPBUDLGTEMPLATE@@PAVCWnd@@PAX@Z:PROC ; CDialog::CreateIndirect
EXTRN	?CreateIndirect@CDialog@@UAEHPAXPAVCWnd@@@Z:PROC ; CDialog::CreateIndirect
EXTRN	?OnSetFont@CDialog@@UAEXPAVCFont@@@Z:PROC	; CDialog::OnSetFont
EXTRN	?OnOK@CDialog@@MAEXXZ:PROC			; CDialog::OnOK
EXTRN	?OnCancel@CDialog@@MAEXXZ:PROC			; CDialog::OnCancel
EXTRN	?OnCmdMsg@CDialog@@UAEHIHPAXPAUAFX_CMDHANDLERINFO@@@Z:PROC ; CDialog::OnCmdMsg
EXTRN	?CheckAutoCenter@CDialog@@UAEHXZ:PROC		; CDialog::CheckAutoCenter
EXTRN	?SetOccDialogInfo@CDialog@@MAEHPAU_AFX_OCC_DIALOG_INFO@@@Z:PROC ; CDialog::SetOccDialogInfo
EXTRN	?GetOccDialogInfo@CDialog@@MAEPAU_AFX_OCC_DIALOG_INFO@@XZ:PROC ; CDialog::GetOccDialogInfo
EXTRN	?PreInitDialog@CDialog@@MAEXXZ:PROC		; CDialog::PreInitDialog
EXTRN	?GetRuntimeClass@CComboBox@@UBEPAUCRuntimeClass@@XZ:PROC ; CComboBox::GetRuntimeClass
EXTRN	?Create@CComboBox@@UAEHKABUtagRECT@@PAVCWnd@@I@Z:PROC ; CComboBox::Create
EXTRN	?DrawItem@CComboBox@@UAEXPAUtagDRAWITEMSTRUCT@@@Z:PROC ; CComboBox::DrawItem
EXTRN	?MeasureItem@CComboBox@@UAEXPAUtagMEASUREITEMSTRUCT@@@Z:PROC ; CComboBox::MeasureItem
EXTRN	?CompareItem@CComboBox@@UAEHPAUtagCOMPAREITEMSTRUCT@@@Z:PROC ; CComboBox::CompareItem
EXTRN	?DeleteItem@CComboBox@@UAEXPAUtagDELETEITEMSTRUCT@@@Z:PROC ; CComboBox::DeleteItem
EXTRN	??1CComboBox@@UAE@XZ:PROC			; CComboBox::~CComboBox
EXTRN	?OnChildNotify@CComboBox@@MAEHIIJPAJ@Z:PROC	; CComboBox::OnChildNotify
EXTRN	??_ECComboBox@@UAEPAXI@Z:PROC			; CComboBox::`vector deleting destructor'
EXTRN	?GetItemData@CTreeCtrl@@QBEKPAU_TREEITEM@@@Z:PROC ; CTreeCtrl::GetItemData
EXTRN	?ChangeSkinColor@CRscDlg@@UAEXK@Z:PROC		; CRscDlg::ChangeSkinColor
EXTRN	?Create@CRscDlg@@UAEHIPAVCWnd@@@Z:PROC		; CRscDlg::Create
EXTRN	?DoModal@CRscDlg@@UAEHXZ:PROC			; CRscDlg::DoModal
EXTRN	??0CILButton@@QAE@XZ:PROC			; CILButton::CILButton
EXTRN	?FP_vSetImage@CILButton@@QAEXPAVCImageList@@HHHV?$CStringT@DV?$StrTraitMFC_DLL@DV?$ChTraitsCRT@D@ATL@@@@@ATL@@HHH@Z:PROC ; CILButton::FP_vSetImage
EXTRN	??1CILButton@@UAE@XZ:PROC			; CILButton::~CILButton
EXTRN	??0CTabDlg@@QAE@IPAVCWnd@@@Z:PROC		; CTabDlg::CTabDlg
EXTRN	??1CTabDlg@@UAE@XZ:PROC				; CTabDlg::~CTabDlg
EXTRN	?PreTranslateMessage@CTabDlg@@UAEHPAUtagMSG@@@Z:PROC ; CTabDlg::PreTranslateMessage
EXTRN	?DoDataExchange@CTabDlg@@MAEXPAVCDataExchange@@@Z:PROC ; CTabDlg::DoDataExchange
EXTRN	?OnInitDialog@CTabDlg@@MAEHXZ:PROC		; CTabDlg::OnInitDialog
EXTRN	?OnDestroy@CTabDlg@@IAEXXZ:PROC			; CTabDlg::OnDestroy
EXTRN	?GetThisMessageMap@CTabDlg@@KGPBUAFX_MSGMAP@@XZ:PROC ; CTabDlg::GetThisMessageMap
EXTRN	??0CVirtualListCtrl@@QAE@XZ:PROC		; CVirtualListCtrl::CVirtualListCtrl
EXTRN	?Init_ListCtrl@CVirtualListCtrl@@QAEXXZ:PROC	; CVirtualListCtrl::Init_ListCtrl
EXTRN	??1CVirtualListCtrl@@UAE@XZ:PROC		; CVirtualListCtrl::~CVirtualListCtrl
EXTRN	?SetRowHeight@CVirtualListCtrl@@QAEXF@Z:PROC	; CVirtualListCtrl::SetRowHeight
EXTRN	??0CExTreeCtrl@@QAE@XZ:PROC			; CExTreeCtrl::CExTreeCtrl
EXTRN	??1CExTreeCtrl@@UAE@XZ:PROC			; CExTreeCtrl::~CExTreeCtrl
EXTRN	?CreateCodeCtrl@CWinixCodeCtrl@@QAEHPAVCWnd@@00VCRect@@I@Z:PROC ; CWinixCodeCtrl::CreateCodeCtrl
EXTRN	?SetColor@CWinixCodeCtrl@@QAE_NKK@Z:PROC	; CWinixCodeCtrl::SetColor
EXTRN	??0CCodeCtrl@@QAE@PAVCWnd@@@Z:PROC		; CCodeCtrl::CCodeCtrl
EXTRN	?OnWinixNotifyLoad@CTabStockDlg@@QAEJIJ@Z:PROC	; CTabStockDlg::OnWinixNotifyLoad
EXTRN	?OnWinixNotifySave@CTabStockDlg@@QAEJIJ@Z:PROC	; CTabStockDlg::OnWinixNotifySave
EXTRN	?OnWinixNotifyGroup@CTabStockDlg@@QAEJIJ@Z:PROC	; CTabStockDlg::OnWinixNotifyGroup
EXTRN	?OnWinixNotifyGroupList@CTabStockDlg@@QAEJIJ@Z:PROC ; CTabStockDlg::OnWinixNotifyGroupList
EXTRN	?OnWinixNotifySaveCode@CTabStockDlg@@QAEJIJ@Z:PROC ; CTabStockDlg::OnWinixNotifySaveCode
EXTRN	??_E?$CList@PAVCItemLongData@@PAV1@@@UAEPAXI@Z:PROC ; CList<CItemLongData *,CItemLongData *>::`vector deleting destructor'
EXTRN	??_ECTabStockDlg@@UAEPAXI@Z:PROC		; CTabStockDlg::`vector deleting destructor'
EXTRN	?GetItemNameFromItemCode@CStdDialog@@QAE?AV?$CStringT@DV?$StrTraitMFC_DLL@DV?$ChTraitsCRT@D@ATL@@@@@ATL@@V23@H@Z:PROC ; CStdDialog::GetItemNameFromItemCode
EXTRN	@__security_check_cookie@4:PROC
EXTRN	___CxxFrameHandler3:PROC
EXTRN	_memcpy:PROC
EXTRN	_memset:PROC
EXTRN	??_7type_info@@6B@:QWORD			; type_info::`vftable'
EXTRN	__imp_?wndTop@CWnd@@2V1@B:BYTE
EXTRN	___security_cookie:DWORD
EXTRN	__fltused:DWORD
;	COMDAT ?_OptionsStorage@?1??__local_stdio_scanf_options@@9@4_KA
_BSS	SEGMENT
?_OptionsStorage@?1??__local_stdio_scanf_options@@9@4_KA DQ 01H DUP (?) ; `__local_stdio_scanf_options'::`2'::_OptionsStorage
_BSS	ENDS
_BSS	SEGMENT
?RMSG_INTERFACE@@3IB DD 01H DUP (?)			; RMSG_INTERFACE
?RMSG_REPLAY_REAL@@3IB DD 01H DUP (?)			; RMSG_REPLAY_REAL
?RMSG_REPLAY_FAIL@@3IB DD 01H DUP (?)			; RMSG_REPLAY_FAIL
?RMSG_REPLAY_CHANGE_DATE@@3IB DD 01H DUP (?)		; RMSG_REPLAY_CHANGE_DATE
?RMSG_REPLAY_END@@3IB DD 01H DUP (?)			; RMSG_REPLAY_END
?RMSG_REPLAY_INC_SEC@@3IB DD 01H DUP (?)		; RMSG_REPLAY_INC_SEC
?RMSG_REPLAY_TOTAL_SEC@@3IB DD 01H DUP (?)		; RMSG_REPLAY_TOTAL_SEC
?RMSG_GETSIGNAL_REAL@@3IB DD 01H DUP (?)		; RMSG_GETSIGNAL_REAL
?RMSG_CHARTMAIN@@3IB DD 01H DUP (?)			; RMSG_CHARTMAIN
?RMS_ANALYSIS_FUNC@@3IB DD 01H DUP (?)			; RMS_ANALYSIS_FUNC
?RMSG_GET_USERID@@3IB DD 01H DUP (?)			; RMSG_GET_USERID
?RMSG_KSDLLINFO@@3IB DD 01H DUP (?)			; RMSG_KSDLLINFO
?RMSG_GETINFO@@3IB DD 01H DUP (?)			; RMSG_GETINFO
?RMSG_CHANGE_SKINCOLOR@@3IB DD 01H DUP (?)		; RMSG_CHANGE_SKINCOLOR
?RMSG_GET_SKINCOLOR@@3IB DD 01H DUP (?)			; RMSG_GET_SKINCOLOR
?RMSG_CHANGE_CROSSLINE@@3IB DD 01H DUP (?)		; RMSG_CHANGE_CROSSLINE
?RMSG_SELCHARTCODE@@3IB DD 01H DUP (?)			; RMSG_SELCHARTCODE
?RMSG_GETINTERFACE@@3IB DD 01H DUP (?)			; RMSG_GETINTERFACE
_BSS	ENDS
CRT$XCU	SEGMENT
?RMSG_INTERFACE$initializer$@@3P6AXXZA DD FLAT:??__ERMSG_INTERFACE@@YAXXZ ; RMSG_INTERFACE$initializer$
CRT$XCU	ENDS
;	COMDAT ??_R1A@?0A@EA@CTLMCallback@CTabStockDlg@@8
rdata$r	SEGMENT
??_R1A@?0A@EA@CTLMCallback@CTabStockDlg@@8 DD FLAT:??_R0?AVCTLMCallback@CTabStockDlg@@@8 ; CTabStockDlg::CTLMCallback::`RTTI Base Class Descriptor at (0,-1,0,64)'
	DD	01H
	DD	00H
	DD	0ffffffffH
	DD	00H
	DD	040H
	DD	FLAT:??_R3CTLMCallback@CTabStockDlg@@8
rdata$r	ENDS
;	COMDAT ??_R2CTLMCallback@CTabStockDlg@@8
rdata$r	SEGMENT
??_R2CTLMCallback@CTabStockDlg@@8 DD FLAT:??_R1A@?0A@EA@CTLMCallback@CTabStockDlg@@8 ; CTabStockDlg::CTLMCallback::`RTTI Base Class Array'
	DD	FLAT:??_R1A@?0A@EA@ITLMCallback@@8
rdata$r	ENDS
;	COMDAT ??_R3CTLMCallback@CTabStockDlg@@8
rdata$r	SEGMENT
??_R3CTLMCallback@CTabStockDlg@@8 DD 00H		; CTabStockDlg::CTLMCallback::`RTTI Class Hierarchy Descriptor'
	DD	00H
	DD	02H
	DD	FLAT:??_R2CTLMCallback@CTabStockDlg@@8
rdata$r	ENDS
;	COMDAT ??_R0?AVCTLMCallback@CTabStockDlg@@@8
data$rs	SEGMENT
??_R0?AVCTLMCallback@CTabStockDlg@@@8 DD FLAT:??_7type_info@@6B@ ; CTabStockDlg::CTLMCallback `RTTI Type Descriptor'
	DD	00H
	DB	'.?AVCTLMCallback@CTabStockDlg@@', 00H
data$rs	ENDS
;	COMDAT ??_R4CTLMCallback@CTabStockDlg@@6B@
rdata$r	SEGMENT
??_R4CTLMCallback@CTabStockDlg@@6B@ DD 00H		; CTabStockDlg::CTLMCallback::`RTTI Complete Object Locator'
	DD	00H
	DD	00H
	DD	FLAT:??_R0?AVCTLMCallback@CTabStockDlg@@@8
	DD	FLAT:??_R3CTLMCallback@CTabStockDlg@@8
rdata$r	ENDS
;	COMDAT ??_R2CRscDlg@@8
rdata$r	SEGMENT
??_R2CRscDlg@@8 DD FLAT:??_R1A@?0A@EA@CRscDlg@@8	; CRscDlg::`RTTI Base Class Array'
	DD	FLAT:??_R1A@?0A@EA@CDialog@@8
	DD	FLAT:??_R1A@?0A@EA@CWnd@@8
	DD	FLAT:??_R1A@?0A@EA@CCmdTarget@@8
	DD	FLAT:??_R1A@?0A@EA@CObject@@8
rdata$r	ENDS
;	COMDAT ??_R3CRscDlg@@8
rdata$r	SEGMENT
??_R3CRscDlg@@8 DD 00H					; CRscDlg::`RTTI Class Hierarchy Descriptor'
	DD	00H
	DD	05H
	DD	FLAT:??_R2CRscDlg@@8
rdata$r	ENDS
;	COMDAT ??_R0?AVCRscDlg@@@8
data$rs	SEGMENT
??_R0?AVCRscDlg@@@8 DD FLAT:??_7type_info@@6B@		; CRscDlg `RTTI Type Descriptor'
	DD	00H
	DB	'.?AVCRscDlg@@', 00H
data$rs	ENDS
;	COMDAT ??_R1A@?0A@EA@CRscDlg@@8
rdata$r	SEGMENT
??_R1A@?0A@EA@CRscDlg@@8 DD FLAT:??_R0?AVCRscDlg@@@8	; CRscDlg::`RTTI Base Class Descriptor at (0,-1,0,64)'
	DD	04H
	DD	00H
	DD	0ffffffffH
	DD	00H
	DD	040H
	DD	FLAT:??_R3CRscDlg@@8
rdata$r	ENDS
;	COMDAT ??_R2CTabDlg@@8
rdata$r	SEGMENT
??_R2CTabDlg@@8 DD FLAT:??_R1A@?0A@EA@CTabDlg@@8	; CTabDlg::`RTTI Base Class Array'
	DD	FLAT:??_R1A@?0A@EA@CRscDlg@@8
	DD	FLAT:??_R1A@?0A@EA@CDialog@@8
	DD	FLAT:??_R1A@?0A@EA@CWnd@@8
	DD	FLAT:??_R1A@?0A@EA@CCmdTarget@@8
	DD	FLAT:??_R1A@?0A@EA@CObject@@8
rdata$r	ENDS
;	COMDAT ??_R3CTabDlg@@8
rdata$r	SEGMENT
??_R3CTabDlg@@8 DD 00H					; CTabDlg::`RTTI Class Hierarchy Descriptor'
	DD	00H
	DD	06H
	DD	FLAT:??_R2CTabDlg@@8
rdata$r	ENDS
;	COMDAT ??_R0?AVCTabDlg@@@8
data$rs	SEGMENT
??_R0?AVCTabDlg@@@8 DD FLAT:??_7type_info@@6B@		; CTabDlg `RTTI Type Descriptor'
	DD	00H
	DB	'.?AVCTabDlg@@', 00H
data$rs	ENDS
;	COMDAT ??_R1A@?0A@EA@CTabDlg@@8
rdata$r	SEGMENT
??_R1A@?0A@EA@CTabDlg@@8 DD FLAT:??_R0?AVCTabDlg@@@8	; CTabDlg::`RTTI Base Class Descriptor at (0,-1,0,64)'
	DD	05H
	DD	00H
	DD	0ffffffffH
	DD	00H
	DD	040H
	DD	FLAT:??_R3CTabDlg@@8
rdata$r	ENDS
;	COMDAT ??_R1A@?0A@EA@CTabStockDlg@@8
rdata$r	SEGMENT
??_R1A@?0A@EA@CTabStockDlg@@8 DD FLAT:??_R0?AVCTabStockDlg@@@8 ; CTabStockDlg::`RTTI Base Class Descriptor at (0,-1,0,64)'
	DD	06H
	DD	00H
	DD	0ffffffffH
	DD	00H
	DD	040H
	DD	FLAT:??_R3CTabStockDlg@@8
rdata$r	ENDS
;	COMDAT ??_R2CTabStockDlg@@8
rdata$r	SEGMENT
??_R2CTabStockDlg@@8 DD FLAT:??_R1A@?0A@EA@CTabStockDlg@@8 ; CTabStockDlg::`RTTI Base Class Array'
	DD	FLAT:??_R1A@?0A@EA@CTabDlg@@8
	DD	FLAT:??_R1A@?0A@EA@CRscDlg@@8
	DD	FLAT:??_R1A@?0A@EA@CDialog@@8
	DD	FLAT:??_R1A@?0A@EA@CWnd@@8
	DD	FLAT:??_R1A@?0A@EA@CCmdTarget@@8
	DD	FLAT:??_R1A@?0A@EA@CObject@@8
rdata$r	ENDS
;	COMDAT ??_R3CTabStockDlg@@8
rdata$r	SEGMENT
??_R3CTabStockDlg@@8 DD 00H				; CTabStockDlg::`RTTI Class Hierarchy Descriptor'
	DD	00H
	DD	07H
	DD	FLAT:??_R2CTabStockDlg@@8
rdata$r	ENDS
;	COMDAT ??_R0?AVCTabStockDlg@@@8
data$rs	SEGMENT
??_R0?AVCTabStockDlg@@@8 DD FLAT:??_7type_info@@6B@	; CTabStockDlg `RTTI Type Descriptor'
	DD	00H
	DB	'.?AVCTabStockDlg@@', 00H
data$rs	ENDS
;	COMDAT ??_R4CTabStockDlg@@6B@
rdata$r	SEGMENT
??_R4CTabStockDlg@@6B@ DD 00H				; CTabStockDlg::`RTTI Complete Object Locator'
	DD	00H
	DD	00H
	DD	FLAT:??_R0?AVCTabStockDlg@@@8
	DD	FLAT:??_R3CTabStockDlg@@8
rdata$r	ENDS
;	COMDAT ??_R1A@?0A@EA@CCodeTypeA@@8
rdata$r	SEGMENT
??_R1A@?0A@EA@CCodeTypeA@@8 DD FLAT:??_R0?AVCCodeTypeA@@@8 ; CCodeTypeA::`RTTI Base Class Descriptor at (0,-1,0,64)'
	DD	01H
	DD	00H
	DD	0ffffffffH
	DD	00H
	DD	040H
	DD	FLAT:??_R3CCodeTypeA@@8
rdata$r	ENDS
;	COMDAT ??_R2CCodeTypeA@@8
rdata$r	SEGMENT
??_R2CCodeTypeA@@8 DD FLAT:??_R1A@?0A@EA@CCodeTypeA@@8	; CCodeTypeA::`RTTI Base Class Array'
	DD	FLAT:??_R1A@?0A@EA@CCodeTypeBase@@8
rdata$r	ENDS
;	COMDAT ??_R3CCodeTypeA@@8
rdata$r	SEGMENT
??_R3CCodeTypeA@@8 DD 00H				; CCodeTypeA::`RTTI Class Hierarchy Descriptor'
	DD	00H
	DD	02H
	DD	FLAT:??_R2CCodeTypeA@@8
rdata$r	ENDS
;	COMDAT ??_R0?AVCCodeTypeA@@@8
data$rs	SEGMENT
??_R0?AVCCodeTypeA@@@8 DD FLAT:??_7type_info@@6B@	; CCodeTypeA `RTTI Type Descriptor'
	DD	00H
	DB	'.?AVCCodeTypeA@@', 00H
data$rs	ENDS
;	COMDAT ??_R4CCodeTypeA@@6B@
rdata$r	SEGMENT
??_R4CCodeTypeA@@6B@ DD 00H				; CCodeTypeA::`RTTI Complete Object Locator'
	DD	00H
	DD	00H
	DD	FLAT:??_R0?AVCCodeTypeA@@@8
	DD	FLAT:??_R3CCodeTypeA@@8
rdata$r	ENDS
;	COMDAT ??_R1A@?0A@EA@CCodeTypeBase@@8
rdata$r	SEGMENT
??_R1A@?0A@EA@CCodeTypeBase@@8 DD FLAT:??_R0?AVCCodeTypeBase@@@8 ; CCodeTypeBase::`RTTI Base Class Descriptor at (0,-1,0,64)'
	DD	00H
	DD	00H
	DD	0ffffffffH
	DD	00H
	DD	040H
	DD	FLAT:??_R3CCodeTypeBase@@8
rdata$r	ENDS
;	COMDAT ??_R2CCodeTypeBase@@8
rdata$r	SEGMENT
??_R2CCodeTypeBase@@8 DD FLAT:??_R1A@?0A@EA@CCodeTypeBase@@8 ; CCodeTypeBase::`RTTI Base Class Array'
rdata$r	ENDS
;	COMDAT ??_R3CCodeTypeBase@@8
rdata$r	SEGMENT
??_R3CCodeTypeBase@@8 DD 00H				; CCodeTypeBase::`RTTI Class Hierarchy Descriptor'
	DD	00H
	DD	01H
	DD	FLAT:??_R2CCodeTypeBase@@8
rdata$r	ENDS
;	COMDAT ??_R0?AVCCodeTypeBase@@@8
data$rs	SEGMENT
??_R0?AVCCodeTypeBase@@@8 DD FLAT:??_7type_info@@6B@	; CCodeTypeBase `RTTI Type Descriptor'
	DD	00H
	DB	'.?AVCCodeTypeBase@@', 00H
data$rs	ENDS
;	COMDAT ??_R4CCodeTypeBase@@6B@
rdata$r	SEGMENT
??_R4CCodeTypeBase@@6B@ DD 00H				; CCodeTypeBase::`RTTI Complete Object Locator'
	DD	00H
	DD	00H
	DD	FLAT:??_R0?AVCCodeTypeBase@@@8
	DD	FLAT:??_R3CCodeTypeBase@@8
rdata$r	ENDS
;	COMDAT ??_R1A@?0A@EA@?$CList@PAVCItemLongData@@PAV1@@@8
rdata$r	SEGMENT
??_R1A@?0A@EA@?$CList@PAVCItemLongData@@PAV1@@@8 DD FLAT:??_R0?AV?$CList@PAVCItemLongData@@PAV1@@@@8 ; CList<CItemLongData *,CItemLongData *>::`RTTI Base Class Descriptor at (0,-1,0,64)'
	DD	01H
	DD	00H
	DD	0ffffffffH
	DD	00H
	DD	040H
	DD	FLAT:??_R3?$CList@PAVCItemLongData@@PAV1@@@8
rdata$r	ENDS
;	COMDAT ??_R2?$CList@PAVCItemLongData@@PAV1@@@8
rdata$r	SEGMENT
??_R2?$CList@PAVCItemLongData@@PAV1@@@8 DD FLAT:??_R1A@?0A@EA@?$CList@PAVCItemLongData@@PAV1@@@8 ; CList<CItemLongData *,CItemLongData *>::`RTTI Base Class Array'
	DD	FLAT:??_R1A@?0A@EA@CObject@@8
rdata$r	ENDS
;	COMDAT ??_R3?$CList@PAVCItemLongData@@PAV1@@@8
rdata$r	SEGMENT
??_R3?$CList@PAVCItemLongData@@PAV1@@@8 DD 00H		; CList<CItemLongData *,CItemLongData *>::`RTTI Class Hierarchy Descriptor'
	DD	00H
	DD	02H
	DD	FLAT:??_R2?$CList@PAVCItemLongData@@PAV1@@@8
rdata$r	ENDS
;	COMDAT ??_R0?AV?$CList@PAVCItemLongData@@PAV1@@@@8
data$rs	SEGMENT
??_R0?AV?$CList@PAVCItemLongData@@PAV1@@@@8 DD FLAT:??_7type_info@@6B@ ; CList<CItemLongData *,CItemLongData *> `RTTI Type Descriptor'
	DD	00H
	DB	'.?AV?$CList@PAVCItemLongData@@PAV1@@@', 00H
data$rs	ENDS
;	COMDAT ??_R4?$CList@PAVCItemLongData@@PAV1@@@6B@
rdata$r	SEGMENT
??_R4?$CList@PAVCItemLongData@@PAV1@@@6B@ DD 00H	; CList<CItemLongData *,CItemLongData *>::`RTTI Complete Object Locator'
	DD	00H
	DD	00H
	DD	FLAT:??_R0?AV?$CList@PAVCItemLongData@@PAV1@@@@8
	DD	FLAT:??_R3?$CList@PAVCItemLongData@@PAV1@@@8
rdata$r	ENDS
;	COMDAT ??_R1A@?0A@EA@ITLMCallback@@8
rdata$r	SEGMENT
??_R1A@?0A@EA@ITLMCallback@@8 DD FLAT:??_R0?AUITLMCallback@@@8 ; ITLMCallback::`RTTI Base Class Descriptor at (0,-1,0,64)'
	DD	00H
	DD	00H
	DD	0ffffffffH
	DD	00H
	DD	040H
	DD	FLAT:??_R3ITLMCallback@@8
rdata$r	ENDS
;	COMDAT ??_R2ITLMCallback@@8
rdata$r	SEGMENT
??_R2ITLMCallback@@8 DD FLAT:??_R1A@?0A@EA@ITLMCallback@@8 ; ITLMCallback::`RTTI Base Class Array'
rdata$r	ENDS
;	COMDAT ??_R3ITLMCallback@@8
rdata$r	SEGMENT
??_R3ITLMCallback@@8 DD 00H				; ITLMCallback::`RTTI Class Hierarchy Descriptor'
	DD	00H
	DD	01H
	DD	FLAT:??_R2ITLMCallback@@8
rdata$r	ENDS
;	COMDAT ??_R0?AUITLMCallback@@@8
data$rs	SEGMENT
??_R0?AUITLMCallback@@@8 DD FLAT:??_7type_info@@6B@	; ITLMCallback `RTTI Type Descriptor'
	DD	00H
	DB	'.?AUITLMCallback@@', 00H
data$rs	ENDS
;	COMDAT ??_C@_0BA@INBCGBNE@?$CF08X?7?$CF08X?7?$CF08X?7@
CONST	SEGMENT
??_C@_0BA@INBCGBNE@?$CF08X?7?$CF08X?7?$CF08X?7@ DB '%08X', 09H, '%08X', 09H
	DB	'%08X', 09H, 00H				; `string'
CONST	ENDS
;	COMDAT ??_C@_05LMFDOBNM@?$CFs?$HM?$CFs@
CONST	SEGMENT
??_C@_05LMFDOBNM@?$CFs?$HM?$CFs@ DB '%s|%s', 00H	; `string'
CONST	ENDS
;	COMDAT ??_C@_09MICNPEAJ@DRFNGWAN?3@
CONST	SEGMENT
??_C@_09MICNPEAJ@DRFNGWAN?3@ DB 'DRFNGWAN:', 00H	; `string'
CONST	ENDS
;	COMDAT ??_C@_0L@DIKICJIA@SCREENCODE@
CONST	SEGMENT
??_C@_0L@DIKICJIA@SCREENCODE@ DB 'SCREENCODE', 00H	; `string'
CONST	ENDS
;	COMDAT ??_C@_0BC@KBBCDNCC@COMPCHARTTREELIST@
CONST	SEGMENT
??_C@_0BC@KBBCDNCC@COMPCHARTTREELIST@ DB 'COMPCHARTTREELIST', 00H ; `string'
CONST	ENDS
;	COMDAT ??_C@_0L@GENKOAG@?A?$LO?$LI?q?D?Z?$LF?e?$LM?x@
CONST	SEGMENT
??_C@_0L@GENKOAG@?A?$LO?$LI?q?D?Z?$LF?e?$LM?x@ DB 0c1H, 0beH, 0b8H, 0f1H, 0c4H
	DB	0daH, 0b5H, 0e5H, 0bcH, 0f8H, 00H		; `string'
CONST	ENDS
;	COMDAT ??_C@_08KMOBEFEF@?A?$LO?$LI?q?$LI?m?$LM?x@
CONST	SEGMENT
??_C@_08KMOBEFEF@?A?$LO?$LI?q?$LI?m?$LM?x@ DB 0c1H, 0beH, 0b8H, 0f1H, 0b8H
	DB	0edH, 0bcH, 0f8H, 00H			; `string'
CONST	ENDS
;	COMDAT ??_C@_04JLBNEAJO@?C?$NP?$LA?$KB@
CONST	SEGMENT
??_C@_04JLBNEAJO@?C?$NP?$LA?$KB@ DB 0c3H, 0dfH, 0b0H, 0a1H, 00H ; `string'
CONST	ENDS
;	COMDAT ??_C@_04IMIHFAMF@?A?V?$LN?D@
CONST	SEGMENT
??_C@_04IMIHFAMF@?A?V?$LN?D@ DB 0c1H, 0d6H, 0bdH, 0c4H, 00H ; `string'
CONST	ENDS
;	COMDAT ?messageMap@?1??GetThisMessageMap@CTabStockDlg@@KGPBUAFX_MSGMAP@@XZ@4U3@B
CONST	SEGMENT
?messageMap@?1??GetThisMessageMap@CTabStockDlg@@KGPBUAFX_MSGMAP@@XZ@4U3@B DD FLAT:?GetThisMessageMap@CTabDlg@@KGPBUAFX_MSGMAP@@XZ ; `CTabStockDlg::GetThisMessageMap'::`2'::messageMap
	DD	FLAT:?_messageEntries@?1??GetThisMessageMap@CTabStockDlg@@KGPBUAFX_MSGMAP@@XZ@4QBUAFX_MSGMAP_ENTRY@@B
CONST	ENDS
;	COMDAT ?_messageEntries@?1??GetThisMessageMap@CTabStockDlg@@KGPBUAFX_MSGMAP@@XZ@4QBUAFX_MSGMAP_ENTRY@@B
CONST	SEGMENT
?_messageEntries@?1??GetThisMessageMap@CTabStockDlg@@KGPBUAFX_MSGMAP@@XZ@4QBUAFX_MSGMAP_ENTRY@@B DD 05H ; `CTabStockDlg::GetThisMessageMap'::`2'::_messageEntries
	DD	00H
	DD	00H
	DD	00H
	DD	01aH
	DD	FLAT:?OnSize@CTabStockDlg@@IAEXIHH@Z
	DD	02H
	DD	00H
	DD	00H
	DD	00H
	DD	013H
	DD	FLAT:?OnDestroy@CTabStockDlg@@IAEXXZ
	DD	04eH
	DD	0fe6eH
	DD	01787H
	DD	01787H
	DD	03eH
	DD	FLAT:?OnSelchangedTreesearch@CTabStockDlg@@IAEXPAUtagNMHDR@@PAJ@Z
	DD	0111H
	DD	00H
	DD	02b01H
	DD	02b01H
	DD	03aH
	DD	FLAT:?OnBtnAdd@CTabStockDlg@@IAEXXZ
	DD	0111H
	DD	01H
	DD	036b7H
	DD	036b7H
	DD	03aH
	DD	FLAT:?OnSelchangeCodeInput@CTabStockDlg@@IAEXXZ
	DD	0464H
	DD	00H
	DD	00H
	DD	00H
	DD	0eH
	DD	FLAT:?OnWinixNotifyLoad@CTabStockDlg@@QAEJIJ@Z
	DD	0465H
	DD	00H
	DD	00H
	DD	00H
	DD	0eH
	DD	FLAT:?OnWinixNotifySave@CTabStockDlg@@QAEJIJ@Z
	DD	0466H
	DD	00H
	DD	00H
	DD	00H
	DD	0eH
	DD	FLAT:?OnWinixNotifyGroup@CTabStockDlg@@QAEJIJ@Z
	DD	0467H
	DD	00H
	DD	00H
	DD	00H
	DD	0eH
	DD	FLAT:?OnWinixNotifyGroupList@CTabStockDlg@@QAEJIJ@Z
	DD	0468H
	DD	00H
	DD	00H
	DD	00H
	DD	0eH
	DD	FLAT:?OnWinixNotifySaveCode@CTabStockDlg@@QAEJIJ@Z
	DD	00H
	DD	00H
	DD	00H
	DD	00H
	DD	00H
	DD	00H
CONST	ENDS
;	COMDAT ??_7CTabStockDlg@@6B@
CONST	SEGMENT
??_7CTabStockDlg@@6B@ DD FLAT:??_R4CTabStockDlg@@6B@	; CTabStockDlg::`vftable'
	DD	FLAT:?GetRuntimeClass@CDialog@@UBEPAUCRuntimeClass@@XZ
	DD	FLAT:??_ECTabStockDlg@@UAEPAXI@Z
	DD	FLAT:?Serialize@CObject@@UAEXAAVCArchive@@@Z
	DD	FLAT:?AssertValid@CObject@@UBEXXZ
	DD	FLAT:?Dump@CObject@@UBEXAAVCDumpContext@@@Z
	DD	FLAT:?OnCmdMsg@CDialog@@UAEHIHPAXPAUAFX_CMDHANDLERINFO@@@Z
	DD	FLAT:?OnFinalRelease@CWnd@@UAEXXZ
	DD	FLAT:?IsInvokeAllowed@CCmdTarget@@UAEHJ@Z
	DD	FLAT:?GetDispatchIID@CCmdTarget@@UAEHPAU_GUID@@@Z
	DD	FLAT:?GetTypeInfoCount@CCmdTarget@@UAEIXZ
	DD	FLAT:?GetTypeLibCache@CCmdTarget@@UAEPAVCTypeLibCache@@XZ
	DD	FLAT:?GetTypeLib@CCmdTarget@@UAEJKPAPAUITypeLib@@@Z
	DD	FLAT:?GetMessageMap@CTabStockDlg@@MBEPBUAFX_MSGMAP@@XZ
	DD	FLAT:?GetCommandMap@CCmdTarget@@MBEPBUAFX_OLECMDMAP@@XZ
	DD	FLAT:?GetDispatchMap@CCmdTarget@@MBEPBUAFX_DISPMAP@@XZ
	DD	FLAT:?GetConnectionMap@CCmdTarget@@MBEPBUAFX_CONNECTIONMAP@@XZ
	DD	FLAT:?GetInterfaceMap@CWnd@@MBEPBUAFX_INTERFACEMAP@@XZ
	DD	FLAT:?GetEventSinkMap@CCmdTarget@@MBEPBUAFX_EVENTSINKMAP@@XZ
	DD	FLAT:?OnCreateAggregates@CCmdTarget@@UAEHXZ
	DD	FLAT:?GetInterfaceHook@CCmdTarget@@UAEPAUIUnknown@@PBX@Z
	DD	FLAT:?GetExtraConnectionPoints@CCmdTarget@@MAEHPAVCPtrArray@@@Z
	DD	FLAT:?GetConnectionHook@CCmdTarget@@MAEPAUIConnectionPoint@@ABU_GUID@@@Z
	DD	FLAT:?PreSubclassWindow@CWnd@@UAEXXZ
	DD	FLAT:?Create@CWnd@@UAEHPBD0KABUtagRECT@@PAV1@IPAUCCreateContext@@@Z
	DD	FLAT:?CreateEx@CWnd@@UAEHKPBD0KABUtagRECT@@PAV1@IPAX@Z
	DD	FLAT:?CreateEx@CWnd@@UAEHKPBD0KHHHHPAUHWND__@@PAUHMENU__@@PAX@Z
	DD	FLAT:?DestroyWindow@CWnd@@UAEHXZ
	DD	FLAT:?PreCreateWindow@CWnd@@UAEHAAUtagCREATESTRUCTA@@@Z
	DD	FLAT:?CalcWindowRect@CWnd@@UAEXPAUtagRECT@@I@Z
	DD	FLAT:?GetMenu@CWnd@@UBEPAVCMenu@@XZ
	DD	FLAT:?SetMenu@CWnd@@UAEHPAVCMenu@@@Z
	DD	FLAT:?OnToolHitTest@CWnd@@UBEHVCPoint@@PAUtagTOOLINFOA@@@Z
	DD	FLAT:?GetScrollBarCtrl@CWnd@@UBEPAVCScrollBar@@H@Z
	DD	FLAT:?WinHelpA@CWnd@@UAEXKI@Z
	DD	FLAT:?HtmlHelpA@CWnd@@UAEXKI@Z
	DD	FLAT:?WinHelpInternal@CWnd@@UAEXKI@Z
	DD	FLAT:?ContinueModal@CWnd@@UAEHXZ
	DD	FLAT:?EndModalLoop@CWnd@@UAEXH@Z
	DD	FLAT:?OnDrawIconicThumbnailOrLivePreview@CWnd@@UAEXAAVCDC@@VCRect@@VCSize@@HAAH@Z
	DD	FLAT:?EnsureStdObj@CWnd@@UAEJXZ
	DD	FLAT:?get_accParent@CWnd@@UAEJPAPAUIDispatch@@@Z
	DD	FLAT:?get_accChildCount@CWnd@@UAEJPAJ@Z
	DD	FLAT:?get_accChild@CWnd@@UAEJUtagVARIANT@@PAPAUIDispatch@@@Z
	DD	FLAT:?get_accName@CWnd@@UAEJUtagVARIANT@@PAPA_W@Z
	DD	FLAT:?get_accValue@CWnd@@UAEJUtagVARIANT@@PAPA_W@Z
	DD	FLAT:?get_accDescription@CWnd@@UAEJUtagVARIANT@@PAPA_W@Z
	DD	FLAT:?get_accRole@CWnd@@UAEJUtagVARIANT@@PAU2@@Z
	DD	FLAT:?get_accState@CWnd@@UAEJUtagVARIANT@@PAU2@@Z
	DD	FLAT:?get_accHelp@CWnd@@UAEJUtagVARIANT@@PAPA_W@Z
	DD	FLAT:?get_accHelpTopic@CWnd@@UAEJPAPA_WUtagVARIANT@@PAJ@Z
	DD	FLAT:?get_accKeyboardShortcut@CWnd@@UAEJUtagVARIANT@@PAPA_W@Z
	DD	FLAT:?get_accFocus@CWnd@@UAEJPAUtagVARIANT@@@Z
	DD	FLAT:?get_accSelection@CWnd@@UAEJPAUtagVARIANT@@@Z
	DD	FLAT:?get_accDefaultAction@CWnd@@UAEJUtagVARIANT@@PAPA_W@Z
	DD	FLAT:?accSelect@CWnd@@UAEJJUtagVARIANT@@@Z
	DD	FLAT:?accLocation@CWnd@@UAEJPAJ000UtagVARIANT@@@Z
	DD	FLAT:?accNavigate@CWnd@@UAEJJUtagVARIANT@@PAU2@@Z
	DD	FLAT:?accHitTest@CWnd@@UAEJJJPAUtagVARIANT@@@Z
	DD	FLAT:?accDoDefaultAction@CWnd@@UAEJUtagVARIANT@@@Z
	DD	FLAT:?put_accName@CWnd@@UAEJUtagVARIANT@@PA_W@Z
	DD	FLAT:?put_accValue@CWnd@@UAEJUtagVARIANT@@PA_W@Z
	DD	FLAT:?SetProxy@CWnd@@UAEJPAUIAccessibleProxy@@@Z
	DD	FLAT:?CreateAccessibleProxy@CWnd@@UAEJIJPAJ@Z
	DD	FLAT:?OnCommand@CWnd@@MAEHIJ@Z
	DD	FLAT:?OnNotify@CWnd@@MAEHIJPAJ@Z
	DD	FLAT:?GetSuperWndProcAddr@CWnd@@MAEPAP6GJPAUHWND__@@IIJ@ZXZ
	DD	FLAT:?DoDataExchange@CTabStockDlg@@MAEXPAVCDataExchange@@@Z
	DD	FLAT:?BeginModalState@CWnd@@UAEXXZ
	DD	FLAT:?EndModalState@CWnd@@UAEXXZ
	DD	FLAT:?PreTranslateMessage@CTabStockDlg@@UAEHPAUtagMSG@@@Z
	DD	FLAT:?OnAmbientProperty@CWnd@@UAEHPAVCOleControlSite@@JPAUtagVARIANT@@@Z
	DD	FLAT:?WindowProc@CTabStockDlg@@MAEJIIJ@Z
	DD	FLAT:?OnWndMsg@CWnd@@MAEHIIJPAJ@Z
	DD	FLAT:?DefWindowProcA@CWnd@@MAEJIIJ@Z
	DD	FLAT:?PostNcDestroy@CWnd@@MAEXXZ
	DD	FLAT:?OnChildNotify@CWnd@@MAEHIIJPAJ@Z
	DD	FLAT:?OnTouchInputs@CWnd@@MAEHIPAUtagTOUCHINPUT@@@Z
	DD	FLAT:?OnTouchInput@CWnd@@MAEHVCPoint@@HHPAUtagTOUCHINPUT@@@Z
	DD	FLAT:?GetGestureStatus@CWnd@@MAEKVCPoint@@@Z
	DD	FLAT:?OnGestureZoom@CWnd@@MAEHVCPoint@@J@Z
	DD	FLAT:?OnGesturePan@CWnd@@MAEHVCPoint@@0@Z
	DD	FLAT:?OnGestureRotate@CWnd@@MAEHVCPoint@@N@Z
	DD	FLAT:?OnGestureTwoFingerTap@CWnd@@MAEHVCPoint@@@Z
	DD	FLAT:?OnGesturePressAndTap@CWnd@@MAEHVCPoint@@J@Z
	DD	FLAT:?ResizeDynamicLayout@CWnd@@MAEXXZ
	DD	FLAT:?CheckAutoCenter@CDialog@@UAEHXZ
	DD	FLAT:?IsFrameWnd@CWnd@@UBEHXZ
	DD	FLAT:?CreateControlContainer@CWnd@@MAEHPAPAVCOleControlContainer@@@Z
	DD	FLAT:?CreateControlSite@CWnd@@MAEHPAVCOleControlContainer@@PAPAVCOleControlSite@@IABU_GUID@@@Z
	DD	FLAT:?SetOccDialogInfo@CDialog@@MAEHPAU_AFX_OCC_DIALOG_INFO@@@Z
	DD	FLAT:?GetOccDialogInfo@CDialog@@MAEPAU_AFX_OCC_DIALOG_INFO@@XZ
	DD	FLAT:?Create@CRscDlg@@UAEHIPAVCWnd@@@Z
	DD	FLAT:?Create@CDialog@@UAEHPBDPAVCWnd@@@Z
	DD	FLAT:?CreateIndirect@CDialog@@UAEHPAXPAVCWnd@@@Z
	DD	FLAT:?CreateIndirect@CDialog@@UAEHPBUDLGTEMPLATE@@PAVCWnd@@PAX@Z
	DD	FLAT:?DoModal@CRscDlg@@UAEHXZ
	DD	FLAT:?OnInitDialog@CTabStockDlg@@MAEHXZ
	DD	FLAT:?OnSetFont@CDialog@@UAEXPAVCFont@@@Z
	DD	FLAT:?OnOK@CDialog@@MAEXXZ
	DD	FLAT:?OnCancel@CDialog@@MAEXXZ
	DD	FLAT:?PreInitDialog@CDialog@@MAEXXZ
	DD	FLAT:?ChangeSkinColor@CRscDlg@@UAEXK@Z
	DD	FLAT:?SetBkColor@CRscDlg@@UAEXK@Z
	DD	FLAT:?ReceiveData@CTabDlg@@UAEXPAUHWND__@@PBD11PAXJ@Z
	DD	FLAT:?SetRealPriceData@CTabDlg@@UAEXPAX@Z
	DD	FLAT:?ReceiveDataFromOutSide@CTabDlg@@UAEXXZ
	DD	FLAT:?SetCodeFromOutSide@CTabStockDlg@@UAEXPBD@Z
	DD	FLAT:?GetRectOfCtrl@CTabDlg@@MAE?AVCRect@@HH@Z
CONST	ENDS
;	COMDAT ??_7?$CList@PAVCItemLongData@@PAV1@@@6B@
CONST	SEGMENT
??_7?$CList@PAVCItemLongData@@PAV1@@@6B@ DD FLAT:??_R4?$CList@PAVCItemLongData@@PAV1@@@6B@ ; CList<CItemLongData *,CItemLongData *>::`vftable'
	DD	FLAT:?GetRuntimeClass@CObject@@UBEPAUCRuntimeClass@@XZ
	DD	FLAT:??_E?$CList@PAVCItemLongData@@PAV1@@@UAEPAXI@Z
	DD	FLAT:?Serialize@?$CList@PAVCItemLongData@@PAV1@@@UAEXAAVCArchive@@@Z
	DD	FLAT:?AssertValid@CObject@@UBEXXZ
	DD	FLAT:?Dump@CObject@@UBEXAAVCDumpContext@@@Z
CONST	ENDS
;	COMDAT ??_7CTLMCallback@CTabStockDlg@@6B@
CONST	SEGMENT
??_7CTLMCallback@CTabStockDlg@@6B@ DD FLAT:??_R4CTLMCallback@CTabStockDlg@@6B@ ; CTabStockDlg::CTLMCallback::`vftable'
	DD	FLAT:?ReceiveData@CTLMCallback@CTabStockDlg@@UAGXHDJHPAX@Z
CONST	ENDS
;	COMDAT ??_7CCodeTypeA@@6B@
CONST	SEGMENT
??_7CCodeTypeA@@6B@ DD FLAT:??_R4CCodeTypeA@@6B@	; CCodeTypeA::`vftable'
	DD	FLAT:?Convert@CCodeTypeA@@UAEXPAD@Z
	DD	FLAT:?Convert2@CCodeTypeA@@UAEXPAD@Z
	DD	FLAT:?ConvertOneClickData@CCodeTypeA@@UAEXPAD@Z
CONST	ENDS
;	COMDAT ??_C@_02IJKLNJNJ@?$KI?$OA@
CONST	SEGMENT
??_C@_02IJKLNJNJ@?$KI?$OA@ DB 0a8H, 0e0H, 00H		; `string'
CONST	ENDS
;	COMDAT ??_C@_02BJKMHJON@?$KI?W@
CONST	SEGMENT
??_C@_02BJKMHJON@?$KI?W@ DB 0a8H, 0d7H, 00H		; `string'
CONST	ENDS
;	COMDAT ??_C@_05KBKNOCPJ@?$CF2?42s@
CONST	SEGMENT
??_C@_05KBKNOCPJ@?$CF2?42s@ DB '%2.2s', 00H		; `string'
CONST	ENDS
;	COMDAT ??_7CCodeTypeBase@@6B@
CONST	SEGMENT
??_7CCodeTypeBase@@6B@ DD FLAT:??_R4CCodeTypeBase@@6B@	; CCodeTypeBase::`vftable'
	DD	FLAT:?Convert@CCodeTypeBase@@UAEXPAD@Z
	DD	FLAT:?Convert2@CCodeTypeBase@@UAEXPAD@Z
	DD	FLAT:?ConvertOneClickData@CCodeTypeBase@@UAEXPAD@Z
CONST	ENDS
;	COMDAT ??_C@_08KDNPGENH@TREELIST@
CONST	SEGMENT
??_C@_08KDNPGENH@TREELIST@ DB 'TREELIST', 00H		; `string'
CONST	ENDS
;	COMDAT ??_R2CDialog@@8
rdata$r	SEGMENT
??_R2CDialog@@8 DD FLAT:??_R1A@?0A@EA@CDialog@@8	; CDialog::`RTTI Base Class Array'
	DD	FLAT:??_R1A@?0A@EA@CWnd@@8
	DD	FLAT:??_R1A@?0A@EA@CCmdTarget@@8
	DD	FLAT:??_R1A@?0A@EA@CObject@@8
rdata$r	ENDS
;	COMDAT ??_R3CDialog@@8
rdata$r	SEGMENT
??_R3CDialog@@8 DD 00H					; CDialog::`RTTI Class Hierarchy Descriptor'
	DD	00H
	DD	04H
	DD	FLAT:??_R2CDialog@@8
rdata$r	ENDS
;	COMDAT ??_R0?AVCDialog@@@8
data$rs	SEGMENT
??_R0?AVCDialog@@@8 DD FLAT:??_7type_info@@6B@		; CDialog `RTTI Type Descriptor'
	DD	00H
	DB	'.?AVCDialog@@', 00H
data$rs	ENDS
;	COMDAT ??_R1A@?0A@EA@CDialog@@8
rdata$r	SEGMENT
??_R1A@?0A@EA@CDialog@@8 DD FLAT:??_R0?AVCDialog@@@8	; CDialog::`RTTI Base Class Descriptor at (0,-1,0,64)'
	DD	03H
	DD	00H
	DD	0ffffffffH
	DD	00H
	DD	040H
	DD	FLAT:??_R3CDialog@@8
rdata$r	ENDS
;	COMDAT ??_R1A@?0A@EA@CComboBox@@8
rdata$r	SEGMENT
??_R1A@?0A@EA@CComboBox@@8 DD FLAT:??_R0?AVCComboBox@@@8 ; CComboBox::`RTTI Base Class Descriptor at (0,-1,0,64)'
	DD	03H
	DD	00H
	DD	0ffffffffH
	DD	00H
	DD	040H
	DD	FLAT:??_R3CComboBox@@8
rdata$r	ENDS
;	COMDAT ??_R2CComboBox@@8
rdata$r	SEGMENT
??_R2CComboBox@@8 DD FLAT:??_R1A@?0A@EA@CComboBox@@8	; CComboBox::`RTTI Base Class Array'
	DD	FLAT:??_R1A@?0A@EA@CWnd@@8
	DD	FLAT:??_R1A@?0A@EA@CCmdTarget@@8
	DD	FLAT:??_R1A@?0A@EA@CObject@@8
rdata$r	ENDS
;	COMDAT ??_R3CComboBox@@8
rdata$r	SEGMENT
??_R3CComboBox@@8 DD 00H				; CComboBox::`RTTI Class Hierarchy Descriptor'
	DD	00H
	DD	04H
	DD	FLAT:??_R2CComboBox@@8
rdata$r	ENDS
;	COMDAT ??_R0?AVCComboBox@@@8
data$rs	SEGMENT
??_R0?AVCComboBox@@@8 DD FLAT:??_7type_info@@6B@	; CComboBox `RTTI Type Descriptor'
	DD	00H
	DB	'.?AVCComboBox@@', 00H
data$rs	ENDS
;	COMDAT ??_R4CComboBox@@6B@
rdata$r	SEGMENT
??_R4CComboBox@@6B@ DD 00H				; CComboBox::`RTTI Complete Object Locator'
	DD	00H
	DD	00H
	DD	FLAT:??_R0?AVCComboBox@@@8
	DD	FLAT:??_R3CComboBox@@8
rdata$r	ENDS
;	COMDAT ??_R2CCmdTarget@@8
rdata$r	SEGMENT
??_R2CCmdTarget@@8 DD FLAT:??_R1A@?0A@EA@CCmdTarget@@8	; CCmdTarget::`RTTI Base Class Array'
	DD	FLAT:??_R1A@?0A@EA@CObject@@8
rdata$r	ENDS
;	COMDAT ??_R3CCmdTarget@@8
rdata$r	SEGMENT
??_R3CCmdTarget@@8 DD 00H				; CCmdTarget::`RTTI Class Hierarchy Descriptor'
	DD	00H
	DD	02H
	DD	FLAT:??_R2CCmdTarget@@8
rdata$r	ENDS
;	COMDAT ??_R0?AVCCmdTarget@@@8
data$rs	SEGMENT
??_R0?AVCCmdTarget@@@8 DD FLAT:??_7type_info@@6B@	; CCmdTarget `RTTI Type Descriptor'
	DD	00H
	DB	'.?AVCCmdTarget@@', 00H
data$rs	ENDS
;	COMDAT ??_R1A@?0A@EA@CCmdTarget@@8
rdata$r	SEGMENT
??_R1A@?0A@EA@CCmdTarget@@8 DD FLAT:??_R0?AVCCmdTarget@@@8 ; CCmdTarget::`RTTI Base Class Descriptor at (0,-1,0,64)'
	DD	01H
	DD	00H
	DD	0ffffffffH
	DD	00H
	DD	040H
	DD	FLAT:??_R3CCmdTarget@@8
rdata$r	ENDS
;	COMDAT ??_R2CWnd@@8
rdata$r	SEGMENT
??_R2CWnd@@8 DD	FLAT:??_R1A@?0A@EA@CWnd@@8		; CWnd::`RTTI Base Class Array'
	DD	FLAT:??_R1A@?0A@EA@CCmdTarget@@8
	DD	FLAT:??_R1A@?0A@EA@CObject@@8
rdata$r	ENDS
;	COMDAT ??_R3CWnd@@8
rdata$r	SEGMENT
??_R3CWnd@@8 DD	00H					; CWnd::`RTTI Class Hierarchy Descriptor'
	DD	00H
	DD	03H
	DD	FLAT:??_R2CWnd@@8
rdata$r	ENDS
;	COMDAT ??_R0?AVCWnd@@@8
data$rs	SEGMENT
??_R0?AVCWnd@@@8 DD FLAT:??_7type_info@@6B@		; CWnd `RTTI Type Descriptor'
	DD	00H
	DB	'.?AVCWnd@@', 00H
data$rs	ENDS
;	COMDAT ??_R1A@?0A@EA@CWnd@@8
rdata$r	SEGMENT
??_R1A@?0A@EA@CWnd@@8 DD FLAT:??_R0?AVCWnd@@@8		; CWnd::`RTTI Base Class Descriptor at (0,-1,0,64)'
	DD	02H
	DD	00H
	DD	0ffffffffH
	DD	00H
	DD	040H
	DD	FLAT:??_R3CWnd@@8
rdata$r	ENDS
;	COMDAT ??_R1A@?0A@EA@CObject@@8
rdata$r	SEGMENT
??_R1A@?0A@EA@CObject@@8 DD FLAT:??_R0?AVCObject@@@8	; CObject::`RTTI Base Class Descriptor at (0,-1,0,64)'
	DD	00H
	DD	00H
	DD	0ffffffffH
	DD	00H
	DD	040H
	DD	FLAT:??_R3CObject@@8
rdata$r	ENDS
;	COMDAT ??_R2CObject@@8
rdata$r	SEGMENT
??_R2CObject@@8 DD FLAT:??_R1A@?0A@EA@CObject@@8	; CObject::`RTTI Base Class Array'
rdata$r	ENDS
;	COMDAT ??_R3CObject@@8
rdata$r	SEGMENT
??_R3CObject@@8 DD 00H					; CObject::`RTTI Class Hierarchy Descriptor'
	DD	00H
	DD	01H
	DD	FLAT:??_R2CObject@@8
rdata$r	ENDS
;	COMDAT ??_R0?AVCObject@@@8
data$rs	SEGMENT
??_R0?AVCObject@@@8 DD FLAT:??_7type_info@@6B@		; CObject `RTTI Type Descriptor'
	DD	00H
	DB	'.?AVCObject@@', 00H
data$rs	ENDS
;	COMDAT ??_C@_02EMFKHFLK@?$CFX@
CONST	SEGMENT
??_C@_02EMFKHFLK@?$CFX@ DB '%X', 00H			; `string'
CONST	ENDS
;	COMDAT ??_C@_06NDLAHCHE@?$CFs?$CF08X@
CONST	SEGMENT
??_C@_06NDLAHCHE@?$CFs?$CF08X@ DB '%s%08X', 00H		; `string'
CONST	ENDS
;	COMDAT ??_C@_0P@IDMAJEGN@HANAROPCTRMAIN@
CONST	SEGMENT
??_C@_0P@IDMAJEGN@HANAROPCTRMAIN@ DB 'HANAROPCTRMAIN', 00H ; `string'
CONST	ENDS
;	COMDAT ??_C@_0M@CBBNGGHM@PcTrMng?4dll@
CONST	SEGMENT
??_C@_0M@CBBNGGHM@PcTrMng?4dll@ DB 'PcTrMng.dll', 00H	; `string'
CONST	ENDS
;	COMDAT ??_7CComboBox@@6B@
CONST	SEGMENT
??_7CComboBox@@6B@ DD FLAT:??_R4CComboBox@@6B@		; CComboBox::`vftable'
	DD	FLAT:?GetRuntimeClass@CComboBox@@UBEPAUCRuntimeClass@@XZ
	DD	FLAT:??_ECComboBox@@UAEPAXI@Z
	DD	FLAT:?Serialize@CObject@@UAEXAAVCArchive@@@Z
	DD	FLAT:?AssertValid@CObject@@UBEXXZ
	DD	FLAT:?Dump@CObject@@UBEXAAVCDumpContext@@@Z
	DD	FLAT:?OnCmdMsg@CCmdTarget@@UAEHIHPAXPAUAFX_CMDHANDLERINFO@@@Z
	DD	FLAT:?OnFinalRelease@CWnd@@UAEXXZ
	DD	FLAT:?IsInvokeAllowed@CCmdTarget@@UAEHJ@Z
	DD	FLAT:?GetDispatchIID@CCmdTarget@@UAEHPAU_GUID@@@Z
	DD	FLAT:?GetTypeInfoCount@CCmdTarget@@UAEIXZ
	DD	FLAT:?GetTypeLibCache@CCmdTarget@@UAEPAVCTypeLibCache@@XZ
	DD	FLAT:?GetTypeLib@CCmdTarget@@UAEJKPAPAUITypeLib@@@Z
	DD	FLAT:?GetMessageMap@CWnd@@MBEPBUAFX_MSGMAP@@XZ
	DD	FLAT:?GetCommandMap@CCmdTarget@@MBEPBUAFX_OLECMDMAP@@XZ
	DD	FLAT:?GetDispatchMap@CCmdTarget@@MBEPBUAFX_DISPMAP@@XZ
	DD	FLAT:?GetConnectionMap@CCmdTarget@@MBEPBUAFX_CONNECTIONMAP@@XZ
	DD	FLAT:?GetInterfaceMap@CWnd@@MBEPBUAFX_INTERFACEMAP@@XZ
	DD	FLAT:?GetEventSinkMap@CCmdTarget@@MBEPBUAFX_EVENTSINKMAP@@XZ
	DD	FLAT:?OnCreateAggregates@CCmdTarget@@UAEHXZ
	DD	FLAT:?GetInterfaceHook@CCmdTarget@@UAEPAUIUnknown@@PBX@Z
	DD	FLAT:?GetExtraConnectionPoints@CCmdTarget@@MAEHPAVCPtrArray@@@Z
	DD	FLAT:?GetConnectionHook@CCmdTarget@@MAEPAUIConnectionPoint@@ABU_GUID@@@Z
	DD	FLAT:?PreSubclassWindow@CWnd@@UAEXXZ
	DD	FLAT:?Create@CWnd@@UAEHPBD0KABUtagRECT@@PAV1@IPAUCCreateContext@@@Z
	DD	FLAT:?CreateEx@CWnd@@UAEHKPBD0KABUtagRECT@@PAV1@IPAX@Z
	DD	FLAT:?CreateEx@CWnd@@UAEHKPBD0KHHHHPAUHWND__@@PAUHMENU__@@PAX@Z
	DD	FLAT:?DestroyWindow@CWnd@@UAEHXZ
	DD	FLAT:?PreCreateWindow@CWnd@@UAEHAAUtagCREATESTRUCTA@@@Z
	DD	FLAT:?CalcWindowRect@CWnd@@UAEXPAUtagRECT@@I@Z
	DD	FLAT:?GetMenu@CWnd@@UBEPAVCMenu@@XZ
	DD	FLAT:?SetMenu@CWnd@@UAEHPAVCMenu@@@Z
	DD	FLAT:?OnToolHitTest@CWnd@@UBEHVCPoint@@PAUtagTOOLINFOA@@@Z
	DD	FLAT:?GetScrollBarCtrl@CWnd@@UBEPAVCScrollBar@@H@Z
	DD	FLAT:?WinHelpA@CWnd@@UAEXKI@Z
	DD	FLAT:?HtmlHelpA@CWnd@@UAEXKI@Z
	DD	FLAT:?WinHelpInternal@CWnd@@UAEXKI@Z
	DD	FLAT:?ContinueModal@CWnd@@UAEHXZ
	DD	FLAT:?EndModalLoop@CWnd@@UAEXH@Z
	DD	FLAT:?OnDrawIconicThumbnailOrLivePreview@CWnd@@UAEXAAVCDC@@VCRect@@VCSize@@HAAH@Z
	DD	FLAT:?EnsureStdObj@CWnd@@UAEJXZ
	DD	FLAT:?get_accParent@CWnd@@UAEJPAPAUIDispatch@@@Z
	DD	FLAT:?get_accChildCount@CWnd@@UAEJPAJ@Z
	DD	FLAT:?get_accChild@CWnd@@UAEJUtagVARIANT@@PAPAUIDispatch@@@Z
	DD	FLAT:?get_accName@CWnd@@UAEJUtagVARIANT@@PAPA_W@Z
	DD	FLAT:?get_accValue@CWnd@@UAEJUtagVARIANT@@PAPA_W@Z
	DD	FLAT:?get_accDescription@CWnd@@UAEJUtagVARIANT@@PAPA_W@Z
	DD	FLAT:?get_accRole@CWnd@@UAEJUtagVARIANT@@PAU2@@Z
	DD	FLAT:?get_accState@CWnd@@UAEJUtagVARIANT@@PAU2@@Z
	DD	FLAT:?get_accHelp@CWnd@@UAEJUtagVARIANT@@PAPA_W@Z
	DD	FLAT:?get_accHelpTopic@CWnd@@UAEJPAPA_WUtagVARIANT@@PAJ@Z
	DD	FLAT:?get_accKeyboardShortcut@CWnd@@UAEJUtagVARIANT@@PAPA_W@Z
	DD	FLAT:?get_accFocus@CWnd@@UAEJPAUtagVARIANT@@@Z
	DD	FLAT:?get_accSelection@CWnd@@UAEJPAUtagVARIANT@@@Z
	DD	FLAT:?get_accDefaultAction@CWnd@@UAEJUtagVARIANT@@PAPA_W@Z
	DD	FLAT:?accSelect@CWnd@@UAEJJUtagVARIANT@@@Z
	DD	FLAT:?accLocation@CWnd@@UAEJPAJ000UtagVARIANT@@@Z
	DD	FLAT:?accNavigate@CWnd@@UAEJJUtagVARIANT@@PAU2@@Z
	DD	FLAT:?accHitTest@CWnd@@UAEJJJPAUtagVARIANT@@@Z
	DD	FLAT:?accDoDefaultAction@CWnd@@UAEJUtagVARIANT@@@Z
	DD	FLAT:?put_accName@CWnd@@UAEJUtagVARIANT@@PA_W@Z
	DD	FLAT:?put_accValue@CWnd@@UAEJUtagVARIANT@@PA_W@Z
	DD	FLAT:?SetProxy@CWnd@@UAEJPAUIAccessibleProxy@@@Z
	DD	FLAT:?CreateAccessibleProxy@CWnd@@UAEJIJPAJ@Z
	DD	FLAT:?OnCommand@CWnd@@MAEHIJ@Z
	DD	FLAT:?OnNotify@CWnd@@MAEHIJPAJ@Z
	DD	FLAT:?GetSuperWndProcAddr@CWnd@@MAEPAP6GJPAUHWND__@@IIJ@ZXZ
	DD	FLAT:?DoDataExchange@CWnd@@MAEXPAVCDataExchange@@@Z
	DD	FLAT:?BeginModalState@CWnd@@UAEXXZ
	DD	FLAT:?EndModalState@CWnd@@UAEXXZ
	DD	FLAT:?PreTranslateMessage@CWnd@@UAEHPAUtagMSG@@@Z
	DD	FLAT:?OnAmbientProperty@CWnd@@UAEHPAVCOleControlSite@@JPAUtagVARIANT@@@Z
	DD	FLAT:?WindowProc@CWnd@@MAEJIIJ@Z
	DD	FLAT:?OnWndMsg@CWnd@@MAEHIIJPAJ@Z
	DD	FLAT:?DefWindowProcA@CWnd@@MAEJIIJ@Z
	DD	FLAT:?PostNcDestroy@CWnd@@MAEXXZ
	DD	FLAT:?OnChildNotify@CComboBox@@MAEHIIJPAJ@Z
	DD	FLAT:?OnTouchInputs@CWnd@@MAEHIPAUtagTOUCHINPUT@@@Z
	DD	FLAT:?OnTouchInput@CWnd@@MAEHVCPoint@@HHPAUtagTOUCHINPUT@@@Z
	DD	FLAT:?GetGestureStatus@CWnd@@MAEKVCPoint@@@Z
	DD	FLAT:?OnGestureZoom@CWnd@@MAEHVCPoint@@J@Z
	DD	FLAT:?OnGesturePan@CWnd@@MAEHVCPoint@@0@Z
	DD	FLAT:?OnGestureRotate@CWnd@@MAEHVCPoint@@N@Z
	DD	FLAT:?OnGestureTwoFingerTap@CWnd@@MAEHVCPoint@@@Z
	DD	FLAT:?OnGesturePressAndTap@CWnd@@MAEHVCPoint@@J@Z
	DD	FLAT:?ResizeDynamicLayout@CWnd@@MAEXXZ
	DD	FLAT:?CheckAutoCenter@CWnd@@UAEHXZ
	DD	FLAT:?IsFrameWnd@CWnd@@UBEHXZ
	DD	FLAT:?CreateControlContainer@CWnd@@MAEHPAPAVCOleControlContainer@@@Z
	DD	FLAT:?CreateControlSite@CWnd@@MAEHPAVCOleControlContainer@@PAPAVCOleControlSite@@IABU_GUID@@@Z
	DD	FLAT:?SetOccDialogInfo@CWnd@@MAEHPAU_AFX_OCC_DIALOG_INFO@@@Z
	DD	FLAT:?GetOccDialogInfo@CWnd@@MAEPAU_AFX_OCC_DIALOG_INFO@@XZ
	DD	FLAT:?Create@CComboBox@@UAEHKABUtagRECT@@PAVCWnd@@I@Z
	DD	FLAT:?DrawItem@CComboBox@@UAEXPAUtagDRAWITEMSTRUCT@@@Z
	DD	FLAT:?MeasureItem@CComboBox@@UAEXPAUtagMEASUREITEMSTRUCT@@@Z
	DD	FLAT:?CompareItem@CComboBox@@UAEHPAUtagCOMPAREITEMSTRUCT@@@Z
	DD	FLAT:?DeleteItem@CComboBox@@UAEXPAUtagDELETEITEMSTRUCT@@@Z
CONST	ENDS
;	COMDAT ??_C@_00CNPNBAHC@@
CONST	SEGMENT
??_C@_00CNPNBAHC@@ DB 00H				; `string'
CONST	ENDS
;	COMDAT xdata$x
xdata$x	SEGMENT
__unwindtable$??_GCTabStockDlg@@UAEPAXI@Z DD 0ffffffffH
	DD	FLAT:___std_terminate
__ehfuncinfo$??_GCTabStockDlg@@UAEPAXI@Z DD 019930522H
	DD	01H
	DD	FLAT:__unwindtable$??_GCTabStockDlg@@UAEPAXI@Z
	DD	2 DUP(00H)
	DD	2 DUP(00H)
	DD	00H
	DD	05H
xdata$x	ENDS
;	COMDAT xdata$x
xdata$x	SEGMENT
__unwindtable$??1CTabStockDlg@@UAE@XZ DD 0ffffffffH
	DD	FLAT:___std_terminate
__ehfuncinfo$??1CTabStockDlg@@UAE@XZ DD 019930522H
	DD	01H
	DD	FLAT:__unwindtable$??1CTabStockDlg@@UAE@XZ
	DD	2 DUP(00H)
	DD	2 DUP(00H)
	DD	00H
	DD	05H
xdata$x	ENDS
;	COMDAT xdata$x
xdata$x	SEGMENT
__unwindtable$??_G?$CList@PAVCItemLongData@@PAV1@@@UAEPAXI@Z DD 0ffffffffH
	DD	FLAT:___std_terminate
__ehfuncinfo$??_G?$CList@PAVCItemLongData@@PAV1@@@UAEPAXI@Z DD 019930522H
	DD	01H
	DD	FLAT:__unwindtable$??_G?$CList@PAVCItemLongData@@PAV1@@@UAEPAXI@Z
	DD	2 DUP(00H)
	DD	2 DUP(00H)
	DD	00H
	DD	05H
xdata$x	ENDS
;	COMDAT xdata$x
xdata$x	SEGMENT
__ehfuncinfo$??1?$CList@PAVCItemLongData@@PAV1@@@UAE@XZ DD 019930522H
	DD	00H
	DD	00H
	DD	2 DUP(00H)
	DD	2 DUP(00H)
	DD	00H
	DD	05H
xdata$x	ENDS
;	COMDAT xdata$x
xdata$x	SEGMENT
__unwindtable$?AdviseGwansim@CTabStockDlg@@QAEXXZ DD 0ffffffffH
	DD	FLAT:__unwindfunclet$?AdviseGwansim@CTabStockDlg@@QAEXXZ$0
__ehfuncinfo$?AdviseGwansim@CTabStockDlg@@QAEXXZ DD 019930522H
	DD	01H
	DD	FLAT:__unwindtable$?AdviseGwansim@CTabStockDlg@@QAEXXZ
	DD	2 DUP(00H)
	DD	2 DUP(00H)
	DD	00H
	DD	01H
xdata$x	ENDS
;	COMDAT xdata$x
xdata$x	SEGMENT
__unwindtable$?InitTreeSearch@CTabStockDlg@@QAEXXZ DD 0ffffffffH
	DD	FLAT:__unwindfunclet$?InitTreeSearch@CTabStockDlg@@QAEXXZ$1
	DD	0ffffffffH
	DD	FLAT:__unwindfunclet$?InitTreeSearch@CTabStockDlg@@QAEXXZ$3
	DD	01H
	DD	FLAT:__unwindfunclet$?InitTreeSearch@CTabStockDlg@@QAEXXZ$4
	DD	0ffffffffH
	DD	FLAT:__unwindfunclet$?InitTreeSearch@CTabStockDlg@@QAEXXZ$0
__ehfuncinfo$?InitTreeSearch@CTabStockDlg@@QAEXXZ DD 019930522H
	DD	04H
	DD	FLAT:__unwindtable$?InitTreeSearch@CTabStockDlg@@QAEXXZ
	DD	2 DUP(00H)
	DD	2 DUP(00H)
	DD	00H
	DD	01H
xdata$x	ENDS
;	COMDAT xdata$x
xdata$x	SEGMENT
__unwindtable$?OnBtnAdd@CTabStockDlg@@IAEXXZ DD 0ffffffffH
	DD	FLAT:__unwindfunclet$?OnBtnAdd@CTabStockDlg@@IAEXXZ$0
	DD	00H
	DD	FLAT:__unwindfunclet$?OnBtnAdd@CTabStockDlg@@IAEXXZ$2
	DD	01H
	DD	FLAT:__unwindfunclet$?OnBtnAdd@CTabStockDlg@@IAEXXZ$3
__ehfuncinfo$?OnBtnAdd@CTabStockDlg@@IAEXXZ DD 019930522H
	DD	03H
	DD	FLAT:__unwindtable$?OnBtnAdd@CTabStockDlg@@IAEXXZ
	DD	2 DUP(00H)
	DD	2 DUP(00H)
	DD	00H
	DD	01H
xdata$x	ENDS
;	COMDAT xdata$x
xdata$x	SEGMENT
__unwindtable$?OnSelchangedTreesearch@CTabStockDlg@@IAEXPAUtagNMHDR@@PAJ@Z DD 0ffffffffH
	DD	FLAT:__unwindfunclet$?OnSelchangedTreesearch@CTabStockDlg@@IAEXPAUtagNMHDR@@PAJ@Z$0
	DD	00H
	DD	FLAT:__unwindfunclet$?OnSelchangedTreesearch@CTabStockDlg@@IAEXPAUtagNMHDR@@PAJ@Z$1
	DD	01H
	DD	FLAT:__unwindfunclet$?OnSelchangedTreesearch@CTabStockDlg@@IAEXPAUtagNMHDR@@PAJ@Z$2
__ehfuncinfo$?OnSelchangedTreesearch@CTabStockDlg@@IAEXPAUtagNMHDR@@PAJ@Z DD 019930522H
	DD	03H
	DD	FLAT:__unwindtable$?OnSelchangedTreesearch@CTabStockDlg@@IAEXPAUtagNMHDR@@PAJ@Z
	DD	2 DUP(00H)
	DD	2 DUP(00H)
	DD	00H
	DD	01H
xdata$x	ENDS
;	COMDAT xdata$x
xdata$x	SEGMENT
__unwindtable$?OnInitDialog@CTabStockDlg@@MAEHXZ DD 0ffffffffH
	DD	FLAT:__unwindfunclet$?OnInitDialog@CTabStockDlg@@MAEHXZ$0
	DD	0ffffffffH
	DD	FLAT:__unwindfunclet$?OnInitDialog@CTabStockDlg@@MAEHXZ$3
__ehfuncinfo$?OnInitDialog@CTabStockDlg@@MAEHXZ DD 019930522H
	DD	02H
	DD	FLAT:__unwindtable$?OnInitDialog@CTabStockDlg@@MAEHXZ
	DD	2 DUP(00H)
	DD	2 DUP(00H)
	DD	00H
	DD	01H
xdata$x	ENDS
;	COMDAT xdata$x
xdata$x	SEGMENT
__unwindtable$?WindowProc@CTabStockDlg@@MAEJIIJ@Z DD 0ffffffffH
	DD	FLAT:__unwindfunclet$?WindowProc@CTabStockDlg@@MAEJIIJ@Z$0
__ehfuncinfo$?WindowProc@CTabStockDlg@@MAEJIIJ@Z DD 019930522H
	DD	01H
	DD	FLAT:__unwindtable$?WindowProc@CTabStockDlg@@MAEJIIJ@Z
	DD	2 DUP(00H)
	DD	2 DUP(00H)
	DD	00H
	DD	01H
xdata$x	ENDS
;	COMDAT xdata$x
xdata$x	SEGMENT
__unwindtable$??0CTabStockDlg@@QAE@PAVCWnd@@@Z DD 0ffffffffH
	DD	FLAT:__unwindfunclet$??0CTabStockDlg@@QAE@PAVCWnd@@@Z$0
	DD	00H
	DD	FLAT:__unwindfunclet$??0CTabStockDlg@@QAE@PAVCWnd@@@Z$1
	DD	01H
	DD	FLAT:__unwindfunclet$??0CTabStockDlg@@QAE@PAVCWnd@@@Z$2
	DD	02H
	DD	FLAT:__unwindfunclet$??0CTabStockDlg@@QAE@PAVCWnd@@@Z$3
__ehfuncinfo$??0CTabStockDlg@@QAE@PAVCWnd@@@Z DD 019930522H
	DD	04H
	DD	FLAT:__unwindtable$??0CTabStockDlg@@QAE@PAVCWnd@@@Z
	DD	2 DUP(00H)
	DD	2 DUP(00H)
	DD	00H
	DD	01H
xdata$x	ENDS
;	COMDAT xdata$x
xdata$x	SEGMENT
__unwindtable$??0CCodeTypeA@@QAE@ABV0@@Z DD 0ffffffffH
	DD	FLAT:__unwindfunclet$??0CCodeTypeA@@QAE@ABV0@@Z$1
__ehfuncinfo$??0CCodeTypeA@@QAE@ABV0@@Z DD 019930522H
	DD	01H
	DD	FLAT:__unwindtable$??0CCodeTypeA@@QAE@ABV0@@Z
	DD	2 DUP(00H)
	DD	2 DUP(00H)
	DD	00H
	DD	01H
xdata$x	ENDS
;	COMDAT xdata$x
xdata$x	SEGMENT
__unwindtable$??0CCodeTypeBase@@QAE@ABV0@@Z DD 0ffffffffH
	DD	FLAT:__unwindfunclet$??0CCodeTypeBase@@QAE@ABV0@@Z$0
__ehfuncinfo$??0CCodeTypeBase@@QAE@ABV0@@Z DD 019930522H
	DD	01H
	DD	FLAT:__unwindtable$??0CCodeTypeBase@@QAE@ABV0@@Z
	DD	2 DUP(00H)
	DD	2 DUP(00H)
	DD	00H
	DD	01H
xdata$x	ENDS
;	COMDAT xdata$x
xdata$x	SEGMENT
__unwindtable$?CheckeNameType@CCodeTypeBase@@SAHPAD@Z DD 0ffffffffH
	DD	FLAT:__unwindfunclet$?CheckeNameType@CCodeTypeBase@@SAHPAD@Z$0
__ehfuncinfo$?CheckeNameType@CCodeTypeBase@@SAHPAD@Z DD 019930522H
	DD	01H
	DD	FLAT:__unwindtable$?CheckeNameType@CCodeTypeBase@@SAHPAD@Z
	DD	2 DUP(00H)
	DD	2 DUP(00H)
	DD	00H
	DD	01H
xdata$x	ENDS
;	COMDAT xdata$x
xdata$x	SEGMENT
__unwindtable$?ConvertOneClickData@CCodeTypeBase@@UAEXPAD@Z DD 0ffffffffH
	DD	FLAT:__unwindfunclet$?ConvertOneClickData@CCodeTypeBase@@UAEXPAD@Z$0
__ehfuncinfo$?ConvertOneClickData@CCodeTypeBase@@UAEXPAD@Z DD 019930522H
	DD	01H
	DD	FLAT:__unwindtable$?ConvertOneClickData@CCodeTypeBase@@UAEXPAD@Z
	DD	2 DUP(00H)
	DD	2 DUP(00H)
	DD	00H
	DD	01H
xdata$x	ENDS
;	COMDAT xdata$x
xdata$x	SEGMENT
__unwindtable$??0CInputCodeListEx@@QAE@XZ DD 0ffffffffH
	DD	FLAT:__unwindfunclet$??0CInputCodeListEx@@QAE@XZ$1
	DD	00H
	DD	FLAT:__unwindfunclet$??0CInputCodeListEx@@QAE@XZ$2
__ehfuncinfo$??0CInputCodeListEx@@QAE@XZ DD 019930522H
	DD	02H
	DD	FLAT:__unwindtable$??0CInputCodeListEx@@QAE@XZ
	DD	2 DUP(00H)
	DD	2 DUP(00H)
	DD	00H
	DD	01H
xdata$x	ENDS
;	COMDAT xdata$x
xdata$x	SEGMENT
__unwindtable$??0CInputCodeList@@QAE@XZ DD 0ffffffffH
	DD	FLAT:__unwindfunclet$??0CInputCodeList@@QAE@XZ$0
	DD	00H
	DD	FLAT:__unwindfunclet$??0CInputCodeList@@QAE@XZ$1
__ehfuncinfo$??0CInputCodeList@@QAE@XZ DD 019930522H
	DD	02H
	DD	FLAT:__unwindtable$??0CInputCodeList@@QAE@XZ
	DD	2 DUP(00H)
	DD	2 DUP(00H)
	DD	00H
	DD	01H
xdata$x	ENDS
;	COMDAT xdata$x
xdata$x	SEGMENT
__unwindtable$?AfxGetPctrInterface@@YGJH@Z DD 0ffffffffH
	DD	FLAT:__unwindfunclet$?AfxGetPctrInterface@@YGJH@Z$0
__ehfuncinfo$?AfxGetPctrInterface@@YGJH@Z DD 019930522H
	DD	01H
	DD	FLAT:__unwindtable$?AfxGetPctrInterface@@YGJH@Z
	DD	2 DUP(00H)
	DD	2 DUP(00H)
	DD	00H
	DD	01H
xdata$x	ENDS
CRT$XCU	SEGMENT
?RMSG_REPLAY_REAL$initializer$@@3P6AXXZA DD FLAT:??__ERMSG_REPLAY_REAL@@YAXXZ ; RMSG_REPLAY_REAL$initializer$
CRT$XCU	ENDS
CRT$XCU	SEGMENT
?RMSG_REPLAY_FAIL$initializer$@@3P6AXXZA DD FLAT:??__ERMSG_REPLAY_FAIL@@YAXXZ ; RMSG_REPLAY_FAIL$initializer$
CRT$XCU	ENDS
CRT$XCU	SEGMENT
?RMSG_REPLAY_CHANGE_DATE$initializer$@@3P6AXXZA DD FLAT:??__ERMSG_REPLAY_CHANGE_DATE@@YAXXZ ; RMSG_REPLAY_CHANGE_DATE$initializer$
CRT$XCU	ENDS
CRT$XCU	SEGMENT
?RMSG_REPLAY_END$initializer$@@3P6AXXZA DD FLAT:??__ERMSG_REPLAY_END@@YAXXZ ; RMSG_REPLAY_END$initializer$
CRT$XCU	ENDS
CRT$XCU	SEGMENT
?RMSG_REPLAY_INC_SEC$initializer$@@3P6AXXZA DD FLAT:??__ERMSG_REPLAY_INC_SEC@@YAXXZ ; RMSG_REPLAY_INC_SEC$initializer$
CRT$XCU	ENDS
CRT$XCU	SEGMENT
?RMSG_REPLAY_TOTAL_SEC$initializer$@@3P6AXXZA DD FLAT:??__ERMSG_REPLAY_TOTAL_SEC@@YAXXZ ; RMSG_REPLAY_TOTAL_SEC$initializer$
CRT$XCU	ENDS
CRT$XCU	SEGMENT
?RMSG_GETSIGNAL_REAL$initializer$@@3P6AXXZA DD FLAT:??__ERMSG_GETSIGNAL_REAL@@YAXXZ ; RMSG_GETSIGNAL_REAL$initializer$
CRT$XCU	ENDS
CRT$XCU	SEGMENT
?RMSG_CHARTMAIN$initializer$@@3P6AXXZA DD FLAT:??__ERMSG_CHARTMAIN@@YAXXZ ; RMSG_CHARTMAIN$initializer$
CRT$XCU	ENDS
CRT$XCU	SEGMENT
?RMS_ANALYSIS_FUNC$initializer$@@3P6AXXZA DD FLAT:??__ERMS_ANALYSIS_FUNC@@YAXXZ ; RMS_ANALYSIS_FUNC$initializer$
CRT$XCU	ENDS
CRT$XCU	SEGMENT
?RMSG_GET_USERID$initializer$@@3P6AXXZA DD FLAT:??__ERMSG_GET_USERID@@YAXXZ ; RMSG_GET_USERID$initializer$
CRT$XCU	ENDS
CRT$XCU	SEGMENT
?RMSG_KSDLLINFO$initializer$@@3P6AXXZA DD FLAT:??__ERMSG_KSDLLINFO@@YAXXZ ; RMSG_KSDLLINFO$initializer$
CRT$XCU	ENDS
CRT$XCU	SEGMENT
?RMSG_GETINFO$initializer$@@3P6AXXZA DD FLAT:??__ERMSG_GETINFO@@YAXXZ ; RMSG_GETINFO$initializer$
CRT$XCU	ENDS
CRT$XCU	SEGMENT
?RMSG_CHANGE_SKINCOLOR$initializer$@@3P6AXXZA DD FLAT:??__ERMSG_CHANGE_SKINCOLOR@@YAXXZ ; RMSG_CHANGE_SKINCOLOR$initializer$
CRT$XCU	ENDS
CRT$XCU	SEGMENT
?RMSG_GET_SKINCOLOR$initializer$@@3P6AXXZA DD FLAT:??__ERMSG_GET_SKINCOLOR@@YAXXZ ; RMSG_GET_SKINCOLOR$initializer$
CRT$XCU	ENDS
CRT$XCU	SEGMENT
?RMSG_CHANGE_CROSSLINE$initializer$@@3P6AXXZA DD FLAT:??__ERMSG_CHANGE_CROSSLINE@@YAXXZ ; RMSG_CHANGE_CROSSLINE$initializer$
CRT$XCU	ENDS
CRT$XCU	SEGMENT
?RMSG_SELCHARTCODE$initializer$@@3P6AXXZA DD FLAT:??__ERMSG_SELCHARTCODE@@YAXXZ ; RMSG_SELCHARTCODE$initializer$
CRT$XCU	ENDS
CRT$XCU	SEGMENT
?RMSG_GETINTERFACE$initializer$@@3P6AXXZA DD FLAT:??__ERMSG_GETINTERFACE@@YAXXZ ; RMSG_GETINTERFACE$initializer$
CRT$XCU	ENDS
; Function compile flags: /Ogtp
; File C:\Program Files (x86)\Microsoft Visual Studio\2019\Community\VC\Tools\MSVC\14.29.30133\atlmfc\include\afxtempl.h
; File C:\Program Files (x86)\Microsoft Visual Studio\2019\Community\VC\Tools\MSVC\14.29.30133\atlmfc\include\afx.inl
; File C:\Program Files (x86)\Microsoft Visual Studio\2019\Community\VC\Tools\MSVC\14.29.30133\atlmfc\include\afxtempl.h
; File C:\Program Files (x86)\Microsoft Visual Studio\2019\Community\VC\Tools\MSVC\14.29.30133\atlmfc\include\afx.inl
; File C:\Program Files (x86)\Microsoft Visual Studio\2019\Community\VC\Tools\MSVC\14.29.30133\atlmfc\include\afxtempl.h
; File C:\Program Files (x86)\Microsoft Visual Studio\2019\Community\VC\Tools\MSVC\14.29.30133\atlmfc\include\afx.inl
; File C:\Program Files (x86)\Microsoft Visual Studio\2019\Community\VC\Tools\MSVC\14.29.30133\atlmfc\include\afxtempl.h
;	COMDAT ??$SerializeElements@PAVCItemLongData@@@@YGXAAVCArchive@@PAPAVCItemLongData@@H@Z
_TEXT	SEGMENT
_ar$ = 8						; size = 4
_pElements$ = 12					; size = 4
_nCount$ = 16						; size = 4
??$SerializeElements@PAVCItemLongData@@@@YGXAAVCArchive@@PAPAVCItemLongData@@H@Z PROC ; SerializeElements<CItemLongData *>, COMDAT

; 67   : {

  00000	55		 push	 ebp
  00001	8b ec		 mov	 ebp, esp

; 68   : 	ENSURE(nCount == 0 || pElements != NULL);

  00003	8b 4d 0c	 mov	 ecx, DWORD PTR _pElements$[ebp]
  00006	53		 push	 ebx
  00007	56		 push	 esi
  00008	8b 75 10	 mov	 esi, DWORD PTR _nCount$[ebp]
  0000b	57		 push	 edi
  0000c	85 f6		 test	 esi, esi
  0000e	74 08		 je	 SHORT $LN2@SerializeE
  00010	85 c9		 test	 ecx, ecx
  00012	0f 84 89 00 00
	00		 je	 $LN34@SerializeE
$LN2@SerializeE:
; File C:\Program Files (x86)\Microsoft Visual Studio\2019\Community\VC\Tools\MSVC\14.29.30133\atlmfc\include\afx.inl

; 212  : 	{ return (m_nMode & CArchive::load) == 0; }

  00018	8b 55 08	 mov	 edx, DWORD PTR _ar$[ebp]
  0001b	8b 42 18	 mov	 eax, DWORD PTR [edx+24]
  0001e	f7 d0		 not	 eax
  00020	a8 01		 test	 al, 1
; File C:\Program Files (x86)\Microsoft Visual Studio\2019\Community\VC\Tools\MSVC\14.29.30133\atlmfc\include\afxtempl.h

; 73   : 	if (ar.IsStoring())

  00022	74 3c		 je	 SHORT $LN10@SerializeE

; 74   : 	{
; 75   : 		TYPE* pData;
; 76   : 		UINT_PTR nElementsLeft;
; 77   : 
; 78   : 		nElementsLeft = nCount;
; 79   : 		pData = pElements;
; 80   : 		while( nElementsLeft > 0 )

  00024	85 f6		 test	 esi, esi
  00026	74 31		 je	 SHORT $LN8@SerializeE
  00028	0f 1f 84 00 00
	00 00 00	 npad	 8
$LL5@SerializeE:

; 81   : 		{
; 82   : 			UINT nElementsToWrite;
; 83   : 
; 84   : 			nElementsToWrite = UINT(__min(nElementsLeft, INT_MAX/sizeof(TYPE)));

  00030	bb ff ff ff 1f	 mov	 ebx, 536870911		; 1fffffffH
  00035	3b f3		 cmp	 esi, ebx
  00037	0f 42 de	 cmovb	 ebx, esi

; 85   : 			ar.Write(pData, nElementsToWrite*sizeof(TYPE));

  0003a	8d 3c 9d 00 00
	00 00		 lea	 edi, DWORD PTR [ebx*4]
  00041	57		 push	 edi
  00042	51		 push	 ecx
  00043	8b ca		 mov	 ecx, edx
  00045	e8 00 00 00 00	 call	 ?Write@CArchive@@QAEXPBXI@Z ; CArchive::Write

; 86   : 			nElementsLeft -= nElementsToWrite;
; 87   : 			pData += nElementsToWrite;

  0004a	8b 4d 0c	 mov	 ecx, DWORD PTR _pElements$[ebp]
  0004d	8b 55 08	 mov	 edx, DWORD PTR _ar$[ebp]
  00050	03 cf		 add	 ecx, edi
  00052	89 4d 0c	 mov	 DWORD PTR _pElements$[ebp], ecx
  00055	2b f3		 sub	 esi, ebx
  00057	75 d7		 jne	 SHORT $LL5@SerializeE
$LN8@SerializeE:
  00059	5f		 pop	 edi

; 105  : 		}
; 106  : 	}
; 107  : }

  0005a	5e		 pop	 esi
  0005b	5b		 pop	 ebx
  0005c	5d		 pop	 ebp
  0005d	c2 0c 00	 ret	 12			; 0000000cH
$LN10@SerializeE:

; 97   : 		while( nElementsLeft > 0 )

  00060	85 f6		 test	 esi, esi
  00062	74 f5		 je	 SHORT $LN8@SerializeE
$LL7@SerializeE:

; 98   : 		{
; 99   : 			UINT nElementsToRead;
; 100  : 
; 101  : 			nElementsToRead = UINT(__min(nElementsLeft, INT_MAX/sizeof(TYPE)));

  00064	bf ff ff ff 1f	 mov	 edi, 536870911		; 1fffffffH
  00069	3b f7		 cmp	 esi, edi
  0006b	0f 42 fe	 cmovb	 edi, esi

; 102  : 			ar.EnsureRead(pData, nElementsToRead*sizeof(TYPE));

  0006e	8d 1c bd 00 00
	00 00		 lea	 ebx, DWORD PTR [edi*4]
; File C:\Program Files (x86)\Microsoft Visual Studio\2019\Community\VC\Tools\MSVC\14.29.30133\atlmfc\include\afx.inl

; 399  : 	UINT nRead=Read(lpBuf, nCount);

  00075	53		 push	 ebx
  00076	51		 push	 ecx
  00077	8b ca		 mov	 ecx, edx
  00079	e8 00 00 00 00	 call	 ?Read@CArchive@@QAEIPAXI@Z ; CArchive::Read

; 400  : 	if(nRead!=nCount)

  0007e	3b c3		 cmp	 eax, ebx
  00080	75 16		 jne	 SHORT $LN23@SerializeE
; File C:\Program Files (x86)\Microsoft Visual Studio\2019\Community\VC\Tools\MSVC\14.29.30133\atlmfc\include\afxtempl.h

; 97   : 		while( nElementsLeft > 0 )

  00082	8b 4d 0c	 mov	 ecx, DWORD PTR _pElements$[ebp]
  00085	8b 55 08	 mov	 edx, DWORD PTR _ar$[ebp]

; 103  : 			nElementsLeft -= nElementsToRead;
; 104  : 			pData += nElementsToRead;

  00088	03 cb		 add	 ecx, ebx
  0008a	89 4d 0c	 mov	 DWORD PTR _pElements$[ebp], ecx
  0008d	2b f7		 sub	 esi, edi
  0008f	75 d3		 jne	 SHORT $LL7@SerializeE

; 105  : 		}
; 106  : 	}
; 107  : }

  00091	5f		 pop	 edi
  00092	5e		 pop	 esi
  00093	5b		 pop	 ebx
  00094	5d		 pop	 ebp
  00095	c2 0c 00	 ret	 12			; 0000000cH
$LN23@SerializeE:
; File C:\Program Files (x86)\Microsoft Visual Studio\2019\Community\VC\Tools\MSVC\14.29.30133\atlmfc\include\afx.inl

; 402  : 		AfxThrowArchiveException(CArchiveException::endOfFile);

  00098	6a 00		 push	 0
  0009a	6a 03		 push	 3
  0009c	e8 00 00 00 00	 call	 ?AfxThrowArchiveException@@YGXHPBD@Z ; AfxThrowArchiveException
$LN34@SerializeE:
; File C:\Program Files (x86)\Microsoft Visual Studio\2019\Community\VC\Tools\MSVC\14.29.30133\atlmfc\include\afxtempl.h

; 68   : 	ENSURE(nCount == 0 || pElements != NULL);

  000a1	e8 00 00 00 00	 call	 ?AfxThrowInvalidArgException@@YGXXZ ; AfxThrowInvalidArgException
$LN32@SerializeE:
  000a6	cc		 int	 3
??$SerializeElements@PAVCItemLongData@@@@YGXAAVCArchive@@PAPAVCItemLongData@@H@Z ENDP ; SerializeElements<CItemLongData *>
_TEXT	ENDS
; Function compile flags: /Ogtp
; File D:\git\src\IBK\IBK_DRFN\ProjSrc\SrcDrfn\Chart\comparechart\TabStockDlg.cpp
;	COMDAT ??__ERMSG_GETINTERFACE@@YAXXZ
text$di	SEGMENT
??__ERMSG_GETINTERFACE@@YAXXZ PROC			; `dynamic initializer for 'RMSG_GETINTERFACE'', COMDAT

; 442  : const UINT RMSG_GETINTERFACE = ::RegisterWindowMessage(_T("RMSG_GETINTERFACE"));

  00000	68 00 00 00 00	 push	 OFFSET ??_C@_0BC@NOGENPAJ@RMSG_GETINTERFACE@
  00005	ff 15 00 00 00
	00		 call	 DWORD PTR __imp__RegisterWindowMessageA@4
  0000b	a3 00 00 00 00	 mov	 DWORD PTR ?RMSG_GETINTERFACE@@3IB, eax
  00010	c3		 ret	 0
??__ERMSG_GETINTERFACE@@YAXXZ ENDP			; `dynamic initializer for 'RMSG_GETINTERFACE''
text$di	ENDS
; Function compile flags: /Ogtp
; File D:\git\src\IBK\IBK_DRFN\ProjSrc\SrcDrfn\Chart\comparechart\StdDialog.h
;	COMDAT ??__ERMSG_SELCHARTCODE@@YAXXZ
text$di	SEGMENT
??__ERMSG_SELCHARTCODE@@YAXXZ PROC			; `dynamic initializer for 'RMSG_SELCHARTCODE'', COMDAT

; 73   : const UINT RMSG_SELCHARTCODE = ::RegisterWindowMessage( "RMSG_SELCHARTCODE" );

  00000	68 00 00 00 00	 push	 OFFSET ??_C@_0BC@LHNMEPFM@RMSG_SELCHARTCODE@
  00005	ff 15 00 00 00
	00		 call	 DWORD PTR __imp__RegisterWindowMessageA@4
  0000b	a3 00 00 00 00	 mov	 DWORD PTR ?RMSG_SELCHARTCODE@@3IB, eax
  00010	c3		 ret	 0
??__ERMSG_SELCHARTCODE@@YAXXZ ENDP			; `dynamic initializer for 'RMSG_SELCHARTCODE''
text$di	ENDS
; Function compile flags: /Ogtp
; File D:\git\src\IBK\IBK_DRFN\ProjSrc\SrcDrfn\Chart\comparechart\define\ChartMsgDef.h
;	COMDAT ??__ERMSG_CHANGE_CROSSLINE@@YAXXZ
text$di	SEGMENT
??__ERMSG_CHANGE_CROSSLINE@@YAXXZ PROC			; `dynamic initializer for 'RMSG_CHANGE_CROSSLINE'', COMDAT

; 216  : const UINT RMSG_CHANGE_CROSSLINE = ::RegisterWindowMessage(_T("RMSG_CHANGE_CROSSLINE"));

  00000	68 00 00 00 00	 push	 OFFSET ??_C@_0BG@LNLCJKPF@RMSG_CHANGE_CROSSLINE@
  00005	ff 15 00 00 00
	00		 call	 DWORD PTR __imp__RegisterWindowMessageA@4
  0000b	a3 00 00 00 00	 mov	 DWORD PTR ?RMSG_CHANGE_CROSSLINE@@3IB, eax
  00010	c3		 ret	 0
??__ERMSG_CHANGE_CROSSLINE@@YAXXZ ENDP			; `dynamic initializer for 'RMSG_CHANGE_CROSSLINE''
text$di	ENDS
; Function compile flags: /Ogtp
; File D:\git\src\IBK\IBK_DRFN\ProjSrc\SrcDrfn\Chart\comparechart\define\ChartMsgDef.h
;	COMDAT ??__ERMSG_GET_SKINCOLOR@@YAXXZ
text$di	SEGMENT
??__ERMSG_GET_SKINCOLOR@@YAXXZ PROC			; `dynamic initializer for 'RMSG_GET_SKINCOLOR'', COMDAT

; 214  : const UINT RMSG_GET_SKINCOLOR = ::RegisterWindowMessage(_T("RMSG_GET_SKINCOLOR"));

  00000	68 00 00 00 00	 push	 OFFSET ??_C@_0BD@FLDNDDHK@RMSG_GET_SKINCOLOR@
  00005	ff 15 00 00 00
	00		 call	 DWORD PTR __imp__RegisterWindowMessageA@4
  0000b	a3 00 00 00 00	 mov	 DWORD PTR ?RMSG_GET_SKINCOLOR@@3IB, eax
  00010	c3		 ret	 0
??__ERMSG_GET_SKINCOLOR@@YAXXZ ENDP			; `dynamic initializer for 'RMSG_GET_SKINCOLOR''
text$di	ENDS
; Function compile flags: /Ogtp
; File D:\git\src\IBK\IBK_DRFN\ProjSrc\SrcDrfn\Chart\comparechart\define\ChartMsgDef.h
;	COMDAT ??__ERMSG_CHANGE_SKINCOLOR@@YAXXZ
text$di	SEGMENT
??__ERMSG_CHANGE_SKINCOLOR@@YAXXZ PROC			; `dynamic initializer for 'RMSG_CHANGE_SKINCOLOR'', COMDAT

; 213  : const UINT RMSG_CHANGE_SKINCOLOR = ::RegisterWindowMessage(_T("RMSG_CHANGE_SKINCOLOR"));

  00000	68 00 00 00 00	 push	 OFFSET ??_C@_0BG@CNPAHNGG@RMSG_CHANGE_SKINCOLOR@
  00005	ff 15 00 00 00
	00		 call	 DWORD PTR __imp__RegisterWindowMessageA@4
  0000b	a3 00 00 00 00	 mov	 DWORD PTR ?RMSG_CHANGE_SKINCOLOR@@3IB, eax
  00010	c3		 ret	 0
??__ERMSG_CHANGE_SKINCOLOR@@YAXXZ ENDP			; `dynamic initializer for 'RMSG_CHANGE_SKINCOLOR''
text$di	ENDS
; Function compile flags: /Ogtp
; File D:\git\src\IBK\IBK_DRFN\ProjSrc\SrcDrfn\Chart\comparechart\define\ChartMsgDef.h
;	COMDAT ??__ERMSG_GETINFO@@YAXXZ
text$di	SEGMENT
??__ERMSG_GETINFO@@YAXXZ PROC				; `dynamic initializer for 'RMSG_GETINFO'', COMDAT

; 204  : const UINT RMSG_GETINFO = ::RegisterWindowMessage(_T("RMSG_GETINFO"));

  00000	68 00 00 00 00	 push	 OFFSET ??_C@_0N@IIOKMIEH@RMSG_GETINFO@
  00005	ff 15 00 00 00
	00		 call	 DWORD PTR __imp__RegisterWindowMessageA@4
  0000b	a3 00 00 00 00	 mov	 DWORD PTR ?RMSG_GETINFO@@3IB, eax
  00010	c3		 ret	 0
??__ERMSG_GETINFO@@YAXXZ ENDP				; `dynamic initializer for 'RMSG_GETINFO''
text$di	ENDS
; Function compile flags: /Ogtp
; File D:\git\src\IBK\IBK_DRFN\ProjSrc\SrcDrfn\Chart\comparechart\define\ChartMsgDef.h
;	COMDAT ??__ERMSG_KSDLLINFO@@YAXXZ
text$di	SEGMENT
??__ERMSG_KSDLLINFO@@YAXXZ PROC				; `dynamic initializer for 'RMSG_KSDLLINFO'', COMDAT

; 203  : const UINT RMSG_KSDLLINFO = ::RegisterWindowMessage(_T("RMSG_KSDLLINFO"));		// TrmCompCharView 

  00000	68 00 00 00 00	 push	 OFFSET ??_C@_0P@LFDACNFE@RMSG_KSDLLINFO@
  00005	ff 15 00 00 00
	00		 call	 DWORD PTR __imp__RegisterWindowMessageA@4
  0000b	a3 00 00 00 00	 mov	 DWORD PTR ?RMSG_KSDLLINFO@@3IB, eax
  00010	c3		 ret	 0
??__ERMSG_KSDLLINFO@@YAXXZ ENDP				; `dynamic initializer for 'RMSG_KSDLLINFO''
text$di	ENDS
; Function compile flags: /Ogtp
; File D:\git\src\IBK\IBK_DRFN\ProjSrc\SrcDrfn\Chart\comparechart\define\ChartMsgDef.h
;	COMDAT ??__ERMSG_GET_USERID@@YAXXZ
text$di	SEGMENT
??__ERMSG_GET_USERID@@YAXXZ PROC			; `dynamic initializer for 'RMSG_GET_USERID'', COMDAT

; 200  : const UINT RMSG_GET_USERID = ::RegisterWindowMessage(_T("RMSG_GET_USERID"));	// User ID 

  00000	68 00 00 00 00	 push	 OFFSET ??_C@_0BA@HKNFENJL@RMSG_GET_USERID@
  00005	ff 15 00 00 00
	00		 call	 DWORD PTR __imp__RegisterWindowMessageA@4
  0000b	a3 00 00 00 00	 mov	 DWORD PTR ?RMSG_GET_USERID@@3IB, eax
  00010	c3		 ret	 0
??__ERMSG_GET_USERID@@YAXXZ ENDP			; `dynamic initializer for 'RMSG_GET_USERID''
text$di	ENDS
; Function compile flags: /Ogtp
; File D:\git\src\IBK\IBK_DRFN\ProjSrc\SrcDrfn\Chart\comparechart\define\ChartMsgDef.h
;	COMDAT ??__ERMS_ANALYSIS_FUNC@@YAXXZ
text$di	SEGMENT
??__ERMS_ANALYSIS_FUNC@@YAXXZ PROC			; `dynamic initializer for 'RMS_ANALYSIS_FUNC'', COMDAT

; 196  : const UINT RMS_ANALYSIS_FUNC	= ::RegisterWindowMessage(_T("RMS_ANALYSIS_FUNC"));

  00000	68 00 00 00 00	 push	 OFFSET ??_C@_0BC@MMPGLPDH@RMS_ANALYSIS_FUNC@
  00005	ff 15 00 00 00
	00		 call	 DWORD PTR __imp__RegisterWindowMessageA@4
  0000b	a3 00 00 00 00	 mov	 DWORD PTR ?RMS_ANALYSIS_FUNC@@3IB, eax
  00010	c3		 ret	 0
??__ERMS_ANALYSIS_FUNC@@YAXXZ ENDP			; `dynamic initializer for 'RMS_ANALYSIS_FUNC''
text$di	ENDS
; Function compile flags: /Ogtp
; File D:\git\src\IBK\IBK_DRFN\ProjSrc\SrcDrfn\Chart\comparechart\define\ChartMsgDef.h
;	COMDAT ??__ERMSG_CHARTMAIN@@YAXXZ
text$di	SEGMENT
??__ERMSG_CHARTMAIN@@YAXXZ PROC				; `dynamic initializer for 'RMSG_CHARTMAIN'', COMDAT

; 193  : const UINT RMSG_CHARTMAIN		= ::RegisterWindowMessage(_T("RMSG_CHARTMAIN"));

  00000	68 00 00 00 00	 push	 OFFSET ??_C@_0P@KHFCBIOH@RMSG_CHARTMAIN@
  00005	ff 15 00 00 00
	00		 call	 DWORD PTR __imp__RegisterWindowMessageA@4
  0000b	a3 00 00 00 00	 mov	 DWORD PTR ?RMSG_CHARTMAIN@@3IB, eax
  00010	c3		 ret	 0
??__ERMSG_CHARTMAIN@@YAXXZ ENDP				; `dynamic initializer for 'RMSG_CHARTMAIN''
text$di	ENDS
; Function compile flags: /Ogtp
; File D:\git\src\IBK\IBK_DRFN\ProjSrc\SrcDrfn\Chart\commontr\TRDefine.h
;	COMDAT ??__ERMSG_GETSIGNAL_REAL@@YAXXZ
text$di	SEGMENT
??__ERMSG_GETSIGNAL_REAL@@YAXXZ PROC			; `dynamic initializer for 'RMSG_GETSIGNAL_REAL'', COMDAT

; 213  : const UINT RMSG_GETSIGNAL_REAL = ::RegisterWindowMessage(_T("RMSG_GETSIGNAL_REAL"));

  00000	68 00 00 00 00	 push	 OFFSET ??_C@_0BE@FJPKENOB@RMSG_GETSIGNAL_REAL@
  00005	ff 15 00 00 00
	00		 call	 DWORD PTR __imp__RegisterWindowMessageA@4
  0000b	a3 00 00 00 00	 mov	 DWORD PTR ?RMSG_GETSIGNAL_REAL@@3IB, eax
  00010	c3		 ret	 0
??__ERMSG_GETSIGNAL_REAL@@YAXXZ ENDP			; `dynamic initializer for 'RMSG_GETSIGNAL_REAL''
text$di	ENDS
; Function compile flags: /Ogtp
; File D:\git\src\IBK\IBK_DRFN\ProjSrc\SrcDrfn\Chart\chart_common\ReplayChartInfoDef.h
;	COMDAT ??__ERMSG_REPLAY_TOTAL_SEC@@YAXXZ
text$di	SEGMENT
??__ERMSG_REPLAY_TOTAL_SEC@@YAXXZ PROC			; `dynamic initializer for 'RMSG_REPLAY_TOTAL_SEC'', COMDAT

; 97   : 	const UINT RMSG_REPLAY_TOTAL_SEC = ::RegisterWindowMessage(_T("RMSG_REPLAY_TOTAL_SEC"));		//  () 

  00000	68 00 00 00 00	 push	 OFFSET ??_C@_0BG@GIAJEIJF@RMSG_REPLAY_TOTAL_SEC@
  00005	ff 15 00 00 00
	00		 call	 DWORD PTR __imp__RegisterWindowMessageA@4
  0000b	a3 00 00 00 00	 mov	 DWORD PTR ?RMSG_REPLAY_TOTAL_SEC@@3IB, eax
  00010	c3		 ret	 0
??__ERMSG_REPLAY_TOTAL_SEC@@YAXXZ ENDP			; `dynamic initializer for 'RMSG_REPLAY_TOTAL_SEC''
text$di	ENDS
; Function compile flags: /Ogtp
; File D:\git\src\IBK\IBK_DRFN\ProjSrc\SrcDrfn\Chart\chart_common\ReplayChartInfoDef.h
;	COMDAT ??__ERMSG_REPLAY_INC_SEC@@YAXXZ
text$di	SEGMENT
??__ERMSG_REPLAY_INC_SEC@@YAXXZ PROC			; `dynamic initializer for 'RMSG_REPLAY_INC_SEC'', COMDAT

; 96   : 	const UINT RMSG_REPLAY_INC_SEC = ::RegisterWindowMessage(_T("RMSG_REPLAY_INC_SEC"));			// 1   

  00000	68 00 00 00 00	 push	 OFFSET ??_C@_0BE@JFCIMCIP@RMSG_REPLAY_INC_SEC@
  00005	ff 15 00 00 00
	00		 call	 DWORD PTR __imp__RegisterWindowMessageA@4
  0000b	a3 00 00 00 00	 mov	 DWORD PTR ?RMSG_REPLAY_INC_SEC@@3IB, eax
  00010	c3		 ret	 0
??__ERMSG_REPLAY_INC_SEC@@YAXXZ ENDP			; `dynamic initializer for 'RMSG_REPLAY_INC_SEC''
text$di	ENDS
; Function compile flags: /Ogtp
; File D:\git\src\IBK\IBK_DRFN\ProjSrc\SrcDrfn\Chart\chart_common\ReplayChartInfoDef.h
;	COMDAT ??__ERMSG_REPLAY_END@@YAXXZ
text$di	SEGMENT
??__ERMSG_REPLAY_END@@YAXXZ PROC			; `dynamic initializer for 'RMSG_REPLAY_END'', COMDAT

; 95   : 	const UINT RMSG_REPLAY_END			= ::RegisterWindowMessage(_T("RMSG_REPLAY_END"));

  00000	68 00 00 00 00	 push	 OFFSET ??_C@_0BA@NKHHCPON@RMSG_REPLAY_END@
  00005	ff 15 00 00 00
	00		 call	 DWORD PTR __imp__RegisterWindowMessageA@4
  0000b	a3 00 00 00 00	 mov	 DWORD PTR ?RMSG_REPLAY_END@@3IB, eax
  00010	c3		 ret	 0
??__ERMSG_REPLAY_END@@YAXXZ ENDP			; `dynamic initializer for 'RMSG_REPLAY_END''
text$di	ENDS
; Function compile flags: /Ogtp
; File D:\git\src\IBK\IBK_DRFN\ProjSrc\SrcDrfn\Chart\chart_common\ReplayChartInfoDef.h
;	COMDAT ??__ERMSG_REPLAY_CHANGE_DATE@@YAXXZ
text$di	SEGMENT
??__ERMSG_REPLAY_CHANGE_DATE@@YAXXZ PROC		; `dynamic initializer for 'RMSG_REPLAY_CHANGE_DATE'', COMDAT

; 94   : 	const UINT RMSG_REPLAY_CHANGE_DATE	= ::RegisterWindowMessage(_T("RMSG_REPLAY_CHANGE_DATE"));

  00000	68 00 00 00 00	 push	 OFFSET ??_C@_0BI@KDGAIIMD@RMSG_REPLAY_CHANGE_DATE@
  00005	ff 15 00 00 00
	00		 call	 DWORD PTR __imp__RegisterWindowMessageA@4
  0000b	a3 00 00 00 00	 mov	 DWORD PTR ?RMSG_REPLAY_CHANGE_DATE@@3IB, eax
  00010	c3		 ret	 0
??__ERMSG_REPLAY_CHANGE_DATE@@YAXXZ ENDP		; `dynamic initializer for 'RMSG_REPLAY_CHANGE_DATE''
text$di	ENDS
; Function compile flags: /Ogtp
; File D:\git\src\IBK\IBK_DRFN\ProjSrc\SrcDrfn\Chart\chart_common\ReplayChartInfoDef.h
;	COMDAT ??__ERMSG_REPLAY_FAIL@@YAXXZ
text$di	SEGMENT
??__ERMSG_REPLAY_FAIL@@YAXXZ PROC			; `dynamic initializer for 'RMSG_REPLAY_FAIL'', COMDAT

; 93   : 	const UINT RMSG_REPLAY_FAIL			= ::RegisterWindowMessage(_T("RMSG_REPLAY_FAIL"));

  00000	68 00 00 00 00	 push	 OFFSET ??_C@_0BB@JFLGBADG@RMSG_REPLAY_FAIL@
  00005	ff 15 00 00 00
	00		 call	 DWORD PTR __imp__RegisterWindowMessageA@4
  0000b	a3 00 00 00 00	 mov	 DWORD PTR ?RMSG_REPLAY_FAIL@@3IB, eax
  00010	c3		 ret	 0
??__ERMSG_REPLAY_FAIL@@YAXXZ ENDP			; `dynamic initializer for 'RMSG_REPLAY_FAIL''
text$di	ENDS
; Function compile flags: /Ogtp
; File D:\git\src\IBK\IBK_DRFN\ProjSrc\SrcDrfn\Chart\chart_common\ReplayChartInfoDef.h
;	COMDAT ??__ERMSG_REPLAY_REAL@@YAXXZ
text$di	SEGMENT
??__ERMSG_REPLAY_REAL@@YAXXZ PROC			; `dynamic initializer for 'RMSG_REPLAY_REAL'', COMDAT

; 92   : 	const UINT RMSG_REPLAY_REAL			= ::RegisterWindowMessage(_T("RMSG_REPLAY_REAL"));

  00000	68 00 00 00 00	 push	 OFFSET ??_C@_0BB@IBKHOHJL@RMSG_REPLAY_REAL@
  00005	ff 15 00 00 00
	00		 call	 DWORD PTR __imp__RegisterWindowMessageA@4
  0000b	a3 00 00 00 00	 mov	 DWORD PTR ?RMSG_REPLAY_REAL@@3IB, eax
  00010	c3		 ret	 0
??__ERMSG_REPLAY_REAL@@YAXXZ ENDP			; `dynamic initializer for 'RMSG_REPLAY_REAL''
text$di	ENDS
; Function compile flags: /Ogtp
; File C:\Program Files (x86)\Microsoft Visual Studio\2019\Community\VC\Tools\MSVC\14.29.30133\atlmfc\include\afxtempl.h
; File C:\Program Files (x86)\Microsoft Visual Studio\2019\Community\VC\Tools\MSVC\14.29.30133\atlmfc\include\afx.inl
;	COMDAT ??_GCTabStockDlg@@UAEPAXI@Z
_TEXT	SEGMENT
__$EHRec$ = -12						; size = 12
___flags$ = 8						; size = 4
??_GCTabStockDlg@@UAEPAXI@Z PROC			; CTabStockDlg::`scalar deleting destructor', COMDAT
; _this$ = ecx
  00000	55		 push	 ebp
  00001	8b ec		 mov	 ebp, esp
  00003	6a ff		 push	 -1
  00005	68 00 00 00 00	 push	 __ehhandler$??_GCTabStockDlg@@UAEPAXI@Z
  0000a	64 a1 00 00 00
	00		 mov	 eax, DWORD PTR fs:0
  00010	50		 push	 eax
  00011	56		 push	 esi
  00012	a1 00 00 00 00	 mov	 eax, DWORD PTR ___security_cookie
  00017	33 c5		 xor	 eax, ebp
  00019	50		 push	 eax
  0001a	8d 45 f4	 lea	 eax, DWORD PTR __$EHRec$[ebp]
  0001d	64 a3 00 00 00
	00		 mov	 DWORD PTR fs:0, eax
  00023	8b f1		 mov	 esi, ecx
; File C:\Program Files (x86)\Microsoft Visual Studio\2019\Community\VC\Tools\MSVC\14.29.30133\atlmfc\include\afxtempl.h

; 872  : 	m_pBlocks->FreeDataChain();

  00025	8b 8e 9c 04 00
	00		 mov	 ecx, DWORD PTR [esi+1180]

; 878  : {

  0002b	c7 45 fc 00 00
	00 00		 mov	 DWORD PTR __$EHRec$[ebp+8], 0
  00032	c7 86 88 04 00
	00 00 00 00 00	 mov	 DWORD PTR [esi+1160], OFFSET ??_7?$CList@PAVCItemLongData@@PAV1@@@6B@

; 870  : 	m_nCount = 0;

  0003c	c7 86 94 04 00
	00 00 00 00 00	 mov	 DWORD PTR [esi+1172], 0

; 871  : 	m_pNodeHead = m_pNodeTail = m_pNodeFree = NULL;

  00046	c7 86 98 04 00
	00 00 00 00 00	 mov	 DWORD PTR [esi+1176], 0
  00050	c7 86 90 04 00
	00 00 00 00 00	 mov	 DWORD PTR [esi+1168], 0
  0005a	c7 86 8c 04 00
	00 00 00 00 00	 mov	 DWORD PTR [esi+1164], 0

; 872  : 	m_pBlocks->FreeDataChain();

  00064	e8 00 00 00 00	 call	 ?FreeDataChain@CPlex@@QAEXXZ ; CPlex::FreeDataChain
  00069	8d 8e 74 04 00
	00		 lea	 ecx, DWORD PTR [esi+1140]

; 873  : 	m_pBlocks = NULL;

  0006f	c7 86 9c 04 00
	00 00 00 00 00	 mov	 DWORD PTR [esi+1180], 0
  00079	ff 15 00 00 00
	00		 call	 DWORD PTR __imp_??1?$CStringT@DV?$StrTraitMFC_DLL@DV?$ChTraitsCRT@D@ATL@@@@@ATL@@QAE@XZ
  0007f	8d 8e 00 03 00
	00		 lea	 ecx, DWORD PTR [esi+768]
  00085	e8 00 00 00 00	 call	 ??1CILButton@@UAE@XZ	; CILButton::~CILButton
  0008a	8d 8e 80 02 00
	00		 lea	 ecx, DWORD PTR [esi+640]
  00090	e8 00 00 00 00	 call	 ??1CExTreeCtrl@@UAE@XZ	; CExTreeCtrl::~CExTreeCtrl
  00095	8d 8e 58 01 00
	00		 lea	 ecx, DWORD PTR [esi+344]
  0009b	e8 00 00 00 00	 call	 ??1CVirtualListCtrl@@UAE@XZ ; CVirtualListCtrl::~CVirtualListCtrl
  000a0	8d 8e d8 00 00
	00		 lea	 ecx, DWORD PTR [esi+216]
  000a6	e8 00 00 00 00	 call	 ??1CComboBox@@UAE@XZ	; CComboBox::~CComboBox
  000ab	8b ce		 mov	 ecx, esi
  000ad	e8 00 00 00 00	 call	 ??1CTabDlg@@UAE@XZ	; CTabDlg::~CTabDlg
  000b2	8b 45 08	 mov	 eax, DWORD PTR ___flags$[ebp]
  000b5	a8 01		 test	 al, 1
  000b7	74 2f		 je	 SHORT $LN25@scalar
  000b9	a8 04		 test	 al, 4
  000bb	75 1d		 jne	 SHORT $LN3@scalar
; File C:\Program Files (x86)\Microsoft Visual Studio\2019\Community\VC\Tools\MSVC\14.29.30133\atlmfc\include\afx.inl

; 112  : 	{ ::operator delete(p); }

  000bd	56		 push	 esi
  000be	e8 00 00 00 00	 call	 ??3@YAXPAX@Z		; operator delete
  000c3	83 c4 04	 add	 esp, 4
  000c6	8b c6		 mov	 eax, esi
  000c8	8b 4d f4	 mov	 ecx, DWORD PTR __$EHRec$[ebp]
  000cb	64 89 0d 00 00
	00 00		 mov	 DWORD PTR fs:0, ecx
  000d2	59		 pop	 ecx
  000d3	5e		 pop	 esi
  000d4	8b e5		 mov	 esp, ebp
  000d6	5d		 pop	 ebp
  000d7	c2 04 00	 ret	 4
$LN3@scalar:
  000da	68 a8 04 00 00	 push	 1192			; 000004a8H
  000df	56		 push	 esi
  000e0	e8 00 00 00 00	 call	 ?__global_delete@@YAXPAXI@Z ; __global_delete
  000e5	83 c4 08	 add	 esp, 8
$LN25@scalar:
  000e8	8b c6		 mov	 eax, esi
  000ea	8b 4d f4	 mov	 ecx, DWORD PTR __$EHRec$[ebp]
  000ed	64 89 0d 00 00
	00 00		 mov	 DWORD PTR fs:0, ecx
  000f4	59		 pop	 ecx
  000f5	5e		 pop	 esi
  000f6	8b e5		 mov	 esp, ebp
  000f8	5d		 pop	 ebp
  000f9	c2 04 00	 ret	 4
  000fc	cc		 int	 3
  000fd	cc		 int	 3
  000fe	cc		 int	 3
  000ff	cc		 int	 3
  00100	cc		 int	 3
_TEXT	ENDS
;	COMDAT text$x
text$x	SEGMENT
__ehhandler$??_GCTabStockDlg@@UAEPAXI@Z:
  00000	90		 npad	 1
  00001	90		 npad	 1
  00002	8b 54 24 08	 mov	 edx, DWORD PTR [esp+8]
  00006	8d 42 0c	 lea	 eax, DWORD PTR [edx+12]
  00009	8b 4a f8	 mov	 ecx, DWORD PTR [edx-8]
  0000c	33 c8		 xor	 ecx, eax
  0000e	e8 00 00 00 00	 call	 @__security_check_cookie@4
  00013	b8 00 00 00 00	 mov	 eax, OFFSET __ehfuncinfo$??_GCTabStockDlg@@UAEPAXI@Z
  00018	e9 00 00 00 00	 jmp	 ___CxxFrameHandler3
text$x	ENDS
??_GCTabStockDlg@@UAEPAXI@Z ENDP			; CTabStockDlg::`scalar deleting destructor'
; Function compile flags: /Ogtp
; File C:\Program Files (x86)\Microsoft Visual Studio\2019\Community\VC\Tools\MSVC\14.29.30133\atlmfc\include\afxtempl.h
; File C:\Program Files (x86)\Microsoft Visual Studio\2019\Community\VC\Tools\MSVC\14.29.30133\atlmfc\include\afx.inl
;	COMDAT ??_G?$CList@PAVCItemLongData@@PAV1@@@UAEPAXI@Z
_TEXT	SEGMENT
__$EHRec$ = -12						; size = 12
___flags$ = 8						; size = 4
??_G?$CList@PAVCItemLongData@@PAV1@@@UAEPAXI@Z PROC	; CList<CItemLongData *,CItemLongData *>::`scalar deleting destructor', COMDAT
; _this$ = ecx
  00000	55		 push	 ebp
  00001	8b ec		 mov	 ebp, esp
  00003	6a ff		 push	 -1
  00005	68 00 00 00 00	 push	 __ehhandler$??_G?$CList@PAVCItemLongData@@PAV1@@@UAEPAXI@Z
  0000a	64 a1 00 00 00
	00		 mov	 eax, DWORD PTR fs:0
  00010	50		 push	 eax
  00011	56		 push	 esi
  00012	a1 00 00 00 00	 mov	 eax, DWORD PTR ___security_cookie
  00017	33 c5		 xor	 eax, ebp
  00019	50		 push	 eax
  0001a	8d 45 f4	 lea	 eax, DWORD PTR __$EHRec$[ebp]
  0001d	64 a3 00 00 00
	00		 mov	 DWORD PTR fs:0, eax
  00023	8b f1		 mov	 esi, ecx
; File C:\Program Files (x86)\Microsoft Visual Studio\2019\Community\VC\Tools\MSVC\14.29.30133\atlmfc\include\afxtempl.h

; 872  : 	m_pBlocks->FreeDataChain();

  00025	8b 4e 14	 mov	 ecx, DWORD PTR [esi+20]

; 878  : {

  00028	c7 45 fc 00 00
	00 00		 mov	 DWORD PTR __$EHRec$[ebp+8], 0
  0002f	c7 06 00 00 00
	00		 mov	 DWORD PTR [esi], OFFSET ??_7?$CList@PAVCItemLongData@@PAV1@@@6B@

; 870  : 	m_nCount = 0;

  00035	c7 46 0c 00 00
	00 00		 mov	 DWORD PTR [esi+12], 0

; 871  : 	m_pNodeHead = m_pNodeTail = m_pNodeFree = NULL;

  0003c	c7 46 10 00 00
	00 00		 mov	 DWORD PTR [esi+16], 0
  00043	c7 46 08 00 00
	00 00		 mov	 DWORD PTR [esi+8], 0
  0004a	c7 46 04 00 00
	00 00		 mov	 DWORD PTR [esi+4], 0

; 872  : 	m_pBlocks->FreeDataChain();

  00051	e8 00 00 00 00	 call	 ?FreeDataChain@CPlex@@QAEXXZ ; CPlex::FreeDataChain

; 873  : 	m_pBlocks = NULL;

  00056	8b 45 08	 mov	 eax, DWORD PTR ___flags$[ebp]
  00059	c7 46 14 00 00
	00 00		 mov	 DWORD PTR [esi+20], 0
  00060	a8 01		 test	 al, 1
  00062	74 2c		 je	 SHORT $LN22@scalar
  00064	a8 04		 test	 al, 4
  00066	75 1d		 jne	 SHORT $LN3@scalar
; File C:\Program Files (x86)\Microsoft Visual Studio\2019\Community\VC\Tools\MSVC\14.29.30133\atlmfc\include\afx.inl

; 112  : 	{ ::operator delete(p); }

  00068	56		 push	 esi
  00069	e8 00 00 00 00	 call	 ??3@YAXPAX@Z		; operator delete
  0006e	83 c4 04	 add	 esp, 4
  00071	8b c6		 mov	 eax, esi
  00073	8b 4d f4	 mov	 ecx, DWORD PTR __$EHRec$[ebp]
  00076	64 89 0d 00 00
	00 00		 mov	 DWORD PTR fs:0, ecx
  0007d	59		 pop	 ecx
  0007e	5e		 pop	 esi
  0007f	8b e5		 mov	 esp, ebp
  00081	5d		 pop	 ebp
  00082	c2 04 00	 ret	 4
$LN3@scalar:
  00085	6a 1c		 push	 28			; 0000001cH
  00087	56		 push	 esi
  00088	e8 00 00 00 00	 call	 ?__global_delete@@YAXPAXI@Z ; __global_delete
  0008d	83 c4 08	 add	 esp, 8
$LN22@scalar:
  00090	8b c6		 mov	 eax, esi
  00092	8b 4d f4	 mov	 ecx, DWORD PTR __$EHRec$[ebp]
  00095	64 89 0d 00 00
	00 00		 mov	 DWORD PTR fs:0, ecx
  0009c	59		 pop	 ecx
  0009d	5e		 pop	 esi
  0009e	8b e5		 mov	 esp, ebp
  000a0	5d		 pop	 ebp
  000a1	c2 04 00	 ret	 4
  000a4	cc		 int	 3
  000a5	cc		 int	 3
  000a6	cc		 int	 3
  000a7	cc		 int	 3
  000a8	cc		 int	 3
_TEXT	ENDS
;	COMDAT text$x
text$x	SEGMENT
__ehhandler$??_G?$CList@PAVCItemLongData@@PAV1@@@UAEPAXI@Z:
  00000	90		 npad	 1
  00001	90		 npad	 1
  00002	8b 54 24 08	 mov	 edx, DWORD PTR [esp+8]
  00006	8d 42 0c	 lea	 eax, DWORD PTR [edx+12]
  00009	8b 4a f8	 mov	 ecx, DWORD PTR [edx-8]
  0000c	33 c8		 xor	 ecx, eax
  0000e	e8 00 00 00 00	 call	 @__security_check_cookie@4
  00013	b8 00 00 00 00	 mov	 eax, OFFSET __ehfuncinfo$??_G?$CList@PAVCItemLongData@@PAV1@@@UAEPAXI@Z
  00018	e9 00 00 00 00	 jmp	 ___CxxFrameHandler3
text$x	ENDS
??_G?$CList@PAVCItemLongData@@PAV1@@@UAEPAXI@Z ENDP	; CList<CItemLongData *,CItemLongData *>::`scalar deleting destructor'
; Function compile flags: /Ogtp
; File C:\Program Files (x86)\Microsoft Visual Studio\2019\Community\VC\Tools\MSVC\14.29.30133\atlmfc\include\afxtempl.h
; File C:\Program Files (x86)\Microsoft Visual Studio\2019\Community\VC\Tools\MSVC\14.29.30133\atlmfc\include\afx.inl
; File C:\Program Files (x86)\Microsoft Visual Studio\2019\Community\VC\Tools\MSVC\14.29.30133\atlmfc\include\afxtempl.h
; File C:\Program Files (x86)\Microsoft Visual Studio\2019\Community\VC\Tools\MSVC\14.29.30133\atlmfc\include\afx.inl
; File C:\Program Files (x86)\Microsoft Visual Studio\2019\Community\VC\Tools\MSVC\14.29.30133\atlmfc\include\afxtempl.h
; File C:\Program Files (x86)\Microsoft Visual Studio\2019\Community\VC\Tools\MSVC\14.29.30133\atlmfc\include\afx.inl
; File C:\Program Files (x86)\Microsoft Visual Studio\2019\Community\VC\Tools\MSVC\14.29.30133\atlmfc\include\afxtempl.h
; File C:\Program Files (x86)\Microsoft Visual Studio\2019\Community\VC\Tools\MSVC\14.29.30133\atlmfc\include\afx.inl
; File C:\Program Files (x86)\Microsoft Visual Studio\2019\Community\VC\Tools\MSVC\14.29.30133\atlmfc\include\afxtempl.h
; File C:\Program Files (x86)\Microsoft Visual Studio\2019\Community\VC\Tools\MSVC\14.29.30133\atlmfc\include\afx.inl
; File C:\Program Files (x86)\Microsoft Visual Studio\2019\Community\VC\Tools\MSVC\14.29.30133\atlmfc\include\afxtempl.h
; File C:\Program Files (x86)\Microsoft Visual Studio\2019\Community\VC\Tools\MSVC\14.29.30133\atlmfc\include\afx.inl
; File C:\Program Files (x86)\Microsoft Visual Studio\2019\Community\VC\Tools\MSVC\14.29.30133\atlmfc\include\afxtempl.h
;	COMDAT ?Serialize@?$CList@PAVCItemLongData@@PAV1@@@UAEXAAVCArchive@@@Z
_TEXT	SEGMENT
_nNewCount$1$ = -16					; size = 4
_newData$1 = -12					; size = 4
_pData$1$ = -8						; size = 4
_pData$1$ = -8						; size = 4
_pNode$1$ = -8						; size = 4
_nElementsLeft$1$ = -4					; size = 4
_this$1$ = -4						; size = 4
_ar$ = 8						; size = 4
?Serialize@?$CList@PAVCItemLongData@@PAV1@@@UAEXAAVCArchive@@@Z PROC ; CList<CItemLongData *,CItemLongData *>::Serialize, COMDAT
; _this$ = ecx

; 1169 : {

  00000	55		 push	 ebp
  00001	8b ec		 mov	 ebp, esp
  00003	83 ec 10	 sub	 esp, 16			; 00000010H
  00006	53		 push	 ebx
  00007	8b d9		 mov	 ebx, ecx
; File C:\Program Files (x86)\Microsoft Visual Studio\2019\Community\VC\Tools\MSVC\14.29.30133\atlmfc\include\afx.inl

; 212  : 	{ return (m_nMode & CArchive::load) == 0; }

  00009	8b 4d 08	 mov	 ecx, DWORD PTR _ar$[ebp]
; File C:\Program Files (x86)\Microsoft Visual Studio\2019\Community\VC\Tools\MSVC\14.29.30133\atlmfc\include\afxtempl.h

; 1169 : {

  0000c	56		 push	 esi
  0000d	57		 push	 edi
  0000e	89 5d fc	 mov	 DWORD PTR _this$1$[ebp], ebx
; File C:\Program Files (x86)\Microsoft Visual Studio\2019\Community\VC\Tools\MSVC\14.29.30133\atlmfc\include\afx.inl

; 212  : 	{ return (m_nMode & CArchive::load) == 0; }

  00011	8b 41 18	 mov	 eax, DWORD PTR [ecx+24]
  00014	f7 d0		 not	 eax
  00016	a8 01		 test	 al, 1
; File C:\Program Files (x86)\Microsoft Visual Studio\2019\Community\VC\Tools\MSVC\14.29.30133\atlmfc\include\afxtempl.h

; 1174 : 	if (ar.IsStoring())

  00018	0f 84 ae 00 00
	00		 je	 $LN7@Serialize

; 1175 : 	{
; 1176 : 		ar.WriteCount(m_nCount);

  0001e	ff 73 0c	 push	 DWORD PTR [ebx+12]
  00021	e8 00 00 00 00	 call	 ?WriteCount@CArchive@@QAEXK@Z ; CArchive::WriteCount

; 1177 : 		for (CNode* pNode = m_pNodeHead; pNode != NULL; pNode = pNode->pNext)

  00026	8b 43 04	 mov	 eax, DWORD PTR [ebx+4]
  00029	89 45 f8	 mov	 DWORD PTR _pNode$1$[ebp], eax
  0002c	85 c0		 test	 eax, eax
  0002e	0f 84 b9 01 00
	00		 je	 $LN86@Serialize
$LL4@Serialize:

; 1178 : 		{
; 1179 : 			ASSERT(AfxIsValidAddress(pNode, sizeof(CNode)));
; 1180 : 			TYPE* pData;
; 1181 : 			/*
; 1182 : 			 * in some cases the & operator might be overloaded, and we cannot use it to obtain
; 1183 : 			 * the address of a given object.  We then use the following trick to get the address
; 1184 : 			 */
; 1185 : 			pData = reinterpret_cast< TYPE* >( &reinterpret_cast< int& >( static_cast< TYPE& >( pNode->data ) ) );

  00034	8d 70 08	 lea	 esi, DWORD PTR [eax+8]

; 68   : 	ENSURE(nCount == 0 || pElements != NULL);

  00037	85 f6		 test	 esi, esi
  00039	0f 84 c0 01 00
	00		 je	 $LN76@Serialize
; File C:\Program Files (x86)\Microsoft Visual Studio\2019\Community\VC\Tools\MSVC\14.29.30133\atlmfc\include\afx.inl

; 212  : 	{ return (m_nMode & CArchive::load) == 0; }

  0003f	8b 4d 08	 mov	 ecx, DWORD PTR _ar$[ebp]
  00042	8b 41 18	 mov	 eax, DWORD PTR [ecx+24]
  00045	f7 d0		 not	 eax
  00047	a8 01		 test	 al, 1
; File C:\Program Files (x86)\Microsoft Visual Studio\2019\Community\VC\Tools\MSVC\14.29.30133\atlmfc\include\afxtempl.h

; 73   : 	if (ar.IsStoring())

  00049	74 33		 je	 SHORT $LN21@Serialize

; 74   : 	{
; 75   : 		TYPE* pData;
; 76   : 		UINT_PTR nElementsLeft;
; 77   : 
; 78   : 		nElementsLeft = nCount;

  0004b	b8 01 00 00 00	 mov	 eax, 1
  00050	89 45 fc	 mov	 DWORD PTR _nElementsLeft$1$[ebp], eax
$LL16@Serialize:

; 80   : 		while( nElementsLeft > 0 )
; 81   : 		{
; 82   : 			UINT nElementsToWrite;
; 83   : 
; 84   : 			nElementsToWrite = UINT(__min(nElementsLeft, INT_MAX/sizeof(TYPE)));

  00053	bb ff ff ff 1f	 mov	 ebx, 536870911		; 1fffffffH
  00058	3b c3		 cmp	 eax, ebx
  0005a	0f 42 d8	 cmovb	 ebx, eax

; 85   : 			ar.Write(pData, nElementsToWrite*sizeof(TYPE));

  0005d	8d 3c 9d 00 00
	00 00		 lea	 edi, DWORD PTR [ebx*4]
  00064	57		 push	 edi
  00065	56		 push	 esi
  00066	e8 00 00 00 00	 call	 ?Write@CArchive@@QAEXPBXI@Z ; CArchive::Write

; 86   : 			nElementsLeft -= nElementsToWrite;

  0006b	8b 45 fc	 mov	 eax, DWORD PTR _nElementsLeft$1$[ebp]

; 87   : 			pData += nElementsToWrite;

  0006e	03 f7		 add	 esi, edi
  00070	8b 4d 08	 mov	 ecx, DWORD PTR _ar$[ebp]
  00073	2b c3		 sub	 eax, ebx
  00075	89 45 fc	 mov	 DWORD PTR _nElementsLeft$1$[ebp], eax
  00078	85 c0		 test	 eax, eax
  0007a	75 d7		 jne	 SHORT $LL16@Serialize

; 88   : 		}
; 89   : 	}

  0007c	eb 35		 jmp	 SHORT $LN2@Serialize
$LN21@Serialize:

; 90   : 	else
; 91   : 	{
; 92   : 		TYPE* pData;
; 93   : 		UINT_PTR nElementsLeft;
; 94   : 
; 95   : 		nElementsLeft = nCount;

  0007e	bf 01 00 00 00	 mov	 edi, 1
$LL18@Serialize:

; 98   : 		{
; 99   : 			UINT nElementsToRead;
; 100  : 
; 101  : 			nElementsToRead = UINT(__min(nElementsLeft, INT_MAX/sizeof(TYPE)));

  00083	bb ff ff ff 1f	 mov	 ebx, 536870911		; 1fffffffH
  00088	3b fb		 cmp	 edi, ebx
  0008a	0f 42 df	 cmovb	 ebx, edi

; 102  : 			ar.EnsureRead(pData, nElementsToRead*sizeof(TYPE));

  0008d	8d 04 9d 00 00
	00 00		 lea	 eax, DWORD PTR [ebx*4]
; File C:\Program Files (x86)\Microsoft Visual Studio\2019\Community\VC\Tools\MSVC\14.29.30133\atlmfc\include\afx.inl

; 399  : 	UINT nRead=Read(lpBuf, nCount);

  00094	50		 push	 eax
  00095	56		 push	 esi
  00096	e8 00 00 00 00	 call	 ?Read@CArchive@@QAEIPAXI@Z ; CArchive::Read

; 400  : 	if(nRead!=nCount)

  0009b	8d 0c 9d 00 00
	00 00		 lea	 ecx, DWORD PTR [ebx*4]
  000a2	3b c1		 cmp	 eax, ecx
  000a4	0f 85 4c 01 00
	00		 jne	 $LN75@Serialize
; File C:\Program Files (x86)\Microsoft Visual Studio\2019\Community\VC\Tools\MSVC\14.29.30133\atlmfc\include\afxtempl.h

; 97   : 		while( nElementsLeft > 0 )

  000aa	03 f1		 add	 esi, ecx
  000ac	8b 4d 08	 mov	 ecx, DWORD PTR _ar$[ebp]

; 103  : 			nElementsLeft -= nElementsToRead;

  000af	2b fb		 sub	 edi, ebx
  000b1	75 d0		 jne	 SHORT $LL18@Serialize
$LN2@Serialize:

; 1177 : 		for (CNode* pNode = m_pNodeHead; pNode != NULL; pNode = pNode->pNext)

  000b3	8b 45 f8	 mov	 eax, DWORD PTR _pNode$1$[ebp]
  000b6	8b 00		 mov	 eax, DWORD PTR [eax]
  000b8	89 45 f8	 mov	 DWORD PTR _pNode$1$[ebp], eax
  000bb	85 c0		 test	 eax, eax
  000bd	0f 85 71 ff ff
	ff		 jne	 $LL4@Serialize

; 1197 : 		}
; 1198 : 	}
; 1199 : }

  000c3	5f		 pop	 edi
  000c4	5e		 pop	 esi
  000c5	5b		 pop	 ebx
  000c6	8b e5		 mov	 esp, ebp
  000c8	5d		 pop	 ebp
  000c9	c2 04 00	 ret	 4
$LN7@Serialize:

; 1186 : 			SerializeElements<TYPE>(ar, pData, 1);
; 1187 : 		}
; 1188 : 	}
; 1189 : 	else
; 1190 : 	{
; 1191 : 		DWORD_PTR nNewCount = ar.ReadCount();

  000cc	e8 00 00 00 00	 call	 ?ReadCount@CArchive@@QAEKXZ ; CArchive::ReadCount

; 1192 : 		while (nNewCount--)

  000d1	85 c0		 test	 eax, eax
  000d3	0f 84 14 01 00
	00		 je	 $LN86@Serialize
  000d9	0f 1f 80 00 00
	00 00		 npad	 7
$LL5@Serialize:
  000e0	48		 dec	 eax
  000e1	89 45 f0	 mov	 DWORD PTR _nNewCount$1$[ebp], eax
; File C:\Program Files (x86)\Microsoft Visual Studio\2019\Community\VC\Tools\MSVC\14.29.30133\atlmfc\include\afx.inl

; 212  : 	{ return (m_nMode & CArchive::load) == 0; }

  000e4	8b 45 08	 mov	 eax, DWORD PTR _ar$[ebp]
  000e7	8b 48 18	 mov	 ecx, DWORD PTR [eax+24]
  000ea	f7 d1		 not	 ecx
  000ec	f6 c1 01	 test	 cl, 1
; File C:\Program Files (x86)\Microsoft Visual Studio\2019\Community\VC\Tools\MSVC\14.29.30133\atlmfc\include\afxtempl.h

; 73   : 	if (ar.IsStoring())

  000ef	74 3d		 je	 SHORT $LN42@Serialize

; 79   : 		pData = pElements;

  000f1	8d 4d f4	 lea	 ecx, DWORD PTR _newData$1[ebp]
  000f4	bb 01 00 00 00	 mov	 ebx, 1
  000f9	89 4d f8	 mov	 DWORD PTR _pData$1$[ebp], ecx
  000fc	0f 1f 40 00	 npad	 4
$LL37@Serialize:

; 80   : 		while( nElementsLeft > 0 )
; 81   : 		{
; 82   : 			UINT nElementsToWrite;
; 83   : 
; 84   : 			nElementsToWrite = UINT(__min(nElementsLeft, INT_MAX/sizeof(TYPE)));

  00100	bf ff ff ff 1f	 mov	 edi, 536870911		; 1fffffffH
  00105	3b df		 cmp	 ebx, edi
  00107	0f 42 fb	 cmovb	 edi, ebx

; 85   : 			ar.Write(pData, nElementsToWrite*sizeof(TYPE));

  0010a	8d 34 bd 00 00
	00 00		 lea	 esi, DWORD PTR [edi*4]
  00111	56		 push	 esi
  00112	51		 push	 ecx
  00113	8b c8		 mov	 ecx, eax
  00115	e8 00 00 00 00	 call	 ?Write@CArchive@@QAEXPBXI@Z ; CArchive::Write

; 87   : 			pData += nElementsToWrite;

  0011a	8b 4d f8	 mov	 ecx, DWORD PTR _pData$1$[ebp]
  0011d	8b 45 08	 mov	 eax, DWORD PTR _ar$[ebp]
  00120	03 ce		 add	 ecx, esi
  00122	89 4d f8	 mov	 DWORD PTR _pData$1$[ebp], ecx
  00125	2b df		 sub	 ebx, edi
  00127	75 d7		 jne	 SHORT $LL37@Serialize

; 88   : 		}
; 89   : 	}

  00129	8b 5d fc	 mov	 ebx, DWORD PTR _this$1$[ebp]
  0012c	eb 4a		 jmp	 SHORT $LN40@Serialize
$LN42@Serialize:

; 96   : 		pData = pElements;

  0012e	8d 55 f4	 lea	 edx, DWORD PTR _newData$1[ebp]
  00131	be 01 00 00 00	 mov	 esi, 1
  00136	89 55 f8	 mov	 DWORD PTR _pData$1$[ebp], edx
  00139	0f 1f 80 00 00
	00 00		 npad	 7
$LL39@Serialize:

; 98   : 		{
; 99   : 			UINT nElementsToRead;
; 100  : 
; 101  : 			nElementsToRead = UINT(__min(nElementsLeft, INT_MAX/sizeof(TYPE)));

  00140	bf ff ff ff 1f	 mov	 edi, 536870911		; 1fffffffH
  00145	3b f7		 cmp	 esi, edi
  00147	0f 42 fe	 cmovb	 edi, esi

; 102  : 			ar.EnsureRead(pData, nElementsToRead*sizeof(TYPE));

  0014a	8d 0c bd 00 00
	00 00		 lea	 ecx, DWORD PTR [edi*4]
; File C:\Program Files (x86)\Microsoft Visual Studio\2019\Community\VC\Tools\MSVC\14.29.30133\atlmfc\include\afx.inl

; 399  : 	UINT nRead=Read(lpBuf, nCount);

  00151	51		 push	 ecx
  00152	52		 push	 edx
  00153	8b c8		 mov	 ecx, eax
  00155	e8 00 00 00 00	 call	 ?Read@CArchive@@QAEIPAXI@Z ; CArchive::Read

; 400  : 	if(nRead!=nCount)

  0015a	8d 0c bd 00 00
	00 00		 lea	 ecx, DWORD PTR [edi*4]
  00161	3b c1		 cmp	 eax, ecx
  00163	0f 85 8d 00 00
	00		 jne	 $LN75@Serialize
; File C:\Program Files (x86)\Microsoft Visual Studio\2019\Community\VC\Tools\MSVC\14.29.30133\atlmfc\include\afxtempl.h

; 97   : 		while( nElementsLeft > 0 )

  00169	8b 55 f8	 mov	 edx, DWORD PTR _pData$1$[ebp]
  0016c	8b 45 08	 mov	 eax, DWORD PTR _ar$[ebp]

; 104  : 			pData += nElementsToRead;

  0016f	03 d1		 add	 edx, ecx
  00171	89 55 f8	 mov	 DWORD PTR _pData$1$[ebp], edx
  00174	2b f7		 sub	 esi, edi
  00176	75 c8		 jne	 SHORT $LL39@Serialize
$LN40@Serialize:

; 902  : 	if (m_pNodeFree == NULL)

  00178	83 7b 10 00	 cmp	 DWORD PTR [ebx+16], 0

; 1193 : 		{
; 1194 : 			TYPE newData[1];
; 1195 : 			SerializeElements<TYPE>(ar, newData, 1);
; 1196 : 			AddTail(newData[0]);

  0017c	8b 75 f4	 mov	 esi, DWORD PTR _newData$1[ebp]

; 968  : 	CNode* pNewNode = NewNode(m_pNodeTail, NULL);

  0017f	8b 7b 08	 mov	 edi, DWORD PTR [ebx+8]

; 902  : 	if (m_pNodeFree == NULL)

  00182	75 32		 jne	 SHORT $LN63@Serialize

; 903  : 	{
; 904  : 		// add another block
; 905  : 		CPlex* pNewBlock = CPlex::Create(m_pBlocks, m_nBlockSize,

  00184	6a 0c		 push	 12			; 0000000cH
  00186	ff 73 18	 push	 DWORD PTR [ebx+24]
  00189	8d 43 14	 lea	 eax, DWORD PTR [ebx+20]
  0018c	50		 push	 eax
  0018d	e8 00 00 00 00	 call	 ?Create@CPlex@@SGPAU1@AAPAU1@II@Z ; CPlex::Create

; 906  : 				 sizeof(CNode));
; 907  : 
; 908  : 		// chain them into free list
; 909  : 		CNode* pNode = (CNode*) pNewBlock->data();
; 910  : 		// free in reverse order to make it easier to debug
; 911  : 		pNode += m_nBlockSize - 1;

  00192	8b 53 18	 mov	 edx, DWORD PTR [ebx+24]
  00195	83 c0 08	 add	 eax, 8
  00198	8d 4a ff	 lea	 ecx, DWORD PTR [edx-1]

; 912  : 		for (INT_PTR i = m_nBlockSize-1; i >= 0; i--, pNode--)

  0019b	83 c2 ff	 add	 edx, -1
  0019e	8d 0c 49	 lea	 ecx, DWORD PTR [ecx+ecx*2]
  001a1	8d 0c 88	 lea	 ecx, DWORD PTR [eax+ecx*4]
  001a4	78 10		 js	 SHORT $LN63@Serialize
$LL60@Serialize:

; 913  : 		{
; 914  : 			pNode->pNext = m_pNodeFree;

  001a6	8b 43 10	 mov	 eax, DWORD PTR [ebx+16]
  001a9	89 01		 mov	 DWORD PTR [ecx], eax

; 915  : 			m_pNodeFree = pNode;

  001ab	89 4b 10	 mov	 DWORD PTR [ebx+16], ecx
  001ae	83 e9 0c	 sub	 ecx, 12			; 0000000cH
  001b1	83 ea 01	 sub	 edx, 1
  001b4	79 f0		 jns	 SHORT $LL60@Serialize
$LN63@Serialize:

; 916  : 		}
; 917  : 	}
; 918  : 	ENSURE(m_pNodeFree != NULL);  // we must have something

  001b6	8b 4b 10	 mov	 ecx, DWORD PTR [ebx+16]
  001b9	85 c9		 test	 ecx, ecx
  001bb	74 42		 je	 SHORT $LN76@Serialize

; 919  : 
; 920  : 	CList::CNode* pNode = m_pNodeFree;
; 921  : 	m_pNodeFree = m_pNodeFree->pNext;

  001bd	8b 01		 mov	 eax, DWORD PTR [ecx]
  001bf	89 43 10	 mov	 DWORD PTR [ebx+16], eax

; 922  : 	pNode->pPrev = pPrev;

  001c2	89 79 04	 mov	 DWORD PTR [ecx+4], edi

; 923  : 	pNode->pNext = pNext;

  001c5	c7 01 00 00 00
	00		 mov	 DWORD PTR [ecx], 0

; 924  : 	m_nCount++;

  001cb	ff 43 0c	 inc	 DWORD PTR [ebx+12]

; 969  : 	pNewNode->data = newElement;

  001ce	89 71 08	 mov	 DWORD PTR [ecx+8], esi

; 970  : 	if (m_pNodeTail != NULL)

  001d1	8b 43 08	 mov	 eax, DWORD PTR [ebx+8]
  001d4	85 c0		 test	 eax, eax
  001d6	74 04		 je	 SHORT $LN54@Serialize

; 971  : 		m_pNodeTail->pNext = pNewNode;

  001d8	89 08		 mov	 DWORD PTR [eax], ecx
  001da	eb 03		 jmp	 SHORT $LN55@Serialize
$LN54@Serialize:

; 972  : 	else
; 973  : 		m_pNodeHead = pNewNode;

  001dc	89 4b 04	 mov	 DWORD PTR [ebx+4], ecx
$LN55@Serialize:

; 1192 : 		while (nNewCount--)

  001df	8b 45 f0	 mov	 eax, DWORD PTR _nNewCount$1$[ebp]

; 974  : 	m_pNodeTail = pNewNode;

  001e2	89 4b 08	 mov	 DWORD PTR [ebx+8], ecx

; 1192 : 		while (nNewCount--)

  001e5	85 c0		 test	 eax, eax
  001e7	0f 85 f3 fe ff
	ff		 jne	 $LL5@Serialize
$LN86@Serialize:
  001ed	5f		 pop	 edi

; 1197 : 		}
; 1198 : 	}
; 1199 : }

  001ee	5e		 pop	 esi
  001ef	5b		 pop	 ebx
  001f0	8b e5		 mov	 esp, ebp
  001f2	5d		 pop	 ebp
  001f3	c2 04 00	 ret	 4
$LN75@Serialize:
  001f6	6a 00		 push	 0
  001f8	6a 03		 push	 3
  001fa	e8 00 00 00 00	 call	 ?AfxThrowArchiveException@@YGXHPBD@Z ; AfxThrowArchiveException
$LN76@Serialize:
  001ff	e8 00 00 00 00	 call	 ?AfxThrowInvalidArgException@@YGXXZ ; AfxThrowInvalidArgException
$LN105@Serialize:
  00204	cc		 int	 3
?Serialize@?$CList@PAVCItemLongData@@PAV1@@@UAEXAAVCArchive@@@Z ENDP ; CList<CItemLongData *,CItemLongData *>::Serialize
_TEXT	ENDS
; Function compile flags: /Ogtp
; File C:\Program Files (x86)\Microsoft Visual Studio\2019\Community\VC\Tools\MSVC\14.29.30133\atlmfc\include\afxtempl.h
;	COMDAT ??1?$CList@PAVCItemLongData@@PAV1@@@UAE@XZ
_TEXT	SEGMENT
__$EHRec$ = -12						; size = 12
??1?$CList@PAVCItemLongData@@PAV1@@@UAE@XZ PROC		; CList<CItemLongData *,CItemLongData *>::~CList<CItemLongData *,CItemLongData *>, COMDAT
; _this$ = ecx

; 878  : {

  00000	55		 push	 ebp
  00001	8b ec		 mov	 ebp, esp
  00003	6a ff		 push	 -1
  00005	68 00 00 00 00	 push	 __ehhandler$??1?$CList@PAVCItemLongData@@PAV1@@@UAE@XZ
  0000a	64 a1 00 00 00
	00		 mov	 eax, DWORD PTR fs:0
  00010	50		 push	 eax
  00011	56		 push	 esi
  00012	a1 00 00 00 00	 mov	 eax, DWORD PTR ___security_cookie
  00017	33 c5		 xor	 eax, ebp
  00019	50		 push	 eax
  0001a	8d 45 f4	 lea	 eax, DWORD PTR __$EHRec$[ebp]
  0001d	64 a3 00 00 00
	00		 mov	 DWORD PTR fs:0, eax
  00023	8b f1		 mov	 esi, ecx

; 872  : 	m_pBlocks->FreeDataChain();

  00025	8b 4e 14	 mov	 ecx, DWORD PTR [esi+20]

; 878  : {

  00028	c7 06 00 00 00
	00		 mov	 DWORD PTR [esi], OFFSET ??_7?$CList@PAVCItemLongData@@PAV1@@@6B@

; 870  : 	m_nCount = 0;

  0002e	c7 46 0c 00 00
	00 00		 mov	 DWORD PTR [esi+12], 0

; 871  : 	m_pNodeHead = m_pNodeTail = m_pNodeFree = NULL;

  00035	c7 46 10 00 00
	00 00		 mov	 DWORD PTR [esi+16], 0
  0003c	c7 46 08 00 00
	00 00		 mov	 DWORD PTR [esi+8], 0
  00043	c7 46 04 00 00
	00 00		 mov	 DWORD PTR [esi+4], 0

; 872  : 	m_pBlocks->FreeDataChain();

  0004a	e8 00 00 00 00	 call	 ?FreeDataChain@CPlex@@QAEXXZ ; CPlex::FreeDataChain

; 873  : 	m_pBlocks = NULL;

  0004f	c7 46 14 00 00
	00 00		 mov	 DWORD PTR [esi+20], 0

; 879  : 	RemoveAll();
; 880  : 	ASSERT(m_nCount == 0);
; 881  : }

  00056	8b 4d f4	 mov	 ecx, DWORD PTR __$EHRec$[ebp]
  00059	64 89 0d 00 00
	00 00		 mov	 DWORD PTR fs:0, ecx
  00060	59		 pop	 ecx
  00061	5e		 pop	 esi
  00062	8b e5		 mov	 esp, ebp
  00064	5d		 pop	 ebp
  00065	c3		 ret	 0
  00066	cc		 int	 3
  00067	cc		 int	 3
  00068	cc		 int	 3
  00069	cc		 int	 3
  0006a	cc		 int	 3
_TEXT	ENDS
;	COMDAT text$x
text$x	SEGMENT
__ehhandler$??1?$CList@PAVCItemLongData@@PAV1@@@UAE@XZ:
  00000	90		 npad	 1
  00001	90		 npad	 1
  00002	8b 54 24 08	 mov	 edx, DWORD PTR [esp+8]
  00006	8d 42 0c	 lea	 eax, DWORD PTR [edx+12]
  00009	8b 4a f8	 mov	 ecx, DWORD PTR [edx-8]
  0000c	33 c8		 xor	 ecx, eax
  0000e	e8 00 00 00 00	 call	 @__security_check_cookie@4
  00013	b8 00 00 00 00	 mov	 eax, OFFSET __ehfuncinfo$??1?$CList@PAVCItemLongData@@PAV1@@@UAE@XZ
  00018	e9 00 00 00 00	 jmp	 ___CxxFrameHandler3
text$x	ENDS
??1?$CList@PAVCItemLongData@@PAV1@@@UAE@XZ ENDP		; CList<CItemLongData *,CItemLongData *>::~CList<CItemLongData *,CItemLongData *>
; Function compile flags: /Ogtp
; File C:\Program Files (x86)\Microsoft Visual Studio\2019\Community\VC\Tools\MSVC\14.29.30133\atlmfc\include\afxtempl.h
;	COMDAT ?NewNode@?$CList@PAVCItemLongData@@PAV1@@@IAEPAUCNode@1@PAU21@0@Z
_TEXT	SEGMENT
_pPrev$ = 8						; size = 4
_pNext$ = 12						; size = 4
?NewNode@?$CList@PAVCItemLongData@@PAV1@@@IAEPAUCNode@1@PAU21@0@Z PROC ; CList<CItemLongData *,CItemLongData *>::NewNode, COMDAT
; _this$ = ecx

; 901  : {

  00000	55		 push	 ebp
  00001	8b ec		 mov	 ebp, esp
  00003	56		 push	 esi
  00004	8b f1		 mov	 esi, ecx

; 902  : 	if (m_pNodeFree == NULL)

  00006	83 7e 10 00	 cmp	 DWORD PTR [esi+16], 0
  0000a	75 34		 jne	 SHORT $LN7@NewNode

; 903  : 	{
; 904  : 		// add another block
; 905  : 		CPlex* pNewBlock = CPlex::Create(m_pBlocks, m_nBlockSize,

  0000c	6a 0c		 push	 12			; 0000000cH
  0000e	ff 76 18	 push	 DWORD PTR [esi+24]
  00011	8d 46 14	 lea	 eax, DWORD PTR [esi+20]
  00014	50		 push	 eax
  00015	e8 00 00 00 00	 call	 ?Create@CPlex@@SGPAU1@AAPAU1@II@Z ; CPlex::Create

; 906  : 				 sizeof(CNode));
; 907  : 
; 908  : 		// chain them into free list
; 909  : 		CNode* pNode = (CNode*) pNewBlock->data();
; 910  : 		// free in reverse order to make it easier to debug
; 911  : 		pNode += m_nBlockSize - 1;

  0001a	8b 56 18	 mov	 edx, DWORD PTR [esi+24]
  0001d	83 c0 08	 add	 eax, 8
  00020	8d 0c 52	 lea	 ecx, DWORD PTR [edx+edx*2]
  00023	8d 04 88	 lea	 eax, DWORD PTR [eax+ecx*4]
  00026	83 c0 f4	 add	 eax, -12		; fffffff4H

; 912  : 		for (INT_PTR i = m_nBlockSize-1; i >= 0; i--, pNode--)

  00029	83 c2 ff	 add	 edx, -1
  0002c	78 12		 js	 SHORT $LN7@NewNode
  0002e	66 90		 npad	 2
$LL4@NewNode:

; 913  : 		{
; 914  : 			pNode->pNext = m_pNodeFree;

  00030	8b 4e 10	 mov	 ecx, DWORD PTR [esi+16]
  00033	89 08		 mov	 DWORD PTR [eax], ecx

; 915  : 			m_pNodeFree = pNode;

  00035	89 46 10	 mov	 DWORD PTR [esi+16], eax
  00038	83 e8 0c	 sub	 eax, 12			; 0000000cH
  0003b	83 ea 01	 sub	 edx, 1
  0003e	79 f0		 jns	 SHORT $LL4@NewNode
$LN7@NewNode:

; 916  : 		}
; 917  : 	}
; 918  : 	ENSURE(m_pNodeFree != NULL);  // we must have something

  00040	8b 46 10	 mov	 eax, DWORD PTR [esi+16]
  00043	85 c0		 test	 eax, eax
  00045	74 18		 je	 SHORT $LN17@NewNode

; 919  : 
; 920  : 	CList::CNode* pNode = m_pNodeFree;
; 921  : 	m_pNodeFree = m_pNodeFree->pNext;

  00047	8b 08		 mov	 ecx, DWORD PTR [eax]
  00049	89 4e 10	 mov	 DWORD PTR [esi+16], ecx

; 922  : 	pNode->pPrev = pPrev;

  0004c	8b 4d 08	 mov	 ecx, DWORD PTR _pPrev$[ebp]
  0004f	89 48 04	 mov	 DWORD PTR [eax+4], ecx

; 923  : 	pNode->pNext = pNext;

  00052	8b 4d 0c	 mov	 ecx, DWORD PTR _pNext$[ebp]
  00055	89 08		 mov	 DWORD PTR [eax], ecx

; 924  : 	m_nCount++;

  00057	ff 46 0c	 inc	 DWORD PTR [esi+12]

; 925  : 	ASSERT(m_nCount > 0);  // make sure we don't overflow
; 926  : 
; 927  : #pragma push_macro("new")
; 928  : #undef new
; 929  : 	::new( (void*)( &pNode->data ) ) TYPE;
; 930  : #pragma pop_macro("new")
; 931  : 	return pNode;

  0005a	5e		 pop	 esi

; 932  : }

  0005b	5d		 pop	 ebp
  0005c	c2 08 00	 ret	 8
$LN17@NewNode:

; 916  : 		}
; 917  : 	}
; 918  : 	ENSURE(m_pNodeFree != NULL);  // we must have something

  0005f	e8 00 00 00 00	 call	 ?AfxThrowInvalidArgException@@YGXXZ ; AfxThrowInvalidArgException
$LN15@NewNode:
  00064	cc		 int	 3
?NewNode@?$CList@PAVCItemLongData@@PAV1@@@IAEPAUCNode@1@PAU21@0@Z ENDP ; CList<CItemLongData *,CItemLongData *>::NewNode
_TEXT	ENDS
; Function compile flags: /Ogtp
; File C:\Program Files (x86)\Microsoft Visual Studio\2019\Community\VC\Tools\MSVC\14.29.30133\atlmfc\include\afxtempl.h
;	COMDAT ?RemoveAll@?$CList@PAVCItemLongData@@PAV1@@@QAEXXZ
_TEXT	SEGMENT
?RemoveAll@?$CList@PAVCItemLongData@@PAV1@@@QAEXXZ PROC	; CList<CItemLongData *,CItemLongData *>::RemoveAll, COMDAT
; _this$ = ecx

; 862  : {

  00000	56		 push	 esi
  00001	8b f1		 mov	 esi, ecx

; 863  : 	ASSERT_VALID(this);
; 864  : 
; 865  : 	// destroy elements
; 866  : 	CNode* pNode;
; 867  : 	for (pNode = m_pNodeHead; pNode != NULL; pNode = pNode->pNext)
; 868  : 		pNode->data.~TYPE();
; 869  : 
; 870  : 	m_nCount = 0;
; 871  : 	m_pNodeHead = m_pNodeTail = m_pNodeFree = NULL;
; 872  : 	m_pBlocks->FreeDataChain();

  00003	8b 4e 14	 mov	 ecx, DWORD PTR [esi+20]
  00006	c7 46 0c 00 00
	00 00		 mov	 DWORD PTR [esi+12], 0
  0000d	c7 46 10 00 00
	00 00		 mov	 DWORD PTR [esi+16], 0
  00014	c7 46 08 00 00
	00 00		 mov	 DWORD PTR [esi+8], 0
  0001b	c7 46 04 00 00
	00 00		 mov	 DWORD PTR [esi+4], 0
  00022	e8 00 00 00 00	 call	 ?FreeDataChain@CPlex@@QAEXXZ ; CPlex::FreeDataChain

; 873  : 	m_pBlocks = NULL;

  00027	c7 46 14 00 00
	00 00		 mov	 DWORD PTR [esi+20], 0
  0002e	5e		 pop	 esi

; 874  : }

  0002f	c3		 ret	 0
?RemoveAll@?$CList@PAVCItemLongData@@PAV1@@@QAEXXZ ENDP	; CList<CItemLongData *,CItemLongData *>::RemoveAll
_TEXT	ENDS
; Function compile flags: /Ogtp
; File C:\Program Files (x86)\Microsoft Visual Studio\2019\Community\VC\Tools\MSVC\14.29.30133\atlmfc\include\afxtempl.h
;	COMDAT ?AddTail@?$CList@PAVCItemLongData@@PAV1@@@QAEPAU__POSITION@@PAVCItemLongData@@@Z
_TEXT	SEGMENT
_newElement$ = 8					; size = 4
?AddTail@?$CList@PAVCItemLongData@@PAV1@@@QAEPAU__POSITION@@PAVCItemLongData@@@Z PROC ; CList<CItemLongData *,CItemLongData *>::AddTail, COMDAT
; _this$ = ecx

; 965  : {

  00000	55		 push	 ebp
  00001	8b ec		 mov	 ebp, esp
  00003	56		 push	 esi
  00004	8b f1		 mov	 esi, ecx
  00006	57		 push	 edi

; 902  : 	if (m_pNodeFree == NULL)

  00007	83 7e 10 00	 cmp	 DWORD PTR [esi+16], 0

; 966  : 	ASSERT_VALID(this);
; 967  : 
; 968  : 	CNode* pNewNode = NewNode(m_pNodeTail, NULL);

  0000b	8b 7e 08	 mov	 edi, DWORD PTR [esi+8]

; 902  : 	if (m_pNodeFree == NULL)

  0000e	75 32		 jne	 SHORT $LN11@AddTail

; 903  : 	{
; 904  : 		// add another block
; 905  : 		CPlex* pNewBlock = CPlex::Create(m_pBlocks, m_nBlockSize,

  00010	6a 0c		 push	 12			; 0000000cH
  00012	ff 76 18	 push	 DWORD PTR [esi+24]
  00015	8d 46 14	 lea	 eax, DWORD PTR [esi+20]
  00018	50		 push	 eax
  00019	e8 00 00 00 00	 call	 ?Create@CPlex@@SGPAU1@AAPAU1@II@Z ; CPlex::Create

; 906  : 				 sizeof(CNode));
; 907  : 
; 908  : 		// chain them into free list
; 909  : 		CNode* pNode = (CNode*) pNewBlock->data();
; 910  : 		// free in reverse order to make it easier to debug
; 911  : 		pNode += m_nBlockSize - 1;

  0001e	8b 56 18	 mov	 edx, DWORD PTR [esi+24]
  00021	83 c0 08	 add	 eax, 8
  00024	8d 4a ff	 lea	 ecx, DWORD PTR [edx-1]

; 912  : 		for (INT_PTR i = m_nBlockSize-1; i >= 0; i--, pNode--)

  00027	83 c2 ff	 add	 edx, -1
  0002a	8d 0c 49	 lea	 ecx, DWORD PTR [ecx+ecx*2]
  0002d	8d 0c 88	 lea	 ecx, DWORD PTR [eax+ecx*4]
  00030	78 10		 js	 SHORT $LN11@AddTail
$LL8@AddTail:

; 913  : 		{
; 914  : 			pNode->pNext = m_pNodeFree;

  00032	8b 46 10	 mov	 eax, DWORD PTR [esi+16]
  00035	89 01		 mov	 DWORD PTR [ecx], eax

; 915  : 			m_pNodeFree = pNode;

  00037	89 4e 10	 mov	 DWORD PTR [esi+16], ecx
  0003a	83 e9 0c	 sub	 ecx, 12			; 0000000cH
  0003d	83 ea 01	 sub	 edx, 1
  00040	79 f0		 jns	 SHORT $LL8@AddTail
$LN11@AddTail:

; 916  : 		}
; 917  : 	}
; 918  : 	ENSURE(m_pNodeFree != NULL);  // we must have something

  00042	8b 4e 10	 mov	 ecx, DWORD PTR [esi+16]
  00045	85 c9		 test	 ecx, ecx
  00047	74 39		 je	 SHORT $LN22@AddTail

; 919  : 
; 920  : 	CList::CNode* pNode = m_pNodeFree;
; 921  : 	m_pNodeFree = m_pNodeFree->pNext;

  00049	8b 01		 mov	 eax, DWORD PTR [ecx]
  0004b	89 46 10	 mov	 DWORD PTR [esi+16], eax

; 969  : 	pNewNode->data = newElement;

  0004e	8b 45 08	 mov	 eax, DWORD PTR _newElement$[ebp]

; 922  : 	pNode->pPrev = pPrev;

  00051	89 79 04	 mov	 DWORD PTR [ecx+4], edi

; 923  : 	pNode->pNext = pNext;

  00054	c7 01 00 00 00
	00		 mov	 DWORD PTR [ecx], 0

; 924  : 	m_nCount++;

  0005a	ff 46 0c	 inc	 DWORD PTR [esi+12]

; 969  : 	pNewNode->data = newElement;

  0005d	89 41 08	 mov	 DWORD PTR [ecx+8], eax

; 970  : 	if (m_pNodeTail != NULL)

  00060	8b 46 08	 mov	 eax, DWORD PTR [esi+8]
  00063	85 c0		 test	 eax, eax
  00065	74 0d		 je	 SHORT $LN2@AddTail

; 971  : 		m_pNodeTail->pNext = pNewNode;

  00067	89 08		 mov	 DWORD PTR [eax], ecx

; 972  : 	else
; 973  : 		m_pNodeHead = pNewNode;
; 974  : 	m_pNodeTail = pNewNode;
; 975  : 	return (POSITION) pNewNode;

  00069	8b c1		 mov	 eax, ecx
  0006b	5f		 pop	 edi
  0006c	89 4e 08	 mov	 DWORD PTR [esi+8], ecx
  0006f	5e		 pop	 esi

; 976  : }

  00070	5d		 pop	 ebp
  00071	c2 04 00	 ret	 4
$LN2@AddTail:

; 972  : 	else
; 973  : 		m_pNodeHead = pNewNode;
; 974  : 	m_pNodeTail = pNewNode;
; 975  : 	return (POSITION) pNewNode;

  00074	5f		 pop	 edi
  00075	89 4e 04	 mov	 DWORD PTR [esi+4], ecx
  00078	8b c1		 mov	 eax, ecx
  0007a	89 4e 08	 mov	 DWORD PTR [esi+8], ecx
  0007d	5e		 pop	 esi

; 976  : }

  0007e	5d		 pop	 ebp
  0007f	c2 04 00	 ret	 4
$LN22@AddTail:

; 918  : 	ENSURE(m_pNodeFree != NULL);  // we must have something

  00082	e8 00 00 00 00	 call	 ?AfxThrowInvalidArgException@@YGXXZ ; AfxThrowInvalidArgException
$LN20@AddTail:
  00087	cc		 int	 3
?AddTail@?$CList@PAVCItemLongData@@PAV1@@@QAEPAU__POSITION@@PAVCItemLongData@@@Z ENDP ; CList<CItemLongData *,CItemLongData *>::AddTail
_TEXT	ENDS
; Function compile flags: /Ogtp
; File C:\Program Files (x86)\Microsoft Visual Studio\2019\Community\VC\Tools\MSVC\14.29.30133\atlmfc\include\afxtempl.h
;	COMDAT ??0?$CList@PAVCItemLongData@@PAV1@@@QAE@H@Z
_TEXT	SEGMENT
_nBlockSize$ = 8					; size = 4
??0?$CList@PAVCItemLongData@@PAV1@@@QAE@H@Z PROC	; CList<CItemLongData *,CItemLongData *>::CList<CItemLongData *,CItemLongData *>, COMDAT
; _this$ = ecx

; 851  : {

  00000	55		 push	 ebp
  00001	8b ec		 mov	 ebp, esp

; 852  : 	ASSERT(nBlockSize > 0);
; 853  : 
; 854  : 	m_nCount = 0;
; 855  : 	m_pNodeHead = m_pNodeTail = m_pNodeFree = NULL;
; 856  : 	m_pBlocks = NULL;
; 857  : 	m_nBlockSize = nBlockSize;

  00003	8b 45 08	 mov	 eax, DWORD PTR _nBlockSize$[ebp]
  00006	89 41 18	 mov	 DWORD PTR [ecx+24], eax

; 858  : }

  00009	8b c1		 mov	 eax, ecx
  0000b	c7 01 00 00 00
	00		 mov	 DWORD PTR [ecx], OFFSET ??_7?$CList@PAVCItemLongData@@PAV1@@@6B@
  00011	c7 41 0c 00 00
	00 00		 mov	 DWORD PTR [ecx+12], 0
  00018	c7 41 10 00 00
	00 00		 mov	 DWORD PTR [ecx+16], 0
  0001f	c7 41 08 00 00
	00 00		 mov	 DWORD PTR [ecx+8], 0
  00026	c7 41 04 00 00
	00 00		 mov	 DWORD PTR [ecx+4], 0
  0002d	c7 41 14 00 00
	00 00		 mov	 DWORD PTR [ecx+20], 0
  00034	5d		 pop	 ebp
  00035	c2 04 00	 ret	 4
??0?$CList@PAVCItemLongData@@PAV1@@@QAE@H@Z ENDP	; CList<CItemLongData *,CItemLongData *>::CList<CItemLongData *,CItemLongData *>
_TEXT	ENDS
; Function compile flags: /Ogtp
; File D:\git\src\IBK\IBK_DRFN\ProjSrc\SrcDrfn\Chart\comparechart\TabStockDlg.cpp
;	COMDAT ?SetCodeFromOutSide@CTabStockDlg@@UAEXPBD@Z
_TEXT	SEGMENT
tv66 = 8						; size = 4
_szCode$ = 8						; size = 4
?SetCodeFromOutSide@CTabStockDlg@@UAEXPBD@Z PROC	; CTabStockDlg::SetCodeFromOutSide, COMDAT
; _this$ = ecx

; 401  : {

  00000	55		 push	 ebp
  00001	8b ec		 mov	 ebp, esp

; 402  : 	if(strlen(szCode)>0)

  00003	8b 55 08	 mov	 edx, DWORD PTR _szCode$[ebp]
  00006	8b c2		 mov	 eax, edx
  00008	56		 push	 esi
  00009	57		 push	 edi
  0000a	8b f9		 mov	 edi, ecx
  0000c	8d 70 01	 lea	 esi, DWORD PTR [eax+1]
  0000f	90		 npad	 1
$LL5@SetCodeFro:
  00010	8a 08		 mov	 cl, BYTE PTR [eax]
  00012	40		 inc	 eax
  00013	84 c9		 test	 cl, cl
  00015	75 f9		 jne	 SHORT $LL5@SetCodeFro
  00017	2b c6		 sub	 eax, esi
  00019	74 21		 je	 SHORT $LN2@SetCodeFro

; 403  : 	{
; 404  : 		m_pCodeInput->SetCode(szCode);

  0001b	6a 00		 push	 0
  0001d	51		 push	 ecx
  0001e	8b cc		 mov	 ecx, esp
  00020	52		 push	 edx
  00021	ff 15 00 00 00
	00		 call	 DWORD PTR __imp_??0?$CStringT@DV?$StrTraitMFC_DLL@DV?$ChTraitsCRT@D@ATL@@@@@ATL@@QAE@PBD@Z
  00027	8b 8f 60 04 00
	00		 mov	 ecx, DWORD PTR [edi+1120]
  0002d	8b 01		 mov	 eax, DWORD PTR [ecx]
  0002f	ff 90 80 01 00
	00		 call	 DWORD PTR [eax+384]

; 405  : 		OnBtnAdd();

  00035	8b cf		 mov	 ecx, edi
  00037	e8 00 00 00 00	 call	 ?OnBtnAdd@CTabStockDlg@@IAEXXZ ; CTabStockDlg::OnBtnAdd
$LN2@SetCodeFro:

; 406  : 	}
; 407  : }

  0003c	5f		 pop	 edi
  0003d	5e		 pop	 esi
  0003e	5d		 pop	 ebp
  0003f	c2 04 00	 ret	 4
?SetCodeFromOutSide@CTabStockDlg@@UAEXPBD@Z ENDP	; CTabStockDlg::SetCodeFromOutSide
_TEXT	ENDS
; Function compile flags: /Ogtp
; File D:\git\src\IBK\IBK_DRFN\ProjSrc\SrcDrfn\Chart\comparechart\TabStockDlg.cpp
;	COMDAT ?UnAdviseGwansim@CTabStockDlg@@QAEXXZ
_TEXT	SEGMENT
?UnAdviseGwansim@CTabStockDlg@@QAEXXZ PROC		; CTabStockDlg::UnAdviseGwansim, COMDAT
; _this$ = ecx

; 464  : {

  00000	56		 push	 esi
  00001	8b f1		 mov	 esi, ecx

; 465  : 	if(m_pGwanMng)

  00003	8b 96 a4 04 00
	00		 mov	 edx, DWORD PTR [esi+1188]
  00009	85 d2		 test	 edx, edx
  0000b	74 10		 je	 SHORT $LN2@UnAdviseGw

; 466  : 	{
; 467  : 		m_pGwanMng->UnAdvise();

  0000d	8b 02		 mov	 eax, DWORD PTR [edx]
  0000f	52		 push	 edx
  00010	ff 50 04	 call	 DWORD PTR [eax+4]

; 468  : 		m_pGwanMng = NULL;

  00013	c7 86 a4 04 00
	00 00 00 00 00	 mov	 DWORD PTR [esi+1188], 0
$LN2@UnAdviseGw:

; 469  : 	}
; 470  : 
; 471  : // 	return;//      .
; 472  : // 	if(m_dwIGwanMonitorManager)	m_pIGwanMonitorManager->UnAdvise(m_dwIGwanMonitorManager);	
; 473  : }

  0001d	5e		 pop	 esi
  0001e	c3		 ret	 0
?UnAdviseGwansim@CTabStockDlg@@QAEXXZ ENDP		; CTabStockDlg::UnAdviseGwansim
_TEXT	ENDS
; Function compile flags: /Ogtp
; File D:\git\src\IBK\IBK_DRFN\ProjSrc\SrcDrfn\Chart\comparechart\TabStockDlg.cpp
; File C:\Program Files (x86)\Microsoft Visual Studio\2019\Community\VC\Tools\MSVC\14.29.30133\atlmfc\include\afxwin2.inl
; File D:\git\src\IBK\IBK_DRFN\ProjSrc\SrcDrfn\Chart\comparechart\TabStockDlg.cpp
; File C:\Program Files (x86)\Microsoft Visual Studio\2019\Community\VC\Tools\MSVC\14.29.30133\atlmfc\include\afxwin2.inl
; File D:\git\src\IBK\IBK_DRFN\ProjSrc\SrcDrfn\Chart\comparechart\TabStockDlg.cpp
; File C:\Program Files (x86)\Microsoft Visual Studio\2019\Community\VC\Tools\MSVC\14.29.30133\atlmfc\include\afxwin2.inl
; File D:\git\src\IBK\IBK_DRFN\ProjSrc\SrcDrfn\Chart\comparechart\TabStockDlg.cpp
;	COMDAT ?AdviseGwansim@CTabStockDlg@@QAEXXZ
_TEXT	SEGMENT
_hPlatform$1$ = -24					; size = 4
_hOnUser$1$ = -20					; size = 4
_szKey$2 = -16						; size = 4
__$EHRec$ = -12						; size = 12
?AdviseGwansim@CTabStockDlg@@QAEXXZ PROC		; CTabStockDlg::AdviseGwansim, COMDAT
; _this$ = ecx

; 444  : {

  00000	55		 push	 ebp
  00001	8b ec		 mov	 ebp, esp
  00003	6a ff		 push	 -1
  00005	68 00 00 00 00	 push	 __ehhandler$?AdviseGwansim@CTabStockDlg@@QAEXXZ
  0000a	64 a1 00 00 00
	00		 mov	 eax, DWORD PTR fs:0
  00010	50		 push	 eax
  00011	83 ec 0c	 sub	 esp, 12			; 0000000cH
  00014	53		 push	 ebx
  00015	56		 push	 esi
  00016	57		 push	 edi
  00017	a1 00 00 00 00	 mov	 eax, DWORD PTR ___security_cookie
  0001c	33 c5		 xor	 eax, ebp
  0001e	50		 push	 eax
  0001f	8d 45 f4	 lea	 eax, DWORD PTR __$EHRec$[ebp]
  00022	64 a3 00 00 00
	00		 mov	 DWORD PTR fs:0, eax
  00028	8b f9		 mov	 edi, ecx

; 445  : 	CStdDialog* pStdParent = ((CStdDialog*)m_pCompareChartWnd);
; 446  : 	if(!m_pGwanMng)

  0002a	83 bf a4 04 00
	00 00		 cmp	 DWORD PTR [edi+1188], 0
  00031	8b 9f c4 00 00
	00		 mov	 ebx, DWORD PTR [edi+196]
  00037	0f 85 ab 00 00
	00		 jne	 $LN3@AdviseGwan
; File C:\Program Files (x86)\Microsoft Visual Studio\2019\Community\VC\Tools\MSVC\14.29.30133\atlmfc\include\afxwin2.inl

; 213  : 	{ ASSERT(::IsWindow(m_hWnd)); return CWnd::FromHandle(::GetParent(m_hWnd)); }

  0003d	ff 73 20	 push	 DWORD PTR [ebx+32]
  00040	8b 35 00 00 00
	00		 mov	 esi, DWORD PTR __imp__GetParent@4
  00046	ff d6		 call	 esi
  00048	50		 push	 eax
  00049	e8 00 00 00 00	 call	 ?FromHandle@CWnd@@SGPAV1@PAUHWND__@@@Z ; CWnd::FromHandle

; 32   : 	{ ASSERT(::IsWindow(m_hWnd)); return ::SendMessage(m_hWnd, message, wParam, lParam); }

  0004e	6a 00		 push	 0
  00050	6a 00		 push	 0
  00052	ff 35 00 00 00
	00		 push	 DWORD PTR ?RMSG_GETINTERFACE@@3IB
  00058	ff 70 20	 push	 DWORD PTR [eax+32]
  0005b	ff 15 00 00 00
	00		 call	 DWORD PTR __imp__SendMessageA@16
; File D:\git\src\IBK\IBK_DRFN\ProjSrc\SrcDrfn\Chart\comparechart\TabStockDlg.cpp

; 448  : 		m_pGwanMng = (IWinixGwanManager*)pStdParent->GetParent()->SendMessage(RMSG_GETINTERFACE, 0, 0);

  00061	89 87 a4 04 00
	00		 mov	 DWORD PTR [edi+1188], eax

; 449  : 		if(m_pGwanMng)

  00067	85 c0		 test	 eax, eax
  00069	74 7d		 je	 SHORT $LN3@AdviseGwan

; 451  : 			HWND hPlatform = pStdParent->m_hPlatform;

  0006b	8b 83 d8 02 00
	00		 mov	 eax, DWORD PTR [ebx+728]
; File C:\Program Files (x86)\Microsoft Visual Studio\2019\Community\VC\Tools\MSVC\14.29.30133\atlmfc\include\afxwin2.inl

; 213  : 	{ ASSERT(::IsWindow(m_hWnd)); return CWnd::FromHandle(::GetParent(m_hWnd)); }

  00071	ff 73 20	 push	 DWORD PTR [ebx+32]
; File D:\git\src\IBK\IBK_DRFN\ProjSrc\SrcDrfn\Chart\comparechart\TabStockDlg.cpp

; 451  : 			HWND hPlatform = pStdParent->m_hPlatform;

  00074	89 45 e8	 mov	 DWORD PTR _hPlatform$1$[ebp], eax
; File C:\Program Files (x86)\Microsoft Visual Studio\2019\Community\VC\Tools\MSVC\14.29.30133\atlmfc\include\afxwin2.inl

; 213  : 	{ ASSERT(::IsWindow(m_hWnd)); return CWnd::FromHandle(::GetParent(m_hWnd)); }

  00077	ff d6		 call	 esi
  00079	50		 push	 eax
  0007a	e8 00 00 00 00	 call	 ?FromHandle@CWnd@@SGPAV1@PAUHWND__@@@Z ; CWnd::FromHandle
  0007f	ff 70 20	 push	 DWORD PTR [eax+32]
  00082	ff d6		 call	 esi
  00084	50		 push	 eax
  00085	e8 00 00 00 00	 call	 ?FromHandle@CWnd@@SGPAV1@PAUHWND__@@@Z ; CWnd::FromHandle

; 25   : 	{ return this == NULL ? NULL : m_hWnd; }

  0008a	85 c0		 test	 eax, eax
  0008c	75 05		 jne	 SHORT $LN16@AdviseGwan
  0008e	89 45 ec	 mov	 DWORD PTR _hOnUser$1$[ebp], eax
  00091	eb 06		 jmp	 SHORT $LN17@AdviseGwan
$LN16@AdviseGwan:
  00093	8b 40 20	 mov	 eax, DWORD PTR [eax+32]
  00096	89 45 ec	 mov	 DWORD PTR _hOnUser$1$[ebp], eax
$LN17@AdviseGwan:
  00099	8b 77 20	 mov	 esi, DWORD PTR [edi+32]
; File D:\git\src\IBK\IBK_DRFN\ProjSrc\SrcDrfn\Chart\comparechart\TabStockDlg.cpp

; 454  : 			CString szKey;

  0009c	8d 4d f0	 lea	 ecx, DWORD PTR _szKey$2[ebp]
  0009f	ff 15 00 00 00
	00		 call	 DWORD PTR __imp_??0?$CStringT@DV?$StrTraitMFC_DLL@DV?$ChTraitsCRT@D@ATL@@@@@ATL@@QAE@XZ

; 455  : 			szKey.Format("%08X\t%08X\t%08X\t", hPlatform, hOnUser, hMsgReceiver);

  000a5	56		 push	 esi
  000a6	ff 75 ec	 push	 DWORD PTR _hOnUser$1$[ebp]
  000a9	8d 45 f0	 lea	 eax, DWORD PTR _szKey$2[ebp]
  000ac	c7 45 fc 00 00
	00 00		 mov	 DWORD PTR __$EHRec$[ebp+8], 0
  000b3	ff 75 e8	 push	 DWORD PTR _hPlatform$1$[ebp]
  000b6	68 00 00 00 00	 push	 OFFSET ??_C@_0BA@INBCGBNE@?$CF08X?7?$CF08X?7?$CF08X?7@
  000bb	50		 push	 eax
  000bc	ff 15 00 00 00
	00		 call	 DWORD PTR __imp_?Format@?$CStringT@DV?$StrTraitMFC_DLL@DV?$ChTraitsCRT@D@ATL@@@@@ATL@@QAAXPBDZZ

; 456  : 			m_pGwanMng->Advise(szKey);

  000c2	8b 87 a4 04 00
	00		 mov	 eax, DWORD PTR [edi+1188]
  000c8	83 c4 14	 add	 esp, 20			; 00000014H
  000cb	ff 75 f0	 push	 DWORD PTR _szKey$2[ebp]
  000ce	8b 08		 mov	 ecx, DWORD PTR [eax]
  000d0	50		 push	 eax
  000d1	ff 11		 call	 DWORD PTR [ecx]

; 457  : 			
; 458  : 			pStdParent->m_pGwanMng = m_pGwanMng;

  000d3	8b 87 a4 04 00
	00		 mov	 eax, DWORD PTR [edi+1188]

; 459  : 		}

  000d9	8d 4d f0	 lea	 ecx, DWORD PTR _szKey$2[ebp]
  000dc	89 83 08 11 00
	00		 mov	 DWORD PTR [ebx+4360], eax
  000e2	ff 15 00 00 00
	00		 call	 DWORD PTR __imp_??1?$CStringT@DV?$StrTraitMFC_DLL@DV?$ChTraitsCRT@D@ATL@@@@@ATL@@QAE@XZ
$LN3@AdviseGwan:

; 460  : 	}
; 461  : }

  000e8	8b 4d f4	 mov	 ecx, DWORD PTR __$EHRec$[ebp]
  000eb	64 89 0d 00 00
	00 00		 mov	 DWORD PTR fs:0, ecx
  000f2	59		 pop	 ecx
  000f3	5f		 pop	 edi
  000f4	5e		 pop	 esi
  000f5	5b		 pop	 ebx
  000f6	8b e5		 mov	 esp, ebp
  000f8	5d		 pop	 ebp
  000f9	c3		 ret	 0
_TEXT	ENDS
;	COMDAT text$x
text$x	SEGMENT
__unwindfunclet$?AdviseGwansim@CTabStockDlg@@QAEXXZ$0:
  00000	8d 4d f0	 lea	 ecx, DWORD PTR _szKey$2[ebp]
  00003	ff 25 00 00 00
	00		 jmp	 DWORD PTR __imp_??1?$CStringT@DV?$StrTraitMFC_DLL@DV?$ChTraitsCRT@D@ATL@@@@@ATL@@QAE@XZ
  00009	cc		 int	 3
  0000a	cc		 int	 3
  0000b	cc		 int	 3
  0000c	cc		 int	 3
  0000d	cc		 int	 3
__ehhandler$?AdviseGwansim@CTabStockDlg@@QAEXXZ:
  0000e	90		 npad	 1
  0000f	90		 npad	 1
  00010	8b 54 24 08	 mov	 edx, DWORD PTR [esp+8]
  00014	8d 42 0c	 lea	 eax, DWORD PTR [edx+12]
  00017	8b 4a e4	 mov	 ecx, DWORD PTR [edx-28]
  0001a	33 c8		 xor	 ecx, eax
  0001c	e8 00 00 00 00	 call	 @__security_check_cookie@4
  00021	b8 00 00 00 00	 mov	 eax, OFFSET __ehfuncinfo$?AdviseGwansim@CTabStockDlg@@QAEXXZ
  00026	e9 00 00 00 00	 jmp	 ___CxxFrameHandler3
text$x	ENDS
?AdviseGwansim@CTabStockDlg@@QAEXXZ ENDP		; CTabStockDlg::AdviseGwansim
; Function compile flags: /Ogtp
; File D:\git\src\IBK\IBK_DRFN\ProjSrc\SrcDrfn\Chart\comparechart\TabStockDlg.cpp
; File C:\Program Files (x86)\Microsoft Visual Studio\2019\Community\VC\Tools\MSVC\14.29.30133\atlmfc\include\afxtempl.h
; File D:\git\src\IBK\IBK_DRFN\ProjSrc\SrcDrfn\Chart\comparechart\TabStockDlg.cpp
; File C:\Program Files (x86)\Microsoft Visual Studio\2019\Community\VC\Tools\MSVC\14.29.30133\atlmfc\include\afxtempl.h
; File D:\git\src\IBK\IBK_DRFN\ProjSrc\SrcDrfn\Chart\comparechart\TabStockDlg.cpp
; File C:\Program Files (x86)\Microsoft Visual Studio\2019\Community\VC\Tools\MSVC\14.29.30133\atlmfc\include\afxtempl.h
; File D:\git\src\IBK\IBK_DRFN\ProjSrc\SrcDrfn\Chart\comparechart\TabStockDlg.cpp
;	COMDAT ?fnRemovelistStockCode@CTabStockDlg@@QAEXXZ
_TEXT	SEGMENT
?fnRemovelistStockCode@CTabStockDlg@@QAEXXZ PROC	; CTabStockDlg::fnRemovelistStockCode, COMDAT
; _this$ = ecx

; 289  : {

  00000	53		 push	 ebx
  00001	8b d9		 mov	 ebx, ecx
  00003	56		 push	 esi

; 290  : 	for( int i = 0; i < m_listStockCode.m_AllArray.GetSize(); i++)

  00004	33 f6		 xor	 esi, esi
  00006	8b 83 68 02 00
	00		 mov	 eax, DWORD PTR [ebx+616]
  0000c	85 c0		 test	 eax, eax
  0000e	7e 47		 jle	 SHORT $LN3@fnRemoveli
  00010	57		 push	 edi
$LL4@fnRemoveli:
; File C:\Program Files (x86)\Microsoft Visual Studio\2019\Community\VC\Tools\MSVC\14.29.30133\atlmfc\include\afxtempl.h

; 288  : 	if(nIndex >= 0 && nIndex < m_nSize)

  00011	85 f6		 test	 esi, esi
  00013	78 76		 js	 SHORT $LN9@fnRemoveli
  00015	3b f0		 cmp	 esi, eax
  00017	7d 72		 jge	 SHORT $LN9@fnRemoveli
; File D:\git\src\IBK\IBK_DRFN\ProjSrc\SrcDrfn\Chart\comparechart\TabStockDlg.cpp

; 291  : 		delete m_listStockCode.m_AllArray.GetAt(i);

  00019	8b 83 64 02 00
	00		 mov	 eax, DWORD PTR [ebx+612]
  0001f	8b 3c b0	 mov	 edi, DWORD PTR [eax+esi*4]
  00022	85 ff		 test	 edi, edi
  00024	74 25		 je	 SHORT $LN2@fnRemoveli
  00026	8d 4f 08	 lea	 ecx, DWORD PTR [edi+8]
  00029	ff 15 00 00 00
	00		 call	 DWORD PTR __imp_??1?$CStringT@DV?$StrTraitMFC_DLL@DV?$ChTraitsCRT@D@ATL@@@@@ATL@@QAE@XZ
  0002f	8d 4f 04	 lea	 ecx, DWORD PTR [edi+4]
  00032	ff 15 00 00 00
	00		 call	 DWORD PTR __imp_??1?$CStringT@DV?$StrTraitMFC_DLL@DV?$ChTraitsCRT@D@ATL@@@@@ATL@@QAE@XZ
  00038	8b cf		 mov	 ecx, edi
  0003a	ff 15 00 00 00
	00		 call	 DWORD PTR __imp_??1?$CStringT@DV?$StrTraitMFC_DLL@DV?$ChTraitsCRT@D@ATL@@@@@ATL@@QAE@XZ
  00040	6a 0c		 push	 12			; 0000000cH
  00042	57		 push	 edi
  00043	e8 00 00 00 00	 call	 ??3@YAXPAXI@Z		; operator delete
  00048	83 c4 08	 add	 esp, 8
$LN2@fnRemoveli:

; 290  : 	for( int i = 0; i < m_listStockCode.m_AllArray.GetSize(); i++)

  0004b	8b 83 68 02 00
	00		 mov	 eax, DWORD PTR [ebx+616]
  00051	46		 inc	 esi
  00052	3b f0		 cmp	 esi, eax
  00054	7c bb		 jl	 SHORT $LL4@fnRemoveli
  00056	5f		 pop	 edi
$LN3@fnRemoveli:
; File C:\Program Files (x86)\Microsoft Visual Studio\2019\Community\VC\Tools\MSVC\14.29.30133\atlmfc\include\afxtempl.h

; 381  : 		if (m_pData != NULL)

  00057	8b 83 64 02 00
	00		 mov	 eax, DWORD PTR [ebx+612]
  0005d	85 c0		 test	 eax, eax
  0005f	74 13		 je	 SHORT $LN40@fnRemoveli

; 382  : 		{
; 383  : 			for( int i = 0; i < m_nSize; i++ )
; 384  : 				(m_pData + i)->~TYPE();
; 385  : 			delete[] (BYTE*)m_pData;

  00061	50		 push	 eax
  00062	e8 00 00 00 00	 call	 ??_V@YAXPAX@Z		; operator delete[]
  00067	83 c4 04	 add	 esp, 4

; 386  : 			m_pData = NULL;

  0006a	c7 83 64 02 00
	00 00 00 00 00	 mov	 DWORD PTR [ebx+612], 0
$LN40@fnRemoveli:

; 387  : 		}
; 388  : 		m_nSize = m_nMaxSize = 0;

  00074	5e		 pop	 esi
  00075	c7 83 6c 02 00
	00 00 00 00 00	 mov	 DWORD PTR [ebx+620], 0
  0007f	c7 83 68 02 00
	00 00 00 00 00	 mov	 DWORD PTR [ebx+616], 0
  00089	5b		 pop	 ebx
; File D:\git\src\IBK\IBK_DRFN\ProjSrc\SrcDrfn\Chart\comparechart\TabStockDlg.cpp

; 293  : }

  0008a	c3		 ret	 0
$LN9@fnRemoveli:
; File C:\Program Files (x86)\Microsoft Visual Studio\2019\Community\VC\Tools\MSVC\14.29.30133\atlmfc\include\afxtempl.h

; 290  : 	AfxThrowInvalidArgException();

  0008b	e8 00 00 00 00	 call	 ?AfxThrowInvalidArgException@@YGXXZ ; AfxThrowInvalidArgException
$LN76@fnRemoveli:
  00090	cc		 int	 3
?fnRemovelistStockCode@CTabStockDlg@@QAEXXZ ENDP	; CTabStockDlg::fnRemovelistStockCode
_TEXT	ENDS
; Function compile flags: /Ogtp
; File D:\git\src\IBK\IBK_DRFN\ProjSrc\SrcDrfn\Chart\comparechart\TabStockDlg.cpp
; File D:\git\src\IBK\IBK_DRFN\ProjSrc\SrcDrfn\inc\IBaseDefine.h
; File D:\git\src\IBK\IBK_DRFN\ProjSrc\SrcDrfn\inc\ITreeListMng.h
; File D:\git\src\IBK\IBK_DRFN\ProjSrc\SrcDrfn\Chart\comparechart\TabStockDlg.cpp
; File D:\git\src\IBK\IBK_DRFN\ProjSrc\SrcDrfn\inc\ITreeListMng.h
; File D:\git\src\IBK\IBK_DRFN\ProjSrc\SrcDrfn\Chart\comparechart\TabStockDlg.cpp
; File C:\Program Files (x86)\Microsoft Visual Studio\2019\Community\VC\Tools\MSVC\14.29.30133\atlmfc\include\afxwin2.inl
; File D:\git\src\IBK\IBK_DRFN\ProjSrc\SrcDrfn\Chart\comparechart\TabStockDlg.cpp
; File C:\Program Files (x86)\Microsoft Visual Studio\2019\Community\VC\Tools\MSVC\14.29.30133\atlmfc\include\afxwin2.inl
; File D:\git\src\IBK\IBK_DRFN\ProjSrc\SrcDrfn\Chart\comparechart\TabStockDlg.cpp
;	COMDAT ?InitTreeSearch@CTabStockDlg@@QAEXXZ
_TEXT	SEGMENT
_inData$ = -56						; size = 20
_hMainWnd$2 = -36					; size = 4
_szClipFormat$3 = -32					; size = 4
_aBufWnd$4 = -28					; size = 9
__$ArrayPad$ = -16					; size = 4
__$EHRec$ = -12						; size = 12
?InitTreeSearch@CTabStockDlg@@QAEXXZ PROC		; CTabStockDlg::InitTreeSearch, COMDAT
; _this$ = ecx

; 256  : {

  00000	55		 push	 ebp
  00001	8b ec		 mov	 ebp, esp
  00003	6a ff		 push	 -1
  00005	68 00 00 00 00	 push	 __ehhandler$?InitTreeSearch@CTabStockDlg@@QAEXXZ
  0000a	64 a1 00 00 00
	00		 mov	 eax, DWORD PTR fs:0
  00010	50		 push	 eax
  00011	83 ec 2c	 sub	 esp, 44			; 0000002cH
  00014	a1 00 00 00 00	 mov	 eax, DWORD PTR ___security_cookie
  00019	33 c5		 xor	 eax, ebp
  0001b	89 45 f0	 mov	 DWORD PTR __$ArrayPad$[ebp], eax
  0001e	53		 push	 ebx
  0001f	56		 push	 esi
  00020	57		 push	 edi
  00021	50		 push	 eax
  00022	8d 45 f4	 lea	 eax, DWORD PTR __$EHRec$[ebp]
  00025	64 a3 00 00 00
	00		 mov	 DWORD PTR fs:0, eax
  0002b	8b f9		 mov	 edi, ecx
  0002d	0f 57 c0	 xorps	 xmm0, xmm0
; File D:\git\src\IBK\IBK_DRFN\ProjSrc\SrcDrfn\inc\IBaseDefine.h

; 262  : 	AfxGetHanaroMainWnd(hMainWnd);

  00030	c7 45 dc 00 00
	00 00		 mov	 DWORD PTR _hMainWnd$2[ebp], 0
  00037	8d 4d e0	 lea	 ecx, DWORD PTR _szClipFormat$3[ebp]
  0003a	66 0f d6 45 e4	 movq	 QWORD PTR _aBufWnd$4[ebp], xmm0
  0003f	c6 45 ec 00	 mov	 BYTE PTR _aBufWnd$4[ebp+8], 0
  00043	ff 15 00 00 00
	00		 call	 DWORD PTR __imp_??0?$CStringT@DV?$StrTraitMFC_DLL@DV?$ChTraitsCRT@D@ATL@@@@@ATL@@QAE@XZ
  00049	68 00 00 00 00	 push	 OFFSET ??_C@_0M@CBBNGGHM@PcTrMng?4dll@
  0004e	c7 45 fc 00 00
	00 00		 mov	 DWORD PTR __$EHRec$[ebp+8], 0
  00055	ff 15 00 00 00
	00		 call	 DWORD PTR __imp__GetModuleHandleA@4
  0005b	50		 push	 eax
  0005c	68 00 00 00 00	 push	 OFFSET ??_C@_0P@IDMAJEGN@HANAROPCTRMAIN@
  00061	8d 45 e0	 lea	 eax, DWORD PTR _szClipFormat$3[ebp]
  00064	68 00 00 00 00	 push	 OFFSET ??_C@_06NDLAHCHE@?$CFs?$CF08X@
  00069	50		 push	 eax
  0006a	ff 15 00 00 00
	00		 call	 DWORD PTR __imp_?Format@?$CStringT@DV?$StrTraitMFC_DLL@DV?$ChTraitsCRT@D@ATL@@@@@ATL@@QAAXPBDZZ
  00070	83 c4 10	 add	 esp, 16			; 00000010H
  00073	8d 45 e4	 lea	 eax, DWORD PTR _aBufWnd$4[ebp]
  00076	6a 09		 push	 9
  00078	50		 push	 eax
  00079	ff 75 e0	 push	 DWORD PTR _szClipFormat$3[ebp]
  0007c	ff 15 00 00 00
	00		 call	 DWORD PTR __imp__GetEnvironmentVariableA@12
  00082	8d 45 dc	 lea	 eax, DWORD PTR _hMainWnd$2[ebp]
  00085	50		 push	 eax
  00086	8d 45 e4	 lea	 eax, DWORD PTR _aBufWnd$4[ebp]
  00089	68 00 00 00 00	 push	 OFFSET ??_C@_02EMFKHFLK@?$CFX@
  0008e	50		 push	 eax
  0008f	e8 00 00 00 00	 call	 _sscanf
  00094	83 c4 0c	 add	 esp, 12			; 0000000cH
  00097	8d 4d e0	 lea	 ecx, DWORD PTR _szClipFormat$3[ebp]
  0009a	ff 15 00 00 00
	00		 call	 DWORD PTR __imp_??1?$CStringT@DV?$StrTraitMFC_DLL@DV?$ChTraitsCRT@D@ATL@@@@@ATL@@QAE@XZ

; 263  : 
; 264  : 	return ::SendMessage(hMainWnd, RMSG_INTERFACE, (WPARAM)nID, 0);

  000a0	6a 00		 push	 0
  000a2	6a 1a		 push	 26			; 0000001aH
  000a4	ff 35 00 00 00
	00		 push	 DWORD PTR ?RMSG_INTERFACE@@3IB
  000aa	ff 75 dc	 push	 DWORD PTR _hMainWnd$2[ebp]
  000ad	ff 15 00 00 00
	00		 call	 DWORD PTR __imp__SendMessageA@16
; File D:\git\src\IBK\IBK_DRFN\ProjSrc\SrcDrfn\inc\ITreeListMng.h

; 134  : 	CInputCodeList()

  000b3	8d 4d cc	 lea	 ecx, DWORD PTR _inData$[ebp+4]
; File D:\git\src\IBK\IBK_DRFN\ProjSrc\SrcDrfn\Chart\comparechart\TabStockDlg.cpp

; 257  : 	m_pTreeListMng = (ITreeListManager2*)AfxGetPctrInterface(UUID_ITreeListManager2);

  000b6	89 87 68 04 00
	00		 mov	 DWORD PTR [edi+1128], eax
; File D:\git\src\IBK\IBK_DRFN\ProjSrc\SrcDrfn\inc\ITreeListMng.h

; 134  : 	CInputCodeList()

  000bc	ff 15 00 00 00
	00		 call	 DWORD PTR __imp_??0?$CStringT@DV?$StrTraitMFC_DLL@DV?$ChTraitsCRT@D@ATL@@@@@ATL@@QAE@XZ
  000c2	8d 4d d0	 lea	 ecx, DWORD PTR _inData$[ebp+8]
  000c5	c7 45 fc 01 00
	00 00		 mov	 DWORD PTR __$EHRec$[ebp+8], 1
  000cc	ff 15 00 00 00
	00		 call	 DWORD PTR __imp_??0?$CStringT@DV?$StrTraitMFC_DLL@DV?$ChTraitsCRT@D@ATL@@@@@ATL@@QAE@XZ

; 135  : 	{
; 136  : 		m_pTreeCtrl = NULL;
; 137  : 		m_szSection = "TREELIST";

  000d2	68 00 00 00 00	 push	 OFFSET ??_C@_08KDNPGENH@TREELIST@
  000d7	8d 4d d0	 lea	 ecx, DWORD PTR _inData$[ebp+8]
  000da	c6 45 fc 02	 mov	 BYTE PTR __$EHRec$[ebp+8], 2
  000de	c7 45 c8 00 00
	00 00		 mov	 DWORD PTR _inData$[ebp], 0
  000e5	ff 15 00 00 00
	00		 call	 DWORD PTR __imp_??4?$CStringT@DV?$StrTraitMFC_DLL@DV?$ChTraitsCRT@D@ATL@@@@@ATL@@QAEAAV01@PBD@Z

; 160  : 		m_nCtrlType = ICLE_CTLTYPE_TREE;

  000eb	c7 45 d8 00 00
	00 00		 mov	 DWORD PTR _inData$[ebp+16], 0
; File D:\git\src\IBK\IBK_DRFN\ProjSrc\SrcDrfn\Chart\comparechart\TabStockDlg.cpp

; 260  : 	inData.m_pTreeCtrl = &m_treeSearch;

  000f2	8d 87 80 02 00
	00		 lea	 eax, DWORD PTR [edi+640]
  000f8	c7 45 fc 03 00
	00 00		 mov	 DWORD PTR __$EHRec$[ebp+8], 3

; 261  : 	inData.m_pListCtrl = NULL;
; 262  : 	inData.m_szSection = "COMPCHARTTREELIST";

  000ff	68 00 00 00 00	 push	 OFFSET ??_C@_0BC@KBBCDNCC@COMPCHARTTREELIST@
  00104	8d 4d d0	 lea	 ecx, DWORD PTR _inData$[ebp+8]
  00107	89 45 c8	 mov	 DWORD PTR _inData$[ebp], eax
  0010a	c7 45 d4 00 00
	00 00		 mov	 DWORD PTR _inData$[ebp+12], 0
  00111	ff 15 00 00 00
	00		 call	 DWORD PTR __imp_??4?$CStringT@DV?$StrTraitMFC_DLL@DV?$ChTraitsCRT@D@ATL@@@@@ATL@@QAEAAV01@PBD@Z

; 263  : 
; 264  : 	if(m_pTreeListMng)

  00117	83 bf 68 04 00
	00 00		 cmp	 DWORD PTR [edi+1128], 0
  0011e	0f 84 a5 00 00
	00		 je	 $LN2@InitTreeSe
; File C:\Program Files (x86)\Microsoft Visual Studio\2019\Community\VC\Tools\MSVC\14.29.30133\atlmfc\include\afxwin2.inl

; 213  : 	{ ASSERT(::IsWindow(m_hWnd)); return CWnd::FromHandle(::GetParent(m_hWnd)); }

  00124	ff 77 20	 push	 DWORD PTR [edi+32]
  00127	8b 35 00 00 00
	00		 mov	 esi, DWORD PTR __imp__GetParent@4
  0012d	ff d6		 call	 esi
  0012f	50		 push	 eax
  00130	e8 00 00 00 00	 call	 ?FromHandle@CWnd@@SGPAV1@PAUHWND__@@@Z ; CWnd::FromHandle
  00135	ff 70 20	 push	 DWORD PTR [eax+32]
  00138	ff d6		 call	 esi
  0013a	50		 push	 eax
  0013b	e8 00 00 00 00	 call	 ?FromHandle@CWnd@@SGPAV1@PAUHWND__@@@Z ; CWnd::FromHandle
  00140	ff 70 20	 push	 DWORD PTR [eax+32]
  00143	ff d6		 call	 esi
  00145	50		 push	 eax
  00146	e8 00 00 00 00	 call	 ?FromHandle@CWnd@@SGPAV1@PAUHWND__@@@Z ; CWnd::FromHandle
; File D:\git\src\IBK\IBK_DRFN\ProjSrc\SrcDrfn\Chart\comparechart\TabStockDlg.cpp

; 266  : 		CStdDialog* pMultiChartWnd = (CStdDialog*)GetParent()->GetParent()->GetParent();

  0014b	8b d8		 mov	 ebx, eax
; File C:\Program Files (x86)\Microsoft Visual Studio\2019\Community\VC\Tools\MSVC\14.29.30133\atlmfc\include\afxwin2.inl

; 213  : 	{ ASSERT(::IsWindow(m_hWnd)); return CWnd::FromHandle(::GetParent(m_hWnd)); }

  0014d	ff 73 20	 push	 DWORD PTR [ebx+32]
  00150	ff d6		 call	 esi
  00152	50		 push	 eax
  00153	e8 00 00 00 00	 call	 ?FromHandle@CWnd@@SGPAV1@PAUHWND__@@@Z ; CWnd::FromHandle
  00158	ff 70 20	 push	 DWORD PTR [eax+32]
  0015b	ff d6		 call	 esi
  0015d	50		 push	 eax
  0015e	e8 00 00 00 00	 call	 ?FromHandle@CWnd@@SGPAV1@PAUHWND__@@@Z ; CWnd::FromHandle

; 25   : 	{ return this == NULL ? NULL : m_hWnd; }

  00163	85 c0		 test	 eax, eax
  00165	75 04		 jne	 SHORT $LN29@InitTreeSe
  00167	33 d2		 xor	 edx, edx
  00169	eb 03		 jmp	 SHORT $LN30@InitTreeSe
$LN29@InitTreeSe:
  0016b	8b 50 20	 mov	 edx, DWORD PTR [eax+32]
$LN30@InitTreeSe:
; File D:\git\src\IBK\IBK_DRFN\ProjSrc\SrcDrfn\Chart\comparechart\TabStockDlg.cpp

; 267  : 		m_pTreeListMng->SetSendKey(pMultiChartWnd->m_hPlatform, pMultiChartWnd->GetParent()->GetParent()->GetSafeHwnd());

  0016e	8b 87 68 04 00
	00		 mov	 eax, DWORD PTR [edi+1128]
  00174	52		 push	 edx
  00175	ff b3 d8 02 00
	00		 push	 DWORD PTR [ebx+728]
  0017b	8b 08		 mov	 ecx, DWORD PTR [eax]
  0017d	50		 push	 eax
  0017e	ff 51 44	 call	 DWORD PTR [ecx+68]

; 268  : 		m_pTreeListMng->SetGwanInterface((long)m_pGwanMng);

  00181	8b 87 68 04 00
	00		 mov	 eax, DWORD PTR [edi+1128]
  00187	ff b7 a4 04 00
	00		 push	 DWORD PTR [edi+1188]
  0018d	50		 push	 eax
  0018e	8b 08		 mov	 ecx, DWORD PTR [eax]
  00190	ff 51 48	 call	 DWORD PTR [ecx+72]

; 269  : 		m_pTreeListMng->SetBaseData("SCREENCODE", ((CStdDialog*)m_pCompareChartWnd)->m_strScreenNo);

  00193	8b 87 c4 00 00
	00		 mov	 eax, DWORD PTR [edi+196]
  00199	8b 8f 68 04 00
	00		 mov	 ecx, DWORD PTR [edi+1128]
  0019f	ff b0 dc 02 00
	00		 push	 DWORD PTR [eax+732]
  001a5	8b 11		 mov	 edx, DWORD PTR [ecx]
  001a7	68 00 00 00 00	 push	 OFFSET ??_C@_0L@DIKICJIA@SCREENCODE@
  001ac	51		 push	 ecx
  001ad	ff 52 3c	 call	 DWORD PTR [edx+60]

; 270  : 		m_dwTreeKey = m_pTreeListMng->LoadTreeList(&inData, inData.m_szSection);

  001b0	8b 87 68 04 00
	00		 mov	 eax, DWORD PTR [edi+1128]
  001b6	8d 55 c8	 lea	 edx, DWORD PTR _inData$[ebp]
  001b9	ff 75 d0	 push	 DWORD PTR _inData$[ebp+8]
  001bc	52		 push	 edx
  001bd	8b 08		 mov	 ecx, DWORD PTR [eax]
  001bf	50		 push	 eax
  001c0	ff 51 08	 call	 DWORD PTR [ecx+8]
  001c3	89 87 70 04 00
	00		 mov	 DWORD PTR [edi+1136], eax
$LN2@InitTreeSe:
  001c9	8d 4d d0	 lea	 ecx, DWORD PTR _inData$[ebp+8]
  001cc	ff 15 00 00 00
	00		 call	 DWORD PTR __imp_??1?$CStringT@DV?$StrTraitMFC_DLL@DV?$ChTraitsCRT@D@ATL@@@@@ATL@@QAE@XZ
  001d2	8d 4d cc	 lea	 ecx, DWORD PTR _inData$[ebp+4]
  001d5	ff 15 00 00 00
	00		 call	 DWORD PTR __imp_??1?$CStringT@DV?$StrTraitMFC_DLL@DV?$ChTraitsCRT@D@ATL@@@@@ATL@@QAE@XZ

; 271  : 	}
; 272  : }

  001db	8b 4d f4	 mov	 ecx, DWORD PTR __$EHRec$[ebp]
  001de	64 89 0d 00 00
	00 00		 mov	 DWORD PTR fs:0, ecx
  001e5	59		 pop	 ecx
  001e6	5f		 pop	 edi
  001e7	5e		 pop	 esi
  001e8	5b		 pop	 ebx
  001e9	8b 4d f0	 mov	 ecx, DWORD PTR __$ArrayPad$[ebp]
  001ec	33 cd		 xor	 ecx, ebp
  001ee	e8 00 00 00 00	 call	 @__security_check_cookie@4
  001f3	8b e5		 mov	 esp, ebp
  001f5	5d		 pop	 ebp
  001f6	c3		 ret	 0
_TEXT	ENDS
;	COMDAT text$x
text$x	SEGMENT
__unwindfunclet$?InitTreeSearch@CTabStockDlg@@QAEXXZ$1:
  00000	8d 4d e0	 lea	 ecx, DWORD PTR _szClipFormat$3[ebp]
  00003	ff 25 00 00 00
	00		 jmp	 DWORD PTR __imp_??1?$CStringT@DV?$StrTraitMFC_DLL@DV?$ChTraitsCRT@D@ATL@@@@@ATL@@QAE@XZ
__unwindfunclet$?InitTreeSearch@CTabStockDlg@@QAEXXZ$3:
  00009	8d 4d cc	 lea	 ecx, DWORD PTR _inData$[ebp+4]
  0000c	ff 25 00 00 00
	00		 jmp	 DWORD PTR __imp_??1?$CStringT@DV?$StrTraitMFC_DLL@DV?$ChTraitsCRT@D@ATL@@@@@ATL@@QAE@XZ
__unwindfunclet$?InitTreeSearch@CTabStockDlg@@QAEXXZ$4:
  00012	8d 4d d0	 lea	 ecx, DWORD PTR _inData$[ebp+8]
  00015	ff 25 00 00 00
	00		 jmp	 DWORD PTR __imp_??1?$CStringT@DV?$StrTraitMFC_DLL@DV?$ChTraitsCRT@D@ATL@@@@@ATL@@QAE@XZ
__unwindfunclet$?InitTreeSearch@CTabStockDlg@@QAEXXZ$0:
  0001b	8d 4d c8	 lea	 ecx, DWORD PTR _inData$[ebp]
  0001e	e9 00 00 00 00	 jmp	 ??1CInputCodeListEx@@QAE@XZ
  00023	cc		 int	 3
  00024	cc		 int	 3
  00025	cc		 int	 3
  00026	cc		 int	 3
  00027	cc		 int	 3
__ehhandler$?InitTreeSearch@CTabStockDlg@@QAEXXZ:
  00028	90		 npad	 1
  00029	90		 npad	 1
  0002a	8b 54 24 08	 mov	 edx, DWORD PTR [esp+8]
  0002e	8d 42 0c	 lea	 eax, DWORD PTR [edx+12]
  00031	8b 4a c4	 mov	 ecx, DWORD PTR [edx-60]
  00034	33 c8		 xor	 ecx, eax
  00036	e8 00 00 00 00	 call	 @__security_check_cookie@4
  0003b	8b 4a fc	 mov	 ecx, DWORD PTR [edx-4]
  0003e	33 c8		 xor	 ecx, eax
  00040	e8 00 00 00 00	 call	 @__security_check_cookie@4
  00045	b8 00 00 00 00	 mov	 eax, OFFSET __ehfuncinfo$?InitTreeSearch@CTabStockDlg@@QAEXXZ
  0004a	e9 00 00 00 00	 jmp	 ___CxxFrameHandler3
text$x	ENDS
?InitTreeSearch@CTabStockDlg@@QAEXXZ ENDP		; CTabStockDlg::InitTreeSearch
; Function compile flags: /Ogtp
; File D:\git\src\IBK\IBK_DRFN\ProjSrc\SrcDrfn\Chart\comparechart\TabStockDlg.cpp
; File C:\Program Files (x86)\Microsoft Visual Studio\2019\Community\VC\Tools\MSVC\14.29.30133\atlmfc\include\afxcmn.inl
; File D:\git\src\IBK\IBK_DRFN\ProjSrc\SrcDrfn\Chart\comparechart\TabStockDlg.cpp
; File C:\Program Files (x86)\Microsoft Visual Studio\2019\Community\VC\Tools\MSVC\14.29.30133\atlmfc\include\afxtempl.h
; File D:\git\src\IBK\IBK_DRFN\ProjSrc\SrcDrfn\Chart\comparechart\TabStockDlg.cpp
; File C:\Program Files (x86)\Microsoft Visual Studio\2019\Community\VC\Tools\MSVC\14.29.30133\atlmfc\include\afxtempl.h
; File D:\git\src\IBK\IBK_DRFN\ProjSrc\SrcDrfn\Chart\comparechart\TabStockDlg.cpp
; File C:\Program Files (x86)\Microsoft Visual Studio\2019\Community\VC\Tools\MSVC\14.29.30133\atlmfc\include\afxtempl.h
; File C:\Program Files (x86)\Microsoft Visual Studio\2019\Community\VC\Tools\MSVC\14.29.30133\atlmfc\include\afxcmn.inl
; File D:\git\src\IBK\IBK_DRFN\ProjSrc\SrcDrfn\Chart\comparechart\TabStockDlg.cpp
; File C:\Program Files (x86)\Microsoft Visual Studio\2019\Community\VC\Tools\MSVC\14.29.30133\atlmfc\include\afxtempl.h
; File D:\git\src\IBK\IBK_DRFN\ProjSrc\SrcDrfn\Chart\comparechart\TabStockDlg.cpp
;	COMDAT ?ReceiveData@CTLMCallback@CTabStockDlg@@UAGXHDJHPAX@Z
_TEXT	SEGMENT
_TypeA$1 = -28						; size = 16
__ctlState$ = -12					; size = 8
_pThis$1$ = -4						; size = 4
_this$1$ = 8						; size = 4
_this$ = 8						; size = 4
_nRtnState$ = 12					; size = 4
_aDataType$ = 16					; size = 1
_dwReserved$ = 20					; size = 4
_nLength$ = 24						; size = 4
_pData$ = 28						; size = 4
?ReceiveData@CTLMCallback@CTabStockDlg@@UAGXHDJHPAX@Z PROC ; CTabStockDlg::CTLMCallback::ReceiveData, COMDAT

; 297  : {

  00000	55		 push	 ebp
  00001	8b ec		 mov	 ebp, esp
  00003	83 ec 1c	 sub	 esp, 28			; 0000001cH
  00006	53		 push	 ebx

; 298  : 	TRACE("CTabStockDlg::CTLMCallback::ReceiveData\n");
; 299  : 
; 300  : 	METHOD_PROLOGUE(CTabStockDlg, TLMCallback);

  00007	8b 5d 08	 mov	 ebx, DWORD PTR _this$[ebp]
  0000a	8d 4d f4	 lea	 ecx, DWORD PTR __ctlState$[ebp]
  0000d	81 c3 94 fb ff
	ff		 add	 ebx, -1132		; fffffb94H
  00013	56		 push	 esi
  00014	89 5d fc	 mov	 DWORD PTR _pThis$1$[ebp], ebx
  00017	ff 73 1c	 push	 DWORD PTR [ebx+28]
  0001a	e8 00 00 00 00	 call	 ??0AFX_MAINTAIN_STATE2@@QAE@PAVAFX_MODULE_STATE@@@Z ; AFX_MAINTAIN_STATE2::AFX_MAINTAIN_STATE2

; 301  : 	// pThis->
; 302  : 	LIST_CCodeTypeA *pListTypeA = (LIST_CCodeTypeA*)pData;
; 303  : 	if(pListTypeA)

  0001f	8b 75 1c	 mov	 esi, DWORD PTR _pData$[ebp]
  00022	85 f6		 test	 esi, esi
  00024	0f 84 18 01 00
	00		 je	 $LN5@ReceiveDat
; File C:\Program Files (x86)\Microsoft Visual Studio\2019\Community\VC\Tools\MSVC\14.29.30133\atlmfc\include\afxcmn.inl

; 171  : 	{ ASSERT(::IsWindow(m_hWnd)); return (BOOL) ::SendMessage(m_hWnd, LVM_DELETEALLITEMS, 0, 0L); }

  0002a	57		 push	 edi
  0002b	6a 00		 push	 0
  0002d	6a 00		 push	 0
  0002f	68 09 10 00 00	 push	 4105			; 00001009H
  00034	ff b3 78 01 00
	00		 push	 DWORD PTR [ebx+376]
  0003a	ff 15 00 00 00
	00		 call	 DWORD PTR __imp__SendMessageA@16
; File D:\git\src\IBK\IBK_DRFN\ProjSrc\SrcDrfn\Chart\comparechart\TabStockDlg.cpp

; 306  : 		pThis->fnRemovelistStockCode();

  00040	8b cb		 mov	 ecx, ebx
  00042	e8 00 00 00 00	 call	 ?fnRemovelistStockCode@CTabStockDlg@@QAEXXZ ; CTabStockDlg::fnRemovelistStockCode

; 319  : 		for(POSITION pos=pListTypeA->GetHeadPosition(); pos; )

  00047	8b 7e 04	 mov	 edi, DWORD PTR [esi+4]
  0004a	85 ff		 test	 edi, edi
  0004c	0f 84 d9 00 00
	00		 je	 $LN3@ReceiveDat
  00052	81 c3 60 02 00
	00		 add	 ebx, 608		; 00000260H
  00058	89 5d 08	 mov	 DWORD PTR _this$1$[ebp], ebx
  0005b	0f 1f 44 00 00	 npad	 5
$LL2@ReceiveDat:
; File C:\Program Files (x86)\Microsoft Visual Studio\2019\Community\VC\Tools\MSVC\14.29.30133\atlmfc\include\afxtempl.h

; 811  : 	{ CNode* pNode = (CNode*) rPosition;

  00060	8d 37		 lea	 esi, DWORD PTR [edi]

; 812  : 		ASSERT(AfxIsValidAddress(pNode, sizeof(CNode)));
; 813  : 		rPosition = (POSITION) pNode->pNext;

  00062	8b 3f		 mov	 edi, DWORD PTR [edi]
  00064	c7 45 e4 00 00
	00 00		 mov	 DWORD PTR _TypeA$1[ebp], OFFSET ??_7CCodeTypeBase@@6B@
  0006b	8d 4d ec	 lea	 ecx, DWORD PTR _TypeA$1[ebp+8]
  0006e	8a 46 0c	 mov	 al, BYTE PTR [esi+12]
  00071	88 45 e8	 mov	 BYTE PTR _TypeA$1[ebp+4], al
; File D:\git\src\IBK\IBK_DRFN\ProjSrc\SrcDrfn\Chart\comparechart\TabStockDlg.cpp

; 321  : 			CCodeTypeA TypeA = pListTypeA->GetNext(pos);

  00074	8d 46 10	 lea	 eax, DWORD PTR [esi+16]
  00077	50		 push	 eax
  00078	ff 15 00 00 00
	00		 call	 DWORD PTR __imp_??0?$CStringT@DV?$StrTraitMFC_DLL@DV?$ChTraitsCRT@D@ATL@@@@@ATL@@QAE@ABV01@@Z
  0007e	8d 46 14	 lea	 eax, DWORD PTR [esi+20]
  00081	50		 push	 eax
  00082	8d 4d f0	 lea	 ecx, DWORD PTR _TypeA$1[ebp+12]
  00085	ff 15 00 00 00
	00		 call	 DWORD PTR __imp_??0?$CStringT@DV?$StrTraitMFC_DLL@DV?$ChTraitsCRT@D@ATL@@@@@ATL@@QAE@ABV01@@Z

; 322  : 
; 323  : 			
; 324  : 			MASTERCODE* pData = new MASTERCODE;

  0008b	6a 0c		 push	 12			; 0000000cH
  0008d	c7 45 e4 00 00
	00 00		 mov	 DWORD PTR _TypeA$1[ebp], OFFSET ??_7CCodeTypeA@@6B@
  00094	e8 00 00 00 00	 call	 ??2@YAPAXI@Z		; operator new
  00099	8b f0		 mov	 esi, eax
  0009b	83 c4 04	 add	 esp, 4
  0009e	85 f6		 test	 esi, esi
  000a0	74 1c		 je	 SHORT $LN7@ReceiveDat
  000a2	8b ce		 mov	 ecx, esi
  000a4	ff 15 00 00 00
	00		 call	 DWORD PTR __imp_??0?$CStringT@DV?$StrTraitMFC_DLL@DV?$ChTraitsCRT@D@ATL@@@@@ATL@@QAE@XZ
  000aa	8d 4e 04	 lea	 ecx, DWORD PTR [esi+4]
  000ad	ff 15 00 00 00
	00		 call	 DWORD PTR __imp_??0?$CStringT@DV?$StrTraitMFC_DLL@DV?$ChTraitsCRT@D@ATL@@@@@ATL@@QAE@XZ
  000b3	8d 4e 08	 lea	 ecx, DWORD PTR [esi+8]
  000b6	ff 15 00 00 00
	00		 call	 DWORD PTR __imp_??0?$CStringT@DV?$StrTraitMFC_DLL@DV?$ChTraitsCRT@D@ATL@@@@@ATL@@QAE@XZ
  000bc	eb 02		 jmp	 SHORT $LN8@ReceiveDat
$LN7@ReceiveDat:
  000be	33 f6		 xor	 esi, esi
$LN8@ReceiveDat:

; 325  : 			pData->strCode = TypeA.m_szcode;

  000c0	8d 45 ec	 lea	 eax, DWORD PTR _TypeA$1[ebp+8]
  000c3	8b ce		 mov	 ecx, esi
  000c5	50		 push	 eax
  000c6	ff 15 00 00 00
	00		 call	 DWORD PTR __imp_??4?$CStringT@DV?$StrTraitMFC_DLL@DV?$ChTraitsCRT@D@ATL@@@@@ATL@@QAEAAV01@ABV01@@Z

; 326  : 			pData->strKor = TypeA.m_szhname;

  000cc	8d 45 f0	 lea	 eax, DWORD PTR _TypeA$1[ebp+12]
  000cf	50		 push	 eax
  000d0	8d 4e 04	 lea	 ecx, DWORD PTR [esi+4]
  000d3	ff 15 00 00 00
	00		 call	 DWORD PTR __imp_??4?$CStringT@DV?$StrTraitMFC_DLL@DV?$ChTraitsCRT@D@ATL@@@@@ATL@@QAEAAV01@ABV01@@Z

; 327  : 			pData->strEng = _T("");	

  000d9	68 00 00 00 00	 push	 OFFSET ??_C@_00CNPNBAHC@@
  000de	8d 4e 08	 lea	 ecx, DWORD PTR [esi+8]
  000e1	ff 15 00 00 00
	00		 call	 DWORD PTR __imp_??4?$CStringT@DV?$StrTraitMFC_DLL@DV?$ChTraitsCRT@D@ATL@@@@@ATL@@QAEAAV01@PBD@Z
; File C:\Program Files (x86)\Microsoft Visual Studio\2019\Community\VC\Tools\MSVC\14.29.30133\atlmfc\include\afxtempl.h

; 333  : 	{ INT_PTR nIndex = m_nSize;

  000e7	8b 5b 08	 mov	 ebx, DWORD PTR [ebx+8]

; 538  : 	if(nIndex < 0)

  000ea	85 db		 test	 ebx, ebx
  000ec	78 64		 js	 SHORT $LN37@ReceiveDat

; 540  : 
; 541  : 	if (nIndex >= m_nSize)
; 542  : 		SetSize(nIndex+1, -1);

  000ee	8b 4d 08	 mov	 ecx, DWORD PTR _this$1$[ebp]
  000f1	8d 43 01	 lea	 eax, DWORD PTR [ebx+1]
  000f4	6a ff		 push	 -1
  000f6	50		 push	 eax
  000f7	e8 00 00 00 00	 call	 ?SetSize@?$CArray@PAU__MASTERCODE@@PAU1@@@QAEXHH@Z ; CArray<__MASTERCODE *,__MASTERCODE *>::SetSize

; 543  : 	m_pData[nIndex] = newElement;

  000fc	8b 4d fc	 mov	 ecx, DWORD PTR _pThis$1$[ebp]
  000ff	8b 81 64 02 00
	00		 mov	 eax, DWORD PTR [ecx+612]
  00105	8d 4d f0	 lea	 ecx, DWORD PTR _TypeA$1[ebp+12]
  00108	89 34 98	 mov	 DWORD PTR [eax+ebx*4], esi
  0010b	ff 15 00 00 00
	00		 call	 DWORD PTR __imp_??1?$CStringT@DV?$StrTraitMFC_DLL@DV?$ChTraitsCRT@D@ATL@@@@@ATL@@QAE@XZ
  00111	8d 4d ec	 lea	 ecx, DWORD PTR _TypeA$1[ebp+8]
  00114	ff 15 00 00 00
	00		 call	 DWORD PTR __imp_??1?$CStringT@DV?$StrTraitMFC_DLL@DV?$ChTraitsCRT@D@ATL@@@@@ATL@@QAE@XZ
; File D:\git\src\IBK\IBK_DRFN\ProjSrc\SrcDrfn\Chart\comparechart\TabStockDlg.cpp

; 319  : 		for(POSITION pos=pListTypeA->GetHeadPosition(); pos; )

  0011a	8b 5d 08	 mov	 ebx, DWORD PTR _this$1$[ebp]
  0011d	85 ff		 test	 edi, edi
  0011f	0f 85 3b ff ff
	ff		 jne	 $LL2@ReceiveDat
; File C:\Program Files (x86)\Microsoft Visual Studio\2019\Community\VC\Tools\MSVC\14.29.30133\atlmfc\include\afxtempl.h

; 538  : 	if(nIndex < 0)

  00125	8b 5d fc	 mov	 ebx, DWORD PTR _pThis$1$[ebp]
  00128	8b 75 1c	 mov	 esi, DWORD PTR _pData$[ebp]
$LN3@ReceiveDat:
; File C:\Program Files (x86)\Microsoft Visual Studio\2019\Community\VC\Tools\MSVC\14.29.30133\atlmfc\include\afxcmn.inl

; 239  : 	{ ASSERT(::IsWindow(m_hWnd)); ::SendMessage(m_hWnd, LVM_SETITEMCOUNT, nItems, 0); }

  0012b	6a 00		 push	 0
  0012d	ff 76 0c	 push	 DWORD PTR [esi+12]
  00130	68 2f 10 00 00	 push	 4143			; 0000102fH
  00135	ff b3 78 01 00
	00		 push	 DWORD PTR [ebx+376]
  0013b	ff 15 00 00 00
	00		 call	 DWORD PTR __imp__SendMessageA@16
  00141	5f		 pop	 edi
$LN5@ReceiveDat:
; File D:\git\src\IBK\IBK_DRFN\ProjSrc\SrcDrfn\Chart\comparechart\TabStockDlg.cpp

; 336  : }

  00142	8d 4d f4	 lea	 ecx, DWORD PTR __ctlState$[ebp]
  00145	e8 00 00 00 00	 call	 ??1AFX_MAINTAIN_STATE2@@QAE@XZ ; AFX_MAINTAIN_STATE2::~AFX_MAINTAIN_STATE2
  0014a	5e		 pop	 esi
  0014b	5b		 pop	 ebx
  0014c	8b e5		 mov	 esp, ebp
  0014e	5d		 pop	 ebp
  0014f	c2 18 00	 ret	 24			; 00000018H
$LN37@ReceiveDat:
; File C:\Program Files (x86)\Microsoft Visual Studio\2019\Community\VC\Tools\MSVC\14.29.30133\atlmfc\include\afxtempl.h

; 539  : 		AfxThrowInvalidArgException();

  00152	e8 00 00 00 00	 call	 ?AfxThrowInvalidArgException@@YGXXZ ; AfxThrowInvalidArgException
$LN41@ReceiveDat:
  00157	cc		 int	 3
?ReceiveData@CTLMCallback@CTabStockDlg@@UAGXHDJHPAX@Z ENDP ; CTabStockDlg::CTLMCallback::ReceiveData
_TEXT	ENDS
; Function compile flags: /Ogtp
; File D:\git\src\IBK\IBK_DRFN\ProjSrc\SrcDrfn\Chart\comparechart\TabStockDlg.cpp
;	COMDAT ?GetMessageMap@CTabStockDlg@@MBEPBUAFX_MSGMAP@@XZ
_TEXT	SEGMENT
?GetMessageMap@CTabStockDlg@@MBEPBUAFX_MSGMAP@@XZ PROC	; CTabStockDlg::GetMessageMap, COMDAT
; _this$ = ecx

; 48   : BEGIN_MESSAGE_MAP(CTabStockDlg, CTabDlg)

  00000	b8 00 00 00 00	 mov	 eax, OFFSET ?messageMap@?1??GetThisMessageMap@CTabStockDlg@@KGPBUAFX_MSGMAP@@XZ@4U3@B
  00005	c3		 ret	 0
?GetMessageMap@CTabStockDlg@@MBEPBUAFX_MSGMAP@@XZ ENDP	; CTabStockDlg::GetMessageMap
_TEXT	ENDS
; Function compile flags: /Ogtp
; File D:\git\src\IBK\IBK_DRFN\ProjSrc\SrcDrfn\Chart\comparechart\TabStockDlg.cpp
;	COMDAT ?GetThisMessageMap@CTabStockDlg@@KGPBUAFX_MSGMAP@@XZ
_TEXT	SEGMENT
?GetThisMessageMap@CTabStockDlg@@KGPBUAFX_MSGMAP@@XZ PROC ; CTabStockDlg::GetThisMessageMap, COMDAT

; 49   : 	//{{AFX_MSG_MAP(CTabStockDlg)
; 50   : //	ON_BN_CLICKED(IDC_RADIO_ALL, OnRadioAll)
; 51   : //	ON_BN_CLICKED(IDC_RADIO_KOSPI, OnRadioKospi)
; 52   : //	ON_BN_CLICKED(IDC_RADIO_KOSDAQ, OnRadioKosdaq)
; 53   : 	//ON_EN_CHANGE(IDC_EDIT_STOCK, OnChangeEditStock)
; 54   : 	ON_WM_SIZE()
; 55   : 	ON_WM_DESTROY()
; 56   : 	ON_NOTIFY(TVN_SELCHANGED, IDC_TREESEARCH, OnSelchangedTreesearch)
; 57   : // 	ON_WM_CTLCOLOR()
; 58   : 	ON_BN_CLICKED(IDC_BTN_ADD, OnBtnAdd)
; 59   : 	ON_CBN_SELCHANGE(IDC_CTRL_CODEINPUT, OnSelchangeCodeInput)
; 60   : 	//}}AFX_MSG_MAP
; 61   : 
; 62   : 	//@Solomon-->
; 63   : 	ON_MESSAGE( WM_NOTIFY_LOAD		, OnWinixNotifyLoad)
; 64   : 	ON_MESSAGE( WM_NOTIFY_SAVE		, OnWinixNotifySave)
; 65   : 	ON_MESSAGE( WM_NOTIFY_GROUP		, OnWinixNotifyGroup)
; 66   : 	ON_MESSAGE( WM_NOTIFY_GROUPLIST	, OnWinixNotifyGroupList)
; 67   : 	ON_MESSAGE( WM_NOTIFY_SAVECODE	, OnWinixNotifySaveCode)
; 68   : 	//@Solomon<--
; 69   : 
; 70   : END_MESSAGE_MAP()

  00000	b8 00 00 00 00	 mov	 eax, OFFSET ?messageMap@?1??GetThisMessageMap@CTabStockDlg@@KGPBUAFX_MSGMAP@@XZ@4U3@B
  00005	c3		 ret	 0
?GetThisMessageMap@CTabStockDlg@@KGPBUAFX_MSGMAP@@XZ ENDP ; CTabStockDlg::GetThisMessageMap
_TEXT	ENDS
; Function compile flags: /Ogtp
; File D:\git\src\IBK\IBK_DRFN\ProjSrc\SrcDrfn\Chart\comparechart\TabStockDlg.cpp
; File C:\Program Files (x86)\Microsoft Visual Studio\2019\Community\VC\Tools\MSVC\14.29.30133\atlmfc\include\atlsimpstr.h
; File D:\git\src\IBK\IBK_DRFN\ProjSrc\SrcDrfn\Chart\comparechart\TabStockDlg.cpp
; File C:\Program Files (x86)\Microsoft Visual Studio\2019\Community\VC\Tools\MSVC\14.29.30133\atlmfc\include\atlsimpstr.h
; File D:\git\src\IBK\IBK_DRFN\ProjSrc\SrcDrfn\Chart\comparechart\TabStockDlg.cpp
; File C:\Program Files (x86)\Microsoft Visual Studio\2019\Community\VC\Tools\MSVC\14.29.30133\atlmfc\include\atlsimpstr.h
; File C:\Program Files (x86)\Microsoft Visual Studio\2019\Community\VC\Tools\MSVC\14.29.30133\atlmfc\include\cstringt.h
; File D:\git\src\IBK\IBK_DRFN\ProjSrc\SrcDrfn\Chart\comparechart\TabStockDlg.cpp
; File C:\Program Files (x86)\Microsoft Visual Studio\2019\Community\VC\Tools\MSVC\14.29.30133\atlmfc\include\afxwin2.inl
; File D:\git\src\IBK\IBK_DRFN\ProjSrc\SrcDrfn\Chart\comparechart\TabStockDlg.cpp
;	COMDAT ?OnBtnAdd@CTabStockDlg@@IAEXXZ
_TEXT	SEGMENT
_strName$ = -24						; size = 4
_strData$ = -20						; size = 4
_strCode$ = -16						; size = 4
__$EHRec$ = -12						; size = 12
?OnBtnAdd@CTabStockDlg@@IAEXXZ PROC			; CTabStockDlg::OnBtnAdd, COMDAT
; _this$ = ecx

; 410  : {

  00000	55		 push	 ebp
  00001	8b ec		 mov	 ebp, esp
  00003	6a ff		 push	 -1
  00005	68 00 00 00 00	 push	 __ehhandler$?OnBtnAdd@CTabStockDlg@@IAEXXZ
  0000a	64 a1 00 00 00
	00		 mov	 eax, DWORD PTR fs:0
  00010	50		 push	 eax
  00011	83 ec 10	 sub	 esp, 16			; 00000010H
  00014	56		 push	 esi
  00015	57		 push	 edi
  00016	a1 00 00 00 00	 mov	 eax, DWORD PTR ___security_cookie
  0001b	33 c5		 xor	 eax, ebp
  0001d	50		 push	 eax
  0001e	8d 45 f4	 lea	 eax, DWORD PTR __$EHRec$[ebp]
  00021	64 a3 00 00 00
	00		 mov	 DWORD PTR fs:0, eax
  00027	8b f1		 mov	 esi, ecx

; 411  : 	CString strCode = m_pCodeInput->GetCode();

  00029	8b 8e 60 04 00
	00		 mov	 ecx, DWORD PTR [esi+1120]
  0002f	8d 55 f0	 lea	 edx, DWORD PTR _strCode$[ebp]
  00032	52		 push	 edx
  00033	8b 01		 mov	 eax, DWORD PTR [ecx]
  00035	ff 90 84 01 00
	00		 call	 DWORD PTR [eax+388]

; 412  : 	CString strName = ((CStdDialog*)m_pCompareChartWnd)->GetItemNameFromItemCode(strCode);

  0003b	6a 01		 push	 1
  0003d	51		 push	 ecx
  0003e	8d 45 f0	 lea	 eax, DWORD PTR _strCode$[ebp]
  00041	c7 45 fc 00 00
	00 00		 mov	 DWORD PTR __$EHRec$[ebp+8], 0
  00048	8b cc		 mov	 ecx, esp
  0004a	50		 push	 eax
  0004b	ff 15 00 00 00
	00		 call	 DWORD PTR __imp_??0?$CStringT@DV?$StrTraitMFC_DLL@DV?$ChTraitsCRT@D@ATL@@@@@ATL@@QAE@ABV01@@Z
  00051	8b 8e c4 00 00
	00		 mov	 ecx, DWORD PTR [esi+196]
  00057	8d 45 e8	 lea	 eax, DWORD PTR _strName$[ebp]
  0005a	50		 push	 eax
  0005b	e8 00 00 00 00	 call	 ?GetItemNameFromItemCode@CStdDialog@@QAE?AV?$CStringT@DV?$StrTraitMFC_DLL@DV?$ChTraitsCRT@D@ATL@@@@@ATL@@V23@H@Z ; CStdDialog::GetItemNameFromItemCode

; 413  : 
; 414  : 	strCode.TrimLeft();

  00060	8d 4d f0	 lea	 ecx, DWORD PTR _strCode$[ebp]
  00063	c6 45 fc 01	 mov	 BYTE PTR __$EHRec$[ebp+8], 1
  00067	ff 15 00 00 00
	00		 call	 DWORD PTR __imp_?TrimLeft@?$CStringT@DV?$StrTraitMFC_DLL@DV?$ChTraitsCRT@D@ATL@@@@@ATL@@QAEAAV12@XZ

; 415  : 	strCode.TrimRight();

  0006d	8d 4d f0	 lea	 ecx, DWORD PTR _strCode$[ebp]
  00070	ff 15 00 00 00
	00		 call	 DWORD PTR __imp_?TrimRight@?$CStringT@DV?$StrTraitMFC_DLL@DV?$ChTraitsCRT@D@ATL@@@@@ATL@@QAEAAV12@XZ
; File C:\Program Files (x86)\Microsoft Visual Studio\2019\Community\VC\Tools\MSVC\14.29.30133\atlmfc\include\atlsimpstr.h

; 519  : 		return( GetData()->nDataLength );

  00076	8b 45 f0	 mov	 eax, DWORD PTR _strCode$[ebp]

; 533  : 		return( GetLength() == 0 );

  00079	83 78 f4 00	 cmp	 DWORD PTR [eax-12], 0
; File D:\git\src\IBK\IBK_DRFN\ProjSrc\SrcDrfn\Chart\comparechart\TabStockDlg.cpp

; 416  : 	if(strCode.IsEmpty() || strName.IsEmpty()) return;

  0007d	0f 84 85 00 00
	00		 je	 $LN3@OnBtnAdd
; File C:\Program Files (x86)\Microsoft Visual Studio\2019\Community\VC\Tools\MSVC\14.29.30133\atlmfc\include\atlsimpstr.h

; 519  : 		return( GetData()->nDataLength );

  00083	8b 45 e8	 mov	 eax, DWORD PTR _strName$[ebp]

; 533  : 		return( GetLength() == 0 );

  00086	83 78 f4 00	 cmp	 DWORD PTR [eax-12], 0
; File D:\git\src\IBK\IBK_DRFN\ProjSrc\SrcDrfn\Chart\comparechart\TabStockDlg.cpp

; 416  : 	if(strCode.IsEmpty() || strName.IsEmpty()) return;

  0008a	74 7c		 je	 SHORT $LN3@OnBtnAdd

; 417  : 
; 418  : 	CString strData;

  0008c	8d 4d ec	 lea	 ecx, DWORD PTR _strData$[ebp]
  0008f	ff 15 00 00 00
	00		 call	 DWORD PTR __imp_??0?$CStringT@DV?$StrTraitMFC_DLL@DV?$ChTraitsCRT@D@ATL@@@@@ATL@@QAE@XZ

; 419  : 	strData.Format("%s|%s", strName, strCode);

  00095	ff 75 f0	 push	 DWORD PTR _strCode$[ebp]
  00098	8d 45 ec	 lea	 eax, DWORD PTR _strData$[ebp]
  0009b	c6 45 fc 02	 mov	 BYTE PTR __$EHRec$[ebp+8], 2
  0009f	ff 75 e8	 push	 DWORD PTR _strName$[ebp]
  000a2	68 00 00 00 00	 push	 OFFSET ??_C@_05LMFDOBNM@?$CFs?$HM?$CFs@
  000a7	50		 push	 eax
  000a8	ff 15 00 00 00
	00		 call	 DWORD PTR __imp_?Format@?$CStringT@DV?$StrTraitMFC_DLL@DV?$ChTraitsCRT@D@ATL@@@@@ATL@@QAAXPBDZZ
  000ae	83 c4 10	 add	 esp, 16			; 00000010H
; File C:\Program Files (x86)\Microsoft Visual Studio\2019\Community\VC\Tools\MSVC\14.29.30133\atlmfc\include\atlsimpstr.h

; 377  : 		return( m_pszData );

  000b1	8d be 74 04 00
	00		 lea	 edi, DWORD PTR [esi+1140]
; File C:\Program Files (x86)\Microsoft Visual Studio\2019\Community\VC\Tools\MSVC\14.29.30133\atlmfc\include\cstringt.h

; 2560 : 		return( str1.Compare( str2 ) != 0 );

  000b7	8d 4d ec	 lea	 ecx, DWORD PTR _strData$[ebp]
  000ba	ff 37		 push	 DWORD PTR [edi]
  000bc	ff 15 00 00 00
	00		 call	 DWORD PTR __imp_?Compare@?$CStringT@DV?$StrTraitMFC_DLL@DV?$ChTraitsCRT@D@ATL@@@@@ATL@@QBEHPBD@Z
  000c2	85 c0		 test	 eax, eax
; File D:\git\src\IBK\IBK_DRFN\ProjSrc\SrcDrfn\Chart\comparechart\TabStockDlg.cpp

; 420  : 	if(strData != m_strCodeNName)

  000c4	74 39		 je	 SHORT $LN4@OnBtnAdd

; 421  : 	{
; 422  : 		m_strCodeNName = strData;

  000c6	8d 45 ec	 lea	 eax, DWORD PTR _strData$[ebp]
  000c9	8b cf		 mov	 ecx, edi
  000cb	50		 push	 eax
  000cc	ff 15 00 00 00
	00		 call	 DWORD PTR __imp_??4?$CStringT@DV?$StrTraitMFC_DLL@DV?$ChTraitsCRT@D@ATL@@@@@ATL@@QAEAAV01@ABV01@@Z
; File C:\Program Files (x86)\Microsoft Visual Studio\2019\Community\VC\Tools\MSVC\14.29.30133\atlmfc\include\afxwin2.inl

; 213  : 	{ ASSERT(::IsWindow(m_hWnd)); return CWnd::FromHandle(::GetParent(m_hWnd)); }

  000d2	ff 76 20	 push	 DWORD PTR [esi+32]
  000d5	8b 35 00 00 00
	00		 mov	 esi, DWORD PTR __imp__GetParent@4
  000db	ff d6		 call	 esi
  000dd	50		 push	 eax
  000de	e8 00 00 00 00	 call	 ?FromHandle@CWnd@@SGPAV1@PAUHWND__@@@Z ; CWnd::FromHandle
  000e3	ff 70 20	 push	 DWORD PTR [eax+32]
  000e6	ff d6		 call	 esi
  000e8	50		 push	 eax
  000e9	e8 00 00 00 00	 call	 ?FromHandle@CWnd@@SGPAV1@PAUHWND__@@@Z ; CWnd::FromHandle

; 32   : 	{ ASSERT(::IsWindow(m_hWnd)); return ::SendMessage(m_hWnd, message, wParam, lParam); }

  000ee	57		 push	 edi
  000ef	6a 00		 push	 0
  000f1	68 5b 04 00 00	 push	 1115			; 0000045bH
  000f6	ff 70 20	 push	 DWORD PTR [eax+32]
  000f9	ff 15 00 00 00
	00		 call	 DWORD PTR __imp__SendMessageA@16
$LN4@OnBtnAdd:
; File D:\git\src\IBK\IBK_DRFN\ProjSrc\SrcDrfn\Chart\comparechart\TabStockDlg.cpp

; 425  : }

  000ff	8d 4d ec	 lea	 ecx, DWORD PTR _strData$[ebp]
  00102	ff 15 00 00 00
	00		 call	 DWORD PTR __imp_??1?$CStringT@DV?$StrTraitMFC_DLL@DV?$ChTraitsCRT@D@ATL@@@@@ATL@@QAE@XZ
$LN3@OnBtnAdd:
  00108	8d 4d e8	 lea	 ecx, DWORD PTR _strName$[ebp]
  0010b	ff 15 00 00 00
	00		 call	 DWORD PTR __imp_??1?$CStringT@DV?$StrTraitMFC_DLL@DV?$ChTraitsCRT@D@ATL@@@@@ATL@@QAE@XZ
  00111	8d 4d f0	 lea	 ecx, DWORD PTR _strCode$[ebp]
  00114	ff 15 00 00 00
	00		 call	 DWORD PTR __imp_??1?$CStringT@DV?$StrTraitMFC_DLL@DV?$ChTraitsCRT@D@ATL@@@@@ATL@@QAE@XZ
  0011a	8b 4d f4	 mov	 ecx, DWORD PTR __$EHRec$[ebp]
  0011d	64 89 0d 00 00
	00 00		 mov	 DWORD PTR fs:0, ecx
  00124	59		 pop	 ecx
  00125	5f		 pop	 edi
  00126	5e		 pop	 esi
  00127	8b e5		 mov	 esp, ebp
  00129	5d		 pop	 ebp
  0012a	c3		 ret	 0
_TEXT	ENDS
;	COMDAT text$x
text$x	SEGMENT
__unwindfunclet$?OnBtnAdd@CTabStockDlg@@IAEXXZ$0:
  00000	8d 4d f0	 lea	 ecx, DWORD PTR _strCode$[ebp]
  00003	ff 25 00 00 00
	00		 jmp	 DWORD PTR __imp_??1?$CStringT@DV?$StrTraitMFC_DLL@DV?$ChTraitsCRT@D@ATL@@@@@ATL@@QAE@XZ
__unwindfunclet$?OnBtnAdd@CTabStockDlg@@IAEXXZ$2:
  00009	8d 4d e8	 lea	 ecx, DWORD PTR _strName$[ebp]
  0000c	ff 25 00 00 00
	00		 jmp	 DWORD PTR __imp_??1?$CStringT@DV?$StrTraitMFC_DLL@DV?$ChTraitsCRT@D@ATL@@@@@ATL@@QAE@XZ
__unwindfunclet$?OnBtnAdd@CTabStockDlg@@IAEXXZ$3:
  00012	8d 4d ec	 lea	 ecx, DWORD PTR _strData$[ebp]
  00015	ff 25 00 00 00
	00		 jmp	 DWORD PTR __imp_??1?$CStringT@DV?$StrTraitMFC_DLL@DV?$ChTraitsCRT@D@ATL@@@@@ATL@@QAE@XZ
  0001b	cc		 int	 3
  0001c	cc		 int	 3
  0001d	cc		 int	 3
  0001e	cc		 int	 3
  0001f	cc		 int	 3
__ehhandler$?OnBtnAdd@CTabStockDlg@@IAEXXZ:
  00020	90		 npad	 1
  00021	90		 npad	 1
  00022	8b 54 24 08	 mov	 edx, DWORD PTR [esp+8]
  00026	8d 42 0c	 lea	 eax, DWORD PTR [edx+12]
  00029	8b 4a e4	 mov	 ecx, DWORD PTR [edx-28]
  0002c	33 c8		 xor	 ecx, eax
  0002e	e8 00 00 00 00	 call	 @__security_check_cookie@4
  00033	b8 00 00 00 00	 mov	 eax, OFFSET __ehfuncinfo$?OnBtnAdd@CTabStockDlg@@IAEXXZ
  00038	e9 00 00 00 00	 jmp	 ___CxxFrameHandler3
text$x	ENDS
?OnBtnAdd@CTabStockDlg@@IAEXXZ ENDP			; CTabStockDlg::OnBtnAdd
; Function compile flags: /Ogtp
; File D:\git\src\IBK\IBK_DRFN\ProjSrc\SrcDrfn\Chart\comparechart\TabStockDlg.cpp
;	COMDAT ?OnSelchangeCodeInput@CTabStockDlg@@IAEXXZ
_TEXT	SEGMENT
?OnSelchangeCodeInput@CTabStockDlg@@IAEXXZ PROC		; CTabStockDlg::OnSelchangeCodeInput, COMDAT
; _this$ = ecx

; 483  : 	OnBtnAdd();

  00000	e9 00 00 00 00	 jmp	 ?OnBtnAdd@CTabStockDlg@@IAEXXZ ; CTabStockDlg::OnBtnAdd
?OnSelchangeCodeInput@CTabStockDlg@@IAEXXZ ENDP		; CTabStockDlg::OnSelchangeCodeInput
_TEXT	ENDS
; Function compile flags: /Ogtp
; File D:\git\src\IBK\IBK_DRFN\ProjSrc\SrcDrfn\Chart\comparechart\TabStockDlg.cpp
; File C:\Program Files (x86)\Microsoft Visual Studio\2019\Community\VC\Tools\MSVC\14.29.30133\atlmfc\include\afxcmn.inl
; File D:\git\src\IBK\IBK_DRFN\ProjSrc\SrcDrfn\Chart\comparechart\TabStockDlg.cpp
; File C:\Program Files (x86)\Microsoft Visual Studio\2019\Community\VC\Tools\MSVC\14.29.30133\atlmfc\include\afxwin2.inl
; File D:\git\src\IBK\IBK_DRFN\ProjSrc\SrcDrfn\Chart\comparechart\TabStockDlg.cpp
; File C:\Program Files (x86)\Microsoft Visual Studio\2019\Community\VC\Tools\MSVC\14.29.30133\atlmfc\include\afxwin2.inl
; File D:\git\src\IBK\IBK_DRFN\ProjSrc\SrcDrfn\Chart\comparechart\TabStockDlg.cpp
;	COMDAT ?OnSelchangedTreesearch@CTabStockDlg@@IAEXPAUtagNMHDR@@PAJ@Z
_TEXT	SEGMENT
_arrCode$2 = -60					; size = 20
_arrName$3 = -40					; size = 20
_pMultiChartWnd$1$ = -20				; size = 4
_szInputData$4 = -16					; size = 4
__$EHRec$ = -12						; size = 12
_pNMHDR$ = 8						; size = 4
_pResult$ = 12						; size = 4
?OnSelchangedTreesearch@CTabStockDlg@@IAEXPAUtagNMHDR@@PAJ@Z PROC ; CTabStockDlg::OnSelchangedTreesearch, COMDAT
; _this$ = ecx

; 339  : {

  00000	55		 push	 ebp
  00001	8b ec		 mov	 ebp, esp
  00003	6a ff		 push	 -1
  00005	68 00 00 00 00	 push	 __ehhandler$?OnSelchangedTreesearch@CTabStockDlg@@IAEXPAUtagNMHDR@@PAJ@Z
  0000a	64 a1 00 00 00
	00		 mov	 eax, DWORD PTR fs:0
  00010	50		 push	 eax
  00011	83 ec 30	 sub	 esp, 48			; 00000030H
  00014	53		 push	 ebx
  00015	56		 push	 esi
  00016	57		 push	 edi
  00017	a1 00 00 00 00	 mov	 eax, DWORD PTR ___security_cookie
  0001c	33 c5		 xor	 eax, ebp
  0001e	50		 push	 eax
  0001f	8d 45 f4	 lea	 eax, DWORD PTR __$EHRec$[ebp]
  00022	64 a3 00 00 00
	00		 mov	 DWORD PTR fs:0, eax
  00028	8b f9		 mov	 edi, ecx
; File C:\Program Files (x86)\Microsoft Visual Studio\2019\Community\VC\Tools\MSVC\14.29.30133\atlmfc\include\afxcmn.inl

; 316  : 	{ ASSERT(::IsWindow(m_hWnd)); return (HTREEITEM)::SendMessage(m_hWnd, TVM_GETNEXTITEM, TVGN_CARET, 0); }

  0002a	6a 00		 push	 0
  0002c	6a 09		 push	 9
  0002e	68 0a 11 00 00	 push	 4362			; 0000110aH
  00033	ff b7 a0 02 00
	00		 push	 DWORD PTR [edi+672]
  00039	ff 15 00 00 00
	00		 call	 DWORD PTR __imp__SendMessageA@16
; File D:\git\src\IBK\IBK_DRFN\ProjSrc\SrcDrfn\Chart\comparechart\TabStockDlg.cpp

; 343  : 	if(hItem == NULL)

  0003f	85 c0		 test	 eax, eax
  00041	0f 84 32 01 00
	00		 je	 $LN1@OnSelchang

; 344  : 		return;
; 345  : 
; 346  : 	CItemLongData* pLData = (CItemLongData*)m_treeSearch.GetItemData(hItem);

  00047	50		 push	 eax
  00048	8d 8f 80 02 00
	00		 lea	 ecx, DWORD PTR [edi+640]
  0004e	e8 00 00 00 00	 call	 ?GetItemData@CTreeCtrl@@QBEKPAU_TREEITEM@@@Z ; CTreeCtrl::GetItemData
  00053	8b d8		 mov	 ebx, eax

; 347  : 	if(pLData)

  00055	85 db		 test	 ebx, ebx
  00057	0f 84 13 01 00
	00		 je	 $LN3@OnSelchang

; 348  : 	{
; 349  : 		TRACE("Title[%s], Sub[%s], Method[%s]\n", pLData->m_szTitle, pLData->m_szSub, pLData->m_szMethod);
; 350  : 		CString szInputData = pLData->m_szInputData;

  0005d	8d 4b 14	 lea	 ecx, DWORD PTR [ebx+20]
  00060	51		 push	 ecx
  00061	8d 4d f0	 lea	 ecx, DWORD PTR _szInputData$4[ebp]
  00064	ff 15 00 00 00
	00		 call	 DWORD PTR __imp_??0?$CStringT@DV?$StrTraitMFC_DLL@DV?$ChTraitsCRT@D@ATL@@@@@ATL@@QAE@ABV01@@Z

; 351  : 		//@Solomon  .
; 352  : 		if(szInputData.Find("DRFNGWAN:")==0)

  0006a	6a 00		 push	 0
  0006c	68 00 00 00 00	 push	 OFFSET ??_C@_09MICNPEAJ@DRFNGWAN?3@
  00071	8d 4d f0	 lea	 ecx, DWORD PTR _szInputData$4[ebp]
  00074	c7 45 fc 00 00
	00 00		 mov	 DWORD PTR __$EHRec$[ebp+8], 0
  0007b	ff 15 00 00 00
	00		 call	 DWORD PTR __imp_?Find@?$CStringT@DV?$StrTraitMFC_DLL@DV?$ChTraitsCRT@D@ATL@@@@@ATL@@QBEHPBDH@Z
  00081	85 c0		 test	 eax, eax
  00083	75 5e		 jne	 SHORT $LN4@OnSelchang

; 353  : 		{
; 354  : 			int nSize = strlen("DRFNGWAN:");
; 355  : 			if(m_pGwanMng)

  00085	39 87 a4 04 00
	00		 cmp	 DWORD PTR [edi+1188], eax
  0008b	0f 84 d6 00 00
	00		 je	 $LN7@OnSelchang

; 356  : 			{
; 357  : 				CStringArray arrCode, arrName;

  00091	8d 4d c4	 lea	 ecx, DWORD PTR _arrCode$2[ebp]
  00094	e8 00 00 00 00	 call	 ??0CStringArray@@QAE@XZ	; CStringArray::CStringArray
  00099	8d 4d d8	 lea	 ecx, DWORD PTR _arrName$3[ebp]
  0009c	c6 45 fc 01	 mov	 BYTE PTR __$EHRec$[ebp+8], 1
  000a0	e8 00 00 00 00	 call	 ??0CStringArray@@QAE@XZ	; CStringArray::CStringArray

; 358  : 				m_pGwanMng->GetGwansimItem(szInputData.Mid(nSize, 2), arrCode, arrName);

  000a5	8d 45 d8	 lea	 eax, DWORD PTR _arrName$3[ebp]
  000a8	c6 45 fc 02	 mov	 BYTE PTR __$EHRec$[ebp+8], 2
  000ac	50		 push	 eax
  000ad	8d 45 c4	 lea	 eax, DWORD PTR _arrCode$2[ebp]
  000b0	50		 push	 eax
  000b1	51		 push	 ecx
  000b2	8b c4		 mov	 eax, esp
  000b4	8d 4d f0	 lea	 ecx, DWORD PTR _szInputData$4[ebp]
  000b7	6a 02		 push	 2
  000b9	6a 09		 push	 9
  000bb	50		 push	 eax
  000bc	ff 15 00 00 00
	00		 call	 DWORD PTR __imp_?Mid@?$CStringT@DV?$StrTraitMFC_DLL@DV?$ChTraitsCRT@D@ATL@@@@@ATL@@QBE?AV12@HH@Z
  000c2	8b 87 a4 04 00
	00		 mov	 eax, DWORD PTR [edi+1188]
  000c8	50		 push	 eax
  000c9	8b 08		 mov	 ecx, DWORD PTR [eax]
  000cb	ff 51 10	 call	 DWORD PTR [ecx+16]

; 359  : 			}

  000ce	8d 4d d8	 lea	 ecx, DWORD PTR _arrName$3[ebp]
  000d1	e8 00 00 00 00	 call	 ??1CStringArray@@UAE@XZ	; CStringArray::~CStringArray
  000d6	8d 4d c4	 lea	 ecx, DWORD PTR _arrCode$2[ebp]
  000d9	e8 00 00 00 00	 call	 ??1CStringArray@@UAE@XZ	; CStringArray::~CStringArray

; 360  : 		}

  000de	e9 84 00 00 00	 jmp	 $LN7@OnSelchang
$LN4@OnSelchang:

; 361  : 		else
; 362  : 		{
; 363  : 			long dwReserved=0;
; 364  : 			if(m_pTreeListMng)

  000e3	83 bf 68 04 00
	00 00		 cmp	 DWORD PTR [edi+1128], 0
  000ea	74 7b		 je	 SHORT $LN7@OnSelchang
; File C:\Program Files (x86)\Microsoft Visual Studio\2019\Community\VC\Tools\MSVC\14.29.30133\atlmfc\include\afxwin2.inl

; 213  : 	{ ASSERT(::IsWindow(m_hWnd)); return CWnd::FromHandle(::GetParent(m_hWnd)); }

  000ec	ff 77 20	 push	 DWORD PTR [edi+32]
  000ef	8b 35 00 00 00
	00		 mov	 esi, DWORD PTR __imp__GetParent@4
  000f5	ff d6		 call	 esi
  000f7	50		 push	 eax
  000f8	e8 00 00 00 00	 call	 ?FromHandle@CWnd@@SGPAV1@PAUHWND__@@@Z ; CWnd::FromHandle
  000fd	ff 70 20	 push	 DWORD PTR [eax+32]
  00100	ff d6		 call	 esi
  00102	50		 push	 eax
  00103	e8 00 00 00 00	 call	 ?FromHandle@CWnd@@SGPAV1@PAUHWND__@@@Z ; CWnd::FromHandle
  00108	ff 70 20	 push	 DWORD PTR [eax+32]
  0010b	ff d6		 call	 esi
  0010d	50		 push	 eax
  0010e	e8 00 00 00 00	 call	 ?FromHandle@CWnd@@SGPAV1@PAUHWND__@@@Z ; CWnd::FromHandle
; File D:\git\src\IBK\IBK_DRFN\ProjSrc\SrcDrfn\Chart\comparechart\TabStockDlg.cpp

; 366  : 				CStdDialog* pMultiChartWnd = (CStdDialog*)GetParent()->GetParent()->GetParent();

  00113	89 45 ec	 mov	 DWORD PTR _pMultiChartWnd$1$[ebp], eax
; File C:\Program Files (x86)\Microsoft Visual Studio\2019\Community\VC\Tools\MSVC\14.29.30133\atlmfc\include\afxwin2.inl

; 213  : 	{ ASSERT(::IsWindow(m_hWnd)); return CWnd::FromHandle(::GetParent(m_hWnd)); }

  00116	ff 70 20	 push	 DWORD PTR [eax+32]
  00119	ff d6		 call	 esi
  0011b	50		 push	 eax
  0011c	e8 00 00 00 00	 call	 ?FromHandle@CWnd@@SGPAV1@PAUHWND__@@@Z ; CWnd::FromHandle
  00121	ff 70 20	 push	 DWORD PTR [eax+32]
  00124	ff d6		 call	 esi
  00126	50		 push	 eax
  00127	e8 00 00 00 00	 call	 ?FromHandle@CWnd@@SGPAV1@PAUHWND__@@@Z ; CWnd::FromHandle

; 25   : 	{ return this == NULL ? NULL : m_hWnd; }

  0012c	85 c0		 test	 eax, eax
  0012e	75 04		 jne	 SHORT $LN27@OnSelchang
  00130	33 d2		 xor	 edx, edx
  00132	eb 03		 jmp	 SHORT $LN28@OnSelchang
$LN27@OnSelchang:
  00134	8b 50 20	 mov	 edx, DWORD PTR [eax+32]
$LN28@OnSelchang:
; File D:\git\src\IBK\IBK_DRFN\ProjSrc\SrcDrfn\Chart\comparechart\TabStockDlg.cpp

; 367  : 				m_pTreeListMng->SetSendKey(pMultiChartWnd->m_hPlatform, pMultiChartWnd->GetParent()->GetParent()->GetSafeHwnd());

  00137	8b 87 68 04 00
	00		 mov	 eax, DWORD PTR [edi+1128]
  0013d	52		 push	 edx
  0013e	8b 55 ec	 mov	 edx, DWORD PTR _pMultiChartWnd$1$[ebp]
  00141	8b 08		 mov	 ecx, DWORD PTR [eax]
  00143	ff b2 d8 02 00
	00		 push	 DWORD PTR [edx+728]
  00149	50		 push	 eax
  0014a	ff 51 44	 call	 DWORD PTR [ecx+68]

; 368  : 				m_pTreeListMng->RequestData(pLData, &m_xTLMCallback, 'A', '1', dwReserved);

  0014d	8b 8f 68 04 00
	00		 mov	 ecx, DWORD PTR [edi+1128]
  00153	8d 87 6c 04 00
	00		 lea	 eax, DWORD PTR [edi+1132]
  00159	6a 00		 push	 0
  0015b	6a 31		 push	 49			; 00000031H
  0015d	6a 41		 push	 65			; 00000041H
  0015f	8b 11		 mov	 edx, DWORD PTR [ecx]
  00161	50		 push	 eax
  00162	53		 push	 ebx
  00163	51		 push	 ecx
  00164	ff 52 10	 call	 DWORD PTR [edx+16]
$LN7@OnSelchang:

; 369  : 			}
; 370  : 		}
; 371  : 	}

  00167	8d 4d f0	 lea	 ecx, DWORD PTR _szInputData$4[ebp]
  0016a	ff 15 00 00 00
	00		 call	 DWORD PTR __imp_??1?$CStringT@DV?$StrTraitMFC_DLL@DV?$ChTraitsCRT@D@ATL@@@@@ATL@@QAE@XZ
$LN3@OnSelchang:

; 372  : 
; 373  : 	*pResult = 0;

  00170	8b 45 0c	 mov	 eax, DWORD PTR _pResult$[ebp]
  00173	c7 00 00 00 00
	00		 mov	 DWORD PTR [eax], 0
$LN1@OnSelchang:

; 374  : }

  00179	8b 4d f4	 mov	 ecx, DWORD PTR __$EHRec$[ebp]
  0017c	64 89 0d 00 00
	00 00		 mov	 DWORD PTR fs:0, ecx
  00183	59		 pop	 ecx
  00184	5f		 pop	 edi
  00185	5e		 pop	 esi
  00186	5b		 pop	 ebx
  00187	8b e5		 mov	 esp, ebp
  00189	5d		 pop	 ebp
  0018a	c2 08 00	 ret	 8
_TEXT	ENDS
;	COMDAT text$x
text$x	SEGMENT
__unwindfunclet$?OnSelchangedTreesearch@CTabStockDlg@@IAEXPAUtagNMHDR@@PAJ@Z$0:
  00000	8d 4d f0	 lea	 ecx, DWORD PTR _szInputData$4[ebp]
  00003	ff 25 00 00 00
	00		 jmp	 DWORD PTR __imp_??1?$CStringT@DV?$StrTraitMFC_DLL@DV?$ChTraitsCRT@D@ATL@@@@@ATL@@QAE@XZ
__unwindfunclet$?OnSelchangedTreesearch@CTabStockDlg@@IAEXPAUtagNMHDR@@PAJ@Z$1:
  00009	8d 4d c4	 lea	 ecx, DWORD PTR _arrCode$2[ebp]
  0000c	e9 00 00 00 00	 jmp	 ??1CStringArray@@UAE@XZ	; CStringArray::~CStringArray
__unwindfunclet$?OnSelchangedTreesearch@CTabStockDlg@@IAEXPAUtagNMHDR@@PAJ@Z$2:
  00011	8d 4d d8	 lea	 ecx, DWORD PTR _arrName$3[ebp]
  00014	e9 00 00 00 00	 jmp	 ??1CStringArray@@UAE@XZ	; CStringArray::~CStringArray
  00019	cc		 int	 3
  0001a	cc		 int	 3
  0001b	cc		 int	 3
  0001c	cc		 int	 3
  0001d	cc		 int	 3
__ehhandler$?OnSelchangedTreesearch@CTabStockDlg@@IAEXPAUtagNMHDR@@PAJ@Z:
  0001e	90		 npad	 1
  0001f	90		 npad	 1
  00020	8b 54 24 08	 mov	 edx, DWORD PTR [esp+8]
  00024	8d 42 0c	 lea	 eax, DWORD PTR [edx+12]
  00027	8b 4a c0	 mov	 ecx, DWORD PTR [edx-64]
  0002a	33 c8		 xor	 ecx, eax
  0002c	e8 00 00 00 00	 call	 @__security_check_cookie@4
  00031	b8 00 00 00 00	 mov	 eax, OFFSET __ehfuncinfo$?OnSelchangedTreesearch@CTabStockDlg@@IAEXPAUtagNMHDR@@PAJ@Z
  00036	e9 00 00 00 00	 jmp	 ___CxxFrameHandler3
text$x	ENDS
?OnSelchangedTreesearch@CTabStockDlg@@IAEXPAUtagNMHDR@@PAJ@Z ENDP ; CTabStockDlg::OnSelchangedTreesearch
; Function compile flags: /Ogtp
; File D:\git\src\IBK\IBK_DRFN\ProjSrc\SrcDrfn\Chart\comparechart\TabStockDlg.cpp
;	COMDAT ?OnDestroy@CTabStockDlg@@IAEXXZ
_TEXT	SEGMENT
?OnDestroy@CTabStockDlg@@IAEXXZ PROC			; CTabStockDlg::OnDestroy, COMDAT
; _this$ = ecx

; 275  : {

  00000	56		 push	 esi
  00001	8b f1		 mov	 esi, ecx

; 465  : 	if(m_pGwanMng)

  00003	8b 8e a4 04 00
	00		 mov	 ecx, DWORD PTR [esi+1188]
  00009	85 c9		 test	 ecx, ecx
  0000b	74 10		 je	 SHORT $LN8@OnDestroy

; 466  : 	{
; 467  : 		m_pGwanMng->UnAdvise();

  0000d	8b 01		 mov	 eax, DWORD PTR [ecx]
  0000f	51		 push	 ecx
  00010	ff 50 04	 call	 DWORD PTR [eax+4]

; 468  : 		m_pGwanMng = NULL;

  00013	c7 86 a4 04 00
	00 00 00 00 00	 mov	 DWORD PTR [esi+1188], 0
$LN8@OnDestroy:

; 276  : 	UnAdviseGwansim();
; 277  : 	fnRemovelistStockCode();

  0001d	8b ce		 mov	 ecx, esi
  0001f	e8 00 00 00 00	 call	 ?fnRemovelistStockCode@CTabStockDlg@@QAEXXZ ; CTabStockDlg::fnRemovelistStockCode

; 278  : 	if(m_pTreeListMng)

  00024	8b 8e 68 04 00
	00		 mov	 ecx, DWORD PTR [esi+1128]
  0002a	85 c9		 test	 ecx, ecx
  0002c	74 16		 je	 SHORT $LN2@OnDestroy

; 279  : 	{
; 280  : 		m_pTreeListMng->UnLoadTreeList(m_dwTreeKey);

  0002e	ff b6 70 04 00
	00		 push	 DWORD PTR [esi+1136]
  00034	8b 01		 mov	 eax, DWORD PTR [ecx]
  00036	51		 push	 ecx
  00037	ff 50 0c	 call	 DWORD PTR [eax+12]

; 281  : 		m_pTreeListMng = NULL;

  0003a	c7 86 68 04 00
	00 00 00 00 00	 mov	 DWORD PTR [esi+1128], 0
$LN2@OnDestroy:

; 282  : 	}
; 283  : 	if(m_pCodeInput) delete m_pCodeInput; m_pCodeInput=NULL;

  00044	8b 8e 60 04 00
	00		 mov	 ecx, DWORD PTR [esi+1120]
  0004a	85 c9		 test	 ecx, ecx
  0004c	74 07		 je	 SHORT $LN5@OnDestroy
  0004e	8b 01		 mov	 eax, DWORD PTR [ecx]
  00050	6a 01		 push	 1
  00052	ff 50 04	 call	 DWORD PTR [eax+4]
$LN5@OnDestroy:
  00055	c7 86 60 04 00
	00 00 00 00 00	 mov	 DWORD PTR [esi+1120], 0

; 284  : 
; 285  : 	CTabDlg::OnDestroy();

  0005f	8b ce		 mov	 ecx, esi
  00061	5e		 pop	 esi
  00062	e9 00 00 00 00	 jmp	 ?OnDestroy@CTabDlg@@IAEXXZ ; CTabDlg::OnDestroy
?OnDestroy@CTabStockDlg@@IAEXXZ ENDP			; CTabStockDlg::OnDestroy
_TEXT	ENDS
; Function compile flags: /Ogtp
; File D:\git\src\IBK\IBK_DRFN\ProjSrc\SrcDrfn\Chart\comparechart\TabStockDlg.cpp
; File C:\Program Files (x86)\Microsoft Visual Studio\2019\Community\VC\Tools\MSVC\14.29.30133\atlmfc\include\afxwin2.inl
; File D:\git\src\IBK\IBK_DRFN\ProjSrc\SrcDrfn\Chart\comparechart\TabStockDlg.cpp
; File C:\Program Files (x86)\Microsoft Visual Studio\2019\Community\VC\Tools\MSVC\14.29.30133\atlmfc\include\afxwin2.inl
; File D:\git\src\IBK\IBK_DRFN\ProjSrc\SrcDrfn\Chart\comparechart\TabStockDlg.cpp
; File C:\Program Files (x86)\Microsoft Visual Studio\2019\Community\VC\Tools\MSVC\14.29.30133\atlmfc\include\afxwin2.inl
; File C:\Program Files (x86)\Microsoft Visual Studio\2019\Community\VC\Tools\MSVC\14.29.30133\atlmfc\include\atltypes.h
; File C:\Program Files (x86)\Microsoft Visual Studio\2019\Community\VC\Tools\MSVC\14.29.30133\atlmfc\include\afxwin2.inl
; File D:\git\src\IBK\IBK_DRFN\ProjSrc\SrcDrfn\Chart\comparechart\TabStockDlg.cpp
; File C:\Program Files (x86)\Microsoft Visual Studio\2019\Community\VC\Tools\MSVC\14.29.30133\atlmfc\include\afxwin2.inl
; File D:\git\src\IBK\IBK_DRFN\ProjSrc\SrcDrfn\Chart\comparechart\TabStockDlg.cpp
; File C:\Program Files (x86)\Microsoft Visual Studio\2019\Community\VC\Tools\MSVC\14.29.30133\atlmfc\include\afxwin2.inl
; File D:\git\src\IBK\IBK_DRFN\ProjSrc\SrcDrfn\Chart\comparechart\TabStockDlg.cpp
; File C:\Program Files (x86)\Microsoft Visual Studio\2019\Community\VC\Tools\MSVC\14.29.30133\atlmfc\include\afxwin2.inl
; File D:\git\src\IBK\IBK_DRFN\ProjSrc\SrcDrfn\Chart\comparechart\TabStockDlg.cpp
; File C:\Program Files (x86)\Microsoft Visual Studio\2019\Community\VC\Tools\MSVC\14.29.30133\atlmfc\include\afxwin2.inl
; File D:\git\src\IBK\IBK_DRFN\ProjSrc\SrcDrfn\Chart\comparechart\TabStockDlg.cpp
; File C:\Program Files (x86)\Microsoft Visual Studio\2019\Community\VC\Tools\MSVC\14.29.30133\atlmfc\include\afxwin2.inl
; File D:\git\src\IBK\IBK_DRFN\ProjSrc\SrcDrfn\Chart\comparechart\TabStockDlg.cpp
; File C:\Program Files (x86)\Microsoft Visual Studio\2019\Community\VC\Tools\MSVC\14.29.30133\atlmfc\include\afxwin2.inl
; File D:\git\src\IBK\IBK_DRFN\ProjSrc\SrcDrfn\Chart\comparechart\TabStockDlg.cpp
; File C:\Program Files (x86)\Microsoft Visual Studio\2019\Community\VC\Tools\MSVC\14.29.30133\atlmfc\include\afxwin2.inl
; File C:\Program Files (x86)\Microsoft Visual Studio\2019\Community\VC\Tools\MSVC\14.29.30133\atlmfc\include\atltypes.h
; File C:\Program Files (x86)\Microsoft Visual Studio\2019\Community\VC\Tools\MSVC\14.29.30133\atlmfc\include\afxwin2.inl
; File D:\git\src\IBK\IBK_DRFN\ProjSrc\SrcDrfn\Chart\comparechart\TabStockDlg.cpp
; File C:\Program Files (x86)\Microsoft Visual Studio\2019\Community\VC\Tools\MSVC\14.29.30133\atlmfc\include\afxwin2.inl
; File D:\git\src\IBK\IBK_DRFN\ProjSrc\SrcDrfn\Chart\comparechart\TabStockDlg.cpp
; File C:\Program Files (x86)\Microsoft Visual Studio\2019\Community\VC\Tools\MSVC\14.29.30133\atlmfc\include\afxwin2.inl
; File D:\git\src\IBK\IBK_DRFN\ProjSrc\SrcDrfn\Chart\comparechart\TabStockDlg.cpp
; File C:\Program Files (x86)\Microsoft Visual Studio\2019\Community\VC\Tools\MSVC\14.29.30133\atlmfc\include\afxwin2.inl
; File D:\git\src\IBK\IBK_DRFN\ProjSrc\SrcDrfn\Chart\comparechart\TabStockDlg.cpp
; File C:\Program Files (x86)\Microsoft Visual Studio\2019\Community\VC\Tools\MSVC\14.29.30133\atlmfc\include\afxwin2.inl
; File D:\git\src\IBK\IBK_DRFN\ProjSrc\SrcDrfn\Chart\comparechart\TabStockDlg.cpp
; File C:\Program Files (x86)\Microsoft Visual Studio\2019\Community\VC\Tools\MSVC\14.29.30133\atlmfc\include\afxwin2.inl
; File D:\git\src\IBK\IBK_DRFN\ProjSrc\SrcDrfn\Chart\comparechart\TabStockDlg.cpp
; File C:\Program Files (x86)\Microsoft Visual Studio\2019\Community\VC\Tools\MSVC\14.29.30133\atlmfc\include\afxwin2.inl
; File D:\git\src\IBK\IBK_DRFN\ProjSrc\SrcDrfn\Chart\comparechart\TabStockDlg.cpp
;	COMDAT ?OnSize@CTabStockDlg@@IAEXIHH@Z
_TEXT	SEGMENT
_rect$1 = -36						; size = 16
_rect$2 = -36						; size = 16
_rect2$3 = -20						; size = 16
_rect2$4 = -20						; size = 16
__$ArrayPad$ = -4					; size = 4
_nType$ = 8						; size = 4
_cx$ = 12						; size = 4
_cy$ = 16						; size = 4
?OnSize@CTabStockDlg@@IAEXIHH@Z PROC			; CTabStockDlg::OnSize, COMDAT
; _this$ = ecx

; 226  : {

  00000	55		 push	 ebp
  00001	8b ec		 mov	 ebp, esp
  00003	83 ec 24	 sub	 esp, 36			; 00000024H
  00006	a1 00 00 00 00	 mov	 eax, DWORD PTR ___security_cookie
  0000b	33 c5		 xor	 eax, ebp
  0000d	89 45 fc	 mov	 DWORD PTR __$ArrayPad$[ebp], eax
  00010	53		 push	 ebx
  00011	56		 push	 esi
  00012	57		 push	 edi
  00013	8b f9		 mov	 edi, ecx
; File C:\Program Files (x86)\Microsoft Visual Studio\2019\Community\VC\Tools\MSVC\14.29.30133\atlmfc\include\afxwin2.inl

; 330  : 	{ Default(); }

  00015	e8 00 00 00 00	 call	 ?Default@CWnd@@IAEJXZ	; CWnd::Default

; 25   : 	{ return this == NULL ? NULL : m_hWnd; }

  0001a	a1 00 00 00 00	 mov	 eax, DWORD PTR __imp__GetClientRect@8
; File D:\git\src\IBK\IBK_DRFN\ProjSrc\SrcDrfn\Chart\comparechart\TabStockDlg.cpp

; 229  : 	if(m_treeSearch.GetSafeHwnd())

  0001f	8d 9f 80 02 00
	00		 lea	 ebx, DWORD PTR [edi+640]
; File C:\Program Files (x86)\Microsoft Visual Studio\2019\Community\VC\Tools\MSVC\14.29.30133\atlmfc\include\afxwin2.inl

; 25   : 	{ return this == NULL ? NULL : m_hWnd; }

  00025	8b 35 00 00 00
	00		 mov	 esi, DWORD PTR __imp__GetWindowRect@8
  0002b	85 db		 test	 ebx, ebx
  0002d	74 60		 je	 SHORT $LN2@OnSize
; File D:\git\src\IBK\IBK_DRFN\ProjSrc\SrcDrfn\Chart\comparechart\TabStockDlg.cpp

; 229  : 	if(m_treeSearch.GetSafeHwnd())

  0002f	83 7b 20 00	 cmp	 DWORD PTR [ebx+32], 0
  00033	74 5a		 je	 SHORT $LN2@OnSize
; File C:\Program Files (x86)\Microsoft Visual Studio\2019\Community\VC\Tools\MSVC\14.29.30133\atlmfc\include\afxwin2.inl

; 86   : 	{ ASSERT(::IsWindow(m_hWnd)); ::GetClientRect(m_hWnd, lpRect); }

  00035	8d 4d dc	 lea	 ecx, DWORD PTR _rect$2[ebp]
  00038	0f 57 c0	 xorps	 xmm0, xmm0
  0003b	51		 push	 ecx
  0003c	ff 77 20	 push	 DWORD PTR [edi+32]
; File C:\Program Files (x86)\Microsoft Visual Studio\2019\Community\VC\Tools\MSVC\14.29.30133\atlmfc\include\atltypes.h

; 528  : 	left = 0;

  0003f	0f 11 45 dc	 movups	 XMMWORD PTR _rect$2[ebp], xmm0
  00043	0f 11 45 ec	 movups	 XMMWORD PTR _rect2$4[ebp], xmm0
; File C:\Program Files (x86)\Microsoft Visual Studio\2019\Community\VC\Tools\MSVC\14.29.30133\atlmfc\include\afxwin2.inl

; 86   : 	{ ASSERT(::IsWindow(m_hWnd)); ::GetClientRect(m_hWnd, lpRect); }

  00047	ff d0		 call	 eax

; 84   : 	{ ASSERT(::IsWindow(m_hWnd)); ::GetWindowRect(m_hWnd, lpRect); }

  00049	8d 45 ec	 lea	 eax, DWORD PTR _rect2$4[ebp]
  0004c	50		 push	 eax
  0004d	ff b7 a0 02 00
	00		 push	 DWORD PTR [edi+672]
  00053	ff d6		 call	 esi
; File D:\git\src\IBK\IBK_DRFN\ProjSrc\SrcDrfn\Chart\comparechart\TabStockDlg.cpp

; 235  : 		ScreenToClient(rect2);

  00055	8d 45 ec	 lea	 eax, DWORD PTR _rect2$4[ebp]
  00058	8b cf		 mov	 ecx, edi
  0005a	50		 push	 eax
  0005b	e8 00 00 00 00	 call	 ?ScreenToClient@CWnd@@QBEXPAUtagRECT@@@Z ; CWnd::ScreenToClient
; File C:\Program Files (x86)\Microsoft Visual Studio\2019\Community\VC\Tools\MSVC\14.29.30133\atlmfc\include\afxwin2.inl

; 73   : 	{ MoveWindow(lpRect->left, lpRect->top, lpRect->right - lpRect->left,

  00060	8b 4d f0	 mov	 ecx, DWORD PTR _rect2$4[ebp+4]
; File D:\git\src\IBK\IBK_DRFN\ProjSrc\SrcDrfn\Chart\comparechart\TabStockDlg.cpp

; 236  : 		rect2.left = rect.left + 1;

  00063	8b 75 dc	 mov	 esi, DWORD PTR _rect$2[ebp]
; File C:\Program Files (x86)\Microsoft Visual Studio\2019\Community\VC\Tools\MSVC\14.29.30133\atlmfc\include\afxwin2.inl

; 73   : 	{ MoveWindow(lpRect->left, lpRect->top, lpRect->right - lpRect->left,

  00066	8b 45 f8	 mov	 eax, DWORD PTR _rect2$4[ebp+12]
; File D:\git\src\IBK\IBK_DRFN\ProjSrc\SrcDrfn\Chart\comparechart\TabStockDlg.cpp

; 236  : 		rect2.left = rect.left + 1;

  00069	46		 inc	 esi

; 237  : 		rect2.right = rect.right;

  0006a	8b 55 e4	 mov	 edx, DWORD PTR _rect$2[ebp+8]
; File C:\Program Files (x86)\Microsoft Visual Studio\2019\Community\VC\Tools\MSVC\14.29.30133\atlmfc\include\afxwin2.inl

; 73   : 	{ MoveWindow(lpRect->left, lpRect->top, lpRect->right - lpRect->left,

  0006d	2b c1		 sub	 eax, ecx
  0006f	6a 01		 push	 1
  00071	50		 push	 eax
; File D:\git\src\IBK\IBK_DRFN\ProjSrc\SrcDrfn\Chart\comparechart\TabStockDlg.cpp

; 237  : 		rect2.right = rect.right;

  00072	89 55 f4	 mov	 DWORD PTR _rect2$4[ebp+8], edx
; File C:\Program Files (x86)\Microsoft Visual Studio\2019\Community\VC\Tools\MSVC\14.29.30133\atlmfc\include\afxwin2.inl

; 73   : 	{ MoveWindow(lpRect->left, lpRect->top, lpRect->right - lpRect->left,

  00075	2b d6		 sub	 edx, esi
  00077	52		 push	 edx
  00078	51		 push	 ecx
  00079	56		 push	 esi
  0007a	8b cb		 mov	 ecx, ebx
; File D:\git\src\IBK\IBK_DRFN\ProjSrc\SrcDrfn\Chart\comparechart\TabStockDlg.cpp

; 236  : 		rect2.left = rect.left + 1;

  0007c	89 75 ec	 mov	 DWORD PTR _rect2$4[ebp], esi
; File C:\Program Files (x86)\Microsoft Visual Studio\2019\Community\VC\Tools\MSVC\14.29.30133\atlmfc\include\afxwin2.inl

; 73   : 	{ MoveWindow(lpRect->left, lpRect->top, lpRect->right - lpRect->left,

  0007f	e8 00 00 00 00	 call	 ?MoveWindow@CWnd@@QAEXHHHHH@Z ; CWnd::MoveWindow
  00084	a1 00 00 00 00	 mov	 eax, DWORD PTR __imp__GetClientRect@8
  00089	8b 35 00 00 00
	00		 mov	 esi, DWORD PTR __imp__GetWindowRect@8
$LN2@OnSize:
; File D:\git\src\IBK\IBK_DRFN\ProjSrc\SrcDrfn\Chart\comparechart\TabStockDlg.cpp

; 241  : 	if(m_listStockCode.GetSafeHwnd())

  0008f	8d 9f 58 01 00
	00		 lea	 ebx, DWORD PTR [edi+344]
; File C:\Program Files (x86)\Microsoft Visual Studio\2019\Community\VC\Tools\MSVC\14.29.30133\atlmfc\include\afxwin2.inl

; 25   : 	{ return this == NULL ? NULL : m_hWnd; }

  00095	85 db		 test	 ebx, ebx
  00097	74 58		 je	 SHORT $LN3@OnSize
; File D:\git\src\IBK\IBK_DRFN\ProjSrc\SrcDrfn\Chart\comparechart\TabStockDlg.cpp

; 241  : 	if(m_listStockCode.GetSafeHwnd())

  00099	83 7b 20 00	 cmp	 DWORD PTR [ebx+32], 0
  0009d	74 52		 je	 SHORT $LN3@OnSize
; File C:\Program Files (x86)\Microsoft Visual Studio\2019\Community\VC\Tools\MSVC\14.29.30133\atlmfc\include\afxwin2.inl

; 86   : 	{ ASSERT(::IsWindow(m_hWnd)); ::GetClientRect(m_hWnd, lpRect); }

  0009f	8d 4d dc	 lea	 ecx, DWORD PTR _rect$1[ebp]
  000a2	0f 57 c0	 xorps	 xmm0, xmm0
  000a5	51		 push	 ecx
  000a6	ff 77 20	 push	 DWORD PTR [edi+32]
; File C:\Program Files (x86)\Microsoft Visual Studio\2019\Community\VC\Tools\MSVC\14.29.30133\atlmfc\include\atltypes.h

; 528  : 	left = 0;

  000a9	0f 11 45 dc	 movups	 XMMWORD PTR _rect$1[ebp], xmm0
  000ad	0f 11 45 ec	 movups	 XMMWORD PTR _rect2$3[ebp], xmm0
; File C:\Program Files (x86)\Microsoft Visual Studio\2019\Community\VC\Tools\MSVC\14.29.30133\atlmfc\include\afxwin2.inl

; 86   : 	{ ASSERT(::IsWindow(m_hWnd)); ::GetClientRect(m_hWnd, lpRect); }

  000b1	ff d0		 call	 eax

; 84   : 	{ ASSERT(::IsWindow(m_hWnd)); ::GetWindowRect(m_hWnd, lpRect); }

  000b3	8d 45 ec	 lea	 eax, DWORD PTR _rect2$3[ebp]
  000b6	50		 push	 eax
  000b7	ff b7 78 01 00
	00		 push	 DWORD PTR [edi+376]
  000bd	ff d6		 call	 esi
; File D:\git\src\IBK\IBK_DRFN\ProjSrc\SrcDrfn\Chart\comparechart\TabStockDlg.cpp

; 247  : 		ScreenToClient(rect2);

  000bf	8d 45 ec	 lea	 eax, DWORD PTR _rect2$3[ebp]
  000c2	8b cf		 mov	 ecx, edi
  000c4	50		 push	 eax
  000c5	e8 00 00 00 00	 call	 ?ScreenToClient@CWnd@@QBEXPAUtagRECT@@@Z ; CWnd::ScreenToClient

; 250  : 		rect2.bottom = rect.bottom; 

  000ca	8b 45 e8	 mov	 eax, DWORD PTR _rect$1[ebp+12]
; File C:\Program Files (x86)\Microsoft Visual Studio\2019\Community\VC\Tools\MSVC\14.29.30133\atlmfc\include\afxwin2.inl

; 73   : 	{ MoveWindow(lpRect->left, lpRect->top, lpRect->right - lpRect->left,

  000cd	8b cb		 mov	 ecx, ebx
; File D:\git\src\IBK\IBK_DRFN\ProjSrc\SrcDrfn\Chart\comparechart\TabStockDlg.cpp

; 248  : 		rect2.left = rect.left + 1;

  000cf	8b 7d dc	 mov	 edi, DWORD PTR _rect$1[ebp]
; File C:\Program Files (x86)\Microsoft Visual Studio\2019\Community\VC\Tools\MSVC\14.29.30133\atlmfc\include\afxwin2.inl

; 73   : 	{ MoveWindow(lpRect->left, lpRect->top, lpRect->right - lpRect->left,

  000d2	8b 55 f0	 mov	 edx, DWORD PTR _rect2$3[ebp+4]
; File D:\git\src\IBK\IBK_DRFN\ProjSrc\SrcDrfn\Chart\comparechart\TabStockDlg.cpp

; 248  : 		rect2.left = rect.left + 1;

  000d5	47		 inc	 edi

; 249  : 		rect2.right = rect.right;

  000d6	8b 75 e4	 mov	 esi, DWORD PTR _rect$1[ebp+8]
; File C:\Program Files (x86)\Microsoft Visual Studio\2019\Community\VC\Tools\MSVC\14.29.30133\atlmfc\include\afxwin2.inl

; 73   : 	{ MoveWindow(lpRect->left, lpRect->top, lpRect->right - lpRect->left,

  000d9	6a 01		 push	 1
; File D:\git\src\IBK\IBK_DRFN\ProjSrc\SrcDrfn\Chart\comparechart\TabStockDlg.cpp

; 250  : 		rect2.bottom = rect.bottom; 

  000db	89 45 f8	 mov	 DWORD PTR _rect2$3[ebp+12], eax
; File C:\Program Files (x86)\Microsoft Visual Studio\2019\Community\VC\Tools\MSVC\14.29.30133\atlmfc\include\afxwin2.inl

; 73   : 	{ MoveWindow(lpRect->left, lpRect->top, lpRect->right - lpRect->left,

  000de	2b c2		 sub	 eax, edx
  000e0	50		 push	 eax
; File D:\git\src\IBK\IBK_DRFN\ProjSrc\SrcDrfn\Chart\comparechart\TabStockDlg.cpp

; 249  : 		rect2.right = rect.right;

  000e1	89 75 f4	 mov	 DWORD PTR _rect2$3[ebp+8], esi
; File C:\Program Files (x86)\Microsoft Visual Studio\2019\Community\VC\Tools\MSVC\14.29.30133\atlmfc\include\afxwin2.inl

; 73   : 	{ MoveWindow(lpRect->left, lpRect->top, lpRect->right - lpRect->left,

  000e4	2b f7		 sub	 esi, edi
  000e6	56		 push	 esi
  000e7	52		 push	 edx
  000e8	57		 push	 edi
; File D:\git\src\IBK\IBK_DRFN\ProjSrc\SrcDrfn\Chart\comparechart\TabStockDlg.cpp

; 248  : 		rect2.left = rect.left + 1;

  000e9	89 7d ec	 mov	 DWORD PTR _rect2$3[ebp], edi
; File C:\Program Files (x86)\Microsoft Visual Studio\2019\Community\VC\Tools\MSVC\14.29.30133\atlmfc\include\afxwin2.inl

; 73   : 	{ MoveWindow(lpRect->left, lpRect->top, lpRect->right - lpRect->left,

  000ec	e8 00 00 00 00	 call	 ?MoveWindow@CWnd@@QAEXHHHHH@Z ; CWnd::MoveWindow
$LN3@OnSize:
; File D:\git\src\IBK\IBK_DRFN\ProjSrc\SrcDrfn\Chart\comparechart\TabStockDlg.cpp

; 253  : }

  000f1	8b 4d fc	 mov	 ecx, DWORD PTR __$ArrayPad$[ebp]
  000f4	5f		 pop	 edi
  000f5	5e		 pop	 esi
  000f6	33 cd		 xor	 ecx, ebp
  000f8	5b		 pop	 ebx
  000f9	e8 00 00 00 00	 call	 @__security_check_cookie@4
  000fe	8b e5		 mov	 esp, ebp
  00100	5d		 pop	 ebp
  00101	c2 0c 00	 ret	 12			; 0000000cH
?OnSize@CTabStockDlg@@IAEXIHH@Z ENDP			; CTabStockDlg::OnSize
_TEXT	ENDS
; Function compile flags: /Ogtp
; File D:\git\src\IBK\IBK_DRFN\ProjSrc\SrcDrfn\Chart\comparechart\TabStockDlg.cpp
; File C:\Program Files (x86)\Microsoft Visual Studio\2019\Community\VC\Tools\MSVC\14.29.30133\atlmfc\include\afx.inl
; File D:\git\src\IBK\IBK_DRFN\ProjSrc\SrcDrfn\Chart\comparechart\TabStockDlg.cpp
; File C:\Program Files (x86)\Microsoft Visual Studio\2019\Community\VC\Tools\MSVC\14.29.30133\atlmfc\include\afxwin2.inl
; File D:\git\src\IBK\IBK_DRFN\ProjSrc\SrcDrfn\Chart\comparechart\TabStockDlg.cpp
; File C:\Program Files (x86)\Microsoft Visual Studio\2019\Community\VC\Tools\MSVC\14.29.30133\atlmfc\include\atltypes.h
; File D:\git\src\IBK\IBK_DRFN\ProjSrc\SrcDrfn\Chart\comparechart\TabStockDlg.cpp
; File C:\Program Files (x86)\Microsoft Visual Studio\2019\Community\VC\Tools\MSVC\14.29.30133\atlmfc\include\afxwin2.inl
; File D:\git\src\IBK\IBK_DRFN\ProjSrc\SrcDrfn\Chart\comparechart\TabStockDlg.cpp
; File C:\Program Files (x86)\Microsoft Visual Studio\2019\Community\VC\Tools\MSVC\14.29.30133\atlmfc\include\afxwin2.inl
; File D:\git\src\IBK\IBK_DRFN\ProjSrc\SrcDrfn\Chart\comparechart\TabStockDlg.cpp
; File C:\Program Files (x86)\Microsoft Visual Studio\2019\Community\VC\Tools\MSVC\14.29.30133\atlmfc\include\afxwin2.inl
; File D:\git\src\IBK\IBK_DRFN\ProjSrc\SrcDrfn\Chart\comparechart\TabStockDlg.cpp
; File C:\Program Files (x86)\Microsoft Visual Studio\2019\Community\VC\Tools\MSVC\14.29.30133\atlmfc\include\atltypes.h
; File D:\git\src\IBK\IBK_DRFN\ProjSrc\SrcDrfn\Chart\comparechart\TabStockDlg.cpp
; File C:\Program Files (x86)\Microsoft Visual Studio\2019\Community\VC\Tools\MSVC\14.29.30133\atlmfc\include\atltypes.h
; File D:\git\src\IBK\IBK_DRFN\ProjSrc\SrcDrfn\Chart\comparechart\TabStockDlg.cpp
; File C:\Program Files (x86)\Microsoft Visual Studio\2019\Community\VC\Tools\MSVC\14.29.30133\atlmfc\include\atltypes.h
; File D:\git\src\IBK\IBK_DRFN\ProjSrc\SrcDrfn\Chart\comparechart\TabStockDlg.cpp
; File C:\Program Files (x86)\Microsoft Visual Studio\2019\Community\VC\Tools\MSVC\14.29.30133\atlmfc\include\afxwin2.inl
; File D:\git\src\IBK\IBK_DRFN\ProjSrc\SrcDrfn\Chart\comparechart\TabStockDlg.cpp
; File C:\Program Files (x86)\Microsoft Visual Studio\2019\Community\VC\Tools\MSVC\14.29.30133\atlmfc\include\afxwin2.inl
; File D:\git\src\IBK\IBK_DRFN\ProjSrc\SrcDrfn\Chart\comparechart\TabStockDlg.cpp
; File C:\Program Files (x86)\Microsoft Visual Studio\2019\Community\VC\Tools\MSVC\14.29.30133\atlmfc\include\afxwin2.inl
; File D:\git\src\IBK\IBK_DRFN\ProjSrc\SrcDrfn\Chart\comparechart\TabStockDlg.cpp
; File C:\Program Files (x86)\Microsoft Visual Studio\2019\Community\VC\Tools\MSVC\14.29.30133\atlmfc\include\afxwin2.inl
; File D:\git\src\IBK\IBK_DRFN\ProjSrc\SrcDrfn\Chart\comparechart\TabStockDlg.cpp
;	COMDAT ?OnInitDialog@CTabStockDlg@@MAEHXZ
_TEXT	SEGMENT
_hPlatform$1$ = -64					; size = 4
_szKey$2 = -60						; size = 4
_pStdParent$1$ = -56					; size = 4
$T3 = -56						; size = 4
_hOnUser$1$ = -52					; size = 4
_this$GSCopy$1$ = -52					; size = 4
_ctlRect$4 = -48					; size = 16
$T5 = -32						; size = 16
_rectComp$6 = -32					; size = 16
__$ArrayPad$ = -16					; size = 4
__$EHRec$ = -12						; size = 12
?OnInitDialog@CTabStockDlg@@MAEHXZ PROC			; CTabStockDlg::OnInitDialog, COMDAT
; _this$ = ecx

; 96   : {

  00000	55		 push	 ebp
  00001	8b ec		 mov	 ebp, esp
  00003	6a ff		 push	 -1
  00005	68 00 00 00 00	 push	 __ehhandler$?OnInitDialog@CTabStockDlg@@MAEHXZ
  0000a	64 a1 00 00 00
	00		 mov	 eax, DWORD PTR fs:0
  00010	50		 push	 eax
  00011	83 ec 34	 sub	 esp, 52			; 00000034H
  00014	a1 00 00 00 00	 mov	 eax, DWORD PTR ___security_cookie
  00019	33 c5		 xor	 eax, ebp
  0001b	89 45 f0	 mov	 DWORD PTR __$ArrayPad$[ebp], eax
  0001e	56		 push	 esi
  0001f	57		 push	 edi
  00020	50		 push	 eax
  00021	8d 45 f4	 lea	 eax, DWORD PTR __$EHRec$[ebp]
  00024	64 a3 00 00 00
	00		 mov	 DWORD PTR fs:0, eax
  0002a	8b f9		 mov	 edi, ecx
  0002c	89 7d cc	 mov	 DWORD PTR _this$GSCopy$1$[ebp], edi

; 97   : 	CTabDlg::OnInitDialog();

  0002f	e8 00 00 00 00	 call	 ?OnInitDialog@CTabDlg@@MAEHXZ ; CTabDlg::OnInitDialog
; File C:\Program Files (x86)\Microsoft Visual Studio\2019\Community\VC\Tools\MSVC\14.29.30133\atlmfc\include\afx.inl

; 116  : 	{ return ::operator new(nSize); }

  00034	68 a8 02 00 00	 push	 680			; 000002a8H
  00039	e8 00 00 00 00	 call	 ??2@YAPAXI@Z		; operator new
  0003e	83 c4 04	 add	 esp, 4
; File D:\git\src\IBK\IBK_DRFN\ProjSrc\SrcDrfn\Chart\comparechart\TabStockDlg.cpp

; 99   : 	m_pCodeInput = new CCodeCtrl(GetParent()->GetParent()->GetParent()->GetParent());

  00041	89 45 c8	 mov	 DWORD PTR $T3[ebp], eax
  00044	8b 35 00 00 00
	00		 mov	 esi, DWORD PTR __imp__GetParent@4
  0004a	c7 45 fc 00 00
	00 00		 mov	 DWORD PTR __$EHRec$[ebp+8], 0
  00051	85 c0		 test	 eax, eax
  00053	74 39		 je	 SHORT $LN3@OnInitDial
; File C:\Program Files (x86)\Microsoft Visual Studio\2019\Community\VC\Tools\MSVC\14.29.30133\atlmfc\include\afxwin2.inl

; 213  : 	{ ASSERT(::IsWindow(m_hWnd)); return CWnd::FromHandle(::GetParent(m_hWnd)); }

  00055	ff 77 20	 push	 DWORD PTR [edi+32]
  00058	ff d6		 call	 esi
  0005a	50		 push	 eax
  0005b	e8 00 00 00 00	 call	 ?FromHandle@CWnd@@SGPAV1@PAUHWND__@@@Z ; CWnd::FromHandle
  00060	ff 70 20	 push	 DWORD PTR [eax+32]
  00063	ff d6		 call	 esi
  00065	50		 push	 eax
  00066	e8 00 00 00 00	 call	 ?FromHandle@CWnd@@SGPAV1@PAUHWND__@@@Z ; CWnd::FromHandle
  0006b	ff 70 20	 push	 DWORD PTR [eax+32]
  0006e	ff d6		 call	 esi
  00070	50		 push	 eax
  00071	e8 00 00 00 00	 call	 ?FromHandle@CWnd@@SGPAV1@PAUHWND__@@@Z ; CWnd::FromHandle
  00076	ff 70 20	 push	 DWORD PTR [eax+32]
  00079	ff d6		 call	 esi
  0007b	50		 push	 eax
  0007c	e8 00 00 00 00	 call	 ?FromHandle@CWnd@@SGPAV1@PAUHWND__@@@Z ; CWnd::FromHandle
; File D:\git\src\IBK\IBK_DRFN\ProjSrc\SrcDrfn\Chart\comparechart\TabStockDlg.cpp

; 99   : 	m_pCodeInput = new CCodeCtrl(GetParent()->GetParent()->GetParent()->GetParent());

  00081	8b 4d c8	 mov	 ecx, DWORD PTR $T3[ebp]
  00084	50		 push	 eax
  00085	e8 00 00 00 00	 call	 ??0CCodeCtrl@@QAE@PAVCWnd@@@Z ; CCodeCtrl::CCodeCtrl
  0008a	8b c8		 mov	 ecx, eax
  0008c	eb 02		 jmp	 SHORT $LN4@OnInitDial
$LN3@OnInitDial:
  0008e	33 c9		 xor	 ecx, ecx
$LN4@OnInitDial:

; 100  : 	CStdDialog* pStdDialog = (CStdDialog*)m_pCompareChartWnd;

  00090	8b b7 c4 00 00
	00		 mov	 esi, DWORD PTR [edi+196]
  00096	89 8f 60 04 00
	00		 mov	 DWORD PTR [edi+1120], ecx

; 101  : 	m_pCodeInput->SetRootPath(pStdDialog->m_strRootPath);

  0009c	8b 01		 mov	 eax, DWORD PTR [ecx]
  0009e	c7 45 fc ff ff
	ff ff		 mov	 DWORD PTR __$EHRec$[ebp+8], -1
  000a5	ff b6 e4 05 00
	00		 push	 DWORD PTR [esi+1508]
  000ab	ff 90 70 01 00
	00		 call	 DWORD PTR [eax+368]

; 102  : 	m_pCodeInput->UseCodeDlg(TRUE);

  000b1	8b 8f 60 04 00
	00		 mov	 ecx, DWORD PTR [edi+1120]
  000b7	6a 01		 push	 1
  000b9	8b 01		 mov	 eax, DWORD PTR [ecx]
  000bb	ff 90 6c 01 00
	00		 call	 DWORD PTR [eax+364]
  000c1	0f 57 c0	 xorps	 xmm0, xmm0

; 114  : 		GetDlgItem(IDC_CTRL_CODEINPUT)->GetWindowRect(ctlRect);

  000c4	8b cf		 mov	 ecx, edi
  000c6	68 b7 36 00 00	 push	 14007			; 000036b7H
; File C:\Program Files (x86)\Microsoft Visual Studio\2019\Community\VC\Tools\MSVC\14.29.30133\atlmfc\include\atltypes.h

; 528  : 	left = 0;

  000cb	0f 11 45 e0	 movups	 XMMWORD PTR _rectComp$6[ebp], xmm0
  000cf	0f 11 45 d0	 movups	 XMMWORD PTR _ctlRect$4[ebp], xmm0
; File D:\git\src\IBK\IBK_DRFN\ProjSrc\SrcDrfn\Chart\comparechart\TabStockDlg.cpp

; 114  : 		GetDlgItem(IDC_CTRL_CODEINPUT)->GetWindowRect(ctlRect);

  000d3	e8 00 00 00 00	 call	 ?GetDlgItem@CWnd@@QBEPAV1@H@Z ; CWnd::GetDlgItem
; File C:\Program Files (x86)\Microsoft Visual Studio\2019\Community\VC\Tools\MSVC\14.29.30133\atlmfc\include\afxwin2.inl

; 84   : 	{ ASSERT(::IsWindow(m_hWnd)); ::GetWindowRect(m_hWnd, lpRect); }

  000d8	8b 3d 00 00 00
	00		 mov	 edi, DWORD PTR __imp__GetWindowRect@8
  000de	8d 4d d0	 lea	 ecx, DWORD PTR _ctlRect$4[ebp]
  000e1	51		 push	 ecx
  000e2	ff 70 20	 push	 DWORD PTR [eax+32]
  000e5	ff d7		 call	 edi
; File D:\git\src\IBK\IBK_DRFN\ProjSrc\SrcDrfn\Chart\comparechart\TabStockDlg.cpp

; 115  : 		ScreenToClient(ctlRect);

  000e7	8b 4d cc	 mov	 ecx, DWORD PTR _this$GSCopy$1$[ebp]
  000ea	8d 45 d0	 lea	 eax, DWORD PTR _ctlRect$4[ebp]
  000ed	50		 push	 eax
  000ee	e8 00 00 00 00	 call	 ?ScreenToClient@CWnd@@QBEXPAUtagRECT@@@Z ; CWnd::ScreenToClient

; 116  : 
; 117  : 		CWnd* pwndWizard = CWnd::FromHandle(pStdDialog->m_hPlatform);

  000f3	ff b6 d8 02 00
	00		 push	 DWORD PTR [esi+728]
  000f9	e8 00 00 00 00	 call	 ?FromHandle@CWnd@@SGPAV1@PAUHWND__@@@Z ; CWnd::FromHandle
  000fe	8b f0		 mov	 esi, eax
; File C:\Program Files (x86)\Microsoft Visual Studio\2019\Community\VC\Tools\MSVC\14.29.30133\atlmfc\include\afxwin2.inl

; 213  : 	{ ASSERT(::IsWindow(m_hWnd)); return CWnd::FromHandle(::GetParent(m_hWnd)); }

  00100	8b 45 cc	 mov	 eax, DWORD PTR _this$GSCopy$1$[ebp]
  00103	ff 70 20	 push	 DWORD PTR [eax+32]
  00106	ff 15 00 00 00
	00		 call	 DWORD PTR __imp__GetParent@4
  0010c	50		 push	 eax
  0010d	e8 00 00 00 00	 call	 ?FromHandle@CWnd@@SGPAV1@PAUHWND__@@@Z ; CWnd::FromHandle
  00112	ff 70 20	 push	 DWORD PTR [eax+32]
  00115	ff 15 00 00 00
	00		 call	 DWORD PTR __imp__GetParent@4
  0011b	50		 push	 eax
  0011c	e8 00 00 00 00	 call	 ?FromHandle@CWnd@@SGPAV1@PAUHWND__@@@Z ; CWnd::FromHandle
  00121	ff 70 20	 push	 DWORD PTR [eax+32]
  00124	ff 15 00 00 00
	00		 call	 DWORD PTR __imp__GetParent@4
  0012a	50		 push	 eax
  0012b	e8 00 00 00 00	 call	 ?FromHandle@CWnd@@SGPAV1@PAUHWND__@@@Z ; CWnd::FromHandle
; File D:\git\src\IBK\IBK_DRFN\ProjSrc\SrcDrfn\Chart\comparechart\TabStockDlg.cpp

; 118  : 		m_pCodeInput->CreateCodeCtrl(this, pwndWizard,GetParent()->GetParent()->GetParent(), ctlRect, IDC_CTRL_CODEINPUT);

  00130	0f 10 45 d0	 movups	 xmm0, XMMWORD PTR _ctlRect$4[ebp]
  00134	68 b7 36 00 00	 push	 14007			; 000036b7H
  00139	83 ec 10	 sub	 esp, 16			; 00000010H
  0013c	8b cc		 mov	 ecx, esp
  0013e	50		 push	 eax
  0013f	56		 push	 esi
  00140	8b 75 cc	 mov	 esi, DWORD PTR _this$GSCopy$1$[ebp]
  00143	0f 11 01	 movups	 XMMWORD PTR [ecx], xmm0
  00146	56		 push	 esi
  00147	8b 8e 60 04 00
	00		 mov	 ecx, DWORD PTR [esi+1120]
  0014d	e8 00 00 00 00	 call	 ?CreateCodeCtrl@CWinixCodeCtrl@@QAEHPAVCWnd@@00VCRect@@I@Z ; CWinixCodeCtrl::CreateCodeCtrl

; 119  : 		m_pCodeInput->m_bIsComareChart = TRUE; // ..

  00152	8b 86 60 04 00
	00		 mov	 eax, DWORD PTR [esi+1120]

; 120  : 		m_pCodeInput->SetColor(RGB(0,0,0), RGB(255,255,255));

  00158	68 ff ff ff 00	 push	 16777215		; 00ffffffH
  0015d	6a 00		 push	 0
  0015f	c7 80 98 00 00
	00 01 00 00 00	 mov	 DWORD PTR [eax+152], 1
  00169	8b 8e 60 04 00
	00		 mov	 ecx, DWORD PTR [esi+1120]
  0016f	e8 00 00 00 00	 call	 ?SetColor@CWinixCodeCtrl@@QAE_NKK@Z ; CWinixCodeCtrl::SetColor

; 121  : 		m_pCodeInput->SetUnit("");

  00174	51		 push	 ecx
  00175	8b cc		 mov	 ecx, esp
  00177	68 00 00 00 00	 push	 OFFSET ??_C@_04IMIHFAMF@?A?V?$LN?D@
  0017c	ff 15 00 00 00
	00		 call	 DWORD PTR __imp_??0?$CStringT@DV?$StrTraitMFC_DLL@DV?$ChTraitsCRT@D@ATL@@@@@ATL@@QAE@PBD@Z
  00182	8b 8e 60 04 00
	00		 mov	 ecx, DWORD PTR [esi+1120]
  00188	8b 01		 mov	 eax, DWORD PTR [ecx]
  0018a	ff 90 74 01 00
	00		 call	 DWORD PTR [eax+372]

; 122  : 
; 123  : 		m_pCodeInput->GetWindowRect(rectComp);

  00190	8b 86 60 04 00
	00		 mov	 eax, DWORD PTR [esi+1120]
; File C:\Program Files (x86)\Microsoft Visual Studio\2019\Community\VC\Tools\MSVC\14.29.30133\atlmfc\include\afxwin2.inl

; 84   : 	{ ASSERT(::IsWindow(m_hWnd)); ::GetWindowRect(m_hWnd, lpRect); }

  00196	8d 4d e0	 lea	 ecx, DWORD PTR _rectComp$6[ebp]
  00199	51		 push	 ecx
  0019a	ff 70 20	 push	 DWORD PTR [eax+32]
  0019d	ff d7		 call	 edi
; File D:\git\src\IBK\IBK_DRFN\ProjSrc\SrcDrfn\Chart\comparechart\TabStockDlg.cpp

; 124  : 		ScreenToClient(rectComp);

  0019f	8d 45 e0	 lea	 eax, DWORD PTR _rectComp$6[ebp]
  001a2	8b fe		 mov	 edi, esi
  001a4	50		 push	 eax
  001a5	8b cf		 mov	 ecx, edi
  001a7	e8 00 00 00 00	 call	 ?ScreenToClient@CWnd@@QBEXPAUtagRECT@@@Z ; CWnd::ScreenToClient

; 127  : 		m_rectCmb = CRect(ctlRect.left, ctlRect.top, ctlRect.left + rectComp.Width(), ctlRect.top + 20);

  001ac	8b 55 d4	 mov	 edx, DWORD PTR _ctlRect$4[ebp+4]
; File C:\Program Files (x86)\Microsoft Visual Studio\2019\Community\VC\Tools\MSVC\14.29.30133\atlmfc\include\atltypes.h

; 576  : 	return right - left;

  001af	8b 4d e8	 mov	 ecx, DWORD PTR _rectComp$6[ebp+8]
  001b2	2b 4d e0	 sub	 ecx, DWORD PTR _rectComp$6[ebp]
; File D:\git\src\IBK\IBK_DRFN\ProjSrc\SrcDrfn\Chart\comparechart\TabStockDlg.cpp

; 127  : 		m_rectCmb = CRect(ctlRect.left, ctlRect.top, ctlRect.left + rectComp.Width(), ctlRect.top + 20);

  001b5	8b 45 d0	 mov	 eax, DWORD PTR _ctlRect$4[ebp]
  001b8	03 c8		 add	 ecx, eax
  001ba	8d 72 14	 lea	 esi, DWORD PTR [edx+20]

; 130  : 	m_ctrlBtnAdd.FP_vSetImage( m_pIL_W31H20, 12, 14, TRUE, "");

  001bd	6a ff		 push	 -1
  001bf	6a ff		 push	 -1
  001c1	6a 00		 push	 0
; File C:\Program Files (x86)\Microsoft Visual Studio\2019\Community\VC\Tools\MSVC\14.29.30133\atlmfc\include\atltypes.h

; 542  : 	right = r;

  001c3	89 4d e8	 mov	 DWORD PTR $T5[ebp+8], ecx
  001c6	89 45 e0	 mov	 DWORD PTR $T5[ebp], eax
  001c9	89 55 e4	 mov	 DWORD PTR $T5[ebp+4], edx
; File D:\git\src\IBK\IBK_DRFN\ProjSrc\SrcDrfn\Chart\comparechart\TabStockDlg.cpp

; 130  : 	m_ctrlBtnAdd.FP_vSetImage( m_pIL_W31H20, 12, 14, TRUE, "");

  001cc	51		 push	 ecx
; File C:\Program Files (x86)\Microsoft Visual Studio\2019\Community\VC\Tools\MSVC\14.29.30133\atlmfc\include\atltypes.h

; 543  : 	bottom = b;

  001cd	89 75 ec	 mov	 DWORD PTR $T5[ebp+12], esi
; File D:\git\src\IBK\IBK_DRFN\ProjSrc\SrcDrfn\Chart\comparechart\TabStockDlg.cpp

; 130  : 	m_ctrlBtnAdd.FP_vSetImage( m_pIL_W31H20, 12, 14, TRUE, "");

  001d0	8b cc		 mov	 ecx, esp
  001d2	0f 10 45 e0	 movups	 xmm0, XMMWORD PTR $T5[ebp]
  001d6	68 00 00 00 00	 push	 OFFSET ??_C@_04JLBNEAJO@?C?$NP?$LA?$KB@
  001db	0f 11 87 78 04
	00 00		 movups	 XMMWORD PTR [edi+1144], xmm0
  001e2	ff 15 00 00 00
	00		 call	 DWORD PTR __imp_??0?$CStringT@DV?$StrTraitMFC_DLL@DV?$ChTraitsCRT@D@ATL@@@@@ATL@@QAE@PBD@Z
  001e8	6a 01		 push	 1
  001ea	6a 0e		 push	 14			; 0000000eH
  001ec	6a 0c		 push	 12			; 0000000cH
  001ee	ff b7 bc 00 00
	00		 push	 DWORD PTR [edi+188]
  001f4	8d 8f 00 03 00
	00		 lea	 ecx, DWORD PTR [edi+768]
  001fa	e8 00 00 00 00	 call	 ?FP_vSetImage@CILButton@@QAEXPAVCImageList@@HHHV?$CStringT@DV?$StrTraitMFC_DLL@DV?$ChTraitsCRT@D@ATL@@@@@ATL@@HHH@Z ; CILButton::FP_vSetImage
; File C:\Program Files (x86)\Microsoft Visual Studio\2019\Community\VC\Tools\MSVC\14.29.30133\atlmfc\include\afxwin2.inl

; 795  : 	{ ASSERT(::IsWindow(m_hWnd)); return (int)::SendMessage(m_hWnd, CB_ADDSTRING, 0, (LPARAM)lpszString); }

  001ff	8b 35 00 00 00
	00		 mov	 esi, DWORD PTR __imp__SendMessageA@16
  00205	68 00 00 00 00	 push	 OFFSET ??_C@_08KMOBEFEF@?A?$LO?$LI?q?$LI?m?$LM?x@
  0020a	6a 00		 push	 0
  0020c	68 43 01 00 00	 push	 323			; 00000143H
  00211	ff b7 f8 00 00
	00		 push	 DWORD PTR [edi+248]
  00217	ff d6		 call	 esi
  00219	68 00 00 00 00	 push	 OFFSET ??_C@_0L@GENKOAG@?A?$LO?$LI?q?D?Z?$LF?e?$LM?x@
  0021e	6a 00		 push	 0
  00220	68 43 01 00 00	 push	 323			; 00000143H
  00225	ff b7 f8 00 00
	00		 push	 DWORD PTR [edi+248]
  0022b	ff d6		 call	 esi

; 767  : 	{ ASSERT(::IsWindow(m_hWnd)); return (int)::SendMessage(m_hWnd, CB_SETCURSEL, nSelect, 0); }

  0022d	6a 00		 push	 0
  0022f	6a 00		 push	 0
  00231	68 4e 01 00 00	 push	 334			; 0000014eH
  00236	ff b7 f8 00 00
	00		 push	 DWORD PTR [edi+248]
  0023c	ff d6		 call	 esi
; File D:\git\src\IBK\IBK_DRFN\ProjSrc\SrcDrfn\Chart\comparechart\TabStockDlg.cpp

; 141  : 	m_listStockCode.Init_ListCtrl();

  0023e	8d 8f 58 01 00
	00		 lea	 ecx, DWORD PTR [edi+344]
  00244	c7 87 d0 00 00
	00 00 00 00 00	 mov	 DWORD PTR [edi+208], 0
  0024e	c7 87 d8 01 00
	00 00 00 00 00	 mov	 DWORD PTR [edi+472], 0
  00258	e8 00 00 00 00	 call	 ?Init_ListCtrl@CVirtualListCtrl@@QAEXXZ ; CVirtualListCtrl::Init_ListCtrl

; 142  : 	m_listStockCode.SetRowHeight(15);

  0025d	6a 0f		 push	 15			; 0000000fH
  0025f	8d 8f 58 01 00
	00		 lea	 ecx, DWORD PTR [edi+344]
  00265	e8 00 00 00 00	 call	 ?SetRowHeight@CVirtualListCtrl@@QAEXF@Z ; CVirtualListCtrl::SetRowHeight

; 143  : 
; 144  : 	InitTreeSearch();

  0026a	8b cf		 mov	 ecx, edi
  0026c	e8 00 00 00 00	 call	 ?InitTreeSearch@CTabStockDlg@@QAEXXZ ; CTabStockDlg::InitTreeSearch

; 446  : 	if(!m_pGwanMng)

  00271	83 bf a4 04 00
	00 00		 cmp	 DWORD PTR [edi+1188], 0
  00278	8b 87 c4 00 00
	00		 mov	 eax, DWORD PTR [edi+196]
  0027e	89 45 c8	 mov	 DWORD PTR _pStdParent$1$[ebp], eax
  00281	0f 85 bc 00 00
	00		 jne	 $LN46@OnInitDial
; File C:\Program Files (x86)\Microsoft Visual Studio\2019\Community\VC\Tools\MSVC\14.29.30133\atlmfc\include\afxwin2.inl

; 213  : 	{ ASSERT(::IsWindow(m_hWnd)); return CWnd::FromHandle(::GetParent(m_hWnd)); }

  00287	ff 70 20	 push	 DWORD PTR [eax+32]
  0028a	8b 35 00 00 00
	00		 mov	 esi, DWORD PTR __imp__GetParent@4
  00290	ff d6		 call	 esi
  00292	50		 push	 eax
  00293	e8 00 00 00 00	 call	 ?FromHandle@CWnd@@SGPAV1@PAUHWND__@@@Z ; CWnd::FromHandle

; 32   : 	{ ASSERT(::IsWindow(m_hWnd)); return ::SendMessage(m_hWnd, message, wParam, lParam); }

  00298	6a 00		 push	 0
  0029a	6a 00		 push	 0
  0029c	ff 35 00 00 00
	00		 push	 DWORD PTR ?RMSG_GETINTERFACE@@3IB
  002a2	ff 70 20	 push	 DWORD PTR [eax+32]
  002a5	ff 15 00 00 00
	00		 call	 DWORD PTR __imp__SendMessageA@16
; File D:\git\src\IBK\IBK_DRFN\ProjSrc\SrcDrfn\Chart\comparechart\TabStockDlg.cpp

; 448  : 		m_pGwanMng = (IWinixGwanManager*)pStdParent->GetParent()->SendMessage(RMSG_GETINTERFACE, 0, 0);

  002ab	89 87 a4 04 00
	00		 mov	 DWORD PTR [edi+1188], eax

; 449  : 		if(m_pGwanMng)

  002b1	85 c0		 test	 eax, eax
  002b3	0f 84 8a 00 00
	00		 je	 $LN46@OnInitDial

; 451  : 			HWND hPlatform = pStdParent->m_hPlatform;

  002b9	8b 45 c8	 mov	 eax, DWORD PTR _pStdParent$1$[ebp]
  002bc	8b 88 d8 02 00
	00		 mov	 ecx, DWORD PTR [eax+728]
; File C:\Program Files (x86)\Microsoft Visual Studio\2019\Community\VC\Tools\MSVC\14.29.30133\atlmfc\include\afxwin2.inl

; 213  : 	{ ASSERT(::IsWindow(m_hWnd)); return CWnd::FromHandle(::GetParent(m_hWnd)); }

  002c2	ff 70 20	 push	 DWORD PTR [eax+32]
; File D:\git\src\IBK\IBK_DRFN\ProjSrc\SrcDrfn\Chart\comparechart\TabStockDlg.cpp

; 451  : 			HWND hPlatform = pStdParent->m_hPlatform;

  002c5	89 4d c0	 mov	 DWORD PTR _hPlatform$1$[ebp], ecx
; File C:\Program Files (x86)\Microsoft Visual Studio\2019\Community\VC\Tools\MSVC\14.29.30133\atlmfc\include\afxwin2.inl

; 213  : 	{ ASSERT(::IsWindow(m_hWnd)); return CWnd::FromHandle(::GetParent(m_hWnd)); }

  002c8	ff d6		 call	 esi
  002ca	50		 push	 eax
  002cb	e8 00 00 00 00	 call	 ?FromHandle@CWnd@@SGPAV1@PAUHWND__@@@Z ; CWnd::FromHandle
  002d0	ff 70 20	 push	 DWORD PTR [eax+32]
  002d3	ff d6		 call	 esi
  002d5	50		 push	 eax
  002d6	e8 00 00 00 00	 call	 ?FromHandle@CWnd@@SGPAV1@PAUHWND__@@@Z ; CWnd::FromHandle

; 25   : 	{ return this == NULL ? NULL : m_hWnd; }

  002db	85 c0		 test	 eax, eax
  002dd	75 05		 jne	 SHORT $LN59@OnInitDial
  002df	89 45 cc	 mov	 DWORD PTR _hOnUser$1$[ebp], eax
  002e2	eb 06		 jmp	 SHORT $LN60@OnInitDial
$LN59@OnInitDial:
  002e4	8b 40 20	 mov	 eax, DWORD PTR [eax+32]
  002e7	89 45 cc	 mov	 DWORD PTR _hOnUser$1$[ebp], eax
$LN60@OnInitDial:
  002ea	8b 77 20	 mov	 esi, DWORD PTR [edi+32]
; File D:\git\src\IBK\IBK_DRFN\ProjSrc\SrcDrfn\Chart\comparechart\TabStockDlg.cpp

; 454  : 			CString szKey;

  002ed	8d 4d c4	 lea	 ecx, DWORD PTR _szKey$2[ebp]
  002f0	ff 15 00 00 00
	00		 call	 DWORD PTR __imp_??0?$CStringT@DV?$StrTraitMFC_DLL@DV?$ChTraitsCRT@D@ATL@@@@@ATL@@QAE@XZ

; 455  : 			szKey.Format("%08X\t%08X\t%08X\t", hPlatform, hOnUser, hMsgReceiver);

  002f6	56		 push	 esi
  002f7	ff 75 cc	 push	 DWORD PTR _hOnUser$1$[ebp]
  002fa	8d 45 c4	 lea	 eax, DWORD PTR _szKey$2[ebp]
  002fd	c7 45 fc 01 00
	00 00		 mov	 DWORD PTR __$EHRec$[ebp+8], 1
  00304	ff 75 c0	 push	 DWORD PTR _hPlatform$1$[ebp]
  00307	68 00 00 00 00	 push	 OFFSET ??_C@_0BA@INBCGBNE@?$CF08X?7?$CF08X?7?$CF08X?7@
  0030c	50		 push	 eax
  0030d	ff 15 00 00 00
	00		 call	 DWORD PTR __imp_?Format@?$CStringT@DV?$StrTraitMFC_DLL@DV?$ChTraitsCRT@D@ATL@@@@@ATL@@QAAXPBDZZ

; 456  : 			m_pGwanMng->Advise(szKey);

  00313	8b 87 a4 04 00
	00		 mov	 eax, DWORD PTR [edi+1188]
  00319	83 c4 14	 add	 esp, 20			; 00000014H
  0031c	ff 75 c4	 push	 DWORD PTR _szKey$2[ebp]
  0031f	8b 08		 mov	 ecx, DWORD PTR [eax]
  00321	50		 push	 eax
  00322	ff 11		 call	 DWORD PTR [ecx]

; 457  : 			
; 458  : 			pStdParent->m_pGwanMng = m_pGwanMng;

  00324	8b 55 c8	 mov	 edx, DWORD PTR _pStdParent$1$[ebp]

; 459  : 		}

  00327	8d 4d c4	 lea	 ecx, DWORD PTR _szKey$2[ebp]
  0032a	8b 87 a4 04 00
	00		 mov	 eax, DWORD PTR [edi+1188]
  00330	c7 45 fc ff ff
	ff ff		 mov	 DWORD PTR __$EHRec$[ebp+8], -1
  00337	89 82 08 11 00
	00		 mov	 DWORD PTR [edx+4360], eax
  0033d	ff 15 00 00 00
	00		 call	 DWORD PTR __imp_??1?$CStringT@DV?$StrTraitMFC_DLL@DV?$ChTraitsCRT@D@ATL@@@@@ATL@@QAE@XZ
$LN46@OnInitDial:

; 145  : 	//m_listStockCode.LoadCodeList(m_nOption);
; 146  : 
; 147  : 	AdviseGwansim();
; 148  : 
; 149  : 	//JS.Kim_20101005      
; 150  : 	m_listStockCode.ModifyStyle(0, WS_CLIPSIBLINGS|WS_CLIPCHILDREN);

  00343	6a 00		 push	 0
  00345	68 00 00 00 06	 push	 100663296		; 06000000H
  0034a	6a 00		 push	 0
  0034c	8d 8f 58 01 00
	00		 lea	 ecx, DWORD PTR [edi+344]
  00352	e8 00 00 00 00	 call	 ?ModifyStyle@CWnd@@QAEHKKI@Z ; CWnd::ModifyStyle

; 151  : 	m_treeSearch.ModifyStyle(0, WS_CLIPSIBLINGS|WS_CLIPCHILDREN);

  00357	6a 00		 push	 0
  00359	68 00 00 00 06	 push	 100663296		; 06000000H
  0035e	6a 00		 push	 0
  00360	8d 8f 80 02 00
	00		 lea	 ecx, DWORD PTR [edi+640]
  00366	e8 00 00 00 00	 call	 ?ModifyStyle@CWnd@@QAEHKKI@Z ; CWnd::ModifyStyle

; 152  : 
; 153  : 
; 154  : 	return TRUE;  // return TRUE unless you set the focus to a control

  0036b	b8 01 00 00 00	 mov	 eax, 1

; 155  : 	              // EXCEPTION: OCX Property Pages should return FALSE
; 156  : }

  00370	8b 4d f4	 mov	 ecx, DWORD PTR __$EHRec$[ebp]
  00373	64 89 0d 00 00
	00 00		 mov	 DWORD PTR fs:0, ecx
  0037a	59		 pop	 ecx
  0037b	5f		 pop	 edi
  0037c	5e		 pop	 esi
  0037d	8b 4d f0	 mov	 ecx, DWORD PTR __$ArrayPad$[ebp]
  00380	33 cd		 xor	 ecx, ebp
  00382	e8 00 00 00 00	 call	 @__security_check_cookie@4
  00387	8b e5		 mov	 esp, ebp
  00389	5d		 pop	 ebp
  0038a	c3		 ret	 0
_TEXT	ENDS
;	COMDAT text$x
text$x	SEGMENT
__unwindfunclet$?OnInitDialog@CTabStockDlg@@MAEHXZ$0:
  00000	8b 45 c8	 mov	 eax, DWORD PTR $T3[ebp]
  00003	50		 push	 eax
  00004	e8 00 00 00 00	 call	 ??3CObject@@SGXPAX@Z	; CObject::operator delete
  00009	c3		 ret	 0
__unwindfunclet$?OnInitDialog@CTabStockDlg@@MAEHXZ$3:
  0000a	8d 4d c4	 lea	 ecx, DWORD PTR _szKey$2[ebp]
  0000d	ff 25 00 00 00
	00		 jmp	 DWORD PTR __imp_??1?$CStringT@DV?$StrTraitMFC_DLL@DV?$ChTraitsCRT@D@ATL@@@@@ATL@@QAE@XZ
  00013	cc		 int	 3
  00014	cc		 int	 3
  00015	cc		 int	 3
  00016	cc		 int	 3
  00017	cc		 int	 3
__ehhandler$?OnInitDialog@CTabStockDlg@@MAEHXZ:
  00018	90		 npad	 1
  00019	90		 npad	 1
  0001a	8b 54 24 08	 mov	 edx, DWORD PTR [esp+8]
  0001e	8d 42 0c	 lea	 eax, DWORD PTR [edx+12]
  00021	8b 4a c0	 mov	 ecx, DWORD PTR [edx-64]
  00024	33 c8		 xor	 ecx, eax
  00026	e8 00 00 00 00	 call	 @__security_check_cookie@4
  0002b	8b 4a fc	 mov	 ecx, DWORD PTR [edx-4]
  0002e	33 c8		 xor	 ecx, eax
  00030	e8 00 00 00 00	 call	 @__security_check_cookie@4
  00035	b8 00 00 00 00	 mov	 eax, OFFSET __ehfuncinfo$?OnInitDialog@CTabStockDlg@@MAEHXZ
  0003a	e9 00 00 00 00	 jmp	 ___CxxFrameHandler3
text$x	ENDS
?OnInitDialog@CTabStockDlg@@MAEHXZ ENDP			; CTabStockDlg::OnInitDialog
; Function compile flags: /Ogtp
; File D:\git\src\IBK\IBK_DRFN\ProjSrc\SrcDrfn\Chart\comparechart\TabStockDlg.cpp
; File C:\Program Files (x86)\Microsoft Visual Studio\2019\Community\VC\Tools\MSVC\14.29.30133\atlmfc\include\atltypes.h
; File D:\git\src\IBK\IBK_DRFN\ProjSrc\SrcDrfn\Chart\comparechart\TabStockDlg.cpp
; File C:\Program Files (x86)\Microsoft Visual Studio\2019\Community\VC\Tools\MSVC\14.29.30133\atlmfc\include\atltypes.h
; File D:\git\src\IBK\IBK_DRFN\ProjSrc\SrcDrfn\Chart\comparechart\TabStockDlg.cpp
; File C:\Program Files (x86)\Microsoft Visual Studio\2019\Community\VC\Tools\MSVC\14.29.30133\atlmfc\include\atlsimpstr.h
; File D:\git\src\IBK\IBK_DRFN\ProjSrc\SrcDrfn\Chart\comparechart\TabStockDlg.cpp
; File C:\Program Files (x86)\Microsoft Visual Studio\2019\Community\VC\Tools\MSVC\14.29.30133\atlmfc\include\afxwin2.inl
; File D:\git\src\IBK\IBK_DRFN\ProjSrc\SrcDrfn\Chart\comparechart\TabStockDlg.cpp
;	COMDAT ?WindowProc@CTabStockDlg@@MAEJIIJ@Z
_TEXT	SEGMENT
$T2 = -16						; size = 4
__$EHRec$ = -12						; size = 12
_message$ = 8						; size = 4
_wParam$ = 12						; size = 4
_lParam$ = 16						; size = 4
?WindowProc@CTabStockDlg@@MAEJIIJ@Z PROC		; CTabStockDlg::WindowProc, COMDAT
; _this$ = ecx

; 166  : {

  00000	55		 push	 ebp
  00001	8b ec		 mov	 ebp, esp
  00003	6a ff		 push	 -1
  00005	68 00 00 00 00	 push	 __ehhandler$?WindowProc@CTabStockDlg@@MAEJIIJ@Z
  0000a	64 a1 00 00 00
	00		 mov	 eax, DWORD PTR fs:0
  00010	50		 push	 eax
  00011	51		 push	 ecx
  00012	53		 push	 ebx
  00013	56		 push	 esi
  00014	57		 push	 edi
  00015	a1 00 00 00 00	 mov	 eax, DWORD PTR ___security_cookie
  0001a	33 c5		 xor	 eax, ebp
  0001c	50		 push	 eax
  0001d	8d 45 f4	 lea	 eax, DWORD PTR __$EHRec$[ebp]
  00020	64 a3 00 00 00
	00		 mov	 DWORD PTR fs:0, eax
  00026	8b f9		 mov	 edi, ecx

; 167  : 	// TODO: Add your specialized code here and/or call the base class
; 168  : 
; 169  : //	if(message == RMSG_EVENT_CODEINPUT)
; 170  : //	{
; 171  : //		LPST_CTRLEVENT stEvent = (LPST_CTRLEVENT)lParam;
; 172  : //		if(strcmp("LengthFull", stEvent->lpszEventName) == 0 || strcmp("SelChanged", stEvent->lpszEventName) == 0)
; 173  : //		{
; 174  : //			CString strCode = m_ctrlCodeInput.GetDataText();
; 175  : //			CString strName = ((CStdDialog*)m_pCompareChartWnd)->GetCodeNameAndGubun(0, strCode);
; 176  : //			CString strData;
; 177  : //			strData.Format("%s&%s", strName, strCode);
; 178  : //			if(strData != m_strCodeNName)
; 179  : //			{
; 180  : //				m_strCodeNName = strData;
; 181  : //				GetParent()->GetParent()->SendMessage(UMSG_ADDITEM, 0, (LPARAM)&(m_strCodeNName));
; 182  : //			}
; 183  : //		}
; 184  : //	}
; 185  : 	switch(message)

  00028	8b 45 08	 mov	 eax, DWORD PTR _message$[ebp]
  0002b	2d 58 04 00 00	 sub	 eax, 1112		; 00000458H
  00030	0f 84 8e 00 00
	00		 je	 $LN4@WindowProc
  00036	83 e8 06	 sub	 eax, 6
  00039	74 52		 je	 SHORT $LN8@WindowProc
  0003b	83 e8 38	 sub	 eax, 56			; 00000038H
  0003e	0f 85 d5 00 00
	00		 jne	 $LN2@WindowProc

; 189  : 			GetParent()->GetParent()->SendMessage(UMSG_ADDITEM, 0, (LPARAM)&(m_listStockCode.m_strCodeNName));			
; 190  : 			break;
; 191  : 		//2007.04.30 by LYH       
; 192  : 		case USMG_PLEASE_RESIZE:
; 193  : 			if(m_pCodeInput && m_pCodeInput->GetSafeHwnd())

  00044	8b 8f 60 04 00
	00		 mov	 ecx, DWORD PTR [edi+1120]
  0004a	85 c9		 test	 ecx, ecx
  0004c	0f 84 c7 00 00
	00		 je	 $LN2@WindowProc
  00052	39 41 20	 cmp	 DWORD PTR [ecx+32], eax
  00055	0f 84 be 00 00
	00		 je	 $LN2@WindowProc
; File C:\Program Files (x86)\Microsoft Visual Studio\2019\Community\VC\Tools\MSVC\14.29.30133\atlmfc\include\atltypes.h

; 581  : 	return bottom - top;

  0005b	8b 97 7c 04 00
	00		 mov	 edx, DWORD PTR [edi+1148]
  00061	8b 87 84 04 00
	00		 mov	 eax, DWORD PTR [edi+1156]

; 576  : 	return right - left;

  00067	8b b7 78 04 00
	00		 mov	 esi, DWORD PTR [edi+1144]

; 581  : 	return bottom - top;

  0006d	2b c2		 sub	 eax, edx
; File D:\git\src\IBK\IBK_DRFN\ProjSrc\SrcDrfn\Chart\comparechart\TabStockDlg.cpp

; 195  : 				m_pCodeInput->SetWindowPos(&CWnd::wndTop, 

  0006f	6a 04		 push	 4
  00071	50		 push	 eax
; File C:\Program Files (x86)\Microsoft Visual Studio\2019\Community\VC\Tools\MSVC\14.29.30133\atlmfc\include\atltypes.h

; 576  : 	return right - left;

  00072	8b 87 80 04 00
	00		 mov	 eax, DWORD PTR [edi+1152]
  00078	2b c6		 sub	 eax, esi
; File D:\git\src\IBK\IBK_DRFN\ProjSrc\SrcDrfn\Chart\comparechart\TabStockDlg.cpp

; 195  : 				m_pCodeInput->SetWindowPos(&CWnd::wndTop, 

  0007a	50		 push	 eax
  0007b	52		 push	 edx
  0007c	56		 push	 esi
  0007d	ff 35 00 00 00
	00		 push	 DWORD PTR __imp_?wndTop@CWnd@@2V1@B
  00083	e8 00 00 00 00	 call	 ?SetWindowPos@CWnd@@QAEHPBV1@HHHHI@Z ; CWnd::SetWindowPos

; 196  : 					m_rectCmb.left, m_rectCmb.top, m_rectCmb.Width(), m_rectCmb.Height(), SWP_NOZORDER);		
; 197  : 			}
; 198  : 			break;			

  00088	e9 8c 00 00 00	 jmp	 $LN2@WindowProc
$LN8@WindowProc:

; 199  : 		case UMSG_ADDCODE : //KHD :      
; 200  : 				SetCodeFromOutSide(m_pCodeInput->GetCode());

  0008d	8b 8f 60 04 00
	00		 mov	 ecx, DWORD PTR [edi+1120]
  00093	8d 55 f0	 lea	 edx, DWORD PTR $T2[ebp]
  00096	52		 push	 edx
  00097	8b 01		 mov	 eax, DWORD PTR [ecx]
  00099	ff 90 84 01 00
	00		 call	 DWORD PTR [eax+388]
  0009f	8b 17		 mov	 edx, DWORD PTR [edi]
  000a1	8b cf		 mov	 ecx, edi
  000a3	ff 30		 push	 DWORD PTR [eax]
  000a5	c7 45 fc 00 00
	00 00		 mov	 DWORD PTR __$EHRec$[ebp+8], 0
  000ac	ff 92 a8 01 00
	00		 call	 DWORD PTR [edx+424]
  000b2	8d 4d f0	 lea	 ecx, DWORD PTR $T2[ebp]
  000b5	c7 45 fc ff ff
	ff ff		 mov	 DWORD PTR __$EHRec$[ebp+8], -1
  000bc	ff 15 00 00 00
	00		 call	 DWORD PTR __imp_??1?$CStringT@DV?$StrTraitMFC_DLL@DV?$ChTraitsCRT@D@ATL@@@@@ATL@@QAE@XZ
  000c2	eb 55		 jmp	 SHORT $LN2@WindowProc
$LN4@WindowProc:

; 188  : 			if(!m_listStockCode.m_strCodeNName.GetLength()) return 0l;

  000c4	8b 87 e4 01 00
	00		 mov	 eax, DWORD PTR [edi+484]
; File C:\Program Files (x86)\Microsoft Visual Studio\2019\Community\VC\Tools\MSVC\14.29.30133\atlmfc\include\atlsimpstr.h

; 800  : 		return( reinterpret_cast< CStringData* >( m_pszData )-1 );

  000ca	8d 9f e4 01 00
	00		 lea	 ebx, DWORD PTR [edi+484]
; File D:\git\src\IBK\IBK_DRFN\ProjSrc\SrcDrfn\Chart\comparechart\TabStockDlg.cpp

; 188  : 			if(!m_listStockCode.m_strCodeNName.GetLength()) return 0l;

  000d0	83 78 f4 00	 cmp	 DWORD PTR [eax-12], 0
  000d4	75 16		 jne	 SHORT $LN5@WindowProc
  000d6	33 c0		 xor	 eax, eax

; 204  : }

  000d8	8b 4d f4	 mov	 ecx, DWORD PTR __$EHRec$[ebp]
  000db	64 89 0d 00 00
	00 00		 mov	 DWORD PTR fs:0, ecx
  000e2	59		 pop	 ecx
  000e3	5f		 pop	 edi
  000e4	5e		 pop	 esi
  000e5	5b		 pop	 ebx
  000e6	8b e5		 mov	 esp, ebp
  000e8	5d		 pop	 ebp
  000e9	c2 0c 00	 ret	 12			; 0000000cH
$LN5@WindowProc:
; File C:\Program Files (x86)\Microsoft Visual Studio\2019\Community\VC\Tools\MSVC\14.29.30133\atlmfc\include\afxwin2.inl

; 213  : 	{ ASSERT(::IsWindow(m_hWnd)); return CWnd::FromHandle(::GetParent(m_hWnd)); }

  000ec	ff 77 20	 push	 DWORD PTR [edi+32]
  000ef	8b 35 00 00 00
	00		 mov	 esi, DWORD PTR __imp__GetParent@4
  000f5	ff d6		 call	 esi
  000f7	50		 push	 eax
  000f8	e8 00 00 00 00	 call	 ?FromHandle@CWnd@@SGPAV1@PAUHWND__@@@Z ; CWnd::FromHandle
  000fd	ff 70 20	 push	 DWORD PTR [eax+32]
  00100	ff d6		 call	 esi
  00102	50		 push	 eax
  00103	e8 00 00 00 00	 call	 ?FromHandle@CWnd@@SGPAV1@PAUHWND__@@@Z ; CWnd::FromHandle

; 32   : 	{ ASSERT(::IsWindow(m_hWnd)); return ::SendMessage(m_hWnd, message, wParam, lParam); }

  00108	53		 push	 ebx
  00109	6a 00		 push	 0
  0010b	68 5b 04 00 00	 push	 1115			; 0000045bH
  00110	ff 70 20	 push	 DWORD PTR [eax+32]
  00113	ff 15 00 00 00
	00		 call	 DWORD PTR __imp__SendMessageA@16
$LN2@WindowProc:
; File D:\git\src\IBK\IBK_DRFN\ProjSrc\SrcDrfn\Chart\comparechart\TabStockDlg.cpp

; 203  : 	return CTabDlg::WindowProc(message, wParam, lParam);

  00119	ff 75 10	 push	 DWORD PTR _lParam$[ebp]
  0011c	8b cf		 mov	 ecx, edi
  0011e	ff 75 0c	 push	 DWORD PTR _wParam$[ebp]
  00121	ff 75 08	 push	 DWORD PTR _message$[ebp]
  00124	e8 00 00 00 00	 call	 ?WindowProc@CWnd@@MAEJIIJ@Z ; CWnd::WindowProc

; 204  : }

  00129	8b 4d f4	 mov	 ecx, DWORD PTR __$EHRec$[ebp]
  0012c	64 89 0d 00 00
	00 00		 mov	 DWORD PTR fs:0, ecx
  00133	59		 pop	 ecx
  00134	5f		 pop	 edi
  00135	5e		 pop	 esi
  00136	5b		 pop	 ebx
  00137	8b e5		 mov	 esp, ebp
  00139	5d		 pop	 ebp
  0013a	c2 0c 00	 ret	 12			; 0000000cH
_TEXT	ENDS
;	COMDAT text$x
text$x	SEGMENT
__unwindfunclet$?WindowProc@CTabStockDlg@@MAEJIIJ@Z$0:
  00000	8d 4d f0	 lea	 ecx, DWORD PTR $T2[ebp]
  00003	ff 25 00 00 00
	00		 jmp	 DWORD PTR __imp_??1?$CStringT@DV?$StrTraitMFC_DLL@DV?$ChTraitsCRT@D@ATL@@@@@ATL@@QAE@XZ
  00009	cc		 int	 3
  0000a	cc		 int	 3
  0000b	cc		 int	 3
  0000c	cc		 int	 3
  0000d	cc		 int	 3
__ehhandler$?WindowProc@CTabStockDlg@@MAEJIIJ@Z:
  0000e	90		 npad	 1
  0000f	90		 npad	 1
  00010	8b 54 24 08	 mov	 edx, DWORD PTR [esp+8]
  00014	8d 42 0c	 lea	 eax, DWORD PTR [edx+12]
  00017	8b 4a ec	 mov	 ecx, DWORD PTR [edx-20]
  0001a	33 c8		 xor	 ecx, eax
  0001c	e8 00 00 00 00	 call	 @__security_check_cookie@4
  00021	b8 00 00 00 00	 mov	 eax, OFFSET __ehfuncinfo$?WindowProc@CTabStockDlg@@MAEJIIJ@Z
  00026	e9 00 00 00 00	 jmp	 ___CxxFrameHandler3
text$x	ENDS
?WindowProc@CTabStockDlg@@MAEJIIJ@Z ENDP		; CTabStockDlg::WindowProc
; Function compile flags: /Ogtp
; File D:\git\src\IBK\IBK_DRFN\ProjSrc\SrcDrfn\Chart\comparechart\TabStockDlg.cpp
;	COMDAT ?DoDataExchange@CTabStockDlg@@MAEXPAVCDataExchange@@@Z
_TEXT	SEGMENT
_pDX$ = 8						; size = 4
?DoDataExchange@CTabStockDlg@@MAEXPAVCDataExchange@@@Z PROC ; CTabStockDlg::DoDataExchange, COMDAT
; _this$ = ecx

; 37   : {

  00000	55		 push	 ebp
  00001	8b ec		 mov	 ebp, esp
  00003	56		 push	 esi
  00004	57		 push	 edi

; 38   : 	CTabDlg::DoDataExchange(pDX);

  00005	8b 7d 08	 mov	 edi, DWORD PTR _pDX$[ebp]
  00008	8b f1		 mov	 esi, ecx
  0000a	57		 push	 edi
  0000b	e8 00 00 00 00	 call	 ?DoDataExchange@CTabDlg@@MAEXPAVCDataExchange@@@Z ; CTabDlg::DoDataExchange

; 39   : 	//{{AFX_DATA_MAP(CTabStockDlg)
; 40   : 	DDX_Control(pDX, IDC_COMBO_SORTWAY, m_cmbSort);

  00010	8d 86 d8 00 00
	00		 lea	 eax, DWORD PTR [esi+216]
  00016	50		 push	 eax
  00017	68 8e 17 00 00	 push	 6030			; 0000178eH
  0001c	57		 push	 edi
  0001d	e8 00 00 00 00	 call	 ?DDX_Control@@YGXPAVCDataExchange@@HAAVCWnd@@@Z ; DDX_Control

; 41   : 	DDX_Control(pDX, IDC_LIST_STOCK, m_listStockCode);

  00022	8d 86 58 01 00
	00		 lea	 eax, DWORD PTR [esi+344]
  00028	50		 push	 eax
  00029	68 64 18 00 00	 push	 6244			; 00001864H
  0002e	57		 push	 edi
  0002f	e8 00 00 00 00	 call	 ?DDX_Control@@YGXPAVCDataExchange@@HAAVCWnd@@@Z ; DDX_Control

; 42   : 	DDX_Control(pDX, IDC_TREESEARCH, m_treeSearch);	

  00034	8d 86 80 02 00
	00		 lea	 eax, DWORD PTR [esi+640]
  0003a	50		 push	 eax
  0003b	68 87 17 00 00	 push	 6023			; 00001787H
  00040	57		 push	 edi
  00041	e8 00 00 00 00	 call	 ?DDX_Control@@YGXPAVCDataExchange@@HAAVCWnd@@@Z ; DDX_Control

; 43   : 	DDX_Control(pDX, IDC_BTN_ADD, m_ctrlBtnAdd);	

  00046	8d 86 00 03 00
	00		 lea	 eax, DWORD PTR [esi+768]
  0004c	50		 push	 eax
  0004d	68 01 2b 00 00	 push	 11009			; 00002b01H
  00052	57		 push	 edi
  00053	e8 00 00 00 00	 call	 ?DDX_Control@@YGXPAVCDataExchange@@HAAVCWnd@@@Z ; DDX_Control
  00058	5f		 pop	 edi
  00059	5e		 pop	 esi

; 44   : 	//}}AFX_DATA_MAP
; 45   : }

  0005a	5d		 pop	 ebp
  0005b	c2 04 00	 ret	 4
?DoDataExchange@CTabStockDlg@@MAEXPAVCDataExchange@@@Z ENDP ; CTabStockDlg::DoDataExchange
_TEXT	ENDS
; Function compile flags: /Ogtp
; File D:\git\src\IBK\IBK_DRFN\ProjSrc\SrcDrfn\Chart\comparechart\TabStockDlg.cpp
; File C:\Program Files (x86)\Microsoft Visual Studio\2019\Community\VC\Tools\MSVC\14.29.30133\atlmfc\include\afxwin2.inl
; File D:\git\src\IBK\IBK_DRFN\ProjSrc\SrcDrfn\Chart\comparechart\TabStockDlg.cpp
;	COMDAT ?PreTranslateMessage@CTabStockDlg@@UAEHPAUtagMSG@@@Z
_TEXT	SEGMENT
_pMsg$ = 8						; size = 4
?PreTranslateMessage@CTabStockDlg@@UAEHPAUtagMSG@@@Z PROC ; CTabStockDlg::PreTranslateMessage, COMDAT
; _this$ = ecx

; 207  : {

  00000	55		 push	 ebp
  00001	8b ec		 mov	 ebp, esp
  00003	56		 push	 esi
  00004	8b f1		 mov	 esi, ecx

; 208  : 	// TODO: Add your specialized code here and/or call the base class
; 209  : //	if(pMsg->message == WM_KEYDOWN)
; 210  : //	{
; 211  : //		if(pMsg->wParam == VK_RETURN	|| 
; 212  : //		   pMsg->wParam == VK_ESCAPE	) 
; 213  : //		{
; 214  : //			return TRUE;
; 215  : //		}
; 216  : //	}
; 217  : //	return CTabDlg::PreTranslateMessage(pMsg);
; 218  : 
; 219  : 	if(::IsWindow(m_hWnd))

  00006	ff 76 20	 push	 DWORD PTR [esi+32]
  00009	ff 15 00 00 00
	00		 call	 DWORD PTR __imp__IsWindow@4
  0000f	85 c0		 test	 eax, eax
  00011	74 1b		 je	 SHORT $LN2@PreTransla
; File C:\Program Files (x86)\Microsoft Visual Studio\2019\Community\VC\Tools\MSVC\14.29.30133\atlmfc\include\afxwin2.inl

; 213  : 	{ ASSERT(::IsWindow(m_hWnd)); return CWnd::FromHandle(::GetParent(m_hWnd)); }

  00013	ff 76 20	 push	 DWORD PTR [esi+32]
  00016	ff 15 00 00 00
	00		 call	 DWORD PTR __imp__GetParent@4
  0001c	50		 push	 eax
  0001d	e8 00 00 00 00	 call	 ?FromHandle@CWnd@@SGPAV1@PAUHWND__@@@Z ; CWnd::FromHandle
  00022	5e		 pop	 esi
; File D:\git\src\IBK\IBK_DRFN\ProjSrc\SrcDrfn\Chart\comparechart\TabStockDlg.cpp

; 220  : 		return GetParent()->PreTranslateMessage(pMsg);

  00023	8b 10		 mov	 edx, DWORD PTR [eax]
  00025	8b c8		 mov	 ecx, eax

; 223  : }

  00027	5d		 pop	 ebp

; 220  : 		return GetParent()->PreTranslateMessage(pMsg);

  00028	ff a2 14 01 00
	00		 jmp	 DWORD PTR [edx+276]
$LN2@PreTransla:

; 221  : 	else
; 222  : 		return CTabDlg::PreTranslateMessage(pMsg);

  0002e	ff 75 08	 push	 DWORD PTR _pMsg$[ebp]
  00031	8b ce		 mov	 ecx, esi
  00033	e8 00 00 00 00	 call	 ?PreTranslateMessage@CTabDlg@@UAEHPAUtagMSG@@@Z ; CTabDlg::PreTranslateMessage
  00038	5e		 pop	 esi

; 223  : }

  00039	5d		 pop	 ebp
  0003a	c2 04 00	 ret	 4
?PreTranslateMessage@CTabStockDlg@@UAEHPAUtagMSG@@@Z ENDP ; CTabStockDlg::PreTranslateMessage
_TEXT	ENDS
; Function compile flags: /Ogtp
; File D:\git\src\IBK\IBK_DRFN\ProjSrc\SrcDrfn\Chart\comparechart\TabStockDlg.cpp
; File C:\Program Files (x86)\Microsoft Visual Studio\2019\Community\VC\Tools\MSVC\14.29.30133\atlmfc\include\afxwin2.inl
; File D:\git\src\IBK\IBK_DRFN\ProjSrc\SrcDrfn\Chart\comparechart\TabStockDlg.cpp
; File C:\Program Files (x86)\Microsoft Visual Studio\2019\Community\VC\Tools\MSVC\14.29.30133\atlmfc\include\afxwin2.inl
; File D:\git\src\IBK\IBK_DRFN\ProjSrc\SrcDrfn\Chart\comparechart\TabStockDlg.cpp
; File C:\Program Files (x86)\Microsoft Visual Studio\2019\Community\VC\Tools\MSVC\14.29.30133\atlmfc\include\atltypes.h
; File D:\git\src\IBK\IBK_DRFN\ProjSrc\SrcDrfn\Chart\comparechart\TabStockDlg.cpp
; File C:\Program Files (x86)\Microsoft Visual Studio\2019\Community\VC\Tools\MSVC\14.29.30133\atlmfc\include\atltypes.h
; File C:\Program Files (x86)\Microsoft Visual Studio\2019\Community\VC\Tools\MSVC\14.29.30133\atlmfc\include\afxtempl.h
; File D:\git\src\IBK\IBK_DRFN\ProjSrc\SrcDrfn\Chart\comparechart\TabStockDlg.cpp
;	COMDAT ??0CTabStockDlg@@QAE@PAVCWnd@@@Z
_TEXT	SEGMENT
_this$ = -16						; size = 4
__$EHRec$ = -12						; size = 12
_pParent$ = 8						; size = 4
_this$ = 8						; size = 4
??0CTabStockDlg@@QAE@PAVCWnd@@@Z PROC			; CTabStockDlg::CTabStockDlg, COMDAT
; _this$ = ecx

; 21   : {

  00000	55		 push	 ebp
  00001	8b ec		 mov	 ebp, esp
  00003	6a ff		 push	 -1
  00005	68 00 00 00 00	 push	 __ehhandler$??0CTabStockDlg@@QAE@PAVCWnd@@@Z
  0000a	64 a1 00 00 00
	00		 mov	 eax, DWORD PTR fs:0
  00010	50		 push	 eax
  00011	51		 push	 ecx
  00012	56		 push	 esi
  00013	57		 push	 edi
  00014	a1 00 00 00 00	 mov	 eax, DWORD PTR ___security_cookie
  00019	33 c5		 xor	 eax, ebp
  0001b	50		 push	 eax
  0001c	8d 45 f4	 lea	 eax, DWORD PTR __$EHRec$[ebp]
  0001f	64 a3 00 00 00
	00		 mov	 DWORD PTR fs:0, eax
  00025	8b f9		 mov	 edi, ecx
  00027	89 7d f0	 mov	 DWORD PTR _this$[ebp], edi

; 20   : 	: CTabDlg(CTabStockDlg::IDD, pParent)

  0002a	ff 75 08	 push	 DWORD PTR _pParent$[ebp]
  0002d	68 e6 2e 00 00	 push	 12006			; 00002ee6H
  00032	e8 00 00 00 00	 call	 ??0CTabDlg@@QAE@IPAVCWnd@@@Z ; CTabDlg::CTabDlg

; 21   : {

  00037	8d b7 d8 00 00
	00		 lea	 esi, DWORD PTR [edi+216]
  0003d	c7 45 fc 00 00
	00 00		 mov	 DWORD PTR __$EHRec$[ebp+8], 0
; File C:\Program Files (x86)\Microsoft Visual Studio\2019\Community\VC\Tools\MSVC\14.29.30133\atlmfc\include\afxwin2.inl

; 761  : 	{ }

  00044	8b ce		 mov	 ecx, esi
; File D:\git\src\IBK\IBK_DRFN\ProjSrc\SrcDrfn\Chart\comparechart\TabStockDlg.cpp

; 21   : {

  00046	c7 07 00 00 00
	00		 mov	 DWORD PTR [edi], OFFSET ??_7CTabStockDlg@@6B@
  0004c	89 75 08	 mov	 DWORD PTR _this$[ebp], esi
; File C:\Program Files (x86)\Microsoft Visual Studio\2019\Community\VC\Tools\MSVC\14.29.30133\atlmfc\include\afxwin2.inl

; 761  : 	{ }

  0004f	e8 00 00 00 00	 call	 ??0CWnd@@QAE@XZ		; CWnd::CWnd
  00054	c7 06 00 00 00
	00		 mov	 DWORD PTR [esi], OFFSET ??_7CComboBox@@6B@
; File D:\git\src\IBK\IBK_DRFN\ProjSrc\SrcDrfn\Chart\comparechart\TabStockDlg.cpp

; 21   : {

  0005a	8d 8f 58 01 00
	00		 lea	 ecx, DWORD PTR [edi+344]
  00060	c6 45 fc 01	 mov	 BYTE PTR __$EHRec$[ebp+8], 1
  00064	e8 00 00 00 00	 call	 ??0CVirtualListCtrl@@QAE@XZ ; CVirtualListCtrl::CVirtualListCtrl
  00069	8d 8f 80 02 00
	00		 lea	 ecx, DWORD PTR [edi+640]
  0006f	c6 45 fc 02	 mov	 BYTE PTR __$EHRec$[ebp+8], 2
  00073	e8 00 00 00 00	 call	 ??0CExTreeCtrl@@QAE@XZ	; CExTreeCtrl::CExTreeCtrl
  00078	8d 8f 00 03 00
	00		 lea	 ecx, DWORD PTR [edi+768]
  0007e	c6 45 fc 03	 mov	 BYTE PTR __$EHRec$[ebp+8], 3
  00082	e8 00 00 00 00	 call	 ??0CILButton@@QAE@XZ	; CILButton::CILButton
  00087	8d 8f 74 04 00
	00		 lea	 ecx, DWORD PTR [edi+1140]
  0008d	c7 87 6c 04 00
	00 00 00 00 00	 mov	 DWORD PTR [edi+1132], OFFSET ??_7CTLMCallback@CTabStockDlg@@6B@
  00097	ff 15 00 00 00
	00		 call	 DWORD PTR __imp_??0?$CStringT@DV?$StrTraitMFC_DLL@DV?$ChTraitsCRT@D@ATL@@@@@ATL@@QAE@XZ
; File C:\Program Files (x86)\Microsoft Visual Studio\2019\Community\VC\Tools\MSVC\14.29.30133\atlmfc\include\atltypes.h

; 528  : 	left = 0;

  0009d	c7 87 78 04 00
	00 00 00 00 00	 mov	 DWORD PTR [edi+1144], 0
  000a7	0f 57 c0	 xorps	 xmm0, xmm0

; 529  : 	top = 0;

  000aa	c7 87 7c 04 00
	00 00 00 00 00	 mov	 DWORD PTR [edi+1148], 0
; File D:\git\src\IBK\IBK_DRFN\ProjSrc\SrcDrfn\Chart\comparechart\TabStockDlg.cpp

; 33   : }

  000b4	8b c7		 mov	 eax, edi
; File C:\Program Files (x86)\Microsoft Visual Studio\2019\Community\VC\Tools\MSVC\14.29.30133\atlmfc\include\atltypes.h

; 530  : 	right = 0;

  000b6	c7 87 80 04 00
	00 00 00 00 00	 mov	 DWORD PTR [edi+1152], 0

; 531  : 	bottom = 0;

  000c0	c7 87 84 04 00
	00 00 00 00 00	 mov	 DWORD PTR [edi+1156], 0
; File C:\Program Files (x86)\Microsoft Visual Studio\2019\Community\VC\Tools\MSVC\14.29.30133\atlmfc\include\afxtempl.h

; 851  : {

  000ca	c7 87 88 04 00
	00 00 00 00 00	 mov	 DWORD PTR [edi+1160], OFFSET ??_7?$CList@PAVCItemLongData@@PAV1@@@6B@

; 852  : 	ASSERT(nBlockSize > 0);
; 853  : 
; 854  : 	m_nCount = 0;

  000d4	c7 87 94 04 00
	00 00 00 00 00	 mov	 DWORD PTR [edi+1172], 0

; 855  : 	m_pNodeHead = m_pNodeTail = m_pNodeFree = NULL;

  000de	c7 87 98 04 00
	00 00 00 00 00	 mov	 DWORD PTR [edi+1176], 0
  000e8	c7 87 90 04 00
	00 00 00 00 00	 mov	 DWORD PTR [edi+1168], 0
  000f2	c7 87 8c 04 00
	00 00 00 00 00	 mov	 DWORD PTR [edi+1164], 0

; 856  : 	m_pBlocks = NULL;

  000fc	c7 87 9c 04 00
	00 00 00 00 00	 mov	 DWORD PTR [edi+1180], 0

; 857  : 	m_nBlockSize = nBlockSize;

  00106	c7 87 a0 04 00
	00 0a 00 00 00	 mov	 DWORD PTR [edi+1184], 10 ; 0000000aH
; File D:\git\src\IBK\IBK_DRFN\ProjSrc\SrcDrfn\Chart\comparechart\TabStockDlg.cpp

; 26   : 	m_pTreeListMng = NULL;

  00110	c7 87 68 04 00
	00 00 00 00 00	 mov	 DWORD PTR [edi+1128], 0

; 27   : 	m_dwTreeKey = 0;

  0011a	c7 87 70 04 00
	00 00 00 00 00	 mov	 DWORD PTR [edi+1136], 0

; 28   : 	//2007.04.30 by LYH       
; 29   : 	m_rectCmb = CRect(0,0,0,0);

  00124	0f 11 87 78 04
	00 00		 movups	 XMMWORD PTR [edi+1144], xmm0

; 30   : 
; 31   : 	m_pCodeInput = NULL;

  0012b	c7 87 60 04 00
	00 00 00 00 00	 mov	 DWORD PTR [edi+1120], 0

; 32   : 	m_pGwanMng = NULL;

  00135	c7 87 a4 04 00
	00 00 00 00 00	 mov	 DWORD PTR [edi+1188], 0

; 33   : }

  0013f	8b 4d f4	 mov	 ecx, DWORD PTR __$EHRec$[ebp]
  00142	64 89 0d 00 00
	00 00		 mov	 DWORD PTR fs:0, ecx
  00149	59		 pop	 ecx
  0014a	5f		 pop	 edi
  0014b	5e		 pop	 esi
  0014c	8b e5		 mov	 esp, ebp
  0014e	5d		 pop	 ebp
  0014f	c2 04 00	 ret	 4
_TEXT	ENDS
;	COMDAT text$x
text$x	SEGMENT
__unwindfunclet$??0CTabStockDlg@@QAE@PAVCWnd@@@Z$0:
  00000	8b 4d f0	 mov	 ecx, DWORD PTR _this$[ebp]
  00003	e9 00 00 00 00	 jmp	 ??1CTabDlg@@UAE@XZ	; CTabDlg::~CTabDlg
__unwindfunclet$??0CTabStockDlg@@QAE@PAVCWnd@@@Z$1:
  00008	8b 4d f0	 mov	 ecx, DWORD PTR _this$[ebp]
  0000b	81 c1 d8 00 00
	00		 add	 ecx, 216		; 000000d8H
  00011	e9 00 00 00 00	 jmp	 ??1CComboBox@@UAE@XZ	; CComboBox::~CComboBox
__unwindfunclet$??0CTabStockDlg@@QAE@PAVCWnd@@@Z$2:
  00016	8b 4d f0	 mov	 ecx, DWORD PTR _this$[ebp]
  00019	81 c1 58 01 00
	00		 add	 ecx, 344		; 00000158H
  0001f	e9 00 00 00 00	 jmp	 ??1CVirtualListCtrl@@UAE@XZ ; CVirtualListCtrl::~CVirtualListCtrl
__unwindfunclet$??0CTabStockDlg@@QAE@PAVCWnd@@@Z$3:
  00024	8b 4d f0	 mov	 ecx, DWORD PTR _this$[ebp]
  00027	81 c1 80 02 00
	00		 add	 ecx, 640		; 00000280H
  0002d	e9 00 00 00 00	 jmp	 ??1CExTreeCtrl@@UAE@XZ	; CExTreeCtrl::~CExTreeCtrl
  00032	cc		 int	 3
  00033	cc		 int	 3
  00034	cc		 int	 3
  00035	cc		 int	 3
  00036	cc		 int	 3
__ehhandler$??0CTabStockDlg@@QAE@PAVCWnd@@@Z:
  00037	90		 npad	 1
  00038	90		 npad	 1
  00039	8b 54 24 08	 mov	 edx, DWORD PTR [esp+8]
  0003d	8d 42 0c	 lea	 eax, DWORD PTR [edx+12]
  00040	8b 4a f0	 mov	 ecx, DWORD PTR [edx-16]
  00043	33 c8		 xor	 ecx, eax
  00045	e8 00 00 00 00	 call	 @__security_check_cookie@4
  0004a	b8 00 00 00 00	 mov	 eax, OFFSET __ehfuncinfo$??0CTabStockDlg@@QAE@PAVCWnd@@@Z
  0004f	e9 00 00 00 00	 jmp	 ___CxxFrameHandler3
text$x	ENDS
??0CTabStockDlg@@QAE@PAVCWnd@@@Z ENDP			; CTabStockDlg::CTabStockDlg
; Function compile flags: /Ogtp
;	COMDAT ??1CCodeTypeA@@QAE@XZ
_TEXT	SEGMENT
??1CCodeTypeA@@QAE@XZ PROC				; CCodeTypeA::~CCodeTypeA, COMDAT
; _this$ = ecx
  00000	56		 push	 esi
  00001	8b f1		 mov	 esi, ecx
  00003	8d 4e 0c	 lea	 ecx, DWORD PTR [esi+12]
  00006	ff 15 00 00 00
	00		 call	 DWORD PTR __imp_??1?$CStringT@DV?$StrTraitMFC_DLL@DV?$ChTraitsCRT@D@ATL@@@@@ATL@@QAE@XZ
  0000c	8d 4e 08	 lea	 ecx, DWORD PTR [esi+8]
  0000f	5e		 pop	 esi
  00010	ff 25 00 00 00
	00		 jmp	 DWORD PTR __imp_??1?$CStringT@DV?$StrTraitMFC_DLL@DV?$ChTraitsCRT@D@ATL@@@@@ATL@@QAE@XZ
??1CCodeTypeA@@QAE@XZ ENDP				; CCodeTypeA::~CCodeTypeA
_TEXT	ENDS
; Function compile flags: /Ogtp
; File D:\git\src\IBK\IBK_DRFN\ProjSrc\SrcDrfn\inc\ITreeListMng.h
;	COMDAT ?ConvertOneClickData@CCodeTypeA@@UAEXPAD@Z
_TEXT	SEGMENT
_strData$ = 8						; size = 4
?ConvertOneClickData@CCodeTypeA@@UAEXPAD@Z PROC		; CCodeTypeA::ConvertOneClickData, COMDAT
; _this$ = ecx

; 374  : 	{

  00000	55		 push	 ebp
  00001	8b ec		 mov	 ebp, esp

; 376  : 	}

  00003	5d		 pop	 ebp

; 375  : 		CCodeTypeBase::ConvertOneClickData(strData);

  00004	e9 00 00 00 00	 jmp	 ?ConvertOneClickData@CCodeTypeBase@@UAEXPAD@Z ; CCodeTypeBase::ConvertOneClickData
?ConvertOneClickData@CCodeTypeA@@UAEXPAD@Z ENDP		; CCodeTypeA::ConvertOneClickData
_TEXT	ENDS
; Function compile flags: /Ogtp
; File D:\git\src\IBK\IBK_DRFN\ProjSrc\SrcDrfn\inc\ITreeListMng.h
;	COMDAT ?Convert2@CCodeTypeA@@UAEXPAD@Z
_TEXT	SEGMENT
_sTmp$ = -28						; size = 21
__$ArrayPad$ = -4					; size = 4
_pData$ = 8						; size = 4
?Convert2@CCodeTypeA@@UAEXPAD@Z PROC			; CCodeTypeA::Convert2, COMDAT
; _this$ = ecx

; 361  : 	{

  00000	55		 push	 ebp
  00001	8b ec		 mov	 ebp, esp
  00003	83 ec 1c	 sub	 esp, 28			; 0000001cH
  00006	a1 00 00 00 00	 mov	 eax, DWORD PTR ___security_cookie
  0000b	33 c5		 xor	 eax, ebp
  0000d	89 45 fc	 mov	 DWORD PTR __$ArrayPad$[ebp], eax
  00010	56		 push	 esi
  00011	8b 75 08	 mov	 esi, DWORD PTR _pData$[ebp]
  00014	57		 push	 edi
  00015	8b f9		 mov	 edi, ecx

; 362  : 		int nL;
; 363  : 		char sTmp[20+1];
; 364  : 		nL=6;  memcpy(sTmp, pData, nL); sTmp[nL]=0;  pData=&pData[nL]; m_szcode=sTmp;

  00017	c6 45 ea 00	 mov	 BYTE PTR _sTmp$[ebp+6], 0
  0001b	8b 06		 mov	 eax, DWORD PTR [esi]
  0001d	89 45 e4	 mov	 DWORD PTR _sTmp$[ebp], eax
  00020	66 8b 46 04	 mov	 ax, WORD PTR [esi+4]
  00024	8d 4f 08	 lea	 ecx, DWORD PTR [edi+8]
  00027	66 89 45 e8	 mov	 WORD PTR _sTmp$[ebp+4], ax
  0002b	8d 45 e4	 lea	 eax, DWORD PTR _sTmp$[ebp]
  0002e	50		 push	 eax
  0002f	ff 15 00 00 00
	00		 call	 DWORD PTR __imp_??4?$CStringT@DV?$StrTraitMFC_DLL@DV?$ChTraitsCRT@D@ATL@@@@@ATL@@QAEAAV01@PBD@Z

; 365  : 		nL=20; memcpy(sTmp, pData, nL); sTmp[nL]=0;  m_szhname=sTmp; m_szhname.TrimRight();

  00035	0f 10 46 06	 movups	 xmm0, XMMWORD PTR [esi+6]
  00039	8d 4f 0c	 lea	 ecx, DWORD PTR [edi+12]
  0003c	0f 11 45 e4	 movups	 XMMWORD PTR _sTmp$[ebp], xmm0
  00040	8b 46 16	 mov	 eax, DWORD PTR [esi+22]
  00043	89 45 f4	 mov	 DWORD PTR _sTmp$[ebp+16], eax
  00046	8d 45 e4	 lea	 eax, DWORD PTR _sTmp$[ebp]
  00049	50		 push	 eax
  0004a	c6 45 f8 00	 mov	 BYTE PTR _sTmp$[ebp+20], 0
  0004e	ff 15 00 00 00
	00		 call	 DWORD PTR __imp_??4?$CStringT@DV?$StrTraitMFC_DLL@DV?$ChTraitsCRT@D@ATL@@@@@ATL@@QAEAAV01@PBD@Z
  00054	8d 4f 0c	 lea	 ecx, DWORD PTR [edi+12]
  00057	ff 15 00 00 00
	00		 call	 DWORD PTR __imp_?TrimRight@?$CStringT@DV?$StrTraitMFC_DLL@DV?$ChTraitsCRT@D@ATL@@@@@ATL@@QAEAAV12@XZ

; 366  : 	}

  0005d	8b 4d fc	 mov	 ecx, DWORD PTR __$ArrayPad$[ebp]
  00060	5f		 pop	 edi
  00061	33 cd		 xor	 ecx, ebp
  00063	5e		 pop	 esi
  00064	e8 00 00 00 00	 call	 @__security_check_cookie@4
  00069	8b e5		 mov	 esp, ebp
  0006b	5d		 pop	 ebp
  0006c	c2 04 00	 ret	 4
?Convert2@CCodeTypeA@@UAEXPAD@Z ENDP			; CCodeTypeA::Convert2
_TEXT	ENDS
; Function compile flags: /Ogtp
; File D:\git\src\IBK\IBK_DRFN\ProjSrc\SrcDrfn\inc\ITreeListMng.h
;	COMDAT ?Convert@CCodeTypeA@@UAEXPAD@Z
_TEXT	SEGMENT
_sTmp$ = -28						; size = 21
__$ArrayPad$ = -4					; size = 4
_pData$ = 8						; size = 4
?Convert@CCodeTypeA@@UAEXPAD@Z PROC			; CCodeTypeA::Convert, COMDAT
; _this$ = ecx

; 352  : 	{

  00000	55		 push	 ebp
  00001	8b ec		 mov	 ebp, esp
  00003	83 ec 1c	 sub	 esp, 28			; 0000001cH
  00006	a1 00 00 00 00	 mov	 eax, DWORD PTR ___security_cookie
  0000b	33 c5		 xor	 eax, ebp
  0000d	89 45 fc	 mov	 DWORD PTR __$ArrayPad$[ebp], eax
  00010	56		 push	 esi
  00011	8b 75 08	 mov	 esi, DWORD PTR _pData$[ebp]
  00014	57		 push	 edi
  00015	8b f9		 mov	 edi, ecx

; 353  : 		int nL;
; 354  : 		char sTmp[20+1];
; 355  : 		m_cGb = pData[0];   pData=&pData[1];
; 356  : 		nL=6;  memcpy(sTmp, pData, nL); sTmp[nL]=0;  pData=&pData[nL]; m_szcode=sTmp;

  00017	c6 45 ea 00	 mov	 BYTE PTR _sTmp$[ebp+6], 0
  0001b	8a 06		 mov	 al, BYTE PTR [esi]
  0001d	88 47 04	 mov	 BYTE PTR [edi+4], al
  00020	8d 4f 08	 lea	 ecx, DWORD PTR [edi+8]
  00023	8b 46 01	 mov	 eax, DWORD PTR [esi+1]
  00026	89 45 e4	 mov	 DWORD PTR _sTmp$[ebp], eax
  00029	66 8b 46 05	 mov	 ax, WORD PTR [esi+5]
  0002d	66 89 45 e8	 mov	 WORD PTR _sTmp$[ebp+4], ax
  00031	8d 45 e4	 lea	 eax, DWORD PTR _sTmp$[ebp]
  00034	50		 push	 eax
  00035	ff 15 00 00 00
	00		 call	 DWORD PTR __imp_??4?$CStringT@DV?$StrTraitMFC_DLL@DV?$ChTraitsCRT@D@ATL@@@@@ATL@@QAEAAV01@PBD@Z

; 357  : 		nL=20; memcpy(sTmp, pData, nL); sTmp[nL]=0;  m_szhname=sTmp; m_szhname.TrimRight();

  0003b	0f 10 46 07	 movups	 xmm0, XMMWORD PTR [esi+7]
  0003f	8d 4f 0c	 lea	 ecx, DWORD PTR [edi+12]
  00042	0f 11 45 e4	 movups	 XMMWORD PTR _sTmp$[ebp], xmm0
  00046	8b 46 17	 mov	 eax, DWORD PTR [esi+23]
  00049	89 45 f4	 mov	 DWORD PTR _sTmp$[ebp+16], eax
  0004c	8d 45 e4	 lea	 eax, DWORD PTR _sTmp$[ebp]
  0004f	50		 push	 eax
  00050	c6 45 f8 00	 mov	 BYTE PTR _sTmp$[ebp+20], 0
  00054	ff 15 00 00 00
	00		 call	 DWORD PTR __imp_??4?$CStringT@DV?$StrTraitMFC_DLL@DV?$ChTraitsCRT@D@ATL@@@@@ATL@@QAEAAV01@PBD@Z
  0005a	8d 4f 0c	 lea	 ecx, DWORD PTR [edi+12]
  0005d	ff 15 00 00 00
	00		 call	 DWORD PTR __imp_?TrimRight@?$CStringT@DV?$StrTraitMFC_DLL@DV?$ChTraitsCRT@D@ATL@@@@@ATL@@QAEAAV12@XZ

; 358  : 	}

  00063	8b 4d fc	 mov	 ecx, DWORD PTR __$ArrayPad$[ebp]
  00066	5f		 pop	 edi
  00067	33 cd		 xor	 ecx, ebp
  00069	5e		 pop	 esi
  0006a	e8 00 00 00 00	 call	 @__security_check_cookie@4
  0006f	8b e5		 mov	 esp, ebp
  00071	5d		 pop	 ebp
  00072	c2 04 00	 ret	 4
?Convert@CCodeTypeA@@UAEXPAD@Z ENDP			; CCodeTypeA::Convert
_TEXT	ENDS
; Function compile flags: /Ogtp
; File D:\git\src\IBK\IBK_DRFN\ProjSrc\SrcDrfn\inc\ITreeListMng.h
; File C:\Program Files (x86)\Microsoft Visual Studio\2019\Community\VC\Tools\MSVC\14.29.30133\atlmfc\include\atlsimpstr.h
; File D:\git\src\IBK\IBK_DRFN\ProjSrc\SrcDrfn\inc\ITreeListMng.h
; File C:\Program Files (x86)\Microsoft Visual Studio\2019\Community\VC\Tools\MSVC\14.29.30133\atlmfc\include\cstringt.h
; File D:\git\src\IBK\IBK_DRFN\ProjSrc\SrcDrfn\inc\ITreeListMng.h
; File C:\Program Files (x86)\Microsoft Visual Studio\2019\Community\VC\Tools\MSVC\14.29.30133\atlmfc\include\cstringt.h
; File D:\git\src\IBK\IBK_DRFN\ProjSrc\SrcDrfn\inc\ITreeListMng.h
; File C:\Program Files (x86)\Microsoft Visual Studio\2019\Community\VC\Tools\MSVC\14.29.30133\atlmfc\include\cstringt.h
; File D:\git\src\IBK\IBK_DRFN\ProjSrc\SrcDrfn\inc\ITreeListMng.h
; File C:\Program Files (x86)\Microsoft Visual Studio\2019\Community\VC\Tools\MSVC\14.29.30133\atlmfc\include\cstringt.h
; File D:\git\src\IBK\IBK_DRFN\ProjSrc\SrcDrfn\inc\ITreeListMng.h
;	COMDAT ?ConvertOneClickData@CCodeTypeBase@@UAEXPAD@Z
_TEXT	SEGMENT
__$EHRec$ = -12						; size = 12
_szKey$2 = 8						; size = 4
_strData$ = 8						; size = 4
?ConvertOneClickData@CCodeTypeBase@@UAEXPAD@Z PROC	; CCodeTypeBase::ConvertOneClickData, COMDAT
; _this$ = ecx

; 321  : 	{

  00000	55		 push	 ebp
  00001	8b ec		 mov	 ebp, esp
  00003	6a ff		 push	 -1
  00005	68 00 00 00 00	 push	 __ehhandler$?ConvertOneClickData@CCodeTypeBase@@UAEXPAD@Z
  0000a	64 a1 00 00 00
	00		 mov	 eax, DWORD PTR fs:0
  00010	50		 push	 eax
  00011	56		 push	 esi
  00012	57		 push	 edi
  00013	a1 00 00 00 00	 mov	 eax, DWORD PTR ___security_cookie
  00018	33 c5		 xor	 eax, ebp
  0001a	50		 push	 eax
  0001b	8d 45 f4	 lea	 eax, DWORD PTR __$EHRec$[ebp]
  0001e	64 a3 00 00 00
	00		 mov	 DWORD PTR fs:0, eax
  00024	8b f9		 mov	 edi, ecx

; 322  : 		// Virtual  ...
; 323  : 		Convert2(strData);

  00026	8b 07		 mov	 eax, DWORD PTR [edi]
  00028	ff 75 08	 push	 DWORD PTR _strData$[ebp]
  0002b	ff 50 04	 call	 DWORD PTR [eax+4]
; File C:\Program Files (x86)\Microsoft Visual Studio\2019\Community\VC\Tools\MSVC\14.29.30133\atlmfc\include\atlsimpstr.h

; 377  : 		return( m_pszData );

  0002e	8b 77 0c	 mov	 esi, DWORD PTR [edi+12]
; File D:\git\src\IBK\IBK_DRFN\ProjSrc\SrcDrfn\inc\ITreeListMng.h

; 329  : 		CString szKey;

  00031	8d 4d 08	 lea	 ecx, DWORD PTR _szKey$2[ebp]
  00034	ff 15 00 00 00
	00		 call	 DWORD PTR __imp_??0?$CStringT@DV?$StrTraitMFC_DLL@DV?$ChTraitsCRT@D@ATL@@@@@ATL@@QAE@XZ

; 330  : 		szKey.Format("%2.2s", strData);

  0003a	56		 push	 esi
  0003b	8d 45 08	 lea	 eax, DWORD PTR _szKey$2[ebp]
  0003e	c7 45 fc 00 00
	00 00		 mov	 DWORD PTR __$EHRec$[ebp+8], 0
  00045	68 00 00 00 00	 push	 OFFSET ??_C@_05KBKNOCPJ@?$CF2?42s@
  0004a	50		 push	 eax
  0004b	ff 15 00 00 00
	00		 call	 DWORD PTR __imp_?Format@?$CStringT@DV?$StrTraitMFC_DLL@DV?$ChTraitsCRT@D@ATL@@@@@ATL@@QAAXPBDZZ
  00051	83 c4 0c	 add	 esp, 12			; 0000000cH
; File C:\Program Files (x86)\Microsoft Visual Studio\2019\Community\VC\Tools\MSVC\14.29.30133\atlmfc\include\cstringt.h

; 2486 : 		return(str1.Compare(psz2) == 0);

  00054	8d 4d 08	 lea	 ecx, DWORD PTR _szKey$2[ebp]
  00057	68 00 00 00 00	 push	 OFFSET ??_C@_02BJKMHJON@?$KI?W@
  0005c	ff 15 00 00 00
	00		 call	 DWORD PTR __imp_?Compare@?$CStringT@DV?$StrTraitMFC_DLL@DV?$ChTraitsCRT@D@ATL@@@@@ATL@@QBEHPBD@Z
; File D:\git\src\IBK\IBK_DRFN\ProjSrc\SrcDrfn\inc\ITreeListMng.h

; 332  : 		if (szKey == "")	

  00062	8d 4d 08	 lea	 ecx, DWORD PTR _szKey$2[ebp]
; File C:\Program Files (x86)\Microsoft Visual Studio\2019\Community\VC\Tools\MSVC\14.29.30133\atlmfc\include\cstringt.h

; 2486 : 		return(str1.Compare(psz2) == 0);

  00065	85 c0		 test	 eax, eax
; File D:\git\src\IBK\IBK_DRFN\ProjSrc\SrcDrfn\inc\ITreeListMng.h

; 332  : 		if (szKey == "")	

  00067	75 0a		 jne	 SHORT $LN6@ConvertOne

; 333  : 		{
; 334  : 			return codeType_KOSDAQ;

  00069	ff 15 00 00 00
	00		 call	 DWORD PTR __imp_??1?$CStringT@DV?$StrTraitMFC_DLL@DV?$ChTraitsCRT@D@ATL@@@@@ATL@@QAE@XZ
  0006f	b0 02		 mov	 al, 2
  00071	eb 24		 jmp	 SHORT $LN17@ConvertOne
$LN6@ConvertOne:
; File C:\Program Files (x86)\Microsoft Visual Studio\2019\Community\VC\Tools\MSVC\14.29.30133\atlmfc\include\cstringt.h

; 2486 : 		return(str1.Compare(psz2) == 0);

  00073	68 00 00 00 00	 push	 OFFSET ??_C@_02IJKLNJNJ@?$KI?$OA@
  00078	ff 15 00 00 00
	00		 call	 DWORD PTR __imp_?Compare@?$CStringT@DV?$StrTraitMFC_DLL@DV?$ChTraitsCRT@D@ATL@@@@@ATL@@QBEHPBD@Z
; File D:\git\src\IBK\IBK_DRFN\ProjSrc\SrcDrfn\inc\ITreeListMng.h

; 336  : 		else if(szKey == "")

  0007e	8d 4d 08	 lea	 ecx, DWORD PTR _szKey$2[ebp]
; File C:\Program Files (x86)\Microsoft Visual Studio\2019\Community\VC\Tools\MSVC\14.29.30133\atlmfc\include\cstringt.h

; 2486 : 		return(str1.Compare(psz2) == 0);

  00081	85 c0		 test	 eax, eax
; File D:\git\src\IBK\IBK_DRFN\ProjSrc\SrcDrfn\inc\ITreeListMng.h

; 336  : 		else if(szKey == "")

  00083	75 0a		 jne	 SHORT $LN8@ConvertOne

; 337  : 		{
; 338  : 			return codeType_FREEBOARD;

  00085	ff 15 00 00 00
	00		 call	 DWORD PTR __imp_??1?$CStringT@DV?$StrTraitMFC_DLL@DV?$ChTraitsCRT@D@ATL@@@@@ATL@@QAE@XZ
  0008b	b0 03		 mov	 al, 3
  0008d	eb 08		 jmp	 SHORT $LN17@ConvertOne
$LN8@ConvertOne:

; 339  : 		}
; 340  : 		else
; 341  : 		{
; 342  : 			return codeType_KOSPI;

  0008f	ff 15 00 00 00
	00		 call	 DWORD PTR __imp_??1?$CStringT@DV?$StrTraitMFC_DLL@DV?$ChTraitsCRT@D@ATL@@@@@ATL@@QAE@XZ
  00095	b0 01		 mov	 al, 1
$LN17@ConvertOne:

; 324  : 		m_cGb = CheckeNameType((LPSTR)(LPCSTR)m_szhname);
; 325  : 	}

  00097	88 47 04	 mov	 BYTE PTR [edi+4], al
  0009a	8b 4d f4	 mov	 ecx, DWORD PTR __$EHRec$[ebp]
  0009d	64 89 0d 00 00
	00 00		 mov	 DWORD PTR fs:0, ecx
  000a4	59		 pop	 ecx
  000a5	5f		 pop	 edi
  000a6	5e		 pop	 esi
  000a7	8b e5		 mov	 esp, ebp
  000a9	5d		 pop	 ebp
  000aa	c2 04 00	 ret	 4
_TEXT	ENDS
;	COMDAT text$x
text$x	SEGMENT
__unwindfunclet$?ConvertOneClickData@CCodeTypeBase@@UAEXPAD@Z$0:
  00000	8d 4d 08	 lea	 ecx, DWORD PTR _szKey$2[ebp]
  00003	ff 25 00 00 00
	00		 jmp	 DWORD PTR __imp_??1?$CStringT@DV?$StrTraitMFC_DLL@DV?$ChTraitsCRT@D@ATL@@@@@ATL@@QAE@XZ
  00009	cc		 int	 3
  0000a	cc		 int	 3
  0000b	cc		 int	 3
  0000c	cc		 int	 3
  0000d	cc		 int	 3
__ehhandler$?ConvertOneClickData@CCodeTypeBase@@UAEXPAD@Z:
  0000e	90		 npad	 1
  0000f	90		 npad	 1
  00010	8b 54 24 08	 mov	 edx, DWORD PTR [esp+8]
  00014	8d 42 0c	 lea	 eax, DWORD PTR [edx+12]
  00017	8b 4a f4	 mov	 ecx, DWORD PTR [edx-12]
  0001a	33 c8		 xor	 ecx, eax
  0001c	e8 00 00 00 00	 call	 @__security_check_cookie@4
  00021	b8 00 00 00 00	 mov	 eax, OFFSET __ehfuncinfo$?ConvertOneClickData@CCodeTypeBase@@UAEXPAD@Z
  00026	e9 00 00 00 00	 jmp	 ___CxxFrameHandler3
text$x	ENDS
?ConvertOneClickData@CCodeTypeBase@@UAEXPAD@Z ENDP	; CCodeTypeBase::ConvertOneClickData
; Function compile flags: /Ogtp
; File D:\git\src\IBK\IBK_DRFN\ProjSrc\SrcDrfn\inc\ITreeListMng.h
;	COMDAT ?Convert2@CCodeTypeBase@@UAEXPAD@Z
_TEXT	SEGMENT
_pData$ = 8						; size = 4
?Convert2@CCodeTypeBase@@UAEXPAD@Z PROC			; CCodeTypeBase::Convert2, COMDAT
; _this$ = ecx

; 318  : 	virtual void  Convert2(char* pData) 	{}

  00000	c2 04 00	 ret	 4
?Convert2@CCodeTypeBase@@UAEXPAD@Z ENDP			; CCodeTypeBase::Convert2
_TEXT	ENDS
; Function compile flags: /Ogtp
; File D:\git\src\IBK\IBK_DRFN\ProjSrc\SrcDrfn\inc\ITreeListMng.h
;	COMDAT ?Convert@CCodeTypeBase@@UAEXPAD@Z
_TEXT	SEGMENT
_pData$ = 8						; size = 4
?Convert@CCodeTypeBase@@UAEXPAD@Z PROC			; CCodeTypeBase::Convert, COMDAT
; _this$ = ecx

; 317  : 	virtual void  Convert(char* pData) 	{}

  00000	c2 04 00	 ret	 4
?Convert@CCodeTypeBase@@UAEXPAD@Z ENDP			; CCodeTypeBase::Convert
_TEXT	ENDS
; Function compile flags: /Ogtp
;	COMDAT ??1CInputCodeListEx@@QAE@XZ
_TEXT	SEGMENT
??1CInputCodeListEx@@QAE@XZ PROC			; CInputCodeListEx::~CInputCodeListEx, COMDAT
; _this$ = ecx
  00000	56		 push	 esi
  00001	8b f1		 mov	 esi, ecx
  00003	8d 4e 08	 lea	 ecx, DWORD PTR [esi+8]
  00006	ff 15 00 00 00
	00		 call	 DWORD PTR __imp_??1?$CStringT@DV?$StrTraitMFC_DLL@DV?$ChTraitsCRT@D@ATL@@@@@ATL@@QAE@XZ
  0000c	8d 4e 04	 lea	 ecx, DWORD PTR [esi+4]
  0000f	5e		 pop	 esi
  00010	ff 25 00 00 00
	00		 jmp	 DWORD PTR __imp_??1?$CStringT@DV?$StrTraitMFC_DLL@DV?$ChTraitsCRT@D@ATL@@@@@ATL@@QAE@XZ
??1CInputCodeListEx@@QAE@XZ ENDP			; CInputCodeListEx::~CInputCodeListEx
_TEXT	ENDS
; Function compile flags: /Ogtp
; File C:\Program Files (x86)\Microsoft Visual Studio\2019\Community\VC\Tools\MSVC\14.29.30133\atlmfc\include\afxtempl.h
;	COMDAT ?SetAtGrow@?$CArray@PAU__MASTERCODE@@PAU1@@@QAEXHPAU__MASTERCODE@@@Z
_TEXT	SEGMENT
_nIndex$ = 8						; size = 4
_newElement$ = 12					; size = 4
?SetAtGrow@?$CArray@PAU__MASTERCODE@@PAU1@@@QAEXHPAU__MASTERCODE@@@Z PROC ; CArray<__MASTERCODE *,__MASTERCODE *>::SetAtGrow, COMDAT
; _this$ = ecx

; 534  : {

  00000	55		 push	 ebp
  00001	8b ec		 mov	 ebp, esp
  00003	56		 push	 esi

; 535  : 	ASSERT_VALID(this);
; 536  : 	ASSERT(nIndex >= 0);
; 537  : 
; 538  : 	if(nIndex < 0)

  00004	8b 75 08	 mov	 esi, DWORD PTR _nIndex$[ebp]
  00007	57		 push	 edi
  00008	8b f9		 mov	 edi, ecx
  0000a	85 f6		 test	 esi, esi
  0000c	78 1f		 js	 SHORT $LN7@SetAtGrow

; 540  : 
; 541  : 	if (nIndex >= m_nSize)

  0000e	3b 77 08	 cmp	 esi, DWORD PTR [edi+8]
  00011	7c 0b		 jl	 SHORT $LN3@SetAtGrow

; 542  : 		SetSize(nIndex+1, -1);

  00013	6a ff		 push	 -1
  00015	8d 46 01	 lea	 eax, DWORD PTR [esi+1]
  00018	50		 push	 eax
  00019	e8 00 00 00 00	 call	 ?SetSize@?$CArray@PAU__MASTERCODE@@PAU1@@@QAEXHH@Z ; CArray<__MASTERCODE *,__MASTERCODE *>::SetSize
$LN3@SetAtGrow:

; 543  : 	m_pData[nIndex] = newElement;

  0001e	8b 4f 04	 mov	 ecx, DWORD PTR [edi+4]
  00021	8b 45 0c	 mov	 eax, DWORD PTR _newElement$[ebp]
  00024	5f		 pop	 edi
  00025	89 04 b1	 mov	 DWORD PTR [ecx+esi*4], eax
  00028	5e		 pop	 esi

; 544  : }

  00029	5d		 pop	 ebp
  0002a	c2 08 00	 ret	 8
$LN7@SetAtGrow:

; 539  : 		AfxThrowInvalidArgException();

  0002d	e8 00 00 00 00	 call	 ?AfxThrowInvalidArgException@@YGXXZ ; AfxThrowInvalidArgException
$LN5@SetAtGrow:
  00032	cc		 int	 3
?SetAtGrow@?$CArray@PAU__MASTERCODE@@PAU1@@@QAEXHPAU__MASTERCODE@@@Z ENDP ; CArray<__MASTERCODE *,__MASTERCODE *>::SetAtGrow
_TEXT	ENDS
; Function compile flags: /Ogtp
; File C:\Program Files (x86)\Microsoft Visual Studio\2019\Community\VC\Tools\MSVC\14.29.30133\atlmfc\include\afxtempl.h
; File C:\Program Files (x86)\Windows Kits\10\Include\10.0.22000.0\ucrt\corecrt_memcpy_s.h
; File C:\Program Files (x86)\Microsoft Visual Studio\2019\Community\VC\Tools\MSVC\14.29.30133\atlmfc\include\atlchecked.h
; File C:\Program Files (x86)\Microsoft Visual Studio\2019\Community\VC\Tools\MSVC\14.29.30133\atlmfc\include\afxtempl.h
; File C:\Program Files (x86)\Windows Kits\10\Include\10.0.22000.0\ucrt\corecrt_memcpy_s.h
; File C:\Program Files (x86)\Microsoft Visual Studio\2019\Community\VC\Tools\MSVC\14.29.30133\atlmfc\include\atlchecked.h
; File C:\Program Files (x86)\Windows Kits\10\Include\10.0.22000.0\ucrt\corecrt_memcpy_s.h
; File C:\Program Files (x86)\Microsoft Visual Studio\2019\Community\VC\Tools\MSVC\14.29.30133\atlmfc\include\afxtempl.h
;	COMDAT ?SetSize@?$CArray@PAU__MASTERCODE@@PAU1@@@QAEXHH@Z
_TEXT	SEGMENT
__N$1$ = -4						; size = 4
__S2$1$ = 8						; size = 4
_nNewSize$ = 8						; size = 4
_pNewData$1$ = 12					; size = 4
_nGrowBy$ = 12						; size = 4
?SetSize@?$CArray@PAU__MASTERCODE@@PAU1@@@QAEXHH@Z PROC	; CArray<__MASTERCODE *,__MASTERCODE *>::SetSize, COMDAT
; _this$ = ecx

; 368  : {

  00000	55		 push	 ebp
  00001	8b ec		 mov	 ebp, esp
  00003	51		 push	 ecx
  00004	53		 push	 ebx
  00005	56		 push	 esi

; 369  : 	ASSERT_VALID(this);
; 370  : 	ASSERT(nNewSize >= 0);
; 371  : 
; 372  : 	if(nNewSize < 0 )

  00006	8b 75 08	 mov	 esi, DWORD PTR _nNewSize$[ebp]
  00009	8b d9		 mov	 ebx, ecx
  0000b	57		 push	 edi
  0000c	85 f6		 test	 esi, esi
  0000e	0f 88 c2 01 00
	00		 js	 $LN70@SetSize

; 373  : 		AfxThrowInvalidArgException();
; 374  : 
; 375  : 	if (nGrowBy >= 0)

  00014	8b 45 0c	 mov	 eax, DWORD PTR _nGrowBy$[ebp]
  00017	85 c0		 test	 eax, eax
  00019	78 03		 js	 SHORT $LN69@SetSize

; 376  : 		m_nGrowBy = nGrowBy;  // set new size

  0001b	89 43 10	 mov	 DWORD PTR [ebx+16], eax
$LN69@SetSize:

; 377  : 
; 378  : 	if (nNewSize == 0)

  0001e	8b 4b 04	 mov	 ecx, DWORD PTR [ebx+4]
  00021	85 f6		 test	 esi, esi
  00023	75 27		 jne	 SHORT $LN19@SetSize

; 379  : 	{
; 380  : 		// shrink to nothing
; 381  : 		if (m_pData != NULL)

  00025	85 c9		 test	 ecx, ecx
  00027	74 0c		 je	 SHORT $LN21@SetSize

; 382  : 		{
; 383  : 			for( int i = 0; i < m_nSize; i++ )
; 384  : 				(m_pData + i)->~TYPE();
; 385  : 			delete[] (BYTE*)m_pData;

  00029	51		 push	 ecx
  0002a	e8 00 00 00 00	 call	 ??_V@YAXPAX@Z		; operator delete[]
  0002f	83 c4 04	 add	 esp, 4

; 386  : 			m_pData = NULL;

  00032	89 73 04	 mov	 DWORD PTR [ebx+4], esi
$LN21@SetSize:

; 472  : 		m_nSize = nNewSize;
; 473  : 		m_nMaxSize = nNewMax;
; 474  : 	}
; 475  : }

  00035	5f		 pop	 edi
  00036	5e		 pop	 esi
  00037	c7 43 0c 00 00
	00 00		 mov	 DWORD PTR [ebx+12], 0
  0003e	c7 43 08 00 00
	00 00		 mov	 DWORD PTR [ebx+8], 0
  00045	5b		 pop	 ebx
  00046	8b e5		 mov	 esp, ebp
  00048	5d		 pop	 ebp
  00049	c2 08 00	 ret	 8
$LN19@SetSize:

; 387  : 		}
; 388  : 		m_nSize = m_nMaxSize = 0;
; 389  : 	}
; 390  : 	else if (m_pData == NULL)

  0004c	85 c9		 test	 ecx, ecx
  0004e	75 36		 jne	 SHORT $LN22@SetSize

; 391  : 	{
; 392  : 		// create buffer big enough to hold number of requested elements or
; 393  : 		// m_nGrowBy elements, whichever is larger.
; 394  : #ifdef SIZE_T_MAX
; 395  : 		ASSERT(nNewSize <= SIZE_T_MAX/sizeof(TYPE));    // no overflow
; 396  : #endif
; 397  : 		size_t nAllocSize = __max(nNewSize, m_nGrowBy);

  00050	8b 7b 10	 mov	 edi, DWORD PTR [ebx+16]
  00053	3b f7		 cmp	 esi, edi
  00055	0f 4f fe	 cmovg	 edi, esi

; 398  : 		m_pData = (TYPE*) new BYTE[(size_t)nAllocSize * sizeof(TYPE)];

  00058	8d 34 bd 00 00
	00 00		 lea	 esi, DWORD PTR [edi*4]
  0005f	56		 push	 esi
  00060	e8 00 00 00 00	 call	 ??_U@YAPAXI@Z		; operator new[]

; 399  : 		memset((void*)m_pData, 0, (size_t)nAllocSize * sizeof(TYPE));

  00065	56		 push	 esi
  00066	6a 00		 push	 0
  00068	50		 push	 eax
  00069	89 43 04	 mov	 DWORD PTR [ebx+4], eax
  0006c	e8 00 00 00 00	 call	 _memset

; 400  : 		for( int i = 0; i < nNewSize; i++ )
; 401  : #pragma push_macro("new")
; 402  : #undef new
; 403  : 			::new( (void*)( m_pData + i ) ) TYPE;
; 404  : #pragma pop_macro("new")
; 405  : 		m_nSize = nNewSize;

  00071	8b 45 08	 mov	 eax, DWORD PTR _nNewSize$[ebp]
  00074	83 c4 10	 add	 esp, 16			; 00000010H

; 472  : 		m_nSize = nNewSize;
; 473  : 		m_nMaxSize = nNewMax;
; 474  : 	}
; 475  : }

  00077	89 7b 0c	 mov	 DWORD PTR [ebx+12], edi
  0007a	89 43 08	 mov	 DWORD PTR [ebx+8], eax
  0007d	5f		 pop	 edi
  0007e	5e		 pop	 esi
  0007f	5b		 pop	 ebx
  00080	8b e5		 mov	 esp, ebp
  00082	5d		 pop	 ebp
  00083	c2 08 00	 ret	 8
$LN22@SetSize:

; 406  : 		m_nMaxSize = nAllocSize;
; 407  : 	}
; 408  : 	else if (nNewSize <= m_nMaxSize)

  00086	8b 7b 0c	 mov	 edi, DWORD PTR [ebx+12]
  00089	3b f7		 cmp	 esi, edi
  0008b	7f 29		 jg	 SHORT $LN24@SetSize

; 409  : 	{
; 410  : 		// it fits
; 411  : 		if (nNewSize > m_nSize)

  0008d	8b 53 08	 mov	 edx, DWORD PTR [ebx+8]
  00090	3b f2		 cmp	 esi, edx
  00092	7e 16		 jle	 SHORT $LN26@SetSize

; 412  : 		{
; 413  : 			// initialize the new elements
; 414  : 			memset((void*)(m_pData + m_nSize), 0, (size_t)(nNewSize-m_nSize) * sizeof(TYPE));

  00094	8b c6		 mov	 eax, esi
  00096	2b c2		 sub	 eax, edx
  00098	c1 e0 02	 shl	 eax, 2
  0009b	50		 push	 eax
  0009c	8d 04 91	 lea	 eax, DWORD PTR [ecx+edx*4]
  0009f	6a 00		 push	 0
  000a1	50		 push	 eax
  000a2	e8 00 00 00 00	 call	 _memset
  000a7	83 c4 0c	 add	 esp, 12			; 0000000cH
$LN26@SetSize:

; 415  : 			for( int i = 0; i < nNewSize-m_nSize; i++ )
; 416  : #pragma push_macro("new")
; 417  : #undef new
; 418  : 				::new( (void*)( m_pData + m_nSize + i ) ) TYPE;
; 419  : #pragma pop_macro("new")
; 420  : 		}
; 421  : 		else if (m_nSize > nNewSize)
; 422  : 		{
; 423  : 			// destroy the old elements
; 424  : 			for( int i = 0; i < m_nSize-nNewSize; i++ )
; 425  : 				(m_pData + nNewSize + i)->~TYPE();
; 426  : 		}
; 427  : 		m_nSize = nNewSize;

  000aa	5f		 pop	 edi
  000ab	89 73 08	 mov	 DWORD PTR [ebx+8], esi

; 472  : 		m_nSize = nNewSize;
; 473  : 		m_nMaxSize = nNewMax;
; 474  : 	}
; 475  : }

  000ae	5e		 pop	 esi
  000af	5b		 pop	 ebx
  000b0	8b e5		 mov	 esp, ebp
  000b2	5d		 pop	 ebp
  000b3	c2 08 00	 ret	 8
$LN24@SetSize:

; 428  : 	}
; 429  : 	else
; 430  : 	{
; 431  : 		// otherwise, grow array
; 432  : 		nGrowBy = m_nGrowBy;

  000b6	8b 43 10	 mov	 eax, DWORD PTR [ebx+16]

; 433  : 		if (nGrowBy == 0)

  000b9	85 c0		 test	 eax, eax
  000bb	75 22		 jne	 SHORT $LN37@SetSize

; 434  : 		{
; 435  : 			// heuristically determine growth when nGrowBy == 0
; 436  : 			//  (this avoids heap fragmentation in many situations)
; 437  : 			nGrowBy = m_nSize / 8;

  000bd	8b 43 08	 mov	 eax, DWORD PTR [ebx+8]
  000c0	99		 cdq
  000c1	83 e2 07	 and	 edx, 7
  000c4	03 c2		 add	 eax, edx
  000c6	c1 f8 03	 sar	 eax, 3

; 438  : 			nGrowBy = (nGrowBy < 4) ? 4 : ((nGrowBy > 1024) ? 1024 : nGrowBy);

  000c9	83 f8 04	 cmp	 eax, 4
  000cc	7d 07		 jge	 SHORT $LN36@SetSize
  000ce	b8 04 00 00 00	 mov	 eax, 4
  000d3	eb 0a		 jmp	 SHORT $LN37@SetSize
$LN36@SetSize:
  000d5	b9 00 04 00 00	 mov	 ecx, 1024		; 00000400H
  000da	3b c1		 cmp	 eax, ecx
  000dc	0f 4f c1	 cmovg	 eax, ecx
$LN37@SetSize:

; 439  : 		}
; 440  : 		INT_PTR nNewMax;
; 441  : 		if (nNewSize < m_nMaxSize + nGrowBy)

  000df	03 f8		 add	 edi, eax
  000e1	3b f7		 cmp	 esi, edi
  000e3	7d 0b		 jge	 SHORT $LN30@SetSize

; 445  : 
; 446  : 		ASSERT(nNewMax >= m_nMaxSize);  // no wrap around
; 447  : 
; 448  : 		if(nNewMax  < m_nMaxSize)

  000e5	3b 7b 0c	 cmp	 edi, DWORD PTR [ebx+12]
  000e8	0f 8c e8 00 00
	00		 jl	 $LN70@SetSize
  000ee	eb 02		 jmp	 SHORT $LN32@SetSize
$LN30@SetSize:

; 442  : 			nNewMax = m_nMaxSize + nGrowBy;  // granularity
; 443  : 		else
; 444  : 			nNewMax = nNewSize;  // no slush

  000f0	8b fe		 mov	 edi, esi
$LN32@SetSize:

; 450  : 
; 451  : #ifdef SIZE_T_MAX
; 452  : 		ASSERT(nNewMax <= SIZE_T_MAX/sizeof(TYPE)); // no overflow
; 453  : #endif
; 454  : 		TYPE* pNewData = (TYPE*) new BYTE[(size_t)nNewMax * sizeof(TYPE)];

  000f2	8d 04 bd 00 00
	00 00		 lea	 eax, DWORD PTR [edi*4]
  000f9	50		 push	 eax
  000fa	e8 00 00 00 00	 call	 ??_U@YAPAXI@Z		; operator new[]

; 455  : 
; 456  : 		// copy new data from old
; 457  : 		::ATL::Checked::memcpy_s(pNewData, (size_t)nNewMax * sizeof(TYPE),

  000ff	8b 53 04	 mov	 edx, DWORD PTR [ebx+4]
  00102	8b c8		 mov	 ecx, eax
  00104	8b 43 08	 mov	 eax, DWORD PTR [ebx+8]
  00107	83 c4 04	 add	 esp, 4
  0010a	c1 e0 02	 shl	 eax, 2
  0010d	89 4d 0c	 mov	 DWORD PTR _pNewData$1$[ebp], ecx
  00110	89 45 fc	 mov	 DWORD PTR __N$1$[ebp], eax
  00113	89 55 08	 mov	 DWORD PTR __S2$1$[ebp], edx
; File C:\Program Files (x86)\Windows Kits\10\Include\10.0.22000.0\ucrt\corecrt_memcpy_s.h

; 46   :         if (_SourceSize == 0)

  00116	85 c0		 test	 eax, eax
  00118	74 76		 je	 SHORT $LN74@SetSize

; 47   :         {
; 48   :             return 0;
; 49   :         }
; 50   : 
; 51   :         _CRT_MEMCPY_S_VALIDATE_RETURN_ERRCODE(_Destination != NULL, EINVAL);

  0011a	85 c9		 test	 ecx, ecx
  0011c	75 56		 jne	 SHORT $LN42@SetSize
$LN73@SetSize:
; File C:\Program Files (x86)\Microsoft Visual Studio\2019\Community\VC\Tools\MSVC\14.29.30133\atlmfc\include\atlchecked.h

; 69   : 	ATLMFC_CRT_ERRORCHECK(::memcpy_s(_S1, _S1max, _S2, _N));

  0011e	ff 15 00 00 00
	00		 call	 DWORD PTR __imp___errno
  00124	c7 00 16 00 00
	00		 mov	 DWORD PTR [eax], 22	; 00000016H
  0012a	ff 15 00 00 00
	00		 call	 DWORD PTR __imp___invalid_parameter_noinfo
$LN46@SetSize:
  00130	b8 16 00 00 00	 mov	 eax, 22			; 00000016H
$LN40@SetSize:
  00135	50		 push	 eax
  00136	e8 00 00 00 00	 call	 ?AfxCrtErrorCheck@@YAHH@Z ; AfxCrtErrorCheck
; File C:\Program Files (x86)\Microsoft Visual Studio\2019\Community\VC\Tools\MSVC\14.29.30133\atlmfc\include\afxtempl.h

; 462  : 		memset((void*)(pNewData + m_nSize), 0, (size_t)(nNewSize-m_nSize) * sizeof(TYPE));

  0013b	8b 4b 08	 mov	 ecx, DWORD PTR [ebx+8]
  0013e	8b c6		 mov	 eax, esi
  00140	2b c1		 sub	 eax, ecx
  00142	c1 e0 02	 shl	 eax, 2
  00145	50		 push	 eax
  00146	8b 45 0c	 mov	 eax, DWORD PTR _pNewData$1$[ebp]
  00149	6a 00		 push	 0
  0014b	8d 04 88	 lea	 eax, DWORD PTR [eax+ecx*4]
  0014e	50		 push	 eax
  0014f	e8 00 00 00 00	 call	 _memset

; 463  : 		for( int i = 0; i < nNewSize-m_nSize; i++ )
; 464  : #pragma push_macro("new")
; 465  : #undef new
; 466  : 			::new( (void*)( pNewData + m_nSize + i ) ) TYPE;
; 467  : #pragma pop_macro("new")
; 468  : 
; 469  : 		// get rid of old stuff (note: no destructors called)
; 470  : 		delete[] (BYTE*)m_pData;

  00154	ff 73 04	 push	 DWORD PTR [ebx+4]
  00157	e8 00 00 00 00	 call	 ??_V@YAXPAX@Z		; operator delete[]

; 471  : 		m_pData = pNewData;

  0015c	8b 45 0c	 mov	 eax, DWORD PTR _pNewData$1$[ebp]
  0015f	83 c4 14	 add	 esp, 20			; 00000014H

; 472  : 		m_nSize = nNewSize;
; 473  : 		m_nMaxSize = nNewMax;
; 474  : 	}
; 475  : }

  00162	89 7b 0c	 mov	 DWORD PTR [ebx+12], edi
  00165	89 73 08	 mov	 DWORD PTR [ebx+8], esi
  00168	89 43 04	 mov	 DWORD PTR [ebx+4], eax
  0016b	5f		 pop	 edi
  0016c	5e		 pop	 esi
  0016d	5b		 pop	 ebx
  0016e	8b e5		 mov	 esp, ebp
  00170	5d		 pop	 ebp
  00171	c2 08 00	 ret	 8
$LN42@SetSize:
; File C:\Program Files (x86)\Windows Kits\10\Include\10.0.22000.0\ucrt\corecrt_memcpy_s.h

; 52   :         if (_Source == NULL || _DestinationSize < _SourceSize)

  00174	85 d2		 test	 edx, edx
  00176	8d 14 bd 00 00
	00 00		 lea	 edx, DWORD PTR [edi*4]
  0017d	74 15		 je	 SHORT $LN44@SetSize
  0017f	3b d0		 cmp	 edx, eax
  00181	72 11		 jb	 SHORT $LN44@SetSize

; 58   : 
; 59   :             // Unreachable, but required to suppress /analyze warnings:
; 60   :             return EINVAL;
; 61   :         }
; 62   :         memcpy(_Destination, _Source, _SourceSize);

  00183	50		 push	 eax
  00184	ff 75 08	 push	 DWORD PTR __S2$1$[ebp]
  00187	51		 push	 ecx
  00188	e8 00 00 00 00	 call	 _memcpy
  0018d	83 c4 0c	 add	 esp, 12			; 0000000cH
$LN74@SetSize:
; File C:\Program Files (x86)\Microsoft Visual Studio\2019\Community\VC\Tools\MSVC\14.29.30133\atlmfc\include\atlchecked.h

; 69   : 	ATLMFC_CRT_ERRORCHECK(::memcpy_s(_S1, _S1max, _S2, _N));

  00190	33 c0		 xor	 eax, eax
  00192	eb a1		 jmp	 SHORT $LN40@SetSize
$LN44@SetSize:
; File C:\Program Files (x86)\Windows Kits\10\Include\10.0.22000.0\ucrt\corecrt_memcpy_s.h

; 54   :             memset(_Destination, 0, _DestinationSize);

  00194	52		 push	 edx
  00195	6a 00		 push	 0
  00197	51		 push	 ecx
  00198	e8 00 00 00 00	 call	 _memset
  0019d	83 c4 0c	 add	 esp, 12			; 0000000cH

; 55   : 
; 56   :             _CRT_MEMCPY_S_VALIDATE_RETURN_ERRCODE(_Source != NULL,                 EINVAL);

  001a0	83 7d 08 00	 cmp	 DWORD PTR __S2$1$[ebp], 0
  001a4	0f 84 74 ff ff
	ff		 je	 $LN73@SetSize

; 57   :             _CRT_MEMCPY_S_VALIDATE_RETURN_ERRCODE(_DestinationSize >= _SourceSize, ERANGE);

  001aa	8d 04 bd 00 00
	00 00		 lea	 eax, DWORD PTR [edi*4]
  001b1	3b 45 fc	 cmp	 eax, DWORD PTR __N$1$[ebp]
  001b4	0f 83 76 ff ff
	ff		 jae	 $LN46@SetSize
  001ba	ff 15 00 00 00
	00		 call	 DWORD PTR __imp___errno
  001c0	c7 00 22 00 00
	00		 mov	 DWORD PTR [eax], 34	; 00000022H
  001c6	ff 15 00 00 00
	00		 call	 DWORD PTR __imp___invalid_parameter_noinfo
  001cc	b8 22 00 00 00	 mov	 eax, 34			; 00000022H
  001d1	e9 5f ff ff ff	 jmp	 $LN40@SetSize
$LN70@SetSize:
; File C:\Program Files (x86)\Microsoft Visual Studio\2019\Community\VC\Tools\MSVC\14.29.30133\atlmfc\include\afxtempl.h

; 449  : 			AfxThrowInvalidArgException();

  001d6	e8 00 00 00 00	 call	 ?AfxThrowInvalidArgException@@YGXXZ ; AfxThrowInvalidArgException
$LN72@SetSize:
  001db	cc		 int	 3
?SetSize@?$CArray@PAU__MASTERCODE@@PAU1@@@QAEXHH@Z ENDP	; CArray<__MASTERCODE *,__MASTERCODE *>::SetSize
_TEXT	ENDS
; Function compile flags: /Ogtp
; File D:\git\src\IBK\IBK_DRFN\ProjSrc\SrcDrfn\Chart\comparechart\TabDlg.h
; File C:\Program Files (x86)\Microsoft Visual Studio\2019\Community\VC\Tools\MSVC\14.29.30133\atlmfc\include\atltypes.h
; File D:\git\src\IBK\IBK_DRFN\ProjSrc\SrcDrfn\Chart\comparechart\TabDlg.h
;	COMDAT ?GetRectOfCtrl@CTabDlg@@MAE?AVCRect@@HH@Z
_TEXT	SEGMENT
___$ReturnUdt$ = 8					; size = 4
_nID$ = 12						; size = 4
_bInit$ = 16						; size = 4
?GetRectOfCtrl@CTabDlg@@MAE?AVCRect@@HH@Z PROC		; CTabDlg::GetRectOfCtrl, COMDAT
; _this$ = ecx

; 98   : 	virtual CRect GetRectOfCtrl(INT nID, BOOL bInit=FALSE) { return CRect(0,0,0,0); }

  00000	55		 push	 ebp
  00001	8b ec		 mov	 ebp, esp
; File C:\Program Files (x86)\Microsoft Visual Studio\2019\Community\VC\Tools\MSVC\14.29.30133\atlmfc\include\atltypes.h

; 540  : 	left = l;

  00003	8b 45 08	 mov	 eax, DWORD PTR ___$ReturnUdt$[ebp]
  00006	c7 00 00 00 00
	00		 mov	 DWORD PTR [eax], 0

; 541  : 	top = t;

  0000c	c7 40 04 00 00
	00 00		 mov	 DWORD PTR [eax+4], 0

; 542  : 	right = r;

  00013	c7 40 08 00 00
	00 00		 mov	 DWORD PTR [eax+8], 0

; 543  : 	bottom = b;

  0001a	c7 40 0c 00 00
	00 00		 mov	 DWORD PTR [eax+12], 0
; File D:\git\src\IBK\IBK_DRFN\ProjSrc\SrcDrfn\Chart\comparechart\TabDlg.h

; 98   : 	virtual CRect GetRectOfCtrl(INT nID, BOOL bInit=FALSE) { return CRect(0,0,0,0); }

  00021	5d		 pop	 ebp
  00022	c2 0c 00	 ret	 12			; 0000000cH
?GetRectOfCtrl@CTabDlg@@MAE?AVCRect@@HH@Z ENDP		; CTabDlg::GetRectOfCtrl
_TEXT	ENDS
; Function compile flags: /Ogtp
; File D:\git\src\IBK\IBK_DRFN\ProjSrc\SrcDrfn\Chart\comparechart\TabDlg.h
;	COMDAT ?ReceiveDataFromOutSide@CTabDlg@@UAEXXZ
_TEXT	SEGMENT
?ReceiveDataFromOutSide@CTabDlg@@UAEXXZ PROC		; CTabDlg::ReceiveDataFromOutSide, COMDAT
; _this$ = ecx

; 88   : 	virtual void ReceiveDataFromOutSide() {}

  00000	c2 00 00	 ret	 0
?ReceiveDataFromOutSide@CTabDlg@@UAEXXZ ENDP		; CTabDlg::ReceiveDataFromOutSide
_TEXT	ENDS
; Function compile flags: /Ogtp
; File D:\git\src\IBK\IBK_DRFN\ProjSrc\SrcDrfn\Chart\comparechart\TabDlg.h
;	COMDAT ?SetRealPriceData@CTabDlg@@UAEXPAX@Z
_TEXT	SEGMENT
_pData$ = 8						; size = 4
?SetRealPriceData@CTabDlg@@UAEXPAX@Z PROC		; CTabDlg::SetRealPriceData, COMDAT
; _this$ = ecx

; 87   : 	virtual void SetRealPriceData(void *pData) {}

  00000	c2 04 00	 ret	 4
?SetRealPriceData@CTabDlg@@UAEXPAX@Z ENDP		; CTabDlg::SetRealPriceData
_TEXT	ENDS
; Function compile flags: /Ogtp
; File D:\git\src\IBK\IBK_DRFN\ProjSrc\SrcDrfn\Chart\comparechart\TabDlg.h
;	COMDAT ?ReceiveData@CTabDlg@@UAEXPAUHWND__@@PBD11PAXJ@Z
_TEXT	SEGMENT
_hTrComm$ = 8						; size = 4
_szTR$ = 12						; size = 4
_szMsgCode$ = 16					; size = 4
_szMessage$ = 20					; size = 4
_aTRData$ = 24						; size = 4
_dwTRDateLen$ = 28					; size = 4
?ReceiveData@CTabDlg@@UAEXPAUHWND__@@PBD11PAXJ@Z PROC	; CTabDlg::ReceiveData, COMDAT
; _this$ = ecx

; 86   : 	virtual void ReceiveData(HWND hTrComm, LPCSTR szTR, LPCSTR szMsgCode, LPCSTR szMessage, LPVOID aTRData, long dwTRDateLen) {}

  00000	c2 18 00	 ret	 24			; 00000018H
?ReceiveData@CTabDlg@@UAEXPAUHWND__@@PBD11PAXJ@Z ENDP	; CTabDlg::ReceiveData
_TEXT	ENDS
; Function compile flags: /Ogtp
; File D:\git\src\IBK\IBK_DRFN\ProjSrc\SrcDrfn\Chart\comparechart\control\RscDlg.h
;	COMDAT ?SetBkColor@CRscDlg@@UAEXK@Z
_TEXT	SEGMENT
_crBk$ = 8						; size = 4
?SetBkColor@CRscDlg@@UAEXK@Z PROC			; CRscDlg::SetBkColor, COMDAT
; _this$ = ecx

; 24   : 	virtual void SetBkColor(COLORREF crBk) {m_crBk=crBk;}

  00000	55		 push	 ebp
  00001	8b ec		 mov	 ebp, esp
  00003	8b 45 08	 mov	 eax, DWORD PTR _crBk$[ebp]
  00006	89 81 b0 00 00
	00		 mov	 DWORD PTR [ecx+176], eax
  0000c	5d		 pop	 ebp
  0000d	c2 04 00	 ret	 4
?SetBkColor@CRscDlg@@UAEXK@Z ENDP			; CRscDlg::SetBkColor
_TEXT	ENDS
; Function compile flags: /Ogtp
; File D:\git\src\IBK\IBK_DRFN\ProjSrc\SrcDrfn\inc\IBaseDefine.h
;	COMDAT ??__ERMSG_INTERFACE@@YAXXZ
text$di	SEGMENT
??__ERMSG_INTERFACE@@YAXXZ PROC				; `dynamic initializer for 'RMSG_INTERFACE'', COMDAT

; 170  : const UINT RMSG_INTERFACE = ::RegisterWindowMessage("RMSG_INTERFACE");

  00000	68 00 00 00 00	 push	 OFFSET ??_C@_0P@BKKCOCLK@RMSG_INTERFACE@
  00005	ff 15 00 00 00
	00		 call	 DWORD PTR __imp__RegisterWindowMessageA@4
  0000b	a3 00 00 00 00	 mov	 DWORD PTR ?RMSG_INTERFACE@@3IB, eax
  00010	c3		 ret	 0
??__ERMSG_INTERFACE@@YAXXZ ENDP				; `dynamic initializer for 'RMSG_INTERFACE''
text$di	ENDS
; Function compile flags: /Ogtp
; File C:\Program Files (x86)\Microsoft Visual Studio\2019\Community\VC\Tools\MSVC\14.29.30133\atlmfc\include\afx.inl
;	COMDAT ??_GCComboBox@@UAEPAXI@Z
_TEXT	SEGMENT
___flags$ = 8						; size = 4
??_GCComboBox@@UAEPAXI@Z PROC				; CComboBox::`scalar deleting destructor', COMDAT
; _this$ = ecx
  00000	55		 push	 ebp
  00001	8b ec		 mov	 ebp, esp
  00003	56		 push	 esi
  00004	8b f1		 mov	 esi, ecx
  00006	e8 00 00 00 00	 call	 ??1CComboBox@@UAE@XZ	; CComboBox::~CComboBox
  0000b	8b 45 08	 mov	 eax, DWORD PTR ___flags$[ebp]
  0000e	a8 01		 test	 al, 1
  00010	74 22		 je	 SHORT $LN9@scalar
  00012	a8 04		 test	 al, 4
  00014	75 10		 jne	 SHORT $LN3@scalar

; 112  : 	{ ::operator delete(p); }

  00016	56		 push	 esi
  00017	e8 00 00 00 00	 call	 ??3@YAXPAX@Z		; operator delete
  0001c	83 c4 04	 add	 esp, 4
  0001f	8b c6		 mov	 eax, esi
  00021	5e		 pop	 esi
  00022	5d		 pop	 ebp
  00023	c2 04 00	 ret	 4
$LN3@scalar:
  00026	68 80 00 00 00	 push	 128			; 00000080H
  0002b	56		 push	 esi
  0002c	e8 00 00 00 00	 call	 ?__global_delete@@YAXPAXI@Z ; __global_delete
  00031	83 c4 08	 add	 esp, 8
$LN9@scalar:
  00034	8b c6		 mov	 eax, esi
  00036	5e		 pop	 esi
  00037	5d		 pop	 ebp
  00038	c2 04 00	 ret	 4
??_GCComboBox@@UAEPAXI@Z ENDP				; CComboBox::`scalar deleting destructor'
_TEXT	ENDS
; Function compile flags: /Ogtp
; File C:\Program Files (x86)\Microsoft Visual Studio\2019\Community\VC\Tools\MSVC\14.29.30133\atlmfc\include\afxwin2.inl
;	COMDAT ?EndModalState@CWnd@@UAEXXZ
_TEXT	SEGMENT
?EndModalState@CWnd@@UAEXXZ PROC			; CWnd::EndModalState, COMDAT
; _this$ = ecx

; 567  : 	{ ::EnableWindow(m_hWnd, TRUE); }

  00000	6a 01		 push	 1
  00002	ff 71 20	 push	 DWORD PTR [ecx+32]
  00005	ff 15 00 00 00
	00		 call	 DWORD PTR __imp__EnableWindow@8
  0000b	c3		 ret	 0
?EndModalState@CWnd@@UAEXXZ ENDP			; CWnd::EndModalState
_TEXT	ENDS
; Function compile flags: /Ogtp
; File C:\Program Files (x86)\Microsoft Visual Studio\2019\Community\VC\Tools\MSVC\14.29.30133\atlmfc\include\afxwin2.inl
;	COMDAT ?BeginModalState@CWnd@@UAEXXZ
_TEXT	SEGMENT
?BeginModalState@CWnd@@UAEXXZ PROC			; CWnd::BeginModalState, COMDAT
; _this$ = ecx

; 565  : 	{ ::EnableWindow(m_hWnd, FALSE); }

  00000	6a 00		 push	 0
  00002	ff 71 20	 push	 DWORD PTR [ecx+32]
  00005	ff 15 00 00 00
	00		 call	 DWORD PTR __imp__EnableWindow@8
  0000b	c3		 ret	 0
?BeginModalState@CWnd@@UAEXXZ ENDP			; CWnd::BeginModalState
_TEXT	ENDS
; Function compile flags: /Ogtp
; File C:\Program Files (x86)\Microsoft Visual Studio\2019\Community\VC\Tools\MSVC\14.29.30133\atlmfc\include\afxwin2.inl
;	COMDAT ?DoDataExchange@CWnd@@MAEXPAVCDataExchange@@@Z
_TEXT	SEGMENT
___formal$ = 8						; size = 4
?DoDataExchange@CWnd@@MAEXPAVCDataExchange@@@Z PROC	; CWnd::DoDataExchange, COMDAT
; _this$ = ecx

; 561  : 	{ } // default does nothing

  00000	c2 04 00	 ret	 4
?DoDataExchange@CWnd@@MAEXPAVCDataExchange@@@Z ENDP	; CWnd::DoDataExchange
_TEXT	ENDS
; Function compile flags: /Ogtp
; File C:\Program Files (x86)\Microsoft Visual Studio\2019\Community\VC\Tools\MSVC\14.29.30133\atlmfc\include\afx.inl
;	COMDAT ?_AfxInitManaged@@YAHXZ
_TEXT	SEGMENT
?_AfxInitManaged@@YAHXZ PROC				; _AfxInitManaged, COMDAT

; 87   : 	return 0;

  00000	33 c0		 xor	 eax, eax

; 88   : }

  00002	c3		 ret	 0
?_AfxInitManaged@@YAHXZ ENDP				; _AfxInitManaged
_TEXT	ENDS
; Function compile flags: /Ogtp
; File C:\Program Files (x86)\Microsoft Visual Studio\2019\Community\VC\Tools\MSVC\14.29.30133\atlmfc\include\afx.inl
;	COMDAT ?Dump@CObject@@UBEXAAVCDumpContext@@@Z
_TEXT	SEGMENT
___formal$ = 8						; size = 4
?Dump@CObject@@UBEXAAVCDumpContext@@@Z PROC		; CObject::Dump, COMDAT
; _this$ = ecx

; 122  : 	{ /* no dumping in release builds */ }

  00000	c2 04 00	 ret	 4
?Dump@CObject@@UBEXAAVCDumpContext@@@Z ENDP		; CObject::Dump
_TEXT	ENDS
; Function compile flags: /Ogtp
; File C:\Program Files (x86)\Microsoft Visual Studio\2019\Community\VC\Tools\MSVC\14.29.30133\atlmfc\include\afx.inl
;	COMDAT ?AssertValid@CObject@@UBEXXZ
_TEXT	SEGMENT
?AssertValid@CObject@@UBEXXZ PROC			; CObject::AssertValid, COMDAT
; _this$ = ecx

; 120  : 	{ /* no asserts in release builds */ }

  00000	c2 00 00	 ret	 0
?AssertValid@CObject@@UBEXXZ ENDP			; CObject::AssertValid
_TEXT	ENDS
; Function compile flags: /Ogtp
; File C:\Program Files (x86)\Microsoft Visual Studio\2019\Community\VC\Tools\MSVC\14.29.30133\atlmfc\include\afx.inl
;	COMDAT ?Serialize@CObject@@UAEXAAVCArchive@@@Z
_TEXT	SEGMENT
___formal$ = 8						; size = 4
?Serialize@CObject@@UAEXAAVCArchive@@@Z PROC		; CObject::Serialize, COMDAT
; _this$ = ecx

; 106  : 	{ /* CObject does not serialize anything by default */ }

  00000	c2 04 00	 ret	 4
?Serialize@CObject@@UAEXAAVCArchive@@@Z ENDP		; CObject::Serialize
_TEXT	ENDS
; Function compile flags: /Ogtp
; File C:\Program Files (x86)\Microsoft Visual Studio\2019\Community\VC\Tools\MSVC\14.29.30133\atlmfc\include\afx.inl
;	COMDAT ??3CObject@@SGXPAX@Z
_TEXT	SEGMENT
_p$ = 8							; size = 4
??3CObject@@SGXPAX@Z PROC				; CObject::operator delete, COMDAT

; 112  : 	{ ::operator delete(p); }

  00000	55		 push	 ebp
  00001	8b ec		 mov	 ebp, esp
  00003	ff 75 08	 push	 DWORD PTR _p$[ebp]
  00006	e8 00 00 00 00	 call	 ??3@YAXPAX@Z		; operator delete
  0000b	83 c4 04	 add	 esp, 4
  0000e	5d		 pop	 ebp
  0000f	c2 04 00	 ret	 4
??3CObject@@SGXPAX@Z ENDP				; CObject::operator delete
_TEXT	ENDS
; Function compile flags: /Ogtp
; File C:\Program Files (x86)\Microsoft Visual Studio\2019\Community\VC\Tools\MSVC\14.29.30133\atlmfc\include\afx.inl
;	COMDAT ??1CObject@@UAE@XZ
_TEXT	SEGMENT
??1CObject@@UAE@XZ PROC					; CObject::~CObject, COMDAT
; _this$ = ecx

; 104  : 	{ }

  00000	c2 00 00	 ret	 0
??1CObject@@UAE@XZ ENDP					; CObject::~CObject
_TEXT	ENDS
; Function compile flags: /Ogtp
; File C:\Program Files (x86)\Microsoft Visual Studio\2019\Community\VC\Tools\MSVC\14.29.30133\atlmfc\include\afx.h
;	COMDAT ?AfxCrtErrorCheck@@YAHH@Z
_TEXT	SEGMENT
_error$ = 8						; size = 4
?AfxCrtErrorCheck@@YAHH@Z PROC				; AfxCrtErrorCheck, COMDAT

; 503  : {

  00000	55		 push	 ebp
  00001	8b ec		 mov	 ebp, esp

; 504  : 	switch(error)

  00003	8b 4d 08	 mov	 ecx, DWORD PTR _error$[ebp]
  00006	83 f9 50	 cmp	 ecx, 80			; 00000050H
  00009	77 17		 ja	 SHORT $LN9@AfxCrtErro
  0000b	0f b6 81 00 00
	00 00		 movzx	 eax, BYTE PTR $LN11@AfxCrtErro[ecx]
  00012	ff 24 85 00 00
	00 00		 jmp	 DWORD PTR $LN12@AfxCrtErro[eax*4]
$LN4@AfxCrtErro:

; 505  : 	{
; 506  : 	case ENOMEM:
; 507  : 		AfxThrowMemoryException();

  00019	e9 00 00 00 00	 jmp	 ?AfxThrowMemoryException@@YGXXZ ; AfxThrowMemoryException
$LN7@AfxCrtErro:

; 518  : 		break;
; 519  : 	}
; 520  : 	return error;

  0001e	8b c1		 mov	 eax, ecx

; 521  : }

  00020	5d		 pop	 ebp
  00021	c3		 ret	 0
$LN9@AfxCrtErro:

; 508  : 		break;
; 509  : 	case EINVAL:
; 510  : 	case ERANGE:
; 511  : 		AfxThrowInvalidArgException();
; 512  : 		break;
; 513  : 	case STRUNCATE:
; 514  : 	case 0:
; 515  : 		break;
; 516  : 	default:
; 517  : 		AfxThrowInvalidArgException();

  00022	e9 00 00 00 00	 jmp	 ?AfxThrowInvalidArgException@@YGXXZ ; AfxThrowInvalidArgException
  00027	90		 npad	 1
$LN12@AfxCrtErro:

; 521  : }

  00028	00 00 00 00	 DD	 $LN7@AfxCrtErro
  0002c	00 00 00 00	 DD	 $LN4@AfxCrtErro
  00030	00 00 00 00	 DD	 $LN9@AfxCrtErro
  00034	00 00 00 00	 DD	 $LN9@AfxCrtErro
$LN11@AfxCrtErro:
  00038	00		 DB	 0
  00039	03		 DB	 3
  0003a	03		 DB	 3
  0003b	03		 DB	 3
  0003c	03		 DB	 3
  0003d	03		 DB	 3
  0003e	03		 DB	 3
  0003f	03		 DB	 3
  00040	03		 DB	 3
  00041	03		 DB	 3
  00042	03		 DB	 3
  00043	03		 DB	 3
  00044	01		 DB	 1
  00045	03		 DB	 3
  00046	03		 DB	 3
  00047	03		 DB	 3
  00048	03		 DB	 3
  00049	03		 DB	 3
  0004a	03		 DB	 3
  0004b	03		 DB	 3
  0004c	03		 DB	 3
  0004d	03		 DB	 3
  0004e	02		 DB	 2
  0004f	03		 DB	 3
  00050	03		 DB	 3
  00051	03		 DB	 3
  00052	03		 DB	 3
  00053	03		 DB	 3
  00054	03		 DB	 3
  00055	03		 DB	 3
  00056	03		 DB	 3
  00057	03		 DB	 3
  00058	03		 DB	 3
  00059	03		 DB	 3
  0005a	02		 DB	 2
  0005b	03		 DB	 3
  0005c	03		 DB	 3
  0005d	03		 DB	 3
  0005e	03		 DB	 3
  0005f	03		 DB	 3
  00060	03		 DB	 3
  00061	03		 DB	 3
  00062	03		 DB	 3
  00063	03		 DB	 3
  00064	03		 DB	 3
  00065	03		 DB	 3
  00066	03		 DB	 3
  00067	03		 DB	 3
  00068	03		 DB	 3
  00069	03		 DB	 3
  0006a	03		 DB	 3
  0006b	03		 DB	 3
  0006c	03		 DB	 3
  0006d	03		 DB	 3
  0006e	03		 DB	 3
  0006f	03		 DB	 3
  00070	03		 DB	 3
  00071	03		 DB	 3
  00072	03		 DB	 3
  00073	03		 DB	 3
  00074	03		 DB	 3
  00075	03		 DB	 3
  00076	03		 DB	 3
  00077	03		 DB	 3
  00078	03		 DB	 3
  00079	03		 DB	 3
  0007a	03		 DB	 3
  0007b	03		 DB	 3
  0007c	03		 DB	 3
  0007d	03		 DB	 3
  0007e	03		 DB	 3
  0007f	03		 DB	 3
  00080	03		 DB	 3
  00081	03		 DB	 3
  00082	03		 DB	 3
  00083	03		 DB	 3
  00084	03		 DB	 3
  00085	03		 DB	 3
  00086	03		 DB	 3
  00087	03		 DB	 3
  00088	00		 DB	 0
?AfxCrtErrorCheck@@YAHH@Z ENDP				; AfxCrtErrorCheck
_TEXT	ENDS
; Function compile flags: /Ogtp
; File C:\Program Files (x86)\Windows Kits\10\Include\10.0.22000.0\ucrt\stdio.h
;	COMDAT _sscanf
_TEXT	SEGMENT
__Buffer$ = 8						; size = 4
__Format$ = 12						; size = 4
_sscanf	PROC						; COMDAT

; 2247 :     {

  00000	55		 push	 ebp
  00001	8b ec		 mov	 ebp, esp

; 2153 :         return __stdio_common_vsscanf(

  00003	8d 45 10	 lea	 eax, DWORD PTR __Format$[ebp+4]
  00006	50		 push	 eax
  00007	6a 00		 push	 0
  00009	ff 75 0c	 push	 DWORD PTR __Format$[ebp]
  0000c	6a ff		 push	 -1
  0000e	ff 75 08	 push	 DWORD PTR __Buffer$[ebp]
  00011	e8 00 00 00 00	 call	 ___local_stdio_scanf_options
  00016	ff 70 04	 push	 DWORD PTR [eax+4]
  00019	ff 30		 push	 DWORD PTR [eax]
  0001b	ff 15 00 00 00
	00		 call	 DWORD PTR __imp____stdio_common_vsscanf
  00021	83 c4 1c	 add	 esp, 28			; 0000001cH

; 2248 :         int _Result;
; 2249 :         va_list _ArgList;
; 2250 :         __crt_va_start(_ArgList, _Format);
; 2251 :         _Result = _vsscanf_l(_Buffer, _Format, NULL, _ArgList);
; 2252 :         __crt_va_end(_ArgList);
; 2253 :         return _Result;
; 2254 :     }

  00024	5d		 pop	 ebp
  00025	c3		 ret	 0
_sscanf	ENDP
_TEXT	ENDS
; Function compile flags: /Ogtp
; File C:\Program Files (x86)\Windows Kits\10\Include\10.0.22000.0\ucrt\corecrt_stdio_config.h
;	COMDAT ___local_stdio_scanf_options
_TEXT	SEGMENT
___local_stdio_scanf_options PROC			; COMDAT

; 101  :         static unsigned __int64 _OptionsStorage;
; 102  :         return &_OptionsStorage;

  00000	b8 00 00 00 00	 mov	 eax, OFFSET ?_OptionsStorage@?1??__local_stdio_scanf_options@@9@4_KA ; `__local_stdio_scanf_options'::`2'::_OptionsStorage

; 103  :     }

  00005	c3		 ret	 0
___local_stdio_scanf_options ENDP
_TEXT	ENDS
; Function compile flags: /Ogtp
; File D:\git\src\IBK\IBK_DRFN\ProjSrc\SrcDrfn\Chart\comparechart\TabStockDlg.cpp
;	COMDAT ?__empty_global_delete@@YAXPAXI@Z
_TEXT	SEGMENT
___formal$ = 8						; size = 4
___formal$ = 12						; size = 4
?__empty_global_delete@@YAXPAXI@Z PROC			; __empty_global_delete, COMDAT

  00000	c2 00 00	 ret	 0
?__empty_global_delete@@YAXPAXI@Z ENDP			; __empty_global_delete
_TEXT	ENDS
; Function compile flags: /Ogtp
; File D:\git\src\IBK\IBK_DRFN\ProjSrc\SrcDrfn\Chart\comparechart\TabStockDlg.cpp
;	COMDAT ?__empty_global_delete@@YAXPAX@Z
_TEXT	SEGMENT
___formal$ = 8						; size = 4
?__empty_global_delete@@YAXPAX@Z PROC			; __empty_global_delete, COMDAT

  00000	c2 00 00	 ret	 0
?__empty_global_delete@@YAXPAX@Z ENDP			; __empty_global_delete
_TEXT	ENDS
END
