; Listing generated by Microsoft (R) Optimizing Compiler Version 19.29.30148.0 

	TITLE	D:\git\src\IBK\IBK_DRFN\#DRfn-CS\_Obj\CompareChart\TabUpJongDlg.obj
	.686P
	.XMM
	include listing.inc
	.model	flat

INCLUDELIB MSVCRT
INCLUDELIB OLDNAMES

PUBLIC	??_C@_0BE@FJPKENOB@RMSG_GETSIGNAL_REAL@		; `string'
PUBLIC	??_C@_0P@KHFCBIOH@RMSG_CHARTMAIN@		; `string'
PUBLIC	??_C@_0BC@MMPGLPDH@RMS_ANALYSIS_FUNC@		; `string'
PUBLIC	??_C@_0BA@HKNFENJL@RMSG_GET_USERID@		; `string'
PUBLIC	??_C@_0P@LFDACNFE@RMSG_KSDLLINFO@		; `string'
PUBLIC	??_C@_0N@IIOKMIEH@RMSG_GETINFO@			; `string'
PUBLIC	??_C@_0BG@CNPAHNGG@RMSG_CHANGE_SKINCOLOR@	; `string'
PUBLIC	??_C@_0BD@FLDNDDHK@RMSG_GET_SKINCOLOR@		; `string'
PUBLIC	??_C@_0BG@LNLCJKPF@RMSG_CHANGE_CROSSLINE@	; `string'
;	COMDAT ??_C@_0BG@LNLCJKPF@RMSG_CHANGE_CROSSLINE@
CONST	SEGMENT
??_C@_0BG@LNLCJKPF@RMSG_CHANGE_CROSSLINE@ DB 'RMSG_CHANGE_CROSSLINE', 00H ; `string'
CONST	ENDS
;	COMDAT ??_C@_0BD@FLDNDDHK@RMSG_GET_SKINCOLOR@
CONST	SEGMENT
??_C@_0BD@FLDNDDHK@RMSG_GET_SKINCOLOR@ DB 'RMSG_GET_SKINCOLOR', 00H ; `string'
CONST	ENDS
;	COMDAT ??_C@_0BG@CNPAHNGG@RMSG_CHANGE_SKINCOLOR@
CONST	SEGMENT
??_C@_0BG@CNPAHNGG@RMSG_CHANGE_SKINCOLOR@ DB 'RMSG_CHANGE_SKINCOLOR', 00H ; `string'
CONST	ENDS
;	COMDAT ??_C@_0N@IIOKMIEH@RMSG_GETINFO@
CONST	SEGMENT
??_C@_0N@IIOKMIEH@RMSG_GETINFO@ DB 'RMSG_GETINFO', 00H	; `string'
CONST	ENDS
;	COMDAT ??_C@_0P@LFDACNFE@RMSG_KSDLLINFO@
CONST	SEGMENT
??_C@_0P@LFDACNFE@RMSG_KSDLLINFO@ DB 'RMSG_KSDLLINFO', 00H ; `string'
CONST	ENDS
;	COMDAT ??_C@_0BA@HKNFENJL@RMSG_GET_USERID@
CONST	SEGMENT
??_C@_0BA@HKNFENJL@RMSG_GET_USERID@ DB 'RMSG_GET_USERID', 00H ; `string'
CONST	ENDS
;	COMDAT ??_C@_0BC@MMPGLPDH@RMS_ANALYSIS_FUNC@
CONST	SEGMENT
??_C@_0BC@MMPGLPDH@RMS_ANALYSIS_FUNC@ DB 'RMS_ANALYSIS_FUNC', 00H ; `string'
CONST	ENDS
;	COMDAT ??_C@_0P@KHFCBIOH@RMSG_CHARTMAIN@
CONST	SEGMENT
??_C@_0P@KHFCBIOH@RMSG_CHARTMAIN@ DB 'RMSG_CHARTMAIN', 00H ; `string'
CONST	ENDS
;	COMDAT ??_C@_0BE@FJPKENOB@RMSG_GETSIGNAL_REAL@
CONST	SEGMENT
??_C@_0BE@FJPKENOB@RMSG_GETSIGNAL_REAL@ DB 'RMSG_GETSIGNAL_REAL', 00H ; `string'
CONST	ENDS
PUBLIC	?__empty_global_delete@@YAXPAX@Z		; __empty_global_delete
PUBLIC	?__empty_global_delete@@YAXPAXI@Z		; __empty_global_delete
PUBLIC	___local_stdio_scanf_options
PUBLIC	_sscanf
PUBLIC	??3CObject@@SGXPAX@Z				; CObject::operator delete
PUBLIC	?Serialize@CObject@@UAEXAAVCArchive@@@Z		; CObject::Serialize
PUBLIC	?AssertValid@CObject@@UBEXXZ			; CObject::AssertValid
PUBLIC	?Dump@CObject@@UBEXAAVCDumpContext@@@Z		; CObject::Dump
PUBLIC	?BeginModalState@CWnd@@UAEXXZ			; CWnd::BeginModalState
PUBLIC	?EndModalState@CWnd@@UAEXXZ			; CWnd::EndModalState
PUBLIC	?SetBkColor@CRscDlg@@UAEXK@Z			; CRscDlg::SetBkColor
PUBLIC	?ReceiveData@CTabDlg@@UAEXPAUHWND__@@PBD11PAXJ@Z ; CTabDlg::ReceiveData
PUBLIC	?SetRealPriceData@CTabDlg@@UAEXPAX@Z		; CTabDlg::SetRealPriceData
PUBLIC	?ReceiveDataFromOutSide@CTabDlg@@UAEXXZ		; CTabDlg::ReceiveDataFromOutSide
PUBLIC	?SetCodeFromOutSide@CTabDlg@@UAEXPBD@Z		; CTabDlg::SetCodeFromOutSide
PUBLIC	?GetRectOfCtrl@CTabDlg@@MAE?AVCRect@@HH@Z	; CTabDlg::GetRectOfCtrl
PUBLIC	?SetSize@?$CArray@PAU__MASTERCODE@@PAU1@@@QAEXHH@Z ; CArray<__MASTERCODE *,__MASTERCODE *>::SetSize
PUBLIC	?SetAtGrow@?$CArray@PAU__MASTERCODE@@PAU1@@@QAEXHPAU__MASTERCODE@@@Z ; CArray<__MASTERCODE *,__MASTERCODE *>::SetAtGrow
PUBLIC	??0CTabUpJongDlg@@QAE@PAVCWnd@@@Z		; CTabUpJongDlg::CTabUpJongDlg
PUBLIC	?InitBaseInfo@CTabUpJongDlg@@QAEXH@Z		; CTabUpJongDlg::InitBaseInfo
PUBLIC	?SetKeyCodeChange@CTabUpJongDlg@@QAEXIJ@Z	; CTabUpJongDlg::SetKeyCodeChange
PUBLIC	?PreTranslateMessage@CTabUpJongDlg@@UAEHPAUtagMSG@@@Z ; CTabUpJongDlg::PreTranslateMessage
PUBLIC	?DoDataExchange@CTabUpJongDlg@@MAEXPAVCDataExchange@@@Z ; CTabUpJongDlg::DoDataExchange
PUBLIC	?WindowProc@CTabUpJongDlg@@MAEJIIJ@Z		; CTabUpJongDlg::WindowProc
PUBLIC	?fnRemovelistStockCode@CTabUpJongDlg@@IAEXXZ	; CTabUpJongDlg::fnRemovelistStockCode
PUBLIC	?OnInitDialog@CTabUpJongDlg@@MAEHXZ		; CTabUpJongDlg::OnInitDialog
PUBLIC	?OnChkKospi@CTabUpJongDlg@@IAEXXZ		; CTabUpJongDlg::OnChkKospi
PUBLIC	?OnChkKosdaq@CTabUpJongDlg@@IAEXXZ		; CTabUpJongDlg::OnChkKosdaq
PUBLIC	?OnChkK200@CTabUpJongDlg@@IAEXXZ		; CTabUpJongDlg::OnChkK200
PUBLIC	?OnSize@CTabUpJongDlg@@IAEXIHH@Z		; CTabUpJongDlg::OnSize
PUBLIC	?OnDestroy@CTabUpJongDlg@@IAEXXZ		; CTabUpJongDlg::OnDestroy
PUBLIC	?GetThisMessageMap@CTabUpJongDlg@@KGPBUAFX_MSGMAP@@XZ ; CTabUpJongDlg::GetThisMessageMap
PUBLIC	?GetMessageMap@CTabUpJongDlg@@MBEPBUAFX_MSGMAP@@XZ ; CTabUpJongDlg::GetMessageMap
PUBLIC	??_GCTabUpJongDlg@@UAEPAXI@Z			; CTabUpJongDlg::`scalar deleting destructor'
PUBLIC	?_OptionsStorage@?1??__local_stdio_scanf_options@@9@4_KA ; `__local_stdio_scanf_options'::`2'::_OptionsStorage
PUBLIC	??_C@_00CNPNBAHC@@				; `string'
PUBLIC	??_C@_0M@CBBNGGHM@PcTrMng?4dll@			; `string'
PUBLIC	??_C@_06NDLAHCHE@?$CFs?$CF08X@			; `string'
PUBLIC	??_C@_02EMFKHFLK@?$CFX@				; `string'
PUBLIC	??_R0?AVCObject@@@8				; CObject `RTTI Type Descriptor'
PUBLIC	??_R3CObject@@8					; CObject::`RTTI Class Hierarchy Descriptor'
PUBLIC	??_R2CObject@@8					; CObject::`RTTI Base Class Array'
PUBLIC	??_R1A@?0A@EA@CObject@@8			; CObject::`RTTI Base Class Descriptor at (0,-1,0,64)'
PUBLIC	??_R1A@?0A@EA@CWnd@@8				; CWnd::`RTTI Base Class Descriptor at (0,-1,0,64)'
PUBLIC	??_R0?AVCWnd@@@8				; CWnd `RTTI Type Descriptor'
PUBLIC	??_R3CWnd@@8					; CWnd::`RTTI Class Hierarchy Descriptor'
PUBLIC	??_R2CWnd@@8					; CWnd::`RTTI Base Class Array'
PUBLIC	??_R1A@?0A@EA@CCmdTarget@@8			; CCmdTarget::`RTTI Base Class Descriptor at (0,-1,0,64)'
PUBLIC	??_R0?AVCCmdTarget@@@8				; CCmdTarget `RTTI Type Descriptor'
PUBLIC	??_R3CCmdTarget@@8				; CCmdTarget::`RTTI Class Hierarchy Descriptor'
PUBLIC	??_R2CCmdTarget@@8				; CCmdTarget::`RTTI Base Class Array'
PUBLIC	??_R1A@?0A@EA@CDialog@@8			; CDialog::`RTTI Base Class Descriptor at (0,-1,0,64)'
PUBLIC	??_R0?AVCDialog@@@8				; CDialog `RTTI Type Descriptor'
PUBLIC	??_R3CDialog@@8					; CDialog::`RTTI Class Hierarchy Descriptor'
PUBLIC	??_R2CDialog@@8					; CDialog::`RTTI Base Class Array'
PUBLIC	??_7CTabUpJongDlg@@6B@				; CTabUpJongDlg::`vftable'
PUBLIC	??_C@_0BD@CMCCCNBF@HANAROIGATEMANAGER@		; `string'
PUBLIC	??_C@_06GDKHAHEH@?D?Z?$LN?$LK?G?G@		; `string'
PUBLIC	??_C@_03IPPENCFN@KRX@				; `string'
PUBLIC	??_C@_06MKHMLNFC@?D?Z?$LN?$LK?$LE?Z@		; `string'
PUBLIC	??_R4CTabUpJongDlg@@6B@				; CTabUpJongDlg::`RTTI Complete Object Locator'
PUBLIC	??_R0?AVCTabUpJongDlg@@@8			; CTabUpJongDlg `RTTI Type Descriptor'
PUBLIC	??_R3CTabUpJongDlg@@8				; CTabUpJongDlg::`RTTI Class Hierarchy Descriptor'
PUBLIC	??_R2CTabUpJongDlg@@8				; CTabUpJongDlg::`RTTI Base Class Array'
PUBLIC	??_R1A@?0A@EA@CTabUpJongDlg@@8			; CTabUpJongDlg::`RTTI Base Class Descriptor at (0,-1,0,64)'
PUBLIC	??_R1A@?0A@EA@CTabDlg@@8			; CTabDlg::`RTTI Base Class Descriptor at (0,-1,0,64)'
PUBLIC	??_R0?AVCTabDlg@@@8				; CTabDlg `RTTI Type Descriptor'
PUBLIC	??_R3CTabDlg@@8					; CTabDlg::`RTTI Class Hierarchy Descriptor'
PUBLIC	??_R2CTabDlg@@8					; CTabDlg::`RTTI Base Class Array'
PUBLIC	??_R1A@?0A@EA@CRscDlg@@8			; CRscDlg::`RTTI Base Class Descriptor at (0,-1,0,64)'
PUBLIC	??_R0?AVCRscDlg@@@8				; CRscDlg `RTTI Type Descriptor'
PUBLIC	??_R3CRscDlg@@8					; CRscDlg::`RTTI Class Hierarchy Descriptor'
PUBLIC	??_R2CRscDlg@@8					; CRscDlg::`RTTI Base Class Array'
EXTRN	??2@YAPAXI@Z:PROC				; operator new
EXTRN	??3@YAXPAX@Z:PROC				; operator delete
EXTRN	??3@YAXPAXI@Z:PROC				; operator delete
EXTRN	?__global_delete@@YAXPAXI@Z:PROC		; __global_delete
EXTRN	??_U@YAPAXI@Z:PROC				; operator new[]
EXTRN	??_V@YAXPAX@Z:PROC				; operator delete[]
EXTRN	__imp___invalid_parameter_noinfo:PROC
EXTRN	__imp___errno:PROC
EXTRN	__imp__GetEnvironmentVariableA@12:PROC
EXTRN	__imp__GetModuleHandleA@4:PROC
EXTRN	__imp__RegisterWindowMessageA@4:PROC
EXTRN	__imp__SendMessageA@16:PROC
EXTRN	__imp__IsWindow@4:PROC
EXTRN	__imp__EnableWindow@8:PROC
EXTRN	__imp__GetClientRect@8:PROC
EXTRN	__imp__GetWindowRect@8:PROC
EXTRN	__imp__GetParent@4:PROC
EXTRN	__imp____stdio_common_vsscanf:PROC
EXTRN	?AfxThrowMemoryException@@YGXXZ:PROC		; AfxThrowMemoryException
EXTRN	?AfxThrowInvalidArgException@@YGXXZ:PROC	; AfxThrowInvalidArgException
EXTRN	__imp_??0?$CStringT@DV?$StrTraitMFC_DLL@DV?$ChTraitsCRT@D@ATL@@@@@ATL@@QAE@XZ:PROC
EXTRN	__imp_??0?$CStringT@DV?$StrTraitMFC_DLL@DV?$ChTraitsCRT@D@ATL@@@@@ATL@@QAE@ABV01@@Z:PROC
EXTRN	__imp_??0?$CStringT@DV?$StrTraitMFC_DLL@DV?$ChTraitsCRT@D@ATL@@@@@ATL@@QAE@PBD@Z:PROC
EXTRN	__imp_??1?$CStringT@DV?$StrTraitMFC_DLL@DV?$ChTraitsCRT@D@ATL@@@@@ATL@@QAE@XZ:PROC
EXTRN	__imp_??4?$CStringT@DV?$StrTraitMFC_DLL@DV?$ChTraitsCRT@D@ATL@@@@@ATL@@QAEAAV01@ABV01@@Z:PROC
EXTRN	__imp_??4?$CStringT@DV?$StrTraitMFC_DLL@DV?$ChTraitsCRT@D@ATL@@@@@ATL@@QAEAAV01@PBD@Z:PROC
EXTRN	__imp_?TrimRight@?$CStringT@DV?$StrTraitMFC_DLL@DV?$ChTraitsCRT@D@ATL@@@@@ATL@@QAEAAV12@XZ:PROC
EXTRN	__imp_?Format@?$CStringT@DV?$StrTraitMFC_DLL@DV?$ChTraitsCRT@D@ATL@@@@@ATL@@QAAXPBDZZ:PROC
EXTRN	??0CStringArray@@QAE@XZ:PROC			; CStringArray::CStringArray
EXTRN	?DDX_Control@@YGXPAVCDataExchange@@HAAVCWnd@@@Z:PROC ; DDX_Control
EXTRN	?IsInvokeAllowed@CCmdTarget@@UAEHJ@Z:PROC	; CCmdTarget::IsInvokeAllowed
EXTRN	?GetDispatchIID@CCmdTarget@@UAEHPAU_GUID@@@Z:PROC ; CCmdTarget::GetDispatchIID
EXTRN	?GetTypeInfoCount@CCmdTarget@@UAEIXZ:PROC	; CCmdTarget::GetTypeInfoCount
EXTRN	?GetTypeLibCache@CCmdTarget@@UAEPAVCTypeLibCache@@XZ:PROC ; CCmdTarget::GetTypeLibCache
EXTRN	?GetTypeLib@CCmdTarget@@UAEJKPAPAUITypeLib@@@Z:PROC ; CCmdTarget::GetTypeLib
EXTRN	?GetCommandMap@CCmdTarget@@MBEPBUAFX_OLECMDMAP@@XZ:PROC ; CCmdTarget::GetCommandMap
EXTRN	?GetDispatchMap@CCmdTarget@@MBEPBUAFX_DISPMAP@@XZ:PROC ; CCmdTarget::GetDispatchMap
EXTRN	?GetConnectionMap@CCmdTarget@@MBEPBUAFX_CONNECTIONMAP@@XZ:PROC ; CCmdTarget::GetConnectionMap
EXTRN	?GetEventSinkMap@CCmdTarget@@MBEPBUAFX_EVENTSINKMAP@@XZ:PROC ; CCmdTarget::GetEventSinkMap
EXTRN	?OnCreateAggregates@CCmdTarget@@UAEHXZ:PROC	; CCmdTarget::OnCreateAggregates
EXTRN	?GetInterfaceHook@CCmdTarget@@UAEPAUIUnknown@@PBX@Z:PROC ; CCmdTarget::GetInterfaceHook
EXTRN	?GetExtraConnectionPoints@CCmdTarget@@MAEHPAVCPtrArray@@@Z:PROC ; CCmdTarget::GetExtraConnectionPoints
EXTRN	?GetConnectionHook@CCmdTarget@@MAEPAUIConnectionPoint@@ABU_GUID@@@Z:PROC ; CCmdTarget::GetConnectionHook
EXTRN	?FromHandle@CWnd@@SGPAV1@PAUHWND__@@@Z:PROC	; CWnd::FromHandle
EXTRN	?PreSubclassWindow@CWnd@@UAEXXZ:PROC		; CWnd::PreSubclassWindow
EXTRN	?Create@CWnd@@UAEHPBD0KABUtagRECT@@PAV1@IPAUCCreateContext@@@Z:PROC ; CWnd::Create
EXTRN	?CreateEx@CWnd@@UAEHKPBD0KHHHHPAUHWND__@@PAUHMENU__@@PAX@Z:PROC ; CWnd::CreateEx
EXTRN	?CreateEx@CWnd@@UAEHKPBD0KABUtagRECT@@PAV1@IPAX@Z:PROC ; CWnd::CreateEx
EXTRN	?DestroyWindow@CWnd@@UAEHXZ:PROC		; CWnd::DestroyWindow
EXTRN	?PreCreateWindow@CWnd@@UAEHAAUtagCREATESTRUCTA@@@Z:PROC ; CWnd::PreCreateWindow
EXTRN	?CalcWindowRect@CWnd@@UAEXPAUtagRECT@@I@Z:PROC	; CWnd::CalcWindowRect
EXTRN	?GetMenu@CWnd@@UBEPAVCMenu@@XZ:PROC		; CWnd::GetMenu
EXTRN	?SetMenu@CWnd@@UAEHPAVCMenu@@@Z:PROC		; CWnd::SetMenu
EXTRN	?MoveWindow@CWnd@@QAEXHHHHH@Z:PROC		; CWnd::MoveWindow
EXTRN	?ScreenToClient@CWnd@@QBEXPAUtagRECT@@@Z:PROC	; CWnd::ScreenToClient
EXTRN	?OnToolHitTest@CWnd@@UBEHVCPoint@@PAUtagTOOLINFOA@@@Z:PROC ; CWnd::OnToolHitTest
EXTRN	?GetScrollBarCtrl@CWnd@@UBEPAVCScrollBar@@H@Z:PROC ; CWnd::GetScrollBarCtrl
EXTRN	?WinHelpA@CWnd@@UAEXKI@Z:PROC			; CWnd::WinHelpA
EXTRN	?HtmlHelpA@CWnd@@UAEXKI@Z:PROC			; CWnd::HtmlHelpA
EXTRN	?WinHelpInternal@CWnd@@UAEXKI@Z:PROC		; CWnd::WinHelpInternal
EXTRN	?ContinueModal@CWnd@@UAEHXZ:PROC		; CWnd::ContinueModal
EXTRN	?EndModalLoop@CWnd@@UAEXH@Z:PROC		; CWnd::EndModalLoop
EXTRN	?OnDrawIconicThumbnailOrLivePreview@CWnd@@UAEXAAVCDC@@VCRect@@VCSize@@HAAH@Z:PROC ; CWnd::OnDrawIconicThumbnailOrLivePreview
EXTRN	?GetInterfaceMap@CWnd@@MBEPBUAFX_INTERFACEMAP@@XZ:PROC ; CWnd::GetInterfaceMap
EXTRN	?EnsureStdObj@CWnd@@UAEJXZ:PROC			; CWnd::EnsureStdObj
EXTRN	?get_accParent@CWnd@@UAEJPAPAUIDispatch@@@Z:PROC ; CWnd::get_accParent
EXTRN	?get_accChildCount@CWnd@@UAEJPAJ@Z:PROC		; CWnd::get_accChildCount
EXTRN	?get_accChild@CWnd@@UAEJUtagVARIANT@@PAPAUIDispatch@@@Z:PROC ; CWnd::get_accChild
EXTRN	?get_accName@CWnd@@UAEJUtagVARIANT@@PAPA_W@Z:PROC ; CWnd::get_accName
EXTRN	?get_accValue@CWnd@@UAEJUtagVARIANT@@PAPA_W@Z:PROC ; CWnd::get_accValue
EXTRN	?get_accDescription@CWnd@@UAEJUtagVARIANT@@PAPA_W@Z:PROC ; CWnd::get_accDescription
EXTRN	?get_accRole@CWnd@@UAEJUtagVARIANT@@PAU2@@Z:PROC ; CWnd::get_accRole
EXTRN	?get_accState@CWnd@@UAEJUtagVARIANT@@PAU2@@Z:PROC ; CWnd::get_accState
EXTRN	?get_accHelp@CWnd@@UAEJUtagVARIANT@@PAPA_W@Z:PROC ; CWnd::get_accHelp
EXTRN	?get_accHelpTopic@CWnd@@UAEJPAPA_WUtagVARIANT@@PAJ@Z:PROC ; CWnd::get_accHelpTopic
EXTRN	?get_accKeyboardShortcut@CWnd@@UAEJUtagVARIANT@@PAPA_W@Z:PROC ; CWnd::get_accKeyboardShortcut
EXTRN	?get_accFocus@CWnd@@UAEJPAUtagVARIANT@@@Z:PROC	; CWnd::get_accFocus
EXTRN	?get_accSelection@CWnd@@UAEJPAUtagVARIANT@@@Z:PROC ; CWnd::get_accSelection
EXTRN	?get_accDefaultAction@CWnd@@UAEJUtagVARIANT@@PAPA_W@Z:PROC ; CWnd::get_accDefaultAction
EXTRN	?accSelect@CWnd@@UAEJJUtagVARIANT@@@Z:PROC	; CWnd::accSelect
EXTRN	?accLocation@CWnd@@UAEJPAJ000UtagVARIANT@@@Z:PROC ; CWnd::accLocation
EXTRN	?accNavigate@CWnd@@UAEJJUtagVARIANT@@PAU2@@Z:PROC ; CWnd::accNavigate
EXTRN	?accHitTest@CWnd@@UAEJJJPAUtagVARIANT@@@Z:PROC	; CWnd::accHitTest
EXTRN	?accDoDefaultAction@CWnd@@UAEJUtagVARIANT@@@Z:PROC ; CWnd::accDoDefaultAction
EXTRN	?put_accName@CWnd@@UAEJUtagVARIANT@@PA_W@Z:PROC	; CWnd::put_accName
EXTRN	?put_accValue@CWnd@@UAEJUtagVARIANT@@PA_W@Z:PROC ; CWnd::put_accValue
EXTRN	?SetProxy@CWnd@@UAEJPAUIAccessibleProxy@@@Z:PROC ; CWnd::SetProxy
EXTRN	?CreateAccessibleProxy@CWnd@@UAEJIJPAJ@Z:PROC	; CWnd::CreateAccessibleProxy
EXTRN	?OnCommand@CWnd@@MAEHIJ@Z:PROC			; CWnd::OnCommand
EXTRN	?OnNotify@CWnd@@MAEHIJPAJ@Z:PROC		; CWnd::OnNotify
EXTRN	?GetSuperWndProcAddr@CWnd@@MAEPAP6GJPAUHWND__@@IIJ@ZXZ:PROC ; CWnd::GetSuperWndProcAddr
EXTRN	?OnAmbientProperty@CWnd@@UAEHPAVCOleControlSite@@JPAUtagVARIANT@@@Z:PROC ; CWnd::OnAmbientProperty
EXTRN	?WindowProc@CWnd@@MAEJIIJ@Z:PROC		; CWnd::WindowProc
EXTRN	?OnWndMsg@CWnd@@MAEHIIJPAJ@Z:PROC		; CWnd::OnWndMsg
EXTRN	?Default@CWnd@@IAEJXZ:PROC			; CWnd::Default
EXTRN	?DefWindowProcA@CWnd@@MAEJIIJ@Z:PROC		; CWnd::DefWindowProcA
EXTRN	?PostNcDestroy@CWnd@@MAEXXZ:PROC		; CWnd::PostNcDestroy
EXTRN	?OnChildNotify@CWnd@@MAEHIIJPAJ@Z:PROC		; CWnd::OnChildNotify
EXTRN	?OnTouchInputs@CWnd@@MAEHIPAUtagTOUCHINPUT@@@Z:PROC ; CWnd::OnTouchInputs
EXTRN	?OnTouchInput@CWnd@@MAEHVCPoint@@HHPAUtagTOUCHINPUT@@@Z:PROC ; CWnd::OnTouchInput
EXTRN	?GetGestureStatus@CWnd@@MAEKVCPoint@@@Z:PROC	; CWnd::GetGestureStatus
EXTRN	?OnGestureZoom@CWnd@@MAEHVCPoint@@J@Z:PROC	; CWnd::OnGestureZoom
EXTRN	?OnGesturePan@CWnd@@MAEHVCPoint@@0@Z:PROC	; CWnd::OnGesturePan
EXTRN	?OnGestureRotate@CWnd@@MAEHVCPoint@@N@Z:PROC	; CWnd::OnGestureRotate
EXTRN	?OnGestureTwoFingerTap@CWnd@@MAEHVCPoint@@@Z:PROC ; CWnd::OnGestureTwoFingerTap
EXTRN	?OnGesturePressAndTap@CWnd@@MAEHVCPoint@@J@Z:PROC ; CWnd::OnGesturePressAndTap
EXTRN	?ResizeDynamicLayout@CWnd@@MAEXXZ:PROC		; CWnd::ResizeDynamicLayout
EXTRN	?IsFrameWnd@CWnd@@UBEHXZ:PROC			; CWnd::IsFrameWnd
EXTRN	?OnFinalRelease@CWnd@@UAEXXZ:PROC		; CWnd::OnFinalRelease
EXTRN	?CreateControlContainer@CWnd@@MAEHPAPAVCOleControlContainer@@@Z:PROC ; CWnd::CreateControlContainer
EXTRN	?CreateControlSite@CWnd@@MAEHPAVCOleControlContainer@@PAPAVCOleControlSite@@IABU_GUID@@@Z:PROC ; CWnd::CreateControlSite
EXTRN	?GetRuntimeClass@CDialog@@UBEPAUCRuntimeClass@@XZ:PROC ; CDialog::GetRuntimeClass
EXTRN	?Create@CDialog@@UAEHPBDPAVCWnd@@@Z:PROC	; CDialog::Create
EXTRN	?CreateIndirect@CDialog@@UAEHPBUDLGTEMPLATE@@PAVCWnd@@PAX@Z:PROC ; CDialog::CreateIndirect
EXTRN	?CreateIndirect@CDialog@@UAEHPAXPAVCWnd@@@Z:PROC ; CDialog::CreateIndirect
EXTRN	?OnSetFont@CDialog@@UAEXPAVCFont@@@Z:PROC	; CDialog::OnSetFont
EXTRN	?OnOK@CDialog@@MAEXXZ:PROC			; CDialog::OnOK
EXTRN	?OnCancel@CDialog@@MAEXXZ:PROC			; CDialog::OnCancel
EXTRN	?OnCmdMsg@CDialog@@UAEHIHPAXPAUAFX_CMDHANDLERINFO@@@Z:PROC ; CDialog::OnCmdMsg
EXTRN	?CheckAutoCenter@CDialog@@UAEHXZ:PROC		; CDialog::CheckAutoCenter
EXTRN	?SetOccDialogInfo@CDialog@@MAEHPAU_AFX_OCC_DIALOG_INFO@@@Z:PROC ; CDialog::SetOccDialogInfo
EXTRN	?GetOccDialogInfo@CDialog@@MAEPAU_AFX_OCC_DIALOG_INFO@@XZ:PROC ; CDialog::GetOccDialogInfo
EXTRN	?PreInitDialog@CDialog@@MAEXXZ:PROC		; CDialog::PreInitDialog
EXTRN	?ChangeSkinColor@CRscDlg@@UAEXK@Z:PROC		; CRscDlg::ChangeSkinColor
EXTRN	?Create@CRscDlg@@UAEHIPAVCWnd@@@Z:PROC		; CRscDlg::Create
EXTRN	?DoModal@CRscDlg@@UAEHXZ:PROC			; CRscDlg::DoModal
EXTRN	??0CILButton@@QAE@XZ:PROC			; CILButton::CILButton
EXTRN	?FP_vSetImage@CILButton@@QAEXPAVCImageList@@HHHV?$CStringT@DV?$StrTraitMFC_DLL@DV?$ChTraitsCRT@D@ATL@@@@@ATL@@HHH@Z:PROC ; CILButton::FP_vSetImage
EXTRN	?SetCheck@CILButton@@QAEXH@Z:PROC		; CILButton::SetCheck
EXTRN	??1CILButton@@UAE@XZ:PROC			; CILButton::~CILButton
EXTRN	??0CTabDlg@@QAE@IPAVCWnd@@@Z:PROC		; CTabDlg::CTabDlg
EXTRN	??1CTabDlg@@UAE@XZ:PROC				; CTabDlg::~CTabDlg
EXTRN	?PreTranslateMessage@CTabDlg@@UAEHPAUtagMSG@@@Z:PROC ; CTabDlg::PreTranslateMessage
EXTRN	?DoDataExchange@CTabDlg@@MAEXPAVCDataExchange@@@Z:PROC ; CTabDlg::DoDataExchange
EXTRN	?OnInitDialog@CTabDlg@@MAEHXZ:PROC		; CTabDlg::OnInitDialog
EXTRN	?OnDestroy@CTabDlg@@IAEXXZ:PROC			; CTabDlg::OnDestroy
EXTRN	?GetThisMessageMap@CTabDlg@@KGPBUAFX_MSGMAP@@XZ:PROC ; CTabDlg::GetThisMessageMap
EXTRN	??0CVirtualListCtrl@@QAE@XZ:PROC		; CVirtualListCtrl::CVirtualListCtrl
EXTRN	?ChangeCode@CVirtualListCtrl@@QAEXV?$CStringT@DV?$StrTraitMFC_DLL@DV?$ChTraitsCRT@D@ATL@@@@@ATL@@@Z:PROC ; CVirtualListCtrl::ChangeCode
EXTRN	?Init_ListCtrl@CVirtualListCtrl@@QAEXXZ:PROC	; CVirtualListCtrl::Init_ListCtrl
EXTRN	??1CVirtualListCtrl@@UAE@XZ:PROC		; CVirtualListCtrl::~CVirtualListCtrl
EXTRN	??_ECTabUpJongDlg@@UAEPAXI@Z:PROC		; CTabUpJongDlg::`vector deleting destructor'
EXTRN	@__security_check_cookie@4:PROC
EXTRN	___CxxFrameHandler3:PROC
EXTRN	_memcpy:PROC
EXTRN	_memset:PROC
EXTRN	??_7type_info@@6B@:QWORD			; type_info::`vftable'
EXTRN	___security_cookie:DWORD
;	COMDAT ?_OptionsStorage@?1??__local_stdio_scanf_options@@9@4_KA
_BSS	SEGMENT
?_OptionsStorage@?1??__local_stdio_scanf_options@@9@4_KA DQ 01H DUP (?) ; `__local_stdio_scanf_options'::`2'::_OptionsStorage
_BSS	ENDS
_BSS	SEGMENT
?RMSG_GETSIGNAL_REAL@@3IB DD 01H DUP (?)		; RMSG_GETSIGNAL_REAL
?RMSG_CHARTMAIN@@3IB DD 01H DUP (?)			; RMSG_CHARTMAIN
?RMS_ANALYSIS_FUNC@@3IB DD 01H DUP (?)			; RMS_ANALYSIS_FUNC
?RMSG_GET_USERID@@3IB DD 01H DUP (?)			; RMSG_GET_USERID
?RMSG_KSDLLINFO@@3IB DD 01H DUP (?)			; RMSG_KSDLLINFO
?RMSG_GETINFO@@3IB DD 01H DUP (?)			; RMSG_GETINFO
?RMSG_CHANGE_SKINCOLOR@@3IB DD 01H DUP (?)		; RMSG_CHANGE_SKINCOLOR
?RMSG_GET_SKINCOLOR@@3IB DD 01H DUP (?)			; RMSG_GET_SKINCOLOR
?RMSG_CHANGE_CROSSLINE@@3IB DD 01H DUP (?)		; RMSG_CHANGE_CROSSLINE
_BSS	ENDS
CRT$XCU	SEGMENT
?RMSG_GETSIGNAL_REAL$initializer$@@3P6AXXZA DD FLAT:??__ERMSG_GETSIGNAL_REAL@@YAXXZ ; RMSG_GETSIGNAL_REAL$initializer$
CRT$XCU	ENDS
;	COMDAT ??_R2CRscDlg@@8
rdata$r	SEGMENT
??_R2CRscDlg@@8 DD FLAT:??_R1A@?0A@EA@CRscDlg@@8	; CRscDlg::`RTTI Base Class Array'
	DD	FLAT:??_R1A@?0A@EA@CDialog@@8
	DD	FLAT:??_R1A@?0A@EA@CWnd@@8
	DD	FLAT:??_R1A@?0A@EA@CCmdTarget@@8
	DD	FLAT:??_R1A@?0A@EA@CObject@@8
rdata$r	ENDS
;	COMDAT ??_R3CRscDlg@@8
rdata$r	SEGMENT
??_R3CRscDlg@@8 DD 00H					; CRscDlg::`RTTI Class Hierarchy Descriptor'
	DD	00H
	DD	05H
	DD	FLAT:??_R2CRscDlg@@8
rdata$r	ENDS
;	COMDAT ??_R0?AVCRscDlg@@@8
data$rs	SEGMENT
??_R0?AVCRscDlg@@@8 DD FLAT:??_7type_info@@6B@		; CRscDlg `RTTI Type Descriptor'
	DD	00H
	DB	'.?AVCRscDlg@@', 00H
data$rs	ENDS
;	COMDAT ??_R1A@?0A@EA@CRscDlg@@8
rdata$r	SEGMENT
??_R1A@?0A@EA@CRscDlg@@8 DD FLAT:??_R0?AVCRscDlg@@@8	; CRscDlg::`RTTI Base Class Descriptor at (0,-1,0,64)'
	DD	04H
	DD	00H
	DD	0ffffffffH
	DD	00H
	DD	040H
	DD	FLAT:??_R3CRscDlg@@8
rdata$r	ENDS
;	COMDAT ??_R2CTabDlg@@8
rdata$r	SEGMENT
??_R2CTabDlg@@8 DD FLAT:??_R1A@?0A@EA@CTabDlg@@8	; CTabDlg::`RTTI Base Class Array'
	DD	FLAT:??_R1A@?0A@EA@CRscDlg@@8
	DD	FLAT:??_R1A@?0A@EA@CDialog@@8
	DD	FLAT:??_R1A@?0A@EA@CWnd@@8
	DD	FLAT:??_R1A@?0A@EA@CCmdTarget@@8
	DD	FLAT:??_R1A@?0A@EA@CObject@@8
rdata$r	ENDS
;	COMDAT ??_R3CTabDlg@@8
rdata$r	SEGMENT
??_R3CTabDlg@@8 DD 00H					; CTabDlg::`RTTI Class Hierarchy Descriptor'
	DD	00H
	DD	06H
	DD	FLAT:??_R2CTabDlg@@8
rdata$r	ENDS
;	COMDAT ??_R0?AVCTabDlg@@@8
data$rs	SEGMENT
??_R0?AVCTabDlg@@@8 DD FLAT:??_7type_info@@6B@		; CTabDlg `RTTI Type Descriptor'
	DD	00H
	DB	'.?AVCTabDlg@@', 00H
data$rs	ENDS
;	COMDAT ??_R1A@?0A@EA@CTabDlg@@8
rdata$r	SEGMENT
??_R1A@?0A@EA@CTabDlg@@8 DD FLAT:??_R0?AVCTabDlg@@@8	; CTabDlg::`RTTI Base Class Descriptor at (0,-1,0,64)'
	DD	05H
	DD	00H
	DD	0ffffffffH
	DD	00H
	DD	040H
	DD	FLAT:??_R3CTabDlg@@8
rdata$r	ENDS
;	COMDAT ??_R1A@?0A@EA@CTabUpJongDlg@@8
rdata$r	SEGMENT
??_R1A@?0A@EA@CTabUpJongDlg@@8 DD FLAT:??_R0?AVCTabUpJongDlg@@@8 ; CTabUpJongDlg::`RTTI Base Class Descriptor at (0,-1,0,64)'
	DD	06H
	DD	00H
	DD	0ffffffffH
	DD	00H
	DD	040H
	DD	FLAT:??_R3CTabUpJongDlg@@8
rdata$r	ENDS
;	COMDAT ??_R2CTabUpJongDlg@@8
rdata$r	SEGMENT
??_R2CTabUpJongDlg@@8 DD FLAT:??_R1A@?0A@EA@CTabUpJongDlg@@8 ; CTabUpJongDlg::`RTTI Base Class Array'
	DD	FLAT:??_R1A@?0A@EA@CTabDlg@@8
	DD	FLAT:??_R1A@?0A@EA@CRscDlg@@8
	DD	FLAT:??_R1A@?0A@EA@CDialog@@8
	DD	FLAT:??_R1A@?0A@EA@CWnd@@8
	DD	FLAT:??_R1A@?0A@EA@CCmdTarget@@8
	DD	FLAT:??_R1A@?0A@EA@CObject@@8
rdata$r	ENDS
;	COMDAT ??_R3CTabUpJongDlg@@8
rdata$r	SEGMENT
??_R3CTabUpJongDlg@@8 DD 00H				; CTabUpJongDlg::`RTTI Class Hierarchy Descriptor'
	DD	00H
	DD	07H
	DD	FLAT:??_R2CTabUpJongDlg@@8
rdata$r	ENDS
;	COMDAT ??_R0?AVCTabUpJongDlg@@@8
data$rs	SEGMENT
??_R0?AVCTabUpJongDlg@@@8 DD FLAT:??_7type_info@@6B@	; CTabUpJongDlg `RTTI Type Descriptor'
	DD	00H
	DB	'.?AVCTabUpJongDlg@@', 00H
data$rs	ENDS
;	COMDAT ??_R4CTabUpJongDlg@@6B@
rdata$r	SEGMENT
??_R4CTabUpJongDlg@@6B@ DD 00H				; CTabUpJongDlg::`RTTI Complete Object Locator'
	DD	00H
	DD	00H
	DD	FLAT:??_R0?AVCTabUpJongDlg@@@8
	DD	FLAT:??_R3CTabUpJongDlg@@8
rdata$r	ENDS
;	COMDAT ??_C@_06MKHMLNFC@?D?Z?$LN?$LK?$LE?Z@
CONST	SEGMENT
??_C@_06MKHMLNFC@?D?Z?$LN?$LK?$LE?Z@ DB 0c4H, 0daH, 0bdH, 0baH, 0b4H, 0daH
	DB	00H						; `string'
CONST	ENDS
;	COMDAT ??_C@_03IPPENCFN@KRX@
CONST	SEGMENT
??_C@_03IPPENCFN@KRX@ DB 'KRX', 00H			; `string'
CONST	ENDS
;	COMDAT ??_C@_06GDKHAHEH@?D?Z?$LN?$LK?G?G@
CONST	SEGMENT
??_C@_06GDKHAHEH@?D?Z?$LN?$LK?G?G@ DB 0c4H, 0daH, 0bdH, 0baH, 0c7H, 0c7H, 00H ; `string'
CONST	ENDS
;	COMDAT ??_C@_0BD@CMCCCNBF@HANAROIGATEMANAGER@
CONST	SEGMENT
??_C@_0BD@CMCCCNBF@HANAROIGATEMANAGER@ DB 'HANAROIGATEMANAGER', 00H ; `string'
CONST	ENDS
;	COMDAT ?messageMap@?1??GetThisMessageMap@CTabUpJongDlg@@KGPBUAFX_MSGMAP@@XZ@4U3@B
CONST	SEGMENT
?messageMap@?1??GetThisMessageMap@CTabUpJongDlg@@KGPBUAFX_MSGMAP@@XZ@4U3@B DD FLAT:?GetThisMessageMap@CTabDlg@@KGPBUAFX_MSGMAP@@XZ ; `CTabUpJongDlg::GetThisMessageMap'::`2'::messageMap
	DD	FLAT:?_messageEntries@?1??GetThisMessageMap@CTabUpJongDlg@@KGPBUAFX_MSGMAP@@XZ@4QBUAFX_MSGMAP_ENTRY@@B
CONST	ENDS
;	COMDAT ?_messageEntries@?1??GetThisMessageMap@CTabUpJongDlg@@KGPBUAFX_MSGMAP@@XZ@4QBUAFX_MSGMAP_ENTRY@@B
CONST	SEGMENT
?_messageEntries@?1??GetThisMessageMap@CTabUpJongDlg@@KGPBUAFX_MSGMAP@@XZ@4QBUAFX_MSGMAP_ENTRY@@B DD 0111H ; `CTabUpJongDlg::GetThisMessageMap'::`2'::_messageEntries
	DD	00H
	DD	01874H
	DD	01874H
	DD	03aH
	DD	FLAT:?OnChkKospi@CTabUpJongDlg@@IAEXXZ
	DD	0111H
	DD	00H
	DD	01876H
	DD	01876H
	DD	03aH
	DD	FLAT:?OnChkK200@CTabUpJongDlg@@IAEXXZ
	DD	0111H
	DD	00H
	DD	01875H
	DD	01875H
	DD	03aH
	DD	FLAT:?OnChkKosdaq@CTabUpJongDlg@@IAEXXZ
	DD	05H
	DD	00H
	DD	00H
	DD	00H
	DD	01aH
	DD	FLAT:?OnSize@CTabUpJongDlg@@IAEXIHH@Z
	DD	02H
	DD	00H
	DD	00H
	DD	00H
	DD	013H
	DD	FLAT:?OnDestroy@CTabUpJongDlg@@IAEXXZ
	DD	00H
	DD	00H
	DD	00H
	DD	00H
	DD	00H
	DD	00H
CONST	ENDS
;	COMDAT ??_7CTabUpJongDlg@@6B@
CONST	SEGMENT
??_7CTabUpJongDlg@@6B@ DD FLAT:??_R4CTabUpJongDlg@@6B@	; CTabUpJongDlg::`vftable'
	DD	FLAT:?GetRuntimeClass@CDialog@@UBEPAUCRuntimeClass@@XZ
	DD	FLAT:??_ECTabUpJongDlg@@UAEPAXI@Z
	DD	FLAT:?Serialize@CObject@@UAEXAAVCArchive@@@Z
	DD	FLAT:?AssertValid@CObject@@UBEXXZ
	DD	FLAT:?Dump@CObject@@UBEXAAVCDumpContext@@@Z
	DD	FLAT:?OnCmdMsg@CDialog@@UAEHIHPAXPAUAFX_CMDHANDLERINFO@@@Z
	DD	FLAT:?OnFinalRelease@CWnd@@UAEXXZ
	DD	FLAT:?IsInvokeAllowed@CCmdTarget@@UAEHJ@Z
	DD	FLAT:?GetDispatchIID@CCmdTarget@@UAEHPAU_GUID@@@Z
	DD	FLAT:?GetTypeInfoCount@CCmdTarget@@UAEIXZ
	DD	FLAT:?GetTypeLibCache@CCmdTarget@@UAEPAVCTypeLibCache@@XZ
	DD	FLAT:?GetTypeLib@CCmdTarget@@UAEJKPAPAUITypeLib@@@Z
	DD	FLAT:?GetMessageMap@CTabUpJongDlg@@MBEPBUAFX_MSGMAP@@XZ
	DD	FLAT:?GetCommandMap@CCmdTarget@@MBEPBUAFX_OLECMDMAP@@XZ
	DD	FLAT:?GetDispatchMap@CCmdTarget@@MBEPBUAFX_DISPMAP@@XZ
	DD	FLAT:?GetConnectionMap@CCmdTarget@@MBEPBUAFX_CONNECTIONMAP@@XZ
	DD	FLAT:?GetInterfaceMap@CWnd@@MBEPBUAFX_INTERFACEMAP@@XZ
	DD	FLAT:?GetEventSinkMap@CCmdTarget@@MBEPBUAFX_EVENTSINKMAP@@XZ
	DD	FLAT:?OnCreateAggregates@CCmdTarget@@UAEHXZ
	DD	FLAT:?GetInterfaceHook@CCmdTarget@@UAEPAUIUnknown@@PBX@Z
	DD	FLAT:?GetExtraConnectionPoints@CCmdTarget@@MAEHPAVCPtrArray@@@Z
	DD	FLAT:?GetConnectionHook@CCmdTarget@@MAEPAUIConnectionPoint@@ABU_GUID@@@Z
	DD	FLAT:?PreSubclassWindow@CWnd@@UAEXXZ
	DD	FLAT:?Create@CWnd@@UAEHPBD0KABUtagRECT@@PAV1@IPAUCCreateContext@@@Z
	DD	FLAT:?CreateEx@CWnd@@UAEHKPBD0KABUtagRECT@@PAV1@IPAX@Z
	DD	FLAT:?CreateEx@CWnd@@UAEHKPBD0KHHHHPAUHWND__@@PAUHMENU__@@PAX@Z
	DD	FLAT:?DestroyWindow@CWnd@@UAEHXZ
	DD	FLAT:?PreCreateWindow@CWnd@@UAEHAAUtagCREATESTRUCTA@@@Z
	DD	FLAT:?CalcWindowRect@CWnd@@UAEXPAUtagRECT@@I@Z
	DD	FLAT:?GetMenu@CWnd@@UBEPAVCMenu@@XZ
	DD	FLAT:?SetMenu@CWnd@@UAEHPAVCMenu@@@Z
	DD	FLAT:?OnToolHitTest@CWnd@@UBEHVCPoint@@PAUtagTOOLINFOA@@@Z
	DD	FLAT:?GetScrollBarCtrl@CWnd@@UBEPAVCScrollBar@@H@Z
	DD	FLAT:?WinHelpA@CWnd@@UAEXKI@Z
	DD	FLAT:?HtmlHelpA@CWnd@@UAEXKI@Z
	DD	FLAT:?WinHelpInternal@CWnd@@UAEXKI@Z
	DD	FLAT:?ContinueModal@CWnd@@UAEHXZ
	DD	FLAT:?EndModalLoop@CWnd@@UAEXH@Z
	DD	FLAT:?OnDrawIconicThumbnailOrLivePreview@CWnd@@UAEXAAVCDC@@VCRect@@VCSize@@HAAH@Z
	DD	FLAT:?EnsureStdObj@CWnd@@UAEJXZ
	DD	FLAT:?get_accParent@CWnd@@UAEJPAPAUIDispatch@@@Z
	DD	FLAT:?get_accChildCount@CWnd@@UAEJPAJ@Z
	DD	FLAT:?get_accChild@CWnd@@UAEJUtagVARIANT@@PAPAUIDispatch@@@Z
	DD	FLAT:?get_accName@CWnd@@UAEJUtagVARIANT@@PAPA_W@Z
	DD	FLAT:?get_accValue@CWnd@@UAEJUtagVARIANT@@PAPA_W@Z
	DD	FLAT:?get_accDescription@CWnd@@UAEJUtagVARIANT@@PAPA_W@Z
	DD	FLAT:?get_accRole@CWnd@@UAEJUtagVARIANT@@PAU2@@Z
	DD	FLAT:?get_accState@CWnd@@UAEJUtagVARIANT@@PAU2@@Z
	DD	FLAT:?get_accHelp@CWnd@@UAEJUtagVARIANT@@PAPA_W@Z
	DD	FLAT:?get_accHelpTopic@CWnd@@UAEJPAPA_WUtagVARIANT@@PAJ@Z
	DD	FLAT:?get_accKeyboardShortcut@CWnd@@UAEJUtagVARIANT@@PAPA_W@Z
	DD	FLAT:?get_accFocus@CWnd@@UAEJPAUtagVARIANT@@@Z
	DD	FLAT:?get_accSelection@CWnd@@UAEJPAUtagVARIANT@@@Z
	DD	FLAT:?get_accDefaultAction@CWnd@@UAEJUtagVARIANT@@PAPA_W@Z
	DD	FLAT:?accSelect@CWnd@@UAEJJUtagVARIANT@@@Z
	DD	FLAT:?accLocation@CWnd@@UAEJPAJ000UtagVARIANT@@@Z
	DD	FLAT:?accNavigate@CWnd@@UAEJJUtagVARIANT@@PAU2@@Z
	DD	FLAT:?accHitTest@CWnd@@UAEJJJPAUtagVARIANT@@@Z
	DD	FLAT:?accDoDefaultAction@CWnd@@UAEJUtagVARIANT@@@Z
	DD	FLAT:?put_accName@CWnd@@UAEJUtagVARIANT@@PA_W@Z
	DD	FLAT:?put_accValue@CWnd@@UAEJUtagVARIANT@@PA_W@Z
	DD	FLAT:?SetProxy@CWnd@@UAEJPAUIAccessibleProxy@@@Z
	DD	FLAT:?CreateAccessibleProxy@CWnd@@UAEJIJPAJ@Z
	DD	FLAT:?OnCommand@CWnd@@MAEHIJ@Z
	DD	FLAT:?OnNotify@CWnd@@MAEHIJPAJ@Z
	DD	FLAT:?GetSuperWndProcAddr@CWnd@@MAEPAP6GJPAUHWND__@@IIJ@ZXZ
	DD	FLAT:?DoDataExchange@CTabUpJongDlg@@MAEXPAVCDataExchange@@@Z
	DD	FLAT:?BeginModalState@CWnd@@UAEXXZ
	DD	FLAT:?EndModalState@CWnd@@UAEXXZ
	DD	FLAT:?PreTranslateMessage@CTabUpJongDlg@@UAEHPAUtagMSG@@@Z
	DD	FLAT:?OnAmbientProperty@CWnd@@UAEHPAVCOleControlSite@@JPAUtagVARIANT@@@Z
	DD	FLAT:?WindowProc@CTabUpJongDlg@@MAEJIIJ@Z
	DD	FLAT:?OnWndMsg@CWnd@@MAEHIIJPAJ@Z
	DD	FLAT:?DefWindowProcA@CWnd@@MAEJIIJ@Z
	DD	FLAT:?PostNcDestroy@CWnd@@MAEXXZ
	DD	FLAT:?OnChildNotify@CWnd@@MAEHIIJPAJ@Z
	DD	FLAT:?OnTouchInputs@CWnd@@MAEHIPAUtagTOUCHINPUT@@@Z
	DD	FLAT:?OnTouchInput@CWnd@@MAEHVCPoint@@HHPAUtagTOUCHINPUT@@@Z
	DD	FLAT:?GetGestureStatus@CWnd@@MAEKVCPoint@@@Z
	DD	FLAT:?OnGestureZoom@CWnd@@MAEHVCPoint@@J@Z
	DD	FLAT:?OnGesturePan@CWnd@@MAEHVCPoint@@0@Z
	DD	FLAT:?OnGestureRotate@CWnd@@MAEHVCPoint@@N@Z
	DD	FLAT:?OnGestureTwoFingerTap@CWnd@@MAEHVCPoint@@@Z
	DD	FLAT:?OnGesturePressAndTap@CWnd@@MAEHVCPoint@@J@Z
	DD	FLAT:?ResizeDynamicLayout@CWnd@@MAEXXZ
	DD	FLAT:?CheckAutoCenter@CDialog@@UAEHXZ
	DD	FLAT:?IsFrameWnd@CWnd@@UBEHXZ
	DD	FLAT:?CreateControlContainer@CWnd@@MAEHPAPAVCOleControlContainer@@@Z
	DD	FLAT:?CreateControlSite@CWnd@@MAEHPAVCOleControlContainer@@PAPAVCOleControlSite@@IABU_GUID@@@Z
	DD	FLAT:?SetOccDialogInfo@CDialog@@MAEHPAU_AFX_OCC_DIALOG_INFO@@@Z
	DD	FLAT:?GetOccDialogInfo@CDialog@@MAEPAU_AFX_OCC_DIALOG_INFO@@XZ
	DD	FLAT:?Create@CRscDlg@@UAEHIPAVCWnd@@@Z
	DD	FLAT:?Create@CDialog@@UAEHPBDPAVCWnd@@@Z
	DD	FLAT:?CreateIndirect@CDialog@@UAEHPAXPAVCWnd@@@Z
	DD	FLAT:?CreateIndirect@CDialog@@UAEHPBUDLGTEMPLATE@@PAVCWnd@@PAX@Z
	DD	FLAT:?DoModal@CRscDlg@@UAEHXZ
	DD	FLAT:?OnInitDialog@CTabUpJongDlg@@MAEHXZ
	DD	FLAT:?OnSetFont@CDialog@@UAEXPAVCFont@@@Z
	DD	FLAT:?OnOK@CDialog@@MAEXXZ
	DD	FLAT:?OnCancel@CDialog@@MAEXXZ
	DD	FLAT:?PreInitDialog@CDialog@@MAEXXZ
	DD	FLAT:?ChangeSkinColor@CRscDlg@@UAEXK@Z
	DD	FLAT:?SetBkColor@CRscDlg@@UAEXK@Z
	DD	FLAT:?ReceiveData@CTabDlg@@UAEXPAUHWND__@@PBD11PAXJ@Z
	DD	FLAT:?SetRealPriceData@CTabDlg@@UAEXPAX@Z
	DD	FLAT:?ReceiveDataFromOutSide@CTabDlg@@UAEXXZ
	DD	FLAT:?SetCodeFromOutSide@CTabDlg@@UAEXPBD@Z
	DD	FLAT:?GetRectOfCtrl@CTabDlg@@MAE?AVCRect@@HH@Z
CONST	ENDS
;	COMDAT ??_R2CDialog@@8
rdata$r	SEGMENT
??_R2CDialog@@8 DD FLAT:??_R1A@?0A@EA@CDialog@@8	; CDialog::`RTTI Base Class Array'
	DD	FLAT:??_R1A@?0A@EA@CWnd@@8
	DD	FLAT:??_R1A@?0A@EA@CCmdTarget@@8
	DD	FLAT:??_R1A@?0A@EA@CObject@@8
rdata$r	ENDS
;	COMDAT ??_R3CDialog@@8
rdata$r	SEGMENT
??_R3CDialog@@8 DD 00H					; CDialog::`RTTI Class Hierarchy Descriptor'
	DD	00H
	DD	04H
	DD	FLAT:??_R2CDialog@@8
rdata$r	ENDS
;	COMDAT ??_R0?AVCDialog@@@8
data$rs	SEGMENT
??_R0?AVCDialog@@@8 DD FLAT:??_7type_info@@6B@		; CDialog `RTTI Type Descriptor'
	DD	00H
	DB	'.?AVCDialog@@', 00H
data$rs	ENDS
;	COMDAT ??_R1A@?0A@EA@CDialog@@8
rdata$r	SEGMENT
??_R1A@?0A@EA@CDialog@@8 DD FLAT:??_R0?AVCDialog@@@8	; CDialog::`RTTI Base Class Descriptor at (0,-1,0,64)'
	DD	03H
	DD	00H
	DD	0ffffffffH
	DD	00H
	DD	040H
	DD	FLAT:??_R3CDialog@@8
rdata$r	ENDS
;	COMDAT ??_R2CCmdTarget@@8
rdata$r	SEGMENT
??_R2CCmdTarget@@8 DD FLAT:??_R1A@?0A@EA@CCmdTarget@@8	; CCmdTarget::`RTTI Base Class Array'
	DD	FLAT:??_R1A@?0A@EA@CObject@@8
rdata$r	ENDS
;	COMDAT ??_R3CCmdTarget@@8
rdata$r	SEGMENT
??_R3CCmdTarget@@8 DD 00H				; CCmdTarget::`RTTI Class Hierarchy Descriptor'
	DD	00H
	DD	02H
	DD	FLAT:??_R2CCmdTarget@@8
rdata$r	ENDS
;	COMDAT ??_R0?AVCCmdTarget@@@8
data$rs	SEGMENT
??_R0?AVCCmdTarget@@@8 DD FLAT:??_7type_info@@6B@	; CCmdTarget `RTTI Type Descriptor'
	DD	00H
	DB	'.?AVCCmdTarget@@', 00H
data$rs	ENDS
;	COMDAT ??_R1A@?0A@EA@CCmdTarget@@8
rdata$r	SEGMENT
??_R1A@?0A@EA@CCmdTarget@@8 DD FLAT:??_R0?AVCCmdTarget@@@8 ; CCmdTarget::`RTTI Base Class Descriptor at (0,-1,0,64)'
	DD	01H
	DD	00H
	DD	0ffffffffH
	DD	00H
	DD	040H
	DD	FLAT:??_R3CCmdTarget@@8
rdata$r	ENDS
;	COMDAT ??_R2CWnd@@8
rdata$r	SEGMENT
??_R2CWnd@@8 DD	FLAT:??_R1A@?0A@EA@CWnd@@8		; CWnd::`RTTI Base Class Array'
	DD	FLAT:??_R1A@?0A@EA@CCmdTarget@@8
	DD	FLAT:??_R1A@?0A@EA@CObject@@8
rdata$r	ENDS
;	COMDAT ??_R3CWnd@@8
rdata$r	SEGMENT
??_R3CWnd@@8 DD	00H					; CWnd::`RTTI Class Hierarchy Descriptor'
	DD	00H
	DD	03H
	DD	FLAT:??_R2CWnd@@8
rdata$r	ENDS
;	COMDAT ??_R0?AVCWnd@@@8
data$rs	SEGMENT
??_R0?AVCWnd@@@8 DD FLAT:??_7type_info@@6B@		; CWnd `RTTI Type Descriptor'
	DD	00H
	DB	'.?AVCWnd@@', 00H
data$rs	ENDS
;	COMDAT ??_R1A@?0A@EA@CWnd@@8
rdata$r	SEGMENT
??_R1A@?0A@EA@CWnd@@8 DD FLAT:??_R0?AVCWnd@@@8		; CWnd::`RTTI Base Class Descriptor at (0,-1,0,64)'
	DD	02H
	DD	00H
	DD	0ffffffffH
	DD	00H
	DD	040H
	DD	FLAT:??_R3CWnd@@8
rdata$r	ENDS
;	COMDAT ??_R1A@?0A@EA@CObject@@8
rdata$r	SEGMENT
??_R1A@?0A@EA@CObject@@8 DD FLAT:??_R0?AVCObject@@@8	; CObject::`RTTI Base Class Descriptor at (0,-1,0,64)'
	DD	00H
	DD	00H
	DD	0ffffffffH
	DD	00H
	DD	040H
	DD	FLAT:??_R3CObject@@8
rdata$r	ENDS
;	COMDAT ??_R2CObject@@8
rdata$r	SEGMENT
??_R2CObject@@8 DD FLAT:??_R1A@?0A@EA@CObject@@8	; CObject::`RTTI Base Class Array'
rdata$r	ENDS
;	COMDAT ??_R3CObject@@8
rdata$r	SEGMENT
??_R3CObject@@8 DD 00H					; CObject::`RTTI Class Hierarchy Descriptor'
	DD	00H
	DD	01H
	DD	FLAT:??_R2CObject@@8
rdata$r	ENDS
;	COMDAT ??_R0?AVCObject@@@8
data$rs	SEGMENT
??_R0?AVCObject@@@8 DD FLAT:??_7type_info@@6B@		; CObject `RTTI Type Descriptor'
	DD	00H
	DB	'.?AVCObject@@', 00H
data$rs	ENDS
;	COMDAT ??_C@_02EMFKHFLK@?$CFX@
CONST	SEGMENT
??_C@_02EMFKHFLK@?$CFX@ DB '%X', 00H			; `string'
CONST	ENDS
;	COMDAT ??_C@_06NDLAHCHE@?$CFs?$CF08X@
CONST	SEGMENT
??_C@_06NDLAHCHE@?$CFs?$CF08X@ DB '%s%08X', 00H		; `string'
CONST	ENDS
;	COMDAT ??_C@_0M@CBBNGGHM@PcTrMng?4dll@
CONST	SEGMENT
??_C@_0M@CBBNGGHM@PcTrMng?4dll@ DB 'PcTrMng.dll', 00H	; `string'
CONST	ENDS
;	COMDAT ??_C@_00CNPNBAHC@@
CONST	SEGMENT
??_C@_00CNPNBAHC@@ DB 00H				; `string'
CONST	ENDS
;	COMDAT xdata$x
xdata$x	SEGMENT
__unwindtable$?OnChkK200@CTabUpJongDlg@@IAEXXZ DD 0ffffffffH
	DD	FLAT:__unwindfunclet$?OnChkK200@CTabUpJongDlg@@IAEXXZ$0
	DD	0ffffffffH
	DD	FLAT:__unwindfunclet$?OnChkK200@CTabUpJongDlg@@IAEXXZ$1
	DD	0ffffffffH
	DD	FLAT:__unwindfunclet$?OnChkK200@CTabUpJongDlg@@IAEXXZ$2
__ehfuncinfo$?OnChkK200@CTabUpJongDlg@@IAEXXZ DD 019930522H
	DD	03H
	DD	FLAT:__unwindtable$?OnChkK200@CTabUpJongDlg@@IAEXXZ
	DD	2 DUP(00H)
	DD	2 DUP(00H)
	DD	00H
	DD	01H
xdata$x	ENDS
;	COMDAT xdata$x
xdata$x	SEGMENT
__unwindtable$?OnChkKosdaq@CTabUpJongDlg@@IAEXXZ DD 0ffffffffH
	DD	FLAT:__unwindfunclet$?OnChkKosdaq@CTabUpJongDlg@@IAEXXZ$0
	DD	0ffffffffH
	DD	FLAT:__unwindfunclet$?OnChkKosdaq@CTabUpJongDlg@@IAEXXZ$1
	DD	0ffffffffH
	DD	FLAT:__unwindfunclet$?OnChkKosdaq@CTabUpJongDlg@@IAEXXZ$2
__ehfuncinfo$?OnChkKosdaq@CTabUpJongDlg@@IAEXXZ DD 019930522H
	DD	03H
	DD	FLAT:__unwindtable$?OnChkKosdaq@CTabUpJongDlg@@IAEXXZ
	DD	2 DUP(00H)
	DD	2 DUP(00H)
	DD	00H
	DD	01H
xdata$x	ENDS
;	COMDAT xdata$x
xdata$x	SEGMENT
__unwindtable$?OnChkKospi@CTabUpJongDlg@@IAEXXZ DD 0ffffffffH
	DD	FLAT:__unwindfunclet$?OnChkKospi@CTabUpJongDlg@@IAEXXZ$0
	DD	0ffffffffH
	DD	FLAT:__unwindfunclet$?OnChkKospi@CTabUpJongDlg@@IAEXXZ$1
	DD	0ffffffffH
	DD	FLAT:__unwindfunclet$?OnChkKospi@CTabUpJongDlg@@IAEXXZ$2
__ehfuncinfo$?OnChkKospi@CTabUpJongDlg@@IAEXXZ DD 019930522H
	DD	03H
	DD	FLAT:__unwindtable$?OnChkKospi@CTabUpJongDlg@@IAEXXZ
	DD	2 DUP(00H)
	DD	2 DUP(00H)
	DD	00H
	DD	01H
xdata$x	ENDS
;	COMDAT xdata$x
xdata$x	SEGMENT
__unwindtable$?OnInitDialog@CTabUpJongDlg@@MAEHXZ DD 0ffffffffH
	DD	FLAT:__unwindfunclet$?OnInitDialog@CTabUpJongDlg@@MAEHXZ$0
__ehfuncinfo$?OnInitDialog@CTabUpJongDlg@@MAEHXZ DD 019930522H
	DD	01H
	DD	FLAT:__unwindtable$?OnInitDialog@CTabUpJongDlg@@MAEHXZ
	DD	2 DUP(00H)
	DD	2 DUP(00H)
	DD	00H
	DD	01H
xdata$x	ENDS
;	COMDAT xdata$x
xdata$x	SEGMENT
__unwindtable$?SetKeyCodeChange@CTabUpJongDlg@@QAEXIJ@Z DD 0ffffffffH
	DD	FLAT:__unwindfunclet$?SetKeyCodeChange@CTabUpJongDlg@@QAEXIJ@Z$0
__ehfuncinfo$?SetKeyCodeChange@CTabUpJongDlg@@QAEXIJ@Z DD 019930522H
	DD	01H
	DD	FLAT:__unwindtable$?SetKeyCodeChange@CTabUpJongDlg@@QAEXIJ@Z
	DD	2 DUP(00H)
	DD	2 DUP(00H)
	DD	00H
	DD	01H
xdata$x	ENDS
;	COMDAT xdata$x
xdata$x	SEGMENT
__ehfuncinfo$??0CTabUpJongDlg@@QAE@PAVCWnd@@@Z DD 019930522H
	DD	06H
	DD	FLAT:__unwindtable$??0CTabUpJongDlg@@QAE@PAVCWnd@@@Z
	DD	2 DUP(00H)
	DD	2 DUP(00H)
	DD	00H
	DD	01H
__unwindtable$??0CTabUpJongDlg@@QAE@PAVCWnd@@@Z DD 0ffffffffH
	DD	FLAT:__unwindfunclet$??0CTabUpJongDlg@@QAE@PAVCWnd@@@Z$0
	DD	00H
	DD	FLAT:__unwindfunclet$??0CTabUpJongDlg@@QAE@PAVCWnd@@@Z$1
	DD	01H
	DD	FLAT:__unwindfunclet$??0CTabUpJongDlg@@QAE@PAVCWnd@@@Z$2
	DD	02H
	DD	FLAT:__unwindfunclet$??0CTabUpJongDlg@@QAE@PAVCWnd@@@Z$3
	DD	03H
	DD	FLAT:__unwindfunclet$??0CTabUpJongDlg@@QAE@PAVCWnd@@@Z$4
	DD	04H
	DD	FLAT:__unwindfunclet$??0CTabUpJongDlg@@QAE@PAVCWnd@@@Z$5
xdata$x	ENDS
CRT$XCU	SEGMENT
?RMSG_CHARTMAIN$initializer$@@3P6AXXZA DD FLAT:??__ERMSG_CHARTMAIN@@YAXXZ ; RMSG_CHARTMAIN$initializer$
CRT$XCU	ENDS
CRT$XCU	SEGMENT
?RMS_ANALYSIS_FUNC$initializer$@@3P6AXXZA DD FLAT:??__ERMS_ANALYSIS_FUNC@@YAXXZ ; RMS_ANALYSIS_FUNC$initializer$
CRT$XCU	ENDS
CRT$XCU	SEGMENT
?RMSG_GET_USERID$initializer$@@3P6AXXZA DD FLAT:??__ERMSG_GET_USERID@@YAXXZ ; RMSG_GET_USERID$initializer$
CRT$XCU	ENDS
CRT$XCU	SEGMENT
?RMSG_KSDLLINFO$initializer$@@3P6AXXZA DD FLAT:??__ERMSG_KSDLLINFO@@YAXXZ ; RMSG_KSDLLINFO$initializer$
CRT$XCU	ENDS
CRT$XCU	SEGMENT
?RMSG_GETINFO$initializer$@@3P6AXXZA DD FLAT:??__ERMSG_GETINFO@@YAXXZ ; RMSG_GETINFO$initializer$
CRT$XCU	ENDS
CRT$XCU	SEGMENT
?RMSG_CHANGE_SKINCOLOR$initializer$@@3P6AXXZA DD FLAT:??__ERMSG_CHANGE_SKINCOLOR@@YAXXZ ; RMSG_CHANGE_SKINCOLOR$initializer$
CRT$XCU	ENDS
CRT$XCU	SEGMENT
?RMSG_GET_SKINCOLOR$initializer$@@3P6AXXZA DD FLAT:??__ERMSG_GET_SKINCOLOR@@YAXXZ ; RMSG_GET_SKINCOLOR$initializer$
CRT$XCU	ENDS
CRT$XCU	SEGMENT
?RMSG_CHANGE_CROSSLINE$initializer$@@3P6AXXZA DD FLAT:??__ERMSG_CHANGE_CROSSLINE@@YAXXZ ; RMSG_CHANGE_CROSSLINE$initializer$
CRT$XCU	ENDS
; Function compile flags: /Ogtp
; File D:\git\src\IBK\IBK_DRFN\ProjSrc\SrcDrfn\Chart\comparechart\define\ChartMsgDef.h
;	COMDAT ??__ERMSG_CHANGE_CROSSLINE@@YAXXZ
text$di	SEGMENT
??__ERMSG_CHANGE_CROSSLINE@@YAXXZ PROC			; `dynamic initializer for 'RMSG_CHANGE_CROSSLINE'', COMDAT

; 216  : const UINT RMSG_CHANGE_CROSSLINE = ::RegisterWindowMessage(_T("RMSG_CHANGE_CROSSLINE"));

  00000	68 00 00 00 00	 push	 OFFSET ??_C@_0BG@LNLCJKPF@RMSG_CHANGE_CROSSLINE@
  00005	ff 15 00 00 00
	00		 call	 DWORD PTR __imp__RegisterWindowMessageA@4
  0000b	a3 00 00 00 00	 mov	 DWORD PTR ?RMSG_CHANGE_CROSSLINE@@3IB, eax
  00010	c3		 ret	 0
??__ERMSG_CHANGE_CROSSLINE@@YAXXZ ENDP			; `dynamic initializer for 'RMSG_CHANGE_CROSSLINE''
text$di	ENDS
; Function compile flags: /Ogtp
; File D:\git\src\IBK\IBK_DRFN\ProjSrc\SrcDrfn\Chart\comparechart\define\ChartMsgDef.h
;	COMDAT ??__ERMSG_GET_SKINCOLOR@@YAXXZ
text$di	SEGMENT
??__ERMSG_GET_SKINCOLOR@@YAXXZ PROC			; `dynamic initializer for 'RMSG_GET_SKINCOLOR'', COMDAT

; 214  : const UINT RMSG_GET_SKINCOLOR = ::RegisterWindowMessage(_T("RMSG_GET_SKINCOLOR"));

  00000	68 00 00 00 00	 push	 OFFSET ??_C@_0BD@FLDNDDHK@RMSG_GET_SKINCOLOR@
  00005	ff 15 00 00 00
	00		 call	 DWORD PTR __imp__RegisterWindowMessageA@4
  0000b	a3 00 00 00 00	 mov	 DWORD PTR ?RMSG_GET_SKINCOLOR@@3IB, eax
  00010	c3		 ret	 0
??__ERMSG_GET_SKINCOLOR@@YAXXZ ENDP			; `dynamic initializer for 'RMSG_GET_SKINCOLOR''
text$di	ENDS
; Function compile flags: /Ogtp
; File D:\git\src\IBK\IBK_DRFN\ProjSrc\SrcDrfn\Chart\comparechart\define\ChartMsgDef.h
;	COMDAT ??__ERMSG_CHANGE_SKINCOLOR@@YAXXZ
text$di	SEGMENT
??__ERMSG_CHANGE_SKINCOLOR@@YAXXZ PROC			; `dynamic initializer for 'RMSG_CHANGE_SKINCOLOR'', COMDAT

; 213  : const UINT RMSG_CHANGE_SKINCOLOR = ::RegisterWindowMessage(_T("RMSG_CHANGE_SKINCOLOR"));

  00000	68 00 00 00 00	 push	 OFFSET ??_C@_0BG@CNPAHNGG@RMSG_CHANGE_SKINCOLOR@
  00005	ff 15 00 00 00
	00		 call	 DWORD PTR __imp__RegisterWindowMessageA@4
  0000b	a3 00 00 00 00	 mov	 DWORD PTR ?RMSG_CHANGE_SKINCOLOR@@3IB, eax
  00010	c3		 ret	 0
??__ERMSG_CHANGE_SKINCOLOR@@YAXXZ ENDP			; `dynamic initializer for 'RMSG_CHANGE_SKINCOLOR''
text$di	ENDS
; Function compile flags: /Ogtp
; File D:\git\src\IBK\IBK_DRFN\ProjSrc\SrcDrfn\Chart\comparechart\define\ChartMsgDef.h
;	COMDAT ??__ERMSG_GETINFO@@YAXXZ
text$di	SEGMENT
??__ERMSG_GETINFO@@YAXXZ PROC				; `dynamic initializer for 'RMSG_GETINFO'', COMDAT

; 204  : const UINT RMSG_GETINFO = ::RegisterWindowMessage(_T("RMSG_GETINFO"));

  00000	68 00 00 00 00	 push	 OFFSET ??_C@_0N@IIOKMIEH@RMSG_GETINFO@
  00005	ff 15 00 00 00
	00		 call	 DWORD PTR __imp__RegisterWindowMessageA@4
  0000b	a3 00 00 00 00	 mov	 DWORD PTR ?RMSG_GETINFO@@3IB, eax
  00010	c3		 ret	 0
??__ERMSG_GETINFO@@YAXXZ ENDP				; `dynamic initializer for 'RMSG_GETINFO''
text$di	ENDS
; Function compile flags: /Ogtp
; File D:\git\src\IBK\IBK_DRFN\ProjSrc\SrcDrfn\Chart\comparechart\define\ChartMsgDef.h
;	COMDAT ??__ERMSG_KSDLLINFO@@YAXXZ
text$di	SEGMENT
??__ERMSG_KSDLLINFO@@YAXXZ PROC				; `dynamic initializer for 'RMSG_KSDLLINFO'', COMDAT

; 203  : const UINT RMSG_KSDLLINFO = ::RegisterWindowMessage(_T("RMSG_KSDLLINFO"));		// TrmCompCharView에게 정보얻기

  00000	68 00 00 00 00	 push	 OFFSET ??_C@_0P@LFDACNFE@RMSG_KSDLLINFO@
  00005	ff 15 00 00 00
	00		 call	 DWORD PTR __imp__RegisterWindowMessageA@4
  0000b	a3 00 00 00 00	 mov	 DWORD PTR ?RMSG_KSDLLINFO@@3IB, eax
  00010	c3		 ret	 0
??__ERMSG_KSDLLINFO@@YAXXZ ENDP				; `dynamic initializer for 'RMSG_KSDLLINFO''
text$di	ENDS
; Function compile flags: /Ogtp
; File D:\git\src\IBK\IBK_DRFN\ProjSrc\SrcDrfn\Chart\comparechart\define\ChartMsgDef.h
;	COMDAT ??__ERMSG_GET_USERID@@YAXXZ
text$di	SEGMENT
??__ERMSG_GET_USERID@@YAXXZ PROC			; `dynamic initializer for 'RMSG_GET_USERID'', COMDAT

; 200  : const UINT RMSG_GET_USERID = ::RegisterWindowMessage(_T("RMSG_GET_USERID"));	// User ID 얻기

  00000	68 00 00 00 00	 push	 OFFSET ??_C@_0BA@HKNFENJL@RMSG_GET_USERID@
  00005	ff 15 00 00 00
	00		 call	 DWORD PTR __imp__RegisterWindowMessageA@4
  0000b	a3 00 00 00 00	 mov	 DWORD PTR ?RMSG_GET_USERID@@3IB, eax
  00010	c3		 ret	 0
??__ERMSG_GET_USERID@@YAXXZ ENDP			; `dynamic initializer for 'RMSG_GET_USERID''
text$di	ENDS
; Function compile flags: /Ogtp
; File D:\git\src\IBK\IBK_DRFN\ProjSrc\SrcDrfn\Chart\comparechart\define\ChartMsgDef.h
;	COMDAT ??__ERMS_ANALYSIS_FUNC@@YAXXZ
text$di	SEGMENT
??__ERMS_ANALYSIS_FUNC@@YAXXZ PROC			; `dynamic initializer for 'RMS_ANALYSIS_FUNC'', COMDAT

; 196  : const UINT RMS_ANALYSIS_FUNC	= ::RegisterWindowMessage(_T("RMS_ANALYSIS_FUNC"));

  00000	68 00 00 00 00	 push	 OFFSET ??_C@_0BC@MMPGLPDH@RMS_ANALYSIS_FUNC@
  00005	ff 15 00 00 00
	00		 call	 DWORD PTR __imp__RegisterWindowMessageA@4
  0000b	a3 00 00 00 00	 mov	 DWORD PTR ?RMS_ANALYSIS_FUNC@@3IB, eax
  00010	c3		 ret	 0
??__ERMS_ANALYSIS_FUNC@@YAXXZ ENDP			; `dynamic initializer for 'RMS_ANALYSIS_FUNC''
text$di	ENDS
; Function compile flags: /Ogtp
; File D:\git\src\IBK\IBK_DRFN\ProjSrc\SrcDrfn\Chart\comparechart\define\ChartMsgDef.h
;	COMDAT ??__ERMSG_CHARTMAIN@@YAXXZ
text$di	SEGMENT
??__ERMSG_CHARTMAIN@@YAXXZ PROC				; `dynamic initializer for 'RMSG_CHARTMAIN'', COMDAT

; 193  : const UINT RMSG_CHARTMAIN		= ::RegisterWindowMessage(_T("RMSG_CHARTMAIN"));

  00000	68 00 00 00 00	 push	 OFFSET ??_C@_0P@KHFCBIOH@RMSG_CHARTMAIN@
  00005	ff 15 00 00 00
	00		 call	 DWORD PTR __imp__RegisterWindowMessageA@4
  0000b	a3 00 00 00 00	 mov	 DWORD PTR ?RMSG_CHARTMAIN@@3IB, eax
  00010	c3		 ret	 0
??__ERMSG_CHARTMAIN@@YAXXZ ENDP				; `dynamic initializer for 'RMSG_CHARTMAIN''
text$di	ENDS
; Function compile flags: /Ogtp
; File D:\git\src\IBK\IBK_DRFN\ProjSrc\SrcDrfn\Chart\commontr\TRDefine.h
;	COMDAT ??__ERMSG_GETSIGNAL_REAL@@YAXXZ
text$di	SEGMENT
??__ERMSG_GETSIGNAL_REAL@@YAXXZ PROC			; `dynamic initializer for 'RMSG_GETSIGNAL_REAL'', COMDAT

; 213  : const UINT RMSG_GETSIGNAL_REAL = ::RegisterWindowMessage(_T("RMSG_GETSIGNAL_REAL"));

  00000	68 00 00 00 00	 push	 OFFSET ??_C@_0BE@FJPKENOB@RMSG_GETSIGNAL_REAL@
  00005	ff 15 00 00 00
	00		 call	 DWORD PTR __imp__RegisterWindowMessageA@4
  0000b	a3 00 00 00 00	 mov	 DWORD PTR ?RMSG_GETSIGNAL_REAL@@3IB, eax
  00010	c3		 ret	 0
??__ERMSG_GETSIGNAL_REAL@@YAXXZ ENDP			; `dynamic initializer for 'RMSG_GETSIGNAL_REAL''
text$di	ENDS
; Function compile flags: /Ogtp
; File C:\Program Files (x86)\Microsoft Visual Studio\2019\Community\VC\Tools\MSVC\14.29.30133\atlmfc\include\afx.inl
;	COMDAT ??_GCTabUpJongDlg@@UAEPAXI@Z
_TEXT	SEGMENT
___flags$ = 8						; size = 4
??_GCTabUpJongDlg@@UAEPAXI@Z PROC			; CTabUpJongDlg::`scalar deleting destructor', COMDAT
; _this$ = ecx
  00000	55		 push	 ebp
  00001	8b ec		 mov	 ebp, esp
  00003	56		 push	 esi
  00004	8b f1		 mov	 esi, ecx
  00006	8d 8e c8 04 00
	00		 lea	 ecx, DWORD PTR [esi+1224]
  0000c	e8 00 00 00 00	 call	 ??1CILButton@@UAE@XZ	; CILButton::~CILButton
  00011	8d 8e 68 03 00
	00		 lea	 ecx, DWORD PTR [esi+872]
  00017	e8 00 00 00 00	 call	 ??1CILButton@@UAE@XZ	; CILButton::~CILButton
  0001c	8d 8e 08 02 00
	00		 lea	 ecx, DWORD PTR [esi+520]
  00022	e8 00 00 00 00	 call	 ??1CILButton@@UAE@XZ	; CILButton::~CILButton
  00027	8d 8e e0 00 00
	00		 lea	 ecx, DWORD PTR [esi+224]
  0002d	e8 00 00 00 00	 call	 ??1CVirtualListCtrl@@UAE@XZ ; CVirtualListCtrl::~CVirtualListCtrl
  00032	8d 8e d8 00 00
	00		 lea	 ecx, DWORD PTR [esi+216]
  00038	ff 15 00 00 00
	00		 call	 DWORD PTR __imp_??1?$CStringT@DV?$StrTraitMFC_DLL@DV?$ChTraitsCRT@D@ATL@@@@@ATL@@QAE@XZ
  0003e	8d 8e d4 00 00
	00		 lea	 ecx, DWORD PTR [esi+212]
  00044	ff 15 00 00 00
	00		 call	 DWORD PTR __imp_??1?$CStringT@DV?$StrTraitMFC_DLL@DV?$ChTraitsCRT@D@ATL@@@@@ATL@@QAE@XZ
  0004a	8b ce		 mov	 ecx, esi
  0004c	e8 00 00 00 00	 call	 ??1CTabDlg@@UAE@XZ	; CTabDlg::~CTabDlg
  00051	8b 45 08	 mov	 eax, DWORD PTR ___flags$[ebp]
  00054	a8 01		 test	 al, 1
  00056	74 22		 je	 SHORT $LN12@scalar
  00058	a8 04		 test	 al, 4
  0005a	75 10		 jne	 SHORT $LN3@scalar

; 112  : 	{ ::operator delete(p); }

  0005c	56		 push	 esi
  0005d	e8 00 00 00 00	 call	 ??3@YAXPAX@Z		; operator delete
  00062	83 c4 04	 add	 esp, 4
  00065	8b c6		 mov	 eax, esi
  00067	5e		 pop	 esi
  00068	5d		 pop	 ebp
  00069	c2 04 00	 ret	 4
$LN3@scalar:
  0006c	68 28 06 00 00	 push	 1576			; 00000628H
  00071	56		 push	 esi
  00072	e8 00 00 00 00	 call	 ?__global_delete@@YAXPAXI@Z ; __global_delete
  00077	83 c4 08	 add	 esp, 8
$LN12@scalar:
  0007a	8b c6		 mov	 eax, esi
  0007c	5e		 pop	 esi
  0007d	5d		 pop	 ebp
  0007e	c2 04 00	 ret	 4
??_GCTabUpJongDlg@@UAEPAXI@Z ENDP			; CTabUpJongDlg::`scalar deleting destructor'
_TEXT	ENDS
; Function compile flags: /Ogtp
; File D:\git\src\IBK\IBK_DRFN\ProjSrc\SrcDrfn\Chart\comparechart\TabUpJongDlg.cpp
;	COMDAT ?GetMessageMap@CTabUpJongDlg@@MBEPBUAFX_MSGMAP@@XZ
_TEXT	SEGMENT
?GetMessageMap@CTabUpJongDlg@@MBEPBUAFX_MSGMAP@@XZ PROC	; CTabUpJongDlg::GetMessageMap, COMDAT
; _this$ = ecx

; 42   : BEGIN_MESSAGE_MAP(CTabUpJongDlg, CTabDlg)

  00000	b8 00 00 00 00	 mov	 eax, OFFSET ?messageMap@?1??GetThisMessageMap@CTabUpJongDlg@@KGPBUAFX_MSGMAP@@XZ@4U3@B
  00005	c3		 ret	 0
?GetMessageMap@CTabUpJongDlg@@MBEPBUAFX_MSGMAP@@XZ ENDP	; CTabUpJongDlg::GetMessageMap
_TEXT	ENDS
; Function compile flags: /Ogtp
; File D:\git\src\IBK\IBK_DRFN\ProjSrc\SrcDrfn\Chart\comparechart\TabUpJongDlg.cpp
;	COMDAT ?GetThisMessageMap@CTabUpJongDlg@@KGPBUAFX_MSGMAP@@XZ
_TEXT	SEGMENT
?GetThisMessageMap@CTabUpJongDlg@@KGPBUAFX_MSGMAP@@XZ PROC ; CTabUpJongDlg::GetThisMessageMap, COMDAT

; 43   : 	//{{AFX_MSG_MAP(CTabUpJongDlg)
; 44   : 	ON_BN_CLICKED(IDC_CHECK_KOSPI, OnChkKospi)
; 45   : 	ON_BN_CLICKED(IDC_CHECK_K200, OnChkK200)
; 46   : 	ON_BN_CLICKED(IDC_CHECK_KOSDAQ, OnChkKosdaq)
; 47   : //	ON_BN_CLICKED(IDC_CHECK_KONEX, OnChkKonex)
; 48   : 	ON_WM_SIZE()
; 49   : 	ON_WM_DESTROY()
; 50   : 	//}}AFX_MSG_MAP
; 51   : END_MESSAGE_MAP()

  00000	b8 00 00 00 00	 mov	 eax, OFFSET ?messageMap@?1??GetThisMessageMap@CTabUpJongDlg@@KGPBUAFX_MSGMAP@@XZ@4U3@B
  00005	c3		 ret	 0
?GetThisMessageMap@CTabUpJongDlg@@KGPBUAFX_MSGMAP@@XZ ENDP ; CTabUpJongDlg::GetThisMessageMap
_TEXT	ENDS
; Function compile flags: /Ogtp
; File D:\git\src\IBK\IBK_DRFN\ProjSrc\SrcDrfn\Chart\comparechart\TabUpJongDlg.cpp
;	COMDAT ?OnDestroy@CTabUpJongDlg@@IAEXXZ
_TEXT	SEGMENT
?OnDestroy@CTabUpJongDlg@@IAEXXZ PROC			; CTabUpJongDlg::OnDestroy, COMDAT
; _this$ = ecx

; 83   : {

  00000	56		 push	 esi
  00001	8b f1		 mov	 esi, ecx

; 84   : 	fnRemovelistStockCode();

  00003	e8 00 00 00 00	 call	 ?fnRemovelistStockCode@CTabUpJongDlg@@IAEXXZ ; CTabUpJongDlg::fnRemovelistStockCode

; 85   : 
; 86   : 	CTabDlg::OnDestroy();

  00008	8b ce		 mov	 ecx, esi
  0000a	5e		 pop	 esi
  0000b	e9 00 00 00 00	 jmp	 ?OnDestroy@CTabDlg@@IAEXXZ ; CTabDlg::OnDestroy
?OnDestroy@CTabUpJongDlg@@IAEXXZ ENDP			; CTabUpJongDlg::OnDestroy
_TEXT	ENDS
; Function compile flags: /Ogtp
; File D:\git\src\IBK\IBK_DRFN\ProjSrc\SrcDrfn\Chart\comparechart\TabUpJongDlg.cpp
; File C:\Program Files (x86)\Microsoft Visual Studio\2019\Community\VC\Tools\MSVC\14.29.30133\atlmfc\include\afxwin2.inl
; File D:\git\src\IBK\IBK_DRFN\ProjSrc\SrcDrfn\Chart\comparechart\TabUpJongDlg.cpp
; File C:\Program Files (x86)\Microsoft Visual Studio\2019\Community\VC\Tools\MSVC\14.29.30133\atlmfc\include\afxwin2.inl
; File D:\git\src\IBK\IBK_DRFN\ProjSrc\SrcDrfn\Chart\comparechart\TabUpJongDlg.cpp
; File C:\Program Files (x86)\Microsoft Visual Studio\2019\Community\VC\Tools\MSVC\14.29.30133\atlmfc\include\atltypes.h
; File C:\Program Files (x86)\Microsoft Visual Studio\2019\Community\VC\Tools\MSVC\14.29.30133\atlmfc\include\afxwin2.inl
; File C:\Program Files (x86)\Microsoft Visual Studio\2019\Community\VC\Tools\MSVC\14.29.30133\atlmfc\include\atltypes.h
; File C:\Program Files (x86)\Microsoft Visual Studio\2019\Community\VC\Tools\MSVC\14.29.30133\atlmfc\include\afxwin2.inl
; File D:\git\src\IBK\IBK_DRFN\ProjSrc\SrcDrfn\Chart\comparechart\TabUpJongDlg.cpp
; File C:\Program Files (x86)\Microsoft Visual Studio\2019\Community\VC\Tools\MSVC\14.29.30133\atlmfc\include\afxwin2.inl
; File D:\git\src\IBK\IBK_DRFN\ProjSrc\SrcDrfn\Chart\comparechart\TabUpJongDlg.cpp
; File C:\Program Files (x86)\Microsoft Visual Studio\2019\Community\VC\Tools\MSVC\14.29.30133\atlmfc\include\afxwin2.inl
; File D:\git\src\IBK\IBK_DRFN\ProjSrc\SrcDrfn\Chart\comparechart\TabUpJongDlg.cpp
; File C:\Program Files (x86)\Microsoft Visual Studio\2019\Community\VC\Tools\MSVC\14.29.30133\atlmfc\include\afxwin2.inl
; File D:\git\src\IBK\IBK_DRFN\ProjSrc\SrcDrfn\Chart\comparechart\TabUpJongDlg.cpp
; File C:\Program Files (x86)\Microsoft Visual Studio\2019\Community\VC\Tools\MSVC\14.29.30133\atlmfc\include\afxwin2.inl
; File D:\git\src\IBK\IBK_DRFN\ProjSrc\SrcDrfn\Chart\comparechart\TabUpJongDlg.cpp
; File C:\Program Files (x86)\Microsoft Visual Studio\2019\Community\VC\Tools\MSVC\14.29.30133\atlmfc\include\afxwin2.inl
; File D:\git\src\IBK\IBK_DRFN\ProjSrc\SrcDrfn\Chart\comparechart\TabUpJongDlg.cpp
; File C:\Program Files (x86)\Microsoft Visual Studio\2019\Community\VC\Tools\MSVC\14.29.30133\atlmfc\include\afxwin2.inl
; File D:\git\src\IBK\IBK_DRFN\ProjSrc\SrcDrfn\Chart\comparechart\TabUpJongDlg.cpp
;	COMDAT ?OnSize@CTabUpJongDlg@@IAEXIHH@Z
_TEXT	SEGMENT
_rect$1 = -36						; size = 16
_listRect$2 = -20					; size = 16
__$ArrayPad$ = -4					; size = 4
_nType$ = 8						; size = 4
_cx$ = 12						; size = 4
_cy$ = 16						; size = 4
?OnSize@CTabUpJongDlg@@IAEXIHH@Z PROC			; CTabUpJongDlg::OnSize, COMDAT
; _this$ = ecx

; 345  : {

  00000	55		 push	 ebp
  00001	8b ec		 mov	 ebp, esp
  00003	83 ec 24	 sub	 esp, 36			; 00000024H
  00006	a1 00 00 00 00	 mov	 eax, DWORD PTR ___security_cookie
  0000b	33 c5		 xor	 eax, ebp
  0000d	89 45 fc	 mov	 DWORD PTR __$ArrayPad$[ebp], eax
  00010	53		 push	 ebx
  00011	56		 push	 esi
  00012	8b f1		 mov	 esi, ecx
; File C:\Program Files (x86)\Microsoft Visual Studio\2019\Community\VC\Tools\MSVC\14.29.30133\atlmfc\include\afxwin2.inl

; 330  : 	{ Default(); }

  00014	e8 00 00 00 00	 call	 ?Default@CWnd@@IAEJXZ	; CWnd::Default
; File D:\git\src\IBK\IBK_DRFN\ProjSrc\SrcDrfn\Chart\comparechart\TabUpJongDlg.cpp

; 349  : 	if(m_listUpJongCode.GetSafeHwnd())

  00019	8d 9e e0 00 00
	00		 lea	 ebx, DWORD PTR [esi+224]
; File C:\Program Files (x86)\Microsoft Visual Studio\2019\Community\VC\Tools\MSVC\14.29.30133\atlmfc\include\afxwin2.inl

; 25   : 	{ return this == NULL ? NULL : m_hWnd; }

  0001f	85 db		 test	 ebx, ebx
  00021	74 62		 je	 SHORT $LN2@OnSize
; File D:\git\src\IBK\IBK_DRFN\ProjSrc\SrcDrfn\Chart\comparechart\TabUpJongDlg.cpp

; 349  : 	if(m_listUpJongCode.GetSafeHwnd())

  00023	83 7b 20 00	 cmp	 DWORD PTR [ebx+32], 0
  00027	74 5c		 je	 SHORT $LN2@OnSize
; File C:\Program Files (x86)\Microsoft Visual Studio\2019\Community\VC\Tools\MSVC\14.29.30133\atlmfc\include\atltypes.h

; 528  : 	left = 0;

  00029	57		 push	 edi
; File C:\Program Files (x86)\Microsoft Visual Studio\2019\Community\VC\Tools\MSVC\14.29.30133\atlmfc\include\afxwin2.inl

; 86   : 	{ ASSERT(::IsWindow(m_hWnd)); ::GetClientRect(m_hWnd, lpRect); }

  0002a	8d 45 dc	 lea	 eax, DWORD PTR _rect$1[ebp]
  0002d	0f 57 c0	 xorps	 xmm0, xmm0
  00030	50		 push	 eax
  00031	ff 76 20	 push	 DWORD PTR [esi+32]
; File C:\Program Files (x86)\Microsoft Visual Studio\2019\Community\VC\Tools\MSVC\14.29.30133\atlmfc\include\atltypes.h

; 528  : 	left = 0;

  00034	0f 11 45 dc	 movups	 XMMWORD PTR _rect$1[ebp], xmm0
  00038	0f 11 45 ec	 movups	 XMMWORD PTR _listRect$2[ebp], xmm0
; File C:\Program Files (x86)\Microsoft Visual Studio\2019\Community\VC\Tools\MSVC\14.29.30133\atlmfc\include\afxwin2.inl

; 86   : 	{ ASSERT(::IsWindow(m_hWnd)); ::GetClientRect(m_hWnd, lpRect); }

  0003c	ff 15 00 00 00
	00		 call	 DWORD PTR __imp__GetClientRect@8

; 84   : 	{ ASSERT(::IsWindow(m_hWnd)); ::GetWindowRect(m_hWnd, lpRect); }

  00042	8d 45 ec	 lea	 eax, DWORD PTR _listRect$2[ebp]
  00045	50		 push	 eax
  00046	ff b6 00 01 00
	00		 push	 DWORD PTR [esi+256]
  0004c	ff 15 00 00 00
	00		 call	 DWORD PTR __imp__GetWindowRect@8
; File D:\git\src\IBK\IBK_DRFN\ProjSrc\SrcDrfn\Chart\comparechart\TabUpJongDlg.cpp

; 355  : 		ScreenToClient(listRect);

  00052	8d 45 ec	 lea	 eax, DWORD PTR _listRect$2[ebp]
  00055	8b ce		 mov	 ecx, esi
  00057	50		 push	 eax
  00058	e8 00 00 00 00	 call	 ?ScreenToClient@CWnd@@QBEXPAUtagRECT@@@Z ; CWnd::ScreenToClient

; 358  : 		listRect.bottom = rect.bottom; 

  0005d	8b 45 e8	 mov	 eax, DWORD PTR _rect$1[ebp+12]
; File C:\Program Files (x86)\Microsoft Visual Studio\2019\Community\VC\Tools\MSVC\14.29.30133\atlmfc\include\afxwin2.inl

; 73   : 	{ MoveWindow(lpRect->left, lpRect->top, lpRect->right - lpRect->left,

  00060	8b cb		 mov	 ecx, ebx
; File D:\git\src\IBK\IBK_DRFN\ProjSrc\SrcDrfn\Chart\comparechart\TabUpJongDlg.cpp

; 356  : 		listRect.left = rect.left + 1;

  00062	8b 7d dc	 mov	 edi, DWORD PTR _rect$1[ebp]
; File C:\Program Files (x86)\Microsoft Visual Studio\2019\Community\VC\Tools\MSVC\14.29.30133\atlmfc\include\afxwin2.inl

; 73   : 	{ MoveWindow(lpRect->left, lpRect->top, lpRect->right - lpRect->left,

  00065	8b 55 f0	 mov	 edx, DWORD PTR _listRect$2[ebp+4]
; File D:\git\src\IBK\IBK_DRFN\ProjSrc\SrcDrfn\Chart\comparechart\TabUpJongDlg.cpp

; 356  : 		listRect.left = rect.left + 1;

  00068	47		 inc	 edi

; 357  : 		listRect.right = rect.right;

  00069	8b 75 e4	 mov	 esi, DWORD PTR _rect$1[ebp+8]
; File C:\Program Files (x86)\Microsoft Visual Studio\2019\Community\VC\Tools\MSVC\14.29.30133\atlmfc\include\afxwin2.inl

; 73   : 	{ MoveWindow(lpRect->left, lpRect->top, lpRect->right - lpRect->left,

  0006c	6a 01		 push	 1
; File D:\git\src\IBK\IBK_DRFN\ProjSrc\SrcDrfn\Chart\comparechart\TabUpJongDlg.cpp

; 358  : 		listRect.bottom = rect.bottom; 

  0006e	89 45 f8	 mov	 DWORD PTR _listRect$2[ebp+12], eax
; File C:\Program Files (x86)\Microsoft Visual Studio\2019\Community\VC\Tools\MSVC\14.29.30133\atlmfc\include\afxwin2.inl

; 73   : 	{ MoveWindow(lpRect->left, lpRect->top, lpRect->right - lpRect->left,

  00071	2b c2		 sub	 eax, edx
  00073	50		 push	 eax
; File D:\git\src\IBK\IBK_DRFN\ProjSrc\SrcDrfn\Chart\comparechart\TabUpJongDlg.cpp

; 357  : 		listRect.right = rect.right;

  00074	89 75 f4	 mov	 DWORD PTR _listRect$2[ebp+8], esi
; File C:\Program Files (x86)\Microsoft Visual Studio\2019\Community\VC\Tools\MSVC\14.29.30133\atlmfc\include\afxwin2.inl

; 73   : 	{ MoveWindow(lpRect->left, lpRect->top, lpRect->right - lpRect->left,

  00077	2b f7		 sub	 esi, edi
  00079	56		 push	 esi
  0007a	52		 push	 edx
  0007b	57		 push	 edi
; File D:\git\src\IBK\IBK_DRFN\ProjSrc\SrcDrfn\Chart\comparechart\TabUpJongDlg.cpp

; 356  : 		listRect.left = rect.left + 1;

  0007c	89 7d ec	 mov	 DWORD PTR _listRect$2[ebp], edi
; File C:\Program Files (x86)\Microsoft Visual Studio\2019\Community\VC\Tools\MSVC\14.29.30133\atlmfc\include\afxwin2.inl

; 73   : 	{ MoveWindow(lpRect->left, lpRect->top, lpRect->right - lpRect->left,

  0007f	e8 00 00 00 00	 call	 ?MoveWindow@CWnd@@QAEXHHHHH@Z ; CWnd::MoveWindow
  00084	5f		 pop	 edi
$LN2@OnSize:
; File D:\git\src\IBK\IBK_DRFN\ProjSrc\SrcDrfn\Chart\comparechart\TabUpJongDlg.cpp

; 361  : }

  00085	8b 4d fc	 mov	 ecx, DWORD PTR __$ArrayPad$[ebp]
  00088	5e		 pop	 esi
  00089	33 cd		 xor	 ecx, ebp
  0008b	5b		 pop	 ebx
  0008c	e8 00 00 00 00	 call	 @__security_check_cookie@4
  00091	8b e5		 mov	 esp, ebp
  00093	5d		 pop	 ebp
  00094	c2 0c 00	 ret	 12			; 0000000cH
?OnSize@CTabUpJongDlg@@IAEXIHH@Z ENDP			; CTabUpJongDlg::OnSize
_TEXT	ENDS
; Function compile flags: /Ogtp
; File D:\git\src\IBK\IBK_DRFN\ProjSrc\SrcDrfn\Chart\comparechart\TabUpJongDlg.cpp
; File C:\Program Files (x86)\Microsoft Visual Studio\2019\Community\VC\Tools\MSVC\14.29.30133\atlmfc\include\afxcmn.inl
; File D:\git\src\IBK\IBK_DRFN\ProjSrc\SrcDrfn\Chart\comparechart\TabUpJongDlg.cpp
; File C:\Program Files (x86)\Microsoft Visual Studio\2019\Community\VC\Tools\MSVC\14.29.30133\atlmfc\include\afx.inl
; File D:\git\src\IBK\IBK_DRFN\ProjSrc\SrcDrfn\Chart\comparechart\TabUpJongDlg.cpp
; File C:\Program Files (x86)\Microsoft Visual Studio\2019\Community\VC\Tools\MSVC\14.29.30133\atlmfc\include\afx.inl
; File D:\git\src\IBK\IBK_DRFN\ProjSrc\SrcDrfn\Chart\comparechart\TabUpJongDlg.cpp
; File C:\Program Files (x86)\Microsoft Visual Studio\2019\Community\VC\Tools\MSVC\14.29.30133\atlmfc\include\afx.inl
; File D:\git\src\IBK\IBK_DRFN\ProjSrc\SrcDrfn\Chart\comparechart\TabUpJongDlg.cpp
; File C:\Program Files (x86)\Microsoft Visual Studio\2019\Community\VC\Tools\MSVC\14.29.30133\atlmfc\include\afx.inl
; File D:\git\src\IBK\IBK_DRFN\ProjSrc\SrcDrfn\Chart\comparechart\TabUpJongDlg.cpp
; File C:\Program Files (x86)\Microsoft Visual Studio\2019\Community\VC\Tools\MSVC\14.29.30133\atlmfc\include\afx.inl
; File D:\git\src\IBK\IBK_DRFN\ProjSrc\SrcDrfn\Chart\comparechart\TabUpJongDlg.cpp
; File C:\Program Files (x86)\Microsoft Visual Studio\2019\Community\VC\Tools\MSVC\14.29.30133\atlmfc\include\afxcoll.inl
; File D:\git\src\IBK\IBK_DRFN\ProjSrc\SrcDrfn\Chart\comparechart\TabUpJongDlg.cpp
; File C:\Program Files (x86)\Microsoft Visual Studio\2019\Community\VC\Tools\MSVC\14.29.30133\atlmfc\include\afxcoll.inl
; File D:\git\src\IBK\IBK_DRFN\ProjSrc\SrcDrfn\Chart\comparechart\TabUpJongDlg.cpp
; File C:\Program Files (x86)\Microsoft Visual Studio\2019\Community\VC\Tools\MSVC\14.29.30133\atlmfc\include\afxtempl.h
; File D:\git\src\IBK\IBK_DRFN\ProjSrc\SrcDrfn\Chart\comparechart\TabUpJongDlg.cpp
; File C:\Program Files (x86)\Microsoft Visual Studio\2019\Community\VC\Tools\MSVC\14.29.30133\atlmfc\include\afxtempl.h
; File D:\git\src\IBK\IBK_DRFN\ProjSrc\SrcDrfn\Chart\comparechart\TabUpJongDlg.cpp
; File C:\Program Files (x86)\Microsoft Visual Studio\2019\Community\VC\Tools\MSVC\14.29.30133\atlmfc\include\afxcmn.inl
; File D:\git\src\IBK\IBK_DRFN\ProjSrc\SrcDrfn\Chart\comparechart\TabUpJongDlg.cpp
; File C:\Program Files (x86)\Microsoft Visual Studio\2019\Community\VC\Tools\MSVC\14.29.30133\atlmfc\include\afxcoll.inl
; File D:\git\src\IBK\IBK_DRFN\ProjSrc\SrcDrfn\Chart\comparechart\TabUpJongDlg.cpp
;	COMDAT ?OnChkK200@CTabUpJongDlg@@IAEXXZ
_TEXT	SEGMENT
_nIndex$1$ = -32					; size = 4
$T2 = -32						; size = 4
$T3 = -32						; size = 4
$T4 = -32						; size = 4
_arEngName$ = -28					; size = 4
_this$1$ = -24						; size = 4
_arName$ = -20						; size = 4
_arCode$ = -16						; size = 4
__$EHRec$ = -12						; size = 12
?OnChkK200@CTabUpJongDlg@@IAEXXZ PROC			; CTabUpJongDlg::OnChkK200, COMDAT
; _this$ = ecx

; 187  : {

  00000	55		 push	 ebp
  00001	8b ec		 mov	 ebp, esp
  00003	6a ff		 push	 -1
  00005	68 00 00 00 00	 push	 __ehhandler$?OnChkK200@CTabUpJongDlg@@IAEXXZ
  0000a	64 a1 00 00 00
	00		 mov	 eax, DWORD PTR fs:0
  00010	50		 push	 eax
  00011	83 ec 14	 sub	 esp, 20			; 00000014H
  00014	53		 push	 ebx
  00015	56		 push	 esi
  00016	57		 push	 edi
  00017	a1 00 00 00 00	 mov	 eax, DWORD PTR ___security_cookie
  0001c	33 c5		 xor	 eax, ebp
  0001e	50		 push	 eax
  0001f	8d 45 f4	 lea	 eax, DWORD PTR __$EHRec$[ebp]
  00022	64 a3 00 00 00
	00		 mov	 DWORD PTR fs:0, eax
  00028	8b d9		 mov	 ebx, ecx
  0002a	89 5d e8	 mov	 DWORD PTR _this$1$[ebp], ebx

; 188  : 	// TODO: Add your control notification handler code here
; 189  : 	//m_nOption = UPALL;
; 190  : 	//InitBaseInfo(m_nOption);
; 191  : 	//m_listUpJongCode.LoadCodeList(m_nOption);
; 192  : 	
; 193  : 	// TODO: Add your control notification handler code here
; 194  : 	m_BtnKospi.SetCheck(FALSE);	

  0002d	6a 00		 push	 0
  0002f	8d 8b 08 02 00
	00		 lea	 ecx, DWORD PTR [ebx+520]
  00035	e8 00 00 00 00	 call	 ?SetCheck@CILButton@@QAEXH@Z ; CILButton::SetCheck

; 195  : 	m_BtnKosdaq.SetCheck(FALSE);	

  0003a	6a 00		 push	 0
  0003c	8d 8b c8 04 00
	00		 lea	 ecx, DWORD PTR [ebx+1224]
  00042	e8 00 00 00 00	 call	 ?SetCheck@CILButton@@QAEXH@Z ; CILButton::SetCheck
; File C:\Program Files (x86)\Microsoft Visual Studio\2019\Community\VC\Tools\MSVC\14.29.30133\atlmfc\include\afxcmn.inl

; 171  : 	{ ASSERT(::IsWindow(m_hWnd)); return (BOOL) ::SendMessage(m_hWnd, LVM_DELETEALLITEMS, 0, 0L); }

  00047	6a 00		 push	 0
  00049	6a 00		 push	 0
  0004b	68 09 10 00 00	 push	 4105			; 00001009H
  00050	ff b3 00 01 00
	00		 push	 DWORD PTR [ebx+256]
  00056	ff 15 00 00 00
	00		 call	 DWORD PTR __imp__SendMessageA@16
; File D:\git\src\IBK\IBK_DRFN\ProjSrc\SrcDrfn\Chart\comparechart\TabUpJongDlg.cpp

; 199  : 	fnRemovelistStockCode();

  0005c	8b cb		 mov	 ecx, ebx
  0005e	e8 00 00 00 00	 call	 ?fnRemovelistStockCode@CTabUpJongDlg@@IAEXXZ ; CTabUpJongDlg::fnRemovelistStockCode
; File C:\Program Files (x86)\Microsoft Visual Studio\2019\Community\VC\Tools\MSVC\14.29.30133\atlmfc\include\afx.inl

; 116  : 	{ return ::operator new(nSize); }

  00063	6a 14		 push	 20			; 00000014H
  00065	e8 00 00 00 00	 call	 ??2@YAPAXI@Z		; operator new
  0006a	83 c4 04	 add	 esp, 4
; File D:\git\src\IBK\IBK_DRFN\ProjSrc\SrcDrfn\Chart\comparechart\TabUpJongDlg.cpp

; 204  : 	arCode = new CStringArray;

  0006d	89 45 e0	 mov	 DWORD PTR $T4[ebp], eax
  00070	c7 45 fc 00 00
	00 00		 mov	 DWORD PTR __$EHRec$[ebp+8], 0
  00077	85 c0		 test	 eax, eax
  00079	74 09		 je	 SHORT $LN6@OnChkK200
  0007b	8b c8		 mov	 ecx, eax
  0007d	e8 00 00 00 00	 call	 ??0CStringArray@@QAE@XZ	; CStringArray::CStringArray
  00082	eb 02		 jmp	 SHORT $LN7@OnChkK200
$LN6@OnChkK200:
  00084	33 c0		 xor	 eax, eax
$LN7@OnChkK200:
; File C:\Program Files (x86)\Microsoft Visual Studio\2019\Community\VC\Tools\MSVC\14.29.30133\atlmfc\include\afx.inl

; 116  : 	{ return ::operator new(nSize); }

  00086	6a 14		 push	 20			; 00000014H
; File D:\git\src\IBK\IBK_DRFN\ProjSrc\SrcDrfn\Chart\comparechart\TabUpJongDlg.cpp

; 204  : 	arCode = new CStringArray;

  00088	c7 45 fc ff ff
	ff ff		 mov	 DWORD PTR __$EHRec$[ebp+8], -1
  0008f	89 45 f0	 mov	 DWORD PTR _arCode$[ebp], eax
; File C:\Program Files (x86)\Microsoft Visual Studio\2019\Community\VC\Tools\MSVC\14.29.30133\atlmfc\include\afx.inl

; 116  : 	{ return ::operator new(nSize); }

  00092	e8 00 00 00 00	 call	 ??2@YAPAXI@Z		; operator new
  00097	83 c4 04	 add	 esp, 4
; File D:\git\src\IBK\IBK_DRFN\ProjSrc\SrcDrfn\Chart\comparechart\TabUpJongDlg.cpp

; 205  : 	arName = new CStringArray;

  0009a	89 45 e0	 mov	 DWORD PTR $T3[ebp], eax
  0009d	c7 45 fc 01 00
	00 00		 mov	 DWORD PTR __$EHRec$[ebp+8], 1
  000a4	85 c0		 test	 eax, eax
  000a6	74 09		 je	 SHORT $LN8@OnChkK200
  000a8	8b c8		 mov	 ecx, eax
  000aa	e8 00 00 00 00	 call	 ??0CStringArray@@QAE@XZ	; CStringArray::CStringArray
  000af	eb 02		 jmp	 SHORT $LN9@OnChkK200
$LN8@OnChkK200:
  000b1	33 c0		 xor	 eax, eax
$LN9@OnChkK200:
; File C:\Program Files (x86)\Microsoft Visual Studio\2019\Community\VC\Tools\MSVC\14.29.30133\atlmfc\include\afx.inl

; 116  : 	{ return ::operator new(nSize); }

  000b3	6a 14		 push	 20			; 00000014H
; File D:\git\src\IBK\IBK_DRFN\ProjSrc\SrcDrfn\Chart\comparechart\TabUpJongDlg.cpp

; 205  : 	arName = new CStringArray;

  000b5	c7 45 fc ff ff
	ff ff		 mov	 DWORD PTR __$EHRec$[ebp+8], -1
  000bc	89 45 ec	 mov	 DWORD PTR _arName$[ebp], eax
; File C:\Program Files (x86)\Microsoft Visual Studio\2019\Community\VC\Tools\MSVC\14.29.30133\atlmfc\include\afx.inl

; 116  : 	{ return ::operator new(nSize); }

  000bf	e8 00 00 00 00	 call	 ??2@YAPAXI@Z		; operator new
  000c4	83 c4 04	 add	 esp, 4
; File D:\git\src\IBK\IBK_DRFN\ProjSrc\SrcDrfn\Chart\comparechart\TabUpJongDlg.cpp

; 206  : 	arEngName = new CStringArray;

  000c7	89 45 e0	 mov	 DWORD PTR $T2[ebp], eax
  000ca	c7 45 fc 02 00
	00 00		 mov	 DWORD PTR __$EHRec$[ebp+8], 2
  000d1	85 c0		 test	 eax, eax
  000d3	74 09		 je	 SHORT $LN10@OnChkK200
  000d5	8b c8		 mov	 ecx, eax
  000d7	e8 00 00 00 00	 call	 ??0CStringArray@@QAE@XZ	; CStringArray::CStringArray
  000dc	eb 02		 jmp	 SHORT $LN11@OnChkK200
$LN10@OnChkK200:
  000de	33 c0		 xor	 eax, eax
$LN11@OnChkK200:

; 207  : 	int nIndex = 0;
; 208  : 
; 209  : 	m_pDataManager->GetKRXUpMst(arCode, arName, arEngName,1);

  000e0	6a 01		 push	 1
  000e2	89 45 e4	 mov	 DWORD PTR _arEngName$[ebp], eax
  000e5	8d 55 e4	 lea	 edx, DWORD PTR _arEngName$[ebp]
  000e8	8b 83 dc 00 00
	00		 mov	 eax, DWORD PTR [ebx+220]
  000ee	52		 push	 edx
  000ef	8d 55 ec	 lea	 edx, DWORD PTR _arName$[ebp]
  000f2	c7 45 fc ff ff
	ff ff		 mov	 DWORD PTR __$EHRec$[ebp+8], -1
  000f9	52		 push	 edx
  000fa	8b 08		 mov	 ecx, DWORD PTR [eax]
  000fc	8d 55 f0	 lea	 edx, DWORD PTR _arCode$[ebp]
  000ff	52		 push	 edx
  00100	50		 push	 eax
  00101	ff 51 6c	 call	 DWORD PTR [ecx+108]

; 210  : 	for(nIndex=0; nIndex<arCode->GetSize(); nIndex++)

  00104	8b 45 f0	 mov	 eax, DWORD PTR _arCode$[ebp]
  00107	33 db		 xor	 ebx, ebx
  00109	39 58 08	 cmp	 DWORD PTR [eax+8], ebx
  0010c	0f 8e c8 00 00
	00		 jle	 $LN3@OnChkK200
$LL4@OnChkK200:

; 211  : 	{
; 212  : 		MASTERCODE* pData = new MASTERCODE;

  00112	6a 0c		 push	 12			; 0000000cH
  00114	e8 00 00 00 00	 call	 ??2@YAPAXI@Z		; operator new
  00119	8b f8		 mov	 edi, eax
  0011b	83 c4 04	 add	 esp, 4
  0011e	85 ff		 test	 edi, edi
  00120	74 1c		 je	 SHORT $LN12@OnChkK200
  00122	8b cf		 mov	 ecx, edi
  00124	ff 15 00 00 00
	00		 call	 DWORD PTR __imp_??0?$CStringT@DV?$StrTraitMFC_DLL@DV?$ChTraitsCRT@D@ATL@@@@@ATL@@QAE@XZ
  0012a	8d 4f 04	 lea	 ecx, DWORD PTR [edi+4]
  0012d	ff 15 00 00 00
	00		 call	 DWORD PTR __imp_??0?$CStringT@DV?$StrTraitMFC_DLL@DV?$ChTraitsCRT@D@ATL@@@@@ATL@@QAE@XZ
  00133	8d 4f 08	 lea	 ecx, DWORD PTR [edi+8]
  00136	ff 15 00 00 00
	00		 call	 DWORD PTR __imp_??0?$CStringT@DV?$StrTraitMFC_DLL@DV?$ChTraitsCRT@D@ATL@@@@@ATL@@QAE@XZ
  0013c	eb 02		 jmp	 SHORT $LN13@OnChkK200
$LN12@OnChkK200:
  0013e	33 ff		 xor	 edi, edi
$LN13@OnChkK200:
; File C:\Program Files (x86)\Microsoft Visual Studio\2019\Community\VC\Tools\MSVC\14.29.30133\atlmfc\include\afxcoll.inl

; 289  : 		if( nIndex < 0 || nIndex >= m_nSize )

  00140	85 db		 test	 ebx, ebx
  00142	0f 88 e7 00 00
	00		 js	 $LN36@OnChkK200
  00148	8b 45 f0	 mov	 eax, DWORD PTR _arCode$[ebp]
  0014b	3b 58 08	 cmp	 ebx, DWORD PTR [eax+8]
  0014e	0f 8d db 00 00
	00		 jge	 $LN36@OnChkK200

; 291  : 		return m_pData[nIndex]; }

  00154	8b 40 04	 mov	 eax, DWORD PTR [eax+4]
  00157	8d 0c 9d 00 00
	00 00		 lea	 ecx, DWORD PTR [ebx*4]
  0015e	03 c1		 add	 eax, ecx
; File D:\git\src\IBK\IBK_DRFN\ProjSrc\SrcDrfn\Chart\comparechart\TabUpJongDlg.cpp

; 213  : 		pData->strCode = arCode->GetAt(nIndex);

  00160	8b cf		 mov	 ecx, edi
  00162	50		 push	 eax
  00163	ff 15 00 00 00
	00		 call	 DWORD PTR __imp_??4?$CStringT@DV?$StrTraitMFC_DLL@DV?$ChTraitsCRT@D@ATL@@@@@ATL@@QAEAAV01@ABV01@@Z
; File C:\Program Files (x86)\Microsoft Visual Studio\2019\Community\VC\Tools\MSVC\14.29.30133\atlmfc\include\afxcoll.inl

; 289  : 		if( nIndex < 0 || nIndex >= m_nSize )

  00169	8b 45 ec	 mov	 eax, DWORD PTR _arName$[ebp]
  0016c	3b 58 08	 cmp	 ebx, DWORD PTR [eax+8]
  0016f	0f 8d ba 00 00
	00		 jge	 $LN36@OnChkK200

; 291  : 		return m_pData[nIndex]; }

  00175	8b 40 04	 mov	 eax, DWORD PTR [eax+4]
  00178	8d 0c 9d 00 00
	00 00		 lea	 ecx, DWORD PTR [ebx*4]
  0017f	03 c1		 add	 eax, ecx
; File D:\git\src\IBK\IBK_DRFN\ProjSrc\SrcDrfn\Chart\comparechart\TabUpJongDlg.cpp

; 214  : 		pData->strKor = arName->GetAt(nIndex);

  00181	8d 4f 04	 lea	 ecx, DWORD PTR [edi+4]
  00184	50		 push	 eax
  00185	ff 15 00 00 00
	00		 call	 DWORD PTR __imp_??4?$CStringT@DV?$StrTraitMFC_DLL@DV?$ChTraitsCRT@D@ATL@@@@@ATL@@QAEAAV01@ABV01@@Z

; 215  : 		pData->strKor.TrimRight();

  0018b	8d 4f 04	 lea	 ecx, DWORD PTR [edi+4]
  0018e	ff 15 00 00 00
	00		 call	 DWORD PTR __imp_?TrimRight@?$CStringT@DV?$StrTraitMFC_DLL@DV?$ChTraitsCRT@D@ATL@@@@@ATL@@QAEAAV12@XZ

; 216  : 		pData->strEng = _T("");	

  00194	68 00 00 00 00	 push	 OFFSET ??_C@_00CNPNBAHC@@
  00199	8d 4f 08	 lea	 ecx, DWORD PTR [edi+8]
  0019c	ff 15 00 00 00
	00		 call	 DWORD PTR __imp_??4?$CStringT@DV?$StrTraitMFC_DLL@DV?$ChTraitsCRT@D@ATL@@@@@ATL@@QAEAAV01@PBD@Z

; 217  : 		m_listUpJongCode.m_AllArray.Add(pData);

  001a2	8b 75 e8	 mov	 esi, DWORD PTR _this$1$[ebp]
; File C:\Program Files (x86)\Microsoft Visual Studio\2019\Community\VC\Tools\MSVC\14.29.30133\atlmfc\include\afxtempl.h

; 333  : 	{ INT_PTR nIndex = m_nSize;

  001a5	8b 86 f0 01 00
	00		 mov	 eax, DWORD PTR [esi+496]
  001ab	89 45 e0	 mov	 DWORD PTR _nIndex$1$[ebp], eax

; 538  : 	if(nIndex < 0)

  001ae	85 c0		 test	 eax, eax
  001b0	78 7d		 js	 SHORT $LN36@OnChkK200

; 539  : 		AfxThrowInvalidArgException();
; 540  : 
; 541  : 	if (nIndex >= m_nSize)
; 542  : 		SetSize(nIndex+1, -1);

  001b2	6a ff		 push	 -1
  001b4	40		 inc	 eax
  001b5	8d 8e e8 01 00
	00		 lea	 ecx, DWORD PTR [esi+488]
  001bb	50		 push	 eax
  001bc	e8 00 00 00 00	 call	 ?SetSize@?$CArray@PAU__MASTERCODE@@PAU1@@@QAEXHH@Z ; CArray<__MASTERCODE *,__MASTERCODE *>::SetSize

; 543  : 	m_pData[nIndex] = newElement;

  001c1	8b 86 ec 01 00
	00		 mov	 eax, DWORD PTR [esi+492]
; File D:\git\src\IBK\IBK_DRFN\ProjSrc\SrcDrfn\Chart\comparechart\TabUpJongDlg.cpp

; 210  : 	for(nIndex=0; nIndex<arCode->GetSize(); nIndex++)

  001c7	43		 inc	 ebx
; File C:\Program Files (x86)\Microsoft Visual Studio\2019\Community\VC\Tools\MSVC\14.29.30133\atlmfc\include\afxtempl.h

; 543  : 	m_pData[nIndex] = newElement;

  001c8	8b 4d e0	 mov	 ecx, DWORD PTR _nIndex$1$[ebp]
  001cb	89 3c 88	 mov	 DWORD PTR [eax+ecx*4], edi
; File D:\git\src\IBK\IBK_DRFN\ProjSrc\SrcDrfn\Chart\comparechart\TabUpJongDlg.cpp

; 210  : 	for(nIndex=0; nIndex<arCode->GetSize(); nIndex++)

  001ce	8b 45 f0	 mov	 eax, DWORD PTR _arCode$[ebp]
  001d1	3b 58 08	 cmp	 ebx, DWORD PTR [eax+8]
  001d4	0f 8c 38 ff ff
	ff		 jl	 $LL4@OnChkK200
$LN3@OnChkK200:
; File C:\Program Files (x86)\Microsoft Visual Studio\2019\Community\VC\Tools\MSVC\14.29.30133\atlmfc\include\afxcmn.inl

; 239  : 	{ ASSERT(::IsWindow(m_hWnd)); ::SendMessage(m_hWnd, LVM_SETITEMCOUNT, nItems, 0); }

  001da	6a 00		 push	 0
  001dc	ff 70 08	 push	 DWORD PTR [eax+8]
  001df	8b 45 e8	 mov	 eax, DWORD PTR _this$1$[ebp]
  001e2	68 2f 10 00 00	 push	 4143			; 0000102fH
  001e7	ff b0 00 01 00
	00		 push	 DWORD PTR [eax+256]
  001ed	ff 15 00 00 00
	00		 call	 DWORD PTR __imp__SendMessageA@16
; File D:\git\src\IBK\IBK_DRFN\ProjSrc\SrcDrfn\Chart\comparechart\TabUpJongDlg.cpp

; 221  : 	delete arCode;

  001f3	8b 4d f0	 mov	 ecx, DWORD PTR _arCode$[ebp]
  001f6	85 c9		 test	 ecx, ecx
  001f8	74 07		 je	 SHORT $LN14@OnChkK200
  001fa	8b 01		 mov	 eax, DWORD PTR [ecx]
  001fc	6a 01		 push	 1
  001fe	ff 50 04	 call	 DWORD PTR [eax+4]
$LN14@OnChkK200:

; 222  : 	delete arName;

  00201	8b 4d ec	 mov	 ecx, DWORD PTR _arName$[ebp]
  00204	85 c9		 test	 ecx, ecx
  00206	74 07		 je	 SHORT $LN16@OnChkK200
  00208	8b 01		 mov	 eax, DWORD PTR [ecx]
  0020a	6a 01		 push	 1
  0020c	ff 50 04	 call	 DWORD PTR [eax+4]
$LN16@OnChkK200:

; 223  : 	delete arEngName;

  0020f	8b 4d e4	 mov	 ecx, DWORD PTR _arEngName$[ebp]
  00212	85 c9		 test	 ecx, ecx
  00214	74 07		 je	 SHORT $LN18@OnChkK200
  00216	8b 01		 mov	 eax, DWORD PTR [ecx]
  00218	6a 01		 push	 1
  0021a	ff 50 04	 call	 DWORD PTR [eax+4]
$LN18@OnChkK200:

; 224  : }

  0021d	8b 4d f4	 mov	 ecx, DWORD PTR __$EHRec$[ebp]
  00220	64 89 0d 00 00
	00 00		 mov	 DWORD PTR fs:0, ecx
  00227	59		 pop	 ecx
  00228	5f		 pop	 edi
  00229	5e		 pop	 esi
  0022a	5b		 pop	 ebx
  0022b	8b e5		 mov	 esp, ebp
  0022d	5d		 pop	 ebp
  0022e	c3		 ret	 0
$LN36@OnChkK200:
; File C:\Program Files (x86)\Microsoft Visual Studio\2019\Community\VC\Tools\MSVC\14.29.30133\atlmfc\include\afxcoll.inl

; 290  : 			AfxThrowInvalidArgException();

  0022f	e8 00 00 00 00	 call	 ?AfxThrowInvalidArgException@@YGXXZ ; AfxThrowInvalidArgException
$LN60@OnChkK200:
  00234	cc		 int	 3
_TEXT	ENDS
;	COMDAT text$x
text$x	SEGMENT
__unwindfunclet$?OnChkK200@CTabUpJongDlg@@IAEXXZ$0:
  00000	8b 45 e0	 mov	 eax, DWORD PTR $T4[ebp]
  00003	50		 push	 eax
  00004	e8 00 00 00 00	 call	 ??3CObject@@SGXPAX@Z	; CObject::operator delete
  00009	c3		 ret	 0
__unwindfunclet$?OnChkK200@CTabUpJongDlg@@IAEXXZ$1:
  0000a	8b 45 e0	 mov	 eax, DWORD PTR $T3[ebp]
  0000d	50		 push	 eax
  0000e	e8 00 00 00 00	 call	 ??3CObject@@SGXPAX@Z	; CObject::operator delete
  00013	c3		 ret	 0
__unwindfunclet$?OnChkK200@CTabUpJongDlg@@IAEXXZ$2:
  00014	8b 45 e0	 mov	 eax, DWORD PTR $T2[ebp]
  00017	50		 push	 eax
  00018	e8 00 00 00 00	 call	 ??3CObject@@SGXPAX@Z	; CObject::operator delete
  0001d	c3		 ret	 0
  0001e	cc		 int	 3
  0001f	cc		 int	 3
  00020	cc		 int	 3
  00021	cc		 int	 3
  00022	cc		 int	 3
__ehhandler$?OnChkK200@CTabUpJongDlg@@IAEXXZ:
  00023	90		 npad	 1
  00024	90		 npad	 1
  00025	8b 54 24 08	 mov	 edx, DWORD PTR [esp+8]
  00029	8d 42 0c	 lea	 eax, DWORD PTR [edx+12]
  0002c	8b 4a dc	 mov	 ecx, DWORD PTR [edx-36]
  0002f	33 c8		 xor	 ecx, eax
  00031	e8 00 00 00 00	 call	 @__security_check_cookie@4
  00036	b8 00 00 00 00	 mov	 eax, OFFSET __ehfuncinfo$?OnChkK200@CTabUpJongDlg@@IAEXXZ
  0003b	e9 00 00 00 00	 jmp	 ___CxxFrameHandler3
text$x	ENDS
?OnChkK200@CTabUpJongDlg@@IAEXXZ ENDP			; CTabUpJongDlg::OnChkK200
; Function compile flags: /Ogtp
; File D:\git\src\IBK\IBK_DRFN\ProjSrc\SrcDrfn\Chart\comparechart\TabUpJongDlg.cpp
; File C:\Program Files (x86)\Microsoft Visual Studio\2019\Community\VC\Tools\MSVC\14.29.30133\atlmfc\include\afxcmn.inl
; File D:\git\src\IBK\IBK_DRFN\ProjSrc\SrcDrfn\Chart\comparechart\TabUpJongDlg.cpp
; File C:\Program Files (x86)\Microsoft Visual Studio\2019\Community\VC\Tools\MSVC\14.29.30133\atlmfc\include\afx.inl
; File D:\git\src\IBK\IBK_DRFN\ProjSrc\SrcDrfn\Chart\comparechart\TabUpJongDlg.cpp
; File C:\Program Files (x86)\Microsoft Visual Studio\2019\Community\VC\Tools\MSVC\14.29.30133\atlmfc\include\afx.inl
; File D:\git\src\IBK\IBK_DRFN\ProjSrc\SrcDrfn\Chart\comparechart\TabUpJongDlg.cpp
; File C:\Program Files (x86)\Microsoft Visual Studio\2019\Community\VC\Tools\MSVC\14.29.30133\atlmfc\include\afx.inl
; File D:\git\src\IBK\IBK_DRFN\ProjSrc\SrcDrfn\Chart\comparechart\TabUpJongDlg.cpp
; File C:\Program Files (x86)\Microsoft Visual Studio\2019\Community\VC\Tools\MSVC\14.29.30133\atlmfc\include\afx.inl
; File D:\git\src\IBK\IBK_DRFN\ProjSrc\SrcDrfn\Chart\comparechart\TabUpJongDlg.cpp
; File C:\Program Files (x86)\Microsoft Visual Studio\2019\Community\VC\Tools\MSVC\14.29.30133\atlmfc\include\afx.inl
; File D:\git\src\IBK\IBK_DRFN\ProjSrc\SrcDrfn\Chart\comparechart\TabUpJongDlg.cpp
; File C:\Program Files (x86)\Microsoft Visual Studio\2019\Community\VC\Tools\MSVC\14.29.30133\atlmfc\include\afxcoll.inl
; File D:\git\src\IBK\IBK_DRFN\ProjSrc\SrcDrfn\Chart\comparechart\TabUpJongDlg.cpp
; File C:\Program Files (x86)\Microsoft Visual Studio\2019\Community\VC\Tools\MSVC\14.29.30133\atlmfc\include\afxcoll.inl
; File D:\git\src\IBK\IBK_DRFN\ProjSrc\SrcDrfn\Chart\comparechart\TabUpJongDlg.cpp
; File C:\Program Files (x86)\Microsoft Visual Studio\2019\Community\VC\Tools\MSVC\14.29.30133\atlmfc\include\afxtempl.h
; File D:\git\src\IBK\IBK_DRFN\ProjSrc\SrcDrfn\Chart\comparechart\TabUpJongDlg.cpp
; File C:\Program Files (x86)\Microsoft Visual Studio\2019\Community\VC\Tools\MSVC\14.29.30133\atlmfc\include\afxtempl.h
; File D:\git\src\IBK\IBK_DRFN\ProjSrc\SrcDrfn\Chart\comparechart\TabUpJongDlg.cpp
; File C:\Program Files (x86)\Microsoft Visual Studio\2019\Community\VC\Tools\MSVC\14.29.30133\atlmfc\include\afxcmn.inl
; File D:\git\src\IBK\IBK_DRFN\ProjSrc\SrcDrfn\Chart\comparechart\TabUpJongDlg.cpp
; File C:\Program Files (x86)\Microsoft Visual Studio\2019\Community\VC\Tools\MSVC\14.29.30133\atlmfc\include\afxcoll.inl
; File D:\git\src\IBK\IBK_DRFN\ProjSrc\SrcDrfn\Chart\comparechart\TabUpJongDlg.cpp
;	COMDAT ?OnChkKosdaq@CTabUpJongDlg@@IAEXXZ
_TEXT	SEGMENT
_nIndex$1$ = -32					; size = 4
$T2 = -32						; size = 4
$T3 = -32						; size = 4
$T4 = -32						; size = 4
_arEngName$ = -28					; size = 4
_this$1$ = -24						; size = 4
_arName$ = -20						; size = 4
_arCode$ = -16						; size = 4
__$EHRec$ = -12						; size = 12
?OnChkKosdaq@CTabUpJongDlg@@IAEXXZ PROC			; CTabUpJongDlg::OnChkKosdaq, COMDAT
; _this$ = ecx

; 227  : {

  00000	55		 push	 ebp
  00001	8b ec		 mov	 ebp, esp
  00003	6a ff		 push	 -1
  00005	68 00 00 00 00	 push	 __ehhandler$?OnChkKosdaq@CTabUpJongDlg@@IAEXXZ
  0000a	64 a1 00 00 00
	00		 mov	 eax, DWORD PTR fs:0
  00010	50		 push	 eax
  00011	83 ec 14	 sub	 esp, 20			; 00000014H
  00014	53		 push	 ebx
  00015	56		 push	 esi
  00016	57		 push	 edi
  00017	a1 00 00 00 00	 mov	 eax, DWORD PTR ___security_cookie
  0001c	33 c5		 xor	 eax, ebp
  0001e	50		 push	 eax
  0001f	8d 45 f4	 lea	 eax, DWORD PTR __$EHRec$[ebp]
  00022	64 a3 00 00 00
	00		 mov	 DWORD PTR fs:0, eax
  00028	8b d9		 mov	 ebx, ecx
  0002a	89 5d e8	 mov	 DWORD PTR _this$1$[ebp], ebx

; 228  : 	// TODO: Add your control notification handler code here
; 229  : 	m_BtnKospi.SetCheck(FALSE);	

  0002d	6a 00		 push	 0
  0002f	8d 8b 08 02 00
	00		 lea	 ecx, DWORD PTR [ebx+520]
  00035	e8 00 00 00 00	 call	 ?SetCheck@CILButton@@QAEXH@Z ; CILButton::SetCheck

; 230  : 	m_BtnK200.SetCheck(FALSE);	

  0003a	6a 00		 push	 0
  0003c	8d 8b 68 03 00
	00		 lea	 ecx, DWORD PTR [ebx+872]
  00042	e8 00 00 00 00	 call	 ?SetCheck@CILButton@@QAEXH@Z ; CILButton::SetCheck
; File C:\Program Files (x86)\Microsoft Visual Studio\2019\Community\VC\Tools\MSVC\14.29.30133\atlmfc\include\afxcmn.inl

; 171  : 	{ ASSERT(::IsWindow(m_hWnd)); return (BOOL) ::SendMessage(m_hWnd, LVM_DELETEALLITEMS, 0, 0L); }

  00047	6a 00		 push	 0
  00049	6a 00		 push	 0
  0004b	68 09 10 00 00	 push	 4105			; 00001009H
  00050	ff b3 00 01 00
	00		 push	 DWORD PTR [ebx+256]
  00056	ff 15 00 00 00
	00		 call	 DWORD PTR __imp__SendMessageA@16
; File D:\git\src\IBK\IBK_DRFN\ProjSrc\SrcDrfn\Chart\comparechart\TabUpJongDlg.cpp

; 234  : 	fnRemovelistStockCode();

  0005c	8b cb		 mov	 ecx, ebx
  0005e	e8 00 00 00 00	 call	 ?fnRemovelistStockCode@CTabUpJongDlg@@IAEXXZ ; CTabUpJongDlg::fnRemovelistStockCode
; File C:\Program Files (x86)\Microsoft Visual Studio\2019\Community\VC\Tools\MSVC\14.29.30133\atlmfc\include\afx.inl

; 116  : 	{ return ::operator new(nSize); }

  00063	6a 14		 push	 20			; 00000014H
  00065	e8 00 00 00 00	 call	 ??2@YAPAXI@Z		; operator new
  0006a	83 c4 04	 add	 esp, 4
; File D:\git\src\IBK\IBK_DRFN\ProjSrc\SrcDrfn\Chart\comparechart\TabUpJongDlg.cpp

; 239  : 	arCode = new CStringArray;

  0006d	89 45 e0	 mov	 DWORD PTR $T4[ebp], eax
  00070	c7 45 fc 00 00
	00 00		 mov	 DWORD PTR __$EHRec$[ebp+8], 0
  00077	85 c0		 test	 eax, eax
  00079	74 09		 je	 SHORT $LN6@OnChkKosda
  0007b	8b c8		 mov	 ecx, eax
  0007d	e8 00 00 00 00	 call	 ??0CStringArray@@QAE@XZ	; CStringArray::CStringArray
  00082	eb 02		 jmp	 SHORT $LN7@OnChkKosda
$LN6@OnChkKosda:
  00084	33 c0		 xor	 eax, eax
$LN7@OnChkKosda:
; File C:\Program Files (x86)\Microsoft Visual Studio\2019\Community\VC\Tools\MSVC\14.29.30133\atlmfc\include\afx.inl

; 116  : 	{ return ::operator new(nSize); }

  00086	6a 14		 push	 20			; 00000014H
; File D:\git\src\IBK\IBK_DRFN\ProjSrc\SrcDrfn\Chart\comparechart\TabUpJongDlg.cpp

; 239  : 	arCode = new CStringArray;

  00088	c7 45 fc ff ff
	ff ff		 mov	 DWORD PTR __$EHRec$[ebp+8], -1
  0008f	89 45 f0	 mov	 DWORD PTR _arCode$[ebp], eax
; File C:\Program Files (x86)\Microsoft Visual Studio\2019\Community\VC\Tools\MSVC\14.29.30133\atlmfc\include\afx.inl

; 116  : 	{ return ::operator new(nSize); }

  00092	e8 00 00 00 00	 call	 ??2@YAPAXI@Z		; operator new
  00097	83 c4 04	 add	 esp, 4
; File D:\git\src\IBK\IBK_DRFN\ProjSrc\SrcDrfn\Chart\comparechart\TabUpJongDlg.cpp

; 240  : 	arName = new CStringArray;

  0009a	89 45 e0	 mov	 DWORD PTR $T3[ebp], eax
  0009d	c7 45 fc 01 00
	00 00		 mov	 DWORD PTR __$EHRec$[ebp+8], 1
  000a4	85 c0		 test	 eax, eax
  000a6	74 09		 je	 SHORT $LN8@OnChkKosda
  000a8	8b c8		 mov	 ecx, eax
  000aa	e8 00 00 00 00	 call	 ??0CStringArray@@QAE@XZ	; CStringArray::CStringArray
  000af	eb 02		 jmp	 SHORT $LN9@OnChkKosda
$LN8@OnChkKosda:
  000b1	33 c0		 xor	 eax, eax
$LN9@OnChkKosda:
; File C:\Program Files (x86)\Microsoft Visual Studio\2019\Community\VC\Tools\MSVC\14.29.30133\atlmfc\include\afx.inl

; 116  : 	{ return ::operator new(nSize); }

  000b3	6a 14		 push	 20			; 00000014H
; File D:\git\src\IBK\IBK_DRFN\ProjSrc\SrcDrfn\Chart\comparechart\TabUpJongDlg.cpp

; 240  : 	arName = new CStringArray;

  000b5	c7 45 fc ff ff
	ff ff		 mov	 DWORD PTR __$EHRec$[ebp+8], -1
  000bc	89 45 ec	 mov	 DWORD PTR _arName$[ebp], eax
; File C:\Program Files (x86)\Microsoft Visual Studio\2019\Community\VC\Tools\MSVC\14.29.30133\atlmfc\include\afx.inl

; 116  : 	{ return ::operator new(nSize); }

  000bf	e8 00 00 00 00	 call	 ??2@YAPAXI@Z		; operator new
  000c4	83 c4 04	 add	 esp, 4
; File D:\git\src\IBK\IBK_DRFN\ProjSrc\SrcDrfn\Chart\comparechart\TabUpJongDlg.cpp

; 241  : 	arEngName = new CStringArray;

  000c7	89 45 e0	 mov	 DWORD PTR $T2[ebp], eax
  000ca	c7 45 fc 02 00
	00 00		 mov	 DWORD PTR __$EHRec$[ebp+8], 2
  000d1	85 c0		 test	 eax, eax
  000d3	74 09		 je	 SHORT $LN10@OnChkKosda
  000d5	8b c8		 mov	 ecx, eax
  000d7	e8 00 00 00 00	 call	 ??0CStringArray@@QAE@XZ	; CStringArray::CStringArray
  000dc	eb 02		 jmp	 SHORT $LN11@OnChkKosda
$LN10@OnChkKosda:
  000de	33 c0		 xor	 eax, eax
$LN11@OnChkKosda:

; 242  : 	int nIndex = 0;
; 243  : 
; 244  : 	m_pDataManager->GetKSQUpMst(arCode, arName, arEngName,1);

  000e0	6a 01		 push	 1
  000e2	89 45 e4	 mov	 DWORD PTR _arEngName$[ebp], eax
  000e5	8d 55 e4	 lea	 edx, DWORD PTR _arEngName$[ebp]
  000e8	8b 83 dc 00 00
	00		 mov	 eax, DWORD PTR [ebx+220]
  000ee	52		 push	 edx
  000ef	8d 55 ec	 lea	 edx, DWORD PTR _arName$[ebp]
  000f2	c7 45 fc ff ff
	ff ff		 mov	 DWORD PTR __$EHRec$[ebp+8], -1
  000f9	52		 push	 edx
  000fa	8b 08		 mov	 ecx, DWORD PTR [eax]
  000fc	8d 55 f0	 lea	 edx, DWORD PTR _arCode$[ebp]
  000ff	52		 push	 edx
  00100	50		 push	 eax
  00101	ff 51 50	 call	 DWORD PTR [ecx+80]

; 245  : 	for(nIndex=0; nIndex<arCode->GetSize(); nIndex++)

  00104	8b 45 f0	 mov	 eax, DWORD PTR _arCode$[ebp]
  00107	33 db		 xor	 ebx, ebx
  00109	39 58 08	 cmp	 DWORD PTR [eax+8], ebx
  0010c	0f 8e c8 00 00
	00		 jle	 $LN3@OnChkKosda
$LL4@OnChkKosda:

; 246  : 	{
; 247  : 		MASTERCODE* pData = new MASTERCODE;

  00112	6a 0c		 push	 12			; 0000000cH
  00114	e8 00 00 00 00	 call	 ??2@YAPAXI@Z		; operator new
  00119	8b f8		 mov	 edi, eax
  0011b	83 c4 04	 add	 esp, 4
  0011e	85 ff		 test	 edi, edi
  00120	74 1c		 je	 SHORT $LN12@OnChkKosda
  00122	8b cf		 mov	 ecx, edi
  00124	ff 15 00 00 00
	00		 call	 DWORD PTR __imp_??0?$CStringT@DV?$StrTraitMFC_DLL@DV?$ChTraitsCRT@D@ATL@@@@@ATL@@QAE@XZ
  0012a	8d 4f 04	 lea	 ecx, DWORD PTR [edi+4]
  0012d	ff 15 00 00 00
	00		 call	 DWORD PTR __imp_??0?$CStringT@DV?$StrTraitMFC_DLL@DV?$ChTraitsCRT@D@ATL@@@@@ATL@@QAE@XZ
  00133	8d 4f 08	 lea	 ecx, DWORD PTR [edi+8]
  00136	ff 15 00 00 00
	00		 call	 DWORD PTR __imp_??0?$CStringT@DV?$StrTraitMFC_DLL@DV?$ChTraitsCRT@D@ATL@@@@@ATL@@QAE@XZ
  0013c	eb 02		 jmp	 SHORT $LN13@OnChkKosda
$LN12@OnChkKosda:
  0013e	33 ff		 xor	 edi, edi
$LN13@OnChkKosda:
; File C:\Program Files (x86)\Microsoft Visual Studio\2019\Community\VC\Tools\MSVC\14.29.30133\atlmfc\include\afxcoll.inl

; 289  : 		if( nIndex < 0 || nIndex >= m_nSize )

  00140	85 db		 test	 ebx, ebx
  00142	0f 88 e7 00 00
	00		 js	 $LN36@OnChkKosda
  00148	8b 45 f0	 mov	 eax, DWORD PTR _arCode$[ebp]
  0014b	3b 58 08	 cmp	 ebx, DWORD PTR [eax+8]
  0014e	0f 8d db 00 00
	00		 jge	 $LN36@OnChkKosda

; 291  : 		return m_pData[nIndex]; }

  00154	8b 40 04	 mov	 eax, DWORD PTR [eax+4]
  00157	8d 0c 9d 00 00
	00 00		 lea	 ecx, DWORD PTR [ebx*4]
  0015e	03 c1		 add	 eax, ecx
; File D:\git\src\IBK\IBK_DRFN\ProjSrc\SrcDrfn\Chart\comparechart\TabUpJongDlg.cpp

; 248  : 		pData->strCode = arCode->GetAt(nIndex);

  00160	8b cf		 mov	 ecx, edi
  00162	50		 push	 eax
  00163	ff 15 00 00 00
	00		 call	 DWORD PTR __imp_??4?$CStringT@DV?$StrTraitMFC_DLL@DV?$ChTraitsCRT@D@ATL@@@@@ATL@@QAEAAV01@ABV01@@Z
; File C:\Program Files (x86)\Microsoft Visual Studio\2019\Community\VC\Tools\MSVC\14.29.30133\atlmfc\include\afxcoll.inl

; 289  : 		if( nIndex < 0 || nIndex >= m_nSize )

  00169	8b 45 ec	 mov	 eax, DWORD PTR _arName$[ebp]
  0016c	3b 58 08	 cmp	 ebx, DWORD PTR [eax+8]
  0016f	0f 8d ba 00 00
	00		 jge	 $LN36@OnChkKosda

; 291  : 		return m_pData[nIndex]; }

  00175	8b 40 04	 mov	 eax, DWORD PTR [eax+4]
  00178	8d 0c 9d 00 00
	00 00		 lea	 ecx, DWORD PTR [ebx*4]
  0017f	03 c1		 add	 eax, ecx
; File D:\git\src\IBK\IBK_DRFN\ProjSrc\SrcDrfn\Chart\comparechart\TabUpJongDlg.cpp

; 249  : 		pData->strKor = arName->GetAt(nIndex);

  00181	8d 4f 04	 lea	 ecx, DWORD PTR [edi+4]
  00184	50		 push	 eax
  00185	ff 15 00 00 00
	00		 call	 DWORD PTR __imp_??4?$CStringT@DV?$StrTraitMFC_DLL@DV?$ChTraitsCRT@D@ATL@@@@@ATL@@QAEAAV01@ABV01@@Z

; 250  : 		pData->strKor.TrimRight();

  0018b	8d 4f 04	 lea	 ecx, DWORD PTR [edi+4]
  0018e	ff 15 00 00 00
	00		 call	 DWORD PTR __imp_?TrimRight@?$CStringT@DV?$StrTraitMFC_DLL@DV?$ChTraitsCRT@D@ATL@@@@@ATL@@QAEAAV12@XZ

; 251  : 		pData->strEng = _T("");	

  00194	68 00 00 00 00	 push	 OFFSET ??_C@_00CNPNBAHC@@
  00199	8d 4f 08	 lea	 ecx, DWORD PTR [edi+8]
  0019c	ff 15 00 00 00
	00		 call	 DWORD PTR __imp_??4?$CStringT@DV?$StrTraitMFC_DLL@DV?$ChTraitsCRT@D@ATL@@@@@ATL@@QAEAAV01@PBD@Z

; 252  : 		m_listUpJongCode.m_AllArray.Add(pData);

  001a2	8b 75 e8	 mov	 esi, DWORD PTR _this$1$[ebp]
; File C:\Program Files (x86)\Microsoft Visual Studio\2019\Community\VC\Tools\MSVC\14.29.30133\atlmfc\include\afxtempl.h

; 333  : 	{ INT_PTR nIndex = m_nSize;

  001a5	8b 86 f0 01 00
	00		 mov	 eax, DWORD PTR [esi+496]
  001ab	89 45 e0	 mov	 DWORD PTR _nIndex$1$[ebp], eax

; 538  : 	if(nIndex < 0)

  001ae	85 c0		 test	 eax, eax
  001b0	78 7d		 js	 SHORT $LN36@OnChkKosda

; 539  : 		AfxThrowInvalidArgException();
; 540  : 
; 541  : 	if (nIndex >= m_nSize)
; 542  : 		SetSize(nIndex+1, -1);

  001b2	6a ff		 push	 -1
  001b4	40		 inc	 eax
  001b5	8d 8e e8 01 00
	00		 lea	 ecx, DWORD PTR [esi+488]
  001bb	50		 push	 eax
  001bc	e8 00 00 00 00	 call	 ?SetSize@?$CArray@PAU__MASTERCODE@@PAU1@@@QAEXHH@Z ; CArray<__MASTERCODE *,__MASTERCODE *>::SetSize

; 543  : 	m_pData[nIndex] = newElement;

  001c1	8b 86 ec 01 00
	00		 mov	 eax, DWORD PTR [esi+492]
; File D:\git\src\IBK\IBK_DRFN\ProjSrc\SrcDrfn\Chart\comparechart\TabUpJongDlg.cpp

; 245  : 	for(nIndex=0; nIndex<arCode->GetSize(); nIndex++)

  001c7	43		 inc	 ebx
; File C:\Program Files (x86)\Microsoft Visual Studio\2019\Community\VC\Tools\MSVC\14.29.30133\atlmfc\include\afxtempl.h

; 543  : 	m_pData[nIndex] = newElement;

  001c8	8b 4d e0	 mov	 ecx, DWORD PTR _nIndex$1$[ebp]
  001cb	89 3c 88	 mov	 DWORD PTR [eax+ecx*4], edi
; File D:\git\src\IBK\IBK_DRFN\ProjSrc\SrcDrfn\Chart\comparechart\TabUpJongDlg.cpp

; 245  : 	for(nIndex=0; nIndex<arCode->GetSize(); nIndex++)

  001ce	8b 45 f0	 mov	 eax, DWORD PTR _arCode$[ebp]
  001d1	3b 58 08	 cmp	 ebx, DWORD PTR [eax+8]
  001d4	0f 8c 38 ff ff
	ff		 jl	 $LL4@OnChkKosda
$LN3@OnChkKosda:
; File C:\Program Files (x86)\Microsoft Visual Studio\2019\Community\VC\Tools\MSVC\14.29.30133\atlmfc\include\afxcmn.inl

; 239  : 	{ ASSERT(::IsWindow(m_hWnd)); ::SendMessage(m_hWnd, LVM_SETITEMCOUNT, nItems, 0); }

  001da	6a 00		 push	 0
  001dc	ff 70 08	 push	 DWORD PTR [eax+8]
  001df	8b 45 e8	 mov	 eax, DWORD PTR _this$1$[ebp]
  001e2	68 2f 10 00 00	 push	 4143			; 0000102fH
  001e7	ff b0 00 01 00
	00		 push	 DWORD PTR [eax+256]
  001ed	ff 15 00 00 00
	00		 call	 DWORD PTR __imp__SendMessageA@16
; File D:\git\src\IBK\IBK_DRFN\ProjSrc\SrcDrfn\Chart\comparechart\TabUpJongDlg.cpp

; 256  : 	delete arCode;

  001f3	8b 4d f0	 mov	 ecx, DWORD PTR _arCode$[ebp]
  001f6	85 c9		 test	 ecx, ecx
  001f8	74 07		 je	 SHORT $LN14@OnChkKosda
  001fa	8b 01		 mov	 eax, DWORD PTR [ecx]
  001fc	6a 01		 push	 1
  001fe	ff 50 04	 call	 DWORD PTR [eax+4]
$LN14@OnChkKosda:

; 257  : 	delete arName;

  00201	8b 4d ec	 mov	 ecx, DWORD PTR _arName$[ebp]
  00204	85 c9		 test	 ecx, ecx
  00206	74 07		 je	 SHORT $LN16@OnChkKosda
  00208	8b 01		 mov	 eax, DWORD PTR [ecx]
  0020a	6a 01		 push	 1
  0020c	ff 50 04	 call	 DWORD PTR [eax+4]
$LN16@OnChkKosda:

; 258  : 	delete arEngName;

  0020f	8b 4d e4	 mov	 ecx, DWORD PTR _arEngName$[ebp]
  00212	85 c9		 test	 ecx, ecx
  00214	74 07		 je	 SHORT $LN18@OnChkKosda
  00216	8b 01		 mov	 eax, DWORD PTR [ecx]
  00218	6a 01		 push	 1
  0021a	ff 50 04	 call	 DWORD PTR [eax+4]
$LN18@OnChkKosda:

; 259  : }

  0021d	8b 4d f4	 mov	 ecx, DWORD PTR __$EHRec$[ebp]
  00220	64 89 0d 00 00
	00 00		 mov	 DWORD PTR fs:0, ecx
  00227	59		 pop	 ecx
  00228	5f		 pop	 edi
  00229	5e		 pop	 esi
  0022a	5b		 pop	 ebx
  0022b	8b e5		 mov	 esp, ebp
  0022d	5d		 pop	 ebp
  0022e	c3		 ret	 0
$LN36@OnChkKosda:
; File C:\Program Files (x86)\Microsoft Visual Studio\2019\Community\VC\Tools\MSVC\14.29.30133\atlmfc\include\afxcoll.inl

; 290  : 			AfxThrowInvalidArgException();

  0022f	e8 00 00 00 00	 call	 ?AfxThrowInvalidArgException@@YGXXZ ; AfxThrowInvalidArgException
$LN60@OnChkKosda:
  00234	cc		 int	 3
_TEXT	ENDS
;	COMDAT text$x
text$x	SEGMENT
__unwindfunclet$?OnChkKosdaq@CTabUpJongDlg@@IAEXXZ$0:
  00000	8b 45 e0	 mov	 eax, DWORD PTR $T4[ebp]
  00003	50		 push	 eax
  00004	e8 00 00 00 00	 call	 ??3CObject@@SGXPAX@Z	; CObject::operator delete
  00009	c3		 ret	 0
__unwindfunclet$?OnChkKosdaq@CTabUpJongDlg@@IAEXXZ$1:
  0000a	8b 45 e0	 mov	 eax, DWORD PTR $T3[ebp]
  0000d	50		 push	 eax
  0000e	e8 00 00 00 00	 call	 ??3CObject@@SGXPAX@Z	; CObject::operator delete
  00013	c3		 ret	 0
__unwindfunclet$?OnChkKosdaq@CTabUpJongDlg@@IAEXXZ$2:
  00014	8b 45 e0	 mov	 eax, DWORD PTR $T2[ebp]
  00017	50		 push	 eax
  00018	e8 00 00 00 00	 call	 ??3CObject@@SGXPAX@Z	; CObject::operator delete
  0001d	c3		 ret	 0
  0001e	cc		 int	 3
  0001f	cc		 int	 3
  00020	cc		 int	 3
  00021	cc		 int	 3
  00022	cc		 int	 3
__ehhandler$?OnChkKosdaq@CTabUpJongDlg@@IAEXXZ:
  00023	90		 npad	 1
  00024	90		 npad	 1
  00025	8b 54 24 08	 mov	 edx, DWORD PTR [esp+8]
  00029	8d 42 0c	 lea	 eax, DWORD PTR [edx+12]
  0002c	8b 4a dc	 mov	 ecx, DWORD PTR [edx-36]
  0002f	33 c8		 xor	 ecx, eax
  00031	e8 00 00 00 00	 call	 @__security_check_cookie@4
  00036	b8 00 00 00 00	 mov	 eax, OFFSET __ehfuncinfo$?OnChkKosdaq@CTabUpJongDlg@@IAEXXZ
  0003b	e9 00 00 00 00	 jmp	 ___CxxFrameHandler3
text$x	ENDS
?OnChkKosdaq@CTabUpJongDlg@@IAEXXZ ENDP			; CTabUpJongDlg::OnChkKosdaq
; Function compile flags: /Ogtp
; File D:\git\src\IBK\IBK_DRFN\ProjSrc\SrcDrfn\Chart\comparechart\TabUpJongDlg.cpp
; File C:\Program Files (x86)\Microsoft Visual Studio\2019\Community\VC\Tools\MSVC\14.29.30133\atlmfc\include\afxcmn.inl
; File D:\git\src\IBK\IBK_DRFN\ProjSrc\SrcDrfn\Chart\comparechart\TabUpJongDlg.cpp
; File C:\Program Files (x86)\Microsoft Visual Studio\2019\Community\VC\Tools\MSVC\14.29.30133\atlmfc\include\afx.inl
; File D:\git\src\IBK\IBK_DRFN\ProjSrc\SrcDrfn\Chart\comparechart\TabUpJongDlg.cpp
; File C:\Program Files (x86)\Microsoft Visual Studio\2019\Community\VC\Tools\MSVC\14.29.30133\atlmfc\include\afx.inl
; File D:\git\src\IBK\IBK_DRFN\ProjSrc\SrcDrfn\Chart\comparechart\TabUpJongDlg.cpp
; File C:\Program Files (x86)\Microsoft Visual Studio\2019\Community\VC\Tools\MSVC\14.29.30133\atlmfc\include\afx.inl
; File D:\git\src\IBK\IBK_DRFN\ProjSrc\SrcDrfn\Chart\comparechart\TabUpJongDlg.cpp
; File C:\Program Files (x86)\Microsoft Visual Studio\2019\Community\VC\Tools\MSVC\14.29.30133\atlmfc\include\afx.inl
; File D:\git\src\IBK\IBK_DRFN\ProjSrc\SrcDrfn\Chart\comparechart\TabUpJongDlg.cpp
; File C:\Program Files (x86)\Microsoft Visual Studio\2019\Community\VC\Tools\MSVC\14.29.30133\atlmfc\include\afx.inl
; File D:\git\src\IBK\IBK_DRFN\ProjSrc\SrcDrfn\Chart\comparechart\TabUpJongDlg.cpp
; File C:\Program Files (x86)\Microsoft Visual Studio\2019\Community\VC\Tools\MSVC\14.29.30133\atlmfc\include\afxcoll.inl
; File D:\git\src\IBK\IBK_DRFN\ProjSrc\SrcDrfn\Chart\comparechart\TabUpJongDlg.cpp
; File C:\Program Files (x86)\Microsoft Visual Studio\2019\Community\VC\Tools\MSVC\14.29.30133\atlmfc\include\afxcoll.inl
; File D:\git\src\IBK\IBK_DRFN\ProjSrc\SrcDrfn\Chart\comparechart\TabUpJongDlg.cpp
; File C:\Program Files (x86)\Microsoft Visual Studio\2019\Community\VC\Tools\MSVC\14.29.30133\atlmfc\include\afxtempl.h
; File D:\git\src\IBK\IBK_DRFN\ProjSrc\SrcDrfn\Chart\comparechart\TabUpJongDlg.cpp
; File C:\Program Files (x86)\Microsoft Visual Studio\2019\Community\VC\Tools\MSVC\14.29.30133\atlmfc\include\afxtempl.h
; File D:\git\src\IBK\IBK_DRFN\ProjSrc\SrcDrfn\Chart\comparechart\TabUpJongDlg.cpp
; File C:\Program Files (x86)\Microsoft Visual Studio\2019\Community\VC\Tools\MSVC\14.29.30133\atlmfc\include\afxcmn.inl
; File D:\git\src\IBK\IBK_DRFN\ProjSrc\SrcDrfn\Chart\comparechart\TabUpJongDlg.cpp
; File C:\Program Files (x86)\Microsoft Visual Studio\2019\Community\VC\Tools\MSVC\14.29.30133\atlmfc\include\afxcoll.inl
; File D:\git\src\IBK\IBK_DRFN\ProjSrc\SrcDrfn\Chart\comparechart\TabUpJongDlg.cpp
;	COMDAT ?OnChkKospi@CTabUpJongDlg@@IAEXXZ
_TEXT	SEGMENT
_nIndex$1$ = -32					; size = 4
$T2 = -32						; size = 4
$T3 = -32						; size = 4
$T4 = -32						; size = 4
_arEngName$ = -28					; size = 4
_this$1$ = -24						; size = 4
_arName$ = -20						; size = 4
_arCode$ = -16						; size = 4
__$EHRec$ = -12						; size = 12
?OnChkKospi@CTabUpJongDlg@@IAEXXZ PROC			; CTabUpJongDlg::OnChkKospi, COMDAT
; _this$ = ecx

; 297  : {

  00000	55		 push	 ebp
  00001	8b ec		 mov	 ebp, esp
  00003	6a ff		 push	 -1
  00005	68 00 00 00 00	 push	 __ehhandler$?OnChkKospi@CTabUpJongDlg@@IAEXXZ
  0000a	64 a1 00 00 00
	00		 mov	 eax, DWORD PTR fs:0
  00010	50		 push	 eax
  00011	83 ec 14	 sub	 esp, 20			; 00000014H
  00014	53		 push	 ebx
  00015	56		 push	 esi
  00016	57		 push	 edi
  00017	a1 00 00 00 00	 mov	 eax, DWORD PTR ___security_cookie
  0001c	33 c5		 xor	 eax, ebp
  0001e	50		 push	 eax
  0001f	8d 45 f4	 lea	 eax, DWORD PTR __$EHRec$[ebp]
  00022	64 a3 00 00 00
	00		 mov	 DWORD PTR fs:0, eax
  00028	8b d9		 mov	 ebx, ecx
  0002a	89 5d e8	 mov	 DWORD PTR _this$1$[ebp], ebx

; 298  : 	// TODO: Add your control notification handler code here
; 299  : 	m_BtnKosdaq.SetCheck(FALSE);	

  0002d	6a 00		 push	 0
  0002f	8d 8b c8 04 00
	00		 lea	 ecx, DWORD PTR [ebx+1224]
  00035	e8 00 00 00 00	 call	 ?SetCheck@CILButton@@QAEXH@Z ; CILButton::SetCheck

; 300  : 	m_BtnK200.SetCheck(FALSE);	

  0003a	6a 00		 push	 0
  0003c	8d 8b 68 03 00
	00		 lea	 ecx, DWORD PTR [ebx+872]
  00042	e8 00 00 00 00	 call	 ?SetCheck@CILButton@@QAEXH@Z ; CILButton::SetCheck
; File C:\Program Files (x86)\Microsoft Visual Studio\2019\Community\VC\Tools\MSVC\14.29.30133\atlmfc\include\afxcmn.inl

; 171  : 	{ ASSERT(::IsWindow(m_hWnd)); return (BOOL) ::SendMessage(m_hWnd, LVM_DELETEALLITEMS, 0, 0L); }

  00047	6a 00		 push	 0
  00049	6a 00		 push	 0
  0004b	68 09 10 00 00	 push	 4105			; 00001009H
  00050	ff b3 00 01 00
	00		 push	 DWORD PTR [ebx+256]
  00056	ff 15 00 00 00
	00		 call	 DWORD PTR __imp__SendMessageA@16
; File D:\git\src\IBK\IBK_DRFN\ProjSrc\SrcDrfn\Chart\comparechart\TabUpJongDlg.cpp

; 304  : 	fnRemovelistStockCode();

  0005c	8b cb		 mov	 ecx, ebx
  0005e	e8 00 00 00 00	 call	 ?fnRemovelistStockCode@CTabUpJongDlg@@IAEXXZ ; CTabUpJongDlg::fnRemovelistStockCode
; File C:\Program Files (x86)\Microsoft Visual Studio\2019\Community\VC\Tools\MSVC\14.29.30133\atlmfc\include\afx.inl

; 116  : 	{ return ::operator new(nSize); }

  00063	6a 14		 push	 20			; 00000014H
  00065	e8 00 00 00 00	 call	 ??2@YAPAXI@Z		; operator new
  0006a	83 c4 04	 add	 esp, 4
; File D:\git\src\IBK\IBK_DRFN\ProjSrc\SrcDrfn\Chart\comparechart\TabUpJongDlg.cpp

; 309  : 	arCode = new CStringArray;

  0006d	89 45 e0	 mov	 DWORD PTR $T4[ebp], eax
  00070	c7 45 fc 00 00
	00 00		 mov	 DWORD PTR __$EHRec$[ebp+8], 0
  00077	85 c0		 test	 eax, eax
  00079	74 09		 je	 SHORT $LN6@OnChkKospi
  0007b	8b c8		 mov	 ecx, eax
  0007d	e8 00 00 00 00	 call	 ??0CStringArray@@QAE@XZ	; CStringArray::CStringArray
  00082	eb 02		 jmp	 SHORT $LN7@OnChkKospi
$LN6@OnChkKospi:
  00084	33 c0		 xor	 eax, eax
$LN7@OnChkKospi:
; File C:\Program Files (x86)\Microsoft Visual Studio\2019\Community\VC\Tools\MSVC\14.29.30133\atlmfc\include\afx.inl

; 116  : 	{ return ::operator new(nSize); }

  00086	6a 14		 push	 20			; 00000014H
; File D:\git\src\IBK\IBK_DRFN\ProjSrc\SrcDrfn\Chart\comparechart\TabUpJongDlg.cpp

; 309  : 	arCode = new CStringArray;

  00088	c7 45 fc ff ff
	ff ff		 mov	 DWORD PTR __$EHRec$[ebp+8], -1
  0008f	89 45 f0	 mov	 DWORD PTR _arCode$[ebp], eax
; File C:\Program Files (x86)\Microsoft Visual Studio\2019\Community\VC\Tools\MSVC\14.29.30133\atlmfc\include\afx.inl

; 116  : 	{ return ::operator new(nSize); }

  00092	e8 00 00 00 00	 call	 ??2@YAPAXI@Z		; operator new
  00097	83 c4 04	 add	 esp, 4
; File D:\git\src\IBK\IBK_DRFN\ProjSrc\SrcDrfn\Chart\comparechart\TabUpJongDlg.cpp

; 310  : 	arName = new CStringArray;

  0009a	89 45 e0	 mov	 DWORD PTR $T3[ebp], eax
  0009d	c7 45 fc 01 00
	00 00		 mov	 DWORD PTR __$EHRec$[ebp+8], 1
  000a4	85 c0		 test	 eax, eax
  000a6	74 09		 je	 SHORT $LN8@OnChkKospi
  000a8	8b c8		 mov	 ecx, eax
  000aa	e8 00 00 00 00	 call	 ??0CStringArray@@QAE@XZ	; CStringArray::CStringArray
  000af	eb 02		 jmp	 SHORT $LN9@OnChkKospi
$LN8@OnChkKospi:
  000b1	33 c0		 xor	 eax, eax
$LN9@OnChkKospi:
; File C:\Program Files (x86)\Microsoft Visual Studio\2019\Community\VC\Tools\MSVC\14.29.30133\atlmfc\include\afx.inl

; 116  : 	{ return ::operator new(nSize); }

  000b3	6a 14		 push	 20			; 00000014H
; File D:\git\src\IBK\IBK_DRFN\ProjSrc\SrcDrfn\Chart\comparechart\TabUpJongDlg.cpp

; 310  : 	arName = new CStringArray;

  000b5	c7 45 fc ff ff
	ff ff		 mov	 DWORD PTR __$EHRec$[ebp+8], -1
  000bc	89 45 ec	 mov	 DWORD PTR _arName$[ebp], eax
; File C:\Program Files (x86)\Microsoft Visual Studio\2019\Community\VC\Tools\MSVC\14.29.30133\atlmfc\include\afx.inl

; 116  : 	{ return ::operator new(nSize); }

  000bf	e8 00 00 00 00	 call	 ??2@YAPAXI@Z		; operator new
  000c4	83 c4 04	 add	 esp, 4
; File D:\git\src\IBK\IBK_DRFN\ProjSrc\SrcDrfn\Chart\comparechart\TabUpJongDlg.cpp

; 311  : 	arEngName = new CStringArray;

  000c7	89 45 e0	 mov	 DWORD PTR $T2[ebp], eax
  000ca	c7 45 fc 02 00
	00 00		 mov	 DWORD PTR __$EHRec$[ebp+8], 2
  000d1	85 c0		 test	 eax, eax
  000d3	74 09		 je	 SHORT $LN10@OnChkKospi
  000d5	8b c8		 mov	 ecx, eax
  000d7	e8 00 00 00 00	 call	 ??0CStringArray@@QAE@XZ	; CStringArray::CStringArray
  000dc	eb 02		 jmp	 SHORT $LN11@OnChkKospi
$LN10@OnChkKospi:
  000de	33 c0		 xor	 eax, eax
$LN11@OnChkKospi:

; 312  : 	int nIndex = 0;
; 313  : 
; 314  : 	m_pDataManager->GetKSPUpMst(arCode, arName, arEngName,1);

  000e0	6a 01		 push	 1
  000e2	89 45 e4	 mov	 DWORD PTR _arEngName$[ebp], eax
  000e5	8d 55 e4	 lea	 edx, DWORD PTR _arEngName$[ebp]
  000e8	8b 83 dc 00 00
	00		 mov	 eax, DWORD PTR [ebx+220]
  000ee	52		 push	 edx
  000ef	8d 55 ec	 lea	 edx, DWORD PTR _arName$[ebp]
  000f2	c7 45 fc ff ff
	ff ff		 mov	 DWORD PTR __$EHRec$[ebp+8], -1
  000f9	52		 push	 edx
  000fa	8b 08		 mov	 ecx, DWORD PTR [eax]
  000fc	8d 55 f0	 lea	 edx, DWORD PTR _arCode$[ebp]
  000ff	52		 push	 edx
  00100	50		 push	 eax
  00101	ff 51 4c	 call	 DWORD PTR [ecx+76]

; 315  : 	for(nIndex=0; nIndex<arCode->GetSize(); nIndex++)

  00104	8b 45 f0	 mov	 eax, DWORD PTR _arCode$[ebp]
  00107	33 db		 xor	 ebx, ebx
  00109	39 58 08	 cmp	 DWORD PTR [eax+8], ebx
  0010c	0f 8e c8 00 00
	00		 jle	 $LN3@OnChkKospi
$LL4@OnChkKospi:

; 316  : 	{
; 317  : 		MASTERCODE* pData = new MASTERCODE;

  00112	6a 0c		 push	 12			; 0000000cH
  00114	e8 00 00 00 00	 call	 ??2@YAPAXI@Z		; operator new
  00119	8b f8		 mov	 edi, eax
  0011b	83 c4 04	 add	 esp, 4
  0011e	85 ff		 test	 edi, edi
  00120	74 1c		 je	 SHORT $LN12@OnChkKospi
  00122	8b cf		 mov	 ecx, edi
  00124	ff 15 00 00 00
	00		 call	 DWORD PTR __imp_??0?$CStringT@DV?$StrTraitMFC_DLL@DV?$ChTraitsCRT@D@ATL@@@@@ATL@@QAE@XZ
  0012a	8d 4f 04	 lea	 ecx, DWORD PTR [edi+4]
  0012d	ff 15 00 00 00
	00		 call	 DWORD PTR __imp_??0?$CStringT@DV?$StrTraitMFC_DLL@DV?$ChTraitsCRT@D@ATL@@@@@ATL@@QAE@XZ
  00133	8d 4f 08	 lea	 ecx, DWORD PTR [edi+8]
  00136	ff 15 00 00 00
	00		 call	 DWORD PTR __imp_??0?$CStringT@DV?$StrTraitMFC_DLL@DV?$ChTraitsCRT@D@ATL@@@@@ATL@@QAE@XZ
  0013c	eb 02		 jmp	 SHORT $LN13@OnChkKospi
$LN12@OnChkKospi:
  0013e	33 ff		 xor	 edi, edi
$LN13@OnChkKospi:
; File C:\Program Files (x86)\Microsoft Visual Studio\2019\Community\VC\Tools\MSVC\14.29.30133\atlmfc\include\afxcoll.inl

; 289  : 		if( nIndex < 0 || nIndex >= m_nSize )

  00140	85 db		 test	 ebx, ebx
  00142	0f 88 e7 00 00
	00		 js	 $LN36@OnChkKospi
  00148	8b 45 f0	 mov	 eax, DWORD PTR _arCode$[ebp]
  0014b	3b 58 08	 cmp	 ebx, DWORD PTR [eax+8]
  0014e	0f 8d db 00 00
	00		 jge	 $LN36@OnChkKospi

; 291  : 		return m_pData[nIndex]; }

  00154	8b 40 04	 mov	 eax, DWORD PTR [eax+4]
  00157	8d 0c 9d 00 00
	00 00		 lea	 ecx, DWORD PTR [ebx*4]
  0015e	03 c1		 add	 eax, ecx
; File D:\git\src\IBK\IBK_DRFN\ProjSrc\SrcDrfn\Chart\comparechart\TabUpJongDlg.cpp

; 318  : 		pData->strCode = arCode->GetAt(nIndex);

  00160	8b cf		 mov	 ecx, edi
  00162	50		 push	 eax
  00163	ff 15 00 00 00
	00		 call	 DWORD PTR __imp_??4?$CStringT@DV?$StrTraitMFC_DLL@DV?$ChTraitsCRT@D@ATL@@@@@ATL@@QAEAAV01@ABV01@@Z
; File C:\Program Files (x86)\Microsoft Visual Studio\2019\Community\VC\Tools\MSVC\14.29.30133\atlmfc\include\afxcoll.inl

; 289  : 		if( nIndex < 0 || nIndex >= m_nSize )

  00169	8b 45 ec	 mov	 eax, DWORD PTR _arName$[ebp]
  0016c	3b 58 08	 cmp	 ebx, DWORD PTR [eax+8]
  0016f	0f 8d ba 00 00
	00		 jge	 $LN36@OnChkKospi

; 291  : 		return m_pData[nIndex]; }

  00175	8b 40 04	 mov	 eax, DWORD PTR [eax+4]
  00178	8d 0c 9d 00 00
	00 00		 lea	 ecx, DWORD PTR [ebx*4]
  0017f	03 c1		 add	 eax, ecx
; File D:\git\src\IBK\IBK_DRFN\ProjSrc\SrcDrfn\Chart\comparechart\TabUpJongDlg.cpp

; 319  : 		pData->strKor = arName->GetAt(nIndex);

  00181	8d 4f 04	 lea	 ecx, DWORD PTR [edi+4]
  00184	50		 push	 eax
  00185	ff 15 00 00 00
	00		 call	 DWORD PTR __imp_??4?$CStringT@DV?$StrTraitMFC_DLL@DV?$ChTraitsCRT@D@ATL@@@@@ATL@@QAEAAV01@ABV01@@Z

; 320  : 		pData->strKor.TrimRight();

  0018b	8d 4f 04	 lea	 ecx, DWORD PTR [edi+4]
  0018e	ff 15 00 00 00
	00		 call	 DWORD PTR __imp_?TrimRight@?$CStringT@DV?$StrTraitMFC_DLL@DV?$ChTraitsCRT@D@ATL@@@@@ATL@@QAEAAV12@XZ

; 321  : 		pData->strEng = _T("");	

  00194	68 00 00 00 00	 push	 OFFSET ??_C@_00CNPNBAHC@@
  00199	8d 4f 08	 lea	 ecx, DWORD PTR [edi+8]
  0019c	ff 15 00 00 00
	00		 call	 DWORD PTR __imp_??4?$CStringT@DV?$StrTraitMFC_DLL@DV?$ChTraitsCRT@D@ATL@@@@@ATL@@QAEAAV01@PBD@Z

; 322  : 		m_listUpJongCode.m_AllArray.Add(pData);

  001a2	8b 75 e8	 mov	 esi, DWORD PTR _this$1$[ebp]
; File C:\Program Files (x86)\Microsoft Visual Studio\2019\Community\VC\Tools\MSVC\14.29.30133\atlmfc\include\afxtempl.h

; 333  : 	{ INT_PTR nIndex = m_nSize;

  001a5	8b 86 f0 01 00
	00		 mov	 eax, DWORD PTR [esi+496]
  001ab	89 45 e0	 mov	 DWORD PTR _nIndex$1$[ebp], eax

; 538  : 	if(nIndex < 0)

  001ae	85 c0		 test	 eax, eax
  001b0	78 7d		 js	 SHORT $LN36@OnChkKospi

; 539  : 		AfxThrowInvalidArgException();
; 540  : 
; 541  : 	if (nIndex >= m_nSize)
; 542  : 		SetSize(nIndex+1, -1);

  001b2	6a ff		 push	 -1
  001b4	40		 inc	 eax
  001b5	8d 8e e8 01 00
	00		 lea	 ecx, DWORD PTR [esi+488]
  001bb	50		 push	 eax
  001bc	e8 00 00 00 00	 call	 ?SetSize@?$CArray@PAU__MASTERCODE@@PAU1@@@QAEXHH@Z ; CArray<__MASTERCODE *,__MASTERCODE *>::SetSize

; 543  : 	m_pData[nIndex] = newElement;

  001c1	8b 86 ec 01 00
	00		 mov	 eax, DWORD PTR [esi+492]
; File D:\git\src\IBK\IBK_DRFN\ProjSrc\SrcDrfn\Chart\comparechart\TabUpJongDlg.cpp

; 315  : 	for(nIndex=0; nIndex<arCode->GetSize(); nIndex++)

  001c7	43		 inc	 ebx
; File C:\Program Files (x86)\Microsoft Visual Studio\2019\Community\VC\Tools\MSVC\14.29.30133\atlmfc\include\afxtempl.h

; 543  : 	m_pData[nIndex] = newElement;

  001c8	8b 4d e0	 mov	 ecx, DWORD PTR _nIndex$1$[ebp]
  001cb	89 3c 88	 mov	 DWORD PTR [eax+ecx*4], edi
; File D:\git\src\IBK\IBK_DRFN\ProjSrc\SrcDrfn\Chart\comparechart\TabUpJongDlg.cpp

; 315  : 	for(nIndex=0; nIndex<arCode->GetSize(); nIndex++)

  001ce	8b 45 f0	 mov	 eax, DWORD PTR _arCode$[ebp]
  001d1	3b 58 08	 cmp	 ebx, DWORD PTR [eax+8]
  001d4	0f 8c 38 ff ff
	ff		 jl	 $LL4@OnChkKospi
$LN3@OnChkKospi:
; File C:\Program Files (x86)\Microsoft Visual Studio\2019\Community\VC\Tools\MSVC\14.29.30133\atlmfc\include\afxcmn.inl

; 239  : 	{ ASSERT(::IsWindow(m_hWnd)); ::SendMessage(m_hWnd, LVM_SETITEMCOUNT, nItems, 0); }

  001da	6a 00		 push	 0
  001dc	ff 70 08	 push	 DWORD PTR [eax+8]
  001df	8b 45 e8	 mov	 eax, DWORD PTR _this$1$[ebp]
  001e2	68 2f 10 00 00	 push	 4143			; 0000102fH
  001e7	ff b0 00 01 00
	00		 push	 DWORD PTR [eax+256]
  001ed	ff 15 00 00 00
	00		 call	 DWORD PTR __imp__SendMessageA@16
; File D:\git\src\IBK\IBK_DRFN\ProjSrc\SrcDrfn\Chart\comparechart\TabUpJongDlg.cpp

; 339  : 	delete arCode;

  001f3	8b 4d f0	 mov	 ecx, DWORD PTR _arCode$[ebp]
  001f6	85 c9		 test	 ecx, ecx
  001f8	74 07		 je	 SHORT $LN14@OnChkKospi
  001fa	8b 01		 mov	 eax, DWORD PTR [ecx]
  001fc	6a 01		 push	 1
  001fe	ff 50 04	 call	 DWORD PTR [eax+4]
$LN14@OnChkKospi:

; 340  : 	delete arName;

  00201	8b 4d ec	 mov	 ecx, DWORD PTR _arName$[ebp]
  00204	85 c9		 test	 ecx, ecx
  00206	74 07		 je	 SHORT $LN16@OnChkKospi
  00208	8b 01		 mov	 eax, DWORD PTR [ecx]
  0020a	6a 01		 push	 1
  0020c	ff 50 04	 call	 DWORD PTR [eax+4]
$LN16@OnChkKospi:

; 341  : 	delete arEngName;

  0020f	8b 4d e4	 mov	 ecx, DWORD PTR _arEngName$[ebp]
  00212	85 c9		 test	 ecx, ecx
  00214	74 07		 je	 SHORT $LN18@OnChkKospi
  00216	8b 01		 mov	 eax, DWORD PTR [ecx]
  00218	6a 01		 push	 1
  0021a	ff 50 04	 call	 DWORD PTR [eax+4]
$LN18@OnChkKospi:

; 342  : }

  0021d	8b 4d f4	 mov	 ecx, DWORD PTR __$EHRec$[ebp]
  00220	64 89 0d 00 00
	00 00		 mov	 DWORD PTR fs:0, ecx
  00227	59		 pop	 ecx
  00228	5f		 pop	 edi
  00229	5e		 pop	 esi
  0022a	5b		 pop	 ebx
  0022b	8b e5		 mov	 esp, ebp
  0022d	5d		 pop	 ebp
  0022e	c3		 ret	 0
$LN36@OnChkKospi:
; File C:\Program Files (x86)\Microsoft Visual Studio\2019\Community\VC\Tools\MSVC\14.29.30133\atlmfc\include\afxcoll.inl

; 290  : 			AfxThrowInvalidArgException();

  0022f	e8 00 00 00 00	 call	 ?AfxThrowInvalidArgException@@YGXXZ ; AfxThrowInvalidArgException
$LN60@OnChkKospi:
  00234	cc		 int	 3
_TEXT	ENDS
;	COMDAT text$x
text$x	SEGMENT
__unwindfunclet$?OnChkKospi@CTabUpJongDlg@@IAEXXZ$0:
  00000	8b 45 e0	 mov	 eax, DWORD PTR $T4[ebp]
  00003	50		 push	 eax
  00004	e8 00 00 00 00	 call	 ??3CObject@@SGXPAX@Z	; CObject::operator delete
  00009	c3		 ret	 0
__unwindfunclet$?OnChkKospi@CTabUpJongDlg@@IAEXXZ$1:
  0000a	8b 45 e0	 mov	 eax, DWORD PTR $T3[ebp]
  0000d	50		 push	 eax
  0000e	e8 00 00 00 00	 call	 ??3CObject@@SGXPAX@Z	; CObject::operator delete
  00013	c3		 ret	 0
__unwindfunclet$?OnChkKospi@CTabUpJongDlg@@IAEXXZ$2:
  00014	8b 45 e0	 mov	 eax, DWORD PTR $T2[ebp]
  00017	50		 push	 eax
  00018	e8 00 00 00 00	 call	 ??3CObject@@SGXPAX@Z	; CObject::operator delete
  0001d	c3		 ret	 0
  0001e	cc		 int	 3
  0001f	cc		 int	 3
  00020	cc		 int	 3
  00021	cc		 int	 3
  00022	cc		 int	 3
__ehhandler$?OnChkKospi@CTabUpJongDlg@@IAEXXZ:
  00023	90		 npad	 1
  00024	90		 npad	 1
  00025	8b 54 24 08	 mov	 edx, DWORD PTR [esp+8]
  00029	8d 42 0c	 lea	 eax, DWORD PTR [edx+12]
  0002c	8b 4a dc	 mov	 ecx, DWORD PTR [edx-36]
  0002f	33 c8		 xor	 ecx, eax
  00031	e8 00 00 00 00	 call	 @__security_check_cookie@4
  00036	b8 00 00 00 00	 mov	 eax, OFFSET __ehfuncinfo$?OnChkKospi@CTabUpJongDlg@@IAEXXZ
  0003b	e9 00 00 00 00	 jmp	 ___CxxFrameHandler3
text$x	ENDS
?OnChkKospi@CTabUpJongDlg@@IAEXXZ ENDP			; CTabUpJongDlg::OnChkKospi
; Function compile flags: /Ogtp
; File D:\git\src\IBK\IBK_DRFN\ProjSrc\SrcDrfn\Chart\comparechart\TabUpJongDlg.cpp
;	COMDAT ?OnInitDialog@CTabUpJongDlg@@MAEHXZ
_TEXT	SEGMENT
_pGateMng$ = -36					; size = 4
_szClipFormat$2 = -32					; size = 4
_aBufWnd$3 = -28					; size = 9
__$ArrayPad$ = -16					; size = 4
__$EHRec$ = -12						; size = 12
?OnInitDialog@CTabUpJongDlg@@MAEHXZ PROC		; CTabUpJongDlg::OnInitDialog, COMDAT
; _this$ = ecx

; 57   : {

  00000	55		 push	 ebp
  00001	8b ec		 mov	 ebp, esp
  00003	6a ff		 push	 -1
  00005	68 00 00 00 00	 push	 __ehhandler$?OnInitDialog@CTabUpJongDlg@@MAEHXZ
  0000a	64 a1 00 00 00
	00		 mov	 eax, DWORD PTR fs:0
  00010	50		 push	 eax
  00011	83 ec 1c	 sub	 esp, 28			; 0000001cH
  00014	a1 00 00 00 00	 mov	 eax, DWORD PTR ___security_cookie
  00019	33 c5		 xor	 eax, ebp
  0001b	89 45 f0	 mov	 DWORD PTR __$ArrayPad$[ebp], eax
  0001e	56		 push	 esi
  0001f	57		 push	 edi
  00020	50		 push	 eax
  00021	8d 45 f4	 lea	 eax, DWORD PTR __$EHRec$[ebp]
  00024	64 a3 00 00 00
	00		 mov	 DWORD PTR fs:0, eax
  0002a	8b f9		 mov	 edi, ecx

; 58   : 	CTabDlg::OnInitDialog();

  0002c	e8 00 00 00 00	 call	 ?OnInitDialog@CTabDlg@@MAEHXZ ; CTabDlg::OnInitDialog
  00031	0f 57 c0	 xorps	 xmm0, xmm0

; 59   : 	
; 60   : 	int nID = 5;
; 61   : 	IGateManager* pGateMng;	AfxGetIGateManager(pGateMng);

  00034	c7 45 dc 00 00
	00 00		 mov	 DWORD PTR _pGateMng$[ebp], 0
  0003b	8d 4d e0	 lea	 ecx, DWORD PTR _szClipFormat$2[ebp]
  0003e	66 0f d6 45 e4	 movq	 QWORD PTR _aBufWnd$3[ebp], xmm0
  00043	c6 45 ec 00	 mov	 BYTE PTR _aBufWnd$3[ebp+8], 0
  00047	ff 15 00 00 00
	00		 call	 DWORD PTR __imp_??0?$CStringT@DV?$StrTraitMFC_DLL@DV?$ChTraitsCRT@D@ATL@@@@@ATL@@QAE@XZ
  0004d	68 00 00 00 00	 push	 OFFSET ??_C@_0M@CBBNGGHM@PcTrMng?4dll@
  00052	c7 45 fc 00 00
	00 00		 mov	 DWORD PTR __$EHRec$[ebp+8], 0
  00059	ff 15 00 00 00
	00		 call	 DWORD PTR __imp__GetModuleHandleA@4
  0005f	50		 push	 eax
  00060	68 00 00 00 00	 push	 OFFSET ??_C@_0BD@CMCCCNBF@HANAROIGATEMANAGER@
  00065	8d 45 e0	 lea	 eax, DWORD PTR _szClipFormat$2[ebp]
  00068	68 00 00 00 00	 push	 OFFSET ??_C@_06NDLAHCHE@?$CFs?$CF08X@
  0006d	50		 push	 eax
  0006e	ff 15 00 00 00
	00		 call	 DWORD PTR __imp_?Format@?$CStringT@DV?$StrTraitMFC_DLL@DV?$ChTraitsCRT@D@ATL@@@@@ATL@@QAAXPBDZZ
  00074	83 c4 10	 add	 esp, 16			; 00000010H
  00077	8d 45 e4	 lea	 eax, DWORD PTR _aBufWnd$3[ebp]
  0007a	6a 09		 push	 9
  0007c	50		 push	 eax
  0007d	ff 75 e0	 push	 DWORD PTR _szClipFormat$2[ebp]
  00080	ff 15 00 00 00
	00		 call	 DWORD PTR __imp__GetEnvironmentVariableA@12
  00086	8d 45 dc	 lea	 eax, DWORD PTR _pGateMng$[ebp]
  00089	50		 push	 eax
  0008a	8d 45 e4	 lea	 eax, DWORD PTR _aBufWnd$3[ebp]
  0008d	68 00 00 00 00	 push	 OFFSET ??_C@_02EMFKHFLK@?$CFX@
  00092	50		 push	 eax
  00093	e8 00 00 00 00	 call	 _sscanf
  00098	83 c4 0c	 add	 esp, 12			; 0000000cH
  0009b	c7 45 fc ff ff
	ff ff		 mov	 DWORD PTR __$EHRec$[ebp+8], -1
  000a2	8d 4d e0	 lea	 ecx, DWORD PTR _szClipFormat$2[ebp]
  000a5	ff 15 00 00 00
	00		 call	 DWORD PTR __imp_??1?$CStringT@DV?$StrTraitMFC_DLL@DV?$ChTraitsCRT@D@ATL@@@@@ATL@@QAE@XZ

; 62   : 	m_pDataManager = (IMasterDataManagerLast*)pGateMng->GetInterface(nID);

  000ab	8b 45 dc	 mov	 eax, DWORD PTR _pGateMng$[ebp]
  000ae	6a 00		 push	 0
  000b0	6a 05		 push	 5
  000b2	50		 push	 eax
  000b3	8b 08		 mov	 ecx, DWORD PTR [eax]
  000b5	ff 11		 call	 DWORD PTR [ecx]

; 63   : 	// TODO: Add extra initialization here
; 64   : 
; 65   : 	//m_listUpJongCode.SetDBMgr(m_pDBMgr);
; 66   : 	m_listUpJongCode.SetListDataType(UPJONG);
; 67   : 	m_listUpJongCode.Init_ListCtrl();	

  000b7	8d 8f e0 00 00
	00		 lea	 ecx, DWORD PTR [edi+224]
  000bd	89 87 dc 00 00
	00		 mov	 DWORD PTR [edi+220], eax
  000c3	c7 87 60 01 00
	00 01 00 00 00	 mov	 DWORD PTR [edi+352], 1
  000cd	e8 00 00 00 00	 call	 ?Init_ListCtrl@CVirtualListCtrl@@QAEXXZ ; CVirtualListCtrl::Init_ListCtrl

; 68   : 	//m_listUpJongCode.LoadCodeList(m_nOption);
; 69   : 
; 70   : 	m_BtnKospi.FP_vSetImage( m_pIL_W46H20, 32, 34, TRUE, "코스피", TRUE);

  000d2	6a ff		 push	 -1
  000d4	6a ff		 push	 -1
  000d6	6a 01		 push	 1
  000d8	51		 push	 ecx
  000d9	8b cc		 mov	 ecx, esp
  000db	68 00 00 00 00	 push	 OFFSET ??_C@_06GDKHAHEH@?D?Z?$LN?$LK?G?G@
  000e0	ff 15 00 00 00
	00		 call	 DWORD PTR __imp_??0?$CStringT@DV?$StrTraitMFC_DLL@DV?$ChTraitsCRT@D@ATL@@@@@ATL@@QAE@PBD@Z
  000e6	6a 01		 push	 1
  000e8	6a 22		 push	 34			; 00000022H
  000ea	6a 20		 push	 32			; 00000020H
  000ec	ff b7 b8 00 00
	00		 push	 DWORD PTR [edi+184]
  000f2	8d 8f 08 02 00
	00		 lea	 ecx, DWORD PTR [edi+520]
  000f8	e8 00 00 00 00	 call	 ?FP_vSetImage@CILButton@@QAEXPAVCImageList@@HHHV?$CStringT@DV?$StrTraitMFC_DLL@DV?$ChTraitsCRT@D@ATL@@@@@ATL@@HHH@Z ; CILButton::FP_vSetImage

; 71   : 	m_BtnK200.FP_vSetImage( m_pIL_W46H20, 32, 34, TRUE, "KRX", TRUE);

  000fd	6a ff		 push	 -1
  000ff	6a ff		 push	 -1
  00101	6a 01		 push	 1
  00103	51		 push	 ecx
  00104	8b cc		 mov	 ecx, esp
  00106	68 00 00 00 00	 push	 OFFSET ??_C@_03IPPENCFN@KRX@
  0010b	ff 15 00 00 00
	00		 call	 DWORD PTR __imp_??0?$CStringT@DV?$StrTraitMFC_DLL@DV?$ChTraitsCRT@D@ATL@@@@@ATL@@QAE@PBD@Z
  00111	6a 01		 push	 1
  00113	6a 22		 push	 34			; 00000022H
  00115	6a 20		 push	 32			; 00000020H
  00117	ff b7 b8 00 00
	00		 push	 DWORD PTR [edi+184]
  0011d	8d 8f 68 03 00
	00		 lea	 ecx, DWORD PTR [edi+872]
  00123	e8 00 00 00 00	 call	 ?FP_vSetImage@CILButton@@QAEXPAVCImageList@@HHHV?$CStringT@DV?$StrTraitMFC_DLL@DV?$ChTraitsCRT@D@ATL@@@@@ATL@@HHH@Z ; CILButton::FP_vSetImage

; 72   : 	m_BtnKosdaq.FP_vSetImage( m_pIL_W46H20, 32, 34, TRUE, "코스닥", TRUE);

  00128	6a ff		 push	 -1
  0012a	6a ff		 push	 -1
  0012c	6a 01		 push	 1
  0012e	51		 push	 ecx
  0012f	8b cc		 mov	 ecx, esp
  00131	68 00 00 00 00	 push	 OFFSET ??_C@_06MKHMLNFC@?D?Z?$LN?$LK?$LE?Z@
  00136	ff 15 00 00 00
	00		 call	 DWORD PTR __imp_??0?$CStringT@DV?$StrTraitMFC_DLL@DV?$ChTraitsCRT@D@ATL@@@@@ATL@@QAE@PBD@Z
  0013c	6a 01		 push	 1
  0013e	6a 22		 push	 34			; 00000022H
  00140	6a 20		 push	 32			; 00000020H
  00142	ff b7 b8 00 00
	00		 push	 DWORD PTR [edi+184]
  00148	8d 8f c8 04 00
	00		 lea	 ecx, DWORD PTR [edi+1224]
  0014e	e8 00 00 00 00	 call	 ?FP_vSetImage@CILButton@@QAEXPAVCImageList@@HHHV?$CStringT@DV?$StrTraitMFC_DLL@DV?$ChTraitsCRT@D@ATL@@@@@ATL@@HHH@Z ; CILButton::FP_vSetImage

; 73   : //	m_BtnKonex.FP_vSetImage( m_pIL_W46H20, 32, 34, TRUE, "코넥스", TRUE);
; 74   : 
; 75   : 
; 76   : 	m_BtnKospi.SetCheck(TRUE);

  00153	6a 01		 push	 1
  00155	8d 8f 08 02 00
	00		 lea	 ecx, DWORD PTR [edi+520]
  0015b	e8 00 00 00 00	 call	 ?SetCheck@CILButton@@QAEXH@Z ; CILButton::SetCheck

; 77   : 	OnChkKospi();

  00160	8b cf		 mov	 ecx, edi
  00162	e8 00 00 00 00	 call	 ?OnChkKospi@CTabUpJongDlg@@IAEXXZ ; CTabUpJongDlg::OnChkKospi

; 78   : 	return TRUE;  // return TRUE unless you set the focus to a control

  00167	b8 01 00 00 00	 mov	 eax, 1

; 79   : 	              // EXCEPTION: OCX Property Pages should return FALSE
; 80   : }

  0016c	8b 4d f4	 mov	 ecx, DWORD PTR __$EHRec$[ebp]
  0016f	64 89 0d 00 00
	00 00		 mov	 DWORD PTR fs:0, ecx
  00176	59		 pop	 ecx
  00177	5f		 pop	 edi
  00178	5e		 pop	 esi
  00179	8b 4d f0	 mov	 ecx, DWORD PTR __$ArrayPad$[ebp]
  0017c	33 cd		 xor	 ecx, ebp
  0017e	e8 00 00 00 00	 call	 @__security_check_cookie@4
  00183	8b e5		 mov	 esp, ebp
  00185	5d		 pop	 ebp
  00186	c3		 ret	 0
_TEXT	ENDS
;	COMDAT text$x
text$x	SEGMENT
__unwindfunclet$?OnInitDialog@CTabUpJongDlg@@MAEHXZ$0:
  00000	8d 4d e0	 lea	 ecx, DWORD PTR _szClipFormat$2[ebp]
  00003	ff 25 00 00 00
	00		 jmp	 DWORD PTR __imp_??1?$CStringT@DV?$StrTraitMFC_DLL@DV?$ChTraitsCRT@D@ATL@@@@@ATL@@QAE@XZ
  00009	cc		 int	 3
  0000a	cc		 int	 3
  0000b	cc		 int	 3
  0000c	cc		 int	 3
  0000d	cc		 int	 3
__ehhandler$?OnInitDialog@CTabUpJongDlg@@MAEHXZ:
  0000e	90		 npad	 1
  0000f	90		 npad	 1
  00010	8b 54 24 08	 mov	 edx, DWORD PTR [esp+8]
  00014	8d 42 0c	 lea	 eax, DWORD PTR [edx+12]
  00017	8b 4a d8	 mov	 ecx, DWORD PTR [edx-40]
  0001a	33 c8		 xor	 ecx, eax
  0001c	e8 00 00 00 00	 call	 @__security_check_cookie@4
  00021	8b 4a fc	 mov	 ecx, DWORD PTR [edx-4]
  00024	33 c8		 xor	 ecx, eax
  00026	e8 00 00 00 00	 call	 @__security_check_cookie@4
  0002b	b8 00 00 00 00	 mov	 eax, OFFSET __ehfuncinfo$?OnInitDialog@CTabUpJongDlg@@MAEHXZ
  00030	e9 00 00 00 00	 jmp	 ___CxxFrameHandler3
text$x	ENDS
?OnInitDialog@CTabUpJongDlg@@MAEHXZ ENDP		; CTabUpJongDlg::OnInitDialog
; Function compile flags: /Ogtp
; File D:\git\src\IBK\IBK_DRFN\ProjSrc\SrcDrfn\Chart\comparechart\TabUpJongDlg.cpp
; File C:\Program Files (x86)\Microsoft Visual Studio\2019\Community\VC\Tools\MSVC\14.29.30133\atlmfc\include\afxtempl.h
; File D:\git\src\IBK\IBK_DRFN\ProjSrc\SrcDrfn\Chart\comparechart\TabUpJongDlg.cpp
; File C:\Program Files (x86)\Microsoft Visual Studio\2019\Community\VC\Tools\MSVC\14.29.30133\atlmfc\include\afxtempl.h
; File D:\git\src\IBK\IBK_DRFN\ProjSrc\SrcDrfn\Chart\comparechart\TabUpJongDlg.cpp
; File C:\Program Files (x86)\Microsoft Visual Studio\2019\Community\VC\Tools\MSVC\14.29.30133\atlmfc\include\afxtempl.h
; File D:\git\src\IBK\IBK_DRFN\ProjSrc\SrcDrfn\Chart\comparechart\TabUpJongDlg.cpp
;	COMDAT ?fnRemovelistStockCode@CTabUpJongDlg@@IAEXXZ
_TEXT	SEGMENT
?fnRemovelistStockCode@CTabUpJongDlg@@IAEXXZ PROC	; CTabUpJongDlg::fnRemovelistStockCode, COMDAT
; _this$ = ecx

; 364  : {

  00000	53		 push	 ebx
  00001	8b d9		 mov	 ebx, ecx
  00003	56		 push	 esi

; 365  : 	for( int i = 0; i < m_listUpJongCode.m_AllArray.GetSize(); i++)

  00004	33 f6		 xor	 esi, esi
  00006	8b 83 f0 01 00
	00		 mov	 eax, DWORD PTR [ebx+496]
  0000c	85 c0		 test	 eax, eax
  0000e	7e 47		 jle	 SHORT $LN3@fnRemoveli
  00010	57		 push	 edi
$LL4@fnRemoveli:
; File C:\Program Files (x86)\Microsoft Visual Studio\2019\Community\VC\Tools\MSVC\14.29.30133\atlmfc\include\afxtempl.h

; 288  : 	if(nIndex >= 0 && nIndex < m_nSize)

  00011	85 f6		 test	 esi, esi
  00013	78 76		 js	 SHORT $LN9@fnRemoveli
  00015	3b f0		 cmp	 esi, eax
  00017	7d 72		 jge	 SHORT $LN9@fnRemoveli
; File D:\git\src\IBK\IBK_DRFN\ProjSrc\SrcDrfn\Chart\comparechart\TabUpJongDlg.cpp

; 366  : 		delete m_listUpJongCode.m_AllArray.GetAt(i);

  00019	8b 83 ec 01 00
	00		 mov	 eax, DWORD PTR [ebx+492]
  0001f	8b 3c b0	 mov	 edi, DWORD PTR [eax+esi*4]
  00022	85 ff		 test	 edi, edi
  00024	74 25		 je	 SHORT $LN2@fnRemoveli
  00026	8d 4f 08	 lea	 ecx, DWORD PTR [edi+8]
  00029	ff 15 00 00 00
	00		 call	 DWORD PTR __imp_??1?$CStringT@DV?$StrTraitMFC_DLL@DV?$ChTraitsCRT@D@ATL@@@@@ATL@@QAE@XZ
  0002f	8d 4f 04	 lea	 ecx, DWORD PTR [edi+4]
  00032	ff 15 00 00 00
	00		 call	 DWORD PTR __imp_??1?$CStringT@DV?$StrTraitMFC_DLL@DV?$ChTraitsCRT@D@ATL@@@@@ATL@@QAE@XZ
  00038	8b cf		 mov	 ecx, edi
  0003a	ff 15 00 00 00
	00		 call	 DWORD PTR __imp_??1?$CStringT@DV?$StrTraitMFC_DLL@DV?$ChTraitsCRT@D@ATL@@@@@ATL@@QAE@XZ
  00040	6a 0c		 push	 12			; 0000000cH
  00042	57		 push	 edi
  00043	e8 00 00 00 00	 call	 ??3@YAXPAXI@Z		; operator delete
  00048	83 c4 08	 add	 esp, 8
$LN2@fnRemoveli:

; 365  : 	for( int i = 0; i < m_listUpJongCode.m_AllArray.GetSize(); i++)

  0004b	8b 83 f0 01 00
	00		 mov	 eax, DWORD PTR [ebx+496]
  00051	46		 inc	 esi
  00052	3b f0		 cmp	 esi, eax
  00054	7c bb		 jl	 SHORT $LL4@fnRemoveli
  00056	5f		 pop	 edi
$LN3@fnRemoveli:
; File C:\Program Files (x86)\Microsoft Visual Studio\2019\Community\VC\Tools\MSVC\14.29.30133\atlmfc\include\afxtempl.h

; 381  : 		if (m_pData != NULL)

  00057	8b 83 ec 01 00
	00		 mov	 eax, DWORD PTR [ebx+492]
  0005d	85 c0		 test	 eax, eax
  0005f	74 13		 je	 SHORT $LN40@fnRemoveli

; 382  : 		{
; 383  : 			for( int i = 0; i < m_nSize; i++ )
; 384  : 				(m_pData + i)->~TYPE();
; 385  : 			delete[] (BYTE*)m_pData;

  00061	50		 push	 eax
  00062	e8 00 00 00 00	 call	 ??_V@YAXPAX@Z		; operator delete[]
  00067	83 c4 04	 add	 esp, 4

; 386  : 			m_pData = NULL;

  0006a	c7 83 ec 01 00
	00 00 00 00 00	 mov	 DWORD PTR [ebx+492], 0
$LN40@fnRemoveli:

; 387  : 		}
; 388  : 		m_nSize = m_nMaxSize = 0;

  00074	5e		 pop	 esi
  00075	c7 83 f4 01 00
	00 00 00 00 00	 mov	 DWORD PTR [ebx+500], 0
  0007f	c7 83 f0 01 00
	00 00 00 00 00	 mov	 DWORD PTR [ebx+496], 0
  00089	5b		 pop	 ebx
; File D:\git\src\IBK\IBK_DRFN\ProjSrc\SrcDrfn\Chart\comparechart\TabUpJongDlg.cpp

; 368  : }

  0008a	c3		 ret	 0
$LN9@fnRemoveli:
; File C:\Program Files (x86)\Microsoft Visual Studio\2019\Community\VC\Tools\MSVC\14.29.30133\atlmfc\include\afxtempl.h

; 290  : 	AfxThrowInvalidArgException();

  0008b	e8 00 00 00 00	 call	 ?AfxThrowInvalidArgException@@YGXXZ ; AfxThrowInvalidArgException
$LN88@fnRemoveli:
  00090	cc		 int	 3
?fnRemovelistStockCode@CTabUpJongDlg@@IAEXXZ ENDP	; CTabUpJongDlg::fnRemovelistStockCode
_TEXT	ENDS
; Function compile flags: /Ogtp
; File D:\git\src\IBK\IBK_DRFN\ProjSrc\SrcDrfn\Chart\comparechart\TabUpJongDlg.cpp
; File C:\Program Files (x86)\Microsoft Visual Studio\2019\Community\VC\Tools\MSVC\14.29.30133\atlmfc\include\afxwin2.inl
; File D:\git\src\IBK\IBK_DRFN\ProjSrc\SrcDrfn\Chart\comparechart\TabUpJongDlg.cpp
;	COMDAT ?WindowProc@CTabUpJongDlg@@MAEJIIJ@Z
_TEXT	SEGMENT
_message$ = 8						; size = 4
_wParam$ = 12						; size = 4
_lParam$ = 16						; size = 4
?WindowProc@CTabUpJongDlg@@MAEJIIJ@Z PROC		; CTabUpJongDlg::WindowProc, COMDAT
; _this$ = ecx

; 90   : {

  00000	55		 push	 ebp
  00001	8b ec		 mov	 ebp, esp
  00003	53		 push	 ebx

; 91   : 	// TODO: Add your specialized code here and/or call the base class
; 92   : 	switch(message)

  00004	8b 5d 08	 mov	 ebx, DWORD PTR _message$[ebp]
  00007	57		 push	 edi
  00008	8b f9		 mov	 edi, ecx
  0000a	81 fb 58 04 00
	00		 cmp	 ebx, 1112		; 00000458H
  00010	75 49		 jne	 SHORT $LN2@WindowProc

; 93   : 	{
; 94   : 		case UMSG_ADDITEM_BTNCLICK:
; 95   : 			if(!m_listUpJongCode.m_strCodeNName.GetLength()) return 0l;

  00012	8b 87 6c 01 00
	00		 mov	 eax, DWORD PTR [edi+364]
  00018	83 78 f4 00	 cmp	 DWORD PTR [eax-12], 0
  0001c	75 08		 jne	 SHORT $LN5@WindowProc
  0001e	5f		 pop	 edi
  0001f	33 c0		 xor	 eax, eax

; 104  : }

  00021	5b		 pop	 ebx
  00022	5d		 pop	 ebp
  00023	c2 0c 00	 ret	 12			; 0000000cH
$LN5@WindowProc:
  00026	56		 push	 esi
; File C:\Program Files (x86)\Microsoft Visual Studio\2019\Community\VC\Tools\MSVC\14.29.30133\atlmfc\include\afxwin2.inl

; 213  : 	{ ASSERT(::IsWindow(m_hWnd)); return CWnd::FromHandle(::GetParent(m_hWnd)); }

  00027	ff 77 20	 push	 DWORD PTR [edi+32]
  0002a	8b 35 00 00 00
	00		 mov	 esi, DWORD PTR __imp__GetParent@4
  00030	ff d6		 call	 esi
  00032	50		 push	 eax
  00033	e8 00 00 00 00	 call	 ?FromHandle@CWnd@@SGPAV1@PAUHWND__@@@Z ; CWnd::FromHandle
  00038	ff 70 20	 push	 DWORD PTR [eax+32]
  0003b	ff d6		 call	 esi
  0003d	50		 push	 eax
  0003e	e8 00 00 00 00	 call	 ?FromHandle@CWnd@@SGPAV1@PAUHWND__@@@Z ; CWnd::FromHandle

; 32   : 	{ ASSERT(::IsWindow(m_hWnd)); return ::SendMessage(m_hWnd, message, wParam, lParam); }

  00043	8d 8f 6c 01 00
	00		 lea	 ecx, DWORD PTR [edi+364]
  00049	51		 push	 ecx
  0004a	6a 00		 push	 0
  0004c	68 5b 04 00 00	 push	 1115			; 0000045bH
  00051	ff 70 20	 push	 DWORD PTR [eax+32]
  00054	ff 15 00 00 00
	00		 call	 DWORD PTR __imp__SendMessageA@16
  0005a	5e		 pop	 esi
$LN2@WindowProc:
; File D:\git\src\IBK\IBK_DRFN\ProjSrc\SrcDrfn\Chart\comparechart\TabUpJongDlg.cpp

; 103  : 	return CTabDlg::WindowProc(message, wParam, lParam);

  0005b	ff 75 10	 push	 DWORD PTR _lParam$[ebp]
  0005e	8b cf		 mov	 ecx, edi
  00060	ff 75 0c	 push	 DWORD PTR _wParam$[ebp]
  00063	53		 push	 ebx
  00064	e8 00 00 00 00	 call	 ?WindowProc@CWnd@@MAEJIIJ@Z ; CWnd::WindowProc
  00069	5f		 pop	 edi

; 104  : }

  0006a	5b		 pop	 ebx
  0006b	5d		 pop	 ebp
  0006c	c2 0c 00	 ret	 12			; 0000000cH
?WindowProc@CTabUpJongDlg@@MAEJIIJ@Z ENDP		; CTabUpJongDlg::WindowProc
_TEXT	ENDS
; Function compile flags: /Ogtp
; File D:\git\src\IBK\IBK_DRFN\ProjSrc\SrcDrfn\Chart\comparechart\TabUpJongDlg.cpp
;	COMDAT ?DoDataExchange@CTabUpJongDlg@@MAEXPAVCDataExchange@@@Z
_TEXT	SEGMENT
_pDX$ = 8						; size = 4
?DoDataExchange@CTabUpJongDlg@@MAEXPAVCDataExchange@@@Z PROC ; CTabUpJongDlg::DoDataExchange, COMDAT
; _this$ = ecx

; 30   : {

  00000	55		 push	 ebp
  00001	8b ec		 mov	 ebp, esp
  00003	56		 push	 esi
  00004	57		 push	 edi

; 31   : 	CTabDlg::DoDataExchange(pDX);

  00005	8b 7d 08	 mov	 edi, DWORD PTR _pDX$[ebp]
  00008	8b f1		 mov	 esi, ecx
  0000a	57		 push	 edi
  0000b	e8 00 00 00 00	 call	 ?DoDataExchange@CTabDlg@@MAEXPAVCDataExchange@@@Z ; CTabDlg::DoDataExchange

; 32   : 	//{{AFX_DATA_MAP(CTabUpJongDlg)
; 33   : 	DDX_Control(pDX, IDC_LIST_UPJONG, m_listUpJongCode);

  00010	8d 86 e0 00 00
	00		 lea	 eax, DWORD PTR [esi+224]
  00016	50		 push	 eax
  00017	68 82 17 00 00	 push	 6018			; 00001782H
  0001c	57		 push	 edi
  0001d	e8 00 00 00 00	 call	 ?DDX_Control@@YGXPAVCDataExchange@@HAAVCWnd@@@Z ; DDX_Control

; 34   : 	DDX_Control(pDX, IDC_CHECK_KOSPI, m_BtnKospi);

  00022	8d 86 08 02 00
	00		 lea	 eax, DWORD PTR [esi+520]
  00028	50		 push	 eax
  00029	68 74 18 00 00	 push	 6260			; 00001874H
  0002e	57		 push	 edi
  0002f	e8 00 00 00 00	 call	 ?DDX_Control@@YGXPAVCDataExchange@@HAAVCWnd@@@Z ; DDX_Control

; 35   : 	DDX_Control(pDX, IDC_CHECK_K200, m_BtnK200);

  00034	8d 86 68 03 00
	00		 lea	 eax, DWORD PTR [esi+872]
  0003a	50		 push	 eax
  0003b	68 76 18 00 00	 push	 6262			; 00001876H
  00040	57		 push	 edi
  00041	e8 00 00 00 00	 call	 ?DDX_Control@@YGXPAVCDataExchange@@HAAVCWnd@@@Z ; DDX_Control

; 36   : 	DDX_Control(pDX, IDC_CHECK_KOSDAQ, m_BtnKosdaq);

  00046	8d 86 c8 04 00
	00		 lea	 eax, DWORD PTR [esi+1224]
  0004c	50		 push	 eax
  0004d	68 75 18 00 00	 push	 6261			; 00001875H
  00052	57		 push	 edi
  00053	e8 00 00 00 00	 call	 ?DDX_Control@@YGXPAVCDataExchange@@HAAVCWnd@@@Z ; DDX_Control
  00058	5f		 pop	 edi
  00059	5e		 pop	 esi

; 37   : //	DDX_Control(pDX, IDC_CHECK_KONEX, m_BtnKonex);
; 38   : 	//}}AFX_DATA_MAP
; 39   : }

  0005a	5d		 pop	 ebp
  0005b	c2 04 00	 ret	 4
?DoDataExchange@CTabUpJongDlg@@MAEXPAVCDataExchange@@@Z ENDP ; CTabUpJongDlg::DoDataExchange
_TEXT	ENDS
; Function compile flags: /Ogtp
; File D:\git\src\IBK\IBK_DRFN\ProjSrc\SrcDrfn\Chart\comparechart\TabUpJongDlg.cpp
; File C:\Program Files (x86)\Microsoft Visual Studio\2019\Community\VC\Tools\MSVC\14.29.30133\atlmfc\include\afxwin2.inl
; File D:\git\src\IBK\IBK_DRFN\ProjSrc\SrcDrfn\Chart\comparechart\TabUpJongDlg.cpp
;	COMDAT ?PreTranslateMessage@CTabUpJongDlg@@UAEHPAUtagMSG@@@Z
_TEXT	SEGMENT
_pMsg$ = 8						; size = 4
?PreTranslateMessage@CTabUpJongDlg@@UAEHPAUtagMSG@@@Z PROC ; CTabUpJongDlg::PreTranslateMessage, COMDAT
; _this$ = ecx

; 107  : {

  00000	55		 push	 ebp
  00001	8b ec		 mov	 ebp, esp
  00003	56		 push	 esi
  00004	8b f1		 mov	 esi, ecx

; 108  : 	// TODO: Add your specialized code here and/or call the base class
; 109  : //	if(pMsg->message == WM_KEYDOWN)
; 110  : //	{
; 111  : //		if(pMsg->wParam == VK_RETURN	|| 
; 112  : //		   pMsg->wParam == VK_ESCAPE	) 
; 113  : //		{
; 114  : //			return TRUE;
; 115  : //		}
; 116  : //	}
; 117  : //	
; 118  : //	return CTabDlg::PreTranslateMessage(pMsg);
; 119  : 
; 120  : 	if(::IsWindow(m_hWnd))

  00006	ff 76 20	 push	 DWORD PTR [esi+32]
  00009	ff 15 00 00 00
	00		 call	 DWORD PTR __imp__IsWindow@4
  0000f	85 c0		 test	 eax, eax
  00011	74 1b		 je	 SHORT $LN2@PreTransla
; File C:\Program Files (x86)\Microsoft Visual Studio\2019\Community\VC\Tools\MSVC\14.29.30133\atlmfc\include\afxwin2.inl

; 213  : 	{ ASSERT(::IsWindow(m_hWnd)); return CWnd::FromHandle(::GetParent(m_hWnd)); }

  00013	ff 76 20	 push	 DWORD PTR [esi+32]
  00016	ff 15 00 00 00
	00		 call	 DWORD PTR __imp__GetParent@4
  0001c	50		 push	 eax
  0001d	e8 00 00 00 00	 call	 ?FromHandle@CWnd@@SGPAV1@PAUHWND__@@@Z ; CWnd::FromHandle
  00022	5e		 pop	 esi
; File D:\git\src\IBK\IBK_DRFN\ProjSrc\SrcDrfn\Chart\comparechart\TabUpJongDlg.cpp

; 121  : 		return GetParent()->PreTranslateMessage(pMsg);

  00023	8b 10		 mov	 edx, DWORD PTR [eax]
  00025	8b c8		 mov	 ecx, eax

; 124  : }

  00027	5d		 pop	 ebp

; 121  : 		return GetParent()->PreTranslateMessage(pMsg);

  00028	ff a2 14 01 00
	00		 jmp	 DWORD PTR [edx+276]
$LN2@PreTransla:

; 122  : 	else
; 123  : 		return CTabDlg::PreTranslateMessage(pMsg);

  0002e	ff 75 08	 push	 DWORD PTR _pMsg$[ebp]
  00031	8b ce		 mov	 ecx, esi
  00033	e8 00 00 00 00	 call	 ?PreTranslateMessage@CTabDlg@@UAEHPAUtagMSG@@@Z ; CTabDlg::PreTranslateMessage
  00038	5e		 pop	 esi

; 124  : }

  00039	5d		 pop	 ebp
  0003a	c2 04 00	 ret	 4
?PreTranslateMessage@CTabUpJongDlg@@UAEHPAUtagMSG@@@Z ENDP ; CTabUpJongDlg::PreTranslateMessage
_TEXT	ENDS
; Function compile flags: /Ogtp
; File D:\git\src\IBK\IBK_DRFN\ProjSrc\SrcDrfn\Chart\comparechart\TabUpJongDlg.cpp
;	COMDAT ?SetKeyCodeChange@CTabUpJongDlg@@QAEXIJ@Z
_TEXT	SEGMENT
_strCode$ = -16						; size = 4
__$EHRec$ = -12						; size = 12
_wp$ = 8						; size = 4
_lp$ = 12						; size = 4
?SetKeyCodeChange@CTabUpJongDlg@@QAEXIJ@Z PROC		; CTabUpJongDlg::SetKeyCodeChange, COMDAT
; _this$ = ecx

; 176  : {

  00000	55		 push	 ebp
  00001	8b ec		 mov	 ebp, esp
  00003	6a ff		 push	 -1
  00005	68 00 00 00 00	 push	 __ehhandler$?SetKeyCodeChange@CTabUpJongDlg@@QAEXIJ@Z
  0000a	64 a1 00 00 00
	00		 mov	 eax, DWORD PTR fs:0
  00010	50		 push	 eax
  00011	51		 push	 ecx
  00012	56		 push	 esi
  00013	a1 00 00 00 00	 mov	 eax, DWORD PTR ___security_cookie
  00018	33 c5		 xor	 eax, ebp
  0001a	50		 push	 eax
  0001b	8d 45 f4	 lea	 eax, DWORD PTR __$EHRec$[ebp]
  0001e	64 a3 00 00 00
	00		 mov	 DWORD PTR fs:0, eax
  00024	8b f1		 mov	 esi, ecx

; 177  : 	CString strCode;

  00026	8d 4d f0	 lea	 ecx, DWORD PTR _strCode$[ebp]
  00029	ff 15 00 00 00
	00		 call	 DWORD PTR __imp_??0?$CStringT@DV?$StrTraitMFC_DLL@DV?$ChTraitsCRT@D@ATL@@@@@ATL@@QAE@XZ

; 178  : 	strCode = (LPSTR)lp;	

  0002f	ff 75 0c	 push	 DWORD PTR _lp$[ebp]
  00032	8d 4d f0	 lea	 ecx, DWORD PTR _strCode$[ebp]
  00035	c7 45 fc 00 00
	00 00		 mov	 DWORD PTR __$EHRec$[ebp+8], 0
  0003c	ff 15 00 00 00
	00		 call	 DWORD PTR __imp_??4?$CStringT@DV?$StrTraitMFC_DLL@DV?$ChTraitsCRT@D@ATL@@@@@ATL@@QAEAAV01@PBD@Z

; 179  : 
; 180  : 	if(wp == NID_UPJONGINPUT)

  00042	81 7d 08 e4 11
	00 00		 cmp	 DWORD PTR _wp$[ebp], 4580 ; 000011e4H
  00049	75 18		 jne	 SHORT $LN2@SetKeyCode

; 181  : 	{
; 182  : 		m_listUpJongCode.ChangeCode(strCode);

  0004b	51		 push	 ecx
  0004c	8d 45 f0	 lea	 eax, DWORD PTR _strCode$[ebp]
  0004f	8b cc		 mov	 ecx, esp
  00051	50		 push	 eax
  00052	ff 15 00 00 00
	00		 call	 DWORD PTR __imp_??0?$CStringT@DV?$StrTraitMFC_DLL@DV?$ChTraitsCRT@D@ATL@@@@@ATL@@QAE@ABV01@@Z
  00058	8d 8e e0 00 00
	00		 lea	 ecx, DWORD PTR [esi+224]
  0005e	e8 00 00 00 00	 call	 ?ChangeCode@CVirtualListCtrl@@QAEXV?$CStringT@DV?$StrTraitMFC_DLL@DV?$ChTraitsCRT@D@ATL@@@@@ATL@@@Z ; CVirtualListCtrl::ChangeCode
$LN2@SetKeyCode:

; 183  : 	}	
; 184  : }

  00063	8d 4d f0	 lea	 ecx, DWORD PTR _strCode$[ebp]
  00066	ff 15 00 00 00
	00		 call	 DWORD PTR __imp_??1?$CStringT@DV?$StrTraitMFC_DLL@DV?$ChTraitsCRT@D@ATL@@@@@ATL@@QAE@XZ
  0006c	8b 4d f4	 mov	 ecx, DWORD PTR __$EHRec$[ebp]
  0006f	64 89 0d 00 00
	00 00		 mov	 DWORD PTR fs:0, ecx
  00076	59		 pop	 ecx
  00077	5e		 pop	 esi
  00078	8b e5		 mov	 esp, ebp
  0007a	5d		 pop	 ebp
  0007b	c2 08 00	 ret	 8
_TEXT	ENDS
;	COMDAT text$x
text$x	SEGMENT
__unwindfunclet$?SetKeyCodeChange@CTabUpJongDlg@@QAEXIJ@Z$0:
  00000	8d 4d f0	 lea	 ecx, DWORD PTR _strCode$[ebp]
  00003	ff 25 00 00 00
	00		 jmp	 DWORD PTR __imp_??1?$CStringT@DV?$StrTraitMFC_DLL@DV?$ChTraitsCRT@D@ATL@@@@@ATL@@QAE@XZ
  00009	cc		 int	 3
  0000a	cc		 int	 3
  0000b	cc		 int	 3
  0000c	cc		 int	 3
  0000d	cc		 int	 3
__ehhandler$?SetKeyCodeChange@CTabUpJongDlg@@QAEXIJ@Z:
  0000e	90		 npad	 1
  0000f	90		 npad	 1
  00010	8b 54 24 08	 mov	 edx, DWORD PTR [esp+8]
  00014	8d 42 0c	 lea	 eax, DWORD PTR [edx+12]
  00017	8b 4a f4	 mov	 ecx, DWORD PTR [edx-12]
  0001a	33 c8		 xor	 ecx, eax
  0001c	e8 00 00 00 00	 call	 @__security_check_cookie@4
  00021	b8 00 00 00 00	 mov	 eax, OFFSET __ehfuncinfo$?SetKeyCodeChange@CTabUpJongDlg@@QAEXIJ@Z
  00026	e9 00 00 00 00	 jmp	 ___CxxFrameHandler3
text$x	ENDS
?SetKeyCodeChange@CTabUpJongDlg@@QAEXIJ@Z ENDP		; CTabUpJongDlg::SetKeyCodeChange
; Function compile flags: /Ogtp
; File D:\git\src\IBK\IBK_DRFN\ProjSrc\SrcDrfn\Chart\comparechart\TabUpJongDlg.cpp
;	COMDAT ?InitBaseInfo@CTabUpJongDlg@@QAEXH@Z
_TEXT	SEGMENT
_nType$ = 8						; size = 4
?InitBaseInfo@CTabUpJongDlg@@QAEXH@Z PROC		; CTabUpJongDlg::InitBaseInfo, COMDAT
; _this$ = ecx

; 128  : 	//if(m_pDBMgr)
; 129  : 	//	m_BaseInfo.InitInfo((void*)((CDrMLib_CDBMgr*)m_pDBMgr)->GetDBLong());
; 130  : 	
; 131  : //	CRect rc;
; 132  : //	GetDlgItem(IDC_STATIC_UPCODE)->GetWindowRect(&rc);
; 133  : //	rc.bottom += 100;
; 134  : //	ScreenToClient(rc);	
; 135  : //	GetDlgItem(IDC_STATIC_UPCODE)->ShowWindow(SW_HIDE);	
; 136  : 		
; 137  : 	
; 138  : //	CString sCode;
; 139  : //	char szBuf[20];	
; 140  : //	CString sSearchOption;
; 141  : //	int nKind = 0;
; 142  : //	if(nType == UPALL)
; 143  : //	{
; 144  : //		nKind = CODE_UPJONG | CODE_K200UPJONG | CODE_KUPJONG;
; 145  : //		sSearchOption = "CODE_UPJONG | CODE_K200UPJONG | CODE_KUPJONG";
; 146  : //	}
; 147  : //	else if(nType == UPKOSPI)
; 148  : //	{
; 149  : //		nKind = CODE_UPJONG | CODE_K200UPJONG;
; 150  : //		sSearchOption = "CODE_UPJONG | CODE_K200UPJONG";
; 151  : //	}
; 152  : //	else if(nType == UPKOSDAQ)
; 153  : //	{
; 154  : //		nKind = CODE_KUPJONG;
; 155  : //		sSearchOption = "CODE_KUPJONG";
; 156  : //	}
; 157  : //
; 158  : //	//m_BaseInfo.CreateControl_CodeInput(GetSafeHwnd(), rc, NID_CODEINPUT, nKind);	
; 159  : //	//m_BaseInfo.CreateControl_UpjongCodeCombo(GetSafeHwnd(), rc, NID_UPJONGINPUT, sSearchOption);
; 160  : //
; 161  : //	if( AfxGetMainWnd()->SendMessage(WMU_GET_KEYCODE, (WPARAM)nKind, (LPARAM)szBuf) == FALSE)
; 162  : //		return;
; 163  : 
; 164  : //	 // 종목 코드 변경
; 165  : //	 sCode.Format("%s",szBuf);
; 166  : //	 sCode.TrimLeft();sCode.TrimRight();sCode.Remove(' ');
; 167  : //	 
; 168  : //	 //m_BaseInfo.SetTextToCodeInput(sCode);
; 169  : //	 if(sCode.GetLength())
; 170  : //	 {
; 171  : //		m_strCodeFromHanhwa = sCode;		
; 172  : //	 }
; 173  : }

  00000	c2 04 00	 ret	 4
?InitBaseInfo@CTabUpJongDlg@@QAEXH@Z ENDP		; CTabUpJongDlg::InitBaseInfo
_TEXT	ENDS
; Function compile flags: /Ogtp
; File D:\git\src\IBK\IBK_DRFN\ProjSrc\SrcDrfn\Chart\comparechart\TabUpJongDlg.cpp
;	COMDAT ??0CTabUpJongDlg@@QAE@PAVCWnd@@@Z
_TEXT	SEGMENT
_this$ = -16						; size = 4
__$EHRec$ = -12						; size = 12
_pParent$ = 8						; size = 4
??0CTabUpJongDlg@@QAE@PAVCWnd@@@Z PROC			; CTabUpJongDlg::CTabUpJongDlg, COMDAT
; _this$ = ecx

; 22   : {

  00000	55		 push	 ebp
  00001	8b ec		 mov	 ebp, esp
  00003	6a ff		 push	 -1
  00005	68 00 00 00 00	 push	 __ehhandler$??0CTabUpJongDlg@@QAE@PAVCWnd@@@Z
  0000a	64 a1 00 00 00
	00		 mov	 eax, DWORD PTR fs:0
  00010	50		 push	 eax
  00011	51		 push	 ecx
  00012	56		 push	 esi
  00013	a1 00 00 00 00	 mov	 eax, DWORD PTR ___security_cookie
  00018	33 c5		 xor	 eax, ebp
  0001a	50		 push	 eax
  0001b	8d 45 f4	 lea	 eax, DWORD PTR __$EHRec$[ebp]
  0001e	64 a3 00 00 00
	00		 mov	 DWORD PTR fs:0, eax
  00024	8b f1		 mov	 esi, ecx
  00026	89 75 f0	 mov	 DWORD PTR _this$[ebp], esi

; 21   : 	: CTabDlg(CTabUpJongDlg::IDD, pParent)

  00029	ff 75 08	 push	 DWORD PTR _pParent$[ebp]
  0002c	68 e8 2e 00 00	 push	 12008			; 00002ee8H
  00031	e8 00 00 00 00	 call	 ??0CTabDlg@@QAE@IPAVCWnd@@@Z ; CTabDlg::CTabDlg

; 22   : {

  00036	8d 8e d4 00 00
	00		 lea	 ecx, DWORD PTR [esi+212]
  0003c	c7 45 fc 00 00
	00 00		 mov	 DWORD PTR __$EHRec$[ebp+8], 0
  00043	c7 06 00 00 00
	00		 mov	 DWORD PTR [esi], OFFSET ??_7CTabUpJongDlg@@6B@
  00049	ff 15 00 00 00
	00		 call	 DWORD PTR __imp_??0?$CStringT@DV?$StrTraitMFC_DLL@DV?$ChTraitsCRT@D@ATL@@@@@ATL@@QAE@XZ
  0004f	8d 8e d8 00 00
	00		 lea	 ecx, DWORD PTR [esi+216]
  00055	ff 15 00 00 00
	00		 call	 DWORD PTR __imp_??0?$CStringT@DV?$StrTraitMFC_DLL@DV?$ChTraitsCRT@D@ATL@@@@@ATL@@QAE@XZ
  0005b	8d 8e e0 00 00
	00		 lea	 ecx, DWORD PTR [esi+224]
  00061	c6 45 fc 02	 mov	 BYTE PTR __$EHRec$[ebp+8], 2
  00065	e8 00 00 00 00	 call	 ??0CVirtualListCtrl@@QAE@XZ ; CVirtualListCtrl::CVirtualListCtrl
  0006a	8d 8e 08 02 00
	00		 lea	 ecx, DWORD PTR [esi+520]
  00070	c6 45 fc 03	 mov	 BYTE PTR __$EHRec$[ebp+8], 3
  00074	e8 00 00 00 00	 call	 ??0CILButton@@QAE@XZ	; CILButton::CILButton
  00079	8d 8e 68 03 00
	00		 lea	 ecx, DWORD PTR [esi+872]
  0007f	c6 45 fc 04	 mov	 BYTE PTR __$EHRec$[ebp+8], 4
  00083	e8 00 00 00 00	 call	 ??0CILButton@@QAE@XZ	; CILButton::CILButton
  00088	8d 8e c8 04 00
	00		 lea	 ecx, DWORD PTR [esi+1224]
  0008e	c6 45 fc 05	 mov	 BYTE PTR __$EHRec$[ebp+8], 5
  00092	e8 00 00 00 00	 call	 ??0CILButton@@QAE@XZ	; CILButton::CILButton

; 23   : 	//{{AFX_DATA_INIT(CTabUpJongDlg)
; 24   : 		// NOTE: the ClassWizard will add member initialization here
; 25   : 	//}}AFX_DATA_INIT
; 26   : }

  00097	8b c6		 mov	 eax, esi
  00099	8b 4d f4	 mov	 ecx, DWORD PTR __$EHRec$[ebp]
  0009c	64 89 0d 00 00
	00 00		 mov	 DWORD PTR fs:0, ecx
  000a3	59		 pop	 ecx
  000a4	5e		 pop	 esi
  000a5	8b e5		 mov	 esp, ebp
  000a7	5d		 pop	 ebp
  000a8	c2 04 00	 ret	 4
_TEXT	ENDS
;	COMDAT text$x
text$x	SEGMENT
__unwindfunclet$??0CTabUpJongDlg@@QAE@PAVCWnd@@@Z$0:
  00000	8b 4d f0	 mov	 ecx, DWORD PTR _this$[ebp]
  00003	e9 00 00 00 00	 jmp	 ??1CTabDlg@@UAE@XZ	; CTabDlg::~CTabDlg
__unwindfunclet$??0CTabUpJongDlg@@QAE@PAVCWnd@@@Z$1:
  00008	8b 4d f0	 mov	 ecx, DWORD PTR _this$[ebp]
  0000b	81 c1 d4 00 00
	00		 add	 ecx, 212		; 000000d4H
  00011	ff 25 00 00 00
	00		 jmp	 DWORD PTR __imp_??1?$CStringT@DV?$StrTraitMFC_DLL@DV?$ChTraitsCRT@D@ATL@@@@@ATL@@QAE@XZ
__unwindfunclet$??0CTabUpJongDlg@@QAE@PAVCWnd@@@Z$2:
  00017	8b 4d f0	 mov	 ecx, DWORD PTR _this$[ebp]
  0001a	81 c1 d8 00 00
	00		 add	 ecx, 216		; 000000d8H
  00020	ff 25 00 00 00
	00		 jmp	 DWORD PTR __imp_??1?$CStringT@DV?$StrTraitMFC_DLL@DV?$ChTraitsCRT@D@ATL@@@@@ATL@@QAE@XZ
__unwindfunclet$??0CTabUpJongDlg@@QAE@PAVCWnd@@@Z$3:
  00026	8b 4d f0	 mov	 ecx, DWORD PTR _this$[ebp]
  00029	81 c1 e0 00 00
	00		 add	 ecx, 224		; 000000e0H
  0002f	e9 00 00 00 00	 jmp	 ??1CVirtualListCtrl@@UAE@XZ ; CVirtualListCtrl::~CVirtualListCtrl
__unwindfunclet$??0CTabUpJongDlg@@QAE@PAVCWnd@@@Z$4:
  00034	8b 4d f0	 mov	 ecx, DWORD PTR _this$[ebp]
  00037	81 c1 08 02 00
	00		 add	 ecx, 520		; 00000208H
  0003d	e9 00 00 00 00	 jmp	 ??1CILButton@@UAE@XZ	; CILButton::~CILButton
__unwindfunclet$??0CTabUpJongDlg@@QAE@PAVCWnd@@@Z$5:
  00042	8b 4d f0	 mov	 ecx, DWORD PTR _this$[ebp]
  00045	81 c1 68 03 00
	00		 add	 ecx, 872		; 00000368H
  0004b	e9 00 00 00 00	 jmp	 ??1CILButton@@UAE@XZ	; CILButton::~CILButton
  00050	cc		 int	 3
  00051	cc		 int	 3
  00052	cc		 int	 3
  00053	cc		 int	 3
  00054	cc		 int	 3
__ehhandler$??0CTabUpJongDlg@@QAE@PAVCWnd@@@Z:
  00055	90		 npad	 1
  00056	90		 npad	 1
  00057	8b 54 24 08	 mov	 edx, DWORD PTR [esp+8]
  0005b	8d 42 0c	 lea	 eax, DWORD PTR [edx+12]
  0005e	8b 4a f4	 mov	 ecx, DWORD PTR [edx-12]
  00061	33 c8		 xor	 ecx, eax
  00063	e8 00 00 00 00	 call	 @__security_check_cookie@4
  00068	b8 00 00 00 00	 mov	 eax, OFFSET __ehfuncinfo$??0CTabUpJongDlg@@QAE@PAVCWnd@@@Z
  0006d	e9 00 00 00 00	 jmp	 ___CxxFrameHandler3
text$x	ENDS
??0CTabUpJongDlg@@QAE@PAVCWnd@@@Z ENDP			; CTabUpJongDlg::CTabUpJongDlg
; Function compile flags: /Ogtp
; File C:\Program Files (x86)\Microsoft Visual Studio\2019\Community\VC\Tools\MSVC\14.29.30133\atlmfc\include\afxtempl.h
;	COMDAT ?SetAtGrow@?$CArray@PAU__MASTERCODE@@PAU1@@@QAEXHPAU__MASTERCODE@@@Z
_TEXT	SEGMENT
_nIndex$ = 8						; size = 4
_newElement$ = 12					; size = 4
?SetAtGrow@?$CArray@PAU__MASTERCODE@@PAU1@@@QAEXHPAU__MASTERCODE@@@Z PROC ; CArray<__MASTERCODE *,__MASTERCODE *>::SetAtGrow, COMDAT
; _this$ = ecx

; 534  : {

  00000	55		 push	 ebp
  00001	8b ec		 mov	 ebp, esp
  00003	56		 push	 esi

; 535  : 	ASSERT_VALID(this);
; 536  : 	ASSERT(nIndex >= 0);
; 537  : 
; 538  : 	if(nIndex < 0)

  00004	8b 75 08	 mov	 esi, DWORD PTR _nIndex$[ebp]
  00007	57		 push	 edi
  00008	8b f9		 mov	 edi, ecx
  0000a	85 f6		 test	 esi, esi
  0000c	78 1f		 js	 SHORT $LN7@SetAtGrow

; 540  : 
; 541  : 	if (nIndex >= m_nSize)

  0000e	3b 77 08	 cmp	 esi, DWORD PTR [edi+8]
  00011	7c 0b		 jl	 SHORT $LN3@SetAtGrow

; 542  : 		SetSize(nIndex+1, -1);

  00013	6a ff		 push	 -1
  00015	8d 46 01	 lea	 eax, DWORD PTR [esi+1]
  00018	50		 push	 eax
  00019	e8 00 00 00 00	 call	 ?SetSize@?$CArray@PAU__MASTERCODE@@PAU1@@@QAEXHH@Z ; CArray<__MASTERCODE *,__MASTERCODE *>::SetSize
$LN3@SetAtGrow:

; 543  : 	m_pData[nIndex] = newElement;

  0001e	8b 4f 04	 mov	 ecx, DWORD PTR [edi+4]
  00021	8b 45 0c	 mov	 eax, DWORD PTR _newElement$[ebp]
  00024	5f		 pop	 edi
  00025	89 04 b1	 mov	 DWORD PTR [ecx+esi*4], eax
  00028	5e		 pop	 esi

; 544  : }

  00029	5d		 pop	 ebp
  0002a	c2 08 00	 ret	 8
$LN7@SetAtGrow:

; 539  : 		AfxThrowInvalidArgException();

  0002d	e8 00 00 00 00	 call	 ?AfxThrowInvalidArgException@@YGXXZ ; AfxThrowInvalidArgException
$LN5@SetAtGrow:
  00032	cc		 int	 3
?SetAtGrow@?$CArray@PAU__MASTERCODE@@PAU1@@@QAEXHPAU__MASTERCODE@@@Z ENDP ; CArray<__MASTERCODE *,__MASTERCODE *>::SetAtGrow
_TEXT	ENDS
; Function compile flags: /Ogtp
; File C:\Program Files (x86)\Microsoft Visual Studio\2019\Community\VC\Tools\MSVC\14.29.30133\atlmfc\include\afxtempl.h
; File C:\Program Files (x86)\Windows Kits\10\Include\10.0.22000.0\ucrt\corecrt_memcpy_s.h
; File C:\Program Files (x86)\Microsoft Visual Studio\2019\Community\VC\Tools\MSVC\14.29.30133\atlmfc\include\afxtempl.h
; File C:\Program Files (x86)\Windows Kits\10\Include\10.0.22000.0\ucrt\corecrt_memcpy_s.h
; File C:\Program Files (x86)\Microsoft Visual Studio\2019\Community\VC\Tools\MSVC\14.29.30133\atlmfc\include\afx.h
; File C:\Program Files (x86)\Microsoft Visual Studio\2019\Community\VC\Tools\MSVC\14.29.30133\atlmfc\include\afxtempl.h
;	COMDAT ?SetSize@?$CArray@PAU__MASTERCODE@@PAU1@@@QAEXHH@Z
_TEXT	SEGMENT
__N$1$ = -8						; size = 4
__S1max$1$ = -4						; size = 4
__S2$1$ = 8						; size = 4
_nNewSize$ = 8						; size = 4
_pNewData$1$ = 12					; size = 4
_nGrowBy$ = 12						; size = 4
?SetSize@?$CArray@PAU__MASTERCODE@@PAU1@@@QAEXHH@Z PROC	; CArray<__MASTERCODE *,__MASTERCODE *>::SetSize, COMDAT
; _this$ = ecx

; 368  : {

  00000	55		 push	 ebp
  00001	8b ec		 mov	 ebp, esp
  00003	83 ec 08	 sub	 esp, 8
  00006	53		 push	 ebx
  00007	56		 push	 esi

; 369  : 	ASSERT_VALID(this);
; 370  : 	ASSERT(nNewSize >= 0);
; 371  : 
; 372  : 	if(nNewSize < 0 )

  00008	8b 75 08	 mov	 esi, DWORD PTR _nNewSize$[ebp]
  0000b	8b d9		 mov	 ebx, ecx
  0000d	57		 push	 edi
  0000e	85 f6		 test	 esi, esi
  00010	0f 88 9a 01 00
	00		 js	 $LN56@SetSize

; 373  : 		AfxThrowInvalidArgException();
; 374  : 
; 375  : 	if (nGrowBy >= 0)

  00016	8b 45 0c	 mov	 eax, DWORD PTR _nGrowBy$[ebp]
  00019	85 c0		 test	 eax, eax
  0001b	78 03		 js	 SHORT $LN82@SetSize

; 376  : 		m_nGrowBy = nGrowBy;  // set new size

  0001d	89 43 10	 mov	 DWORD PTR [ebx+16], eax
$LN82@SetSize:

; 377  : 
; 378  : 	if (nNewSize == 0)

  00020	8b 4b 04	 mov	 ecx, DWORD PTR [ebx+4]
  00023	85 f6		 test	 esi, esi
  00025	75 27		 jne	 SHORT $LN19@SetSize

; 379  : 	{
; 380  : 		// shrink to nothing
; 381  : 		if (m_pData != NULL)

  00027	85 c9		 test	 ecx, ecx
  00029	74 0c		 je	 SHORT $LN21@SetSize

; 382  : 		{
; 383  : 			for( int i = 0; i < m_nSize; i++ )
; 384  : 				(m_pData + i)->~TYPE();
; 385  : 			delete[] (BYTE*)m_pData;

  0002b	51		 push	 ecx
  0002c	e8 00 00 00 00	 call	 ??_V@YAXPAX@Z		; operator delete[]
  00031	83 c4 04	 add	 esp, 4

; 386  : 			m_pData = NULL;

  00034	89 73 04	 mov	 DWORD PTR [ebx+4], esi
$LN21@SetSize:

; 475  : }

  00037	5f		 pop	 edi
  00038	5e		 pop	 esi
  00039	c7 43 0c 00 00
	00 00		 mov	 DWORD PTR [ebx+12], 0
  00040	c7 43 08 00 00
	00 00		 mov	 DWORD PTR [ebx+8], 0
  00047	5b		 pop	 ebx
  00048	8b e5		 mov	 esp, ebp
  0004a	5d		 pop	 ebp
  0004b	c2 08 00	 ret	 8
$LN19@SetSize:

; 387  : 		}
; 388  : 		m_nSize = m_nMaxSize = 0;
; 389  : 	}
; 390  : 	else if (m_pData == NULL)

  0004e	85 c9		 test	 ecx, ecx
  00050	75 36		 jne	 SHORT $LN22@SetSize

; 391  : 	{
; 392  : 		// create buffer big enough to hold number of requested elements or
; 393  : 		// m_nGrowBy elements, whichever is larger.
; 394  : #ifdef SIZE_T_MAX
; 395  : 		ASSERT(nNewSize <= SIZE_T_MAX/sizeof(TYPE));    // no overflow
; 396  : #endif
; 397  : 		size_t nAllocSize = __max(nNewSize, m_nGrowBy);

  00052	8b 7b 10	 mov	 edi, DWORD PTR [ebx+16]
  00055	3b f7		 cmp	 esi, edi
  00057	0f 4f fe	 cmovg	 edi, esi

; 398  : 		m_pData = (TYPE*) new BYTE[(size_t)nAllocSize * sizeof(TYPE)];

  0005a	8d 34 bd 00 00
	00 00		 lea	 esi, DWORD PTR [edi*4]
  00061	56		 push	 esi
  00062	e8 00 00 00 00	 call	 ??_U@YAPAXI@Z		; operator new[]

; 399  : 		memset((void*)m_pData, 0, (size_t)nAllocSize * sizeof(TYPE));

  00067	56		 push	 esi
  00068	6a 00		 push	 0
  0006a	50		 push	 eax
  0006b	89 43 04	 mov	 DWORD PTR [ebx+4], eax
  0006e	e8 00 00 00 00	 call	 _memset

; 400  : 		for( int i = 0; i < nNewSize; i++ )
; 401  : #pragma push_macro("new")
; 402  : #undef new
; 403  : 			::new( (void*)( m_pData + i ) ) TYPE;
; 404  : #pragma pop_macro("new")
; 405  : 		m_nSize = nNewSize;

  00073	8b 45 08	 mov	 eax, DWORD PTR _nNewSize$[ebp]
  00076	83 c4 10	 add	 esp, 16			; 00000010H

; 475  : }

  00079	89 7b 0c	 mov	 DWORD PTR [ebx+12], edi
  0007c	89 43 08	 mov	 DWORD PTR [ebx+8], eax
  0007f	5f		 pop	 edi
  00080	5e		 pop	 esi
  00081	5b		 pop	 ebx
  00082	8b e5		 mov	 esp, ebp
  00084	5d		 pop	 ebp
  00085	c2 08 00	 ret	 8
$LN22@SetSize:

; 406  : 		m_nMaxSize = nAllocSize;
; 407  : 	}
; 408  : 	else if (nNewSize <= m_nMaxSize)

  00088	8b 7b 0c	 mov	 edi, DWORD PTR [ebx+12]
  0008b	3b f7		 cmp	 esi, edi
  0008d	7f 29		 jg	 SHORT $LN24@SetSize

; 409  : 	{
; 410  : 		// it fits
; 411  : 		if (nNewSize > m_nSize)

  0008f	8b 53 08	 mov	 edx, DWORD PTR [ebx+8]
  00092	3b f2		 cmp	 esi, edx
  00094	7e 16		 jle	 SHORT $LN26@SetSize

; 412  : 		{
; 413  : 			// initialize the new elements
; 414  : 			memset((void*)(m_pData + m_nSize), 0, (size_t)(nNewSize-m_nSize) * sizeof(TYPE));

  00096	8b c6		 mov	 eax, esi
  00098	2b c2		 sub	 eax, edx
  0009a	c1 e0 02	 shl	 eax, 2
  0009d	50		 push	 eax
  0009e	8d 04 91	 lea	 eax, DWORD PTR [ecx+edx*4]
  000a1	6a 00		 push	 0
  000a3	50		 push	 eax
  000a4	e8 00 00 00 00	 call	 _memset
  000a9	83 c4 0c	 add	 esp, 12			; 0000000cH
$LN26@SetSize:

; 415  : 			for( int i = 0; i < nNewSize-m_nSize; i++ )
; 416  : #pragma push_macro("new")
; 417  : #undef new
; 418  : 				::new( (void*)( m_pData + m_nSize + i ) ) TYPE;
; 419  : #pragma pop_macro("new")
; 420  : 		}
; 421  : 		else if (m_nSize > nNewSize)
; 422  : 		{
; 423  : 			// destroy the old elements
; 424  : 			for( int i = 0; i < m_nSize-nNewSize; i++ )
; 425  : 				(m_pData + nNewSize + i)->~TYPE();
; 426  : 		}
; 427  : 		m_nSize = nNewSize;

  000ac	5f		 pop	 edi
  000ad	89 73 08	 mov	 DWORD PTR [ebx+8], esi

; 475  : }

  000b0	5e		 pop	 esi
  000b1	5b		 pop	 ebx
  000b2	8b e5		 mov	 esp, ebp
  000b4	5d		 pop	 ebp
  000b5	c2 08 00	 ret	 8
$LN24@SetSize:

; 428  : 	}
; 429  : 	else
; 430  : 	{
; 431  : 		// otherwise, grow array
; 432  : 		nGrowBy = m_nGrowBy;

  000b8	8b 43 10	 mov	 eax, DWORD PTR [ebx+16]

; 433  : 		if (nGrowBy == 0)

  000bb	85 c0		 test	 eax, eax
  000bd	75 22		 jne	 SHORT $LN37@SetSize

; 434  : 		{
; 435  : 			// heuristically determine growth when nGrowBy == 0
; 436  : 			//  (this avoids heap fragmentation in many situations)
; 437  : 			nGrowBy = m_nSize / 8;

  000bf	8b 43 08	 mov	 eax, DWORD PTR [ebx+8]
  000c2	99		 cdq
  000c3	83 e2 07	 and	 edx, 7
  000c6	03 c2		 add	 eax, edx
  000c8	c1 f8 03	 sar	 eax, 3

; 438  : 			nGrowBy = (nGrowBy < 4) ? 4 : ((nGrowBy > 1024) ? 1024 : nGrowBy);

  000cb	83 f8 04	 cmp	 eax, 4
  000ce	7d 07		 jge	 SHORT $LN36@SetSize
  000d0	b8 04 00 00 00	 mov	 eax, 4
  000d5	eb 0a		 jmp	 SHORT $LN37@SetSize
$LN36@SetSize:
  000d7	b9 00 04 00 00	 mov	 ecx, 1024		; 00000400H
  000dc	3b c1		 cmp	 eax, ecx
  000de	0f 4f c1	 cmovg	 eax, ecx
$LN37@SetSize:

; 439  : 		}
; 440  : 		INT_PTR nNewMax;
; 441  : 		if (nNewSize < m_nMaxSize + nGrowBy)

  000e1	03 f8		 add	 edi, eax
  000e3	3b f7		 cmp	 esi, edi
  000e5	7d 0b		 jge	 SHORT $LN30@SetSize

; 445  : 
; 446  : 		ASSERT(nNewMax >= m_nMaxSize);  // no wrap around
; 447  : 
; 448  : 		if(nNewMax  < m_nMaxSize)

  000e7	3b 7b 0c	 cmp	 edi, DWORD PTR [ebx+12]
  000ea	0f 8c c0 00 00
	00		 jl	 $LN56@SetSize
  000f0	eb 02		 jmp	 SHORT $LN32@SetSize
$LN30@SetSize:

; 442  : 			nNewMax = m_nMaxSize + nGrowBy;  // granularity
; 443  : 		else
; 444  : 			nNewMax = nNewSize;  // no slush

  000f2	8b fe		 mov	 edi, esi
$LN32@SetSize:

; 449  : 			AfxThrowInvalidArgException();
; 450  : 
; 451  : #ifdef SIZE_T_MAX
; 452  : 		ASSERT(nNewMax <= SIZE_T_MAX/sizeof(TYPE)); // no overflow
; 453  : #endif
; 454  : 		TYPE* pNewData = (TYPE*) new BYTE[(size_t)nNewMax * sizeof(TYPE)];

  000f4	8d 04 bd 00 00
	00 00		 lea	 eax, DWORD PTR [edi*4]
  000fb	50		 push	 eax
  000fc	89 45 fc	 mov	 DWORD PTR __S1max$1$[ebp], eax
  000ff	e8 00 00 00 00	 call	 ??_U@YAPAXI@Z		; operator new[]

; 455  : 
; 456  : 		// copy new data from old
; 457  : 		::ATL::Checked::memcpy_s(pNewData, (size_t)nNewMax * sizeof(TYPE),

  00104	8b 4b 08	 mov	 ecx, DWORD PTR [ebx+8]
  00107	83 c4 04	 add	 esp, 4
  0010a	8b 53 04	 mov	 edx, DWORD PTR [ebx+4]
  0010d	c1 e1 02	 shl	 ecx, 2
  00110	89 45 0c	 mov	 DWORD PTR _pNewData$1$[ebp], eax
  00113	89 4d f8	 mov	 DWORD PTR __N$1$[ebp], ecx
  00116	89 55 08	 mov	 DWORD PTR __S2$1$[ebp], edx
; File C:\Program Files (x86)\Windows Kits\10\Include\10.0.22000.0\ucrt\corecrt_memcpy_s.h

; 46   :         if (_SourceSize == 0)

  00119	85 c9		 test	 ecx, ecx
  0011b	74 20		 je	 SHORT $LN54@SetSize

; 47   :         {
; 48   :             return 0;
; 49   :         }
; 50   : 
; 51   :         _CRT_MEMCPY_S_VALIDATE_RETURN_ERRCODE(_Destination != NULL, EINVAL);

  0011d	85 c0		 test	 eax, eax
  0011f	74 7d		 je	 SHORT $LN84@SetSize

; 52   :         if (_Source == NULL || _DestinationSize < _SourceSize)

  00121	85 d2		 test	 edx, edx
  00123	74 51		 je	 SHORT $LN76@SetSize
  00125	8d 14 bd 00 00
	00 00		 lea	 edx, DWORD PTR [edi*4]
  0012c	3b d1		 cmp	 edx, ecx
  0012e	72 46		 jb	 SHORT $LN76@SetSize

; 58   : 
; 59   :             // Unreachable, but required to suppress /analyze warnings:
; 60   :             return EINVAL;
; 61   :         }
; 62   :         memcpy(_Destination, _Source, _SourceSize);

  00130	51		 push	 ecx
  00131	ff 75 08	 push	 DWORD PTR __S2$1$[ebp]
  00134	50		 push	 eax
  00135	e8 00 00 00 00	 call	 _memcpy
  0013a	83 c4 0c	 add	 esp, 12			; 0000000cH
$LN54@SetSize:
; File C:\Program Files (x86)\Microsoft Visual Studio\2019\Community\VC\Tools\MSVC\14.29.30133\atlmfc\include\afxtempl.h

; 462  : 		memset((void*)(pNewData + m_nSize), 0, (size_t)(nNewSize-m_nSize) * sizeof(TYPE));

  0013d	8b 4b 08	 mov	 ecx, DWORD PTR [ebx+8]
  00140	8b c6		 mov	 eax, esi
  00142	2b c1		 sub	 eax, ecx
  00144	c1 e0 02	 shl	 eax, 2
  00147	50		 push	 eax
  00148	8b 45 0c	 mov	 eax, DWORD PTR _pNewData$1$[ebp]
  0014b	6a 00		 push	 0
  0014d	8d 04 88	 lea	 eax, DWORD PTR [eax+ecx*4]
  00150	50		 push	 eax
  00151	e8 00 00 00 00	 call	 _memset

; 463  : 		for( int i = 0; i < nNewSize-m_nSize; i++ )
; 464  : #pragma push_macro("new")
; 465  : #undef new
; 466  : 			::new( (void*)( pNewData + m_nSize + i ) ) TYPE;
; 467  : #pragma pop_macro("new")
; 468  : 
; 469  : 		// get rid of old stuff (note: no destructors called)
; 470  : 		delete[] (BYTE*)m_pData;

  00156	ff 73 04	 push	 DWORD PTR [ebx+4]
  00159	e8 00 00 00 00	 call	 ??_V@YAXPAX@Z		; operator delete[]

; 471  : 		m_pData = pNewData;

  0015e	8b 45 0c	 mov	 eax, DWORD PTR _pNewData$1$[ebp]
  00161	83 c4 10	 add	 esp, 16			; 00000010H

; 475  : }

  00164	89 7b 0c	 mov	 DWORD PTR [ebx+12], edi
  00167	89 73 08	 mov	 DWORD PTR [ebx+8], esi
  0016a	89 43 04	 mov	 DWORD PTR [ebx+4], eax
  0016d	5f		 pop	 edi
  0016e	5e		 pop	 esi
  0016f	5b		 pop	 ebx
  00170	8b e5		 mov	 esp, ebp
  00172	5d		 pop	 ebp
  00173	c2 08 00	 ret	 8
$LN76@SetSize:
; File C:\Program Files (x86)\Windows Kits\10\Include\10.0.22000.0\ucrt\corecrt_memcpy_s.h

; 54   :             memset(_Destination, 0, _DestinationSize);

  00176	8b 5d fc	 mov	 ebx, DWORD PTR __S1max$1$[ebp]
  00179	53		 push	 ebx
  0017a	6a 00		 push	 0
  0017c	50		 push	 eax
  0017d	e8 00 00 00 00	 call	 _memset
  00182	83 c4 0c	 add	 esp, 12			; 0000000cH

; 55   : 
; 56   :             _CRT_MEMCPY_S_VALIDATE_RETURN_ERRCODE(_Source != NULL,                 EINVAL);

  00185	83 7d 08 00	 cmp	 DWORD PTR __S2$1$[ebp], 0
  00189	74 13		 je	 SHORT $LN84@SetSize

; 57   :             _CRT_MEMCPY_S_VALIDATE_RETURN_ERRCODE(_DestinationSize >= _SourceSize, ERANGE);

  0018b	3b 5d f8	 cmp	 ebx, DWORD PTR __N$1$[ebp]
  0018e	73 20		 jae	 SHORT $LN56@SetSize
  00190	ff 15 00 00 00
	00		 call	 DWORD PTR __imp___errno
  00196	c7 00 22 00 00
	00		 mov	 DWORD PTR [eax], 34	; 00000022H
  0019c	eb 0c		 jmp	 SHORT $LN85@SetSize
$LN84@SetSize:
; File C:\Program Files (x86)\Microsoft Visual Studio\2019\Community\VC\Tools\MSVC\14.29.30133\atlmfc\include\afx.h

; 517  : 		AfxThrowInvalidArgException();

  0019e	ff 15 00 00 00
	00		 call	 DWORD PTR __imp___errno
  001a4	c7 00 16 00 00
	00		 mov	 DWORD PTR [eax], 22	; 00000016H
$LN85@SetSize:
  001aa	ff 15 00 00 00
	00		 call	 DWORD PTR __imp___invalid_parameter_noinfo
$LN56@SetSize:
  001b0	e8 00 00 00 00	 call	 ?AfxThrowInvalidArgException@@YGXXZ ; AfxThrowInvalidArgException
$LN83@SetSize:
  001b5	cc		 int	 3
?SetSize@?$CArray@PAU__MASTERCODE@@PAU1@@@QAEXHH@Z ENDP	; CArray<__MASTERCODE *,__MASTERCODE *>::SetSize
_TEXT	ENDS
; Function compile flags: /Ogtp
; File D:\git\src\IBK\IBK_DRFN\ProjSrc\SrcDrfn\Chart\comparechart\TabDlg.h
; File C:\Program Files (x86)\Microsoft Visual Studio\2019\Community\VC\Tools\MSVC\14.29.30133\atlmfc\include\atltypes.h
; File D:\git\src\IBK\IBK_DRFN\ProjSrc\SrcDrfn\Chart\comparechart\TabDlg.h
;	COMDAT ?GetRectOfCtrl@CTabDlg@@MAE?AVCRect@@HH@Z
_TEXT	SEGMENT
___$ReturnUdt$ = 8					; size = 4
_nID$ = 12						; size = 4
_bInit$ = 16						; size = 4
?GetRectOfCtrl@CTabDlg@@MAE?AVCRect@@HH@Z PROC		; CTabDlg::GetRectOfCtrl, COMDAT
; _this$ = ecx

; 98   : 	virtual CRect GetRectOfCtrl(INT nID, BOOL bInit=FALSE) { return CRect(0,0,0,0); }

  00000	55		 push	 ebp
  00001	8b ec		 mov	 ebp, esp
; File C:\Program Files (x86)\Microsoft Visual Studio\2019\Community\VC\Tools\MSVC\14.29.30133\atlmfc\include\atltypes.h

; 540  : 	left = l;

  00003	8b 45 08	 mov	 eax, DWORD PTR ___$ReturnUdt$[ebp]
  00006	c7 00 00 00 00
	00		 mov	 DWORD PTR [eax], 0

; 541  : 	top = t;

  0000c	c7 40 04 00 00
	00 00		 mov	 DWORD PTR [eax+4], 0

; 542  : 	right = r;

  00013	c7 40 08 00 00
	00 00		 mov	 DWORD PTR [eax+8], 0

; 543  : 	bottom = b;

  0001a	c7 40 0c 00 00
	00 00		 mov	 DWORD PTR [eax+12], 0
; File D:\git\src\IBK\IBK_DRFN\ProjSrc\SrcDrfn\Chart\comparechart\TabDlg.h

; 98   : 	virtual CRect GetRectOfCtrl(INT nID, BOOL bInit=FALSE) { return CRect(0,0,0,0); }

  00021	5d		 pop	 ebp
  00022	c2 0c 00	 ret	 12			; 0000000cH
?GetRectOfCtrl@CTabDlg@@MAE?AVCRect@@HH@Z ENDP		; CTabDlg::GetRectOfCtrl
_TEXT	ENDS
; Function compile flags: /Ogtp
; File D:\git\src\IBK\IBK_DRFN\ProjSrc\SrcDrfn\Chart\comparechart\TabDlg.h
;	COMDAT ?SetCodeFromOutSide@CTabDlg@@UAEXPBD@Z
_TEXT	SEGMENT
_szCode$ = 8						; size = 4
?SetCodeFromOutSide@CTabDlg@@UAEXPBD@Z PROC		; CTabDlg::SetCodeFromOutSide, COMDAT
; _this$ = ecx

; 89   : 	virtual void SetCodeFromOutSide(LPCSTR szCode) {}

  00000	c2 04 00	 ret	 4
?SetCodeFromOutSide@CTabDlg@@UAEXPBD@Z ENDP		; CTabDlg::SetCodeFromOutSide
_TEXT	ENDS
; Function compile flags: /Ogtp
; File D:\git\src\IBK\IBK_DRFN\ProjSrc\SrcDrfn\Chart\comparechart\TabDlg.h
;	COMDAT ?ReceiveDataFromOutSide@CTabDlg@@UAEXXZ
_TEXT	SEGMENT
?ReceiveDataFromOutSide@CTabDlg@@UAEXXZ PROC		; CTabDlg::ReceiveDataFromOutSide, COMDAT
; _this$ = ecx

; 88   : 	virtual void ReceiveDataFromOutSide() {}

  00000	c2 00 00	 ret	 0
?ReceiveDataFromOutSide@CTabDlg@@UAEXXZ ENDP		; CTabDlg::ReceiveDataFromOutSide
_TEXT	ENDS
; Function compile flags: /Ogtp
; File D:\git\src\IBK\IBK_DRFN\ProjSrc\SrcDrfn\Chart\comparechart\TabDlg.h
;	COMDAT ?SetRealPriceData@CTabDlg@@UAEXPAX@Z
_TEXT	SEGMENT
_pData$ = 8						; size = 4
?SetRealPriceData@CTabDlg@@UAEXPAX@Z PROC		; CTabDlg::SetRealPriceData, COMDAT
; _this$ = ecx

; 87   : 	virtual void SetRealPriceData(void *pData) {}

  00000	c2 04 00	 ret	 4
?SetRealPriceData@CTabDlg@@UAEXPAX@Z ENDP		; CTabDlg::SetRealPriceData
_TEXT	ENDS
; Function compile flags: /Ogtp
; File D:\git\src\IBK\IBK_DRFN\ProjSrc\SrcDrfn\Chart\comparechart\TabDlg.h
;	COMDAT ?ReceiveData@CTabDlg@@UAEXPAUHWND__@@PBD11PAXJ@Z
_TEXT	SEGMENT
_hTrComm$ = 8						; size = 4
_szTR$ = 12						; size = 4
_szMsgCode$ = 16					; size = 4
_szMessage$ = 20					; size = 4
_aTRData$ = 24						; size = 4
_dwTRDateLen$ = 28					; size = 4
?ReceiveData@CTabDlg@@UAEXPAUHWND__@@PBD11PAXJ@Z PROC	; CTabDlg::ReceiveData, COMDAT
; _this$ = ecx

; 86   : 	virtual void ReceiveData(HWND hTrComm, LPCSTR szTR, LPCSTR szMsgCode, LPCSTR szMessage, LPVOID aTRData, long dwTRDateLen) {}

  00000	c2 18 00	 ret	 24			; 00000018H
?ReceiveData@CTabDlg@@UAEXPAUHWND__@@PBD11PAXJ@Z ENDP	; CTabDlg::ReceiveData
_TEXT	ENDS
; Function compile flags: /Ogtp
; File D:\git\src\IBK\IBK_DRFN\ProjSrc\SrcDrfn\Chart\comparechart\control\RscDlg.h
;	COMDAT ?SetBkColor@CRscDlg@@UAEXK@Z
_TEXT	SEGMENT
_crBk$ = 8						; size = 4
?SetBkColor@CRscDlg@@UAEXK@Z PROC			; CRscDlg::SetBkColor, COMDAT
; _this$ = ecx

; 24   : 	virtual void SetBkColor(COLORREF crBk) {m_crBk=crBk;}

  00000	55		 push	 ebp
  00001	8b ec		 mov	 ebp, esp
  00003	8b 45 08	 mov	 eax, DWORD PTR _crBk$[ebp]
  00006	89 81 b0 00 00
	00		 mov	 DWORD PTR [ecx+176], eax
  0000c	5d		 pop	 ebp
  0000d	c2 04 00	 ret	 4
?SetBkColor@CRscDlg@@UAEXK@Z ENDP			; CRscDlg::SetBkColor
_TEXT	ENDS
; Function compile flags: /Ogtp
; File C:\Program Files (x86)\Microsoft Visual Studio\2019\Community\VC\Tools\MSVC\14.29.30133\atlmfc\include\afxwin2.inl
;	COMDAT ?EndModalState@CWnd@@UAEXXZ
_TEXT	SEGMENT
?EndModalState@CWnd@@UAEXXZ PROC			; CWnd::EndModalState, COMDAT
; _this$ = ecx

; 567  : 	{ ::EnableWindow(m_hWnd, TRUE); }

  00000	6a 01		 push	 1
  00002	ff 71 20	 push	 DWORD PTR [ecx+32]
  00005	ff 15 00 00 00
	00		 call	 DWORD PTR __imp__EnableWindow@8
  0000b	c3		 ret	 0
?EndModalState@CWnd@@UAEXXZ ENDP			; CWnd::EndModalState
_TEXT	ENDS
; Function compile flags: /Ogtp
; File C:\Program Files (x86)\Microsoft Visual Studio\2019\Community\VC\Tools\MSVC\14.29.30133\atlmfc\include\afxwin2.inl
;	COMDAT ?BeginModalState@CWnd@@UAEXXZ
_TEXT	SEGMENT
?BeginModalState@CWnd@@UAEXXZ PROC			; CWnd::BeginModalState, COMDAT
; _this$ = ecx

; 565  : 	{ ::EnableWindow(m_hWnd, FALSE); }

  00000	6a 00		 push	 0
  00002	ff 71 20	 push	 DWORD PTR [ecx+32]
  00005	ff 15 00 00 00
	00		 call	 DWORD PTR __imp__EnableWindow@8
  0000b	c3		 ret	 0
?BeginModalState@CWnd@@UAEXXZ ENDP			; CWnd::BeginModalState
_TEXT	ENDS
; Function compile flags: /Ogtp
; File C:\Program Files (x86)\Microsoft Visual Studio\2019\Community\VC\Tools\MSVC\14.29.30133\atlmfc\include\afx.inl
;	COMDAT ?Dump@CObject@@UBEXAAVCDumpContext@@@Z
_TEXT	SEGMENT
___formal$ = 8						; size = 4
?Dump@CObject@@UBEXAAVCDumpContext@@@Z PROC		; CObject::Dump, COMDAT
; _this$ = ecx

; 122  : 	{ /* no dumping in release builds */ }

  00000	c2 04 00	 ret	 4
?Dump@CObject@@UBEXAAVCDumpContext@@@Z ENDP		; CObject::Dump
_TEXT	ENDS
; Function compile flags: /Ogtp
; File C:\Program Files (x86)\Microsoft Visual Studio\2019\Community\VC\Tools\MSVC\14.29.30133\atlmfc\include\afx.inl
;	COMDAT ?AssertValid@CObject@@UBEXXZ
_TEXT	SEGMENT
?AssertValid@CObject@@UBEXXZ PROC			; CObject::AssertValid, COMDAT
; _this$ = ecx

; 120  : 	{ /* no asserts in release builds */ }

  00000	c2 00 00	 ret	 0
?AssertValid@CObject@@UBEXXZ ENDP			; CObject::AssertValid
_TEXT	ENDS
; Function compile flags: /Ogtp
; File C:\Program Files (x86)\Microsoft Visual Studio\2019\Community\VC\Tools\MSVC\14.29.30133\atlmfc\include\afx.inl
;	COMDAT ?Serialize@CObject@@UAEXAAVCArchive@@@Z
_TEXT	SEGMENT
___formal$ = 8						; size = 4
?Serialize@CObject@@UAEXAAVCArchive@@@Z PROC		; CObject::Serialize, COMDAT
; _this$ = ecx

; 106  : 	{ /* CObject does not serialize anything by default */ }

  00000	c2 04 00	 ret	 4
?Serialize@CObject@@UAEXAAVCArchive@@@Z ENDP		; CObject::Serialize
_TEXT	ENDS
; Function compile flags: /Ogtp
; File C:\Program Files (x86)\Microsoft Visual Studio\2019\Community\VC\Tools\MSVC\14.29.30133\atlmfc\include\afx.inl
;	COMDAT ??3CObject@@SGXPAX@Z
_TEXT	SEGMENT
_p$ = 8							; size = 4
??3CObject@@SGXPAX@Z PROC				; CObject::operator delete, COMDAT

; 112  : 	{ ::operator delete(p); }

  00000	55		 push	 ebp
  00001	8b ec		 mov	 ebp, esp
  00003	ff 75 08	 push	 DWORD PTR _p$[ebp]
  00006	e8 00 00 00 00	 call	 ??3@YAXPAX@Z		; operator delete
  0000b	83 c4 04	 add	 esp, 4
  0000e	5d		 pop	 ebp
  0000f	c2 04 00	 ret	 4
??3CObject@@SGXPAX@Z ENDP				; CObject::operator delete
_TEXT	ENDS
; Function compile flags: /Ogtp
; File C:\Program Files (x86)\Windows Kits\10\Include\10.0.22000.0\ucrt\stdio.h
;	COMDAT _sscanf
_TEXT	SEGMENT
__Buffer$ = 8						; size = 4
__Format$ = 12						; size = 4
_sscanf	PROC						; COMDAT

; 2247 :     {

  00000	55		 push	 ebp
  00001	8b ec		 mov	 ebp, esp

; 2153 :         return __stdio_common_vsscanf(

  00003	8d 45 10	 lea	 eax, DWORD PTR __Format$[ebp+4]
  00006	50		 push	 eax
  00007	6a 00		 push	 0
  00009	ff 75 0c	 push	 DWORD PTR __Format$[ebp]
  0000c	6a ff		 push	 -1
  0000e	ff 75 08	 push	 DWORD PTR __Buffer$[ebp]
  00011	e8 00 00 00 00	 call	 ___local_stdio_scanf_options
  00016	ff 70 04	 push	 DWORD PTR [eax+4]
  00019	ff 30		 push	 DWORD PTR [eax]
  0001b	ff 15 00 00 00
	00		 call	 DWORD PTR __imp____stdio_common_vsscanf
  00021	83 c4 1c	 add	 esp, 28			; 0000001cH

; 2248 :         int _Result;
; 2249 :         va_list _ArgList;
; 2250 :         __crt_va_start(_ArgList, _Format);
; 2251 :         _Result = _vsscanf_l(_Buffer, _Format, NULL, _ArgList);
; 2252 :         __crt_va_end(_ArgList);
; 2253 :         return _Result;
; 2254 :     }

  00024	5d		 pop	 ebp
  00025	c3		 ret	 0
_sscanf	ENDP
_TEXT	ENDS
; Function compile flags: /Ogtp
; File C:\Program Files (x86)\Windows Kits\10\Include\10.0.22000.0\ucrt\corecrt_stdio_config.h
;	COMDAT ___local_stdio_scanf_options
_TEXT	SEGMENT
___local_stdio_scanf_options PROC			; COMDAT

; 101  :         static unsigned __int64 _OptionsStorage;
; 102  :         return &_OptionsStorage;

  00000	b8 00 00 00 00	 mov	 eax, OFFSET ?_OptionsStorage@?1??__local_stdio_scanf_options@@9@4_KA ; `__local_stdio_scanf_options'::`2'::_OptionsStorage

; 103  :     }

  00005	c3		 ret	 0
___local_stdio_scanf_options ENDP
_TEXT	ENDS
; Function compile flags: /Ogtp
; File D:\git\src\IBK\IBK_DRFN\ProjSrc\SrcDrfn\Chart\comparechart\TabUpJongDlg.cpp
;	COMDAT ?__empty_global_delete@@YAXPAXI@Z
_TEXT	SEGMENT
___formal$ = 8						; size = 4
___formal$ = 12						; size = 4
?__empty_global_delete@@YAXPAXI@Z PROC			; __empty_global_delete, COMDAT

  00000	c2 00 00	 ret	 0
?__empty_global_delete@@YAXPAXI@Z ENDP			; __empty_global_delete
_TEXT	ENDS
; Function compile flags: /Ogtp
; File D:\git\src\IBK\IBK_DRFN\ProjSrc\SrcDrfn\Chart\comparechart\TabUpJongDlg.cpp
;	COMDAT ?__empty_global_delete@@YAXPAX@Z
_TEXT	SEGMENT
___formal$ = 8						; size = 4
?__empty_global_delete@@YAXPAX@Z PROC			; __empty_global_delete, COMDAT

  00000	c2 00 00	 ret	 0
?__empty_global_delete@@YAXPAX@Z ENDP			; __empty_global_delete
_TEXT	ENDS
END
