; Listing generated by Microsoft (R) Optimizing Compiler Version 19.29.30145.0 

	TITLE	D:\git\src\IBK\IBK_DRFN\#DRfn-CS\_Obj\CompareChart\TrTreeCtrl.obj
	.686P
	.XMM
	include listing.inc
	.model	flat

INCLUDELIB MSVCRT
INCLUDELIB OLDNAMES

PUBLIC	??_C@_0P@JJCNALBJ@RMSG_DRAGSTART@		; `string'
PUBLIC	??_C@_0N@HCNBEPNP@RMSG_DRAGEND@			; `string'
PUBLIC	??_C@_0BA@IIIKKNIB@RMSG_OPENNEWMAP@		; `string'
;	COMDAT ??_C@_0BA@IIIKKNIB@RMSG_OPENNEWMAP@
CONST	SEGMENT
??_C@_0BA@IIIKKNIB@RMSG_OPENNEWMAP@ DB 'RMSG_OPENNEWMAP', 00H ; `string'
CONST	ENDS
;	COMDAT ??_C@_0N@HCNBEPNP@RMSG_DRAGEND@
CONST	SEGMENT
??_C@_0N@HCNBEPNP@RMSG_DRAGEND@ DB 'RMSG_DRAGEND', 00H	; `string'
CONST	ENDS
;	COMDAT ??_C@_0P@JJCNALBJ@RMSG_DRAGSTART@
CONST	SEGMENT
??_C@_0P@JJCNALBJ@RMSG_DRAGSTART@ DB 'RMSG_DRAGSTART', 00H ; `string'
CONST	ENDS
PUBLIC	?__empty_global_delete@@YAXPAX@Z		; __empty_global_delete
PUBLIC	?__empty_global_delete@@YAXPAXI@Z		; __empty_global_delete
PUBLIC	?Serialize@CObject@@UAEXAAVCArchive@@@Z		; CObject::Serialize
PUBLIC	?AssertValid@CObject@@UBEXXZ			; CObject::AssertValid
PUBLIC	?Dump@CObject@@UBEXAAVCDumpContext@@@Z		; CObject::Dump
PUBLIC	?DoDataExchange@CWnd@@MAEXPAVCDataExchange@@@Z	; CWnd::DoDataExchange
PUBLIC	?BeginModalState@CWnd@@UAEXXZ			; CWnd::BeginModalState
PUBLIC	?EndModalState@CWnd@@UAEXXZ			; CWnd::EndModalState
PUBLIC	??_GCTreeCtrl@@UAEPAXI@Z			; CTreeCtrl::`scalar deleting destructor'
PUBLIC	??0CTrTreeCtrl@@QAE@XZ				; CTrTreeCtrl::CTrTreeCtrl
PUBLIC	??1CTrTreeCtrl@@UAE@XZ				; CTrTreeCtrl::~CTrTreeCtrl
PUBLIC	?GetTrString@CTrTreeCtrl@@QAE?AV?$CStringT@DV?$StrTraitMFC_DLL@DV?$ChTraitsCRT@D@ATL@@@@@ATL@@V23@@Z ; CTrTreeCtrl::GetTrString
PUBLIC	?Create@CTrTreeCtrl@@QAEHKABUtagRECT@@PAVCWnd@@I@Z ; CTrTreeCtrl::Create
PUBLIC	?OnDblclk@CTrTreeCtrl@@IAEXPAUtagNMHDR@@PAJ@Z	; CTrTreeCtrl::OnDblclk
PUBLIC	?OnClick@CTrTreeCtrl@@IAEXPAUtagNMHDR@@PAJ@Z	; CTrTreeCtrl::OnClick
PUBLIC	?OnSelchanged@CTrTreeCtrl@@IAEXPAUtagNMHDR@@PAJ@Z ; CTrTreeCtrl::OnSelchanged
PUBLIC	?OnLButtonDown@CTrTreeCtrl@@IAEXIVCPoint@@@Z	; CTrTreeCtrl::OnLButtonDown
PUBLIC	?OnRButtonDown@CTrTreeCtrl@@IAEXIVCPoint@@@Z	; CTrTreeCtrl::OnRButtonDown
PUBLIC	?OnBegindrag@CTrTreeCtrl@@IAEXPAUtagNMHDR@@PAJ@Z ; CTrTreeCtrl::OnBegindrag
PUBLIC	?OnLButtonUp@CTrTreeCtrl@@IAEXIVCPoint@@@Z	; CTrTreeCtrl::OnLButtonUp
PUBLIC	?OnMouseMove@CTrTreeCtrl@@IAEXIVCPoint@@@Z	; CTrTreeCtrl::OnMouseMove
PUBLIC	?GetThisMessageMap@CTrTreeCtrl@@KGPBUAFX_MSGMAP@@XZ ; CTrTreeCtrl::GetThisMessageMap
PUBLIC	?GetMessageMap@CTrTreeCtrl@@MBEPBUAFX_MSGMAP@@XZ ; CTrTreeCtrl::GetMessageMap
PUBLIC	??_GCTrTreeCtrl@@UAEPAXI@Z			; CTrTreeCtrl::`scalar deleting destructor'
PUBLIC	??_C@_00CNPNBAHC@@				; `string'
PUBLIC	??_7CTreeCtrl@@6B@				; CTreeCtrl::`vftable'
PUBLIC	??_C@_01GBGANLPD@0@				; `string'
PUBLIC	??_R0?AVCObject@@@8				; CObject `RTTI Type Descriptor'
PUBLIC	??_R3CObject@@8					; CObject::`RTTI Class Hierarchy Descriptor'
PUBLIC	??_R2CObject@@8					; CObject::`RTTI Base Class Array'
PUBLIC	??_R1A@?0A@EA@CObject@@8			; CObject::`RTTI Base Class Descriptor at (0,-1,0,64)'
PUBLIC	??_R1A@?0A@EA@CWnd@@8				; CWnd::`RTTI Base Class Descriptor at (0,-1,0,64)'
PUBLIC	??_R0?AVCWnd@@@8				; CWnd `RTTI Type Descriptor'
PUBLIC	??_R3CWnd@@8					; CWnd::`RTTI Class Hierarchy Descriptor'
PUBLIC	??_R2CWnd@@8					; CWnd::`RTTI Base Class Array'
PUBLIC	??_R1A@?0A@EA@CCmdTarget@@8			; CCmdTarget::`RTTI Base Class Descriptor at (0,-1,0,64)'
PUBLIC	??_R0?AVCCmdTarget@@@8				; CCmdTarget `RTTI Type Descriptor'
PUBLIC	??_R3CCmdTarget@@8				; CCmdTarget::`RTTI Class Hierarchy Descriptor'
PUBLIC	??_R2CCmdTarget@@8				; CCmdTarget::`RTTI Base Class Array'
PUBLIC	??_R4CTreeCtrl@@6B@				; CTreeCtrl::`RTTI Complete Object Locator'
PUBLIC	??_R0?AVCTreeCtrl@@@8				; CTreeCtrl `RTTI Type Descriptor'
PUBLIC	??_R3CTreeCtrl@@8				; CTreeCtrl::`RTTI Class Hierarchy Descriptor'
PUBLIC	??_R2CTreeCtrl@@8				; CTreeCtrl::`RTTI Base Class Array'
PUBLIC	??_R1A@?0A@EA@CTreeCtrl@@8			; CTreeCtrl::`RTTI Base Class Descriptor at (0,-1,0,64)'
PUBLIC	??_7CTrTreeCtrl@@6B@				; CTrTreeCtrl::`vftable'
PUBLIC	??_C@_05CPODOPHN@?$CF4?44d@			; `string'
PUBLIC	??_C@_01OHGJGJJP@?$FL@				; `string'
PUBLIC	??_C@_01LBDDMOBJ@?$FN@				; `string'
PUBLIC	??_C@_0M@BBGPCCJB@?A?v?G?$KF?9?$LF?e?$LH?$KB?$LB?W@ ; `string'
PUBLIC	??_R4CTrTreeCtrl@@6B@				; CTrTreeCtrl::`RTTI Complete Object Locator'
PUBLIC	??_R0?AVCTrTreeCtrl@@@8				; CTrTreeCtrl `RTTI Type Descriptor'
PUBLIC	??_R3CTrTreeCtrl@@8				; CTrTreeCtrl::`RTTI Class Hierarchy Descriptor'
PUBLIC	??_R2CTrTreeCtrl@@8				; CTrTreeCtrl::`RTTI Base Class Array'
PUBLIC	??_R1A@?0A@EA@CTrTreeCtrl@@8			; CTrTreeCtrl::`RTTI Base Class Descriptor at (0,-1,0,64)'
EXTRN	??2@YAPAXI@Z:PROC				; operator new
EXTRN	??3@YAXPAX@Z:PROC				; operator delete
EXTRN	??3@YAXPAXI@Z:PROC				; operator delete
EXTRN	?__global_delete@@YAXPAXI@Z:PROC		; __global_delete
EXTRN	??_U@YAPAXI@Z:PROC				; operator new[]
EXTRN	??_V@YAXPAX@Z:PROC				; operator delete[]
EXTRN	__imp__RegisterWindowMessageA@4:PROC
EXTRN	__imp__SendMessageA@16:PROC
EXTRN	__imp__SetCapture@4:PROC
EXTRN	__imp__ReleaseCapture@0:PROC
EXTRN	__imp__EnableWindow@8:PROC
EXTRN	__imp__ClientToScreen@8:PROC
EXTRN	__imp__GetParent@4:PROC
EXTRN	__imp_??0?$CStringT@DV?$StrTraitMFC_DLL@DV?$ChTraitsCRT@D@ATL@@@@@ATL@@QAE@XZ:PROC
EXTRN	__imp_??0?$CStringT@DV?$StrTraitMFC_DLL@DV?$ChTraitsCRT@D@ATL@@@@@ATL@@QAE@ABV01@@Z:PROC
EXTRN	__imp_??0?$CStringT@DV?$StrTraitMFC_DLL@DV?$ChTraitsCRT@D@ATL@@@@@ATL@@QAE@PBD@Z:PROC
EXTRN	__imp_??1?$CStringT@DV?$StrTraitMFC_DLL@DV?$ChTraitsCRT@D@ATL@@@@@ATL@@QAE@XZ:PROC
EXTRN	__imp_??4?$CStringT@DV?$StrTraitMFC_DLL@DV?$ChTraitsCRT@D@ATL@@@@@ATL@@QAEAAV01@ABV01@@Z:PROC
EXTRN	__imp_??Y?$CStringT@DV?$StrTraitMFC_DLL@DV?$ChTraitsCRT@D@ATL@@@@@ATL@@QAEAAV01@PBD@Z:PROC
EXTRN	__imp_?Find@?$CStringT@DV?$StrTraitMFC_DLL@DV?$ChTraitsCRT@D@ATL@@@@@ATL@@QBEHPBDH@Z:PROC
EXTRN	__imp_?Mid@?$CStringT@DV?$StrTraitMFC_DLL@DV?$ChTraitsCRT@D@ATL@@@@@ATL@@QBE?AV12@HH@Z:PROC
EXTRN	__imp_?Format@?$CStringT@DV?$StrTraitMFC_DLL@DV?$ChTraitsCRT@D@ATL@@@@@ATL@@QAAXPBDZZ:PROC
EXTRN	?OnCmdMsg@CCmdTarget@@UAEHIHPAXPAUAFX_CMDHANDLERINFO@@@Z:PROC ; CCmdTarget::OnCmdMsg
EXTRN	?IsInvokeAllowed@CCmdTarget@@UAEHJ@Z:PROC	; CCmdTarget::IsInvokeAllowed
EXTRN	?GetDispatchIID@CCmdTarget@@UAEHPAU_GUID@@@Z:PROC ; CCmdTarget::GetDispatchIID
EXTRN	?GetTypeInfoCount@CCmdTarget@@UAEIXZ:PROC	; CCmdTarget::GetTypeInfoCount
EXTRN	?GetTypeLibCache@CCmdTarget@@UAEPAVCTypeLibCache@@XZ:PROC ; CCmdTarget::GetTypeLibCache
EXTRN	?GetTypeLib@CCmdTarget@@UAEJKPAPAUITypeLib@@@Z:PROC ; CCmdTarget::GetTypeLib
EXTRN	?GetCommandMap@CCmdTarget@@MBEPBUAFX_OLECMDMAP@@XZ:PROC ; CCmdTarget::GetCommandMap
EXTRN	?GetDispatchMap@CCmdTarget@@MBEPBUAFX_DISPMAP@@XZ:PROC ; CCmdTarget::GetDispatchMap
EXTRN	?GetConnectionMap@CCmdTarget@@MBEPBUAFX_CONNECTIONMAP@@XZ:PROC ; CCmdTarget::GetConnectionMap
EXTRN	?GetEventSinkMap@CCmdTarget@@MBEPBUAFX_EVENTSINKMAP@@XZ:PROC ; CCmdTarget::GetEventSinkMap
EXTRN	?OnCreateAggregates@CCmdTarget@@UAEHXZ:PROC	; CCmdTarget::OnCreateAggregates
EXTRN	?GetInterfaceHook@CCmdTarget@@UAEPAUIUnknown@@PBX@Z:PROC ; CCmdTarget::GetInterfaceHook
EXTRN	?GetExtraConnectionPoints@CCmdTarget@@MAEHPAVCPtrArray@@@Z:PROC ; CCmdTarget::GetExtraConnectionPoints
EXTRN	?GetConnectionHook@CCmdTarget@@MAEPAUIConnectionPoint@@ABU_GUID@@@Z:PROC ; CCmdTarget::GetConnectionHook
EXTRN	??0CWnd@@QAE@XZ:PROC				; CWnd::CWnd
EXTRN	?FromHandle@CWnd@@SGPAV1@PAUHWND__@@@Z:PROC	; CWnd::FromHandle
EXTRN	?PreSubclassWindow@CWnd@@UAEXXZ:PROC		; CWnd::PreSubclassWindow
EXTRN	?Create@CWnd@@UAEHPBD0KABUtagRECT@@PAV1@IPAUCCreateContext@@@Z:PROC ; CWnd::Create
EXTRN	?CreateEx@CWnd@@UAEHKPBD0KHHHHPAUHWND__@@PAUHMENU__@@PAX@Z:PROC ; CWnd::CreateEx
EXTRN	?CreateEx@CWnd@@UAEHKPBD0KABUtagRECT@@PAV1@IPAX@Z:PROC ; CWnd::CreateEx
EXTRN	?DestroyWindow@CWnd@@UAEHXZ:PROC		; CWnd::DestroyWindow
EXTRN	?PreCreateWindow@CWnd@@UAEHAAUtagCREATESTRUCTA@@@Z:PROC ; CWnd::PreCreateWindow
EXTRN	?CalcWindowRect@CWnd@@UAEXPAUtagRECT@@I@Z:PROC	; CWnd::CalcWindowRect
EXTRN	?GetMenu@CWnd@@UBEPAVCMenu@@XZ:PROC		; CWnd::GetMenu
EXTRN	?SetMenu@CWnd@@UAEHPAVCMenu@@@Z:PROC		; CWnd::SetMenu
EXTRN	?OnToolHitTest@CWnd@@UBEHVCPoint@@PAUtagTOOLINFOA@@@Z:PROC ; CWnd::OnToolHitTest
EXTRN	?GetScrollBarCtrl@CWnd@@UBEPAVCScrollBar@@H@Z:PROC ; CWnd::GetScrollBarCtrl
EXTRN	?WinHelpA@CWnd@@UAEXKI@Z:PROC			; CWnd::WinHelpA
EXTRN	?HtmlHelpA@CWnd@@UAEXKI@Z:PROC			; CWnd::HtmlHelpA
EXTRN	?WinHelpInternal@CWnd@@UAEXKI@Z:PROC		; CWnd::WinHelpInternal
EXTRN	?ContinueModal@CWnd@@UAEHXZ:PROC		; CWnd::ContinueModal
EXTRN	?EndModalLoop@CWnd@@UAEXH@Z:PROC		; CWnd::EndModalLoop
EXTRN	?OnDrawIconicThumbnailOrLivePreview@CWnd@@UAEXAAVCDC@@VCRect@@VCSize@@HAAH@Z:PROC ; CWnd::OnDrawIconicThumbnailOrLivePreview
EXTRN	?GetInterfaceMap@CWnd@@MBEPBUAFX_INTERFACEMAP@@XZ:PROC ; CWnd::GetInterfaceMap
EXTRN	?EnsureStdObj@CWnd@@UAEJXZ:PROC			; CWnd::EnsureStdObj
EXTRN	?get_accParent@CWnd@@UAEJPAPAUIDispatch@@@Z:PROC ; CWnd::get_accParent
EXTRN	?get_accChildCount@CWnd@@UAEJPAJ@Z:PROC		; CWnd::get_accChildCount
EXTRN	?get_accChild@CWnd@@UAEJUtagVARIANT@@PAPAUIDispatch@@@Z:PROC ; CWnd::get_accChild
EXTRN	?get_accName@CWnd@@UAEJUtagVARIANT@@PAPA_W@Z:PROC ; CWnd::get_accName
EXTRN	?get_accValue@CWnd@@UAEJUtagVARIANT@@PAPA_W@Z:PROC ; CWnd::get_accValue
EXTRN	?get_accDescription@CWnd@@UAEJUtagVARIANT@@PAPA_W@Z:PROC ; CWnd::get_accDescription
EXTRN	?get_accRole@CWnd@@UAEJUtagVARIANT@@PAU2@@Z:PROC ; CWnd::get_accRole
EXTRN	?get_accState@CWnd@@UAEJUtagVARIANT@@PAU2@@Z:PROC ; CWnd::get_accState
EXTRN	?get_accHelp@CWnd@@UAEJUtagVARIANT@@PAPA_W@Z:PROC ; CWnd::get_accHelp
EXTRN	?get_accHelpTopic@CWnd@@UAEJPAPA_WUtagVARIANT@@PAJ@Z:PROC ; CWnd::get_accHelpTopic
EXTRN	?get_accKeyboardShortcut@CWnd@@UAEJUtagVARIANT@@PAPA_W@Z:PROC ; CWnd::get_accKeyboardShortcut
EXTRN	?get_accFocus@CWnd@@UAEJPAUtagVARIANT@@@Z:PROC	; CWnd::get_accFocus
EXTRN	?get_accSelection@CWnd@@UAEJPAUtagVARIANT@@@Z:PROC ; CWnd::get_accSelection
EXTRN	?get_accDefaultAction@CWnd@@UAEJUtagVARIANT@@PAPA_W@Z:PROC ; CWnd::get_accDefaultAction
EXTRN	?accSelect@CWnd@@UAEJJUtagVARIANT@@@Z:PROC	; CWnd::accSelect
EXTRN	?accLocation@CWnd@@UAEJPAJ000UtagVARIANT@@@Z:PROC ; CWnd::accLocation
EXTRN	?accNavigate@CWnd@@UAEJJUtagVARIANT@@PAU2@@Z:PROC ; CWnd::accNavigate
EXTRN	?accHitTest@CWnd@@UAEJJJPAUtagVARIANT@@@Z:PROC	; CWnd::accHitTest
EXTRN	?accDoDefaultAction@CWnd@@UAEJUtagVARIANT@@@Z:PROC ; CWnd::accDoDefaultAction
EXTRN	?put_accName@CWnd@@UAEJUtagVARIANT@@PA_W@Z:PROC	; CWnd::put_accName
EXTRN	?put_accValue@CWnd@@UAEJUtagVARIANT@@PA_W@Z:PROC ; CWnd::put_accValue
EXTRN	?SetProxy@CWnd@@UAEJPAUIAccessibleProxy@@@Z:PROC ; CWnd::SetProxy
EXTRN	?CreateAccessibleProxy@CWnd@@UAEJIJPAJ@Z:PROC	; CWnd::CreateAccessibleProxy
EXTRN	?OnCommand@CWnd@@MAEHIJ@Z:PROC			; CWnd::OnCommand
EXTRN	?OnNotify@CWnd@@MAEHIJPAJ@Z:PROC		; CWnd::OnNotify
EXTRN	?GetSuperWndProcAddr@CWnd@@MAEPAP6GJPAUHWND__@@IIJ@ZXZ:PROC ; CWnd::GetSuperWndProcAddr
EXTRN	?PreTranslateMessage@CWnd@@UAEHPAUtagMSG@@@Z:PROC ; CWnd::PreTranslateMessage
EXTRN	?OnAmbientProperty@CWnd@@UAEHPAVCOleControlSite@@JPAUtagVARIANT@@@Z:PROC ; CWnd::OnAmbientProperty
EXTRN	?WindowProc@CWnd@@MAEJIIJ@Z:PROC		; CWnd::WindowProc
EXTRN	?OnWndMsg@CWnd@@MAEHIIJPAJ@Z:PROC		; CWnd::OnWndMsg
EXTRN	?Default@CWnd@@IAEJXZ:PROC			; CWnd::Default
EXTRN	?DefWindowProcA@CWnd@@MAEJIIJ@Z:PROC		; CWnd::DefWindowProcA
EXTRN	?PostNcDestroy@CWnd@@MAEXXZ:PROC		; CWnd::PostNcDestroy
EXTRN	?OnChildNotify@CWnd@@MAEHIIJPAJ@Z:PROC		; CWnd::OnChildNotify
EXTRN	?OnTouchInputs@CWnd@@MAEHIPAUtagTOUCHINPUT@@@Z:PROC ; CWnd::OnTouchInputs
EXTRN	?OnTouchInput@CWnd@@MAEHVCPoint@@HHPAUtagTOUCHINPUT@@@Z:PROC ; CWnd::OnTouchInput
EXTRN	?GetGestureStatus@CWnd@@MAEKVCPoint@@@Z:PROC	; CWnd::GetGestureStatus
EXTRN	?OnGestureZoom@CWnd@@MAEHVCPoint@@J@Z:PROC	; CWnd::OnGestureZoom
EXTRN	?OnGesturePan@CWnd@@MAEHVCPoint@@0@Z:PROC	; CWnd::OnGesturePan
EXTRN	?OnGestureRotate@CWnd@@MAEHVCPoint@@N@Z:PROC	; CWnd::OnGestureRotate
EXTRN	?OnGestureTwoFingerTap@CWnd@@MAEHVCPoint@@@Z:PROC ; CWnd::OnGestureTwoFingerTap
EXTRN	?OnGesturePressAndTap@CWnd@@MAEHVCPoint@@J@Z:PROC ; CWnd::OnGesturePressAndTap
EXTRN	?ResizeDynamicLayout@CWnd@@MAEXXZ:PROC		; CWnd::ResizeDynamicLayout
EXTRN	?CheckAutoCenter@CWnd@@UAEHXZ:PROC		; CWnd::CheckAutoCenter
EXTRN	?IsFrameWnd@CWnd@@UBEHXZ:PROC			; CWnd::IsFrameWnd
EXTRN	?OnFinalRelease@CWnd@@UAEXXZ:PROC		; CWnd::OnFinalRelease
EXTRN	?CreateControlContainer@CWnd@@MAEHPAPAVCOleControlContainer@@@Z:PROC ; CWnd::CreateControlContainer
EXTRN	?CreateControlSite@CWnd@@MAEHPAVCOleControlContainer@@PAPAVCOleControlSite@@IABU_GUID@@@Z:PROC ; CWnd::CreateControlSite
EXTRN	?SetOccDialogInfo@CWnd@@MAEHPAU_AFX_OCC_DIALOG_INFO@@@Z:PROC ; CWnd::SetOccDialogInfo
EXTRN	?GetOccDialogInfo@CWnd@@MAEPAU_AFX_OCC_DIALOG_INFO@@XZ:PROC ; CWnd::GetOccDialogInfo
EXTRN	?GetRuntimeClass@CTreeCtrl@@UBEPAUCRuntimeClass@@XZ:PROC ; CTreeCtrl::GetRuntimeClass
EXTRN	?Create@CTreeCtrl@@QAEHKABUtagRECT@@PAVCWnd@@I@Z:PROC ; CTreeCtrl::Create
EXTRN	?GetItemText@CTreeCtrl@@QBE?AV?$CStringT@DV?$StrTraitMFC_DLL@DV?$ChTraitsCRT@D@ATL@@@@@ATL@@PAU_TREEITEM@@@Z:PROC ; CTreeCtrl::GetItemText
EXTRN	?GetItemData@CTreeCtrl@@QBEKPAU_TREEITEM@@@Z:PROC ; CTreeCtrl::GetItemData
EXTRN	?ItemHasChildren@CTreeCtrl@@QBEHPAU_TREEITEM@@@Z:PROC ; CTreeCtrl::ItemHasChildren
EXTRN	?HitTest@CTreeCtrl@@QBEPAU_TREEITEM@@VCPoint@@PAI@Z:PROC ; CTreeCtrl::HitTest
EXTRN	??1CTreeCtrl@@UAE@XZ:PROC			; CTreeCtrl::~CTreeCtrl
EXTRN	?GetThisMessageMap@CTreeCtrl@@KGPBUAFX_MSGMAP@@XZ:PROC ; CTreeCtrl::GetThisMessageMap
EXTRN	?GetMessageMap@CTreeCtrl@@MBEPBUAFX_MSGMAP@@XZ:PROC ; CTreeCtrl::GetMessageMap
EXTRN	??_ECTreeCtrl@@UAEPAXI@Z:PROC			; CTreeCtrl::`vector deleting destructor'
EXTRN	??_ECTrTreeCtrl@@UAEPAXI@Z:PROC			; CTrTreeCtrl::`vector deleting destructor'
EXTRN	@__security_check_cookie@4:PROC
EXTRN	___CxxFrameHandler3:PROC
EXTRN	??_7type_info@@6B@:QWORD			; type_info::`vftable'
EXTRN	___security_cookie:DWORD
_BSS	SEGMENT
?RMSG_DRAGSTART@@3IB DD 01H DUP (?)			; RMSG_DRAGSTART
?RMSG_DRAGEND@@3IB DD 01H DUP (?)			; RMSG_DRAGEND
?RMSG_OPENNEWMAP@@3IB DD 01H DUP (?)			; RMSG_OPENNEWMAP
_BSS	ENDS
CRT$XCU	SEGMENT
?RMSG_DRAGSTART$initializer$@@3P6AXXZA DD FLAT:??__ERMSG_DRAGSTART@@YAXXZ ; RMSG_DRAGSTART$initializer$
CRT$XCU	ENDS
;	COMDAT ??_R1A@?0A@EA@CTrTreeCtrl@@8
rdata$r	SEGMENT
??_R1A@?0A@EA@CTrTreeCtrl@@8 DD FLAT:??_R0?AVCTrTreeCtrl@@@8 ; CTrTreeCtrl::`RTTI Base Class Descriptor at (0,-1,0,64)'
	DD	04H
	DD	00H
	DD	0ffffffffH
	DD	00H
	DD	040H
	DD	FLAT:??_R3CTrTreeCtrl@@8
rdata$r	ENDS
;	COMDAT ??_R2CTrTreeCtrl@@8
rdata$r	SEGMENT
??_R2CTrTreeCtrl@@8 DD FLAT:??_R1A@?0A@EA@CTrTreeCtrl@@8 ; CTrTreeCtrl::`RTTI Base Class Array'
	DD	FLAT:??_R1A@?0A@EA@CTreeCtrl@@8
	DD	FLAT:??_R1A@?0A@EA@CWnd@@8
	DD	FLAT:??_R1A@?0A@EA@CCmdTarget@@8
	DD	FLAT:??_R1A@?0A@EA@CObject@@8
rdata$r	ENDS
;	COMDAT ??_R3CTrTreeCtrl@@8
rdata$r	SEGMENT
??_R3CTrTreeCtrl@@8 DD 00H				; CTrTreeCtrl::`RTTI Class Hierarchy Descriptor'
	DD	00H
	DD	05H
	DD	FLAT:??_R2CTrTreeCtrl@@8
rdata$r	ENDS
;	COMDAT ??_R0?AVCTrTreeCtrl@@@8
data$rs	SEGMENT
??_R0?AVCTrTreeCtrl@@@8 DD FLAT:??_7type_info@@6B@	; CTrTreeCtrl `RTTI Type Descriptor'
	DD	00H
	DB	'.?AVCTrTreeCtrl@@', 00H
data$rs	ENDS
;	COMDAT ??_R4CTrTreeCtrl@@6B@
rdata$r	SEGMENT
??_R4CTrTreeCtrl@@6B@ DD 00H				; CTrTreeCtrl::`RTTI Complete Object Locator'
	DD	00H
	DD	00H
	DD	FLAT:??_R0?AVCTrTreeCtrl@@@8
	DD	FLAT:??_R3CTrTreeCtrl@@8
rdata$r	ENDS
;	COMDAT ??_C@_0M@BBGPCCJB@?A?v?G?$KF?9?$LF?e?$LH?$KB?$LB?W@
CONST	SEGMENT
??_C@_0M@BBGPCCJB@?A?v?G?$KF?9?$LF?e?$LH?$KB?$LB?W@ DB 0c1H, 0f6H, 0c7H, 0a5H
	DB	'-', 0b5H, 0e5H, 0b7H, 0a1H, 0b1H, 0d7H, 00H	; `string'
CONST	ENDS
;	COMDAT ??_C@_01LBDDMOBJ@?$FN@
CONST	SEGMENT
??_C@_01LBDDMOBJ@?$FN@ DB ']', 00H			; `string'
CONST	ENDS
;	COMDAT ??_C@_01OHGJGJJP@?$FL@
CONST	SEGMENT
??_C@_01OHGJGJJP@?$FL@ DB '[', 00H			; `string'
CONST	ENDS
;	COMDAT ??_C@_05CPODOPHN@?$CF4?44d@
CONST	SEGMENT
??_C@_05CPODOPHN@?$CF4?44d@ DB '%4.4d', 00H		; `string'
CONST	ENDS
;	COMDAT ?messageMap@?1??GetThisMessageMap@CTrTreeCtrl@@KGPBUAFX_MSGMAP@@XZ@4U3@B
CONST	SEGMENT
?messageMap@?1??GetThisMessageMap@CTrTreeCtrl@@KGPBUAFX_MSGMAP@@XZ@4U3@B DD FLAT:?GetThisMessageMap@CTreeCtrl@@KGPBUAFX_MSGMAP@@XZ ; `CTrTreeCtrl::GetThisMessageMap'::`2'::messageMap
	DD	FLAT:?_messageEntries@?1??GetThisMessageMap@CTrTreeCtrl@@KGPBUAFX_MSGMAP@@XZ@4QBUAFX_MSGMAP_ENTRY@@B
CONST	ENDS
;	COMDAT ?_messageEntries@?1??GetThisMessageMap@CTrTreeCtrl@@KGPBUAFX_MSGMAP@@XZ@4QBUAFX_MSGMAP_ENTRY@@B
CONST	SEGMENT
?_messageEntries@?1??GetThisMessageMap@CTrTreeCtrl@@KGPBUAFX_MSGMAP@@XZ@4QBUAFX_MSGMAP_ENTRY@@B DD 0bc4eH ; `CTrTreeCtrl::GetThisMessageMap'::`2'::_messageEntries
	DD	0fffdH
	DD	00H
	DD	00H
	DD	03eH
	DD	FLAT:?OnDblclk@CTrTreeCtrl@@IAEXPAUtagNMHDR@@PAJ@Z
	DD	0bc4eH
	DD	0fffeH
	DD	00H
	DD	00H
	DD	03eH
	DD	FLAT:?OnClick@CTrTreeCtrl@@IAEXPAUtagNMHDR@@PAJ@Z
	DD	0bc4eH
	DD	0fe6eH
	DD	00H
	DD	00H
	DD	03eH
	DD	FLAT:?OnSelchanged@CTrTreeCtrl@@IAEXPAUtagNMHDR@@PAJ@Z
	DD	0201H
	DD	00H
	DD	00H
	DD	00H
	DD	036H
	DD	FLAT:?OnLButtonDown@CTrTreeCtrl@@IAEXIVCPoint@@@Z
	DD	0204H
	DD	00H
	DD	00H
	DD	00H
	DD	036H
	DD	FLAT:?OnRButtonDown@CTrTreeCtrl@@IAEXIVCPoint@@@Z
	DD	0bc4eH
	DD	0fe69H
	DD	00H
	DD	00H
	DD	03eH
	DD	FLAT:?OnBegindrag@CTrTreeCtrl@@IAEXPAUtagNMHDR@@PAJ@Z
	DD	0202H
	DD	00H
	DD	00H
	DD	00H
	DD	036H
	DD	FLAT:?OnLButtonUp@CTrTreeCtrl@@IAEXIVCPoint@@@Z
	DD	0200H
	DD	00H
	DD	00H
	DD	00H
	DD	036H
	DD	FLAT:?OnMouseMove@CTrTreeCtrl@@IAEXIVCPoint@@@Z
	DD	00H
	DD	00H
	DD	00H
	DD	00H
	DD	00H
	DD	00H
CONST	ENDS
;	COMDAT ??_7CTrTreeCtrl@@6B@
CONST	SEGMENT
??_7CTrTreeCtrl@@6B@ DD FLAT:??_R4CTrTreeCtrl@@6B@	; CTrTreeCtrl::`vftable'
	DD	FLAT:?GetRuntimeClass@CTreeCtrl@@UBEPAUCRuntimeClass@@XZ
	DD	FLAT:??_ECTrTreeCtrl@@UAEPAXI@Z
	DD	FLAT:?Serialize@CObject@@UAEXAAVCArchive@@@Z
	DD	FLAT:?AssertValid@CObject@@UBEXXZ
	DD	FLAT:?Dump@CObject@@UBEXAAVCDumpContext@@@Z
	DD	FLAT:?OnCmdMsg@CCmdTarget@@UAEHIHPAXPAUAFX_CMDHANDLERINFO@@@Z
	DD	FLAT:?OnFinalRelease@CWnd@@UAEXXZ
	DD	FLAT:?IsInvokeAllowed@CCmdTarget@@UAEHJ@Z
	DD	FLAT:?GetDispatchIID@CCmdTarget@@UAEHPAU_GUID@@@Z
	DD	FLAT:?GetTypeInfoCount@CCmdTarget@@UAEIXZ
	DD	FLAT:?GetTypeLibCache@CCmdTarget@@UAEPAVCTypeLibCache@@XZ
	DD	FLAT:?GetTypeLib@CCmdTarget@@UAEJKPAPAUITypeLib@@@Z
	DD	FLAT:?GetMessageMap@CTrTreeCtrl@@MBEPBUAFX_MSGMAP@@XZ
	DD	FLAT:?GetCommandMap@CCmdTarget@@MBEPBUAFX_OLECMDMAP@@XZ
	DD	FLAT:?GetDispatchMap@CCmdTarget@@MBEPBUAFX_DISPMAP@@XZ
	DD	FLAT:?GetConnectionMap@CCmdTarget@@MBEPBUAFX_CONNECTIONMAP@@XZ
	DD	FLAT:?GetInterfaceMap@CWnd@@MBEPBUAFX_INTERFACEMAP@@XZ
	DD	FLAT:?GetEventSinkMap@CCmdTarget@@MBEPBUAFX_EVENTSINKMAP@@XZ
	DD	FLAT:?OnCreateAggregates@CCmdTarget@@UAEHXZ
	DD	FLAT:?GetInterfaceHook@CCmdTarget@@UAEPAUIUnknown@@PBX@Z
	DD	FLAT:?GetExtraConnectionPoints@CCmdTarget@@MAEHPAVCPtrArray@@@Z
	DD	FLAT:?GetConnectionHook@CCmdTarget@@MAEPAUIConnectionPoint@@ABU_GUID@@@Z
	DD	FLAT:?PreSubclassWindow@CWnd@@UAEXXZ
	DD	FLAT:?Create@CWnd@@UAEHPBD0KABUtagRECT@@PAV1@IPAUCCreateContext@@@Z
	DD	FLAT:?CreateEx@CWnd@@UAEHKPBD0KABUtagRECT@@PAV1@IPAX@Z
	DD	FLAT:?CreateEx@CWnd@@UAEHKPBD0KHHHHPAUHWND__@@PAUHMENU__@@PAX@Z
	DD	FLAT:?DestroyWindow@CWnd@@UAEHXZ
	DD	FLAT:?PreCreateWindow@CWnd@@UAEHAAUtagCREATESTRUCTA@@@Z
	DD	FLAT:?CalcWindowRect@CWnd@@UAEXPAUtagRECT@@I@Z
	DD	FLAT:?GetMenu@CWnd@@UBEPAVCMenu@@XZ
	DD	FLAT:?SetMenu@CWnd@@UAEHPAVCMenu@@@Z
	DD	FLAT:?OnToolHitTest@CWnd@@UBEHVCPoint@@PAUtagTOOLINFOA@@@Z
	DD	FLAT:?GetScrollBarCtrl@CWnd@@UBEPAVCScrollBar@@H@Z
	DD	FLAT:?WinHelpA@CWnd@@UAEXKI@Z
	DD	FLAT:?HtmlHelpA@CWnd@@UAEXKI@Z
	DD	FLAT:?WinHelpInternal@CWnd@@UAEXKI@Z
	DD	FLAT:?ContinueModal@CWnd@@UAEHXZ
	DD	FLAT:?EndModalLoop@CWnd@@UAEXH@Z
	DD	FLAT:?OnDrawIconicThumbnailOrLivePreview@CWnd@@UAEXAAVCDC@@VCRect@@VCSize@@HAAH@Z
	DD	FLAT:?EnsureStdObj@CWnd@@UAEJXZ
	DD	FLAT:?get_accParent@CWnd@@UAEJPAPAUIDispatch@@@Z
	DD	FLAT:?get_accChildCount@CWnd@@UAEJPAJ@Z
	DD	FLAT:?get_accChild@CWnd@@UAEJUtagVARIANT@@PAPAUIDispatch@@@Z
	DD	FLAT:?get_accName@CWnd@@UAEJUtagVARIANT@@PAPA_W@Z
	DD	FLAT:?get_accValue@CWnd@@UAEJUtagVARIANT@@PAPA_W@Z
	DD	FLAT:?get_accDescription@CWnd@@UAEJUtagVARIANT@@PAPA_W@Z
	DD	FLAT:?get_accRole@CWnd@@UAEJUtagVARIANT@@PAU2@@Z
	DD	FLAT:?get_accState@CWnd@@UAEJUtagVARIANT@@PAU2@@Z
	DD	FLAT:?get_accHelp@CWnd@@UAEJUtagVARIANT@@PAPA_W@Z
	DD	FLAT:?get_accHelpTopic@CWnd@@UAEJPAPA_WUtagVARIANT@@PAJ@Z
	DD	FLAT:?get_accKeyboardShortcut@CWnd@@UAEJUtagVARIANT@@PAPA_W@Z
	DD	FLAT:?get_accFocus@CWnd@@UAEJPAUtagVARIANT@@@Z
	DD	FLAT:?get_accSelection@CWnd@@UAEJPAUtagVARIANT@@@Z
	DD	FLAT:?get_accDefaultAction@CWnd@@UAEJUtagVARIANT@@PAPA_W@Z
	DD	FLAT:?accSelect@CWnd@@UAEJJUtagVARIANT@@@Z
	DD	FLAT:?accLocation@CWnd@@UAEJPAJ000UtagVARIANT@@@Z
	DD	FLAT:?accNavigate@CWnd@@UAEJJUtagVARIANT@@PAU2@@Z
	DD	FLAT:?accHitTest@CWnd@@UAEJJJPAUtagVARIANT@@@Z
	DD	FLAT:?accDoDefaultAction@CWnd@@UAEJUtagVARIANT@@@Z
	DD	FLAT:?put_accName@CWnd@@UAEJUtagVARIANT@@PA_W@Z
	DD	FLAT:?put_accValue@CWnd@@UAEJUtagVARIANT@@PA_W@Z
	DD	FLAT:?SetProxy@CWnd@@UAEJPAUIAccessibleProxy@@@Z
	DD	FLAT:?CreateAccessibleProxy@CWnd@@UAEJIJPAJ@Z
	DD	FLAT:?OnCommand@CWnd@@MAEHIJ@Z
	DD	FLAT:?OnNotify@CWnd@@MAEHIJPAJ@Z
	DD	FLAT:?GetSuperWndProcAddr@CWnd@@MAEPAP6GJPAUHWND__@@IIJ@ZXZ
	DD	FLAT:?DoDataExchange@CWnd@@MAEXPAVCDataExchange@@@Z
	DD	FLAT:?BeginModalState@CWnd@@UAEXXZ
	DD	FLAT:?EndModalState@CWnd@@UAEXXZ
	DD	FLAT:?PreTranslateMessage@CWnd@@UAEHPAUtagMSG@@@Z
	DD	FLAT:?OnAmbientProperty@CWnd@@UAEHPAVCOleControlSite@@JPAUtagVARIANT@@@Z
	DD	FLAT:?WindowProc@CWnd@@MAEJIIJ@Z
	DD	FLAT:?OnWndMsg@CWnd@@MAEHIIJPAJ@Z
	DD	FLAT:?DefWindowProcA@CWnd@@MAEJIIJ@Z
	DD	FLAT:?PostNcDestroy@CWnd@@MAEXXZ
	DD	FLAT:?OnChildNotify@CWnd@@MAEHIIJPAJ@Z
	DD	FLAT:?OnTouchInputs@CWnd@@MAEHIPAUtagTOUCHINPUT@@@Z
	DD	FLAT:?OnTouchInput@CWnd@@MAEHVCPoint@@HHPAUtagTOUCHINPUT@@@Z
	DD	FLAT:?GetGestureStatus@CWnd@@MAEKVCPoint@@@Z
	DD	FLAT:?OnGestureZoom@CWnd@@MAEHVCPoint@@J@Z
	DD	FLAT:?OnGesturePan@CWnd@@MAEHVCPoint@@0@Z
	DD	FLAT:?OnGestureRotate@CWnd@@MAEHVCPoint@@N@Z
	DD	FLAT:?OnGestureTwoFingerTap@CWnd@@MAEHVCPoint@@@Z
	DD	FLAT:?OnGesturePressAndTap@CWnd@@MAEHVCPoint@@J@Z
	DD	FLAT:?ResizeDynamicLayout@CWnd@@MAEXXZ
	DD	FLAT:?CheckAutoCenter@CWnd@@UAEHXZ
	DD	FLAT:?IsFrameWnd@CWnd@@UBEHXZ
	DD	FLAT:?CreateControlContainer@CWnd@@MAEHPAPAVCOleControlContainer@@@Z
	DD	FLAT:?CreateControlSite@CWnd@@MAEHPAVCOleControlContainer@@PAPAVCOleControlSite@@IABU_GUID@@@Z
	DD	FLAT:?SetOccDialogInfo@CWnd@@MAEHPAU_AFX_OCC_DIALOG_INFO@@@Z
	DD	FLAT:?GetOccDialogInfo@CWnd@@MAEPAU_AFX_OCC_DIALOG_INFO@@XZ
CONST	ENDS
;	COMDAT ??_R1A@?0A@EA@CTreeCtrl@@8
rdata$r	SEGMENT
??_R1A@?0A@EA@CTreeCtrl@@8 DD FLAT:??_R0?AVCTreeCtrl@@@8 ; CTreeCtrl::`RTTI Base Class Descriptor at (0,-1,0,64)'
	DD	03H
	DD	00H
	DD	0ffffffffH
	DD	00H
	DD	040H
	DD	FLAT:??_R3CTreeCtrl@@8
rdata$r	ENDS
;	COMDAT ??_R2CTreeCtrl@@8
rdata$r	SEGMENT
??_R2CTreeCtrl@@8 DD FLAT:??_R1A@?0A@EA@CTreeCtrl@@8	; CTreeCtrl::`RTTI Base Class Array'
	DD	FLAT:??_R1A@?0A@EA@CWnd@@8
	DD	FLAT:??_R1A@?0A@EA@CCmdTarget@@8
	DD	FLAT:??_R1A@?0A@EA@CObject@@8
rdata$r	ENDS
;	COMDAT ??_R3CTreeCtrl@@8
rdata$r	SEGMENT
??_R3CTreeCtrl@@8 DD 00H				; CTreeCtrl::`RTTI Class Hierarchy Descriptor'
	DD	00H
	DD	04H
	DD	FLAT:??_R2CTreeCtrl@@8
rdata$r	ENDS
;	COMDAT ??_R0?AVCTreeCtrl@@@8
data$rs	SEGMENT
??_R0?AVCTreeCtrl@@@8 DD FLAT:??_7type_info@@6B@	; CTreeCtrl `RTTI Type Descriptor'
	DD	00H
	DB	'.?AVCTreeCtrl@@', 00H
data$rs	ENDS
;	COMDAT ??_R4CTreeCtrl@@6B@
rdata$r	SEGMENT
??_R4CTreeCtrl@@6B@ DD 00H				; CTreeCtrl::`RTTI Complete Object Locator'
	DD	00H
	DD	00H
	DD	FLAT:??_R0?AVCTreeCtrl@@@8
	DD	FLAT:??_R3CTreeCtrl@@8
rdata$r	ENDS
;	COMDAT ??_R2CCmdTarget@@8
rdata$r	SEGMENT
??_R2CCmdTarget@@8 DD FLAT:??_R1A@?0A@EA@CCmdTarget@@8	; CCmdTarget::`RTTI Base Class Array'
	DD	FLAT:??_R1A@?0A@EA@CObject@@8
rdata$r	ENDS
;	COMDAT ??_R3CCmdTarget@@8
rdata$r	SEGMENT
??_R3CCmdTarget@@8 DD 00H				; CCmdTarget::`RTTI Class Hierarchy Descriptor'
	DD	00H
	DD	02H
	DD	FLAT:??_R2CCmdTarget@@8
rdata$r	ENDS
;	COMDAT ??_R0?AVCCmdTarget@@@8
data$rs	SEGMENT
??_R0?AVCCmdTarget@@@8 DD FLAT:??_7type_info@@6B@	; CCmdTarget `RTTI Type Descriptor'
	DD	00H
	DB	'.?AVCCmdTarget@@', 00H
data$rs	ENDS
;	COMDAT ??_R1A@?0A@EA@CCmdTarget@@8
rdata$r	SEGMENT
??_R1A@?0A@EA@CCmdTarget@@8 DD FLAT:??_R0?AVCCmdTarget@@@8 ; CCmdTarget::`RTTI Base Class Descriptor at (0,-1,0,64)'
	DD	01H
	DD	00H
	DD	0ffffffffH
	DD	00H
	DD	040H
	DD	FLAT:??_R3CCmdTarget@@8
rdata$r	ENDS
;	COMDAT ??_R2CWnd@@8
rdata$r	SEGMENT
??_R2CWnd@@8 DD	FLAT:??_R1A@?0A@EA@CWnd@@8		; CWnd::`RTTI Base Class Array'
	DD	FLAT:??_R1A@?0A@EA@CCmdTarget@@8
	DD	FLAT:??_R1A@?0A@EA@CObject@@8
rdata$r	ENDS
;	COMDAT ??_R3CWnd@@8
rdata$r	SEGMENT
??_R3CWnd@@8 DD	00H					; CWnd::`RTTI Class Hierarchy Descriptor'
	DD	00H
	DD	03H
	DD	FLAT:??_R2CWnd@@8
rdata$r	ENDS
;	COMDAT ??_R0?AVCWnd@@@8
data$rs	SEGMENT
??_R0?AVCWnd@@@8 DD FLAT:??_7type_info@@6B@		; CWnd `RTTI Type Descriptor'
	DD	00H
	DB	'.?AVCWnd@@', 00H
data$rs	ENDS
;	COMDAT ??_R1A@?0A@EA@CWnd@@8
rdata$r	SEGMENT
??_R1A@?0A@EA@CWnd@@8 DD FLAT:??_R0?AVCWnd@@@8		; CWnd::`RTTI Base Class Descriptor at (0,-1,0,64)'
	DD	02H
	DD	00H
	DD	0ffffffffH
	DD	00H
	DD	040H
	DD	FLAT:??_R3CWnd@@8
rdata$r	ENDS
;	COMDAT ??_R1A@?0A@EA@CObject@@8
rdata$r	SEGMENT
??_R1A@?0A@EA@CObject@@8 DD FLAT:??_R0?AVCObject@@@8	; CObject::`RTTI Base Class Descriptor at (0,-1,0,64)'
	DD	00H
	DD	00H
	DD	0ffffffffH
	DD	00H
	DD	040H
	DD	FLAT:??_R3CObject@@8
rdata$r	ENDS
;	COMDAT ??_R2CObject@@8
rdata$r	SEGMENT
??_R2CObject@@8 DD FLAT:??_R1A@?0A@EA@CObject@@8	; CObject::`RTTI Base Class Array'
rdata$r	ENDS
;	COMDAT ??_R3CObject@@8
rdata$r	SEGMENT
??_R3CObject@@8 DD 00H					; CObject::`RTTI Class Hierarchy Descriptor'
	DD	00H
	DD	01H
	DD	FLAT:??_R2CObject@@8
rdata$r	ENDS
;	COMDAT ??_R0?AVCObject@@@8
data$rs	SEGMENT
??_R0?AVCObject@@@8 DD FLAT:??_7type_info@@6B@		; CObject `RTTI Type Descriptor'
	DD	00H
	DB	'.?AVCObject@@', 00H
data$rs	ENDS
;	COMDAT ??_C@_01GBGANLPD@0@
CONST	SEGMENT
??_C@_01GBGANLPD@0@ DB '0', 00H				; `string'
CONST	ENDS
;	COMDAT ??_7CTreeCtrl@@6B@
CONST	SEGMENT
??_7CTreeCtrl@@6B@ DD FLAT:??_R4CTreeCtrl@@6B@		; CTreeCtrl::`vftable'
	DD	FLAT:?GetRuntimeClass@CTreeCtrl@@UBEPAUCRuntimeClass@@XZ
	DD	FLAT:??_ECTreeCtrl@@UAEPAXI@Z
	DD	FLAT:?Serialize@CObject@@UAEXAAVCArchive@@@Z
	DD	FLAT:?AssertValid@CObject@@UBEXXZ
	DD	FLAT:?Dump@CObject@@UBEXAAVCDumpContext@@@Z
	DD	FLAT:?OnCmdMsg@CCmdTarget@@UAEHIHPAXPAUAFX_CMDHANDLERINFO@@@Z
	DD	FLAT:?OnFinalRelease@CWnd@@UAEXXZ
	DD	FLAT:?IsInvokeAllowed@CCmdTarget@@UAEHJ@Z
	DD	FLAT:?GetDispatchIID@CCmdTarget@@UAEHPAU_GUID@@@Z
	DD	FLAT:?GetTypeInfoCount@CCmdTarget@@UAEIXZ
	DD	FLAT:?GetTypeLibCache@CCmdTarget@@UAEPAVCTypeLibCache@@XZ
	DD	FLAT:?GetTypeLib@CCmdTarget@@UAEJKPAPAUITypeLib@@@Z
	DD	FLAT:?GetMessageMap@CTreeCtrl@@MBEPBUAFX_MSGMAP@@XZ
	DD	FLAT:?GetCommandMap@CCmdTarget@@MBEPBUAFX_OLECMDMAP@@XZ
	DD	FLAT:?GetDispatchMap@CCmdTarget@@MBEPBUAFX_DISPMAP@@XZ
	DD	FLAT:?GetConnectionMap@CCmdTarget@@MBEPBUAFX_CONNECTIONMAP@@XZ
	DD	FLAT:?GetInterfaceMap@CWnd@@MBEPBUAFX_INTERFACEMAP@@XZ
	DD	FLAT:?GetEventSinkMap@CCmdTarget@@MBEPBUAFX_EVENTSINKMAP@@XZ
	DD	FLAT:?OnCreateAggregates@CCmdTarget@@UAEHXZ
	DD	FLAT:?GetInterfaceHook@CCmdTarget@@UAEPAUIUnknown@@PBX@Z
	DD	FLAT:?GetExtraConnectionPoints@CCmdTarget@@MAEHPAVCPtrArray@@@Z
	DD	FLAT:?GetConnectionHook@CCmdTarget@@MAEPAUIConnectionPoint@@ABU_GUID@@@Z
	DD	FLAT:?PreSubclassWindow@CWnd@@UAEXXZ
	DD	FLAT:?Create@CWnd@@UAEHPBD0KABUtagRECT@@PAV1@IPAUCCreateContext@@@Z
	DD	FLAT:?CreateEx@CWnd@@UAEHKPBD0KABUtagRECT@@PAV1@IPAX@Z
	DD	FLAT:?CreateEx@CWnd@@UAEHKPBD0KHHHHPAUHWND__@@PAUHMENU__@@PAX@Z
	DD	FLAT:?DestroyWindow@CWnd@@UAEHXZ
	DD	FLAT:?PreCreateWindow@CWnd@@UAEHAAUtagCREATESTRUCTA@@@Z
	DD	FLAT:?CalcWindowRect@CWnd@@UAEXPAUtagRECT@@I@Z
	DD	FLAT:?GetMenu@CWnd@@UBEPAVCMenu@@XZ
	DD	FLAT:?SetMenu@CWnd@@UAEHPAVCMenu@@@Z
	DD	FLAT:?OnToolHitTest@CWnd@@UBEHVCPoint@@PAUtagTOOLINFOA@@@Z
	DD	FLAT:?GetScrollBarCtrl@CWnd@@UBEPAVCScrollBar@@H@Z
	DD	FLAT:?WinHelpA@CWnd@@UAEXKI@Z
	DD	FLAT:?HtmlHelpA@CWnd@@UAEXKI@Z
	DD	FLAT:?WinHelpInternal@CWnd@@UAEXKI@Z
	DD	FLAT:?ContinueModal@CWnd@@UAEHXZ
	DD	FLAT:?EndModalLoop@CWnd@@UAEXH@Z
	DD	FLAT:?OnDrawIconicThumbnailOrLivePreview@CWnd@@UAEXAAVCDC@@VCRect@@VCSize@@HAAH@Z
	DD	FLAT:?EnsureStdObj@CWnd@@UAEJXZ
	DD	FLAT:?get_accParent@CWnd@@UAEJPAPAUIDispatch@@@Z
	DD	FLAT:?get_accChildCount@CWnd@@UAEJPAJ@Z
	DD	FLAT:?get_accChild@CWnd@@UAEJUtagVARIANT@@PAPAUIDispatch@@@Z
	DD	FLAT:?get_accName@CWnd@@UAEJUtagVARIANT@@PAPA_W@Z
	DD	FLAT:?get_accValue@CWnd@@UAEJUtagVARIANT@@PAPA_W@Z
	DD	FLAT:?get_accDescription@CWnd@@UAEJUtagVARIANT@@PAPA_W@Z
	DD	FLAT:?get_accRole@CWnd@@UAEJUtagVARIANT@@PAU2@@Z
	DD	FLAT:?get_accState@CWnd@@UAEJUtagVARIANT@@PAU2@@Z
	DD	FLAT:?get_accHelp@CWnd@@UAEJUtagVARIANT@@PAPA_W@Z
	DD	FLAT:?get_accHelpTopic@CWnd@@UAEJPAPA_WUtagVARIANT@@PAJ@Z
	DD	FLAT:?get_accKeyboardShortcut@CWnd@@UAEJUtagVARIANT@@PAPA_W@Z
	DD	FLAT:?get_accFocus@CWnd@@UAEJPAUtagVARIANT@@@Z
	DD	FLAT:?get_accSelection@CWnd@@UAEJPAUtagVARIANT@@@Z
	DD	FLAT:?get_accDefaultAction@CWnd@@UAEJUtagVARIANT@@PAPA_W@Z
	DD	FLAT:?accSelect@CWnd@@UAEJJUtagVARIANT@@@Z
	DD	FLAT:?accLocation@CWnd@@UAEJPAJ000UtagVARIANT@@@Z
	DD	FLAT:?accNavigate@CWnd@@UAEJJUtagVARIANT@@PAU2@@Z
	DD	FLAT:?accHitTest@CWnd@@UAEJJJPAUtagVARIANT@@@Z
	DD	FLAT:?accDoDefaultAction@CWnd@@UAEJUtagVARIANT@@@Z
	DD	FLAT:?put_accName@CWnd@@UAEJUtagVARIANT@@PA_W@Z
	DD	FLAT:?put_accValue@CWnd@@UAEJUtagVARIANT@@PA_W@Z
	DD	FLAT:?SetProxy@CWnd@@UAEJPAUIAccessibleProxy@@@Z
	DD	FLAT:?CreateAccessibleProxy@CWnd@@UAEJIJPAJ@Z
	DD	FLAT:?OnCommand@CWnd@@MAEHIJ@Z
	DD	FLAT:?OnNotify@CWnd@@MAEHIJPAJ@Z
	DD	FLAT:?GetSuperWndProcAddr@CWnd@@MAEPAP6GJPAUHWND__@@IIJ@ZXZ
	DD	FLAT:?DoDataExchange@CWnd@@MAEXPAVCDataExchange@@@Z
	DD	FLAT:?BeginModalState@CWnd@@UAEXXZ
	DD	FLAT:?EndModalState@CWnd@@UAEXXZ
	DD	FLAT:?PreTranslateMessage@CWnd@@UAEHPAUtagMSG@@@Z
	DD	FLAT:?OnAmbientProperty@CWnd@@UAEHPAVCOleControlSite@@JPAUtagVARIANT@@@Z
	DD	FLAT:?WindowProc@CWnd@@MAEJIIJ@Z
	DD	FLAT:?OnWndMsg@CWnd@@MAEHIIJPAJ@Z
	DD	FLAT:?DefWindowProcA@CWnd@@MAEJIIJ@Z
	DD	FLAT:?PostNcDestroy@CWnd@@MAEXXZ
	DD	FLAT:?OnChildNotify@CWnd@@MAEHIIJPAJ@Z
	DD	FLAT:?OnTouchInputs@CWnd@@MAEHIPAUtagTOUCHINPUT@@@Z
	DD	FLAT:?OnTouchInput@CWnd@@MAEHVCPoint@@HHPAUtagTOUCHINPUT@@@Z
	DD	FLAT:?GetGestureStatus@CWnd@@MAEKVCPoint@@@Z
	DD	FLAT:?OnGestureZoom@CWnd@@MAEHVCPoint@@J@Z
	DD	FLAT:?OnGesturePan@CWnd@@MAEHVCPoint@@0@Z
	DD	FLAT:?OnGestureRotate@CWnd@@MAEHVCPoint@@N@Z
	DD	FLAT:?OnGestureTwoFingerTap@CWnd@@MAEHVCPoint@@@Z
	DD	FLAT:?OnGesturePressAndTap@CWnd@@MAEHVCPoint@@J@Z
	DD	FLAT:?ResizeDynamicLayout@CWnd@@MAEXXZ
	DD	FLAT:?CheckAutoCenter@CWnd@@UAEHXZ
	DD	FLAT:?IsFrameWnd@CWnd@@UBEHXZ
	DD	FLAT:?CreateControlContainer@CWnd@@MAEHPAPAVCOleControlContainer@@@Z
	DD	FLAT:?CreateControlSite@CWnd@@MAEHPAVCOleControlContainer@@PAPAVCOleControlSite@@IABU_GUID@@@Z
	DD	FLAT:?SetOccDialogInfo@CWnd@@MAEHPAU_AFX_OCC_DIALOG_INFO@@@Z
	DD	FLAT:?GetOccDialogInfo@CWnd@@MAEPAU_AFX_OCC_DIALOG_INFO@@XZ
CONST	ENDS
;	COMDAT ??_C@_00CNPNBAHC@@
CONST	SEGMENT
??_C@_00CNPNBAHC@@ DB 00H				; `string'
CONST	ENDS
;	COMDAT xdata$x
xdata$x	SEGMENT
__unwindtable$?OnLButtonUp@CTrTreeCtrl@@IAEXIVCPoint@@@Z DD 0ffffffffH
	DD	FLAT:__unwindfunclet$?OnLButtonUp@CTrTreeCtrl@@IAEXIVCPoint@@@Z$1
	DD	00H
	DD	FLAT:__unwindfunclet$?OnLButtonUp@CTrTreeCtrl@@IAEXIVCPoint@@@Z$2
__ehfuncinfo$?OnLButtonUp@CTrTreeCtrl@@IAEXIVCPoint@@@Z DD 019930522H
	DD	02H
	DD	FLAT:__unwindtable$?OnLButtonUp@CTrTreeCtrl@@IAEXIVCPoint@@@Z
	DD	2 DUP(00H)
	DD	2 DUP(00H)
	DD	00H
	DD	01H
xdata$x	ENDS
;	COMDAT xdata$x
xdata$x	SEGMENT
__unwindtable$?OnRButtonDown@CTrTreeCtrl@@IAEXIVCPoint@@@Z DD 0ffffffffH
	DD	FLAT:__unwindfunclet$?OnRButtonDown@CTrTreeCtrl@@IAEXIVCPoint@@@Z$0
__ehfuncinfo$?OnRButtonDown@CTrTreeCtrl@@IAEXIVCPoint@@@Z DD 019930522H
	DD	01H
	DD	FLAT:__unwindtable$?OnRButtonDown@CTrTreeCtrl@@IAEXIVCPoint@@@Z
	DD	2 DUP(00H)
	DD	2 DUP(00H)
	DD	00H
	DD	01H
xdata$x	ENDS
;	COMDAT xdata$x
xdata$x	SEGMENT
__unwindtable$?OnSelchanged@CTrTreeCtrl@@IAEXPAUtagNMHDR@@PAJ@Z DD 0ffffffffH
	DD	FLAT:__unwindfunclet$?OnSelchanged@CTrTreeCtrl@@IAEXPAUtagNMHDR@@PAJ@Z$0
__ehfuncinfo$?OnSelchanged@CTrTreeCtrl@@IAEXPAUtagNMHDR@@PAJ@Z DD 019930522H
	DD	01H
	DD	FLAT:__unwindtable$?OnSelchanged@CTrTreeCtrl@@IAEXPAUtagNMHDR@@PAJ@Z
	DD	2 DUP(00H)
	DD	2 DUP(00H)
	DD	00H
	DD	01H
xdata$x	ENDS
;	COMDAT xdata$x
xdata$x	SEGMENT
__unwindtable$?OnDblclk@CTrTreeCtrl@@IAEXPAUtagNMHDR@@PAJ@Z DD 0ffffffffH
	DD	FLAT:__unwindfunclet$?OnDblclk@CTrTreeCtrl@@IAEXPAUtagNMHDR@@PAJ@Z$0
__ehfuncinfo$?OnDblclk@CTrTreeCtrl@@IAEXPAUtagNMHDR@@PAJ@Z DD 019930522H
	DD	01H
	DD	FLAT:__unwindtable$?OnDblclk@CTrTreeCtrl@@IAEXPAUtagNMHDR@@PAJ@Z
	DD	2 DUP(00H)
	DD	2 DUP(00H)
	DD	00H
	DD	01H
xdata$x	ENDS
;	COMDAT xdata$x
xdata$x	SEGMENT
__unwindtable$?GetTrString@CTrTreeCtrl@@QAE?AV?$CStringT@DV?$StrTraitMFC_DLL@DV?$ChTraitsCRT@D@ATL@@@@@ATL@@V23@@Z DD 0ffffffffH
	DD	FLAT:__unwindfunclet$?GetTrString@CTrTreeCtrl@@QAE?AV?$CStringT@DV?$StrTraitMFC_DLL@DV?$ChTraitsCRT@D@ATL@@@@@ATL@@V23@@Z$0
	DD	00H
	DD	FLAT:__unwindfunclet$?GetTrString@CTrTreeCtrl@@QAE?AV?$CStringT@DV?$StrTraitMFC_DLL@DV?$ChTraitsCRT@D@ATL@@@@@ATL@@V23@@Z$2
__ehfuncinfo$?GetTrString@CTrTreeCtrl@@QAE?AV?$CStringT@DV?$StrTraitMFC_DLL@DV?$ChTraitsCRT@D@ATL@@@@@ATL@@V23@@Z DD 019930522H
	DD	02H
	DD	FLAT:__unwindtable$?GetTrString@CTrTreeCtrl@@QAE?AV?$CStringT@DV?$StrTraitMFC_DLL@DV?$ChTraitsCRT@D@ATL@@@@@ATL@@V23@@Z
	DD	2 DUP(00H)
	DD	2 DUP(00H)
	DD	00H
	DD	01H
xdata$x	ENDS
CRT$XCU	SEGMENT
?RMSG_DRAGEND$initializer$@@3P6AXXZA DD FLAT:??__ERMSG_DRAGEND@@YAXXZ ; RMSG_DRAGEND$initializer$
CRT$XCU	ENDS
CRT$XCU	SEGMENT
?RMSG_OPENNEWMAP$initializer$@@3P6AXXZA DD FLAT:??__ERMSG_OPENNEWMAP@@YAXXZ ; RMSG_OPENNEWMAP$initializer$
CRT$XCU	ENDS
; Function compile flags: /Ogtp
; File D:\git\src\IBK\IBK_DRFN\ProjSrc\SrcDrfn\Chart\comparechart\control\TrTreeCtrl.cpp
;	COMDAT ??__ERMSG_OPENNEWMAP@@YAXXZ
text$di	SEGMENT
??__ERMSG_OPENNEWMAP@@YAXXZ PROC			; `dynamic initializer for 'RMSG_OPENNEWMAP'', COMDAT

; 18   : const UINT RMSG_OPENNEWMAP = ::RegisterWindowMessage("RMSG_OPENNEWMAP");

  00000	68 00 00 00 00	 push	 OFFSET ??_C@_0BA@IIIKKNIB@RMSG_OPENNEWMAP@
  00005	ff 15 00 00 00
	00		 call	 DWORD PTR __imp__RegisterWindowMessageA@4
  0000b	a3 00 00 00 00	 mov	 DWORD PTR ?RMSG_OPENNEWMAP@@3IB, eax
  00010	c3		 ret	 0
??__ERMSG_OPENNEWMAP@@YAXXZ ENDP			; `dynamic initializer for 'RMSG_OPENNEWMAP''
text$di	ENDS
; Function compile flags: /Ogtp
; File D:\git\src\IBK\IBK_DRFN\ProjSrc\SrcDrfn\Chart\comparechart\define\DragNDropDefine.h
;	COMDAT ??__ERMSG_DRAGEND@@YAXXZ
text$di	SEGMENT
??__ERMSG_DRAGEND@@YAXXZ PROC				; `dynamic initializer for 'RMSG_DRAGEND'', COMDAT

; 5    : const UINT RMSG_DRAGEND				= ::RegisterWindowMessage(_T("RMSG_DRAGEND"));

  00000	68 00 00 00 00	 push	 OFFSET ??_C@_0N@HCNBEPNP@RMSG_DRAGEND@
  00005	ff 15 00 00 00
	00		 call	 DWORD PTR __imp__RegisterWindowMessageA@4
  0000b	a3 00 00 00 00	 mov	 DWORD PTR ?RMSG_DRAGEND@@3IB, eax
  00010	c3		 ret	 0
??__ERMSG_DRAGEND@@YAXXZ ENDP				; `dynamic initializer for 'RMSG_DRAGEND''
text$di	ENDS
; Function compile flags: /Ogtp
; File D:\git\src\IBK\IBK_DRFN\ProjSrc\SrcDrfn\Chart\comparechart\define\DragNDropDefine.h
;	COMDAT ??__ERMSG_DRAGSTART@@YAXXZ
text$di	SEGMENT
??__ERMSG_DRAGSTART@@YAXXZ PROC				; `dynamic initializer for 'RMSG_DRAGSTART'', COMDAT

; 4    : const UINT RMSG_DRAGSTART			= ::RegisterWindowMessage(_T("RMSG_DRAGSTART"));

  00000	68 00 00 00 00	 push	 OFFSET ??_C@_0P@JJCNALBJ@RMSG_DRAGSTART@
  00005	ff 15 00 00 00
	00		 call	 DWORD PTR __imp__RegisterWindowMessageA@4
  0000b	a3 00 00 00 00	 mov	 DWORD PTR ?RMSG_DRAGSTART@@3IB, eax
  00010	c3		 ret	 0
??__ERMSG_DRAGSTART@@YAXXZ ENDP				; `dynamic initializer for 'RMSG_DRAGSTART''
text$di	ENDS
; Function compile flags: /Ogtp
; File D:\git\src\IBK\IBK_DRFN\ProjSrc\SrcDrfn\Chart\comparechart\control\TrTreeCtrl.cpp
; File C:\Program Files (x86)\Microsoft Visual Studio\2019\Community\VC\Tools\MSVC\14.29.30133\atlmfc\include\afx.inl
;	COMDAT ??_GCTrTreeCtrl@@UAEPAXI@Z
_TEXT	SEGMENT
___flags$ = 8						; size = 4
??_GCTrTreeCtrl@@UAEPAXI@Z PROC				; CTrTreeCtrl::`scalar deleting destructor', COMDAT
; _this$ = ecx
  00000	55		 push	 ebp
  00001	8b ec		 mov	 ebp, esp
; File D:\git\src\IBK\IBK_DRFN\ProjSrc\SrcDrfn\Chart\comparechart\control\TrTreeCtrl.cpp

; 31   : {

  00003	56		 push	 esi
  00004	8b f1		 mov	 esi, ecx
  00006	c7 06 00 00 00
	00		 mov	 DWORD PTR [esi], OFFSET ??_7CTrTreeCtrl@@6B@

; 32   : }

  0000c	e8 00 00 00 00	 call	 ??1CTreeCtrl@@UAE@XZ	; CTreeCtrl::~CTreeCtrl
  00011	8b 45 08	 mov	 eax, DWORD PTR ___flags$[ebp]
  00014	a8 01		 test	 al, 1
  00016	74 22		 je	 SHORT $LN12@scalar
  00018	a8 04		 test	 al, 4
  0001a	75 10		 jne	 SHORT $LN3@scalar
; File C:\Program Files (x86)\Microsoft Visual Studio\2019\Community\VC\Tools\MSVC\14.29.30133\atlmfc\include\afx.inl

; 112  : 	{ ::operator delete(p); }

  0001c	56		 push	 esi
  0001d	e8 00 00 00 00	 call	 ??3@YAXPAX@Z		; operator delete
  00022	83 c4 04	 add	 esp, 4
  00025	8b c6		 mov	 eax, esi
  00027	5e		 pop	 esi
  00028	5d		 pop	 ebp
  00029	c2 04 00	 ret	 4
$LN3@scalar:
  0002c	68 90 00 00 00	 push	 144			; 00000090H
  00031	56		 push	 esi
  00032	e8 00 00 00 00	 call	 ?__global_delete@@YAXPAXI@Z ; __global_delete
  00037	83 c4 08	 add	 esp, 8
$LN12@scalar:
  0003a	8b c6		 mov	 eax, esi
  0003c	5e		 pop	 esi
  0003d	5d		 pop	 ebp
  0003e	c2 04 00	 ret	 4
??_GCTrTreeCtrl@@UAEPAXI@Z ENDP				; CTrTreeCtrl::`scalar deleting destructor'
_TEXT	ENDS
; Function compile flags: /Ogtp
; File D:\git\src\IBK\IBK_DRFN\ProjSrc\SrcDrfn\Chart\comparechart\control\TrTreeCtrl.cpp
;	COMDAT ?GetMessageMap@CTrTreeCtrl@@MBEPBUAFX_MSGMAP@@XZ
_TEXT	SEGMENT
?GetMessageMap@CTrTreeCtrl@@MBEPBUAFX_MSGMAP@@XZ PROC	; CTrTreeCtrl::GetMessageMap, COMDAT
; _this$ = ecx

; 35   : BEGIN_MESSAGE_MAP(CTrTreeCtrl, CTreeCtrl)

  00000	b8 00 00 00 00	 mov	 eax, OFFSET ?messageMap@?1??GetThisMessageMap@CTrTreeCtrl@@KGPBUAFX_MSGMAP@@XZ@4U3@B
  00005	c3		 ret	 0
?GetMessageMap@CTrTreeCtrl@@MBEPBUAFX_MSGMAP@@XZ ENDP	; CTrTreeCtrl::GetMessageMap
_TEXT	ENDS
; Function compile flags: /Ogtp
; File D:\git\src\IBK\IBK_DRFN\ProjSrc\SrcDrfn\Chart\comparechart\control\TrTreeCtrl.cpp
;	COMDAT ?GetThisMessageMap@CTrTreeCtrl@@KGPBUAFX_MSGMAP@@XZ
_TEXT	SEGMENT
?GetThisMessageMap@CTrTreeCtrl@@KGPBUAFX_MSGMAP@@XZ PROC ; CTrTreeCtrl::GetThisMessageMap, COMDAT

; 36   : 	//{{AFX_MSG_MAP(CTrTreeCtrl)
; 37   : 	ON_NOTIFY_REFLECT(NM_DBLCLK, OnDblclk)
; 38   : 	ON_NOTIFY_REFLECT(NM_CLICK, OnClick)
; 39   : 	ON_NOTIFY_REFLECT(TVN_SELCHANGED, OnSelchanged)
; 40   : 	ON_WM_LBUTTONDOWN()
; 41   : 	ON_WM_RBUTTONDOWN()
; 42   : 	ON_NOTIFY_REFLECT(TVN_BEGINDRAG, OnBegindrag)
; 43   : 	ON_WM_LBUTTONUP()
; 44   : 	ON_WM_MOUSEMOVE()
; 45   : 	//}}AFX_MSG_MAP
; 46   : END_MESSAGE_MAP()

  00000	b8 00 00 00 00	 mov	 eax, OFFSET ?messageMap@?1??GetThisMessageMap@CTrTreeCtrl@@KGPBUAFX_MSGMAP@@XZ@4U3@B
  00005	c3		 ret	 0
?GetThisMessageMap@CTrTreeCtrl@@KGPBUAFX_MSGMAP@@XZ ENDP ; CTrTreeCtrl::GetThisMessageMap
_TEXT	ENDS
; Function compile flags: /Ogtp
; File D:\git\src\IBK\IBK_DRFN\ProjSrc\SrcDrfn\Chart\comparechart\control\TrTreeCtrl.cpp
; File C:\Program Files (x86)\Microsoft Visual Studio\2019\Community\VC\Tools\MSVC\14.29.30133\atlmfc\include\afxwin2.inl
; File D:\git\src\IBK\IBK_DRFN\ProjSrc\SrcDrfn\Chart\comparechart\control\TrTreeCtrl.cpp
; File C:\Program Files (x86)\Microsoft Visual Studio\2019\Community\VC\Tools\MSVC\14.29.30133\atlmfc\include\afxwin2.inl
; File D:\git\src\IBK\IBK_DRFN\ProjSrc\SrcDrfn\Chart\comparechart\control\TrTreeCtrl.cpp
;	COMDAT ?OnMouseMove@CTrTreeCtrl@@IAEXIVCPoint@@@Z
_TEXT	SEGMENT
_ptDrag$1 = -8						; size = 8
_nFlags$ = 8						; size = 4
_point$ = 12						; size = 8
?OnMouseMove@CTrTreeCtrl@@IAEXIVCPoint@@@Z PROC		; CTrTreeCtrl::OnMouseMove, COMDAT
; _this$ = ecx

; 231  : {

  00000	55		 push	 ebp
  00001	8b ec		 mov	 ebp, esp
  00003	83 ec 08	 sub	 esp, 8
  00006	57		 push	 edi
  00007	8b f9		 mov	 edi, ecx

; 232  : 	// TODO: Add your message handler code here and/or call default
; 233  : 	if(m_bLBtnDown)

  00009	83 bf 84 00 00
	00 00		 cmp	 DWORD PTR [edi+132], 0
  00010	74 57		 je	 SHORT $LN2@OnMouseMov

; 237  : 		CPoint ptDrag(point);

  00012	8b 45 0c	 mov	 eax, DWORD PTR _point$[ebp]
  00015	8b 55 10	 mov	 edx, DWORD PTR _point$[ebp+4]
  00018	89 45 f8	 mov	 DWORD PTR _ptDrag$1[ebp], eax
; File C:\Program Files (x86)\Microsoft Visual Studio\2019\Community\VC\Tools\MSVC\14.29.30133\atlmfc\include\afxwin2.inl

; 92   : 	{ ASSERT(::IsWindow(m_hWnd)); ::ClientToScreen(m_hWnd, lpPoint); }

  0001b	8d 45 f8	 lea	 eax, DWORD PTR _ptDrag$1[ebp]
  0001e	50		 push	 eax
  0001f	ff 77 20	 push	 DWORD PTR [edi+32]
; File D:\git\src\IBK\IBK_DRFN\ProjSrc\SrcDrfn\Chart\comparechart\control\TrTreeCtrl.cpp

; 236  : 		m_bDragNDrop = TRUE;

  00022	c7 87 88 00 00
	00 01 00 00 00	 mov	 DWORD PTR [edi+136], 1

; 237  : 		CPoint ptDrag(point);

  0002c	89 55 fc	 mov	 DWORD PTR _ptDrag$1[ebp+4], edx
; File C:\Program Files (x86)\Microsoft Visual Studio\2019\Community\VC\Tools\MSVC\14.29.30133\atlmfc\include\afxwin2.inl

; 92   : 	{ ASSERT(::IsWindow(m_hWnd)); ::ClientToScreen(m_hWnd, lpPoint); }

  0002f	ff 15 00 00 00
	00		 call	 DWORD PTR __imp__ClientToScreen@8

; 213  : 	{ ASSERT(::IsWindow(m_hWnd)); return CWnd::FromHandle(::GetParent(m_hWnd)); }

  00035	ff 77 20	 push	 DWORD PTR [edi+32]
  00038	ff 15 00 00 00
	00		 call	 DWORD PTR __imp__GetParent@4
  0003e	50		 push	 eax
  0003f	e8 00 00 00 00	 call	 ?FromHandle@CWnd@@SGPAV1@PAUHWND__@@@Z ; CWnd::FromHandle
  00044	ff 70 20	 push	 DWORD PTR [eax+32]
  00047	ff 15 00 00 00
	00		 call	 DWORD PTR __imp__GetParent@4
  0004d	50		 push	 eax
  0004e	e8 00 00 00 00	 call	 ?FromHandle@CWnd@@SGPAV1@PAUHWND__@@@Z ; CWnd::FromHandle

; 32   : 	{ ASSERT(::IsWindow(m_hWnd)); return ::SendMessage(m_hWnd, message, wParam, lParam); }

  00053	ff 77 20	 push	 DWORD PTR [edi+32]
  00056	8d 4d f8	 lea	 ecx, DWORD PTR _ptDrag$1[ebp]
  00059	51		 push	 ecx
  0005a	ff 35 00 00 00
	00		 push	 DWORD PTR ?RMSG_DRAGSTART@@3IB
  00060	ff 70 20	 push	 DWORD PTR [eax+32]
  00063	ff 15 00 00 00
	00		 call	 DWORD PTR __imp__SendMessageA@16
$LN2@OnMouseMov:

; 454  : 	{ Default(); }

  00069	8b cf		 mov	 ecx, edi
  0006b	e8 00 00 00 00	 call	 ?Default@CWnd@@IAEJXZ	; CWnd::Default
  00070	5f		 pop	 edi
; File D:\git\src\IBK\IBK_DRFN\ProjSrc\SrcDrfn\Chart\comparechart\control\TrTreeCtrl.cpp

; 243  : }

  00071	8b e5		 mov	 esp, ebp
  00073	5d		 pop	 ebp
  00074	c2 0c 00	 ret	 12			; 0000000cH
?OnMouseMove@CTrTreeCtrl@@IAEXIVCPoint@@@Z ENDP		; CTrTreeCtrl::OnMouseMove
_TEXT	ENDS
; Function compile flags: /Ogtp
; File D:\git\src\IBK\IBK_DRFN\ProjSrc\SrcDrfn\Chart\comparechart\control\TrTreeCtrl.cpp
; File C:\Program Files (x86)\Microsoft Visual Studio\2019\Community\VC\Tools\MSVC\14.29.30133\atlmfc\include\afxcmn.inl
; File D:\git\src\IBK\IBK_DRFN\ProjSrc\SrcDrfn\Chart\comparechart\control\TrTreeCtrl.cpp
; File C:\Program Files (x86)\Microsoft Visual Studio\2019\Community\VC\Tools\MSVC\14.29.30133\atlmfc\include\afxwin2.inl
; File D:\git\src\IBK\IBK_DRFN\ProjSrc\SrcDrfn\Chart\comparechart\control\TrTreeCtrl.cpp
; File C:\Program Files (x86)\Microsoft Visual Studio\2019\Community\VC\Tools\MSVC\14.29.30133\atlmfc\include\afxwin2.inl
; File D:\git\src\IBK\IBK_DRFN\ProjSrc\SrcDrfn\Chart\comparechart\control\TrTreeCtrl.cpp
; File D:\git\src\IBK\IBK_DRFN\ProjSrc\SrcDrfn\Chart\comparechart\define\DragNDropDefine.h
; File D:\git\src\IBK\IBK_DRFN\ProjSrc\SrcDrfn\Chart\comparechart\control\TrTreeCtrl.cpp
; File C:\Program Files (x86)\Microsoft Visual Studio\2019\Community\VC\Tools\MSVC\14.29.30133\atlmfc\include\atlsimpstr.h
; File D:\git\src\IBK\IBK_DRFN\ProjSrc\SrcDrfn\Chart\comparechart\control\TrTreeCtrl.cpp
; File D:\git\src\IBK\IBK_DRFN\ProjSrc\SrcDrfn\Chart\comparechart\define\DragNDropDefine.h
; File C:\Program Files (x86)\Microsoft Visual Studio\2019\Community\VC\Tools\MSVC\14.29.30133\atlmfc\include\afxwin2.inl
; File D:\git\src\IBK\IBK_DRFN\ProjSrc\SrcDrfn\Chart\comparechart\define\DragNDropDefine.h
; File C:\Program Files (x86)\Microsoft Visual Studio\2019\Community\VC\Tools\MSVC\14.29.30133\atlmfc\include\afxwin2.inl
; File D:\git\src\IBK\IBK_DRFN\ProjSrc\SrcDrfn\Chart\comparechart\control\TrTreeCtrl.cpp
; File C:\Program Files (x86)\Microsoft Visual Studio\2019\Community\VC\Tools\MSVC\14.29.30133\atlmfc\include\afxwin2.inl
; File D:\git\src\IBK\IBK_DRFN\ProjSrc\SrcDrfn\Chart\comparechart\control\TrTreeCtrl.cpp
;	COMDAT ?OnLButtonUp@CTrTreeCtrl@@IAEXIVCPoint@@@Z
_TEXT	SEGMENT
_ptDrag$2 = -32						; size = 8
_hWnd$1$ = -24						; size = 4
$T3 = -24						; size = 4
_selString$4 = -20					; size = 4
_strPacketShared$5 = -16				; size = 4
__$EHRec$ = -12						; size = 12
_nFlags$ = 8						; size = 4
_point$ = 12						; size = 8
?OnLButtonUp@CTrTreeCtrl@@IAEXIVCPoint@@@Z PROC		; CTrTreeCtrl::OnLButtonUp, COMDAT
; _this$ = ecx

; 203  : {

  00000	55		 push	 ebp
  00001	8b ec		 mov	 ebp, esp
  00003	6a ff		 push	 -1
  00005	68 00 00 00 00	 push	 __ehhandler$?OnLButtonUp@CTrTreeCtrl@@IAEXIVCPoint@@@Z
  0000a	64 a1 00 00 00
	00		 mov	 eax, DWORD PTR fs:0
  00010	50		 push	 eax
  00011	83 ec 14	 sub	 esp, 20			; 00000014H
  00014	53		 push	 ebx
  00015	56		 push	 esi
  00016	57		 push	 edi
  00017	a1 00 00 00 00	 mov	 eax, DWORD PTR ___security_cookie
  0001c	33 c5		 xor	 eax, ebp
  0001e	50		 push	 eax
  0001f	8d 45 f4	 lea	 eax, DWORD PTR __$EHRec$[ebp]
  00022	64 a3 00 00 00
	00		 mov	 DWORD PTR fs:0, eax
  00028	8b d9		 mov	 ebx, ecx

; 204  : 	// TODO: Add your message handler code here and/or call default
; 205  : 	if(m_bLBtnDown)

  0002a	83 bb 84 00 00
	00 00		 cmp	 DWORD PTR [ebx+132], 0
  00031	0f 84 ae 01 00
	00		 je	 $LN2@OnLButtonU

; 206  : 	{
; 207  : 		m_bLBtnDown = FALSE;

  00037	c7 83 84 00 00
	00 00 00 00 00	 mov	 DWORD PTR [ebx+132], 0

; 208  : 		ReleaseCapture();

  00041	ff 15 00 00 00
	00		 call	 DWORD PTR __imp__ReleaseCapture@0

; 209  : 
; 210  : 		if(m_bDragNDrop)	// 드래그 중이었으면

  00047	83 bb 88 00 00
	00 00		 cmp	 DWORD PTR [ebx+136], 0
  0004e	0f 84 87 01 00
	00		 je	 $LN3@OnLButtonU
; File C:\Program Files (x86)\Microsoft Visual Studio\2019\Community\VC\Tools\MSVC\14.29.30133\atlmfc\include\afxcmn.inl

; 316  : 	{ ASSERT(::IsWindow(m_hWnd)); return (HTREEITEM)::SendMessage(m_hWnd, TVM_GETNEXTITEM, TVGN_CARET, 0); }

  00054	6a 00		 push	 0
  00056	6a 09		 push	 9
  00058	68 0a 11 00 00	 push	 4362			; 0000110aH
  0005d	ff 73 20	 push	 DWORD PTR [ebx+32]
  00060	ff 15 00 00 00
	00		 call	 DWORD PTR __imp__SendMessageA@16
; File D:\git\src\IBK\IBK_DRFN\ProjSrc\SrcDrfn\Chart\comparechart\control\TrTreeCtrl.cpp

; 214  : 			CPoint ptDrag(point);

  00066	8b 4d 0c	 mov	 ecx, DWORD PTR _point$[ebp]
  00069	8b f0		 mov	 esi, eax
  0006b	8b 55 10	 mov	 edx, DWORD PTR _point$[ebp+4]
; File C:\Program Files (x86)\Microsoft Visual Studio\2019\Community\VC\Tools\MSVC\14.29.30133\atlmfc\include\afxwin2.inl

; 92   : 	{ ASSERT(::IsWindow(m_hWnd)); ::ClientToScreen(m_hWnd, lpPoint); }

  0006e	8d 45 e0	 lea	 eax, DWORD PTR _ptDrag$2[ebp]
  00071	50		 push	 eax
  00072	ff 73 20	 push	 DWORD PTR [ebx+32]
; File D:\git\src\IBK\IBK_DRFN\ProjSrc\SrcDrfn\Chart\comparechart\control\TrTreeCtrl.cpp

; 214  : 			CPoint ptDrag(point);

  00075	89 4d e0	 mov	 DWORD PTR _ptDrag$2[ebp], ecx
  00078	89 55 e4	 mov	 DWORD PTR _ptDrag$2[ebp+4], edx
; File C:\Program Files (x86)\Microsoft Visual Studio\2019\Community\VC\Tools\MSVC\14.29.30133\atlmfc\include\afxwin2.inl

; 92   : 	{ ASSERT(::IsWindow(m_hWnd)); ::ClientToScreen(m_hWnd, lpPoint); }

  0007b	ff 15 00 00 00
	00		 call	 DWORD PTR __imp__ClientToScreen@8
; File D:\git\src\IBK\IBK_DRFN\ProjSrc\SrcDrfn\Chart\comparechart\control\TrTreeCtrl.cpp

; 217  : 			CDragNDrop* pDnD = new CDragNDrop;				

  00081	6a 14		 push	 20			; 00000014H
  00083	e8 00 00 00 00	 call	 ??2@YAPAXI@Z		; operator new
  00088	8b f8		 mov	 edi, eax
  0008a	83 c4 04	 add	 esp, 4
  0008d	89 7d e8	 mov	 DWORD PTR $T3[ebp], edi
  00090	85 ff		 test	 edi, edi
  00092	74 1d		 je	 SHORT $LN5@OnLButtonU
; File D:\git\src\IBK\IBK_DRFN\ProjSrc\SrcDrfn\Chart\comparechart\define\DragNDropDefine.h

; 12   : 		m_szKey = NULL;

  00094	c7 47 08 00 00
	00 00		 mov	 DWORD PTR [edi+8], 0

; 13   : 		m_szValue = NULL;

  0009b	c7 47 0c 00 00
	00 00		 mov	 DWORD PTR [edi+12], 0

; 14   : 		m_ptCursor = NULL;

  000a2	c7 07 00 00 00
	00		 mov	 DWORD PTR [edi], 0

; 15   : 		m_bDelete = TRUE;

  000a8	c7 47 10 01 00
	00 00		 mov	 DWORD PTR [edi+16], 1
; File D:\git\src\IBK\IBK_DRFN\ProjSrc\SrcDrfn\Chart\comparechart\control\TrTreeCtrl.cpp

; 217  : 			CDragNDrop* pDnD = new CDragNDrop;				

  000af	eb 02		 jmp	 SHORT $LN6@OnLButtonU
$LN5@OnLButtonU:
  000b1	33 ff		 xor	 edi, edi
$LN6@OnLButtonU:

; 218  : 			CString strPacketShared;

  000b3	8d 4d f0	 lea	 ecx, DWORD PTR _strPacketShared$5[ebp]
  000b6	ff 15 00 00 00
	00		 call	 DWORD PTR __imp_??0?$CStringT@DV?$StrTraitMFC_DLL@DV?$ChTraitsCRT@D@ATL@@@@@ATL@@QAE@XZ

; 219  : 			CString selString = GetItemText(hSelItem);

  000bc	56		 push	 esi
  000bd	8d 45 ec	 lea	 eax, DWORD PTR _selString$4[ebp]
  000c0	c7 45 fc 00 00
	00 00		 mov	 DWORD PTR __$EHRec$[ebp+8], 0
  000c7	50		 push	 eax
  000c8	8b cb		 mov	 ecx, ebx
  000ca	e8 00 00 00 00	 call	 ?GetItemText@CTreeCtrl@@QBE?AV?$CStringT@DV?$StrTraitMFC_DLL@DV?$ChTraitsCRT@D@ATL@@@@@ATL@@PAU_TREEITEM@@@Z ; CTreeCtrl::GetItemText

; 220  : 			strPacketShared = selString;

  000cf	8d 45 ec	 lea	 eax, DWORD PTR _selString$4[ebp]
  000d2	c6 45 fc 01	 mov	 BYTE PTR __$EHRec$[ebp+8], 1
  000d6	50		 push	 eax
  000d7	8d 4d f0	 lea	 ecx, DWORD PTR _strPacketShared$5[ebp]
  000da	ff 15 00 00 00
	00		 call	 DWORD PTR __imp_??4?$CStringT@DV?$StrTraitMFC_DLL@DV?$ChTraitsCRT@D@ATL@@@@@ATL@@QAEAAV01@ABV01@@Z

; 221  : 			pDnD->SetData(&ptDrag, m_hWnd, _T("지표-드래그"), (LPTSTR)(LPCTSTR)strPacketShared);

  000e0	8b 43 20	 mov	 eax, DWORD PTR [ebx+32]
; File C:\Program Files (x86)\Microsoft Visual Studio\2019\Community\VC\Tools\MSVC\14.29.30133\atlmfc\include\atlsimpstr.h

; 377  : 		return( m_pszData );

  000e3	8b 75 f0	 mov	 esi, DWORD PTR _strPacketShared$5[ebp]
; File D:\git\src\IBK\IBK_DRFN\ProjSrc\SrcDrfn\Chart\comparechart\control\TrTreeCtrl.cpp

; 221  : 			pDnD->SetData(&ptDrag, m_hWnd, _T("지표-드래그"), (LPTSTR)(LPCTSTR)strPacketShared);

  000e6	89 45 e8	 mov	 DWORD PTR _hWnd$1$[ebp], eax
; File D:\git\src\IBK\IBK_DRFN\ProjSrc\SrcDrfn\Chart\comparechart\define\DragNDropDefine.h

; 42   : 		if(m_ptCursor)

  000e9	8b 07		 mov	 eax, DWORD PTR [edi]
  000eb	85 c0		 test	 eax, eax
  000ed	74 0b		 je	 SHORT $LN19@OnLButtonU

; 43   : 			delete m_ptCursor;

  000ef	6a 08		 push	 8
  000f1	50		 push	 eax
  000f2	e8 00 00 00 00	 call	 ??3@YAXPAXI@Z		; operator delete
  000f7	83 c4 08	 add	 esp, 8
$LN19@OnLButtonU:

; 44   : 
; 45   : 		m_ptCursor = new POINT;

  000fa	6a 08		 push	 8
  000fc	e8 00 00 00 00	 call	 ??2@YAPAXI@Z		; operator new
  00101	89 07		 mov	 DWORD PTR [edi], eax
  00103	83 c4 04	 add	 esp, 4

; 46   : 		m_ptCursor->x = ptCursor->x;

  00106	8b 4d e0	 mov	 ecx, DWORD PTR _ptDrag$2[ebp]
  00109	89 08		 mov	 DWORD PTR [eax], ecx

; 47   : 		m_ptCursor->y = ptCursor->y;

  0010b	8b 0f		 mov	 ecx, DWORD PTR [edi]
  0010d	8b 45 e4	 mov	 eax, DWORD PTR _ptDrag$2[ebp+4]
  00110	89 41 04	 mov	 DWORD PTR [ecx+4], eax

; 48   : 
; 49   : 		m_hWndSource = hWnd;

  00113	8b 45 e8	 mov	 eax, DWORD PTR _hWnd$1$[ebp]
  00116	89 47 04	 mov	 DWORD PTR [edi+4], eax

; 50   : 
; 51   : 		if(m_szKey)

  00119	8b 47 08	 mov	 eax, DWORD PTR [edi+8]
  0011c	85 c0		 test	 eax, eax
  0011e	74 09		 je	 SHORT $LN20@OnLButtonU

; 52   : 			delete [] m_szKey;

  00120	50		 push	 eax
  00121	e8 00 00 00 00	 call	 ??_V@YAXPAX@Z		; operator delete[]
  00126	83 c4 04	 add	 esp, 4
$LN20@OnLButtonU:

; 53   : 
; 54   : 		m_szKey = new char[::strlen(szKey) + 1];

  00129	6a 0c		 push	 12			; 0000000cH
  0012b	e8 00 00 00 00	 call	 ??_U@YAPAXI@Z		; operator new[]

; 55   : 		::strcpy(m_szKey, szKey);

  00130	ba 00 00 00 00	 mov	 edx, OFFSET ??_C@_0M@BBGPCCJB@?A?v?G?$KF?9?$LF?e?$LH?$KB?$LB?W@
  00135	89 47 08	 mov	 DWORD PTR [edi+8], eax
  00138	83 c4 04	 add	 esp, 4
  0013b	2b c2		 sub	 eax, edx
  0013d	0f 1f 00	 npad	 3
$LL23@OnLButtonU:
  00140	8a 0a		 mov	 cl, BYTE PTR [edx]
  00142	8d 52 01	 lea	 edx, DWORD PTR [edx+1]
  00145	88 4c 10 ff	 mov	 BYTE PTR [eax+edx-1], cl
  00149	84 c9		 test	 cl, cl
  0014b	75 f3		 jne	 SHORT $LL23@OnLButtonU

; 56   : 
; 57   : 		if(m_szValue)

  0014d	8b 47 0c	 mov	 eax, DWORD PTR [edi+12]
  00150	85 c0		 test	 eax, eax
  00152	74 09		 je	 SHORT $LN21@OnLButtonU

; 58   : 			delete [] m_szValue;

  00154	50		 push	 eax
  00155	e8 00 00 00 00	 call	 ??_V@YAXPAX@Z		; operator delete[]
  0015a	83 c4 04	 add	 esp, 4
$LN21@OnLButtonU:

; 59   : 
; 60   : 		m_szValue = new char[::strlen(szValue) + 1];

  0015d	8b ce		 mov	 ecx, esi
  0015f	8d 51 01	 lea	 edx, DWORD PTR [ecx+1]
$LL39@OnLButtonU:
  00162	8a 01		 mov	 al, BYTE PTR [ecx]
  00164	41		 inc	 ecx
  00165	84 c0		 test	 al, al
  00167	75 f9		 jne	 SHORT $LL39@OnLButtonU
  00169	2b ca		 sub	 ecx, edx
  0016b	8d 41 01	 lea	 eax, DWORD PTR [ecx+1]
  0016e	50		 push	 eax
  0016f	e8 00 00 00 00	 call	 ??_U@YAPAXI@Z		; operator new[]
  00174	83 c4 04	 add	 esp, 4
  00177	89 47 0c	 mov	 DWORD PTR [edi+12], eax
  0017a	2b c6		 sub	 eax, esi
  0017c	0f 1f 40 00	 npad	 4
$LL24@OnLButtonU:

; 61   : 		::strcpy(m_szValue, szValue);

  00180	8a 0e		 mov	 cl, BYTE PTR [esi]
  00182	8d 76 01	 lea	 esi, DWORD PTR [esi+1]
  00185	88 4c 30 ff	 mov	 BYTE PTR [eax+esi-1], cl
  00189	84 c9		 test	 cl, cl
  0018b	75 f3		 jne	 SHORT $LL24@OnLButtonU
; File C:\Program Files (x86)\Microsoft Visual Studio\2019\Community\VC\Tools\MSVC\14.29.30133\atlmfc\include\afxwin2.inl

; 213  : 	{ ASSERT(::IsWindow(m_hWnd)); return CWnd::FromHandle(::GetParent(m_hWnd)); }

  0018d	8b 35 00 00 00
	00		 mov	 esi, DWORD PTR __imp__GetParent@4
; File D:\git\src\IBK\IBK_DRFN\ProjSrc\SrcDrfn\Chart\comparechart\define\DragNDropDefine.h

; 63   : 		m_bDelete = bDelete;

  00193	c7 47 10 01 00
	00 00		 mov	 DWORD PTR [edi+16], 1
; File C:\Program Files (x86)\Microsoft Visual Studio\2019\Community\VC\Tools\MSVC\14.29.30133\atlmfc\include\afxwin2.inl

; 213  : 	{ ASSERT(::IsWindow(m_hWnd)); return CWnd::FromHandle(::GetParent(m_hWnd)); }

  0019a	ff 73 20	 push	 DWORD PTR [ebx+32]
  0019d	ff d6		 call	 esi
  0019f	50		 push	 eax
  001a0	e8 00 00 00 00	 call	 ?FromHandle@CWnd@@SGPAV1@PAUHWND__@@@Z ; CWnd::FromHandle
  001a5	ff 70 20	 push	 DWORD PTR [eax+32]
  001a8	ff d6		 call	 esi
  001aa	50		 push	 eax
  001ab	e8 00 00 00 00	 call	 ?FromHandle@CWnd@@SGPAV1@PAUHWND__@@@Z ; CWnd::FromHandle

; 32   : 	{ ASSERT(::IsWindow(m_hWnd)); return ::SendMessage(m_hWnd, message, wParam, lParam); }

  001b0	57		 push	 edi
  001b1	6a 00		 push	 0
  001b3	ff 35 00 00 00
	00		 push	 DWORD PTR ?RMSG_DRAGEND@@3IB
  001b9	ff 70 20	 push	 DWORD PTR [eax+32]
  001bc	ff 15 00 00 00
	00		 call	 DWORD PTR __imp__SendMessageA@16
; File D:\git\src\IBK\IBK_DRFN\ProjSrc\SrcDrfn\Chart\comparechart\control\TrTreeCtrl.cpp

; 223  : 		}

  001c2	8d 4d ec	 lea	 ecx, DWORD PTR _selString$4[ebp]
  001c5	ff 15 00 00 00
	00		 call	 DWORD PTR __imp_??1?$CStringT@DV?$StrTraitMFC_DLL@DV?$ChTraitsCRT@D@ATL@@@@@ATL@@QAE@XZ
  001cb	8d 4d f0	 lea	 ecx, DWORD PTR _strPacketShared$5[ebp]
  001ce	c7 45 fc ff ff
	ff ff		 mov	 DWORD PTR __$EHRec$[ebp+8], -1
  001d5	ff 15 00 00 00
	00		 call	 DWORD PTR __imp_??1?$CStringT@DV?$StrTraitMFC_DLL@DV?$ChTraitsCRT@D@ATL@@@@@ATL@@QAE@XZ
$LN3@OnLButtonU:

; 224  : 		m_bDragNDrop = FALSE;

  001db	c7 83 88 00 00
	00 00 00 00 00	 mov	 DWORD PTR [ebx+136], 0
$LN2@OnLButtonU:
; File C:\Program Files (x86)\Microsoft Visual Studio\2019\Community\VC\Tools\MSVC\14.29.30133\atlmfc\include\afxwin2.inl

; 434  : 	{ Default(); }

  001e5	8b cb		 mov	 ecx, ebx
  001e7	e8 00 00 00 00	 call	 ?Default@CWnd@@IAEJXZ	; CWnd::Default
; File D:\git\src\IBK\IBK_DRFN\ProjSrc\SrcDrfn\Chart\comparechart\control\TrTreeCtrl.cpp

; 228  : }

  001ec	8b 4d f4	 mov	 ecx, DWORD PTR __$EHRec$[ebp]
  001ef	64 89 0d 00 00
	00 00		 mov	 DWORD PTR fs:0, ecx
  001f6	59		 pop	 ecx
  001f7	5f		 pop	 edi
  001f8	5e		 pop	 esi
  001f9	5b		 pop	 ebx
  001fa	8b e5		 mov	 esp, ebp
  001fc	5d		 pop	 ebp
  001fd	c2 0c 00	 ret	 12			; 0000000cH
_TEXT	ENDS
;	COMDAT text$x
text$x	SEGMENT
__unwindfunclet$?OnLButtonUp@CTrTreeCtrl@@IAEXIVCPoint@@@Z$1:
  00000	8d 4d f0	 lea	 ecx, DWORD PTR _strPacketShared$5[ebp]
  00003	ff 25 00 00 00
	00		 jmp	 DWORD PTR __imp_??1?$CStringT@DV?$StrTraitMFC_DLL@DV?$ChTraitsCRT@D@ATL@@@@@ATL@@QAE@XZ
__unwindfunclet$?OnLButtonUp@CTrTreeCtrl@@IAEXIVCPoint@@@Z$2:
  00009	8d 4d ec	 lea	 ecx, DWORD PTR _selString$4[ebp]
  0000c	ff 25 00 00 00
	00		 jmp	 DWORD PTR __imp_??1?$CStringT@DV?$StrTraitMFC_DLL@DV?$ChTraitsCRT@D@ATL@@@@@ATL@@QAE@XZ
  00012	cc		 int	 3
  00013	cc		 int	 3
  00014	cc		 int	 3
  00015	cc		 int	 3
  00016	cc		 int	 3
__ehhandler$?OnLButtonUp@CTrTreeCtrl@@IAEXIVCPoint@@@Z:
  00017	90		 npad	 1
  00018	90		 npad	 1
  00019	8b 54 24 08	 mov	 edx, DWORD PTR [esp+8]
  0001d	8d 42 0c	 lea	 eax, DWORD PTR [edx+12]
  00020	8b 4a dc	 mov	 ecx, DWORD PTR [edx-36]
  00023	33 c8		 xor	 ecx, eax
  00025	e8 00 00 00 00	 call	 @__security_check_cookie@4
  0002a	b8 00 00 00 00	 mov	 eax, OFFSET __ehfuncinfo$?OnLButtonUp@CTrTreeCtrl@@IAEXIVCPoint@@@Z
  0002f	e9 00 00 00 00	 jmp	 ___CxxFrameHandler3
text$x	ENDS
?OnLButtonUp@CTrTreeCtrl@@IAEXIVCPoint@@@Z ENDP		; CTrTreeCtrl::OnLButtonUp
; Function compile flags: /Ogtp
; File D:\git\src\IBK\IBK_DRFN\ProjSrc\SrcDrfn\Chart\comparechart\control\TrTreeCtrl.cpp
; File C:\Program Files (x86)\Microsoft Visual Studio\2019\Community\VC\Tools\MSVC\14.29.30133\atlmfc\include\afxwin2.inl
; File D:\git\src\IBK\IBK_DRFN\ProjSrc\SrcDrfn\Chart\comparechart\control\TrTreeCtrl.cpp
; File C:\Program Files (x86)\Microsoft Visual Studio\2019\Community\VC\Tools\MSVC\14.29.30133\atlmfc\include\afxwin2.inl
; File D:\git\src\IBK\IBK_DRFN\ProjSrc\SrcDrfn\Chart\comparechart\control\TrTreeCtrl.cpp
;	COMDAT ?OnBegindrag@CTrTreeCtrl@@IAEXPAUtagNMHDR@@PAJ@Z
_TEXT	SEGMENT
_pNMHDR$ = 8						; size = 4
_pResult$ = 12						; size = 4
?OnBegindrag@CTrTreeCtrl@@IAEXPAUtagNMHDR@@PAJ@Z PROC	; CTrTreeCtrl::OnBegindrag, COMDAT
; _this$ = ecx

; 194  : {

  00000	55		 push	 ebp
  00001	8b ec		 mov	 ebp, esp
; File C:\Program Files (x86)\Microsoft Visual Studio\2019\Community\VC\Tools\MSVC\14.29.30133\atlmfc\include\afxwin2.inl

; 163  : 	{ ASSERT(::IsWindow(m_hWnd)); return CWnd::FromHandle(::SetCapture(m_hWnd)); }

  00003	ff 71 20	 push	 DWORD PTR [ecx+32]
; File D:\git\src\IBK\IBK_DRFN\ProjSrc\SrcDrfn\Chart\comparechart\control\TrTreeCtrl.cpp

; 197  : 	m_bLBtnDown = TRUE;

  00006	c7 81 84 00 00
	00 01 00 00 00	 mov	 DWORD PTR [ecx+132], 1
; File C:\Program Files (x86)\Microsoft Visual Studio\2019\Community\VC\Tools\MSVC\14.29.30133\atlmfc\include\afxwin2.inl

; 163  : 	{ ASSERT(::IsWindow(m_hWnd)); return CWnd::FromHandle(::SetCapture(m_hWnd)); }

  00010	ff 15 00 00 00
	00		 call	 DWORD PTR __imp__SetCapture@4
  00016	50		 push	 eax
  00017	e8 00 00 00 00	 call	 ?FromHandle@CWnd@@SGPAV1@PAUHWND__@@@Z ; CWnd::FromHandle
; File D:\git\src\IBK\IBK_DRFN\ProjSrc\SrcDrfn\Chart\comparechart\control\TrTreeCtrl.cpp

; 199  : 	*pResult = 0;

  0001c	8b 45 0c	 mov	 eax, DWORD PTR _pResult$[ebp]
  0001f	c7 00 00 00 00
	00		 mov	 DWORD PTR [eax], 0

; 200  : }

  00025	5d		 pop	 ebp
  00026	c2 08 00	 ret	 8
?OnBegindrag@CTrTreeCtrl@@IAEXPAUtagNMHDR@@PAJ@Z ENDP	; CTrTreeCtrl::OnBegindrag
_TEXT	ENDS
; Function compile flags: /Ogtp
; File D:\git\src\IBK\IBK_DRFN\ProjSrc\SrcDrfn\Chart\comparechart\control\TrTreeCtrl.cpp
; File C:\Program Files (x86)\Microsoft Visual Studio\2019\Community\VC\Tools\MSVC\14.29.30133\atlmfc\include\afxcmn.inl
; File D:\git\src\IBK\IBK_DRFN\ProjSrc\SrcDrfn\Chart\comparechart\control\TrTreeCtrl.cpp
; File C:\Program Files (x86)\Microsoft Visual Studio\2019\Community\VC\Tools\MSVC\14.29.30133\atlmfc\include\afxwin2.inl
; File C:\Program Files (x86)\Microsoft Visual Studio\2019\Community\VC\Tools\MSVC\14.29.30133\atlmfc\include\atlsimpstr.h
; File C:\Program Files (x86)\Microsoft Visual Studio\2019\Community\VC\Tools\MSVC\14.29.30133\atlmfc\include\afxwin2.inl
; File D:\git\src\IBK\IBK_DRFN\ProjSrc\SrcDrfn\Chart\comparechart\control\TrTreeCtrl.cpp
; File C:\Program Files (x86)\Microsoft Visual Studio\2019\Community\VC\Tools\MSVC\14.29.30133\atlmfc\include\afxwin2.inl
; File D:\git\src\IBK\IBK_DRFN\ProjSrc\SrcDrfn\Chart\comparechart\control\TrTreeCtrl.cpp
;	COMDAT ?OnRButtonDown@CTrTreeCtrl@@IAEXIVCPoint@@@Z
_TEXT	SEGMENT
_uFlags$ = -20						; size = 4
_selString$ = -16					; size = 4
__$EHRec$ = -12						; size = 12
_nFlags$ = 8						; size = 4
_point$ = 12						; size = 8
?OnRButtonDown@CTrTreeCtrl@@IAEXIVCPoint@@@Z PROC	; CTrTreeCtrl::OnRButtonDown, COMDAT
; _this$ = ecx

; 164  : {

  00000	55		 push	 ebp
  00001	8b ec		 mov	 ebp, esp
  00003	6a ff		 push	 -1
  00005	68 00 00 00 00	 push	 __ehhandler$?OnRButtonDown@CTrTreeCtrl@@IAEXIVCPoint@@@Z
  0000a	64 a1 00 00 00
	00		 mov	 eax, DWORD PTR fs:0
  00010	50		 push	 eax
  00011	83 ec 08	 sub	 esp, 8
  00014	53		 push	 ebx
  00015	56		 push	 esi
  00016	57		 push	 edi
  00017	a1 00 00 00 00	 mov	 eax, DWORD PTR ___security_cookie
  0001c	33 c5		 xor	 eax, ebp
  0001e	50		 push	 eax
  0001f	8d 45 f4	 lea	 eax, DWORD PTR __$EHRec$[ebp]
  00022	64 a3 00 00 00
	00		 mov	 DWORD PTR fs:0, eax
  00028	8b d9		 mov	 ebx, ecx

; 165  : 	// TODO: Add your message handler code here and/or call 
; 166  : 	UINT uFlags;
; 167  : 	HTREEITEM hSelItem = HitTest(point, &uFlags);

  0002a	8d 45 ec	 lea	 eax, DWORD PTR _uFlags$[ebp]
  0002d	50		 push	 eax
  0002e	ff 75 10	 push	 DWORD PTR _point$[ebp+4]
  00031	ff 75 0c	 push	 DWORD PTR _point$[ebp]
  00034	e8 00 00 00 00	 call	 ?HitTest@CTreeCtrl@@QBEPAU_TREEITEM@@VCPoint@@PAI@Z ; CTreeCtrl::HitTest
  00039	8b f0		 mov	 esi, eax

; 168  : 
; 169  : 	if (hSelItem != NULL)

  0003b	85 f6		 test	 esi, esi
  0003d	74 78		 je	 SHORT $LN4@OnRButtonD

; 170  : 	{
; 171  : 		if (TVHT_ONITEM & uFlags)

  0003f	f6 45 ec 46	 test	 BYTE PTR _uFlags$[ebp], 70 ; 00000046H
  00043	74 72		 je	 SHORT $LN4@OnRButtonD
; File C:\Program Files (x86)\Microsoft Visual Studio\2019\Community\VC\Tools\MSVC\14.29.30133\atlmfc\include\afxcmn.inl

; 326  : 	{ ASSERT(::IsWindow(m_hWnd)); return (BOOL) ::SendMessage(m_hWnd, TVM_SELECTITEM, TVGN_CARET, (LPARAM)hItem); }

  00045	56		 push	 esi
  00046	6a 09		 push	 9
  00048	68 0b 11 00 00	 push	 4363			; 0000110bH
  0004d	ff 73 20	 push	 DWORD PTR [ebx+32]
  00050	ff 15 00 00 00
	00		 call	 DWORD PTR __imp__SendMessageA@16
; File D:\git\src\IBK\IBK_DRFN\ProjSrc\SrcDrfn\Chart\comparechart\control\TrTreeCtrl.cpp

; 184  : 	if(ItemHasChildren(hSelItem))

  00056	56		 push	 esi
  00057	8b cb		 mov	 ecx, ebx
  00059	e8 00 00 00 00	 call	 ?ItemHasChildren@CTreeCtrl@@QBEHPAU_TREEITEM@@@Z ; CTreeCtrl::ItemHasChildren
  0005e	85 c0		 test	 eax, eax
  00060	75 55		 jne	 SHORT $LN4@OnRButtonD

; 187  : 	CString selString = GetItemText(hSelItem);

  00062	56		 push	 esi
  00063	8d 45 f0	 lea	 eax, DWORD PTR _selString$[ebp]
  00066	8b cb		 mov	 ecx, ebx
  00068	50		 push	 eax
  00069	e8 00 00 00 00	 call	 ?GetItemText@CTreeCtrl@@QBE?AV?$CStringT@DV?$StrTraitMFC_DLL@DV?$ChTraitsCRT@D@ATL@@@@@ATL@@PAU_TREEITEM@@@Z ; CTreeCtrl::GetItemText
; File C:\Program Files (x86)\Microsoft Visual Studio\2019\Community\VC\Tools\MSVC\14.29.30133\atlmfc\include\afxwin2.inl

; 213  : 	{ ASSERT(::IsWindow(m_hWnd)); return CWnd::FromHandle(::GetParent(m_hWnd)); }

  0006e	ff 73 20	 push	 DWORD PTR [ebx+32]
; File C:\Program Files (x86)\Microsoft Visual Studio\2019\Community\VC\Tools\MSVC\14.29.30133\atlmfc\include\atlsimpstr.h

; 377  : 		return( m_pszData );

  00071	8b 7d f0	 mov	 edi, DWORD PTR _selString$[ebp]
; File C:\Program Files (x86)\Microsoft Visual Studio\2019\Community\VC\Tools\MSVC\14.29.30133\atlmfc\include\afxwin2.inl

; 213  : 	{ ASSERT(::IsWindow(m_hWnd)); return CWnd::FromHandle(::GetParent(m_hWnd)); }

  00074	8b 35 00 00 00
	00		 mov	 esi, DWORD PTR __imp__GetParent@4
; File D:\git\src\IBK\IBK_DRFN\ProjSrc\SrcDrfn\Chart\comparechart\control\TrTreeCtrl.cpp

; 187  : 	CString selString = GetItemText(hSelItem);

  0007a	c7 45 fc 00 00
	00 00		 mov	 DWORD PTR __$EHRec$[ebp+8], 0
; File C:\Program Files (x86)\Microsoft Visual Studio\2019\Community\VC\Tools\MSVC\14.29.30133\atlmfc\include\afxwin2.inl

; 213  : 	{ ASSERT(::IsWindow(m_hWnd)); return CWnd::FromHandle(::GetParent(m_hWnd)); }

  00081	ff d6		 call	 esi
  00083	50		 push	 eax
  00084	e8 00 00 00 00	 call	 ?FromHandle@CWnd@@SGPAV1@PAUHWND__@@@Z ; CWnd::FromHandle
  00089	ff 70 20	 push	 DWORD PTR [eax+32]
  0008c	ff d6		 call	 esi
  0008e	50		 push	 eax
  0008f	e8 00 00 00 00	 call	 ?FromHandle@CWnd@@SGPAV1@PAUHWND__@@@Z ; CWnd::FromHandle

; 32   : 	{ ASSERT(::IsWindow(m_hWnd)); return ::SendMessage(m_hWnd, message, wParam, lParam); }

  00094	57		 push	 edi
  00095	8d 4d 0c	 lea	 ecx, DWORD PTR _point$[ebp]
  00098	51		 push	 ecx
  00099	68 65 06 00 00	 push	 1637			; 00000665H
  0009e	ff 70 20	 push	 DWORD PTR [eax+32]
  000a1	ff 15 00 00 00
	00		 call	 DWORD PTR __imp__SendMessageA@16

; 462  : 	{ Default(); }

  000a7	8b cb		 mov	 ecx, ebx
  000a9	e8 00 00 00 00	 call	 ?Default@CWnd@@IAEJXZ	; CWnd::Default
; File D:\git\src\IBK\IBK_DRFN\ProjSrc\SrcDrfn\Chart\comparechart\control\TrTreeCtrl.cpp

; 191  : }

  000ae	8d 4d f0	 lea	 ecx, DWORD PTR _selString$[ebp]
  000b1	ff 15 00 00 00
	00		 call	 DWORD PTR __imp_??1?$CStringT@DV?$StrTraitMFC_DLL@DV?$ChTraitsCRT@D@ATL@@@@@ATL@@QAE@XZ
$LN4@OnRButtonD:
  000b7	8b 4d f4	 mov	 ecx, DWORD PTR __$EHRec$[ebp]
  000ba	64 89 0d 00 00
	00 00		 mov	 DWORD PTR fs:0, ecx
  000c1	59		 pop	 ecx
  000c2	5f		 pop	 edi
  000c3	5e		 pop	 esi
  000c4	5b		 pop	 ebx
  000c5	8b e5		 mov	 esp, ebp
  000c7	5d		 pop	 ebp
  000c8	c2 0c 00	 ret	 12			; 0000000cH
_TEXT	ENDS
;	COMDAT text$x
text$x	SEGMENT
__unwindfunclet$?OnRButtonDown@CTrTreeCtrl@@IAEXIVCPoint@@@Z$0:
  00000	8d 4d f0	 lea	 ecx, DWORD PTR _selString$[ebp]
  00003	ff 25 00 00 00
	00		 jmp	 DWORD PTR __imp_??1?$CStringT@DV?$StrTraitMFC_DLL@DV?$ChTraitsCRT@D@ATL@@@@@ATL@@QAE@XZ
  00009	cc		 int	 3
  0000a	cc		 int	 3
  0000b	cc		 int	 3
  0000c	cc		 int	 3
  0000d	cc		 int	 3
__ehhandler$?OnRButtonDown@CTrTreeCtrl@@IAEXIVCPoint@@@Z:
  0000e	90		 npad	 1
  0000f	90		 npad	 1
  00010	8b 54 24 08	 mov	 edx, DWORD PTR [esp+8]
  00014	8d 42 0c	 lea	 eax, DWORD PTR [edx+12]
  00017	8b 4a e8	 mov	 ecx, DWORD PTR [edx-24]
  0001a	33 c8		 xor	 ecx, eax
  0001c	e8 00 00 00 00	 call	 @__security_check_cookie@4
  00021	b8 00 00 00 00	 mov	 eax, OFFSET __ehfuncinfo$?OnRButtonDown@CTrTreeCtrl@@IAEXIVCPoint@@@Z
  00026	e9 00 00 00 00	 jmp	 ___CxxFrameHandler3
text$x	ENDS
?OnRButtonDown@CTrTreeCtrl@@IAEXIVCPoint@@@Z ENDP	; CTrTreeCtrl::OnRButtonDown
; Function compile flags: /Ogtp
; File D:\git\src\IBK\IBK_DRFN\ProjSrc\SrcDrfn\Chart\comparechart\control\TrTreeCtrl.cpp
; File C:\Program Files (x86)\Microsoft Visual Studio\2019\Community\VC\Tools\MSVC\14.29.30133\atlmfc\include\afxcmn.inl
; File D:\git\src\IBK\IBK_DRFN\ProjSrc\SrcDrfn\Chart\comparechart\control\TrTreeCtrl.cpp
; File C:\Program Files (x86)\Microsoft Visual Studio\2019\Community\VC\Tools\MSVC\14.29.30133\atlmfc\include\afxcmn.inl
; File C:\Program Files (x86)\Microsoft Visual Studio\2019\Community\VC\Tools\MSVC\14.29.30133\atlmfc\include\afxwin2.inl
; File D:\git\src\IBK\IBK_DRFN\ProjSrc\SrcDrfn\Chart\comparechart\control\TrTreeCtrl.cpp
;	COMDAT ?OnLButtonDown@CTrTreeCtrl@@IAEXIVCPoint@@@Z
_TEXT	SEGMENT
_nHF$ = -4						; size = 4
_nFlags$ = 8						; size = 4
_point$ = 12						; size = 8
?OnLButtonDown@CTrTreeCtrl@@IAEXIVCPoint@@@Z PROC	; CTrTreeCtrl::OnLButtonDown, COMDAT
; _this$ = ecx

; 136  : {

  00000	55		 push	 ebp
  00001	8b ec		 mov	 ebp, esp
  00003	51		 push	 ecx
  00004	56		 push	 esi

; 139  : 	m_hSelTreeItem = HitTest(point, &nHF);

  00005	8d 45 fc	 lea	 eax, DWORD PTR _nHF$[ebp]
  00008	8b f1		 mov	 esi, ecx
  0000a	50		 push	 eax
  0000b	ff 75 10	 push	 DWORD PTR _point$[ebp+4]
  0000e	ff 75 0c	 push	 DWORD PTR _point$[ebp]
  00011	e8 00 00 00 00	 call	 ?HitTest@CTreeCtrl@@QBEPAU_TREEITEM@@VCPoint@@PAI@Z ; CTreeCtrl::HitTest
; File C:\Program Files (x86)\Microsoft Visual Studio\2019\Community\VC\Tools\MSVC\14.29.30133\atlmfc\include\afxcmn.inl

; 326  : 	{ ASSERT(::IsWindow(m_hWnd)); return (BOOL) ::SendMessage(m_hWnd, TVM_SELECTITEM, TVGN_CARET, (LPARAM)hItem); }

  00016	50		 push	 eax
  00017	6a 09		 push	 9
  00019	68 0b 11 00 00	 push	 4363			; 0000110bH
  0001e	ff 76 20	 push	 DWORD PTR [esi+32]
; File D:\git\src\IBK\IBK_DRFN\ProjSrc\SrcDrfn\Chart\comparechart\control\TrTreeCtrl.cpp

; 139  : 	m_hSelTreeItem = HitTest(point, &nHF);

  00021	89 86 80 00 00
	00		 mov	 DWORD PTR [esi+128], eax
; File C:\Program Files (x86)\Microsoft Visual Studio\2019\Community\VC\Tools\MSVC\14.29.30133\atlmfc\include\afxcmn.inl

; 326  : 	{ ASSERT(::IsWindow(m_hWnd)); return (BOOL) ::SendMessage(m_hWnd, TVM_SELECTITEM, TVGN_CARET, (LPARAM)hItem); }

  00027	ff 15 00 00 00
	00		 call	 DWORD PTR __imp__SendMessageA@16
; File C:\Program Files (x86)\Microsoft Visual Studio\2019\Community\VC\Tools\MSVC\14.29.30133\atlmfc\include\afxwin2.inl

; 432  : 	{ Default(); }

  0002d	8b ce		 mov	 ecx, esi
  0002f	e8 00 00 00 00	 call	 ?Default@CWnd@@IAEJXZ	; CWnd::Default
  00034	5e		 pop	 esi
; File D:\git\src\IBK\IBK_DRFN\ProjSrc\SrcDrfn\Chart\comparechart\control\TrTreeCtrl.cpp

; 143  : }

  00035	8b e5		 mov	 esp, ebp
  00037	5d		 pop	 ebp
  00038	c2 0c 00	 ret	 12			; 0000000cH
?OnLButtonDown@CTrTreeCtrl@@IAEXIVCPoint@@@Z ENDP	; CTrTreeCtrl::OnLButtonDown
_TEXT	ENDS
; Function compile flags: /Ogtp
; File D:\git\src\IBK\IBK_DRFN\ProjSrc\SrcDrfn\Chart\comparechart\control\TrTreeCtrl.cpp
; File C:\Program Files (x86)\Microsoft Visual Studio\2019\Community\VC\Tools\MSVC\14.29.30133\atlmfc\include\afxcmn.inl
; File D:\git\src\IBK\IBK_DRFN\ProjSrc\SrcDrfn\Chart\comparechart\control\TrTreeCtrl.cpp
;	COMDAT ?OnSelchanged@CTrTreeCtrl@@IAEXPAUtagNMHDR@@PAJ@Z
_TEXT	SEGMENT
_szTr$ = -16						; size = 4
__$EHRec$ = -12						; size = 12
_pNMHDR$ = 8						; size = 4
_pResult$ = 12						; size = 4
?OnSelchanged@CTrTreeCtrl@@IAEXPAUtagNMHDR@@PAJ@Z PROC	; CTrTreeCtrl::OnSelchanged, COMDAT
; _this$ = ecx

; 91   : {

  00000	55		 push	 ebp
  00001	8b ec		 mov	 ebp, esp
  00003	6a ff		 push	 -1
  00005	68 00 00 00 00	 push	 __ehhandler$?OnSelchanged@CTrTreeCtrl@@IAEXPAUtagNMHDR@@PAJ@Z
  0000a	64 a1 00 00 00
	00		 mov	 eax, DWORD PTR fs:0
  00010	50		 push	 eax
  00011	51		 push	 ecx
  00012	56		 push	 esi
  00013	57		 push	 edi
  00014	a1 00 00 00 00	 mov	 eax, DWORD PTR ___security_cookie
  00019	33 c5		 xor	 eax, ebp
  0001b	50		 push	 eax
  0001c	8d 45 f4	 lea	 eax, DWORD PTR __$EHRec$[ebp]
  0001f	64 a3 00 00 00
	00		 mov	 DWORD PTR fs:0, eax
  00025	8b f1		 mov	 esi, ecx
; File C:\Program Files (x86)\Microsoft Visual Studio\2019\Community\VC\Tools\MSVC\14.29.30133\atlmfc\include\afxcmn.inl

; 316  : 	{ ASSERT(::IsWindow(m_hWnd)); return (HTREEITEM)::SendMessage(m_hWnd, TVM_GETNEXTITEM, TVGN_CARET, 0); }

  00027	6a 00		 push	 0
  00029	6a 09		 push	 9
  0002b	68 0a 11 00 00	 push	 4362			; 0000110aH
  00030	ff 76 20	 push	 DWORD PTR [esi+32]
  00033	ff 15 00 00 00
	00		 call	 DWORD PTR __imp__SendMessageA@16
; File D:\git\src\IBK\IBK_DRFN\ProjSrc\SrcDrfn\Chart\comparechart\control\TrTreeCtrl.cpp

; 94   : 	HTREEITEM hItem = GetSelectedItem();

  00039	8b f8		 mov	 edi, eax

; 95   : 	if(hItem == NULL)

  0003b	85 ff		 test	 edi, edi
  0003d	74 59		 je	 SHORT $LN1@OnSelchang

; 96   : 		return;
; 97   : 
; 98   : 	if(ItemHasChildren(hItem))

  0003f	57		 push	 edi
  00040	8b ce		 mov	 ecx, esi
  00042	e8 00 00 00 00	 call	 ?ItemHasChildren@CTreeCtrl@@QBEHPAU_TREEITEM@@@Z ; CTreeCtrl::ItemHasChildren
  00047	85 c0		 test	 eax, eax
  00049	75 4d		 jne	 SHORT $LN1@OnSelchang

; 99   : 		return;
; 100  : 
; 101  : //	CTrFileData* pTrFileData = (CTrFileData*)GetItemData(hItem);
; 102  : //	CTFMenuitemInfo* pMenuitemInfo = (CTFMenuitemInfo*)pTrFileData->m_pClass;
; 103  : 
; 104  : 	long lTest = (long)GetItemData(hItem);

  0004b	57		 push	 edi
  0004c	8b ce		 mov	 ecx, esi
  0004e	e8 00 00 00 00	 call	 ?GetItemData@CTreeCtrl@@QBEKPAU_TREEITEM@@@Z ; CTreeCtrl::GetItemData

; 105  : 
; 106  : 	CString szTr;

  00053	8d 4d f0	 lea	 ecx, DWORD PTR _szTr$[ebp]
  00056	8b f0		 mov	 esi, eax
  00058	ff 15 00 00 00
	00		 call	 DWORD PTR __imp_??0?$CStringT@DV?$StrTraitMFC_DLL@DV?$ChTraitsCRT@D@ATL@@@@@ATL@@QAE@XZ

; 107  : 	szTr.Format("%4.4d",lTest);

  0005e	56		 push	 esi
  0005f	8d 45 f0	 lea	 eax, DWORD PTR _szTr$[ebp]
  00062	c7 45 fc 00 00
	00 00		 mov	 DWORD PTR __$EHRec$[ebp+8], 0
  00069	68 00 00 00 00	 push	 OFFSET ??_C@_05CPODOPHN@?$CF4?44d@
  0006e	50		 push	 eax
  0006f	ff 15 00 00 00
	00		 call	 DWORD PTR __imp_?Format@?$CStringT@DV?$StrTraitMFC_DLL@DV?$ChTraitsCRT@D@ATL@@@@@ATL@@QAAXPBDZZ
  00075	83 c4 0c	 add	 esp, 12			; 0000000cH

; 108  : 	szTr += "0";

  00078	8d 4d f0	 lea	 ecx, DWORD PTR _szTr$[ebp]
  0007b	68 00 00 00 00	 push	 OFFSET ??_C@_01GBGANLPD@0@
  00080	ff 15 00 00 00
	00		 call	 DWORD PTR __imp_??Y?$CStringT@DV?$StrTraitMFC_DLL@DV?$ChTraitsCRT@D@ATL@@@@@ATL@@QAEAAV01@PBD@Z

; 109  : 	
; 110  : //	AfxGetMainWnd()->SendMessage(UDM_MAP_OPEN_SEARCH, 0, (LPARAM)(LPTSTR)(LPCTSTR)szTr);
; 111  : 
; 112  : 	//CString selString = GetItemText(hItem);
; 113  : 	//CString szTr = GetTrString(selString);
; 114  : 
; 115  : 
; 116  : 
; 117  : 	
; 118  : 	*pResult = 0;

  00086	8b 45 0c	 mov	 eax, DWORD PTR _pResult$[ebp]

; 119  : }

  00089	8d 4d f0	 lea	 ecx, DWORD PTR _szTr$[ebp]
  0008c	c7 00 00 00 00
	00		 mov	 DWORD PTR [eax], 0
  00092	ff 15 00 00 00
	00		 call	 DWORD PTR __imp_??1?$CStringT@DV?$StrTraitMFC_DLL@DV?$ChTraitsCRT@D@ATL@@@@@ATL@@QAE@XZ
$LN1@OnSelchang:
  00098	8b 4d f4	 mov	 ecx, DWORD PTR __$EHRec$[ebp]
  0009b	64 89 0d 00 00
	00 00		 mov	 DWORD PTR fs:0, ecx
  000a2	59		 pop	 ecx
  000a3	5f		 pop	 edi
  000a4	5e		 pop	 esi
  000a5	8b e5		 mov	 esp, ebp
  000a7	5d		 pop	 ebp
  000a8	c2 08 00	 ret	 8
_TEXT	ENDS
;	COMDAT text$x
text$x	SEGMENT
__unwindfunclet$?OnSelchanged@CTrTreeCtrl@@IAEXPAUtagNMHDR@@PAJ@Z$0:
  00000	8d 4d f0	 lea	 ecx, DWORD PTR _szTr$[ebp]
  00003	ff 25 00 00 00
	00		 jmp	 DWORD PTR __imp_??1?$CStringT@DV?$StrTraitMFC_DLL@DV?$ChTraitsCRT@D@ATL@@@@@ATL@@QAE@XZ
  00009	cc		 int	 3
  0000a	cc		 int	 3
  0000b	cc		 int	 3
  0000c	cc		 int	 3
  0000d	cc		 int	 3
__ehhandler$?OnSelchanged@CTrTreeCtrl@@IAEXPAUtagNMHDR@@PAJ@Z:
  0000e	90		 npad	 1
  0000f	90		 npad	 1
  00010	8b 54 24 08	 mov	 edx, DWORD PTR [esp+8]
  00014	8d 42 0c	 lea	 eax, DWORD PTR [edx+12]
  00017	8b 4a f0	 mov	 ecx, DWORD PTR [edx-16]
  0001a	33 c8		 xor	 ecx, eax
  0001c	e8 00 00 00 00	 call	 @__security_check_cookie@4
  00021	b8 00 00 00 00	 mov	 eax, OFFSET __ehfuncinfo$?OnSelchanged@CTrTreeCtrl@@IAEXPAUtagNMHDR@@PAJ@Z
  00026	e9 00 00 00 00	 jmp	 ___CxxFrameHandler3
text$x	ENDS
?OnSelchanged@CTrTreeCtrl@@IAEXPAUtagNMHDR@@PAJ@Z ENDP	; CTrTreeCtrl::OnSelchanged
; Function compile flags: /Ogtp
; File D:\git\src\IBK\IBK_DRFN\ProjSrc\SrcDrfn\Chart\comparechart\control\TrTreeCtrl.cpp
; File C:\Program Files (x86)\Microsoft Visual Studio\2019\Community\VC\Tools\MSVC\14.29.30133\atlmfc\include\afxwin2.inl
; File D:\git\src\IBK\IBK_DRFN\ProjSrc\SrcDrfn\Chart\comparechart\control\TrTreeCtrl.cpp
;	COMDAT ?OnClick@CTrTreeCtrl@@IAEXPAUtagNMHDR@@PAJ@Z
_TEXT	SEGMENT
_pNMHDR$ = 8						; size = 4
_pResult$ = 12						; size = 4
?OnClick@CTrTreeCtrl@@IAEXPAUtagNMHDR@@PAJ@Z PROC	; CTrTreeCtrl::OnClick, COMDAT
; _this$ = ecx

; 70   : {

  00000	55		 push	 ebp
  00001	8b ec		 mov	 ebp, esp
  00003	56		 push	 esi
  00004	8b f1		 mov	 esi, ecx
  00006	57		 push	 edi

; 71   : 	//HTREEITEM hItem = GetSelectedItem();
; 72   : 	HTREEITEM hItem = m_hSelTreeItem;

  00007	8b be 80 00 00
	00		 mov	 edi, DWORD PTR [esi+128]

; 73   : 	if(hItem == NULL)

  0000d	85 ff		 test	 edi, edi
  0000f	74 4e		 je	 SHORT $LN1@OnClick

; 74   : 		return;
; 75   : 
; 76   : 	if(ItemHasChildren(hItem))

  00011	57		 push	 edi
  00012	e8 00 00 00 00	 call	 ?ItemHasChildren@CTreeCtrl@@QBEHPAU_TREEITEM@@@Z ; CTreeCtrl::ItemHasChildren
  00017	85 c0		 test	 eax, eax
  00019	75 44		 jne	 SHORT $LN1@OnClick

; 77   : 		return;
; 78   : 
; 79   : 	DWORD selData = GetItemData(hItem);

  0001b	57		 push	 edi
  0001c	8b ce		 mov	 ecx, esi
  0001e	e8 00 00 00 00	 call	 ?GetItemData@CTreeCtrl@@QBEKPAU_TREEITEM@@@Z ; CTreeCtrl::GetItemData
  00023	8b f8		 mov	 edi, eax

; 80   : 	if(selData)

  00025	85 ff		 test	 edi, edi
  00027	74 2d		 je	 SHORT $LN4@OnClick
; File C:\Program Files (x86)\Microsoft Visual Studio\2019\Community\VC\Tools\MSVC\14.29.30133\atlmfc\include\afxwin2.inl

; 213  : 	{ ASSERT(::IsWindow(m_hWnd)); return CWnd::FromHandle(::GetParent(m_hWnd)); }

  00029	ff 76 20	 push	 DWORD PTR [esi+32]
  0002c	8b 35 00 00 00
	00		 mov	 esi, DWORD PTR __imp__GetParent@4
  00032	ff d6		 call	 esi
  00034	50		 push	 eax
  00035	e8 00 00 00 00	 call	 ?FromHandle@CWnd@@SGPAV1@PAUHWND__@@@Z ; CWnd::FromHandle
  0003a	ff 70 20	 push	 DWORD PTR [eax+32]
  0003d	ff d6		 call	 esi
  0003f	50		 push	 eax
  00040	e8 00 00 00 00	 call	 ?FromHandle@CWnd@@SGPAV1@PAUHWND__@@@Z ; CWnd::FromHandle

; 32   : 	{ ASSERT(::IsWindow(m_hWnd)); return ::SendMessage(m_hWnd, message, wParam, lParam); }

  00045	57		 push	 edi
  00046	6a 00		 push	 0
  00048	68 64 06 00 00	 push	 1636			; 00000664H
  0004d	ff 70 20	 push	 DWORD PTR [eax+32]
  00050	ff 15 00 00 00
	00		 call	 DWORD PTR __imp__SendMessageA@16
$LN4@OnClick:
; File D:\git\src\IBK\IBK_DRFN\ProjSrc\SrcDrfn\Chart\comparechart\control\TrTreeCtrl.cpp

; 87   : 	*pResult = 0;

  00056	8b 45 0c	 mov	 eax, DWORD PTR _pResult$[ebp]
  00059	c7 00 00 00 00
	00		 mov	 DWORD PTR [eax], 0
$LN1@OnClick:

; 88   : }

  0005f	5f		 pop	 edi
  00060	5e		 pop	 esi
  00061	5d		 pop	 ebp
  00062	c2 08 00	 ret	 8
?OnClick@CTrTreeCtrl@@IAEXPAUtagNMHDR@@PAJ@Z ENDP	; CTrTreeCtrl::OnClick
_TEXT	ENDS
; Function compile flags: /Ogtp
; File D:\git\src\IBK\IBK_DRFN\ProjSrc\SrcDrfn\Chart\comparechart\control\TrTreeCtrl.cpp
; File C:\Program Files (x86)\Microsoft Visual Studio\2019\Community\VC\Tools\MSVC\14.29.30133\atlmfc\include\afxcmn.inl
; File D:\git\src\IBK\IBK_DRFN\ProjSrc\SrcDrfn\Chart\comparechart\control\TrTreeCtrl.cpp
; File C:\Program Files (x86)\Microsoft Visual Studio\2019\Community\VC\Tools\MSVC\14.29.30133\atlmfc\include\afxwin2.inl
; File C:\Program Files (x86)\Microsoft Visual Studio\2019\Community\VC\Tools\MSVC\14.29.30133\atlmfc\include\atlsimpstr.h
; File C:\Program Files (x86)\Microsoft Visual Studio\2019\Community\VC\Tools\MSVC\14.29.30133\atlmfc\include\afxwin2.inl
; File D:\git\src\IBK\IBK_DRFN\ProjSrc\SrcDrfn\Chart\comparechart\control\TrTreeCtrl.cpp
; File C:\Program Files (x86)\Microsoft Visual Studio\2019\Community\VC\Tools\MSVC\14.29.30133\atlmfc\include\afxwin2.inl
; File D:\git\src\IBK\IBK_DRFN\ProjSrc\SrcDrfn\Chart\comparechart\control\TrTreeCtrl.cpp
;	COMDAT ?OnDblclk@CTrTreeCtrl@@IAEXPAUtagNMHDR@@PAJ@Z
_TEXT	SEGMENT
_selString$ = -16					; size = 4
__$EHRec$ = -12						; size = 12
_pNMHDR$ = 8						; size = 4
_pResult$ = 12						; size = 4
?OnDblclk@CTrTreeCtrl@@IAEXPAUtagNMHDR@@PAJ@Z PROC	; CTrTreeCtrl::OnDblclk, COMDAT
; _this$ = ecx

; 55   : {

  00000	55		 push	 ebp
  00001	8b ec		 mov	 ebp, esp
  00003	6a ff		 push	 -1
  00005	68 00 00 00 00	 push	 __ehhandler$?OnDblclk@CTrTreeCtrl@@IAEXPAUtagNMHDR@@PAJ@Z
  0000a	64 a1 00 00 00
	00		 mov	 eax, DWORD PTR fs:0
  00010	50		 push	 eax
  00011	51		 push	 ecx
  00012	56		 push	 esi
  00013	57		 push	 edi
  00014	a1 00 00 00 00	 mov	 eax, DWORD PTR ___security_cookie
  00019	33 c5		 xor	 eax, ebp
  0001b	50		 push	 eax
  0001c	8d 45 f4	 lea	 eax, DWORD PTR __$EHRec$[ebp]
  0001f	64 a3 00 00 00
	00		 mov	 DWORD PTR fs:0, eax
  00025	8b f1		 mov	 esi, ecx
; File C:\Program Files (x86)\Microsoft Visual Studio\2019\Community\VC\Tools\MSVC\14.29.30133\atlmfc\include\afxcmn.inl

; 316  : 	{ ASSERT(::IsWindow(m_hWnd)); return (HTREEITEM)::SendMessage(m_hWnd, TVM_GETNEXTITEM, TVGN_CARET, 0); }

  00027	6a 00		 push	 0
  00029	6a 09		 push	 9
  0002b	68 0a 11 00 00	 push	 4362			; 0000110aH
  00030	ff 76 20	 push	 DWORD PTR [esi+32]
  00033	ff 15 00 00 00
	00		 call	 DWORD PTR __imp__SendMessageA@16
; File D:\git\src\IBK\IBK_DRFN\ProjSrc\SrcDrfn\Chart\comparechart\control\TrTreeCtrl.cpp

; 56   : 	HTREEITEM hItem = GetSelectedItem();

  00039	8b f8		 mov	 edi, eax

; 57   : 	if(hItem == NULL)

  0003b	85 ff		 test	 edi, edi
  0003d	74 61		 je	 SHORT $LN1@OnDblclk

; 58   : 		return;
; 59   : 
; 60   : 	if(ItemHasChildren(hItem))

  0003f	57		 push	 edi
  00040	8b ce		 mov	 ecx, esi
  00042	e8 00 00 00 00	 call	 ?ItemHasChildren@CTreeCtrl@@QBEHPAU_TREEITEM@@@Z ; CTreeCtrl::ItemHasChildren
  00047	85 c0		 test	 eax, eax
  00049	75 55		 jne	 SHORT $LN1@OnDblclk

; 63   : 	CString selString = GetItemText(hItem);

  0004b	57		 push	 edi
  0004c	8d 45 f0	 lea	 eax, DWORD PTR _selString$[ebp]
  0004f	8b ce		 mov	 ecx, esi
  00051	50		 push	 eax
  00052	e8 00 00 00 00	 call	 ?GetItemText@CTreeCtrl@@QBE?AV?$CStringT@DV?$StrTraitMFC_DLL@DV?$ChTraitsCRT@D@ATL@@@@@ATL@@PAU_TREEITEM@@@Z ; CTreeCtrl::GetItemText
; File C:\Program Files (x86)\Microsoft Visual Studio\2019\Community\VC\Tools\MSVC\14.29.30133\atlmfc\include\afxwin2.inl

; 213  : 	{ ASSERT(::IsWindow(m_hWnd)); return CWnd::FromHandle(::GetParent(m_hWnd)); }

  00057	ff 76 20	 push	 DWORD PTR [esi+32]
; File C:\Program Files (x86)\Microsoft Visual Studio\2019\Community\VC\Tools\MSVC\14.29.30133\atlmfc\include\atlsimpstr.h

; 377  : 		return( m_pszData );

  0005a	8b 7d f0	 mov	 edi, DWORD PTR _selString$[ebp]
; File C:\Program Files (x86)\Microsoft Visual Studio\2019\Community\VC\Tools\MSVC\14.29.30133\atlmfc\include\afxwin2.inl

; 213  : 	{ ASSERT(::IsWindow(m_hWnd)); return CWnd::FromHandle(::GetParent(m_hWnd)); }

  0005d	8b 35 00 00 00
	00		 mov	 esi, DWORD PTR __imp__GetParent@4
; File D:\git\src\IBK\IBK_DRFN\ProjSrc\SrcDrfn\Chart\comparechart\control\TrTreeCtrl.cpp

; 63   : 	CString selString = GetItemText(hItem);

  00063	c7 45 fc 00 00
	00 00		 mov	 DWORD PTR __$EHRec$[ebp+8], 0
; File C:\Program Files (x86)\Microsoft Visual Studio\2019\Community\VC\Tools\MSVC\14.29.30133\atlmfc\include\afxwin2.inl

; 213  : 	{ ASSERT(::IsWindow(m_hWnd)); return CWnd::FromHandle(::GetParent(m_hWnd)); }

  0006a	ff d6		 call	 esi
  0006c	50		 push	 eax
  0006d	e8 00 00 00 00	 call	 ?FromHandle@CWnd@@SGPAV1@PAUHWND__@@@Z ; CWnd::FromHandle
  00072	ff 70 20	 push	 DWORD PTR [eax+32]
  00075	ff d6		 call	 esi
  00077	50		 push	 eax
  00078	e8 00 00 00 00	 call	 ?FromHandle@CWnd@@SGPAV1@PAUHWND__@@@Z ; CWnd::FromHandle

; 32   : 	{ ASSERT(::IsWindow(m_hWnd)); return ::SendMessage(m_hWnd, message, wParam, lParam); }

  0007d	57		 push	 edi
  0007e	6a 00		 push	 0
  00080	68 63 06 00 00	 push	 1635			; 00000663H
  00085	ff 70 20	 push	 DWORD PTR [eax+32]
  00088	ff 15 00 00 00
	00		 call	 DWORD PTR __imp__SendMessageA@16
; File D:\git\src\IBK\IBK_DRFN\ProjSrc\SrcDrfn\Chart\comparechart\control\TrTreeCtrl.cpp

; 66   : 	*pResult = 0;

  0008e	8b 45 0c	 mov	 eax, DWORD PTR _pResult$[ebp]

; 67   : }

  00091	8d 4d f0	 lea	 ecx, DWORD PTR _selString$[ebp]
  00094	c7 00 00 00 00
	00		 mov	 DWORD PTR [eax], 0
  0009a	ff 15 00 00 00
	00		 call	 DWORD PTR __imp_??1?$CStringT@DV?$StrTraitMFC_DLL@DV?$ChTraitsCRT@D@ATL@@@@@ATL@@QAE@XZ
$LN1@OnDblclk:
  000a0	8b 4d f4	 mov	 ecx, DWORD PTR __$EHRec$[ebp]
  000a3	64 89 0d 00 00
	00 00		 mov	 DWORD PTR fs:0, ecx
  000aa	59		 pop	 ecx
  000ab	5f		 pop	 edi
  000ac	5e		 pop	 esi
  000ad	8b e5		 mov	 esp, ebp
  000af	5d		 pop	 ebp
  000b0	c2 08 00	 ret	 8
_TEXT	ENDS
;	COMDAT text$x
text$x	SEGMENT
__unwindfunclet$?OnDblclk@CTrTreeCtrl@@IAEXPAUtagNMHDR@@PAJ@Z$0:
  00000	8d 4d f0	 lea	 ecx, DWORD PTR _selString$[ebp]
  00003	ff 25 00 00 00
	00		 jmp	 DWORD PTR __imp_??1?$CStringT@DV?$StrTraitMFC_DLL@DV?$ChTraitsCRT@D@ATL@@@@@ATL@@QAE@XZ
  00009	cc		 int	 3
  0000a	cc		 int	 3
  0000b	cc		 int	 3
  0000c	cc		 int	 3
  0000d	cc		 int	 3
__ehhandler$?OnDblclk@CTrTreeCtrl@@IAEXPAUtagNMHDR@@PAJ@Z:
  0000e	90		 npad	 1
  0000f	90		 npad	 1
  00010	8b 54 24 08	 mov	 edx, DWORD PTR [esp+8]
  00014	8d 42 0c	 lea	 eax, DWORD PTR [edx+12]
  00017	8b 4a f0	 mov	 ecx, DWORD PTR [edx-16]
  0001a	33 c8		 xor	 ecx, eax
  0001c	e8 00 00 00 00	 call	 @__security_check_cookie@4
  00021	b8 00 00 00 00	 mov	 eax, OFFSET __ehfuncinfo$?OnDblclk@CTrTreeCtrl@@IAEXPAUtagNMHDR@@PAJ@Z
  00026	e9 00 00 00 00	 jmp	 ___CxxFrameHandler3
text$x	ENDS
?OnDblclk@CTrTreeCtrl@@IAEXPAUtagNMHDR@@PAJ@Z ENDP	; CTrTreeCtrl::OnDblclk
; Function compile flags: /Ogtp
; File D:\git\src\IBK\IBK_DRFN\ProjSrc\SrcDrfn\Chart\comparechart\control\TrTreeCtrl.cpp
; File C:\Program Files (x86)\Microsoft Visual Studio\2019\Community\VC\Tools\MSVC\14.29.30133\atlmfc\include\atltypes.h
; File D:\git\src\IBK\IBK_DRFN\ProjSrc\SrcDrfn\Chart\comparechart\control\TrTreeCtrl.cpp
;	COMDAT ?Create@CTrTreeCtrl@@QAEHKABUtagRECT@@PAVCWnd@@I@Z
_TEXT	SEGMENT
$T1 = -20						; size = 16
__$ArrayPad$ = -4					; size = 4
_dwStyle$ = 8						; size = 4
_rect$ = 12						; size = 4
_pParentWnd$ = 16					; size = 4
_nID$ = 20						; size = 4
?Create@CTrTreeCtrl@@QAEHKABUtagRECT@@PAVCWnd@@I@Z PROC	; CTrTreeCtrl::Create, COMDAT
; _this$ = ecx

; 147  : {

  00000	55		 push	 ebp
  00001	8b ec		 mov	 ebp, esp
  00003	83 ec 14	 sub	 esp, 20			; 00000014H
  00006	a1 00 00 00 00	 mov	 eax, DWORD PTR ___security_cookie
  0000b	33 c5		 xor	 eax, ebp
  0000d	89 45 fc	 mov	 DWORD PTR __$ArrayPad$[ebp], eax

; 153  : 	CTreeCtrl::Create(dwStyle|TVS_HASLINES|TVS_LINESATROOT|TVS_HASBUTTONS|TVS_NOTOOLTIPS,

  00010	ff 75 14	 push	 DWORD PTR _nID$[ebp]
  00013	8b 45 10	 mov	 eax, DWORD PTR _pParentWnd$[ebp]
  00016	0f 57 c0	 xorps	 xmm0, xmm0
  00019	50		 push	 eax
  0001a	8d 45 ec	 lea	 eax, DWORD PTR $T1[ebp]
  0001d	50		 push	 eax
  0001e	8b 45 08	 mov	 eax, DWORD PTR _dwStyle$[ebp]
  00021	0d 87 00 00 00	 or	 eax, 135		; 00000087H
  00026	50		 push	 eax
; File C:\Program Files (x86)\Microsoft Visual Studio\2019\Community\VC\Tools\MSVC\14.29.30133\atlmfc\include\atltypes.h

; 540  : 	left = l;

  00027	0f 11 45 ec	 movups	 XMMWORD PTR $T1[ebp], xmm0
; File D:\git\src\IBK\IBK_DRFN\ProjSrc\SrcDrfn\Chart\comparechart\control\TrTreeCtrl.cpp

; 153  : 	CTreeCtrl::Create(dwStyle|TVS_HASLINES|TVS_LINESATROOT|TVS_HASBUTTONS|TVS_NOTOOLTIPS,

  0002b	e8 00 00 00 00	 call	 ?Create@CTreeCtrl@@QAEHKABUtagRECT@@PAVCWnd@@I@Z ; CTreeCtrl::Create

; 154  : 												CRect(0, 0, 0, 0),
; 155  : 												pParentWnd,	
; 156  : 												nID);
; 157  : 	//CTreeCtrl::ModifyStyleEx(0, WS_EX_CLIENTEDGE);
; 158  : 	return TRUE;
; 159  : 
; 160  : 	//GFXOUTBARCTRL_CLASSNAME
; 161  : }

  00030	8b 4d fc	 mov	 ecx, DWORD PTR __$ArrayPad$[ebp]
  00033	b8 01 00 00 00	 mov	 eax, 1
  00038	33 cd		 xor	 ecx, ebp
  0003a	e8 00 00 00 00	 call	 @__security_check_cookie@4
  0003f	8b e5		 mov	 esp, ebp
  00041	5d		 pop	 ebp
  00042	c2 10 00	 ret	 16			; 00000010H
?Create@CTrTreeCtrl@@QAEHKABUtagRECT@@PAVCWnd@@I@Z ENDP	; CTrTreeCtrl::Create
_TEXT	ENDS
; Function compile flags: /Ogtp
; File D:\git\src\IBK\IBK_DRFN\ProjSrc\SrcDrfn\Chart\comparechart\control\TrTreeCtrl.cpp
; File C:\Program Files (x86)\Microsoft Visual Studio\2019\Community\VC\Tools\MSVC\14.29.30133\atlmfc\include\atlsimpstr.h
; File D:\git\src\IBK\IBK_DRFN\ProjSrc\SrcDrfn\Chart\comparechart\control\TrTreeCtrl.cpp
;	COMDAT ?GetTrString@CTrTreeCtrl@@QAE?AV?$CStringT@DV?$StrTraitMFC_DLL@DV?$ChTraitsCRT@D@ATL@@@@@ATL@@V23@@Z
_TEXT	SEGMENT
_szTrcode$ = -16					; size = 4
__$EHRec$ = -12						; size = 12
___$ReturnUdt$ = 8					; size = 4
_szText$ = 12						; size = 4
?GetTrString@CTrTreeCtrl@@QAE?AV?$CStringT@DV?$StrTraitMFC_DLL@DV?$ChTraitsCRT@D@ATL@@@@@ATL@@V23@@Z PROC ; CTrTreeCtrl::GetTrString, COMDAT
; _this$ = ecx

; 122  : {

  00000	55		 push	 ebp
  00001	8b ec		 mov	 ebp, esp
  00003	6a ff		 push	 -1
  00005	68 00 00 00 00	 push	 __ehhandler$?GetTrString@CTrTreeCtrl@@QAE?AV?$CStringT@DV?$StrTraitMFC_DLL@DV?$ChTraitsCRT@D@ATL@@@@@ATL@@V23@@Z
  0000a	64 a1 00 00 00
	00		 mov	 eax, DWORD PTR fs:0
  00010	50		 push	 eax
  00011	51		 push	 ecx
  00012	56		 push	 esi
  00013	a1 00 00 00 00	 mov	 eax, DWORD PTR ___security_cookie
  00018	33 c5		 xor	 eax, ebp
  0001a	50		 push	 eax
  0001b	8d 45 f4	 lea	 eax, DWORD PTR __$EHRec$[ebp]
  0001e	64 a3 00 00 00
	00		 mov	 DWORD PTR fs:0, eax

; 123  : 	int nStart = szText.Find("[");

  00024	6a 00		 push	 0
  00026	68 00 00 00 00	 push	 OFFSET ??_C@_01OHGJGJJP@?$FL@
  0002b	8d 4d 0c	 lea	 ecx, DWORD PTR _szText$[ebp]
  0002e	c7 45 fc 00 00
	00 00		 mov	 DWORD PTR __$EHRec$[ebp+8], 0
  00035	ff 15 00 00 00
	00		 call	 DWORD PTR __imp_?Find@?$CStringT@DV?$StrTraitMFC_DLL@DV?$ChTraitsCRT@D@ATL@@@@@ATL@@QBEHPBDH@Z

; 124  : 	int nEnd   = szText.Find("]");

  0003b	6a 00		 push	 0
  0003d	68 00 00 00 00	 push	 OFFSET ??_C@_01LBDDMOBJ@?$FN@
  00042	8d 4d 0c	 lea	 ecx, DWORD PTR _szText$[ebp]
  00045	8b f0		 mov	 esi, eax
  00047	ff 15 00 00 00
	00		 call	 DWORD PTR __imp_?Find@?$CStringT@DV?$StrTraitMFC_DLL@DV?$ChTraitsCRT@D@ATL@@@@@ATL@@QBEHPBDH@Z

; 125  : 	if(nStart < 0 || nStart >= szText.GetLength())

  0004d	85 f6		 test	 esi, esi
  0004f	78 51		 js	 SHORT $LN3@GetTrStrin
; File C:\Program Files (x86)\Microsoft Visual Studio\2019\Community\VC\Tools\MSVC\14.29.30133\atlmfc\include\atlsimpstr.h

; 519  : 		return( GetData()->nDataLength );

  00051	8b 4d 0c	 mov	 ecx, DWORD PTR _szText$[ebp]
  00054	8b 49 f4	 mov	 ecx, DWORD PTR [ecx-12]
; File D:\git\src\IBK\IBK_DRFN\ProjSrc\SrcDrfn\Chart\comparechart\control\TrTreeCtrl.cpp

; 125  : 	if(nStart < 0 || nStart >= szText.GetLength())

  00057	3b f1		 cmp	 esi, ecx
  00059	7d 47		 jge	 SHORT $LN3@GetTrStrin

; 127  : 	if(nEnd < 0 || nEnd >= szText.GetLength())

  0005b	85 c0		 test	 eax, eax
  0005d	78 43		 js	 SHORT $LN3@GetTrStrin
  0005f	3b c1		 cmp	 eax, ecx
  00061	7d 3f		 jge	 SHORT $LN3@GetTrStrin

; 128  : 		return "";
; 129  : 	CString szTrcode = szText.Mid(nStart+1 , nEnd-nStart-1);

  00063	2b c6		 sub	 eax, esi
  00065	8d 4d 0c	 lea	 ecx, DWORD PTR _szText$[ebp]
  00068	48		 dec	 eax
  00069	50		 push	 eax
  0006a	8d 46 01	 lea	 eax, DWORD PTR [esi+1]
  0006d	50		 push	 eax
  0006e	8d 45 f0	 lea	 eax, DWORD PTR _szTrcode$[ebp]
  00071	50		 push	 eax
  00072	ff 15 00 00 00
	00		 call	 DWORD PTR __imp_?Mid@?$CStringT@DV?$StrTraitMFC_DLL@DV?$ChTraitsCRT@D@ATL@@@@@ATL@@QBE?AV12@HH@Z

; 130  : 	szTrcode += "0";

  00078	68 00 00 00 00	 push	 OFFSET ??_C@_01GBGANLPD@0@
  0007d	8d 4d f0	 lea	 ecx, DWORD PTR _szTrcode$[ebp]
  00080	c6 45 fc 01	 mov	 BYTE PTR __$EHRec$[ebp+8], 1
  00084	ff 15 00 00 00
	00		 call	 DWORD PTR __imp_??Y?$CStringT@DV?$StrTraitMFC_DLL@DV?$ChTraitsCRT@D@ATL@@@@@ATL@@QAEAAV01@PBD@Z

; 131  : 
; 132  : 	return szTrcode;

  0008a	8b 4d 08	 mov	 ecx, DWORD PTR ___$ReturnUdt$[ebp]
  0008d	8d 45 f0	 lea	 eax, DWORD PTR _szTrcode$[ebp]
  00090	50		 push	 eax
  00091	ff 15 00 00 00
	00		 call	 DWORD PTR __imp_??0?$CStringT@DV?$StrTraitMFC_DLL@DV?$ChTraitsCRT@D@ATL@@@@@ATL@@QAE@ABV01@@Z
  00097	8d 4d f0	 lea	 ecx, DWORD PTR _szTrcode$[ebp]
  0009a	ff 15 00 00 00
	00		 call	 DWORD PTR __imp_??1?$CStringT@DV?$StrTraitMFC_DLL@DV?$ChTraitsCRT@D@ATL@@@@@ATL@@QAE@XZ
  000a0	eb 0e		 jmp	 SHORT $LN20@GetTrStrin
$LN3@GetTrStrin:

; 126  : 		return "";

  000a2	8b 4d 08	 mov	 ecx, DWORD PTR ___$ReturnUdt$[ebp]
  000a5	68 00 00 00 00	 push	 OFFSET ??_C@_00CNPNBAHC@@
  000aa	ff 15 00 00 00
	00		 call	 DWORD PTR __imp_??0?$CStringT@DV?$StrTraitMFC_DLL@DV?$ChTraitsCRT@D@ATL@@@@@ATL@@QAE@PBD@Z
$LN20@GetTrStrin:

; 133  : }

  000b0	8d 4d 0c	 lea	 ecx, DWORD PTR _szText$[ebp]
  000b3	ff 15 00 00 00
	00		 call	 DWORD PTR __imp_??1?$CStringT@DV?$StrTraitMFC_DLL@DV?$ChTraitsCRT@D@ATL@@@@@ATL@@QAE@XZ
  000b9	8b 45 08	 mov	 eax, DWORD PTR ___$ReturnUdt$[ebp]
  000bc	8b 4d f4	 mov	 ecx, DWORD PTR __$EHRec$[ebp]
  000bf	64 89 0d 00 00
	00 00		 mov	 DWORD PTR fs:0, ecx
  000c6	59		 pop	 ecx
  000c7	5e		 pop	 esi
  000c8	8b e5		 mov	 esp, ebp
  000ca	5d		 pop	 ebp
  000cb	c2 08 00	 ret	 8
_TEXT	ENDS
;	COMDAT text$x
text$x	SEGMENT
__unwindfunclet$?GetTrString@CTrTreeCtrl@@QAE?AV?$CStringT@DV?$StrTraitMFC_DLL@DV?$ChTraitsCRT@D@ATL@@@@@ATL@@V23@@Z$0:
  00000	8d 4d 0c	 lea	 ecx, DWORD PTR _szText$[ebp]
  00003	ff 25 00 00 00
	00		 jmp	 DWORD PTR __imp_??1?$CStringT@DV?$StrTraitMFC_DLL@DV?$ChTraitsCRT@D@ATL@@@@@ATL@@QAE@XZ
__unwindfunclet$?GetTrString@CTrTreeCtrl@@QAE?AV?$CStringT@DV?$StrTraitMFC_DLL@DV?$ChTraitsCRT@D@ATL@@@@@ATL@@V23@@Z$2:
  00009	8d 4d f0	 lea	 ecx, DWORD PTR _szTrcode$[ebp]
  0000c	ff 25 00 00 00
	00		 jmp	 DWORD PTR __imp_??1?$CStringT@DV?$StrTraitMFC_DLL@DV?$ChTraitsCRT@D@ATL@@@@@ATL@@QAE@XZ
  00012	cc		 int	 3
  00013	cc		 int	 3
  00014	cc		 int	 3
  00015	cc		 int	 3
  00016	cc		 int	 3
__ehhandler$?GetTrString@CTrTreeCtrl@@QAE?AV?$CStringT@DV?$StrTraitMFC_DLL@DV?$ChTraitsCRT@D@ATL@@@@@ATL@@V23@@Z:
  00017	90		 npad	 1
  00018	90		 npad	 1
  00019	8b 54 24 08	 mov	 edx, DWORD PTR [esp+8]
  0001d	8d 42 0c	 lea	 eax, DWORD PTR [edx+12]
  00020	8b 4a f4	 mov	 ecx, DWORD PTR [edx-12]
  00023	33 c8		 xor	 ecx, eax
  00025	e8 00 00 00 00	 call	 @__security_check_cookie@4
  0002a	b8 00 00 00 00	 mov	 eax, OFFSET __ehfuncinfo$?GetTrString@CTrTreeCtrl@@QAE?AV?$CStringT@DV?$StrTraitMFC_DLL@DV?$ChTraitsCRT@D@ATL@@@@@ATL@@V23@@Z
  0002f	e9 00 00 00 00	 jmp	 ___CxxFrameHandler3
text$x	ENDS
?GetTrString@CTrTreeCtrl@@QAE?AV?$CStringT@DV?$StrTraitMFC_DLL@DV?$ChTraitsCRT@D@ATL@@@@@ATL@@V23@@Z ENDP ; CTrTreeCtrl::GetTrString
; Function compile flags: /Ogtp
; File D:\git\src\IBK\IBK_DRFN\ProjSrc\SrcDrfn\Chart\comparechart\control\TrTreeCtrl.cpp
;	COMDAT ??1CTrTreeCtrl@@UAE@XZ
_TEXT	SEGMENT
??1CTrTreeCtrl@@UAE@XZ PROC				; CTrTreeCtrl::~CTrTreeCtrl, COMDAT
; _this$ = ecx

; 31   : {

  00000	c7 01 00 00 00
	00		 mov	 DWORD PTR [ecx], OFFSET ??_7CTrTreeCtrl@@6B@

; 32   : }

  00006	e9 00 00 00 00	 jmp	 ??1CTreeCtrl@@UAE@XZ	; CTreeCtrl::~CTreeCtrl
??1CTrTreeCtrl@@UAE@XZ ENDP				; CTrTreeCtrl::~CTrTreeCtrl
_TEXT	ENDS
; Function compile flags: /Ogtp
; File D:\git\src\IBK\IBK_DRFN\ProjSrc\SrcDrfn\Chart\comparechart\control\TrTreeCtrl.cpp
; File C:\Program Files (x86)\Microsoft Visual Studio\2019\Community\VC\Tools\MSVC\14.29.30133\atlmfc\include\afxcmn.inl
; File D:\git\src\IBK\IBK_DRFN\ProjSrc\SrcDrfn\Chart\comparechart\control\TrTreeCtrl.cpp
;	COMDAT ??0CTrTreeCtrl@@QAE@XZ
_TEXT	SEGMENT
_this$ = -4						; size = 4
??0CTrTreeCtrl@@QAE@XZ PROC				; CTrTreeCtrl::CTrTreeCtrl, COMDAT
; _this$ = ecx

; 24   : {

  00000	55		 push	 ebp
  00001	8b ec		 mov	 ebp, esp
  00003	51		 push	 ecx
  00004	56		 push	 esi
  00005	8b f1		 mov	 esi, ecx
  00007	89 75 fc	 mov	 DWORD PTR _this$[ebp], esi
; File C:\Program Files (x86)\Microsoft Visual Studio\2019\Community\VC\Tools\MSVC\14.29.30133\atlmfc\include\afxcmn.inl

; 264  : 	{ }

  0000a	e8 00 00 00 00	 call	 ??0CWnd@@QAE@XZ		; CWnd::CWnd
; File D:\git\src\IBK\IBK_DRFN\ProjSrc\SrcDrfn\Chart\comparechart\control\TrTreeCtrl.cpp

; 24   : {

  0000f	c7 06 00 00 00
	00		 mov	 DWORD PTR [esi], OFFSET ??_7CTrTreeCtrl@@6B@

; 25   : 	m_hSelTreeItem = NULL;
; 26   : 	m_bLBtnDown = FALSE;
; 27   : 	m_bDragNDrop = FALSE;
; 28   : }

  00015	8b c6		 mov	 eax, esi
  00017	c7 86 80 00 00
	00 00 00 00 00	 mov	 DWORD PTR [esi+128], 0
  00021	c7 86 84 00 00
	00 00 00 00 00	 mov	 DWORD PTR [esi+132], 0
  0002b	c7 86 88 00 00
	00 00 00 00 00	 mov	 DWORD PTR [esi+136], 0
  00035	5e		 pop	 esi
  00036	8b e5		 mov	 esp, ebp
  00038	5d		 pop	 ebp
  00039	c3		 ret	 0
??0CTrTreeCtrl@@QAE@XZ ENDP				; CTrTreeCtrl::CTrTreeCtrl
_TEXT	ENDS
; Function compile flags: /Ogtp
; File C:\Program Files (x86)\Microsoft Visual Studio\2019\Community\VC\Tools\MSVC\14.29.30133\atlmfc\include\afx.inl
;	COMDAT ??_GCTreeCtrl@@UAEPAXI@Z
_TEXT	SEGMENT
___flags$ = 8						; size = 4
??_GCTreeCtrl@@UAEPAXI@Z PROC				; CTreeCtrl::`scalar deleting destructor', COMDAT
; _this$ = ecx
  00000	55		 push	 ebp
  00001	8b ec		 mov	 ebp, esp
  00003	56		 push	 esi
  00004	8b f1		 mov	 esi, ecx
  00006	e8 00 00 00 00	 call	 ??1CTreeCtrl@@UAE@XZ	; CTreeCtrl::~CTreeCtrl
  0000b	8b 45 08	 mov	 eax, DWORD PTR ___flags$[ebp]
  0000e	a8 01		 test	 al, 1
  00010	74 22		 je	 SHORT $LN9@scalar
  00012	a8 04		 test	 al, 4
  00014	75 10		 jne	 SHORT $LN3@scalar

; 112  : 	{ ::operator delete(p); }

  00016	56		 push	 esi
  00017	e8 00 00 00 00	 call	 ??3@YAXPAX@Z		; operator delete
  0001c	83 c4 04	 add	 esp, 4
  0001f	8b c6		 mov	 eax, esi
  00021	5e		 pop	 esi
  00022	5d		 pop	 ebp
  00023	c2 04 00	 ret	 4
$LN3@scalar:
  00026	68 80 00 00 00	 push	 128			; 00000080H
  0002b	56		 push	 esi
  0002c	e8 00 00 00 00	 call	 ?__global_delete@@YAXPAXI@Z ; __global_delete
  00031	83 c4 08	 add	 esp, 8
$LN9@scalar:
  00034	8b c6		 mov	 eax, esi
  00036	5e		 pop	 esi
  00037	5d		 pop	 ebp
  00038	c2 04 00	 ret	 4
??_GCTreeCtrl@@UAEPAXI@Z ENDP				; CTreeCtrl::`scalar deleting destructor'
_TEXT	ENDS
; Function compile flags: /Ogtp
; File C:\Program Files (x86)\Microsoft Visual Studio\2019\Community\VC\Tools\MSVC\14.29.30133\atlmfc\include\afxwin2.inl
;	COMDAT ?EndModalState@CWnd@@UAEXXZ
_TEXT	SEGMENT
?EndModalState@CWnd@@UAEXXZ PROC			; CWnd::EndModalState, COMDAT
; _this$ = ecx

; 567  : 	{ ::EnableWindow(m_hWnd, TRUE); }

  00000	6a 01		 push	 1
  00002	ff 71 20	 push	 DWORD PTR [ecx+32]
  00005	ff 15 00 00 00
	00		 call	 DWORD PTR __imp__EnableWindow@8
  0000b	c3		 ret	 0
?EndModalState@CWnd@@UAEXXZ ENDP			; CWnd::EndModalState
_TEXT	ENDS
; Function compile flags: /Ogtp
; File C:\Program Files (x86)\Microsoft Visual Studio\2019\Community\VC\Tools\MSVC\14.29.30133\atlmfc\include\afxwin2.inl
;	COMDAT ?BeginModalState@CWnd@@UAEXXZ
_TEXT	SEGMENT
?BeginModalState@CWnd@@UAEXXZ PROC			; CWnd::BeginModalState, COMDAT
; _this$ = ecx

; 565  : 	{ ::EnableWindow(m_hWnd, FALSE); }

  00000	6a 00		 push	 0
  00002	ff 71 20	 push	 DWORD PTR [ecx+32]
  00005	ff 15 00 00 00
	00		 call	 DWORD PTR __imp__EnableWindow@8
  0000b	c3		 ret	 0
?BeginModalState@CWnd@@UAEXXZ ENDP			; CWnd::BeginModalState
_TEXT	ENDS
; Function compile flags: /Ogtp
; File C:\Program Files (x86)\Microsoft Visual Studio\2019\Community\VC\Tools\MSVC\14.29.30133\atlmfc\include\afxwin2.inl
;	COMDAT ?DoDataExchange@CWnd@@MAEXPAVCDataExchange@@@Z
_TEXT	SEGMENT
___formal$ = 8						; size = 4
?DoDataExchange@CWnd@@MAEXPAVCDataExchange@@@Z PROC	; CWnd::DoDataExchange, COMDAT
; _this$ = ecx

; 561  : 	{ } // default does nothing

  00000	c2 04 00	 ret	 4
?DoDataExchange@CWnd@@MAEXPAVCDataExchange@@@Z ENDP	; CWnd::DoDataExchange
_TEXT	ENDS
; Function compile flags: /Ogtp
; File C:\Program Files (x86)\Microsoft Visual Studio\2019\Community\VC\Tools\MSVC\14.29.30133\atlmfc\include\afx.inl
;	COMDAT ?Dump@CObject@@UBEXAAVCDumpContext@@@Z
_TEXT	SEGMENT
___formal$ = 8						; size = 4
?Dump@CObject@@UBEXAAVCDumpContext@@@Z PROC		; CObject::Dump, COMDAT
; _this$ = ecx

; 122  : 	{ /* no dumping in release builds */ }

  00000	c2 04 00	 ret	 4
?Dump@CObject@@UBEXAAVCDumpContext@@@Z ENDP		; CObject::Dump
_TEXT	ENDS
; Function compile flags: /Ogtp
; File C:\Program Files (x86)\Microsoft Visual Studio\2019\Community\VC\Tools\MSVC\14.29.30133\atlmfc\include\afx.inl
;	COMDAT ?AssertValid@CObject@@UBEXXZ
_TEXT	SEGMENT
?AssertValid@CObject@@UBEXXZ PROC			; CObject::AssertValid, COMDAT
; _this$ = ecx

; 120  : 	{ /* no asserts in release builds */ }

  00000	c2 00 00	 ret	 0
?AssertValid@CObject@@UBEXXZ ENDP			; CObject::AssertValid
_TEXT	ENDS
; Function compile flags: /Ogtp
; File C:\Program Files (x86)\Microsoft Visual Studio\2019\Community\VC\Tools\MSVC\14.29.30133\atlmfc\include\afx.inl
;	COMDAT ?Serialize@CObject@@UAEXAAVCArchive@@@Z
_TEXT	SEGMENT
___formal$ = 8						; size = 4
?Serialize@CObject@@UAEXAAVCArchive@@@Z PROC		; CObject::Serialize, COMDAT
; _this$ = ecx

; 106  : 	{ /* CObject does not serialize anything by default */ }

  00000	c2 04 00	 ret	 4
?Serialize@CObject@@UAEXAAVCArchive@@@Z ENDP		; CObject::Serialize
_TEXT	ENDS
; Function compile flags: /Ogtp
; File D:\git\src\IBK\IBK_DRFN\ProjSrc\SrcDrfn\Chart\comparechart\control\TrTreeCtrl.cpp
;	COMDAT ?__empty_global_delete@@YAXPAXI@Z
_TEXT	SEGMENT
___formal$ = 8						; size = 4
___formal$ = 12						; size = 4
?__empty_global_delete@@YAXPAXI@Z PROC			; __empty_global_delete, COMDAT

  00000	c2 00 00	 ret	 0
?__empty_global_delete@@YAXPAXI@Z ENDP			; __empty_global_delete
_TEXT	ENDS
; Function compile flags: /Ogtp
; File D:\git\src\IBK\IBK_DRFN\ProjSrc\SrcDrfn\Chart\comparechart\control\TrTreeCtrl.cpp
;	COMDAT ?__empty_global_delete@@YAXPAX@Z
_TEXT	SEGMENT
___formal$ = 8						; size = 4
?__empty_global_delete@@YAXPAX@Z PROC			; __empty_global_delete, COMDAT

  00000	c2 00 00	 ret	 0
?__empty_global_delete@@YAXPAX@Z ENDP			; __empty_global_delete
_TEXT	ENDS
END
