; Listing generated by Microsoft (R) Optimizing Compiler Version 19.29.30145.0 

	TITLE	D:\git\src\IBK\IBK_DRFN\#DRfn-CS\_Obj\CompareChart\UsrAddListDlg.obj
	.686P
	.XMM
	include listing.inc
	.model	flat

INCLUDELIB MSVCRT
INCLUDELIB OLDNAMES

PUBLIC	??_C@_0BB@IBKHOHJL@RMSG_REPLAY_REAL@		; `string'
PUBLIC	??_C@_0BB@JFLGBADG@RMSG_REPLAY_FAIL@		; `string'
PUBLIC	??_C@_0BI@KDGAIIMD@RMSG_REPLAY_CHANGE_DATE@	; `string'
PUBLIC	??_C@_0BA@NKHHCPON@RMSG_REPLAY_END@		; `string'
PUBLIC	??_C@_0BE@JFCIMCIP@RMSG_REPLAY_INC_SEC@		; `string'
PUBLIC	??_C@_0BG@GIAJEIJF@RMSG_REPLAY_TOTAL_SEC@	; `string'
PUBLIC	??_C@_0P@BKKCOCLK@RMSG_INTERFACE@		; `string'
PUBLIC	??_C@_0BC@LHNMEPFM@RMSG_SELCHARTCODE@		; `string'
PUBLIC	??_C@_0BE@FJPKENOB@RMSG_GETSIGNAL_REAL@		; `string'
PUBLIC	??_C@_0P@KHFCBIOH@RMSG_CHARTMAIN@		; `string'
PUBLIC	??_C@_0BC@MMPGLPDH@RMS_ANALYSIS_FUNC@		; `string'
PUBLIC	??_C@_0BA@HKNFENJL@RMSG_GET_USERID@		; `string'
PUBLIC	??_C@_0P@LFDACNFE@RMSG_KSDLLINFO@		; `string'
PUBLIC	??_C@_0N@IIOKMIEH@RMSG_GETINFO@			; `string'
PUBLIC	??_C@_0BG@CNPAHNGG@RMSG_CHANGE_SKINCOLOR@	; `string'
PUBLIC	??_C@_0BD@FLDNDDHK@RMSG_GET_SKINCOLOR@		; `string'
PUBLIC	??_C@_0BG@LNLCJKPF@RMSG_CHANGE_CROSSLINE@	; `string'
;	COMDAT ??_C@_0BG@LNLCJKPF@RMSG_CHANGE_CROSSLINE@
CONST	SEGMENT
??_C@_0BG@LNLCJKPF@RMSG_CHANGE_CROSSLINE@ DB 'RMSG_CHANGE_CROSSLINE', 00H ; `string'
CONST	ENDS
;	COMDAT ??_C@_0BD@FLDNDDHK@RMSG_GET_SKINCOLOR@
CONST	SEGMENT
??_C@_0BD@FLDNDDHK@RMSG_GET_SKINCOLOR@ DB 'RMSG_GET_SKINCOLOR', 00H ; `string'
CONST	ENDS
;	COMDAT ??_C@_0BG@CNPAHNGG@RMSG_CHANGE_SKINCOLOR@
CONST	SEGMENT
??_C@_0BG@CNPAHNGG@RMSG_CHANGE_SKINCOLOR@ DB 'RMSG_CHANGE_SKINCOLOR', 00H ; `string'
CONST	ENDS
;	COMDAT ??_C@_0N@IIOKMIEH@RMSG_GETINFO@
CONST	SEGMENT
??_C@_0N@IIOKMIEH@RMSG_GETINFO@ DB 'RMSG_GETINFO', 00H	; `string'
CONST	ENDS
;	COMDAT ??_C@_0P@LFDACNFE@RMSG_KSDLLINFO@
CONST	SEGMENT
??_C@_0P@LFDACNFE@RMSG_KSDLLINFO@ DB 'RMSG_KSDLLINFO', 00H ; `string'
CONST	ENDS
;	COMDAT ??_C@_0BA@HKNFENJL@RMSG_GET_USERID@
CONST	SEGMENT
??_C@_0BA@HKNFENJL@RMSG_GET_USERID@ DB 'RMSG_GET_USERID', 00H ; `string'
CONST	ENDS
;	COMDAT ??_C@_0BC@MMPGLPDH@RMS_ANALYSIS_FUNC@
CONST	SEGMENT
??_C@_0BC@MMPGLPDH@RMS_ANALYSIS_FUNC@ DB 'RMS_ANALYSIS_FUNC', 00H ; `string'
CONST	ENDS
;	COMDAT ??_C@_0P@KHFCBIOH@RMSG_CHARTMAIN@
CONST	SEGMENT
??_C@_0P@KHFCBIOH@RMSG_CHARTMAIN@ DB 'RMSG_CHARTMAIN', 00H ; `string'
CONST	ENDS
;	COMDAT ??_C@_0BE@FJPKENOB@RMSG_GETSIGNAL_REAL@
CONST	SEGMENT
??_C@_0BE@FJPKENOB@RMSG_GETSIGNAL_REAL@ DB 'RMSG_GETSIGNAL_REAL', 00H ; `string'
CONST	ENDS
;	COMDAT ??_C@_0BC@LHNMEPFM@RMSG_SELCHARTCODE@
CONST	SEGMENT
??_C@_0BC@LHNMEPFM@RMSG_SELCHARTCODE@ DB 'RMSG_SELCHARTCODE', 00H ; `string'
CONST	ENDS
;	COMDAT ??_C@_0P@BKKCOCLK@RMSG_INTERFACE@
CONST	SEGMENT
??_C@_0P@BKKCOCLK@RMSG_INTERFACE@ DB 'RMSG_INTERFACE', 00H ; `string'
CONST	ENDS
;	COMDAT ??_C@_0BG@GIAJEIJF@RMSG_REPLAY_TOTAL_SEC@
CONST	SEGMENT
??_C@_0BG@GIAJEIJF@RMSG_REPLAY_TOTAL_SEC@ DB 'RMSG_REPLAY_TOTAL_SEC', 00H ; `string'
CONST	ENDS
;	COMDAT ??_C@_0BE@JFCIMCIP@RMSG_REPLAY_INC_SEC@
CONST	SEGMENT
??_C@_0BE@JFCIMCIP@RMSG_REPLAY_INC_SEC@ DB 'RMSG_REPLAY_INC_SEC', 00H ; `string'
CONST	ENDS
;	COMDAT ??_C@_0BA@NKHHCPON@RMSG_REPLAY_END@
CONST	SEGMENT
??_C@_0BA@NKHHCPON@RMSG_REPLAY_END@ DB 'RMSG_REPLAY_END', 00H ; `string'
CONST	ENDS
;	COMDAT ??_C@_0BI@KDGAIIMD@RMSG_REPLAY_CHANGE_DATE@
CONST	SEGMENT
??_C@_0BI@KDGAIIMD@RMSG_REPLAY_CHANGE_DATE@ DB 'RMSG_REPLAY_CHANGE_DATE', 00H ; `string'
CONST	ENDS
;	COMDAT ??_C@_0BB@JFLGBADG@RMSG_REPLAY_FAIL@
CONST	SEGMENT
??_C@_0BB@JFLGBADG@RMSG_REPLAY_FAIL@ DB 'RMSG_REPLAY_FAIL', 00H ; `string'
CONST	ENDS
;	COMDAT ??_C@_0BB@IBKHOHJL@RMSG_REPLAY_REAL@
CONST	SEGMENT
??_C@_0BB@IBKHOHJL@RMSG_REPLAY_REAL@ DB 'RMSG_REPLAY_REAL', 00H ; `string'
CONST	ENDS
PUBLIC	?__empty_global_delete@@YAXPAX@Z		; __empty_global_delete
PUBLIC	?__empty_global_delete@@YAXPAXI@Z		; __empty_global_delete
PUBLIC	___local_stdio_scanf_options
PUBLIC	_sscanf
PUBLIC	??1CObject@@UAE@XZ				; CObject::~CObject
PUBLIC	?Serialize@CObject@@UAEXAAVCArchive@@@Z		; CObject::Serialize
PUBLIC	?AssertValid@CObject@@UBEXXZ			; CObject::AssertValid
PUBLIC	?Dump@CObject@@UBEXAAVCDumpContext@@@Z		; CObject::Dump
PUBLIC	??1CGdiObject@@UAE@XZ				; CGdiObject::~CGdiObject
PUBLIC	??_GCGdiObject@@UAEPAXI@Z			; CGdiObject::`scalar deleting destructor'
PUBLIC	??1CBrush@@UAE@XZ				; CBrush::~CBrush
PUBLIC	??_GCBrush@@UAEPAXI@Z				; CBrush::`scalar deleting destructor'
PUBLIC	?BeginModalState@CWnd@@UAEXXZ			; CWnd::BeginModalState
PUBLIC	?EndModalState@CWnd@@UAEXXZ			; CWnd::EndModalState
PUBLIC	?SetBkColor@CRscDlg@@UAEXK@Z			; CRscDlg::SetBkColor
PUBLIC	??1CRscDlg@@UAE@XZ				; CRscDlg::~CRscDlg
PUBLIC	?ChangeSkinColor@CUsrAddListDlg@@UAEXK@Z	; CUsrAddListDlg::ChangeSkinColor
PUBLIC	?OnBtnDelItem@CUsrAddListDlg@@QAEXPBD@Z		; CUsrAddListDlg::OnBtnDelItem
PUBLIC	?SetRootPath@CUsrAddListDlg@@QAEXV?$CStringT@DV?$StrTraitMFC_DLL@DV?$ChTraitsCRT@D@ATL@@@@@ATL@@@Z ; CUsrAddListDlg::SetRootPath
PUBLIC	?Re_Request_TRData@CUsrAddListDlg@@QAEXXZ	; CUsrAddListDlg::Re_Request_TRData
PUBLIC	?AddItem@CUsrAddListDlg@@QAEXXZ			; CUsrAddListDlg::AddItem
PUBLIC	??0CUsrAddListDlg@@QAE@PAVCWnd@@@Z		; CUsrAddListDlg::CUsrAddListDlg
PUBLIC	?PreTranslateMessage@CUsrAddListDlg@@UAEHPAUtagMSG@@@Z ; CUsrAddListDlg::PreTranslateMessage
PUBLIC	?OnInitDialog@CUsrAddListDlg@@MAEHXZ		; CUsrAddListDlg::OnInitDialog
PUBLIC	?DoDataExchange@CUsrAddListDlg@@MAEXPAVCDataExchange@@@Z ; CUsrAddListDlg::DoDataExchange
PUBLIC	?WindowProc@CUsrAddListDlg@@MAEJIIJ@Z		; CUsrAddListDlg::WindowProc
PUBLIC	?OnBtnAdd@CUsrAddListDlg@@IAEXXZ		; CUsrAddListDlg::OnBtnAdd
PUBLIC	?OnBtnDel@CUsrAddListDlg@@IAEXXZ		; CUsrAddListDlg::OnBtnDel
PUBLIC	?OnBtnInit@CUsrAddListDlg@@IAEXXZ		; CUsrAddListDlg::OnBtnInit
PUBLIC	?OnSize@CUsrAddListDlg@@IAEXIHH@Z		; CUsrAddListDlg::OnSize
PUBLIC	?OnDestroy@CUsrAddListDlg@@IAEXXZ		; CUsrAddListDlg::OnDestroy
PUBLIC	?OnPaint@CUsrAddListDlg@@IAEXXZ			; CUsrAddListDlg::OnPaint
PUBLIC	?OnRecvMsg_CheckBoxStates_From_XListCtrl@CUsrAddListDlg@@IAEJIJ@Z ; CUsrAddListDlg::OnRecvMsg_CheckBoxStates_From_XListCtrl
PUBLIC	?OnRecvMsg_DBClick_From_XListCtrl@CUsrAddListDlg@@IAEJIJ@Z ; CUsrAddListDlg::OnRecvMsg_DBClick_From_XListCtrl
PUBLIC	?GetThisMessageMap@CUsrAddListDlg@@KGPBUAFX_MSGMAP@@XZ ; CUsrAddListDlg::GetThisMessageMap
PUBLIC	?GetMessageMap@CUsrAddListDlg@@MBEPBUAFX_MSGMAP@@XZ ; CUsrAddListDlg::GetMessageMap
PUBLIC	?GetRequestList@CUsrAddListDlg@@QAEHAAVCStringList@@0@Z ; CUsrAddListDlg::GetRequestList
PUBLIC	?AddELWIndexCode@CUsrAddListDlg@@QAEXXZ		; CUsrAddListDlg::AddELWIndexCode
PUBLIC	?DelItem@CUsrAddListDlg@@QAEXPBD@Z		; CUsrAddListDlg::DelItem
PUBLIC	??_GCUsrAddListDlg@@UAEPAXI@Z			; CUsrAddListDlg::`scalar deleting destructor'
PUBLIC	??1CDlgItemMaxCount@@UAE@XZ			; CDlgItemMaxCount::~CDlgItemMaxCount
PUBLIC	?_OptionsStorage@?1??__local_stdio_scanf_options@@9@4_KA ; `__local_stdio_scanf_options'::`2'::_OptionsStorage
PUBLIC	??_R0PAVCException@@@8				; CException * `RTTI Type Descriptor'
PUBLIC	??_C@_00CNPNBAHC@@				; `string'
PUBLIC	??_7CGdiObject@@6B@				; CGdiObject::`vftable'
PUBLIC	??_7CBrush@@6B@					; CBrush::`vftable'
PUBLIC	??_C@_0HD@JJCHHHNK@C?3?2Program?5Files?5?$CIx86?$CJ?2Microsof@ ; `string'
PUBLIC	??_C@_0BP@OIEOKIDM@Exception?5thrown?5in?5destructor@ ; `string'
PUBLIC	??_C@_0BB@HBOOMJBF@?$CFTs?5?$CI?$CFTs?3?$CFd?$CJ?6?$CFTs@ ; `string'
PUBLIC	??_C@_0N@OMEMOKLE@?$CFTs?5?$CI?$CFTs?3?$CFd?$CJ@ ; `string'
PUBLIC	??_C@_0M@CBBNGGHM@PcTrMng?4dll@			; `string'
PUBLIC	??_C@_0P@IDMAJEGN@HANAROPCTRMAIN@		; `string'
PUBLIC	??_C@_06NDLAHCHE@?$CFs?$CF08X@			; `string'
PUBLIC	??_C@_02EMFKHFLK@?$CFX@				; `string'
PUBLIC	??_R0?AVCObject@@@8				; CObject `RTTI Type Descriptor'
PUBLIC	??_R3CObject@@8					; CObject::`RTTI Class Hierarchy Descriptor'
PUBLIC	??_R2CObject@@8					; CObject::`RTTI Base Class Array'
PUBLIC	??_R1A@?0A@EA@CObject@@8			; CObject::`RTTI Base Class Descriptor at (0,-1,0,64)'
PUBLIC	??_R4CGdiObject@@6B@				; CGdiObject::`RTTI Complete Object Locator'
PUBLIC	??_R0?AVCGdiObject@@@8				; CGdiObject `RTTI Type Descriptor'
PUBLIC	??_R3CGdiObject@@8				; CGdiObject::`RTTI Class Hierarchy Descriptor'
PUBLIC	??_R2CGdiObject@@8				; CGdiObject::`RTTI Base Class Array'
PUBLIC	??_R1A@?0A@EA@CGdiObject@@8			; CGdiObject::`RTTI Base Class Descriptor at (0,-1,0,64)'
PUBLIC	??_R4CBrush@@6B@				; CBrush::`RTTI Complete Object Locator'
PUBLIC	??_R0?AVCBrush@@@8				; CBrush `RTTI Type Descriptor'
PUBLIC	??_R3CBrush@@8					; CBrush::`RTTI Class Hierarchy Descriptor'
PUBLIC	??_R2CBrush@@8					; CBrush::`RTTI Base Class Array'
PUBLIC	??_R1A@?0A@EA@CBrush@@8				; CBrush::`RTTI Base Class Descriptor at (0,-1,0,64)'
PUBLIC	??_R1A@?0A@EA@CWnd@@8				; CWnd::`RTTI Base Class Descriptor at (0,-1,0,64)'
PUBLIC	??_R0?AVCWnd@@@8				; CWnd `RTTI Type Descriptor'
PUBLIC	??_R3CWnd@@8					; CWnd::`RTTI Class Hierarchy Descriptor'
PUBLIC	??_R2CWnd@@8					; CWnd::`RTTI Base Class Array'
PUBLIC	??_R1A@?0A@EA@CCmdTarget@@8			; CCmdTarget::`RTTI Base Class Descriptor at (0,-1,0,64)'
PUBLIC	??_R0?AVCCmdTarget@@@8				; CCmdTarget `RTTI Type Descriptor'
PUBLIC	??_R3CCmdTarget@@8				; CCmdTarget::`RTTI Class Hierarchy Descriptor'
PUBLIC	??_R2CCmdTarget@@8				; CCmdTarget::`RTTI Base Class Array'
PUBLIC	??_R1A@?0A@EA@CDialog@@8			; CDialog::`RTTI Base Class Descriptor at (0,-1,0,64)'
PUBLIC	??_R0?AVCDialog@@@8				; CDialog `RTTI Type Descriptor'
PUBLIC	??_R3CDialog@@8					; CDialog::`RTTI Class Hierarchy Descriptor'
PUBLIC	??_R2CDialog@@8					; CDialog::`RTTI Base Class Array'
PUBLIC	??_7CUsrAddListDlg@@6B@				; CUsrAddListDlg::`vftable'
PUBLIC	??_C@_02PPKAJPJL@?$CG?$CG@			; `string'
PUBLIC	??_C@_01HNPIGOCE@?$CG@				; `string'
PUBLIC	??_C@_04ECABCFJH@5001@				; `string'
PUBLIC	??_C@_0L@HHAGCFJA@?D?Z?$LN?$LK?G?G?A?$LO?G?U@	; `string'
PUBLIC	??_C@_04PACBPJIH@2001@				; `string'
PUBLIC	??_C@_0L@BFMOPOGD@?D?Z?$LN?$LK?$LE?Z?A?$LO?G?U@	; `string'
PUBLIC	??_C@_04OFPKEPEE@?$LO?H?$LD?$LL@		; `string'
PUBLIC	??_C@_0BO@CCHFAMEF@?$MA?L?$LJ?L?5?C?$NP?$LA?$KB?$LF?G?$LO?n?5?$MA?V?$LE?B?5?A?$LO?$LI?q?$MA?T?$LE?O?$LE?Y@ ; `string'
PUBLIC	??_C@_01CLKCMJKC@?5@				; `string'
PUBLIC	??_C@_01IHBHIGKO@?0@				; `string'
PUBLIC	??_R4CUsrAddListDlg@@6B@			; CUsrAddListDlg::`RTTI Complete Object Locator'
PUBLIC	??_R0?AVCUsrAddListDlg@@@8			; CUsrAddListDlg `RTTI Type Descriptor'
PUBLIC	??_R3CUsrAddListDlg@@8				; CUsrAddListDlg::`RTTI Class Hierarchy Descriptor'
PUBLIC	??_R2CUsrAddListDlg@@8				; CUsrAddListDlg::`RTTI Base Class Array'
PUBLIC	??_R1A@?0A@EA@CUsrAddListDlg@@8			; CUsrAddListDlg::`RTTI Base Class Descriptor at (0,-1,0,64)'
PUBLIC	??_R1A@?0A@EA@CRscDlg@@8			; CRscDlg::`RTTI Base Class Descriptor at (0,-1,0,64)'
PUBLIC	??_R0?AVCRscDlg@@@8				; CRscDlg `RTTI Type Descriptor'
PUBLIC	??_R3CRscDlg@@8					; CRscDlg::`RTTI Class Hierarchy Descriptor'
PUBLIC	??_R2CRscDlg@@8					; CRscDlg::`RTTI Base Class Array'
EXTRN	??3@YAXPAX@Z:PROC				; operator delete
EXTRN	?__global_delete@@YAXPAXI@Z:PROC		; __global_delete
EXTRN	__imp__GetEnvironmentVariableA@12:PROC
EXTRN	__imp__GetModuleHandleA@4:PROC
EXTRN	__imp__RegisterWindowMessageA@4:PROC
EXTRN	__imp__SendMessageA@16:PROC
EXTRN	__imp__IsWindow@4:PROC
EXTRN	__imp__EnableWindow@8:PROC
EXTRN	__imp__InvalidateRect@12:PROC
EXTRN	__imp__GetClientRect@8:PROC
EXTRN	__imp__GetWindowRect@8:PROC
EXTRN	__imp__GetParent@4:PROC
EXTRN	__imp____stdio_common_vsscanf:PROC
EXTRN	__imp__atoi:PROC
EXTRN	__imp_??0?$CStringT@DV?$StrTraitMFC_DLL@DV?$ChTraitsCRT@D@ATL@@@@@ATL@@QAE@XZ:PROC
EXTRN	__imp_??0?$CStringT@DV?$StrTraitMFC_DLL@DV?$ChTraitsCRT@D@ATL@@@@@ATL@@QAE@ABV01@@Z:PROC
EXTRN	__imp_??0?$CStringT@DV?$StrTraitMFC_DLL@DV?$ChTraitsCRT@D@ATL@@@@@ATL@@QAE@PBD@Z:PROC
EXTRN	__imp_??1?$CStringT@DV?$StrTraitMFC_DLL@DV?$ChTraitsCRT@D@ATL@@@@@ATL@@QAE@XZ:PROC
EXTRN	__imp_??4?$CStringT@DV?$StrTraitMFC_DLL@DV?$ChTraitsCRT@D@ATL@@@@@ATL@@QAEAAV01@ABV01@@Z:PROC
EXTRN	__imp_??4?$CStringT@DV?$StrTraitMFC_DLL@DV?$ChTraitsCRT@D@ATL@@@@@ATL@@QAEAAV01@PBD@Z:PROC
EXTRN	__imp_?Compare@?$CStringT@DV?$StrTraitMFC_DLL@DV?$ChTraitsCRT@D@ATL@@@@@ATL@@QBEHPBD@Z:PROC
EXTRN	__imp_?CompareNoCase@?$CStringT@DV?$StrTraitMFC_DLL@DV?$ChTraitsCRT@D@ATL@@@@@ATL@@QBEHPBD@Z:PROC
EXTRN	__imp_?Replace@?$CStringT@DV?$StrTraitMFC_DLL@DV?$ChTraitsCRT@D@ATL@@@@@ATL@@QAEHPBD0@Z:PROC
EXTRN	__imp_?Find@?$CStringT@DV?$StrTraitMFC_DLL@DV?$ChTraitsCRT@D@ATL@@@@@ATL@@QBEHDH@Z:PROC
EXTRN	__imp_?TrimRight@?$CStringT@DV?$StrTraitMFC_DLL@DV?$ChTraitsCRT@D@ATL@@@@@ATL@@QAEAAV12@XZ:PROC
EXTRN	__imp_?TrimLeft@?$CStringT@DV?$StrTraitMFC_DLL@DV?$ChTraitsCRT@D@ATL@@@@@ATL@@QAEAAV12@XZ:PROC
EXTRN	__imp_?Mid@?$CStringT@DV?$StrTraitMFC_DLL@DV?$ChTraitsCRT@D@ATL@@@@@ATL@@QBE?AV12@H@Z:PROC
EXTRN	__imp_?Left@?$CStringT@DV?$StrTraitMFC_DLL@DV?$ChTraitsCRT@D@ATL@@@@@ATL@@QBE?AV12@H@Z:PROC
EXTRN	__imp_?Format@?$CStringT@DV?$StrTraitMFC_DLL@DV?$ChTraitsCRT@D@ATL@@@@@ATL@@QAAXPBDZZ:PROC
EXTRN	?AddTail@CStringList@@QAEPAU__POSITION@@ABV?$CStringT@DV?$StrTraitMFC_DLL@DV?$ChTraitsCRT@D@ATL@@@@@ATL@@@Z:PROC ; CStringList::AddTail
EXTRN	?AfxGetModuleState@@YGPAVAFX_MODULE_STATE@@XZ:PROC ; AfxGetModuleState
EXTRN	?GetRuntimeClass@CGdiObject@@UBEPAUCRuntimeClass@@XZ:PROC ; CGdiObject::GetRuntimeClass
EXTRN	?DeleteObject@CGdiObject@@QAEHXZ:PROC		; CGdiObject::DeleteObject
EXTRN	??_ECGdiObject@@UAEPAXI@Z:PROC			; CGdiObject::`vector deleting destructor'
EXTRN	?GetRuntimeClass@CBrush@@UBEPAUCRuntimeClass@@XZ:PROC ; CBrush::GetRuntimeClass
EXTRN	??_ECBrush@@UAEPAXI@Z:PROC			; CBrush::`vector deleting destructor'
EXTRN	?FillSolidRect@CDC@@QAEXPBUtagRECT@@K@Z:PROC	; CDC::FillSolidRect
EXTRN	??0CPaintDC@@QAE@PAVCWnd@@@Z:PROC		; CPaintDC::CPaintDC
EXTRN	??1CPaintDC@@UAE@XZ:PROC			; CPaintDC::~CPaintDC
EXTRN	?DDX_Control@@YGXPAVCDataExchange@@HAAVCWnd@@@Z:PROC ; DDX_Control
EXTRN	?IsInvokeAllowed@CCmdTarget@@UAEHJ@Z:PROC	; CCmdTarget::IsInvokeAllowed
EXTRN	?GetDispatchIID@CCmdTarget@@UAEHPAU_GUID@@@Z:PROC ; CCmdTarget::GetDispatchIID
EXTRN	?GetTypeInfoCount@CCmdTarget@@UAEIXZ:PROC	; CCmdTarget::GetTypeInfoCount
EXTRN	?GetTypeLibCache@CCmdTarget@@UAEPAVCTypeLibCache@@XZ:PROC ; CCmdTarget::GetTypeLibCache
EXTRN	?GetTypeLib@CCmdTarget@@UAEJKPAPAUITypeLib@@@Z:PROC ; CCmdTarget::GetTypeLib
EXTRN	?GetCommandMap@CCmdTarget@@MBEPBUAFX_OLECMDMAP@@XZ:PROC ; CCmdTarget::GetCommandMap
EXTRN	?GetDispatchMap@CCmdTarget@@MBEPBUAFX_DISPMAP@@XZ:PROC ; CCmdTarget::GetDispatchMap
EXTRN	?GetConnectionMap@CCmdTarget@@MBEPBUAFX_CONNECTIONMAP@@XZ:PROC ; CCmdTarget::GetConnectionMap
EXTRN	?GetEventSinkMap@CCmdTarget@@MBEPBUAFX_EVENTSINKMAP@@XZ:PROC ; CCmdTarget::GetEventSinkMap
EXTRN	?OnCreateAggregates@CCmdTarget@@UAEHXZ:PROC	; CCmdTarget::OnCreateAggregates
EXTRN	?GetInterfaceHook@CCmdTarget@@UAEPAUIUnknown@@PBX@Z:PROC ; CCmdTarget::GetInterfaceHook
EXTRN	?GetExtraConnectionPoints@CCmdTarget@@MAEHPAVCPtrArray@@@Z:PROC ; CCmdTarget::GetExtraConnectionPoints
EXTRN	?GetConnectionHook@CCmdTarget@@MAEPAUIConnectionPoint@@ABU_GUID@@@Z:PROC ; CCmdTarget::GetConnectionHook
EXTRN	?FromHandle@CWnd@@SGPAV1@PAUHWND__@@@Z:PROC	; CWnd::FromHandle
EXTRN	?PreSubclassWindow@CWnd@@UAEXXZ:PROC		; CWnd::PreSubclassWindow
EXTRN	?Create@CWnd@@UAEHPBD0KABUtagRECT@@PAV1@IPAUCCreateContext@@@Z:PROC ; CWnd::Create
EXTRN	?CreateEx@CWnd@@UAEHKPBD0KHHHHPAUHWND__@@PAUHMENU__@@PAX@Z:PROC ; CWnd::CreateEx
EXTRN	?CreateEx@CWnd@@UAEHKPBD0KABUtagRECT@@PAV1@IPAX@Z:PROC ; CWnd::CreateEx
EXTRN	?DestroyWindow@CWnd@@UAEHXZ:PROC		; CWnd::DestroyWindow
EXTRN	?PreCreateWindow@CWnd@@UAEHAAUtagCREATESTRUCTA@@@Z:PROC ; CWnd::PreCreateWindow
EXTRN	?CalcWindowRect@CWnd@@UAEXPAUtagRECT@@I@Z:PROC	; CWnd::CalcWindowRect
EXTRN	?GetMenu@CWnd@@UBEPAVCMenu@@XZ:PROC		; CWnd::GetMenu
EXTRN	?SetMenu@CWnd@@UAEHPAVCMenu@@@Z:PROC		; CWnd::SetMenu
EXTRN	?MoveWindow@CWnd@@QAEXHHHHH@Z:PROC		; CWnd::MoveWindow
EXTRN	?ScreenToClient@CWnd@@QBEXPAUtagRECT@@@Z:PROC	; CWnd::ScreenToClient
EXTRN	?OnToolHitTest@CWnd@@UBEHVCPoint@@PAUtagTOOLINFOA@@@Z:PROC ; CWnd::OnToolHitTest
EXTRN	?GetScrollBarCtrl@CWnd@@UBEPAVCScrollBar@@H@Z:PROC ; CWnd::GetScrollBarCtrl
EXTRN	?MessageBoxA@CWnd@@QAEHPBD0I@Z:PROC		; CWnd::MessageBoxA
EXTRN	?WinHelpA@CWnd@@UAEXKI@Z:PROC			; CWnd::WinHelpA
EXTRN	?HtmlHelpA@CWnd@@UAEXKI@Z:PROC			; CWnd::HtmlHelpA
EXTRN	?WinHelpInternal@CWnd@@UAEXKI@Z:PROC		; CWnd::WinHelpInternal
EXTRN	?ContinueModal@CWnd@@UAEHXZ:PROC		; CWnd::ContinueModal
EXTRN	?EndModalLoop@CWnd@@UAEXH@Z:PROC		; CWnd::EndModalLoop
EXTRN	?OnDrawIconicThumbnailOrLivePreview@CWnd@@UAEXAAVCDC@@VCRect@@VCSize@@HAAH@Z:PROC ; CWnd::OnDrawIconicThumbnailOrLivePreview
EXTRN	?GetInterfaceMap@CWnd@@MBEPBUAFX_INTERFACEMAP@@XZ:PROC ; CWnd::GetInterfaceMap
EXTRN	?EnsureStdObj@CWnd@@UAEJXZ:PROC			; CWnd::EnsureStdObj
EXTRN	?get_accParent@CWnd@@UAEJPAPAUIDispatch@@@Z:PROC ; CWnd::get_accParent
EXTRN	?get_accChildCount@CWnd@@UAEJPAJ@Z:PROC		; CWnd::get_accChildCount
EXTRN	?get_accChild@CWnd@@UAEJUtagVARIANT@@PAPAUIDispatch@@@Z:PROC ; CWnd::get_accChild
EXTRN	?get_accName@CWnd@@UAEJUtagVARIANT@@PAPA_W@Z:PROC ; CWnd::get_accName
EXTRN	?get_accValue@CWnd@@UAEJUtagVARIANT@@PAPA_W@Z:PROC ; CWnd::get_accValue
EXTRN	?get_accDescription@CWnd@@UAEJUtagVARIANT@@PAPA_W@Z:PROC ; CWnd::get_accDescription
EXTRN	?get_accRole@CWnd@@UAEJUtagVARIANT@@PAU2@@Z:PROC ; CWnd::get_accRole
EXTRN	?get_accState@CWnd@@UAEJUtagVARIANT@@PAU2@@Z:PROC ; CWnd::get_accState
EXTRN	?get_accHelp@CWnd@@UAEJUtagVARIANT@@PAPA_W@Z:PROC ; CWnd::get_accHelp
EXTRN	?get_accHelpTopic@CWnd@@UAEJPAPA_WUtagVARIANT@@PAJ@Z:PROC ; CWnd::get_accHelpTopic
EXTRN	?get_accKeyboardShortcut@CWnd@@UAEJUtagVARIANT@@PAPA_W@Z:PROC ; CWnd::get_accKeyboardShortcut
EXTRN	?get_accFocus@CWnd@@UAEJPAUtagVARIANT@@@Z:PROC	; CWnd::get_accFocus
EXTRN	?get_accSelection@CWnd@@UAEJPAUtagVARIANT@@@Z:PROC ; CWnd::get_accSelection
EXTRN	?get_accDefaultAction@CWnd@@UAEJUtagVARIANT@@PAPA_W@Z:PROC ; CWnd::get_accDefaultAction
EXTRN	?accSelect@CWnd@@UAEJJUtagVARIANT@@@Z:PROC	; CWnd::accSelect
EXTRN	?accLocation@CWnd@@UAEJPAJ000UtagVARIANT@@@Z:PROC ; CWnd::accLocation
EXTRN	?accNavigate@CWnd@@UAEJJUtagVARIANT@@PAU2@@Z:PROC ; CWnd::accNavigate
EXTRN	?accHitTest@CWnd@@UAEJJJPAUtagVARIANT@@@Z:PROC	; CWnd::accHitTest
EXTRN	?accDoDefaultAction@CWnd@@UAEJUtagVARIANT@@@Z:PROC ; CWnd::accDoDefaultAction
EXTRN	?put_accName@CWnd@@UAEJUtagVARIANT@@PA_W@Z:PROC	; CWnd::put_accName
EXTRN	?put_accValue@CWnd@@UAEJUtagVARIANT@@PA_W@Z:PROC ; CWnd::put_accValue
EXTRN	?SetProxy@CWnd@@UAEJPAUIAccessibleProxy@@@Z:PROC ; CWnd::SetProxy
EXTRN	?CreateAccessibleProxy@CWnd@@UAEJIJPAJ@Z:PROC	; CWnd::CreateAccessibleProxy
EXTRN	?OnCommand@CWnd@@MAEHIJ@Z:PROC			; CWnd::OnCommand
EXTRN	?OnNotify@CWnd@@MAEHIJPAJ@Z:PROC		; CWnd::OnNotify
EXTRN	?GetSuperWndProcAddr@CWnd@@MAEPAP6GJPAUHWND__@@IIJ@ZXZ:PROC ; CWnd::GetSuperWndProcAddr
EXTRN	?OnAmbientProperty@CWnd@@UAEHPAVCOleControlSite@@JPAUtagVARIANT@@@Z:PROC ; CWnd::OnAmbientProperty
EXTRN	?WindowProc@CWnd@@MAEJIIJ@Z:PROC		; CWnd::WindowProc
EXTRN	?OnWndMsg@CWnd@@MAEHIIJPAJ@Z:PROC		; CWnd::OnWndMsg
EXTRN	?Default@CWnd@@IAEJXZ:PROC			; CWnd::Default
EXTRN	?DefWindowProcA@CWnd@@MAEJIIJ@Z:PROC		; CWnd::DefWindowProcA
EXTRN	?PostNcDestroy@CWnd@@MAEXXZ:PROC		; CWnd::PostNcDestroy
EXTRN	?OnChildNotify@CWnd@@MAEHIIJPAJ@Z:PROC		; CWnd::OnChildNotify
EXTRN	?OnTouchInputs@CWnd@@MAEHIPAUtagTOUCHINPUT@@@Z:PROC ; CWnd::OnTouchInputs
EXTRN	?OnTouchInput@CWnd@@MAEHVCPoint@@HHPAUtagTOUCHINPUT@@@Z:PROC ; CWnd::OnTouchInput
EXTRN	?GetGestureStatus@CWnd@@MAEKVCPoint@@@Z:PROC	; CWnd::GetGestureStatus
EXTRN	?OnGestureZoom@CWnd@@MAEHVCPoint@@J@Z:PROC	; CWnd::OnGestureZoom
EXTRN	?OnGesturePan@CWnd@@MAEHVCPoint@@0@Z:PROC	; CWnd::OnGesturePan
EXTRN	?OnGestureRotate@CWnd@@MAEHVCPoint@@N@Z:PROC	; CWnd::OnGestureRotate
EXTRN	?OnGestureTwoFingerTap@CWnd@@MAEHVCPoint@@@Z:PROC ; CWnd::OnGestureTwoFingerTap
EXTRN	?OnGesturePressAndTap@CWnd@@MAEHVCPoint@@J@Z:PROC ; CWnd::OnGesturePressAndTap
EXTRN	?ResizeDynamicLayout@CWnd@@MAEXXZ:PROC		; CWnd::ResizeDynamicLayout
EXTRN	?IsFrameWnd@CWnd@@UBEHXZ:PROC			; CWnd::IsFrameWnd
EXTRN	?OnFinalRelease@CWnd@@UAEXXZ:PROC		; CWnd::OnFinalRelease
EXTRN	?CreateControlContainer@CWnd@@MAEHPAPAVCOleControlContainer@@@Z:PROC ; CWnd::CreateControlContainer
EXTRN	?CreateControlSite@CWnd@@MAEHPAVCOleControlContainer@@PAPAVCOleControlSite@@IABU_GUID@@@Z:PROC ; CWnd::CreateControlSite
EXTRN	?GetRuntimeClass@CDialog@@UBEPAUCRuntimeClass@@XZ:PROC ; CDialog::GetRuntimeClass
EXTRN	?Create@CDialog@@UAEHPBDPAVCWnd@@@Z:PROC	; CDialog::Create
EXTRN	?CreateIndirect@CDialog@@UAEHPBUDLGTEMPLATE@@PAVCWnd@@PAX@Z:PROC ; CDialog::CreateIndirect
EXTRN	?CreateIndirect@CDialog@@UAEHPAXPAVCWnd@@@Z:PROC ; CDialog::CreateIndirect
EXTRN	?DoModal@CDialog@@UAEHXZ:PROC			; CDialog::DoModal
EXTRN	?OnSetFont@CDialog@@UAEXPAVCFont@@@Z:PROC	; CDialog::OnSetFont
EXTRN	?OnOK@CDialog@@MAEXXZ:PROC			; CDialog::OnOK
EXTRN	?OnCancel@CDialog@@MAEXXZ:PROC			; CDialog::OnCancel
EXTRN	??1CDialog@@UAE@XZ:PROC				; CDialog::~CDialog
EXTRN	?PreTranslateMessage@CDialog@@UAEHPAUtagMSG@@@Z:PROC ; CDialog::PreTranslateMessage
EXTRN	?OnCmdMsg@CDialog@@UAEHIHPAXPAUAFX_CMDHANDLERINFO@@@Z:PROC ; CDialog::OnCmdMsg
EXTRN	?CheckAutoCenter@CDialog@@UAEHXZ:PROC		; CDialog::CheckAutoCenter
EXTRN	?SetOccDialogInfo@CDialog@@MAEHPAU_AFX_OCC_DIALOG_INFO@@@Z:PROC ; CDialog::SetOccDialogInfo
EXTRN	?GetOccDialogInfo@CDialog@@MAEPAU_AFX_OCC_DIALOG_INFO@@XZ:PROC ; CDialog::GetOccDialogInfo
EXTRN	?PreInitDialog@CDialog@@MAEXXZ:PROC		; CDialog::PreInitDialog
EXTRN	?AfxMessageBox@@YGHPBDII@Z:PROC			; AfxMessageBox
EXTRN	?GetItemText@CListCtrl@@QBE?AV?$CStringT@DV?$StrTraitMFC_DLL@DV?$ChTraitsCRT@D@ATL@@@@@ATL@@HH@Z:PROC ; CListCtrl::GetItemText
EXTRN	?GetCheck@CListCtrl@@QBEHH@Z:PROC		; CListCtrl::GetCheck
EXTRN	??0CRscDlg@@QAE@IPAVCWnd@@@Z:PROC		; CRscDlg::CRscDlg
EXTRN	?Create@CRscDlg@@UAEHIPAVCWnd@@@Z:PROC		; CRscDlg::Create
EXTRN	?DoModal@CRscDlg@@UAEHXZ:PROC			; CRscDlg::DoModal
EXTRN	?OnInitDialog@CRscDlg@@MAEHXZ:PROC		; CRscDlg::OnInitDialog
EXTRN	?DoDataExchange@CRscDlg@@MAEXPAVCDataExchange@@@Z:PROC ; CRscDlg::DoDataExchange
EXTRN	?OnDestroy@CRscDlg@@IAEXXZ:PROC			; CRscDlg::OnDestroy
EXTRN	?OnCtlColor@CRscDlg@@IAEPAUHBRUSH__@@PAVCDC@@PAVCWnd@@I@Z:PROC ; CRscDlg::OnCtlColor
EXTRN	?GetThisMessageMap@CRscDlg@@KGPBUAFX_MSGMAP@@XZ:PROC ; CRscDlg::GetThisMessageMap
EXTRN	?DeleteAllItems@CXListCtrl@@QAEHXZ:PROC		; CXListCtrl::DeleteAllItems
EXTRN	?GetCheckbox@CXListCtrl@@QAEHHH@Z:PROC		; CXListCtrl::GetCheckbox
EXTRN	?InsertItem@CXListCtrl@@QAEHHPBD@Z:PROC		; CXListCtrl::InsertItem
EXTRN	?SetCurSel@CXListCtrl@@QAEHHH@Z:PROC		; CXListCtrl::SetCurSel
EXTRN	?SetItemText@CXListCtrl@@QAEHHHPBD@Z:PROC	; CXListCtrl::SetItemText
EXTRN	?SetRowHeight@CXListCtrl@@QAEXF@Z:PROC		; CXListCtrl::SetRowHeight
EXTRN	??0CNsyButtonListCtrl@@QAE@XZ:PROC		; CNsyButtonListCtrl::CNsyButtonListCtrl
EXTRN	?SendToChartRemoveGraph@CNsyButtonListCtrl@@QAEXH@Z:PROC ; CNsyButtonListCtrl::SendToChartRemoveGraph
EXTRN	?Init_CompareChart@CNsyButtonListCtrl@@QAEXXZ:PROC ; CNsyButtonListCtrl::Init_CompareChart
EXTRN	?DeleteOneItem@CNsyButtonListCtrl@@QAEXXZ:PROC	; CNsyButtonListCtrl::DeleteOneItem
EXTRN	?RemoveOnlyList@CNsyButtonListCtrl@@QAEXH@Z:PROC ; CNsyButtonListCtrl::RemoveOnlyList
EXTRN	?Init@CNsyButtonListCtrl@@QAEXXZ:PROC		; CNsyButtonListCtrl::Init
EXTRN	?SetItemButton@CNsyButtonListCtrl@@QAEXHV?$CStringT@DV?$StrTraitMFC_DLL@DV?$ChTraitsCRT@D@ATL@@@@@ATL@@H@Z:PROC ; CNsyButtonListCtrl::SetItemButton
EXTRN	??1CNsyButtonListCtrl@@UAE@XZ:PROC		; CNsyButtonListCtrl::~CNsyButtonListCtrl
EXTRN	??0CILButton@@QAE@XZ:PROC			; CILButton::CILButton
EXTRN	?FP_vSetImage@CILButton@@QAEXPAVCImageList@@HHHV?$CStringT@DV?$StrTraitMFC_DLL@DV?$ChTraitsCRT@D@ATL@@@@@ATL@@HHH@Z:PROC ; CILButton::FP_vSetImage
EXTRN	??1CILButton@@UAE@XZ:PROC			; CILButton::~CILButton
EXTRN	??_ECUsrAddListDlg@@UAEPAXI@Z:PROC		; CUsrAddListDlg::`vector deleting destructor'
EXTRN	?SetGraphHide3@CStdDialog@@QAEXV?$CStringT@DV?$StrTraitMFC_DLL@DV?$ChTraitsCRT@D@ATL@@@@@ATL@@0H@Z:PROC ; CStdDialog::SetGraphHide3
EXTRN	?RequestTRFormCode@CStdDialog@@QAEHPBDH@Z:PROC	; CStdDialog::RequestTRFormCode
EXTRN	?GetELWIndexCode@CStdDialog@@QAEXV?$CStringT@DV?$StrTraitMFC_DLL@DV?$ChTraitsCRT@D@ATL@@@@@ATL@@AAV23@1@Z:PROC ; CStdDialog::GetELWIndexCode
EXTRN	??0CDlgItemMaxCount@@QAE@HAAHPAVCWnd@@@Z:PROC	; CDlgItemMaxCount::CDlgItemMaxCount
EXTRN	@__security_check_cookie@4:PROC
EXTRN	___CxxFrameHandler3:PROC
EXTRN	??_7type_info@@6B@:QWORD			; type_info::`vftable'
EXTRN	?WM_XLISTCTRL_CHECKBOX_CLICKED@@3IA:DWORD	; WM_XLISTCTRL_CHECKBOX_CLICKED
EXTRN	?WM_XLISTCTRL_DBCLICK@@3IA:DWORD		; WM_XLISTCTRL_DBCLICK
EXTRN	?m_ImgList_W60H20@CStdDialog@@2VCImageList@@A:QWORD ; CStdDialog::m_ImgList_W60H20
EXTRN	?g_hInstance@@3PAUHINSTANCE__@@A:DWORD		; g_hInstance
EXTRN	___security_cookie:DWORD
;	COMDAT ?_OptionsStorage@?1??__local_stdio_scanf_options@@9@4_KA
_BSS	SEGMENT
?_OptionsStorage@?1??__local_stdio_scanf_options@@9@4_KA DQ 01H DUP (?) ; `__local_stdio_scanf_options'::`2'::_OptionsStorage
_BSS	ENDS
_BSS	SEGMENT
?RMSG_INTERFACE@@3IB DD 01H DUP (?)			; RMSG_INTERFACE
?RMSG_GETSIGNAL_REAL@@3IB DD 01H DUP (?)		; RMSG_GETSIGNAL_REAL
?RMSG_CHARTMAIN@@3IB DD 01H DUP (?)			; RMSG_CHARTMAIN
?RMS_ANALYSIS_FUNC@@3IB DD 01H DUP (?)			; RMS_ANALYSIS_FUNC
?RMSG_GET_USERID@@3IB DD 01H DUP (?)			; RMSG_GET_USERID
?RMSG_KSDLLINFO@@3IB DD 01H DUP (?)			; RMSG_KSDLLINFO
?RMSG_GETINFO@@3IB DD 01H DUP (?)			; RMSG_GETINFO
?RMSG_CHANGE_SKINCOLOR@@3IB DD 01H DUP (?)		; RMSG_CHANGE_SKINCOLOR
?RMSG_GET_SKINCOLOR@@3IB DD 01H DUP (?)			; RMSG_GET_SKINCOLOR
?RMSG_CHANGE_CROSSLINE@@3IB DD 01H DUP (?)		; RMSG_CHANGE_CROSSLINE
?RMSG_REPLAY_REAL@@3IB DD 01H DUP (?)			; RMSG_REPLAY_REAL
?RMSG_REPLAY_FAIL@@3IB DD 01H DUP (?)			; RMSG_REPLAY_FAIL
?RMSG_REPLAY_CHANGE_DATE@@3IB DD 01H DUP (?)		; RMSG_REPLAY_CHANGE_DATE
?RMSG_REPLAY_END@@3IB DD 01H DUP (?)			; RMSG_REPLAY_END
?RMSG_REPLAY_INC_SEC@@3IB DD 01H DUP (?)		; RMSG_REPLAY_INC_SEC
?RMSG_REPLAY_TOTAL_SEC@@3IB DD 01H DUP (?)		; RMSG_REPLAY_TOTAL_SEC
?RMSG_SELCHARTCODE@@3IB DD 01H DUP (?)			; RMSG_SELCHARTCODE
_BSS	ENDS
CRT$XCU	SEGMENT
?RMSG_INTERFACE$initializer$@@3P6AXXZA DD FLAT:??__ERMSG_INTERFACE@@YAXXZ ; RMSG_INTERFACE$initializer$
CRT$XCU	ENDS
;	COMDAT ??_R2CRscDlg@@8
rdata$r	SEGMENT
??_R2CRscDlg@@8 DD FLAT:??_R1A@?0A@EA@CRscDlg@@8	; CRscDlg::`RTTI Base Class Array'
	DD	FLAT:??_R1A@?0A@EA@CDialog@@8
	DD	FLAT:??_R1A@?0A@EA@CWnd@@8
	DD	FLAT:??_R1A@?0A@EA@CCmdTarget@@8
	DD	FLAT:??_R1A@?0A@EA@CObject@@8
rdata$r	ENDS
;	COMDAT ??_R3CRscDlg@@8
rdata$r	SEGMENT
??_R3CRscDlg@@8 DD 00H					; CRscDlg::`RTTI Class Hierarchy Descriptor'
	DD	00H
	DD	05H
	DD	FLAT:??_R2CRscDlg@@8
rdata$r	ENDS
;	COMDAT ??_R0?AVCRscDlg@@@8
data$rs	SEGMENT
??_R0?AVCRscDlg@@@8 DD FLAT:??_7type_info@@6B@		; CRscDlg `RTTI Type Descriptor'
	DD	00H
	DB	'.?AVCRscDlg@@', 00H
data$rs	ENDS
;	COMDAT ??_R1A@?0A@EA@CRscDlg@@8
rdata$r	SEGMENT
??_R1A@?0A@EA@CRscDlg@@8 DD FLAT:??_R0?AVCRscDlg@@@8	; CRscDlg::`RTTI Base Class Descriptor at (0,-1,0,64)'
	DD	04H
	DD	00H
	DD	0ffffffffH
	DD	00H
	DD	040H
	DD	FLAT:??_R3CRscDlg@@8
rdata$r	ENDS
;	COMDAT ??_R1A@?0A@EA@CUsrAddListDlg@@8
rdata$r	SEGMENT
??_R1A@?0A@EA@CUsrAddListDlg@@8 DD FLAT:??_R0?AVCUsrAddListDlg@@@8 ; CUsrAddListDlg::`RTTI Base Class Descriptor at (0,-1,0,64)'
	DD	05H
	DD	00H
	DD	0ffffffffH
	DD	00H
	DD	040H
	DD	FLAT:??_R3CUsrAddListDlg@@8
rdata$r	ENDS
;	COMDAT ??_R2CUsrAddListDlg@@8
rdata$r	SEGMENT
??_R2CUsrAddListDlg@@8 DD FLAT:??_R1A@?0A@EA@CUsrAddListDlg@@8 ; CUsrAddListDlg::`RTTI Base Class Array'
	DD	FLAT:??_R1A@?0A@EA@CRscDlg@@8
	DD	FLAT:??_R1A@?0A@EA@CDialog@@8
	DD	FLAT:??_R1A@?0A@EA@CWnd@@8
	DD	FLAT:??_R1A@?0A@EA@CCmdTarget@@8
	DD	FLAT:??_R1A@?0A@EA@CObject@@8
rdata$r	ENDS
;	COMDAT ??_R3CUsrAddListDlg@@8
rdata$r	SEGMENT
??_R3CUsrAddListDlg@@8 DD 00H				; CUsrAddListDlg::`RTTI Class Hierarchy Descriptor'
	DD	00H
	DD	06H
	DD	FLAT:??_R2CUsrAddListDlg@@8
rdata$r	ENDS
;	COMDAT ??_R0?AVCUsrAddListDlg@@@8
data$rs	SEGMENT
??_R0?AVCUsrAddListDlg@@@8 DD FLAT:??_7type_info@@6B@	; CUsrAddListDlg `RTTI Type Descriptor'
	DD	00H
	DB	'.?AVCUsrAddListDlg@@', 00H
data$rs	ENDS
;	COMDAT ??_R4CUsrAddListDlg@@6B@
rdata$r	SEGMENT
??_R4CUsrAddListDlg@@6B@ DD 00H				; CUsrAddListDlg::`RTTI Complete Object Locator'
	DD	00H
	DD	00H
	DD	FLAT:??_R0?AVCUsrAddListDlg@@@8
	DD	FLAT:??_R3CUsrAddListDlg@@8
rdata$r	ENDS
;	COMDAT ??_C@_01IHBHIGKO@?0@
CONST	SEGMENT
??_C@_01IHBHIGKO@?0@ DB ',', 00H			; `string'
CONST	ENDS
;	COMDAT ??_C@_01CLKCMJKC@?5@
CONST	SEGMENT
??_C@_01CLKCMJKC@?5@ DB ' ', 00H			; `string'
CONST	ENDS
;	COMDAT ??_C@_0BO@CCHFAMEF@?$MA?L?$LJ?L?5?C?$NP?$LA?$KB?$LF?G?$LO?n?5?$MA?V?$LE?B?5?A?$LO?$LI?q?$MA?T?$LE?O?$LE?Y@
CONST	SEGMENT
??_C@_0BO@CCHFAMEF@?$MA?L?$LJ?L?5?C?$NP?$LA?$KB?$LF?G?$LO?n?5?$MA?V?$LE?B?5?A?$LO?$LI?q?$MA?T?$LE?O?$LE?Y@ DB 0c0H
	DB	0ccH, 0b9H, 0ccH, ' ', 0c3H, 0dfH, 0b0H, 0a1H, 0b5H, 0c7H, 0beH
	DB	0eeH, ' ', 0c0H, 0d6H, 0b4H, 0c2H, ' ', 0c1H, 0beH, 0b8H, 0f1H
	DB	0c0H, 0d4H, 0b4H, 0cfH, 0b4H, 0d9H, 00H	; `string'
CONST	ENDS
;	COMDAT ??_C@_04OFPKEPEE@?$LO?H?$LD?$LL@
CONST	SEGMENT
??_C@_04OFPKEPEE@?$LO?H?$LD?$LL@ DB 0beH, 0c8H, 0b3H, 0bbH, 00H ; `string'
CONST	ENDS
;	COMDAT ??_C@_0L@BFMOPOGD@?D?Z?$LN?$LK?$LE?Z?A?$LO?G?U@
CONST	SEGMENT
??_C@_0L@BFMOPOGD@?D?Z?$LN?$LK?$LE?Z?A?$LO?G?U@ DB 0c4H, 0daH, 0bdH, 0baH
	DB	0b4H, 0daH, 0c1H, 0beH, 0c7H, 0d5H, 00H	; `string'
CONST	ENDS
;	COMDAT ??_C@_04PACBPJIH@2001@
CONST	SEGMENT
??_C@_04PACBPJIH@2001@ DB '2001', 00H			; `string'
CONST	ENDS
;	COMDAT ??_C@_0L@HHAGCFJA@?D?Z?$LN?$LK?G?G?A?$LO?G?U@
CONST	SEGMENT
??_C@_0L@HHAGCFJA@?D?Z?$LN?$LK?G?G?A?$LO?G?U@ DB 0c4H, 0daH, 0bdH, 0baH, 0c7H
	DB	0c7H, 0c1H, 0beH, 0c7H, 0d5H, 00H		; `string'
CONST	ENDS
;	COMDAT ??_C@_04ECABCFJH@5001@
CONST	SEGMENT
??_C@_04ECABCFJH@5001@ DB '5001', 00H			; `string'
CONST	ENDS
;	COMDAT ??_C@_01HNPIGOCE@?$CG@
CONST	SEGMENT
??_C@_01HNPIGOCE@?$CG@ DB '&', 00H			; `string'
CONST	ENDS
;	COMDAT ??_C@_02PPKAJPJL@?$CG?$CG@
CONST	SEGMENT
??_C@_02PPKAJPJL@?$CG?$CG@ DB '&&', 00H			; `string'
CONST	ENDS
;	COMDAT ?messageMap@?1??GetThisMessageMap@CUsrAddListDlg@@KGPBUAFX_MSGMAP@@XZ@4U3@B
CONST	SEGMENT
?messageMap@?1??GetThisMessageMap@CUsrAddListDlg@@KGPBUAFX_MSGMAP@@XZ@4U3@B DD FLAT:?GetThisMessageMap@CRscDlg@@KGPBUAFX_MSGMAP@@XZ ; `CUsrAddListDlg::GetThisMessageMap'::`2'::messageMap
	DD	FLAT:?_messageEntries@?1??GetThisMessageMap@CUsrAddListDlg@@KGPBUAFX_MSGMAP@@XZ@4QBUAFX_MSGMAP_ENTRY@@B
CONST	ENDS
;	COMDAT ?_messageEntries@?1??GetThisMessageMap@CUsrAddListDlg@@KGPBUAFX_MSGMAP@@XZ@4QBUAFX_MSGMAP_ENTRY@@B
CONST	SEGMENT
?_messageEntries@?1??GetThisMessageMap@CUsrAddListDlg@@KGPBUAFX_MSGMAP@@XZ@4QBUAFX_MSGMAP_ENTRY@@B DD 0111H ; `CUsrAddListDlg::GetThisMessageMap'::`2'::_messageEntries
	DD	00H
	DD	0188fH
	DD	0188fH
	DD	03aH
	DD	FLAT:?OnBtnAdd@CUsrAddListDlg@@IAEXXZ
	DD	0111H
	DD	00H
	DD	0188eH
	DD	0188eH
	DD	03aH
	DD	FLAT:?OnBtnDel@CUsrAddListDlg@@IAEXXZ
	DD	0111H
	DD	00H
	DD	0188dH
	DD	0188dH
	DD	03aH
	DD	FLAT:?OnBtnInit@CUsrAddListDlg@@IAEXXZ
	DD	05H
	DD	00H
	DD	00H
	DD	00H
	DD	01aH
	DD	FLAT:?OnSize@CUsrAddListDlg@@IAEXIHH@Z
	DD	02H
	DD	00H
	DD	00H
	DD	00H
	DD	013H
	DD	FLAT:?OnDestroy@CUsrAddListDlg@@IAEXXZ
	DD	019H
	DD	00H
	DD	00H
	DD	00H
	DD	08H
	DD	FLAT:?OnCtlColor@CRscDlg@@IAEPAUHBRUSH__@@PAVCDC@@PAVCWnd@@I@Z
	DD	0fH
	DD	00H
	DD	00H
	DD	00H
	DD	013H
	DD	FLAT:?OnPaint@CUsrAddListDlg@@IAEXXZ
	DD	0c000H
	DD	00H
	DD	00H
	DD	00H
	DD	FLAT:?WM_XLISTCTRL_CHECKBOX_CLICKED@@3IA
	DD	FLAT:?OnRecvMsg_CheckBoxStates_From_XListCtrl@CUsrAddListDlg@@IAEJIJ@Z
	DD	0c000H
	DD	00H
	DD	00H
	DD	00H
	DD	FLAT:?WM_XLISTCTRL_DBCLICK@@3IA
	DD	FLAT:?OnRecvMsg_DBClick_From_XListCtrl@CUsrAddListDlg@@IAEJIJ@Z
	DD	00H
	DD	00H
	DD	00H
	DD	00H
	DD	00H
	DD	00H
CONST	ENDS
;	COMDAT ??_7CUsrAddListDlg@@6B@
CONST	SEGMENT
??_7CUsrAddListDlg@@6B@ DD FLAT:??_R4CUsrAddListDlg@@6B@ ; CUsrAddListDlg::`vftable'
	DD	FLAT:?GetRuntimeClass@CDialog@@UBEPAUCRuntimeClass@@XZ
	DD	FLAT:??_ECUsrAddListDlg@@UAEPAXI@Z
	DD	FLAT:?Serialize@CObject@@UAEXAAVCArchive@@@Z
	DD	FLAT:?AssertValid@CObject@@UBEXXZ
	DD	FLAT:?Dump@CObject@@UBEXAAVCDumpContext@@@Z
	DD	FLAT:?OnCmdMsg@CDialog@@UAEHIHPAXPAUAFX_CMDHANDLERINFO@@@Z
	DD	FLAT:?OnFinalRelease@CWnd@@UAEXXZ
	DD	FLAT:?IsInvokeAllowed@CCmdTarget@@UAEHJ@Z
	DD	FLAT:?GetDispatchIID@CCmdTarget@@UAEHPAU_GUID@@@Z
	DD	FLAT:?GetTypeInfoCount@CCmdTarget@@UAEIXZ
	DD	FLAT:?GetTypeLibCache@CCmdTarget@@UAEPAVCTypeLibCache@@XZ
	DD	FLAT:?GetTypeLib@CCmdTarget@@UAEJKPAPAUITypeLib@@@Z
	DD	FLAT:?GetMessageMap@CUsrAddListDlg@@MBEPBUAFX_MSGMAP@@XZ
	DD	FLAT:?GetCommandMap@CCmdTarget@@MBEPBUAFX_OLECMDMAP@@XZ
	DD	FLAT:?GetDispatchMap@CCmdTarget@@MBEPBUAFX_DISPMAP@@XZ
	DD	FLAT:?GetConnectionMap@CCmdTarget@@MBEPBUAFX_CONNECTIONMAP@@XZ
	DD	FLAT:?GetInterfaceMap@CWnd@@MBEPBUAFX_INTERFACEMAP@@XZ
	DD	FLAT:?GetEventSinkMap@CCmdTarget@@MBEPBUAFX_EVENTSINKMAP@@XZ
	DD	FLAT:?OnCreateAggregates@CCmdTarget@@UAEHXZ
	DD	FLAT:?GetInterfaceHook@CCmdTarget@@UAEPAUIUnknown@@PBX@Z
	DD	FLAT:?GetExtraConnectionPoints@CCmdTarget@@MAEHPAVCPtrArray@@@Z
	DD	FLAT:?GetConnectionHook@CCmdTarget@@MAEPAUIConnectionPoint@@ABU_GUID@@@Z
	DD	FLAT:?PreSubclassWindow@CWnd@@UAEXXZ
	DD	FLAT:?Create@CWnd@@UAEHPBD0KABUtagRECT@@PAV1@IPAUCCreateContext@@@Z
	DD	FLAT:?CreateEx@CWnd@@UAEHKPBD0KABUtagRECT@@PAV1@IPAX@Z
	DD	FLAT:?CreateEx@CWnd@@UAEHKPBD0KHHHHPAUHWND__@@PAUHMENU__@@PAX@Z
	DD	FLAT:?DestroyWindow@CWnd@@UAEHXZ
	DD	FLAT:?PreCreateWindow@CWnd@@UAEHAAUtagCREATESTRUCTA@@@Z
	DD	FLAT:?CalcWindowRect@CWnd@@UAEXPAUtagRECT@@I@Z
	DD	FLAT:?GetMenu@CWnd@@UBEPAVCMenu@@XZ
	DD	FLAT:?SetMenu@CWnd@@UAEHPAVCMenu@@@Z
	DD	FLAT:?OnToolHitTest@CWnd@@UBEHVCPoint@@PAUtagTOOLINFOA@@@Z
	DD	FLAT:?GetScrollBarCtrl@CWnd@@UBEPAVCScrollBar@@H@Z
	DD	FLAT:?WinHelpA@CWnd@@UAEXKI@Z
	DD	FLAT:?HtmlHelpA@CWnd@@UAEXKI@Z
	DD	FLAT:?WinHelpInternal@CWnd@@UAEXKI@Z
	DD	FLAT:?ContinueModal@CWnd@@UAEHXZ
	DD	FLAT:?EndModalLoop@CWnd@@UAEXH@Z
	DD	FLAT:?OnDrawIconicThumbnailOrLivePreview@CWnd@@UAEXAAVCDC@@VCRect@@VCSize@@HAAH@Z
	DD	FLAT:?EnsureStdObj@CWnd@@UAEJXZ
	DD	FLAT:?get_accParent@CWnd@@UAEJPAPAUIDispatch@@@Z
	DD	FLAT:?get_accChildCount@CWnd@@UAEJPAJ@Z
	DD	FLAT:?get_accChild@CWnd@@UAEJUtagVARIANT@@PAPAUIDispatch@@@Z
	DD	FLAT:?get_accName@CWnd@@UAEJUtagVARIANT@@PAPA_W@Z
	DD	FLAT:?get_accValue@CWnd@@UAEJUtagVARIANT@@PAPA_W@Z
	DD	FLAT:?get_accDescription@CWnd@@UAEJUtagVARIANT@@PAPA_W@Z
	DD	FLAT:?get_accRole@CWnd@@UAEJUtagVARIANT@@PAU2@@Z
	DD	FLAT:?get_accState@CWnd@@UAEJUtagVARIANT@@PAU2@@Z
	DD	FLAT:?get_accHelp@CWnd@@UAEJUtagVARIANT@@PAPA_W@Z
	DD	FLAT:?get_accHelpTopic@CWnd@@UAEJPAPA_WUtagVARIANT@@PAJ@Z
	DD	FLAT:?get_accKeyboardShortcut@CWnd@@UAEJUtagVARIANT@@PAPA_W@Z
	DD	FLAT:?get_accFocus@CWnd@@UAEJPAUtagVARIANT@@@Z
	DD	FLAT:?get_accSelection@CWnd@@UAEJPAUtagVARIANT@@@Z
	DD	FLAT:?get_accDefaultAction@CWnd@@UAEJUtagVARIANT@@PAPA_W@Z
	DD	FLAT:?accSelect@CWnd@@UAEJJUtagVARIANT@@@Z
	DD	FLAT:?accLocation@CWnd@@UAEJPAJ000UtagVARIANT@@@Z
	DD	FLAT:?accNavigate@CWnd@@UAEJJUtagVARIANT@@PAU2@@Z
	DD	FLAT:?accHitTest@CWnd@@UAEJJJPAUtagVARIANT@@@Z
	DD	FLAT:?accDoDefaultAction@CWnd@@UAEJUtagVARIANT@@@Z
	DD	FLAT:?put_accName@CWnd@@UAEJUtagVARIANT@@PA_W@Z
	DD	FLAT:?put_accValue@CWnd@@UAEJUtagVARIANT@@PA_W@Z
	DD	FLAT:?SetProxy@CWnd@@UAEJPAUIAccessibleProxy@@@Z
	DD	FLAT:?CreateAccessibleProxy@CWnd@@UAEJIJPAJ@Z
	DD	FLAT:?OnCommand@CWnd@@MAEHIJ@Z
	DD	FLAT:?OnNotify@CWnd@@MAEHIJPAJ@Z
	DD	FLAT:?GetSuperWndProcAddr@CWnd@@MAEPAP6GJPAUHWND__@@IIJ@ZXZ
	DD	FLAT:?DoDataExchange@CUsrAddListDlg@@MAEXPAVCDataExchange@@@Z
	DD	FLAT:?BeginModalState@CWnd@@UAEXXZ
	DD	FLAT:?EndModalState@CWnd@@UAEXXZ
	DD	FLAT:?PreTranslateMessage@CUsrAddListDlg@@UAEHPAUtagMSG@@@Z
	DD	FLAT:?OnAmbientProperty@CWnd@@UAEHPAVCOleControlSite@@JPAUtagVARIANT@@@Z
	DD	FLAT:?WindowProc@CUsrAddListDlg@@MAEJIIJ@Z
	DD	FLAT:?OnWndMsg@CWnd@@MAEHIIJPAJ@Z
	DD	FLAT:?DefWindowProcA@CWnd@@MAEJIIJ@Z
	DD	FLAT:?PostNcDestroy@CWnd@@MAEXXZ
	DD	FLAT:?OnChildNotify@CWnd@@MAEHIIJPAJ@Z
	DD	FLAT:?OnTouchInputs@CWnd@@MAEHIPAUtagTOUCHINPUT@@@Z
	DD	FLAT:?OnTouchInput@CWnd@@MAEHVCPoint@@HHPAUtagTOUCHINPUT@@@Z
	DD	FLAT:?GetGestureStatus@CWnd@@MAEKVCPoint@@@Z
	DD	FLAT:?OnGestureZoom@CWnd@@MAEHVCPoint@@J@Z
	DD	FLAT:?OnGesturePan@CWnd@@MAEHVCPoint@@0@Z
	DD	FLAT:?OnGestureRotate@CWnd@@MAEHVCPoint@@N@Z
	DD	FLAT:?OnGestureTwoFingerTap@CWnd@@MAEHVCPoint@@@Z
	DD	FLAT:?OnGesturePressAndTap@CWnd@@MAEHVCPoint@@J@Z
	DD	FLAT:?ResizeDynamicLayout@CWnd@@MAEXXZ
	DD	FLAT:?CheckAutoCenter@CDialog@@UAEHXZ
	DD	FLAT:?IsFrameWnd@CWnd@@UBEHXZ
	DD	FLAT:?CreateControlContainer@CWnd@@MAEHPAPAVCOleControlContainer@@@Z
	DD	FLAT:?CreateControlSite@CWnd@@MAEHPAVCOleControlContainer@@PAPAVCOleControlSite@@IABU_GUID@@@Z
	DD	FLAT:?SetOccDialogInfo@CDialog@@MAEHPAU_AFX_OCC_DIALOG_INFO@@@Z
	DD	FLAT:?GetOccDialogInfo@CDialog@@MAEPAU_AFX_OCC_DIALOG_INFO@@XZ
	DD	FLAT:?Create@CRscDlg@@UAEHIPAVCWnd@@@Z
	DD	FLAT:?Create@CDialog@@UAEHPBDPAVCWnd@@@Z
	DD	FLAT:?CreateIndirect@CDialog@@UAEHPAXPAVCWnd@@@Z
	DD	FLAT:?CreateIndirect@CDialog@@UAEHPBUDLGTEMPLATE@@PAVCWnd@@PAX@Z
	DD	FLAT:?DoModal@CRscDlg@@UAEHXZ
	DD	FLAT:?OnInitDialog@CUsrAddListDlg@@MAEHXZ
	DD	FLAT:?OnSetFont@CDialog@@UAEXPAVCFont@@@Z
	DD	FLAT:?OnOK@CDialog@@MAEXXZ
	DD	FLAT:?OnCancel@CDialog@@MAEXXZ
	DD	FLAT:?PreInitDialog@CDialog@@MAEXXZ
	DD	FLAT:?ChangeSkinColor@CUsrAddListDlg@@UAEXK@Z
	DD	FLAT:?SetBkColor@CRscDlg@@UAEXK@Z
CONST	ENDS
;	COMDAT ??_R2CDialog@@8
rdata$r	SEGMENT
??_R2CDialog@@8 DD FLAT:??_R1A@?0A@EA@CDialog@@8	; CDialog::`RTTI Base Class Array'
	DD	FLAT:??_R1A@?0A@EA@CWnd@@8
	DD	FLAT:??_R1A@?0A@EA@CCmdTarget@@8
	DD	FLAT:??_R1A@?0A@EA@CObject@@8
rdata$r	ENDS
;	COMDAT ??_R3CDialog@@8
rdata$r	SEGMENT
??_R3CDialog@@8 DD 00H					; CDialog::`RTTI Class Hierarchy Descriptor'
	DD	00H
	DD	04H
	DD	FLAT:??_R2CDialog@@8
rdata$r	ENDS
;	COMDAT ??_R0?AVCDialog@@@8
data$rs	SEGMENT
??_R0?AVCDialog@@@8 DD FLAT:??_7type_info@@6B@		; CDialog `RTTI Type Descriptor'
	DD	00H
	DB	'.?AVCDialog@@', 00H
data$rs	ENDS
;	COMDAT ??_R1A@?0A@EA@CDialog@@8
rdata$r	SEGMENT
??_R1A@?0A@EA@CDialog@@8 DD FLAT:??_R0?AVCDialog@@@8	; CDialog::`RTTI Base Class Descriptor at (0,-1,0,64)'
	DD	03H
	DD	00H
	DD	0ffffffffH
	DD	00H
	DD	040H
	DD	FLAT:??_R3CDialog@@8
rdata$r	ENDS
;	COMDAT ??_R2CCmdTarget@@8
rdata$r	SEGMENT
??_R2CCmdTarget@@8 DD FLAT:??_R1A@?0A@EA@CCmdTarget@@8	; CCmdTarget::`RTTI Base Class Array'
	DD	FLAT:??_R1A@?0A@EA@CObject@@8
rdata$r	ENDS
;	COMDAT ??_R3CCmdTarget@@8
rdata$r	SEGMENT
??_R3CCmdTarget@@8 DD 00H				; CCmdTarget::`RTTI Class Hierarchy Descriptor'
	DD	00H
	DD	02H
	DD	FLAT:??_R2CCmdTarget@@8
rdata$r	ENDS
;	COMDAT ??_R0?AVCCmdTarget@@@8
data$rs	SEGMENT
??_R0?AVCCmdTarget@@@8 DD FLAT:??_7type_info@@6B@	; CCmdTarget `RTTI Type Descriptor'
	DD	00H
	DB	'.?AVCCmdTarget@@', 00H
data$rs	ENDS
;	COMDAT ??_R1A@?0A@EA@CCmdTarget@@8
rdata$r	SEGMENT
??_R1A@?0A@EA@CCmdTarget@@8 DD FLAT:??_R0?AVCCmdTarget@@@8 ; CCmdTarget::`RTTI Base Class Descriptor at (0,-1,0,64)'
	DD	01H
	DD	00H
	DD	0ffffffffH
	DD	00H
	DD	040H
	DD	FLAT:??_R3CCmdTarget@@8
rdata$r	ENDS
;	COMDAT ??_R2CWnd@@8
rdata$r	SEGMENT
??_R2CWnd@@8 DD	FLAT:??_R1A@?0A@EA@CWnd@@8		; CWnd::`RTTI Base Class Array'
	DD	FLAT:??_R1A@?0A@EA@CCmdTarget@@8
	DD	FLAT:??_R1A@?0A@EA@CObject@@8
rdata$r	ENDS
;	COMDAT ??_R3CWnd@@8
rdata$r	SEGMENT
??_R3CWnd@@8 DD	00H					; CWnd::`RTTI Class Hierarchy Descriptor'
	DD	00H
	DD	03H
	DD	FLAT:??_R2CWnd@@8
rdata$r	ENDS
;	COMDAT ??_R0?AVCWnd@@@8
data$rs	SEGMENT
??_R0?AVCWnd@@@8 DD FLAT:??_7type_info@@6B@		; CWnd `RTTI Type Descriptor'
	DD	00H
	DB	'.?AVCWnd@@', 00H
data$rs	ENDS
;	COMDAT ??_R1A@?0A@EA@CWnd@@8
rdata$r	SEGMENT
??_R1A@?0A@EA@CWnd@@8 DD FLAT:??_R0?AVCWnd@@@8		; CWnd::`RTTI Base Class Descriptor at (0,-1,0,64)'
	DD	02H
	DD	00H
	DD	0ffffffffH
	DD	00H
	DD	040H
	DD	FLAT:??_R3CWnd@@8
rdata$r	ENDS
;	COMDAT ??_R1A@?0A@EA@CBrush@@8
rdata$r	SEGMENT
??_R1A@?0A@EA@CBrush@@8 DD FLAT:??_R0?AVCBrush@@@8	; CBrush::`RTTI Base Class Descriptor at (0,-1,0,64)'
	DD	02H
	DD	00H
	DD	0ffffffffH
	DD	00H
	DD	040H
	DD	FLAT:??_R3CBrush@@8
rdata$r	ENDS
;	COMDAT ??_R2CBrush@@8
rdata$r	SEGMENT
??_R2CBrush@@8 DD FLAT:??_R1A@?0A@EA@CBrush@@8		; CBrush::`RTTI Base Class Array'
	DD	FLAT:??_R1A@?0A@EA@CGdiObject@@8
	DD	FLAT:??_R1A@?0A@EA@CObject@@8
rdata$r	ENDS
;	COMDAT ??_R3CBrush@@8
rdata$r	SEGMENT
??_R3CBrush@@8 DD 00H					; CBrush::`RTTI Class Hierarchy Descriptor'
	DD	00H
	DD	03H
	DD	FLAT:??_R2CBrush@@8
rdata$r	ENDS
;	COMDAT ??_R0?AVCBrush@@@8
data$rs	SEGMENT
??_R0?AVCBrush@@@8 DD FLAT:??_7type_info@@6B@		; CBrush `RTTI Type Descriptor'
	DD	00H
	DB	'.?AVCBrush@@', 00H
data$rs	ENDS
;	COMDAT ??_R4CBrush@@6B@
rdata$r	SEGMENT
??_R4CBrush@@6B@ DD 00H					; CBrush::`RTTI Complete Object Locator'
	DD	00H
	DD	00H
	DD	FLAT:??_R0?AVCBrush@@@8
	DD	FLAT:??_R3CBrush@@8
rdata$r	ENDS
;	COMDAT ??_R1A@?0A@EA@CGdiObject@@8
rdata$r	SEGMENT
??_R1A@?0A@EA@CGdiObject@@8 DD FLAT:??_R0?AVCGdiObject@@@8 ; CGdiObject::`RTTI Base Class Descriptor at (0,-1,0,64)'
	DD	01H
	DD	00H
	DD	0ffffffffH
	DD	00H
	DD	040H
	DD	FLAT:??_R3CGdiObject@@8
rdata$r	ENDS
;	COMDAT ??_R2CGdiObject@@8
rdata$r	SEGMENT
??_R2CGdiObject@@8 DD FLAT:??_R1A@?0A@EA@CGdiObject@@8	; CGdiObject::`RTTI Base Class Array'
	DD	FLAT:??_R1A@?0A@EA@CObject@@8
rdata$r	ENDS
;	COMDAT ??_R3CGdiObject@@8
rdata$r	SEGMENT
??_R3CGdiObject@@8 DD 00H				; CGdiObject::`RTTI Class Hierarchy Descriptor'
	DD	00H
	DD	02H
	DD	FLAT:??_R2CGdiObject@@8
rdata$r	ENDS
;	COMDAT ??_R0?AVCGdiObject@@@8
data$rs	SEGMENT
??_R0?AVCGdiObject@@@8 DD FLAT:??_7type_info@@6B@	; CGdiObject `RTTI Type Descriptor'
	DD	00H
	DB	'.?AVCGdiObject@@', 00H
data$rs	ENDS
;	COMDAT ??_R4CGdiObject@@6B@
rdata$r	SEGMENT
??_R4CGdiObject@@6B@ DD 00H				; CGdiObject::`RTTI Complete Object Locator'
	DD	00H
	DD	00H
	DD	FLAT:??_R0?AVCGdiObject@@@8
	DD	FLAT:??_R3CGdiObject@@8
rdata$r	ENDS
;	COMDAT ??_R1A@?0A@EA@CObject@@8
rdata$r	SEGMENT
??_R1A@?0A@EA@CObject@@8 DD FLAT:??_R0?AVCObject@@@8	; CObject::`RTTI Base Class Descriptor at (0,-1,0,64)'
	DD	00H
	DD	00H
	DD	0ffffffffH
	DD	00H
	DD	040H
	DD	FLAT:??_R3CObject@@8
rdata$r	ENDS
;	COMDAT ??_R2CObject@@8
rdata$r	SEGMENT
??_R2CObject@@8 DD FLAT:??_R1A@?0A@EA@CObject@@8	; CObject::`RTTI Base Class Array'
rdata$r	ENDS
;	COMDAT ??_R3CObject@@8
rdata$r	SEGMENT
??_R3CObject@@8 DD 00H					; CObject::`RTTI Class Hierarchy Descriptor'
	DD	00H
	DD	01H
	DD	FLAT:??_R2CObject@@8
rdata$r	ENDS
;	COMDAT ??_R0?AVCObject@@@8
data$rs	SEGMENT
??_R0?AVCObject@@@8 DD FLAT:??_7type_info@@6B@		; CObject `RTTI Type Descriptor'
	DD	00H
	DB	'.?AVCObject@@', 00H
data$rs	ENDS
;	COMDAT ??_C@_02EMFKHFLK@?$CFX@
CONST	SEGMENT
??_C@_02EMFKHFLK@?$CFX@ DB '%X', 00H			; `string'
CONST	ENDS
;	COMDAT ??_C@_06NDLAHCHE@?$CFs?$CF08X@
CONST	SEGMENT
??_C@_06NDLAHCHE@?$CFs?$CF08X@ DB '%s%08X', 00H		; `string'
CONST	ENDS
;	COMDAT ??_C@_0P@IDMAJEGN@HANAROPCTRMAIN@
CONST	SEGMENT
??_C@_0P@IDMAJEGN@HANAROPCTRMAIN@ DB 'HANAROPCTRMAIN', 00H ; `string'
CONST	ENDS
;	COMDAT ??_C@_0M@CBBNGGHM@PcTrMng?4dll@
CONST	SEGMENT
??_C@_0M@CBBNGGHM@PcTrMng?4dll@ DB 'PcTrMng.dll', 00H	; `string'
CONST	ENDS
;	COMDAT ??_C@_0N@OMEMOKLE@?$CFTs?5?$CI?$CFTs?3?$CFd?$CJ@
CONST	SEGMENT
??_C@_0N@OMEMOKLE@?$CFTs?5?$CI?$CFTs?3?$CFd?$CJ@ DB '%Ts (%Ts:%d)', 00H ; `string'
CONST	ENDS
;	COMDAT ??_C@_0BB@HBOOMJBF@?$CFTs?5?$CI?$CFTs?3?$CFd?$CJ?6?$CFTs@
CONST	SEGMENT
??_C@_0BB@HBOOMJBF@?$CFTs?5?$CI?$CFTs?3?$CFd?$CJ?6?$CFTs@ DB '%Ts (%Ts:%d'
	DB	')', 0aH, '%Ts', 00H				; `string'
CONST	ENDS
;	COMDAT ??_C@_0BP@OIEOKIDM@Exception?5thrown?5in?5destructor@
CONST	SEGMENT
??_C@_0BP@OIEOKIDM@Exception?5thrown?5in?5destructor@ DB 'Exception throw'
	DB	'n in destructor', 00H			; `string'
CONST	ENDS
;	COMDAT ??_C@_0HD@JJCHHHNK@C?3?2Program?5Files?5?$CIx86?$CJ?2Microsof@
CONST	SEGMENT
??_C@_0HD@JJCHHHNK@C?3?2Program?5Files?5?$CIx86?$CJ?2Microsof@ DB 'C:\Pro'
	DB	'gram Files (x86)\Microsoft Visual Studio\2019\Community\VC\To'
	DB	'ols\MSVC\14.29.30133\atlmfc\include\afxwin1.inl', 00H ; `string'
CONST	ENDS
;	COMDAT ??_7CBrush@@6B@
CONST	SEGMENT
??_7CBrush@@6B@ DD FLAT:??_R4CBrush@@6B@		; CBrush::`vftable'
	DD	FLAT:?GetRuntimeClass@CBrush@@UBEPAUCRuntimeClass@@XZ
	DD	FLAT:??_ECBrush@@UAEPAXI@Z
	DD	FLAT:?Serialize@CObject@@UAEXAAVCArchive@@@Z
	DD	FLAT:?AssertValid@CObject@@UBEXXZ
	DD	FLAT:?Dump@CObject@@UBEXAAVCDumpContext@@@Z
CONST	ENDS
;	COMDAT ??_7CGdiObject@@6B@
CONST	SEGMENT
??_7CGdiObject@@6B@ DD FLAT:??_R4CGdiObject@@6B@	; CGdiObject::`vftable'
	DD	FLAT:?GetRuntimeClass@CGdiObject@@UBEPAUCRuntimeClass@@XZ
	DD	FLAT:??_ECGdiObject@@UAEPAXI@Z
	DD	FLAT:?Serialize@CObject@@UAEXAAVCArchive@@@Z
	DD	FLAT:?AssertValid@CObject@@UBEXXZ
	DD	FLAT:?Dump@CObject@@UBEXAAVCDumpContext@@@Z
CONST	ENDS
;	COMDAT ??_C@_00CNPNBAHC@@
CONST	SEGMENT
??_C@_00CNPNBAHC@@ DB 00H				; `string'
CONST	ENDS
;	COMDAT ??_R0PAVCException@@@8
data$r	SEGMENT
??_R0PAVCException@@@8 DD FLAT:??_7type_info@@6B@	; CException * `RTTI Type Descriptor'
	DD	00H
	DB	'.PAVCException@@', 00H
data$r	ENDS
;	COMDAT xdata$x
xdata$x	SEGMENT
__unwindtable$?DelItem@CUsrAddListDlg@@QAEXPBD@Z DD 0ffffffffH
	DD	FLAT:__unwindfunclet$?DelItem@CUsrAddListDlg@@QAEXPBD@Z$0
	DD	00H
	DD	FLAT:__unwindfunclet$?DelItem@CUsrAddListDlg@@QAEXPBD@Z$1
__ehfuncinfo$?DelItem@CUsrAddListDlg@@QAEXPBD@Z DD 019930522H
	DD	02H
	DD	FLAT:__unwindtable$?DelItem@CUsrAddListDlg@@QAEXPBD@Z
	DD	2 DUP(00H)
	DD	2 DUP(00H)
	DD	00H
	DD	01H
xdata$x	ENDS
;	COMDAT xdata$x
xdata$x	SEGMENT
__unwindtable$?AddELWIndexCode@CUsrAddListDlg@@QAEXXZ DD 0ffffffffH
	DD	FLAT:__unwindfunclet$?AddELWIndexCode@CUsrAddListDlg@@QAEXXZ$0
	DD	00H
	DD	FLAT:__unwindfunclet$?AddELWIndexCode@CUsrAddListDlg@@QAEXXZ$1
	DD	01H
	DD	FLAT:__unwindfunclet$?AddELWIndexCode@CUsrAddListDlg@@QAEXXZ$3
	DD	02H
	DD	FLAT:__unwindfunclet$?AddELWIndexCode@CUsrAddListDlg@@QAEXXZ$4
__ehfuncinfo$?AddELWIndexCode@CUsrAddListDlg@@QAEXXZ DD 019930522H
	DD	04H
	DD	FLAT:__unwindtable$?AddELWIndexCode@CUsrAddListDlg@@QAEXXZ
	DD	2 DUP(00H)
	DD	2 DUP(00H)
	DD	00H
	DD	01H
xdata$x	ENDS
;	COMDAT xdata$x
xdata$x	SEGMENT
__unwindtable$?GetRequestList@CUsrAddListDlg@@QAEHAAVCStringList@@0@Z DD 0ffffffffH
	DD	FLAT:__unwindfunclet$?GetRequestList@CUsrAddListDlg@@QAEHAAVCStringList@@0@Z$0
	DD	00H
	DD	FLAT:__unwindfunclet$?GetRequestList@CUsrAddListDlg@@QAEHAAVCStringList@@0@Z$1
	DD	01H
	DD	FLAT:__unwindfunclet$?GetRequestList@CUsrAddListDlg@@QAEHAAVCStringList@@0@Z$2
	DD	01H
	DD	FLAT:__unwindfunclet$?GetRequestList@CUsrAddListDlg@@QAEHAAVCStringList@@0@Z$3
__ehfuncinfo$?GetRequestList@CUsrAddListDlg@@QAEHAAVCStringList@@0@Z DD 019930522H
	DD	04H
	DD	FLAT:__unwindtable$?GetRequestList@CUsrAddListDlg@@QAEHAAVCStringList@@0@Z
	DD	2 DUP(00H)
	DD	2 DUP(00H)
	DD	00H
	DD	01H
xdata$x	ENDS
;	COMDAT xdata$x
xdata$x	SEGMENT
__unwindtable$?OnRecvMsg_DBClick_From_XListCtrl@CUsrAddListDlg@@IAEJIJ@Z DD 0ffffffffH
	DD	FLAT:__unwindfunclet$?OnRecvMsg_DBClick_From_XListCtrl@CUsrAddListDlg@@IAEJIJ@Z$0
__ehfuncinfo$?OnRecvMsg_DBClick_From_XListCtrl@CUsrAddListDlg@@IAEJIJ@Z DD 019930522H
	DD	01H
	DD	FLAT:__unwindtable$?OnRecvMsg_DBClick_From_XListCtrl@CUsrAddListDlg@@IAEJIJ@Z
	DD	2 DUP(00H)
	DD	2 DUP(00H)
	DD	00H
	DD	01H
xdata$x	ENDS
;	COMDAT xdata$x
xdata$x	SEGMENT
__ehfuncinfo$?OnRecvMsg_CheckBoxStates_From_XListCtrl@CUsrAddListDlg@@IAEJIJ@Z DD 019930522H
	DD	06H
	DD	FLAT:__unwindtable$?OnRecvMsg_CheckBoxStates_From_XListCtrl@CUsrAddListDlg@@IAEJIJ@Z
	DD	2 DUP(00H)
	DD	2 DUP(00H)
	DD	00H
	DD	01H
__unwindtable$?OnRecvMsg_CheckBoxStates_From_XListCtrl@CUsrAddListDlg@@IAEJIJ@Z DD 0ffffffffH
	DD	FLAT:__unwindfunclet$?OnRecvMsg_CheckBoxStates_From_XListCtrl@CUsrAddListDlg@@IAEJIJ@Z$0
	DD	00H
	DD	FLAT:__unwindfunclet$?OnRecvMsg_CheckBoxStates_From_XListCtrl@CUsrAddListDlg@@IAEJIJ@Z$1
	DD	01H
	DD	FLAT:__unwindfunclet$?OnRecvMsg_CheckBoxStates_From_XListCtrl@CUsrAddListDlg@@IAEJIJ@Z$2
	DD	01H
	DD	FLAT:__unwindfunclet$?OnRecvMsg_CheckBoxStates_From_XListCtrl@CUsrAddListDlg@@IAEJIJ@Z$3
	DD	01H
	DD	FLAT:__unwindfunclet$?OnRecvMsg_CheckBoxStates_From_XListCtrl@CUsrAddListDlg@@IAEJIJ@Z$4
	DD	04H
	DD	FLAT:__unwindfunclet$?OnRecvMsg_CheckBoxStates_From_XListCtrl@CUsrAddListDlg@@IAEJIJ@Z$5
xdata$x	ENDS
;	COMDAT xdata$x
xdata$x	SEGMENT
__unwindtable$?OnPaint@CUsrAddListDlg@@IAEXXZ DD 0ffffffffH
	DD	FLAT:__unwindfunclet$?OnPaint@CUsrAddListDlg@@IAEXXZ$0
__ehfuncinfo$?OnPaint@CUsrAddListDlg@@IAEXXZ DD 019930522H
	DD	01H
	DD	FLAT:__unwindtable$?OnPaint@CUsrAddListDlg@@IAEXXZ
	DD	2 DUP(00H)
	DD	2 DUP(00H)
	DD	00H
	DD	01H
xdata$x	ENDS
;	COMDAT xdata$x
xdata$x	SEGMENT
__ehfuncinfo$?WindowProc@CUsrAddListDlg@@MAEJIIJ@Z DD 019930522H
	DD	0dH
	DD	FLAT:__unwindtable$?WindowProc@CUsrAddListDlg@@MAEJIIJ@Z
	DD	2 DUP(00H)
	DD	2 DUP(00H)
	DD	00H
	DD	01H
__unwindtable$?WindowProc@CUsrAddListDlg@@MAEJIIJ@Z DD 0ffffffffH
	DD	FLAT:__unwindfunclet$?WindowProc@CUsrAddListDlg@@MAEJIIJ@Z$0
	DD	00H
	DD	FLAT:__unwindfunclet$?WindowProc@CUsrAddListDlg@@MAEJIIJ@Z$1
	DD	00H
	DD	FLAT:__unwindfunclet$?WindowProc@CUsrAddListDlg@@MAEJIIJ@Z$2
	DD	00H
	DD	FLAT:__unwindfunclet$?WindowProc@CUsrAddListDlg@@MAEJIIJ@Z$6
	DD	00H
	DD	FLAT:__unwindfunclet$?WindowProc@CUsrAddListDlg@@MAEJIIJ@Z$3
	DD	00H
	DD	FLAT:__unwindfunclet$?WindowProc@CUsrAddListDlg@@MAEJIIJ@Z$7
	DD	05H
	DD	FLAT:__unwindfunclet$?WindowProc@CUsrAddListDlg@@MAEJIIJ@Z$8
	DD	06H
	DD	FLAT:__unwindfunclet$?WindowProc@CUsrAddListDlg@@MAEJIIJ@Z$9
	DD	06H
	DD	FLAT:__unwindfunclet$?WindowProc@CUsrAddListDlg@@MAEJIIJ@Z$10
	DD	00H
	DD	FLAT:__unwindfunclet$?WindowProc@CUsrAddListDlg@@MAEJIIJ@Z$11
	DD	09H
	DD	FLAT:__unwindfunclet$?WindowProc@CUsrAddListDlg@@MAEJIIJ@Z$12
	DD	00H
	DD	FLAT:__unwindfunclet$?WindowProc@CUsrAddListDlg@@MAEJIIJ@Z$4
	DD	0bH
	DD	FLAT:__unwindfunclet$?WindowProc@CUsrAddListDlg@@MAEJIIJ@Z$5
xdata$x	ENDS
;	COMDAT xdata$x
xdata$x	SEGMENT
__ehfuncinfo$??0CUsrAddListDlg@@QAE@PAVCWnd@@@Z DD 019930522H
	DD	09H
	DD	FLAT:__unwindtable$??0CUsrAddListDlg@@QAE@PAVCWnd@@@Z
	DD	2 DUP(00H)
	DD	2 DUP(00H)
	DD	00H
	DD	01H
__unwindtable$??0CUsrAddListDlg@@QAE@PAVCWnd@@@Z DD 0ffffffffH
	DD	FLAT:__unwindfunclet$??0CUsrAddListDlg@@QAE@PAVCWnd@@@Z$0
	DD	00H
	DD	FLAT:__unwindfunclet$??0CUsrAddListDlg@@QAE@PAVCWnd@@@Z$1
	DD	01H
	DD	FLAT:__unwindfunclet$??0CUsrAddListDlg@@QAE@PAVCWnd@@@Z$2
	DD	02H
	DD	FLAT:__unwindfunclet$??0CUsrAddListDlg@@QAE@PAVCWnd@@@Z$3
	DD	03H
	DD	FLAT:__unwindfunclet$??0CUsrAddListDlg@@QAE@PAVCWnd@@@Z$4
	DD	04H
	DD	FLAT:__unwindfunclet$??0CUsrAddListDlg@@QAE@PAVCWnd@@@Z$5
	DD	05H
	DD	FLAT:__unwindfunclet$??0CUsrAddListDlg@@QAE@PAVCWnd@@@Z$6
	DD	06H
	DD	FLAT:__unwindfunclet$??0CUsrAddListDlg@@QAE@PAVCWnd@@@Z$7
	DD	07H
	DD	FLAT:__unwindfunclet$??0CUsrAddListDlg@@QAE@PAVCWnd@@@Z$8
xdata$x	ENDS
;	COMDAT xdata$x
xdata$x	SEGMENT
__unwindtable$?AddItem@CUsrAddListDlg@@QAEXXZ DD 0ffffffffH
	DD	FLAT:__unwindfunclet$?AddItem@CUsrAddListDlg@@QAEXXZ$0
	DD	0ffffffffH
	DD	FLAT:__unwindfunclet$?AddItem@CUsrAddListDlg@@QAEXXZ$1
	DD	01H
	DD	FLAT:__unwindfunclet$?AddItem@CUsrAddListDlg@@QAEXXZ$2
__ehfuncinfo$?AddItem@CUsrAddListDlg@@QAEXXZ DD 019930522H
	DD	03H
	DD	FLAT:__unwindtable$?AddItem@CUsrAddListDlg@@QAEXXZ
	DD	2 DUP(00H)
	DD	2 DUP(00H)
	DD	00H
	DD	01H
xdata$x	ENDS
;	COMDAT xdata$x
xdata$x	SEGMENT
__unwindtable$?Re_Request_TRData@CUsrAddListDlg@@QAEXXZ DD 0ffffffffH
	DD	FLAT:__unwindfunclet$?Re_Request_TRData@CUsrAddListDlg@@QAEXXZ$0
	DD	00H
	DD	FLAT:__unwindfunclet$?Re_Request_TRData@CUsrAddListDlg@@QAEXXZ$1
	DD	01H
	DD	FLAT:__unwindfunclet$?Re_Request_TRData@CUsrAddListDlg@@QAEXXZ$2
	DD	01H
	DD	FLAT:__unwindfunclet$?Re_Request_TRData@CUsrAddListDlg@@QAEXXZ$3
__ehfuncinfo$?Re_Request_TRData@CUsrAddListDlg@@QAEXXZ DD 019930522H
	DD	04H
	DD	FLAT:__unwindtable$?Re_Request_TRData@CUsrAddListDlg@@QAEXXZ
	DD	2 DUP(00H)
	DD	2 DUP(00H)
	DD	00H
	DD	01H
xdata$x	ENDS
;	COMDAT xdata$x
xdata$x	SEGMENT
__unwindtable$?OnBtnDelItem@CUsrAddListDlg@@QAEXPBD@Z DD 0ffffffffH
	DD	FLAT:__unwindfunclet$?OnBtnDelItem@CUsrAddListDlg@@QAEXPBD@Z$0
	DD	00H
	DD	FLAT:__unwindfunclet$?OnBtnDelItem@CUsrAddListDlg@@QAEXPBD@Z$1
__ehfuncinfo$?OnBtnDelItem@CUsrAddListDlg@@QAEXPBD@Z DD 019930522H
	DD	02H
	DD	FLAT:__unwindtable$?OnBtnDelItem@CUsrAddListDlg@@QAEXPBD@Z
	DD	2 DUP(00H)
	DD	2 DUP(00H)
	DD	00H
	DD	01H
xdata$x	ENDS
;	COMDAT xdata$x
xdata$x	SEGMENT
__unwindtable$?AfxGetPctrInterface@@YGJH@Z DD 0ffffffffH
	DD	FLAT:__unwindfunclet$?AfxGetPctrInterface@@YGJH@Z$0
__ehfuncinfo$?AfxGetPctrInterface@@YGJH@Z DD 019930522H
	DD	01H
	DD	FLAT:__unwindtable$?AfxGetPctrInterface@@YGJH@Z
	DD	2 DUP(00H)
	DD	2 DUP(00H)
	DD	00H
	DD	01H
xdata$x	ENDS
;	COMDAT xdata$x
xdata$x	SEGMENT
__catchsym$??1CGdiObject@@UAE@XZ$3 DD 00H
	DD	FLAT:??_R0PAVCException@@@8
	DD	0fffffde4H
	DD	FLAT:__catch$??1CGdiObject@@UAE@XZ$0
__tryblocktable$??1CGdiObject@@UAE@XZ DD 00H
	DD	00H
	DD	02H
	DD	01H
	DD	FLAT:__catchsym$??1CGdiObject@@UAE@XZ$3
__unwindtable$??1CGdiObject@@UAE@XZ DD 0ffffffffH
	DD	00H
	DD	0ffffffffH
	DD	00H
	DD	01H
	DD	FLAT:__unwindfunclet$??1CGdiObject@@UAE@XZ$2
__ehfuncinfo$??1CGdiObject@@UAE@XZ DD 019930522H
	DD	03H
	DD	FLAT:__unwindtable$??1CGdiObject@@UAE@XZ
	DD	01H
	DD	FLAT:__tryblocktable$??1CGdiObject@@UAE@XZ
	DD	2 DUP(00H)
	DD	00H
	DD	05H
xdata$x	ENDS
CRT$XCU	SEGMENT
?RMSG_GETSIGNAL_REAL$initializer$@@3P6AXXZA DD FLAT:??__ERMSG_GETSIGNAL_REAL@@YAXXZ ; RMSG_GETSIGNAL_REAL$initializer$
CRT$XCU	ENDS
CRT$XCU	SEGMENT
?RMSG_CHARTMAIN$initializer$@@3P6AXXZA DD FLAT:??__ERMSG_CHARTMAIN@@YAXXZ ; RMSG_CHARTMAIN$initializer$
CRT$XCU	ENDS
CRT$XCU	SEGMENT
?RMS_ANALYSIS_FUNC$initializer$@@3P6AXXZA DD FLAT:??__ERMS_ANALYSIS_FUNC@@YAXXZ ; RMS_ANALYSIS_FUNC$initializer$
CRT$XCU	ENDS
CRT$XCU	SEGMENT
?RMSG_GET_USERID$initializer$@@3P6AXXZA DD FLAT:??__ERMSG_GET_USERID@@YAXXZ ; RMSG_GET_USERID$initializer$
CRT$XCU	ENDS
CRT$XCU	SEGMENT
?RMSG_KSDLLINFO$initializer$@@3P6AXXZA DD FLAT:??__ERMSG_KSDLLINFO@@YAXXZ ; RMSG_KSDLLINFO$initializer$
CRT$XCU	ENDS
CRT$XCU	SEGMENT
?RMSG_GETINFO$initializer$@@3P6AXXZA DD FLAT:??__ERMSG_GETINFO@@YAXXZ ; RMSG_GETINFO$initializer$
CRT$XCU	ENDS
CRT$XCU	SEGMENT
?RMSG_CHANGE_SKINCOLOR$initializer$@@3P6AXXZA DD FLAT:??__ERMSG_CHANGE_SKINCOLOR@@YAXXZ ; RMSG_CHANGE_SKINCOLOR$initializer$
CRT$XCU	ENDS
CRT$XCU	SEGMENT
?RMSG_GET_SKINCOLOR$initializer$@@3P6AXXZA DD FLAT:??__ERMSG_GET_SKINCOLOR@@YAXXZ ; RMSG_GET_SKINCOLOR$initializer$
CRT$XCU	ENDS
CRT$XCU	SEGMENT
?RMSG_CHANGE_CROSSLINE$initializer$@@3P6AXXZA DD FLAT:??__ERMSG_CHANGE_CROSSLINE@@YAXXZ ; RMSG_CHANGE_CROSSLINE$initializer$
CRT$XCU	ENDS
CRT$XCU	SEGMENT
?RMSG_REPLAY_REAL$initializer$@@3P6AXXZA DD FLAT:??__ERMSG_REPLAY_REAL@@YAXXZ ; RMSG_REPLAY_REAL$initializer$
CRT$XCU	ENDS
CRT$XCU	SEGMENT
?RMSG_REPLAY_FAIL$initializer$@@3P6AXXZA DD FLAT:??__ERMSG_REPLAY_FAIL@@YAXXZ ; RMSG_REPLAY_FAIL$initializer$
CRT$XCU	ENDS
CRT$XCU	SEGMENT
?RMSG_REPLAY_CHANGE_DATE$initializer$@@3P6AXXZA DD FLAT:??__ERMSG_REPLAY_CHANGE_DATE@@YAXXZ ; RMSG_REPLAY_CHANGE_DATE$initializer$
CRT$XCU	ENDS
CRT$XCU	SEGMENT
?RMSG_REPLAY_END$initializer$@@3P6AXXZA DD FLAT:??__ERMSG_REPLAY_END@@YAXXZ ; RMSG_REPLAY_END$initializer$
CRT$XCU	ENDS
CRT$XCU	SEGMENT
?RMSG_REPLAY_INC_SEC$initializer$@@3P6AXXZA DD FLAT:??__ERMSG_REPLAY_INC_SEC@@YAXXZ ; RMSG_REPLAY_INC_SEC$initializer$
CRT$XCU	ENDS
CRT$XCU	SEGMENT
?RMSG_REPLAY_TOTAL_SEC$initializer$@@3P6AXXZA DD FLAT:??__ERMSG_REPLAY_TOTAL_SEC@@YAXXZ ; RMSG_REPLAY_TOTAL_SEC$initializer$
CRT$XCU	ENDS
CRT$XCU	SEGMENT
?RMSG_SELCHARTCODE$initializer$@@3P6AXXZA DD FLAT:??__ERMSG_SELCHARTCODE@@YAXXZ ; RMSG_SELCHARTCODE$initializer$
CRT$XCU	ENDS
; Function compile flags: /Ogtp
;	COMDAT ??1CDlgItemMaxCount@@UAE@XZ
_TEXT	SEGMENT
??1CDlgItemMaxCount@@UAE@XZ PROC			; CDlgItemMaxCount::~CDlgItemMaxCount, COMDAT
; _this$ = ecx
  00000	e9 00 00 00 00	 jmp	 ??1CDialog@@UAE@XZ	; CDialog::~CDialog
??1CDlgItemMaxCount@@UAE@XZ ENDP			; CDlgItemMaxCount::~CDlgItemMaxCount
_TEXT	ENDS
; Function compile flags: /Ogtp
; File D:\git\src\IBK\IBK_DRFN\ProjSrc\SrcDrfn\Chart\comparechart\StdDialog.h
;	COMDAT ??__ERMSG_SELCHARTCODE@@YAXXZ
text$di	SEGMENT
??__ERMSG_SELCHARTCODE@@YAXXZ PROC			; `dynamic initializer for 'RMSG_SELCHARTCODE'', COMDAT

; 73   : const UINT RMSG_SELCHARTCODE = ::RegisterWindowMessage( "RMSG_SELCHARTCODE" );

  00000	68 00 00 00 00	 push	 OFFSET ??_C@_0BC@LHNMEPFM@RMSG_SELCHARTCODE@
  00005	ff 15 00 00 00
	00		 call	 DWORD PTR __imp__RegisterWindowMessageA@4
  0000b	a3 00 00 00 00	 mov	 DWORD PTR ?RMSG_SELCHARTCODE@@3IB, eax
  00010	c3		 ret	 0
??__ERMSG_SELCHARTCODE@@YAXXZ ENDP			; `dynamic initializer for 'RMSG_SELCHARTCODE''
text$di	ENDS
; Function compile flags: /Ogtp
; File D:\git\src\IBK\IBK_DRFN\ProjSrc\SrcDrfn\Chart\chart_common\ReplayChartInfoDef.h
;	COMDAT ??__ERMSG_REPLAY_TOTAL_SEC@@YAXXZ
text$di	SEGMENT
??__ERMSG_REPLAY_TOTAL_SEC@@YAXXZ PROC			; `dynamic initializer for 'RMSG_REPLAY_TOTAL_SEC'', COMDAT

; 97   : 	const UINT RMSG_REPLAY_TOTAL_SEC = ::RegisterWindowMessage(_T("RMSG_REPLAY_TOTAL_SEC"));		//  () 

  00000	68 00 00 00 00	 push	 OFFSET ??_C@_0BG@GIAJEIJF@RMSG_REPLAY_TOTAL_SEC@
  00005	ff 15 00 00 00
	00		 call	 DWORD PTR __imp__RegisterWindowMessageA@4
  0000b	a3 00 00 00 00	 mov	 DWORD PTR ?RMSG_REPLAY_TOTAL_SEC@@3IB, eax
  00010	c3		 ret	 0
??__ERMSG_REPLAY_TOTAL_SEC@@YAXXZ ENDP			; `dynamic initializer for 'RMSG_REPLAY_TOTAL_SEC''
text$di	ENDS
; Function compile flags: /Ogtp
; File D:\git\src\IBK\IBK_DRFN\ProjSrc\SrcDrfn\Chart\chart_common\ReplayChartInfoDef.h
;	COMDAT ??__ERMSG_REPLAY_INC_SEC@@YAXXZ
text$di	SEGMENT
??__ERMSG_REPLAY_INC_SEC@@YAXXZ PROC			; `dynamic initializer for 'RMSG_REPLAY_INC_SEC'', COMDAT

; 96   : 	const UINT RMSG_REPLAY_INC_SEC = ::RegisterWindowMessage(_T("RMSG_REPLAY_INC_SEC"));			// 1   

  00000	68 00 00 00 00	 push	 OFFSET ??_C@_0BE@JFCIMCIP@RMSG_REPLAY_INC_SEC@
  00005	ff 15 00 00 00
	00		 call	 DWORD PTR __imp__RegisterWindowMessageA@4
  0000b	a3 00 00 00 00	 mov	 DWORD PTR ?RMSG_REPLAY_INC_SEC@@3IB, eax
  00010	c3		 ret	 0
??__ERMSG_REPLAY_INC_SEC@@YAXXZ ENDP			; `dynamic initializer for 'RMSG_REPLAY_INC_SEC''
text$di	ENDS
; Function compile flags: /Ogtp
; File D:\git\src\IBK\IBK_DRFN\ProjSrc\SrcDrfn\Chart\chart_common\ReplayChartInfoDef.h
;	COMDAT ??__ERMSG_REPLAY_END@@YAXXZ
text$di	SEGMENT
??__ERMSG_REPLAY_END@@YAXXZ PROC			; `dynamic initializer for 'RMSG_REPLAY_END'', COMDAT

; 95   : 	const UINT RMSG_REPLAY_END			= ::RegisterWindowMessage(_T("RMSG_REPLAY_END"));

  00000	68 00 00 00 00	 push	 OFFSET ??_C@_0BA@NKHHCPON@RMSG_REPLAY_END@
  00005	ff 15 00 00 00
	00		 call	 DWORD PTR __imp__RegisterWindowMessageA@4
  0000b	a3 00 00 00 00	 mov	 DWORD PTR ?RMSG_REPLAY_END@@3IB, eax
  00010	c3		 ret	 0
??__ERMSG_REPLAY_END@@YAXXZ ENDP			; `dynamic initializer for 'RMSG_REPLAY_END''
text$di	ENDS
; Function compile flags: /Ogtp
; File D:\git\src\IBK\IBK_DRFN\ProjSrc\SrcDrfn\Chart\chart_common\ReplayChartInfoDef.h
;	COMDAT ??__ERMSG_REPLAY_CHANGE_DATE@@YAXXZ
text$di	SEGMENT
??__ERMSG_REPLAY_CHANGE_DATE@@YAXXZ PROC		; `dynamic initializer for 'RMSG_REPLAY_CHANGE_DATE'', COMDAT

; 94   : 	const UINT RMSG_REPLAY_CHANGE_DATE	= ::RegisterWindowMessage(_T("RMSG_REPLAY_CHANGE_DATE"));

  00000	68 00 00 00 00	 push	 OFFSET ??_C@_0BI@KDGAIIMD@RMSG_REPLAY_CHANGE_DATE@
  00005	ff 15 00 00 00
	00		 call	 DWORD PTR __imp__RegisterWindowMessageA@4
  0000b	a3 00 00 00 00	 mov	 DWORD PTR ?RMSG_REPLAY_CHANGE_DATE@@3IB, eax
  00010	c3		 ret	 0
??__ERMSG_REPLAY_CHANGE_DATE@@YAXXZ ENDP		; `dynamic initializer for 'RMSG_REPLAY_CHANGE_DATE''
text$di	ENDS
; Function compile flags: /Ogtp
; File D:\git\src\IBK\IBK_DRFN\ProjSrc\SrcDrfn\Chart\chart_common\ReplayChartInfoDef.h
;	COMDAT ??__ERMSG_REPLAY_FAIL@@YAXXZ
text$di	SEGMENT
??__ERMSG_REPLAY_FAIL@@YAXXZ PROC			; `dynamic initializer for 'RMSG_REPLAY_FAIL'', COMDAT

; 93   : 	const UINT RMSG_REPLAY_FAIL			= ::RegisterWindowMessage(_T("RMSG_REPLAY_FAIL"));

  00000	68 00 00 00 00	 push	 OFFSET ??_C@_0BB@JFLGBADG@RMSG_REPLAY_FAIL@
  00005	ff 15 00 00 00
	00		 call	 DWORD PTR __imp__RegisterWindowMessageA@4
  0000b	a3 00 00 00 00	 mov	 DWORD PTR ?RMSG_REPLAY_FAIL@@3IB, eax
  00010	c3		 ret	 0
??__ERMSG_REPLAY_FAIL@@YAXXZ ENDP			; `dynamic initializer for 'RMSG_REPLAY_FAIL''
text$di	ENDS
; Function compile flags: /Ogtp
; File D:\git\src\IBK\IBK_DRFN\ProjSrc\SrcDrfn\Chart\chart_common\ReplayChartInfoDef.h
;	COMDAT ??__ERMSG_REPLAY_REAL@@YAXXZ
text$di	SEGMENT
??__ERMSG_REPLAY_REAL@@YAXXZ PROC			; `dynamic initializer for 'RMSG_REPLAY_REAL'', COMDAT

; 92   : 	const UINT RMSG_REPLAY_REAL			= ::RegisterWindowMessage(_T("RMSG_REPLAY_REAL"));

  00000	68 00 00 00 00	 push	 OFFSET ??_C@_0BB@IBKHOHJL@RMSG_REPLAY_REAL@
  00005	ff 15 00 00 00
	00		 call	 DWORD PTR __imp__RegisterWindowMessageA@4
  0000b	a3 00 00 00 00	 mov	 DWORD PTR ?RMSG_REPLAY_REAL@@3IB, eax
  00010	c3		 ret	 0
??__ERMSG_REPLAY_REAL@@YAXXZ ENDP			; `dynamic initializer for 'RMSG_REPLAY_REAL''
text$di	ENDS
; Function compile flags: /Ogtp
; File C:\Program Files (x86)\Microsoft Visual Studio\2019\Community\VC\Tools\MSVC\14.29.30133\atlmfc\include\afxwin1.inl
; File C:\Program Files (x86)\Microsoft Visual Studio\2019\Community\VC\Tools\MSVC\14.29.30133\atlmfc\include\afx.inl
;	COMDAT ??_GCUsrAddListDlg@@UAEPAXI@Z
_TEXT	SEGMENT
___flags$ = 8						; size = 4
??_GCUsrAddListDlg@@UAEPAXI@Z PROC			; CUsrAddListDlg::`scalar deleting destructor', COMDAT
; _this$ = ecx
  00000	55		 push	 ebp
  00001	8b ec		 mov	 ebp, esp
; File C:\Program Files (x86)\Microsoft Visual Studio\2019\Community\VC\Tools\MSVC\14.29.30133\atlmfc\include\afxwin1.inl

; 130  : 	{ }

  00003	56		 push	 esi
  00004	8b f1		 mov	 esi, ecx
  00006	8d 8e f0 04 00
	00		 lea	 ecx, DWORD PTR [esi+1264]
  0000c	e8 00 00 00 00	 call	 ??1CNsyButtonListCtrl@@UAE@XZ ; CNsyButtonListCtrl::~CNsyButtonListCtrl
  00011	8d 8e 90 03 00
	00		 lea	 ecx, DWORD PTR [esi+912]
  00017	e8 00 00 00 00	 call	 ??1CILButton@@UAE@XZ	; CILButton::~CILButton
  0001c	8d 8e 30 02 00
	00		 lea	 ecx, DWORD PTR [esi+560]
  00022	e8 00 00 00 00	 call	 ??1CILButton@@UAE@XZ	; CILButton::~CILButton
  00027	8d 8e d0 00 00
	00		 lea	 ecx, DWORD PTR [esi+208]
  0002d	e8 00 00 00 00	 call	 ??1CILButton@@UAE@XZ	; CILButton::~CILButton
  00032	8d 8e cc 00 00
	00		 lea	 ecx, DWORD PTR [esi+204]
  00038	ff 15 00 00 00
	00		 call	 DWORD PTR __imp_??1?$CStringT@DV?$StrTraitMFC_DLL@DV?$ChTraitsCRT@D@ATL@@@@@ATL@@QAE@XZ
  0003e	8d 8e c8 00 00
	00		 lea	 ecx, DWORD PTR [esi+200]
  00044	ff 15 00 00 00
	00		 call	 DWORD PTR __imp_??1?$CStringT@DV?$StrTraitMFC_DLL@DV?$ChTraitsCRT@D@ATL@@@@@ATL@@QAE@XZ
  0004a	8d 8e c4 00 00
	00		 lea	 ecx, DWORD PTR [esi+196]
  00050	ff 15 00 00 00
	00		 call	 DWORD PTR __imp_??1?$CStringT@DV?$StrTraitMFC_DLL@DV?$ChTraitsCRT@D@ATL@@@@@ATL@@QAE@XZ
  00056	8d 8e c0 00 00
	00		 lea	 ecx, DWORD PTR [esi+192]
  0005c	ff 15 00 00 00
	00		 call	 DWORD PTR __imp_??1?$CStringT@DV?$StrTraitMFC_DLL@DV?$ChTraitsCRT@D@ATL@@@@@ATL@@QAE@XZ
  00062	8d 8e a8 00 00
	00		 lea	 ecx, DWORD PTR [esi+168]
  00068	c7 01 00 00 00
	00		 mov	 DWORD PTR [ecx], OFFSET ??_7CBrush@@6B@
  0006e	e8 00 00 00 00	 call	 ??1CGdiObject@@UAE@XZ	; CGdiObject::~CGdiObject
  00073	8b ce		 mov	 ecx, esi
  00075	e8 00 00 00 00	 call	 ??1CDialog@@UAE@XZ	; CDialog::~CDialog
  0007a	8b 45 08	 mov	 eax, DWORD PTR ___flags$[ebp]
  0007d	a8 01		 test	 al, 1
  0007f	74 22		 je	 SHORT $LN18@scalar
  00081	a8 04		 test	 al, 4
  00083	75 10		 jne	 SHORT $LN3@scalar
; File C:\Program Files (x86)\Microsoft Visual Studio\2019\Community\VC\Tools\MSVC\14.29.30133\atlmfc\include\afx.inl

; 112  : 	{ ::operator delete(p); }

  00085	56		 push	 esi
  00086	e8 00 00 00 00	 call	 ??3@YAXPAX@Z		; operator delete
  0008b	83 c4 04	 add	 esp, 4
  0008e	8b c6		 mov	 eax, esi
  00090	5e		 pop	 esi
  00091	5d		 pop	 ebp
  00092	c2 04 00	 ret	 4
$LN3@scalar:
  00095	68 28 07 00 00	 push	 1832			; 00000728H
  0009a	56		 push	 esi
  0009b	e8 00 00 00 00	 call	 ?__global_delete@@YAXPAXI@Z ; __global_delete
  000a0	83 c4 08	 add	 esp, 8
$LN18@scalar:
  000a3	8b c6		 mov	 eax, esi
  000a5	5e		 pop	 esi
  000a6	5d		 pop	 ebp
  000a7	c2 04 00	 ret	 4
??_GCUsrAddListDlg@@UAEPAXI@Z ENDP			; CUsrAddListDlg::`scalar deleting destructor'
_TEXT	ENDS
; Function compile flags: /Ogtp
; File D:\git\src\IBK\IBK_DRFN\ProjSrc\SrcDrfn\Chart\comparechart\UsrAddListDlg.cpp
; File C:\Program Files (x86)\Microsoft Visual Studio\2019\Community\VC\Tools\MSVC\14.29.30133\atlmfc\include\afxcmn.inl
; File D:\git\src\IBK\IBK_DRFN\ProjSrc\SrcDrfn\Chart\comparechart\UsrAddListDlg.cpp
; File C:\Program Files (x86)\Microsoft Visual Studio\2019\Community\VC\Tools\MSVC\14.29.30133\atlmfc\include\afxcmn.inl
; File D:\git\src\IBK\IBK_DRFN\ProjSrc\SrcDrfn\Chart\comparechart\UsrAddListDlg.cpp
;	COMDAT ?DelItem@CUsrAddListDlg@@QAEXPBD@Z
_TEXT	SEGMENT
_this$1$ = -24						; size = 4
$T2 = -20						; size = 4
_strCode$ = -16						; size = 4
__$EHRec$ = -12						; size = 12
_szDelCode$ = 8						; size = 4
?DelItem@CUsrAddListDlg@@QAEXPBD@Z PROC			; CUsrAddListDlg::DelItem, COMDAT
; _this$ = ecx

; 104  : {

  00000	55		 push	 ebp
  00001	8b ec		 mov	 ebp, esp
  00003	6a ff		 push	 -1
  00005	68 00 00 00 00	 push	 __ehhandler$?DelItem@CUsrAddListDlg@@QAEXPBD@Z
  0000a	64 a1 00 00 00
	00		 mov	 eax, DWORD PTR fs:0
  00010	50		 push	 eax
  00011	83 ec 0c	 sub	 esp, 12			; 0000000cH
  00014	53		 push	 ebx
  00015	56		 push	 esi
  00016	57		 push	 edi
  00017	a1 00 00 00 00	 mov	 eax, DWORD PTR ___security_cookie
  0001c	33 c5		 xor	 eax, ebp
  0001e	50		 push	 eax
  0001f	8d 45 f4	 lea	 eax, DWORD PTR __$EHRec$[ebp]
  00022	64 a3 00 00 00
	00		 mov	 DWORD PTR fs:0, eax
  00028	8b d9		 mov	 ebx, ecx
  0002a	89 5d e8	 mov	 DWORD PTR _this$1$[ebp], ebx
; File C:\Program Files (x86)\Microsoft Visual Studio\2019\Community\VC\Tools\MSVC\14.29.30133\atlmfc\include\afxcmn.inl

; 155  : 	{ ASSERT(::IsWindow(m_hWnd)); return (int) ::SendMessage(m_hWnd, LVM_GETITEMCOUNT, 0, 0L); }

  0002d	6a 00		 push	 0
  0002f	6a 00		 push	 0
  00031	68 04 10 00 00	 push	 4100			; 00001004H
  00036	ff b3 10 05 00
	00		 push	 DWORD PTR [ebx+1296]
  0003c	ff 15 00 00 00
	00		 call	 DWORD PTR __imp__SendMessageA@16
; File D:\git\src\IBK\IBK_DRFN\ProjSrc\SrcDrfn\Chart\comparechart\UsrAddListDlg.cpp

; 107  : 	CString strCode;

  00042	8d 4d f0	 lea	 ecx, DWORD PTR _strCode$[ebp]
  00045	8b f8		 mov	 edi, eax
  00047	ff 15 00 00 00
	00		 call	 DWORD PTR __imp_??0?$CStringT@DV?$StrTraitMFC_DLL@DV?$ChTraitsCRT@D@ATL@@@@@ATL@@QAE@XZ

; 108  : 	for(int i = 0; i < nTot ; i++)	

  0004d	33 f6		 xor	 esi, esi
  0004f	c7 45 fc 00 00
	00 00		 mov	 DWORD PTR __$EHRec$[ebp+8], 0
  00056	85 ff		 test	 edi, edi
  00058	0f 8e 83 00 00
	00		 jle	 $LN6@DelItem
  0005e	81 c3 f0 04 00
	00		 add	 ebx, 1264		; 000004f0H
$LL4@DelItem:

; 109  : 	{
; 110  : 		strCode = m_listUsrAdd.GetItemText(i, 1); strCode.TrimLeft(); strCode.TrimRight();

  00064	6a 01		 push	 1
  00066	56		 push	 esi
  00067	8d 45 ec	 lea	 eax, DWORD PTR $T2[ebp]
  0006a	8b cb		 mov	 ecx, ebx
  0006c	50		 push	 eax
  0006d	e8 00 00 00 00	 call	 ?GetItemText@CListCtrl@@QBE?AV?$CStringT@DV?$StrTraitMFC_DLL@DV?$ChTraitsCRT@D@ATL@@@@@ATL@@HH@Z ; CListCtrl::GetItemText
  00072	50		 push	 eax
  00073	8d 4d f0	 lea	 ecx, DWORD PTR _strCode$[ebp]
  00076	c6 45 fc 01	 mov	 BYTE PTR __$EHRec$[ebp+8], 1
  0007a	ff 15 00 00 00
	00		 call	 DWORD PTR __imp_??4?$CStringT@DV?$StrTraitMFC_DLL@DV?$ChTraitsCRT@D@ATL@@@@@ATL@@QAEAAV01@ABV01@@Z
  00080	8d 4d ec	 lea	 ecx, DWORD PTR $T2[ebp]
  00083	c6 45 fc 00	 mov	 BYTE PTR __$EHRec$[ebp+8], 0
  00087	ff 15 00 00 00
	00		 call	 DWORD PTR __imp_??1?$CStringT@DV?$StrTraitMFC_DLL@DV?$ChTraitsCRT@D@ATL@@@@@ATL@@QAE@XZ
  0008d	8d 4d f0	 lea	 ecx, DWORD PTR _strCode$[ebp]
  00090	ff 15 00 00 00
	00		 call	 DWORD PTR __imp_?TrimLeft@?$CStringT@DV?$StrTraitMFC_DLL@DV?$ChTraitsCRT@D@ATL@@@@@ATL@@QAEAAV12@XZ
  00096	8d 4d f0	 lea	 ecx, DWORD PTR _strCode$[ebp]
  00099	ff 15 00 00 00
	00		 call	 DWORD PTR __imp_?TrimRight@?$CStringT@DV?$StrTraitMFC_DLL@DV?$ChTraitsCRT@D@ATL@@@@@ATL@@QAEAAV12@XZ

; 111  : 		if(strCode.CompareNoCase(szDelCode)==0)

  0009f	ff 75 08	 push	 DWORD PTR _szDelCode$[ebp]
  000a2	8d 4d f0	 lea	 ecx, DWORD PTR _strCode$[ebp]
  000a5	ff 15 00 00 00
	00		 call	 DWORD PTR __imp_?CompareNoCase@?$CStringT@DV?$StrTraitMFC_DLL@DV?$ChTraitsCRT@D@ATL@@@@@ATL@@QBEHPBD@Z
  000ab	85 c0		 test	 eax, eax
  000ad	74 07		 je	 SHORT $LN18@DelItem

; 108  : 	for(int i = 0; i < nTot ; i++)	

  000af	46		 inc	 esi
  000b0	3b f7		 cmp	 esi, edi
  000b2	7c b0		 jl	 SHORT $LL4@DelItem

; 111  : 		if(strCode.CompareNoCase(szDelCode)==0)

  000b4	eb 2b		 jmp	 SHORT $LN6@DelItem
$LN18@DelItem:

; 112  : 		{
; 113  : 			//m_listUsrAdd.DeleteSelectItem(i);
; 114  : 			m_listUsrAdd.RemoveOnlyList(i);

  000b6	56		 push	 esi
  000b7	8b cb		 mov	 ecx, ebx
  000b9	e8 00 00 00 00	 call	 ?RemoveOnlyList@CNsyButtonListCtrl@@QAEXH@Z ; CNsyButtonListCtrl::RemoveOnlyList
; File C:\Program Files (x86)\Microsoft Visual Studio\2019\Community\VC\Tools\MSVC\14.29.30133\atlmfc\include\afxcmn.inl

; 155  : 	{ ASSERT(::IsWindow(m_hWnd)); return (int) ::SendMessage(m_hWnd, LVM_GETITEMCOUNT, 0, 0L); }

  000be	8b 45 e8	 mov	 eax, DWORD PTR _this$1$[ebp]
  000c1	6a 00		 push	 0
  000c3	6a 00		 push	 0
  000c5	68 04 10 00 00	 push	 4100			; 00001004H
  000ca	ff b0 10 05 00
	00		 push	 DWORD PTR [eax+1296]
  000d0	ff 15 00 00 00
	00		 call	 DWORD PTR __imp__SendMessageA@16
; File D:\git\src\IBK\IBK_DRFN\ProjSrc\SrcDrfn\Chart\comparechart\UsrAddListDlg.cpp

; 117  : 			if(m_listUsrAdd.GetItemCount()==0)

  000d6	85 c0		 test	 eax, eax
  000d8	75 07		 jne	 SHORT $LN6@DelItem

; 78   : 	m_listUsrAdd.Init_CompareChart();

  000da	8b cb		 mov	 ecx, ebx
  000dc	e8 00 00 00 00	 call	 ?Init_CompareChart@CNsyButtonListCtrl@@QAEXXZ ; CNsyButtonListCtrl::Init_CompareChart
$LN6@DelItem:

; 118  : 				OnBtnInit();
; 119  : 			return;
; 120  : 		}
; 121  : 	}
; 122  : }

  000e1	8d 4d f0	 lea	 ecx, DWORD PTR _strCode$[ebp]
  000e4	ff 15 00 00 00
	00		 call	 DWORD PTR __imp_??1?$CStringT@DV?$StrTraitMFC_DLL@DV?$ChTraitsCRT@D@ATL@@@@@ATL@@QAE@XZ
  000ea	8b 4d f4	 mov	 ecx, DWORD PTR __$EHRec$[ebp]
  000ed	64 89 0d 00 00
	00 00		 mov	 DWORD PTR fs:0, ecx
  000f4	59		 pop	 ecx
  000f5	5f		 pop	 edi
  000f6	5e		 pop	 esi
  000f7	5b		 pop	 ebx
  000f8	8b e5		 mov	 esp, ebp
  000fa	5d		 pop	 ebp
  000fb	c2 04 00	 ret	 4
_TEXT	ENDS
;	COMDAT text$x
text$x	SEGMENT
__unwindfunclet$?DelItem@CUsrAddListDlg@@QAEXPBD@Z$0:
  00000	8d 4d f0	 lea	 ecx, DWORD PTR _strCode$[ebp]
  00003	ff 25 00 00 00
	00		 jmp	 DWORD PTR __imp_??1?$CStringT@DV?$StrTraitMFC_DLL@DV?$ChTraitsCRT@D@ATL@@@@@ATL@@QAE@XZ
__unwindfunclet$?DelItem@CUsrAddListDlg@@QAEXPBD@Z$1:
  00009	8d 4d ec	 lea	 ecx, DWORD PTR $T2[ebp]
  0000c	ff 25 00 00 00
	00		 jmp	 DWORD PTR __imp_??1?$CStringT@DV?$StrTraitMFC_DLL@DV?$ChTraitsCRT@D@ATL@@@@@ATL@@QAE@XZ
  00012	cc		 int	 3
  00013	cc		 int	 3
  00014	cc		 int	 3
  00015	cc		 int	 3
  00016	cc		 int	 3
__ehhandler$?DelItem@CUsrAddListDlg@@QAEXPBD@Z:
  00017	90		 npad	 1
  00018	90		 npad	 1
  00019	8b 54 24 08	 mov	 edx, DWORD PTR [esp+8]
  0001d	8d 42 0c	 lea	 eax, DWORD PTR [edx+12]
  00020	8b 4a e4	 mov	 ecx, DWORD PTR [edx-28]
  00023	33 c8		 xor	 ecx, eax
  00025	e8 00 00 00 00	 call	 @__security_check_cookie@4
  0002a	b8 00 00 00 00	 mov	 eax, OFFSET __ehfuncinfo$?DelItem@CUsrAddListDlg@@QAEXPBD@Z
  0002f	e9 00 00 00 00	 jmp	 ___CxxFrameHandler3
text$x	ENDS
?DelItem@CUsrAddListDlg@@QAEXPBD@Z ENDP			; CUsrAddListDlg::DelItem
; Function compile flags: /Ogtp
; File D:\git\src\IBK\IBK_DRFN\ProjSrc\SrcDrfn\Chart\comparechart\UsrAddListDlg.cpp
; File C:\Program Files (x86)\Microsoft Visual Studio\2019\Community\VC\Tools\MSVC\14.29.30133\atlmfc\include\afxwin2.inl
; File D:\git\src\IBK\IBK_DRFN\ProjSrc\SrcDrfn\Chart\comparechart\UsrAddListDlg.cpp
; File C:\Program Files (x86)\Microsoft Visual Studio\2019\Community\VC\Tools\MSVC\14.29.30133\atlmfc\include\afxwin2.inl
; File D:\git\src\IBK\IBK_DRFN\ProjSrc\SrcDrfn\Chart\comparechart\UsrAddListDlg.cpp
; File C:\Program Files (x86)\Microsoft Visual Studio\2019\Community\VC\Tools\MSVC\14.29.30133\atlmfc\include\afxwin2.inl
; File D:\git\src\IBK\IBK_DRFN\ProjSrc\SrcDrfn\Chart\comparechart\UsrAddListDlg.cpp
; File C:\Program Files (x86)\Microsoft Visual Studio\2019\Community\VC\Tools\MSVC\14.29.30133\atlmfc\include\atlsimpstr.h
; File D:\git\src\IBK\IBK_DRFN\ProjSrc\SrcDrfn\Chart\comparechart\UsrAddListDlg.cpp
; File C:\Program Files (x86)\Microsoft Visual Studio\2019\Community\VC\Tools\MSVC\14.29.30133\atlmfc\include\atlsimpstr.h
; File D:\git\src\IBK\IBK_DRFN\ProjSrc\SrcDrfn\Chart\comparechart\UsrAddListDlg.cpp
; File C:\Program Files (x86)\Microsoft Visual Studio\2019\Community\VC\Tools\MSVC\14.29.30133\atlmfc\include\afxcmn.inl
; File D:\git\src\IBK\IBK_DRFN\ProjSrc\SrcDrfn\Chart\comparechart\UsrAddListDlg.cpp
;	COMDAT ?AddELWIndexCode@CUsrAddListDlg@@QAEXXZ
_TEXT	SEGMENT
$T2 = -28						; size = 4
_strIndexName$ = -24					; size = 4
_strIndexCode$ = -20					; size = 4
_strCode$3 = -16					; size = 4
__$EHRec$ = -12						; size = 12
?AddELWIndexCode@CUsrAddListDlg@@QAEXXZ PROC		; CUsrAddListDlg::AddELWIndexCode, COMDAT
; _this$ = ecx

; 488  : {

  00000	55		 push	 ebp
  00001	8b ec		 mov	 ebp, esp
  00003	6a ff		 push	 -1
  00005	68 00 00 00 00	 push	 __ehhandler$?AddELWIndexCode@CUsrAddListDlg@@QAEXXZ
  0000a	64 a1 00 00 00
	00		 mov	 eax, DWORD PTR fs:0
  00010	50		 push	 eax
  00011	83 ec 10	 sub	 esp, 16			; 00000010H
  00014	53		 push	 ebx
  00015	56		 push	 esi
  00016	57		 push	 edi
  00017	a1 00 00 00 00	 mov	 eax, DWORD PTR ___security_cookie
  0001c	33 c5		 xor	 eax, ebp
  0001e	50		 push	 eax
  0001f	8d 45 f4	 lea	 eax, DWORD PTR __$EHRec$[ebp]
  00022	64 a3 00 00 00
	00		 mov	 DWORD PTR fs:0, eax
  00028	8b d9		 mov	 ebx, ecx
; File C:\Program Files (x86)\Microsoft Visual Studio\2019\Community\VC\Tools\MSVC\14.29.30133\atlmfc\include\afxwin2.inl

; 213  : 	{ ASSERT(::IsWindow(m_hWnd)); return CWnd::FromHandle(::GetParent(m_hWnd)); }

  0002a	ff 73 20	 push	 DWORD PTR [ebx+32]
  0002d	8b 35 00 00 00
	00		 mov	 esi, DWORD PTR __imp__GetParent@4
  00033	ff d6		 call	 esi
  00035	50		 push	 eax
  00036	e8 00 00 00 00	 call	 ?FromHandle@CWnd@@SGPAV1@PAUHWND__@@@Z ; CWnd::FromHandle
  0003b	ff 70 20	 push	 DWORD PTR [eax+32]
  0003e	ff d6		 call	 esi
  00040	50		 push	 eax
  00041	e8 00 00 00 00	 call	 ?FromHandle@CWnd@@SGPAV1@PAUHWND__@@@Z ; CWnd::FromHandle
; File D:\git\src\IBK\IBK_DRFN\ProjSrc\SrcDrfn\Chart\comparechart\UsrAddListDlg.cpp

; 489  : 	if(((CStdDialog*)(GetParent()->GetParent()))->m_nScreenType != CStdDialog::Screen_ELWChart)

  00046	83 b8 e4 02 00
	00 01		 cmp	 DWORD PTR [eax+740], 1
  0004d	0f 85 34 01 00
	00		 jne	 $LN1@AddELWInde

; 490  : 		return;
; 491  : 
; 492  : 	CString strIndexCode;

  00053	8d 4d ec	 lea	 ecx, DWORD PTR _strIndexCode$[ebp]
  00056	ff 15 00 00 00
	00		 call	 DWORD PTR __imp_??0?$CStringT@DV?$StrTraitMFC_DLL@DV?$ChTraitsCRT@D@ATL@@@@@ATL@@QAE@XZ

; 493  : 	CString strIndexName;

  0005c	8d 4d e8	 lea	 ecx, DWORD PTR _strIndexName$[ebp]
  0005f	c7 45 fc 00 00
	00 00		 mov	 DWORD PTR __$EHRec$[ebp+8], 0
  00066	ff 15 00 00 00
	00		 call	 DWORD PTR __imp_??0?$CStringT@DV?$StrTraitMFC_DLL@DV?$ChTraitsCRT@D@ATL@@@@@ATL@@QAE@XZ
; File C:\Program Files (x86)\Microsoft Visual Studio\2019\Community\VC\Tools\MSVC\14.29.30133\atlmfc\include\afxwin2.inl

; 213  : 	{ ASSERT(::IsWindow(m_hWnd)); return CWnd::FromHandle(::GetParent(m_hWnd)); }

  0006c	ff 73 20	 push	 DWORD PTR [ebx+32]
; File D:\git\src\IBK\IBK_DRFN\ProjSrc\SrcDrfn\Chart\comparechart\UsrAddListDlg.cpp

; 493  : 	CString strIndexName;

  0006f	c6 45 fc 01	 mov	 BYTE PTR __$EHRec$[ebp+8], 1
; File C:\Program Files (x86)\Microsoft Visual Studio\2019\Community\VC\Tools\MSVC\14.29.30133\atlmfc\include\afxwin2.inl

; 213  : 	{ ASSERT(::IsWindow(m_hWnd)); return CWnd::FromHandle(::GetParent(m_hWnd)); }

  00073	ff d6		 call	 esi
  00075	50		 push	 eax
  00076	e8 00 00 00 00	 call	 ?FromHandle@CWnd@@SGPAV1@PAUHWND__@@@Z ; CWnd::FromHandle
  0007b	ff 70 20	 push	 DWORD PTR [eax+32]
  0007e	ff d6		 call	 esi
  00080	50		 push	 eax
  00081	e8 00 00 00 00	 call	 ?FromHandle@CWnd@@SGPAV1@PAUHWND__@@@Z ; CWnd::FromHandle
; File D:\git\src\IBK\IBK_DRFN\ProjSrc\SrcDrfn\Chart\comparechart\UsrAddListDlg.cpp

; 495  : 	CStdDialog* pStdDialog = (CStdDialog*)(GetParent()->GetParent());

  00086	8b f0		 mov	 esi, eax

; 496  : 	pStdDialog->GetELWIndexCode(m_strOpCode, strIndexCode, strIndexName);

  00088	8d 45 e8	 lea	 eax, DWORD PTR _strIndexName$[ebp]
  0008b	50		 push	 eax
  0008c	8d 45 ec	 lea	 eax, DWORD PTR _strIndexCode$[ebp]
  0008f	50		 push	 eax
  00090	51		 push	 ecx
  00091	8d 83 c8 00 00
	00		 lea	 eax, DWORD PTR [ebx+200]
  00097	8b cc		 mov	 ecx, esp
  00099	50		 push	 eax
  0009a	ff 15 00 00 00
	00		 call	 DWORD PTR __imp_??0?$CStringT@DV?$StrTraitMFC_DLL@DV?$ChTraitsCRT@D@ATL@@@@@ATL@@QAE@ABV01@@Z
  000a0	8b ce		 mov	 ecx, esi
  000a2	e8 00 00 00 00	 call	 ?GetELWIndexCode@CStdDialog@@QAEXV?$CStringT@DV?$StrTraitMFC_DLL@DV?$ChTraitsCRT@D@ATL@@@@@ATL@@AAV23@1@Z ; CStdDialog::GetELWIndexCode
; File C:\Program Files (x86)\Microsoft Visual Studio\2019\Community\VC\Tools\MSVC\14.29.30133\atlmfc\include\atlsimpstr.h

; 519  : 		return( GetData()->nDataLength );

  000a7	8b 45 ec	 mov	 eax, DWORD PTR _strIndexCode$[ebp]

; 533  : 		return( GetLength() == 0 );

  000aa	83 78 f4 00	 cmp	 DWORD PTR [eax-12], 0
; File D:\git\src\IBK\IBK_DRFN\ProjSrc\SrcDrfn\Chart\comparechart\UsrAddListDlg.cpp

; 497  : 	if(strIndexCode.IsEmpty() || strIndexName.IsEmpty())

  000ae	0f 84 c1 00 00
	00		 je	 $LN7@AddELWInde
; File C:\Program Files (x86)\Microsoft Visual Studio\2019\Community\VC\Tools\MSVC\14.29.30133\atlmfc\include\atlsimpstr.h

; 519  : 		return( GetData()->nDataLength );

  000b4	8b 45 e8	 mov	 eax, DWORD PTR _strIndexName$[ebp]

; 533  : 		return( GetLength() == 0 );

  000b7	83 78 f4 00	 cmp	 DWORD PTR [eax-12], 0
; File D:\git\src\IBK\IBK_DRFN\ProjSrc\SrcDrfn\Chart\comparechart\UsrAddListDlg.cpp

; 497  : 	if(strIndexCode.IsEmpty() || strIndexName.IsEmpty())

  000bb	0f 84 b4 00 00
	00		 je	 $LN7@AddELWInde
; File C:\Program Files (x86)\Microsoft Visual Studio\2019\Community\VC\Tools\MSVC\14.29.30133\atlmfc\include\afxcmn.inl

; 155  : 	{ ASSERT(::IsWindow(m_hWnd)); return (int) ::SendMessage(m_hWnd, LVM_GETITEMCOUNT, 0, 0L); }

  000c1	6a 00		 push	 0
  000c3	6a 00		 push	 0
  000c5	68 04 10 00 00	 push	 4100			; 00001004H
  000ca	ff b3 10 05 00
	00		 push	 DWORD PTR [ebx+1296]
  000d0	ff 15 00 00 00
	00		 call	 DWORD PTR __imp__SendMessageA@16
; File D:\git\src\IBK\IBK_DRFN\ProjSrc\SrcDrfn\Chart\comparechart\UsrAddListDlg.cpp

; 500  : 	int nTot = m_listUsrAdd.GetItemCount();

  000d6	8b f8		 mov	 edi, eax

; 501  : 	for(int i = 0; i < nTot ; i++)	

  000d8	33 f6		 xor	 esi, esi
  000da	85 ff		 test	 edi, edi
  000dc	7e 70		 jle	 SHORT $LN3@AddELWInde
  000de	66 90		 npad	 2
$LL4@AddELWInde:

; 502  : 	{
; 503  : 		CString strCode;

  000e0	8d 4d f0	 lea	 ecx, DWORD PTR _strCode$3[ebp]
  000e3	ff 15 00 00 00
	00		 call	 DWORD PTR __imp_??0?$CStringT@DV?$StrTraitMFC_DLL@DV?$ChTraitsCRT@D@ATL@@@@@ATL@@QAE@XZ

; 504  : 		strCode = m_listUsrAdd.GetItemText(i, 1); strCode.TrimLeft(); strCode.TrimRight();

  000e9	6a 01		 push	 1
  000eb	56		 push	 esi
  000ec	8d 45 e4	 lea	 eax, DWORD PTR $T2[ebp]
  000ef	c6 45 fc 02	 mov	 BYTE PTR __$EHRec$[ebp+8], 2
  000f3	50		 push	 eax
  000f4	8d 8b f0 04 00
	00		 lea	 ecx, DWORD PTR [ebx+1264]
  000fa	e8 00 00 00 00	 call	 ?GetItemText@CListCtrl@@QBE?AV?$CStringT@DV?$StrTraitMFC_DLL@DV?$ChTraitsCRT@D@ATL@@@@@ATL@@HH@Z ; CListCtrl::GetItemText
  000ff	50		 push	 eax
  00100	8d 4d f0	 lea	 ecx, DWORD PTR _strCode$3[ebp]
  00103	c6 45 fc 03	 mov	 BYTE PTR __$EHRec$[ebp+8], 3
  00107	ff 15 00 00 00
	00		 call	 DWORD PTR __imp_??4?$CStringT@DV?$StrTraitMFC_DLL@DV?$ChTraitsCRT@D@ATL@@@@@ATL@@QAEAAV01@ABV01@@Z
  0010d	8d 4d e4	 lea	 ecx, DWORD PTR $T2[ebp]
  00110	c6 45 fc 02	 mov	 BYTE PTR __$EHRec$[ebp+8], 2
  00114	ff 15 00 00 00
	00		 call	 DWORD PTR __imp_??1?$CStringT@DV?$StrTraitMFC_DLL@DV?$ChTraitsCRT@D@ATL@@@@@ATL@@QAE@XZ
  0011a	8d 4d f0	 lea	 ecx, DWORD PTR _strCode$3[ebp]
  0011d	ff 15 00 00 00
	00		 call	 DWORD PTR __imp_?TrimLeft@?$CStringT@DV?$StrTraitMFC_DLL@DV?$ChTraitsCRT@D@ATL@@@@@ATL@@QAEAAV12@XZ
  00123	8d 4d f0	 lea	 ecx, DWORD PTR _strCode$3[ebp]
  00126	ff 15 00 00 00
	00		 call	 DWORD PTR __imp_?TrimRight@?$CStringT@DV?$StrTraitMFC_DLL@DV?$ChTraitsCRT@D@ATL@@@@@ATL@@QAEAAV12@XZ

; 505  : 		
; 506  : 		if(strIndexCode.CompareNoCase(strCode) == 0)

  0012c	ff 75 f0	 push	 DWORD PTR _strCode$3[ebp]
  0012f	8d 4d ec	 lea	 ecx, DWORD PTR _strIndexCode$[ebp]
  00132	ff 15 00 00 00
	00		 call	 DWORD PTR __imp_?CompareNoCase@?$CStringT@DV?$StrTraitMFC_DLL@DV?$ChTraitsCRT@D@ATL@@@@@ATL@@QBEHPBD@Z
  00138	8d 4d f0	 lea	 ecx, DWORD PTR _strCode$3[ebp]
  0013b	85 c0		 test	 eax, eax
  0013d	74 5a		 je	 SHORT $LN42@AddELWInde

; 508  : 	}

  0013f	c6 45 fc 01	 mov	 BYTE PTR __$EHRec$[ebp+8], 1
  00143	ff 15 00 00 00
	00		 call	 DWORD PTR __imp_??1?$CStringT@DV?$StrTraitMFC_DLL@DV?$ChTraitsCRT@D@ATL@@@@@ATL@@QAE@XZ
  00149	46		 inc	 esi
  0014a	3b f7		 cmp	 esi, edi
  0014c	7c 92		 jl	 SHORT $LL4@AddELWInde
$LN3@AddELWInde:

; 509  : 
; 510  : 	m_strOpCode = strIndexCode;

  0014e	8d 45 ec	 lea	 eax, DWORD PTR _strIndexCode$[ebp]
  00151	50		 push	 eax
  00152	8d 8b c8 00 00
	00		 lea	 ecx, DWORD PTR [ebx+200]
  00158	ff 15 00 00 00
	00		 call	 DWORD PTR __imp_??4?$CStringT@DV?$StrTraitMFC_DLL@DV?$ChTraitsCRT@D@ATL@@@@@ATL@@QAEAAV01@ABV01@@Z

; 511  : 	m_strOpCodeName =  strIndexName;

  0015e	8d 45 e8	 lea	 eax, DWORD PTR _strIndexName$[ebp]
  00161	50		 push	 eax
  00162	8d 8b cc 00 00
	00		 lea	 ecx, DWORD PTR [ebx+204]
  00168	ff 15 00 00 00
	00		 call	 DWORD PTR __imp_??4?$CStringT@DV?$StrTraitMFC_DLL@DV?$ChTraitsCRT@D@ATL@@@@@ATL@@QAEAAV01@ABV01@@Z

; 512  : 
; 513  : 	AddItem();

  0016e	8b cb		 mov	 ecx, ebx
  00170	e8 00 00 00 00	 call	 ?AddItem@CUsrAddListDlg@@QAEXXZ ; CUsrAddListDlg::AddItem
$LN7@AddELWInde:

; 514  : }

  00175	8d 4d e8	 lea	 ecx, DWORD PTR _strIndexName$[ebp]
  00178	ff 15 00 00 00
	00		 call	 DWORD PTR __imp_??1?$CStringT@DV?$StrTraitMFC_DLL@DV?$ChTraitsCRT@D@ATL@@@@@ATL@@QAE@XZ
  0017e	8d 4d ec	 lea	 ecx, DWORD PTR _strIndexCode$[ebp]
  00181	ff 15 00 00 00
	00		 call	 DWORD PTR __imp_??1?$CStringT@DV?$StrTraitMFC_DLL@DV?$ChTraitsCRT@D@ATL@@@@@ATL@@QAE@XZ
$LN1@AddELWInde:
  00187	8b 4d f4	 mov	 ecx, DWORD PTR __$EHRec$[ebp]
  0018a	64 89 0d 00 00
	00 00		 mov	 DWORD PTR fs:0, ecx
  00191	59		 pop	 ecx
  00192	5f		 pop	 edi
  00193	5e		 pop	 esi
  00194	5b		 pop	 ebx
  00195	8b e5		 mov	 esp, ebp
  00197	5d		 pop	 ebp
  00198	c3		 ret	 0
$LN42@AddELWInde:

; 507  : 			return;

  00199	ff 15 00 00 00
	00		 call	 DWORD PTR __imp_??1?$CStringT@DV?$StrTraitMFC_DLL@DV?$ChTraitsCRT@D@ATL@@@@@ATL@@QAE@XZ
  0019f	eb d4		 jmp	 SHORT $LN7@AddELWInde
_TEXT	ENDS
;	COMDAT text$x
text$x	SEGMENT
__unwindfunclet$?AddELWIndexCode@CUsrAddListDlg@@QAEXXZ$0:
  00000	8d 4d ec	 lea	 ecx, DWORD PTR _strIndexCode$[ebp]
  00003	ff 25 00 00 00
	00		 jmp	 DWORD PTR __imp_??1?$CStringT@DV?$StrTraitMFC_DLL@DV?$ChTraitsCRT@D@ATL@@@@@ATL@@QAE@XZ
__unwindfunclet$?AddELWIndexCode@CUsrAddListDlg@@QAEXXZ$1:
  00009	8d 4d e8	 lea	 ecx, DWORD PTR _strIndexName$[ebp]
  0000c	ff 25 00 00 00
	00		 jmp	 DWORD PTR __imp_??1?$CStringT@DV?$StrTraitMFC_DLL@DV?$ChTraitsCRT@D@ATL@@@@@ATL@@QAE@XZ
__unwindfunclet$?AddELWIndexCode@CUsrAddListDlg@@QAEXXZ$3:
  00012	8d 4d f0	 lea	 ecx, DWORD PTR _strCode$3[ebp]
  00015	ff 25 00 00 00
	00		 jmp	 DWORD PTR __imp_??1?$CStringT@DV?$StrTraitMFC_DLL@DV?$ChTraitsCRT@D@ATL@@@@@ATL@@QAE@XZ
__unwindfunclet$?AddELWIndexCode@CUsrAddListDlg@@QAEXXZ$4:
  0001b	8d 4d e4	 lea	 ecx, DWORD PTR $T2[ebp]
  0001e	ff 25 00 00 00
	00		 jmp	 DWORD PTR __imp_??1?$CStringT@DV?$StrTraitMFC_DLL@DV?$ChTraitsCRT@D@ATL@@@@@ATL@@QAE@XZ
  00024	cc		 int	 3
  00025	cc		 int	 3
  00026	cc		 int	 3
  00027	cc		 int	 3
  00028	cc		 int	 3
__ehhandler$?AddELWIndexCode@CUsrAddListDlg@@QAEXXZ:
  00029	90		 npad	 1
  0002a	90		 npad	 1
  0002b	8b 54 24 08	 mov	 edx, DWORD PTR [esp+8]
  0002f	8d 42 0c	 lea	 eax, DWORD PTR [edx+12]
  00032	8b 4a e0	 mov	 ecx, DWORD PTR [edx-32]
  00035	33 c8		 xor	 ecx, eax
  00037	e8 00 00 00 00	 call	 @__security_check_cookie@4
  0003c	b8 00 00 00 00	 mov	 eax, OFFSET __ehfuncinfo$?AddELWIndexCode@CUsrAddListDlg@@QAEXXZ
  00041	e9 00 00 00 00	 jmp	 ___CxxFrameHandler3
text$x	ENDS
?AddELWIndexCode@CUsrAddListDlg@@QAEXXZ ENDP		; CUsrAddListDlg::AddELWIndexCode
; Function compile flags: /Ogtp
; File D:\git\src\IBK\IBK_DRFN\ProjSrc\SrcDrfn\Chart\comparechart\UsrAddListDlg.cpp
; File C:\Program Files (x86)\Microsoft Visual Studio\2019\Community\VC\Tools\MSVC\14.29.30133\atlmfc\include\afxcmn.inl
; File D:\git\src\IBK\IBK_DRFN\ProjSrc\SrcDrfn\Chart\comparechart\UsrAddListDlg.cpp
;	COMDAT ?GetRequestList@CUsrAddListDlg@@QAEHAAVCStringList@@0@Z
_TEXT	SEGMENT
$T2 = -28						; size = 4
$T3 = -24						; size = 4
_strCode$4 = -20					; size = 4
_strCodeName$5 = -16					; size = 4
__$EHRec$ = -12						; size = 12
_szCodeList$ = 8					; size = 4
_szCodeNameList$ = 12					; size = 4
?GetRequestList@CUsrAddListDlg@@QAEHAAVCStringList@@0@Z PROC ; CUsrAddListDlg::GetRequestList, COMDAT
; _this$ = ecx

; 473  : {

  00000	55		 push	 ebp
  00001	8b ec		 mov	 ebp, esp
  00003	6a ff		 push	 -1
  00005	68 00 00 00 00	 push	 __ehhandler$?GetRequestList@CUsrAddListDlg@@QAEHAAVCStringList@@0@Z
  0000a	64 a1 00 00 00
	00		 mov	 eax, DWORD PTR fs:0
  00010	50		 push	 eax
  00011	83 ec 10	 sub	 esp, 16			; 00000010H
  00014	53		 push	 ebx
  00015	56		 push	 esi
  00016	57		 push	 edi
  00017	a1 00 00 00 00	 mov	 eax, DWORD PTR ___security_cookie
  0001c	33 c5		 xor	 eax, ebp
  0001e	50		 push	 eax
  0001f	8d 45 f4	 lea	 eax, DWORD PTR __$EHRec$[ebp]
  00022	64 a3 00 00 00
	00		 mov	 DWORD PTR fs:0, eax
  00028	8b d9		 mov	 ebx, ecx
; File C:\Program Files (x86)\Microsoft Visual Studio\2019\Community\VC\Tools\MSVC\14.29.30133\atlmfc\include\afxcmn.inl

; 155  : 	{ ASSERT(::IsWindow(m_hWnd)); return (int) ::SendMessage(m_hWnd, LVM_GETITEMCOUNT, 0, 0L); }

  0002a	6a 00		 push	 0
  0002c	6a 00		 push	 0
  0002e	68 04 10 00 00	 push	 4100			; 00001004H
  00033	ff b3 10 05 00
	00		 push	 DWORD PTR [ebx+1296]
  00039	ff 15 00 00 00
	00		 call	 DWORD PTR __imp__SendMessageA@16
; File D:\git\src\IBK\IBK_DRFN\ProjSrc\SrcDrfn\Chart\comparechart\UsrAddListDlg.cpp

; 474  : 	int nTot = m_listUsrAdd.GetItemCount();

  0003f	8b f0		 mov	 esi, eax

; 475  : 	for(int i = 0; i < nTot ; i++)	

  00041	33 ff		 xor	 edi, edi
  00043	85 f6		 test	 esi, esi
  00045	0f 8e dc 00 00
	00		 jle	 $LN3@GetRequest
  0004b	0f 1f 44 00 00	 npad	 5
$LL4@GetRequest:

; 476  : 	{
; 477  : 		CString strCode, strCodeName;

  00050	8d 4d ec	 lea	 ecx, DWORD PTR _strCode$4[ebp]
  00053	ff 15 00 00 00
	00		 call	 DWORD PTR __imp_??0?$CStringT@DV?$StrTraitMFC_DLL@DV?$ChTraitsCRT@D@ATL@@@@@ATL@@QAE@XZ
  00059	8d 4d f0	 lea	 ecx, DWORD PTR _strCodeName$5[ebp]
  0005c	c7 45 fc 00 00
	00 00		 mov	 DWORD PTR __$EHRec$[ebp+8], 0
  00063	ff 15 00 00 00
	00		 call	 DWORD PTR __imp_??0?$CStringT@DV?$StrTraitMFC_DLL@DV?$ChTraitsCRT@D@ATL@@@@@ATL@@QAE@XZ

; 478  : 		strCode = m_listUsrAdd.GetItemText(i, 1); strCode.TrimLeft(); strCode.TrimRight();		

  00069	6a 01		 push	 1
  0006b	57		 push	 edi
  0006c	8d 45 e8	 lea	 eax, DWORD PTR $T3[ebp]
  0006f	c6 45 fc 01	 mov	 BYTE PTR __$EHRec$[ebp+8], 1
  00073	50		 push	 eax
  00074	8d 8b f0 04 00
	00		 lea	 ecx, DWORD PTR [ebx+1264]
  0007a	e8 00 00 00 00	 call	 ?GetItemText@CListCtrl@@QBE?AV?$CStringT@DV?$StrTraitMFC_DLL@DV?$ChTraitsCRT@D@ATL@@@@@ATL@@HH@Z ; CListCtrl::GetItemText
  0007f	50		 push	 eax
  00080	8d 4d ec	 lea	 ecx, DWORD PTR _strCode$4[ebp]
  00083	c6 45 fc 02	 mov	 BYTE PTR __$EHRec$[ebp+8], 2
  00087	ff 15 00 00 00
	00		 call	 DWORD PTR __imp_??4?$CStringT@DV?$StrTraitMFC_DLL@DV?$ChTraitsCRT@D@ATL@@@@@ATL@@QAEAAV01@ABV01@@Z
  0008d	8d 4d e8	 lea	 ecx, DWORD PTR $T3[ebp]
  00090	c6 45 fc 01	 mov	 BYTE PTR __$EHRec$[ebp+8], 1
  00094	ff 15 00 00 00
	00		 call	 DWORD PTR __imp_??1?$CStringT@DV?$StrTraitMFC_DLL@DV?$ChTraitsCRT@D@ATL@@@@@ATL@@QAE@XZ
  0009a	8d 4d ec	 lea	 ecx, DWORD PTR _strCode$4[ebp]
  0009d	ff 15 00 00 00
	00		 call	 DWORD PTR __imp_?TrimLeft@?$CStringT@DV?$StrTraitMFC_DLL@DV?$ChTraitsCRT@D@ATL@@@@@ATL@@QAEAAV12@XZ
  000a3	8d 4d ec	 lea	 ecx, DWORD PTR _strCode$4[ebp]
  000a6	ff 15 00 00 00
	00		 call	 DWORD PTR __imp_?TrimRight@?$CStringT@DV?$StrTraitMFC_DLL@DV?$ChTraitsCRT@D@ATL@@@@@ATL@@QAEAAV12@XZ

; 479  : 		szCodeList.AddTail(strCode);

  000ac	8b 4d 08	 mov	 ecx, DWORD PTR _szCodeList$[ebp]
  000af	8d 45 ec	 lea	 eax, DWORD PTR _strCode$4[ebp]
  000b2	50		 push	 eax
  000b3	e8 00 00 00 00	 call	 ?AddTail@CStringList@@QAEPAU__POSITION@@ABV?$CStringT@DV?$StrTraitMFC_DLL@DV?$ChTraitsCRT@D@ATL@@@@@ATL@@@Z ; CStringList::AddTail

; 480  : 
; 481  : 		strCodeName = m_listUsrAdd.GetItemText(i, 0); strCodeName.TrimLeft(); strCodeName.TrimRight();		

  000b8	6a 00		 push	 0
  000ba	57		 push	 edi
  000bb	8d 45 e4	 lea	 eax, DWORD PTR $T2[ebp]
  000be	50		 push	 eax
  000bf	8d 8b f0 04 00
	00		 lea	 ecx, DWORD PTR [ebx+1264]
  000c5	e8 00 00 00 00	 call	 ?GetItemText@CListCtrl@@QBE?AV?$CStringT@DV?$StrTraitMFC_DLL@DV?$ChTraitsCRT@D@ATL@@@@@ATL@@HH@Z ; CListCtrl::GetItemText
  000ca	50		 push	 eax
  000cb	8d 4d f0	 lea	 ecx, DWORD PTR _strCodeName$5[ebp]
  000ce	c6 45 fc 03	 mov	 BYTE PTR __$EHRec$[ebp+8], 3
  000d2	ff 15 00 00 00
	00		 call	 DWORD PTR __imp_??4?$CStringT@DV?$StrTraitMFC_DLL@DV?$ChTraitsCRT@D@ATL@@@@@ATL@@QAEAAV01@ABV01@@Z
  000d8	8d 4d e4	 lea	 ecx, DWORD PTR $T2[ebp]
  000db	c6 45 fc 01	 mov	 BYTE PTR __$EHRec$[ebp+8], 1
  000df	ff 15 00 00 00
	00		 call	 DWORD PTR __imp_??1?$CStringT@DV?$StrTraitMFC_DLL@DV?$ChTraitsCRT@D@ATL@@@@@ATL@@QAE@XZ
  000e5	8d 4d f0	 lea	 ecx, DWORD PTR _strCodeName$5[ebp]
  000e8	ff 15 00 00 00
	00		 call	 DWORD PTR __imp_?TrimLeft@?$CStringT@DV?$StrTraitMFC_DLL@DV?$ChTraitsCRT@D@ATL@@@@@ATL@@QAEAAV12@XZ
  000ee	8d 4d f0	 lea	 ecx, DWORD PTR _strCodeName$5[ebp]
  000f1	ff 15 00 00 00
	00		 call	 DWORD PTR __imp_?TrimRight@?$CStringT@DV?$StrTraitMFC_DLL@DV?$ChTraitsCRT@D@ATL@@@@@ATL@@QAEAAV12@XZ

; 482  : 		szCodeNameList.AddTail(strCodeName);

  000f7	8b 4d 0c	 mov	 ecx, DWORD PTR _szCodeNameList$[ebp]
  000fa	8d 45 f0	 lea	 eax, DWORD PTR _strCodeName$5[ebp]
  000fd	50		 push	 eax
  000fe	e8 00 00 00 00	 call	 ?AddTail@CStringList@@QAEPAU__POSITION@@ABV?$CStringT@DV?$StrTraitMFC_DLL@DV?$ChTraitsCRT@D@ATL@@@@@ATL@@@Z ; CStringList::AddTail

; 483  : 	}

  00103	8d 4d f0	 lea	 ecx, DWORD PTR _strCodeName$5[ebp]
  00106	ff 15 00 00 00
	00		 call	 DWORD PTR __imp_??1?$CStringT@DV?$StrTraitMFC_DLL@DV?$ChTraitsCRT@D@ATL@@@@@ATL@@QAE@XZ
  0010c	8d 4d ec	 lea	 ecx, DWORD PTR _strCode$4[ebp]
  0010f	c7 45 fc ff ff
	ff ff		 mov	 DWORD PTR __$EHRec$[ebp+8], -1
  00116	ff 15 00 00 00
	00		 call	 DWORD PTR __imp_??1?$CStringT@DV?$StrTraitMFC_DLL@DV?$ChTraitsCRT@D@ATL@@@@@ATL@@QAE@XZ
  0011c	47		 inc	 edi
  0011d	3b fe		 cmp	 edi, esi
  0011f	0f 8c 2b ff ff
	ff		 jl	 $LL4@GetRequest

; 484  : 	return nTot;

  00125	8b c6		 mov	 eax, esi
$LN3@GetRequest:

; 485  : }

  00127	8b 4d f4	 mov	 ecx, DWORD PTR __$EHRec$[ebp]
  0012a	64 89 0d 00 00
	00 00		 mov	 DWORD PTR fs:0, ecx
  00131	59		 pop	 ecx
  00132	5f		 pop	 edi
  00133	5e		 pop	 esi
  00134	5b		 pop	 ebx
  00135	8b e5		 mov	 esp, ebp
  00137	5d		 pop	 ebp
  00138	c2 08 00	 ret	 8
_TEXT	ENDS
;	COMDAT text$x
text$x	SEGMENT
__unwindfunclet$?GetRequestList@CUsrAddListDlg@@QAEHAAVCStringList@@0@Z$0:
  00000	8d 4d ec	 lea	 ecx, DWORD PTR _strCode$4[ebp]
  00003	ff 25 00 00 00
	00		 jmp	 DWORD PTR __imp_??1?$CStringT@DV?$StrTraitMFC_DLL@DV?$ChTraitsCRT@D@ATL@@@@@ATL@@QAE@XZ
__unwindfunclet$?GetRequestList@CUsrAddListDlg@@QAEHAAVCStringList@@0@Z$1:
  00009	8d 4d f0	 lea	 ecx, DWORD PTR _strCodeName$5[ebp]
  0000c	ff 25 00 00 00
	00		 jmp	 DWORD PTR __imp_??1?$CStringT@DV?$StrTraitMFC_DLL@DV?$ChTraitsCRT@D@ATL@@@@@ATL@@QAE@XZ
__unwindfunclet$?GetRequestList@CUsrAddListDlg@@QAEHAAVCStringList@@0@Z$2:
  00012	8d 4d e8	 lea	 ecx, DWORD PTR $T3[ebp]
  00015	ff 25 00 00 00
	00		 jmp	 DWORD PTR __imp_??1?$CStringT@DV?$StrTraitMFC_DLL@DV?$ChTraitsCRT@D@ATL@@@@@ATL@@QAE@XZ
__unwindfunclet$?GetRequestList@CUsrAddListDlg@@QAEHAAVCStringList@@0@Z$3:
  0001b	8d 4d e4	 lea	 ecx, DWORD PTR $T2[ebp]
  0001e	ff 25 00 00 00
	00		 jmp	 DWORD PTR __imp_??1?$CStringT@DV?$StrTraitMFC_DLL@DV?$ChTraitsCRT@D@ATL@@@@@ATL@@QAE@XZ
  00024	cc		 int	 3
  00025	cc		 int	 3
  00026	cc		 int	 3
  00027	cc		 int	 3
  00028	cc		 int	 3
__ehhandler$?GetRequestList@CUsrAddListDlg@@QAEHAAVCStringList@@0@Z:
  00029	90		 npad	 1
  0002a	90		 npad	 1
  0002b	8b 54 24 08	 mov	 edx, DWORD PTR [esp+8]
  0002f	8d 42 0c	 lea	 eax, DWORD PTR [edx+12]
  00032	8b 4a e0	 mov	 ecx, DWORD PTR [edx-32]
  00035	33 c8		 xor	 ecx, eax
  00037	e8 00 00 00 00	 call	 @__security_check_cookie@4
  0003c	b8 00 00 00 00	 mov	 eax, OFFSET __ehfuncinfo$?GetRequestList@CUsrAddListDlg@@QAEHAAVCStringList@@0@Z
  00041	e9 00 00 00 00	 jmp	 ___CxxFrameHandler3
text$x	ENDS
?GetRequestList@CUsrAddListDlg@@QAEHAAVCStringList@@0@Z ENDP ; CUsrAddListDlg::GetRequestList
; Function compile flags: /Ogtp
; File D:\git\src\IBK\IBK_DRFN\ProjSrc\SrcDrfn\Chart\comparechart\UsrAddListDlg.cpp
;	COMDAT ?GetMessageMap@CUsrAddListDlg@@MBEPBUAFX_MSGMAP@@XZ
_TEXT	SEGMENT
?GetMessageMap@CUsrAddListDlg@@MBEPBUAFX_MSGMAP@@XZ PROC ; CUsrAddListDlg::GetMessageMap, COMDAT
; _this$ = ecx

; 48   : BEGIN_MESSAGE_MAP(CUsrAddListDlg, CRscDlg)

  00000	b8 00 00 00 00	 mov	 eax, OFFSET ?messageMap@?1??GetThisMessageMap@CUsrAddListDlg@@KGPBUAFX_MSGMAP@@XZ@4U3@B
  00005	c3		 ret	 0
?GetMessageMap@CUsrAddListDlg@@MBEPBUAFX_MSGMAP@@XZ ENDP ; CUsrAddListDlg::GetMessageMap
_TEXT	ENDS
; Function compile flags: /Ogtp
; File D:\git\src\IBK\IBK_DRFN\ProjSrc\SrcDrfn\Chart\comparechart\UsrAddListDlg.cpp
;	COMDAT ?GetThisMessageMap@CUsrAddListDlg@@KGPBUAFX_MSGMAP@@XZ
_TEXT	SEGMENT
?GetThisMessageMap@CUsrAddListDlg@@KGPBUAFX_MSGMAP@@XZ PROC ; CUsrAddListDlg::GetThisMessageMap, COMDAT

; 49   : 	//{{AFX_MSG_MAP(CUsrAddListDlg)
; 50   : 	ON_BN_CLICKED(IDC_UALD_BTN_ADD, OnBtnAdd)
; 51   : 	ON_BN_CLICKED(IDC_UALD_BTN_DEL, OnBtnDel)
; 52   : 	ON_BN_CLICKED(IDC_UALD_BTN_INIT, OnBtnInit)
; 53   : 	ON_WM_SIZE()
; 54   : 	ON_WM_DESTROY()
; 55   : 	ON_WM_CTLCOLOR()
; 56   : 	ON_WM_PAINT()
; 57   : 	//}}AFX_MSG_MAP
; 58   : 	ON_REGISTERED_MESSAGE(WM_XLISTCTRL_CHECKBOX_CLICKED, OnRecvMsg_CheckBoxStates_From_XListCtrl) //2005. 07. 28 added by sy,nam			
; 59   : 	ON_REGISTERED_MESSAGE(WM_XLISTCTRL_DBCLICK, OnRecvMsg_DBClick_From_XListCtrl)
; 60   : END_MESSAGE_MAP()

  00000	b8 00 00 00 00	 mov	 eax, OFFSET ?messageMap@?1??GetThisMessageMap@CUsrAddListDlg@@KGPBUAFX_MSGMAP@@XZ@4U3@B
  00005	c3		 ret	 0
?GetThisMessageMap@CUsrAddListDlg@@KGPBUAFX_MSGMAP@@XZ ENDP ; CUsrAddListDlg::GetThisMessageMap
_TEXT	ENDS
; Function compile flags: /Ogtp
; File D:\git\src\IBK\IBK_DRFN\ProjSrc\SrcDrfn\Chart\comparechart\UsrAddListDlg.cpp
; File C:\Program Files (x86)\Microsoft Visual Studio\2019\Community\VC\Tools\MSVC\14.29.30133\atlmfc\include\afxwin2.inl
; File D:\git\src\IBK\IBK_DRFN\ProjSrc\SrcDrfn\Chart\comparechart\UsrAddListDlg.cpp
;	COMDAT ?OnRecvMsg_DBClick_From_XListCtrl@CUsrAddListDlg@@IAEJIJ@Z
_TEXT	SEGMENT
__$EHRec$ = -12						; size = 12
_szCode$ = 8						; size = 4
_wp$ = 8						; size = 4
_lp$ = 12						; size = 4
?OnRecvMsg_DBClick_From_XListCtrl@CUsrAddListDlg@@IAEJIJ@Z PROC ; CUsrAddListDlg::OnRecvMsg_DBClick_From_XListCtrl, COMDAT
; _this$ = ecx

; 460  : {

  00000	55		 push	 ebp
  00001	8b ec		 mov	 ebp, esp
  00003	6a ff		 push	 -1
  00005	68 00 00 00 00	 push	 __ehhandler$?OnRecvMsg_DBClick_From_XListCtrl@CUsrAddListDlg@@IAEJIJ@Z
  0000a	64 a1 00 00 00
	00		 mov	 eax, DWORD PTR fs:0
  00010	50		 push	 eax
  00011	56		 push	 esi
  00012	57		 push	 edi
  00013	a1 00 00 00 00	 mov	 eax, DWORD PTR ___security_cookie
  00018	33 c5		 xor	 eax, ebp
  0001a	50		 push	 eax
  0001b	8d 45 f4	 lea	 eax, DWORD PTR __$EHRec$[ebp]
  0001e	64 a3 00 00 00
	00		 mov	 DWORD PTR fs:0, eax
  00024	8b f1		 mov	 esi, ecx

; 461  : 	int nItem = (int)wp;
; 462  : 	int nSubItem = (int)lp;
; 463  : 
; 464  : 	CString szCode = m_listUsrAdd.GetItemText(nItem, 1);	// col 1 .

  00026	6a 01		 push	 1
  00028	ff 75 08	 push	 DWORD PTR _wp$[ebp]
  0002b	8d 45 08	 lea	 eax, DWORD PTR _szCode$[ebp]
  0002e	50		 push	 eax
  0002f	8d 8e f0 04 00
	00		 lea	 ecx, DWORD PTR [esi+1264]
  00035	e8 00 00 00 00	 call	 ?GetItemText@CListCtrl@@QBE?AV?$CStringT@DV?$StrTraitMFC_DLL@DV?$ChTraitsCRT@D@ATL@@@@@ATL@@HH@Z ; CListCtrl::GetItemText

; 465  : 
; 466  : 	if(szCode.GetLength()>0)

  0003a	8b 7d 08	 mov	 edi, DWORD PTR _szCode$[ebp]
  0003d	c7 45 fc 00 00
	00 00		 mov	 DWORD PTR __$EHRec$[ebp+8], 0
  00044	83 7f f4 00	 cmp	 DWORD PTR [edi-12], 0
  00048	7e 38		 jle	 SHORT $LN2@OnRecvMsg_
; File C:\Program Files (x86)\Microsoft Visual Studio\2019\Community\VC\Tools\MSVC\14.29.30133\atlmfc\include\afxwin2.inl

; 213  : 	{ ASSERT(::IsWindow(m_hWnd)); return CWnd::FromHandle(::GetParent(m_hWnd)); }

  0004a	ff 76 20	 push	 DWORD PTR [esi+32]
  0004d	8b 35 00 00 00
	00		 mov	 esi, DWORD PTR __imp__GetParent@4
  00053	ff d6		 call	 esi
  00055	50		 push	 eax
  00056	e8 00 00 00 00	 call	 ?FromHandle@CWnd@@SGPAV1@PAUHWND__@@@Z ; CWnd::FromHandle
  0005b	ff 70 20	 push	 DWORD PTR [eax+32]
  0005e	ff d6		 call	 esi
  00060	50		 push	 eax
  00061	e8 00 00 00 00	 call	 ?FromHandle@CWnd@@SGPAV1@PAUHWND__@@@Z ; CWnd::FromHandle
  00066	ff 70 20	 push	 DWORD PTR [eax+32]
  00069	ff d6		 call	 esi
  0006b	50		 push	 eax
  0006c	e8 00 00 00 00	 call	 ?FromHandle@CWnd@@SGPAV1@PAUHWND__@@@Z ; CWnd::FromHandle

; 32   : 	{ ASSERT(::IsWindow(m_hWnd)); return ::SendMessage(m_hWnd, message, wParam, lParam); }

  00071	57		 push	 edi
  00072	6a 00		 push	 0
  00074	68 6b 04 00 00	 push	 1131			; 0000046bH
  00079	ff 70 20	 push	 DWORD PTR [eax+32]
  0007c	ff 15 00 00 00
	00		 call	 DWORD PTR __imp__SendMessageA@16
$LN2@OnRecvMsg_:
; File D:\git\src\IBK\IBK_DRFN\ProjSrc\SrcDrfn\Chart\comparechart\UsrAddListDlg.cpp

; 469  : 	return 0L;

  00082	8d 4d 08	 lea	 ecx, DWORD PTR _szCode$[ebp]
  00085	ff 15 00 00 00
	00		 call	 DWORD PTR __imp_??1?$CStringT@DV?$StrTraitMFC_DLL@DV?$ChTraitsCRT@D@ATL@@@@@ATL@@QAE@XZ
  0008b	33 c0		 xor	 eax, eax

; 470  : }

  0008d	8b 4d f4	 mov	 ecx, DWORD PTR __$EHRec$[ebp]
  00090	64 89 0d 00 00
	00 00		 mov	 DWORD PTR fs:0, ecx
  00097	59		 pop	 ecx
  00098	5f		 pop	 edi
  00099	5e		 pop	 esi
  0009a	8b e5		 mov	 esp, ebp
  0009c	5d		 pop	 ebp
  0009d	c2 08 00	 ret	 8
_TEXT	ENDS
;	COMDAT text$x
text$x	SEGMENT
__unwindfunclet$?OnRecvMsg_DBClick_From_XListCtrl@CUsrAddListDlg@@IAEJIJ@Z$0:
  00000	8d 4d 08	 lea	 ecx, DWORD PTR _szCode$[ebp]
  00003	ff 25 00 00 00
	00		 jmp	 DWORD PTR __imp_??1?$CStringT@DV?$StrTraitMFC_DLL@DV?$ChTraitsCRT@D@ATL@@@@@ATL@@QAE@XZ
  00009	cc		 int	 3
  0000a	cc		 int	 3
  0000b	cc		 int	 3
  0000c	cc		 int	 3
  0000d	cc		 int	 3
__ehhandler$?OnRecvMsg_DBClick_From_XListCtrl@CUsrAddListDlg@@IAEJIJ@Z:
  0000e	90		 npad	 1
  0000f	90		 npad	 1
  00010	8b 54 24 08	 mov	 edx, DWORD PTR [esp+8]
  00014	8d 42 0c	 lea	 eax, DWORD PTR [edx+12]
  00017	8b 4a f4	 mov	 ecx, DWORD PTR [edx-12]
  0001a	33 c8		 xor	 ecx, eax
  0001c	e8 00 00 00 00	 call	 @__security_check_cookie@4
  00021	b8 00 00 00 00	 mov	 eax, OFFSET __ehfuncinfo$?OnRecvMsg_DBClick_From_XListCtrl@CUsrAddListDlg@@IAEJIJ@Z
  00026	e9 00 00 00 00	 jmp	 ___CxxFrameHandler3
text$x	ENDS
?OnRecvMsg_DBClick_From_XListCtrl@CUsrAddListDlg@@IAEJIJ@Z ENDP ; CUsrAddListDlg::OnRecvMsg_DBClick_From_XListCtrl
; Function compile flags: /Ogtp
; File D:\git\src\IBK\IBK_DRFN\ProjSrc\SrcDrfn\Chart\comparechart\UsrAddListDlg.cpp
; File C:\Program Files (x86)\Microsoft Visual Studio\2019\Community\VC\Tools\MSVC\14.29.30133\atlmfc\include\afxwin2.inl
; File D:\git\src\IBK\IBK_DRFN\ProjSrc\SrcDrfn\Chart\comparechart\UsrAddListDlg.cpp
; File C:\Program Files (x86)\Microsoft Visual Studio\2019\Community\VC\Tools\MSVC\14.29.30133\atlmfc\include\afxwin2.inl
; File D:\git\src\IBK\IBK_DRFN\ProjSrc\SrcDrfn\Chart\comparechart\UsrAddListDlg.cpp
;	COMDAT ?OnRecvMsg_CheckBoxStates_From_XListCtrl@CUsrAddListDlg@@IAEJIJ@Z
_TEXT	SEGMENT
$T2 = -24						; size = 4
_this$1$ = -20						; size = 4
$T3 = -16						; size = 4
$T4 = -16						; size = 4
$T5 = -16						; size = 4
__$EHRec$ = -12						; size = 12
_strCode$ = 8						; size = 4
_wp$ = 8						; size = 4
_strName$ = 12						; size = 4
_lp$ = 12						; size = 4
?OnRecvMsg_CheckBoxStates_From_XListCtrl@CUsrAddListDlg@@IAEJIJ@Z PROC ; CUsrAddListDlg::OnRecvMsg_CheckBoxStates_From_XListCtrl, COMDAT
; _this$ = ecx

; 431  : {		

  00000	55		 push	 ebp
  00001	8b ec		 mov	 ebp, esp
  00003	6a ff		 push	 -1
  00005	68 00 00 00 00	 push	 __ehhandler$?OnRecvMsg_CheckBoxStates_From_XListCtrl@CUsrAddListDlg@@IAEJIJ@Z
  0000a	64 a1 00 00 00
	00		 mov	 eax, DWORD PTR fs:0
  00010	50		 push	 eax
  00011	83 ec 0c	 sub	 esp, 12			; 0000000cH
  00014	53		 push	 ebx
  00015	56		 push	 esi
  00016	57		 push	 edi
  00017	a1 00 00 00 00	 mov	 eax, DWORD PTR ___security_cookie
  0001c	33 c5		 xor	 eax, ebp
  0001e	50		 push	 eax
  0001f	8d 45 f4	 lea	 eax, DWORD PTR __$EHRec$[ebp]
  00022	64 a3 00 00 00
	00		 mov	 DWORD PTR fs:0, eax
  00028	8b c1		 mov	 eax, ecx
  0002a	89 45 ec	 mov	 DWORD PTR _this$1$[ebp], eax

; 432  : 	int		nItem		= (int)wp;
; 433  : 	int		nSubItem	= (int)lp;
; 434  : 	BOOL	bIsHide		= FALSE;
; 435  : 	bIsHide = m_listUsrAdd.GetCheckbox(nItem, nSubItem) ? FALSE : TRUE;

  0002d	ff 75 0c	 push	 DWORD PTR _lp$[ebp]
  00030	8b 75 08	 mov	 esi, DWORD PTR _wp$[ebp]
  00033	8d b8 f0 04 00
	00		 lea	 edi, DWORD PTR [eax+1264]
  00039	56		 push	 esi
  0003a	8b cf		 mov	 ecx, edi
  0003c	e8 00 00 00 00	 call	 ?GetCheckbox@CXListCtrl@@QAEHHH@Z ; CXListCtrl::GetCheckbox
  00041	f7 d8		 neg	 eax

; 436  : 
; 437  : 	
; 438  : 	//2005. 09. 14=============================================================================
; 439  : 	CString strCode, strName;

  00043	8d 4d 08	 lea	 ecx, DWORD PTR _strCode$[ebp]
  00046	1b db		 sbb	 ebx, ebx
  00048	43		 inc	 ebx
  00049	ff 15 00 00 00
	00		 call	 DWORD PTR __imp_??0?$CStringT@DV?$StrTraitMFC_DLL@DV?$ChTraitsCRT@D@ATL@@@@@ATL@@QAE@XZ
  0004f	8d 4d 0c	 lea	 ecx, DWORD PTR _strName$[ebp]
  00052	c7 45 fc 00 00
	00 00		 mov	 DWORD PTR __$EHRec$[ebp+8], 0
  00059	ff 15 00 00 00
	00		 call	 DWORD PTR __imp_??0?$CStringT@DV?$StrTraitMFC_DLL@DV?$ChTraitsCRT@D@ATL@@@@@ATL@@QAE@XZ

; 440  : 	strName = m_listUsrAdd.GetItemText(nItem, 0);

  0005f	6a 00		 push	 0
  00061	56		 push	 esi
  00062	8d 45 f0	 lea	 eax, DWORD PTR $T5[ebp]
  00065	c6 45 fc 01	 mov	 BYTE PTR __$EHRec$[ebp+8], 1
  00069	50		 push	 eax
  0006a	8b cf		 mov	 ecx, edi
  0006c	e8 00 00 00 00	 call	 ?GetItemText@CListCtrl@@QBE?AV?$CStringT@DV?$StrTraitMFC_DLL@DV?$ChTraitsCRT@D@ATL@@@@@ATL@@HH@Z ; CListCtrl::GetItemText
  00071	50		 push	 eax
  00072	8d 4d 0c	 lea	 ecx, DWORD PTR _strName$[ebp]
  00075	c6 45 fc 02	 mov	 BYTE PTR __$EHRec$[ebp+8], 2
  00079	ff 15 00 00 00
	00		 call	 DWORD PTR __imp_??4?$CStringT@DV?$StrTraitMFC_DLL@DV?$ChTraitsCRT@D@ATL@@@@@ATL@@QAEAAV01@ABV01@@Z
  0007f	8d 4d f0	 lea	 ecx, DWORD PTR $T5[ebp]
  00082	c6 45 fc 01	 mov	 BYTE PTR __$EHRec$[ebp+8], 1
  00086	ff 15 00 00 00
	00		 call	 DWORD PTR __imp_??1?$CStringT@DV?$StrTraitMFC_DLL@DV?$ChTraitsCRT@D@ATL@@@@@ATL@@QAE@XZ

; 441  : 	strCode = m_listUsrAdd.GetItemText(nItem, 1);

  0008c	6a 01		 push	 1
  0008e	56		 push	 esi
  0008f	8d 45 f0	 lea	 eax, DWORD PTR $T4[ebp]
  00092	8b cf		 mov	 ecx, edi
  00094	50		 push	 eax
  00095	e8 00 00 00 00	 call	 ?GetItemText@CListCtrl@@QBE?AV?$CStringT@DV?$StrTraitMFC_DLL@DV?$ChTraitsCRT@D@ATL@@@@@ATL@@HH@Z ; CListCtrl::GetItemText
  0009a	50		 push	 eax
  0009b	8d 4d 08	 lea	 ecx, DWORD PTR _strCode$[ebp]
  0009e	c6 45 fc 03	 mov	 BYTE PTR __$EHRec$[ebp+8], 3
  000a2	ff 15 00 00 00
	00		 call	 DWORD PTR __imp_??4?$CStringT@DV?$StrTraitMFC_DLL@DV?$ChTraitsCRT@D@ATL@@@@@ATL@@QAEAAV01@ABV01@@Z
  000a8	8d 4d f0	 lea	 ecx, DWORD PTR $T4[ebp]
  000ab	c6 45 fc 01	 mov	 BYTE PTR __$EHRec$[ebp+8], 1
  000af	ff 15 00 00 00
	00		 call	 DWORD PTR __imp_??1?$CStringT@DV?$StrTraitMFC_DLL@DV?$ChTraitsCRT@D@ATL@@@@@ATL@@QAE@XZ

; 442  : 	
; 443  : 	//  SHOW/HIDE
; 444  : 	//     SHOW/HIDE
; 445  : 	//  /   
; 446  : 	// ,    
; 447  : 	// CChartItemData SetKorName(CString strName)    
; 448  : 	//    .
; 449  : 	strName.TrimLeft(); strName.TrimRight();

  000b5	8d 4d 0c	 lea	 ecx, DWORD PTR _strName$[ebp]
  000b8	ff 15 00 00 00
	00		 call	 DWORD PTR __imp_?TrimLeft@?$CStringT@DV?$StrTraitMFC_DLL@DV?$ChTraitsCRT@D@ATL@@@@@ATL@@QAEAAV12@XZ
  000be	8d 4d 0c	 lea	 ecx, DWORD PTR _strName$[ebp]
  000c1	ff 15 00 00 00
	00		 call	 DWORD PTR __imp_?TrimRight@?$CStringT@DV?$StrTraitMFC_DLL@DV?$ChTraitsCRT@D@ATL@@@@@ATL@@QAEAAV12@XZ

; 450  : 	strName.Replace(" ", "");

  000c7	68 00 00 00 00	 push	 OFFSET ??_C@_00CNPNBAHC@@
  000cc	68 00 00 00 00	 push	 OFFSET ??_C@_01CLKCMJKC@?5@
  000d1	8d 4d 0c	 lea	 ecx, DWORD PTR _strName$[ebp]
  000d4	ff 15 00 00 00
	00		 call	 DWORD PTR __imp_?Replace@?$CStringT@DV?$StrTraitMFC_DLL@DV?$ChTraitsCRT@D@ATL@@@@@ATL@@QAEHPBD0@Z

; 451  : 	strName.Replace(",", "");

  000da	68 00 00 00 00	 push	 OFFSET ??_C@_00CNPNBAHC@@
  000df	68 00 00 00 00	 push	 OFFSET ??_C@_01IHBHIGKO@?0@
  000e4	8d 4d 0c	 lea	 ecx, DWORD PTR _strName$[ebp]
  000e7	ff 15 00 00 00
	00		 call	 DWORD PTR __imp_?Replace@?$CStringT@DV?$StrTraitMFC_DLL@DV?$ChTraitsCRT@D@ATL@@@@@ATL@@QAEHPBD0@Z

; 452  : 	((CStdDialog*)(GetParent()->GetParent()))->SetGraphHide3(strCode, strName, bIsHide);

  000ed	53		 push	 ebx
  000ee	51		 push	 ecx
  000ef	8d 45 0c	 lea	 eax, DWORD PTR _strName$[ebp]
  000f2	89 65 f0	 mov	 DWORD PTR $T3[ebp], esp
  000f5	8b cc		 mov	 ecx, esp
  000f7	50		 push	 eax
  000f8	ff 15 00 00 00
	00		 call	 DWORD PTR __imp_??0?$CStringT@DV?$StrTraitMFC_DLL@DV?$ChTraitsCRT@D@ATL@@@@@ATL@@QAE@ABV01@@Z
  000fe	51		 push	 ecx
  000ff	8d 45 08	 lea	 eax, DWORD PTR _strCode$[ebp]
  00102	89 65 e8	 mov	 DWORD PTR $T2[ebp], esp
  00105	8b cc		 mov	 ecx, esp
  00107	c6 45 fc 04	 mov	 BYTE PTR __$EHRec$[ebp+8], 4
  0010b	50		 push	 eax
  0010c	ff 15 00 00 00
	00		 call	 DWORD PTR __imp_??0?$CStringT@DV?$StrTraitMFC_DLL@DV?$ChTraitsCRT@D@ATL@@@@@ATL@@QAE@ABV01@@Z
; File C:\Program Files (x86)\Microsoft Visual Studio\2019\Community\VC\Tools\MSVC\14.29.30133\atlmfc\include\afxwin2.inl

; 213  : 	{ ASSERT(::IsWindow(m_hWnd)); return CWnd::FromHandle(::GetParent(m_hWnd)); }

  00112	8b 45 ec	 mov	 eax, DWORD PTR _this$1$[ebp]
  00115	8b 35 00 00 00
	00		 mov	 esi, DWORD PTR __imp__GetParent@4
; File D:\git\src\IBK\IBK_DRFN\ProjSrc\SrcDrfn\Chart\comparechart\UsrAddListDlg.cpp

; 452  : 	((CStdDialog*)(GetParent()->GetParent()))->SetGraphHide3(strCode, strName, bIsHide);

  0011b	c6 45 fc 05	 mov	 BYTE PTR __$EHRec$[ebp+8], 5
; File C:\Program Files (x86)\Microsoft Visual Studio\2019\Community\VC\Tools\MSVC\14.29.30133\atlmfc\include\afxwin2.inl

; 213  : 	{ ASSERT(::IsWindow(m_hWnd)); return CWnd::FromHandle(::GetParent(m_hWnd)); }

  0011f	ff 70 20	 push	 DWORD PTR [eax+32]
  00122	ff d6		 call	 esi
  00124	50		 push	 eax
  00125	e8 00 00 00 00	 call	 ?FromHandle@CWnd@@SGPAV1@PAUHWND__@@@Z ; CWnd::FromHandle
  0012a	ff 70 20	 push	 DWORD PTR [eax+32]
  0012d	ff d6		 call	 esi
  0012f	50		 push	 eax
  00130	e8 00 00 00 00	 call	 ?FromHandle@CWnd@@SGPAV1@PAUHWND__@@@Z ; CWnd::FromHandle
; File D:\git\src\IBK\IBK_DRFN\ProjSrc\SrcDrfn\Chart\comparechart\UsrAddListDlg.cpp

; 452  : 	((CStdDialog*)(GetParent()->GetParent()))->SetGraphHide3(strCode, strName, bIsHide);

  00135	8b c8		 mov	 ecx, eax
  00137	c6 45 fc 01	 mov	 BYTE PTR __$EHRec$[ebp+8], 1
  0013b	e8 00 00 00 00	 call	 ?SetGraphHide3@CStdDialog@@QAEXV?$CStringT@DV?$StrTraitMFC_DLL@DV?$ChTraitsCRT@D@ATL@@@@@ATL@@0H@Z ; CStdDialog::SetGraphHide3

; 453  : 	//=========================================================================================
; 454  : 	
; 455  : 
; 456  : 	return 1;

  00140	8d 4d 0c	 lea	 ecx, DWORD PTR _strName$[ebp]
  00143	ff 15 00 00 00
	00		 call	 DWORD PTR __imp_??1?$CStringT@DV?$StrTraitMFC_DLL@DV?$ChTraitsCRT@D@ATL@@@@@ATL@@QAE@XZ
  00149	8d 4d 08	 lea	 ecx, DWORD PTR _strCode$[ebp]
  0014c	ff 15 00 00 00
	00		 call	 DWORD PTR __imp_??1?$CStringT@DV?$StrTraitMFC_DLL@DV?$ChTraitsCRT@D@ATL@@@@@ATL@@QAE@XZ
  00152	b8 01 00 00 00	 mov	 eax, 1

; 457  : }

  00157	8b 4d f4	 mov	 ecx, DWORD PTR __$EHRec$[ebp]
  0015a	64 89 0d 00 00
	00 00		 mov	 DWORD PTR fs:0, ecx
  00161	59		 pop	 ecx
  00162	5f		 pop	 edi
  00163	5e		 pop	 esi
  00164	5b		 pop	 ebx
  00165	8b e5		 mov	 esp, ebp
  00167	5d		 pop	 ebp
  00168	c2 08 00	 ret	 8
_TEXT	ENDS
;	COMDAT text$x
text$x	SEGMENT
__unwindfunclet$?OnRecvMsg_CheckBoxStates_From_XListCtrl@CUsrAddListDlg@@IAEJIJ@Z$0:
  00000	8d 4d 08	 lea	 ecx, DWORD PTR _strCode$[ebp]
  00003	ff 25 00 00 00
	00		 jmp	 DWORD PTR __imp_??1?$CStringT@DV?$StrTraitMFC_DLL@DV?$ChTraitsCRT@D@ATL@@@@@ATL@@QAE@XZ
__unwindfunclet$?OnRecvMsg_CheckBoxStates_From_XListCtrl@CUsrAddListDlg@@IAEJIJ@Z$1:
  00009	8d 4d 0c	 lea	 ecx, DWORD PTR _strName$[ebp]
  0000c	ff 25 00 00 00
	00		 jmp	 DWORD PTR __imp_??1?$CStringT@DV?$StrTraitMFC_DLL@DV?$ChTraitsCRT@D@ATL@@@@@ATL@@QAE@XZ
__unwindfunclet$?OnRecvMsg_CheckBoxStates_From_XListCtrl@CUsrAddListDlg@@IAEJIJ@Z$2:
  00012	8d 4d f0	 lea	 ecx, DWORD PTR $T5[ebp]
  00015	ff 25 00 00 00
	00		 jmp	 DWORD PTR __imp_??1?$CStringT@DV?$StrTraitMFC_DLL@DV?$ChTraitsCRT@D@ATL@@@@@ATL@@QAE@XZ
__unwindfunclet$?OnRecvMsg_CheckBoxStates_From_XListCtrl@CUsrAddListDlg@@IAEJIJ@Z$3:
  0001b	8d 4d f0	 lea	 ecx, DWORD PTR $T4[ebp]
  0001e	ff 25 00 00 00
	00		 jmp	 DWORD PTR __imp_??1?$CStringT@DV?$StrTraitMFC_DLL@DV?$ChTraitsCRT@D@ATL@@@@@ATL@@QAE@XZ
__unwindfunclet$?OnRecvMsg_CheckBoxStates_From_XListCtrl@CUsrAddListDlg@@IAEJIJ@Z$4:
  00024	8b 4d f0	 mov	 ecx, DWORD PTR $T3[ebp]
  00027	ff 25 00 00 00
	00		 jmp	 DWORD PTR __imp_??1?$CStringT@DV?$StrTraitMFC_DLL@DV?$ChTraitsCRT@D@ATL@@@@@ATL@@QAE@XZ
__unwindfunclet$?OnRecvMsg_CheckBoxStates_From_XListCtrl@CUsrAddListDlg@@IAEJIJ@Z$5:
  0002d	8b 4d e8	 mov	 ecx, DWORD PTR $T2[ebp]
  00030	ff 25 00 00 00
	00		 jmp	 DWORD PTR __imp_??1?$CStringT@DV?$StrTraitMFC_DLL@DV?$ChTraitsCRT@D@ATL@@@@@ATL@@QAE@XZ
  00036	cc		 int	 3
  00037	cc		 int	 3
  00038	cc		 int	 3
  00039	cc		 int	 3
  0003a	cc		 int	 3
__ehhandler$?OnRecvMsg_CheckBoxStates_From_XListCtrl@CUsrAddListDlg@@IAEJIJ@Z:
  0003b	90		 npad	 1
  0003c	90		 npad	 1
  0003d	8b 54 24 08	 mov	 edx, DWORD PTR [esp+8]
  00041	8d 42 0c	 lea	 eax, DWORD PTR [edx+12]
  00044	8b 4a e4	 mov	 ecx, DWORD PTR [edx-28]
  00047	33 c8		 xor	 ecx, eax
  00049	e8 00 00 00 00	 call	 @__security_check_cookie@4
  0004e	b8 00 00 00 00	 mov	 eax, OFFSET __ehfuncinfo$?OnRecvMsg_CheckBoxStates_From_XListCtrl@CUsrAddListDlg@@IAEJIJ@Z
  00053	e9 00 00 00 00	 jmp	 ___CxxFrameHandler3
text$x	ENDS
?OnRecvMsg_CheckBoxStates_From_XListCtrl@CUsrAddListDlg@@IAEJIJ@Z ENDP ; CUsrAddListDlg::OnRecvMsg_CheckBoxStates_From_XListCtrl
; Function compile flags: /Ogtp
; File D:\git\src\IBK\IBK_DRFN\ProjSrc\SrcDrfn\Chart\comparechart\UsrAddListDlg.cpp
; File C:\Program Files (x86)\Microsoft Visual Studio\2019\Community\VC\Tools\MSVC\14.29.30133\atlmfc\include\afxwin2.inl
; File D:\git\src\IBK\IBK_DRFN\ProjSrc\SrcDrfn\Chart\comparechart\UsrAddListDlg.cpp
; File C:\Program Files (x86)\Microsoft Visual Studio\2019\Community\VC\Tools\MSVC\14.29.30133\atlmfc\include\afxwin2.inl
; File C:\Program Files (x86)\Microsoft Visual Studio\2019\Community\VC\Tools\MSVC\14.29.30133\atlmfc\include\atltypes.h
; File C:\Program Files (x86)\Microsoft Visual Studio\2019\Community\VC\Tools\MSVC\14.29.30133\atlmfc\include\afxwin2.inl
; File D:\git\src\IBK\IBK_DRFN\ProjSrc\SrcDrfn\Chart\comparechart\UsrAddListDlg.cpp
;	COMDAT ?OnPaint@CUsrAddListDlg@@IAEXXZ
_TEXT	SEGMENT
_dc$ = -116						; size = 84
_rcClient$ = -32					; size = 16
__$ArrayPad$ = -16					; size = 4
__$EHRec$ = -12						; size = 12
?OnPaint@CUsrAddListDlg@@IAEXXZ PROC			; CUsrAddListDlg::OnPaint, COMDAT
; _this$ = ecx

; 523  : {

  00000	55		 push	 ebp
  00001	8b ec		 mov	 ebp, esp
  00003	6a ff		 push	 -1
  00005	68 00 00 00 00	 push	 __ehhandler$?OnPaint@CUsrAddListDlg@@IAEXXZ
  0000a	64 a1 00 00 00
	00		 mov	 eax, DWORD PTR fs:0
  00010	50		 push	 eax
  00011	83 ec 68	 sub	 esp, 104		; 00000068H
  00014	a1 00 00 00 00	 mov	 eax, DWORD PTR ___security_cookie
  00019	33 c5		 xor	 eax, ebp
  0001b	89 45 f0	 mov	 DWORD PTR __$ArrayPad$[ebp], eax
  0001e	56		 push	 esi
  0001f	50		 push	 eax
  00020	8d 45 f4	 lea	 eax, DWORD PTR __$EHRec$[ebp]
  00023	64 a3 00 00 00
	00		 mov	 DWORD PTR fs:0, eax
  00029	8b f1		 mov	 esi, ecx

; 524  : 	CPaintDC dc(this); // device context for painting

  0002b	56		 push	 esi
  0002c	8d 4d 8c	 lea	 ecx, DWORD PTR _dc$[ebp]
  0002f	e8 00 00 00 00	 call	 ??0CPaintDC@@QAE@PAVCWnd@@@Z ; CPaintDC::CPaintDC
; File C:\Program Files (x86)\Microsoft Visual Studio\2019\Community\VC\Tools\MSVC\14.29.30133\atlmfc\include\afxwin2.inl

; 86   : 	{ ASSERT(::IsWindow(m_hWnd)); ::GetClientRect(m_hWnd, lpRect); }

  00034	8d 45 e0	 lea	 eax, DWORD PTR _rcClient$[ebp]
; File D:\git\src\IBK\IBK_DRFN\ProjSrc\SrcDrfn\Chart\comparechart\UsrAddListDlg.cpp

; 524  : 	CPaintDC dc(this); // device context for painting

  00037	c7 45 fc 00 00
	00 00		 mov	 DWORD PTR __$EHRec$[ebp+8], 0
; File C:\Program Files (x86)\Microsoft Visual Studio\2019\Community\VC\Tools\MSVC\14.29.30133\atlmfc\include\afxwin2.inl

; 86   : 	{ ASSERT(::IsWindow(m_hWnd)); ::GetClientRect(m_hWnd, lpRect); }

  0003e	50		 push	 eax
  0003f	ff 76 20	 push	 DWORD PTR [esi+32]
  00042	0f 57 c0	 xorps	 xmm0, xmm0
; File C:\Program Files (x86)\Microsoft Visual Studio\2019\Community\VC\Tools\MSVC\14.29.30133\atlmfc\include\atltypes.h

; 528  : 	left = 0;

  00045	0f 11 45 e0	 movups	 XMMWORD PTR _rcClient$[ebp], xmm0
; File C:\Program Files (x86)\Microsoft Visual Studio\2019\Community\VC\Tools\MSVC\14.29.30133\atlmfc\include\afxwin2.inl

; 86   : 	{ ASSERT(::IsWindow(m_hWnd)); ::GetClientRect(m_hWnd, lpRect); }

  00049	ff 15 00 00 00
	00		 call	 DWORD PTR __imp__GetClientRect@8
; File D:\git\src\IBK\IBK_DRFN\ProjSrc\SrcDrfn\Chart\comparechart\UsrAddListDlg.cpp

; 528  : 	dc.FillSolidRect(&rcClient, m_clrBkgrnd);

  0004f	ff b6 b8 00 00
	00		 push	 DWORD PTR [esi+184]
  00055	8d 45 e0	 lea	 eax, DWORD PTR _rcClient$[ebp]
  00058	50		 push	 eax
  00059	8d 4d 8c	 lea	 ecx, DWORD PTR _dc$[ebp]
  0005c	e8 00 00 00 00	 call	 ?FillSolidRect@CDC@@QAEXPBUtagRECT@@K@Z ; CDC::FillSolidRect

; 529  : }

  00061	8d 4d 8c	 lea	 ecx, DWORD PTR _dc$[ebp]
  00064	e8 00 00 00 00	 call	 ??1CPaintDC@@UAE@XZ	; CPaintDC::~CPaintDC
  00069	8b 4d f4	 mov	 ecx, DWORD PTR __$EHRec$[ebp]
  0006c	64 89 0d 00 00
	00 00		 mov	 DWORD PTR fs:0, ecx
  00073	59		 pop	 ecx
  00074	5e		 pop	 esi
  00075	8b 4d f0	 mov	 ecx, DWORD PTR __$ArrayPad$[ebp]
  00078	33 cd		 xor	 ecx, ebp
  0007a	e8 00 00 00 00	 call	 @__security_check_cookie@4
  0007f	8b e5		 mov	 esp, ebp
  00081	5d		 pop	 ebp
  00082	c3		 ret	 0
_TEXT	ENDS
;	COMDAT text$x
text$x	SEGMENT
__unwindfunclet$?OnPaint@CUsrAddListDlg@@IAEXXZ$0:
  00000	8d 4d 8c	 lea	 ecx, DWORD PTR _dc$[ebp]
  00003	e9 00 00 00 00	 jmp	 ??1CPaintDC@@UAE@XZ	; CPaintDC::~CPaintDC
  00008	cc		 int	 3
  00009	cc		 int	 3
  0000a	cc		 int	 3
  0000b	cc		 int	 3
  0000c	cc		 int	 3
__ehhandler$?OnPaint@CUsrAddListDlg@@IAEXXZ:
  0000d	90		 npad	 1
  0000e	90		 npad	 1
  0000f	8b 54 24 08	 mov	 edx, DWORD PTR [esp+8]
  00013	8d 42 0c	 lea	 eax, DWORD PTR [edx+12]
  00016	8b 4a 90	 mov	 ecx, DWORD PTR [edx-112]
  00019	33 c8		 xor	 ecx, eax
  0001b	e8 00 00 00 00	 call	 @__security_check_cookie@4
  00020	8b 4a fc	 mov	 ecx, DWORD PTR [edx-4]
  00023	33 c8		 xor	 ecx, eax
  00025	e8 00 00 00 00	 call	 @__security_check_cookie@4
  0002a	b8 00 00 00 00	 mov	 eax, OFFSET __ehfuncinfo$?OnPaint@CUsrAddListDlg@@IAEXXZ
  0002f	e9 00 00 00 00	 jmp	 ___CxxFrameHandler3
text$x	ENDS
?OnPaint@CUsrAddListDlg@@IAEXXZ ENDP			; CUsrAddListDlg::OnPaint
; Function compile flags: /Ogtp
; File D:\git\src\IBK\IBK_DRFN\ProjSrc\SrcDrfn\Chart\comparechart\UsrAddListDlg.cpp
;	COMDAT ?OnDestroy@CUsrAddListDlg@@IAEXXZ
_TEXT	SEGMENT
?OnDestroy@CUsrAddListDlg@@IAEXXZ PROC			; CUsrAddListDlg::OnDestroy, COMDAT
; _this$ = ecx

; 338  : {

  00000	56		 push	 esi
  00001	8b f1		 mov	 esi, ecx

; 339  : 	CRscDlg::OnDestroy();

  00003	e8 00 00 00 00	 call	 ?OnDestroy@CRscDlg@@IAEXXZ ; CRscDlg::OnDestroy

; 340  : 	
; 341  : 	m_listUsrAdd.DeleteAllItems();

  00008	8d 8e f0 04 00
	00		 lea	 ecx, DWORD PTR [esi+1264]
  0000e	e8 00 00 00 00	 call	 ?DeleteAllItems@CXListCtrl@@QAEHXZ ; CXListCtrl::DeleteAllItems

; 342  : 	m_brBkColor.DeleteObject();

  00013	8d 8e a8 00 00
	00		 lea	 ecx, DWORD PTR [esi+168]
  00019	5e		 pop	 esi
  0001a	e9 00 00 00 00	 jmp	 ?DeleteObject@CGdiObject@@QAEHXZ ; CGdiObject::DeleteObject
?OnDestroy@CUsrAddListDlg@@IAEXXZ ENDP			; CUsrAddListDlg::OnDestroy
_TEXT	ENDS
; Function compile flags: /Ogtp
; File D:\git\src\IBK\IBK_DRFN\ProjSrc\SrcDrfn\Chart\comparechart\UsrAddListDlg.cpp
; File C:\Program Files (x86)\Microsoft Visual Studio\2019\Community\VC\Tools\MSVC\14.29.30133\atlmfc\include\afxwin2.inl
; File D:\git\src\IBK\IBK_DRFN\ProjSrc\SrcDrfn\Chart\comparechart\UsrAddListDlg.cpp
; File C:\Program Files (x86)\Microsoft Visual Studio\2019\Community\VC\Tools\MSVC\14.29.30133\atlmfc\include\afxwin2.inl
; File D:\git\src\IBK\IBK_DRFN\ProjSrc\SrcDrfn\Chart\comparechart\UsrAddListDlg.cpp
; File C:\Program Files (x86)\Microsoft Visual Studio\2019\Community\VC\Tools\MSVC\14.29.30133\atlmfc\include\atltypes.h
; File C:\Program Files (x86)\Microsoft Visual Studio\2019\Community\VC\Tools\MSVC\14.29.30133\atlmfc\include\afxwin2.inl
; File C:\Program Files (x86)\Microsoft Visual Studio\2019\Community\VC\Tools\MSVC\14.29.30133\atlmfc\include\atltypes.h
; File C:\Program Files (x86)\Microsoft Visual Studio\2019\Community\VC\Tools\MSVC\14.29.30133\atlmfc\include\afxwin2.inl
; File D:\git\src\IBK\IBK_DRFN\ProjSrc\SrcDrfn\Chart\comparechart\UsrAddListDlg.cpp
; File C:\Program Files (x86)\Microsoft Visual Studio\2019\Community\VC\Tools\MSVC\14.29.30133\atlmfc\include\afxwin2.inl
; File D:\git\src\IBK\IBK_DRFN\ProjSrc\SrcDrfn\Chart\comparechart\UsrAddListDlg.cpp
; File C:\Program Files (x86)\Microsoft Visual Studio\2019\Community\VC\Tools\MSVC\14.29.30133\atlmfc\include\afxwin2.inl
; File D:\git\src\IBK\IBK_DRFN\ProjSrc\SrcDrfn\Chart\comparechart\UsrAddListDlg.cpp
; File C:\Program Files (x86)\Microsoft Visual Studio\2019\Community\VC\Tools\MSVC\14.29.30133\atlmfc\include\afxwin2.inl
; File D:\git\src\IBK\IBK_DRFN\ProjSrc\SrcDrfn\Chart\comparechart\UsrAddListDlg.cpp
; File C:\Program Files (x86)\Microsoft Visual Studio\2019\Community\VC\Tools\MSVC\14.29.30133\atlmfc\include\afxwin2.inl
; File D:\git\src\IBK\IBK_DRFN\ProjSrc\SrcDrfn\Chart\comparechart\UsrAddListDlg.cpp
; File C:\Program Files (x86)\Microsoft Visual Studio\2019\Community\VC\Tools\MSVC\14.29.30133\atlmfc\include\afxwin2.inl
; File D:\git\src\IBK\IBK_DRFN\ProjSrc\SrcDrfn\Chart\comparechart\UsrAddListDlg.cpp
; File C:\Program Files (x86)\Microsoft Visual Studio\2019\Community\VC\Tools\MSVC\14.29.30133\atlmfc\include\afxwin2.inl
; File D:\git\src\IBK\IBK_DRFN\ProjSrc\SrcDrfn\Chart\comparechart\UsrAddListDlg.cpp
;	COMDAT ?OnSize@CUsrAddListDlg@@IAEXIHH@Z
_TEXT	SEGMENT
_rect$1 = -36						; size = 16
_listRect$2 = -20					; size = 16
__$ArrayPad$ = -4					; size = 4
_nType$ = 8						; size = 4
_cx$ = 12						; size = 4
_cy$ = 16						; size = 4
?OnSize@CUsrAddListDlg@@IAEXIHH@Z PROC			; CUsrAddListDlg::OnSize, COMDAT
; _this$ = ecx

; 320  : {

  00000	55		 push	 ebp
  00001	8b ec		 mov	 ebp, esp
  00003	83 ec 24	 sub	 esp, 36			; 00000024H
  00006	a1 00 00 00 00	 mov	 eax, DWORD PTR ___security_cookie
  0000b	33 c5		 xor	 eax, ebp
  0000d	89 45 fc	 mov	 DWORD PTR __$ArrayPad$[ebp], eax
  00010	53		 push	 ebx
  00011	56		 push	 esi
  00012	8b f1		 mov	 esi, ecx
; File C:\Program Files (x86)\Microsoft Visual Studio\2019\Community\VC\Tools\MSVC\14.29.30133\atlmfc\include\afxwin2.inl

; 330  : 	{ Default(); }

  00014	e8 00 00 00 00	 call	 ?Default@CWnd@@IAEJXZ	; CWnd::Default
; File D:\git\src\IBK\IBK_DRFN\ProjSrc\SrcDrfn\Chart\comparechart\UsrAddListDlg.cpp

; 322  : 	if(m_listUsrAdd.GetSafeHwnd())

  00019	8d 9e f0 04 00
	00		 lea	 ebx, DWORD PTR [esi+1264]
; File C:\Program Files (x86)\Microsoft Visual Studio\2019\Community\VC\Tools\MSVC\14.29.30133\atlmfc\include\afxwin2.inl

; 25   : 	{ return this == NULL ? NULL : m_hWnd; }

  0001f	85 db		 test	 ebx, ebx
  00021	74 65		 je	 SHORT $LN2@OnSize
; File D:\git\src\IBK\IBK_DRFN\ProjSrc\SrcDrfn\Chart\comparechart\UsrAddListDlg.cpp

; 322  : 	if(m_listUsrAdd.GetSafeHwnd())

  00023	83 7b 20 00	 cmp	 DWORD PTR [ebx+32], 0
  00027	74 5f		 je	 SHORT $LN2@OnSize
; File C:\Program Files (x86)\Microsoft Visual Studio\2019\Community\VC\Tools\MSVC\14.29.30133\atlmfc\include\atltypes.h

; 528  : 	left = 0;

  00029	57		 push	 edi
; File C:\Program Files (x86)\Microsoft Visual Studio\2019\Community\VC\Tools\MSVC\14.29.30133\atlmfc\include\afxwin2.inl

; 86   : 	{ ASSERT(::IsWindow(m_hWnd)); ::GetClientRect(m_hWnd, lpRect); }

  0002a	8d 45 dc	 lea	 eax, DWORD PTR _rect$1[ebp]
  0002d	0f 57 c0	 xorps	 xmm0, xmm0
  00030	50		 push	 eax
  00031	ff 76 20	 push	 DWORD PTR [esi+32]
; File C:\Program Files (x86)\Microsoft Visual Studio\2019\Community\VC\Tools\MSVC\14.29.30133\atlmfc\include\atltypes.h

; 528  : 	left = 0;

  00034	0f 11 45 dc	 movups	 XMMWORD PTR _rect$1[ebp], xmm0
  00038	0f 11 45 ec	 movups	 XMMWORD PTR _listRect$2[ebp], xmm0
; File C:\Program Files (x86)\Microsoft Visual Studio\2019\Community\VC\Tools\MSVC\14.29.30133\atlmfc\include\afxwin2.inl

; 86   : 	{ ASSERT(::IsWindow(m_hWnd)); ::GetClientRect(m_hWnd, lpRect); }

  0003c	ff 15 00 00 00
	00		 call	 DWORD PTR __imp__GetClientRect@8

; 84   : 	{ ASSERT(::IsWindow(m_hWnd)); ::GetWindowRect(m_hWnd, lpRect); }

  00042	8d 45 ec	 lea	 eax, DWORD PTR _listRect$2[ebp]
  00045	50		 push	 eax
  00046	ff b6 10 05 00
	00		 push	 DWORD PTR [esi+1296]
  0004c	ff 15 00 00 00
	00		 call	 DWORD PTR __imp__GetWindowRect@8
; File D:\git\src\IBK\IBK_DRFN\ProjSrc\SrcDrfn\Chart\comparechart\UsrAddListDlg.cpp

; 327  : 		ScreenToClient(listRect);

  00052	8d 45 ec	 lea	 eax, DWORD PTR _listRect$2[ebp]
  00055	8b ce		 mov	 ecx, esi
  00057	50		 push	 eax
  00058	e8 00 00 00 00	 call	 ?ScreenToClient@CWnd@@QBEXPAUtagRECT@@@Z ; CWnd::ScreenToClient

; 332  : 		listRect.bottom = rect.bottom - 3; 

  0005d	8b 45 e8	 mov	 eax, DWORD PTR _rect$1[ebp+12]
; File C:\Program Files (x86)\Microsoft Visual Studio\2019\Community\VC\Tools\MSVC\14.29.30133\atlmfc\include\afxwin2.inl

; 73   : 	{ MoveWindow(lpRect->left, lpRect->top, lpRect->right - lpRect->left,

  00060	8b cb		 mov	 ecx, ebx
; File D:\git\src\IBK\IBK_DRFN\ProjSrc\SrcDrfn\Chart\comparechart\UsrAddListDlg.cpp

; 328  : 		listRect.left = rect.left + 1;

  00062	8b 7d dc	 mov	 edi, DWORD PTR _rect$1[ebp]

; 332  : 		listRect.bottom = rect.bottom - 3; 

  00065	83 c0 fd	 add	 eax, -3			; fffffffdH
; File C:\Program Files (x86)\Microsoft Visual Studio\2019\Community\VC\Tools\MSVC\14.29.30133\atlmfc\include\afxwin2.inl

; 73   : 	{ MoveWindow(lpRect->left, lpRect->top, lpRect->right - lpRect->left,

  00068	8b 55 f0	 mov	 edx, DWORD PTR _listRect$2[ebp+4]
; File D:\git\src\IBK\IBK_DRFN\ProjSrc\SrcDrfn\Chart\comparechart\UsrAddListDlg.cpp

; 328  : 		listRect.left = rect.left + 1;

  0006b	47		 inc	 edi

; 330  : 		listRect.right = rect.right;

  0006c	8b 75 e4	 mov	 esi, DWORD PTR _rect$1[ebp+8]
; File C:\Program Files (x86)\Microsoft Visual Studio\2019\Community\VC\Tools\MSVC\14.29.30133\atlmfc\include\afxwin2.inl

; 73   : 	{ MoveWindow(lpRect->left, lpRect->top, lpRect->right - lpRect->left,

  0006f	6a 01		 push	 1
; File D:\git\src\IBK\IBK_DRFN\ProjSrc\SrcDrfn\Chart\comparechart\UsrAddListDlg.cpp

; 332  : 		listRect.bottom = rect.bottom - 3; 

  00071	89 45 f8	 mov	 DWORD PTR _listRect$2[ebp+12], eax
; File C:\Program Files (x86)\Microsoft Visual Studio\2019\Community\VC\Tools\MSVC\14.29.30133\atlmfc\include\afxwin2.inl

; 73   : 	{ MoveWindow(lpRect->left, lpRect->top, lpRect->right - lpRect->left,

  00074	2b c2		 sub	 eax, edx
  00076	50		 push	 eax
; File D:\git\src\IBK\IBK_DRFN\ProjSrc\SrcDrfn\Chart\comparechart\UsrAddListDlg.cpp

; 330  : 		listRect.right = rect.right;

  00077	89 75 f4	 mov	 DWORD PTR _listRect$2[ebp+8], esi
; File C:\Program Files (x86)\Microsoft Visual Studio\2019\Community\VC\Tools\MSVC\14.29.30133\atlmfc\include\afxwin2.inl

; 73   : 	{ MoveWindow(lpRect->left, lpRect->top, lpRect->right - lpRect->left,

  0007a	2b f7		 sub	 esi, edi
  0007c	56		 push	 esi
  0007d	52		 push	 edx
  0007e	57		 push	 edi
; File D:\git\src\IBK\IBK_DRFN\ProjSrc\SrcDrfn\Chart\comparechart\UsrAddListDlg.cpp

; 328  : 		listRect.left = rect.left + 1;

  0007f	89 7d ec	 mov	 DWORD PTR _listRect$2[ebp], edi
; File C:\Program Files (x86)\Microsoft Visual Studio\2019\Community\VC\Tools\MSVC\14.29.30133\atlmfc\include\afxwin2.inl

; 73   : 	{ MoveWindow(lpRect->left, lpRect->top, lpRect->right - lpRect->left,

  00082	e8 00 00 00 00	 call	 ?MoveWindow@CWnd@@QAEXHHHHH@Z ; CWnd::MoveWindow
  00087	5f		 pop	 edi
$LN2@OnSize:
; File D:\git\src\IBK\IBK_DRFN\ProjSrc\SrcDrfn\Chart\comparechart\UsrAddListDlg.cpp

; 335  : }

  00088	8b 4d fc	 mov	 ecx, DWORD PTR __$ArrayPad$[ebp]
  0008b	5e		 pop	 esi
  0008c	33 cd		 xor	 ecx, ebp
  0008e	5b		 pop	 ebx
  0008f	e8 00 00 00 00	 call	 @__security_check_cookie@4
  00094	8b e5		 mov	 esp, ebp
  00096	5d		 pop	 ebp
  00097	c2 0c 00	 ret	 12			; 0000000cH
?OnSize@CUsrAddListDlg@@IAEXIHH@Z ENDP			; CUsrAddListDlg::OnSize
_TEXT	ENDS
; Function compile flags: /Ogtp
; File D:\git\src\IBK\IBK_DRFN\ProjSrc\SrcDrfn\Chart\comparechart\UsrAddListDlg.cpp
;	COMDAT ?OnBtnInit@CUsrAddListDlg@@IAEXXZ
_TEXT	SEGMENT
?OnBtnInit@CUsrAddListDlg@@IAEXXZ PROC			; CUsrAddListDlg::OnBtnInit, COMDAT
; _this$ = ecx

; 78   : 	m_listUsrAdd.Init_CompareChart();

  00000	81 c1 f0 04 00
	00		 add	 ecx, 1264		; 000004f0H
  00006	e9 00 00 00 00	 jmp	 ?Init_CompareChart@CNsyButtonListCtrl@@QAEXXZ ; CNsyButtonListCtrl::Init_CompareChart
?OnBtnInit@CUsrAddListDlg@@IAEXXZ ENDP			; CUsrAddListDlg::OnBtnInit
_TEXT	ENDS
; Function compile flags: /Ogtp
; File D:\git\src\IBK\IBK_DRFN\ProjSrc\SrcDrfn\Chart\comparechart\UsrAddListDlg.cpp
;	COMDAT ?OnBtnDel@CUsrAddListDlg@@IAEXXZ
_TEXT	SEGMENT
?OnBtnDel@CUsrAddListDlg@@IAEXXZ PROC			; CUsrAddListDlg::OnBtnDel, COMDAT
; _this$ = ecx

; 72   : 	// TODO: Add your control notification handler code here
; 73   : 	m_listUsrAdd.DeleteOneItem();

  00000	81 c1 f0 04 00
	00		 add	 ecx, 1264		; 000004f0H
  00006	e9 00 00 00 00	 jmp	 ?DeleteOneItem@CNsyButtonListCtrl@@QAEXXZ ; CNsyButtonListCtrl::DeleteOneItem
?OnBtnDel@CUsrAddListDlg@@IAEXXZ ENDP			; CUsrAddListDlg::OnBtnDel
_TEXT	ENDS
; Function compile flags: /Ogtp
; File D:\git\src\IBK\IBK_DRFN\ProjSrc\SrcDrfn\Chart\comparechart\UsrAddListDlg.cpp
; File C:\Program Files (x86)\Microsoft Visual Studio\2019\Community\VC\Tools\MSVC\14.29.30133\atlmfc\include\afxwin2.inl
; File D:\git\src\IBK\IBK_DRFN\ProjSrc\SrcDrfn\Chart\comparechart\UsrAddListDlg.cpp
;	COMDAT ?OnBtnAdd@CUsrAddListDlg@@IAEXXZ
_TEXT	SEGMENT
?OnBtnAdd@CUsrAddListDlg@@IAEXXZ PROC			; CUsrAddListDlg::OnBtnAdd, COMDAT
; _this$ = ecx
; File C:\Program Files (x86)\Microsoft Visual Studio\2019\Community\VC\Tools\MSVC\14.29.30133\atlmfc\include\afxwin2.inl

; 213  : 	{ ASSERT(::IsWindow(m_hWnd)); return CWnd::FromHandle(::GetParent(m_hWnd)); }

  00000	ff 71 20	 push	 DWORD PTR [ecx+32]
  00003	ff 15 00 00 00
	00		 call	 DWORD PTR __imp__GetParent@4
  00009	50		 push	 eax
  0000a	e8 00 00 00 00	 call	 ?FromHandle@CWnd@@SGPAV1@PAUHWND__@@@Z ; CWnd::FromHandle

; 32   : 	{ ASSERT(::IsWindow(m_hWnd)); return ::SendMessage(m_hWnd, message, wParam, lParam); }

  0000f	6a 00		 push	 0
  00011	6a 00		 push	 0
  00013	68 58 04 00 00	 push	 1112			; 00000458H
  00018	ff 70 20	 push	 DWORD PTR [eax+32]
  0001b	ff 15 00 00 00
	00		 call	 DWORD PTR __imp__SendMessageA@16
; File D:\git\src\IBK\IBK_DRFN\ProjSrc\SrcDrfn\Chart\comparechart\UsrAddListDlg.cpp

; 68   : }

  00021	c3		 ret	 0
?OnBtnAdd@CUsrAddListDlg@@IAEXXZ ENDP			; CUsrAddListDlg::OnBtnAdd
_TEXT	ENDS
; Function compile flags: /Ogtp
; File D:\git\src\IBK\IBK_DRFN\ProjSrc\SrcDrfn\Chart\comparechart\UsrAddListDlg.cpp
; File C:\Program Files (x86)\Microsoft Visual Studio\2019\Community\VC\Tools\MSVC\14.29.30133\atlmfc\include\atlsimpstr.h
; File D:\git\src\IBK\IBK_DRFN\ProjSrc\SrcDrfn\Chart\comparechart\UsrAddListDlg.cpp
; File D:\git\src\IBK\IBK_DRFN\ProjSrc\SrcDrfn\inc\IBaseDefine.h
; File D:\git\src\IBK\IBK_DRFN\ProjSrc\SrcDrfn\Chart\comparechart\UsrAddListDlg.cpp
; File C:\Program Files (x86)\Microsoft Visual Studio\2019\Community\VC\Tools\MSVC\14.29.30133\atlmfc\include\afxcmn.inl
; File D:\git\src\IBK\IBK_DRFN\ProjSrc\SrcDrfn\Chart\comparechart\UsrAddListDlg.cpp
; File C:\Program Files (x86)\Microsoft Visual Studio\2019\Community\VC\Tools\MSVC\14.29.30133\atlmfc\include\afxcmn.inl
; File D:\git\src\IBK\IBK_DRFN\ProjSrc\SrcDrfn\Chart\comparechart\UsrAddListDlg.cpp
; File C:\Program Files (x86)\Microsoft Visual Studio\2019\Community\VC\Tools\MSVC\14.29.30133\atlmfc\include\afxwin2.inl
; File D:\git\src\IBK\IBK_DRFN\ProjSrc\SrcDrfn\Chart\comparechart\UsrAddListDlg.cpp
; File C:\Program Files (x86)\Microsoft Visual Studio\2019\Community\VC\Tools\MSVC\14.29.30133\atlmfc\include\afxcmn.inl
; File D:\git\src\IBK\IBK_DRFN\ProjSrc\SrcDrfn\Chart\comparechart\UsrAddListDlg.cpp
; File C:\Program Files (x86)\Microsoft Visual Studio\2019\Community\VC\Tools\MSVC\14.29.30133\atlmfc\include\afxcmn.inl
; File D:\git\src\IBK\IBK_DRFN\ProjSrc\SrcDrfn\Chart\comparechart\UsrAddListDlg.cpp
; File C:\Program Files (x86)\Microsoft Visual Studio\2019\Community\VC\Tools\MSVC\14.29.30133\atlmfc\include\afxcmn.inl
; File D:\git\src\IBK\IBK_DRFN\ProjSrc\SrcDrfn\Chart\comparechart\UsrAddListDlg.cpp
; File C:\Program Files (x86)\Microsoft Visual Studio\2019\Community\VC\Tools\MSVC\14.29.30133\atlmfc\include\atlsimpstr.h
; File D:\git\src\IBK\IBK_DRFN\ProjSrc\SrcDrfn\Chart\comparechart\UsrAddListDlg.cpp
;	COMDAT ?WindowProc@CUsrAddListDlg@@MAEJIIJ@Z
_TEXT	SEGMENT
_nTot$1$ = -56						; size = 4
$T2 = -56						; size = 4
$T3 = -52						; size = 4
$T4 = -52						; size = 4
$T5 = -52						; size = 4
_sTemp$ = -48						; size = 4
_lParam$GSCopy$1$ = -44					; size = 4
_nTot$1$ = -40						; size = 4
_hMainWnd$6 = -40					; size = 4
$T7 = -40						; size = 4
$T8 = -40						; size = 4
tv582 = -36						; size = 4
_strCodeName$9 = -36					; size = 4
_szClipFormat$10 = -36					; size = 4
_this$GSCopy$1$ = -32					; size = 4
_strCode$11 = -32					; size = 4
_strCode$12 = -32					; size = 4
_strCode$13 = -32					; size = 4
_strRet$14 = -32					; size = 4
_aBufWnd$15 = -28					; size = 9
__$ArrayPad$ = -16					; size = 4
__$EHRec$ = -12						; size = 12
_message$ = 8						; size = 4
_wParam$ = 12						; size = 4
_lParam$ = 16						; size = 4
?WindowProc@CUsrAddListDlg@@MAEJIIJ@Z PROC		; CUsrAddListDlg::WindowProc, COMDAT
; _this$ = ecx

; 161  : {

  00000	55		 push	 ebp
  00001	8b ec		 mov	 ebp, esp
  00003	6a ff		 push	 -1
  00005	68 00 00 00 00	 push	 __ehhandler$?WindowProc@CUsrAddListDlg@@MAEJIIJ@Z
  0000a	64 a1 00 00 00
	00		 mov	 eax, DWORD PTR fs:0
  00010	50		 push	 eax
  00011	83 ec 2c	 sub	 esp, 44			; 0000002cH
  00014	a1 00 00 00 00	 mov	 eax, DWORD PTR ___security_cookie
  00019	33 c5		 xor	 eax, ebp
  0001b	89 45 f0	 mov	 DWORD PTR __$ArrayPad$[ebp], eax
  0001e	53		 push	 ebx
  0001f	56		 push	 esi
  00020	57		 push	 edi
  00021	50		 push	 eax
  00022	8d 45 f4	 lea	 eax, DWORD PTR __$EHRec$[ebp]
  00025	64 a3 00 00 00
	00		 mov	 DWORD PTR fs:0, eax
  0002b	8b f9		 mov	 edi, ecx
  0002d	89 7d e0	 mov	 DWORD PTR _this$GSCopy$1$[ebp], edi
  00030	8b 5d 10	 mov	 ebx, DWORD PTR _lParam$[ebp]

; 162  : 	// TODO: Add your specialized code here and/or call the base class
; 163  : 	CString sTemp;

  00033	8d 4d d0	 lea	 ecx, DWORD PTR _sTemp$[ebp]
  00036	89 5d d4	 mov	 DWORD PTR _lParam$GSCopy$1$[ebp], ebx
  00039	ff 15 00 00 00
	00		 call	 DWORD PTR __imp_??0?$CStringT@DV?$StrTraitMFC_DLL@DV?$ChTraitsCRT@D@ATL@@@@@ATL@@QAE@XZ

; 164  : 	int nPos = 0;
; 165  : 	switch(message)

  0003f	8b 45 08	 mov	 eax, DWORD PTR _message$[ebp]
  00042	8b 0d 00 00 00
	00		 mov	 ecx, DWORD PTR __imp__SendMessageA@16
  00048	05 a7 fb ff ff	 add	 eax, -1113		; fffffba7H
  0004d	c7 45 fc 00 00
	00 00		 mov	 DWORD PTR __$EHRec$[ebp+8], 0
  00054	83 f8 48	 cmp	 eax, 72			; 00000048H
  00057	0f 87 10 04 00
	00		 ja	 $LN69@WindowProc
  0005d	0f b6 80 00 00
	00 00		 movzx	 eax, BYTE PTR $LN102@WindowProc[eax]
  00064	ff 24 85 00 00
	00 00		 jmp	 DWORD PTR $LN103@WindowProc[eax*4]
$LN4@WindowProc:

; 166  : 	{
; 167  : 		case UMSG_ADDITEM:			
; 168  : 			sTemp = *((CString*)lParam);	// lparam  CString  .

  0006b	53		 push	 ebx
  0006c	8d 4d d0	 lea	 ecx, DWORD PTR _sTemp$[ebp]
  0006f	ff 15 00 00 00
	00		 call	 DWORD PTR __imp_??4?$CStringT@DV?$StrTraitMFC_DLL@DV?$ChTraitsCRT@D@ATL@@@@@ATL@@QAEAAV01@ABV01@@Z

; 169  : 			nPos = sTemp.Find('|', 0);

  00075	6a 00		 push	 0
  00077	6a 7c		 push	 124			; 0000007cH
  00079	8d 4d d0	 lea	 ecx, DWORD PTR _sTemp$[ebp]
  0007c	ff 15 00 00 00
	00		 call	 DWORD PTR __imp_?Find@?$CStringT@DV?$StrTraitMFC_DLL@DV?$ChTraitsCRT@D@ATL@@@@@ATL@@QBEHDH@Z
  00082	8b f0		 mov	 esi, eax

; 170  : 			m_strOpCodeName = sTemp.Left(nPos); m_strOpCodeName.TrimLeft(); m_strOpCodeName.TrimRight();

  00084	8d 4d d0	 lea	 ecx, DWORD PTR _sTemp$[ebp]
  00087	56		 push	 esi
  00088	8d 45 d8	 lea	 eax, DWORD PTR $T8[ebp]
  0008b	50		 push	 eax
  0008c	ff 15 00 00 00
	00		 call	 DWORD PTR __imp_?Left@?$CStringT@DV?$StrTraitMFC_DLL@DV?$ChTraitsCRT@D@ATL@@@@@ATL@@QBE?AV12@H@Z
  00092	8d 9f cc 00 00
	00		 lea	 ebx, DWORD PTR [edi+204]
  00098	c6 45 fc 01	 mov	 BYTE PTR __$EHRec$[ebp+8], 1
  0009c	50		 push	 eax
  0009d	8b cb		 mov	 ecx, ebx
  0009f	ff 15 00 00 00
	00		 call	 DWORD PTR __imp_??4?$CStringT@DV?$StrTraitMFC_DLL@DV?$ChTraitsCRT@D@ATL@@@@@ATL@@QAEAAV01@ABV01@@Z
  000a5	8d 4d d8	 lea	 ecx, DWORD PTR $T8[ebp]
  000a8	c6 45 fc 00	 mov	 BYTE PTR __$EHRec$[ebp+8], 0
  000ac	ff 15 00 00 00
	00		 call	 DWORD PTR __imp_??1?$CStringT@DV?$StrTraitMFC_DLL@DV?$ChTraitsCRT@D@ATL@@@@@ATL@@QAE@XZ
  000b2	8b cb		 mov	 ecx, ebx
  000b4	ff 15 00 00 00
	00		 call	 DWORD PTR __imp_?TrimLeft@?$CStringT@DV?$StrTraitMFC_DLL@DV?$ChTraitsCRT@D@ATL@@@@@ATL@@QAEAAV12@XZ
  000ba	8b cb		 mov	 ecx, ebx
  000bc	ff 15 00 00 00
	00		 call	 DWORD PTR __imp_?TrimRight@?$CStringT@DV?$StrTraitMFC_DLL@DV?$ChTraitsCRT@D@ATL@@@@@ATL@@QAEAAV12@XZ

; 171  : 			m_strOpCodeName.Replace(_T("&"), _T("&&"));

  000c2	68 00 00 00 00	 push	 OFFSET ??_C@_02PPKAJPJL@?$CG?$CG@
  000c7	68 00 00 00 00	 push	 OFFSET ??_C@_01HNPIGOCE@?$CG@
  000cc	8b cb		 mov	 ecx, ebx
  000ce	ff 15 00 00 00
	00		 call	 DWORD PTR __imp_?Replace@?$CStringT@DV?$StrTraitMFC_DLL@DV?$ChTraitsCRT@D@ATL@@@@@ATL@@QAEHPBD0@Z

; 172  : 			m_strOpCode = sTemp.Mid(nPos+1);	m_strOpCode.TrimLeft(); m_strOpCode.TrimRight();

  000d4	8d 46 01	 lea	 eax, DWORD PTR [esi+1]
  000d7	50		 push	 eax
  000d8	8d 45 d8	 lea	 eax, DWORD PTR $T7[ebp]
  000db	50		 push	 eax
  000dc	8d 4d d0	 lea	 ecx, DWORD PTR _sTemp$[ebp]
  000df	ff 15 00 00 00
	00		 call	 DWORD PTR __imp_?Mid@?$CStringT@DV?$StrTraitMFC_DLL@DV?$ChTraitsCRT@D@ATL@@@@@ATL@@QBE?AV12@H@Z
  000e5	8d b7 c8 00 00
	00		 lea	 esi, DWORD PTR [edi+200]
  000eb	c6 45 fc 02	 mov	 BYTE PTR __$EHRec$[ebp+8], 2
  000ef	50		 push	 eax
  000f0	8b ce		 mov	 ecx, esi
  000f2	ff 15 00 00 00
	00		 call	 DWORD PTR __imp_??4?$CStringT@DV?$StrTraitMFC_DLL@DV?$ChTraitsCRT@D@ATL@@@@@ATL@@QAEAAV01@ABV01@@Z
  000f8	8d 4d d8	 lea	 ecx, DWORD PTR $T7[ebp]
  000fb	c6 45 fc 00	 mov	 BYTE PTR __$EHRec$[ebp+8], 0
  000ff	ff 15 00 00 00
	00		 call	 DWORD PTR __imp_??1?$CStringT@DV?$StrTraitMFC_DLL@DV?$ChTraitsCRT@D@ATL@@@@@ATL@@QAE@XZ
  00105	8b ce		 mov	 ecx, esi
  00107	ff 15 00 00 00
	00		 call	 DWORD PTR __imp_?TrimLeft@?$CStringT@DV?$StrTraitMFC_DLL@DV?$ChTraitsCRT@D@ATL@@@@@ATL@@QAEAAV12@XZ
  0010d	8b ce		 mov	 ecx, esi
  0010f	ff 15 00 00 00
	00		 call	 DWORD PTR __imp_?TrimRight@?$CStringT@DV?$StrTraitMFC_DLL@DV?$ChTraitsCRT@D@ATL@@@@@ATL@@QAEAAV12@XZ

; 173  : 			{
; 174  : 				if(m_strOpCode.Compare("5001")==0)

  00115	68 00 00 00 00	 push	 OFFSET ??_C@_04ECABCFJH@5001@
  0011a	8b ce		 mov	 ecx, esi
  0011c	ff 15 00 00 00
	00		 call	 DWORD PTR __imp_?Compare@?$CStringT@DV?$StrTraitMFC_DLL@DV?$ChTraitsCRT@D@ATL@@@@@ATL@@QBEHPBD@Z
  00122	85 c0		 test	 eax, eax
  00124	75 07		 jne	 SHORT $LN5@WindowProc

; 175  : 					m_strOpCodeName = "";

  00126	68 00 00 00 00	 push	 OFFSET ??_C@_0L@HHAGCFJA@?D?Z?$LN?$LK?G?G?A?$LO?G?U@
  0012b	eb 16		 jmp	 SHORT $LN107@WindowProc
$LN5@WindowProc:

; 176  : 				else if(m_strOpCode.Compare("2001")==0)

  0012d	68 00 00 00 00	 push	 OFFSET ??_C@_04PACBPJIH@2001@
  00132	8b ce		 mov	 ecx, esi
  00134	ff 15 00 00 00
	00		 call	 DWORD PTR __imp_?Compare@?$CStringT@DV?$StrTraitMFC_DLL@DV?$ChTraitsCRT@D@ATL@@@@@ATL@@QBEHPBD@Z
  0013a	85 c0		 test	 eax, eax
  0013c	75 0d		 jne	 SHORT $LN7@WindowProc

; 177  : 					m_strOpCodeName = "";

  0013e	68 00 00 00 00	 push	 OFFSET ??_C@_0L@BFMOPOGD@?D?Z?$LN?$LK?$LE?Z?A?$LO?G?U@
$LN107@WindowProc:
; File C:\Program Files (x86)\Microsoft Visual Studio\2019\Community\VC\Tools\MSVC\14.29.30133\atlmfc\include\atlsimpstr.h

; 519  : 		return( GetData()->nDataLength );

  00143	8b cb		 mov	 ecx, ebx
  00145	ff 15 00 00 00
	00		 call	 DWORD PTR __imp_??4?$CStringT@DV?$StrTraitMFC_DLL@DV?$ChTraitsCRT@D@ATL@@@@@ATL@@QAEAAV01@PBD@Z
$LN7@WindowProc:
  0014b	8b 06		 mov	 eax, DWORD PTR [esi]
  0014d	8b 40 f4	 mov	 eax, DWORD PTR [eax-12]
; File D:\git\src\IBK\IBK_DRFN\ProjSrc\SrcDrfn\Chart\comparechart\UsrAddListDlg.cpp

; 179  : 			if(!m_strOpCode.GetLength())

  00150	85 c0		 test	 eax, eax
  00152	75 21		 jne	 SHORT $LN8@WindowProc

; 180  : 			{
; 181  : 				m_strOpCodeName = _T("");

  00154	68 00 00 00 00	 push	 OFFSET ??_C@_00CNPNBAHC@@
  00159	8b cb		 mov	 ecx, ebx
  0015b	ff 15 00 00 00
	00		 call	 DWORD PTR __imp_??4?$CStringT@DV?$StrTraitMFC_DLL@DV?$ChTraitsCRT@D@ATL@@@@@ATL@@QAEAAV01@PBD@Z

; 182  : 				m_strOpCode		= _T("");

  00161	68 00 00 00 00	 push	 OFFSET ??_C@_00CNPNBAHC@@
  00166	8b ce		 mov	 ecx, esi
  00168	ff 15 00 00 00
	00		 call	 DWORD PTR __imp_??4?$CStringT@DV?$StrTraitMFC_DLL@DV?$ChTraitsCRT@D@ATL@@@@@ATL@@QAEAAV01@PBD@Z
  0016e	33 f6		 xor	 esi, esi
  00170	e9 99 03 00 00	 jmp	 $LN26@WindowProc
$LN8@WindowProc:

; 183  : 				return 0;
; 184  : 			}
; 185  : 
; 186  : 			if (m_strOpCode.GetLength() == 4)

  00175	83 f8 04	 cmp	 eax, 4
  00178	0f 85 c2 00 00
	00		 jne	 $LN10@WindowProc
  0017e	0f 57 c0	 xorps	 xmm0, xmm0
; File D:\git\src\IBK\IBK_DRFN\ProjSrc\SrcDrfn\inc\IBaseDefine.h

; 262  : 	AfxGetHanaroMainWnd(hMainWnd);

  00181	c7 45 d8 00 00
	00 00		 mov	 DWORD PTR _hMainWnd$6[ebp], 0
  00188	8d 4d dc	 lea	 ecx, DWORD PTR _szClipFormat$10[ebp]
  0018b	66 0f d6 45 e4	 movq	 QWORD PTR _aBufWnd$15[ebp], xmm0
  00190	c6 45 ec 00	 mov	 BYTE PTR _aBufWnd$15[ebp+8], 0
  00194	ff 15 00 00 00
	00		 call	 DWORD PTR __imp_??0?$CStringT@DV?$StrTraitMFC_DLL@DV?$ChTraitsCRT@D@ATL@@@@@ATL@@QAE@XZ
  0019a	68 00 00 00 00	 push	 OFFSET ??_C@_0M@CBBNGGHM@PcTrMng?4dll@
  0019f	c6 45 fc 03	 mov	 BYTE PTR __$EHRec$[ebp+8], 3
  001a3	ff 15 00 00 00
	00		 call	 DWORD PTR __imp__GetModuleHandleA@4
  001a9	50		 push	 eax
  001aa	68 00 00 00 00	 push	 OFFSET ??_C@_0P@IDMAJEGN@HANAROPCTRMAIN@
  001af	8d 45 dc	 lea	 eax, DWORD PTR _szClipFormat$10[ebp]
  001b2	68 00 00 00 00	 push	 OFFSET ??_C@_06NDLAHCHE@?$CFs?$CF08X@
  001b7	50		 push	 eax
  001b8	ff 15 00 00 00
	00		 call	 DWORD PTR __imp_?Format@?$CStringT@DV?$StrTraitMFC_DLL@DV?$ChTraitsCRT@D@ATL@@@@@ATL@@QAAXPBDZZ
  001be	83 c4 10	 add	 esp, 16			; 00000010H
  001c1	8d 45 e4	 lea	 eax, DWORD PTR _aBufWnd$15[ebp]
  001c4	6a 09		 push	 9
  001c6	50		 push	 eax
  001c7	ff 75 dc	 push	 DWORD PTR _szClipFormat$10[ebp]
  001ca	ff 15 00 00 00
	00		 call	 DWORD PTR __imp__GetEnvironmentVariableA@12
  001d0	8d 45 d8	 lea	 eax, DWORD PTR _hMainWnd$6[ebp]
  001d3	50		 push	 eax
  001d4	8d 45 e4	 lea	 eax, DWORD PTR _aBufWnd$15[ebp]
  001d7	68 00 00 00 00	 push	 OFFSET ??_C@_02EMFKHFLK@?$CFX@
  001dc	50		 push	 eax
  001dd	e8 00 00 00 00	 call	 _sscanf
  001e2	83 c4 0c	 add	 esp, 12			; 0000000cH
  001e5	c6 45 fc 00	 mov	 BYTE PTR __$EHRec$[ebp+8], 0
  001e9	8d 4d dc	 lea	 ecx, DWORD PTR _szClipFormat$10[ebp]
  001ec	ff 15 00 00 00
	00		 call	 DWORD PTR __imp_??1?$CStringT@DV?$StrTraitMFC_DLL@DV?$ChTraitsCRT@D@ATL@@@@@ATL@@QAE@XZ

; 263  : 
; 264  : 	return ::SendMessage(hMainWnd, RMSG_INTERFACE, (WPARAM)nID, 0);

  001f2	6a 00		 push	 0
  001f4	6a 05		 push	 5
  001f6	ff 35 00 00 00
	00		 push	 DWORD PTR ?RMSG_INTERFACE@@3IB
  001fc	ff 75 d8	 push	 DWORD PTR _hMainWnd$6[ebp]
  001ff	ff 15 00 00 00
	00		 call	 DWORD PTR __imp__SendMessageA@16
; File D:\git\src\IBK\IBK_DRFN\ProjSrc\SrcDrfn\Chart\comparechart\UsrAddListDlg.cpp

; 189  : 				pDataManager = (IMasterDataManagerLast*)AfxGetPctrInterface(UUID_IMasterDataManager);

  00205	8b d8		 mov	 ebx, eax

; 190  : 				if (pDataManager != NULL)

  00207	85 db		 test	 ebx, ebx
  00209	74 35		 je	 SHORT $LN10@WindowProc

; 191  : 				{
; 192  : 					CString strRet;

  0020b	8d 4d e0	 lea	 ecx, DWORD PTR _strRet$14[ebp]
  0020e	ff 15 00 00 00
	00		 call	 DWORD PTR __imp_??0?$CStringT@DV?$StrTraitMFC_DLL@DV?$ChTraitsCRT@D@ATL@@@@@ATL@@QAE@XZ

; 193  : 					pDataManager->GetSiteUpKode(m_strOpCode, strRet);

  00214	8b 0b		 mov	 ecx, DWORD PTR [ebx]
  00216	8d 45 e0	 lea	 eax, DWORD PTR _strRet$14[ebp]
  00219	50		 push	 eax
  0021a	ff 36		 push	 DWORD PTR [esi]
  0021c	c6 45 fc 04	 mov	 BYTE PTR __$EHRec$[ebp+8], 4
  00220	53		 push	 ebx
  00221	ff 91 d0 00 00
	00		 call	 DWORD PTR [ecx+208]

; 194  : 					m_strOpCode = strRet;

  00227	8d 45 e0	 lea	 eax, DWORD PTR _strRet$14[ebp]
  0022a	8b ce		 mov	 ecx, esi
  0022c	50		 push	 eax
  0022d	ff 15 00 00 00
	00		 call	 DWORD PTR __imp_??4?$CStringT@DV?$StrTraitMFC_DLL@DV?$ChTraitsCRT@D@ATL@@@@@ATL@@QAEAAV01@ABV01@@Z

; 195  : 				}

  00233	8d 4d e0	 lea	 ecx, DWORD PTR _strRet$14[ebp]
  00236	c6 45 fc 00	 mov	 BYTE PTR __$EHRec$[ebp+8], 0
  0023a	ff 15 00 00 00
	00		 call	 DWORD PTR __imp_??1?$CStringT@DV?$StrTraitMFC_DLL@DV?$ChTraitsCRT@D@ATL@@@@@ATL@@QAE@XZ
$LN10@WindowProc:

; 196  : 			}
; 197  : 
; 198  : 			AddItem();

  00240	8b cf		 mov	 ecx, edi
  00242	e8 00 00 00 00	 call	 ?AddItem@CUsrAddListDlg@@QAEXXZ ; CUsrAddListDlg::AddItem

; 199  : 			break;

  00247	e9 18 02 00 00	 jmp	 $LN105@WindowProc
$LN11@WindowProc:
; File C:\Program Files (x86)\Microsoft Visual Studio\2019\Community\VC\Tools\MSVC\14.29.30133\atlmfc\include\afxcmn.inl

; 155  : 	{ ASSERT(::IsWindow(m_hWnd)); return (int) ::SendMessage(m_hWnd, LVM_GETITEMCOUNT, 0, 0L); }

  0024c	6a 00		 push	 0
  0024e	6a 00		 push	 0
  00250	68 04 10 00 00	 push	 4100			; 00001004H
  00255	ff b7 10 05 00
	00		 push	 DWORD PTR [edi+1296]
  0025b	ff d1		 call	 ecx
; File D:\git\src\IBK\IBK_DRFN\ProjSrc\SrcDrfn\Chart\comparechart\UsrAddListDlg.cpp

; 374  : 	int nChkCnt = 0;

  0025d	33 db		 xor	 ebx, ebx
  0025f	89 45 d8	 mov	 DWORD PTR _nTot$1$[ebp], eax
; File C:\Program Files (x86)\Microsoft Visual Studio\2019\Community\VC\Tools\MSVC\14.29.30133\atlmfc\include\afxcmn.inl

; 155  : 	{ ASSERT(::IsWindow(m_hWnd)); return (int) ::SendMessage(m_hWnd, LVM_GETITEMCOUNT, 0, 0L); }

  00262	33 f6		 xor	 esi, esi
; File D:\git\src\IBK\IBK_DRFN\ProjSrc\SrcDrfn\Chart\comparechart\UsrAddListDlg.cpp

; 375  : 	for( i = 0; i < nTot ; i++)	

  00264	85 c0		 test	 eax, eax
  00266	0f 8e f8 01 00
	00		 jle	 $LN105@WindowProc
  0026c	8d 87 f0 04 00
	00		 lea	 eax, DWORD PTR [edi+1264]
  00272	8b f8		 mov	 edi, eax
$LL45@WindowProc:

; 376  : 	{
; 377  : 		if(m_listUsrAdd.GetCheck(i))

  00274	56		 push	 esi
  00275	8b cf		 mov	 ecx, edi
  00277	e8 00 00 00 00	 call	 ?GetCheck@CListCtrl@@QBEHH@Z ; CListCtrl::GetCheck
  0027c	85 c0		 test	 eax, eax
  0027e	74 01		 je	 SHORT $LN43@WindowProc

; 378  : 			nChkCnt++;

  00280	43		 inc	 ebx
$LN43@WindowProc:

; 375  : 	for( i = 0; i < nTot ; i++)	

  00281	46		 inc	 esi
  00282	3b 75 d8	 cmp	 esi, DWORD PTR _nTot$1$[ebp]
  00285	7c ed		 jl	 SHORT $LL45@WindowProc

; 379  : 	}
; 380  : 
; 381  : 	if(nChkCnt == 0) return;	

  00287	8b 7d e0	 mov	 edi, DWORD PTR _this$GSCopy$1$[ebp]
  0028a	85 db		 test	 ebx, ebx
  0028c	0f 84 d2 01 00
	00		 je	 $LN105@WindowProc

; 382  : 	//GetParent()->GetParent()->SendMessage(UMSG_COMPARE_TR_JONMOK_CNT, 0, (LPARAM)nChkCnt);
; 383  : 	//=====================================================================================
; 384  : 
; 385  : 	for(i = 0; i < nTot ; i++)	

  00292	33 f6		 xor	 esi, esi
$LL48@WindowProc:

; 386  : 	{
; 387  : 		//   . 
; 388  : 		if(m_listUsrAdd.GetCheck(i))

  00294	56		 push	 esi
  00295	8d 8f f0 04 00
	00		 lea	 ecx, DWORD PTR [edi+1264]
  0029b	e8 00 00 00 00	 call	 ?GetCheck@CListCtrl@@QBEHH@Z ; CListCtrl::GetCheck
  002a0	85 c0		 test	 eax, eax
  002a2	0f 84 db 00 00
	00		 je	 $LN46@WindowProc

; 389  : 		{	CString strCode, strCodeName;

  002a8	8d 4d e0	 lea	 ecx, DWORD PTR _strCode$12[ebp]
  002ab	ff 15 00 00 00
	00		 call	 DWORD PTR __imp_??0?$CStringT@DV?$StrTraitMFC_DLL@DV?$ChTraitsCRT@D@ATL@@@@@ATL@@QAE@XZ
  002b1	8d 4d dc	 lea	 ecx, DWORD PTR _strCodeName$9[ebp]
  002b4	ff 15 00 00 00
	00		 call	 DWORD PTR __imp_??0?$CStringT@DV?$StrTraitMFC_DLL@DV?$ChTraitsCRT@D@ATL@@@@@ATL@@QAE@XZ

; 390  : 			strCodeName = m_listUsrAdd.GetItemText(i, 0); strCodeName.TrimLeft(); strCodeName.TrimRight();

  002ba	6a 00		 push	 0
  002bc	56		 push	 esi
  002bd	8d 45 c8	 lea	 eax, DWORD PTR $T2[ebp]
  002c0	c6 45 fc 06	 mov	 BYTE PTR __$EHRec$[ebp+8], 6
  002c4	50		 push	 eax
  002c5	8d 8f f0 04 00
	00		 lea	 ecx, DWORD PTR [edi+1264]
  002cb	e8 00 00 00 00	 call	 ?GetItemText@CListCtrl@@QBE?AV?$CStringT@DV?$StrTraitMFC_DLL@DV?$ChTraitsCRT@D@ATL@@@@@ATL@@HH@Z ; CListCtrl::GetItemText
  002d0	50		 push	 eax
  002d1	8d 4d dc	 lea	 ecx, DWORD PTR _strCodeName$9[ebp]
  002d4	c6 45 fc 07	 mov	 BYTE PTR __$EHRec$[ebp+8], 7
  002d8	ff 15 00 00 00
	00		 call	 DWORD PTR __imp_??4?$CStringT@DV?$StrTraitMFC_DLL@DV?$ChTraitsCRT@D@ATL@@@@@ATL@@QAEAAV01@ABV01@@Z
  002de	8d 4d c8	 lea	 ecx, DWORD PTR $T2[ebp]
  002e1	c6 45 fc 06	 mov	 BYTE PTR __$EHRec$[ebp+8], 6
  002e5	ff 15 00 00 00
	00		 call	 DWORD PTR __imp_??1?$CStringT@DV?$StrTraitMFC_DLL@DV?$ChTraitsCRT@D@ATL@@@@@ATL@@QAE@XZ
  002eb	8d 4d dc	 lea	 ecx, DWORD PTR _strCodeName$9[ebp]
  002ee	ff 15 00 00 00
	00		 call	 DWORD PTR __imp_?TrimLeft@?$CStringT@DV?$StrTraitMFC_DLL@DV?$ChTraitsCRT@D@ATL@@@@@ATL@@QAEAAV12@XZ
  002f4	8d 4d dc	 lea	 ecx, DWORD PTR _strCodeName$9[ebp]
  002f7	ff 15 00 00 00
	00		 call	 DWORD PTR __imp_?TrimRight@?$CStringT@DV?$StrTraitMFC_DLL@DV?$ChTraitsCRT@D@ATL@@@@@ATL@@QAEAAV12@XZ

; 391  : 			strCode		= m_listUsrAdd.GetItemText(i, 1); strCode.TrimLeft(); strCode.TrimRight();

  002fd	6a 01		 push	 1
  002ff	56		 push	 esi
  00300	8d 45 cc	 lea	 eax, DWORD PTR $T4[ebp]
  00303	50		 push	 eax
  00304	8d 8f f0 04 00
	00		 lea	 ecx, DWORD PTR [edi+1264]
  0030a	e8 00 00 00 00	 call	 ?GetItemText@CListCtrl@@QBE?AV?$CStringT@DV?$StrTraitMFC_DLL@DV?$ChTraitsCRT@D@ATL@@@@@ATL@@HH@Z ; CListCtrl::GetItemText
  0030f	50		 push	 eax
  00310	8d 4d e0	 lea	 ecx, DWORD PTR _strCode$12[ebp]
  00313	c6 45 fc 08	 mov	 BYTE PTR __$EHRec$[ebp+8], 8
  00317	ff 15 00 00 00
	00		 call	 DWORD PTR __imp_??4?$CStringT@DV?$StrTraitMFC_DLL@DV?$ChTraitsCRT@D@ATL@@@@@ATL@@QAEAAV01@ABV01@@Z
  0031d	8d 4d cc	 lea	 ecx, DWORD PTR $T4[ebp]
  00320	c6 45 fc 06	 mov	 BYTE PTR __$EHRec$[ebp+8], 6
  00324	ff 15 00 00 00
	00		 call	 DWORD PTR __imp_??1?$CStringT@DV?$StrTraitMFC_DLL@DV?$ChTraitsCRT@D@ATL@@@@@ATL@@QAE@XZ
  0032a	8d 4d e0	 lea	 ecx, DWORD PTR _strCode$12[ebp]
  0032d	ff 15 00 00 00
	00		 call	 DWORD PTR __imp_?TrimLeft@?$CStringT@DV?$StrTraitMFC_DLL@DV?$ChTraitsCRT@D@ATL@@@@@ATL@@QAEAAV12@XZ
  00333	8d 4d e0	 lea	 ecx, DWORD PTR _strCode$12[ebp]
  00336	ff 15 00 00 00
	00		 call	 DWORD PTR __imp_?TrimRight@?$CStringT@DV?$StrTraitMFC_DLL@DV?$ChTraitsCRT@D@ATL@@@@@ATL@@QAEAAV12@XZ
; File C:\Program Files (x86)\Microsoft Visual Studio\2019\Community\VC\Tools\MSVC\14.29.30133\atlmfc\include\afxwin2.inl

; 213  : 	{ ASSERT(::IsWindow(m_hWnd)); return CWnd::FromHandle(::GetParent(m_hWnd)); }

  0033c	ff 77 20	 push	 DWORD PTR [edi+32]
  0033f	ff 15 00 00 00
	00		 call	 DWORD PTR __imp__GetParent@4
  00345	50		 push	 eax
  00346	e8 00 00 00 00	 call	 ?FromHandle@CWnd@@SGPAV1@PAUHWND__@@@Z ; CWnd::FromHandle
  0034b	ff 70 20	 push	 DWORD PTR [eax+32]
  0034e	ff 15 00 00 00
	00		 call	 DWORD PTR __imp__GetParent@4
  00354	50		 push	 eax
  00355	e8 00 00 00 00	 call	 ?FromHandle@CWnd@@SGPAV1@PAUHWND__@@@Z ; CWnd::FromHandle

; 32   : 	{ ASSERT(::IsWindow(m_hWnd)); return ::SendMessage(m_hWnd, message, wParam, lParam); }

  0035a	53		 push	 ebx
  0035b	8d 4d e0	 lea	 ecx, DWORD PTR _strCode$12[ebp]
  0035e	51		 push	 ecx
  0035f	68 5c 04 00 00	 push	 1116			; 0000045cH
  00364	ff 70 20	 push	 DWORD PTR [eax+32]
  00367	ff 15 00 00 00
	00		 call	 DWORD PTR __imp__SendMessageA@16
; File D:\git\src\IBK\IBK_DRFN\ProjSrc\SrcDrfn\Chart\comparechart\UsrAddListDlg.cpp

; 397  : 		}

  0036d	8d 4d dc	 lea	 ecx, DWORD PTR _strCodeName$9[ebp]
  00370	ff 15 00 00 00
	00		 call	 DWORD PTR __imp_??1?$CStringT@DV?$StrTraitMFC_DLL@DV?$ChTraitsCRT@D@ATL@@@@@ATL@@QAE@XZ
  00376	8d 4d e0	 lea	 ecx, DWORD PTR _strCode$12[ebp]
  00379	c6 45 fc 00	 mov	 BYTE PTR __$EHRec$[ebp+8], 0
  0037d	ff 15 00 00 00
	00		 call	 DWORD PTR __imp_??1?$CStringT@DV?$StrTraitMFC_DLL@DV?$ChTraitsCRT@D@ATL@@@@@ATL@@QAE@XZ
$LN46@WindowProc:

; 382  : 	//GetParent()->GetParent()->SendMessage(UMSG_COMPARE_TR_JONMOK_CNT, 0, (LPARAM)nChkCnt);
; 383  : 	//=====================================================================================
; 384  : 
; 385  : 	for(i = 0; i < nTot ; i++)	

  00383	46		 inc	 esi
  00384	3b 75 d8	 cmp	 esi, DWORD PTR _nTot$1$[ebp]
  00387	0f 8c 07 ff ff
	ff		 jl	 $LL48@WindowProc

; 200  : 		case UMSG_RE_REQUEST_TRDATA:
; 201  : 			Re_Request_TRData();
; 202  : 			break;

  0038d	e9 d2 00 00 00	 jmp	 $LN105@WindowProc
$LN12@WindowProc:

; 78   : 	m_listUsrAdd.Init_CompareChart();

  00392	8d 8f f0 04 00
	00		 lea	 ecx, DWORD PTR [edi+1264]
  00398	e8 00 00 00 00	 call	 ?Init_CompareChart@CNsyButtonListCtrl@@QAEXXZ ; CNsyButtonListCtrl::Init_CompareChart

; 203  : 		case UMSG_INITIAL_BTNCLICK:
; 204  : 			OnBtnInit();
; 205  : 			break;

  0039d	e9 c5 00 00 00	 jmp	 $LN108@WindowProc
$LN13@WindowProc:
; File C:\Program Files (x86)\Microsoft Visual Studio\2019\Community\VC\Tools\MSVC\14.29.30133\atlmfc\include\afxcmn.inl

; 155  : 	{ ASSERT(::IsWindow(m_hWnd)); return (int) ::SendMessage(m_hWnd, LVM_GETITEMCOUNT, 0, 0L); }

  003a2	6a 00		 push	 0
  003a4	6a 00		 push	 0
  003a6	68 04 10 00 00	 push	 4100			; 00001004H
  003ab	ff b7 10 05 00
	00		 push	 DWORD PTR [edi+1296]
  003b1	ff d1		 call	 ecx
; File D:\git\src\IBK\IBK_DRFN\ProjSrc\SrcDrfn\Chart\comparechart\UsrAddListDlg.cpp

; 105  : 	int nTot = m_listUsrAdd.GetItemCount();

  003b3	8b d8		 mov	 ebx, eax

; 106  : 	
; 107  : 	CString strCode;

  003b5	8d 4d e0	 lea	 ecx, DWORD PTR _strCode$11[ebp]
  003b8	89 5d c8	 mov	 DWORD PTR _nTot$1$[ebp], ebx
  003bb	ff 15 00 00 00
	00		 call	 DWORD PTR __imp_??0?$CStringT@DV?$StrTraitMFC_DLL@DV?$ChTraitsCRT@D@ATL@@@@@ATL@@QAE@XZ

; 108  : 	for(int i = 0; i < nTot ; i++)	

  003c1	33 f6		 xor	 esi, esi
  003c3	c6 45 fc 09	 mov	 BYTE PTR __$EHRec$[ebp+8], 9
  003c7	85 db		 test	 ebx, ebx
  003c9	0f 8e 88 00 00
	00		 jle	 $LN71@WindowProc
  003cf	90		 npad	 1
$LL72@WindowProc:

; 109  : 	{
; 110  : 		strCode = m_listUsrAdd.GetItemText(i, 1); strCode.TrimLeft(); strCode.TrimRight();

  003d0	6a 01		 push	 1
  003d2	56		 push	 esi
  003d3	8d 45 cc	 lea	 eax, DWORD PTR $T3[ebp]
  003d6	50		 push	 eax
  003d7	8d 8f f0 04 00
	00		 lea	 ecx, DWORD PTR [edi+1264]
  003dd	e8 00 00 00 00	 call	 ?GetItemText@CListCtrl@@QBE?AV?$CStringT@DV?$StrTraitMFC_DLL@DV?$ChTraitsCRT@D@ATL@@@@@ATL@@HH@Z ; CListCtrl::GetItemText
  003e2	50		 push	 eax
  003e3	8d 4d e0	 lea	 ecx, DWORD PTR _strCode$11[ebp]
  003e6	c6 45 fc 0a	 mov	 BYTE PTR __$EHRec$[ebp+8], 10 ; 0000000aH
  003ea	ff 15 00 00 00
	00		 call	 DWORD PTR __imp_??4?$CStringT@DV?$StrTraitMFC_DLL@DV?$ChTraitsCRT@D@ATL@@@@@ATL@@QAEAAV01@ABV01@@Z
  003f0	8d 4d cc	 lea	 ecx, DWORD PTR $T3[ebp]
  003f3	c6 45 fc 09	 mov	 BYTE PTR __$EHRec$[ebp+8], 9
  003f7	ff 15 00 00 00
	00		 call	 DWORD PTR __imp_??1?$CStringT@DV?$StrTraitMFC_DLL@DV?$ChTraitsCRT@D@ATL@@@@@ATL@@QAE@XZ
  003fd	8d 4d e0	 lea	 ecx, DWORD PTR _strCode$11[ebp]
  00400	ff 15 00 00 00
	00		 call	 DWORD PTR __imp_?TrimLeft@?$CStringT@DV?$StrTraitMFC_DLL@DV?$ChTraitsCRT@D@ATL@@@@@ATL@@QAEAAV12@XZ
  00406	8d 4d e0	 lea	 ecx, DWORD PTR _strCode$11[ebp]
  00409	ff 15 00 00 00
	00		 call	 DWORD PTR __imp_?TrimRight@?$CStringT@DV?$StrTraitMFC_DLL@DV?$ChTraitsCRT@D@ATL@@@@@ATL@@QAEAAV12@XZ

; 111  : 		if(strCode.CompareNoCase(szDelCode)==0)

  0040f	ff 75 d4	 push	 DWORD PTR _lParam$GSCopy$1$[ebp]
  00412	8d 4d e0	 lea	 ecx, DWORD PTR _strCode$11[ebp]
  00415	ff 15 00 00 00
	00		 call	 DWORD PTR __imp_?CompareNoCase@?$CStringT@DV?$StrTraitMFC_DLL@DV?$ChTraitsCRT@D@ATL@@@@@ATL@@QBEHPBD@Z
  0041b	85 c0		 test	 eax, eax
  0041d	74 08		 je	 SHORT $LN91@WindowProc

; 108  : 	for(int i = 0; i < nTot ; i++)	

  0041f	46		 inc	 esi
  00420	3b 75 c8	 cmp	 esi, DWORD PTR _nTot$1$[ebp]
  00423	7c ab		 jl	 SHORT $LL72@WindowProc

; 111  : 		if(strCode.CompareNoCase(szDelCode)==0)

  00425	eb 30		 jmp	 SHORT $LN71@WindowProc
$LN91@WindowProc:

; 112  : 		{
; 113  : 			//m_listUsrAdd.DeleteSelectItem(i);
; 114  : 			m_listUsrAdd.RemoveOnlyList(i);

  00427	56		 push	 esi
  00428	8d 8f f0 04 00
	00		 lea	 ecx, DWORD PTR [edi+1264]
  0042e	e8 00 00 00 00	 call	 ?RemoveOnlyList@CNsyButtonListCtrl@@QAEXH@Z ; CNsyButtonListCtrl::RemoveOnlyList
; File C:\Program Files (x86)\Microsoft Visual Studio\2019\Community\VC\Tools\MSVC\14.29.30133\atlmfc\include\afxcmn.inl

; 155  : 	{ ASSERT(::IsWindow(m_hWnd)); return (int) ::SendMessage(m_hWnd, LVM_GETITEMCOUNT, 0, 0L); }

  00433	6a 00		 push	 0
  00435	6a 00		 push	 0
  00437	68 04 10 00 00	 push	 4100			; 00001004H
  0043c	ff b7 10 05 00
	00		 push	 DWORD PTR [edi+1296]
  00442	ff 15 00 00 00
	00		 call	 DWORD PTR __imp__SendMessageA@16
; File D:\git\src\IBK\IBK_DRFN\ProjSrc\SrcDrfn\Chart\comparechart\UsrAddListDlg.cpp

; 117  : 			if(m_listUsrAdd.GetItemCount()==0)

  00448	85 c0		 test	 eax, eax
  0044a	75 0b		 jne	 SHORT $LN71@WindowProc

; 78   : 	m_listUsrAdd.Init_CompareChart();

  0044c	8d 8f f0 04 00
	00		 lea	 ecx, DWORD PTR [edi+1264]
  00452	e8 00 00 00 00	 call	 ?Init_CompareChart@CNsyButtonListCtrl@@QAEXXZ ; CNsyButtonListCtrl::Init_CompareChart
$LN71@WindowProc:

; 122  : }

  00457	8d 4d e0	 lea	 ecx, DWORD PTR _strCode$11[ebp]
  0045a	c6 45 fc 00	 mov	 BYTE PTR __$EHRec$[ebp+8], 0
  0045e	ff 15 00 00 00
	00		 call	 DWORD PTR __imp_??1?$CStringT@DV?$StrTraitMFC_DLL@DV?$ChTraitsCRT@D@ATL@@@@@ATL@@QAE@XZ
$LN105@WindowProc:

; 206  : 		case UMSG_DELITEM_BTNCLICK:
; 207  : 			OnBtnDelItem((LPCSTR)lParam);
; 208  : 			break;
; 209  : 	}
; 210  : 	if(message==RMSG_GETINFO)

  00464	8b 5d d4	 mov	 ebx, DWORD PTR _lParam$GSCopy$1$[ebp]
$LN108@WindowProc:
  00467	8b 0d 00 00 00
	00		 mov	 ecx, DWORD PTR __imp__SendMessageA@16
$LN69@WindowProc:
  0046d	8b 45 08	 mov	 eax, DWORD PTR _message$[ebp]
  00470	3b 05 00 00 00
	00		 cmp	 eax, DWORD PTR ?RMSG_GETINFO@@3IB
  00476	8b 45 0c	 mov	 eax, DWORD PTR _wParam$[ebp]
  00479	0f 85 81 00 00
	00		 jne	 $LN15@WindowProc

; 211  : 	{
; 212  : 		if(wParam==10)

  0047f	83 f8 0a	 cmp	 eax, 10			; 0000000aH
  00482	0f 85 78 00 00
	00		 jne	 $LN15@WindowProc
; File C:\Program Files (x86)\Microsoft Visual Studio\2019\Community\VC\Tools\MSVC\14.29.30133\atlmfc\include\afxcmn.inl

; 155  : 	{ ASSERT(::IsWindow(m_hWnd)); return (int) ::SendMessage(m_hWnd, LVM_GETITEMCOUNT, 0, 0L); }

  00488	6a 00		 push	 0
  0048a	6a 00		 push	 0
  0048c	68 04 10 00 00	 push	 4100			; 00001004H
  00491	ff b7 10 05 00
	00		 push	 DWORD PTR [edi+1296]
  00497	ff d1		 call	 ecx
; File D:\git\src\IBK\IBK_DRFN\ProjSrc\SrcDrfn\Chart\comparechart\UsrAddListDlg.cpp

; 215  : 			if(nTot<2) return (LRESULT)"";

  00499	83 f8 02	 cmp	 eax, 2
  0049c	7d 07		 jge	 SHORT $LN16@WindowProc
  0049e	be 00 00 00 00	 mov	 esi, OFFSET ??_C@_00CNPNBAHC@@
  004a3	eb 69		 jmp	 SHORT $LN26@WindowProc
$LN16@WindowProc:

; 216  : 
; 217  : 			CString strCode;

  004a5	8d 4d e0	 lea	 ecx, DWORD PTR _strCode$13[ebp]
  004a8	ff 15 00 00 00
	00		 call	 DWORD PTR __imp_??0?$CStringT@DV?$StrTraitMFC_DLL@DV?$ChTraitsCRT@D@ATL@@@@@ATL@@QAE@XZ

; 218  : 			strCode = m_listUsrAdd.GetItemText(1, 1);

  004ae	6a 01		 push	 1
  004b0	6a 01		 push	 1
  004b2	8d 45 cc	 lea	 eax, DWORD PTR $T5[ebp]
  004b5	c6 45 fc 0b	 mov	 BYTE PTR __$EHRec$[ebp+8], 11 ; 0000000bH
  004b9	50		 push	 eax
  004ba	8d 8f f0 04 00
	00		 lea	 ecx, DWORD PTR [edi+1264]
  004c0	e8 00 00 00 00	 call	 ?GetItemText@CListCtrl@@QBE?AV?$CStringT@DV?$StrTraitMFC_DLL@DV?$ChTraitsCRT@D@ATL@@@@@ATL@@HH@Z ; CListCtrl::GetItemText
  004c5	50		 push	 eax
  004c6	8d 4d e0	 lea	 ecx, DWORD PTR _strCode$13[ebp]
  004c9	c6 45 fc 0c	 mov	 BYTE PTR __$EHRec$[ebp+8], 12 ; 0000000cH
  004cd	ff 15 00 00 00
	00		 call	 DWORD PTR __imp_??4?$CStringT@DV?$StrTraitMFC_DLL@DV?$ChTraitsCRT@D@ATL@@@@@ATL@@QAEAAV01@ABV01@@Z
  004d3	8d 4d cc	 lea	 ecx, DWORD PTR $T5[ebp]
  004d6	c6 45 fc 0b	 mov	 BYTE PTR __$EHRec$[ebp+8], 11 ; 0000000bH
  004da	ff 15 00 00 00
	00		 call	 DWORD PTR __imp_??1?$CStringT@DV?$StrTraitMFC_DLL@DV?$ChTraitsCRT@D@ATL@@@@@ATL@@QAE@XZ

; 219  : 			strCode.TrimLeft(); strCode.TrimRight();

  004e0	8d 4d e0	 lea	 ecx, DWORD PTR _strCode$13[ebp]
  004e3	ff 15 00 00 00
	00		 call	 DWORD PTR __imp_?TrimLeft@?$CStringT@DV?$StrTraitMFC_DLL@DV?$ChTraitsCRT@D@ATL@@@@@ATL@@QAEAAV12@XZ
  004e9	8d 4d e0	 lea	 ecx, DWORD PTR _strCode$13[ebp]
  004ec	ff 15 00 00 00
	00		 call	 DWORD PTR __imp_?TrimRight@?$CStringT@DV?$StrTraitMFC_DLL@DV?$ChTraitsCRT@D@ATL@@@@@ATL@@QAEAAV12@XZ
; File C:\Program Files (x86)\Microsoft Visual Studio\2019\Community\VC\Tools\MSVC\14.29.30133\atlmfc\include\atlsimpstr.h

; 377  : 		return( m_pszData );

  004f2	8b 75 e0	 mov	 esi, DWORD PTR _strCode$13[ebp]
; File D:\git\src\IBK\IBK_DRFN\ProjSrc\SrcDrfn\Chart\comparechart\UsrAddListDlg.cpp

; 220  : 			return (LRESULT)(LPCSTR)strCode;

  004f5	8d 4d e0	 lea	 ecx, DWORD PTR _strCode$13[ebp]
  004f8	ff 15 00 00 00
	00		 call	 DWORD PTR __imp_??1?$CStringT@DV?$StrTraitMFC_DLL@DV?$ChTraitsCRT@D@ATL@@@@@ATL@@QAE@XZ
  004fe	eb 0e		 jmp	 SHORT $LN26@WindowProc
$LN15@WindowProc:

; 221  : 		}
; 222  : 	}
; 223  : 	return CRscDlg::WindowProc(message, wParam, lParam);

  00500	53		 push	 ebx
  00501	50		 push	 eax
  00502	ff 75 08	 push	 DWORD PTR _message$[ebp]
  00505	8b cf		 mov	 ecx, edi
  00507	e8 00 00 00 00	 call	 ?WindowProc@CWnd@@MAEJIIJ@Z ; CWnd::WindowProc
  0050c	8b f0		 mov	 esi, eax
$LN26@WindowProc:
  0050e	8d 4d d0	 lea	 ecx, DWORD PTR _sTemp$[ebp]
  00511	ff 15 00 00 00
	00		 call	 DWORD PTR __imp_??1?$CStringT@DV?$StrTraitMFC_DLL@DV?$ChTraitsCRT@D@ATL@@@@@ATL@@QAE@XZ
  00517	8b c6		 mov	 eax, esi

; 224  : }

  00519	8b 4d f4	 mov	 ecx, DWORD PTR __$EHRec$[ebp]
  0051c	64 89 0d 00 00
	00 00		 mov	 DWORD PTR fs:0, ecx
  00523	59		 pop	 ecx
  00524	5f		 pop	 edi
  00525	5e		 pop	 esi
  00526	5b		 pop	 ebx
  00527	8b 4d f0	 mov	 ecx, DWORD PTR __$ArrayPad$[ebp]
  0052a	33 cd		 xor	 ecx, ebp
  0052c	e8 00 00 00 00	 call	 @__security_check_cookie@4
  00531	8b e5		 mov	 esp, ebp
  00533	5d		 pop	 ebp
  00534	c2 0c 00	 ret	 12			; 0000000cH
  00537	90		 npad	 1
$LN103@WindowProc:
  00538	00 00 00 00	 DD	 $LN13@WindowProc
  0053c	00 00 00 00	 DD	 $LN12@WindowProc
  00540	00 00 00 00	 DD	 $LN4@WindowProc
  00544	00 00 00 00	 DD	 $LN11@WindowProc
  00548	00 00 00 00	 DD	 $LN69@WindowProc
$LN102@WindowProc:
  0054c	00		 DB	 0
  0054d	01		 DB	 1
  0054e	02		 DB	 2
  0054f	04		 DB	 4
  00550	04		 DB	 4
  00551	04		 DB	 4
  00552	04		 DB	 4
  00553	04		 DB	 4
  00554	04		 DB	 4
  00555	04		 DB	 4
  00556	04		 DB	 4
  00557	04		 DB	 4
  00558	04		 DB	 4
  00559	04		 DB	 4
  0055a	04		 DB	 4
  0055b	04		 DB	 4
  0055c	04		 DB	 4
  0055d	04		 DB	 4
  0055e	04		 DB	 4
  0055f	04		 DB	 4
  00560	04		 DB	 4
  00561	04		 DB	 4
  00562	04		 DB	 4
  00563	04		 DB	 4
  00564	04		 DB	 4
  00565	04		 DB	 4
  00566	04		 DB	 4
  00567	04		 DB	 4
  00568	04		 DB	 4
  00569	04		 DB	 4
  0056a	04		 DB	 4
  0056b	04		 DB	 4
  0056c	04		 DB	 4
  0056d	04		 DB	 4
  0056e	04		 DB	 4
  0056f	04		 DB	 4
  00570	04		 DB	 4
  00571	04		 DB	 4
  00572	04		 DB	 4
  00573	04		 DB	 4
  00574	04		 DB	 4
  00575	04		 DB	 4
  00576	04		 DB	 4
  00577	04		 DB	 4
  00578	04		 DB	 4
  00579	04		 DB	 4
  0057a	04		 DB	 4
  0057b	04		 DB	 4
  0057c	04		 DB	 4
  0057d	04		 DB	 4
  0057e	04		 DB	 4
  0057f	04		 DB	 4
  00580	04		 DB	 4
  00581	04		 DB	 4
  00582	04		 DB	 4
  00583	04		 DB	 4
  00584	04		 DB	 4
  00585	04		 DB	 4
  00586	04		 DB	 4
  00587	04		 DB	 4
  00588	04		 DB	 4
  00589	04		 DB	 4
  0058a	04		 DB	 4
  0058b	04		 DB	 4
  0058c	04		 DB	 4
  0058d	04		 DB	 4
  0058e	04		 DB	 4
  0058f	04		 DB	 4
  00590	04		 DB	 4
  00591	04		 DB	 4
  00592	04		 DB	 4
  00593	04		 DB	 4
  00594	03		 DB	 3
_TEXT	ENDS
;	COMDAT text$x
text$x	SEGMENT
__unwindfunclet$?WindowProc@CUsrAddListDlg@@MAEJIIJ@Z$0:
  00000	8d 4d d0	 lea	 ecx, DWORD PTR _sTemp$[ebp]
  00003	ff 25 00 00 00
	00		 jmp	 DWORD PTR __imp_??1?$CStringT@DV?$StrTraitMFC_DLL@DV?$ChTraitsCRT@D@ATL@@@@@ATL@@QAE@XZ
__unwindfunclet$?WindowProc@CUsrAddListDlg@@MAEJIIJ@Z$1:
  00009	8d 4d d8	 lea	 ecx, DWORD PTR $T8[ebp]
  0000c	ff 25 00 00 00
	00		 jmp	 DWORD PTR __imp_??1?$CStringT@DV?$StrTraitMFC_DLL@DV?$ChTraitsCRT@D@ATL@@@@@ATL@@QAE@XZ
__unwindfunclet$?WindowProc@CUsrAddListDlg@@MAEJIIJ@Z$2:
  00012	8d 4d d8	 lea	 ecx, DWORD PTR $T7[ebp]
  00015	ff 25 00 00 00
	00		 jmp	 DWORD PTR __imp_??1?$CStringT@DV?$StrTraitMFC_DLL@DV?$ChTraitsCRT@D@ATL@@@@@ATL@@QAE@XZ
__unwindfunclet$?WindowProc@CUsrAddListDlg@@MAEJIIJ@Z$6:
  0001b	8d 4d dc	 lea	 ecx, DWORD PTR _szClipFormat$10[ebp]
  0001e	ff 25 00 00 00
	00		 jmp	 DWORD PTR __imp_??1?$CStringT@DV?$StrTraitMFC_DLL@DV?$ChTraitsCRT@D@ATL@@@@@ATL@@QAE@XZ
__unwindfunclet$?WindowProc@CUsrAddListDlg@@MAEJIIJ@Z$3:
  00024	8d 4d e0	 lea	 ecx, DWORD PTR _strRet$14[ebp]
  00027	ff 25 00 00 00
	00		 jmp	 DWORD PTR __imp_??1?$CStringT@DV?$StrTraitMFC_DLL@DV?$ChTraitsCRT@D@ATL@@@@@ATL@@QAE@XZ
__unwindfunclet$?WindowProc@CUsrAddListDlg@@MAEJIIJ@Z$7:
  0002d	8d 4d e0	 lea	 ecx, DWORD PTR _strCode$12[ebp]
  00030	ff 25 00 00 00
	00		 jmp	 DWORD PTR __imp_??1?$CStringT@DV?$StrTraitMFC_DLL@DV?$ChTraitsCRT@D@ATL@@@@@ATL@@QAE@XZ
__unwindfunclet$?WindowProc@CUsrAddListDlg@@MAEJIIJ@Z$8:
  00036	8d 4d dc	 lea	 ecx, DWORD PTR _strCodeName$9[ebp]
  00039	ff 25 00 00 00
	00		 jmp	 DWORD PTR __imp_??1?$CStringT@DV?$StrTraitMFC_DLL@DV?$ChTraitsCRT@D@ATL@@@@@ATL@@QAE@XZ
__unwindfunclet$?WindowProc@CUsrAddListDlg@@MAEJIIJ@Z$9:
  0003f	8d 4d c8	 lea	 ecx, DWORD PTR $T2[ebp]
  00042	ff 25 00 00 00
	00		 jmp	 DWORD PTR __imp_??1?$CStringT@DV?$StrTraitMFC_DLL@DV?$ChTraitsCRT@D@ATL@@@@@ATL@@QAE@XZ
__unwindfunclet$?WindowProc@CUsrAddListDlg@@MAEJIIJ@Z$10:
  00048	8d 4d cc	 lea	 ecx, DWORD PTR $T4[ebp]
  0004b	ff 25 00 00 00
	00		 jmp	 DWORD PTR __imp_??1?$CStringT@DV?$StrTraitMFC_DLL@DV?$ChTraitsCRT@D@ATL@@@@@ATL@@QAE@XZ
__unwindfunclet$?WindowProc@CUsrAddListDlg@@MAEJIIJ@Z$11:
  00051	8d 4d e0	 lea	 ecx, DWORD PTR _strCode$11[ebp]
  00054	ff 25 00 00 00
	00		 jmp	 DWORD PTR __imp_??1?$CStringT@DV?$StrTraitMFC_DLL@DV?$ChTraitsCRT@D@ATL@@@@@ATL@@QAE@XZ
__unwindfunclet$?WindowProc@CUsrAddListDlg@@MAEJIIJ@Z$12:
  0005a	8d 4d cc	 lea	 ecx, DWORD PTR $T3[ebp]
  0005d	ff 25 00 00 00
	00		 jmp	 DWORD PTR __imp_??1?$CStringT@DV?$StrTraitMFC_DLL@DV?$ChTraitsCRT@D@ATL@@@@@ATL@@QAE@XZ
__unwindfunclet$?WindowProc@CUsrAddListDlg@@MAEJIIJ@Z$4:
  00063	8d 4d e0	 lea	 ecx, DWORD PTR _strCode$13[ebp]
  00066	ff 25 00 00 00
	00		 jmp	 DWORD PTR __imp_??1?$CStringT@DV?$StrTraitMFC_DLL@DV?$ChTraitsCRT@D@ATL@@@@@ATL@@QAE@XZ
__unwindfunclet$?WindowProc@CUsrAddListDlg@@MAEJIIJ@Z$5:
  0006c	8d 4d cc	 lea	 ecx, DWORD PTR $T5[ebp]
  0006f	ff 25 00 00 00
	00		 jmp	 DWORD PTR __imp_??1?$CStringT@DV?$StrTraitMFC_DLL@DV?$ChTraitsCRT@D@ATL@@@@@ATL@@QAE@XZ
  00075	cc		 int	 3
  00076	cc		 int	 3
  00077	cc		 int	 3
  00078	cc		 int	 3
  00079	cc		 int	 3
__ehhandler$?WindowProc@CUsrAddListDlg@@MAEJIIJ@Z:
  0007a	90		 npad	 1
  0007b	90		 npad	 1
  0007c	8b 54 24 08	 mov	 edx, DWORD PTR [esp+8]
  00080	8d 42 0c	 lea	 eax, DWORD PTR [edx+12]
  00083	8b 4a c4	 mov	 ecx, DWORD PTR [edx-60]
  00086	33 c8		 xor	 ecx, eax
  00088	e8 00 00 00 00	 call	 @__security_check_cookie@4
  0008d	8b 4a fc	 mov	 ecx, DWORD PTR [edx-4]
  00090	33 c8		 xor	 ecx, eax
  00092	e8 00 00 00 00	 call	 @__security_check_cookie@4
  00097	b8 00 00 00 00	 mov	 eax, OFFSET __ehfuncinfo$?WindowProc@CUsrAddListDlg@@MAEJIIJ@Z
  0009c	e9 00 00 00 00	 jmp	 ___CxxFrameHandler3
text$x	ENDS
?WindowProc@CUsrAddListDlg@@MAEJIIJ@Z ENDP		; CUsrAddListDlg::WindowProc
; Function compile flags: /Ogtp
; File D:\git\src\IBK\IBK_DRFN\ProjSrc\SrcDrfn\Chart\comparechart\UsrAddListDlg.cpp
;	COMDAT ?DoDataExchange@CUsrAddListDlg@@MAEXPAVCDataExchange@@@Z
_TEXT	SEGMENT
_pDX$ = 8						; size = 4
?DoDataExchange@CUsrAddListDlg@@MAEXPAVCDataExchange@@@Z PROC ; CUsrAddListDlg::DoDataExchange, COMDAT
; _this$ = ecx

; 37   : {

  00000	55		 push	 ebp
  00001	8b ec		 mov	 ebp, esp
  00003	56		 push	 esi
  00004	57		 push	 edi

; 38   : 	CRscDlg::DoDataExchange(pDX);

  00005	8b 7d 08	 mov	 edi, DWORD PTR _pDX$[ebp]
  00008	8b f1		 mov	 esi, ecx
  0000a	57		 push	 edi
  0000b	e8 00 00 00 00	 call	 ?DoDataExchange@CRscDlg@@MAEXPAVCDataExchange@@@Z ; CRscDlg::DoDataExchange

; 39   : 	//{{AFX_DATA_MAP(CUsrAddListDlg)
; 40   : 	DDX_Control(pDX, IDC_UALD_BTN_INIT, m_btnInitAll);

  00010	8d 86 d0 00 00
	00		 lea	 eax, DWORD PTR [esi+208]
  00016	50		 push	 eax
  00017	68 8d 18 00 00	 push	 6285			; 0000188dH
  0001c	57		 push	 edi
  0001d	e8 00 00 00 00	 call	 ?DDX_Control@@YGXPAVCDataExchange@@HAAVCWnd@@@Z ; DDX_Control

; 41   : 	DDX_Control(pDX, IDC_UALD_BTN_DEL, m_btnDelItem);

  00022	8d 86 30 02 00
	00		 lea	 eax, DWORD PTR [esi+560]
  00028	50		 push	 eax
  00029	68 8e 18 00 00	 push	 6286			; 0000188eH
  0002e	57		 push	 edi
  0002f	e8 00 00 00 00	 call	 ?DDX_Control@@YGXPAVCDataExchange@@HAAVCWnd@@@Z ; DDX_Control

; 42   : 	DDX_Control(pDX, IDC_UALD_BTN_ADD, m_btnAddItem);

  00034	8d 86 90 03 00
	00		 lea	 eax, DWORD PTR [esi+912]
  0003a	50		 push	 eax
  0003b	68 8f 18 00 00	 push	 6287			; 0000188fH
  00040	57		 push	 edi
  00041	e8 00 00 00 00	 call	 ?DDX_Control@@YGXPAVCDataExchange@@HAAVCWnd@@@Z ; DDX_Control

; 43   : 	DDX_Control(pDX, IDC_UALD_LISTCODE, m_listUsrAdd);

  00046	8d 86 f0 04 00
	00		 lea	 eax, DWORD PTR [esi+1264]
  0004c	50		 push	 eax
  0004d	68 90 18 00 00	 push	 6288			; 00001890H
  00052	57		 push	 edi
  00053	e8 00 00 00 00	 call	 ?DDX_Control@@YGXPAVCDataExchange@@HAAVCWnd@@@Z ; DDX_Control
  00058	5f		 pop	 edi
  00059	5e		 pop	 esi

; 44   : 	//}}AFX_DATA_MAP
; 45   : }

  0005a	5d		 pop	 ebp
  0005b	c2 04 00	 ret	 4
?DoDataExchange@CUsrAddListDlg@@MAEXPAVCDataExchange@@@Z ENDP ; CUsrAddListDlg::DoDataExchange
_TEXT	ENDS
; Function compile flags: /Ogtp
; File D:\git\src\IBK\IBK_DRFN\ProjSrc\SrcDrfn\Chart\comparechart\UsrAddListDlg.cpp
; File C:\Program Files (x86)\Microsoft Visual Studio\2019\Community\VC\Tools\MSVC\14.29.30133\atlmfc\include\afxwin2.inl
; File D:\git\src\IBK\IBK_DRFN\ProjSrc\SrcDrfn\Chart\comparechart\UsrAddListDlg.cpp
;	COMDAT ?OnInitDialog@CUsrAddListDlg@@MAEHXZ
_TEXT	SEGMENT
?OnInitDialog@CUsrAddListDlg@@MAEHXZ PROC		; CUsrAddListDlg::OnInitDialog, COMDAT
; _this$ = ecx

; 124  : {

  00000	55		 push	 ebp
  00001	8b ec		 mov	 ebp, esp
  00003	51		 push	 ecx
  00004	56		 push	 esi
  00005	57		 push	 edi
  00006	8b f9		 mov	 edi, ecx

; 125  : 	CRscDlg::OnInitDialog();	

  00008	e8 00 00 00 00	 call	 ?OnInitDialog@CRscDlg@@MAEHXZ ; CRscDlg::OnInitDialog
; File C:\Program Files (x86)\Microsoft Visual Studio\2019\Community\VC\Tools\MSVC\14.29.30133\atlmfc\include\afxwin2.inl

; 213  : 	{ ASSERT(::IsWindow(m_hWnd)); return CWnd::FromHandle(::GetParent(m_hWnd)); }

  0000d	ff 77 20	 push	 DWORD PTR [edi+32]
  00010	8b 35 00 00 00
	00		 mov	 esi, DWORD PTR __imp__GetParent@4
  00016	ff d6		 call	 esi
  00018	50		 push	 eax
  00019	e8 00 00 00 00	 call	 ?FromHandle@CWnd@@SGPAV1@PAUHWND__@@@Z ; CWnd::FromHandle
  0001e	ff 70 20	 push	 DWORD PTR [eax+32]
  00021	ff d6		 call	 esi
  00023	50		 push	 eax
  00024	e8 00 00 00 00	 call	 ?FromHandle@CWnd@@SGPAV1@PAUHWND__@@@Z ; CWnd::FromHandle
; File D:\git\src\IBK\IBK_DRFN\ProjSrc\SrcDrfn\Chart\comparechart\UsrAddListDlg.cpp

; 130  : 	m_btnAddItem	.FP_vSetImage(m_pIL_W60H20,  12, 14);

  00029	6a ff		 push	 -1
  0002b	6a ff		 push	 -1
  0002d	6a 00		 push	 0
  0002f	51		 push	 ecx
  00030	8b cc		 mov	 ecx, esp
  00032	c7 87 bc 00 00
	00 00 00 00 00	 mov	 DWORD PTR [edi+188], OFFSET ?m_ImgList_W60H20@CStdDialog@@2VCImageList@@A ; CStdDialog::m_ImgList_W60H20
  0003c	68 00 00 00 00	 push	 OFFSET ??_C@_00CNPNBAHC@@
  00041	ff 15 00 00 00
	00		 call	 DWORD PTR __imp_??0?$CStringT@DV?$StrTraitMFC_DLL@DV?$ChTraitsCRT@D@ATL@@@@@ATL@@QAE@PBD@Z
  00047	6a 00		 push	 0
  00049	6a 0e		 push	 14			; 0000000eH
  0004b	6a 0c		 push	 12			; 0000000cH
  0004d	ff b7 bc 00 00
	00		 push	 DWORD PTR [edi+188]
  00053	8d 8f 90 03 00
	00		 lea	 ecx, DWORD PTR [edi+912]
  00059	e8 00 00 00 00	 call	 ?FP_vSetImage@CILButton@@QAEXPAVCImageList@@HHHV?$CStringT@DV?$StrTraitMFC_DLL@DV?$ChTraitsCRT@D@ATL@@@@@ATL@@HHH@Z ; CILButton::FP_vSetImage

; 131  : 	m_btnDelItem	.FP_vSetImage(m_pIL_W60H20, 24, 26);

  0005e	6a ff		 push	 -1
  00060	6a ff		 push	 -1
  00062	6a 00		 push	 0
  00064	51		 push	 ecx
  00065	8b cc		 mov	 ecx, esp
  00067	68 00 00 00 00	 push	 OFFSET ??_C@_00CNPNBAHC@@
  0006c	ff 15 00 00 00
	00		 call	 DWORD PTR __imp_??0?$CStringT@DV?$StrTraitMFC_DLL@DV?$ChTraitsCRT@D@ATL@@@@@ATL@@QAE@PBD@Z
  00072	6a 00		 push	 0
  00074	6a 1a		 push	 26			; 0000001aH
  00076	6a 18		 push	 24			; 00000018H
  00078	ff b7 bc 00 00
	00		 push	 DWORD PTR [edi+188]
  0007e	8d 8f 30 02 00
	00		 lea	 ecx, DWORD PTR [edi+560]
  00084	e8 00 00 00 00	 call	 ?FP_vSetImage@CILButton@@QAEXPAVCImageList@@HHHV?$CStringT@DV?$StrTraitMFC_DLL@DV?$ChTraitsCRT@D@ATL@@@@@ATL@@HHH@Z ; CILButton::FP_vSetImage

; 132  : 	m_btnInitAll	.FP_vSetImage(m_pIL_W60H20, 16, 18);

  00089	6a ff		 push	 -1
  0008b	6a ff		 push	 -1
  0008d	6a 00		 push	 0
  0008f	51		 push	 ecx
  00090	8b cc		 mov	 ecx, esp
  00092	68 00 00 00 00	 push	 OFFSET ??_C@_00CNPNBAHC@@
  00097	ff 15 00 00 00
	00		 call	 DWORD PTR __imp_??0?$CStringT@DV?$StrTraitMFC_DLL@DV?$ChTraitsCRT@D@ATL@@@@@ATL@@QAE@PBD@Z
  0009d	6a 00		 push	 0
  0009f	6a 12		 push	 18			; 00000012H
  000a1	6a 10		 push	 16			; 00000010H
  000a3	ff b7 bc 00 00
	00		 push	 DWORD PTR [edi+188]
  000a9	8d 8f d0 00 00
	00		 lea	 ecx, DWORD PTR [edi+208]
  000af	e8 00 00 00 00	 call	 ?FP_vSetImage@CILButton@@QAEXPAVCImageList@@HHHV?$CStringT@DV?$StrTraitMFC_DLL@DV?$ChTraitsCRT@D@ATL@@@@@ATL@@HHH@Z ; CILButton::FP_vSetImage

; 133  : 
; 134  : /*	CString		strImageUp		;
; 135  : 	CString		strImageDown	;
; 136  : 
; 137  : 	strImageUp		= m_szImageDir + "\\_up.bmp";
; 138  : 	strImageDown	= m_szImageDir + "\\_down.bmp";
; 139  : 	m_btnAddItem	.SetSkin(strImageUp,strImageDown,"","","","",0,0,0);
; 140  : 	m_btnAddItem	.SetToolTipText("");
; 141  : 
; 142  : 	strImageUp		= m_szImageDir + "\\__up.bmp";
; 143  : 	strImageDown	= m_szImageDir + "\\__down.bmp";
; 144  : 	m_btnDelItem	.SetSkin(strImageUp,strImageDown,"","","","",0,0,0);
; 145  : 	m_btnDelItem	.SetToolTipText("");
; 146  : 
; 147  : 	strImageUp		= m_szImageDir + "\\_up.bmp";
; 148  : 	strImageDown	= m_szImageDir + "\\_down.bmp";
; 149  : 	m_btnInitAll	.SetSkin(strImageUp,strImageDown,"","","","",0,0,0);
; 150  : 	m_btnInitAll	.SetToolTipText("");
; 151  : */
; 152  : 	
; 153  : 	m_listUsrAdd.Init();

  000b4	8d 8f f0 04 00
	00		 lea	 ecx, DWORD PTR [edi+1264]
  000ba	e8 00 00 00 00	 call	 ?Init@CNsyButtonListCtrl@@QAEXXZ ; CNsyButtonListCtrl::Init

; 154  : 	m_listUsrAdd.SetRowHeight(13);

  000bf	6a 0d		 push	 13			; 0000000dH
  000c1	8d 8f f0 04 00
	00		 lea	 ecx, DWORD PTR [edi+1264]
  000c7	e8 00 00 00 00	 call	 ?SetRowHeight@CXListCtrl@@QAEXF@Z ; CXListCtrl::SetRowHeight

; 155  : 
; 156  : 	return TRUE;  // return TRUE unless you set the focus to a control
; 157  : 	              // EXCEPTION: OCX Property Pages should return FALSE
; 158  : }

  000cc	5f		 pop	 edi
  000cd	b8 01 00 00 00	 mov	 eax, 1
  000d2	5e		 pop	 esi
  000d3	8b e5		 mov	 esp, ebp
  000d5	5d		 pop	 ebp
  000d6	c3		 ret	 0
?OnInitDialog@CUsrAddListDlg@@MAEHXZ ENDP		; CUsrAddListDlg::OnInitDialog
_TEXT	ENDS
; Function compile flags: /Ogtp
; File D:\git\src\IBK\IBK_DRFN\ProjSrc\SrcDrfn\Chart\comparechart\UsrAddListDlg.cpp
; File C:\Program Files (x86)\Microsoft Visual Studio\2019\Community\VC\Tools\MSVC\14.29.30133\atlmfc\include\afxwin2.inl
; File D:\git\src\IBK\IBK_DRFN\ProjSrc\SrcDrfn\Chart\comparechart\UsrAddListDlg.cpp
;	COMDAT ?PreTranslateMessage@CUsrAddListDlg@@UAEHPAUtagMSG@@@Z
_TEXT	SEGMENT
_pMsg$ = 8						; size = 4
?PreTranslateMessage@CUsrAddListDlg@@UAEHPAUtagMSG@@@Z PROC ; CUsrAddListDlg::PreTranslateMessage, COMDAT
; _this$ = ecx

; 407  : {

  00000	55		 push	 ebp
  00001	8b ec		 mov	 ebp, esp
  00003	56		 push	 esi
  00004	8b f1		 mov	 esi, ecx

; 408  : 	// TODO: Add your specialized code here and/or call the base class
; 409  : //	switch(pMsg->message)
; 410  : //	{
; 411  : //		case WM_KEYDOWN:
; 412  : //		{
; 413  : //			switch(pMsg->wParam) 
; 414  : //			{
; 415  : //				case VK_ESCAPE:					
; 416  : //				case VK_RETURN:
; 417  : //					return TRUE;
; 418  : //					break;	
; 419  : //			}			
; 420  : //		}
; 421  : //		break;
; 422  : //	}
; 423  : 	if(::IsWindow(m_hWnd))

  00006	ff 76 20	 push	 DWORD PTR [esi+32]
  00009	ff 15 00 00 00
	00		 call	 DWORD PTR __imp__IsWindow@4
  0000f	85 c0		 test	 eax, eax
  00011	74 1b		 je	 SHORT $LN2@PreTransla
; File C:\Program Files (x86)\Microsoft Visual Studio\2019\Community\VC\Tools\MSVC\14.29.30133\atlmfc\include\afxwin2.inl

; 213  : 	{ ASSERT(::IsWindow(m_hWnd)); return CWnd::FromHandle(::GetParent(m_hWnd)); }

  00013	ff 76 20	 push	 DWORD PTR [esi+32]
  00016	ff 15 00 00 00
	00		 call	 DWORD PTR __imp__GetParent@4
  0001c	50		 push	 eax
  0001d	e8 00 00 00 00	 call	 ?FromHandle@CWnd@@SGPAV1@PAUHWND__@@@Z ; CWnd::FromHandle
  00022	5e		 pop	 esi
; File D:\git\src\IBK\IBK_DRFN\ProjSrc\SrcDrfn\Chart\comparechart\UsrAddListDlg.cpp

; 424  : 		return GetParent()->PreTranslateMessage(pMsg);

  00023	8b 10		 mov	 edx, DWORD PTR [eax]
  00025	8b c8		 mov	 ecx, eax

; 427  : }

  00027	5d		 pop	 ebp

; 424  : 		return GetParent()->PreTranslateMessage(pMsg);

  00028	ff a2 14 01 00
	00		 jmp	 DWORD PTR [edx+276]
$LN2@PreTransla:

; 425  : 	else
; 426  : 		return CRscDlg::PreTranslateMessage(pMsg);	

  0002e	ff 75 08	 push	 DWORD PTR _pMsg$[ebp]
  00031	8b ce		 mov	 ecx, esi
  00033	e8 00 00 00 00	 call	 ?PreTranslateMessage@CDialog@@UAEHPAUtagMSG@@@Z ; CDialog::PreTranslateMessage
  00038	5e		 pop	 esi

; 427  : }

  00039	5d		 pop	 ebp
  0003a	c2 04 00	 ret	 4
?PreTranslateMessage@CUsrAddListDlg@@UAEHPAUtagMSG@@@Z ENDP ; CUsrAddListDlg::PreTranslateMessage
_TEXT	ENDS
; Function compile flags: /Ogtp
; File D:\git\src\IBK\IBK_DRFN\ProjSrc\SrcDrfn\Chart\comparechart\UsrAddListDlg.cpp
;	COMDAT ??0CUsrAddListDlg@@QAE@PAVCWnd@@@Z
_TEXT	SEGMENT
_this$ = -16						; size = 4
__$EHRec$ = -12						; size = 12
_pParent$ = 8						; size = 4
??0CUsrAddListDlg@@QAE@PAVCWnd@@@Z PROC			; CUsrAddListDlg::CUsrAddListDlg, COMDAT
; _this$ = ecx

; 24   : {

  00000	55		 push	 ebp
  00001	8b ec		 mov	 ebp, esp
  00003	6a ff		 push	 -1
  00005	68 00 00 00 00	 push	 __ehhandler$??0CUsrAddListDlg@@QAE@PAVCWnd@@@Z
  0000a	64 a1 00 00 00
	00		 mov	 eax, DWORD PTR fs:0
  00010	50		 push	 eax
  00011	51		 push	 ecx
  00012	53		 push	 ebx
  00013	56		 push	 esi
  00014	57		 push	 edi
  00015	a1 00 00 00 00	 mov	 eax, DWORD PTR ___security_cookie
  0001a	33 c5		 xor	 eax, ebp
  0001c	50		 push	 eax
  0001d	8d 45 f4	 lea	 eax, DWORD PTR __$EHRec$[ebp]
  00020	64 a3 00 00 00
	00		 mov	 DWORD PTR fs:0, eax
  00026	8b d9		 mov	 ebx, ecx
  00028	89 5d f0	 mov	 DWORD PTR _this$[ebp], ebx

; 23   : 	: CRscDlg(CUsrAddListDlg::IDD, pParent)

  0002b	ff 75 08	 push	 DWORD PTR _pParent$[ebp]
  0002e	68 e9 2e 00 00	 push	 12009			; 00002ee9H
  00033	e8 00 00 00 00	 call	 ??0CRscDlg@@QAE@IPAVCWnd@@@Z ; CRscDlg::CRscDlg

; 24   : {

  00038	8d 8b c0 00 00
	00		 lea	 ecx, DWORD PTR [ebx+192]
  0003e	c7 45 fc 00 00
	00 00		 mov	 DWORD PTR __$EHRec$[ebp+8], 0
  00045	c7 03 00 00 00
	00		 mov	 DWORD PTR [ebx], OFFSET ??_7CUsrAddListDlg@@6B@
  0004b	ff 15 00 00 00
	00		 call	 DWORD PTR __imp_??0?$CStringT@DV?$StrTraitMFC_DLL@DV?$ChTraitsCRT@D@ATL@@@@@ATL@@QAE@XZ
  00051	8d 8b c4 00 00
	00		 lea	 ecx, DWORD PTR [ebx+196]
  00057	ff 15 00 00 00
	00		 call	 DWORD PTR __imp_??0?$CStringT@DV?$StrTraitMFC_DLL@DV?$ChTraitsCRT@D@ATL@@@@@ATL@@QAE@XZ
  0005d	8d 8b c8 00 00
	00		 lea	 ecx, DWORD PTR [ebx+200]
  00063	ff 15 00 00 00
	00		 call	 DWORD PTR __imp_??0?$CStringT@DV?$StrTraitMFC_DLL@DV?$ChTraitsCRT@D@ATL@@@@@ATL@@QAE@XZ
  00069	8d 8b cc 00 00
	00		 lea	 ecx, DWORD PTR [ebx+204]
  0006f	ff 15 00 00 00
	00		 call	 DWORD PTR __imp_??0?$CStringT@DV?$StrTraitMFC_DLL@DV?$ChTraitsCRT@D@ATL@@@@@ATL@@QAE@XZ
  00075	8d 8b d0 00 00
	00		 lea	 ecx, DWORD PTR [ebx+208]
  0007b	c6 45 fc 04	 mov	 BYTE PTR __$EHRec$[ebp+8], 4
  0007f	e8 00 00 00 00	 call	 ??0CILButton@@QAE@XZ	; CILButton::CILButton
  00084	8d 8b 30 02 00
	00		 lea	 ecx, DWORD PTR [ebx+560]
  0008a	c6 45 fc 05	 mov	 BYTE PTR __$EHRec$[ebp+8], 5
  0008e	e8 00 00 00 00	 call	 ??0CILButton@@QAE@XZ	; CILButton::CILButton
  00093	8d 8b 90 03 00
	00		 lea	 ecx, DWORD PTR [ebx+912]
  00099	c6 45 fc 06	 mov	 BYTE PTR __$EHRec$[ebp+8], 6
  0009d	e8 00 00 00 00	 call	 ??0CILButton@@QAE@XZ	; CILButton::CILButton
  000a2	8d 8b f0 04 00
	00		 lea	 ecx, DWORD PTR [ebx+1264]
  000a8	c6 45 fc 07	 mov	 BYTE PTR __$EHRec$[ebp+8], 7
  000ac	e8 00 00 00 00	 call	 ??0CNsyButtonListCtrl@@QAE@XZ ; CNsyButtonListCtrl::CNsyButtonListCtrl

; 25   : 	//{{AFX_DATA_INIT(CUsrAddListDlg)
; 26   : 		// NOTE: the ClassWizard will add member initialization here
; 27   : 	//}}AFX_DATA_INIT
; 28   : 	m_szImageDir= _T("");

  000b1	68 00 00 00 00	 push	 OFFSET ??_C@_00CNPNBAHC@@
  000b6	8d 8b c4 00 00
	00		 lea	 ecx, DWORD PTR [ebx+196]
  000bc	c6 45 fc 08	 mov	 BYTE PTR __$EHRec$[ebp+8], 8
  000c0	ff 15 00 00 00
	00		 call	 DWORD PTR __imp_??4?$CStringT@DV?$StrTraitMFC_DLL@DV?$ChTraitsCRT@D@ATL@@@@@ATL@@QAEAAV01@PBD@Z

; 29   : 	m_strMainPath = _T("");

  000c6	68 00 00 00 00	 push	 OFFSET ??_C@_00CNPNBAHC@@
  000cb	8d 8b c0 00 00
	00		 lea	 ecx, DWORD PTR [ebx+192]
  000d1	ff 15 00 00 00
	00		 call	 DWORD PTR __imp_??4?$CStringT@DV?$StrTraitMFC_DLL@DV?$ChTraitsCRT@D@ATL@@@@@ATL@@QAEAAV01@PBD@Z

; 30   : 
; 31   : 	//m_pIL_W20H13 = NULL;
; 32   : 	m_pIL_W60H20 = NULL;

  000d7	c7 83 bc 00 00
	00 00 00 00 00	 mov	 DWORD PTR [ebx+188], 0

; 33   : }

  000e1	8b c3		 mov	 eax, ebx
  000e3	8b 4d f4	 mov	 ecx, DWORD PTR __$EHRec$[ebp]
  000e6	64 89 0d 00 00
	00 00		 mov	 DWORD PTR fs:0, ecx
  000ed	59		 pop	 ecx
  000ee	5f		 pop	 edi
  000ef	5e		 pop	 esi
  000f0	5b		 pop	 ebx
  000f1	8b e5		 mov	 esp, ebp
  000f3	5d		 pop	 ebp
  000f4	c2 04 00	 ret	 4
_TEXT	ENDS
;	COMDAT text$x
text$x	SEGMENT
__unwindfunclet$??0CUsrAddListDlg@@QAE@PAVCWnd@@@Z$0:
  00000	8b 4d f0	 mov	 ecx, DWORD PTR _this$[ebp]
  00003	e9 00 00 00 00	 jmp	 ??1CRscDlg@@UAE@XZ
__unwindfunclet$??0CUsrAddListDlg@@QAE@PAVCWnd@@@Z$1:
  00008	8b 4d f0	 mov	 ecx, DWORD PTR _this$[ebp]
  0000b	81 c1 c0 00 00
	00		 add	 ecx, 192		; 000000c0H
  00011	ff 25 00 00 00
	00		 jmp	 DWORD PTR __imp_??1?$CStringT@DV?$StrTraitMFC_DLL@DV?$ChTraitsCRT@D@ATL@@@@@ATL@@QAE@XZ
__unwindfunclet$??0CUsrAddListDlg@@QAE@PAVCWnd@@@Z$2:
  00017	8b 4d f0	 mov	 ecx, DWORD PTR _this$[ebp]
  0001a	81 c1 c4 00 00
	00		 add	 ecx, 196		; 000000c4H
  00020	ff 25 00 00 00
	00		 jmp	 DWORD PTR __imp_??1?$CStringT@DV?$StrTraitMFC_DLL@DV?$ChTraitsCRT@D@ATL@@@@@ATL@@QAE@XZ
__unwindfunclet$??0CUsrAddListDlg@@QAE@PAVCWnd@@@Z$3:
  00026	8b 4d f0	 mov	 ecx, DWORD PTR _this$[ebp]
  00029	81 c1 c8 00 00
	00		 add	 ecx, 200		; 000000c8H
  0002f	ff 25 00 00 00
	00		 jmp	 DWORD PTR __imp_??1?$CStringT@DV?$StrTraitMFC_DLL@DV?$ChTraitsCRT@D@ATL@@@@@ATL@@QAE@XZ
__unwindfunclet$??0CUsrAddListDlg@@QAE@PAVCWnd@@@Z$4:
  00035	8b 4d f0	 mov	 ecx, DWORD PTR _this$[ebp]
  00038	81 c1 cc 00 00
	00		 add	 ecx, 204		; 000000ccH
  0003e	ff 25 00 00 00
	00		 jmp	 DWORD PTR __imp_??1?$CStringT@DV?$StrTraitMFC_DLL@DV?$ChTraitsCRT@D@ATL@@@@@ATL@@QAE@XZ
__unwindfunclet$??0CUsrAddListDlg@@QAE@PAVCWnd@@@Z$5:
  00044	8b 4d f0	 mov	 ecx, DWORD PTR _this$[ebp]
  00047	81 c1 d0 00 00
	00		 add	 ecx, 208		; 000000d0H
  0004d	e9 00 00 00 00	 jmp	 ??1CILButton@@UAE@XZ	; CILButton::~CILButton
__unwindfunclet$??0CUsrAddListDlg@@QAE@PAVCWnd@@@Z$6:
  00052	8b 4d f0	 mov	 ecx, DWORD PTR _this$[ebp]
  00055	81 c1 30 02 00
	00		 add	 ecx, 560		; 00000230H
  0005b	e9 00 00 00 00	 jmp	 ??1CILButton@@UAE@XZ	; CILButton::~CILButton
__unwindfunclet$??0CUsrAddListDlg@@QAE@PAVCWnd@@@Z$7:
  00060	8b 4d f0	 mov	 ecx, DWORD PTR _this$[ebp]
  00063	81 c1 90 03 00
	00		 add	 ecx, 912		; 00000390H
  00069	e9 00 00 00 00	 jmp	 ??1CILButton@@UAE@XZ	; CILButton::~CILButton
__unwindfunclet$??0CUsrAddListDlg@@QAE@PAVCWnd@@@Z$8:
  0006e	8b 4d f0	 mov	 ecx, DWORD PTR _this$[ebp]
  00071	81 c1 f0 04 00
	00		 add	 ecx, 1264		; 000004f0H
  00077	e9 00 00 00 00	 jmp	 ??1CNsyButtonListCtrl@@UAE@XZ ; CNsyButtonListCtrl::~CNsyButtonListCtrl
  0007c	cc		 int	 3
  0007d	cc		 int	 3
  0007e	cc		 int	 3
  0007f	cc		 int	 3
  00080	cc		 int	 3
__ehhandler$??0CUsrAddListDlg@@QAE@PAVCWnd@@@Z:
  00081	90		 npad	 1
  00082	90		 npad	 1
  00083	8b 54 24 08	 mov	 edx, DWORD PTR [esp+8]
  00087	8d 42 0c	 lea	 eax, DWORD PTR [edx+12]
  0008a	8b 4a ec	 mov	 ecx, DWORD PTR [edx-20]
  0008d	33 c8		 xor	 ecx, eax
  0008f	e8 00 00 00 00	 call	 @__security_check_cookie@4
  00094	b8 00 00 00 00	 mov	 eax, OFFSET __ehfuncinfo$??0CUsrAddListDlg@@QAE@PAVCWnd@@@Z
  00099	e9 00 00 00 00	 jmp	 ___CxxFrameHandler3
text$x	ENDS
??0CUsrAddListDlg@@QAE@PAVCWnd@@@Z ENDP			; CUsrAddListDlg::CUsrAddListDlg
; Function compile flags: /Ogtp
; File D:\git\src\IBK\IBK_DRFN\ProjSrc\SrcDrfn\Chart\comparechart\UsrAddListDlg.cpp
; File C:\Program Files (x86)\Microsoft Visual Studio\2019\Community\VC\Tools\MSVC\14.29.30133\atlmfc\include\afxcmn.inl
; File D:\git\src\IBK\IBK_DRFN\ProjSrc\SrcDrfn\Chart\comparechart\UsrAddListDlg.cpp
; File C:\Program Files (x86)\Microsoft Visual Studio\2019\Community\VC\Tools\MSVC\14.29.30133\atlmfc\include\afxwin1.inl
; File D:\git\src\IBK\IBK_DRFN\ProjSrc\SrcDrfn\Chart\comparechart\UsrAddListDlg.cpp
; File C:\Program Files (x86)\Microsoft Visual Studio\2019\Community\VC\Tools\MSVC\14.29.30133\atlmfc\include\afxwin1.inl
; File D:\git\src\IBK\IBK_DRFN\ProjSrc\SrcDrfn\Chart\comparechart\UsrAddListDlg.cpp
; File C:\Program Files (x86)\Microsoft Visual Studio\2019\Community\VC\Tools\MSVC\14.29.30133\atlmfc\include\afxwin1.inl
; File D:\git\src\IBK\IBK_DRFN\ProjSrc\SrcDrfn\Chart\comparechart\UsrAddListDlg.cpp
; File C:\Program Files (x86)\Microsoft Visual Studio\2019\Community\VC\Tools\MSVC\14.29.30133\atlmfc\include\afxwin1.inl
; File D:\git\src\IBK\IBK_DRFN\ProjSrc\SrcDrfn\Chart\comparechart\UsrAddListDlg.cpp
; File C:\Program Files (x86)\Microsoft Visual Studio\2019\Community\VC\Tools\MSVC\14.29.30133\atlmfc\include\afxwin2.inl
; File C:\Program Files (x86)\Microsoft Visual Studio\2019\Community\VC\Tools\MSVC\14.29.30133\atlmfc\include\atlsimpstr.h
; File C:\Program Files (x86)\Microsoft Visual Studio\2019\Community\VC\Tools\MSVC\14.29.30133\atlmfc\include\afxwin2.inl
; File D:\git\src\IBK\IBK_DRFN\ProjSrc\SrcDrfn\Chart\comparechart\UsrAddListDlg.cpp
; File C:\Program Files (x86)\Microsoft Visual Studio\2019\Community\VC\Tools\MSVC\14.29.30133\atlmfc\include\afxwin2.inl
; File D:\git\src\IBK\IBK_DRFN\ProjSrc\SrcDrfn\Chart\comparechart\UsrAddListDlg.cpp
;	COMDAT ?AddItem@CUsrAddListDlg@@QAEXXZ
_TEXT	SEGMENT
_dlgMaxItem$2 = -212					; size = 176
tv407 = -36						; size = 4
$T3 = -32						; size = 4
_this$1$ = -28						; size = 4
_bCanAddNewCode$1$ = -24				; size = 4
_strCode$4 = -20					; size = 4
_nTot$1$ = -16						; size = 4
_nReturn$5 = -16					; size = 4
__$EHRec$ = -12						; size = 12
?AddItem@CUsrAddListDlg@@QAEXXZ PROC			; CUsrAddListDlg::AddItem, COMDAT
; _this$ = ecx

; 227  : {

  00000	55		 push	 ebp
  00001	8b ec		 mov	 ebp, esp
  00003	6a ff		 push	 -1
  00005	68 00 00 00 00	 push	 __ehhandler$?AddItem@CUsrAddListDlg@@QAEXXZ
  0000a	64 a1 00 00 00
	00		 mov	 eax, DWORD PTR fs:0
  00010	50		 push	 eax
  00011	81 ec c8 00 00
	00		 sub	 esp, 200		; 000000c8H
  00017	53		 push	 ebx
  00018	56		 push	 esi
  00019	57		 push	 edi
  0001a	a1 00 00 00 00	 mov	 eax, DWORD PTR ___security_cookie
  0001f	33 c5		 xor	 eax, ebp
  00021	50		 push	 eax
  00022	8d 45 f4	 lea	 eax, DWORD PTR __$EHRec$[ebp]
  00025	64 a3 00 00 00
	00		 mov	 DWORD PTR fs:0, eax
  0002b	8b d9		 mov	 ebx, ecx
  0002d	89 5d e4	 mov	 DWORD PTR _this$1$[ebp], ebx

; 228  : 	m_listUsrAdd.m_szImageDir = m_szImageDir;

  00030	8d 83 c4 00 00
	00		 lea	 eax, DWORD PTR [ebx+196]
  00036	50		 push	 eax
  00037	8d 8b 1c 07 00
	00		 lea	 ecx, DWORD PTR [ebx+1820]
  0003d	ff 15 00 00 00
	00		 call	 DWORD PTR __imp_??4?$CStringT@DV?$StrTraitMFC_DLL@DV?$ChTraitsCRT@D@ATL@@@@@ATL@@QAEAAV01@ABV01@@Z
; File C:\Program Files (x86)\Microsoft Visual Studio\2019\Community\VC\Tools\MSVC\14.29.30133\atlmfc\include\afxcmn.inl

; 155  : 	{ ASSERT(::IsWindow(m_hWnd)); return (int) ::SendMessage(m_hWnd, LVM_GETITEMCOUNT, 0, 0L); }

  00043	6a 00		 push	 0
  00045	6a 00		 push	 0
  00047	68 04 10 00 00	 push	 4100			; 00001004H
  0004c	ff b3 10 05 00
	00		 push	 DWORD PTR [ebx+1296]
  00052	ff 15 00 00 00
	00		 call	 DWORD PTR __imp__SendMessageA@16
; File D:\git\src\IBK\IBK_DRFN\ProjSrc\SrcDrfn\Chart\comparechart\UsrAddListDlg.cpp

; 229  : 	int nTot = m_listUsrAdd.GetItemCount();

  00058	89 45 f0	 mov	 DWORD PTR _nTot$1$[ebp], eax

; 230  : 	
; 231  : 	if(nTot >= MAX_ITEM_CNT)

  0005b	83 f8 0a	 cmp	 eax, 10			; 0000000aH
  0005e	0f 8c b8 00 00
	00		 jl	 $LN5@AddItem

; 232  : 	{
; 233  : 		//-->@080522-002 
; 234  : //		CString szMsg;
; 235  : //		szMsg.Format(" %d  .", MAX_ITEM_CNT);
; 236  : //		AfxMessageBox(szMsg);
; 237  : 
; 238  : 		//<--
; 239  : 
; 240  : 		int nReturn = -1;

  00064	c7 45 f0 ff ff
	ff ff		 mov	 DWORD PTR _nReturn$5[ebp], -1
; File C:\Program Files (x86)\Microsoft Visual Studio\2019\Community\VC\Tools\MSVC\14.29.30133\atlmfc\include\afxwin1.inl

; 25   : 		return afxCurrentResourceHandle; }

  0006b	e8 00 00 00 00	 call	 ?AfxGetModuleState@@YGPAVAFX_MODULE_STATE@@XZ ; AfxGetModuleState
; File D:\git\src\IBK\IBK_DRFN\ProjSrc\SrcDrfn\Chart\comparechart\UsrAddListDlg.cpp

; 244  : 		AfxSetResourceHandle(g_hInstance);

  00070	8b 35 00 00 00
	00		 mov	 esi, DWORD PTR ?g_hInstance@@3PAUHINSTANCE__@@A ; g_hInstance
; File C:\Program Files (x86)\Microsoft Visual Studio\2019\Community\VC\Tools\MSVC\14.29.30133\atlmfc\include\afxwin1.inl

; 25   : 		return afxCurrentResourceHandle; }

  00076	8b 78 0c	 mov	 edi, DWORD PTR [eax+12]

; 27   : 	{ ASSERT(hInstResource != NULL); afxCurrentResourceHandle = hInstResource; }

  00079	e8 00 00 00 00	 call	 ?AfxGetModuleState@@YGPAVAFX_MODULE_STATE@@XZ ; AfxGetModuleState
; File D:\git\src\IBK\IBK_DRFN\ProjSrc\SrcDrfn\Chart\comparechart\UsrAddListDlg.cpp

; 245  : 		CDlgItemMaxCount dlgMaxItem(MAX_ITEM_CNT, nReturn, this);

  0007e	53		 push	 ebx
  0007f	8d 8d 2c ff ff
	ff		 lea	 ecx, DWORD PTR _dlgMaxItem$2[ebp]
; File C:\Program Files (x86)\Microsoft Visual Studio\2019\Community\VC\Tools\MSVC\14.29.30133\atlmfc\include\afxwin1.inl

; 27   : 	{ ASSERT(hInstResource != NULL); afxCurrentResourceHandle = hInstResource; }

  00085	89 70 0c	 mov	 DWORD PTR [eax+12], esi
; File D:\git\src\IBK\IBK_DRFN\ProjSrc\SrcDrfn\Chart\comparechart\UsrAddListDlg.cpp

; 245  : 		CDlgItemMaxCount dlgMaxItem(MAX_ITEM_CNT, nReturn, this);

  00088	8d 45 f0	 lea	 eax, DWORD PTR _nReturn$5[ebp]
  0008b	50		 push	 eax
  0008c	6a 0a		 push	 10			; 0000000aH
  0008e	e8 00 00 00 00	 call	 ??0CDlgItemMaxCount@@QAE@HAAHPAVCWnd@@@Z ; CDlgItemMaxCount::CDlgItemMaxCount

; 246  : 		dlgMaxItem.DoModal();

  00093	8d 8d 2c ff ff
	ff		 lea	 ecx, DWORD PTR _dlgMaxItem$2[ebp]
  00099	c7 45 fc 00 00
	00 00		 mov	 DWORD PTR __$EHRec$[ebp+8], 0
  000a0	e8 00 00 00 00	 call	 ?DoModal@CDialog@@UAEHXZ ; CDialog::DoModal
; File C:\Program Files (x86)\Microsoft Visual Studio\2019\Community\VC\Tools\MSVC\14.29.30133\atlmfc\include\afxwin1.inl

; 27   : 	{ ASSERT(hInstResource != NULL); afxCurrentResourceHandle = hInstResource; }

  000a5	e8 00 00 00 00	 call	 ?AfxGetModuleState@@YGPAVAFX_MODULE_STATE@@XZ ; AfxGetModuleState
  000aa	89 78 0c	 mov	 DWORD PTR [eax+12], edi
; File D:\git\src\IBK\IBK_DRFN\ProjSrc\SrcDrfn\Chart\comparechart\UsrAddListDlg.cpp

; 249  : 		if(nReturn == IDOK) //    

  000ad	8b 45 f0	 mov	 eax, DWORD PTR _nReturn$5[ebp]
  000b0	83 f8 01	 cmp	 eax, 1
  000b3	75 2f		 jne	 SHORT $LN7@AddItem

; 250  : 		{
; 251  : 			m_listUsrAdd.Init_CompareChart();

  000b5	8d 8b f0 04 00
	00		 lea	 ecx, DWORD PTR [ebx+1264]
  000bb	e8 00 00 00 00	 call	 ?Init_CompareChart@CNsyButtonListCtrl@@QAEXXZ ; CNsyButtonListCtrl::Init_CompareChart

; 259  : 			AddItem();
; 260  : 			return;
; 261  : 		}
; 262  : 		else	// 
; 263  : 			return;

  000c0	8b cb		 mov	 ecx, ebx
  000c2	e8 00 00 00 00	 call	 ?AddItem@CUsrAddListDlg@@QAEXXZ ; CUsrAddListDlg::AddItem
  000c7	8d 8d 2c ff ff
	ff		 lea	 ecx, DWORD PTR _dlgMaxItem$2[ebp]
  000cd	e8 00 00 00 00	 call	 ??1CDialog@@UAE@XZ	; CDialog::~CDialog

; 316  : 	}
; 317  : }

  000d2	8b 4d f4	 mov	 ecx, DWORD PTR __$EHRec$[ebp]
  000d5	64 89 0d 00 00
	00 00		 mov	 DWORD PTR fs:0, ecx
  000dc	59		 pop	 ecx
  000dd	5f		 pop	 edi
  000de	5e		 pop	 esi
  000df	5b		 pop	 ebx
  000e0	8b e5		 mov	 esp, ebp
  000e2	5d		 pop	 ebp
  000e3	c3		 ret	 0
$LN7@AddItem:

; 252  : 			AddItem();
; 253  : 			return;
; 254  : 
; 255  : 		}
; 256  : 		else if(nReturn == ID_BTN_MODIFY)	//   

  000e4	3d 8e 18 00 00	 cmp	 eax, 6286		; 0000188eH
  000e9	75 14		 jne	 SHORT $LN18@AddItem

; 257  : 		{
; 258  : 			m_listUsrAdd.SendToChartRemoveGraph(MAX_ITEM_CNT - 1);

  000eb	8d 8b f0 04 00
	00		 lea	 ecx, DWORD PTR [ebx+1264]
  000f1	6a 09		 push	 9
  000f3	e8 00 00 00 00	 call	 ?SendToChartRemoveGraph@CNsyButtonListCtrl@@QAEXH@Z ; CNsyButtonListCtrl::SendToChartRemoveGraph

; 259  : 			AddItem();
; 260  : 			return;
; 261  : 		}
; 262  : 		else	// 
; 263  : 			return;

  000f8	8b cb		 mov	 ecx, ebx
  000fa	e8 00 00 00 00	 call	 ?AddItem@CUsrAddListDlg@@QAEXXZ ; CUsrAddListDlg::AddItem
$LN18@AddItem:
  000ff	8d 8d 2c ff ff
	ff		 lea	 ecx, DWORD PTR _dlgMaxItem$2[ebp]
  00105	e8 00 00 00 00	 call	 ??1CDialog@@UAE@XZ	; CDialog::~CDialog

; 316  : 	}
; 317  : }

  0010a	8b 4d f4	 mov	 ecx, DWORD PTR __$EHRec$[ebp]
  0010d	64 89 0d 00 00
	00 00		 mov	 DWORD PTR fs:0, ecx
  00114	59		 pop	 ecx
  00115	5f		 pop	 edi
  00116	5e		 pop	 esi
  00117	5b		 pop	 ebx
  00118	8b e5		 mov	 esp, ebp
  0011a	5d		 pop	 ebp
  0011b	c3		 ret	 0
$LN5@AddItem:

; 264  : 	}
; 265  : 	else
; 266  : 	{
; 267  : 		m_strOpCode.TrimLeft(); m_strOpCode.TrimRight();

  0011c	8d b3 c8 00 00
	00		 lea	 esi, DWORD PTR [ebx+200]
  00122	8b ce		 mov	 ecx, esi
  00124	89 75 dc	 mov	 DWORD PTR tv407[ebp], esi
  00127	ff 15 00 00 00
	00		 call	 DWORD PTR __imp_?TrimLeft@?$CStringT@DV?$StrTraitMFC_DLL@DV?$ChTraitsCRT@D@ATL@@@@@ATL@@QAEAAV12@XZ
  0012d	8b ce		 mov	 ecx, esi
  0012f	ff 15 00 00 00
	00		 call	 DWORD PTR __imp_?TrimRight@?$CStringT@DV?$StrTraitMFC_DLL@DV?$ChTraitsCRT@D@ATL@@@@@ATL@@QAEAAV12@XZ

; 268  : 		BOOL bCanAddNewCode = TRUE; //    .
; 269  : 		for(int i = 0; i < nTot ; i++)	

  00135	33 f6		 xor	 esi, esi
  00137	c7 45 e8 01 00
	00 00		 mov	 DWORD PTR _bCanAddNewCode$1$[ebp], 1
  0013e	8d bb f0 04 00
	00		 lea	 edi, DWORD PTR [ebx+1264]
  00144	39 75 f0	 cmp	 DWORD PTR _nTot$1$[ebp], esi
  00147	0f 8e ae 00 00
	00		 jle	 $LN59@AddItem
  0014d	8b 5d f0	 mov	 ebx, DWORD PTR _nTot$1$[ebp]
$LL4@AddItem:

; 270  : 		{
; 271  : 			CString strCode;

  00150	8d 4d ec	 lea	 ecx, DWORD PTR _strCode$4[ebp]
  00153	ff 15 00 00 00
	00		 call	 DWORD PTR __imp_??0?$CStringT@DV?$StrTraitMFC_DLL@DV?$ChTraitsCRT@D@ATL@@@@@ATL@@QAE@XZ

; 272  : 			strCode = m_listUsrAdd.GetItemText(i, 1); strCode.TrimLeft(); strCode.TrimRight();

  00159	6a 01		 push	 1
  0015b	56		 push	 esi
  0015c	8d 45 e0	 lea	 eax, DWORD PTR $T3[ebp]
  0015f	c7 45 fc 01 00
	00 00		 mov	 DWORD PTR __$EHRec$[ebp+8], 1
  00166	50		 push	 eax
  00167	8b cf		 mov	 ecx, edi
  00169	e8 00 00 00 00	 call	 ?GetItemText@CListCtrl@@QBE?AV?$CStringT@DV?$StrTraitMFC_DLL@DV?$ChTraitsCRT@D@ATL@@@@@ATL@@HH@Z ; CListCtrl::GetItemText
  0016e	50		 push	 eax
  0016f	8d 4d ec	 lea	 ecx, DWORD PTR _strCode$4[ebp]
  00172	c6 45 fc 02	 mov	 BYTE PTR __$EHRec$[ebp+8], 2
  00176	ff 15 00 00 00
	00		 call	 DWORD PTR __imp_??4?$CStringT@DV?$StrTraitMFC_DLL@DV?$ChTraitsCRT@D@ATL@@@@@ATL@@QAEAAV01@ABV01@@Z
  0017c	8d 4d e0	 lea	 ecx, DWORD PTR $T3[ebp]
  0017f	c6 45 fc 01	 mov	 BYTE PTR __$EHRec$[ebp+8], 1
  00183	ff 15 00 00 00
	00		 call	 DWORD PTR __imp_??1?$CStringT@DV?$StrTraitMFC_DLL@DV?$ChTraitsCRT@D@ATL@@@@@ATL@@QAE@XZ
  00189	8d 4d ec	 lea	 ecx, DWORD PTR _strCode$4[ebp]
  0018c	ff 15 00 00 00
	00		 call	 DWORD PTR __imp_?TrimLeft@?$CStringT@DV?$StrTraitMFC_DLL@DV?$ChTraitsCRT@D@ATL@@@@@ATL@@QAEAAV12@XZ
  00192	8d 4d ec	 lea	 ecx, DWORD PTR _strCode$4[ebp]
  00195	ff 15 00 00 00
	00		 call	 DWORD PTR __imp_?TrimRight@?$CStringT@DV?$StrTraitMFC_DLL@DV?$ChTraitsCRT@D@ATL@@@@@ATL@@QAEAAV12@XZ

; 273  : 			
; 274  : 			if(m_strOpCode.CompareNoCase(strCode) == 0) bCanAddNewCode = FALSE;

  0019b	ff 75 ec	 push	 DWORD PTR _strCode$4[ebp]
  0019e	8b 4d dc	 mov	 ecx, DWORD PTR tv407[ebp]
  001a1	ff 15 00 00 00
	00		 call	 DWORD PTR __imp_?CompareNoCase@?$CStringT@DV?$StrTraitMFC_DLL@DV?$ChTraitsCRT@D@ATL@@@@@ATL@@QBEHPBD@Z
  001a7	f7 d8		 neg	 eax

; 275  : 			m_listUsrAdd.SetCurSel(i, FALSE);

  001a9	8b cf		 mov	 ecx, edi
  001ab	6a 00		 push	 0
  001ad	1b c0		 sbb	 eax, eax
  001af	21 45 e8	 and	 DWORD PTR _bCanAddNewCode$1$[ebp], eax
  001b2	56		 push	 esi
  001b3	e8 00 00 00 00	 call	 ?SetCurSel@CXListCtrl@@QAEHHH@Z ; CXListCtrl::SetCurSel

; 276  : 		}

  001b8	8d 4d ec	 lea	 ecx, DWORD PTR _strCode$4[ebp]
  001bb	c7 45 fc ff ff
	ff ff		 mov	 DWORD PTR __$EHRec$[ebp+8], -1
  001c2	ff 15 00 00 00
	00		 call	 DWORD PTR __imp_??1?$CStringT@DV?$StrTraitMFC_DLL@DV?$ChTraitsCRT@D@ATL@@@@@ATL@@QAE@XZ
  001c8	46		 inc	 esi
  001c9	3b f3		 cmp	 esi, ebx
  001cb	7c 83		 jl	 SHORT $LL4@AddItem

; 277  : 
; 278  : 		if(bCanAddNewCode == FALSE) 

  001cd	83 7d e8 00	 cmp	 DWORD PTR _bCanAddNewCode$1$[ebp], 0
  001d1	8b 5d e4	 mov	 ebx, DWORD PTR _this$1$[ebp]
  001d4	75 25		 jne	 SHORT $LN59@AddItem

; 279  : 		{
; 280  : 			MessageBox("   ", "", MB_OK | MB_ICONEXCLAMATION);

  001d6	6a 30		 push	 48			; 00000030H
  001d8	68 00 00 00 00	 push	 OFFSET ??_C@_04OFPKEPEE@?$LO?H?$LD?$LL@
  001dd	68 00 00 00 00	 push	 OFFSET ??_C@_0BO@CCHFAMEF@?$MA?L?$LJ?L?5?C?$NP?$LA?$KB?$LF?G?$LO?n?5?$MA?V?$LE?B?5?A?$LO?$LI?q?$MA?T?$LE?O?$LE?Y@
  001e2	8b cb		 mov	 ecx, ebx
  001e4	e8 00 00 00 00	 call	 ?MessageBoxA@CWnd@@QAEHPBD0I@Z ; CWnd::MessageBoxA

; 316  : 	}
; 317  : }

  001e9	8b 4d f4	 mov	 ecx, DWORD PTR __$EHRec$[ebp]
  001ec	64 89 0d 00 00
	00 00		 mov	 DWORD PTR fs:0, ecx
  001f3	59		 pop	 ecx
  001f4	5f		 pop	 edi
  001f5	5e		 pop	 esi
  001f6	5b		 pop	 ebx
  001f7	8b e5		 mov	 esp, ebp
  001f9	5d		 pop	 ebp
  001fa	c3		 ret	 0
$LN59@AddItem:

; 281  : 			return;
; 282  : 		}
; 283  : 		
; 284  : //		if(m_strOpCode)
; 285  : 		m_listUsrAdd.InsertItem(nTot, m_strOpCodeName);	

  001fb	ff b3 cc 00 00
	00		 push	 DWORD PTR [ebx+204]
  00201	8b 75 f0	 mov	 esi, DWORD PTR _nTot$1$[ebp]
  00204	8b cf		 mov	 ecx, edi
  00206	56		 push	 esi
  00207	e8 00 00 00 00	 call	 ?InsertItem@CXListCtrl@@QAEHHPBD@Z ; CXListCtrl::InsertItem

; 286  : 		m_listUsrAdd.SetCurSel(nTot);

  0020c	6a 01		 push	 1
  0020e	56		 push	 esi
  0020f	8b cf		 mov	 ecx, edi
  00211	e8 00 00 00 00	 call	 ?SetCurSel@CXListCtrl@@QAEHHH@Z ; CXListCtrl::SetCurSel

; 287  : 
; 288  : 		//m_listUsrAdd.SetItemText(nTot, 0,	m_strOpCodeName);
; 289  : 		//@Solomon-100127    .
; 290  : //		if(nTot==0) m_listUsrAdd.m_bShowBlank=TRUE;
; 291  : //		else m_listUsrAdd.m_bShowBlank=FALSE;
; 292  : 
; 293  : 		m_listUsrAdd.SetItemText(nTot, 1,	m_strOpCode);

  00216	ff b3 c8 00 00
	00		 push	 DWORD PTR [ebx+200]
  0021c	8b cf		 mov	 ecx, edi
  0021e	6a 01		 push	 1
  00220	56		 push	 esi
  00221	e8 00 00 00 00	 call	 ?SetItemText@CXListCtrl@@QAEHHHPBD@Z ; CXListCtrl::SetItemText

; 294  : 		m_listUsrAdd.SetItemButton(nTot,	m_strOpCode, atoi(m_strOpCode));	

  00226	ff b3 c8 00 00
	00		 push	 DWORD PTR [ebx+200]
  0022c	ff 15 00 00 00
	00		 call	 DWORD PTR __imp__atoi
  00232	83 c4 04	 add	 esp, 4
  00235	50		 push	 eax
  00236	51		 push	 ecx
  00237	8d 83 c8 00 00
	00		 lea	 eax, DWORD PTR [ebx+200]
  0023d	8b cc		 mov	 ecx, esp
  0023f	50		 push	 eax
  00240	ff 15 00 00 00
	00		 call	 DWORD PTR __imp_??0?$CStringT@DV?$StrTraitMFC_DLL@DV?$ChTraitsCRT@D@ATL@@@@@ATL@@QAE@ABV01@@Z
  00246	56		 push	 esi
  00247	8b cf		 mov	 ecx, edi
  00249	e8 00 00 00 00	 call	 ?SetItemButton@CNsyButtonListCtrl@@QAEXHV?$CStringT@DV?$StrTraitMFC_DLL@DV?$ChTraitsCRT@D@ATL@@@@@ATL@@H@Z ; CNsyButtonListCtrl::SetItemButton
; File C:\Program Files (x86)\Microsoft Visual Studio\2019\Community\VC\Tools\MSVC\14.29.30133\atlmfc\include\afxwin2.inl

; 114  : 	{ ASSERT(::IsWindow(m_hWnd)); ::InvalidateRect(m_hWnd, NULL, bErase); }

  0024e	6a 01		 push	 1
  00250	6a 00		 push	 0
  00252	ff b3 10 05 00
	00		 push	 DWORD PTR [ebx+1296]
  00258	ff 15 00 00 00
	00		 call	 DWORD PTR __imp__InvalidateRect@12

; 213  : 	{ ASSERT(::IsWindow(m_hWnd)); return CWnd::FromHandle(::GetParent(m_hWnd)); }

  0025e	ff 73 20	 push	 DWORD PTR [ebx+32]
; File C:\Program Files (x86)\Microsoft Visual Studio\2019\Community\VC\Tools\MSVC\14.29.30133\atlmfc\include\atlsimpstr.h

; 377  : 		return( m_pszData );

  00261	8b b3 c8 00 00
	00		 mov	 esi, DWORD PTR [ebx+200]
; File C:\Program Files (x86)\Microsoft Visual Studio\2019\Community\VC\Tools\MSVC\14.29.30133\atlmfc\include\afxwin2.inl

; 213  : 	{ ASSERT(::IsWindow(m_hWnd)); return CWnd::FromHandle(::GetParent(m_hWnd)); }

  00267	8b 3d 00 00 00
	00		 mov	 edi, DWORD PTR __imp__GetParent@4
  0026d	ff d7		 call	 edi
  0026f	50		 push	 eax
  00270	e8 00 00 00 00	 call	 ?FromHandle@CWnd@@SGPAV1@PAUHWND__@@@Z ; CWnd::FromHandle
; File D:\git\src\IBK\IBK_DRFN\ProjSrc\SrcDrfn\Chart\comparechart\UsrAddListDlg.cpp

; 315  : 		((CStdDialog*)(GetParent()->GetParent()))->RequestTRFormCode(m_strOpCode);

  00275	6a 00		 push	 0
  00277	56		 push	 esi
; File C:\Program Files (x86)\Microsoft Visual Studio\2019\Community\VC\Tools\MSVC\14.29.30133\atlmfc\include\afxwin2.inl

; 213  : 	{ ASSERT(::IsWindow(m_hWnd)); return CWnd::FromHandle(::GetParent(m_hWnd)); }

  00278	ff 70 20	 push	 DWORD PTR [eax+32]
  0027b	ff d7		 call	 edi
  0027d	50		 push	 eax
  0027e	e8 00 00 00 00	 call	 ?FromHandle@CWnd@@SGPAV1@PAUHWND__@@@Z ; CWnd::FromHandle
; File D:\git\src\IBK\IBK_DRFN\ProjSrc\SrcDrfn\Chart\comparechart\UsrAddListDlg.cpp

; 315  : 		((CStdDialog*)(GetParent()->GetParent()))->RequestTRFormCode(m_strOpCode);

  00283	8b c8		 mov	 ecx, eax
  00285	e8 00 00 00 00	 call	 ?RequestTRFormCode@CStdDialog@@QAEHPBDH@Z ; CStdDialog::RequestTRFormCode

; 316  : 	}
; 317  : }

  0028a	8b 4d f4	 mov	 ecx, DWORD PTR __$EHRec$[ebp]
  0028d	64 89 0d 00 00
	00 00		 mov	 DWORD PTR fs:0, ecx
  00294	59		 pop	 ecx
  00295	5f		 pop	 edi
  00296	5e		 pop	 esi
  00297	5b		 pop	 ebx
  00298	8b e5		 mov	 esp, ebp
  0029a	5d		 pop	 ebp
  0029b	c3		 ret	 0
_TEXT	ENDS
;	COMDAT text$x
text$x	SEGMENT
__unwindfunclet$?AddItem@CUsrAddListDlg@@QAEXXZ$0:
  00000	8d 8d 2c ff ff
	ff		 lea	 ecx, DWORD PTR _dlgMaxItem$2[ebp]
  00006	e9 00 00 00 00	 jmp	 ??1CDlgItemMaxCount@@UAE@XZ
__unwindfunclet$?AddItem@CUsrAddListDlg@@QAEXXZ$1:
  0000b	8d 4d ec	 lea	 ecx, DWORD PTR _strCode$4[ebp]
  0000e	ff 25 00 00 00
	00		 jmp	 DWORD PTR __imp_??1?$CStringT@DV?$StrTraitMFC_DLL@DV?$ChTraitsCRT@D@ATL@@@@@ATL@@QAE@XZ
__unwindfunclet$?AddItem@CUsrAddListDlg@@QAEXXZ$2:
  00014	8d 4d e0	 lea	 ecx, DWORD PTR $T3[ebp]
  00017	ff 25 00 00 00
	00		 jmp	 DWORD PTR __imp_??1?$CStringT@DV?$StrTraitMFC_DLL@DV?$ChTraitsCRT@D@ATL@@@@@ATL@@QAE@XZ
  0001d	cc		 int	 3
  0001e	cc		 int	 3
  0001f	cc		 int	 3
  00020	cc		 int	 3
  00021	cc		 int	 3
__ehhandler$?AddItem@CUsrAddListDlg@@QAEXXZ:
  00022	90		 npad	 1
  00023	90		 npad	 1
  00024	8b 54 24 08	 mov	 edx, DWORD PTR [esp+8]
  00028	8d 42 0c	 lea	 eax, DWORD PTR [edx+12]
  0002b	8b 8a 28 ff ff
	ff		 mov	 ecx, DWORD PTR [edx-216]
  00031	33 c8		 xor	 ecx, eax
  00033	e8 00 00 00 00	 call	 @__security_check_cookie@4
  00038	b8 00 00 00 00	 mov	 eax, OFFSET __ehfuncinfo$?AddItem@CUsrAddListDlg@@QAEXXZ
  0003d	e9 00 00 00 00	 jmp	 ___CxxFrameHandler3
text$x	ENDS
?AddItem@CUsrAddListDlg@@QAEXXZ ENDP			; CUsrAddListDlg::AddItem
; Function compile flags: /Ogtp
; File D:\git\src\IBK\IBK_DRFN\ProjSrc\SrcDrfn\Chart\comparechart\UsrAddListDlg.cpp
; File C:\Program Files (x86)\Microsoft Visual Studio\2019\Community\VC\Tools\MSVC\14.29.30133\atlmfc\include\afxcmn.inl
; File D:\git\src\IBK\IBK_DRFN\ProjSrc\SrcDrfn\Chart\comparechart\UsrAddListDlg.cpp
; File C:\Program Files (x86)\Microsoft Visual Studio\2019\Community\VC\Tools\MSVC\14.29.30133\atlmfc\include\afxcmn.inl
; File D:\git\src\IBK\IBK_DRFN\ProjSrc\SrcDrfn\Chart\comparechart\UsrAddListDlg.cpp
; File C:\Program Files (x86)\Microsoft Visual Studio\2019\Community\VC\Tools\MSVC\14.29.30133\atlmfc\include\afxwin2.inl
; File D:\git\src\IBK\IBK_DRFN\ProjSrc\SrcDrfn\Chart\comparechart\UsrAddListDlg.cpp
;	COMDAT ?Re_Request_TRData@CUsrAddListDlg@@QAEXXZ
_TEXT	SEGMENT
_this$1$ = -36						; size = 4
$T2 = -32						; size = 4
$T3 = -28						; size = 4
_nTot$1$ = -24						; size = 4
_strCodeName$4 = -20					; size = 4
_strCode$5 = -16					; size = 4
__$EHRec$ = -12						; size = 12
?Re_Request_TRData@CUsrAddListDlg@@QAEXXZ PROC		; CUsrAddListDlg::Re_Request_TRData, COMDAT
; _this$ = ecx

; 368  : {

  00000	55		 push	 ebp
  00001	8b ec		 mov	 ebp, esp
  00003	6a ff		 push	 -1
  00005	68 00 00 00 00	 push	 __ehhandler$?Re_Request_TRData@CUsrAddListDlg@@QAEXXZ
  0000a	64 a1 00 00 00
	00		 mov	 eax, DWORD PTR fs:0
  00010	50		 push	 eax
  00011	83 ec 18	 sub	 esp, 24			; 00000018H
  00014	53		 push	 ebx
  00015	56		 push	 esi
  00016	57		 push	 edi
  00017	a1 00 00 00 00	 mov	 eax, DWORD PTR ___security_cookie
  0001c	33 c5		 xor	 eax, ebp
  0001e	50		 push	 eax
  0001f	8d 45 f4	 lea	 eax, DWORD PTR __$EHRec$[ebp]
  00022	64 a3 00 00 00
	00		 mov	 DWORD PTR fs:0, eax
  00028	8b d9		 mov	 ebx, ecx
  0002a	89 5d dc	 mov	 DWORD PTR _this$1$[ebp], ebx
; File C:\Program Files (x86)\Microsoft Visual Studio\2019\Community\VC\Tools\MSVC\14.29.30133\atlmfc\include\afxcmn.inl

; 155  : 	{ ASSERT(::IsWindow(m_hWnd)); return (int) ::SendMessage(m_hWnd, LVM_GETITEMCOUNT, 0, 0L); }

  0002d	6a 00		 push	 0
  0002f	6a 00		 push	 0
  00031	68 04 10 00 00	 push	 4100			; 00001004H
  00036	ff b3 10 05 00
	00		 push	 DWORD PTR [ebx+1296]
  0003c	ff 15 00 00 00
	00		 call	 DWORD PTR __imp__SendMessageA@16
; File D:\git\src\IBK\IBK_DRFN\ProjSrc\SrcDrfn\Chart\comparechart\UsrAddListDlg.cpp

; 374  : 	int nChkCnt = 0;

  00042	33 ff		 xor	 edi, edi
  00044	89 45 e8	 mov	 DWORD PTR _nTot$1$[ebp], eax
; File C:\Program Files (x86)\Microsoft Visual Studio\2019\Community\VC\Tools\MSVC\14.29.30133\atlmfc\include\afxcmn.inl

; 155  : 	{ ASSERT(::IsWindow(m_hWnd)); return (int) ::SendMessage(m_hWnd, LVM_GETITEMCOUNT, 0, 0L); }

  00047	33 f6		 xor	 esi, esi
; File D:\git\src\IBK\IBK_DRFN\ProjSrc\SrcDrfn\Chart\comparechart\UsrAddListDlg.cpp

; 375  : 	for( i = 0; i < nTot ; i++)	

  00049	85 c0		 test	 eax, eax
  0004b	0f 8e 1d 01 00
	00		 jle	 $LN6@Re_Request
  00051	81 c3 f0 04 00
	00		 add	 ebx, 1264		; 000004f0H
$LL4@Re_Request:

; 376  : 	{
; 377  : 		if(m_listUsrAdd.GetCheck(i))

  00057	56		 push	 esi
  00058	8b cb		 mov	 ecx, ebx
  0005a	e8 00 00 00 00	 call	 ?GetCheck@CListCtrl@@QBEHH@Z ; CListCtrl::GetCheck
  0005f	85 c0		 test	 eax, eax
  00061	74 01		 je	 SHORT $LN2@Re_Request

; 378  : 			nChkCnt++;

  00063	47		 inc	 edi
$LN2@Re_Request:

; 375  : 	for( i = 0; i < nTot ; i++)	

  00064	46		 inc	 esi
  00065	3b 75 e8	 cmp	 esi, DWORD PTR _nTot$1$[ebp]
  00068	7c ed		 jl	 SHORT $LL4@Re_Request

; 379  : 	}
; 380  : 
; 381  : 	if(nChkCnt == 0) return;	

  0006a	85 ff		 test	 edi, edi
  0006c	0f 84 fc 00 00
	00		 je	 $LN6@Re_Request

; 382  : 	//GetParent()->GetParent()->SendMessage(UMSG_COMPARE_TR_JONMOK_CNT, 0, (LPARAM)nChkCnt);
; 383  : 	//=====================================================================================
; 384  : 
; 385  : 	for(i = 0; i < nTot ; i++)	

  00072	33 f6		 xor	 esi, esi
$LL7@Re_Request:

; 386  : 	{
; 387  : 		//   . 
; 388  : 		if(m_listUsrAdd.GetCheck(i))

  00074	56		 push	 esi
  00075	8b cb		 mov	 ecx, ebx
  00077	e8 00 00 00 00	 call	 ?GetCheck@CListCtrl@@QBEHH@Z ; CListCtrl::GetCheck
  0007c	85 c0		 test	 eax, eax
  0007e	0f 84 e0 00 00
	00		 je	 $LN5@Re_Request

; 389  : 		{	CString strCode, strCodeName;

  00084	8d 4d f0	 lea	 ecx, DWORD PTR _strCode$5[ebp]
  00087	ff 15 00 00 00
	00		 call	 DWORD PTR __imp_??0?$CStringT@DV?$StrTraitMFC_DLL@DV?$ChTraitsCRT@D@ATL@@@@@ATL@@QAE@XZ
  0008d	8d 4d ec	 lea	 ecx, DWORD PTR _strCodeName$4[ebp]
  00090	c7 45 fc 00 00
	00 00		 mov	 DWORD PTR __$EHRec$[ebp+8], 0
  00097	ff 15 00 00 00
	00		 call	 DWORD PTR __imp_??0?$CStringT@DV?$StrTraitMFC_DLL@DV?$ChTraitsCRT@D@ATL@@@@@ATL@@QAE@XZ

; 390  : 			strCodeName = m_listUsrAdd.GetItemText(i, 0); strCodeName.TrimLeft(); strCodeName.TrimRight();

  0009d	6a 00		 push	 0
  0009f	56		 push	 esi
  000a0	8d 45 e4	 lea	 eax, DWORD PTR $T3[ebp]
  000a3	c6 45 fc 01	 mov	 BYTE PTR __$EHRec$[ebp+8], 1
  000a7	50		 push	 eax
  000a8	8b cb		 mov	 ecx, ebx
  000aa	e8 00 00 00 00	 call	 ?GetItemText@CListCtrl@@QBE?AV?$CStringT@DV?$StrTraitMFC_DLL@DV?$ChTraitsCRT@D@ATL@@@@@ATL@@HH@Z ; CListCtrl::GetItemText
  000af	50		 push	 eax
  000b0	8d 4d ec	 lea	 ecx, DWORD PTR _strCodeName$4[ebp]
  000b3	c6 45 fc 02	 mov	 BYTE PTR __$EHRec$[ebp+8], 2
  000b7	ff 15 00 00 00
	00		 call	 DWORD PTR __imp_??4?$CStringT@DV?$StrTraitMFC_DLL@DV?$ChTraitsCRT@D@ATL@@@@@ATL@@QAEAAV01@ABV01@@Z
  000bd	8d 4d e4	 lea	 ecx, DWORD PTR $T3[ebp]
  000c0	c6 45 fc 01	 mov	 BYTE PTR __$EHRec$[ebp+8], 1
  000c4	ff 15 00 00 00
	00		 call	 DWORD PTR __imp_??1?$CStringT@DV?$StrTraitMFC_DLL@DV?$ChTraitsCRT@D@ATL@@@@@ATL@@QAE@XZ
  000ca	8d 4d ec	 lea	 ecx, DWORD PTR _strCodeName$4[ebp]
  000cd	ff 15 00 00 00
	00		 call	 DWORD PTR __imp_?TrimLeft@?$CStringT@DV?$StrTraitMFC_DLL@DV?$ChTraitsCRT@D@ATL@@@@@ATL@@QAEAAV12@XZ
  000d3	8d 4d ec	 lea	 ecx, DWORD PTR _strCodeName$4[ebp]
  000d6	ff 15 00 00 00
	00		 call	 DWORD PTR __imp_?TrimRight@?$CStringT@DV?$StrTraitMFC_DLL@DV?$ChTraitsCRT@D@ATL@@@@@ATL@@QAEAAV12@XZ

; 391  : 			strCode		= m_listUsrAdd.GetItemText(i, 1); strCode.TrimLeft(); strCode.TrimRight();

  000dc	6a 01		 push	 1
  000de	56		 push	 esi
  000df	8d 45 e0	 lea	 eax, DWORD PTR $T2[ebp]
  000e2	8b cb		 mov	 ecx, ebx
  000e4	50		 push	 eax
  000e5	e8 00 00 00 00	 call	 ?GetItemText@CListCtrl@@QBE?AV?$CStringT@DV?$StrTraitMFC_DLL@DV?$ChTraitsCRT@D@ATL@@@@@ATL@@HH@Z ; CListCtrl::GetItemText
  000ea	50		 push	 eax
  000eb	8d 4d f0	 lea	 ecx, DWORD PTR _strCode$5[ebp]
  000ee	c6 45 fc 03	 mov	 BYTE PTR __$EHRec$[ebp+8], 3
  000f2	ff 15 00 00 00
	00		 call	 DWORD PTR __imp_??4?$CStringT@DV?$StrTraitMFC_DLL@DV?$ChTraitsCRT@D@ATL@@@@@ATL@@QAEAAV01@ABV01@@Z
  000f8	8d 4d e0	 lea	 ecx, DWORD PTR $T2[ebp]
  000fb	c6 45 fc 01	 mov	 BYTE PTR __$EHRec$[ebp+8], 1
  000ff	ff 15 00 00 00
	00		 call	 DWORD PTR __imp_??1?$CStringT@DV?$StrTraitMFC_DLL@DV?$ChTraitsCRT@D@ATL@@@@@ATL@@QAE@XZ
  00105	8d 4d f0	 lea	 ecx, DWORD PTR _strCode$5[ebp]
  00108	ff 15 00 00 00
	00		 call	 DWORD PTR __imp_?TrimLeft@?$CStringT@DV?$StrTraitMFC_DLL@DV?$ChTraitsCRT@D@ATL@@@@@ATL@@QAEAAV12@XZ
  0010e	8d 4d f0	 lea	 ecx, DWORD PTR _strCode$5[ebp]
  00111	ff 15 00 00 00
	00		 call	 DWORD PTR __imp_?TrimRight@?$CStringT@DV?$StrTraitMFC_DLL@DV?$ChTraitsCRT@D@ATL@@@@@ATL@@QAEAAV12@XZ
; File C:\Program Files (x86)\Microsoft Visual Studio\2019\Community\VC\Tools\MSVC\14.29.30133\atlmfc\include\afxwin2.inl

; 213  : 	{ ASSERT(::IsWindow(m_hWnd)); return CWnd::FromHandle(::GetParent(m_hWnd)); }

  00117	8b 45 dc	 mov	 eax, DWORD PTR _this$1$[ebp]
  0011a	ff 70 20	 push	 DWORD PTR [eax+32]
  0011d	ff 15 00 00 00
	00		 call	 DWORD PTR __imp__GetParent@4
  00123	50		 push	 eax
  00124	e8 00 00 00 00	 call	 ?FromHandle@CWnd@@SGPAV1@PAUHWND__@@@Z ; CWnd::FromHandle
  00129	ff 70 20	 push	 DWORD PTR [eax+32]
  0012c	ff 15 00 00 00
	00		 call	 DWORD PTR __imp__GetParent@4
  00132	50		 push	 eax
  00133	e8 00 00 00 00	 call	 ?FromHandle@CWnd@@SGPAV1@PAUHWND__@@@Z ; CWnd::FromHandle

; 32   : 	{ ASSERT(::IsWindow(m_hWnd)); return ::SendMessage(m_hWnd, message, wParam, lParam); }

  00138	57		 push	 edi
  00139	8d 4d f0	 lea	 ecx, DWORD PTR _strCode$5[ebp]
  0013c	51		 push	 ecx
  0013d	68 5c 04 00 00	 push	 1116			; 0000045cH
  00142	ff 70 20	 push	 DWORD PTR [eax+32]
  00145	ff 15 00 00 00
	00		 call	 DWORD PTR __imp__SendMessageA@16
; File D:\git\src\IBK\IBK_DRFN\ProjSrc\SrcDrfn\Chart\comparechart\UsrAddListDlg.cpp

; 397  : 		}

  0014b	8d 4d ec	 lea	 ecx, DWORD PTR _strCodeName$4[ebp]
  0014e	ff 15 00 00 00
	00		 call	 DWORD PTR __imp_??1?$CStringT@DV?$StrTraitMFC_DLL@DV?$ChTraitsCRT@D@ATL@@@@@ATL@@QAE@XZ
  00154	8d 4d f0	 lea	 ecx, DWORD PTR _strCode$5[ebp]
  00157	c7 45 fc ff ff
	ff ff		 mov	 DWORD PTR __$EHRec$[ebp+8], -1
  0015e	ff 15 00 00 00
	00		 call	 DWORD PTR __imp_??1?$CStringT@DV?$StrTraitMFC_DLL@DV?$ChTraitsCRT@D@ATL@@@@@ATL@@QAE@XZ
$LN5@Re_Request:

; 382  : 	//GetParent()->GetParent()->SendMessage(UMSG_COMPARE_TR_JONMOK_CNT, 0, (LPARAM)nChkCnt);
; 383  : 	//=====================================================================================
; 384  : 
; 385  : 	for(i = 0; i < nTot ; i++)	

  00164	46		 inc	 esi
  00165	3b 75 e8	 cmp	 esi, DWORD PTR _nTot$1$[ebp]
  00168	0f 8c 06 ff ff
	ff		 jl	 $LL7@Re_Request
$LN6@Re_Request:

; 398  : 	}	
; 399  : }

  0016e	8b 4d f4	 mov	 ecx, DWORD PTR __$EHRec$[ebp]
  00171	64 89 0d 00 00
	00 00		 mov	 DWORD PTR fs:0, ecx
  00178	59		 pop	 ecx
  00179	5f		 pop	 edi
  0017a	5e		 pop	 esi
  0017b	5b		 pop	 ebx
  0017c	8b e5		 mov	 esp, ebp
  0017e	5d		 pop	 ebp
  0017f	c3		 ret	 0
_TEXT	ENDS
;	COMDAT text$x
text$x	SEGMENT
__unwindfunclet$?Re_Request_TRData@CUsrAddListDlg@@QAEXXZ$0:
  00000	8d 4d f0	 lea	 ecx, DWORD PTR _strCode$5[ebp]
  00003	ff 25 00 00 00
	00		 jmp	 DWORD PTR __imp_??1?$CStringT@DV?$StrTraitMFC_DLL@DV?$ChTraitsCRT@D@ATL@@@@@ATL@@QAE@XZ
__unwindfunclet$?Re_Request_TRData@CUsrAddListDlg@@QAEXXZ$1:
  00009	8d 4d ec	 lea	 ecx, DWORD PTR _strCodeName$4[ebp]
  0000c	ff 25 00 00 00
	00		 jmp	 DWORD PTR __imp_??1?$CStringT@DV?$StrTraitMFC_DLL@DV?$ChTraitsCRT@D@ATL@@@@@ATL@@QAE@XZ
__unwindfunclet$?Re_Request_TRData@CUsrAddListDlg@@QAEXXZ$2:
  00012	8d 4d e4	 lea	 ecx, DWORD PTR $T3[ebp]
  00015	ff 25 00 00 00
	00		 jmp	 DWORD PTR __imp_??1?$CStringT@DV?$StrTraitMFC_DLL@DV?$ChTraitsCRT@D@ATL@@@@@ATL@@QAE@XZ
__unwindfunclet$?Re_Request_TRData@CUsrAddListDlg@@QAEXXZ$3:
  0001b	8d 4d e0	 lea	 ecx, DWORD PTR $T2[ebp]
  0001e	ff 25 00 00 00
	00		 jmp	 DWORD PTR __imp_??1?$CStringT@DV?$StrTraitMFC_DLL@DV?$ChTraitsCRT@D@ATL@@@@@ATL@@QAE@XZ
  00024	cc		 int	 3
  00025	cc		 int	 3
  00026	cc		 int	 3
  00027	cc		 int	 3
  00028	cc		 int	 3
__ehhandler$?Re_Request_TRData@CUsrAddListDlg@@QAEXXZ:
  00029	90		 npad	 1
  0002a	90		 npad	 1
  0002b	8b 54 24 08	 mov	 edx, DWORD PTR [esp+8]
  0002f	8d 42 0c	 lea	 eax, DWORD PTR [edx+12]
  00032	8b 4a d8	 mov	 ecx, DWORD PTR [edx-40]
  00035	33 c8		 xor	 ecx, eax
  00037	e8 00 00 00 00	 call	 @__security_check_cookie@4
  0003c	b8 00 00 00 00	 mov	 eax, OFFSET __ehfuncinfo$?Re_Request_TRData@CUsrAddListDlg@@QAEXXZ
  00041	e9 00 00 00 00	 jmp	 ___CxxFrameHandler3
text$x	ENDS
?Re_Request_TRData@CUsrAddListDlg@@QAEXXZ ENDP		; CUsrAddListDlg::Re_Request_TRData
; Function compile flags: /Ogtp
; File D:\git\src\IBK\IBK_DRFN\ProjSrc\SrcDrfn\Chart\comparechart\UsrAddListDlg.cpp
;	COMDAT ?SetRootPath@CUsrAddListDlg@@QAEXV?$CStringT@DV?$StrTraitMFC_DLL@DV?$ChTraitsCRT@D@ATL@@@@@ATL@@@Z
_TEXT	SEGMENT
_strPath$ = 8						; size = 4
?SetRootPath@CUsrAddListDlg@@QAEXV?$CStringT@DV?$StrTraitMFC_DLL@DV?$ChTraitsCRT@D@ATL@@@@@ATL@@@Z PROC ; CUsrAddListDlg::SetRootPath, COMDAT
; _this$ = ecx

; 402  : {

  00000	55		 push	 ebp
  00001	8b ec		 mov	 ebp, esp

; 403  : 	//	m_szImageDir = strPath + "\\Image\\Chart";	
; 404  : }

  00003	8d 4d 08	 lea	 ecx, DWORD PTR _strPath$[ebp]
  00006	ff 15 00 00 00
	00		 call	 DWORD PTR __imp_??1?$CStringT@DV?$StrTraitMFC_DLL@DV?$ChTraitsCRT@D@ATL@@@@@ATL@@QAE@XZ
  0000c	5d		 pop	 ebp
  0000d	c2 04 00	 ret	 4
?SetRootPath@CUsrAddListDlg@@QAEXV?$CStringT@DV?$StrTraitMFC_DLL@DV?$ChTraitsCRT@D@ATL@@@@@ATL@@@Z ENDP ; CUsrAddListDlg::SetRootPath
_TEXT	ENDS
; Function compile flags: /Ogtp
; File D:\git\src\IBK\IBK_DRFN\ProjSrc\SrcDrfn\Chart\comparechart\UsrAddListDlg.cpp
; File C:\Program Files (x86)\Microsoft Visual Studio\2019\Community\VC\Tools\MSVC\14.29.30133\atlmfc\include\afxcmn.inl
; File D:\git\src\IBK\IBK_DRFN\ProjSrc\SrcDrfn\Chart\comparechart\UsrAddListDlg.cpp
; File C:\Program Files (x86)\Microsoft Visual Studio\2019\Community\VC\Tools\MSVC\14.29.30133\atlmfc\include\afxcmn.inl
; File D:\git\src\IBK\IBK_DRFN\ProjSrc\SrcDrfn\Chart\comparechart\UsrAddListDlg.cpp
;	COMDAT ?OnBtnDelItem@CUsrAddListDlg@@QAEXPBD@Z
_TEXT	SEGMENT
_this$1$ = -24						; size = 4
$T2 = -20						; size = 4
_strCode$3 = -16					; size = 4
__$EHRec$ = -12						; size = 12
_szDelCode$ = 8						; size = 4
?OnBtnDelItem@CUsrAddListDlg@@QAEXPBD@Z PROC		; CUsrAddListDlg::OnBtnDelItem, COMDAT
; _this$ = ecx

; 82   : {

  00000	55		 push	 ebp
  00001	8b ec		 mov	 ebp, esp
  00003	6a ff		 push	 -1
  00005	68 00 00 00 00	 push	 __ehhandler$?OnBtnDelItem@CUsrAddListDlg@@QAEXPBD@Z
  0000a	64 a1 00 00 00
	00		 mov	 eax, DWORD PTR fs:0
  00010	50		 push	 eax
  00011	83 ec 0c	 sub	 esp, 12			; 0000000cH
  00014	53		 push	 ebx
  00015	56		 push	 esi
  00016	57		 push	 edi
  00017	a1 00 00 00 00	 mov	 eax, DWORD PTR ___security_cookie
  0001c	33 c5		 xor	 eax, ebp
  0001e	50		 push	 eax
  0001f	8d 45 f4	 lea	 eax, DWORD PTR __$EHRec$[ebp]
  00022	64 a3 00 00 00
	00		 mov	 DWORD PTR fs:0, eax
  00028	8b d9		 mov	 ebx, ecx
  0002a	89 5d e8	 mov	 DWORD PTR _this$1$[ebp], ebx
; File C:\Program Files (x86)\Microsoft Visual Studio\2019\Community\VC\Tools\MSVC\14.29.30133\atlmfc\include\afxcmn.inl

; 155  : 	{ ASSERT(::IsWindow(m_hWnd)); return (int) ::SendMessage(m_hWnd, LVM_GETITEMCOUNT, 0, 0L); }

  0002d	6a 00		 push	 0
  0002f	6a 00		 push	 0
  00031	68 04 10 00 00	 push	 4100			; 00001004H
  00036	ff b3 10 05 00
	00		 push	 DWORD PTR [ebx+1296]
  0003c	ff 15 00 00 00
	00		 call	 DWORD PTR __imp__SendMessageA@16
; File D:\git\src\IBK\IBK_DRFN\ProjSrc\SrcDrfn\Chart\comparechart\UsrAddListDlg.cpp

; 107  : 	CString strCode;

  00042	8d 4d f0	 lea	 ecx, DWORD PTR _strCode$3[ebp]
  00045	8b f8		 mov	 edi, eax
  00047	ff 15 00 00 00
	00		 call	 DWORD PTR __imp_??0?$CStringT@DV?$StrTraitMFC_DLL@DV?$ChTraitsCRT@D@ATL@@@@@ATL@@QAE@XZ

; 108  : 	for(int i = 0; i < nTot ; i++)	

  0004d	33 f6		 xor	 esi, esi
  0004f	c7 45 fc 00 00
	00 00		 mov	 DWORD PTR __$EHRec$[ebp+8], 0
  00056	85 ff		 test	 edi, edi
  00058	0f 8e 83 00 00
	00		 jle	 $LN5@OnBtnDelIt
  0005e	81 c3 f0 04 00
	00		 add	 ebx, 1264		; 000004f0H
$LL6@OnBtnDelIt:

; 109  : 	{
; 110  : 		strCode = m_listUsrAdd.GetItemText(i, 1); strCode.TrimLeft(); strCode.TrimRight();

  00064	6a 01		 push	 1
  00066	56		 push	 esi
  00067	8d 45 ec	 lea	 eax, DWORD PTR $T2[ebp]
  0006a	8b cb		 mov	 ecx, ebx
  0006c	50		 push	 eax
  0006d	e8 00 00 00 00	 call	 ?GetItemText@CListCtrl@@QBE?AV?$CStringT@DV?$StrTraitMFC_DLL@DV?$ChTraitsCRT@D@ATL@@@@@ATL@@HH@Z ; CListCtrl::GetItemText
  00072	50		 push	 eax
  00073	8d 4d f0	 lea	 ecx, DWORD PTR _strCode$3[ebp]
  00076	c6 45 fc 01	 mov	 BYTE PTR __$EHRec$[ebp+8], 1
  0007a	ff 15 00 00 00
	00		 call	 DWORD PTR __imp_??4?$CStringT@DV?$StrTraitMFC_DLL@DV?$ChTraitsCRT@D@ATL@@@@@ATL@@QAEAAV01@ABV01@@Z
  00080	8d 4d ec	 lea	 ecx, DWORD PTR $T2[ebp]
  00083	c6 45 fc 00	 mov	 BYTE PTR __$EHRec$[ebp+8], 0
  00087	ff 15 00 00 00
	00		 call	 DWORD PTR __imp_??1?$CStringT@DV?$StrTraitMFC_DLL@DV?$ChTraitsCRT@D@ATL@@@@@ATL@@QAE@XZ
  0008d	8d 4d f0	 lea	 ecx, DWORD PTR _strCode$3[ebp]
  00090	ff 15 00 00 00
	00		 call	 DWORD PTR __imp_?TrimLeft@?$CStringT@DV?$StrTraitMFC_DLL@DV?$ChTraitsCRT@D@ATL@@@@@ATL@@QAEAAV12@XZ
  00096	8d 4d f0	 lea	 ecx, DWORD PTR _strCode$3[ebp]
  00099	ff 15 00 00 00
	00		 call	 DWORD PTR __imp_?TrimRight@?$CStringT@DV?$StrTraitMFC_DLL@DV?$ChTraitsCRT@D@ATL@@@@@ATL@@QAEAAV12@XZ

; 111  : 		if(strCode.CompareNoCase(szDelCode)==0)

  0009f	ff 75 08	 push	 DWORD PTR _szDelCode$[ebp]
  000a2	8d 4d f0	 lea	 ecx, DWORD PTR _strCode$3[ebp]
  000a5	ff 15 00 00 00
	00		 call	 DWORD PTR __imp_?CompareNoCase@?$CStringT@DV?$StrTraitMFC_DLL@DV?$ChTraitsCRT@D@ATL@@@@@ATL@@QBEHPBD@Z
  000ab	85 c0		 test	 eax, eax
  000ad	74 07		 je	 SHORT $LN19@OnBtnDelIt

; 108  : 	for(int i = 0; i < nTot ; i++)	

  000af	46		 inc	 esi
  000b0	3b f7		 cmp	 esi, edi
  000b2	7c b0		 jl	 SHORT $LL6@OnBtnDelIt

; 111  : 		if(strCode.CompareNoCase(szDelCode)==0)

  000b4	eb 2b		 jmp	 SHORT $LN5@OnBtnDelIt
$LN19@OnBtnDelIt:

; 112  : 		{
; 113  : 			//m_listUsrAdd.DeleteSelectItem(i);
; 114  : 			m_listUsrAdd.RemoveOnlyList(i);

  000b6	56		 push	 esi
  000b7	8b cb		 mov	 ecx, ebx
  000b9	e8 00 00 00 00	 call	 ?RemoveOnlyList@CNsyButtonListCtrl@@QAEXH@Z ; CNsyButtonListCtrl::RemoveOnlyList
; File C:\Program Files (x86)\Microsoft Visual Studio\2019\Community\VC\Tools\MSVC\14.29.30133\atlmfc\include\afxcmn.inl

; 155  : 	{ ASSERT(::IsWindow(m_hWnd)); return (int) ::SendMessage(m_hWnd, LVM_GETITEMCOUNT, 0, 0L); }

  000be	8b 45 e8	 mov	 eax, DWORD PTR _this$1$[ebp]
  000c1	6a 00		 push	 0
  000c3	6a 00		 push	 0
  000c5	68 04 10 00 00	 push	 4100			; 00001004H
  000ca	ff b0 10 05 00
	00		 push	 DWORD PTR [eax+1296]
  000d0	ff 15 00 00 00
	00		 call	 DWORD PTR __imp__SendMessageA@16
; File D:\git\src\IBK\IBK_DRFN\ProjSrc\SrcDrfn\Chart\comparechart\UsrAddListDlg.cpp

; 117  : 			if(m_listUsrAdd.GetItemCount()==0)

  000d6	85 c0		 test	 eax, eax
  000d8	75 07		 jne	 SHORT $LN5@OnBtnDelIt

; 78   : 	m_listUsrAdd.Init_CompareChart();

  000da	8b cb		 mov	 ecx, ebx
  000dc	e8 00 00 00 00	 call	 ?Init_CompareChart@CNsyButtonListCtrl@@QAEXXZ ; CNsyButtonListCtrl::Init_CompareChart
$LN5@OnBtnDelIt:

; 122  : }

  000e1	8d 4d f0	 lea	 ecx, DWORD PTR _strCode$3[ebp]
  000e4	ff 15 00 00 00
	00		 call	 DWORD PTR __imp_??1?$CStringT@DV?$StrTraitMFC_DLL@DV?$ChTraitsCRT@D@ATL@@@@@ATL@@QAE@XZ

; 83   : 	DelItem(szDelCode);
; 84   : // 	int nTot = m_listUsrAdd.GetItemCount();
; 85   : // 
; 86   : // 	CString strCode;
; 87   : // 	for(int i = 0; i < nTot ; i++)	
; 88   : // 	{
; 89   : // 		strCode = m_listUsrAdd.GetItemText(i, 1); strCode.TrimLeft(); strCode.TrimRight();
; 90   : // 		if(strCode.CompareNoCase(szDelCode)==0)
; 91   : // 		{
; 92   : // 			//m_listUsrAdd.DeleteSelectItem(i);
; 93   : // 			m_listUsrAdd.RemoveOnlyList(i);
; 94   : // 
; 95   : // 			// DEFAULT RQ   
; 96   : // 			if(m_listUsrAdd.GetItemCount()==0)
; 97   : // 				OnBtnInit();
; 98   : // 			return;
; 99   : // 		}
; 100  : // 	}
; 101  : }

  000ea	8b 4d f4	 mov	 ecx, DWORD PTR __$EHRec$[ebp]
  000ed	64 89 0d 00 00
	00 00		 mov	 DWORD PTR fs:0, ecx
  000f4	59		 pop	 ecx
  000f5	5f		 pop	 edi
  000f6	5e		 pop	 esi
  000f7	5b		 pop	 ebx
  000f8	8b e5		 mov	 esp, ebp
  000fa	5d		 pop	 ebp
  000fb	c2 04 00	 ret	 4
_TEXT	ENDS
;	COMDAT text$x
text$x	SEGMENT
__unwindfunclet$?OnBtnDelItem@CUsrAddListDlg@@QAEXPBD@Z$0:
  00000	8d 4d f0	 lea	 ecx, DWORD PTR _strCode$3[ebp]
  00003	ff 25 00 00 00
	00		 jmp	 DWORD PTR __imp_??1?$CStringT@DV?$StrTraitMFC_DLL@DV?$ChTraitsCRT@D@ATL@@@@@ATL@@QAE@XZ
__unwindfunclet$?OnBtnDelItem@CUsrAddListDlg@@QAEXPBD@Z$1:
  00009	8d 4d ec	 lea	 ecx, DWORD PTR $T2[ebp]
  0000c	ff 25 00 00 00
	00		 jmp	 DWORD PTR __imp_??1?$CStringT@DV?$StrTraitMFC_DLL@DV?$ChTraitsCRT@D@ATL@@@@@ATL@@QAE@XZ
  00012	cc		 int	 3
  00013	cc		 int	 3
  00014	cc		 int	 3
  00015	cc		 int	 3
  00016	cc		 int	 3
__ehhandler$?OnBtnDelItem@CUsrAddListDlg@@QAEXPBD@Z:
  00017	90		 npad	 1
  00018	90		 npad	 1
  00019	8b 54 24 08	 mov	 edx, DWORD PTR [esp+8]
  0001d	8d 42 0c	 lea	 eax, DWORD PTR [edx+12]
  00020	8b 4a e4	 mov	 ecx, DWORD PTR [edx-28]
  00023	33 c8		 xor	 ecx, eax
  00025	e8 00 00 00 00	 call	 @__security_check_cookie@4
  0002a	b8 00 00 00 00	 mov	 eax, OFFSET __ehfuncinfo$?OnBtnDelItem@CUsrAddListDlg@@QAEXPBD@Z
  0002f	e9 00 00 00 00	 jmp	 ___CxxFrameHandler3
text$x	ENDS
?OnBtnDelItem@CUsrAddListDlg@@QAEXPBD@Z ENDP		; CUsrAddListDlg::OnBtnDelItem
; Function compile flags: /Ogtp
; File D:\git\src\IBK\IBK_DRFN\ProjSrc\SrcDrfn\Chart\comparechart\UsrAddListDlg.cpp
; File C:\Program Files (x86)\Microsoft Visual Studio\2019\Community\VC\Tools\MSVC\14.29.30133\atlmfc\include\afxwin2.inl
; File D:\git\src\IBK\IBK_DRFN\ProjSrc\SrcDrfn\Chart\comparechart\UsrAddListDlg.cpp
; File C:\Program Files (x86)\Microsoft Visual Studio\2019\Community\VC\Tools\MSVC\14.29.30133\atlmfc\include\afxwin2.inl
; File D:\git\src\IBK\IBK_DRFN\ProjSrc\SrcDrfn\Chart\comparechart\UsrAddListDlg.cpp
;	COMDAT ?ChangeSkinColor@CUsrAddListDlg@@UAEXK@Z
_TEXT	SEGMENT
_clrBackground$ = 8					; size = 4
?ChangeSkinColor@CUsrAddListDlg@@UAEXK@Z PROC		; CUsrAddListDlg::ChangeSkinColor, COMDAT
; _this$ = ecx

; 517  : {

  00000	55		 push	 ebp
  00001	8b ec		 mov	 ebp, esp

; 518  : 	m_clrBkgrnd = clrBackground;

  00003	8b 45 08	 mov	 eax, DWORD PTR _clrBackground$[ebp]
; File C:\Program Files (x86)\Microsoft Visual Studio\2019\Community\VC\Tools\MSVC\14.29.30133\atlmfc\include\afxwin2.inl

; 114  : 	{ ASSERT(::IsWindow(m_hWnd)); ::InvalidateRect(m_hWnd, NULL, bErase); }

  00006	6a 01		 push	 1
  00008	6a 00		 push	 0
  0000a	ff 71 20	 push	 DWORD PTR [ecx+32]
; File D:\git\src\IBK\IBK_DRFN\ProjSrc\SrcDrfn\Chart\comparechart\UsrAddListDlg.cpp

; 518  : 	m_clrBkgrnd = clrBackground;

  0000d	89 81 b8 00 00
	00		 mov	 DWORD PTR [ecx+184], eax
; File C:\Program Files (x86)\Microsoft Visual Studio\2019\Community\VC\Tools\MSVC\14.29.30133\atlmfc\include\afxwin2.inl

; 114  : 	{ ASSERT(::IsWindow(m_hWnd)); ::InvalidateRect(m_hWnd, NULL, bErase); }

  00013	ff 15 00 00 00
	00		 call	 DWORD PTR __imp__InvalidateRect@12
; File D:\git\src\IBK\IBK_DRFN\ProjSrc\SrcDrfn\Chart\comparechart\UsrAddListDlg.cpp

; 520  : }

  00019	5d		 pop	 ebp
  0001a	c2 04 00	 ret	 4
?ChangeSkinColor@CUsrAddListDlg@@UAEXK@Z ENDP		; CUsrAddListDlg::ChangeSkinColor
_TEXT	ENDS
; Function compile flags: /Ogtp
; File D:\git\src\IBK\IBK_DRFN\ProjSrc\SrcDrfn\Chart\comparechart\define\ChartMsgDef.h
;	COMDAT ??__ERMSG_CHANGE_CROSSLINE@@YAXXZ
text$di	SEGMENT
??__ERMSG_CHANGE_CROSSLINE@@YAXXZ PROC			; `dynamic initializer for 'RMSG_CHANGE_CROSSLINE'', COMDAT

; 216  : const UINT RMSG_CHANGE_CROSSLINE = ::RegisterWindowMessage(_T("RMSG_CHANGE_CROSSLINE"));

  00000	68 00 00 00 00	 push	 OFFSET ??_C@_0BG@LNLCJKPF@RMSG_CHANGE_CROSSLINE@
  00005	ff 15 00 00 00
	00		 call	 DWORD PTR __imp__RegisterWindowMessageA@4
  0000b	a3 00 00 00 00	 mov	 DWORD PTR ?RMSG_CHANGE_CROSSLINE@@3IB, eax
  00010	c3		 ret	 0
??__ERMSG_CHANGE_CROSSLINE@@YAXXZ ENDP			; `dynamic initializer for 'RMSG_CHANGE_CROSSLINE''
text$di	ENDS
; Function compile flags: /Ogtp
; File D:\git\src\IBK\IBK_DRFN\ProjSrc\SrcDrfn\Chart\comparechart\define\ChartMsgDef.h
;	COMDAT ??__ERMSG_GET_SKINCOLOR@@YAXXZ
text$di	SEGMENT
??__ERMSG_GET_SKINCOLOR@@YAXXZ PROC			; `dynamic initializer for 'RMSG_GET_SKINCOLOR'', COMDAT

; 214  : const UINT RMSG_GET_SKINCOLOR = ::RegisterWindowMessage(_T("RMSG_GET_SKINCOLOR"));

  00000	68 00 00 00 00	 push	 OFFSET ??_C@_0BD@FLDNDDHK@RMSG_GET_SKINCOLOR@
  00005	ff 15 00 00 00
	00		 call	 DWORD PTR __imp__RegisterWindowMessageA@4
  0000b	a3 00 00 00 00	 mov	 DWORD PTR ?RMSG_GET_SKINCOLOR@@3IB, eax
  00010	c3		 ret	 0
??__ERMSG_GET_SKINCOLOR@@YAXXZ ENDP			; `dynamic initializer for 'RMSG_GET_SKINCOLOR''
text$di	ENDS
; Function compile flags: /Ogtp
; File D:\git\src\IBK\IBK_DRFN\ProjSrc\SrcDrfn\Chart\comparechart\define\ChartMsgDef.h
;	COMDAT ??__ERMSG_CHANGE_SKINCOLOR@@YAXXZ
text$di	SEGMENT
??__ERMSG_CHANGE_SKINCOLOR@@YAXXZ PROC			; `dynamic initializer for 'RMSG_CHANGE_SKINCOLOR'', COMDAT

; 213  : const UINT RMSG_CHANGE_SKINCOLOR = ::RegisterWindowMessage(_T("RMSG_CHANGE_SKINCOLOR"));

  00000	68 00 00 00 00	 push	 OFFSET ??_C@_0BG@CNPAHNGG@RMSG_CHANGE_SKINCOLOR@
  00005	ff 15 00 00 00
	00		 call	 DWORD PTR __imp__RegisterWindowMessageA@4
  0000b	a3 00 00 00 00	 mov	 DWORD PTR ?RMSG_CHANGE_SKINCOLOR@@3IB, eax
  00010	c3		 ret	 0
??__ERMSG_CHANGE_SKINCOLOR@@YAXXZ ENDP			; `dynamic initializer for 'RMSG_CHANGE_SKINCOLOR''
text$di	ENDS
; Function compile flags: /Ogtp
; File D:\git\src\IBK\IBK_DRFN\ProjSrc\SrcDrfn\Chart\comparechart\define\ChartMsgDef.h
;	COMDAT ??__ERMSG_GETINFO@@YAXXZ
text$di	SEGMENT
??__ERMSG_GETINFO@@YAXXZ PROC				; `dynamic initializer for 'RMSG_GETINFO'', COMDAT

; 204  : const UINT RMSG_GETINFO = ::RegisterWindowMessage(_T("RMSG_GETINFO"));

  00000	68 00 00 00 00	 push	 OFFSET ??_C@_0N@IIOKMIEH@RMSG_GETINFO@
  00005	ff 15 00 00 00
	00		 call	 DWORD PTR __imp__RegisterWindowMessageA@4
  0000b	a3 00 00 00 00	 mov	 DWORD PTR ?RMSG_GETINFO@@3IB, eax
  00010	c3		 ret	 0
??__ERMSG_GETINFO@@YAXXZ ENDP				; `dynamic initializer for 'RMSG_GETINFO''
text$di	ENDS
; Function compile flags: /Ogtp
; File D:\git\src\IBK\IBK_DRFN\ProjSrc\SrcDrfn\Chart\comparechart\define\ChartMsgDef.h
;	COMDAT ??__ERMSG_KSDLLINFO@@YAXXZ
text$di	SEGMENT
??__ERMSG_KSDLLINFO@@YAXXZ PROC				; `dynamic initializer for 'RMSG_KSDLLINFO'', COMDAT

; 203  : const UINT RMSG_KSDLLINFO = ::RegisterWindowMessage(_T("RMSG_KSDLLINFO"));		// TrmCompCharView 

  00000	68 00 00 00 00	 push	 OFFSET ??_C@_0P@LFDACNFE@RMSG_KSDLLINFO@
  00005	ff 15 00 00 00
	00		 call	 DWORD PTR __imp__RegisterWindowMessageA@4
  0000b	a3 00 00 00 00	 mov	 DWORD PTR ?RMSG_KSDLLINFO@@3IB, eax
  00010	c3		 ret	 0
??__ERMSG_KSDLLINFO@@YAXXZ ENDP				; `dynamic initializer for 'RMSG_KSDLLINFO''
text$di	ENDS
; Function compile flags: /Ogtp
; File D:\git\src\IBK\IBK_DRFN\ProjSrc\SrcDrfn\Chart\comparechart\define\ChartMsgDef.h
;	COMDAT ??__ERMSG_GET_USERID@@YAXXZ
text$di	SEGMENT
??__ERMSG_GET_USERID@@YAXXZ PROC			; `dynamic initializer for 'RMSG_GET_USERID'', COMDAT

; 200  : const UINT RMSG_GET_USERID = ::RegisterWindowMessage(_T("RMSG_GET_USERID"));	// User ID 

  00000	68 00 00 00 00	 push	 OFFSET ??_C@_0BA@HKNFENJL@RMSG_GET_USERID@
  00005	ff 15 00 00 00
	00		 call	 DWORD PTR __imp__RegisterWindowMessageA@4
  0000b	a3 00 00 00 00	 mov	 DWORD PTR ?RMSG_GET_USERID@@3IB, eax
  00010	c3		 ret	 0
??__ERMSG_GET_USERID@@YAXXZ ENDP			; `dynamic initializer for 'RMSG_GET_USERID''
text$di	ENDS
; Function compile flags: /Ogtp
; File D:\git\src\IBK\IBK_DRFN\ProjSrc\SrcDrfn\Chart\comparechart\define\ChartMsgDef.h
;	COMDAT ??__ERMS_ANALYSIS_FUNC@@YAXXZ
text$di	SEGMENT
??__ERMS_ANALYSIS_FUNC@@YAXXZ PROC			; `dynamic initializer for 'RMS_ANALYSIS_FUNC'', COMDAT

; 196  : const UINT RMS_ANALYSIS_FUNC	= ::RegisterWindowMessage(_T("RMS_ANALYSIS_FUNC"));

  00000	68 00 00 00 00	 push	 OFFSET ??_C@_0BC@MMPGLPDH@RMS_ANALYSIS_FUNC@
  00005	ff 15 00 00 00
	00		 call	 DWORD PTR __imp__RegisterWindowMessageA@4
  0000b	a3 00 00 00 00	 mov	 DWORD PTR ?RMS_ANALYSIS_FUNC@@3IB, eax
  00010	c3		 ret	 0
??__ERMS_ANALYSIS_FUNC@@YAXXZ ENDP			; `dynamic initializer for 'RMS_ANALYSIS_FUNC''
text$di	ENDS
; Function compile flags: /Ogtp
; File D:\git\src\IBK\IBK_DRFN\ProjSrc\SrcDrfn\Chart\comparechart\define\ChartMsgDef.h
;	COMDAT ??__ERMSG_CHARTMAIN@@YAXXZ
text$di	SEGMENT
??__ERMSG_CHARTMAIN@@YAXXZ PROC				; `dynamic initializer for 'RMSG_CHARTMAIN'', COMDAT

; 193  : const UINT RMSG_CHARTMAIN		= ::RegisterWindowMessage(_T("RMSG_CHARTMAIN"));

  00000	68 00 00 00 00	 push	 OFFSET ??_C@_0P@KHFCBIOH@RMSG_CHARTMAIN@
  00005	ff 15 00 00 00
	00		 call	 DWORD PTR __imp__RegisterWindowMessageA@4
  0000b	a3 00 00 00 00	 mov	 DWORD PTR ?RMSG_CHARTMAIN@@3IB, eax
  00010	c3		 ret	 0
??__ERMSG_CHARTMAIN@@YAXXZ ENDP				; `dynamic initializer for 'RMSG_CHARTMAIN''
text$di	ENDS
; Function compile flags: /Ogtp
; File D:\git\src\IBK\IBK_DRFN\ProjSrc\SrcDrfn\Chart\commontr\TRDefine.h
;	COMDAT ??__ERMSG_GETSIGNAL_REAL@@YAXXZ
text$di	SEGMENT
??__ERMSG_GETSIGNAL_REAL@@YAXXZ PROC			; `dynamic initializer for 'RMSG_GETSIGNAL_REAL'', COMDAT

; 213  : const UINT RMSG_GETSIGNAL_REAL = ::RegisterWindowMessage(_T("RMSG_GETSIGNAL_REAL"));

  00000	68 00 00 00 00	 push	 OFFSET ??_C@_0BE@FJPKENOB@RMSG_GETSIGNAL_REAL@
  00005	ff 15 00 00 00
	00		 call	 DWORD PTR __imp__RegisterWindowMessageA@4
  0000b	a3 00 00 00 00	 mov	 DWORD PTR ?RMSG_GETSIGNAL_REAL@@3IB, eax
  00010	c3		 ret	 0
??__ERMSG_GETSIGNAL_REAL@@YAXXZ ENDP			; `dynamic initializer for 'RMSG_GETSIGNAL_REAL''
text$di	ENDS
; Function compile flags: /Ogtp
; File C:\Program Files (x86)\Microsoft Visual Studio\2019\Community\VC\Tools\MSVC\14.29.30133\atlmfc\include\afxwin1.inl
;	COMDAT ??1CRscDlg@@UAE@XZ
_TEXT	SEGMENT
??1CRscDlg@@UAE@XZ PROC					; CRscDlg::~CRscDlg, COMDAT
; _this$ = ecx

; 130  : 	{ }

  00000	56		 push	 esi
  00001	8b f1		 mov	 esi, ecx
  00003	8d 8e a8 00 00
	00		 lea	 ecx, DWORD PTR [esi+168]
  00009	c7 01 00 00 00
	00		 mov	 DWORD PTR [ecx], OFFSET ??_7CBrush@@6B@
  0000f	e8 00 00 00 00	 call	 ??1CGdiObject@@UAE@XZ	; CGdiObject::~CGdiObject
  00014	8b ce		 mov	 ecx, esi
  00016	5e		 pop	 esi
  00017	e9 00 00 00 00	 jmp	 ??1CDialog@@UAE@XZ	; CDialog::~CDialog
??1CRscDlg@@UAE@XZ ENDP					; CRscDlg::~CRscDlg
_TEXT	ENDS
; Function compile flags: /Ogtp
; File D:\git\src\IBK\IBK_DRFN\ProjSrc\SrcDrfn\Chart\comparechart\control\RscDlg.h
;	COMDAT ?SetBkColor@CRscDlg@@UAEXK@Z
_TEXT	SEGMENT
_crBk$ = 8						; size = 4
?SetBkColor@CRscDlg@@UAEXK@Z PROC			; CRscDlg::SetBkColor, COMDAT
; _this$ = ecx

; 24   : 	virtual void SetBkColor(COLORREF crBk) {m_crBk=crBk;}

  00000	55		 push	 ebp
  00001	8b ec		 mov	 ebp, esp
  00003	8b 45 08	 mov	 eax, DWORD PTR _crBk$[ebp]
  00006	89 81 b0 00 00
	00		 mov	 DWORD PTR [ecx+176], eax
  0000c	5d		 pop	 ebp
  0000d	c2 04 00	 ret	 4
?SetBkColor@CRscDlg@@UAEXK@Z ENDP			; CRscDlg::SetBkColor
_TEXT	ENDS
; Function compile flags: /Ogtp
; File D:\git\src\IBK\IBK_DRFN\ProjSrc\SrcDrfn\inc\IBaseDefine.h
;	COMDAT ??__ERMSG_INTERFACE@@YAXXZ
text$di	SEGMENT
??__ERMSG_INTERFACE@@YAXXZ PROC				; `dynamic initializer for 'RMSG_INTERFACE'', COMDAT

; 170  : const UINT RMSG_INTERFACE = ::RegisterWindowMessage("RMSG_INTERFACE");

  00000	68 00 00 00 00	 push	 OFFSET ??_C@_0P@BKKCOCLK@RMSG_INTERFACE@
  00005	ff 15 00 00 00
	00		 call	 DWORD PTR __imp__RegisterWindowMessageA@4
  0000b	a3 00 00 00 00	 mov	 DWORD PTR ?RMSG_INTERFACE@@3IB, eax
  00010	c3		 ret	 0
??__ERMSG_INTERFACE@@YAXXZ ENDP				; `dynamic initializer for 'RMSG_INTERFACE''
text$di	ENDS
; Function compile flags: /Ogtp
; File C:\Program Files (x86)\Microsoft Visual Studio\2019\Community\VC\Tools\MSVC\14.29.30133\atlmfc\include\afxwin2.inl
;	COMDAT ?EndModalState@CWnd@@UAEXXZ
_TEXT	SEGMENT
?EndModalState@CWnd@@UAEXXZ PROC			; CWnd::EndModalState, COMDAT
; _this$ = ecx

; 567  : 	{ ::EnableWindow(m_hWnd, TRUE); }

  00000	6a 01		 push	 1
  00002	ff 71 20	 push	 DWORD PTR [ecx+32]
  00005	ff 15 00 00 00
	00		 call	 DWORD PTR __imp__EnableWindow@8
  0000b	c3		 ret	 0
?EndModalState@CWnd@@UAEXXZ ENDP			; CWnd::EndModalState
_TEXT	ENDS
; Function compile flags: /Ogtp
; File C:\Program Files (x86)\Microsoft Visual Studio\2019\Community\VC\Tools\MSVC\14.29.30133\atlmfc\include\afxwin2.inl
;	COMDAT ?BeginModalState@CWnd@@UAEXXZ
_TEXT	SEGMENT
?BeginModalState@CWnd@@UAEXXZ PROC			; CWnd::BeginModalState, COMDAT
; _this$ = ecx

; 565  : 	{ ::EnableWindow(m_hWnd, FALSE); }

  00000	6a 00		 push	 0
  00002	ff 71 20	 push	 DWORD PTR [ecx+32]
  00005	ff 15 00 00 00
	00		 call	 DWORD PTR __imp__EnableWindow@8
  0000b	c3		 ret	 0
?BeginModalState@CWnd@@UAEXXZ ENDP			; CWnd::BeginModalState
_TEXT	ENDS
; Function compile flags: /Ogtp
; File C:\Program Files (x86)\Microsoft Visual Studio\2019\Community\VC\Tools\MSVC\14.29.30133\atlmfc\include\afxwin1.inl
; File C:\Program Files (x86)\Microsoft Visual Studio\2019\Community\VC\Tools\MSVC\14.29.30133\atlmfc\include\afx.inl
;	COMDAT ??_GCBrush@@UAEPAXI@Z
_TEXT	SEGMENT
___flags$ = 8						; size = 4
??_GCBrush@@UAEPAXI@Z PROC				; CBrush::`scalar deleting destructor', COMDAT
; _this$ = ecx
  00000	55		 push	 ebp
  00001	8b ec		 mov	 ebp, esp
; File C:\Program Files (x86)\Microsoft Visual Studio\2019\Community\VC\Tools\MSVC\14.29.30133\atlmfc\include\afxwin1.inl

; 130  : 	{ }

  00003	56		 push	 esi
  00004	8b f1		 mov	 esi, ecx
  00006	c7 06 00 00 00
	00		 mov	 DWORD PTR [esi], OFFSET ??_7CBrush@@6B@
  0000c	e8 00 00 00 00	 call	 ??1CGdiObject@@UAE@XZ	; CGdiObject::~CGdiObject
  00011	8b 45 08	 mov	 eax, DWORD PTR ___flags$[ebp]
  00014	a8 01		 test	 al, 1
  00016	74 1f		 je	 SHORT $LN12@scalar
  00018	a8 04		 test	 al, 4
  0001a	75 10		 jne	 SHORT $LN3@scalar
; File C:\Program Files (x86)\Microsoft Visual Studio\2019\Community\VC\Tools\MSVC\14.29.30133\atlmfc\include\afx.inl

; 112  : 	{ ::operator delete(p); }

  0001c	56		 push	 esi
  0001d	e8 00 00 00 00	 call	 ??3@YAXPAX@Z		; operator delete
  00022	83 c4 04	 add	 esp, 4
  00025	8b c6		 mov	 eax, esi
  00027	5e		 pop	 esi
  00028	5d		 pop	 ebp
  00029	c2 04 00	 ret	 4
$LN3@scalar:
  0002c	6a 08		 push	 8
  0002e	56		 push	 esi
  0002f	e8 00 00 00 00	 call	 ?__global_delete@@YAXPAXI@Z ; __global_delete
  00034	83 c4 08	 add	 esp, 8
$LN12@scalar:
  00037	8b c6		 mov	 eax, esi
  00039	5e		 pop	 esi
  0003a	5d		 pop	 ebp
  0003b	c2 04 00	 ret	 4
??_GCBrush@@UAEPAXI@Z ENDP				; CBrush::`scalar deleting destructor'
_TEXT	ENDS
; Function compile flags: /Ogtp
; File C:\Program Files (x86)\Microsoft Visual Studio\2019\Community\VC\Tools\MSVC\14.29.30133\atlmfc\include\afxwin1.inl
;	COMDAT ??1CBrush@@UAE@XZ
_TEXT	SEGMENT
??1CBrush@@UAE@XZ PROC					; CBrush::~CBrush, COMDAT
; _this$ = ecx

; 130  : 	{ }

  00000	c7 01 00 00 00
	00		 mov	 DWORD PTR [ecx], OFFSET ??_7CBrush@@6B@
  00006	e9 00 00 00 00	 jmp	 ??1CGdiObject@@UAE@XZ	; CGdiObject::~CGdiObject
??1CBrush@@UAE@XZ ENDP					; CBrush::~CBrush
_TEXT	ENDS
; Function compile flags: /Ogtp
; File C:\Program Files (x86)\Microsoft Visual Studio\2019\Community\VC\Tools\MSVC\14.29.30133\atlmfc\include\afx.inl
;	COMDAT ??_GCGdiObject@@UAEPAXI@Z
_TEXT	SEGMENT
___flags$ = 8						; size = 4
??_GCGdiObject@@UAEPAXI@Z PROC				; CGdiObject::`scalar deleting destructor', COMDAT
; _this$ = ecx
  00000	55		 push	 ebp
  00001	8b ec		 mov	 ebp, esp
  00003	56		 push	 esi
  00004	8b f1		 mov	 esi, ecx
  00006	e8 00 00 00 00	 call	 ??1CGdiObject@@UAE@XZ	; CGdiObject::~CGdiObject
  0000b	8b 45 08	 mov	 eax, DWORD PTR ___flags$[ebp]
  0000e	a8 01		 test	 al, 1
  00010	74 1f		 je	 SHORT $LN9@scalar
  00012	a8 04		 test	 al, 4
  00014	75 10		 jne	 SHORT $LN3@scalar

; 112  : 	{ ::operator delete(p); }

  00016	56		 push	 esi
  00017	e8 00 00 00 00	 call	 ??3@YAXPAX@Z		; operator delete
  0001c	83 c4 04	 add	 esp, 4
  0001f	8b c6		 mov	 eax, esi
  00021	5e		 pop	 esi
  00022	5d		 pop	 ebp
  00023	c2 04 00	 ret	 4
$LN3@scalar:
  00026	6a 08		 push	 8
  00028	56		 push	 esi
  00029	e8 00 00 00 00	 call	 ?__global_delete@@YAXPAXI@Z ; __global_delete
  0002e	83 c4 08	 add	 esp, 8
$LN9@scalar:
  00031	8b c6		 mov	 eax, esi
  00033	5e		 pop	 esi
  00034	5d		 pop	 ebp
  00035	c2 04 00	 ret	 4
??_GCGdiObject@@UAEPAXI@Z ENDP				; CGdiObject::`scalar deleting destructor'
_TEXT	ENDS
; Function compile flags: /Ogtp
; File C:\Program Files (x86)\Microsoft Visual Studio\2019\Community\VC\Tools\MSVC\14.29.30133\atlmfc\include\afxwin1.inl
;	COMDAT ??1CGdiObject@@UAE@XZ
_TEXT	SEGMENT
_pException$2 = -540					; size = 4
_strMsg$3 = -536					; size = 4
_szErrorMessage$4 = -532				; size = 512
__$ArrayPad$ = -20					; size = 4
__$EHRec$ = -16						; size = 16
??1CGdiObject@@UAE@XZ PROC				; CGdiObject::~CGdiObject, COMDAT
; _this$ = ecx

; 74   : {

  00000	55		 push	 ebp
  00001	8b ec		 mov	 ebp, esp
  00003	6a ff		 push	 -1
  00005	68 00 00 00 00	 push	 __ehhandler$??1CGdiObject@@UAE@XZ
  0000a	64 a1 00 00 00
	00		 mov	 eax, DWORD PTR fs:0
  00010	50		 push	 eax
  00011	81 ec 10 02 00
	00		 sub	 esp, 528		; 00000210H
  00017	a1 00 00 00 00	 mov	 eax, DWORD PTR ___security_cookie
  0001c	33 c5		 xor	 eax, ebp
  0001e	89 45 ec	 mov	 DWORD PTR __$ArrayPad$[ebp], eax
  00021	53		 push	 ebx
  00022	56		 push	 esi
  00023	57		 push	 edi
  00024	50		 push	 eax
  00025	8d 45 f4	 lea	 eax, DWORD PTR __$EHRec$[ebp+4]
  00028	64 a3 00 00 00
	00		 mov	 DWORD PTR fs:0, eax
  0002e	89 65 f0	 mov	 DWORD PTR __$EHRec$[ebp], esp
  00031	c7 01 00 00 00
	00		 mov	 DWORD PTR [ecx], OFFSET ??_7CGdiObject@@6B@

; 75   : 	AFX_BEGIN_DESTRUCTOR

  00037	c7 45 fc 00 00
	00 00		 mov	 DWORD PTR __$EHRec$[ebp+12], 0

; 76   : 	DeleteObject();

  0003e	e8 00 00 00 00	 call	 ?DeleteObject@CGdiObject@@QAEHXZ ; CGdiObject::DeleteObject
$LN18@CGdiObject:

; 78   : }

  00043	8b 4d f4	 mov	 ecx, DWORD PTR __$EHRec$[ebp+4]
  00046	64 89 0d 00 00
	00 00		 mov	 DWORD PTR fs:0, ecx
  0004d	59		 pop	 ecx
  0004e	5f		 pop	 edi
  0004f	5e		 pop	 esi
  00050	5b		 pop	 ebx
  00051	8b 4d ec	 mov	 ecx, DWORD PTR __$ArrayPad$[ebp]
  00054	33 cd		 xor	 ecx, ebp
  00056	e8 00 00 00 00	 call	 @__security_check_cookie@4
  0005b	8b e5		 mov	 esp, ebp
  0005d	5d		 pop	 ebp
  0005e	c3		 ret	 0
__catch$??1CGdiObject@@UAE@XZ$0:

; 77   : 	AFX_END_DESTRUCTOR

  0005f	8d 8d e8 fd ff
	ff		 lea	 ecx, DWORD PTR _strMsg$3[ebp]
  00065	ff 15 00 00 00
	00		 call	 DWORD PTR __imp_??0?$CStringT@DV?$StrTraitMFC_DLL@DV?$ChTraitsCRT@D@ATL@@@@@ATL@@QAE@XZ
  0006b	8b b5 e4 fd ff
	ff		 mov	 esi, DWORD PTR _pException$2[ebp]
  00071	8d 8d ec fd ff
	ff		 lea	 ecx, DWORD PTR _szErrorMessage$4[ebp]
  00077	6a 00		 push	 0
  00079	68 00 02 00 00	 push	 512			; 00000200H
  0007e	51		 push	 ecx
  0007f	8b 06		 mov	 eax, DWORD PTR [esi]
  00081	8b ce		 mov	 ecx, esi
  00083	c6 45 fc 02	 mov	 BYTE PTR __$EHRec$[ebp+12], 2
  00087	ff 50 14	 call	 DWORD PTR [eax+20]
  0008a	85 c0		 test	 eax, eax
  0008c	74 2a		 je	 SHORT $LN9@CGdiObject
  0008e	8d 85 ec fd ff
	ff		 lea	 eax, DWORD PTR _szErrorMessage$4[ebp]
  00094	50		 push	 eax
  00095	6a 4d		 push	 77			; 0000004dH
  00097	68 00 00 00 00	 push	 OFFSET ??_C@_0HD@JJCHHHNK@C?3?2Program?5Files?5?$CIx86?$CJ?2Microsof@
  0009c	68 00 00 00 00	 push	 OFFSET ??_C@_0BP@OIEOKIDM@Exception?5thrown?5in?5destructor@
  000a1	8d 85 e8 fd ff
	ff		 lea	 eax, DWORD PTR _strMsg$3[ebp]
  000a7	68 00 00 00 00	 push	 OFFSET ??_C@_0BB@HBOOMJBF@?$CFTs?5?$CI?$CFTs?3?$CFd?$CJ?6?$CFTs@
  000ac	50		 push	 eax
  000ad	ff 15 00 00 00
	00		 call	 DWORD PTR __imp_?Format@?$CStringT@DV?$StrTraitMFC_DLL@DV?$ChTraitsCRT@D@ATL@@@@@ATL@@QAAXPBDZZ
  000b3	83 c4 18	 add	 esp, 24			; 00000018H
  000b6	eb 21		 jmp	 SHORT $LN10@CGdiObject
$LN9@CGdiObject:
  000b8	6a 4d		 push	 77			; 0000004dH
  000ba	68 00 00 00 00	 push	 OFFSET ??_C@_0HD@JJCHHHNK@C?3?2Program?5Files?5?$CIx86?$CJ?2Microsof@
  000bf	68 00 00 00 00	 push	 OFFSET ??_C@_0BP@OIEOKIDM@Exception?5thrown?5in?5destructor@
  000c4	8d 85 e8 fd ff
	ff		 lea	 eax, DWORD PTR _strMsg$3[ebp]
  000ca	68 00 00 00 00	 push	 OFFSET ??_C@_0N@OMEMOKLE@?$CFTs?5?$CI?$CFTs?3?$CFd?$CJ@
  000cf	50		 push	 eax
  000d0	ff 15 00 00 00
	00		 call	 DWORD PTR __imp_?Format@?$CStringT@DV?$StrTraitMFC_DLL@DV?$ChTraitsCRT@D@ATL@@@@@ATL@@QAAXPBDZZ
  000d6	83 c4 14	 add	 esp, 20			; 00000014H
$LN10@CGdiObject:
  000d9	6a 00		 push	 0
  000db	6a 00		 push	 0
  000dd	ff b5 e8 fd ff
	ff		 push	 DWORD PTR _strMsg$3[ebp]
  000e3	e8 00 00 00 00	 call	 ?AfxMessageBox@@YGHPBDII@Z ; AfxMessageBox
  000e8	8d 8d e8 fd ff
	ff		 lea	 ecx, DWORD PTR _strMsg$3[ebp]
  000ee	ff 15 00 00 00
	00		 call	 DWORD PTR __imp_??1?$CStringT@DV?$StrTraitMFC_DLL@DV?$ChTraitsCRT@D@ATL@@@@@ATL@@QAE@XZ
  000f4	8b 06		 mov	 eax, DWORD PTR [esi]
  000f6	8b ce		 mov	 ecx, esi
  000f8	6a 01		 push	 1
  000fa	ff 50 04	 call	 DWORD PTR [eax+4]
  000fd	b8 00 00 00 00	 mov	 eax, $LN18@CGdiObject
  00102	c3		 ret	 0
_TEXT	ENDS
;	COMDAT text$x
text$x	SEGMENT
__unwindfunclet$??1CGdiObject@@UAE@XZ$2:
  00000	8d 8d e8 fd ff
	ff		 lea	 ecx, DWORD PTR _strMsg$3[ebp]
  00006	ff 25 00 00 00
	00		 jmp	 DWORD PTR __imp_??1?$CStringT@DV?$StrTraitMFC_DLL@DV?$ChTraitsCRT@D@ATL@@@@@ATL@@QAE@XZ
  0000c	cc		 int	 3
  0000d	cc		 int	 3
  0000e	cc		 int	 3
  0000f	cc		 int	 3
  00010	cc		 int	 3
__ehhandler$??1CGdiObject@@UAE@XZ:
  00011	90		 npad	 1
  00012	90		 npad	 1
  00013	8b 54 24 08	 mov	 edx, DWORD PTR [esp+8]
  00017	8d 42 0c	 lea	 eax, DWORD PTR [edx+12]
  0001a	8b 8a e0 fd ff
	ff		 mov	 ecx, DWORD PTR [edx-544]
  00020	33 c8		 xor	 ecx, eax
  00022	e8 00 00 00 00	 call	 @__security_check_cookie@4
  00027	8b 4a f8	 mov	 ecx, DWORD PTR [edx-8]
  0002a	33 c8		 xor	 ecx, eax
  0002c	e8 00 00 00 00	 call	 @__security_check_cookie@4
  00031	b8 00 00 00 00	 mov	 eax, OFFSET __ehfuncinfo$??1CGdiObject@@UAE@XZ
  00036	e9 00 00 00 00	 jmp	 ___CxxFrameHandler3
text$x	ENDS
??1CGdiObject@@UAE@XZ ENDP				; CGdiObject::~CGdiObject
; Function compile flags: /Ogtp
; File C:\Program Files (x86)\Microsoft Visual Studio\2019\Community\VC\Tools\MSVC\14.29.30133\atlmfc\include\afx.inl
;	COMDAT ?Dump@CObject@@UBEXAAVCDumpContext@@@Z
_TEXT	SEGMENT
___formal$ = 8						; size = 4
?Dump@CObject@@UBEXAAVCDumpContext@@@Z PROC		; CObject::Dump, COMDAT
; _this$ = ecx

; 122  : 	{ /* no dumping in release builds */ }

  00000	c2 04 00	 ret	 4
?Dump@CObject@@UBEXAAVCDumpContext@@@Z ENDP		; CObject::Dump
_TEXT	ENDS
; Function compile flags: /Ogtp
; File C:\Program Files (x86)\Microsoft Visual Studio\2019\Community\VC\Tools\MSVC\14.29.30133\atlmfc\include\afx.inl
;	COMDAT ?AssertValid@CObject@@UBEXXZ
_TEXT	SEGMENT
?AssertValid@CObject@@UBEXXZ PROC			; CObject::AssertValid, COMDAT
; _this$ = ecx

; 120  : 	{ /* no asserts in release builds */ }

  00000	c2 00 00	 ret	 0
?AssertValid@CObject@@UBEXXZ ENDP			; CObject::AssertValid
_TEXT	ENDS
; Function compile flags: /Ogtp
; File C:\Program Files (x86)\Microsoft Visual Studio\2019\Community\VC\Tools\MSVC\14.29.30133\atlmfc\include\afx.inl
;	COMDAT ?Serialize@CObject@@UAEXAAVCArchive@@@Z
_TEXT	SEGMENT
___formal$ = 8						; size = 4
?Serialize@CObject@@UAEXAAVCArchive@@@Z PROC		; CObject::Serialize, COMDAT
; _this$ = ecx

; 106  : 	{ /* CObject does not serialize anything by default */ }

  00000	c2 04 00	 ret	 4
?Serialize@CObject@@UAEXAAVCArchive@@@Z ENDP		; CObject::Serialize
_TEXT	ENDS
; Function compile flags: /Ogtp
; File C:\Program Files (x86)\Microsoft Visual Studio\2019\Community\VC\Tools\MSVC\14.29.30133\atlmfc\include\afx.inl
;	COMDAT ??1CObject@@UAE@XZ
_TEXT	SEGMENT
??1CObject@@UAE@XZ PROC					; CObject::~CObject, COMDAT
; _this$ = ecx

; 104  : 	{ }

  00000	c2 00 00	 ret	 0
??1CObject@@UAE@XZ ENDP					; CObject::~CObject
_TEXT	ENDS
; Function compile flags: /Ogtp
; File C:\Program Files (x86)\Windows Kits\10\Include\10.0.22000.0\ucrt\stdio.h
;	COMDAT _sscanf
_TEXT	SEGMENT
__Buffer$ = 8						; size = 4
__Format$ = 12						; size = 4
_sscanf	PROC						; COMDAT

; 2247 :     {

  00000	55		 push	 ebp
  00001	8b ec		 mov	 ebp, esp

; 2153 :         return __stdio_common_vsscanf(

  00003	8d 45 10	 lea	 eax, DWORD PTR __Format$[ebp+4]
  00006	50		 push	 eax
  00007	6a 00		 push	 0
  00009	ff 75 0c	 push	 DWORD PTR __Format$[ebp]
  0000c	6a ff		 push	 -1
  0000e	ff 75 08	 push	 DWORD PTR __Buffer$[ebp]
  00011	e8 00 00 00 00	 call	 ___local_stdio_scanf_options
  00016	ff 70 04	 push	 DWORD PTR [eax+4]
  00019	ff 30		 push	 DWORD PTR [eax]
  0001b	ff 15 00 00 00
	00		 call	 DWORD PTR __imp____stdio_common_vsscanf
  00021	83 c4 1c	 add	 esp, 28			; 0000001cH

; 2248 :         int _Result;
; 2249 :         va_list _ArgList;
; 2250 :         __crt_va_start(_ArgList, _Format);
; 2251 :         _Result = _vsscanf_l(_Buffer, _Format, NULL, _ArgList);
; 2252 :         __crt_va_end(_ArgList);
; 2253 :         return _Result;
; 2254 :     }

  00024	5d		 pop	 ebp
  00025	c3		 ret	 0
_sscanf	ENDP
_TEXT	ENDS
; Function compile flags: /Ogtp
; File C:\Program Files (x86)\Windows Kits\10\Include\10.0.22000.0\ucrt\corecrt_stdio_config.h
;	COMDAT ___local_stdio_scanf_options
_TEXT	SEGMENT
___local_stdio_scanf_options PROC			; COMDAT

; 101  :         static unsigned __int64 _OptionsStorage;
; 102  :         return &_OptionsStorage;

  00000	b8 00 00 00 00	 mov	 eax, OFFSET ?_OptionsStorage@?1??__local_stdio_scanf_options@@9@4_KA ; `__local_stdio_scanf_options'::`2'::_OptionsStorage

; 103  :     }

  00005	c3		 ret	 0
___local_stdio_scanf_options ENDP
_TEXT	ENDS
; Function compile flags: /Ogtp
; File D:\git\src\IBK\IBK_DRFN\ProjSrc\SrcDrfn\Chart\comparechart\UsrAddListDlg.cpp
;	COMDAT ?__empty_global_delete@@YAXPAXI@Z
_TEXT	SEGMENT
___formal$ = 8						; size = 4
___formal$ = 12						; size = 4
?__empty_global_delete@@YAXPAXI@Z PROC			; __empty_global_delete, COMDAT

  00000	c2 00 00	 ret	 0
?__empty_global_delete@@YAXPAXI@Z ENDP			; __empty_global_delete
_TEXT	ENDS
; Function compile flags: /Ogtp
; File D:\git\src\IBK\IBK_DRFN\ProjSrc\SrcDrfn\Chart\comparechart\UsrAddListDlg.cpp
;	COMDAT ?__empty_global_delete@@YAXPAX@Z
_TEXT	SEGMENT
___formal$ = 8						; size = 4
?__empty_global_delete@@YAXPAX@Z PROC			; __empty_global_delete, COMDAT

  00000	c2 00 00	 ret	 0
?__empty_global_delete@@YAXPAX@Z ENDP			; __empty_global_delete
_TEXT	ENDS
END
