; Listing generated by Microsoft (R) Optimizing Compiler Version 19.29.30148.0 

	TITLE	D:\git\src\IBK\IBK_DRFN\#DRfn-CS\_Obj\CompareChart\Util.obj
	.686P
	.XMM
	include listing.inc
	.model	flat

INCLUDELIB MSVCRT
INCLUDELIB OLDNAMES

PUBLIC	?__empty_global_delete@@YAXPAX@Z		; __empty_global_delete
PUBLIC	?__empty_global_delete@@YAXPAXI@Z		; __empty_global_delete
PUBLIC	??1CRegKey@ATL@@QAE@XZ				; ATL::CRegKey::~CRegKey
PUBLIC	?_GetBaseClass@CUtil@@KGPAUCRuntimeClass@@XZ	; CUtil::_GetBaseClass
PUBLIC	?GetThisClass@CUtil@@SGPAUCRuntimeClass@@XZ	; CUtil::GetThisClass
PUBLIC	?GetRuntimeClass@CUtil@@UBEPAUCRuntimeClass@@XZ	; CUtil::GetRuntimeClass
PUBLIC	?AddDashToAccount@CUtil@@QAEXPBDAAV?$CStringT@DV?$StrTraitMFC_DLL@DV?$ChTraitsCRT@D@ATL@@@@@ATL@@@Z ; CUtil::AddDashToAccount
PUBLIC	?GetSignSimbol@CUtil@@QAE?AV?$CStringT@DV?$StrTraitMFC_DLL@DV?$ChTraitsCRT@D@ATL@@@@@ATL@@H@Z ; CUtil::GetSignSimbol
PUBLIC	?GetRegKey@CUtil@@QAEHPBD0AAV?$CStringT@DV?$StrTraitMFC_DLL@DV?$ChTraitsCRT@D@ATL@@@@@ATL@@@Z ; CUtil::GetRegKey
PUBLIC	?AdjustMask@CUtil@@QAE?AV?$CStringT@DV?$StrTraitMFC_DLL@DV?$ChTraitsCRT@D@ATL@@@@@ATL@@V23@H@Z ; CUtil::AdjustMask
PUBLIC	?AdjustMask@CUtil@@QAE?AV?$CStringT@DV?$StrTraitMFC_DLL@DV?$ChTraitsCRT@D@ATL@@@@@ATL@@V23@0@Z ; CUtil::AdjustMask
PUBLIC	?TrimRight@CUtil@@QAEXPAD@Z			; CUtil::TrimRight
PUBLIC	?RemoveCharAll@CUtil@@QAEXAAV?$CStringT@DV?$StrTraitMFC_DLL@DV?$ChTraitsCRT@D@ATL@@@@@ATL@@D@Z ; CUtil::RemoveCharAll
PUBLIC	?ValidNumber@CUtil@@QAEHPBD@Z			; CUtil::ValidNumber
PUBLIC	?IsSign@CUtil@@QAEHPBD@Z			; CUtil::IsSign
PUBLIC	?GetWord@CUtil@@QAEXPAD0D@Z			; CUtil::GetWord
PUBLIC	?GetString@CUtil@@QAEHAAV?$CStringT@DV?$StrTraitMFC_DLL@DV?$ChTraitsCRT@D@ATL@@@@@ATL@@0D@Z ; CUtil::GetString
PUBLIC	?IsNumber@CUtil@@QAEHI@Z			; CUtil::IsNumber
PUBLIC	?IsOnlyNumber@CUtil@@QAEHPBD@Z			; CUtil::IsOnlyNumber
PUBLIC	?Remove@CUtil@@QAEHAAV?$CStringT@DV?$StrTraitMFC_DLL@DV?$ChTraitsCRT@D@ATL@@@@@ATL@@DH@Z ; CUtil::Remove
PUBLIC	?RemoveAll@CUtil@@QAEHAAV?$CStringT@DV?$StrTraitMFC_DLL@DV?$ChTraitsCRT@D@ATL@@@@@ATL@@D@Z ; CUtil::RemoveAll
PUBLIC	?RemoveFront@CUtil@@QAEPADPBDD@Z		; CUtil::RemoveFront
PUBLIC	?GetComma@CUtil@@QAE?AV?$CStringT@DV?$StrTraitMFC_DLL@DV?$ChTraitsCRT@D@ATL@@@@@ATL@@PBD@Z ; CUtil::GetComma
PUBLIC	?GetOnlyNumber@CUtil@@QAE?AV?$CStringT@DV?$StrTraitMFC_DLL@DV?$ChTraitsCRT@D@ATL@@@@@ATL@@PBD@Z ; CUtil::GetOnlyNumber
PUBLIC	?GetNumber@CUtil@@QAE?AV?$CStringT@DV?$StrTraitMFC_DLL@DV?$ChTraitsCRT@D@ATL@@@@@ATL@@PBD@Z ; CUtil::GetNumber
PUBLIC	?GetMakeText@CUtil@@QAE?AV?$CStringT@DV?$StrTraitMFC_DLL@DV?$ChTraitsCRT@D@ATL@@@@@ATL@@DH@Z ; CUtil::GetMakeText
PUBLIC	?SetLengthString@CUtil@@QAE?AV?$CStringT@DV?$StrTraitMFC_DLL@DV?$ChTraitsCRT@D@ATL@@@@@ATL@@PBDH@Z ; CUtil::SetLengthString
PUBLIC	?RemoveChar@CUtil@@QAE?AV?$CStringT@DV?$StrTraitMFC_DLL@DV?$ChTraitsCRT@D@ATL@@@@@ATL@@PBDD@Z ; CUtil::RemoveChar
PUBLIC	?GetPriceUnit@CUtil@@QAE?AV?$CStringT@DV?$StrTraitMFC_DLL@DV?$ChTraitsCRT@D@ATL@@@@@ATL@@PBD@Z ; CUtil::GetPriceUnit
PUBLIC	?GetPriceUnitMan@CUtil@@QAE?AV?$CStringT@DV?$StrTraitMFC_DLL@DV?$ChTraitsCRT@D@ATL@@@@@ATL@@PBD@Z ; CUtil::GetPriceUnitMan
PUBLIC	?GetVolUnit@CUtil@@QAE?AV?$CStringT@DV?$StrTraitMFC_DLL@DV?$ChTraitsCRT@D@ATL@@@@@ATL@@PBD@Z ; CUtil::GetVolUnit
PUBLIC	?GetPre_N_NextHoga@CUtil@@QAEXHJPAJ0@Z		; CUtil::GetPre_N_NextHoga
PUBLIC	?GetHogaTick@CUtil@@QAEHHH@Z			; CUtil::GetHogaTick
PUBLIC	??_C@_0N@DOHINHCI@Advapi32?4dll@		; `string'
PUBLIC	??_C@_0BG@FGMNHMFJ@RegOpenKeyTransactedA@	; `string'
PUBLIC	??_C@_02DPKJAMEF@?$CFd@				; `string'
PUBLIC	??_C@_00CNPNBAHC@@				; `string'
PUBLIC	??_C@_01GBGANLPD@0@				; `string'
PUBLIC	?classCUtil@CUtil@@2UCRuntimeClass@@B		; CUtil::classCUtil
PUBLIC	??_C@_05FNBBIFOK@CUtil@				; `string'
PUBLIC	??_C@_01LFCBOECM@?4@				; `string'
PUBLIC	??_C@_06LOHACGPJ@?$CF?9?$CK?4?$CKs@		; `string'
PUBLIC	??_C@_02EOKDGIFO@?$KB?h@			; `string'
PUBLIC	??_C@_02KNFHLBJF@?$KB?c@			; `string'
PUBLIC	??_C@_02FHLIFJBP@?$KB?i@			; `string'
PUBLIC	??_C@_02PLANBGBD@?$KB?e@			; `string'
PUBLIC	??_C@_01JOAMLHOP@?9@				; `string'
PUBLIC	??_C@_04KFBDNGB@?$LO?o?$LP?x@			; `string'
PUBLIC	??_C@_04NDMLPPNK@?$LI?$LI?$LP?x@		; `string'
PUBLIC	??_C@_04NKBNBILN@?$LN?J?$LP?x@			; `string'
PUBLIC	??_C@_04FPDJHBBH@?$LO?o?A?V@			; `string'
PUBLIC	??_C@_04IGKDLDKM@?$LI?$LI?A?V@			; `string'
PUBLIC	??_C@_02EHLBLIAD@?A?V@				; `string'
EXTRN	??3@YAXPAXI@Z:PROC				; operator delete
EXTRN	??_U@YAPAXI@Z:PROC				; operator new[]
EXTRN	__imp__isspace:PROC
EXTRN	__imp__GetModuleHandleA@4:PROC
EXTRN	__imp__GetProcAddress@8:PROC
EXTRN	__imp__RegCloseKey@4:PROC
EXTRN	__imp__RegOpenKeyExA@20:PROC
EXTRN	__imp__RegQueryValueExA@24:PROC
EXTRN	__imp__atoi:PROC
EXTRN	?AfxThrowMemoryException@@YGXXZ:PROC		; AfxThrowMemoryException
EXTRN	?AfxThrowOleException@@YGXJ@Z:PROC		; AfxThrowOleException
EXTRN	?GetThisClass@CObject@@SGPAUCRuntimeClass@@XZ:PROC ; CObject::GetThisClass
EXTRN	__imp_??A?$CSimpleStringT@D$00@ATL@@QBEDH@Z:PROC
EXTRN	__imp_?Empty@?$CSimpleStringT@D$00@ATL@@QAEXXZ:PROC
EXTRN	__imp_?GetBuffer@?$CSimpleStringT@D$00@ATL@@QAEPADH@Z:PROC
EXTRN	__imp_?ReleaseBuffer@?$CSimpleStringT@D$00@ATL@@QAEXH@Z:PROC
EXTRN	__imp_?Concatenate@?$CSimpleStringT@D$00@ATL@@KAXAAV12@PBDH1H@Z:PROC
EXTRN	__imp_??0?$CStringT@DV?$StrTraitMFC_DLL@DV?$ChTraitsCRT@D@ATL@@@@@ATL@@QAE@XZ:PROC
EXTRN	__imp_??0?$CStringT@DV?$StrTraitMFC_DLL@DV?$ChTraitsCRT@D@ATL@@@@@ATL@@QAE@PAUIAtlStringMgr@1@@Z:PROC
EXTRN	__imp_??0?$CStringT@DV?$StrTraitMFC_DLL@DV?$ChTraitsCRT@D@ATL@@@@@ATL@@QAE@ABV01@@Z:PROC
EXTRN	__imp_??0?$CStringT@DV?$StrTraitMFC_DLL@DV?$ChTraitsCRT@D@ATL@@@@@ATL@@QAE@PBD@Z:PROC
EXTRN	__imp_??1?$CStringT@DV?$StrTraitMFC_DLL@DV?$ChTraitsCRT@D@ATL@@@@@ATL@@QAE@XZ:PROC
EXTRN	__imp_??4?$CStringT@DV?$StrTraitMFC_DLL@DV?$ChTraitsCRT@D@ATL@@@@@ATL@@QAEAAV01@ABV01@@Z:PROC
EXTRN	__imp_??4?$CStringT@DV?$StrTraitMFC_DLL@DV?$ChTraitsCRT@D@ATL@@@@@ATL@@QAEAAV01@PBD@Z:PROC
EXTRN	__imp_??Y?$CStringT@DV?$StrTraitMFC_DLL@DV?$ChTraitsCRT@D@ATL@@@@@ATL@@QAEAAV01@D@Z:PROC
EXTRN	__imp_?GetManager@?$CStringT@DV?$StrTraitMFC_DLL@DV?$ChTraitsCRT@D@ATL@@@@@ATL@@QBEPAUIAtlStringMgr@2@XZ:PROC
EXTRN	__imp_?Compare@?$CStringT@DV?$StrTraitMFC_DLL@DV?$ChTraitsCRT@D@ATL@@@@@ATL@@QBEHPBD@Z:PROC
EXTRN	__imp_?Insert@?$CStringT@DV?$StrTraitMFC_DLL@DV?$ChTraitsCRT@D@ATL@@@@@ATL@@QAEHHPBD@Z:PROC
EXTRN	__imp_?Remove@?$CStringT@DV?$StrTraitMFC_DLL@DV?$ChTraitsCRT@D@ATL@@@@@ATL@@QAEHD@Z:PROC
EXTRN	__imp_?Find@?$CStringT@DV?$StrTraitMFC_DLL@DV?$ChTraitsCRT@D@ATL@@@@@ATL@@QBEHDH@Z:PROC
EXTRN	__imp_?Find@?$CStringT@DV?$StrTraitMFC_DLL@DV?$ChTraitsCRT@D@ATL@@@@@ATL@@QBEHPBDH@Z:PROC
EXTRN	__imp_?MakeReverse@?$CStringT@DV?$StrTraitMFC_DLL@DV?$ChTraitsCRT@D@ATL@@@@@ATL@@QAEAAV12@XZ:PROC
EXTRN	__imp_?TrimRight@?$CStringT@DV?$StrTraitMFC_DLL@DV?$ChTraitsCRT@D@ATL@@@@@ATL@@QAEAAV12@XZ:PROC
EXTRN	__imp_?TrimLeft@?$CStringT@DV?$StrTraitMFC_DLL@DV?$ChTraitsCRT@D@ATL@@@@@ATL@@QAEAAV12@XZ:PROC
EXTRN	__imp_?Mid@?$CStringT@DV?$StrTraitMFC_DLL@DV?$ChTraitsCRT@D@ATL@@@@@ATL@@QBE?AV12@H@Z:PROC
EXTRN	__imp_?Mid@?$CStringT@DV?$StrTraitMFC_DLL@DV?$ChTraitsCRT@D@ATL@@@@@ATL@@QBE?AV12@HH@Z:PROC
EXTRN	__imp_?Left@?$CStringT@DV?$StrTraitMFC_DLL@DV?$ChTraitsCRT@D@ATL@@@@@ATL@@QBE?AV12@H@Z:PROC
EXTRN	__imp_?Format@?$CStringT@DV?$StrTraitMFC_DLL@DV?$ChTraitsCRT@D@ATL@@@@@ATL@@QAAXPBDZZ:PROC
EXTRN	@__security_check_cookie@4:PROC
EXTRN	___CxxFrameHandler3:PROC
EXTRN	___security_cookie:DWORD
;	COMDAT ??_C@_02EHLBLIAD@?A?V@
CONST	SEGMENT
??_C@_02EHLBLIAD@?A?V@ DB 0c1H, 0d6H, 00H		; `string'
CONST	ENDS
;	COMDAT ??_C@_04IGKDLDKM@?$LI?$LI?A?V@
CONST	SEGMENT
??_C@_04IGKDLDKM@?$LI?$LI?A?V@ DB 0b8H, 0b8H, 0c1H, 0d6H, 00H ; `string'
CONST	ENDS
;	COMDAT ??_C@_04FPDJHBBH@?$LO?o?A?V@
CONST	SEGMENT
??_C@_04FPDJHBBH@?$LO?o?A?V@ DB 0beH, 0efH, 0c1H, 0d6H, 00H ; `string'
CONST	ENDS
;	COMDAT ??_C@_04NKBNBILN@?$LN?J?$LP?x@
CONST	SEGMENT
??_C@_04NKBNBILN@?$LN?J?$LP?x@ DB 0bdH, 0caH, 0bfH, 0f8H, 00H ; `string'
CONST	ENDS
;	COMDAT ??_C@_04NDMLPPNK@?$LI?$LI?$LP?x@
CONST	SEGMENT
??_C@_04NDMLPPNK@?$LI?$LI?$LP?x@ DB 0b8H, 0b8H, 0bfH, 0f8H, 00H ; `string'
CONST	ENDS
;	COMDAT ??_C@_04KFBDNGB@?$LO?o?$LP?x@
CONST	SEGMENT
??_C@_04KFBDNGB@?$LO?o?$LP?x@ DB 0beH, 0efH, 0bfH, 0f8H, 00H ; `string'
CONST	ENDS
;	COMDAT ??_C@_01JOAMLHOP@?9@
CONST	SEGMENT
??_C@_01JOAMLHOP@?9@ DB '-', 00H			; `string'
CONST	ENDS
;	COMDAT ??_C@_02PLANBGBD@?$KB?e@
CONST	SEGMENT
??_C@_02PLANBGBD@?$KB?e@ DB 0a1H, 0e5H, 00H		; `string'
CONST	ENDS
;	COMDAT ??_C@_02FHLIFJBP@?$KB?i@
CONST	SEGMENT
??_C@_02FHLIFJBP@?$KB?i@ DB 0a1H, 0e9H, 00H		; `string'
CONST	ENDS
;	COMDAT ??_C@_02KNFHLBJF@?$KB?c@
CONST	SEGMENT
??_C@_02KNFHLBJF@?$KB?c@ DB 0a1H, 0e3H, 00H		; `string'
CONST	ENDS
;	COMDAT ??_C@_02EOKDGIFO@?$KB?h@
CONST	SEGMENT
??_C@_02EOKDGIFO@?$KB?h@ DB 0a1H, 0e8H, 00H		; `string'
CONST	ENDS
;	COMDAT ??_C@_06LOHACGPJ@?$CF?9?$CK?4?$CKs@
CONST	SEGMENT
??_C@_06LOHACGPJ@?$CF?9?$CK?4?$CKs@ DB '%-*.*s', 00H	; `string'
CONST	ENDS
;	COMDAT ??_C@_01LFCBOECM@?4@
CONST	SEGMENT
??_C@_01LFCBOECM@?4@ DB '.', 00H			; `string'
CONST	ENDS
;	COMDAT ??_C@_05FNBBIFOK@CUtil@
CONST	SEGMENT
??_C@_05FNBBIFOK@CUtil@ DB 'CUtil', 00H			; `string'
CONST	ENDS
;	COMDAT ?classCUtil@CUtil@@2UCRuntimeClass@@B
CONST	SEGMENT
?classCUtil@CUtil@@2UCRuntimeClass@@B DD FLAT:??_C@_05FNBBIFOK@CUtil@ ; CUtil::classCUtil
	DD	04H
	DD	0ffffH
	DD	00H
	DD	FLAT:?_GetBaseClass@CUtil@@KGPAUCRuntimeClass@@XZ
	DD	00H
	DD	00H
CONST	ENDS
;	COMDAT ??_C@_01GBGANLPD@0@
CONST	SEGMENT
??_C@_01GBGANLPD@0@ DB '0', 00H				; `string'
CONST	ENDS
;	COMDAT ??_C@_00CNPNBAHC@@
CONST	SEGMENT
??_C@_00CNPNBAHC@@ DB 00H				; `string'
CONST	ENDS
;	COMDAT ??_C@_02DPKJAMEF@?$CFd@
CONST	SEGMENT
??_C@_02DPKJAMEF@?$CFd@ DB '%d', 00H			; `string'
CONST	ENDS
;	COMDAT ??_C@_0BG@FGMNHMFJ@RegOpenKeyTransactedA@
CONST	SEGMENT
??_C@_0BG@FGMNHMFJ@RegOpenKeyTransactedA@ DB 'RegOpenKeyTransactedA', 00H ; `string'
CONST	ENDS
;	COMDAT ??_C@_0N@DOHINHCI@Advapi32?4dll@
CONST	SEGMENT
??_C@_0N@DOHINHCI@Advapi32?4dll@ DB 'Advapi32.dll', 00H	; `string'
CONST	ENDS
;	COMDAT xdata$x
xdata$x	SEGMENT
__ehfuncinfo$?GetVolUnit@CUtil@@QAE?AV?$CStringT@DV?$StrTraitMFC_DLL@DV?$ChTraitsCRT@D@ATL@@@@@ATL@@PBD@Z DD 019930522H
	DD	0bH
	DD	FLAT:__unwindtable$?GetVolUnit@CUtil@@QAE?AV?$CStringT@DV?$StrTraitMFC_DLL@DV?$ChTraitsCRT@D@ATL@@@@@ATL@@PBD@Z
	DD	2 DUP(00H)
	DD	2 DUP(00H)
	DD	00H
	DD	01H
__unwindtable$?GetVolUnit@CUtil@@QAE?AV?$CStringT@DV?$StrTraitMFC_DLL@DV?$ChTraitsCRT@D@ATL@@@@@ATL@@PBD@Z DD 0ffffffffH
	DD	FLAT:__unwindfunclet$?GetVolUnit@CUtil@@QAE?AV?$CStringT@DV?$StrTraitMFC_DLL@DV?$ChTraitsCRT@D@ATL@@@@@ATL@@PBD@Z$0
	DD	00H
	DD	FLAT:__unwindfunclet$?GetVolUnit@CUtil@@QAE?AV?$CStringT@DV?$StrTraitMFC_DLL@DV?$ChTraitsCRT@D@ATL@@@@@ATL@@PBD@Z$1
	DD	01H
	DD	FLAT:__unwindfunclet$?GetVolUnit@CUtil@@QAE?AV?$CStringT@DV?$StrTraitMFC_DLL@DV?$ChTraitsCRT@D@ATL@@@@@ATL@@PBD@Z$2
	DD	02H
	DD	FLAT:__unwindfunclet$?GetVolUnit@CUtil@@QAE?AV?$CStringT@DV?$StrTraitMFC_DLL@DV?$ChTraitsCRT@D@ATL@@@@@ATL@@PBD@Z$3
	DD	02H
	DD	FLAT:__unwindfunclet$?GetVolUnit@CUtil@@QAE?AV?$CStringT@DV?$StrTraitMFC_DLL@DV?$ChTraitsCRT@D@ATL@@@@@ATL@@PBD@Z$4
	DD	02H
	DD	FLAT:__unwindfunclet$?GetVolUnit@CUtil@@QAE?AV?$CStringT@DV?$StrTraitMFC_DLL@DV?$ChTraitsCRT@D@ATL@@@@@ATL@@PBD@Z$12
	DD	02H
	DD	FLAT:__unwindfunclet$?GetVolUnit@CUtil@@QAE?AV?$CStringT@DV?$StrTraitMFC_DLL@DV?$ChTraitsCRT@D@ATL@@@@@ATL@@PBD@Z$7
	DD	02H
	DD	FLAT:__unwindfunclet$?GetVolUnit@CUtil@@QAE?AV?$CStringT@DV?$StrTraitMFC_DLL@DV?$ChTraitsCRT@D@ATL@@@@@ATL@@PBD@Z$8
	DD	02H
	DD	FLAT:__unwindfunclet$?GetVolUnit@CUtil@@QAE?AV?$CStringT@DV?$StrTraitMFC_DLL@DV?$ChTraitsCRT@D@ATL@@@@@ATL@@PBD@Z$13
	DD	02H
	DD	FLAT:__unwindfunclet$?GetVolUnit@CUtil@@QAE?AV?$CStringT@DV?$StrTraitMFC_DLL@DV?$ChTraitsCRT@D@ATL@@@@@ATL@@PBD@Z$10
	DD	02H
	DD	FLAT:__unwindfunclet$?GetVolUnit@CUtil@@QAE?AV?$CStringT@DV?$StrTraitMFC_DLL@DV?$ChTraitsCRT@D@ATL@@@@@ATL@@PBD@Z$14
xdata$x	ENDS
;	COMDAT xdata$x
xdata$x	SEGMENT
__ehfuncinfo$?GetPriceUnitMan@CUtil@@QAE?AV?$CStringT@DV?$StrTraitMFC_DLL@DV?$ChTraitsCRT@D@ATL@@@@@ATL@@PBD@Z DD 019930522H
	DD	05H
	DD	FLAT:__unwindtable$?GetPriceUnitMan@CUtil@@QAE?AV?$CStringT@DV?$StrTraitMFC_DLL@DV?$ChTraitsCRT@D@ATL@@@@@ATL@@PBD@Z
	DD	2 DUP(00H)
	DD	2 DUP(00H)
	DD	00H
	DD	01H
__unwindtable$?GetPriceUnitMan@CUtil@@QAE?AV?$CStringT@DV?$StrTraitMFC_DLL@DV?$ChTraitsCRT@D@ATL@@@@@ATL@@PBD@Z DD 0ffffffffH
	DD	FLAT:__unwindfunclet$?GetPriceUnitMan@CUtil@@QAE?AV?$CStringT@DV?$StrTraitMFC_DLL@DV?$ChTraitsCRT@D@ATL@@@@@ATL@@PBD@Z$0
	DD	00H
	DD	FLAT:__unwindfunclet$?GetPriceUnitMan@CUtil@@QAE?AV?$CStringT@DV?$StrTraitMFC_DLL@DV?$ChTraitsCRT@D@ATL@@@@@ATL@@PBD@Z$1
	DD	01H
	DD	FLAT:__unwindfunclet$?GetPriceUnitMan@CUtil@@QAE?AV?$CStringT@DV?$StrTraitMFC_DLL@DV?$ChTraitsCRT@D@ATL@@@@@ATL@@PBD@Z$2
	DD	02H
	DD	FLAT:__unwindfunclet$?GetPriceUnitMan@CUtil@@QAE?AV?$CStringT@DV?$StrTraitMFC_DLL@DV?$ChTraitsCRT@D@ATL@@@@@ATL@@PBD@Z$3
	DD	02H
	DD	FLAT:__unwindfunclet$?GetPriceUnitMan@CUtil@@QAE?AV?$CStringT@DV?$StrTraitMFC_DLL@DV?$ChTraitsCRT@D@ATL@@@@@ATL@@PBD@Z$4
xdata$x	ENDS
;	COMDAT xdata$x
xdata$x	SEGMENT
__ehfuncinfo$?GetPriceUnit@CUtil@@QAE?AV?$CStringT@DV?$StrTraitMFC_DLL@DV?$ChTraitsCRT@D@ATL@@@@@ATL@@PBD@Z DD 019930522H
	DD	0aH
	DD	FLAT:__unwindtable$?GetPriceUnit@CUtil@@QAE?AV?$CStringT@DV?$StrTraitMFC_DLL@DV?$ChTraitsCRT@D@ATL@@@@@ATL@@PBD@Z
	DD	2 DUP(00H)
	DD	2 DUP(00H)
	DD	00H
	DD	01H
__unwindtable$?GetPriceUnit@CUtil@@QAE?AV?$CStringT@DV?$StrTraitMFC_DLL@DV?$ChTraitsCRT@D@ATL@@@@@ATL@@PBD@Z DD 0ffffffffH
	DD	FLAT:__unwindfunclet$?GetPriceUnit@CUtil@@QAE?AV?$CStringT@DV?$StrTraitMFC_DLL@DV?$ChTraitsCRT@D@ATL@@@@@ATL@@PBD@Z$0
	DD	00H
	DD	FLAT:__unwindfunclet$?GetPriceUnit@CUtil@@QAE?AV?$CStringT@DV?$StrTraitMFC_DLL@DV?$ChTraitsCRT@D@ATL@@@@@ATL@@PBD@Z$1
	DD	01H
	DD	FLAT:__unwindfunclet$?GetPriceUnit@CUtil@@QAE?AV?$CStringT@DV?$StrTraitMFC_DLL@DV?$ChTraitsCRT@D@ATL@@@@@ATL@@PBD@Z$2
	DD	02H
	DD	FLAT:__unwindfunclet$?GetPriceUnit@CUtil@@QAE?AV?$CStringT@DV?$StrTraitMFC_DLL@DV?$ChTraitsCRT@D@ATL@@@@@ATL@@PBD@Z$3
	DD	02H
	DD	FLAT:__unwindfunclet$?GetPriceUnit@CUtil@@QAE?AV?$CStringT@DV?$StrTraitMFC_DLL@DV?$ChTraitsCRT@D@ATL@@@@@ATL@@PBD@Z$4
	DD	02H
	DD	FLAT:__unwindfunclet$?GetPriceUnit@CUtil@@QAE?AV?$CStringT@DV?$StrTraitMFC_DLL@DV?$ChTraitsCRT@D@ATL@@@@@ATL@@PBD@Z$11
	DD	02H
	DD	FLAT:__unwindfunclet$?GetPriceUnit@CUtil@@QAE?AV?$CStringT@DV?$StrTraitMFC_DLL@DV?$ChTraitsCRT@D@ATL@@@@@ATL@@PBD@Z$7
	DD	02H
	DD	FLAT:__unwindfunclet$?GetPriceUnit@CUtil@@QAE?AV?$CStringT@DV?$StrTraitMFC_DLL@DV?$ChTraitsCRT@D@ATL@@@@@ATL@@PBD@Z$8
	DD	02H
	DD	FLAT:__unwindfunclet$?GetPriceUnit@CUtil@@QAE?AV?$CStringT@DV?$StrTraitMFC_DLL@DV?$ChTraitsCRT@D@ATL@@@@@ATL@@PBD@Z$12
	DD	02H
	DD	FLAT:__unwindfunclet$?GetPriceUnit@CUtil@@QAE?AV?$CStringT@DV?$StrTraitMFC_DLL@DV?$ChTraitsCRT@D@ATL@@@@@ATL@@PBD@Z$13
xdata$x	ENDS
;	COMDAT xdata$x
xdata$x	SEGMENT
__unwindtable$?RemoveChar@CUtil@@QAE?AV?$CStringT@DV?$StrTraitMFC_DLL@DV?$ChTraitsCRT@D@ATL@@@@@ATL@@PBDD@Z DD 0ffffffffH
	DD	FLAT:__unwindfunclet$?RemoveChar@CUtil@@QAE?AV?$CStringT@DV?$StrTraitMFC_DLL@DV?$ChTraitsCRT@D@ATL@@@@@ATL@@PBDD@Z$0
__ehfuncinfo$?RemoveChar@CUtil@@QAE?AV?$CStringT@DV?$StrTraitMFC_DLL@DV?$ChTraitsCRT@D@ATL@@@@@ATL@@PBDD@Z DD 019930522H
	DD	01H
	DD	FLAT:__unwindtable$?RemoveChar@CUtil@@QAE?AV?$CStringT@DV?$StrTraitMFC_DLL@DV?$ChTraitsCRT@D@ATL@@@@@ATL@@PBDD@Z
	DD	2 DUP(00H)
	DD	2 DUP(00H)
	DD	00H
	DD	01H
xdata$x	ENDS
;	COMDAT xdata$x
xdata$x	SEGMENT
__unwindtable$?SetLengthString@CUtil@@QAE?AV?$CStringT@DV?$StrTraitMFC_DLL@DV?$ChTraitsCRT@D@ATL@@@@@ATL@@PBDH@Z DD 0ffffffffH
	DD	FLAT:__unwindfunclet$?SetLengthString@CUtil@@QAE?AV?$CStringT@DV?$StrTraitMFC_DLL@DV?$ChTraitsCRT@D@ATL@@@@@ATL@@PBDH@Z$0
__ehfuncinfo$?SetLengthString@CUtil@@QAE?AV?$CStringT@DV?$StrTraitMFC_DLL@DV?$ChTraitsCRT@D@ATL@@@@@ATL@@PBDH@Z DD 019930522H
	DD	01H
	DD	FLAT:__unwindtable$?SetLengthString@CUtil@@QAE?AV?$CStringT@DV?$StrTraitMFC_DLL@DV?$ChTraitsCRT@D@ATL@@@@@ATL@@PBDH@Z
	DD	2 DUP(00H)
	DD	2 DUP(00H)
	DD	00H
	DD	01H
xdata$x	ENDS
;	COMDAT xdata$x
xdata$x	SEGMENT
__unwindtable$?GetMakeText@CUtil@@QAE?AV?$CStringT@DV?$StrTraitMFC_DLL@DV?$ChTraitsCRT@D@ATL@@@@@ATL@@DH@Z DD 0ffffffffH
	DD	FLAT:__unwindfunclet$?GetMakeText@CUtil@@QAE?AV?$CStringT@DV?$StrTraitMFC_DLL@DV?$ChTraitsCRT@D@ATL@@@@@ATL@@DH@Z$0
__ehfuncinfo$?GetMakeText@CUtil@@QAE?AV?$CStringT@DV?$StrTraitMFC_DLL@DV?$ChTraitsCRT@D@ATL@@@@@ATL@@DH@Z DD 019930522H
	DD	01H
	DD	FLAT:__unwindtable$?GetMakeText@CUtil@@QAE?AV?$CStringT@DV?$StrTraitMFC_DLL@DV?$ChTraitsCRT@D@ATL@@@@@ATL@@DH@Z
	DD	2 DUP(00H)
	DD	2 DUP(00H)
	DD	00H
	DD	01H
xdata$x	ENDS
;	COMDAT xdata$x
xdata$x	SEGMENT
__unwindtable$?GetNumber@CUtil@@QAE?AV?$CStringT@DV?$StrTraitMFC_DLL@DV?$ChTraitsCRT@D@ATL@@@@@ATL@@PBD@Z DD 0ffffffffH
	DD	FLAT:__unwindfunclet$?GetNumber@CUtil@@QAE?AV?$CStringT@DV?$StrTraitMFC_DLL@DV?$ChTraitsCRT@D@ATL@@@@@ATL@@PBD@Z$0
__ehfuncinfo$?GetNumber@CUtil@@QAE?AV?$CStringT@DV?$StrTraitMFC_DLL@DV?$ChTraitsCRT@D@ATL@@@@@ATL@@PBD@Z DD 019930522H
	DD	01H
	DD	FLAT:__unwindtable$?GetNumber@CUtil@@QAE?AV?$CStringT@DV?$StrTraitMFC_DLL@DV?$ChTraitsCRT@D@ATL@@@@@ATL@@PBD@Z
	DD	2 DUP(00H)
	DD	2 DUP(00H)
	DD	00H
	DD	01H
xdata$x	ENDS
;	COMDAT xdata$x
xdata$x	SEGMENT
__unwindtable$?GetOnlyNumber@CUtil@@QAE?AV?$CStringT@DV?$StrTraitMFC_DLL@DV?$ChTraitsCRT@D@ATL@@@@@ATL@@PBD@Z DD 0ffffffffH
	DD	FLAT:__unwindfunclet$?GetOnlyNumber@CUtil@@QAE?AV?$CStringT@DV?$StrTraitMFC_DLL@DV?$ChTraitsCRT@D@ATL@@@@@ATL@@PBD@Z$0
__ehfuncinfo$?GetOnlyNumber@CUtil@@QAE?AV?$CStringT@DV?$StrTraitMFC_DLL@DV?$ChTraitsCRT@D@ATL@@@@@ATL@@PBD@Z DD 019930522H
	DD	01H
	DD	FLAT:__unwindtable$?GetOnlyNumber@CUtil@@QAE?AV?$CStringT@DV?$StrTraitMFC_DLL@DV?$ChTraitsCRT@D@ATL@@@@@ATL@@PBD@Z
	DD	2 DUP(00H)
	DD	2 DUP(00H)
	DD	00H
	DD	01H
xdata$x	ENDS
;	COMDAT xdata$x
xdata$x	SEGMENT
__ehfuncinfo$?GetComma@CUtil@@QAE?AV?$CStringT@DV?$StrTraitMFC_DLL@DV?$ChTraitsCRT@D@ATL@@@@@ATL@@PBD@Z DD 019930522H
	DD	0bH
	DD	FLAT:__unwindtable$?GetComma@CUtil@@QAE?AV?$CStringT@DV?$StrTraitMFC_DLL@DV?$ChTraitsCRT@D@ATL@@@@@ATL@@PBD@Z
	DD	2 DUP(00H)
	DD	2 DUP(00H)
	DD	00H
	DD	01H
__unwindtable$?GetComma@CUtil@@QAE?AV?$CStringT@DV?$StrTraitMFC_DLL@DV?$ChTraitsCRT@D@ATL@@@@@ATL@@PBD@Z DD 0ffffffffH
	DD	FLAT:__unwindfunclet$?GetComma@CUtil@@QAE?AV?$CStringT@DV?$StrTraitMFC_DLL@DV?$ChTraitsCRT@D@ATL@@@@@ATL@@PBD@Z$0
	DD	00H
	DD	FLAT:__unwindfunclet$?GetComma@CUtil@@QAE?AV?$CStringT@DV?$StrTraitMFC_DLL@DV?$ChTraitsCRT@D@ATL@@@@@ATL@@PBD@Z$1
	DD	01H
	DD	FLAT:__unwindfunclet$?GetComma@CUtil@@QAE?AV?$CStringT@DV?$StrTraitMFC_DLL@DV?$ChTraitsCRT@D@ATL@@@@@ATL@@PBD@Z$12
	DD	01H
	DD	FLAT:__unwindfunclet$?GetComma@CUtil@@QAE?AV?$CStringT@DV?$StrTraitMFC_DLL@DV?$ChTraitsCRT@D@ATL@@@@@ATL@@PBD@Z$4
	DD	01H
	DD	FLAT:__unwindfunclet$?GetComma@CUtil@@QAE?AV?$CStringT@DV?$StrTraitMFC_DLL@DV?$ChTraitsCRT@D@ATL@@@@@ATL@@PBD@Z$5
	DD	04H
	DD	FLAT:__unwindfunclet$?GetComma@CUtil@@QAE?AV?$CStringT@DV?$StrTraitMFC_DLL@DV?$ChTraitsCRT@D@ATL@@@@@ATL@@PBD@Z$6
	DD	05H
	DD	FLAT:__unwindfunclet$?GetComma@CUtil@@QAE?AV?$CStringT@DV?$StrTraitMFC_DLL@DV?$ChTraitsCRT@D@ATL@@@@@ATL@@PBD@Z$7
	DD	05H
	DD	FLAT:__unwindfunclet$?GetComma@CUtil@@QAE?AV?$CStringT@DV?$StrTraitMFC_DLL@DV?$ChTraitsCRT@D@ATL@@@@@ATL@@PBD@Z$8
	DD	05H
	DD	FLAT:__unwindfunclet$?GetComma@CUtil@@QAE?AV?$CStringT@DV?$StrTraitMFC_DLL@DV?$ChTraitsCRT@D@ATL@@@@@ATL@@PBD@Z$9
	DD	05H
	DD	FLAT:__unwindfunclet$?GetComma@CUtil@@QAE?AV?$CStringT@DV?$StrTraitMFC_DLL@DV?$ChTraitsCRT@D@ATL@@@@@ATL@@PBD@Z$13
	DD	09H
	DD	FLAT:__unwindfunclet$?GetComma@CUtil@@QAE?AV?$CStringT@DV?$StrTraitMFC_DLL@DV?$ChTraitsCRT@D@ATL@@@@@ATL@@PBD@Z$14
xdata$x	ENDS
;	COMDAT xdata$x
xdata$x	SEGMENT
__unwindtable$?RemoveAll@CUtil@@QAEHAAV?$CStringT@DV?$StrTraitMFC_DLL@DV?$ChTraitsCRT@D@ATL@@@@@ATL@@D@Z DD 0ffffffffH
	DD	FLAT:__unwindfunclet$?RemoveAll@CUtil@@QAEHAAV?$CStringT@DV?$StrTraitMFC_DLL@DV?$ChTraitsCRT@D@ATL@@@@@ATL@@D@Z$0
__ehfuncinfo$?RemoveAll@CUtil@@QAEHAAV?$CStringT@DV?$StrTraitMFC_DLL@DV?$ChTraitsCRT@D@ATL@@@@@ATL@@D@Z DD 019930522H
	DD	01H
	DD	FLAT:__unwindtable$?RemoveAll@CUtil@@QAEHAAV?$CStringT@DV?$StrTraitMFC_DLL@DV?$ChTraitsCRT@D@ATL@@@@@ATL@@D@Z
	DD	2 DUP(00H)
	DD	2 DUP(00H)
	DD	00H
	DD	01H
xdata$x	ENDS
;	COMDAT xdata$x
xdata$x	SEGMENT
__unwindtable$?Remove@CUtil@@QAEHAAV?$CStringT@DV?$StrTraitMFC_DLL@DV?$ChTraitsCRT@D@ATL@@@@@ATL@@DH@Z DD 0ffffffffH
	DD	FLAT:__unwindfunclet$?Remove@CUtil@@QAEHAAV?$CStringT@DV?$StrTraitMFC_DLL@DV?$ChTraitsCRT@D@ATL@@@@@ATL@@DH@Z$1
	DD	0ffffffffH
	DD	FLAT:__unwindfunclet$?Remove@CUtil@@QAEHAAV?$CStringT@DV?$StrTraitMFC_DLL@DV?$ChTraitsCRT@D@ATL@@@@@ATL@@DH@Z$0
__ehfuncinfo$?Remove@CUtil@@QAEHAAV?$CStringT@DV?$StrTraitMFC_DLL@DV?$ChTraitsCRT@D@ATL@@@@@ATL@@DH@Z DD 019930522H
	DD	02H
	DD	FLAT:__unwindtable$?Remove@CUtil@@QAEHAAV?$CStringT@DV?$StrTraitMFC_DLL@DV?$ChTraitsCRT@D@ATL@@@@@ATL@@DH@Z
	DD	2 DUP(00H)
	DD	2 DUP(00H)
	DD	00H
	DD	01H
xdata$x	ENDS
;	COMDAT xdata$x
xdata$x	SEGMENT
__unwindtable$?GetString@CUtil@@QAEHAAV?$CStringT@DV?$StrTraitMFC_DLL@DV?$ChTraitsCRT@D@ATL@@@@@ATL@@0D@Z DD 0ffffffffH
	DD	FLAT:__unwindfunclet$?GetString@CUtil@@QAEHAAV?$CStringT@DV?$StrTraitMFC_DLL@DV?$ChTraitsCRT@D@ATL@@@@@ATL@@0D@Z$0
	DD	0ffffffffH
	DD	FLAT:__unwindfunclet$?GetString@CUtil@@QAEHAAV?$CStringT@DV?$StrTraitMFC_DLL@DV?$ChTraitsCRT@D@ATL@@@@@ATL@@0D@Z$1
__ehfuncinfo$?GetString@CUtil@@QAEHAAV?$CStringT@DV?$StrTraitMFC_DLL@DV?$ChTraitsCRT@D@ATL@@@@@ATL@@0D@Z DD 019930522H
	DD	02H
	DD	FLAT:__unwindtable$?GetString@CUtil@@QAEHAAV?$CStringT@DV?$StrTraitMFC_DLL@DV?$ChTraitsCRT@D@ATL@@@@@ATL@@0D@Z
	DD	2 DUP(00H)
	DD	2 DUP(00H)
	DD	00H
	DD	01H
xdata$x	ENDS
;	COMDAT xdata$x
xdata$x	SEGMENT
__unwindtable$?ValidNumber@CUtil@@QAEHPBD@Z DD 0ffffffffH
	DD	FLAT:__unwindfunclet$?ValidNumber@CUtil@@QAEHPBD@Z$0
	DD	00H
	DD	FLAT:__unwindfunclet$?ValidNumber@CUtil@@QAEHPBD@Z$1
__ehfuncinfo$?ValidNumber@CUtil@@QAEHPBD@Z DD 019930522H
	DD	02H
	DD	FLAT:__unwindtable$?ValidNumber@CUtil@@QAEHPBD@Z
	DD	2 DUP(00H)
	DD	2 DUP(00H)
	DD	00H
	DD	01H
xdata$x	ENDS
;	COMDAT xdata$x
xdata$x	SEGMENT
__ehfuncinfo$?AdjustMask@CUtil@@QAE?AV?$CStringT@DV?$StrTraitMFC_DLL@DV?$ChTraitsCRT@D@ATL@@@@@ATL@@V23@0@Z DD 019930522H
	DD	09H
	DD	FLAT:__unwindtable$?AdjustMask@CUtil@@QAE?AV?$CStringT@DV?$StrTraitMFC_DLL@DV?$ChTraitsCRT@D@ATL@@@@@ATL@@V23@0@Z
	DD	2 DUP(00H)
	DD	2 DUP(00H)
	DD	00H
	DD	01H
__unwindtable$?AdjustMask@CUtil@@QAE?AV?$CStringT@DV?$StrTraitMFC_DLL@DV?$ChTraitsCRT@D@ATL@@@@@ATL@@V23@0@Z DD 0ffffffffH
	DD	FLAT:__unwindfunclet$?AdjustMask@CUtil@@QAE?AV?$CStringT@DV?$StrTraitMFC_DLL@DV?$ChTraitsCRT@D@ATL@@@@@ATL@@V23@0@Z$0
	DD	00H
	DD	FLAT:__unwindfunclet$?AdjustMask@CUtil@@QAE?AV?$CStringT@DV?$StrTraitMFC_DLL@DV?$ChTraitsCRT@D@ATL@@@@@ATL@@V23@0@Z$1
	DD	01H
	DD	FLAT:__unwindfunclet$?AdjustMask@CUtil@@QAE?AV?$CStringT@DV?$StrTraitMFC_DLL@DV?$ChTraitsCRT@D@ATL@@@@@ATL@@V23@0@Z$3
	DD	02H
	DD	FLAT:__unwindfunclet$?AdjustMask@CUtil@@QAE?AV?$CStringT@DV?$StrTraitMFC_DLL@DV?$ChTraitsCRT@D@ATL@@@@@ATL@@V23@0@Z$10
	DD	02H
	DD	FLAT:__unwindfunclet$?AdjustMask@CUtil@@QAE?AV?$CStringT@DV?$StrTraitMFC_DLL@DV?$ChTraitsCRT@D@ATL@@@@@ATL@@V23@0@Z$11
	DD	02H
	DD	FLAT:__unwindfunclet$?AdjustMask@CUtil@@QAE?AV?$CStringT@DV?$StrTraitMFC_DLL@DV?$ChTraitsCRT@D@ATL@@@@@ATL@@V23@0@Z$6
	DD	05H
	DD	FLAT:__unwindfunclet$?AdjustMask@CUtil@@QAE?AV?$CStringT@DV?$StrTraitMFC_DLL@DV?$ChTraitsCRT@D@ATL@@@@@ATL@@V23@0@Z$12
	DD	05H
	DD	FLAT:__unwindfunclet$?AdjustMask@CUtil@@QAE?AV?$CStringT@DV?$StrTraitMFC_DLL@DV?$ChTraitsCRT@D@ATL@@@@@ATL@@V23@0@Z$13
	DD	05H
	DD	FLAT:__unwindfunclet$?AdjustMask@CUtil@@QAE?AV?$CStringT@DV?$StrTraitMFC_DLL@DV?$ChTraitsCRT@D@ATL@@@@@ATL@@V23@0@Z$14
xdata$x	ENDS
;	COMDAT xdata$x
xdata$x	SEGMENT
__unwindtable$?AdjustMask@CUtil@@QAE?AV?$CStringT@DV?$StrTraitMFC_DLL@DV?$ChTraitsCRT@D@ATL@@@@@ATL@@V23@H@Z DD 0ffffffffH
	DD	FLAT:__unwindfunclet$?AdjustMask@CUtil@@QAE?AV?$CStringT@DV?$StrTraitMFC_DLL@DV?$ChTraitsCRT@D@ATL@@@@@ATL@@V23@H@Z$0
	DD	00H
	DD	FLAT:__unwindfunclet$?AdjustMask@CUtil@@QAE?AV?$CStringT@DV?$StrTraitMFC_DLL@DV?$ChTraitsCRT@D@ATL@@@@@ATL@@V23@H@Z$1
	DD	01H
	DD	FLAT:__unwindfunclet$?AdjustMask@CUtil@@QAE?AV?$CStringT@DV?$StrTraitMFC_DLL@DV?$ChTraitsCRT@D@ATL@@@@@ATL@@V23@H@Z$2
__ehfuncinfo$?AdjustMask@CUtil@@QAE?AV?$CStringT@DV?$StrTraitMFC_DLL@DV?$ChTraitsCRT@D@ATL@@@@@ATL@@V23@H@Z DD 019930522H
	DD	03H
	DD	FLAT:__unwindtable$?AdjustMask@CUtil@@QAE?AV?$CStringT@DV?$StrTraitMFC_DLL@DV?$ChTraitsCRT@D@ATL@@@@@ATL@@V23@H@Z
	DD	2 DUP(00H)
	DD	2 DUP(00H)
	DD	00H
	DD	01H
xdata$x	ENDS
;	COMDAT xdata$x
xdata$x	SEGMENT
__unwindtable$?GetRegKey@CUtil@@QAEHPBD0AAV?$CStringT@DV?$StrTraitMFC_DLL@DV?$ChTraitsCRT@D@ATL@@@@@ATL@@@Z DD 0ffffffffH
	DD	FLAT:__unwindfunclet$?GetRegKey@CUtil@@QAEHPBD0AAV?$CStringT@DV?$StrTraitMFC_DLL@DV?$ChTraitsCRT@D@ATL@@@@@ATL@@@Z$0
__ehfuncinfo$?GetRegKey@CUtil@@QAEHPBD0AAV?$CStringT@DV?$StrTraitMFC_DLL@DV?$ChTraitsCRT@D@ATL@@@@@ATL@@@Z DD 019930522H
	DD	01H
	DD	FLAT:__unwindtable$?GetRegKey@CUtil@@QAEHPBD0AAV?$CStringT@DV?$StrTraitMFC_DLL@DV?$ChTraitsCRT@D@ATL@@@@@ATL@@@Z
	DD	2 DUP(00H)
	DD	2 DUP(00H)
	DD	00H
	DD	01H
xdata$x	ENDS
;	COMDAT xdata$x
xdata$x	SEGMENT
__unwindtable$?AddDashToAccount@CUtil@@QAEXPBDAAV?$CStringT@DV?$StrTraitMFC_DLL@DV?$ChTraitsCRT@D@ATL@@@@@ATL@@@Z DD 0ffffffffH
	DD	FLAT:__unwindfunclet$?AddDashToAccount@CUtil@@QAEXPBDAAV?$CStringT@DV?$StrTraitMFC_DLL@DV?$ChTraitsCRT@D@ATL@@@@@ATL@@@Z$0
__ehfuncinfo$?AddDashToAccount@CUtil@@QAEXPBDAAV?$CStringT@DV?$StrTraitMFC_DLL@DV?$ChTraitsCRT@D@ATL@@@@@ATL@@@Z DD 019930522H
	DD	01H
	DD	FLAT:__unwindtable$?AddDashToAccount@CUtil@@QAEXPBDAAV?$CStringT@DV?$StrTraitMFC_DLL@DV?$ChTraitsCRT@D@ATL@@@@@ATL@@@Z
	DD	2 DUP(00H)
	DD	2 DUP(00H)
	DD	00H
	DD	01H
xdata$x	ENDS
;	COMDAT xdata$x
xdata$x	SEGMENT
__unwindtable$??HATL@@YA?AV?$CStringT@DV?$StrTraitMFC_DLL@DV?$ChTraitsCRT@D@ATL@@@@@0@DABV10@@Z DD 0ffffffffH
	DD	FLAT:__unwindfunclet$??HATL@@YA?AV?$CStringT@DV?$StrTraitMFC_DLL@DV?$ChTraitsCRT@D@ATL@@@@@0@DABV10@@Z$0
__ehfuncinfo$??HATL@@YA?AV?$CStringT@DV?$StrTraitMFC_DLL@DV?$ChTraitsCRT@D@ATL@@@@@0@DABV10@@Z DD 019930522H
	DD	01H
	DD	FLAT:__unwindtable$??HATL@@YA?AV?$CStringT@DV?$StrTraitMFC_DLL@DV?$ChTraitsCRT@D@ATL@@@@@0@DABV10@@Z
	DD	2 DUP(00H)
	DD	2 DUP(00H)
	DD	00H
	DD	01H
xdata$x	ENDS
;	COMDAT xdata$x
xdata$x	SEGMENT
__unwindtable$??HATL@@YA?AV?$CStringT@DV?$StrTraitMFC_DLL@DV?$ChTraitsCRT@D@ATL@@@@@0@ABV10@PBD@Z DD 0ffffffffH
	DD	FLAT:__unwindfunclet$??HATL@@YA?AV?$CStringT@DV?$StrTraitMFC_DLL@DV?$ChTraitsCRT@D@ATL@@@@@0@ABV10@PBD@Z$0
__ehfuncinfo$??HATL@@YA?AV?$CStringT@DV?$StrTraitMFC_DLL@DV?$ChTraitsCRT@D@ATL@@@@@0@ABV10@PBD@Z DD 019930522H
	DD	01H
	DD	FLAT:__unwindtable$??HATL@@YA?AV?$CStringT@DV?$StrTraitMFC_DLL@DV?$ChTraitsCRT@D@ATL@@@@@0@ABV10@PBD@Z
	DD	2 DUP(00H)
	DD	2 DUP(00H)
	DD	00H
	DD	01H
xdata$x	ENDS
;	COMDAT xdata$x
xdata$x	SEGMENT
__unwindtable$??HATL@@YA?AV?$CStringT@DV?$StrTraitMFC_DLL@DV?$ChTraitsCRT@D@ATL@@@@@0@ABV10@0@Z DD 0ffffffffH
	DD	FLAT:__unwindfunclet$??HATL@@YA?AV?$CStringT@DV?$StrTraitMFC_DLL@DV?$ChTraitsCRT@D@ATL@@@@@0@ABV10@0@Z$0
__ehfuncinfo$??HATL@@YA?AV?$CStringT@DV?$StrTraitMFC_DLL@DV?$ChTraitsCRT@D@ATL@@@@@0@ABV10@0@Z DD 019930522H
	DD	01H
	DD	FLAT:__unwindtable$??HATL@@YA?AV?$CStringT@DV?$StrTraitMFC_DLL@DV?$ChTraitsCRT@D@ATL@@@@@0@ABV10@0@Z
	DD	2 DUP(00H)
	DD	2 DUP(00H)
	DD	00H
	DD	01H
xdata$x	ENDS
; Function compile flags: /Ogtp
; File D:\git\src\IBK\IBK_DRFN\ProjSrc\SrcDrfn\Chart\chart_common\Grid\Util.cpp
;	COMDAT ?GetHogaTick@CUtil@@QAEHHH@Z
_TEXT	SEGMENT
_nJongMokGubun$ = 8					; size = 4
_lPrice$ = 12						; size = 4
?GetHogaTick@CUtil@@QAEHHH@Z PROC			; CUtil::GetHogaTick, COMDAT
; _this$ = ecx

; 666  : {

  00000	55		 push	 ebp
  00001	8b ec		 mov	 ebp, esp

; 667  : 	if(nJongMokGubun == KOSPI)			//거래소

  00003	8b 45 08	 mov	 eax, DWORD PTR _nJongMokGubun$[ebp]
  00006	83 f8 01	 cmp	 eax, 1
  00009	75 33		 jne	 SHORT $LN2@GetHogaTic

; 668  : 	{		
; 669  : 		if(lPrice<5000)					return 5;

  0000b	8b 45 0c	 mov	 eax, DWORD PTR _lPrice$[ebp]
  0000e	3d 88 13 00 00	 cmp	 eax, 5000		; 00001388H
  00013	0f 8c 8f 00 00
	00		 jl	 $LN42@GetHogaTic

; 670  : 		else if(lPrice<10000)			return 10;

  00019	3d 10 27 00 00	 cmp	 eax, 10000		; 00002710H
  0001e	7c 7a		 jl	 SHORT $LN41@GetHogaTic

; 671  : 		else if(lPrice<50000)			return 50;

  00020	3d 50 c3 00 00	 cmp	 eax, 50000		; 0000c350H
  00025	7c 34		 jl	 SHORT $LN45@GetHogaTic

; 672  : 		else if(lPrice<100000)			return 100;

  00027	3d a0 86 01 00	 cmp	 eax, 100000		; 000186a0H
  0002c	7c 5a		 jl	 SHORT $LN43@GetHogaTic
$LN38@GetHogaTic:

; 691  : 		else if(lPrice>=100000 && lPrice<500000)	return 500; 

  0002e	3d 20 a1 07 00	 cmp	 eax, 500000		; 0007a120H
  00033	7d 5c		 jge	 SHORT $LN37@GetHogaTic
  00035	b8 f4 01 00 00	 mov	 eax, 500		; 000001f4H

; 701  : }

  0003a	5d		 pop	 ebp
  0003b	c2 08 00	 ret	 8
$LN2@GetHogaTic:

; 673  : 		else if(lPrice<500000)			return 500;
; 674  : 		else							return 1000;
; 675  : 	}
; 676  : 	else if(nJongMokGubun == KOSDAQ)		//코스닥

  0003e	83 f8 02	 cmp	 eax, 2
  00041	75 21		 jne	 SHORT $LN14@GetHogaTic

; 677  : 	{	
; 678  : 		if(lPrice<5000)					return 5;

  00043	8b 45 0c	 mov	 eax, DWORD PTR _lPrice$[ebp]
  00046	3d 88 13 00 00	 cmp	 eax, 5000		; 00001388H
  0004b	7c 5b		 jl	 SHORT $LN42@GetHogaTic

; 679  : 		else if(lPrice<10000)			return 10;

  0004d	3d 10 27 00 00	 cmp	 eax, 10000		; 00002710H
  00052	7c 46		 jl	 SHORT $LN41@GetHogaTic

; 680  : 		else if(lPrice<50000)			return 50;

  00054	3d 50 c3 00 00	 cmp	 eax, 50000		; 0000c350H
  00059	7d 2d		 jge	 SHORT $LN43@GetHogaTic
$LN45@GetHogaTic:
  0005b	b8 32 00 00 00	 mov	 eax, 50			; 00000032H

; 701  : }

  00060	5d		 pop	 ebp
  00061	c2 08 00	 ret	 8
$LN14@GetHogaTic:

; 681  : 		else 							return 100;
; 682  : 
; 683  : 	}
; 684  : 	else if(nJongMokGubun == ETF_KOSPI)	//거래소 지수종목

  00064	83 f8 07	 cmp	 eax, 7
  00067	75 3a		 jne	 SHORT $LN22@GetHogaTic

; 685  : 	{ 
; 686  : 		//ETF 거래소
; 687  : 		if(lPrice<5000)								return 5; 

  00069	8b 45 0c	 mov	 eax, DWORD PTR _lPrice$[ebp]
  0006c	3d 88 13 00 00	 cmp	 eax, 5000		; 00001388H
  00071	7c 35		 jl	 SHORT $LN42@GetHogaTic

; 688  : 		else if(lPrice>=5000 && lPrice<10000)		return 10; 

  00073	3d 10 27 00 00	 cmp	 eax, 10000		; 00002710H
  00078	7c 20		 jl	 SHORT $LN41@GetHogaTic

; 689  : 		else if(lPrice>=10000 && lPrice<50000)		return 10; 

  0007a	3d 50 c3 00 00	 cmp	 eax, 50000		; 0000c350H
  0007f	7c 19		 jl	 SHORT $LN41@GetHogaTic

; 690  : 		else if(lPrice>=50000 && lPrice<100000)		return 100; 

  00081	3d a0 86 01 00	 cmp	 eax, 100000		; 000186a0H
  00086	7d a6		 jge	 SHORT $LN38@GetHogaTic
$LN43@GetHogaTic:
  00088	b8 64 00 00 00	 mov	 eax, 100		; 00000064H

; 701  : }

  0008d	5d		 pop	 ebp
  0008e	c2 08 00	 ret	 8
$LN37@GetHogaTic:

; 692  : 		else if(lPrice>=500000)						return 1000; 

  00091	b8 e8 03 00 00	 mov	 eax, 1000		; 000003e8H

; 701  : }

  00096	5d		 pop	 ebp
  00097	c2 08 00	 ret	 8
$LN41@GetHogaTic:

; 689  : 		else if(lPrice>=10000 && lPrice<50000)		return 10; 

  0009a	b8 0a 00 00 00	 mov	 eax, 10			; 0000000aH

; 701  : }

  0009f	5d		 pop	 ebp
  000a0	c2 08 00	 ret	 8
$LN22@GetHogaTic:

; 693  : 	}
; 694  : 	else if(nJongMokGubun == ETF_KOSDAQ)	//코스닥  지수종목 

  000a3	83 f8 08	 cmp	 eax, 8
  000a6	75 09		 jne	 SHORT $LN35@GetHogaTic
$LN42@GetHogaTic:

; 695  : 	{
; 696  : 		//ETF 코스닥 - ETF 코스닥인 경우는 무조건 5단위로 변경되었답니다. 오늘(2004. 08.30) 부터 시행..
; 697  : 		return 5;

  000a8	b8 05 00 00 00	 mov	 eax, 5

; 701  : }

  000ad	5d		 pop	 ebp
  000ae	c2 08 00	 ret	 8
$LN35@GetHogaTic:

; 698  : 	}
; 699  : 
; 700  : 	return -99999999;

  000b1	b8 01 1f 0a fa	 mov	 eax, -99999999		; fa0a1f01H

; 701  : }

  000b6	5d		 pop	 ebp
  000b7	c2 08 00	 ret	 8
?GetHogaTick@CUtil@@QAEHHH@Z ENDP			; CUtil::GetHogaTick
_TEXT	ENDS
; Function compile flags: /Ogtp
; File D:\git\src\IBK\IBK_DRFN\ProjSrc\SrcDrfn\Chart\chart_common\Grid\Util.cpp
;	COMDAT ?GetPre_N_NextHoga@CUtil@@QAEXHJPAJ0@Z
_TEXT	SEGMENT
_nJongMokGubun$ = 8					; size = 4
_lPrice$ = 12						; size = 4
_lUpNextValue$ = 16					; size = 4
_lDownNextValue$ = 20					; size = 4
?GetPre_N_NextHoga@CUtil@@QAEXHJPAJ0@Z PROC		; CUtil::GetPre_N_NextHoga, COMDAT
; _this$ = ecx

; 614  : {

  00000	55		 push	 ebp
  00001	8b ec		 mov	 ebp, esp

; 615  : 	int _lUpBid = 5;
; 616  : 	int _lDownBid = 5;
; 617  : 
; 618  : 	if(nJongMokGubun == KOSPI)			//거래소

  00003	8b 45 08	 mov	 eax, DWORD PTR _nJongMokGubun$[ebp]
  00006	b9 05 00 00 00	 mov	 ecx, 5
  0000b	8b d1		 mov	 edx, ecx
  0000d	56		 push	 esi
  0000e	8b 75 0c	 mov	 esi, DWORD PTR _lPrice$[ebp]
  00011	83 f8 01	 cmp	 eax, 1
  00014	0f 85 14 01 00
	00		 jne	 $LN2@GetPre_N_N

; 619  : 	{	
; 620  : 		if(lPrice<5000)							{ _lUpBid = 5;		_lDownBid = 5;		}

  0001a	81 fe 88 13 00
	00		 cmp	 esi, 5000		; 00001388H
  00020	0f 8c cc 01 00
	00		 jl	 $LN59@GetPre_N_N

; 621  : 		else if(lPrice == 5000)					{ _lUpBid = 10;		_lDownBid = 5;		}

  00026	75 18		 jne	 SHORT $LN6@GetPre_N_N
$LN66@GetPre_N_N:

; 649  : 		else if(lPrice == 100000)				{ _lUpBid = 500;	_lDownBid = 100;	}
; 650  : 		else if(lPrice>100000 && lPrice<500000)	{ _lUpBid = 500;	_lDownBid = 500;	}
; 651  : 		else if(lPrice == 500000)				{ _lUpBid = 1000;	_lDownBid = 500;	}
; 652  : 		else if(lPrice>500000)					{ _lUpBid = 1000;	_lDownBid = 1000;	}
; 653  : 	}
; 654  : 	else if(nJongMokGubun == ETF_KOSDAQ)	//코스닥  지수종목	
; 655  : 	{
; 656  : 		//ETF 코스닥 - ETF 코스닥인 경우는 무조건 5단위로 변경되었답니다. 오늘(2004. 08.30) 부터 시행..
; 657  : 		_lUpBid = 5;	_lDownBid = 5;
; 658  : 	}
; 659  : 
; 660  : 	*lUpNextValue = lPrice+_lUpBid;

  00028	8b 45 10	 mov	 eax, DWORD PTR _lUpNextValue$[ebp]
  0002b	b9 0a 00 00 00	 mov	 ecx, 10			; 0000000aH
  00030	03 ce		 add	 ecx, esi

; 661  : 	*lDownNextValue = lPrice-_lDownBid;

  00032	2b f2		 sub	 esi, edx
  00034	89 08		 mov	 DWORD PTR [eax], ecx
  00036	8b 45 14	 mov	 eax, DWORD PTR _lDownNextValue$[ebp]
  00039	89 30		 mov	 DWORD PTR [eax], esi
  0003b	5e		 pop	 esi

; 662  : }

  0003c	5d		 pop	 ebp
  0003d	c2 10 00	 ret	 16			; 00000010H
$LN6@GetPre_N_N:

; 622  : 		else if(lPrice>5000 && lPrice<10000)	{ _lUpBid = 10;		_lDownBid = 10;		}

  00040	8d 86 77 ec ff
	ff		 lea	 eax, DWORD PTR [esi-5001]
  00046	3d 86 13 00 00	 cmp	 eax, 4998		; 00001386H
  0004b	77 0a		 ja	 SHORT $LN8@GetPre_N_N
$LN65@GetPre_N_N:

; 649  : 		else if(lPrice == 100000)				{ _lUpBid = 500;	_lDownBid = 100;	}
; 650  : 		else if(lPrice>100000 && lPrice<500000)	{ _lUpBid = 500;	_lDownBid = 500;	}
; 651  : 		else if(lPrice == 500000)				{ _lUpBid = 1000;	_lDownBid = 500;	}
; 652  : 		else if(lPrice>500000)					{ _lUpBid = 1000;	_lDownBid = 1000;	}
; 653  : 	}
; 654  : 	else if(nJongMokGubun == ETF_KOSDAQ)	//코스닥  지수종목	
; 655  : 	{
; 656  : 		//ETF 코스닥 - ETF 코스닥인 경우는 무조건 5단위로 변경되었답니다. 오늘(2004. 08.30) 부터 시행..
; 657  : 		_lUpBid = 5;	_lDownBid = 5;
; 658  : 	}
; 659  : 
; 660  : 	*lUpNextValue = lPrice+_lUpBid;

  0004d	b9 0a 00 00 00	 mov	 ecx, 10			; 0000000aH
  00052	e9 99 01 00 00	 jmp	 $LN67@GetPre_N_N
$LN8@GetPre_N_N:

; 623  : 		else if(lPrice == 10000)				{ _lUpBid = 50;		_lDownBid = 10;		}

  00057	81 fe 10 27 00
	00		 cmp	 esi, 10000		; 00002710H
  0005d	75 1d		 jne	 SHORT $LN10@GetPre_N_N
$LN64@GetPre_N_N:

; 649  : 		else if(lPrice == 100000)				{ _lUpBid = 500;	_lDownBid = 100;	}
; 650  : 		else if(lPrice>100000 && lPrice<500000)	{ _lUpBid = 500;	_lDownBid = 500;	}
; 651  : 		else if(lPrice == 500000)				{ _lUpBid = 1000;	_lDownBid = 500;	}
; 652  : 		else if(lPrice>500000)					{ _lUpBid = 1000;	_lDownBid = 1000;	}
; 653  : 	}
; 654  : 	else if(nJongMokGubun == ETF_KOSDAQ)	//코스닥  지수종목	
; 655  : 	{
; 656  : 		//ETF 코스닥 - ETF 코스닥인 경우는 무조건 5단위로 변경되었답니다. 오늘(2004. 08.30) 부터 시행..
; 657  : 		_lUpBid = 5;	_lDownBid = 5;
; 658  : 	}
; 659  : 
; 660  : 	*lUpNextValue = lPrice+_lUpBid;

  0005f	8b 45 10	 mov	 eax, DWORD PTR _lUpNextValue$[ebp]
  00062	b9 32 00 00 00	 mov	 ecx, 50			; 00000032H
  00067	03 ce		 add	 ecx, esi
  00069	ba 0a 00 00 00	 mov	 edx, 10			; 0000000aH

; 661  : 	*lDownNextValue = lPrice-_lDownBid;

  0006e	2b f2		 sub	 esi, edx
  00070	89 08		 mov	 DWORD PTR [eax], ecx
  00072	8b 45 14	 mov	 eax, DWORD PTR _lDownNextValue$[ebp]
  00075	89 30		 mov	 DWORD PTR [eax], esi
  00077	5e		 pop	 esi

; 662  : }

  00078	5d		 pop	 ebp
  00079	c2 10 00	 ret	 16			; 00000010H
$LN10@GetPre_N_N:

; 624  : 		else if(lPrice>10000 && lPrice<50000)	{ _lUpBid = 50;		_lDownBid = 50;		}

  0007c	8d 86 ef d8 ff
	ff		 lea	 eax, DWORD PTR [esi-10001]
  00082	3d 3e 9c 00 00	 cmp	 eax, 39998		; 00009c3eH
  00087	77 0a		 ja	 SHORT $LN12@GetPre_N_N
$LN63@GetPre_N_N:

; 649  : 		else if(lPrice == 100000)				{ _lUpBid = 500;	_lDownBid = 100;	}
; 650  : 		else if(lPrice>100000 && lPrice<500000)	{ _lUpBid = 500;	_lDownBid = 500;	}
; 651  : 		else if(lPrice == 500000)				{ _lUpBid = 1000;	_lDownBid = 500;	}
; 652  : 		else if(lPrice>500000)					{ _lUpBid = 1000;	_lDownBid = 1000;	}
; 653  : 	}
; 654  : 	else if(nJongMokGubun == ETF_KOSDAQ)	//코스닥  지수종목	
; 655  : 	{
; 656  : 		//ETF 코스닥 - ETF 코스닥인 경우는 무조건 5단위로 변경되었답니다. 오늘(2004. 08.30) 부터 시행..
; 657  : 		_lUpBid = 5;	_lDownBid = 5;
; 658  : 	}
; 659  : 
; 660  : 	*lUpNextValue = lPrice+_lUpBid;

  00089	b9 32 00 00 00	 mov	 ecx, 50			; 00000032H
  0008e	e9 5d 01 00 00	 jmp	 $LN67@GetPre_N_N
$LN12@GetPre_N_N:

; 625  : 		else if(lPrice == 50000)				{ _lUpBid = 100;	_lDownBid = 50;		}

  00093	81 fe 50 c3 00
	00		 cmp	 esi, 50000		; 0000c350H
  00099	75 1d		 jne	 SHORT $LN14@GetPre_N_N
$LN62@GetPre_N_N:

; 649  : 		else if(lPrice == 100000)				{ _lUpBid = 500;	_lDownBid = 100;	}
; 650  : 		else if(lPrice>100000 && lPrice<500000)	{ _lUpBid = 500;	_lDownBid = 500;	}
; 651  : 		else if(lPrice == 500000)				{ _lUpBid = 1000;	_lDownBid = 500;	}
; 652  : 		else if(lPrice>500000)					{ _lUpBid = 1000;	_lDownBid = 1000;	}
; 653  : 	}
; 654  : 	else if(nJongMokGubun == ETF_KOSDAQ)	//코스닥  지수종목	
; 655  : 	{
; 656  : 		//ETF 코스닥 - ETF 코스닥인 경우는 무조건 5단위로 변경되었답니다. 오늘(2004. 08.30) 부터 시행..
; 657  : 		_lUpBid = 5;	_lDownBid = 5;
; 658  : 	}
; 659  : 
; 660  : 	*lUpNextValue = lPrice+_lUpBid;

  0009b	8b 45 10	 mov	 eax, DWORD PTR _lUpNextValue$[ebp]
  0009e	b9 64 00 00 00	 mov	 ecx, 100		; 00000064H
  000a3	03 ce		 add	 ecx, esi
  000a5	ba 32 00 00 00	 mov	 edx, 50			; 00000032H

; 661  : 	*lDownNextValue = lPrice-_lDownBid;

  000aa	2b f2		 sub	 esi, edx
  000ac	89 08		 mov	 DWORD PTR [eax], ecx
  000ae	8b 45 14	 mov	 eax, DWORD PTR _lDownNextValue$[ebp]
  000b1	89 30		 mov	 DWORD PTR [eax], esi
  000b3	5e		 pop	 esi

; 662  : }

  000b4	5d		 pop	 ebp
  000b5	c2 10 00	 ret	 16			; 00000010H
$LN14@GetPre_N_N:

; 626  : 		else if(lPrice>50000 && lPrice<100000)	{ _lUpBid = 100;	_lDownBid = 100;	}

  000b8	8d 86 af 3c ff
	ff		 lea	 eax, DWORD PTR [esi-50001]
  000be	3d 4e c3 00 00	 cmp	 eax, 49998		; 0000c34eH
  000c3	0f 86 b8 00 00
	00		 jbe	 $LN61@GetPre_N_N
$LN16@GetPre_N_N:

; 649  : 		else if(lPrice == 100000)				{ _lUpBid = 500;	_lDownBid = 100;	}
; 650  : 		else if(lPrice>100000 && lPrice<500000)	{ _lUpBid = 500;	_lDownBid = 500;	}
; 651  : 		else if(lPrice == 500000)				{ _lUpBid = 1000;	_lDownBid = 500;	}
; 652  : 		else if(lPrice>500000)					{ _lUpBid = 1000;	_lDownBid = 1000;	}
; 653  : 	}
; 654  : 	else if(nJongMokGubun == ETF_KOSDAQ)	//코스닥  지수종목	
; 655  : 	{
; 656  : 		//ETF 코스닥 - ETF 코스닥인 경우는 무조건 5단위로 변경되었답니다. 오늘(2004. 08.30) 부터 시행..
; 657  : 		_lUpBid = 5;	_lDownBid = 5;
; 658  : 	}
; 659  : 
; 660  : 	*lUpNextValue = lPrice+_lUpBid;

  000c9	81 fe a0 86 01
	00		 cmp	 esi, 100000		; 000186a0H
  000cf	75 1d		 jne	 SHORT $LN18@GetPre_N_N
  000d1	8b 45 10	 mov	 eax, DWORD PTR _lUpNextValue$[ebp]
  000d4	b9 f4 01 00 00	 mov	 ecx, 500		; 000001f4H
  000d9	03 ce		 add	 ecx, esi
  000db	ba 64 00 00 00	 mov	 edx, 100		; 00000064H

; 661  : 	*lDownNextValue = lPrice-_lDownBid;

  000e0	2b f2		 sub	 esi, edx
  000e2	89 08		 mov	 DWORD PTR [eax], ecx
  000e4	8b 45 14	 mov	 eax, DWORD PTR _lDownNextValue$[ebp]
  000e7	89 30		 mov	 DWORD PTR [eax], esi
  000e9	5e		 pop	 esi

; 662  : }

  000ea	5d		 pop	 ebp
  000eb	c2 10 00	 ret	 16			; 00000010H
$LN18@GetPre_N_N:

; 649  : 		else if(lPrice == 100000)				{ _lUpBid = 500;	_lDownBid = 100;	}
; 650  : 		else if(lPrice>100000 && lPrice<500000)	{ _lUpBid = 500;	_lDownBid = 500;	}
; 651  : 		else if(lPrice == 500000)				{ _lUpBid = 1000;	_lDownBid = 500;	}
; 652  : 		else if(lPrice>500000)					{ _lUpBid = 1000;	_lDownBid = 1000;	}
; 653  : 	}
; 654  : 	else if(nJongMokGubun == ETF_KOSDAQ)	//코스닥  지수종목	
; 655  : 	{
; 656  : 		//ETF 코스닥 - ETF 코스닥인 경우는 무조건 5단위로 변경되었답니다. 오늘(2004. 08.30) 부터 시행..
; 657  : 		_lUpBid = 5;	_lDownBid = 5;
; 658  : 	}
; 659  : 
; 660  : 	*lUpNextValue = lPrice+_lUpBid;

  000ee	8d 86 5f 79 fe
	ff		 lea	 eax, DWORD PTR [esi-100001]
  000f4	3d 7e 1a 06 00	 cmp	 eax, 399998		; 00061a7eH
  000f9	77 0a		 ja	 SHORT $LN20@GetPre_N_N
  000fb	b9 f4 01 00 00	 mov	 ecx, 500		; 000001f4H
  00100	e9 eb 00 00 00	 jmp	 $LN67@GetPre_N_N
$LN20@GetPre_N_N:
  00105	81 fe 20 a1 07
	00		 cmp	 esi, 500000		; 0007a120H
  0010b	0f 85 d8 00 00
	00		 jne	 $LN56@GetPre_N_N
  00111	8b 45 10	 mov	 eax, DWORD PTR _lUpNextValue$[ebp]
  00114	b9 e8 03 00 00	 mov	 ecx, 1000		; 000003e8H
  00119	03 ce		 add	 ecx, esi
  0011b	ba f4 01 00 00	 mov	 edx, 500		; 000001f4H

; 661  : 	*lDownNextValue = lPrice-_lDownBid;

  00120	2b f2		 sub	 esi, edx
  00122	89 08		 mov	 DWORD PTR [eax], ecx
  00124	8b 45 14	 mov	 eax, DWORD PTR _lDownNextValue$[ebp]
  00127	89 30		 mov	 DWORD PTR [eax], esi
  00129	5e		 pop	 esi

; 662  : }

  0012a	5d		 pop	 ebp
  0012b	c2 10 00	 ret	 16			; 00000010H
$LN2@GetPre_N_N:

; 627  : 		else if(lPrice == 100000)				{ _lUpBid = 500;	_lDownBid = 100;	}
; 628  : 		else if(lPrice>100000 && lPrice<500000)	{ _lUpBid = 500;	_lDownBid = 500;	}
; 629  : 		else if(lPrice == 500000)				{ _lUpBid = 1000;	_lDownBid = 500;	}
; 630  : 		else if(lPrice>500000)					{ _lUpBid = 1000;	_lDownBid = 1000;	}
; 631  : 	}
; 632  : 	else if(nJongMokGubun == KOSDAQ)  	//코스닥

  0012e	83 f8 02	 cmp	 eax, 2
  00131	75 55		 jne	 SHORT $LN25@GetPre_N_N

; 633  : 	{
; 634  : 		if(lPrice<5000)							{ _lUpBid = 5;		_lDownBid = 5;		}

  00133	81 fe 88 13 00
	00		 cmp	 esi, 5000		; 00001388H
  00139	0f 8c b3 00 00
	00		 jl	 $LN59@GetPre_N_N

; 635  : 		else if(lPrice == 5000)					{ _lUpBid = 10;		_lDownBid = 5;		}

  0013f	0f 84 e3 fe ff
	ff		 je	 $LN66@GetPre_N_N

; 636  : 		else if(lPrice>5000 && lPrice<10000)	{ _lUpBid = 10;		_lDownBid = 10;		}

  00145	8d 86 77 ec ff
	ff		 lea	 eax, DWORD PTR [esi-5001]
  0014b	3d 86 13 00 00	 cmp	 eax, 4998		; 00001386H
  00150	0f 86 f7 fe ff
	ff		 jbe	 $LN65@GetPre_N_N

; 637  : 		else if(lPrice == 10000)				{ _lUpBid = 50;		_lDownBid = 10;		}

  00156	81 fe 10 27 00
	00		 cmp	 esi, 10000		; 00002710H
  0015c	0f 84 fd fe ff
	ff		 je	 $LN64@GetPre_N_N

; 638  : 		else if(lPrice>10000 && lPrice<50000)	{ _lUpBid = 50;		_lDownBid = 50;		}

  00162	8d 86 ef d8 ff
	ff		 lea	 eax, DWORD PTR [esi-10001]
  00168	3d 3e 9c 00 00	 cmp	 eax, 39998		; 00009c3eH
  0016d	0f 86 16 ff ff
	ff		 jbe	 $LN63@GetPre_N_N

; 639  : 		else if(lPrice == 50000)				{ _lUpBid = 100;	_lDownBid = 50;		}

  00173	81 fe 50 c3 00
	00		 cmp	 esi, 50000		; 0000c350H
  00179	0f 84 1c ff ff
	ff		 je	 $LN62@GetPre_N_N

; 640  : 		else if(lPrice>50000)					{ _lUpBid = 100;	_lDownBid = 100;	}

  0017f	7e 71		 jle	 SHORT $LN59@GetPre_N_N
$LN61@GetPre_N_N:

; 649  : 		else if(lPrice == 100000)				{ _lUpBid = 500;	_lDownBid = 100;	}
; 650  : 		else if(lPrice>100000 && lPrice<500000)	{ _lUpBid = 500;	_lDownBid = 500;	}
; 651  : 		else if(lPrice == 500000)				{ _lUpBid = 1000;	_lDownBid = 500;	}
; 652  : 		else if(lPrice>500000)					{ _lUpBid = 1000;	_lDownBid = 1000;	}
; 653  : 	}
; 654  : 	else if(nJongMokGubun == ETF_KOSDAQ)	//코스닥  지수종목	
; 655  : 	{
; 656  : 		//ETF 코스닥 - ETF 코스닥인 경우는 무조건 5단위로 변경되었답니다. 오늘(2004. 08.30) 부터 시행..
; 657  : 		_lUpBid = 5;	_lDownBid = 5;
; 658  : 	}
; 659  : 
; 660  : 	*lUpNextValue = lPrice+_lUpBid;

  00181	b9 64 00 00 00	 mov	 ecx, 100		; 00000064H
  00186	eb 68		 jmp	 SHORT $LN67@GetPre_N_N
$LN25@GetPre_N_N:

; 641  : 	}
; 642  : 	else if(nJongMokGubun == ETF_KOSPI)	//ETF 거래소

  00188	83 f8 07	 cmp	 eax, 7
  0018b	75 65		 jne	 SHORT $LN59@GetPre_N_N

; 643  : 	{
; 644  : 		if(lPrice<5000)							{ _lUpBid = 5;		_lDownBid = 5;		}

  0018d	81 fe 88 13 00
	00		 cmp	 esi, 5000		; 00001388H
  00193	7c 5d		 jl	 SHORT $LN59@GetPre_N_N

; 645  : 		else if(lPrice == 5000)					{ _lUpBid = 10;		_lDownBid = 5;		}

  00195	0f 84 8d fe ff
	ff		 je	 $LN66@GetPre_N_N

; 646  : 		else if(lPrice>5000 && lPrice<50000)	{ _lUpBid = 10;		_lDownBid = 10;		}

  0019b	8d 86 77 ec ff
	ff		 lea	 eax, DWORD PTR [esi-5001]
  001a1	3d c6 af 00 00	 cmp	 eax, 44998		; 0000afc6H
  001a6	0f 86 a1 fe ff
	ff		 jbe	 $LN65@GetPre_N_N

; 647  : 		else if(lPrice == 50000)				{ _lUpBid = 100;	_lDownBid = 10;		}

  001ac	81 fe 50 c3 00
	00		 cmp	 esi, 50000		; 0000c350H
  001b2	75 1d		 jne	 SHORT $LN48@GetPre_N_N

; 649  : 		else if(lPrice == 100000)				{ _lUpBid = 500;	_lDownBid = 100;	}
; 650  : 		else if(lPrice>100000 && lPrice<500000)	{ _lUpBid = 500;	_lDownBid = 500;	}
; 651  : 		else if(lPrice == 500000)				{ _lUpBid = 1000;	_lDownBid = 500;	}
; 652  : 		else if(lPrice>500000)					{ _lUpBid = 1000;	_lDownBid = 1000;	}
; 653  : 	}
; 654  : 	else if(nJongMokGubun == ETF_KOSDAQ)	//코스닥  지수종목	
; 655  : 	{
; 656  : 		//ETF 코스닥 - ETF 코스닥인 경우는 무조건 5단위로 변경되었답니다. 오늘(2004. 08.30) 부터 시행..
; 657  : 		_lUpBid = 5;	_lDownBid = 5;
; 658  : 	}
; 659  : 
; 660  : 	*lUpNextValue = lPrice+_lUpBid;

  001b4	8b 45 10	 mov	 eax, DWORD PTR _lUpNextValue$[ebp]
  001b7	b9 64 00 00 00	 mov	 ecx, 100		; 00000064H
  001bc	03 ce		 add	 ecx, esi
  001be	ba 0a 00 00 00	 mov	 edx, 10			; 0000000aH

; 661  : 	*lDownNextValue = lPrice-_lDownBid;

  001c3	2b f2		 sub	 esi, edx
  001c5	89 08		 mov	 DWORD PTR [eax], ecx
  001c7	8b 45 14	 mov	 eax, DWORD PTR _lDownNextValue$[ebp]
  001ca	89 30		 mov	 DWORD PTR [eax], esi
  001cc	5e		 pop	 esi

; 662  : }

  001cd	5d		 pop	 ebp
  001ce	c2 10 00	 ret	 16			; 00000010H
$LN48@GetPre_N_N:

; 648  : 		else if(lPrice>50000 && lPrice<100000)	{ _lUpBid = 100;	_lDownBid = 100;	}

  001d1	8d 86 af 3c ff
	ff		 lea	 eax, DWORD PTR [esi-50001]
  001d7	3d 4e c3 00 00	 cmp	 eax, 49998		; 0000c34eH
  001dc	0f 87 e7 fe ff
	ff		 ja	 $LN16@GetPre_N_N

; 649  : 		else if(lPrice == 100000)				{ _lUpBid = 500;	_lDownBid = 100;	}
; 650  : 		else if(lPrice>100000 && lPrice<500000)	{ _lUpBid = 500;	_lDownBid = 500;	}
; 651  : 		else if(lPrice == 500000)				{ _lUpBid = 1000;	_lDownBid = 500;	}
; 652  : 		else if(lPrice>500000)					{ _lUpBid = 1000;	_lDownBid = 1000;	}
; 653  : 	}
; 654  : 	else if(nJongMokGubun == ETF_KOSDAQ)	//코스닥  지수종목	
; 655  : 	{
; 656  : 		//ETF 코스닥 - ETF 코스닥인 경우는 무조건 5단위로 변경되었답니다. 오늘(2004. 08.30) 부터 시행..
; 657  : 		_lUpBid = 5;	_lDownBid = 5;
; 658  : 	}
; 659  : 
; 660  : 	*lUpNextValue = lPrice+_lUpBid;

  001e2	b9 64 00 00 00	 mov	 ecx, 100		; 00000064H
  001e7	eb 07		 jmp	 SHORT $LN67@GetPre_N_N
$LN56@GetPre_N_N:
  001e9	7e 07		 jle	 SHORT $LN59@GetPre_N_N
  001eb	b9 e8 03 00 00	 mov	 ecx, 1000		; 000003e8H
$LN67@GetPre_N_N:
  001f0	8b d1		 mov	 edx, ecx
$LN59@GetPre_N_N:
  001f2	8b 45 10	 mov	 eax, DWORD PTR _lUpNextValue$[ebp]
  001f5	03 ce		 add	 ecx, esi

; 661  : 	*lDownNextValue = lPrice-_lDownBid;

  001f7	2b f2		 sub	 esi, edx
  001f9	89 08		 mov	 DWORD PTR [eax], ecx
  001fb	8b 45 14	 mov	 eax, DWORD PTR _lDownNextValue$[ebp]
  001fe	89 30		 mov	 DWORD PTR [eax], esi
  00200	5e		 pop	 esi

; 662  : }

  00201	5d		 pop	 ebp
  00202	c2 10 00	 ret	 16			; 00000010H
?GetPre_N_NextHoga@CUtil@@QAEXHJPAJ0@Z ENDP		; CUtil::GetPre_N_NextHoga
_TEXT	ENDS
; Function compile flags: /Ogtp
; File D:\git\src\IBK\IBK_DRFN\ProjSrc\SrcDrfn\Chart\chart_common\Grid\Util.cpp
; File C:\Program Files (x86)\Microsoft Visual Studio\2019\Community\VC\Tools\MSVC\14.29.30133\atlmfc\include\atlsimpstr.h
; File D:\git\src\IBK\IBK_DRFN\ProjSrc\SrcDrfn\Chart\chart_common\Grid\Util.cpp
; File C:\Program Files (x86)\Microsoft Visual Studio\2019\Community\VC\Tools\MSVC\14.29.30133\atlmfc\include\cstringt.h
; File D:\git\src\IBK\IBK_DRFN\ProjSrc\SrcDrfn\Chart\chart_common\Grid\Util.cpp
; File C:\Program Files (x86)\Microsoft Visual Studio\2019\Community\VC\Tools\MSVC\14.29.30133\atlmfc\include\cstringt.h
; File C:\Program Files (x86)\Microsoft Visual Studio\2019\Community\VC\Tools\MSVC\14.29.30133\atlmfc\include\atlsimpstr.h
; File C:\Program Files (x86)\Microsoft Visual Studio\2019\Community\VC\Tools\MSVC\14.29.30133\atlmfc\include\cstringt.h
; File D:\git\src\IBK\IBK_DRFN\ProjSrc\SrcDrfn\Chart\chart_common\Grid\Util.cpp
; File C:\Program Files (x86)\Microsoft Visual Studio\2019\Community\VC\Tools\MSVC\14.29.30133\atlmfc\include\cstringt.h
; File D:\git\src\IBK\IBK_DRFN\ProjSrc\SrcDrfn\Chart\chart_common\Grid\Util.cpp
; File C:\Program Files (x86)\Microsoft Visual Studio\2019\Community\VC\Tools\MSVC\14.29.30133\atlmfc\include\cstringt.h
; File C:\Program Files (x86)\Microsoft Visual Studio\2019\Community\VC\Tools\MSVC\14.29.30133\atlmfc\include\atlsimpstr.h
; File C:\Program Files (x86)\Microsoft Visual Studio\2019\Community\VC\Tools\MSVC\14.29.30133\atlmfc\include\cstringt.h
; File D:\git\src\IBK\IBK_DRFN\ProjSrc\SrcDrfn\Chart\chart_common\Grid\Util.cpp
; File C:\Program Files (x86)\Microsoft Visual Studio\2019\Community\VC\Tools\MSVC\14.29.30133\atlmfc\include\cstringt.h
; File D:\git\src\IBK\IBK_DRFN\ProjSrc\SrcDrfn\Chart\chart_common\Grid\Util.cpp
; File C:\Program Files (x86)\Microsoft Visual Studio\2019\Community\VC\Tools\MSVC\14.29.30133\atlmfc\include\cstringt.h
; File C:\Program Files (x86)\Microsoft Visual Studio\2019\Community\VC\Tools\MSVC\14.29.30133\atlmfc\include\atlsimpstr.h
; File C:\Program Files (x86)\Microsoft Visual Studio\2019\Community\VC\Tools\MSVC\14.29.30133\atlmfc\include\cstringt.h
; File D:\git\src\IBK\IBK_DRFN\ProjSrc\SrcDrfn\Chart\chart_common\Grid\Util.cpp
;	COMDAT ?GetVolUnit@CUtil@@QAE?AV?$CStringT@DV?$StrTraitMFC_DLL@DV?$ChTraitsCRT@D@ATL@@@@@ATL@@PBD@Z
_TEXT	SEGMENT
$T2 = -28						; size = 4
_szPrice$ = -24						; size = 4
_szTemp$ = -20						; size = 4
_szTemp2$ = -16						; size = 4
__$EHRec$ = -12						; size = 12
___$ReturnUdt$ = 8					; size = 4
$T3 = 12						; size = 4
$T4 = 12						; size = 4
$T5 = 12						; size = 4
$T6 = 12						; size = 4
$T7 = 12						; size = 4
$T8 = 12						; size = 4
$T9 = 12						; size = 4
$T10 = 12						; size = 4
_pData$ = 12						; size = 4
?GetVolUnit@CUtil@@QAE?AV?$CStringT@DV?$StrTraitMFC_DLL@DV?$ChTraitsCRT@D@ATL@@@@@ATL@@PBD@Z PROC ; CUtil::GetVolUnit, COMDAT
; _this$ = ecx

; 554  : {

  00000	55		 push	 ebp
  00001	8b ec		 mov	 ebp, esp
  00003	6a ff		 push	 -1
  00005	68 00 00 00 00	 push	 __ehhandler$?GetVolUnit@CUtil@@QAE?AV?$CStringT@DV?$StrTraitMFC_DLL@DV?$ChTraitsCRT@D@ATL@@@@@ATL@@PBD@Z
  0000a	64 a1 00 00 00
	00		 mov	 eax, DWORD PTR fs:0
  00010	50		 push	 eax
  00011	83 ec 10	 sub	 esp, 16			; 00000010H
  00014	53		 push	 ebx
  00015	56		 push	 esi
  00016	57		 push	 edi
  00017	a1 00 00 00 00	 mov	 eax, DWORD PTR ___security_cookie
  0001c	33 c5		 xor	 eax, ebp
  0001e	50		 push	 eax
  0001f	8d 45 f4	 lea	 eax, DWORD PTR __$EHRec$[ebp]
  00022	64 a3 00 00 00
	00		 mov	 DWORD PTR fs:0, eax
  00028	8b d9		 mov	 ebx, ecx

; 555  : 
; 556  : 	CString szPrice, szTemp, szTemp2;

  0002a	8d 4d e8	 lea	 ecx, DWORD PTR _szPrice$[ebp]
  0002d	c7 45 e4 00 00
	00 00		 mov	 DWORD PTR $T2[ebp], 0
  00034	ff 15 00 00 00
	00		 call	 DWORD PTR __imp_??0?$CStringT@DV?$StrTraitMFC_DLL@DV?$ChTraitsCRT@D@ATL@@@@@ATL@@QAE@XZ
  0003a	8d 4d ec	 lea	 ecx, DWORD PTR _szTemp$[ebp]
  0003d	c7 45 fc 00 00
	00 00		 mov	 DWORD PTR __$EHRec$[ebp+8], 0
  00044	ff 15 00 00 00
	00		 call	 DWORD PTR __imp_??0?$CStringT@DV?$StrTraitMFC_DLL@DV?$ChTraitsCRT@D@ATL@@@@@ATL@@QAE@XZ
  0004a	8d 4d f0	 lea	 ecx, DWORD PTR _szTemp2$[ebp]
  0004d	ff 15 00 00 00
	00		 call	 DWORD PTR __imp_??0?$CStringT@DV?$StrTraitMFC_DLL@DV?$ChTraitsCRT@D@ATL@@@@@ATL@@QAE@XZ

; 557  : 	int  nLength;
; 558  : 
; 559  : 	szTemp = pData;

  00053	ff 75 0c	 push	 DWORD PTR _pData$[ebp]
  00056	8d 4d ec	 lea	 ecx, DWORD PTR _szTemp$[ebp]
  00059	c6 45 fc 02	 mov	 BYTE PTR __$EHRec$[ebp+8], 2
  0005d	ff 15 00 00 00
	00		 call	 DWORD PTR __imp_??4?$CStringT@DV?$StrTraitMFC_DLL@DV?$ChTraitsCRT@D@ATL@@@@@ATL@@QAEAAV01@PBD@Z

; 560  : 
; 561  : 	// '-'부호제거
; 562  : 	szTemp.Remove('-');

  00063	6a 2d		 push	 45			; 0000002dH
  00065	8d 4d ec	 lea	 ecx, DWORD PTR _szTemp$[ebp]
  00068	ff 15 00 00 00
	00		 call	 DWORD PTR __imp_?Remove@?$CStringT@DV?$StrTraitMFC_DLL@DV?$ChTraitsCRT@D@ATL@@@@@ATL@@QAEHD@Z

; 105  : 	int nLen = strlen(pData);

  0006e	8b 45 ec	 mov	 eax, DWORD PTR _szTemp$[ebp]
  00071	8b c8		 mov	 ecx, eax
  00073	8d 71 01	 lea	 esi, DWORD PTR [ecx+1]
$LL86@GetVolUnit:
  00076	8a 11		 mov	 dl, BYTE PTR [ecx]
  00078	41		 inc	 ecx
  00079	84 d2		 test	 dl, dl
  0007b	75 f9		 jne	 SHORT $LL86@GetVolUnit
  0007d	2b ce		 sub	 ecx, esi

; 106  : 	int nSameCharCnt = 0;

  0007f	33 ff		 xor	 edi, edi

; 107  : 
; 108  : 	for(int i=0;  i<nLen ; i++) 

  00081	33 d2		 xor	 edx, edx
  00083	85 c9		 test	 ecx, ecx
  00085	7e 0f		 jle	 SHORT $LN25@GetVolUnit
$LL26@GetVolUnit:

; 109  : 	{  
; 110  : 		if(pData[i]!=ch) return (char *)&pData[i];

  00087	80 3c 02 30	 cmp	 BYTE PTR [edx+eax], 48	; 00000030H
  0008b	8d 34 02	 lea	 esi, DWORD PTR [edx+eax]
  0008e	75 13		 jne	 SHORT $LN23@GetVolUnit

; 111  : 		nSameCharCnt++;

  00090	42		 inc	 edx
  00091	47		 inc	 edi
  00092	3b d1		 cmp	 edx, ecx
  00094	7c f1		 jl	 SHORT $LL26@GetVolUnit
$LN25@GetVolUnit:

; 112  : 	}
; 113  : 
; 114  : 	//같은 길이를 가진 
; 115  : 	if(ch == '0' && nSameCharCnt == nLen)

  00096	3b f9		 cmp	 edi, ecx
  00098	75 07		 jne	 SHORT $LN28@GetVolUnit

; 116  : 	{
; 117  : 		return (char*)&pData[nLen-1] ;

  0009a	8d 70 ff	 lea	 esi, DWORD PTR [eax-1]
  0009d	03 f1		 add	 esi, ecx
  0009f	eb 02		 jmp	 SHORT $LN23@GetVolUnit
$LN28@GetVolUnit:

; 118  : 	}
; 119  : 
; 120  : 	return (char *)pData;

  000a1	8b f0		 mov	 esi, eax
$LN23@GetVolUnit:

; 563  : 
; 564  : 	// 앞의 0 제거
; 565  : 	TCHAR chTemp = '0';
; 566  : 	szTemp2 = RemoveFront(szTemp, chTemp);	

  000a3	56		 push	 esi
  000a4	8d 4d f0	 lea	 ecx, DWORD PTR _szTemp2$[ebp]
  000a7	ff 15 00 00 00
	00		 call	 DWORD PTR __imp_??4?$CStringT@DV?$StrTraitMFC_DLL@DV?$ChTraitsCRT@D@ATL@@@@@ATL@@QAEAAV01@PBD@Z

; 567  : 
; 568  : 	// 콤마 제거
; 569  : 	szTemp2.Remove(',');

  000ad	6a 2c		 push	 44			; 0000002cH
  000af	8d 4d f0	 lea	 ecx, DWORD PTR _szTemp2$[ebp]
  000b2	ff 15 00 00 00
	00		 call	 DWORD PTR __imp_?Remove@?$CStringT@DV?$StrTraitMFC_DLL@DV?$ChTraitsCRT@D@ATL@@@@@ATL@@QAEHD@Z
; File C:\Program Files (x86)\Microsoft Visual Studio\2019\Community\VC\Tools\MSVC\14.29.30133\atlmfc\include\atlsimpstr.h

; 519  : 		return( GetData()->nDataLength );

  000b8	8b 45 f0	 mov	 eax, DWORD PTR _szTemp2$[ebp]
  000bb	8b 48 f4	 mov	 ecx, DWORD PTR [eax-12]
; File D:\git\src\IBK\IBK_DRFN\ProjSrc\SrcDrfn\Chart\chart_common\Grid\Util.cpp

; 573  : 	if (nLength >= 10)		// 10억주 이상

  000be	83 f9 0a	 cmp	 ecx, 10			; 0000000aH
  000c1	0f 8c 8e 00 00
	00		 jl	 $LN2@GetVolUnit

; 574  : 	{
; 575  : 		szTemp2.MakeReverse();

  000c7	8d 4d f0	 lea	 ecx, DWORD PTR _szTemp2$[ebp]
  000ca	ff 15 00 00 00
	00		 call	 DWORD PTR __imp_?MakeReverse@?$CStringT@DV?$StrTraitMFC_DLL@DV?$ChTraitsCRT@D@ATL@@@@@ATL@@QAEAAV12@XZ

; 576  : 		szTemp = szTemp2.Mid(8);

  000d0	6a 08		 push	 8
  000d2	8d 45 0c	 lea	 eax, DWORD PTR $T10[ebp]
  000d5	50		 push	 eax
  000d6	8d 4d f0	 lea	 ecx, DWORD PTR _szTemp2$[ebp]
  000d9	ff 15 00 00 00
	00		 call	 DWORD PTR __imp_?Mid@?$CStringT@DV?$StrTraitMFC_DLL@DV?$ChTraitsCRT@D@ATL@@@@@ATL@@QBE?AV12@H@Z
  000df	50		 push	 eax
  000e0	8d 4d ec	 lea	 ecx, DWORD PTR _szTemp$[ebp]
  000e3	c6 45 fc 03	 mov	 BYTE PTR __$EHRec$[ebp+8], 3
  000e7	ff 15 00 00 00
	00		 call	 DWORD PTR __imp_??4?$CStringT@DV?$StrTraitMFC_DLL@DV?$ChTraitsCRT@D@ATL@@@@@ATL@@QAEAAV01@ABV01@@Z
  000ed	8d 4d 0c	 lea	 ecx, DWORD PTR $T10[ebp]
  000f0	c6 45 fc 02	 mov	 BYTE PTR __$EHRec$[ebp+8], 2
  000f4	ff 15 00 00 00
	00		 call	 DWORD PTR __imp_??1?$CStringT@DV?$StrTraitMFC_DLL@DV?$ChTraitsCRT@D@ATL@@@@@ATL@@QAE@XZ

; 577  : 		szTemp.MakeReverse();

  000fa	8d 4d ec	 lea	 ecx, DWORD PTR _szTemp$[ebp]
  000fd	ff 15 00 00 00
	00		 call	 DWORD PTR __imp_?MakeReverse@?$CStringT@DV?$StrTraitMFC_DLL@DV?$ChTraitsCRT@D@ATL@@@@@ATL@@QAEAAV12@XZ

; 578  : 
; 579  : 		szTemp2 = GetComma(szTemp);

  00103	ff 75 ec	 push	 DWORD PTR _szTemp$[ebp]
  00106	8d 45 0c	 lea	 eax, DWORD PTR $T9[ebp]
  00109	8b cb		 mov	 ecx, ebx
  0010b	50		 push	 eax
  0010c	e8 00 00 00 00	 call	 ?GetComma@CUtil@@QAE?AV?$CStringT@DV?$StrTraitMFC_DLL@DV?$ChTraitsCRT@D@ATL@@@@@ATL@@PBD@Z ; CUtil::GetComma
  00111	50		 push	 eax
  00112	8d 4d f0	 lea	 ecx, DWORD PTR _szTemp2$[ebp]
  00115	c6 45 fc 04	 mov	 BYTE PTR __$EHRec$[ebp+8], 4
  00119	ff 15 00 00 00
	00		 call	 DWORD PTR __imp_??4?$CStringT@DV?$StrTraitMFC_DLL@DV?$ChTraitsCRT@D@ATL@@@@@ATL@@QAEAAV01@ABV01@@Z
  0011f	8d 4d 0c	 lea	 ecx, DWORD PTR $T9[ebp]
  00122	ff 15 00 00 00
	00		 call	 DWORD PTR __imp_??1?$CStringT@DV?$StrTraitMFC_DLL@DV?$ChTraitsCRT@D@ATL@@@@@ATL@@QAE@XZ
; File C:\Program Files (x86)\Microsoft Visual Studio\2019\Community\VC\Tools\MSVC\14.29.30133\atlmfc\include\cstringt.h

; 2401 : 		CStringT strResult( str1.GetManager() );

  00128	8d 4d f0	 lea	 ecx, DWORD PTR _szTemp2$[ebp]
; File D:\git\src\IBK\IBK_DRFN\ProjSrc\SrcDrfn\Chart\chart_common\Grid\Util.cpp

; 580  : 		szPrice = szTemp2 + "억주";

  0012b	c6 45 fc 05	 mov	 BYTE PTR __$EHRec$[ebp+8], 5
; File C:\Program Files (x86)\Microsoft Visual Studio\2019\Community\VC\Tools\MSVC\14.29.30133\atlmfc\include\cstringt.h

; 2401 : 		CStringT strResult( str1.GetManager() );

  0012f	ff 15 00 00 00
	00		 call	 DWORD PTR __imp_?GetManager@?$CStringT@DV?$StrTraitMFC_DLL@DV?$ChTraitsCRT@D@ATL@@@@@ATL@@QBEPAUIAtlStringMgr@2@XZ
  00135	50		 push	 eax
  00136	8d 4d 0c	 lea	 ecx, DWORD PTR $T8[ebp]
  00139	ff 15 00 00 00
	00		 call	 DWORD PTR __imp_??0?$CStringT@DV?$StrTraitMFC_DLL@DV?$ChTraitsCRT@D@ATL@@@@@ATL@@QAE@PAUIAtlStringMgr@1@@Z
; File C:\Program Files (x86)\Microsoft Visual Studio\2019\Community\VC\Tools\MSVC\14.29.30133\atlmfc\include\atlsimpstr.h

; 519  : 		return( GetData()->nDataLength );

  0013f	8b 45 f0	 mov	 eax, DWORD PTR _szTemp2$[ebp]
; File C:\Program Files (x86)\Microsoft Visual Studio\2019\Community\VC\Tools\MSVC\14.29.30133\atlmfc\include\cstringt.h

; 2403 : 		CThisSimpleString::Concatenate( strResult, str1, str1.GetLength(), psz2, CThisSimpleString::StringLength( psz2 ) );

  00142	6a 04		 push	 4

; 2404 : 
; 2405 : 		return( strResult );

  00144	c7 45 e4 02 00
	00 00		 mov	 DWORD PTR $T2[ebp], 2
  0014b	68 00 00 00 00	 push	 OFFSET ??_C@_04FPDJHBBH@?$LO?o?A?V@
; File D:\git\src\IBK\IBK_DRFN\ProjSrc\SrcDrfn\Chart\chart_common\Grid\Util.cpp

; 582  : 		return szPrice;

  00150	e9 ff 00 00 00	 jmp	 $LN88@GetVolUnit
$LN2@GetVolUnit:

; 583  : 	}
; 584  : 	else if (nLength >= 6)	// 10만주 이상

  00155	83 f9 06	 cmp	 ecx, 6
  00158	0f 8c 8b 00 00
	00		 jl	 $LN4@GetVolUnit

; 585  : 	{
; 586  : 		szTemp2.MakeReverse();

  0015e	8d 4d f0	 lea	 ecx, DWORD PTR _szTemp2$[ebp]
  00161	ff 15 00 00 00
	00		 call	 DWORD PTR __imp_?MakeReverse@?$CStringT@DV?$StrTraitMFC_DLL@DV?$ChTraitsCRT@D@ATL@@@@@ATL@@QAEAAV12@XZ

; 587  : 		szTemp = szTemp2.Mid(4);

  00167	6a 04		 push	 4
  00169	8d 45 0c	 lea	 eax, DWORD PTR $T7[ebp]
  0016c	50		 push	 eax
  0016d	8d 4d f0	 lea	 ecx, DWORD PTR _szTemp2$[ebp]
  00170	ff 15 00 00 00
	00		 call	 DWORD PTR __imp_?Mid@?$CStringT@DV?$StrTraitMFC_DLL@DV?$ChTraitsCRT@D@ATL@@@@@ATL@@QBE?AV12@H@Z
  00176	50		 push	 eax
  00177	8d 4d ec	 lea	 ecx, DWORD PTR _szTemp$[ebp]
  0017a	c6 45 fc 06	 mov	 BYTE PTR __$EHRec$[ebp+8], 6
  0017e	ff 15 00 00 00
	00		 call	 DWORD PTR __imp_??4?$CStringT@DV?$StrTraitMFC_DLL@DV?$ChTraitsCRT@D@ATL@@@@@ATL@@QAEAAV01@ABV01@@Z
  00184	8d 4d 0c	 lea	 ecx, DWORD PTR $T7[ebp]
  00187	c6 45 fc 02	 mov	 BYTE PTR __$EHRec$[ebp+8], 2
  0018b	ff 15 00 00 00
	00		 call	 DWORD PTR __imp_??1?$CStringT@DV?$StrTraitMFC_DLL@DV?$ChTraitsCRT@D@ATL@@@@@ATL@@QAE@XZ

; 588  : 		szTemp.MakeReverse();

  00191	8d 4d ec	 lea	 ecx, DWORD PTR _szTemp$[ebp]
  00194	ff 15 00 00 00
	00		 call	 DWORD PTR __imp_?MakeReverse@?$CStringT@DV?$StrTraitMFC_DLL@DV?$ChTraitsCRT@D@ATL@@@@@ATL@@QAEAAV12@XZ

; 589  : 
; 590  : 		szTemp2 = GetComma(szTemp);

  0019a	ff 75 ec	 push	 DWORD PTR _szTemp$[ebp]
  0019d	8d 45 0c	 lea	 eax, DWORD PTR $T6[ebp]
  001a0	8b cb		 mov	 ecx, ebx
  001a2	50		 push	 eax
  001a3	e8 00 00 00 00	 call	 ?GetComma@CUtil@@QAE?AV?$CStringT@DV?$StrTraitMFC_DLL@DV?$ChTraitsCRT@D@ATL@@@@@ATL@@PBD@Z ; CUtil::GetComma
  001a8	50		 push	 eax
  001a9	8d 4d f0	 lea	 ecx, DWORD PTR _szTemp2$[ebp]
  001ac	c6 45 fc 07	 mov	 BYTE PTR __$EHRec$[ebp+8], 7
  001b0	ff 15 00 00 00
	00		 call	 DWORD PTR __imp_??4?$CStringT@DV?$StrTraitMFC_DLL@DV?$ChTraitsCRT@D@ATL@@@@@ATL@@QAEAAV01@ABV01@@Z
  001b6	8d 4d 0c	 lea	 ecx, DWORD PTR $T6[ebp]
  001b9	ff 15 00 00 00
	00		 call	 DWORD PTR __imp_??1?$CStringT@DV?$StrTraitMFC_DLL@DV?$ChTraitsCRT@D@ATL@@@@@ATL@@QAE@XZ
; File C:\Program Files (x86)\Microsoft Visual Studio\2019\Community\VC\Tools\MSVC\14.29.30133\atlmfc\include\cstringt.h

; 2401 : 		CStringT strResult( str1.GetManager() );

  001bf	8d 4d f0	 lea	 ecx, DWORD PTR _szTemp2$[ebp]
; File D:\git\src\IBK\IBK_DRFN\ProjSrc\SrcDrfn\Chart\chart_common\Grid\Util.cpp

; 591  : 		szPrice = szTemp2 + "만주";

  001c2	c6 45 fc 08	 mov	 BYTE PTR __$EHRec$[ebp+8], 8
; File C:\Program Files (x86)\Microsoft Visual Studio\2019\Community\VC\Tools\MSVC\14.29.30133\atlmfc\include\cstringt.h

; 2401 : 		CStringT strResult( str1.GetManager() );

  001c6	ff 15 00 00 00
	00		 call	 DWORD PTR __imp_?GetManager@?$CStringT@DV?$StrTraitMFC_DLL@DV?$ChTraitsCRT@D@ATL@@@@@ATL@@QBEPAUIAtlStringMgr@2@XZ
  001cc	50		 push	 eax
  001cd	8d 4d 0c	 lea	 ecx, DWORD PTR $T5[ebp]
  001d0	ff 15 00 00 00
	00		 call	 DWORD PTR __imp_??0?$CStringT@DV?$StrTraitMFC_DLL@DV?$ChTraitsCRT@D@ATL@@@@@ATL@@QAE@PAUIAtlStringMgr@1@@Z
; File C:\Program Files (x86)\Microsoft Visual Studio\2019\Community\VC\Tools\MSVC\14.29.30133\atlmfc\include\atlsimpstr.h

; 519  : 		return( GetData()->nDataLength );

  001d6	8b 45 f0	 mov	 eax, DWORD PTR _szTemp2$[ebp]
; File C:\Program Files (x86)\Microsoft Visual Studio\2019\Community\VC\Tools\MSVC\14.29.30133\atlmfc\include\cstringt.h

; 2403 : 		CThisSimpleString::Concatenate( strResult, str1, str1.GetLength(), psz2, CThisSimpleString::StringLength( psz2 ) );

  001d9	6a 04		 push	 4

; 2404 : 
; 2405 : 		return( strResult );

  001db	c7 45 e4 04 00
	00 00		 mov	 DWORD PTR $T2[ebp], 4
  001e2	68 00 00 00 00	 push	 OFFSET ??_C@_04IGKDLDKM@?$LI?$LI?A?V@
; File D:\git\src\IBK\IBK_DRFN\ProjSrc\SrcDrfn\Chart\chart_common\Grid\Util.cpp

; 593  : 		return szPrice;

  001e7	eb 6b		 jmp	 SHORT $LN88@GetVolUnit
$LN4@GetVolUnit:

; 594  : 	}
; 595  : 
; 596  : 	if (atoi(szTemp2) == 0)

  001e9	50		 push	 eax
  001ea	ff 15 00 00 00
	00		 call	 DWORD PTR __imp__atoi
  001f0	83 c4 04	 add	 esp, 4
  001f3	85 c0		 test	 eax, eax
  001f5	75 10		 jne	 SHORT $LN5@GetVolUnit

; 597  : 	{
; 598  : 		szPrice = "주";

  001f7	68 00 00 00 00	 push	 OFFSET ??_C@_02EHLBLIAD@?A?V@
  001fc	8d 4d e8	 lea	 ecx, DWORD PTR _szPrice$[ebp]
  001ff	ff 15 00 00 00
	00		 call	 DWORD PTR __imp_??4?$CStringT@DV?$StrTraitMFC_DLL@DV?$ChTraitsCRT@D@ATL@@@@@ATL@@QAEAAV01@PBD@Z

; 599  : 	}

  00205	eb 78		 jmp	 SHORT $LN6@GetVolUnit
$LN5@GetVolUnit:

; 600  : 	else
; 601  : 	{
; 602  : 		szTemp = GetComma(szTemp2);

  00207	ff 75 f0	 push	 DWORD PTR _szTemp2$[ebp]
  0020a	8d 45 0c	 lea	 eax, DWORD PTR $T4[ebp]
  0020d	8b cb		 mov	 ecx, ebx
  0020f	50		 push	 eax
  00210	e8 00 00 00 00	 call	 ?GetComma@CUtil@@QAE?AV?$CStringT@DV?$StrTraitMFC_DLL@DV?$ChTraitsCRT@D@ATL@@@@@ATL@@PBD@Z ; CUtil::GetComma
  00215	50		 push	 eax
  00216	8d 4d ec	 lea	 ecx, DWORD PTR _szTemp$[ebp]
  00219	c6 45 fc 09	 mov	 BYTE PTR __$EHRec$[ebp+8], 9
  0021d	ff 15 00 00 00
	00		 call	 DWORD PTR __imp_??4?$CStringT@DV?$StrTraitMFC_DLL@DV?$ChTraitsCRT@D@ATL@@@@@ATL@@QAEAAV01@ABV01@@Z
  00223	8d 4d 0c	 lea	 ecx, DWORD PTR $T4[ebp]
  00226	ff 15 00 00 00
	00		 call	 DWORD PTR __imp_??1?$CStringT@DV?$StrTraitMFC_DLL@DV?$ChTraitsCRT@D@ATL@@@@@ATL@@QAE@XZ
; File C:\Program Files (x86)\Microsoft Visual Studio\2019\Community\VC\Tools\MSVC\14.29.30133\atlmfc\include\cstringt.h

; 2401 : 		CStringT strResult( str1.GetManager() );

  0022c	8d 4d ec	 lea	 ecx, DWORD PTR _szTemp$[ebp]
; File D:\git\src\IBK\IBK_DRFN\ProjSrc\SrcDrfn\Chart\chart_common\Grid\Util.cpp

; 603  : 		szPrice = szTemp + "주";

  0022f	c6 45 fc 0a	 mov	 BYTE PTR __$EHRec$[ebp+8], 10 ; 0000000aH
; File C:\Program Files (x86)\Microsoft Visual Studio\2019\Community\VC\Tools\MSVC\14.29.30133\atlmfc\include\cstringt.h

; 2401 : 		CStringT strResult( str1.GetManager() );

  00233	ff 15 00 00 00
	00		 call	 DWORD PTR __imp_?GetManager@?$CStringT@DV?$StrTraitMFC_DLL@DV?$ChTraitsCRT@D@ATL@@@@@ATL@@QBEPAUIAtlStringMgr@2@XZ
  00239	50		 push	 eax
  0023a	8d 4d 0c	 lea	 ecx, DWORD PTR $T3[ebp]
  0023d	ff 15 00 00 00
	00		 call	 DWORD PTR __imp_??0?$CStringT@DV?$StrTraitMFC_DLL@DV?$ChTraitsCRT@D@ATL@@@@@ATL@@QAE@PAUIAtlStringMgr@1@@Z
; File C:\Program Files (x86)\Microsoft Visual Studio\2019\Community\VC\Tools\MSVC\14.29.30133\atlmfc\include\atlsimpstr.h

; 519  : 		return( GetData()->nDataLength );

  00243	8b 45 ec	 mov	 eax, DWORD PTR _szTemp$[ebp]
; File C:\Program Files (x86)\Microsoft Visual Studio\2019\Community\VC\Tools\MSVC\14.29.30133\atlmfc\include\cstringt.h

; 2403 : 		CThisSimpleString::Concatenate( strResult, str1, str1.GetLength(), psz2, CThisSimpleString::StringLength( psz2 ) );

  00246	6a 02		 push	 2

; 2404 : 
; 2405 : 		return( strResult );

  00248	c7 45 e4 08 00
	00 00		 mov	 DWORD PTR $T2[ebp], 8
  0024f	68 00 00 00 00	 push	 OFFSET ??_C@_02EHLBLIAD@?A?V@
$LN88@GetVolUnit:
; File D:\git\src\IBK\IBK_DRFN\ProjSrc\SrcDrfn\Chart\chart_common\Grid\Util.cpp

; 607  : }

  00254	ff 70 f4	 push	 DWORD PTR [eax-12]
  00257	50		 push	 eax
  00258	8d 45 0c	 lea	 eax, DWORD PTR $T3[ebp]
  0025b	50		 push	 eax
  0025c	ff 15 00 00 00
	00		 call	 DWORD PTR __imp_?Concatenate@?$CSimpleStringT@D$00@ATL@@KAXAAV12@PBDH1H@Z
  00262	83 c4 14	 add	 esp, 20			; 00000014H
  00265	8d 45 0c	 lea	 eax, DWORD PTR $T3[ebp]
  00268	8d 4d e8	 lea	 ecx, DWORD PTR _szPrice$[ebp]
  0026b	50		 push	 eax
  0026c	ff 15 00 00 00
	00		 call	 DWORD PTR __imp_??4?$CStringT@DV?$StrTraitMFC_DLL@DV?$ChTraitsCRT@D@ATL@@@@@ATL@@QAEAAV01@ABV01@@Z
  00272	8d 4d 0c	 lea	 ecx, DWORD PTR $T3[ebp]
  00275	c6 45 fc 02	 mov	 BYTE PTR __$EHRec$[ebp+8], 2
  00279	ff 15 00 00 00
	00		 call	 DWORD PTR __imp_??1?$CStringT@DV?$StrTraitMFC_DLL@DV?$ChTraitsCRT@D@ATL@@@@@ATL@@QAE@XZ
$LN6@GetVolUnit:
  0027f	8b 4d 08	 mov	 ecx, DWORD PTR ___$ReturnUdt$[ebp]
  00282	8d 45 e8	 lea	 eax, DWORD PTR _szPrice$[ebp]
  00285	50		 push	 eax
  00286	ff 15 00 00 00
	00		 call	 DWORD PTR __imp_??0?$CStringT@DV?$StrTraitMFC_DLL@DV?$ChTraitsCRT@D@ATL@@@@@ATL@@QAE@ABV01@@Z
  0028c	8d 4d f0	 lea	 ecx, DWORD PTR _szTemp2$[ebp]
  0028f	ff 15 00 00 00
	00		 call	 DWORD PTR __imp_??1?$CStringT@DV?$StrTraitMFC_DLL@DV?$ChTraitsCRT@D@ATL@@@@@ATL@@QAE@XZ
  00295	8d 4d ec	 lea	 ecx, DWORD PTR _szTemp$[ebp]
  00298	ff 15 00 00 00
	00		 call	 DWORD PTR __imp_??1?$CStringT@DV?$StrTraitMFC_DLL@DV?$ChTraitsCRT@D@ATL@@@@@ATL@@QAE@XZ
  0029e	8d 4d e8	 lea	 ecx, DWORD PTR _szPrice$[ebp]
  002a1	ff 15 00 00 00
	00		 call	 DWORD PTR __imp_??1?$CStringT@DV?$StrTraitMFC_DLL@DV?$ChTraitsCRT@D@ATL@@@@@ATL@@QAE@XZ
  002a7	8b 45 08	 mov	 eax, DWORD PTR ___$ReturnUdt$[ebp]
  002aa	8b 4d f4	 mov	 ecx, DWORD PTR __$EHRec$[ebp]
  002ad	64 89 0d 00 00
	00 00		 mov	 DWORD PTR fs:0, ecx
  002b4	59		 pop	 ecx
  002b5	5f		 pop	 edi
  002b6	5e		 pop	 esi
  002b7	5b		 pop	 ebx
  002b8	8b e5		 mov	 esp, ebp
  002ba	5d		 pop	 ebp
  002bb	c2 08 00	 ret	 8
_TEXT	ENDS
;	COMDAT text$x
text$x	SEGMENT
__unwindfunclet$?GetVolUnit@CUtil@@QAE?AV?$CStringT@DV?$StrTraitMFC_DLL@DV?$ChTraitsCRT@D@ATL@@@@@ATL@@PBD@Z$0:
  00000	8d 4d e8	 lea	 ecx, DWORD PTR _szPrice$[ebp]
  00003	ff 25 00 00 00
	00		 jmp	 DWORD PTR __imp_??1?$CStringT@DV?$StrTraitMFC_DLL@DV?$ChTraitsCRT@D@ATL@@@@@ATL@@QAE@XZ
__unwindfunclet$?GetVolUnit@CUtil@@QAE?AV?$CStringT@DV?$StrTraitMFC_DLL@DV?$ChTraitsCRT@D@ATL@@@@@ATL@@PBD@Z$1:
  00009	8d 4d ec	 lea	 ecx, DWORD PTR _szTemp$[ebp]
  0000c	ff 25 00 00 00
	00		 jmp	 DWORD PTR __imp_??1?$CStringT@DV?$StrTraitMFC_DLL@DV?$ChTraitsCRT@D@ATL@@@@@ATL@@QAE@XZ
__unwindfunclet$?GetVolUnit@CUtil@@QAE?AV?$CStringT@DV?$StrTraitMFC_DLL@DV?$ChTraitsCRT@D@ATL@@@@@ATL@@PBD@Z$2:
  00012	8d 4d f0	 lea	 ecx, DWORD PTR _szTemp2$[ebp]
  00015	ff 25 00 00 00
	00		 jmp	 DWORD PTR __imp_??1?$CStringT@DV?$StrTraitMFC_DLL@DV?$ChTraitsCRT@D@ATL@@@@@ATL@@QAE@XZ
__unwindfunclet$?GetVolUnit@CUtil@@QAE?AV?$CStringT@DV?$StrTraitMFC_DLL@DV?$ChTraitsCRT@D@ATL@@@@@ATL@@PBD@Z$3:
  0001b	8d 4d 0c	 lea	 ecx, DWORD PTR $T10[ebp]
  0001e	ff 25 00 00 00
	00		 jmp	 DWORD PTR __imp_??1?$CStringT@DV?$StrTraitMFC_DLL@DV?$ChTraitsCRT@D@ATL@@@@@ATL@@QAE@XZ
__unwindfunclet$?GetVolUnit@CUtil@@QAE?AV?$CStringT@DV?$StrTraitMFC_DLL@DV?$ChTraitsCRT@D@ATL@@@@@ATL@@PBD@Z$4:
  00024	8d 4d 0c	 lea	 ecx, DWORD PTR $T9[ebp]
  00027	ff 25 00 00 00
	00		 jmp	 DWORD PTR __imp_??1?$CStringT@DV?$StrTraitMFC_DLL@DV?$ChTraitsCRT@D@ATL@@@@@ATL@@QAE@XZ
__unwindfunclet$?GetVolUnit@CUtil@@QAE?AV?$CStringT@DV?$StrTraitMFC_DLL@DV?$ChTraitsCRT@D@ATL@@@@@ATL@@PBD@Z$12:
  0002d	8b 45 e4	 mov	 eax, DWORD PTR $T2[ebp]
  00030	83 e0 02	 and	 eax, 2
  00033	0f 84 0d 00 00
	00		 je	 $LN39@GetVolUnit
  00039	83 65 e4 fd	 and	 DWORD PTR $T2[ebp], -3	; fffffffdH
  0003d	8d 4d 0c	 lea	 ecx, DWORD PTR $T8[ebp]
  00040	ff 25 00 00 00
	00		 jmp	 DWORD PTR __imp_??1?$CStringT@DV?$StrTraitMFC_DLL@DV?$ChTraitsCRT@D@ATL@@@@@ATL@@QAE@XZ
$LN39@GetVolUnit:
  00046	c3		 ret	 0
__unwindfunclet$?GetVolUnit@CUtil@@QAE?AV?$CStringT@DV?$StrTraitMFC_DLL@DV?$ChTraitsCRT@D@ATL@@@@@ATL@@PBD@Z$7:
  00047	8d 4d 0c	 lea	 ecx, DWORD PTR $T7[ebp]
  0004a	ff 25 00 00 00
	00		 jmp	 DWORD PTR __imp_??1?$CStringT@DV?$StrTraitMFC_DLL@DV?$ChTraitsCRT@D@ATL@@@@@ATL@@QAE@XZ
__unwindfunclet$?GetVolUnit@CUtil@@QAE?AV?$CStringT@DV?$StrTraitMFC_DLL@DV?$ChTraitsCRT@D@ATL@@@@@ATL@@PBD@Z$8:
  00050	8d 4d 0c	 lea	 ecx, DWORD PTR $T6[ebp]
  00053	ff 25 00 00 00
	00		 jmp	 DWORD PTR __imp_??1?$CStringT@DV?$StrTraitMFC_DLL@DV?$ChTraitsCRT@D@ATL@@@@@ATL@@QAE@XZ
__unwindfunclet$?GetVolUnit@CUtil@@QAE?AV?$CStringT@DV?$StrTraitMFC_DLL@DV?$ChTraitsCRT@D@ATL@@@@@ATL@@PBD@Z$13:
  00059	8b 45 e4	 mov	 eax, DWORD PTR $T2[ebp]
  0005c	83 e0 04	 and	 eax, 4
  0005f	0f 84 0d 00 00
	00		 je	 $LN54@GetVolUnit
  00065	83 65 e4 fb	 and	 DWORD PTR $T2[ebp], -5	; fffffffbH
  00069	8d 4d 0c	 lea	 ecx, DWORD PTR $T5[ebp]
  0006c	ff 25 00 00 00
	00		 jmp	 DWORD PTR __imp_??1?$CStringT@DV?$StrTraitMFC_DLL@DV?$ChTraitsCRT@D@ATL@@@@@ATL@@QAE@XZ
$LN54@GetVolUnit:
  00072	c3		 ret	 0
__unwindfunclet$?GetVolUnit@CUtil@@QAE?AV?$CStringT@DV?$StrTraitMFC_DLL@DV?$ChTraitsCRT@D@ATL@@@@@ATL@@PBD@Z$10:
  00073	8d 4d 0c	 lea	 ecx, DWORD PTR $T4[ebp]
  00076	ff 25 00 00 00
	00		 jmp	 DWORD PTR __imp_??1?$CStringT@DV?$StrTraitMFC_DLL@DV?$ChTraitsCRT@D@ATL@@@@@ATL@@QAE@XZ
__unwindfunclet$?GetVolUnit@CUtil@@QAE?AV?$CStringT@DV?$StrTraitMFC_DLL@DV?$ChTraitsCRT@D@ATL@@@@@ATL@@PBD@Z$14:
  0007c	8b 45 e4	 mov	 eax, DWORD PTR $T2[ebp]
  0007f	83 e0 08	 and	 eax, 8
  00082	0f 84 0d 00 00
	00		 je	 $LN71@GetVolUnit
  00088	83 65 e4 f7	 and	 DWORD PTR $T2[ebp], -9	; fffffff7H
  0008c	8d 4d 0c	 lea	 ecx, DWORD PTR $T3[ebp]
  0008f	ff 25 00 00 00
	00		 jmp	 DWORD PTR __imp_??1?$CStringT@DV?$StrTraitMFC_DLL@DV?$ChTraitsCRT@D@ATL@@@@@ATL@@QAE@XZ
$LN71@GetVolUnit:
  00095	c3		 ret	 0
  00096	cc		 int	 3
  00097	cc		 int	 3
  00098	cc		 int	 3
  00099	cc		 int	 3
  0009a	cc		 int	 3
__ehhandler$?GetVolUnit@CUtil@@QAE?AV?$CStringT@DV?$StrTraitMFC_DLL@DV?$ChTraitsCRT@D@ATL@@@@@ATL@@PBD@Z:
  0009b	90		 npad	 1
  0009c	90		 npad	 1
  0009d	8b 54 24 08	 mov	 edx, DWORD PTR [esp+8]
  000a1	8d 42 0c	 lea	 eax, DWORD PTR [edx+12]
  000a4	8b 4a e0	 mov	 ecx, DWORD PTR [edx-32]
  000a7	33 c8		 xor	 ecx, eax
  000a9	e8 00 00 00 00	 call	 @__security_check_cookie@4
  000ae	b8 00 00 00 00	 mov	 eax, OFFSET __ehfuncinfo$?GetVolUnit@CUtil@@QAE?AV?$CStringT@DV?$StrTraitMFC_DLL@DV?$ChTraitsCRT@D@ATL@@@@@ATL@@PBD@Z
  000b3	e9 00 00 00 00	 jmp	 ___CxxFrameHandler3
text$x	ENDS
?GetVolUnit@CUtil@@QAE?AV?$CStringT@DV?$StrTraitMFC_DLL@DV?$ChTraitsCRT@D@ATL@@@@@ATL@@PBD@Z ENDP ; CUtil::GetVolUnit
; Function compile flags: /Ogtp
; File D:\git\src\IBK\IBK_DRFN\ProjSrc\SrcDrfn\Chart\chart_common\Grid\Util.cpp
; File C:\Program Files (x86)\Microsoft Visual Studio\2019\Community\VC\Tools\MSVC\14.29.30133\atlmfc\include\atlsimpstr.h
; File D:\git\src\IBK\IBK_DRFN\ProjSrc\SrcDrfn\Chart\chart_common\Grid\Util.cpp
;	COMDAT ?GetPriceUnitMan@CUtil@@QAE?AV?$CStringT@DV?$StrTraitMFC_DLL@DV?$ChTraitsCRT@D@ATL@@@@@ATL@@PBD@Z
_TEXT	SEGMENT
_szPrice$ = -24						; size = 4
_szTemp$ = -20						; size = 4
_szTemp2$ = -16						; size = 4
__$EHRec$ = -12						; size = 12
___$ReturnUdt$ = 8					; size = 4
$T2 = 12						; size = 4
$T3 = 12						; size = 4
_pData$ = 12						; size = 4
?GetPriceUnitMan@CUtil@@QAE?AV?$CStringT@DV?$StrTraitMFC_DLL@DV?$ChTraitsCRT@D@ATL@@@@@ATL@@PBD@Z PROC ; CUtil::GetPriceUnitMan, COMDAT
; _this$ = ecx

; 518  : {

  00000	55		 push	 ebp
  00001	8b ec		 mov	 ebp, esp
  00003	6a ff		 push	 -1
  00005	68 00 00 00 00	 push	 __ehhandler$?GetPriceUnitMan@CUtil@@QAE?AV?$CStringT@DV?$StrTraitMFC_DLL@DV?$ChTraitsCRT@D@ATL@@@@@ATL@@PBD@Z
  0000a	64 a1 00 00 00
	00		 mov	 eax, DWORD PTR fs:0
  00010	50		 push	 eax
  00011	83 ec 0c	 sub	 esp, 12			; 0000000cH
  00014	53		 push	 ebx
  00015	56		 push	 esi
  00016	57		 push	 edi
  00017	a1 00 00 00 00	 mov	 eax, DWORD PTR ___security_cookie
  0001c	33 c5		 xor	 eax, ebp
  0001e	50		 push	 eax
  0001f	8d 45 f4	 lea	 eax, DWORD PTR __$EHRec$[ebp]
  00022	64 a3 00 00 00
	00		 mov	 DWORD PTR fs:0, eax
  00028	8b d9		 mov	 ebx, ecx

; 519  : 
; 520  : 	CString szPrice, szTemp, szTemp2;

  0002a	8d 4d e8	 lea	 ecx, DWORD PTR _szPrice$[ebp]
  0002d	ff 15 00 00 00
	00		 call	 DWORD PTR __imp_??0?$CStringT@DV?$StrTraitMFC_DLL@DV?$ChTraitsCRT@D@ATL@@@@@ATL@@QAE@XZ
  00033	8d 4d ec	 lea	 ecx, DWORD PTR _szTemp$[ebp]
  00036	c7 45 fc 00 00
	00 00		 mov	 DWORD PTR __$EHRec$[ebp+8], 0
  0003d	ff 15 00 00 00
	00		 call	 DWORD PTR __imp_??0?$CStringT@DV?$StrTraitMFC_DLL@DV?$ChTraitsCRT@D@ATL@@@@@ATL@@QAE@XZ
  00043	8d 4d f0	 lea	 ecx, DWORD PTR _szTemp2$[ebp]
  00046	ff 15 00 00 00
	00		 call	 DWORD PTR __imp_??0?$CStringT@DV?$StrTraitMFC_DLL@DV?$ChTraitsCRT@D@ATL@@@@@ATL@@QAE@XZ

; 521  : 	int  nLength;
; 522  : 
; 523  : 	szTemp = pData;

  0004c	ff 75 0c	 push	 DWORD PTR _pData$[ebp]
  0004f	8d 4d ec	 lea	 ecx, DWORD PTR _szTemp$[ebp]
  00052	c6 45 fc 02	 mov	 BYTE PTR __$EHRec$[ebp+8], 2
  00056	ff 15 00 00 00
	00		 call	 DWORD PTR __imp_??4?$CStringT@DV?$StrTraitMFC_DLL@DV?$ChTraitsCRT@D@ATL@@@@@ATL@@QAEAAV01@PBD@Z

; 105  : 	int nLen = strlen(pData);

  0005c	8b 45 ec	 mov	 eax, DWORD PTR _szTemp$[ebp]
  0005f	8b c8		 mov	 ecx, eax
  00061	8d 71 01	 lea	 esi, DWORD PTR [ecx+1]
$LL31@GetPriceUn:
  00064	8a 11		 mov	 dl, BYTE PTR [ecx]
  00066	41		 inc	 ecx
  00067	84 d2		 test	 dl, dl
  00069	75 f9		 jne	 SHORT $LL31@GetPriceUn
  0006b	2b ce		 sub	 ecx, esi

; 106  : 	int nSameCharCnt = 0;

  0006d	33 ff		 xor	 edi, edi

; 107  : 
; 108  : 	for(int i=0;  i<nLen ; i++) 

  0006f	33 d2		 xor	 edx, edx
  00071	85 c9		 test	 ecx, ecx
  00073	7e 0f		 jle	 SHORT $LN15@GetPriceUn
$LL16@GetPriceUn:

; 109  : 	{  
; 110  : 		if(pData[i]!=ch) return (char *)&pData[i];

  00075	80 3c 02 30	 cmp	 BYTE PTR [edx+eax], 48	; 00000030H
  00079	8d 34 02	 lea	 esi, DWORD PTR [edx+eax]
  0007c	75 13		 jne	 SHORT $LN13@GetPriceUn

; 111  : 		nSameCharCnt++;

  0007e	42		 inc	 edx
  0007f	47		 inc	 edi
  00080	3b d1		 cmp	 edx, ecx
  00082	7c f1		 jl	 SHORT $LL16@GetPriceUn
$LN15@GetPriceUn:

; 112  : 	}
; 113  : 
; 114  : 	//같은 길이를 가진 
; 115  : 	if(ch == '0' && nSameCharCnt == nLen)

  00084	3b f9		 cmp	 edi, ecx
  00086	75 07		 jne	 SHORT $LN18@GetPriceUn

; 116  : 	{
; 117  : 		return (char*)&pData[nLen-1] ;

  00088	8d 70 ff	 lea	 esi, DWORD PTR [eax-1]
  0008b	03 f1		 add	 esi, ecx
  0008d	eb 02		 jmp	 SHORT $LN13@GetPriceUn
$LN18@GetPriceUn:

; 118  : 	}
; 119  : 
; 120  : 	return (char *)pData;

  0008f	8b f0		 mov	 esi, eax
$LN13@GetPriceUn:

; 524  : 
; 525  : 	// 앞의 0 제거
; 526  : 	TCHAR chTemp = '0';
; 527  : 	szTemp2 = RemoveFront(szTemp, chTemp);	

  00091	56		 push	 esi
  00092	8d 4d f0	 lea	 ecx, DWORD PTR _szTemp2$[ebp]
  00095	ff 15 00 00 00
	00		 call	 DWORD PTR __imp_??4?$CStringT@DV?$StrTraitMFC_DLL@DV?$ChTraitsCRT@D@ATL@@@@@ATL@@QAEAAV01@PBD@Z

; 528  : 
; 529  : 	// 콤마 제거
; 530  : 	szTemp2.Remove(',');

  0009b	6a 2c		 push	 44			; 0000002cH
  0009d	8d 4d f0	 lea	 ecx, DWORD PTR _szTemp2$[ebp]
  000a0	ff 15 00 00 00
	00		 call	 DWORD PTR __imp_?Remove@?$CStringT@DV?$StrTraitMFC_DLL@DV?$ChTraitsCRT@D@ATL@@@@@ATL@@QAEHD@Z
; File C:\Program Files (x86)\Microsoft Visual Studio\2019\Community\VC\Tools\MSVC\14.29.30133\atlmfc\include\atlsimpstr.h

; 519  : 		return( GetData()->nDataLength );

  000a6	8b 45 f0	 mov	 eax, DWORD PTR _szTemp2$[ebp]
; File D:\git\src\IBK\IBK_DRFN\ProjSrc\SrcDrfn\Chart\chart_common\Grid\Util.cpp

; 534  : 	if (nLength >= 5)	// 1만원 이상

  000a9	83 78 f4 05	 cmp	 DWORD PTR [eax-12], 5
  000ad	7c 74		 jl	 SHORT $LN2@GetPriceUn

; 535  : 	{
; 536  : 		szTemp2.MakeReverse();

  000af	8d 4d f0	 lea	 ecx, DWORD PTR _szTemp2$[ebp]
  000b2	ff 15 00 00 00
	00		 call	 DWORD PTR __imp_?MakeReverse@?$CStringT@DV?$StrTraitMFC_DLL@DV?$ChTraitsCRT@D@ATL@@@@@ATL@@QAEAAV12@XZ

; 537  : 		szTemp = szTemp2.Mid(4);

  000b8	6a 04		 push	 4
  000ba	8d 45 0c	 lea	 eax, DWORD PTR $T3[ebp]
  000bd	50		 push	 eax
  000be	8d 4d f0	 lea	 ecx, DWORD PTR _szTemp2$[ebp]
  000c1	ff 15 00 00 00
	00		 call	 DWORD PTR __imp_?Mid@?$CStringT@DV?$StrTraitMFC_DLL@DV?$ChTraitsCRT@D@ATL@@@@@ATL@@QBE?AV12@H@Z
  000c7	50		 push	 eax
  000c8	8d 4d ec	 lea	 ecx, DWORD PTR _szTemp$[ebp]
  000cb	c6 45 fc 03	 mov	 BYTE PTR __$EHRec$[ebp+8], 3
  000cf	ff 15 00 00 00
	00		 call	 DWORD PTR __imp_??4?$CStringT@DV?$StrTraitMFC_DLL@DV?$ChTraitsCRT@D@ATL@@@@@ATL@@QAEAAV01@ABV01@@Z
  000d5	8d 4d 0c	 lea	 ecx, DWORD PTR $T3[ebp]
  000d8	c6 45 fc 02	 mov	 BYTE PTR __$EHRec$[ebp+8], 2
  000dc	ff 15 00 00 00
	00		 call	 DWORD PTR __imp_??1?$CStringT@DV?$StrTraitMFC_DLL@DV?$ChTraitsCRT@D@ATL@@@@@ATL@@QAE@XZ

; 538  : 		szTemp.MakeReverse();

  000e2	8d 4d ec	 lea	 ecx, DWORD PTR _szTemp$[ebp]
  000e5	ff 15 00 00 00
	00		 call	 DWORD PTR __imp_?MakeReverse@?$CStringT@DV?$StrTraitMFC_DLL@DV?$ChTraitsCRT@D@ATL@@@@@ATL@@QAEAAV12@XZ

; 539  : 
; 540  : 		szTemp2 = GetComma(szTemp);

  000eb	ff 75 ec	 push	 DWORD PTR _szTemp$[ebp]
  000ee	8d 45 0c	 lea	 eax, DWORD PTR $T2[ebp]
  000f1	8b cb		 mov	 ecx, ebx
  000f3	50		 push	 eax
  000f4	e8 00 00 00 00	 call	 ?GetComma@CUtil@@QAE?AV?$CStringT@DV?$StrTraitMFC_DLL@DV?$ChTraitsCRT@D@ATL@@@@@ATL@@PBD@Z ; CUtil::GetComma
  000f9	50		 push	 eax
  000fa	8d 4d f0	 lea	 ecx, DWORD PTR _szTemp2$[ebp]
  000fd	c6 45 fc 04	 mov	 BYTE PTR __$EHRec$[ebp+8], 4
  00101	ff 15 00 00 00
	00		 call	 DWORD PTR __imp_??4?$CStringT@DV?$StrTraitMFC_DLL@DV?$ChTraitsCRT@D@ATL@@@@@ATL@@QAEAAV01@ABV01@@Z
  00107	8d 4d 0c	 lea	 ecx, DWORD PTR $T2[ebp]
  0010a	c6 45 fc 02	 mov	 BYTE PTR __$EHRec$[ebp+8], 2
  0010e	ff 15 00 00 00
	00		 call	 DWORD PTR __imp_??1?$CStringT@DV?$StrTraitMFC_DLL@DV?$ChTraitsCRT@D@ATL@@@@@ATL@@QAE@XZ

; 541  : 		szPrice = szTemp2;

  00114	8d 45 f0	 lea	 eax, DWORD PTR _szTemp2$[ebp]
  00117	50		 push	 eax
  00118	8d 4d e8	 lea	 ecx, DWORD PTR _szPrice$[ebp]
  0011b	ff 15 00 00 00
	00		 call	 DWORD PTR __imp_??4?$CStringT@DV?$StrTraitMFC_DLL@DV?$ChTraitsCRT@D@ATL@@@@@ATL@@QAEAAV01@ABV01@@Z

; 542  : 
; 543  : 		return szPrice;

  00121	eb 0e		 jmp	 SHORT $LN33@GetPriceUn
$LN2@GetPriceUn:

; 544  : 	}
; 545  : 
; 546  : 	szPrice = "0";		// 만원 이하인 경우 "0" 리턴

  00123	68 00 00 00 00	 push	 OFFSET ??_C@_01GBGANLPD@0@
  00128	8d 4d e8	 lea	 ecx, DWORD PTR _szPrice$[ebp]
  0012b	ff 15 00 00 00
	00		 call	 DWORD PTR __imp_??4?$CStringT@DV?$StrTraitMFC_DLL@DV?$ChTraitsCRT@D@ATL@@@@@ATL@@QAEAAV01@PBD@Z
$LN33@GetPriceUn:

; 547  : 		
; 548  : 	return szPrice;
; 549  : }

  00131	8b 4d 08	 mov	 ecx, DWORD PTR ___$ReturnUdt$[ebp]
  00134	8d 45 e8	 lea	 eax, DWORD PTR _szPrice$[ebp]
  00137	50		 push	 eax
  00138	ff 15 00 00 00
	00		 call	 DWORD PTR __imp_??0?$CStringT@DV?$StrTraitMFC_DLL@DV?$ChTraitsCRT@D@ATL@@@@@ATL@@QAE@ABV01@@Z
  0013e	8d 4d f0	 lea	 ecx, DWORD PTR _szTemp2$[ebp]
  00141	ff 15 00 00 00
	00		 call	 DWORD PTR __imp_??1?$CStringT@DV?$StrTraitMFC_DLL@DV?$ChTraitsCRT@D@ATL@@@@@ATL@@QAE@XZ
  00147	8d 4d ec	 lea	 ecx, DWORD PTR _szTemp$[ebp]
  0014a	ff 15 00 00 00
	00		 call	 DWORD PTR __imp_??1?$CStringT@DV?$StrTraitMFC_DLL@DV?$ChTraitsCRT@D@ATL@@@@@ATL@@QAE@XZ
  00150	8d 4d e8	 lea	 ecx, DWORD PTR _szPrice$[ebp]
  00153	ff 15 00 00 00
	00		 call	 DWORD PTR __imp_??1?$CStringT@DV?$StrTraitMFC_DLL@DV?$ChTraitsCRT@D@ATL@@@@@ATL@@QAE@XZ
  00159	8b 45 08	 mov	 eax, DWORD PTR ___$ReturnUdt$[ebp]
  0015c	8b 4d f4	 mov	 ecx, DWORD PTR __$EHRec$[ebp]
  0015f	64 89 0d 00 00
	00 00		 mov	 DWORD PTR fs:0, ecx
  00166	59		 pop	 ecx
  00167	5f		 pop	 edi
  00168	5e		 pop	 esi
  00169	5b		 pop	 ebx
  0016a	8b e5		 mov	 esp, ebp
  0016c	5d		 pop	 ebp
  0016d	c2 08 00	 ret	 8
_TEXT	ENDS
;	COMDAT text$x
text$x	SEGMENT
__unwindfunclet$?GetPriceUnitMan@CUtil@@QAE?AV?$CStringT@DV?$StrTraitMFC_DLL@DV?$ChTraitsCRT@D@ATL@@@@@ATL@@PBD@Z$0:
  00000	8d 4d e8	 lea	 ecx, DWORD PTR _szPrice$[ebp]
  00003	ff 25 00 00 00
	00		 jmp	 DWORD PTR __imp_??1?$CStringT@DV?$StrTraitMFC_DLL@DV?$ChTraitsCRT@D@ATL@@@@@ATL@@QAE@XZ
__unwindfunclet$?GetPriceUnitMan@CUtil@@QAE?AV?$CStringT@DV?$StrTraitMFC_DLL@DV?$ChTraitsCRT@D@ATL@@@@@ATL@@PBD@Z$1:
  00009	8d 4d ec	 lea	 ecx, DWORD PTR _szTemp$[ebp]
  0000c	ff 25 00 00 00
	00		 jmp	 DWORD PTR __imp_??1?$CStringT@DV?$StrTraitMFC_DLL@DV?$ChTraitsCRT@D@ATL@@@@@ATL@@QAE@XZ
__unwindfunclet$?GetPriceUnitMan@CUtil@@QAE?AV?$CStringT@DV?$StrTraitMFC_DLL@DV?$ChTraitsCRT@D@ATL@@@@@ATL@@PBD@Z$2:
  00012	8d 4d f0	 lea	 ecx, DWORD PTR _szTemp2$[ebp]
  00015	ff 25 00 00 00
	00		 jmp	 DWORD PTR __imp_??1?$CStringT@DV?$StrTraitMFC_DLL@DV?$ChTraitsCRT@D@ATL@@@@@ATL@@QAE@XZ
__unwindfunclet$?GetPriceUnitMan@CUtil@@QAE?AV?$CStringT@DV?$StrTraitMFC_DLL@DV?$ChTraitsCRT@D@ATL@@@@@ATL@@PBD@Z$3:
  0001b	8d 4d 0c	 lea	 ecx, DWORD PTR $T3[ebp]
  0001e	ff 25 00 00 00
	00		 jmp	 DWORD PTR __imp_??1?$CStringT@DV?$StrTraitMFC_DLL@DV?$ChTraitsCRT@D@ATL@@@@@ATL@@QAE@XZ
__unwindfunclet$?GetPriceUnitMan@CUtil@@QAE?AV?$CStringT@DV?$StrTraitMFC_DLL@DV?$ChTraitsCRT@D@ATL@@@@@ATL@@PBD@Z$4:
  00024	8d 4d 0c	 lea	 ecx, DWORD PTR $T2[ebp]
  00027	ff 25 00 00 00
	00		 jmp	 DWORD PTR __imp_??1?$CStringT@DV?$StrTraitMFC_DLL@DV?$ChTraitsCRT@D@ATL@@@@@ATL@@QAE@XZ
  0002d	cc		 int	 3
  0002e	cc		 int	 3
  0002f	cc		 int	 3
  00030	cc		 int	 3
  00031	cc		 int	 3
__ehhandler$?GetPriceUnitMan@CUtil@@QAE?AV?$CStringT@DV?$StrTraitMFC_DLL@DV?$ChTraitsCRT@D@ATL@@@@@ATL@@PBD@Z:
  00032	90		 npad	 1
  00033	90		 npad	 1
  00034	8b 54 24 08	 mov	 edx, DWORD PTR [esp+8]
  00038	8d 42 0c	 lea	 eax, DWORD PTR [edx+12]
  0003b	8b 4a e4	 mov	 ecx, DWORD PTR [edx-28]
  0003e	33 c8		 xor	 ecx, eax
  00040	e8 00 00 00 00	 call	 @__security_check_cookie@4
  00045	b8 00 00 00 00	 mov	 eax, OFFSET __ehfuncinfo$?GetPriceUnitMan@CUtil@@QAE?AV?$CStringT@DV?$StrTraitMFC_DLL@DV?$ChTraitsCRT@D@ATL@@@@@ATL@@PBD@Z
  0004a	e9 00 00 00 00	 jmp	 ___CxxFrameHandler3
text$x	ENDS
?GetPriceUnitMan@CUtil@@QAE?AV?$CStringT@DV?$StrTraitMFC_DLL@DV?$ChTraitsCRT@D@ATL@@@@@ATL@@PBD@Z ENDP ; CUtil::GetPriceUnitMan
; Function compile flags: /Ogtp
; File D:\git\src\IBK\IBK_DRFN\ProjSrc\SrcDrfn\Chart\chart_common\Grid\Util.cpp
; File C:\Program Files (x86)\Microsoft Visual Studio\2019\Community\VC\Tools\MSVC\14.29.30133\atlmfc\include\atlsimpstr.h
; File D:\git\src\IBK\IBK_DRFN\ProjSrc\SrcDrfn\Chart\chart_common\Grid\Util.cpp
; File C:\Program Files (x86)\Microsoft Visual Studio\2019\Community\VC\Tools\MSVC\14.29.30133\atlmfc\include\cstringt.h
; File D:\git\src\IBK\IBK_DRFN\ProjSrc\SrcDrfn\Chart\chart_common\Grid\Util.cpp
; File C:\Program Files (x86)\Microsoft Visual Studio\2019\Community\VC\Tools\MSVC\14.29.30133\atlmfc\include\cstringt.h
; File D:\git\src\IBK\IBK_DRFN\ProjSrc\SrcDrfn\Chart\chart_common\Grid\Util.cpp
; File C:\Program Files (x86)\Microsoft Visual Studio\2019\Community\VC\Tools\MSVC\14.29.30133\atlmfc\include\cstringt.h
; File D:\git\src\IBK\IBK_DRFN\ProjSrc\SrcDrfn\Chart\chart_common\Grid\Util.cpp
; File C:\Program Files (x86)\Microsoft Visual Studio\2019\Community\VC\Tools\MSVC\14.29.30133\atlmfc\include\cstringt.h
; File D:\git\src\IBK\IBK_DRFN\ProjSrc\SrcDrfn\Chart\chart_common\Grid\Util.cpp
; File C:\Program Files (x86)\Microsoft Visual Studio\2019\Community\VC\Tools\MSVC\14.29.30133\atlmfc\include\cstringt.h
; File D:\git\src\IBK\IBK_DRFN\ProjSrc\SrcDrfn\Chart\chart_common\Grid\Util.cpp
; File C:\Program Files (x86)\Microsoft Visual Studio\2019\Community\VC\Tools\MSVC\14.29.30133\atlmfc\include\cstringt.h
; File D:\git\src\IBK\IBK_DRFN\ProjSrc\SrcDrfn\Chart\chart_common\Grid\Util.cpp
;	COMDAT ?GetPriceUnit@CUtil@@QAE?AV?$CStringT@DV?$StrTraitMFC_DLL@DV?$ChTraitsCRT@D@ATL@@@@@ATL@@PBD@Z
_TEXT	SEGMENT
$T2 = -28						; size = 4
_szPrice$ = -24						; size = 4
_szTemp$ = -20						; size = 4
_szTemp2$ = -16						; size = 4
__$EHRec$ = -12						; size = 12
___$ReturnUdt$ = 8					; size = 4
$T3 = 12						; size = 4
$T4 = 12						; size = 4
$T5 = 12						; size = 4
$T6 = 12						; size = 4
$T7 = 12						; size = 4
$T8 = 12						; size = 4
$T9 = 12						; size = 4
_pData$ = 12						; size = 4
?GetPriceUnit@CUtil@@QAE?AV?$CStringT@DV?$StrTraitMFC_DLL@DV?$ChTraitsCRT@D@ATL@@@@@ATL@@PBD@Z PROC ; CUtil::GetPriceUnit, COMDAT
; _this$ = ecx

; 470  : {

  00000	55		 push	 ebp
  00001	8b ec		 mov	 ebp, esp
  00003	6a ff		 push	 -1
  00005	68 00 00 00 00	 push	 __ehhandler$?GetPriceUnit@CUtil@@QAE?AV?$CStringT@DV?$StrTraitMFC_DLL@DV?$ChTraitsCRT@D@ATL@@@@@ATL@@PBD@Z
  0000a	64 a1 00 00 00
	00		 mov	 eax, DWORD PTR fs:0
  00010	50		 push	 eax
  00011	83 ec 10	 sub	 esp, 16			; 00000010H
  00014	53		 push	 ebx
  00015	56		 push	 esi
  00016	57		 push	 edi
  00017	a1 00 00 00 00	 mov	 eax, DWORD PTR ___security_cookie
  0001c	33 c5		 xor	 eax, ebp
  0001e	50		 push	 eax
  0001f	8d 45 f4	 lea	 eax, DWORD PTR __$EHRec$[ebp]
  00022	64 a3 00 00 00
	00		 mov	 DWORD PTR fs:0, eax
  00028	8b d9		 mov	 ebx, ecx

; 471  : 
; 472  : 	CString szPrice, szTemp, szTemp2;

  0002a	8d 4d e8	 lea	 ecx, DWORD PTR _szPrice$[ebp]
  0002d	c7 45 e4 00 00
	00 00		 mov	 DWORD PTR $T2[ebp], 0
  00034	ff 15 00 00 00
	00		 call	 DWORD PTR __imp_??0?$CStringT@DV?$StrTraitMFC_DLL@DV?$ChTraitsCRT@D@ATL@@@@@ATL@@QAE@XZ
  0003a	8d 4d ec	 lea	 ecx, DWORD PTR _szTemp$[ebp]
  0003d	c7 45 fc 00 00
	00 00		 mov	 DWORD PTR __$EHRec$[ebp+8], 0
  00044	ff 15 00 00 00
	00		 call	 DWORD PTR __imp_??0?$CStringT@DV?$StrTraitMFC_DLL@DV?$ChTraitsCRT@D@ATL@@@@@ATL@@QAE@XZ
  0004a	8d 4d f0	 lea	 ecx, DWORD PTR _szTemp2$[ebp]
  0004d	ff 15 00 00 00
	00		 call	 DWORD PTR __imp_??0?$CStringT@DV?$StrTraitMFC_DLL@DV?$ChTraitsCRT@D@ATL@@@@@ATL@@QAE@XZ

; 473  : 	int  nLength;
; 474  : 
; 475  : 	szTemp = pData;

  00053	ff 75 0c	 push	 DWORD PTR _pData$[ebp]
  00056	8d 4d ec	 lea	 ecx, DWORD PTR _szTemp$[ebp]
  00059	c6 45 fc 02	 mov	 BYTE PTR __$EHRec$[ebp+8], 2
  0005d	ff 15 00 00 00
	00		 call	 DWORD PTR __imp_??4?$CStringT@DV?$StrTraitMFC_DLL@DV?$ChTraitsCRT@D@ATL@@@@@ATL@@QAEAAV01@PBD@Z

; 105  : 	int nLen = strlen(pData);

  00063	8b 45 ec	 mov	 eax, DWORD PTR _szTemp$[ebp]
  00066	8b c8		 mov	 ecx, eax
  00068	8d 71 01	 lea	 esi, DWORD PTR [ecx+1]
  0006b	0f 1f 44 00 00	 npad	 5
$LL82@GetPriceUn:
  00070	8a 11		 mov	 dl, BYTE PTR [ecx]
  00072	41		 inc	 ecx
  00073	84 d2		 test	 dl, dl
  00075	75 f9		 jne	 SHORT $LL82@GetPriceUn
  00077	2b ce		 sub	 ecx, esi

; 106  : 	int nSameCharCnt = 0;

  00079	33 ff		 xor	 edi, edi

; 107  : 
; 108  : 	for(int i=0;  i<nLen ; i++) 

  0007b	33 d2		 xor	 edx, edx
  0007d	85 c9		 test	 ecx, ecx
  0007f	7e 0f		 jle	 SHORT $LN23@GetPriceUn
$LL24@GetPriceUn:

; 109  : 	{  
; 110  : 		if(pData[i]!=ch) return (char *)&pData[i];

  00081	80 3c 02 30	 cmp	 BYTE PTR [edx+eax], 48	; 00000030H
  00085	8d 34 02	 lea	 esi, DWORD PTR [edx+eax]
  00088	75 13		 jne	 SHORT $LN21@GetPriceUn

; 111  : 		nSameCharCnt++;

  0008a	42		 inc	 edx
  0008b	47		 inc	 edi
  0008c	3b d1		 cmp	 edx, ecx
  0008e	7c f1		 jl	 SHORT $LL24@GetPriceUn
$LN23@GetPriceUn:

; 112  : 	}
; 113  : 
; 114  : 	//같은 길이를 가진 
; 115  : 	if(ch == '0' && nSameCharCnt == nLen)

  00090	3b f9		 cmp	 edi, ecx
  00092	75 07		 jne	 SHORT $LN26@GetPriceUn

; 116  : 	{
; 117  : 		return (char*)&pData[nLen-1] ;

  00094	8d 70 ff	 lea	 esi, DWORD PTR [eax-1]
  00097	03 f1		 add	 esi, ecx
  00099	eb 02		 jmp	 SHORT $LN21@GetPriceUn
$LN26@GetPriceUn:

; 118  : 	}
; 119  : 
; 120  : 	return (char *)pData;

  0009b	8b f0		 mov	 esi, eax
$LN21@GetPriceUn:

; 476  : 
; 477  : 	// 앞의 0 제거
; 478  : 	TCHAR chTemp = '0';
; 479  : 	szTemp2 = RemoveFront(szTemp, chTemp);	

  0009d	56		 push	 esi
  0009e	8d 4d f0	 lea	 ecx, DWORD PTR _szTemp2$[ebp]
  000a1	ff 15 00 00 00
	00		 call	 DWORD PTR __imp_??4?$CStringT@DV?$StrTraitMFC_DLL@DV?$ChTraitsCRT@D@ATL@@@@@ATL@@QAEAAV01@PBD@Z

; 480  : 
; 481  : 	// 콤마 제거
; 482  : 	szTemp2.Remove(',');

  000a7	6a 2c		 push	 44			; 0000002cH
  000a9	8d 4d f0	 lea	 ecx, DWORD PTR _szTemp2$[ebp]
  000ac	ff 15 00 00 00
	00		 call	 DWORD PTR __imp_?Remove@?$CStringT@DV?$StrTraitMFC_DLL@DV?$ChTraitsCRT@D@ATL@@@@@ATL@@QAEHD@Z
; File C:\Program Files (x86)\Microsoft Visual Studio\2019\Community\VC\Tools\MSVC\14.29.30133\atlmfc\include\atlsimpstr.h

; 519  : 		return( GetData()->nDataLength );

  000b2	8b 45 f0	 mov	 eax, DWORD PTR _szTemp2$[ebp]
  000b5	8b 48 f4	 mov	 ecx, DWORD PTR [eax-12]
; File D:\git\src\IBK\IBK_DRFN\ProjSrc\SrcDrfn\Chart\chart_common\Grid\Util.cpp

; 486  : 	if (nLength >= 9)		// 10억이상

  000b8	83 f9 09	 cmp	 ecx, 9
  000bb	0f 8c 8b 00 00
	00		 jl	 $LN2@GetPriceUn

; 487  : 	{
; 488  : 		szTemp2.MakeReverse();

  000c1	8d 4d f0	 lea	 ecx, DWORD PTR _szTemp2$[ebp]
  000c4	ff 15 00 00 00
	00		 call	 DWORD PTR __imp_?MakeReverse@?$CStringT@DV?$StrTraitMFC_DLL@DV?$ChTraitsCRT@D@ATL@@@@@ATL@@QAEAAV12@XZ

; 489  : 		szTemp = szTemp2.Mid(7);

  000ca	6a 07		 push	 7
  000cc	8d 45 0c	 lea	 eax, DWORD PTR $T9[ebp]
  000cf	50		 push	 eax
  000d0	8d 4d f0	 lea	 ecx, DWORD PTR _szTemp2$[ebp]
  000d3	ff 15 00 00 00
	00		 call	 DWORD PTR __imp_?Mid@?$CStringT@DV?$StrTraitMFC_DLL@DV?$ChTraitsCRT@D@ATL@@@@@ATL@@QBE?AV12@H@Z
  000d9	50		 push	 eax
  000da	8d 4d ec	 lea	 ecx, DWORD PTR _szTemp$[ebp]
  000dd	c6 45 fc 03	 mov	 BYTE PTR __$EHRec$[ebp+8], 3
  000e1	ff 15 00 00 00
	00		 call	 DWORD PTR __imp_??4?$CStringT@DV?$StrTraitMFC_DLL@DV?$ChTraitsCRT@D@ATL@@@@@ATL@@QAEAAV01@ABV01@@Z
  000e7	8d 4d 0c	 lea	 ecx, DWORD PTR $T9[ebp]
  000ea	c6 45 fc 02	 mov	 BYTE PTR __$EHRec$[ebp+8], 2
  000ee	ff 15 00 00 00
	00		 call	 DWORD PTR __imp_??1?$CStringT@DV?$StrTraitMFC_DLL@DV?$ChTraitsCRT@D@ATL@@@@@ATL@@QAE@XZ

; 490  : 		szTemp.MakeReverse();

  000f4	8d 4d ec	 lea	 ecx, DWORD PTR _szTemp$[ebp]
  000f7	ff 15 00 00 00
	00		 call	 DWORD PTR __imp_?MakeReverse@?$CStringT@DV?$StrTraitMFC_DLL@DV?$ChTraitsCRT@D@ATL@@@@@ATL@@QAEAAV12@XZ

; 491  : 
; 492  : 		szTemp2 = GetComma(szTemp);

  000fd	ff 75 ec	 push	 DWORD PTR _szTemp$[ebp]
  00100	8d 45 0c	 lea	 eax, DWORD PTR $T8[ebp]
  00103	8b cb		 mov	 ecx, ebx
  00105	50		 push	 eax
  00106	e8 00 00 00 00	 call	 ?GetComma@CUtil@@QAE?AV?$CStringT@DV?$StrTraitMFC_DLL@DV?$ChTraitsCRT@D@ATL@@@@@ATL@@PBD@Z ; CUtil::GetComma
  0010b	50		 push	 eax
  0010c	8d 4d f0	 lea	 ecx, DWORD PTR _szTemp2$[ebp]
  0010f	c6 45 fc 04	 mov	 BYTE PTR __$EHRec$[ebp+8], 4
  00113	ff 15 00 00 00
	00		 call	 DWORD PTR __imp_??4?$CStringT@DV?$StrTraitMFC_DLL@DV?$ChTraitsCRT@D@ATL@@@@@ATL@@QAEAAV01@ABV01@@Z
  00119	8d 4d 0c	 lea	 ecx, DWORD PTR $T8[ebp]
  0011c	ff 15 00 00 00
	00		 call	 DWORD PTR __imp_??1?$CStringT@DV?$StrTraitMFC_DLL@DV?$ChTraitsCRT@D@ATL@@@@@ATL@@QAE@XZ
; File C:\Program Files (x86)\Microsoft Visual Studio\2019\Community\VC\Tools\MSVC\14.29.30133\atlmfc\include\cstringt.h

; 2401 : 		CStringT strResult( str1.GetManager() );

  00122	8d 4d f0	 lea	 ecx, DWORD PTR _szTemp2$[ebp]
; File D:\git\src\IBK\IBK_DRFN\ProjSrc\SrcDrfn\Chart\chart_common\Grid\Util.cpp

; 493  : 		szPrice = szTemp2 + "억원";

  00125	c6 45 fc 05	 mov	 BYTE PTR __$EHRec$[ebp+8], 5
; File C:\Program Files (x86)\Microsoft Visual Studio\2019\Community\VC\Tools\MSVC\14.29.30133\atlmfc\include\cstringt.h

; 2401 : 		CStringT strResult( str1.GetManager() );

  00129	ff 15 00 00 00
	00		 call	 DWORD PTR __imp_?GetManager@?$CStringT@DV?$StrTraitMFC_DLL@DV?$ChTraitsCRT@D@ATL@@@@@ATL@@QBEPAUIAtlStringMgr@2@XZ
  0012f	50		 push	 eax
  00130	8d 4d 0c	 lea	 ecx, DWORD PTR $T7[ebp]
  00133	ff 15 00 00 00
	00		 call	 DWORD PTR __imp_??0?$CStringT@DV?$StrTraitMFC_DLL@DV?$ChTraitsCRT@D@ATL@@@@@ATL@@QAE@PAUIAtlStringMgr@1@@Z

; 2402 : 
; 2403 : 		CThisSimpleString::Concatenate( strResult, str1, str1.GetLength(), psz2, CThisSimpleString::StringLength( psz2 ) );

  00139	6a 04		 push	 4

; 2404 : 
; 2405 : 		return( strResult );

  0013b	c7 45 e4 02 00
	00 00		 mov	 DWORD PTR $T2[ebp], 2
  00142	68 00 00 00 00	 push	 OFFSET ??_C@_04KFBDNGB@?$LO?o?$LP?x@
; File D:\git\src\IBK\IBK_DRFN\ProjSrc\SrcDrfn\Chart\chart_common\Grid\Util.cpp

; 495  : 		return szPrice;

  00147	e9 d2 00 00 00	 jmp	 $LN84@GetPriceUn
$LN2@GetPriceUn:

; 496  : 	}
; 497  : 	else if (nLength >= 4)	// 1만원 이상

  0014c	83 f9 04	 cmp	 ecx, 4
  0014f	0f 8c 88 00 00
	00		 jl	 $LN4@GetPriceUn

; 498  : 	{
; 499  : 		szTemp2.MakeReverse();

  00155	8d 4d f0	 lea	 ecx, DWORD PTR _szTemp2$[ebp]
  00158	ff 15 00 00 00
	00		 call	 DWORD PTR __imp_?MakeReverse@?$CStringT@DV?$StrTraitMFC_DLL@DV?$ChTraitsCRT@D@ATL@@@@@ATL@@QAEAAV12@XZ

; 500  : 		szTemp = szTemp2.Mid(3);

  0015e	6a 03		 push	 3
  00160	8d 45 0c	 lea	 eax, DWORD PTR $T6[ebp]
  00163	50		 push	 eax
  00164	8d 4d f0	 lea	 ecx, DWORD PTR _szTemp2$[ebp]
  00167	ff 15 00 00 00
	00		 call	 DWORD PTR __imp_?Mid@?$CStringT@DV?$StrTraitMFC_DLL@DV?$ChTraitsCRT@D@ATL@@@@@ATL@@QBE?AV12@H@Z
  0016d	50		 push	 eax
  0016e	8d 4d ec	 lea	 ecx, DWORD PTR _szTemp$[ebp]
  00171	c6 45 fc 06	 mov	 BYTE PTR __$EHRec$[ebp+8], 6
  00175	ff 15 00 00 00
	00		 call	 DWORD PTR __imp_??4?$CStringT@DV?$StrTraitMFC_DLL@DV?$ChTraitsCRT@D@ATL@@@@@ATL@@QAEAAV01@ABV01@@Z
  0017b	8d 4d 0c	 lea	 ecx, DWORD PTR $T6[ebp]
  0017e	c6 45 fc 02	 mov	 BYTE PTR __$EHRec$[ebp+8], 2
  00182	ff 15 00 00 00
	00		 call	 DWORD PTR __imp_??1?$CStringT@DV?$StrTraitMFC_DLL@DV?$ChTraitsCRT@D@ATL@@@@@ATL@@QAE@XZ

; 501  : 		szTemp.MakeReverse();

  00188	8d 4d ec	 lea	 ecx, DWORD PTR _szTemp$[ebp]
  0018b	ff 15 00 00 00
	00		 call	 DWORD PTR __imp_?MakeReverse@?$CStringT@DV?$StrTraitMFC_DLL@DV?$ChTraitsCRT@D@ATL@@@@@ATL@@QAEAAV12@XZ

; 502  : 
; 503  : 		szTemp2 = GetComma(szTemp);

  00191	ff 75 ec	 push	 DWORD PTR _szTemp$[ebp]
  00194	8d 45 0c	 lea	 eax, DWORD PTR $T5[ebp]
  00197	8b cb		 mov	 ecx, ebx
  00199	50		 push	 eax
  0019a	e8 00 00 00 00	 call	 ?GetComma@CUtil@@QAE?AV?$CStringT@DV?$StrTraitMFC_DLL@DV?$ChTraitsCRT@D@ATL@@@@@ATL@@PBD@Z ; CUtil::GetComma
  0019f	50		 push	 eax
  001a0	8d 4d f0	 lea	 ecx, DWORD PTR _szTemp2$[ebp]
  001a3	c6 45 fc 07	 mov	 BYTE PTR __$EHRec$[ebp+8], 7
  001a7	ff 15 00 00 00
	00		 call	 DWORD PTR __imp_??4?$CStringT@DV?$StrTraitMFC_DLL@DV?$ChTraitsCRT@D@ATL@@@@@ATL@@QAEAAV01@ABV01@@Z
  001ad	8d 4d 0c	 lea	 ecx, DWORD PTR $T5[ebp]
  001b0	ff 15 00 00 00
	00		 call	 DWORD PTR __imp_??1?$CStringT@DV?$StrTraitMFC_DLL@DV?$ChTraitsCRT@D@ATL@@@@@ATL@@QAE@XZ
; File C:\Program Files (x86)\Microsoft Visual Studio\2019\Community\VC\Tools\MSVC\14.29.30133\atlmfc\include\cstringt.h

; 2401 : 		CStringT strResult( str1.GetManager() );

  001b6	8d 4d f0	 lea	 ecx, DWORD PTR _szTemp2$[ebp]
; File D:\git\src\IBK\IBK_DRFN\ProjSrc\SrcDrfn\Chart\chart_common\Grid\Util.cpp

; 504  : 		szPrice = szTemp2 + "만원";

  001b9	c6 45 fc 08	 mov	 BYTE PTR __$EHRec$[ebp+8], 8
; File C:\Program Files (x86)\Microsoft Visual Studio\2019\Community\VC\Tools\MSVC\14.29.30133\atlmfc\include\cstringt.h

; 2401 : 		CStringT strResult( str1.GetManager() );

  001bd	ff 15 00 00 00
	00		 call	 DWORD PTR __imp_?GetManager@?$CStringT@DV?$StrTraitMFC_DLL@DV?$ChTraitsCRT@D@ATL@@@@@ATL@@QBEPAUIAtlStringMgr@2@XZ
  001c3	50		 push	 eax
  001c4	8d 4d 0c	 lea	 ecx, DWORD PTR $T4[ebp]
  001c7	ff 15 00 00 00
	00		 call	 DWORD PTR __imp_??0?$CStringT@DV?$StrTraitMFC_DLL@DV?$ChTraitsCRT@D@ATL@@@@@ATL@@QAE@PAUIAtlStringMgr@1@@Z

; 2402 : 
; 2403 : 		CThisSimpleString::Concatenate( strResult, str1, str1.GetLength(), psz2, CThisSimpleString::StringLength( psz2 ) );

  001cd	6a 04		 push	 4

; 2404 : 
; 2405 : 		return( strResult );

  001cf	c7 45 e4 04 00
	00 00		 mov	 DWORD PTR $T2[ebp], 4
  001d6	68 00 00 00 00	 push	 OFFSET ??_C@_04NDMLPPNK@?$LI?$LI?$LP?x@
; File D:\git\src\IBK\IBK_DRFN\ProjSrc\SrcDrfn\Chart\chart_common\Grid\Util.cpp

; 506  : 		return szPrice;

  001db	eb 41		 jmp	 SHORT $LN84@GetPriceUn
$LN4@GetPriceUn:

; 507  : 	}
; 508  : 
; 509  : 	if (atoi(szTemp2) == 0)

  001dd	50		 push	 eax
  001de	ff 15 00 00 00
	00		 call	 DWORD PTR __imp__atoi
  001e4	83 c4 04	 add	 esp, 4
  001e7	85 c0		 test	 eax, eax
  001e9	75 0e		 jne	 SHORT $LN5@GetPriceUn

; 510  : 		szTemp2 = "";

  001eb	68 00 00 00 00	 push	 OFFSET ??_C@_00CNPNBAHC@@
  001f0	8d 4d f0	 lea	 ecx, DWORD PTR _szTemp2$[ebp]
  001f3	ff 15 00 00 00
	00		 call	 DWORD PTR __imp_??4?$CStringT@DV?$StrTraitMFC_DLL@DV?$ChTraitsCRT@D@ATL@@@@@ATL@@QAEAAV01@PBD@Z
$LN5@GetPriceUn:
; File C:\Program Files (x86)\Microsoft Visual Studio\2019\Community\VC\Tools\MSVC\14.29.30133\atlmfc\include\cstringt.h

; 2401 : 		CStringT strResult( str1.GetManager() );

  001f9	8d 4d f0	 lea	 ecx, DWORD PTR _szTemp2$[ebp]
; File D:\git\src\IBK\IBK_DRFN\ProjSrc\SrcDrfn\Chart\chart_common\Grid\Util.cpp

; 511  : 	szPrice = szTemp2 + "십원";

  001fc	c6 45 fc 09	 mov	 BYTE PTR __$EHRec$[ebp+8], 9
; File C:\Program Files (x86)\Microsoft Visual Studio\2019\Community\VC\Tools\MSVC\14.29.30133\atlmfc\include\cstringt.h

; 2401 : 		CStringT strResult( str1.GetManager() );

  00200	ff 15 00 00 00
	00		 call	 DWORD PTR __imp_?GetManager@?$CStringT@DV?$StrTraitMFC_DLL@DV?$ChTraitsCRT@D@ATL@@@@@ATL@@QBEPAUIAtlStringMgr@2@XZ
  00206	50		 push	 eax
  00207	8d 4d 0c	 lea	 ecx, DWORD PTR $T3[ebp]
  0020a	ff 15 00 00 00
	00		 call	 DWORD PTR __imp_??0?$CStringT@DV?$StrTraitMFC_DLL@DV?$ChTraitsCRT@D@ATL@@@@@ATL@@QAE@PAUIAtlStringMgr@1@@Z

; 2402 : 
; 2403 : 		CThisSimpleString::Concatenate( strResult, str1, str1.GetLength(), psz2, CThisSimpleString::StringLength( psz2 ) );

  00210	6a 04		 push	 4

; 2404 : 
; 2405 : 		return( strResult );

  00212	c7 45 e4 08 00
	00 00		 mov	 DWORD PTR $T2[ebp], 8
  00219	68 00 00 00 00	 push	 OFFSET ??_C@_04NKBNBILN@?$LN?J?$LP?x@
$LN84@GetPriceUn:
; File D:\git\src\IBK\IBK_DRFN\ProjSrc\SrcDrfn\Chart\chart_common\Grid\Util.cpp

; 514  : }

  0021e	8b 45 f0	 mov	 eax, DWORD PTR _szTemp2$[ebp]
  00221	ff 70 f4	 push	 DWORD PTR [eax-12]
  00224	50		 push	 eax
  00225	8d 45 0c	 lea	 eax, DWORD PTR $T3[ebp]
  00228	50		 push	 eax
  00229	ff 15 00 00 00
	00		 call	 DWORD PTR __imp_?Concatenate@?$CSimpleStringT@D$00@ATL@@KAXAAV12@PBDH1H@Z
  0022f	83 c4 14	 add	 esp, 20			; 00000014H
  00232	8d 45 0c	 lea	 eax, DWORD PTR $T3[ebp]
  00235	8d 4d e8	 lea	 ecx, DWORD PTR _szPrice$[ebp]
  00238	50		 push	 eax
  00239	ff 15 00 00 00
	00		 call	 DWORD PTR __imp_??4?$CStringT@DV?$StrTraitMFC_DLL@DV?$ChTraitsCRT@D@ATL@@@@@ATL@@QAEAAV01@ABV01@@Z
  0023f	8d 4d 0c	 lea	 ecx, DWORD PTR $T3[ebp]
  00242	c6 45 fc 02	 mov	 BYTE PTR __$EHRec$[ebp+8], 2
  00246	ff 15 00 00 00
	00		 call	 DWORD PTR __imp_??1?$CStringT@DV?$StrTraitMFC_DLL@DV?$ChTraitsCRT@D@ATL@@@@@ATL@@QAE@XZ
  0024c	8b 4d 08	 mov	 ecx, DWORD PTR ___$ReturnUdt$[ebp]
  0024f	8d 45 e8	 lea	 eax, DWORD PTR _szPrice$[ebp]
  00252	50		 push	 eax
  00253	ff 15 00 00 00
	00		 call	 DWORD PTR __imp_??0?$CStringT@DV?$StrTraitMFC_DLL@DV?$ChTraitsCRT@D@ATL@@@@@ATL@@QAE@ABV01@@Z
  00259	8d 4d f0	 lea	 ecx, DWORD PTR _szTemp2$[ebp]
  0025c	ff 15 00 00 00
	00		 call	 DWORD PTR __imp_??1?$CStringT@DV?$StrTraitMFC_DLL@DV?$ChTraitsCRT@D@ATL@@@@@ATL@@QAE@XZ
  00262	8d 4d ec	 lea	 ecx, DWORD PTR _szTemp$[ebp]
  00265	ff 15 00 00 00
	00		 call	 DWORD PTR __imp_??1?$CStringT@DV?$StrTraitMFC_DLL@DV?$ChTraitsCRT@D@ATL@@@@@ATL@@QAE@XZ
  0026b	8d 4d e8	 lea	 ecx, DWORD PTR _szPrice$[ebp]
  0026e	ff 15 00 00 00
	00		 call	 DWORD PTR __imp_??1?$CStringT@DV?$StrTraitMFC_DLL@DV?$ChTraitsCRT@D@ATL@@@@@ATL@@QAE@XZ
  00274	8b 45 08	 mov	 eax, DWORD PTR ___$ReturnUdt$[ebp]
  00277	8b 4d f4	 mov	 ecx, DWORD PTR __$EHRec$[ebp]
  0027a	64 89 0d 00 00
	00 00		 mov	 DWORD PTR fs:0, ecx
  00281	59		 pop	 ecx
  00282	5f		 pop	 edi
  00283	5e		 pop	 esi
  00284	5b		 pop	 ebx
  00285	8b e5		 mov	 esp, ebp
  00287	5d		 pop	 ebp
  00288	c2 08 00	 ret	 8
_TEXT	ENDS
;	COMDAT text$x
text$x	SEGMENT
__unwindfunclet$?GetPriceUnit@CUtil@@QAE?AV?$CStringT@DV?$StrTraitMFC_DLL@DV?$ChTraitsCRT@D@ATL@@@@@ATL@@PBD@Z$0:
  00000	8d 4d e8	 lea	 ecx, DWORD PTR _szPrice$[ebp]
  00003	ff 25 00 00 00
	00		 jmp	 DWORD PTR __imp_??1?$CStringT@DV?$StrTraitMFC_DLL@DV?$ChTraitsCRT@D@ATL@@@@@ATL@@QAE@XZ
__unwindfunclet$?GetPriceUnit@CUtil@@QAE?AV?$CStringT@DV?$StrTraitMFC_DLL@DV?$ChTraitsCRT@D@ATL@@@@@ATL@@PBD@Z$1:
  00009	8d 4d ec	 lea	 ecx, DWORD PTR _szTemp$[ebp]
  0000c	ff 25 00 00 00
	00		 jmp	 DWORD PTR __imp_??1?$CStringT@DV?$StrTraitMFC_DLL@DV?$ChTraitsCRT@D@ATL@@@@@ATL@@QAE@XZ
__unwindfunclet$?GetPriceUnit@CUtil@@QAE?AV?$CStringT@DV?$StrTraitMFC_DLL@DV?$ChTraitsCRT@D@ATL@@@@@ATL@@PBD@Z$2:
  00012	8d 4d f0	 lea	 ecx, DWORD PTR _szTemp2$[ebp]
  00015	ff 25 00 00 00
	00		 jmp	 DWORD PTR __imp_??1?$CStringT@DV?$StrTraitMFC_DLL@DV?$ChTraitsCRT@D@ATL@@@@@ATL@@QAE@XZ
__unwindfunclet$?GetPriceUnit@CUtil@@QAE?AV?$CStringT@DV?$StrTraitMFC_DLL@DV?$ChTraitsCRT@D@ATL@@@@@ATL@@PBD@Z$3:
  0001b	8d 4d 0c	 lea	 ecx, DWORD PTR $T9[ebp]
  0001e	ff 25 00 00 00
	00		 jmp	 DWORD PTR __imp_??1?$CStringT@DV?$StrTraitMFC_DLL@DV?$ChTraitsCRT@D@ATL@@@@@ATL@@QAE@XZ
__unwindfunclet$?GetPriceUnit@CUtil@@QAE?AV?$CStringT@DV?$StrTraitMFC_DLL@DV?$ChTraitsCRT@D@ATL@@@@@ATL@@PBD@Z$4:
  00024	8d 4d 0c	 lea	 ecx, DWORD PTR $T8[ebp]
  00027	ff 25 00 00 00
	00		 jmp	 DWORD PTR __imp_??1?$CStringT@DV?$StrTraitMFC_DLL@DV?$ChTraitsCRT@D@ATL@@@@@ATL@@QAE@XZ
__unwindfunclet$?GetPriceUnit@CUtil@@QAE?AV?$CStringT@DV?$StrTraitMFC_DLL@DV?$ChTraitsCRT@D@ATL@@@@@ATL@@PBD@Z$11:
  0002d	8b 45 e4	 mov	 eax, DWORD PTR $T2[ebp]
  00030	83 e0 02	 and	 eax, 2
  00033	0f 84 0d 00 00
	00		 je	 $LN37@GetPriceUn
  00039	83 65 e4 fd	 and	 DWORD PTR $T2[ebp], -3	; fffffffdH
  0003d	8d 4d 0c	 lea	 ecx, DWORD PTR $T7[ebp]
  00040	ff 25 00 00 00
	00		 jmp	 DWORD PTR __imp_??1?$CStringT@DV?$StrTraitMFC_DLL@DV?$ChTraitsCRT@D@ATL@@@@@ATL@@QAE@XZ
$LN37@GetPriceUn:
  00046	c3		 ret	 0
__unwindfunclet$?GetPriceUnit@CUtil@@QAE?AV?$CStringT@DV?$StrTraitMFC_DLL@DV?$ChTraitsCRT@D@ATL@@@@@ATL@@PBD@Z$7:
  00047	8d 4d 0c	 lea	 ecx, DWORD PTR $T6[ebp]
  0004a	ff 25 00 00 00
	00		 jmp	 DWORD PTR __imp_??1?$CStringT@DV?$StrTraitMFC_DLL@DV?$ChTraitsCRT@D@ATL@@@@@ATL@@QAE@XZ
__unwindfunclet$?GetPriceUnit@CUtil@@QAE?AV?$CStringT@DV?$StrTraitMFC_DLL@DV?$ChTraitsCRT@D@ATL@@@@@ATL@@PBD@Z$8:
  00050	8d 4d 0c	 lea	 ecx, DWORD PTR $T5[ebp]
  00053	ff 25 00 00 00
	00		 jmp	 DWORD PTR __imp_??1?$CStringT@DV?$StrTraitMFC_DLL@DV?$ChTraitsCRT@D@ATL@@@@@ATL@@QAE@XZ
__unwindfunclet$?GetPriceUnit@CUtil@@QAE?AV?$CStringT@DV?$StrTraitMFC_DLL@DV?$ChTraitsCRT@D@ATL@@@@@ATL@@PBD@Z$12:
  00059	8b 45 e4	 mov	 eax, DWORD PTR $T2[ebp]
  0005c	83 e0 04	 and	 eax, 4
  0005f	0f 84 0d 00 00
	00		 je	 $LN52@GetPriceUn
  00065	83 65 e4 fb	 and	 DWORD PTR $T2[ebp], -5	; fffffffbH
  00069	8d 4d 0c	 lea	 ecx, DWORD PTR $T4[ebp]
  0006c	ff 25 00 00 00
	00		 jmp	 DWORD PTR __imp_??1?$CStringT@DV?$StrTraitMFC_DLL@DV?$ChTraitsCRT@D@ATL@@@@@ATL@@QAE@XZ
$LN52@GetPriceUn:
  00072	c3		 ret	 0
__unwindfunclet$?GetPriceUnit@CUtil@@QAE?AV?$CStringT@DV?$StrTraitMFC_DLL@DV?$ChTraitsCRT@D@ATL@@@@@ATL@@PBD@Z$13:
  00073	8b 45 e4	 mov	 eax, DWORD PTR $T2[ebp]
  00076	83 e0 08	 and	 eax, 8
  00079	0f 84 0d 00 00
	00		 je	 $LN67@GetPriceUn
  0007f	83 65 e4 f7	 and	 DWORD PTR $T2[ebp], -9	; fffffff7H
  00083	8d 4d 0c	 lea	 ecx, DWORD PTR $T3[ebp]
  00086	ff 25 00 00 00
	00		 jmp	 DWORD PTR __imp_??1?$CStringT@DV?$StrTraitMFC_DLL@DV?$ChTraitsCRT@D@ATL@@@@@ATL@@QAE@XZ
$LN67@GetPriceUn:
  0008c	c3		 ret	 0
  0008d	cc		 int	 3
  0008e	cc		 int	 3
  0008f	cc		 int	 3
  00090	cc		 int	 3
  00091	cc		 int	 3
__ehhandler$?GetPriceUnit@CUtil@@QAE?AV?$CStringT@DV?$StrTraitMFC_DLL@DV?$ChTraitsCRT@D@ATL@@@@@ATL@@PBD@Z:
  00092	90		 npad	 1
  00093	90		 npad	 1
  00094	8b 54 24 08	 mov	 edx, DWORD PTR [esp+8]
  00098	8d 42 0c	 lea	 eax, DWORD PTR [edx+12]
  0009b	8b 4a e0	 mov	 ecx, DWORD PTR [edx-32]
  0009e	33 c8		 xor	 ecx, eax
  000a0	e8 00 00 00 00	 call	 @__security_check_cookie@4
  000a5	b8 00 00 00 00	 mov	 eax, OFFSET __ehfuncinfo$?GetPriceUnit@CUtil@@QAE?AV?$CStringT@DV?$StrTraitMFC_DLL@DV?$ChTraitsCRT@D@ATL@@@@@ATL@@PBD@Z
  000aa	e9 00 00 00 00	 jmp	 ___CxxFrameHandler3
text$x	ENDS
?GetPriceUnit@CUtil@@QAE?AV?$CStringT@DV?$StrTraitMFC_DLL@DV?$ChTraitsCRT@D@ATL@@@@@ATL@@PBD@Z ENDP ; CUtil::GetPriceUnit
; Function compile flags: /Ogtp
; File D:\git\src\IBK\IBK_DRFN\ProjSrc\SrcDrfn\Chart\chart_common\Grid\Util.cpp
;	COMDAT ?RemoveChar@CUtil@@QAE?AV?$CStringT@DV?$StrTraitMFC_DLL@DV?$ChTraitsCRT@D@ATL@@@@@ATL@@PBDD@Z
_TEXT	SEGMENT
$T2 = -16						; size = 4
__$EHRec$ = -12						; size = 12
___$ReturnUdt$ = 8					; size = 4
_pData$ = 12						; size = 4
_ch$ = 16						; size = 1
?RemoveChar@CUtil@@QAE?AV?$CStringT@DV?$StrTraitMFC_DLL@DV?$ChTraitsCRT@D@ATL@@@@@ATL@@PBDD@Z PROC ; CUtil::RemoveChar, COMDAT
; _this$ = ecx

; 301  : {

  00000	55		 push	 ebp
  00001	8b ec		 mov	 ebp, esp
  00003	6a ff		 push	 -1
  00005	68 00 00 00 00	 push	 __ehhandler$?RemoveChar@CUtil@@QAE?AV?$CStringT@DV?$StrTraitMFC_DLL@DV?$ChTraitsCRT@D@ATL@@@@@ATL@@PBDD@Z
  0000a	64 a1 00 00 00
	00		 mov	 eax, DWORD PTR fs:0
  00010	50		 push	 eax
  00011	51		 push	 ecx
  00012	53		 push	 ebx
  00013	56		 push	 esi
  00014	57		 push	 edi
  00015	a1 00 00 00 00	 mov	 eax, DWORD PTR ___security_cookie
  0001a	33 c5		 xor	 eax, ebp
  0001c	50		 push	 eax
  0001d	8d 45 f4	 lea	 eax, DWORD PTR __$EHRec$[ebp]
  00020	64 a3 00 00 00
	00		 mov	 DWORD PTR fs:0, eax
  00026	c7 45 f0 00 00
	00 00		 mov	 DWORD PTR $T2[ebp], 0

; 302  : 	CString szNew;

  0002d	8b 7d 08	 mov	 edi, DWORD PTR ___$ReturnUdt$[ebp]
  00030	8b cf		 mov	 ecx, edi
  00032	ff 15 00 00 00
	00		 call	 DWORD PTR __imp_??0?$CStringT@DV?$StrTraitMFC_DLL@DV?$ChTraitsCRT@D@ATL@@@@@ATL@@QAE@XZ

; 306  : 
; 307  : 	return szNew;

  00038	8b 75 0c	 mov	 esi, DWORD PTR _pData$[ebp]
  0003b	c7 45 fc 00 00
	00 00		 mov	 DWORD PTR __$EHRec$[ebp+8], 0
  00042	c7 45 f0 01 00
	00 00		 mov	 DWORD PTR $T2[ebp], 1
  00049	8a 06		 mov	 al, BYTE PTR [esi]
  0004b	84 c0		 test	 al, al
  0004d	74 18		 je	 SHORT $LN13@RemoveChar

; 302  : 	CString szNew;

  0004f	8a 5d 10	 mov	 bl, BYTE PTR _ch$[ebp]
$LL4@RemoveChar:

; 305  : 		if((pData[i])!=ch) szNew += pData[i];

  00052	3a c3		 cmp	 al, bl
  00054	74 09		 je	 SHORT $LN2@RemoveChar
  00056	50		 push	 eax
  00057	8b cf		 mov	 ecx, edi
  00059	ff 15 00 00 00
	00		 call	 DWORD PTR __imp_??Y?$CStringT@DV?$StrTraitMFC_DLL@DV?$ChTraitsCRT@D@ATL@@@@@ATL@@QAEAAV01@D@Z
$LN2@RemoveChar:

; 303  : 
; 304  : 	for( int i=0; *(pData+i); i++)

  0005f	8a 46 01	 mov	 al, BYTE PTR [esi+1]
  00062	46		 inc	 esi
  00063	84 c0		 test	 al, al
  00065	75 eb		 jne	 SHORT $LL4@RemoveChar
$LN13@RemoveChar:

; 308  : }

  00067	8b c7		 mov	 eax, edi
  00069	8b 4d f4	 mov	 ecx, DWORD PTR __$EHRec$[ebp]
  0006c	64 89 0d 00 00
	00 00		 mov	 DWORD PTR fs:0, ecx
  00073	59		 pop	 ecx
  00074	5f		 pop	 edi
  00075	5e		 pop	 esi
  00076	5b		 pop	 ebx
  00077	8b e5		 mov	 esp, ebp
  00079	5d		 pop	 ebp
  0007a	c2 0c 00	 ret	 12			; 0000000cH
_TEXT	ENDS
;	COMDAT text$x
text$x	SEGMENT
__unwindfunclet$?RemoveChar@CUtil@@QAE?AV?$CStringT@DV?$StrTraitMFC_DLL@DV?$ChTraitsCRT@D@ATL@@@@@ATL@@PBDD@Z$0:
  00000	8b 45 f0	 mov	 eax, DWORD PTR $T2[ebp]
  00003	83 e0 01	 and	 eax, 1
  00006	0f 84 0d 00 00
	00		 je	 $LN8@RemoveChar
  0000c	83 65 f0 fe	 and	 DWORD PTR $T2[ebp], -2	; fffffffeH
  00010	8b 4d 08	 mov	 ecx, DWORD PTR ___$ReturnUdt$[ebp]
  00013	ff 25 00 00 00
	00		 jmp	 DWORD PTR __imp_??1?$CStringT@DV?$StrTraitMFC_DLL@DV?$ChTraitsCRT@D@ATL@@@@@ATL@@QAE@XZ
$LN8@RemoveChar:
  00019	c3		 ret	 0
  0001a	cc		 int	 3
  0001b	cc		 int	 3
  0001c	cc		 int	 3
  0001d	cc		 int	 3
  0001e	cc		 int	 3
__ehhandler$?RemoveChar@CUtil@@QAE?AV?$CStringT@DV?$StrTraitMFC_DLL@DV?$ChTraitsCRT@D@ATL@@@@@ATL@@PBDD@Z:
  0001f	90		 npad	 1
  00020	90		 npad	 1
  00021	8b 54 24 08	 mov	 edx, DWORD PTR [esp+8]
  00025	8d 42 0c	 lea	 eax, DWORD PTR [edx+12]
  00028	8b 4a ec	 mov	 ecx, DWORD PTR [edx-20]
  0002b	33 c8		 xor	 ecx, eax
  0002d	e8 00 00 00 00	 call	 @__security_check_cookie@4
  00032	b8 00 00 00 00	 mov	 eax, OFFSET __ehfuncinfo$?RemoveChar@CUtil@@QAE?AV?$CStringT@DV?$StrTraitMFC_DLL@DV?$ChTraitsCRT@D@ATL@@@@@ATL@@PBDD@Z
  00037	e9 00 00 00 00	 jmp	 ___CxxFrameHandler3
text$x	ENDS
?RemoveChar@CUtil@@QAE?AV?$CStringT@DV?$StrTraitMFC_DLL@DV?$ChTraitsCRT@D@ATL@@@@@ATL@@PBDD@Z ENDP ; CUtil::RemoveChar
; Function compile flags: /Ogtp
; File D:\git\src\IBK\IBK_DRFN\ProjSrc\SrcDrfn\Chart\chart_common\Grid\Util.cpp
;	COMDAT ?SetLengthString@CUtil@@QAE?AV?$CStringT@DV?$StrTraitMFC_DLL@DV?$ChTraitsCRT@D@ATL@@@@@ATL@@PBDH@Z
_TEXT	SEGMENT
$T2 = -16						; size = 4
__$EHRec$ = -12						; size = 12
___$ReturnUdt$ = 8					; size = 4
_pData$ = 12						; size = 4
_nCnt$ = 16						; size = 4
?SetLengthString@CUtil@@QAE?AV?$CStringT@DV?$StrTraitMFC_DLL@DV?$ChTraitsCRT@D@ATL@@@@@ATL@@PBDH@Z PROC ; CUtil::SetLengthString, COMDAT
; _this$ = ecx

; 293  : {

  00000	55		 push	 ebp
  00001	8b ec		 mov	 ebp, esp
  00003	6a ff		 push	 -1
  00005	68 00 00 00 00	 push	 __ehhandler$?SetLengthString@CUtil@@QAE?AV?$CStringT@DV?$StrTraitMFC_DLL@DV?$ChTraitsCRT@D@ATL@@@@@ATL@@PBDH@Z
  0000a	64 a1 00 00 00
	00		 mov	 eax, DWORD PTR fs:0
  00010	50		 push	 eax
  00011	51		 push	 ecx
  00012	56		 push	 esi
  00013	a1 00 00 00 00	 mov	 eax, DWORD PTR ___security_cookie
  00018	33 c5		 xor	 eax, ebp
  0001a	50		 push	 eax
  0001b	8d 45 f4	 lea	 eax, DWORD PTR __$EHRec$[ebp]
  0001e	64 a3 00 00 00
	00		 mov	 DWORD PTR fs:0, eax
  00024	c7 45 f0 00 00
	00 00		 mov	 DWORD PTR $T2[ebp], 0

; 294  : 	CString strReturn;

  0002b	8b 75 08	 mov	 esi, DWORD PTR ___$ReturnUdt$[ebp]
  0002e	8b ce		 mov	 ecx, esi
  00030	ff 15 00 00 00
	00		 call	 DWORD PTR __imp_??0?$CStringT@DV?$StrTraitMFC_DLL@DV?$ChTraitsCRT@D@ATL@@@@@ATL@@QAE@XZ

; 295  : 	strReturn.Format("%-*.*s",nCnt,nCnt,pData);
; 296  : 	return strReturn;

  00036	ff 75 0c	 push	 DWORD PTR _pData$[ebp]
  00039	8b 4d 10	 mov	 ecx, DWORD PTR _nCnt$[ebp]
  0003c	51		 push	 ecx
  0003d	51		 push	 ecx
  0003e	68 00 00 00 00	 push	 OFFSET ??_C@_06LOHACGPJ@?$CF?9?$CK?4?$CKs@
  00043	56		 push	 esi
  00044	c7 45 fc 00 00
	00 00		 mov	 DWORD PTR __$EHRec$[ebp+8], 0
  0004b	c7 45 f0 01 00
	00 00		 mov	 DWORD PTR $T2[ebp], 1
  00052	ff 15 00 00 00
	00		 call	 DWORD PTR __imp_?Format@?$CStringT@DV?$StrTraitMFC_DLL@DV?$ChTraitsCRT@D@ATL@@@@@ATL@@QAAXPBDZZ
  00058	83 c4 14	 add	 esp, 20			; 00000014H
  0005b	8b c6		 mov	 eax, esi

; 297  : 	
; 298  : }

  0005d	8b 4d f4	 mov	 ecx, DWORD PTR __$EHRec$[ebp]
  00060	64 89 0d 00 00
	00 00		 mov	 DWORD PTR fs:0, ecx
  00067	59		 pop	 ecx
  00068	5e		 pop	 esi
  00069	8b e5		 mov	 esp, ebp
  0006b	5d		 pop	 ebp
  0006c	c2 0c 00	 ret	 12			; 0000000cH
_TEXT	ENDS
;	COMDAT text$x
text$x	SEGMENT
__unwindfunclet$?SetLengthString@CUtil@@QAE?AV?$CStringT@DV?$StrTraitMFC_DLL@DV?$ChTraitsCRT@D@ATL@@@@@ATL@@PBDH@Z$0:
  00000	8b 45 f0	 mov	 eax, DWORD PTR $T2[ebp]
  00003	83 e0 01	 and	 eax, 1
  00006	0f 84 0d 00 00
	00		 je	 $LN4@SetLengthS
  0000c	83 65 f0 fe	 and	 DWORD PTR $T2[ebp], -2	; fffffffeH
  00010	8b 4d 08	 mov	 ecx, DWORD PTR ___$ReturnUdt$[ebp]
  00013	ff 25 00 00 00
	00		 jmp	 DWORD PTR __imp_??1?$CStringT@DV?$StrTraitMFC_DLL@DV?$ChTraitsCRT@D@ATL@@@@@ATL@@QAE@XZ
$LN4@SetLengthS:
  00019	c3		 ret	 0
  0001a	cc		 int	 3
  0001b	cc		 int	 3
  0001c	cc		 int	 3
  0001d	cc		 int	 3
  0001e	cc		 int	 3
__ehhandler$?SetLengthString@CUtil@@QAE?AV?$CStringT@DV?$StrTraitMFC_DLL@DV?$ChTraitsCRT@D@ATL@@@@@ATL@@PBDH@Z:
  0001f	90		 npad	 1
  00020	90		 npad	 1
  00021	8b 54 24 08	 mov	 edx, DWORD PTR [esp+8]
  00025	8d 42 0c	 lea	 eax, DWORD PTR [edx+12]
  00028	8b 4a f4	 mov	 ecx, DWORD PTR [edx-12]
  0002b	33 c8		 xor	 ecx, eax
  0002d	e8 00 00 00 00	 call	 @__security_check_cookie@4
  00032	b8 00 00 00 00	 mov	 eax, OFFSET __ehfuncinfo$?SetLengthString@CUtil@@QAE?AV?$CStringT@DV?$StrTraitMFC_DLL@DV?$ChTraitsCRT@D@ATL@@@@@ATL@@PBDH@Z
  00037	e9 00 00 00 00	 jmp	 ___CxxFrameHandler3
text$x	ENDS
?SetLengthString@CUtil@@QAE?AV?$CStringT@DV?$StrTraitMFC_DLL@DV?$ChTraitsCRT@D@ATL@@@@@ATL@@PBDH@Z ENDP ; CUtil::SetLengthString
; Function compile flags: /Ogtp
; File D:\git\src\IBK\IBK_DRFN\ProjSrc\SrcDrfn\Chart\chart_common\Grid\Util.cpp
;	COMDAT ?GetMakeText@CUtil@@QAE?AV?$CStringT@DV?$StrTraitMFC_DLL@DV?$ChTraitsCRT@D@ATL@@@@@ATL@@DH@Z
_TEXT	SEGMENT
$T2 = -16						; size = 4
__$EHRec$ = -12						; size = 12
___$ReturnUdt$ = 8					; size = 4
_ch$ = 12						; size = 1
_nCnt$ = 16						; size = 4
?GetMakeText@CUtil@@QAE?AV?$CStringT@DV?$StrTraitMFC_DLL@DV?$ChTraitsCRT@D@ATL@@@@@ATL@@DH@Z PROC ; CUtil::GetMakeText, COMDAT
; _this$ = ecx

; 285  : {

  00000	55		 push	 ebp
  00001	8b ec		 mov	 ebp, esp
  00003	6a ff		 push	 -1
  00005	68 00 00 00 00	 push	 __ehhandler$?GetMakeText@CUtil@@QAE?AV?$CStringT@DV?$StrTraitMFC_DLL@DV?$ChTraitsCRT@D@ATL@@@@@ATL@@DH@Z
  0000a	64 a1 00 00 00
	00		 mov	 eax, DWORD PTR fs:0
  00010	50		 push	 eax
  00011	51		 push	 ecx
  00012	53		 push	 ebx
  00013	56		 push	 esi
  00014	57		 push	 edi
  00015	a1 00 00 00 00	 mov	 eax, DWORD PTR ___security_cookie
  0001a	33 c5		 xor	 eax, ebp
  0001c	50		 push	 eax
  0001d	8d 45 f4	 lea	 eax, DWORD PTR __$EHRec$[ebp]
  00020	64 a3 00 00 00
	00		 mov	 DWORD PTR fs:0, eax
  00026	c7 45 f0 00 00
	00 00		 mov	 DWORD PTR $T2[ebp], 0

; 286  : 	CString szRet;

  0002d	8b 7d 08	 mov	 edi, DWORD PTR ___$ReturnUdt$[ebp]
  00030	8b cf		 mov	 ecx, edi
  00032	ff 15 00 00 00
	00		 call	 DWORD PTR __imp_??0?$CStringT@DV?$StrTraitMFC_DLL@DV?$ChTraitsCRT@D@ATL@@@@@ATL@@QAE@XZ

; 289  : 	return szRet;

  00038	8b 75 10	 mov	 esi, DWORD PTR _nCnt$[ebp]
  0003b	c7 45 fc 00 00
	00 00		 mov	 DWORD PTR __$EHRec$[ebp+8], 0
  00042	c7 45 f0 01 00
	00 00		 mov	 DWORD PTR $T2[ebp], 1
  00049	85 f6		 test	 esi, esi
  0004b	7e 11		 jle	 SHORT $LN12@GetMakeTex

; 286  : 	CString szRet;

  0004d	8b 5d 0c	 mov	 ebx, DWORD PTR _ch$[ebp]
$LL4@GetMakeTex:

; 287  : 	for(int j=0; j<nCnt; j++)	
; 288  : 		szRet += ch ;

  00050	53		 push	 ebx
  00051	8b cf		 mov	 ecx, edi
  00053	ff 15 00 00 00
	00		 call	 DWORD PTR __imp_??Y?$CStringT@DV?$StrTraitMFC_DLL@DV?$ChTraitsCRT@D@ATL@@@@@ATL@@QAEAAV01@D@Z
  00059	83 ee 01	 sub	 esi, 1
  0005c	75 f2		 jne	 SHORT $LL4@GetMakeTex
$LN12@GetMakeTex:

; 290  : }

  0005e	8b c7		 mov	 eax, edi
  00060	8b 4d f4	 mov	 ecx, DWORD PTR __$EHRec$[ebp]
  00063	64 89 0d 00 00
	00 00		 mov	 DWORD PTR fs:0, ecx
  0006a	59		 pop	 ecx
  0006b	5f		 pop	 edi
  0006c	5e		 pop	 esi
  0006d	5b		 pop	 ebx
  0006e	8b e5		 mov	 esp, ebp
  00070	5d		 pop	 ebp
  00071	c2 0c 00	 ret	 12			; 0000000cH
_TEXT	ENDS
;	COMDAT text$x
text$x	SEGMENT
__unwindfunclet$?GetMakeText@CUtil@@QAE?AV?$CStringT@DV?$StrTraitMFC_DLL@DV?$ChTraitsCRT@D@ATL@@@@@ATL@@DH@Z$0:
  00000	8b 45 f0	 mov	 eax, DWORD PTR $T2[ebp]
  00003	83 e0 01	 and	 eax, 1
  00006	0f 84 0d 00 00
	00		 je	 $LN7@GetMakeTex
  0000c	83 65 f0 fe	 and	 DWORD PTR $T2[ebp], -2	; fffffffeH
  00010	8b 4d 08	 mov	 ecx, DWORD PTR ___$ReturnUdt$[ebp]
  00013	ff 25 00 00 00
	00		 jmp	 DWORD PTR __imp_??1?$CStringT@DV?$StrTraitMFC_DLL@DV?$ChTraitsCRT@D@ATL@@@@@ATL@@QAE@XZ
$LN7@GetMakeTex:
  00019	c3		 ret	 0
  0001a	cc		 int	 3
  0001b	cc		 int	 3
  0001c	cc		 int	 3
  0001d	cc		 int	 3
  0001e	cc		 int	 3
__ehhandler$?GetMakeText@CUtil@@QAE?AV?$CStringT@DV?$StrTraitMFC_DLL@DV?$ChTraitsCRT@D@ATL@@@@@ATL@@DH@Z:
  0001f	90		 npad	 1
  00020	90		 npad	 1
  00021	8b 54 24 08	 mov	 edx, DWORD PTR [esp+8]
  00025	8d 42 0c	 lea	 eax, DWORD PTR [edx+12]
  00028	8b 4a ec	 mov	 ecx, DWORD PTR [edx-20]
  0002b	33 c8		 xor	 ecx, eax
  0002d	e8 00 00 00 00	 call	 @__security_check_cookie@4
  00032	b8 00 00 00 00	 mov	 eax, OFFSET __ehfuncinfo$?GetMakeText@CUtil@@QAE?AV?$CStringT@DV?$StrTraitMFC_DLL@DV?$ChTraitsCRT@D@ATL@@@@@ATL@@DH@Z
  00037	e9 00 00 00 00	 jmp	 ___CxxFrameHandler3
text$x	ENDS
?GetMakeText@CUtil@@QAE?AV?$CStringT@DV?$StrTraitMFC_DLL@DV?$ChTraitsCRT@D@ATL@@@@@ATL@@DH@Z ENDP ; CUtil::GetMakeText
; Function compile flags: /Ogtp
; File D:\git\src\IBK\IBK_DRFN\ProjSrc\SrcDrfn\Chart\chart_common\Grid\Util.cpp
;	COMDAT ?GetNumber@CUtil@@QAE?AV?$CStringT@DV?$StrTraitMFC_DLL@DV?$ChTraitsCRT@D@ATL@@@@@ATL@@PBD@Z
_TEXT	SEGMENT
_ch$ = -20						; size = 1
$T2 = -16						; size = 4
__$EHRec$ = -12						; size = 12
___$ReturnUdt$ = 8					; size = 4
_pData$ = 12						; size = 4
?GetNumber@CUtil@@QAE?AV?$CStringT@DV?$StrTraitMFC_DLL@DV?$ChTraitsCRT@D@ATL@@@@@ATL@@PBD@Z PROC ; CUtil::GetNumber, COMDAT
; _this$ = ecx

; 175  : {

  00000	55		 push	 ebp
  00001	8b ec		 mov	 ebp, esp
  00003	6a ff		 push	 -1
  00005	68 00 00 00 00	 push	 __ehhandler$?GetNumber@CUtil@@QAE?AV?$CStringT@DV?$StrTraitMFC_DLL@DV?$ChTraitsCRT@D@ATL@@@@@ATL@@PBD@Z
  0000a	64 a1 00 00 00
	00		 mov	 eax, DWORD PTR fs:0
  00010	50		 push	 eax
  00011	83 ec 08	 sub	 esp, 8
  00014	53		 push	 ebx
  00015	56		 push	 esi
  00016	57		 push	 edi
  00017	a1 00 00 00 00	 mov	 eax, DWORD PTR ___security_cookie
  0001c	33 c5		 xor	 eax, ebp
  0001e	50		 push	 eax
  0001f	8d 45 f4	 lea	 eax, DWORD PTR __$EHRec$[ebp]
  00022	64 a3 00 00 00
	00		 mov	 DWORD PTR fs:0, eax
  00028	c7 45 f0 00 00
	00 00		 mov	 DWORD PTR $T2[ebp], 0

; 176  : 	CString szRet=_T("");

  0002f	8b 5d 08	 mov	 ebx, DWORD PTR ___$ReturnUdt$[ebp]
  00032	8b cb		 mov	 ecx, ebx
  00034	68 00 00 00 00	 push	 OFFSET ??_C@_00CNPNBAHC@@
  00039	c7 45 fc 00 00
	00 00		 mov	 DWORD PTR __$EHRec$[ebp+8], 0
  00040	ff 15 00 00 00
	00		 call	 DWORD PTR __imp_??0?$CStringT@DV?$StrTraitMFC_DLL@DV?$ChTraitsCRT@D@ATL@@@@@ATL@@QAE@PBD@Z

; 186  : 		}
; 187  : 	}
; 188  : 	return szRet;

  00046	8b 4d 0c	 mov	 ecx, DWORD PTR _pData$[ebp]
  00049	8b f9		 mov	 edi, ecx
  0004b	c7 45 fc 00 00
	00 00		 mov	 DWORD PTR __$EHRec$[ebp+8], 0
  00052	c7 45 f0 01 00
	00 00		 mov	 DWORD PTR $T2[ebp], 1
  00059	8d 57 01	 lea	 edx, DWORD PTR [edi+1]
  0005c	0f 1f 40 00	 npad	 4
$LL15@GetNumber:

; 177  : 	int nLen = strlen(pData);

  00060	8a 07		 mov	 al, BYTE PTR [edi]
  00062	47		 inc	 edi
  00063	84 c0		 test	 al, al
  00065	75 f9		 jne	 SHORT $LL15@GetNumber
  00067	2b fa		 sub	 edi, edx
  00069	33 f6		 xor	 esi, esi

; 178  : 	char	ch;
; 179  : 
; 180  : 	for(int i=0;  i<nLen ; i++) {

  0006b	85 ff		 test	 edi, edi
  0006d	7e 2e		 jle	 SHORT $LN16@GetNumber
  0006f	90		 npad	 1
$LL4@GetNumber:

; 181  : 		ch = pData[i];

  00070	8a 04 0e	 mov	 al, BYTE PTR [esi+ecx]
  00073	88 45 ec	 mov	 BYTE PTR _ch$[ebp], al

; 182  : 		if(ch >= '0' && ch <= '9'||ch == '.' || ch == '-' || ch== '+') 

  00076	3c 30		 cmp	 al, 48			; 00000030H
  00078	7c 04		 jl	 SHORT $LN7@GetNumber
  0007a	3c 39		 cmp	 al, 57			; 00000039H
  0007c	7e 0c		 jle	 SHORT $LN6@GetNumber
$LN7@GetNumber:
  0007e	3c 2e		 cmp	 al, 46			; 0000002eH
  00080	74 08		 je	 SHORT $LN6@GetNumber
  00082	3c 2d		 cmp	 al, 45			; 0000002dH
  00084	74 04		 je	 SHORT $LN6@GetNumber
  00086	3c 2b		 cmp	 al, 43			; 0000002bH
  00088	75 0e		 jne	 SHORT $LN2@GetNumber
$LN6@GetNumber:

; 183  : 		{
; 184  : 			//szRet.Format("%s%c", szRet , ch);
; 185  : 			szRet += ch;

  0008a	ff 75 ec	 push	 DWORD PTR _ch$[ebp]
  0008d	8b cb		 mov	 ecx, ebx
  0008f	ff 15 00 00 00
	00		 call	 DWORD PTR __imp_??Y?$CStringT@DV?$StrTraitMFC_DLL@DV?$ChTraitsCRT@D@ATL@@@@@ATL@@QAEAAV01@D@Z
  00095	8b 4d 0c	 mov	 ecx, DWORD PTR _pData$[ebp]
$LN2@GetNumber:

; 178  : 	char	ch;
; 179  : 
; 180  : 	for(int i=0;  i<nLen ; i++) {

  00098	46		 inc	 esi
  00099	3b f7		 cmp	 esi, edi
  0009b	7c d3		 jl	 SHORT $LL4@GetNumber
$LN16@GetNumber:

; 189  : }

  0009d	8b c3		 mov	 eax, ebx
  0009f	8b 4d f4	 mov	 ecx, DWORD PTR __$EHRec$[ebp]
  000a2	64 89 0d 00 00
	00 00		 mov	 DWORD PTR fs:0, ecx
  000a9	59		 pop	 ecx
  000aa	5f		 pop	 edi
  000ab	5e		 pop	 esi
  000ac	5b		 pop	 ebx
  000ad	8b e5		 mov	 esp, ebp
  000af	5d		 pop	 ebp
  000b0	c2 08 00	 ret	 8
_TEXT	ENDS
;	COMDAT text$x
text$x	SEGMENT
__unwindfunclet$?GetNumber@CUtil@@QAE?AV?$CStringT@DV?$StrTraitMFC_DLL@DV?$ChTraitsCRT@D@ATL@@@@@ATL@@PBD@Z$0:
  00000	8b 45 f0	 mov	 eax, DWORD PTR $T2[ebp]
  00003	83 e0 01	 and	 eax, 1
  00006	0f 84 0d 00 00
	00		 je	 $LN10@GetNumber
  0000c	83 65 f0 fe	 and	 DWORD PTR $T2[ebp], -2	; fffffffeH
  00010	8b 4d 08	 mov	 ecx, DWORD PTR ___$ReturnUdt$[ebp]
  00013	ff 25 00 00 00
	00		 jmp	 DWORD PTR __imp_??1?$CStringT@DV?$StrTraitMFC_DLL@DV?$ChTraitsCRT@D@ATL@@@@@ATL@@QAE@XZ
$LN10@GetNumber:
  00019	c3		 ret	 0
  0001a	cc		 int	 3
  0001b	cc		 int	 3
  0001c	cc		 int	 3
  0001d	cc		 int	 3
  0001e	cc		 int	 3
__ehhandler$?GetNumber@CUtil@@QAE?AV?$CStringT@DV?$StrTraitMFC_DLL@DV?$ChTraitsCRT@D@ATL@@@@@ATL@@PBD@Z:
  0001f	90		 npad	 1
  00020	90		 npad	 1
  00021	8b 54 24 08	 mov	 edx, DWORD PTR [esp+8]
  00025	8d 42 0c	 lea	 eax, DWORD PTR [edx+12]
  00028	8b 4a e8	 mov	 ecx, DWORD PTR [edx-24]
  0002b	33 c8		 xor	 ecx, eax
  0002d	e8 00 00 00 00	 call	 @__security_check_cookie@4
  00032	b8 00 00 00 00	 mov	 eax, OFFSET __ehfuncinfo$?GetNumber@CUtil@@QAE?AV?$CStringT@DV?$StrTraitMFC_DLL@DV?$ChTraitsCRT@D@ATL@@@@@ATL@@PBD@Z
  00037	e9 00 00 00 00	 jmp	 ___CxxFrameHandler3
text$x	ENDS
?GetNumber@CUtil@@QAE?AV?$CStringT@DV?$StrTraitMFC_DLL@DV?$ChTraitsCRT@D@ATL@@@@@ATL@@PBD@Z ENDP ; CUtil::GetNumber
; Function compile flags: /Ogtp
; File D:\git\src\IBK\IBK_DRFN\ProjSrc\SrcDrfn\Chart\chart_common\Grid\Util.cpp
;	COMDAT ?GetOnlyNumber@CUtil@@QAE?AV?$CStringT@DV?$StrTraitMFC_DLL@DV?$ChTraitsCRT@D@ATL@@@@@ATL@@PBD@Z
_TEXT	SEGMENT
$T2 = -16						; size = 4
__$EHRec$ = -12						; size = 12
___$ReturnUdt$ = 8					; size = 4
_szData$ = 12						; size = 4
?GetOnlyNumber@CUtil@@QAE?AV?$CStringT@DV?$StrTraitMFC_DLL@DV?$ChTraitsCRT@D@ATL@@@@@ATL@@PBD@Z PROC ; CUtil::GetOnlyNumber, COMDAT
; _this$ = ecx

; 161  : {

  00000	55		 push	 ebp
  00001	8b ec		 mov	 ebp, esp
  00003	6a ff		 push	 -1
  00005	68 00 00 00 00	 push	 __ehhandler$?GetOnlyNumber@CUtil@@QAE?AV?$CStringT@DV?$StrTraitMFC_DLL@DV?$ChTraitsCRT@D@ATL@@@@@ATL@@PBD@Z
  0000a	64 a1 00 00 00
	00		 mov	 eax, DWORD PTR fs:0
  00010	50		 push	 eax
  00011	51		 push	 ecx
  00012	56		 push	 esi
  00013	57		 push	 edi
  00014	a1 00 00 00 00	 mov	 eax, DWORD PTR ___security_cookie
  00019	33 c5		 xor	 eax, ebp
  0001b	50		 push	 eax
  0001c	8d 45 f4	 lea	 eax, DWORD PTR __$EHRec$[ebp]
  0001f	64 a3 00 00 00
	00		 mov	 DWORD PTR fs:0, eax
  00025	c7 45 f0 00 00
	00 00		 mov	 DWORD PTR $T2[ebp], 0

; 162  : 	CString szRet=_T("");

  0002c	8b 7d 08	 mov	 edi, DWORD PTR ___$ReturnUdt$[ebp]
  0002f	8b cf		 mov	 ecx, edi
  00031	68 00 00 00 00	 push	 OFFSET ??_C@_00CNPNBAHC@@
  00036	c7 45 fc 00 00
	00 00		 mov	 DWORD PTR __$EHRec$[ebp+8], 0
  0003d	ff 15 00 00 00
	00		 call	 DWORD PTR __imp_??0?$CStringT@DV?$StrTraitMFC_DLL@DV?$ChTraitsCRT@D@ATL@@@@@ATL@@QAE@PBD@Z

; 167  : 	}
; 168  : 
; 169  : 	return szRet;

  00043	8b 75 0c	 mov	 esi, DWORD PTR _szData$[ebp]
  00046	c7 45 fc 00 00
	00 00		 mov	 DWORD PTR __$EHRec$[ebp+8], 0
  0004d	c7 45 f0 01 00
	00 00		 mov	 DWORD PTR $T2[ebp], 1
  00054	8a 06		 mov	 al, BYTE PTR [esi]
  00056	84 c0		 test	 al, al
  00058	74 20		 je	 SHORT $LN13@GetOnlyNum
  0005a	66 0f 1f 44 00
	00		 npad	 6
$LL4@GetOnlyNum:

; 165  : 		if( szData[x] >= '0' && szData[x] <= '9')

  00060	8a c8		 mov	 cl, al
  00062	8d 41 d0	 lea	 eax, DWORD PTR [ecx-48]
  00065	3c 09		 cmp	 al, 9
  00067	77 09		 ja	 SHORT $LN2@GetOnlyNum

; 166  : 			szRet += szData[x];

  00069	51		 push	 ecx
  0006a	8b cf		 mov	 ecx, edi
  0006c	ff 15 00 00 00
	00		 call	 DWORD PTR __imp_??Y?$CStringT@DV?$StrTraitMFC_DLL@DV?$ChTraitsCRT@D@ATL@@@@@ATL@@QAEAAV01@D@Z
$LN2@GetOnlyNum:

; 163  : 
; 164  : 	for(int x=0; (szData[x]); x++) {

  00072	8a 46 01	 mov	 al, BYTE PTR [esi+1]
  00075	46		 inc	 esi
  00076	84 c0		 test	 al, al
  00078	75 e6		 jne	 SHORT $LL4@GetOnlyNum
$LN13@GetOnlyNum:

; 170  : }

  0007a	8b c7		 mov	 eax, edi
  0007c	8b 4d f4	 mov	 ecx, DWORD PTR __$EHRec$[ebp]
  0007f	64 89 0d 00 00
	00 00		 mov	 DWORD PTR fs:0, ecx
  00086	59		 pop	 ecx
  00087	5f		 pop	 edi
  00088	5e		 pop	 esi
  00089	8b e5		 mov	 esp, ebp
  0008b	5d		 pop	 ebp
  0008c	c2 08 00	 ret	 8
_TEXT	ENDS
;	COMDAT text$x
text$x	SEGMENT
__unwindfunclet$?GetOnlyNumber@CUtil@@QAE?AV?$CStringT@DV?$StrTraitMFC_DLL@DV?$ChTraitsCRT@D@ATL@@@@@ATL@@PBD@Z$0:
  00000	8b 45 f0	 mov	 eax, DWORD PTR $T2[ebp]
  00003	83 e0 01	 and	 eax, 1
  00006	0f 84 0d 00 00
	00		 je	 $LN8@GetOnlyNum
  0000c	83 65 f0 fe	 and	 DWORD PTR $T2[ebp], -2	; fffffffeH
  00010	8b 4d 08	 mov	 ecx, DWORD PTR ___$ReturnUdt$[ebp]
  00013	ff 25 00 00 00
	00		 jmp	 DWORD PTR __imp_??1?$CStringT@DV?$StrTraitMFC_DLL@DV?$ChTraitsCRT@D@ATL@@@@@ATL@@QAE@XZ
$LN8@GetOnlyNum:
  00019	c3		 ret	 0
  0001a	cc		 int	 3
  0001b	cc		 int	 3
  0001c	cc		 int	 3
  0001d	cc		 int	 3
  0001e	cc		 int	 3
__ehhandler$?GetOnlyNumber@CUtil@@QAE?AV?$CStringT@DV?$StrTraitMFC_DLL@DV?$ChTraitsCRT@D@ATL@@@@@ATL@@PBD@Z:
  0001f	90		 npad	 1
  00020	90		 npad	 1
  00021	8b 54 24 08	 mov	 edx, DWORD PTR [esp+8]
  00025	8d 42 0c	 lea	 eax, DWORD PTR [edx+12]
  00028	8b 4a f0	 mov	 ecx, DWORD PTR [edx-16]
  0002b	33 c8		 xor	 ecx, eax
  0002d	e8 00 00 00 00	 call	 @__security_check_cookie@4
  00032	b8 00 00 00 00	 mov	 eax, OFFSET __ehfuncinfo$?GetOnlyNumber@CUtil@@QAE?AV?$CStringT@DV?$StrTraitMFC_DLL@DV?$ChTraitsCRT@D@ATL@@@@@ATL@@PBD@Z
  00037	e9 00 00 00 00	 jmp	 ___CxxFrameHandler3
text$x	ENDS
?GetOnlyNumber@CUtil@@QAE?AV?$CStringT@DV?$StrTraitMFC_DLL@DV?$ChTraitsCRT@D@ATL@@@@@ATL@@PBD@Z ENDP ; CUtil::GetOnlyNumber
; Function compile flags: /Ogtp
; File D:\git\src\IBK\IBK_DRFN\ProjSrc\SrcDrfn\Chart\chart_common\Grid\Util.cpp
; File C:\Program Files (x86)\Microsoft Visual Studio\2019\Community\VC\Tools\MSVC\14.29.30133\atlmfc\include\atlsimpstr.h
; File D:\git\src\IBK\IBK_DRFN\ProjSrc\SrcDrfn\Chart\chart_common\Grid\Util.cpp
; File C:\Program Files (x86)\Microsoft Visual Studio\2019\Community\VC\Tools\MSVC\14.29.30133\atlmfc\include\atlsimpstr.h
; File D:\git\src\IBK\IBK_DRFN\ProjSrc\SrcDrfn\Chart\chart_common\Grid\Util.cpp
; File C:\Program Files (x86)\Microsoft Visual Studio\2019\Community\VC\Tools\MSVC\14.29.30133\atlmfc\include\atlsimpstr.h
; File D:\git\src\IBK\IBK_DRFN\ProjSrc\SrcDrfn\Chart\chart_common\Grid\Util.cpp
; File C:\Program Files (x86)\Microsoft Visual Studio\2019\Community\VC\Tools\MSVC\14.29.30133\atlmfc\include\atlsimpstr.h
; File D:\git\src\IBK\IBK_DRFN\ProjSrc\SrcDrfn\Chart\chart_common\Grid\Util.cpp
; File C:\Program Files (x86)\Microsoft Visual Studio\2019\Community\VC\Tools\MSVC\14.29.30133\atlmfc\include\atlsimpstr.h
; File D:\git\src\IBK\IBK_DRFN\ProjSrc\SrcDrfn\Chart\chart_common\Grid\Util.cpp
; File C:\Program Files (x86)\Microsoft Visual Studio\2019\Community\VC\Tools\MSVC\14.29.30133\atlmfc\include\cstringt.h
; File D:\git\src\IBK\IBK_DRFN\ProjSrc\SrcDrfn\Chart\chart_common\Grid\Util.cpp
; File C:\Program Files (x86)\Microsoft Visual Studio\2019\Community\VC\Tools\MSVC\14.29.30133\atlmfc\include\cstringt.h
; File C:\Program Files (x86)\Microsoft Visual Studio\2019\Community\VC\Tools\MSVC\14.29.30133\atlmfc\include\atlsimpstr.h
; File C:\Program Files (x86)\Microsoft Visual Studio\2019\Community\VC\Tools\MSVC\14.29.30133\atlmfc\include\cstringt.h
; File D:\git\src\IBK\IBK_DRFN\ProjSrc\SrcDrfn\Chart\chart_common\Grid\Util.cpp
; File C:\Program Files (x86)\Microsoft Visual Studio\2019\Community\VC\Tools\MSVC\14.29.30133\atlmfc\include\cstringt.h
; File C:\Program Files (x86)\Microsoft Visual Studio\2019\Community\VC\Tools\MSVC\14.29.30133\atlmfc\include\atlsimpstr.h
; File C:\Program Files (x86)\Microsoft Visual Studio\2019\Community\VC\Tools\MSVC\14.29.30133\atlmfc\include\cstringt.h
; File D:\git\src\IBK\IBK_DRFN\ProjSrc\SrcDrfn\Chart\chart_common\Grid\Util.cpp
;	COMDAT ?GetComma@CUtil@@QAE?AV?$CStringT@DV?$StrTraitMFC_DLL@DV?$ChTraitsCRT@D@ATL@@@@@ATL@@PBD@Z
_TEXT	SEGMENT
_ch$2 = -36						; size = 1
$T3 = -36						; size = 4
$T4 = -36						; size = 4
$T5 = -36						; size = 4
$T6 = -36						; size = 4
$T7 = -36						; size = 4
$T8 = -32						; size = 4
_sTemp1$ = -28						; size = 4
_sTemp$ = -24						; size = 4
_szRet$ = -20						; size = 4
_szTmp$ = -16						; size = 4
__$EHRec$ = -12						; size = 12
___$ReturnUdt$ = 8					; size = 4
$T9 = 12						; size = 4
$T10 = 12						; size = 4
_pData$ = 12						; size = 4
_ch$1$ = 15						; size = 1
?GetComma@CUtil@@QAE?AV?$CStringT@DV?$StrTraitMFC_DLL@DV?$ChTraitsCRT@D@ATL@@@@@ATL@@PBD@Z PROC ; CUtil::GetComma, COMDAT
; _this$ = ecx

; 204  : {

  00000	55		 push	 ebp
  00001	8b ec		 mov	 ebp, esp
  00003	6a ff		 push	 -1
  00005	68 00 00 00 00	 push	 __ehhandler$?GetComma@CUtil@@QAE?AV?$CStringT@DV?$StrTraitMFC_DLL@DV?$ChTraitsCRT@D@ATL@@@@@ATL@@PBD@Z
  0000a	64 a1 00 00 00
	00		 mov	 eax, DWORD PTR fs:0
  00010	50		 push	 eax
  00011	83 ec 18	 sub	 esp, 24			; 00000018H
  00014	53		 push	 ebx
  00015	56		 push	 esi
  00016	57		 push	 edi
  00017	a1 00 00 00 00	 mov	 eax, DWORD PTR ___security_cookie
  0001c	33 c5		 xor	 eax, ebp
  0001e	50		 push	 eax
  0001f	8d 45 f4	 lea	 eax, DWORD PTR __$EHRec$[ebp]
  00022	64 a3 00 00 00
	00		 mov	 DWORD PTR fs:0, eax

; 205  : 	CString szRet=_T("");

  00028	68 00 00 00 00	 push	 OFFSET ??_C@_00CNPNBAHC@@
  0002d	8d 4d ec	 lea	 ecx, DWORD PTR _szRet$[ebp]
  00030	c7 45 e0 00 00
	00 00		 mov	 DWORD PTR $T8[ebp], 0
  00037	ff 15 00 00 00
	00		 call	 DWORD PTR __imp_??0?$CStringT@DV?$StrTraitMFC_DLL@DV?$ChTraitsCRT@D@ATL@@@@@ATL@@QAE@PBD@Z

; 206  : 	CString szTmp = pData ;

  0003d	ff 75 0c	 push	 DWORD PTR _pData$[ebp]
  00040	8d 4d f0	 lea	 ecx, DWORD PTR _szTmp$[ebp]
  00043	c7 45 fc 00 00
	00 00		 mov	 DWORD PTR __$EHRec$[ebp+8], 0
  0004a	ff 15 00 00 00
	00		 call	 DWORD PTR __imp_??0?$CStringT@DV?$StrTraitMFC_DLL@DV?$ChTraitsCRT@D@ATL@@@@@ATL@@QAE@PBD@Z

; 207  : 
; 208  : 	szTmp.TrimLeft();

  00050	8d 4d f0	 lea	 ecx, DWORD PTR _szTmp$[ebp]
  00053	c6 45 fc 01	 mov	 BYTE PTR __$EHRec$[ebp+8], 1
  00057	ff 15 00 00 00
	00		 call	 DWORD PTR __imp_?TrimLeft@?$CStringT@DV?$StrTraitMFC_DLL@DV?$ChTraitsCRT@D@ATL@@@@@ATL@@QAEAAV12@XZ

; 209  : 	szTmp.TrimRight();

  0005d	8d 4d f0	 lea	 ecx, DWORD PTR _szTmp$[ebp]
  00060	ff 15 00 00 00
	00		 call	 DWORD PTR __imp_?TrimRight@?$CStringT@DV?$StrTraitMFC_DLL@DV?$ChTraitsCRT@D@ATL@@@@@ATL@@QAEAAV12@XZ
; File C:\Program Files (x86)\Microsoft Visual Studio\2019\Community\VC\Tools\MSVC\14.29.30133\atlmfc\include\atlsimpstr.h

; 377  : 		return( m_pszData );

  00066	8b 5d f0	 mov	 ebx, DWORD PTR _szTmp$[ebp]
; File D:\git\src\IBK\IBK_DRFN\ProjSrc\SrcDrfn\Chart\chart_common\Grid\Util.cpp

; 176  : 	CString szRet=_T("");

  00069	68 00 00 00 00	 push	 OFFSET ??_C@_00CNPNBAHC@@
  0006e	8d 4d 0c	 lea	 ecx, DWORD PTR $T10[ebp]

; 210  : 
; 211  : 	szTmp = GetNumber(szTmp);

  00071	c6 45 fc 02	 mov	 BYTE PTR __$EHRec$[ebp+8], 2

; 176  : 	CString szRet=_T("");

  00075	ff 15 00 00 00
	00		 call	 DWORD PTR __imp_??0?$CStringT@DV?$StrTraitMFC_DLL@DV?$ChTraitsCRT@D@ATL@@@@@ATL@@QAE@PBD@Z

; 177  : 	int nLen = strlen(pData);

  0007b	8b f3		 mov	 esi, ebx

; 186  : 		}
; 187  : 	}
; 188  : 	return szRet;

  0007d	c7 45 e0 02 00
	00 00		 mov	 DWORD PTR $T8[ebp], 2
  00084	8d 4e 01	 lea	 ecx, DWORD PTR [esi+1]
$LL107@GetComma:

; 177  : 	int nLen = strlen(pData);

  00087	8a 06		 mov	 al, BYTE PTR [esi]
  00089	46		 inc	 esi
  0008a	84 c0		 test	 al, al
  0008c	75 f9		 jne	 SHORT $LL107@GetComma
  0008e	2b f1		 sub	 esi, ecx

; 204  : {

  00090	33 ff		 xor	 edi, edi

; 180  : 	for(int i=0;  i<nLen ; i++) {

  00092	85 f6		 test	 esi, esi
  00094	7e 2b		 jle	 SHORT $LN34@GetComma
$LL35@GetComma:

; 181  : 		ch = pData[i];

  00096	8a 04 1f	 mov	 al, BYTE PTR [edi+ebx]
  00099	88 45 dc	 mov	 BYTE PTR _ch$2[ebp], al

; 182  : 		if(ch >= '0' && ch <= '9'||ch == '.' || ch == '-' || ch== '+') 

  0009c	3c 30		 cmp	 al, 48			; 00000030H
  0009e	7c 04		 jl	 SHORT $LN38@GetComma
  000a0	3c 39		 cmp	 al, 57			; 00000039H
  000a2	7e 0c		 jle	 SHORT $LN37@GetComma
$LN38@GetComma:
  000a4	3c 2e		 cmp	 al, 46			; 0000002eH
  000a6	74 08		 je	 SHORT $LN37@GetComma
  000a8	3c 2d		 cmp	 al, 45			; 0000002dH
  000aa	74 04		 je	 SHORT $LN37@GetComma
  000ac	3c 2b		 cmp	 al, 43			; 0000002bH
  000ae	75 0c		 jne	 SHORT $LN33@GetComma
$LN37@GetComma:

; 183  : 		{
; 184  : 			//szRet.Format("%s%c", szRet , ch);
; 185  : 			szRet += ch;

  000b0	ff 75 dc	 push	 DWORD PTR _ch$2[ebp]
  000b3	8d 4d 0c	 lea	 ecx, DWORD PTR $T10[ebp]
  000b6	ff 15 00 00 00
	00		 call	 DWORD PTR __imp_??Y?$CStringT@DV?$StrTraitMFC_DLL@DV?$ChTraitsCRT@D@ATL@@@@@ATL@@QAEAAV01@D@Z
$LN33@GetComma:

; 178  : 	char	ch;
; 179  : 
; 180  : 	for(int i=0;  i<nLen ; i++) {

  000bc	47		 inc	 edi
  000bd	3b fe		 cmp	 edi, esi
  000bf	7c d5		 jl	 SHORT $LL35@GetComma
$LN34@GetComma:

; 210  : 
; 211  : 	szTmp = GetNumber(szTmp);

  000c1	8d 45 0c	 lea	 eax, DWORD PTR $T10[ebp]
  000c4	50		 push	 eax
  000c5	8d 4d f0	 lea	 ecx, DWORD PTR _szTmp$[ebp]
  000c8	ff 15 00 00 00
	00		 call	 DWORD PTR __imp_??4?$CStringT@DV?$StrTraitMFC_DLL@DV?$ChTraitsCRT@D@ATL@@@@@ATL@@QAEAAV01@ABV01@@Z
  000ce	8d 4d 0c	 lea	 ecx, DWORD PTR $T10[ebp]
  000d1	c6 45 fc 01	 mov	 BYTE PTR __$EHRec$[ebp+8], 1
  000d5	ff 15 00 00 00
	00		 call	 DWORD PTR __imp_??1?$CStringT@DV?$StrTraitMFC_DLL@DV?$ChTraitsCRT@D@ATL@@@@@ATL@@QAE@XZ
; File C:\Program Files (x86)\Microsoft Visual Studio\2019\Community\VC\Tools\MSVC\14.29.30133\atlmfc\include\atlsimpstr.h

; 519  : 		return( GetData()->nDataLength );

  000db	8b 45 f0	 mov	 eax, DWORD PTR _szTmp$[ebp]

; 533  : 		return( GetLength() == 0 );

  000de	83 78 f4 00	 cmp	 DWORD PTR [eax-12], 0
; File D:\git\src\IBK\IBK_DRFN\ProjSrc\SrcDrfn\Chart\chart_common\Grid\Util.cpp

; 213  : 	if(szTmp.IsEmpty())	return "" ;

  000e2	75 13		 jne	 SHORT $LN5@GetComma
  000e4	8b 4d 08	 mov	 ecx, DWORD PTR ___$ReturnUdt$[ebp]
  000e7	68 00 00 00 00	 push	 OFFSET ??_C@_00CNPNBAHC@@
  000ec	ff 15 00 00 00
	00		 call	 DWORD PTR __imp_??0?$CStringT@DV?$StrTraitMFC_DLL@DV?$ChTraitsCRT@D@ATL@@@@@ATL@@QAE@PBD@Z
  000f2	e9 ad 02 00 00	 jmp	 $LN110@GetComma
$LN5@GetComma:

; 214  : 	TCHAR ch=' ';
; 215  : 	if(szTmp[0]=='+' ||szTmp[0]=='-') 

  000f7	6a 00		 push	 0
  000f9	8d 4d f0	 lea	 ecx, DWORD PTR _szTmp$[ebp]
  000fc	c6 45 0f 20	 mov	 BYTE PTR _ch$1$[ebp], 32 ; 00000020H
  00100	ff 15 00 00 00
	00		 call	 DWORD PTR __imp_??A?$CSimpleStringT@D$00@ATL@@QBEDH@Z
  00106	3c 2b		 cmp	 al, 43			; 0000002bH
  00108	74 0f		 je	 SHORT $LN7@GetComma
  0010a	6a 00		 push	 0
  0010c	8d 4d f0	 lea	 ecx, DWORD PTR _szTmp$[ebp]
  0010f	ff 15 00 00 00
	00		 call	 DWORD PTR __imp_??A?$CSimpleStringT@D$00@ATL@@QBEDH@Z
  00115	3c 2d		 cmp	 al, 45			; 0000002dH
  00117	75 34		 jne	 SHORT $LN6@GetComma
$LN7@GetComma:

; 216  : 	{
; 217  : 		ch = szTmp[0];

  00119	6a 00		 push	 0
  0011b	8d 4d f0	 lea	 ecx, DWORD PTR _szTmp$[ebp]
  0011e	ff 15 00 00 00
	00		 call	 DWORD PTR __imp_??A?$CSimpleStringT@D$00@ATL@@QBEDH@Z
  00124	88 45 0f	 mov	 BYTE PTR _ch$1$[ebp], al

; 218  : 		szTmp = szTmp.Mid(1);

  00127	8d 4d f0	 lea	 ecx, DWORD PTR _szTmp$[ebp]
  0012a	6a 01		 push	 1
  0012c	8d 45 dc	 lea	 eax, DWORD PTR $T7[ebp]
  0012f	50		 push	 eax
  00130	ff 15 00 00 00
	00		 call	 DWORD PTR __imp_?Mid@?$CStringT@DV?$StrTraitMFC_DLL@DV?$ChTraitsCRT@D@ATL@@@@@ATL@@QBE?AV12@H@Z
  00136	50		 push	 eax
  00137	8d 4d f0	 lea	 ecx, DWORD PTR _szTmp$[ebp]
  0013a	c6 45 fc 03	 mov	 BYTE PTR __$EHRec$[ebp+8], 3
  0013e	ff 15 00 00 00
	00		 call	 DWORD PTR __imp_??4?$CStringT@DV?$StrTraitMFC_DLL@DV?$ChTraitsCRT@D@ATL@@@@@ATL@@QAEAAV01@ABV01@@Z
  00144	8d 4d dc	 lea	 ecx, DWORD PTR $T7[ebp]
  00147	ff 15 00 00 00
	00		 call	 DWORD PTR __imp_??1?$CStringT@DV?$StrTraitMFC_DLL@DV?$ChTraitsCRT@D@ATL@@@@@ATL@@QAE@XZ
$LN6@GetComma:

; 219  : 	}
; 220  : 
; 221  : 	// 앞의 0 제거
; 222  : 	CString sTemp;

  0014d	8d 4d e8	 lea	 ecx, DWORD PTR _sTemp$[ebp]
  00150	ff 15 00 00 00
	00		 call	 DWORD PTR __imp_??0?$CStringT@DV?$StrTraitMFC_DLL@DV?$ChTraitsCRT@D@ATL@@@@@ATL@@QAE@XZ

; 105  : 	int nLen = strlen(pData);

  00156	8b 45 f0	 mov	 eax, DWORD PTR _szTmp$[ebp]
  00159	8b d0		 mov	 edx, eax

; 219  : 	}
; 220  : 
; 221  : 	// 앞의 0 제거
; 222  : 	CString sTemp;

  0015b	c6 45 fc 04	 mov	 BYTE PTR __$EHRec$[ebp+8], 4

; 105  : 	int nLen = strlen(pData);

  0015f	8d 72 01	 lea	 esi, DWORD PTR [edx+1]
$LL108@GetComma:
  00162	8a 0a		 mov	 cl, BYTE PTR [edx]
  00164	42		 inc	 edx
  00165	84 c9		 test	 cl, cl
  00167	75 f9		 jne	 SHORT $LL108@GetComma
  00169	2b d6		 sub	 edx, esi

; 106  : 	int nSameCharCnt = 0;

  0016b	33 ff		 xor	 edi, edi

; 107  : 
; 108  : 	for(int i=0;  i<nLen ; i++) 

  0016d	33 c9		 xor	 ecx, ecx
  0016f	85 d2		 test	 edx, edx
  00171	7e 0f		 jle	 SHORT $LN52@GetComma
$LL53@GetComma:

; 109  : 	{  
; 110  : 		if(pData[i]!=ch) return (char *)&pData[i];

  00173	80 3c 01 30	 cmp	 BYTE PTR [ecx+eax], 48	; 00000030H
  00177	8d 34 01	 lea	 esi, DWORD PTR [ecx+eax]
  0017a	75 13		 jne	 SHORT $LN50@GetComma

; 111  : 		nSameCharCnt++;

  0017c	41		 inc	 ecx
  0017d	47		 inc	 edi
  0017e	3b ca		 cmp	 ecx, edx
  00180	7c f1		 jl	 SHORT $LL53@GetComma
$LN52@GetComma:

; 112  : 	}
; 113  : 
; 114  : 	//같은 길이를 가진 
; 115  : 	if(ch == '0' && nSameCharCnt == nLen)

  00182	3b fa		 cmp	 edi, edx
  00184	75 07		 jne	 SHORT $LN55@GetComma

; 116  : 	{
; 117  : 		return (char*)&pData[nLen-1] ;

  00186	8d 70 ff	 lea	 esi, DWORD PTR [eax-1]
  00189	03 f2		 add	 esi, edx
  0018b	eb 02		 jmp	 SHORT $LN50@GetComma
$LN55@GetComma:

; 118  : 	}
; 119  : 
; 120  : 	return (char *)pData;

  0018d	8b f0		 mov	 esi, eax
$LN50@GetComma:

; 223  : 	TCHAR chTemp = '0';
; 224  : 	sTemp = RemoveFront(szTmp, chTemp);

  0018f	56		 push	 esi
  00190	8d 4d e8	 lea	 ecx, DWORD PTR _sTemp$[ebp]
  00193	ff 15 00 00 00
	00		 call	 DWORD PTR __imp_??4?$CStringT@DV?$StrTraitMFC_DLL@DV?$ChTraitsCRT@D@ATL@@@@@ATL@@QAEAAV01@PBD@Z

; 225  : 	
; 226  : 	// 소수점 이하 제거
; 227  : 	CString sTemp1;

  00199	8d 4d e4	 lea	 ecx, DWORD PTR _sTemp1$[ebp]
  0019c	ff 15 00 00 00
	00		 call	 DWORD PTR __imp_??0?$CStringT@DV?$StrTraitMFC_DLL@DV?$ChTraitsCRT@D@ATL@@@@@ATL@@QAE@XZ

; 228  : 	int nIndex = sTemp.Find(".");

  001a2	6a 00		 push	 0
  001a4	68 00 00 00 00	 push	 OFFSET ??_C@_01LFCBOECM@?4@
  001a9	8d 4d e8	 lea	 ecx, DWORD PTR _sTemp$[ebp]
  001ac	c6 45 fc 05	 mov	 BYTE PTR __$EHRec$[ebp+8], 5
  001b0	ff 15 00 00 00
	00		 call	 DWORD PTR __imp_?Find@?$CStringT@DV?$StrTraitMFC_DLL@DV?$ChTraitsCRT@D@ATL@@@@@ATL@@QBEHPBDH@Z
  001b6	8b d8		 mov	 ebx, eax

; 229  : 	if (nIndex == 0)

  001b8	85 db		 test	 ebx, ebx
  001ba	75 3a		 jne	 SHORT $LN111@GetComma

; 230  : 	{
; 231  : 		sTemp1 = sTemp.Mid(nIndex+1);

  001bc	6a 01		 push	 1
  001be	8d 45 dc	 lea	 eax, DWORD PTR $T6[ebp]
  001c1	50		 push	 eax
  001c2	8d 4d e8	 lea	 ecx, DWORD PTR _sTemp$[ebp]
  001c5	ff 15 00 00 00
	00		 call	 DWORD PTR __imp_?Mid@?$CStringT@DV?$StrTraitMFC_DLL@DV?$ChTraitsCRT@D@ATL@@@@@ATL@@QBE?AV12@H@Z
  001cb	50		 push	 eax
  001cc	8d 4d e4	 lea	 ecx, DWORD PTR _sTemp1$[ebp]
  001cf	c6 45 fc 06	 mov	 BYTE PTR __$EHRec$[ebp+8], 6
  001d3	ff 15 00 00 00
	00		 call	 DWORD PTR __imp_??4?$CStringT@DV?$StrTraitMFC_DLL@DV?$ChTraitsCRT@D@ATL@@@@@ATL@@QAEAAV01@ABV01@@Z
  001d9	8d 4d dc	 lea	 ecx, DWORD PTR $T6[ebp]
  001dc	c6 45 fc 05	 mov	 BYTE PTR __$EHRec$[ebp+8], 5
  001e0	ff 15 00 00 00
	00		 call	 DWORD PTR __imp_??1?$CStringT@DV?$StrTraitMFC_DLL@DV?$ChTraitsCRT@D@ATL@@@@@ATL@@QAE@XZ

; 232  : 		szTmp = "0";

  001e6	68 00 00 00 00	 push	 OFFSET ??_C@_01GBGANLPD@0@
  001eb	8d 4d f0	 lea	 ecx, DWORD PTR _szTmp$[ebp]
  001ee	ff 15 00 00 00
	00		 call	 DWORD PTR __imp_??4?$CStringT@DV?$StrTraitMFC_DLL@DV?$ChTraitsCRT@D@ATL@@@@@ATL@@QAEAAV01@PBD@Z

; 233  : 	}

  001f4	eb 66		 jmp	 SHORT $LN11@GetComma
$LN111@GetComma:

; 234  : 	else if( nIndex > 0 )

  001f6	7e 57		 jle	 SHORT $LN10@GetComma

; 235  : 	{
; 236  : 		sTemp1 = sTemp.Mid(nIndex+1);

  001f8	8d 43 01	 lea	 eax, DWORD PTR [ebx+1]
  001fb	50		 push	 eax
  001fc	8d 45 dc	 lea	 eax, DWORD PTR $T5[ebp]
  001ff	50		 push	 eax
  00200	8d 4d e8	 lea	 ecx, DWORD PTR _sTemp$[ebp]
  00203	ff 15 00 00 00
	00		 call	 DWORD PTR __imp_?Mid@?$CStringT@DV?$StrTraitMFC_DLL@DV?$ChTraitsCRT@D@ATL@@@@@ATL@@QBE?AV12@H@Z
  00209	50		 push	 eax
  0020a	8d 4d e4	 lea	 ecx, DWORD PTR _sTemp1$[ebp]
  0020d	c6 45 fc 07	 mov	 BYTE PTR __$EHRec$[ebp+8], 7
  00211	ff 15 00 00 00
	00		 call	 DWORD PTR __imp_??4?$CStringT@DV?$StrTraitMFC_DLL@DV?$ChTraitsCRT@D@ATL@@@@@ATL@@QAEAAV01@ABV01@@Z
  00217	8d 4d dc	 lea	 ecx, DWORD PTR $T5[ebp]
  0021a	c6 45 fc 05	 mov	 BYTE PTR __$EHRec$[ebp+8], 5
  0021e	ff 15 00 00 00
	00		 call	 DWORD PTR __imp_??1?$CStringT@DV?$StrTraitMFC_DLL@DV?$ChTraitsCRT@D@ATL@@@@@ATL@@QAE@XZ

; 237  : 		szTmp = sTemp.Left(nIndex);

  00224	53		 push	 ebx
  00225	8d 45 dc	 lea	 eax, DWORD PTR $T4[ebp]
  00228	50		 push	 eax
  00229	8d 4d e8	 lea	 ecx, DWORD PTR _sTemp$[ebp]
  0022c	ff 15 00 00 00
	00		 call	 DWORD PTR __imp_?Left@?$CStringT@DV?$StrTraitMFC_DLL@DV?$ChTraitsCRT@D@ATL@@@@@ATL@@QBE?AV12@H@Z
  00232	50		 push	 eax
  00233	8d 4d f0	 lea	 ecx, DWORD PTR _szTmp$[ebp]
  00236	c6 45 fc 08	 mov	 BYTE PTR __$EHRec$[ebp+8], 8
  0023a	ff 15 00 00 00
	00		 call	 DWORD PTR __imp_??4?$CStringT@DV?$StrTraitMFC_DLL@DV?$ChTraitsCRT@D@ATL@@@@@ATL@@QAEAAV01@ABV01@@Z
  00240	8d 4d dc	 lea	 ecx, DWORD PTR $T4[ebp]
  00243	c6 45 fc 05	 mov	 BYTE PTR __$EHRec$[ebp+8], 5
  00247	ff 15 00 00 00
	00		 call	 DWORD PTR __imp_??1?$CStringT@DV?$StrTraitMFC_DLL@DV?$ChTraitsCRT@D@ATL@@@@@ATL@@QAE@XZ

; 238  : 	}

  0024d	eb 0d		 jmp	 SHORT $LN11@GetComma
$LN10@GetComma:

; 239  : 	else
; 240  : 		szTmp = sTemp;		

  0024f	8d 45 e8	 lea	 eax, DWORD PTR _sTemp$[ebp]
  00252	50		 push	 eax
  00253	8d 4d f0	 lea	 ecx, DWORD PTR _szTmp$[ebp]
  00256	ff 15 00 00 00
	00		 call	 DWORD PTR __imp_??4?$CStringT@DV?$StrTraitMFC_DLL@DV?$ChTraitsCRT@D@ATL@@@@@ATL@@QAEAAV01@ABV01@@Z
$LN11@GetComma:
; File C:\Program Files (x86)\Microsoft Visual Studio\2019\Community\VC\Tools\MSVC\14.29.30133\atlmfc\include\atlsimpstr.h

; 519  : 		return( GetData()->nDataLength );

  0025c	8b 45 f0	 mov	 eax, DWORD PTR _szTmp$[ebp]
; File D:\git\src\IBK\IBK_DRFN\ProjSrc\SrcDrfn\Chart\chart_common\Grid\Util.cpp

; 243  : 	if( szTmp.GetLength() == 0 )

  0025f	83 78 f4 00	 cmp	 DWORD PTR [eax-12], 0
  00263	75 0e		 jne	 SHORT $LN12@GetComma

; 244  : 		szTmp = "0";

  00265	68 00 00 00 00	 push	 OFFSET ??_C@_01GBGANLPD@0@
  0026a	8d 4d f0	 lea	 ecx, DWORD PTR _szTmp$[ebp]
  0026d	ff 15 00 00 00
	00		 call	 DWORD PTR __imp_??4?$CStringT@DV?$StrTraitMFC_DLL@DV?$ChTraitsCRT@D@ATL@@@@@ATL@@QAEAAV01@PBD@Z
$LN12@GetComma:

; 245  : 	
; 246  : 	szTmp.MakeReverse();

  00273	8d 4d f0	 lea	 ecx, DWORD PTR _szTmp$[ebp]
  00276	ff 15 00 00 00
	00		 call	 DWORD PTR __imp_?MakeReverse@?$CStringT@DV?$StrTraitMFC_DLL@DV?$ChTraitsCRT@D@ATL@@@@@ATL@@QAEAAV12@XZ
; File C:\Program Files (x86)\Microsoft Visual Studio\2019\Community\VC\Tools\MSVC\14.29.30133\atlmfc\include\atlsimpstr.h

; 519  : 		return( GetData()->nDataLength );

  0027c	8b 45 f0	 mov	 eax, DWORD PTR _szTmp$[ebp]
; File D:\git\src\IBK\IBK_DRFN\ProjSrc\SrcDrfn\Chart\chart_common\Grid\Util.cpp

; 248  : 	szRet.Empty();

  0027f	8d 4d ec	 lea	 ecx, DWORD PTR _szRet$[ebp]
; File C:\Program Files (x86)\Microsoft Visual Studio\2019\Community\VC\Tools\MSVC\14.29.30133\atlmfc\include\atlsimpstr.h

; 519  : 		return( GetData()->nDataLength );

  00282	8b 78 f4	 mov	 edi, DWORD PTR [eax-12]
; File D:\git\src\IBK\IBK_DRFN\ProjSrc\SrcDrfn\Chart\chart_common\Grid\Util.cpp

; 248  : 	szRet.Empty();

  00285	ff 15 00 00 00
	00		 call	 DWORD PTR __imp_?Empty@?$CSimpleStringT@D$00@ATL@@QAEXXZ
  0028b	33 f6		 xor	 esi, esi

; 249  :  	for(int i=0;   i<nLen;   i++) 

  0028d	85 ff		 test	 edi, edi
  0028f	7e 3d		 jle	 SHORT $LN3@GetComma
$LL4@GetComma:

; 250  : 	{
; 251  : 		if(i!=0 && !(i%3))	szRet += ',';

  00291	85 f6		 test	 esi, esi
  00293	74 1d		 je	 SHORT $LN13@GetComma
  00295	b8 ab aa aa aa	 mov	 eax, -1431655765	; aaaaaaabH
  0029a	8b ce		 mov	 ecx, esi
  0029c	f7 e6		 mul	 esi
  0029e	d1 ea		 shr	 edx, 1
  002a0	8d 04 52	 lea	 eax, DWORD PTR [edx+edx*2]
  002a3	2b c8		 sub	 ecx, eax
  002a5	75 0b		 jne	 SHORT $LN13@GetComma
  002a7	6a 2c		 push	 44			; 0000002cH
  002a9	8d 4d ec	 lea	 ecx, DWORD PTR _szRet$[ebp]
  002ac	ff 15 00 00 00
	00		 call	 DWORD PTR __imp_??Y?$CStringT@DV?$StrTraitMFC_DLL@DV?$ChTraitsCRT@D@ATL@@@@@ATL@@QAEAAV01@D@Z
$LN13@GetComma:

; 252  : 		szRet += szTmp[i];

  002b2	56		 push	 esi
  002b3	8d 4d f0	 lea	 ecx, DWORD PTR _szTmp$[ebp]
  002b6	ff 15 00 00 00
	00		 call	 DWORD PTR __imp_??A?$CSimpleStringT@D$00@ATL@@QBEDH@Z
  002bc	0f b6 c0	 movzx	 eax, al
  002bf	8d 4d ec	 lea	 ecx, DWORD PTR _szRet$[ebp]
  002c2	50		 push	 eax
  002c3	ff 15 00 00 00
	00		 call	 DWORD PTR __imp_??Y?$CStringT@DV?$StrTraitMFC_DLL@DV?$ChTraitsCRT@D@ATL@@@@@ATL@@QAEAAV01@D@Z
  002c9	46		 inc	 esi
  002ca	3b f7		 cmp	 esi, edi
  002cc	7c c3		 jl	 SHORT $LL4@GetComma
$LN3@GetComma:

; 253  : 	}
; 254  : 	if(ch=='-') szRet += ch;

  002ce	80 7d 0f 2d	 cmp	 BYTE PTR _ch$1$[ebp], 45 ; 0000002dH
  002d2	75 0b		 jne	 SHORT $LN14@GetComma
  002d4	6a 2d		 push	 45			; 0000002dH
  002d6	8d 4d ec	 lea	 ecx, DWORD PTR _szRet$[ebp]
  002d9	ff 15 00 00 00
	00		 call	 DWORD PTR __imp_??Y?$CStringT@DV?$StrTraitMFC_DLL@DV?$ChTraitsCRT@D@ATL@@@@@ATL@@QAEAAV01@D@Z
$LN14@GetComma:

; 255  : 	szRet.MakeReverse();	

  002df	8d 4d ec	 lea	 ecx, DWORD PTR _szRet$[ebp]
  002e2	ff 15 00 00 00
	00		 call	 DWORD PTR __imp_?MakeReverse@?$CStringT@DV?$StrTraitMFC_DLL@DV?$ChTraitsCRT@D@ATL@@@@@ATL@@QAEAAV12@XZ

; 256  : 
; 257  : 	// 소수점 이하 다시 붙임
; 258  : 	if( nIndex >= 0 )

  002e8	85 db		 test	 ebx, ebx
  002ea	0f 88 95 00 00
	00		 js	 $LN15@GetComma
; File C:\Program Files (x86)\Microsoft Visual Studio\2019\Community\VC\Tools\MSVC\14.29.30133\atlmfc\include\cstringt.h

; 2401 : 		CStringT strResult( str1.GetManager() );

  002f0	8d 4d ec	 lea	 ecx, DWORD PTR _szRet$[ebp]
; File D:\git\src\IBK\IBK_DRFN\ProjSrc\SrcDrfn\Chart\chart_common\Grid\Util.cpp

; 260  : 		szRet = szRet + "." +sTemp1;

  002f3	c6 45 fc 09	 mov	 BYTE PTR __$EHRec$[ebp+8], 9
; File C:\Program Files (x86)\Microsoft Visual Studio\2019\Community\VC\Tools\MSVC\14.29.30133\atlmfc\include\cstringt.h

; 2401 : 		CStringT strResult( str1.GetManager() );

  002f7	ff 15 00 00 00
	00		 call	 DWORD PTR __imp_?GetManager@?$CStringT@DV?$StrTraitMFC_DLL@DV?$ChTraitsCRT@D@ATL@@@@@ATL@@QBEPAUIAtlStringMgr@2@XZ
  002fd	50		 push	 eax
  002fe	8d 4d 0c	 lea	 ecx, DWORD PTR $T9[ebp]
  00301	ff 15 00 00 00
	00		 call	 DWORD PTR __imp_??0?$CStringT@DV?$StrTraitMFC_DLL@DV?$ChTraitsCRT@D@ATL@@@@@ATL@@QAE@PAUIAtlStringMgr@1@@Z
; File C:\Program Files (x86)\Microsoft Visual Studio\2019\Community\VC\Tools\MSVC\14.29.30133\atlmfc\include\atlsimpstr.h

; 519  : 		return( GetData()->nDataLength );

  00307	8b 45 ec	 mov	 eax, DWORD PTR _szRet$[ebp]
; File C:\Program Files (x86)\Microsoft Visual Studio\2019\Community\VC\Tools\MSVC\14.29.30133\atlmfc\include\cstringt.h

; 2403 : 		CThisSimpleString::Concatenate( strResult, str1, str1.GetLength(), psz2, CThisSimpleString::StringLength( psz2 ) );

  0030a	6a 01		 push	 1
  0030c	68 00 00 00 00	 push	 OFFSET ??_C@_01LFCBOECM@?4@

; 2404 : 
; 2405 : 		return( strResult );

  00311	c7 45 e0 04 00
	00 00		 mov	 DWORD PTR $T8[ebp], 4
  00318	ff 70 f4	 push	 DWORD PTR [eax-12]
  0031b	50		 push	 eax
  0031c	8d 45 0c	 lea	 eax, DWORD PTR $T9[ebp]
  0031f	50		 push	 eax
  00320	ff 15 00 00 00
	00		 call	 DWORD PTR __imp_?Concatenate@?$CSimpleStringT@D$00@ATL@@KAXAAV12@PBDH1H@Z
  00326	83 c4 14	 add	 esp, 20			; 00000014H

; 2390 : 		CStringT strResult( str1.GetManager() );

  00329	8d 4d 0c	 lea	 ecx, DWORD PTR $T9[ebp]
; File D:\git\src\IBK\IBK_DRFN\ProjSrc\SrcDrfn\Chart\chart_common\Grid\Util.cpp

; 260  : 		szRet = szRet + "." +sTemp1;

  0032c	c6 45 fc 0a	 mov	 BYTE PTR __$EHRec$[ebp+8], 10 ; 0000000aH
; File C:\Program Files (x86)\Microsoft Visual Studio\2019\Community\VC\Tools\MSVC\14.29.30133\atlmfc\include\cstringt.h

; 2390 : 		CStringT strResult( str1.GetManager() );

  00330	ff 15 00 00 00
	00		 call	 DWORD PTR __imp_?GetManager@?$CStringT@DV?$StrTraitMFC_DLL@DV?$ChTraitsCRT@D@ATL@@@@@ATL@@QBEPAUIAtlStringMgr@2@XZ
  00336	50		 push	 eax
  00337	8d 4d dc	 lea	 ecx, DWORD PTR $T3[ebp]
  0033a	ff 15 00 00 00
	00		 call	 DWORD PTR __imp_??0?$CStringT@DV?$StrTraitMFC_DLL@DV?$ChTraitsCRT@D@ATL@@@@@ATL@@QAE@PAUIAtlStringMgr@1@@Z
; File C:\Program Files (x86)\Microsoft Visual Studio\2019\Community\VC\Tools\MSVC\14.29.30133\atlmfc\include\atlsimpstr.h

; 519  : 		return( GetData()->nDataLength );

  00340	8b 45 e4	 mov	 eax, DWORD PTR _sTemp1$[ebp]
  00343	8b 4d 0c	 mov	 ecx, DWORD PTR $T9[ebp]
; File C:\Program Files (x86)\Microsoft Visual Studio\2019\Community\VC\Tools\MSVC\14.29.30133\atlmfc\include\cstringt.h

; 2394 : 		return( strResult );

  00346	c7 45 e0 0c 00
	00 00		 mov	 DWORD PTR $T8[ebp], 12	; 0000000cH
  0034d	ff 70 f4	 push	 DWORD PTR [eax-12]
  00350	50		 push	 eax
  00351	ff 71 f4	 push	 DWORD PTR [ecx-12]
  00354	8d 45 dc	 lea	 eax, DWORD PTR $T3[ebp]
  00357	51		 push	 ecx
  00358	50		 push	 eax
  00359	ff 15 00 00 00
	00		 call	 DWORD PTR __imp_?Concatenate@?$CSimpleStringT@D$00@ATL@@KAXAAV12@PBDH1H@Z
  0035f	83 c4 14	 add	 esp, 20			; 00000014H
; File D:\git\src\IBK\IBK_DRFN\ProjSrc\SrcDrfn\Chart\chart_common\Grid\Util.cpp

; 260  : 		szRet = szRet + "." +sTemp1;

  00362	8d 45 dc	 lea	 eax, DWORD PTR $T3[ebp]
  00365	8d 4d ec	 lea	 ecx, DWORD PTR _szRet$[ebp]
  00368	50		 push	 eax
  00369	ff 15 00 00 00
	00		 call	 DWORD PTR __imp_??4?$CStringT@DV?$StrTraitMFC_DLL@DV?$ChTraitsCRT@D@ATL@@@@@ATL@@QAEAAV01@ABV01@@Z
  0036f	8d 4d dc	 lea	 ecx, DWORD PTR $T3[ebp]
  00372	ff 15 00 00 00
	00		 call	 DWORD PTR __imp_??1?$CStringT@DV?$StrTraitMFC_DLL@DV?$ChTraitsCRT@D@ATL@@@@@ATL@@QAE@XZ
  00378	8d 4d 0c	 lea	 ecx, DWORD PTR $T9[ebp]
  0037b	c6 45 fc 05	 mov	 BYTE PTR __$EHRec$[ebp+8], 5
  0037f	ff 15 00 00 00
	00		 call	 DWORD PTR __imp_??1?$CStringT@DV?$StrTraitMFC_DLL@DV?$ChTraitsCRT@D@ATL@@@@@ATL@@QAE@XZ
$LN15@GetComma:

; 261  : 	}
; 262  : 
; 263  : 	return szRet;

  00385	8b 4d 08	 mov	 ecx, DWORD PTR ___$ReturnUdt$[ebp]
  00388	8d 45 ec	 lea	 eax, DWORD PTR _szRet$[ebp]
  0038b	50		 push	 eax
  0038c	ff 15 00 00 00
	00		 call	 DWORD PTR __imp_??0?$CStringT@DV?$StrTraitMFC_DLL@DV?$ChTraitsCRT@D@ATL@@@@@ATL@@QAE@ABV01@@Z
  00392	8d 4d e4	 lea	 ecx, DWORD PTR _sTemp1$[ebp]
  00395	ff 15 00 00 00
	00		 call	 DWORD PTR __imp_??1?$CStringT@DV?$StrTraitMFC_DLL@DV?$ChTraitsCRT@D@ATL@@@@@ATL@@QAE@XZ
  0039b	8d 4d e8	 lea	 ecx, DWORD PTR _sTemp$[ebp]
  0039e	ff 15 00 00 00
	00		 call	 DWORD PTR __imp_??1?$CStringT@DV?$StrTraitMFC_DLL@DV?$ChTraitsCRT@D@ATL@@@@@ATL@@QAE@XZ
$LN110@GetComma:

; 264  : 
; 265  : }

  003a4	8d 4d f0	 lea	 ecx, DWORD PTR _szTmp$[ebp]
  003a7	ff 15 00 00 00
	00		 call	 DWORD PTR __imp_??1?$CStringT@DV?$StrTraitMFC_DLL@DV?$ChTraitsCRT@D@ATL@@@@@ATL@@QAE@XZ
  003ad	8d 4d ec	 lea	 ecx, DWORD PTR _szRet$[ebp]
  003b0	ff 15 00 00 00
	00		 call	 DWORD PTR __imp_??1?$CStringT@DV?$StrTraitMFC_DLL@DV?$ChTraitsCRT@D@ATL@@@@@ATL@@QAE@XZ
  003b6	8b 45 08	 mov	 eax, DWORD PTR ___$ReturnUdt$[ebp]
  003b9	8b 4d f4	 mov	 ecx, DWORD PTR __$EHRec$[ebp]
  003bc	64 89 0d 00 00
	00 00		 mov	 DWORD PTR fs:0, ecx
  003c3	59		 pop	 ecx
  003c4	5f		 pop	 edi
  003c5	5e		 pop	 esi
  003c6	5b		 pop	 ebx
  003c7	8b e5		 mov	 esp, ebp
  003c9	5d		 pop	 ebp
  003ca	c2 08 00	 ret	 8
_TEXT	ENDS
;	COMDAT text$x
text$x	SEGMENT
__unwindfunclet$?GetComma@CUtil@@QAE?AV?$CStringT@DV?$StrTraitMFC_DLL@DV?$ChTraitsCRT@D@ATL@@@@@ATL@@PBD@Z$0:
  00000	8d 4d ec	 lea	 ecx, DWORD PTR _szRet$[ebp]
  00003	ff 25 00 00 00
	00		 jmp	 DWORD PTR __imp_??1?$CStringT@DV?$StrTraitMFC_DLL@DV?$ChTraitsCRT@D@ATL@@@@@ATL@@QAE@XZ
__unwindfunclet$?GetComma@CUtil@@QAE?AV?$CStringT@DV?$StrTraitMFC_DLL@DV?$ChTraitsCRT@D@ATL@@@@@ATL@@PBD@Z$1:
  00009	8d 4d f0	 lea	 ecx, DWORD PTR _szTmp$[ebp]
  0000c	ff 25 00 00 00
	00		 jmp	 DWORD PTR __imp_??1?$CStringT@DV?$StrTraitMFC_DLL@DV?$ChTraitsCRT@D@ATL@@@@@ATL@@QAE@XZ
__unwindfunclet$?GetComma@CUtil@@QAE?AV?$CStringT@DV?$StrTraitMFC_DLL@DV?$ChTraitsCRT@D@ATL@@@@@ATL@@PBD@Z$12:
  00012	8b 45 e0	 mov	 eax, DWORD PTR $T8[ebp]
  00015	83 e0 02	 and	 eax, 2
  00018	0f 84 0d 00 00
	00		 je	 $LN41@GetComma
  0001e	83 65 e0 fd	 and	 DWORD PTR $T8[ebp], -3	; fffffffdH
  00022	8d 4d 0c	 lea	 ecx, DWORD PTR $T10[ebp]
  00025	ff 25 00 00 00
	00		 jmp	 DWORD PTR __imp_??1?$CStringT@DV?$StrTraitMFC_DLL@DV?$ChTraitsCRT@D@ATL@@@@@ATL@@QAE@XZ
$LN41@GetComma:
  0002b	c3		 ret	 0
__unwindfunclet$?GetComma@CUtil@@QAE?AV?$CStringT@DV?$StrTraitMFC_DLL@DV?$ChTraitsCRT@D@ATL@@@@@ATL@@PBD@Z$4:
  0002c	8d 4d dc	 lea	 ecx, DWORD PTR $T7[ebp]
  0002f	ff 25 00 00 00
	00		 jmp	 DWORD PTR __imp_??1?$CStringT@DV?$StrTraitMFC_DLL@DV?$ChTraitsCRT@D@ATL@@@@@ATL@@QAE@XZ
__unwindfunclet$?GetComma@CUtil@@QAE?AV?$CStringT@DV?$StrTraitMFC_DLL@DV?$ChTraitsCRT@D@ATL@@@@@ATL@@PBD@Z$5:
  00035	8d 4d e8	 lea	 ecx, DWORD PTR _sTemp$[ebp]
  00038	ff 25 00 00 00
	00		 jmp	 DWORD PTR __imp_??1?$CStringT@DV?$StrTraitMFC_DLL@DV?$ChTraitsCRT@D@ATL@@@@@ATL@@QAE@XZ
__unwindfunclet$?GetComma@CUtil@@QAE?AV?$CStringT@DV?$StrTraitMFC_DLL@DV?$ChTraitsCRT@D@ATL@@@@@ATL@@PBD@Z$6:
  0003e	8d 4d e4	 lea	 ecx, DWORD PTR _sTemp1$[ebp]
  00041	ff 25 00 00 00
	00		 jmp	 DWORD PTR __imp_??1?$CStringT@DV?$StrTraitMFC_DLL@DV?$ChTraitsCRT@D@ATL@@@@@ATL@@QAE@XZ
__unwindfunclet$?GetComma@CUtil@@QAE?AV?$CStringT@DV?$StrTraitMFC_DLL@DV?$ChTraitsCRT@D@ATL@@@@@ATL@@PBD@Z$7:
  00047	8d 4d dc	 lea	 ecx, DWORD PTR $T6[ebp]
  0004a	ff 25 00 00 00
	00		 jmp	 DWORD PTR __imp_??1?$CStringT@DV?$StrTraitMFC_DLL@DV?$ChTraitsCRT@D@ATL@@@@@ATL@@QAE@XZ
__unwindfunclet$?GetComma@CUtil@@QAE?AV?$CStringT@DV?$StrTraitMFC_DLL@DV?$ChTraitsCRT@D@ATL@@@@@ATL@@PBD@Z$8:
  00050	8d 4d dc	 lea	 ecx, DWORD PTR $T5[ebp]
  00053	ff 25 00 00 00
	00		 jmp	 DWORD PTR __imp_??1?$CStringT@DV?$StrTraitMFC_DLL@DV?$ChTraitsCRT@D@ATL@@@@@ATL@@QAE@XZ
__unwindfunclet$?GetComma@CUtil@@QAE?AV?$CStringT@DV?$StrTraitMFC_DLL@DV?$ChTraitsCRT@D@ATL@@@@@ATL@@PBD@Z$9:
  00059	8d 4d dc	 lea	 ecx, DWORD PTR $T4[ebp]
  0005c	ff 25 00 00 00
	00		 jmp	 DWORD PTR __imp_??1?$CStringT@DV?$StrTraitMFC_DLL@DV?$ChTraitsCRT@D@ATL@@@@@ATL@@QAE@XZ
__unwindfunclet$?GetComma@CUtil@@QAE?AV?$CStringT@DV?$StrTraitMFC_DLL@DV?$ChTraitsCRT@D@ATL@@@@@ATL@@PBD@Z$13:
  00062	8b 45 e0	 mov	 eax, DWORD PTR $T8[ebp]
  00065	83 e0 04	 and	 eax, 4
  00068	0f 84 0d 00 00
	00		 je	 $LN68@GetComma
  0006e	83 65 e0 fb	 and	 DWORD PTR $T8[ebp], -5	; fffffffbH
  00072	8d 4d 0c	 lea	 ecx, DWORD PTR $T9[ebp]
  00075	ff 25 00 00 00
	00		 jmp	 DWORD PTR __imp_??1?$CStringT@DV?$StrTraitMFC_DLL@DV?$ChTraitsCRT@D@ATL@@@@@ATL@@QAE@XZ
$LN68@GetComma:
  0007b	c3		 ret	 0
__unwindfunclet$?GetComma@CUtil@@QAE?AV?$CStringT@DV?$StrTraitMFC_DLL@DV?$ChTraitsCRT@D@ATL@@@@@ATL@@PBD@Z$14:
  0007c	8b 45 e0	 mov	 eax, DWORD PTR $T8[ebp]
  0007f	83 e0 08	 and	 eax, 8
  00082	0f 84 0d 00 00
	00		 je	 $LN81@GetComma
  00088	83 65 e0 f7	 and	 DWORD PTR $T8[ebp], -9	; fffffff7H
  0008c	8d 4d dc	 lea	 ecx, DWORD PTR $T3[ebp]
  0008f	ff 25 00 00 00
	00		 jmp	 DWORD PTR __imp_??1?$CStringT@DV?$StrTraitMFC_DLL@DV?$ChTraitsCRT@D@ATL@@@@@ATL@@QAE@XZ
$LN81@GetComma:
  00095	c3		 ret	 0
  00096	cc		 int	 3
  00097	cc		 int	 3
  00098	cc		 int	 3
  00099	cc		 int	 3
  0009a	cc		 int	 3
__ehhandler$?GetComma@CUtil@@QAE?AV?$CStringT@DV?$StrTraitMFC_DLL@DV?$ChTraitsCRT@D@ATL@@@@@ATL@@PBD@Z:
  0009b	90		 npad	 1
  0009c	90		 npad	 1
  0009d	8b 54 24 08	 mov	 edx, DWORD PTR [esp+8]
  000a1	8d 42 0c	 lea	 eax, DWORD PTR [edx+12]
  000a4	8b 4a d8	 mov	 ecx, DWORD PTR [edx-40]
  000a7	33 c8		 xor	 ecx, eax
  000a9	e8 00 00 00 00	 call	 @__security_check_cookie@4
  000ae	b8 00 00 00 00	 mov	 eax, OFFSET __ehfuncinfo$?GetComma@CUtil@@QAE?AV?$CStringT@DV?$StrTraitMFC_DLL@DV?$ChTraitsCRT@D@ATL@@@@@ATL@@PBD@Z
  000b3	e9 00 00 00 00	 jmp	 ___CxxFrameHandler3
text$x	ENDS
?GetComma@CUtil@@QAE?AV?$CStringT@DV?$StrTraitMFC_DLL@DV?$ChTraitsCRT@D@ATL@@@@@ATL@@PBD@Z ENDP ; CUtil::GetComma
; Function compile flags: /Ogtp
; File D:\git\src\IBK\IBK_DRFN\ProjSrc\SrcDrfn\Chart\chart_common\Grid\Util.cpp
;	COMDAT ?RemoveFront@CUtil@@QAEPADPBDD@Z
_TEXT	SEGMENT
_pData$ = 8						; size = 4
_ch$ = 12						; size = 1
?RemoveFront@CUtil@@QAEPADPBDD@Z PROC			; CUtil::RemoveFront, COMDAT
; _this$ = ecx

; 104  : {

  00000	55		 push	 ebp
  00001	8b ec		 mov	 ebp, esp
  00003	53		 push	 ebx
  00004	56		 push	 esi
  00005	57		 push	 edi

; 105  : 	int nLen = strlen(pData);

  00006	8b 7d 08	 mov	 edi, DWORD PTR _pData$[ebp]
  00009	8b c7		 mov	 eax, edi
  0000b	8d 50 01	 lea	 edx, DWORD PTR [eax+1]
  0000e	66 90		 npad	 2
$LL13@RemoveFron:
  00010	8a 08		 mov	 cl, BYTE PTR [eax]
  00012	40		 inc	 eax
  00013	84 c9		 test	 cl, cl
  00015	75 f9		 jne	 SHORT $LL13@RemoveFron

; 106  : 	int nSameCharCnt = 0;
; 107  : 
; 108  : 	for(int i=0;  i<nLen ; i++) 

  00017	8a 5d 0c	 mov	 bl, BYTE PTR _ch$[ebp]
  0001a	2b c2		 sub	 eax, edx
  0001c	33 d2		 xor	 edx, edx
  0001e	33 c9		 xor	 ecx, ecx
  00020	85 c0		 test	 eax, eax
  00022	7e 0e		 jle	 SHORT $LN3@RemoveFron
$LL4@RemoveFron:

; 109  : 	{  
; 110  : 		if(pData[i]!=ch) return (char *)&pData[i];

  00024	38 1c 39	 cmp	 BYTE PTR [ecx+edi], bl
  00027	8d 34 39	 lea	 esi, DWORD PTR [ecx+edi]
  0002a	75 19		 jne	 SHORT $LN9@RemoveFron

; 111  : 		nSameCharCnt++;

  0002c	41		 inc	 ecx
  0002d	42		 inc	 edx
  0002e	3b c8		 cmp	 ecx, eax
  00030	7c f2		 jl	 SHORT $LL4@RemoveFron
$LN3@RemoveFron:

; 112  : 	}
; 113  : 
; 114  : 	//같은 길이를 가진 
; 115  : 	if(ch == '0' && nSameCharCnt == nLen)

  00032	80 fb 30	 cmp	 bl, 48			; 00000030H
  00035	75 17		 jne	 SHORT $LN6@RemoveFron
  00037	3b d0		 cmp	 edx, eax
  00039	75 13		 jne	 SHORT $LN6@RemoveFron

; 116  : 	{
; 117  : 		return (char*)&pData[nLen-1] ;

  0003b	48		 dec	 eax
  0003c	03 c7		 add	 eax, edi
  0003e	5f		 pop	 edi

; 121  : }

  0003f	5e		 pop	 esi
  00040	5b		 pop	 ebx
  00041	5d		 pop	 ebp
  00042	c2 08 00	 ret	 8
$LN9@RemoveFron:
  00045	5f		 pop	 edi

; 109  : 	{  
; 110  : 		if(pData[i]!=ch) return (char *)&pData[i];

  00046	8b c6		 mov	 eax, esi

; 121  : }

  00048	5e		 pop	 esi
  00049	5b		 pop	 ebx
  0004a	5d		 pop	 ebp
  0004b	c2 08 00	 ret	 8
$LN6@RemoveFron:

; 118  : 	}
; 119  : 
; 120  : 	return (char *)pData;

  0004e	8b c7		 mov	 eax, edi
  00050	5f		 pop	 edi

; 121  : }

  00051	5e		 pop	 esi
  00052	5b		 pop	 ebx
  00053	5d		 pop	 ebp
  00054	c2 08 00	 ret	 8
?RemoveFront@CUtil@@QAEPADPBDD@Z ENDP			; CUtil::RemoveFront
_TEXT	ENDS
; Function compile flags: /Ogtp
; File D:\git\src\IBK\IBK_DRFN\ProjSrc\SrcDrfn\Chart\chart_common\Grid\Util.cpp
; File C:\Program Files (x86)\Microsoft Visual Studio\2019\Community\VC\Tools\MSVC\14.29.30133\atlmfc\include\atlsimpstr.h
; File D:\git\src\IBK\IBK_DRFN\ProjSrc\SrcDrfn\Chart\chart_common\Grid\Util.cpp
; File C:\Program Files (x86)\Microsoft Visual Studio\2019\Community\VC\Tools\MSVC\14.29.30133\atlmfc\include\atlsimpstr.h
; File D:\git\src\IBK\IBK_DRFN\ProjSrc\SrcDrfn\Chart\chart_common\Grid\Util.cpp
;	COMDAT ?RemoveAll@CUtil@@QAEHAAV?$CStringT@DV?$StrTraitMFC_DLL@DV?$ChTraitsCRT@D@ATL@@@@@ATL@@D@Z
_TEXT	SEGMENT
_nRemove$1$ = -20					; size = 4
_szTmp$ = -16						; size = 4
__$EHRec$ = -12						; size = 12
_strIn$ = 8						; size = 4
_ch$ = 12						; size = 1
?RemoveAll@CUtil@@QAEHAAV?$CStringT@DV?$StrTraitMFC_DLL@DV?$ChTraitsCRT@D@ATL@@@@@ATL@@D@Z PROC ; CUtil::RemoveAll, COMDAT
; _this$ = ecx

; 84   : {

  00000	55		 push	 ebp
  00001	8b ec		 mov	 ebp, esp
  00003	6a ff		 push	 -1
  00005	68 00 00 00 00	 push	 __ehhandler$?RemoveAll@CUtil@@QAEHAAV?$CStringT@DV?$StrTraitMFC_DLL@DV?$ChTraitsCRT@D@ATL@@@@@ATL@@D@Z
  0000a	64 a1 00 00 00
	00		 mov	 eax, DWORD PTR fs:0
  00010	50		 push	 eax
  00011	83 ec 08	 sub	 esp, 8
  00014	53		 push	 ebx
  00015	56		 push	 esi
  00016	57		 push	 edi
  00017	a1 00 00 00 00	 mov	 eax, DWORD PTR ___security_cookie
  0001c	33 c5		 xor	 eax, ebp
  0001e	50		 push	 eax
  0001f	8d 45 f4	 lea	 eax, DWORD PTR __$EHRec$[ebp]
  00022	64 a3 00 00 00
	00		 mov	 DWORD PTR fs:0, eax

; 85   : 	CString	szTmp;

  00028	8d 4d f0	 lea	 ecx, DWORD PTR _szTmp$[ebp]
  0002b	ff 15 00 00 00
	00		 call	 DWORD PTR __imp_??0?$CStringT@DV?$StrTraitMFC_DLL@DV?$ChTraitsCRT@D@ATL@@@@@ATL@@QAE@XZ
; File C:\Program Files (x86)\Microsoft Visual Studio\2019\Community\VC\Tools\MSVC\14.29.30133\atlmfc\include\atlsimpstr.h

; 519  : 		return( GetData()->nDataLength );

  00031	8b 7d 08	 mov	 edi, DWORD PTR _strIn$[ebp]
; File D:\git\src\IBK\IBK_DRFN\ProjSrc\SrcDrfn\Chart\chart_common\Grid\Util.cpp

; 85   : 	CString	szTmp;

  00034	33 f6		 xor	 esi, esi
  00036	c7 45 fc 00 00
	00 00		 mov	 DWORD PTR __$EHRec$[ebp+8], 0

; 86   : 	int	nRemove=0;

  0003d	c7 45 ec 00 00
	00 00		 mov	 DWORD PTR _nRemove$1$[ebp], 0
; File C:\Program Files (x86)\Microsoft Visual Studio\2019\Community\VC\Tools\MSVC\14.29.30133\atlmfc\include\atlsimpstr.h

; 519  : 		return( GetData()->nDataLength );

  00044	8b 07		 mov	 eax, DWORD PTR [edi]
  00046	8b 58 f4	 mov	 ebx, DWORD PTR [eax-12]
; File D:\git\src\IBK\IBK_DRFN\ProjSrc\SrcDrfn\Chart\chart_common\Grid\Util.cpp

; 89   : 	for(int i=0;   i<nLen;  i++) {

  00049	85 db		 test	 ebx, ebx
  0004b	7e 2f		 jle	 SHORT $LN3@RemoveAll
  0004d	0f 1f 00	 npad	 3
$LL4@RemoveAll:

; 90   : 		if(strIn[i]!=ch) {

  00050	56		 push	 esi
  00051	8b cf		 mov	 ecx, edi
  00053	ff 15 00 00 00
	00		 call	 DWORD PTR __imp_??A?$CSimpleStringT@D$00@ATL@@QBEDH@Z
  00059	3a 45 0c	 cmp	 al, BYTE PTR _ch$[ebp]
  0005c	74 19		 je	 SHORT $LN2@RemoveAll

; 91   : 			szTmp += strIn[i];

  0005e	56		 push	 esi
  0005f	8b cf		 mov	 ecx, edi
  00061	ff 15 00 00 00
	00		 call	 DWORD PTR __imp_??A?$CSimpleStringT@D$00@ATL@@QBEDH@Z
  00067	0f b6 c0	 movzx	 eax, al
  0006a	8d 4d f0	 lea	 ecx, DWORD PTR _szTmp$[ebp]
  0006d	50		 push	 eax
  0006e	ff 15 00 00 00
	00		 call	 DWORD PTR __imp_??Y?$CStringT@DV?$StrTraitMFC_DLL@DV?$ChTraitsCRT@D@ATL@@@@@ATL@@QAEAAV01@D@Z

; 92   : 			nRemove++;

  00074	ff 45 ec	 inc	 DWORD PTR _nRemove$1$[ebp]
$LN2@RemoveAll:

; 89   : 	for(int i=0;   i<nLen;  i++) {

  00077	46		 inc	 esi
  00078	3b f3		 cmp	 esi, ebx
  0007a	7c d4		 jl	 SHORT $LL4@RemoveAll
$LN3@RemoveAll:

; 93   : 		}
; 94   : 	}
; 95   : 
; 96   : 	strIn.Empty();

  0007c	8b cf		 mov	 ecx, edi
  0007e	ff 15 00 00 00
	00		 call	 DWORD PTR __imp_?Empty@?$CSimpleStringT@D$00@ATL@@QAEXXZ

; 97   : 	strIn = szTmp;

  00084	8d 45 f0	 lea	 eax, DWORD PTR _szTmp$[ebp]
  00087	8b cf		 mov	 ecx, edi
  00089	50		 push	 eax
  0008a	ff 15 00 00 00
	00		 call	 DWORD PTR __imp_??4?$CStringT@DV?$StrTraitMFC_DLL@DV?$ChTraitsCRT@D@ATL@@@@@ATL@@QAEAAV01@ABV01@@Z

; 98   : 	szTmp.Empty();

  00090	8d 4d f0	 lea	 ecx, DWORD PTR _szTmp$[ebp]
  00093	ff 15 00 00 00
	00		 call	 DWORD PTR __imp_?Empty@?$CSimpleStringT@D$00@ATL@@QAEXXZ

; 99   : 
; 100  : 	return nRemove;

  00099	8d 4d f0	 lea	 ecx, DWORD PTR _szTmp$[ebp]
  0009c	ff 15 00 00 00
	00		 call	 DWORD PTR __imp_??1?$CStringT@DV?$StrTraitMFC_DLL@DV?$ChTraitsCRT@D@ATL@@@@@ATL@@QAE@XZ
  000a2	8b 45 ec	 mov	 eax, DWORD PTR _nRemove$1$[ebp]

; 101  : }

  000a5	8b 4d f4	 mov	 ecx, DWORD PTR __$EHRec$[ebp]
  000a8	64 89 0d 00 00
	00 00		 mov	 DWORD PTR fs:0, ecx
  000af	59		 pop	 ecx
  000b0	5f		 pop	 edi
  000b1	5e		 pop	 esi
  000b2	5b		 pop	 ebx
  000b3	8b e5		 mov	 esp, ebp
  000b5	5d		 pop	 ebp
  000b6	c2 08 00	 ret	 8
_TEXT	ENDS
;	COMDAT text$x
text$x	SEGMENT
__unwindfunclet$?RemoveAll@CUtil@@QAEHAAV?$CStringT@DV?$StrTraitMFC_DLL@DV?$ChTraitsCRT@D@ATL@@@@@ATL@@D@Z$0:
  00000	8d 4d f0	 lea	 ecx, DWORD PTR _szTmp$[ebp]
  00003	ff 25 00 00 00
	00		 jmp	 DWORD PTR __imp_??1?$CStringT@DV?$StrTraitMFC_DLL@DV?$ChTraitsCRT@D@ATL@@@@@ATL@@QAE@XZ
  00009	cc		 int	 3
  0000a	cc		 int	 3
  0000b	cc		 int	 3
  0000c	cc		 int	 3
  0000d	cc		 int	 3
__ehhandler$?RemoveAll@CUtil@@QAEHAAV?$CStringT@DV?$StrTraitMFC_DLL@DV?$ChTraitsCRT@D@ATL@@@@@ATL@@D@Z:
  0000e	90		 npad	 1
  0000f	90		 npad	 1
  00010	8b 54 24 08	 mov	 edx, DWORD PTR [esp+8]
  00014	8d 42 0c	 lea	 eax, DWORD PTR [edx+12]
  00017	8b 4a e8	 mov	 ecx, DWORD PTR [edx-24]
  0001a	33 c8		 xor	 ecx, eax
  0001c	e8 00 00 00 00	 call	 @__security_check_cookie@4
  00021	b8 00 00 00 00	 mov	 eax, OFFSET __ehfuncinfo$?RemoveAll@CUtil@@QAEHAAV?$CStringT@DV?$StrTraitMFC_DLL@DV?$ChTraitsCRT@D@ATL@@@@@ATL@@D@Z
  00026	e9 00 00 00 00	 jmp	 ___CxxFrameHandler3
text$x	ENDS
?RemoveAll@CUtil@@QAEHAAV?$CStringT@DV?$StrTraitMFC_DLL@DV?$ChTraitsCRT@D@ATL@@@@@ATL@@D@Z ENDP ; CUtil::RemoveAll
; Function compile flags: /Ogtp
; File D:\git\src\IBK\IBK_DRFN\ProjSrc\SrcDrfn\Chart\chart_common\Grid\Util.cpp
; File C:\Program Files (x86)\Microsoft Visual Studio\2019\Community\VC\Tools\MSVC\14.29.30133\atlmfc\include\atlsimpstr.h
; File D:\git\src\IBK\IBK_DRFN\ProjSrc\SrcDrfn\Chart\chart_common\Grid\Util.cpp
; File C:\Program Files (x86)\Microsoft Visual Studio\2019\Community\VC\Tools\MSVC\14.29.30133\atlmfc\include\atlsimpstr.h
; File D:\git\src\IBK\IBK_DRFN\ProjSrc\SrcDrfn\Chart\chart_common\Grid\Util.cpp
; File C:\Program Files (x86)\Microsoft Visual Studio\2019\Community\VC\Tools\MSVC\14.29.30133\atlmfc\include\atlsimpstr.h
; File D:\git\src\IBK\IBK_DRFN\ProjSrc\SrcDrfn\Chart\chart_common\Grid\Util.cpp
; File C:\Program Files (x86)\Microsoft Visual Studio\2019\Community\VC\Tools\MSVC\14.29.30133\atlmfc\include\atlsimpstr.h
; File D:\git\src\IBK\IBK_DRFN\ProjSrc\SrcDrfn\Chart\chart_common\Grid\Util.cpp
;	COMDAT ?Remove@CUtil@@QAEHAAV?$CStringT@DV?$StrTraitMFC_DLL@DV?$ChTraitsCRT@D@ATL@@@@@ATL@@DH@Z
_TEXT	SEGMENT
_szTmp$ = -16						; size = 4
__$EHRec$ = -12						; size = 12
_nLen$1$ = 8						; size = 4
_nLen$1$ = 8						; size = 4
_strIn$ = 8						; size = 4
_ch$ = 12						; size = 1
_szTmp$2 = 16						; size = 4
_nIndex$ = 16						; size = 4
?Remove@CUtil@@QAEHAAV?$CStringT@DV?$StrTraitMFC_DLL@DV?$ChTraitsCRT@D@ATL@@@@@ATL@@DH@Z PROC ; CUtil::Remove, COMDAT
; _this$ = ecx

; 60   : {

  00000	55		 push	 ebp
  00001	8b ec		 mov	 ebp, esp
  00003	6a ff		 push	 -1
  00005	68 00 00 00 00	 push	 __ehhandler$?Remove@CUtil@@QAEHAAV?$CStringT@DV?$StrTraitMFC_DLL@DV?$ChTraitsCRT@D@ATL@@@@@ATL@@DH@Z
  0000a	64 a1 00 00 00
	00		 mov	 eax, DWORD PTR fs:0
  00010	50		 push	 eax
  00011	51		 push	 ecx
  00012	53		 push	 ebx
  00013	56		 push	 esi
  00014	57		 push	 edi
  00015	a1 00 00 00 00	 mov	 eax, DWORD PTR ___security_cookie
  0001a	33 c5		 xor	 eax, ebp
  0001c	50		 push	 eax
  0001d	8d 45 f4	 lea	 eax, DWORD PTR __$EHRec$[ebp]
  00020	64 a3 00 00 00
	00		 mov	 DWORD PTR fs:0, eax

; 61   : 	if(nIndex==0)	return 0;

  00026	8b 45 10	 mov	 eax, DWORD PTR _nIndex$[ebp]
  00029	85 c0		 test	 eax, eax
  0002b	75 14		 jne	 SHORT $LN5@Remove

; 81   : }

  0002d	8b 4d f4	 mov	 ecx, DWORD PTR __$EHRec$[ebp]
  00030	64 89 0d 00 00
	00 00		 mov	 DWORD PTR fs:0, ecx
  00037	59		 pop	 ecx
  00038	5f		 pop	 edi
  00039	5e		 pop	 esi
  0003a	5b		 pop	 ebx
  0003b	8b e5		 mov	 esp, ebp
  0003d	5d		 pop	 ebp
  0003e	c2 0c 00	 ret	 12			; 0000000cH
$LN5@Remove:

; 62   : 	if( nIndex == -1) return RemoveAll( strIn, ch );

  00041	83 f8 ff	 cmp	 eax, -1
  00044	0f 85 8d 00 00
	00		 jne	 $LN6@Remove

; 85   : 	CString	szTmp;

  0004a	8d 4d 10	 lea	 ecx, DWORD PTR _szTmp$2[ebp]
  0004d	ff 15 00 00 00
	00		 call	 DWORD PTR __imp_??0?$CStringT@DV?$StrTraitMFC_DLL@DV?$ChTraitsCRT@D@ATL@@@@@ATL@@QAE@XZ
; File C:\Program Files (x86)\Microsoft Visual Studio\2019\Community\VC\Tools\MSVC\14.29.30133\atlmfc\include\atlsimpstr.h

; 519  : 		return( GetData()->nDataLength );

  00053	8b 7d 08	 mov	 edi, DWORD PTR _strIn$[ebp]
; File D:\git\src\IBK\IBK_DRFN\ProjSrc\SrcDrfn\Chart\chart_common\Grid\Util.cpp

; 86   : 	int	nRemove=0;

  00056	33 db		 xor	 ebx, ebx
  00058	33 f6		 xor	 esi, esi
  0005a	c7 45 fc 00 00
	00 00		 mov	 DWORD PTR __$EHRec$[ebp+8], 0
; File C:\Program Files (x86)\Microsoft Visual Studio\2019\Community\VC\Tools\MSVC\14.29.30133\atlmfc\include\atlsimpstr.h

; 519  : 		return( GetData()->nDataLength );

  00061	8b 07		 mov	 eax, DWORD PTR [edi]
  00063	8b 40 f4	 mov	 eax, DWORD PTR [eax-12]
  00066	89 45 08	 mov	 DWORD PTR _nLen$1$[ebp], eax
; File D:\git\src\IBK\IBK_DRFN\ProjSrc\SrcDrfn\Chart\chart_common\Grid\Util.cpp

; 89   : 	for(int i=0;   i<nLen;  i++) {

  00069	85 c0		 test	 eax, eax
  0006b	7e 2e		 jle	 SHORT $LN13@Remove
  0006d	0f 1f 00	 npad	 3
$LL14@Remove:

; 90   : 		if(strIn[i]!=ch) {

  00070	56		 push	 esi
  00071	8b cf		 mov	 ecx, edi
  00073	ff 15 00 00 00
	00		 call	 DWORD PTR __imp_??A?$CSimpleStringT@D$00@ATL@@QBEDH@Z
  00079	3a 45 0c	 cmp	 al, BYTE PTR _ch$[ebp]
  0007c	74 17		 je	 SHORT $LN12@Remove

; 91   : 			szTmp += strIn[i];

  0007e	56		 push	 esi
  0007f	8b cf		 mov	 ecx, edi
  00081	ff 15 00 00 00
	00		 call	 DWORD PTR __imp_??A?$CSimpleStringT@D$00@ATL@@QBEDH@Z
  00087	0f b6 c0	 movzx	 eax, al
  0008a	8d 4d 10	 lea	 ecx, DWORD PTR _szTmp$2[ebp]
  0008d	50		 push	 eax
  0008e	ff 15 00 00 00
	00		 call	 DWORD PTR __imp_??Y?$CStringT@DV?$StrTraitMFC_DLL@DV?$ChTraitsCRT@D@ATL@@@@@ATL@@QAEAAV01@D@Z

; 92   : 			nRemove++;

  00094	43		 inc	 ebx
$LN12@Remove:

; 89   : 	for(int i=0;   i<nLen;  i++) {

  00095	46		 inc	 esi
  00096	3b 75 08	 cmp	 esi, DWORD PTR _nLen$1$[ebp]
  00099	7c d5		 jl	 SHORT $LL14@Remove
$LN13@Remove:

; 93   : 		}
; 94   : 	}
; 95   : 
; 96   : 	strIn.Empty();

  0009b	8b cf		 mov	 ecx, edi
  0009d	ff 15 00 00 00
	00		 call	 DWORD PTR __imp_?Empty@?$CSimpleStringT@D$00@ATL@@QAEXXZ

; 97   : 	strIn = szTmp;

  000a3	8d 45 10	 lea	 eax, DWORD PTR _szTmp$2[ebp]
  000a6	8b cf		 mov	 ecx, edi
  000a8	50		 push	 eax
  000a9	ff 15 00 00 00
	00		 call	 DWORD PTR __imp_??4?$CStringT@DV?$StrTraitMFC_DLL@DV?$ChTraitsCRT@D@ATL@@@@@ATL@@QAEAAV01@ABV01@@Z

; 98   : 	szTmp.Empty();

  000af	8d 4d 10	 lea	 ecx, DWORD PTR _szTmp$2[ebp]
  000b2	ff 15 00 00 00
	00		 call	 DWORD PTR __imp_?Empty@?$CSimpleStringT@D$00@ATL@@QAEXXZ

; 99   : 
; 100  : 	return nRemove;

  000b8	8d 4d 10	 lea	 ecx, DWORD PTR _szTmp$2[ebp]
  000bb	ff 15 00 00 00
	00		 call	 DWORD PTR __imp_??1?$CStringT@DV?$StrTraitMFC_DLL@DV?$ChTraitsCRT@D@ATL@@@@@ATL@@QAE@XZ

; 62   : 	if( nIndex == -1) return RemoveAll( strIn, ch );

  000c1	8b c3		 mov	 eax, ebx

; 81   : }

  000c3	8b 4d f4	 mov	 ecx, DWORD PTR __$EHRec$[ebp]
  000c6	64 89 0d 00 00
	00 00		 mov	 DWORD PTR fs:0, ecx
  000cd	59		 pop	 ecx
  000ce	5f		 pop	 edi
  000cf	5e		 pop	 esi
  000d0	5b		 pop	 ebx
  000d1	8b e5		 mov	 esp, ebp
  000d3	5d		 pop	 ebp
  000d4	c2 0c 00	 ret	 12			; 0000000cH
$LN6@Remove:

; 63   : 
; 64   : 	CString szTmp;

  000d7	8d 4d f0	 lea	 ecx, DWORD PTR _szTmp$[ebp]
  000da	ff 15 00 00 00
	00		 call	 DWORD PTR __imp_??0?$CStringT@DV?$StrTraitMFC_DLL@DV?$ChTraitsCRT@D@ATL@@@@@ATL@@QAE@XZ
; File C:\Program Files (x86)\Microsoft Visual Studio\2019\Community\VC\Tools\MSVC\14.29.30133\atlmfc\include\atlsimpstr.h

; 519  : 		return( GetData()->nDataLength );

  000e0	8b 5d 08	 mov	 ebx, DWORD PTR _strIn$[ebp]
; File D:\git\src\IBK\IBK_DRFN\ProjSrc\SrcDrfn\Chart\chart_common\Grid\Util.cpp

; 66   : 	int	nFoundIndex=0;

  000e3	33 ff		 xor	 edi, edi
  000e5	33 f6		 xor	 esi, esi
  000e7	c7 45 fc 01 00
	00 00		 mov	 DWORD PTR __$EHRec$[ebp+8], 1
; File C:\Program Files (x86)\Microsoft Visual Studio\2019\Community\VC\Tools\MSVC\14.29.30133\atlmfc\include\atlsimpstr.h

; 519  : 		return( GetData()->nDataLength );

  000ee	8b 03		 mov	 eax, DWORD PTR [ebx]
  000f0	8b 40 f4	 mov	 eax, DWORD PTR [eax-12]
  000f3	89 45 08	 mov	 DWORD PTR _nLen$1$[ebp], eax
; File D:\git\src\IBK\IBK_DRFN\ProjSrc\SrcDrfn\Chart\chart_common\Grid\Util.cpp

; 68   : 	for(int i=0;   i<nLen;	i++) {

  000f6	85 c0		 test	 eax, eax
  000f8	7e 4c		 jle	 SHORT $LN3@Remove
  000fa	66 0f 1f 44 00
	00		 npad	 6
$LL4@Remove:

; 69   : 		if( strIn[i]==ch ) {

  00100	56		 push	 esi
  00101	8b cb		 mov	 ecx, ebx
  00103	ff 15 00 00 00
	00		 call	 DWORD PTR __imp_??A?$CSimpleStringT@D$00@ATL@@QBEDH@Z
  00109	3a 45 0c	 cmp	 al, BYTE PTR _ch$[ebp]
  0010c	75 1c		 jne	 SHORT $LN8@Remove

; 70   : 			nFoundIndex ++;

  0010e	47		 inc	 edi

; 71   : 			if(nFoundIndex != nIndex) szTmp += strIn[i];

  0010f	3b 7d 10	 cmp	 edi, DWORD PTR _nIndex$[ebp]
  00112	74 16		 je	 SHORT $LN8@Remove
  00114	56		 push	 esi
  00115	8b cb		 mov	 ecx, ebx
  00117	ff 15 00 00 00
	00		 call	 DWORD PTR __imp_??A?$CSimpleStringT@D$00@ATL@@QBEDH@Z
  0011d	0f b6 c0	 movzx	 eax, al
  00120	8d 4d f0	 lea	 ecx, DWORD PTR _szTmp$[ebp]
  00123	50		 push	 eax
  00124	ff 15 00 00 00
	00		 call	 DWORD PTR __imp_??Y?$CStringT@DV?$StrTraitMFC_DLL@DV?$ChTraitsCRT@D@ATL@@@@@ATL@@QAEAAV01@D@Z
$LN8@Remove:

; 72   : 		}
; 73   : 		szTmp += strIn[i];

  0012a	56		 push	 esi
  0012b	8b cb		 mov	 ecx, ebx
  0012d	ff 15 00 00 00
	00		 call	 DWORD PTR __imp_??A?$CSimpleStringT@D$00@ATL@@QBEDH@Z
  00133	0f b6 c0	 movzx	 eax, al
  00136	8d 4d f0	 lea	 ecx, DWORD PTR _szTmp$[ebp]
  00139	50		 push	 eax
  0013a	ff 15 00 00 00
	00		 call	 DWORD PTR __imp_??Y?$CStringT@DV?$StrTraitMFC_DLL@DV?$ChTraitsCRT@D@ATL@@@@@ATL@@QAEAAV01@D@Z
  00140	46		 inc	 esi
  00141	3b 75 08	 cmp	 esi, DWORD PTR _nLen$1$[ebp]
  00144	7c ba		 jl	 SHORT $LL4@Remove
$LN3@Remove:

; 74   : 	}
; 75   : 
; 76   : 	strIn.Empty();

  00146	8b cb		 mov	 ecx, ebx
  00148	ff 15 00 00 00
	00		 call	 DWORD PTR __imp_?Empty@?$CSimpleStringT@D$00@ATL@@QAEXXZ

; 77   : 	strIn = szTmp;

  0014e	8d 45 f0	 lea	 eax, DWORD PTR _szTmp$[ebp]
  00151	8b cb		 mov	 ecx, ebx
  00153	50		 push	 eax
  00154	ff 15 00 00 00
	00		 call	 DWORD PTR __imp_??4?$CStringT@DV?$StrTraitMFC_DLL@DV?$ChTraitsCRT@D@ATL@@@@@ATL@@QAEAAV01@ABV01@@Z

; 78   : 	szTmp.Empty();

  0015a	8d 4d f0	 lea	 ecx, DWORD PTR _szTmp$[ebp]
  0015d	ff 15 00 00 00
	00		 call	 DWORD PTR __imp_?Empty@?$CSimpleStringT@D$00@ATL@@QAEXXZ

; 79   : 
; 80   : 	return (nFoundIndex>0)? 1:0 ;

  00163	8d 4d f0	 lea	 ecx, DWORD PTR _szTmp$[ebp]
  00166	ff 15 00 00 00
	00		 call	 DWORD PTR __imp_??1?$CStringT@DV?$StrTraitMFC_DLL@DV?$ChTraitsCRT@D@ATL@@@@@ATL@@QAE@XZ
  0016c	33 c0		 xor	 eax, eax
  0016e	85 ff		 test	 edi, edi
  00170	0f 9f c0	 setg	 al

; 81   : }

  00173	8b 4d f4	 mov	 ecx, DWORD PTR __$EHRec$[ebp]
  00176	64 89 0d 00 00
	00 00		 mov	 DWORD PTR fs:0, ecx
  0017d	59		 pop	 ecx
  0017e	5f		 pop	 edi
  0017f	5e		 pop	 esi
  00180	5b		 pop	 ebx
  00181	8b e5		 mov	 esp, ebp
  00183	5d		 pop	 ebp
  00184	c2 0c 00	 ret	 12			; 0000000cH
_TEXT	ENDS
;	COMDAT text$x
text$x	SEGMENT
__unwindfunclet$?Remove@CUtil@@QAEHAAV?$CStringT@DV?$StrTraitMFC_DLL@DV?$ChTraitsCRT@D@ATL@@@@@ATL@@DH@Z$1:
  00000	8d 4d 10	 lea	 ecx, DWORD PTR _szTmp$2[ebp]
  00003	ff 25 00 00 00
	00		 jmp	 DWORD PTR __imp_??1?$CStringT@DV?$StrTraitMFC_DLL@DV?$ChTraitsCRT@D@ATL@@@@@ATL@@QAE@XZ
__unwindfunclet$?Remove@CUtil@@QAEHAAV?$CStringT@DV?$StrTraitMFC_DLL@DV?$ChTraitsCRT@D@ATL@@@@@ATL@@DH@Z$0:
  00009	8d 4d f0	 lea	 ecx, DWORD PTR _szTmp$[ebp]
  0000c	ff 25 00 00 00
	00		 jmp	 DWORD PTR __imp_??1?$CStringT@DV?$StrTraitMFC_DLL@DV?$ChTraitsCRT@D@ATL@@@@@ATL@@QAE@XZ
  00012	cc		 int	 3
  00013	cc		 int	 3
  00014	cc		 int	 3
  00015	cc		 int	 3
  00016	cc		 int	 3
__ehhandler$?Remove@CUtil@@QAEHAAV?$CStringT@DV?$StrTraitMFC_DLL@DV?$ChTraitsCRT@D@ATL@@@@@ATL@@DH@Z:
  00017	90		 npad	 1
  00018	90		 npad	 1
  00019	8b 54 24 08	 mov	 edx, DWORD PTR [esp+8]
  0001d	8d 42 0c	 lea	 eax, DWORD PTR [edx+12]
  00020	8b 4a ec	 mov	 ecx, DWORD PTR [edx-20]
  00023	33 c8		 xor	 ecx, eax
  00025	e8 00 00 00 00	 call	 @__security_check_cookie@4
  0002a	b8 00 00 00 00	 mov	 eax, OFFSET __ehfuncinfo$?Remove@CUtil@@QAEHAAV?$CStringT@DV?$StrTraitMFC_DLL@DV?$ChTraitsCRT@D@ATL@@@@@ATL@@DH@Z
  0002f	e9 00 00 00 00	 jmp	 ___CxxFrameHandler3
text$x	ENDS
?Remove@CUtil@@QAEHAAV?$CStringT@DV?$StrTraitMFC_DLL@DV?$ChTraitsCRT@D@ATL@@@@@ATL@@DH@Z ENDP ; CUtil::Remove
; Function compile flags: /Ogtp
; File D:\git\src\IBK\IBK_DRFN\ProjSrc\SrcDrfn\Chart\chart_common\Grid\Util.cpp
;	COMDAT ?IsOnlyNumber@CUtil@@QAEHPBD@Z
_TEXT	SEGMENT
tv66 = 8						; size = 4
_szData$ = 8						; size = 4
?IsOnlyNumber@CUtil@@QAEHPBD@Z PROC			; CUtil::IsOnlyNumber, COMDAT
; _this$ = ecx

; 150  : {

  00000	55		 push	 ebp
  00001	8b ec		 mov	 ebp, esp

; 151  : 	if(strlen(szData)==0) return TRUE;

  00003	8b 4d 08	 mov	 ecx, DWORD PTR _szData$[ebp]
  00006	8b d1		 mov	 edx, ecx
  00008	56		 push	 esi
  00009	8d 72 01	 lea	 esi, DWORD PTR [edx+1]
  0000c	0f 1f 40 00	 npad	 4
$LL14@IsOnlyNumb:
  00010	8a 02		 mov	 al, BYTE PTR [edx]
  00012	42		 inc	 edx
  00013	84 c0		 test	 al, al
  00015	75 f9		 jne	 SHORT $LL14@IsOnlyNumb
  00017	2b d6		 sub	 edx, esi
  00019	5e		 pop	 esi
  0001a	74 14		 je	 SHORT $LN3@IsOnlyNumb

; 152  : 
; 153  : 	for(int x=0; (szData[x]); x++)

  0001c	8a 01		 mov	 al, BYTE PTR [ecx]
  0001e	84 c0		 test	 al, al
  00020	74 0e		 je	 SHORT $LN3@IsOnlyNumb
$LL4@IsOnlyNumb:

; 154  : 		if( szData[x] > '9' || szData[x] < '0')  return FALSE;

  00022	2c 30		 sub	 al, 48			; 00000030H
  00024	3c 09		 cmp	 al, 9
  00026	77 11		 ja	 SHORT $LN10@IsOnlyNumb

; 152  : 
; 153  : 	for(int x=0; (szData[x]); x++)

  00028	8a 41 01	 mov	 al, BYTE PTR [ecx+1]
  0002b	41		 inc	 ecx
  0002c	84 c0		 test	 al, al
  0002e	75 f2		 jne	 SHORT $LL4@IsOnlyNumb
$LN3@IsOnlyNumb:

; 155  : 
; 156  : 	return TRUE;

  00030	b8 01 00 00 00	 mov	 eax, 1

; 157  : }

  00035	5d		 pop	 ebp
  00036	c2 04 00	 ret	 4
$LN10@IsOnlyNumb:

; 154  : 		if( szData[x] > '9' || szData[x] < '0')  return FALSE;

  00039	33 c0		 xor	 eax, eax

; 157  : }

  0003b	5d		 pop	 ebp
  0003c	c2 04 00	 ret	 4
?IsOnlyNumber@CUtil@@QAEHPBD@Z ENDP			; CUtil::IsOnlyNumber
_TEXT	ENDS
; Function compile flags: /Ogtp
; File D:\git\src\IBK\IBK_DRFN\ProjSrc\SrcDrfn\Chart\chart_common\Grid\Util.cpp
;	COMDAT ?IsNumber@CUtil@@QAEHI@Z
_TEXT	SEGMENT
_nChar$ = 8						; size = 4
?IsNumber@CUtil@@QAEHI@Z PROC				; CUtil::IsNumber, COMDAT
; _this$ = ecx

; 41   : {

  00000	55		 push	 ebp
  00001	8b ec		 mov	 ebp, esp

; 42   : 
; 43   : 	if( nChar >= '0' && nChar <= '9')  return TRUE;

  00003	8b 45 08	 mov	 eax, DWORD PTR _nChar$[ebp]
  00006	b9 09 00 00 00	 mov	 ecx, 9
  0000b	83 c0 d0	 add	 eax, -48		; ffffffd0H
  0000e	3b c8		 cmp	 ecx, eax
  00010	1b c0		 sbb	 eax, eax
  00012	40		 inc	 eax

; 44   : 	else return FALSE;
; 45   : }

  00013	5d		 pop	 ebp
  00014	c2 04 00	 ret	 4
?IsNumber@CUtil@@QAEHI@Z ENDP				; CUtil::IsNumber
_TEXT	ENDS
; Function compile flags: /Ogtp
; File D:\git\src\IBK\IBK_DRFN\ProjSrc\SrcDrfn\Chart\chart_common\Grid\Util.cpp
;	COMDAT ?GetString@CUtil@@QAEHAAV?$CStringT@DV?$StrTraitMFC_DLL@DV?$ChTraitsCRT@D@ATL@@@@@ATL@@0D@Z
_TEXT	SEGMENT
__$EHRec$ = -12						; size = 12
_szAB$ = 8						; size = 4
$T2 = 12						; size = 4
_szCD$ = 12						; size = 4
_chStop$ = 16						; size = 1
$T3 = 16						; size = 4
?GetString@CUtil@@QAEHAAV?$CStringT@DV?$StrTraitMFC_DLL@DV?$ChTraitsCRT@D@ATL@@@@@ATL@@0D@Z PROC ; CUtil::GetString, COMDAT
; _this$ = ecx

; 138  : {

  00000	55		 push	 ebp
  00001	8b ec		 mov	 ebp, esp
  00003	6a ff		 push	 -1
  00005	68 00 00 00 00	 push	 __ehhandler$?GetString@CUtil@@QAEHAAV?$CStringT@DV?$StrTraitMFC_DLL@DV?$ChTraitsCRT@D@ATL@@@@@ATL@@0D@Z
  0000a	64 a1 00 00 00
	00		 mov	 eax, DWORD PTR fs:0
  00010	50		 push	 eax
  00011	56		 push	 esi
  00012	57		 push	 edi
  00013	a1 00 00 00 00	 mov	 eax, DWORD PTR ___security_cookie
  00018	33 c5		 xor	 eax, ebp
  0001a	50		 push	 eax
  0001b	8d 45 f4	 lea	 eax, DWORD PTR __$EHRec$[ebp]
  0001e	64 a3 00 00 00
	00		 mov	 DWORD PTR fs:0, eax

; 139  : 	int nIndex=-1;
; 140  : 	nIndex = szCD.Find(chStop);

  00024	8b 75 0c	 mov	 esi, DWORD PTR _szCD$[ebp]
  00027	8b ce		 mov	 ecx, esi
  00029	6a 00		 push	 0
  0002b	ff 75 10	 push	 DWORD PTR _chStop$[ebp]
  0002e	ff 15 00 00 00
	00		 call	 DWORD PTR __imp_?Find@?$CStringT@DV?$StrTraitMFC_DLL@DV?$ChTraitsCRT@D@ATL@@@@@ATL@@QBEHDH@Z
  00034	8b f8		 mov	 edi, eax

; 141  : 	if(nIndex==-1) return nIndex;

  00036	83 ff ff	 cmp	 edi, -1
  00039	75 15		 jne	 SHORT $LN2@GetString
  0003b	0b c0		 or	 eax, eax

; 147  : }

  0003d	8b 4d f4	 mov	 ecx, DWORD PTR __$EHRec$[ebp]
  00040	64 89 0d 00 00
	00 00		 mov	 DWORD PTR fs:0, ecx
  00047	59		 pop	 ecx
  00048	5f		 pop	 edi
  00049	5e		 pop	 esi
  0004a	8b e5		 mov	 esp, ebp
  0004c	5d		 pop	 ebp
  0004d	c2 0c 00	 ret	 12			; 0000000cH
$LN2@GetString:

; 142  : 
; 143  : 	szAB = szCD.Mid(0, nIndex);

  00050	57		 push	 edi
  00051	6a 00		 push	 0
  00053	8d 45 10	 lea	 eax, DWORD PTR $T3[ebp]
  00056	8b ce		 mov	 ecx, esi
  00058	50		 push	 eax
  00059	ff 15 00 00 00
	00		 call	 DWORD PTR __imp_?Mid@?$CStringT@DV?$StrTraitMFC_DLL@DV?$ChTraitsCRT@D@ATL@@@@@ATL@@QBE?AV12@HH@Z
  0005f	8b 4d 08	 mov	 ecx, DWORD PTR _szAB$[ebp]
  00062	50		 push	 eax
  00063	c7 45 fc 00 00
	00 00		 mov	 DWORD PTR __$EHRec$[ebp+8], 0
  0006a	ff 15 00 00 00
	00		 call	 DWORD PTR __imp_??4?$CStringT@DV?$StrTraitMFC_DLL@DV?$ChTraitsCRT@D@ATL@@@@@ATL@@QAEAAV01@ABV01@@Z
  00070	8d 4d 10	 lea	 ecx, DWORD PTR $T3[ebp]
  00073	c7 45 fc ff ff
	ff ff		 mov	 DWORD PTR __$EHRec$[ebp+8], -1
  0007a	ff 15 00 00 00
	00		 call	 DWORD PTR __imp_??1?$CStringT@DV?$StrTraitMFC_DLL@DV?$ChTraitsCRT@D@ATL@@@@@ATL@@QAE@XZ

; 144  : 	szCD = szCD.Mid( nIndex+1);

  00080	8d 47 01	 lea	 eax, DWORD PTR [edi+1]
  00083	8b ce		 mov	 ecx, esi
  00085	50		 push	 eax
  00086	8d 45 0c	 lea	 eax, DWORD PTR $T2[ebp]
  00089	50		 push	 eax
  0008a	ff 15 00 00 00
	00		 call	 DWORD PTR __imp_?Mid@?$CStringT@DV?$StrTraitMFC_DLL@DV?$ChTraitsCRT@D@ATL@@@@@ATL@@QBE?AV12@H@Z
  00090	50		 push	 eax
  00091	8b ce		 mov	 ecx, esi
  00093	c7 45 fc 01 00
	00 00		 mov	 DWORD PTR __$EHRec$[ebp+8], 1
  0009a	ff 15 00 00 00
	00		 call	 DWORD PTR __imp_??4?$CStringT@DV?$StrTraitMFC_DLL@DV?$ChTraitsCRT@D@ATL@@@@@ATL@@QAEAAV01@ABV01@@Z
  000a0	8d 4d 0c	 lea	 ecx, DWORD PTR $T2[ebp]
  000a3	ff 15 00 00 00
	00		 call	 DWORD PTR __imp_??1?$CStringT@DV?$StrTraitMFC_DLL@DV?$ChTraitsCRT@D@ATL@@@@@ATL@@QAE@XZ

; 145  : 	
; 146  : 	return nIndex;

  000a9	8b c7		 mov	 eax, edi

; 147  : }

  000ab	8b 4d f4	 mov	 ecx, DWORD PTR __$EHRec$[ebp]
  000ae	64 89 0d 00 00
	00 00		 mov	 DWORD PTR fs:0, ecx
  000b5	59		 pop	 ecx
  000b6	5f		 pop	 edi
  000b7	5e		 pop	 esi
  000b8	8b e5		 mov	 esp, ebp
  000ba	5d		 pop	 ebp
  000bb	c2 0c 00	 ret	 12			; 0000000cH
_TEXT	ENDS
;	COMDAT text$x
text$x	SEGMENT
__unwindfunclet$?GetString@CUtil@@QAEHAAV?$CStringT@DV?$StrTraitMFC_DLL@DV?$ChTraitsCRT@D@ATL@@@@@ATL@@0D@Z$0:
  00000	8d 4d 10	 lea	 ecx, DWORD PTR $T3[ebp]
  00003	ff 25 00 00 00
	00		 jmp	 DWORD PTR __imp_??1?$CStringT@DV?$StrTraitMFC_DLL@DV?$ChTraitsCRT@D@ATL@@@@@ATL@@QAE@XZ
__unwindfunclet$?GetString@CUtil@@QAEHAAV?$CStringT@DV?$StrTraitMFC_DLL@DV?$ChTraitsCRT@D@ATL@@@@@ATL@@0D@Z$1:
  00009	8d 4d 0c	 lea	 ecx, DWORD PTR $T2[ebp]
  0000c	ff 25 00 00 00
	00		 jmp	 DWORD PTR __imp_??1?$CStringT@DV?$StrTraitMFC_DLL@DV?$ChTraitsCRT@D@ATL@@@@@ATL@@QAE@XZ
  00012	cc		 int	 3
  00013	cc		 int	 3
  00014	cc		 int	 3
  00015	cc		 int	 3
  00016	cc		 int	 3
__ehhandler$?GetString@CUtil@@QAEHAAV?$CStringT@DV?$StrTraitMFC_DLL@DV?$ChTraitsCRT@D@ATL@@@@@ATL@@0D@Z:
  00017	90		 npad	 1
  00018	90		 npad	 1
  00019	8b 54 24 08	 mov	 edx, DWORD PTR [esp+8]
  0001d	8d 42 0c	 lea	 eax, DWORD PTR [edx+12]
  00020	8b 4a f4	 mov	 ecx, DWORD PTR [edx-12]
  00023	33 c8		 xor	 ecx, eax
  00025	e8 00 00 00 00	 call	 @__security_check_cookie@4
  0002a	b8 00 00 00 00	 mov	 eax, OFFSET __ehfuncinfo$?GetString@CUtil@@QAEHAAV?$CStringT@DV?$StrTraitMFC_DLL@DV?$ChTraitsCRT@D@ATL@@@@@ATL@@0D@Z
  0002f	e9 00 00 00 00	 jmp	 ___CxxFrameHandler3
text$x	ENDS
?GetString@CUtil@@QAEHAAV?$CStringT@DV?$StrTraitMFC_DLL@DV?$ChTraitsCRT@D@ATL@@@@@ATL@@0D@Z ENDP ; CUtil::GetString
; Function compile flags: /Ogtp
; File D:\git\src\IBK\IBK_DRFN\ProjSrc\SrcDrfn\Chart\chart_common\Grid\Util.cpp
;	COMDAT ?GetWord@CUtil@@QAEXPAD0D@Z
_TEXT	SEGMENT
_pWord$ = 8						; size = 4
_pLine$ = 12						; size = 4
_chStop$ = 16						; size = 1
?GetWord@CUtil@@QAEXPAD0D@Z PROC			; CUtil::GetWord, COMDAT
; _this$ = ecx

; 124  : {

  00000	55		 push	 ebp
  00001	8b ec		 mov	 ebp, esp

; 125  : 	int x = 0,y;
; 126  : 
; 127  : 	for(x=0;((pLine[x]) && (pLine[x] != chStop));x++)

  00003	8b 45 0c	 mov	 eax, DWORD PTR _pLine$[ebp]
  00006	56		 push	 esi
  00007	33 f6		 xor	 esi, esi
  00009	8a 08		 mov	 cl, BYTE PTR [eax]
  0000b	84 c9		 test	 cl, cl
  0000d	74 23		 je	 SHORT $LN16@GetWord
  0000f	53		 push	 ebx
  00010	8a 5d 10	 mov	 bl, BYTE PTR _chStop$[ebp]
  00013	8b d0		 mov	 edx, eax
  00015	57		 push	 edi
  00016	8b 7d 08	 mov	 edi, DWORD PTR _pWord$[ebp]
  00019	2b f8		 sub	 edi, eax
  0001b	0f 1f 44 00 00	 npad	 5
$LL4@GetWord:
  00020	3a cb		 cmp	 cl, bl
  00022	74 0c		 je	 SHORT $LN17@GetWord

; 128  : 		pWord[x] = pLine[x];

  00024	88 0c 17	 mov	 BYTE PTR [edi+edx], cl
  00027	46		 inc	 esi
  00028	8a 4a 01	 mov	 cl, BYTE PTR [edx+1]
  0002b	42		 inc	 edx
  0002c	84 c9		 test	 cl, cl
  0002e	75 f0		 jne	 SHORT $LL4@GetWord
$LN17@GetWord:
  00030	5f		 pop	 edi
  00031	5b		 pop	 ebx
$LN16@GetWord:

; 129  : 
; 130  : 	pWord[x] = '\0';

  00032	8b 4d 08	 mov	 ecx, DWORD PTR _pWord$[ebp]

; 131  : 	if(pLine[x]) ++x;
; 132  : 	y=0;

  00035	8d 56 01	 lea	 edx, DWORD PTR [esi+1]
  00038	c6 04 0e 00	 mov	 BYTE PTR [esi+ecx], 0
  0003c	80 3c 06 00	 cmp	 BYTE PTR [esi+eax], 0
  00040	0f 44 d6	 cmove	 edx, esi
  00043	03 d0		 add	 edx, eax
  00045	5e		 pop	 esi
$LL5@GetWord:

; 133  : 
; 134  : 	while(pLine[y++] = pLine[x++]);

  00046	8a 0a		 mov	 cl, BYTE PTR [edx]
  00048	8d 40 01	 lea	 eax, DWORD PTR [eax+1]
  0004b	88 48 ff	 mov	 BYTE PTR [eax-1], cl
  0004e	8d 52 01	 lea	 edx, DWORD PTR [edx+1]
  00051	84 c9		 test	 cl, cl
  00053	75 f1		 jne	 SHORT $LL5@GetWord

; 135  : }

  00055	5d		 pop	 ebp
  00056	c2 0c 00	 ret	 12			; 0000000cH
?GetWord@CUtil@@QAEXPAD0D@Z ENDP			; CUtil::GetWord
_TEXT	ENDS
; Function compile flags: /Ogtp
; File D:\git\src\IBK\IBK_DRFN\ProjSrc\SrcDrfn\Chart\chart_common\Grid\Util.cpp
;	COMDAT ?IsSign@CUtil@@QAEHPBD@Z
_TEXT	SEGMENT
_pData$ = 8						; size = 4
?IsSign@CUtil@@QAEHPBD@Z PROC				; CUtil::IsSign, COMDAT
; _this$ = ecx

; 279  : {

  00000	55		 push	 ebp
  00001	8b ec		 mov	 ebp, esp

; 280  : 	if(pData[0]=='+' || pData[0]=='-') return TRUE;

  00003	8b 45 08	 mov	 eax, DWORD PTR _pData$[ebp]
  00006	8a 00		 mov	 al, BYTE PTR [eax]
  00008	3c 2b		 cmp	 al, 43			; 0000002bH
  0000a	74 0a		 je	 SHORT $LN3@IsSign
  0000c	3c 2d		 cmp	 al, 45			; 0000002dH
  0000e	74 06		 je	 SHORT $LN3@IsSign

; 281  : 	return FALSE;

  00010	33 c0		 xor	 eax, eax

; 282  : }

  00012	5d		 pop	 ebp
  00013	c2 04 00	 ret	 4
$LN3@IsSign:

; 280  : 	if(pData[0]=='+' || pData[0]=='-') return TRUE;

  00016	b8 01 00 00 00	 mov	 eax, 1

; 282  : }

  0001b	5d		 pop	 ebp
  0001c	c2 04 00	 ret	 4
?IsSign@CUtil@@QAEHPBD@Z ENDP				; CUtil::IsSign
_TEXT	ENDS
; Function compile flags: /Ogtp
; File D:\git\src\IBK\IBK_DRFN\ProjSrc\SrcDrfn\Chart\chart_common\Grid\Util.cpp
;	COMDAT ?ValidNumber@CUtil@@QAEHPBD@Z
_TEXT	SEGMENT
_chTmp$2 = -16						; size = 4
$T3 = -16						; size = 4
__$EHRec$ = -12						; size = 12
_strTmp$ = 8						; size = 4
_strIn$ = 8						; size = 4
?ValidNumber@CUtil@@QAEHPBD@Z PROC			; CUtil::ValidNumber, COMDAT
; _this$ = ecx

; 312  : {                                       

  00000	55		 push	 ebp
  00001	8b ec		 mov	 ebp, esp
  00003	6a ff		 push	 -1
  00005	68 00 00 00 00	 push	 __ehhandler$?ValidNumber@CUtil@@QAEHPBD@Z
  0000a	64 a1 00 00 00
	00		 mov	 eax, DWORD PTR fs:0
  00010	50		 push	 eax
  00011	51		 push	 ecx
  00012	56		 push	 esi
  00013	a1 00 00 00 00	 mov	 eax, DWORD PTR ___security_cookie
  00018	33 c5		 xor	 eax, ebp
  0001a	50		 push	 eax
  0001b	8d 45 f4	 lea	 eax, DWORD PTR __$EHRec$[ebp]
  0001e	64 a3 00 00 00
	00		 mov	 DWORD PTR fs:0, eax

; 313  : 	CString strTmp = strIn;

  00024	ff 75 08	 push	 DWORD PTR _strIn$[ebp]
  00027	8d 4d 08	 lea	 ecx, DWORD PTR _strTmp$[ebp]
  0002a	ff 15 00 00 00
	00		 call	 DWORD PTR __imp_??0?$CStringT@DV?$StrTraitMFC_DLL@DV?$ChTraitsCRT@D@ATL@@@@@ATL@@QAE@PBD@Z

; 314  : 	strTmp.TrimLeft();

  00030	8d 4d 08	 lea	 ecx, DWORD PTR _strTmp$[ebp]
  00033	c7 45 fc 00 00
	00 00		 mov	 DWORD PTR __$EHRec$[ebp+8], 0
  0003a	ff 15 00 00 00
	00		 call	 DWORD PTR __imp_?TrimLeft@?$CStringT@DV?$StrTraitMFC_DLL@DV?$ChTraitsCRT@D@ATL@@@@@ATL@@QAEAAV12@XZ

; 315  : 	strTmp.TrimRight();

  00040	8d 4d 08	 lea	 ecx, DWORD PTR _strTmp$[ebp]
  00043	ff 15 00 00 00
	00		 call	 DWORD PTR __imp_?TrimRight@?$CStringT@DV?$StrTraitMFC_DLL@DV?$ChTraitsCRT@D@ATL@@@@@ATL@@QAEAAV12@XZ

; 316  : 
; 317  : 	if(strTmp[0]=='+' ||strTmp[0]=='-')

  00049	6a 00		 push	 0
  0004b	8d 4d 08	 lea	 ecx, DWORD PTR _strTmp$[ebp]
  0004e	ff 15 00 00 00
	00		 call	 DWORD PTR __imp_??A?$CSimpleStringT@D$00@ATL@@QBEDH@Z
  00054	3c 2b		 cmp	 al, 43			; 0000002bH
  00056	74 0f		 je	 SHORT $LN6@ValidNumbe
  00058	6a 00		 push	 0
  0005a	8d 4d 08	 lea	 ecx, DWORD PTR _strTmp$[ebp]
  0005d	ff 15 00 00 00
	00		 call	 DWORD PTR __imp_??A?$CSimpleStringT@D$00@ATL@@QBEDH@Z
  00063	3c 2d		 cmp	 al, 45			; 0000002dH
  00065	75 2a		 jne	 SHORT $LN5@ValidNumbe
$LN6@ValidNumbe:

; 318  : 		strTmp = strTmp.Mid(1);

  00067	6a 01		 push	 1
  00069	8d 45 f0	 lea	 eax, DWORD PTR $T3[ebp]
  0006c	50		 push	 eax
  0006d	8d 4d 08	 lea	 ecx, DWORD PTR _strTmp$[ebp]
  00070	ff 15 00 00 00
	00		 call	 DWORD PTR __imp_?Mid@?$CStringT@DV?$StrTraitMFC_DLL@DV?$ChTraitsCRT@D@ATL@@@@@ATL@@QBE?AV12@H@Z
  00076	50		 push	 eax
  00077	8d 4d 08	 lea	 ecx, DWORD PTR _strTmp$[ebp]
  0007a	c6 45 fc 01	 mov	 BYTE PTR __$EHRec$[ebp+8], 1
  0007e	ff 15 00 00 00
	00		 call	 DWORD PTR __imp_??4?$CStringT@DV?$StrTraitMFC_DLL@DV?$ChTraitsCRT@D@ATL@@@@@ATL@@QAEAAV01@ABV01@@Z
  00084	8d 4d f0	 lea	 ecx, DWORD PTR $T3[ebp]
  00087	c6 45 fc 00	 mov	 BYTE PTR __$EHRec$[ebp+8], 0
  0008b	ff 15 00 00 00
	00		 call	 DWORD PTR __imp_??1?$CStringT@DV?$StrTraitMFC_DLL@DV?$ChTraitsCRT@D@ATL@@@@@ATL@@QAE@XZ
$LN5@ValidNumbe:

; 319  : 
; 320  : 	int nIndex = strTmp.Find(".");

  00091	6a 00		 push	 0
  00093	68 00 00 00 00	 push	 OFFSET ??_C@_01LFCBOECM@?4@
  00098	8d 4d 08	 lea	 ecx, DWORD PTR _strTmp$[ebp]
  0009b	ff 15 00 00 00
	00		 call	 DWORD PTR __imp_?Find@?$CStringT@DV?$StrTraitMFC_DLL@DV?$ChTraitsCRT@D@ATL@@@@@ATL@@QBEHPBDH@Z

; 321  : 	if(nIndex!=-1) {

  000a1	83 f8 ff	 cmp	 eax, -1
  000a4	74 37		 je	 SHORT $LN7@ValidNumbe

; 322  : 		CString chTmp=strTmp.Mid(nIndex+1);

  000a6	40		 inc	 eax
  000a7	8d 4d 08	 lea	 ecx, DWORD PTR _strTmp$[ebp]
  000aa	50		 push	 eax
  000ab	8d 45 f0	 lea	 eax, DWORD PTR _chTmp$2[ebp]
  000ae	50		 push	 eax
  000af	ff 15 00 00 00
	00		 call	 DWORD PTR __imp_?Mid@?$CStringT@DV?$StrTraitMFC_DLL@DV?$ChTraitsCRT@D@ATL@@@@@ATL@@QBE?AV12@H@Z

; 323  : 		nIndex = chTmp.Find(".");

  000b5	6a 00		 push	 0
  000b7	68 00 00 00 00	 push	 OFFSET ??_C@_01LFCBOECM@?4@
  000bc	8d 4d f0	 lea	 ecx, DWORD PTR _chTmp$2[ebp]
  000bf	ff 15 00 00 00
	00		 call	 DWORD PTR __imp_?Find@?$CStringT@DV?$StrTraitMFC_DLL@DV?$ChTraitsCRT@D@ATL@@@@@ATL@@QBEHPBDH@Z

; 324  : 		if(nIndex!=-1) return FALSE;

  000c5	8d 4d f0	 lea	 ecx, DWORD PTR _chTmp$2[ebp]
  000c8	83 f8 ff	 cmp	 eax, -1
  000cb	74 0a		 je	 SHORT $LN8@ValidNumbe
  000cd	ff 15 00 00 00
	00		 call	 DWORD PTR __imp_??1?$CStringT@DV?$StrTraitMFC_DLL@DV?$ChTraitsCRT@D@ATL@@@@@ATL@@QAE@XZ
$LN23@ValidNumbe:
  000d3	33 f6		 xor	 esi, esi
  000d5	eb 7b		 jmp	 SHORT $LN17@ValidNumbe
$LN8@ValidNumbe:

; 325  : 	}

  000d7	ff 15 00 00 00
	00		 call	 DWORD PTR __imp_??1?$CStringT@DV?$StrTraitMFC_DLL@DV?$ChTraitsCRT@D@ATL@@@@@ATL@@QAE@XZ
$LN7@ValidNumbe:

; 326  : 
; 327  : 	for(int i=0;i<strTmp.GetLength();i++) {

  000dd	8b 45 08	 mov	 eax, DWORD PTR _strTmp$[ebp]
  000e0	33 f6		 xor	 esi, esi
  000e2	39 70 f4	 cmp	 DWORD PTR [eax-12], esi
  000e5	7e 66		 jle	 SHORT $LN27@ValidNumbe
  000e7	66 0f 1f 84 00
	00 00 00 00	 npad	 9
$LL4@ValidNumbe:

; 328  : 		if(strTmp[i]=='.') continue;

  000f0	56		 push	 esi
  000f1	8d 4d 08	 lea	 ecx, DWORD PTR _strTmp$[ebp]
  000f4	ff 15 00 00 00
	00		 call	 DWORD PTR __imp_??A?$CSimpleStringT@D$00@ATL@@QBEDH@Z
  000fa	3c 2e		 cmp	 al, 46			; 0000002eH
  000fc	74 46		 je	 SHORT $LN2@ValidNumbe

; 329  : 		if(!((strTmp[i] >= '0' && strTmp[i] <= '9') || strTmp[i] == '-' || strTmp[i] == '+'	|| strTmp[i] == ',')) 

  000fe	56		 push	 esi
  000ff	8d 4d 08	 lea	 ecx, DWORD PTR _strTmp$[ebp]
  00102	ff 15 00 00 00
	00		 call	 DWORD PTR __imp_??A?$CSimpleStringT@D$00@ATL@@QBEDH@Z
  00108	3c 30		 cmp	 al, 48			; 00000030H
  0010a	7c 0e		 jl	 SHORT $LN11@ValidNumbe
  0010c	56		 push	 esi
  0010d	8d 4d 08	 lea	 ecx, DWORD PTR _strTmp$[ebp]
  00110	ff 15 00 00 00
	00		 call	 DWORD PTR __imp_??A?$CSimpleStringT@D$00@ATL@@QBEDH@Z
  00116	3c 39		 cmp	 al, 57			; 00000039H
  00118	7e 2a		 jle	 SHORT $LN2@ValidNumbe
$LN11@ValidNumbe:
  0011a	56		 push	 esi
  0011b	8d 4d 08	 lea	 ecx, DWORD PTR _strTmp$[ebp]
  0011e	ff 15 00 00 00
	00		 call	 DWORD PTR __imp_??A?$CSimpleStringT@D$00@ATL@@QBEDH@Z
  00124	3c 2d		 cmp	 al, 45			; 0000002dH
  00126	74 1c		 je	 SHORT $LN2@ValidNumbe
  00128	56		 push	 esi
  00129	8d 4d 08	 lea	 ecx, DWORD PTR _strTmp$[ebp]
  0012c	ff 15 00 00 00
	00		 call	 DWORD PTR __imp_??A?$CSimpleStringT@D$00@ATL@@QBEDH@Z
  00132	3c 2b		 cmp	 al, 43			; 0000002bH
  00134	74 0e		 je	 SHORT $LN2@ValidNumbe
  00136	56		 push	 esi
  00137	8d 4d 08	 lea	 ecx, DWORD PTR _strTmp$[ebp]
  0013a	ff 15 00 00 00
	00		 call	 DWORD PTR __imp_??A?$CSimpleStringT@D$00@ATL@@QBEDH@Z
  00140	3c 2c		 cmp	 al, 44			; 0000002cH
  00142	75 8f		 jne	 SHORT $LN23@ValidNumbe
$LN2@ValidNumbe:

; 326  : 
; 327  : 	for(int i=0;i<strTmp.GetLength();i++) {

  00144	8b 45 08	 mov	 eax, DWORD PTR _strTmp$[ebp]
  00147	46		 inc	 esi
  00148	3b 70 f4	 cmp	 esi, DWORD PTR [eax-12]
  0014b	7c a3		 jl	 SHORT $LL4@ValidNumbe
$LN27@ValidNumbe:

; 330  : 			return FALSE;
; 331  : 	}
; 332  : 	
; 333  : 	return TRUE;

  0014d	be 01 00 00 00	 mov	 esi, 1
$LN17@ValidNumbe:
  00152	8d 4d 08	 lea	 ecx, DWORD PTR _strTmp$[ebp]
  00155	ff 15 00 00 00
	00		 call	 DWORD PTR __imp_??1?$CStringT@DV?$StrTraitMFC_DLL@DV?$ChTraitsCRT@D@ATL@@@@@ATL@@QAE@XZ
  0015b	8b c6		 mov	 eax, esi

; 334  : }

  0015d	8b 4d f4	 mov	 ecx, DWORD PTR __$EHRec$[ebp]
  00160	64 89 0d 00 00
	00 00		 mov	 DWORD PTR fs:0, ecx
  00167	59		 pop	 ecx
  00168	5e		 pop	 esi
  00169	8b e5		 mov	 esp, ebp
  0016b	5d		 pop	 ebp
  0016c	c2 04 00	 ret	 4
_TEXT	ENDS
;	COMDAT text$x
text$x	SEGMENT
__unwindfunclet$?ValidNumber@CUtil@@QAEHPBD@Z$0:
  00000	8d 4d 08	 lea	 ecx, DWORD PTR _strTmp$[ebp]
  00003	ff 25 00 00 00
	00		 jmp	 DWORD PTR __imp_??1?$CStringT@DV?$StrTraitMFC_DLL@DV?$ChTraitsCRT@D@ATL@@@@@ATL@@QAE@XZ
__unwindfunclet$?ValidNumber@CUtil@@QAEHPBD@Z$1:
  00009	8d 4d f0	 lea	 ecx, DWORD PTR $T3[ebp]
  0000c	ff 25 00 00 00
	00		 jmp	 DWORD PTR __imp_??1?$CStringT@DV?$StrTraitMFC_DLL@DV?$ChTraitsCRT@D@ATL@@@@@ATL@@QAE@XZ
  00012	cc		 int	 3
  00013	cc		 int	 3
  00014	cc		 int	 3
  00015	cc		 int	 3
  00016	cc		 int	 3
__ehhandler$?ValidNumber@CUtil@@QAEHPBD@Z:
  00017	90		 npad	 1
  00018	90		 npad	 1
  00019	8b 54 24 08	 mov	 edx, DWORD PTR [esp+8]
  0001d	8d 42 0c	 lea	 eax, DWORD PTR [edx+12]
  00020	8b 4a f4	 mov	 ecx, DWORD PTR [edx-12]
  00023	33 c8		 xor	 ecx, eax
  00025	e8 00 00 00 00	 call	 @__security_check_cookie@4
  0002a	b8 00 00 00 00	 mov	 eax, OFFSET __ehfuncinfo$?ValidNumber@CUtil@@QAEHPBD@Z
  0002f	e9 00 00 00 00	 jmp	 ___CxxFrameHandler3
text$x	ENDS
?ValidNumber@CUtil@@QAEHPBD@Z ENDP			; CUtil::ValidNumber
; Function compile flags: /Ogtp
; File D:\git\src\IBK\IBK_DRFN\ProjSrc\SrcDrfn\Chart\chart_common\Grid\Util.cpp
; File C:\Program Files (x86)\Microsoft Visual Studio\2019\Community\VC\Tools\MSVC\14.29.30133\atlmfc\include\atlsimpstr.h
; File D:\git\src\IBK\IBK_DRFN\ProjSrc\SrcDrfn\Chart\chart_common\Grid\Util.cpp
; File C:\Program Files (x86)\Microsoft Visual Studio\2019\Community\VC\Tools\MSVC\14.29.30133\atlmfc\include\atlsimpstr.h
; File D:\git\src\IBK\IBK_DRFN\ProjSrc\SrcDrfn\Chart\chart_common\Grid\Util.cpp
; File C:\Program Files (x86)\Microsoft Visual Studio\2019\Community\VC\Tools\MSVC\14.29.30133\atlmfc\include\atlsimpstr.h
; File D:\git\src\IBK\IBK_DRFN\ProjSrc\SrcDrfn\Chart\chart_common\Grid\Util.cpp
;	COMDAT ?RemoveCharAll@CUtil@@QAEXAAV?$CStringT@DV?$StrTraitMFC_DLL@DV?$ChTraitsCRT@D@ATL@@@@@ATL@@D@Z
_TEXT	SEGMENT
_nLen$1$ = -4						; size = 4
_pData$1$ = 8						; size = 4
_szData$ = 8						; size = 4
_ch$ = 12						; size = 1
?RemoveCharAll@CUtil@@QAEXAAV?$CStringT@DV?$StrTraitMFC_DLL@DV?$ChTraitsCRT@D@ATL@@@@@ATL@@D@Z PROC ; CUtil::RemoveCharAll, COMDAT
; _this$ = ecx

; 351  : {

  00000	55		 push	 ebp
  00001	8b ec		 mov	 ebp, esp
  00003	51		 push	 ecx
  00004	53		 push	 ebx
  00005	56		 push	 esi
  00006	57		 push	 edi
; File C:\Program Files (x86)\Microsoft Visual Studio\2019\Community\VC\Tools\MSVC\14.29.30133\atlmfc\include\atlsimpstr.h

; 519  : 		return( GetData()->nDataLength );

  00007	8b 7d 08	 mov	 edi, DWORD PTR _szData$[ebp]
  0000a	8b 07		 mov	 eax, DWORD PTR [edi]
  0000c	8b 58 f4	 mov	 ebx, DWORD PTR [eax-12]
  0000f	89 5d fc	 mov	 DWORD PTR _nLen$1$[ebp], ebx
; File D:\git\src\IBK\IBK_DRFN\ProjSrc\SrcDrfn\Chart\chart_common\Grid\Util.cpp

; 354  : 	char* pData = new char[nLen+1];

  00012	8d 43 01	 lea	 eax, DWORD PTR [ebx+1]
  00015	50		 push	 eax
  00016	e8 00 00 00 00	 call	 ??_U@YAPAXI@Z		; operator new[]
  0001b	83 c4 04	 add	 esp, 4
  0001e	89 45 08	 mov	 DWORD PTR _pData$1$[ebp], eax
; File C:\Program Files (x86)\Microsoft Visual Studio\2019\Community\VC\Tools\MSVC\14.29.30133\atlmfc\include\atlsimpstr.h

; 800  : 		return( reinterpret_cast< CStringData* >( m_pszData )-1 );

  00021	33 f6		 xor	 esi, esi
; File D:\git\src\IBK\IBK_DRFN\ProjSrc\SrcDrfn\Chart\chart_common\Grid\Util.cpp

; 355  : 	for(int i=0, j=0; i<nLen; i++){

  00023	85 db		 test	 ebx, ebx
  00025	7e 2c		 jle	 SHORT $LN3@RemoveChar
; File C:\Program Files (x86)\Microsoft Visual Studio\2019\Community\VC\Tools\MSVC\14.29.30133\atlmfc\include\atlsimpstr.h

; 519  : 		return( GetData()->nDataLength );

  00027	8b d8		 mov	 ebx, eax
  00029	0f 1f 80 00 00
	00 00		 npad	 7
$LL4@RemoveChar:
; File D:\git\src\IBK\IBK_DRFN\ProjSrc\SrcDrfn\Chart\chart_common\Grid\Util.cpp

; 356  : 		if(szData[i]!=ch)

  00030	56		 push	 esi
  00031	8b cf		 mov	 ecx, edi
  00033	ff 15 00 00 00
	00		 call	 DWORD PTR __imp_??A?$CSimpleStringT@D$00@ATL@@QBEDH@Z
  00039	3a 45 0c	 cmp	 al, BYTE PTR _ch$[ebp]
  0003c	74 0c		 je	 SHORT $LN2@RemoveChar

; 357  : 			pData[j++] = szData[i];

  0003e	56		 push	 esi
  0003f	8b cf		 mov	 ecx, edi
  00041	ff 15 00 00 00
	00		 call	 DWORD PTR __imp_??A?$CSimpleStringT@D$00@ATL@@QBEDH@Z
  00047	88 03		 mov	 BYTE PTR [ebx], al
  00049	43		 inc	 ebx
$LN2@RemoveChar:

; 355  : 	for(int i=0, j=0; i<nLen; i++){

  0004a	46		 inc	 esi
  0004b	3b 75 fc	 cmp	 esi, DWORD PTR _nLen$1$[ebp]
  0004e	7c e0		 jl	 SHORT $LL4@RemoveChar
  00050	8b 45 08	 mov	 eax, DWORD PTR _pData$1$[ebp]
$LN3@RemoveChar:

; 358  : 	}
; 359  : 	pData[j]='\0';
; 360  : 	szData = pData;

  00053	50		 push	 eax
  00054	8b cf		 mov	 ecx, edi
  00056	c6 00 00	 mov	 BYTE PTR [eax], 0
  00059	ff 15 00 00 00
	00		 call	 DWORD PTR __imp_??4?$CStringT@DV?$StrTraitMFC_DLL@DV?$ChTraitsCRT@D@ATL@@@@@ATL@@QAEAAV01@PBD@Z

; 361  : 	delete pData;

  0005f	6a 01		 push	 1
  00061	ff 75 08	 push	 DWORD PTR _pData$1$[ebp]
  00064	e8 00 00 00 00	 call	 ??3@YAXPAXI@Z		; operator delete
  00069	83 c4 08	 add	 esp, 8
  0006c	5f		 pop	 edi
  0006d	5e		 pop	 esi
  0006e	5b		 pop	 ebx

; 362  : }

  0006f	8b e5		 mov	 esp, ebp
  00071	5d		 pop	 ebp
  00072	c2 08 00	 ret	 8
?RemoveCharAll@CUtil@@QAEXAAV?$CStringT@DV?$StrTraitMFC_DLL@DV?$ChTraitsCRT@D@ATL@@@@@ATL@@D@Z ENDP ; CUtil::RemoveCharAll
_TEXT	ENDS
; Function compile flags: /Ogtp
; File D:\git\src\IBK\IBK_DRFN\ProjSrc\SrcDrfn\Chart\chart_common\Grid\Util.cpp
;	COMDAT ?TrimRight@CUtil@@QAEXPAD@Z
_TEXT	SEGMENT
_nOld$1$ = -4						; size = 4
_pIn$ = 8						; size = 4
?TrimRight@CUtil@@QAEXPAD@Z PROC			; CUtil::TrimRight, COMDAT
; _this$ = ecx

; 339  : {

  00000	55		 push	 ebp
  00001	8b ec		 mov	 ebp, esp
  00003	51		 push	 ecx

; 340  : 	int nLen = strlen(pIn);

  00004	8b 4d 08	 mov	 ecx, DWORD PTR _pIn$[ebp]
  00007	53		 push	 ebx
  00008	56		 push	 esi
  00009	8b f1		 mov	 esi, ecx
  0000b	57		 push	 edi
  0000c	8d 56 01	 lea	 edx, DWORD PTR [esi+1]
  0000f	90		 npad	 1
$LL10@TrimRight:
  00010	8a 06		 mov	 al, BYTE PTR [esi]
  00012	46		 inc	 esi
  00013	84 c0		 test	 al, al
  00015	75 f9		 jne	 SHORT $LL10@TrimRight

; 341  : 	int nOld = nLen;
; 342  : 	while( ::isspace(*(pIn+nLen-1)))

  00017	8b 1d 00 00 00
	00		 mov	 ebx, DWORD PTR __imp__isspace
  0001d	8d 79 ff	 lea	 edi, DWORD PTR [ecx-1]
  00020	2b f2		 sub	 esi, edx
  00022	03 fe		 add	 edi, esi
  00024	89 75 fc	 mov	 DWORD PTR _nOld$1$[ebp], esi
  00027	0f be 07	 movsx	 eax, BYTE PTR [edi]
  0002a	50		 push	 eax
  0002b	ff d3		 call	 ebx
  0002d	83 c4 04	 add	 esp, 4
  00030	85 c0		 test	 eax, eax
  00032	74 1e		 je	 SHORT $LN1@TrimRight
$LL2@TrimRight:
  00034	0f be 47 ff	 movsx	 eax, BYTE PTR [edi-1]

; 343  : 	{
; 344  : 		nLen--;

  00038	8d 7f ff	 lea	 edi, DWORD PTR [edi-1]
  0003b	50		 push	 eax
  0003c	4e		 dec	 esi
  0003d	ff d3		 call	 ebx
  0003f	83 c4 04	 add	 esp, 4
  00042	85 c0		 test	 eax, eax
  00044	75 ee		 jne	 SHORT $LL2@TrimRight

; 345  : 	}
; 346  : 	if(nLen==nOld)	return;

  00046	3b 75 fc	 cmp	 esi, DWORD PTR _nOld$1$[ebp]
  00049	74 07		 je	 SHORT $LN1@TrimRight

; 347  : 	pIn[nLen] = '\0';

  0004b	8b 45 08	 mov	 eax, DWORD PTR _pIn$[ebp]
  0004e	c6 04 06 00	 mov	 BYTE PTR [esi+eax], 0
$LN1@TrimRight:

; 348  : }

  00052	5f		 pop	 edi
  00053	5e		 pop	 esi
  00054	5b		 pop	 ebx
  00055	8b e5		 mov	 esp, ebp
  00057	5d		 pop	 ebp
  00058	c2 04 00	 ret	 4
?TrimRight@CUtil@@QAEXPAD@Z ENDP			; CUtil::TrimRight
_TEXT	ENDS
; Function compile flags: /Ogtp
; File D:\git\src\IBK\IBK_DRFN\ProjSrc\SrcDrfn\Chart\chart_common\Grid\Util.cpp
; File C:\Program Files (x86)\Microsoft Visual Studio\2019\Community\VC\Tools\MSVC\14.29.30133\atlmfc\include\cstringt.h
; File D:\git\src\IBK\IBK_DRFN\ProjSrc\SrcDrfn\Chart\chart_common\Grid\Util.cpp
; File C:\Program Files (x86)\Microsoft Visual Studio\2019\Community\VC\Tools\MSVC\14.29.30133\atlmfc\include\cstringt.h
; File D:\git\src\IBK\IBK_DRFN\ProjSrc\SrcDrfn\Chart\chart_common\Grid\Util.cpp
; File C:\Program Files (x86)\Microsoft Visual Studio\2019\Community\VC\Tools\MSVC\14.29.30133\atlmfc\include\atlsimpstr.h
; File D:\git\src\IBK\IBK_DRFN\ProjSrc\SrcDrfn\Chart\chart_common\Grid\Util.cpp
; File C:\Program Files (x86)\Microsoft Visual Studio\2019\Community\VC\Tools\MSVC\14.29.30133\atlmfc\include\atlsimpstr.h
; File D:\git\src\IBK\IBK_DRFN\ProjSrc\SrcDrfn\Chart\chart_common\Grid\Util.cpp
; File C:\Program Files (x86)\Microsoft Visual Studio\2019\Community\VC\Tools\MSVC\14.29.30133\atlmfc\include\atlsimpstr.h
; File D:\git\src\IBK\IBK_DRFN\ProjSrc\SrcDrfn\Chart\chart_common\Grid\Util.cpp
; File C:\Program Files (x86)\Microsoft Visual Studio\2019\Community\VC\Tools\MSVC\14.29.30133\atlmfc\include\cstringt.h
; File D:\git\src\IBK\IBK_DRFN\ProjSrc\SrcDrfn\Chart\chart_common\Grid\Util.cpp
; File C:\Program Files (x86)\Microsoft Visual Studio\2019\Community\VC\Tools\MSVC\14.29.30133\atlmfc\include\cstringt.h
; File C:\Program Files (x86)\Microsoft Visual Studio\2019\Community\VC\Tools\MSVC\14.29.30133\atlmfc\include\atlsimpstr.h
; File C:\Program Files (x86)\Microsoft Visual Studio\2019\Community\VC\Tools\MSVC\14.29.30133\atlmfc\include\cstringt.h
; File D:\git\src\IBK\IBK_DRFN\ProjSrc\SrcDrfn\Chart\chart_common\Grid\Util.cpp
; File C:\Program Files (x86)\Microsoft Visual Studio\2019\Community\VC\Tools\MSVC\14.29.30133\atlmfc\include\cstringt.h
; File D:\git\src\IBK\IBK_DRFN\ProjSrc\SrcDrfn\Chart\chart_common\Grid\Util.cpp
; File C:\Program Files (x86)\Microsoft Visual Studio\2019\Community\VC\Tools\MSVC\14.29.30133\atlmfc\include\cstringt.h
; File C:\Program Files (x86)\Microsoft Visual Studio\2019\Community\VC\Tools\MSVC\14.29.30133\atlmfc\include\atlsimpstr.h
; File C:\Program Files (x86)\Microsoft Visual Studio\2019\Community\VC\Tools\MSVC\14.29.30133\atlmfc\include\cstringt.h
; File D:\git\src\IBK\IBK_DRFN\ProjSrc\SrcDrfn\Chart\chart_common\Grid\Util.cpp
; File C:\Program Files (x86)\Microsoft Visual Studio\2019\Community\VC\Tools\MSVC\14.29.30133\atlmfc\include\cstringt.h
; File D:\git\src\IBK\IBK_DRFN\ProjSrc\SrcDrfn\Chart\chart_common\Grid\Util.cpp
; File C:\Program Files (x86)\Microsoft Visual Studio\2019\Community\VC\Tools\MSVC\14.29.30133\atlmfc\include\cstringt.h
; File C:\Program Files (x86)\Microsoft Visual Studio\2019\Community\VC\Tools\MSVC\14.29.30133\atlmfc\include\atlsimpstr.h
; File C:\Program Files (x86)\Microsoft Visual Studio\2019\Community\VC\Tools\MSVC\14.29.30133\atlmfc\include\cstringt.h
; File C:\Program Files (x86)\Microsoft Visual Studio\2019\Community\VC\Tools\MSVC\14.29.30133\atlmfc\include\atlsimpstr.h
; File C:\Program Files (x86)\Microsoft Visual Studio\2019\Community\VC\Tools\MSVC\14.29.30133\atlmfc\include\cstringt.h
; File D:\git\src\IBK\IBK_DRFN\ProjSrc\SrcDrfn\Chart\chart_common\Grid\Util.cpp
; File C:\Program Files (x86)\Microsoft Visual Studio\2019\Community\VC\Tools\MSVC\14.29.30133\atlmfc\include\atlsimpstr.h
; File D:\git\src\IBK\IBK_DRFN\ProjSrc\SrcDrfn\Chart\chart_common\Grid\Util.cpp
; File C:\Program Files (x86)\Microsoft Visual Studio\2019\Community\VC\Tools\MSVC\14.29.30133\atlmfc\include\cstringt.h
; File D:\git\src\IBK\IBK_DRFN\ProjSrc\SrcDrfn\Chart\chart_common\Grid\Util.cpp
; File C:\Program Files (x86)\Microsoft Visual Studio\2019\Community\VC\Tools\MSVC\14.29.30133\atlmfc\include\cstringt.h
; File C:\Program Files (x86)\Microsoft Visual Studio\2019\Community\VC\Tools\MSVC\14.29.30133\atlmfc\include\atlsimpstr.h
; File C:\Program Files (x86)\Microsoft Visual Studio\2019\Community\VC\Tools\MSVC\14.29.30133\atlmfc\include\cstringt.h
; File D:\git\src\IBK\IBK_DRFN\ProjSrc\SrcDrfn\Chart\chart_common\Grid\Util.cpp
; File C:\Program Files (x86)\Microsoft Visual Studio\2019\Community\VC\Tools\MSVC\14.29.30133\atlmfc\include\cstringt.h
; File D:\git\src\IBK\IBK_DRFN\ProjSrc\SrcDrfn\Chart\chart_common\Grid\Util.cpp
; File C:\Program Files (x86)\Microsoft Visual Studio\2019\Community\VC\Tools\MSVC\14.29.30133\atlmfc\include\cstringt.h
; File C:\Program Files (x86)\Microsoft Visual Studio\2019\Community\VC\Tools\MSVC\14.29.30133\atlmfc\include\atlsimpstr.h
; File C:\Program Files (x86)\Microsoft Visual Studio\2019\Community\VC\Tools\MSVC\14.29.30133\atlmfc\include\cstringt.h
; File C:\Program Files (x86)\Microsoft Visual Studio\2019\Community\VC\Tools\MSVC\14.29.30133\atlmfc\include\atlsimpstr.h
; File C:\Program Files (x86)\Microsoft Visual Studio\2019\Community\VC\Tools\MSVC\14.29.30133\atlmfc\include\cstringt.h
; File D:\git\src\IBK\IBK_DRFN\ProjSrc\SrcDrfn\Chart\chart_common\Grid\Util.cpp
;	COMDAT ?AdjustMask@CUtil@@QAE?AV?$CStringT@DV?$StrTraitMFC_DLL@DV?$ChTraitsCRT@D@ATL@@@@@ATL@@V23@0@Z
_TEXT	SEGMENT
$T2 = -60						; size = 4
$T3 = -56						; size = 4
$T4 = -52						; size = 4
$T5 = -48						; size = 4
$T6 = -44						; size = 4
$T7 = -40						; size = 4
tv668 = -36						; size = 4
_i$1$ = -32						; size = 4
$T8 = -28						; size = 4
_str$9 = -24						; size = 4
_result$ = -20						; size = 4
_chTemp$10 = -15					; size = 1
_chTemp$11 = -14					; size = 1
_chTemp$12 = -13					; size = 1
__$EHRec$ = -12						; size = 12
___$ReturnUdt$ = 8					; size = 4
_mask$ = 12						; size = 4
_str$ = 16						; size = 4
?AdjustMask@CUtil@@QAE?AV?$CStringT@DV?$StrTraitMFC_DLL@DV?$ChTraitsCRT@D@ATL@@@@@ATL@@V23@0@Z PROC ; CUtil::AdjustMask, COMDAT
; _this$ = ecx

; 365  : {	

  00000	55		 push	 ebp
  00001	8b ec		 mov	 ebp, esp
  00003	6a ff		 push	 -1
  00005	68 00 00 00 00	 push	 __ehhandler$?AdjustMask@CUtil@@QAE?AV?$CStringT@DV?$StrTraitMFC_DLL@DV?$ChTraitsCRT@D@ATL@@@@@ATL@@V23@0@Z
  0000a	64 a1 00 00 00
	00		 mov	 eax, DWORD PTR fs:0
  00010	50		 push	 eax
  00011	83 ec 30	 sub	 esp, 48			; 00000030H
  00014	53		 push	 ebx
  00015	56		 push	 esi
  00016	57		 push	 edi
  00017	a1 00 00 00 00	 mov	 eax, DWORD PTR ___security_cookie
  0001c	33 c5		 xor	 eax, ebp
  0001e	50		 push	 eax
  0001f	8d 45 f4	 lea	 eax, DWORD PTR __$EHRec$[ebp]
  00022	64 a3 00 00 00
	00		 mov	 DWORD PTR fs:0, eax
  00028	33 ff		 xor	 edi, edi
  0002a	89 7d e4	 mov	 DWORD PTR $T8[ebp], edi
; File C:\Program Files (x86)\Microsoft Visual Studio\2019\Community\VC\Tools\MSVC\14.29.30133\atlmfc\include\cstringt.h

; 2486 : 		return(str1.Compare(psz2) == 0);

  0002d	68 00 00 00 00	 push	 OFFSET ??_C@_00CNPNBAHC@@
  00032	8d 4d 10	 lea	 ecx, DWORD PTR _str$[ebp]
; File D:\git\src\IBK\IBK_DRFN\ProjSrc\SrcDrfn\Chart\chart_common\Grid\Util.cpp

; 365  : {	

  00035	c7 45 fc 01 00
	00 00		 mov	 DWORD PTR __$EHRec$[ebp+8], 1
; File C:\Program Files (x86)\Microsoft Visual Studio\2019\Community\VC\Tools\MSVC\14.29.30133\atlmfc\include\cstringt.h

; 2486 : 		return(str1.Compare(psz2) == 0);

  0003c	ff 15 00 00 00
	00		 call	 DWORD PTR __imp_?Compare@?$CStringT@DV?$StrTraitMFC_DLL@DV?$ChTraitsCRT@D@ATL@@@@@ATL@@QBEHPBD@Z
  00042	85 c0		 test	 eax, eax
; File D:\git\src\IBK\IBK_DRFN\ProjSrc\SrcDrfn\Chart\chart_common\Grid\Util.cpp

; 367  : 	if(str == "")

  00044	75 13		 jne	 SHORT $LN4@AdjustMask

; 368  : 	{
; 369  : 		return "";

  00046	8b 4d 08	 mov	 ecx, DWORD PTR ___$ReturnUdt$[ebp]
  00049	68 00 00 00 00	 push	 OFFSET ??_C@_00CNPNBAHC@@
  0004e	ff 15 00 00 00
	00		 call	 DWORD PTR __imp_??0?$CStringT@DV?$StrTraitMFC_DLL@DV?$ChTraitsCRT@D@ATL@@@@@ATL@@QAE@PBD@Z
  00054	e9 3e 03 00 00	 jmp	 $LN113@AdjustMask
$LN4@AdjustMask:

; 370  : 	}
; 371  : 	// end
; 372  : 
; 373  : 	int nTemp = atoi(str);

  00059	ff 75 10	 push	 DWORD PTR _str$[ebp]
  0005c	ff 15 00 00 00
	00		 call	 DWORD PTR __imp__atoi

; 374  : 	str.Format("%d",nTemp);	

  00062	50		 push	 eax
  00063	8d 45 10	 lea	 eax, DWORD PTR _str$[ebp]
  00066	68 00 00 00 00	 push	 OFFSET ??_C@_02DPKJAMEF@?$CFd@
  0006b	50		 push	 eax
  0006c	ff 15 00 00 00
	00		 call	 DWORD PTR __imp_?Format@?$CStringT@DV?$StrTraitMFC_DLL@DV?$ChTraitsCRT@D@ATL@@@@@ATL@@QAAXPBDZZ
  00072	83 c4 10	 add	 esp, 16			; 00000010H

; 376  : 	CString result=""; 

  00075	8d 4d ec	 lea	 ecx, DWORD PTR _result$[ebp]
  00078	68 00 00 00 00	 push	 OFFSET ??_C@_00CNPNBAHC@@
  0007d	ff 15 00 00 00
	00		 call	 DWORD PTR __imp_??0?$CStringT@DV?$StrTraitMFC_DLL@DV?$ChTraitsCRT@D@ATL@@@@@ATL@@QAE@PBD@Z
; File C:\Program Files (x86)\Microsoft Visual Studio\2019\Community\VC\Tools\MSVC\14.29.30133\atlmfc\include\atlsimpstr.h

; 519  : 		return( GetData()->nDataLength );

  00083	8b 45 0c	 mov	 eax, DWORD PTR _mask$[ebp]
; File D:\git\src\IBK\IBK_DRFN\ProjSrc\SrcDrfn\Chart\chart_common\Grid\Util.cpp

; 376  : 	CString result=""; 

  00086	c6 45 fc 02	 mov	 BYTE PTR __$EHRec$[ebp+8], 2
; File C:\Program Files (x86)\Microsoft Visual Studio\2019\Community\VC\Tools\MSVC\14.29.30133\atlmfc\include\atlsimpstr.h

; 519  : 		return( GetData()->nDataLength );

  0008a	8b 40 f4	 mov	 eax, DWORD PTR [eax-12]
  0008d	89 45 c4	 mov	 DWORD PTR $T2[ebp], eax
; File D:\git\src\IBK\IBK_DRFN\ProjSrc\SrcDrfn\Chart\chart_common\Grid\Util.cpp

; 378  : 	int j=mask.GetLength()-1;

  00090	8d 70 ff	 lea	 esi, DWORD PTR [eax-1]
; File C:\Program Files (x86)\Microsoft Visual Studio\2019\Community\VC\Tools\MSVC\14.29.30133\atlmfc\include\atlsimpstr.h

; 519  : 		return( GetData()->nDataLength );

  00093	8b 45 10	 mov	 eax, DWORD PTR _str$[ebp]
  00096	8b 50 f4	 mov	 edx, DWORD PTR [eax-12]
; File D:\git\src\IBK\IBK_DRFN\ProjSrc\SrcDrfn\Chart\chart_common\Grid\Util.cpp

; 379  : 	int i=str.GetLength()-1;

  00099	4a		 dec	 edx
  0009a	89 55 e0	 mov	 DWORD PTR _i$1$[ebp], edx

; 380  : 	if(j<=0)

  0009d	85 f6		 test	 esi, esi
  0009f	7f 08		 jg	 SHORT $LN111@AdjustMask

; 381  : 	{	
; 382  : 		return str;

  000a1	8d 45 10	 lea	 eax, DWORD PTR _str$[ebp]
  000a4	e9 db 02 00 00	 jmp	 $LN114@AdjustMask
$LN111@AdjustMask:
  000a9	8d 5e ff	 lea	 ebx, DWORD PTR [esi-1]
  000ac	89 5d dc	 mov	 DWORD PTR tv668[ebp], ebx
  000af	90		 npad	 1
$LL2@AdjustMask:

; 386  : 	{
; 387  : 		if(i>=0)

  000b0	85 d2		 test	 edx, edx
  000b2	0f 88 0d 01 00
	00		 js	 $LN6@AdjustMask

; 388  : 		{
; 389  : 			if((mask[j] == '9') || (mask[j] == 'Z') || (mask[j] == 'z'))

  000b8	56		 push	 esi
  000b9	8d 4d 0c	 lea	 ecx, DWORD PTR _mask$[ebp]
  000bc	ff 15 00 00 00
	00		 call	 DWORD PTR __imp_??A?$CSimpleStringT@D$00@ATL@@QBEDH@Z
  000c2	3c 39		 cmp	 al, 57			; 00000039H
  000c4	0f 84 87 00 00
	00		 je	 $LN10@AdjustMask
  000ca	56		 push	 esi
  000cb	8d 4d 0c	 lea	 ecx, DWORD PTR _mask$[ebp]
  000ce	ff 15 00 00 00
	00		 call	 DWORD PTR __imp_??A?$CSimpleStringT@D$00@ATL@@QBEDH@Z
  000d4	3c 5a		 cmp	 al, 90			; 0000005aH
  000d6	74 79		 je	 SHORT $LN10@AdjustMask
  000d8	56		 push	 esi
  000d9	8d 4d 0c	 lea	 ecx, DWORD PTR _mask$[ebp]
  000dc	ff 15 00 00 00
	00		 call	 DWORD PTR __imp_??A?$CSimpleStringT@D$00@ATL@@QBEDH@Z
  000e2	3c 7a		 cmp	 al, 122			; 0000007aH
  000e4	74 6b		 je	 SHORT $LN10@AdjustMask

; 396  : 				result=mask[j]+result;

  000e6	56		 push	 esi
  000e7	8d 4d 0c	 lea	 ecx, DWORD PTR _mask$[ebp]
  000ea	ff 15 00 00 00
	00		 call	 DWORD PTR __imp_??A?$CSimpleStringT@D$00@ATL@@QBEDH@Z
  000f0	8a d8		 mov	 bl, al
; File C:\Program Files (x86)\Microsoft Visual Studio\2019\Community\VC\Tools\MSVC\14.29.30133\atlmfc\include\cstringt.h

; 2441 : 		CStringT strResult( str2.GetManager() );

  000f2	8d 4d ec	 lea	 ecx, DWORD PTR _result$[ebp]
; File D:\git\src\IBK\IBK_DRFN\ProjSrc\SrcDrfn\Chart\chart_common\Grid\Util.cpp

; 396  : 				result=mask[j]+result;

  000f5	c6 45 fc 04	 mov	 BYTE PTR __$EHRec$[ebp+8], 4
; File C:\Program Files (x86)\Microsoft Visual Studio\2019\Community\VC\Tools\MSVC\14.29.30133\atlmfc\include\cstringt.h

; 2441 : 		CStringT strResult( str2.GetManager() );

  000f9	ff 15 00 00 00
	00		 call	 DWORD PTR __imp_?GetManager@?$CStringT@DV?$StrTraitMFC_DLL@DV?$ChTraitsCRT@D@ATL@@@@@ATL@@QBEPAUIAtlStringMgr@2@XZ
  000ff	50		 push	 eax
  00100	8d 4d d8	 lea	 ecx, DWORD PTR $T7[ebp]
  00103	ff 15 00 00 00
	00		 call	 DWORD PTR __imp_??0?$CStringT@DV?$StrTraitMFC_DLL@DV?$ChTraitsCRT@D@ATL@@@@@ATL@@QAE@PAUIAtlStringMgr@1@@Z
; File C:\Program Files (x86)\Microsoft Visual Studio\2019\Community\VC\Tools\MSVC\14.29.30133\atlmfc\include\atlsimpstr.h

; 519  : 		return( GetData()->nDataLength );

  00109	8b 45 ec	 mov	 eax, DWORD PTR _result$[ebp]
; File C:\Program Files (x86)\Microsoft Visual Studio\2019\Community\VC\Tools\MSVC\14.29.30133\atlmfc\include\cstringt.h

; 2446 : 		return( strResult );

  0010c	83 cf 04	 or	 edi, 4
  0010f	88 5d f3	 mov	 BYTE PTR _chTemp$12[ebp], bl
  00112	89 7d e4	 mov	 DWORD PTR $T8[ebp], edi
  00115	ff 70 f4	 push	 DWORD PTR [eax-12]
  00118	50		 push	 eax
  00119	6a 01		 push	 1
  0011b	8d 45 f3	 lea	 eax, DWORD PTR _chTemp$12[ebp]
  0011e	50		 push	 eax
  0011f	8d 45 d8	 lea	 eax, DWORD PTR $T7[ebp]
  00122	50		 push	 eax
  00123	ff 15 00 00 00
	00		 call	 DWORD PTR __imp_?Concatenate@?$CSimpleStringT@D$00@ATL@@KAXAAV12@PBDH1H@Z
  00129	83 c4 14	 add	 esp, 20			; 00000014H
; File D:\git\src\IBK\IBK_DRFN\ProjSrc\SrcDrfn\Chart\chart_common\Grid\Util.cpp

; 396  : 				result=mask[j]+result;

  0012c	8d 45 d8	 lea	 eax, DWORD PTR $T7[ebp]
  0012f	8d 4d ec	 lea	 ecx, DWORD PTR _result$[ebp]
  00132	50		 push	 eax
  00133	ff 15 00 00 00
	00		 call	 DWORD PTR __imp_??4?$CStringT@DV?$StrTraitMFC_DLL@DV?$ChTraitsCRT@D@ATL@@@@@ATL@@QAEAAV01@ABV01@@Z
  00139	8d 4d d8	 lea	 ecx, DWORD PTR $T7[ebp]
  0013c	c6 45 fc 02	 mov	 BYTE PTR __$EHRec$[ebp+8], 2
  00140	83 e7 fb	 and	 edi, -5			; fffffffbH
  00143	ff 15 00 00 00
	00		 call	 DWORD PTR __imp_??1?$CStringT@DV?$StrTraitMFC_DLL@DV?$ChTraitsCRT@D@ATL@@@@@ATL@@QAE@XZ

; 397  : 				j--;

  00149	8b 5d dc	 mov	 ebx, DWORD PTR tv668[ebp]
  0014c	e9 1d 02 00 00	 jmp	 $LN115@AdjustMask
$LN10@AdjustMask:

; 391  : 				result=str[i]+result;

  00151	ff 75 e0	 push	 DWORD PTR _i$1$[ebp]
  00154	8d 4d 10	 lea	 ecx, DWORD PTR _str$[ebp]
  00157	ff 15 00 00 00
	00		 call	 DWORD PTR __imp_??A?$CSimpleStringT@D$00@ATL@@QBEDH@Z
  0015d	8a d8		 mov	 bl, al
; File C:\Program Files (x86)\Microsoft Visual Studio\2019\Community\VC\Tools\MSVC\14.29.30133\atlmfc\include\cstringt.h

; 2441 : 		CStringT strResult( str2.GetManager() );

  0015f	8d 4d ec	 lea	 ecx, DWORD PTR _result$[ebp]
; File D:\git\src\IBK\IBK_DRFN\ProjSrc\SrcDrfn\Chart\chart_common\Grid\Util.cpp

; 391  : 				result=str[i]+result;

  00162	c6 45 fc 03	 mov	 BYTE PTR __$EHRec$[ebp+8], 3
; File C:\Program Files (x86)\Microsoft Visual Studio\2019\Community\VC\Tools\MSVC\14.29.30133\atlmfc\include\cstringt.h

; 2441 : 		CStringT strResult( str2.GetManager() );

  00166	ff 15 00 00 00
	00		 call	 DWORD PTR __imp_?GetManager@?$CStringT@DV?$StrTraitMFC_DLL@DV?$ChTraitsCRT@D@ATL@@@@@ATL@@QBEPAUIAtlStringMgr@2@XZ
  0016c	50		 push	 eax
  0016d	8d 4d d4	 lea	 ecx, DWORD PTR $T6[ebp]
  00170	ff 15 00 00 00
	00		 call	 DWORD PTR __imp_??0?$CStringT@DV?$StrTraitMFC_DLL@DV?$ChTraitsCRT@D@ATL@@@@@ATL@@QAE@PAUIAtlStringMgr@1@@Z
; File C:\Program Files (x86)\Microsoft Visual Studio\2019\Community\VC\Tools\MSVC\14.29.30133\atlmfc\include\atlsimpstr.h

; 519  : 		return( GetData()->nDataLength );

  00176	8b 45 ec	 mov	 eax, DWORD PTR _result$[ebp]
; File C:\Program Files (x86)\Microsoft Visual Studio\2019\Community\VC\Tools\MSVC\14.29.30133\atlmfc\include\cstringt.h

; 2446 : 		return( strResult );

  00179	83 cf 02	 or	 edi, 2
  0017c	88 5d f2	 mov	 BYTE PTR _chTemp$11[ebp], bl
  0017f	89 7d e4	 mov	 DWORD PTR $T8[ebp], edi
  00182	ff 70 f4	 push	 DWORD PTR [eax-12]
  00185	50		 push	 eax
  00186	6a 01		 push	 1
  00188	8d 45 f2	 lea	 eax, DWORD PTR _chTemp$11[ebp]
  0018b	50		 push	 eax
  0018c	8d 45 d4	 lea	 eax, DWORD PTR $T6[ebp]
  0018f	50		 push	 eax
  00190	ff 15 00 00 00
	00		 call	 DWORD PTR __imp_?Concatenate@?$CSimpleStringT@D$00@ATL@@KAXAAV12@PBDH1H@Z
  00196	83 c4 14	 add	 esp, 20			; 00000014H
; File D:\git\src\IBK\IBK_DRFN\ProjSrc\SrcDrfn\Chart\chart_common\Grid\Util.cpp

; 391  : 				result=str[i]+result;

  00199	8d 45 d4	 lea	 eax, DWORD PTR $T6[ebp]
  0019c	8d 4d ec	 lea	 ecx, DWORD PTR _result$[ebp]
  0019f	50		 push	 eax
  001a0	ff 15 00 00 00
	00		 call	 DWORD PTR __imp_??4?$CStringT@DV?$StrTraitMFC_DLL@DV?$ChTraitsCRT@D@ATL@@@@@ATL@@QAEAAV01@ABV01@@Z
  001a6	8d 4d d4	 lea	 ecx, DWORD PTR $T6[ebp]
  001a9	c6 45 fc 02	 mov	 BYTE PTR __$EHRec$[ebp+8], 2
  001ad	83 e7 fd	 and	 edi, -3			; fffffffdH
  001b0	ff 15 00 00 00
	00		 call	 DWORD PTR __imp_??1?$CStringT@DV?$StrTraitMFC_DLL@DV?$ChTraitsCRT@D@ATL@@@@@ATL@@QAE@XZ

; 392  : 				j--; i--;

  001b6	8b 55 e0	 mov	 edx, DWORD PTR _i$1$[ebp]

; 398  : 			}
; 399  : 			
; 400  : 		}

  001b9	8b 5d dc	 mov	 ebx, DWORD PTR tv668[ebp]
  001bc	4a		 dec	 edx
  001bd	89 55 e0	 mov	 DWORD PTR _i$1$[ebp], edx
  001c0	e9 ac 01 00 00	 jmp	 $LN7@AdjustMask
$LN6@AdjustMask:

; 401  : 		else
; 402  : 		{
; 403  : 			CString str;

  001c5	8d 4d e8	 lea	 ecx, DWORD PTR _str$9[ebp]
  001c8	ff 15 00 00 00
	00		 call	 DWORD PTR __imp_??0?$CStringT@DV?$StrTraitMFC_DLL@DV?$ChTraitsCRT@D@ATL@@@@@ATL@@QAE@XZ

; 404  : 			if(mask[j] == '9')

  001ce	56		 push	 esi
  001cf	8d 4d 0c	 lea	 ecx, DWORD PTR _mask$[ebp]
  001d2	c6 45 fc 05	 mov	 BYTE PTR __$EHRec$[ebp+8], 5
  001d6	ff 15 00 00 00
	00		 call	 DWORD PTR __imp_??A?$CSimpleStringT@D$00@ATL@@QBEDH@Z
  001dc	3c 39		 cmp	 al, 57			; 00000039H
  001de	75 5e		 jne	 SHORT $LN11@AdjustMask

; 405  : 			{
; 406  : 				str="0";

  001e0	68 00 00 00 00	 push	 OFFSET ??_C@_01GBGANLPD@0@
  001e5	8d 4d e8	 lea	 ecx, DWORD PTR _str$9[ebp]
  001e8	ff 15 00 00 00
	00		 call	 DWORD PTR __imp_??4?$CStringT@DV?$StrTraitMFC_DLL@DV?$ChTraitsCRT@D@ATL@@@@@ATL@@QAEAAV01@PBD@Z
; File C:\Program Files (x86)\Microsoft Visual Studio\2019\Community\VC\Tools\MSVC\14.29.30133\atlmfc\include\cstringt.h

; 2390 : 		CStringT strResult( str1.GetManager() );

  001ee	8d 4d e8	 lea	 ecx, DWORD PTR _str$9[ebp]
; File D:\git\src\IBK\IBK_DRFN\ProjSrc\SrcDrfn\Chart\chart_common\Grid\Util.cpp

; 407  : 				result=str+result;

  001f1	c6 45 fc 06	 mov	 BYTE PTR __$EHRec$[ebp+8], 6
; File C:\Program Files (x86)\Microsoft Visual Studio\2019\Community\VC\Tools\MSVC\14.29.30133\atlmfc\include\cstringt.h

; 2390 : 		CStringT strResult( str1.GetManager() );

  001f5	ff 15 00 00 00
	00		 call	 DWORD PTR __imp_?GetManager@?$CStringT@DV?$StrTraitMFC_DLL@DV?$ChTraitsCRT@D@ATL@@@@@ATL@@QBEPAUIAtlStringMgr@2@XZ
  001fb	50		 push	 eax
  001fc	8d 4d d0	 lea	 ecx, DWORD PTR $T5[ebp]
  001ff	ff 15 00 00 00
	00		 call	 DWORD PTR __imp_??0?$CStringT@DV?$StrTraitMFC_DLL@DV?$ChTraitsCRT@D@ATL@@@@@ATL@@QAE@PAUIAtlStringMgr@1@@Z
; File C:\Program Files (x86)\Microsoft Visual Studio\2019\Community\VC\Tools\MSVC\14.29.30133\atlmfc\include\atlsimpstr.h

; 519  : 		return( GetData()->nDataLength );

  00205	8b 45 ec	 mov	 eax, DWORD PTR _result$[ebp]
; File C:\Program Files (x86)\Microsoft Visual Studio\2019\Community\VC\Tools\MSVC\14.29.30133\atlmfc\include\cstringt.h

; 2394 : 		return( strResult );

  00208	83 cf 08	 or	 edi, 8
; File C:\Program Files (x86)\Microsoft Visual Studio\2019\Community\VC\Tools\MSVC\14.29.30133\atlmfc\include\atlsimpstr.h

; 519  : 		return( GetData()->nDataLength );

  0020b	8b 4d e8	 mov	 ecx, DWORD PTR _str$9[ebp]
; File C:\Program Files (x86)\Microsoft Visual Studio\2019\Community\VC\Tools\MSVC\14.29.30133\atlmfc\include\cstringt.h

; 2394 : 		return( strResult );

  0020e	89 7d e4	 mov	 DWORD PTR $T8[ebp], edi
  00211	ff 70 f4	 push	 DWORD PTR [eax-12]
  00214	50		 push	 eax
  00215	ff 71 f4	 push	 DWORD PTR [ecx-12]
  00218	8d 45 d0	 lea	 eax, DWORD PTR $T5[ebp]
  0021b	51		 push	 ecx
  0021c	50		 push	 eax
  0021d	ff 15 00 00 00
	00		 call	 DWORD PTR __imp_?Concatenate@?$CSimpleStringT@D$00@ATL@@KAXAAV12@PBDH1H@Z
  00223	83 c4 14	 add	 esp, 20			; 00000014H
; File D:\git\src\IBK\IBK_DRFN\ProjSrc\SrcDrfn\Chart\chart_common\Grid\Util.cpp

; 407  : 				result=str+result;

  00226	8d 45 d0	 lea	 eax, DWORD PTR $T5[ebp]
  00229	8d 4d ec	 lea	 ecx, DWORD PTR _result$[ebp]
  0022c	50		 push	 eax
  0022d	ff 15 00 00 00
	00		 call	 DWORD PTR __imp_??4?$CStringT@DV?$StrTraitMFC_DLL@DV?$ChTraitsCRT@D@ATL@@@@@ATL@@QAEAAV01@ABV01@@Z
  00233	83 e7 f7	 and	 edi, -9			; fffffff7H
  00236	8d 4d d0	 lea	 ecx, DWORD PTR $T5[ebp]

; 408  : 				j--;
; 409  : 			}

  00239	e9 1d 01 00 00	 jmp	 $LN116@AdjustMask
$LN11@AdjustMask:

; 410  : 			else if((mask[j] == 'z') || (mask[j] == 'Z'))

  0023e	56		 push	 esi
  0023f	8d 4d 0c	 lea	 ecx, DWORD PTR _mask$[ebp]
  00242	ff 15 00 00 00
	00		 call	 DWORD PTR __imp_??A?$CSimpleStringT@D$00@ATL@@QBEDH@Z
  00248	3c 7a		 cmp	 al, 122			; 0000007aH
  0024a	0f 84 b2 00 00
	00		 je	 $LN15@AdjustMask
  00250	56		 push	 esi
  00251	8d 4d 0c	 lea	 ecx, DWORD PTR _mask$[ebp]
  00254	ff 15 00 00 00
	00		 call	 DWORD PTR __imp_??A?$CSimpleStringT@D$00@ATL@@QBEDH@Z
  0025a	3c 5a		 cmp	 al, 90			; 0000005aH
  0025c	0f 84 a0 00 00
	00		 je	 $LN15@AdjustMask
; File C:\Program Files (x86)\Microsoft Visual Studio\2019\Community\VC\Tools\MSVC\14.29.30133\atlmfc\include\atlsimpstr.h

; 519  : 		return( GetData()->nDataLength );

  00262	8b 45 0c	 mov	 eax, DWORD PTR _mask$[ebp]
  00265	8b 40 f4	 mov	 eax, DWORD PTR [eax-12]
; File D:\git\src\IBK\IBK_DRFN\ProjSrc\SrcDrfn\Chart\chart_common\Grid\Util.cpp

; 418  : 				if((j+1< mask.GetLength()-1) && (j-1 >= 0))

  00268	48		 dec	 eax
  00269	39 45 c4	 cmp	 DWORD PTR $T2[ebp], eax
  0026c	0f 8d ef 00 00
	00		 jge	 $LN14@AdjustMask
  00272	85 f6		 test	 esi, esi
  00274	0f 8e e7 00 00
	00		 jle	 $LN14@AdjustMask

; 419  : 				{
; 420  : 					if((mask[j-1] != 'z') && (mask[j-1] != 'Z'))

  0027a	53		 push	 ebx
  0027b	8d 4d 0c	 lea	 ecx, DWORD PTR _mask$[ebp]
  0027e	ff 15 00 00 00
	00		 call	 DWORD PTR __imp_??A?$CSimpleStringT@D$00@ATL@@QBEDH@Z
  00284	3c 7a		 cmp	 al, 122			; 0000007aH
  00286	0f 84 d5 00 00
	00		 je	 $LN14@AdjustMask
  0028c	53		 push	 ebx
  0028d	8d 4d 0c	 lea	 ecx, DWORD PTR _mask$[ebp]
  00290	ff 15 00 00 00
	00		 call	 DWORD PTR __imp_??A?$CSimpleStringT@D$00@ATL@@QBEDH@Z
  00296	3c 5a		 cmp	 al, 90			; 0000005aH
  00298	0f 84 c3 00 00
	00		 je	 $LN14@AdjustMask

; 422  : 						result=mask[j]+result;

  0029e	56		 push	 esi
  0029f	8d 4d 0c	 lea	 ecx, DWORD PTR _mask$[ebp]
  002a2	ff 15 00 00 00
	00		 call	 DWORD PTR __imp_??A?$CSimpleStringT@D$00@ATL@@QBEDH@Z
  002a8	8a d8		 mov	 bl, al
; File C:\Program Files (x86)\Microsoft Visual Studio\2019\Community\VC\Tools\MSVC\14.29.30133\atlmfc\include\cstringt.h

; 2441 : 		CStringT strResult( str2.GetManager() );

  002aa	8d 4d ec	 lea	 ecx, DWORD PTR _result$[ebp]
; File D:\git\src\IBK\IBK_DRFN\ProjSrc\SrcDrfn\Chart\chart_common\Grid\Util.cpp

; 422  : 						result=mask[j]+result;

  002ad	c6 45 fc 08	 mov	 BYTE PTR __$EHRec$[ebp+8], 8
; File C:\Program Files (x86)\Microsoft Visual Studio\2019\Community\VC\Tools\MSVC\14.29.30133\atlmfc\include\cstringt.h

; 2441 : 		CStringT strResult( str2.GetManager() );

  002b1	ff 15 00 00 00
	00		 call	 DWORD PTR __imp_?GetManager@?$CStringT@DV?$StrTraitMFC_DLL@DV?$ChTraitsCRT@D@ATL@@@@@ATL@@QBEPAUIAtlStringMgr@2@XZ
  002b7	50		 push	 eax
  002b8	8d 4d cc	 lea	 ecx, DWORD PTR $T4[ebp]
  002bb	ff 15 00 00 00
	00		 call	 DWORD PTR __imp_??0?$CStringT@DV?$StrTraitMFC_DLL@DV?$ChTraitsCRT@D@ATL@@@@@ATL@@QAE@PAUIAtlStringMgr@1@@Z
; File C:\Program Files (x86)\Microsoft Visual Studio\2019\Community\VC\Tools\MSVC\14.29.30133\atlmfc\include\atlsimpstr.h

; 519  : 		return( GetData()->nDataLength );

  002c1	8b 45 ec	 mov	 eax, DWORD PTR _result$[ebp]
; File C:\Program Files (x86)\Microsoft Visual Studio\2019\Community\VC\Tools\MSVC\14.29.30133\atlmfc\include\cstringt.h

; 2446 : 		return( strResult );

  002c4	83 cf 20	 or	 edi, 32			; 00000020H
  002c7	88 5d f1	 mov	 BYTE PTR _chTemp$10[ebp], bl
  002ca	89 7d e4	 mov	 DWORD PTR $T8[ebp], edi
  002cd	ff 70 f4	 push	 DWORD PTR [eax-12]
  002d0	50		 push	 eax
  002d1	6a 01		 push	 1
  002d3	8d 45 f1	 lea	 eax, DWORD PTR _chTemp$10[ebp]
  002d6	50		 push	 eax
  002d7	8d 45 cc	 lea	 eax, DWORD PTR $T4[ebp]
  002da	50		 push	 eax
  002db	ff 15 00 00 00
	00		 call	 DWORD PTR __imp_?Concatenate@?$CSimpleStringT@D$00@ATL@@KAXAAV12@PBDH1H@Z
  002e1	83 c4 14	 add	 esp, 20			; 00000014H
; File D:\git\src\IBK\IBK_DRFN\ProjSrc\SrcDrfn\Chart\chart_common\Grid\Util.cpp

; 422  : 						result=mask[j]+result;

  002e4	8d 45 cc	 lea	 eax, DWORD PTR $T4[ebp]
  002e7	8d 4d ec	 lea	 ecx, DWORD PTR _result$[ebp]
  002ea	50		 push	 eax
  002eb	ff 15 00 00 00
	00		 call	 DWORD PTR __imp_??4?$CStringT@DV?$StrTraitMFC_DLL@DV?$ChTraitsCRT@D@ATL@@@@@ATL@@QAEAAV01@ABV01@@Z
  002f1	8d 4d cc	 lea	 ecx, DWORD PTR $T4[ebp]
  002f4	83 e7 df	 and	 edi, -33		; ffffffdfH
  002f7	ff 15 00 00 00
	00		 call	 DWORD PTR __imp_??1?$CStringT@DV?$StrTraitMFC_DLL@DV?$ChTraitsCRT@D@ATL@@@@@ATL@@QAE@XZ

; 423  : 					}
; 424  : 				}
; 425  : 				j--;

  002fd	8b 5d dc	 mov	 ebx, DWORD PTR tv668[ebp]
  00300	eb 5f		 jmp	 SHORT $LN14@AdjustMask
$LN15@AdjustMask:

; 411  : 			{
; 412  : 				str="";

  00302	68 00 00 00 00	 push	 OFFSET ??_C@_00CNPNBAHC@@
  00307	8d 4d e8	 lea	 ecx, DWORD PTR _str$9[ebp]
  0030a	ff 15 00 00 00
	00		 call	 DWORD PTR __imp_??4?$CStringT@DV?$StrTraitMFC_DLL@DV?$ChTraitsCRT@D@ATL@@@@@ATL@@QAEAAV01@PBD@Z
; File C:\Program Files (x86)\Microsoft Visual Studio\2019\Community\VC\Tools\MSVC\14.29.30133\atlmfc\include\cstringt.h

; 2390 : 		CStringT strResult( str1.GetManager() );

  00310	8d 4d e8	 lea	 ecx, DWORD PTR _str$9[ebp]
; File D:\git\src\IBK\IBK_DRFN\ProjSrc\SrcDrfn\Chart\chart_common\Grid\Util.cpp

; 413  : 				result=str+result;

  00313	c6 45 fc 07	 mov	 BYTE PTR __$EHRec$[ebp+8], 7
; File C:\Program Files (x86)\Microsoft Visual Studio\2019\Community\VC\Tools\MSVC\14.29.30133\atlmfc\include\cstringt.h

; 2390 : 		CStringT strResult( str1.GetManager() );

  00317	ff 15 00 00 00
	00		 call	 DWORD PTR __imp_?GetManager@?$CStringT@DV?$StrTraitMFC_DLL@DV?$ChTraitsCRT@D@ATL@@@@@ATL@@QBEPAUIAtlStringMgr@2@XZ
  0031d	50		 push	 eax
  0031e	8d 4d c8	 lea	 ecx, DWORD PTR $T3[ebp]
  00321	ff 15 00 00 00
	00		 call	 DWORD PTR __imp_??0?$CStringT@DV?$StrTraitMFC_DLL@DV?$ChTraitsCRT@D@ATL@@@@@ATL@@QAE@PAUIAtlStringMgr@1@@Z
; File C:\Program Files (x86)\Microsoft Visual Studio\2019\Community\VC\Tools\MSVC\14.29.30133\atlmfc\include\atlsimpstr.h

; 519  : 		return( GetData()->nDataLength );

  00327	8b 45 ec	 mov	 eax, DWORD PTR _result$[ebp]
; File C:\Program Files (x86)\Microsoft Visual Studio\2019\Community\VC\Tools\MSVC\14.29.30133\atlmfc\include\cstringt.h

; 2394 : 		return( strResult );

  0032a	83 cf 10	 or	 edi, 16			; 00000010H
; File C:\Program Files (x86)\Microsoft Visual Studio\2019\Community\VC\Tools\MSVC\14.29.30133\atlmfc\include\atlsimpstr.h

; 519  : 		return( GetData()->nDataLength );

  0032d	8b 4d e8	 mov	 ecx, DWORD PTR _str$9[ebp]
; File C:\Program Files (x86)\Microsoft Visual Studio\2019\Community\VC\Tools\MSVC\14.29.30133\atlmfc\include\cstringt.h

; 2394 : 		return( strResult );

  00330	89 7d e4	 mov	 DWORD PTR $T8[ebp], edi
  00333	ff 70 f4	 push	 DWORD PTR [eax-12]
  00336	50		 push	 eax
  00337	ff 71 f4	 push	 DWORD PTR [ecx-12]
  0033a	8d 45 c8	 lea	 eax, DWORD PTR $T3[ebp]
  0033d	51		 push	 ecx
  0033e	50		 push	 eax
  0033f	ff 15 00 00 00
	00		 call	 DWORD PTR __imp_?Concatenate@?$CSimpleStringT@D$00@ATL@@KAXAAV12@PBDH1H@Z
  00345	83 c4 14	 add	 esp, 20			; 00000014H
; File D:\git\src\IBK\IBK_DRFN\ProjSrc\SrcDrfn\Chart\chart_common\Grid\Util.cpp

; 413  : 				result=str+result;

  00348	8d 45 c8	 lea	 eax, DWORD PTR $T3[ebp]
  0034b	8d 4d ec	 lea	 ecx, DWORD PTR _result$[ebp]
  0034e	50		 push	 eax
  0034f	ff 15 00 00 00
	00		 call	 DWORD PTR __imp_??4?$CStringT@DV?$StrTraitMFC_DLL@DV?$ChTraitsCRT@D@ATL@@@@@ATL@@QAEAAV01@ABV01@@Z
  00355	83 e7 ef	 and	 edi, -17		; ffffffefH
  00358	8d 4d c8	 lea	 ecx, DWORD PTR $T3[ebp]
$LN116@AdjustMask:

; 426  : 			}
; 427  : 		}

  0035b	ff 15 00 00 00
	00		 call	 DWORD PTR __imp_??1?$CStringT@DV?$StrTraitMFC_DLL@DV?$ChTraitsCRT@D@ATL@@@@@ATL@@QAE@XZ
$LN14@AdjustMask:
  00361	8d 4d e8	 lea	 ecx, DWORD PTR _str$9[ebp]
  00364	c6 45 fc 02	 mov	 BYTE PTR __$EHRec$[ebp+8], 2
  00368	ff 15 00 00 00
	00		 call	 DWORD PTR __imp_??1?$CStringT@DV?$StrTraitMFC_DLL@DV?$ChTraitsCRT@D@ATL@@@@@ATL@@QAE@XZ
$LN115@AdjustMask:

; 383  : 	}
; 384  : 	
; 385  : 	while( j >= 0)

  0036e	8b 55 e0	 mov	 edx, DWORD PTR _i$1$[ebp]
$LN7@AdjustMask:
  00371	ff 4d c4	 dec	 DWORD PTR $T2[ebp]
  00374	4b		 dec	 ebx
  00375	83 c6 ff	 add	 esi, -1
  00378	89 5d dc	 mov	 DWORD PTR tv668[ebp], ebx
  0037b	0f 89 2f fd ff
	ff		 jns	 $LL2@AdjustMask

; 428  : 	}
; 429  : 	return result;

  00381	8d 45 ec	 lea	 eax, DWORD PTR _result$[ebp]
$LN114@AdjustMask:

; 430  : }

  00384	8b 4d 08	 mov	 ecx, DWORD PTR ___$ReturnUdt$[ebp]
  00387	50		 push	 eax
  00388	ff 15 00 00 00
	00		 call	 DWORD PTR __imp_??0?$CStringT@DV?$StrTraitMFC_DLL@DV?$ChTraitsCRT@D@ATL@@@@@ATL@@QAE@ABV01@@Z
  0038e	8d 4d ec	 lea	 ecx, DWORD PTR _result$[ebp]
  00391	ff 15 00 00 00
	00		 call	 DWORD PTR __imp_??1?$CStringT@DV?$StrTraitMFC_DLL@DV?$ChTraitsCRT@D@ATL@@@@@ATL@@QAE@XZ
$LN113@AdjustMask:
  00397	8d 4d 0c	 lea	 ecx, DWORD PTR _mask$[ebp]
  0039a	ff 15 00 00 00
	00		 call	 DWORD PTR __imp_??1?$CStringT@DV?$StrTraitMFC_DLL@DV?$ChTraitsCRT@D@ATL@@@@@ATL@@QAE@XZ
  003a0	8d 4d 10	 lea	 ecx, DWORD PTR _str$[ebp]
  003a3	ff 15 00 00 00
	00		 call	 DWORD PTR __imp_??1?$CStringT@DV?$StrTraitMFC_DLL@DV?$ChTraitsCRT@D@ATL@@@@@ATL@@QAE@XZ
  003a9	8b 45 08	 mov	 eax, DWORD PTR ___$ReturnUdt$[ebp]
  003ac	8b 4d f4	 mov	 ecx, DWORD PTR __$EHRec$[ebp]
  003af	64 89 0d 00 00
	00 00		 mov	 DWORD PTR fs:0, ecx
  003b6	59		 pop	 ecx
  003b7	5f		 pop	 edi
  003b8	5e		 pop	 esi
  003b9	5b		 pop	 ebx
  003ba	8b e5		 mov	 esp, ebp
  003bc	5d		 pop	 ebp
  003bd	c2 0c 00	 ret	 12			; 0000000cH
_TEXT	ENDS
;	COMDAT text$x
text$x	SEGMENT
__unwindfunclet$?AdjustMask@CUtil@@QAE?AV?$CStringT@DV?$StrTraitMFC_DLL@DV?$ChTraitsCRT@D@ATL@@@@@ATL@@V23@0@Z$0:
  00000	8d 4d 10	 lea	 ecx, DWORD PTR _str$[ebp]
  00003	ff 25 00 00 00
	00		 jmp	 DWORD PTR __imp_??1?$CStringT@DV?$StrTraitMFC_DLL@DV?$ChTraitsCRT@D@ATL@@@@@ATL@@QAE@XZ
__unwindfunclet$?AdjustMask@CUtil@@QAE?AV?$CStringT@DV?$StrTraitMFC_DLL@DV?$ChTraitsCRT@D@ATL@@@@@ATL@@V23@0@Z$1:
  00009	8d 4d 0c	 lea	 ecx, DWORD PTR _mask$[ebp]
  0000c	ff 25 00 00 00
	00		 jmp	 DWORD PTR __imp_??1?$CStringT@DV?$StrTraitMFC_DLL@DV?$ChTraitsCRT@D@ATL@@@@@ATL@@QAE@XZ
__unwindfunclet$?AdjustMask@CUtil@@QAE?AV?$CStringT@DV?$StrTraitMFC_DLL@DV?$ChTraitsCRT@D@ATL@@@@@ATL@@V23@0@Z$3:
  00012	8d 4d ec	 lea	 ecx, DWORD PTR _result$[ebp]
  00015	ff 25 00 00 00
	00		 jmp	 DWORD PTR __imp_??1?$CStringT@DV?$StrTraitMFC_DLL@DV?$ChTraitsCRT@D@ATL@@@@@ATL@@QAE@XZ
__unwindfunclet$?AdjustMask@CUtil@@QAE?AV?$CStringT@DV?$StrTraitMFC_DLL@DV?$ChTraitsCRT@D@ATL@@@@@ATL@@V23@0@Z$11:
  0001b	8b 45 e4	 mov	 eax, DWORD PTR $T8[ebp]
  0001e	83 e0 04	 and	 eax, 4
  00021	0f 84 0d 00 00
	00		 je	 $LN55@AdjustMask
  00027	83 65 e4 fb	 and	 DWORD PTR $T8[ebp], -5	; fffffffbH
  0002b	8d 4d d8	 lea	 ecx, DWORD PTR $T7[ebp]
  0002e	ff 25 00 00 00
	00		 jmp	 DWORD PTR __imp_??1?$CStringT@DV?$StrTraitMFC_DLL@DV?$ChTraitsCRT@D@ATL@@@@@ATL@@QAE@XZ
$LN55@AdjustMask:
  00034	c3		 ret	 0
__unwindfunclet$?AdjustMask@CUtil@@QAE?AV?$CStringT@DV?$StrTraitMFC_DLL@DV?$ChTraitsCRT@D@ATL@@@@@ATL@@V23@0@Z$10:
  00035	8b 45 e4	 mov	 eax, DWORD PTR $T8[ebp]
  00038	83 e0 02	 and	 eax, 2
  0003b	0f 84 0d 00 00
	00		 je	 $LN45@AdjustMask
  00041	83 65 e4 fd	 and	 DWORD PTR $T8[ebp], -3	; fffffffdH
  00045	8d 4d d4	 lea	 ecx, DWORD PTR $T6[ebp]
  00048	ff 25 00 00 00
	00		 jmp	 DWORD PTR __imp_??1?$CStringT@DV?$StrTraitMFC_DLL@DV?$ChTraitsCRT@D@ATL@@@@@ATL@@QAE@XZ
$LN45@AdjustMask:
  0004e	c3		 ret	 0
__unwindfunclet$?AdjustMask@CUtil@@QAE?AV?$CStringT@DV?$StrTraitMFC_DLL@DV?$ChTraitsCRT@D@ATL@@@@@ATL@@V23@0@Z$6:
  0004f	8d 4d e8	 lea	 ecx, DWORD PTR _str$9[ebp]
  00052	ff 25 00 00 00
	00		 jmp	 DWORD PTR __imp_??1?$CStringT@DV?$StrTraitMFC_DLL@DV?$ChTraitsCRT@D@ATL@@@@@ATL@@QAE@XZ
__unwindfunclet$?AdjustMask@CUtil@@QAE?AV?$CStringT@DV?$StrTraitMFC_DLL@DV?$ChTraitsCRT@D@ATL@@@@@ATL@@V23@0@Z$12:
  00058	8b 45 e4	 mov	 eax, DWORD PTR $T8[ebp]
  0005b	83 e0 08	 and	 eax, 8
  0005e	0f 84 0d 00 00
	00		 je	 $LN65@AdjustMask
  00064	83 65 e4 f7	 and	 DWORD PTR $T8[ebp], -9	; fffffff7H
  00068	8d 4d d0	 lea	 ecx, DWORD PTR $T5[ebp]
  0006b	ff 25 00 00 00
	00		 jmp	 DWORD PTR __imp_??1?$CStringT@DV?$StrTraitMFC_DLL@DV?$ChTraitsCRT@D@ATL@@@@@ATL@@QAE@XZ
$LN65@AdjustMask:
  00071	c3		 ret	 0
__unwindfunclet$?AdjustMask@CUtil@@QAE?AV?$CStringT@DV?$StrTraitMFC_DLL@DV?$ChTraitsCRT@D@ATL@@@@@ATL@@V23@0@Z$14:
  00072	8b 45 e4	 mov	 eax, DWORD PTR $T8[ebp]
  00075	83 e0 20	 and	 eax, 32			; 00000020H
  00078	0f 84 0d 00 00
	00		 je	 $LN101@AdjustMask
  0007e	83 65 e4 df	 and	 DWORD PTR $T8[ebp], -33	; ffffffdfH
  00082	8d 4d cc	 lea	 ecx, DWORD PTR $T4[ebp]
  00085	ff 25 00 00 00
	00		 jmp	 DWORD PTR __imp_??1?$CStringT@DV?$StrTraitMFC_DLL@DV?$ChTraitsCRT@D@ATL@@@@@ATL@@QAE@XZ
$LN101@AdjustMask:
  0008b	c3		 ret	 0
__unwindfunclet$?AdjustMask@CUtil@@QAE?AV?$CStringT@DV?$StrTraitMFC_DLL@DV?$ChTraitsCRT@D@ATL@@@@@ATL@@V23@0@Z$13:
  0008c	8b 45 e4	 mov	 eax, DWORD PTR $T8[ebp]
  0008f	83 e0 10	 and	 eax, 16			; 00000010H
  00092	0f 84 0d 00 00
	00		 je	 $LN81@AdjustMask
  00098	83 65 e4 ef	 and	 DWORD PTR $T8[ebp], -17	; ffffffefH
  0009c	8d 4d c8	 lea	 ecx, DWORD PTR $T3[ebp]
  0009f	ff 25 00 00 00
	00		 jmp	 DWORD PTR __imp_??1?$CStringT@DV?$StrTraitMFC_DLL@DV?$ChTraitsCRT@D@ATL@@@@@ATL@@QAE@XZ
$LN81@AdjustMask:
  000a5	c3		 ret	 0
  000a6	cc		 int	 3
  000a7	cc		 int	 3
  000a8	cc		 int	 3
  000a9	cc		 int	 3
  000aa	cc		 int	 3
__ehhandler$?AdjustMask@CUtil@@QAE?AV?$CStringT@DV?$StrTraitMFC_DLL@DV?$ChTraitsCRT@D@ATL@@@@@ATL@@V23@0@Z:
  000ab	90		 npad	 1
  000ac	90		 npad	 1
  000ad	8b 54 24 08	 mov	 edx, DWORD PTR [esp+8]
  000b1	8d 42 0c	 lea	 eax, DWORD PTR [edx+12]
  000b4	8b 4a c0	 mov	 ecx, DWORD PTR [edx-64]
  000b7	33 c8		 xor	 ecx, eax
  000b9	e8 00 00 00 00	 call	 @__security_check_cookie@4
  000be	b8 00 00 00 00	 mov	 eax, OFFSET __ehfuncinfo$?AdjustMask@CUtil@@QAE?AV?$CStringT@DV?$StrTraitMFC_DLL@DV?$ChTraitsCRT@D@ATL@@@@@ATL@@V23@0@Z
  000c3	e9 00 00 00 00	 jmp	 ___CxxFrameHandler3
text$x	ENDS
?AdjustMask@CUtil@@QAE?AV?$CStringT@DV?$StrTraitMFC_DLL@DV?$ChTraitsCRT@D@ATL@@@@@ATL@@V23@0@Z ENDP ; CUtil::AdjustMask
; Function compile flags: /Ogtp
; File D:\git\src\IBK\IBK_DRFN\ProjSrc\SrcDrfn\Chart\chart_common\Grid\Util.cpp
;	COMDAT ?AdjustMask@CUtil@@QAE?AV?$CStringT@DV?$StrTraitMFC_DLL@DV?$ChTraitsCRT@D@ATL@@@@@ATL@@V23@H@Z
_TEXT	SEGMENT
_szT$ = -16						; size = 4
__$EHRec$ = -12						; size = 12
___$ReturnUdt$ = 8					; size = 4
_mask$ = 12						; size = 4
$T2 = 16						; size = 4
_nValue$ = 16						; size = 4
?AdjustMask@CUtil@@QAE?AV?$CStringT@DV?$StrTraitMFC_DLL@DV?$ChTraitsCRT@D@ATL@@@@@ATL@@V23@H@Z PROC ; CUtil::AdjustMask, COMDAT
; _this$ = ecx

; 433  : {

  00000	55		 push	 ebp
  00001	8b ec		 mov	 ebp, esp
  00003	6a ff		 push	 -1
  00005	68 00 00 00 00	 push	 __ehhandler$?AdjustMask@CUtil@@QAE?AV?$CStringT@DV?$StrTraitMFC_DLL@DV?$ChTraitsCRT@D@ATL@@@@@ATL@@V23@H@Z
  0000a	64 a1 00 00 00
	00		 mov	 eax, DWORD PTR fs:0
  00010	50		 push	 eax
  00011	83 ec 08	 sub	 esp, 8
  00014	57		 push	 edi
  00015	a1 00 00 00 00	 mov	 eax, DWORD PTR ___security_cookie
  0001a	33 c5		 xor	 eax, ebp
  0001c	50		 push	 eax
  0001d	8d 45 f4	 lea	 eax, DWORD PTR __$EHRec$[ebp]
  00020	64 a3 00 00 00
	00		 mov	 DWORD PTR fs:0, eax
  00026	8b f9		 mov	 edi, ecx

; 434  : 	CString szT;

  00028	8d 4d f0	 lea	 ecx, DWORD PTR _szT$[ebp]
  0002b	c7 45 fc 00 00
	00 00		 mov	 DWORD PTR __$EHRec$[ebp+8], 0
  00032	ff 15 00 00 00
	00		 call	 DWORD PTR __imp_??0?$CStringT@DV?$StrTraitMFC_DLL@DV?$ChTraitsCRT@D@ATL@@@@@ATL@@QAE@XZ

; 435  : 	szT.Format("%d", nValue);

  00038	ff 75 10	 push	 DWORD PTR _nValue$[ebp]
  0003b	8d 45 f0	 lea	 eax, DWORD PTR _szT$[ebp]
  0003e	c6 45 fc 01	 mov	 BYTE PTR __$EHRec$[ebp+8], 1
  00042	68 00 00 00 00	 push	 OFFSET ??_C@_02DPKJAMEF@?$CFd@
  00047	50		 push	 eax
  00048	ff 15 00 00 00
	00		 call	 DWORD PTR __imp_?Format@?$CStringT@DV?$StrTraitMFC_DLL@DV?$ChTraitsCRT@D@ATL@@@@@ATL@@QAAXPBDZZ

; 436  : 	return AdjustMask(mask, szT);		

  0004e	83 c4 08	 add	 esp, 8
  00051	8d 45 f0	 lea	 eax, DWORD PTR _szT$[ebp]
  00054	8b cc		 mov	 ecx, esp
  00056	89 65 10	 mov	 DWORD PTR $T2[ebp], esp
  00059	50		 push	 eax
  0005a	ff 15 00 00 00
	00		 call	 DWORD PTR __imp_??0?$CStringT@DV?$StrTraitMFC_DLL@DV?$ChTraitsCRT@D@ATL@@@@@ATL@@QAE@ABV01@@Z
  00060	51		 push	 ecx
  00061	8d 45 0c	 lea	 eax, DWORD PTR _mask$[ebp]
  00064	c6 45 fc 02	 mov	 BYTE PTR __$EHRec$[ebp+8], 2
  00068	8b cc		 mov	 ecx, esp
  0006a	50		 push	 eax
  0006b	ff 15 00 00 00
	00		 call	 DWORD PTR __imp_??0?$CStringT@DV?$StrTraitMFC_DLL@DV?$ChTraitsCRT@D@ATL@@@@@ATL@@QAE@ABV01@@Z
  00071	ff 75 08	 push	 DWORD PTR ___$ReturnUdt$[ebp]
  00074	8b cf		 mov	 ecx, edi
  00076	c6 45 fc 01	 mov	 BYTE PTR __$EHRec$[ebp+8], 1
  0007a	e8 00 00 00 00	 call	 ?AdjustMask@CUtil@@QAE?AV?$CStringT@DV?$StrTraitMFC_DLL@DV?$ChTraitsCRT@D@ATL@@@@@ATL@@V23@0@Z ; CUtil::AdjustMask
  0007f	8d 4d f0	 lea	 ecx, DWORD PTR _szT$[ebp]
  00082	ff 15 00 00 00
	00		 call	 DWORD PTR __imp_??1?$CStringT@DV?$StrTraitMFC_DLL@DV?$ChTraitsCRT@D@ATL@@@@@ATL@@QAE@XZ
  00088	8d 4d 0c	 lea	 ecx, DWORD PTR _mask$[ebp]
  0008b	ff 15 00 00 00
	00		 call	 DWORD PTR __imp_??1?$CStringT@DV?$StrTraitMFC_DLL@DV?$ChTraitsCRT@D@ATL@@@@@ATL@@QAE@XZ
  00091	8b 45 08	 mov	 eax, DWORD PTR ___$ReturnUdt$[ebp]

; 437  : }

  00094	8b 4d f4	 mov	 ecx, DWORD PTR __$EHRec$[ebp]
  00097	64 89 0d 00 00
	00 00		 mov	 DWORD PTR fs:0, ecx
  0009e	59		 pop	 ecx
  0009f	5f		 pop	 edi
  000a0	8b e5		 mov	 esp, ebp
  000a2	5d		 pop	 ebp
  000a3	c2 0c 00	 ret	 12			; 0000000cH
_TEXT	ENDS
;	COMDAT text$x
text$x	SEGMENT
__unwindfunclet$?AdjustMask@CUtil@@QAE?AV?$CStringT@DV?$StrTraitMFC_DLL@DV?$ChTraitsCRT@D@ATL@@@@@ATL@@V23@H@Z$0:
  00000	8d 4d 0c	 lea	 ecx, DWORD PTR _mask$[ebp]
  00003	ff 25 00 00 00
	00		 jmp	 DWORD PTR __imp_??1?$CStringT@DV?$StrTraitMFC_DLL@DV?$ChTraitsCRT@D@ATL@@@@@ATL@@QAE@XZ
__unwindfunclet$?AdjustMask@CUtil@@QAE?AV?$CStringT@DV?$StrTraitMFC_DLL@DV?$ChTraitsCRT@D@ATL@@@@@ATL@@V23@H@Z$1:
  00009	8d 4d f0	 lea	 ecx, DWORD PTR _szT$[ebp]
  0000c	ff 25 00 00 00
	00		 jmp	 DWORD PTR __imp_??1?$CStringT@DV?$StrTraitMFC_DLL@DV?$ChTraitsCRT@D@ATL@@@@@ATL@@QAE@XZ
__unwindfunclet$?AdjustMask@CUtil@@QAE?AV?$CStringT@DV?$StrTraitMFC_DLL@DV?$ChTraitsCRT@D@ATL@@@@@ATL@@V23@H@Z$2:
  00012	8b 4d 10	 mov	 ecx, DWORD PTR $T2[ebp]
  00015	ff 25 00 00 00
	00		 jmp	 DWORD PTR __imp_??1?$CStringT@DV?$StrTraitMFC_DLL@DV?$ChTraitsCRT@D@ATL@@@@@ATL@@QAE@XZ
  0001b	cc		 int	 3
  0001c	cc		 int	 3
  0001d	cc		 int	 3
  0001e	cc		 int	 3
  0001f	cc		 int	 3
__ehhandler$?AdjustMask@CUtil@@QAE?AV?$CStringT@DV?$StrTraitMFC_DLL@DV?$ChTraitsCRT@D@ATL@@@@@ATL@@V23@H@Z:
  00020	90		 npad	 1
  00021	90		 npad	 1
  00022	8b 54 24 08	 mov	 edx, DWORD PTR [esp+8]
  00026	8d 42 0c	 lea	 eax, DWORD PTR [edx+12]
  00029	8b 4a f0	 mov	 ecx, DWORD PTR [edx-16]
  0002c	33 c8		 xor	 ecx, eax
  0002e	e8 00 00 00 00	 call	 @__security_check_cookie@4
  00033	b8 00 00 00 00	 mov	 eax, OFFSET __ehfuncinfo$?AdjustMask@CUtil@@QAE?AV?$CStringT@DV?$StrTraitMFC_DLL@DV?$ChTraitsCRT@D@ATL@@@@@ATL@@V23@H@Z
  00038	e9 00 00 00 00	 jmp	 ___CxxFrameHandler3
text$x	ENDS
?AdjustMask@CUtil@@QAE?AV?$CStringT@DV?$StrTraitMFC_DLL@DV?$ChTraitsCRT@D@ATL@@@@@ATL@@V23@H@Z ENDP ; CUtil::AdjustMask
; Function compile flags: /Ogtp
; File D:\git\src\IBK\IBK_DRFN\ProjSrc\SrcDrfn\Chart\chart_common\Grid\Util.cpp
; File C:\Program Files (x86)\Microsoft Visual Studio\2019\Community\VC\Tools\MSVC\14.29.30133\atlmfc\include\atlbase.h
; File D:\git\src\IBK\IBK_DRFN\ProjSrc\SrcDrfn\Chart\chart_common\Grid\Util.cpp
; File C:\Program Files (x86)\Microsoft Visual Studio\2019\Community\VC\Tools\MSVC\14.29.30133\atlmfc\include\atlbase.h
; File D:\git\src\IBK\IBK_DRFN\ProjSrc\SrcDrfn\Chart\chart_common\Grid\Util.cpp
; File C:\Program Files (x86)\Microsoft Visual Studio\2019\Community\VC\Tools\MSVC\14.29.30133\atlmfc\include\atlbase.h
; File D:\git\src\IBK\IBK_DRFN\ProjSrc\SrcDrfn\Chart\chart_common\Grid\Util.cpp
; File C:\Program Files (x86)\Microsoft Visual Studio\2019\Community\VC\Tools\MSVC\14.29.30133\atlmfc\include\atlbase.h
; File D:\git\src\IBK\IBK_DRFN\ProjSrc\SrcDrfn\Chart\chart_common\Grid\Util.cpp
; File C:\Program Files (x86)\Microsoft Visual Studio\2019\Community\VC\Tools\MSVC\14.29.30133\atlmfc\include\atlsimpstr.h
; File C:\Program Files (x86)\Microsoft Visual Studio\2019\Community\VC\Tools\MSVC\14.29.30133\atlmfc\include\atlbase.h
; File D:\git\src\IBK\IBK_DRFN\ProjSrc\SrcDrfn\Chart\chart_common\Grid\Util.cpp
; File C:\Program Files (x86)\Microsoft Visual Studio\2019\Community\VC\Tools\MSVC\14.29.30133\atlmfc\include\atlbase.h
; File D:\git\src\IBK\IBK_DRFN\ProjSrc\SrcDrfn\Chart\chart_common\Grid\Util.cpp
; File C:\Program Files (x86)\Microsoft Visual Studio\2019\Community\VC\Tools\MSVC\14.29.30133\atlmfc\include\atlbase.h
; File D:\git\src\IBK\IBK_DRFN\ProjSrc\SrcDrfn\Chart\chart_common\Grid\Util.cpp
; File C:\Program Files (x86)\Microsoft Visual Studio\2019\Community\VC\Tools\MSVC\14.29.30133\atlmfc\include\atlbase.h
; File D:\git\src\IBK\IBK_DRFN\ProjSrc\SrcDrfn\Chart\chart_common\Grid\Util.cpp
;	COMDAT ?GetRegKey@CUtil@@QAEHPBD0AAV?$CStringT@DV?$StrTraitMFC_DLL@DV?$ChTraitsCRT@D@ATL@@@@@ATL@@@Z
_TEXT	SEGMENT
_regkey$ = -32						; size = 12
_dwCount$ = -20						; size = 4
_hKey$2 = -16						; size = 4
__$EHRec$ = -12						; size = 12
_dwType$3 = 8						; size = 4
_szSection$ = 8						; size = 4
_szKey$ = 12						; size = 4
_rData$ = 16						; size = 4
?GetRegKey@CUtil@@QAEHPBD0AAV?$CStringT@DV?$StrTraitMFC_DLL@DV?$ChTraitsCRT@D@ATL@@@@@ATL@@@Z PROC ; CUtil::GetRegKey, COMDAT
; _this$ = ecx

; 705  : {

  00000	55		 push	 ebp
  00001	8b ec		 mov	 ebp, esp
  00003	6a ff		 push	 -1
  00005	68 00 00 00 00	 push	 __ehhandler$?GetRegKey@CUtil@@QAEHPBD0AAV?$CStringT@DV?$StrTraitMFC_DLL@DV?$ChTraitsCRT@D@ATL@@@@@ATL@@@Z
  0000a	64 a1 00 00 00
	00		 mov	 eax, DWORD PTR fs:0
  00010	50		 push	 eax
  00011	83 ec 14	 sub	 esp, 20			; 00000014H
  00014	53		 push	 ebx
  00015	56		 push	 esi
  00016	57		 push	 edi
  00017	a1 00 00 00 00	 mov	 eax, DWORD PTR ___security_cookie
  0001c	33 c5		 xor	 eax, ebp
  0001e	50		 push	 eax
  0001f	8d 45 f4	 lea	 eax, DWORD PTR __$EHRec$[ebp]
  00022	64 a3 00 00 00
	00		 mov	 DWORD PTR fs:0, eax
; File C:\Program Files (x86)\Microsoft Visual Studio\2019\Community\VC\Tools\MSVC\14.29.30133\atlmfc\include\atlbase.h

; 5696 : 	m_hKey( NULL ), m_samWOW64(0), m_pTM(pTM)

  00028	c7 45 e0 00 00
	00 00		 mov	 DWORD PTR _regkey$[ebp], 0
  0002f	c7 45 e4 00 00
	00 00		 mov	 DWORD PTR _regkey$[ebp+4], 0
  00036	c7 45 e8 00 00
	00 00		 mov	 DWORD PTR _regkey$[ebp+8], 0

; 5885 : 	LONG lRes = m_pTM != NULL ?

  0003d	8d 45 f0	 lea	 eax, DWORD PTR _hKey$2[ebp]
; File D:\git\src\IBK\IBK_DRFN\ProjSrc\SrcDrfn\Chart\chart_common\Grid\Util.cpp

; 706  : 	CRegKey regkey;

  00040	c7 45 fc 00 00
	00 00		 mov	 DWORD PTR __$EHRec$[ebp+8], 0
; File C:\Program Files (x86)\Microsoft Visual Studio\2019\Community\VC\Tools\MSVC\14.29.30133\atlmfc\include\atlbase.h

; 5885 : 	LONG lRes = m_pTM != NULL ?

  00047	50		 push	 eax
  00048	68 1f 00 02 00	 push	 131103			; 0002001fH
  0004d	6a 00		 push	 0
  0004f	ff 75 08	 push	 DWORD PTR _szSection$[ebp]
  00052	c7 45 f0 00 00
	00 00		 mov	 DWORD PTR _hKey$2[ebp], 0
  00059	68 01 00 00 80	 push	 -2147483647		; 80000001H
  0005e	ff 15 00 00 00
	00		 call	 DWORD PTR __imp__RegOpenKeyExA@20

; 5886 : 		m_pTM->RegOpenKeyEx(hKeyParent, lpszKeyName, 0, samDesired, &hKey) :
; 5887 : 		RegOpenKeyEx(hKeyParent, lpszKeyName, 0, samDesired, &hKey);
; 5888 : 	if (lRes == ERROR_SUCCESS)

  00064	85 c0		 test	 eax, eax
  00066	0f 85 bb 00 00
	00		 jne	 $LN62@GetRegKey
; File D:\git\src\IBK\IBK_DRFN\ProjSrc\SrcDrfn\Chart\chart_common\Grid\Util.cpp

; 710  : 	rData.GetBuffer(MAX_PATH);

  0006c	8b 5d 10	 mov	 ebx, DWORD PTR _rData$[ebp]
  0006f	8b cb		 mov	 ecx, ebx
; File C:\Program Files (x86)\Microsoft Visual Studio\2019\Community\VC\Tools\MSVC\14.29.30133\atlmfc\include\atlbase.h

; 5892 : 		m_hKey = hKey;

  00071	8b 7d f0	 mov	 edi, DWORD PTR _hKey$2[ebp]
; File D:\git\src\IBK\IBK_DRFN\ProjSrc\SrcDrfn\Chart\chart_common\Grid\Util.cpp

; 710  : 	rData.GetBuffer(MAX_PATH);

  00074	68 04 01 00 00	 push	 260			; 00000104H
; File C:\Program Files (x86)\Microsoft Visual Studio\2019\Community\VC\Tools\MSVC\14.29.30133\atlmfc\include\atlbase.h

; 5892 : 		m_hKey = hKey;

  00079	89 7d e0	 mov	 DWORD PTR _regkey$[ebp], edi

; 5893 : #if WINVER >= 0x0501
; 5894 : 		m_samWOW64 = samDesired & (KEY_WOW64_32KEY | KEY_WOW64_64KEY);

  0007c	89 45 e4	 mov	 DWORD PTR _regkey$[ebp+4], eax
; File D:\git\src\IBK\IBK_DRFN\ProjSrc\SrcDrfn\Chart\chart_common\Grid\Util.cpp

; 710  : 	rData.GetBuffer(MAX_PATH);

  0007f	ff 15 00 00 00
	00		 call	 DWORD PTR __imp_?GetBuffer@?$CSimpleStringT@D$00@ATL@@QAEPADH@Z
; File C:\Program Files (x86)\Microsoft Visual Studio\2019\Community\VC\Tools\MSVC\14.29.30133\atlmfc\include\atlsimpstr.h

; 377  : 		return( m_pszData );

  00085	8b 33		 mov	 esi, DWORD PTR [ebx]
; File C:\Program Files (x86)\Microsoft Visual Studio\2019\Community\VC\Tools\MSVC\14.29.30133\atlmfc\include\atlbase.h

; 5926 : 	LONG lRes = RegQueryValueEx(m_hKey, lpszValueName, NULL, &dwType, (LPBYTE)pszValue, pdwCount);

  00087	8d 45 ec	 lea	 eax, DWORD PTR _dwCount$[ebp]
  0008a	50		 push	 eax
  0008b	56		 push	 esi
  0008c	8d 45 08	 lea	 eax, DWORD PTR _dwType$3[ebp]
; File D:\git\src\IBK\IBK_DRFN\ProjSrc\SrcDrfn\Chart\chart_common\Grid\Util.cpp

; 711  : 	DWORD	dwCount = MAX_PATH;

  0008f	c7 45 ec 04 01
	00 00		 mov	 DWORD PTR _dwCount$[ebp], 260 ; 00000104H
; File C:\Program Files (x86)\Microsoft Visual Studio\2019\Community\VC\Tools\MSVC\14.29.30133\atlmfc\include\atlbase.h

; 5926 : 	LONG lRes = RegQueryValueEx(m_hKey, lpszValueName, NULL, &dwType, (LPBYTE)pszValue, pdwCount);

  00096	50		 push	 eax
  00097	6a 00		 push	 0
  00099	ff 75 0c	 push	 DWORD PTR _szKey$[ebp]
  0009c	c7 45 08 00 00
	00 00		 mov	 DWORD PTR _dwType$3[ebp], 0
  000a3	57		 push	 edi
  000a4	ff 15 00 00 00
	00		 call	 DWORD PTR __imp__RegQueryValueExA@24
  000aa	8b f8		 mov	 edi, eax

; 5927 : 	ATLASSERT((lRes!=ERROR_SUCCESS) || (dwType == REG_SZ) ||
; 5928 : 			 (dwType == REG_MULTI_SZ) || (dwType == REG_EXPAND_SZ));
; 5929 : 	if (lRes == ERROR_SUCCESS && pszValue != NULL)

  000ac	85 ff		 test	 edi, edi
  000ae	75 42		 jne	 SHORT $LN34@GetRegKey
  000b0	85 f6		 test	 esi, esi
  000b2	74 3e		 je	 SHORT $LN34@GetRegKey

; 5930 : 	{
; 5931 : 		if(*pdwCount>0)

  000b4	8b 4d ec	 mov	 ecx, DWORD PTR _dwCount$[ebp]
  000b7	85 c9		 test	 ecx, ecx
  000b9	74 34		 je	 SHORT $LN45@GetRegKey

; 5932 : 		{
; 5933 : 			switch(dwType)

  000bb	8b 45 08	 mov	 eax, DWORD PTR _dwType$3[ebp]
  000be	83 e8 01	 sub	 eax, 1
  000c1	74 20		 je	 SHORT $LN47@GetRegKey
  000c3	83 e8 01	 sub	 eax, 1
  000c6	74 1b		 je	 SHORT $LN47@GetRegKey
  000c8	83 e8 05	 sub	 eax, 5
  000cb	75 1d		 jne	 SHORT $LN65@GetRegKey

; 5938 : 					{
; 5939 : 						pszValue[0]=_T('\0');
; 5940 : 		 				return ERROR_INVALID_DATA;
; 5941 : 					}
; 5942 : 					break;
; 5943 : 				case REG_MULTI_SZ:
