; Listing generated by Microsoft (R) Optimizing Compiler Version 19.29.30145.0 

	TITLE	D:\git\src\IBK\IBK_DRFN\#DRfn-CS\_Obj\CompareChart\VirtualListCtrl.obj
	.686P
	.XMM
	include listing.inc
	.model	flat

INCLUDELIB MSVCRT
INCLUDELIB OLDNAMES

PUBLIC	??_C@_0BE@FJPKENOB@RMSG_GETSIGNAL_REAL@		; `string'
PUBLIC	??_C@_0P@KHFCBIOH@RMSG_CHARTMAIN@		; `string'
PUBLIC	??_C@_0BC@MMPGLPDH@RMS_ANALYSIS_FUNC@		; `string'
PUBLIC	??_C@_0BA@HKNFENJL@RMSG_GET_USERID@		; `string'
PUBLIC	??_C@_0P@LFDACNFE@RMSG_KSDLLINFO@		; `string'
PUBLIC	??_C@_0N@IIOKMIEH@RMSG_GETINFO@			; `string'
PUBLIC	??_C@_0BG@CNPAHNGG@RMSG_CHANGE_SKINCOLOR@	; `string'
PUBLIC	??_C@_0BD@FLDNDDHK@RMSG_GET_SKINCOLOR@		; `string'
PUBLIC	??_C@_0BG@LNLCJKPF@RMSG_CHANGE_CROSSLINE@	; `string'
PUBLIC	?g_nSelCol@@3HA					; g_nSelCol
_DATA	SEGMENT
?g_nSelCol@@3HA DD 01H					; g_nSelCol
_DATA	ENDS
;	COMDAT ??_C@_0BG@LNLCJKPF@RMSG_CHANGE_CROSSLINE@
CONST	SEGMENT
??_C@_0BG@LNLCJKPF@RMSG_CHANGE_CROSSLINE@ DB 'RMSG_CHANGE_CROSSLINE', 00H ; `string'
CONST	ENDS
;	COMDAT ??_C@_0BD@FLDNDDHK@RMSG_GET_SKINCOLOR@
CONST	SEGMENT
??_C@_0BD@FLDNDDHK@RMSG_GET_SKINCOLOR@ DB 'RMSG_GET_SKINCOLOR', 00H ; `string'
CONST	ENDS
;	COMDAT ??_C@_0BG@CNPAHNGG@RMSG_CHANGE_SKINCOLOR@
CONST	SEGMENT
??_C@_0BG@CNPAHNGG@RMSG_CHANGE_SKINCOLOR@ DB 'RMSG_CHANGE_SKINCOLOR', 00H ; `string'
CONST	ENDS
;	COMDAT ??_C@_0N@IIOKMIEH@RMSG_GETINFO@
CONST	SEGMENT
??_C@_0N@IIOKMIEH@RMSG_GETINFO@ DB 'RMSG_GETINFO', 00H	; `string'
CONST	ENDS
;	COMDAT ??_C@_0P@LFDACNFE@RMSG_KSDLLINFO@
CONST	SEGMENT
??_C@_0P@LFDACNFE@RMSG_KSDLLINFO@ DB 'RMSG_KSDLLINFO', 00H ; `string'
CONST	ENDS
;	COMDAT ??_C@_0BA@HKNFENJL@RMSG_GET_USERID@
CONST	SEGMENT
??_C@_0BA@HKNFENJL@RMSG_GET_USERID@ DB 'RMSG_GET_USERID', 00H ; `string'
CONST	ENDS
;	COMDAT ??_C@_0BC@MMPGLPDH@RMS_ANALYSIS_FUNC@
CONST	SEGMENT
??_C@_0BC@MMPGLPDH@RMS_ANALYSIS_FUNC@ DB 'RMS_ANALYSIS_FUNC', 00H ; `string'
CONST	ENDS
;	COMDAT ??_C@_0P@KHFCBIOH@RMSG_CHARTMAIN@
CONST	SEGMENT
??_C@_0P@KHFCBIOH@RMSG_CHARTMAIN@ DB 'RMSG_CHARTMAIN', 00H ; `string'
CONST	ENDS
;	COMDAT ??_C@_0BE@FJPKENOB@RMSG_GETSIGNAL_REAL@
CONST	SEGMENT
??_C@_0BE@FJPKENOB@RMSG_GETSIGNAL_REAL@ DB 'RMSG_GETSIGNAL_REAL', 00H ; `string'
CONST	ENDS
PUBLIC	?__empty_global_delete@@YAXPAX@Z		; __empty_global_delete
PUBLIC	?__empty_global_delete@@YAXPAXI@Z		; __empty_global_delete
PUBLIC	??1CObject@@UAE@XZ				; CObject::~CObject
PUBLIC	?Serialize@CObject@@UAEXAAVCArchive@@@Z		; CObject::Serialize
PUBLIC	?AssertValid@CObject@@UBEXXZ			; CObject::AssertValid
PUBLIC	?Dump@CObject@@UBEXAAVCDumpContext@@@Z		; CObject::Dump
PUBLIC	?DoDataExchange@CWnd@@MAEXPAVCDataExchange@@@Z	; CWnd::DoDataExchange
PUBLIC	?BeginModalState@CWnd@@UAEXXZ			; CWnd::BeginModalState
PUBLIC	?EndModalState@CWnd@@UAEXXZ			; CWnd::EndModalState
PUBLIC	??_GCListCtrl@@UAEPAXI@Z			; CListCtrl::`scalar deleting destructor'
PUBLIC	??1CSortStringArray@@UAE@XZ			; CSortStringArray::~CSortStringArray
PUBLIC	??_GCSortStringArray@@UAEPAXI@Z			; CSortStringArray::`scalar deleting destructor'
PUBLIC	??0__MASTERCODE@@QAE@XZ				; __MASTERCODE::__MASTERCODE
PUBLIC	??1__MASTERCODE@@QAE@XZ				; __MASTERCODE::~__MASTERCODE
PUBLIC	??_E__MASTERCODE@@QAEPAXI@Z			; __MASTERCODE::`vector deleting destructor'
PUBLIC	??0CVirtualListCtrl@@QAE@XZ			; CVirtualListCtrl::CVirtualListCtrl
PUBLIC	??0?$CArray@PAU__MASTERCODE@@PAU1@@@QAE@XZ	; CArray<__MASTERCODE *,__MASTERCODE *>::CArray<__MASTERCODE *,__MASTERCODE *>
PUBLIC	?SetSize@?$CArray@PAU__MASTERCODE@@PAU1@@@QAEXHH@Z ; CArray<__MASTERCODE *,__MASTERCODE *>::SetSize
PUBLIC	?SetAtGrow@?$CArray@PAU__MASTERCODE@@PAU1@@@QAEXHPAU__MASTERCODE@@@Z ; CArray<__MASTERCODE *,__MASTERCODE *>::SetAtGrow
PUBLIC	??1?$CArray@PAU__MASTERCODE@@PAU1@@@UAE@XZ	; CArray<__MASTERCODE *,__MASTERCODE *>::~CArray<__MASTERCODE *,__MASTERCODE *>
PUBLIC	?Serialize@?$CArray@PAU__MASTERCODE@@PAU1@@@UAEXAAVCArchive@@@Z ; CArray<__MASTERCODE *,__MASTERCODE *>::Serialize
PUBLIC	??_G?$CArray@PAU__MASTERCODE@@PAU1@@@UAEPAXI@Z	; CArray<__MASTERCODE *,__MASTERCODE *>::`scalar deleting destructor'
PUBLIC	?PreTranslateMessage@CVirtualListCtrl@@UAEHPAUtagMSG@@@Z ; CVirtualListCtrl::PreTranslateMessage
PUBLIC	?ChangeCode@CVirtualListCtrl@@QAEXV?$CStringT@DV?$StrTraitMFC_DLL@DV?$ChTraitsCRT@D@ATL@@@@@ATL@@@Z ; CVirtualListCtrl::ChangeCode
PUBLIC	?Init_ListCtrl@CVirtualListCtrl@@QAEXXZ		; CVirtualListCtrl::Init_ListCtrl
PUBLIC	?LoadCodeList@CVirtualListCtrl@@QAEXH@Z		; CVirtualListCtrl::LoadCodeList
PUBLIC	?Load_GwanSim_CodeList@CVirtualListCtrl@@QAEXPAVCStringArray@@@Z ; CVirtualListCtrl::Load_GwanSim_CodeList
PUBLIC	?SetMasterArray@CVirtualListCtrl@@QAEXXZ	; CVirtualListCtrl::SetMasterArray
PUBLIC	?FindItemByString@CVirtualListCtrl@@QAEHHV?$CStringT@DV?$StrTraitMFC_DLL@DV?$ChTraitsCRT@D@ATL@@@@@ATL@@@Z ; CVirtualListCtrl::FindItemByString
PUBLIC	?SetTopIndex@CVirtualListCtrl@@QAEXH@Z		; CVirtualListCtrl::SetTopIndex
PUBLIC	??1CVirtualListCtrl@@UAE@XZ			; CVirtualListCtrl::~CVirtualListCtrl
PUBLIC	?SetRowHeight@CVirtualListCtrl@@QAEXF@Z		; CVirtualListCtrl::SetRowHeight
PUBLIC	?OnGetdispinfo@CVirtualListCtrl@@IAEXPAUtagNMHDR@@PAJ@Z ; CVirtualListCtrl::OnGetdispinfo
PUBLIC	?OnDestroy@CVirtualListCtrl@@IAEXXZ		; CVirtualListCtrl::OnDestroy
PUBLIC	?OnColumnclick@CVirtualListCtrl@@IAEXPAUtagNMHDR@@PAJ@Z ; CVirtualListCtrl::OnColumnclick
PUBLIC	?OnItemchanged@CVirtualListCtrl@@IAEXPAUtagNMHDR@@PAJ@Z ; CVirtualListCtrl::OnItemchanged
PUBLIC	?OnDblclk@CVirtualListCtrl@@IAEXPAUtagNMHDR@@PAJ@Z ; CVirtualListCtrl::OnDblclk
PUBLIC	?OnSize@CVirtualListCtrl@@IAEXIHH@Z		; CVirtualListCtrl::OnSize
PUBLIC	?GetThisMessageMap@CVirtualListCtrl@@KGPBUAFX_MSGMAP@@XZ ; CVirtualListCtrl::GetThisMessageMap
PUBLIC	?GetMessageMap@CVirtualListCtrl@@MBEPBUAFX_MSGMAP@@XZ ; CVirtualListCtrl::GetMessageMap
PUBLIC	??_GCVirtualListCtrl@@UAEPAXI@Z			; CVirtualListCtrl::`scalar deleting destructor'
PUBLIC	?Compare@@YAHPBX0@Z				; Compare
PUBLIC	?SortArray@@YAXAAV?$CArray@PAU__MASTERCODE@@PAU1@@@@Z ; SortArray
PUBLIC	??$SerializeElements@PAU__MASTERCODE@@@@YGXAAVCArchive@@PAPAU__MASTERCODE@@H@Z ; SerializeElements<__MASTERCODE *>
PUBLIC	??_C@_00CNPNBAHC@@				; `string'
PUBLIC	??_7CListCtrl@@6B@				; CListCtrl::`vftable'
PUBLIC	??_R0?AVCObject@@@8				; CObject `RTTI Type Descriptor'
PUBLIC	??_R3CObject@@8					; CObject::`RTTI Class Hierarchy Descriptor'
PUBLIC	??_R2CObject@@8					; CObject::`RTTI Base Class Array'
PUBLIC	??_R1A@?0A@EA@CObject@@8			; CObject::`RTTI Base Class Descriptor at (0,-1,0,64)'
PUBLIC	??_R1A@?0A@EA@CWnd@@8				; CWnd::`RTTI Base Class Descriptor at (0,-1,0,64)'
PUBLIC	??_R0?AVCWnd@@@8				; CWnd `RTTI Type Descriptor'
PUBLIC	??_R3CWnd@@8					; CWnd::`RTTI Class Hierarchy Descriptor'
PUBLIC	??_R2CWnd@@8					; CWnd::`RTTI Base Class Array'
PUBLIC	??_R1A@?0A@EA@CCmdTarget@@8			; CCmdTarget::`RTTI Base Class Descriptor at (0,-1,0,64)'
PUBLIC	??_R0?AVCCmdTarget@@@8				; CCmdTarget `RTTI Type Descriptor'
PUBLIC	??_R3CCmdTarget@@8				; CCmdTarget::`RTTI Class Hierarchy Descriptor'
PUBLIC	??_R2CCmdTarget@@8				; CCmdTarget::`RTTI Base Class Array'
PUBLIC	??_R4CListCtrl@@6B@				; CListCtrl::`RTTI Complete Object Locator'
PUBLIC	??_R0?AVCListCtrl@@@8				; CListCtrl `RTTI Type Descriptor'
PUBLIC	??_R3CListCtrl@@8				; CListCtrl::`RTTI Class Hierarchy Descriptor'
PUBLIC	??_R2CListCtrl@@8				; CListCtrl::`RTTI Base Class Array'
PUBLIC	??_R1A@?0A@EA@CListCtrl@@8			; CListCtrl::`RTTI Base Class Descriptor at (0,-1,0,64)'
PUBLIC	??_7CSortStringArray@@6B@			; CSortStringArray::`vftable'
PUBLIC	??_7?$CArray@PAU__MASTERCODE@@PAU1@@@6B@	; CArray<__MASTERCODE *,__MASTERCODE *>::`vftable'
PUBLIC	??_7CVirtualListCtrl@@6B@			; CVirtualListCtrl::`vftable'
PUBLIC	??_C@_06BGMJNGKF@?A?$LO?$LI?q?$LI?m@		; `string'
PUBLIC	??_C@_04IMDNCEFG@?D?Z?$LF?e@			; `string'
PUBLIC	??_C@_01DNKMNLPK@?$HM@				; `string'
PUBLIC	??_R4CSortStringArray@@6B@			; CSortStringArray::`RTTI Complete Object Locator'
PUBLIC	??_R0?AVCSortStringArray@@@8			; CSortStringArray `RTTI Type Descriptor'
PUBLIC	??_R3CSortStringArray@@8			; CSortStringArray::`RTTI Class Hierarchy Descriptor'
PUBLIC	??_R2CSortStringArray@@8			; CSortStringArray::`RTTI Base Class Array'
PUBLIC	??_R1A@?0A@EA@CSortStringArray@@8		; CSortStringArray::`RTTI Base Class Descriptor at (0,-1,0,64)'
PUBLIC	??_R1A@?0A@EA@CStringArray@@8			; CStringArray::`RTTI Base Class Descriptor at (0,-1,0,64)'
PUBLIC	??_R0?AVCStringArray@@@8			; CStringArray `RTTI Type Descriptor'
PUBLIC	??_R3CStringArray@@8				; CStringArray::`RTTI Class Hierarchy Descriptor'
PUBLIC	??_R2CStringArray@@8				; CStringArray::`RTTI Base Class Array'
PUBLIC	??_R4CVirtualListCtrl@@6B@			; CVirtualListCtrl::`RTTI Complete Object Locator'
PUBLIC	??_R0?AVCVirtualListCtrl@@@8			; CVirtualListCtrl `RTTI Type Descriptor'
PUBLIC	??_R3CVirtualListCtrl@@8			; CVirtualListCtrl::`RTTI Class Hierarchy Descriptor'
PUBLIC	??_R2CVirtualListCtrl@@8			; CVirtualListCtrl::`RTTI Base Class Array'
PUBLIC	??_R1A@?0A@EA@CVirtualListCtrl@@8		; CVirtualListCtrl::`RTTI Base Class Descriptor at (0,-1,0,64)'
PUBLIC	??_R4?$CArray@PAU__MASTERCODE@@PAU1@@@6B@	; CArray<__MASTERCODE *,__MASTERCODE *>::`RTTI Complete Object Locator'
PUBLIC	??_R0?AV?$CArray@PAU__MASTERCODE@@PAU1@@@@8	; CArray<__MASTERCODE *,__MASTERCODE *> `RTTI Type Descriptor'
PUBLIC	??_R3?$CArray@PAU__MASTERCODE@@PAU1@@@8		; CArray<__MASTERCODE *,__MASTERCODE *>::`RTTI Class Hierarchy Descriptor'
PUBLIC	??_R2?$CArray@PAU__MASTERCODE@@PAU1@@@8		; CArray<__MASTERCODE *,__MASTERCODE *>::`RTTI Base Class Array'
PUBLIC	??_R1A@?0A@EA@?$CArray@PAU__MASTERCODE@@PAU1@@@8 ; CArray<__MASTERCODE *,__MASTERCODE *>::`RTTI Base Class Descriptor at (0,-1,0,64)'
EXTRN	??_L@YGXPAXIIP6EX0@Z1@Z:PROC			; `eh vector constructor iterator'
EXTRN	??_M@YGXPAXIIP6EX0@Z@Z:PROC			; `eh vector destructor iterator'
EXTRN	??2@YAPAXI@Z:PROC				; operator new
EXTRN	??3@YAXPAX@Z:PROC				; operator delete
EXTRN	??3@YAXPAXI@Z:PROC				; operator delete
EXTRN	?__global_delete@@YAXPAXI@Z:PROC		; __global_delete
EXTRN	??_U@YAPAXI@Z:PROC				; operator new[]
EXTRN	??_V@YAXPAX@Z:PROC				; operator delete[]
EXTRN	??_V@YAXPAXI@Z:PROC				; operator delete[]
EXTRN	___std_terminate:PROC
EXTRN	__imp___invalid_parameter_noinfo:PROC
EXTRN	__imp___errno:PROC
EXTRN	__imp__RegisterWindowMessageA@4:PROC
EXTRN	__imp__SendMessageA@16:PROC
EXTRN	__imp__EnableWindow@8:PROC
EXTRN	__imp__UpdateWindow@4:PROC
EXTRN	__imp__InvalidateRect@12:PROC
EXTRN	__imp__GetWindowRect@8:PROC
EXTRN	__imp__GetWindowLongA@8:PROC
EXTRN	__imp__GetParent@4:PROC
EXTRN	__imp___mbslen:PROC
EXTRN	__imp__qsort:PROC
EXTRN	?AfxThrowMemoryException@@YGXXZ:PROC		; AfxThrowMemoryException
EXTRN	?AfxThrowInvalidArgException@@YGXXZ:PROC	; AfxThrowInvalidArgException
EXTRN	?AfxThrowArchiveException@@YGXHPBD@Z:PROC	; AfxThrowArchiveException
EXTRN	?GetRuntimeClass@CObject@@UBEPAUCRuntimeClass@@XZ:PROC ; CObject::GetRuntimeClass
EXTRN	__imp_?ReleaseBuffer@?$CSimpleStringT@D$00@ATL@@QAEXH@Z:PROC
EXTRN	__imp_?Concatenate@?$CSimpleStringT@D$00@ATL@@KAXAAV12@PBDH1H@Z:PROC
EXTRN	__imp_??0?$CStringT@DV?$StrTraitMFC_DLL@DV?$ChTraitsCRT@D@ATL@@@@@ATL@@QAE@XZ:PROC
EXTRN	__imp_??0?$CStringT@DV?$StrTraitMFC_DLL@DV?$ChTraitsCRT@D@ATL@@@@@ATL@@QAE@PAUIAtlStringMgr@1@@Z:PROC
EXTRN	__imp_??0?$CStringT@DV?$StrTraitMFC_DLL@DV?$ChTraitsCRT@D@ATL@@@@@ATL@@QAE@ABV01@@Z:PROC
EXTRN	__imp_??1?$CStringT@DV?$StrTraitMFC_DLL@DV?$ChTraitsCRT@D@ATL@@@@@ATL@@QAE@XZ:PROC
EXTRN	__imp_??4?$CStringT@DV?$StrTraitMFC_DLL@DV?$ChTraitsCRT@D@ATL@@@@@ATL@@QAEAAV01@ABV01@@Z:PROC
EXTRN	__imp_??4?$CStringT@DV?$StrTraitMFC_DLL@DV?$ChTraitsCRT@D@ATL@@@@@ATL@@QAEAAV01@PBD@Z:PROC
EXTRN	__imp_?GetManager@?$CStringT@DV?$StrTraitMFC_DLL@DV?$ChTraitsCRT@D@ATL@@@@@ATL@@QBEPAUIAtlStringMgr@2@XZ:PROC
EXTRN	__imp_?Compare@?$CStringT@DV?$StrTraitMFC_DLL@DV?$ChTraitsCRT@D@ATL@@@@@ATL@@QBEHPBD@Z:PROC
EXTRN	__imp_?CollateNoCase@?$CStringT@DV?$StrTraitMFC_DLL@DV?$ChTraitsCRT@D@ATL@@@@@ATL@@QBEHPBD@Z:PROC
EXTRN	__imp_?Left@?$CStringT@DV?$StrTraitMFC_DLL@DV?$ChTraitsCRT@D@ATL@@@@@ATL@@QBE?AV12@H@Z:PROC
EXTRN	__imp_?Format@?$CStringT@DV?$StrTraitMFC_DLL@DV?$ChTraitsCRT@D@ATL@@@@@ATL@@QAAXPBDZZ:PROC
EXTRN	?Read@CArchive@@QAEIPAXI@Z:PROC			; CArchive::Read
EXTRN	?Write@CArchive@@QAEXPBXI@Z:PROC		; CArchive::Write
EXTRN	?ReadCount@CArchive@@QAEKXZ:PROC		; CArchive::ReadCount
EXTRN	?WriteCount@CArchive@@QAEXK@Z:PROC		; CArchive::WriteCount
EXTRN	?GetRuntimeClass@CStringArray@@UBEPAUCRuntimeClass@@XZ:PROC ; CStringArray::GetRuntimeClass
EXTRN	??0CStringArray@@QAE@XZ:PROC			; CStringArray::CStringArray
EXTRN	?SetSize@CStringArray@@QAEXHH@Z:PROC		; CStringArray::SetSize
EXTRN	?SetAtGrow@CStringArray@@QAEXHABV?$CStringT@DV?$StrTraitMFC_DLL@DV?$ChTraitsCRT@D@ATL@@@@@ATL@@@Z:PROC ; CStringArray::SetAtGrow
EXTRN	??1CStringArray@@UAE@XZ:PROC			; CStringArray::~CStringArray
EXTRN	?Serialize@CStringArray@@UAEXAAVCArchive@@@Z:PROC ; CStringArray::Serialize
EXTRN	??0CImageList@@QAE@XZ:PROC			; CImageList::CImageList
EXTRN	?Create@CImageList@@QAEHHHIHH@Z:PROC		; CImageList::Create
EXTRN	?FromHandle@CImageList@@SGPAV1@PAU_IMAGELIST@@@Z:PROC ; CImageList::FromHandle
EXTRN	??1CImageList@@UAE@XZ:PROC			; CImageList::~CImageList
EXTRN	?OnCmdMsg@CCmdTarget@@UAEHIHPAXPAUAFX_CMDHANDLERINFO@@@Z:PROC ; CCmdTarget::OnCmdMsg
EXTRN	?IsInvokeAllowed@CCmdTarget@@UAEHJ@Z:PROC	; CCmdTarget::IsInvokeAllowed
EXTRN	?GetDispatchIID@CCmdTarget@@UAEHPAU_GUID@@@Z:PROC ; CCmdTarget::GetDispatchIID
EXTRN	?GetTypeInfoCount@CCmdTarget@@UAEIXZ:PROC	; CCmdTarget::GetTypeInfoCount
EXTRN	?GetTypeLibCache@CCmdTarget@@UAEPAVCTypeLibCache@@XZ:PROC ; CCmdTarget::GetTypeLibCache
EXTRN	?GetTypeLib@CCmdTarget@@UAEJKPAPAUITypeLib@@@Z:PROC ; CCmdTarget::GetTypeLib
EXTRN	?GetCommandMap@CCmdTarget@@MBEPBUAFX_OLECMDMAP@@XZ:PROC ; CCmdTarget::GetCommandMap
EXTRN	?GetDispatchMap@CCmdTarget@@MBEPBUAFX_DISPMAP@@XZ:PROC ; CCmdTarget::GetDispatchMap
EXTRN	?GetConnectionMap@CCmdTarget@@MBEPBUAFX_CONNECTIONMAP@@XZ:PROC ; CCmdTarget::GetConnectionMap
EXTRN	?GetEventSinkMap@CCmdTarget@@MBEPBUAFX_EVENTSINKMAP@@XZ:PROC ; CCmdTarget::GetEventSinkMap
EXTRN	?OnCreateAggregates@CCmdTarget@@UAEHXZ:PROC	; CCmdTarget::OnCreateAggregates
EXTRN	?GetInterfaceHook@CCmdTarget@@UAEPAUIUnknown@@PBX@Z:PROC ; CCmdTarget::GetInterfaceHook
EXTRN	?GetExtraConnectionPoints@CCmdTarget@@MAEHPAVCPtrArray@@@Z:PROC ; CCmdTarget::GetExtraConnectionPoints
EXTRN	?GetConnectionHook@CCmdTarget@@MAEPAUIConnectionPoint@@ABU_GUID@@@Z:PROC ; CCmdTarget::GetConnectionHook
EXTRN	??0CWnd@@QAE@XZ:PROC				; CWnd::CWnd
EXTRN	?FromHandle@CWnd@@SGPAV1@PAUHWND__@@@Z:PROC	; CWnd::FromHandle
EXTRN	?PreSubclassWindow@CWnd@@UAEXXZ:PROC		; CWnd::PreSubclassWindow
EXTRN	?Create@CWnd@@UAEHPBD0KABUtagRECT@@PAV1@IPAUCCreateContext@@@Z:PROC ; CWnd::Create
EXTRN	?CreateEx@CWnd@@UAEHKPBD0KHHHHPAUHWND__@@PAUHMENU__@@PAX@Z:PROC ; CWnd::CreateEx
EXTRN	?CreateEx@CWnd@@UAEHKPBD0KABUtagRECT@@PAV1@IPAX@Z:PROC ; CWnd::CreateEx
EXTRN	?DestroyWindow@CWnd@@UAEHXZ:PROC		; CWnd::DestroyWindow
EXTRN	?PreCreateWindow@CWnd@@UAEHAAUtagCREATESTRUCTA@@@Z:PROC ; CWnd::PreCreateWindow
EXTRN	?CalcWindowRect@CWnd@@UAEXPAUtagRECT@@I@Z:PROC	; CWnd::CalcWindowRect
EXTRN	?GetMenu@CWnd@@UBEPAVCMenu@@XZ:PROC		; CWnd::GetMenu
EXTRN	?SetMenu@CWnd@@UAEHPAVCMenu@@@Z:PROC		; CWnd::SetMenu
EXTRN	?OnToolHitTest@CWnd@@UBEHVCPoint@@PAUtagTOOLINFOA@@@Z:PROC ; CWnd::OnToolHitTest
EXTRN	?GetScrollPos@CWnd@@QBEHH@Z:PROC		; CWnd::GetScrollPos
EXTRN	?GetScrollBarCtrl@CWnd@@UBEPAVCScrollBar@@H@Z:PROC ; CWnd::GetScrollBarCtrl
EXTRN	?GetScrollInfo@CWnd@@QAEHHPAUtagSCROLLINFO@@I@Z:PROC ; CWnd::GetScrollInfo
EXTRN	?WinHelpA@CWnd@@UAEXKI@Z:PROC			; CWnd::WinHelpA
EXTRN	?HtmlHelpA@CWnd@@UAEXKI@Z:PROC			; CWnd::HtmlHelpA
EXTRN	?WinHelpInternal@CWnd@@UAEXKI@Z:PROC		; CWnd::WinHelpInternal
EXTRN	?ContinueModal@CWnd@@UAEHXZ:PROC		; CWnd::ContinueModal
EXTRN	?EndModalLoop@CWnd@@UAEXH@Z:PROC		; CWnd::EndModalLoop
EXTRN	?OnDrawIconicThumbnailOrLivePreview@CWnd@@UAEXAAVCDC@@VCRect@@VCSize@@HAAH@Z:PROC ; CWnd::OnDrawIconicThumbnailOrLivePreview
EXTRN	?GetInterfaceMap@CWnd@@MBEPBUAFX_INTERFACEMAP@@XZ:PROC ; CWnd::GetInterfaceMap
EXTRN	?EnsureStdObj@CWnd@@UAEJXZ:PROC			; CWnd::EnsureStdObj
EXTRN	?get_accParent@CWnd@@UAEJPAPAUIDispatch@@@Z:PROC ; CWnd::get_accParent
EXTRN	?get_accChildCount@CWnd@@UAEJPAJ@Z:PROC		; CWnd::get_accChildCount
EXTRN	?get_accChild@CWnd@@UAEJUtagVARIANT@@PAPAUIDispatch@@@Z:PROC ; CWnd::get_accChild
EXTRN	?get_accName@CWnd@@UAEJUtagVARIANT@@PAPA_W@Z:PROC ; CWnd::get_accName
EXTRN	?get_accValue@CWnd@@UAEJUtagVARIANT@@PAPA_W@Z:PROC ; CWnd::get_accValue
EXTRN	?get_accDescription@CWnd@@UAEJUtagVARIANT@@PAPA_W@Z:PROC ; CWnd::get_accDescription
EXTRN	?get_accRole@CWnd@@UAEJUtagVARIANT@@PAU2@@Z:PROC ; CWnd::get_accRole
EXTRN	?get_accState@CWnd@@UAEJUtagVARIANT@@PAU2@@Z:PROC ; CWnd::get_accState
EXTRN	?get_accHelp@CWnd@@UAEJUtagVARIANT@@PAPA_W@Z:PROC ; CWnd::get_accHelp
EXTRN	?get_accHelpTopic@CWnd@@UAEJPAPA_WUtagVARIANT@@PAJ@Z:PROC ; CWnd::get_accHelpTopic
EXTRN	?get_accKeyboardShortcut@CWnd@@UAEJUtagVARIANT@@PAPA_W@Z:PROC ; CWnd::get_accKeyboardShortcut
EXTRN	?get_accFocus@CWnd@@UAEJPAUtagVARIANT@@@Z:PROC	; CWnd::get_accFocus
EXTRN	?get_accSelection@CWnd@@UAEJPAUtagVARIANT@@@Z:PROC ; CWnd::get_accSelection
EXTRN	?get_accDefaultAction@CWnd@@UAEJUtagVARIANT@@PAPA_W@Z:PROC ; CWnd::get_accDefaultAction
EXTRN	?accSelect@CWnd@@UAEJJUtagVARIANT@@@Z:PROC	; CWnd::accSelect
EXTRN	?accLocation@CWnd@@UAEJPAJ000UtagVARIANT@@@Z:PROC ; CWnd::accLocation
EXTRN	?accNavigate@CWnd@@UAEJJUtagVARIANT@@PAU2@@Z:PROC ; CWnd::accNavigate
EXTRN	?accHitTest@CWnd@@UAEJJJPAUtagVARIANT@@@Z:PROC	; CWnd::accHitTest
EXTRN	?accDoDefaultAction@CWnd@@UAEJUtagVARIANT@@@Z:PROC ; CWnd::accDoDefaultAction
EXTRN	?put_accName@CWnd@@UAEJUtagVARIANT@@PA_W@Z:PROC	; CWnd::put_accName
EXTRN	?put_accValue@CWnd@@UAEJUtagVARIANT@@PA_W@Z:PROC ; CWnd::put_accValue
EXTRN	?SetProxy@CWnd@@UAEJPAUIAccessibleProxy@@@Z:PROC ; CWnd::SetProxy
EXTRN	?CreateAccessibleProxy@CWnd@@UAEJIJPAJ@Z:PROC	; CWnd::CreateAccessibleProxy
EXTRN	?OnCommand@CWnd@@MAEHIJ@Z:PROC			; CWnd::OnCommand
EXTRN	?OnNotify@CWnd@@MAEHIJPAJ@Z:PROC		; CWnd::OnNotify
EXTRN	?OnDestroy@CWnd@@IAEXXZ:PROC			; CWnd::OnDestroy
EXTRN	?GetSuperWndProcAddr@CWnd@@MAEPAP6GJPAUHWND__@@IIJ@ZXZ:PROC ; CWnd::GetSuperWndProcAddr
EXTRN	?PreTranslateMessage@CWnd@@UAEHPAUtagMSG@@@Z:PROC ; CWnd::PreTranslateMessage
EXTRN	?OnAmbientProperty@CWnd@@UAEHPAVCOleControlSite@@JPAUtagVARIANT@@@Z:PROC ; CWnd::OnAmbientProperty
EXTRN	?WindowProc@CWnd@@MAEJIIJ@Z:PROC		; CWnd::WindowProc
EXTRN	?OnWndMsg@CWnd@@MAEHIIJPAJ@Z:PROC		; CWnd::OnWndMsg
EXTRN	?Default@CWnd@@IAEJXZ:PROC			; CWnd::Default
EXTRN	?DefWindowProcA@CWnd@@MAEJIIJ@Z:PROC		; CWnd::DefWindowProcA
EXTRN	?PostNcDestroy@CWnd@@MAEXXZ:PROC		; CWnd::PostNcDestroy
EXTRN	?OnTouchInputs@CWnd@@MAEHIPAUtagTOUCHINPUT@@@Z:PROC ; CWnd::OnTouchInputs
EXTRN	?OnTouchInput@CWnd@@MAEHVCPoint@@HHPAUtagTOUCHINPUT@@@Z:PROC ; CWnd::OnTouchInput
EXTRN	?GetGestureStatus@CWnd@@MAEKVCPoint@@@Z:PROC	; CWnd::GetGestureStatus
EXTRN	?OnGestureZoom@CWnd@@MAEHVCPoint@@J@Z:PROC	; CWnd::OnGestureZoom
EXTRN	?OnGesturePan@CWnd@@MAEHVCPoint@@0@Z:PROC	; CWnd::OnGesturePan
EXTRN	?OnGestureRotate@CWnd@@MAEHVCPoint@@N@Z:PROC	; CWnd::OnGestureRotate
EXTRN	?OnGestureTwoFingerTap@CWnd@@MAEHVCPoint@@@Z:PROC ; CWnd::OnGestureTwoFingerTap
EXTRN	?OnGesturePressAndTap@CWnd@@MAEHVCPoint@@J@Z:PROC ; CWnd::OnGesturePressAndTap
EXTRN	?ResizeDynamicLayout@CWnd@@MAEXXZ:PROC		; CWnd::ResizeDynamicLayout
EXTRN	?CheckAutoCenter@CWnd@@UAEHXZ:PROC		; CWnd::CheckAutoCenter
EXTRN	?IsFrameWnd@CWnd@@UBEHXZ:PROC			; CWnd::IsFrameWnd
EXTRN	?OnFinalRelease@CWnd@@UAEXXZ:PROC		; CWnd::OnFinalRelease
EXTRN	?CreateControlContainer@CWnd@@MAEHPAPAVCOleControlContainer@@@Z:PROC ; CWnd::CreateControlContainer
EXTRN	?CreateControlSite@CWnd@@MAEHPAVCOleControlContainer@@PAPAVCOleControlSite@@IABU_GUID@@@Z:PROC ; CWnd::CreateControlSite
EXTRN	?SetOccDialogInfo@CWnd@@MAEHPAU_AFX_OCC_DIALOG_INFO@@@Z:PROC ; CWnd::SetOccDialogInfo
EXTRN	?GetOccDialogInfo@CWnd@@MAEPAU_AFX_OCC_DIALOG_INFO@@XZ:PROC ; CWnd::GetOccDialogInfo
EXTRN	?GetRuntimeClass@CListCtrl@@UBEPAUCRuntimeClass@@XZ:PROC ; CListCtrl::GetRuntimeClass
EXTRN	?SetItemState@CListCtrl@@QAEHHII@Z:PROC		; CListCtrl::SetItemState
EXTRN	?GetItemText@CListCtrl@@QBE?AV?$CStringT@DV?$StrTraitMFC_DLL@DV?$ChTraitsCRT@D@ATL@@@@@ATL@@HH@Z:PROC ; CListCtrl::GetItemText
EXTRN	?InsertColumn@CListCtrl@@QAEHHPBDHHH@Z:PROC	; CListCtrl::InsertColumn
EXTRN	?DrawItem@CListCtrl@@UAEXPAUtagDRAWITEMSTRUCT@@@Z:PROC ; CListCtrl::DrawItem
EXTRN	??1CListCtrl@@UAE@XZ:PROC			; CListCtrl::~CListCtrl
EXTRN	?OnChildNotify@CListCtrl@@MAEHIIJPAJ@Z:PROC	; CListCtrl::OnChildNotify
EXTRN	?GetThisMessageMap@CListCtrl@@KGPBUAFX_MSGMAP@@XZ:PROC ; CListCtrl::GetThisMessageMap
EXTRN	?GetMessageMap@CListCtrl@@MBEPBUAFX_MSGMAP@@XZ:PROC ; CListCtrl::GetMessageMap
EXTRN	??_ECListCtrl@@UAEPAXI@Z:PROC			; CListCtrl::`vector deleting destructor'
EXTRN	??_ECSortStringArray@@UAEPAXI@Z:PROC		; CSortStringArray::`vector deleting destructor'
EXTRN	??_E?$CArray@PAU__MASTERCODE@@PAU1@@@UAEPAXI@Z:PROC ; CArray<__MASTERCODE *,__MASTERCODE *>::`vector deleting destructor'
EXTRN	??_ECVirtualListCtrl@@UAEPAXI@Z:PROC		; CVirtualListCtrl::`vector deleting destructor'
EXTRN	@__security_check_cookie@4:PROC
EXTRN	___CxxFrameHandler3:PROC
EXTRN	_memcpy:PROC
EXTRN	_memset:PROC
EXTRN	??_7type_info@@6B@:QWORD			; type_info::`vftable'
EXTRN	___security_cookie:DWORD
_BSS	SEGMENT
?RMSG_GETSIGNAL_REAL@@3IB DD 01H DUP (?)		; RMSG_GETSIGNAL_REAL
?RMSG_CHARTMAIN@@3IB DD 01H DUP (?)			; RMSG_CHARTMAIN
?RMS_ANALYSIS_FUNC@@3IB DD 01H DUP (?)			; RMS_ANALYSIS_FUNC
?RMSG_GET_USERID@@3IB DD 01H DUP (?)			; RMSG_GET_USERID
?RMSG_KSDLLINFO@@3IB DD 01H DUP (?)			; RMSG_KSDLLINFO
?RMSG_GETINFO@@3IB DD 01H DUP (?)			; RMSG_GETINFO
?RMSG_CHANGE_SKINCOLOR@@3IB DD 01H DUP (?)		; RMSG_CHANGE_SKINCOLOR
?RMSG_GET_SKINCOLOR@@3IB DD 01H DUP (?)			; RMSG_GET_SKINCOLOR
?RMSG_CHANGE_CROSSLINE@@3IB DD 01H DUP (?)		; RMSG_CHANGE_CROSSLINE
_BSS	ENDS
CRT$XCU	SEGMENT
?RMSG_GETSIGNAL_REAL$initializer$@@3P6AXXZA DD FLAT:??__ERMSG_GETSIGNAL_REAL@@YAXXZ ; RMSG_GETSIGNAL_REAL$initializer$
CRT$XCU	ENDS
;	COMDAT ??_R1A@?0A@EA@?$CArray@PAU__MASTERCODE@@PAU1@@@8
rdata$r	SEGMENT
??_R1A@?0A@EA@?$CArray@PAU__MASTERCODE@@PAU1@@@8 DD FLAT:??_R0?AV?$CArray@PAU__MASTERCODE@@PAU1@@@@8 ; CArray<__MASTERCODE *,__MASTERCODE *>::`RTTI Base Class Descriptor at (0,-1,0,64)'
	DD	01H
	DD	00H
	DD	0ffffffffH
	DD	00H
	DD	040H
	DD	FLAT:??_R3?$CArray@PAU__MASTERCODE@@PAU1@@@8
rdata$r	ENDS
;	COMDAT ??_R2?$CArray@PAU__MASTERCODE@@PAU1@@@8
rdata$r	SEGMENT
??_R2?$CArray@PAU__MASTERCODE@@PAU1@@@8 DD FLAT:??_R1A@?0A@EA@?$CArray@PAU__MASTERCODE@@PAU1@@@8 ; CArray<__MASTERCODE *,__MASTERCODE *>::`RTTI Base Class Array'
	DD	FLAT:??_R1A@?0A@EA@CObject@@8
rdata$r	ENDS
;	COMDAT ??_R3?$CArray@PAU__MASTERCODE@@PAU1@@@8
rdata$r	SEGMENT
??_R3?$CArray@PAU__MASTERCODE@@PAU1@@@8 DD 00H		; CArray<__MASTERCODE *,__MASTERCODE *>::`RTTI Class Hierarchy Descriptor'
	DD	00H
	DD	02H
	DD	FLAT:??_R2?$CArray@PAU__MASTERCODE@@PAU1@@@8
rdata$r	ENDS
;	COMDAT ??_R0?AV?$CArray@PAU__MASTERCODE@@PAU1@@@@8
data$rs	SEGMENT
??_R0?AV?$CArray@PAU__MASTERCODE@@PAU1@@@@8 DD FLAT:??_7type_info@@6B@ ; CArray<__MASTERCODE *,__MASTERCODE *> `RTTI Type Descriptor'
	DD	00H
	DB	'.?AV?$CArray@PAU__MASTERCODE@@PAU1@@@', 00H
data$rs	ENDS
;	COMDAT ??_R4?$CArray@PAU__MASTERCODE@@PAU1@@@6B@
rdata$r	SEGMENT
??_R4?$CArray@PAU__MASTERCODE@@PAU1@@@6B@ DD 00H	; CArray<__MASTERCODE *,__MASTERCODE *>::`RTTI Complete Object Locator'
	DD	00H
	DD	00H
	DD	FLAT:??_R0?AV?$CArray@PAU__MASTERCODE@@PAU1@@@@8
	DD	FLAT:??_R3?$CArray@PAU__MASTERCODE@@PAU1@@@8
rdata$r	ENDS
;	COMDAT ??_R1A@?0A@EA@CVirtualListCtrl@@8
rdata$r	SEGMENT
??_R1A@?0A@EA@CVirtualListCtrl@@8 DD FLAT:??_R0?AVCVirtualListCtrl@@@8 ; CVirtualListCtrl::`RTTI Base Class Descriptor at (0,-1,0,64)'
	DD	04H
	DD	00H
	DD	0ffffffffH
	DD	00H
	DD	040H
	DD	FLAT:??_R3CVirtualListCtrl@@8
rdata$r	ENDS
;	COMDAT ??_R2CVirtualListCtrl@@8
rdata$r	SEGMENT
??_R2CVirtualListCtrl@@8 DD FLAT:??_R1A@?0A@EA@CVirtualListCtrl@@8 ; CVirtualListCtrl::`RTTI Base Class Array'
	DD	FLAT:??_R1A@?0A@EA@CListCtrl@@8
	DD	FLAT:??_R1A@?0A@EA@CWnd@@8
	DD	FLAT:??_R1A@?0A@EA@CCmdTarget@@8
	DD	FLAT:??_R1A@?0A@EA@CObject@@8
rdata$r	ENDS
;	COMDAT ??_R3CVirtualListCtrl@@8
rdata$r	SEGMENT
??_R3CVirtualListCtrl@@8 DD 00H				; CVirtualListCtrl::`RTTI Class Hierarchy Descriptor'
	DD	00H
	DD	05H
	DD	FLAT:??_R2CVirtualListCtrl@@8
rdata$r	ENDS
;	COMDAT ??_R0?AVCVirtualListCtrl@@@8
data$rs	SEGMENT
??_R0?AVCVirtualListCtrl@@@8 DD FLAT:??_7type_info@@6B@	; CVirtualListCtrl `RTTI Type Descriptor'
	DD	00H
	DB	'.?AVCVirtualListCtrl@@', 00H
data$rs	ENDS
;	COMDAT ??_R4CVirtualListCtrl@@6B@
rdata$r	SEGMENT
??_R4CVirtualListCtrl@@6B@ DD 00H			; CVirtualListCtrl::`RTTI Complete Object Locator'
	DD	00H
	DD	00H
	DD	FLAT:??_R0?AVCVirtualListCtrl@@@8
	DD	FLAT:??_R3CVirtualListCtrl@@8
rdata$r	ENDS
;	COMDAT ??_R2CStringArray@@8
rdata$r	SEGMENT
??_R2CStringArray@@8 DD FLAT:??_R1A@?0A@EA@CStringArray@@8 ; CStringArray::`RTTI Base Class Array'
	DD	FLAT:??_R1A@?0A@EA@CObject@@8
rdata$r	ENDS
;	COMDAT ??_R3CStringArray@@8
rdata$r	SEGMENT
??_R3CStringArray@@8 DD 00H				; CStringArray::`RTTI Class Hierarchy Descriptor'
	DD	00H
	DD	02H
	DD	FLAT:??_R2CStringArray@@8
rdata$r	ENDS
;	COMDAT ??_R0?AVCStringArray@@@8
data$rs	SEGMENT
??_R0?AVCStringArray@@@8 DD FLAT:??_7type_info@@6B@	; CStringArray `RTTI Type Descriptor'
	DD	00H
	DB	'.?AVCStringArray@@', 00H
data$rs	ENDS
;	COMDAT ??_R1A@?0A@EA@CStringArray@@8
rdata$r	SEGMENT
??_R1A@?0A@EA@CStringArray@@8 DD FLAT:??_R0?AVCStringArray@@@8 ; CStringArray::`RTTI Base Class Descriptor at (0,-1,0,64)'
	DD	01H
	DD	00H
	DD	0ffffffffH
	DD	00H
	DD	040H
	DD	FLAT:??_R3CStringArray@@8
rdata$r	ENDS
;	COMDAT ??_R1A@?0A@EA@CSortStringArray@@8
rdata$r	SEGMENT
??_R1A@?0A@EA@CSortStringArray@@8 DD FLAT:??_R0?AVCSortStringArray@@@8 ; CSortStringArray::`RTTI Base Class Descriptor at (0,-1,0,64)'
	DD	02H
	DD	00H
	DD	0ffffffffH
	DD	00H
	DD	040H
	DD	FLAT:??_R3CSortStringArray@@8
rdata$r	ENDS
;	COMDAT ??_R2CSortStringArray@@8
rdata$r	SEGMENT
??_R2CSortStringArray@@8 DD FLAT:??_R1A@?0A@EA@CSortStringArray@@8 ; CSortStringArray::`RTTI Base Class Array'
	DD	FLAT:??_R1A@?0A@EA@CStringArray@@8
	DD	FLAT:??_R1A@?0A@EA@CObject@@8
rdata$r	ENDS
;	COMDAT ??_R3CSortStringArray@@8
rdata$r	SEGMENT
??_R3CSortStringArray@@8 DD 00H				; CSortStringArray::`RTTI Class Hierarchy Descriptor'
	DD	00H
	DD	03H
	DD	FLAT:??_R2CSortStringArray@@8
rdata$r	ENDS
;	COMDAT ??_R0?AVCSortStringArray@@@8
data$rs	SEGMENT
??_R0?AVCSortStringArray@@@8 DD FLAT:??_7type_info@@6B@	; CSortStringArray `RTTI Type Descriptor'
	DD	00H
	DB	'.?AVCSortStringArray@@', 00H
data$rs	ENDS
;	COMDAT ??_R4CSortStringArray@@6B@
rdata$r	SEGMENT
??_R4CSortStringArray@@6B@ DD 00H			; CSortStringArray::`RTTI Complete Object Locator'
	DD	00H
	DD	00H
	DD	FLAT:??_R0?AVCSortStringArray@@@8
	DD	FLAT:??_R3CSortStringArray@@8
rdata$r	ENDS
;	COMDAT ??_C@_01DNKMNLPK@?$HM@
CONST	SEGMENT
??_C@_01DNKMNLPK@?$HM@ DB '|', 00H			; `string'
CONST	ENDS
;	COMDAT ??_C@_04IMDNCEFG@?D?Z?$LF?e@
CONST	SEGMENT
??_C@_04IMDNCEFG@?D?Z?$LF?e@ DB 0c4H, 0daH, 0b5H, 0e5H, 00H ; `string'
CONST	ENDS
;	COMDAT ??_C@_06BGMJNGKF@?A?$LO?$LI?q?$LI?m@
CONST	SEGMENT
??_C@_06BGMJNGKF@?A?$LO?$LI?q?$LI?m@ DB 0c1H, 0beH, 0b8H, 0f1H, 0b8H, 0edH
	DB	00H						; `string'
CONST	ENDS
;	COMDAT ?messageMap@?1??GetThisMessageMap@CVirtualListCtrl@@KGPBUAFX_MSGMAP@@XZ@4U3@B
CONST	SEGMENT
?messageMap@?1??GetThisMessageMap@CVirtualListCtrl@@KGPBUAFX_MSGMAP@@XZ@4U3@B DD FLAT:?GetThisMessageMap@CListCtrl@@KGPBUAFX_MSGMAP@@XZ ; `CVirtualListCtrl::GetThisMessageMap'::`2'::messageMap
	DD	FLAT:?_messageEntries@?1??GetThisMessageMap@CVirtualListCtrl@@KGPBUAFX_MSGMAP@@XZ@4QBUAFX_MSGMAP_ENTRY@@B
CONST	ENDS
;	COMDAT ?_messageEntries@?1??GetThisMessageMap@CVirtualListCtrl@@KGPBUAFX_MSGMAP@@XZ@4QBUAFX_MSGMAP_ENTRY@@B
CONST	SEGMENT
?_messageEntries@?1??GetThisMessageMap@CVirtualListCtrl@@KGPBUAFX_MSGMAP@@XZ@4QBUAFX_MSGMAP_ENTRY@@B DD 0bc4eH ; `CVirtualListCtrl::GetThisMessageMap'::`2'::_messageEntries
	DD	0ff6aH
	DD	00H
	DD	00H
	DD	03eH
	DD	FLAT:?OnGetdispinfo@CVirtualListCtrl@@IAEXPAUtagNMHDR@@PAJ@Z
	DD	02H
	DD	00H
	DD	00H
	DD	00H
	DD	013H
	DD	FLAT:?OnDestroy@CVirtualListCtrl@@IAEXXZ
	DD	0bc4eH
	DD	0ff94H
	DD	00H
	DD	00H
	DD	03eH
	DD	FLAT:?OnColumnclick@CVirtualListCtrl@@IAEXPAUtagNMHDR@@PAJ@Z
	DD	0bc4eH
	DD	0ff9bH
	DD	00H
	DD	00H
	DD	03eH
	DD	FLAT:?OnItemchanged@CVirtualListCtrl@@IAEXPAUtagNMHDR@@PAJ@Z
	DD	0bc4eH
	DD	0fffdH
	DD	00H
	DD	00H
	DD	03eH
	DD	FLAT:?OnDblclk@CVirtualListCtrl@@IAEXPAUtagNMHDR@@PAJ@Z
	DD	05H
	DD	00H
	DD	00H
	DD	00H
	DD	01aH
	DD	FLAT:?OnSize@CVirtualListCtrl@@IAEXIHH@Z
	DD	00H
	DD	00H
	DD	00H
	DD	00H
	DD	00H
	DD	00H
CONST	ENDS
;	COMDAT ??_7CVirtualListCtrl@@6B@
CONST	SEGMENT
??_7CVirtualListCtrl@@6B@ DD FLAT:??_R4CVirtualListCtrl@@6B@ ; CVirtualListCtrl::`vftable'
	DD	FLAT:?GetRuntimeClass@CListCtrl@@UBEPAUCRuntimeClass@@XZ
	DD	FLAT:??_ECVirtualListCtrl@@UAEPAXI@Z
	DD	FLAT:?Serialize@CObject@@UAEXAAVCArchive@@@Z
	DD	FLAT:?AssertValid@CObject@@UBEXXZ
	DD	FLAT:?Dump@CObject@@UBEXAAVCDumpContext@@@Z
	DD	FLAT:?OnCmdMsg@CCmdTarget@@UAEHIHPAXPAUAFX_CMDHANDLERINFO@@@Z
	DD	FLAT:?OnFinalRelease@CWnd@@UAEXXZ
	DD	FLAT:?IsInvokeAllowed@CCmdTarget@@UAEHJ@Z
	DD	FLAT:?GetDispatchIID@CCmdTarget@@UAEHPAU_GUID@@@Z
	DD	FLAT:?GetTypeInfoCount@CCmdTarget@@UAEIXZ
	DD	FLAT:?GetTypeLibCache@CCmdTarget@@UAEPAVCTypeLibCache@@XZ
	DD	FLAT:?GetTypeLib@CCmdTarget@@UAEJKPAPAUITypeLib@@@Z
	DD	FLAT:?GetMessageMap@CVirtualListCtrl@@MBEPBUAFX_MSGMAP@@XZ
	DD	FLAT:?GetCommandMap@CCmdTarget@@MBEPBUAFX_OLECMDMAP@@XZ
	DD	FLAT:?GetDispatchMap@CCmdTarget@@MBEPBUAFX_DISPMAP@@XZ
	DD	FLAT:?GetConnectionMap@CCmdTarget@@MBEPBUAFX_CONNECTIONMAP@@XZ
	DD	FLAT:?GetInterfaceMap@CWnd@@MBEPBUAFX_INTERFACEMAP@@XZ
	DD	FLAT:?GetEventSinkMap@CCmdTarget@@MBEPBUAFX_EVENTSINKMAP@@XZ
	DD	FLAT:?OnCreateAggregates@CCmdTarget@@UAEHXZ
	DD	FLAT:?GetInterfaceHook@CCmdTarget@@UAEPAUIUnknown@@PBX@Z
	DD	FLAT:?GetExtraConnectionPoints@CCmdTarget@@MAEHPAVCPtrArray@@@Z
	DD	FLAT:?GetConnectionHook@CCmdTarget@@MAEPAUIConnectionPoint@@ABU_GUID@@@Z
	DD	FLAT:?PreSubclassWindow@CWnd@@UAEXXZ
	DD	FLAT:?Create@CWnd@@UAEHPBD0KABUtagRECT@@PAV1@IPAUCCreateContext@@@Z
	DD	FLAT:?CreateEx@CWnd@@UAEHKPBD0KABUtagRECT@@PAV1@IPAX@Z
	DD	FLAT:?CreateEx@CWnd@@UAEHKPBD0KHHHHPAUHWND__@@PAUHMENU__@@PAX@Z
	DD	FLAT:?DestroyWindow@CWnd@@UAEHXZ
	DD	FLAT:?PreCreateWindow@CWnd@@UAEHAAUtagCREATESTRUCTA@@@Z
	DD	FLAT:?CalcWindowRect@CWnd@@UAEXPAUtagRECT@@I@Z
	DD	FLAT:?GetMenu@CWnd@@UBEPAVCMenu@@XZ
	DD	FLAT:?SetMenu@CWnd@@UAEHPAVCMenu@@@Z
	DD	FLAT:?OnToolHitTest@CWnd@@UBEHVCPoint@@PAUtagTOOLINFOA@@@Z
	DD	FLAT:?GetScrollBarCtrl@CWnd@@UBEPAVCScrollBar@@H@Z
	DD	FLAT:?WinHelpA@CWnd@@UAEXKI@Z
	DD	FLAT:?HtmlHelpA@CWnd@@UAEXKI@Z
	DD	FLAT:?WinHelpInternal@CWnd@@UAEXKI@Z
	DD	FLAT:?ContinueModal@CWnd@@UAEHXZ
	DD	FLAT:?EndModalLoop@CWnd@@UAEXH@Z
	DD	FLAT:?OnDrawIconicThumbnailOrLivePreview@CWnd@@UAEXAAVCDC@@VCRect@@VCSize@@HAAH@Z
	DD	FLAT:?EnsureStdObj@CWnd@@UAEJXZ
	DD	FLAT:?get_accParent@CWnd@@UAEJPAPAUIDispatch@@@Z
	DD	FLAT:?get_accChildCount@CWnd@@UAEJPAJ@Z
	DD	FLAT:?get_accChild@CWnd@@UAEJUtagVARIANT@@PAPAUIDispatch@@@Z
	DD	FLAT:?get_accName@CWnd@@UAEJUtagVARIANT@@PAPA_W@Z
	DD	FLAT:?get_accValue@CWnd@@UAEJUtagVARIANT@@PAPA_W@Z
	DD	FLAT:?get_accDescription@CWnd@@UAEJUtagVARIANT@@PAPA_W@Z
	DD	FLAT:?get_accRole@CWnd@@UAEJUtagVARIANT@@PAU2@@Z
	DD	FLAT:?get_accState@CWnd@@UAEJUtagVARIANT@@PAU2@@Z
	DD	FLAT:?get_accHelp@CWnd@@UAEJUtagVARIANT@@PAPA_W@Z
	DD	FLAT:?get_accHelpTopic@CWnd@@UAEJPAPA_WUtagVARIANT@@PAJ@Z
	DD	FLAT:?get_accKeyboardShortcut@CWnd@@UAEJUtagVARIANT@@PAPA_W@Z
	DD	FLAT:?get_accFocus@CWnd@@UAEJPAUtagVARIANT@@@Z
	DD	FLAT:?get_accSelection@CWnd@@UAEJPAUtagVARIANT@@@Z
	DD	FLAT:?get_accDefaultAction@CWnd@@UAEJUtagVARIANT@@PAPA_W@Z
	DD	FLAT:?accSelect@CWnd@@UAEJJUtagVARIANT@@@Z
	DD	FLAT:?accLocation@CWnd@@UAEJPAJ000UtagVARIANT@@@Z
	DD	FLAT:?accNavigate@CWnd@@UAEJJUtagVARIANT@@PAU2@@Z
	DD	FLAT:?accHitTest@CWnd@@UAEJJJPAUtagVARIANT@@@Z
	DD	FLAT:?accDoDefaultAction@CWnd@@UAEJUtagVARIANT@@@Z
	DD	FLAT:?put_accName@CWnd@@UAEJUtagVARIANT@@PA_W@Z
	DD	FLAT:?put_accValue@CWnd@@UAEJUtagVARIANT@@PA_W@Z
	DD	FLAT:?SetProxy@CWnd@@UAEJPAUIAccessibleProxy@@@Z
	DD	FLAT:?CreateAccessibleProxy@CWnd@@UAEJIJPAJ@Z
	DD	FLAT:?OnCommand@CWnd@@MAEHIJ@Z
	DD	FLAT:?OnNotify@CWnd@@MAEHIJPAJ@Z
	DD	FLAT:?GetSuperWndProcAddr@CWnd@@MAEPAP6GJPAUHWND__@@IIJ@ZXZ
	DD	FLAT:?DoDataExchange@CWnd@@MAEXPAVCDataExchange@@@Z
	DD	FLAT:?BeginModalState@CWnd@@UAEXXZ
	DD	FLAT:?EndModalState@CWnd@@UAEXXZ
	DD	FLAT:?PreTranslateMessage@CVirtualListCtrl@@UAEHPAUtagMSG@@@Z
	DD	FLAT:?OnAmbientProperty@CWnd@@UAEHPAVCOleControlSite@@JPAUtagVARIANT@@@Z
	DD	FLAT:?WindowProc@CWnd@@MAEJIIJ@Z
	DD	FLAT:?OnWndMsg@CWnd@@MAEHIIJPAJ@Z
	DD	FLAT:?DefWindowProcA@CWnd@@MAEJIIJ@Z
	DD	FLAT:?PostNcDestroy@CWnd@@MAEXXZ
	DD	FLAT:?OnChildNotify@CListCtrl@@MAEHIIJPAJ@Z
	DD	FLAT:?OnTouchInputs@CWnd@@MAEHIPAUtagTOUCHINPUT@@@Z
	DD	FLAT:?OnTouchInput@CWnd@@MAEHVCPoint@@HHPAUtagTOUCHINPUT@@@Z
	DD	FLAT:?GetGestureStatus@CWnd@@MAEKVCPoint@@@Z
	DD	FLAT:?OnGestureZoom@CWnd@@MAEHVCPoint@@J@Z
	DD	FLAT:?OnGesturePan@CWnd@@MAEHVCPoint@@0@Z
	DD	FLAT:?OnGestureRotate@CWnd@@MAEHVCPoint@@N@Z
	DD	FLAT:?OnGestureTwoFingerTap@CWnd@@MAEHVCPoint@@@Z
	DD	FLAT:?OnGesturePressAndTap@CWnd@@MAEHVCPoint@@J@Z
	DD	FLAT:?ResizeDynamicLayout@CWnd@@MAEXXZ
	DD	FLAT:?CheckAutoCenter@CWnd@@UAEHXZ
	DD	FLAT:?IsFrameWnd@CWnd@@UBEHXZ
	DD	FLAT:?CreateControlContainer@CWnd@@MAEHPAPAVCOleControlContainer@@@Z
	DD	FLAT:?CreateControlSite@CWnd@@MAEHPAVCOleControlContainer@@PAPAVCOleControlSite@@IABU_GUID@@@Z
	DD	FLAT:?SetOccDialogInfo@CWnd@@MAEHPAU_AFX_OCC_DIALOG_INFO@@@Z
	DD	FLAT:?GetOccDialogInfo@CWnd@@MAEPAU_AFX_OCC_DIALOG_INFO@@XZ
	DD	FLAT:?DrawItem@CListCtrl@@UAEXPAUtagDRAWITEMSTRUCT@@@Z
CONST	ENDS
;	COMDAT ??_7?$CArray@PAU__MASTERCODE@@PAU1@@@6B@
CONST	SEGMENT
??_7?$CArray@PAU__MASTERCODE@@PAU1@@@6B@ DD FLAT:??_R4?$CArray@PAU__MASTERCODE@@PAU1@@@6B@ ; CArray<__MASTERCODE *,__MASTERCODE *>::`vftable'
	DD	FLAT:?GetRuntimeClass@CObject@@UBEPAUCRuntimeClass@@XZ
	DD	FLAT:??_E?$CArray@PAU__MASTERCODE@@PAU1@@@UAEPAXI@Z
	DD	FLAT:?Serialize@?$CArray@PAU__MASTERCODE@@PAU1@@@UAEXAAVCArchive@@@Z
	DD	FLAT:?AssertValid@CObject@@UBEXXZ
	DD	FLAT:?Dump@CObject@@UBEXAAVCDumpContext@@@Z
CONST	ENDS
;	COMDAT ??_7CSortStringArray@@6B@
CONST	SEGMENT
??_7CSortStringArray@@6B@ DD FLAT:??_R4CSortStringArray@@6B@ ; CSortStringArray::`vftable'
	DD	FLAT:?GetRuntimeClass@CStringArray@@UBEPAUCRuntimeClass@@XZ
	DD	FLAT:??_ECSortStringArray@@UAEPAXI@Z
	DD	FLAT:?Serialize@CStringArray@@UAEXAAVCArchive@@@Z
	DD	FLAT:?AssertValid@CObject@@UBEXXZ
	DD	FLAT:?Dump@CObject@@UBEXAAVCDumpContext@@@Z
CONST	ENDS
;	COMDAT ??_R1A@?0A@EA@CListCtrl@@8
rdata$r	SEGMENT
??_R1A@?0A@EA@CListCtrl@@8 DD FLAT:??_R0?AVCListCtrl@@@8 ; CListCtrl::`RTTI Base Class Descriptor at (0,-1,0,64)'
	DD	03H
	DD	00H
	DD	0ffffffffH
	DD	00H
	DD	040H
	DD	FLAT:??_R3CListCtrl@@8
rdata$r	ENDS
;	COMDAT ??_R2CListCtrl@@8
rdata$r	SEGMENT
??_R2CListCtrl@@8 DD FLAT:??_R1A@?0A@EA@CListCtrl@@8	; CListCtrl::`RTTI Base Class Array'
	DD	FLAT:??_R1A@?0A@EA@CWnd@@8
	DD	FLAT:??_R1A@?0A@EA@CCmdTarget@@8
	DD	FLAT:??_R1A@?0A@EA@CObject@@8
rdata$r	ENDS
;	COMDAT ??_R3CListCtrl@@8
rdata$r	SEGMENT
??_R3CListCtrl@@8 DD 00H				; CListCtrl::`RTTI Class Hierarchy Descriptor'
	DD	00H
	DD	04H
	DD	FLAT:??_R2CListCtrl@@8
rdata$r	ENDS
;	COMDAT ??_R0?AVCListCtrl@@@8
data$rs	SEGMENT
??_R0?AVCListCtrl@@@8 DD FLAT:??_7type_info@@6B@	; CListCtrl `RTTI Type Descriptor'
	DD	00H
	DB	'.?AVCListCtrl@@', 00H
data$rs	ENDS
;	COMDAT ??_R4CListCtrl@@6B@
rdata$r	SEGMENT
??_R4CListCtrl@@6B@ DD 00H				; CListCtrl::`RTTI Complete Object Locator'
	DD	00H
	DD	00H
	DD	FLAT:??_R0?AVCListCtrl@@@8
	DD	FLAT:??_R3CListCtrl@@8
rdata$r	ENDS
;	COMDAT ??_R2CCmdTarget@@8
rdata$r	SEGMENT
??_R2CCmdTarget@@8 DD FLAT:??_R1A@?0A@EA@CCmdTarget@@8	; CCmdTarget::`RTTI Base Class Array'
	DD	FLAT:??_R1A@?0A@EA@CObject@@8
rdata$r	ENDS
;	COMDAT ??_R3CCmdTarget@@8
rdata$r	SEGMENT
??_R3CCmdTarget@@8 DD 00H				; CCmdTarget::`RTTI Class Hierarchy Descriptor'
	DD	00H
	DD	02H
	DD	FLAT:??_R2CCmdTarget@@8
rdata$r	ENDS
;	COMDAT ??_R0?AVCCmdTarget@@@8
data$rs	SEGMENT
??_R0?AVCCmdTarget@@@8 DD FLAT:??_7type_info@@6B@	; CCmdTarget `RTTI Type Descriptor'
	DD	00H
	DB	'.?AVCCmdTarget@@', 00H
data$rs	ENDS
;	COMDAT ??_R1A@?0A@EA@CCmdTarget@@8
rdata$r	SEGMENT
??_R1A@?0A@EA@CCmdTarget@@8 DD FLAT:??_R0?AVCCmdTarget@@@8 ; CCmdTarget::`RTTI Base Class Descriptor at (0,-1,0,64)'
	DD	01H
	DD	00H
	DD	0ffffffffH
	DD	00H
	DD	040H
	DD	FLAT:??_R3CCmdTarget@@8
rdata$r	ENDS
;	COMDAT ??_R2CWnd@@8
rdata$r	SEGMENT
??_R2CWnd@@8 DD	FLAT:??_R1A@?0A@EA@CWnd@@8		; CWnd::`RTTI Base Class Array'
	DD	FLAT:??_R1A@?0A@EA@CCmdTarget@@8
	DD	FLAT:??_R1A@?0A@EA@CObject@@8
rdata$r	ENDS
;	COMDAT ??_R3CWnd@@8
rdata$r	SEGMENT
??_R3CWnd@@8 DD	00H					; CWnd::`RTTI Class Hierarchy Descriptor'
	DD	00H
	DD	03H
	DD	FLAT:??_R2CWnd@@8
rdata$r	ENDS
;	COMDAT ??_R0?AVCWnd@@@8
data$rs	SEGMENT
??_R0?AVCWnd@@@8 DD FLAT:??_7type_info@@6B@		; CWnd `RTTI Type Descriptor'
	DD	00H
	DB	'.?AVCWnd@@', 00H
data$rs	ENDS
;	COMDAT ??_R1A@?0A@EA@CWnd@@8
rdata$r	SEGMENT
??_R1A@?0A@EA@CWnd@@8 DD FLAT:??_R0?AVCWnd@@@8		; CWnd::`RTTI Base Class Descriptor at (0,-1,0,64)'
	DD	02H
	DD	00H
	DD	0ffffffffH
	DD	00H
	DD	040H
	DD	FLAT:??_R3CWnd@@8
rdata$r	ENDS
;	COMDAT ??_R1A@?0A@EA@CObject@@8
rdata$r	SEGMENT
??_R1A@?0A@EA@CObject@@8 DD FLAT:??_R0?AVCObject@@@8	; CObject::`RTTI Base Class Descriptor at (0,-1,0,64)'
	DD	00H
	DD	00H
	DD	0ffffffffH
	DD	00H
	DD	040H
	DD	FLAT:??_R3CObject@@8
rdata$r	ENDS
;	COMDAT ??_R2CObject@@8
rdata$r	SEGMENT
??_R2CObject@@8 DD FLAT:??_R1A@?0A@EA@CObject@@8	; CObject::`RTTI Base Class Array'
rdata$r	ENDS
;	COMDAT ??_R3CObject@@8
rdata$r	SEGMENT
??_R3CObject@@8 DD 00H					; CObject::`RTTI Class Hierarchy Descriptor'
	DD	00H
	DD	01H
	DD	FLAT:??_R2CObject@@8
rdata$r	ENDS
;	COMDAT ??_R0?AVCObject@@@8
data$rs	SEGMENT
??_R0?AVCObject@@@8 DD FLAT:??_7type_info@@6B@		; CObject `RTTI Type Descriptor'
	DD	00H
	DB	'.?AVCObject@@', 00H
data$rs	ENDS
;	COMDAT ??_7CListCtrl@@6B@
CONST	SEGMENT
??_7CListCtrl@@6B@ DD FLAT:??_R4CListCtrl@@6B@		; CListCtrl::`vftable'
	DD	FLAT:?GetRuntimeClass@CListCtrl@@UBEPAUCRuntimeClass@@XZ
	DD	FLAT:??_ECListCtrl@@UAEPAXI@Z
	DD	FLAT:?Serialize@CObject@@UAEXAAVCArchive@@@Z
	DD	FLAT:?AssertValid@CObject@@UBEXXZ
	DD	FLAT:?Dump@CObject@@UBEXAAVCDumpContext@@@Z
	DD	FLAT:?OnCmdMsg@CCmdTarget@@UAEHIHPAXPAUAFX_CMDHANDLERINFO@@@Z
	DD	FLAT:?OnFinalRelease@CWnd@@UAEXXZ
	DD	FLAT:?IsInvokeAllowed@CCmdTarget@@UAEHJ@Z
	DD	FLAT:?GetDispatchIID@CCmdTarget@@UAEHPAU_GUID@@@Z
	DD	FLAT:?GetTypeInfoCount@CCmdTarget@@UAEIXZ
	DD	FLAT:?GetTypeLibCache@CCmdTarget@@UAEPAVCTypeLibCache@@XZ
	DD	FLAT:?GetTypeLib@CCmdTarget@@UAEJKPAPAUITypeLib@@@Z
	DD	FLAT:?GetMessageMap@CListCtrl@@MBEPBUAFX_MSGMAP@@XZ
	DD	FLAT:?GetCommandMap@CCmdTarget@@MBEPBUAFX_OLECMDMAP@@XZ
	DD	FLAT:?GetDispatchMap@CCmdTarget@@MBEPBUAFX_DISPMAP@@XZ
	DD	FLAT:?GetConnectionMap@CCmdTarget@@MBEPBUAFX_CONNECTIONMAP@@XZ
	DD	FLAT:?GetInterfaceMap@CWnd@@MBEPBUAFX_INTERFACEMAP@@XZ
	DD	FLAT:?GetEventSinkMap@CCmdTarget@@MBEPBUAFX_EVENTSINKMAP@@XZ
	DD	FLAT:?OnCreateAggregates@CCmdTarget@@UAEHXZ
	DD	FLAT:?GetInterfaceHook@CCmdTarget@@UAEPAUIUnknown@@PBX@Z
	DD	FLAT:?GetExtraConnectionPoints@CCmdTarget@@MAEHPAVCPtrArray@@@Z
	DD	FLAT:?GetConnectionHook@CCmdTarget@@MAEPAUIConnectionPoint@@ABU_GUID@@@Z
	DD	FLAT:?PreSubclassWindow@CWnd@@UAEXXZ
	DD	FLAT:?Create@CWnd@@UAEHPBD0KABUtagRECT@@PAV1@IPAUCCreateContext@@@Z
	DD	FLAT:?CreateEx@CWnd@@UAEHKPBD0KABUtagRECT@@PAV1@IPAX@Z
	DD	FLAT:?CreateEx@CWnd@@UAEHKPBD0KHHHHPAUHWND__@@PAUHMENU__@@PAX@Z
	DD	FLAT:?DestroyWindow@CWnd@@UAEHXZ
	DD	FLAT:?PreCreateWindow@CWnd@@UAEHAAUtagCREATESTRUCTA@@@Z
	DD	FLAT:?CalcWindowRect@CWnd@@UAEXPAUtagRECT@@I@Z
	DD	FLAT:?GetMenu@CWnd@@UBEPAVCMenu@@XZ
	DD	FLAT:?SetMenu@CWnd@@UAEHPAVCMenu@@@Z
	DD	FLAT:?OnToolHitTest@CWnd@@UBEHVCPoint@@PAUtagTOOLINFOA@@@Z
	DD	FLAT:?GetScrollBarCtrl@CWnd@@UBEPAVCScrollBar@@H@Z
	DD	FLAT:?WinHelpA@CWnd@@UAEXKI@Z
	DD	FLAT:?HtmlHelpA@CWnd@@UAEXKI@Z
	DD	FLAT:?WinHelpInternal@CWnd@@UAEXKI@Z
	DD	FLAT:?ContinueModal@CWnd@@UAEHXZ
	DD	FLAT:?EndModalLoop@CWnd@@UAEXH@Z
	DD	FLAT:?OnDrawIconicThumbnailOrLivePreview@CWnd@@UAEXAAVCDC@@VCRect@@VCSize@@HAAH@Z
	DD	FLAT:?EnsureStdObj@CWnd@@UAEJXZ
	DD	FLAT:?get_accParent@CWnd@@UAEJPAPAUIDispatch@@@Z
	DD	FLAT:?get_accChildCount@CWnd@@UAEJPAJ@Z
	DD	FLAT:?get_accChild@CWnd@@UAEJUtagVARIANT@@PAPAUIDispatch@@@Z
	DD	FLAT:?get_accName@CWnd@@UAEJUtagVARIANT@@PAPA_W@Z
	DD	FLAT:?get_accValue@CWnd@@UAEJUtagVARIANT@@PAPA_W@Z
	DD	FLAT:?get_accDescription@CWnd@@UAEJUtagVARIANT@@PAPA_W@Z
	DD	FLAT:?get_accRole@CWnd@@UAEJUtagVARIANT@@PAU2@@Z
	DD	FLAT:?get_accState@CWnd@@UAEJUtagVARIANT@@PAU2@@Z
	DD	FLAT:?get_accHelp@CWnd@@UAEJUtagVARIANT@@PAPA_W@Z
	DD	FLAT:?get_accHelpTopic@CWnd@@UAEJPAPA_WUtagVARIANT@@PAJ@Z
	DD	FLAT:?get_accKeyboardShortcut@CWnd@@UAEJUtagVARIANT@@PAPA_W@Z
	DD	FLAT:?get_accFocus@CWnd@@UAEJPAUtagVARIANT@@@Z
	DD	FLAT:?get_accSelection@CWnd@@UAEJPAUtagVARIANT@@@Z
	DD	FLAT:?get_accDefaultAction@CWnd@@UAEJUtagVARIANT@@PAPA_W@Z
	DD	FLAT:?accSelect@CWnd@@UAEJJUtagVARIANT@@@Z
	DD	FLAT:?accLocation@CWnd@@UAEJPAJ000UtagVARIANT@@@Z
	DD	FLAT:?accNavigate@CWnd@@UAEJJUtagVARIANT@@PAU2@@Z
	DD	FLAT:?accHitTest@CWnd@@UAEJJJPAUtagVARIANT@@@Z
	DD	FLAT:?accDoDefaultAction@CWnd@@UAEJUtagVARIANT@@@Z
	DD	FLAT:?put_accName@CWnd@@UAEJUtagVARIANT@@PA_W@Z
	DD	FLAT:?put_accValue@CWnd@@UAEJUtagVARIANT@@PA_W@Z
	DD	FLAT:?SetProxy@CWnd@@UAEJPAUIAccessibleProxy@@@Z
	DD	FLAT:?CreateAccessibleProxy@CWnd@@UAEJIJPAJ@Z
	DD	FLAT:?OnCommand@CWnd@@MAEHIJ@Z
	DD	FLAT:?OnNotify@CWnd@@MAEHIJPAJ@Z
	DD	FLAT:?GetSuperWndProcAddr@CWnd@@MAEPAP6GJPAUHWND__@@IIJ@ZXZ
	DD	FLAT:?DoDataExchange@CWnd@@MAEXPAVCDataExchange@@@Z
	DD	FLAT:?BeginModalState@CWnd@@UAEXXZ
	DD	FLAT:?EndModalState@CWnd@@UAEXXZ
	DD	FLAT:?PreTranslateMessage@CWnd@@UAEHPAUtagMSG@@@Z
	DD	FLAT:?OnAmbientProperty@CWnd@@UAEHPAVCOleControlSite@@JPAUtagVARIANT@@@Z
	DD	FLAT:?WindowProc@CWnd@@MAEJIIJ@Z
	DD	FLAT:?OnWndMsg@CWnd@@MAEHIIJPAJ@Z
	DD	FLAT:?DefWindowProcA@CWnd@@MAEJIIJ@Z
	DD	FLAT:?PostNcDestroy@CWnd@@MAEXXZ
	DD	FLAT:?OnChildNotify@CListCtrl@@MAEHIIJPAJ@Z
	DD	FLAT:?OnTouchInputs@CWnd@@MAEHIPAUtagTOUCHINPUT@@@Z
	DD	FLAT:?OnTouchInput@CWnd@@MAEHVCPoint@@HHPAUtagTOUCHINPUT@@@Z
	DD	FLAT:?GetGestureStatus@CWnd@@MAEKVCPoint@@@Z
	DD	FLAT:?OnGestureZoom@CWnd@@MAEHVCPoint@@J@Z
	DD	FLAT:?OnGesturePan@CWnd@@MAEHVCPoint@@0@Z
	DD	FLAT:?OnGestureRotate@CWnd@@MAEHVCPoint@@N@Z
	DD	FLAT:?OnGestureTwoFingerTap@CWnd@@MAEHVCPoint@@@Z
	DD	FLAT:?OnGesturePressAndTap@CWnd@@MAEHVCPoint@@J@Z
	DD	FLAT:?ResizeDynamicLayout@CWnd@@MAEXXZ
	DD	FLAT:?CheckAutoCenter@CWnd@@UAEHXZ
	DD	FLAT:?IsFrameWnd@CWnd@@UBEHXZ
	DD	FLAT:?CreateControlContainer@CWnd@@MAEHPAPAVCOleControlContainer@@@Z
	DD	FLAT:?CreateControlSite@CWnd@@MAEHPAVCOleControlContainer@@PAPAVCOleControlSite@@IABU_GUID@@@Z
	DD	FLAT:?SetOccDialogInfo@CWnd@@MAEHPAU_AFX_OCC_DIALOG_INFO@@@Z
	DD	FLAT:?GetOccDialogInfo@CWnd@@MAEPAU_AFX_OCC_DIALOG_INFO@@XZ
	DD	FLAT:?DrawItem@CListCtrl@@UAEXPAUtagDRAWITEMSTRUCT@@@Z
CONST	ENDS
;	COMDAT ??_C@_00CNPNBAHC@@
CONST	SEGMENT
??_C@_00CNPNBAHC@@ DB 00H				; `string'
CONST	ENDS
;	COMDAT xdata$x
xdata$x	SEGMENT
__unwindtable$?SortArray@@YAXAAV?$CArray@PAU__MASTERCODE@@PAU1@@@@Z DD 0ffffffffH
	DD	FLAT:___std_terminate
__ehfuncinfo$?SortArray@@YAXAAV?$CArray@PAU__MASTERCODE@@PAU1@@@@Z DD 019930522H
	DD	01H
	DD	FLAT:__unwindtable$?SortArray@@YAXAAV?$CArray@PAU__MASTERCODE@@PAU1@@@@Z
	DD	2 DUP(00H)
	DD	2 DUP(00H)
	DD	00H
	DD	01H
xdata$x	ENDS
;	COMDAT xdata$x
xdata$x	SEGMENT
__unwindtable$?Compare@@YAHPBX0@Z DD 0ffffffffH
	DD	FLAT:__unwindfunclet$?Compare@@YAHPBX0@Z$0
	DD	00H
	DD	FLAT:__unwindfunclet$?Compare@@YAHPBX0@Z$1
__ehfuncinfo$?Compare@@YAHPBX0@Z DD 019930522H
	DD	02H
	DD	FLAT:__unwindtable$?Compare@@YAHPBX0@Z
	DD	2 DUP(00H)
	DD	2 DUP(00H)
	DD	00H
	DD	01H
xdata$x	ENDS
;	COMDAT xdata$x
xdata$x	SEGMENT
__ehfuncinfo$?OnDblclk@CVirtualListCtrl@@IAEXPAUtagNMHDR@@PAJ@Z DD 019930522H
	DD	06H
	DD	FLAT:__unwindtable$?OnDblclk@CVirtualListCtrl@@IAEXPAUtagNMHDR@@PAJ@Z
	DD	2 DUP(00H)
	DD	2 DUP(00H)
	DD	00H
	DD	01H
__unwindtable$?OnDblclk@CVirtualListCtrl@@IAEXPAUtagNMHDR@@PAJ@Z DD 0ffffffffH
	DD	FLAT:__unwindfunclet$?OnDblclk@CVirtualListCtrl@@IAEXPAUtagNMHDR@@PAJ@Z$0
	DD	00H
	DD	FLAT:__unwindfunclet$?OnDblclk@CVirtualListCtrl@@IAEXPAUtagNMHDR@@PAJ@Z$1
	DD	01H
	DD	FLAT:__unwindfunclet$?OnDblclk@CVirtualListCtrl@@IAEXPAUtagNMHDR@@PAJ@Z$2
	DD	01H
	DD	FLAT:__unwindfunclet$?OnDblclk@CVirtualListCtrl@@IAEXPAUtagNMHDR@@PAJ@Z$3
	DD	01H
	DD	FLAT:__unwindfunclet$?OnDblclk@CVirtualListCtrl@@IAEXPAUtagNMHDR@@PAJ@Z$6
	DD	04H
	DD	FLAT:__unwindfunclet$?OnDblclk@CVirtualListCtrl@@IAEXPAUtagNMHDR@@PAJ@Z$7
xdata$x	ENDS
;	COMDAT xdata$x
xdata$x	SEGMENT
__ehfuncinfo$?OnItemchanged@CVirtualListCtrl@@IAEXPAUtagNMHDR@@PAJ@Z DD 019930522H
	DD	06H
	DD	FLAT:__unwindtable$?OnItemchanged@CVirtualListCtrl@@IAEXPAUtagNMHDR@@PAJ@Z
	DD	2 DUP(00H)
	DD	2 DUP(00H)
	DD	00H
	DD	01H
__unwindtable$?OnItemchanged@CVirtualListCtrl@@IAEXPAUtagNMHDR@@PAJ@Z DD 0ffffffffH
	DD	FLAT:__unwindfunclet$?OnItemchanged@CVirtualListCtrl@@IAEXPAUtagNMHDR@@PAJ@Z$0
	DD	00H
	DD	FLAT:__unwindfunclet$?OnItemchanged@CVirtualListCtrl@@IAEXPAUtagNMHDR@@PAJ@Z$1
	DD	01H
	DD	FLAT:__unwindfunclet$?OnItemchanged@CVirtualListCtrl@@IAEXPAUtagNMHDR@@PAJ@Z$2
	DD	01H
	DD	FLAT:__unwindfunclet$?OnItemchanged@CVirtualListCtrl@@IAEXPAUtagNMHDR@@PAJ@Z$3
	DD	01H
	DD	FLAT:__unwindfunclet$?OnItemchanged@CVirtualListCtrl@@IAEXPAUtagNMHDR@@PAJ@Z$6
	DD	04H
	DD	FLAT:__unwindfunclet$?OnItemchanged@CVirtualListCtrl@@IAEXPAUtagNMHDR@@PAJ@Z$7
xdata$x	ENDS
;	COMDAT xdata$x
xdata$x	SEGMENT
__unwindtable$?OnGetdispinfo@CVirtualListCtrl@@IAEXPAUtagNMHDR@@PAJ@Z DD 0ffffffffH
	DD	FLAT:__unwindfunclet$?OnGetdispinfo@CVirtualListCtrl@@IAEXPAUtagNMHDR@@PAJ@Z$0
__ehfuncinfo$?OnGetdispinfo@CVirtualListCtrl@@IAEXPAUtagNMHDR@@PAJ@Z DD 019930522H
	DD	01H
	DD	FLAT:__unwindtable$?OnGetdispinfo@CVirtualListCtrl@@IAEXPAUtagNMHDR@@PAJ@Z
	DD	2 DUP(00H)
	DD	2 DUP(00H)
	DD	00H
	DD	01H
xdata$x	ENDS
;	COMDAT xdata$x
xdata$x	SEGMENT
__unwindtable$?FindItemByString@CVirtualListCtrl@@QAEHHV?$CStringT@DV?$StrTraitMFC_DLL@DV?$ChTraitsCRT@D@ATL@@@@@ATL@@@Z DD 0ffffffffH
	DD	FLAT:__unwindfunclet$?FindItemByString@CVirtualListCtrl@@QAEHHV?$CStringT@DV?$StrTraitMFC_DLL@DV?$ChTraitsCRT@D@ATL@@@@@ATL@@@Z$0
	DD	00H
	DD	FLAT:__unwindfunclet$?FindItemByString@CVirtualListCtrl@@QAEHHV?$CStringT@DV?$StrTraitMFC_DLL@DV?$ChTraitsCRT@D@ATL@@@@@ATL@@@Z$1
	DD	01H
	DD	FLAT:__unwindfunclet$?FindItemByString@CVirtualListCtrl@@QAEHHV?$CStringT@DV?$StrTraitMFC_DLL@DV?$ChTraitsCRT@D@ATL@@@@@ATL@@@Z$2
__ehfuncinfo$?FindItemByString@CVirtualListCtrl@@QAEHHV?$CStringT@DV?$StrTraitMFC_DLL@DV?$ChTraitsCRT@D@ATL@@@@@ATL@@@Z DD 019930522H
	DD	03H
	DD	FLAT:__unwindtable$?FindItemByString@CVirtualListCtrl@@QAEHHV?$CStringT@DV?$StrTraitMFC_DLL@DV?$ChTraitsCRT@D@ATL@@@@@ATL@@@Z
	DD	2 DUP(00H)
	DD	2 DUP(00H)
	DD	00H
	DD	01H
xdata$x	ENDS
;	COMDAT xdata$x
xdata$x	SEGMENT
__unwindtable$?Init_ListCtrl@CVirtualListCtrl@@QAEXXZ DD 0ffffffffH
	DD	FLAT:__unwindfunclet$?Init_ListCtrl@CVirtualListCtrl@@QAEXXZ$0
__ehfuncinfo$?Init_ListCtrl@CVirtualListCtrl@@QAEXXZ DD 019930522H
	DD	01H
	DD	FLAT:__unwindtable$?Init_ListCtrl@CVirtualListCtrl@@QAEXXZ
	DD	2 DUP(00H)
	DD	2 DUP(00H)
	DD	00H
	DD	01H
xdata$x	ENDS
;	COMDAT xdata$x
xdata$x	SEGMENT
__ehfuncinfo$?ChangeCode@CVirtualListCtrl@@QAEXV?$CStringT@DV?$StrTraitMFC_DLL@DV?$ChTraitsCRT@D@ATL@@@@@ATL@@@Z DD 019930522H
	DD	0bH
	DD	FLAT:__unwindtable$?ChangeCode@CVirtualListCtrl@@QAEXV?$CStringT@DV?$StrTraitMFC_DLL@DV?$ChTraitsCRT@D@ATL@@@@@ATL@@@Z
	DD	2 DUP(00H)
	DD	2 DUP(00H)
	DD	00H
	DD	01H
__unwindtable$?ChangeCode@CVirtualListCtrl@@QAEXV?$CStringT@DV?$StrTraitMFC_DLL@DV?$ChTraitsCRT@D@ATL@@@@@ATL@@@Z DD 0ffffffffH
	DD	FLAT:__unwindfunclet$?ChangeCode@CVirtualListCtrl@@QAEXV?$CStringT@DV?$StrTraitMFC_DLL@DV?$ChTraitsCRT@D@ATL@@@@@ATL@@@Z$0
	DD	00H
	DD	FLAT:__unwindfunclet$?ChangeCode@CVirtualListCtrl@@QAEXV?$CStringT@DV?$StrTraitMFC_DLL@DV?$ChTraitsCRT@D@ATL@@@@@ATL@@@Z$10
	DD	01H
	DD	FLAT:__unwindfunclet$?ChangeCode@CVirtualListCtrl@@QAEXV?$CStringT@DV?$StrTraitMFC_DLL@DV?$ChTraitsCRT@D@ATL@@@@@ATL@@@Z$11
	DD	02H
	DD	FLAT:__unwindfunclet$?ChangeCode@CVirtualListCtrl@@QAEXV?$CStringT@DV?$StrTraitMFC_DLL@DV?$ChTraitsCRT@D@ATL@@@@@ATL@@@Z$12
	DD	00H
	DD	FLAT:__unwindfunclet$?ChangeCode@CVirtualListCtrl@@QAEXV?$CStringT@DV?$StrTraitMFC_DLL@DV?$ChTraitsCRT@D@ATL@@@@@ATL@@@Z$3
	DD	00H
	DD	FLAT:__unwindfunclet$?ChangeCode@CVirtualListCtrl@@QAEXV?$CStringT@DV?$StrTraitMFC_DLL@DV?$ChTraitsCRT@D@ATL@@@@@ATL@@@Z$4
	DD	05H
	DD	FLAT:__unwindfunclet$?ChangeCode@CVirtualListCtrl@@QAEXV?$CStringT@DV?$StrTraitMFC_DLL@DV?$ChTraitsCRT@D@ATL@@@@@ATL@@@Z$5
	DD	06H
	DD	FLAT:__unwindfunclet$?ChangeCode@CVirtualListCtrl@@QAEXV?$CStringT@DV?$StrTraitMFC_DLL@DV?$ChTraitsCRT@D@ATL@@@@@ATL@@@Z$6
	DD	06H
	DD	FLAT:__unwindfunclet$?ChangeCode@CVirtualListCtrl@@QAEXV?$CStringT@DV?$StrTraitMFC_DLL@DV?$ChTraitsCRT@D@ATL@@@@@ATL@@@Z$7
	DD	06H
	DD	FLAT:__unwindfunclet$?ChangeCode@CVirtualListCtrl@@QAEXV?$CStringT@DV?$StrTraitMFC_DLL@DV?$ChTraitsCRT@D@ATL@@@@@ATL@@@Z$13
	DD	09H
	DD	FLAT:__unwindfunclet$?ChangeCode@CVirtualListCtrl@@QAEXV?$CStringT@DV?$StrTraitMFC_DLL@DV?$ChTraitsCRT@D@ATL@@@@@ATL@@@Z$14
xdata$x	ENDS
;	COMDAT xdata$x
xdata$x	SEGMENT
__ehfuncinfo$??0CVirtualListCtrl@@QAE@XZ DD 019930522H
	DD	0bH
	DD	FLAT:__unwindtable$??0CVirtualListCtrl@@QAE@XZ
	DD	2 DUP(00H)
	DD	2 DUP(00H)
	DD	00H
	DD	01H
__unwindtable$??0CVirtualListCtrl@@QAE@XZ DD 0ffffffffH
	DD	FLAT:__unwindfunclet$??0CVirtualListCtrl@@QAE@XZ$0
	DD	00H
	DD	FLAT:__unwindfunclet$??0CVirtualListCtrl@@QAE@XZ$1
	DD	01H
	DD	FLAT:__unwindfunclet$??0CVirtualListCtrl@@QAE@XZ$2
	DD	02H
	DD	FLAT:__unwindfunclet$??0CVirtualListCtrl@@QAE@XZ$3
	DD	03H
	DD	FLAT:__unwindfunclet$??0CVirtualListCtrl@@QAE@XZ$4
	DD	04H
	DD	FLAT:__unwindfunclet$??0CVirtualListCtrl@@QAE@XZ$5
	DD	05H
	DD	FLAT:__unwindfunclet$??0CVirtualListCtrl@@QAE@XZ$6
	DD	06H
	DD	FLAT:__unwindfunclet$??0CVirtualListCtrl@@QAE@XZ$7
	DD	07H
	DD	FLAT:__unwindfunclet$??0CVirtualListCtrl@@QAE@XZ$8
	DD	08H
	DD	FLAT:__unwindfunclet$??0CVirtualListCtrl@@QAE@XZ$9
	DD	09H
	DD	FLAT:__unwindfunclet$??0CVirtualListCtrl@@QAE@XZ$10
xdata$x	ENDS
;	COMDAT xdata$x
xdata$x	SEGMENT
__ehfuncinfo$??_E__MASTERCODE@@QAEPAXI@Z DD 019930522H
	DD	00H
	DD	00H
	DD	2 DUP(00H)
	DD	2 DUP(00H)
	DD	00H
	DD	05H
xdata$x	ENDS
;	COMDAT xdata$x
xdata$x	SEGMENT
__unwindtable$??HATL@@YA?AV?$CStringT@DV?$StrTraitMFC_DLL@DV?$ChTraitsCRT@D@ATL@@@@@0@ABV10@PBD@Z DD 0ffffffffH
	DD	FLAT:__unwindfunclet$??HATL@@YA?AV?$CStringT@DV?$StrTraitMFC_DLL@DV?$ChTraitsCRT@D@ATL@@@@@0@ABV10@PBD@Z$0
__ehfuncinfo$??HATL@@YA?AV?$CStringT@DV?$StrTraitMFC_DLL@DV?$ChTraitsCRT@D@ATL@@@@@0@ABV10@PBD@Z DD 019930522H
	DD	01H
	DD	FLAT:__unwindtable$??HATL@@YA?AV?$CStringT@DV?$StrTraitMFC_DLL@DV?$ChTraitsCRT@D@ATL@@@@@0@ABV10@PBD@Z
	DD	2 DUP(00H)
	DD	2 DUP(00H)
	DD	00H
	DD	01H
xdata$x	ENDS
;	COMDAT xdata$x
xdata$x	SEGMENT
__unwindtable$??HATL@@YA?AV?$CStringT@DV?$StrTraitMFC_DLL@DV?$ChTraitsCRT@D@ATL@@@@@0@ABV10@0@Z DD 0ffffffffH
	DD	FLAT:__unwindfunclet$??HATL@@YA?AV?$CStringT@DV?$StrTraitMFC_DLL@DV?$ChTraitsCRT@D@ATL@@@@@0@ABV10@0@Z$0
__ehfuncinfo$??HATL@@YA?AV?$CStringT@DV?$StrTraitMFC_DLL@DV?$ChTraitsCRT@D@ATL@@@@@0@ABV10@0@Z DD 019930522H
	DD	01H
	DD	FLAT:__unwindtable$??HATL@@YA?AV?$CStringT@DV?$StrTraitMFC_DLL@DV?$ChTraitsCRT@D@ATL@@@@@0@ABV10@0@Z
	DD	2 DUP(00H)
	DD	2 DUP(00H)
	DD	00H
	DD	01H
xdata$x	ENDS
CRT$XCU	SEGMENT
?RMSG_CHARTMAIN$initializer$@@3P6AXXZA DD FLAT:??__ERMSG_CHARTMAIN@@YAXXZ ; RMSG_CHARTMAIN$initializer$
CRT$XCU	ENDS
CRT$XCU	SEGMENT
?RMS_ANALYSIS_FUNC$initializer$@@3P6AXXZA DD FLAT:??__ERMS_ANALYSIS_FUNC@@YAXXZ ; RMS_ANALYSIS_FUNC$initializer$
CRT$XCU	ENDS
CRT$XCU	SEGMENT
?RMSG_GET_USERID$initializer$@@3P6AXXZA DD FLAT:??__ERMSG_GET_USERID@@YAXXZ ; RMSG_GET_USERID$initializer$
CRT$XCU	ENDS
CRT$XCU	SEGMENT
?RMSG_KSDLLINFO$initializer$@@3P6AXXZA DD FLAT:??__ERMSG_KSDLLINFO@@YAXXZ ; RMSG_KSDLLINFO$initializer$
CRT$XCU	ENDS
CRT$XCU	SEGMENT
?RMSG_GETINFO$initializer$@@3P6AXXZA DD FLAT:??__ERMSG_GETINFO@@YAXXZ ; RMSG_GETINFO$initializer$
CRT$XCU	ENDS
CRT$XCU	SEGMENT
?RMSG_CHANGE_SKINCOLOR$initializer$@@3P6AXXZA DD FLAT:??__ERMSG_CHANGE_SKINCOLOR@@YAXXZ ; RMSG_CHANGE_SKINCOLOR$initializer$
CRT$XCU	ENDS
CRT$XCU	SEGMENT
?RMSG_GET_SKINCOLOR$initializer$@@3P6AXXZA DD FLAT:??__ERMSG_GET_SKINCOLOR@@YAXXZ ; RMSG_GET_SKINCOLOR$initializer$
CRT$XCU	ENDS
CRT$XCU	SEGMENT
?RMSG_CHANGE_CROSSLINE$initializer$@@3P6AXXZA DD FLAT:??__ERMSG_CHANGE_CROSSLINE@@YAXXZ ; RMSG_CHANGE_CROSSLINE$initializer$
CRT$XCU	ENDS
; Function compile flags: /Ogtp
; File C:\Program Files (x86)\Microsoft Visual Studio\2019\Community\VC\Tools\MSVC\14.29.30133\atlmfc\include\afxtempl.h
; File C:\Program Files (x86)\Microsoft Visual Studio\2019\Community\VC\Tools\MSVC\14.29.30133\atlmfc\include\afx.inl
; File C:\Program Files (x86)\Microsoft Visual Studio\2019\Community\VC\Tools\MSVC\14.29.30133\atlmfc\include\afxtempl.h
; File C:\Program Files (x86)\Microsoft Visual Studio\2019\Community\VC\Tools\MSVC\14.29.30133\atlmfc\include\afx.inl
; File C:\Program Files (x86)\Microsoft Visual Studio\2019\Community\VC\Tools\MSVC\14.29.30133\atlmfc\include\afxtempl.h
; File C:\Program Files (x86)\Microsoft Visual Studio\2019\Community\VC\Tools\MSVC\14.29.30133\atlmfc\include\afx.inl
; File C:\Program Files (x86)\Microsoft Visual Studio\2019\Community\VC\Tools\MSVC\14.29.30133\atlmfc\include\afxtempl.h
;	COMDAT ??$SerializeElements@PAU__MASTERCODE@@@@YGXAAVCArchive@@PAPAU__MASTERCODE@@H@Z
_TEXT	SEGMENT
_ar$ = 8						; size = 4
_pElements$ = 12					; size = 4
_nCount$ = 16						; size = 4
??$SerializeElements@PAU__MASTERCODE@@@@YGXAAVCArchive@@PAPAU__MASTERCODE@@H@Z PROC ; SerializeElements<__MASTERCODE *>, COMDAT

; 67   : {

  00000	55		 push	 ebp
  00001	8b ec		 mov	 ebp, esp

; 68   : 	ENSURE(nCount == 0 || pElements != NULL);

  00003	8b 4d 0c	 mov	 ecx, DWORD PTR _pElements$[ebp]
  00006	53		 push	 ebx
  00007	56		 push	 esi
  00008	8b 75 10	 mov	 esi, DWORD PTR _nCount$[ebp]
  0000b	57		 push	 edi
  0000c	85 f6		 test	 esi, esi
  0000e	74 08		 je	 SHORT $LN2@SerializeE
  00010	85 c9		 test	 ecx, ecx
  00012	0f 84 89 00 00
	00		 je	 $LN34@SerializeE
$LN2@SerializeE:
; File C:\Program Files (x86)\Microsoft Visual Studio\2019\Community\VC\Tools\MSVC\14.29.30133\atlmfc\include\afx.inl

; 212  : 	{ return (m_nMode & CArchive::load) == 0; }

  00018	8b 55 08	 mov	 edx, DWORD PTR _ar$[ebp]
  0001b	8b 42 18	 mov	 eax, DWORD PTR [edx+24]
  0001e	f7 d0		 not	 eax
  00020	a8 01		 test	 al, 1
; File C:\Program Files (x86)\Microsoft Visual Studio\2019\Community\VC\Tools\MSVC\14.29.30133\atlmfc\include\afxtempl.h

; 73   : 	if (ar.IsStoring())

  00022	74 3c		 je	 SHORT $LN10@SerializeE

; 74   : 	{
; 75   : 		TYPE* pData;
; 76   : 		UINT_PTR nElementsLeft;
; 77   : 
; 78   : 		nElementsLeft = nCount;
; 79   : 		pData = pElements;
; 80   : 		while( nElementsLeft > 0 )

  00024	85 f6		 test	 esi, esi
  00026	74 31		 je	 SHORT $LN8@SerializeE
  00028	0f 1f 84 00 00
	00 00 00	 npad	 8
$LL5@SerializeE:

; 81   : 		{
; 82   : 			UINT nElementsToWrite;
; 83   : 
; 84   : 			nElementsToWrite = UINT(__min(nElementsLeft, INT_MAX/sizeof(TYPE)));

  00030	bb ff ff ff 1f	 mov	 ebx, 536870911		; 1fffffffH
  00035	3b f3		 cmp	 esi, ebx
  00037	0f 42 de	 cmovb	 ebx, esi

; 85   : 			ar.Write(pData, nElementsToWrite*sizeof(TYPE));

  0003a	8d 3c 9d 00 00
	00 00		 lea	 edi, DWORD PTR [ebx*4]
  00041	57		 push	 edi
  00042	51		 push	 ecx
  00043	8b ca		 mov	 ecx, edx
  00045	e8 00 00 00 00	 call	 ?Write@CArchive@@QAEXPBXI@Z ; CArchive::Write

; 86   : 			nElementsLeft -= nElementsToWrite;
; 87   : 			pData += nElementsToWrite;

  0004a	8b 4d 0c	 mov	 ecx, DWORD PTR _pElements$[ebp]
  0004d	8b 55 08	 mov	 edx, DWORD PTR _ar$[ebp]
  00050	03 cf		 add	 ecx, edi
  00052	89 4d 0c	 mov	 DWORD PTR _pElements$[ebp], ecx
  00055	2b f3		 sub	 esi, ebx
  00057	75 d7		 jne	 SHORT $LL5@SerializeE
$LN8@SerializeE:
  00059	5f		 pop	 edi

; 105  : 		}
; 106  : 	}
; 107  : }

  0005a	5e		 pop	 esi
  0005b	5b		 pop	 ebx
  0005c	5d		 pop	 ebp
  0005d	c2 0c 00	 ret	 12			; 0000000cH
$LN10@SerializeE:

; 97   : 		while( nElementsLeft > 0 )

  00060	85 f6		 test	 esi, esi
  00062	74 f5		 je	 SHORT $LN8@SerializeE
$LL7@SerializeE:

; 98   : 		{
; 99   : 			UINT nElementsToRead;
; 100  : 
; 101  : 			nElementsToRead = UINT(__min(nElementsLeft, INT_MAX/sizeof(TYPE)));

  00064	bf ff ff ff 1f	 mov	 edi, 536870911		; 1fffffffH
  00069	3b f7		 cmp	 esi, edi
  0006b	0f 42 fe	 cmovb	 edi, esi

; 102  : 			ar.EnsureRead(pData, nElementsToRead*sizeof(TYPE));

  0006e	8d 1c bd 00 00
	00 00		 lea	 ebx, DWORD PTR [edi*4]
; File C:\Program Files (x86)\Microsoft Visual Studio\2019\Community\VC\Tools\MSVC\14.29.30133\atlmfc\include\afx.inl

; 399  : 	UINT nRead=Read(lpBuf, nCount);

  00075	53		 push	 ebx
  00076	51		 push	 ecx
  00077	8b ca		 mov	 ecx, edx
  00079	e8 00 00 00 00	 call	 ?Read@CArchive@@QAEIPAXI@Z ; CArchive::Read

; 400  : 	if(nRead!=nCount)

  0007e	3b c3		 cmp	 eax, ebx
  00080	75 16		 jne	 SHORT $LN23@SerializeE
; File C:\Program Files (x86)\Microsoft Visual Studio\2019\Community\VC\Tools\MSVC\14.29.30133\atlmfc\include\afxtempl.h

; 97   : 		while( nElementsLeft > 0 )

  00082	8b 4d 0c	 mov	 ecx, DWORD PTR _pElements$[ebp]
  00085	8b 55 08	 mov	 edx, DWORD PTR _ar$[ebp]

; 103  : 			nElementsLeft -= nElementsToRead;
; 104  : 			pData += nElementsToRead;

  00088	03 cb		 add	 ecx, ebx
  0008a	89 4d 0c	 mov	 DWORD PTR _pElements$[ebp], ecx
  0008d	2b f7		 sub	 esi, edi
  0008f	75 d3		 jne	 SHORT $LL7@SerializeE

; 105  : 		}
; 106  : 	}
; 107  : }

  00091	5f		 pop	 edi
  00092	5e		 pop	 esi
  00093	5b		 pop	 ebx
  00094	5d		 pop	 ebp
  00095	c2 0c 00	 ret	 12			; 0000000cH
$LN23@SerializeE:
; File C:\Program Files (x86)\Microsoft Visual Studio\2019\Community\VC\Tools\MSVC\14.29.30133\atlmfc\include\afx.inl

; 402  : 		AfxThrowArchiveException(CArchiveException::endOfFile);

  00098	6a 00		 push	 0
  0009a	6a 03		 push	 3
  0009c	e8 00 00 00 00	 call	 ?AfxThrowArchiveException@@YGXHPBD@Z ; AfxThrowArchiveException
$LN34@SerializeE:
; File C:\Program Files (x86)\Microsoft Visual Studio\2019\Community\VC\Tools\MSVC\14.29.30133\atlmfc\include\afxtempl.h

; 68   : 	ENSURE(nCount == 0 || pElements != NULL);

  000a1	e8 00 00 00 00	 call	 ?AfxThrowInvalidArgException@@YGXXZ ; AfxThrowInvalidArgException
$LN32@SerializeE:
  000a6	cc		 int	 3
??$SerializeElements@PAU__MASTERCODE@@@@YGXAAVCArchive@@PAPAU__MASTERCODE@@H@Z ENDP ; SerializeElements<__MASTERCODE *>
_TEXT	ENDS
; Function compile flags: /Ogtp
; File D:\git\src\IBK\IBK_DRFN\ProjSrc\SrcDrfn\Chart\comparechart\control\VirtualListCtrl.cpp
; File C:\Program Files (x86)\Microsoft Visual Studio\2019\Community\VC\Tools\MSVC\14.29.30133\atlmfc\include\afxtempl.h
; File D:\git\src\IBK\IBK_DRFN\ProjSrc\SrcDrfn\Chart\comparechart\control\VirtualListCtrl.cpp
; File C:\Program Files (x86)\Microsoft Visual Studio\2019\Community\VC\Tools\MSVC\14.29.30133\atlmfc\include\afxtempl.h
; File D:\git\src\IBK\IBK_DRFN\ProjSrc\SrcDrfn\Chart\comparechart\control\VirtualListCtrl.cpp
; File C:\Program Files (x86)\Microsoft Visual Studio\2019\Community\VC\Tools\MSVC\14.29.30133\atlmfc\include\afxtempl.h
; File D:\git\src\IBK\IBK_DRFN\ProjSrc\SrcDrfn\Chart\comparechart\control\VirtualListCtrl.cpp
; File C:\Program Files (x86)\Microsoft Visual Studio\2019\Community\VC\Tools\MSVC\14.29.30133\atlmfc\include\afxtempl.h
; File D:\git\src\IBK\IBK_DRFN\ProjSrc\SrcDrfn\Chart\comparechart\control\VirtualListCtrl.cpp
; File C:\Program Files (x86)\Microsoft Visual Studio\2019\Community\VC\Tools\MSVC\14.29.30133\atlmfc\include\afxtempl.h
; File D:\git\src\IBK\IBK_DRFN\ProjSrc\SrcDrfn\Chart\comparechart\control\VirtualListCtrl.cpp
; File C:\Program Files (x86)\Microsoft Visual Studio\2019\Community\VC\Tools\MSVC\14.29.30133\atlmfc\include\afxtempl.h
; File D:\git\src\IBK\IBK_DRFN\ProjSrc\SrcDrfn\Chart\comparechart\control\VirtualListCtrl.cpp
; File C:\Program Files (x86)\Microsoft Visual Studio\2019\Community\VC\Tools\MSVC\14.29.30133\atlmfc\include\afxtempl.h
; File D:\git\src\IBK\IBK_DRFN\ProjSrc\SrcDrfn\Chart\comparechart\control\VirtualListCtrl.cpp
; File C:\Program Files (x86)\Microsoft Visual Studio\2019\Community\VC\Tools\MSVC\14.29.30133\atlmfc\include\afxtempl.h
; File D:\git\src\IBK\IBK_DRFN\ProjSrc\SrcDrfn\Chart\comparechart\control\VirtualListCtrl.cpp
;	COMDAT ?SortArray@@YAXAAV?$CArray@PAU__MASTERCODE@@PAU1@@@@Z
_TEXT	SEGMENT
_nIndex$1$ = -24					; size = 4
_nTotal$1$ = -20					; size = 4
tv707 = -16						; size = 4
_i$3$ = -16						; size = 4
__$EHRec$ = -12						; size = 12
_pstrSave$1$ = 8					; size = 4
_astrSort$ = 8						; size = 4
?SortArray@@YAXAAV?$CArray@PAU__MASTERCODE@@PAU1@@@@Z PROC ; SortArray, COMDAT

; 133  : {

  00000	55		 push	 ebp
  00001	8b ec		 mov	 ebp, esp
  00003	6a ff		 push	 -1
  00005	68 00 00 00 00	 push	 __ehhandler$?SortArray@@YAXAAV?$CArray@PAU__MASTERCODE@@PAU1@@@@Z
  0000a	64 a1 00 00 00
	00		 mov	 eax, DWORD PTR fs:0
  00010	50		 push	 eax
  00011	83 ec 0c	 sub	 esp, 12			; 0000000cH
  00014	53		 push	 ebx
  00015	56		 push	 esi
  00016	57		 push	 edi
  00017	a1 00 00 00 00	 mov	 eax, DWORD PTR ___security_cookie
  0001c	33 c5		 xor	 eax, ebp
  0001e	50		 push	 eax
  0001f	8d 45 f4	 lea	 eax, DWORD PTR __$EHRec$[ebp]
  00022	64 a3 00 00 00
	00		 mov	 DWORD PTR fs:0, eax

; 134  :     //CString *pstrSave;
; 135  : 	MASTERCODE* pstrSave; 
; 136  :     int     i, nTotal;
; 137  : 
; 138  :     nTotal   = astrSort.GetSize();

  00028	8b 7d 08	 mov	 edi, DWORD PTR _astrSort$[ebp]

; 139  :     //pstrSave  = new CString[nTotal];
; 140  : 	pstrSave  = new MASTERCODE[nTotal];

  0002b	33 c9		 xor	 ecx, ecx
  0002d	ba 0c 00 00 00	 mov	 edx, 12			; 0000000cH
  00032	8b 77 08	 mov	 esi, DWORD PTR [edi+8]
  00035	8b c6		 mov	 eax, esi
  00037	f7 e2		 mul	 edx
  00039	89 75 ec	 mov	 DWORD PTR _nTotal$1$[ebp], esi
  0003c	0f 90 c1	 seto	 cl
  0003f	f7 d9		 neg	 ecx
  00041	0b c8		 or	 ecx, eax
  00043	33 c0		 xor	 eax, eax
  00045	83 c1 04	 add	 ecx, 4
  00048	0f 92 c0	 setb	 al
  0004b	f7 d8		 neg	 eax
  0004d	0b c1		 or	 eax, ecx
  0004f	50		 push	 eax
  00050	e8 00 00 00 00	 call	 ??_U@YAPAXI@Z		; operator new[]
  00055	83 c4 04	 add	 esp, 4
  00058	85 c0		 test	 eax, eax
  0005a	74 20		 je	 SHORT $LN12@SortArray
  0005c	68 00 00 00 00	 push	 OFFSET ??1__MASTERCODE@@QAE@XZ
  00061	68 00 00 00 00	 push	 OFFSET ??0__MASTERCODE@@QAE@XZ
  00066	56		 push	 esi
  00067	89 30		 mov	 DWORD PTR [eax], esi
  00069	83 c0 04	 add	 eax, 4
  0006c	6a 0c		 push	 12			; 0000000cH
  0006e	50		 push	 eax
  0006f	89 45 08	 mov	 DWORD PTR _pstrSave$1$[ebp], eax
  00072	e8 00 00 00 00	 call	 ??_L@YGXPAXIIP6EX0@Z1@Z
  00077	8b 45 08	 mov	 eax, DWORD PTR _pstrSave$1$[ebp]
  0007a	eb 05		 jmp	 SHORT $LN13@SortArray
$LN12@SortArray:
  0007c	33 c0		 xor	 eax, eax
  0007e	89 45 08	 mov	 DWORD PTR _pstrSave$1$[ebp], eax
$LN13@SortArray:

; 141  :     for(i = 0 ; i < nTotal ; i++)

  00081	33 db		 xor	 ebx, ebx
  00083	85 f6		 test	 esi, esi
  00085	7e 58		 jle	 SHORT $LN3@SortArray
  00087	8d 48 08	 lea	 ecx, DWORD PTR [eax+8]
  0008a	89 4d f0	 mov	 DWORD PTR tv707[ebp], ecx
  0008d	0f 1f 00	 npad	 3
$LL4@SortArray:
; File C:\Program Files (x86)\Microsoft Visual Studio\2019\Community\VC\Tools\MSVC\14.29.30133\atlmfc\include\afxtempl.h

; 288  : 	if(nIndex >= 0 && nIndex < m_nSize)

  00090	85 db		 test	 ebx, ebx
  00092	0f 88 b2 01 00
	00		 js	 $LN118@SortArray
  00098	3b 5f 08	 cmp	 ebx, DWORD PTR [edi+8]
  0009b	0f 8d a9 01 00
	00		 jge	 $LN118@SortArray

; 289  : 		return m_pData[nIndex];

  000a1	8b 47 04	 mov	 eax, DWORD PTR [edi+4]
; File D:\git\src\IBK\IBK_DRFN\ProjSrc\SrcDrfn\Chart\comparechart\control\VirtualListCtrl.cpp

; 144  : 		pstrSave[i].strCode	= pData->strCode;

  000a4	83 c1 f8	 add	 ecx, -8			; fffffff8H
  000a7	8b 34 98	 mov	 esi, DWORD PTR [eax+ebx*4]
  000aa	56		 push	 esi
  000ab	ff 15 00 00 00
	00		 call	 DWORD PTR __imp_??4?$CStringT@DV?$StrTraitMFC_DLL@DV?$ChTraitsCRT@D@ATL@@@@@ATL@@QAEAAV01@ABV01@@Z

; 145  : 		pstrSave[i].strKor	= pData->strKor;

  000b1	8b 4d f0	 mov	 ecx, DWORD PTR tv707[ebp]
  000b4	8d 46 04	 lea	 eax, DWORD PTR [esi+4]
  000b7	50		 push	 eax
  000b8	83 c1 fc	 add	 ecx, -4			; fffffffcH
  000bb	ff 15 00 00 00
	00		 call	 DWORD PTR __imp_??4?$CStringT@DV?$StrTraitMFC_DLL@DV?$ChTraitsCRT@D@ATL@@@@@ATL@@QAEAAV01@ABV01@@Z

; 146  : 		pstrSave[i].strEng	= pData->strEng;

  000c1	8b 4d f0	 mov	 ecx, DWORD PTR tv707[ebp]
  000c4	8d 46 08	 lea	 eax, DWORD PTR [esi+8]
  000c7	50		 push	 eax
  000c8	ff 15 00 00 00
	00		 call	 DWORD PTR __imp_??4?$CStringT@DV?$StrTraitMFC_DLL@DV?$ChTraitsCRT@D@ATL@@@@@ATL@@QAEAAV01@ABV01@@Z
  000ce	8b 4d f0	 mov	 ecx, DWORD PTR tv707[ebp]
  000d1	43		 inc	 ebx
  000d2	8b 75 ec	 mov	 esi, DWORD PTR _nTotal$1$[ebp]
  000d5	83 c1 0c	 add	 ecx, 12			; 0000000cH
  000d8	89 4d f0	 mov	 DWORD PTR tv707[ebp], ecx
  000db	3b de		 cmp	 ebx, esi
  000dd	7c b1		 jl	 SHORT $LL4@SortArray
$LN3@SortArray:

; 147  : 	}
; 148  : 
; 149  :    qsort(pstrSave, nTotal, sizeof(MASTERCODE), Compare);

  000df	8b 5d 08	 mov	 ebx, DWORD PTR _pstrSave$1$[ebp]
  000e2	68 00 00 00 00	 push	 OFFSET ?Compare@@YAHPBX0@Z ; Compare
  000e7	6a 0c		 push	 12			; 0000000cH
  000e9	56		 push	 esi
  000ea	53		 push	 ebx
  000eb	ff 15 00 00 00
	00		 call	 DWORD PTR __imp__qsort

; 150  : 	
; 151  :    for( i = 0; i < astrSort.GetSize(); i++)

  000f1	8b 47 08	 mov	 eax, DWORD PTR [edi+8]
  000f4	83 c4 10	 add	 esp, 16			; 00000010H
  000f7	33 f6		 xor	 esi, esi
  000f9	85 c0		 test	 eax, eax
  000fb	7e 4d		 jle	 SHORT $LN6@SortArray
  000fd	0f 1f 00	 npad	 3
$LL7@SortArray:
; File C:\Program Files (x86)\Microsoft Visual Studio\2019\Community\VC\Tools\MSVC\14.29.30133\atlmfc\include\afxtempl.h

; 288  : 	if(nIndex >= 0 && nIndex < m_nSize)

  00100	85 f6		 test	 esi, esi
  00102	0f 88 42 01 00
	00		 js	 $LN118@SortArray
  00108	3b f0		 cmp	 esi, eax
  0010a	0f 8d 3a 01 00
	00		 jge	 $LN118@SortArray

; 289  : 		return m_pData[nIndex];

  00110	8b 47 04	 mov	 eax, DWORD PTR [edi+4]
; File D:\git\src\IBK\IBK_DRFN\ProjSrc\SrcDrfn\Chart\comparechart\control\VirtualListCtrl.cpp

; 152  : 		delete astrSort.GetAt(i);

  00113	8b 1c b0	 mov	 ebx, DWORD PTR [eax+esi*4]
  00116	85 db		 test	 ebx, ebx
  00118	74 25		 je	 SHORT $LN5@SortArray
  0011a	8d 4b 08	 lea	 ecx, DWORD PTR [ebx+8]
  0011d	ff 15 00 00 00
	00		 call	 DWORD PTR __imp_??1?$CStringT@DV?$StrTraitMFC_DLL@DV?$ChTraitsCRT@D@ATL@@@@@ATL@@QAE@XZ
  00123	8d 4b 04	 lea	 ecx, DWORD PTR [ebx+4]
  00126	ff 15 00 00 00
	00		 call	 DWORD PTR __imp_??1?$CStringT@DV?$StrTraitMFC_DLL@DV?$ChTraitsCRT@D@ATL@@@@@ATL@@QAE@XZ
  0012c	8b cb		 mov	 ecx, ebx
  0012e	ff 15 00 00 00
	00		 call	 DWORD PTR __imp_??1?$CStringT@DV?$StrTraitMFC_DLL@DV?$ChTraitsCRT@D@ATL@@@@@ATL@@QAE@XZ
  00134	6a 0c		 push	 12			; 0000000cH
  00136	53		 push	 ebx
  00137	e8 00 00 00 00	 call	 ??3@YAXPAXI@Z		; operator delete
  0013c	83 c4 08	 add	 esp, 8
$LN5@SortArray:

; 150  : 	
; 151  :    for( i = 0; i < astrSort.GetSize(); i++)

  0013f	8b 47 08	 mov	 eax, DWORD PTR [edi+8]
  00142	46		 inc	 esi
  00143	3b f0		 cmp	 esi, eax
  00145	7c b9		 jl	 SHORT $LL7@SortArray
  00147	8b 5d 08	 mov	 ebx, DWORD PTR _pstrSave$1$[ebp]
$LN6@SortArray:
; File C:\Program Files (x86)\Microsoft Visual Studio\2019\Community\VC\Tools\MSVC\14.29.30133\atlmfc\include\afxtempl.h

; 381  : 		if (m_pData != NULL)

  0014a	8b 47 04	 mov	 eax, DWORD PTR [edi+4]
  0014d	85 c0		 test	 eax, eax
  0014f	74 10		 je	 SHORT $LN55@SortArray

; 382  : 		{
; 383  : 			for( int i = 0; i < m_nSize; i++ )
; 384  : 				(m_pData + i)->~TYPE();
; 385  : 			delete[] (BYTE*)m_pData;

  00151	50		 push	 eax
  00152	e8 00 00 00 00	 call	 ??_V@YAXPAX@Z		; operator delete[]
  00157	83 c4 04	 add	 esp, 4

; 386  : 			m_pData = NULL;

  0015a	c7 47 04 00 00
	00 00		 mov	 DWORD PTR [edi+4], 0
$LN55@SortArray:
; File D:\git\src\IBK\IBK_DRFN\ProjSrc\SrcDrfn\Chart\comparechart\control\VirtualListCtrl.cpp

; 155  :     for(i = 0 ; i < nTotal ; i++)

  00161	83 7d ec 00	 cmp	 DWORD PTR _nTotal$1$[ebp], 0
; File C:\Program Files (x86)\Microsoft Visual Studio\2019\Community\VC\Tools\MSVC\14.29.30133\atlmfc\include\afxtempl.h

; 388  : 		m_nSize = m_nMaxSize = 0;

  00165	c7 47 0c 00 00
	00 00		 mov	 DWORD PTR [edi+12], 0
  0016c	c7 47 08 00 00
	00 00		 mov	 DWORD PTR [edi+8], 0
; File D:\git\src\IBK\IBK_DRFN\ProjSrc\SrcDrfn\Chart\comparechart\control\VirtualListCtrl.cpp

; 155  :     for(i = 0 ; i < nTotal ; i++)

  00173	c7 45 f0 00 00
	00 00		 mov	 DWORD PTR _i$3$[ebp], 0
  0017a	0f 8e 81 00 00
	00		 jle	 $LN9@SortArray
; File C:\Program Files (x86)\Microsoft Visual Studio\2019\Community\VC\Tools\MSVC\14.29.30133\atlmfc\include\afxtempl.h

; 388  : 		m_nSize = m_nMaxSize = 0;

  00180	83 c3 08	 add	 ebx, 8
$LL10@SortArray:
; File D:\git\src\IBK\IBK_DRFN\ProjSrc\SrcDrfn\Chart\comparechart\control\VirtualListCtrl.cpp

; 157  : 		MASTERCODE* pData = new MASTERCODE;

  00183	6a 0c		 push	 12			; 0000000cH
  00185	e8 00 00 00 00	 call	 ??2@YAPAXI@Z		; operator new
  0018a	8b f0		 mov	 esi, eax
  0018c	83 c4 04	 add	 esp, 4
  0018f	85 f6		 test	 esi, esi
  00191	74 1c		 je	 SHORT $LN16@SortArray
  00193	8b ce		 mov	 ecx, esi
  00195	ff 15 00 00 00
	00		 call	 DWORD PTR __imp_??0?$CStringT@DV?$StrTraitMFC_DLL@DV?$ChTraitsCRT@D@ATL@@@@@ATL@@QAE@XZ
  0019b	8d 4e 04	 lea	 ecx, DWORD PTR [esi+4]
  0019e	ff 15 00 00 00
	00		 call	 DWORD PTR __imp_??0?$CStringT@DV?$StrTraitMFC_DLL@DV?$ChTraitsCRT@D@ATL@@@@@ATL@@QAE@XZ
  001a4	8d 4e 08	 lea	 ecx, DWORD PTR [esi+8]
  001a7	ff 15 00 00 00
	00		 call	 DWORD PTR __imp_??0?$CStringT@DV?$StrTraitMFC_DLL@DV?$ChTraitsCRT@D@ATL@@@@@ATL@@QAE@XZ
  001ad	eb 02		 jmp	 SHORT $LN17@SortArray
$LN16@SortArray:
  001af	33 f6		 xor	 esi, esi
$LN17@SortArray:

; 158  : 		pData->strCode	= pstrSave[i].strCode;

  001b1	8d 43 f8	 lea	 eax, DWORD PTR [ebx-8]
  001b4	8b ce		 mov	 ecx, esi
  001b6	50		 push	 eax
  001b7	ff 15 00 00 00
	00		 call	 DWORD PTR __imp_??4?$CStringT@DV?$StrTraitMFC_DLL@DV?$ChTraitsCRT@D@ATL@@@@@ATL@@QAEAAV01@ABV01@@Z

; 159  : 		pData->strKor	= pstrSave[i].strKor;

  001bd	8d 43 fc	 lea	 eax, DWORD PTR [ebx-4]
  001c0	50		 push	 eax
  001c1	8d 4e 04	 lea	 ecx, DWORD PTR [esi+4]
  001c4	ff 15 00 00 00
	00		 call	 DWORD PTR __imp_??4?$CStringT@DV?$StrTraitMFC_DLL@DV?$ChTraitsCRT@D@ATL@@@@@ATL@@QAEAAV01@ABV01@@Z

; 160  : 		pData->strEng	= pstrSave[i].strEng;

  001ca	53		 push	 ebx
  001cb	8d 4e 08	 lea	 ecx, DWORD PTR [esi+8]
  001ce	ff 15 00 00 00
	00		 call	 DWORD PTR __imp_??4?$CStringT@DV?$StrTraitMFC_DLL@DV?$ChTraitsCRT@D@ATL@@@@@ATL@@QAEAAV01@ABV01@@Z
; File C:\Program Files (x86)\Microsoft Visual Studio\2019\Community\VC\Tools\MSVC\14.29.30133\atlmfc\include\afxtempl.h

; 333  : 	{ INT_PTR nIndex = m_nSize;

  001d4	8b 47 08	 mov	 eax, DWORD PTR [edi+8]
  001d7	89 45 e8	 mov	 DWORD PTR _nIndex$1$[ebp], eax

; 538  : 	if(nIndex < 0)

  001da	85 c0		 test	 eax, eax
  001dc	78 6c		 js	 SHORT $LN118@SortArray

; 540  : 
; 541  : 	if (nIndex >= m_nSize)
; 542  : 		SetSize(nIndex+1, -1);

  001de	6a ff		 push	 -1
  001e0	40		 inc	 eax
  001e1	8b cf		 mov	 ecx, edi
  001e3	50		 push	 eax
  001e4	e8 00 00 00 00	 call	 ?SetSize@?$CArray@PAU__MASTERCODE@@PAU1@@@QAEXHH@Z ; CArray<__MASTERCODE *,__MASTERCODE *>::SetSize

; 543  : 	m_pData[nIndex] = newElement;

  001e9	8b 47 04	 mov	 eax, DWORD PTR [edi+4]
; File D:\git\src\IBK\IBK_DRFN\ProjSrc\SrcDrfn\Chart\comparechart\control\VirtualListCtrl.cpp

; 155  :     for(i = 0 ; i < nTotal ; i++)

  001ec	83 c3 0c	 add	 ebx, 12			; 0000000cH
; File C:\Program Files (x86)\Microsoft Visual Studio\2019\Community\VC\Tools\MSVC\14.29.30133\atlmfc\include\afxtempl.h

; 543  : 	m_pData[nIndex] = newElement;

  001ef	8b 4d e8	 mov	 ecx, DWORD PTR _nIndex$1$[ebp]
  001f2	89 34 88	 mov	 DWORD PTR [eax+ecx*4], esi
; File D:\git\src\IBK\IBK_DRFN\ProjSrc\SrcDrfn\Chart\comparechart\control\VirtualListCtrl.cpp

; 155  :     for(i = 0 ; i < nTotal ; i++)

  001f5	8b 45 f0	 mov	 eax, DWORD PTR _i$3$[ebp]
  001f8	40		 inc	 eax
  001f9	89 45 f0	 mov	 DWORD PTR _i$3$[ebp], eax
  001fc	3b 45 ec	 cmp	 eax, DWORD PTR _nTotal$1$[ebp]
  001ff	7c 82		 jl	 SHORT $LL10@SortArray
$LN9@SortArray:

; 161  : 		
; 162  : 		astrSort.Add(pData);
; 163  : 	}
; 164  :     delete[] pstrSave;

  00201	8b 45 08	 mov	 eax, DWORD PTR _pstrSave$1$[ebp]
  00204	85 c0		 test	 eax, eax
  00206	74 30		 je	 SHORT $LN108@SortArray
  00208	68 00 00 00 00	 push	 OFFSET ??1__MASTERCODE@@QAE@XZ
  0020d	ff 70 fc	 push	 DWORD PTR [eax-4]
  00210	8d 70 fc	 lea	 esi, DWORD PTR [eax-4]
  00213	c7 45 fc 00 00
	00 00		 mov	 DWORD PTR __$EHRec$[ebp+8], 0
  0021a	6a 0c		 push	 12			; 0000000cH
  0021c	50		 push	 eax
  0021d	e8 00 00 00 00	 call	 ??_M@YGXPAXIIP6EX0@Z@Z
  00222	8b 06		 mov	 eax, DWORD PTR [esi]
  00224	8d 04 40	 lea	 eax, DWORD PTR [eax+eax*2]
  00227	8d 04 85 04 00
	00 00		 lea	 eax, DWORD PTR [eax*4+4]
  0022e	50		 push	 eax
  0022f	56		 push	 esi
  00230	e8 00 00 00 00	 call	 ??_V@YAXPAXI@Z		; operator delete[]
  00235	83 c4 08	 add	 esp, 8
$LN108@SortArray:

; 166  : }

  00238	8b 4d f4	 mov	 ecx, DWORD PTR __$EHRec$[ebp]
  0023b	64 89 0d 00 00
	00 00		 mov	 DWORD PTR fs:0, ecx
  00242	59		 pop	 ecx
  00243	5f		 pop	 edi
  00244	5e		 pop	 esi
  00245	5b		 pop	 ebx
  00246	8b e5		 mov	 esp, ebp
  00248	5d		 pop	 ebp
  00249	c3		 ret	 0
$LN118@SortArray:
; File C:\Program Files (x86)\Microsoft Visual Studio\2019\Community\VC\Tools\MSVC\14.29.30133\atlmfc\include\afxtempl.h

; 539  : 		AfxThrowInvalidArgException();

  0024a	e8 00 00 00 00	 call	 ?AfxThrowInvalidArgException@@YGXXZ ; AfxThrowInvalidArgException
$LN132@SortArray:
  0024f	cc		 int	 3
  00250	cc		 int	 3
  00251	cc		 int	 3
  00252	cc		 int	 3
  00253	cc		 int	 3
  00254	cc		 int	 3
_TEXT	ENDS
;	COMDAT text$x
text$x	SEGMENT
__ehhandler$?SortArray@@YAXAAV?$CArray@PAU__MASTERCODE@@PAU1@@@@Z:
  00000	90		 npad	 1
  00001	90		 npad	 1
  00002	8b 54 24 08	 mov	 edx, DWORD PTR [esp+8]
  00006	8d 42 0c	 lea	 eax, DWORD PTR [edx+12]
  00009	8b 4a e4	 mov	 ecx, DWORD PTR [edx-28]
  0000c	33 c8		 xor	 ecx, eax
  0000e	e8 00 00 00 00	 call	 @__security_check_cookie@4
  00013	b8 00 00 00 00	 mov	 eax, OFFSET __ehfuncinfo$?SortArray@@YAXAAV?$CArray@PAU__MASTERCODE@@PAU1@@@@Z
  00018	e9 00 00 00 00	 jmp	 ___CxxFrameHandler3
text$x	ENDS
?SortArray@@YAXAAV?$CArray@PAU__MASTERCODE@@PAU1@@@@Z ENDP ; SortArray
; Function compile flags: /Ogtp
; File D:\git\src\IBK\IBK_DRFN\ProjSrc\SrcDrfn\Chart\comparechart\control\VirtualListCtrl.cpp
;	COMDAT ?Compare@@YAHPBX0@Z
_TEXT	SEGMENT
_Data1$ = -36						; size = 12
_Data2$ = -24						; size = 12
__$EHRec$ = -12						; size = 12
_arg1$ = 8						; size = 4
_arg2$ = 12						; size = 4
?Compare@@YAHPBX0@Z PROC				; Compare, COMDAT

; 121  : {

  00000	55		 push	 ebp
  00001	8b ec		 mov	 ebp, esp
  00003	6a ff		 push	 -1
  00005	68 00 00 00 00	 push	 __ehhandler$?Compare@@YAHPBX0@Z
  0000a	64 a1 00 00 00
	00		 mov	 eax, DWORD PTR fs:0
  00010	50		 push	 eax
  00011	83 ec 18	 sub	 esp, 24			; 00000018H
  00014	56		 push	 esi
  00015	a1 00 00 00 00	 mov	 eax, DWORD PTR ___security_cookie
  0001a	33 c5		 xor	 eax, ebp
  0001c	50		 push	 eax
  0001d	8d 45 f4	 lea	 eax, DWORD PTR __$EHRec$[ebp]
  00020	64 a3 00 00 00
	00		 mov	 DWORD PTR fs:0, eax
  00026	8d 4d dc	 lea	 ecx, DWORD PTR _Data1$[ebp]
  00029	ff 15 00 00 00
	00		 call	 DWORD PTR __imp_??0?$CStringT@DV?$StrTraitMFC_DLL@DV?$ChTraitsCRT@D@ATL@@@@@ATL@@QAE@XZ
  0002f	8d 4d e0	 lea	 ecx, DWORD PTR _Data1$[ebp+4]
  00032	ff 15 00 00 00
	00		 call	 DWORD PTR __imp_??0?$CStringT@DV?$StrTraitMFC_DLL@DV?$ChTraitsCRT@D@ATL@@@@@ATL@@QAE@XZ
  00038	8d 4d e4	 lea	 ecx, DWORD PTR _Data1$[ebp+8]
  0003b	ff 15 00 00 00
	00		 call	 DWORD PTR __imp_??0?$CStringT@DV?$StrTraitMFC_DLL@DV?$ChTraitsCRT@D@ATL@@@@@ATL@@QAE@XZ

; 122  : 	MASTERCODE Data1, Data2;

  00041	8d 4d e8	 lea	 ecx, DWORD PTR _Data2$[ebp]
  00044	c7 45 fc 00 00
	00 00		 mov	 DWORD PTR __$EHRec$[ebp+8], 0
  0004b	ff 15 00 00 00
	00		 call	 DWORD PTR __imp_??0?$CStringT@DV?$StrTraitMFC_DLL@DV?$ChTraitsCRT@D@ATL@@@@@ATL@@QAE@XZ
  00051	8d 4d ec	 lea	 ecx, DWORD PTR _Data2$[ebp+4]
  00054	ff 15 00 00 00
	00		 call	 DWORD PTR __imp_??0?$CStringT@DV?$StrTraitMFC_DLL@DV?$ChTraitsCRT@D@ATL@@@@@ATL@@QAE@XZ
  0005a	8d 4d f0	 lea	 ecx, DWORD PTR _Data2$[ebp+8]
  0005d	ff 15 00 00 00
	00		 call	 DWORD PTR __imp_??0?$CStringT@DV?$StrTraitMFC_DLL@DV?$ChTraitsCRT@D@ATL@@@@@ATL@@QAE@XZ
  00063	8b 75 08	 mov	 esi, DWORD PTR _arg1$[ebp]
  00066	8d 4d dc	 lea	 ecx, DWORD PTR _Data1$[ebp]
  00069	56		 push	 esi
  0006a	c6 45 fc 01	 mov	 BYTE PTR __$EHRec$[ebp+8], 1
  0006e	ff 15 00 00 00
	00		 call	 DWORD PTR __imp_??4?$CStringT@DV?$StrTraitMFC_DLL@DV?$ChTraitsCRT@D@ATL@@@@@ATL@@QAEAAV01@ABV01@@Z
  00074	8d 46 04	 lea	 eax, DWORD PTR [esi+4]
  00077	50		 push	 eax
  00078	8d 4d e0	 lea	 ecx, DWORD PTR _Data1$[ebp+4]
  0007b	ff 15 00 00 00
	00		 call	 DWORD PTR __imp_??4?$CStringT@DV?$StrTraitMFC_DLL@DV?$ChTraitsCRT@D@ATL@@@@@ATL@@QAEAAV01@ABV01@@Z
  00081	8d 46 08	 lea	 eax, DWORD PTR [esi+8]
  00084	50		 push	 eax
  00085	8d 4d e4	 lea	 ecx, DWORD PTR _Data1$[ebp+8]
  00088	ff 15 00 00 00
	00		 call	 DWORD PTR __imp_??4?$CStringT@DV?$StrTraitMFC_DLL@DV?$ChTraitsCRT@D@ATL@@@@@ATL@@QAEAAV01@ABV01@@Z
  0008e	8b 75 0c	 mov	 esi, DWORD PTR _arg2$[ebp]
  00091	8d 4d e8	 lea	 ecx, DWORD PTR _Data2$[ebp]
  00094	56		 push	 esi
  00095	ff 15 00 00 00
	00		 call	 DWORD PTR __imp_??4?$CStringT@DV?$StrTraitMFC_DLL@DV?$ChTraitsCRT@D@ATL@@@@@ATL@@QAEAAV01@ABV01@@Z
  0009b	8d 46 04	 lea	 eax, DWORD PTR [esi+4]
  0009e	50		 push	 eax
  0009f	8d 4d ec	 lea	 ecx, DWORD PTR _Data2$[ebp+4]
  000a2	ff 15 00 00 00
	00		 call	 DWORD PTR __imp_??4?$CStringT@DV?$StrTraitMFC_DLL@DV?$ChTraitsCRT@D@ATL@@@@@ATL@@QAEAAV01@ABV01@@Z
  000a8	8d 46 08	 lea	 eax, DWORD PTR [esi+8]
  000ab	50		 push	 eax
  000ac	8d 4d f0	 lea	 ecx, DWORD PTR _Data2$[ebp+8]
  000af	ff 15 00 00 00
	00		 call	 DWORD PTR __imp_??4?$CStringT@DV?$StrTraitMFC_DLL@DV?$ChTraitsCRT@D@ATL@@@@@ATL@@QAEAAV01@ABV01@@Z

; 123  : 	Data1 = *(MASTERCODE *)arg1;
; 124  :     Data2 = *(MASTERCODE *)arg2;
; 125  : 
; 126  : 	if(g_nSelCol == 0)

  000b5	83 3d 00 00 00
	00 00		 cmp	 DWORD PTR ?g_nSelCol@@3HA, 0 ; g_nSelCol
  000bc	75 08		 jne	 SHORT $LN2@Compare

; 127  : 		return (Data1.strKor).CollateNoCase((LPCTSTR)(Data2.strKor));  //   

  000be	ff 75 ec	 push	 DWORD PTR _Data2$[ebp+4]
  000c1	8d 4d e0	 lea	 ecx, DWORD PTR _Data1$[ebp+4]
  000c4	eb 06		 jmp	 SHORT $LN29@Compare
$LN2@Compare:

; 128  : 	else
; 129  : 		return (Data1.strCode).CollateNoCase((LPCTSTR)(Data2.strCode));  

  000c6	ff 75 e8	 push	 DWORD PTR _Data2$[ebp]
  000c9	8d 4d dc	 lea	 ecx, DWORD PTR _Data1$[ebp]
$LN29@Compare:
  000cc	ff 15 00 00 00
	00		 call	 DWORD PTR __imp_?CollateNoCase@?$CStringT@DV?$StrTraitMFC_DLL@DV?$ChTraitsCRT@D@ATL@@@@@ATL@@QBEHPBD@Z
  000d2	8d 4d f0	 lea	 ecx, DWORD PTR _Data2$[ebp+8]
  000d5	8b f0		 mov	 esi, eax
  000d7	ff 15 00 00 00
	00		 call	 DWORD PTR __imp_??1?$CStringT@DV?$StrTraitMFC_DLL@DV?$ChTraitsCRT@D@ATL@@@@@ATL@@QAE@XZ
  000dd	8d 4d ec	 lea	 ecx, DWORD PTR _Data2$[ebp+4]
  000e0	ff 15 00 00 00
	00		 call	 DWORD PTR __imp_??1?$CStringT@DV?$StrTraitMFC_DLL@DV?$ChTraitsCRT@D@ATL@@@@@ATL@@QAE@XZ
  000e6	8d 4d e8	 lea	 ecx, DWORD PTR _Data2$[ebp]
  000e9	ff 15 00 00 00
	00		 call	 DWORD PTR __imp_??1?$CStringT@DV?$StrTraitMFC_DLL@DV?$ChTraitsCRT@D@ATL@@@@@ATL@@QAE@XZ
  000ef	8d 4d e4	 lea	 ecx, DWORD PTR _Data1$[ebp+8]
  000f2	ff 15 00 00 00
	00		 call	 DWORD PTR __imp_??1?$CStringT@DV?$StrTraitMFC_DLL@DV?$ChTraitsCRT@D@ATL@@@@@ATL@@QAE@XZ
  000f8	8d 4d e0	 lea	 ecx, DWORD PTR _Data1$[ebp+4]
  000fb	ff 15 00 00 00
	00		 call	 DWORD PTR __imp_??1?$CStringT@DV?$StrTraitMFC_DLL@DV?$ChTraitsCRT@D@ATL@@@@@ATL@@QAE@XZ
  00101	8d 4d dc	 lea	 ecx, DWORD PTR _Data1$[ebp]
  00104	ff 15 00 00 00
	00		 call	 DWORD PTR __imp_??1?$CStringT@DV?$StrTraitMFC_DLL@DV?$ChTraitsCRT@D@ATL@@@@@ATL@@QAE@XZ
  0010a	8b c6		 mov	 eax, esi

; 130  : }

  0010c	8b 4d f4	 mov	 ecx, DWORD PTR __$EHRec$[ebp]
  0010f	64 89 0d 00 00
	00 00		 mov	 DWORD PTR fs:0, ecx
  00116	59		 pop	 ecx
  00117	5e		 pop	 esi
  00118	8b e5		 mov	 esp, ebp
  0011a	5d		 pop	 ebp
  0011b	c3		 ret	 0
_TEXT	ENDS
;	COMDAT text$x
text$x	SEGMENT
__unwindfunclet$?Compare@@YAHPBX0@Z$0:
  00000	8d 4d dc	 lea	 ecx, DWORD PTR _Data1$[ebp]
  00003	e9 00 00 00 00	 jmp	 ??1__MASTERCODE@@QAE@XZ
__unwindfunclet$?Compare@@YAHPBX0@Z$1:
  00008	8d 4d e8	 lea	 ecx, DWORD PTR _Data2$[ebp]
  0000b	e9 00 00 00 00	 jmp	 ??1__MASTERCODE@@QAE@XZ
  00010	cc		 int	 3
  00011	cc		 int	 3
  00012	cc		 int	 3
  00013	cc		 int	 3
  00014	cc		 int	 3
__ehhandler$?Compare@@YAHPBX0@Z:
  00015	90		 npad	 1
  00016	90		 npad	 1
  00017	8b 54 24 08	 mov	 edx, DWORD PTR [esp+8]
  0001b	8d 42 0c	 lea	 eax, DWORD PTR [edx+12]
  0001e	8b 4a e0	 mov	 ecx, DWORD PTR [edx-32]
  00021	33 c8		 xor	 ecx, eax
  00023	e8 00 00 00 00	 call	 @__security_check_cookie@4
  00028	b8 00 00 00 00	 mov	 eax, OFFSET __ehfuncinfo$?Compare@@YAHPBX0@Z
  0002d	e9 00 00 00 00	 jmp	 ___CxxFrameHandler3
text$x	ENDS
?Compare@@YAHPBX0@Z ENDP				; Compare
; Function compile flags: /Ogtp
; File D:\git\src\IBK\IBK_DRFN\ProjSrc\SrcDrfn\Chart\comparechart\define\ChartMsgDef.h
;	COMDAT ??__ERMSG_CHANGE_CROSSLINE@@YAXXZ
text$di	SEGMENT
??__ERMSG_CHANGE_CROSSLINE@@YAXXZ PROC			; `dynamic initializer for 'RMSG_CHANGE_CROSSLINE'', COMDAT

; 216  : const UINT RMSG_CHANGE_CROSSLINE = ::RegisterWindowMessage(_T("RMSG_CHANGE_CROSSLINE"));

  00000	68 00 00 00 00	 push	 OFFSET ??_C@_0BG@LNLCJKPF@RMSG_CHANGE_CROSSLINE@
  00005	ff 15 00 00 00
	00		 call	 DWORD PTR __imp__RegisterWindowMessageA@4
  0000b	a3 00 00 00 00	 mov	 DWORD PTR ?RMSG_CHANGE_CROSSLINE@@3IB, eax
  00010	c3		 ret	 0
??__ERMSG_CHANGE_CROSSLINE@@YAXXZ ENDP			; `dynamic initializer for 'RMSG_CHANGE_CROSSLINE''
text$di	ENDS
; Function compile flags: /Ogtp
; File D:\git\src\IBK\IBK_DRFN\ProjSrc\SrcDrfn\Chart\comparechart\define\ChartMsgDef.h
;	COMDAT ??__ERMSG_GET_SKINCOLOR@@YAXXZ
text$di	SEGMENT
??__ERMSG_GET_SKINCOLOR@@YAXXZ PROC			; `dynamic initializer for 'RMSG_GET_SKINCOLOR'', COMDAT

; 214  : const UINT RMSG_GET_SKINCOLOR = ::RegisterWindowMessage(_T("RMSG_GET_SKINCOLOR"));

  00000	68 00 00 00 00	 push	 OFFSET ??_C@_0BD@FLDNDDHK@RMSG_GET_SKINCOLOR@
  00005	ff 15 00 00 00
	00		 call	 DWORD PTR __imp__RegisterWindowMessageA@4
  0000b	a3 00 00 00 00	 mov	 DWORD PTR ?RMSG_GET_SKINCOLOR@@3IB, eax
  00010	c3		 ret	 0
??__ERMSG_GET_SKINCOLOR@@YAXXZ ENDP			; `dynamic initializer for 'RMSG_GET_SKINCOLOR''
text$di	ENDS
; Function compile flags: /Ogtp
; File D:\git\src\IBK\IBK_DRFN\ProjSrc\SrcDrfn\Chart\comparechart\define\ChartMsgDef.h
;	COMDAT ??__ERMSG_CHANGE_SKINCOLOR@@YAXXZ
text$di	SEGMENT
??__ERMSG_CHANGE_SKINCOLOR@@YAXXZ PROC			; `dynamic initializer for 'RMSG_CHANGE_SKINCOLOR'', COMDAT

; 213  : const UINT RMSG_CHANGE_SKINCOLOR = ::RegisterWindowMessage(_T("RMSG_CHANGE_SKINCOLOR"));

  00000	68 00 00 00 00	 push	 OFFSET ??_C@_0BG@CNPAHNGG@RMSG_CHANGE_SKINCOLOR@
  00005	ff 15 00 00 00
	00		 call	 DWORD PTR __imp__RegisterWindowMessageA@4
  0000b	a3 00 00 00 00	 mov	 DWORD PTR ?RMSG_CHANGE_SKINCOLOR@@3IB, eax
  00010	c3		 ret	 0
??__ERMSG_CHANGE_SKINCOLOR@@YAXXZ ENDP			; `dynamic initializer for 'RMSG_CHANGE_SKINCOLOR''
text$di	ENDS
; Function compile flags: /Ogtp
; File D:\git\src\IBK\IBK_DRFN\ProjSrc\SrcDrfn\Chart\comparechart\define\ChartMsgDef.h
;	COMDAT ??__ERMSG_GETINFO@@YAXXZ
text$di	SEGMENT
??__ERMSG_GETINFO@@YAXXZ PROC				; `dynamic initializer for 'RMSG_GETINFO'', COMDAT

; 204  : const UINT RMSG_GETINFO = ::RegisterWindowMessage(_T("RMSG_GETINFO"));

  00000	68 00 00 00 00	 push	 OFFSET ??_C@_0N@IIOKMIEH@RMSG_GETINFO@
  00005	ff 15 00 00 00
	00		 call	 DWORD PTR __imp__RegisterWindowMessageA@4
  0000b	a3 00 00 00 00	 mov	 DWORD PTR ?RMSG_GETINFO@@3IB, eax
  00010	c3		 ret	 0
??__ERMSG_GETINFO@@YAXXZ ENDP				; `dynamic initializer for 'RMSG_GETINFO''
text$di	ENDS
; Function compile flags: /Ogtp
; File D:\git\src\IBK\IBK_DRFN\ProjSrc\SrcDrfn\Chart\comparechart\define\ChartMsgDef.h
;	COMDAT ??__ERMSG_KSDLLINFO@@YAXXZ
text$di	SEGMENT
??__ERMSG_KSDLLINFO@@YAXXZ PROC				; `dynamic initializer for 'RMSG_KSDLLINFO'', COMDAT

; 203  : const UINT RMSG_KSDLLINFO = ::RegisterWindowMessage(_T("RMSG_KSDLLINFO"));		// TrmCompCharView 

  00000	68 00 00 00 00	 push	 OFFSET ??_C@_0P@LFDACNFE@RMSG_KSDLLINFO@
  00005	ff 15 00 00 00
	00		 call	 DWORD PTR __imp__RegisterWindowMessageA@4
  0000b	a3 00 00 00 00	 mov	 DWORD PTR ?RMSG_KSDLLINFO@@3IB, eax
  00010	c3		 ret	 0
??__ERMSG_KSDLLINFO@@YAXXZ ENDP				; `dynamic initializer for 'RMSG_KSDLLINFO''
text$di	ENDS
; Function compile flags: /Ogtp
; File D:\git\src\IBK\IBK_DRFN\ProjSrc\SrcDrfn\Chart\comparechart\define\ChartMsgDef.h
;	COMDAT ??__ERMSG_GET_USERID@@YAXXZ
text$di	SEGMENT
??__ERMSG_GET_USERID@@YAXXZ PROC			; `dynamic initializer for 'RMSG_GET_USERID'', COMDAT

; 200  : const UINT RMSG_GET_USERID = ::RegisterWindowMessage(_T("RMSG_GET_USERID"));	// User ID 

  00000	68 00 00 00 00	 push	 OFFSET ??_C@_0BA@HKNFENJL@RMSG_GET_USERID@
  00005	ff 15 00 00 00
	00		 call	 DWORD PTR __imp__RegisterWindowMessageA@4
  0000b	a3 00 00 00 00	 mov	 DWORD PTR ?RMSG_GET_USERID@@3IB, eax
  00010	c3		 ret	 0
??__ERMSG_GET_USERID@@YAXXZ ENDP			; `dynamic initializer for 'RMSG_GET_USERID''
text$di	ENDS
; Function compile flags: /Ogtp
; File D:\git\src\IBK\IBK_DRFN\ProjSrc\SrcDrfn\Chart\comparechart\define\ChartMsgDef.h
;	COMDAT ??__ERMS_ANALYSIS_FUNC@@YAXXZ
text$di	SEGMENT
??__ERMS_ANALYSIS_FUNC@@YAXXZ PROC			; `dynamic initializer for 'RMS_ANALYSIS_FUNC'', COMDAT

; 196  : const UINT RMS_ANALYSIS_FUNC	= ::RegisterWindowMessage(_T("RMS_ANALYSIS_FUNC"));

  00000	68 00 00 00 00	 push	 OFFSET ??_C@_0BC@MMPGLPDH@RMS_ANALYSIS_FUNC@
  00005	ff 15 00 00 00
	00		 call	 DWORD PTR __imp__RegisterWindowMessageA@4
  0000b	a3 00 00 00 00	 mov	 DWORD PTR ?RMS_ANALYSIS_FUNC@@3IB, eax
  00010	c3		 ret	 0
??__ERMS_ANALYSIS_FUNC@@YAXXZ ENDP			; `dynamic initializer for 'RMS_ANALYSIS_FUNC''
text$di	ENDS
; Function compile flags: /Ogtp
; File D:\git\src\IBK\IBK_DRFN\ProjSrc\SrcDrfn\Chart\comparechart\define\ChartMsgDef.h
;	COMDAT ??__ERMSG_CHARTMAIN@@YAXXZ
text$di	SEGMENT
??__ERMSG_CHARTMAIN@@YAXXZ PROC				; `dynamic initializer for 'RMSG_CHARTMAIN'', COMDAT

; 193  : const UINT RMSG_CHARTMAIN		= ::RegisterWindowMessage(_T("RMSG_CHARTMAIN"));

  00000	68 00 00 00 00	 push	 OFFSET ??_C@_0P@KHFCBIOH@RMSG_CHARTMAIN@
  00005	ff 15 00 00 00
	00		 call	 DWORD PTR __imp__RegisterWindowMessageA@4
  0000b	a3 00 00 00 00	 mov	 DWORD PTR ?RMSG_CHARTMAIN@@3IB, eax
  00010	c3		 ret	 0
??__ERMSG_CHARTMAIN@@YAXXZ ENDP				; `dynamic initializer for 'RMSG_CHARTMAIN''
text$di	ENDS
; Function compile flags: /Ogtp
; File D:\git\src\IBK\IBK_DRFN\ProjSrc\SrcDrfn\Chart\commontr\TRDefine.h
;	COMDAT ??__ERMSG_GETSIGNAL_REAL@@YAXXZ
text$di	SEGMENT
??__ERMSG_GETSIGNAL_REAL@@YAXXZ PROC			; `dynamic initializer for 'RMSG_GETSIGNAL_REAL'', COMDAT

; 213  : const UINT RMSG_GETSIGNAL_REAL = ::RegisterWindowMessage(_T("RMSG_GETSIGNAL_REAL"));

  00000	68 00 00 00 00	 push	 OFFSET ??_C@_0BE@FJPKENOB@RMSG_GETSIGNAL_REAL@
  00005	ff 15 00 00 00
	00		 call	 DWORD PTR __imp__RegisterWindowMessageA@4
  0000b	a3 00 00 00 00	 mov	 DWORD PTR ?RMSG_GETSIGNAL_REAL@@3IB, eax
  00010	c3		 ret	 0
??__ERMSG_GETSIGNAL_REAL@@YAXXZ ENDP			; `dynamic initializer for 'RMSG_GETSIGNAL_REAL''
text$di	ENDS
; Function compile flags: /Ogtp
; File D:\git\src\IBK\IBK_DRFN\ProjSrc\SrcDrfn\Chart\comparechart\control\VirtualListCtrl.cpp
; File C:\Program Files (x86)\Microsoft Visual Studio\2019\Community\VC\Tools\MSVC\14.29.30133\atlmfc\include\afxtempl.h
; File D:\git\src\IBK\IBK_DRFN\ProjSrc\SrcDrfn\Chart\comparechart\control\VirtualListCtrl.cpp
; File C:\Program Files (x86)\Microsoft Visual Studio\2019\Community\VC\Tools\MSVC\14.29.30133\atlmfc\include\afx.inl
;	COMDAT ??_GCVirtualListCtrl@@UAEPAXI@Z
_TEXT	SEGMENT
___flags$ = 8						; size = 4
??_GCVirtualListCtrl@@UAEPAXI@Z PROC			; CVirtualListCtrl::`scalar deleting destructor', COMDAT
; _this$ = ecx
  00000	55		 push	 ebp
  00001	8b ec		 mov	 ebp, esp
; File D:\git\src\IBK\IBK_DRFN\ProjSrc\SrcDrfn\Chart\comparechart\control\VirtualListCtrl.cpp

; 28   : {

  00003	56		 push	 esi
  00004	8b f1		 mov	 esi, ecx

; 29   : }

  00006	8d 8e 20 01 00
	00		 lea	 ecx, DWORD PTR [esi+288]
  0000c	c7 06 00 00 00
	00		 mov	 DWORD PTR [esi], OFFSET ??_7CVirtualListCtrl@@6B@
  00012	e8 00 00 00 00	 call	 ??1CImageList@@UAE@XZ	; CImageList::~CImageList
; File C:\Program Files (x86)\Microsoft Visual Studio\2019\Community\VC\Tools\MSVC\14.29.30133\atlmfc\include\afxtempl.h

; 358  : 	if (m_pData != NULL)

  00017	8b 86 0c 01 00
	00		 mov	 eax, DWORD PTR [esi+268]
  0001d	c7 86 08 01 00
	00 00 00 00 00	 mov	 DWORD PTR [esi+264], OFFSET ??_7?$CArray@PAU__MASTERCODE@@PAU1@@@6B@
  00027	85 c0		 test	 eax, eax
  00029	74 13		 je	 SHORT $LN14@scalar

; 359  : 	{
; 360  : 		for( int i = 0; i < m_nSize; i++ )

  0002b	83 be 10 01 00
	00 00		 cmp	 DWORD PTR [esi+272], 0
  00032	0f 4f c0	 cmovg	 eax, eax

; 361  : 			(m_pData + i)->~TYPE();
; 362  : 		delete[] (BYTE*)m_pData;

  00035	50		 push	 eax
  00036	e8 00 00 00 00	 call	 ??_V@YAXPAX@Z		; operator delete[]
  0003b	83 c4 04	 add	 esp, 4
$LN14@scalar:

; 358  : 	if (m_pData != NULL)

  0003e	8b 86 f8 00 00
	00		 mov	 eax, DWORD PTR [esi+248]
  00044	c7 86 f4 00 00
	00 00 00 00 00	 mov	 DWORD PTR [esi+244], OFFSET ??_7?$CArray@PAU__MASTERCODE@@PAU1@@@6B@
  0004e	85 c0		 test	 eax, eax
  00050	74 13		 je	 SHORT $LN21@scalar

; 359  : 	{
; 360  : 		for( int i = 0; i < m_nSize; i++ )

  00052	83 be fc 00 00
	00 00		 cmp	 DWORD PTR [esi+252], 0
  00059	0f 4f c0	 cmovg	 eax, eax

; 361  : 			(m_pData + i)->~TYPE();
; 362  : 		delete[] (BYTE*)m_pData;

  0005c	50		 push	 eax
  0005d	e8 00 00 00 00	 call	 ??_V@YAXPAX@Z		; operator delete[]
  00062	83 c4 04	 add	 esp, 4
$LN21@scalar:

; 358  : 	if (m_pData != NULL)

  00065	8b 86 e4 00 00
	00		 mov	 eax, DWORD PTR [esi+228]
  0006b	c7 86 e0 00 00
	00 00 00 00 00	 mov	 DWORD PTR [esi+224], OFFSET ??_7?$CArray@PAU__MASTERCODE@@PAU1@@@6B@
  00075	85 c0		 test	 eax, eax
  00077	74 13		 je	 SHORT $LN28@scalar

; 359  : 	{
; 360  : 		for( int i = 0; i < m_nSize; i++ )

  00079	83 be e8 00 00
	00 00		 cmp	 DWORD PTR [esi+232], 0
  00080	0f 4f c0	 cmovg	 eax, eax

; 361  : 			(m_pData + i)->~TYPE();
; 362  : 		delete[] (BYTE*)m_pData;

  00083	50		 push	 eax
  00084	e8 00 00 00 00	 call	 ??_V@YAXPAX@Z		; operator delete[]
  00089	83 c4 04	 add	 esp, 4
$LN28@scalar:
; File D:\git\src\IBK\IBK_DRFN\ProjSrc\SrcDrfn\Chart\comparechart\control\VirtualListCtrl.cpp

; 29   : }

  0008c	8d 8e cc 00 00
	00		 lea	 ecx, DWORD PTR [esi+204]
  00092	e8 00 00 00 00	 call	 ??1CStringArray@@UAE@XZ	; CStringArray::~CStringArray
  00097	8d 8e b8 00 00
	00		 lea	 ecx, DWORD PTR [esi+184]
  0009d	e8 00 00 00 00	 call	 ??1CStringArray@@UAE@XZ	; CStringArray::~CStringArray
  000a2	8d 8e a4 00 00
	00		 lea	 ecx, DWORD PTR [esi+164]
  000a8	e8 00 00 00 00	 call	 ??1CStringArray@@UAE@XZ	; CStringArray::~CStringArray
  000ad	8d 8e 90 00 00
	00		 lea	 ecx, DWORD PTR [esi+144]
  000b3	e8 00 00 00 00	 call	 ??1CStringArray@@UAE@XZ	; CStringArray::~CStringArray
  000b8	8d 8e 8c 00 00
	00		 lea	 ecx, DWORD PTR [esi+140]
  000be	ff 15 00 00 00
	00		 call	 DWORD PTR __imp_??1?$CStringT@DV?$StrTraitMFC_DLL@DV?$ChTraitsCRT@D@ATL@@@@@ATL@@QAE@XZ
  000c4	8d 8e 88 00 00
	00		 lea	 ecx, DWORD PTR [esi+136]
  000ca	ff 15 00 00 00
	00		 call	 DWORD PTR __imp_??1?$CStringT@DV?$StrTraitMFC_DLL@DV?$ChTraitsCRT@D@ATL@@@@@ATL@@QAE@XZ
  000d0	8b ce		 mov	 ecx, esi
  000d2	e8 00 00 00 00	 call	 ??1CListCtrl@@UAE@XZ	; CListCtrl::~CListCtrl
  000d7	8b 45 08	 mov	 eax, DWORD PTR ___flags$[ebp]
  000da	a8 01		 test	 al, 1
  000dc	74 22		 je	 SHORT $LN57@scalar
  000de	a8 04		 test	 al, 4
  000e0	75 10		 jne	 SHORT $LN3@scalar
; File C:\Program Files (x86)\Microsoft Visual Studio\2019\Community\VC\Tools\MSVC\14.29.30133\atlmfc\include\afx.inl

; 112  : 	{ ::operator delete(p); }

  000e2	56		 push	 esi
  000e3	e8 00 00 00 00	 call	 ??3@YAXPAX@Z		; operator delete
  000e8	83 c4 04	 add	 esp, 4
  000eb	8b c6		 mov	 eax, esi
  000ed	5e		 pop	 esi
  000ee	5d		 pop	 ebp
  000ef	c2 04 00	 ret	 4
$LN3@scalar:
  000f2	68 28 01 00 00	 push	 296			; 00000128H
  000f7	56		 push	 esi
  000f8	e8 00 00 00 00	 call	 ?__global_delete@@YAXPAXI@Z ; __global_delete
  000fd	83 c4 08	 add	 esp, 8
$LN57@scalar:
  00100	8b c6		 mov	 eax, esi
  00102	5e		 pop	 esi
  00103	5d		 pop	 ebp
  00104	c2 04 00	 ret	 4
??_GCVirtualListCtrl@@UAEPAXI@Z ENDP			; CVirtualListCtrl::`scalar deleting destructor'
_TEXT	ENDS
; Function compile flags: /Ogtp
; File D:\git\src\IBK\IBK_DRFN\ProjSrc\SrcDrfn\Chart\comparechart\control\VirtualListCtrl.cpp
;	COMDAT ?GetMessageMap@CVirtualListCtrl@@MBEPBUAFX_MSGMAP@@XZ
_TEXT	SEGMENT
?GetMessageMap@CVirtualListCtrl@@MBEPBUAFX_MSGMAP@@XZ PROC ; CVirtualListCtrl::GetMessageMap, COMDAT
; _this$ = ecx

; 32   : BEGIN_MESSAGE_MAP(CVirtualListCtrl, CListCtrl)

  00000	b8 00 00 00 00	 mov	 eax, OFFSET ?messageMap@?1??GetThisMessageMap@CVirtualListCtrl@@KGPBUAFX_MSGMAP@@XZ@4U3@B
  00005	c3		 ret	 0
?GetMessageMap@CVirtualListCtrl@@MBEPBUAFX_MSGMAP@@XZ ENDP ; CVirtualListCtrl::GetMessageMap
_TEXT	ENDS
; Function compile flags: /Ogtp
; File D:\git\src\IBK\IBK_DRFN\ProjSrc\SrcDrfn\Chart\comparechart\control\VirtualListCtrl.cpp
;	COMDAT ?GetThisMessageMap@CVirtualListCtrl@@KGPBUAFX_MSGMAP@@XZ
_TEXT	SEGMENT
?GetThisMessageMap@CVirtualListCtrl@@KGPBUAFX_MSGMAP@@XZ PROC ; CVirtualListCtrl::GetThisMessageMap, COMDAT

; 33   : 	//{{AFX_MSG_MAP(CVirtualListCtrl)
; 34   : 	ON_NOTIFY_REFLECT(LVN_GETDISPINFO, OnGetdispinfo)
; 35   : 	ON_WM_DESTROY()
; 36   : 	ON_NOTIFY_REFLECT(LVN_COLUMNCLICK, OnColumnclick)
; 37   : 	ON_NOTIFY_REFLECT(LVN_ITEMCHANGED, OnItemchanged)
; 38   : 	ON_NOTIFY_REFLECT(NM_DBLCLK, OnDblclk)
; 39   : 	ON_WM_SIZE()
; 40   : 	//}}AFX_MSG_MAP
; 41   : END_MESSAGE_MAP()

  00000	b8 00 00 00 00	 mov	 eax, OFFSET ?messageMap@?1??GetThisMessageMap@CVirtualListCtrl@@KGPBUAFX_MSGMAP@@XZ@4U3@B
  00005	c3		 ret	 0
?GetThisMessageMap@CVirtualListCtrl@@KGPBUAFX_MSGMAP@@XZ ENDP ; CVirtualListCtrl::GetThisMessageMap
_TEXT	ENDS
; Function compile flags: /Ogtp
; File D:\git\src\IBK\IBK_DRFN\ProjSrc\SrcDrfn\Chart\comparechart\control\VirtualListCtrl.cpp
; File C:\Program Files (x86)\Microsoft Visual Studio\2019\Community\VC\Tools\MSVC\14.29.30133\atlmfc\include\afxwin2.inl
; File D:\git\src\IBK\IBK_DRFN\ProjSrc\SrcDrfn\Chart\comparechart\control\VirtualListCtrl.cpp
; File C:\Program Files (x86)\Microsoft Visual Studio\2019\Community\VC\Tools\MSVC\14.29.30133\atlmfc\include\afxcmn.inl
; File C:\Program Files (x86)\Microsoft Visual Studio\2019\Community\VC\Tools\MSVC\14.29.30133\atlmfc\include\afxwin2.inl
; File D:\git\src\IBK\IBK_DRFN\ProjSrc\SrcDrfn\Chart\comparechart\control\VirtualListCtrl.cpp
;	COMDAT ?OnSize@CVirtualListCtrl@@IAEXIHH@Z
_TEXT	SEGMENT
_nType$ = 8						; size = 4
_cx$ = 12						; size = 4
_cy$ = 16						; size = 4
?OnSize@CVirtualListCtrl@@IAEXIHH@Z PROC		; CVirtualListCtrl::OnSize, COMDAT
; _this$ = ecx

; 774  : {

  00000	55		 push	 ebp
  00001	8b ec		 mov	 ebp, esp
  00003	56		 push	 esi
  00004	57		 push	 edi
  00005	8b 7d 0c	 mov	 edi, DWORD PTR _cx$[ebp]
  00008	8b f1		 mov	 esi, ecx
; File C:\Program Files (x86)\Microsoft Visual Studio\2019\Community\VC\Tools\MSVC\14.29.30133\atlmfc\include\afxwin2.inl

; 330  : 	{ Default(); }

  0000a	e8 00 00 00 00	 call	 ?Default@CWnd@@IAEJXZ	; CWnd::Default
; File D:\git\src\IBK\IBK_DRFN\ProjSrc\SrcDrfn\Chart\comparechart\control\VirtualListCtrl.cpp

; 777  : 	if(cx > 83)

  0000f	83 ff 53	 cmp	 edi, 83			; 00000053H
  00012	7e 42		 jle	 SHORT $LN2@OnSize

; 778  : 	{
; 779  : 		LONG WindowStyle = GetWindowLong(m_hWnd, GWL_STYLE);	

  00014	6a f0		 push	 -16			; fffffff0H
  00016	ff 76 20	 push	 DWORD PTR [esi+32]
  00019	ff 15 00 00 00
	00		 call	 DWORD PTR __imp__GetWindowLongA@8

; 780  : 		if( WindowStyle & WS_VSCROLL) 

  0001f	8b 4e 20	 mov	 ecx, DWORD PTR [esi+32]
  00022	25 00 00 20 00	 and	 eax, 2097152		; 00200000H
  00027	0f b7 c7	 movzx	 eax, di
  0002a	8b 3d 00 00 00
	00		 mov	 edi, DWORD PTR __imp__SendMessageA@16
  00030	74 05		 je	 SHORT $LN3@OnSize

; 781  : 			SetColumnWidth(0,  cx - 55 - 1);

  00032	83 c0 c8	 add	 eax, -56		; ffffffc8H
  00035	eb 03		 jmp	 SHORT $LN16@OnSize
$LN3@OnSize:

; 782  : 		else
; 783  : 			SetColumnWidth(0, cx - 55 - 18);

  00037	83 c0 b7	 add	 eax, -73		; ffffffb7H
$LN16@OnSize:
; File C:\Program Files (x86)\Microsoft Visual Studio\2019\Community\VC\Tools\MSVC\14.29.30133\atlmfc\include\afxcmn.inl

; 215  : 	{ ASSERT(::IsWindow(m_hWnd)); return (BOOL) ::SendMessage(m_hWnd, LVM_SETCOLUMNWIDTH, nCol, MAKELPARAM(cx, 0)); }

  0003a	0f b7 c0	 movzx	 eax, ax
  0003d	50		 push	 eax
  0003e	6a 00		 push	 0
  00040	68 1e 10 00 00	 push	 4126			; 0000101eH
  00045	51		 push	 ecx
  00046	ff d7		 call	 edi
  00048	6a 37		 push	 55			; 00000037H
  0004a	6a 01		 push	 1
  0004c	68 1e 10 00 00	 push	 4126			; 0000101eH
  00051	ff 76 20	 push	 DWORD PTR [esi+32]
  00054	ff d7		 call	 edi
$LN2@OnSize:
; File C:\Program Files (x86)\Microsoft Visual Studio\2019\Community\VC\Tools\MSVC\14.29.30133\atlmfc\include\afxwin2.inl

; 106  : 	{ ASSERT(::IsWindow(m_hWnd)); ::UpdateWindow(m_hWnd); }

  00056	ff 76 20	 push	 DWORD PTR [esi+32]
  00059	ff 15 00 00 00
	00		 call	 DWORD PTR __imp__UpdateWindow@4
  0005f	5f		 pop	 edi
  00060	5e		 pop	 esi
; File D:\git\src\IBK\IBK_DRFN\ProjSrc\SrcDrfn\Chart\comparechart\control\VirtualListCtrl.cpp

; 788  : }

  00061	5d		 pop	 ebp
  00062	c2 0c 00	 ret	 12			; 0000000cH
?OnSize@CVirtualListCtrl@@IAEXIHH@Z ENDP		; CVirtualListCtrl::OnSize
_TEXT	ENDS
; Function compile flags: /Ogtp
; File D:\git\src\IBK\IBK_DRFN\ProjSrc\SrcDrfn\Chart\comparechart\control\VirtualListCtrl.cpp
; File C:\Program Files (x86)\Microsoft Visual Studio\2019\Community\VC\Tools\MSVC\14.29.30133\atlmfc\include\cstringt.h
; File D:\git\src\IBK\IBK_DRFN\ProjSrc\SrcDrfn\Chart\comparechart\control\VirtualListCtrl.cpp
; File C:\Program Files (x86)\Microsoft Visual Studio\2019\Community\VC\Tools\MSVC\14.29.30133\atlmfc\include\cstringt.h
; File C:\Program Files (x86)\Microsoft Visual Studio\2019\Community\VC\Tools\MSVC\14.29.30133\atlmfc\include\atlsimpstr.h
; File C:\Program Files (x86)\Microsoft Visual Studio\2019\Community\VC\Tools\MSVC\14.29.30133\atlmfc\include\cstringt.h
; File D:\git\src\IBK\IBK_DRFN\ProjSrc\SrcDrfn\Chart\comparechart\control\VirtualListCtrl.cpp
; File C:\Program Files (x86)\Microsoft Visual Studio\2019\Community\VC\Tools\MSVC\14.29.30133\atlmfc\include\cstringt.h
; File C:\Program Files (x86)\Microsoft Visual Studio\2019\Community\VC\Tools\MSVC\14.29.30133\atlmfc\include\atlsimpstr.h
; File C:\Program Files (x86)\Microsoft Visual Studio\2019\Community\VC\Tools\MSVC\14.29.30133\atlmfc\include\cstringt.h
; File D:\git\src\IBK\IBK_DRFN\ProjSrc\SrcDrfn\Chart\comparechart\control\VirtualListCtrl.cpp
; File C:\Program Files (x86)\Microsoft Visual Studio\2019\Community\VC\Tools\MSVC\14.29.30133\atlmfc\include\afxwin2.inl
; File D:\git\src\IBK\IBK_DRFN\ProjSrc\SrcDrfn\Chart\comparechart\control\VirtualListCtrl.cpp
;	COMDAT ?OnDblclk@CVirtualListCtrl@@IAEXPAUtagNMHDR@@PAJ@Z
_TEXT	SEGMENT
$T2 = -28						; size = 4
_Name$ = -24						; size = 4
$T3 = -20						; size = 4
_Code$ = -16						; size = 4
__$EHRec$ = -12						; size = 12
$T4 = 8							; size = 4
$T5 = 8							; size = 4
$T6 = 8							; size = 4
_pNMHDR$ = 8						; size = 4
_pResult$ = 12						; size = 4
?OnDblclk@CVirtualListCtrl@@IAEXPAUtagNMHDR@@PAJ@Z PROC	; CVirtualListCtrl::OnDblclk, COMDAT
; _this$ = ecx

; 712  : {

  00000	55		 push	 ebp
  00001	8b ec		 mov	 ebp, esp
  00003	6a ff		 push	 -1
  00005	68 00 00 00 00	 push	 __ehhandler$?OnDblclk@CVirtualListCtrl@@IAEXPAUtagNMHDR@@PAJ@Z
  0000a	64 a1 00 00 00
	00		 mov	 eax, DWORD PTR fs:0
  00010	50		 push	 eax
  00011	83 ec 10	 sub	 esp, 16			; 00000010H
  00014	56		 push	 esi
  00015	57		 push	 edi
  00016	a1 00 00 00 00	 mov	 eax, DWORD PTR ___security_cookie
  0001b	33 c5		 xor	 eax, ebp
  0001d	50		 push	 eax
  0001e	8d 45 f4	 lea	 eax, DWORD PTR __$EHRec$[ebp]
  00021	64 a3 00 00 00
	00		 mov	 DWORD PTR fs:0, eax
  00027	8b f9		 mov	 edi, ecx

; 713  : 	// TODO: Add your control notification handler code here
; 714  : 	NM_LISTVIEW* pNMListView = (NM_LISTVIEW*)pNMHDR;
; 715  : 	CString Code, Name;

  00029	8d 4d f0	 lea	 ecx, DWORD PTR _Code$[ebp]
  0002c	c7 45 e4 00 00
	00 00		 mov	 DWORD PTR $T2[ebp], 0
  00033	ff 15 00 00 00
	00		 call	 DWORD PTR __imp_??0?$CStringT@DV?$StrTraitMFC_DLL@DV?$ChTraitsCRT@D@ATL@@@@@ATL@@QAE@XZ
  00039	8d 4d e8	 lea	 ecx, DWORD PTR _Name$[ebp]
  0003c	c7 45 fc 00 00
	00 00		 mov	 DWORD PTR __$EHRec$[ebp+8], 0
  00043	ff 15 00 00 00
	00		 call	 DWORD PTR __imp_??0?$CStringT@DV?$StrTraitMFC_DLL@DV?$ChTraitsCRT@D@ATL@@@@@ATL@@QAE@XZ

; 716  : 	Code = GetItemText(pNMListView->iItem, 0);

  00049	8b 75 08	 mov	 esi, DWORD PTR _pNMHDR$[ebp]
  0004c	8d 45 08	 lea	 eax, DWORD PTR $T6[ebp]
  0004f	6a 00		 push	 0
  00051	8b cf		 mov	 ecx, edi
  00053	c6 45 fc 01	 mov	 BYTE PTR __$EHRec$[ebp+8], 1
  00057	ff 76 0c	 push	 DWORD PTR [esi+12]
  0005a	50		 push	 eax
  0005b	e8 00 00 00 00	 call	 ?GetItemText@CListCtrl@@QBE?AV?$CStringT@DV?$StrTraitMFC_DLL@DV?$ChTraitsCRT@D@ATL@@@@@ATL@@HH@Z ; CListCtrl::GetItemText
  00060	50		 push	 eax
  00061	8d 4d f0	 lea	 ecx, DWORD PTR _Code$[ebp]
  00064	c6 45 fc 02	 mov	 BYTE PTR __$EHRec$[ebp+8], 2
  00068	ff 15 00 00 00
	00		 call	 DWORD PTR __imp_??4?$CStringT@DV?$StrTraitMFC_DLL@DV?$ChTraitsCRT@D@ATL@@@@@ATL@@QAEAAV01@ABV01@@Z
  0006e	8d 4d 08	 lea	 ecx, DWORD PTR $T6[ebp]
  00071	c6 45 fc 01	 mov	 BYTE PTR __$EHRec$[ebp+8], 1
  00075	ff 15 00 00 00
	00		 call	 DWORD PTR __imp_??1?$CStringT@DV?$StrTraitMFC_DLL@DV?$ChTraitsCRT@D@ATL@@@@@ATL@@QAE@XZ

; 717  : 	Name = GetItemText(pNMListView->iItem, 1);

  0007b	6a 01		 push	 1
  0007d	ff 76 0c	 push	 DWORD PTR [esi+12]
  00080	8d 45 08	 lea	 eax, DWORD PTR $T5[ebp]
  00083	8b cf		 mov	 ecx, edi
  00085	50		 push	 eax
  00086	e8 00 00 00 00	 call	 ?GetItemText@CListCtrl@@QBE?AV?$CStringT@DV?$StrTraitMFC_DLL@DV?$ChTraitsCRT@D@ATL@@@@@ATL@@HH@Z ; CListCtrl::GetItemText
  0008b	50		 push	 eax
  0008c	8d 4d e8	 lea	 ecx, DWORD PTR _Name$[ebp]
  0008f	c6 45 fc 03	 mov	 BYTE PTR __$EHRec$[ebp+8], 3
  00093	ff 15 00 00 00
	00		 call	 DWORD PTR __imp_??4?$CStringT@DV?$StrTraitMFC_DLL@DV?$ChTraitsCRT@D@ATL@@@@@ATL@@QAEAAV01@ABV01@@Z
  00099	8d 4d 08	 lea	 ecx, DWORD PTR $T5[ebp]
  0009c	ff 15 00 00 00
	00		 call	 DWORD PTR __imp_??1?$CStringT@DV?$StrTraitMFC_DLL@DV?$ChTraitsCRT@D@ATL@@@@@ATL@@QAE@XZ
; File C:\Program Files (x86)\Microsoft Visual Studio\2019\Community\VC\Tools\MSVC\14.29.30133\atlmfc\include\cstringt.h

; 2401 : 		CStringT strResult( str1.GetManager() );

  000a2	8d 4d f0	 lea	 ecx, DWORD PTR _Code$[ebp]
; File D:\git\src\IBK\IBK_DRFN\ProjSrc\SrcDrfn\Chart\comparechart\control\VirtualListCtrl.cpp

; 718  : 	m_strCodeNName = Code + "|" + Name;

  000a5	c6 45 fc 04	 mov	 BYTE PTR __$EHRec$[ebp+8], 4
; File C:\Program Files (x86)\Microsoft Visual Studio\2019\Community\VC\Tools\MSVC\14.29.30133\atlmfc\include\cstringt.h

; 2401 : 		CStringT strResult( str1.GetManager() );

  000a9	ff 15 00 00 00
	00		 call	 DWORD PTR __imp_?GetManager@?$CStringT@DV?$StrTraitMFC_DLL@DV?$ChTraitsCRT@D@ATL@@@@@ATL@@QBEPAUIAtlStringMgr@2@XZ
  000af	50		 push	 eax
  000b0	8d 4d 08	 lea	 ecx, DWORD PTR $T4[ebp]
  000b3	ff 15 00 00 00
	00		 call	 DWORD PTR __imp_??0?$CStringT@DV?$StrTraitMFC_DLL@DV?$ChTraitsCRT@D@ATL@@@@@ATL@@QAE@PAUIAtlStringMgr@1@@Z
; File C:\Program Files (x86)\Microsoft Visual Studio\2019\Community\VC\Tools\MSVC\14.29.30133\atlmfc\include\atlsimpstr.h

; 519  : 		return( GetData()->nDataLength );

  000b9	8b 45 f0	 mov	 eax, DWORD PTR _Code$[ebp]
; File C:\Program Files (x86)\Microsoft Visual Studio\2019\Community\VC\Tools\MSVC\14.29.30133\atlmfc\include\cstringt.h

; 2403 : 		CThisSimpleString::Concatenate( strResult, str1, str1.GetLength(), psz2, CThisSimpleString::StringLength( psz2 ) );

  000bc	6a 01		 push	 1
  000be	68 00 00 00 00	 push	 OFFSET ??_C@_01DNKMNLPK@?$HM@

; 2404 : 
; 2405 : 		return( strResult );

  000c3	c7 45 e4 01 00
	00 00		 mov	 DWORD PTR $T2[ebp], 1
  000ca	ff 70 f4	 push	 DWORD PTR [eax-12]
  000cd	50		 push	 eax
  000ce	8d 45 08	 lea	 eax, DWORD PTR $T4[ebp]
  000d1	50		 push	 eax
  000d2	ff 15 00 00 00
	00		 call	 DWORD PTR __imp_?Concatenate@?$CSimpleStringT@D$00@ATL@@KAXAAV12@PBDH1H@Z
  000d8	83 c4 14	 add	 esp, 20			; 00000014H

; 2390 : 		CStringT strResult( str1.GetManager() );

  000db	8d 4d 08	 lea	 ecx, DWORD PTR $T4[ebp]
; File D:\git\src\IBK\IBK_DRFN\ProjSrc\SrcDrfn\Chart\comparechart\control\VirtualListCtrl.cpp

; 718  : 	m_strCodeNName = Code + "|" + Name;

  000de	c6 45 fc 05	 mov	 BYTE PTR __$EHRec$[ebp+8], 5
; File C:\Program Files (x86)\Microsoft Visual Studio\2019\Community\VC\Tools\MSVC\14.29.30133\atlmfc\include\cstringt.h

; 2390 : 		CStringT strResult( str1.GetManager() );

  000e2	ff 15 00 00 00
	00		 call	 DWORD PTR __imp_?GetManager@?$CStringT@DV?$StrTraitMFC_DLL@DV?$ChTraitsCRT@D@ATL@@@@@ATL@@QBEPAUIAtlStringMgr@2@XZ
  000e8	50		 push	 eax
  000e9	8d 4d ec	 lea	 ecx, DWORD PTR $T3[ebp]
  000ec	ff 15 00 00 00
	00		 call	 DWORD PTR __imp_??0?$CStringT@DV?$StrTraitMFC_DLL@DV?$ChTraitsCRT@D@ATL@@@@@ATL@@QAE@PAUIAtlStringMgr@1@@Z
; File C:\Program Files (x86)\Microsoft Visual Studio\2019\Community\VC\Tools\MSVC\14.29.30133\atlmfc\include\atlsimpstr.h

; 519  : 		return( GetData()->nDataLength );

  000f2	8b 45 e8	 mov	 eax, DWORD PTR _Name$[ebp]
  000f5	8b 4d 08	 mov	 ecx, DWORD PTR $T4[ebp]
; File C:\Program Files (x86)\Microsoft Visual Studio\2019\Community\VC\Tools\MSVC\14.29.30133\atlmfc\include\cstringt.h

; 2394 : 		return( strResult );

  000f8	c7 45 e4 03 00
	00 00		 mov	 DWORD PTR $T2[ebp], 3
  000ff	ff 70 f4	 push	 DWORD PTR [eax-12]
  00102	50		 push	 eax
  00103	ff 71 f4	 push	 DWORD PTR [ecx-12]
  00106	8d 45 ec	 lea	 eax, DWORD PTR $T3[ebp]
  00109	51		 push	 ecx
  0010a	50		 push	 eax
  0010b	ff 15 00 00 00
	00		 call	 DWORD PTR __imp_?Concatenate@?$CSimpleStringT@D$00@ATL@@KAXAAV12@PBDH1H@Z
  00111	83 c4 14	 add	 esp, 20			; 00000014H
; File D:\git\src\IBK\IBK_DRFN\ProjSrc\SrcDrfn\Chart\comparechart\control\VirtualListCtrl.cpp

; 718  : 	m_strCodeNName = Code + "|" + Name;

  00114	8d 45 ec	 lea	 eax, DWORD PTR $T3[ebp]
  00117	8d 8f 8c 00 00
	00		 lea	 ecx, DWORD PTR [edi+140]
  0011d	50		 push	 eax
  0011e	ff 15 00 00 00
	00		 call	 DWORD PTR __imp_??4?$CStringT@DV?$StrTraitMFC_DLL@DV?$ChTraitsCRT@D@ATL@@@@@ATL@@QAEAAV01@ABV01@@Z
  00124	8d 4d ec	 lea	 ecx, DWORD PTR $T3[ebp]
  00127	ff 15 00 00 00
	00		 call	 DWORD PTR __imp_??1?$CStringT@DV?$StrTraitMFC_DLL@DV?$ChTraitsCRT@D@ATL@@@@@ATL@@QAE@XZ
  0012d	8d 4d 08	 lea	 ecx, DWORD PTR $T4[ebp]
  00130	c6 45 fc 01	 mov	 BYTE PTR __$EHRec$[ebp+8], 1
  00134	ff 15 00 00 00
	00		 call	 DWORD PTR __imp_??1?$CStringT@DV?$StrTraitMFC_DLL@DV?$ChTraitsCRT@D@ATL@@@@@ATL@@QAE@XZ
; File C:\Program Files (x86)\Microsoft Visual Studio\2019\Community\VC\Tools\MSVC\14.29.30133\atlmfc\include\afxwin2.inl

; 213  : 	{ ASSERT(::IsWindow(m_hWnd)); return CWnd::FromHandle(::GetParent(m_hWnd)); }

  0013a	ff 77 20	 push	 DWORD PTR [edi+32]
  0013d	ff 15 00 00 00
	00		 call	 DWORD PTR __imp__GetParent@4
  00143	50		 push	 eax
  00144	e8 00 00 00 00	 call	 ?FromHandle@CWnd@@SGPAV1@PAUHWND__@@@Z ; CWnd::FromHandle

; 25   : 	{ return this == NULL ? NULL : m_hWnd; }

  00149	85 c0		 test	 eax, eax
  0014b	74 03		 je	 SHORT $LN43@OnDblclk
$LN42@OnDblclk:
  0014d	8b 40 20	 mov	 eax, DWORD PTR [eax+32]
$LN43@OnDblclk:
; File D:\git\src\IBK\IBK_DRFN\ProjSrc\SrcDrfn\Chart\comparechart\control\VirtualListCtrl.cpp

; 720  : 	::SendMessage(GetParent()->GetSafeHwnd(), UMSG_ADDITEM_BTNCLICK, 0, 0);

  00150	6a 00		 push	 0
  00152	6a 00		 push	 0
  00154	68 58 04 00 00	 push	 1112			; 00000458H
  00159	50		 push	 eax
  0015a	ff 15 00 00 00
	00		 call	 DWORD PTR __imp__SendMessageA@16

; 721  : 	*pResult = 0;

  00160	8b 45 0c	 mov	 eax, DWORD PTR _pResult$[ebp]

; 722  : }

  00163	8d 4d e8	 lea	 ecx, DWORD PTR _Name$[ebp]
  00166	c7 00 00 00 00
	00		 mov	 DWORD PTR [eax], 0
  0016c	ff 15 00 00 00
	00		 call	 DWORD PTR __imp_??1?$CStringT@DV?$StrTraitMFC_DLL@DV?$ChTraitsCRT@D@ATL@@@@@ATL@@QAE@XZ
  00172	8d 4d f0	 lea	 ecx, DWORD PTR _Code$[ebp]
  00175	ff 15 00 00 00
	00		 call	 DWORD PTR __imp_??1?$CStringT@DV?$StrTraitMFC_DLL@DV?$ChTraitsCRT@D@ATL@@@@@ATL@@QAE@XZ
  0017b	8b 4d f4	 mov	 ecx, DWORD PTR __$EHRec$[ebp]
  0017e	64 89 0d 00 00
	00 00		 mov	 DWORD PTR fs:0, ecx
  00185	59		 pop	 ecx
  00186	5f		 pop	 edi
  00187	5e		 pop	 esi
  00188	8b e5		 mov	 esp, ebp
  0018a	5d		 pop	 ebp
  0018b	c2 08 00	 ret	 8
_TEXT	ENDS
;	COMDAT text$x
text$x	SEGMENT
__unwindfunclet$?OnDblclk@CVirtualListCtrl@@IAEXPAUtagNMHDR@@PAJ@Z$0:
  00000	8d 4d f0	 lea	 ecx, DWORD PTR _Code$[ebp]
  00003	ff 25 00 00 00
	00		 jmp	 DWORD PTR __imp_??1?$CStringT@DV?$StrTraitMFC_DLL@DV?$ChTraitsCRT@D@ATL@@@@@ATL@@QAE@XZ
__unwindfunclet$?OnDblclk@CVirtualListCtrl@@IAEXPAUtagNMHDR@@PAJ@Z$1:
  00009	8d 4d e8	 lea	 ecx, DWORD PTR _Name$[ebp]
  0000c	ff 25 00 00 00
	00		 jmp	 DWORD PTR __imp_??1?$CStringT@DV?$StrTraitMFC_DLL@DV?$ChTraitsCRT@D@ATL@@@@@ATL@@QAE@XZ
__unwindfunclet$?OnDblclk@CVirtualListCtrl@@IAEXPAUtagNMHDR@@PAJ@Z$2:
  00012	8d 4d 08	 lea	 ecx, DWORD PTR $T6[ebp]
  00015	ff 25 00 00 00
	00		 jmp	 DWORD PTR __imp_??1?$CStringT@DV?$StrTraitMFC_DLL@DV?$ChTraitsCRT@D@ATL@@@@@ATL@@QAE@XZ
__unwindfunclet$?OnDblclk@CVirtualListCtrl@@IAEXPAUtagNMHDR@@PAJ@Z$3:
  0001b	8d 4d 08	 lea	 ecx, DWORD PTR $T5[ebp]
  0001e	ff 25 00 00 00
	00		 jmp	 DWORD PTR __imp_??1?$CStringT@DV?$StrTraitMFC_DLL@DV?$ChTraitsCRT@D@ATL@@@@@ATL@@QAE@XZ
__unwindfunclet$?OnDblclk@CVirtualListCtrl@@IAEXPAUtagNMHDR@@PAJ@Z$6:
  00024	8b 45 e4	 mov	 eax, DWORD PTR $T2[ebp]
  00027	83 e0 01	 and	 eax, 1
  0002a	0f 84 0d 00 00
	00		 je	 $LN12@OnDblclk
  00030	83 65 e4 fe	 and	 DWORD PTR $T2[ebp], -2	; fffffffeH
  00034	8d 4d 08	 lea	 ecx, DWORD PTR $T4[ebp]
  00037	ff 25 00 00 00
	00		 jmp	 DWORD PTR __imp_??1?$CStringT@DV?$StrTraitMFC_DLL@DV?$ChTraitsCRT@D@ATL@@@@@ATL@@QAE@XZ
$LN12@OnDblclk:
  0003d	c3		 ret	 0
__unwindfunclet$?OnDblclk@CVirtualListCtrl@@IAEXPAUtagNMHDR@@PAJ@Z$7:
  0003e	8b 45 e4	 mov	 eax, DWORD PTR $T2[ebp]
  00041	83 e0 02	 and	 eax, 2
  00044	0f 84 0d 00 00
	00		 je	 $LN25@OnDblclk
  0004a	83 65 e4 fd	 and	 DWORD PTR $T2[ebp], -3	; fffffffdH
  0004e	8d 4d ec	 lea	 ecx, DWORD PTR $T3[ebp]
  00051	ff 25 00 00 00
	00		 jmp	 DWORD PTR __imp_??1?$CStringT@DV?$StrTraitMFC_DLL@DV?$ChTraitsCRT@D@ATL@@@@@ATL@@QAE@XZ
$LN25@OnDblclk:
  00057	c3		 ret	 0
  00058	cc		 int	 3
  00059	cc		 int	 3
  0005a	cc		 int	 3
  0005b	cc		 int	 3
  0005c	cc		 int	 3
__ehhandler$?OnDblclk@CVirtualListCtrl@@IAEXPAUtagNMHDR@@PAJ@Z:
  0005d	90		 npad	 1
  0005e	90		 npad	 1
  0005f	8b 54 24 08	 mov	 edx, DWORD PTR [esp+8]
  00063	8d 42 0c	 lea	 eax, DWORD PTR [edx+12]
  00066	8b 4a e4	 mov	 ecx, DWORD PTR [edx-28]
  00069	33 c8		 xor	 ecx, eax
  0006b	e8 00 00 00 00	 call	 @__security_check_cookie@4
  00070	b8 00 00 00 00	 mov	 eax, OFFSET __ehfuncinfo$?OnDblclk@CVirtualListCtrl@@IAEXPAUtagNMHDR@@PAJ@Z
  00075	e9 00 00 00 00	 jmp	 ___CxxFrameHandler3
text$x	ENDS
?OnDblclk@CVirtualListCtrl@@IAEXPAUtagNMHDR@@PAJ@Z ENDP	; CVirtualListCtrl::OnDblclk
; Function compile flags: /Ogtp
; File D:\git\src\IBK\IBK_DRFN\ProjSrc\SrcDrfn\Chart\comparechart\control\VirtualListCtrl.cpp
; File C:\Program Files (x86)\Microsoft Visual Studio\2019\Community\VC\Tools\MSVC\14.29.30133\atlmfc\include\cstringt.h
; File D:\git\src\IBK\IBK_DRFN\ProjSrc\SrcDrfn\Chart\comparechart\control\VirtualListCtrl.cpp
; File C:\Program Files (x86)\Microsoft Visual Studio\2019\Community\VC\Tools\MSVC\14.29.30133\atlmfc\include\cstringt.h
; File C:\Program Files (x86)\Microsoft Visual Studio\2019\Community\VC\Tools\MSVC\14.29.30133\atlmfc\include\atlsimpstr.h
; File C:\Program Files (x86)\Microsoft Visual Studio\2019\Community\VC\Tools\MSVC\14.29.30133\atlmfc\include\cstringt.h
; File D:\git\src\IBK\IBK_DRFN\ProjSrc\SrcDrfn\Chart\comparechart\control\VirtualListCtrl.cpp
; File C:\Program Files (x86)\Microsoft Visual Studio\2019\Community\VC\Tools\MSVC\14.29.30133\atlmfc\include\cstringt.h
; File D:\git\src\IBK\IBK_DRFN\ProjSrc\SrcDrfn\Chart\comparechart\control\VirtualListCtrl.cpp
;	COMDAT ?OnItemchanged@CVirtualListCtrl@@IAEXPAUtagNMHDR@@PAJ@Z
_TEXT	SEGMENT
$T2 = -28						; size = 4
_Name$ = -24						; size = 4
$T3 = -20						; size = 4
_Code$ = -16						; size = 4
__$EHRec$ = -12						; size = 12
$T4 = 8							; size = 4
$T5 = 8							; size = 4
$T6 = 8							; size = 4
_pNMHDR$ = 8						; size = 4
_pResult$ = 12						; size = 4
?OnItemchanged@CVirtualListCtrl@@IAEXPAUtagNMHDR@@PAJ@Z PROC ; CVirtualListCtrl::OnItemchanged, COMDAT
; _this$ = ecx

; 701  : {

  00000	55		 push	 ebp
  00001	8b ec		 mov	 ebp, esp
  00003	6a ff		 push	 -1
  00005	68 00 00 00 00	 push	 __ehhandler$?OnItemchanged@CVirtualListCtrl@@IAEXPAUtagNMHDR@@PAJ@Z
  0000a	64 a1 00 00 00
	00		 mov	 eax, DWORD PTR fs:0
  00010	50		 push	 eax
  00011	83 ec 10	 sub	 esp, 16			; 00000010H
  00014	56		 push	 esi
  00015	57		 push	 edi
  00016	a1 00 00 00 00	 mov	 eax, DWORD PTR ___security_cookie
  0001b	33 c5		 xor	 eax, ebp
  0001d	50		 push	 eax
  0001e	8d 45 f4	 lea	 eax, DWORD PTR __$EHRec$[ebp]
  00021	64 a3 00 00 00
	00		 mov	 DWORD PTR fs:0, eax
  00027	8b f9		 mov	 edi, ecx

; 702  : 	NM_LISTVIEW* pNMListView = (NM_LISTVIEW*)pNMHDR;
; 703  : 	CString Code, Name;

  00029	8d 4d f0	 lea	 ecx, DWORD PTR _Code$[ebp]
  0002c	c7 45 e4 00 00
	00 00		 mov	 DWORD PTR $T2[ebp], 0
  00033	ff 15 00 00 00
	00		 call	 DWORD PTR __imp_??0?$CStringT@DV?$StrTraitMFC_DLL@DV?$ChTraitsCRT@D@ATL@@@@@ATL@@QAE@XZ
  00039	8d 4d e8	 lea	 ecx, DWORD PTR _Name$[ebp]
  0003c	c7 45 fc 00 00
	00 00		 mov	 DWORD PTR __$EHRec$[ebp+8], 0
  00043	ff 15 00 00 00
	00		 call	 DWORD PTR __imp_??0?$CStringT@DV?$StrTraitMFC_DLL@DV?$ChTraitsCRT@D@ATL@@@@@ATL@@QAE@XZ

; 704  : 	Code = GetItemText(pNMListView->iItem, 0);

  00049	8b 75 08	 mov	 esi, DWORD PTR _pNMHDR$[ebp]
  0004c	8d 45 08	 lea	 eax, DWORD PTR $T6[ebp]
  0004f	6a 00		 push	 0
  00051	8b cf		 mov	 ecx, edi
  00053	c6 45 fc 01	 mov	 BYTE PTR __$EHRec$[ebp+8], 1
  00057	ff 76 0c	 push	 DWORD PTR [esi+12]
  0005a	50		 push	 eax
  0005b	e8 00 00 00 00	 call	 ?GetItemText@CListCtrl@@QBE?AV?$CStringT@DV?$StrTraitMFC_DLL@DV?$ChTraitsCRT@D@ATL@@@@@ATL@@HH@Z ; CListCtrl::GetItemText
  00060	50		 push	 eax
  00061	8d 4d f0	 lea	 ecx, DWORD PTR _Code$[ebp]
  00064	c6 45 fc 02	 mov	 BYTE PTR __$EHRec$[ebp+8], 2
  00068	ff 15 00 00 00
	00		 call	 DWORD PTR __imp_??4?$CStringT@DV?$StrTraitMFC_DLL@DV?$ChTraitsCRT@D@ATL@@@@@ATL@@QAEAAV01@ABV01@@Z
  0006e	8d 4d 08	 lea	 ecx, DWORD PTR $T6[ebp]
  00071	c6 45 fc 01	 mov	 BYTE PTR __$EHRec$[ebp+8], 1
  00075	ff 15 00 00 00
	00		 call	 DWORD PTR __imp_??1?$CStringT@DV?$StrTraitMFC_DLL@DV?$ChTraitsCRT@D@ATL@@@@@ATL@@QAE@XZ

; 705  : 	Name = GetItemText(pNMListView->iItem, 1);

  0007b	6a 01		 push	 1
  0007d	ff 76 0c	 push	 DWORD PTR [esi+12]
  00080	8d 45 08	 lea	 eax, DWORD PTR $T5[ebp]
  00083	8b cf		 mov	 ecx, edi
  00085	50		 push	 eax
  00086	e8 00 00 00 00	 call	 ?GetItemText@CListCtrl@@QBE?AV?$CStringT@DV?$StrTraitMFC_DLL@DV?$ChTraitsCRT@D@ATL@@@@@ATL@@HH@Z ; CListCtrl::GetItemText
  0008b	50		 push	 eax
  0008c	8d 4d e8	 lea	 ecx, DWORD PTR _Name$[ebp]
  0008f	c6 45 fc 03	 mov	 BYTE PTR __$EHRec$[ebp+8], 3
  00093	ff 15 00 00 00
	00		 call	 DWORD PTR __imp_??4?$CStringT@DV?$StrTraitMFC_DLL@DV?$ChTraitsCRT@D@ATL@@@@@ATL@@QAEAAV01@ABV01@@Z
  00099	8d 4d 08	 lea	 ecx, DWORD PTR $T5[ebp]
  0009c	ff 15 00 00 00
	00		 call	 DWORD PTR __imp_??1?$CStringT@DV?$StrTraitMFC_DLL@DV?$ChTraitsCRT@D@ATL@@@@@ATL@@QAE@XZ
; File C:\Program Files (x86)\Microsoft Visual Studio\2019\Community\VC\Tools\MSVC\14.29.30133\atlmfc\include\cstringt.h

; 2401 : 		CStringT strResult( str1.GetManager() );

  000a2	8d 4d f0	 lea	 ecx, DWORD PTR _Code$[ebp]
; File D:\git\src\IBK\IBK_DRFN\ProjSrc\SrcDrfn\Chart\comparechart\control\VirtualListCtrl.cpp

; 706  : 	m_strCodeNName = Code + "|" + Name;

  000a5	c6 45 fc 04	 mov	 BYTE PTR __$EHRec$[ebp+8], 4
; File C:\Program Files (x86)\Microsoft Visual Studio\2019\Community\VC\Tools\MSVC\14.29.30133\atlmfc\include\cstringt.h

; 2401 : 		CStringT strResult( str1.GetManager() );

  000a9	ff 15 00 00 00
	00		 call	 DWORD PTR __imp_?GetManager@?$CStringT@DV?$StrTraitMFC_DLL@DV?$ChTraitsCRT@D@ATL@@@@@ATL@@QBEPAUIAtlStringMgr@2@XZ
  000af	50		 push	 eax
  000b0	8d 4d 08	 lea	 ecx, DWORD PTR $T4[ebp]
  000b3	ff 15 00 00 00
	00		 call	 DWORD PTR __imp_??0?$CStringT@DV?$StrTraitMFC_DLL@DV?$ChTraitsCRT@D@ATL@@@@@ATL@@QAE@PAUIAtlStringMgr@1@@Z
; File C:\Program Files (x86)\Microsoft Visual Studio\2019\Community\VC\Tools\MSVC\14.29.30133\atlmfc\include\atlsimpstr.h

; 519  : 		return( GetData()->nDataLength );

  000b9	8b 45 f0	 mov	 eax, DWORD PTR _Code$[ebp]
; File C:\Program Files (x86)\Microsoft Visual Studio\2019\Community\VC\Tools\MSVC\14.29.30133\atlmfc\include\cstringt.h

; 2403 : 		CThisSimpleString::Concatenate( strResult, str1, str1.GetLength(), psz2, CThisSimpleString::StringLength( psz2 ) );

  000bc	6a 01		 push	 1
  000be	68 00 00 00 00	 push	 OFFSET ??_C@_01DNKMNLPK@?$HM@

; 2404 : 
; 2405 : 		return( strResult );

  000c3	c7 45 e4 01 00
	00 00		 mov	 DWORD PTR $T2[ebp], 1
  000ca	ff 70 f4	 push	 DWORD PTR [eax-12]
  000cd	50		 push	 eax
  000ce	8d 45 08	 lea	 eax, DWORD PTR $T4[ebp]
  000d1	50		 push	 eax
  000d2	ff 15 00 00 00
	00		 call	 DWORD PTR __imp_?Concatenate@?$CSimpleStringT@D$00@ATL@@KAXAAV12@PBDH1H@Z
  000d8	83 c4 14	 add	 esp, 20			; 00000014H

; 2390 : 		CStringT strResult( str1.GetManager() );

  000db	8d 4d 08	 lea	 ecx, DWORD PTR $T4[ebp]
; File D:\git\src\IBK\IBK_DRFN\ProjSrc\SrcDrfn\Chart\comparechart\control\VirtualListCtrl.cpp

; 706  : 	m_strCodeNName = Code + "|" + Name;

  000de	c6 45 fc 05	 mov	 BYTE PTR __$EHRec$[ebp+8], 5
; File C:\Program Files (x86)\Microsoft Visual Studio\2019\Community\VC\Tools\MSVC\14.29.30133\atlmfc\include\cstringt.h

; 2390 : 		CStringT strResult( str1.GetManager() );

  000e2	ff 15 00 00 00
	00		 call	 DWORD PTR __imp_?GetManager@?$CStringT@DV?$StrTraitMFC_DLL@DV?$ChTraitsCRT@D@ATL@@@@@ATL@@QBEPAUIAtlStringMgr@2@XZ
  000e8	50		 push	 eax
  000e9	8d 4d ec	 lea	 ecx, DWORD PTR $T3[ebp]
  000ec	ff 15 00 00 00
	00		 call	 DWORD PTR __imp_??0?$CStringT@DV?$StrTraitMFC_DLL@DV?$ChTraitsCRT@D@ATL@@@@@ATL@@QAE@PAUIAtlStringMgr@1@@Z

; 2391 : 
; 2392 : 		CThisSimpleString::Concatenate( strResult, str1, str1.GetLength(), str2, str2.GetLength() );

  000f2	8b 45 e8	 mov	 eax, DWORD PTR _Name$[ebp]

; 2393 : 
; 2394 : 		return( strResult );

  000f5	c7 45 e4 03 00
	00 00		 mov	 DWORD PTR $T2[ebp], 3
  000fc	ff 70 f4	 push	 DWORD PTR [eax-12]
  000ff	50		 push	 eax
  00100	8b 45 08	 mov	 eax, DWORD PTR $T4[ebp]
  00103	ff 70 f4	 push	 DWORD PTR [eax-12]
  00106	50		 push	 eax
  00107	8d 45 ec	 lea	 eax, DWORD PTR $T3[ebp]
  0010a	50		 push	 eax
  0010b	ff 15 00 00 00
	00		 call	 DWORD PTR __imp_?Concatenate@?$CSimpleStringT@D$00@ATL@@KAXAAV12@PBDH1H@Z
  00111	83 c4 14	 add	 esp, 20			; 00000014H
; File D:\git\src\IBK\IBK_DRFN\ProjSrc\SrcDrfn\Chart\comparechart\control\VirtualListCtrl.cpp

; 706  : 	m_strCodeNName = Code + "|" + Name;

  00114	8d 45 ec	 lea	 eax, DWORD PTR $T3[ebp]
  00117	8d 8f 8c 00 00
	00		 lea	 ecx, DWORD PTR [edi+140]
  0011d	50		 push	 eax
  0011e	ff 15 00 00 00
	00		 call	 DWORD PTR __imp_??4?$CStringT@DV?$StrTraitMFC_DLL@DV?$ChTraitsCRT@D@ATL@@@@@ATL@@QAEAAV01@ABV01@@Z
  00124	8d 4d ec	 lea	 ecx, DWORD PTR $T3[ebp]
  00127	ff 15 00 00 00
	00		 call	 DWORD PTR __imp_??1?$CStringT@DV?$StrTraitMFC_DLL@DV?$ChTraitsCRT@D@ATL@@@@@ATL@@QAE@XZ
  0012d	8d 4d 08	 lea	 ecx, DWORD PTR $T4[ebp]
  00130	ff 15 00 00 00
	00		 call	 DWORD PTR __imp_??1?$CStringT@DV?$StrTraitMFC_DLL@DV?$ChTraitsCRT@D@ATL@@@@@ATL@@QAE@XZ

; 707  : 	*pResult = 0;

  00136	8b 45 0c	 mov	 eax, DWORD PTR _pResult$[ebp]

; 708  : }

  00139	8d 4d e8	 lea	 ecx, DWORD PTR _Name$[ebp]
  0013c	c7 00 00 00 00
	00		 mov	 DWORD PTR [eax], 0
  00142	ff 15 00 00 00
	00		 call	 DWORD PTR __imp_??1?$CStringT@DV?$StrTraitMFC_DLL@DV?$ChTraitsCRT@D@ATL@@@@@ATL@@QAE@XZ
  00148	8d 4d f0	 lea	 ecx, DWORD PTR _Code$[ebp]
  0014b	ff 15 00 00 00
	00		 call	 DWORD PTR __imp_??1?$CStringT@DV?$StrTraitMFC_DLL@DV?$ChTraitsCRT@D@ATL@@@@@ATL@@QAE@XZ
  00151	8b 4d f4	 mov	 ecx, DWORD PTR __$EHRec$[ebp]
  00154	64 89 0d 00 00
	00 00		 mov	 DWORD PTR fs:0, ecx
  0015b	59		 pop	 ecx
  0015c	5f		 pop	 edi
  0015d	5e		 pop	 esi
  0015e	8b e5		 mov	 esp, ebp
  00160	5d		 pop	 ebp
  00161	c2 08 00	 ret	 8
_TEXT	ENDS
;	COMDAT text$x
text$x	SEGMENT
__unwindfunclet$?OnItemchanged@CVirtualListCtrl@@IAEXPAUtagNMHDR@@PAJ@Z$0:
  00000	8d 4d f0	 lea	 ecx, DWORD PTR _Code$[ebp]
  00003	ff 25 00 00 00
	00		 jmp	 DWORD PTR __imp_??1?$CStringT@DV?$StrTraitMFC_DLL@DV?$ChTraitsCRT@D@ATL@@@@@ATL@@QAE@XZ
__unwindfunclet$?OnItemchanged@CVirtualListCtrl@@IAEXPAUtagNMHDR@@PAJ@Z$1:
  00009	8d 4d e8	 lea	 ecx, DWORD PTR _Name$[ebp]
  0000c	ff 25 00 00 00
	00		 jmp	 DWORD PTR __imp_??1?$CStringT@DV?$StrTraitMFC_DLL@DV?$ChTraitsCRT@D@ATL@@@@@ATL@@QAE@XZ
__unwindfunclet$?OnItemchanged@CVirtualListCtrl@@IAEXPAUtagNMHDR@@PAJ@Z$2:
  00012	8d 4d 08	 lea	 ecx, DWORD PTR $T6[ebp]
  00015	ff 25 00 00 00
	00		 jmp	 DWORD PTR __imp_??1?$CStringT@DV?$StrTraitMFC_DLL@DV?$ChTraitsCRT@D@ATL@@@@@ATL@@QAE@XZ
__unwindfunclet$?OnItemchanged@CVirtualListCtrl@@IAEXPAUtagNMHDR@@PAJ@Z$3:
  0001b	8d 4d 08	 lea	 ecx, DWORD PTR $T5[ebp]
  0001e	ff 25 00 00 00
	00		 jmp	 DWORD PTR __imp_??1?$CStringT@DV?$StrTraitMFC_DLL@DV?$ChTraitsCRT@D@ATL@@@@@ATL@@QAE@XZ
__unwindfunclet$?OnItemchanged@CVirtualListCtrl@@IAEXPAUtagNMHDR@@PAJ@Z$6:
  00024	8b 45 e4	 mov	 eax, DWORD PTR $T2[ebp]
  00027	83 e0 01	 and	 eax, 1
  0002a	0f 84 0d 00 00
	00		 je	 $LN12@OnItemchan
  00030	83 65 e4 fe	 and	 DWORD PTR $T2[ebp], -2	; fffffffeH
  00034	8d 4d 08	 lea	 ecx, DWORD PTR $T4[ebp]
  00037	ff 25 00 00 00
	00		 jmp	 DWORD PTR __imp_??1?$CStringT@DV?$StrTraitMFC_DLL@DV?$ChTraitsCRT@D@ATL@@@@@ATL@@QAE@XZ
$LN12@OnItemchan:
  0003d	c3		 ret	 0
__unwindfunclet$?OnItemchanged@CVirtualListCtrl@@IAEXPAUtagNMHDR@@PAJ@Z$7:
  0003e	8b 45 e4	 mov	 eax, DWORD PTR $T2[ebp]
  00041	83 e0 02	 and	 eax, 2
  00044	0f 84 0d 00 00
	00		 je	 $LN25@OnItemchan
  0004a	83 65 e4 fd	 and	 DWORD PTR $T2[ebp], -3	; fffffffdH
  0004e	8d 4d ec	 lea	 ecx, DWORD PTR $T3[ebp]
  00051	ff 25 00 00 00
	00		 jmp	 DWORD PTR __imp_??1?$CStringT@DV?$StrTraitMFC_DLL@DV?$ChTraitsCRT@D@ATL@@@@@ATL@@QAE@XZ
$LN25@OnItemchan:
  00057	c3		 ret	 0
  00058	cc		 int	 3
  00059	cc		 int	 3
  0005a	cc		 int	 3
  0005b	cc		 int	 3
  0005c	cc		 int	 3
__ehhandler$?OnItemchanged@CVirtualListCtrl@@IAEXPAUtagNMHDR@@PAJ@Z:
  0005d	90		 npad	 1
  0005e	90		 npad	 1
  0005f	8b 54 24 08	 mov	 edx, DWORD PTR [esp+8]
  00063	8d 42 0c	 lea	 eax, DWORD PTR [edx+12]
  00066	8b 4a e4	 mov	 ecx, DWORD PTR [edx-28]
  00069	33 c8		 xor	 ecx, eax
  0006b	e8 00 00 00 00	 call	 @__security_check_cookie@4
  00070	b8 00 00 00 00	 mov	 eax, OFFSET __ehfuncinfo$?OnItemchanged@CVirtualListCtrl@@IAEXPAUtagNMHDR@@PAJ@Z
  00075	e9 00 00 00 00	 jmp	 ___CxxFrameHandler3
text$x	ENDS
?OnItemchanged@CVirtualListCtrl@@IAEXPAUtagNMHDR@@PAJ@Z ENDP ; CVirtualListCtrl::OnItemchanged
; Function compile flags: /Ogtp
; File D:\git\src\IBK\IBK_DRFN\ProjSrc\SrcDrfn\Chart\comparechart\control\VirtualListCtrl.cpp
; File C:\Program Files (x86)\Microsoft Visual Studio\2019\Community\VC\Tools\MSVC\14.29.30133\atlmfc\include\afxwin2.inl
; File D:\git\src\IBK\IBK_DRFN\ProjSrc\SrcDrfn\Chart\comparechart\control\VirtualListCtrl.cpp
;	COMDAT ?OnColumnclick@CVirtualListCtrl@@IAEXPAUtagNMHDR@@PAJ@Z
_TEXT	SEGMENT
_pNMHDR$ = 8						; size = 4
_pResult$ = 12						; size = 4
?OnColumnclick@CVirtualListCtrl@@IAEXPAUtagNMHDR@@PAJ@Z PROC ; CVirtualListCtrl::OnColumnclick, COMDAT
; _this$ = ecx

; 588  : {

  00000	55		 push	 ebp
  00001	8b ec		 mov	 ebp, esp

; 589  : 	NM_LISTVIEW* pNMListView = (NM_LISTVIEW*)pNMHDR;
; 590  : 	// TODO: Add your control notification handler code here
; 591  : 	if( m_nFindCol == pNMListView->iSubItem )

  00003	8b 45 08	 mov	 eax, DWORD PTR _pNMHDR$[ebp]
  00006	56		 push	 esi
  00007	8b f1		 mov	 esi, ecx
  00009	8b 48 10	 mov	 ecx, DWORD PTR [eax+16]
  0000c	39 8e 84 00 00
	00		 cmp	 DWORD PTR [esi+132], ecx
  00012	74 37		 je	 SHORT $LN9@OnColumncl

; 592  : 	{
; 593  : 		*pResult = 0;
; 594  : 		return;
; 595  : 	}
; 596  : 	//DeleteAllItems();
; 597  : 	if(m_nListDataType == STOCK ||

  00014	8b 86 80 00 00
	00		 mov	 eax, DWORD PTR [esi+128]
  0001a	85 c0		 test	 eax, eax
  0001c	74 05		 je	 SHORT $LN4@OnColumncl
  0001e	83 f8 03	 cmp	 eax, 3
  00021	75 28		 jne	 SHORT $LN9@OnColumncl
$LN4@OnColumncl:

; 598  : 	   m_nListDataType == FOREIGN )
; 599  : 	{
; 600  : 		g_nSelCol = m_nFindCol = pNMListView->iSubItem;
; 601  : 		SortArray(m_AllArray);

  00023	8d 86 08 01 00
	00		 lea	 eax, DWORD PTR [esi+264]
  00029	89 8e 84 00 00
	00		 mov	 DWORD PTR [esi+132], ecx
  0002f	50		 push	 eax
  00030	89 0d 00 00 00
	00		 mov	 DWORD PTR ?g_nSelCol@@3HA, ecx ; g_nSelCol
  00036	e8 00 00 00 00	 call	 ?SortArray@@YAXAAV?$CArray@PAU__MASTERCODE@@PAU1@@@@Z ; SortArray
  0003b	83 c4 04	 add	 esp, 4
; File C:\Program Files (x86)\Microsoft Visual Studio\2019\Community\VC\Tools\MSVC\14.29.30133\atlmfc\include\afxwin2.inl

; 114  : 	{ ASSERT(::IsWindow(m_hWnd)); ::InvalidateRect(m_hWnd, NULL, bErase); }

  0003e	6a 01		 push	 1
  00040	6a 00		 push	 0
  00042	ff 76 20	 push	 DWORD PTR [esi+32]
  00045	ff 15 00 00 00
	00		 call	 DWORD PTR __imp__InvalidateRect@12
$LN9@OnColumncl:
; File D:\git\src\IBK\IBK_DRFN\ProjSrc\SrcDrfn\Chart\comparechart\control\VirtualListCtrl.cpp

; 606  : }

  0004b	8b 45 0c	 mov	 eax, DWORD PTR _pResult$[ebp]
  0004e	5e		 pop	 esi
  0004f	c7 00 00 00 00
	00		 mov	 DWORD PTR [eax], 0
  00055	5d		 pop	 ebp
  00056	c2 08 00	 ret	 8
?OnColumnclick@CVirtualListCtrl@@IAEXPAUtagNMHDR@@PAJ@Z ENDP ; CVirtualListCtrl::OnColumnclick
_TEXT	ENDS
; Function compile flags: /Ogtp
; File D:\git\src\IBK\IBK_DRFN\ProjSrc\SrcDrfn\Chart\comparechart\control\VirtualListCtrl.cpp
; File C:\Program Files (x86)\Microsoft Visual Studio\2019\Community\VC\Tools\MSVC\14.29.30133\atlmfc\include\afxcoll.inl
; File D:\git\src\IBK\IBK_DRFN\ProjSrc\SrcDrfn\Chart\comparechart\control\VirtualListCtrl.cpp
; File C:\Program Files (x86)\Microsoft Visual Studio\2019\Community\VC\Tools\MSVC\14.29.30133\atlmfc\include\afxcoll.inl
; File D:\git\src\IBK\IBK_DRFN\ProjSrc\SrcDrfn\Chart\comparechart\control\VirtualListCtrl.cpp
; File C:\Program Files (x86)\Microsoft Visual Studio\2019\Community\VC\Tools\MSVC\14.29.30133\atlmfc\include\afxcoll.inl
; File D:\git\src\IBK\IBK_DRFN\ProjSrc\SrcDrfn\Chart\comparechart\control\VirtualListCtrl.cpp
; File C:\Program Files (x86)\Microsoft Visual Studio\2019\Community\VC\Tools\MSVC\14.29.30133\atlmfc\include\afxcoll.inl
; File C:\Program Files (x86)\Microsoft Visual Studio\2019\Community\VC\Tools\MSVC\14.29.30133\atlmfc\include\afxcmn.inl
; File D:\git\src\IBK\IBK_DRFN\ProjSrc\SrcDrfn\Chart\comparechart\control\VirtualListCtrl.cpp
; File C:\Program Files (x86)\Microsoft Visual Studio\2019\Community\VC\Tools\MSVC\14.29.30133\atlmfc\include\afxtempl.h
; File D:\git\src\IBK\IBK_DRFN\ProjSrc\SrcDrfn\Chart\comparechart\control\VirtualListCtrl.cpp
; File C:\Program Files (x86)\Microsoft Visual Studio\2019\Community\VC\Tools\MSVC\14.29.30133\atlmfc\include\afxtempl.h
; File D:\git\src\IBK\IBK_DRFN\ProjSrc\SrcDrfn\Chart\comparechart\control\VirtualListCtrl.cpp
; File C:\Program Files (x86)\Microsoft Visual Studio\2019\Community\VC\Tools\MSVC\14.29.30133\atlmfc\include\afxtempl.h
; File D:\git\src\IBK\IBK_DRFN\ProjSrc\SrcDrfn\Chart\comparechart\control\VirtualListCtrl.cpp
;	COMDAT ?OnDestroy@CVirtualListCtrl@@IAEXXZ
_TEXT	SEGMENT
?OnDestroy@CVirtualListCtrl@@IAEXXZ PROC		; CVirtualListCtrl::OnDestroy, COMDAT
; _this$ = ecx

; 83   : {

  00000	53		 push	 ebx
  00001	56		 push	 esi
  00002	8b d9		 mov	 ebx, ecx

; 84   : 	CListCtrl::OnDestroy();

  00004	e8 00 00 00 00	 call	 ?OnDestroy@CWnd@@IAEXXZ	; CWnd::OnDestroy
; File C:\Program Files (x86)\Microsoft Visual Studio\2019\Community\VC\Tools\MSVC\14.29.30133\atlmfc\include\afxcoll.inl

; 286  : 	{ SetSize(0); }

  00009	6a ff		 push	 -1
  0000b	6a 00		 push	 0
; File D:\git\src\IBK\IBK_DRFN\ProjSrc\SrcDrfn\Chart\comparechart\control\VirtualListCtrl.cpp

; 86   : 	m_arrCode.RemoveAll();

  0000d	8d 8b b8 00 00
	00		 lea	 ecx, DWORD PTR [ebx+184]
; File C:\Program Files (x86)\Microsoft Visual Studio\2019\Community\VC\Tools\MSVC\14.29.30133\atlmfc\include\afxcoll.inl

; 286  : 	{ SetSize(0); }

  00013	e8 00 00 00 00	 call	 ?SetSize@CStringArray@@QAEXHH@Z ; CStringArray::SetSize
  00018	6a ff		 push	 -1
  0001a	6a 00		 push	 0
; File D:\git\src\IBK\IBK_DRFN\ProjSrc\SrcDrfn\Chart\comparechart\control\VirtualListCtrl.cpp

; 87   : 	m_arrKor.RemoveAll();

  0001c	8d 8b 90 00 00
	00		 lea	 ecx, DWORD PTR [ebx+144]
; File C:\Program Files (x86)\Microsoft Visual Studio\2019\Community\VC\Tools\MSVC\14.29.30133\atlmfc\include\afxcoll.inl

; 286  : 	{ SetSize(0); }

  00022	e8 00 00 00 00	 call	 ?SetSize@CStringArray@@QAEXHH@Z ; CStringArray::SetSize
  00027	6a ff		 push	 -1
  00029	6a 00		 push	 0
; File D:\git\src\IBK\IBK_DRFN\ProjSrc\SrcDrfn\Chart\comparechart\control\VirtualListCtrl.cpp

; 88   : 	m_arrEng.RemoveAll();

  0002b	8d 8b a4 00 00
	00		 lea	 ecx, DWORD PTR [ebx+164]
; File C:\Program Files (x86)\Microsoft Visual Studio\2019\Community\VC\Tools\MSVC\14.29.30133\atlmfc\include\afxcoll.inl

; 286  : 	{ SetSize(0); }

  00031	e8 00 00 00 00	 call	 ?SetSize@CStringArray@@QAEXHH@Z ; CStringArray::SetSize
; File C:\Program Files (x86)\Microsoft Visual Studio\2019\Community\VC\Tools\MSVC\14.29.30133\atlmfc\include\afxcmn.inl

; 171  : 	{ ASSERT(::IsWindow(m_hWnd)); return (BOOL) ::SendMessage(m_hWnd, LVM_DELETEALLITEMS, 0, 0L); }

  00036	6a 00		 push	 0
  00038	6a 00		 push	 0
  0003a	68 09 10 00 00	 push	 4105			; 00001009H
  0003f	ff 73 20	 push	 DWORD PTR [ebx+32]
  00042	ff 15 00 00 00
	00		 call	 DWORD PTR __imp__SendMessageA@16
; File D:\git\src\IBK\IBK_DRFN\ProjSrc\SrcDrfn\Chart\comparechart\control\VirtualListCtrl.cpp

; 92   : 	for( int i = 0; i < m_AllArray.GetSize(); i++)

  00048	8b 83 10 01 00
	00		 mov	 eax, DWORD PTR [ebx+272]
  0004e	33 f6		 xor	 esi, esi
  00050	85 c0		 test	 eax, eax
  00052	7e 47		 jle	 SHORT $LN3@OnDestroy
  00054	57		 push	 edi
$LL4@OnDestroy:
; File C:\Program Files (x86)\Microsoft Visual Studio\2019\Community\VC\Tools\MSVC\14.29.30133\atlmfc\include\afxtempl.h

; 288  : 	if(nIndex >= 0 && nIndex < m_nSize)

  00055	85 f6		 test	 esi, esi
  00057	78 76		 js	 SHORT $LN17@OnDestroy
  00059	3b f0		 cmp	 esi, eax
  0005b	7d 72		 jge	 SHORT $LN17@OnDestroy
; File D:\git\src\IBK\IBK_DRFN\ProjSrc\SrcDrfn\Chart\comparechart\control\VirtualListCtrl.cpp

; 93   : 		delete m_AllArray.GetAt(i);

  0005d	8b 83 0c 01 00
	00		 mov	 eax, DWORD PTR [ebx+268]
  00063	8b 3c b0	 mov	 edi, DWORD PTR [eax+esi*4]
  00066	85 ff		 test	 edi, edi
  00068	74 25		 je	 SHORT $LN2@OnDestroy
  0006a	8d 4f 08	 lea	 ecx, DWORD PTR [edi+8]
  0006d	ff 15 00 00 00
	00		 call	 DWORD PTR __imp_??1?$CStringT@DV?$StrTraitMFC_DLL@DV?$ChTraitsCRT@D@ATL@@@@@ATL@@QAE@XZ
  00073	8d 4f 04	 lea	 ecx, DWORD PTR [edi+4]
  00076	ff 15 00 00 00
	00		 call	 DWORD PTR __imp_??1?$CStringT@DV?$StrTraitMFC_DLL@DV?$ChTraitsCRT@D@ATL@@@@@ATL@@QAE@XZ
  0007c	8b cf		 mov	 ecx, edi
  0007e	ff 15 00 00 00
	00		 call	 DWORD PTR __imp_??1?$CStringT@DV?$StrTraitMFC_DLL@DV?$ChTraitsCRT@D@ATL@@@@@ATL@@QAE@XZ
  00084	6a 0c		 push	 12			; 0000000cH
  00086	57		 push	 edi
  00087	e8 00 00 00 00	 call	 ??3@YAXPAXI@Z		; operator delete
  0008c	83 c4 08	 add	 esp, 8
$LN2@OnDestroy:

; 92   : 	for( int i = 0; i < m_AllArray.GetSize(); i++)

  0008f	8b 83 10 01 00
	00		 mov	 eax, DWORD PTR [ebx+272]
  00095	46		 inc	 esi
  00096	3b f0		 cmp	 esi, eax
  00098	7c bb		 jl	 SHORT $LL4@OnDestroy
  0009a	5f		 pop	 edi
$LN3@OnDestroy:
; File C:\Program Files (x86)\Microsoft Visual Studio\2019\Community\VC\Tools\MSVC\14.29.30133\atlmfc\include\afxtempl.h

; 381  : 		if (m_pData != NULL)

  0009b	8b 83 0c 01 00
	00		 mov	 eax, DWORD PTR [ebx+268]
  000a1	85 c0		 test	 eax, eax
  000a3	74 13		 je	 SHORT $LN48@OnDestroy

; 382  : 		{
; 383  : 			for( int i = 0; i < m_nSize; i++ )
; 384  : 				(m_pData + i)->~TYPE();
; 385  : 			delete[] (BYTE*)m_pData;

  000a5	50		 push	 eax
  000a6	e8 00 00 00 00	 call	 ??_V@YAXPAX@Z		; operator delete[]
  000ab	83 c4 04	 add	 esp, 4

; 386  : 			m_pData = NULL;

  000ae	c7 83 0c 01 00
	00 00 00 00 00	 mov	 DWORD PTR [ebx+268], 0
$LN48@OnDestroy:

; 387  : 		}
; 388  : 		m_nSize = m_nMaxSize = 0;

  000b8	5e		 pop	 esi
  000b9	c7 83 14 01 00
	00 00 00 00 00	 mov	 DWORD PTR [ebx+276], 0
  000c3	c7 83 10 01 00
	00 00 00 00 00	 mov	 DWORD PTR [ebx+272], 0
  000cd	5b		 pop	 ebx
; File D:\git\src\IBK\IBK_DRFN\ProjSrc\SrcDrfn\Chart\comparechart\control\VirtualListCtrl.cpp

; 97   : }

  000ce	c3		 ret	 0
$LN17@OnDestroy:
; File C:\Program Files (x86)\Microsoft Visual Studio\2019\Community\VC\Tools\MSVC\14.29.30133\atlmfc\include\afxtempl.h

; 290  : 	AfxThrowInvalidArgException();

  000cf	e8 00 00 00 00	 call	 ?AfxThrowInvalidArgException@@YGXXZ ; AfxThrowInvalidArgException
$LN96@OnDestroy:
  000d4	cc		 int	 3
?OnDestroy@CVirtualListCtrl@@IAEXXZ ENDP		; CVirtualListCtrl::OnDestroy
_TEXT	ENDS
; Function compile flags: /Ogtp
; File D:\git\src\IBK\IBK_DRFN\ProjSrc\SrcDrfn\Chart\comparechart\control\VirtualListCtrl.cpp
; File C:\Program Files (x86)\Microsoft Visual Studio\2019\Community\VC\Tools\MSVC\14.29.30133\atlmfc\include\afxtempl.h
; File D:\git\src\IBK\IBK_DRFN\ProjSrc\SrcDrfn\Chart\comparechart\control\VirtualListCtrl.cpp
; File C:\Program Files (x86)\Microsoft Visual Studio\2019\Community\VC\Tools\MSVC\14.29.30133\atlmfc\include\afxtempl.h
; File D:\git\src\IBK\IBK_DRFN\ProjSrc\SrcDrfn\Chart\comparechart\control\VirtualListCtrl.cpp
; File C:\Program Files (x86)\Microsoft Visual Studio\2019\Community\VC\Tools\MSVC\14.29.30133\atlmfc\include\afxtempl.h
; File D:\git\src\IBK\IBK_DRFN\ProjSrc\SrcDrfn\Chart\comparechart\control\VirtualListCtrl.cpp
;	COMDAT ?OnGetdispinfo@CVirtualListCtrl@@IAEXPAUtagNMHDR@@PAJ@Z
_TEXT	SEGMENT
_text$ = -16						; size = 4
__$EHRec$ = -12						; size = 12
_pNMHDR$ = 8						; size = 4
_pResult$ = 12						; size = 4
?OnGetdispinfo@CVirtualListCtrl@@IAEXPAUtagNMHDR@@PAJ@Z PROC ; CVirtualListCtrl::OnGetdispinfo, COMDAT
; _this$ = ecx

; 47   : {

  00000	55		 push	 ebp
  00001	8b ec		 mov	 ebp, esp
  00003	6a ff		 push	 -1
  00005	68 00 00 00 00	 push	 __ehhandler$?OnGetdispinfo@CVirtualListCtrl@@IAEXPAUtagNMHDR@@PAJ@Z
  0000a	64 a1 00 00 00
	00		 mov	 eax, DWORD PTR fs:0
  00010	50		 push	 eax
  00011	51		 push	 ecx
  00012	56		 push	 esi
  00013	57		 push	 edi
  00014	a1 00 00 00 00	 mov	 eax, DWORD PTR ___security_cookie
  00019	33 c5		 xor	 eax, ebp
  0001b	50		 push	 eax
  0001c	8d 45 f4	 lea	 eax, DWORD PTR __$EHRec$[ebp]
  0001f	64 a3 00 00 00
	00		 mov	 DWORD PTR fs:0, eax
  00025	8b f1		 mov	 esi, ecx

; 48   : 	LV_DISPINFO* pDispInfo = (LV_DISPINFO*)pNMHDR;	
; 49   : 	LV_ITEM* pItem= &(pDispInfo)->item;
; 50   : 
; 51   : 	if(m_AllArray.GetSize() <= 0) 

  00027	83 be 10 01 00
	00 00		 cmp	 DWORD PTR [esi+272], 0
  0002e	7f 1c		 jg	 SHORT $LN2@OnGetdispi

; 52   : 	{
; 53   : 		*pResult = 0;

  00030	8b 45 0c	 mov	 eax, DWORD PTR _pResult$[ebp]
  00033	c7 00 00 00 00
	00		 mov	 DWORD PTR [eax], 0

; 80   : }

  00039	8b 4d f4	 mov	 ecx, DWORD PTR __$EHRec$[ebp]
  0003c	64 89 0d 00 00
	00 00		 mov	 DWORD PTR fs:0, ecx
  00043	59		 pop	 ecx
  00044	5f		 pop	 edi
  00045	5e		 pop	 esi
  00046	8b e5		 mov	 esp, ebp
  00048	5d		 pop	 ebp
  00049	c2 08 00	 ret	 8
$LN2@OnGetdispi:

; 54   : 		return;
; 55   : 	}
; 56   : 	//Which column?	
; 57   : 	CString text;

  0004c	8d 4d f0	 lea	 ecx, DWORD PTR _text$[ebp]
  0004f	ff 15 00 00 00
	00		 call	 DWORD PTR __imp_??0?$CStringT@DV?$StrTraitMFC_DLL@DV?$ChTraitsCRT@D@ATL@@@@@ATL@@QAE@XZ

; 58   : 	MASTERCODE* pCode = NULL;
; 59   : 	if(pItem->iSubItem == 0)

  00055	8b 7d 08	 mov	 edi, DWORD PTR _pNMHDR$[ebp]
  00058	c7 45 fc 00 00
	00 00		 mov	 DWORD PTR __$EHRec$[ebp+8], 0
  0005f	8b 47 14	 mov	 eax, DWORD PTR [edi+20]
  00062	85 c0		 test	 eax, eax
  00064	75 21		 jne	 SHORT $LN3@OnGetdispi

; 62   : 		pCode = (MASTERCODE*)m_AllArray.GetAt(pItem->iItem);

  00066	8b 4f 10	 mov	 ecx, DWORD PTR [edi+16]
; File C:\Program Files (x86)\Microsoft Visual Studio\2019\Community\VC\Tools\MSVC\14.29.30133\atlmfc\include\afxtempl.h

; 288  : 	if(nIndex >= 0 && nIndex < m_nSize)

  00069	85 c9		 test	 ecx, ecx
  0006b	78 70		 js	 SHORT $LN16@OnGetdispi
  0006d	3b 8e 10 01 00
	00		 cmp	 ecx, DWORD PTR [esi+272]
  00073	7d 68		 jge	 SHORT $LN16@OnGetdispi
; File D:\git\src\IBK\IBK_DRFN\ProjSrc\SrcDrfn\Chart\comparechart\control\VirtualListCtrl.cpp

; 62   : 		pCode = (MASTERCODE*)m_AllArray.GetAt(pItem->iItem);

  00075	8b 86 0c 01 00
	00		 mov	 eax, DWORD PTR [esi+268]
  0007b	8b 04 88	 mov	 eax, DWORD PTR [eax+ecx*4]

; 63   : 		if(pCode != NULL)

  0007e	85 c0		 test	 eax, eax
  00080	74 36		 je	 SHORT $LN8@OnGetdispi

; 64   : 			text = pCode->strKor;

  00082	83 c0 04	 add	 eax, 4

; 65   : 	}

  00085	eb 21		 jmp	 SHORT $LN22@OnGetdispi
$LN3@OnGetdispi:

; 66   : 	else if (pItem->iSubItem == 1)

  00087	83 f8 01	 cmp	 eax, 1
  0008a	75 2c		 jne	 SHORT $LN8@OnGetdispi

; 69   : 		pCode = (MASTERCODE*)m_AllArray.GetAt(pItem->iItem);

  0008c	8b 4f 10	 mov	 ecx, DWORD PTR [edi+16]
; File C:\Program Files (x86)\Microsoft Visual Studio\2019\Community\VC\Tools\MSVC\14.29.30133\atlmfc\include\afxtempl.h

; 288  : 	if(nIndex >= 0 && nIndex < m_nSize)

  0008f	85 c9		 test	 ecx, ecx
  00091	78 4a		 js	 SHORT $LN16@OnGetdispi
  00093	3b 8e 10 01 00
	00		 cmp	 ecx, DWORD PTR [esi+272]
  00099	7d 42		 jge	 SHORT $LN16@OnGetdispi
; File D:\git\src\IBK\IBK_DRFN\ProjSrc\SrcDrfn\Chart\comparechart\control\VirtualListCtrl.cpp

; 69   : 		pCode = (MASTERCODE*)m_AllArray.GetAt(pItem->iItem);

  0009b	8b 86 0c 01 00
	00		 mov	 eax, DWORD PTR [esi+268]
  000a1	8b 04 88	 mov	 eax, DWORD PTR [eax+ecx*4]

; 70   : 		if(pCode != NULL)

  000a4	85 c0		 test	 eax, eax
  000a6	74 10		 je	 SHORT $LN8@OnGetdispi
$LN22@OnGetdispi:

; 71   : 			text = pCode->strCode;
; 72   : 	}
; 73   : 
; 74   : 	if(pCode != NULL)
; 75   : 		pItem->pszText = (LPTSTR)(LPCTSTR)text;

  000a8	50		 push	 eax
  000a9	8d 4d f0	 lea	 ecx, DWORD PTR _text$[ebp]
  000ac	ff 15 00 00 00
	00		 call	 DWORD PTR __imp_??4?$CStringT@DV?$StrTraitMFC_DLL@DV?$ChTraitsCRT@D@ATL@@@@@ATL@@QAEAAV01@ABV01@@Z
  000b2	8b 45 f0	 mov	 eax, DWORD PTR _text$[ebp]
  000b5	89 47 20	 mov	 DWORD PTR [edi+32], eax
$LN8@OnGetdispi:

; 76   : 	
; 77   : 	//pItem->pszText = (LPTSTR)(LPCTSTR)m_strCodeList.GetAt(m_strCodeList.FindIndex(pItem->iItem));		
; 78   : 
; 79   : 	*pResult = 0;

  000b8	8b 45 0c	 mov	 eax, DWORD PTR _pResult$[ebp]

; 80   : }

  000bb	8d 4d f0	 lea	 ecx, DWORD PTR _text$[ebp]
  000be	c7 00 00 00 00
	00		 mov	 DWORD PTR [eax], 0
  000c4	ff 15 00 00 00
	00		 call	 DWORD PTR __imp_??1?$CStringT@DV?$StrTraitMFC_DLL@DV?$ChTraitsCRT@D@ATL@@@@@ATL@@QAE@XZ
  000ca	8b 4d f4	 mov	 ecx, DWORD PTR __$EHRec$[ebp]
  000cd	64 89 0d 00 00
	00 00		 mov	 DWORD PTR fs:0, ecx
  000d4	59		 pop	 ecx
  000d5	5f		 pop	 edi
  000d6	5e		 pop	 esi
  000d7	8b e5		 mov	 esp, ebp
  000d9	5d		 pop	 ebp
  000da	c2 08 00	 ret	 8
$LN16@OnGetdispi:
; File C:\Program Files (x86)\Microsoft Visual Studio\2019\Community\VC\Tools\MSVC\14.29.30133\atlmfc\include\afxtempl.h

; 290  : 	AfxThrowInvalidArgException();

  000dd	e8 00 00 00 00	 call	 ?AfxThrowInvalidArgException@@YGXXZ ; AfxThrowInvalidArgException
$LN21@OnGetdispi:
  000e2	cc		 int	 3
_TEXT	ENDS
;	COMDAT text$x
text$x	SEGMENT
__unwindfunclet$?OnGetdispinfo@CVirtualListCtrl@@IAEXPAUtagNMHDR@@PAJ@Z$0:
  00000	8d 4d f0	 lea	 ecx, DWORD PTR _text$[ebp]
  00003	ff 25 00 00 00
	00		 jmp	 DWORD PTR __imp_??1?$CStringT@DV?$StrTraitMFC_DLL@DV?$ChTraitsCRT@D@ATL@@@@@ATL@@QAE@XZ
  00009	cc		 int	 3
  0000a	cc		 int	 3
  0000b	cc		 int	 3
  0000c	cc		 int	 3
  0000d	cc		 int	 3
__ehhandler$?OnGetdispinfo@CVirtualListCtrl@@IAEXPAUtagNMHDR@@PAJ@Z:
  0000e	90		 npad	 1
  0000f	90		 npad	 1
  00010	8b 54 24 08	 mov	 edx, DWORD PTR [esp+8]
  00014	8d 42 0c	 lea	 eax, DWORD PTR [edx+12]
  00017	8b 4a f0	 mov	 ecx, DWORD PTR [edx-16]
  0001a	33 c8		 xor	 ecx, eax
  0001c	e8 00 00 00 00	 call	 @__security_check_cookie@4
  00021	b8 00 00 00 00	 mov	 eax, OFFSET __ehfuncinfo$?OnGetdispinfo@CVirtualListCtrl@@IAEXPAUtagNMHDR@@PAJ@Z
  00026	e9 00 00 00 00	 jmp	 ___CxxFrameHandler3
text$x	ENDS
?OnGetdispinfo@CVirtualListCtrl@@IAEXPAUtagNMHDR@@PAJ@Z ENDP ; CVirtualListCtrl::OnGetdispinfo
; Function compile flags: /Ogtp
; File D:\git\src\IBK\IBK_DRFN\ProjSrc\SrcDrfn\Chart\comparechart\control\VirtualListCtrl.cpp
; File C:\Program Files (x86)\Microsoft Visual Studio\2019\Community\VC\Tools\MSVC\14.29.30133\atlmfc\include\afxwin1.inl
; File C:\Program Files (x86)\Microsoft Visual Studio\2019\Community\VC\Tools\MSVC\14.29.30133\atlmfc\include\afxcmn.inl
; File D:\git\src\IBK\IBK_DRFN\ProjSrc\SrcDrfn\Chart\comparechart\control\VirtualListCtrl.cpp
; File C:\Program Files (x86)\Microsoft Visual Studio\2019\Community\VC\Tools\MSVC\14.29.30133\atlmfc\include\afxcmn.inl
; File D:\git\src\IBK\IBK_DRFN\ProjSrc\SrcDrfn\Chart\comparechart\control\VirtualListCtrl.cpp
;	COMDAT ?SetRowHeight@CVirtualListCtrl@@QAEXF@Z
_TEXT	SEGMENT
_nHeight$ = 8						; size = 2
?SetRowHeight@CVirtualListCtrl@@QAEXF@Z PROC		; CVirtualListCtrl::SetRowHeight, COMDAT
; _this$ = ecx

; 792  : {

  00000	55		 push	 ebp
  00001	8b ec		 mov	 ebp, esp

; 793  : 	m_ImageList.Create(1,nHeight,ILC_COLOR,1,1);

  00003	0f bf 45 08	 movsx	 eax, WORD PTR _nHeight$[ebp]
  00007	56		 push	 esi
  00008	57		 push	 edi
  00009	6a 01		 push	 1
  0000b	8b f9		 mov	 edi, ecx
  0000d	6a 01		 push	 1
  0000f	6a 00		 push	 0
  00011	50		 push	 eax
  00012	8d b7 20 01 00
	00		 lea	 esi, DWORD PTR [edi+288]
  00018	6a 01		 push	 1
  0001a	8b ce		 mov	 ecx, esi
  0001c	e8 00 00 00 00	 call	 ?Create@CImageList@@QAEHHHIHH@Z ; CImageList::Create
; File C:\Program Files (x86)\Microsoft Visual Studio\2019\Community\VC\Tools\MSVC\14.29.30133\atlmfc\include\afxwin1.inl

; 853  : 	{ return (this == NULL) ? NULL : m_hImageList; }

  00021	85 f6		 test	 esi, esi
  00023	75 04		 jne	 SHORT $LN7@SetRowHeig
  00025	33 c0		 xor	 eax, eax
  00027	eb 03		 jmp	 SHORT $LN8@SetRowHeig
$LN7@SetRowHeig:
  00029	8b 46 04	 mov	 eax, DWORD PTR [esi+4]
$LN8@SetRowHeig:
; File C:\Program Files (x86)\Microsoft Visual Studio\2019\Community\VC\Tools\MSVC\14.29.30133\atlmfc\include\afxcmn.inl

; 153  : 	{ ASSERT(::IsWindow(m_hWnd)); return CImageList::FromHandle((HIMAGELIST) ::SendMessage(m_hWnd, LVM_SETIMAGELIST, nImageList, (LPARAM)pImageList->GetSafeHandle())); }

  0002c	50		 push	 eax
  0002d	6a 01		 push	 1
  0002f	68 03 10 00 00	 push	 4099			; 00001003H
  00034	ff 77 20	 push	 DWORD PTR [edi+32]
  00037	ff 15 00 00 00
	00		 call	 DWORD PTR __imp__SendMessageA@16
  0003d	5f		 pop	 edi
  0003e	5e		 pop	 esi
  0003f	89 45 08	 mov	 DWORD PTR _nHeight$[ebp], eax
; File D:\git\src\IBK\IBK_DRFN\ProjSrc\SrcDrfn\Chart\comparechart\control\VirtualListCtrl.cpp

; 795  : }

  00042	5d		 pop	 ebp
; File C:\Program Files (x86)\Microsoft Visual Studio\2019\Community\VC\Tools\MSVC\14.29.30133\atlmfc\include\afxcmn.inl

; 153  : 	{ ASSERT(::IsWindow(m_hWnd)); return CImageList::FromHandle((HIMAGELIST) ::SendMessage(m_hWnd, LVM_SETIMAGELIST, nImageList, (LPARAM)pImageList->GetSafeHandle())); }

  00043	e9 00 00 00 00	 jmp	 ?FromHandle@CImageList@@SGPAV1@PAU_IMAGELIST@@@Z ; CImageList::FromHandle
?SetRowHeight@CVirtualListCtrl@@QAEXF@Z ENDP		; CVirtualListCtrl::SetRowHeight
_TEXT	ENDS
; Function compile flags: /Ogtp
; File D:\git\src\IBK\IBK_DRFN\ProjSrc\SrcDrfn\Chart\comparechart\control\VirtualListCtrl.cpp
; File C:\Program Files (x86)\Microsoft Visual Studio\2019\Community\VC\Tools\MSVC\14.29.30133\atlmfc\include\afxtempl.h
; File D:\git\src\IBK\IBK_DRFN\ProjSrc\SrcDrfn\Chart\comparechart\control\VirtualListCtrl.cpp
;	COMDAT ??1CVirtualListCtrl@@UAE@XZ
_TEXT	SEGMENT
??1CVirtualListCtrl@@UAE@XZ PROC			; CVirtualListCtrl::~CVirtualListCtrl, COMDAT
; _this$ = ecx

; 28   : {

  00000	56		 push	 esi
  00001	8b f1		 mov	 esi, ecx

; 29   : }

  00003	8d 8e 20 01 00
	00		 lea	 ecx, DWORD PTR [esi+288]
  00009	c7 06 00 00 00
	00		 mov	 DWORD PTR [esi], OFFSET ??_7CVirtualListCtrl@@6B@
  0000f	e8 00 00 00 00	 call	 ??1CImageList@@UAE@XZ	; CImageList::~CImageList
; File C:\Program Files (x86)\Microsoft Visual Studio\2019\Community\VC\Tools\MSVC\14.29.30133\atlmfc\include\afxtempl.h

; 358  : 	if (m_pData != NULL)

  00014	8b 86 0c 01 00
	00		 mov	 eax, DWORD PTR [esi+268]
  0001a	c7 86 08 01 00
	00 00 00 00 00	 mov	 DWORD PTR [esi+264], OFFSET ??_7?$CArray@PAU__MASTERCODE@@PAU1@@@6B@
  00024	85 c0		 test	 eax, eax
  00026	74 13		 je	 SHORT $LN7@CVirtualLi

; 359  : 	{
; 360  : 		for( int i = 0; i < m_nSize; i++ )

  00028	83 be 10 01 00
	00 00		 cmp	 DWORD PTR [esi+272], 0
  0002f	0f 4f c0	 cmovg	 eax, eax

; 361  : 			(m_pData + i)->~TYPE();
; 362  : 		delete[] (BYTE*)m_pData;

  00032	50		 push	 eax
  00033	e8 00 00 00 00	 call	 ??_V@YAXPAX@Z		; operator delete[]
  00038	83 c4 04	 add	 esp, 4
$LN7@CVirtualLi:

; 358  : 	if (m_pData != NULL)

  0003b	8b 86 f8 00 00
	00		 mov	 eax, DWORD PTR [esi+248]
  00041	c7 86 f4 00 00
	00 00 00 00 00	 mov	 DWORD PTR [esi+244], OFFSET ??_7?$CArray@PAU__MASTERCODE@@PAU1@@@6B@
  0004b	85 c0		 test	 eax, eax
  0004d	74 13		 je	 SHORT $LN14@CVirtualLi

; 359  : 	{
; 360  : 		for( int i = 0; i < m_nSize; i++ )

  0004f	83 be fc 00 00
	00 00		 cmp	 DWORD PTR [esi+252], 0
  00056	0f 4f c0	 cmovg	 eax, eax

; 361  : 			(m_pData + i)->~TYPE();
; 362  : 		delete[] (BYTE*)m_pData;

  00059	50		 push	 eax
  0005a	e8 00 00 00 00	 call	 ??_V@YAXPAX@Z		; operator delete[]
  0005f	83 c4 04	 add	 esp, 4
$LN14@CVirtualLi:

; 358  : 	if (m_pData != NULL)

  00062	8b 86 e4 00 00
	00		 mov	 eax, DWORD PTR [esi+228]
  00068	c7 86 e0 00 00
	00 00 00 00 00	 mov	 DWORD PTR [esi+224], OFFSET ??_7?$CArray@PAU__MASTERCODE@@PAU1@@@6B@
  00072	85 c0		 test	 eax, eax
  00074	74 13		 je	 SHORT $LN21@CVirtualLi

; 359  : 	{
; 360  : 		for( int i = 0; i < m_nSize; i++ )

  00076	83 be e8 00 00
	00 00		 cmp	 DWORD PTR [esi+232], 0
  0007d	0f 4f c0	 cmovg	 eax, eax

; 361  : 			(m_pData + i)->~TYPE();
; 362  : 		delete[] (BYTE*)m_pData;

  00080	50		 push	 eax
  00081	e8 00 00 00 00	 call	 ??_V@YAXPAX@Z		; operator delete[]
  00086	83 c4 04	 add	 esp, 4
$LN21@CVirtualLi:
; File D:\git\src\IBK\IBK_DRFN\ProjSrc\SrcDrfn\Chart\comparechart\control\VirtualListCtrl.cpp

; 29   : }

  00089	8d 8e cc 00 00
	00		 lea	 ecx, DWORD PTR [esi+204]
  0008f	e8 00 00 00 00	 call	 ??1CStringArray@@UAE@XZ	; CStringArray::~CStringArray
  00094	8d 8e b8 00 00
	00		 lea	 ecx, DWORD PTR [esi+184]
  0009a	e8 00 00 00 00	 call	 ??1CStringArray@@UAE@XZ	; CStringArray::~CStringArray
  0009f	8d 8e a4 00 00
	00		 lea	 ecx, DWORD PTR [esi+164]
  000a5	e8 00 00 00 00	 call	 ??1CStringArray@@UAE@XZ	; CStringArray::~CStringArray
  000aa	8d 8e 90 00 00
	00		 lea	 ecx, DWORD PTR [esi+144]
  000b0	e8 00 00 00 00	 call	 ??1CStringArray@@UAE@XZ	; CStringArray::~CStringArray
  000b5	8d 8e 8c 00 00
	00		 lea	 ecx, DWORD PTR [esi+140]
  000bb	ff 15 00 00 00
	00		 call	 DWORD PTR __imp_??1?$CStringT@DV?$StrTraitMFC_DLL@DV?$ChTraitsCRT@D@ATL@@@@@ATL@@QAE@XZ
  000c1	8d 8e 88 00 00
	00		 lea	 ecx, DWORD PTR [esi+136]
  000c7	ff 15 00 00 00
	00		 call	 DWORD PTR __imp_??1?$CStringT@DV?$StrTraitMFC_DLL@DV?$ChTraitsCRT@D@ATL@@@@@ATL@@QAE@XZ
  000cd	8b ce		 mov	 ecx, esi
  000cf	5e		 pop	 esi
  000d0	e9 00 00 00 00	 jmp	 ??1CListCtrl@@UAE@XZ	; CListCtrl::~CListCtrl
??1CVirtualListCtrl@@UAE@XZ ENDP			; CVirtualListCtrl::~CVirtualListCtrl
_TEXT	ENDS
; Function compile flags: /Ogtp
; File D:\git\src\IBK\IBK_DRFN\ProjSrc\SrcDrfn\Chart\comparechart\control\VirtualListCtrl.cpp
; File C:\Program Files (x86)\Microsoft Visual Studio\2019\Community\VC\Tools\MSVC\14.29.30133\atlmfc\include\afxwin2.inl
; File D:\git\src\IBK\IBK_DRFN\ProjSrc\SrcDrfn\Chart\comparechart\control\VirtualListCtrl.cpp
; File C:\Program Files (x86)\Microsoft Visual Studio\2019\Community\VC\Tools\MSVC\14.29.30133\atlmfc\include\afxwin2.inl
; File D:\git\src\IBK\IBK_DRFN\ProjSrc\SrcDrfn\Chart\comparechart\control\VirtualListCtrl.cpp
; File C:\Program Files (x86)\Microsoft Visual Studio\2019\Community\VC\Tools\MSVC\14.29.30133\atlmfc\include\afxwin2.inl
; File D:\git\src\IBK\IBK_DRFN\ProjSrc\SrcDrfn\Chart\comparechart\control\VirtualListCtrl.cpp
; File C:\Program Files (x86)\Microsoft Visual Studio\2019\Community\VC\Tools\MSVC\14.29.30133\atlmfc\include\afxwin2.inl
; File D:\git\src\IBK\IBK_DRFN\ProjSrc\SrcDrfn\Chart\comparechart\control\VirtualListCtrl.cpp
;	COMDAT ?SetTopIndex@CVirtualListCtrl@@QAEXH@Z
_TEXT	SEGMENT
_nLine$1$ = -40						; size = 4
_nLine$2$ = -36						; size = 4
_sInfo$ = -32						; size = 28
__$ArrayPad$ = -4					; size = 4
_nIndex$ = 8						; size = 4
?SetTopIndex@CVirtualListCtrl@@QAEXH@Z PROC		; CVirtualListCtrl::SetTopIndex, COMDAT
; _this$ = ecx

; 560  : {

  00000	55		 push	 ebp
  00001	8b ec		 mov	 ebp, esp
  00003	83 ec 28	 sub	 esp, 40			; 00000028H
  00006	a1 00 00 00 00	 mov	 eax, DWORD PTR ___security_cookie
  0000b	33 c5		 xor	 eax, ebp
  0000d	89 45 fc	 mov	 DWORD PTR __$ArrayPad$[ebp], eax
  00010	53		 push	 ebx
  00011	56		 push	 esi
  00012	57		 push	 edi

; 561  : 	int nPage, nLine;
; 562  : 	int i = 0;
; 563  : 	SCROLLINFO	sInfo;
; 564  : 	GetScrollInfo(SB_VERT, &sInfo);

  00013	6a 17		 push	 23			; 00000017H
  00015	8d 45 e0	 lea	 eax, DWORD PTR _sInfo$[ebp]
  00018	8b f1		 mov	 esi, ecx
  0001a	50		 push	 eax
  0001b	6a 01		 push	 1
  0001d	e8 00 00 00 00	 call	 ?GetScrollInfo@CWnd@@QAEHHPAUtagSCROLLINFO@@I@Z ; CWnd::GetScrollInfo

; 565  : 	int pos = GetScrollPos(SB_VERT);

  00022	6a 01		 push	 1
  00024	8b ce		 mov	 ecx, esi
  00026	e8 00 00 00 00	 call	 ?GetScrollPos@CWnd@@QBEHH@Z ; CWnd::GetScrollPos

; 566  : 	
; 567  : 	if (pos < nIndex)	{

  0002b	8b 4d 08	 mov	 ecx, DWORD PTR _nIndex$[ebp]
  0002e	33 d2		 xor	 edx, edx
  00030	8b 1d 00 00 00
	00		 mov	 ebx, DWORD PTR __imp__SendMessageA@16
  00036	3b c1		 cmp	 eax, ecx
  00038	7d 5c		 jge	 SHORT $LN14@SetTopInde

; 568  : 		nPage = (nIndex-pos)/sInfo.nPage;

  0003a	2b c8		 sub	 ecx, eax
  0003c	8b c1		 mov	 eax, ecx
  0003e	f7 75 f0	 div	 DWORD PTR _sInfo$[ebp+16]
  00041	8b fa		 mov	 edi, edx
  00043	89 7d d8	 mov	 DWORD PTR _nLine$1$[ebp], edi

; 570  : 		for( i=0; i < nPage; i++)

  00046	85 c0		 test	 eax, eax
  00048	7e 1c		 jle	 SHORT $LN3@SetTopInde
  0004a	8b f8		 mov	 edi, eax
  0004c	0f 1f 40 00	 npad	 4
$LL4@SetTopInde:
; File C:\Program Files (x86)\Microsoft Visual Studio\2019\Community\VC\Tools\MSVC\14.29.30133\atlmfc\include\afxwin2.inl

; 32   : 	{ ASSERT(::IsWindow(m_hWnd)); return ::SendMessage(m_hWnd, message, wParam, lParam); }

  00050	6a 00		 push	 0
  00052	6a 03		 push	 3
  00054	68 15 01 00 00	 push	 277			; 00000115H
  00059	ff 76 20	 push	 DWORD PTR [esi+32]
  0005c	ff d3		 call	 ebx
; File D:\git\src\IBK\IBK_DRFN\ProjSrc\SrcDrfn\Chart\comparechart\control\VirtualListCtrl.cpp

; 570  : 		for( i=0; i < nPage; i++)

  0005e	83 ef 01	 sub	 edi, 1
  00061	75 ed		 jne	 SHORT $LL4@SetTopInde
  00063	8b 7d d8	 mov	 edi, DWORD PTR _nLine$1$[ebp]
$LN3@SetTopInde:

; 572  : 		for(i=0; i < nLine; i++)

  00066	85 ff		 test	 edi, edi
  00068	7e 69		 jle	 SHORT $LN12@SetTopInde
  0006a	66 0f 1f 44 00
	00		 npad	 6
$LL7@SetTopInde:
; File C:\Program Files (x86)\Microsoft Visual Studio\2019\Community\VC\Tools\MSVC\14.29.30133\atlmfc\include\afxwin2.inl

; 32   : 	{ ASSERT(::IsWindow(m_hWnd)); return ::SendMessage(m_hWnd, message, wParam, lParam); }

  00070	6a 00		 push	 0
  00072	6a 01		 push	 1
  00074	68 15 01 00 00	 push	 277			; 00000115H
  00079	ff 76 20	 push	 DWORD PTR [esi+32]
  0007c	ff d3		 call	 ebx
; File D:\git\src\IBK\IBK_DRFN\ProjSrc\SrcDrfn\Chart\comparechart\control\VirtualListCtrl.cpp

; 572  : 		for(i=0; i < nLine; i++)

  0007e	83 ef 01	 sub	 edi, 1
  00081	75 ed		 jne	 SHORT $LL7@SetTopInde

; 581  : 			SendMessage(WM_VSCROLL, SB_LINEUP, NULL);
; 582  : 	}	
; 583  : 
; 584  : }

  00083	5f		 pop	 edi
  00084	5e		 pop	 esi
  00085	5b		 pop	 ebx
  00086	8b 4d fc	 mov	 ecx, DWORD PTR __$ArrayPad$[ebp]
  00089	33 cd		 xor	 ecx, ebp
  0008b	e8 00 00 00 00	 call	 @__security_check_cookie@4
  00090	8b e5		 mov	 esp, ebp
  00092	5d		 pop	 ebp
  00093	c2 04 00	 ret	 4
$LN14@SetTopInde:

; 573  : 			SendMessage(WM_VSCROLL, SB_LINEDOWN, NULL);
; 574  : 	}
; 575  : 	else	{
; 576  : 		nPage = (pos - nIndex) / sInfo.nPage;

  00096	2b c1		 sub	 eax, ecx
  00098	f7 75 f0	 div	 DWORD PTR _sInfo$[ebp+16]
  0009b	8b fa		 mov	 edi, edx
  0009d	89 7d dc	 mov	 DWORD PTR _nLine$2$[ebp], edi

; 578  : 		for( i=0; i < nPage; i++)

  000a0	85 c0		 test	 eax, eax
  000a2	7e 18		 jle	 SHORT $LN9@SetTopInde
  000a4	8b f8		 mov	 edi, eax
$LL10@SetTopInde:
; File C:\Program Files (x86)\Microsoft Visual Studio\2019\Community\VC\Tools\MSVC\14.29.30133\atlmfc\include\afxwin2.inl

; 32   : 	{ ASSERT(::IsWindow(m_hWnd)); return ::SendMessage(m_hWnd, message, wParam, lParam); }

  000a6	6a 00		 push	 0
  000a8	6a 02		 push	 2
  000aa	68 15 01 00 00	 push	 277			; 00000115H
  000af	ff 76 20	 push	 DWORD PTR [esi+32]
  000b2	ff d3		 call	 ebx
; File D:\git\src\IBK\IBK_DRFN\ProjSrc\SrcDrfn\Chart\comparechart\control\VirtualListCtrl.cpp

; 578  : 		for( i=0; i < nPage; i++)

  000b4	83 ef 01	 sub	 edi, 1
  000b7	75 ed		 jne	 SHORT $LL10@SetTopInde
  000b9	8b 7d dc	 mov	 edi, DWORD PTR _nLine$2$[ebp]
$LN9@SetTopInde:

; 580  : 		for(i=0; i < nLine; i++)

  000bc	85 ff		 test	 edi, edi
  000be	7e 13		 jle	 SHORT $LN12@SetTopInde
$LL13@SetTopInde:
; File C:\Program Files (x86)\Microsoft Visual Studio\2019\Community\VC\Tools\MSVC\14.29.30133\atlmfc\include\afxwin2.inl

; 32   : 	{ ASSERT(::IsWindow(m_hWnd)); return ::SendMessage(m_hWnd, message, wParam, lParam); }

  000c0	6a 00		 push	 0
  000c2	6a 00		 push	 0
  000c4	68 15 01 00 00	 push	 277			; 00000115H
  000c9	ff 76 20	 push	 DWORD PTR [esi+32]
  000cc	ff d3		 call	 ebx
; File D:\git\src\IBK\IBK_DRFN\ProjSrc\SrcDrfn\Chart\comparechart\control\VirtualListCtrl.cpp

; 580  : 		for(i=0; i < nLine; i++)

  000ce	83 ef 01	 sub	 edi, 1
  000d1	75 ed		 jne	 SHORT $LL13@SetTopInde
$LN12@SetTopInde:

; 581  : 			SendMessage(WM_VSCROLL, SB_LINEUP, NULL);
; 582  : 	}	
; 583  : 
; 584  : }

  000d3	8b 4d fc	 mov	 ecx, DWORD PTR __$ArrayPad$[ebp]
  000d6	5f		 pop	 edi
  000d7	5e		 pop	 esi
  000d8	33 cd		 xor	 ecx, ebp
  000da	5b		 pop	 ebx
  000db	e8 00 00 00 00	 call	 @__security_check_cookie@4
  000e0	8b e5		 mov	 esp, ebp
  000e2	5d		 pop	 ebp
  000e3	c2 04 00	 ret	 4
?SetTopIndex@CVirtualListCtrl@@QAEXH@Z ENDP		; CVirtualListCtrl::SetTopIndex
_TEXT	ENDS
; Function compile flags: /Ogtp
; File D:\git\src\IBK\IBK_DRFN\ProjSrc\SrcDrfn\Chart\comparechart\control\VirtualListCtrl.cpp
; File C:\Program Files (x86)\Microsoft Visual Studio\2019\Community\VC\Tools\MSVC\14.29.30133\atlmfc\include\afxtempl.h
; File D:\git\src\IBK\IBK_DRFN\ProjSrc\SrcDrfn\Chart\comparechart\control\VirtualListCtrl.cpp
; File C:\Program Files (x86)\Microsoft Visual Studio\2019\Community\VC\Tools\MSVC\14.29.30133\atlmfc\include\cstringt.h
; File D:\git\src\IBK\IBK_DRFN\ProjSrc\SrcDrfn\Chart\comparechart\control\VirtualListCtrl.cpp
; File C:\Program Files (x86)\Microsoft Visual Studio\2019\Community\VC\Tools\MSVC\14.29.30133\atlmfc\include\cstringt.h
; File D:\git\src\IBK\IBK_DRFN\ProjSrc\SrcDrfn\Chart\comparechart\control\VirtualListCtrl.cpp
; File C:\Program Files (x86)\Microsoft Visual Studio\2019\Community\VC\Tools\MSVC\14.29.30133\atlmfc\include\cstringt.h
; File D:\git\src\IBK\IBK_DRFN\ProjSrc\SrcDrfn\Chart\comparechart\control\VirtualListCtrl.cpp
; File C:\Program Files (x86)\Microsoft Visual Studio\2019\Community\VC\Tools\MSVC\14.29.30133\atlmfc\include\cstringt.h
; File D:\git\src\IBK\IBK_DRFN\ProjSrc\SrcDrfn\Chart\comparechart\control\VirtualListCtrl.cpp
; File C:\Program Files (x86)\Microsoft Visual Studio\2019\Community\VC\Tools\MSVC\14.29.30133\atlmfc\include\cstringt.h
; File D:\git\src\IBK\IBK_DRFN\ProjSrc\SrcDrfn\Chart\comparechart\control\VirtualListCtrl.cpp
; File C:\Program Files (x86)\Microsoft Visual Studio\2019\Community\VC\Tools\MSVC\14.29.30133\atlmfc\include\afxtempl.h
; File D:\git\src\IBK\IBK_DRFN\ProjSrc\SrcDrfn\Chart\comparechart\control\VirtualListCtrl.cpp
;	COMDAT ?FindItemByString@CVirtualListCtrl@@QAEHHV?$CStringT@DV?$StrTraitMFC_DLL@DV?$ChTraitsCRT@D@ATL@@@@@ATL@@@Z
_TEXT	SEGMENT
_sTemp$ = -32						; size = 4
_nTot$1$ = -28						; size = 4
$T2 = -24						; size = 4
_nLen$1$ = -20						; size = 4
_nFindIdx$1$ = -16					; size = 4
__$EHRec$ = -12						; size = 12
_nCol$ = 8						; size = 4
_strFind$ = 12						; size = 4
?FindItemByString@CVirtualListCtrl@@QAEHHV?$CStringT@DV?$StrTraitMFC_DLL@DV?$ChTraitsCRT@D@ATL@@@@@ATL@@@Z PROC ; CVirtualListCtrl::FindItemByString, COMDAT
; _this$ = ecx

; 502  : {

  00000	55		 push	 ebp
  00001	8b ec		 mov	 ebp, esp
  00003	6a ff		 push	 -1
  00005	68 00 00 00 00	 push	 __ehhandler$?FindItemByString@CVirtualListCtrl@@QAEHHV?$CStringT@DV?$StrTraitMFC_DLL@DV?$ChTraitsCRT@D@ATL@@@@@ATL@@@Z
  0000a	64 a1 00 00 00
	00		 mov	 eax, DWORD PTR fs:0
  00010	50		 push	 eax
  00011	83 ec 14	 sub	 esp, 20			; 00000014H
  00014	53		 push	 ebx
  00015	56		 push	 esi
  00016	57		 push	 edi
  00017	a1 00 00 00 00	 mov	 eax, DWORD PTR ___security_cookie
  0001c	33 c5		 xor	 eax, ebp
  0001e	50		 push	 eax
  0001f	8d 45 f4	 lea	 eax, DWORD PTR __$EHRec$[ebp]
  00022	64 a3 00 00 00
	00		 mov	 DWORD PTR fs:0, eax
  00028	8b d9		 mov	 ebx, ecx

; 503  : 	int nFindIdx = -1;		
; 504  : 	int nLen = _mbslen((const unsigned char*)(LPCTSTR)strFind);

  0002a	ff 75 0c	 push	 DWORD PTR _strFind$[ebp]
  0002d	c7 45 fc 00 00
	00 00		 mov	 DWORD PTR __$EHRec$[ebp+8], 0
  00034	c7 45 f0 ff ff
	ff ff		 mov	 DWORD PTR _nFindIdx$1$[ebp], -1
  0003b	ff 15 00 00 00
	00		 call	 DWORD PTR __imp___mbslen

; 505  : 
; 506  : 
; 507  : 	int nTot = m_AllArray.GetSize();

  00041	8b bb 10 01 00
	00		 mov	 edi, DWORD PTR [ebx+272]

; 508  : 	CString sTemp;

  00047	8d 4d e0	 lea	 ecx, DWORD PTR _sTemp$[ebp]
  0004a	83 c4 04	 add	 esp, 4
  0004d	89 45 ec	 mov	 DWORD PTR _nLen$1$[ebp], eax
  00050	89 7d e4	 mov	 DWORD PTR _nTot$1$[ebp], edi
  00053	ff 15 00 00 00
	00		 call	 DWORD PTR __imp_??0?$CStringT@DV?$StrTraitMFC_DLL@DV?$ChTraitsCRT@D@ATL@@@@@ATL@@QAE@XZ

; 509  : 	for(int i = 0 ; i < nTot; i++)

  00059	33 f6		 xor	 esi, esi
  0005b	c6 45 fc 01	 mov	 BYTE PTR __$EHRec$[ebp+8], 1
  0005f	85 ff		 test	 edi, edi
  00061	7e 3a		 jle	 SHORT $LN3@FindItemBy
$LL4@FindItemBy:
; File C:\Program Files (x86)\Microsoft Visual Studio\2019\Community\VC\Tools\MSVC\14.29.30133\atlmfc\include\afxtempl.h

; 288  : 	if(nIndex >= 0 && nIndex < m_nSize)

  00063	85 f6		 test	 esi, esi
  00065	0f 88 9d 00 00
	00		 js	 $LN17@FindItemBy
  0006b	3b b3 10 01 00
	00		 cmp	 esi, DWORD PTR [ebx+272]
  00071	0f 8d 91 00 00
	00		 jge	 $LN17@FindItemBy

; 289  : 		return m_pData[nIndex];

  00077	8b 83 0c 01 00
	00		 mov	 eax, DWORD PTR [ebx+268]
; File D:\git\src\IBK\IBK_DRFN\ProjSrc\SrcDrfn\Chart\comparechart\control\VirtualListCtrl.cpp

; 511  : 		MASTERCODE *pMaster = m_AllArray.GetAt(i);

  0007d	8b 0c b0	 mov	 ecx, DWORD PTR [eax+esi*4]

; 512  : 		if ( m_nFindCol == 0)

  00080	8b 83 84 00 00
	00		 mov	 eax, DWORD PTR [ebx+132]
  00086	85 c0		 test	 eax, eax
  00088	75 3c		 jne	 SHORT $LN5@FindItemBy
; File C:\Program Files (x86)\Microsoft Visual Studio\2019\Community\VC\Tools\MSVC\14.29.30133\atlmfc\include\cstringt.h

; 2664 : 		return( str1.Compare( str2 ) >= 0 );

  0008a	ff 75 0c	 push	 DWORD PTR _strFind$[ebp]
; File D:\git\src\IBK\IBK_DRFN\ProjSrc\SrcDrfn\Chart\comparechart\control\VirtualListCtrl.cpp

; 514  : 			if( pMaster->strKor >= strFind )	

  0008d	83 c1 04	 add	 ecx, 4
; File C:\Program Files (x86)\Microsoft Visual Studio\2019\Community\VC\Tools\MSVC\14.29.30133\atlmfc\include\cstringt.h

; 2664 : 		return( str1.Compare( str2 ) >= 0 );

  00090	ff 15 00 00 00
	00		 call	 DWORD PTR __imp_?Compare@?$CStringT@DV?$StrTraitMFC_DLL@DV?$ChTraitsCRT@D@ATL@@@@@ATL@@QBEHPBD@Z
  00096	85 c0		 test	 eax, eax
; File D:\git\src\IBK\IBK_DRFN\ProjSrc\SrcDrfn\Chart\comparechart\control\VirtualListCtrl.cpp

; 514  : 			if( pMaster->strKor >= strFind )	

  00098	78 63		 js	 SHORT $LN2@FindItemBy
$LN29@FindItemBy:

; 523  : 			{
; 524  : 				nFindIdx = i;
; 525  : 				break;
; 526  : 			}
; 527  : 		}
; 528  : 	}
; 529  : 	
; 530  : 
; 531  : 
; 532  : 
; 533  : 
; 534  : //===============================================================
; 535  : /*	for (int i = 0; i < GetItemCount(); i++)	
; 536  : 	{
; 537  : 		CString str = GetItemText(i, nCol);		
; 538  : 		if( nCol == 0 || nCol == 2)
; 539  : 		{		
; 540  : 			if (str.Left(nLen) >= strFind )	
; 541  : 			{		
; 542  : 				nFindIdx = i;
; 543  : 				return nFindIdx;
; 544  : 			}
; 545  : 		}
; 546  : 		else if( nCol == 1 )
; 547  : 		{
; 548  : 			if (str.Mid(nLen, 1) >= strFind )
; 549  : 			{			//ljj 20030904 
; 550  : 				nFindIdx = i;
; 551  : 				return nFindIdx;
; 552  : 			}
; 553  : 		}
; 554  : 	} 
; 555  : */
; 556  : 	return nFindIdx;

  0009a	89 75 f0	 mov	 DWORD PTR _nFindIdx$1$[ebp], esi
$LN3@FindItemBy:
  0009d	8d 4d e0	 lea	 ecx, DWORD PTR _sTemp$[ebp]
  000a0	ff 15 00 00 00
	00		 call	 DWORD PTR __imp_??1?$CStringT@DV?$StrTraitMFC_DLL@DV?$ChTraitsCRT@D@ATL@@@@@ATL@@QAE@XZ
  000a6	8d 4d 0c	 lea	 ecx, DWORD PTR _strFind$[ebp]
  000a9	ff 15 00 00 00
	00		 call	 DWORD PTR __imp_??1?$CStringT@DV?$StrTraitMFC_DLL@DV?$ChTraitsCRT@D@ATL@@@@@ATL@@QAE@XZ
  000af	8b 45 f0	 mov	 eax, DWORD PTR _nFindIdx$1$[ebp]

; 557  : }

  000b2	8b 4d f4	 mov	 ecx, DWORD PTR __$EHRec$[ebp]
  000b5	64 89 0d 00 00
	00 00		 mov	 DWORD PTR fs:0, ecx
  000bc	59		 pop	 ecx
  000bd	5f		 pop	 edi
  000be	5e		 pop	 esi
  000bf	5b		 pop	 ebx
  000c0	8b e5		 mov	 esp, ebp
  000c2	5d		 pop	 ebp
  000c3	c2 08 00	 ret	 8
$LN5@FindItemBy:

; 515  : 			{
; 516  : 				nFindIdx = i;
; 517  : 				break;
; 518  : 			}
; 519  : 		}
; 520  : 		else if ( m_nFindCol == 1)

  000c6	83 f8 01	 cmp	 eax, 1
  000c9	75 32		 jne	 SHORT $LN2@FindItemBy

; 522  : 			if( pMaster->strCode.Left(nLen) >= strFind )				

  000cb	ff 75 ec	 push	 DWORD PTR _nLen$1$[ebp]
  000ce	8d 45 e8	 lea	 eax, DWORD PTR $T2[ebp]
  000d1	50		 push	 eax
  000d2	ff 15 00 00 00
	00		 call	 DWORD PTR __imp_?Left@?$CStringT@DV?$StrTraitMFC_DLL@DV?$ChTraitsCRT@D@ATL@@@@@ATL@@QBE?AV12@H@Z
; File C:\Program Files (x86)\Microsoft Visual Studio\2019\Community\VC\Tools\MSVC\14.29.30133\atlmfc\include\cstringt.h

; 2664 : 		return( str1.Compare( str2 ) >= 0 );

  000d8	ff 75 0c	 push	 DWORD PTR _strFind$[ebp]
  000db	8b c8		 mov	 ecx, eax
; File D:\git\src\IBK\IBK_DRFN\ProjSrc\SrcDrfn\Chart\comparechart\control\VirtualListCtrl.cpp

; 522  : 			if( pMaster->strCode.Left(nLen) >= strFind )				

  000dd	c6 45 fc 02	 mov	 BYTE PTR __$EHRec$[ebp+8], 2
; File C:\Program Files (x86)\Microsoft Visual Studio\2019\Community\VC\Tools\MSVC\14.29.30133\atlmfc\include\cstringt.h

; 2664 : 		return( str1.Compare( str2 ) >= 0 );

  000e1	ff 15 00 00 00
	00		 call	 DWORD PTR __imp_?Compare@?$CStringT@DV?$StrTraitMFC_DLL@DV?$ChTraitsCRT@D@ATL@@@@@ATL@@QBEHPBD@Z
; File D:\git\src\IBK\IBK_DRFN\ProjSrc\SrcDrfn\Chart\comparechart\control\VirtualListCtrl.cpp

; 522  : 			if( pMaster->strCode.Left(nLen) >= strFind )				

  000e7	8d 4d e8	 lea	 ecx, DWORD PTR $T2[ebp]
  000ea	c6 45 fc 01	 mov	 BYTE PTR __$EHRec$[ebp+8], 1
; File C:\Program Files (x86)\Microsoft Visual Studio\2019\Community\VC\Tools\MSVC\14.29.30133\atlmfc\include\cstringt.h

; 2664 : 		return( str1.Compare( str2 ) >= 0 );

  000ee	8b f8		 mov	 edi, eax
; File D:\git\src\IBK\IBK_DRFN\ProjSrc\SrcDrfn\Chart\comparechart\control\VirtualListCtrl.cpp

; 522  : 			if( pMaster->strCode.Left(nLen) >= strFind )				

  000f0	ff 15 00 00 00
	00		 call	 DWORD PTR __imp_??1?$CStringT@DV?$StrTraitMFC_DLL@DV?$ChTraitsCRT@D@ATL@@@@@ATL@@QAE@XZ
  000f6	85 ff		 test	 edi, edi
  000f8	79 a0		 jns	 SHORT $LN29@FindItemBy
  000fa	8b 7d e4	 mov	 edi, DWORD PTR _nTot$1$[ebp]
$LN2@FindItemBy:

; 509  : 	for(int i = 0 ; i < nTot; i++)

  000fd	46		 inc	 esi
  000fe	3b f7		 cmp	 esi, edi
  00100	0f 8c 5d ff ff
	ff		 jl	 $LL4@FindItemBy
  00106	eb 95		 jmp	 SHORT $LN3@FindItemBy
$LN17@FindItemBy:
; File C:\Program Files (x86)\Microsoft Visual Studio\2019\Community\VC\Tools\MSVC\14.29.30133\atlmfc\include\afxtempl.h

; 290  : 	AfxThrowInvalidArgException();

  00108	e8 00 00 00 00	 call	 ?AfxThrowInvalidArgException@@YGXXZ ; AfxThrowInvalidArgException
$LN36@FindItemBy:
  0010d	cc		 int	 3
_TEXT	ENDS
;	COMDAT text$x
text$x	SEGMENT
__unwindfunclet$?FindItemByString@CVirtualListCtrl@@QAEHHV?$CStringT@DV?$StrTraitMFC_DLL@DV?$ChTraitsCRT@D@ATL@@@@@ATL@@@Z$0:
  00000	8d 4d 0c	 lea	 ecx, DWORD PTR _strFind$[ebp]
  00003	ff 25 00 00 00
	00		 jmp	 DWORD PTR __imp_??1?$CStringT@DV?$StrTraitMFC_DLL@DV?$ChTraitsCRT@D@ATL@@@@@ATL@@QAE@XZ
__unwindfunclet$?FindItemByString@CVirtualListCtrl@@QAEHHV?$CStringT@DV?$StrTraitMFC_DLL@DV?$ChTraitsCRT@D@ATL@@@@@ATL@@@Z$1:
  00009	8d 4d e0	 lea	 ecx, DWORD PTR _sTemp$[ebp]
  0000c	ff 25 00 00 00
	00		 jmp	 DWORD PTR __imp_??1?$CStringT@DV?$StrTraitMFC_DLL@DV?$ChTraitsCRT@D@ATL@@@@@ATL@@QAE@XZ
__unwindfunclet$?FindItemByString@CVirtualListCtrl@@QAEHHV?$CStringT@DV?$StrTraitMFC_DLL@DV?$ChTraitsCRT@D@ATL@@@@@ATL@@@Z$2:
  00012	8d 4d e8	 lea	 ecx, DWORD PTR $T2[ebp]
  00015	ff 25 00 00 00
	00		 jmp	 DWORD PTR __imp_??1?$CStringT@DV?$StrTraitMFC_DLL@DV?$ChTraitsCRT@D@ATL@@@@@ATL@@QAE@XZ
  0001b	cc		 int	 3
  0001c	cc		 int	 3
  0001d	cc		 int	 3
  0001e	cc		 int	 3
  0001f	cc		 int	 3
__ehhandler$?FindItemByString@CVirtualListCtrl@@QAEHHV?$CStringT@DV?$StrTraitMFC_DLL@DV?$ChTraitsCRT@D@ATL@@@@@ATL@@@Z:
  00020	90		 npad	 1
  00021	90		 npad	 1
  00022	8b 54 24 08	 mov	 edx, DWORD PTR [esp+8]
  00026	8d 42 0c	 lea	 eax, DWORD PTR [edx+12]
  00029	8b 4a dc	 mov	 ecx, DWORD PTR [edx-36]
  0002c	33 c8		 xor	 ecx, eax
  0002e	e8 00 00 00 00	 call	 @__security_check_cookie@4
  00033	b8 00 00 00 00	 mov	 eax, OFFSET __ehfuncinfo$?FindItemByString@CVirtualListCtrl@@QAEHHV?$CStringT@DV?$StrTraitMFC_DLL@DV?$ChTraitsCRT@D@ATL@@@@@ATL@@@Z
  00038	e9 00 00 00 00	 jmp	 ___CxxFrameHandler3
text$x	ENDS
?FindItemByString@CVirtualListCtrl@@QAEHHV?$CStringT@DV?$StrTraitMFC_DLL@DV?$ChTraitsCRT@D@ATL@@@@@ATL@@@Z ENDP ; CVirtualListCtrl::FindItemByString
; Function compile flags: /Ogtp
; File D:\git\src\IBK\IBK_DRFN\ProjSrc\SrcDrfn\Chart\comparechart\control\VirtualListCtrl.cpp
; File C:\Program Files (x86)\Microsoft Visual Studio\2019\Community\VC\Tools\MSVC\14.29.30133\atlmfc\include\afxtempl.h
; File D:\git\src\IBK\IBK_DRFN\ProjSrc\SrcDrfn\Chart\comparechart\control\VirtualListCtrl.cpp
; File C:\Program Files (x86)\Microsoft Visual Studio\2019\Community\VC\Tools\MSVC\14.29.30133\atlmfc\include\afxcoll.inl
; File D:\git\src\IBK\IBK_DRFN\ProjSrc\SrcDrfn\Chart\comparechart\control\VirtualListCtrl.cpp
; File C:\Program Files (x86)\Microsoft Visual Studio\2019\Community\VC\Tools\MSVC\14.29.30133\atlmfc\include\afxcoll.inl
; File D:\git\src\IBK\IBK_DRFN\ProjSrc\SrcDrfn\Chart\comparechart\control\VirtualListCtrl.cpp
; File C:\Program Files (x86)\Microsoft Visual Studio\2019\Community\VC\Tools\MSVC\14.29.30133\atlmfc\include\afxtempl.h
; File D:\git\src\IBK\IBK_DRFN\ProjSrc\SrcDrfn\Chart\comparechart\control\VirtualListCtrl.cpp
;	COMDAT ?SetMasterArray@CVirtualListCtrl@@QAEXXZ
_TEXT	SEGMENT
?SetMasterArray@CVirtualListCtrl@@QAEXXZ PROC		; CVirtualListCtrl::SetMasterArray, COMDAT
; _this$ = ecx

; 423  : {	

  00000	53		 push	 ebx
  00001	8b d9		 mov	 ebx, ecx
  00003	56		 push	 esi

; 424  : 	for( int i = 0; i < m_AllArray.GetSize(); i++)

  00004	33 f6		 xor	 esi, esi
  00006	8b 83 10 01 00
	00		 mov	 eax, DWORD PTR [ebx+272]
  0000c	85 c0		 test	 eax, eax
  0000e	7e 3f		 jle	 SHORT $LN3@SetMasterA
  00010	57		 push	 edi
$LL4@SetMasterA:
; File C:\Program Files (x86)\Microsoft Visual Studio\2019\Community\VC\Tools\MSVC\14.29.30133\atlmfc\include\afxtempl.h

; 288  : 	if(nIndex >= 0 && nIndex < m_nSize)

  00011	85 f6		 test	 esi, esi
  00013	78 3d		 js	 SHORT $LN7@SetMasterA
  00015	3b f0		 cmp	 esi, eax
  00017	7d 39		 jge	 SHORT $LN7@SetMasterA
; File D:\git\src\IBK\IBK_DRFN\ProjSrc\SrcDrfn\Chart\comparechart\control\VirtualListCtrl.cpp

; 427  : 		m_arrCode.Add(pData->strCode);

  00019	8b 83 0c 01 00
	00		 mov	 eax, DWORD PTR [ebx+268]
  0001f	8d 8b b8 00 00
	00		 lea	 ecx, DWORD PTR [ebx+184]
  00025	8b 3c b0	 mov	 edi, DWORD PTR [eax+esi*4]
; File C:\Program Files (x86)\Microsoft Visual Studio\2019\Community\VC\Tools\MSVC\14.29.30133\atlmfc\include\afxcoll.inl

; 321  : 		SetAtGrow(nIndex, newElement);

  00028	57		 push	 edi
  00029	ff 71 08	 push	 DWORD PTR [ecx+8]
  0002c	e8 00 00 00 00	 call	 ?SetAtGrow@CStringArray@@QAEXHABV?$CStringT@DV?$StrTraitMFC_DLL@DV?$ChTraitsCRT@D@ATL@@@@@ATL@@@Z ; CStringArray::SetAtGrow
; File D:\git\src\IBK\IBK_DRFN\ProjSrc\SrcDrfn\Chart\comparechart\control\VirtualListCtrl.cpp

; 428  : 		m_arrKor.Add(pData->strKor);

  00031	8d 47 04	 lea	 eax, DWORD PTR [edi+4]
  00034	8d 8b 90 00 00
	00		 lea	 ecx, DWORD PTR [ebx+144]
; File C:\Program Files (x86)\Microsoft Visual Studio\2019\Community\VC\Tools\MSVC\14.29.30133\atlmfc\include\afxcoll.inl

; 321  : 		SetAtGrow(nIndex, newElement);

  0003a	50		 push	 eax
  0003b	ff 71 08	 push	 DWORD PTR [ecx+8]
  0003e	e8 00 00 00 00	 call	 ?SetAtGrow@CStringArray@@QAEXHABV?$CStringT@DV?$StrTraitMFC_DLL@DV?$ChTraitsCRT@D@ATL@@@@@ATL@@@Z ; CStringArray::SetAtGrow
; File D:\git\src\IBK\IBK_DRFN\ProjSrc\SrcDrfn\Chart\comparechart\control\VirtualListCtrl.cpp

; 424  : 	for( int i = 0; i < m_AllArray.GetSize(); i++)

  00043	8b 83 10 01 00
	00		 mov	 eax, DWORD PTR [ebx+272]
  00049	46		 inc	 esi
  0004a	3b f0		 cmp	 esi, eax
  0004c	7c c3		 jl	 SHORT $LL4@SetMasterA
  0004e	5f		 pop	 edi
$LN3@SetMasterA:
  0004f	5e		 pop	 esi

; 468  : }

  00050	5b		 pop	 ebx
  00051	c3		 ret	 0
$LN7@SetMasterA:
; File C:\Program Files (x86)\Microsoft Visual Studio\2019\Community\VC\Tools\MSVC\14.29.30133\atlmfc\include\afxtempl.h

; 290  : 	AfxThrowInvalidArgException();

  00052	e8 00 00 00 00	 call	 ?AfxThrowInvalidArgException@@YGXXZ ; AfxThrowInvalidArgException
$LN18@SetMasterA:
  00057	cc		 int	 3
?SetMasterArray@CVirtualListCtrl@@QAEXXZ ENDP		; CVirtualListCtrl::SetMasterArray
_TEXT	ENDS
; Function compile flags: /Ogtp
; File D:\git\src\IBK\IBK_DRFN\ProjSrc\SrcDrfn\Chart\comparechart\control\VirtualListCtrl.cpp
;	COMDAT ?Load_GwanSim_CodeList@CVirtualListCtrl@@QAEXPAVCStringArray@@@Z
_TEXT	SEGMENT
_pArrCodeNName$ = 8					; size = 4
?Load_GwanSim_CodeList@CVirtualListCtrl@@QAEXPAVCStringArray@@@Z PROC ; CVirtualListCtrl::Load_GwanSim_CodeList, COMDAT
; _this$ = ecx

; 733  : //	if( !m_pDBMgr )
; 734  : //		return;
; 735  : //
; 736  : //	//======================================================	
; 737  : //	DeleteAllItems();
; 738  : //	for( int i = 0; i < m_AllArray.GetSize(); i++)
; 739  : //		delete m_AllArray.GetAt(i);
; 740  : //	m_AllArray.RemoveAll();	
; 741  : //	//======================================================
; 742  : //
; 743  : //
; 744  : //	CString str, strCode, strName, strGrpNo, strGubun;
; 745  : //	for( i = 1; i < pArrCodeNName->GetSize(); i++)
; 746  : //	{
; 747  : //		str = pArrCodeNName->GetAt(i);
; 748  : //		if(m_pDBMgr)
; 749  : //		{
; 750  : //			strGrpNo	=  str.Left(GWANSIM_GRPNO_LEN); //
; 751  : //			strCode		=  str.Mid(GWANSIM_GRPNO_LEN, 15);  strCode.TrimRight();
; 752  : //
; 753  : //			strGubun	= str.Mid(15);	  strGubun.TrimLeft();
; 754  : //			m_pDBMgr->GetCodeName((DWORD)atoi(strGubun),	strCode, strName);
; 755  : //			strName.TrimRight();
; 756  : //		
; 757  : //			strCode.TrimLeft(); strCode.TrimRight();
; 758  : //			strName.TrimLeft(); strName.TrimRight();
; 759  : //			if(!strCode.GetLength() || !strName.GetLength()) continue;
; 760  : //
; 761  : //			MASTERCODE* pData = new MASTERCODE;
; 762  : //			pData->strCode = strCode;
; 763  : //			pData->strKor = strName;
; 764  : //			pData->strEng = _T("");	
; 765  : //			m_AllArray.Add(pData);
; 766  : //		}
; 767  : //	}
; 768  : //
; 769  : //	//SortArray(m_AllArray); //11.04 ==     .
; 770  : //	SetItemCount(m_AllArray.GetSize());
; 771  : }

  00000	c2 04 00	 ret	 4
?Load_GwanSim_CodeList@CVirtualListCtrl@@QAEXPAVCStringArray@@@Z ENDP ; CVirtualListCtrl::Load_GwanSim_CodeList
_TEXT	ENDS
; Function compile flags: /Ogtp
; File D:\git\src\IBK\IBK_DRFN\ProjSrc\SrcDrfn\Chart\comparechart\control\VirtualListCtrl.cpp
; File C:\Program Files (x86)\Microsoft Visual Studio\2019\Community\VC\Tools\MSVC\14.29.30133\atlmfc\include\afxcmn.inl
; File D:\git\src\IBK\IBK_DRFN\ProjSrc\SrcDrfn\Chart\comparechart\control\VirtualListCtrl.cpp
; File C:\Program Files (x86)\Microsoft Visual Studio\2019\Community\VC\Tools\MSVC\14.29.30133\atlmfc\include\afxcmn.inl
; File D:\git\src\IBK\IBK_DRFN\ProjSrc\SrcDrfn\Chart\comparechart\control\VirtualListCtrl.cpp
; File C:\Program Files (x86)\Microsoft Visual Studio\2019\Community\VC\Tools\MSVC\14.29.30133\atlmfc\include\afxtempl.h
; File D:\git\src\IBK\IBK_DRFN\ProjSrc\SrcDrfn\Chart\comparechart\control\VirtualListCtrl.cpp
; File C:\Program Files (x86)\Microsoft Visual Studio\2019\Community\VC\Tools\MSVC\14.29.30133\atlmfc\include\afxtempl.h
; File C:\Program Files (x86)\Microsoft Visual Studio\2019\Community\VC\Tools\MSVC\14.29.30133\atlmfc\include\afxcmn.inl
; File C:\Program Files (x86)\Microsoft Visual Studio\2019\Community\VC\Tools\MSVC\14.29.30133\atlmfc\include\afxtempl.h
; File C:\Program Files (x86)\Microsoft Visual Studio\2019\Community\VC\Tools\MSVC\14.29.30133\atlmfc\include\afxcmn.inl
; File D:\git\src\IBK\IBK_DRFN\ProjSrc\SrcDrfn\Chart\comparechart\control\VirtualListCtrl.cpp
; File C:\Program Files (x86)\Microsoft Visual Studio\2019\Community\VC\Tools\MSVC\14.29.30133\atlmfc\include\afxtempl.h
; File D:\git\src\IBK\IBK_DRFN\ProjSrc\SrcDrfn\Chart\comparechart\control\VirtualListCtrl.cpp
;	COMDAT ?LoadCodeList@CVirtualListCtrl@@QAEXH@Z
_TEXT	SEGMENT
_nOption$ = 8						; size = 4
?LoadCodeList@CVirtualListCtrl@@QAEXH@Z PROC		; CVirtualListCtrl::LoadCodeList, COMDAT
; _this$ = ecx

; 172  : {

  00000	53		 push	 ebx
  00001	56		 push	 esi
  00002	57		 push	 edi
; File C:\Program Files (x86)\Microsoft Visual Studio\2019\Community\VC\Tools\MSVC\14.29.30133\atlmfc\include\afxcmn.inl

; 171  : 	{ ASSERT(::IsWindow(m_hWnd)); return (BOOL) ::SendMessage(m_hWnd, LVM_DELETEALLITEMS, 0, 0L); }

  00003	8b 3d 00 00 00
	00		 mov	 edi, DWORD PTR __imp__SendMessageA@16
; File D:\git\src\IBK\IBK_DRFN\ProjSrc\SrcDrfn\Chart\comparechart\control\VirtualListCtrl.cpp

; 172  : {

  00009	8b d9		 mov	 ebx, ecx
; File C:\Program Files (x86)\Microsoft Visual Studio\2019\Community\VC\Tools\MSVC\14.29.30133\atlmfc\include\afxcmn.inl

; 171  : 	{ ASSERT(::IsWindow(m_hWnd)); return (BOOL) ::SendMessage(m_hWnd, LVM_DELETEALLITEMS, 0, 0L); }

  0000b	6a 00		 push	 0
  0000d	6a 00		 push	 0
  0000f	68 09 10 00 00	 push	 4105			; 00001009H
  00014	ff 73 20	 push	 DWORD PTR [ebx+32]
  00017	ff d7		 call	 edi
; File D:\git\src\IBK\IBK_DRFN\ProjSrc\SrcDrfn\Chart\comparechart\control\VirtualListCtrl.cpp

; 178  : 	for( int i = 0; i < m_AllArray.GetSize(); i++)

  00019	8b 83 10 01 00
	00		 mov	 eax, DWORD PTR [ebx+272]
  0001f	33 f6		 xor	 esi, esi
  00021	85 c0		 test	 eax, eax
  00023	7e 53		 jle	 SHORT $LN3@LoadCodeLi
$LL4@LoadCodeLi:
; File C:\Program Files (x86)\Microsoft Visual Studio\2019\Community\VC\Tools\MSVC\14.29.30133\atlmfc\include\afxtempl.h

; 288  : 	if(nIndex >= 0 && nIndex < m_nSize)

  00025	85 f6		 test	 esi, esi
  00027	0f 88 90 00 00
	00		 js	 $LN11@LoadCodeLi
  0002d	3b f0		 cmp	 esi, eax
  0002f	0f 8d 88 00 00
	00		 jge	 $LN11@LoadCodeLi
; File D:\git\src\IBK\IBK_DRFN\ProjSrc\SrcDrfn\Chart\comparechart\control\VirtualListCtrl.cpp

; 179  : 		delete m_AllArray.GetAt(i);

  00035	8b 83 0c 01 00
	00		 mov	 eax, DWORD PTR [ebx+268]
  0003b	8b 3c b0	 mov	 edi, DWORD PTR [eax+esi*4]
  0003e	85 ff		 test	 edi, edi
  00040	74 25		 je	 SHORT $LN2@LoadCodeLi
  00042	8d 4f 08	 lea	 ecx, DWORD PTR [edi+8]
  00045	ff 15 00 00 00
	00		 call	 DWORD PTR __imp_??1?$CStringT@DV?$StrTraitMFC_DLL@DV?$ChTraitsCRT@D@ATL@@@@@ATL@@QAE@XZ
  0004b	8d 4f 04	 lea	 ecx, DWORD PTR [edi+4]
  0004e	ff 15 00 00 00
	00		 call	 DWORD PTR __imp_??1?$CStringT@DV?$StrTraitMFC_DLL@DV?$ChTraitsCRT@D@ATL@@@@@ATL@@QAE@XZ
  00054	8b cf		 mov	 ecx, edi
  00056	ff 15 00 00 00
	00		 call	 DWORD PTR __imp_??1?$CStringT@DV?$StrTraitMFC_DLL@DV?$ChTraitsCRT@D@ATL@@@@@ATL@@QAE@XZ
  0005c	6a 0c		 push	 12			; 0000000cH
  0005e	57		 push	 edi
  0005f	e8 00 00 00 00	 call	 ??3@YAXPAXI@Z		; operator delete
  00064	83 c4 08	 add	 esp, 8
$LN2@LoadCodeLi:

; 178  : 	for( int i = 0; i < m_AllArray.GetSize(); i++)

  00067	8b 83 10 01 00
	00		 mov	 eax, DWORD PTR [ebx+272]
  0006d	46		 inc	 esi
  0006e	3b f0		 cmp	 esi, eax
  00070	7c b3		 jl	 SHORT $LL4@LoadCodeLi
  00072	8b 3d 00 00 00
	00		 mov	 edi, DWORD PTR __imp__SendMessageA@16
$LN3@LoadCodeLi:
; File C:\Program Files (x86)\Microsoft Visual Studio\2019\Community\VC\Tools\MSVC\14.29.30133\atlmfc\include\afxtempl.h

; 381  : 		if (m_pData != NULL)

  00078	8b 83 0c 01 00
	00		 mov	 eax, DWORD PTR [ebx+268]
  0007e	85 c0		 test	 eax, eax
  00080	74 13		 je	 SHORT $LN42@LoadCodeLi

; 382  : 		{
; 383  : 			for( int i = 0; i < m_nSize; i++ )
; 384  : 				(m_pData + i)->~TYPE();
; 385  : 			delete[] (BYTE*)m_pData;

  00082	50		 push	 eax
  00083	e8 00 00 00 00	 call	 ??_V@YAXPAX@Z		; operator delete[]
  00088	83 c4 04	 add	 esp, 4

; 386  : 			m_pData = NULL;

  0008b	c7 83 0c 01 00
	00 00 00 00 00	 mov	 DWORD PTR [ebx+268], 0
$LN42@LoadCodeLi:
; File C:\Program Files (x86)\Microsoft Visual Studio\2019\Community\VC\Tools\MSVC\14.29.30133\atlmfc\include\afxcmn.inl

; 239  : 	{ ASSERT(::IsWindow(m_hWnd)); ::SendMessage(m_hWnd, LVM_SETITEMCOUNT, nItems, 0); }

  00095	6a 00		 push	 0
  00097	6a 00		 push	 0
  00099	68 2f 10 00 00	 push	 4143			; 0000102fH
; File C:\Program Files (x86)\Microsoft Visual Studio\2019\Community\VC\Tools\MSVC\14.29.30133\atlmfc\include\afxtempl.h

; 388  : 		m_nSize = m_nMaxSize = 0;

  0009e	c7 83 14 01 00
	00 00 00 00 00	 mov	 DWORD PTR [ebx+276], 0
  000a8	c7 83 10 01 00
	00 00 00 00 00	 mov	 DWORD PTR [ebx+272], 0
; File C:\Program Files (x86)\Microsoft Visual Studio\2019\Community\VC\Tools\MSVC\14.29.30133\atlmfc\include\afxcmn.inl

; 239  : 	{ ASSERT(::IsWindow(m_hWnd)); ::SendMessage(m_hWnd, LVM_SETITEMCOUNT, nItems, 0); }

  000b2	ff 73 20	 push	 DWORD PTR [ebx+32]
  000b5	ff d7		 call	 edi
  000b7	5f		 pop	 edi
  000b8	5e		 pop	 esi
  000b9	5b		 pop	 ebx
; File D:\git\src\IBK\IBK_DRFN\ProjSrc\SrcDrfn\Chart\comparechart\control\VirtualListCtrl.cpp

; 420  : }

  000ba	c2 04 00	 ret	 4
$LN11@LoadCodeLi:
; File C:\Program Files (x86)\Microsoft Visual Studio\2019\Community\VC\Tools\MSVC\14.29.30133\atlmfc\include\afxtempl.h

; 290  : 	AfxThrowInvalidArgException();

  000bd	e8 00 00 00 00	 call	 ?AfxThrowInvalidArgException@@YGXXZ ; AfxThrowInvalidArgException
$LN92@LoadCodeLi:
  000c2	cc		 int	 3
?LoadCodeList@CVirtualListCtrl@@QAEXH@Z ENDP		; CVirtualListCtrl::LoadCodeList
_TEXT	ENDS
; Function compile flags: /Ogtp
; File D:\git\src\IBK\IBK_DRFN\ProjSrc\SrcDrfn\Chart\comparechart\control\VirtualListCtrl.cpp
; File C:\Program Files (x86)\Microsoft Visual Studio\2019\Community\VC\Tools\MSVC\14.29.30133\atlmfc\include\afxwin2.inl
; File C:\Program Files (x86)\Microsoft Visual Studio\2019\Community\VC\Tools\MSVC\14.29.30133\atlmfc\include\atltypes.h
; File C:\Program Files (x86)\Microsoft Visual Studio\2019\Community\VC\Tools\MSVC\14.29.30133\atlmfc\include\afxwin2.inl
; File D:\git\src\IBK\IBK_DRFN\ProjSrc\SrcDrfn\Chart\comparechart\control\VirtualListCtrl.cpp
; File C:\Program Files (x86)\Microsoft Visual Studio\2019\Community\VC\Tools\MSVC\14.29.30133\atlmfc\include\afxcmn2.inl
; File D:\git\src\IBK\IBK_DRFN\ProjSrc\SrcDrfn\Chart\comparechart\control\VirtualListCtrl.cpp
;	COMDAT ?Init_ListCtrl@CVirtualListCtrl@@QAEXXZ
_TEXT	SEGMENT
_strText$ = -36						; size = 4
_lRect$ = -32						; size = 16
__$ArrayPad$ = -16					; size = 4
__$EHRec$ = -12						; size = 12
?Init_ListCtrl@CVirtualListCtrl@@QAEXXZ PROC		; CVirtualListCtrl::Init_ListCtrl, COMDAT
; _this$ = ecx

; 101  : {

  00000	55		 push	 ebp
  00001	8b ec		 mov	 ebp, esp
  00003	6a ff		 push	 -1
  00005	68 00 00 00 00	 push	 __ehhandler$?Init_ListCtrl@CVirtualListCtrl@@QAEXXZ
  0000a	64 a1 00 00 00
	00		 mov	 eax, DWORD PTR fs:0
  00010	50		 push	 eax
  00011	83 ec 18	 sub	 esp, 24			; 00000018H
  00014	a1 00 00 00 00	 mov	 eax, DWORD PTR ___security_cookie
  00019	33 c5		 xor	 eax, ebp
  0001b	89 45 f0	 mov	 DWORD PTR __$ArrayPad$[ebp], eax
  0001e	57		 push	 edi
  0001f	50		 push	 eax
  00020	8d 45 f4	 lea	 eax, DWORD PTR __$EHRec$[ebp]
  00023	64 a3 00 00 00
	00		 mov	 DWORD PTR fs:0, eax
  00029	8b f9		 mov	 edi, ecx
; File C:\Program Files (x86)\Microsoft Visual Studio\2019\Community\VC\Tools\MSVC\14.29.30133\atlmfc\include\afxwin2.inl

; 84   : 	{ ASSERT(::IsWindow(m_hWnd)); ::GetWindowRect(m_hWnd, lpRect); }

  0002b	8d 45 e0	 lea	 eax, DWORD PTR _lRect$[ebp]
  0002e	0f 57 c0	 xorps	 xmm0, xmm0
  00031	50		 push	 eax
  00032	ff 77 20	 push	 DWORD PTR [edi+32]
; File C:\Program Files (x86)\Microsoft Visual Studio\2019\Community\VC\Tools\MSVC\14.29.30133\atlmfc\include\atltypes.h

; 528  : 	left = 0;

  00035	0f 11 45 e0	 movups	 XMMWORD PTR _lRect$[ebp], xmm0
; File C:\Program Files (x86)\Microsoft Visual Studio\2019\Community\VC\Tools\MSVC\14.29.30133\atlmfc\include\afxwin2.inl

; 84   : 	{ ASSERT(::IsWindow(m_hWnd)); ::GetWindowRect(m_hWnd, lpRect); }

  00039	ff 15 00 00 00
	00		 call	 DWORD PTR __imp__GetWindowRect@8
; File D:\git\src\IBK\IBK_DRFN\ProjSrc\SrcDrfn\Chart\comparechart\control\VirtualListCtrl.cpp

; 105  : 	CString strText;	

  0003f	8d 4d dc	 lea	 ecx, DWORD PTR _strText$[ebp]
  00042	ff 15 00 00 00
	00		 call	 DWORD PTR __imp_??0?$CStringT@DV?$StrTraitMFC_DLL@DV?$ChTraitsCRT@D@ATL@@@@@ATL@@QAE@XZ

; 106  : 	strText.Format("", 0);

  00048	6a 00		 push	 0
  0004a	8d 45 dc	 lea	 eax, DWORD PTR _strText$[ebp]
  0004d	c7 45 fc 00 00
	00 00		 mov	 DWORD PTR __$EHRec$[ebp+8], 0
  00054	68 00 00 00 00	 push	 OFFSET ??_C@_06BGMJNGKF@?A?$LO?$LI?q?$LI?m@
  00059	50		 push	 eax
  0005a	ff 15 00 00 00
	00		 call	 DWORD PTR __imp_?Format@?$CStringT@DV?$StrTraitMFC_DLL@DV?$ChTraitsCRT@D@ATL@@@@@ATL@@QAAXPBDZZ
  00060	83 c4 0c	 add	 esp, 12			; 0000000cH

; 107  : 	//InsertColumn(0,strText,LVCFMT_LEFT, lRect.Width() - 90);		
; 108  : 	InsertColumn(0,strText,LVCFMT_LEFT, 70);		

  00063	8b cf		 mov	 ecx, edi
  00065	6a ff		 push	 -1
  00067	6a 46		 push	 70			; 00000046H
  00069	6a 00		 push	 0
  0006b	ff 75 dc	 push	 DWORD PTR _strText$[ebp]
  0006e	6a 00		 push	 0
  00070	e8 00 00 00 00	 call	 ?InsertColumn@CListCtrl@@QAEHHPBDHHH@Z ; CListCtrl::InsertColumn

; 109  : 	strText.ReleaseBuffer();

  00075	6a ff		 push	 -1
  00077	8d 4d dc	 lea	 ecx, DWORD PTR _strText$[ebp]
  0007a	ff 15 00 00 00
	00		 call	 DWORD PTR __imp_?ReleaseBuffer@?$CSimpleStringT@D$00@ATL@@QAEXH@Z

; 110  : 
; 111  : 	strText.Format("", 0);

  00080	6a 00		 push	 0
  00082	8d 45 dc	 lea	 eax, DWORD PTR _strText$[ebp]
  00085	68 00 00 00 00	 push	 OFFSET ??_C@_04IMDNCEFG@?D?Z?$LF?e@
  0008a	50		 push	 eax
  0008b	ff 15 00 00 00
	00		 call	 DWORD PTR __imp_?Format@?$CStringT@DV?$StrTraitMFC_DLL@DV?$ChTraitsCRT@D@ATL@@@@@ATL@@QAAXPBDZZ
  00091	83 c4 0c	 add	 esp, 12			; 0000000cH

; 112  : 	InsertColumn(1,strText,LVCFMT_LEFT, 55);		

  00094	8b cf		 mov	 ecx, edi
  00096	6a ff		 push	 -1
  00098	6a 37		 push	 55			; 00000037H
  0009a	6a 00		 push	 0
  0009c	ff 75 dc	 push	 DWORD PTR _strText$[ebp]
  0009f	6a 01		 push	 1
  000a1	e8 00 00 00 00	 call	 ?InsertColumn@CListCtrl@@QAEHHPBDHHH@Z ; CListCtrl::InsertColumn

; 113  : 	strText.ReleaseBuffer();		

  000a6	6a ff		 push	 -1
  000a8	8d 4d dc	 lea	 ecx, DWORD PTR _strText$[ebp]
  000ab	ff 15 00 00 00
	00		 call	 DWORD PTR __imp_?ReleaseBuffer@?$CSimpleStringT@D$00@ATL@@QAEXH@Z
; File C:\Program Files (x86)\Microsoft Visual Studio\2019\Community\VC\Tools\MSVC\14.29.30133\atlmfc\include\afxcmn2.inl

; 117  : 	{ ASSERT(::IsWindow(m_hWnd)); return (DWORD) ::SendMessage(m_hWnd, LVM_SETEXTENDEDLISTVIEWSTYLE, 0, (LPARAM) dwNewStyle); }

  000b1	68 20 40 00 00	 push	 16416			; 00004020H
  000b6	6a 00		 push	 0
  000b8	68 36 10 00 00	 push	 4150			; 00001036H
  000bd	ff 77 20	 push	 DWORD PTR [edi+32]
  000c0	ff 15 00 00 00
	00		 call	 DWORD PTR __imp__SendMessageA@16
; File D:\git\src\IBK\IBK_DRFN\ProjSrc\SrcDrfn\Chart\comparechart\control\VirtualListCtrl.cpp

; 118  : }

  000c6	8d 4d dc	 lea	 ecx, DWORD PTR _strText$[ebp]
  000c9	ff 15 00 00 00
	00		 call	 DWORD PTR __imp_??1?$CStringT@DV?$StrTraitMFC_DLL@DV?$ChTraitsCRT@D@ATL@@@@@ATL@@QAE@XZ
  000cf	8b 4d f4	 mov	 ecx, DWORD PTR __$EHRec$[ebp]
  000d2	64 89 0d 00 00
	00 00		 mov	 DWORD PTR fs:0, ecx
  000d9	59		 pop	 ecx
  000da	5f		 pop	 edi
  000db	8b 4d f0	 mov	 ecx, DWORD PTR __$ArrayPad$[ebp]
  000de	33 cd		 xor	 ecx, ebp
  000e0	e8 00 00 00 00	 call	 @__security_check_cookie@4
  000e5	8b e5		 mov	 esp, ebp
  000e7	5d		 pop	 ebp
  000e8	c3		 ret	 0
_TEXT	ENDS
;	COMDAT text$x
text$x	SEGMENT
__unwindfunclet$?Init_ListCtrl@CVirtualListCtrl@@QAEXXZ$0:
  00000	8d 4d dc	 lea	 ecx, DWORD PTR _strText$[ebp]
  00003	ff 25 00 00 00
	00		 jmp	 DWORD PTR __imp_??1?$CStringT@DV?$StrTraitMFC_DLL@DV?$ChTraitsCRT@D@ATL@@@@@ATL@@QAE@XZ
  00009	cc		 int	 3
  0000a	cc		 int	 3
  0000b	cc		 int	 3
  0000c	cc		 int	 3
  0000d	cc		 int	 3
__ehhandler$?Init_ListCtrl@CVirtualListCtrl@@QAEXXZ:
  0000e	90		 npad	 1
  0000f	90		 npad	 1
  00010	8b 54 24 08	 mov	 edx, DWORD PTR [esp+8]
  00014	8d 42 0c	 lea	 eax, DWORD PTR [edx+12]
  00017	8b 4a e0	 mov	 ecx, DWORD PTR [edx-32]
  0001a	33 c8		 xor	 ecx, eax
  0001c	e8 00 00 00 00	 call	 @__security_check_cookie@4
  00021	8b 4a fc	 mov	 ecx, DWORD PTR [edx-4]
  00024	33 c8		 xor	 ecx, eax
  00026	e8 00 00 00 00	 call	 @__security_check_cookie@4
  0002b	b8 00 00 00 00	 mov	 eax, OFFSET __ehfuncinfo$?Init_ListCtrl@CVirtualListCtrl@@QAEXXZ
  00030	e9 00 00 00 00	 jmp	 ___CxxFrameHandler3
text$x	ENDS
?Init_ListCtrl@CVirtualListCtrl@@QAEXXZ ENDP		; CVirtualListCtrl::Init_ListCtrl
; Function compile flags: /Ogtp
; File D:\git\src\IBK\IBK_DRFN\ProjSrc\SrcDrfn\Chart\comparechart\control\VirtualListCtrl.cpp
; File C:\Program Files (x86)\Microsoft Visual Studio\2019\Community\VC\Tools\MSVC\14.29.30133\atlmfc\include\atlsimpstr.h
; File D:\git\src\IBK\IBK_DRFN\ProjSrc\SrcDrfn\Chart\comparechart\control\VirtualListCtrl.cpp
; File C:\Program Files (x86)\Microsoft Visual Studio\2019\Community\VC\Tools\MSVC\14.29.30133\atlmfc\include\afxtempl.h
; File D:\git\src\IBK\IBK_DRFN\ProjSrc\SrcDrfn\Chart\comparechart\control\VirtualListCtrl.cpp
; File C:\Program Files (x86)\Microsoft Visual Studio\2019\Community\VC\Tools\MSVC\14.29.30133\atlmfc\include\cstringt.h
; File D:\git\src\IBK\IBK_DRFN\ProjSrc\SrcDrfn\Chart\comparechart\control\VirtualListCtrl.cpp
; File C:\Program Files (x86)\Microsoft Visual Studio\2019\Community\VC\Tools\MSVC\14.29.30133\atlmfc\include\cstringt.h
; File D:\git\src\IBK\IBK_DRFN\ProjSrc\SrcDrfn\Chart\comparechart\control\VirtualListCtrl.cpp
; File C:\Program Files (x86)\Microsoft Visual Studio\2019\Community\VC\Tools\MSVC\14.29.30133\atlmfc\include\cstringt.h
; File D:\git\src\IBK\IBK_DRFN\ProjSrc\SrcDrfn\Chart\comparechart\control\VirtualListCtrl.cpp
; File C:\Program Files (x86)\Microsoft Visual Studio\2019\Community\VC\Tools\MSVC\14.29.30133\atlmfc\include\cstringt.h
; File D:\git\src\IBK\IBK_DRFN\ProjSrc\SrcDrfn\Chart\comparechart\control\VirtualListCtrl.cpp
; File C:\Program Files (x86)\Microsoft Visual Studio\2019\Community\VC\Tools\MSVC\14.29.30133\atlmfc\include\cstringt.h
; File D:\git\src\IBK\IBK_DRFN\ProjSrc\SrcDrfn\Chart\comparechart\control\VirtualListCtrl.cpp
; File C:\Program Files (x86)\Microsoft Visual Studio\2019\Community\VC\Tools\MSVC\14.29.30133\atlmfc\include\afxwin2.inl
; File D:\git\src\IBK\IBK_DRFN\ProjSrc\SrcDrfn\Chart\comparechart\control\VirtualListCtrl.cpp
; File C:\Program Files (x86)\Microsoft Visual Studio\2019\Community\VC\Tools\MSVC\14.29.30133\atlmfc\include\afxwin2.inl
; File D:\git\src\IBK\IBK_DRFN\ProjSrc\SrcDrfn\Chart\comparechart\control\VirtualListCtrl.cpp
; File C:\Program Files (x86)\Microsoft Visual Studio\2019\Community\VC\Tools\MSVC\14.29.30133\atlmfc\include\afxwin2.inl
; File D:\git\src\IBK\IBK_DRFN\ProjSrc\SrcDrfn\Chart\comparechart\control\VirtualListCtrl.cpp
; File C:\Program Files (x86)\Microsoft Visual Studio\2019\Community\VC\Tools\MSVC\14.29.30133\atlmfc\include\afxwin2.inl
; File D:\git\src\IBK\IBK_DRFN\ProjSrc\SrcDrfn\Chart\comparechart\control\VirtualListCtrl.cpp
; File C:\Program Files (x86)\Microsoft Visual Studio\2019\Community\VC\Tools\MSVC\14.29.30133\atlmfc\include\afxwin2.inl
; File D:\git\src\IBK\IBK_DRFN\ProjSrc\SrcDrfn\Chart\comparechart\control\VirtualListCtrl.cpp
; File C:\Program Files (x86)\Microsoft Visual Studio\2019\Community\VC\Tools\MSVC\14.29.30133\atlmfc\include\afxwin2.inl
; File D:\git\src\IBK\IBK_DRFN\ProjSrc\SrcDrfn\Chart\comparechart\control\VirtualListCtrl.cpp
; File C:\Program Files (x86)\Microsoft Visual Studio\2019\Community\VC\Tools\MSVC\14.29.30133\atlmfc\include\cstringt.h
; File D:\git\src\IBK\IBK_DRFN\ProjSrc\SrcDrfn\Chart\comparechart\control\VirtualListCtrl.cpp
; File C:\Program Files (x86)\Microsoft Visual Studio\2019\Community\VC\Tools\MSVC\14.29.30133\atlmfc\include\cstringt.h
; File C:\Program Files (x86)\Microsoft Visual Studio\2019\Community\VC\Tools\MSVC\14.29.30133\atlmfc\include\atlsimpstr.h
; File C:\Program Files (x86)\Microsoft Visual Studio\2019\Community\VC\Tools\MSVC\14.29.30133\atlmfc\include\cstringt.h
; File D:\git\src\IBK\IBK_DRFN\ProjSrc\SrcDrfn\Chart\comparechart\control\VirtualListCtrl.cpp
; File C:\Program Files (x86)\Microsoft Visual Studio\2019\Community\VC\Tools\MSVC\14.29.30133\atlmfc\include\cstringt.h
; File D:\git\src\IBK\IBK_DRFN\ProjSrc\SrcDrfn\Chart\comparechart\control\VirtualListCtrl.cpp
; File C:\Program Files (x86)\Microsoft Visual Studio\2019\Community\VC\Tools\MSVC\14.29.30133\atlmfc\include\afxtempl.h
; File D:\git\src\IBK\IBK_DRFN\ProjSrc\SrcDrfn\Chart\comparechart\control\VirtualListCtrl.cpp
;	COMDAT ?ChangeCode@CVirtualListCtrl@@QAEXV?$CStringT@DV?$StrTraitMFC_DLL@DV?$ChTraitsCRT@D@ATL@@@@@ATL@@@Z
_TEXT	SEGMENT
$T2 = -76						; size = 4
_Name$ = -72						; size = 4
_Code$ = -68						; size = 4
_nLine$2$ = -64						; size = 4
_nLine$1$ = -64						; size = 4
_nTot$1$ = -64						; size = 4
_nLen$1$ = -60						; size = 4
$T3 = -60						; size = 4
$T4 = -60						; size = 4
_nFindIdx$1$ = -56					; size = 4
$T5 = -56						; size = 4
$T6 = -52						; size = 4
$T7 = -52						; size = 4
_nPage$2$ = -48						; size = 4
_nPage$1$ = -48						; size = 4
_sTemp$8 = -48						; size = 4
$T9 = -48						; size = 4
$T10 = -48						; size = 4
$T11 = -48						; size = 4
_sInfo$12 = -44						; size = 28
__$ArrayPad$ = -16					; size = 4
__$EHRec$ = -12						; size = 12
_strFind$ = 8						; size = 4
?ChangeCode@CVirtualListCtrl@@QAEXV?$CStringT@DV?$StrTraitMFC_DLL@DV?$ChTraitsCRT@D@ATL@@@@@ATL@@@Z PROC ; CVirtualListCtrl::ChangeCode, COMDAT
; _this$ = ecx

; 471  : {	

  00000	55		 push	 ebp
  00001	8b ec		 mov	 ebp, esp
  00003	6a ff		 push	 -1
  00005	68 00 00 00 00	 push	 __ehhandler$?ChangeCode@CVirtualListCtrl@@QAEXV?$CStringT@DV?$StrTraitMFC_DLL@DV?$ChTraitsCRT@D@ATL@@@@@ATL@@@Z
  0000a	64 a1 00 00 00
	00		 mov	 eax, DWORD PTR fs:0
  00010	50		 push	 eax
  00011	83 ec 40	 sub	 esp, 64			; 00000040H
  00014	a1 00 00 00 00	 mov	 eax, DWORD PTR ___security_cookie
  00019	33 c5		 xor	 eax, ebp
  0001b	89 45 f0	 mov	 DWORD PTR __$ArrayPad$[ebp], eax
  0001e	53		 push	 ebx
  0001f	56		 push	 esi
  00020	57		 push	 edi
  00021	50		 push	 eax
  00022	8d 45 f4	 lea	 eax, DWORD PTR __$EHRec$[ebp]
  00025	64 a3 00 00 00
	00		 mov	 DWORD PTR fs:0, eax
  0002b	8b f1		 mov	 esi, ecx
  0002d	c7 45 c4 00 00
	00 00		 mov	 DWORD PTR $T3[ebp], 0

; 472  : 	char* pChar1 = (LPTSTR)(LPCTSTR)strFind.Left(1);

  00034	6a 01		 push	 1
  00036	8d 45 c4	 lea	 eax, DWORD PTR $T4[ebp]
  00039	c7 45 fc 00 00
	00 00		 mov	 DWORD PTR __$EHRec$[ebp+8], 0
  00040	50		 push	 eax
  00041	8d 4d 08	 lea	 ecx, DWORD PTR _strFind$[ebp]
  00044	ff 15 00 00 00
	00		 call	 DWORD PTR __imp_?Left@?$CStringT@DV?$StrTraitMFC_DLL@DV?$ChTraitsCRT@D@ATL@@@@@ATL@@QBE?AV12@H@Z
  0004a	8d 4d c4	 lea	 ecx, DWORD PTR $T4[ebp]
; File C:\Program Files (x86)\Microsoft Visual Studio\2019\Community\VC\Tools\MSVC\14.29.30133\atlmfc\include\atlsimpstr.h

; 377  : 		return( m_pszData );

  0004d	8b 38		 mov	 edi, DWORD PTR [eax]
; File D:\git\src\IBK\IBK_DRFN\ProjSrc\SrcDrfn\Chart\comparechart\control\VirtualListCtrl.cpp

; 472  : 	char* pChar1 = (LPTSTR)(LPCTSTR)strFind.Left(1);

  0004f	ff 15 00 00 00
	00		 call	 DWORD PTR __imp_??1?$CStringT@DV?$StrTraitMFC_DLL@DV?$ChTraitsCRT@D@ATL@@@@@ATL@@QAE@XZ

; 473  : 	if(m_nFindCol == 0)  //   

  00055	83 be 84 00 00
	00 00		 cmp	 DWORD PTR [esi+132], 0
  0005c	75 0e		 jne	 SHORT $LN6@ChangeCode

; 474  : 		if(*pChar1 > '0' && *pChar1 < '9') //  

  0005e	8a 07		 mov	 al, BYTE PTR [edi]
  00060	3c 30		 cmp	 al, 48			; 00000030H
  00062	7e 08		 jle	 SHORT $LN6@ChangeCode
  00064	3c 39		 cmp	 al, 57			; 00000039H
  00066	0f 8c 09 03 00
	00		 jl	 $LN21@ChangeCode
$LN6@ChangeCode:

; 475  : 			return;		//.		
; 476  : 	else if(m_nFindCol == 1)  //()   
; 477  : 		if(*pChar1 < '0' && *pChar1 > '9') //   
; 478  : 			return;		//.				
; 479  : 
; 480  : 	int nFindItem = FindItemByString(m_nFindCol, strFind);

  0006c	8d 45 08	 lea	 eax, DWORD PTR _strFind$[ebp]
  0006f	50		 push	 eax
  00070	8d 4d cc	 lea	 ecx, DWORD PTR $T6[ebp]
  00073	ff 15 00 00 00
	00		 call	 DWORD PTR __imp_??0?$CStringT@DV?$StrTraitMFC_DLL@DV?$ChTraitsCRT@D@ATL@@@@@ATL@@QAE@ABV01@@Z

; 504  : 	int nLen = _mbslen((const unsigned char*)(LPCTSTR)strFind);

  00079	ff 75 cc	 push	 DWORD PTR $T6[ebp]
  0007c	c7 45 c8 ff ff
	ff ff		 mov	 DWORD PTR _nFindIdx$1$[ebp], -1
  00083	ff 15 00 00 00
	00		 call	 DWORD PTR __imp___mbslen

; 505  : 
; 506  : 
; 507  : 	int nTot = m_AllArray.GetSize();

  00089	8b be 10 01 00
	00		 mov	 edi, DWORD PTR [esi+272]

; 508  : 	CString sTemp;

  0008f	8d 4d d0	 lea	 ecx, DWORD PTR _sTemp$8[ebp]
  00092	83 c4 04	 add	 esp, 4
  00095	89 45 c4	 mov	 DWORD PTR _nLen$1$[ebp], eax
  00098	89 7d c0	 mov	 DWORD PTR _nTot$1$[ebp], edi
  0009b	ff 15 00 00 00
	00		 call	 DWORD PTR __imp_??0?$CStringT@DV?$StrTraitMFC_DLL@DV?$ChTraitsCRT@D@ATL@@@@@ATL@@QAE@XZ

; 509  : 	for(int i = 0 ; i < nTot; i++)

  000a1	33 db		 xor	 ebx, ebx
  000a3	c6 45 fc 02	 mov	 BYTE PTR __$EHRec$[ebp+8], 2
  000a7	85 ff		 test	 edi, edi
  000a9	7e 7d		 jle	 SHORT $LN137@ChangeCode
  000ab	0f 1f 44 00 00	 npad	 5
$LL27@ChangeCode:
; File C:\Program Files (x86)\Microsoft Visual Studio\2019\Community\VC\Tools\MSVC\14.29.30133\atlmfc\include\afxtempl.h

; 288  : 	if(nIndex >= 0 && nIndex < m_nSize)

  000b0	85 db		 test	 ebx, ebx
  000b2	0f 88 e4 02 00
	00		 js	 $LN40@ChangeCode
  000b8	3b 9e 10 01 00
	00		 cmp	 ebx, DWORD PTR [esi+272]
  000be	0f 8d d8 02 00
	00		 jge	 $LN40@ChangeCode

; 289  : 		return m_pData[nIndex];

  000c4	8b 86 0c 01 00
	00		 mov	 eax, DWORD PTR [esi+268]
; File D:\git\src\IBK\IBK_DRFN\ProjSrc\SrcDrfn\Chart\comparechart\control\VirtualListCtrl.cpp

; 511  : 		MASTERCODE *pMaster = m_AllArray.GetAt(i);

  000ca	8b 0c 98	 mov	 ecx, DWORD PTR [eax+ebx*4]

; 512  : 		if ( m_nFindCol == 0)

  000cd	8b 86 84 00 00
	00		 mov	 eax, DWORD PTR [esi+132]
  000d3	85 c0		 test	 eax, eax
  000d5	75 15		 jne	 SHORT $LN28@ChangeCode
; File C:\Program Files (x86)\Microsoft Visual Studio\2019\Community\VC\Tools\MSVC\14.29.30133\atlmfc\include\cstringt.h

; 2664 : 		return( str1.Compare( str2 ) >= 0 );

  000d7	ff 75 cc	 push	 DWORD PTR $T6[ebp]
; File D:\git\src\IBK\IBK_DRFN\ProjSrc\SrcDrfn\Chart\comparechart\control\VirtualListCtrl.cpp

; 514  : 			if( pMaster->strKor >= strFind )	

  000da	83 c1 04	 add	 ecx, 4
; File C:\Program Files (x86)\Microsoft Visual Studio\2019\Community\VC\Tools\MSVC\14.29.30133\atlmfc\include\cstringt.h

; 2664 : 		return( str1.Compare( str2 ) >= 0 );

  000dd	ff 15 00 00 00
	00		 call	 DWORD PTR __imp_?Compare@?$CStringT@DV?$StrTraitMFC_DLL@DV?$ChTraitsCRT@D@ATL@@@@@ATL@@QBEHPBD@Z
  000e3	85 c0		 test	 eax, eax
; File D:\git\src\IBK\IBK_DRFN\ProjSrc\SrcDrfn\Chart\comparechart\control\VirtualListCtrl.cpp

; 514  : 			if( pMaster->strKor >= strFind )	

  000e5	78 3c		 js	 SHORT $LN25@ChangeCode
$LN118@ChangeCode:

; 523  : 			{
; 524  : 				nFindIdx = i;
; 525  : 				break;
; 526  : 			}
; 527  : 		}
; 528  : 	}
; 529  : 	
; 530  : 
; 531  : 
; 532  : 
; 533  : 
; 534  : //===============================================================
; 535  : /*	for (int i = 0; i < GetItemCount(); i++)	
; 536  : 	{
; 537  : 		CString str = GetItemText(i, nCol);		
; 538  : 		if( nCol == 0 || nCol == 2)
; 539  : 		{		
; 540  : 			if (str.Left(nLen) >= strFind )	
; 541  : 			{		
; 542  : 				nFindIdx = i;
; 543  : 				return nFindIdx;
; 544  : 			}
; 545  : 		}
; 546  : 		else if( nCol == 1 )
; 547  : 		{
; 548  : 			if (str.Mid(nLen, 1) >= strFind )
; 549  : 			{			//ljj 20030904 
; 550  : 				nFindIdx = i;
; 551  : 				return nFindIdx;
; 552  : 			}
; 553  : 		}
; 554  : 	} 
; 555  : */
; 556  : 	return nFindIdx;

  000e7	89 5d c8	 mov	 DWORD PTR _nFindIdx$1$[ebp], ebx
  000ea	eb 3f		 jmp	 SHORT $LN26@ChangeCode
$LN28@ChangeCode:

; 515  : 			{
; 516  : 				nFindIdx = i;
; 517  : 				break;
; 518  : 			}
; 519  : 		}
; 520  : 		else if ( m_nFindCol == 1)

  000ec	83 f8 01	 cmp	 eax, 1
  000ef	75 32		 jne	 SHORT $LN25@ChangeCode

; 522  : 			if( pMaster->strCode.Left(nLen) >= strFind )				

  000f1	ff 75 c4	 push	 DWORD PTR _nLen$1$[ebp]
  000f4	8d 45 b4	 lea	 eax, DWORD PTR $T2[ebp]
  000f7	50		 push	 eax
  000f8	ff 15 00 00 00
	00		 call	 DWORD PTR __imp_?Left@?$CStringT@DV?$StrTraitMFC_DLL@DV?$ChTraitsCRT@D@ATL@@@@@ATL@@QBE?AV12@H@Z
; File C:\Program Files (x86)\Microsoft Visual Studio\2019\Community\VC\Tools\MSVC\14.29.30133\atlmfc\include\cstringt.h

; 2664 : 		return( str1.Compare( str2 ) >= 0 );

  000fe	ff 75 cc	 push	 DWORD PTR $T6[ebp]
  00101	8b c8		 mov	 ecx, eax
; File D:\git\src\IBK\IBK_DRFN\ProjSrc\SrcDrfn\Chart\comparechart\control\VirtualListCtrl.cpp

; 522  : 			if( pMaster->strCode.Left(nLen) >= strFind )				

  00103	c6 45 fc 03	 mov	 BYTE PTR __$EHRec$[ebp+8], 3
; File C:\Program Files (x86)\Microsoft Visual Studio\2019\Community\VC\Tools\MSVC\14.29.30133\atlmfc\include\cstringt.h

; 2664 : 		return( str1.Compare( str2 ) >= 0 );

  00107	ff 15 00 00 00
	00		 call	 DWORD PTR __imp_?Compare@?$CStringT@DV?$StrTraitMFC_DLL@DV?$ChTraitsCRT@D@ATL@@@@@ATL@@QBEHPBD@Z
; File D:\git\src\IBK\IBK_DRFN\ProjSrc\SrcDrfn\Chart\comparechart\control\VirtualListCtrl.cpp

; 522  : 			if( pMaster->strCode.Left(nLen) >= strFind )				

  0010d	8d 4d b4	 lea	 ecx, DWORD PTR $T2[ebp]
  00110	c6 45 fc 02	 mov	 BYTE PTR __$EHRec$[ebp+8], 2
; File C:\Program Files (x86)\Microsoft Visual Studio\2019\Community\VC\Tools\MSVC\14.29.30133\atlmfc\include\cstringt.h

; 2664 : 		return( str1.Compare( str2 ) >= 0 );

  00114	8b f8		 mov	 edi, eax
; File D:\git\src\IBK\IBK_DRFN\ProjSrc\SrcDrfn\Chart\comparechart\control\VirtualListCtrl.cpp

; 522  : 			if( pMaster->strCode.Left(nLen) >= strFind )				

  00116	ff 15 00 00 00
	00		 call	 DWORD PTR __imp_??1?$CStringT@DV?$StrTraitMFC_DLL@DV?$ChTraitsCRT@D@ATL@@@@@ATL@@QAE@XZ
  0011c	85 ff		 test	 edi, edi
  0011e	79 c7		 jns	 SHORT $LN118@ChangeCode
  00120	8b 7d c0	 mov	 edi, DWORD PTR _nTot$1$[ebp]
$LN25@ChangeCode:

; 509  : 	for(int i = 0 ; i < nTot; i++)

  00123	43		 inc	 ebx
  00124	3b df		 cmp	 ebx, edi
  00126	7c 88		 jl	 SHORT $LL27@ChangeCode
$LN137@ChangeCode:

; 523  : 			{
; 524  : 				nFindIdx = i;
; 525  : 				break;
; 526  : 			}
; 527  : 		}
; 528  : 	}
; 529  : 	
; 530  : 
; 531  : 
; 532  : 
; 533  : 
; 534  : //===============================================================
; 535  : /*	for (int i = 0; i < GetItemCount(); i++)	
; 536  : 	{
; 537  : 		CString str = GetItemText(i, nCol);		
; 538  : 		if( nCol == 0 || nCol == 2)
; 539  : 		{		
; 540  : 			if (str.Left(nLen) >= strFind )	
; 541  : 			{		
; 542  : 				nFindIdx = i;
; 543  : 				return nFindIdx;
; 544  : 			}
; 545  : 		}
; 546  : 		else if( nCol == 1 )
; 547  : 		{
; 548  : 			if (str.Mid(nLen, 1) >= strFind )
; 549  : 			{			//ljj 20030904 
; 550  : 				nFindIdx = i;
; 551  : 				return nFindIdx;
; 552  : 			}
; 553  : 		}
; 554  : 	} 
; 555  : */
; 556  : 	return nFindIdx;

  00128	83 cb ff	 or	 ebx, -1
$LN26@ChangeCode:
  0012b	8d 4d d0	 lea	 ecx, DWORD PTR _sTemp$8[ebp]
  0012e	ff 15 00 00 00
	00		 call	 DWORD PTR __imp_??1?$CStringT@DV?$StrTraitMFC_DLL@DV?$ChTraitsCRT@D@ATL@@@@@ATL@@QAE@XZ
  00134	8d 4d cc	 lea	 ecx, DWORD PTR $T6[ebp]
  00137	c6 45 fc 00	 mov	 BYTE PTR __$EHRec$[ebp+8], 0
  0013b	ff 15 00 00 00
	00		 call	 DWORD PTR __imp_??1?$CStringT@DV?$StrTraitMFC_DLL@DV?$ChTraitsCRT@D@ATL@@@@@ATL@@QAE@XZ

; 481  : 	if( nFindItem <= 0 )

  00141	85 db		 test	 ebx, ebx
  00143	0f 8e 2c 02 00
	00		 jle	 $LN21@ChangeCode
; File C:\Program Files (x86)\Microsoft Visual Studio\2019\Community\VC\Tools\MSVC\14.29.30133\atlmfc\include\afxwin2.inl

; 108  : 	{ ASSERT(::IsWindow(m_hWnd)); ::SendMessage(m_hWnd, WM_SETREDRAW, bRedraw, 0); }

  00149	8b 3d 00 00 00
	00		 mov	 edi, DWORD PTR __imp__SendMessageA@16
  0014f	6a 00		 push	 0
  00151	6a 00		 push	 0
  00153	6a 0b		 push	 11			; 0000000bH
  00155	ff 76 20	 push	 DWORD PTR [esi+32]
  00158	ff d7		 call	 edi
; File D:\git\src\IBK\IBK_DRFN\ProjSrc\SrcDrfn\Chart\comparechart\control\VirtualListCtrl.cpp

; 564  : 	GetScrollInfo(SB_VERT, &sInfo);

  0015a	6a 17		 push	 23			; 00000017H
  0015c	8d 45 d4	 lea	 eax, DWORD PTR _sInfo$12[ebp]
  0015f	8b ce		 mov	 ecx, esi
  00161	50		 push	 eax
  00162	6a 01		 push	 1
  00164	e8 00 00 00 00	 call	 ?GetScrollInfo@CWnd@@QAEHHPAUtagSCROLLINFO@@I@Z ; CWnd::GetScrollInfo

; 565  : 	int pos = GetScrollPos(SB_VERT);

  00169	6a 01		 push	 1
  0016b	8b ce		 mov	 ecx, esi
  0016d	e8 00 00 00 00	 call	 ?GetScrollPos@CWnd@@QBEHH@Z ; CWnd::GetScrollPos
  00172	8b c8		 mov	 ecx, eax

; 566  : 	
; 567  : 	if (pos < nIndex)	{

  00174	33 d2		 xor	 edx, edx
  00176	3b cb		 cmp	 ecx, ebx
  00178	7d 4b		 jge	 SHORT $LN67@ChangeCode

; 568  : 		nPage = (nIndex-pos)/sInfo.nPage;

  0017a	8b c3		 mov	 eax, ebx
  0017c	2b c1		 sub	 eax, ecx
  0017e	f7 75 e4	 div	 DWORD PTR _sInfo$12[ebp+16]
  00181	89 45 d0	 mov	 DWORD PTR _nPage$1$[ebp], eax
  00184	8b da		 mov	 ebx, edx
  00186	89 5d c0	 mov	 DWORD PTR _nLine$1$[ebp], ebx

; 570  : 		for( i=0; i < nPage; i++)

  00189	85 c0		 test	 eax, eax
  0018b	7e 19		 jle	 SHORT $LN56@ChangeCode
  0018d	8b d8		 mov	 ebx, eax
  0018f	90		 npad	 1
$LL57@ChangeCode:
; File C:\Program Files (x86)\Microsoft Visual Studio\2019\Community\VC\Tools\MSVC\14.29.30133\atlmfc\include\afxwin2.inl

; 32   : 	{ ASSERT(::IsWindow(m_hWnd)); return ::SendMessage(m_hWnd, message, wParam, lParam); }

  00190	6a 00		 push	 0
  00192	6a 03		 push	 3
  00194	68 15 01 00 00	 push	 277			; 00000115H
  00199	ff 76 20	 push	 DWORD PTR [esi+32]
  0019c	ff d7		 call	 edi
; File D:\git\src\IBK\IBK_DRFN\ProjSrc\SrcDrfn\Chart\comparechart\control\VirtualListCtrl.cpp

; 570  : 		for( i=0; i < nPage; i++)

  0019e	83 eb 01	 sub	 ebx, 1
  001a1	75 ed		 jne	 SHORT $LL57@ChangeCode
  001a3	8b 5d c0	 mov	 ebx, DWORD PTR _nLine$1$[ebp]
$LN56@ChangeCode:

; 572  : 		for(i=0; i < nLine; i++)

  001a6	85 db		 test	 ebx, ebx
  001a8	7e 69		 jle	 SHORT $LN65@ChangeCode
  001aa	66 0f 1f 44 00
	00		 npad	 6
$LL60@ChangeCode:
; File C:\Program Files (x86)\Microsoft Visual Studio\2019\Community\VC\Tools\MSVC\14.29.30133\atlmfc\include\afxwin2.inl

; 32   : 	{ ASSERT(::IsWindow(m_hWnd)); return ::SendMessage(m_hWnd, message, wParam, lParam); }

  001b0	6a 00		 push	 0
  001b2	6a 01		 push	 1
  001b4	68 15 01 00 00	 push	 277			; 00000115H
  001b9	ff 76 20	 push	 DWORD PTR [esi+32]
  001bc	ff d7		 call	 edi
; File D:\git\src\IBK\IBK_DRFN\ProjSrc\SrcDrfn\Chart\comparechart\control\VirtualListCtrl.cpp

; 572  : 		for(i=0; i < nLine; i++)

  001be	83 eb 01	 sub	 ebx, 1
  001c1	75 ed		 jne	 SHORT $LL60@ChangeCode

; 573  : 			SendMessage(WM_VSCROLL, SB_LINEDOWN, NULL);
; 574  : 	}

  001c3	eb 4e		 jmp	 SHORT $LN65@ChangeCode
$LN67@ChangeCode:

; 575  : 	else	{
; 576  : 		nPage = (pos - nIndex) / sInfo.nPage;

  001c5	2b cb		 sub	 ecx, ebx
  001c7	8b c1		 mov	 eax, ecx
  001c9	f7 75 e4	 div	 DWORD PTR _sInfo$12[ebp+16]
  001cc	89 45 d0	 mov	 DWORD PTR _nPage$2$[ebp], eax
  001cf	8b da		 mov	 ebx, edx
  001d1	89 5d c0	 mov	 DWORD PTR _nLine$2$[ebp], ebx

; 578  : 		for( i=0; i < nPage; i++)

  001d4	85 c0		 test	 eax, eax
  001d6	7e 1e		 jle	 SHORT $LN62@ChangeCode
  001d8	8b d8		 mov	 ebx, eax
  001da	66 0f 1f 44 00
	00		 npad	 6
$LL63@ChangeCode:
; File C:\Program Files (x86)\Microsoft Visual Studio\2019\Community\VC\Tools\MSVC\14.29.30133\atlmfc\include\afxwin2.inl

; 32   : 	{ ASSERT(::IsWindow(m_hWnd)); return ::SendMessage(m_hWnd, message, wParam, lParam); }

  001e0	6a 00		 push	 0
  001e2	6a 02		 push	 2
  001e4	68 15 01 00 00	 push	 277			; 00000115H
  001e9	ff 76 20	 push	 DWORD PTR [esi+32]
  001ec	ff d7		 call	 edi
; File D:\git\src\IBK\IBK_DRFN\ProjSrc\SrcDrfn\Chart\comparechart\control\VirtualListCtrl.cpp

; 578  : 		for( i=0; i < nPage; i++)

  001ee	83 eb 01	 sub	 ebx, 1
  001f1	75 ed		 jne	 SHORT $LL63@ChangeCode
  001f3	8b 5d c0	 mov	 ebx, DWORD PTR _nLine$2$[ebp]
$LN62@ChangeCode:

; 580  : 		for(i=0; i < nLine; i++)

  001f6	85 db		 test	 ebx, ebx
  001f8	7e 19		 jle	 SHORT $LN65@ChangeCode
  001fa	66 0f 1f 44 00
	00		 npad	 6
$LL66@ChangeCode:
; File C:\Program Files (x86)\Microsoft Visual Studio\2019\Community\VC\Tools\MSVC\14.29.30133\atlmfc\include\afxwin2.inl

; 32   : 	{ ASSERT(::IsWindow(m_hWnd)); return ::SendMessage(m_hWnd, message, wParam, lParam); }

  00200	6a 00		 push	 0
  00202	6a 00		 push	 0
  00204	68 15 01 00 00	 push	 277			; 00000115H
  00209	ff 76 20	 push	 DWORD PTR [esi+32]
  0020c	ff d7		 call	 edi
; File D:\git\src\IBK\IBK_DRFN\ProjSrc\SrcDrfn\Chart\comparechart\control\VirtualListCtrl.cpp

; 580  : 		for(i=0; i < nLine; i++)

  0020e	83 eb 01	 sub	 ebx, 1
  00211	75 ed		 jne	 SHORT $LL66@ChangeCode
$LN65@ChangeCode:
; File C:\Program Files (x86)\Microsoft Visual Studio\2019\Community\VC\Tools\MSVC\14.29.30133\atlmfc\include\afxwin2.inl

; 108  : 	{ ASSERT(::IsWindow(m_hWnd)); ::SendMessage(m_hWnd, WM_SETREDRAW, bRedraw, 0); }

  00213	6a 00		 push	 0
  00215	6a 01		 push	 1
  00217	6a 0b		 push	 11			; 0000000bH
  00219	ff 76 20	 push	 DWORD PTR [esi+32]
  0021c	ff d7		 call	 edi

; 114  : 	{ ASSERT(::IsWindow(m_hWnd)); ::InvalidateRect(m_hWnd, NULL, bErase); }

  0021e	6a 00		 push	 0
  00220	6a 00		 push	 0
  00222	ff 76 20	 push	 DWORD PTR [esi+32]
  00225	ff 15 00 00 00
	00		 call	 DWORD PTR __imp__InvalidateRect@12

; 106  : 	{ ASSERT(::IsWindow(m_hWnd)); ::UpdateWindow(m_hWnd); }

  0022b	ff 76 20	 push	 DWORD PTR [esi+32]
  0022e	ff 15 00 00 00
	00		 call	 DWORD PTR __imp__UpdateWindow@4
; File D:\git\src\IBK\IBK_DRFN\ProjSrc\SrcDrfn\Chart\comparechart\control\VirtualListCtrl.cpp

; 489  : 	SetItemState(nFindItem, LVIS_FOCUSED|LVIS_SELECTED,LVIS_FOCUSED|LVIS_SELECTED);

  00234	8b 5d c8	 mov	 ebx, DWORD PTR _nFindIdx$1$[ebp]
  00237	8b ce		 mov	 ecx, esi
  00239	6a 03		 push	 3
  0023b	6a 03		 push	 3
  0023d	53		 push	 ebx
  0023e	e8 00 00 00 00	 call	 ?SetItemState@CListCtrl@@QAEHHII@Z ; CListCtrl::SetItemState

; 490  : 
; 491  : 	m_strCode = GetItemText(nFindItem, 1);

  00243	6a 01		 push	 1
  00245	53		 push	 ebx
  00246	8d 45 d0	 lea	 eax, DWORD PTR $T11[ebp]
  00249	8b ce		 mov	 ecx, esi
  0024b	50		 push	 eax
  0024c	e8 00 00 00 00	 call	 ?GetItemText@CListCtrl@@QBE?AV?$CStringT@DV?$StrTraitMFC_DLL@DV?$ChTraitsCRT@D@ATL@@@@@ATL@@HH@Z ; CListCtrl::GetItemText
  00251	50		 push	 eax
  00252	8d 8e 88 00 00
	00		 lea	 ecx, DWORD PTR [esi+136]
  00258	c6 45 fc 04	 mov	 BYTE PTR __$EHRec$[ebp+8], 4
  0025c	ff 15 00 00 00
	00		 call	 DWORD PTR __imp_??4?$CStringT@DV?$StrTraitMFC_DLL@DV?$ChTraitsCRT@D@ATL@@@@@ATL@@QAEAAV01@ABV01@@Z
  00262	8d 4d d0	 lea	 ecx, DWORD PTR $T11[ebp]
  00265	ff 15 00 00 00
	00		 call	 DWORD PTR __imp_??1?$CStringT@DV?$StrTraitMFC_DLL@DV?$ChTraitsCRT@D@ATL@@@@@ATL@@QAE@XZ

; 492  : 
; 493  : 	CString Code, Name;

  0026b	8d 4d bc	 lea	 ecx, DWORD PTR _Code$[ebp]
  0026e	ff 15 00 00 00
	00		 call	 DWORD PTR __imp_??0?$CStringT@DV?$StrTraitMFC_DLL@DV?$ChTraitsCRT@D@ATL@@@@@ATL@@QAE@XZ
  00274	8d 4d b8	 lea	 ecx, DWORD PTR _Name$[ebp]
  00277	ff 15 00 00 00
	00		 call	 DWORD PTR __imp_??0?$CStringT@DV?$StrTraitMFC_DLL@DV?$ChTraitsCRT@D@ATL@@@@@ATL@@QAE@XZ

; 494  : 	Code = GetItemText(nFindItem, 0);

  0027d	6a 00		 push	 0
  0027f	53		 push	 ebx
  00280	8d 45 d0	 lea	 eax, DWORD PTR $T10[ebp]
  00283	c6 45 fc 06	 mov	 BYTE PTR __$EHRec$[ebp+8], 6
  00287	50		 push	 eax
  00288	8b ce		 mov	 ecx, esi
  0028a	e8 00 00 00 00	 call	 ?GetItemText@CListCtrl@@QBE?AV?$CStringT@DV?$StrTraitMFC_DLL@DV?$ChTraitsCRT@D@ATL@@@@@ATL@@HH@Z ; CListCtrl::GetItemText
  0028f	50		 push	 eax
  00290	8d 4d bc	 lea	 ecx, DWORD PTR _Code$[ebp]
  00293	c6 45 fc 07	 mov	 BYTE PTR __$EHRec$[ebp+8], 7
  00297	ff 15 00 00 00
	00		 call	 DWORD PTR __imp_??4?$CStringT@DV?$StrTraitMFC_DLL@DV?$ChTraitsCRT@D@ATL@@@@@ATL@@QAEAAV01@ABV01@@Z
  0029d	8d 4d d0	 lea	 ecx, DWORD PTR $T10[ebp]
  002a0	c6 45 fc 06	 mov	 BYTE PTR __$EHRec$[ebp+8], 6
  002a4	ff 15 00 00 00
	00		 call	 DWORD PTR __imp_??1?$CStringT@DV?$StrTraitMFC_DLL@DV?$ChTraitsCRT@D@ATL@@@@@ATL@@QAE@XZ

; 495  : 	Name = GetItemText(nFindItem, 1);

  002aa	6a 01		 push	 1
  002ac	53		 push	 ebx
  002ad	8d 45 d0	 lea	 eax, DWORD PTR $T9[ebp]
  002b0	8b ce		 mov	 ecx, esi
  002b2	50		 push	 eax
  002b3	e8 00 00 00 00	 call	 ?GetItemText@CListCtrl@@QBE?AV?$CStringT@DV?$StrTraitMFC_DLL@DV?$ChTraitsCRT@D@ATL@@@@@ATL@@HH@Z ; CListCtrl::GetItemText
  002b8	50		 push	 eax
  002b9	8d 4d b8	 lea	 ecx, DWORD PTR _Name$[ebp]
  002bc	c6 45 fc 08	 mov	 BYTE PTR __$EHRec$[ebp+8], 8
  002c0	ff 15 00 00 00
	00		 call	 DWORD PTR __imp_??4?$CStringT@DV?$StrTraitMFC_DLL@DV?$ChTraitsCRT@D@ATL@@@@@ATL@@QAEAAV01@ABV01@@Z
  002c6	8d 4d d0	 lea	 ecx, DWORD PTR $T9[ebp]
  002c9	ff 15 00 00 00
	00		 call	 DWORD PTR __imp_??1?$CStringT@DV?$StrTraitMFC_DLL@DV?$ChTraitsCRT@D@ATL@@@@@ATL@@QAE@XZ
; File C:\Program Files (x86)\Microsoft Visual Studio\2019\Community\VC\Tools\MSVC\14.29.30133\atlmfc\include\cstringt.h

; 2401 : 		CStringT strResult( str1.GetManager() );

  002cf	8d 4d bc	 lea	 ecx, DWORD PTR _Code$[ebp]
; File D:\git\src\IBK\IBK_DRFN\ProjSrc\SrcDrfn\Chart\comparechart\control\VirtualListCtrl.cpp

; 496  : 	m_strCodeNName = Code + "|" + Name;

  002d2	c6 45 fc 09	 mov	 BYTE PTR __$EHRec$[ebp+8], 9
; File C:\Program Files (x86)\Microsoft Visual Studio\2019\Community\VC\Tools\MSVC\14.29.30133\atlmfc\include\cstringt.h

; 2401 : 		CStringT strResult( str1.GetManager() );

  002d6	ff 15 00 00 00
	00		 call	 DWORD PTR __imp_?GetManager@?$CStringT@DV?$StrTraitMFC_DLL@DV?$ChTraitsCRT@D@ATL@@@@@ATL@@QBEPAUIAtlStringMgr@2@XZ
  002dc	50		 push	 eax
  002dd	8d 4d cc	 lea	 ecx, DWORD PTR $T7[ebp]
  002e0	ff 15 00 00 00
	00		 call	 DWORD PTR __imp_??0?$CStringT@DV?$StrTraitMFC_DLL@DV?$ChTraitsCRT@D@ATL@@@@@ATL@@QAE@PAUIAtlStringMgr@1@@Z
; File C:\Program Files (x86)\Microsoft Visual Studio\2019\Community\VC\Tools\MSVC\14.29.30133\atlmfc\include\atlsimpstr.h

; 519  : 		return( GetData()->nDataLength );

  002e6	8b 45 bc	 mov	 eax, DWORD PTR _Code$[ebp]
; File C:\Program Files (x86)\Microsoft Visual Studio\2019\Community\VC\Tools\MSVC\14.29.30133\atlmfc\include\cstringt.h

; 2403 : 		CThisSimpleString::Concatenate( strResult, str1, str1.GetLength(), psz2, CThisSimpleString::StringLength( psz2 ) );

  002e9	6a 01		 push	 1
  002eb	68 00 00 00 00	 push	 OFFSET ??_C@_01DNKMNLPK@?$HM@

; 2404 : 
; 2405 : 		return( strResult );

  002f0	c7 45 c4 01 00
	00 00		 mov	 DWORD PTR $T3[ebp], 1
  002f7	ff 70 f4	 push	 DWORD PTR [eax-12]
  002fa	50		 push	 eax
  002fb	8d 45 cc	 lea	 eax, DWORD PTR $T7[ebp]
  002fe	50		 push	 eax
  002ff	ff 15 00 00 00
	00		 call	 DWORD PTR __imp_?Concatenate@?$CSimpleStringT@D$00@ATL@@KAXAAV12@PBDH1H@Z
  00305	83 c4 14	 add	 esp, 20			; 00000014H

; 2390 : 		CStringT strResult( str1.GetManager() );

  00308	8d 4d cc	 lea	 ecx, DWORD PTR $T7[ebp]
; File D:\git\src\IBK\IBK_DRFN\ProjSrc\SrcDrfn\Chart\comparechart\control\VirtualListCtrl.cpp

; 496  : 	m_strCodeNName = Code + "|" + Name;

  0030b	c6 45 fc 0a	 mov	 BYTE PTR __$EHRec$[ebp+8], 10 ; 0000000aH
; File C:\Program Files (x86)\Microsoft Visual Studio\2019\Community\VC\Tools\MSVC\14.29.30133\atlmfc\include\cstringt.h

; 2390 : 		CStringT strResult( str1.GetManager() );

  0030f	ff 15 00 00 00
	00		 call	 DWORD PTR __imp_?GetManager@?$CStringT@DV?$StrTraitMFC_DLL@DV?$ChTraitsCRT@D@ATL@@@@@ATL@@QBEPAUIAtlStringMgr@2@XZ
  00315	50		 push	 eax
  00316	8d 4d c8	 lea	 ecx, DWORD PTR $T5[ebp]
  00319	ff 15 00 00 00
	00		 call	 DWORD PTR __imp_??0?$CStringT@DV?$StrTraitMFC_DLL@DV?$ChTraitsCRT@D@ATL@@@@@ATL@@QAE@PAUIAtlStringMgr@1@@Z

; 2391 : 
; 2392 : 		CThisSimpleString::Concatenate( strResult, str1, str1.GetLength(), str2, str2.GetLength() );

  0031f	8b 45 b8	 mov	 eax, DWORD PTR _Name$[ebp]

; 2393 : 
; 2394 : 		return( strResult );

  00322	c7 45 c4 03 00
	00 00		 mov	 DWORD PTR $T3[ebp], 3
  00329	ff 70 f4	 push	 DWORD PTR [eax-12]
  0032c	50		 push	 eax
  0032d	8b 45 cc	 mov	 eax, DWORD PTR $T7[ebp]
  00330	ff 70 f4	 push	 DWORD PTR [eax-12]
  00333	50		 push	 eax
  00334	8d 45 c8	 lea	 eax, DWORD PTR $T5[ebp]
  00337	50		 push	 eax
  00338	ff 15 00 00 00
	00		 call	 DWORD PTR __imp_?Concatenate@?$CSimpleStringT@D$00@ATL@@KAXAAV12@PBDH1H@Z
  0033e	83 c4 14	 add	 esp, 20			; 00000014H
; File D:\git\src\IBK\IBK_DRFN\ProjSrc\SrcDrfn\Chart\comparechart\control\VirtualListCtrl.cpp

; 496  : 	m_strCodeNName = Code + "|" + Name;

  00341	8d 45 c8	 lea	 eax, DWORD PTR $T5[ebp]
  00344	8d 8e 8c 00 00
	00		 lea	 ecx, DWORD PTR [esi+140]
  0034a	50		 push	 eax
  0034b	ff 15 00 00 00
	00		 call	 DWORD PTR __imp_??4?$CStringT@DV?$StrTraitMFC_DLL@DV?$ChTraitsCRT@D@ATL@@@@@ATL@@QAEAAV01@ABV01@@Z
  00351	8d 4d c8	 lea	 ecx, DWORD PTR $T5[ebp]
  00354	ff 15 00 00 00
	00		 call	 DWORD PTR __imp_??1?$CStringT@DV?$StrTraitMFC_DLL@DV?$ChTraitsCRT@D@ATL@@@@@ATL@@QAE@XZ
  0035a	8d 4d cc	 lea	 ecx, DWORD PTR $T7[ebp]
  0035d	ff 15 00 00 00
	00		 call	 DWORD PTR __imp_??1?$CStringT@DV?$StrTraitMFC_DLL@DV?$ChTraitsCRT@D@ATL@@@@@ATL@@QAE@XZ

; 499  : }

  00363	8d 4d b8	 lea	 ecx, DWORD PTR _Name$[ebp]
  00366	ff 15 00 00 00
	00		 call	 DWORD PTR __imp_??1?$CStringT@DV?$StrTraitMFC_DLL@DV?$ChTraitsCRT@D@ATL@@@@@ATL@@QAE@XZ
  0036c	8d 4d bc	 lea	 ecx, DWORD PTR _Code$[ebp]
  0036f	ff 15 00 00 00
	00		 call	 DWORD PTR __imp_??1?$CStringT@DV?$StrTraitMFC_DLL@DV?$ChTraitsCRT@D@ATL@@@@@ATL@@QAE@XZ
$LN21@ChangeCode:
  00375	8d 4d 08	 lea	 ecx, DWORD PTR _strFind$[ebp]
  00378	ff 15 00 00 00
	00		 call	 DWORD PTR __imp_??1?$CStringT@DV?$StrTraitMFC_DLL@DV?$ChTraitsCRT@D@ATL@@@@@ATL@@QAE@XZ
  0037e	8b 4d f4	 mov	 ecx, DWORD PTR __$EHRec$[ebp]
  00381	64 89 0d 00 00
	00 00		 mov	 DWORD PTR fs:0, ecx
  00388	59		 pop	 ecx
  00389	5f		 pop	 edi
  0038a	5e		 pop	 esi
  0038b	5b		 pop	 ebx
  0038c	8b 4d f0	 mov	 ecx, DWORD PTR __$ArrayPad$[ebp]
  0038f	33 cd		 xor	 ecx, ebp
  00391	e8 00 00 00 00	 call	 @__security_check_cookie@4
  00396	8b e5		 mov	 esp, ebp
  00398	5d		 pop	 ebp
  00399	c2 04 00	 ret	 4
$LN40@ChangeCode:
; File C:\Program Files (x86)\Microsoft Visual Studio\2019\Community\VC\Tools\MSVC\14.29.30133\atlmfc\include\afxtempl.h

; 290  : 	AfxThrowInvalidArgException();

  0039c	e8 00 00 00 00	 call	 ?AfxThrowInvalidArgException@@YGXXZ ; AfxThrowInvalidArgException
$LN139@ChangeCode:
  003a1	cc		 int	 3
_TEXT	ENDS
;	COMDAT text$x
text$x	SEGMENT
__unwindfunclet$?ChangeCode@CVirtualListCtrl@@QAEXV?$CStringT@DV?$StrTraitMFC_DLL@DV?$ChTraitsCRT@D@ATL@@@@@ATL@@@Z$0:
  00000	8d 4d 08	 lea	 ecx, DWORD PTR _strFind$[ebp]
  00003	ff 25 00 00 00
	00		 jmp	 DWORD PTR __imp_??1?$CStringT@DV?$StrTraitMFC_DLL@DV?$ChTraitsCRT@D@ATL@@@@@ATL@@QAE@XZ
__unwindfunclet$?ChangeCode@CVirtualListCtrl@@QAEXV?$CStringT@DV?$StrTraitMFC_DLL@DV?$ChTraitsCRT@D@ATL@@@@@ATL@@@Z$10:
  00009	8d 4d cc	 lea	 ecx, DWORD PTR $T6[ebp]
  0000c	ff 25 00 00 00
	00		 jmp	 DWORD PTR __imp_??1?$CStringT@DV?$StrTraitMFC_DLL@DV?$ChTraitsCRT@D@ATL@@@@@ATL@@QAE@XZ
__unwindfunclet$?ChangeCode@CVirtualListCtrl@@QAEXV?$CStringT@DV?$StrTraitMFC_DLL@DV?$ChTraitsCRT@D@ATL@@@@@ATL@@@Z$11:
  00012	8d 4d d0	 lea	 ecx, DWORD PTR _sTemp$8[ebp]
  00015	ff 25 00 00 00
	00		 jmp	 DWORD PTR __imp_??1?$CStringT@DV?$StrTraitMFC_DLL@DV?$ChTraitsCRT@D@ATL@@@@@ATL@@QAE@XZ
__unwindfunclet$?ChangeCode@CVirtualListCtrl@@QAEXV?$CStringT@DV?$StrTraitMFC_DLL@DV?$ChTraitsCRT@D@ATL@@@@@ATL@@@Z$12:
  0001b	8d 4d b4	 lea	 ecx, DWORD PTR $T2[ebp]
  0001e	ff 25 00 00 00
	00		 jmp	 DWORD PTR __imp_??1?$CStringT@DV?$StrTraitMFC_DLL@DV?$ChTraitsCRT@D@ATL@@@@@ATL@@QAE@XZ
__unwindfunclet$?ChangeCode@CVirtualListCtrl@@QAEXV?$CStringT@DV?$StrTraitMFC_DLL@DV?$ChTraitsCRT@D@ATL@@@@@ATL@@@Z$3:
  00024	8d 4d d0	 lea	 ecx, DWORD PTR $T11[ebp]
  00027	ff 25 00 00 00
	00		 jmp	 DWORD PTR __imp_??1?$CStringT@DV?$StrTraitMFC_DLL@DV?$ChTraitsCRT@D@ATL@@@@@ATL@@QAE@XZ
__unwindfunclet$?ChangeCode@CVirtualListCtrl@@QAEXV?$CStringT@DV?$StrTraitMFC_DLL@DV?$ChTraitsCRT@D@ATL@@@@@ATL@@@Z$4:
  0002d	8d 4d bc	 lea	 ecx, DWORD PTR _Code$[ebp]
  00030	ff 25 00 00 00
	00		 jmp	 DWORD PTR __imp_??1?$CStringT@DV?$StrTraitMFC_DLL@DV?$ChTraitsCRT@D@ATL@@@@@ATL@@QAE@XZ
__unwindfunclet$?ChangeCode@CVirtualListCtrl@@QAEXV?$CStringT@DV?$StrTraitMFC_DLL@DV?$ChTraitsCRT@D@ATL@@@@@ATL@@@Z$5:
  00036	8d 4d b8	 lea	 ecx, DWORD PTR _Name$[ebp]
  00039	ff 25 00 00 00
	00		 jmp	 DWORD PTR __imp_??1?$CStringT@DV?$StrTraitMFC_DLL@DV?$ChTraitsCRT@D@ATL@@@@@ATL@@QAE@XZ
__unwindfunclet$?ChangeCode@CVirtualListCtrl@@QAEXV?$CStringT@DV?$StrTraitMFC_DLL@DV?$ChTraitsCRT@D@ATL@@@@@ATL@@@Z$6:
  0003f	8d 4d d0	 lea	 ecx, DWORD PTR $T10[ebp]
  00042	ff 25 00 00 00
	00		 jmp	 DWORD PTR __imp_??1?$CStringT@DV?$StrTraitMFC_DLL@DV?$ChTraitsCRT@D@ATL@@@@@ATL@@QAE@XZ
__unwindfunclet$?ChangeCode@CVirtualListCtrl@@QAEXV?$CStringT@DV?$StrTraitMFC_DLL@DV?$ChTraitsCRT@D@ATL@@@@@ATL@@@Z$7:
  00048	8d 4d d0	 lea	 ecx, DWORD PTR $T9[ebp]
  0004b	ff 25 00 00 00
	00		 jmp	 DWORD PTR __imp_??1?$CStringT@DV?$StrTraitMFC_DLL@DV?$ChTraitsCRT@D@ATL@@@@@ATL@@QAE@XZ
__unwindfunclet$?ChangeCode@CVirtualListCtrl@@QAEXV?$CStringT@DV?$StrTraitMFC_DLL@DV?$ChTraitsCRT@D@ATL@@@@@ATL@@@Z$13:
  00051	8b 45 c4	 mov	 eax, DWORD PTR $T3[ebp]
  00054	83 e0 01	 and	 eax, 1
  00057	0f 84 0d 00 00
	00		 je	 $LN87@ChangeCode
  0005d	83 65 c4 fe	 and	 DWORD PTR $T3[ebp], -2	; fffffffeH
  00061	8d 4d cc	 lea	 ecx, DWORD PTR $T7[ebp]
  00064	ff 25 00 00 00
	00		 jmp	 DWORD PTR __imp_??1?$CStringT@DV?$StrTraitMFC_DLL@DV?$ChTraitsCRT@D@ATL@@@@@ATL@@QAE@XZ
$LN87@ChangeCode:
  0006a	c3		 ret	 0
__unwindfunclet$?ChangeCode@CVirtualListCtrl@@QAEXV?$CStringT@DV?$StrTraitMFC_DLL@DV?$ChTraitsCRT@D@ATL@@@@@ATL@@@Z$14:
  0006b	8b 45 c4	 mov	 eax, DWORD PTR $T3[ebp]
  0006e	83 e0 02	 and	 eax, 2
  00071	0f 84 0d 00 00
	00		 je	 $LN100@ChangeCode
  00077	83 65 c4 fd	 and	 DWORD PTR $T3[ebp], -3	; fffffffdH
  0007b	8d 4d c8	 lea	 ecx, DWORD PTR $T5[ebp]
  0007e	ff 25 00 00 00
	00		 jmp	 DWORD PTR __imp_??1?$CStringT@DV?$StrTraitMFC_DLL@DV?$ChTraitsCRT@D@ATL@@@@@ATL@@QAE@XZ
$LN100@ChangeCode:
  00084	c3		 ret	 0
  00085	cc		 int	 3
  00086	cc		 int	 3
  00087	cc		 int	 3
  00088	cc		 int	 3
  00089	cc		 int	 3
__ehhandler$?ChangeCode@CVirtualListCtrl@@QAEXV?$CStringT@DV?$StrTraitMFC_DLL@DV?$ChTraitsCRT@D@ATL@@@@@ATL@@@Z:
  0008a	90		 npad	 1
  0008b	90		 npad	 1
  0008c	8b 54 24 08	 mov	 edx, DWORD PTR [esp+8]
  00090	8d 42 0c	 lea	 eax, DWORD PTR [edx+12]
  00093	8b 4a b0	 mov	 ecx, DWORD PTR [edx-80]
  00096	33 c8		 xor	 ecx, eax
  00098	e8 00 00 00 00	 call	 @__security_check_cookie@4
  0009d	8b 4a fc	 mov	 ecx, DWORD PTR [edx-4]
  000a0	33 c8		 xor	 ecx, eax
  000a2	e8 00 00 00 00	 call	 @__security_check_cookie@4
  000a7	b8 00 00 00 00	 mov	 eax, OFFSET __ehfuncinfo$?ChangeCode@CVirtualListCtrl@@QAEXV?$CStringT@DV?$StrTraitMFC_DLL@DV?$ChTraitsCRT@D@ATL@@@@@ATL@@@Z
  000ac	e9 00 00 00 00	 jmp	 ___CxxFrameHandler3
text$x	ENDS
?ChangeCode@CVirtualListCtrl@@QAEXV?$CStringT@DV?$StrTraitMFC_DLL@DV?$ChTraitsCRT@D@ATL@@@@@ATL@@@Z ENDP ; CVirtualListCtrl::ChangeCode
; Function compile flags: /Ogtp
; File D:\git\src\IBK\IBK_DRFN\ProjSrc\SrcDrfn\Chart\comparechart\control\VirtualListCtrl.cpp
;	COMDAT ?PreTranslateMessage@CVirtualListCtrl@@UAEHPAUtagMSG@@@Z
_TEXT	SEGMENT
_pMsg$ = 8						; size = 4
?PreTranslateMessage@CVirtualListCtrl@@UAEHPAUtagMSG@@@Z PROC ; CVirtualListCtrl::PreTranslateMessage, COMDAT
; _this$ = ecx

; 725  : {

  00000	55		 push	 ebp
  00001	8b ec		 mov	 ebp, esp

; 729  : }

  00003	5d		 pop	 ebp

; 726  : 	// TODO: Add your specialized code here and/or call the base class
; 727  : 	
; 728  : 	return CListCtrl::PreTranslateMessage(pMsg);

  00004	e9 00 00 00 00	 jmp	 ?PreTranslateMessage@CWnd@@UAEHPAUtagMSG@@@Z ; CWnd::PreTranslateMessage
?PreTranslateMessage@CVirtualListCtrl@@UAEHPAUtagMSG@@@Z ENDP ; CVirtualListCtrl::PreTranslateMessage
_TEXT	ENDS
; Function compile flags: /Ogtp
; File C:\Program Files (x86)\Microsoft Visual Studio\2019\Community\VC\Tools\MSVC\14.29.30133\atlmfc\include\afxtempl.h
; File C:\Program Files (x86)\Microsoft Visual Studio\2019\Community\VC\Tools\MSVC\14.29.30133\atlmfc\include\afx.inl
;	COMDAT ??_G?$CArray@PAU__MASTERCODE@@PAU1@@@UAEPAXI@Z
_TEXT	SEGMENT
___flags$ = 8						; size = 4
??_G?$CArray@PAU__MASTERCODE@@PAU1@@@UAEPAXI@Z PROC	; CArray<__MASTERCODE *,__MASTERCODE *>::`scalar deleting destructor', COMDAT
; _this$ = ecx
  00000	55		 push	 ebp
  00001	8b ec		 mov	 ebp, esp
; File C:\Program Files (x86)\Microsoft Visual Studio\2019\Community\VC\Tools\MSVC\14.29.30133\atlmfc\include\afxtempl.h

; 355  : {

  00003	56		 push	 esi
  00004	8b f1		 mov	 esi, ecx

; 356  : 	ASSERT_VALID(this);
; 357  : 
; 358  : 	if (m_pData != NULL)

  00006	8b 46 04	 mov	 eax, DWORD PTR [esi+4]
  00009	c7 06 00 00 00
	00		 mov	 DWORD PTR [esi], OFFSET ??_7?$CArray@PAU__MASTERCODE@@PAU1@@@6B@
  0000f	85 c0		 test	 eax, eax
  00011	74 09		 je	 SHORT $LN11@scalar

; 359  : 	{
; 360  : 		for( int i = 0; i < m_nSize; i++ )
; 361  : 			(m_pData + i)->~TYPE();
; 362  : 		delete[] (BYTE*)m_pData;

  00013	50		 push	 eax
  00014	e8 00 00 00 00	 call	 ??_V@YAXPAX@Z		; operator delete[]
  00019	83 c4 04	 add	 esp, 4
$LN11@scalar:
  0001c	8b 45 08	 mov	 eax, DWORD PTR ___flags$[ebp]
  0001f	a8 01		 test	 al, 1
  00021	74 1f		 je	 SHORT $LN20@scalar
  00023	a8 04		 test	 al, 4
  00025	75 10		 jne	 SHORT $LN3@scalar
; File C:\Program Files (x86)\Microsoft Visual Studio\2019\Community\VC\Tools\MSVC\14.29.30133\atlmfc\include\afx.inl

; 112  : 	{ ::operator delete(p); }

  00027	56		 push	 esi
  00028	e8 00 00 00 00	 call	 ??3@YAXPAX@Z		; operator delete
  0002d	83 c4 04	 add	 esp, 4
  00030	8b c6		 mov	 eax, esi
  00032	5e		 pop	 esi
  00033	5d		 pop	 ebp
  00034	c2 04 00	 ret	 4
$LN3@scalar:
  00037	6a 14		 push	 20			; 00000014H
  00039	56		 push	 esi
  0003a	e8 00 00 00 00	 call	 ?__global_delete@@YAXPAXI@Z ; __global_delete
  0003f	83 c4 08	 add	 esp, 8
$LN20@scalar:
  00042	8b c6		 mov	 eax, esi
  00044	5e		 pop	 esi
  00045	5d		 pop	 ebp
  00046	c2 04 00	 ret	 4
??_G?$CArray@PAU__MASTERCODE@@PAU1@@@UAEPAXI@Z ENDP	; CArray<__MASTERCODE *,__MASTERCODE *>::`scalar deleting destructor'
_TEXT	ENDS
; Function compile flags: /Ogtp
; File C:\Program Files (x86)\Microsoft Visual Studio\2019\Community\VC\Tools\MSVC\14.29.30133\atlmfc\include\afxtempl.h
; File C:\Program Files (x86)\Microsoft Visual Studio\2019\Community\VC\Tools\MSVC\14.29.30133\atlmfc\include\afx.inl
; File C:\Program Files (x86)\Microsoft Visual Studio\2019\Community\VC\Tools\MSVC\14.29.30133\atlmfc\include\afxtempl.h
; File C:\Program Files (x86)\Microsoft Visual Studio\2019\Community\VC\Tools\MSVC\14.29.30133\atlmfc\include\afx.inl
; File C:\Program Files (x86)\Microsoft Visual Studio\2019\Community\VC\Tools\MSVC\14.29.30133\atlmfc\include\afxtempl.h
; File C:\Program Files (x86)\Microsoft Visual Studio\2019\Community\VC\Tools\MSVC\14.29.30133\atlmfc\include\afx.inl
; File C:\Program Files (x86)\Microsoft Visual Studio\2019\Community\VC\Tools\MSVC\14.29.30133\atlmfc\include\afxtempl.h
; File C:\Program Files (x86)\Microsoft Visual Studio\2019\Community\VC\Tools\MSVC\14.29.30133\atlmfc\include\afx.inl
; File C:\Program Files (x86)\Microsoft Visual Studio\2019\Community\VC\Tools\MSVC\14.29.30133\atlmfc\include\afxtempl.h
;	COMDAT ?Serialize@?$CArray@PAU__MASTERCODE@@PAU1@@@UAEXAAVCArchive@@@Z
_TEXT	SEGMENT
_pData$1$ = -4						; size = 4
_ar$ = 8						; size = 4
?Serialize@?$CArray@PAU__MASTERCODE@@PAU1@@@UAEXAAVCArchive@@@Z PROC ; CArray<__MASTERCODE *,__MASTERCODE *>::Serialize, COMDAT
; _this$ = ecx

; 633  : {

  00000	55		 push	 ebp
  00001	8b ec		 mov	 ebp, esp
  00003	51		 push	 ecx
  00004	53		 push	 ebx
  00005	56		 push	 esi
  00006	57		 push	 edi
  00007	8b f9		 mov	 edi, ecx
; File C:\Program Files (x86)\Microsoft Visual Studio\2019\Community\VC\Tools\MSVC\14.29.30133\atlmfc\include\afx.inl

; 212  : 	{ return (m_nMode & CArchive::load) == 0; }

  00009	8b 4d 08	 mov	 ecx, DWORD PTR _ar$[ebp]
  0000c	8b 41 18	 mov	 eax, DWORD PTR [ecx+24]
  0000f	f7 d0		 not	 eax
  00011	a8 01		 test	 al, 1
; File C:\Program Files (x86)\Microsoft Visual Studio\2019\Community\VC\Tools\MSVC\14.29.30133\atlmfc\include\afxtempl.h

; 637  : 	if (ar.IsStoring())

  00013	74 0a		 je	 SHORT $LN2@Serialize

; 638  : 	{
; 639  : 		ar.WriteCount(m_nSize);

  00015	ff 77 08	 push	 DWORD PTR [edi+8]
  00018	e8 00 00 00 00	 call	 ?WriteCount@CArchive@@QAEXK@Z ; CArchive::WriteCount

; 640  : 	}

  0001d	eb 0f		 jmp	 SHORT $LN3@Serialize
$LN2@Serialize:

; 641  : 	else
; 642  : 	{
; 643  : 		DWORD_PTR nOldSize = ar.ReadCount();

  0001f	e8 00 00 00 00	 call	 ?ReadCount@CArchive@@QAEKXZ ; CArchive::ReadCount

; 644  : 		SetSize(nOldSize, -1);

  00024	6a ff		 push	 -1
  00026	50		 push	 eax
  00027	8b cf		 mov	 ecx, edi
  00029	e8 00 00 00 00	 call	 ?SetSize@?$CArray@PAU__MASTERCODE@@PAU1@@@QAEXHH@Z ; CArray<__MASTERCODE *,__MASTERCODE *>::SetSize
$LN3@Serialize:

; 645  : 	}
; 646  : 	SerializeElements<TYPE>(ar, m_pData, m_nSize);

  0002e	8b 77 08	 mov	 esi, DWORD PTR [edi+8]
  00031	8b 4f 04	 mov	 ecx, DWORD PTR [edi+4]
  00034	89 4d fc	 mov	 DWORD PTR _pData$1$[ebp], ecx

; 68   : 	ENSURE(nCount == 0 || pElements != NULL);

  00037	85 f6		 test	 esi, esi
  00039	74 08		 je	 SHORT $LN8@Serialize
  0003b	85 c9		 test	 ecx, ecx
  0003d	0f 84 8c 00 00
	00		 je	 $LN40@Serialize
$LN8@Serialize:
; File C:\Program Files (x86)\Microsoft Visual Studio\2019\Community\VC\Tools\MSVC\14.29.30133\atlmfc\include\afx.inl

; 212  : 	{ return (m_nMode & CArchive::load) == 0; }

  00043	8b 55 08	 mov	 edx, DWORD PTR _ar$[ebp]
  00046	8b 42 18	 mov	 eax, DWORD PTR [edx+24]
  00049	f7 d0		 not	 eax
  0004b	a8 01		 test	 al, 1
; File C:\Program Files (x86)\Microsoft Visual Studio\2019\Community\VC\Tools\MSVC\14.29.30133\atlmfc\include\afxtempl.h

; 73   : 	if (ar.IsStoring())

  0004d	74 36		 je	 SHORT $LN16@Serialize

; 74   : 	{
; 75   : 		TYPE* pData;
; 76   : 		UINT_PTR nElementsLeft;
; 77   : 
; 78   : 		nElementsLeft = nCount;
; 79   : 		pData = pElements;
; 80   : 		while( nElementsLeft > 0 )

  0004f	85 f6		 test	 esi, esi
  00051	74 29		 je	 SHORT $LN14@Serialize
$LL11@Serialize:

; 81   : 		{
; 82   : 			UINT nElementsToWrite;
; 83   : 
; 84   : 			nElementsToWrite = UINT(__min(nElementsLeft, INT_MAX/sizeof(TYPE)));

  00053	bb ff ff ff 1f	 mov	 ebx, 536870911		; 1fffffffH
  00058	3b f3		 cmp	 esi, ebx
  0005a	0f 42 de	 cmovb	 ebx, esi

; 85   : 			ar.Write(pData, nElementsToWrite*sizeof(TYPE));

  0005d	8d 3c 9d 00 00
	00 00		 lea	 edi, DWORD PTR [ebx*4]
  00064	57		 push	 edi
  00065	51		 push	 ecx
  00066	8b ca		 mov	 ecx, edx
  00068	e8 00 00 00 00	 call	 ?Write@CArchive@@QAEXPBXI@Z ; CArchive::Write

; 86   : 			nElementsLeft -= nElementsToWrite;
; 87   : 			pData += nElementsToWrite;

  0006d	8b 4d fc	 mov	 ecx, DWORD PTR _pData$1$[ebp]
  00070	8b 55 08	 mov	 edx, DWORD PTR _ar$[ebp]
  00073	03 cf		 add	 ecx, edi
  00075	89 4d fc	 mov	 DWORD PTR _pData$1$[ebp], ecx
  00078	2b f3		 sub	 esi, ebx
  0007a	75 d7		 jne	 SHORT $LL11@Serialize
$LN14@Serialize:
  0007c	5f		 pop	 edi

; 647  : }

  0007d	5e		 pop	 esi
  0007e	5b		 pop	 ebx
  0007f	8b e5		 mov	 esp, ebp
  00081	5d		 pop	 ebp
  00082	c2 04 00	 ret	 4
$LN16@Serialize:

; 97   : 		while( nElementsLeft > 0 )

  00085	85 f6		 test	 esi, esi
  00087	74 f3		 je	 SHORT $LN14@Serialize
  00089	0f 1f 80 00 00
	00 00		 npad	 7
$LL13@Serialize:

; 98   : 		{
; 99   : 			UINT nElementsToRead;
; 100  : 
; 101  : 			nElementsToRead = UINT(__min(nElementsLeft, INT_MAX/sizeof(TYPE)));

  00090	bf ff ff ff 1f	 mov	 edi, 536870911		; 1fffffffH
  00095	3b f7		 cmp	 esi, edi
  00097	0f 42 fe	 cmovb	 edi, esi

; 102  : 			ar.EnsureRead(pData, nElementsToRead*sizeof(TYPE));

  0009a	8d 1c bd 00 00
	00 00		 lea	 ebx, DWORD PTR [edi*4]
; File C:\Program Files (x86)\Microsoft Visual Studio\2019\Community\VC\Tools\MSVC\14.29.30133\atlmfc\include\afx.inl

; 399  : 	UINT nRead=Read(lpBuf, nCount);

  000a1	53		 push	 ebx
  000a2	51		 push	 ecx
  000a3	8b ca		 mov	 ecx, edx
  000a5	e8 00 00 00 00	 call	 ?Read@CArchive@@QAEIPAXI@Z ; CArchive::Read

; 400  : 	if(nRead!=nCount)

  000aa	3b c3		 cmp	 eax, ebx
  000ac	75 18		 jne	 SHORT $LN30@Serialize
; File C:\Program Files (x86)\Microsoft Visual Studio\2019\Community\VC\Tools\MSVC\14.29.30133\atlmfc\include\afxtempl.h

; 97   : 		while( nElementsLeft > 0 )

  000ae	8b 4d fc	 mov	 ecx, DWORD PTR _pData$1$[ebp]
  000b1	8b 55 08	 mov	 edx, DWORD PTR _ar$[ebp]

; 103  : 			nElementsLeft -= nElementsToRead;
; 104  : 			pData += nElementsToRead;

  000b4	03 cb		 add	 ecx, ebx
  000b6	89 4d fc	 mov	 DWORD PTR _pData$1$[ebp], ecx
  000b9	2b f7		 sub	 esi, edi
  000bb	75 d3		 jne	 SHORT $LL13@Serialize

; 647  : }

  000bd	5f		 pop	 edi
  000be	5e		 pop	 esi
  000bf	5b		 pop	 ebx
  000c0	8b e5		 mov	 esp, ebp
  000c2	5d		 pop	 ebp
  000c3	c2 04 00	 ret	 4
$LN30@Serialize:
; File C:\Program Files (x86)\Microsoft Visual Studio\2019\Community\VC\Tools\MSVC\14.29.30133\atlmfc\include\afx.inl

; 402  : 		AfxThrowArchiveException(CArchiveException::endOfFile);

  000c6	6a 00		 push	 0
  000c8	6a 03		 push	 3
  000ca	e8 00 00 00 00	 call	 ?AfxThrowArchiveException@@YGXHPBD@Z ; AfxThrowArchiveException
$LN40@Serialize:
; File C:\Program Files (x86)\Microsoft Visual Studio\2019\Community\VC\Tools\MSVC\14.29.30133\atlmfc\include\afxtempl.h

; 68   : 	ENSURE(nCount == 0 || pElements != NULL);

  000cf	e8 00 00 00 00	 call	 ?AfxThrowInvalidArgException@@YGXXZ ; AfxThrowInvalidArgException
$LN38@Serialize:
  000d4	cc		 int	 3
?Serialize@?$CArray@PAU__MASTERCODE@@PAU1@@@UAEXAAVCArchive@@@Z ENDP ; CArray<__MASTERCODE *,__MASTERCODE *>::Serialize
_TEXT	ENDS
; Function compile flags: /Ogtp
; File C:\Program Files (x86)\Microsoft Visual Studio\2019\Community\VC\Tools\MSVC\14.29.30133\atlmfc\include\afxtempl.h
;	COMDAT ??1?$CArray@PAU__MASTERCODE@@PAU1@@@UAE@XZ
_TEXT	SEGMENT
??1?$CArray@PAU__MASTERCODE@@PAU1@@@UAE@XZ PROC		; CArray<__MASTERCODE *,__MASTERCODE *>::~CArray<__MASTERCODE *,__MASTERCODE *>, COMDAT
; _this$ = ecx

; 356  : 	ASSERT_VALID(this);
; 357  : 
; 358  : 	if (m_pData != NULL)

  00000	8b 41 04	 mov	 eax, DWORD PTR [ecx+4]
  00003	c7 01 00 00 00
	00		 mov	 DWORD PTR [ecx], OFFSET ??_7?$CArray@PAU__MASTERCODE@@PAU1@@@6B@
  00009	85 c0		 test	 eax, eax
  0000b	74 07		 je	 SHORT $LN5@CArray

; 359  : 	{
; 360  : 		for( int i = 0; i < m_nSize; i++ )
; 361  : 			(m_pData + i)->~TYPE();
; 362  : 		delete[] (BYTE*)m_pData;

  0000d	50		 push	 eax
  0000e	e8 00 00 00 00	 call	 ??_V@YAXPAX@Z		; operator delete[]
  00013	59		 pop	 ecx
$LN5@CArray:

; 363  : 	}
; 364  : }

  00014	c3		 ret	 0
??1?$CArray@PAU__MASTERCODE@@PAU1@@@UAE@XZ ENDP		; CArray<__MASTERCODE *,__MASTERCODE *>::~CArray<__MASTERCODE *,__MASTERCODE *>
_TEXT	ENDS
; Function compile flags: /Ogtp
; File C:\Program Files (x86)\Microsoft Visual Studio\2019\Community\VC\Tools\MSVC\14.29.30133\atlmfc\include\afxtempl.h
;	COMDAT ?SetAtGrow@?$CArray@PAU__MASTERCODE@@PAU1@@@QAEXHPAU__MASTERCODE@@@Z
_TEXT	SEGMENT
_nIndex$ = 8						; size = 4
_newElement$ = 12					; size = 4
?SetAtGrow@?$CArray@PAU__MASTERCODE@@PAU1@@@QAEXHPAU__MASTERCODE@@@Z PROC ; CArray<__MASTERCODE *,__MASTERCODE *>::SetAtGrow, COMDAT
; _this$ = ecx

; 534  : {

  00000	55		 push	 ebp
  00001	8b ec		 mov	 ebp, esp
  00003	56		 push	 esi

; 535  : 	ASSERT_VALID(this);
; 536  : 	ASSERT(nIndex >= 0);
; 537  : 
; 538  : 	if(nIndex < 0)

  00004	8b 75 08	 mov	 esi, DWORD PTR _nIndex$[ebp]
  00007	57		 push	 edi
  00008	8b f9		 mov	 edi, ecx
  0000a	85 f6		 test	 esi, esi
  0000c	78 1f		 js	 SHORT $LN7@SetAtGrow

; 540  : 
; 541  : 	if (nIndex >= m_nSize)

  0000e	3b 77 08	 cmp	 esi, DWORD PTR [edi+8]
  00011	7c 0b		 jl	 SHORT $LN3@SetAtGrow

; 542  : 		SetSize(nIndex+1, -1);

  00013	6a ff		 push	 -1
  00015	8d 46 01	 lea	 eax, DWORD PTR [esi+1]
  00018	50		 push	 eax
  00019	e8 00 00 00 00	 call	 ?SetSize@?$CArray@PAU__MASTERCODE@@PAU1@@@QAEXHH@Z ; CArray<__MASTERCODE *,__MASTERCODE *>::SetSize
$LN3@SetAtGrow:

; 543  : 	m_pData[nIndex] = newElement;

  0001e	8b 4f 04	 mov	 ecx, DWORD PTR [edi+4]
  00021	8b 45 0c	 mov	 eax, DWORD PTR _newElement$[ebp]
  00024	5f		 pop	 edi
  00025	89 04 b1	 mov	 DWORD PTR [ecx+esi*4], eax
  00028	5e		 pop	 esi

; 544  : }

  00029	5d		 pop	 ebp
  0002a	c2 08 00	 ret	 8
$LN7@SetAtGrow:

; 539  : 		AfxThrowInvalidArgException();

  0002d	e8 00 00 00 00	 call	 ?AfxThrowInvalidArgException@@YGXXZ ; AfxThrowInvalidArgException
$LN5@SetAtGrow:
  00032	cc		 int	 3
?SetAtGrow@?$CArray@PAU__MASTERCODE@@PAU1@@@QAEXHPAU__MASTERCODE@@@Z ENDP ; CArray<__MASTERCODE *,__MASTERCODE *>::SetAtGrow
_TEXT	ENDS
; Function compile flags: /Ogtp
; File C:\Program Files (x86)\Microsoft Visual Studio\2019\Community\VC\Tools\MSVC\14.29.30133\atlmfc\include\afxtempl.h
; File C:\Program Files (x86)\Windows Kits\10\Include\10.0.22000.0\ucrt\corecrt_memcpy_s.h
; File C:\Program Files (x86)\Microsoft Visual Studio\2019\Community\VC\Tools\MSVC\14.29.30133\atlmfc\include\afxtempl.h
; File C:\Program Files (x86)\Windows Kits\10\Include\10.0.22000.0\ucrt\corecrt_memcpy_s.h
; File C:\Program Files (x86)\Microsoft Visual Studio\2019\Community\VC\Tools\MSVC\14.29.30133\atlmfc\include\afx.h
; File C:\Program Files (x86)\Microsoft Visual Studio\2019\Community\VC\Tools\MSVC\14.29.30133\atlmfc\include\afxtempl.h
;	COMDAT ?SetSize@?$CArray@PAU__MASTERCODE@@PAU1@@@QAEXHH@Z
_TEXT	SEGMENT
__N$1$ = -8						; size = 4
__S1max$1$ = -4						; size = 4
__S2$1$ = 8						; size = 4
_nNewSize$ = 8						; size = 4
_pNewData$1$ = 12					; size = 4
_nGrowBy$ = 12						; size = 4
?SetSize@?$CArray@PAU__MASTERCODE@@PAU1@@@QAEXHH@Z PROC	; CArray<__MASTERCODE *,__MASTERCODE *>::SetSize, COMDAT
; _this$ = ecx

; 368  : {

  00000	55		 push	 ebp
  00001	8b ec		 mov	 ebp, esp
  00003	83 ec 08	 sub	 esp, 8
  00006	53		 push	 ebx
  00007	56		 push	 esi

; 369  : 	ASSERT_VALID(this);
; 370  : 	ASSERT(nNewSize >= 0);
; 371  : 
; 372  : 	if(nNewSize < 0 )

  00008	8b 75 08	 mov	 esi, DWORD PTR _nNewSize$[ebp]
  0000b	8b d9		 mov	 ebx, ecx
  0000d	57		 push	 edi
  0000e	85 f6		 test	 esi, esi
  00010	0f 88 9a 01 00
	00		 js	 $LN56@SetSize

; 373  : 		AfxThrowInvalidArgException();
; 374  : 
; 375  : 	if (nGrowBy >= 0)

  00016	8b 45 0c	 mov	 eax, DWORD PTR _nGrowBy$[ebp]
  00019	85 c0		 test	 eax, eax
  0001b	78 03		 js	 SHORT $LN82@SetSize

; 376  : 		m_nGrowBy = nGrowBy;  // set new size

  0001d	89 43 10	 mov	 DWORD PTR [ebx+16], eax
$LN82@SetSize:

; 377  : 
; 378  : 	if (nNewSize == 0)

  00020	8b 4b 04	 mov	 ecx, DWORD PTR [ebx+4]
  00023	85 f6		 test	 esi, esi
  00025	75 27		 jne	 SHORT $LN19@SetSize

; 379  : 	{
; 380  : 		// shrink to nothing
; 381  : 		if (m_pData != NULL)

  00027	85 c9		 test	 ecx, ecx
  00029	74 0c		 je	 SHORT $LN21@SetSize

; 382  : 		{
; 383  : 			for( int i = 0; i < m_nSize; i++ )
; 384  : 				(m_pData + i)->~TYPE();
; 385  : 			delete[] (BYTE*)m_pData;

  0002b	51		 push	 ecx
  0002c	e8 00 00 00 00	 call	 ??_V@YAXPAX@Z		; operator delete[]
  00031	83 c4 04	 add	 esp, 4

; 386  : 			m_pData = NULL;

  00034	89 73 04	 mov	 DWORD PTR [ebx+4], esi
$LN21@SetSize:

; 475  : }

  00037	5f		 pop	 edi
  00038	5e		 pop	 esi
  00039	c7 43 0c 00 00
	00 00		 mov	 DWORD PTR [ebx+12], 0
  00040	c7 43 08 00 00
	00 00		 mov	 DWORD PTR [ebx+8], 0
  00047	5b		 pop	 ebx
  00048	8b e5		 mov	 esp, ebp
  0004a	5d		 pop	 ebp
  0004b	c2 08 00	 ret	 8
$LN19@SetSize:

; 387  : 		}
; 388  : 		m_nSize = m_nMaxSize = 0;
; 389  : 	}
; 390  : 	else if (m_pData == NULL)

  0004e	85 c9		 test	 ecx, ecx
  00050	75 36		 jne	 SHORT $LN22@SetSize

; 391  : 	{
; 392  : 		// create buffer big enough to hold number of requested elements or
; 393  : 		// m_nGrowBy elements, whichever is larger.
; 394  : #ifdef SIZE_T_MAX
; 395  : 		ASSERT(nNewSize <= SIZE_T_MAX/sizeof(TYPE));    // no overflow
; 396  : #endif
; 397  : 		size_t nAllocSize = __max(nNewSize, m_nGrowBy);

  00052	8b 7b 10	 mov	 edi, DWORD PTR [ebx+16]
  00055	3b f7		 cmp	 esi, edi
  00057	0f 4f fe	 cmovg	 edi, esi

; 398  : 		m_pData = (TYPE*) new BYTE[(size_t)nAllocSize * sizeof(TYPE)];

  0005a	8d 34 bd 00 00
	00 00		 lea	 esi, DWORD PTR [edi*4]
  00061	56		 push	 esi
  00062	e8 00 00 00 00	 call	 ??_U@YAPAXI@Z		; operator new[]

; 399  : 		memset((void*)m_pData, 0, (size_t)nAllocSize * sizeof(TYPE));

  00067	56		 push	 esi
  00068	6a 00		 push	 0
  0006a	50		 push	 eax
  0006b	89 43 04	 mov	 DWORD PTR [ebx+4], eax
  0006e	e8 00 00 00 00	 call	 _memset

; 400  : 		for( int i = 0; i < nNewSize; i++ )
; 401  : #pragma push_macro("new")
; 402  : #undef new
; 403  : 			::new( (void*)( m_pData + i ) ) TYPE;
; 404  : #pragma pop_macro("new")
; 405  : 		m_nSize = nNewSize;

  00073	8b 45 08	 mov	 eax, DWORD PTR _nNewSize$[ebp]
  00076	83 c4 10	 add	 esp, 16			; 00000010H

; 475  : }

  00079	89 7b 0c	 mov	 DWORD PTR [ebx+12], edi
  0007c	89 43 08	 mov	 DWORD PTR [ebx+8], eax
  0007f	5f		 pop	 edi
  00080	5e		 pop	 esi
  00081	5b		 pop	 ebx
  00082	8b e5		 mov	 esp, ebp
  00084	5d		 pop	 ebp
  00085	c2 08 00	 ret	 8
$LN22@SetSize:

; 406  : 		m_nMaxSize = nAllocSize;
; 407  : 	}
; 408  : 	else if (nNewSize <= m_nMaxSize)

  00088	8b 7b 0c	 mov	 edi, DWORD PTR [ebx+12]
  0008b	3b f7		 cmp	 esi, edi
  0008d	7f 29		 jg	 SHORT $LN24@SetSize

; 409  : 	{
; 410  : 		// it fits
; 411  : 		if (nNewSize > m_nSize)

  0008f	8b 53 08	 mov	 edx, DWORD PTR [ebx+8]
  00092	3b f2		 cmp	 esi, edx
  00094	7e 16		 jle	 SHORT $LN26@SetSize

; 412  : 		{
; 413  : 			// initialize the new elements
; 414  : 			memset((void*)(m_pData + m_nSize), 0, (size_t)(nNewSize-m_nSize) * sizeof(TYPE));

  00096	8b c6		 mov	 eax, esi
  00098	2b c2		 sub	 eax, edx
  0009a	c1 e0 02	 shl	 eax, 2
  0009d	50		 push	 eax
  0009e	8d 04 91	 lea	 eax, DWORD PTR [ecx+edx*4]
  000a1	6a 00		 push	 0
  000a3	50		 push	 eax
  000a4	e8 00 00 00 00	 call	 _memset
  000a9	83 c4 0c	 add	 esp, 12			; 0000000cH
$LN26@SetSize:

; 415  : 			for( int i = 0; i < nNewSize-m_nSize; i++ )
; 416  : #pragma push_macro("new")
; 417  : #undef new
; 418  : 				::new( (void*)( m_pData + m_nSize + i ) ) TYPE;
; 419  : #pragma pop_macro("new")
; 420  : 		}
; 421  : 		else if (m_nSize > nNewSize)
; 422  : 		{
; 423  : 			// destroy the old elements
; 424  : 			for( int i = 0; i < m_nSize-nNewSize; i++ )
; 425  : 				(m_pData + nNewSize + i)->~TYPE();
; 426  : 		}
; 427  : 		m_nSize = nNewSize;

  000ac	5f		 pop	 edi
  000ad	89 73 08	 mov	 DWORD PTR [ebx+8], esi

; 475  : }

  000b0	5e		 pop	 esi
  000b1	5b		 pop	 ebx
  000b2	8b e5		 mov	 esp, ebp
  000b4	5d		 pop	 ebp
  000b5	c2 08 00	 ret	 8
$LN24@SetSize:

; 428  : 	}
; 429  : 	else
; 430  : 	{
; 431  : 		// otherwise, grow array
; 432  : 		nGrowBy = m_nGrowBy;

  000b8	8b 43 10	 mov	 eax, DWORD PTR [ebx+16]

; 433  : 		if (nGrowBy == 0)

  000bb	85 c0		 test	 eax, eax
  000bd	75 22		 jne	 SHORT $LN37@SetSize

; 434  : 		{
; 435  : 			// heuristically determine growth when nGrowBy == 0
; 436  : 			//  (this avoids heap fragmentation in many situations)
; 437  : 			nGrowBy = m_nSize / 8;

  000bf	8b 43 08	 mov	 eax, DWORD PTR [ebx+8]
  000c2	99		 cdq
  000c3	83 e2 07	 and	 edx, 7
  000c6	03 c2		 add	 eax, edx
  000c8	c1 f8 03	 sar	 eax, 3

; 438  : 			nGrowBy = (nGrowBy < 4) ? 4 : ((nGrowBy > 1024) ? 1024 : nGrowBy);

  000cb	83 f8 04	 cmp	 eax, 4
  000ce	7d 07		 jge	 SHORT $LN36@SetSize
  000d0	b8 04 00 00 00	 mov	 eax, 4
  000d5	eb 0a		 jmp	 SHORT $LN37@SetSize
$LN36@SetSize:
  000d7	b9 00 04 00 00	 mov	 ecx, 1024		; 00000400H
  000dc	3b c1		 cmp	 eax, ecx
  000de	0f 4f c1	 cmovg	 eax, ecx
$LN37@SetSize:

; 439  : 		}
; 440  : 		INT_PTR nNewMax;
; 441  : 		if (nNewSize < m_nMaxSize + nGrowBy)

  000e1	03 f8		 add	 edi, eax
  000e3	3b f7		 cmp	 esi, edi
  000e5	7d 0b		 jge	 SHORT $LN30@SetSize

; 445  : 
; 446  : 		ASSERT(nNewMax >= m_nMaxSize);  // no wrap around
; 447  : 
; 448  : 		if(nNewMax  < m_nMaxSize)

  000e7	3b 7b 0c	 cmp	 edi, DWORD PTR [ebx+12]
  000ea	0f 8c c0 00 00
	00		 jl	 $LN56@SetSize
  000f0	eb 02		 jmp	 SHORT $LN32@SetSize
$LN30@SetSize:

; 442  : 			nNewMax = m_nMaxSize + nGrowBy;  // granularity
; 443  : 		else
; 444  : 			nNewMax = nNewSize;  // no slush

  000f2	8b fe		 mov	 edi, esi
$LN32@SetSize:

; 449  : 			AfxThrowInvalidArgException();
; 450  : 
; 451  : #ifdef SIZE_T_MAX
; 452  : 		ASSERT(nNewMax <= SIZE_T_MAX/sizeof(TYPE)); // no overflow
; 453  : #endif
; 454  : 		TYPE* pNewData = (TYPE*) new BYTE[(size_t)nNewMax * sizeof(TYPE)];

  000f4	8d 04 bd 00 00
	00 00		 lea	 eax, DWORD PTR [edi*4]
  000fb	50		 push	 eax
  000fc	89 45 fc	 mov	 DWORD PTR __S1max$1$[ebp], eax
  000ff	e8 00 00 00 00	 call	 ??_U@YAPAXI@Z		; operator new[]

; 455  : 
; 456  : 		// copy new data from old
; 457  : 		::ATL::Checked::memcpy_s(pNewData, (size_t)nNewMax * sizeof(TYPE),

  00104	8b 4b 08	 mov	 ecx, DWORD PTR [ebx+8]
  00107	83 c4 04	 add	 esp, 4
  0010a	8b 53 04	 mov	 edx, DWORD PTR [ebx+4]
  0010d	c1 e1 02	 shl	 ecx, 2
  00110	89 45 0c	 mov	 DWORD PTR _pNewData$1$[ebp], eax
  00113	89 4d f8	 mov	 DWORD PTR __N$1$[ebp], ecx
  00116	89 55 08	 mov	 DWORD PTR __S2$1$[ebp], edx
; File C:\Program Files (x86)\Windows Kits\10\Include\10.0.22000.0\ucrt\corecrt_memcpy_s.h

; 46   :         if (_SourceSize == 0)

  00119	85 c9		 test	 ecx, ecx
  0011b	74 20		 je	 SHORT $LN54@SetSize

; 47   :         {
; 48   :             return 0;
; 49   :         }
; 50   : 
; 51   :         _CRT_MEMCPY_S_VALIDATE_RETURN_ERRCODE(_Destination != NULL, EINVAL);

  0011d	85 c0		 test	 eax, eax
  0011f	74 7d		 je	 SHORT $LN84@SetSize

; 52   :         if (_Source == NULL || _DestinationSize < _SourceSize)

  00121	85 d2		 test	 edx, edx
  00123	74 51		 je	 SHORT $LN76@SetSize
  00125	8d 14 bd 00 00
	00 00		 lea	 edx, DWORD PTR [edi*4]
  0012c	3b d1		 cmp	 edx, ecx
  0012e	72 46		 jb	 SHORT $LN76@SetSize

; 58   : 
; 59   :             // Unreachable, but required to suppress /analyze warnings:
; 60   :             return EINVAL;
; 61   :         }
; 62   :         memcpy(_Destination, _Source, _SourceSize);

  00130	51		 push	 ecx
  00131	ff 75 08	 push	 DWORD PTR __S2$1$[ebp]
  00134	50		 push	 eax
  00135	e8 00 00 00 00	 call	 _memcpy
  0013a	83 c4 0c	 add	 esp, 12			; 0000000cH
$LN54@SetSize:
; File C:\Program Files (x86)\Microsoft Visual Studio\2019\Community\VC\Tools\MSVC\14.29.30133\atlmfc\include\afxtempl.h

; 462  : 		memset((void*)(pNewData + m_nSize), 0, (size_t)(nNewSize-m_nSize) * sizeof(TYPE));

  0013d	8b 4b 08	 mov	 ecx, DWORD PTR [ebx+8]
  00140	8b c6		 mov	 eax, esi
  00142	2b c1		 sub	 eax, ecx
  00144	c1 e0 02	 shl	 eax, 2
  00147	50		 push	 eax
  00148	8b 45 0c	 mov	 eax, DWORD PTR _pNewData$1$[ebp]
  0014b	6a 00		 push	 0
  0014d	8d 04 88	 lea	 eax, DWORD PTR [eax+ecx*4]
  00150	50		 push	 eax
  00151	e8 00 00 00 00	 call	 _memset

; 463  : 		for( int i = 0; i < nNewSize-m_nSize; i++ )
; 464  : #pragma push_macro("new")
; 465  : #undef new
; 466  : 			::new( (void*)( pNewData + m_nSize + i ) ) TYPE;
; 467  : #pragma pop_macro("new")
; 468  : 
; 469  : 		// get rid of old stuff (note: no destructors called)
; 470  : 		delete[] (BYTE*)m_pData;

  00156	ff 73 04	 push	 DWORD PTR [ebx+4]
  00159	e8 00 00 00 00	 call	 ??_V@YAXPAX@Z		; operator delete[]

; 471  : 		m_pData = pNewData;

  0015e	8b 45 0c	 mov	 eax, DWORD PTR _pNewData$1$[ebp]
  00161	83 c4 10	 add	 esp, 16			; 00000010H

; 475  : }

  00164	89 7b 0c	 mov	 DWORD PTR [ebx+12], edi
  00167	89 73 08	 mov	 DWORD PTR [ebx+8], esi
  0016a	89 43 04	 mov	 DWORD PTR [ebx+4], eax
  0016d	5f		 pop	 edi
  0016e	5e		 pop	 esi
  0016f	5b		 pop	 ebx
  00170	8b e5		 mov	 esp, ebp
  00172	5d		 pop	 ebp
  00173	c2 08 00	 ret	 8
$LN76@SetSize:
; File C:\Program Files (x86)\Windows Kits\10\Include\10.0.22000.0\ucrt\corecrt_memcpy_s.h

; 54   :             memset(_Destination, 0, _DestinationSize);

  00176	8b 5d fc	 mov	 ebx, DWORD PTR __S1max$1$[ebp]
  00179	53		 push	 ebx
  0017a	6a 00		 push	 0
  0017c	50		 push	 eax
  0017d	e8 00 00 00 00	 call	 _memset
  00182	83 c4 0c	 add	 esp, 12			; 0000000cH

; 55   : 
; 56   :             _CRT_MEMCPY_S_VALIDATE_RETURN_ERRCODE(_Source != NULL,                 EINVAL);

  00185	83 7d 08 00	 cmp	 DWORD PTR __S2$1$[ebp], 0
  00189	74 13		 je	 SHORT $LN84@SetSize

; 57   :             _CRT_MEMCPY_S_VALIDATE_RETURN_ERRCODE(_DestinationSize >= _SourceSize, ERANGE);

  0018b	3b 5d f8	 cmp	 ebx, DWORD PTR __N$1$[ebp]
  0018e	73 20		 jae	 SHORT $LN56@SetSize
  00190	ff 15 00 00 00
	00		 call	 DWORD PTR __imp___errno
  00196	c7 00 22 00 00
	00		 mov	 DWORD PTR [eax], 34	; 00000022H
  0019c	eb 0c		 jmp	 SHORT $LN85@SetSize
$LN84@SetSize:
; File C:\Program Files (x86)\Microsoft Visual Studio\2019\Community\VC\Tools\MSVC\14.29.30133\atlmfc\include\afx.h

; 517  : 		AfxThrowInvalidArgException();

  0019e	ff 15 00 00 00
	00		 call	 DWORD PTR __imp___errno
  001a4	c7 00 16 00 00
	00		 mov	 DWORD PTR [eax], 22	; 00000016H
$LN85@SetSize:
  001aa	ff 15 00 00 00
	00		 call	 DWORD PTR __imp___invalid_parameter_noinfo
$LN56@SetSize:
  001b0	e8 00 00 00 00	 call	 ?AfxThrowInvalidArgException@@YGXXZ ; AfxThrowInvalidArgException
$LN83@SetSize:
  001b5	cc		 int	 3
?SetSize@?$CArray@PAU__MASTERCODE@@PAU1@@@QAEXHH@Z ENDP	; CArray<__MASTERCODE *,__MASTERCODE *>::SetSize
_TEXT	ENDS
; Function compile flags: /Ogtp
; File C:\Program Files (x86)\Microsoft Visual Studio\2019\Community\VC\Tools\MSVC\14.29.30133\atlmfc\include\afxtempl.h
;	COMDAT ??0?$CArray@PAU__MASTERCODE@@PAU1@@@QAE@XZ
_TEXT	SEGMENT
??0?$CArray@PAU__MASTERCODE@@PAU1@@@QAE@XZ PROC		; CArray<__MASTERCODE *,__MASTERCODE *>::CArray<__MASTERCODE *,__MASTERCODE *>, COMDAT
; _this$ = ecx

; 348  : {

  00000	c7 01 00 00 00
	00		 mov	 DWORD PTR [ecx], OFFSET ??_7?$CArray@PAU__MASTERCODE@@PAU1@@@6B@

; 349  : 	m_pData = NULL;
; 350  : 	m_nSize = m_nMaxSize = m_nGrowBy = 0;
; 351  : }

  00006	8b c1		 mov	 eax, ecx
  00008	c7 41 04 00 00
	00 00		 mov	 DWORD PTR [ecx+4], 0
  0000f	c7 41 10 00 00
	00 00		 mov	 DWORD PTR [ecx+16], 0
  00016	c7 41 0c 00 00
	00 00		 mov	 DWORD PTR [ecx+12], 0
  0001d	c7 41 08 00 00
	00 00		 mov	 DWORD PTR [ecx+8], 0
  00024	c3		 ret	 0
??0?$CArray@PAU__MASTERCODE@@PAU1@@@QAE@XZ ENDP		; CArray<__MASTERCODE *,__MASTERCODE *>::CArray<__MASTERCODE *,__MASTERCODE *>
_TEXT	ENDS
; Function compile flags: /Ogtp
; File D:\git\src\IBK\IBK_DRFN\ProjSrc\SrcDrfn\Chart\comparechart\control\VirtualListCtrl.cpp
; File C:\Program Files (x86)\Microsoft Visual Studio\2019\Community\VC\Tools\MSVC\14.29.30133\atlmfc\include\afxcmn.inl
; File D:\git\src\IBK\IBK_DRFN\ProjSrc\SrcDrfn\Chart\comparechart\control\VirtualListCtrl.cpp
; File C:\Program Files (x86)\Microsoft Visual Studio\2019\Community\VC\Tools\MSVC\14.29.30133\atlmfc\include\afxtempl.h
; File D:\git\src\IBK\IBK_DRFN\ProjSrc\SrcDrfn\Chart\comparechart\control\VirtualListCtrl.cpp
;	COMDAT ??0CVirtualListCtrl@@QAE@XZ
_TEXT	SEGMENT
_this$ = -20						; size = 4
_this$ = -20						; size = 4
_this$ = -20						; size = 4
_this$ = -20						; size = 4
_this$ = -16						; size = 4
__$EHRec$ = -12						; size = 12
??0CVirtualListCtrl@@QAE@XZ PROC			; CVirtualListCtrl::CVirtualListCtrl, COMDAT
; _this$ = ecx

; 20   : {

  00000	55		 push	 ebp
  00001	8b ec		 mov	 ebp, esp
  00003	6a ff		 push	 -1
  00005	68 00 00 00 00	 push	 __ehhandler$??0CVirtualListCtrl@@QAE@XZ
  0000a	64 a1 00 00 00
	00		 mov	 eax, DWORD PTR fs:0
  00010	50		 push	 eax
  00011	83 ec 08	 sub	 esp, 8
  00014	53		 push	 ebx
  00015	56		 push	 esi
  00016	57		 push	 edi
  00017	a1 00 00 00 00	 mov	 eax, DWORD PTR ___security_cookie
  0001c	33 c5		 xor	 eax, ebp
  0001e	50		 push	 eax
  0001f	8d 45 f4	 lea	 eax, DWORD PTR __$EHRec$[ebp]
  00022	64 a3 00 00 00
	00		 mov	 DWORD PTR fs:0, eax
  00028	8b f1		 mov	 esi, ecx
  0002a	89 75 f0	 mov	 DWORD PTR _this$[ebp], esi
; File C:\Program Files (x86)\Microsoft Visual Studio\2019\Community\VC\Tools\MSVC\14.29.30133\atlmfc\include\afxcmn.inl

; 141  : 	{ }

  0002d	e8 00 00 00 00	 call	 ??0CWnd@@QAE@XZ		; CWnd::CWnd
; File D:\git\src\IBK\IBK_DRFN\ProjSrc\SrcDrfn\Chart\comparechart\control\VirtualListCtrl.cpp

; 20   : {

  00032	8d 9e 88 00 00
	00		 lea	 ebx, DWORD PTR [esi+136]
  00038	c7 45 fc 00 00
	00 00		 mov	 DWORD PTR __$EHRec$[ebp+8], 0
  0003f	8b cb		 mov	 ecx, ebx
  00041	c7 06 00 00 00
	00		 mov	 DWORD PTR [esi], OFFSET ??_7CVirtualListCtrl@@6B@
  00047	ff 15 00 00 00
	00		 call	 DWORD PTR __imp_??0?$CStringT@DV?$StrTraitMFC_DLL@DV?$ChTraitsCRT@D@ATL@@@@@ATL@@QAE@XZ
  0004d	8d be 8c 00 00
