; Listing generated by Microsoft (R) Optimizing Compiler Version 19.29.30145.0 

	TITLE	D:\git\src\IBK\IBK_DRFN\#DRfn-CS\_Obj\CompareChart\XComboList.obj
	.686P
	.XMM
	include listing.inc
	.model	flat

INCLUDELIB MSVCRT
INCLUDELIB OLDNAMES

PUBLIC	??_C@_0BI@MEBLNDKI@WM_XCOMBOLIST_VK_RETURN@	; `string'
PUBLIC	??_C@_0BI@FOCGBGJB@WM_XCOMBOLIST_VK_ESCAPE@	; `string'
PUBLIC	??_C@_0BG@DMJKCKCC@WM_XCOMBOLIST_KEYDOWN@	; `string'
PUBLIC	??_C@_0BI@CDIINDEJ@WM_XCOMBOLIST_LBUTTONUP@	; `string'
;	COMDAT ??_C@_0BI@CDIINDEJ@WM_XCOMBOLIST_LBUTTONUP@
CONST	SEGMENT
??_C@_0BI@CDIINDEJ@WM_XCOMBOLIST_LBUTTONUP@ DB 'WM_XCOMBOLIST_LBUTTONUP', 00H ; `string'
CONST	ENDS
;	COMDAT ??_C@_0BG@DMJKCKCC@WM_XCOMBOLIST_KEYDOWN@
CONST	SEGMENT
??_C@_0BG@DMJKCKCC@WM_XCOMBOLIST_KEYDOWN@ DB 'WM_XCOMBOLIST_KEYDOWN', 00H ; `string'
CONST	ENDS
;	COMDAT ??_C@_0BI@FOCGBGJB@WM_XCOMBOLIST_VK_ESCAPE@
CONST	SEGMENT
??_C@_0BI@FOCGBGJB@WM_XCOMBOLIST_VK_ESCAPE@ DB 'WM_XCOMBOLIST_VK_ESCAPE', 00H ; `string'
CONST	ENDS
;	COMDAT ??_C@_0BI@MEBLNDKI@WM_XCOMBOLIST_VK_RETURN@
CONST	SEGMENT
??_C@_0BI@MEBLNDKI@WM_XCOMBOLIST_VK_RETURN@ DB 'WM_XCOMBOLIST_VK_RETURN', 00H ; `string'
CONST	ENDS
PUBLIC	?__empty_global_delete@@YAXPAX@Z		; __empty_global_delete
PUBLIC	?__empty_global_delete@@YAXPAXI@Z		; __empty_global_delete
PUBLIC	?Serialize@CObject@@UAEXAAVCArchive@@@Z		; CObject::Serialize
PUBLIC	?AssertValid@CObject@@UBEXXZ			; CObject::AssertValid
PUBLIC	?Dump@CObject@@UBEXAAVCDumpContext@@@Z		; CObject::Dump
PUBLIC	?DoDataExchange@CWnd@@MAEXPAVCDataExchange@@@Z	; CWnd::DoDataExchange
PUBLIC	?BeginModalState@CWnd@@UAEXXZ			; CWnd::BeginModalState
PUBLIC	?EndModalState@CWnd@@UAEXXZ			; CWnd::EndModalState
PUBLIC	??_GCListBox@@UAEPAXI@Z				; CListBox::`scalar deleting destructor'
PUBLIC	??_GCScrollBar@@UAEPAXI@Z			; CScrollBar::`scalar deleting destructor'
PUBLIC	??0CXComboList@@QAE@PAVCWnd@@@Z			; CXComboList::CXComboList
PUBLIC	??1CXComboList@@UAE@XZ				; CXComboList::~CXComboList
PUBLIC	?SetActive@CXComboList@@QAEXH@Z			; CXComboList::SetActive
PUBLIC	?PreTranslateMessage@CXComboList@@UAEHPAUtagMSG@@@Z ; CXComboList::PreTranslateMessage
PUBLIC	?GetScrollBarCtrl@CXComboList@@UAEPAVCScrollBar@@H@Z ; CXComboList::GetScrollBarCtrl
PUBLIC	?SendRegisteredMessage@CXComboList@@IAEXIIJ@Z	; CXComboList::SendRegisteredMessage
PUBLIC	?OnLButtonDown@CXComboList@@IAEXIVCPoint@@@Z	; CXComboList::OnLButtonDown
PUBLIC	?OnKillFocus@CXComboList@@IAEXPAVCWnd@@@Z	; CXComboList::OnKillFocus
PUBLIC	?OnCreate@CXComboList@@IAEHPAUtagCREATESTRUCTA@@@Z ; CXComboList::OnCreate
PUBLIC	?OnVScroll@CXComboList@@IAEXIIPAVCScrollBar@@@Z	; CXComboList::OnVScroll
PUBLIC	?OnDestroy@CXComboList@@IAEXXZ			; CXComboList::OnDestroy
PUBLIC	?OnTimer@CXComboList@@IAEXI@Z			; CXComboList::OnTimer
PUBLIC	?GetThisMessageMap@CXComboList@@KGPBUAFX_MSGMAP@@XZ ; CXComboList::GetThisMessageMap
PUBLIC	?GetMessageMap@CXComboList@@MBEPBUAFX_MSGMAP@@XZ ; CXComboList::GetMessageMap
PUBLIC	??_GCXComboList@@UAEPAXI@Z			; CXComboList::`scalar deleting destructor'
PUBLIC	??_7CListBox@@6B@				; CListBox::`vftable'
PUBLIC	??_7CScrollBar@@6B@				; CScrollBar::`vftable'
PUBLIC	??_R0?AVCObject@@@8				; CObject `RTTI Type Descriptor'
PUBLIC	??_R3CObject@@8					; CObject::`RTTI Class Hierarchy Descriptor'
PUBLIC	??_R2CObject@@8					; CObject::`RTTI Base Class Array'
PUBLIC	??_R1A@?0A@EA@CObject@@8			; CObject::`RTTI Base Class Descriptor at (0,-1,0,64)'
PUBLIC	??_R1A@?0A@EA@CWnd@@8				; CWnd::`RTTI Base Class Descriptor at (0,-1,0,64)'
PUBLIC	??_R0?AVCWnd@@@8				; CWnd `RTTI Type Descriptor'
PUBLIC	??_R3CWnd@@8					; CWnd::`RTTI Class Hierarchy Descriptor'
PUBLIC	??_R2CWnd@@8					; CWnd::`RTTI Base Class Array'
PUBLIC	??_R1A@?0A@EA@CCmdTarget@@8			; CCmdTarget::`RTTI Base Class Descriptor at (0,-1,0,64)'
PUBLIC	??_R0?AVCCmdTarget@@@8				; CCmdTarget `RTTI Type Descriptor'
PUBLIC	??_R3CCmdTarget@@8				; CCmdTarget::`RTTI Class Hierarchy Descriptor'
PUBLIC	??_R2CCmdTarget@@8				; CCmdTarget::`RTTI Base Class Array'
PUBLIC	??_R4CListBox@@6B@				; CListBox::`RTTI Complete Object Locator'
PUBLIC	??_R0?AVCListBox@@@8				; CListBox `RTTI Type Descriptor'
PUBLIC	??_R3CListBox@@8				; CListBox::`RTTI Class Hierarchy Descriptor'
PUBLIC	??_R2CListBox@@8				; CListBox::`RTTI Base Class Array'
PUBLIC	??_R1A@?0A@EA@CListBox@@8			; CListBox::`RTTI Base Class Descriptor at (0,-1,0,64)'
PUBLIC	??_R4CScrollBar@@6B@				; CScrollBar::`RTTI Complete Object Locator'
PUBLIC	??_R0?AVCScrollBar@@@8				; CScrollBar `RTTI Type Descriptor'
PUBLIC	??_R3CScrollBar@@8				; CScrollBar::`RTTI Class Hierarchy Descriptor'
PUBLIC	??_R2CScrollBar@@8				; CScrollBar::`RTTI Base Class Array'
PUBLIC	??_R1A@?0A@EA@CScrollBar@@8			; CScrollBar::`RTTI Base Class Descriptor at (0,-1,0,64)'
PUBLIC	?WM_XCOMBOLIST_VK_RETURN@@3IA			; WM_XCOMBOLIST_VK_RETURN
PUBLIC	?WM_XCOMBOLIST_VK_ESCAPE@@3IA			; WM_XCOMBOLIST_VK_ESCAPE
PUBLIC	?WM_XCOMBOLIST_KEYDOWN@@3IA			; WM_XCOMBOLIST_KEYDOWN
PUBLIC	?WM_XCOMBOLIST_LBUTTONUP@@3IA			; WM_XCOMBOLIST_LBUTTONUP
PUBLIC	??_7CXComboList@@6B@				; CXComboList::`vftable'
PUBLIC	??_R4CXComboList@@6B@				; CXComboList::`RTTI Complete Object Locator'
PUBLIC	??_R0?AVCXComboList@@@8				; CXComboList `RTTI Type Descriptor'
PUBLIC	??_R3CXComboList@@8				; CXComboList::`RTTI Class Hierarchy Descriptor'
PUBLIC	??_R2CXComboList@@8				; CXComboList::`RTTI Base Class Array'
PUBLIC	??_R1A@?0A@EA@CXComboList@@8			; CXComboList::`RTTI Base Class Descriptor at (0,-1,0,64)'
EXTRN	??3@YAXPAX@Z:PROC				; operator delete
EXTRN	?__global_delete@@YAXPAXI@Z:PROC		; __global_delete
EXTRN	__imp__RegisterWindowMessageA@4:PROC
EXTRN	__imp__SendMessageA@16:PROC
EXTRN	__imp__IsWindow@4:PROC
EXTRN	__imp__BringWindowToTop@4:PROC
EXTRN	__imp__SetTimer@16:PROC
EXTRN	__imp__KillTimer@8:PROC
EXTRN	__imp__EnableWindow@8:PROC
EXTRN	__imp__SetScrollPos@16:PROC
EXTRN	__imp__GetClientRect@8:PROC
EXTRN	__imp__GetWindowRect@8:PROC
EXTRN	__imp__GetCursorPos@4:PROC
EXTRN	__imp__ScreenToClient@8:PROC
EXTRN	__imp__GetParent@4:PROC
EXTRN	__imp_??0?$CStringT@DV?$StrTraitMFC_DLL@DV?$ChTraitsCRT@D@ATL@@@@@ATL@@QAE@XZ:PROC
EXTRN	__imp_??1?$CStringT@DV?$StrTraitMFC_DLL@DV?$ChTraitsCRT@D@ATL@@@@@ATL@@QAE@XZ:PROC
EXTRN	__imp_??4?$CStringT@DV?$StrTraitMFC_DLL@DV?$ChTraitsCRT@D@ATL@@@@@ATL@@QAEAAV01@D@Z:PROC
EXTRN	?FromHandle@CGdiObject@@SGPAV1@PAX@Z:PROC	; CGdiObject::FromHandle
EXTRN	?OnCmdMsg@CCmdTarget@@UAEHIHPAXPAUAFX_CMDHANDLERINFO@@@Z:PROC ; CCmdTarget::OnCmdMsg
EXTRN	?IsInvokeAllowed@CCmdTarget@@UAEHJ@Z:PROC	; CCmdTarget::IsInvokeAllowed
EXTRN	?GetDispatchIID@CCmdTarget@@UAEHPAU_GUID@@@Z:PROC ; CCmdTarget::GetDispatchIID
EXTRN	?GetTypeInfoCount@CCmdTarget@@UAEIXZ:PROC	; CCmdTarget::GetTypeInfoCount
EXTRN	?GetTypeLibCache@CCmdTarget@@UAEPAVCTypeLibCache@@XZ:PROC ; CCmdTarget::GetTypeLibCache
EXTRN	?GetTypeLib@CCmdTarget@@UAEJKPAPAUITypeLib@@@Z:PROC ; CCmdTarget::GetTypeLib
EXTRN	?GetCommandMap@CCmdTarget@@MBEPBUAFX_OLECMDMAP@@XZ:PROC ; CCmdTarget::GetCommandMap
EXTRN	?GetDispatchMap@CCmdTarget@@MBEPBUAFX_DISPMAP@@XZ:PROC ; CCmdTarget::GetDispatchMap
EXTRN	?GetConnectionMap@CCmdTarget@@MBEPBUAFX_CONNECTIONMAP@@XZ:PROC ; CCmdTarget::GetConnectionMap
EXTRN	?GetEventSinkMap@CCmdTarget@@MBEPBUAFX_EVENTSINKMAP@@XZ:PROC ; CCmdTarget::GetEventSinkMap
EXTRN	?OnCreateAggregates@CCmdTarget@@UAEHXZ:PROC	; CCmdTarget::OnCreateAggregates
EXTRN	?GetInterfaceHook@CCmdTarget@@UAEPAUIUnknown@@PBX@Z:PROC ; CCmdTarget::GetInterfaceHook
EXTRN	?GetExtraConnectionPoints@CCmdTarget@@MAEHPAVCPtrArray@@@Z:PROC ; CCmdTarget::GetExtraConnectionPoints
EXTRN	?GetConnectionHook@CCmdTarget@@MAEPAUIConnectionPoint@@ABU_GUID@@@Z:PROC ; CCmdTarget::GetConnectionHook
EXTRN	?GetRuntimeClass@CWnd@@UBEPAUCRuntimeClass@@XZ:PROC ; CWnd::GetRuntimeClass
EXTRN	?GetCurrentMessage@CWnd@@KGPBUtagMSG@@XZ:PROC	; CWnd::GetCurrentMessage
EXTRN	??0CWnd@@QAE@XZ:PROC				; CWnd::CWnd
EXTRN	?FromHandle@CWnd@@SGPAV1@PAUHWND__@@@Z:PROC	; CWnd::FromHandle
EXTRN	?PreSubclassWindow@CWnd@@UAEXXZ:PROC		; CWnd::PreSubclassWindow
EXTRN	?Create@CWnd@@UAEHPBD0KABUtagRECT@@PAV1@IPAUCCreateContext@@@Z:PROC ; CWnd::Create
EXTRN	?CreateEx@CWnd@@UAEHKPBD0KHHHHPAUHWND__@@PAUHMENU__@@PAX@Z:PROC ; CWnd::CreateEx
EXTRN	?CreateEx@CWnd@@UAEHKPBD0KABUtagRECT@@PAV1@IPAX@Z:PROC ; CWnd::CreateEx
EXTRN	?DestroyWindow@CWnd@@UAEHXZ:PROC		; CWnd::DestroyWindow
EXTRN	?PreCreateWindow@CWnd@@UAEHAAUtagCREATESTRUCTA@@@Z:PROC ; CWnd::PreCreateWindow
EXTRN	?CalcWindowRect@CWnd@@UAEXPAUtagRECT@@I@Z:PROC	; CWnd::CalcWindowRect
EXTRN	?GetMenu@CWnd@@UBEPAVCMenu@@XZ:PROC		; CWnd::GetMenu
EXTRN	?SetMenu@CWnd@@UAEHPAVCMenu@@@Z:PROC		; CWnd::SetMenu
EXTRN	?MoveWindow@CWnd@@QAEXHHHHH@Z:PROC		; CWnd::MoveWindow
EXTRN	?OnToolHitTest@CWnd@@UBEHVCPoint@@PAUtagTOOLINFOA@@@Z:PROC ; CWnd::OnToolHitTest
EXTRN	?SetFocus@CWnd@@QAEPAV1@XZ:PROC			; CWnd::SetFocus
EXTRN	?GetScrollBarCtrl@CWnd@@UBEPAVCScrollBar@@H@Z:PROC ; CWnd::GetScrollBarCtrl
EXTRN	?SetScrollInfo@CWnd@@QAEHHPAUtagSCROLLINFO@@H@Z:PROC ; CWnd::SetScrollInfo
EXTRN	?GetScrollInfo@CWnd@@QAEHHPAUtagSCROLLINFO@@I@Z:PROC ; CWnd::GetScrollInfo
EXTRN	?WinHelpA@CWnd@@UAEXKI@Z:PROC			; CWnd::WinHelpA
EXTRN	?HtmlHelpA@CWnd@@UAEXKI@Z:PROC			; CWnd::HtmlHelpA
EXTRN	?WinHelpInternal@CWnd@@UAEXKI@Z:PROC		; CWnd::WinHelpInternal
EXTRN	?ContinueModal@CWnd@@UAEHXZ:PROC		; CWnd::ContinueModal
EXTRN	?EndModalLoop@CWnd@@UAEXH@Z:PROC		; CWnd::EndModalLoop
EXTRN	?OnDrawIconicThumbnailOrLivePreview@CWnd@@UAEXAAVCDC@@VCRect@@VCSize@@HAAH@Z:PROC ; CWnd::OnDrawIconicThumbnailOrLivePreview
EXTRN	?GetInterfaceMap@CWnd@@MBEPBUAFX_INTERFACEMAP@@XZ:PROC ; CWnd::GetInterfaceMap
EXTRN	?EnsureStdObj@CWnd@@UAEJXZ:PROC			; CWnd::EnsureStdObj
EXTRN	?get_accParent@CWnd@@UAEJPAPAUIDispatch@@@Z:PROC ; CWnd::get_accParent
EXTRN	?get_accChildCount@CWnd@@UAEJPAJ@Z:PROC		; CWnd::get_accChildCount
EXTRN	?get_accChild@CWnd@@UAEJUtagVARIANT@@PAPAUIDispatch@@@Z:PROC ; CWnd::get_accChild
EXTRN	?get_accName@CWnd@@UAEJUtagVARIANT@@PAPA_W@Z:PROC ; CWnd::get_accName
EXTRN	?get_accValue@CWnd@@UAEJUtagVARIANT@@PAPA_W@Z:PROC ; CWnd::get_accValue
EXTRN	?get_accDescription@CWnd@@UAEJUtagVARIANT@@PAPA_W@Z:PROC ; CWnd::get_accDescription
EXTRN	?get_accRole@CWnd@@UAEJUtagVARIANT@@PAU2@@Z:PROC ; CWnd::get_accRole
EXTRN	?get_accState@CWnd@@UAEJUtagVARIANT@@PAU2@@Z:PROC ; CWnd::get_accState
EXTRN	?get_accHelp@CWnd@@UAEJUtagVARIANT@@PAPA_W@Z:PROC ; CWnd::get_accHelp
EXTRN	?get_accHelpTopic@CWnd@@UAEJPAPA_WUtagVARIANT@@PAJ@Z:PROC ; CWnd::get_accHelpTopic
EXTRN	?get_accKeyboardShortcut@CWnd@@UAEJUtagVARIANT@@PAPA_W@Z:PROC ; CWnd::get_accKeyboardShortcut
EXTRN	?get_accFocus@CWnd@@UAEJPAUtagVARIANT@@@Z:PROC	; CWnd::get_accFocus
EXTRN	?get_accSelection@CWnd@@UAEJPAUtagVARIANT@@@Z:PROC ; CWnd::get_accSelection
EXTRN	?get_accDefaultAction@CWnd@@UAEJUtagVARIANT@@PAPA_W@Z:PROC ; CWnd::get_accDefaultAction
EXTRN	?accSelect@CWnd@@UAEJJUtagVARIANT@@@Z:PROC	; CWnd::accSelect
EXTRN	?accLocation@CWnd@@UAEJPAJ000UtagVARIANT@@@Z:PROC ; CWnd::accLocation
EXTRN	?accNavigate@CWnd@@UAEJJUtagVARIANT@@PAU2@@Z:PROC ; CWnd::accNavigate
EXTRN	?accHitTest@CWnd@@UAEJJJPAUtagVARIANT@@@Z:PROC	; CWnd::accHitTest
EXTRN	?accDoDefaultAction@CWnd@@UAEJUtagVARIANT@@@Z:PROC ; CWnd::accDoDefaultAction
EXTRN	?put_accName@CWnd@@UAEJUtagVARIANT@@PA_W@Z:PROC	; CWnd::put_accName
EXTRN	?put_accValue@CWnd@@UAEJUtagVARIANT@@PA_W@Z:PROC ; CWnd::put_accValue
EXTRN	?SetProxy@CWnd@@UAEJPAUIAccessibleProxy@@@Z:PROC ; CWnd::SetProxy
EXTRN	?CreateAccessibleProxy@CWnd@@UAEJIJPAJ@Z:PROC	; CWnd::CreateAccessibleProxy
EXTRN	?OnCommand@CWnd@@MAEHIJ@Z:PROC			; CWnd::OnCommand
EXTRN	?OnNotify@CWnd@@MAEHIJPAJ@Z:PROC		; CWnd::OnNotify
EXTRN	?OnDestroy@CWnd@@IAEXXZ:PROC			; CWnd::OnDestroy
EXTRN	?GetSuperWndProcAddr@CWnd@@MAEPAP6GJPAUHWND__@@IIJ@ZXZ:PROC ; CWnd::GetSuperWndProcAddr
EXTRN	?PreTranslateMessage@CWnd@@UAEHPAUtagMSG@@@Z:PROC ; CWnd::PreTranslateMessage
EXTRN	?OnAmbientProperty@CWnd@@UAEHPAVCOleControlSite@@JPAUtagVARIANT@@@Z:PROC ; CWnd::OnAmbientProperty
EXTRN	?WindowProc@CWnd@@MAEJIIJ@Z:PROC		; CWnd::WindowProc
EXTRN	?OnWndMsg@CWnd@@MAEHIIJPAJ@Z:PROC		; CWnd::OnWndMsg
EXTRN	?Default@CWnd@@IAEJXZ:PROC			; CWnd::Default
EXTRN	?DefWindowProcA@CWnd@@MAEJIIJ@Z:PROC		; CWnd::DefWindowProcA
EXTRN	?PostNcDestroy@CWnd@@MAEXXZ:PROC		; CWnd::PostNcDestroy
EXTRN	?OnChildNotify@CWnd@@MAEHIIJPAJ@Z:PROC		; CWnd::OnChildNotify
EXTRN	?OnTouchInputs@CWnd@@MAEHIPAUtagTOUCHINPUT@@@Z:PROC ; CWnd::OnTouchInputs
EXTRN	?OnTouchInput@CWnd@@MAEHVCPoint@@HHPAUtagTOUCHINPUT@@@Z:PROC ; CWnd::OnTouchInput
EXTRN	?GetGestureStatus@CWnd@@MAEKVCPoint@@@Z:PROC	; CWnd::GetGestureStatus
EXTRN	?OnGestureZoom@CWnd@@MAEHVCPoint@@J@Z:PROC	; CWnd::OnGestureZoom
EXTRN	?OnGesturePan@CWnd@@MAEHVCPoint@@0@Z:PROC	; CWnd::OnGesturePan
EXTRN	?OnGestureRotate@CWnd@@MAEHVCPoint@@N@Z:PROC	; CWnd::OnGestureRotate
EXTRN	?OnGestureTwoFingerTap@CWnd@@MAEHVCPoint@@@Z:PROC ; CWnd::OnGestureTwoFingerTap
EXTRN	?OnGesturePressAndTap@CWnd@@MAEHVCPoint@@J@Z:PROC ; CWnd::OnGesturePressAndTap
EXTRN	?ResizeDynamicLayout@CWnd@@MAEXXZ:PROC		; CWnd::ResizeDynamicLayout
EXTRN	??1CWnd@@UAE@XZ:PROC				; CWnd::~CWnd
EXTRN	?CheckAutoCenter@CWnd@@UAEHXZ:PROC		; CWnd::CheckAutoCenter
EXTRN	?IsFrameWnd@CWnd@@UBEHXZ:PROC			; CWnd::IsFrameWnd
EXTRN	?OnFinalRelease@CWnd@@UAEXXZ:PROC		; CWnd::OnFinalRelease
EXTRN	?CreateControlContainer@CWnd@@MAEHPAPAVCOleControlContainer@@@Z:PROC ; CWnd::CreateControlContainer
EXTRN	?CreateControlSite@CWnd@@MAEHPAVCOleControlContainer@@PAPAVCOleControlSite@@IABU_GUID@@@Z:PROC ; CWnd::CreateControlSite
EXTRN	?SetOccDialogInfo@CWnd@@MAEHPAU_AFX_OCC_DIALOG_INFO@@@Z:PROC ; CWnd::SetOccDialogInfo
EXTRN	?GetOccDialogInfo@CWnd@@MAEPAU_AFX_OCC_DIALOG_INFO@@XZ:PROC ; CWnd::GetOccDialogInfo
EXTRN	?GetThisMessageMap@CWnd@@KGPBUAFX_MSGMAP@@XZ:PROC ; CWnd::GetThisMessageMap
EXTRN	?GetMessageMap@CWnd@@MBEPBUAFX_MSGMAP@@XZ:PROC	; CWnd::GetMessageMap
EXTRN	?GetRuntimeClass@CListBox@@UBEPAUCRuntimeClass@@XZ:PROC ; CListBox::GetRuntimeClass
EXTRN	?Create@CListBox@@UAEHKABUtagRECT@@PAVCWnd@@I@Z:PROC ; CListBox::Create
EXTRN	?ItemFromPoint@CListBox@@QBEIVCPoint@@AAH@Z:PROC ; CListBox::ItemFromPoint
EXTRN	?DrawItem@CListBox@@UAEXPAUtagDRAWITEMSTRUCT@@@Z:PROC ; CListBox::DrawItem
EXTRN	?MeasureItem@CListBox@@UAEXPAUtagMEASUREITEMSTRUCT@@@Z:PROC ; CListBox::MeasureItem
EXTRN	?CompareItem@CListBox@@UAEHPAUtagCOMPAREITEMSTRUCT@@@Z:PROC ; CListBox::CompareItem
EXTRN	?DeleteItem@CListBox@@UAEXPAUtagDELETEITEMSTRUCT@@@Z:PROC ; CListBox::DeleteItem
EXTRN	?VKeyToItem@CListBox@@UAEHII@Z:PROC		; CListBox::VKeyToItem
EXTRN	?CharToItem@CListBox@@UAEHII@Z:PROC		; CListBox::CharToItem
EXTRN	??1CListBox@@UAE@XZ:PROC			; CListBox::~CListBox
EXTRN	?OnChildNotify@CListBox@@MAEHIIJPAJ@Z:PROC	; CListBox::OnChildNotify
EXTRN	??_ECListBox@@UAEPAXI@Z:PROC			; CListBox::`vector deleting destructor'
EXTRN	?GetRuntimeClass@CScrollBar@@UBEPAUCRuntimeClass@@XZ:PROC ; CScrollBar::GetRuntimeClass
EXTRN	?Create@CScrollBar@@UAEHKABUtagRECT@@PAVCWnd@@I@Z:PROC ; CScrollBar::Create
EXTRN	??1CScrollBar@@UAE@XZ:PROC			; CScrollBar::~CScrollBar
EXTRN	??_ECScrollBar@@UAEPAXI@Z:PROC			; CScrollBar::`vector deleting destructor'
EXTRN	??_ECXComboList@@UAEPAXI@Z:PROC			; CXComboList::`vector deleting destructor'
EXTRN	@__security_check_cookie@4:PROC
EXTRN	___CxxFrameHandler3:PROC
EXTRN	??_7type_info@@6B@:QWORD			; type_info::`vftable'
EXTRN	___security_cookie:DWORD
_BSS	SEGMENT
?WM_XCOMBOLIST_VK_RETURN@@3IA DD 01H DUP (?)		; WM_XCOMBOLIST_VK_RETURN
?WM_XCOMBOLIST_VK_ESCAPE@@3IA DD 01H DUP (?)		; WM_XCOMBOLIST_VK_ESCAPE
?WM_XCOMBOLIST_KEYDOWN@@3IA DD 01H DUP (?)		; WM_XCOMBOLIST_KEYDOWN
?WM_XCOMBOLIST_LBUTTONUP@@3IA DD 01H DUP (?)		; WM_XCOMBOLIST_LBUTTONUP
_BSS	ENDS
CRT$XCU	SEGMENT
?WM_XCOMBOLIST_VK_RETURN$initializer$@@3P6AXXZA DD FLAT:??__EWM_XCOMBOLIST_VK_RETURN@@YAXXZ ; WM_XCOMBOLIST_VK_RETURN$initializer$
CRT$XCU	ENDS
;	COMDAT ??_R1A@?0A@EA@CXComboList@@8
rdata$r	SEGMENT
??_R1A@?0A@EA@CXComboList@@8 DD FLAT:??_R0?AVCXComboList@@@8 ; CXComboList::`RTTI Base Class Descriptor at (0,-1,0,64)'
	DD	03H
	DD	00H
	DD	0ffffffffH
	DD	00H
	DD	040H
	DD	FLAT:??_R3CXComboList@@8
rdata$r	ENDS
;	COMDAT ??_R2CXComboList@@8
rdata$r	SEGMENT
??_R2CXComboList@@8 DD FLAT:??_R1A@?0A@EA@CXComboList@@8 ; CXComboList::`RTTI Base Class Array'
	DD	FLAT:??_R1A@?0A@EA@CWnd@@8
	DD	FLAT:??_R1A@?0A@EA@CCmdTarget@@8
	DD	FLAT:??_R1A@?0A@EA@CObject@@8
rdata$r	ENDS
;	COMDAT ??_R3CXComboList@@8
rdata$r	SEGMENT
??_R3CXComboList@@8 DD 00H				; CXComboList::`RTTI Class Hierarchy Descriptor'
	DD	00H
	DD	04H
	DD	FLAT:??_R2CXComboList@@8
rdata$r	ENDS
;	COMDAT ??_R0?AVCXComboList@@@8
data$rs	SEGMENT
??_R0?AVCXComboList@@@8 DD FLAT:??_7type_info@@6B@	; CXComboList `RTTI Type Descriptor'
	DD	00H
	DB	'.?AVCXComboList@@', 00H
data$rs	ENDS
;	COMDAT ??_R4CXComboList@@6B@
rdata$r	SEGMENT
??_R4CXComboList@@6B@ DD 00H				; CXComboList::`RTTI Complete Object Locator'
	DD	00H
	DD	00H
	DD	FLAT:??_R0?AVCXComboList@@@8
	DD	FLAT:??_R3CXComboList@@8
rdata$r	ENDS
;	COMDAT ?messageMap@?1??GetThisMessageMap@CXComboList@@KGPBUAFX_MSGMAP@@XZ@4U3@B
CONST	SEGMENT
?messageMap@?1??GetThisMessageMap@CXComboList@@KGPBUAFX_MSGMAP@@XZ@4U3@B DD FLAT:?GetThisMessageMap@CWnd@@KGPBUAFX_MSGMAP@@XZ ; `CXComboList::GetThisMessageMap'::`2'::messageMap
	DD	FLAT:?_messageEntries@?1??GetThisMessageMap@CXComboList@@KGPBUAFX_MSGMAP@@XZ@4QBUAFX_MSGMAP_ENTRY@@B
CONST	ENDS
;	COMDAT ?_messageEntries@?1??GetThisMessageMap@CXComboList@@KGPBUAFX_MSGMAP@@XZ@4QBUAFX_MSGMAP_ENTRY@@B
CONST	SEGMENT
?_messageEntries@?1??GetThisMessageMap@CXComboList@@KGPBUAFX_MSGMAP@@XZ@4QBUAFX_MSGMAP_ENTRY@@B DD 0201H ; `CXComboList::GetThisMessageMap'::`2'::_messageEntries
	DD	00H
	DD	00H
	DD	00H
	DD	036H
	DD	FLAT:?OnLButtonDown@CXComboList@@IAEXIVCPoint@@@Z
	DD	08H
	DD	00H
	DD	00H
	DD	00H
	DD	024H
	DD	FLAT:?OnKillFocus@CXComboList@@IAEXPAVCWnd@@@Z
	DD	01H
	DD	00H
	DD	00H
	DD	00H
	DD	0dH
	DD	FLAT:?OnCreate@CXComboList@@IAEHPAUtagCREATESTRUCTA@@@Z
	DD	0115H
	DD	00H
	DD	00H
	DD	00H
	DD	02bH
	DD	FLAT:?OnVScroll@CXComboList@@IAEXIIPAVCScrollBar@@@Z
	DD	02H
	DD	00H
	DD	00H
	DD	00H
	DD	013H
	DD	FLAT:?OnDestroy@CXComboList@@IAEXXZ
	DD	0113H
	DD	00H
	DD	00H
	DD	00H
	DD	015H
	DD	FLAT:?OnTimer@CXComboList@@IAEXI@Z
	DD	00H
	DD	00H
	DD	00H
	DD	00H
	DD	00H
	DD	00H
CONST	ENDS
;	COMDAT ??_7CXComboList@@6B@
CONST	SEGMENT
??_7CXComboList@@6B@ DD FLAT:??_R4CXComboList@@6B@	; CXComboList::`vftable'
	DD	FLAT:?GetRuntimeClass@CWnd@@UBEPAUCRuntimeClass@@XZ
	DD	FLAT:??_ECXComboList@@UAEPAXI@Z
	DD	FLAT:?Serialize@CObject@@UAEXAAVCArchive@@@Z
	DD	FLAT:?AssertValid@CObject@@UBEXXZ
	DD	FLAT:?Dump@CObject@@UBEXAAVCDumpContext@@@Z
	DD	FLAT:?OnCmdMsg@CCmdTarget@@UAEHIHPAXPAUAFX_CMDHANDLERINFO@@@Z
	DD	FLAT:?OnFinalRelease@CWnd@@UAEXXZ
	DD	FLAT:?IsInvokeAllowed@CCmdTarget@@UAEHJ@Z
	DD	FLAT:?GetDispatchIID@CCmdTarget@@UAEHPAU_GUID@@@Z
	DD	FLAT:?GetTypeInfoCount@CCmdTarget@@UAEIXZ
	DD	FLAT:?GetTypeLibCache@CCmdTarget@@UAEPAVCTypeLibCache@@XZ
	DD	FLAT:?GetTypeLib@CCmdTarget@@UAEJKPAPAUITypeLib@@@Z
	DD	FLAT:?GetMessageMap@CXComboList@@MBEPBUAFX_MSGMAP@@XZ
	DD	FLAT:?GetCommandMap@CCmdTarget@@MBEPBUAFX_OLECMDMAP@@XZ
	DD	FLAT:?GetDispatchMap@CCmdTarget@@MBEPBUAFX_DISPMAP@@XZ
	DD	FLAT:?GetConnectionMap@CCmdTarget@@MBEPBUAFX_CONNECTIONMAP@@XZ
	DD	FLAT:?GetInterfaceMap@CWnd@@MBEPBUAFX_INTERFACEMAP@@XZ
	DD	FLAT:?GetEventSinkMap@CCmdTarget@@MBEPBUAFX_EVENTSINKMAP@@XZ
	DD	FLAT:?OnCreateAggregates@CCmdTarget@@UAEHXZ
	DD	FLAT:?GetInterfaceHook@CCmdTarget@@UAEPAUIUnknown@@PBX@Z
	DD	FLAT:?GetExtraConnectionPoints@CCmdTarget@@MAEHPAVCPtrArray@@@Z
	DD	FLAT:?GetConnectionHook@CCmdTarget@@MAEPAUIConnectionPoint@@ABU_GUID@@@Z
	DD	FLAT:?PreSubclassWindow@CWnd@@UAEXXZ
	DD	FLAT:?Create@CWnd@@UAEHPBD0KABUtagRECT@@PAV1@IPAUCCreateContext@@@Z
	DD	FLAT:?CreateEx@CWnd@@UAEHKPBD0KABUtagRECT@@PAV1@IPAX@Z
	DD	FLAT:?CreateEx@CWnd@@UAEHKPBD0KHHHHPAUHWND__@@PAUHMENU__@@PAX@Z
	DD	FLAT:?DestroyWindow@CWnd@@UAEHXZ
	DD	FLAT:?PreCreateWindow@CWnd@@UAEHAAUtagCREATESTRUCTA@@@Z
	DD	FLAT:?CalcWindowRect@CWnd@@UAEXPAUtagRECT@@I@Z
	DD	FLAT:?GetMenu@CWnd@@UBEPAVCMenu@@XZ
	DD	FLAT:?SetMenu@CWnd@@UAEHPAVCMenu@@@Z
	DD	FLAT:?OnToolHitTest@CWnd@@UBEHVCPoint@@PAUtagTOOLINFOA@@@Z
	DD	FLAT:?GetScrollBarCtrl@CWnd@@UBEPAVCScrollBar@@H@Z
	DD	FLAT:?WinHelpA@CWnd@@UAEXKI@Z
	DD	FLAT:?HtmlHelpA@CWnd@@UAEXKI@Z
	DD	FLAT:?WinHelpInternal@CWnd@@UAEXKI@Z
	DD	FLAT:?ContinueModal@CWnd@@UAEHXZ
	DD	FLAT:?EndModalLoop@CWnd@@UAEXH@Z
	DD	FLAT:?OnDrawIconicThumbnailOrLivePreview@CWnd@@UAEXAAVCDC@@VCRect@@VCSize@@HAAH@Z
	DD	FLAT:?EnsureStdObj@CWnd@@UAEJXZ
	DD	FLAT:?get_accParent@CWnd@@UAEJPAPAUIDispatch@@@Z
	DD	FLAT:?get_accChildCount@CWnd@@UAEJPAJ@Z
	DD	FLAT:?get_accChild@CWnd@@UAEJUtagVARIANT@@PAPAUIDispatch@@@Z
	DD	FLAT:?get_accName@CWnd@@UAEJUtagVARIANT@@PAPA_W@Z
	DD	FLAT:?get_accValue@CWnd@@UAEJUtagVARIANT@@PAPA_W@Z
	DD	FLAT:?get_accDescription@CWnd@@UAEJUtagVARIANT@@PAPA_W@Z
	DD	FLAT:?get_accRole@CWnd@@UAEJUtagVARIANT@@PAU2@@Z
	DD	FLAT:?get_accState@CWnd@@UAEJUtagVARIANT@@PAU2@@Z
	DD	FLAT:?get_accHelp@CWnd@@UAEJUtagVARIANT@@PAPA_W@Z
	DD	FLAT:?get_accHelpTopic@CWnd@@UAEJPAPA_WUtagVARIANT@@PAJ@Z
	DD	FLAT:?get_accKeyboardShortcut@CWnd@@UAEJUtagVARIANT@@PAPA_W@Z
	DD	FLAT:?get_accFocus@CWnd@@UAEJPAUtagVARIANT@@@Z
	DD	FLAT:?get_accSelection@CWnd@@UAEJPAUtagVARIANT@@@Z
	DD	FLAT:?get_accDefaultAction@CWnd@@UAEJUtagVARIANT@@PAPA_W@Z
	DD	FLAT:?accSelect@CWnd@@UAEJJUtagVARIANT@@@Z
	DD	FLAT:?accLocation@CWnd@@UAEJPAJ000UtagVARIANT@@@Z
	DD	FLAT:?accNavigate@CWnd@@UAEJJUtagVARIANT@@PAU2@@Z
	DD	FLAT:?accHitTest@CWnd@@UAEJJJPAUtagVARIANT@@@Z
	DD	FLAT:?accDoDefaultAction@CWnd@@UAEJUtagVARIANT@@@Z
	DD	FLAT:?put_accName@CWnd@@UAEJUtagVARIANT@@PA_W@Z
	DD	FLAT:?put_accValue@CWnd@@UAEJUtagVARIANT@@PA_W@Z
	DD	FLAT:?SetProxy@CWnd@@UAEJPAUIAccessibleProxy@@@Z
	DD	FLAT:?CreateAccessibleProxy@CWnd@@UAEJIJPAJ@Z
	DD	FLAT:?OnCommand@CWnd@@MAEHIJ@Z
	DD	FLAT:?OnNotify@CWnd@@MAEHIJPAJ@Z
	DD	FLAT:?GetSuperWndProcAddr@CWnd@@MAEPAP6GJPAUHWND__@@IIJ@ZXZ
	DD	FLAT:?DoDataExchange@CWnd@@MAEXPAVCDataExchange@@@Z
	DD	FLAT:?BeginModalState@CWnd@@UAEXXZ
	DD	FLAT:?EndModalState@CWnd@@UAEXXZ
	DD	FLAT:?PreTranslateMessage@CXComboList@@UAEHPAUtagMSG@@@Z
	DD	FLAT:?OnAmbientProperty@CWnd@@UAEHPAVCOleControlSite@@JPAUtagVARIANT@@@Z
	DD	FLAT:?WindowProc@CWnd@@MAEJIIJ@Z
	DD	FLAT:?OnWndMsg@CWnd@@MAEHIIJPAJ@Z
	DD	FLAT:?DefWindowProcA@CWnd@@MAEJIIJ@Z
	DD	FLAT:?PostNcDestroy@CWnd@@MAEXXZ
	DD	FLAT:?OnChildNotify@CWnd@@MAEHIIJPAJ@Z
	DD	FLAT:?OnTouchInputs@CWnd@@MAEHIPAUtagTOUCHINPUT@@@Z
	DD	FLAT:?OnTouchInput@CWnd@@MAEHVCPoint@@HHPAUtagTOUCHINPUT@@@Z
	DD	FLAT:?GetGestureStatus@CWnd@@MAEKVCPoint@@@Z
	DD	FLAT:?OnGestureZoom@CWnd@@MAEHVCPoint@@J@Z
	DD	FLAT:?OnGesturePan@CWnd@@MAEHVCPoint@@0@Z
	DD	FLAT:?OnGestureRotate@CWnd@@MAEHVCPoint@@N@Z
	DD	FLAT:?OnGestureTwoFingerTap@CWnd@@MAEHVCPoint@@@Z
	DD	FLAT:?OnGesturePressAndTap@CWnd@@MAEHVCPoint@@J@Z
	DD	FLAT:?ResizeDynamicLayout@CWnd@@MAEXXZ
	DD	FLAT:?CheckAutoCenter@CWnd@@UAEHXZ
	DD	FLAT:?IsFrameWnd@CWnd@@UBEHXZ
	DD	FLAT:?CreateControlContainer@CWnd@@MAEHPAPAVCOleControlContainer@@@Z
	DD	FLAT:?CreateControlSite@CWnd@@MAEHPAVCOleControlContainer@@PAPAVCOleControlSite@@IABU_GUID@@@Z
	DD	FLAT:?SetOccDialogInfo@CWnd@@MAEHPAU_AFX_OCC_DIALOG_INFO@@@Z
	DD	FLAT:?GetOccDialogInfo@CWnd@@MAEPAU_AFX_OCC_DIALOG_INFO@@XZ
	DD	FLAT:?GetScrollBarCtrl@CXComboList@@UAEPAVCScrollBar@@H@Z
CONST	ENDS
;	COMDAT ??_R1A@?0A@EA@CScrollBar@@8
rdata$r	SEGMENT
??_R1A@?0A@EA@CScrollBar@@8 DD FLAT:??_R0?AVCScrollBar@@@8 ; CScrollBar::`RTTI Base Class Descriptor at (0,-1,0,64)'
	DD	03H
	DD	00H
	DD	0ffffffffH
	DD	00H
	DD	040H
	DD	FLAT:??_R3CScrollBar@@8
rdata$r	ENDS
;	COMDAT ??_R2CScrollBar@@8
rdata$r	SEGMENT
??_R2CScrollBar@@8 DD FLAT:??_R1A@?0A@EA@CScrollBar@@8	; CScrollBar::`RTTI Base Class Array'
	DD	FLAT:??_R1A@?0A@EA@CWnd@@8
	DD	FLAT:??_R1A@?0A@EA@CCmdTarget@@8
	DD	FLAT:??_R1A@?0A@EA@CObject@@8
rdata$r	ENDS
;	COMDAT ??_R3CScrollBar@@8
rdata$r	SEGMENT
??_R3CScrollBar@@8 DD 00H				; CScrollBar::`RTTI Class Hierarchy Descriptor'
	DD	00H
	DD	04H
	DD	FLAT:??_R2CScrollBar@@8
rdata$r	ENDS
;	COMDAT ??_R0?AVCScrollBar@@@8
data$rs	SEGMENT
??_R0?AVCScrollBar@@@8 DD FLAT:??_7type_info@@6B@	; CScrollBar `RTTI Type Descriptor'
	DD	00H
	DB	'.?AVCScrollBar@@', 00H
data$rs	ENDS
;	COMDAT ??_R4CScrollBar@@6B@
rdata$r	SEGMENT
??_R4CScrollBar@@6B@ DD 00H				; CScrollBar::`RTTI Complete Object Locator'
	DD	00H
	DD	00H
	DD	FLAT:??_R0?AVCScrollBar@@@8
	DD	FLAT:??_R3CScrollBar@@8
rdata$r	ENDS
;	COMDAT ??_R1A@?0A@EA@CListBox@@8
rdata$r	SEGMENT
??_R1A@?0A@EA@CListBox@@8 DD FLAT:??_R0?AVCListBox@@@8	; CListBox::`RTTI Base Class Descriptor at (0,-1,0,64)'
	DD	03H
	DD	00H
	DD	0ffffffffH
	DD	00H
	DD	040H
	DD	FLAT:??_R3CListBox@@8
rdata$r	ENDS
;	COMDAT ??_R2CListBox@@8
rdata$r	SEGMENT
??_R2CListBox@@8 DD FLAT:??_R1A@?0A@EA@CListBox@@8	; CListBox::`RTTI Base Class Array'
	DD	FLAT:??_R1A@?0A@EA@CWnd@@8
	DD	FLAT:??_R1A@?0A@EA@CCmdTarget@@8
	DD	FLAT:??_R1A@?0A@EA@CObject@@8
rdata$r	ENDS
;	COMDAT ??_R3CListBox@@8
rdata$r	SEGMENT
??_R3CListBox@@8 DD 00H					; CListBox::`RTTI Class Hierarchy Descriptor'
	DD	00H
	DD	04H
	DD	FLAT:??_R2CListBox@@8
rdata$r	ENDS
;	COMDAT ??_R0?AVCListBox@@@8
data$rs	SEGMENT
??_R0?AVCListBox@@@8 DD FLAT:??_7type_info@@6B@		; CListBox `RTTI Type Descriptor'
	DD	00H
	DB	'.?AVCListBox@@', 00H
data$rs	ENDS
;	COMDAT ??_R4CListBox@@6B@
rdata$r	SEGMENT
??_R4CListBox@@6B@ DD 00H				; CListBox::`RTTI Complete Object Locator'
	DD	00H
	DD	00H
	DD	FLAT:??_R0?AVCListBox@@@8
	DD	FLAT:??_R3CListBox@@8
rdata$r	ENDS
;	COMDAT ??_R2CCmdTarget@@8
rdata$r	SEGMENT
??_R2CCmdTarget@@8 DD FLAT:??_R1A@?0A@EA@CCmdTarget@@8	; CCmdTarget::`RTTI Base Class Array'
	DD	FLAT:??_R1A@?0A@EA@CObject@@8
rdata$r	ENDS
;	COMDAT ??_R3CCmdTarget@@8
rdata$r	SEGMENT
??_R3CCmdTarget@@8 DD 00H				; CCmdTarget::`RTTI Class Hierarchy Descriptor'
	DD	00H
	DD	02H
	DD	FLAT:??_R2CCmdTarget@@8
rdata$r	ENDS
;	COMDAT ??_R0?AVCCmdTarget@@@8
data$rs	SEGMENT
??_R0?AVCCmdTarget@@@8 DD FLAT:??_7type_info@@6B@	; CCmdTarget `RTTI Type Descriptor'
	DD	00H
	DB	'.?AVCCmdTarget@@', 00H
data$rs	ENDS
;	COMDAT ??_R1A@?0A@EA@CCmdTarget@@8
rdata$r	SEGMENT
??_R1A@?0A@EA@CCmdTarget@@8 DD FLAT:??_R0?AVCCmdTarget@@@8 ; CCmdTarget::`RTTI Base Class Descriptor at (0,-1,0,64)'
	DD	01H
	DD	00H
	DD	0ffffffffH
	DD	00H
	DD	040H
	DD	FLAT:??_R3CCmdTarget@@8
rdata$r	ENDS
;	COMDAT ??_R2CWnd@@8
rdata$r	SEGMENT
??_R2CWnd@@8 DD	FLAT:??_R1A@?0A@EA@CWnd@@8		; CWnd::`RTTI Base Class Array'
	DD	FLAT:??_R1A@?0A@EA@CCmdTarget@@8
	DD	FLAT:??_R1A@?0A@EA@CObject@@8
rdata$r	ENDS
;	COMDAT ??_R3CWnd@@8
rdata$r	SEGMENT
??_R3CWnd@@8 DD	00H					; CWnd::`RTTI Class Hierarchy Descriptor'
	DD	00H
	DD	03H
	DD	FLAT:??_R2CWnd@@8
rdata$r	ENDS
;	COMDAT ??_R0?AVCWnd@@@8
data$rs	SEGMENT
??_R0?AVCWnd@@@8 DD FLAT:??_7type_info@@6B@		; CWnd `RTTI Type Descriptor'
	DD	00H
	DB	'.?AVCWnd@@', 00H
data$rs	ENDS
;	COMDAT ??_R1A@?0A@EA@CWnd@@8
rdata$r	SEGMENT
??_R1A@?0A@EA@CWnd@@8 DD FLAT:??_R0?AVCWnd@@@8		; CWnd::`RTTI Base Class Descriptor at (0,-1,0,64)'
	DD	02H
	DD	00H
	DD	0ffffffffH
	DD	00H
	DD	040H
	DD	FLAT:??_R3CWnd@@8
rdata$r	ENDS
;	COMDAT ??_R1A@?0A@EA@CObject@@8
rdata$r	SEGMENT
??_R1A@?0A@EA@CObject@@8 DD FLAT:??_R0?AVCObject@@@8	; CObject::`RTTI Base Class Descriptor at (0,-1,0,64)'
	DD	00H
	DD	00H
	DD	0ffffffffH
	DD	00H
	DD	040H
	DD	FLAT:??_R3CObject@@8
rdata$r	ENDS
;	COMDAT ??_R2CObject@@8
rdata$r	SEGMENT
??_R2CObject@@8 DD FLAT:??_R1A@?0A@EA@CObject@@8	; CObject::`RTTI Base Class Array'
rdata$r	ENDS
;	COMDAT ??_R3CObject@@8
rdata$r	SEGMENT
??_R3CObject@@8 DD 00H					; CObject::`RTTI Class Hierarchy Descriptor'
	DD	00H
	DD	01H
	DD	FLAT:??_R2CObject@@8
rdata$r	ENDS
;	COMDAT ??_R0?AVCObject@@@8
data$rs	SEGMENT
??_R0?AVCObject@@@8 DD FLAT:??_7type_info@@6B@		; CObject `RTTI Type Descriptor'
	DD	00H
	DB	'.?AVCObject@@', 00H
data$rs	ENDS
;	COMDAT ??_7CScrollBar@@6B@
CONST	SEGMENT
??_7CScrollBar@@6B@ DD FLAT:??_R4CScrollBar@@6B@	; CScrollBar::`vftable'
	DD	FLAT:?GetRuntimeClass@CScrollBar@@UBEPAUCRuntimeClass@@XZ
	DD	FLAT:??_ECScrollBar@@UAEPAXI@Z
	DD	FLAT:?Serialize@CObject@@UAEXAAVCArchive@@@Z
	DD	FLAT:?AssertValid@CObject@@UBEXXZ
	DD	FLAT:?Dump@CObject@@UBEXAAVCDumpContext@@@Z
	DD	FLAT:?OnCmdMsg@CCmdTarget@@UAEHIHPAXPAUAFX_CMDHANDLERINFO@@@Z
	DD	FLAT:?OnFinalRelease@CWnd@@UAEXXZ
	DD	FLAT:?IsInvokeAllowed@CCmdTarget@@UAEHJ@Z
	DD	FLAT:?GetDispatchIID@CCmdTarget@@UAEHPAU_GUID@@@Z
	DD	FLAT:?GetTypeInfoCount@CCmdTarget@@UAEIXZ
	DD	FLAT:?GetTypeLibCache@CCmdTarget@@UAEPAVCTypeLibCache@@XZ
	DD	FLAT:?GetTypeLib@CCmdTarget@@UAEJKPAPAUITypeLib@@@Z
	DD	FLAT:?GetMessageMap@CWnd@@MBEPBUAFX_MSGMAP@@XZ
	DD	FLAT:?GetCommandMap@CCmdTarget@@MBEPBUAFX_OLECMDMAP@@XZ
	DD	FLAT:?GetDispatchMap@CCmdTarget@@MBEPBUAFX_DISPMAP@@XZ
	DD	FLAT:?GetConnectionMap@CCmdTarget@@MBEPBUAFX_CONNECTIONMAP@@XZ
	DD	FLAT:?GetInterfaceMap@CWnd@@MBEPBUAFX_INTERFACEMAP@@XZ
	DD	FLAT:?GetEventSinkMap@CCmdTarget@@MBEPBUAFX_EVENTSINKMAP@@XZ
	DD	FLAT:?OnCreateAggregates@CCmdTarget@@UAEHXZ
	DD	FLAT:?GetInterfaceHook@CCmdTarget@@UAEPAUIUnknown@@PBX@Z
	DD	FLAT:?GetExtraConnectionPoints@CCmdTarget@@MAEHPAVCPtrArray@@@Z
	DD	FLAT:?GetConnectionHook@CCmdTarget@@MAEPAUIConnectionPoint@@ABU_GUID@@@Z
	DD	FLAT:?PreSubclassWindow@CWnd@@UAEXXZ
	DD	FLAT:?Create@CWnd@@UAEHPBD0KABUtagRECT@@PAV1@IPAUCCreateContext@@@Z
	DD	FLAT:?CreateEx@CWnd@@UAEHKPBD0KABUtagRECT@@PAV1@IPAX@Z
	DD	FLAT:?CreateEx@CWnd@@UAEHKPBD0KHHHHPAUHWND__@@PAUHMENU__@@PAX@Z
	DD	FLAT:?DestroyWindow@CWnd@@UAEHXZ
	DD	FLAT:?PreCreateWindow@CWnd@@UAEHAAUtagCREATESTRUCTA@@@Z
	DD	FLAT:?CalcWindowRect@CWnd@@UAEXPAUtagRECT@@I@Z
	DD	FLAT:?GetMenu@CWnd@@UBEPAVCMenu@@XZ
	DD	FLAT:?SetMenu@CWnd@@UAEHPAVCMenu@@@Z
	DD	FLAT:?OnToolHitTest@CWnd@@UBEHVCPoint@@PAUtagTOOLINFOA@@@Z
	DD	FLAT:?GetScrollBarCtrl@CWnd@@UBEPAVCScrollBar@@H@Z
	DD	FLAT:?WinHelpA@CWnd@@UAEXKI@Z
	DD	FLAT:?HtmlHelpA@CWnd@@UAEXKI@Z
	DD	FLAT:?WinHelpInternal@CWnd@@UAEXKI@Z
	DD	FLAT:?ContinueModal@CWnd@@UAEHXZ
	DD	FLAT:?EndModalLoop@CWnd@@UAEXH@Z
	DD	FLAT:?OnDrawIconicThumbnailOrLivePreview@CWnd@@UAEXAAVCDC@@VCRect@@VCSize@@HAAH@Z
	DD	FLAT:?EnsureStdObj@CWnd@@UAEJXZ
	DD	FLAT:?get_accParent@CWnd@@UAEJPAPAUIDispatch@@@Z
	DD	FLAT:?get_accChildCount@CWnd@@UAEJPAJ@Z
	DD	FLAT:?get_accChild@CWnd@@UAEJUtagVARIANT@@PAPAUIDispatch@@@Z
	DD	FLAT:?get_accName@CWnd@@UAEJUtagVARIANT@@PAPA_W@Z
	DD	FLAT:?get_accValue@CWnd@@UAEJUtagVARIANT@@PAPA_W@Z
	DD	FLAT:?get_accDescription@CWnd@@UAEJUtagVARIANT@@PAPA_W@Z
	DD	FLAT:?get_accRole@CWnd@@UAEJUtagVARIANT@@PAU2@@Z
	DD	FLAT:?get_accState@CWnd@@UAEJUtagVARIANT@@PAU2@@Z
	DD	FLAT:?get_accHelp@CWnd@@UAEJUtagVARIANT@@PAPA_W@Z
	DD	FLAT:?get_accHelpTopic@CWnd@@UAEJPAPA_WUtagVARIANT@@PAJ@Z
	DD	FLAT:?get_accKeyboardShortcut@CWnd@@UAEJUtagVARIANT@@PAPA_W@Z
	DD	FLAT:?get_accFocus@CWnd@@UAEJPAUtagVARIANT@@@Z
	DD	FLAT:?get_accSelection@CWnd@@UAEJPAUtagVARIANT@@@Z
	DD	FLAT:?get_accDefaultAction@CWnd@@UAEJUtagVARIANT@@PAPA_W@Z
	DD	FLAT:?accSelect@CWnd@@UAEJJUtagVARIANT@@@Z
	DD	FLAT:?accLocation@CWnd@@UAEJPAJ000UtagVARIANT@@@Z
	DD	FLAT:?accNavigate@CWnd@@UAEJJUtagVARIANT@@PAU2@@Z
	DD	FLAT:?accHitTest@CWnd@@UAEJJJPAUtagVARIANT@@@Z
	DD	FLAT:?accDoDefaultAction@CWnd@@UAEJUtagVARIANT@@@Z
	DD	FLAT:?put_accName@CWnd@@UAEJUtagVARIANT@@PA_W@Z
	DD	FLAT:?put_accValue@CWnd@@UAEJUtagVARIANT@@PA_W@Z
	DD	FLAT:?SetProxy@CWnd@@UAEJPAUIAccessibleProxy@@@Z
	DD	FLAT:?CreateAccessibleProxy@CWnd@@UAEJIJPAJ@Z
	DD	FLAT:?OnCommand@CWnd@@MAEHIJ@Z
	DD	FLAT:?OnNotify@CWnd@@MAEHIJPAJ@Z
	DD	FLAT:?GetSuperWndProcAddr@CWnd@@MAEPAP6GJPAUHWND__@@IIJ@ZXZ
	DD	FLAT:?DoDataExchange@CWnd@@MAEXPAVCDataExchange@@@Z
	DD	FLAT:?BeginModalState@CWnd@@UAEXXZ
	DD	FLAT:?EndModalState@CWnd@@UAEXXZ
	DD	FLAT:?PreTranslateMessage@CWnd@@UAEHPAUtagMSG@@@Z
	DD	FLAT:?OnAmbientProperty@CWnd@@UAEHPAVCOleControlSite@@JPAUtagVARIANT@@@Z
	DD	FLAT:?WindowProc@CWnd@@MAEJIIJ@Z
	DD	FLAT:?OnWndMsg@CWnd@@MAEHIIJPAJ@Z
	DD	FLAT:?DefWindowProcA@CWnd@@MAEJIIJ@Z
	DD	FLAT:?PostNcDestroy@CWnd@@MAEXXZ
	DD	FLAT:?OnChildNotify@CWnd@@MAEHIIJPAJ@Z
	DD	FLAT:?OnTouchInputs@CWnd@@MAEHIPAUtagTOUCHINPUT@@@Z
	DD	FLAT:?OnTouchInput@CWnd@@MAEHVCPoint@@HHPAUtagTOUCHINPUT@@@Z
	DD	FLAT:?GetGestureStatus@CWnd@@MAEKVCPoint@@@Z
	DD	FLAT:?OnGestureZoom@CWnd@@MAEHVCPoint@@J@Z
	DD	FLAT:?OnGesturePan@CWnd@@MAEHVCPoint@@0@Z
	DD	FLAT:?OnGestureRotate@CWnd@@MAEHVCPoint@@N@Z
	DD	FLAT:?OnGestureTwoFingerTap@CWnd@@MAEHVCPoint@@@Z
	DD	FLAT:?OnGesturePressAndTap@CWnd@@MAEHVCPoint@@J@Z
	DD	FLAT:?ResizeDynamicLayout@CWnd@@MAEXXZ
	DD	FLAT:?CheckAutoCenter@CWnd@@UAEHXZ
	DD	FLAT:?IsFrameWnd@CWnd@@UBEHXZ
	DD	FLAT:?CreateControlContainer@CWnd@@MAEHPAPAVCOleControlContainer@@@Z
	DD	FLAT:?CreateControlSite@CWnd@@MAEHPAVCOleControlContainer@@PAPAVCOleControlSite@@IABU_GUID@@@Z
	DD	FLAT:?SetOccDialogInfo@CWnd@@MAEHPAU_AFX_OCC_DIALOG_INFO@@@Z
	DD	FLAT:?GetOccDialogInfo@CWnd@@MAEPAU_AFX_OCC_DIALOG_INFO@@XZ
	DD	FLAT:?Create@CScrollBar@@UAEHKABUtagRECT@@PAVCWnd@@I@Z
CONST	ENDS
;	COMDAT ??_7CListBox@@6B@
CONST	SEGMENT
??_7CListBox@@6B@ DD FLAT:??_R4CListBox@@6B@		; CListBox::`vftable'
	DD	FLAT:?GetRuntimeClass@CListBox@@UBEPAUCRuntimeClass@@XZ
	DD	FLAT:??_ECListBox@@UAEPAXI@Z
	DD	FLAT:?Serialize@CObject@@UAEXAAVCArchive@@@Z
	DD	FLAT:?AssertValid@CObject@@UBEXXZ
	DD	FLAT:?Dump@CObject@@UBEXAAVCDumpContext@@@Z
	DD	FLAT:?OnCmdMsg@CCmdTarget@@UAEHIHPAXPAUAFX_CMDHANDLERINFO@@@Z
	DD	FLAT:?OnFinalRelease@CWnd@@UAEXXZ
	DD	FLAT:?IsInvokeAllowed@CCmdTarget@@UAEHJ@Z
	DD	FLAT:?GetDispatchIID@CCmdTarget@@UAEHPAU_GUID@@@Z
	DD	FLAT:?GetTypeInfoCount@CCmdTarget@@UAEIXZ
	DD	FLAT:?GetTypeLibCache@CCmdTarget@@UAEPAVCTypeLibCache@@XZ
	DD	FLAT:?GetTypeLib@CCmdTarget@@UAEJKPAPAUITypeLib@@@Z
	DD	FLAT:?GetMessageMap@CWnd@@MBEPBUAFX_MSGMAP@@XZ
	DD	FLAT:?GetCommandMap@CCmdTarget@@MBEPBUAFX_OLECMDMAP@@XZ
	DD	FLAT:?GetDispatchMap@CCmdTarget@@MBEPBUAFX_DISPMAP@@XZ
	DD	FLAT:?GetConnectionMap@CCmdTarget@@MBEPBUAFX_CONNECTIONMAP@@XZ
	DD	FLAT:?GetInterfaceMap@CWnd@@MBEPBUAFX_INTERFACEMAP@@XZ
	DD	FLAT:?GetEventSinkMap@CCmdTarget@@MBEPBUAFX_EVENTSINKMAP@@XZ
	DD	FLAT:?OnCreateAggregates@CCmdTarget@@UAEHXZ
	DD	FLAT:?GetInterfaceHook@CCmdTarget@@UAEPAUIUnknown@@PBX@Z
	DD	FLAT:?GetExtraConnectionPoints@CCmdTarget@@MAEHPAVCPtrArray@@@Z
	DD	FLAT:?GetConnectionHook@CCmdTarget@@MAEPAUIConnectionPoint@@ABU_GUID@@@Z
	DD	FLAT:?PreSubclassWindow@CWnd@@UAEXXZ
	DD	FLAT:?Create@CWnd@@UAEHPBD0KABUtagRECT@@PAV1@IPAUCCreateContext@@@Z
	DD	FLAT:?CreateEx@CWnd@@UAEHKPBD0KABUtagRECT@@PAV1@IPAX@Z
	DD	FLAT:?CreateEx@CWnd@@UAEHKPBD0KHHHHPAUHWND__@@PAUHMENU__@@PAX@Z
	DD	FLAT:?DestroyWindow@CWnd@@UAEHXZ
	DD	FLAT:?PreCreateWindow@CWnd@@UAEHAAUtagCREATESTRUCTA@@@Z
	DD	FLAT:?CalcWindowRect@CWnd@@UAEXPAUtagRECT@@I@Z
	DD	FLAT:?GetMenu@CWnd@@UBEPAVCMenu@@XZ
	DD	FLAT:?SetMenu@CWnd@@UAEHPAVCMenu@@@Z
	DD	FLAT:?OnToolHitTest@CWnd@@UBEHVCPoint@@PAUtagTOOLINFOA@@@Z
	DD	FLAT:?GetScrollBarCtrl@CWnd@@UBEPAVCScrollBar@@H@Z
	DD	FLAT:?WinHelpA@CWnd@@UAEXKI@Z
	DD	FLAT:?HtmlHelpA@CWnd@@UAEXKI@Z
	DD	FLAT:?WinHelpInternal@CWnd@@UAEXKI@Z
	DD	FLAT:?ContinueModal@CWnd@@UAEHXZ
	DD	FLAT:?EndModalLoop@CWnd@@UAEXH@Z
	DD	FLAT:?OnDrawIconicThumbnailOrLivePreview@CWnd@@UAEXAAVCDC@@VCRect@@VCSize@@HAAH@Z
	DD	FLAT:?EnsureStdObj@CWnd@@UAEJXZ
	DD	FLAT:?get_accParent@CWnd@@UAEJPAPAUIDispatch@@@Z
	DD	FLAT:?get_accChildCount@CWnd@@UAEJPAJ@Z
	DD	FLAT:?get_accChild@CWnd@@UAEJUtagVARIANT@@PAPAUIDispatch@@@Z
	DD	FLAT:?get_accName@CWnd@@UAEJUtagVARIANT@@PAPA_W@Z
	DD	FLAT:?get_accValue@CWnd@@UAEJUtagVARIANT@@PAPA_W@Z
	DD	FLAT:?get_accDescription@CWnd@@UAEJUtagVARIANT@@PAPA_W@Z
	DD	FLAT:?get_accRole@CWnd@@UAEJUtagVARIANT@@PAU2@@Z
	DD	FLAT:?get_accState@CWnd@@UAEJUtagVARIANT@@PAU2@@Z
	DD	FLAT:?get_accHelp@CWnd@@UAEJUtagVARIANT@@PAPA_W@Z
	DD	FLAT:?get_accHelpTopic@CWnd@@UAEJPAPA_WUtagVARIANT@@PAJ@Z
	DD	FLAT:?get_accKeyboardShortcut@CWnd@@UAEJUtagVARIANT@@PAPA_W@Z
	DD	FLAT:?get_accFocus@CWnd@@UAEJPAUtagVARIANT@@@Z
	DD	FLAT:?get_accSelection@CWnd@@UAEJPAUtagVARIANT@@@Z
	DD	FLAT:?get_accDefaultAction@CWnd@@UAEJUtagVARIANT@@PAPA_W@Z
	DD	FLAT:?accSelect@CWnd@@UAEJJUtagVARIANT@@@Z
	DD	FLAT:?accLocation@CWnd@@UAEJPAJ000UtagVARIANT@@@Z
	DD	FLAT:?accNavigate@CWnd@@UAEJJUtagVARIANT@@PAU2@@Z
	DD	FLAT:?accHitTest@CWnd@@UAEJJJPAUtagVARIANT@@@Z
	DD	FLAT:?accDoDefaultAction@CWnd@@UAEJUtagVARIANT@@@Z
	DD	FLAT:?put_accName@CWnd@@UAEJUtagVARIANT@@PA_W@Z
	DD	FLAT:?put_accValue@CWnd@@UAEJUtagVARIANT@@PA_W@Z
	DD	FLAT:?SetProxy@CWnd@@UAEJPAUIAccessibleProxy@@@Z
	DD	FLAT:?CreateAccessibleProxy@CWnd@@UAEJIJPAJ@Z
	DD	FLAT:?OnCommand@CWnd@@MAEHIJ@Z
	DD	FLAT:?OnNotify@CWnd@@MAEHIJPAJ@Z
	DD	FLAT:?GetSuperWndProcAddr@CWnd@@MAEPAP6GJPAUHWND__@@IIJ@ZXZ
	DD	FLAT:?DoDataExchange@CWnd@@MAEXPAVCDataExchange@@@Z
	DD	FLAT:?BeginModalState@CWnd@@UAEXXZ
	DD	FLAT:?EndModalState@CWnd@@UAEXXZ
	DD	FLAT:?PreTranslateMessage@CWnd@@UAEHPAUtagMSG@@@Z
	DD	FLAT:?OnAmbientProperty@CWnd@@UAEHPAVCOleControlSite@@JPAUtagVARIANT@@@Z
	DD	FLAT:?WindowProc@CWnd@@MAEJIIJ@Z
	DD	FLAT:?OnWndMsg@CWnd@@MAEHIIJPAJ@Z
	DD	FLAT:?DefWindowProcA@CWnd@@MAEJIIJ@Z
	DD	FLAT:?PostNcDestroy@CWnd@@MAEXXZ
	DD	FLAT:?OnChildNotify@CListBox@@MAEHIIJPAJ@Z
	DD	FLAT:?OnTouchInputs@CWnd@@MAEHIPAUtagTOUCHINPUT@@@Z
	DD	FLAT:?OnTouchInput@CWnd@@MAEHVCPoint@@HHPAUtagTOUCHINPUT@@@Z
	DD	FLAT:?GetGestureStatus@CWnd@@MAEKVCPoint@@@Z
	DD	FLAT:?OnGestureZoom@CWnd@@MAEHVCPoint@@J@Z
	DD	FLAT:?OnGesturePan@CWnd@@MAEHVCPoint@@0@Z
	DD	FLAT:?OnGestureRotate@CWnd@@MAEHVCPoint@@N@Z
	DD	FLAT:?OnGestureTwoFingerTap@CWnd@@MAEHVCPoint@@@Z
	DD	FLAT:?OnGesturePressAndTap@CWnd@@MAEHVCPoint@@J@Z
	DD	FLAT:?ResizeDynamicLayout@CWnd@@MAEXXZ
	DD	FLAT:?CheckAutoCenter@CWnd@@UAEHXZ
	DD	FLAT:?IsFrameWnd@CWnd@@UBEHXZ
	DD	FLAT:?CreateControlContainer@CWnd@@MAEHPAPAVCOleControlContainer@@@Z
	DD	FLAT:?CreateControlSite@CWnd@@MAEHPAVCOleControlContainer@@PAPAVCOleControlSite@@IABU_GUID@@@Z
	DD	FLAT:?SetOccDialogInfo@CWnd@@MAEHPAU_AFX_OCC_DIALOG_INFO@@@Z
	DD	FLAT:?GetOccDialogInfo@CWnd@@MAEPAU_AFX_OCC_DIALOG_INFO@@XZ
	DD	FLAT:?Create@CListBox@@UAEHKABUtagRECT@@PAVCWnd@@I@Z
	DD	FLAT:?DrawItem@CListBox@@UAEXPAUtagDRAWITEMSTRUCT@@@Z
	DD	FLAT:?MeasureItem@CListBox@@UAEXPAUtagMEASUREITEMSTRUCT@@@Z
	DD	FLAT:?CompareItem@CListBox@@UAEHPAUtagCOMPAREITEMSTRUCT@@@Z
	DD	FLAT:?DeleteItem@CListBox@@UAEXPAUtagDELETEITEMSTRUCT@@@Z
	DD	FLAT:?VKeyToItem@CListBox@@UAEHII@Z
	DD	FLAT:?CharToItem@CListBox@@UAEHII@Z
CONST	ENDS
;	COMDAT xdata$x
xdata$x	SEGMENT
__unwindtable$?PreTranslateMessage@CXComboList@@UAEHPAUtagMSG@@@Z DD 0ffffffffH
	DD	FLAT:__unwindfunclet$?PreTranslateMessage@CXComboList@@UAEHPAUtagMSG@@@Z$0
__ehfuncinfo$?PreTranslateMessage@CXComboList@@UAEHPAUtagMSG@@@Z DD 019930522H
	DD	01H
	DD	FLAT:__unwindtable$?PreTranslateMessage@CXComboList@@UAEHPAUtagMSG@@@Z
	DD	2 DUP(00H)
	DD	2 DUP(00H)
	DD	00H
	DD	01H
xdata$x	ENDS
;	COMDAT xdata$x
xdata$x	SEGMENT
__unwindtable$??0CXComboList@@QAE@PAVCWnd@@@Z DD 0ffffffffH
	DD	FLAT:__unwindfunclet$??0CXComboList@@QAE@PAVCWnd@@@Z$0
	DD	00H
	DD	FLAT:__unwindfunclet$??0CXComboList@@QAE@PAVCWnd@@@Z$1
__ehfuncinfo$??0CXComboList@@QAE@PAVCWnd@@@Z DD 019930522H
	DD	02H
	DD	FLAT:__unwindtable$??0CXComboList@@QAE@PAVCWnd@@@Z
	DD	2 DUP(00H)
	DD	2 DUP(00H)
	DD	00H
	DD	01H
xdata$x	ENDS
CRT$XCU	SEGMENT
?WM_XCOMBOLIST_VK_ESCAPE$initializer$@@3P6AXXZA DD FLAT:??__EWM_XCOMBOLIST_VK_ESCAPE@@YAXXZ ; WM_XCOMBOLIST_VK_ESCAPE$initializer$
CRT$XCU	ENDS
CRT$XCU	SEGMENT
?WM_XCOMBOLIST_KEYDOWN$initializer$@@3P6AXXZA DD FLAT:??__EWM_XCOMBOLIST_KEYDOWN@@YAXXZ ; WM_XCOMBOLIST_KEYDOWN$initializer$
CRT$XCU	ENDS
CRT$XCU	SEGMENT
?WM_XCOMBOLIST_LBUTTONUP$initializer$@@3P6AXXZA DD FLAT:??__EWM_XCOMBOLIST_LBUTTONUP@@YAXXZ ; WM_XCOMBOLIST_LBUTTONUP$initializer$
CRT$XCU	ENDS
; Function compile flags: /Ogtp
; File D:\git\src\IBK\IBK_DRFN\ProjSrc\SrcDrfn\Chart\comparechart\control\XComboList.cpp
;	COMDAT ??__EWM_XCOMBOLIST_LBUTTONUP@@YAXXZ
text$di	SEGMENT
??__EWM_XCOMBOLIST_LBUTTONUP@@YAXXZ PROC		; `dynamic initializer for 'WM_XCOMBOLIST_LBUTTONUP'', COMDAT

; 27   : UINT NEAR WM_XCOMBOLIST_LBUTTONUP = ::RegisterWindowMessage(_T("WM_XCOMBOLIST_LBUTTONUP"));

  00000	68 00 00 00 00	 push	 OFFSET ??_C@_0BI@CDIINDEJ@WM_XCOMBOLIST_LBUTTONUP@
  00005	ff 15 00 00 00
	00		 call	 DWORD PTR __imp__RegisterWindowMessageA@4
  0000b	a3 00 00 00 00	 mov	 DWORD PTR ?WM_XCOMBOLIST_LBUTTONUP@@3IA, eax ; WM_XCOMBOLIST_LBUTTONUP
  00010	c3		 ret	 0
??__EWM_XCOMBOLIST_LBUTTONUP@@YAXXZ ENDP		; `dynamic initializer for 'WM_XCOMBOLIST_LBUTTONUP''
text$di	ENDS
; Function compile flags: /Ogtp
; File D:\git\src\IBK\IBK_DRFN\ProjSrc\SrcDrfn\Chart\comparechart\control\XComboList.cpp
;	COMDAT ??__EWM_XCOMBOLIST_KEYDOWN@@YAXXZ
text$di	SEGMENT
??__EWM_XCOMBOLIST_KEYDOWN@@YAXXZ PROC			; `dynamic initializer for 'WM_XCOMBOLIST_KEYDOWN'', COMDAT

; 26   : UINT NEAR WM_XCOMBOLIST_KEYDOWN   = ::RegisterWindowMessage(_T("WM_XCOMBOLIST_KEYDOWN"));

  00000	68 00 00 00 00	 push	 OFFSET ??_C@_0BG@DMJKCKCC@WM_XCOMBOLIST_KEYDOWN@
  00005	ff 15 00 00 00
	00		 call	 DWORD PTR __imp__RegisterWindowMessageA@4
  0000b	a3 00 00 00 00	 mov	 DWORD PTR ?WM_XCOMBOLIST_KEYDOWN@@3IA, eax ; WM_XCOMBOLIST_KEYDOWN
  00010	c3		 ret	 0
??__EWM_XCOMBOLIST_KEYDOWN@@YAXXZ ENDP			; `dynamic initializer for 'WM_XCOMBOLIST_KEYDOWN''
text$di	ENDS
; Function compile flags: /Ogtp
; File D:\git\src\IBK\IBK_DRFN\ProjSrc\SrcDrfn\Chart\comparechart\control\XComboList.cpp
;	COMDAT ??__EWM_XCOMBOLIST_VK_ESCAPE@@YAXXZ
text$di	SEGMENT
??__EWM_XCOMBOLIST_VK_ESCAPE@@YAXXZ PROC		; `dynamic initializer for 'WM_XCOMBOLIST_VK_ESCAPE'', COMDAT

; 25   : UINT NEAR WM_XCOMBOLIST_VK_ESCAPE = ::RegisterWindowMessage(_T("WM_XCOMBOLIST_VK_ESCAPE"));

  00000	68 00 00 00 00	 push	 OFFSET ??_C@_0BI@FOCGBGJB@WM_XCOMBOLIST_VK_ESCAPE@
  00005	ff 15 00 00 00
	00		 call	 DWORD PTR __imp__RegisterWindowMessageA@4
  0000b	a3 00 00 00 00	 mov	 DWORD PTR ?WM_XCOMBOLIST_VK_ESCAPE@@3IA, eax ; WM_XCOMBOLIST_VK_ESCAPE
  00010	c3		 ret	 0
??__EWM_XCOMBOLIST_VK_ESCAPE@@YAXXZ ENDP		; `dynamic initializer for 'WM_XCOMBOLIST_VK_ESCAPE''
text$di	ENDS
; Function compile flags: /Ogtp
; File D:\git\src\IBK\IBK_DRFN\ProjSrc\SrcDrfn\Chart\comparechart\control\XComboList.cpp
;	COMDAT ??__EWM_XCOMBOLIST_VK_RETURN@@YAXXZ
text$di	SEGMENT
??__EWM_XCOMBOLIST_VK_RETURN@@YAXXZ PROC		; `dynamic initializer for 'WM_XCOMBOLIST_VK_RETURN'', COMDAT

; 24   : UINT NEAR WM_XCOMBOLIST_VK_RETURN = ::RegisterWindowMessage(_T("WM_XCOMBOLIST_VK_RETURN"));

  00000	68 00 00 00 00	 push	 OFFSET ??_C@_0BI@MEBLNDKI@WM_XCOMBOLIST_VK_RETURN@
  00005	ff 15 00 00 00
	00		 call	 DWORD PTR __imp__RegisterWindowMessageA@4
  0000b	a3 00 00 00 00	 mov	 DWORD PTR ?WM_XCOMBOLIST_VK_RETURN@@3IA, eax ; WM_XCOMBOLIST_VK_RETURN
  00010	c3		 ret	 0
??__EWM_XCOMBOLIST_VK_RETURN@@YAXXZ ENDP		; `dynamic initializer for 'WM_XCOMBOLIST_VK_RETURN''
text$di	ENDS
; Function compile flags: /Ogtp
; File D:\git\src\IBK\IBK_DRFN\ProjSrc\SrcDrfn\Chart\comparechart\control\XComboList.cpp
; File C:\Program Files (x86)\Microsoft Visual Studio\2019\Community\VC\Tools\MSVC\14.29.30133\atlmfc\include\afx.inl
;	COMDAT ??_GCXComboList@@UAEPAXI@Z
_TEXT	SEGMENT
___flags$ = 8						; size = 4
??_GCXComboList@@UAEPAXI@Z PROC				; CXComboList::`scalar deleting destructor', COMDAT
; _this$ = ecx
  00000	55		 push	 ebp
  00001	8b ec		 mov	 ebp, esp
; File D:\git\src\IBK\IBK_DRFN\ProjSrc\SrcDrfn\Chart\comparechart\control\XComboList.cpp

; 51   : {

  00003	56		 push	 esi
  00004	8b f1		 mov	 esi, ecx

; 52   : }

  00006	8d 8e 00 01 00
	00		 lea	 ecx, DWORD PTR [esi+256]
  0000c	c7 06 00 00 00
	00		 mov	 DWORD PTR [esi], OFFSET ??_7CXComboList@@6B@
  00012	e8 00 00 00 00	 call	 ??1CScrollBar@@UAE@XZ	; CScrollBar::~CScrollBar
  00017	8d 8e 80 00 00
	00		 lea	 ecx, DWORD PTR [esi+128]
  0001d	e8 00 00 00 00	 call	 ??1CListBox@@UAE@XZ	; CListBox::~CListBox
  00022	8b ce		 mov	 ecx, esi
  00024	e8 00 00 00 00	 call	 ??1CWnd@@UAE@XZ		; CWnd::~CWnd
  00029	8b 45 08	 mov	 eax, DWORD PTR ___flags$[ebp]
  0002c	a8 01		 test	 al, 1
  0002e	74 22		 je	 SHORT $LN12@scalar
  00030	a8 04		 test	 al, 4
  00032	75 10		 jne	 SHORT $LN3@scalar
; File C:\Program Files (x86)\Microsoft Visual Studio\2019\Community\VC\Tools\MSVC\14.29.30133\atlmfc\include\afx.inl

; 112  : 	{ ::operator delete(p); }

  00034	56		 push	 esi
  00035	e8 00 00 00 00	 call	 ??3@YAXPAX@Z		; operator delete
  0003a	83 c4 04	 add	 esp, 4
  0003d	8b c6		 mov	 eax, esi
  0003f	5e		 pop	 esi
  00040	5d		 pop	 ebp
  00041	c2 04 00	 ret	 4
$LN3@scalar:
  00044	68 90 01 00 00	 push	 400			; 00000190H
  00049	56		 push	 esi
  0004a	e8 00 00 00 00	 call	 ?__global_delete@@YAXPAXI@Z ; __global_delete
  0004f	83 c4 08	 add	 esp, 8
$LN12@scalar:
  00052	8b c6		 mov	 eax, esi
  00054	5e		 pop	 esi
  00055	5d		 pop	 ebp
  00056	c2 04 00	 ret	 4
??_GCXComboList@@UAEPAXI@Z ENDP				; CXComboList::`scalar deleting destructor'
_TEXT	ENDS
; Function compile flags: /Ogtp
; File D:\git\src\IBK\IBK_DRFN\ProjSrc\SrcDrfn\Chart\comparechart\control\XComboList.cpp
;	COMDAT ?GetMessageMap@CXComboList@@MBEPBUAFX_MSGMAP@@XZ
_TEXT	SEGMENT
?GetMessageMap@CXComboList@@MBEPBUAFX_MSGMAP@@XZ PROC	; CXComboList::GetMessageMap, COMDAT
; _this$ = ecx

; 29   : BEGIN_MESSAGE_MAP(CXComboList, CWnd)

  00000	b8 00 00 00 00	 mov	 eax, OFFSET ?messageMap@?1??GetThisMessageMap@CXComboList@@KGPBUAFX_MSGMAP@@XZ@4U3@B
  00005	c3		 ret	 0
?GetMessageMap@CXComboList@@MBEPBUAFX_MSGMAP@@XZ ENDP	; CXComboList::GetMessageMap
_TEXT	ENDS
; Function compile flags: /Ogtp
; File D:\git\src\IBK\IBK_DRFN\ProjSrc\SrcDrfn\Chart\comparechart\control\XComboList.cpp
;	COMDAT ?GetThisMessageMap@CXComboList@@KGPBUAFX_MSGMAP@@XZ
_TEXT	SEGMENT
?GetThisMessageMap@CXComboList@@KGPBUAFX_MSGMAP@@XZ PROC ; CXComboList::GetThisMessageMap, COMDAT

; 30   : 	//{{AFX_MSG_MAP(CXComboList)
; 31   : 	ON_WM_LBUTTONDOWN()
; 32   : 	ON_WM_KILLFOCUS()
; 33   : 	ON_WM_CREATE()
; 34   : 	ON_WM_VSCROLL()
; 35   : 	ON_WM_DESTROY()
; 36   : 	ON_WM_TIMER()
; 37   : 	//}}AFX_MSG_MAP
; 38   : END_MESSAGE_MAP()

  00000	b8 00 00 00 00	 mov	 eax, OFFSET ?messageMap@?1??GetThisMessageMap@CXComboList@@KGPBUAFX_MSGMAP@@XZ@4U3@B
  00005	c3		 ret	 0
?GetThisMessageMap@CXComboList@@KGPBUAFX_MSGMAP@@XZ ENDP ; CXComboList::GetThisMessageMap
_TEXT	ENDS
; Function compile flags: /Ogtp
; File D:\git\src\IBK\IBK_DRFN\ProjSrc\SrcDrfn\Chart\comparechart\control\XComboList.cpp
; File C:\Program Files (x86)\Microsoft Visual Studio\2019\Community\VC\Tools\MSVC\14.29.30133\atlmfc\include\afxwin2.inl
; File C:\Program Files (x86)\Microsoft Visual Studio\2019\Community\VC\Tools\MSVC\14.29.30133\atlmfc\include\atltypes.h
; File D:\git\src\IBK\IBK_DRFN\ProjSrc\SrcDrfn\Chart\comparechart\control\XComboList.cpp
; File C:\Program Files (x86)\Microsoft Visual Studio\2019\Community\VC\Tools\MSVC\14.29.30133\atlmfc\include\atltypes.h
; File D:\git\src\IBK\IBK_DRFN\ProjSrc\SrcDrfn\Chart\comparechart\control\XComboList.cpp
; File C:\Program Files (x86)\Microsoft Visual Studio\2019\Community\VC\Tools\MSVC\14.29.30133\atlmfc\include\atltypes.h
; File D:\git\src\IBK\IBK_DRFN\ProjSrc\SrcDrfn\Chart\comparechart\control\XComboList.cpp
; File C:\Program Files (x86)\Microsoft Visual Studio\2019\Community\VC\Tools\MSVC\14.29.30133\atlmfc\include\atltypes.h
; File D:\git\src\IBK\IBK_DRFN\ProjSrc\SrcDrfn\Chart\comparechart\control\XComboList.cpp
; File C:\Program Files (x86)\Microsoft Visual Studio\2019\Community\VC\Tools\MSVC\14.29.30133\atlmfc\include\afxwin2.inl
; File D:\git\src\IBK\IBK_DRFN\ProjSrc\SrcDrfn\Chart\comparechart\control\XComboList.cpp
; File C:\Program Files (x86)\Microsoft Visual Studio\2019\Community\VC\Tools\MSVC\14.29.30133\atlmfc\include\afxwin2.inl
; File D:\git\src\IBK\IBK_DRFN\ProjSrc\SrcDrfn\Chart\comparechart\control\XComboList.cpp
; File C:\Program Files (x86)\Microsoft Visual Studio\2019\Community\VC\Tools\MSVC\14.29.30133\atlmfc\include\afxwin2.inl
; File D:\git\src\IBK\IBK_DRFN\ProjSrc\SrcDrfn\Chart\comparechart\control\XComboList.cpp
;	COMDAT ?OnTimer@CXComboList@@IAEXI@Z
_TEXT	SEGMENT
_point$ = -12						; size = 8
_bOutside$ = -4						; size = 4
_nIDEvent$ = 8						; size = 4
?OnTimer@CXComboList@@IAEXI@Z PROC			; CXComboList::OnTimer, COMDAT
; _this$ = ecx

; 381  : {

  00000	55		 push	 ebp
  00001	8b ec		 mov	 ebp, esp
  00003	83 ec 0c	 sub	 esp, 12			; 0000000cH
  00006	53		 push	 ebx
  00007	56		 push	 esi
  00008	8b f1		 mov	 esi, ecx
  0000a	57		 push	 edi

; 382  : 	UNUSED_ALWAYS(nIDEvent);
; 383  : 
; 384  : 	if (!::IsWindow(m_ListBox.m_hWnd))

  0000b	ff b6 a0 00 00
	00		 push	 DWORD PTR [esi+160]
  00011	ff 15 00 00 00
	00		 call	 DWORD PTR __imp__IsWindow@4
  00017	85 c0		 test	 eax, eax
  00019	0f 84 82 00 00
	00		 je	 $LN5@OnTimer

; 385  : 		return;
; 386  : 
; 387  : 	// get current mouse position
; 388  : 	POINT point;
; 389  : 	::GetCursorPos(&point);

  0001f	8d 45 f4	 lea	 eax, DWORD PTR _point$[ebp]
  00022	50		 push	 eax
  00023	ff 15 00 00 00
	00		 call	 DWORD PTR __imp__GetCursorPos@4
; File C:\Program Files (x86)\Microsoft Visual Studio\2019\Community\VC\Tools\MSVC\14.29.30133\atlmfc\include\afxwin2.inl

; 94   : 	{ ASSERT(::IsWindow(m_hWnd)); ::ScreenToClient(m_hWnd, lpPoint); }

  00029	8d 45 f4	 lea	 eax, DWORD PTR _point$[ebp]
  0002c	50		 push	 eax
  0002d	ff 76 20	 push	 DWORD PTR [esi+32]
  00030	ff 15 00 00 00
	00		 call	 DWORD PTR __imp__ScreenToClient@8
; File C:\Program Files (x86)\Microsoft Visual Studio\2019\Community\VC\Tools\MSVC\14.29.30133\atlmfc\include\atltypes.h

; 414  : 	*(POINT*)this = initPt;

  00036	8b 4d f8	 mov	 ecx, DWORD PTR _point$[ebp+4]
; File D:\git\src\IBK\IBK_DRFN\ProjSrc\SrcDrfn\Chart\comparechart\control\XComboList.cpp

; 393  : 	int nIndex = m_ListBox.ItemFromPoint(point, bOutside);

  00039	8d 45 fc	 lea	 eax, DWORD PTR _bOutside$[ebp]
  0003c	50		 push	 eax
; File C:\Program Files (x86)\Microsoft Visual Studio\2019\Community\VC\Tools\MSVC\14.29.30133\atlmfc\include\atltypes.h

; 414  : 	*(POINT*)this = initPt;

  0003d	8b 45 f4	 mov	 eax, DWORD PTR _point$[ebp]
; File D:\git\src\IBK\IBK_DRFN\ProjSrc\SrcDrfn\Chart\comparechart\control\XComboList.cpp

; 393  : 	int nIndex = m_ListBox.ItemFromPoint(point, bOutside);

  00040	83 ec 08	 sub	 esp, 8
  00043	8b d4		 mov	 edx, esp
; File C:\Program Files (x86)\Microsoft Visual Studio\2019\Community\VC\Tools\MSVC\14.29.30133\atlmfc\include\atltypes.h

; 414  : 	*(POINT*)this = initPt;

  00045	89 4a 04	 mov	 DWORD PTR [edx+4], ecx
; File D:\git\src\IBK\IBK_DRFN\ProjSrc\SrcDrfn\Chart\comparechart\control\XComboList.cpp

; 393  : 	int nIndex = m_ListBox.ItemFromPoint(point, bOutside);

  00048	8d 8e 80 00 00
	00		 lea	 ecx, DWORD PTR [esi+128]
; File C:\Program Files (x86)\Microsoft Visual Studio\2019\Community\VC\Tools\MSVC\14.29.30133\atlmfc\include\atltypes.h

; 414  : 	*(POINT*)this = initPt;

  0004e	89 02		 mov	 DWORD PTR [edx], eax
; File D:\git\src\IBK\IBK_DRFN\ProjSrc\SrcDrfn\Chart\comparechart\control\XComboList.cpp

; 393  : 	int nIndex = m_ListBox.ItemFromPoint(point, bOutside);

  00050	e8 00 00 00 00	 call	 ?ItemFromPoint@CListBox@@QBEIVCPoint@@AAH@Z ; CListBox::ItemFromPoint

; 394  : 	//TRACE("   nIndex=%d  bOutside=%d\n", nIndex, bOutside);
; 395  : 
; 396  : 	if (!bOutside)

  00055	83 7d fc 00	 cmp	 DWORD PTR _bOutside$[ebp], 0
  00059	8b f8		 mov	 edi, eax
  0005b	75 44		 jne	 SHORT $LN5@OnTimer
; File C:\Program Files (x86)\Microsoft Visual Studio\2019\Community\VC\Tools\MSVC\14.29.30133\atlmfc\include\afxwin2.inl

; 666  : 	{ ASSERT(::IsWindow(m_hWnd)); return (int)::SendMessage(m_hWnd, LB_GETCURSEL, 0, 0); }

  0005d	8b 1d 00 00 00
	00		 mov	 ebx, DWORD PTR __imp__SendMessageA@16
  00063	6a 00		 push	 0
  00065	6a 00		 push	 0
  00067	68 88 01 00 00	 push	 392			; 00000188H
  0006c	ff b6 a0 00 00
	00		 push	 DWORD PTR [esi+160]
  00072	ff d3		 call	 ebx
; File D:\git\src\IBK\IBK_DRFN\ProjSrc\SrcDrfn\Chart\comparechart\control\XComboList.cpp

; 400  : 		if (nIndex != nCurSel)

  00074	3b f8		 cmp	 edi, eax
  00076	74 29		 je	 SHORT $LN5@OnTimer

; 401  : 			if (nIndex >= 0 && nIndex < m_ListBox.GetCount())

  00078	85 ff		 test	 edi, edi
  0007a	78 25		 js	 SHORT $LN5@OnTimer
; File C:\Program Files (x86)\Microsoft Visual Studio\2019\Community\VC\Tools\MSVC\14.29.30133\atlmfc\include\afxwin2.inl

; 664  : 	{ ASSERT(::IsWindow(m_hWnd)); return (int)::SendMessage(m_hWnd, LB_GETCOUNT, 0, 0); }

  0007c	6a 00		 push	 0
  0007e	6a 00		 push	 0
  00080	68 8b 01 00 00	 push	 395			; 0000018bH
  00085	ff b6 a0 00 00
	00		 push	 DWORD PTR [esi+160]
  0008b	ff d3		 call	 ebx
; File D:\git\src\IBK\IBK_DRFN\ProjSrc\SrcDrfn\Chart\comparechart\control\XComboList.cpp

; 401  : 			if (nIndex >= 0 && nIndex < m_ListBox.GetCount())

  0008d	3b f8		 cmp	 edi, eax
  0008f	7d 10		 jge	 SHORT $LN5@OnTimer
; File C:\Program Files (x86)\Microsoft Visual Studio\2019\Community\VC\Tools\MSVC\14.29.30133\atlmfc\include\afxwin2.inl

; 668  : 	{ ASSERT(::IsWindow(m_hWnd)); return (int)::SendMessage(m_hWnd, LB_SETCURSEL, nSelect, 0); }

  00091	6a 00		 push	 0
  00093	57		 push	 edi
  00094	68 86 01 00 00	 push	 390			; 00000186H
  00099	ff b6 a0 00 00
	00		 push	 DWORD PTR [esi+160]
  0009f	ff d3		 call	 ebx
$LN5@OnTimer:
; File D:\git\src\IBK\IBK_DRFN\ProjSrc\SrcDrfn\Chart\comparechart\control\XComboList.cpp

; 404  : }

  000a1	5f		 pop	 edi
  000a2	5e		 pop	 esi
  000a3	5b		 pop	 ebx
  000a4	8b e5		 mov	 esp, ebp
  000a6	5d		 pop	 ebp
  000a7	c2 04 00	 ret	 4
?OnTimer@CXComboList@@IAEXI@Z ENDP			; CXComboList::OnTimer
_TEXT	ENDS
; Function compile flags: /Ogtp
; File D:\git\src\IBK\IBK_DRFN\ProjSrc\SrcDrfn\Chart\comparechart\control\XComboList.cpp
; File C:\Program Files (x86)\Microsoft Visual Studio\2019\Community\VC\Tools\MSVC\14.29.30133\atlmfc\include\afxwin2.inl
; File D:\git\src\IBK\IBK_DRFN\ProjSrc\SrcDrfn\Chart\comparechart\control\XComboList.cpp
;	COMDAT ?OnDestroy@CXComboList@@IAEXXZ
_TEXT	SEGMENT
?OnDestroy@CXComboList@@IAEXXZ PROC			; CXComboList::OnDestroy, COMDAT
; _this$ = ecx

; 368  : {

  00000	56		 push	 esi
  00001	8b f1		 mov	 esi, ecx
; File C:\Program Files (x86)\Microsoft Visual Studio\2019\Community\VC\Tools\MSVC\14.29.30133\atlmfc\include\afxwin2.inl

; 155  : 	{ ASSERT(::IsWindow(m_hWnd)); return ::KillTimer(m_hWnd, nIDEvent); }

  00003	6a 01		 push	 1
  00005	ff 76 20	 push	 DWORD PTR [esi+32]
  00008	ff 15 00 00 00
	00		 call	 DWORD PTR __imp__KillTimer@8
; File D:\git\src\IBK\IBK_DRFN\ProjSrc\SrcDrfn\Chart\comparechart\control\XComboList.cpp

; 371  : 	if (::IsWindow(m_ListBox.m_hWnd))

  0000e	ff b6 a0 00 00
	00		 push	 DWORD PTR [esi+160]
  00014	ff 15 00 00 00
	00		 call	 DWORD PTR __imp__IsWindow@4
  0001a	85 c0		 test	 eax, eax
  0001c	74 0f		 je	 SHORT $LN2@OnDestroy

; 372  : 		m_ListBox.DestroyWindow();

  0001e	8b 86 80 00 00
	00		 mov	 eax, DWORD PTR [esi+128]
  00024	8d 8e 80 00 00
	00		 lea	 ecx, DWORD PTR [esi+128]
  0002a	ff 50 68	 call	 DWORD PTR [eax+104]
$LN2@OnDestroy:

; 373  : 
; 374  : 
; 375  : 	CWnd::OnDestroy();

  0002d	8b ce		 mov	 ecx, esi
  0002f	5e		 pop	 esi
  00030	e9 00 00 00 00	 jmp	 ?OnDestroy@CWnd@@IAEXXZ	; CWnd::OnDestroy
?OnDestroy@CXComboList@@IAEXXZ ENDP			; CXComboList::OnDestroy
_TEXT	ENDS
; Function compile flags: /Ogtp
; File D:\git\src\IBK\IBK_DRFN\ProjSrc\SrcDrfn\Chart\comparechart\control\XComboList.cpp
; File C:\Program Files (x86)\Microsoft Visual Studio\2019\Community\VC\Tools\MSVC\14.29.30133\atlmfc\include\afxwin2.inl
; File D:\git\src\IBK\IBK_DRFN\ProjSrc\SrcDrfn\Chart\comparechart\control\XComboList.cpp
; File C:\Program Files (x86)\Microsoft Visual Studio\2019\Community\VC\Tools\MSVC\14.29.30133\atlmfc\include\afxwin2.inl
; File D:\git\src\IBK\IBK_DRFN\ProjSrc\SrcDrfn\Chart\comparechart\control\XComboList.cpp
; File C:\Program Files (x86)\Microsoft Visual Studio\2019\Community\VC\Tools\MSVC\14.29.30133\atlmfc\include\afxwin2.inl
; File D:\git\src\IBK\IBK_DRFN\ProjSrc\SrcDrfn\Chart\comparechart\control\XComboList.cpp
; File C:\Program Files (x86)\Microsoft Visual Studio\2019\Community\VC\Tools\MSVC\14.29.30133\atlmfc\include\afxwin2.inl
; File D:\git\src\IBK\IBK_DRFN\ProjSrc\SrcDrfn\Chart\comparechart\control\XComboList.cpp
; File C:\Program Files (x86)\Microsoft Visual Studio\2019\Community\VC\Tools\MSVC\14.29.30133\atlmfc\include\afxwin2.inl
; File D:\git\src\IBK\IBK_DRFN\ProjSrc\SrcDrfn\Chart\comparechart\control\XComboList.cpp
; File C:\Program Files (x86)\Microsoft Visual Studio\2019\Community\VC\Tools\MSVC\14.29.30133\atlmfc\include\afxwin2.inl
; File D:\git\src\IBK\IBK_DRFN\ProjSrc\SrcDrfn\Chart\comparechart\control\XComboList.cpp
; File C:\Program Files (x86)\Microsoft Visual Studio\2019\Community\VC\Tools\MSVC\14.29.30133\atlmfc\include\afxwin2.inl
; File D:\git\src\IBK\IBK_DRFN\ProjSrc\SrcDrfn\Chart\comparechart\control\XComboList.cpp
;	COMDAT ?OnVScroll@CXComboList@@IAEXIIPAVCScrollBar@@@Z
_TEXT	SEGMENT
_si$ = -32						; size = 28
__$ArrayPad$ = -4					; size = 4
_nSBCode$ = 8						; size = 4
_nPos$ = 12						; size = 4
___formal$ = 16						; size = 4
?OnVScroll@CXComboList@@IAEXIIPAVCScrollBar@@@Z PROC	; CXComboList::OnVScroll, COMDAT
; _this$ = ecx

; 311  : {

  00000	55		 push	 ebp
  00001	8b ec		 mov	 ebp, esp
  00003	83 ec 20	 sub	 esp, 32			; 00000020H
  00006	a1 00 00 00 00	 mov	 eax, DWORD PTR ___security_cookie
  0000b	33 c5		 xor	 eax, ebp
  0000d	89 45 fc	 mov	 DWORD PTR __$ArrayPad$[ebp], eax
  00010	56		 push	 esi
  00011	8b f1		 mov	 esi, ecx

; 312  : 	if (!::IsWindow(m_ListBox.m_hWnd))

  00013	ff b6 a0 00 00
	00		 push	 DWORD PTR [esi+160]
  00019	ff 15 00 00 00
	00		 call	 DWORD PTR __imp__IsWindow@4
  0001f	85 c0		 test	 eax, eax
  00021	0f 84 a6 00 00
	00		 je	 $LN1@OnVScroll

; 313  : 		return;
; 314  : 
; 315  : 	// forward scroll message to listbox
; 316  : 	const MSG* pMsg = GetCurrentMessage();

  00027	e8 00 00 00 00	 call	 ?GetCurrentMessage@CWnd@@KGPBUtagMSG@@XZ ; CWnd::GetCurrentMessage
; File C:\Program Files (x86)\Microsoft Visual Studio\2019\Community\VC\Tools\MSVC\14.29.30133\atlmfc\include\afxwin2.inl

; 32   : 	{ ASSERT(::IsWindow(m_hWnd)); return ::SendMessage(m_hWnd, message, wParam, lParam); }

  0002c	ff 70 0c	 push	 DWORD PTR [eax+12]
  0002f	ff 70 08	 push	 DWORD PTR [eax+8]
  00032	68 15 01 00 00	 push	 277			; 00000115H
  00037	ff b6 a0 00 00
	00		 push	 DWORD PTR [esi+160]
  0003d	ff 15 00 00 00
	00		 call	 DWORD PTR __imp__SendMessageA@16

; 966  : 	{ return CWnd::GetScrollInfo(SB_CTL, lpScrollInfo, nMask); }

  00043	6a 17		 push	 23			; 00000017H
  00045	8d 45 e0	 lea	 eax, DWORD PTR _si$[ebp]
; File D:\git\src\IBK\IBK_DRFN\ProjSrc\SrcDrfn\Chart\comparechart\control\XComboList.cpp

; 321  :         sizeof(SCROLLINFO),

  00048	c7 45 e0 1c 00
	00 00		 mov	 DWORD PTR _si$[ebp], 28	; 0000001cH
; File C:\Program Files (x86)\Microsoft Visual Studio\2019\Community\VC\Tools\MSVC\14.29.30133\atlmfc\include\afxwin2.inl

; 966  : 	{ return CWnd::GetScrollInfo(SB_CTL, lpScrollInfo, nMask); }

  0004f	50		 push	 eax
  00050	0f 57 c0	 xorps	 xmm0, xmm0
; File D:\git\src\IBK\IBK_DRFN\ProjSrc\SrcDrfn\Chart\comparechart\control\XComboList.cpp

; 322  :         SIF_ALL | SIF_DISABLENOSCROLL,

  00053	c7 45 e4 1f 00
	00 00		 mov	 DWORD PTR _si$[ebp+4], 31 ; 0000001fH
; File C:\Program Files (x86)\Microsoft Visual Studio\2019\Community\VC\Tools\MSVC\14.29.30133\atlmfc\include\afxwin2.inl

; 966  : 	{ return CWnd::GetScrollInfo(SB_CTL, lpScrollInfo, nMask); }

  0005a	6a 02		 push	 2
  0005c	8d 8e 00 01 00
	00		 lea	 ecx, DWORD PTR [esi+256]
; File D:\git\src\IBK\IBK_DRFN\ProjSrc\SrcDrfn\Chart\comparechart\control\XComboList.cpp

; 322  :         SIF_ALL | SIF_DISABLENOSCROLL,

  00062	c7 45 f8 00 00
	00 00		 mov	 DWORD PTR _si$[ebp+24], 0
  00069	0f 11 45 e8	 movups	 XMMWORD PTR _si$[ebp+8], xmm0
; File C:\Program Files (x86)\Microsoft Visual Studio\2019\Community\VC\Tools\MSVC\14.29.30133\atlmfc\include\afxwin2.inl

; 966  : 	{ return CWnd::GetScrollInfo(SB_CTL, lpScrollInfo, nMask); }

  0006d	e8 00 00 00 00	 call	 ?GetScrollInfo@CWnd@@QAEHHPAUtagSCROLLINFO@@I@Z ; CWnd::GetScrollInfo
; File D:\git\src\IBK\IBK_DRFN\ProjSrc\SrcDrfn\Chart\comparechart\control\XComboList.cpp

; 326  :     switch (nSBCode) 

  00072	8b 45 08	 mov	 eax, DWORD PTR _nSBCode$[ebp]
  00075	8b 4d ec	 mov	 ecx, DWORD PTR _si$[ebp+12]
  00078	83 f8 08	 cmp	 eax, 8
  0007b	77 2c		 ja	 SHORT $LN26@OnVScroll
  0007d	ff 24 85 00 00
	00 00		 jmp	 DWORD PTR $LN25@OnVScroll[eax*4]
$LN5@OnVScroll:

; 327  : 	{
; 328  : 		case SB_BOTTOM:			// scroll to bottom
; 329  : 			si.nPos = si.nMax;

  00084	8b c1		 mov	 eax, ecx

; 330  : 			break;

  00086	eb 24		 jmp	 SHORT $LN14@OnVScroll
$LN7@OnVScroll:

; 331  : 		case SB_TOP:			// scroll to top
; 332  : 			si.nPos = 0;
; 333  : 			break;
; 334  : 		case SB_PAGEDOWN:		// scroll one page down
; 335  : 			si.nPos += si.nPage;

  00088	8b 45 f4	 mov	 eax, DWORD PTR _si$[ebp+20]
  0008b	03 45 f0	 add	 eax, DWORD PTR _si$[ebp+16]

; 336  : 			break;

  0008e	eb 1c		 jmp	 SHORT $LN14@OnVScroll
$LN8@OnVScroll:

; 337  : 		case SB_PAGEUP:			// scroll one page up
; 338  : 			si.nPos -= si.nPage;

  00090	8b 45 f4	 mov	 eax, DWORD PTR _si$[ebp+20]
  00093	2b 45 f0	 sub	 eax, DWORD PTR _si$[ebp+16]

; 339  : 			break;

  00096	eb 14		 jmp	 SHORT $LN14@OnVScroll
$LN9@OnVScroll:

; 340  : 		case SB_LINEDOWN:		// scroll one line up
; 341  : 			si.nPos += 1;

  00098	8b 45 f4	 mov	 eax, DWORD PTR _si$[ebp+20]
  0009b	40		 inc	 eax

; 342  : 			break;

  0009c	eb 0e		 jmp	 SHORT $LN14@OnVScroll
$LN10@OnVScroll:

; 343  : 		case SB_LINEUP:			// scroll one line up
; 344  : 			si.nPos -= 1;

  0009e	8b 45 f4	 mov	 eax, DWORD PTR _si$[ebp+20]
  000a1	48		 dec	 eax

; 345  : 			break;

  000a2	eb 08		 jmp	 SHORT $LN14@OnVScroll
$LN11@OnVScroll:

; 346  : 		case SB_THUMBTRACK:		// drag scroll box to specified position. The 
; 347  : 								// current position is provided in nPos
; 348  : 		case SB_THUMBPOSITION:	// scroll to the absolute position. The current 
; 349  : 								// position is provided in nPos
; 350  : 			si.nPos = nPos;        

  000a4	8b 45 0c	 mov	 eax, DWORD PTR _nPos$[ebp]
  000a7	eb 03		 jmp	 SHORT $LN14@OnVScroll
$LN26@OnVScroll:

; 326  :     switch (nSBCode) 

  000a9	8b 45 f4	 mov	 eax, DWORD PTR _si$[ebp+20]
$LN14@OnVScroll:

; 351  : 			break;
; 352  : 		case SB_ENDSCROLL:		// end scroll
; 353  : 			return;
; 354  : 		default:
; 355  : 			break;
; 356  : 	}
; 357  : 
; 358  : 	if (si.nPos < 0)

  000ac	85 c0		 test	 eax, eax
  000ae	79 02		 jns	 SHORT $LN15@OnVScroll
$LN24@OnVScroll:

; 359  : 		si.nPos = 0;

  000b0	33 c0		 xor	 eax, eax
$LN15@OnVScroll:

; 360  : 	if (si.nPos > si.nMax)

  000b2	3b c1		 cmp	 eax, ecx
; File C:\Program Files (x86)\Microsoft Visual Studio\2019\Community\VC\Tools\MSVC\14.29.30133\atlmfc\include\afxwin2.inl

; 964  : 	{ return CWnd::SetScrollInfo(SB_CTL, lpScrollInfo, bRedraw); }

  000b4	6a 01		 push	 1
; File D:\git\src\IBK\IBK_DRFN\ProjSrc\SrcDrfn\Chart\comparechart\control\XComboList.cpp

; 360  : 	if (si.nPos > si.nMax)

  000b6	0f 4f c1	 cmovg	 eax, ecx
; File C:\Program Files (x86)\Microsoft Visual Studio\2019\Community\VC\Tools\MSVC\14.29.30133\atlmfc\include\afxwin2.inl

; 964  : 	{ return CWnd::SetScrollInfo(SB_CTL, lpScrollInfo, bRedraw); }

  000b9	8d 8e 00 01 00
	00		 lea	 ecx, DWORD PTR [esi+256]
; File D:\git\src\IBK\IBK_DRFN\ProjSrc\SrcDrfn\Chart\comparechart\control\XComboList.cpp

; 360  : 	if (si.nPos > si.nMax)

  000bf	89 45 f4	 mov	 DWORD PTR _si$[ebp+20], eax
; File C:\Program Files (x86)\Microsoft Visual Studio\2019\Community\VC\Tools\MSVC\14.29.30133\atlmfc\include\afxwin2.inl

; 964  : 	{ return CWnd::SetScrollInfo(SB_CTL, lpScrollInfo, bRedraw); }

  000c2	8d 45 e0	 lea	 eax, DWORD PTR _si$[ebp]
  000c5	50		 push	 eax
  000c6	6a 02		 push	 2
  000c8	e8 00 00 00 00	 call	 ?SetScrollInfo@CWnd@@QAEHHPAUtagSCROLLINFO@@H@Z ; CWnd::SetScrollInfo
$LN1@OnVScroll:
; File D:\git\src\IBK\IBK_DRFN\ProjSrc\SrcDrfn\Chart\comparechart\control\XComboList.cpp

; 363  : }

  000cd	8b 4d fc	 mov	 ecx, DWORD PTR __$ArrayPad$[ebp]
  000d0	33 cd		 xor	 ecx, ebp
  000d2	5e		 pop	 esi
  000d3	e8 00 00 00 00	 call	 @__security_check_cookie@4
  000d8	8b e5		 mov	 esp, ebp
  000da	5d		 pop	 ebp
  000db	c2 0c 00	 ret	 12			; 0000000cH
  000de	66 90		 npad	 2
$LN25@OnVScroll:
  000e0	00 00 00 00	 DD	 $LN10@OnVScroll
  000e4	00 00 00 00	 DD	 $LN9@OnVScroll
  000e8	00 00 00 00	 DD	 $LN8@OnVScroll
  000ec	00 00 00 00	 DD	 $LN7@OnVScroll
  000f0	00 00 00 00	 DD	 $LN11@OnVScroll
  000f4	00 00 00 00	 DD	 $LN11@OnVScroll
  000f8	00 00 00 00	 DD	 $LN24@OnVScroll
  000fc	00 00 00 00	 DD	 $LN5@OnVScroll
  00100	00 00 00 00	 DD	 $LN1@OnVScroll
?OnVScroll@CXComboList@@IAEXIIPAVCScrollBar@@@Z ENDP	; CXComboList::OnVScroll
_TEXT	ENDS
; Function compile flags: /Ogtp
; File D:\git\src\IBK\IBK_DRFN\ProjSrc\SrcDrfn\Chart\comparechart\control\XComboList.cpp
; File C:\Program Files (x86)\Microsoft Visual Studio\2019\Community\VC\Tools\MSVC\14.29.30133\atlmfc\include\afxwin2.inl
; File D:\git\src\IBK\IBK_DRFN\ProjSrc\SrcDrfn\Chart\comparechart\control\XComboList.cpp
; File C:\Program Files (x86)\Microsoft Visual Studio\2019\Community\VC\Tools\MSVC\14.29.30133\atlmfc\include\atltypes.h
; File D:\git\src\IBK\IBK_DRFN\ProjSrc\SrcDrfn\Chart\comparechart\control\XComboList.cpp
; File C:\Program Files (x86)\Microsoft Visual Studio\2019\Community\VC\Tools\MSVC\14.29.30133\atlmfc\include\afxwin2.inl
; File C:\Program Files (x86)\Microsoft Visual Studio\2019\Community\VC\Tools\MSVC\14.29.30133\atlmfc\include\afxwin1.inl
; File D:\git\src\IBK\IBK_DRFN\ProjSrc\SrcDrfn\Chart\comparechart\control\XComboList.cpp
; File C:\Program Files (x86)\Microsoft Visual Studio\2019\Community\VC\Tools\MSVC\14.29.30133\atlmfc\include\afxwin2.inl
; File D:\git\src\IBK\IBK_DRFN\ProjSrc\SrcDrfn\Chart\comparechart\control\XComboList.cpp
;	COMDAT ?OnCreate@CXComboList@@IAEHPAUtagCREATESTRUCTA@@@Z
_TEXT	SEGMENT
_rect2$ = -20						; size = 16
__$ArrayPad$ = -4					; size = 4
_lpCreateStruct$ = 8					; size = 4
?OnCreate@CXComboList@@IAEHPAUtagCREATESTRUCTA@@@Z PROC	; CXComboList::OnCreate, COMDAT
; _this$ = ecx

; 283  : {

  00000	55		 push	 ebp
  00001	8b ec		 mov	 ebp, esp
  00003	83 ec 14	 sub	 esp, 20			; 00000014H
  00006	a1 00 00 00 00	 mov	 eax, DWORD PTR ___security_cookie
  0000b	33 c5		 xor	 eax, ebp
  0000d	89 45 fc	 mov	 DWORD PTR __$ArrayPad$[ebp], eax
  00010	56		 push	 esi
  00011	8b f1		 mov	 esi, ecx
; File C:\Program Files (x86)\Microsoft Visual Studio\2019\Community\VC\Tools\MSVC\14.29.30133\atlmfc\include\afxwin2.inl

; 296  : 	{ return (int)Default(); }

  00013	e8 00 00 00 00	 call	 ?Default@CWnd@@IAEJXZ	; CWnd::Default
; File D:\git\src\IBK\IBK_DRFN\ProjSrc\SrcDrfn\Chart\comparechart\control\XComboList.cpp

; 284  : 	if (CWnd::OnCreate(lpCreateStruct) == -1)

  00018	83 f8 ff	 cmp	 eax, -1
  0001b	75 13		 jne	 SHORT $LN2@OnCreate

; 285  : 		return -1;

  0001d	0b c0		 or	 eax, eax
  0001f	5e		 pop	 esi

; 306  : }

  00020	8b 4d fc	 mov	 ecx, DWORD PTR __$ArrayPad$[ebp]
  00023	33 cd		 xor	 ecx, ebp
  00025	e8 00 00 00 00	 call	 @__security_check_cookie@4
  0002a	8b e5		 mov	 esp, ebp
  0002c	5d		 pop	 ebp
  0002d	c2 04 00	 ret	 4
$LN2@OnCreate:

; 290  : 	VERIFY(m_ListBox.Create(WS_VISIBLE|WS_CHILD|LBS_NOINTEGRALHEIGHT/*|WS_BORDER*/,

  00030	8b 86 80 00 00
	00		 mov	 eax, DWORD PTR [esi+128]
  00036	8d 8e 80 00 00
	00		 lea	 ecx, DWORD PTR [esi+128]
  0003c	53		 push	 ebx
  0003d	57		 push	 edi
  0003e	6a 00		 push	 0
  00040	56		 push	 esi
  00041	8d 55 ec	 lea	 edx, DWORD PTR _rect2$[ebp]
  00044	0f 57 c0	 xorps	 xmm0, xmm0
  00047	52		 push	 edx
  00048	68 00 01 00 50	 push	 1342177536		; 50000100H
; File C:\Program Files (x86)\Microsoft Visual Studio\2019\Community\VC\Tools\MSVC\14.29.30133\atlmfc\include\atltypes.h

; 540  : 	left = l;

  0004d	0f 11 45 ec	 movups	 XMMWORD PTR _rect2$[ebp], xmm0
; File D:\git\src\IBK\IBK_DRFN\ProjSrc\SrcDrfn\Chart\comparechart\control\XComboList.cpp

; 290  : 	VERIFY(m_ListBox.Create(WS_VISIBLE|WS_CHILD|LBS_NOINTEGRALHEIGHT/*|WS_BORDER*/,

  00051	ff 90 6c 01 00
	00		 call	 DWORD PTR [eax+364]

; 291  : 		rect2, this, 0));
; 292  : 
; 293  : 	// create the vertical scrollbar
; 294  : 	VERIFY(m_wndSBVert.Create(WS_VISIBLE|WS_CHILD|SBS_VERT,

  00057	8b 86 00 01 00
	00		 mov	 eax, DWORD PTR [esi+256]
  0005d	8d 8e 00 01 00
	00		 lea	 ecx, DWORD PTR [esi+256]
  00063	6a 00		 push	 0
  00065	56		 push	 esi
  00066	8d 55 ec	 lea	 edx, DWORD PTR _rect2$[ebp]
  00069	52		 push	 edx
  0006a	68 01 00 00 50	 push	 1342177281		; 50000001H
  0006f	ff 90 6c 01 00
	00		 call	 DWORD PTR [eax+364]
; File C:\Program Files (x86)\Microsoft Visual Studio\2019\Community\VC\Tools\MSVC\14.29.30133\atlmfc\include\afxwin2.inl

; 213  : 	{ ASSERT(::IsWindow(m_hWnd)); return CWnd::FromHandle(::GetParent(m_hWnd)); }

  00075	ff 76 20	 push	 DWORD PTR [esi+32]
  00078	ff 15 00 00 00
	00		 call	 DWORD PTR __imp__GetParent@4
  0007e	50		 push	 eax
  0007f	e8 00 00 00 00	 call	 ?FromHandle@CWnd@@SGPAV1@PAUHWND__@@@Z ; CWnd::FromHandle

; 45   : 	{ ASSERT(::IsWindow(m_hWnd)); return CFont::FromHandle(

  00084	8b 3d 00 00 00
	00		 mov	 edi, DWORD PTR __imp__SendMessageA@16
  0008a	6a 00		 push	 0
  0008c	6a 00		 push	 0
  0008e	6a 31		 push	 49			; 00000031H
  00090	ff 70 20	 push	 DWORD PTR [eax+32]
  00093	ff d7		 call	 edi
; File C:\Program Files (x86)\Microsoft Visual Studio\2019\Community\VC\Tools\MSVC\14.29.30133\atlmfc\include\afxwin1.inl

; 151  : 	{ return (CFont*) CGdiObject::FromHandle(hFont); }

  00095	50		 push	 eax
  00096	e8 00 00 00 00	 call	 ?FromHandle@CGdiObject@@SGPAV1@PAX@Z ; CGdiObject::FromHandle
; File D:\git\src\IBK\IBK_DRFN\ProjSrc\SrcDrfn\Chart\comparechart\control\XComboList.cpp

; 298  : 	CFont *font = GetParent()->GetFont();

  0009b	8b d8		 mov	 ebx, eax

; 299  : 	if (font)

  0009d	85 db		 test	 ebx, ebx
  0009f	74 1e		 je	 SHORT $LN3@OnCreate
; File C:\Program Files (x86)\Microsoft Visual Studio\2019\Community\VC\Tools\MSVC\14.29.30133\atlmfc\include\afxwin2.inl

; 43   : 	{ ASSERT(::IsWindow(m_hWnd)); ::SendMessage(m_hWnd, WM_SETFONT, (WPARAM)pFont->GetSafeHandle(), bRedraw); }

  000a1	6a 00		 push	 0
  000a3	ff 73 04	 push	 DWORD PTR [ebx+4]
  000a6	6a 30		 push	 48			; 00000030H
  000a8	ff b6 a0 00 00
	00		 push	 DWORD PTR [esi+160]
  000ae	ff d7		 call	 edi
  000b0	6a 00		 push	 0
  000b2	ff 73 04	 push	 DWORD PTR [ebx+4]
  000b5	6a 30		 push	 48			; 00000030H
  000b7	ff b6 20 01 00
	00		 push	 DWORD PTR [esi+288]
  000bd	ff d7		 call	 edi
$LN3@OnCreate:
; File D:\git\src\IBK\IBK_DRFN\ProjSrc\SrcDrfn\Chart\comparechart\control\XComboList.cpp

; 306  : }

  000bf	8b 4d fc	 mov	 ecx, DWORD PTR __$ArrayPad$[ebp]
  000c2	33 c0		 xor	 eax, eax
  000c4	5f		 pop	 edi
  000c5	5b		 pop	 ebx
  000c6	33 cd		 xor	 ecx, ebp
  000c8	5e		 pop	 esi
  000c9	e8 00 00 00 00	 call	 @__security_check_cookie@4
  000ce	8b e5		 mov	 esp, ebp
  000d0	5d		 pop	 ebp
  000d1	c2 04 00	 ret	 4
?OnCreate@CXComboList@@IAEHPAUtagCREATESTRUCTA@@@Z ENDP	; CXComboList::OnCreate
_TEXT	ENDS
; Function compile flags: /Ogtp
; File D:\git\src\IBK\IBK_DRFN\ProjSrc\SrcDrfn\Chart\comparechart\control\XComboList.cpp
; File C:\Program Files (x86)\Microsoft Visual Studio\2019\Community\VC\Tools\MSVC\14.29.30133\atlmfc\include\afxwin2.inl
; File D:\git\src\IBK\IBK_DRFN\ProjSrc\SrcDrfn\Chart\comparechart\control\XComboList.cpp
; File C:\Program Files (x86)\Microsoft Visual Studio\2019\Community\VC\Tools\MSVC\14.29.30133\atlmfc\include\afxwin2.inl
; File D:\git\src\IBK\IBK_DRFN\ProjSrc\SrcDrfn\Chart\comparechart\control\XComboList.cpp
;	COMDAT ?OnKillFocus@CXComboList@@IAEXPAVCWnd@@@Z
_TEXT	SEGMENT
_pNewWnd$ = 8						; size = 4
?OnKillFocus@CXComboList@@IAEXPAVCWnd@@@Z PROC		; CXComboList::OnKillFocus, COMDAT
; _this$ = ecx

; 269  : {

  00000	56		 push	 esi
  00001	8b f1		 mov	 esi, ecx
; File C:\Program Files (x86)\Microsoft Visual Studio\2019\Community\VC\Tools\MSVC\14.29.30133\atlmfc\include\afxwin2.inl

; 308  : 	{ Default(); }

  00003	e8 00 00 00 00	 call	 ?Default@CWnd@@IAEJXZ	; CWnd::Default
; File D:\git\src\IBK\IBK_DRFN\ProjSrc\SrcDrfn\Chart\comparechart\control\XComboList.cpp

; 273  : 	m_nCount++;

  00008	ff 86 84 01 00
	00		 inc	 DWORD PTR [esi+388]

; 274  : 	if (m_nCount > 2)

  0000e	83 be 84 01 00
	00 02		 cmp	 DWORD PTR [esi+388], 2
  00015	7e 1d		 jle	 SHORT $LN7@OnKillFocu

; 139  : 	CWnd *pWnd = m_pParent;

  00017	8b 86 80 01 00
	00		 mov	 eax, DWORD PTR [esi+384]

; 140  : 	if (pWnd)

  0001d	85 c0		 test	 eax, eax
  0001f	74 13		 je	 SHORT $LN7@OnKillFocu
; File C:\Program Files (x86)\Microsoft Visual Studio\2019\Community\VC\Tools\MSVC\14.29.30133\atlmfc\include\afxwin2.inl

; 32   : 	{ ASSERT(::IsWindow(m_hWnd)); return ::SendMessage(m_hWnd, message, wParam, lParam); }

  00021	6a 00		 push	 0
  00023	6a 00		 push	 0
  00025	ff 35 00 00 00
	00		 push	 DWORD PTR ?WM_XCOMBOLIST_VK_ESCAPE@@3IA ; WM_XCOMBOLIST_VK_ESCAPE
  0002b	ff 70 20	 push	 DWORD PTR [eax+32]
  0002e	ff 15 00 00 00
	00		 call	 DWORD PTR __imp__SendMessageA@16
$LN7@OnKillFocu:
  00034	5e		 pop	 esi
; File D:\git\src\IBK\IBK_DRFN\ProjSrc\SrcDrfn\Chart\comparechart\control\XComboList.cpp

; 278  : }

  00035	c2 04 00	 ret	 4
?OnKillFocus@CXComboList@@IAEXPAVCWnd@@@Z ENDP		; CXComboList::OnKillFocus
_TEXT	ENDS
; Function compile flags: /Ogtp
; File D:\git\src\IBK\IBK_DRFN\ProjSrc\SrcDrfn\Chart\comparechart\control\XComboList.cpp
; File C:\Program Files (x86)\Microsoft Visual Studio\2019\Community\VC\Tools\MSVC\14.29.30133\atlmfc\include\afxwin2.inl
; File D:\git\src\IBK\IBK_DRFN\ProjSrc\SrcDrfn\Chart\comparechart\control\XComboList.cpp
;	COMDAT ?OnLButtonDown@CXComboList@@IAEXIVCPoint@@@Z
_TEXT	SEGMENT
_nFlags$ = 8						; size = 4
_point$ = 12						; size = 8
?OnLButtonDown@CXComboList@@IAEXIVCPoint@@@Z PROC	; CXComboList::OnLButtonDown, COMDAT
; _this$ = ecx

; 147  : {

  00000	56		 push	 esi
  00001	8b f1		 mov	 esi, ecx

; 139  : 	CWnd *pWnd = m_pParent;

  00003	8b 86 80 01 00
	00		 mov	 eax, DWORD PTR [esi+384]

; 140  : 	if (pWnd)

  00009	85 c0		 test	 eax, eax
  0000b	74 13		 je	 SHORT $LN4@OnLButtonD
; File C:\Program Files (x86)\Microsoft Visual Studio\2019\Community\VC\Tools\MSVC\14.29.30133\atlmfc\include\afxwin2.inl

; 32   : 	{ ASSERT(::IsWindow(m_hWnd)); return ::SendMessage(m_hWnd, message, wParam, lParam); }

  0000d	6a 00		 push	 0
  0000f	6a 00		 push	 0
  00011	ff 35 00 00 00
	00		 push	 DWORD PTR ?WM_XCOMBOLIST_LBUTTONUP@@3IA ; WM_XCOMBOLIST_LBUTTONUP
  00017	ff 70 20	 push	 DWORD PTR [eax+32]
  0001a	ff 15 00 00 00
	00		 call	 DWORD PTR __imp__SendMessageA@16
$LN4@OnLButtonD:

; 434  : 	{ Default(); }

  00020	8b ce		 mov	 ecx, esi
  00022	e8 00 00 00 00	 call	 ?Default@CWnd@@IAEJXZ	; CWnd::Default
  00027	5e		 pop	 esi
; File D:\git\src\IBK\IBK_DRFN\ProjSrc\SrcDrfn\Chart\comparechart\control\XComboList.cpp

; 150  : }

  00028	c2 0c 00	 ret	 12			; 0000000cH
?OnLButtonDown@CXComboList@@IAEXIVCPoint@@@Z ENDP	; CXComboList::OnLButtonDown
_TEXT	ENDS
; Function compile flags: /Ogtp
; File D:\git\src\IBK\IBK_DRFN\ProjSrc\SrcDrfn\Chart\comparechart\control\XComboList.cpp
; File C:\Program Files (x86)\Microsoft Visual Studio\2019\Community\VC\Tools\MSVC\14.29.30133\atlmfc\include\afxwin2.inl
; File D:\git\src\IBK\IBK_DRFN\ProjSrc\SrcDrfn\Chart\comparechart\control\XComboList.cpp
;	COMDAT ?SendRegisteredMessage@CXComboList@@IAEXIIJ@Z
_TEXT	SEGMENT
_nMsg$ = 8						; size = 4
_wParam$ = 12						; size = 4
_lParam$ = 16						; size = 4
?SendRegisteredMessage@CXComboList@@IAEXIIJ@Z PROC	; CXComboList::SendRegisteredMessage, COMDAT
; _this$ = ecx

; 138  : {

  00000	55		 push	 ebp
  00001	8b ec		 mov	 ebp, esp

; 139  : 	CWnd *pWnd = m_pParent;

  00003	8b 81 80 01 00
	00		 mov	 eax, DWORD PTR [ecx+384]

; 140  : 	if (pWnd)

  00009	85 c0		 test	 eax, eax
  0000b	74 12		 je	 SHORT $LN2@SendRegist
; File C:\Program Files (x86)\Microsoft Visual Studio\2019\Community\VC\Tools\MSVC\14.29.30133\atlmfc\include\afxwin2.inl

; 32   : 	{ ASSERT(::IsWindow(m_hWnd)); return ::SendMessage(m_hWnd, message, wParam, lParam); }

  0000d	ff 75 10	 push	 DWORD PTR _lParam$[ebp]
  00010	ff 75 0c	 push	 DWORD PTR _wParam$[ebp]
  00013	ff 75 08	 push	 DWORD PTR _nMsg$[ebp]
  00016	ff 70 20	 push	 DWORD PTR [eax+32]
  00019	ff 15 00 00 00
	00		 call	 DWORD PTR __imp__SendMessageA@16
$LN2@SendRegist:
; File D:\git\src\IBK\IBK_DRFN\ProjSrc\SrcDrfn\Chart\comparechart\control\XComboList.cpp

; 142  : }

  0001f	5d		 pop	 ebp
  00020	c2 0c 00	 ret	 12			; 0000000cH
?SendRegisteredMessage@CXComboList@@IAEXIIJ@Z ENDP	; CXComboList::SendRegisteredMessage
_TEXT	ENDS
; Function compile flags: /Ogtp
; File D:\git\src\IBK\IBK_DRFN\ProjSrc\SrcDrfn\Chart\comparechart\control\XComboList.cpp
;	COMDAT ?GetScrollBarCtrl@CXComboList@@UAEPAVCScrollBar@@H@Z
_TEXT	SEGMENT
_nBar$ = 8						; size = 4
?GetScrollBarCtrl@CXComboList@@UAEPAVCScrollBar@@H@Z PROC ; CXComboList::GetScrollBarCtrl, COMDAT
; _this$ = ecx

; 131  : 	UNUSED_ALWAYS(nBar);
; 132  : 	return &m_wndSBVert;

  00000	8d 81 00 01 00
	00		 lea	 eax, DWORD PTR [ecx+256]

; 133  : }

  00006	c2 04 00	 ret	 4
?GetScrollBarCtrl@CXComboList@@UAEPAVCScrollBar@@H@Z ENDP ; CXComboList::GetScrollBarCtrl
_TEXT	ENDS
; Function compile flags: /Ogtp
; File D:\git\src\IBK\IBK_DRFN\ProjSrc\SrcDrfn\Chart\comparechart\control\XComboList.cpp
; File C:\Program Files (x86)\Microsoft Visual Studio\2019\Community\VC\Tools\MSVC\14.29.30133\atlmfc\include\afxwin2.inl
; File D:\git\src\IBK\IBK_DRFN\ProjSrc\SrcDrfn\Chart\comparechart\control\XComboList.cpp
; File C:\Program Files (x86)\Microsoft Visual Studio\2019\Community\VC\Tools\MSVC\14.29.30133\atlmfc\include\afxwin2.inl
; File D:\git\src\IBK\IBK_DRFN\ProjSrc\SrcDrfn\Chart\comparechart\control\XComboList.cpp
; File C:\Program Files (x86)\Microsoft Visual Studio\2019\Community\VC\Tools\MSVC\14.29.30133\atlmfc\include\afxwin2.inl
; File D:\git\src\IBK\IBK_DRFN\ProjSrc\SrcDrfn\Chart\comparechart\control\XComboList.cpp
; File C:\Program Files (x86)\Microsoft Visual Studio\2019\Community\VC\Tools\MSVC\14.29.30133\atlmfc\include\afxwin2.inl
; File D:\git\src\IBK\IBK_DRFN\ProjSrc\SrcDrfn\Chart\comparechart\control\XComboList.cpp
; File C:\Program Files (x86)\Microsoft Visual Studio\2019\Community\VC\Tools\MSVC\14.29.30133\atlmfc\include\afxwin2.inl
; File D:\git\src\IBK\IBK_DRFN\ProjSrc\SrcDrfn\Chart\comparechart\control\XComboList.cpp
; File C:\Program Files (x86)\Microsoft Visual Studio\2019\Community\VC\Tools\MSVC\14.29.30133\atlmfc\include\afxwin2.inl
; File D:\git\src\IBK\IBK_DRFN\ProjSrc\SrcDrfn\Chart\comparechart\control\XComboList.cpp
; File C:\Program Files (x86)\Microsoft Visual Studio\2019\Community\VC\Tools\MSVC\14.29.30133\atlmfc\include\afxwin2.inl
; File D:\git\src\IBK\IBK_DRFN\ProjSrc\SrcDrfn\Chart\comparechart\control\XComboList.cpp
; File C:\Program Files (x86)\Microsoft Visual Studio\2019\Community\VC\Tools\MSVC\14.29.30133\atlmfc\include\afxwin2.inl
; File D:\git\src\IBK\IBK_DRFN\ProjSrc\SrcDrfn\Chart\comparechart\control\XComboList.cpp
; File C:\Program Files (x86)\Microsoft Visual Studio\2019\Community\VC\Tools\MSVC\14.29.30133\atlmfc\include\afxwin2.inl
; File D:\git\src\IBK\IBK_DRFN\ProjSrc\SrcDrfn\Chart\comparechart\control\XComboList.cpp
; File C:\Program Files (x86)\Microsoft Visual Studio\2019\Community\VC\Tools\MSVC\14.29.30133\atlmfc\include\afxwin2.inl
; File D:\git\src\IBK\IBK_DRFN\ProjSrc\SrcDrfn\Chart\comparechart\control\XComboList.cpp
; File C:\Program Files (x86)\Microsoft Visual Studio\2019\Community\VC\Tools\MSVC\14.29.30133\atlmfc\include\afxwin2.inl
; File D:\git\src\IBK\IBK_DRFN\ProjSrc\SrcDrfn\Chart\comparechart\control\XComboList.cpp
; File C:\Program Files (x86)\Microsoft Visual Studio\2019\Community\VC\Tools\MSVC\14.29.30133\atlmfc\include\afxwin2.inl
; File D:\git\src\IBK\IBK_DRFN\ProjSrc\SrcDrfn\Chart\comparechart\control\XComboList.cpp
; File C:\Program Files (x86)\Microsoft Visual Studio\2019\Community\VC\Tools\MSVC\14.29.30133\atlmfc\include\afxwin2.inl
; File D:\git\src\IBK\IBK_DRFN\ProjSrc\SrcDrfn\Chart\comparechart\control\XComboList.cpp
; File C:\Program Files (x86)\Microsoft Visual Studio\2019\Community\VC\Tools\MSVC\14.29.30133\atlmfc\include\afxwin2.inl
; File D:\git\src\IBK\IBK_DRFN\ProjSrc\SrcDrfn\Chart\comparechart\control\XComboList.cpp
; File C:\Program Files (x86)\Microsoft Visual Studio\2019\Community\VC\Tools\MSVC\14.29.30133\atlmfc\include\afxwin2.inl
; File D:\git\src\IBK\IBK_DRFN\ProjSrc\SrcDrfn\Chart\comparechart\control\XComboList.cpp
;	COMDAT ?PreTranslateMessage@CXComboList@@UAEHPAUtagMSG@@@Z
_TEXT	SEGMENT
_pMsg$GSCopy$1$ = -52					; size = 4
_strAlpha$2 = -48					; size = 4
_si$3 = -44						; size = 28
__$ArrayPad$ = -16					; size = 4
__$EHRec$ = -12						; size = 12
_pMsg$ = 8						; size = 4
?PreTranslateMessage@CXComboList@@UAEHPAUtagMSG@@@Z PROC ; CXComboList::PreTranslateMessage, COMDAT
; _this$ = ecx

; 155  : {

  00000	55		 push	 ebp
  00001	8b ec		 mov	 ebp, esp
  00003	6a ff		 push	 -1
  00005	68 00 00 00 00	 push	 __ehhandler$?PreTranslateMessage@CXComboList@@UAEHPAUtagMSG@@@Z
  0000a	64 a1 00 00 00
	00		 mov	 eax, DWORD PTR fs:0
  00010	50		 push	 eax
  00011	83 ec 28	 sub	 esp, 40			; 00000028H
  00014	a1 00 00 00 00	 mov	 eax, DWORD PTR ___security_cookie
  00019	33 c5		 xor	 eax, ebp
  0001b	89 45 f0	 mov	 DWORD PTR __$ArrayPad$[ebp], eax
  0001e	56		 push	 esi
  0001f	57		 push	 edi
  00020	50		 push	 eax
  00021	8d 45 f4	 lea	 eax, DWORD PTR __$EHRec$[ebp]
  00024	64 a3 00 00 00
	00		 mov	 DWORD PTR fs:0, eax
  0002a	8b f9		 mov	 edi, ecx
  0002c	8b 45 08	 mov	 eax, DWORD PTR _pMsg$[ebp]
  0002f	89 45 cc	 mov	 DWORD PTR _pMsg$GSCopy$1$[ebp], eax

; 156  : 	switch (pMsg->message)

  00032	8b 40 04	 mov	 eax, DWORD PTR [eax+4]
  00035	3d 00 01 00 00	 cmp	 eax, 256		; 00000100H
  0003a	74 31		 je	 SHORT $LN6@PreTransla
  0003c	3d 02 02 00 00	 cmp	 eax, 514		; 00000202H
  00041	0f 85 ea 01 00
	00		 jne	 $LN22@PreTransla

; 139  : 	CWnd *pWnd = m_pParent;

  00047	8b 87 80 01 00
	00		 mov	 eax, DWORD PTR [edi+384]

; 140  : 	if (pWnd)

  0004d	85 c0		 test	 eax, eax
  0004f	0f 84 dc 01 00
	00		 je	 $LN22@PreTransla
; File C:\Program Files (x86)\Microsoft Visual Studio\2019\Community\VC\Tools\MSVC\14.29.30133\atlmfc\include\afxwin2.inl

; 32   : 	{ ASSERT(::IsWindow(m_hWnd)); return ::SendMessage(m_hWnd, message, wParam, lParam); }

  00055	6a 00		 push	 0
  00057	6a 00		 push	 0
  00059	ff 35 00 00 00
	00		 push	 DWORD PTR ?WM_XCOMBOLIST_LBUTTONUP@@3IA ; WM_XCOMBOLIST_LBUTTONUP
  0005f	ff 70 20	 push	 DWORD PTR [eax+32]
  00062	ff 15 00 00 00
	00		 call	 DWORD PTR __imp__SendMessageA@16
  00068	e9 c4 01 00 00	 jmp	 $LN22@PreTransla
$LN6@PreTransla:

; 966  : 	{ return CWnd::GetScrollInfo(SB_CTL, lpScrollInfo, nMask); }

  0006d	6a 17		 push	 23			; 00000017H
  0006f	8d 4d d4	 lea	 ecx, DWORD PTR _si$3[ebp]
; File D:\git\src\IBK\IBK_DRFN\ProjSrc\SrcDrfn\Chart\comparechart\control\XComboList.cpp

; 169  : 				sizeof(SCROLLINFO),

  00072	c7 45 d4 1c 00
	00 00		 mov	 DWORD PTR _si$3[ebp], 28 ; 0000001cH
; File C:\Program Files (x86)\Microsoft Visual Studio\2019\Community\VC\Tools\MSVC\14.29.30133\atlmfc\include\afxwin2.inl

; 966  : 	{ return CWnd::GetScrollInfo(SB_CTL, lpScrollInfo, nMask); }

  00079	51		 push	 ecx
  0007a	0f 57 c0	 xorps	 xmm0, xmm0
; File D:\git\src\IBK\IBK_DRFN\ProjSrc\SrcDrfn\Chart\comparechart\control\XComboList.cpp

; 170  : 				SIF_ALL | SIF_DISABLENOSCROLL,

  0007d	c7 45 d8 1f 00
	00 00		 mov	 DWORD PTR _si$3[ebp+4], 31 ; 0000001fH
; File C:\Program Files (x86)\Microsoft Visual Studio\2019\Community\VC\Tools\MSVC\14.29.30133\atlmfc\include\afxwin2.inl

; 966  : 	{ return CWnd::GetScrollInfo(SB_CTL, lpScrollInfo, nMask); }

  00084	6a 02		 push	 2
  00086	8d 8f 00 01 00
	00		 lea	 ecx, DWORD PTR [edi+256]
; File D:\git\src\IBK\IBK_DRFN\ProjSrc\SrcDrfn\Chart\comparechart\control\XComboList.cpp

; 170  : 				SIF_ALL | SIF_DISABLENOSCROLL,

  0008c	c7 45 ec 00 00
	00 00		 mov	 DWORD PTR _si$3[ebp+24], 0
  00093	0f 11 45 dc	 movups	 XMMWORD PTR _si$3[ebp+8], xmm0
; File C:\Program Files (x86)\Microsoft Visual Studio\2019\Community\VC\Tools\MSVC\14.29.30133\atlmfc\include\afxwin2.inl

; 966  : 	{ return CWnd::GetScrollInfo(SB_CTL, lpScrollInfo, nMask); }

  00097	e8 00 00 00 00	 call	 ?GetScrollInfo@CWnd@@QAEHHPAUtagSCROLLINFO@@I@Z ; CWnd::GetScrollInfo
; File D:\git\src\IBK\IBK_DRFN\ProjSrc\SrcDrfn\Chart\comparechart\control\XComboList.cpp

; 175  : 			if (::IsWindow(m_ListBox.m_hWnd))

  0009c	ff b7 a0 00 00
	00		 push	 DWORD PTR [edi+160]
  000a2	33 f6		 xor	 esi, esi
  000a4	ff 15 00 00 00
	00		 call	 DWORD PTR __imp__IsWindow@4
  000aa	8b 0d 00 00 00
	00		 mov	 ecx, DWORD PTR __imp__SendMessageA@16
  000b0	85 c0		 test	 eax, eax
  000b2	74 22		 je	 SHORT $LN8@PreTransla
; File C:\Program Files (x86)\Microsoft Visual Studio\2019\Community\VC\Tools\MSVC\14.29.30133\atlmfc\include\afxwin2.inl

; 666  : 	{ ASSERT(::IsWindow(m_hWnd)); return (int)::SendMessage(m_hWnd, LB_GETCURSEL, 0, 0); }

  000b4	56		 push	 esi
  000b5	56		 push	 esi
  000b6	68 88 01 00 00	 push	 392			; 00000188H
  000bb	ff b7 a0 00 00
	00		 push	 DWORD PTR [edi+160]
  000c1	ff d1		 call	 ecx
; File D:\git\src\IBK\IBK_DRFN\ProjSrc\SrcDrfn\Chart\comparechart\control\XComboList.cpp

; 176  : 				nIndex = m_ListBox.GetCurSel();

  000c3	8b f0		 mov	 esi, eax

; 177  : 			if (nIndex == LB_ERR || nIndex < 0)

  000c5	83 fe ff	 cmp	 esi, -1
  000c8	74 04		 je	 SHORT $LN9@PreTransla
  000ca	85 f6		 test	 esi, esi
  000cc	79 02		 jns	 SHORT $LN64@PreTransla
$LN9@PreTransla:

; 178  : 				nIndex = 0;

  000ce	33 f6		 xor	 esi, esi
$LN64@PreTransla:

; 179  : 
; 180  : 			// use index from listbox, because scroll position cannot be relied
; 181  : 			// upon here
; 182  : 
; 183  : 			switch (pMsg->wParam)

  000d0	8b 0d 00 00 00
	00		 mov	 ecx, DWORD PTR __imp__SendMessageA@16
$LN8@PreTransla:
  000d6	8b 55 cc	 mov	 edx, DWORD PTR _pMsg$GSCopy$1$[ebp]
  000d9	8b 52 08	 mov	 edx, DWORD PTR [edx+8]
  000dc	8d 42 f3	 lea	 eax, DWORD PTR [edx-13]
  000df	83 f8 1b	 cmp	 eax, 27			; 0000001bH
  000e2	0f 87 87 00 00
	00		 ja	 $LN18@PreTransla
  000e8	0f b6 80 00 00
	00 00		 movzx	 eax, BYTE PTR $LN61@PreTransla[eax]
  000ef	ff 24 85 00 00
	00 00		 jmp	 DWORD PTR $LN62@PreTransla[eax*4]
$LN10@PreTransla:

; 139  : 	CWnd *pWnd = m_pParent;

  000f6	8b 87 80 01 00
	00		 mov	 eax, DWORD PTR [edi+384]

; 140  : 	if (pWnd)

  000fc	85 c0		 test	 eax, eax
  000fe	0f 84 2d 01 00
	00		 je	 $LN22@PreTransla
; File C:\Program Files (x86)\Microsoft Visual Studio\2019\Community\VC\Tools\MSVC\14.29.30133\atlmfc\include\afxwin2.inl

; 32   : 	{ ASSERT(::IsWindow(m_hWnd)); return ::SendMessage(m_hWnd, message, wParam, lParam); }

  00104	6a 00		 push	 0
  00106	6a 00		 push	 0
  00108	ff 35 00 00 00
	00		 push	 DWORD PTR ?WM_XCOMBOLIST_VK_RETURN@@3IA ; WM_XCOMBOLIST_VK_RETURN
  0010e	ff 70 20	 push	 DWORD PTR [eax+32]
  00111	ff d1		 call	 ecx
; File D:\git\src\IBK\IBK_DRFN\ProjSrc\SrcDrfn\Chart\comparechart\control\XComboList.cpp

; 187  : 					break;

  00113	e9 19 01 00 00	 jmp	 $LN22@PreTransla
$LN11@PreTransla:

; 139  : 	CWnd *pWnd = m_pParent;

  00118	8b 87 80 01 00
	00		 mov	 eax, DWORD PTR [edi+384]

; 140  : 	if (pWnd)

  0011e	85 c0		 test	 eax, eax
  00120	0f 84 0b 01 00
	00		 je	 $LN22@PreTransla
; File C:\Program Files (x86)\Microsoft Visual Studio\2019\Community\VC\Tools\MSVC\14.29.30133\atlmfc\include\afxwin2.inl

; 32   : 	{ ASSERT(::IsWindow(m_hWnd)); return ::SendMessage(m_hWnd, message, wParam, lParam); }

  00126	6a 00		 push	 0
  00128	6a 00		 push	 0
  0012a	ff 35 00 00 00
	00		 push	 DWORD PTR ?WM_XCOMBOLIST_VK_ESCAPE@@3IA ; WM_XCOMBOLIST_VK_ESCAPE
  00130	ff 70 20	 push	 DWORD PTR [eax+32]
  00133	ff d1		 call	 ecx
; File D:\git\src\IBK\IBK_DRFN\ProjSrc\SrcDrfn\Chart\comparechart\control\XComboList.cpp

; 191  : 					break;

  00135	e9 f7 00 00 00	 jmp	 $LN22@PreTransla
$LN13@PreTransla:

; 192  : 
; 193  : 				// handle scrolling messages
; 194  : 				case VK_DOWN:
; 195  : 					si.nPos = nIndex + 1;
; 196  : 					bSetScrollInfo = TRUE;
; 197  : 					break;
; 198  : 
; 199  : 				case VK_END:
; 200  : 					si.nPos = si.nMax;

  0013a	8b 75 e0	 mov	 esi, DWORD PTR _si$3[ebp+12]
  0013d	89 75 e8	 mov	 DWORD PTR _si$3[ebp+20], esi

; 201  : 					bSetScrollInfo = TRUE;
; 202  : 					break;

  00140	e9 a8 00 00 00	 jmp	 $LN59@PreTransla
$LN14@PreTransla:

; 203  : 
; 204  : 				case VK_HOME:
; 205  : 					si.nPos = 0;

  00145	33 f6		 xor	 esi, esi
  00147	89 75 e8	 mov	 DWORD PTR _si$3[ebp+20], esi

; 206  : 					bSetScrollInfo = TRUE;
; 207  : 					break;

  0014a	e9 9e 00 00 00	 jmp	 $LN59@PreTransla
$LN15@PreTransla:

; 208  : 
; 209  : 				case VK_NEXT:			// PAGE DOWN
; 210  : 					si.nPos = nIndex + (si.nPage-1);

  0014f	8b 45 e4	 mov	 eax, DWORD PTR _si$3[ebp+16]
  00152	48		 dec	 eax
  00153	03 f0		 add	 esi, eax
  00155	89 75 e8	 mov	 DWORD PTR _si$3[ebp+20], esi

; 211  : 					bSetScrollInfo = TRUE;
; 212  : 					break;

  00158	e9 90 00 00 00	 jmp	 $LN59@PreTransla
$LN16@PreTransla:

; 213  : 
; 214  : 				case VK_PRIOR:			// PAGE UP
; 215  : 					si.nPos = nIndex - (si.nPage - 1);

  0015d	2b 75 e4	 sub	 esi, DWORD PTR _si$3[ebp+16]
$LN12@PreTransla:

; 139  : 	CWnd *pWnd = m_pParent;

  00160	46		 inc	 esi
  00161	89 75 e8	 mov	 DWORD PTR _si$3[ebp+20], esi
  00164	e9 84 00 00 00	 jmp	 $LN59@PreTransla
$LN17@PreTransla:

; 216  : 					bSetScrollInfo = TRUE;
; 217  : 					break;
; 218  : 
; 219  : 				case VK_UP:
; 220  : 					si.nPos = nIndex - 1;

  00169	4e		 dec	 esi
  0016a	89 75 e8	 mov	 DWORD PTR _si$3[ebp+20], esi

; 221  : 					bSetScrollInfo = TRUE;
; 222  : 					break;

  0016d	eb 7e		 jmp	 SHORT $LN59@PreTransla
$LN18@PreTransla:

; 223  : 
; 224  : 				default:
; 225  : 					if (pMsg->wParam >= 0x41/*VK_A*/ && pMsg->wParam <= 0x5A/*VK_Z*/)

  0016f	83 fa 41	 cmp	 edx, 65			; 00000041H
  00172	0f 82 b9 00 00
	00		 jb	 $LN22@PreTransla
  00178	83 fa 5a	 cmp	 edx, 90			; 0000005aH
  0017b	0f 87 b0 00 00
	00		 ja	 $LN22@PreTransla

; 226  : 					{
; 227  : 						// this was an alpha key - try to find listbox index
; 228  : 						CString strAlpha;

  00181	8d 4d d0	 lea	 ecx, DWORD PTR _strAlpha$2[ebp]
  00184	ff 15 00 00 00
	00		 call	 DWORD PTR __imp_??0?$CStringT@DV?$StrTraitMFC_DLL@DV?$ChTraitsCRT@D@ATL@@@@@ATL@@QAE@XZ

; 229  : 						strAlpha = (_TCHAR) pMsg->wParam;

  0018a	8b 45 cc	 mov	 eax, DWORD PTR _pMsg$GSCopy$1$[ebp]
  0018d	8d 4d d0	 lea	 ecx, DWORD PTR _strAlpha$2[ebp]
  00190	c7 45 fc 00 00
	00 00		 mov	 DWORD PTR __$EHRec$[ebp+8], 0
  00197	0f b6 40 08	 movzx	 eax, BYTE PTR [eax+8]
  0019b	50		 push	 eax
  0019c	ff 15 00 00 00
	00		 call	 DWORD PTR __imp_??4?$CStringT@DV?$StrTraitMFC_DLL@DV?$ChTraitsCRT@D@ATL@@@@@ATL@@QAEAAV01@D@Z

; 230  : 						int nIndex2 = 0;
; 231  : 						if (::IsWindow(m_ListBox.m_hWnd))

  001a2	ff b7 a0 00 00
	00		 push	 DWORD PTR [edi+160]
  001a8	ff 15 00 00 00
	00		 call	 DWORD PTR __imp__IsWindow@4
  001ae	85 c0		 test	 eax, eax
  001b0	74 1e		 je	 SHORT $LN63@PreTransla
; File C:\Program Files (x86)\Microsoft Visual Studio\2019\Community\VC\Tools\MSVC\14.29.30133\atlmfc\include\afxwin2.inl

; 735  : 	{ ASSERT(::IsWindow(m_hWnd)); return (int)::SendMessage(m_hWnd, LB_FINDSTRING,

  001b2	ff 75 d0	 push	 DWORD PTR _strAlpha$2[ebp]
  001b5	56		 push	 esi
  001b6	68 8f 01 00 00	 push	 399			; 0000018fH
  001bb	ff b7 a0 00 00
	00		 push	 DWORD PTR [edi+160]
  001c1	ff 15 00 00 00
	00		 call	 DWORD PTR __imp__SendMessageA@16
; File D:\git\src\IBK\IBK_DRFN\ProjSrc\SrcDrfn\Chart\comparechart\control\XComboList.cpp

; 232  : 							nIndex2 = m_ListBox.FindString(nIndex, strAlpha);

  001c7	8b f0		 mov	 esi, eax

; 233  : 						if (nIndex2 != LB_ERR)

  001c9	83 fe ff	 cmp	 esi, -1
  001cc	74 07		 je	 SHORT $LN21@PreTransla

; 230  : 						int nIndex2 = 0;
; 231  : 						if (::IsWindow(m_ListBox.m_hWnd))

  001ce	eb 02		 jmp	 SHORT $LN60@PreTransla
$LN63@PreTransla:
  001d0	33 f6		 xor	 esi, esi
$LN60@PreTransla:

; 234  : 						{
; 235  : 							si.nPos = nIndex2;

  001d2	89 75 e8	 mov	 DWORD PTR _si$3[ebp+20], esi
$LN21@PreTransla:

; 236  : 							bSetScrollInfo = TRUE;
; 237  : 						}
; 238  : 					}

  001d5	8d 4d d0	 lea	 ecx, DWORD PTR _strAlpha$2[ebp]
  001d8	c7 45 fc ff ff
	ff ff		 mov	 DWORD PTR __$EHRec$[ebp+8], -1
  001df	ff 15 00 00 00
	00		 call	 DWORD PTR __imp_??1?$CStringT@DV?$StrTraitMFC_DLL@DV?$ChTraitsCRT@D@ATL@@@@@ATL@@QAE@XZ

; 239  : 					break;
; 240  : 			}
; 241  : 
; 242  : 			if (bSetScrollInfo)

  001e5	83 fe ff	 cmp	 esi, -1
  001e8	74 47		 je	 SHORT $LN22@PreTransla
  001ea	8b 75 e8	 mov	 esi, DWORD PTR _si$3[ebp+20]
$LN59@PreTransla:

; 139  : 	CWnd *pWnd = m_pParent;

  001ed	8b 87 80 01 00
	00		 mov	 eax, DWORD PTR [edi+384]

; 140  : 	if (pWnd)

  001f3	85 c0		 test	 eax, eax
  001f5	74 16		 je	 SHORT $LN47@PreTransla
; File C:\Program Files (x86)\Microsoft Visual Studio\2019\Community\VC\Tools\MSVC\14.29.30133\atlmfc\include\afxwin2.inl

; 32   : 	{ ASSERT(::IsWindow(m_hWnd)); return ::SendMessage(m_hWnd, message, wParam, lParam); }

  001f7	6a 00		 push	 0
  001f9	6a 00		 push	 0
  001fb	ff 35 00 00 00
	00		 push	 DWORD PTR ?WM_XCOMBOLIST_KEYDOWN@@3IA ; WM_XCOMBOLIST_KEYDOWN
  00201	ff 70 20	 push	 DWORD PTR [eax+32]
  00204	ff 15 00 00 00
	00		 call	 DWORD PTR __imp__SendMessageA@16
  0020a	8b 75 e8	 mov	 esi, DWORD PTR _si$3[ebp+20]
$LN47@PreTransla:
; File D:\git\src\IBK\IBK_DRFN\ProjSrc\SrcDrfn\Chart\comparechart\control\XComboList.cpp

; 248  : 				if (si.nPos < 0)

  0020d	33 c0		 xor	 eax, eax
; File C:\Program Files (x86)\Microsoft Visual Studio\2019\Community\VC\Tools\MSVC\14.29.30133\atlmfc\include\afxwin2.inl

; 964  : 	{ return CWnd::SetScrollInfo(SB_CTL, lpScrollInfo, bRedraw); }

  0020f	8d 8f 00 01 00
	00		 lea	 ecx, DWORD PTR [edi+256]
; File D:\git\src\IBK\IBK_DRFN\ProjSrc\SrcDrfn\Chart\comparechart\control\XComboList.cpp

; 248  : 				if (si.nPos < 0)

  00215	85 f6		 test	 esi, esi
; File C:\Program Files (x86)\Microsoft Visual Studio\2019\Community\VC\Tools\MSVC\14.29.30133\atlmfc\include\afxwin2.inl

; 964  : 	{ return CWnd::SetScrollInfo(SB_CTL, lpScrollInfo, bRedraw); }

  00217	6a 01		 push	 1
; File D:\git\src\IBK\IBK_DRFN\ProjSrc\SrcDrfn\Chart\comparechart\control\XComboList.cpp

; 248  : 				if (si.nPos < 0)

  00219	0f 48 f0	 cmovs	 esi, eax
; File C:\Program Files (x86)\Microsoft Visual Studio\2019\Community\VC\Tools\MSVC\14.29.30133\atlmfc\include\afxwin2.inl

; 964  : 	{ return CWnd::SetScrollInfo(SB_CTL, lpScrollInfo, bRedraw); }

  0021c	8d 45 d4	 lea	 eax, DWORD PTR _si$3[ebp]
; File D:\git\src\IBK\IBK_DRFN\ProjSrc\SrcDrfn\Chart\comparechart\control\XComboList.cpp

; 250  : 				if (si.nPos > si.nMax)

  0021f	3b 75 e0	 cmp	 esi, DWORD PTR _si$3[ebp+12]
; File C:\Program Files (x86)\Microsoft Visual Studio\2019\Community\VC\Tools\MSVC\14.29.30133\atlmfc\include\afxwin2.inl

; 964  : 	{ return CWnd::SetScrollInfo(SB_CTL, lpScrollInfo, bRedraw); }

  00222	50		 push	 eax
; File D:\git\src\IBK\IBK_DRFN\ProjSrc\SrcDrfn\Chart\comparechart\control\XComboList.cpp

; 250  : 				if (si.nPos > si.nMax)

  00223	0f 4f 75 e0	 cmovg	 esi, DWORD PTR _si$3[ebp+12]
; File C:\Program Files (x86)\Microsoft Visual Studio\2019\Community\VC\Tools\MSVC\14.29.30133\atlmfc\include\afxwin2.inl

; 964  : 	{ return CWnd::SetScrollInfo(SB_CTL, lpScrollInfo, bRedraw); }

  00227	6a 02		 push	 2
; File D:\git\src\IBK\IBK_DRFN\ProjSrc\SrcDrfn\Chart\comparechart\control\XComboList.cpp

; 250  : 				if (si.nPos > si.nMax)

  00229	89 75 e8	 mov	 DWORD PTR _si$3[ebp+20], esi
; File C:\Program Files (x86)\Microsoft Visual Studio\2019\Community\VC\Tools\MSVC\14.29.30133\atlmfc\include\afxwin2.inl

; 964  : 	{ return CWnd::SetScrollInfo(SB_CTL, lpScrollInfo, bRedraw); }

  0022c	e8 00 00 00 00	 call	 ?SetScrollInfo@CWnd@@QAEHHPAUtagSCROLLINFO@@H@Z ; CWnd::SetScrollInfo
$LN22@PreTransla:
; File D:\git\src\IBK\IBK_DRFN\ProjSrc\SrcDrfn\Chart\comparechart\control\XComboList.cpp

; 263  : 	return CWnd::PreTranslateMessage(pMsg);

  00231	ff 75 cc	 push	 DWORD PTR _pMsg$GSCopy$1$[ebp]
  00234	8b cf		 mov	 ecx, edi
  00236	e8 00 00 00 00	 call	 ?PreTranslateMessage@CWnd@@UAEHPAUtagMSG@@@Z ; CWnd::PreTranslateMessage

; 264  : }

  0023b	8b 4d f4	 mov	 ecx, DWORD PTR __$EHRec$[ebp]
  0023e	64 89 0d 00 00
	00 00		 mov	 DWORD PTR fs:0, ecx
  00245	59		 pop	 ecx
  00246	5f		 pop	 edi
  00247	5e		 pop	 esi
  00248	8b 4d f0	 mov	 ecx, DWORD PTR __$ArrayPad$[ebp]
  0024b	33 cd		 xor	 ecx, ebp
  0024d	e8 00 00 00 00	 call	 @__security_check_cookie@4
  00252	8b e5		 mov	 esp, ebp
  00254	5d		 pop	 ebp
  00255	c2 04 00	 ret	 4
$LN62@PreTransla:
  00258	00 00 00 00	 DD	 $LN10@PreTransla
  0025c	00 00 00 00	 DD	 $LN11@PreTransla
  00260	00 00 00 00	 DD	 $LN16@PreTransla
  00264	00 00 00 00	 DD	 $LN15@PreTransla
  00268	00 00 00 00	 DD	 $LN13@PreTransla
  0026c	00 00 00 00	 DD	 $LN14@PreTransla
  00270	00 00 00 00	 DD	 $LN17@PreTransla
  00274	00 00 00 00	 DD	 $LN12@PreTransla
  00278	00 00 00 00	 DD	 $LN18@PreTransla
$LN61@PreTransla:
  0027c	00		 DB	 0
  0027d	08		 DB	 8
  0027e	08		 DB	 8
  0027f	08		 DB	 8
  00280	08		 DB	 8
  00281	08		 DB	 8
  00282	08		 DB	 8
  00283	08		 DB	 8
  00284	08		 DB	 8
  00285	08		 DB	 8
  00286	08		 DB	 8
  00287	08		 DB	 8
  00288	08		 DB	 8
  00289	08		 DB	 8
  0028a	01		 DB	 1
  0028b	08		 DB	 8
  0028c	08		 DB	 8
  0028d	08		 DB	 8
  0028e	08		 DB	 8
  0028f	08		 DB	 8
  00290	02		 DB	 2
  00291	03		 DB	 3
  00292	04		 DB	 4
  00293	05		 DB	 5
  00294	08		 DB	 8
  00295	06		 DB	 6
  00296	08		 DB	 8
  00297	07		 DB	 7
_TEXT	ENDS
;	COMDAT text$x
text$x	SEGMENT
__unwindfunclet$?PreTranslateMessage@CXComboList@@UAEHPAUtagMSG@@@Z$0:
  00000	8d 4d d0	 lea	 ecx, DWORD PTR _strAlpha$2[ebp]
  00003	ff 25 00 00 00
	00		 jmp	 DWORD PTR __imp_??1?$CStringT@DV?$StrTraitMFC_DLL@DV?$ChTraitsCRT@D@ATL@@@@@ATL@@QAE@XZ
  00009	cc		 int	 3
  0000a	cc		 int	 3
  0000b	cc		 int	 3
  0000c	cc		 int	 3
  0000d	cc		 int	 3
__ehhandler$?PreTranslateMessage@CXComboList@@UAEHPAUtagMSG@@@Z:
  0000e	90		 npad	 1
  0000f	90		 npad	 1
  00010	8b 54 24 08	 mov	 edx, DWORD PTR [esp+8]
  00014	8d 42 0c	 lea	 eax, DWORD PTR [edx+12]
  00017	8b 4a cc	 mov	 ecx, DWORD PTR [edx-52]
  0001a	33 c8		 xor	 ecx, eax
  0001c	e8 00 00 00 00	 call	 @__security_check_cookie@4
  00021	8b 4a fc	 mov	 ecx, DWORD PTR [edx-4]
  00024	33 c8		 xor	 ecx, eax
  00026	e8 00 00 00 00	 call	 @__security_check_cookie@4
  0002b	b8 00 00 00 00	 mov	 eax, OFFSET __ehfuncinfo$?PreTranslateMessage@CXComboList@@UAEHPAUtagMSG@@@Z
  00030	e9 00 00 00 00	 jmp	 ___CxxFrameHandler3
text$x	ENDS
?PreTranslateMessage@CXComboList@@UAEHPAUtagMSG@@@Z ENDP ; CXComboList::PreTranslateMessage
; Function compile flags: /Ogtp
; File D:\git\src\IBK\IBK_DRFN\ProjSrc\SrcDrfn\Chart\comparechart\control\XComboList.cpp
; File C:\Program Files (x86)\Microsoft Visual Studio\2019\Community\VC\Tools\MSVC\14.29.30133\atlmfc\include\afxwin2.inl
; File D:\git\src\IBK\IBK_DRFN\ProjSrc\SrcDrfn\Chart\comparechart\control\XComboList.cpp
; File C:\Program Files (x86)\Microsoft Visual Studio\2019\Community\VC\Tools\MSVC\14.29.30133\atlmfc\include\afxwin2.inl
; File C:\Program Files (x86)\Microsoft Visual Studio\2019\Community\VC\Tools\MSVC\14.29.30133\atlmfc\include\atltypes.h
; File C:\Program Files (x86)\Microsoft Visual Studio\2019\Community\VC\Tools\MSVC\14.29.30133\atlmfc\include\afxwin2.inl
; File D:\git\src\IBK\IBK_DRFN\ProjSrc\SrcDrfn\Chart\comparechart\control\XComboList.cpp
; File C:\Program Files (x86)\Microsoft Visual Studio\2019\Community\VC\Tools\MSVC\14.29.30133\atlmfc\include\afxwin2.inl
; File C:\Program Files (x86)\Microsoft Visual Studio\2019\Community\VC\Tools\MSVC\14.29.30133\atlmfc\include\atltypes.h
; File C:\Program Files (x86)\Microsoft Visual Studio\2019\Community\VC\Tools\MSVC\14.29.30133\atlmfc\include\afxwin2.inl
; File C:\Program Files (x86)\Microsoft Visual Studio\2019\Community\VC\Tools\MSVC\14.29.30133\atlmfc\include\atltypes.h
; File D:\git\src\IBK\IBK_DRFN\ProjSrc\SrcDrfn\Chart\comparechart\control\XComboList.cpp
; File C:\Program Files (x86)\Microsoft Visual Studio\2019\Community\VC\Tools\MSVC\14.29.30133\atlmfc\include\afxwin2.inl
; File D:\git\src\IBK\IBK_DRFN\ProjSrc\SrcDrfn\Chart\comparechart\control\XComboList.cpp
; File C:\Program Files (x86)\Microsoft Visual Studio\2019\Community\VC\Tools\MSVC\14.29.30133\atlmfc\include\afxwin2.inl
; File D:\git\src\IBK\IBK_DRFN\ProjSrc\SrcDrfn\Chart\comparechart\control\XComboList.cpp
; File C:\Program Files (x86)\Microsoft Visual Studio\2019\Community\VC\Tools\MSVC\14.29.30133\atlmfc\include\afxwin2.inl
; File D:\git\src\IBK\IBK_DRFN\ProjSrc\SrcDrfn\Chart\comparechart\control\XComboList.cpp
; File C:\Program Files (x86)\Microsoft Visual Studio\2019\Community\VC\Tools\MSVC\14.29.30133\atlmfc\include\afxwin2.inl
; File D:\git\src\IBK\IBK_DRFN\ProjSrc\SrcDrfn\Chart\comparechart\control\XComboList.cpp
; File C:\Program Files (x86)\Microsoft Visual Studio\2019\Community\VC\Tools\MSVC\14.29.30133\atlmfc\include\afxwin2.inl
; File D:\git\src\IBK\IBK_DRFN\ProjSrc\SrcDrfn\Chart\comparechart\control\XComboList.cpp
; File C:\Program Files (x86)\Microsoft Visual Studio\2019\Community\VC\Tools\MSVC\14.29.30133\atlmfc\include\afxwin2.inl
; File D:\git\src\IBK\IBK_DRFN\ProjSrc\SrcDrfn\Chart\comparechart\control\XComboList.cpp
; File C:\Program Files (x86)\Microsoft Visual Studio\2019\Community\VC\Tools\MSVC\14.29.30133\atlmfc\include\afxwin2.inl
; File D:\git\src\IBK\IBK_DRFN\ProjSrc\SrcDrfn\Chart\comparechart\control\XComboList.cpp
; File C:\Program Files (x86)\Microsoft Visual Studio\2019\Community\VC\Tools\MSVC\14.29.30133\atlmfc\include\afxwin2.inl
; File D:\git\src\IBK\IBK_DRFN\ProjSrc\SrcDrfn\Chart\comparechart\control\XComboList.cpp
; File C:\Program Files (x86)\Microsoft Visual Studio\2019\Community\VC\Tools\MSVC\14.29.30133\atlmfc\include\afxwin2.inl
; File D:\git\src\IBK\IBK_DRFN\ProjSrc\SrcDrfn\Chart\comparechart\control\XComboList.cpp
; File C:\Program Files (x86)\Microsoft Visual Studio\2019\Community\VC\Tools\MSVC\14.29.30133\atlmfc\include\afxwin2.inl
; File D:\git\src\IBK\IBK_DRFN\ProjSrc\SrcDrfn\Chart\comparechart\control\XComboList.cpp
; File C:\Program Files (x86)\Microsoft Visual Studio\2019\Community\VC\Tools\MSVC\14.29.30133\atlmfc\include\afxwin2.inl
; File D:\git\src\IBK\IBK_DRFN\ProjSrc\SrcDrfn\Chart\comparechart\control\XComboList.cpp
; File C:\Program Files (x86)\Microsoft Visual Studio\2019\Community\VC\Tools\MSVC\14.29.30133\atlmfc\include\afxwin2.inl
; File D:\git\src\IBK\IBK_DRFN\ProjSrc\SrcDrfn\Chart\comparechart\control\XComboList.cpp
; File C:\Program Files (x86)\Microsoft Visual Studio\2019\Community\VC\Tools\MSVC\14.29.30133\atlmfc\include\afxwin2.inl
; File D:\git\src\IBK\IBK_DRFN\ProjSrc\SrcDrfn\Chart\comparechart\control\XComboList.cpp
;	COMDAT ?SetActive@CXComboList@@QAEXH@Z
_TEXT	SEGMENT
_this$GSCopy$1$ = -68					; size = 4
_si$1 = -64						; size = 28
_rect$2 = -36						; size = 16
_lbrect$3 = -20						; size = 16
__$ArrayPad$ = -4					; size = 4
_nScrollBarWidth$ = 8					; size = 4
?SetActive@CXComboList@@QAEXH@Z PROC			; CXComboList::SetActive, COMDAT
; _this$ = ecx

; 57   : {

  00000	55		 push	 ebp
  00001	8b ec		 mov	 ebp, esp
  00003	83 ec 44	 sub	 esp, 68			; 00000044H
  00006	a1 00 00 00 00	 mov	 eax, DWORD PTR ___security_cookie
  0000b	33 c5		 xor	 eax, ebp
  0000d	89 45 fc	 mov	 DWORD PTR __$ArrayPad$[ebp], eax
  00010	56		 push	 esi
  00011	8b f1		 mov	 esi, ecx
  00013	89 75 bc	 mov	 DWORD PTR _this$GSCopy$1$[ebp], esi

; 58   : 	//TRACE0("in CXComboList::SetActive\n");
; 59   : 
; 60   : 	if (!::IsWindow(m_ListBox.m_hWnd))

  00016	ff b6 a0 00 00
	00		 push	 DWORD PTR [esi+160]
  0001c	ff 15 00 00 00
	00		 call	 DWORD PTR __imp__IsWindow@4
  00022	85 c0		 test	 eax, eax
  00024	0f 84 cb 01 00
	00		 je	 $LN3@SetActive

; 61   : 		return;
; 62   : 
; 63   : 	m_ListBox.SetFocus();

  0002a	8d 8e 80 00 00
	00		 lea	 ecx, DWORD PTR [esi+128]
  00030	e8 00 00 00 00	 call	 ?SetFocus@CWnd@@QAEPAV1@XZ ; CWnd::SetFocus

; 64   : 
; 65   : 	if (m_bFirstTime)

  00035	83 be 88 01 00
	00 00		 cmp	 DWORD PTR [esi+392], 0
  0003c	0f 84 b3 01 00
	00		 je	 $LN3@SetActive

; 67   : 		m_bFirstTime = FALSE;

  00042	53		 push	 ebx
  00043	57		 push	 edi
; File C:\Program Files (x86)\Microsoft Visual Studio\2019\Community\VC\Tools\MSVC\14.29.30133\atlmfc\include\afxwin2.inl

; 84   : 	{ ASSERT(::IsWindow(m_hWnd)); ::GetWindowRect(m_hWnd, lpRect); }

  00044	8d 45 dc	 lea	 eax, DWORD PTR _rect$2[ebp]
; File D:\git\src\IBK\IBK_DRFN\ProjSrc\SrcDrfn\Chart\comparechart\control\XComboList.cpp

; 67   : 		m_bFirstTime = FALSE;

  00047	c7 86 88 01 00
	00 00 00 00 00	 mov	 DWORD PTR [esi+392], 0
; File C:\Program Files (x86)\Microsoft Visual Studio\2019\Community\VC\Tools\MSVC\14.29.30133\atlmfc\include\afxwin2.inl

; 84   : 	{ ASSERT(::IsWindow(m_hWnd)); ::GetWindowRect(m_hWnd, lpRect); }

  00051	50		 push	 eax
  00052	ff 76 20	 push	 DWORD PTR [esi+32]
  00055	0f 57 c0	 xorps	 xmm0, xmm0
; File C:\Program Files (x86)\Microsoft Visual Studio\2019\Community\VC\Tools\MSVC\14.29.30133\atlmfc\include\atltypes.h

; 528  : 	left = 0;

  00058	0f 11 45 dc	 movups	 XMMWORD PTR _rect$2[ebp], xmm0
; File C:\Program Files (x86)\Microsoft Visual Studio\2019\Community\VC\Tools\MSVC\14.29.30133\atlmfc\include\afxwin2.inl

; 84   : 	{ ASSERT(::IsWindow(m_hWnd)); ::GetWindowRect(m_hWnd, lpRect); }

  0005c	ff 15 00 00 00
	00		 call	 DWORD PTR __imp__GetWindowRect@8

; 717  : 	{ ASSERT(::IsWindow(m_hWnd)); return (int)::SendMessage(m_hWnd, LB_GETITEMHEIGHT, nIndex, 0L); }

  00062	6a 00		 push	 0
  00064	6a 00		 push	 0
  00066	68 a1 01 00 00	 push	 417			; 000001a1H
  0006b	ff b6 a0 00 00
	00		 push	 DWORD PTR [esi+160]
  00071	ff 15 00 00 00
	00		 call	 DWORD PTR __imp__SendMessageA@16
; File D:\git\src\IBK\IBK_DRFN\ProjSrc\SrcDrfn\Chart\comparechart\control\XComboList.cpp

; 73   : 		int nItemHeight = m_ListBox.GetItemHeight(0);

  00077	8b d8		 mov	 ebx, eax
  00079	0f 57 c0	 xorps	 xmm0, xmm0
; File C:\Program Files (x86)\Microsoft Visual Studio\2019\Community\VC\Tools\MSVC\14.29.30133\atlmfc\include\afxwin2.inl

; 86   : 	{ ASSERT(::IsWindow(m_hWnd)); ::GetClientRect(m_hWnd, lpRect); }

  0007c	8d 45 ec	 lea	 eax, DWORD PTR _lbrect$3[ebp]
  0007f	50		 push	 eax
  00080	ff 76 20	 push	 DWORD PTR [esi+32]
; File C:\Program Files (x86)\Microsoft Visual Studio\2019\Community\VC\Tools\MSVC\14.29.30133\atlmfc\include\atltypes.h

; 528  : 	left = 0;

  00083	0f 11 45 ec	 movups	 XMMWORD PTR _lbrect$3[ebp], xmm0
; File C:\Program Files (x86)\Microsoft Visual Studio\2019\Community\VC\Tools\MSVC\14.29.30133\atlmfc\include\afxwin2.inl

; 86   : 	{ ASSERT(::IsWindow(m_hWnd)); ::GetClientRect(m_hWnd, lpRect); }

  00087	ff 15 00 00 00
	00		 call	 DWORD PTR __imp__GetClientRect@8
; File C:\Program Files (x86)\Microsoft Visual Studio\2019\Community\VC\Tools\MSVC\14.29.30133\atlmfc\include\atltypes.h

; 581  : 	return bottom - top;

  0008d	8b 75 e8	 mov	 esi, DWORD PTR _rect$2[ebp+12]
  00090	2b 75 e0	 sub	 esi, DWORD PTR _rect$2[ebp+4]
; File D:\git\src\IBK\IBK_DRFN\ProjSrc\SrcDrfn\Chart\comparechart\control\XComboList.cpp

; 78   : 		lbrect.bottom = lbrect.top + (rect.Height() / nItemHeight) * nItemHeight;

  00093	8b c6		 mov	 eax, esi
  00095	8b 7d f0	 mov	 edi, DWORD PTR _lbrect$3[ebp+4]
  00098	99		 cdq
  00099	47		 inc	 edi
  0009a	f7 fb		 idiv	 ebx

; 79   : 		lbrect.left  += 1;
; 80   : 		lbrect.right -= nScrollBarWidth;		

  0009c	8b 45 08	 mov	 eax, DWORD PTR _nScrollBarWidth$[ebp]
  0009f	29 45 f4	 sub	 DWORD PTR _lbrect$3[ebp+8], eax
  000a2	2b f2		 sub	 esi, edx

; 81   : 
; 82   : 		int nItemsInView = (lbrect.Height()) / nItemHeight;

  000a4	8b c6		 mov	 eax, esi
  000a6	ff 45 ec	 inc	 DWORD PTR _lbrect$3[ebp]
  000a9	99		 cdq
  000aa	f7 fb		 idiv	 ebx

; 85   : 		rect.bottom = rect.top + lbrect.Height() + 4;

  000ac	8b 55 e0	 mov	 edx, DWORD PTR _rect$2[ebp+4]
  000af	8d 0c 3e	 lea	 ecx, DWORD PTR [esi+edi]
  000b2	89 4d f8	 mov	 DWORD PTR _lbrect$3[ebp+12], ecx
  000b5	8b d8		 mov	 ebx, eax
; File C:\Program Files (x86)\Microsoft Visual Studio\2019\Community\VC\Tools\MSVC\14.29.30133\atlmfc\include\afxwin2.inl

; 73   : 	{ MoveWindow(lpRect->left, lpRect->top, lpRect->right - lpRect->left,

  000b7	8b 45 dc	 mov	 eax, DWORD PTR _rect$2[ebp]
; File D:\git\src\IBK\IBK_DRFN\ProjSrc\SrcDrfn\Chart\comparechart\control\XComboList.cpp

; 85   : 		rect.bottom = rect.top + lbrect.Height() + 4;

  000ba	2b cf		 sub	 ecx, edi
  000bc	83 c1 04	 add	 ecx, 4
  000bf	89 7d f0	 mov	 DWORD PTR _lbrect$3[ebp+4], edi
; File C:\Program Files (x86)\Microsoft Visual Studio\2019\Community\VC\Tools\MSVC\14.29.30133\atlmfc\include\afxwin2.inl

; 73   : 	{ MoveWindow(lpRect->left, lpRect->top, lpRect->right - lpRect->left,

  000c2	8b 7d bc	 mov	 edi, DWORD PTR _this$GSCopy$1$[ebp]
; File D:\git\src\IBK\IBK_DRFN\ProjSrc\SrcDrfn\Chart\comparechart\control\XComboList.cpp

; 85   : 		rect.bottom = rect.top + lbrect.Height() + 4;

  000c5	03 ca		 add	 ecx, edx
  000c7	89 4d e8	 mov	 DWORD PTR _rect$2[ebp+12], ecx
; File C:\Program Files (x86)\Microsoft Visual Studio\2019\Community\VC\Tools\MSVC\14.29.30133\atlmfc\include\afxwin2.inl

; 73   : 	{ MoveWindow(lpRect->left, lpRect->top, lpRect->right - lpRect->left,

  000ca	2b ca		 sub	 ecx, edx
  000cc	6a 01		 push	 1
  000ce	51		 push	 ecx
  000cf	8b 4d e4	 mov	 ecx, DWORD PTR _rect$2[ebp+8]
  000d2	2b c8		 sub	 ecx, eax
  000d4	51		 push	 ecx
  000d5	52		 push	 edx
  000d6	50		 push	 eax
  000d7	8b cf		 mov	 ecx, edi
  000d9	e8 00 00 00 00	 call	 ?MoveWindow@CWnd@@QAEXHHHHH@Z ; CWnd::MoveWindow
  000de	8b 45 f8	 mov	 eax, DWORD PTR _lbrect$3[ebp+12]
  000e1	8d 8f 80 00 00
	00		 lea	 ecx, DWORD PTR [edi+128]
  000e7	8b 75 f0	 mov	 esi, DWORD PTR _lbrect$3[ebp+4]
  000ea	2b c6		 sub	 eax, esi
  000ec	8b 55 ec	 mov	 edx, DWORD PTR _lbrect$3[ebp]
  000ef	6a 01		 push	 1
  000f1	50		 push	 eax
  000f2	8b 45 f4	 mov	 eax, DWORD PTR _lbrect$3[ebp+8]
  000f5	2b c2		 sub	 eax, edx
  000f7	50		 push	 eax
  000f8	56		 push	 esi
  000f9	52		 push	 edx
  000fa	e8 00 00 00 00	 call	 ?MoveWindow@CWnd@@QAEXHHHHH@Z ; CWnd::MoveWindow

; 82   : 	{ ASSERT(::IsWindow(m_hWnd)); ::BringWindowToTop(m_hWnd); }

  000ff	ff b7 a0 00 00
	00		 push	 DWORD PTR [edi+160]
  00105	ff 15 00 00 00
	00		 call	 DWORD PTR __imp__BringWindowToTop@4

; 73   : 	{ MoveWindow(lpRect->left, lpRect->top, lpRect->right - lpRect->left,

  0010b	8b 4d f0	 mov	 ecx, DWORD PTR _lbrect$3[ebp+4]
  0010e	8b 45 f8	 mov	 eax, DWORD PTR _lbrect$3[ebp+12]
  00111	6a 01		 push	 1
  00113	2b c1		 sub	 eax, ecx
  00115	50		 push	 eax
  00116	ff 75 08	 push	 DWORD PTR _nScrollBarWidth$[ebp]
  00119	51		 push	 ecx
  0011a	ff 75 f4	 push	 DWORD PTR _lbrect$3[ebp+8]
  0011d	8d 8f 00 01 00
	00		 lea	 ecx, DWORD PTR [edi+256]
  00123	e8 00 00 00 00	 call	 ?MoveWindow@CWnd@@QAEXHHHHH@Z ; CWnd::MoveWindow

; 966  : 	{ return CWnd::GetScrollInfo(SB_CTL, lpScrollInfo, nMask); }

  00128	6a 17		 push	 23			; 00000017H
  0012a	8d 45 c0	 lea	 eax, DWORD PTR _si$1[ebp]
; File D:\git\src\IBK\IBK_DRFN\ProjSrc\SrcDrfn\Chart\comparechart\control\XComboList.cpp

; 98   : 		si.cbSize = sizeof(si);

  0012d	c7 45 c0 1c 00
	00 00		 mov	 DWORD PTR _si$1[ebp], 28 ; 0000001cH
; File C:\Program Files (x86)\Microsoft Visual Studio\2019\Community\VC\Tools\MSVC\14.29.30133\atlmfc\include\afxwin2.inl

; 966  : 	{ return CWnd::GetScrollInfo(SB_CTL, lpScrollInfo, nMask); }

  00134	50		 push	 eax
  00135	6a 02		 push	 2
  00137	8d 8f 00 01 00
	00		 lea	 ecx, DWORD PTR [edi+256]
; File D:\git\src\IBK\IBK_DRFN\ProjSrc\SrcDrfn\Chart\comparechart\control\XComboList.cpp

; 99   : 		si.fMask = SIF_ALL;

  0013d	c7 45 c4 17 00
	00 00		 mov	 DWORD PTR _si$1[ebp+4], 23 ; 00000017H
; File C:\Program Files (x86)\Microsoft Visual Studio\2019\Community\VC\Tools\MSVC\14.29.30133\atlmfc\include\afxwin2.inl

; 966  : 	{ return CWnd::GetScrollInfo(SB_CTL, lpScrollInfo, nMask); }

  00144	e8 00 00 00 00	 call	 ?GetScrollInfo@CWnd@@QAEHHPAUtagSCROLLINFO@@I@Z ; CWnd::GetScrollInfo

; 664  : 	{ ASSERT(::IsWindow(m_hWnd)); return (int)::SendMessage(m_hWnd, LB_GETCOUNT, 0, 0); }

  00149	8b 35 00 00 00
	00		 mov	 esi, DWORD PTR __imp__SendMessageA@16
  0014f	6a 00		 push	 0
  00151	6a 00		 push	 0
  00153	68 8b 01 00 00	 push	 395			; 0000018bH
  00158	ff b7 a0 00 00
	00		 push	 DWORD PTR [edi+160]
; File D:\git\src\IBK\IBK_DRFN\ProjSrc\SrcDrfn\Chart\comparechart\control\XComboList.cpp

; 103  : 		si.nMin = 0;

  0015e	c7 45 c8 00 00
	00 00		 mov	 DWORD PTR _si$1[ebp+8], 0
; File C:\Program Files (x86)\Microsoft Visual Studio\2019\Community\VC\Tools\MSVC\14.29.30133\atlmfc\include\afxwin2.inl

; 664  : 	{ ASSERT(::IsWindow(m_hWnd)); return (int)::SendMessage(m_hWnd, LB_GETCOUNT, 0, 0); }

  00165	ff d6		 call	 esi

; 666  : 	{ ASSERT(::IsWindow(m_hWnd)); return (int)::SendMessage(m_hWnd, LB_GETCURSEL, 0, 0); }

  00167	6a 00		 push	 0
  00169	6a 00		 push	 0
; File D:\git\src\IBK\IBK_DRFN\ProjSrc\SrcDrfn\Chart\comparechart\control\XComboList.cpp

; 105  : 		if (si.nMax < 0)

  0016b	85 c0		 test	 eax, eax

; 106  : 			si.nMax = 1;
; 107  : 		si.nPage = nItemsInView;

  0016d	89 5d d0	 mov	 DWORD PTR _si$1[ebp+16], ebx
  00170	b9 01 00 00 00	 mov	 ecx, 1
; File C:\Program Files (x86)\Microsoft Visual Studio\2019\Community\VC\Tools\MSVC\14.29.30133\atlmfc\include\afxwin2.inl

; 666  : 	{ ASSERT(::IsWindow(m_hWnd)); return (int)::SendMessage(m_hWnd, LB_GETCURSEL, 0, 0); }

  00175	68 88 01 00 00	 push	 392			; 00000188H
  0017a	ff b7 a0 00 00
	00		 push	 DWORD PTR [edi+160]
; File D:\git\src\IBK\IBK_DRFN\ProjSrc\SrcDrfn\Chart\comparechart\control\XComboList.cpp

; 105  : 		if (si.nMax < 0)

  00180	0f 48 c1	 cmovs	 eax, ecx
  00183	89 45 cc	 mov	 DWORD PTR _si$1[ebp+12], eax
; File C:\Program Files (x86)\Microsoft Visual Studio\2019\Community\VC\Tools\MSVC\14.29.30133\atlmfc\include\afxwin2.inl

; 666  : 	{ ASSERT(::IsWindow(m_hWnd)); return (int)::SendMessage(m_hWnd, LB_GETCURSEL, 0, 0); }

  00186	ff d6		 call	 esi
; File D:\git\src\IBK\IBK_DRFN\ProjSrc\SrcDrfn\Chart\comparechart\control\XComboList.cpp

; 109  : 		if (nCurSel == LB_ERR || nCurSel < 0)

  00188	83 f8 ff	 cmp	 eax, -1
  0018b	74 04		 je	 SHORT $LN6@SetActive
  0018d	85 c0		 test	 eax, eax
  0018f	79 02		 jns	 SHORT $LN5@SetActive
$LN6@SetActive:

; 110  : 			nCurSel = 0;

  00191	33 c0		 xor	 eax, eax
$LN5@SetActive:
; File C:\Program Files (x86)\Microsoft Visual Studio\2019\Community\VC\Tools\MSVC\14.29.30133\atlmfc\include\afxwin2.inl

; 681  : 	{ ASSERT(::IsWindow(m_hWnd)); return (int)::SendMessage(m_hWnd, LB_SETTOPINDEX, nIndex, 0);}

  00193	33 d2		 xor	 edx, edx
; File D:\git\src\IBK\IBK_DRFN\ProjSrc\SrcDrfn\Chart\comparechart\control\XComboList.cpp

; 111  : 		si.nPos = nCurSel;

  00195	89 45 d4	 mov	 DWORD PTR _si$1[ebp+20], eax
; File C:\Program Files (x86)\Microsoft Visual Studio\2019\Community\VC\Tools\MSVC\14.29.30133\atlmfc\include\afxwin2.inl

; 681  : 	{ ASSERT(::IsWindow(m_hWnd)); return (int)::SendMessage(m_hWnd, LB_SETTOPINDEX, nIndex, 0);}

  00198	3b d0		 cmp	 edx, eax
  0019a	8d 48 ff	 lea	 ecx, DWORD PTR [eax-1]
  0019d	6a 00		 push	 0
  0019f	1b c0		 sbb	 eax, eax
  001a1	23 c1		 and	 eax, ecx
  001a3	50		 push	 eax
  001a4	68 97 01 00 00	 push	 407			; 00000197H
  001a9	ff b7 a0 00 00
	00		 push	 DWORD PTR [edi+160]
  001af	ff d6		 call	 esi
; File D:\git\src\IBK\IBK_DRFN\ProjSrc\SrcDrfn\Chart\comparechart\control\XComboList.cpp

; 116  : 		if (si.nPos < 0)

  001b1	8b 45 d4	 mov	 eax, DWORD PTR _si$1[ebp+20]
  001b4	33 c9		 xor	 ecx, ecx
  001b6	85 c0		 test	 eax, eax
; File C:\Program Files (x86)\Microsoft Visual Studio\2019\Community\VC\Tools\MSVC\14.29.30133\atlmfc\include\afxwin2.inl

; 964  : 	{ return CWnd::SetScrollInfo(SB_CTL, lpScrollInfo, bRedraw); }

  001b8	6a 01		 push	 1
; File D:\git\src\IBK\IBK_DRFN\ProjSrc\SrcDrfn\Chart\comparechart\control\XComboList.cpp

; 116  : 		if (si.nPos < 0)

  001ba	0f 48 c1	 cmovs	 eax, ecx
; File C:\Program Files (x86)\Microsoft Visual Studio\2019\Community\VC\Tools\MSVC\14.29.30133\atlmfc\include\afxwin2.inl

; 964  : 	{ return CWnd::SetScrollInfo(SB_CTL, lpScrollInfo, bRedraw); }

  001bd	8d 8f 00 01 00
	00		 lea	 ecx, DWORD PTR [edi+256]
; File D:\git\src\IBK\IBK_DRFN\ProjSrc\SrcDrfn\Chart\comparechart\control\XComboList.cpp

; 116  : 		if (si.nPos < 0)

  001c3	89 45 d4	 mov	 DWORD PTR _si$1[ebp+20], eax
; File C:\Program Files (x86)\Microsoft Visual Studio\2019\Community\VC\Tools\MSVC\14.29.30133\atlmfc\include\afxwin2.inl

; 964  : 	{ return CWnd::SetScrollInfo(SB_CTL, lpScrollInfo, bRedraw); }

  001c6	8d 45 c0	 lea	 eax, DWORD PTR _si$1[ebp]
  001c9	50		 push	 eax
  001ca	6a 02		 push	 2
  001cc	e8 00 00 00 00	 call	 ?SetScrollInfo@CWnd@@QAEHHPAUtagSCROLLINFO@@H@Z ; CWnd::SetScrollInfo

; 954  : 	{ ASSERT(::IsWindow(m_hWnd)); return ::SetScrollPos(m_hWnd, SB_CTL, nPos, bRedraw); }

  001d1	6a 01		 push	 1
  001d3	ff 75 d4	 push	 DWORD PTR _si$1[ebp+20]
  001d6	6a 02		 push	 2
  001d8	ff b7 20 01 00
	00		 push	 DWORD PTR [edi+288]
  001de	ff 15 00 00 00
	00		 call	 DWORD PTR __imp__SetScrollPos@16

; 152  : 	{ ASSERT(::IsWindow(m_hWnd)); return ::SetTimer(m_hWnd, nIDEvent, nElapse,

  001e4	6a 00		 push	 0
  001e6	6a 50		 push	 80			; 00000050H
  001e8	6a 01		 push	 1
  001ea	ff 77 20	 push	 DWORD PTR [edi+32]
  001ed	ff 15 00 00 00
	00		 call	 DWORD PTR __imp__SetTimer@16
  001f3	5f		 pop	 edi
  001f4	5b		 pop	 ebx
$LN3@SetActive:
; File D:\git\src\IBK\IBK_DRFN\ProjSrc\SrcDrfn\Chart\comparechart\control\XComboList.cpp

; 125  : }

  001f5	8b 4d fc	 mov	 ecx, DWORD PTR __$ArrayPad$[ebp]
  001f8	33 cd		 xor	 ecx, ebp
  001fa	5e		 pop	 esi
  001fb	e8 00 00 00 00	 call	 @__security_check_cookie@4
  00200	8b e5		 mov	 esp, ebp
  00202	5d		 pop	 ebp
  00203	c2 04 00	 ret	 4
?SetActive@CXComboList@@QAEXH@Z ENDP			; CXComboList::SetActive
_TEXT	ENDS
; Function compile flags: /Ogtp
; File D:\git\src\IBK\IBK_DRFN\ProjSrc\SrcDrfn\Chart\comparechart\control\XComboList.cpp
;	COMDAT ??1CXComboList@@UAE@XZ
_TEXT	SEGMENT
??1CXComboList@@UAE@XZ PROC				; CXComboList::~CXComboList, COMDAT
; _this$ = ecx

; 51   : {

  00000	56		 push	 esi
  00001	8b f1		 mov	 esi, ecx

; 52   : }

  00003	8d 8e 00 01 00
	00		 lea	 ecx, DWORD PTR [esi+256]
  00009	c7 06 00 00 00
	00		 mov	 DWORD PTR [esi], OFFSET ??_7CXComboList@@6B@
  0000f	e8 00 00 00 00	 call	 ??1CScrollBar@@UAE@XZ	; CScrollBar::~CScrollBar
  00014	8d 8e 80 00 00
	00		 lea	 ecx, DWORD PTR [esi+128]
  0001a	e8 00 00 00 00	 call	 ??1CListBox@@UAE@XZ	; CListBox::~CListBox
  0001f	8b ce		 mov	 ecx, esi
  00021	5e		 pop	 esi
  00022	e9 00 00 00 00	 jmp	 ??1CWnd@@UAE@XZ		; CWnd::~CWnd
??1CXComboList@@UAE@XZ ENDP				; CXComboList::~CXComboList
_TEXT	ENDS
; Function compile flags: /Ogtp
; File D:\git\src\IBK\IBK_DRFN\ProjSrc\SrcDrfn\Chart\comparechart\control\XComboList.cpp
; File C:\Program Files (x86)\Microsoft Visual Studio\2019\Community\VC\Tools\MSVC\14.29.30133\atlmfc\include\afxwin2.inl
; File D:\git\src\IBK\IBK_DRFN\ProjSrc\SrcDrfn\Chart\comparechart\control\XComboList.cpp
; File C:\Program Files (x86)\Microsoft Visual Studio\2019\Community\VC\Tools\MSVC\14.29.30133\atlmfc\include\afxwin2.inl
; File D:\git\src\IBK\IBK_DRFN\ProjSrc\SrcDrfn\Chart\comparechart\control\XComboList.cpp
; File C:\Program Files (x86)\Microsoft Visual Studio\2019\Community\VC\Tools\MSVC\14.29.30133\atlmfc\include\afxwin2.inl
; File D:\git\src\IBK\IBK_DRFN\ProjSrc\SrcDrfn\Chart\comparechart\control\XComboList.cpp
; File C:\Program Files (x86)\Microsoft Visual Studio\2019\Community\VC\Tools\MSVC\14.29.30133\atlmfc\include\afxwin2.inl
; File D:\git\src\IBK\IBK_DRFN\ProjSrc\SrcDrfn\Chart\comparechart\control\XComboList.cpp
; File C:\Program Files (x86)\Microsoft Visual Studio\2019\Community\VC\Tools\MSVC\14.29.30133\atlmfc\include\afxwin2.inl
; File D:\git\src\IBK\IBK_DRFN\ProjSrc\SrcDrfn\Chart\comparechart\control\XComboList.cpp
;	COMDAT ??0CXComboList@@QAE@PAVCWnd@@@Z
_TEXT	SEGMENT
_this$ = -20						; size = 4
_this$ = -20						; size = 4
_this$ = -16						; size = 4
__$EHRec$ = -12						; size = 12
_pParent$ = 8						; size = 4
??0CXComboList@@QAE@PAVCWnd@@@Z PROC			; CXComboList::CXComboList, COMDAT
; _this$ = ecx

; 43   : {

  00000	55		 push	 ebp
  00001	8b ec		 mov	 ebp, esp
  00003	6a ff		 push	 -1
  00005	68 00 00 00 00	 push	 __ehhandler$??0CXComboList@@QAE@PAVCWnd@@@Z
  0000a	64 a1 00 00 00
	00		 mov	 eax, DWORD PTR fs:0
  00010	50		 push	 eax
  00011	83 ec 08	 sub	 esp, 8
  00014	56		 push	 esi
  00015	57		 push	 edi
  00016	a1 00 00 00 00	 mov	 eax, DWORD PTR ___security_cookie
  0001b	33 c5		 xor	 eax, ebp
  0001d	50		 push	 eax
  0001e	8d 45 f4	 lea	 eax, DWORD PTR __$EHRec$[ebp]
  00021	64 a3 00 00 00
	00		 mov	 DWORD PTR fs:0, eax
  00027	8b f9		 mov	 edi, ecx
  00029	89 7d f0	 mov	 DWORD PTR _this$[ebp], edi
  0002c	e8 00 00 00 00	 call	 ??0CWnd@@QAE@XZ		; CWnd::CWnd
  00031	8d b7 80 00 00
	00		 lea	 esi, DWORD PTR [edi+128]
  00037	c7 45 fc 00 00
	00 00		 mov	 DWORD PTR __$EHRec$[ebp+8], 0
; File C:\Program Files (x86)\Microsoft Visual Studio\2019\Community\VC\Tools\MSVC\14.29.30133\atlmfc\include\afxwin2.inl

; 662  : 	{ }

  0003e	8b ce		 mov	 ecx, esi
; File D:\git\src\IBK\IBK_DRFN\ProjSrc\SrcDrfn\Chart\comparechart\control\XComboList.cpp

; 43   : {

  00040	c7 07 00 00 00
	00		 mov	 DWORD PTR [edi], OFFSET ??_7CXComboList@@6B@
  00046	89 75 ec	 mov	 DWORD PTR _this$[ebp], esi
; File C:\Program Files (x86)\Microsoft Visual Studio\2019\Community\VC\Tools\MSVC\14.29.30133\atlmfc\include\afxwin2.inl

; 662  : 	{ }

  00049	e8 00 00 00 00	 call	 ??0CWnd@@QAE@XZ		; CWnd::CWnd
  0004e	c7 06 00 00 00
	00		 mov	 DWORD PTR [esi], OFFSET ??_7CListBox@@6B@
; File D:\git\src\IBK\IBK_DRFN\ProjSrc\SrcDrfn\Chart\comparechart\control\XComboList.cpp

; 43   : {

  00054	8d b7 00 01 00
	00		 lea	 esi, DWORD PTR [edi+256]
  0005a	c6 45 fc 01	 mov	 BYTE PTR __$EHRec$[ebp+8], 1
; File C:\Program Files (x86)\Microsoft Visual Studio\2019\Community\VC\Tools\MSVC\14.29.30133\atlmfc\include\afxwin2.inl

; 950  : 	{ }

  0005e	8b ce		 mov	 ecx, esi
; File D:\git\src\IBK\IBK_DRFN\ProjSrc\SrcDrfn\Chart\comparechart\control\XComboList.cpp

; 43   : {

  00060	89 75 ec	 mov	 DWORD PTR _this$[ebp], esi
; File C:\Program Files (x86)\Microsoft Visual Studio\2019\Community\VC\Tools\MSVC\14.29.30133\atlmfc\include\afxwin2.inl

; 950  : 	{ }

  00063	e8 00 00 00 00	 call	 ??0CWnd@@QAE@XZ		; CWnd::CWnd
; File D:\git\src\IBK\IBK_DRFN\ProjSrc\SrcDrfn\Chart\comparechart\control\XComboList.cpp

; 44   : 	m_pParent = pParent;

  00068	8b 45 08	 mov	 eax, DWORD PTR _pParent$[ebp]
; File C:\Program Files (x86)\Microsoft Visual Studio\2019\Community\VC\Tools\MSVC\14.29.30133\atlmfc\include\afxwin2.inl

; 950  : 	{ }

  0006b	c7 06 00 00 00
	00		 mov	 DWORD PTR [esi], OFFSET ??_7CScrollBar@@6B@
; File D:\git\src\IBK\IBK_DRFN\ProjSrc\SrcDrfn\Chart\comparechart\control\XComboList.cpp

; 44   : 	m_pParent = pParent;

  00071	89 87 80 01 00
	00		 mov	 DWORD PTR [edi+384], eax

; 45   : 	ASSERT(m_pParent);
; 46   : 	m_nCount = 0;
; 47   : 	m_bFirstTime = TRUE;
; 48   : }

  00077	8b c7		 mov	 eax, edi
  00079	c7 87 84 01 00
	00 00 00 00 00	 mov	 DWORD PTR [edi+388], 0
  00083	c7 87 88 01 00
	00 01 00 00 00	 mov	 DWORD PTR [edi+392], 1
  0008d	8b 4d f4	 mov	 ecx, DWORD PTR __$EHRec$[ebp]
  00090	64 89 0d 00 00
	00 00		 mov	 DWORD PTR fs:0, ecx
  00097	59		 pop	 ecx
  00098	5f		 pop	 edi
  00099	5e		 pop	 esi
  0009a	8b e5		 mov	 esp, ebp
  0009c	5d		 pop	 ebp
  0009d	c2 04 00	 ret	 4
_TEXT	ENDS
;	COMDAT text$x
text$x	SEGMENT
__unwindfunclet$??0CXComboList@@QAE@PAVCWnd@@@Z$0:
  00000	8b 4d f0	 mov	 ecx, DWORD PTR _this$[ebp]
  00003	e9 00 00 00 00	 jmp	 ??1CWnd@@UAE@XZ		; CWnd::~CWnd
__unwindfunclet$??0CXComboList@@QAE@PAVCWnd@@@Z$1:
  00008	8b 4d f0	 mov	 ecx, DWORD PTR _this$[ebp]
  0000b	81 c1 80 00 00
	00		 add	 ecx, 128		; 00000080H
  00011	e9 00 00 00 00	 jmp	 ??1CListBox@@UAE@XZ	; CListBox::~CListBox
  00016	cc		 int	 3
  00017	cc		 int	 3
  00018	cc		 int	 3
  00019	cc		 int	 3
  0001a	cc		 int	 3
__ehhandler$??0CXComboList@@QAE@PAVCWnd@@@Z:
  0001b	90		 npad	 1
  0001c	90		 npad	 1
  0001d	8b 54 24 08	 mov	 edx, DWORD PTR [esp+8]
  00021	8d 42 0c	 lea	 eax, DWORD PTR [edx+12]
  00024	8b 4a ec	 mov	 ecx, DWORD PTR [edx-20]
  00027	33 c8		 xor	 ecx, eax
  00029	e8 00 00 00 00	 call	 @__security_check_cookie@4
  0002e	b8 00 00 00 00	 mov	 eax, OFFSET __ehfuncinfo$??0CXComboList@@QAE@PAVCWnd@@@Z
  00033	e9 00 00 00 00	 jmp	 ___CxxFrameHandler3
text$x	ENDS
??0CXComboList@@QAE@PAVCWnd@@@Z ENDP			; CXComboList::CXComboList
; Function compile flags: /Ogtp
; File C:\Program Files (x86)\Microsoft Visual Studio\2019\Community\VC\Tools\MSVC\14.29.30133\atlmfc\include\afx.inl
;	COMDAT ??_GCScrollBar@@UAEPAXI@Z
_TEXT	SEGMENT
___flags$ = 8						; size = 4
??_GCScrollBar@@UAEPAXI@Z PROC				; CScrollBar::`scalar deleting destructor', COMDAT
; _this$ = ecx
  00000	55		 push	 ebp
  00001	8b ec		 mov	 ebp, esp
  00003	56		 push	 esi
  00004	8b f1		 mov	 esi, ecx
  00006	e8 00 00 00 00	 call	 ??1CScrollBar@@UAE@XZ	; CScrollBar::~CScrollBar
  0000b	8b 45 08	 mov	 eax, DWORD PTR ___flags$[ebp]
  0000e	a8 01		 test	 al, 1
  00010	74 22		 je	 SHORT $LN9@scalar
  00012	a8 04		 test	 al, 4
  00014	75 10		 jne	 SHORT $LN3@scalar

; 112  : 	{ ::operator delete(p); }

  00016	56		 push	 esi
  00017	e8 00 00 00 00	 call	 ??3@YAXPAX@Z		; operator delete
  0001c	83 c4 04	 add	 esp, 4
  0001f	8b c6		 mov	 eax, esi
  00021	5e		 pop	 esi
  00022	5d		 pop	 ebp
  00023	c2 04 00	 ret	 4
$LN3@scalar:
  00026	68 80 00 00 00	 push	 128			; 00000080H
  0002b	56		 push	 esi
  0002c	e8 00 00 00 00	 call	 ?__global_delete@@YAXPAXI@Z ; __global_delete
  00031	83 c4 08	 add	 esp, 8
$LN9@scalar:
  00034	8b c6		 mov	 eax, esi
  00036	5e		 pop	 esi
  00037	5d		 pop	 ebp
  00038	c2 04 00	 ret	 4
??_GCScrollBar@@UAEPAXI@Z ENDP				; CScrollBar::`scalar deleting destructor'
_TEXT	ENDS
; Function compile flags: /Ogtp
; File C:\Program Files (x86)\Microsoft Visual Studio\2019\Community\VC\Tools\MSVC\14.29.30133\atlmfc\include\afx.inl
;	COMDAT ??_GCListBox@@UAEPAXI@Z
_TEXT	SEGMENT
___flags$ = 8						; size = 4
??_GCListBox@@UAEPAXI@Z PROC				; CListBox::`scalar deleting destructor', COMDAT
; _this$ = ecx
  00000	55		 push	 ebp
  00001	8b ec		 mov	 ebp, esp
  00003	56		 push	 esi
  00004	8b f1		 mov	 esi, ecx
  00006	e8 00 00 00 00	 call	 ??1CListBox@@UAE@XZ	; CListBox::~CListBox
  0000b	8b 45 08	 mov	 eax, DWORD PTR ___flags$[ebp]
  0000e	a8 01		 test	 al, 1
  00010	74 22		 je	 SHORT $LN9@scalar
  00012	a8 04		 test	 al, 4
  00014	75 10		 jne	 SHORT $LN3@scalar

; 112  : 	{ ::operator delete(p); }

  00016	56		 push	 esi
  00017	e8 00 00 00 00	 call	 ??3@YAXPAX@Z		; operator delete
  0001c	83 c4 04	 add	 esp, 4
  0001f	8b c6		 mov	 eax, esi
  00021	5e		 pop	 esi
  00022	5d		 pop	 ebp
  00023	c2 04 00	 ret	 4
$LN3@scalar:
  00026	68 80 00 00 00	 push	 128			; 00000080H
  0002b	56		 push	 esi
  0002c	e8 00 00 00 00	 call	 ?__global_delete@@YAXPAXI@Z ; __global_delete
  00031	83 c4 08	 add	 esp, 8
$LN9@scalar:
  00034	8b c6		 mov	 eax, esi
  00036	5e		 pop	 esi
  00037	5d		 pop	 ebp
  00038	c2 04 00	 ret	 4
??_GCListBox@@UAEPAXI@Z ENDP				; CListBox::`scalar deleting destructor'
_TEXT	ENDS
; Function compile flags: /Ogtp
; File C:\Program Files (x86)\Microsoft Visual Studio\2019\Community\VC\Tools\MSVC\14.29.30133\atlmfc\include\afxwin2.inl
;	COMDAT ?EndModalState@CWnd@@UAEXXZ
_TEXT	SEGMENT
?EndModalState@CWnd@@UAEXXZ PROC			; CWnd::EndModalState, COMDAT
; _this$ = ecx

; 567  : 	{ ::EnableWindow(m_hWnd, TRUE); }

  00000	6a 01		 push	 1
  00002	ff 71 20	 push	 DWORD PTR [ecx+32]
  00005	ff 15 00 00 00
	00		 call	 DWORD PTR __imp__EnableWindow@8
  0000b	c3		 ret	 0
?EndModalState@CWnd@@UAEXXZ ENDP			; CWnd::EndModalState
_TEXT	ENDS
; Function compile flags: /Ogtp
; File C:\Program Files (x86)\Microsoft Visual Studio\2019\Community\VC\Tools\MSVC\14.29.30133\atlmfc\include\afxwin2.inl
;	COMDAT ?BeginModalState@CWnd@@UAEXXZ
_TEXT	SEGMENT
?BeginModalState@CWnd@@UAEXXZ PROC			; CWnd::BeginModalState, COMDAT
; _this$ = ecx

; 565  : 	{ ::EnableWindow(m_hWnd, FALSE); }

  00000	6a 00		 push	 0
  00002	ff 71 20	 push	 DWORD PTR [ecx+32]
  00005	ff 15 00 00 00
	00		 call	 DWORD PTR __imp__EnableWindow@8
  0000b	c3		 ret	 0
?BeginModalState@CWnd@@UAEXXZ ENDP			; CWnd::BeginModalState
_TEXT	ENDS
; Function compile flags: /Ogtp
; File C:\Program Files (x86)\Microsoft Visual Studio\2019\Community\VC\Tools\MSVC\14.29.30133\atlmfc\include\afxwin2.inl
;	COMDAT ?DoDataExchange@CWnd@@MAEXPAVCDataExchange@@@Z
_TEXT	SEGMENT
___formal$ = 8						; size = 4
?DoDataExchange@CWnd@@MAEXPAVCDataExchange@@@Z PROC	; CWnd::DoDataExchange, COMDAT
; _this$ = ecx

; 561  : 	{ } // default does nothing

  00000	c2 04 00	 ret	 4
?DoDataExchange@CWnd@@MAEXPAVCDataExchange@@@Z ENDP	; CWnd::DoDataExchange
_TEXT	ENDS
; Function compile flags: /Ogtp
; File C:\Program Files (x86)\Microsoft Visual Studio\2019\Community\VC\Tools\MSVC\14.29.30133\atlmfc\include\afx.inl
;	COMDAT ?Dump@CObject@@UBEXAAVCDumpContext@@@Z
_TEXT	SEGMENT
___formal$ = 8						; size = 4
?Dump@CObject@@UBEXAAVCDumpContext@@@Z PROC		; CObject::Dump, COMDAT
; _this$ = ecx

; 122  : 	{ /* no dumping in release builds */ }

  00000	c2 04 00	 ret	 4
?Dump@CObject@@UBEXAAVCDumpContext@@@Z ENDP		; CObject::Dump
_TEXT	ENDS
; Function compile flags: /Ogtp
; File C:\Program Files (x86)\Microsoft Visual Studio\2019\Community\VC\Tools\MSVC\14.29.30133\atlmfc\include\afx.inl
;	COMDAT ?AssertValid@CObject@@UBEXXZ
_TEXT	SEGMENT
?AssertValid@CObject@@UBEXXZ PROC			; CObject::AssertValid, COMDAT
; _this$ = ecx

; 120  : 	{ /* no asserts in release builds */ }

  00000	c2 00 00	 ret	 0
?AssertValid@CObject@@UBEXXZ ENDP			; CObject::AssertValid
_TEXT	ENDS
; Function compile flags: /Ogtp
; File C:\Program Files (x86)\Microsoft Visual Studio\2019\Community\VC\Tools\MSVC\14.29.30133\atlmfc\include\afx.inl
;	COMDAT ?Serialize@CObject@@UAEXAAVCArchive@@@Z
_TEXT	SEGMENT
___formal$ = 8						; size = 4
?Serialize@CObject@@UAEXAAVCArchive@@@Z PROC		; CObject::Serialize, COMDAT
; _this$ = ecx

; 106  : 	{ /* CObject does not serialize anything by default */ }

  00000	c2 04 00	 ret	 4
?Serialize@CObject@@UAEXAAVCArchive@@@Z ENDP		; CObject::Serialize
_TEXT	ENDS
; Function compile flags: /Ogtp
; File D:\git\src\IBK\IBK_DRFN\ProjSrc\SrcDrfn\Chart\comparechart\control\XComboList.cpp
;	COMDAT ?__empty_global_delete@@YAXPAXI@Z
_TEXT	SEGMENT
___formal$ = 8						; size = 4
___formal$ = 12						; size = 4
?__empty_global_delete@@YAXPAXI@Z PROC			; __empty_global_delete, COMDAT

  00000	c2 00 00	 ret	 0
?__empty_global_delete@@YAXPAXI@Z ENDP			; __empty_global_delete
_TEXT	ENDS
; Function compile flags: /Ogtp
; File D:\git\src\IBK\IBK_DRFN\ProjSrc\SrcDrfn\Chart\comparechart\control\XComboList.cpp
;	COMDAT ?__empty_global_delete@@YAXPAX@Z
_TEXT	SEGMENT
___formal$ = 8						; size = 4
?__empty_global_delete@@YAXPAX@Z PROC			; __empty_global_delete, COMDAT

  00000	c2 00 00	 ret	 0
?__empty_global_delete@@YAXPAX@Z ENDP			; __empty_global_delete
_TEXT	ENDS
END
