; Listing generated by Microsoft (R) Optimizing Compiler Version 19.29.30145.0 

	TITLE	D:\git\src\IBK\IBK_DRFN\#DRfn-CS\_Obj\CompareChart\XListCtrlJongData.obj
	.686P
	.XMM
	include listing.inc
	.model	flat

INCLUDELIB MSVCRT
INCLUDELIB OLDNAMES

PUBLIC	??_C@_00CNPNBAHC@@				; `string'
PUBLIC	?colwidthsType0@@3PAHA				; colwidthsType0
PUBLIC	?lpszHeadersType0@@3PAPADA			; lpszHeadersType0
PUBLIC	??_C@_06BGMJNGKF@?A?$LO?$LI?q?$LI?m@		; `string'
PUBLIC	??_C@_06HIBNJJGC@?G?v?$MA?g?$LA?$KB@		; `string'
PUBLIC	??_C@_04BIIKMLDF@?$LE?k?$LK?q@			; `string'
PUBLIC	??_C@_06OJNLJLHO@?$LE?k?$LK?q?$MA?$LC@		; `string'
PUBLIC	??_C@_06KEGGDDLA@?$LA?E?$LH?$KB?$LH?$KO@	; `string'
PUBLIC	?colwidthsType1@@3PAHA				; colwidthsType1
PUBLIC	?lpszHeadersType1@@3PAPADA			; lpszHeadersType1
PUBLIC	??_C@_04MKKGKADC@?$LP?$KM?$LM?S@		; `string'
PUBLIC	??_C@_08EDJHPMOG@?F?m?$MA?T?$LN?C?$LA?$KD@	; `string'
PUBLIC	??_C@_0BE@FJPKENOB@RMSG_GETSIGNAL_REAL@		; `string'
PUBLIC	??_C@_0P@KHFCBIOH@RMSG_CHARTMAIN@		; `string'
PUBLIC	??_C@_0BC@MMPGLPDH@RMS_ANALYSIS_FUNC@		; `string'
PUBLIC	??_C@_0BA@HKNFENJL@RMSG_GET_USERID@		; `string'
PUBLIC	??_C@_0P@LFDACNFE@RMSG_KSDLLINFO@		; `string'
PUBLIC	??_C@_0N@IIOKMIEH@RMSG_GETINFO@			; `string'
PUBLIC	??_C@_0BG@CNPAHNGG@RMSG_CHANGE_SKINCOLOR@	; `string'
PUBLIC	??_C@_0BD@FLDNDDHK@RMSG_GET_SKINCOLOR@		; `string'
PUBLIC	??_C@_0BG@LNLCJKPF@RMSG_CHANGE_CROSSLINE@	; `string'
;	COMDAT ??_C@_0BG@LNLCJKPF@RMSG_CHANGE_CROSSLINE@
CONST	SEGMENT
??_C@_0BG@LNLCJKPF@RMSG_CHANGE_CROSSLINE@ DB 'RMSG_CHANGE_CROSSLINE', 00H ; `string'
CONST	ENDS
;	COMDAT ??_C@_0BD@FLDNDDHK@RMSG_GET_SKINCOLOR@
CONST	SEGMENT
??_C@_0BD@FLDNDDHK@RMSG_GET_SKINCOLOR@ DB 'RMSG_GET_SKINCOLOR', 00H ; `string'
CONST	ENDS
;	COMDAT ??_C@_0BG@CNPAHNGG@RMSG_CHANGE_SKINCOLOR@
CONST	SEGMENT
??_C@_0BG@CNPAHNGG@RMSG_CHANGE_SKINCOLOR@ DB 'RMSG_CHANGE_SKINCOLOR', 00H ; `string'
CONST	ENDS
;	COMDAT ??_C@_0N@IIOKMIEH@RMSG_GETINFO@
CONST	SEGMENT
??_C@_0N@IIOKMIEH@RMSG_GETINFO@ DB 'RMSG_GETINFO', 00H	; `string'
CONST	ENDS
;	COMDAT ??_C@_0P@LFDACNFE@RMSG_KSDLLINFO@
CONST	SEGMENT
??_C@_0P@LFDACNFE@RMSG_KSDLLINFO@ DB 'RMSG_KSDLLINFO', 00H ; `string'
CONST	ENDS
;	COMDAT ??_C@_0BA@HKNFENJL@RMSG_GET_USERID@
CONST	SEGMENT
??_C@_0BA@HKNFENJL@RMSG_GET_USERID@ DB 'RMSG_GET_USERID', 00H ; `string'
CONST	ENDS
;	COMDAT ??_C@_0BC@MMPGLPDH@RMS_ANALYSIS_FUNC@
CONST	SEGMENT
??_C@_0BC@MMPGLPDH@RMS_ANALYSIS_FUNC@ DB 'RMS_ANALYSIS_FUNC', 00H ; `string'
CONST	ENDS
;	COMDAT ??_C@_0P@KHFCBIOH@RMSG_CHARTMAIN@
CONST	SEGMENT
??_C@_0P@KHFCBIOH@RMSG_CHARTMAIN@ DB 'RMSG_CHARTMAIN', 00H ; `string'
CONST	ENDS
;	COMDAT ??_C@_0BE@FJPKENOB@RMSG_GETSIGNAL_REAL@
CONST	SEGMENT
??_C@_0BE@FJPKENOB@RMSG_GETSIGNAL_REAL@ DB 'RMSG_GETSIGNAL_REAL', 00H ; `string'
CONST	ENDS
;	COMDAT ??_C@_08EDJHPMOG@?F?m?$MA?T?$LN?C?$LA?$KD@
CONST	SEGMENT
??_C@_08EDJHPMOG@?F?m?$MA?T?$LN?C?$LA?$KD@ DB 0c6H, 0edH, 0c0H, 0d4H, 0bdH
	DB	0c3H, 0b0H, 0a3H, 00H			; `string'
CONST	ENDS
;	COMDAT ??_C@_04MKKGKADC@?$LP?$KM?$LM?S@
CONST	SEGMENT
??_C@_04MKKGKADC@?$LP?$KM?$LM?S@ DB 0bfH, 0acH, 0bcH, 0d3H, 00H ; `string'
CONST	ENDS
;	COMDAT ??_C@_06KEGGDDLA@?$LA?E?$LH?$KB?$LH?$KO@
CONST	SEGMENT
??_C@_06KEGGDDLA@?$LA?E?$LH?$KB?$LH?$KO@ DB 0b0H, 0c5H, 0b7H, 0a1H, 0b7H, 0aeH
	DB	00H						; `string'
CONST	ENDS
;	COMDAT ??_C@_06OJNLJLHO@?$LE?k?$LK?q?$MA?$LC@
CONST	SEGMENT
??_C@_06OJNLJLHO@?$LE?k?$LK?q?$MA?$LC@ DB 0b4H, 0ebH, 0baH, 0f1H, 0c0H, 0b2H
	DB	00H						; `string'
CONST	ENDS
;	COMDAT ??_C@_04BIIKMLDF@?$LE?k?$LK?q@
CONST	SEGMENT
??_C@_04BIIKMLDF@?$LE?k?$LK?q@ DB 0b4H, 0ebH, 0baH, 0f1H, 00H ; `string'
CONST	ENDS
;	COMDAT ??_C@_06HIBNJJGC@?G?v?$MA?g?$LA?$KB@
CONST	SEGMENT
??_C@_06HIBNJJGC@?G?v?$MA?g?$LA?$KB@ DB 0c7H, 0f6H, 0c0H, 0e7H, 0b0H, 0a1H
	DB	00H						; `string'
CONST	ENDS
;	COMDAT ??_C@_06BGMJNGKF@?A?$LO?$LI?q?$LI?m@
CONST	SEGMENT
??_C@_06BGMJNGKF@?A?$LO?$LI?q?$LI?m@ DB 0c1H, 0beH, 0b8H, 0f1H, 0b8H, 0edH
	DB	00H						; `string'
CONST	ENDS
_DATA	SEGMENT
?colwidthsType0@@3PAHA DD 014H				; colwidthsType0
	DD	032H
	DD	032H
	DD	032H
	DD	032H
	DD	032H
?lpszHeadersType0@@3PAPADA DD FLAT:??_C@_00CNPNBAHC@@	; lpszHeadersType0
	DD	FLAT:??_C@_06BGMJNGKF@?A?$LO?$LI?q?$LI?m@
	DD	FLAT:??_C@_06HIBNJJGC@?G?v?$MA?g?$LA?$KB@
	DD	FLAT:??_C@_04BIIKMLDF@?$LE?k?$LK?q@
	DD	FLAT:??_C@_06OJNLJLHO@?$LE?k?$LK?q?$MA?$LC@
	DD	FLAT:??_C@_06KEGGDDLA@?$LA?E?$LH?$KB?$LH?$KO@
	DD	00H
?colwidthsType1@@3PAHA DD 014H				; colwidthsType1
	DD	024H
	DD	032H
	DD	032H
	DD	032H
	DD	032H
	DD	032H
	DD	03eH
?lpszHeadersType1@@3PAPADA DD FLAT:??_C@_00CNPNBAHC@@	; lpszHeadersType1
	DD	FLAT:??_C@_04MKKGKADC@?$LP?$KM?$LM?S@
	DD	FLAT:??_C@_06BGMJNGKF@?A?$LO?$LI?q?$LI?m@
	DD	FLAT:??_C@_06HIBNJJGC@?G?v?$MA?g?$LA?$KB@
	DD	FLAT:??_C@_04BIIKMLDF@?$LE?k?$LK?q@
	DD	FLAT:??_C@_06OJNLJLHO@?$LE?k?$LK?q?$MA?$LC@
	DD	FLAT:??_C@_06KEGGDDLA@?$LA?E?$LH?$KB?$LH?$KO@
	DD	FLAT:??_C@_08EDJHPMOG@?F?m?$MA?T?$LN?C?$LA?$KD@
	DD	00H
_DATA	ENDS
;	COMDAT ??_C@_00CNPNBAHC@@
CONST	SEGMENT
??_C@_00CNPNBAHC@@ DB 00H				; `string'
CONST	ENDS
PUBLIC	?__empty_global_delete@@YAXPAX@Z		; __empty_global_delete
PUBLIC	?__empty_global_delete@@YAXPAXI@Z		; __empty_global_delete
PUBLIC	??1CObject@@UAE@XZ				; CObject::~CObject
PUBLIC	?Serialize@CObject@@UAEXAAVCArchive@@@Z		; CObject::Serialize
PUBLIC	?AssertValid@CObject@@UBEXXZ			; CObject::AssertValid
PUBLIC	?Dump@CObject@@UBEXAAVCDumpContext@@@Z		; CObject::Dump
PUBLIC	?DoDataExchange@CWnd@@MAEXPAVCDataExchange@@@Z	; CWnd::DoDataExchange
PUBLIC	?BeginModalState@CWnd@@UAEXXZ			; CWnd::BeginModalState
PUBLIC	?EndModalState@CWnd@@UAEXXZ			; CWnd::EndModalState
PUBLIC	??0CXListCtrlJongData@@QAE@XZ			; CXListCtrlJongData::CXListCtrlJongData
PUBLIC	?Init@CXListCtrlJongData@@QAEXPAVCLeftBarDlg@@H@Z ; CXListCtrlJongData::Init
PUBLIC	?InsertCodeData@CXListCtrlJongData@@QAEXPBD0V?$CStringT@DV?$StrTraitMFC_DLL@DV?$ChTraitsCRT@D@ATL@@@@@ATL@@111DH@Z ; CXListCtrlJongData::InsertCodeData
PUBLIC	?UpdateCodeData@CXListCtrlJongData@@QAEHPBD0V?$CStringT@DV?$StrTraitMFC_DLL@DV?$ChTraitsCRT@D@ATL@@@@@ATL@@111DH@Z ; CXListCtrlJongData::UpdateCodeData
PUBLIC	?RemoveCode@CXListCtrlJongData@@QAEXPBD@Z	; CXListCtrlJongData::RemoveCode
PUBLIC	?GetCodeSelected@CXListCtrlJongData@@QAE?AV?$CStringT@DV?$StrTraitMFC_DLL@DV?$ChTraitsCRT@D@ATL@@@@@ATL@@H@Z ; CXListCtrlJongData::GetCodeSelected
PUBLIC	?GetTimeSelected@CXListCtrlJongData@@QAE?AV?$CStringT@DV?$StrTraitMFC_DLL@DV?$ChTraitsCRT@D@ATL@@@@@ATL@@H@Z ; CXListCtrlJongData::GetTimeSelected
PUBLIC	?GetCheckedCodes@CXListCtrlJongData@@QAE?AV?$CStringT@DV?$StrTraitMFC_DLL@DV?$ChTraitsCRT@D@ATL@@@@@ATL@@XZ ; CXListCtrlJongData::GetCheckedCodes
PUBLIC	?RemoveAll@CXListCtrlJongData@@QAEHXZ		; CXListCtrlJongData::RemoveAll
PUBLIC	?FindCode@CXListCtrlJongData@@QAEHPBD@Z		; CXListCtrlJongData::FindCode
PUBLIC	?GetCodeData@CXListCtrlJongData@@QAEXHAAV?$CStringT@DV?$StrTraitMFC_DLL@DV?$ChTraitsCRT@D@ATL@@@@@ATL@@000AAD@Z ; CXListCtrlJongData::GetCodeData
PUBLIC	?GetSelectedCodes@CXListCtrlJongData@@QAE?AV?$CStringT@DV?$StrTraitMFC_DLL@DV?$ChTraitsCRT@D@ATL@@@@@ATL@@XZ ; CXListCtrlJongData::GetSelectedCodes
PUBLIC	?CheckJongmokCode@CXListCtrlJongData@@QAEXHPBD@Z ; CXListCtrlJongData::CheckJongmokCode
PUBLIC	?CheckJongmokCode@CXListCtrlJongData@@QAEXPAVCStringList@@0@Z ; CXListCtrlJongData::CheckJongmokCode
PUBLIC	?CheckJongmokCode@CXListCtrlJongData@@QAEXPAVCStringList@@@Z ; CXListCtrlJongData::CheckJongmokCode
PUBLIC	?UpdateCheck@CXListCtrlJongData@@QAEXHPAVCWnd@@@Z ; CXListCtrlJongData::UpdateCheck
PUBLIC	?GetCheckByJongmokCode@CXListCtrlJongData@@QAEHPBD@Z ; CXListCtrlJongData::GetCheckByJongmokCode
PUBLIC	?UnHighlightByJongmokCode@CXListCtrlJongData@@QAEXPBD@Z ; CXListCtrlJongData::UnHighlightByJongmokCode
PUBLIC	?GetDrawColors@CXListCtrlJongData@@UAEXHHAAK0@Z	; CXListCtrlJongData::GetDrawColors
PUBLIC	?RemoveNoUpdateItem@CXListCtrlJongData@@QAEXXZ	; CXListCtrlJongData::RemoveNoUpdateItem
PUBLIC	?SetCursorPrev@CXListCtrlJongData@@QAEXH@Z	; CXListCtrlJongData::SetCursorPrev
PUBLIC	?SetCursorNext@CXListCtrlJongData@@QAEXH@Z	; CXListCtrlJongData::SetCursorNext
PUBLIC	?InitSortIndex@CXListCtrlJongData@@QAEXXZ	; CXListCtrlJongData::InitSortIndex
PUBLIC	?SetAlarmPeriod@CXListCtrlJongData@@QAEXJJ@Z	; CXListCtrlJongData::SetAlarmPeriod
PUBLIC	?SetAlarmColor@CXListCtrlJongData@@QAEXH@Z	; CXListCtrlJongData::SetAlarmColor
PUBLIC	?SetAlarmSound@CXListCtrlJongData@@QAEXHPBD@Z	; CXListCtrlJongData::SetAlarmSound
PUBLIC	?GetCommentAboutHighlight@CXListCtrlJongData@@QAE?AV?$CStringT@DV?$StrTraitMFC_DLL@DV?$ChTraitsCRT@D@ATL@@@@@ATL@@XZ ; CXListCtrlJongData::GetCommentAboutHighlight
PUBLIC	?GetListOfChecked@CXListCtrlJongData@@QAEXPAVCStringList@@@Z ; CXListCtrlJongData::GetListOfChecked
PUBLIC	??0?$CMap@V?$CStringT@DV?$StrTraitMFC_DLL@DV?$ChTraitsCRT@D@ATL@@@@@ATL@@PBDPAVCJongDataInListCtrl@@PAV3@@@QAE@H@Z ; CMap<ATL::CStringT<char,StrTraitMFC_DLL<char,ATL::ChTraitsCRT<char> > >,char const *,CJongDataInListCtrl *,CJongDataInListCtrl *>::CMap<ATL::CStringT<char,StrTraitMFC_DLL<char,ATL::ChTraitsCRT<char> > >,char const *,CJongDataInListCtrl *,CJongDataInListCtrl *>
PUBLIC	?Lookup@?$CMap@V?$CStringT@DV?$StrTraitMFC_DLL@DV?$ChTraitsCRT@D@ATL@@@@@ATL@@PBDPAVCJongDataInListCtrl@@PAV3@@@QBEHPBDAAPAVCJongDataInListCtrl@@@Z ; CMap<ATL::CStringT<char,StrTraitMFC_DLL<char,ATL::ChTraitsCRT<char> > >,char const *,CJongDataInListCtrl *,CJongDataInListCtrl *>::Lookup
PUBLIC	??A?$CMap@V?$CStringT@DV?$StrTraitMFC_DLL@DV?$ChTraitsCRT@D@ATL@@@@@ATL@@PBDPAVCJongDataInListCtrl@@PAV3@@@QAEAAPAVCJongDataInListCtrl@@PBD@Z ; CMap<ATL::CStringT<char,StrTraitMFC_DLL<char,ATL::ChTraitsCRT<char> > >,char const *,CJongDataInListCtrl *,CJongDataInListCtrl *>::operator[]
PUBLIC	?SetAt@?$CMap@V?$CStringT@DV?$StrTraitMFC_DLL@DV?$ChTraitsCRT@D@ATL@@@@@ATL@@PBDPAVCJongDataInListCtrl@@PAV3@@@QAEXPBDPAVCJongDataInListCtrl@@@Z ; CMap<ATL::CStringT<char,StrTraitMFC_DLL<char,ATL::ChTraitsCRT<char> > >,char const *,CJongDataInListCtrl *,CJongDataInListCtrl *>::SetAt
PUBLIC	?RemoveKey@?$CMap@V?$CStringT@DV?$StrTraitMFC_DLL@DV?$ChTraitsCRT@D@ATL@@@@@ATL@@PBDPAVCJongDataInListCtrl@@PAV3@@@QAEHPBD@Z ; CMap<ATL::CStringT<char,StrTraitMFC_DLL<char,ATL::ChTraitsCRT<char> > >,char const *,CJongDataInListCtrl *,CJongDataInListCtrl *>::RemoveKey
PUBLIC	?RemoveAll@?$CMap@V?$CStringT@DV?$StrTraitMFC_DLL@DV?$ChTraitsCRT@D@ATL@@@@@ATL@@PBDPAVCJongDataInListCtrl@@PAV3@@@QAEXXZ ; CMap<ATL::CStringT<char,StrTraitMFC_DLL<char,ATL::ChTraitsCRT<char> > >,char const *,CJongDataInListCtrl *,CJongDataInListCtrl *>::RemoveAll
PUBLIC	?GetNextAssoc@?$CMap@V?$CStringT@DV?$StrTraitMFC_DLL@DV?$ChTraitsCRT@D@ATL@@@@@ATL@@PBDPAVCJongDataInListCtrl@@PAV3@@@QBEXAAPAU__POSITION@@AAV?$CStringT@DV?$StrTraitMFC_DLL@DV?$ChTraitsCRT@D@ATL@@@@@ATL@@AAPAVCJongDataInListCtrl@@@Z ; CMap<ATL::CStringT<char,StrTraitMFC_DLL<char,ATL::ChTraitsCRT<char> > >,char const *,CJongDataInListCtrl *,CJongDataInListCtrl *>::GetNextAssoc
PUBLIC	?InitHashTable@?$CMap@V?$CStringT@DV?$StrTraitMFC_DLL@DV?$ChTraitsCRT@D@ATL@@@@@ATL@@PBDPAVCJongDataInListCtrl@@PAV3@@@QAEXIH@Z ; CMap<ATL::CStringT<char,StrTraitMFC_DLL<char,ATL::ChTraitsCRT<char> > >,char const *,CJongDataInListCtrl *,CJongDataInListCtrl *>::InitHashTable
PUBLIC	?NewAssoc@?$CMap@V?$CStringT@DV?$StrTraitMFC_DLL@DV?$ChTraitsCRT@D@ATL@@@@@ATL@@PBDPAVCJongDataInListCtrl@@PAV3@@@IAEPAVCAssoc@1@PBD@Z ; CMap<ATL::CStringT<char,StrTraitMFC_DLL<char,ATL::ChTraitsCRT<char> > >,char const *,CJongDataInListCtrl *,CJongDataInListCtrl *>::NewAssoc
PUBLIC	?FreeAssoc@?$CMap@V?$CStringT@DV?$StrTraitMFC_DLL@DV?$ChTraitsCRT@D@ATL@@@@@ATL@@PBDPAVCJongDataInListCtrl@@PAV3@@@IAEXPAVCAssoc@1@@Z ; CMap<ATL::CStringT<char,StrTraitMFC_DLL<char,ATL::ChTraitsCRT<char> > >,char const *,CJongDataInListCtrl *,CJongDataInListCtrl *>::FreeAssoc
PUBLIC	?GetAssocAt@?$CMap@V?$CStringT@DV?$StrTraitMFC_DLL@DV?$ChTraitsCRT@D@ATL@@@@@ATL@@PBDPAVCJongDataInListCtrl@@PAV3@@@IBEPAVCAssoc@1@PBDAAI1@Z ; CMap<ATL::CStringT<char,StrTraitMFC_DLL<char,ATL::ChTraitsCRT<char> > >,char const *,CJongDataInListCtrl *,CJongDataInListCtrl *>::GetAssocAt
PUBLIC	??1?$CMap@V?$CStringT@DV?$StrTraitMFC_DLL@DV?$ChTraitsCRT@D@ATL@@@@@ATL@@PBDPAVCJongDataInListCtrl@@PAV3@@@UAE@XZ ; CMap<ATL::CStringT<char,StrTraitMFC_DLL<char,ATL::ChTraitsCRT<char> > >,char const *,CJongDataInListCtrl *,CJongDataInListCtrl *>::~CMap<ATL::CStringT<char,StrTraitMFC_DLL<char,ATL::ChTraitsCRT<char> > >,char const *,CJongDataInListCtrl *,CJongDataInListCtrl *>
PUBLIC	?Serialize@?$CMap@V?$CStringT@DV?$StrTraitMFC_DLL@DV?$ChTraitsCRT@D@ATL@@@@@ATL@@PBDPAVCJongDataInListCtrl@@PAV3@@@UAEXAAVCArchive@@@Z ; CMap<ATL::CStringT<char,StrTraitMFC_DLL<char,ATL::ChTraitsCRT<char> > >,char const *,CJongDataInListCtrl *,CJongDataInListCtrl *>::Serialize
PUBLIC	??_G?$CMap@V?$CStringT@DV?$StrTraitMFC_DLL@DV?$ChTraitsCRT@D@ATL@@@@@ATL@@PBDPAVCJongDataInListCtrl@@PAV3@@@UAEPAXI@Z ; CMap<ATL::CStringT<char,StrTraitMFC_DLL<char,ATL::ChTraitsCRT<char> > >,char const *,CJongDataInListCtrl *,CJongDataInListCtrl *>::`scalar deleting destructor'
PUBLIC	?InitColumns@CXListCtrlJongData@@AAEXXZ		; CXListCtrlJongData::InitColumns
PUBLIC	?SetConfig@CXListCtrlJongData@@AAEXH@Z		; CXListCtrlJongData::SetConfig
PUBLIC	?SortColumns@CXListCtrlJongData@@AAEXHH@Z	; CXListCtrlJongData::SortColumns
PUBLIC	?GetJongData@CXListCtrlJongData@@AAE?AV?$CStringT@DV?$StrTraitMFC_DLL@DV?$ChTraitsCRT@D@ATL@@@@@ATL@@HH@Z ; CXListCtrlJongData::GetJongData
PUBLIC	?ReplaceIndex@CXListCtrlJongData@@AAEXHH@Z	; CXListCtrlJongData::ReplaceIndex
PUBLIC	?InsertCodeDataLighted@CXListCtrlJongData@@AAEXPAVCJongDataInListCtrl@@H@Z ; CXListCtrlJongData::InsertCodeDataLighted
PUBLIC	?GetPosOfHighLighted@CXListCtrlJongData@@AAEHPAJ0@Z ; CXListCtrlJongData::GetPosOfHighLighted
PUBLIC	??1CXListCtrlJongData@@UAE@XZ			; CXListCtrlJongData::~CXListCtrlJongData
PUBLIC	?OnColumnClick@CXListCtrlJongData@@IAEHPAUtagNMHDR@@PAJ@Z ; CXListCtrlJongData::OnColumnClick
PUBLIC	?OnDestroy@CXListCtrlJongData@@IAEXXZ		; CXListCtrlJongData::OnDestroy
PUBLIC	?OnKeyUp@CXListCtrlJongData@@IAEXIII@Z		; CXListCtrlJongData::OnKeyUp
PUBLIC	?GetThisMessageMap@CXListCtrlJongData@@KGPBUAFX_MSGMAP@@XZ ; CXListCtrlJongData::GetThisMessageMap
PUBLIC	?GetMessageMap@CXListCtrlJongData@@MBEPBUAFX_MSGMAP@@XZ ; CXListCtrlJongData::GetMessageMap
PUBLIC	??_GCXListCtrlJongData@@UAEPAXI@Z		; CXListCtrlJongData::`scalar deleting destructor'
PUBLIC	??1STINPUTCODEDATA@@QAE@XZ			; STINPUTCODEDATA::~STINPUTCODEDATA
PUBLIC	?CompareByIndex@@YAHPBX0@Z			; CompareByIndex
PUBLIC	??$CompareElements@V?$CStringT@DV?$StrTraitMFC_DLL@DV?$ChTraitsCRT@D@ATL@@@@@ATL@@PBD@@YGHPBV?$CStringT@DV?$StrTraitMFC_DLL@DV?$ChTraitsCRT@D@ATL@@@@@ATL@@PBQBD@Z ; CompareElements<ATL::CStringT<char,StrTraitMFC_DLL<char,ATL::ChTraitsCRT<char> > >,char const *>
PUBLIC	??$SerializeElements@PAVCJongDataInListCtrl@@@@YGXAAVCArchive@@PAPAVCJongDataInListCtrl@@H@Z ; SerializeElements<CJongDataInListCtrl *>
PUBLIC	??_C@_02DPKJAMEF@?$CFd@				; `string'
PUBLIC	??_R0?AVCObject@@@8				; CObject `RTTI Type Descriptor'
PUBLIC	??_R3CObject@@8					; CObject::`RTTI Class Hierarchy Descriptor'
PUBLIC	??_R2CObject@@8					; CObject::`RTTI Base Class Array'
PUBLIC	??_R1A@?0A@EA@CObject@@8			; CObject::`RTTI Base Class Descriptor at (0,-1,0,64)'
PUBLIC	??_R1A@?0A@EA@CWnd@@8				; CWnd::`RTTI Base Class Descriptor at (0,-1,0,64)'
PUBLIC	??_R0?AVCWnd@@@8				; CWnd `RTTI Type Descriptor'
PUBLIC	??_R3CWnd@@8					; CWnd::`RTTI Class Hierarchy Descriptor'
PUBLIC	??_R2CWnd@@8					; CWnd::`RTTI Base Class Array'
PUBLIC	??_R1A@?0A@EA@CCmdTarget@@8			; CCmdTarget::`RTTI Base Class Descriptor at (0,-1,0,64)'
PUBLIC	??_R0?AVCCmdTarget@@@8				; CCmdTarget `RTTI Type Descriptor'
PUBLIC	??_R3CCmdTarget@@8				; CCmdTarget::`RTTI Class Hierarchy Descriptor'
PUBLIC	??_R2CCmdTarget@@8				; CCmdTarget::`RTTI Base Class Array'
PUBLIC	??_R0?AVCListCtrl@@@8				; CListCtrl `RTTI Type Descriptor'
PUBLIC	??_R3CListCtrl@@8				; CListCtrl::`RTTI Class Hierarchy Descriptor'
PUBLIC	??_R2CListCtrl@@8				; CListCtrl::`RTTI Base Class Array'
PUBLIC	??_R1A@?0A@EA@CListCtrl@@8			; CListCtrl::`RTTI Base Class Descriptor at (0,-1,0,64)'
PUBLIC	??_7?$CMap@V?$CStringT@DV?$StrTraitMFC_DLL@DV?$ChTraitsCRT@D@ATL@@@@@ATL@@PBDPAVCJongDataInListCtrl@@PAV3@@@6B@ ; CMap<ATL::CStringT<char,StrTraitMFC_DLL<char,ATL::ChTraitsCRT<char> > >,char const *,CJongDataInListCtrl *,CJongDataInListCtrl *>::`vftable'
PUBLIC	??_7CXListCtrlJongData@@6B@			; CXListCtrlJongData::`vftable'
PUBLIC	??_C@_0P@PLMNPDMB@?$CF02d?3?$CF02d?3?$CF02d@	; `string'
PUBLIC	??_C@_01IHBHIGKO@?0@				; `string'
PUBLIC	??_C@_01ICJEACDI@?$DL@				; `string'
PUBLIC	??_C@_0BE@HALNKGCC@XListCtrlJongData?$CFd@	; `string'
PUBLIC	??_C@_04OGKJMPGK@?$CF02d@			; `string'
PUBLIC	??_C@_0L@GHNIMMPI@?$CI?$CFd?9?$CFd?$CJ?1?$CFd@	; `string'
PUBLIC	??_C@_05LCKIIOJE@?$CFd?1?$CFd@			; `string'
PUBLIC	??_R4CXListCtrlJongData@@6B@			; CXListCtrlJongData::`RTTI Complete Object Locator'
PUBLIC	??_R0?AVCXListCtrlJongData@@@8			; CXListCtrlJongData `RTTI Type Descriptor'
PUBLIC	??_R3CXListCtrlJongData@@8			; CXListCtrlJongData::`RTTI Class Hierarchy Descriptor'
PUBLIC	??_R2CXListCtrlJongData@@8			; CXListCtrlJongData::`RTTI Base Class Array'
PUBLIC	??_R1A@?0A@EA@CXListCtrlJongData@@8		; CXListCtrlJongData::`RTTI Base Class Descriptor at (0,-1,0,64)'
PUBLIC	??_R1A@?0A@EA@CXListCtrl@@8			; CXListCtrl::`RTTI Base Class Descriptor at (0,-1,0,64)'
PUBLIC	??_R0?AVCXListCtrl@@@8				; CXListCtrl `RTTI Type Descriptor'
PUBLIC	??_R3CXListCtrl@@8				; CXListCtrl::`RTTI Class Hierarchy Descriptor'
PUBLIC	??_R2CXListCtrl@@8				; CXListCtrl::`RTTI Base Class Array'
PUBLIC	??_R4?$CMap@V?$CStringT@DV?$StrTraitMFC_DLL@DV?$ChTraitsCRT@D@ATL@@@@@ATL@@PBDPAVCJongDataInListCtrl@@PAV3@@@6B@ ; CMap<ATL::CStringT<char,StrTraitMFC_DLL<char,ATL::ChTraitsCRT<char> > >,char const *,CJongDataInListCtrl *,CJongDataInListCtrl *>::`RTTI Complete Object Locator'
PUBLIC	??_R0?AV?$CMap@V?$CStringT@DV?$StrTraitMFC_DLL@DV?$ChTraitsCRT@D@ATL@@@@@ATL@@PBDPAVCJongDataInListCtrl@@PAV3@@@@8 ; CMap<ATL::CStringT<char,StrTraitMFC_DLL<char,ATL::ChTraitsCRT<char> > >,char const *,CJongDataInListCtrl *,CJongDataInListCtrl *> `RTTI Type Descriptor'
PUBLIC	??_R3?$CMap@V?$CStringT@DV?$StrTraitMFC_DLL@DV?$ChTraitsCRT@D@ATL@@@@@ATL@@PBDPAVCJongDataInListCtrl@@PAV3@@@8 ; CMap<ATL::CStringT<char,StrTraitMFC_DLL<char,ATL::ChTraitsCRT<char> > >,char const *,CJongDataInListCtrl *,CJongDataInListCtrl *>::`RTTI Class Hierarchy Descriptor'
PUBLIC	??_R2?$CMap@V?$CStringT@DV?$StrTraitMFC_DLL@DV?$ChTraitsCRT@D@ATL@@@@@ATL@@PBDPAVCJongDataInListCtrl@@PAV3@@@8 ; CMap<ATL::CStringT<char,StrTraitMFC_DLL<char,ATL::ChTraitsCRT<char> > >,char const *,CJongDataInListCtrl *,CJongDataInListCtrl *>::`RTTI Base Class Array'
PUBLIC	??_R1A@?0A@EA@?$CMap@V?$CStringT@DV?$StrTraitMFC_DLL@DV?$ChTraitsCRT@D@ATL@@@@@ATL@@PBDPAVCJongDataInListCtrl@@PAV3@@@8 ; CMap<ATL::CStringT<char,StrTraitMFC_DLL<char,ATL::ChTraitsCRT<char> > >,char const *,CJongDataInListCtrl *,CJongDataInListCtrl *>::`RTTI Base Class Descriptor at (0,-1,0,64)'
PUBLIC	__real@c16312cfe0000000
EXTRN	??_L@YGXPAXIIP6EX0@Z1@Z:PROC			; `eh vector constructor iterator'
EXTRN	??_M@YGXPAXIIP6EX0@Z@Z:PROC			; `eh vector destructor iterator'
EXTRN	??2@YAPAXI@Z:PROC				; operator new
EXTRN	??3@YAXPAX@Z:PROC				; operator delete
EXTRN	??3@YAXPAXI@Z:PROC				; operator delete
EXTRN	?__global_delete@@YAXPAXI@Z:PROC		; __global_delete
EXTRN	??_U@YAPAXI@Z:PROC				; operator new[]
EXTRN	??_V@YAXPAX@Z:PROC				; operator delete[]
EXTRN	___std_terminate:PROC
EXTRN	__imp__GetPrivateProfileStringA@24:PROC
EXTRN	__imp__WritePrivateProfileStringA@16:PROC
EXTRN	__imp__RegisterWindowMessageA@4:PROC
EXTRN	__imp__SendMessageA@16:PROC
EXTRN	__imp__EnableWindow@8:PROC
EXTRN	__imp__InvalidateRect@12:PROC
EXTRN	__imp__GetParent@4:PROC
EXTRN	__imp__qsort:PROC
EXTRN	__imp__atof:PROC
EXTRN	__imp__atoi:PROC
EXTRN	__imp__atol:PROC
EXTRN	__imp___localtime64_s:PROC
EXTRN	__imp___time64:PROC
EXTRN	?AfxThrowMemoryException@@YGXXZ:PROC		; AfxThrowMemoryException
EXTRN	?AfxThrowInvalidArgException@@YGXXZ:PROC	; AfxThrowInvalidArgException
EXTRN	?AfxThrowArchiveException@@YGXHPBD@Z:PROC	; AfxThrowArchiveException
EXTRN	?AfxThrowOleException@@YGXJ@Z:PROC		; AfxThrowOleException
EXTRN	?GetRuntimeClass@CObject@@UBEPAUCRuntimeClass@@XZ:PROC ; CObject::GetRuntimeClass
EXTRN	__imp_?Empty@?$CSimpleStringT@D$00@ATL@@QAEXXZ:PROC
EXTRN	__imp_??0?$CStringT@DV?$StrTraitMFC_DLL@DV?$ChTraitsCRT@D@ATL@@@@@ATL@@QAE@XZ:PROC
EXTRN	__imp_??0?$CStringT@DV?$StrTraitMFC_DLL@DV?$ChTraitsCRT@D@ATL@@@@@ATL@@QAE@ABV01@@Z:PROC
EXTRN	__imp_??0?$CStringT@DV?$StrTraitMFC_DLL@DV?$ChTraitsCRT@D@ATL@@@@@ATL@@QAE@PBD@Z:PROC
EXTRN	__imp_??1?$CStringT@DV?$StrTraitMFC_DLL@DV?$ChTraitsCRT@D@ATL@@@@@ATL@@QAE@XZ:PROC
EXTRN	__imp_??4?$CStringT@DV?$StrTraitMFC_DLL@DV?$ChTraitsCRT@D@ATL@@@@@ATL@@QAEAAV01@ABV01@@Z:PROC
EXTRN	__imp_??4?$CStringT@DV?$StrTraitMFC_DLL@DV?$ChTraitsCRT@D@ATL@@@@@ATL@@QAEAAV01@PBD@Z:PROC
EXTRN	__imp_??Y?$CStringT@DV?$StrTraitMFC_DLL@DV?$ChTraitsCRT@D@ATL@@@@@ATL@@QAEAAV01@ABV?$CSimpleStringT@D$00@1@@Z:PROC
EXTRN	__imp_??Y?$CStringT@DV?$StrTraitMFC_DLL@DV?$ChTraitsCRT@D@ATL@@@@@ATL@@QAEAAV01@PBD@Z:PROC
EXTRN	__imp_?Compare@?$CStringT@DV?$StrTraitMFC_DLL@DV?$ChTraitsCRT@D@ATL@@@@@ATL@@QBEHPBD@Z:PROC
EXTRN	__imp_?Insert@?$CStringT@DV?$StrTraitMFC_DLL@DV?$ChTraitsCRT@D@ATL@@@@@ATL@@QAEHHD@Z:PROC
EXTRN	__imp_?Remove@?$CStringT@DV?$StrTraitMFC_DLL@DV?$ChTraitsCRT@D@ATL@@@@@ATL@@QAEHD@Z:PROC
EXTRN	__imp_?Find@?$CStringT@DV?$StrTraitMFC_DLL@DV?$ChTraitsCRT@D@ATL@@@@@ATL@@QBEHDH@Z:PROC
EXTRN	__imp_?TrimRight@?$CStringT@DV?$StrTraitMFC_DLL@DV?$ChTraitsCRT@D@ATL@@@@@ATL@@QAEAAV12@XZ:PROC
EXTRN	__imp_?TrimRight@?$CStringT@DV?$StrTraitMFC_DLL@DV?$ChTraitsCRT@D@ATL@@@@@ATL@@QAEAAV12@D@Z:PROC
EXTRN	__imp_?TrimLeft@?$CStringT@DV?$StrTraitMFC_DLL@DV?$ChTraitsCRT@D@ATL@@@@@ATL@@QAEAAV12@D@Z:PROC
EXTRN	__imp_?Format@?$CStringT@DV?$StrTraitMFC_DLL@DV?$ChTraitsCRT@D@ATL@@@@@ATL@@QAAXPBDZZ:PROC
EXTRN	?Read@CArchive@@QAEIPAXI@Z:PROC			; CArchive::Read
EXTRN	?Write@CArchive@@QAEXPBXI@Z:PROC		; CArchive::Write
EXTRN	?ReadCount@CArchive@@QAEKXZ:PROC		; CArchive::ReadCount
EXTRN	?WriteCount@CArchive@@QAEXK@Z:PROC		; CArchive::WriteCount
EXTRN	??0CUIntArray@@QAE@XZ:PROC			; CUIntArray::CUIntArray
EXTRN	?SetAtGrow@CUIntArray@@QAEXHI@Z:PROC		; CUIntArray::SetAtGrow
EXTRN	??1CUIntArray@@UAE@XZ:PROC			; CUIntArray::~CUIntArray
EXTRN	??0CStringArray@@QAE@XZ:PROC			; CStringArray::CStringArray
EXTRN	??1CStringArray@@UAE@XZ:PROC			; CStringArray::~CStringArray
EXTRN	?AddTail@CStringList@@QAEPAU__POSITION@@ABV?$CStringT@DV?$StrTraitMFC_DLL@DV?$ChTraitsCRT@D@ATL@@@@@ATL@@@Z:PROC ; CStringList::AddTail
EXTRN	?RemoveAt@CStringList@@QAEXPAU__POSITION@@@Z:PROC ; CStringList::RemoveAt
EXTRN	?Find@CStringList@@QBEPAU__POSITION@@PBDPAU2@@Z:PROC ; CStringList::Find
EXTRN	?Create@CPlex@@SGPAU1@AAPAU1@II@Z:PROC		; CPlex::Create
EXTRN	?FreeDataChain@CPlex@@QAEXXZ:PROC		; CPlex::FreeDataChain
EXTRN	??$SerializeElements@V?$CStringT@DV?$StrTraitMFC_DLL@DV?$ChTraitsCRT@D@ATL@@@@@ATL@@@@YGXAAVCArchive@@PAV?$CStringT@DV?$StrTraitMFC_DLL@DV?$ChTraitsCRT@D@ATL@@@@@ATL@@H@Z:PROC ; SerializeElements<ATL::CStringT<char,StrTraitMFC_DLL<char,ATL::ChTraitsCRT<char> > > >
EXTRN	??$HashKey@PBD@@YGIPBD@Z:PROC			; HashKey<char const *>
EXTRN	?OnCmdMsg@CCmdTarget@@UAEHIHPAXPAUAFX_CMDHANDLERINFO@@@Z:PROC ; CCmdTarget::OnCmdMsg
EXTRN	?IsInvokeAllowed@CCmdTarget@@UAEHJ@Z:PROC	; CCmdTarget::IsInvokeAllowed
EXTRN	?GetDispatchIID@CCmdTarget@@UAEHPAU_GUID@@@Z:PROC ; CCmdTarget::GetDispatchIID
EXTRN	?GetTypeInfoCount@CCmdTarget@@UAEIXZ:PROC	; CCmdTarget::GetTypeInfoCount
EXTRN	?GetTypeLibCache@CCmdTarget@@UAEPAVCTypeLibCache@@XZ:PROC ; CCmdTarget::GetTypeLibCache
EXTRN	?GetTypeLib@CCmdTarget@@UAEJKPAPAUITypeLib@@@Z:PROC ; CCmdTarget::GetTypeLib
EXTRN	?GetCommandMap@CCmdTarget@@MBEPBUAFX_OLECMDMAP@@XZ:PROC ; CCmdTarget::GetCommandMap
EXTRN	?GetDispatchMap@CCmdTarget@@MBEPBUAFX_DISPMAP@@XZ:PROC ; CCmdTarget::GetDispatchMap
EXTRN	?GetConnectionMap@CCmdTarget@@MBEPBUAFX_CONNECTIONMAP@@XZ:PROC ; CCmdTarget::GetConnectionMap
EXTRN	?GetEventSinkMap@CCmdTarget@@MBEPBUAFX_EVENTSINKMAP@@XZ:PROC ; CCmdTarget::GetEventSinkMap
EXTRN	?OnCreateAggregates@CCmdTarget@@UAEHXZ:PROC	; CCmdTarget::OnCreateAggregates
EXTRN	?GetInterfaceHook@CCmdTarget@@UAEPAUIUnknown@@PBX@Z:PROC ; CCmdTarget::GetInterfaceHook
EXTRN	?GetExtraConnectionPoints@CCmdTarget@@MAEHPAVCPtrArray@@@Z:PROC ; CCmdTarget::GetExtraConnectionPoints
EXTRN	?GetConnectionHook@CCmdTarget@@MAEPAUIConnectionPoint@@ABU_GUID@@@Z:PROC ; CCmdTarget::GetConnectionHook
EXTRN	?FromHandle@CWnd@@SGPAV1@PAUHWND__@@@Z:PROC	; CWnd::FromHandle
EXTRN	?Create@CWnd@@UAEHPBD0KABUtagRECT@@PAV1@IPAUCCreateContext@@@Z:PROC ; CWnd::Create
EXTRN	?CreateEx@CWnd@@UAEHKPBD0KHHHHPAUHWND__@@PAUHMENU__@@PAX@Z:PROC ; CWnd::CreateEx
EXTRN	?CreateEx@CWnd@@UAEHKPBD0KABUtagRECT@@PAV1@IPAX@Z:PROC ; CWnd::CreateEx
EXTRN	?DestroyWindow@CWnd@@UAEHXZ:PROC		; CWnd::DestroyWindow
EXTRN	?PreCreateWindow@CWnd@@UAEHAAUtagCREATESTRUCTA@@@Z:PROC ; CWnd::PreCreateWindow
EXTRN	?CalcWindowRect@CWnd@@UAEXPAUtagRECT@@I@Z:PROC	; CWnd::CalcWindowRect
EXTRN	?GetMenu@CWnd@@UBEPAVCMenu@@XZ:PROC		; CWnd::GetMenu
EXTRN	?SetMenu@CWnd@@UAEHPAVCMenu@@@Z:PROC		; CWnd::SetMenu
EXTRN	?GetScrollBarCtrl@CWnd@@UBEPAVCScrollBar@@H@Z:PROC ; CWnd::GetScrollBarCtrl
EXTRN	?WinHelpA@CWnd@@UAEXKI@Z:PROC			; CWnd::WinHelpA
EXTRN	?HtmlHelpA@CWnd@@UAEXKI@Z:PROC			; CWnd::HtmlHelpA
EXTRN	?WinHelpInternal@CWnd@@UAEXKI@Z:PROC		; CWnd::WinHelpInternal
EXTRN	?ContinueModal@CWnd@@UAEHXZ:PROC		; CWnd::ContinueModal
EXTRN	?EndModalLoop@CWnd@@UAEXH@Z:PROC		; CWnd::EndModalLoop
EXTRN	?OnDrawIconicThumbnailOrLivePreview@CWnd@@UAEXAAVCDC@@VCRect@@VCSize@@HAAH@Z:PROC ; CWnd::OnDrawIconicThumbnailOrLivePreview
EXTRN	?GetInterfaceMap@CWnd@@MBEPBUAFX_INTERFACEMAP@@XZ:PROC ; CWnd::GetInterfaceMap
EXTRN	?EnsureStdObj@CWnd@@UAEJXZ:PROC			; CWnd::EnsureStdObj
EXTRN	?get_accParent@CWnd@@UAEJPAPAUIDispatch@@@Z:PROC ; CWnd::get_accParent
EXTRN	?get_accChildCount@CWnd@@UAEJPAJ@Z:PROC		; CWnd::get_accChildCount
EXTRN	?get_accChild@CWnd@@UAEJUtagVARIANT@@PAPAUIDispatch@@@Z:PROC ; CWnd::get_accChild
EXTRN	?get_accName@CWnd@@UAEJUtagVARIANT@@PAPA_W@Z:PROC ; CWnd::get_accName
EXTRN	?get_accValue@CWnd@@UAEJUtagVARIANT@@PAPA_W@Z:PROC ; CWnd::get_accValue
EXTRN	?get_accDescription@CWnd@@UAEJUtagVARIANT@@PAPA_W@Z:PROC ; CWnd::get_accDescription
EXTRN	?get_accRole@CWnd@@UAEJUtagVARIANT@@PAU2@@Z:PROC ; CWnd::get_accRole
EXTRN	?get_accState@CWnd@@UAEJUtagVARIANT@@PAU2@@Z:PROC ; CWnd::get_accState
EXTRN	?get_accHelp@CWnd@@UAEJUtagVARIANT@@PAPA_W@Z:PROC ; CWnd::get_accHelp
EXTRN	?get_accHelpTopic@CWnd@@UAEJPAPA_WUtagVARIANT@@PAJ@Z:PROC ; CWnd::get_accHelpTopic
EXTRN	?get_accKeyboardShortcut@CWnd@@UAEJUtagVARIANT@@PAPA_W@Z:PROC ; CWnd::get_accKeyboardShortcut
EXTRN	?get_accFocus@CWnd@@UAEJPAUtagVARIANT@@@Z:PROC	; CWnd::get_accFocus
EXTRN	?get_accSelection@CWnd@@UAEJPAUtagVARIANT@@@Z:PROC ; CWnd::get_accSelection
EXTRN	?get_accDefaultAction@CWnd@@UAEJUtagVARIANT@@PAPA_W@Z:PROC ; CWnd::get_accDefaultAction
EXTRN	?accSelect@CWnd@@UAEJJUtagVARIANT@@@Z:PROC	; CWnd::accSelect
EXTRN	?accLocation@CWnd@@UAEJPAJ000UtagVARIANT@@@Z:PROC ; CWnd::accLocation
EXTRN	?accNavigate@CWnd@@UAEJJUtagVARIANT@@PAU2@@Z:PROC ; CWnd::accNavigate
EXTRN	?accHitTest@CWnd@@UAEJJJPAUtagVARIANT@@@Z:PROC	; CWnd::accHitTest
EXTRN	?accDoDefaultAction@CWnd@@UAEJUtagVARIANT@@@Z:PROC ; CWnd::accDoDefaultAction
EXTRN	?put_accName@CWnd@@UAEJUtagVARIANT@@PA_W@Z:PROC	; CWnd::put_accName
EXTRN	?put_accValue@CWnd@@UAEJUtagVARIANT@@PA_W@Z:PROC ; CWnd::put_accValue
EXTRN	?SetProxy@CWnd@@UAEJPAUIAccessibleProxy@@@Z:PROC ; CWnd::SetProxy
EXTRN	?CreateAccessibleProxy@CWnd@@UAEJIJPAJ@Z:PROC	; CWnd::CreateAccessibleProxy
EXTRN	?OnCommand@CWnd@@MAEHIJ@Z:PROC			; CWnd::OnCommand
EXTRN	?OnNotify@CWnd@@MAEHIJPAJ@Z:PROC		; CWnd::OnNotify
EXTRN	?GetSuperWndProcAddr@CWnd@@MAEPAP6GJPAUHWND__@@IIJ@ZXZ:PROC ; CWnd::GetSuperWndProcAddr
EXTRN	?PreTranslateMessage@CWnd@@UAEHPAUtagMSG@@@Z:PROC ; CWnd::PreTranslateMessage
EXTRN	?OnAmbientProperty@CWnd@@UAEHPAVCOleControlSite@@JPAUtagVARIANT@@@Z:PROC ; CWnd::OnAmbientProperty
EXTRN	?WindowProc@CWnd@@MAEJIIJ@Z:PROC		; CWnd::WindowProc
EXTRN	?OnWndMsg@CWnd@@MAEHIIJPAJ@Z:PROC		; CWnd::OnWndMsg
EXTRN	?Default@CWnd@@IAEJXZ:PROC			; CWnd::Default
EXTRN	?DefWindowProcA@CWnd@@MAEJIIJ@Z:PROC		; CWnd::DefWindowProcA
EXTRN	?PostNcDestroy@CWnd@@MAEXXZ:PROC		; CWnd::PostNcDestroy
EXTRN	?OnTouchInputs@CWnd@@MAEHIPAUtagTOUCHINPUT@@@Z:PROC ; CWnd::OnTouchInputs
EXTRN	?OnTouchInput@CWnd@@MAEHVCPoint@@HHPAUtagTOUCHINPUT@@@Z:PROC ; CWnd::OnTouchInput
EXTRN	?GetGestureStatus@CWnd@@MAEKVCPoint@@@Z:PROC	; CWnd::GetGestureStatus
EXTRN	?OnGestureZoom@CWnd@@MAEHVCPoint@@J@Z:PROC	; CWnd::OnGestureZoom
EXTRN	?OnGesturePan@CWnd@@MAEHVCPoint@@0@Z:PROC	; CWnd::OnGesturePan
EXTRN	?OnGestureRotate@CWnd@@MAEHVCPoint@@N@Z:PROC	; CWnd::OnGestureRotate
EXTRN	?OnGestureTwoFingerTap@CWnd@@MAEHVCPoint@@@Z:PROC ; CWnd::OnGestureTwoFingerTap
EXTRN	?OnGesturePressAndTap@CWnd@@MAEHVCPoint@@J@Z:PROC ; CWnd::OnGesturePressAndTap
EXTRN	?ResizeDynamicLayout@CWnd@@MAEXXZ:PROC		; CWnd::ResizeDynamicLayout
EXTRN	?CheckAutoCenter@CWnd@@UAEHXZ:PROC		; CWnd::CheckAutoCenter
EXTRN	?IsFrameWnd@CWnd@@UBEHXZ:PROC			; CWnd::IsFrameWnd
EXTRN	?OnFinalRelease@CWnd@@UAEXXZ:PROC		; CWnd::OnFinalRelease
EXTRN	?CreateControlContainer@CWnd@@MAEHPAPAVCOleControlContainer@@@Z:PROC ; CWnd::CreateControlContainer
EXTRN	?CreateControlSite@CWnd@@MAEHPAVCOleControlContainer@@PAPAVCOleControlSite@@IABU_GUID@@@Z:PROC ; CWnd::CreateControlSite
EXTRN	?SetOccDialogInfo@CWnd@@MAEHPAU_AFX_OCC_DIALOG_INFO@@@Z:PROC ; CWnd::SetOccDialogInfo
EXTRN	?GetOccDialogInfo@CWnd@@MAEPAU_AFX_OCC_DIALOG_INFO@@XZ:PROC ; CWnd::GetOccDialogInfo
EXTRN	?GetRuntimeClass@CListCtrl@@UBEPAUCRuntimeClass@@XZ:PROC ; CListCtrl::GetRuntimeClass
EXTRN	?GetItemRect@CListCtrl@@QBEHHPAUtagRECT@@I@Z:PROC ; CListCtrl::GetItemRect
EXTRN	?GetItemText@CListCtrl@@QBEHHHPADH@Z:PROC	; CListCtrl::GetItemText
EXTRN	?DrawItem@CListCtrl@@UAEXPAUtagDRAWITEMSTRUCT@@@Z:PROC ; CListCtrl::DrawItem
EXTRN	?OnChildNotify@CListCtrl@@MAEHIIJPAJ@Z:PROC	; CListCtrl::OnChildNotify
EXTRN	??0CXListCtrl@@QAE@XZ:PROC			; CXListCtrl::CXListCtrl
EXTRN	??1CXListCtrl@@UAE@XZ:PROC			; CXListCtrl::~CXListCtrl
EXTRN	?DeleteAllItems@CXListCtrl@@QAEHXZ:PROC		; CXListCtrl::DeleteAllItems
EXTRN	?DeleteItem@CXListCtrl@@QAEHH@Z:PROC		; CXListCtrl::DeleteItem
EXTRN	?GetCheckbox@CXListCtrl@@QAEHHH@Z:PROC		; CXListCtrl::GetCheckbox
EXTRN	?GetCurSel@CXListCtrl@@QAEHXZ:PROC		; CXListCtrl::GetCurSel
EXTRN	?GetItemData@CXListCtrl@@QAEKH@Z:PROC		; CXListCtrl::GetItemData
EXTRN	?InsertItem@CXListCtrl@@QAEHHPBD@Z:PROC		; CXListCtrl::InsertItem
EXTRN	?SetCheckbox@CXListCtrl@@QAEHHHHH@Z:PROC	; CXListCtrl::SetCheckbox
EXTRN	?SetCurSel@CXListCtrl@@QAEHHH@Z:PROC		; CXListCtrl::SetCurSel
EXTRN	?SetItemData@CXListCtrl@@QAEHHK@Z:PROC		; CXListCtrl::SetItemData
EXTRN	?SetItemText@CXListCtrl@@QAEHHHPBD@Z:PROC	; CXListCtrl::SetItemText
EXTRN	?SetItemText@CXListCtrl@@QAEHHHPBDKKH@Z:PROC	; CXListCtrl::SetItemText
EXTRN	?SetSortImage@CXListCtrl@@QAEXHH@Z:PROC		; CXListCtrl::SetSortImage
EXTRN	?OnToolHitTest@CXListCtrl@@UBEHVCPoint@@PAUtagTOOLINFOA@@@Z:PROC ; CXListCtrl::OnToolHitTest
EXTRN	?PreSubclassWindow@CXListCtrl@@UAEXXZ:PROC	; CXListCtrl::PreSubclassWindow
EXTRN	?GetDrawColors@CXListCtrl@@MAEXHHAAK0@Z:PROC	; CXListCtrl::GetDrawColors
EXTRN	?OnColumnClick@CXListCtrl@@IAEHPAUtagNMHDR@@PAJ@Z:PROC ; CXListCtrl::OnColumnClick
EXTRN	?OnDestroy@CXListCtrl@@IAEXXZ:PROC		; CXListCtrl::OnDestroy
EXTRN	?OnToolTipText@CXListCtrl@@MAEHIPAUtagNMHDR@@PAJ@Z:PROC ; CXListCtrl::OnToolTipText
EXTRN	?GetThisMessageMap@CXListCtrl@@KGPBUAFX_MSGMAP@@XZ:PROC ; CXListCtrl::GetThisMessageMap
EXTRN	??_E?$CMap@V?$CStringT@DV?$StrTraitMFC_DLL@DV?$ChTraitsCRT@D@ATL@@@@@ATL@@PBDPAVCJongDataInListCtrl@@PAV3@@@UAEPAXI@Z:PROC ; CMap<ATL::CStringT<char,StrTraitMFC_DLL<char,ATL::ChTraitsCRT<char> > >,char const *,CJongDataInListCtrl *,CJongDataInListCtrl *>::`vector deleting destructor'
EXTRN	??_ECXListCtrlJongData@@UAEPAXI@Z:PROC		; CXListCtrlJongData::`vector deleting destructor'
EXTRN	?GetEnableWindow@CLeftBarDlg@@QAEHXZ:PROC	; CLeftBarDlg::GetEnableWindow
EXTRN	__imp__PlaySoundA@12:PROC
EXTRN	?SetComma@@YA?AV?$CStringT@DV?$StrTraitMFC_DLL@DV?$ChTraitsCRT@D@ATL@@@@@ATL@@V12@H@Z:PROC ; SetComma
EXTRN	@__security_check_cookie@4:PROC
EXTRN	___CxxFrameHandler3:PROC
EXTRN	_memset:PROC
EXTRN	??_7type_info@@6B@:QWORD			; type_info::`vftable'
EXTRN	___security_cookie:DWORD
EXTRN	__fltused:DWORD
_BSS	SEGMENT
?RMSG_GETSIGNAL_REAL@@3IB DD 01H DUP (?)		; RMSG_GETSIGNAL_REAL
?RMSG_CHARTMAIN@@3IB DD 01H DUP (?)			; RMSG_CHARTMAIN
?RMS_ANALYSIS_FUNC@@3IB DD 01H DUP (?)			; RMS_ANALYSIS_FUNC
?RMSG_GET_USERID@@3IB DD 01H DUP (?)			; RMSG_GET_USERID
?RMSG_KSDLLINFO@@3IB DD 01H DUP (?)			; RMSG_KSDLLINFO
?RMSG_GETINFO@@3IB DD 01H DUP (?)			; RMSG_GETINFO
?RMSG_CHANGE_SKINCOLOR@@3IB DD 01H DUP (?)		; RMSG_CHANGE_SKINCOLOR
?RMSG_GET_SKINCOLOR@@3IB DD 01H DUP (?)			; RMSG_GET_SKINCOLOR
?RMSG_CHANGE_CROSSLINE@@3IB DD 01H DUP (?)		; RMSG_CHANGE_CROSSLINE
_BSS	ENDS
CRT$XCU	SEGMENT
?RMSG_GETSIGNAL_REAL$initializer$@@3P6AXXZA DD FLAT:??__ERMSG_GETSIGNAL_REAL@@YAXXZ ; RMSG_GETSIGNAL_REAL$initializer$
CRT$XCU	ENDS
;	COMDAT __real@c16312cfe0000000
CONST	SEGMENT
__real@c16312cfe0000000 DQ 0c16312cfe0000000r	; -1e+07
CONST	ENDS
;	COMDAT ??_R1A@?0A@EA@?$CMap@V?$CStringT@DV?$StrTraitMFC_DLL@DV?$ChTraitsCRT@D@ATL@@@@@ATL@@PBDPAVCJongDataInListCtrl@@PAV3@@@8
rdata$r	SEGMENT
??_R1A@?0A@EA@?$CMap@V?$CStringT@DV?$StrTraitMFC_DLL@DV?$ChTraitsCRT@D@ATL@@@@@ATL@@PBDPAVCJongDataInListCtrl@@PAV3@@@8 DD FLAT:??_R0?AV?$CMap@V?$CStringT@DV?$StrTraitMFC_DLL@DV?$ChTraitsCRT@D@ATL@@@@@ATL@@PBDPAVCJongDataInListCtrl@@PAV3@@@@8 ; CMap<ATL::CStringT<char,StrTraitMFC_DLL<char,ATL::ChTraitsCRT<char> > >,char const *,CJongDataInListCtrl *,CJongDataInListCtrl *>::`RTTI Base Class Descriptor at (0,-1,0,64)'
	DD	01H
	DD	00H
	DD	0ffffffffH
	DD	00H
	DD	040H
	DD	FLAT:??_R3?$CMap@V?$CStringT@DV?$StrTraitMFC_DLL@DV?$ChTraitsCRT@D@ATL@@@@@ATL@@PBDPAVCJongDataInListCtrl@@PAV3@@@8
rdata$r	ENDS
;	COMDAT ??_R2?$CMap@V?$CStringT@DV?$StrTraitMFC_DLL@DV?$ChTraitsCRT@D@ATL@@@@@ATL@@PBDPAVCJongDataInListCtrl@@PAV3@@@8
rdata$r	SEGMENT
??_R2?$CMap@V?$CStringT@DV?$StrTraitMFC_DLL@DV?$ChTraitsCRT@D@ATL@@@@@ATL@@PBDPAVCJongDataInListCtrl@@PAV3@@@8 DD FLAT:??_R1A@?0A@EA@?$CMap@V?$CStringT@DV?$StrTraitMFC_DLL@DV?$ChTraitsCRT@D@ATL@@@@@ATL@@PBDPAVCJongDataInListCtrl@@PAV3@@@8 ; CMap<ATL::CStringT<char,StrTraitMFC_DLL<char,ATL::ChTraitsCRT<char> > >,char const *,CJongDataInListCtrl *,CJongDataInListCtrl *>::`RTTI Base Class Array'
	DD	FLAT:??_R1A@?0A@EA@CObject@@8
rdata$r	ENDS
;	COMDAT ??_R3?$CMap@V?$CStringT@DV?$StrTraitMFC_DLL@DV?$ChTraitsCRT@D@ATL@@@@@ATL@@PBDPAVCJongDataInListCtrl@@PAV3@@@8
rdata$r	SEGMENT
??_R3?$CMap@V?$CStringT@DV?$StrTraitMFC_DLL@DV?$ChTraitsCRT@D@ATL@@@@@ATL@@PBDPAVCJongDataInListCtrl@@PAV3@@@8 DD 00H ; CMap<ATL::CStringT<char,StrTraitMFC_DLL<char,ATL::ChTraitsCRT<char> > >,char const *,CJongDataInListCtrl *,CJongDataInListCtrl *>::`RTTI Class Hierarchy Descriptor'
	DD	00H
	DD	02H
	DD	FLAT:??_R2?$CMap@V?$CStringT@DV?$StrTraitMFC_DLL@DV?$ChTraitsCRT@D@ATL@@@@@ATL@@PBDPAVCJongDataInListCtrl@@PAV3@@@8
rdata$r	ENDS
;	COMDAT ??_R0?AV?$CMap@V?$CStringT@DV?$StrTraitMFC_DLL@DV?$ChTraitsCRT@D@ATL@@@@@ATL@@PBDPAVCJongDataInListCtrl@@PAV3@@@@8
data$rs	SEGMENT
??_R0?AV?$CMap@V?$CStringT@DV?$StrTraitMFC_DLL@DV?$ChTraitsCRT@D@ATL@@@@@ATL@@PBDPAVCJongDataInListCtrl@@PAV3@@@@8 DD FLAT:??_7type_info@@6B@ ; CMap<ATL::CStringT<char,StrTraitMFC_DLL<char,ATL::ChTraitsCRT<char> > >,char const *,CJongDataInListCtrl *,CJongDataInListCtrl *> `RTTI Type Descriptor'
	DD	00H
	DB	'.?AV?$CMap@V?$CStringT@DV?$StrTraitMFC_DLL@DV?$ChTraitsC'
	DB	'RT@D@ATL@@@@@ATL@@PBDPAVCJongDataInListCtrl@@PAV3@@@', 00H
data$rs	ENDS
;	COMDAT ??_R4?$CMap@V?$CStringT@DV?$StrTraitMFC_DLL@DV?$ChTraitsCRT@D@ATL@@@@@ATL@@PBDPAVCJongDataInListCtrl@@PAV3@@@6B@
rdata$r	SEGMENT
??_R4?$CMap@V?$CStringT@DV?$StrTraitMFC_DLL@DV?$ChTraitsCRT@D@ATL@@@@@ATL@@PBDPAVCJongDataInListCtrl@@PAV3@@@6B@ DD 00H ; CMap<ATL::CStringT<char,StrTraitMFC_DLL<char,ATL::ChTraitsCRT<char> > >,char const *,CJongDataInListCtrl *,CJongDataInListCtrl *>::`RTTI Complete Object Locator'
	DD	00H
	DD	00H
	DD	FLAT:??_R0?AV?$CMap@V?$CStringT@DV?$StrTraitMFC_DLL@DV?$ChTraitsCRT@D@ATL@@@@@ATL@@PBDPAVCJongDataInListCtrl@@PAV3@@@@8
	DD	FLAT:??_R3?$CMap@V?$CStringT@DV?$StrTraitMFC_DLL@DV?$ChTraitsCRT@D@ATL@@@@@ATL@@PBDPAVCJongDataInListCtrl@@PAV3@@@8
rdata$r	ENDS
;	COMDAT ??_R2CXListCtrl@@8
rdata$r	SEGMENT
??_R2CXListCtrl@@8 DD FLAT:??_R1A@?0A@EA@CXListCtrl@@8	; CXListCtrl::`RTTI Base Class Array'
	DD	FLAT:??_R1A@?0A@EA@CListCtrl@@8
	DD	FLAT:??_R1A@?0A@EA@CWnd@@8
	DD	FLAT:??_R1A@?0A@EA@CCmdTarget@@8
	DD	FLAT:??_R1A@?0A@EA@CObject@@8
rdata$r	ENDS
;	COMDAT ??_R3CXListCtrl@@8
rdata$r	SEGMENT
??_R3CXListCtrl@@8 DD 00H				; CXListCtrl::`RTTI Class Hierarchy Descriptor'
	DD	00H
	DD	05H
	DD	FLAT:??_R2CXListCtrl@@8
rdata$r	ENDS
;	COMDAT ??_R0?AVCXListCtrl@@@8
data$rs	SEGMENT
??_R0?AVCXListCtrl@@@8 DD FLAT:??_7type_info@@6B@	; CXListCtrl `RTTI Type Descriptor'
	DD	00H
	DB	'.?AVCXListCtrl@@', 00H
data$rs	ENDS
;	COMDAT ??_R1A@?0A@EA@CXListCtrl@@8
rdata$r	SEGMENT
??_R1A@?0A@EA@CXListCtrl@@8 DD FLAT:??_R0?AVCXListCtrl@@@8 ; CXListCtrl::`RTTI Base Class Descriptor at (0,-1,0,64)'
	DD	04H
	DD	00H
	DD	0ffffffffH
	DD	00H
	DD	040H
	DD	FLAT:??_R3CXListCtrl@@8
rdata$r	ENDS
;	COMDAT ??_R1A@?0A@EA@CXListCtrlJongData@@8
rdata$r	SEGMENT
??_R1A@?0A@EA@CXListCtrlJongData@@8 DD FLAT:??_R0?AVCXListCtrlJongData@@@8 ; CXListCtrlJongData::`RTTI Base Class Descriptor at (0,-1,0,64)'
	DD	05H
	DD	00H
	DD	0ffffffffH
	DD	00H
	DD	040H
	DD	FLAT:??_R3CXListCtrlJongData@@8
rdata$r	ENDS
;	COMDAT ??_R2CXListCtrlJongData@@8
rdata$r	SEGMENT
??_R2CXListCtrlJongData@@8 DD FLAT:??_R1A@?0A@EA@CXListCtrlJongData@@8 ; CXListCtrlJongData::`RTTI Base Class Array'
	DD	FLAT:??_R1A@?0A@EA@CXListCtrl@@8
	DD	FLAT:??_R1A@?0A@EA@CListCtrl@@8
	DD	FLAT:??_R1A@?0A@EA@CWnd@@8
	DD	FLAT:??_R1A@?0A@EA@CCmdTarget@@8
	DD	FLAT:??_R1A@?0A@EA@CObject@@8
rdata$r	ENDS
;	COMDAT ??_R3CXListCtrlJongData@@8
rdata$r	SEGMENT
??_R3CXListCtrlJongData@@8 DD 00H			; CXListCtrlJongData::`RTTI Class Hierarchy Descriptor'
	DD	00H
	DD	06H
	DD	FLAT:??_R2CXListCtrlJongData@@8
rdata$r	ENDS
;	COMDAT ??_R0?AVCXListCtrlJongData@@@8
data$rs	SEGMENT
??_R0?AVCXListCtrlJongData@@@8 DD FLAT:??_7type_info@@6B@ ; CXListCtrlJongData `RTTI Type Descriptor'
	DD	00H
	DB	'.?AVCXListCtrlJongData@@', 00H
data$rs	ENDS
;	COMDAT ??_R4CXListCtrlJongData@@6B@
rdata$r	SEGMENT
??_R4CXListCtrlJongData@@6B@ DD 00H			; CXListCtrlJongData::`RTTI Complete Object Locator'
	DD	00H
	DD	00H
	DD	FLAT:??_R0?AVCXListCtrlJongData@@@8
	DD	FLAT:??_R3CXListCtrlJongData@@8
rdata$r	ENDS
;	COMDAT ??_C@_05LCKIIOJE@?$CFd?1?$CFd@
CONST	SEGMENT
??_C@_05LCKIIOJE@?$CFd?1?$CFd@ DB '%d/%d', 00H		; `string'
CONST	ENDS
;	COMDAT ??_C@_0L@GHNIMMPI@?$CI?$CFd?9?$CFd?$CJ?1?$CFd@
CONST	SEGMENT
??_C@_0L@GHNIMMPI@?$CI?$CFd?9?$CFd?$CJ?1?$CFd@ DB '(%d-%d)/%d', 00H ; `string'
CONST	ENDS
;	COMDAT ??_C@_04OGKJMPGK@?$CF02d@
CONST	SEGMENT
??_C@_04OGKJMPGK@?$CF02d@ DB '%02d', 00H		; `string'
CONST	ENDS
;	COMDAT ??_C@_0BE@HALNKGCC@XListCtrlJongData?$CFd@
CONST	SEGMENT
??_C@_0BE@HALNKGCC@XListCtrlJongData?$CFd@ DB 'XListCtrlJongData%d', 00H ; `string'
CONST	ENDS
;	COMDAT ??_C@_01ICJEACDI@?$DL@
CONST	SEGMENT
??_C@_01ICJEACDI@?$DL@ DB ';', 00H			; `string'
CONST	ENDS
;	COMDAT ??_C@_01IHBHIGKO@?0@
CONST	SEGMENT
??_C@_01IHBHIGKO@?0@ DB ',', 00H			; `string'
CONST	ENDS
;	COMDAT ??_C@_0P@PLMNPDMB@?$CF02d?3?$CF02d?3?$CF02d@
CONST	SEGMENT
??_C@_0P@PLMNPDMB@?$CF02d?3?$CF02d?3?$CF02d@ DB '%02d:%02d:%02d', 00H ; `string'
CONST	ENDS
;	COMDAT ?messageMap@?1??GetThisMessageMap@CXListCtrlJongData@@KGPBUAFX_MSGMAP@@XZ@4U3@B
CONST	SEGMENT
?messageMap@?1??GetThisMessageMap@CXListCtrlJongData@@KGPBUAFX_MSGMAP@@XZ@4U3@B DD FLAT:?GetThisMessageMap@CXListCtrl@@KGPBUAFX_MSGMAP@@XZ ; `CXListCtrlJongData::GetThisMessageMap'::`2'::messageMap
	DD	FLAT:?_messageEntries@?1??GetThisMessageMap@CXListCtrlJongData@@KGPBUAFX_MSGMAP@@XZ@4QBUAFX_MSGMAP_ENTRY@@B
CONST	ENDS
;	COMDAT ?_messageEntries@?1??GetThisMessageMap@CXListCtrlJongData@@KGPBUAFX_MSGMAP@@XZ@4QBUAFX_MSGMAP_ENTRY@@B
CONST	SEGMENT
?_messageEntries@?1??GetThisMessageMap@CXListCtrlJongData@@KGPBUAFX_MSGMAP@@XZ@4QBUAFX_MSGMAP_ENTRY@@B DD 0bc4eH ; `CXListCtrlJongData::GetThisMessageMap'::`2'::_messageEntries
	DD	0ff94H
	DD	00H
	DD	00H
	DD	03fH
	DD	FLAT:?OnColumnClick@CXListCtrlJongData@@IAEHPAUtagNMHDR@@PAJ@Z
	DD	02H
	DD	00H
	DD	00H
	DD	00H
	DD	013H
	DD	FLAT:?OnDestroy@CXListCtrlJongData@@IAEXXZ
	DD	0101H
	DD	00H
	DD	00H
	DD	00H
	DD	019H
	DD	FLAT:?OnKeyUp@CXListCtrlJongData@@IAEXIII@Z
	DD	00H
	DD	00H
	DD	00H
	DD	00H
	DD	00H
	DD	00H
CONST	ENDS
;	COMDAT ??_7CXListCtrlJongData@@6B@
CONST	SEGMENT
??_7CXListCtrlJongData@@6B@ DD FLAT:??_R4CXListCtrlJongData@@6B@ ; CXListCtrlJongData::`vftable'
	DD	FLAT:?GetRuntimeClass@CListCtrl@@UBEPAUCRuntimeClass@@XZ
	DD	FLAT:??_ECXListCtrlJongData@@UAEPAXI@Z
	DD	FLAT:?Serialize@CObject@@UAEXAAVCArchive@@@Z
	DD	FLAT:?AssertValid@CObject@@UBEXXZ
	DD	FLAT:?Dump@CObject@@UBEXAAVCDumpContext@@@Z
	DD	FLAT:?OnCmdMsg@CCmdTarget@@UAEHIHPAXPAUAFX_CMDHANDLERINFO@@@Z
	DD	FLAT:?OnFinalRelease@CWnd@@UAEXXZ
	DD	FLAT:?IsInvokeAllowed@CCmdTarget@@UAEHJ@Z
	DD	FLAT:?GetDispatchIID@CCmdTarget@@UAEHPAU_GUID@@@Z
	DD	FLAT:?GetTypeInfoCount@CCmdTarget@@UAEIXZ
	DD	FLAT:?GetTypeLibCache@CCmdTarget@@UAEPAVCTypeLibCache@@XZ
	DD	FLAT:?GetTypeLib@CCmdTarget@@UAEJKPAPAUITypeLib@@@Z
	DD	FLAT:?GetMessageMap@CXListCtrlJongData@@MBEPBUAFX_MSGMAP@@XZ
	DD	FLAT:?GetCommandMap@CCmdTarget@@MBEPBUAFX_OLECMDMAP@@XZ
	DD	FLAT:?GetDispatchMap@CCmdTarget@@MBEPBUAFX_DISPMAP@@XZ
	DD	FLAT:?GetConnectionMap@CCmdTarget@@MBEPBUAFX_CONNECTIONMAP@@XZ
	DD	FLAT:?GetInterfaceMap@CWnd@@MBEPBUAFX_INTERFACEMAP@@XZ
	DD	FLAT:?GetEventSinkMap@CCmdTarget@@MBEPBUAFX_EVENTSINKMAP@@XZ
	DD	FLAT:?OnCreateAggregates@CCmdTarget@@UAEHXZ
	DD	FLAT:?GetInterfaceHook@CCmdTarget@@UAEPAUIUnknown@@PBX@Z
	DD	FLAT:?GetExtraConnectionPoints@CCmdTarget@@MAEHPAVCPtrArray@@@Z
	DD	FLAT:?GetConnectionHook@CCmdTarget@@MAEPAUIConnectionPoint@@ABU_GUID@@@Z
	DD	FLAT:?PreSubclassWindow@CXListCtrl@@UAEXXZ
	DD	FLAT:?Create@CWnd@@UAEHPBD0KABUtagRECT@@PAV1@IPAUCCreateContext@@@Z
	DD	FLAT:?CreateEx@CWnd@@UAEHKPBD0KABUtagRECT@@PAV1@IPAX@Z
	DD	FLAT:?CreateEx@CWnd@@UAEHKPBD0KHHHHPAUHWND__@@PAUHMENU__@@PAX@Z
	DD	FLAT:?DestroyWindow@CWnd@@UAEHXZ
	DD	FLAT:?PreCreateWindow@CWnd@@UAEHAAUtagCREATESTRUCTA@@@Z
	DD	FLAT:?CalcWindowRect@CWnd@@UAEXPAUtagRECT@@I@Z
	DD	FLAT:?GetMenu@CWnd@@UBEPAVCMenu@@XZ
	DD	FLAT:?SetMenu@CWnd@@UAEHPAVCMenu@@@Z
	DD	FLAT:?OnToolHitTest@CXListCtrl@@UBEHVCPoint@@PAUtagTOOLINFOA@@@Z
	DD	FLAT:?GetScrollBarCtrl@CWnd@@UBEPAVCScrollBar@@H@Z
	DD	FLAT:?WinHelpA@CWnd@@UAEXKI@Z
	DD	FLAT:?HtmlHelpA@CWnd@@UAEXKI@Z
	DD	FLAT:?WinHelpInternal@CWnd@@UAEXKI@Z
	DD	FLAT:?ContinueModal@CWnd@@UAEHXZ
	DD	FLAT:?EndModalLoop@CWnd@@UAEXH@Z
	DD	FLAT:?OnDrawIconicThumbnailOrLivePreview@CWnd@@UAEXAAVCDC@@VCRect@@VCSize@@HAAH@Z
	DD	FLAT:?EnsureStdObj@CWnd@@UAEJXZ
	DD	FLAT:?get_accParent@CWnd@@UAEJPAPAUIDispatch@@@Z
	DD	FLAT:?get_accChildCount@CWnd@@UAEJPAJ@Z
	DD	FLAT:?get_accChild@CWnd@@UAEJUtagVARIANT@@PAPAUIDispatch@@@Z
	DD	FLAT:?get_accName@CWnd@@UAEJUtagVARIANT@@PAPA_W@Z
	DD	FLAT:?get_accValue@CWnd@@UAEJUtagVARIANT@@PAPA_W@Z
	DD	FLAT:?get_accDescription@CWnd@@UAEJUtagVARIANT@@PAPA_W@Z
	DD	FLAT:?get_accRole@CWnd@@UAEJUtagVARIANT@@PAU2@@Z
	DD	FLAT:?get_accState@CWnd@@UAEJUtagVARIANT@@PAU2@@Z
	DD	FLAT:?get_accHelp@CWnd@@UAEJUtagVARIANT@@PAPA_W@Z
	DD	FLAT:?get_accHelpTopic@CWnd@@UAEJPAPA_WUtagVARIANT@@PAJ@Z
	DD	FLAT:?get_accKeyboardShortcut@CWnd@@UAEJUtagVARIANT@@PAPA_W@Z
	DD	FLAT:?get_accFocus@CWnd@@UAEJPAUtagVARIANT@@@Z
	DD	FLAT:?get_accSelection@CWnd@@UAEJPAUtagVARIANT@@@Z
	DD	FLAT:?get_accDefaultAction@CWnd@@UAEJUtagVARIANT@@PAPA_W@Z
	DD	FLAT:?accSelect@CWnd@@UAEJJUtagVARIANT@@@Z
	DD	FLAT:?accLocation@CWnd@@UAEJPAJ000UtagVARIANT@@@Z
	DD	FLAT:?accNavigate@CWnd@@UAEJJUtagVARIANT@@PAU2@@Z
	DD	FLAT:?accHitTest@CWnd@@UAEJJJPAUtagVARIANT@@@Z
	DD	FLAT:?accDoDefaultAction@CWnd@@UAEJUtagVARIANT@@@Z
	DD	FLAT:?put_accName@CWnd@@UAEJUtagVARIANT@@PA_W@Z
	DD	FLAT:?put_accValue@CWnd@@UAEJUtagVARIANT@@PA_W@Z
	DD	FLAT:?SetProxy@CWnd@@UAEJPAUIAccessibleProxy@@@Z
	DD	FLAT:?CreateAccessibleProxy@CWnd@@UAEJIJPAJ@Z
	DD	FLAT:?OnCommand@CWnd@@MAEHIJ@Z
	DD	FLAT:?OnNotify@CWnd@@MAEHIJPAJ@Z
	DD	FLAT:?GetSuperWndProcAddr@CWnd@@MAEPAP6GJPAUHWND__@@IIJ@ZXZ
	DD	FLAT:?DoDataExchange@CWnd@@MAEXPAVCDataExchange@@@Z
	DD	FLAT:?BeginModalState@CWnd@@UAEXXZ
	DD	FLAT:?EndModalState@CWnd@@UAEXXZ
	DD	FLAT:?PreTranslateMessage@CWnd@@UAEHPAUtagMSG@@@Z
	DD	FLAT:?OnAmbientProperty@CWnd@@UAEHPAVCOleControlSite@@JPAUtagVARIANT@@@Z
	DD	FLAT:?WindowProc@CWnd@@MAEJIIJ@Z
	DD	FLAT:?OnWndMsg@CWnd@@MAEHIIJPAJ@Z
	DD	FLAT:?DefWindowProcA@CWnd@@MAEJIIJ@Z
	DD	FLAT:?PostNcDestroy@CWnd@@MAEXXZ
	DD	FLAT:?OnChildNotify@CListCtrl@@MAEHIIJPAJ@Z
	DD	FLAT:?OnTouchInputs@CWnd@@MAEHIPAUtagTOUCHINPUT@@@Z
	DD	FLAT:?OnTouchInput@CWnd@@MAEHVCPoint@@HHPAUtagTOUCHINPUT@@@Z
	DD	FLAT:?GetGestureStatus@CWnd@@MAEKVCPoint@@@Z
	DD	FLAT:?OnGestureZoom@CWnd@@MAEHVCPoint@@J@Z
	DD	FLAT:?OnGesturePan@CWnd@@MAEHVCPoint@@0@Z
	DD	FLAT:?OnGestureRotate@CWnd@@MAEHVCPoint@@N@Z
	DD	FLAT:?OnGestureTwoFingerTap@CWnd@@MAEHVCPoint@@@Z
	DD	FLAT:?OnGesturePressAndTap@CWnd@@MAEHVCPoint@@J@Z
	DD	FLAT:?ResizeDynamicLayout@CWnd@@MAEXXZ
	DD	FLAT:?CheckAutoCenter@CWnd@@UAEHXZ
	DD	FLAT:?IsFrameWnd@CWnd@@UBEHXZ
	DD	FLAT:?CreateControlContainer@CWnd@@MAEHPAPAVCOleControlContainer@@@Z
	DD	FLAT:?CreateControlSite@CWnd@@MAEHPAVCOleControlContainer@@PAPAVCOleControlSite@@IABU_GUID@@@Z
	DD	FLAT:?SetOccDialogInfo@CWnd@@MAEHPAU_AFX_OCC_DIALOG_INFO@@@Z
	DD	FLAT:?GetOccDialogInfo@CWnd@@MAEPAU_AFX_OCC_DIALOG_INFO@@XZ
	DD	FLAT:?DrawItem@CListCtrl@@UAEXPAUtagDRAWITEMSTRUCT@@@Z
	DD	FLAT:?GetDrawColors@CXListCtrlJongData@@UAEXHHAAK0@Z
	DD	FLAT:?OnToolTipText@CXListCtrl@@MAEHIPAUtagNMHDR@@PAJ@Z
CONST	ENDS
;	COMDAT ??_7?$CMap@V?$CStringT@DV?$StrTraitMFC_DLL@DV?$ChTraitsCRT@D@ATL@@@@@ATL@@PBDPAVCJongDataInListCtrl@@PAV3@@@6B@
CONST	SEGMENT
??_7?$CMap@V?$CStringT@DV?$StrTraitMFC_DLL@DV?$ChTraitsCRT@D@ATL@@@@@ATL@@PBDPAVCJongDataInListCtrl@@PAV3@@@6B@ DD FLAT:??_R4?$CMap@V?$CStringT@DV?$StrTraitMFC_DLL@DV?$ChTraitsCRT@D@ATL@@@@@ATL@@PBDPAVCJongDataInListCtrl@@PAV3@@@6B@ ; CMap<ATL::CStringT<char,StrTraitMFC_DLL<char,ATL::ChTraitsCRT<char> > >,char const *,CJongDataInListCtrl *,CJongDataInListCtrl *>::`vftable'
	DD	FLAT:?GetRuntimeClass@CObject@@UBEPAUCRuntimeClass@@XZ
	DD	FLAT:??_E?$CMap@V?$CStringT@DV?$StrTraitMFC_DLL@DV?$ChTraitsCRT@D@ATL@@@@@ATL@@PBDPAVCJongDataInListCtrl@@PAV3@@@UAEPAXI@Z
	DD	FLAT:?Serialize@?$CMap@V?$CStringT@DV?$StrTraitMFC_DLL@DV?$ChTraitsCRT@D@ATL@@@@@ATL@@PBDPAVCJongDataInListCtrl@@PAV3@@@UAEXAAVCArchive@@@Z
	DD	FLAT:?AssertValid@CObject@@UBEXXZ
	DD	FLAT:?Dump@CObject@@UBEXAAVCDumpContext@@@Z
CONST	ENDS
;	COMDAT ??_R1A@?0A@EA@CListCtrl@@8
rdata$r	SEGMENT
??_R1A@?0A@EA@CListCtrl@@8 DD FLAT:??_R0?AVCListCtrl@@@8 ; CListCtrl::`RTTI Base Class Descriptor at (0,-1,0,64)'
	DD	03H
	DD	00H
	DD	0ffffffffH
	DD	00H
	DD	040H
	DD	FLAT:??_R3CListCtrl@@8
rdata$r	ENDS
;	COMDAT ??_R2CListCtrl@@8
rdata$r	SEGMENT
??_R2CListCtrl@@8 DD FLAT:??_R1A@?0A@EA@CListCtrl@@8	; CListCtrl::`RTTI Base Class Array'
	DD	FLAT:??_R1A@?0A@EA@CWnd@@8
	DD	FLAT:??_R1A@?0A@EA@CCmdTarget@@8
	DD	FLAT:??_R1A@?0A@EA@CObject@@8
rdata$r	ENDS
;	COMDAT ??_R3CListCtrl@@8
rdata$r	SEGMENT
??_R3CListCtrl@@8 DD 00H				; CListCtrl::`RTTI Class Hierarchy Descriptor'
	DD	00H
	DD	04H
	DD	FLAT:??_R2CListCtrl@@8
rdata$r	ENDS
;	COMDAT ??_R0?AVCListCtrl@@@8
data$rs	SEGMENT
??_R0?AVCListCtrl@@@8 DD FLAT:??_7type_info@@6B@	; CListCtrl `RTTI Type Descriptor'
	DD	00H
	DB	'.?AVCListCtrl@@', 00H
data$rs	ENDS
;	COMDAT ??_R2CCmdTarget@@8
rdata$r	SEGMENT
??_R2CCmdTarget@@8 DD FLAT:??_R1A@?0A@EA@CCmdTarget@@8	; CCmdTarget::`RTTI Base Class Array'
	DD	FLAT:??_R1A@?0A@EA@CObject@@8
rdata$r	ENDS
;	COMDAT ??_R3CCmdTarget@@8
rdata$r	SEGMENT
??_R3CCmdTarget@@8 DD 00H				; CCmdTarget::`RTTI Class Hierarchy Descriptor'
	DD	00H
	DD	02H
	DD	FLAT:??_R2CCmdTarget@@8
rdata$r	ENDS
;	COMDAT ??_R0?AVCCmdTarget@@@8
data$rs	SEGMENT
??_R0?AVCCmdTarget@@@8 DD FLAT:??_7type_info@@6B@	; CCmdTarget `RTTI Type Descriptor'
	DD	00H
	DB	'.?AVCCmdTarget@@', 00H
data$rs	ENDS
;	COMDAT ??_R1A@?0A@EA@CCmdTarget@@8
rdata$r	SEGMENT
??_R1A@?0A@EA@CCmdTarget@@8 DD FLAT:??_R0?AVCCmdTarget@@@8 ; CCmdTarget::`RTTI Base Class Descriptor at (0,-1,0,64)'
	DD	01H
	DD	00H
	DD	0ffffffffH
	DD	00H
	DD	040H
	DD	FLAT:??_R3CCmdTarget@@8
rdata$r	ENDS
;	COMDAT ??_R2CWnd@@8
rdata$r	SEGMENT
??_R2CWnd@@8 DD	FLAT:??_R1A@?0A@EA@CWnd@@8		; CWnd::`RTTI Base Class Array'
	DD	FLAT:??_R1A@?0A@EA@CCmdTarget@@8
	DD	FLAT:??_R1A@?0A@EA@CObject@@8
rdata$r	ENDS
;	COMDAT ??_R3CWnd@@8
rdata$r	SEGMENT
??_R3CWnd@@8 DD	00H					; CWnd::`RTTI Class Hierarchy Descriptor'
	DD	00H
	DD	03H
	DD	FLAT:??_R2CWnd@@8
rdata$r	ENDS
;	COMDAT ??_R0?AVCWnd@@@8
data$rs	SEGMENT
??_R0?AVCWnd@@@8 DD FLAT:??_7type_info@@6B@		; CWnd `RTTI Type Descriptor'
	DD	00H
	DB	'.?AVCWnd@@', 00H
data$rs	ENDS
;	COMDAT ??_R1A@?0A@EA@CWnd@@8
rdata$r	SEGMENT
??_R1A@?0A@EA@CWnd@@8 DD FLAT:??_R0?AVCWnd@@@8		; CWnd::`RTTI Base Class Descriptor at (0,-1,0,64)'
	DD	02H
	DD	00H
	DD	0ffffffffH
	DD	00H
	DD	040H
	DD	FLAT:??_R3CWnd@@8
rdata$r	ENDS
;	COMDAT ??_R1A@?0A@EA@CObject@@8
rdata$r	SEGMENT
??_R1A@?0A@EA@CObject@@8 DD FLAT:??_R0?AVCObject@@@8	; CObject::`RTTI Base Class Descriptor at (0,-1,0,64)'
	DD	00H
	DD	00H
	DD	0ffffffffH
	DD	00H
	DD	040H
	DD	FLAT:??_R3CObject@@8
rdata$r	ENDS
;	COMDAT ??_R2CObject@@8
rdata$r	SEGMENT
??_R2CObject@@8 DD FLAT:??_R1A@?0A@EA@CObject@@8	; CObject::`RTTI Base Class Array'
rdata$r	ENDS
;	COMDAT ??_R3CObject@@8
rdata$r	SEGMENT
??_R3CObject@@8 DD 00H					; CObject::`RTTI Class Hierarchy Descriptor'
	DD	00H
	DD	01H
	DD	FLAT:??_R2CObject@@8
rdata$r	ENDS
;	COMDAT ??_R0?AVCObject@@@8
data$rs	SEGMENT
??_R0?AVCObject@@@8 DD FLAT:??_7type_info@@6B@		; CObject `RTTI Type Descriptor'
	DD	00H
	DB	'.?AVCObject@@', 00H
data$rs	ENDS
;	COMDAT ??_C@_02DPKJAMEF@?$CFd@
CONST	SEGMENT
??_C@_02DPKJAMEF@?$CFd@ DB '%d', 00H			; `string'
CONST	ENDS
;	COMDAT xdata$x
xdata$x	SEGMENT
__unwindtable$??_GCXListCtrlJongData@@UAEPAXI@Z DD 0ffffffffH
	DD	FLAT:___std_terminate
	DD	0ffffffffH
	DD	FLAT:___std_terminate
	DD	0ffffffffH
	DD	FLAT:___std_terminate
__ehfuncinfo$??_GCXListCtrlJongData@@UAEPAXI@Z DD 019930522H
	DD	03H
	DD	FLAT:__unwindtable$??_GCXListCtrlJongData@@UAEPAXI@Z
	DD	2 DUP(00H)
	DD	2 DUP(00H)
	DD	00H
	DD	05H
xdata$x	ENDS
;	COMDAT xdata$x
xdata$x	SEGMENT
__unwindtable$?OnKeyUp@CXListCtrlJongData@@IAEXIII@Z DD 0ffffffffH
	DD	FLAT:__unwindfunclet$?OnKeyUp@CXListCtrlJongData@@IAEXIII@Z$0
	DD	00H
	DD	FLAT:__unwindfunclet$?OnKeyUp@CXListCtrlJongData@@IAEXIII@Z$1
__ehfuncinfo$?OnKeyUp@CXListCtrlJongData@@IAEXIII@Z DD 019930522H
	DD	02H
	DD	FLAT:__unwindtable$?OnKeyUp@CXListCtrlJongData@@IAEXIII@Z
	DD	2 DUP(00H)
	DD	2 DUP(00H)
	DD	00H
	DD	01H
xdata$x	ENDS
;	COMDAT xdata$x
xdata$x	SEGMENT
__unwindtable$??1CXListCtrlJongData@@UAE@XZ DD 0ffffffffH
	DD	FLAT:___std_terminate
	DD	0ffffffffH
	DD	FLAT:___std_terminate
	DD	0ffffffffH
	DD	FLAT:___std_terminate
__ehfuncinfo$??1CXListCtrlJongData@@UAE@XZ DD 019930522H
	DD	03H
	DD	FLAT:__unwindtable$??1CXListCtrlJongData@@UAE@XZ
	DD	2 DUP(00H)
	DD	2 DUP(00H)
	DD	00H
	DD	05H
xdata$x	ENDS
;	COMDAT xdata$x
xdata$x	SEGMENT
__unwindtable$?GetPosOfHighLighted@CXListCtrlJongData@@AAEHPAJ0@Z DD 0ffffffffH
	DD	FLAT:__unwindfunclet$?GetPosOfHighLighted@CXListCtrlJongData@@AAEHPAJ0@Z$0
	DD	00H
	DD	FLAT:__unwindfunclet$?GetPosOfHighLighted@CXListCtrlJongData@@AAEHPAJ0@Z$1
__ehfuncinfo$?GetPosOfHighLighted@CXListCtrlJongData@@AAEHPAJ0@Z DD 019930522H
	DD	02H
	DD	FLAT:__unwindtable$?GetPosOfHighLighted@CXListCtrlJongData@@AAEHPAJ0@Z
	DD	2 DUP(00H)
	DD	2 DUP(00H)
	DD	00H
	DD	01H
xdata$x	ENDS
;	COMDAT xdata$x
xdata$x	SEGMENT
__unwindtable$?SortColumns@CXListCtrlJongData@@AAEXHH@Z DD 0ffffffffH
	DD	FLAT:__unwindfunclet$?SortColumns@CXListCtrlJongData@@AAEXHH@Z$0
	DD	00H
	DD	FLAT:__unwindfunclet$?SortColumns@CXListCtrlJongData@@AAEXHH@Z$1
__ehfuncinfo$?SortColumns@CXListCtrlJongData@@AAEXHH@Z DD 019930522H
	DD	02H
	DD	FLAT:__unwindtable$?SortColumns@CXListCtrlJongData@@AAEXHH@Z
	DD	2 DUP(00H)
	DD	2 DUP(00H)
	DD	00H
	DD	01H
xdata$x	ENDS
;	COMDAT xdata$x
xdata$x	SEGMENT
__unwindtable$?SetConfig@CXListCtrlJongData@@AAEXH@Z DD 0ffffffffH
	DD	FLAT:__unwindfunclet$?SetConfig@CXListCtrlJongData@@AAEXH@Z$0
	DD	00H
	DD	FLAT:__unwindfunclet$?SetConfig@CXListCtrlJongData@@AAEXH@Z$1
	DD	01H
	DD	FLAT:__unwindfunclet$?SetConfig@CXListCtrlJongData@@AAEXH@Z$2
__ehfuncinfo$?SetConfig@CXListCtrlJongData@@AAEXH@Z DD 019930522H
	DD	03H
	DD	FLAT:__unwindtable$?SetConfig@CXListCtrlJongData@@AAEXH@Z
	DD	2 DUP(00H)
	DD	2 DUP(00H)
	DD	00H
	DD	01H
xdata$x	ENDS
;	COMDAT xdata$x
xdata$x	SEGMENT
__unwindtable$??_G?$CMap@V?$CStringT@DV?$StrTraitMFC_DLL@DV?$ChTraitsCRT@D@ATL@@@@@ATL@@PBDPAVCJongDataInListCtrl@@PAV3@@@UAEPAXI@Z DD 0ffffffffH
	DD	FLAT:___std_terminate
__ehfuncinfo$??_G?$CMap@V?$CStringT@DV?$StrTraitMFC_DLL@DV?$ChTraitsCRT@D@ATL@@@@@ATL@@PBDPAVCJongDataInListCtrl@@PAV3@@@UAEPAXI@Z DD 019930522H
	DD	01H
	DD	FLAT:__unwindtable$??_G?$CMap@V?$CStringT@DV?$StrTraitMFC_DLL@DV?$ChTraitsCRT@D@ATL@@@@@ATL@@PBDPAVCJongDataInListCtrl@@PAV3@@@UAEPAXI@Z
	DD	2 DUP(00H)
	DD	2 DUP(00H)
	DD	00H
	DD	05H
xdata$x	ENDS
;	COMDAT xdata$x
xdata$x	SEGMENT
__unwindtable$?Serialize@?$CMap@V?$CStringT@DV?$StrTraitMFC_DLL@DV?$ChTraitsCRT@D@ATL@@@@@ATL@@PBDPAVCJongDataInListCtrl@@PAV3@@@UAEXAAVCArchive@@@Z DD 0ffffffffH
	DD	FLAT:__unwindfunclet$?Serialize@?$CMap@V?$CStringT@DV?$StrTraitMFC_DLL@DV?$ChTraitsCRT@D@ATL@@@@@ATL@@PBDPAVCJongDataInListCtrl@@PAV3@@@UAEXAAVCArchive@@@Z$0
__ehfuncinfo$?Serialize@?$CMap@V?$CStringT@DV?$StrTraitMFC_DLL@DV?$ChTraitsCRT@D@ATL@@@@@ATL@@PBDPAVCJongDataInListCtrl@@PAV3@@@UAEXAAVCArchive@@@Z DD 019930522H
	DD	01H
	DD	FLAT:__unwindtable$?Serialize@?$CMap@V?$CStringT@DV?$StrTraitMFC_DLL@DV?$ChTraitsCRT@D@ATL@@@@@ATL@@PBDPAVCJongDataInListCtrl@@PAV3@@@UAEXAAVCArchive@@@Z
	DD	2 DUP(00H)
	DD	2 DUP(00H)
	DD	00H
	DD	01H
xdata$x	ENDS
;	COMDAT xdata$x
xdata$x	SEGMENT
__ehfuncinfo$??1?$CMap@V?$CStringT@DV?$StrTraitMFC_DLL@DV?$ChTraitsCRT@D@ATL@@@@@ATL@@PBDPAVCJongDataInListCtrl@@PAV3@@@UAE@XZ DD 019930522H
	DD	00H
	DD	00H
	DD	2 DUP(00H)
	DD	2 DUP(00H)
	DD	00H
	DD	05H
xdata$x	ENDS
;	COMDAT xdata$x
xdata$x	SEGMENT
__unwindtable$?GetListOfChecked@CXListCtrlJongData@@QAEXPAVCStringList@@@Z DD 0ffffffffH
	DD	FLAT:__unwindfunclet$?GetListOfChecked@CXListCtrlJongData@@QAEXPAVCStringList@@@Z$0
__ehfuncinfo$?GetListOfChecked@CXListCtrlJongData@@QAEXPAVCStringList@@@Z DD 019930522H
	DD	01H
	DD	FLAT:__unwindtable$?GetListOfChecked@CXListCtrlJongData@@QAEXPAVCStringList@@@Z
	DD	2 DUP(00H)
	DD	2 DUP(00H)
	DD	00H
	DD	01H
xdata$x	ENDS
;	COMDAT xdata$x
xdata$x	SEGMENT
__unwindtable$?GetCommentAboutHighlight@CXListCtrlJongData@@QAE?AV?$CStringT@DV?$StrTraitMFC_DLL@DV?$ChTraitsCRT@D@ATL@@@@@ATL@@XZ DD 0ffffffffH
	DD	FLAT:__unwindfunclet$?GetCommentAboutHighlight@CXListCtrlJongData@@QAE?AV?$CStringT@DV?$StrTraitMFC_DLL@DV?$ChTraitsCRT@D@ATL@@@@@ATL@@XZ$0
__ehfuncinfo$?GetCommentAboutHighlight@CXListCtrlJongData@@QAE?AV?$CStringT@DV?$StrTraitMFC_DLL@DV?$ChTraitsCRT@D@ATL@@@@@ATL@@XZ DD 019930522H
	DD	01H
	DD	FLAT:__unwindtable$?GetCommentAboutHighlight@CXListCtrlJongData@@QAE?AV?$CStringT@DV?$StrTraitMFC_DLL@DV?$ChTraitsCRT@D@ATL@@@@@ATL@@XZ
	DD	2 DUP(00H)
	DD	2 DUP(00H)
	DD	00H
	DD	01H
xdata$x	ENDS
;	COMDAT xdata$x
xdata$x	SEGMENT
__unwindtable$?SetCursorNext@CXListCtrlJongData@@QAEXH@Z DD 0ffffffffH
	DD	FLAT:__unwindfunclet$?SetCursorNext@CXListCtrlJongData@@QAEXH@Z$0
__ehfuncinfo$?SetCursorNext@CXListCtrlJongData@@QAEXH@Z DD 019930522H
	DD	01H
	DD	FLAT:__unwindtable$?SetCursorNext@CXListCtrlJongData@@QAEXH@Z
	DD	2 DUP(00H)
	DD	2 DUP(00H)
	DD	00H
	DD	01H
xdata$x	ENDS
;	COMDAT xdata$x
xdata$x	SEGMENT
__unwindtable$?SetCursorPrev@CXListCtrlJongData@@QAEXH@Z DD 0ffffffffH
	DD	FLAT:__unwindfunclet$?SetCursorPrev@CXListCtrlJongData@@QAEXH@Z$0
__ehfuncinfo$?SetCursorPrev@CXListCtrlJongData@@QAEXH@Z DD 019930522H
	DD	01H
	DD	FLAT:__unwindtable$?SetCursorPrev@CXListCtrlJongData@@QAEXH@Z
	DD	2 DUP(00H)
	DD	2 DUP(00H)
	DD	00H
	DD	01H
xdata$x	ENDS
;	COMDAT xdata$x
xdata$x	SEGMENT
__unwindtable$?UnHighlightByJongmokCode@CXListCtrlJongData@@QAEXPBD@Z DD 0ffffffffH
	DD	FLAT:__unwindfunclet$?UnHighlightByJongmokCode@CXListCtrlJongData@@QAEXPBD@Z$0
__ehfuncinfo$?UnHighlightByJongmokCode@CXListCtrlJongData@@QAEXPBD@Z DD 019930522H
	DD	01H
	DD	FLAT:__unwindtable$?UnHighlightByJongmokCode@CXListCtrlJongData@@QAEXPBD@Z
	DD	2 DUP(00H)
	DD	2 DUP(00H)
	DD	00H
	DD	01H
xdata$x	ENDS
;	COMDAT xdata$x
xdata$x	SEGMENT
__unwindtable$?GetSelectedCodes@CXListCtrlJongData@@QAE?AV?$CStringT@DV?$StrTraitMFC_DLL@DV?$ChTraitsCRT@D@ATL@@@@@ATL@@XZ DD 0ffffffffH
	DD	FLAT:__unwindfunclet$?GetSelectedCodes@CXListCtrlJongData@@QAE?AV?$CStringT@DV?$StrTraitMFC_DLL@DV?$ChTraitsCRT@D@ATL@@@@@ATL@@XZ$0
__ehfuncinfo$?GetSelectedCodes@CXListCtrlJongData@@QAE?AV?$CStringT@DV?$StrTraitMFC_DLL@DV?$ChTraitsCRT@D@ATL@@@@@ATL@@XZ DD 019930522H
	DD	01H
	DD	FLAT:__unwindtable$?GetSelectedCodes@CXListCtrlJongData@@QAE?AV?$CStringT@DV?$StrTraitMFC_DLL@DV?$ChTraitsCRT@D@ATL@@@@@ATL@@XZ
	DD	2 DUP(00H)
	DD	2 DUP(00H)
	DD	00H
	DD	01H
xdata$x	ENDS
;	COMDAT xdata$x
xdata$x	SEGMENT
__unwindtable$?FindCode@CXListCtrlJongData@@QAEHPBD@Z DD 0ffffffffH
	DD	FLAT:__unwindfunclet$?FindCode@CXListCtrlJongData@@QAEHPBD@Z$0
__ehfuncinfo$?FindCode@CXListCtrlJongData@@QAEHPBD@Z DD 019930522H
	DD	01H
	DD	FLAT:__unwindtable$?FindCode@CXListCtrlJongData@@QAEHPBD@Z
	DD	2 DUP(00H)
	DD	2 DUP(00H)
	DD	00H
	DD	01H
xdata$x	ENDS
;	COMDAT xdata$x
xdata$x	SEGMENT
__unwindtable$?GetCheckedCodes@CXListCtrlJongData@@QAE?AV?$CStringT@DV?$StrTraitMFC_DLL@DV?$ChTraitsCRT@D@ATL@@@@@ATL@@XZ DD 0ffffffffH
	DD	FLAT:__unwindfunclet$?GetCheckedCodes@CXListCtrlJongData@@QAE?AV?$CStringT@DV?$StrTraitMFC_DLL@DV?$ChTraitsCRT@D@ATL@@@@@ATL@@XZ$0
__ehfuncinfo$?GetCheckedCodes@CXListCtrlJongData@@QAE?AV?$CStringT@DV?$StrTraitMFC_DLL@DV?$ChTraitsCRT@D@ATL@@@@@ATL@@XZ DD 019930522H
	DD	01H
	DD	FLAT:__unwindtable$?GetCheckedCodes@CXListCtrlJongData@@QAE?AV?$CStringT@DV?$StrTraitMFC_DLL@DV?$ChTraitsCRT@D@ATL@@@@@ATL@@XZ
	DD	2 DUP(00H)
	DD	2 DUP(00H)
	DD	00H
	DD	01H
xdata$x	ENDS
;	COMDAT xdata$x
xdata$x	SEGMENT
__unwindtable$?GetTimeSelected@CXListCtrlJongData@@QAE?AV?$CStringT@DV?$StrTraitMFC_DLL@DV?$ChTraitsCRT@D@ATL@@@@@ATL@@H@Z DD 0ffffffffH
	DD	FLAT:__unwindfunclet$?GetTimeSelected@CXListCtrlJongData@@QAE?AV?$CStringT@DV?$StrTraitMFC_DLL@DV?$ChTraitsCRT@D@ATL@@@@@ATL@@H@Z$0
__ehfuncinfo$?GetTimeSelected@CXListCtrlJongData@@QAE?AV?$CStringT@DV?$StrTraitMFC_DLL@DV?$ChTraitsCRT@D@ATL@@@@@ATL@@H@Z DD 019930522H
	DD	01H
	DD	FLAT:__unwindtable$?GetTimeSelected@CXListCtrlJongData@@QAE?AV?$CStringT@DV?$StrTraitMFC_DLL@DV?$ChTraitsCRT@D@ATL@@@@@ATL@@H@Z
	DD	2 DUP(00H)
	DD	2 DUP(00H)
	DD	00H
	DD	01H
xdata$x	ENDS
;	COMDAT xdata$x
xdata$x	SEGMENT
__unwindtable$?RemoveCode@CXListCtrlJongData@@QAEXPBD@Z DD 0ffffffffH
	DD	FLAT:__unwindfunclet$?RemoveCode@CXListCtrlJongData@@QAEXPBD@Z$0
__ehfuncinfo$?RemoveCode@CXListCtrlJongData@@QAEXPBD@Z DD 019930522H
	DD	01H
	DD	FLAT:__unwindtable$?RemoveCode@CXListCtrlJongData@@QAEXPBD@Z
	DD	2 DUP(00H)
	DD	2 DUP(00H)
	DD	00H
	DD	01H
xdata$x	ENDS
;	COMDAT xdata$x
xdata$x	SEGMENT
__ehfuncinfo$?UpdateCodeData@CXListCtrlJongData@@QAEHPBD0V?$CStringT@DV?$StrTraitMFC_DLL@DV?$ChTraitsCRT@D@ATL@@@@@ATL@@111DH@Z DD 019930522H
	DD	0bH
	DD	FLAT:__unwindtable$?UpdateCodeData@CXListCtrlJongData@@QAEHPBD0V?$CStringT@DV?$StrTraitMFC_DLL@DV?$ChTraitsCRT@D@ATL@@@@@ATL@@111DH@Z
	DD	2 DUP(00H)
	DD	2 DUP(00H)
	DD	00H
	DD	01H
__unwindtable$?UpdateCodeData@CXListCtrlJongData@@QAEHPBD0V?$CStringT@DV?$StrTraitMFC_DLL@DV?$ChTraitsCRT@D@ATL@@@@@ATL@@111DH@Z DD 0ffffffffH
	DD	FLAT:__unwindfunclet$?UpdateCodeData@CXListCtrlJongData@@QAEHPBD0V?$CStringT@DV?$StrTraitMFC_DLL@DV?$ChTraitsCRT@D@ATL@@@@@ATL@@111DH@Z$0
	DD	00H
	DD	FLAT:__unwindfunclet$?UpdateCodeData@CXListCtrlJongData@@QAEHPBD0V?$CStringT@DV?$StrTraitMFC_DLL@DV?$ChTraitsCRT@D@ATL@@@@@ATL@@111DH@Z$1
	DD	01H
	DD	FLAT:__unwindfunclet$?UpdateCodeData@CXListCtrlJongData@@QAEHPBD0V?$CStringT@DV?$StrTraitMFC_DLL@DV?$ChTraitsCRT@D@ATL@@@@@ATL@@111DH@Z$2
	DD	02H
	DD	FLAT:__unwindfunclet$?UpdateCodeData@CXListCtrlJongData@@QAEHPBD0V?$CStringT@DV?$StrTraitMFC_DLL@DV?$ChTraitsCRT@D@ATL@@@@@ATL@@111DH@Z$3
	DD	03H
	DD	FLAT:__unwindfunclet$?UpdateCodeData@CXListCtrlJongData@@QAEHPBD0V?$CStringT@DV?$StrTraitMFC_DLL@DV?$ChTraitsCRT@D@ATL@@@@@ATL@@111DH@Z$4
	DD	04H
	DD	FLAT:__unwindfunclet$?UpdateCodeData@CXListCtrlJongData@@QAEHPBD0V?$CStringT@DV?$StrTraitMFC_DLL@DV?$ChTraitsCRT@D@ATL@@@@@ATL@@111DH@Z$5
	DD	05H
	DD	FLAT:__unwindfunclet$?UpdateCodeData@CXListCtrlJongData@@QAEHPBD0V?$CStringT@DV?$StrTraitMFC_DLL@DV?$ChTraitsCRT@D@ATL@@@@@ATL@@111DH@Z$6
	DD	03H
	DD	FLAT:__unwindfunclet$?UpdateCodeData@CXListCtrlJongData@@QAEHPBD0V?$CStringT@DV?$StrTraitMFC_DLL@DV?$ChTraitsCRT@D@ATL@@@@@ATL@@111DH@Z$9
	DD	07H
	DD	FLAT:__unwindfunclet$?UpdateCodeData@CXListCtrlJongData@@QAEHPBD0V?$CStringT@DV?$StrTraitMFC_DLL@DV?$ChTraitsCRT@D@ATL@@@@@ATL@@111DH@Z$11
	DD	08H
	DD	FLAT:__unwindfunclet$?UpdateCodeData@CXListCtrlJongData@@QAEHPBD0V?$CStringT@DV?$StrTraitMFC_DLL@DV?$ChTraitsCRT@D@ATL@@@@@ATL@@111DH@Z$13
	DD	09H
	DD	FLAT:__unwindfunclet$?UpdateCodeData@CXListCtrlJongData@@QAEHPBD0V?$CStringT@DV?$StrTraitMFC_DLL@DV?$ChTraitsCRT@D@ATL@@@@@ATL@@111DH@Z$14
xdata$x	ENDS
;	COMDAT xdata$x
xdata$x	SEGMENT
__ehfuncinfo$?InsertCodeData@CXListCtrlJongData@@QAEXPBD0V?$CStringT@DV?$StrTraitMFC_DLL@DV?$ChTraitsCRT@D@ATL@@@@@ATL@@111DH@Z DD 019930522H
	DD	0aH
	DD	FLAT:__unwindtable$?InsertCodeData@CXListCtrlJongData@@QAEXPBD0V?$CStringT@DV?$StrTraitMFC_DLL@DV?$ChTraitsCRT@D@ATL@@@@@ATL@@111DH@Z
	DD	2 DUP(00H)
	DD	2 DUP(00H)
	DD	00H
	DD	01H
__unwindtable$?InsertCodeData@CXListCtrlJongData@@QAEXPBD0V?$CStringT@DV?$StrTraitMFC_DLL@DV?$ChTraitsCRT@D@ATL@@@@@ATL@@111DH@Z DD 0ffffffffH
	DD	FLAT:__unwindfunclet$?InsertCodeData@CXListCtrlJongData@@QAEXPBD0V?$CStringT@DV?$StrTraitMFC_DLL@DV?$ChTraitsCRT@D@ATL@@@@@ATL@@111DH@Z$0
	DD	00H
	DD	FLAT:__unwindfunclet$?InsertCodeData@CXListCtrlJongData@@QAEXPBD0V?$CStringT@DV?$StrTraitMFC_DLL@DV?$ChTraitsCRT@D@ATL@@@@@ATL@@111DH@Z$1
	DD	01H
	DD	FLAT:__unwindfunclet$?InsertCodeData@CXListCtrlJongData@@QAEXPBD0V?$CStringT@DV?$StrTraitMFC_DLL@DV?$ChTraitsCRT@D@ATL@@@@@ATL@@111DH@Z$2
	DD	02H
	DD	FLAT:__unwindfunclet$?InsertCodeData@CXListCtrlJongData@@QAEXPBD0V?$CStringT@DV?$StrTraitMFC_DLL@DV?$ChTraitsCRT@D@ATL@@@@@ATL@@111DH@Z$3
	DD	03H
	DD	FLAT:__unwindfunclet$?InsertCodeData@CXListCtrlJongData@@QAEXPBD0V?$CStringT@DV?$StrTraitMFC_DLL@DV?$ChTraitsCRT@D@ATL@@@@@ATL@@111DH@Z$4
	DD	04H
	DD	FLAT:__unwindfunclet$?InsertCodeData@CXListCtrlJongData@@QAEXPBD0V?$CStringT@DV?$StrTraitMFC_DLL@DV?$ChTraitsCRT@D@ATL@@@@@ATL@@111DH@Z$6
	DD	05H
	DD	FLAT:__unwindfunclet$?InsertCodeData@CXListCtrlJongData@@QAEXPBD0V?$CStringT@DV?$StrTraitMFC_DLL@DV?$ChTraitsCRT@D@ATL@@@@@ATL@@111DH@Z$8
	DD	06H
	DD	FLAT:__unwindfunclet$?InsertCodeData@CXListCtrlJongData@@QAEXPBD0V?$CStringT@DV?$StrTraitMFC_DLL@DV?$ChTraitsCRT@D@ATL@@@@@ATL@@111DH@Z$10
	DD	07H
	DD	FLAT:__unwindfunclet$?InsertCodeData@CXListCtrlJongData@@QAEXPBD0V?$CStringT@DV?$StrTraitMFC_DLL@DV?$ChTraitsCRT@D@ATL@@@@@ATL@@111DH@Z$11
	DD	08H
	DD	FLAT:__unwindfunclet$?InsertCodeData@CXListCtrlJongData@@QAEXPBD0V?$CStringT@DV?$StrTraitMFC_DLL@DV?$ChTraitsCRT@D@ATL@@@@@ATL@@111DH@Z$13
xdata$x	ENDS
;	COMDAT xdata$x
xdata$x	SEGMENT
__ehfuncinfo$??0CXListCtrlJongData@@QAE@XZ DD 019930522H
	DD	09H
	DD	FLAT:__unwindtable$??0CXListCtrlJongData@@QAE@XZ
	DD	2 DUP(00H)
	DD	2 DUP(00H)
	DD	00H
	DD	01H
__unwindtable$??0CXListCtrlJongData@@QAE@XZ DD 0ffffffffH
	DD	FLAT:__unwindfunclet$??0CXListCtrlJongData@@QAE@XZ$0
	DD	00H
	DD	FLAT:__unwindfunclet$??0CXListCtrlJongData@@QAE@XZ$1
	DD	01H
	DD	FLAT:__unwindfunclet$??0CXListCtrlJongData@@QAE@XZ$2
	DD	02H
	DD	FLAT:__unwindfunclet$??0CXListCtrlJongData@@QAE@XZ$3
	DD	03H
	DD	FLAT:__unwindfunclet$??0CXListCtrlJongData@@QAE@XZ$4
	DD	04H
	DD	FLAT:__unwindfunclet$??0CXListCtrlJongData@@QAE@XZ$5
	DD	05H
	DD	FLAT:__unwindfunclet$??0CXListCtrlJongData@@QAE@XZ$6
	DD	06H
	DD	FLAT:__unwindfunclet$??0CXListCtrlJongData@@QAE@XZ$7
	DD	07H
	DD	FLAT:__unwindfunclet$??0CXListCtrlJongData@@QAE@XZ$8
xdata$x	ENDS
CRT$XCU	SEGMENT
?RMSG_CHARTMAIN$initializer$@@3P6AXXZA DD FLAT:??__ERMSG_CHARTMAIN@@YAXXZ ; RMSG_CHARTMAIN$initializer$
CRT$XCU	ENDS
CRT$XCU	SEGMENT
?RMS_ANALYSIS_FUNC$initializer$@@3P6AXXZA DD FLAT:??__ERMS_ANALYSIS_FUNC@@YAXXZ ; RMS_ANALYSIS_FUNC$initializer$
CRT$XCU	ENDS
CRT$XCU	SEGMENT
?RMSG_GET_USERID$initializer$@@3P6AXXZA DD FLAT:??__ERMSG_GET_USERID@@YAXXZ ; RMSG_GET_USERID$initializer$
CRT$XCU	ENDS
CRT$XCU	SEGMENT
?RMSG_KSDLLINFO$initializer$@@3P6AXXZA DD FLAT:??__ERMSG_KSDLLINFO@@YAXXZ ; RMSG_KSDLLINFO$initializer$
CRT$XCU	ENDS
CRT$XCU	SEGMENT
?RMSG_GETINFO$initializer$@@3P6AXXZA DD FLAT:??__ERMSG_GETINFO@@YAXXZ ; RMSG_GETINFO$initializer$
CRT$XCU	ENDS
CRT$XCU	SEGMENT
?RMSG_CHANGE_SKINCOLOR$initializer$@@3P6AXXZA DD FLAT:??__ERMSG_CHANGE_SKINCOLOR@@YAXXZ ; RMSG_CHANGE_SKINCOLOR$initializer$
CRT$XCU	ENDS
CRT$XCU	SEGMENT
?RMSG_GET_SKINCOLOR$initializer$@@3P6AXXZA DD FLAT:??__ERMSG_GET_SKINCOLOR@@YAXXZ ; RMSG_GET_SKINCOLOR$initializer$
CRT$XCU	ENDS
CRT$XCU	SEGMENT
?RMSG_CHANGE_CROSSLINE$initializer$@@3P6AXXZA DD FLAT:??__ERMSG_CHANGE_CROSSLINE@@YAXXZ ; RMSG_CHANGE_CROSSLINE$initializer$
CRT$XCU	ENDS
; Function compile flags: /Ogtp
; File C:\Program Files (x86)\Microsoft Visual Studio\2019\Community\VC\Tools\MSVC\14.29.30133\atlmfc\include\afxtempl.h
; File C:\Program Files (x86)\Microsoft Visual Studio\2019\Community\VC\Tools\MSVC\14.29.30133\atlmfc\include\afx.inl
; File C:\Program Files (x86)\Microsoft Visual Studio\2019\Community\VC\Tools\MSVC\14.29.30133\atlmfc\include\afxtempl.h
; File C:\Program Files (x86)\Microsoft Visual Studio\2019\Community\VC\Tools\MSVC\14.29.30133\atlmfc\include\afx.inl
; File C:\Program Files (x86)\Microsoft Visual Studio\2019\Community\VC\Tools\MSVC\14.29.30133\atlmfc\include\afxtempl.h
; File C:\Program Files (x86)\Microsoft Visual Studio\2019\Community\VC\Tools\MSVC\14.29.30133\atlmfc\include\afx.inl
; File C:\Program Files (x86)\Microsoft Visual Studio\2019\Community\VC\Tools\MSVC\14.29.30133\atlmfc\include\afxtempl.h
;	COMDAT ??$SerializeElements@PAVCJongDataInListCtrl@@@@YGXAAVCArchive@@PAPAVCJongDataInListCtrl@@H@Z
_TEXT	SEGMENT
_ar$ = 8						; size = 4
_pElements$ = 12					; size = 4
_nCount$ = 16						; size = 4
??$SerializeElements@PAVCJongDataInListCtrl@@@@YGXAAVCArchive@@PAPAVCJongDataInListCtrl@@H@Z PROC ; SerializeElements<CJongDataInListCtrl *>, COMDAT

; 67   : {

  00000	55		 push	 ebp
  00001	8b ec		 mov	 ebp, esp

; 68   : 	ENSURE(nCount == 0 || pElements != NULL);

  00003	8b 4d 0c	 mov	 ecx, DWORD PTR _pElements$[ebp]
  00006	53		 push	 ebx
  00007	56		 push	 esi
  00008	8b 75 10	 mov	 esi, DWORD PTR _nCount$[ebp]
  0000b	57		 push	 edi
  0000c	85 f6		 test	 esi, esi
  0000e	74 08		 je	 SHORT $LN2@SerializeE
  00010	85 c9		 test	 ecx, ecx
  00012	0f 84 89 00 00
	00		 je	 $LN34@SerializeE
$LN2@SerializeE:
; File C:\Program Files (x86)\Microsoft Visual Studio\2019\Community\VC\Tools\MSVC\14.29.30133\atlmfc\include\afx.inl

; 212  : 	{ return (m_nMode & CArchive::load) == 0; }

  00018	8b 55 08	 mov	 edx, DWORD PTR _ar$[ebp]
  0001b	8b 42 18	 mov	 eax, DWORD PTR [edx+24]
  0001e	f7 d0		 not	 eax
  00020	a8 01		 test	 al, 1
; File C:\Program Files (x86)\Microsoft Visual Studio\2019\Community\VC\Tools\MSVC\14.29.30133\atlmfc\include\afxtempl.h

; 73   : 	if (ar.IsStoring())

  00022	74 3c		 je	 SHORT $LN10@SerializeE

; 74   : 	{
; 75   : 		TYPE* pData;
; 76   : 		UINT_PTR nElementsLeft;
; 77   : 
; 78   : 		nElementsLeft = nCount;
; 79   : 		pData = pElements;
; 80   : 		while( nElementsLeft > 0 )

  00024	85 f6		 test	 esi, esi
  00026	74 31		 je	 SHORT $LN8@SerializeE
  00028	0f 1f 84 00 00
	00 00 00	 npad	 8
$LL5@SerializeE:

; 81   : 		{
; 82   : 			UINT nElementsToWrite;
; 83   : 
; 84   : 			nElementsToWrite = UINT(__min(nElementsLeft, INT_MAX/sizeof(TYPE)));

  00030	bb ff ff ff 1f	 mov	 ebx, 536870911		; 1fffffffH
  00035	3b f3		 cmp	 esi, ebx
  00037	0f 42 de	 cmovb	 ebx, esi

; 85   : 			ar.Write(pData, nElementsToWrite*sizeof(TYPE));

  0003a	8d 3c 9d 00 00
	00 00		 lea	 edi, DWORD PTR [ebx*4]
  00041	57		 push	 edi
  00042	51		 push	 ecx
  00043	8b ca		 mov	 ecx, edx
  00045	e8 00 00 00 00	 call	 ?Write@CArchive@@QAEXPBXI@Z ; CArchive::Write

; 86   : 			nElementsLeft -= nElementsToWrite;
; 87   : 			pData += nElementsToWrite;

  0004a	8b 4d 0c	 mov	 ecx, DWORD PTR _pElements$[ebp]
  0004d	8b 55 08	 mov	 edx, DWORD PTR _ar$[ebp]
  00050	03 cf		 add	 ecx, edi
  00052	89 4d 0c	 mov	 DWORD PTR _pElements$[ebp], ecx
  00055	2b f3		 sub	 esi, ebx
  00057	75 d7		 jne	 SHORT $LL5@SerializeE
$LN8@SerializeE:
  00059	5f		 pop	 edi

; 105  : 		}
; 106  : 	}
; 107  : }

  0005a	5e		 pop	 esi
  0005b	5b		 pop	 ebx
  0005c	5d		 pop	 ebp
  0005d	c2 0c 00	 ret	 12			; 0000000cH
$LN10@SerializeE:

; 97   : 		while( nElementsLeft > 0 )

  00060	85 f6		 test	 esi, esi
  00062	74 f5		 je	 SHORT $LN8@SerializeE
$LL7@SerializeE:

; 98   : 		{
; 99   : 			UINT nElementsToRead;
; 100  : 
; 101  : 			nElementsToRead = UINT(__min(nElementsLeft, INT_MAX/sizeof(TYPE)));

  00064	bf ff ff ff 1f	 mov	 edi, 536870911		; 1fffffffH
  00069	3b f7		 cmp	 esi, edi
  0006b	0f 42 fe	 cmovb	 edi, esi

; 102  : 			ar.EnsureRead(pData, nElementsToRead*sizeof(TYPE));

  0006e	8d 1c bd 00 00
	00 00		 lea	 ebx, DWORD PTR [edi*4]
; File C:\Program Files (x86)\Microsoft Visual Studio\2019\Community\VC\Tools\MSVC\14.29.30133\atlmfc\include\afx.inl

; 399  : 	UINT nRead=Read(lpBuf, nCount);

  00075	53		 push	 ebx
  00076	51		 push	 ecx
  00077	8b ca		 mov	 ecx, edx
  00079	e8 00 00 00 00	 call	 ?Read@CArchive@@QAEIPAXI@Z ; CArchive::Read

; 400  : 	if(nRead!=nCount)

  0007e	3b c3		 cmp	 eax, ebx
  00080	75 16		 jne	 SHORT $LN23@SerializeE
; File C:\Program Files (x86)\Microsoft Visual Studio\2019\Community\VC\Tools\MSVC\14.29.30133\atlmfc\include\afxtempl.h

; 97   : 		while( nElementsLeft > 0 )

  00082	8b 4d 0c	 mov	 ecx, DWORD PTR _pElements$[ebp]
  00085	8b 55 08	 mov	 edx, DWORD PTR _ar$[ebp]

; 103  : 			nElementsLeft -= nElementsToRead;
; 104  : 			pData += nElementsToRead;

  00088	03 cb		 add	 ecx, ebx
  0008a	89 4d 0c	 mov	 DWORD PTR _pElements$[ebp], ecx
  0008d	2b f7		 sub	 esi, edi
  0008f	75 d3		 jne	 SHORT $LL7@SerializeE

; 105  : 		}
; 106  : 	}
; 107  : }

  00091	5f		 pop	 edi
  00092	5e		 pop	 esi
  00093	5b		 pop	 ebx
  00094	5d		 pop	 ebp
  00095	c2 0c 00	 ret	 12			; 0000000cH
$LN23@SerializeE:
; File C:\Program Files (x86)\Microsoft Visual Studio\2019\Community\VC\Tools\MSVC\14.29.30133\atlmfc\include\afx.inl

; 402  : 		AfxThrowArchiveException(CArchiveException::endOfFile);

  00098	6a 00		 push	 0
  0009a	6a 03		 push	 3
  0009c	e8 00 00 00 00	 call	 ?AfxThrowArchiveException@@YGXHPBD@Z ; AfxThrowArchiveException
$LN34@SerializeE:
; File C:\Program Files (x86)\Microsoft Visual Studio\2019\Community\VC\Tools\MSVC\14.29.30133\atlmfc\include\afxtempl.h

; 68   : 	ENSURE(nCount == 0 || pElements != NULL);

  000a1	e8 00 00 00 00	 call	 ?AfxThrowInvalidArgException@@YGXXZ ; AfxThrowInvalidArgException
$LN32@SerializeE:
  000a6	cc		 int	 3
??$SerializeElements@PAVCJongDataInListCtrl@@@@YGXAAVCArchive@@PAPAVCJongDataInListCtrl@@H@Z ENDP ; SerializeElements<CJongDataInListCtrl *>
_TEXT	ENDS
; Function compile flags: /Ogtp
; File C:\Program Files (x86)\Microsoft Visual Studio\2019\Community\VC\Tools\MSVC\14.29.30133\atlmfc\include\afxtempl.h
; File C:\Program Files (x86)\Microsoft Visual Studio\2019\Community\VC\Tools\MSVC\14.29.30133\atlmfc\include\cstringt.h
; File C:\Program Files (x86)\Microsoft Visual Studio\2019\Community\VC\Tools\MSVC\14.29.30133\atlmfc\include\afxtempl.h
;	COMDAT ??$CompareElements@V?$CStringT@DV?$StrTraitMFC_DLL@DV?$ChTraitsCRT@D@ATL@@@@@ATL@@PBD@@YGHPBV?$CStringT@DV?$StrTraitMFC_DLL@DV?$ChTraitsCRT@D@ATL@@@@@ATL@@PBQBD@Z
_TEXT	SEGMENT
_pElement1$ = 8						; size = 4
_pElement2$ = 12					; size = 4
??$CompareElements@V?$CStringT@DV?$StrTraitMFC_DLL@DV?$ChTraitsCRT@D@ATL@@@@@ATL@@PBD@@YGHPBV?$CStringT@DV?$StrTraitMFC_DLL@DV?$ChTraitsCRT@D@ATL@@@@@ATL@@PBQBD@Z PROC ; CompareElements<ATL::CStringT<char,StrTraitMFC_DLL<char,ATL::ChTraitsCRT<char> > >,char const *>, COMDAT

; 151  : {

  00000	55		 push	 ebp
  00001	8b ec		 mov	 ebp, esp

; 152  : 	ENSURE(pElement1 != NULL && pElement2 != NULL);

  00003	8b 4d 08	 mov	 ecx, DWORD PTR _pElement1$[ebp]
  00006	85 c9		 test	 ecx, ecx
  00008	74 18		 je	 SHORT $LN7@CompareEle
  0000a	8b 45 0c	 mov	 eax, DWORD PTR _pElement2$[ebp]
  0000d	85 c0		 test	 eax, eax
  0000f	74 11		 je	 SHORT $LN7@CompareEle
; File C:\Program Files (x86)\Microsoft Visual Studio\2019\Community\VC\Tools\MSVC\14.29.30133\atlmfc\include\cstringt.h

; 2486 : 		return(str1.Compare(psz2) == 0);

  00011	ff 30		 push	 DWORD PTR [eax]
  00013	ff 15 00 00 00
	00		 call	 DWORD PTR __imp_?Compare@?$CStringT@DV?$StrTraitMFC_DLL@DV?$ChTraitsCRT@D@ATL@@@@@ATL@@QBEHPBD@Z
  00019	f7 d8		 neg	 eax
  0001b	1b c0		 sbb	 eax, eax
  0001d	40		 inc	 eax
; File C:\Program Files (x86)\Microsoft Visual Studio\2019\Community\VC\Tools\MSVC\14.29.30133\atlmfc\include\afxtempl.h

; 157  : }

  0001e	5d		 pop	 ebp
  0001f	c2 08 00	 ret	 8
$LN7@CompareEle:

; 152  : 	ENSURE(pElement1 != NULL && pElement2 != NULL);

  00022	e8 00 00 00 00	 call	 ?AfxThrowInvalidArgException@@YGXXZ ; AfxThrowInvalidArgException
$LN12@CompareEle:
  00027	cc		 int	 3
??$CompareElements@V?$CStringT@DV?$StrTraitMFC_DLL@DV?$ChTraitsCRT@D@ATL@@@@@ATL@@PBD@@YGHPBV?$CStringT@DV?$StrTraitMFC_DLL@DV?$ChTraitsCRT@D@ATL@@@@@ATL@@PBQBD@Z ENDP ; CompareElements<ATL::CStringT<char,StrTraitMFC_DLL<char,ATL::ChTraitsCRT<char> > >,char const *>
_TEXT	ENDS
; Function compile flags: /Ogtp
; File D:\git\src\IBK\IBK_DRFN\ProjSrc\SrcDrfn\Chart\comparechart\XListCtrlJongData.cpp
;	COMDAT ?CompareByIndex@@YAHPBX0@Z
_TEXT	SEGMENT
_elem1$ = 8						; size = 4
_elem2$ = 12						; size = 4
?CompareByIndex@@YAHPBX0@Z PROC				; CompareByIndex, COMDAT

; 44   : {

  00000	55		 push	 ebp
  00001	8b ec		 mov	 ebp, esp

; 45   :         UINT *p1 = (UINT*)elem1;
; 46   :         UINT *p2 = (UINT*)elem2;
; 47   : 		if(*p1 == *p2) return 0;

  00003	8b 45 08	 mov	 eax, DWORD PTR _elem1$[ebp]
  00006	8b 08		 mov	 ecx, DWORD PTR [eax]
  00008	8b 45 0c	 mov	 eax, DWORD PTR _elem2$[ebp]
  0000b	8b 00		 mov	 eax, DWORD PTR [eax]
  0000d	3b c1		 cmp	 eax, ecx
  0000f	75 04		 jne	 SHORT $LN5@CompareByI
  00011	33 c0		 xor	 eax, eax

; 49   :         return -1;
; 50   : }

  00013	5d		 pop	 ebp
  00014	c3		 ret	 0
$LN5@CompareByI:

; 48   : 		if(*p1 > *p2) return 1;

  00015	1b c0		 sbb	 eax, eax
  00017	83 e0 02	 and	 eax, 2
  0001a	48		 dec	 eax

; 49   :         return -1;
; 50   : }

  0001b	5d		 pop	 ebp
  0001c	c3		 ret	 0
?CompareByIndex@@YAHPBX0@Z ENDP				; CompareByIndex
_TEXT	ENDS
; Function compile flags: /Ogtp
;	COMDAT ??1STINPUTCODEDATA@@QAE@XZ
_TEXT	SEGMENT
??1STINPUTCODEDATA@@QAE@XZ PROC				; STINPUTCODEDATA::~STINPUTCODEDATA, COMDAT
; _this$ = ecx
  00000	56		 push	 esi
  00001	8b f1		 mov	 esi, ecx
  00003	8d 4e 04	 lea	 ecx, DWORD PTR [esi+4]
  00006	ff 15 00 00 00
	00		 call	 DWORD PTR __imp_??1?$CStringT@DV?$StrTraitMFC_DLL@DV?$ChTraitsCRT@D@ATL@@@@@ATL@@QAE@XZ
  0000c	8b ce		 mov	 ecx, esi
  0000e	5e		 pop	 esi
  0000f	ff 25 00 00 00
	00		 jmp	 DWORD PTR __imp_??1?$CStringT@DV?$StrTraitMFC_DLL@DV?$ChTraitsCRT@D@ATL@@@@@ATL@@QAE@XZ
??1STINPUTCODEDATA@@QAE@XZ ENDP				; STINPUTCODEDATA::~STINPUTCODEDATA
_TEXT	ENDS
; Function compile flags: /Ogtp
; File D:\git\src\IBK\IBK_DRFN\ProjSrc\SrcDrfn\Chart\comparechart\define\ChartMsgDef.h
;	COMDAT ??__ERMSG_CHANGE_CROSSLINE@@YAXXZ
text$di	SEGMENT
??__ERMSG_CHANGE_CROSSLINE@@YAXXZ PROC			; `dynamic initializer for 'RMSG_CHANGE_CROSSLINE'', COMDAT

; 216  : const UINT RMSG_CHANGE_CROSSLINE = ::RegisterWindowMessage(_T("RMSG_CHANGE_CROSSLINE"));

  00000	68 00 00 00 00	 push	 OFFSET ??_C@_0BG@LNLCJKPF@RMSG_CHANGE_CROSSLINE@
  00005	ff 15 00 00 00
	00		 call	 DWORD PTR __imp__RegisterWindowMessageA@4
  0000b	a3 00 00 00 00	 mov	 DWORD PTR ?RMSG_CHANGE_CROSSLINE@@3IB, eax
  00010	c3		 ret	 0
??__ERMSG_CHANGE_CROSSLINE@@YAXXZ ENDP			; `dynamic initializer for 'RMSG_CHANGE_CROSSLINE''
text$di	ENDS
; Function compile flags: /Ogtp
; File D:\git\src\IBK\IBK_DRFN\ProjSrc\SrcDrfn\Chart\comparechart\define\ChartMsgDef.h
;	COMDAT ??__ERMSG_GET_SKINCOLOR@@YAXXZ
text$di	SEGMENT
??__ERMSG_GET_SKINCOLOR@@YAXXZ PROC			; `dynamic initializer for 'RMSG_GET_SKINCOLOR'', COMDAT

; 214  : const UINT RMSG_GET_SKINCOLOR = ::RegisterWindowMessage(_T("RMSG_GET_SKINCOLOR"));

  00000	68 00 00 00 00	 push	 OFFSET ??_C@_0BD@FLDNDDHK@RMSG_GET_SKINCOLOR@
  00005	ff 15 00 00 00
	00		 call	 DWORD PTR __imp__RegisterWindowMessageA@4
  0000b	a3 00 00 00 00	 mov	 DWORD PTR ?RMSG_GET_SKINCOLOR@@3IB, eax
  00010	c3		 ret	 0
??__ERMSG_GET_SKINCOLOR@@YAXXZ ENDP			; `dynamic initializer for 'RMSG_GET_SKINCOLOR''
text$di	ENDS
; Function compile flags: /Ogtp
; File D:\git\src\IBK\IBK_DRFN\ProjSrc\SrcDrfn\Chart\comparechart\define\ChartMsgDef.h
;	COMDAT ??__ERMSG_CHANGE_SKINCOLOR@@YAXXZ
text$di	SEGMENT
??__ERMSG_CHANGE_SKINCOLOR@@YAXXZ PROC			; `dynamic initializer for 'RMSG_CHANGE_SKINCOLOR'', COMDAT

; 213  : const UINT RMSG_CHANGE_SKINCOLOR = ::RegisterWindowMessage(_T("RMSG_CHANGE_SKINCOLOR"));

  00000	68 00 00 00 00	 push	 OFFSET ??_C@_0BG@CNPAHNGG@RMSG_CHANGE_SKINCOLOR@
  00005	ff 15 00 00 00
	00		 call	 DWORD PTR __imp__RegisterWindowMessageA@4
  0000b	a3 00 00 00 00	 mov	 DWORD PTR ?RMSG_CHANGE_SKINCOLOR@@3IB, eax
  00010	c3		 ret	 0
??__ERMSG_CHANGE_SKINCOLOR@@YAXXZ ENDP			; `dynamic initializer for 'RMSG_CHANGE_SKINCOLOR''
text$di	ENDS
; Function compile flags: /Ogtp
; File D:\git\src\IBK\IBK_DRFN\ProjSrc\SrcDrfn\Chart\comparechart\define\ChartMsgDef.h
;	COMDAT ??__ERMSG_GETINFO@@YAXXZ
text$di	SEGMENT
??__ERMSG_GETINFO@@YAXXZ PROC				; `dynamic initializer for 'RMSG_GETINFO'', COMDAT

; 204  : const UINT RMSG_GETINFO = ::RegisterWindowMessage(_T("RMSG_GETINFO"));

  00000	68 00 00 00 00	 push	 OFFSET ??_C@_0N@IIOKMIEH@RMSG_GETINFO@
  00005	ff 15 00 00 00
	00		 call	 DWORD PTR __imp__RegisterWindowMessageA@4
  0000b	a3 00 00 00 00	 mov	 DWORD PTR ?RMSG_GETINFO@@3IB, eax
  00010	c3		 ret	 0
??__ERMSG_GETINFO@@YAXXZ ENDP				; `dynamic initializer for 'RMSG_GETINFO''
text$di	ENDS
; Function compile flags: /Ogtp
; File D:\git\src\IBK\IBK_DRFN\ProjSrc\SrcDrfn\Chart\comparechart\define\ChartMsgDef.h
;	COMDAT ??__ERMSG_KSDLLINFO@@YAXXZ
text$di	SEGMENT
??__ERMSG_KSDLLINFO@@YAXXZ PROC				; `dynamic initializer for 'RMSG_KSDLLINFO'', COMDAT

; 203  : const UINT RMSG_KSDLLINFO = ::RegisterWindowMessage(_T("RMSG_KSDLLINFO"));		// TrmCompCharView 

  00000	68 00 00 00 00	 push	 OFFSET ??_C@_0P@LFDACNFE@RMSG_KSDLLINFO@
  00005	ff 15 00 00 00
	00		 call	 DWORD PTR __imp__RegisterWindowMessageA@4
  0000b	a3 00 00 00 00	 mov	 DWORD PTR ?RMSG_KSDLLINFO@@3IB, eax
  00010	c3		 ret	 0
??__ERMSG_KSDLLINFO@@YAXXZ ENDP				; `dynamic initializer for 'RMSG_KSDLLINFO''
text$di	ENDS
; Function compile flags: /Ogtp
; File D:\git\src\IBK\IBK_DRFN\ProjSrc\SrcDrfn\Chart\comparechart\define\ChartMsgDef.h
;	COMDAT ??__ERMSG_GET_USERID@@YAXXZ
text$di	SEGMENT
??__ERMSG_GET_USERID@@YAXXZ PROC			; `dynamic initializer for 'RMSG_GET_USERID'', COMDAT

; 200  : const UINT RMSG_GET_USERID = ::RegisterWindowMessage(_T("RMSG_GET_USERID"));	// User ID 

  00000	68 00 00 00 00	 push	 OFFSET ??_C@_0BA@HKNFENJL@RMSG_GET_USERID@
  00005	ff 15 00 00 00
	00		 call	 DWORD PTR __imp__RegisterWindowMessageA@4
  0000b	a3 00 00 00 00	 mov	 DWORD PTR ?RMSG_GET_USERID@@3IB, eax
  00010	c3		 ret	 0
??__ERMSG_GET_USERID@@YAXXZ ENDP			; `dynamic initializer for 'RMSG_GET_USERID''
text$di	ENDS
; Function compile flags: /Ogtp
; File D:\git\src\IBK\IBK_DRFN\ProjSrc\SrcDrfn\Chart\comparechart\define\ChartMsgDef.h
;	COMDAT ??__ERMS_ANALYSIS_FUNC@@YAXXZ
text$di	SEGMENT
??__ERMS_ANALYSIS_FUNC@@YAXXZ PROC			; `dynamic initializer for 'RMS_ANALYSIS_FUNC'', COMDAT

; 196  : const UINT RMS_ANALYSIS_FUNC	= ::RegisterWindowMessage(_T("RMS_ANALYSIS_FUNC"));

  00000	68 00 00 00 00	 push	 OFFSET ??_C@_0BC@MMPGLPDH@RMS_ANALYSIS_FUNC@
  00005	ff 15 00 00 00
	00		 call	 DWORD PTR __imp__RegisterWindowMessageA@4
  0000b	a3 00 00 00 00	 mov	 DWORD PTR ?RMS_ANALYSIS_FUNC@@3IB, eax
  00010	c3		 ret	 0
??__ERMS_ANALYSIS_FUNC@@YAXXZ ENDP			; `dynamic initializer for 'RMS_ANALYSIS_FUNC''
text$di	ENDS
; Function compile flags: /Ogtp
; File D:\git\src\IBK\IBK_DRFN\ProjSrc\SrcDrfn\Chart\comparechart\define\ChartMsgDef.h
;	COMDAT ??__ERMSG_CHARTMAIN@@YAXXZ
text$di	SEGMENT
??__ERMSG_CHARTMAIN@@YAXXZ PROC				; `dynamic initializer for 'RMSG_CHARTMAIN'', COMDAT

; 193  : const UINT RMSG_CHARTMAIN		= ::RegisterWindowMessage(_T("RMSG_CHARTMAIN"));

  00000	68 00 00 00 00	 push	 OFFSET ??_C@_0P@KHFCBIOH@RMSG_CHARTMAIN@
  00005	ff 15 00 00 00
	00		 call	 DWORD PTR __imp__RegisterWindowMessageA@4
  0000b	a3 00 00 00 00	 mov	 DWORD PTR ?RMSG_CHARTMAIN@@3IB, eax
  00010	c3		 ret	 0
??__ERMSG_CHARTMAIN@@YAXXZ ENDP				; `dynamic initializer for 'RMSG_CHARTMAIN''
text$di	ENDS
; Function compile flags: /Ogtp
; File D:\git\src\IBK\IBK_DRFN\ProjSrc\SrcDrfn\Chart\commontr\TRDefine.h
;	COMDAT ??__ERMSG_GETSIGNAL_REAL@@YAXXZ
text$di	SEGMENT
??__ERMSG_GETSIGNAL_REAL@@YAXXZ PROC			; `dynamic initializer for 'RMSG_GETSIGNAL_REAL'', COMDAT

; 213  : const UINT RMSG_GETSIGNAL_REAL = ::RegisterWindowMessage(_T("RMSG_GETSIGNAL_REAL"));

  00000	68 00 00 00 00	 push	 OFFSET ??_C@_0BE@FJPKENOB@RMSG_GETSIGNAL_REAL@
  00005	ff 15 00 00 00
	00		 call	 DWORD PTR __imp__RegisterWindowMessageA@4
  0000b	a3 00 00 00 00	 mov	 DWORD PTR ?RMSG_GETSIGNAL_REAL@@3IB, eax
  00010	c3		 ret	 0
??__ERMSG_GETSIGNAL_REAL@@YAXXZ ENDP			; `dynamic initializer for 'RMSG_GETSIGNAL_REAL''
text$di	ENDS
; Function compile flags: /Ogtp
; File D:\git\src\IBK\IBK_DRFN\ProjSrc\SrcDrfn\Chart\comparechart\XListCtrlJongData.cpp
; File C:\Program Files (x86)\Microsoft Visual Studio\2019\Community\VC\Tools\MSVC\14.29.30133\atlmfc\include\afxtempl.h
; File D:\git\src\IBK\IBK_DRFN\ProjSrc\SrcDrfn\Chart\comparechart\XListCtrlJongData.cpp
; File C:\Program Files (x86)\Microsoft Visual Studio\2019\Community\VC\Tools\MSVC\14.29.30133\atlmfc\include\afxtempl.h
; File D:\git\src\IBK\IBK_DRFN\ProjSrc\SrcDrfn\Chart\comparechart\XListCtrlJongData.cpp
; File C:\Program Files (x86)\Microsoft Visual Studio\2019\Community\VC\Tools\MSVC\14.29.30133\atlmfc\include\afxtempl.h
; File D:\git\src\IBK\IBK_DRFN\ProjSrc\SrcDrfn\Chart\comparechart\XListCtrlJongData.cpp
; File C:\Program Files (x86)\Microsoft Visual Studio\2019\Community\VC\Tools\MSVC\14.29.30133\atlmfc\include\afx.inl
;	COMDAT ??_GCXListCtrlJongData@@UAEPAXI@Z
_TEXT	SEGMENT
__$EHRec$ = -12						; size = 12
___flags$ = 8						; size = 4
??_GCXListCtrlJongData@@UAEPAXI@Z PROC			; CXListCtrlJongData::`scalar deleting destructor', COMDAT
; _this$ = ecx
  00000	55		 push	 ebp
  00001	8b ec		 mov	 ebp, esp
  00003	6a ff		 push	 -1
  00005	68 00 00 00 00	 push	 __ehhandler$??_GCXListCtrlJongData@@UAEPAXI@Z
  0000a	64 a1 00 00 00
	00		 mov	 eax, DWORD PTR fs:0
  00010	50		 push	 eax
  00011	56		 push	 esi
  00012	a1 00 00 00 00	 mov	 eax, DWORD PTR ___security_cookie
  00017	33 c5		 xor	 eax, ebp
  00019	50		 push	 eax
  0001a	8d 45 f4	 lea	 eax, DWORD PTR __$EHRec$[ebp]
  0001d	64 a3 00 00 00
	00		 mov	 DWORD PTR fs:0, eax
  00023	8b f1		 mov	 esi, ecx
; File D:\git\src\IBK\IBK_DRFN\ProjSrc\SrcDrfn\Chart\comparechart\XListCtrlJongData.cpp

; 78   : }

  00025	8d 8e 7c 03 00
	00		 lea	 ecx, DWORD PTR [esi+892]
  0002b	c7 06 00 00 00
	00		 mov	 DWORD PTR [esi], OFFSET ??_7CXListCtrlJongData@@6B@
  00031	ff 15 00 00 00
	00		 call	 DWORD PTR __imp_??1?$CStringT@DV?$StrTraitMFC_DLL@DV?$ChTraitsCRT@D@ATL@@@@@ATL@@QAE@XZ
  00037	8d 8e 98 02 00
	00		 lea	 ecx, DWORD PTR [esi+664]
; File C:\Program Files (x86)\Microsoft Visual Studio\2019\Community\VC\Tools\MSVC\14.29.30133\atlmfc\include\afxtempl.h

; 1472 : {

  0003d	c7 45 fc 00 00
	00 00		 mov	 DWORD PTR __$EHRec$[ebp+8], 0
  00044	c7 01 00 00 00
	00		 mov	 DWORD PTR [ecx], OFFSET ??_7?$CMap@V?$CStringT@DV?$StrTraitMFC_DLL@DV?$ChTraitsCRT@D@ATL@@@@@ATL@@PBDPAVCJongDataInListCtrl@@PAV3@@@6B@

; 1473 : 	RemoveAll();

  0004a	e8 00 00 00 00	 call	 ?RemoveAll@?$CMap@V?$CStringT@DV?$StrTraitMFC_DLL@DV?$ChTraitsCRT@D@ATL@@@@@ATL@@PBDPAVCJongDataInListCtrl@@PAV3@@@QAEXXZ ; CMap<ATL::CStringT<char,StrTraitMFC_DLL<char,ATL::ChTraitsCRT<char> > >,char const *,CJongDataInListCtrl *,CJongDataInListCtrl *>::RemoveAll
; File D:\git\src\IBK\IBK_DRFN\ProjSrc\SrcDrfn\Chart\comparechart\XListCtrlJongData.cpp

; 78   : }

  0004f	8d 8e 7c 02 00
	00		 lea	 ecx, DWORD PTR [esi+636]
; File C:\Program Files (x86)\Microsoft Visual Studio\2019\Community\VC\Tools\MSVC\14.29.30133\atlmfc\include\afxtempl.h

; 1472 : {

  00055	c7 45 fc 01 00
	00 00		 mov	 DWORD PTR __$EHRec$[ebp+8], 1
  0005c	c7 01 00 00 00
	00		 mov	 DWORD PTR [ecx], OFFSET ??_7?$CMap@V?$CStringT@DV?$StrTraitMFC_DLL@DV?$ChTraitsCRT@D@ATL@@@@@ATL@@PBDPAVCJongDataInListCtrl@@PAV3@@@6B@

; 1473 : 	RemoveAll();

  00062	e8 00 00 00 00	 call	 ?RemoveAll@?$CMap@V?$CStringT@DV?$StrTraitMFC_DLL@DV?$ChTraitsCRT@D@ATL@@@@@ATL@@PBDPAVCJongDataInListCtrl@@PAV3@@@QAEXXZ ; CMap<ATL::CStringT<char,StrTraitMFC_DLL<char,ATL::ChTraitsCRT<char> > >,char const *,CJongDataInListCtrl *,CJongDataInListCtrl *>::RemoveAll
; File D:\git\src\IBK\IBK_DRFN\ProjSrc\SrcDrfn\Chart\comparechart\XListCtrlJongData.cpp

; 78   : }

  00067	8d 8e 60 02 00
	00		 lea	 ecx, DWORD PTR [esi+608]
; File C:\Program Files (x86)\Microsoft Visual Studio\2019\Community\VC\Tools\MSVC\14.29.30133\atlmfc\include\afxtempl.h

; 1472 : {

  0006d	c7 45 fc 02 00
	00 00		 mov	 DWORD PTR __$EHRec$[ebp+8], 2
  00074	c7 01 00 00 00
	00		 mov	 DWORD PTR [ecx], OFFSET ??_7?$CMap@V?$CStringT@DV?$StrTraitMFC_DLL@DV?$ChTraitsCRT@D@ATL@@@@@ATL@@PBDPAVCJongDataInListCtrl@@PAV3@@@6B@

; 1473 : 	RemoveAll();

  0007a	e8 00 00 00 00	 call	 ?RemoveAll@?$CMap@V?$CStringT@DV?$StrTraitMFC_DLL@DV?$ChTraitsCRT@D@ATL@@@@@ATL@@PBDPAVCJongDataInListCtrl@@PAV3@@@QAEXXZ ; CMap<ATL::CStringT<char,StrTraitMFC_DLL<char,ATL::ChTraitsCRT<char> > >,char const *,CJongDataInListCtrl *,CJongDataInListCtrl *>::RemoveAll
; File D:\git\src\IBK\IBK_DRFN\ProjSrc\SrcDrfn\Chart\comparechart\XListCtrlJongData.cpp

; 78   : }

  0007f	8d 8e 4c 02 00
	00		 lea	 ecx, DWORD PTR [esi+588]
  00085	e8 00 00 00 00	 call	 ??1CStringArray@@UAE@XZ	; CStringArray::~CStringArray
  0008a	8d 8e 38 02 00
	00		 lea	 ecx, DWORD PTR [esi+568]
  00090	e8 00 00 00 00	 call	 ??1CStringArray@@UAE@XZ	; CStringArray::~CStringArray
  00095	8d 8e 24 02 00
	00		 lea	 ecx, DWORD PTR [esi+548]
  0009b	e8 00 00 00 00	 call	 ??1CStringArray@@UAE@XZ	; CStringArray::~CStringArray
  000a0	8d 8e 10 02 00
	00		 lea	 ecx, DWORD PTR [esi+528]
  000a6	e8 00 00 00 00	 call	 ??1CStringArray@@UAE@XZ	; CStringArray::~CStringArray
  000ab	8b ce		 mov	 ecx, esi
  000ad	e8 00 00 00 00	 call	 ??1CXListCtrl@@UAE@XZ	; CXListCtrl::~CXListCtrl
  000b2	8b 45 08	 mov	 eax, DWORD PTR ___flags$[ebp]
  000b5	a8 01		 test	 al, 1
  000b7	74 2f		 je	 SHORT $LN21@scalar
  000b9	a8 04		 test	 al, 4
  000bb	75 1d		 jne	 SHORT $LN3@scalar
; File C:\Program Files (x86)\Microsoft Visual Studio\2019\Community\VC\Tools\MSVC\14.29.30133\atlmfc\include\afx.inl

; 112  : 	{ ::operator delete(p); }

  000bd	56		 push	 esi
  000be	e8 00 00 00 00	 call	 ??3@YAXPAX@Z		; operator delete
  000c3	83 c4 04	 add	 esp, 4
  000c6	8b c6		 mov	 eax, esi
  000c8	8b 4d f4	 mov	 ecx, DWORD PTR __$EHRec$[ebp]
  000cb	64 89 0d 00 00
	00 00		 mov	 DWORD PTR fs:0, ecx
  000d2	59		 pop	 ecx
  000d3	5e		 pop	 esi
  000d4	8b e5		 mov	 esp, ebp
  000d6	5d		 pop	 ebp
  000d7	c2 04 00	 ret	 4
$LN3@scalar:
  000da	68 80 03 00 00	 push	 896			; 00000380H
  000df	56		 push	 esi
  000e0	e8 00 00 00 00	 call	 ?__global_delete@@YAXPAXI@Z ; __global_delete
  000e5	83 c4 08	 add	 esp, 8
$LN21@scalar:
  000e8	8b c6		 mov	 eax, esi
  000ea	8b 4d f4	 mov	 ecx, DWORD PTR __$EHRec$[ebp]
  000ed	64 89 0d 00 00
	00 00		 mov	 DWORD PTR fs:0, ecx
  000f4	59		 pop	 ecx
  000f5	5e		 pop	 esi
  000f6	8b e5		 mov	 esp, ebp
  000f8	5d		 pop	 ebp
  000f9	c2 04 00	 ret	 4
  000fc	cc		 int	 3
  000fd	cc		 int	 3
  000fe	cc		 int	 3
  000ff	cc		 int	 3
  00100	cc		 int	 3
_TEXT	ENDS
;	COMDAT text$x
text$x	SEGMENT
__ehhandler$??_GCXListCtrlJongData@@UAEPAXI@Z:
  00000	90		 npad	 1
  00001	90		 npad	 1
  00002	8b 54 24 08	 mov	 edx, DWORD PTR [esp+8]
  00006	8d 42 0c	 lea	 eax, DWORD PTR [edx+12]
  00009	8b 4a f8	 mov	 ecx, DWORD PTR [edx-8]
  0000c	33 c8		 xor	 ecx, eax
  0000e	e8 00 00 00 00	 call	 @__security_check_cookie@4
  00013	b8 00 00 00 00	 mov	 eax, OFFSET __ehfuncinfo$??_GCXListCtrlJongData@@UAEPAXI@Z
  00018	e9 00 00 00 00	 jmp	 ___CxxFrameHandler3
text$x	ENDS
??_GCXListCtrlJongData@@UAEPAXI@Z ENDP			; CXListCtrlJongData::`scalar deleting destructor'
; Function compile flags: /Ogtp
; File D:\git\src\IBK\IBK_DRFN\ProjSrc\SrcDrfn\Chart\comparechart\XListCtrlJongData.cpp
;	COMDAT ?GetMessageMap@CXListCtrlJongData@@MBEPBUAFX_MSGMAP@@XZ
_TEXT	SEGMENT
?GetMessageMap@CXListCtrlJongData@@MBEPBUAFX_MSGMAP@@XZ PROC ; CXListCtrlJongData::GetMessageMap, COMDAT
; _this$ = ecx

; 81   : BEGIN_MESSAGE_MAP(CXListCtrlJongData, CXListCtrl)

  00000	b8 00 00 00 00	 mov	 eax, OFFSET ?messageMap@?1??GetThisMessageMap@CXListCtrlJongData@@KGPBUAFX_MSGMAP@@XZ@4U3@B
  00005	c3		 ret	 0
?GetMessageMap@CXListCtrlJongData@@MBEPBUAFX_MSGMAP@@XZ ENDP ; CXListCtrlJongData::GetMessageMap
_TEXT	ENDS
; Function compile flags: /Ogtp
; File D:\git\src\IBK\IBK_DRFN\ProjSrc\SrcDrfn\Chart\comparechart\XListCtrlJongData.cpp
;	COMDAT ?GetThisMessageMap@CXListCtrlJongData@@KGPBUAFX_MSGMAP@@XZ
_TEXT	SEGMENT
?GetThisMessageMap@CXListCtrlJongData@@KGPBUAFX_MSGMAP@@XZ PROC ; CXListCtrlJongData::GetThisMessageMap, COMDAT

; 82   : 	//{{AFX_MSG_MAP(CXListCtrlJongData)
; 83   : 	ON_NOTIFY_REFLECT_EX(LVN_COLUMNCLICK, OnColumnClick)
; 84   : 	ON_WM_DESTROY()
; 85   : 	ON_WM_KEYUP()
; 86   : 	//}}AFX_MSG_MAP
; 87   : END_MESSAGE_MAP()

  00000	b8 00 00 00 00	 mov	 eax, OFFSET ?messageMap@?1??GetThisMessageMap@CXListCtrlJongData@@KGPBUAFX_MSGMAP@@XZ@4U3@B
  00005	c3		 ret	 0
?GetThisMessageMap@CXListCtrlJongData@@KGPBUAFX_MSGMAP@@XZ ENDP ; CXListCtrlJongData::GetThisMessageMap
_TEXT	ENDS
; Function compile flags: /Ogtp
; File D:\git\src\IBK\IBK_DRFN\ProjSrc\SrcDrfn\Chart\comparechart\XListCtrlJongData.cpp
; File C:\Program Files (x86)\Microsoft Visual Studio\2019\Community\VC\Tools\MSVC\14.29.30133\atlmfc\include\afxwin2.inl
; File D:\git\src\IBK\IBK_DRFN\ProjSrc\SrcDrfn\Chart\comparechart\XListCtrlJongData.cpp
; File C:\Program Files (x86)\Microsoft Visual Studio\2019\Community\VC\Tools\MSVC\14.29.30133\atlmfc\include\afxwin2.inl
; File D:\git\src\IBK\IBK_DRFN\ProjSrc\SrcDrfn\Chart\comparechart\XListCtrlJongData.cpp
; File C:\Program Files (x86)\Microsoft Visual Studio\2019\Community\VC\Tools\MSVC\14.29.30133\atlmfc\include\afxwin2.inl
; File D:\git\src\IBK\IBK_DRFN\ProjSrc\SrcDrfn\Chart\comparechart\XListCtrlJongData.cpp
; File C:\Program Files (x86)\Microsoft Visual Studio\2019\Community\VC\Tools\MSVC\14.29.30133\atlmfc\include\afxwin2.inl
; File D:\git\src\IBK\IBK_DRFN\ProjSrc\SrcDrfn\Chart\comparechart\XListCtrlJongData.cpp
; File C:\Program Files (x86)\Microsoft Visual Studio\2019\Community\VC\Tools\MSVC\14.29.30133\atlmfc\include\afxwin2.inl
; File D:\git\src\IBK\IBK_DRFN\ProjSrc\SrcDrfn\Chart\comparechart\XListCtrlJongData.cpp
;	COMDAT ?OnKeyUp@CXListCtrlJongData@@IAEXIII@Z
_TEXT	SEGMENT
_stInputCodeData$2 = -28				; size = 16
__$EHRec$ = -12						; size = 12
$T3 = 8							; size = 4
_nChar$ = 8						; size = 4
_nRepCnt$ = 12						; size = 4
_nFlags$ = 16						; size = 4
?OnKeyUp@CXListCtrlJongData@@IAEXIII@Z PROC		; CXListCtrlJongData::OnKeyUp, COMDAT
; _this$ = ecx

; 562  : {

  00000	55		 push	 ebp
  00001	8b ec		 mov	 ebp, esp
  00003	6a ff		 push	 -1
  00005	68 00 00 00 00	 push	 __ehhandler$?OnKeyUp@CXListCtrlJongData@@IAEXIII@Z
  0000a	64 a1 00 00 00
	00		 mov	 eax, DWORD PTR fs:0
  00010	50		 push	 eax
  00011	83 ec 10	 sub	 esp, 16			; 00000010H
  00014	56		 push	 esi
  00015	a1 00 00 00 00	 mov	 eax, DWORD PTR ___security_cookie
  0001a	33 c5		 xor	 eax, ebp
  0001c	50		 push	 eax
  0001d	8d 45 f4	 lea	 eax, DWORD PTR __$EHRec$[ebp]
  00020	64 a3 00 00 00
	00		 mov	 DWORD PTR fs:0, eax
  00026	8b f1		 mov	 esi, ecx

; 563  : 	// TODO: Add your message handler code here and/or call default
; 564  : 	if((nChar==40||nChar==38)&&m_pLeftBarDlg->GetEnableWindow())

  00028	8b 45 08	 mov	 eax, DWORD PTR _nChar$[ebp]
  0002b	83 f8 28	 cmp	 eax, 40			; 00000028H
  0002e	74 09		 je	 SHORT $LN3@OnKeyUp
  00030	83 f8 26	 cmp	 eax, 38			; 00000026H
  00033	0f 85 d9 00 00
	00		 jne	 $LN28@OnKeyUp
$LN3@OnKeyUp:
  00039	8b 8e b4 02 00
	00		 mov	 ecx, DWORD PTR [esi+692]
  0003f	e8 00 00 00 00	 call	 ?GetEnableWindow@CLeftBarDlg@@QAEHXZ ; CLeftBarDlg::GetEnableWindow
  00044	85 c0		 test	 eax, eax
  00046	0f 84 c6 00 00
	00		 je	 $LN28@OnKeyUp

; 565  : 	{
; 566  : 		STINPUTCODEDATA stInputCodeData;

  0004c	8d 4d e4	 lea	 ecx, DWORD PTR _stInputCodeData$2[ebp]
  0004f	ff 15 00 00 00
	00		 call	 DWORD PTR __imp_??0?$CStringT@DV?$StrTraitMFC_DLL@DV?$ChTraitsCRT@D@ATL@@@@@ATL@@QAE@XZ
  00055	8d 4d e8	 lea	 ecx, DWORD PTR _stInputCodeData$2[ebp+4]
  00058	ff 15 00 00 00
	00		 call	 DWORD PTR __imp_??0?$CStringT@DV?$StrTraitMFC_DLL@DV?$ChTraitsCRT@D@ATL@@@@@ATL@@QAE@XZ

; 409  : 		nCurSel = GetCurSel();

  0005e	8b ce		 mov	 ecx, esi

; 565  : 	{
; 566  : 		STINPUTCODEDATA stInputCodeData;

  00060	c7 45 fc 00 00
	00 00		 mov	 DWORD PTR __$EHRec$[ebp+8], 0

; 409  : 		nCurSel = GetCurSel();

  00067	e8 00 00 00 00	 call	 ?GetCurSel@CXListCtrl@@QAEHXZ ; CXListCtrl::GetCurSel

; 410  : 	}	
; 411  : 	if(nCurSel==-1) return "";

  0006c	83 f8 ff	 cmp	 eax, -1
  0006f	75 10		 jne	 SHORT $LN13@OnKeyUp
  00071	68 00 00 00 00	 push	 OFFSET ??_C@_00CNPNBAHC@@
  00076	8d 4d 08	 lea	 ecx, DWORD PTR $T3[ebp]
  00079	ff 15 00 00 00
	00		 call	 DWORD PTR __imp_??0?$CStringT@DV?$StrTraitMFC_DLL@DV?$ChTraitsCRT@D@ATL@@@@@ATL@@QAE@PBD@Z
  0007f	eb 12		 jmp	 SHORT $LN11@OnKeyUp
$LN13@OnKeyUp:

; 412  : 	pData = (CJongDataInListCtrl *)GetItemData(nCurSel);

  00081	50		 push	 eax
  00082	8b ce		 mov	 ecx, esi
  00084	e8 00 00 00 00	 call	 ?GetItemData@CXListCtrl@@QAEKH@Z ; CXListCtrl::GetItemData

; 413  : 	return pData->m_strJongCode;

  00089	50		 push	 eax
  0008a	8d 4d 08	 lea	 ecx, DWORD PTR $T3[ebp]
  0008d	ff 15 00 00 00
	00		 call	 DWORD PTR __imp_??0?$CStringT@DV?$StrTraitMFC_DLL@DV?$ChTraitsCRT@D@ATL@@@@@ATL@@QAE@ABV01@@Z
$LN11@OnKeyUp:

; 567  : 		stInputCodeData.m_strCode = GetCodeSelected();

  00093	8d 45 08	 lea	 eax, DWORD PTR $T3[ebp]
  00096	c6 45 fc 01	 mov	 BYTE PTR __$EHRec$[ebp+8], 1
  0009a	50		 push	 eax
  0009b	8d 4d e4	 lea	 ecx, DWORD PTR _stInputCodeData$2[ebp]
  0009e	ff 15 00 00 00
	00		 call	 DWORD PTR __imp_??4?$CStringT@DV?$StrTraitMFC_DLL@DV?$ChTraitsCRT@D@ATL@@@@@ATL@@QAEAAV01@ABV01@@Z
  000a4	8d 4d 08	 lea	 ecx, DWORD PTR $T3[ebp]
  000a7	c6 45 fc 00	 mov	 BYTE PTR __$EHRec$[ebp+8], 0
  000ab	ff 15 00 00 00
	00		 call	 DWORD PTR __imp_??1?$CStringT@DV?$StrTraitMFC_DLL@DV?$ChTraitsCRT@D@ATL@@@@@ATL@@QAE@XZ
; File C:\Program Files (x86)\Microsoft Visual Studio\2019\Community\VC\Tools\MSVC\14.29.30133\atlmfc\include\afxwin2.inl

; 213  : 	{ ASSERT(::IsWindow(m_hWnd)); return CWnd::FromHandle(::GetParent(m_hWnd)); }

  000b1	ff 76 20	 push	 DWORD PTR [esi+32]
  000b4	ff 15 00 00 00
	00		 call	 DWORD PTR __imp__GetParent@4
  000ba	50		 push	 eax
  000bb	e8 00 00 00 00	 call	 ?FromHandle@CWnd@@SGPAV1@PAUHWND__@@@Z ; CWnd::FromHandle
; File D:\git\src\IBK\IBK_DRFN\ProjSrc\SrcDrfn\Chart\comparechart\XListCtrlJongData.cpp

; 568  : 		if(((CTabDlg*)GetParent())->m_pChartMng->GetSafeHwnd()) // 2005. 04. 22 by Nam

  000c0	8b 80 c8 00 00
	00		 mov	 eax, DWORD PTR [eax+200]
; File C:\Program Files (x86)\Microsoft Visual Studio\2019\Community\VC\Tools\MSVC\14.29.30133\atlmfc\include\afxwin2.inl

; 25   : 	{ return this == NULL ? NULL : m_hWnd; }

  000c6	85 c0		 test	 eax, eax
  000c8	74 2f		 je	 SHORT $LN4@OnKeyUp
; File D:\git\src\IBK\IBK_DRFN\ProjSrc\SrcDrfn\Chart\comparechart\XListCtrlJongData.cpp

; 568  : 		if(((CTabDlg*)GetParent())->m_pChartMng->GetSafeHwnd()) // 2005. 04. 22 by Nam

  000ca	83 78 20 00	 cmp	 DWORD PTR [eax+32], 0
  000ce	74 29		 je	 SHORT $LN4@OnKeyUp
; File C:\Program Files (x86)\Microsoft Visual Studio\2019\Community\VC\Tools\MSVC\14.29.30133\atlmfc\include\afxwin2.inl

; 213  : 	{ ASSERT(::IsWindow(m_hWnd)); return CWnd::FromHandle(::GetParent(m_hWnd)); }

  000d0	ff 76 20	 push	 DWORD PTR [esi+32]
  000d3	ff 15 00 00 00
	00		 call	 DWORD PTR __imp__GetParent@4
  000d9	50		 push	 eax
  000da	e8 00 00 00 00	 call	 ?FromHandle@CWnd@@SGPAV1@PAUHWND__@@@Z ; CWnd::FromHandle

; 32   : 	{ ASSERT(::IsWindow(m_hWnd)); return ::SendMessage(m_hWnd, message, wParam, lParam); }

  000df	8d 4d e4	 lea	 ecx, DWORD PTR _stInputCodeData$2[ebp]
  000e2	51		 push	 ecx
  000e3	6a 00		 push	 0
; File D:\git\src\IBK\IBK_DRFN\ProjSrc\SrcDrfn\Chart\comparechart\XListCtrlJongData.cpp

; 569  : 			((CTabDlg*)GetParent())->m_pChartMng->SendMessage(UMSG_INPUTCODETOCHARTMNG,NULL,(LPARAM)&stInputCodeData);

  000e5	8b 80 c8 00 00
	00		 mov	 eax, DWORD PTR [eax+200]
; File C:\Program Files (x86)\Microsoft Visual Studio\2019\Community\VC\Tools\MSVC\14.29.30133\atlmfc\include\afxwin2.inl

; 32   : 	{ ASSERT(::IsWindow(m_hWnd)); return ::SendMessage(m_hWnd, message, wParam, lParam); }

  000eb	68 41 04 00 00	 push	 1089			; 00000441H
  000f0	ff 70 20	 push	 DWORD PTR [eax+32]
  000f3	ff 15 00 00 00
	00		 call	 DWORD PTR __imp__SendMessageA@16
$LN4@OnKeyUp:
  000f9	8d 4d e8	 lea	 ecx, DWORD PTR _stInputCodeData$2[ebp+4]
; File D:\git\src\IBK\IBK_DRFN\ProjSrc\SrcDrfn\Chart\comparechart\XListCtrlJongData.cpp

; 570  : 	}	

  000fc	c7 45 fc ff ff
	ff ff		 mov	 DWORD PTR __$EHRec$[ebp+8], -1
  00103	ff 15 00 00 00
	00		 call	 DWORD PTR __imp_??1?$CStringT@DV?$StrTraitMFC_DLL@DV?$ChTraitsCRT@D@ATL@@@@@ATL@@QAE@XZ
  00109	8d 4d e4	 lea	 ecx, DWORD PTR _stInputCodeData$2[ebp]
  0010c	ff 15 00 00 00
	00		 call	 DWORD PTR __imp_??1?$CStringT@DV?$StrTraitMFC_DLL@DV?$ChTraitsCRT@D@ATL@@@@@ATL@@QAE@XZ
$LN28@OnKeyUp:
; File C:\Program Files (x86)\Microsoft Visual Studio\2019\Community\VC\Tools\MSVC\14.29.30133\atlmfc\include\afxwin2.inl

; 426  : 	{ Default(); }

  00112	8b ce		 mov	 ecx, esi
  00114	e8 00 00 00 00	 call	 ?Default@CWnd@@IAEJXZ	; CWnd::Default
; File D:\git\src\IBK\IBK_DRFN\ProjSrc\SrcDrfn\Chart\comparechart\XListCtrlJongData.cpp

; 572  : }

  00119	8b 4d f4	 mov	 ecx, DWORD PTR __$EHRec$[ebp]
  0011c	64 89 0d 00 00
	00 00		 mov	 DWORD PTR fs:0, ecx
  00123	59		 pop	 ecx
  00124	5e		 pop	 esi
  00125	8b e5		 mov	 esp, ebp
  00127	5d		 pop	 ebp
  00128	c2 0c 00	 ret	 12			; 0000000cH
_TEXT	ENDS
;	COMDAT text$x
text$x	SEGMENT
__unwindfunclet$?OnKeyUp@CXListCtrlJongData@@IAEXIII@Z$0:
  00000	8d 4d e4	 lea	 ecx, DWORD PTR _stInputCodeData$2[ebp]
  00003	e9 00 00 00 00	 jmp	 ??1STINPUTCODEDATA@@QAE@XZ
__unwindfunclet$?OnKeyUp@CXListCtrlJongData@@IAEXIII@Z$1:
  00008	8d 4d 08	 lea	 ecx, DWORD PTR $T3[ebp]
  0000b	ff 25 00 00 00
	00		 jmp	 DWORD PTR __imp_??1?$CStringT@DV?$StrTraitMFC_DLL@DV?$ChTraitsCRT@D@ATL@@@@@ATL@@QAE@XZ
  00011	cc		 int	 3
  00012	cc		 int	 3
  00013	cc		 int	 3
  00014	cc		 int	 3
  00015	cc		 int	 3
__ehhandler$?OnKeyUp@CXListCtrlJongData@@IAEXIII@Z:
  00016	90		 npad	 1
  00017	90		 npad	 1
  00018	8b 54 24 08	 mov	 edx, DWORD PTR [esp+8]
  0001c	8d 42 0c	 lea	 eax, DWORD PTR [edx+12]
  0001f	8b 4a e8	 mov	 ecx, DWORD PTR [edx-24]
  00022	33 c8		 xor	 ecx, eax
  00024	e8 00 00 00 00	 call	 @__security_check_cookie@4
  00029	b8 00 00 00 00	 mov	 eax, OFFSET __ehfuncinfo$?OnKeyUp@CXListCtrlJongData@@IAEXIII@Z
  0002e	e9 00 00 00 00	 jmp	 ___CxxFrameHandler3
text$x	ENDS
?OnKeyUp@CXListCtrlJongData@@IAEXIII@Z ENDP		; CXListCtrlJongData::OnKeyUp
; Function compile flags: /Ogtp
; File D:\git\src\IBK\IBK_DRFN\ProjSrc\SrcDrfn\Chart\comparechart\XListCtrlJongData.cpp
; File C:\Program Files (x86)\Microsoft Visual Studio\2019\Community\VC\Tools\MSVC\14.29.30133\atlmfc\include\afxcmn.inl
; File D:\git\src\IBK\IBK_DRFN\ProjSrc\SrcDrfn\Chart\comparechart\XListCtrlJongData.cpp
;	COMDAT ?OnDestroy@CXListCtrlJongData@@IAEXXZ
_TEXT	SEGMENT
_nCnt$1$ = -4						; size = 4
?OnDestroy@CXListCtrlJongData@@IAEXXZ PROC		; CXListCtrlJongData::OnDestroy, COMDAT
; _this$ = ecx

; 396  : {

  00000	55		 push	 ebp
  00001	8b ec		 mov	 ebp, esp
  00003	51		 push	 ecx
  00004	53		 push	 ebx
  00005	56		 push	 esi

; 398  : 	SetConfig(FALSE);

  00006	6a 00		 push	 0
  00008	8b d9		 mov	 ebx, ecx
  0000a	e8 00 00 00 00	 call	 ?SetConfig@CXListCtrlJongData@@AAEXH@Z ; CXListCtrlJongData::SetConfig
; File C:\Program Files (x86)\Microsoft Visual Studio\2019\Community\VC\Tools\MSVC\14.29.30133\atlmfc\include\afxcmn.inl

; 155  : 	{ ASSERT(::IsWindow(m_hWnd)); return (int) ::SendMessage(m_hWnd, LVM_GETITEMCOUNT, 0, 0L); }

  0000f	6a 00		 push	 0
  00011	6a 00		 push	 0
  00013	68 04 10 00 00	 push	 4100			; 00001004H
  00018	ff 73 20	 push	 DWORD PTR [ebx+32]
  0001b	ff 15 00 00 00
	00		 call	 DWORD PTR __imp__SendMessageA@16
; File D:\git\src\IBK\IBK_DRFN\ProjSrc\SrcDrfn\Chart\comparechart\XListCtrlJongData.cpp

; 398  : 	SetConfig(FALSE);

  00021	33 f6		 xor	 esi, esi

; 377  : 	int nCnt = GetItemCount();

  00023	89 45 fc	 mov	 DWORD PTR _nCnt$1$[ebp], eax

; 378  : 	for(int i=0;i<nCnt;i++)

  00026	85 c0		 test	 eax, eax
  00028	7e 64		 jle	 SHORT $LN5@OnDestroy
  0002a	57		 push	 edi
  0002b	0f 1f 44 00 00	 npad	 5
$LL6@OnDestroy:

; 379  : 	{
; 380  : 		pData = (CJongDataInListCtrl *)GetItemData(i);

  00030	56		 push	 esi
  00031	8b cb		 mov	 ecx, ebx
  00033	e8 00 00 00 00	 call	 ?GetItemData@CXListCtrl@@QAEKH@Z ; CXListCtrl::GetItemData
  00038	8b f8		 mov	 edi, eax

; 381  : 		if(pData)

  0003a	85 ff		 test	 edi, edi
  0003c	74 49		 je	 SHORT $LN4@OnDestroy
  0003e	8d 4f 30	 lea	 ecx, DWORD PTR [edi+48]
  00041	ff 15 00 00 00
	00		 call	 DWORD PTR __imp_??1?$CStringT@DV?$StrTraitMFC_DLL@DV?$ChTraitsCRT@D@ATL@@@@@ATL@@QAE@XZ
  00047	8d 4f 14	 lea	 ecx, DWORD PTR [edi+20]
  0004a	ff 15 00 00 00
	00		 call	 DWORD PTR __imp_??1?$CStringT@DV?$StrTraitMFC_DLL@DV?$ChTraitsCRT@D@ATL@@@@@ATL@@QAE@XZ
  00050	8d 4f 10	 lea	 ecx, DWORD PTR [edi+16]
  00053	ff 15 00 00 00
	00		 call	 DWORD PTR __imp_??1?$CStringT@DV?$StrTraitMFC_DLL@DV?$ChTraitsCRT@D@ATL@@@@@ATL@@QAE@XZ
  00059	8d 4f 0c	 lea	 ecx, DWORD PTR [edi+12]
  0005c	ff 15 00 00 00
	00		 call	 DWORD PTR __imp_??1?$CStringT@DV?$StrTraitMFC_DLL@DV?$ChTraitsCRT@D@ATL@@@@@ATL@@QAE@XZ
  00062	8d 4f 08	 lea	 ecx, DWORD PTR [edi+8]
  00065	ff 15 00 00 00
	00		 call	 DWORD PTR __imp_??1?$CStringT@DV?$StrTraitMFC_DLL@DV?$ChTraitsCRT@D@ATL@@@@@ATL@@QAE@XZ
  0006b	8d 4f 04	 lea	 ecx, DWORD PTR [edi+4]
  0006e	ff 15 00 00 00
	00		 call	 DWORD PTR __imp_??1?$CStringT@DV?$StrTraitMFC_DLL@DV?$ChTraitsCRT@D@ATL@@@@@ATL@@QAE@XZ
  00074	8b cf		 mov	 ecx, edi
  00076	ff 15 00 00 00
	00		 call	 DWORD PTR __imp_??1?$CStringT@DV?$StrTraitMFC_DLL@DV?$ChTraitsCRT@D@ATL@@@@@ATL@@QAE@XZ
  0007c	6a 34		 push	 52			; 00000034H
  0007e	57		 push	 edi
  0007f	e8 00 00 00 00	 call	 ??3@YAXPAXI@Z		; operator delete
  00084	83 c4 08	 add	 esp, 8
$LN4@OnDestroy:

; 378  : 	for(int i=0;i<nCnt;i++)

  00087	46		 inc	 esi
  00088	3b 75 fc	 cmp	 esi, DWORD PTR _nCnt$1$[ebp]
  0008b	7c a3		 jl	 SHORT $LL6@OnDestroy
  0008d	5f		 pop	 edi
$LN5@OnDestroy:

; 382  : 		{
; 383  : 			delete pData;
; 384  : 			pData = NULL;
; 385  : 		}
; 386  : 	}
; 387  : 	m_mapJongData.RemoveAll();

  0008e	8d 8b 60 02 00
	00		 lea	 ecx, DWORD PTR [ebx+608]
  00094	e8 00 00 00 00	 call	 ?RemoveAll@?$CMap@V?$CStringT@DV?$StrTraitMFC_DLL@DV?$ChTraitsCRT@D@ATL@@@@@ATL@@PBDPAVCJongDataInListCtrl@@PAV3@@@QAEXXZ ; CMap<ATL::CStringT<char,StrTraitMFC_DLL<char,ATL::ChTraitsCRT<char> > >,char const *,CJongDataInListCtrl *,CJongDataInListCtrl *>::RemoveAll

; 388  : 	m_mapJongDataHighlighted.RemoveAll();

  00099	8d 8b 7c 02 00
	00		 lea	 ecx, DWORD PTR [ebx+636]
  0009f	e8 00 00 00 00	 call	 ?RemoveAll@?$CMap@V?$CStringT@DV?$StrTraitMFC_DLL@DV?$ChTraitsCRT@D@ATL@@@@@ATL@@PBDPAVCJongDataInListCtrl@@PAV3@@@QAEXXZ ; CMap<ATL::CStringT<char,StrTraitMFC_DLL<char,ATL::ChTraitsCRT<char> > >,char const *,CJongDataInListCtrl *,CJongDataInListCtrl *>::RemoveAll

; 389  : 	m_mapJongDataChecked.RemoveAll();

  000a4	8d 8b 98 02 00
	00		 lea	 ecx, DWORD PTR [ebx+664]
  000aa	e8 00 00 00 00	 call	 ?RemoveAll@?$CMap@V?$CStringT@DV?$StrTraitMFC_DLL@DV?$ChTraitsCRT@D@ATL@@@@@ATL@@PBDPAVCJongDataInListCtrl@@PAV3@@@QAEXXZ ; CMap<ATL::CStringT<char,StrTraitMFC_DLL<char,ATL::ChTraitsCRT<char> > >,char const *,CJongDataInListCtrl *,CJongDataInListCtrl *>::RemoveAll

; 390  : 	CXListCtrl::DeleteAllItems();

  000af	8b cb		 mov	 ecx, ebx
  000b1	e8 00 00 00 00	 call	 ?DeleteAllItems@CXListCtrl@@QAEHXZ ; CXListCtrl::DeleteAllItems
  000b6	0f 57 c0	 xorps	 xmm0, xmm0

; 399  : 	RemoveAll();	
; 400  : 	CXListCtrl::OnDestroy();

  000b9	8b cb		 mov	 ecx, ebx

; 391  : 	::ZeroMemory(m_bSortIndex,sizeof(m_bSortIndex));

  000bb	0f 11 83 bc 02
	00 00		 movups	 XMMWORD PTR [ebx+700], xmm0
  000c2	0f 11 83 cc 02
	00 00		 movups	 XMMWORD PTR [ebx+716], xmm0
  000c9	66 0f d6 83 dc
	02 00 00	 movq	 QWORD PTR [ebx+732], xmm0

; 399  : 	RemoveAll();	
; 400  : 	CXListCtrl::OnDestroy();

  000d1	e8 00 00 00 00	 call	 ?OnDestroy@CXListCtrl@@IAEXXZ ; CXListCtrl::OnDestroy
  000d6	5e		 pop	 esi
  000d7	5b		 pop	 ebx

; 401  : 	
; 402  : }

  000d8	8b e5		 mov	 esp, ebp
  000da	5d		 pop	 ebp
  000db	c3		 ret	 0
?OnDestroy@CXListCtrlJongData@@IAEXXZ ENDP		; CXListCtrlJongData::OnDestroy
_TEXT	ENDS
; Function compile flags: /Ogtp
; File D:\git\src\IBK\IBK_DRFN\ProjSrc\SrcDrfn\Chart\comparechart\XListCtrlJongData.cpp
;	COMDAT ?OnColumnClick@CXListCtrlJongData@@IAEHPAUtagNMHDR@@PAJ@Z
_TEXT	SEGMENT
_pNMHDR$ = 8						; size = 4
_pResult$ = 12						; size = 4
?OnColumnClick@CXListCtrlJongData@@IAEHPAUtagNMHDR@@PAJ@Z PROC ; CXListCtrlJongData::OnColumnClick, COMDAT
; _this$ = ecx

; 842  : {

  00000	55		 push	 ebp
  00001	8b ec		 mov	 ebp, esp
  00003	56		 push	 esi

; 843  : 	NMLISTVIEW* pnmlv = (NMLISTVIEW*)pNMHDR;
; 844  : 	if(pnmlv->iSubItem>=0)

  00004	8b 75 08	 mov	 esi, DWORD PTR _pNMHDR$[ebp]
  00007	57		 push	 edi
  00008	8b f9		 mov	 edi, ecx
  0000a	83 7e 10 00	 cmp	 DWORD PTR [esi+16], 0
  0000e	7c 4a		 jl	 SHORT $LN2@OnColumnCl

; 845  : 	{
; 846  : 		::ZeroMemory(m_bSortIndexConst,sizeof(m_bSortIndexConst));	

  00010	0f 57 c0	 xorps	 xmm0, xmm0
  00013	0f 11 87 0c 03
	00 00		 movups	 XMMWORD PTR [edi+780], xmm0

; 847  : 		m_bSortIndexConst[pnmlv->iSubItem] = TRUE;
; 848  : 		m_bSortIndexType[pnmlv->iSubItem] = !m_bSortIndexType[pnmlv->iSubItem];
; 849  : 		SortColumns(pnmlv->iSubItem);	

  0001a	6a 01		 push	 1
  0001c	0f 11 87 1c 03
	00 00		 movups	 XMMWORD PTR [edi+796], xmm0
  00023	66 0f d6 87 2c
	03 00 00	 movq	 QWORD PTR [edi+812], xmm0
  0002b	8b 46 10	 mov	 eax, DWORD PTR [esi+16]
  0002e	c7 84 87 0c 03
	00 00 01 00 00
	00		 mov	 DWORD PTR [edi+eax*4+780], 1
  00039	8b 46 10	 mov	 eax, DWORD PTR [esi+16]
  0003c	8d 0c 87	 lea	 ecx, DWORD PTR [edi+eax*4]
  0003f	33 c0		 xor	 eax, eax
  00041	39 81 e4 02 00
	00		 cmp	 DWORD PTR [ecx+740], eax
  00047	0f 94 c0	 sete	 al
  0004a	89 81 e4 02 00
	00		 mov	 DWORD PTR [ecx+740], eax
  00050	8b cf		 mov	 ecx, edi
  00052	ff 76 10	 push	 DWORD PTR [esi+16]
  00055	e8 00 00 00 00	 call	 ?SortColumns@CXListCtrlJongData@@AAEXHH@Z ; CXListCtrlJongData::SortColumns
$LN2@OnColumnCl:

; 850  : 	}	
; 851  : 	return CXListCtrl::OnColumnClick(pNMHDR, pResult);

  0005a	ff 75 0c	 push	 DWORD PTR _pResult$[ebp]
  0005d	8b cf		 mov	 ecx, edi
  0005f	56		 push	 esi
  00060	e8 00 00 00 00	 call	 ?OnColumnClick@CXListCtrl@@IAEHPAUtagNMHDR@@PAJ@Z ; CXListCtrl::OnColumnClick
  00065	5f		 pop	 edi
  00066	5e		 pop	 esi

; 852  : }

  00067	5d		 pop	 ebp
  00068	c2 08 00	 ret	 8
?OnColumnClick@CXListCtrlJongData@@IAEHPAUtagNMHDR@@PAJ@Z ENDP ; CXListCtrlJongData::OnColumnClick
_TEXT	ENDS
; Function compile flags: /Ogtp
; File D:\git\src\IBK\IBK_DRFN\ProjSrc\SrcDrfn\Chart\comparechart\XListCtrlJongData.cpp
; File C:\Program Files (x86)\Microsoft Visual Studio\2019\Community\VC\Tools\MSVC\14.29.30133\atlmfc\include\afxtempl.h
; File D:\git\src\IBK\IBK_DRFN\ProjSrc\SrcDrfn\Chart\comparechart\XListCtrlJongData.cpp
; File C:\Program Files (x86)\Microsoft Visual Studio\2019\Community\VC\Tools\MSVC\14.29.30133\atlmfc\include\afxtempl.h
; File D:\git\src\IBK\IBK_DRFN\ProjSrc\SrcDrfn\Chart\comparechart\XListCtrlJongData.cpp
; File C:\Program Files (x86)\Microsoft Visual Studio\2019\Community\VC\Tools\MSVC\14.29.30133\atlmfc\include\afxtempl.h
; File D:\git\src\IBK\IBK_DRFN\ProjSrc\SrcDrfn\Chart\comparechart\XListCtrlJongData.cpp
;	COMDAT ??1CXListCtrlJongData@@UAE@XZ
_TEXT	SEGMENT
__$EHRec$ = -12						; size = 12
??1CXListCtrlJongData@@UAE@XZ PROC			; CXListCtrlJongData::~CXListCtrlJongData, COMDAT
; _this$ = ecx

; 76   : {

  00000	55		 push	 ebp
  00001	8b ec		 mov	 ebp, esp
  00003	6a ff		 push	 -1
  00005	68 00 00 00 00	 push	 __ehhandler$??1CXListCtrlJongData@@UAE@XZ
  0000a	64 a1 00 00 00
	00		 mov	 eax, DWORD PTR fs:0
  00010	50		 push	 eax
  00011	56		 push	 esi
  00012	a1 00 00 00 00	 mov	 eax, DWORD PTR ___security_cookie
  00017	33 c5		 xor	 eax, ebp
  00019	50		 push	 eax
  0001a	8d 45 f4	 lea	 eax, DWORD PTR __$EHRec$[ebp]
  0001d	64 a3 00 00 00
	00		 mov	 DWORD PTR fs:0, eax
  00023	8b f1		 mov	 esi, ecx

; 78   : }

  00025	8d 8e 7c 03 00
	00		 lea	 ecx, DWORD PTR [esi+892]
  0002b	c7 06 00 00 00
	00		 mov	 DWORD PTR [esi], OFFSET ??_7CXListCtrlJongData@@6B@
  00031	ff 15 00 00 00
	00		 call	 DWORD PTR __imp_??1?$CStringT@DV?$StrTraitMFC_DLL@DV?$ChTraitsCRT@D@ATL@@@@@ATL@@QAE@XZ
  00037	8d 8e 98 02 00
	00		 lea	 ecx, DWORD PTR [esi+664]
; File C:\Program Files (x86)\Microsoft Visual Studio\2019\Community\VC\Tools\MSVC\14.29.30133\atlmfc\include\afxtempl.h

; 1472 : {

  0003d	c7 45 fc 00 00
	00 00		 mov	 DWORD PTR __$EHRec$[ebp+8], 0
  00044	c7 01 00 00 00
	00		 mov	 DWORD PTR [ecx], OFFSET ??_7?$CMap@V?$CStringT@DV?$StrTraitMFC_DLL@DV?$ChTraitsCRT@D@ATL@@@@@ATL@@PBDPAVCJongDataInListCtrl@@PAV3@@@6B@

; 1473 : 	RemoveAll();

  0004a	e8 00 00 00 00	 call	 ?RemoveAll@?$CMap@V?$CStringT@DV?$StrTraitMFC_DLL@DV?$ChTraitsCRT@D@ATL@@@@@ATL@@PBDPAVCJongDataInListCtrl@@PAV3@@@QAEXXZ ; CMap<ATL::CStringT<char,StrTraitMFC_DLL<char,ATL::ChTraitsCRT<char> > >,char const *,CJongDataInListCtrl *,CJongDataInListCtrl *>::RemoveAll
; File D:\git\src\IBK\IBK_DRFN\ProjSrc\SrcDrfn\Chart\comparechart\XListCtrlJongData.cpp

; 78   : }

  0004f	8d 8e 7c 02 00
	00		 lea	 ecx, DWORD PTR [esi+636]
; File C:\Program Files (x86)\Microsoft Visual Studio\2019\Community\VC\Tools\MSVC\14.29.30133\atlmfc\include\afxtempl.h

; 1472 : {

  00055	c7 45 fc 01 00
	00 00		 mov	 DWORD PTR __$EHRec$[ebp+8], 1
  0005c	c7 01 00 00 00
	00		 mov	 DWORD PTR [ecx], OFFSET ??_7?$CMap@V?$CStringT@DV?$StrTraitMFC_DLL@DV?$ChTraitsCRT@D@ATL@@@@@ATL@@PBDPAVCJongDataInListCtrl@@PAV3@@@6B@

; 1473 : 	RemoveAll();

  00062	e8 00 00 00 00	 call	 ?RemoveAll@?$CMap@V?$CStringT@DV?$StrTraitMFC_DLL@DV?$ChTraitsCRT@D@ATL@@@@@ATL@@PBDPAVCJongDataInListCtrl@@PAV3@@@QAEXXZ ; CMap<ATL::CStringT<char,StrTraitMFC_DLL<char,ATL::ChTraitsCRT<char> > >,char const *,CJongDataInListCtrl *,CJongDataInListCtrl *>::RemoveAll
; File D:\git\src\IBK\IBK_DRFN\ProjSrc\SrcDrfn\Chart\comparechart\XListCtrlJongData.cpp

; 78   : }

  00067	8d 8e 60 02 00
	00		 lea	 ecx, DWORD PTR [esi+608]
; File C:\Program Files (x86)\Microsoft Visual Studio\2019\Community\VC\Tools\MSVC\14.29.30133\atlmfc\include\afxtempl.h

; 1472 : {

  0006d	c7 45 fc 02 00
	00 00		 mov	 DWORD PTR __$EHRec$[ebp+8], 2
  00074	c7 01 00 00 00
	00		 mov	 DWORD PTR [ecx], OFFSET ??_7?$CMap@V?$CStringT@DV?$StrTraitMFC_DLL@DV?$ChTraitsCRT@D@ATL@@@@@ATL@@PBDPAVCJongDataInListCtrl@@PAV3@@@6B@

; 1473 : 	RemoveAll();

  0007a	e8 00 00 00 00	 call	 ?RemoveAll@?$CMap@V?$CStringT@DV?$StrTraitMFC_DLL@DV?$ChTraitsCRT@D@ATL@@@@@ATL@@PBDPAVCJongDataInListCtrl@@PAV3@@@QAEXXZ ; CMap<ATL::CStringT<char,StrTraitMFC_DLL<char,ATL::ChTraitsCRT<char> > >,char const *,CJongDataInListCtrl *,CJongDataInListCtrl *>::RemoveAll
; File D:\git\src\IBK\IBK_DRFN\ProjSrc\SrcDrfn\Chart\comparechart\XListCtrlJongData.cpp

; 78   : }

  0007f	8d 8e 4c 02 00
	00		 lea	 ecx, DWORD PTR [esi+588]
  00085	e8 00 00 00 00	 call	 ??1CStringArray@@UAE@XZ	; CStringArray::~CStringArray
  0008a	8d 8e 38 02 00
	00		 lea	 ecx, DWORD PTR [esi+568]
  00090	e8 00 00 00 00	 call	 ??1CStringArray@@UAE@XZ	; CStringArray::~CStringArray
  00095	8d 8e 24 02 00
	00		 lea	 ecx, DWORD PTR [esi+548]
  0009b	e8 00 00 00 00	 call	 ??1CStringArray@@UAE@XZ	; CStringArray::~CStringArray
  000a0	8d 8e 10 02 00
	00		 lea	 ecx, DWORD PTR [esi+528]
  000a6	e8 00 00 00 00	 call	 ??1CStringArray@@UAE@XZ	; CStringArray::~CStringArray
  000ab	8b ce		 mov	 ecx, esi
  000ad	e8 00 00 00 00	 call	 ??1CXListCtrl@@UAE@XZ	; CXListCtrl::~CXListCtrl
  000b2	8b 4d f4	 mov	 ecx, DWORD PTR __$EHRec$[ebp]
  000b5	64 89 0d 00 00
	00 00		 mov	 DWORD PTR fs:0, ecx
  000bc	59		 pop	 ecx
  000bd	5e		 pop	 esi
  000be	8b e5		 mov	 esp, ebp
  000c0	5d		 pop	 ebp
  000c1	c3		 ret	 0
  000c2	cc		 int	 3
  000c3	cc		 int	 3
  000c4	cc		 int	 3
  000c5	cc		 int	 3
  000c6	cc		 int	 3
_TEXT	ENDS
;	COMDAT text$x
text$x	SEGMENT
__ehhandler$??1CXListCtrlJongData@@UAE@XZ:
  00000	90		 npad	 1
  00001	90		 npad	 1
  00002	8b 54 24 08	 mov	 edx, DWORD PTR [esp+8]
  00006	8d 42 0c	 lea	 eax, DWORD PTR [edx+12]
  00009	8b 4a f8	 mov	 ecx, DWORD PTR [edx-8]
  0000c	33 c8		 xor	 ecx, eax
  0000e	e8 00 00 00 00	 call	 @__security_check_cookie@4
  00013	b8 00 00 00 00	 mov	 eax, OFFSET __ehfuncinfo$??1CXListCtrlJongData@@UAE@XZ
  00018	e9 00 00 00 00	 jmp	 ___CxxFrameHandler3
text$x	ENDS
??1CXListCtrlJongData@@UAE@XZ ENDP			; CXListCtrlJongData::~CXListCtrlJongData
; Function compile flags: /Ogtp
; File D:\git\src\IBK\IBK_DRFN\ProjSrc\SrcDrfn\Chart\comparechart\XListCtrlJongData.cpp
; File C:\Program Files (x86)\Microsoft Visual Studio\2019\Community\VC\Tools\MSVC\14.29.30133\atlmfc\include\afxtempl.h
; File D:\git\src\IBK\IBK_DRFN\ProjSrc\SrcDrfn\Chart\comparechart\XListCtrlJongData.cpp
; File C:\Program Files (x86)\Microsoft Visual Studio\2019\Community\VC\Tools\MSVC\14.29.30133\atlmfc\include\afxtempl.h
; File D:\git\src\IBK\IBK_DRFN\ProjSrc\SrcDrfn\Chart\comparechart\XListCtrlJongData.cpp
; File C:\Program Files (x86)\Microsoft Visual Studio\2019\Community\VC\Tools\MSVC\14.29.30133\atlmfc\include\afxcoll.inl
; File D:\git\src\IBK\IBK_DRFN\ProjSrc\SrcDrfn\Chart\comparechart\XListCtrlJongData.cpp
; File C:\Program Files (x86)\Microsoft Visual Studio\2019\Community\VC\Tools\MSVC\14.29.30133\atlmfc\include\afxcoll.inl
; File D:\git\src\IBK\IBK_DRFN\ProjSrc\SrcDrfn\Chart\comparechart\XListCtrlJongData.cpp
; File C:\Program Files (x86)\Microsoft Visual Studio\2019\Community\VC\Tools\MSVC\14.29.30133\atlmfc\include\afxcoll.inl
; File D:\git\src\IBK\IBK_DRFN\ProjSrc\SrcDrfn\Chart\comparechart\XListCtrlJongData.cpp
; File C:\Program Files (x86)\Microsoft Visual Studio\2019\Community\VC\Tools\MSVC\14.29.30133\atlmfc\include\afxcoll.inl
; File D:\git\src\IBK\IBK_DRFN\ProjSrc\SrcDrfn\Chart\comparechart\XListCtrlJongData.cpp
; File C:\Program Files (x86)\Microsoft Visual Studio\2019\Community\VC\Tools\MSVC\14.29.30133\atlmfc\include\afxcoll.inl
; File D:\git\src\IBK\IBK_DRFN\ProjSrc\SrcDrfn\Chart\comparechart\XListCtrlJongData.cpp
;	COMDAT ?GetPosOfHighLighted@CXListCtrlJongData@@AAEHPAJ0@Z
_TEXT	SEGMENT
_arrayIndex$ = -44					; size = 20
_strJCode$ = -24					; size = 4
_pos$ = -20						; size = 4
_pJongDataInListCtrl$ = -16				; size = 4
__$EHRec$ = -12						; size = 12
_pLStartPos$ = 8					; size = 4
_pLEndPos$ = 12						; size = 4
?GetPosOfHighLighted@CXListCtrlJongData@@AAEHPAJ0@Z PROC ; CXListCtrlJongData::GetPosOfHighLighted, COMDAT
; _this$ = ecx

; 1324 : {

  00000	55		 push	 ebp
  00001	8b ec		 mov	 ebp, esp
  00003	6a ff		 push	 -1
  00005	68 00 00 00 00	 push	 __ehhandler$?GetPosOfHighLighted@CXListCtrlJongData@@AAEHPAJ0@Z
  0000a	64 a1 00 00 00
	00		 mov	 eax, DWORD PTR fs:0
  00010	50		 push	 eax
  00011	83 ec 20	 sub	 esp, 32			; 00000020H
  00014	53		 push	 ebx
  00015	56		 push	 esi
  00016	57		 push	 edi
  00017	a1 00 00 00 00	 mov	 eax, DWORD PTR ___security_cookie
  0001c	33 c5		 xor	 eax, ebp
  0001e	50		 push	 eax
  0001f	8d 45 f4	 lea	 eax, DWORD PTR __$EHRec$[ebp]
  00022	64 a3 00 00 00
	00		 mov	 DWORD PTR fs:0, eax
  00028	8b f9		 mov	 edi, ecx
; File C:\Program Files (x86)\Microsoft Visual Studio\2019\Community\VC\Tools\MSVC\14.29.30133\atlmfc\include\afxtempl.h

; 1354 : 	{ return (m_nCount == 0) ? NULL : BEFORE_START_POSITION; }

  0002a	8b b7 88 02 00
	00		 mov	 esi, DWORD PTR [edi+648]
; File D:\git\src\IBK\IBK_DRFN\ProjSrc\SrcDrfn\Chart\comparechart\XListCtrlJongData.cpp

; 1326 : 	CString strJCode;

  00030	8d 4d e8	 lea	 ecx, DWORD PTR _strJCode$[ebp]
; File C:\Program Files (x86)\Microsoft Visual Studio\2019\Community\VC\Tools\MSVC\14.29.30133\atlmfc\include\afxtempl.h

; 1354 : 	{ return (m_nCount == 0) ? NULL : BEFORE_START_POSITION; }

  00033	8b c6		 mov	 eax, esi
  00035	f7 d8		 neg	 eax
  00037	1b c0		 sbb	 eax, eax
; File D:\git\src\IBK\IBK_DRFN\ProjSrc\SrcDrfn\Chart\comparechart\XListCtrlJongData.cpp

; 1325 : 	POSITION pos = m_mapJongDataHighlighted.GetStartPosition();

  00039	89 45 ec	 mov	 DWORD PTR _pos$[ebp], eax

; 1326 : 	CString strJCode;

  0003c	ff 15 00 00 00
	00		 call	 DWORD PTR __imp_??0?$CStringT@DV?$StrTraitMFC_DLL@DV?$ChTraitsCRT@D@ATL@@@@@ATL@@QAE@XZ

; 1327 : 	CUIntArray arrayIndex;

  00042	8d 4d d4	 lea	 ecx, DWORD PTR _arrayIndex$[ebp]
  00045	c7 45 fc 00 00
	00 00		 mov	 DWORD PTR __$EHRec$[ebp+8], 0
  0004c	e8 00 00 00 00	 call	 ??0CUIntArray@@QAE@XZ	; CUIntArray::CUIntArray
  00051	c6 45 fc 01	 mov	 BYTE PTR __$EHRec$[ebp+8], 1

; 1328 : 	CJongDataInListCtrl* pJongDataInListCtrl = NULL;

  00055	c7 45 f0 00 00
	00 00		 mov	 DWORD PTR _pJongDataInListCtrl$[ebp], 0
  0005c	85 f6		 test	 esi, esi

; 1329 : 	while(pos)

  0005e	74 38		 je	 SHORT $LN3@GetPosOfHi
$LL2@GetPosOfHi:

; 1330 : 	{
; 1331 : 		m_mapJongDataHighlighted.GetNextAssoc(pos,strJCode,pJongDataInListCtrl);

  00060	8d 45 f0	 lea	 eax, DWORD PTR _pJongDataInListCtrl$[ebp]
  00063	50		 push	 eax
  00064	8d 45 e8	 lea	 eax, DWORD PTR _strJCode$[ebp]
  00067	50		 push	 eax
  00068	8d 45 ec	 lea	 eax, DWORD PTR _pos$[ebp]
  0006b	50		 push	 eax
  0006c	8d 8f 7c 02 00
	00		 lea	 ecx, DWORD PTR [edi+636]
  00072	e8 00 00 00 00	 call	 ?GetNextAssoc@?$CMap@V?$CStringT@DV?$StrTraitMFC_DLL@DV?$ChTraitsCRT@D@ATL@@@@@ATL@@PBDPAVCJongDataInListCtrl@@PAV3@@@QBEXAAPAU__POSITION@@AAV?$CStringT@DV?$StrTraitMFC_DLL@DV?$ChTraitsCRT@D@ATL@@@@@ATL@@AAPAVCJongDataInListCtrl@@@Z ; CMap<ATL::CStringT<char,StrTraitMFC_DLL<char,ATL::ChTraitsCRT<char> > >,char const *,CJongDataInListCtrl *,CJongDataInListCtrl *>::GetNextAssoc

; 1332 : 		if(pJongDataInListCtrl)

  00077	8b 45 f0	 mov	 eax, DWORD PTR _pJongDataInListCtrl$[ebp]
  0007a	85 c0		 test	 eax, eax
  0007c	74 14		 je	 SHORT $LN8@GetPosOfHi

; 1333 : 		{
; 1334 : 			if(pJongDataInListCtrl->m_bHighlight)

  0007e	83 78 1c 00	 cmp	 DWORD PTR [eax+28], 0
  00082	74 0e		 je	 SHORT $LN8@GetPosOfHi
; File C:\Program Files (x86)\Microsoft Visual Studio\2019\Community\VC\Tools\MSVC\14.29.30133\atlmfc\include\afxcoll.inl

; 180  : 		SetAtGrow(nIndex, newElement);

  00084	ff 70 28	 push	 DWORD PTR [eax+40]
  00087	8d 4d d4	 lea	 ecx, DWORD PTR _arrayIndex$[ebp]
  0008a	ff 75 dc	 push	 DWORD PTR _arrayIndex$[ebp+8]
  0008d	e8 00 00 00 00	 call	 ?SetAtGrow@CUIntArray@@QAEXHI@Z ; CUIntArray::SetAtGrow
$LN8@GetPosOfHi:
; File D:\git\src\IBK\IBK_DRFN\ProjSrc\SrcDrfn\Chart\comparechart\XListCtrlJongData.cpp

; 1329 : 	while(pos)

  00092	83 7d ec 00	 cmp	 DWORD PTR _pos$[ebp], 0
  00096	75 c8		 jne	 SHORT $LL2@GetPosOfHi
$LN3@GetPosOfHi:

; 1335 : 			{
; 1336 : 				arrayIndex.Add(pJongDataInListCtrl->m_nCurrentIndex);
; 1337 : 			}			
; 1338 : 		}
; 1339 : 	}	
; 1340 : 	int nSize = arrayIndex.GetSize();

  00098	8b 5d dc	 mov	 ebx, DWORD PTR _arrayIndex$[ebp+8]

; 1341 : 	long lFirstIndex = 0;

  0009b	33 f6		 xor	 esi, esi
  0009d	85 db		 test	 ebx, ebx

; 1342 : 	long lLastIndex = 0;
; 1343 : 	if(nSize)

  0009f	74 5c		 je	 SHORT $LN9@GetPosOfHi
; File C:\Program Files (x86)\Microsoft Visual Studio\2019\Community\VC\Tools\MSVC\14.29.30133\atlmfc\include\afxcoll.inl

; 171  : 		if( nIndex < 0 || nIndex >= m_nSize )

  000a1	0f 8e 7f 00 00
	00		 jle	 $LN36@GetPosOfHi
; File D:\git\src\IBK\IBK_DRFN\ProjSrc\SrcDrfn\Chart\comparechart\XListCtrlJongData.cpp

; 1345 : 		qsort( static_cast<void*>(&arrayIndex[0]), arrayIndex.GetSize(), sizeof(UINT), CompareByIndex );

  000a7	68 00 00 00 00	 push	 OFFSET ?CompareByIndex@@YAHPBX0@Z ; CompareByIndex
  000ac	6a 04		 push	 4
  000ae	53		 push	 ebx
  000af	ff 75 d8	 push	 DWORD PTR _arrayIndex$[ebp+4]
  000b2	ff 15 00 00 00
	00		 call	 DWORD PTR __imp__qsort

; 1346 : 		for(int n=0;n<nSize;n++)

  000b8	8b 7d dc	 mov	 edi, DWORD PTR _arrayIndex$[ebp+8]
  000bb	83 c4 10	 add	 esp, 16			; 00000010H
  000be	8b 45 d8	 mov	 eax, DWORD PTR _arrayIndex$[ebp+4]
  000c1	33 c9		 xor	 ecx, ecx
$LL6@GetPosOfHi:

; 1347 : 		{
; 1348 : 			if(!n)

  000c3	85 c9		 test	 ecx, ecx
  000c5	75 0a		 jne	 SHORT $LN50@GetPosOfHi
; File C:\Program Files (x86)\Microsoft Visual Studio\2019\Community\VC\Tools\MSVC\14.29.30133\atlmfc\include\afxcoll.inl

; 160  : 		if( nIndex < 0 || nIndex >= m_nSize )

  000c7	85 ff		 test	 edi, edi
  000c9	7e 5b		 jle	 SHORT $LN36@GetPosOfHi
; File D:\git\src\IBK\IBK_DRFN\ProjSrc\SrcDrfn\Chart\comparechart\XListCtrlJongData.cpp

; 1351 : 				lLastIndex = lFirstIndex;

  000cb	8b 30		 mov	 esi, DWORD PTR [eax]
  000cd	8b d6		 mov	 edx, esi

; 1352 : 			}

  000cf	eb 16		 jmp	 SHORT $LN4@GetPosOfHi
$LN50@GetPosOfHi:
; File C:\Program Files (x86)\Microsoft Visual Studio\2019\Community\VC\Tools\MSVC\14.29.30133\atlmfc\include\afxcoll.inl

; 160  : 		if( nIndex < 0 || nIndex >= m_nSize )

  000d1	78 53		 js	 SHORT $LN36@GetPosOfHi
  000d3	3b cf		 cmp	 ecx, edi
  000d5	7d 4f		 jge	 SHORT $LN36@GetPosOfHi
; File D:\git\src\IBK\IBK_DRFN\ProjSrc\SrcDrfn\Chart\comparechart\XListCtrlJongData.cpp

; 1355 : 				lLastIndex = arrayIndex.GetAt(n);

  000d7	8b 45 d8	 mov	 eax, DWORD PTR _arrayIndex$[ebp+4]
  000da	8b 14 88	 mov	 edx, DWORD PTR [eax+ecx*4]

; 1356 : 				if(lLastIndex != (lFirstIndex+n))

  000dd	8d 04 31	 lea	 eax, DWORD PTR [ecx+esi]
  000e0	3b d0		 cmp	 edx, eax
  000e2	75 19		 jne	 SHORT $LN9@GetPosOfHi
  000e4	8b 45 d8	 mov	 eax, DWORD PTR _arrayIndex$[ebp+4]
$LN4@GetPosOfHi:

; 1346 : 		for(int n=0;n<nSize;n++)

  000e7	41		 inc	 ecx
  000e8	3b cb		 cmp	 ecx, ebx
  000ea	7c d7		 jl	 SHORT $LL6@GetPosOfHi

; 1357 : 				{
; 1358 : 					return FALSE;
; 1359 : 				}
; 1360 : 			}
; 1361 : 		}
; 1362 : 		*pLStartPos = lFirstIndex;

  000ec	8b 45 08	 mov	 eax, DWORD PTR _pLStartPos$[ebp]
  000ef	89 30		 mov	 DWORD PTR [eax], esi

; 1363 : 		*pLEndPos = lLastIndex;		
; 1364 : 		return TRUE;

  000f1	be 01 00 00 00	 mov	 esi, 1
  000f6	8b 45 0c	 mov	 eax, DWORD PTR _pLEndPos$[ebp]
  000f9	89 10		 mov	 DWORD PTR [eax], edx
  000fb	eb 02		 jmp	 SHORT $LN17@GetPosOfHi
$LN9@GetPosOfHi:

; 1365 : 	}
; 1366 : 	return FALSE;	

  000fd	33 f6		 xor	 esi, esi
$LN17@GetPosOfHi:
  000ff	8d 4d d4	 lea	 ecx, DWORD PTR _arrayIndex$[ebp]
  00102	e8 00 00 00 00	 call	 ??1CUIntArray@@UAE@XZ	; CUIntArray::~CUIntArray
  00107	8d 4d e8	 lea	 ecx, DWORD PTR _strJCode$[ebp]
  0010a	ff 15 00 00 00
	00		 call	 DWORD PTR __imp_??1?$CStringT@DV?$StrTraitMFC_DLL@DV?$ChTraitsCRT@D@ATL@@@@@ATL@@QAE@XZ
  00110	8b c6		 mov	 eax, esi

; 1368 : }

  00112	8b 4d f4	 mov	 ecx, DWORD PTR __$EHRec$[ebp]
  00115	64 89 0d 00 00
	00 00		 mov	 DWORD PTR fs:0, ecx
  0011c	59		 pop	 ecx
  0011d	5f		 pop	 edi
  0011e	5e		 pop	 esi
  0011f	5b		 pop	 ebx
  00120	8b e5		 mov	 esp, ebp
  00122	5d		 pop	 ebp
  00123	c2 08 00	 ret	 8
$LN36@GetPosOfHi:
; File C:\Program Files (x86)\Microsoft Visual Studio\2019\Community\VC\Tools\MSVC\14.29.30133\atlmfc\include\afxcoll.inl

; 161  : 			AfxThrowInvalidArgException();

  00126	e8 00 00 00 00	 call	 ?AfxThrowInvalidArgException@@YGXXZ ; AfxThrowInvalidArgException
$LN49@GetPosOfHi:
  0012b	cc		 int	 3
_TEXT	ENDS
;	COMDAT text$x
text$x	SEGMENT
__unwindfunclet$?GetPosOfHighLighted@CXListCtrlJongData@@AAEHPAJ0@Z$0:
  00000	8d 4d e8	 lea	 ecx, DWORD PTR _strJCode$[ebp]
  00003	ff 25 00 00 00
	00		 jmp	 DWORD PTR __imp_??1?$CStringT@DV?$StrTraitMFC_DLL@DV?$ChTraitsCRT@D@ATL@@@@@ATL@@QAE@XZ
__unwindfunclet$?GetPosOfHighLighted@CXListCtrlJongData@@AAEHPAJ0@Z$1:
  00009	8d 4d d4	 lea	 ecx, DWORD PTR _arrayIndex$[ebp]
  0000c	e9 00 00 00 00	 jmp	 ??1CUIntArray@@UAE@XZ	; CUIntArray::~CUIntArray
  00011	cc		 int	 3
  00012	cc		 int	 3
  00013	cc		 int	 3
  00014	cc		 int	 3
  00015	cc		 int	 3
__ehhandler$?GetPosOfHighLighted@CXListCtrlJongData@@AAEHPAJ0@Z:
  00016	90		 npad	 1
  00017	90		 npad	 1
  00018	8b 54 24 08	 mov	 edx, DWORD PTR [esp+8]
  0001c	8d 42 0c	 lea	 eax, DWORD PTR [edx+12]
  0001f	8b 4a d0	 mov	 ecx, DWORD PTR [edx-48]
  00022	33 c8		 xor	 ecx, eax
  00024	e8 00 00 00 00	 call	 @__security_check_cookie@4
  00029	b8 00 00 00 00	 mov	 eax, OFFSET __ehfuncinfo$?GetPosOfHighLighted@CXListCtrlJongData@@AAEHPAJ0@Z
  0002e	e9 00 00 00 00	 jmp	 ___CxxFrameHandler3
text$x	ENDS
?GetPosOfHighLighted@CXListCtrlJongData@@AAEHPAJ0@Z ENDP ; CXListCtrlJongData::GetPosOfHighLighted
; Function compile flags: /Ogtp
; File D:\git\src\IBK\IBK_DRFN\ProjSrc\SrcDrfn\Chart\comparechart\XListCtrlJongData.cpp
;	COMDAT ?InsertCodeDataLighted@CXListCtrlJongData@@AAEXPAVCJongDataInListCtrl@@H@Z
_TEXT	SEGMENT
_pData$ = 8						; size = 4
_nIndex$ = 12						; size = 4
?InsertCodeDataLighted@CXListCtrlJongData@@AAEXPAVCJongDataInListCtrl@@H@Z PROC ; CXListCtrlJongData::InsertCodeDataLighted, COMDAT
; _this$ = ecx

; 885  : {

  00000	55		 push	 ebp
  00001	8b ec		 mov	 ebp, esp
  00003	53		 push	 ebx
  00004	56		 push	 esi
  00005	8b f1		 mov	 esi, ecx

; 886  : 	m_crText = RGB(0,0,0);
; 887  : 	m_crBackground = RGB(255,255,255);
; 888  : 	m_crBackgroundDaebi = RGB(255,255,255);
; 889  : 	m_crTextDaebi = RGB(0,0,0);
; 890  : 	switch(pData->m_chSign)

  00007	b8 ff ff ff 00	 mov	 eax, 16777215		; 00ffffffH
  0000c	57		 push	 edi
  0000d	8b 7d 08	 mov	 edi, DWORD PTR _pData$[ebp]
  00010	c7 86 58 03 00
	00 00 00 00 00	 mov	 DWORD PTR [esi+856], 0
  0001a	c7 86 5c 03 00
	00 ff ff ff 00	 mov	 DWORD PTR [esi+860], 16777215 ; 00ffffffH
  00024	c7 86 60 03 00
	00 ff ff ff 00	 mov	 DWORD PTR [esi+864], 16777215 ; 00ffffffH
  0002e	c7 86 64 03 00
	00 00 00 00 00	 mov	 DWORD PTR [esi+868], 0
  00038	0f be 4f 18	 movsx	 ecx, BYTE PTR [edi+24]
  0003c	83 c1 cf	 add	 ecx, -49		; ffffffcfH
  0003f	83 f9 04	 cmp	 ecx, 4
  00042	77 69		 ja	 SHORT $LN8@InsertCode
  00044	ff 24 8d 00 00
	00 00		 jmp	 DWORD PTR $LN18@InsertCode[ecx*4]
$LN4@InsertCode:

; 891  : 	{
; 892  : 		case UP_LIMIT:	// UpLimit
; 893  : 			m_crBackgroundDaebi = RGB(255,0,0);
; 894  : 			m_crTextDaebi = RGB(255,255,255);

  0004b	89 86 64 03 00
	00		 mov	 DWORD PTR [esi+868], eax

; 895  : 			m_crText = RGB(255,0,0);

  00051	b8 ff 00 00 00	 mov	 eax, 255		; 000000ffH
  00056	c7 86 60 03 00
	00 ff 00 00 00	 mov	 DWORD PTR [esi+864], 255 ; 000000ffH
  00060	c7 86 58 03 00
	00 ff 00 00 00	 mov	 DWORD PTR [esi+856], 255 ; 000000ffH

; 896  : 			break;

  0006a	eb 41		 jmp	 SHORT $LN8@InsertCode
$LN5@InsertCode:

; 897  : 		case UP:	// Up
; 898  : 			m_crText = RGB(255,0,0);

  0006c	c7 86 58 03 00
	00 ff 00 00 00	 mov	 DWORD PTR [esi+856], 255 ; 000000ffH

; 899  : 			m_crTextDaebi = RGB(255,0,0);

  00076	c7 86 64 03 00
	00 ff 00 00 00	 mov	 DWORD PTR [esi+868], 255 ; 000000ffH

; 900  : 			break;

  00080	eb 2b		 jmp	 SHORT $LN8@InsertCode
$LN6@InsertCode:

; 901  : 		case DOWN_LIMIT:	// DownLimit
; 902  : 			m_crBackgroundDaebi = RGB(0,0,255);
; 903  : 			m_crTextDaebi = RGB(255,255,255);

  00082	89 86 64 03 00
	00		 mov	 DWORD PTR [esi+868], eax

; 904  : 			m_crText = RGB(0,0,255);

  00088	b8 00 00 ff 00	 mov	 eax, 16711680		; 00ff0000H
  0008d	c7 86 60 03 00
	00 00 00 ff 00	 mov	 DWORD PTR [esi+864], 16711680 ; 00ff0000H

; 905  : 			break;

  00097	eb 0a		 jmp	 SHORT $LN19@InsertCode
$LN7@InsertCode:

; 906  : 		case DOWN:	// Down	
; 907  : 			m_crText = RGB(0,0,255);
; 908  : 			m_crTextDaebi = RGB(0,0,255);

  00099	c7 86 64 03 00
	00 00 00 ff 00	 mov	 DWORD PTR [esi+868], 16711680 ; 00ff0000H
$LN19@InsertCode:

; 909  : 			break;
; 910  : 		case EQUAL:	// Steady
; 911  : 		default:
; 912  : 			break;
; 913  : 		/* ===================== 05.05.17 comment by sy,nam
; 914  : 		case '6':
; 915  : 		case '7':
; 916  : 		case '8':
; 917  : 		case '9':
; 918  : 		case '0':
; 919  : 		======================= 05.05.17 comment by sy,nam*/
; 920  : 	
; 921  : 	}
; 922  : 
; 923  : 	if(nIndex%2)

  000a3	c7 86 58 03 00
	00 00 00 ff 00	 mov	 DWORD PTR [esi+856], 16711680 ; 00ff0000H
$LN8@InsertCode:
  000ad	8b 5d 0c	 mov	 ebx, DWORD PTR _nIndex$[ebp]
  000b0	f6 c3 01	 test	 bl, 1
  000b3	74 2f		 je	 SHORT $LN10@InsertCode

; 924  : 	{
; 925  : 		SetCheckbox(nIndex,0,pData->m_bCheck);

  000b5	6a 01		 push	 1
  000b7	ff 77 20	 push	 DWORD PTR [edi+32]
  000ba	8b ce		 mov	 ecx, esi
  000bc	6a 00		 push	 0
  000be	53		 push	 ebx
  000bf	e8 00 00 00 00	 call	 ?SetCheckbox@CXListCtrl@@QAEHHHHH@Z ; CXListCtrl::SetCheckbox

; 926  : 		SetItemText(nIndex,1,pData->m_strCodeName);

  000c4	ff 77 04	 push	 DWORD PTR [edi+4]
  000c7	8b ce		 mov	 ecx, esi
  000c9	6a 01		 push	 1
  000cb	53		 push	 ebx
  000cc	e8 00 00 00 00	 call	 ?SetItemText@CXListCtrl@@QAEHHHPBD@Z ; CXListCtrl::SetItemText

; 936  : 	}
; 937  : 	
; 938  : /*	CString strKeepingCnt;
; 939  : 	strKeepingCnt.Format("%d",pData->m_lKeepingCnt);
; 940  : 	if(nIndex%2)
; 941  : 	{
; 942  : 		SetCheckbox(nIndex,m_lIndexOfCheck,pData->m_bCheck);
; 943  : 		SetItemText(nIndex,m_lIndexOfKeepingCnt,strKeepingCnt);
; 944  : 		SetItemText(nIndex,m_lIndexOfName,pData->m_strCodeName);
; 945  : 		SetItemText(nIndex,m_lIndexOfPrice,pData->m_strPrice,m_crText,m_crBackground);
; 946  : 		SetItemText(nIndex,m_lIndexOfChange,pData->m_strChange,m_crTextDaebi,m_crBackgroundDaebi);
; 947  : 		SetItemText(nIndex,m_lIndexOfChgrate,pData->m_strChgrate,m_crTextDaebi,m_crBackgroundDaebi);
; 948  : 		SetItemText(nIndex,m_lIndexOfVolume,pData->m_strVolume);
; 949  : 		SetItemText(nIndex,m_lIndexOfTime,pData->m_strInsertedTime);
; 950  : 	}
; 951  : 	else
; 952  : 	{
; 953  : 		if(m_crBackgroundDaebi==RGB(255,255,255))
; 954  : 		{
; 955  : 			m_crBackgroundDaebi = CRGRID;
; 956  : 		}
; 957  : 		SetCheckbox(nIndex,m_lIndexOfCheck,pData->m_bCheck);
; 958  : 		SetItemText(nIndex,m_lIndexOfKeepingCnt,strKeepingCnt,RGB(0,0,0),CRGRID);
; 959  : 		SetItemText(nIndex,m_lIndexOfName,pData->m_strCodeName,RGB(0,0,0),CRGRID);
; 960  : 		SetItemText(nIndex,m_lIndexOfPrice,pData->m_strPrice,m_crText,CRGRID);
; 961  : 		SetItemText(nIndex,m_lIndexOfChange,pData->m_strChange,m_crTextDaebi,m_crBackgroundDaebi);
; 962  : 		SetItemText(nIndex,m_lIndexOfChgrate,pData->m_strChgrate,m_crTextDaebi,m_crBackgroundDaebi);
; 963  : 		SetItemText(nIndex,m_lIndexOfVolume,pData->m_strVolume,RGB(0,0,0),CRGRID);
; 964  : 		SetItemText(nIndex,m_lIndexOfTime,pData->m_strInsertedTime,RGB(0,0,0),CRGRID);
; 965  : 	}
; 966  : 	*/
; 967  : 	SetItemData(nIndex,(DWORD)pData);

  000d1	57		 push	 edi
  000d2	53		 push	 ebx
  000d3	8b ce		 mov	 ecx, esi
  000d5	e8 00 00 00 00	 call	 ?SetItemData@CXListCtrl@@QAEHHK@Z ; CXListCtrl::SetItemData

; 968  : 	pData->m_nCurrentIndex = nIndex;

  000da	89 5f 28	 mov	 DWORD PTR [edi+40], ebx
  000dd	5f		 pop	 edi
  000de	5e		 pop	 esi
  000df	5b		 pop	 ebx

; 969  : }

  000e0	5d		 pop	 ebp
  000e1	c2 08 00	 ret	 8
$LN10@InsertCode:

; 927  : 	}
; 928  : 	else
; 929  : 	{
; 930  : 		if(m_crBackgroundDaebi==RGB(255,255,255))

  000e4	3d ff ff ff 00	 cmp	 eax, 16777215		; 00ffffffH
  000e9	75 06		 jne	 SHORT $LN12@InsertCode

; 931  : 		{
; 932  : 			m_crBackgroundDaebi = CRGRID;

  000eb	89 86 60 03 00
	00		 mov	 DWORD PTR [esi+864], eax
$LN12@InsertCode:

; 933  : 		}
; 934  : 		SetCheckbox(nIndex,0,pData->m_bCheck);	

  000f1	6a 01		 push	 1
  000f3	ff 77 20	 push	 DWORD PTR [edi+32]
  000f6	8b ce		 mov	 ecx, esi
  000f8	6a 00		 push	 0
  000fa	53		 push	 ebx
  000fb	e8 00 00 00 00	 call	 ?SetCheckbox@CXListCtrl@@QAEHHHHH@Z ; CXListCtrl::SetCheckbox

; 935  : 		SetItemText(nIndex,1,pData->m_strCodeName,RGB(0,0,0),CRGRID);		

  00100	6a 01		 push	 1
  00102	68 ff ff ff 00	 push	 16777215		; 00ffffffH
  00107	6a 00		 push	 0
  00109	ff 77 04	 push	 DWORD PTR [edi+4]
  0010c	8b ce		 mov	 ecx, esi
  0010e	6a 01		 push	 1
  00110	53		 push	 ebx
  00111	e8 00 00 00 00	 call	 ?SetItemText@CXListCtrl@@QAEHHHPBDKKH@Z ; CXListCtrl::SetItemText

; 936  : 	}
; 937  : 	
; 938  : /*	CString strKeepingCnt;
; 939  : 	strKeepingCnt.Format("%d",pData->m_lKeepingCnt);
; 940  : 	if(nIndex%2)
; 941  : 	{
; 942  : 		SetCheckbox(nIndex,m_lIndexOfCheck,pData->m_bCheck);
; 943  : 		SetItemText(nIndex,m_lIndexOfKeepingCnt,strKeepingCnt);
; 944  : 		SetItemText(nIndex,m_lIndexOfName,pData->m_strCodeName);
; 945  : 		SetItemText(nIndex,m_lIndexOfPrice,pData->m_strPrice,m_crText,m_crBackground);
; 946  : 		SetItemText(nIndex,m_lIndexOfChange,pData->m_strChange,m_crTextDaebi,m_crBackgroundDaebi);
; 947  : 		SetItemText(nIndex,m_lIndexOfChgrate,pData->m_strChgrate,m_crTextDaebi,m_crBackgroundDaebi);
; 948  : 		SetItemText(nIndex,m_lIndexOfVolume,pData->m_strVolume);
; 949  : 		SetItemText(nIndex,m_lIndexOfTime,pData->m_strInsertedTime);
; 950  : 	}
; 951  : 	else
; 952  : 	{
; 953  : 		if(m_crBackgroundDaebi==RGB(255,255,255))
; 954  : 		{
; 955  : 			m_crBackgroundDaebi = CRGRID;
; 956  : 		}
; 957  : 		SetCheckbox(nIndex,m_lIndexOfCheck,pData->m_bCheck);
; 958  : 		SetItemText(nIndex,m_lIndexOfKeepingCnt,strKeepingCnt,RGB(0,0,0),CRGRID);
; 959  : 		SetItemText(nIndex,m_lIndexOfName,pData->m_strCodeName,RGB(0,0,0),CRGRID);
; 960  : 		SetItemText(nIndex,m_lIndexOfPrice,pData->m_strPrice,m_crText,CRGRID);
; 961  : 		SetItemText(nIndex,m_lIndexOfChange,pData->m_strChange,m_crTextDaebi,m_crBackgroundDaebi);
; 962  : 		SetItemText(nIndex,m_lIndexOfChgrate,pData->m_strChgrate,m_crTextDaebi,m_crBackgroundDaebi);
; 963  : 		SetItemText(nIndex,m_lIndexOfVolume,pData->m_strVolume,RGB(0,0,0),CRGRID);
; 964  : 		SetItemText(nIndex,m_lIndexOfTime,pData->m_strInsertedTime,RGB(0,0,0),CRGRID);
; 965  : 	}
; 966  : 	*/
; 967  : 	SetItemData(nIndex,(DWORD)pData);

  00116	57		 push	 edi
  00117	53		 push	 ebx
  00118	8b ce		 mov	 ecx, esi
  0011a	e8 00 00 00 00	 call	 ?SetItemData@CXListCtrl@@QAEHHK@Z ; CXListCtrl::SetItemData

; 968  : 	pData->m_nCurrentIndex = nIndex;

  0011f	89 5f 28	 mov	 DWORD PTR [edi+40], ebx
  00122	5f		 pop	 edi
  00123	5e		 pop	 esi
  00124	5b		 pop	 ebx

; 969  : }

  00125	5d		 pop	 ebp
  00126	c2 08 00	 ret	 8
  00129	0f 1f 00	 npad	 3
$LN18@InsertCode:
  0012c	00 00 00 00	 DD	 $LN4@InsertCode
  00130	00 00 00 00	 DD	 $LN5@InsertCode
  00134	00 00 00 00	 DD	 $LN8@InsertCode
  00138	00 00 00 00	 DD	 $LN6@InsertCode
  0013c	00 00 00 00	 DD	 $LN7@InsertCode
?InsertCodeDataLighted@CXListCtrlJongData@@AAEXPAVCJongDataInListCtrl@@H@Z ENDP ; CXListCtrlJongData::InsertCodeDataLighted
_TEXT	ENDS
; Function compile flags: /Ogtp
; File D:\git\src\IBK\IBK_DRFN\ProjSrc\SrcDrfn\Chart\comparechart\XListCtrlJongData.cpp
;	COMDAT ?ReplaceIndex@CXListCtrlJongData@@AAEXHH@Z
_TEXT	SEGMENT
_this$1$ = -4						; size = 4
_nIndex1$ = 8						; size = 4
_nIndex2$ = 12						; size = 4
?ReplaceIndex@CXListCtrlJongData@@AAEXHH@Z PROC		; CXListCtrlJongData::ReplaceIndex, COMDAT
; _this$ = ecx

; 856  : {

  00000	55		 push	 ebp
  00001	8b ec		 mov	 ebp, esp
  00003	51		 push	 ecx
  00004	53		 push	 ebx
  00005	56		 push	 esi
  00006	57		 push	 edi

; 857  : 	CJongDataInListCtrl *pData1 = (CJongDataInListCtrl *)GetItemData(nIndex1);

  00007	ff 75 08	 push	 DWORD PTR _nIndex1$[ebp]
  0000a	8b f9		 mov	 edi, ecx
  0000c	89 7d fc	 mov	 DWORD PTR _this$1$[ebp], edi
  0000f	e8 00 00 00 00	 call	 ?GetItemData@CXListCtrl@@QAEKH@Z ; CXListCtrl::GetItemData

; 858  : 	CJongDataInListCtrl *pData2 = (CJongDataInListCtrl *)GetItemData(nIndex2);

  00014	8b 75 0c	 mov	 esi, DWORD PTR _nIndex2$[ebp]
  00017	8b cf		 mov	 ecx, edi
  00019	56		 push	 esi
  0001a	8b d8		 mov	 ebx, eax
  0001c	e8 00 00 00 00	 call	 ?GetItemData@CXListCtrl@@QAEKH@Z ; CXListCtrl::GetItemData

; 859  : 	InsertCodeDataLighted(pData1, nIndex2);

  00021	8b 4d fc	 mov	 ecx, DWORD PTR _this$1$[ebp]
  00024	8b f8		 mov	 edi, eax
  00026	56		 push	 esi
  00027	53		 push	 ebx
  00028	e8 00 00 00 00	 call	 ?InsertCodeDataLighted@CXListCtrlJongData@@AAEXPAVCJongDataInListCtrl@@H@Z ; CXListCtrlJongData::InsertCodeDataLighted

; 860  : 	InsertCodeDataLighted(pData2, nIndex1);

  0002d	ff 75 08	 push	 DWORD PTR _nIndex1$[ebp]
  00030	8b 4d fc	 mov	 ecx, DWORD PTR _this$1$[ebp]
  00033	57		 push	 edi
  00034	e8 00 00 00 00	 call	 ?InsertCodeDataLighted@CXListCtrlJongData@@AAEXPAVCJongDataInListCtrl@@H@Z ; CXListCtrlJongData::InsertCodeDataLighted
  00039	5f		 pop	 edi
  0003a	5e		 pop	 esi
  0003b	5b		 pop	 ebx

; 861  : }

  0003c	8b e5		 mov	 esp, ebp
  0003e	5d		 pop	 ebp
  0003f	c2 08 00	 ret	 8
?ReplaceIndex@CXListCtrlJongData@@AAEXHH@Z ENDP		; CXListCtrlJongData::ReplaceIndex
_TEXT	ENDS
; Function compile flags: /Ogtp
; File D:\git\src\IBK\IBK_DRFN\ProjSrc\SrcDrfn\Chart\comparechart\XListCtrlJongData.cpp
;	COMDAT ?GetJongData@CXListCtrlJongData@@AAE?AV?$CStringT@DV?$StrTraitMFC_DLL@DV?$ChTraitsCRT@D@ATL@@@@@ATL@@HH@Z
_TEXT	SEGMENT
___$ReturnUdt$GSCopy$ = -136				; size = 4
_szTemp$ = -132						; size = 126
__$ArrayPad$ = -4					; size = 4
___$ReturnUdt$ = 8					; size = 4
_nItem$ = 12						; size = 4
_nSubItem$ = 16						; size = 4
?GetJongData@CXListCtrlJongData@@AAE?AV?$CStringT@DV?$StrTraitMFC_DLL@DV?$ChTraitsCRT@D@ATL@@@@@ATL@@HH@Z PROC ; CXListCtrlJongData::GetJongData, COMDAT
; _this$ = ecx

; 489  : {

  00000	55		 push	 ebp
  00001	8b ec		 mov	 ebp, esp
  00003	81 ec 88 00 00
	00		 sub	 esp, 136		; 00000088H
  00009	a1 00 00 00 00	 mov	 eax, DWORD PTR ___security_cookie
  0000e	33 c5		 xor	 eax, ebp
  00010	89 45 fc	 mov	 DWORD PTR __$ArrayPad$[ebp], eax
  00013	56		 push	 esi
  00014	8b 75 08	 mov	 esi, DWORD PTR ___$ReturnUdt$[ebp]

; 490  : 	char szTemp[126];
; 491  : 	GetItemText(nItem,nSubItem,szTemp,sizeof(szTemp));

  00017	8d 85 7c ff ff
	ff		 lea	 eax, DWORD PTR _szTemp$[ebp]
  0001d	6a 7e		 push	 126			; 0000007eH
  0001f	50		 push	 eax
  00020	ff 75 10	 push	 DWORD PTR _nSubItem$[ebp]
  00023	89 b5 78 ff ff
	ff		 mov	 DWORD PTR ___$ReturnUdt$GSCopy$[ebp], esi
  00029	ff 75 0c	 push	 DWORD PTR _nItem$[ebp]
  0002c	e8 00 00 00 00	 call	 ?GetItemText@CListCtrl@@QBEHHHPADH@Z ; CListCtrl::GetItemText

; 492  : 	return szTemp;

  00031	8d 85 7c ff ff
	ff		 lea	 eax, DWORD PTR _szTemp$[ebp]
  00037	8b ce		 mov	 ecx, esi
  00039	50		 push	 eax
  0003a	ff 15 00 00 00
	00		 call	 DWORD PTR __imp_??0?$CStringT@DV?$StrTraitMFC_DLL@DV?$ChTraitsCRT@D@ATL@@@@@ATL@@QAE@PBD@Z

; 493  : }

  00040	8b 4d fc	 mov	 ecx, DWORD PTR __$ArrayPad$[ebp]
  00043	8b c6		 mov	 eax, esi
  00045	33 cd		 xor	 ecx, ebp
  00047	5e		 pop	 esi
  00048	e8 00 00 00 00	 call	 @__security_check_cookie@4
  0004d	8b e5		 mov	 esp, ebp
  0004f	5d		 pop	 ebp
  00050	c2 0c 00	 ret	 12			; 0000000cH
?GetJongData@CXListCtrlJongData@@AAE?AV?$CStringT@DV?$StrTraitMFC_DLL@DV?$ChTraitsCRT@D@ATL@@@@@ATL@@HH@Z ENDP ; CXListCtrlJongData::GetJongData
_TEXT	ENDS
; Function compile flags: /Ogtp
; File D:\git\src\IBK\IBK_DRFN\ProjSrc\SrcDrfn\Chart\comparechart\XListCtrlJongData.cpp
; File C:\Program Files (x86)\Microsoft Visual Studio\2019\Community\VC\Tools\MSVC\14.29.30133\atlmfc\include\afxcmn.inl
; File D:\git\src\IBK\IBK_DRFN\ProjSrc\SrcDrfn\Chart\comparechart\XListCtrlJongData.cpp
; File C:\Program Files (x86)\Microsoft Visual Studio\2019\Community\VC\Tools\MSVC\14.29.30133\atlmfc\include\afxcmn.inl
; File D:\git\src\IBK\IBK_DRFN\ProjSrc\SrcDrfn\Chart\comparechart\XListCtrlJongData.cpp
; File C:\Program Files (x86)\Microsoft Visual Studio\2019\Community\VC\Tools\MSVC\14.29.30133\atlmfc\include\afxcmn.inl
; File D:\git\src\IBK\IBK_DRFN\ProjSrc\SrcDrfn\Chart\comparechart\XListCtrlJongData.cpp
; File C:\Program Files (x86)\Microsoft Visual Studio\2019\Community\VC\Tools\MSVC\14.29.30133\atlmfc\include\afxcmn.inl
; File D:\git\src\IBK\IBK_DRFN\ProjSrc\SrcDrfn\Chart\comparechart\XListCtrlJongData.cpp
; File C:\Program Files (x86)\Microsoft Visual Studio\2019\Community\VC\Tools\MSVC\14.29.30133\atlmfc\include\afxcmn.inl
; File D:\git\src\IBK\IBK_DRFN\ProjSrc\SrcDrfn\Chart\comparechart\XListCtrlJongData.cpp
; File C:\Program Files (x86)\Microsoft Visual Studio\2019\Community\VC\Tools\MSVC\14.29.30133\atlmfc\include\atlsimpstr.h
; File D:\git\src\IBK\IBK_DRFN\ProjSrc\SrcDrfn\Chart\comparechart\XListCtrlJongData.cpp
; File C:\Program Files (x86)\Microsoft Visual Studio\2019\Community\VC\Tools\MSVC\14.29.30133\atlmfc\include\cstringt.h
; File D:\git\src\IBK\IBK_DRFN\ProjSrc\SrcDrfn\Chart\comparechart\XListCtrlJongData.cpp
; File C:\Program Files (x86)\Microsoft Visual Studio\2019\Community\VC\Tools\MSVC\14.29.30133\atlmfc\include\atlsimpstr.h
; File D:\git\src\IBK\IBK_DRFN\ProjSrc\SrcDrfn\Chart\comparechart\XListCtrlJongData.cpp
; File C:\Program Files (x86)\Microsoft Visual Studio\2019\Community\VC\Tools\MSVC\14.29.30133\atlmfc\include\cstringt.h
; File D:\git\src\IBK\IBK_DRFN\ProjSrc\SrcDrfn\Chart\comparechart\XListCtrlJongData.cpp
; File C:\Program Files (x86)\Microsoft Visual Studio\2019\Community\VC\Tools\MSVC\14.29.30133\atlmfc\include\afxwin2.inl
; File D:\git\src\IBK\IBK_DRFN\ProjSrc\SrcDrfn\Chart\comparechart\XListCtrlJongData.cpp
;	COMDAT ?SortColumns@CXListCtrlJongData@@AAEXHH@Z
_TEXT	SEGMENT
_dPrice$2 = -196					; size = 8
_dMPrice$2$ = -188					; size = 8
_dMPrice$1$ = -188					; size = 8
_nColumnIndex$GSCopy$1$ = -180				; size = 4
_this$GSCopy$1$ = -176					; size = 4
_lMPrice$2$ = -172					; size = 4
_lMPrice$1$ = -172					; size = 4
_nCnt$1$ = -172						; size = 4
_nCnt$1$ = -168						; size = 4
_nIndexForReplace1$1$ = -168				; size = 4
_strLMPrice$3 = -164					; size = 4
_strPrice$4 = -160					; size = 4
_nMIndex$2$ = -156					; size = 4
_nMIndex$1$ = -156					; size = 4
_i1$1$ = -152						; size = 4
_i1$1$ = -152						; size = 4
_i1$1$ = -152						; size = 4
_i2$1$ = -148						; size = 4
_i2$1$ = -148						; size = 4
_szTemp$5 = -144					; size = 126
__$ArrayPad$ = -16					; size = 4
__$EHRec$ = -12						; size = 12
_nColumnIndex$ = 8					; size = 4
_bSortDecendFirst$ = 12					; size = 4
?SortColumns@CXListCtrlJongData@@AAEXHH@Z PROC		; CXListCtrlJongData::SortColumns, COMDAT
; _this$ = ecx

; 673  : {

  00000	55		 push	 ebp
  00001	8b ec		 mov	 ebp, esp
  00003	6a ff		 push	 -1
  00005	68 00 00 00 00	 push	 __ehhandler$?SortColumns@CXListCtrlJongData@@AAEXHH@Z
  0000a	64 a1 00 00 00
	00		 mov	 eax, DWORD PTR fs:0
  00010	50		 push	 eax
  00011	81 ec b8 00 00
	00		 sub	 esp, 184		; 000000b8H
  00017	a1 00 00 00 00	 mov	 eax, DWORD PTR ___security_cookie
  0001c	33 c5		 xor	 eax, ebp
  0001e	89 45 f0	 mov	 DWORD PTR __$ArrayPad$[ebp], eax
  00021	56		 push	 esi
  00022	57		 push	 edi
  00023	50		 push	 eax
  00024	8d 45 f4	 lea	 eax, DWORD PTR __$EHRec$[ebp]
  00027	64 a3 00 00 00
	00		 mov	 DWORD PTR fs:0, eax
  0002d	8b f1		 mov	 esi, ecx
  0002f	89 b5 50 ff ff
	ff		 mov	 DWORD PTR _this$GSCopy$1$[ebp], esi
  00035	8b 7d 08	 mov	 edi, DWORD PTR _nColumnIndex$[ebp]
  00038	89 bd 4c ff ff
	ff		 mov	 DWORD PTR _nColumnIndex$GSCopy$1$[ebp], edi

; 674  : 	if(m_bSortIndex[nColumnIndex])	// reverse

  0003e	83 bc be bc 02
	00 00 00	 cmp	 DWORD PTR [esi+edi*4+700], 0
  00046	0f 84 ac 00 00
	00		 je	 $LN17@SortColumn
; File C:\Program Files (x86)\Microsoft Visual Studio\2019\Community\VC\Tools\MSVC\14.29.30133\atlmfc\include\afxcmn.inl

; 155  : 	{ ASSERT(::IsWindow(m_hWnd)); return (int) ::SendMessage(m_hWnd, LVM_GETITEMCOUNT, 0, 0L); }

  0004c	6a 00		 push	 0
  0004e	6a 00		 push	 0
  00050	68 04 10 00 00	 push	 4100			; 00001004H
  00055	ff 76 20	 push	 DWORD PTR [esi+32]
  00058	ff 15 00 00 00
	00		 call	 DWORD PTR __imp__SendMessageA@16
; File D:\git\src\IBK\IBK_DRFN\ProjSrc\SrcDrfn\Chart\comparechart\XListCtrlJongData.cpp

; 676  : 		int nCnt = GetItemCount();

  0005e	8b d0		 mov	 edx, eax
; File C:\Program Files (x86)\Microsoft Visual Studio\2019\Community\VC\Tools\MSVC\14.29.30133\atlmfc\include\afxcmn.inl

; 155  : 	{ ASSERT(::IsWindow(m_hWnd)); return (int) ::SendMessage(m_hWnd, LVM_GETITEMCOUNT, 0, 0L); }

  00060	33 c0		 xor	 eax, eax
; File D:\git\src\IBK\IBK_DRFN\ProjSrc\SrcDrfn\Chart\comparechart\XListCtrlJongData.cpp

; 676  : 		int nCnt = GetItemCount();

  00062	89 95 54 ff ff
	ff		 mov	 DWORD PTR _nCnt$1$[ebp], edx

; 677  : 		int nIndexForReplace1 = nCnt;

  00068	8b ca		 mov	 ecx, edx
; File C:\Program Files (x86)\Microsoft Visual Studio\2019\Community\VC\Tools\MSVC\14.29.30133\atlmfc\include\afxcmn.inl

; 155  : 	{ ASSERT(::IsWindow(m_hWnd)); return (int) ::SendMessage(m_hWnd, LVM_GETITEMCOUNT, 0, 0L); }

  0006a	89 85 68 ff ff
	ff		 mov	 DWORD PTR _i1$1$[ebp], eax
; File D:\git\src\IBK\IBK_DRFN\ProjSrc\SrcDrfn\Chart\comparechart\XListCtrlJongData.cpp

; 679  : 		for(int i1=0;i1<nCnt;i1++)

  00070	85 d2		 test	 edx, edx
  00072	7e 6d		 jle	 SHORT $LN3@SortColumn
$LL4@SortColumn:

; 680  : 		{
; 681  : 			nIndexForReplace1--;

  00074	49		 dec	 ecx
  00075	89 8d 58 ff ff
	ff		 mov	 DWORD PTR _nIndexForReplace1$1$[ebp], ecx

; 682  : 			if(i1<nIndexForReplace1) 

  0007b	3b c1		 cmp	 eax, ecx
  0007d	7d 51		 jge	 SHORT $LN2@SortColumn

; 857  : 	CJongDataInListCtrl *pData1 = (CJongDataInListCtrl *)GetItemData(nIndex1);

  0007f	51		 push	 ecx
  00080	8b ce		 mov	 ecx, esi
  00082	e8 00 00 00 00	 call	 ?GetItemData@CXListCtrl@@QAEKH@Z ; CXListCtrl::GetItemData

; 858  : 	CJongDataInListCtrl *pData2 = (CJongDataInListCtrl *)GetItemData(nIndex2);

  00087	ff b5 68 ff ff
	ff		 push	 DWORD PTR _i1$1$[ebp]
  0008d	8b 8d 50 ff ff
	ff		 mov	 ecx, DWORD PTR _this$GSCopy$1$[ebp]
  00093	8b f0		 mov	 esi, eax
  00095	e8 00 00 00 00	 call	 ?GetItemData@CXListCtrl@@QAEKH@Z ; CXListCtrl::GetItemData

; 859  : 	InsertCodeDataLighted(pData1, nIndex2);

  0009a	ff b5 68 ff ff
	ff		 push	 DWORD PTR _i1$1$[ebp]
  000a0	8b f8		 mov	 edi, eax
  000a2	56		 push	 esi
  000a3	8b b5 50 ff ff
	ff		 mov	 esi, DWORD PTR _this$GSCopy$1$[ebp]
  000a9	8b ce		 mov	 ecx, esi
  000ab	e8 00 00 00 00	 call	 ?InsertCodeDataLighted@CXListCtrlJongData@@AAEXPAVCJongDataInListCtrl@@H@Z ; CXListCtrlJongData::InsertCodeDataLighted

; 860  : 	InsertCodeDataLighted(pData2, nIndex1);

  000b0	ff b5 58 ff ff
	ff		 push	 DWORD PTR _nIndexForReplace1$1$[ebp]
  000b6	8b ce		 mov	 ecx, esi
  000b8	57		 push	 edi
  000b9	e8 00 00 00 00	 call	 ?InsertCodeDataLighted@CXListCtrlJongData@@AAEXPAVCJongDataInListCtrl@@H@Z ; CXListCtrlJongData::InsertCodeDataLighted
  000be	8b 85 68 ff ff
	ff		 mov	 eax, DWORD PTR _i1$1$[ebp]
  000c4	8b 8d 58 ff ff
	ff		 mov	 ecx, DWORD PTR _nIndexForReplace1$1$[ebp]
  000ca	8b 95 54 ff ff
	ff		 mov	 edx, DWORD PTR _nCnt$1$[ebp]
$LN2@SortColumn:

; 679  : 		for(int i1=0;i1<nCnt;i1++)

  000d0	40		 inc	 eax
  000d1	89 85 68 ff ff
	ff		 mov	 DWORD PTR _i1$1$[ebp], eax
  000d7	3b c2		 cmp	 eax, edx
  000d9	7c 99		 jl	 SHORT $LL4@SortColumn
  000db	8b bd 4c ff ff
	ff		 mov	 edi, DWORD PTR _nColumnIndex$GSCopy$1$[ebp]
$LN3@SortColumn:

; 683  : 			{
; 684  : 				ReplaceIndex(nIndexForReplace1,i1);
; 685  : 			}
; 686  : 		}
; 687  : 		if(nColumnIndex)

  000e1	85 ff		 test	 edi, edi
  000e3	0f 84 54 05 00
	00		 je	 $LN18@SortColumn

; 688  : 		{
; 689  : 			SetSortImage(nColumnIndex,2);

  000e9	6a 02		 push	 2
  000eb	57		 push	 edi
  000ec	8b ce		 mov	 ecx, esi
  000ee	e8 00 00 00 00	 call	 ?SetSortImage@CXListCtrl@@QAEXHH@Z ; CXListCtrl::SetSortImage

; 690  : 		}
; 691  : 	}

  000f3	e9 45 05 00 00	 jmp	 $LN18@SortColumn
$LN17@SortColumn:
  000f8	0f 57 c0	 xorps	 xmm0, xmm0

; 692  : 	else	
; 693  : 	{
; 694  : 		::ZeroMemory(m_bSortIndex,sizeof(m_bSortIndex));

  000fb	0f 11 86 bc 02
	00 00		 movups	 XMMWORD PTR [esi+700], xmm0
  00102	0f 11 86 cc 02
	00 00		 movups	 XMMWORD PTR [esi+716], xmm0
  00109	66 0f d6 86 dc
	02 00 00	 movq	 QWORD PTR [esi+732], xmm0

; 695  : 		if(nColumnIndex!=0) 

  00111	85 ff		 test	 edi, edi
  00113	74 0b		 je	 SHORT $LN21@SortColumn

; 696  : 		{
; 697  : 			m_bSortIndex[nColumnIndex] = 1;

  00115	c7 84 be bc 02
	00 00 01 00 00
	00		 mov	 DWORD PTR [esi+edi*4+700], 1
$LN21@SortColumn:

; 698  : 		}
; 699  : 		char szTemp[126];
; 700  : 		CString strPrice;

  00120	8d 8d 60 ff ff
	ff		 lea	 ecx, DWORD PTR _strPrice$4[ebp]
  00126	ff 15 00 00 00
	00		 call	 DWORD PTR __imp_??0?$CStringT@DV?$StrTraitMFC_DLL@DV?$ChTraitsCRT@D@ATL@@@@@ATL@@QAE@XZ

; 701  : 		CString strLMPrice;

  0012c	8d 8d 5c ff ff
	ff		 lea	 ecx, DWORD PTR _strLMPrice$3[ebp]
  00132	c7 45 fc 00 00
	00 00		 mov	 DWORD PTR __$EHRec$[ebp+8], 0
  00139	ff 15 00 00 00
	00		 call	 DWORD PTR __imp_??0?$CStringT@DV?$StrTraitMFC_DLL@DV?$ChTraitsCRT@D@ATL@@@@@ATL@@QAE@XZ
; File C:\Program Files (x86)\Microsoft Visual Studio\2019\Community\VC\Tools\MSVC\14.29.30133\atlmfc\include\afxcmn.inl

; 155  : 	{ ASSERT(::IsWindow(m_hWnd)); return (int) ::SendMessage(m_hWnd, LVM_GETITEMCOUNT, 0, 0L); }

  0013f	6a 00		 push	 0
  00141	6a 00		 push	 0
  00143	68 04 10 00 00	 push	 4100			; 00001004H
  00148	ff 76 20	 push	 DWORD PTR [esi+32]
; File D:\git\src\IBK\IBK_DRFN\ProjSrc\SrcDrfn\Chart\comparechart\XListCtrlJongData.cpp

; 701  : 		CString strLMPrice;

  0014b	c6 45 fc 01	 mov	 BYTE PTR __$EHRec$[ebp+8], 1
; File C:\Program Files (x86)\Microsoft Visual Studio\2019\Community\VC\Tools\MSVC\14.29.30133\atlmfc\include\afxcmn.inl

; 155  : 	{ ASSERT(::IsWindow(m_hWnd)); return (int) ::SendMessage(m_hWnd, LVM_GETITEMCOUNT, 0, 0L); }

  0014f	ff 15 00 00 00
	00		 call	 DWORD PTR __imp__SendMessageA@16
; File D:\git\src\IBK\IBK_DRFN\ProjSrc\SrcDrfn\Chart\comparechart\XListCtrlJongData.cpp

; 709  : 		if(bSortDecendFirst)// when Sort first.... & pnmlv->iSubItem == 0,

  00155	8b 4d 0c	 mov	 ecx, DWORD PTR _bSortDecendFirst$[ebp]
  00158	89 85 58 ff ff
	ff		 mov	 DWORD PTR _nCnt$1$[ebp], eax
  0015e	c7 85 68 ff ff
	ff 00 00 00 00	 mov	 DWORD PTR _i1$1$[ebp], 0
  00168	85 c9		 test	 ecx, ecx
  0016a	0f 84 53 02 00
	00		 je	 $LN22@SortColumn

; 710  : 		{
; 711  : 			for(int i1=0;i1<nCnt;i1++)

  00170	85 c0		 test	 eax, eax
  00172	0f 8e 99 04 00
	00		 jle	 $LN12@SortColumn
  00178	0f 1f 84 00 00
	00 00 00	 npad	 8
$LL7@SortColumn:

; 712  : 			{
; 713  : 				strPrice.Empty();

  00180	8d 8d 60 ff ff
	ff		 lea	 ecx, DWORD PTR _strPrice$4[ebp]
  00186	ff 15 00 00 00
	00		 call	 DWORD PTR __imp_?Empty@?$CSimpleStringT@D$00@ATL@@QAEXXZ

; 714  : 				strLMPrice.Empty();			

  0018c	8d 8d 5c ff ff
	ff		 lea	 ecx, DWORD PTR _strLMPrice$3[ebp]
  00192	ff 15 00 00 00
	00		 call	 DWORD PTR __imp_?Empty@?$CSimpleStringT@D$00@ATL@@QAEXXZ

; 715  : 				dMPrice = -9999999;

  00198	f2 0f 10 05 00
	00 00 00	 movsd	 xmm0, QWORD PTR __real@c16312cfe0000000

; 716  : 				dPrice = 0;
; 717  : 				lMPrice = 0;

  001a0	33 c9		 xor	 ecx, ecx

; 718  : 				lPrice = 0;
; 719  : 				nMIndex = 0;

  001a2	33 c0		 xor	 eax, eax
  001a4	f2 0f 11 85 44
	ff ff ff	 movsd	 QWORD PTR _dMPrice$1$[ebp], xmm0
  001ac	89 85 64 ff ff
	ff		 mov	 DWORD PTR _nMIndex$1$[ebp], eax

; 720  : 				for(int i2=i1;i2<nCnt;i2++)

  001b2	8b 85 68 ff ff
	ff		 mov	 eax, DWORD PTR _i1$1$[ebp]
  001b8	89 8d 54 ff ff
	ff		 mov	 DWORD PTR _lMPrice$1$[ebp], ecx
  001be	89 85 6c ff ff
	ff		 mov	 DWORD PTR _i2$1$[ebp], eax
$LL10@SortColumn:

; 721  : 				{
; 722  : 					GetItemText(i2,nColumnIndex,szTemp,sizeof(szTemp));

  001c4	6a 7e		 push	 126			; 0000007eH
  001c6	8d 8d 70 ff ff
	ff		 lea	 ecx, DWORD PTR _szTemp$5[ebp]
  001cc	51		 push	 ecx
  001cd	57		 push	 edi
  001ce	50		 push	 eax
  001cf	8b ce		 mov	 ecx, esi
  001d1	e8 00 00 00 00	 call	 ?GetItemText@CListCtrl@@QBEHHHPADH@Z ; CListCtrl::GetItemText

; 723  : 					strPrice = szTemp;

  001d6	8d 85 70 ff ff
	ff		 lea	 eax, DWORD PTR _szTemp$5[ebp]
  001dc	50		 push	 eax
  001dd	8d 8d 60 ff ff
	ff		 lea	 ecx, DWORD PTR _strPrice$4[ebp]
  001e3	ff 15 00 00 00
	00		 call	 DWORD PTR __imp_??4?$CStringT@DV?$StrTraitMFC_DLL@DV?$ChTraitsCRT@D@ATL@@@@@ATL@@QAEAAV01@PBD@Z

; 724  : 					if(nColumnIndex==0) 

  001e9	85 ff		 test	 edi, edi
  001eb	75 27		 jne	 SHORT $LN24@SortColumn

; 725  : 					{
; 726  : 						if(GetCheckbox(i2,0))

  001ed	57		 push	 edi
  001ee	ff b5 6c ff ff
	ff		 push	 DWORD PTR _i2$1$[ebp]
  001f4	8b ce		 mov	 ecx, esi
  001f6	e8 00 00 00 00	 call	 ?GetCheckbox@CXListCtrl@@QAEHHH@Z ; CXListCtrl::GetCheckbox
  001fb	85 c0		 test	 eax, eax
  001fd	0f 85 46 01 00
	00		 jne	 $LN107@SortColumn

; 729  : 							break;
; 730  : 						}
; 731  : 						else
; 732  : 						{
; 733  : 							nMIndex = i1;

  00203	8b 8d 68 ff ff
	ff		 mov	 ecx, DWORD PTR _i1$1$[ebp]
  00209	89 8d 64 ff ff
	ff		 mov	 DWORD PTR _nMIndex$1$[ebp], ecx

; 734  : 						}
; 735  : 					}

  0020f	e9 1a 01 00 00	 jmp	 $LN133@SortColumn
$LN24@SortColumn:

; 736  : 					else if(nColumnIndex==m_lIndexOfName||nColumnIndex==m_lIndexOfTime) // Jongmok Name

  00214	3b be 40 03 00
	00		 cmp	 edi, DWORD PTR [esi+832]
  0021a	0f 84 c3 00 00
	00		 je	 $LN30@SortColumn
  00220	3b be 54 03 00
	00		 cmp	 edi, DWORD PTR [esi+852]
  00226	0f 84 b7 00 00
	00		 je	 $LN30@SortColumn

; 742  : 						}
; 743  : 					}
; 744  : 					else if(nColumnIndex==m_lIndexOfChange||nColumnIndex==m_lIndexOfChgrate)	// Change, ChangeRate

  0022c	3b be 48 03 00
	00		 cmp	 edi, DWORD PTR [esi+840]
  00232	74 50		 je	 SHORT $LN35@SortColumn
  00234	3b be 4c 03 00
	00		 cmp	 edi, DWORD PTR [esi+844]
  0023a	74 48		 je	 SHORT $LN35@SortColumn

; 754  : 					else
; 755  : 					{
; 756  : 						strPrice.Remove(',');

  0023c	6a 2c		 push	 44			; 0000002cH
  0023e	8d 8d 60 ff ff
	ff		 lea	 ecx, DWORD PTR _strPrice$4[ebp]
  00244	ff 15 00 00 00
	00		 call	 DWORD PTR __imp_?Remove@?$CStringT@DV?$StrTraitMFC_DLL@DV?$ChTraitsCRT@D@ATL@@@@@ATL@@QAEHD@Z

; 757  : 						lPrice = atol(strPrice);

  0024a	ff b5 60 ff ff
	ff		 push	 DWORD PTR _strPrice$4[ebp]
  00250	ff 15 00 00 00
	00		 call	 DWORD PTR __imp__atol

; 758  : 						if(!lMPrice||lMPrice<lPrice)

  00256	8b 95 54 ff ff
	ff		 mov	 edx, DWORD PTR _lMPrice$1$[ebp]
  0025c	83 c4 04	 add	 esp, 4
  0025f	85 d2		 test	 edx, edx
  00261	74 08		 je	 SHORT $LN39@SortColumn
  00263	3b d0		 cmp	 edx, eax
  00265	0f 8d bd 00 00
	00		 jge	 $LN128@SortColumn
$LN39@SortColumn:

; 759  : 						{
; 760  : 							lMPrice = lPrice;

  0026b	89 85 54 ff ff
	ff		 mov	 DWORD PTR _lMPrice$1$[ebp], eax

; 761  : 							nMIndex = i2;

  00271	8b 85 6c ff ff
	ff		 mov	 eax, DWORD PTR _i2$1$[ebp]
  00277	8b c8		 mov	 ecx, eax
  00279	89 8d 64 ff ff
	ff		 mov	 DWORD PTR _nMIndex$1$[ebp], ecx
  0027f	e9 b0 00 00 00	 jmp	 $LN8@SortColumn
$LN35@SortColumn:

; 745  : 					{
; 746  : 						strPrice.Remove(',');

  00284	6a 2c		 push	 44			; 0000002cH
  00286	8d 8d 60 ff ff
	ff		 lea	 ecx, DWORD PTR _strPrice$4[ebp]
  0028c	ff 15 00 00 00
	00		 call	 DWORD PTR __imp_?Remove@?$CStringT@DV?$StrTraitMFC_DLL@DV?$ChTraitsCRT@D@ATL@@@@@ATL@@QAEHD@Z

; 747  : 						dPrice = atof(strPrice);

  00292	ff b5 60 ff ff
	ff		 push	 DWORD PTR _strPrice$4[ebp]
  00298	ff 15 00 00 00
	00		 call	 DWORD PTR __imp__atof

; 748  : 						if(dMPrice == -9999999||dMPrice<dPrice)

  0029e	f2 0f 10 8d 44
	ff ff ff	 movsd	 xmm1, QWORD PTR _dMPrice$1$[ebp]
  002a6	83 c4 04	 add	 esp, 4
  002a9	66 0f 2e 0d 00
	00 00 00	 ucomisd xmm1, QWORD PTR __real@c16312cfe0000000
  002b1	dd 9d 3c ff ff
	ff		 fstp	 QWORD PTR _dPrice$2[ebp]
  002b7	f2 0f 10 85 3c
	ff ff ff	 movsd	 xmm0, QWORD PTR _dPrice$2[ebp]
  002bf	9f		 lahf
  002c0	f6 c4 44	 test	 ah, 68			; 00000044H
  002c3	7b 06		 jnp	 SHORT $LN37@SortColumn
  002c5	66 0f 2f c1	 comisd	 xmm0, xmm1
  002c9	76 5d		 jbe	 SHORT $LN128@SortColumn
$LN37@SortColumn:

; 749  : 						{
; 750  : 							dMPrice = dPrice;
; 751  : 							nMIndex = i2;

  002cb	8b 85 6c ff ff
	ff		 mov	 eax, DWORD PTR _i2$1$[ebp]
  002d1	8b c8		 mov	 ecx, eax
  002d3	f2 0f 11 85 44
	ff ff ff	 movsd	 QWORD PTR _dMPrice$1$[ebp], xmm0
  002db	89 8d 64 ff ff
	ff		 mov	 DWORD PTR _nMIndex$1$[ebp], ecx

; 752  : 						}
; 753  : 					}

  002e1	eb 51		 jmp	 SHORT $LN8@SortColumn
$LN30@SortColumn:
; File C:\Program Files (x86)\Microsoft Visual Studio\2019\Community\VC\Tools\MSVC\14.29.30133\atlmfc\include\atlsimpstr.h

; 533  : 		return( GetLength() == 0 );

  002e3	8b 85 5c ff ff
	ff		 mov	 eax, DWORD PTR _strLMPrice$3[ebp]
  002e9	83 78 f4 00	 cmp	 DWORD PTR [eax-12], 0
; File D:\git\src\IBK\IBK_DRFN\ProjSrc\SrcDrfn\Chart\comparechart\XListCtrlJongData.cpp

; 738  : 						if(strLMPrice.IsEmpty()||strLMPrice>strPrice)

  002ed	74 16		 je	 SHORT $LN32@SortColumn
; File C:\Program Files (x86)\Microsoft Visual Studio\2019\Community\VC\Tools\MSVC\14.29.30133\atlmfc\include\cstringt.h

; 2622 : 		return( str1.Compare( str2 ) > 0 );

  002ef	ff b5 60 ff ff
	ff		 push	 DWORD PTR _strPrice$4[ebp]
  002f5	8d 8d 5c ff ff
	ff		 lea	 ecx, DWORD PTR _strLMPrice$3[ebp]
  002fb	ff 15 00 00 00
	00		 call	 DWORD PTR __imp_?Compare@?$CStringT@DV?$StrTraitMFC_DLL@DV?$ChTraitsCRT@D@ATL@@@@@ATL@@QBEHPBD@Z
  00301	85 c0		 test	 eax, eax
; File D:\git\src\IBK\IBK_DRFN\ProjSrc\SrcDrfn\Chart\comparechart\XListCtrlJongData.cpp

; 738  : 						if(strLMPrice.IsEmpty()||strLMPrice>strPrice)

  00303	7e 23		 jle	 SHORT $LN128@SortColumn
$LN32@SortColumn:

; 739  : 						{
; 740  : 							strLMPrice = strPrice;

  00305	8d 85 60 ff ff
	ff		 lea	 eax, DWORD PTR _strPrice$4[ebp]
  0030b	50		 push	 eax
  0030c	8d 8d 5c ff ff
	ff		 lea	 ecx, DWORD PTR _strLMPrice$3[ebp]
  00312	ff 15 00 00 00
	00		 call	 DWORD PTR __imp_??4?$CStringT@DV?$StrTraitMFC_DLL@DV?$ChTraitsCRT@D@ATL@@@@@ATL@@QAEAAV01@ABV01@@Z

; 741  : 							nMIndex = i2;

  00318	8b 85 6c ff ff
	ff		 mov	 eax, DWORD PTR _i2$1$[ebp]
  0031e	8b c8		 mov	 ecx, eax
  00320	89 8d 64 ff ff
	ff		 mov	 DWORD PTR _nMIndex$1$[ebp], ecx

; 748  : 						if(dMPrice == -9999999||dMPrice<dPrice)

  00326	eb 0c		 jmp	 SHORT $LN8@SortColumn
$LN128@SortColumn:

; 720  : 				for(int i2=i1;i2<nCnt;i2++)

  00328	8b 8d 64 ff ff
	ff		 mov	 ecx, DWORD PTR _nMIndex$1$[ebp]
$LN133@SortColumn:
  0032e	8b 85 6c ff ff
	ff		 mov	 eax, DWORD PTR _i2$1$[ebp]
$LN8@SortColumn:
  00334	40		 inc	 eax
  00335	89 85 6c ff ff
	ff		 mov	 DWORD PTR _i2$1$[ebp], eax
  0033b	3b 85 58 ff ff
	ff		 cmp	 eax, DWORD PTR _nCnt$1$[ebp]
  00341	0f 8c 7d fe ff
	ff		 jl	 $LL10@SortColumn
  00347	eb 0c		 jmp	 SHORT $LN124@SortColumn
$LN107@SortColumn:

; 727  : 						{
; 728  : 							nMIndex = i2;

  00349	8b 8d 6c ff ff
	ff		 mov	 ecx, DWORD PTR _i2$1$[ebp]
  0034f	89 8d 64 ff ff
	ff		 mov	 DWORD PTR _nMIndex$1$[ebp], ecx
$LN124@SortColumn:

; 762  : 						}
; 763  : 					}
; 764  : 				}
; 765  : 				if(nMIndex!=i1)

  00355	8b 85 68 ff ff
	ff		 mov	 eax, DWORD PTR _i1$1$[ebp]
  0035b	3b c8		 cmp	 ecx, eax
  0035d	74 4c		 je	 SHORT $LN5@SortColumn

; 857  : 	CJongDataInListCtrl *pData1 = (CJongDataInListCtrl *)GetItemData(nIndex1);

  0035f	51		 push	 ecx
  00360	8b ce		 mov	 ecx, esi
  00362	e8 00 00 00 00	 call	 ?GetItemData@CXListCtrl@@QAEKH@Z ; CXListCtrl::GetItemData

; 858  : 	CJongDataInListCtrl *pData2 = (CJongDataInListCtrl *)GetItemData(nIndex2);

  00367	ff b5 68 ff ff
	ff		 push	 DWORD PTR _i1$1$[ebp]
  0036d	8b 8d 50 ff ff
	ff		 mov	 ecx, DWORD PTR _this$GSCopy$1$[ebp]
  00373	8b f0		 mov	 esi, eax
  00375	e8 00 00 00 00	 call	 ?GetItemData@CXListCtrl@@QAEKH@Z ; CXListCtrl::GetItemData

; 859  : 	InsertCodeDataLighted(pData1, nIndex2);

  0037a	ff b5 68 ff ff
	ff		 push	 DWORD PTR _i1$1$[ebp]
  00380	8b f8		 mov	 edi, eax
  00382	56		 push	 esi
  00383	8b b5 50 ff ff
	ff		 mov	 esi, DWORD PTR _this$GSCopy$1$[ebp]
  00389	8b ce		 mov	 ecx, esi
  0038b	e8 00 00 00 00	 call	 ?InsertCodeDataLighted@CXListCtrlJongData@@AAEXPAVCJongDataInListCtrl@@H@Z ; CXListCtrlJongData::InsertCodeDataLighted

; 860  : 	InsertCodeDataLighted(pData2, nIndex1);

  00390	8b 85 64 ff ff
	ff		 mov	 eax, DWORD PTR _nMIndex$1$[ebp]
  00396	8b ce		 mov	 ecx, esi
  00398	50		 push	 eax
  00399	57		 push	 edi
  0039a	e8 00 00 00 00	 call	 ?InsertCodeDataLighted@CXListCtrlJongData@@AAEXPAVCJongDataInListCtrl@@H@Z ; CXListCtrlJongData::InsertCodeDataLighted
  0039f	8b bd 4c ff ff
	ff		 mov	 edi, DWORD PTR _nColumnIndex$GSCopy$1$[ebp]
  003a5	8b 85 68 ff ff
	ff		 mov	 eax, DWORD PTR _i1$1$[ebp]
$LN5@SortColumn:

; 710  : 		{
; 711  : 			for(int i1=0;i1<nCnt;i1++)

  003ab	40		 inc	 eax
  003ac	89 85 68 ff ff
	ff		 mov	 DWORD PTR _i1$1$[ebp], eax
  003b2	3b 85 58 ff ff
	ff		 cmp	 eax, DWORD PTR _nCnt$1$[ebp]
  003b8	0f 8c c2 fd ff
	ff		 jl	 $LL7@SortColumn

; 766  : 				{
; 767  : 					ReplaceIndex(nMIndex,i1);				
; 768  : 				}	
; 769  : 			}
; 770  : 		}

  003be	e9 4b 02 00 00	 jmp	 $LN135@SortColumn
$LN22@SortColumn:

; 771  : 		else
; 772  : 		{
; 773  : 			for(int i1=0;i1<nCnt;i1++)

  003c3	85 c0		 test	 eax, eax
  003c5	0f 8e 46 02 00
	00		 jle	 $LN12@SortColumn
  003cb	0f 1f 44 00 00	 npad	 5
$LL13@SortColumn:

; 774  : 			{
; 775  : 				strPrice.Empty();

  003d0	8d 8d 60 ff ff
	ff		 lea	 ecx, DWORD PTR _strPrice$4[ebp]
  003d6	ff 15 00 00 00
	00		 call	 DWORD PTR __imp_?Empty@?$CSimpleStringT@D$00@ATL@@QAEXXZ

; 776  : 				strLMPrice.Empty();			

  003dc	8d 8d 5c ff ff
	ff		 lea	 ecx, DWORD PTR _strLMPrice$3[ebp]
  003e2	ff 15 00 00 00
	00		 call	 DWORD PTR __imp_?Empty@?$CSimpleStringT@D$00@ATL@@QAEXXZ

; 777  : 				dMPrice = -9999999;

  003e8	f2 0f 10 05 00
	00 00 00	 movsd	 xmm0, QWORD PTR __real@c16312cfe0000000

; 778  : 				dPrice = 0;
; 779  : 				lMPrice = 0;

  003f0	33 c9		 xor	 ecx, ecx

; 780  : 				lPrice = 0;
; 781  : 				nMIndex = 0;

  003f2	33 c0		 xor	 eax, eax
  003f4	f2 0f 11 85 44
	ff ff ff	 movsd	 QWORD PTR _dMPrice$2$[ebp], xmm0
  003fc	89 85 64 ff ff
	ff		 mov	 DWORD PTR _nMIndex$2$[ebp], eax

; 782  : 				for(int i2=i1;i2<nCnt;i2++)

  00402	8b 85 68 ff ff
	ff		 mov	 eax, DWORD PTR _i1$1$[ebp]
  00408	89 8d 54 ff ff
	ff		 mov	 DWORD PTR _lMPrice$2$[ebp], ecx
  0040e	89 85 6c ff ff
	ff		 mov	 DWORD PTR _i2$1$[ebp], eax
$LL16@SortColumn:

; 783  : 				{
; 784  : 					GetItemText(i2,nColumnIndex,szTemp,sizeof(szTemp));

  00414	6a 7e		 push	 126			; 0000007eH
  00416	8d 8d 70 ff ff
	ff		 lea	 ecx, DWORD PTR _szTemp$5[ebp]
  0041c	51		 push	 ecx
  0041d	57		 push	 edi
  0041e	50		 push	 eax
  0041f	8b ce		 mov	 ecx, esi
  00421	e8 00 00 00 00	 call	 ?GetItemText@CListCtrl@@QBEHHHPADH@Z ; CListCtrl::GetItemText

; 785  : 					strPrice = szTemp;

  00426	8d 85 70 ff ff
	ff		 lea	 eax, DWORD PTR _szTemp$5[ebp]
  0042c	50		 push	 eax
  0042d	8d 8d 60 ff ff
	ff		 lea	 ecx, DWORD PTR _strPrice$4[ebp]
  00433	ff 15 00 00 00
	00		 call	 DWORD PTR __imp_??4?$CStringT@DV?$StrTraitMFC_DLL@DV?$ChTraitsCRT@D@ATL@@@@@ATL@@QAEAAV01@PBD@Z

; 786  : 					if(nColumnIndex==0) 

  00439	85 ff		 test	 edi, edi
  0043b	75 27		 jne	 SHORT $LN41@SortColumn

; 787  : 					{
; 788  : 						if(GetCheckbox(i2,0))

  0043d	57		 push	 edi
  0043e	ff b5 6c ff ff
	ff		 push	 DWORD PTR _i2$1$[ebp]
  00444	8b ce		 mov	 ecx, esi
  00446	e8 00 00 00 00	 call	 ?GetCheckbox@CXListCtrl@@QAEHHH@Z ; CXListCtrl::GetCheckbox
  0044b	85 c0		 test	 eax, eax
  0044d	0f 85 46 01 00
	00		 jne	 $LN108@SortColumn

; 791  : 							break;
; 792  : 						}
; 793  : 						else
; 794  : 						{
; 795  : 							nMIndex = i1;

  00453	8b 8d 68 ff ff
	ff		 mov	 ecx, DWORD PTR _i1$1$[ebp]
  00459	89 8d 64 ff ff
	ff		 mov	 DWORD PTR _nMIndex$2$[ebp], ecx

; 796  : 						}
; 797  : 					}

  0045f	e9 1a 01 00 00	 jmp	 $LN136@SortColumn
$LN41@SortColumn:

; 798  : 					else if(nColumnIndex==m_lIndexOfName||nColumnIndex==m_lIndexOfTime) // Jongmok Name

  00464	3b be 40 03 00
	00		 cmp	 edi, DWORD PTR [esi+832]
  0046a	0f 84 c3 00 00
	00		 je	 $LN47@SortColumn
  00470	3b be 54 03 00
	00		 cmp	 edi, DWORD PTR [esi+852]
  00476	0f 84 b7 00 00
	00		 je	 $LN47@SortColumn

; 804  : 						}
; 805  : 					}
; 806  : 					else if(nColumnIndex==m_lIndexOfChange||nColumnIndex==m_lIndexOfChgrate)	// Change, ChangeRate

  0047c	3b be 48 03 00
	00		 cmp	 edi, DWORD PTR [esi+840]
  00482	74 50		 je	 SHORT $LN52@SortColumn
  00484	3b be 4c 03 00
	00		 cmp	 edi, DWORD PTR [esi+844]
  0048a	74 48		 je	 SHORT $LN52@SortColumn

; 816  : 					else
; 817  : 					{
; 818  : 						strPrice.Remove(',');

  0048c	6a 2c		 push	 44			; 0000002cH
  0048e	8d 8d 60 ff ff
	ff		 lea	 ecx, DWORD PTR _strPrice$4[ebp]
  00494	ff 15 00 00 00
	00		 call	 DWORD PTR __imp_?Remove@?$CStringT@DV?$StrTraitMFC_DLL@DV?$ChTraitsCRT@D@ATL@@@@@ATL@@QAEHD@Z

; 819  : 						lPrice = atol(strPrice);

  0049a	ff b5 60 ff ff
	ff		 push	 DWORD PTR _strPrice$4[ebp]
  004a0	ff 15 00 00 00
	00		 call	 DWORD PTR __imp__atol

; 820  : 						if(!lMPrice||lMPrice>lPrice)

  004a6	8b 95 54 ff ff
	ff		 mov	 edx, DWORD PTR _lMPrice$2$[ebp]
  004ac	83 c4 04	 add	 esp, 4
  004af	85 d2		 test	 edx, edx
  004b1	74 08		 je	 SHORT $LN56@SortColumn
  004b3	3b d0		 cmp	 edx, eax
  004b5	0f 8e bd 00 00
	00		 jle	 $LN131@SortColumn
$LN56@SortColumn:

; 821  : 						{
; 822  : 							lMPrice = lPrice;

  004bb	89 85 54 ff ff
	ff		 mov	 DWORD PTR _lMPrice$2$[ebp], eax

; 823  : 							nMIndex = i2;

  004c1	8b 85 6c ff ff
	ff		 mov	 eax, DWORD PTR _i2$1$[ebp]
  004c7	8b c8		 mov	 ecx, eax
  004c9	89 8d 64 ff ff
	ff		 mov	 DWORD PTR _nMIndex$2$[ebp], ecx
  004cf	e9 b0 00 00 00	 jmp	 $LN14@SortColumn
$LN52@SortColumn:

; 807  : 					{
; 808  : 						strPrice.Remove(',');

  004d4	6a 2c		 push	 44			; 0000002cH
  004d6	8d 8d 60 ff ff
	ff		 lea	 ecx, DWORD PTR _strPrice$4[ebp]
  004dc	ff 15 00 00 00
	00		 call	 DWORD PTR __imp_?Remove@?$CStringT@DV?$StrTraitMFC_DLL@DV?$ChTraitsCRT@D@ATL@@@@@ATL@@QAEHD@Z

; 809  : 						dPrice = atof(strPrice);

  004e2	ff b5 60 ff ff
	ff		 push	 DWORD PTR _strPrice$4[ebp]
  004e8	ff 15 00 00 00
	00		 call	 DWORD PTR __imp__atof

; 810  : 						if(dMPrice == -9999999||dMPrice>dPrice)

  004ee	f2 0f 10 8d 44
	ff ff ff	 movsd	 xmm1, QWORD PTR _dMPrice$2$[ebp]
  004f6	83 c4 04	 add	 esp, 4
  004f9	66 0f 2e 0d 00
	00 00 00	 ucomisd xmm1, QWORD PTR __real@c16312cfe0000000
  00501	dd 9d 3c ff ff
	ff		 fstp	 QWORD PTR _dPrice$2[ebp]
  00507	f2 0f 10 85 3c
	ff ff ff	 movsd	 xmm0, QWORD PTR _dPrice$2[ebp]
  0050f	9f		 lahf
  00510	f6 c4 44	 test	 ah, 68			; 00000044H
  00513	7b 06		 jnp	 SHORT $LN54@SortColumn
  00515	66 0f 2f c8	 comisd	 xmm1, xmm0
  00519	76 5d		 jbe	 SHORT $LN131@SortColumn
$LN54@SortColumn:

; 811  : 						{
; 812  : 							dMPrice = dPrice;
; 813  : 							nMIndex = i2;

  0051b	8b 85 6c ff ff
	ff		 mov	 eax, DWORD PTR _i2$1$[ebp]
  00521	8b c8		 mov	 ecx, eax
  00523	f2 0f 11 85 44
	ff ff ff	 movsd	 QWORD PTR _dMPrice$2$[ebp], xmm0
  0052b	89 8d 64 ff ff
	ff		 mov	 DWORD PTR _nMIndex$2$[ebp], ecx

; 814  : 						}
; 815  : 					}

  00531	eb 51		 jmp	 SHORT $LN14@SortColumn
$LN47@SortColumn:
; File C:\Program Files (x86)\Microsoft Visual Studio\2019\Community\VC\Tools\MSVC\14.29.30133\atlmfc\include\atlsimpstr.h

; 533  : 		return( GetLength() == 0 );

  00533	8b 85 5c ff ff
	ff		 mov	 eax, DWORD PTR _strLMPrice$3[ebp]
  00539	83 78 f4 00	 cmp	 DWORD PTR [eax-12], 0
; File D:\git\src\IBK\IBK_DRFN\ProjSrc\SrcDrfn\Chart\comparechart\XListCtrlJongData.cpp

; 800  : 						if(strLMPrice.IsEmpty()||strLMPrice<strPrice)

  0053d	74 16		 je	 SHORT $LN49@SortColumn
; File C:\Program Files (x86)\Microsoft Visual Studio\2019\Community\VC\Tools\MSVC\14.29.30133\atlmfc\include\cstringt.h

; 2601 : 		return( str1.Compare( str2 ) < 0 );

  0053f	ff b5 60 ff ff
	ff		 push	 DWORD PTR _strPrice$4[ebp]
  00545	8d 8d 5c ff ff
	ff		 lea	 ecx, DWORD PTR _strLMPrice$3[ebp]
  0054b	ff 15 00 00 00
	00		 call	 DWORD PTR __imp_?Compare@?$CStringT@DV?$StrTraitMFC_DLL@DV?$ChTraitsCRT@D@ATL@@@@@ATL@@QBEHPBD@Z
  00551	85 c0		 test	 eax, eax
; File D:\git\src\IBK\IBK_DRFN\ProjSrc\SrcDrfn\Chart\comparechart\XListCtrlJongData.cpp

; 800  : 						if(strLMPrice.IsEmpty()||strLMPrice<strPrice)

  00553	79 23		 jns	 SHORT $LN131@SortColumn
$LN49@SortColumn:

; 801  : 						{
; 802  : 							strLMPrice = strPrice;

  00555	8d 85 60 ff ff
	ff		 lea	 eax, DWORD PTR _strPrice$4[ebp]
  0055b	50		 push	 eax
  0055c	8d 8d 5c ff ff
	ff		 lea	 ecx, DWORD PTR _strLMPrice$3[ebp]
  00562	ff 15 00 00 00
	00		 call	 DWORD PTR __imp_??4?$CStringT@DV?$StrTraitMFC_DLL@DV?$ChTraitsCRT@D@ATL@@@@@ATL@@QAEAAV01@ABV01@@Z

; 803  : 							nMIndex = i2;

  00568	8b 85 6c ff ff
	ff		 mov	 eax, DWORD PTR _i2$1$[ebp]
  0056e	8b c8		 mov	 ecx, eax
  00570	89 8d 64 ff ff
	ff		 mov	 DWORD PTR _nMIndex$2$[ebp], ecx

; 810  : 						if(dMPrice == -9999999||dMPrice>dPrice)

  00576	eb 0c		 jmp	 SHORT $LN14@SortColumn
$LN131@SortColumn:

; 782  : 				for(int i2=i1;i2<nCnt;i2++)

  00578	8b 8d 64 ff ff
	ff		 mov	 ecx, DWORD PTR _nMIndex$2$[ebp]
$LN136@SortColumn:
  0057e	8b 85 6c ff ff
	ff		 mov	 eax, DWORD PTR _i2$1$[ebp]
$LN14@SortColumn:
  00584	40		 inc	 eax
  00585	89 85 6c ff ff
	ff		 mov	 DWORD PTR _i2$1$[ebp], eax
  0058b	3b 85 58 ff ff
	ff		 cmp	 eax, DWORD PTR _nCnt$1$[ebp]
  00591	0f 8c 7d fe ff
	ff		 jl	 $LL16@SortColumn
  00597	eb 0c		 jmp	 SHORT $LN125@SortColumn
$LN108@SortColumn:

; 789  : 						{
; 790  : 							nMIndex = i2;

  00599	8b 8d 6c ff ff
	ff		 mov	 ecx, DWORD PTR _i2$1$[ebp]
  0059f	89 8d 64 ff ff
	ff		 mov	 DWORD PTR _nMIndex$2$[ebp], ecx
$LN125@SortColumn:

; 824  : 						}
; 825  : 					}
; 826  : 				}
; 827  : 				if(nMIndex!=i1)

  005a5	8b 85 68 ff ff
	ff		 mov	 eax, DWORD PTR _i1$1$[ebp]
  005ab	3b c8		 cmp	 ecx, eax
  005ad	74 4c		 je	 SHORT $LN11@SortColumn

; 857  : 	CJongDataInListCtrl *pData1 = (CJongDataInListCtrl *)GetItemData(nIndex1);

  005af	51		 push	 ecx
  005b0	8b ce		 mov	 ecx, esi
  005b2	e8 00 00 00 00	 call	 ?GetItemData@CXListCtrl@@QAEKH@Z ; CXListCtrl::GetItemData

; 858  : 	CJongDataInListCtrl *pData2 = (CJongDataInListCtrl *)GetItemData(nIndex2);

  005b7	ff b5 68 ff ff
	ff		 push	 DWORD PTR _i1$1$[ebp]
  005bd	8b 8d 50 ff ff
	ff		 mov	 ecx, DWORD PTR _this$GSCopy$1$[ebp]
  005c3	8b f0		 mov	 esi, eax
  005c5	e8 00 00 00 00	 call	 ?GetItemData@CXListCtrl@@QAEKH@Z ; CXListCtrl::GetItemData

; 859  : 	InsertCodeDataLighted(pData1, nIndex2);

  005ca	ff b5 68 ff ff
	ff		 push	 DWORD PTR _i1$1$[ebp]
  005d0	8b f8		 mov	 edi, eax
  005d2	56		 push	 esi
  005d3	8b b5 50 ff ff
	ff		 mov	 esi, DWORD PTR _this$GSCopy$1$[ebp]
  005d9	8b ce		 mov	 ecx, esi
  005db	e8 00 00 00 00	 call	 ?InsertCodeDataLighted@CXListCtrlJongData@@AAEXPAVCJongDataInListCtrl@@H@Z ; CXListCtrlJongData::InsertCodeDataLighted

; 860  : 	InsertCodeDataLighted(pData2, nIndex1);

  005e0	8b 85 64 ff ff
	ff		 mov	 eax, DWORD PTR _nMIndex$2$[ebp]
  005e6	8b ce		 mov	 ecx, esi
  005e8	50		 push	 eax
  005e9	57		 push	 edi
  005ea	e8 00 00 00 00	 call	 ?InsertCodeDataLighted@CXListCtrlJongData@@AAEXPAVCJongDataInListCtrl@@H@Z ; CXListCtrlJongData::InsertCodeDataLighted
  005ef	8b bd 4c ff ff
	ff		 mov	 edi, DWORD PTR _nColumnIndex$GSCopy$1$[ebp]
  005f5	8b 85 68 ff ff
	ff		 mov	 eax, DWORD PTR _i1$1$[ebp]
$LN11@SortColumn:

; 771  : 		else
; 772  : 		{
; 773  : 			for(int i1=0;i1<nCnt;i1++)

  005fb	40		 inc	 eax
  005fc	89 85 68 ff ff
	ff		 mov	 DWORD PTR _i1$1$[ebp], eax
  00602	3b 85 58 ff ff
	ff		 cmp	 eax, DWORD PTR _nCnt$1$[ebp]
  00608	0f 8c c2 fd ff
	ff		 jl	 $LL13@SortColumn
$LN135@SortColumn:

; 828  : 				{
; 829  : 					ReplaceIndex(nMIndex,i1);				
; 830  : 				}	
; 831  : 			}	
; 832  : 		}		
; 833  : 		if(nColumnIndex)

  0060e	8b 4d 0c	 mov	 ecx, DWORD PTR _bSortDecendFirst$[ebp]
$LN12@SortColumn:
  00611	85 ff		 test	 edi, edi
  00613	74 10		 je	 SHORT $LN58@SortColumn

; 834  : 		{
; 835  : 			SetSortImage(nColumnIndex,!bSortDecendFirst);

  00615	33 c0		 xor	 eax, eax
  00617	85 c9		 test	 ecx, ecx
  00619	8b ce		 mov	 ecx, esi
  0061b	0f 94 c0	 sete	 al
  0061e	50		 push	 eax
  0061f	57		 push	 edi
  00620	e8 00 00 00 00	 call	 ?SetSortImage@CXListCtrl@@QAEXHH@Z ; CXListCtrl::SetSortImage
$LN58@SortColumn:

; 836  : 		}
; 837  : 	}

  00625	8d 8d 5c ff ff
	ff		 lea	 ecx, DWORD PTR _strLMPrice$3[ebp]
  0062b	ff 15 00 00 00
	00		 call	 DWORD PTR __imp_??1?$CStringT@DV?$StrTraitMFC_DLL@DV?$ChTraitsCRT@D@ATL@@@@@ATL@@QAE@XZ
  00631	8d 8d 60 ff ff
	ff		 lea	 ecx, DWORD PTR _strPrice$4[ebp]
  00637	ff 15 00 00 00
	00		 call	 DWORD PTR __imp_??1?$CStringT@DV?$StrTraitMFC_DLL@DV?$ChTraitsCRT@D@ATL@@@@@ATL@@QAE@XZ
$LN18@SortColumn:
; File C:\Program Files (x86)\Microsoft Visual Studio\2019\Community\VC\Tools\MSVC\14.29.30133\atlmfc\include\afxwin2.inl

; 114  : 	{ ASSERT(::IsWindow(m_hWnd)); ::InvalidateRect(m_hWnd, NULL, bErase); }

  0063d	6a 01		 push	 1
  0063f	6a 00		 push	 0
  00641	ff 76 20	 push	 DWORD PTR [esi+32]
  00644	ff 15 00 00 00
	00		 call	 DWORD PTR __imp__InvalidateRect@12
; File D:\git\src\IBK\IBK_DRFN\ProjSrc\SrcDrfn\Chart\comparechart\XListCtrlJongData.cpp

; 839  : }

  0064a	8b 4d f4	 mov	 ecx, DWORD PTR __$EHRec$[ebp]
  0064d	64 89 0d 00 00
	00 00		 mov	 DWORD PTR fs:0, ecx
  00654	59		 pop	 ecx
  00655	5f		 pop	 edi
  00656	5e		 pop	 esi
  00657	8b 4d f0	 mov	 ecx, DWORD PTR __$ArrayPad$[ebp]
  0065a	33 cd		 xor	 ecx, ebp
  0065c	e8 00 00 00 00	 call	 @__security_check_cookie@4
  00661	8b e5		 mov	 esp, ebp
  00663	5d		 pop	 ebp
  00664	c2 08 00	 ret	 8
_TEXT	ENDS
;	COMDAT text$x
text$x	SEGMENT
__unwindfunclet$?SortColumns@CXListCtrlJongData@@AAEXHH@Z$0:
  00000	8d 8d 60 ff ff
	ff		 lea	 ecx, DWORD PTR _strPrice$4[ebp]
  00006	ff 25 00 00 00
	00		 jmp	 DWORD PTR __imp_??1?$CStringT@DV?$StrTraitMFC_DLL@DV?$ChTraitsCRT@D@ATL@@@@@ATL@@QAE@XZ
__unwindfunclet$?SortColumns@CXListCtrlJongData@@AAEXHH@Z$1:
  0000c	8d 8d 5c ff ff
	ff		 lea	 ecx, DWORD PTR _strLMPrice$3[ebp]
  00012	ff 25 00 00 00
	00		 jmp	 DWORD PTR __imp_??1?$CStringT@DV?$StrTraitMFC_DLL@DV?$ChTraitsCRT@D@ATL@@@@@ATL@@QAE@XZ
  00018	cc		 int	 3
  00019	cc		 int	 3
  0001a	cc		 int	 3
  0001b	cc		 int	 3
  0001c	cc		 int	 3
__ehhandler$?SortColumns@CXListCtrlJongData@@AAEXHH@Z:
  0001d	90		 npad	 1
  0001e	90		 npad	 1
  0001f	8b 54 24 08	 mov	 edx, DWORD PTR [esp+8]
  00023	8d 42 0c	 lea	 eax, DWORD PTR [edx+12]
  00026	8b 8a 3c ff ff
	ff		 mov	 ecx, DWORD PTR [edx-196]
  0002c	33 c8		 xor	 ecx, eax
  0002e	e8 00 00 00 00	 call	 @__security_check_cookie@4
  00033	8b 4a fc	 mov	 ecx, DWORD PTR [edx-4]
  00036	33 c8		 xor	 ecx, eax
  00038	e8 00 00 00 00	 call	 @__security_check_cookie@4
  0003d	b8 00 00 00 00	 mov	 eax, OFFSET __ehfuncinfo$?SortColumns@CXListCtrlJongData@@AAEXHH@Z
  00042	e9 00 00 00 00	 jmp	 ___CxxFrameHandler3
text$x	ENDS
?SortColumns@CXListCtrlJongData@@AAEXHH@Z ENDP		; CXListCtrlJongData::SortColumns
; Function compile flags: /Ogtp
; File D:\git\src\IBK\IBK_DRFN\ProjSrc\SrcDrfn\Chart\comparechart\XListCtrlJongData.cpp
; File C:\Program Files (x86)\Microsoft Visual Studio\2019\Community\VC\Tools\MSVC\14.29.30133\atlmfc\include\afxcmn.inl
; File D:\git\src\IBK\IBK_DRFN\ProjSrc\SrcDrfn\Chart\comparechart\XListCtrlJongData.cpp
; File C:\Program Files (x86)\Microsoft Visual Studio\2019\Community\VC\Tools\MSVC\14.29.30133\atlmfc\include\afxcmn.inl
; File D:\git\src\IBK\IBK_DRFN\ProjSrc\SrcDrfn\Chart\comparechart\XListCtrlJongData.cpp
;	COMDAT ?SetConfig@CXListCtrlJongData@@AAEXH@Z
_TEXT	SEGMENT
_strAppName$ = -96					; size = 4
_strTemp$ = -92						; size = 4
_strPos$ = -88						; size = 4
tv438 = -84						; size = 4
tv430 = -84						; size = 4
_i$1$ = -84						; size = 4
_i$1$ = -84						; size = 4
_szTemp$ = -80						; size = 64
__$ArrayPad$ = -16					; size = 4
__$EHRec$ = -12						; size = 12
_bLoad$ = 8						; size = 4
?SetConfig@CXListCtrlJongData@@AAEXH@Z PROC		; CXListCtrlJongData::SetConfig, COMDAT
; _this$ = ecx

; 497  : {

  00000	55		 push	 ebp
  00001	8b ec		 mov	 ebp, esp
  00003	6a ff		 push	 -1
  00005	68 00 00 00 00	 push	 __ehhandler$?SetConfig@CXListCtrlJongData@@AAEXH@Z
  0000a	64 a1 00 00 00
	00		 mov	 eax, DWORD PTR fs:0
  00010	50		 push	 eax
  00011	83 ec 54	 sub	 esp, 84			; 00000054H
  00014	a1 00 00 00 00	 mov	 eax, DWORD PTR ___security_cookie
  00019	33 c5		 xor	 eax, ebp
  0001b	89 45 f0	 mov	 DWORD PTR __$ArrayPad$[ebp], eax
  0001e	53		 push	 ebx
  0001f	56		 push	 esi
  00020	57		 push	 edi
  00021	50		 push	 eax
  00022	8d 45 f4	 lea	 eax, DWORD PTR __$EHRec$[ebp]
  00025	64 a3 00 00 00
	00		 mov	 DWORD PTR fs:0, eax
  0002b	8b d9		 mov	 ebx, ecx

; 498  : 	CString strTemp;

  0002d	8d 4d a4	 lea	 ecx, DWORD PTR _strTemp$[ebp]
  00030	ff 15 00 00 00
	00		 call	 DWORD PTR __imp_??0?$CStringT@DV?$StrTraitMFC_DLL@DV?$ChTraitsCRT@D@ATL@@@@@ATL@@QAE@XZ

; 499  : 	char szTemp[64];
; 500  : 	CString strPos;

  00036	8d 4d a8	 lea	 ecx, DWORD PTR _strPos$[ebp]
  00039	c7 45 fc 00 00
	00 00		 mov	 DWORD PTR __$EHRec$[ebp+8], 0
  00040	ff 15 00 00 00
	00		 call	 DWORD PTR __imp_??0?$CStringT@DV?$StrTraitMFC_DLL@DV?$ChTraitsCRT@D@ATL@@@@@ATL@@QAE@XZ

; 501  : 	int nWidth = 0;
; 502  : 	CString strAppName;

  00046	8d 4d a0	 lea	 ecx, DWORD PTR _strAppName$[ebp]
  00049	ff 15 00 00 00
	00		 call	 DWORD PTR __imp_??0?$CStringT@DV?$StrTraitMFC_DLL@DV?$ChTraitsCRT@D@ATL@@@@@ATL@@QAE@XZ

; 503  : 	strAppName.Format("XListCtrlJongData%d",m_nType);

  0004f	ff b3 b8 02 00
	00		 push	 DWORD PTR [ebx+696]
  00055	8b 3d 00 00 00
	00		 mov	 edi, DWORD PTR __imp_?Format@?$CStringT@DV?$StrTraitMFC_DLL@DV?$ChTraitsCRT@D@ATL@@@@@ATL@@QAAXPBDZZ
  0005b	8d 45 a0	 lea	 eax, DWORD PTR _strAppName$[ebp]
  0005e	68 00 00 00 00	 push	 OFFSET ??_C@_0BE@HALNKGCC@XListCtrlJongData?$CFd@
  00063	50		 push	 eax
  00064	c6 45 fc 02	 mov	 BYTE PTR __$EHRec$[ebp+8], 2
  00068	ff d7		 call	 edi
  0006a	83 c4 0c	 add	 esp, 12			; 0000000cH

; 504  : 	if(m_nType==0)

  0006d	83 bb b8 02 00
	00 00		 cmp	 DWORD PTR [ebx+696], 0
  00074	0f 85 0f 01 00
	00		 jne	 $LN14@SetConfig

; 505  : 	{
; 506  : 		if(bLoad)

  0007a	83 7d 08 00	 cmp	 DWORD PTR _bLoad$[ebp], 0
  0007e	0f 84 8f 00 00
	00		 je	 $LN16@SetConfig

; 507  : 		{		
; 508  : 			for (int i = 1; ; i++)
; 509  : 			{
; 510  : 				if (lpszHeadersType0[i] == NULL)

  00084	83 3d 04 00 00
	00 00		 cmp	 DWORD PTR ?lpszHeadersType0@@3PAPADA+4, 0
  0008b	be 01 00 00 00	 mov	 esi, 1
  00090	0f 84 f7 01 00
	00		 je	 $LN72@SetConfig
  00096	c7 45 ac 04 00
	00 00		 mov	 DWORD PTR tv438[ebp], 4
  0009d	0f 1f 00	 npad	 3
$LL4@SetConfig:

; 511  : 					break;
; 512  : 				strPos.Format("%02d",i);

  000a0	56		 push	 esi
  000a1	8d 45 a8	 lea	 eax, DWORD PTR _strPos$[ebp]
  000a4	68 00 00 00 00	 push	 OFFSET ??_C@_04OGKJMPGK@?$CF02d@
  000a9	50		 push	 eax
  000aa	ff d7		 call	 edi

; 513  : 				strTemp.Format("%d",colwidthsType0[i]);

  000ac	8b 45 ac	 mov	 eax, DWORD PTR tv438[ebp]
  000af	ff b0 00 00 00
	00		 push	 DWORD PTR ?colwidthsType0@@3PAHA[eax]
  000b5	8d 45 a4	 lea	 eax, DWORD PTR _strTemp$[ebp]
  000b8	68 00 00 00 00	 push	 OFFSET ??_C@_02DPKJAMEF@?$CFd@
  000bd	50		 push	 eax
  000be	ff d7		 call	 edi

; 514  : 				::GetPrivateProfileString(strAppName,strPos,strTemp,szTemp,sizeof(szTemp),m_pLeftBarDlg->m_strConfig);

  000c0	8b 83 b4 02 00
	00		 mov	 eax, DWORD PTR [ebx+692]
  000c6	83 c4 18	 add	 esp, 24			; 00000018H
  000c9	ff b0 08 09 00
	00		 push	 DWORD PTR [eax+2312]
  000cf	8d 45 b0	 lea	 eax, DWORD PTR _szTemp$[ebp]
  000d2	6a 40		 push	 64			; 00000040H
  000d4	50		 push	 eax
  000d5	ff 75 a4	 push	 DWORD PTR _strTemp$[ebp]
  000d8	ff 75 a8	 push	 DWORD PTR _strPos$[ebp]
  000db	ff 75 a0	 push	 DWORD PTR _strAppName$[ebp]
  000de	ff 15 00 00 00
	00		 call	 DWORD PTR __imp__GetPrivateProfileStringA@24

; 515  : 				colwidthsType0[i] = atoi(szTemp);

  000e4	8d 45 b0	 lea	 eax, DWORD PTR _szTemp$[ebp]
  000e7	50		 push	 eax
  000e8	ff 15 00 00 00
	00		 call	 DWORD PTR __imp__atoi
  000ee	8b 4d ac	 mov	 ecx, DWORD PTR tv438[ebp]
  000f1	46		 inc	 esi
  000f2	83 c4 04	 add	 esp, 4
  000f5	89 81 00 00 00
	00		 mov	 DWORD PTR ?colwidthsType0@@3PAHA[ecx], eax
  000fb	8d 04 b5 00 00
	00 00		 lea	 eax, DWORD PTR [esi*4]
  00102	83 b8 00 00 00
	00 00		 cmp	 DWORD PTR ?lpszHeadersType0@@3PAPADA[eax], 0
  00109	89 45 ac	 mov	 DWORD PTR tv438[ebp], eax
  0010c	75 92		 jne	 SHORT $LL4@SetConfig

; 516  : 			}
; 517  : 		}

  0010e	e9 7a 01 00 00	 jmp	 $LN72@SetConfig
$LN16@SetConfig:

; 518  : 		else
; 519  : 		{
; 520  : 			for(int i = 1; ; i++)
; 521  : 			{
; 522  : 				if (lpszHeadersType0[i] == NULL)

  00113	83 3d 04 00 00
	00 00		 cmp	 DWORD PTR ?lpszHeadersType0@@3PAPADA+4, 0
  0011a	b8 01 00 00 00	 mov	 eax, 1
  0011f	89 45 ac	 mov	 DWORD PTR _i$1$[ebp], eax
  00122	0f 84 65 01 00
	00		 je	 $LN72@SetConfig
$LL7@SetConfig:
; File C:\Program Files (x86)\Microsoft Visual Studio\2019\Community\VC\Tools\MSVC\14.29.30133\atlmfc\include\afxcmn.inl

; 213  : 	{ ASSERT(::IsWindow(m_hWnd)); return (int) ::SendMessage(m_hWnd, LVM_GETCOLUMNWIDTH, nCol, 0); }

  00128	6a 00		 push	 0
  0012a	50		 push	 eax
  0012b	68 1d 10 00 00	 push	 4125			; 0000101dH
  00130	ff 73 20	 push	 DWORD PTR [ebx+32]
  00133	ff 15 00 00 00
	00		 call	 DWORD PTR __imp__SendMessageA@16
; File D:\git\src\IBK\IBK_DRFN\ProjSrc\SrcDrfn\Chart\comparechart\XListCtrlJongData.cpp

; 525  : 				strPos.Format("%02d",i);

  00139	ff 75 ac	 push	 DWORD PTR _i$1$[ebp]
  0013c	8b f0		 mov	 esi, eax
  0013e	8d 45 a8	 lea	 eax, DWORD PTR _strPos$[ebp]
  00141	68 00 00 00 00	 push	 OFFSET ??_C@_04OGKJMPGK@?$CF02d@
  00146	50		 push	 eax
  00147	ff d7		 call	 edi

; 526  : 				strTemp.Format("%d",nWidth);

  00149	56		 push	 esi
  0014a	8d 45 a4	 lea	 eax, DWORD PTR _strTemp$[ebp]
  0014d	68 00 00 00 00	 push	 OFFSET ??_C@_02DPKJAMEF@?$CFd@
  00152	50		 push	 eax
  00153	ff d7		 call	 edi

; 527  : 				::WritePrivateProfileString(strAppName,strPos,strTemp,m_pLeftBarDlg->m_strConfig);

  00155	8b 83 b4 02 00
	00		 mov	 eax, DWORD PTR [ebx+692]
  0015b	83 c4 18	 add	 esp, 24			; 00000018H
  0015e	ff b0 08 09 00
	00		 push	 DWORD PTR [eax+2312]
  00164	ff 75 a4	 push	 DWORD PTR _strTemp$[ebp]
  00167	ff 75 a8	 push	 DWORD PTR _strPos$[ebp]
  0016a	ff 75 a0	 push	 DWORD PTR _strAppName$[ebp]
  0016d	ff 15 00 00 00
	00		 call	 DWORD PTR __imp__WritePrivateProfileStringA@16
  00173	8b 45 ac	 mov	 eax, DWORD PTR _i$1$[ebp]
  00176	40		 inc	 eax
  00177	89 45 ac	 mov	 DWORD PTR _i$1$[ebp], eax
  0017a	83 3c 85 00 00
	00 00 00	 cmp	 DWORD PTR ?lpszHeadersType0@@3PAPADA[eax*4], 0
  00182	75 a4		 jne	 SHORT $LL7@SetConfig

; 528  : 			}
; 529  : 		}
; 530  : 	}

  00184	e9 04 01 00 00	 jmp	 $LN72@SetConfig
$LN14@SetConfig:

; 531  : 	else
; 532  : 	{
; 533  : 		if(bLoad)

  00189	83 7d 08 00	 cmp	 DWORD PTR _bLoad$[ebp], 0
  0018d	0f 84 8d 00 00
	00		 je	 $LN20@SetConfig

; 534  : 		{		
; 535  : 			for (int i = 1; ; i++)
; 536  : 			{
; 537  : 				if (lpszHeadersType1[i] == NULL)

  00193	83 3d 04 00 00
	00 00		 cmp	 DWORD PTR ?lpszHeadersType1@@3PAPADA+4, 0
  0019a	be 01 00 00 00	 mov	 esi, 1
  0019f	0f 84 e8 00 00
	00		 je	 $LN72@SetConfig
  001a5	c7 45 ac 04 00
	00 00		 mov	 DWORD PTR tv430[ebp], 4
  001ac	0f 1f 40 00	 npad	 4
$LL10@SetConfig:

; 538  : 					break;
; 539  : 				strPos.Format("%02d",i);

  001b0	56		 push	 esi
  001b1	8d 45 a8	 lea	 eax, DWORD PTR _strPos$[ebp]
  001b4	68 00 00 00 00	 push	 OFFSET ??_C@_04OGKJMPGK@?$CF02d@
  001b9	50		 push	 eax
  001ba	ff d7		 call	 edi

; 540  : 				strTemp.Format("%d",colwidthsType1[i]);

  001bc	8b 45 ac	 mov	 eax, DWORD PTR tv430[ebp]
  001bf	ff b0 00 00 00
	00		 push	 DWORD PTR ?colwidthsType1@@3PAHA[eax]
  001c5	8d 45 a4	 lea	 eax, DWORD PTR _strTemp$[ebp]
  001c8	68 00 00 00 00	 push	 OFFSET ??_C@_02DPKJAMEF@?$CFd@
  001cd	50		 push	 eax
  001ce	ff d7		 call	 edi

; 541  : 				::GetPrivateProfileString(strAppName,strPos,strTemp,szTemp,sizeof(szTemp),m_pLeftBarDlg->m_strConfig);

  001d0	8b 83 b4 02 00
	00		 mov	 eax, DWORD PTR [ebx+692]
  001d6	83 c4 18	 add	 esp, 24			; 00000018H
  001d9	ff b0 08 09 00
	00		 push	 DWORD PTR [eax+2312]
  001df	8d 45 b0	 lea	 eax, DWORD PTR _szTemp$[ebp]
  001e2	6a 40		 push	 64			; 00000040H
  001e4	50		 push	 eax
  001e5	ff 75 a4	 push	 DWORD PTR _strTemp$[ebp]
  001e8	ff 75 a8	 push	 DWORD PTR _strPos$[ebp]
  001eb	ff 75 a0	 push	 DWORD PTR _strAppName$[ebp]
  001ee	ff 15 00 00 00
	00		 call	 DWORD PTR __imp__GetPrivateProfileStringA@24

; 542  : 				colwidthsType1[i] = atoi(szTemp);

  001f4	8d 45 b0	 lea	 eax, DWORD PTR _szTemp$[ebp]
  001f7	50		 push	 eax
  001f8	ff 15 00 00 00
	00		 call	 DWORD PTR __imp__atoi
  001fe	8b 4d ac	 mov	 ecx, DWORD PTR tv430[ebp]
  00201	46		 inc	 esi
  00202	83 c4 04	 add	 esp, 4
  00205	89 81 00 00 00
	00		 mov	 DWORD PTR ?colwidthsType1@@3PAHA[ecx], eax
  0020b	8d 04 b5 00 00
	00 00		 lea	 eax, DWORD PTR [esi*4]
  00212	83 b8 00 00 00
	00 00		 cmp	 DWORD PTR ?lpszHeadersType1@@3PAPADA[eax], 0
  00219	89 45 ac	 mov	 DWORD PTR tv430[ebp], eax
  0021c	75 92		 jne	 SHORT $LL10@SetConfig

; 543  : 			}
; 544  : 		}

  0021e	eb 6d		 jmp	 SHORT $LN72@SetConfig
$LN20@SetConfig:

; 545  : 		else
; 546  : 		{
; 547  : 			for(int i = 1; ; i++)
; 548  : 			{
; 549  : 				if (lpszHeadersType1[i] == NULL)

  00220	83 3d 04 00 00
	00 00		 cmp	 DWORD PTR ?lpszHeadersType1@@3PAPADA+4, 0
  00227	b8 01 00 00 00	 mov	 eax, 1
  0022c	89 45 ac	 mov	 DWORD PTR _i$1$[ebp], eax
  0022f	74 5c		 je	 SHORT $LN72@SetConfig
$LL13@SetConfig:
; File C:\Program Files (x86)\Microsoft Visual Studio\2019\Community\VC\Tools\MSVC\14.29.30133\atlmfc\include\afxcmn.inl

; 213  : 	{ ASSERT(::IsWindow(m_hWnd)); return (int) ::SendMessage(m_hWnd, LVM_GETCOLUMNWIDTH, nCol, 0); }

  00231	6a 00		 push	 0
  00233	50		 push	 eax
  00234	68 1d 10 00 00	 push	 4125			; 0000101dH
  00239	ff 73 20	 push	 DWORD PTR [ebx+32]
  0023c	ff 15 00 00 00
	00		 call	 DWORD PTR __imp__SendMessageA@16
; File D:\git\src\IBK\IBK_DRFN\ProjSrc\SrcDrfn\Chart\comparechart\XListCtrlJongData.cpp

; 552  : 				strPos.Format("%02d",i);

  00242	ff 75 ac	 push	 DWORD PTR _i$1$[ebp]
  00245	8b f0		 mov	 esi, eax
  00247	8d 45 a8	 lea	 eax, DWORD PTR _strPos$[ebp]
  0024a	68 00 00 00 00	 push	 OFFSET ??_C@_04OGKJMPGK@?$CF02d@
  0024f	50		 push	 eax
  00250	ff d7		 call	 edi

; 553  : 				strTemp.Format("%d",nWidth);

  00252	56		 push	 esi
  00253	8d 45 a4	 lea	 eax, DWORD PTR _strTemp$[ebp]
  00256	68 00 00 00 00	 push	 OFFSET ??_C@_02DPKJAMEF@?$CFd@
  0025b	50		 push	 eax
  0025c	ff d7		 call	 edi

; 554  : 				::WritePrivateProfileString(strAppName,strPos,strTemp,m_pLeftBarDlg->m_strConfig);

  0025e	8b 83 b4 02 00
	00		 mov	 eax, DWORD PTR [ebx+692]
  00264	83 c4 18	 add	 esp, 24			; 00000018H
  00267	ff b0 08 09 00
	00		 push	 DWORD PTR [eax+2312]
  0026d	ff 75 a4	 push	 DWORD PTR _strTemp$[ebp]
  00270	ff 75 a8	 push	 DWORD PTR _strPos$[ebp]
  00273	ff 75 a0	 push	 DWORD PTR _strAppName$[ebp]
  00276	ff 15 00 00 00
	00		 call	 DWORD PTR __imp__WritePrivateProfileStringA@16
  0027c	8b 45 ac	 mov	 eax, DWORD PTR _i$1$[ebp]
  0027f	40		 inc	 eax
  00280	89 45 ac	 mov	 DWORD PTR _i$1$[ebp], eax
  00283	83 3c 85 00 00
	00 00 00	 cmp	 DWORD PTR ?lpszHeadersType1@@3PAPADA[eax*4], 0
  0028b	75 a4		 jne	 SHORT $LL13@SetConfig
$LN72@SetConfig:

; 555  : 			}
; 556  : 		}
; 557  : 	}
; 558  : }

  0028d	8d 4d a0	 lea	 ecx, DWORD PTR _strAppName$[ebp]
  00290	ff 15 00 00 00
	00		 call	 DWORD PTR __imp_??1?$CStringT@DV?$StrTraitMFC_DLL@DV?$ChTraitsCRT@D@ATL@@@@@ATL@@QAE@XZ
  00296	8d 4d a8	 lea	 ecx, DWORD PTR _strPos$[ebp]
  00299	ff 15 00 00 00
	00		 call	 DWORD PTR __imp_??1?$CStringT@DV?$StrTraitMFC_DLL@DV?$ChTraitsCRT@D@ATL@@@@@ATL@@QAE@XZ
  0029f	8d 4d a4	 lea	 ecx, DWORD PTR _strTemp$[ebp]
  002a2	ff 15 00 00 00
	00		 call	 DWORD PTR __imp_??1?$CStringT@DV?$StrTraitMFC_DLL@DV?$ChTraitsCRT@D@ATL@@@@@ATL@@QAE@XZ
  002a8	8b 4d f4	 mov	 ecx, DWORD PTR __$EHRec$[ebp]
  002ab	64 89 0d 00 00
	00 00		 mov	 DWORD PTR fs:0, ecx
  002b2	59		 pop	 ecx
  002b3	5f		 pop	 edi
  002b4	5e		 pop	 esi
  002b5	5b		 pop	 ebx
  002b6	8b 4d f0	 mov	 ecx, DWORD PTR __$ArrayPad$[ebp]
  002b9	33 cd		 xor	 ecx, ebp
  002bb	e8 00 00 00 00	 call	 @__security_check_cookie@4
  002c0	8b e5		 mov	 esp, ebp
  002c2	5d		 pop	 ebp
  002c3	c2 04 00	 ret	 4
_TEXT	ENDS
;	COMDAT text$x
text$x	SEGMENT
__unwindfunclet$?SetConfig@CXListCtrlJongData@@AAEXH@Z$0:
  00000	8d 4d a4	 lea	 ecx, DWORD PTR _strTemp$[ebp]
  00003	ff 25 00 00 00
	00		 jmp	 DWORD PTR __imp_??1?$CStringT@DV?$StrTraitMFC_DLL@DV?$ChTraitsCRT@D@ATL@@@@@ATL@@QAE@XZ
__unwindfunclet$?SetConfig@CXListCtrlJongData@@AAEXH@Z$1:
  00009	8d 4d a8	 lea	 ecx, DWORD PTR _strPos$[ebp]
  0000c	ff 25 00 00 00
	00		 jmp	 DWORD PTR __imp_??1?$CStringT@DV?$StrTraitMFC_DLL@DV?$ChTraitsCRT@D@ATL@@@@@ATL@@QAE@XZ
__unwindfunclet$?SetConfig@CXListCtrlJongData@@AAEXH@Z$2:
  00012	8d 4d a0	 lea	 ecx, DWORD PTR _strAppName$[ebp]
  00015	ff 25 00 00 00
	00		 jmp	 DWORD PTR __imp_??1?$CStringT@DV?$StrTraitMFC_DLL@DV?$ChTraitsCRT@D@ATL@@@@@ATL@@QAE@XZ
  0001b	cc		 int	 3
  0001c	cc		 int	 3
  0001d	cc		 int	 3
  0001e	cc		 int	 3
  0001f	cc		 int	 3
__ehhandler$?SetConfig@CXListCtrlJongData@@AAEXH@Z:
  00020	90		 npad	 1
  00021	90		 npad	 1
  00022	8b 54 24 08	 mov	 edx, DWORD PTR [esp+8]
  00026	8d 42 0c	 lea	 eax, DWORD PTR [edx+12]
  00029	8b 4a 9c	 mov	 ecx, DWORD PTR [edx-100]
  0002c	33 c8		 xor	 ecx, eax
  0002e	e8 00 00 00 00	 call	 @__security_check_cookie@4
  00033	8b 4a fc	 mov	 ecx, DWORD PTR [edx-4]
  00036	33 c8		 xor	 ecx, eax
  00038	e8 00 00 00 00	 call	 @__security_check_cookie@4
  0003d	b8 00 00 00 00	 mov	 eax, OFFSET __ehfuncinfo$?SetConfig@CXListCtrlJongData@@AAEXH@Z
  00042	e9 00 00 00 00	 jmp	 ___CxxFrameHandler3
text$x	ENDS
?SetConfig@CXListCtrlJongData@@AAEXH@Z ENDP		; CXListCtrlJongData::SetConfig
; Function compile flags: /Ogtp
; File D:\git\src\IBK\IBK_DRFN\ProjSrc\SrcDrfn\Chart\comparechart\XListCtrlJongData.cpp
; File C:\Program Files (x86)\Microsoft Visual Studio\2019\Community\VC\Tools\MSVC\14.29.30133\atlmfc\include\afxcmn2.inl
; File D:\git\src\IBK\IBK_DRFN\ProjSrc\SrcDrfn\Chart\comparechart\XListCtrlJongData.cpp
; File C:\Program Files (x86)\Microsoft Visual Studio\2019\Community\VC\Tools\MSVC\14.29.30133\atlmfc\include\afxcmn2.inl
; File D:\git\src\IBK\IBK_DRFN\ProjSrc\SrcDrfn\Chart\comparechart\XListCtrlJongData.cpp
; File C:\Program Files (x86)\Microsoft Visual Studio\2019\Community\VC\Tools\MSVC\14.29.30133\atlmfc\include\afxcmn2.inl
; File D:\git\src\IBK\IBK_DRFN\ProjSrc\SrcDrfn\Chart\comparechart\XListCtrlJongData.cpp
; File C:\Program Files (x86)\Microsoft Visual Studio\2019\Community\VC\Tools\MSVC\14.29.30133\atlmfc\include\afxcmn.inl
; File D:\git\src\IBK\IBK_DRFN\ProjSrc\SrcDrfn\Chart\comparechart\XListCtrlJongData.cpp
; File C:\Program Files (x86)\Microsoft Visual Studio\2019\Community\VC\Tools\MSVC\14.29.30133\atlmfc\include\afxcmn.inl
; File D:\git\src\IBK\IBK_DRFN\ProjSrc\SrcDrfn\Chart\comparechart\XListCtrlJongData.cpp
; File C:\Program Files (x86)\Microsoft Visual Studio\2019\Community\VC\Tools\MSVC\14.29.30133\atlmfc\include\afxcmn.inl
; File D:\git\src\IBK\IBK_DRFN\ProjSrc\SrcDrfn\Chart\comparechart\XListCtrlJongData.cpp
; File C:\Program Files (x86)\Microsoft Visual Studio\2019\Community\VC\Tools\MSVC\14.29.30133\atlmfc\include\afxcmn.inl
; File D:\git\src\IBK\IBK_DRFN\ProjSrc\SrcDrfn\Chart\comparechart\XListCtrlJongData.cpp
;	COMDAT ?InitColumns@CXListCtrlJongData@@AAEXXZ
_TEXT	SEGMENT
_lvcolumn$ = -44					; size = 44
?InitColumns@CXListCtrlJongData@@AAEXXZ PROC		; CXListCtrlJongData::InitColumns, COMDAT
; _this$ = ecx

; 129  : {

  00000	55		 push	 ebp
  00001	8b ec		 mov	 ebp, esp
  00003	83 ec 2c	 sub	 esp, 44			; 0000002cH
  00006	53		 push	 ebx
; File C:\Program Files (x86)\Microsoft Visual Studio\2019\Community\VC\Tools\MSVC\14.29.30133\atlmfc\include\afxcmn2.inl

; 117  : 	{ ASSERT(::IsWindow(m_hWnd)); return (DWORD) ::SendMessage(m_hWnd, LVM_SETEXTENDEDLISTVIEWSTYLE, 0, (LPARAM) dwNewStyle); }

  00007	8b 1d 00 00 00
	00		 mov	 ebx, DWORD PTR __imp__SendMessageA@16
; File D:\git\src\IBK\IBK_DRFN\ProjSrc\SrcDrfn\Chart\comparechart\XListCtrlJongData.cpp

; 129  : {

  0000d	56		 push	 esi
  0000e	57		 push	 edi
; File C:\Program Files (x86)\Microsoft Visual Studio\2019\Community\VC\Tools\MSVC\14.29.30133\atlmfc\include\afxcmn2.inl

; 117  : 	{ ASSERT(::IsWindow(m_hWnd)); return (DWORD) ::SendMessage(m_hWnd, LVM_SETEXTENDEDLISTVIEWSTYLE, 0, (LPARAM) dwNewStyle); }

  0000f	6a 20		 push	 32			; 00000020H
; File D:\git\src\IBK\IBK_DRFN\ProjSrc\SrcDrfn\Chart\comparechart\XListCtrlJongData.cpp

; 129  : {

  00011	8b f9		 mov	 edi, ecx
; File C:\Program Files (x86)\Microsoft Visual Studio\2019\Community\VC\Tools\MSVC\14.29.30133\atlmfc\include\afxcmn2.inl

; 117  : 	{ ASSERT(::IsWindow(m_hWnd)); return (DWORD) ::SendMessage(m_hWnd, LVM_SETEXTENDEDLISTVIEWSTYLE, 0, (LPARAM) dwNewStyle); }

  00013	6a 00		 push	 0
  00015	68 36 10 00 00	 push	 4150			; 00001036H
  0001a	ff 77 20	 push	 DWORD PTR [edi+32]
  0001d	ff d3		 call	 ebx
  0001f	0f 57 c0	 xorps	 xmm0, xmm0
; File D:\git\src\IBK\IBK_DRFN\ProjSrc\SrcDrfn\Chart\comparechart\XListCtrlJongData.cpp

; 136  : 	memset(&lvcolumn, 0, sizeof(lvcolumn));

  00022	c7 45 fc 00 00
	00 00		 mov	 DWORD PTR _lvcolumn$[ebp+40], 0

; 137  : 
; 138  : 	if(m_nType==0)

  00029	33 f6		 xor	 esi, esi
  0002b	66 0f 13 45 e0	 movlpd	 QWORD PTR _lvcolumn$[ebp+12], xmm0
  00030	66 0f 13 45 ec	 movlpd	 QWORD PTR _lvcolumn$[ebp+24], xmm0
  00035	66 0f 13 45 f4	 movlpd	 QWORD PTR _lvcolumn$[ebp+32], xmm0
  0003a	39 b7 b8 02 00
	00		 cmp	 DWORD PTR [edi+696], esi
  00040	0f 85 b4 00 00
	00		 jne	 $LN14@InitColumn

; 142  : 		{
; 143  : 			if (lpszHeadersType0[i] == NULL)

  00046	8b 0d 00 00 00
	00		 mov	 ecx, DWORD PTR ?lpszHeadersType0@@3PAPADA
  0004c	85 c9		 test	 ecx, ecx
  0004e	74 4a		 je	 SHORT $LN36@InitColumn
  00050	33 d2		 xor	 edx, edx
$LL4@InitColumn:

; 144  : 				break;
; 145  : 			lvcolumn.mask = LVCF_FMT | LVCF_SUBITEM | LVCF_TEXT | LVCF_WIDTH;
; 146  : 			lvcolumn.fmt = i>1 ? LVCFMT_RIGHT:LVCFMT_LEFT;

  00052	33 c0		 xor	 eax, eax
  00054	c7 45 d4 0f 00
	00 00		 mov	 DWORD PTR _lvcolumn$[ebp], 15 ; 0000000fH
  0005b	83 fe 01	 cmp	 esi, 1

; 147  : 			lvcolumn.pszText = lpszHeadersType0[i];

  0005e	89 4d e0	 mov	 DWORD PTR _lvcolumn$[ebp+12], ecx

; 148  : 			lvcolumn.iSubItem = i;

  00061	89 75 e8	 mov	 DWORD PTR _lvcolumn$[ebp+20], esi
  00064	0f 9f c0	 setg	 al
  00067	89 45 d8	 mov	 DWORD PTR _lvcolumn$[ebp+4], eax

; 149  : 			lvcolumn.cx = colwidthsType0[i];

  0006a	8b 82 00 00 00
	00		 mov	 eax, DWORD PTR ?colwidthsType0@@3PAHA[edx]
  00070	89 45 dc	 mov	 DWORD PTR _lvcolumn$[ebp+8], eax
; File C:\Program Files (x86)\Microsoft Visual Studio\2019\Community\VC\Tools\MSVC\14.29.30133\atlmfc\include\afxcmn.inl

; 209  : 	{ ASSERT(::IsWindow(m_hWnd)); return (int) ::SendMessage(m_hWnd, LVM_INSERTCOLUMN, nCol, (LPARAM)pColumn); }

  00073	8d 45 d4	 lea	 eax, DWORD PTR _lvcolumn$[ebp]
  00076	50		 push	 eax
  00077	56		 push	 esi
  00078	68 1b 10 00 00	 push	 4123			; 0000101bH
  0007d	ff 77 20	 push	 DWORD PTR [edi+32]
  00080	ff d3		 call	 ebx
; File D:\git\src\IBK\IBK_DRFN\ProjSrc\SrcDrfn\Chart\comparechart\XListCtrlJongData.cpp

; 141  : 		for (i = 0; ; i++)

  00082	46		 inc	 esi

; 142  : 		{
; 143  : 			if (lpszHeadersType0[i] == NULL)

  00083	8d 14 b5 00 00
	00 00		 lea	 edx, DWORD PTR [esi*4]
  0008a	8b 8a 00 00 00
	00		 mov	 ecx, DWORD PTR ?lpszHeadersType0@@3PAPADA[edx]
  00090	85 c9		 test	 ecx, ecx
  00092	75 be		 jne	 SHORT $LL4@InitColumn
  00094	8b 0d 00 00 00
	00		 mov	 ecx, DWORD PTR ?lpszHeadersType0@@3PAPADA
$LN36@InitColumn:
  0009a	0f 57 c0	 xorps	 xmm0, xmm0

; 150  : 			total_cx += lvcolumn.cx;
; 151  : 			InsertColumn(i, &lvcolumn);
; 152  : 		}
; 153  : 		// iterate through header items and attach the image list
; 154  : 		memset(&lvcolumn, 0, sizeof(lvcolumn));

  0009d	c7 45 e4 00 00
	00 00		 mov	 DWORD PTR _lvcolumn$[ebp+16], 0

; 156  : 		for (i = 0; ; i++)

  000a4	33 f6		 xor	 esi, esi
  000a6	66 0f 13 45 dc	 movlpd	 QWORD PTR _lvcolumn$[ebp+8], xmm0
  000ab	66 0f 13 45 ec	 movlpd	 QWORD PTR _lvcolumn$[ebp+24], xmm0
  000b0	66 0f 13 45 f4	 movlpd	 QWORD PTR _lvcolumn$[ebp+32], xmm0
  000b5	c7 45 fc 00 00
	00 00		 mov	 DWORD PTR _lvcolumn$[ebp+40], 0

; 157  : 		{
; 158  : 			if (lpszHeadersType0[i] == NULL)

  000bc	85 c9		 test	 ecx, ecx
  000be	0f 84 eb 00 00
	00		 je	 $LN39@InitColumn
$LL7@InitColumn:

; 159  : 				break;
; 160  : 			lvcolumn.mask = LVCF_FMT | LVCF_SUBITEM;
; 161  : 			lvcolumn.fmt = i>1 ? LVCFMT_RIGHT:LVCFMT_LEFT;

  000c4	33 c0		 xor	 eax, eax
  000c6	c7 45 d4 09 00
	00 00		 mov	 DWORD PTR _lvcolumn$[ebp], 9
  000cd	83 fe 01	 cmp	 esi, 1

; 162  : 			lvcolumn.iSubItem = i;

  000d0	89 75 e8	 mov	 DWORD PTR _lvcolumn$[ebp+20], esi
  000d3	0f 9f c0	 setg	 al
  000d6	89 45 d8	 mov	 DWORD PTR _lvcolumn$[ebp+4], eax
; File C:\Program Files (x86)\Microsoft Visual Studio\2019\Community\VC\Tools\MSVC\14.29.30133\atlmfc\include\afxcmn.inl

; 207  : 	{ ASSERT(::IsWindow(m_hWnd)); return (BOOL) ::SendMessage(m_hWnd, LVM_SETCOLUMN, nCol, (LPARAM)pColumn); }

  000d9	8d 45 d4	 lea	 eax, DWORD PTR _lvcolumn$[ebp]
  000dc	50		 push	 eax
  000dd	56		 push	 esi
  000de	68 1a 10 00 00	 push	 4122			; 0000101aH
  000e3	ff 77 20	 push	 DWORD PTR [edi+32]
  000e6	ff d3		 call	 ebx
; File D:\git\src\IBK\IBK_DRFN\ProjSrc\SrcDrfn\Chart\comparechart\XListCtrlJongData.cpp

; 156  : 		for (i = 0; ; i++)

  000e8	46		 inc	 esi

; 157  : 		{
; 158  : 			if (lpszHeadersType0[i] == NULL)

  000e9	83 3c b5 00 00
	00 00 00	 cmp	 DWORD PTR ?lpszHeadersType0@@3PAPADA[esi*4], 0
  000f1	75 d1		 jne	 SHORT $LL7@InitColumn

; 191  : 			SetColumn(i, &lvcolumn);
; 192  : 		}	
; 193  : 
; 194  : 	}
; 195  : }

  000f3	5f		 pop	 edi
  000f4	5e		 pop	 esi
  000f5	5b		 pop	 ebx
  000f6	8b e5		 mov	 esp, ebp
  000f8	5d		 pop	 ebp
  000f9	c3		 ret	 0
$LN14@InitColumn:

; 170  : 		{
; 171  : 			if (lpszHeadersType1[i] == NULL)

  000fa	8b 0d 00 00 00
	00		 mov	 ecx, DWORD PTR ?lpszHeadersType1@@3PAPADA
  00100	85 c9		 test	 ecx, ecx
  00102	74 54		 je	 SHORT $LN38@InitColumn
  00104	33 d2		 xor	 edx, edx
  00106	66 66 0f 1f 84
	00 00 00 00 00	 npad	 10
$LL10@InitColumn:

; 172  : 				break;
; 173  : 			lvcolumn.mask = LVCF_FMT | LVCF_SUBITEM | LVCF_TEXT | LVCF_WIDTH;
; 174  : 			lvcolumn.fmt = i!=2 ? LVCFMT_RIGHT:LVCFMT_LEFT;

  00110	33 c0		 xor	 eax, eax
  00112	c7 45 d4 0f 00
	00 00		 mov	 DWORD PTR _lvcolumn$[ebp], 15 ; 0000000fH
  00119	83 fe 02	 cmp	 esi, 2

; 175  : 			lvcolumn.pszText = lpszHeadersType1[i];

  0011c	89 4d e0	 mov	 DWORD PTR _lvcolumn$[ebp+12], ecx

; 176  : 			lvcolumn.iSubItem = i;

  0011f	89 75 e8	 mov	 DWORD PTR _lvcolumn$[ebp+20], esi
  00122	0f 95 c0	 setne	 al
  00125	89 45 d8	 mov	 DWORD PTR _lvcolumn$[ebp+4], eax

; 177  : 			lvcolumn.cx = colwidthsType1[i];

  00128	8b 82 00 00 00
	00		 mov	 eax, DWORD PTR ?colwidthsType1@@3PAHA[edx]
  0012e	89 45 dc	 mov	 DWORD PTR _lvcolumn$[ebp+8], eax
; File C:\Program Files (x86)\Microsoft Visual Studio\2019\Community\VC\Tools\MSVC\14.29.30133\atlmfc\include\afxcmn.inl

; 209  : 	{ ASSERT(::IsWindow(m_hWnd)); return (int) ::SendMessage(m_hWnd, LVM_INSERTCOLUMN, nCol, (LPARAM)pColumn); }

  00131	8d 45 d4	 lea	 eax, DWORD PTR _lvcolumn$[ebp]
  00134	50		 push	 eax
  00135	56		 push	 esi
  00136	68 1b 10 00 00	 push	 4123			; 0000101bH
  0013b	ff 77 20	 push	 DWORD PTR [edi+32]
  0013e	ff d3		 call	 ebx
; File D:\git\src\IBK\IBK_DRFN\ProjSrc\SrcDrfn\Chart\comparechart\XListCtrlJongData.cpp

; 169  : 		for (i = 0; ; i++)

  00140	46		 inc	 esi

; 170  : 		{
; 171  : 			if (lpszHeadersType1[i] == NULL)

  00141	8d 14 b5 00 00
	00 00		 lea	 edx, DWORD PTR [esi*4]
  00148	8b 8a 00 00 00
	00		 mov	 ecx, DWORD PTR ?lpszHeadersType1@@3PAPADA[edx]
  0014e	85 c9		 test	 ecx, ecx
  00150	75 be		 jne	 SHORT $LL10@InitColumn
  00152	8b 0d 00 00 00
	00		 mov	 ecx, DWORD PTR ?lpszHeadersType1@@3PAPADA
$LN38@InitColumn:
  00158	0f 57 c0	 xorps	 xmm0, xmm0

; 178  : 			total_cx += lvcolumn.cx;
; 179  : 			InsertColumn(i, &lvcolumn);
; 180  : 		}
; 181  : 		// iterate through header items and attach the image list
; 182  : 		memset(&lvcolumn, 0, sizeof(lvcolumn));

  0015b	c7 45 e4 00 00
	00 00		 mov	 DWORD PTR _lvcolumn$[ebp+16], 0

; 184  : 		for (i = 0; ; i++)

  00162	33 f6		 xor	 esi, esi
  00164	66 0f 13 45 dc	 movlpd	 QWORD PTR _lvcolumn$[ebp+8], xmm0
  00169	66 0f 13 45 ec	 movlpd	 QWORD PTR _lvcolumn$[ebp+24], xmm0
  0016e	66 0f 13 45 f4	 movlpd	 QWORD PTR _lvcolumn$[ebp+32], xmm0
  00173	c7 45 fc 00 00
	00 00		 mov	 DWORD PTR _lvcolumn$[ebp+40], 0

; 185  : 		{
; 186  : 			if (lpszHeadersType1[i] == NULL)

  0017a	85 c9		 test	 ecx, ecx
  0017c	74 31		 je	 SHORT $LN39@InitColumn
  0017e	66 90		 npad	 2
$LL13@InitColumn:

; 187  : 				break;
; 188  : 			lvcolumn.mask = LVCF_FMT | LVCF_SUBITEM;
; 189  : 			lvcolumn.fmt = i!=2 ? LVCFMT_RIGHT:LVCFMT_LEFT;

  00180	33 c0		 xor	 eax, eax
  00182	c7 45 d4 09 00
	00 00		 mov	 DWORD PTR _lvcolumn$[ebp], 9
  00189	83 fe 02	 cmp	 esi, 2

; 190  : 			lvcolumn.iSubItem = i;

  0018c	89 75 e8	 mov	 DWORD PTR _lvcolumn$[ebp+20], esi
  0018f	0f 95 c0	 setne	 al
  00192	89 45 d8	 mov	 DWORD PTR _lvcolumn$[ebp+4], eax
; File C:\Program Files (x86)\Microsoft Visual Studio\2019\Community\VC\Tools\MSVC\14.29.30133\atlmfc\include\afxcmn.inl

; 207  : 	{ ASSERT(::IsWindow(m_hWnd)); return (BOOL) ::SendMessage(m_hWnd, LVM_SETCOLUMN, nCol, (LPARAM)pColumn); }

  00195	8d 45 d4	 lea	 eax, DWORD PTR _lvcolumn$[ebp]
  00198	50		 push	 eax
  00199	56		 push	 esi
  0019a	68 1a 10 00 00	 push	 4122			; 0000101aH
  0019f	ff 77 20	 push	 DWORD PTR [edi+32]
  001a2	ff d3		 call	 ebx
; File D:\git\src\IBK\IBK_DRFN\ProjSrc\SrcDrfn\Chart\comparechart\XListCtrlJongData.cpp

; 184  : 		for (i = 0; ; i++)

  001a4	46		 inc	 esi

; 185  : 		{
; 186  : 			if (lpszHeadersType1[i] == NULL)

  001a5	83 3c b5 00 00
	00 00 00	 cmp	 DWORD PTR ?lpszHeadersType1@@3PAPADA[esi*4], 0
  001ad	75 d1		 jne	 SHORT $LL13@InitColumn
$LN39@InitColumn:
  001af	5f		 pop	 edi

; 191  : 			SetColumn(i, &lvcolumn);
; 192  : 		}	
; 193  : 
; 194  : 	}
; 195  : }

  001b0	5e		 pop	 esi
  001b1	5b		 pop	 ebx
  001b2	8b e5		 mov	 esp, ebp
  001b4	5d		 pop	 ebp
  001b5	c3		 ret	 0
?InitColumns@CXListCtrlJongData@@AAEXXZ ENDP		; CXListCtrlJongData::InitColumns
_TEXT	ENDS
; Function compile flags: /Ogtp
; File C:\Program Files (x86)\Microsoft Visual Studio\2019\Community\VC\Tools\MSVC\14.29.30133\atlmfc\include\afxtempl.h
; File C:\Program Files (x86)\Microsoft Visual Studio\2019\Community\VC\Tools\MSVC\14.29.30133\atlmfc\include\afx.inl
;	COMDAT ??_G?$CMap@V?$CStringT@DV?$StrTraitMFC_DLL@DV?$ChTraitsCRT@D@ATL@@@@@ATL@@PBDPAVCJongDataInListCtrl@@PAV3@@@UAEPAXI@Z
_TEXT	SEGMENT
__$EHRec$ = -12						; size = 12
___flags$ = 8						; size = 4
??_G?$CMap@V?$CStringT@DV?$StrTraitMFC_DLL@DV?$ChTraitsCRT@D@ATL@@@@@ATL@@PBDPAVCJongDataInListCtrl@@PAV3@@@UAEPAXI@Z PROC ; CMap<ATL::CStringT<char,StrTraitMFC_DLL<char,ATL::ChTraitsCRT<char> > >,char const *,CJongDataInListCtrl *,CJongDataInListCtrl *>::`scalar deleting destructor', COMDAT
; _this$ = ecx
  00000	55		 push	 ebp
  00001	8b ec		 mov	 ebp, esp
  00003	6a ff		 push	 -1
  00005	68 00 00 00 00	 push	 __ehhandler$??_G?$CMap@V?$CStringT@DV?$StrTraitMFC_DLL@DV?$ChTraitsCRT@D@ATL@@@@@ATL@@PBDPAVCJongDataInListCtrl@@PAV3@@@UAEPAXI@Z
  0000a	64 a1 00 00 00
	00		 mov	 eax, DWORD PTR fs:0
  00010	50		 push	 eax
  00011	56		 push	 esi
  00012	a1 00 00 00 00	 mov	 eax, DWORD PTR ___security_cookie
  00017	33 c5		 xor	 eax, ebp
  00019	50		 push	 eax
  0001a	8d 45 f4	 lea	 eax, DWORD PTR __$EHRec$[ebp]
  0001d	64 a3 00 00 00
	00		 mov	 DWORD PTR fs:0, eax
  00023	8b f1		 mov	 esi, ecx
; File C:\Program Files (x86)\Microsoft Visual Studio\2019\Community\VC\Tools\MSVC\14.29.30133\atlmfc\include\afxtempl.h

; 1472 : {

  00025	c7 45 fc 00 00
	00 00		 mov	 DWORD PTR __$EHRec$[ebp+8], 0
  0002c	c7 06 00 00 00
	00		 mov	 DWORD PTR [esi], OFFSET ??_7?$CMap@V?$CStringT@DV?$StrTraitMFC_DLL@DV?$ChTraitsCRT@D@ATL@@@@@ATL@@PBDPAVCJongDataInListCtrl@@PAV3@@@6B@

; 1473 : 	RemoveAll();

  00032	e8 00 00 00 00	 call	 ?RemoveAll@?$CMap@V?$CStringT@DV?$StrTraitMFC_DLL@DV?$ChTraitsCRT@D@ATL@@@@@ATL@@PBDPAVCJongDataInListCtrl@@PAV3@@@QAEXXZ ; CMap<ATL::CStringT<char,StrTraitMFC_DLL<char,ATL::ChTraitsCRT<char> > >,char const *,CJongDataInListCtrl *,CJongDataInListCtrl *>::RemoveAll
  00037	8b 45 08	 mov	 eax, DWORD PTR ___flags$[ebp]
  0003a	a8 01		 test	 al, 1
  0003c	74 2c		 je	 SHORT $LN12@scalar
  0003e	a8 04		 test	 al, 4
  00040	75 1d		 jne	 SHORT $LN3@scalar
; File C:\Program Files (x86)\Microsoft Visual Studio\2019\Community\VC\Tools\MSVC\14.29.30133\atlmfc\include\afx.inl

; 112  : 	{ ::operator delete(p); }

  00042	56		 push	 esi
  00043	e8 00 00 00 00	 call	 ??3@YAXPAX@Z		; operator delete
  00048	83 c4 04	 add	 esp, 4
  0004b	8b c6		 mov	 eax, esi
  0004d	8b 4d f4	 mov	 ecx, DWORD PTR __$EHRec$[ebp]
  00050	64 89 0d 00 00
	00 00		 mov	 DWORD PTR fs:0, ecx
  00057	59		 pop	 ecx
  00058	5e		 pop	 esi
  00059	8b e5		 mov	 esp, ebp
  0005b	5d		 pop	 ebp
  0005c	c2 04 00	 ret	 4
$LN3@scalar:
  0005f	6a 1c		 push	 28			; 0000001cH
  00061	56		 push	 esi
  00062	e8 00 00 00 00	 call	 ?__global_delete@@YAXPAXI@Z ; __global_delete
  00067	83 c4 08	 add	 esp, 8
$LN12@scalar:
  0006a	8b c6		 mov	 eax, esi
  0006c	8b 4d f4	 mov	 ecx, DWORD PTR __$EHRec$[ebp]
  0006f	64 89 0d 00 00
	00 00		 mov	 DWORD PTR fs:0, ecx
  00076	59		 pop	 ecx
  00077	5e		 pop	 esi
  00078	8b e5		 mov	 esp, ebp
  0007a	5d		 pop	 ebp
  0007b	c2 04 00	 ret	 4
  0007e	cc		 int	 3
  0007f	cc		 int	 3
  00080	cc		 int	 3
  00081	cc		 int	 3
  00082	cc		 int	 3
_TEXT	ENDS
;	COMDAT text$x
text$x	SEGMENT
__ehhandler$??_G?$CMap@V?$CStringT@DV?$StrTraitMFC_DLL@DV?$ChTraitsCRT@D@ATL@@@@@ATL@@PBDPAVCJongDataInListCtrl@@PAV3@@@UAEPAXI@Z:
  00000	90		 npad	 1
  00001	90		 npad	 1
  00002	8b 54 24 08	 mov	 edx, DWORD PTR [esp+8]
  00006	8d 42 0c	 lea	 eax, DWORD PTR [edx+12]
  00009	8b 4a f8	 mov	 ecx, DWORD PTR [edx-8]
  0000c	33 c8		 xor	 ecx, eax
  0000e	e8 00 00 00 00	 call	 @__security_check_cookie@4
  00013	b8 00 00 00 00	 mov	 eax, OFFSET __ehfuncinfo$??_G?$CMap@V?$CStringT@DV?$StrTraitMFC_DLL@DV?$ChTraitsCRT@D@ATL@@@@@ATL@@PBDPAVCJongDataInListCtrl@@PAV3@@@UAEPAXI@Z
  00018	e9 00 00 00 00	 jmp	 ___CxxFrameHandler3
text$x	ENDS
??_G?$CMap@V?$CStringT@DV?$StrTraitMFC_DLL@DV?$ChTraitsCRT@D@ATL@@@@@ATL@@PBDPAVCJongDataInListCtrl@@PAV3@@@UAEPAXI@Z ENDP ; CMap<ATL::CStringT<char,StrTraitMFC_DLL<char,ATL::ChTraitsCRT<char> > >,char const *,CJongDataInListCtrl *,CJongDataInListCtrl *>::`scalar deleting destructor'
; Function compile flags: /Ogtp
; File C:\Program Files (x86)\Microsoft Visual Studio\2019\Community\VC\Tools\MSVC\14.29.30133\atlmfc\include\afxtempl.h
; File C:\Program Files (x86)\Microsoft Visual Studio\2019\Community\VC\Tools\MSVC\14.29.30133\atlmfc\include\afx.inl
; File C:\Program Files (x86)\Microsoft Visual Studio\2019\Community\VC\Tools\MSVC\14.29.30133\atlmfc\include\afxtempl.h
; File C:\Program Files (x86)\Microsoft Visual Studio\2019\Community\VC\Tools\MSVC\14.29.30133\atlmfc\include\afx.inl
; File C:\Program Files (x86)\Microsoft Visual Studio\2019\Community\VC\Tools\MSVC\14.29.30133\atlmfc\include\afxtempl.h
; File C:\Program Files (x86)\Microsoft Visual Studio\2019\Community\VC\Tools\MSVC\14.29.30133\atlmfc\include\afx.inl
; File C:\Program Files (x86)\Microsoft Visual Studio\2019\Community\VC\Tools\MSVC\14.29.30133\atlmfc\include\afxtempl.h
; File C:\Program Files (x86)\Microsoft Visual Studio\2019\Community\VC\Tools\MSVC\14.29.30133\atlmfc\include\afx.inl
; File C:\Program Files (x86)\Microsoft Visual Studio\2019\Community\VC\Tools\MSVC\14.29.30133\atlmfc\include\afxtempl.h
; File C:\Program Files (x86)\Microsoft Visual Studio\2019\Community\VC\Tools\MSVC\14.29.30133\atlmfc\include\afx.inl
; File C:\Program Files (x86)\Microsoft Visual Studio\2019\Community\VC\Tools\MSVC\14.29.30133\atlmfc\include\afxtempl.h
; File C:\Program Files (x86)\Microsoft Visual Studio\2019\Community\VC\Tools\MSVC\14.29.30133\atlmfc\include\afx.inl
; File C:\Program Files (x86)\Microsoft Visual Studio\2019\Community\VC\Tools\MSVC\14.29.30133\atlmfc\include\afxtempl.h
; File C:\Program Files (x86)\Microsoft Visual Studio\2019\Community\VC\Tools\MSVC\14.29.30133\atlmfc\include\afx.inl
; File C:\Program Files (x86)\Microsoft Visual Studio\2019\Community\VC\Tools\MSVC\14.29.30133\atlmfc\include\afxtempl.h
; File C:\Program Files (x86)\Microsoft Visual Studio\2019\Community\VC\Tools\MSVC\14.29.30133\atlmfc\include\afx.inl
; File C:\Program Files (x86)\Microsoft Visual Studio\2019\Community\VC\Tools\MSVC\14.29.30133\atlmfc\include\afxtempl.h
; File C:\Program Files (x86)\Microsoft Visual Studio\2019\Community\VC\Tools\MSVC\14.29.30133\atlmfc\include\afx.inl
; File C:\Program Files (x86)\Microsoft Visual Studio\2019\Community\VC\Tools\MSVC\14.29.30133\atlmfc\include\afxtempl.h
; File C:\Program Files (x86)\Microsoft Visual Studio\2019\Community\VC\Tools\MSVC\14.29.30133\atlmfc\include\afx.inl
; File C:\Program Files (x86)\Microsoft Visual Studio\2019\Community\VC\Tools\MSVC\14.29.30133\atlmfc\include\afxtempl.h
; File C:\Program Files (x86)\Microsoft Visual Studio\2019\Community\VC\Tools\MSVC\14.29.30133\atlmfc\include\atlsimpstr.h
; File C:\Program Files (x86)\Microsoft Visual Studio\2019\Community\VC\Tools\MSVC\14.29.30133\atlmfc\include\afxtempl.h
; File C:\Program Files (x86)\Microsoft Visual Studio\2019\Community\VC\Tools\MSVC\14.29.30133\atlmfc\include\atlsimpstr.h
; File C:\Program Files (x86)\Microsoft Visual Studio\2019\Community\VC\Tools\MSVC\14.29.30133\atlmfc\include\afxtempl.h
; File C:\Program Files (x86)\Microsoft Visual Studio\2019\Community\VC\Tools\MSVC\14.29.30133\atlmfc\include\cstringt.h
; File C:\Program Files (x86)\Microsoft Visual Studio\2019\Community\VC\Tools\MSVC\14.29.30133\atlmfc\include\afxtempl.h
;	COMDAT ?Serialize@?$CMap@V?$CStringT@DV?$StrTraitMFC_DLL@DV?$ChTraitsCRT@D@ATL@@@@@ATL@@PBDPAVCJongDataInListCtrl@@PAV3@@@UAEXAAVCArchive@@@Z
_TEXT	SEGMENT
_nNewCount$1$ = -52					; size = 4
_newValue$1$ = -48					; size = 4
_nHashBucket$1$ = -44					; size = 4
_nCount$1$ = -40					; size = 4
_nCount$1$ = -40					; size = 4
_nElementsToWrite$1$ = -40				; size = 4
$T2 = -40						; size = 4
_nElementsToRead$1$ = -36				; size = 4
_nElementsToRead$1$ = -36				; size = 4
tv746 = -36						; size = 4
_newValue$3 = -32					; size = 4
_nHashSize$1$ = -28					; size = 4
_pData$1$ = -28						; size = 4
_nElementsLeft$1$ = -28					; size = 4
_nHash$1$ = -28						; size = 4
_nElementsLeft$1$ = -24					; size = 4
_newKey$4 = -24						; size = 4
_nHashValue$1$ = -20					; size = 4
_pData$1$ = -20						; size = 4
_pAssoc$1$ = -20					; size = 4
_this$1$ = -16						; size = 4
__$EHRec$ = -12						; size = 12
_ar$ = 8						; size = 4
?Serialize@?$CMap@V?$CStringT@DV?$StrTraitMFC_DLL@DV?$ChTraitsCRT@D@ATL@@@@@ATL@@PBDPAVCJongDataInListCtrl@@PAV3@@@UAEXAAVCArchive@@@Z PROC ; CMap<ATL::CStringT<char,StrTraitMFC_DLL<char,ATL::ChTraitsCRT<char> > >,char const *,CJongDataInListCtrl *,CJongDataInListCtrl *>::Serialize, COMDAT
; _this$ = ecx

; 1743 : {

  00000	55		 push	 ebp
  00001	8b ec		 mov	 ebp, esp
  00003	6a ff		 push	 -1
  00005	68 00 00 00 00	 push	 __ehhandler$?Serialize@?$CMap@V?$CStringT@DV?$StrTraitMFC_DLL@DV?$ChTraitsCRT@D@ATL@@@@@ATL@@PBDPAVCJongDataInListCtrl@@PAV3@@@UAEXAAVCArchive@@@Z
  0000a	64 a1 00 00 00
	00		 mov	 eax, DWORD PTR fs:0
  00010	50		 push	 eax
  00011	83 ec 28	 sub	 esp, 40			; 00000028H
  00014	56		 push	 esi
  00015	57		 push	 edi
  00016	a1 00 00 00 00	 mov	 eax, DWORD PTR ___security_cookie
  0001b	33 c5		 xor	 eax, ebp
  0001d	50		 push	 eax
  0001e	8d 45 f4	 lea	 eax, DWORD PTR __$EHRec$[ebp]
  00021	64 a3 00 00 00
	00		 mov	 DWORD PTR fs:0, eax
  00027	8b f1		 mov	 esi, ecx
  00029	89 75 f0	 mov	 DWORD PTR _this$1$[ebp], esi
; File C:\Program Files (x86)\Microsoft Visual Studio\2019\Community\VC\Tools\MSVC\14.29.30133\atlmfc\include\afx.inl

; 212  : 	{ return (m_nMode & CArchive::load) == 0; }

  0002c	8b 7d 08	 mov	 edi, DWORD PTR _ar$[ebp]
; File C:\Program Files (x86)\Microsoft Visual Studio\2019\Community\VC\Tools\MSVC\14.29.30133\atlmfc\include\afxtempl.h

; 1748 : 	if (ar.IsStoring())

  0002f	8b cf		 mov	 ecx, edi
; File C:\Program Files (x86)\Microsoft Visual Studio\2019\Community\VC\Tools\MSVC\14.29.30133\atlmfc\include\afx.inl

; 212  : 	{ return (m_nMode & CArchive::load) == 0; }

  00031	8b 47 18	 mov	 eax, DWORD PTR [edi+24]
  00034	f7 d0		 not	 eax
  00036	a8 01		 test	 al, 1
; File C:\Program Files (x86)\Microsoft Visual Studio\2019\Community\VC\Tools\MSVC\14.29.30133\atlmfc\include\afxtempl.h

; 1748 : 	if (ar.IsStoring())

  00038	0f 84 13 01 00
	00		 je	 $LN10@Serialize

; 1749 : 	{
; 1750 : 		ar.WriteCount(m_nCount);

  0003e	ff 76 0c	 push	 DWORD PTR [esi+12]
  00041	e8 00 00 00 00	 call	 ?WriteCount@CArchive@@QAEXK@Z ; CArchive::WriteCount

; 1751 : 		if (m_nCount == 0)

  00046	83 7e 0c 00	 cmp	 DWORD PTR [esi+12], 0
  0004a	0f 84 48 03 00
	00		 je	 $LN141@Serialize

; 1752 : 			return;  // nothing more to do
; 1753 : 
; 1754 : 		ASSERT(m_pHashTable != NULL);
; 1755 : 		if (m_pHashTable != NULL)

  00050	83 7e 04 00	 cmp	 DWORD PTR [esi+4], 0
  00054	0f 84 3e 03 00
	00		 je	 $LN141@Serialize

; 1756 : 		{
; 1757 : 			for (UINT nHash = 0; nHash < m_nHashTableSize; nHash++)

  0005a	33 c9		 xor	 ecx, ecx
  0005c	89 4d e4	 mov	 DWORD PTR _nHash$1$[ebp], ecx
  0005f	39 4e 08	 cmp	 DWORD PTR [esi+8], ecx
  00062	0f 86 30 03 00
	00		 jbe	 $LN141@Serialize
  00068	0f 1f 84 00 00
	00 00 00	 npad	 8
$LL4@Serialize:

; 1758 : 			{
; 1759 : 				CAssoc* pAssoc;
; 1760 : 				for (pAssoc = m_pHashTable[nHash]; pAssoc != NULL; pAssoc = pAssoc->pNext)

  00070	8b 46 04	 mov	 eax, DWORD PTR [esi+4]
  00073	8b 04 88	 mov	 eax, DWORD PTR [eax+ecx*4]
  00076	89 45 ec	 mov	 DWORD PTR _pAssoc$1$[ebp], eax
  00079	85 c0		 test	 eax, eax
  0007b	0f 84 b0 00 00
	00		 je	 $LN2@Serialize
$LL7@Serialize:

; 1761 : 				{
; 1762 : 					KEY* pKey;
; 1763 : 					VALUE* pValue;
; 1764 : 					/*
; 1765 : 					* in some cases the & operator might be overloaded, and we cannot use it to
; 1766 : 					* obtain the address of a given object.  We then use the following trick to
; 1767 : 					* get the address
; 1768 : 					*/
; 1769 : 					pKey = reinterpret_cast< KEY* >( &reinterpret_cast< int& >( const_cast< KEY& > ( static_cast< const KEY& >( pAssoc->key ) ) ) );
; 1770 : 					pValue = reinterpret_cast< VALUE* >( &reinterpret_cast< int& >( static_cast< VALUE& >( pAssoc->value ) ) );
; 1771 : 					SerializeElements<KEY>(ar, pKey, 1);

  00081	6a 01		 push	 1
  00083	50		 push	 eax
  00084	57		 push	 edi
  00085	8d 70 04	 lea	 esi, DWORD PTR [eax+4]
  00088	e8 00 00 00 00	 call	 ??$SerializeElements@V?$CStringT@DV?$StrTraitMFC_DLL@DV?$ChTraitsCRT@D@ATL@@@@@ATL@@@@YGXAAVCArchive@@PAV?$CStringT@DV?$StrTraitMFC_DLL@DV?$ChTraitsCRT@D@ATL@@@@@ATL@@H@Z ; SerializeElements<ATL::CStringT<char,StrTraitMFC_DLL<char,ATL::ChTraitsCRT<char> > > >

; 68   : 	ENSURE(nCount == 0 || pElements != NULL);

  0008d	85 f6		 test	 esi, esi
  0008f	0f 84 1f 03 00
	00		 je	 $LN125@Serialize
; File C:\Program Files (x86)\Microsoft Visual Studio\2019\Community\VC\Tools\MSVC\14.29.30133\atlmfc\include\afx.inl

; 212  : 	{ return (m_nMode & CArchive::load) == 0; }

  00095	8b 55 08	 mov	 edx, DWORD PTR _ar$[ebp]
  00098	8b 42 18	 mov	 eax, DWORD PTR [edx+24]
  0009b	f7 d0		 not	 eax
  0009d	a8 01		 test	 al, 1
; File C:\Program Files (x86)\Microsoft Visual Studio\2019\Community\VC\Tools\MSVC\14.29.30133\atlmfc\include\afxtempl.h

; 73   : 	if (ar.IsStoring())

  0009f	74 40		 je	 SHORT $LN27@Serialize

; 74   : 	{
; 75   : 		TYPE* pData;
; 76   : 		UINT_PTR nElementsLeft;
; 77   : 
; 78   : 		nElementsLeft = nCount;

  000a1	b9 01 00 00 00	 mov	 ecx, 1
  000a6	89 4d e8	 mov	 DWORD PTR _nElementsLeft$1$[ebp], ecx
  000a9	0f 1f 80 00 00
	00 00		 npad	 7
$LL22@Serialize:

; 80   : 		while( nElementsLeft > 0 )
; 81   : 		{
; 82   : 			UINT nElementsToWrite;
; 83   : 
; 84   : 			nElementsToWrite = UINT(__min(nElementsLeft, INT_MAX/sizeof(TYPE)));

  000b0	b8 ff ff ff 1f	 mov	 eax, 536870911		; 1fffffffH
  000b5	3b c8		 cmp	 ecx, eax
  000b7	0f 42 c1	 cmovb	 eax, ecx

; 85   : 			ar.Write(pData, nElementsToWrite*sizeof(TYPE));

  000ba	8b ca		 mov	 ecx, edx
  000bc	89 45 d8	 mov	 DWORD PTR _nElementsToWrite$1$[ebp], eax
  000bf	8d 3c 85 00 00
	00 00		 lea	 edi, DWORD PTR [eax*4]
  000c6	57		 push	 edi
  000c7	56		 push	 esi
  000c8	e8 00 00 00 00	 call	 ?Write@CArchive@@QAEXPBXI@Z ; CArchive::Write

; 86   : 			nElementsLeft -= nElementsToWrite;

  000cd	8b 4d e8	 mov	 ecx, DWORD PTR _nElementsLeft$1$[ebp]

; 87   : 			pData += nElementsToWrite;

  000d0	03 f7		 add	 esi, edi
  000d2	2b 4d d8	 sub	 ecx, DWORD PTR _nElementsToWrite$1$[ebp]
  000d5	8b 55 08	 mov	 edx, DWORD PTR _ar$[ebp]
  000d8	89 4d e8	 mov	 DWORD PTR _nElementsLeft$1$[ebp], ecx
  000db	85 c9		 test	 ecx, ecx
  000dd	75 d1		 jne	 SHORT $LL22@Serialize

; 88   : 		}
; 89   : 	}

  000df	eb 36		 jmp	 SHORT $LN5@Serialize
$LN27@Serialize:

; 90   : 	else
; 91   : 	{
; 92   : 		TYPE* pData;
; 93   : 		UINT_PTR nElementsLeft;
; 94   : 
; 95   : 		nElementsLeft = nCount;

  000e1	bf 01 00 00 00	 mov	 edi, 1
$LL24@Serialize:

; 101  : 			nElementsToRead = UINT(__min(nElementsLeft, INT_MAX/sizeof(TYPE)));

  000e6	b8 ff ff ff 1f	 mov	 eax, 536870911		; 1fffffffH
; File C:\Program Files (x86)\Microsoft Visual Studio\2019\Community\VC\Tools\MSVC\14.29.30133\atlmfc\include\afx.inl

; 399  : 	UINT nRead=Read(lpBuf, nCount);

  000eb	8b ca		 mov	 ecx, edx
; File C:\Program Files (x86)\Microsoft Visual Studio\2019\Community\VC\Tools\MSVC\14.29.30133\atlmfc\include\afxtempl.h

; 101  : 			nElementsToRead = UINT(__min(nElementsLeft, INT_MAX/sizeof(TYPE)));

  000ed	3b f8		 cmp	 edi, eax
  000ef	0f 42 c7	 cmovb	 eax, edi
  000f2	89 45 dc	 mov	 DWORD PTR _nElementsToRead$1$[ebp], eax

; 102  : 			ar.EnsureRead(pData, nElementsToRead*sizeof(TYPE));

  000f5	c1 e0 02	 shl	 eax, 2
; File C:\Program Files (x86)\Microsoft Visual Studio\2019\Community\VC\Tools\MSVC\14.29.30133\atlmfc\include\afx.inl

; 399  : 	UINT nRead=Read(lpBuf, nCount);

  000f8	50		 push	 eax
  000f9	56		 push	 esi
; File C:\Program Files (x86)\Microsoft Visual Studio\2019\Community\VC\Tools\MSVC\14.29.30133\atlmfc\include\afxtempl.h

; 102  : 			ar.EnsureRead(pData, nElementsToRead*sizeof(TYPE));

  000fa	89 45 d8	 mov	 DWORD PTR _nCount$1$[ebp], eax
; File C:\Program Files (x86)\Microsoft Visual Studio\2019\Community\VC\Tools\MSVC\14.29.30133\atlmfc\include\afx.inl

; 399  : 	UINT nRead=Read(lpBuf, nCount);

  000fd	e8 00 00 00 00	 call	 ?Read@CArchive@@QAEIPAXI@Z ; CArchive::Read

; 400  : 	if(nRead!=nCount)

  00102	8b 4d d8	 mov	 ecx, DWORD PTR _nCount$1$[ebp]
  00105	3b c1		 cmp	 eax, ecx
  00107	0f 85 9e 02 00
	00		 jne	 $LN124@Serialize
; File C:\Program Files (x86)\Microsoft Visual Studio\2019\Community\VC\Tools\MSVC\14.29.30133\atlmfc\include\afxtempl.h

; 104  : 			pData += nElementsToRead;

  0010d	8b 55 08	 mov	 edx, DWORD PTR _ar$[ebp]
  00110	03 f1		 add	 esi, ecx
  00112	2b 7d dc	 sub	 edi, DWORD PTR _nElementsToRead$1$[ebp]
  00115	75 cf		 jne	 SHORT $LL24@Serialize
$LN5@Serialize:

; 1758 : 			{
; 1759 : 				CAssoc* pAssoc;
; 1760 : 				for (pAssoc = m_pHashTable[nHash]; pAssoc != NULL; pAssoc = pAssoc->pNext)

  00117	8b 45 ec	 mov	 eax, DWORD PTR _pAssoc$1$[ebp]
  0011a	8b 7d 08	 mov	 edi, DWORD PTR _ar$[ebp]
  0011d	8b 40 08	 mov	 eax, DWORD PTR [eax+8]
  00120	89 45 ec	 mov	 DWORD PTR _pAssoc$1$[ebp], eax
  00123	85 c0		 test	 eax, eax
  00125	0f 85 56 ff ff
	ff		 jne	 $LL7@Serialize
  0012b	8b 75 f0	 mov	 esi, DWORD PTR _this$1$[ebp]
  0012e	8b 4d e4	 mov	 ecx, DWORD PTR _nHash$1$[ebp]
$LN2@Serialize:

; 1756 : 		{
; 1757 : 			for (UINT nHash = 0; nHash < m_nHashTableSize; nHash++)

  00131	41		 inc	 ecx
  00132	89 4d e4	 mov	 DWORD PTR _nHash$1$[ebp], ecx
  00135	3b 4e 08	 cmp	 ecx, DWORD PTR [esi+8]
  00138	0f 82 32 ff ff
	ff		 jb	 $LL4@Serialize

; 1788 : 	}
; 1789 : }

  0013e	8b 4d f4	 mov	 ecx, DWORD PTR __$EHRec$[ebp]
  00141	64 89 0d 00 00
	00 00		 mov	 DWORD PTR fs:0, ecx
  00148	59		 pop	 ecx
  00149	5f		 pop	 edi
  0014a	5e		 pop	 esi
  0014b	8b e5		 mov	 esp, ebp
  0014d	5d		 pop	 ebp
  0014e	c2 04 00	 ret	 4
$LN10@Serialize:

; 1772 : 					SerializeElements<VALUE>(ar, pValue, 1);
; 1773 : 				}
; 1774 : 			}
; 1775 : 		}
; 1776 : 	}
; 1777 : 	else
; 1778 : 	{
; 1779 : 		DWORD_PTR nNewCount = ar.ReadCount();

  00151	e8 00 00 00 00	 call	 ?ReadCount@CArchive@@QAEKXZ ; CArchive::ReadCount

; 1780 : 		while (nNewCount--)

  00156	85 c0		 test	 eax, eax
  00158	0f 84 3a 02 00
	00		 je	 $LN141@Serialize
  0015e	66 90		 npad	 2
$LL8@Serialize:

; 1781 : 		{
; 1782 : 			KEY newKey[1];

  00160	ff 35 00 00 00
	00		 push	 DWORD PTR __imp_??1?$CStringT@DV?$StrTraitMFC_DLL@DV?$ChTraitsCRT@D@ATL@@@@@ATL@@QAE@XZ
  00166	48		 dec	 eax
  00167	ff 35 00 00 00
	00		 push	 DWORD PTR __imp_??0?$CStringT@DV?$StrTraitMFC_DLL@DV?$ChTraitsCRT@D@ATL@@@@@ATL@@QAE@XZ
  0016d	89 45 cc	 mov	 DWORD PTR _nNewCount$1$[ebp], eax
  00170	8d 45 e8	 lea	 eax, DWORD PTR _newKey$4[ebp]
  00173	6a 01		 push	 1
  00175	6a 04		 push	 4
  00177	50		 push	 eax
  00178	e8 00 00 00 00	 call	 ??_L@YGXPAXIIP6EX0@Z1@Z

; 1783 : 			VALUE newValue[1];
; 1784 : 			SerializeElements<KEY>(ar, newKey, 1);

  0017d	6a 01		 push	 1
  0017f	8d 45 e8	 lea	 eax, DWORD PTR _newKey$4[ebp]
  00182	c7 45 fc 00 00
	00 00		 mov	 DWORD PTR __$EHRec$[ebp+8], 0
  00189	50		 push	 eax
  0018a	57		 push	 edi
  0018b	e8 00 00 00 00	 call	 ??$SerializeElements@V?$CStringT@DV?$StrTraitMFC_DLL@DV?$ChTraitsCRT@D@ATL@@@@@ATL@@@@YGXAAVCArchive@@PAV?$CStringT@DV?$StrTraitMFC_DLL@DV?$ChTraitsCRT@D@ATL@@@@@ATL@@H@Z ; SerializeElements<ATL::CStringT<char,StrTraitMFC_DLL<char,ATL::ChTraitsCRT<char> > > >
; File C:\Program Files (x86)\Microsoft Visual Studio\2019\Community\VC\Tools\MSVC\14.29.30133\atlmfc\include\afx.inl

; 212  : 	{ return (m_nMode & CArchive::load) == 0; }

  00190	8b 47 18	 mov	 eax, DWORD PTR [edi+24]
  00193	f7 d0		 not	 eax
  00195	a8 01		 test	 al, 1
; File C:\Program Files (x86)\Microsoft Visual Studio\2019\Community\VC\Tools\MSVC\14.29.30133\atlmfc\include\afxtempl.h

; 73   : 	if (ar.IsStoring())

  00197	74 4b		 je	 SHORT $LN48@Serialize

; 74   : 	{
; 75   : 		TYPE* pData;
; 76   : 		UINT_PTR nElementsLeft;
; 77   : 
; 78   : 		nElementsLeft = nCount;

  00199	b8 01 00 00 00	 mov	 eax, 1

; 79   : 		pData = pElements;

  0019e	8d 4d e0	 lea	 ecx, DWORD PTR _newValue$3[ebp]
  001a1	89 45 e4	 mov	 DWORD PTR _nElementsLeft$1$[ebp], eax
  001a4	89 4d ec	 mov	 DWORD PTR _pData$1$[ebp], ecx
  001a7	66 0f 1f 84 00
	00 00 00 00	 npad	 9
$LL43@Serialize:

; 80   : 		while( nElementsLeft > 0 )
; 81   : 		{
; 82   : 			UINT nElementsToWrite;
; 83   : 
; 84   : 			nElementsToWrite = UINT(__min(nElementsLeft, INT_MAX/sizeof(TYPE)));

  001b0	bf ff ff ff 1f	 mov	 edi, 536870911		; 1fffffffH
  001b5	3b c7		 cmp	 eax, edi
  001b7	0f 42 f8	 cmovb	 edi, eax

; 85   : 			ar.Write(pData, nElementsToWrite*sizeof(TYPE));

  001ba	8d 34 bd 00 00
	00 00		 lea	 esi, DWORD PTR [edi*4]
  001c1	56		 push	 esi
  001c2	51		 push	 ecx
  001c3	8b 4d 08	 mov	 ecx, DWORD PTR _ar$[ebp]
  001c6	e8 00 00 00 00	 call	 ?Write@CArchive@@QAEXPBXI@Z ; CArchive::Write

; 86   : 			nElementsLeft -= nElementsToWrite;

  001cb	8b 45 e4	 mov	 eax, DWORD PTR _nElementsLeft$1$[ebp]

; 87   : 			pData += nElementsToWrite;

  001ce	8b 4d ec	 mov	 ecx, DWORD PTR _pData$1$[ebp]
  001d1	2b c7		 sub	 eax, edi
  001d3	03 ce		 add	 ecx, esi
  001d5	89 45 e4	 mov	 DWORD PTR _nElementsLeft$1$[ebp], eax
  001d8	89 4d ec	 mov	 DWORD PTR _pData$1$[ebp], ecx
  001db	85 c0		 test	 eax, eax
  001dd	75 d1		 jne	 SHORT $LL43@Serialize

; 88   : 		}
; 89   : 	}

  001df	8b 7d 08	 mov	 edi, DWORD PTR _ar$[ebp]
  001e2	eb 40		 jmp	 SHORT $LN46@Serialize
$LN48@Serialize:

; 96   : 		pData = pElements;

  001e4	8d 55 e0	 lea	 edx, DWORD PTR _newValue$3[ebp]
  001e7	be 01 00 00 00	 mov	 esi, 1
  001ec	89 55 e4	 mov	 DWORD PTR _pData$1$[ebp], edx
  001ef	90		 npad	 1
$LL45@Serialize:

; 101  : 			nElementsToRead = UINT(__min(nElementsLeft, INT_MAX/sizeof(TYPE)));

  001f0	b8 ff ff ff 1f	 mov	 eax, 536870911		; 1fffffffH
; File C:\Program Files (x86)\Microsoft Visual Studio\2019\Community\VC\Tools\MSVC\14.29.30133\atlmfc\include\afx.inl

; 399  : 	UINT nRead=Read(lpBuf, nCount);

  001f5	8b cf		 mov	 ecx, edi
; File C:\Program Files (x86)\Microsoft Visual Studio\2019\Community\VC\Tools\MSVC\14.29.30133\atlmfc\include\afxtempl.h

; 101  : 			nElementsToRead = UINT(__min(nElementsLeft, INT_MAX/sizeof(TYPE)));

  001f7	3b f0		 cmp	 esi, eax
  001f9	0f 42 c6	 cmovb	 eax, esi
  001fc	89 45 dc	 mov	 DWORD PTR _nElementsToRead$1$[ebp], eax

; 102  : 			ar.EnsureRead(pData, nElementsToRead*sizeof(TYPE));

  001ff	c1 e0 02	 shl	 eax, 2
; File C:\Program Files (x86)\Microsoft Visual Studio\2019\Community\VC\Tools\MSVC\14.29.30133\atlmfc\include\afx.inl

; 399  : 	UINT nRead=Read(lpBuf, nCount);

  00202	50		 push	 eax
  00203	52		 push	 edx
; File C:\Program Files (x86)\Microsoft Visual Studio\2019\Community\VC\Tools\MSVC\14.29.30133\atlmfc\include\afxtempl.h

; 102  : 			ar.EnsureRead(pData, nElementsToRead*sizeof(TYPE));

  00204	89 45 d8	 mov	 DWORD PTR _nCount$1$[ebp], eax
; File C:\Program Files (x86)\Microsoft Visual Studio\2019\Community\VC\Tools\MSVC\14.29.30133\atlmfc\include\afx.inl

; 399  : 	UINT nRead=Read(lpBuf, nCount);

  00207	e8 00 00 00 00	 call	 ?Read@CArchive@@QAEIPAXI@Z ; CArchive::Read

; 400  : 	if(nRead!=nCount)

  0020c	8b 4d d8	 mov	 ecx, DWORD PTR _nCount$1$[ebp]
  0020f	3b c1		 cmp	 eax, ecx
  00211	0f 85 94 01 00
	00		 jne	 $LN124@Serialize
; File C:\Program Files (x86)\Microsoft Visual Studio\2019\Community\VC\Tools\MSVC\14.29.30133\atlmfc\include\afxtempl.h

; 104  : 			pData += nElementsToRead;

  00217	8b 55 e4	 mov	 edx, DWORD PTR _pData$1$[ebp]
  0021a	03 d1		 add	 edx, ecx
  0021c	89 55 e4	 mov	 DWORD PTR _pData$1$[ebp], edx
  0021f	2b 75 dc	 sub	 esi, DWORD PTR _nElementsToRead$1$[ebp]
  00222	75 cc		 jne	 SHORT $LL45@Serialize
$LN46@Serialize:
; File C:\Program Files (x86)\Microsoft Visual Studio\2019\Community\VC\Tools\MSVC\14.29.30133\atlmfc\include\atlsimpstr.h

; 377  : 		return( m_pszData );

  00224	8b 45 e8	 mov	 eax, DWORD PTR _newKey$4[ebp]
; File C:\Program Files (x86)\Microsoft Visual Studio\2019\Community\VC\Tools\MSVC\14.29.30133\atlmfc\include\afxtempl.h

; 1786 : 			SetAt(newKey[0], newValue[0]);

  00227	8b 4d e0	 mov	 ecx, DWORD PTR _newValue$3[ebp]

; 1533 : 	nHashValue = HashKey<ARG_KEY>(key);

  0022a	50		 push	 eax
; File C:\Program Files (x86)\Microsoft Visual Studio\2019\Community\VC\Tools\MSVC\14.29.30133\atlmfc\include\atlsimpstr.h

; 377  : 		return( m_pszData );

  0022b	89 45 d8	 mov	 DWORD PTR $T2[ebp], eax
; File C:\Program Files (x86)\Microsoft Visual Studio\2019\Community\VC\Tools\MSVC\14.29.30133\atlmfc\include\afxtempl.h

; 1786 : 			SetAt(newKey[0], newValue[0]);

  0022e	89 4d d0	 mov	 DWORD PTR _newValue$1$[ebp], ecx

; 1533 : 	nHashValue = HashKey<ARG_KEY>(key);

  00231	e8 00 00 00 00	 call	 ??$HashKey@PBD@@YGIPBD@Z ; HashKey<char const *>

; 1534 : 	nHashBucket = nHashValue % m_nHashTableSize;

  00236	8b 75 f0	 mov	 esi, DWORD PTR _this$1$[ebp]
  00239	33 d2		 xor	 edx, edx
  0023b	8d 4e 08	 lea	 ecx, DWORD PTR [esi+8]
  0023e	89 45 ec	 mov	 DWORD PTR _nHashValue$1$[ebp], eax
  00241	f7 31		 div	 DWORD PTR [ecx]
  00243	89 4d dc	 mov	 DWORD PTR tv746[ebp], ecx

; 1535 : 
; 1536 : 	if (m_pHashTable == NULL)

  00246	8b 4e 04	 mov	 ecx, DWORD PTR [esi+4]
  00249	8b c2		 mov	 eax, edx
  0024b	89 45 d4	 mov	 DWORD PTR _nHashBucket$1$[ebp], eax
  0024e	85 c9		 test	 ecx, ecx
  00250	74 3f		 je	 SHORT $LN165@Serialize

; 1537 : 		return NULL;
; 1538 : 
; 1539 : 	// see if it exists
; 1540 : 	CAssoc* pAssoc;
; 1541 : 	for (pAssoc = m_pHashTable[nHashBucket]; pAssoc != NULL; pAssoc = pAssoc->pNext)

  00252	8b 34 81	 mov	 esi, DWORD PTR [ecx+eax*4]
  00255	85 f6		 test	 esi, esi
  00257	74 31		 je	 SHORT $LN167@Serialize
  00259	8b 45 ec	 mov	 eax, DWORD PTR _nHashValue$1$[ebp]
  0025c	0f 1f 40 00	 npad	 4
$LL74@Serialize:

; 1543 : 		if (pAssoc->nHashValue == nHashValue && CompareElements(&pAssoc->key, &key))

  00260	39 46 0c	 cmp	 DWORD PTR [esi+12], eax
  00263	75 16		 jne	 SHORT $LN72@Serialize
; File C:\Program Files (x86)\Microsoft Visual Studio\2019\Community\VC\Tools\MSVC\14.29.30133\atlmfc\include\cstringt.h

; 2486 : 		return(str1.Compare(psz2) == 0);

  00265	ff 75 d8	 push	 DWORD PTR $T2[ebp]
  00268	8b ce		 mov	 ecx, esi
  0026a	ff 15 00 00 00
	00		 call	 DWORD PTR __imp_?Compare@?$CStringT@DV?$StrTraitMFC_DLL@DV?$ChTraitsCRT@D@ATL@@@@@ATL@@QBEHPBD@Z
; File C:\Program Files (x86)\Microsoft Visual Studio\2019\Community\VC\Tools\MSVC\14.29.30133\atlmfc\include\afxtempl.h

; 1543 : 		if (pAssoc->nHashValue == nHashValue && CompareElements(&pAssoc->key, &key))

  00270	85 c0		 test	 eax, eax
  00272	0f 84 f5 00 00
	00		 je	 $LN67@Serialize
  00278	8b 45 ec	 mov	 eax, DWORD PTR _nHashValue$1$[ebp]
$LN72@Serialize:

; 1537 : 		return NULL;
; 1538 : 
; 1539 : 	// see if it exists
; 1540 : 	CAssoc* pAssoc;
; 1541 : 	for (pAssoc = m_pHashTable[nHashBucket]; pAssoc != NULL; pAssoc = pAssoc->pNext)

  0027b	8b 76 08	 mov	 esi, DWORD PTR [esi+8]
  0027e	85 f6		 test	 esi, esi
  00280	75 de		 jne	 SHORT $LL74@Serialize

; 1495 : 	ENSURE(m_pFreeList != NULL);  // we must have something

  00282	8b 75 f0	 mov	 esi, DWORD PTR _this$1$[ebp]
  00285	8b 4e 04	 mov	 ecx, DWORD PTR [esi+4]

; 1541 : 	for (pAssoc = m_pHashTable[nHashBucket]; pAssoc != NULL; pAssoc = pAssoc->pNext)

  00288	eb 03		 jmp	 SHORT $LN73@Serialize
$LN167@Serialize:
  0028a	8b 75 f0	 mov	 esi, DWORD PTR _this$1$[ebp]
$LN73@Serialize:

; 1592 : 		if (m_pHashTable == NULL)

  0028d	85 c9		 test	 ecx, ecx
  0028f	75 51		 jne	 SHORT $LN171@Serialize
$LN165@Serialize:

; 1593 : 			InitHashTable(m_nHashTableSize);

  00291	8b 45 dc	 mov	 eax, DWORD PTR tv746[ebp]

; 1434 : 		m_pHashTable = new CAssoc* [nHashSize];

  00294	33 c9		 xor	 ecx, ecx
  00296	ba 04 00 00 00	 mov	 edx, 4

; 1593 : 			InitHashTable(m_nHashTableSize);

  0029b	8b 00		 mov	 eax, DWORD PTR [eax]
  0029d	89 45 e4	 mov	 DWORD PTR _nHashSize$1$[ebp], eax

; 1434 : 		m_pHashTable = new CAssoc* [nHashSize];

  002a0	f7 e2		 mul	 edx
  002a2	0f 90 c1	 seto	 cl
  002a5	f7 d9		 neg	 ecx
  002a7	0b c8		 or	 ecx, eax
  002a9	51		 push	 ecx
  002aa	e8 00 00 00 00	 call	 ??_U@YAPAXI@Z		; operator new[]
  002af	83 c4 04	 add	 esp, 4
  002b2	89 46 04	 mov	 DWORD PTR [esi+4], eax

; 1435 : 		ENSURE(m_pHashTable != NULL);

  002b5	85 c0		 test	 eax, eax
  002b7	0f 84 f7 00 00
	00		 je	 $LN125@Serialize

; 1436 : 		memset(m_pHashTable, 0, sizeof(CAssoc*) * nHashSize);

  002bd	8b 4d e4	 mov	 ecx, DWORD PTR _nHashSize$1$[ebp]
  002c0	c1 e1 02	 shl	 ecx, 2
  002c3	51		 push	 ecx
  002c4	6a 00		 push	 0
  002c6	50		 push	 eax
  002c7	e8 00 00 00 00	 call	 _memset

; 1437 : 	}
; 1438 : 	m_nHashTableSize = nHashSize;

  002cc	8b 4d dc	 mov	 ecx, DWORD PTR tv746[ebp]
  002cf	83 c4 0c	 add	 esp, 12			; 0000000cH
  002d2	8b 45 e4	 mov	 eax, DWORD PTR _nHashSize$1$[ebp]
  002d5	89 01		 mov	 DWORD PTR [ecx], eax
  002d7	8b 4e 04	 mov	 ecx, DWORD PTR [esi+4]

; 1595 : 		ENSURE(m_pHashTable);

  002da	85 c9		 test	 ecx, ecx
  002dc	0f 84 d2 00 00
	00		 je	 $LN125@Serialize
$LN171@Serialize:

; 1481 : 	if (m_pFreeList == NULL)

  002e2	83 7e 10 00	 cmp	 DWORD PTR [esi+16], 0
  002e6	75 39		 jne	 SHORT $LN104@Serialize

; 1482 : 	{
; 1483 : 		// add another block
; 1484 : 		CPlex* newBlock = CPlex::Create(m_pBlocks, m_nBlockSize, sizeof(CMap::CAssoc));

  002e8	6a 10		 push	 16			; 00000010H
  002ea	ff 76 18	 push	 DWORD PTR [esi+24]
  002ed	8d 46 14	 lea	 eax, DWORD PTR [esi+20]
  002f0	50		 push	 eax
  002f1	e8 00 00 00 00	 call	 ?Create@CPlex@@SGPAU1@AAPAU1@II@Z ; CPlex::Create

; 1485 : 		// chain them into free list
; 1486 : 		CMap::CAssoc* pAssoc = (CMap::CAssoc*) newBlock->data();
; 1487 : 		// free in reverse order to make it easier to debug
; 1488 : 		pAssoc += m_nBlockSize - 1;

  002f6	8b 56 18	 mov	 edx, DWORD PTR [esi+24]
  002f9	8b ca		 mov	 ecx, edx
  002fb	c1 e1 04	 shl	 ecx, 4
  002fe	83 c1 f8	 add	 ecx, -8			; fffffff8H
  00301	03 c8		 add	 ecx, eax

; 1489 : 		for (INT_PTR i = m_nBlockSize-1; i >= 0; i--, pAssoc--)

  00303	83 c2 ff	 add	 edx, -1
  00306	78 19		 js	 SHORT $LN104@Serialize
  00308	0f 1f 84 00 00
	00 00 00	 npad	 8
$LL101@Serialize:

; 1490 : 		{
; 1491 : 			pAssoc->pNext = m_pFreeList;

  00310	8b 46 10	 mov	 eax, DWORD PTR [esi+16]
  00313	89 41 08	 mov	 DWORD PTR [ecx+8], eax

; 1492 : 			m_pFreeList = pAssoc;

  00316	89 4e 10	 mov	 DWORD PTR [esi+16], ecx
  00319	83 e9 10	 sub	 ecx, 16			; 00000010H
  0031c	83 ea 01	 sub	 edx, 1
  0031f	79 ef		 jns	 SHORT $LL101@Serialize
$LN104@Serialize:

; 1493 : 		}
; 1494 : 	}
; 1495 : 	ENSURE(m_pFreeList != NULL);  // we must have something

  00321	8b 76 10	 mov	 esi, DWORD PTR [esi+16]
  00324	85 f6		 test	 esi, esi
  00326	0f 84 88 00 00
	00		 je	 $LN125@Serialize

; 1496 : 
; 1497 : 	CMap::CAssoc* pAssoc = m_pFreeList;
; 1498 : 
; 1499 : 	// zero the memory
; 1500 : 	CMap::CAssoc* pTemp = pAssoc->pNext;

  0032c	8b 46 08	 mov	 eax, DWORD PTR [esi+8]
  0032f	0f 57 c0	 xorps	 xmm0, xmm0

; 1503 : 
; 1504 : 	m_pFreeList = m_pFreeList->pNext;

  00332	8b 4d f0	 mov	 ecx, DWORD PTR _this$1$[ebp]

; 1256 : 		CPair( ARG_KEY keyval ) : key( keyval )	{}

  00335	ff 75 d8	 push	 DWORD PTR $T2[ebp]

; 1501 : 	memset( pAssoc, 0, sizeof(CMap::CAssoc) );

  00338	0f 11 06	 movups	 XMMWORD PTR [esi], xmm0

; 1502 : 	pAssoc->pNext = pTemp;

  0033b	89 46 08	 mov	 DWORD PTR [esi+8], eax

; 1503 : 
; 1504 : 	m_pFreeList = m_pFreeList->pNext;

  0033e	8b 41 10	 mov	 eax, DWORD PTR [ecx+16]
  00341	8b 40 08	 mov	 eax, DWORD PTR [eax+8]

; 1505 : 	m_nCount++;

  00344	ff 41 0c	 inc	 DWORD PTR [ecx+12]
  00347	89 41 10	 mov	 DWORD PTR [ecx+16], eax

; 1256 : 		CPair( ARG_KEY keyval ) : key( keyval )	{}

  0034a	8b ce		 mov	 ecx, esi
  0034c	ff 15 00 00 00
	00		 call	 DWORD PTR __imp_??0?$CStringT@DV?$StrTraitMFC_DLL@DV?$ChTraitsCRT@D@ATL@@@@@ATL@@QAE@PBD@Z

; 1602 : 		pAssoc->pNext = m_pHashTable[nHashBucket];

  00352	8b 4d f0	 mov	 ecx, DWORD PTR _this$1$[ebp]
  00355	8b 45 ec	 mov	 eax, DWORD PTR _nHashValue$1$[ebp]
  00358	8b 55 d4	 mov	 edx, DWORD PTR _nHashBucket$1$[ebp]
  0035b	89 46 0c	 mov	 DWORD PTR [esi+12], eax
  0035e	8b 41 04	 mov	 eax, DWORD PTR [ecx+4]
  00361	8b 04 90	 mov	 eax, DWORD PTR [eax+edx*4]
  00364	89 46 08	 mov	 DWORD PTR [esi+8], eax

; 1603 : 		m_pHashTable[nHashBucket] = pAssoc;

  00367	8b 41 04	 mov	 eax, DWORD PTR [ecx+4]
  0036a	89 34 90	 mov	 DWORD PTR [eax+edx*4], esi
$LN67@Serialize:

; 1787 : 		}

  0036d	ff 35 00 00 00
	00		 push	 DWORD PTR __imp_??1?$CStringT@DV?$StrTraitMFC_DLL@DV?$ChTraitsCRT@D@ATL@@@@@ATL@@QAE@XZ

; 1350 : 	{ (*this)[key] = newValue; }

  00373	8b 45 d0	 mov	 eax, DWORD PTR _newValue$1$[ebp]

; 1787 : 		}

  00376	6a 01		 push	 1

; 1350 : 	{ (*this)[key] = newValue; }

  00378	89 46 04	 mov	 DWORD PTR [esi+4], eax

; 1787 : 		}

  0037b	8d 45 e8	 lea	 eax, DWORD PTR _newKey$4[ebp]
  0037e	6a 04		 push	 4
  00380	50		 push	 eax
  00381	c7 45 fc ff ff
	ff ff		 mov	 DWORD PTR __$EHRec$[ebp+8], -1
  00388	e8 00 00 00 00	 call	 ??_M@YGXPAXIIP6EX0@Z@Z
  0038d	8b 45 cc	 mov	 eax, DWORD PTR _nNewCount$1$[ebp]
  00390	85 c0		 test	 eax, eax
  00392	0f 85 c8 fd ff
	ff		 jne	 $LL8@Serialize
$LN141@Serialize:

; 1788 : 	}
; 1789 : }

  00398	8b 4d f4	 mov	 ecx, DWORD PTR __$EHRec$[ebp]
  0039b	64 89 0d 00 00
	00 00		 mov	 DWORD PTR fs:0, ecx
  003a2	59		 pop	 ecx
  003a3	5f		 pop	 edi
  003a4	5e		 pop	 esi
  003a5	8b e5		 mov	 esp, ebp
  003a7	5d		 pop	 ebp
  003a8	c2 04 00	 ret	 4
$LN124@Serialize:
  003ab	6a 00		 push	 0
  003ad	6a 03		 push	 3
  003af	e8 00 00 00 00	 call	 ?AfxThrowArchiveException@@YGXHPBD@Z ; AfxThrowArchiveException
$LN125@Serialize:
  003b4	e8 00 00 00 00	 call	 ?AfxThrowInvalidArgException@@YGXXZ ; AfxThrowInvalidArgException
$LN169@Serialize:
  003b9	cc		 int	 3
_TEXT	ENDS
;	COMDAT text$x
text$x	SEGMENT
__unwindfunclet$?Serialize@?$CMap@V?$CStringT@DV?$StrTraitMFC_DLL@DV?$ChTraitsCRT@D@ATL@@@@@ATL@@PBDPAVCJongDataInListCtrl@@PAV3@@@UAEXAAVCArchive@@@Z$0:
  00000	a1 00 00 00 00	 mov	 eax, DWORD PTR __imp_??1?$CStringT@DV?$StrTraitMFC_DLL@DV?$ChTraitsCRT@D@ATL@@@@@ATL@@QAE@XZ
  00005	50		 push	 eax
  00006	6a 01		 push	 1
  00008	6a 04		 push	 4
  0000a	8d 45 e8	 lea	 eax, DWORD PTR _newKey$4[ebp]
  0000d	50		 push	 eax
  0000e	e8 00 00 00 00	 call	 ??_M@YGXPAXIIP6EX0@Z@Z
  00013	c3		 ret	 0
  00014	cc		 int	 3
  00015	cc		 int	 3
  00016	cc		 int	 3
  00017	cc		 int	 3
  00018	cc		 int	 3
__ehhandler$?Serialize@?$CMap@V?$CStringT@DV?$StrTraitMFC_DLL@DV?$ChTraitsCRT@D@ATL@@@@@ATL@@PBDPAVCJongDataInListCtrl@@PAV3@@@UAEXAAVCArchive@@@Z:
  00019	90		 npad	 1
  0001a	90		 npad	 1
  0001b	8b 54 24 08	 mov	 edx, DWORD PTR [esp+8]
  0001f	8d 42 0c	 lea	 eax, DWORD PTR [edx+12]
  00022	8b 4a cc	 mov	 ecx, DWORD PTR [edx-52]
  00025	33 c8		 xor	 ecx, eax
  00027	e8 00 00 00 00	 call	 @__security_check_cookie@4
  0002c	b8 00 00 00 00	 mov	 eax, OFFSET __ehfuncinfo$?Serialize@?$CMap@V?$CStringT@DV?$StrTraitMFC_DLL@DV?$ChTraitsCRT@D@ATL@@@@@ATL@@PBDPAVCJongDataInListCtrl@@PAV3@@@UAEXAAVCArchive@@@Z
  00031	e9 00 00 00 00	 jmp	 ___CxxFrameHandler3
text$x	ENDS
?Serialize@?$CMap@V?$CStringT@DV?$StrTraitMFC_DLL@DV?$ChTraitsCRT@D@ATL@@@@@ATL@@PBDPAVCJongDataInListCtrl@@PAV3@@@UAEXAAVCArchive@@@Z ENDP ; CMap<ATL::CStringT<char,StrTraitMFC_DLL<char,ATL::ChTraitsCRT<char> > >,char const *,CJongDataInListCtrl *,CJongDataInListCtrl *>::Serialize
; Function compile flags: /Ogtp
; File C:\Program Files (x86)\Microsoft Visual Studio\2019\Community\VC\Tools\MSVC\14.29.30133\atlmfc\include\afxtempl.h
;	COMDAT ??1?$CMap@V?$CStringT@DV?$StrTraitMFC_DLL@DV?$ChTraitsCRT@D@ATL@@@@@ATL@@PBDPAVCJongDataInListCtrl@@PAV3@@@UAE@XZ
_TEXT	SEGMENT
__$EHRec$ = -12						; size = 12
??1?$CMap@V?$CStringT@DV?$StrTraitMFC_DLL@DV?$ChTraitsCRT@D@ATL@@@@@ATL@@PBDPAVCJongDataInListCtrl@@PAV3@@@UAE@XZ PROC ; CMap<ATL::CStringT<char,StrTraitMFC_DLL<char,ATL::ChTraitsCRT<char> > >,char const *,CJongDataInListCtrl *,CJongDataInListCtrl *>::~CMap<ATL::CStringT<char,StrTraitMFC_DLL<char,ATL::ChTraitsCRT<char> > >,char const *,CJongDataInListCtrl *,CJongDataInListCtrl *>, COMDAT
; _this$ = ecx

; 1472 : {

  00000	55		 push	 ebp
  00001	8b ec		 mov	 ebp, esp
  00003	6a ff		 push	 -1
  00005	68 00 00 00 00	 push	 __ehhandler$??1?$CMap@V?$CStringT@DV?$StrTraitMFC_DLL@DV?$ChTraitsCRT@D@ATL@@@@@ATL@@PBDPAVCJongDataInListCtrl@@PAV3@@@UAE@XZ
  0000a	64 a1 00 00 00
	00		 mov	 eax, DWORD PTR fs:0
  00010	50		 push	 eax
  00011	a1 00 00 00 00	 mov	 eax, DWORD PTR ___security_cookie
  00016	33 c5		 xor	 eax, ebp
  00018	50		 push	 eax
  00019	8d 45 f4	 lea	 eax, DWORD PTR __$EHRec$[ebp]
  0001c	64 a3 00 00 00
	00		 mov	 DWORD PTR fs:0, eax
  00022	c7 01 00 00 00
	00		 mov	 DWORD PTR [ecx], OFFSET ??_7?$CMap@V?$CStringT@DV?$StrTraitMFC_DLL@DV?$ChTraitsCRT@D@ATL@@@@@ATL@@PBDPAVCJongDataInListCtrl@@PAV3@@@6B@

; 1473 : 	RemoveAll();

  00028	e8 00 00 00 00	 call	 ?RemoveAll@?$CMap@V?$CStringT@DV?$StrTraitMFC_DLL@DV?$ChTraitsCRT@D@ATL@@@@@ATL@@PBDPAVCJongDataInListCtrl@@PAV3@@@QAEXXZ ; CMap<ATL::CStringT<char,StrTraitMFC_DLL<char,ATL::ChTraitsCRT<char> > >,char const *,CJongDataInListCtrl *,CJongDataInListCtrl *>::RemoveAll

; 1474 : 	ASSERT(m_nCount == 0);
; 1475 : }

  0002d	8b 4d f4	 mov	 ecx, DWORD PTR __$EHRec$[ebp]
  00030	64 89 0d 00 00
	00 00		 mov	 DWORD PTR fs:0, ecx
  00037	59		 pop	 ecx
  00038	8b e5		 mov	 esp, ebp
  0003a	5d		 pop	 ebp
  0003b	c3		 ret	 0
  0003c	cc		 int	 3
  0003d	cc		 int	 3
  0003e	cc		 int	 3
  0003f	cc		 int	 3
  00040	cc		 int	 3
_TEXT	ENDS
;	COMDAT text$x
text$x	SEGMENT
__ehhandler$??1?$CMap@V?$CStringT@DV?$StrTraitMFC_DLL@DV?$ChTraitsCRT@D@ATL@@@@@ATL@@PBDPAVCJongDataInListCtrl@@PAV3@@@UAE@XZ:
  00000	90		 npad	 1
  00001	90		 npad	 1
  00002	8b 54 24 08	 mov	 edx, DWORD PTR [esp+8]
  00006	8d 42 0c	 lea	 eax, DWORD PTR [edx+12]
  00009	8b 4a fc	 mov	 ecx, DWORD PTR [edx-4]
  0000c	33 c8		 xor	 ecx, eax
  0000e	e8 00 00 00 00	 call	 @__security_check_cookie@4
  00013	b8 00 00 00 00	 mov	 eax, OFFSET __ehfuncinfo$??1?$CMap@V?$CStringT@DV?$StrTraitMFC_DLL@DV?$ChTraitsCRT@D@ATL@@@@@ATL@@PBDPAVCJongDataInListCtrl@@PAV3@@@UAE@XZ
  00018	e9 00 00 00 00	 jmp	 ___CxxFrameHandler3
text$x	ENDS
??1?$CMap@V?$CStringT@DV?$StrTraitMFC_DLL@DV?$ChTraitsCRT@D@ATL@@@@@ATL@@PBDPAVCJongDataInListCtrl@@PAV3@@@UAE@XZ ENDP ; CMap<ATL::CStringT<char,StrTraitMFC_DLL<char,ATL::ChTraitsCRT<char> > >,char const *,CJongDataInListCtrl *,CJongDataInListCtrl *>::~CMap<ATL::CStringT<char,StrTraitMFC_DLL<char,ATL::ChTraitsCRT<char> > >,char const *,CJongDataInListCtrl *,CJongDataInListCtrl *>
; Function compile flags: /Ogtp
; File C:\Program Files (x86)\Microsoft Visual Studio\2019\Community\VC\Tools\MSVC\14.29.30133\atlmfc\include\afxtempl.h
; File C:\Program Files (x86)\Microsoft Visual Studio\2019\Community\VC\Tools\MSVC\14.29.30133\atlmfc\include\cstringt.h
; File C:\Program Files (x86)\Microsoft Visual Studio\2019\Community\VC\Tools\MSVC\14.29.30133\atlmfc\include\afxtempl.h
;	COMDAT ?GetAssocAt@?$CMap@V?$CStringT@DV?$StrTraitMFC_DLL@DV?$ChTraitsCRT@D@ATL@@@@@ATL@@PBDPAVCJongDataInListCtrl@@PAV3@@@IBEPAVCAssoc@1@PBDAAI1@Z
_TEXT	SEGMENT
_key$ = 8						; size = 4
_nHashBucket$ = 12					; size = 4
_nHashValue$ = 16					; size = 4
?GetAssocAt@?$CMap@V?$CStringT@DV?$StrTraitMFC_DLL@DV?$ChTraitsCRT@D@ATL@@@@@ATL@@PBDPAVCJongDataInListCtrl@@PAV3@@@IBEPAVCAssoc@1@PBDAAI1@Z PROC ; CMap<ATL::CStringT<char,StrTraitMFC_DLL<char,ATL::ChTraitsCRT<char> > >,char const *,CJongDataInListCtrl *,CJongDataInListCtrl *>::GetAssocAt, COMDAT
; _this$ = ecx

; 1532 : {

  00000	55		 push	 ebp
  00001	8b ec		 mov	 ebp, esp
  00003	53		 push	 ebx

; 1533 : 	nHashValue = HashKey<ARG_KEY>(key);

  00004	8b 5d 08	 mov	 ebx, DWORD PTR _key$[ebp]
  00007	56		 push	 esi
  00008	57		 push	 edi
  00009	53		 push	 ebx
  0000a	8b f1		 mov	 esi, ecx
  0000c	e8 00 00 00 00	 call	 ??$HashKey@PBD@@YGIPBD@Z ; HashKey<char const *>
  00011	8b 7d 10	 mov	 edi, DWORD PTR _nHashValue$[ebp]

; 1534 : 	nHashBucket = nHashValue % m_nHashTableSize;

  00014	33 d2		 xor	 edx, edx
  00016	89 07		 mov	 DWORD PTR [edi], eax
  00018	f7 76 08	 div	 DWORD PTR [esi+8]
  0001b	8b 45 0c	 mov	 eax, DWORD PTR _nHashBucket$[ebp]
  0001e	89 10		 mov	 DWORD PTR [eax], edx

; 1535 : 
; 1536 : 	if (m_pHashTable == NULL)

  00020	8b 76 04	 mov	 esi, DWORD PTR [esi+4]
  00023	85 f6		 test	 esi, esi
  00025	74 24		 je	 SHORT $LN25@GetAssocAt

; 1537 : 		return NULL;
; 1538 : 
; 1539 : 	// see if it exists
; 1540 : 	CAssoc* pAssoc;
; 1541 : 	for (pAssoc = m_pHashTable[nHashBucket]; pAssoc != NULL; pAssoc = pAssoc->pNext)

  00027	8b 34 96	 mov	 esi, DWORD PTR [esi+edx*4]
  0002a	85 f6		 test	 esi, esi
  0002c	74 1d		 je	 SHORT $LN25@GetAssocAt
  0002e	66 90		 npad	 2
$LL4@GetAssocAt:

; 1543 : 		if (pAssoc->nHashValue == nHashValue && CompareElements(&pAssoc->key, &key))

  00030	8b 46 0c	 mov	 eax, DWORD PTR [esi+12]
  00033	3b 07		 cmp	 eax, DWORD PTR [edi]
  00035	75 0d		 jne	 SHORT $LN2@GetAssocAt
; File C:\Program Files (x86)\Microsoft Visual Studio\2019\Community\VC\Tools\MSVC\14.29.30133\atlmfc\include\cstringt.h

; 2486 : 		return(str1.Compare(psz2) == 0);

  00037	53		 push	 ebx
  00038	8b ce		 mov	 ecx, esi
  0003a	ff 15 00 00 00
	00		 call	 DWORD PTR __imp_?Compare@?$CStringT@DV?$StrTraitMFC_DLL@DV?$ChTraitsCRT@D@ATL@@@@@ATL@@QBEHPBD@Z
  00040	85 c0		 test	 eax, eax
; File C:\Program Files (x86)\Microsoft Visual Studio\2019\Community\VC\Tools\MSVC\14.29.30133\atlmfc\include\afxtempl.h

; 1543 : 		if (pAssoc->nHashValue == nHashValue && CompareElements(&pAssoc->key, &key))

  00042	74 10		 je	 SHORT $LN21@GetAssocAt
$LN2@GetAssocAt:

; 1537 : 		return NULL;
; 1538 : 
; 1539 : 	// see if it exists
; 1540 : 	CAssoc* pAssoc;
; 1541 : 	for (pAssoc = m_pHashTable[nHashBucket]; pAssoc != NULL; pAssoc = pAssoc->pNext)

  00044	8b 76 08	 mov	 esi, DWORD PTR [esi+8]
  00047	85 f6		 test	 esi, esi
  00049	75 e5		 jne	 SHORT $LL4@GetAssocAt
$LN25@GetAssocAt:
  0004b	5f		 pop	 edi

; 1545 : 	}
; 1546 : 	return NULL;
; 1547 : }

  0004c	5e		 pop	 esi
  0004d	33 c0		 xor	 eax, eax
  0004f	5b		 pop	 ebx
  00050	5d		 pop	 ebp
  00051	c2 0c 00	 ret	 12			; 0000000cH
$LN21@GetAssocAt:
  00054	5f		 pop	 edi

; 1544 : 			return pAssoc;

  00055	8b c6		 mov	 eax, esi

; 1545 : 	}
; 1546 : 	return NULL;
; 1547 : }

  00057	5e		 pop	 esi
  00058	5b		 pop	 ebx
  00059	5d		 pop	 ebp
  0005a	c2 0c 00	 ret	 12			; 0000000cH
?GetAssocAt@?$CMap@V?$CStringT@DV?$StrTraitMFC_DLL@DV?$ChTraitsCRT@D@ATL@@@@@ATL@@PBDPAVCJongDataInListCtrl@@PAV3@@@IBEPAVCAssoc@1@PBDAAI1@Z ENDP ; CMap<ATL::CStringT<char,StrTraitMFC_DLL<char,ATL::ChTraitsCRT<char> > >,char const *,CJongDataInListCtrl *,CJongDataInListCtrl *>::GetAssocAt
_TEXT	ENDS
; Function compile flags: /Ogtp
; File C:\Program Files (x86)\Microsoft Visual Studio\2019\Community\VC\Tools\MSVC\14.29.30133\atlmfc\include\afxtempl.h
;	COMDAT ?FreeAssoc@?$CMap@V?$CStringT@DV?$StrTraitMFC_DLL@DV?$ChTraitsCRT@D@ATL@@@@@ATL@@PBDPAVCJongDataInListCtrl@@PAV3@@@IAEXPAVCAssoc@1@@Z
_TEXT	SEGMENT
_pAssoc$ = 8						; size = 4
?FreeAssoc@?$CMap@V?$CStringT@DV?$StrTraitMFC_DLL@DV?$ChTraitsCRT@D@ATL@@@@@ATL@@PBDPAVCJongDataInListCtrl@@PAV3@@@IAEXPAVCAssoc@1@@Z PROC ; CMap<ATL::CStringT<char,StrTraitMFC_DLL<char,ATL::ChTraitsCRT<char> > >,char const *,CJongDataInListCtrl *,CJongDataInListCtrl *>::FreeAssoc, COMDAT
; _this$ = ecx

; 1516 : {

  00000	55		 push	 ebp
  00001	8b ec		 mov	 ebp, esp
  00003	56		 push	 esi
  00004	8b 75 08	 mov	 esi, DWORD PTR _pAssoc$[ebp]
  00007	57		 push	 edi
  00008	8b f9		 mov	 edi, ecx
  0000a	8b ce		 mov	 ecx, esi
  0000c	ff 15 00 00 00
	00		 call	 DWORD PTR __imp_??1?$CStringT@DV?$StrTraitMFC_DLL@DV?$ChTraitsCRT@D@ATL@@@@@ATL@@QAE@XZ

; 1517 : 	pAssoc->CAssoc::~CAssoc();
; 1518 : 	pAssoc->pNext = m_pFreeList;

  00012	8b 47 10	 mov	 eax, DWORD PTR [edi+16]
  00015	89 46 08	 mov	 DWORD PTR [esi+8], eax

; 1519 : 	m_pFreeList = pAssoc;
; 1520 : 	m_nCount--;

  00018	83 47 0c ff	 add	 DWORD PTR [edi+12], -1
  0001c	89 77 10	 mov	 DWORD PTR [edi+16], esi

; 1521 : 	ASSERT(m_nCount >= 0);  // make sure we don't underflow
; 1522 : 
; 1523 : 	// if no more elements, cleanup completely
; 1524 : 	if (m_nCount == 0)

  0001f	75 07		 jne	 SHORT $LN2@FreeAssoc

; 1525 : 		RemoveAll();

  00021	8b cf		 mov	 ecx, edi
  00023	e8 00 00 00 00	 call	 ?RemoveAll@?$CMap@V?$CStringT@DV?$StrTraitMFC_DLL@DV?$ChTraitsCRT@D@ATL@@@@@ATL@@PBDPAVCJongDataInListCtrl@@PAV3@@@QAEXXZ ; CMap<ATL::CStringT<char,StrTraitMFC_DLL<char,ATL::ChTraitsCRT<char> > >,char const *,CJongDataInListCtrl *,CJongDataInListCtrl *>::RemoveAll
$LN2@FreeAssoc:

; 1526 : }

  00028	5f		 pop	 edi
  00029	5e		 pop	 esi
  0002a	5d		 pop	 ebp
  0002b	c2 04 00	 ret	 4
?FreeAssoc@?$CMap@V?$CStringT@DV?$StrTraitMFC_DLL@DV?$ChTraitsCRT@D@ATL@@@@@ATL@@PBDPAVCJongDataInListCtrl@@PAV3@@@IAEXPAVCAssoc@1@@Z ENDP ; CMap<ATL::CStringT<char,StrTraitMFC_DLL<char,ATL::ChTraitsCRT<char> > >,char const *,CJongDataInListCtrl *,CJongDataInListCtrl *>::FreeAssoc
_TEXT	ENDS
; Function compile flags: /Ogtp
; File C:\Program Files (x86)\Microsoft Visual Studio\2019\Community\VC\Tools\MSVC\14.29.30133\atlmfc\include\afxtempl.h
;	COMDAT ?NewAssoc@?$CMap@V?$CStringT@DV?$StrTraitMFC_DLL@DV?$ChTraitsCRT@D@ATL@@@@@ATL@@PBDPAVCJongDataInListCtrl@@PAV3@@@IAEPAVCAssoc@1@PBD@Z
_TEXT	SEGMENT
_key$ = 8						; size = 4
?NewAssoc@?$CMap@V?$CStringT@DV?$StrTraitMFC_DLL@DV?$ChTraitsCRT@D@ATL@@@@@ATL@@PBDPAVCJongDataInListCtrl@@PAV3@@@IAEPAVCAssoc@1@PBD@Z PROC ; CMap<ATL::CStringT<char,StrTraitMFC_DLL<char,ATL::ChTraitsCRT<char> > >,char const *,CJongDataInListCtrl *,CJongDataInListCtrl *>::NewAssoc, COMDAT
; _this$ = ecx

; 1480 : {

  00000	55		 push	 ebp
  00001	8b ec		 mov	 ebp, esp
  00003	56		 push	 esi
  00004	8b f1		 mov	 esi, ecx
  00006	57		 push	 edi

; 1481 : 	if (m_pFreeList == NULL)

  00007	83 7e 10 00	 cmp	 DWORD PTR [esi+16], 0
  0000b	75 34		 jne	 SHORT $LN7@NewAssoc

; 1482 : 	{
; 1483 : 		// add another block
; 1484 : 		CPlex* newBlock = CPlex::Create(m_pBlocks, m_nBlockSize, sizeof(CMap::CAssoc));

  0000d	6a 10		 push	 16			; 00000010H
  0000f	ff 76 18	 push	 DWORD PTR [esi+24]
  00012	8d 46 14	 lea	 eax, DWORD PTR [esi+20]
  00015	50		 push	 eax
  00016	e8 00 00 00 00	 call	 ?Create@CPlex@@SGPAU1@AAPAU1@II@Z ; CPlex::Create

; 1485 : 		// chain them into free list
; 1486 : 		CMap::CAssoc* pAssoc = (CMap::CAssoc*) newBlock->data();
; 1487 : 		// free in reverse order to make it easier to debug
; 1488 : 		pAssoc += m_nBlockSize - 1;

  0001b	8b 56 18	 mov	 edx, DWORD PTR [esi+24]
  0001e	83 c0 08	 add	 eax, 8
  00021	8b ca		 mov	 ecx, edx
  00023	c1 e1 04	 shl	 ecx, 4
  00026	83 c1 f0	 add	 ecx, -16		; fffffff0H
  00029	03 c1		 add	 eax, ecx

; 1489 : 		for (INT_PTR i = m_nBlockSize-1; i >= 0; i--, pAssoc--)

  0002b	83 c2 ff	 add	 edx, -1
  0002e	78 11		 js	 SHORT $LN7@NewAssoc
$LL4@NewAssoc:

; 1490 : 		{
; 1491 : 			pAssoc->pNext = m_pFreeList;

  00030	8b 4e 10	 mov	 ecx, DWORD PTR [esi+16]
  00033	89 48 08	 mov	 DWORD PTR [eax+8], ecx

; 1492 : 			m_pFreeList = pAssoc;

  00036	89 46 10	 mov	 DWORD PTR [esi+16], eax
  00039	83 e8 10	 sub	 eax, 16			; 00000010H
  0003c	83 ea 01	 sub	 edx, 1
  0003f	79 ef		 jns	 SHORT $LL4@NewAssoc
$LN7@NewAssoc:

; 1493 : 		}
; 1494 : 	}
; 1495 : 	ENSURE(m_pFreeList != NULL);  // we must have something

  00041	8b 7e 10	 mov	 edi, DWORD PTR [esi+16]
  00044	85 ff		 test	 edi, edi
  00046	74 2b		 je	 SHORT $LN23@NewAssoc

; 1496 : 
; 1497 : 	CMap::CAssoc* pAssoc = m_pFreeList;
; 1498 : 
; 1499 : 	// zero the memory
; 1500 : 	CMap::CAssoc* pTemp = pAssoc->pNext;

  00048	8b 47 08	 mov	 eax, DWORD PTR [edi+8]
  0004b	0f 57 c0	 xorps	 xmm0, xmm0

; 1256 : 		CPair( ARG_KEY keyval ) : key( keyval )	{}

  0004e	ff 75 08	 push	 DWORD PTR _key$[ebp]

; 1501 : 	memset( pAssoc, 0, sizeof(CMap::CAssoc) );

  00051	0f 11 07	 movups	 XMMWORD PTR [edi], xmm0

; 1502 : 	pAssoc->pNext = pTemp;

  00054	89 47 08	 mov	 DWORD PTR [edi+8], eax

; 1503 : 
; 1504 : 	m_pFreeList = m_pFreeList->pNext;

  00057	8b 4e 10	 mov	 ecx, DWORD PTR [esi+16]
  0005a	8b 49 08	 mov	 ecx, DWORD PTR [ecx+8]

; 1505 : 	m_nCount++;

  0005d	ff 46 0c	 inc	 DWORD PTR [esi+12]
  00060	89 4e 10	 mov	 DWORD PTR [esi+16], ecx

; 1256 : 		CPair( ARG_KEY keyval ) : key( keyval )	{}

  00063	8b cf		 mov	 ecx, edi
  00065	ff 15 00 00 00
	00		 call	 DWORD PTR __imp_??0?$CStringT@DV?$StrTraitMFC_DLL@DV?$ChTraitsCRT@D@ATL@@@@@ATL@@QAE@PBD@Z

; 1506 : 	ASSERT(m_nCount > 0);  // make sure we don't overflow
; 1507 : #pragma push_macro("new")
; 1508 : #undef new
; 1509 : 	::new(pAssoc) CMap::CAssoc(key);
; 1510 : #pragma pop_macro("new")
; 1511 : 	return pAssoc;

  0006b	8b c7		 mov	 eax, edi
  0006d	5f		 pop	 edi
  0006e	5e		 pop	 esi

; 1512 : }

  0006f	5d		 pop	 ebp
  00070	c2 04 00	 ret	 4
$LN23@NewAssoc:

; 1493 : 		}
; 1494 : 	}
; 1495 : 	ENSURE(m_pFreeList != NULL);  // we must have something

  00073	e8 00 00 00 00	 call	 ?AfxThrowInvalidArgException@@YGXXZ ; AfxThrowInvalidArgException
$LN21@NewAssoc:
  00078	cc		 int	 3
?NewAssoc@?$CMap@V?$CStringT@DV?$StrTraitMFC_DLL@DV?$ChTraitsCRT@D@ATL@@@@@ATL@@PBDPAVCJongDataInListCtrl@@PAV3@@@IAEPAVCAssoc@1@PBD@Z ENDP ; CMap<ATL::CStringT<char,StrTraitMFC_DLL<char,ATL::ChTraitsCRT<char> > >,char const *,CJongDataInListCtrl *,CJongDataInListCtrl *>::NewAssoc
_TEXT	ENDS
; Function compile flags: /Ogtp
; File C:\Program Files (x86)\Microsoft Visual Studio\2019\Community\VC\Tools\MSVC\14.29.30133\atlmfc\include\afxtempl.h
;	COMDAT ?InitHashTable@?$CMap@V?$CStringT@DV?$StrTraitMFC_DLL@DV?$ChTraitsCRT@D@ATL@@@@@ATL@@PBDPAVCJongDataInListCtrl@@PAV3@@@QAEXIH@Z
_TEXT	SEGMENT
_nHashSize$ = 8						; size = 4
_bAllocNow$ = 12					; size = 4
?InitHashTable@?$CMap@V?$CStringT@DV?$StrTraitMFC_DLL@DV?$ChTraitsCRT@D@ATL@@@@@ATL@@PBDPAVCJongDataInListCtrl@@PAV3@@@QAEXIH@Z PROC ; CMap<ATL::CStringT<char,StrTraitMFC_DLL<char,ATL::ChTraitsCRT<char> > >,char const *,CJongDataInListCtrl *,CJongDataInListCtrl *>::InitHashTable, COMDAT
; _this$ = ecx

; 1420 : {

  00000	55		 push	 ebp
  00001	8b ec		 mov	 ebp, esp
  00003	56		 push	 esi
  00004	8b f1		 mov	 esi, ecx
  00006	57		 push	 edi

; 1421 : 	ASSERT_VALID(this);
; 1422 : 	ASSERT(m_nCount == 0);
; 1423 : 	ASSERT(nHashSize > 0);
; 1424 : 
; 1425 : 	if (m_pHashTable != NULL)

  00007	8b 46 04	 mov	 eax, DWORD PTR [esi+4]
  0000a	85 c0		 test	 eax, eax
  0000c	74 10		 je	 SHORT $LN5@InitHashTa

; 1426 : 	{
; 1427 : 		// free hash table
; 1428 : 		delete[] m_pHashTable;

  0000e	50		 push	 eax
  0000f	e8 00 00 00 00	 call	 ??_V@YAXPAX@Z		; operator delete[]
  00014	83 c4 04	 add	 esp, 4

; 1429 : 		m_pHashTable = NULL;

  00017	c7 46 04 00 00
	00 00		 mov	 DWORD PTR [esi+4], 0
$LN5@InitHashTa:

; 1430 : 	}
; 1431 : 
; 1432 : 	if (bAllocNow)

  0001e	83 7d 0c 00	 cmp	 DWORD PTR _bAllocNow$[ebp], 0
  00022	8b 7d 08	 mov	 edi, DWORD PTR _nHashSize$[ebp]
  00025	74 37		 je	 SHORT $LN6@InitHashTa

; 1433 : 	{
; 1434 : 		m_pHashTable = new CAssoc* [nHashSize];

  00027	33 c9		 xor	 ecx, ecx
  00029	8b c7		 mov	 eax, edi
  0002b	ba 04 00 00 00	 mov	 edx, 4
  00030	f7 e2		 mul	 edx
  00032	0f 90 c1	 seto	 cl
  00035	f7 d9		 neg	 ecx
  00037	0b c8		 or	 ecx, eax
  00039	51		 push	 ecx
  0003a	e8 00 00 00 00	 call	 ??_U@YAPAXI@Z		; operator new[]
  0003f	8b c8		 mov	 ecx, eax
  00041	83 c4 04	 add	 esp, 4
  00044	89 4e 04	 mov	 DWORD PTR [esi+4], ecx

; 1435 : 		ENSURE(m_pHashTable != NULL);

  00047	85 c9		 test	 ecx, ecx
  00049	74 1c		 je	 SHORT $LN11@InitHashTa

; 1436 : 		memset(m_pHashTable, 0, sizeof(CAssoc*) * nHashSize);

  0004b	8d 04 bd 00 00
	00 00		 lea	 eax, DWORD PTR [edi*4]
  00052	50		 push	 eax
  00053	6a 00		 push	 0
  00055	51		 push	 ecx
  00056	e8 00 00 00 00	 call	 _memset
  0005b	83 c4 0c	 add	 esp, 12			; 0000000cH
$LN6@InitHashTa:

; 1437 : 	}
; 1438 : 	m_nHashTableSize = nHashSize;

  0005e	89 7e 08	 mov	 DWORD PTR [esi+8], edi
  00061	5f		 pop	 edi
  00062	5e		 pop	 esi

; 1439 : }

  00063	5d		 pop	 ebp
  00064	c2 08 00	 ret	 8
$LN11@InitHashTa:

; 1435 : 		ENSURE(m_pHashTable != NULL);

  00067	e8 00 00 00 00	 call	 ?AfxThrowInvalidArgException@@YGXXZ ; AfxThrowInvalidArgException
$LN9@InitHashTa:
  0006c	cc		 int	 3
?InitHashTable@?$CMap@V?$CStringT@DV?$StrTraitMFC_DLL@DV?$ChTraitsCRT@D@ATL@@@@@ATL@@PBDPAVCJongDataInListCtrl@@PAV3@@@QAEXIH@Z ENDP ; CMap<ATL::CStringT<char,StrTraitMFC_DLL<char,ATL::ChTraitsCRT<char> > >,char const *,CJongDataInListCtrl *,CJongDataInListCtrl *>::InitHashTable
_TEXT	ENDS
; Function compile flags: /Ogtp
; File C:\Program Files (x86)\Microsoft Visual Studio\2019\Community\VC\Tools\MSVC\14.29.30133\atlmfc\include\afxtempl.h
;	COMDAT ?GetNextAssoc@?$CMap@V?$CStringT@DV?$StrTraitMFC_DLL@DV?$ChTraitsCRT@D@ATL@@@@@ATL@@PBDPAVCJongDataInListCtrl@@PAV3@@@QBEXAAPAU__POSITION@@AAV?$CStringT@DV?$StrTraitMFC_DLL@DV?$ChTraitsCRT@D@ATL@@@@@ATL@@AAPAVCJongDataInListCtrl@@@Z
_TEXT	SEGMENT
_rNextPosition$ = 8					; size = 4
_rKey$ = 12						; size = 4
_rValue$ = 16						; size = 4
?GetNextAssoc@?$CMap@V?$CStringT@DV?$StrTraitMFC_DLL@DV?$ChTraitsCRT@D@ATL@@@@@ATL@@PBDPAVCJongDataInListCtrl@@PAV3@@@QBEXAAPAU__POSITION@@AAV?$CStringT@DV?$StrTraitMFC_DLL@DV?$ChTraitsCRT@D@ATL@@@@@ATL@@AAPAVCJongDataInListCtrl@@@Z PROC ; CMap<ATL::CStringT<char,StrTraitMFC_DLL<char,ATL::ChTraitsCRT<char> > >,char const *,CJongDataInListCtrl *,CJongDataInListCtrl *>::GetNextAssoc, COMDAT
; _this$ = ecx

; 1640 : {

  00000	55		 push	 ebp
  00001	8b ec		 mov	 ebp, esp
  00003	53		 push	 ebx
  00004	56		 push	 esi
  00005	57		 push	 edi
  00006	8b f9		 mov	 edi, ecx

; 1641 : 	ASSERT_VALID(this);
; 1642 : 	ENSURE(m_pHashTable != NULL);  // never call on empty map

  00008	8b 5f 04	 mov	 ebx, DWORD PTR [edi+4]
  0000b	85 db		 test	 ebx, ebx
  0000d	74 6e		 je	 SHORT $LN37@GetNextAss

; 1643 : 
; 1644 : 	CAssoc* pAssocRet = (CAssoc*)rNextPosition;

  0000f	8b 75 08	 mov	 esi, DWORD PTR _rNextPosition$[ebp]
  00012	8b 36		 mov	 esi, DWORD PTR [esi]

; 1645 : 	ENSURE(pAssocRet != NULL);

  00014	85 f6		 test	 esi, esi
  00016	74 65		 je	 SHORT $LN37@GetNextAss

; 1646 : 
; 1647 : 	if (pAssocRet == (CAssoc*) BEFORE_START_POSITION)

  00018	83 fe ff	 cmp	 esi, -1
  0001b	75 1b		 jne	 SHORT $LN12@GetNextAss

; 1648 : 	{
; 1649 : 		// find the first association
; 1650 : 		for (UINT nBucket = 0; nBucket < m_nHashTableSize; nBucket++)

  0001d	8b 57 08	 mov	 edx, DWORD PTR [edi+8]
  00020	33 c9		 xor	 ecx, ecx
  00022	85 d2		 test	 edx, edx
  00024	74 12		 je	 SHORT $LN12@GetNextAss
  00026	8b c3		 mov	 eax, ebx
$LL10@GetNextAss:

; 1651 : 		{
; 1652 : 			if ((pAssocRet = m_pHashTable[nBucket]) != NULL)

  00028	8b 30		 mov	 esi, DWORD PTR [eax]
  0002a	85 f6		 test	 esi, esi
  0002c	75 0a		 jne	 SHORT $LN12@GetNextAss

; 1648 : 	{
; 1649 : 		// find the first association
; 1650 : 		for (UINT nBucket = 0; nBucket < m_nHashTableSize; nBucket++)

  0002e	41		 inc	 ecx
  0002f	83 c0 04	 add	 eax, 4
  00032	3b ca		 cmp	 ecx, edx
  00034	73 47		 jae	 SHORT $LN37@GetNextAss
  00036	eb f0		 jmp	 SHORT $LL10@GetNextAss
$LN12@GetNextAss:

; 1658 : 	}
; 1659 : 
; 1660 : 	// find next association
; 1661 : 	ASSERT(AfxIsValidAddress(pAssocRet, sizeof(CAssoc)));
; 1662 : 	CAssoc* pAssocNext;
; 1663 : 	if ((pAssocNext = pAssocRet->pNext) == NULL)

  00038	8b 4e 08	 mov	 ecx, DWORD PTR [esi+8]
  0003b	85 c9		 test	 ecx, ecx
  0003d	75 20		 jne	 SHORT $LN38@GetNextAss

; 1664 : 	{
; 1665 : 		// go to next bucket
; 1666 : 		for (UINT nBucket = (pAssocRet->nHashValue % m_nHashTableSize) + 1;

  0003f	8b 7f 08	 mov	 edi, DWORD PTR [edi+8]
  00042	33 d2		 xor	 edx, edx
  00044	8b 46 0c	 mov	 eax, DWORD PTR [esi+12]
  00047	f7 f7		 div	 edi
  00049	42		 inc	 edx

; 1667 : 		  nBucket < m_nHashTableSize; nBucket++)

  0004a	3b d7		 cmp	 edx, edi
  0004c	73 11		 jae	 SHORT $LN38@GetNextAss

; 1668 : 			if ((pAssocNext = m_pHashTable[nBucket]) != NULL)

  0004e	8d 04 93	 lea	 eax, DWORD PTR [ebx+edx*4]
$LL16@GetNextAss:
  00051	8b 08		 mov	 ecx, DWORD PTR [eax]
  00053	85 c9		 test	 ecx, ecx
  00055	75 08		 jne	 SHORT $LN38@GetNextAss

; 1667 : 		  nBucket < m_nHashTableSize; nBucket++)

  00057	42		 inc	 edx
  00058	83 c0 04	 add	 eax, 4
  0005b	3b d7		 cmp	 edx, edi
  0005d	72 f2		 jb	 SHORT $LL16@GetNextAss
$LN38@GetNextAss:

; 1669 : 				break;
; 1670 : 	}
; 1671 : 
; 1672 : 	rNextPosition = (POSITION) pAssocNext;

  0005f	8b 45 08	 mov	 eax, DWORD PTR _rNextPosition$[ebp]

; 1673 : 
; 1674 : 	// fill in return data
; 1675 : 	rKey = pAssocRet->key;

  00062	56		 push	 esi
  00063	89 08		 mov	 DWORD PTR [eax], ecx
  00065	8b 4d 0c	 mov	 ecx, DWORD PTR _rKey$[ebp]
  00068	ff 15 00 00 00
	00		 call	 DWORD PTR __imp_??4?$CStringT@DV?$StrTraitMFC_DLL@DV?$ChTraitsCRT@D@ATL@@@@@ATL@@QAEAAV01@ABV01@@Z

; 1676 : 	rValue = pAssocRet->value;

  0006e	8b 45 10	 mov	 eax, DWORD PTR _rValue$[ebp]
  00071	8b 4e 04	 mov	 ecx, DWORD PTR [esi+4]

; 1677 : }

  00074	5f		 pop	 edi
  00075	5e		 pop	 esi
  00076	89 08		 mov	 DWORD PTR [eax], ecx
  00078	5b		 pop	 ebx
  00079	5d		 pop	 ebp
  0007a	c2 0c 00	 ret	 12			; 0000000cH
$LN37@GetNextAss:

; 1653 : 			{
; 1654 : 				break;
; 1655 : 			}
; 1656 : 		}
; 1657 : 		ENSURE(pAssocRet != NULL);  // must find something

  0007d	e8 00 00 00 00	 call	 ?AfxThrowInvalidArgException@@YGXXZ ; AfxThrowInvalidArgException
$LN39@GetNextAss:
  00082	cc		 int	 3
?GetNextAssoc@?$CMap@V?$CStringT@DV?$StrTraitMFC_DLL@DV?$ChTraitsCRT@D@ATL@@@@@ATL@@PBDPAVCJongDataInListCtrl@@PAV3@@@QBEXAAPAU__POSITION@@AAV?$CStringT@DV?$StrTraitMFC_DLL@DV?$ChTraitsCRT@D@ATL@@@@@ATL@@AAPAVCJongDataInListCtrl@@@Z ENDP ; CMap<ATL::CStringT<char,StrTraitMFC_DLL<char,ATL::ChTraitsCRT<char> > >,char const *,CJongDataInListCtrl *,CJongDataInListCtrl *>::GetNextAssoc
_TEXT	ENDS
; Function compile flags: /Ogtp
; File C:\Program Files (x86)\Microsoft Visual Studio\2019\Community\VC\Tools\MSVC\14.29.30133\atlmfc\include\afxtempl.h
;	COMDAT ?RemoveAll@?$CMap@V?$CStringT@DV?$StrTraitMFC_DLL@DV?$ChTraitsCRT@D@ATL@@@@@ATL@@PBDPAVCJongDataInListCtrl@@PAV3@@@QAEXXZ
_TEXT	SEGMENT
?RemoveAll@?$CMap@V?$CStringT@DV?$StrTraitMFC_DLL@DV?$ChTraitsCRT@D@ATL@@@@@ATL@@PBDPAVCJongDataInListCtrl@@PAV3@@@QAEXXZ PROC ; CMap<ATL::CStringT<char,StrTraitMFC_DLL<char,ATL::ChTraitsCRT<char> > >,char const *,CJongDataInListCtrl *,CJongDataInListCtrl *>::RemoveAll, COMDAT
; _this$ = ecx

; 1443 : {

  00000	57		 push	 edi
  00001	8b f9		 mov	 edi, ecx

; 1444 : 	ASSERT_VALID(this);
; 1445 : 
; 1446 : 	if (m_pHashTable != NULL)

  00003	8b 47 04	 mov	 eax, DWORD PTR [edi+4]
  00006	85 c0		 test	 eax, eax
  00008	74 44		 je	 SHORT $LN8@RemoveAll

; 1447 : 	{
; 1448 : 		// destroy elements (values and keys)
; 1449 : 		for (UINT nHash = 0; nHash < m_nHashTableSize; nHash++)

  0000a	53		 push	 ebx
  0000b	33 db		 xor	 ebx, ebx
  0000d	39 5f 08	 cmp	 DWORD PTR [edi+8], ebx
  00010	76 2b		 jbe	 SHORT $LN3@RemoveAll
  00012	56		 push	 esi
$LL4@RemoveAll:

; 1450 : 		{
; 1451 : 			CAssoc* pAssoc;
; 1452 : 			for (pAssoc = m_pHashTable[nHash]; pAssoc != NULL;

  00013	8b 34 98	 mov	 esi, DWORD PTR [eax+ebx*4]
  00016	8b c8		 mov	 ecx, eax
  00018	85 f6		 test	 esi, esi
  0001a	74 18		 je	 SHORT $LN2@RemoveAll
  0001c	0f 1f 40 00	 npad	 4
$LL7@RemoveAll:
  00020	8b ce		 mov	 ecx, esi
  00022	ff 15 00 00 00
	00		 call	 DWORD PTR __imp_??1?$CStringT@DV?$StrTraitMFC_DLL@DV?$ChTraitsCRT@D@ATL@@@@@ATL@@QAE@XZ

; 1453 : 			  pAssoc = pAssoc->pNext)

  00028	8b 76 08	 mov	 esi, DWORD PTR [esi+8]
  0002b	85 f6		 test	 esi, esi
  0002d	75 f1		 jne	 SHORT $LL7@RemoveAll
  0002f	8b 47 04	 mov	 eax, DWORD PTR [edi+4]
  00032	8b c8		 mov	 ecx, eax
$LN2@RemoveAll:

; 1447 : 	{
; 1448 : 		// destroy elements (values and keys)
; 1449 : 		for (UINT nHash = 0; nHash < m_nHashTableSize; nHash++)

  00034	43		 inc	 ebx
  00035	3b 5f 08	 cmp	 ebx, DWORD PTR [edi+8]
  00038	72 d9		 jb	 SHORT $LL4@RemoveAll
  0003a	8b c1		 mov	 eax, ecx
  0003c	5e		 pop	 esi
$LN3@RemoveAll:

; 1454 : 			{
; 1455 : 				pAssoc->CAssoc::~CAssoc();
; 1456 : 			}
; 1457 : 		}
; 1458 : 
; 1459 : 		// free hash table
; 1460 : 		delete[] m_pHashTable;

  0003d	50		 push	 eax
  0003e	e8 00 00 00 00	 call	 ??_V@YAXPAX@Z		; operator delete[]
  00043	83 c4 04	 add	 esp, 4

; 1461 : 		m_pHashTable = NULL;

  00046	c7 47 04 00 00
	00 00		 mov	 DWORD PTR [edi+4], 0
  0004d	5b		 pop	 ebx
$LN8@RemoveAll:

; 1462 : 	}
; 1463 : 
; 1464 : 	m_nCount = 0;
; 1465 : 	m_pFreeList = NULL;
; 1466 : 	m_pBlocks->FreeDataChain();

  0004e	8b 4f 14	 mov	 ecx, DWORD PTR [edi+20]
  00051	c7 47 0c 00 00
	00 00		 mov	 DWORD PTR [edi+12], 0
  00058	c7 47 10 00 00
	00 00		 mov	 DWORD PTR [edi+16], 0
  0005f	e8 00 00 00 00	 call	 ?FreeDataChain@CPlex@@QAEXXZ ; CPlex::FreeDataChain

; 1467 : 	m_pBlocks = NULL;

  00064	c7 47 14 00 00
	00 00		 mov	 DWORD PTR [edi+20], 0
  0006b	5f		 pop	 edi

; 1468 : }

  0006c	c3		 ret	 0
?RemoveAll@?$CMap@V?$CStringT@DV?$StrTraitMFC_DLL@DV?$ChTraitsCRT@D@ATL@@@@@ATL@@PBDPAVCJongDataInListCtrl@@PAV3@@@QAEXXZ ENDP ; CMap<ATL::CStringT<char,StrTraitMFC_DLL<char,ATL::ChTraitsCRT<char> > >,char const *,CJongDataInListCtrl *,CJongDataInListCtrl *>::RemoveAll
_TEXT	ENDS
; Function compile flags: /Ogtp
; File C:\Program Files (x86)\Microsoft Visual Studio\2019\Community\VC\Tools\MSVC\14.29.30133\atlmfc\include\afxtempl.h
; File C:\Program Files (x86)\Microsoft Visual Studio\2019\Community\VC\Tools\MSVC\14.29.30133\atlmfc\include\cstringt.h
; File C:\Program Files (x86)\Microsoft Visual Studio\2019\Community\VC\Tools\MSVC\14.29.30133\atlmfc\include\afxtempl.h
;	COMDAT ?RemoveKey@?$CMap@V?$CStringT@DV?$StrTraitMFC_DLL@DV?$ChTraitsCRT@D@ATL@@@@@ATL@@PBDPAVCJongDataInListCtrl@@PAV3@@@QAEHPBD@Z
_TEXT	SEGMENT
_nHashValue$1$ = -4					; size = 4
_key$ = 8						; size = 4
?RemoveKey@?$CMap@V?$CStringT@DV?$StrTraitMFC_DLL@DV?$ChTraitsCRT@D@ATL@@@@@ATL@@PBDPAVCJongDataInListCtrl@@PAV3@@@QAEHPBD@Z PROC ; CMap<ATL::CStringT<char,StrTraitMFC_DLL<char,ATL::ChTraitsCRT<char> > >,char const *,CJongDataInListCtrl *,CJongDataInListCtrl *>::RemoveKey, COMDAT
; _this$ = ecx

; 1611 : {

  00000	55		 push	 ebp
  00001	8b ec		 mov	 ebp, esp
  00003	51		 push	 ecx
  00004	53		 push	 ebx
  00005	8b d9		 mov	 ebx, ecx
  00007	56		 push	 esi
  00008	57		 push	 edi

; 1612 : 	ASSERT_VALID(this);
; 1613 : 
; 1614 : 	if (m_pHashTable == NULL)

  00009	83 7b 04 00	 cmp	 DWORD PTR [ebx+4], 0
  0000d	74 41		 je	 SHORT $LN34@RemoveKey

; 1615 : 		return FALSE;  // nothing in the table
; 1616 : 
; 1617 : 	UINT nHashValue;
; 1618 : 	CAssoc** ppAssocPrev;
; 1619 : 	nHashValue = HashKey<ARG_KEY>(key);

  0000f	ff 75 08	 push	 DWORD PTR _key$[ebp]
  00012	e8 00 00 00 00	 call	 ??$HashKey@PBD@@YGIPBD@Z ; HashKey<char const *>

; 1620 : 	ppAssocPrev = &m_pHashTable[nHashValue%m_nHashTableSize];

  00017	33 d2		 xor	 edx, edx
  00019	89 45 fc	 mov	 DWORD PTR _nHashValue$1$[ebp], eax
  0001c	f7 73 08	 div	 DWORD PTR [ebx+8]
  0001f	8b 4b 04	 mov	 ecx, DWORD PTR [ebx+4]

; 1621 : 
; 1622 : 	CAssoc* pAssoc;
; 1623 : 	for (pAssoc = *ppAssocPrev; pAssoc != NULL; pAssoc = pAssoc->pNext)

  00022	8b 34 91	 mov	 esi, DWORD PTR [ecx+edx*4]
  00025	8d 3c 91	 lea	 edi, DWORD PTR [ecx+edx*4]
  00028	85 f6		 test	 esi, esi
  0002a	74 24		 je	 SHORT $LN34@RemoveKey
  0002c	8b 45 fc	 mov	 eax, DWORD PTR _nHashValue$1$[ebp]
  0002f	90		 npad	 1
$LL4@RemoveKey:

; 1625 : 		if ((pAssoc->nHashValue == nHashValue) && CompareElements(&pAssoc->key, &key))

  00030	39 46 0c	 cmp	 DWORD PTR [esi+12], eax
  00033	75 12		 jne	 SHORT $LN6@RemoveKey
; File C:\Program Files (x86)\Microsoft Visual Studio\2019\Community\VC\Tools\MSVC\14.29.30133\atlmfc\include\cstringt.h

; 2486 : 		return(str1.Compare(psz2) == 0);

  00035	ff 75 08	 push	 DWORD PTR _key$[ebp]
  00038	8b ce		 mov	 ecx, esi
  0003a	ff 15 00 00 00
	00		 call	 DWORD PTR __imp_?Compare@?$CStringT@DV?$StrTraitMFC_DLL@DV?$ChTraitsCRT@D@ATL@@@@@ATL@@QBEHPBD@Z
  00040	85 c0		 test	 eax, eax
; File C:\Program Files (x86)\Microsoft Visual Studio\2019\Community\VC\Tools\MSVC\14.29.30133\atlmfc\include\afxtempl.h

; 1625 : 		if ((pAssoc->nHashValue == nHashValue) && CompareElements(&pAssoc->key, &key))

  00042	74 17		 je	 SHORT $LN30@RemoveKey
  00044	8b 45 fc	 mov	 eax, DWORD PTR _nHashValue$1$[ebp]
$LN6@RemoveKey:

; 1629 : 			FreeAssoc(pAssoc);
; 1630 : 			return TRUE;
; 1631 : 		}
; 1632 : 		ppAssocPrev = &pAssoc->pNext;

  00047	8d 7e 08	 lea	 edi, DWORD PTR [esi+8]
  0004a	8b 37		 mov	 esi, DWORD PTR [edi]
  0004c	85 f6		 test	 esi, esi
  0004e	75 e0		 jne	 SHORT $LL4@RemoveKey
$LN34@RemoveKey:
  00050	5f		 pop	 edi

; 1633 : 	}
; 1634 : 	return FALSE;  // not found
; 1635 : }

  00051	5e		 pop	 esi
  00052	33 c0		 xor	 eax, eax
  00054	5b		 pop	 ebx
  00055	8b e5		 mov	 esp, ebp
  00057	5d		 pop	 ebp
  00058	c2 04 00	 ret	 4
$LN30@RemoveKey:

; 1626 : 		{
; 1627 : 			// remove it
; 1628 : 			*ppAssocPrev = pAssoc->pNext;  // remove from list

  0005b	8b 46 08	 mov	 eax, DWORD PTR [esi+8]
  0005e	8b ce		 mov	 ecx, esi
  00060	89 07		 mov	 DWORD PTR [edi], eax
  00062	ff 15 00 00 00
	00		 call	 DWORD PTR __imp_??1?$CStringT@DV?$StrTraitMFC_DLL@DV?$ChTraitsCRT@D@ATL@@@@@ATL@@QAE@XZ

; 1518 : 	pAssoc->pNext = m_pFreeList;

  00068	8b 43 10	 mov	 eax, DWORD PTR [ebx+16]
  0006b	89 46 08	 mov	 DWORD PTR [esi+8], eax

; 1519 : 	m_pFreeList = pAssoc;
; 1520 : 	m_nCount--;

  0006e	83 43 0c ff	 add	 DWORD PTR [ebx+12], -1
  00072	89 73 10	 mov	 DWORD PTR [ebx+16], esi

; 1521 : 	ASSERT(m_nCount >= 0);  // make sure we don't underflow
; 1522 : 
; 1523 : 	// if no more elements, cleanup completely
; 1524 : 	if (m_nCount == 0)

  00075	75 07		 jne	 SHORT $LN20@RemoveKey

; 1525 : 		RemoveAll();

  00077	8b cb		 mov	 ecx, ebx
  00079	e8 00 00 00 00	 call	 ?RemoveAll@?$CMap@V?$CStringT@DV?$StrTraitMFC_DLL@DV?$ChTraitsCRT@D@ATL@@@@@ATL@@PBDPAVCJongDataInListCtrl@@PAV3@@@QAEXXZ ; CMap<ATL::CStringT<char,StrTraitMFC_DLL<char,ATL::ChTraitsCRT<char> > >,char const *,CJongDataInListCtrl *,CJongDataInListCtrl *>::RemoveAll
$LN20@RemoveKey:
  0007e	5f		 pop	 edi

; 1633 : 	}
; 1634 : 	return FALSE;  // not found
; 1635 : }

  0007f	5e		 pop	 esi
  00080	b8 01 00 00 00	 mov	 eax, 1
  00085	5b		 pop	 ebx
  00086	8b e5		 mov	 esp, ebp
  00088	5d		 pop	 ebp
  00089	c2 04 00	 ret	 4
?RemoveKey@?$CMap@V?$CStringT@DV?$StrTraitMFC_DLL@DV?$ChTraitsCRT@D@ATL@@@@@ATL@@PBDPAVCJongDataInListCtrl@@PAV3@@@QAEHPBD@Z ENDP ; CMap<ATL::CStringT<char,StrTraitMFC_DLL<char,ATL::ChTraitsCRT<char> > >,char const *,CJongDataInListCtrl *,CJongDataInListCtrl *>::RemoveKey
_TEXT	ENDS
; Function compile flags: /Ogtp
; File C:\Program Files (x86)\Microsoft Visual Studio\2019\Community\VC\Tools\MSVC\14.29.30133\atlmfc\include\afxtempl.h
;	COMDAT ?SetAt@?$CMap@V?$CStringT@DV?$StrTraitMFC_DLL@DV?$ChTraitsCRT@D@ATL@@@@@ATL@@PBDPAVCJongDataInListCtrl@@PAV3@@@QAEXPBDPAVCJongDataInListCtrl@@@Z
_TEXT	SEGMENT
_nHashBucket$1 = -8					; size = 4
_nHashValue$2 = -4					; size = 4
_key$ = 8						; size = 4
_newValue$ = 12						; size = 4
?SetAt@?$CMap@V?$CStringT@DV?$StrTraitMFC_DLL@DV?$ChTraitsCRT@D@ATL@@@@@ATL@@PBDPAVCJongDataInListCtrl@@PAV3@@@QAEXPBDPAVCJongDataInListCtrl@@@Z PROC ; CMap<ATL::CStringT<char,StrTraitMFC_DLL<char,ATL::ChTraitsCRT<char> > >,char const *,CJongDataInListCtrl *,CJongDataInListCtrl *>::SetAt, COMDAT
; _this$ = ecx

; 1350 : 	{ (*this)[key] = newValue; }

  00000	55		 push	 ebp
  00001	8b ec		 mov	 ebp, esp
  00003	83 ec 08	 sub	 esp, 8

; 1590 : 	if ((pAssoc = GetAssocAt(key, nHashBucket, nHashValue)) == NULL)

  00006	8d 45 fc	 lea	 eax, DWORD PTR _nHashValue$2[ebp]

; 1350 : 	{ (*this)[key] = newValue; }

  00009	56		 push	 esi
  0000a	57		 push	 edi

; 1590 : 	if ((pAssoc = GetAssocAt(key, nHashBucket, nHashValue)) == NULL)

  0000b	50		 push	 eax
  0000c	8d 45 f8	 lea	 eax, DWORD PTR _nHashBucket$1[ebp]

; 1350 : 	{ (*this)[key] = newValue; }

  0000f	8b f1		 mov	 esi, ecx

; 1590 : 	if ((pAssoc = GetAssocAt(key, nHashBucket, nHashValue)) == NULL)

  00011	50		 push	 eax
  00012	ff 75 08	 push	 DWORD PTR _key$[ebp]
  00015	e8 00 00 00 00	 call	 ?GetAssocAt@?$CMap@V?$CStringT@DV?$StrTraitMFC_DLL@DV?$ChTraitsCRT@D@ATL@@@@@ATL@@PBDPAVCJongDataInListCtrl@@PAV3@@@IBEPAVCAssoc@1@PBDAAI1@Z ; CMap<ATL::CStringT<char,StrTraitMFC_DLL<char,ATL::ChTraitsCRT<char> > >,char const *,CJongDataInListCtrl *,CJongDataInListCtrl *>::GetAssocAt
  0001a	8b f8		 mov	 edi, eax
  0001c	85 ff		 test	 edi, edi
  0001e	0f 85 d6 00 00
	00		 jne	 $LN7@SetAt

; 1591 : 	{
; 1592 : 		if (m_pHashTable == NULL)

  00024	8b 46 04	 mov	 eax, DWORD PTR [esi+4]
  00027	85 c0		 test	 eax, eax
  00029	75 4a		 jne	 SHORT $LN44@SetAt

; 1593 : 			InitHashTable(m_nHashTableSize);

  0002b	8b 7e 08	 mov	 edi, DWORD PTR [esi+8]

; 1434 : 		m_pHashTable = new CAssoc* [nHashSize];

  0002e	33 c9		 xor	 ecx, ecx
  00030	8b c7		 mov	 eax, edi
  00032	ba 04 00 00 00	 mov	 edx, 4
  00037	f7 e2		 mul	 edx
  00039	0f 90 c1	 seto	 cl
  0003c	f7 d9		 neg	 ecx
  0003e	0b c8		 or	 ecx, eax
  00040	51		 push	 ecx
  00041	e8 00 00 00 00	 call	 ??_U@YAPAXI@Z		; operator new[]
  00046	83 c4 04	 add	 esp, 4
  00049	89 46 04	 mov	 DWORD PTR [esi+4], eax

; 1435 : 		ENSURE(m_pHashTable != NULL);

  0004c	85 c0		 test	 eax, eax
  0004e	0f 84 b4 00 00
	00		 je	 $LN41@SetAt

; 1436 : 		memset(m_pHashTable, 0, sizeof(CAssoc*) * nHashSize);

  00054	8d 0c bd 00 00
	00 00		 lea	 ecx, DWORD PTR [edi*4]
  0005b	51		 push	 ecx
  0005c	6a 00		 push	 0
  0005e	50		 push	 eax
  0005f	e8 00 00 00 00	 call	 _memset

; 1437 : 	}
; 1438 : 	m_nHashTableSize = nHashSize;

  00064	8b 46 04	 mov	 eax, DWORD PTR [esi+4]
  00067	83 c4 0c	 add	 esp, 12			; 0000000cH
  0006a	89 7e 08	 mov	 DWORD PTR [esi+8], edi

; 1595 : 		ENSURE(m_pHashTable);

  0006d	85 c0		 test	 eax, eax
  0006f	0f 84 93 00 00
	00		 je	 $LN41@SetAt
$LN44@SetAt:

; 1481 : 	if (m_pFreeList == NULL)

  00075	83 7e 10 00	 cmp	 DWORD PTR [esi+16], 0
  00079	75 36		 jne	 SHORT $LN26@SetAt

; 1482 : 	{
; 1483 : 		// add another block
; 1484 : 		CPlex* newBlock = CPlex::Create(m_pBlocks, m_nBlockSize, sizeof(CMap::CAssoc));

  0007b	6a 10		 push	 16			; 00000010H
  0007d	ff 76 18	 push	 DWORD PTR [esi+24]
  00080	8d 46 14	 lea	 eax, DWORD PTR [esi+20]
  00083	50		 push	 eax
  00084	e8 00 00 00 00	 call	 ?Create@CPlex@@SGPAU1@AAPAU1@II@Z ; CPlex::Create

; 1485 : 		// chain them into free list
; 1486 : 		CMap::CAssoc* pAssoc = (CMap::CAssoc*) newBlock->data();
; 1487 : 		// free in reverse order to make it easier to debug
; 1488 : 		pAssoc += m_nBlockSize - 1;

  00089	8b 56 18	 mov	 edx, DWORD PTR [esi+24]
  0008c	83 c0 08	 add	 eax, 8
  0008f	8b ca		 mov	 ecx, edx
  00091	c1 e1 04	 shl	 ecx, 4
  00094	83 c1 f0	 add	 ecx, -16		; fffffff0H
  00097	03 c8		 add	 ecx, eax

; 1489 : 		for (INT_PTR i = m_nBlockSize-1; i >= 0; i--, pAssoc--)

  00099	83 c2 ff	 add	 edx, -1
  0009c	78 13		 js	 SHORT $LN26@SetAt
  0009e	66 90		 npad	 2
$LL23@SetAt:

; 1490 : 		{
; 1491 : 			pAssoc->pNext = m_pFreeList;

  000a0	8b 46 10	 mov	 eax, DWORD PTR [esi+16]
  000a3	89 41 08	 mov	 DWORD PTR [ecx+8], eax

; 1492 : 			m_pFreeList = pAssoc;

  000a6	89 4e 10	 mov	 DWORD PTR [esi+16], ecx
  000a9	83 e9 10	 sub	 ecx, 16			; 00000010H
  000ac	83 ea 01	 sub	 edx, 1
  000af	79 ef		 jns	 SHORT $LL23@SetAt
$LN26@SetAt:

; 1493 : 		}
; 1494 : 	}
; 1495 : 	ENSURE(m_pFreeList != NULL);  // we must have something

  000b1	8b 7e 10	 mov	 edi, DWORD PTR [esi+16]
  000b4	85 ff		 test	 edi, edi
  000b6	74 50		 je	 SHORT $LN41@SetAt

; 1496 : 
; 1497 : 	CMap::CAssoc* pAssoc = m_pFreeList;
; 1498 : 
; 1499 : 	// zero the memory
; 1500 : 	CMap::CAssoc* pTemp = pAssoc->pNext;

  000b8	8b 47 08	 mov	 eax, DWORD PTR [edi+8]
  000bb	0f 57 c0	 xorps	 xmm0, xmm0

; 1256 : 		CPair( ARG_KEY keyval ) : key( keyval )	{}

  000be	ff 75 08	 push	 DWORD PTR _key$[ebp]

; 1501 : 	memset( pAssoc, 0, sizeof(CMap::CAssoc) );

  000c1	0f 11 07	 movups	 XMMWORD PTR [edi], xmm0

; 1502 : 	pAssoc->pNext = pTemp;

  000c4	89 47 08	 mov	 DWORD PTR [edi+8], eax

; 1256 : 		CPair( ARG_KEY keyval ) : key( keyval )	{}

  000c7	8b cf		 mov	 ecx, edi

; 1504 : 	m_pFreeList = m_pFreeList->pNext;

  000c9	8b 46 10	 mov	 eax, DWORD PTR [esi+16]
  000cc	8b 40 08	 mov	 eax, DWORD PTR [eax+8]

; 1505 : 	m_nCount++;

  000cf	ff 46 0c	 inc	 DWORD PTR [esi+12]
  000d2	89 46 10	 mov	 DWORD PTR [esi+16], eax

; 1256 : 		CPair( ARG_KEY keyval ) : key( keyval )	{}

  000d5	ff 15 00 00 00
	00		 call	 DWORD PTR __imp_??0?$CStringT@DV?$StrTraitMFC_DLL@DV?$ChTraitsCRT@D@ATL@@@@@ATL@@QAE@PBD@Z

; 1598 : 		pAssoc->nHashValue = nHashValue;

  000db	8b 45 fc	 mov	 eax, DWORD PTR _nHashValue$2[ebp]
  000de	89 47 0c	 mov	 DWORD PTR [edi+12], eax

; 1599 : 		//'pAssoc->value' is a constructed object, nothing more
; 1600 : 
; 1601 : 		// put into hash table
; 1602 : 		pAssoc->pNext = m_pHashTable[nHashBucket];

  000e1	8b 45 f8	 mov	 eax, DWORD PTR _nHashBucket$1[ebp]
  000e4	8d 0c 85 00 00
	00 00		 lea	 ecx, DWORD PTR [eax*4]
  000eb	8b 46 04	 mov	 eax, DWORD PTR [esi+4]
  000ee	8b 04 01	 mov	 eax, DWORD PTR [ecx+eax]
  000f1	89 47 08	 mov	 DWORD PTR [edi+8], eax

; 1603 : 		m_pHashTable[nHashBucket] = pAssoc;

  000f4	8b 46 04	 mov	 eax, DWORD PTR [esi+4]
  000f7	89 3c 01	 mov	 DWORD PTR [ecx+eax], edi
$LN7@SetAt:

; 1350 : 	{ (*this)[key] = newValue; }

  000fa	8b 45 0c	 mov	 eax, DWORD PTR _newValue$[ebp]
  000fd	89 47 04	 mov	 DWORD PTR [edi+4], eax
  00100	5f		 pop	 edi
  00101	5e		 pop	 esi
  00102	8b e5		 mov	 esp, ebp
  00104	5d		 pop	 ebp
  00105	c2 08 00	 ret	 8
$LN41@SetAt:

; 1495 : 	ENSURE(m_pFreeList != NULL);  // we must have something

  00108	e8 00 00 00 00	 call	 ?AfxThrowInvalidArgException@@YGXXZ ; AfxThrowInvalidArgException
$LN42@SetAt:
  0010d	cc		 int	 3
?SetAt@?$CMap@V?$CStringT@DV?$StrTraitMFC_DLL@DV?$ChTraitsCRT@D@ATL@@@@@ATL@@PBDPAVCJongDataInListCtrl@@PAV3@@@QAEXPBDPAVCJongDataInListCtrl@@@Z ENDP ; CMap<ATL::CStringT<char,StrTraitMFC_DLL<char,ATL::ChTraitsCRT<char> > >,char const *,CJongDataInListCtrl *,CJongDataInListCtrl *>::SetAt
_TEXT	ENDS
; Function compile flags: /Ogtp
; File C:\Program Files (x86)\Microsoft Visual Studio\2019\Community\VC\Tools\MSVC\14.29.30133\atlmfc\include\afxtempl.h
;	COMDAT ??A?$CMap@V?$CStringT@DV?$StrTraitMFC_DLL@DV?$ChTraitsCRT@D@ATL@@@@@ATL@@PBDPAVCJongDataInListCtrl@@PAV3@@@QAEAAPAVCJongDataInListCtrl@@PBD@Z
_TEXT	SEGMENT
_nHashBucket$ = -8					; size = 4
_nHashValue$ = -4					; size = 4
_key$ = 8						; size = 4
??A?$CMap@V?$CStringT@DV?$StrTraitMFC_DLL@DV?$ChTraitsCRT@D@ATL@@@@@ATL@@PBDPAVCJongDataInListCtrl@@PAV3@@@QAEAAPAVCJongDataInListCtrl@@PBD@Z PROC ; CMap<ATL::CStringT<char,StrTraitMFC_DLL<char,ATL::ChTraitsCRT<char> > >,char const *,CJongDataInListCtrl *,CJongDataInListCtrl *>::operator[], COMDAT
; _this$ = ecx

; 1585 : {

  00000	55		 push	 ebp
  00001	8b ec		 mov	 ebp, esp
  00003	83 ec 08	 sub	 esp, 8

; 1586 : 	ASSERT_VALID(this);
; 1587 : 
; 1588 : 	UINT nHashBucket, nHashValue;
; 1589 : 	CAssoc* pAssoc;
; 1590 : 	if ((pAssoc = GetAssocAt(key, nHashBucket, nHashValue)) == NULL)

  00006	8d 45 fc	 lea	 eax, DWORD PTR _nHashValue$[ebp]
  00009	56		 push	 esi
  0000a	57		 push	 edi
  0000b	50		 push	 eax
  0000c	8d 45 f8	 lea	 eax, DWORD PTR _nHashBucket$[ebp]
  0000f	8b f1		 mov	 esi, ecx
  00011	50		 push	 eax
  00012	ff 75 08	 push	 DWORD PTR _key$[ebp]
  00015	e8 00 00 00 00	 call	 ?GetAssocAt@?$CMap@V?$CStringT@DV?$StrTraitMFC_DLL@DV?$ChTraitsCRT@D@ATL@@@@@ATL@@PBDPAVCJongDataInListCtrl@@PAV3@@@IBEPAVCAssoc@1@PBDAAI1@Z ; CMap<ATL::CStringT<char,StrTraitMFC_DLL<char,ATL::ChTraitsCRT<char> > >,char const *,CJongDataInListCtrl *,CJongDataInListCtrl *>::GetAssocAt
  0001a	8b f8		 mov	 edi, eax
  0001c	85 ff		 test	 edi, edi
  0001e	0f 85 d6 00 00
	00		 jne	 $LN5@operator

; 1591 : 	{
; 1592 : 		if (m_pHashTable == NULL)

  00024	8b 46 04	 mov	 eax, DWORD PTR [esi+4]
  00027	85 c0		 test	 eax, eax
  00029	75 4a		 jne	 SHORT $LN41@operator

; 1593 : 			InitHashTable(m_nHashTableSize);

  0002b	8b 7e 08	 mov	 edi, DWORD PTR [esi+8]

; 1434 : 		m_pHashTable = new CAssoc* [nHashSize];

  0002e	33 c9		 xor	 ecx, ecx
  00030	8b c7		 mov	 eax, edi
  00032	ba 04 00 00 00	 mov	 edx, 4
  00037	f7 e2		 mul	 edx
  00039	0f 90 c1	 seto	 cl
  0003c	f7 d9		 neg	 ecx
  0003e	0b c8		 or	 ecx, eax
  00040	51		 push	 ecx
  00041	e8 00 00 00 00	 call	 ??_U@YAPAXI@Z		; operator new[]
  00046	83 c4 04	 add	 esp, 4
  00049	89 46 04	 mov	 DWORD PTR [esi+4], eax

; 1435 : 		ENSURE(m_pHashTable != NULL);

  0004c	85 c0		 test	 eax, eax
  0004e	0f 84 b1 00 00
	00		 je	 $LN38@operator

; 1436 : 		memset(m_pHashTable, 0, sizeof(CAssoc*) * nHashSize);

  00054	8d 0c bd 00 00
	00 00		 lea	 ecx, DWORD PTR [edi*4]
  0005b	51		 push	 ecx
  0005c	6a 00		 push	 0
  0005e	50		 push	 eax
  0005f	e8 00 00 00 00	 call	 _memset

; 1437 : 	}
; 1438 : 	m_nHashTableSize = nHashSize;

  00064	8b 46 04	 mov	 eax, DWORD PTR [esi+4]
  00067	83 c4 0c	 add	 esp, 12			; 0000000cH
  0006a	89 7e 08	 mov	 DWORD PTR [esi+8], edi

; 1594 : 
; 1595 : 		ENSURE(m_pHashTable);

  0006d	85 c0		 test	 eax, eax
  0006f	0f 84 90 00 00
	00		 je	 $LN38@operator
$LN41@operator:

; 1481 : 	if (m_pFreeList == NULL)

  00075	83 7e 10 00	 cmp	 DWORD PTR [esi+16], 0
  00079	75 36		 jne	 SHORT $LN24@operator

; 1482 : 	{
; 1483 : 		// add another block
; 1484 : 		CPlex* newBlock = CPlex::Create(m_pBlocks, m_nBlockSize, sizeof(CMap::CAssoc));

  0007b	6a 10		 push	 16			; 00000010H
  0007d	ff 76 18	 push	 DWORD PTR [esi+24]
  00080	8d 46 14	 lea	 eax, DWORD PTR [esi+20]
  00083	50		 push	 eax
  00084	e8 00 00 00 00	 call	 ?Create@CPlex@@SGPAU1@AAPAU1@II@Z ; CPlex::Create

; 1485 : 		// chain them into free list
; 1486 : 		CMap::CAssoc* pAssoc = (CMap::CAssoc*) newBlock->data();
; 1487 : 		// free in reverse order to make it easier to debug
; 1488 : 		pAssoc += m_nBlockSize - 1;

  00089	8b 56 18	 mov	 edx, DWORD PTR [esi+24]
  0008c	83 c0 08	 add	 eax, 8
  0008f	8b ca		 mov	 ecx, edx
  00091	c1 e1 04	 shl	 ecx, 4
  00094	83 c1 f0	 add	 ecx, -16		; fffffff0H
  00097	03 c8		 add	 ecx, eax

; 1489 : 		for (INT_PTR i = m_nBlockSize-1; i >= 0; i--, pAssoc--)

  00099	83 c2 ff	 add	 edx, -1
  0009c	78 13		 js	 SHORT $LN24@operator
  0009e	66 90		 npad	 2
$LL21@operator:

; 1490 : 		{
; 1491 : 			pAssoc->pNext = m_pFreeList;

  000a0	8b 46 10	 mov	 eax, DWORD PTR [esi+16]
  000a3	89 41 08	 mov	 DWORD PTR [ecx+8], eax

; 1492 : 			m_pFreeList = pAssoc;

  000a6	89 4e 10	 mov	 DWORD PTR [esi+16], ecx
  000a9	83 e9 10	 sub	 ecx, 16			; 00000010H
  000ac	83 ea 01	 sub	 edx, 1
  000af	79 ef		 jns	 SHORT $LL21@operator
$LN24@operator:

; 1493 : 		}
; 1494 : 	}
; 1495 : 	ENSURE(m_pFreeList != NULL);  // we must have something

  000b1	8b 7e 10	 mov	 edi, DWORD PTR [esi+16]
  000b4	85 ff		 test	 edi, edi
  000b6	74 4d		 je	 SHORT $LN38@operator

; 1496 : 
; 1497 : 	CMap::CAssoc* pAssoc = m_pFreeList;
; 1498 : 
; 1499 : 	// zero the memory
; 1500 : 	CMap::CAssoc* pTemp = pAssoc->pNext;

  000b8	8b 47 08	 mov	 eax, DWORD PTR [edi+8]
  000bb	0f 57 c0	 xorps	 xmm0, xmm0

; 1256 : 		CPair( ARG_KEY keyval ) : key( keyval )	{}

  000be	ff 75 08	 push	 DWORD PTR _key$[ebp]

; 1501 : 	memset( pAssoc, 0, sizeof(CMap::CAssoc) );

  000c1	0f 11 07	 movups	 XMMWORD PTR [edi], xmm0

; 1502 : 	pAssoc->pNext = pTemp;

  000c4	89 47 08	 mov	 DWORD PTR [edi+8], eax

; 1256 : 		CPair( ARG_KEY keyval ) : key( keyval )	{}

  000c7	8b cf		 mov	 ecx, edi

; 1504 : 	m_pFreeList = m_pFreeList->pNext;

  000c9	8b 46 10	 mov	 eax, DWORD PTR [esi+16]
  000cc	8b 40 08	 mov	 eax, DWORD PTR [eax+8]

; 1505 : 	m_nCount++;

  000cf	ff 46 0c	 inc	 DWORD PTR [esi+12]
  000d2	89 46 10	 mov	 DWORD PTR [esi+16], eax

; 1256 : 		CPair( ARG_KEY keyval ) : key( keyval )	{}

  000d5	ff 15 00 00 00
	00		 call	 DWORD PTR __imp_??0?$CStringT@DV?$StrTraitMFC_DLL@DV?$ChTraitsCRT@D@ATL@@@@@ATL@@QAE@PBD@Z

; 1596 : 		// it doesn't exist, add a new Association
; 1597 : 		pAssoc = NewAssoc(key);
; 1598 : 		pAssoc->nHashValue = nHashValue;

  000db	8b 45 fc	 mov	 eax, DWORD PTR _nHashValue$[ebp]
  000de	89 47 0c	 mov	 DWORD PTR [edi+12], eax

; 1599 : 		//'pAssoc->value' is a constructed object, nothing more
; 1600 : 
; 1601 : 		// put into hash table
; 1602 : 		pAssoc->pNext = m_pHashTable[nHashBucket];

  000e1	8b 45 f8	 mov	 eax, DWORD PTR _nHashBucket$[ebp]
  000e4	8d 0c 85 00 00
	00 00		 lea	 ecx, DWORD PTR [eax*4]
  000eb	8b 46 04	 mov	 eax, DWORD PTR [esi+4]
  000ee	8b 04 01	 mov	 eax, DWORD PTR [ecx+eax]
  000f1	89 47 08	 mov	 DWORD PTR [edi+8], eax

; 1603 : 		m_pHashTable[nHashBucket] = pAssoc;

  000f4	8b 46 04	 mov	 eax, DWORD PTR [esi+4]
  000f7	89 3c 01	 mov	 DWORD PTR [ecx+eax], edi
$LN5@operator:

; 1604 : 	}
; 1605 : 	return pAssoc->value;  // return new reference

  000fa	8d 47 04	 lea	 eax, DWORD PTR [edi+4]
  000fd	5f		 pop	 edi
  000fe	5e		 pop	 esi

; 1606 : }

  000ff	8b e5		 mov	 esp, ebp
  00101	5d		 pop	 ebp
  00102	c2 04 00	 ret	 4
$LN38@operator:

; 1495 : 	ENSURE(m_pFreeList != NULL);  // we must have something

  00105	e8 00 00 00 00	 call	 ?AfxThrowInvalidArgException@@YGXXZ ; AfxThrowInvalidArgException
$LN39@operator:
  0010a	cc		 int	 3
??A?$CMap@V?$CStringT@DV?$StrTraitMFC_DLL@DV?$ChTraitsCRT@D@ATL@@@@@ATL@@PBDPAVCJongDataInListCtrl@@PAV3@@@QAEAAPAVCJongDataInListCtrl@@PBD@Z ENDP ; CMap<ATL::CStringT<char,StrTraitMFC_DLL<char,ATL::ChTraitsCRT<char> > >,char const *,CJongDataInListCtrl *,CJongDataInListCtrl *>::operator[]
_TEXT	ENDS
; Function compile flags: /Ogtp
; File C:\Program Files (x86)\Microsoft Visual Studio\2019\Community\VC\Tools\MSVC\14.29.30133\atlmfc\include\afxtempl.h
;	COMDAT ?Lookup@?$CMap@V?$CStringT@DV?$StrTraitMFC_DLL@DV?$ChTraitsCRT@D@ATL@@@@@ATL@@PBDPAVCJongDataInListCtrl@@PAV3@@@QBEHPBDAAPAVCJongDataInListCtrl@@@Z
_TEXT	SEGMENT
_nHashBucket$ = -8					; size = 4
_nHashValue$ = -4					; size = 4
_key$ = 8						; size = 4
_rValue$ = 12						; size = 4
?Lookup@?$CMap@V?$CStringT@DV?$StrTraitMFC_DLL@DV?$ChTraitsCRT@D@ATL@@@@@ATL@@PBDPAVCJongDataInListCtrl@@PAV3@@@QBEHPBDAAPAVCJongDataInListCtrl@@@Z PROC ; CMap<ATL::CStringT<char,StrTraitMFC_DLL<char,ATL::ChTraitsCRT<char> > >,char const *,CJongDataInListCtrl *,CJongDataInListCtrl *>::Lookup, COMDAT
; _this$ = ecx

; 1551 : {

  00000	55		 push	 ebp
  00001	8b ec		 mov	 ebp, esp
  00003	83 ec 08	 sub	 esp, 8

; 1552 : 	ASSERT_VALID(this);
; 1553 : 
; 1554 : 	UINT nHashBucket, nHashValue;
; 1555 : 	CAssoc* pAssoc = GetAssocAt(key, nHashBucket, nHashValue);

  00006	8d 45 fc	 lea	 eax, DWORD PTR _nHashValue$[ebp]
  00009	50		 push	 eax
  0000a	8d 45 f8	 lea	 eax, DWORD PTR _nHashBucket$[ebp]
  0000d	50		 push	 eax
  0000e	ff 75 08	 push	 DWORD PTR _key$[ebp]
  00011	e8 00 00 00 00	 call	 ?GetAssocAt@?$CMap@V?$CStringT@DV?$StrTraitMFC_DLL@DV?$ChTraitsCRT@D@ATL@@@@@ATL@@PBDPAVCJongDataInListCtrl@@PAV3@@@IBEPAVCAssoc@1@PBDAAI1@Z ; CMap<ATL::CStringT<char,StrTraitMFC_DLL<char,ATL::ChTraitsCRT<char> > >,char const *,CJongDataInListCtrl *,CJongDataInListCtrl *>::GetAssocAt

; 1556 : 	if (pAssoc == NULL)

  00016	85 c0		 test	 eax, eax
  00018	75 06		 jne	 SHORT $LN2@Lookup

; 1561 : }

  0001a	8b e5		 mov	 esp, ebp
  0001c	5d		 pop	 ebp
  0001d	c2 08 00	 ret	 8
$LN2@Lookup:

; 1557 : 		return FALSE;  // not in map
; 1558 : 
; 1559 : 	rValue = pAssoc->value;

  00020	8b 48 04	 mov	 ecx, DWORD PTR [eax+4]
  00023	8b 45 0c	 mov	 eax, DWORD PTR _rValue$[ebp]
  00026	89 08		 mov	 DWORD PTR [eax], ecx

; 1560 : 	return TRUE;

  00028	b8 01 00 00 00	 mov	 eax, 1

; 1561 : }

  0002d	8b e5		 mov	 esp, ebp
  0002f	5d		 pop	 ebp
  00030	c2 08 00	 ret	 8
?Lookup@?$CMap@V?$CStringT@DV?$StrTraitMFC_DLL@DV?$ChTraitsCRT@D@ATL@@@@@ATL@@PBDPAVCJongDataInListCtrl@@PAV3@@@QBEHPBDAAPAVCJongDataInListCtrl@@@Z ENDP ; CMap<ATL::CStringT<char,StrTraitMFC_DLL<char,ATL::ChTraitsCRT<char> > >,char const *,CJongDataInListCtrl *,CJongDataInListCtrl *>::Lookup
_TEXT	ENDS
; Function compile flags: /Ogtp
; File C:\Program Files (x86)\Microsoft Visual Studio\2019\Community\VC\Tools\MSVC\14.29.30133\atlmfc\include\afxtempl.h
;	COMDAT ??0?$CMap@V?$CStringT@DV?$StrTraitMFC_DLL@DV?$ChTraitsCRT@D@ATL@@@@@ATL@@PBDPAVCJongDataInListCtrl@@PAV3@@@QAE@H@Z
_TEXT	SEGMENT
_nBlockSize$ = 8					; size = 4
??0?$CMap@V?$CStringT@DV?$StrTraitMFC_DLL@DV?$ChTraitsCRT@D@ATL@@@@@ATL@@PBDPAVCJongDataInListCtrl@@PAV3@@@QAE@H@Z PROC ; CMap<ATL::CStringT<char,StrTraitMFC_DLL<char,ATL::ChTraitsCRT<char> > >,char const *,CJongDataInListCtrl *,CJongDataInListCtrl *>::CMap<ATL::CStringT<char,StrTraitMFC_DLL<char,ATL::ChTraitsCRT<char> > >,char const *,CJongDataInListCtrl *,CJongDataInListCtrl *>, COMDAT
; _this$ = ecx

; 1403 : {

  00000	55		 push	 ebp
  00001	8b ec		 mov	 ebp, esp

; 1404 : 	ASSERT(nBlockSize > 0);
; 1405 : 
; 1406 : 	m_pHashTable = NULL;
; 1407 : 	m_nHashTableSize = 17;  // default size
; 1408 : 	m_nCount = 0;
; 1409 : 	m_pFreeList = NULL;
; 1410 : 	m_pBlocks = NULL;
; 1411 : 	m_nBlockSize = nBlockSize;

  00003	8b 45 08	 mov	 eax, DWORD PTR _nBlockSize$[ebp]
  00006	89 41 18	 mov	 DWORD PTR [ecx+24], eax

; 1412 : }

  00009	8b c1		 mov	 eax, ecx
  0000b	c7 01 00 00 00
	00		 mov	 DWORD PTR [ecx], OFFSET ??_7?$CMap@V?$CStringT@DV?$StrTraitMFC_DLL@DV?$ChTraitsCRT@D@ATL@@@@@ATL@@PBDPAVCJongDataInListCtrl@@PAV3@@@6B@
  00011	c7 41 04 00 00
	00 00		 mov	 DWORD PTR [ecx+4], 0
  00018	c7 41 08 11 00
	00 00		 mov	 DWORD PTR [ecx+8], 17	; 00000011H
  0001f	c7 41 0c 00 00
	00 00		 mov	 DWORD PTR [ecx+12], 0
  00026	c7 41 10 00 00
	00 00		 mov	 DWORD PTR [ecx+16], 0
  0002d	c7 41 14 00 00
	00 00		 mov	 DWORD PTR [ecx+20], 0
  00034	5d		 pop	 ebp
  00035	c2 04 00	 ret	 4
??0?$CMap@V?$CStringT@DV?$StrTraitMFC_DLL@DV?$ChTraitsCRT@D@ATL@@@@@ATL@@PBDPAVCJongDataInListCtrl@@PAV3@@@QAE@H@Z ENDP ; CMap<ATL::CStringT<char,StrTraitMFC_DLL<char,ATL::ChTraitsCRT<char> > >,char const *,CJongDataInListCtrl *,CJongDataInListCtrl *>::CMap<ATL::CStringT<char,StrTraitMFC_DLL<char,ATL::ChTraitsCRT<char> > >,char const *,CJongDataInListCtrl *,CJongDataInListCtrl *>
_TEXT	ENDS
; Function compile flags: /Ogtp
; File D:\git\src\IBK\IBK_DRFN\ProjSrc\SrcDrfn\Chart\comparechart\XListCtrlJongData.cpp
; File C:\Program Files (x86)\Microsoft Visual Studio\2019\Community\VC\Tools\MSVC\14.29.30133\atlmfc\include\afxtempl.h
; File D:\git\src\IBK\IBK_DRFN\ProjSrc\SrcDrfn\Chart\comparechart\XListCtrlJongData.cpp
; File C:\Program Files (x86)\Microsoft Visual Studio\2019\Community\VC\Tools\MSVC\14.29.30133\atlmfc\include\afxtempl.h
; File D:\git\src\IBK\IBK_DRFN\ProjSrc\SrcDrfn\Chart\comparechart\XListCtrlJongData.cpp
; File C:\Program Files (x86)\Microsoft Visual Studio\2019\Community\VC\Tools\MSVC\14.29.30133\atlmfc\include\afxtempl.h
; File D:\git\src\IBK\IBK_DRFN\ProjSrc\SrcDrfn\Chart\comparechart\XListCtrlJongData.cpp
; File C:\Program Files (x86)\Microsoft Visual Studio\2019\Community\VC\Tools\MSVC\14.29.30133\atlmfc\include\afxtempl.h
; File D:\git\src\IBK\IBK_DRFN\ProjSrc\SrcDrfn\Chart\comparechart\XListCtrlJongData.cpp
;	COMDAT ?GetListOfChecked@CXListCtrlJongData@@QAEXPAVCStringList@@@Z
_TEXT	SEGMENT
_this$1$ = -20						; size = 4
_strJCode$ = -16					; size = 4
__$EHRec$ = -12						; size = 12
_pListChecked$ = 8					; size = 4
?GetListOfChecked@CXListCtrlJongData@@QAEXPAVCStringList@@@Z PROC ; CXListCtrlJongData::GetListOfChecked, COMDAT
; _this$ = ecx

; 1305 : {

  00000	55		 push	 ebp
  00001	8b ec		 mov	 ebp, esp
  00003	6a ff		 push	 -1
  00005	68 00 00 00 00	 push	 __ehhandler$?GetListOfChecked@CXListCtrlJongData@@QAEXPAVCStringList@@@Z
  0000a	64 a1 00 00 00
	00		 mov	 eax, DWORD PTR fs:0
  00010	50		 push	 eax
  00011	83 ec 08	 sub	 esp, 8
  00014	53		 push	 ebx
  00015	56		 push	 esi
  00016	57		 push	 edi
  00017	a1 00 00 00 00	 mov	 eax, DWORD PTR ___security_cookie
  0001c	33 c5		 xor	 eax, ebp
  0001e	50		 push	 eax
  0001f	8d 45 f4	 lea	 eax, DWORD PTR __$EHRec$[ebp]
  00022	64 a3 00 00 00
	00		 mov	 DWORD PTR fs:0, eax
  00028	89 4d ec	 mov	 DWORD PTR _this$1$[ebp], ecx

; 1306 : 	if(!pListChecked) return;

  0002b	83 7d 08 00	 cmp	 DWORD PTR _pListChecked$[ebp], 0
  0002f	0f 84 cd 00 00
	00		 je	 $LN1@GetListOfC
; File C:\Program Files (x86)\Microsoft Visual Studio\2019\Community\VC\Tools\MSVC\14.29.30133\atlmfc\include\afxtempl.h

; 1354 : 	{ return (m_nCount == 0) ? NULL : BEFORE_START_POSITION; }

  00035	8b b9 a4 02 00
	00		 mov	 edi, DWORD PTR [ecx+676]
  0003b	8b f7		 mov	 esi, edi
  0003d	f7 de		 neg	 esi
; File D:\git\src\IBK\IBK_DRFN\ProjSrc\SrcDrfn\Chart\comparechart\XListCtrlJongData.cpp

; 1308 : 	CString strJCode;

  0003f	8d 4d f0	 lea	 ecx, DWORD PTR _strJCode$[ebp]
; File C:\Program Files (x86)\Microsoft Visual Studio\2019\Community\VC\Tools\MSVC\14.29.30133\atlmfc\include\afxtempl.h

; 1354 : 	{ return (m_nCount == 0) ? NULL : BEFORE_START_POSITION; }

  00042	1b f6		 sbb	 esi, esi
; File D:\git\src\IBK\IBK_DRFN\ProjSrc\SrcDrfn\Chart\comparechart\XListCtrlJongData.cpp

; 1308 : 	CString strJCode;

  00044	ff 15 00 00 00
	00		 call	 DWORD PTR __imp_??0?$CStringT@DV?$StrTraitMFC_DLL@DV?$ChTraitsCRT@D@ATL@@@@@ATL@@QAE@XZ
  0004a	c7 45 fc 00 00
	00 00		 mov	 DWORD PTR __$EHRec$[ebp+8], 0

; 1309 : 	CJongDataInListCtrl* pJongDataInListCtrl = NULL;
; 1310 : 	while(pos)

  00051	85 ff		 test	 edi, edi
  00053	0f 84 a0 00 00
	00		 je	 $LN3@GetListOfC
  00059	0f 1f 80 00 00
	00 00		 npad	 7
$LL2@GetListOfC:
; File C:\Program Files (x86)\Microsoft Visual Studio\2019\Community\VC\Tools\MSVC\14.29.30133\atlmfc\include\afxtempl.h

; 1642 : 	ENSURE(m_pHashTable != NULL);  // never call on empty map

  00060	8b 45 ec	 mov	 eax, DWORD PTR _this$1$[ebp]
  00063	8b 98 9c 02 00
	00		 mov	 ebx, DWORD PTR [eax+668]
  00069	85 db		 test	 ebx, ebx
  0006b	0f 84 a5 00 00
	00		 je	 $LN43@GetListOfC

; 1643 : 
; 1644 : 	CAssoc* pAssocRet = (CAssoc*)rNextPosition;

  00071	8b fe		 mov	 edi, esi

; 1645 : 	ENSURE(pAssocRet != NULL);

  00073	85 f6		 test	 esi, esi
  00075	0f 84 9b 00 00
	00		 je	 $LN43@GetListOfC

; 1646 : 
; 1647 : 	if (pAssocRet == (CAssoc*) BEFORE_START_POSITION)

  0007b	83 fe ff	 cmp	 esi, -1
  0007e	75 23		 jne	 SHORT $LN22@GetListOfC

; 1648 : 	{
; 1649 : 		// find the first association
; 1650 : 		for (UINT nBucket = 0; nBucket < m_nHashTableSize; nBucket++)

  00080	8b 90 a0 02 00
	00		 mov	 edx, DWORD PTR [eax+672]
  00086	33 c9		 xor	 ecx, ecx
  00088	85 d2		 test	 edx, edx
  0008a	74 17		 je	 SHORT $LN22@GetListOfC
  0008c	8b c3		 mov	 eax, ebx
  0008e	66 90		 npad	 2
$LL20@GetListOfC:

; 1651 : 		{
; 1652 : 			if ((pAssocRet = m_pHashTable[nBucket]) != NULL)

  00090	8b 38		 mov	 edi, DWORD PTR [eax]
  00092	85 ff		 test	 edi, edi
  00094	75 0a		 jne	 SHORT $LN55@GetListOfC

; 1648 : 	{
; 1649 : 		// find the first association
; 1650 : 		for (UINT nBucket = 0; nBucket < m_nHashTableSize; nBucket++)

  00096	41		 inc	 ecx
  00097	83 c0 04	 add	 eax, 4
  0009a	3b ca		 cmp	 ecx, edx
  0009c	73 78		 jae	 SHORT $LN43@GetListOfC
  0009e	eb f0		 jmp	 SHORT $LL20@GetListOfC
$LN55@GetListOfC:

; 1651 : 		{
; 1652 : 			if ((pAssocRet = m_pHashTable[nBucket]) != NULL)

  000a0	8b 45 ec	 mov	 eax, DWORD PTR _this$1$[ebp]
$LN22@GetListOfC:

; 1658 : 	}
; 1659 : 
; 1660 : 	// find next association
; 1661 : 	ASSERT(AfxIsValidAddress(pAssocRet, sizeof(CAssoc)));
; 1662 : 	CAssoc* pAssocNext;
; 1663 : 	if ((pAssocNext = pAssocRet->pNext) == NULL)

  000a3	8b 77 08	 mov	 esi, DWORD PTR [edi+8]
  000a6	85 f6		 test	 esi, esi
  000a8	75 24		 jne	 SHORT $LN40@GetListOfC

; 1664 : 	{
; 1665 : 		// go to next bucket
; 1666 : 		for (UINT nBucket = (pAssocRet->nHashValue % m_nHashTableSize) + 1;

  000aa	8b 88 a0 02 00
	00		 mov	 ecx, DWORD PTR [eax+672]
  000b0	33 d2		 xor	 edx, edx
  000b2	8b 47 0c	 mov	 eax, DWORD PTR [edi+12]
  000b5	f7 f1		 div	 ecx
  000b7	42		 inc	 edx

; 1667 : 		  nBucket < m_nHashTableSize; nBucket++)

  000b8	3b d1		 cmp	 edx, ecx
  000ba	73 12		 jae	 SHORT $LN40@GetListOfC

; 1668 : 			if ((pAssocNext = m_pHashTable[nBucket]) != NULL)

  000bc	8d 04 93	 lea	 eax, DWORD PTR [ebx+edx*4]
  000bf	90		 npad	 1
$LL26@GetListOfC:
  000c0	8b 30		 mov	 esi, DWORD PTR [eax]
  000c2	85 f6		 test	 esi, esi
  000c4	75 08		 jne	 SHORT $LN40@GetListOfC

; 1667 : 		  nBucket < m_nHashTableSize; nBucket++)

  000c6	42		 inc	 edx
  000c7	83 c0 04	 add	 eax, 4
  000ca	3b d1		 cmp	 edx, ecx
  000cc	72 f2		 jb	 SHORT $LL26@GetListOfC
$LN40@GetListOfC:

; 1669 : 				break;
; 1670 : 	}
; 1671 : 
; 1672 : 	rNextPosition = (POSITION) pAssocNext;
; 1673 : 
; 1674 : 	// fill in return data
; 1675 : 	rKey = pAssocRet->key;

  000ce	57		 push	 edi
  000cf	8d 4d f0	 lea	 ecx, DWORD PTR _strJCode$[ebp]
  000d2	ff 15 00 00 00
	00		 call	 DWORD PTR __imp_??4?$CStringT@DV?$StrTraitMFC_DLL@DV?$ChTraitsCRT@D@ATL@@@@@ATL@@QAEAAV01@ABV01@@Z

; 1676 : 	rValue = pAssocRet->value;

  000d8	8b 47 04	 mov	 eax, DWORD PTR [edi+4]
; File D:\git\src\IBK\IBK_DRFN\ProjSrc\SrcDrfn\Chart\comparechart\XListCtrlJongData.cpp

; 1313 : 		if(pJongDataInListCtrl)

  000db	85 c0		 test	 eax, eax
  000dd	74 12		 je	 SHORT $LN6@GetListOfC

; 1314 : 		{
; 1315 : 			if(pJongDataInListCtrl->m_bCheck)

  000df	83 78 20 00	 cmp	 DWORD PTR [eax+32], 0
  000e3	74 0c		 je	 SHORT $LN6@GetListOfC

; 1316 : 			{
; 1317 : 				pListChecked->AddTail(strJCode);

  000e5	8b 4d 08	 mov	 ecx, DWORD PTR _pListChecked$[ebp]
  000e8	8d 45 f0	 lea	 eax, DWORD PTR _strJCode$[ebp]
  000eb	50		 push	 eax
  000ec	e8 00 00 00 00	 call	 ?AddTail@CStringList@@QAEPAU__POSITION@@ABV?$CStringT@DV?$StrTraitMFC_DLL@DV?$ChTraitsCRT@D@ATL@@@@@ATL@@@Z ; CStringList::AddTail
$LN6@GetListOfC:

; 1309 : 	CJongDataInListCtrl* pJongDataInListCtrl = NULL;
; 1310 : 	while(pos)

  000f1	85 f6		 test	 esi, esi
  000f3	0f 85 67 ff ff
	ff		 jne	 $LL2@GetListOfC
$LN3@GetListOfC:

; 1321 : }

  000f9	8d 4d f0	 lea	 ecx, DWORD PTR _strJCode$[ebp]
  000fc	ff 15 00 00 00
	00		 call	 DWORD PTR __imp_??1?$CStringT@DV?$StrTraitMFC_DLL@DV?$ChTraitsCRT@D@ATL@@@@@ATL@@QAE@XZ
$LN1@GetListOfC:
  00102	8b 4d f4	 mov	 ecx, DWORD PTR __$EHRec$[ebp]
  00105	64 89 0d 00 00
	00 00		 mov	 DWORD PTR fs:0, ecx
  0010c	59		 pop	 ecx
  0010d	5f		 pop	 edi
  0010e	5e		 pop	 esi
  0010f	5b		 pop	 ebx
  00110	8b e5		 mov	 esp, ebp
  00112	5d		 pop	 ebp
  00113	c2 04 00	 ret	 4
$LN43@GetListOfC:
; File C:\Program Files (x86)\Microsoft Visual Studio\2019\Community\VC\Tools\MSVC\14.29.30133\atlmfc\include\afxtempl.h

; 1657 : 		ENSURE(pAssocRet != NULL);  // must find something

  00116	e8 00 00 00 00	 call	 ?AfxThrowInvalidArgException@@YGXXZ ; AfxThrowInvalidArgException
$LN57@GetListOfC:
  0011b	cc		 int	 3
_TEXT	ENDS
;	COMDAT text$x
text$x	SEGMENT
__unwindfunclet$?GetListOfChecked@CXListCtrlJongData@@QAEXPAVCStringList@@@Z$0:
  00000	8d 4d f0	 lea	 ecx, DWORD PTR _strJCode$[ebp]
  00003	ff 25 00 00 00
	00		 jmp	 DWORD PTR __imp_??1?$CStringT@DV?$StrTraitMFC_DLL@DV?$ChTraitsCRT@D@ATL@@@@@ATL@@QAE@XZ
  00009	cc		 int	 3
  0000a	cc		 int	 3
  0000b	cc		 int	 3
  0000c	cc		 int	 3
  0000d	cc		 int	 3
__ehhandler$?GetListOfChecked@CXListCtrlJongData@@QAEXPAVCStringList@@@Z:
  0000e	90		 npad	 1
  0000f	90		 npad	 1
  00010	8b 54 24 08	 mov	 edx, DWORD PTR [esp+8]
  00014	8d 42 0c	 lea	 eax, DWORD PTR [edx+12]
  00017	8b 4a e8	 mov	 ecx, DWORD PTR [edx-24]
  0001a	33 c8		 xor	 ecx, eax
  0001c	e8 00 00 00 00	 call	 @__security_check_cookie@4
  00021	b8 00 00 00 00	 mov	 eax, OFFSET __ehfuncinfo$?GetListOfChecked@CXListCtrlJongData@@QAEXPAVCStringList@@@Z
  00026	e9 00 00 00 00	 jmp	 ___CxxFrameHandler3
text$x	ENDS
?GetListOfChecked@CXListCtrlJongData@@QAEXPAVCStringList@@@Z ENDP ; CXListCtrlJongData::GetListOfChecked
; Function compile flags: /Ogtp
; File D:\git\src\IBK\IBK_DRFN\ProjSrc\SrcDrfn\Chart\comparechart\XListCtrlJongData.cpp
;	COMDAT ?GetCommentAboutHighlight@CXListCtrlJongData@@QAE?AV?$CStringT@DV?$StrTraitMFC_DLL@DV?$ChTraitsCRT@D@ATL@@@@@ATL@@XZ
_TEXT	SEGMENT
$T2 = -24						; size = 4
_lLastIndex$ = -20					; size = 4
_lFirstIndex$ = -16					; size = 4
__$EHRec$ = -12						; size = 12
___$ReturnUdt$ = 8					; size = 4
?GetCommentAboutHighlight@CXListCtrlJongData@@QAE?AV?$CStringT@DV?$StrTraitMFC_DLL@DV?$ChTraitsCRT@D@ATL@@@@@ATL@@XZ PROC ; CXListCtrlJongData::GetCommentAboutHighlight, COMDAT
; _this$ = ecx

; 1371 : {

  00000	55		 push	 ebp
  00001	8b ec		 mov	 ebp, esp
  00003	6a ff		 push	 -1
  00005	68 00 00 00 00	 push	 __ehhandler$?GetCommentAboutHighlight@CXListCtrlJongData@@QAE?AV?$CStringT@DV?$StrTraitMFC_DLL@DV?$ChTraitsCRT@D@ATL@@@@@ATL@@XZ
  0000a	64 a1 00 00 00
	00		 mov	 eax, DWORD PTR fs:0
  00010	50		 push	 eax
  00011	83 ec 0c	 sub	 esp, 12			; 0000000cH
  00014	53		 push	 ebx
  00015	56		 push	 esi
  00016	57		 push	 edi
  00017	a1 00 00 00 00	 mov	 eax, DWORD PTR ___security_cookie
  0001c	33 c5		 xor	 eax, ebp
  0001e	50		 push	 eax
  0001f	8d 45 f4	 lea	 eax, DWORD PTR __$EHRec$[ebp]
  00022	64 a3 00 00 00
	00		 mov	 DWORD PTR fs:0, eax
  00028	8b f9		 mov	 edi, ecx
  0002a	c7 45 e8 00 00
	00 00		 mov	 DWORD PTR $T2[ebp], 0

; 1372 : 	CString strComment;

  00031	8b 75 08	 mov	 esi, DWORD PTR ___$ReturnUdt$[ebp]
  00034	8b ce		 mov	 ecx, esi
  00036	ff 15 00 00 00
	00		 call	 DWORD PTR __imp_??0?$CStringT@DV?$StrTraitMFC_DLL@DV?$ChTraitsCRT@D@ATL@@@@@ATL@@QAE@XZ

; 1385 : 		}		
; 1386 : 	}
; 1387 : 	return strComment;

  0003c	8d 45 ec	 lea	 eax, DWORD PTR _lLastIndex$[ebp]
  0003f	c7 45 fc 00 00
	00 00		 mov	 DWORD PTR __$EHRec$[ebp+8], 0
  00046	50		 push	 eax
  00047	8d 45 f0	 lea	 eax, DWORD PTR _lFirstIndex$[ebp]
  0004a	c7 45 e8 01 00
	00 00		 mov	 DWORD PTR $T2[ebp], 1
  00051	50		 push	 eax
  00052	8b cf		 mov	 ecx, edi
  00054	c7 45 f0 00 00
	00 00		 mov	 DWORD PTR _lFirstIndex$[ebp], 0
  0005b	c7 45 ec 00 00
	00 00		 mov	 DWORD PTR _lLastIndex$[ebp], 0
  00062	e8 00 00 00 00	 call	 ?GetPosOfHighLighted@CXListCtrlJongData@@AAEHPAJ0@Z ; CXListCtrlJongData::GetPosOfHighLighted
  00067	85 c0		 test	 eax, eax
  00069	74 4a		 je	 SHORT $LN12@GetComment

; 1373 : 	long lFirstIndex = 0;
; 1374 : 	long lLastIndex = 0;
; 1375 : 	BOOL bRetValue = GetPosOfHighLighted(&lFirstIndex,&lLastIndex);
; 1376 : 	if(bRetValue)
; 1377 : 	{
; 1378 : 		if(lFirstIndex!=lLastIndex)

  0006b	8b 47 20	 mov	 eax, DWORD PTR [edi+32]
  0006e	8b 7d f0	 mov	 edi, DWORD PTR _lFirstIndex$[ebp]
  00071	8b 5d ec	 mov	 ebx, DWORD PTR _lLastIndex$[ebp]
  00074	6a 00		 push	 0
  00076	6a 00		 push	 0
  00078	68 04 10 00 00	 push	 4100			; 00001004H
  0007d	50		 push	 eax
  0007e	ff 15 00 00 00
	00		 call	 DWORD PTR __imp__SendMessageA@16
  00084	50		 push	 eax
  00085	3b fb		 cmp	 edi, ebx
  00087	74 19		 je	 SHORT $LN3@GetComment

; 1379 : 		{
; 1380 : 			strComment.Format("(%d-%d)/%d",lFirstIndex+1,lLastIndex+1,GetItemCount());

  00089	8d 4b 01	 lea	 ecx, DWORD PTR [ebx+1]
  0008c	51		 push	 ecx
  0008d	8d 4f 01	 lea	 ecx, DWORD PTR [edi+1]
  00090	51		 push	 ecx
  00091	68 00 00 00 00	 push	 OFFSET ??_C@_0L@GHNIMMPI@?$CI?$CFd?9?$CFd?$CJ?1?$CFd@
  00096	56		 push	 esi
  00097	ff 15 00 00 00
	00		 call	 DWORD PTR __imp_?Format@?$CStringT@DV?$StrTraitMFC_DLL@DV?$ChTraitsCRT@D@ATL@@@@@ATL@@QAAXPBDZZ
  0009d	83 c4 14	 add	 esp, 20			; 00000014H

; 1381 : 		}

  000a0	eb 13		 jmp	 SHORT $LN12@GetComment
$LN3@GetComment:

; 1382 : 		else
; 1383 : 		{
; 1384 : 			strComment.Format("%d/%d",lFirstIndex+1,GetItemCount());

  000a2	8d 47 01	 lea	 eax, DWORD PTR [edi+1]
  000a5	50		 push	 eax
  000a6	68 00 00 00 00	 push	 OFFSET ??_C@_05LCKIIOJE@?$CFd?1?$CFd@
  000ab	56		 push	 esi
  000ac	ff 15 00 00 00
	00		 call	 DWORD PTR __imp_?Format@?$CStringT@DV?$StrTraitMFC_DLL@DV?$ChTraitsCRT@D@ATL@@@@@ATL@@QAAXPBDZZ
  000b2	83 c4 10	 add	 esp, 16			; 00000010H
$LN12@GetComment:

; 1388 : }

  000b5	8b c6		 mov	 eax, esi
  000b7	8b 4d f4	 mov	 ecx, DWORD PTR __$EHRec$[ebp]
  000ba	64 89 0d 00 00
	00 00		 mov	 DWORD PTR fs:0, ecx
  000c1	59		 pop	 ecx
  000c2	5f		 pop	 edi
  000c3	5e		 pop	 esi
  000c4	5b		 pop	 ebx
  000c5	8b e5		 mov	 esp, ebp
  000c7	5d		 pop	 ebp
  000c8	c2 04 00	 ret	 4
_TEXT	ENDS
;	COMDAT text$x
text$x	SEGMENT
__unwindfunclet$?GetCommentAboutHighlight@CXListCtrlJongData@@QAE?AV?$CStringT@DV?$StrTraitMFC_DLL@DV?$ChTraitsCRT@D@ATL@@@@@ATL@@XZ$0:
  00000	8b 45 e8	 mov	 eax, DWORD PTR $T2[ebp]
  00003	83 e0 01	 and	 eax, 1
  00006	0f 84 0d 00 00
	00		 je	 $LN7@GetComment
  0000c	83 65 e8 fe	 and	 DWORD PTR $T2[ebp], -2	; fffffffeH
  00010	8b 4d 08	 mov	 ecx, DWORD PTR ___$ReturnUdt$[ebp]
  00013	ff 25 00 00 00
	00		 jmp	 DWORD PTR __imp_??1?$CStringT@DV?$StrTraitMFC_DLL@DV?$ChTraitsCRT@D@ATL@@@@@ATL@@QAE@XZ
$LN7@GetComment:
  00019	c3		 ret	 0
  0001a	cc		 int	 3
  0001b	cc		 int	 3
  0001c	cc		 int	 3
  0001d	cc		 int	 3
  0001e	cc		 int	 3
__ehhandler$?GetCommentAboutHighlight@CXListCtrlJongData@@QAE?AV?$CStringT@DV?$StrTraitMFC_DLL@DV?$ChTraitsCRT@D@ATL@@@@@ATL@@XZ:
  0001f	90		 npad	 1
  00020	90		 npad	 1
  00021	8b 54 24 08	 mov	 edx, DWORD PTR [esp+8]
  00025	8d 42 0c	 lea	 eax, DWORD PTR [edx+12]
  00028	8b 4a e4	 mov	 ecx, DWORD PTR [edx-28]
  0002b	33 c8		 xor	 ecx, eax
  0002d	e8 00 00 00 00	 call	 @__security_check_cookie@4
  00032	b8 00 00 00 00	 mov	 eax, OFFSET __ehfuncinfo$?GetCommentAboutHighlight@CXListCtrlJongData@@QAE?AV?$CStringT@DV?$StrTraitMFC_DLL@DV?$ChTraitsCRT@D@ATL@@@@@ATL@@XZ
  00037	e9 00 00 00 00	 jmp	 ___CxxFrameHandler3
text$x	ENDS
?GetCommentAboutHighlight@CXListCtrlJongData@@QAE?AV?$CStringT@DV?$StrTraitMFC_DLL@DV?$ChTraitsCRT@D@ATL@@@@@ATL@@XZ ENDP ; CXListCtrlJongData::GetCommentAboutHighlight
; Function compile flags: /Ogtp
; File D:\git\src\IBK\IBK_DRFN\ProjSrc\SrcDrfn\Chart\comparechart\XListCtrlJongData.cpp
;	COMDAT ?SetAlarmSound@CXListCtrlJongData@@QAEXHPBD@Z
_TEXT	SEGMENT
_bUseAlarmSound$ = 8					; size = 4
_lpAlarmSoundFile$ = 12					; size = 4
?SetAlarmSound@CXListCtrlJongData@@QAEXHPBD@Z PROC	; CXListCtrlJongData::SetAlarmSound, COMDAT
; _this$ = ecx

; 1203 : {

  00000	55		 push	 ebp
  00001	8b ec		 mov	 ebp, esp

; 1204 : 	m_bUseAlarmSound = bUseAlarmSound;

  00003	8b 45 08	 mov	 eax, DWORD PTR _bUseAlarmSound$[ebp]
  00006	89 81 70 03 00
	00		 mov	 DWORD PTR [ecx+880], eax

; 1205 : 	if(lpAlarmSoundFile)

  0000c	8b 45 0c	 mov	 eax, DWORD PTR _lpAlarmSoundFile$[ebp]
  0000f	85 c0		 test	 eax, eax
  00011	74 0d		 je	 SHORT $LN2@SetAlarmSo

; 1206 : 	{
; 1207 : 		m_strAlarmSound = lpAlarmSoundFile;

  00013	50		 push	 eax
  00014	81 c1 7c 03 00
	00		 add	 ecx, 892		; 0000037cH
  0001a	ff 15 00 00 00
	00		 call	 DWORD PTR __imp_??4?$CStringT@DV?$StrTraitMFC_DLL@DV?$ChTraitsCRT@D@ATL@@@@@ATL@@QAEAAV01@PBD@Z
$LN2@SetAlarmSo:

; 1208 : 	}
; 1209 : }

  00020	5d		 pop	 ebp
  00021	c2 08 00	 ret	 8
?SetAlarmSound@CXListCtrlJongData@@QAEXHPBD@Z ENDP	; CXListCtrlJongData::SetAlarmSound
_TEXT	ENDS
; Function compile flags: /Ogtp
; File D:\git\src\IBK\IBK_DRFN\ProjSrc\SrcDrfn\Chart\comparechart\XListCtrlJongData.cpp
;	COMDAT ?SetAlarmColor@CXListCtrlJongData@@QAEXH@Z
_TEXT	SEGMENT
_bUseAlarmBkClr$ = 8					; size = 4
?SetAlarmColor@CXListCtrlJongData@@QAEXH@Z PROC		; CXListCtrlJongData::SetAlarmColor, COMDAT
; _this$ = ecx

; 1198 : {

  00000	55		 push	 ebp
  00001	8b ec		 mov	 ebp, esp

; 1199 : 	m_bUseAlarmBkClr = bUseAlarmBkClr;

  00003	8b 45 08	 mov	 eax, DWORD PTR _bUseAlarmBkClr$[ebp]
  00006	89 81 74 03 00
	00		 mov	 DWORD PTR [ecx+884], eax

; 1200 : }

  0000c	5d		 pop	 ebp
  0000d	c2 04 00	 ret	 4
?SetAlarmColor@CXListCtrlJongData@@QAEXH@Z ENDP		; CXListCtrlJongData::SetAlarmColor
_TEXT	ENDS
; Function compile flags: /Ogtp
; File D:\git\src\IBK\IBK_DRFN\ProjSrc\SrcDrfn\Chart\comparechart\XListCtrlJongData.cpp
; File C:\Program Files (x86)\Microsoft Visual Studio\2019\Community\VC\Tools\MSVC\14.29.30133\atlmfc\include\afxwin2.inl
; File D:\git\src\IBK\IBK_DRFN\ProjSrc\SrcDrfn\Chart\comparechart\XListCtrlJongData.cpp
; File C:\Program Files (x86)\Microsoft Visual Studio\2019\Community\VC\Tools\MSVC\14.29.30133\atlmfc\include\afxwin2.inl
; File D:\git\src\IBK\IBK_DRFN\ProjSrc\SrcDrfn\Chart\comparechart\XListCtrlJongData.cpp
;	COMDAT ?SetAlarmPeriod@CXListCtrlJongData@@QAEXJJ@Z
_TEXT	SEGMENT
_nStartAlarmKeepingCnt$ = 8				; size = 4
_nEndAlarmKeepingCnt$ = 12				; size = 4
?SetAlarmPeriod@CXListCtrlJongData@@QAEXJJ@Z PROC	; CXListCtrlJongData::SetAlarmPeriod, COMDAT
; _this$ = ecx

; 1213 : {

  00000	55		 push	 ebp
  00001	8b ec		 mov	 ebp, esp

; 1214 : 	m_nStartAlarmKeepingCnt = nStartAlarmKeepingCnt;

  00003	8b 45 08	 mov	 eax, DWORD PTR _nStartAlarmKeepingCnt$[ebp]
; File C:\Program Files (x86)\Microsoft Visual Studio\2019\Community\VC\Tools\MSVC\14.29.30133\atlmfc\include\afxwin2.inl

; 114  : 	{ ASSERT(::IsWindow(m_hWnd)); ::InvalidateRect(m_hWnd, NULL, bErase); }

  00006	6a 01		 push	 1
  00008	6a 00		 push	 0
  0000a	ff 71 20	 push	 DWORD PTR [ecx+32]
; File D:\git\src\IBK\IBK_DRFN\ProjSrc\SrcDrfn\Chart\comparechart\XListCtrlJongData.cpp

; 1214 : 	m_nStartAlarmKeepingCnt = nStartAlarmKeepingCnt;

  0000d	89 81 68 03 00
	00		 mov	 DWORD PTR [ecx+872], eax

; 1215 : 	m_nEndAlarmKeepingCnt = nEndAlarmKeepingCnt;

  00013	8b 45 0c	 mov	 eax, DWORD PTR _nEndAlarmKeepingCnt$[ebp]
  00016	89 81 6c 03 00
	00		 mov	 DWORD PTR [ecx+876], eax
; File C:\Program Files (x86)\Microsoft Visual Studio\2019\Community\VC\Tools\MSVC\14.29.30133\atlmfc\include\afxwin2.inl

; 114  : 	{ ASSERT(::IsWindow(m_hWnd)); ::InvalidateRect(m_hWnd, NULL, bErase); }

  0001c	ff 15 00 00 00
	00		 call	 DWORD PTR __imp__InvalidateRect@12
; File D:\git\src\IBK\IBK_DRFN\ProjSrc\SrcDrfn\Chart\comparechart\XListCtrlJongData.cpp

; 1217 : }

  00022	5d		 pop	 ebp
  00023	c2 08 00	 ret	 8
?SetAlarmPeriod@CXListCtrlJongData@@QAEXJJ@Z ENDP	; CXListCtrlJongData::SetAlarmPeriod
_TEXT	ENDS
; Function compile flags: /Ogtp
; File D:\git\src\IBK\IBK_DRFN\ProjSrc\SrcDrfn\Chart\comparechart\XListCtrlJongData.cpp
;	COMDAT ?InitSortIndex@CXListCtrlJongData@@QAEXXZ
_TEXT	SEGMENT
?InitSortIndex@CXListCtrlJongData@@QAEXXZ PROC		; CXListCtrlJongData::InitSortIndex, COMDAT
; _this$ = ecx

; 198  : {

  00000	56		 push	 esi
  00001	8b f1		 mov	 esi, ecx

; 199  : 	::ZeroMemory(m_bSortIndex,sizeof(m_bSortIndex));
; 200  : 	::ZeroMemory(m_bSortIndexType,sizeof(m_bSortIndexType));
; 201  : 	::ZeroMemory(m_bSortIndexConst,sizeof(m_bSortIndexConst));	

  00003	6a 78		 push	 120			; 00000078H
  00005	6a 00		 push	 0
  00007	8d 86 bc 02 00
	00		 lea	 eax, DWORD PTR [esi+700]
  0000d	50		 push	 eax
  0000e	e8 00 00 00 00	 call	 _memset
  00013	83 c4 0c	 add	 esp, 12			; 0000000cH

; 202  : 	SetSortImage(-1,0);

  00016	8b ce		 mov	 ecx, esi
  00018	6a 00		 push	 0
  0001a	6a ff		 push	 -1
  0001c	e8 00 00 00 00	 call	 ?SetSortImage@CXListCtrl@@QAEXHH@Z ; CXListCtrl::SetSortImage
  00021	5e		 pop	 esi

; 203  : }

  00022	c3		 ret	 0
?InitSortIndex@CXListCtrlJongData@@QAEXXZ ENDP		; CXListCtrlJongData::InitSortIndex
_TEXT	ENDS
; Function compile flags: /Ogtp
; File D:\git\src\IBK\IBK_DRFN\ProjSrc\SrcDrfn\Chart\comparechart\XListCtrlJongData.cpp
; File C:\Program Files (x86)\Microsoft Visual Studio\2019\Community\VC\Tools\MSVC\14.29.30133\atlmfc\include\afxcmn.inl
; File D:\git\src\IBK\IBK_DRFN\ProjSrc\SrcDrfn\Chart\comparechart\XListCtrlJongData.cpp
; File C:\Program Files (x86)\Microsoft Visual Studio\2019\Community\VC\Tools\MSVC\14.29.30133\atlmfc\include\afxcmn.inl
; File D:\git\src\IBK\IBK_DRFN\ProjSrc\SrcDrfn\Chart\comparechart\XListCtrlJongData.cpp
; File C:\Program Files (x86)\Microsoft Visual Studio\2019\Community\VC\Tools\MSVC\14.29.30133\atlmfc\include\afxcmn.inl
; File D:\git\src\IBK\IBK_DRFN\ProjSrc\SrcDrfn\Chart\comparechart\XListCtrlJongData.cpp
; File C:\Program Files (x86)\Microsoft Visual Studio\2019\Community\VC\Tools\MSVC\14.29.30133\atlmfc\include\afxcmn.inl
; File D:\git\src\IBK\IBK_DRFN\ProjSrc\SrcDrfn\Chart\comparechart\XListCtrlJongData.cpp
; File C:\Program Files (x86)\Microsoft Visual Studio\2019\Community\VC\Tools\MSVC\14.29.30133\atlmfc\include\afxcmn.inl
; File C:\Program Files (x86)\Microsoft Visual Studio\2019\Community\VC\Tools\MSVC\14.29.30133\atlmfc\include\afxcoll.inl
; File C:\Program Files (x86)\Microsoft Visual Studio\2019\Community\VC\Tools\MSVC\14.29.30133\atlmfc\include\afxcmn.inl
; File C:\Program Files (x86)\Microsoft Visual Studio\2019\Community\VC\Tools\MSVC\14.29.30133\atlmfc\include\afxcoll.inl
; File D:\git\src\IBK\IBK_DRFN\ProjSrc\SrcDrfn\Chart\comparechart\XListCtrlJongData.cpp
; File C:\Program Files (x86)\Microsoft Visual Studio\2019\Community\VC\Tools\MSVC\14.29.30133\atlmfc\include\afxcmn.inl
; File D:\git\src\IBK\IBK_DRFN\ProjSrc\SrcDrfn\Chart\comparechart\XListCtrlJongData.cpp
; File C:\Program Files (x86)\Microsoft Visual Studio\2019\Community\VC\Tools\MSVC\14.29.30133\atlmfc\include\afxcoll.inl
; File D:\git\src\IBK\IBK_DRFN\ProjSrc\SrcDrfn\Chart\comparechart\XListCtrlJongData.cpp
; File C:\Program Files (x86)\Microsoft Visual Studio\2019\Community\VC\Tools\MSVC\14.29.30133\atlmfc\include\afxcoll.inl
; File D:\git\src\IBK\IBK_DRFN\ProjSrc\SrcDrfn\Chart\comparechart\XListCtrlJongData.cpp
; File C:\Program Files (x86)\Microsoft Visual Studio\2019\Community\VC\Tools\MSVC\14.29.30133\atlmfc\include\afxcmn.inl
; File D:\git\src\IBK\IBK_DRFN\ProjSrc\SrcDrfn\Chart\comparechart\XListCtrlJongData.cpp
; File C:\Program Files (x86)\Microsoft Visual Studio\2019\Community\VC\Tools\MSVC\14.29.30133\atlmfc\include\afxcoll.inl
; File D:\git\src\IBK\IBK_DRFN\ProjSrc\SrcDrfn\Chart\comparechart\XListCtrlJongData.cpp
;	COMDAT ?SetCursorNext@CXListCtrlJongData@@QAEXH@Z
_TEXT	SEGMENT
_arrayIndex$ = -44					; size = 20
_lFirstIndex$ = -24					; size = 4
_nCntAll$1$ = -20					; size = 4
_nCntInArray$1$ = -16					; size = 4
_nItemLastSelected$2$ = -16				; size = 4
_lLastIndex$ = -16					; size = 4
__$EHRec$ = -12						; size = 12
_nCnt$ = 8						; size = 4
?SetCursorNext@CXListCtrlJongData@@QAEXH@Z PROC		; CXListCtrlJongData::SetCursorNext, COMDAT
; _this$ = ecx

; 1262 : {

  00000	55		 push	 ebp
  00001	8b ec		 mov	 ebp, esp
  00003	6a ff		 push	 -1
  00005	68 00 00 00 00	 push	 __ehhandler$?SetCursorNext@CXListCtrlJongData@@QAEXH@Z
  0000a	64 a1 00 00 00
	00		 mov	 eax, DWORD PTR fs:0
  00010	50		 push	 eax
  00011	83 ec 20	 sub	 esp, 32			; 00000020H
  00014	53		 push	 ebx
  00015	56		 push	 esi
  00016	57		 push	 edi
  00017	a1 00 00 00 00	 mov	 eax, DWORD PTR ___security_cookie
  0001c	33 c5		 xor	 eax, ebp
  0001e	50		 push	 eax
  0001f	8d 45 f4	 lea	 eax, DWORD PTR __$EHRec$[ebp]
  00022	64 a3 00 00 00
	00		 mov	 DWORD PTR fs:0, eax
  00028	8b d9		 mov	 ebx, ecx
; File C:\Program Files (x86)\Microsoft Visual Studio\2019\Community\VC\Tools\MSVC\14.29.30133\atlmfc\include\afxcmn.inl

; 155  : 	{ ASSERT(::IsWindow(m_hWnd)); return (int) ::SendMessage(m_hWnd, LVM_GETITEMCOUNT, 0, 0L); }

  0002a	8b 35 00 00 00
	00		 mov	 esi, DWORD PTR __imp__SendMessageA@16
  00030	6a 00		 push	 0
  00032	6a 00		 push	 0
  00034	68 04 10 00 00	 push	 4100			; 00001004H
  00039	ff 73 20	 push	 DWORD PTR [ebx+32]
  0003c	ff d6		 call	 esi

; 177  : 	{ ASSERT(::IsWindow(m_hWnd)); return (int) ::SendMessage(m_hWnd, LVM_GETNEXTITEM, nItem, MAKELPARAM(nFlags, 0)); }

  0003e	6a 02		 push	 2
  00040	6a ff		 push	 -1
  00042	68 0c 10 00 00	 push	 4108			; 0000100cH
  00047	ff 73 20	 push	 DWORD PTR [ebx+32]
; File D:\git\src\IBK\IBK_DRFN\ProjSrc\SrcDrfn\Chart\comparechart\XListCtrlJongData.cpp

; 1263 : 	int nCntAll = GetItemCount();

  0004a	89 45 ec	 mov	 DWORD PTR _nCntAll$1$[ebp], eax
; File C:\Program Files (x86)\Microsoft Visual Studio\2019\Community\VC\Tools\MSVC\14.29.30133\atlmfc\include\afxcmn.inl

; 177  : 	{ ASSERT(::IsWindow(m_hWnd)); return (int) ::SendMessage(m_hWnd, LVM_GETNEXTITEM, nItem, MAKELPARAM(nFlags, 0)); }

  0004d	ff d6		 call	 esi
; File D:\git\src\IBK\IBK_DRFN\ProjSrc\SrcDrfn\Chart\comparechart\XListCtrlJongData.cpp

; 1265 : 	CUIntArray arrayIndex;

  0004f	8d 4d d4	 lea	 ecx, DWORD PTR _arrayIndex$[ebp]
; File C:\Program Files (x86)\Microsoft Visual Studio\2019\Community\VC\Tools\MSVC\14.29.30133\atlmfc\include\afxcmn.inl

; 177  : 	{ ASSERT(::IsWindow(m_hWnd)); return (int) ::SendMessage(m_hWnd, LVM_GETNEXTITEM, nItem, MAKELPARAM(nFlags, 0)); }

  00052	8b f8		 mov	 edi, eax
; File D:\git\src\IBK\IBK_DRFN\ProjSrc\SrcDrfn\Chart\comparechart\XListCtrlJongData.cpp

; 1265 : 	CUIntArray arrayIndex;

  00054	e8 00 00 00 00	 call	 ??0CUIntArray@@QAE@XZ	; CUIntArray::CUIntArray

; 1266 : 	int nItem = -1;
; 1267 : 	int nItemLastSelected = -1;

  00059	83 ce ff	 or	 esi, -1
  0005c	c7 45 fc 00 00
	00 00		 mov	 DWORD PTR __$EHRec$[ebp+8], 0
  00063	89 75 f0	 mov	 DWORD PTR _nItemLastSelected$2$[ebp], esi
; File C:\Program Files (x86)\Microsoft Visual Studio\2019\Community\VC\Tools\MSVC\14.29.30133\atlmfc\include\afxcmn.inl

; 179  : 	{ ASSERT(::IsWindow(m_hWnd)); return (POSITION)(DWORD_PTR)(1+GetNextItem(-1, LVIS_SELECTED)); }

  00066	83 c7 01	 add	 edi, 1
; File D:\git\src\IBK\IBK_DRFN\ProjSrc\SrcDrfn\Chart\comparechart\XListCtrlJongData.cpp

; 1268 : 	while(pos)

  00069	74 39		 je	 SHORT $LN3@SetCursorN
  0006b	0f 1f 44 00 00	 npad	 5
$LL2@SetCursorN:
; File C:\Program Files (x86)\Microsoft Visual Studio\2019\Community\VC\Tools\MSVC\14.29.30133\atlmfc\include\afxcmn.inl

; 177  : 	{ ASSERT(::IsWindow(m_hWnd)); return (int) ::SendMessage(m_hWnd, LVM_GETNEXTITEM, nItem, MAKELPARAM(nFlags, 0)); }

  00070	6a 02		 push	 2

; 181  : 	{ ASSERT(::IsWindow(m_hWnd)); DWORD_PTR nOldPos = (DWORD_PTR)pos-1; pos = (POSITION)(DWORD_PTR)(1+GetNextItem((UINT)nOldPos, LVIS_SELECTED)); return (UINT)nOldPos; }

  00072	8d 77 ff	 lea	 esi, DWORD PTR [edi-1]

; 177  : 	{ ASSERT(::IsWindow(m_hWnd)); return (int) ::SendMessage(m_hWnd, LVM_GETNEXTITEM, nItem, MAKELPARAM(nFlags, 0)); }

  00075	56		 push	 esi
  00076	68 0c 10 00 00	 push	 4108			; 0000100cH
  0007b	ff 73 20	 push	 DWORD PTR [ebx+32]
  0007e	ff 15 00 00 00
	00		 call	 DWORD PTR __imp__SendMessageA@16
; File C:\Program Files (x86)\Microsoft Visual Studio\2019\Community\VC\Tools\MSVC\14.29.30133\atlmfc\include\afxcoll.inl

; 180  : 		SetAtGrow(nIndex, newElement);

  00084	56		 push	 esi
  00085	ff 75 dc	 push	 DWORD PTR _arrayIndex$[ebp+8]
  00088	8d 4d d4	 lea	 ecx, DWORD PTR _arrayIndex$[ebp]
; File C:\Program Files (x86)\Microsoft Visual Studio\2019\Community\VC\Tools\MSVC\14.29.30133\atlmfc\include\afxcmn.inl

; 177  : 	{ ASSERT(::IsWindow(m_hWnd)); return (int) ::SendMessage(m_hWnd, LVM_GETNEXTITEM, nItem, MAKELPARAM(nFlags, 0)); }

  0008b	8b f8		 mov	 edi, eax
; File C:\Program Files (x86)\Microsoft Visual Studio\2019\Community\VC\Tools\MSVC\14.29.30133\atlmfc\include\afxcoll.inl

; 180  : 		SetAtGrow(nIndex, newElement);

  0008d	e8 00 00 00 00	 call	 ?SetAtGrow@CUIntArray@@QAEXHI@Z ; CUIntArray::SetAtGrow
; File D:\git\src\IBK\IBK_DRFN\ProjSrc\SrcDrfn\Chart\comparechart\XListCtrlJongData.cpp

; 1272 : 		if(nItemLastSelected<nItem)

  00092	8b 45 f0	 mov	 eax, DWORD PTR _nItemLastSelected$2$[ebp]
  00095	3b c6		 cmp	 eax, esi
  00097	0f 4c c6	 cmovl	 eax, esi
  0009a	89 45 f0	 mov	 DWORD PTR _nItemLastSelected$2$[ebp], eax
; File C:\Program Files (x86)\Microsoft Visual Studio\2019\Community\VC\Tools\MSVC\14.29.30133\atlmfc\include\afxcmn.inl

; 181  : 	{ ASSERT(::IsWindow(m_hWnd)); DWORD_PTR nOldPos = (DWORD_PTR)pos-1; pos = (POSITION)(DWORD_PTR)(1+GetNextItem((UINT)nOldPos, LVIS_SELECTED)); return (UINT)nOldPos; }

  0009d	83 c7 01	 add	 edi, 1
; File D:\git\src\IBK\IBK_DRFN\ProjSrc\SrcDrfn\Chart\comparechart\XListCtrlJongData.cpp

; 1268 : 	while(pos)

  000a0	75 ce		 jne	 SHORT $LL2@SetCursorN
  000a2	8b f0		 mov	 esi, eax
$LN3@SetCursorN:

; 1273 : 		{
; 1274 : 			nItemLastSelected = nItem;
; 1275 : 		}
; 1276 : 	}
; 1277 : 	long lFirstIndex = 0;
; 1278 : 	long lLastIndex = 0;
; 1279 : 	BOOL bRetValue = GetPosOfHighLighted(&lFirstIndex,&lLastIndex);

  000a4	8d 45 f0	 lea	 eax, DWORD PTR _lLastIndex$[ebp]
  000a7	c7 45 f0 00 00
	00 00		 mov	 DWORD PTR _lLastIndex$[ebp], 0
  000ae	50		 push	 eax
  000af	8d 45 e8	 lea	 eax, DWORD PTR _lFirstIndex$[ebp]
  000b2	8b cb		 mov	 ecx, ebx
  000b4	50		 push	 eax
  000b5	e8 00 00 00 00	 call	 ?GetPosOfHighLighted@CXListCtrlJongData@@AAEHPAJ0@Z ; CXListCtrlJongData::GetPosOfHighLighted

; 1280 : 	if(bRetValue)
; 1281 : 	{
; 1282 : 		nItemLastSelected = lLastIndex;
; 1283 : 	}
; 1284 : 	if(nItemLastSelected>(nCntAll-nCnt-1))

  000ba	8b 55 08	 mov	 edx, DWORD PTR _nCnt$[ebp]
  000bd	85 c0		 test	 eax, eax
  000bf	8b 45 ec	 mov	 eax, DWORD PTR _nCntAll$1$[ebp]
  000c2	0f 45 75 f0	 cmovne	 esi, DWORD PTR _lLastIndex$[ebp]
  000c6	2b c2		 sub	 eax, edx
  000c8	48		 dec	 eax

; 1285 : 	{
; 1286 : 		nItemLastSelected = nCntAll - nCnt - 1;
; 1287 : 	}
; 1288 : 	if(nCntAll!=(nItemLastSelected+1))

  000c9	3b f0		 cmp	 esi, eax
  000cb	0f 4e c6	 cmovle	 eax, esi
  000ce	8d 78 01	 lea	 edi, DWORD PTR [eax+1]
  000d1	39 7d ec	 cmp	 DWORD PTR _nCntAll$1$[ebp], edi
  000d4	74 63		 je	 SHORT $LN8@SetCursorN

; 1289 : 	{
; 1290 : 		int nCntInArray = arrayIndex.GetSize();

  000d6	8b 45 dc	 mov	 eax, DWORD PTR _arrayIndex$[ebp+8]

; 1291 : 		for(int nPosInArray=0;nPosInArray<nCntInArray;nPosInArray++)

  000d9	33 f6		 xor	 esi, esi
  000db	8b c8		 mov	 ecx, eax
  000dd	89 4d f0	 mov	 DWORD PTR _nCntInArray$1$[ebp], ecx
  000e0	85 c9		 test	 ecx, ecx
  000e2	7e 25		 jle	 SHORT $LN5@SetCursorN
$LL6@SetCursorN:
; File C:\Program Files (x86)\Microsoft Visual Studio\2019\Community\VC\Tools\MSVC\14.29.30133\atlmfc\include\afxcoll.inl

; 160  : 		if( nIndex < 0 || nIndex >= m_nSize )

  000e4	85 f6		 test	 esi, esi
  000e6	78 6d		 js	 SHORT $LN38@SetCursorN
  000e8	3b f0		 cmp	 esi, eax
  000ea	7d 69		 jge	 SHORT $LN38@SetCursorN
; File D:\git\src\IBK\IBK_DRFN\ProjSrc\SrcDrfn\Chart\comparechart\XListCtrlJongData.cpp

; 1293 : 			SetCurSel(arrayIndex.GetAt(nPosInArray),FALSE);

  000ec	8b 45 d8	 mov	 eax, DWORD PTR _arrayIndex$[ebp+4]
  000ef	8b cb		 mov	 ecx, ebx
  000f1	6a 00		 push	 0
  000f3	ff 34 b0	 push	 DWORD PTR [eax+esi*4]
  000f6	e8 00 00 00 00	 call	 ?SetCurSel@CXListCtrl@@QAEHHH@Z ; CXListCtrl::SetCurSel
  000fb	46		 inc	 esi
  000fc	3b 75 f0	 cmp	 esi, DWORD PTR _nCntInArray$1$[ebp]
  000ff	7d 05		 jge	 SHORT $LN51@SetCursorN

; 1291 : 		for(int nPosInArray=0;nPosInArray<nCntInArray;nPosInArray++)

  00101	8b 45 dc	 mov	 eax, DWORD PTR _arrayIndex$[ebp+8]
  00104	eb de		 jmp	 SHORT $LL6@SetCursorN
$LN51@SetCursorN:
; File C:\Program Files (x86)\Microsoft Visual Studio\2019\Community\VC\Tools\MSVC\14.29.30133\atlmfc\include\afxcoll.inl

; 160  : 		if( nIndex < 0 || nIndex >= m_nSize )

  00106	8b 55 08	 mov	 edx, DWORD PTR _nCnt$[ebp]
$LN5@SetCursorN:
; File D:\git\src\IBK\IBK_DRFN\ProjSrc\SrcDrfn\Chart\comparechart\XListCtrlJongData.cpp

; 1295 : 		for(int nPos=(nItemLastSelected+1);nPos<nCntAll&&(nPos-nItemLastSelected-1)<nCnt;nPos++)

  00109	3b 7d ec	 cmp	 edi, DWORD PTR _nCntAll$1$[ebp]
  0010c	7d 2b		 jge	 SHORT $LN8@SetCursorN
  0010e	33 f6		 xor	 esi, esi
$LL9@SetCursorN:
  00110	3b f2		 cmp	 esi, edx
  00112	7d 25		 jge	 SHORT $LN8@SetCursorN

; 1296 : 		{
; 1297 : 			SetCurSel(nPos);

  00114	6a 01		 push	 1
  00116	57		 push	 edi
  00117	8b cb		 mov	 ecx, ebx
  00119	e8 00 00 00 00	 call	 ?SetCurSel@CXListCtrl@@QAEHHH@Z ; CXListCtrl::SetCurSel
; File C:\Program Files (x86)\Microsoft Visual Studio\2019\Community\VC\Tools\MSVC\14.29.30133\atlmfc\include\afxcmn.inl

; 193  : 	{ ASSERT(::IsWindow(m_hWnd)); return (BOOL) ::SendMessage(m_hWnd, LVM_ENSUREVISIBLE, nItem, MAKELPARAM(bPartialOK, 0)); }

  0011e	6a 00		 push	 0
  00120	57		 push	 edi
  00121	68 13 10 00 00	 push	 4115			; 00001013H
  00126	ff 73 20	 push	 DWORD PTR [ebx+32]
  00129	ff 15 00 00 00
	00		 call	 DWORD PTR __imp__SendMessageA@16
; File D:\git\src\IBK\IBK_DRFN\ProjSrc\SrcDrfn\Chart\comparechart\XListCtrlJongData.cpp

; 1295 : 		for(int nPos=(nItemLastSelected+1);nPos<nCntAll&&(nPos-nItemLastSelected-1)<nCnt;nPos++)

  0012f	8b 55 08	 mov	 edx, DWORD PTR _nCnt$[ebp]
  00132	47		 inc	 edi
  00133	46		 inc	 esi
  00134	3b 7d ec	 cmp	 edi, DWORD PTR _nCntAll$1$[ebp]
  00137	7c d7		 jl	 SHORT $LL9@SetCursorN
$LN8@SetCursorN:

; 1301 : }

  00139	8d 4d d4	 lea	 ecx, DWORD PTR _arrayIndex$[ebp]
  0013c	e8 00 00 00 00	 call	 ??1CUIntArray@@UAE@XZ	; CUIntArray::~CUIntArray
  00141	8b 4d f4	 mov	 ecx, DWORD PTR __$EHRec$[ebp]
  00144	64 89 0d 00 00
	00 00		 mov	 DWORD PTR fs:0, ecx
  0014b	59		 pop	 ecx
  0014c	5f		 pop	 edi
  0014d	5e		 pop	 esi
  0014e	5b		 pop	 ebx
  0014f	8b e5		 mov	 esp, ebp
  00151	5d		 pop	 ebp
  00152	c2 04 00	 ret	 4
$LN38@SetCursorN:
; File C:\Program Files (x86)\Microsoft Visual Studio\2019\Community\VC\Tools\MSVC\14.29.30133\atlmfc\include\afxcoll.inl

; 161  : 			AfxThrowInvalidArgException();

  00155	e8 00 00 00 00	 call	 ?AfxThrowInvalidArgException@@YGXXZ ; AfxThrowInvalidArgException
$LN54@SetCursorN:
  0015a	cc		 int	 3
_TEXT	ENDS
;	COMDAT text$x
text$x	SEGMENT
__unwindfunclet$?SetCursorNext@CXListCtrlJongData@@QAEXH@Z$0:
  00000	8d 4d d4	 lea	 ecx, DWORD PTR _arrayIndex$[ebp]
  00003	e9 00 00 00 00	 jmp	 ??1CUIntArray@@UAE@XZ	; CUIntArray::~CUIntArray
  00008	cc		 int	 3
  00009	cc		 int	 3
  0000a	cc		 int	 3
  0000b	cc		 int	 3
  0000c	cc		 int	 3
__ehhandler$?SetCursorNext@CXListCtrlJongData@@QAEXH@Z:
  0000d	90		 npad	 1
  0000e	90		 npad	 1
  0000f	8b 54 24 08	 mov	 edx, DWORD PTR [esp+8]
  00013	8d 42 0c	 lea	 eax, DWORD PTR [edx+12]
  00016	8b 4a d0	 mov	 ecx, DWORD PTR [edx-48]
  00019	33 c8		 xor	 ecx, eax
  0001b	e8 00 00 00 00	 call	 @__security_check_cookie@4
  00020	b8 00 00 00 00	 mov	 eax, OFFSET __ehfuncinfo$?SetCursorNext@CXListCtrlJongData@@QAEXH@Z
  00025	e9 00 00 00 00	 jmp	 ___CxxFrameHandler3
text$x	ENDS
?SetCursorNext@CXListCtrlJongData@@QAEXH@Z ENDP		; CXListCtrlJongData::SetCursorNext
; Function compile flags: /Ogtp
; File D:\git\src\IBK\IBK_DRFN\ProjSrc\SrcDrfn\Chart\comparechart\XListCtrlJongData.cpp
; File C:\Program Files (x86)\Microsoft Visual Studio\2019\Community\VC\Tools\MSVC\14.29.30133\atlmfc\include\afxcmn.inl
; File D:\git\src\IBK\IBK_DRFN\ProjSrc\SrcDrfn\Chart\comparechart\XListCtrlJongData.cpp
; File C:\Program Files (x86)\Microsoft Visual Studio\2019\Community\VC\Tools\MSVC\14.29.30133\atlmfc\include\afxcmn.inl
; File D:\git\src\IBK\IBK_DRFN\ProjSrc\SrcDrfn\Chart\comparechart\XListCtrlJongData.cpp
; File C:\Program Files (x86)\Microsoft Visual Studio\2019\Community\VC\Tools\MSVC\14.29.30133\atlmfc\include\afxcmn.inl
; File D:\git\src\IBK\IBK_DRFN\ProjSrc\SrcDrfn\Chart\comparechart\XListCtrlJongData.cpp
; File C:\Program Files (x86)\Microsoft Visual Studio\2019\Community\VC\Tools\MSVC\14.29.30133\atlmfc\include\afxcmn.inl
; File D:\git\src\IBK\IBK_DRFN\ProjSrc\SrcDrfn\Chart\comparechart\XListCtrlJongData.cpp
; File C:\Program Files (x86)\Microsoft Visual Studio\2019\Community\VC\Tools\MSVC\14.29.30133\atlmfc\include\afxcmn.inl
; File C:\Program Files (x86)\Microsoft Visual Studio\2019\Community\VC\Tools\MSVC\14.29.30133\atlmfc\include\afxcoll.inl
; File C:\Program Files (x86)\Microsoft Visual Studio\2019\Community\VC\Tools\MSVC\14.29.30133\atlmfc\include\afxcmn.inl
; File C:\Program Files (x86)\Microsoft Visual Studio\2019\Community\VC\Tools\MSVC\14.29.30133\atlmfc\include\afxcoll.inl
; File C:\Program Files (x86)\Microsoft Visual Studio\2019\Community\VC\Tools\MSVC\14.29.30133\atlmfc\include\afxcmn.inl
; File C:\Program Files (x86)\Microsoft Visual Studio\2019\Community\VC\Tools\MSVC\14.29.30133\atlmfc\include\afxcoll.inl
; File D:\git\src\IBK\IBK_DRFN\ProjSrc\SrcDrfn\Chart\comparechart\XListCtrlJongData.cpp
; File C:\Program Files (x86)\Microsoft Visual Studio\2019\Community\VC\Tools\MSVC\14.29.30133\atlmfc\include\afxcoll.inl
; File D:\git\src\IBK\IBK_DRFN\ProjSrc\SrcDrfn\Chart\comparechart\XListCtrlJongData.cpp
; File C:\Program Files (x86)\Microsoft Visual Studio\2019\Community\VC\Tools\MSVC\14.29.30133\atlmfc\include\afxcoll.inl
; File D:\git\src\IBK\IBK_DRFN\ProjSrc\SrcDrfn\Chart\comparechart\XListCtrlJongData.cpp
; File C:\Program Files (x86)\Microsoft Visual Studio\2019\Community\VC\Tools\MSVC\14.29.30133\atlmfc\include\afxcmn.inl
; File D:\git\src\IBK\IBK_DRFN\ProjSrc\SrcDrfn\Chart\comparechart\XListCtrlJongData.cpp
; File C:\Program Files (x86)\Microsoft Visual Studio\2019\Community\VC\Tools\MSVC\14.29.30133\atlmfc\include\afxcoll.inl
; File D:\git\src\IBK\IBK_DRFN\ProjSrc\SrcDrfn\Chart\comparechart\XListCtrlJongData.cpp
;	COMDAT ?SetCursorPrev@CXListCtrlJongData@@QAEXH@Z
_TEXT	SEGMENT
_arrayIndex$ = -40					; size = 20
_lLastIndex$ = -20					; size = 4
_nCntInArray$1$ = -16					; size = 4
_pos$1$ = -16						; size = 4
_lFirstIndex$ = -16					; size = 4
__$EHRec$ = -12						; size = 12
_nCnt$ = 8						; size = 4
?SetCursorPrev@CXListCtrlJongData@@QAEXH@Z PROC		; CXListCtrlJongData::SetCursorPrev, COMDAT
; _this$ = ecx

; 1220 : {

  00000	55		 push	 ebp
  00001	8b ec		 mov	 ebp, esp
  00003	6a ff		 push	 -1
  00005	68 00 00 00 00	 push	 __ehhandler$?SetCursorPrev@CXListCtrlJongData@@QAEXH@Z
  0000a	64 a1 00 00 00
	00		 mov	 eax, DWORD PTR fs:0
  00010	50		 push	 eax
  00011	83 ec 1c	 sub	 esp, 28			; 0000001cH
  00014	53		 push	 ebx
  00015	56		 push	 esi
  00016	57		 push	 edi
  00017	a1 00 00 00 00	 mov	 eax, DWORD PTR ___security_cookie
  0001c	33 c5		 xor	 eax, ebp
  0001e	50		 push	 eax
  0001f	8d 45 f4	 lea	 eax, DWORD PTR __$EHRec$[ebp]
  00022	64 a3 00 00 00
	00		 mov	 DWORD PTR fs:0, eax
  00028	8b d9		 mov	 ebx, ecx
; File C:\Program Files (x86)\Microsoft Visual Studio\2019\Community\VC\Tools\MSVC\14.29.30133\atlmfc\include\afxcmn.inl

; 155  : 	{ ASSERT(::IsWindow(m_hWnd)); return (int) ::SendMessage(m_hWnd, LVM_GETITEMCOUNT, 0, 0L); }

  0002a	8b 35 00 00 00
	00		 mov	 esi, DWORD PTR __imp__SendMessageA@16
  00030	6a 00		 push	 0
  00032	6a 00		 push	 0
  00034	68 04 10 00 00	 push	 4100			; 00001004H
  00039	ff 73 20	 push	 DWORD PTR [ebx+32]
  0003c	ff d6		 call	 esi

; 177  : 	{ ASSERT(::IsWindow(m_hWnd)); return (int) ::SendMessage(m_hWnd, LVM_GETNEXTITEM, nItem, MAKELPARAM(nFlags, 0)); }

  0003e	6a 02		 push	 2
  00040	6a ff		 push	 -1
  00042	68 0c 10 00 00	 push	 4108			; 0000100cH
  00047	ff 73 20	 push	 DWORD PTR [ebx+32]
; File D:\git\src\IBK\IBK_DRFN\ProjSrc\SrcDrfn\Chart\comparechart\XListCtrlJongData.cpp

; 1221 : 	int nCntAll = GetItemCount();

  0004a	8b f8		 mov	 edi, eax
; File C:\Program Files (x86)\Microsoft Visual Studio\2019\Community\VC\Tools\MSVC\14.29.30133\atlmfc\include\afxcmn.inl

; 177  : 	{ ASSERT(::IsWindow(m_hWnd)); return (int) ::SendMessage(m_hWnd, LVM_GETNEXTITEM, nItem, MAKELPARAM(nFlags, 0)); }

  0004c	ff d6		 call	 esi
; File D:\git\src\IBK\IBK_DRFN\ProjSrc\SrcDrfn\Chart\comparechart\XListCtrlJongData.cpp

; 1223 : 	CUIntArray arrayIndex;

  0004e	8d 4d d8	 lea	 ecx, DWORD PTR _arrayIndex$[ebp]
; File C:\Program Files (x86)\Microsoft Visual Studio\2019\Community\VC\Tools\MSVC\14.29.30133\atlmfc\include\afxcmn.inl

; 177  : 	{ ASSERT(::IsWindow(m_hWnd)); return (int) ::SendMessage(m_hWnd, LVM_GETNEXTITEM, nItem, MAKELPARAM(nFlags, 0)); }

  00051	8b f0		 mov	 esi, eax
; File D:\git\src\IBK\IBK_DRFN\ProjSrc\SrcDrfn\Chart\comparechart\XListCtrlJongData.cpp

; 1223 : 	CUIntArray arrayIndex;

  00053	e8 00 00 00 00	 call	 ??0CUIntArray@@QAE@XZ	; CUIntArray::CUIntArray
  00058	c7 45 fc 00 00
	00 00		 mov	 DWORD PTR __$EHRec$[ebp+8], 0
; File C:\Program Files (x86)\Microsoft Visual Studio\2019\Community\VC\Tools\MSVC\14.29.30133\atlmfc\include\afxcmn.inl

; 179  : 	{ ASSERT(::IsWindow(m_hWnd)); return (POSITION)(DWORD_PTR)(1+GetNextItem(-1, LVIS_SELECTED)); }

  0005f	83 c6 01	 add	 esi, 1
; File D:\git\src\IBK\IBK_DRFN\ProjSrc\SrcDrfn\Chart\comparechart\XListCtrlJongData.cpp

; 1226 : 	while(pos)

  00062	74 2e		 je	 SHORT $LN3@SetCursorP
$LL2@SetCursorP:
; File C:\Program Files (x86)\Microsoft Visual Studio\2019\Community\VC\Tools\MSVC\14.29.30133\atlmfc\include\afxcmn.inl

; 177  : 	{ ASSERT(::IsWindow(m_hWnd)); return (int) ::SendMessage(m_hWnd, LVM_GETNEXTITEM, nItem, MAKELPARAM(nFlags, 0)); }

  00064	6a 02		 push	 2

; 181  : 	{ ASSERT(::IsWindow(m_hWnd)); DWORD_PTR nOldPos = (DWORD_PTR)pos-1; pos = (POSITION)(DWORD_PTR)(1+GetNextItem((UINT)nOldPos, LVIS_SELECTED)); return (UINT)nOldPos; }

  00066	4e		 dec	 esi

; 177  : 	{ ASSERT(::IsWindow(m_hWnd)); return (int) ::SendMessage(m_hWnd, LVM_GETNEXTITEM, nItem, MAKELPARAM(nFlags, 0)); }

  00067	56		 push	 esi
  00068	68 0c 10 00 00	 push	 4108			; 0000100cH
  0006d	ff 73 20	 push	 DWORD PTR [ebx+32]
  00070	ff 15 00 00 00
	00		 call	 DWORD PTR __imp__SendMessageA@16
; File C:\Program Files (x86)\Microsoft Visual Studio\2019\Community\VC\Tools\MSVC\14.29.30133\atlmfc\include\afxcoll.inl

; 180  : 		SetAtGrow(nIndex, newElement);

  00076	56		 push	 esi
  00077	ff 75 e0	 push	 DWORD PTR _arrayIndex$[ebp+8]
; File C:\Program Files (x86)\Microsoft Visual Studio\2019\Community\VC\Tools\MSVC\14.29.30133\atlmfc\include\afxcmn.inl

; 181  : 	{ ASSERT(::IsWindow(m_hWnd)); DWORD_PTR nOldPos = (DWORD_PTR)pos-1; pos = (POSITION)(DWORD_PTR)(1+GetNextItem((UINT)nOldPos, LVIS_SELECTED)); return (UINT)nOldPos; }

  0007a	40		 inc	 eax
; File C:\Program Files (x86)\Microsoft Visual Studio\2019\Community\VC\Tools\MSVC\14.29.30133\atlmfc\include\afxcoll.inl

; 180  : 		SetAtGrow(nIndex, newElement);

  0007b	8d 4d d8	 lea	 ecx, DWORD PTR _arrayIndex$[ebp]
; File C:\Program Files (x86)\Microsoft Visual Studio\2019\Community\VC\Tools\MSVC\14.29.30133\atlmfc\include\afxcmn.inl

; 181  : 	{ ASSERT(::IsWindow(m_hWnd)); DWORD_PTR nOldPos = (DWORD_PTR)pos-1; pos = (POSITION)(DWORD_PTR)(1+GetNextItem((UINT)nOldPos, LVIS_SELECTED)); return (UINT)nOldPos; }

  0007e	89 45 f0	 mov	 DWORD PTR _pos$1$[ebp], eax
; File C:\Program Files (x86)\Microsoft Visual Studio\2019\Community\VC\Tools\MSVC\14.29.30133\atlmfc\include\afxcoll.inl

; 180  : 		SetAtGrow(nIndex, newElement);

  00081	e8 00 00 00 00	 call	 ?SetAtGrow@CUIntArray@@QAEXHI@Z ; CUIntArray::SetAtGrow
; File D:\git\src\IBK\IBK_DRFN\ProjSrc\SrcDrfn\Chart\comparechart\XListCtrlJongData.cpp

; 1230 : 		if(nItemFirstSelected>nItem)

  00086	3b fe		 cmp	 edi, esi
  00088	0f 4f fe	 cmovg	 edi, esi
  0008b	8b 75 f0	 mov	 esi, DWORD PTR _pos$1$[ebp]
  0008e	85 f6		 test	 esi, esi
  00090	75 d2		 jne	 SHORT $LL2@SetCursorP
$LN3@SetCursorP:

; 1231 : 		{
; 1232 : 			nItemFirstSelected = nItem;
; 1233 : 		}
; 1234 : 	}
; 1235 : 	long lFirstIndex = 0;
; 1236 : 	long lLastIndex = 0;
; 1237 : 	BOOL bRetValue = GetPosOfHighLighted(&lFirstIndex,&lLastIndex);

  00092	8d 45 ec	 lea	 eax, DWORD PTR _lLastIndex$[ebp]
  00095	c7 45 f0 00 00
	00 00		 mov	 DWORD PTR _lFirstIndex$[ebp], 0
  0009c	50		 push	 eax
  0009d	8d 45 f0	 lea	 eax, DWORD PTR _lFirstIndex$[ebp]
  000a0	8b cb		 mov	 ecx, ebx
  000a2	50		 push	 eax
  000a3	e8 00 00 00 00	 call	 ?GetPosOfHighLighted@CXListCtrlJongData@@AAEHPAJ0@Z ; CXListCtrlJongData::GetPosOfHighLighted

; 1238 : 	if(bRetValue)
; 1239 : 	{
; 1240 : 		nItemFirstSelected = lFirstIndex;
; 1241 : 	}
; 1242 : 	if(nItemFirstSelected<nCnt)

  000a8	8b 55 08	 mov	 edx, DWORD PTR _nCnt$[ebp]
  000ab	85 c0		 test	 eax, eax
  000ad	0f 45 7d f0	 cmovne	 edi, DWORD PTR _lFirstIndex$[ebp]
  000b1	3b fa		 cmp	 edi, edx
  000b3	0f 4c fa	 cmovl	 edi, edx

; 1243 : 	{
; 1244 : 		nItemFirstSelected = nCnt;
; 1245 : 	}
; 1246 : 	if(nItemFirstSelected!=0)

  000b6	85 ff		 test	 edi, edi
  000b8	74 64		 je	 SHORT $LN8@SetCursorP

; 1247 : 	{
; 1248 : 		int nCntInArray = arrayIndex.GetSize();

  000ba	8b 45 e0	 mov	 eax, DWORD PTR _arrayIndex$[ebp+8]

; 1249 : 		for(int nPosInArray=0;nPosInArray<nCntInArray;nPosInArray++)

  000bd	33 f6		 xor	 esi, esi
  000bf	8b c8		 mov	 ecx, eax
  000c1	89 4d f0	 mov	 DWORD PTR _nCntInArray$1$[ebp], ecx
  000c4	85 c9		 test	 ecx, ecx
  000c6	7e 25		 jle	 SHORT $LN5@SetCursorP
$LL6@SetCursorP:
; File C:\Program Files (x86)\Microsoft Visual Studio\2019\Community\VC\Tools\MSVC\14.29.30133\atlmfc\include\afxcoll.inl

; 160  : 		if( nIndex < 0 || nIndex >= m_nSize )

  000c8	85 f6		 test	 esi, esi
  000ca	78 6e		 js	 SHORT $LN38@SetCursorP
  000cc	3b f0		 cmp	 esi, eax
  000ce	7d 6a		 jge	 SHORT $LN38@SetCursorP
; File D:\git\src\IBK\IBK_DRFN\ProjSrc\SrcDrfn\Chart\comparechart\XListCtrlJongData.cpp

; 1251 : 			SetCurSel(arrayIndex.GetAt(nPosInArray),FALSE);

  000d0	8b 45 dc	 mov	 eax, DWORD PTR _arrayIndex$[ebp+4]
  000d3	8b cb		 mov	 ecx, ebx
  000d5	6a 00		 push	 0
  000d7	ff 34 b0	 push	 DWORD PTR [eax+esi*4]
  000da	e8 00 00 00 00	 call	 ?SetCurSel@CXListCtrl@@QAEHHH@Z ; CXListCtrl::SetCurSel
  000df	46		 inc	 esi
  000e0	3b 75 f0	 cmp	 esi, DWORD PTR _nCntInArray$1$[ebp]
  000e3	7d 05		 jge	 SHORT $LN51@SetCursorP

; 1249 : 		for(int nPosInArray=0;nPosInArray<nCntInArray;nPosInArray++)

  000e5	8b 45 e0	 mov	 eax, DWORD PTR _arrayIndex$[ebp+8]
  000e8	eb de		 jmp	 SHORT $LL6@SetCursorP
$LN51@SetCursorP:
; File C:\Program Files (x86)\Microsoft Visual Studio\2019\Community\VC\Tools\MSVC\14.29.30133\atlmfc\include\afxcoll.inl

; 160  : 		if( nIndex < 0 || nIndex >= m_nSize )

  000ea	8b 55 08	 mov	 edx, DWORD PTR _nCnt$[ebp]
$LN5@SetCursorP:
; File D:\git\src\IBK\IBK_DRFN\ProjSrc\SrcDrfn\Chart\comparechart\XListCtrlJongData.cpp

; 1253 : 		for(int nPos=(nItemFirstSelected-1);nPos>=0&&(nItemFirstSelected-1-nPos)<nCnt;nPos--)

  000ed	8d 77 ff	 lea	 esi, DWORD PTR [edi-1]
  000f0	85 f6		 test	 esi, esi
  000f2	78 2a		 js	 SHORT $LN8@SetCursorP
  000f4	33 ff		 xor	 edi, edi
$LL9@SetCursorP:
  000f6	3b fa		 cmp	 edi, edx
  000f8	7d 24		 jge	 SHORT $LN8@SetCursorP

; 1254 : 		{
; 1255 : 			SetCurSel(nPos);

  000fa	6a 01		 push	 1
  000fc	56		 push	 esi
  000fd	8b cb		 mov	 ecx, ebx
  000ff	e8 00 00 00 00	 call	 ?SetCurSel@CXListCtrl@@QAEHHH@Z ; CXListCtrl::SetCurSel
; File C:\Program Files (x86)\Microsoft Visual Studio\2019\Community\VC\Tools\MSVC\14.29.30133\atlmfc\include\afxcmn.inl

; 193  : 	{ ASSERT(::IsWindow(m_hWnd)); return (BOOL) ::SendMessage(m_hWnd, LVM_ENSUREVISIBLE, nItem, MAKELPARAM(bPartialOK, 0)); }

  00104	6a 00		 push	 0
  00106	56		 push	 esi
  00107	68 13 10 00 00	 push	 4115			; 00001013H
  0010c	ff 73 20	 push	 DWORD PTR [ebx+32]
  0010f	ff 15 00 00 00
	00		 call	 DWORD PTR __imp__SendMessageA@16
; File D:\git\src\IBK\IBK_DRFN\ProjSrc\SrcDrfn\Chart\comparechart\XListCtrlJongData.cpp

; 1253 : 		for(int nPos=(nItemFirstSelected-1);nPos>=0&&(nItemFirstSelected-1-nPos)<nCnt;nPos--)

  00115	8b 55 08	 mov	 edx, DWORD PTR _nCnt$[ebp]
  00118	47		 inc	 edi
  00119	83 ee 01	 sub	 esi, 1
  0011c	79 d8		 jns	 SHORT $LL9@SetCursorP
$LN8@SetCursorP:

; 1259 : }

  0011e	8d 4d d8	 lea	 ecx, DWORD PTR _arrayIndex$[ebp]
  00121	e8 00 00 00 00	 call	 ??1CUIntArray@@UAE@XZ	; CUIntArray::~CUIntArray
  00126	8b 4d f4	 mov	 ecx, DWORD PTR __$EHRec$[ebp]
  00129	64 89 0d 00 00
	00 00		 mov	 DWORD PTR fs:0, ecx
  00130	59		 pop	 ecx
  00131	5f		 pop	 edi
  00132	5e		 pop	 esi
  00133	5b		 pop	 ebx
  00134	8b e5		 mov	 esp, ebp
  00136	5d		 pop	 ebp
  00137	c2 04 00	 ret	 4
$LN38@SetCursorP:
; File C:\Program Files (x86)\Microsoft Visual Studio\2019\Community\VC\Tools\MSVC\14.29.30133\atlmfc\include\afxcoll.inl

; 161  : 			AfxThrowInvalidArgException();

  0013a	e8 00 00 00 00	 call	 ?AfxThrowInvalidArgException@@YGXXZ ; AfxThrowInvalidArgException
$LN54@SetCursorP:
  0013f	cc		 int	 3
_TEXT	ENDS
;	COMDAT text$x
text$x	SEGMENT
__unwindfunclet$?SetCursorPrev@CXListCtrlJongData@@QAEXH@Z$0:
  00000	8d 4d d8	 lea	 ecx, DWORD PTR _arrayIndex$[ebp]
  00003	e9 00 00 00 00	 jmp	 ??1CUIntArray@@UAE@XZ	; CUIntArray::~CUIntArray
  00008	cc		 int	 3
  00009	cc		 int	 3
  0000a	cc		 int	 3
  0000b	cc		 int	 3
  0000c	cc		 int	 3
__ehhandler$?SetCursorPrev@CXListCtrlJongData@@QAEXH@Z:
  0000d	90		 npad	 1
  0000e	90		 npad	 1
  0000f	8b 54 24 08	 mov	 edx, DWORD PTR [esp+8]
  00013	8d 42 0c	 lea	 eax, DWORD PTR [edx+12]
  00016	8b 4a d4	 mov	 ecx, DWORD PTR [edx-44]
  00019	33 c8		 xor	 ecx, eax
  0001b	e8 00 00 00 00	 call	 @__security_check_cookie@4
  00020	b8 00 00 00 00	 mov	 eax, OFFSET __ehfuncinfo$?SetCursorPrev@CXListCtrlJongData@@QAEXH@Z
  00025	e9 00 00 00 00	 jmp	 ___CxxFrameHandler3
text$x	ENDS
?SetCursorPrev@CXListCtrlJongData@@QAEXH@Z ENDP		; CXListCtrlJongData::SetCursorPrev
; Function compile flags: /Ogtp
; File D:\git\src\IBK\IBK_DRFN\ProjSrc\SrcDrfn\Chart\comparechart\XListCtrlJongData.cpp
; File C:\Program Files (x86)\Microsoft Visual Studio\2019\Community\VC\Tools\MSVC\14.29.30133\atlmfc\include\afxcmn.inl
; File D:\git\src\IBK\IBK_DRFN\ProjSrc\SrcDrfn\Chart\comparechart\XListCtrlJongData.cpp
; File C:\Program Files (x86)\Microsoft Visual Studio\2019\Community\VC\Tools\MSVC\14.29.30133\atlmfc\include\afxcmn.inl
; File D:\git\src\IBK\IBK_DRFN\ProjSrc\SrcDrfn\Chart\comparechart\XListCtrlJongData.cpp
; File C:\Program Files (x86)\Microsoft Visual Studio\2019\Community\VC\Tools\MSVC\14.29.30133\atlmfc\include\afxcmn.inl
; File D:\git\src\IBK\IBK_DRFN\ProjSrc\SrcDrfn\Chart\comparechart\XListCtrlJongData.cpp
;	COMDAT ?RemoveNoUpdateItem@CXListCtrlJongData@@QAEXXZ
_TEXT	SEGMENT
_nCnt$1$ = -12						; size = 4
_this$1$ = -8						; size = 4
_i1$1$ = -4						; size = 4
_pData$2$ = -4						; size = 4
?RemoveNoUpdateItem@CXListCtrlJongData@@QAEXXZ PROC	; CXListCtrlJongData::RemoveNoUpdateItem, COMDAT
; _this$ = ecx

; 1134 : {

  00000	55		 push	 ebp
  00001	8b ec		 mov	 ebp, esp
  00003	83 ec 0c	 sub	 esp, 12			; 0000000cH
  00006	53		 push	 ebx
  00007	57		 push	 edi
; File C:\Program Files (x86)\Microsoft Visual Studio\2019\Community\VC\Tools\MSVC\14.29.30133\atlmfc\include\afxcmn.inl

; 155  : 	{ ASSERT(::IsWindow(m_hWnd)); return (int) ::SendMessage(m_hWnd, LVM_GETITEMCOUNT, 0, 0L); }

  00008	6a 00		 push	 0
; File D:\git\src\IBK\IBK_DRFN\ProjSrc\SrcDrfn\Chart\comparechart\XListCtrlJongData.cpp

; 1134 : {

  0000a	8b d9		 mov	 ebx, ecx
; File C:\Program Files (x86)\Microsoft Visual Studio\2019\Community\VC\Tools\MSVC\14.29.30133\atlmfc\include\afxcmn.inl

; 155  : 	{ ASSERT(::IsWindow(m_hWnd)); return (int) ::SendMessage(m_hWnd, LVM_GETITEMCOUNT, 0, 0L); }

  0000c	6a 00		 push	 0
  0000e	68 04 10 00 00	 push	 4100			; 00001004H
; File D:\git\src\IBK\IBK_DRFN\ProjSrc\SrcDrfn\Chart\comparechart\XListCtrlJongData.cpp

; 1134 : {

  00013	89 5d f8	 mov	 DWORD PTR _this$1$[ebp], ebx
; File C:\Program Files (x86)\Microsoft Visual Studio\2019\Community\VC\Tools\MSVC\14.29.30133\atlmfc\include\afxcmn.inl

; 155  : 	{ ASSERT(::IsWindow(m_hWnd)); return (int) ::SendMessage(m_hWnd, LVM_GETITEMCOUNT, 0, 0L); }

  00016	ff 73 20	 push	 DWORD PTR [ebx+32]
  00019	ff 15 00 00 00
	00		 call	 DWORD PTR __imp__SendMessageA@16
; File D:\git\src\IBK\IBK_DRFN\ProjSrc\SrcDrfn\Chart\comparechart\XListCtrlJongData.cpp

; 1139 : 	for(int i1=0;i1<nCnt;i1++)

  0001f	33 ff		 xor	 edi, edi
  00021	89 45 f4	 mov	 DWORD PTR _nCnt$1$[ebp], eax
  00024	89 7d fc	 mov	 DWORD PTR _i1$1$[ebp], edi
  00027	85 c0		 test	 eax, eax
  00029	0f 8e cd 00 00
	00		 jle	 $LN9@RemoveNoUp
  0002f	56		 push	 esi
$LL4@RemoveNoUp:

; 1140 : 	{
; 1141 : 		bNeedToBeDeleted = TRUE;
; 1142 : 		nMIndex = 0;
; 1143 : 		for(int i2=i1;i2<nCnt;i2++)

  00030	8b f7		 mov	 esi, edi
  00032	3b f8		 cmp	 edi, eax
  00034	7d 1a		 jge	 SHORT $LN44@RemoveNoUp
$LL7@RemoveNoUp:

; 1144 : 		{
; 1145 : 			pData = (CJongDataInListCtrl *)GetItemData(i2);

  00036	56		 push	 esi
  00037	8b cb		 mov	 ecx, ebx
  00039	e8 00 00 00 00	 call	 ?GetItemData@CXListCtrl@@QAEKH@Z ; CXListCtrl::GetItemData

; 1146 : 			if(pData->m_bKeeping)

  0003e	83 78 2c 00	 cmp	 DWORD PTR [eax+44], 0
  00042	0f 85 e7 00 00
	00		 jne	 $LN43@RemoveNoUp

; 1140 : 	{
; 1141 : 		bNeedToBeDeleted = TRUE;
; 1142 : 		nMIndex = 0;
; 1143 : 		for(int i2=i1;i2<nCnt;i2++)

  00048	8b 45 f4	 mov	 eax, DWORD PTR _nCnt$1$[ebp]
  0004b	46		 inc	 esi
  0004c	3b f0		 cmp	 esi, eax
  0004e	7c e6		 jl	 SHORT $LL7@RemoveNoUp
$LN44@RemoveNoUp:

; 1147 : 			{
; 1148 : 				nMIndex = i2;
; 1149 : 				bNeedToBeDeleted = FALSE;
; 1150 : 				break;
; 1151 : 			}
; 1152 : 			else
; 1153 : 			{
; 1154 : 				nMIndex = i1;
; 1155 : 			}
; 1156 : 		}
; 1157 : 		if(bNeedToBeDeleted)
; 1158 : 		{
; 1159 : 			for(int i3=(nCnt-1);i3>=i1;i3--)

  00050	8d 70 ff	 lea	 esi, DWORD PTR [eax-1]
  00053	3b f7		 cmp	 esi, edi
  00055	0f 8c a0 00 00
	00		 jl	 $LN62@RemoveNoUp
  0005b	0f 1f 44 00 00	 npad	 5
$LL10@RemoveNoUp:

; 1160 : 			{
; 1161 : 				pData = (CJongDataInListCtrl *)GetItemData(i3);

  00060	56		 push	 esi
  00061	8b cb		 mov	 ecx, ebx
  00063	e8 00 00 00 00	 call	 ?GetItemData@CXListCtrl@@QAEKH@Z ; CXListCtrl::GetItemData
  00068	89 45 fc	 mov	 DWORD PTR _pData$2$[ebp], eax

; 1162 : 				if(pData)

  0006b	85 c0		 test	 eax, eax
  0006d	74 7b		 je	 SHORT $LN32@RemoveNoUp

; 1163 : 				{
; 1164 : 					m_mapJongData.RemoveKey(pData->m_strJongCode);

  0006f	ff 30		 push	 DWORD PTR [eax]
  00071	8d 8b 60 02 00
	00		 lea	 ecx, DWORD PTR [ebx+608]
  00077	e8 00 00 00 00	 call	 ?RemoveKey@?$CMap@V?$CStringT@DV?$StrTraitMFC_DLL@DV?$ChTraitsCRT@D@ATL@@@@@ATL@@PBDPAVCJongDataInListCtrl@@PAV3@@@QAEHPBD@Z ; CMap<ATL::CStringT<char,StrTraitMFC_DLL<char,ATL::ChTraitsCRT<char> > >,char const *,CJongDataInListCtrl *,CJongDataInListCtrl *>::RemoveKey

; 1165 : 					m_mapJongDataHighlighted.RemoveKey(pData->m_strJongCode);

  0007c	8b 45 fc	 mov	 eax, DWORD PTR _pData$2$[ebp]
  0007f	8d 8b 7c 02 00
	00		 lea	 ecx, DWORD PTR [ebx+636]
  00085	ff 30		 push	 DWORD PTR [eax]
  00087	e8 00 00 00 00	 call	 ?RemoveKey@?$CMap@V?$CStringT@DV?$StrTraitMFC_DLL@DV?$ChTraitsCRT@D@ATL@@@@@ATL@@PBDPAVCJongDataInListCtrl@@PAV3@@@QAEHPBD@Z ; CMap<ATL::CStringT<char,StrTraitMFC_DLL<char,ATL::ChTraitsCRT<char> > >,char const *,CJongDataInListCtrl *,CJongDataInListCtrl *>::RemoveKey
  0008c	8b 4d fc	 mov	 ecx, DWORD PTR _pData$2$[ebp]
  0008f	8d 49 30	 lea	 ecx, DWORD PTR [ecx+48]
  00092	ff 15 00 00 00
	00		 call	 DWORD PTR __imp_??1?$CStringT@DV?$StrTraitMFC_DLL@DV?$ChTraitsCRT@D@ATL@@@@@ATL@@QAE@XZ
  00098	8b 4d fc	 mov	 ecx, DWORD PTR _pData$2$[ebp]
  0009b	8d 49 14	 lea	 ecx, DWORD PTR [ecx+20]
  0009e	ff 15 00 00 00
	00		 call	 DWORD PTR __imp_??1?$CStringT@DV?$StrTraitMFC_DLL@DV?$ChTraitsCRT@D@ATL@@@@@ATL@@QAE@XZ
  000a4	8b 4d fc	 mov	 ecx, DWORD PTR _pData$2$[ebp]
  000a7	8d 49 10	 lea	 ecx, DWORD PTR [ecx+16]
  000aa	ff 15 00 00 00
	00		 call	 DWORD PTR __imp_??1?$CStringT@DV?$StrTraitMFC_DLL@DV?$ChTraitsCRT@D@ATL@@@@@ATL@@QAE@XZ
  000b0	8b 4d fc	 mov	 ecx, DWORD PTR _pData$2$[ebp]
  000b3	8d 49 0c	 lea	 ecx, DWORD PTR [ecx+12]
  000b6	ff 15 00 00 00
	00		 call	 DWORD PTR __imp_??1?$CStringT@DV?$StrTraitMFC_DLL@DV?$ChTraitsCRT@D@ATL@@@@@ATL@@QAE@XZ
  000bc	8b 4d fc	 mov	 ecx, DWORD PTR _pData$2$[ebp]
  000bf	8d 49 08	 lea	 ecx, DWORD PTR [ecx+8]
  000c2	ff 15 00 00 00
	00		 call	 DWORD PTR __imp_??1?$CStringT@DV?$StrTraitMFC_DLL@DV?$ChTraitsCRT@D@ATL@@@@@ATL@@QAE@XZ
  000c8	8b 4d fc	 mov	 ecx, DWORD PTR _pData$2$[ebp]
  000cb	8d 49 04	 lea	 ecx, DWORD PTR [ecx+4]
  000ce	ff 15 00 00 00
	00		 call	 DWORD PTR __imp_??1?$CStringT@DV?$StrTraitMFC_DLL@DV?$ChTraitsCRT@D@ATL@@@@@ATL@@QAE@XZ
  000d4	8b 4d fc	 mov	 ecx, DWORD PTR _pData$2$[ebp]
  000d7	ff 15 00 00 00
	00		 call	 DWORD PTR __imp_??1?$CStringT@DV?$StrTraitMFC_DLL@DV?$ChTraitsCRT@D@ATL@@@@@ATL@@QAE@XZ
  000dd	6a 34		 push	 52			; 00000034H
  000df	ff 75 fc	 push	 DWORD PTR _pData$2$[ebp]
  000e2	e8 00 00 00 00	 call	 ??3@YAXPAXI@Z		; operator delete
  000e7	83 c4 08	 add	 esp, 8
$LN32@RemoveNoUp:

; 1166 : 					delete pData;
; 1167 : 					pData = NULL;
; 1168 : 				}
; 1169 : 				DeleteItem(i3);

  000ea	56		 push	 esi
  000eb	8b cb		 mov	 ecx, ebx
  000ed	e8 00 00 00 00	 call	 ?DeleteItem@CXListCtrl@@QAEHH@Z ; CXListCtrl::DeleteItem
  000f2	4e		 dec	 esi
  000f3	3b f7		 cmp	 esi, edi
  000f5	0f 8d 65 ff ff
	ff		 jge	 $LL10@RemoveNoUp
$LN62@RemoveNoUp:
  000fb	5e		 pop	 esi
$LN9@RemoveNoUp:

; 1181 : 		}
; 1182 : 	}	
; 1183 : 	if(m_bAutoSort)

  000fc	83 bb 34 03 00
	00 00		 cmp	 DWORD PTR [ebx+820], 0
  00103	0f 84 8d 00 00
	00		 je	 $LN61@RemoveNoUp

; 1184 : 	{
; 1185 : 		for(int nPos=0;nPos<10;nPos++)

  00109	33 c0		 xor	 eax, eax
  0010b	8d 8b 0c 03 00
	00		 lea	 ecx, DWORD PTR [ebx+780]
$LL13@RemoveNoUp:

; 1186 : 		{
; 1187 : 			if(m_bSortIndexConst[nPos])

  00111	83 39 00	 cmp	 DWORD PTR [ecx], 0
  00114	75 71		 jne	 SHORT $LN45@RemoveNoUp

; 1184 : 	{
; 1185 : 		for(int nPos=0;nPos<10;nPos++)

  00116	40		 inc	 eax
  00117	83 c1 04	 add	 ecx, 4
  0011a	83 f8 0a	 cmp	 eax, 10			; 0000000aH
  0011d	7c f2		 jl	 SHORT $LL13@RemoveNoUp

; 1190 : 				break;
; 1191 : 			}
; 1192 : 		}	
; 1193 : 	}
; 1194 : 	m_bPlayedAlarmSound = FALSE;
; 1195 : }

  0011f	5f		 pop	 edi
  00120	c7 83 78 03 00
	00 00 00 00 00	 mov	 DWORD PTR [ebx+888], 0
  0012a	5b		 pop	 ebx
  0012b	8b e5		 mov	 esp, ebp
  0012d	5d		 pop	 ebp
  0012e	c3		 ret	 0
$LN43@RemoveNoUp:

; 1170 : 			}			
; 1171 : 			break;
; 1172 : 		}
; 1173 : 		else
; 1174 : 		{
; 1175 : 			if(nMIndex!=i1)

  0012f	3b f7		 cmp	 esi, edi
  00131	74 31		 je	 SHORT $LN19@RemoveNoUp

; 857  : 	CJongDataInListCtrl *pData1 = (CJongDataInListCtrl *)GetItemData(nIndex1);

  00133	56		 push	 esi
  00134	8b cb		 mov	 ecx, ebx
  00136	e8 00 00 00 00	 call	 ?GetItemData@CXListCtrl@@QAEKH@Z ; CXListCtrl::GetItemData

; 858  : 	CJongDataInListCtrl *pData2 = (CJongDataInListCtrl *)GetItemData(nIndex2);

  0013b	ff 75 fc	 push	 DWORD PTR _i1$1$[ebp]
  0013e	8b cb		 mov	 ecx, ebx
  00140	8b f8		 mov	 edi, eax
  00142	e8 00 00 00 00	 call	 ?GetItemData@CXListCtrl@@QAEKH@Z ; CXListCtrl::GetItemData

; 859  : 	InsertCodeDataLighted(pData1, nIndex2);

  00147	ff 75 fc	 push	 DWORD PTR _i1$1$[ebp]
  0014a	8b 4d f8	 mov	 ecx, DWORD PTR _this$1$[ebp]
  0014d	8b d8		 mov	 ebx, eax
  0014f	57		 push	 edi
  00150	e8 00 00 00 00	 call	 ?InsertCodeDataLighted@CXListCtrlJongData@@AAEXPAVCJongDataInListCtrl@@H@Z ; CXListCtrlJongData::InsertCodeDataLighted

; 860  : 	InsertCodeDataLighted(pData2, nIndex1);

  00155	56		 push	 esi
  00156	53		 push	 ebx
  00157	8b 5d f8	 mov	 ebx, DWORD PTR _this$1$[ebp]
  0015a	8b cb		 mov	 ecx, ebx
  0015c	e8 00 00 00 00	 call	 ?InsertCodeDataLighted@CXListCtrlJongData@@AAEXPAVCJongDataInListCtrl@@H@Z ; CXListCtrlJongData::InsertCodeDataLighted
  00161	8b 7d fc	 mov	 edi, DWORD PTR _i1$1$[ebp]
$LN19@RemoveNoUp:

; 1176 : 			{
; 1177 : 				ReplaceIndex(nMIndex,i1);				
; 1178 : 			}	
; 1179 : 			pData = (CJongDataInListCtrl *)GetItemData(i1);

  00164	57		 push	 edi
  00165	8b cb		 mov	 ecx, ebx
  00167	e8 00 00 00 00	 call	 ?GetItemData@CXListCtrl@@QAEKH@Z ; CXListCtrl::GetItemData
  0016c	47		 inc	 edi
  0016d	89 7d fc	 mov	 DWORD PTR _i1$1$[ebp], edi

; 1180 : 			pData->m_bKeeping = FALSE;

  00170	c7 40 2c 00 00
	00 00		 mov	 DWORD PTR [eax+44], 0
  00177	8b 45 f4	 mov	 eax, DWORD PTR _nCnt$1$[ebp]
  0017a	3b f8		 cmp	 edi, eax
  0017c	0f 8c ae fe ff
	ff		 jl	 $LL4@RemoveNoUp

; 1139 : 	for(int i1=0;i1<nCnt;i1++)

  00182	e9 74 ff ff ff	 jmp	 $LN62@RemoveNoUp
$LN45@RemoveNoUp:

; 1188 : 			{
; 1189 : 				SortColumns(nPos,m_bSortIndexType[nPos]);

  00187	ff b4 83 e4 02
	00 00		 push	 DWORD PTR [ebx+eax*4+740]
  0018e	8b cb		 mov	 ecx, ebx
  00190	50		 push	 eax
  00191	e8 00 00 00 00	 call	 ?SortColumns@CXListCtrlJongData@@AAEXHH@Z ; CXListCtrlJongData::SortColumns
$LN61@RemoveNoUp:

; 1190 : 				break;
; 1191 : 			}
; 1192 : 		}	
; 1193 : 	}
; 1194 : 	m_bPlayedAlarmSound = FALSE;
; 1195 : }

  00196	5f		 pop	 edi
  00197	c7 83 78 03 00
	00 00 00 00 00	 mov	 DWORD PTR [ebx+888], 0
  001a1	5b		 pop	 ebx
  001a2	8b e5		 mov	 esp, ebp
  001a4	5d		 pop	 ebp
  001a5	c3		 ret	 0
?RemoveNoUpdateItem@CXListCtrlJongData@@QAEXXZ ENDP	; CXListCtrlJongData::RemoveNoUpdateItem
_TEXT	ENDS
; Function compile flags: /Ogtp
; File D:\git\src\IBK\IBK_DRFN\ProjSrc\SrcDrfn\Chart\comparechart\XListCtrlJongData.cpp
; File C:\Program Files (x86)\Microsoft Visual Studio\2019\Community\VC\Tools\MSVC\14.29.30133\atlmfc\include\atlsimpstr.h
; File D:\git\src\IBK\IBK_DRFN\ProjSrc\SrcDrfn\Chart\comparechart\XListCtrlJongData.cpp
;	COMDAT ?GetDrawColors@CXListCtrlJongData@@UAEXHHAAK0@Z
_TEXT	SEGMENT
_nItem$ = 8						; size = 4
_nSubItem$ = 12						; size = 4
_colorText$ = 16					; size = 4
_colorBkgnd$ = 20					; size = 4
?GetDrawColors@CXListCtrlJongData@@UAEXHHAAK0@Z PROC	; CXListCtrlJongData::GetDrawColors, COMDAT
; _this$ = ecx

; 1108 : {

  00000	55		 push	 ebp
  00001	8b ec		 mov	 ebp, esp
  00003	53		 push	 ebx

; 1109 : 	CXListCtrl::GetDrawColors(nItem,nSubItem,colorText,colorBkgnd);

  00004	8b 5d 14	 mov	 ebx, DWORD PTR _colorBkgnd$[ebp]
  00007	57		 push	 edi
  00008	53		 push	 ebx
  00009	ff 75 10	 push	 DWORD PTR _colorText$[ebp]
  0000c	8b f9		 mov	 edi, ecx
  0000e	ff 75 0c	 push	 DWORD PTR _nSubItem$[ebp]
  00011	ff 75 08	 push	 DWORD PTR _nItem$[ebp]
  00014	e8 00 00 00 00	 call	 ?GetDrawColors@CXListCtrl@@MAEXHHAAK0@Z ; CXListCtrl::GetDrawColors

; 1110 : 	CJongDataInListCtrl *pData = (CJongDataInListCtrl *)GetItemData(nItem);

  00019	ff 75 08	 push	 DWORD PTR _nItem$[ebp]
  0001c	8b cf		 mov	 ecx, edi
  0001e	e8 00 00 00 00	 call	 ?GetItemData@CXListCtrl@@QAEKH@Z ; CXListCtrl::GetItemData
  00023	8b d0		 mov	 edx, eax

; 1111 : 	if(pData)

  00025	85 d2		 test	 edx, edx
  00027	74 7a		 je	 SHORT $LN7@GetDrawCol

; 1112 : 	{
; 1113 : 		if((pData->m_lKeepingCnt>=m_nStartAlarmKeepingCnt&&pData->m_lKeepingCnt<=m_nEndAlarmKeepingCnt)
; 1114 : 			&&nSubItem==m_lIndexOfKeepingCnt			)

  00029	8b 4a 24	 mov	 ecx, DWORD PTR [edx+36]
  0002c	8b 45 0c	 mov	 eax, DWORD PTR _nSubItem$[ebp]
  0002f	3b 8f 68 03 00
	00		 cmp	 ecx, DWORD PTR [edi+872]
  00035	7c 58		 jl	 SHORT $LN3@GetDrawCol
  00037	3b 8f 6c 03 00
	00		 cmp	 ecx, DWORD PTR [edi+876]
  0003d	7f 50		 jg	 SHORT $LN3@GetDrawCol
  0003f	3b 87 3c 03 00
	00		 cmp	 eax, DWORD PTR [edi+828]
  00045	75 48		 jne	 SHORT $LN3@GetDrawCol

; 1115 : 		{
; 1116 : 			if(m_bUseAlarmBkClr)

  00047	83 bf 74 03 00
	00 00		 cmp	 DWORD PTR [edi+884], 0
  0004e	74 06		 je	 SHORT $LN5@GetDrawCol

; 1117 : 			{
; 1118 : 				colorBkgnd = RGB(255,255,0);

  00050	c7 03 ff ff 00
	00		 mov	 DWORD PTR [ebx], 65535	; 0000ffffH
$LN5@GetDrawCol:

; 1120 : 			if(m_bUseAlarmSound&&!m_bPlayedAlarmSound&&!m_strAlarmSound.IsEmpty())

  00056	83 bf 70 03 00
	00 00		 cmp	 DWORD PTR [edi+880], 0
  0005d	74 44		 je	 SHORT $LN7@GetDrawCol
  0005f	83 bf 78 03 00
	00 00		 cmp	 DWORD PTR [edi+888], 0
  00066	75 3b		 jne	 SHORT $LN7@GetDrawCol
; File C:\Program Files (x86)\Microsoft Visual Studio\2019\Community\VC\Tools\MSVC\14.29.30133\atlmfc\include\atlsimpstr.h

; 519  : 		return( GetData()->nDataLength );

  00068	8b 87 7c 03 00
	00		 mov	 eax, DWORD PTR [edi+892]

; 533  : 		return( GetLength() == 0 );

  0006e	83 78 f4 00	 cmp	 DWORD PTR [eax-12], 0
; File D:\git\src\IBK\IBK_DRFN\ProjSrc\SrcDrfn\Chart\comparechart\XListCtrlJongData.cpp

; 1120 : 			if(m_bUseAlarmSound&&!m_bPlayedAlarmSound&&!m_strAlarmSound.IsEmpty())

  00072	74 2f		 je	 SHORT $LN7@GetDrawCol

; 1121 : 			{
; 1122 : 				::PlaySound(m_strAlarmSound, NULL, SND_ASYNC);	

  00074	6a 01		 push	 1
  00076	6a 00		 push	 0
  00078	50		 push	 eax
  00079	ff 15 00 00 00
	00		 call	 DWORD PTR __imp__PlaySoundA@12

; 1123 : 				m_bPlayedAlarmSound = TRUE;

  0007f	c7 87 78 03 00
	00 01 00 00 00	 mov	 DWORD PTR [edi+888], 1
  00089	5f		 pop	 edi

; 1129 : 		}	
; 1130 : 	}
; 1131 : }

  0008a	5b		 pop	 ebx
  0008b	5d		 pop	 ebp
  0008c	c2 10 00	 ret	 16			; 00000010H
$LN3@GetDrawCol:

; 1124 : 			}			
; 1125 : 		}	
; 1126 : 		else if(pData->m_bHighlight&&nSubItem==m_lIndexOfName)

  0008f	83 7a 1c 00	 cmp	 DWORD PTR [edx+28], 0
  00093	74 0e		 je	 SHORT $LN7@GetDrawCol
  00095	3b 87 40 03 00
	00		 cmp	 eax, DWORD PTR [edi+832]
  0009b	75 06		 jne	 SHORT $LN7@GetDrawCol

; 1127 : 		{
; 1128 : 			colorBkgnd = RGB(70,130,232);

  0009d	c7 03 46 82 e8
	00		 mov	 DWORD PTR [ebx], 15237702 ; 00e88246H
$LN7@GetDrawCol:
  000a3	5f		 pop	 edi

; 1129 : 		}	
; 1130 : 	}
; 1131 : }

  000a4	5b		 pop	 ebx
  000a5	5d		 pop	 ebp
  000a6	c2 10 00	 ret	 16			; 00000010H
?GetDrawColors@CXListCtrlJongData@@UAEXHHAAK0@Z ENDP	; CXListCtrlJongData::GetDrawColors
_TEXT	ENDS
; Function compile flags: /Ogtp
; File D:\git\src\IBK\IBK_DRFN\ProjSrc\SrcDrfn\Chart\comparechart\XListCtrlJongData.cpp
; File C:\Program Files (x86)\Microsoft Visual Studio\2019\Community\VC\Tools\MSVC\14.29.30133\atlmfc\include\afxcmn.inl
; File D:\git\src\IBK\IBK_DRFN\ProjSrc\SrcDrfn\Chart\comparechart\XListCtrlJongData.cpp
; File C:\Program Files (x86)\Microsoft Visual Studio\2019\Community\VC\Tools\MSVC\14.29.30133\atlmfc\include\afxcmn.inl
; File C:\Program Files (x86)\Microsoft Visual Studio\2019\Community\VC\Tools\MSVC\14.29.30133\atlmfc\include\atlsimpstr.h
; File D:\git\src\IBK\IBK_DRFN\ProjSrc\SrcDrfn\Chart\comparechart\XListCtrlJongData.cpp
; File C:\Program Files (x86)\Microsoft Visual Studio\2019\Community\VC\Tools\MSVC\14.29.30133\atlmfc\include\atlsimpstr.h
; File D:\git\src\IBK\IBK_DRFN\ProjSrc\SrcDrfn\Chart\comparechart\XListCtrlJongData.cpp
; File C:\Program Files (x86)\Microsoft Visual Studio\2019\Community\VC\Tools\MSVC\14.29.30133\atlmfc\include\cstringt.h
; File D:\git\src\IBK\IBK_DRFN\ProjSrc\SrcDrfn\Chart\comparechart\XListCtrlJongData.cpp
; File C:\Program Files (x86)\Microsoft Visual Studio\2019\Community\VC\Tools\MSVC\14.29.30133\atlmfc\include\afxwin2.inl
; File D:\git\src\IBK\IBK_DRFN\ProjSrc\SrcDrfn\Chart\comparechart\XListCtrlJongData.cpp
;	COMDAT ?UnHighlightByJongmokCode@CXListCtrlJongData@@QAEXPBD@Z
_TEXT	SEGMENT
_nCnt$1$ = -48						; size = 4
_lpJongmokCode$GSCopy$1$ = -44				; size = 4
_strJongmokCode$ = -40					; size = 4
_this$GSCopy$1$ = -36					; size = 4
_rect$2 = -32						; size = 16
__$ArrayPad$ = -16					; size = 4
__$EHRec$ = -12						; size = 12
_lpJongmokCode$ = 8					; size = 4
?UnHighlightByJongmokCode@CXListCtrlJongData@@QAEXPBD@Z PROC ; CXListCtrlJongData::UnHighlightByJongmokCode, COMDAT
; _this$ = ecx

; 1085 : {

  00000	55		 push	 ebp
  00001	8b ec		 mov	 ebp, esp
  00003	6a ff		 push	 -1
  00005	68 00 00 00 00	 push	 __ehhandler$?UnHighlightByJongmokCode@CXListCtrlJongData@@QAEXPBD@Z
  0000a	64 a1 00 00 00
	00		 mov	 eax, DWORD PTR fs:0
  00010	50		 push	 eax
  00011	83 ec 24	 sub	 esp, 36			; 00000024H
  00014	a1 00 00 00 00	 mov	 eax, DWORD PTR ___security_cookie
  00019	33 c5		 xor	 eax, ebp
  0001b	89 45 f0	 mov	 DWORD PTR __$ArrayPad$[ebp], eax
  0001e	56		 push	 esi
  0001f	57		 push	 edi
  00020	50		 push	 eax
  00021	8d 45 f4	 lea	 eax, DWORD PTR __$EHRec$[ebp]
  00024	64 a3 00 00 00
	00		 mov	 DWORD PTR fs:0, eax
  0002a	8b f9		 mov	 edi, ecx
  0002c	89 7d dc	 mov	 DWORD PTR _this$GSCopy$1$[ebp], edi
  0002f	8b 45 08	 mov	 eax, DWORD PTR _lpJongmokCode$[ebp]

; 1086 : 	CString strJongmokCode = lpJongmokCode;

  00032	8d 4d d8	 lea	 ecx, DWORD PTR _strJongmokCode$[ebp]
  00035	50		 push	 eax
  00036	89 45 d4	 mov	 DWORD PTR _lpJongmokCode$GSCopy$1$[ebp], eax
  00039	ff 15 00 00 00
	00		 call	 DWORD PTR __imp_??0?$CStringT@DV?$StrTraitMFC_DLL@DV?$ChTraitsCRT@D@ATL@@@@@ATL@@QAE@PBD@Z
; File C:\Program Files (x86)\Microsoft Visual Studio\2019\Community\VC\Tools\MSVC\14.29.30133\atlmfc\include\afxcmn.inl

; 155  : 	{ ASSERT(::IsWindow(m_hWnd)); return (int) ::SendMessage(m_hWnd, LVM_GETITEMCOUNT, 0, 0L); }

  0003f	6a 00		 push	 0
  00041	6a 00		 push	 0
  00043	68 04 10 00 00	 push	 4100			; 00001004H
  00048	ff 77 20	 push	 DWORD PTR [edi+32]
; File D:\git\src\IBK\IBK_DRFN\ProjSrc\SrcDrfn\Chart\comparechart\XListCtrlJongData.cpp

; 1086 : 	CString strJongmokCode = lpJongmokCode;

  0004b	c7 45 fc 00 00
	00 00		 mov	 DWORD PTR __$EHRec$[ebp+8], 0
; File C:\Program Files (x86)\Microsoft Visual Studio\2019\Community\VC\Tools\MSVC\14.29.30133\atlmfc\include\afxcmn.inl

; 155  : 	{ ASSERT(::IsWindow(m_hWnd)); return (int) ::SendMessage(m_hWnd, LVM_GETITEMCOUNT, 0, 0L); }

  00052	ff 15 00 00 00
	00		 call	 DWORD PTR __imp__SendMessageA@16
; File C:\Program Files (x86)\Microsoft Visual Studio\2019\Community\VC\Tools\MSVC\14.29.30133\atlmfc\include\atlsimpstr.h

; 533  : 		return( GetLength() == 0 );

  00058	8b 4d d8	 mov	 ecx, DWORD PTR _strJongmokCode$[ebp]
; File D:\git\src\IBK\IBK_DRFN\ProjSrc\SrcDrfn\Chart\comparechart\XListCtrlJongData.cpp

; 1088 : 	int nCnt = GetItemCount();

  0005b	89 45 d0	 mov	 DWORD PTR _nCnt$1$[ebp], eax
; File C:\Program Files (x86)\Microsoft Visual Studio\2019\Community\VC\Tools\MSVC\14.29.30133\atlmfc\include\atlsimpstr.h

; 533  : 		return( GetLength() == 0 );

  0005e	83 79 f4 00	 cmp	 DWORD PTR [ecx-12], 0
; File D:\git\src\IBK\IBK_DRFN\ProjSrc\SrcDrfn\Chart\comparechart\XListCtrlJongData.cpp

; 1089 : 	if(strJongmokCode.IsEmpty()) return;

  00062	74 6b		 je	 SHORT $LN3@UnHighligh

; 1090 : 	for(int i=0;i<nCnt;i++)

  00064	33 f6		 xor	 esi, esi
  00066	85 c0		 test	 eax, eax
  00068	7e 65		 jle	 SHORT $LN3@UnHighligh
  0006a	66 0f 1f 44 00
	00		 npad	 6
$LL4@UnHighligh:

; 1091 : 	{
; 1092 : 		pData = (CJongDataInListCtrl *)GetItemData(i);

  00070	56		 push	 esi
  00071	8b cf		 mov	 ecx, edi
  00073	e8 00 00 00 00	 call	 ?GetItemData@CXListCtrl@@QAEKH@Z ; CXListCtrl::GetItemData
  00078	8b f8		 mov	 edi, eax

; 1093 : 		if(pData)

  0007a	85 ff		 test	 edi, edi
  0007c	74 48		 je	 SHORT $LN40@UnHighligh
; File C:\Program Files (x86)\Microsoft Visual Studio\2019\Community\VC\Tools\MSVC\14.29.30133\atlmfc\include\cstringt.h

; 2486 : 		return(str1.Compare(psz2) == 0);

  0007e	ff 75 d4	 push	 DWORD PTR _lpJongmokCode$GSCopy$1$[ebp]
  00081	8b cf		 mov	 ecx, edi
  00083	ff 15 00 00 00
	00		 call	 DWORD PTR __imp_?Compare@?$CStringT@DV?$StrTraitMFC_DLL@DV?$ChTraitsCRT@D@ATL@@@@@ATL@@QBEHPBD@Z
  00089	85 c0		 test	 eax, eax
; File D:\git\src\IBK\IBK_DRFN\ProjSrc\SrcDrfn\Chart\comparechart\XListCtrlJongData.cpp

; 1095 : 			if(pData->m_strJongCode==lpJongmokCode)

  0008b	75 39		 jne	 SHORT $LN40@UnHighligh

; 1096 : 			{
; 1097 : 				pData->m_bHighlight = FALSE;
; 1098 : 				m_mapJongDataHighlighted.RemoveKey(pData->m_strJongCode);

  0008d	ff 37		 push	 DWORD PTR [edi]
  0008f	89 47 1c	 mov	 DWORD PTR [edi+28], eax
  00092	8b 7d dc	 mov	 edi, DWORD PTR _this$GSCopy$1$[ebp]
  00095	8d 8f 7c 02 00
	00		 lea	 ecx, DWORD PTR [edi+636]
  0009b	e8 00 00 00 00	 call	 ?RemoveKey@?$CMap@V?$CStringT@DV?$StrTraitMFC_DLL@DV?$ChTraitsCRT@D@ATL@@@@@ATL@@PBDPAVCJongDataInListCtrl@@PAV3@@@QAEHPBD@Z ; CMap<ATL::CStringT<char,StrTraitMFC_DLL<char,ATL::ChTraitsCRT<char> > >,char const *,CJongDataInListCtrl *,CJongDataInListCtrl *>::RemoveKey

; 1099 : 				CRect rect;
; 1100 : 				GetItemRect(i,rect,LVIR_BOUNDS);

  000a0	6a 00		 push	 0
  000a2	8d 45 e0	 lea	 eax, DWORD PTR _rect$2[ebp]
  000a5	0f 57 c0	 xorps	 xmm0, xmm0
  000a8	50		 push	 eax
  000a9	56		 push	 esi
  000aa	8b cf		 mov	 ecx, edi
  000ac	0f 11 45 e0	 movups	 XMMWORD PTR _rect$2[ebp], xmm0
  000b0	e8 00 00 00 00	 call	 ?GetItemRect@CListCtrl@@QBEHHPAUtagRECT@@I@Z ; CListCtrl::GetItemRect
; File C:\Program Files (x86)\Microsoft Visual Studio\2019\Community\VC\Tools\MSVC\14.29.30133\atlmfc\include\afxwin2.inl

; 116  : 	{ ASSERT(::IsWindow(m_hWnd)); ::InvalidateRect(m_hWnd, lpRect, bErase); }

  000b5	6a 01		 push	 1
  000b7	8d 45 e0	 lea	 eax, DWORD PTR _rect$2[ebp]
  000ba	50		 push	 eax
  000bb	ff 77 20	 push	 DWORD PTR [edi+32]
  000be	ff 15 00 00 00
	00		 call	 DWORD PTR __imp__InvalidateRect@12
; File D:\git\src\IBK\IBK_DRFN\ProjSrc\SrcDrfn\Chart\comparechart\XListCtrlJongData.cpp

; 1093 : 		if(pData)

  000c4	eb 03		 jmp	 SHORT $LN2@UnHighligh
$LN40@UnHighligh:

; 1090 : 	for(int i=0;i<nCnt;i++)

  000c6	8b 7d dc	 mov	 edi, DWORD PTR _this$GSCopy$1$[ebp]
$LN2@UnHighligh:
  000c9	46		 inc	 esi
  000ca	3b 75 d0	 cmp	 esi, DWORD PTR _nCnt$1$[ebp]
  000cd	7c a1		 jl	 SHORT $LL4@UnHighligh
$LN3@UnHighligh:

; 1101 : 				InvalidateRect(rect);
; 1102 : 			}
; 1103 : 		}
; 1104 : 	}
; 1105 : }

  000cf	8d 4d d8	 lea	 ecx, DWORD PTR _strJongmokCode$[ebp]
  000d2	ff 15 00 00 00
	00		 call	 DWORD PTR __imp_??1?$CStringT@DV?$StrTraitMFC_DLL@DV?$ChTraitsCRT@D@ATL@@@@@ATL@@QAE@XZ
  000d8	8b 4d f4	 mov	 ecx, DWORD PTR __$EHRec$[ebp]
  000db	64 89 0d 00 00
	00 00		 mov	 DWORD PTR fs:0, ecx
  000e2	59		 pop	 ecx
  000e3	5f		 pop	 edi
  000e4	5e		 pop	 esi
  000e5	8b 4d f0	 mov	 ecx, DWORD PTR __$ArrayPad$[ebp]
  000e8	33 cd		 xor	 ecx, ebp
  000ea	e8 00 00 00 00	 call	 @__security_check_cookie@4
  000ef	8b e5		 mov	 esp, ebp
  000f1	5d		 pop	 ebp
  000f2	c2 04 00	 ret	 4
_TEXT	ENDS
;	COMDAT text$x
text$x	SEGMENT
__unwindfunclet$?UnHighlightByJongmokCode@CXListCtrlJongData@@QAEXPBD@Z$0:
  00000	8d 4d d8	 lea	 ecx, DWORD PTR _strJongmokCode$[ebp]
  00003	ff 25 00 00 00
	00		 jmp	 DWORD PTR __imp_??1?$CStringT@DV?$StrTraitMFC_DLL@DV?$ChTraitsCRT@D@ATL@@@@@ATL@@QAE@XZ
  00009	cc		 int	 3
  0000a	cc		 int	 3
  0000b	cc		 int	 3
  0000c	cc		 int	 3
  0000d	cc		 int	 3
__ehhandler$?UnHighlightByJongmokCode@CXListCtrlJongData@@QAEXPBD@Z:
  0000e	90		 npad	 1
  0000f	90		 npad	 1
  00010	8b 54 24 08	 mov	 edx, DWORD PTR [esp+8]
  00014	8d 42 0c	 lea	 eax, DWORD PTR [edx+12]
  00017	8b 4a d0	 mov	 ecx, DWORD PTR [edx-48]
  0001a	33 c8		 xor	 ecx, eax
  0001c	e8 00 00 00 00	 call	 @__security_check_cookie@4
  00021	8b 4a fc	 mov	 ecx, DWORD PTR [edx-4]
  00024	33 c8		 xor	 ecx, eax
  00026	e8 00 00 00 00	 call	 @__security_check_cookie@4
  0002b	b8 00 00 00 00	 mov	 eax, OFFSET __ehfuncinfo$?UnHighlightByJongmokCode@CXListCtrlJongData@@QAEXPBD@Z
  00030	e9 00 00 00 00	 jmp	 ___CxxFrameHandler3
text$x	ENDS
?UnHighlightByJongmokCode@CXListCtrlJongData@@QAEXPBD@Z ENDP ; CXListCtrlJongData::UnHighlightByJongmokCode
; Function compile flags: /Ogtp
; File D:\git\src\IBK\IBK_DRFN\ProjSrc\SrcDrfn\Chart\comparechart\XListCtrlJongData.cpp
; File C:\Program Files (x86)\Microsoft Visual Studio\2019\Community\VC\Tools\MSVC\14.29.30133\atlmfc\include\afxcmn.inl
; File D:\git\src\IBK\IBK_DRFN\ProjSrc\SrcDrfn\Chart\comparechart\XListCtrlJongData.cpp
; File C:\Program Files (x86)\Microsoft Visual Studio\2019\Community\VC\Tools\MSVC\14.29.30133\atlmfc\include\afxcmn.inl
; File D:\git\src\IBK\IBK_DRFN\ProjSrc\SrcDrfn\Chart\comparechart\XListCtrlJongData.cpp
; File C:\Program Files (x86)\Microsoft Visual Studio\2019\Community\VC\Tools\MSVC\14.29.30133\atlmfc\include\cstringt.h
; File D:\git\src\IBK\IBK_DRFN\ProjSrc\SrcDrfn\Chart\comparechart\XListCtrlJongData.cpp
; File C:\Program Files (x86)\Microsoft Visual Studio\2019\Community\VC\Tools\MSVC\14.29.30133\atlmfc\include\atltypes.h
; File D:\git\src\IBK\IBK_DRFN\ProjSrc\SrcDrfn\Chart\comparechart\XListCtrlJongData.cpp
; File C:\Program Files (x86)\Microsoft Visual Studio\2019\Community\VC\Tools\MSVC\14.29.30133\atlmfc\include\afxwin2.inl
; File D:\git\src\IBK\IBK_DRFN\ProjSrc\SrcDrfn\Chart\comparechart\XListCtrlJongData.cpp
;	COMDAT ?GetCheckByJongmokCode@CXListCtrlJongData@@QAEHPBD@Z
_TEXT	SEGMENT
_nCnt$1$ = -28						; size = 4
_lpJongmokCode$GSCopy$1$ = -24				; size = 4
_rect$1 = -20						; size = 16
__$ArrayPad$ = -4					; size = 4
_lpJongmokCode$ = 8					; size = 4
?GetCheckByJongmokCode@CXListCtrlJongData@@QAEHPBD@Z PROC ; CXListCtrlJongData::GetCheckByJongmokCode, COMDAT
; _this$ = ecx

; 1062 : {	

  00000	55		 push	 ebp
  00001	8b ec		 mov	 ebp, esp
  00003	83 ec 1c	 sub	 esp, 28			; 0000001cH
  00006	a1 00 00 00 00	 mov	 eax, DWORD PTR ___security_cookie
  0000b	33 c5		 xor	 eax, ebp
  0000d	89 45 fc	 mov	 DWORD PTR __$ArrayPad$[ebp], eax
  00010	8b 45 08	 mov	 eax, DWORD PTR _lpJongmokCode$[ebp]
  00013	53		 push	 ebx
  00014	56		 push	 esi
  00015	57		 push	 edi
; File C:\Program Files (x86)\Microsoft Visual Studio\2019\Community\VC\Tools\MSVC\14.29.30133\atlmfc\include\afxcmn.inl

; 155  : 	{ ASSERT(::IsWindow(m_hWnd)); return (int) ::SendMessage(m_hWnd, LVM_GETITEMCOUNT, 0, 0L); }

  00016	6a 00		 push	 0
; File D:\git\src\IBK\IBK_DRFN\ProjSrc\SrcDrfn\Chart\comparechart\XListCtrlJongData.cpp

; 1062 : {	

  00018	8b d9		 mov	 ebx, ecx
  0001a	89 45 e8	 mov	 DWORD PTR _lpJongmokCode$GSCopy$1$[ebp], eax
; File C:\Program Files (x86)\Microsoft Visual Studio\2019\Community\VC\Tools\MSVC\14.29.30133\atlmfc\include\afxcmn.inl

; 155  : 	{ ASSERT(::IsWindow(m_hWnd)); return (int) ::SendMessage(m_hWnd, LVM_GETITEMCOUNT, 0, 0L); }

  0001d	6a 00		 push	 0
  0001f	68 04 10 00 00	 push	 4100			; 00001004H
  00024	ff 73 20	 push	 DWORD PTR [ebx+32]
  00027	ff 15 00 00 00
	00		 call	 DWORD PTR __imp__SendMessageA@16
; File D:\git\src\IBK\IBK_DRFN\ProjSrc\SrcDrfn\Chart\comparechart\XListCtrlJongData.cpp

; 1065 : 	for(int i=0;i<nCnt;i++)

  0002d	33 f6		 xor	 esi, esi
  0002f	89 45 e4	 mov	 DWORD PTR _nCnt$1$[ebp], eax
  00032	85 c0		 test	 eax, eax
  00034	7e 23		 jle	 SHORT $LN35@GetCheckBy
$LL4@GetCheckBy:

; 1066 : 	{
; 1067 : 		pData = (CJongDataInListCtrl *)GetItemData(i);

  00036	56		 push	 esi
  00037	8b cb		 mov	 ecx, ebx
  00039	e8 00 00 00 00	 call	 ?GetItemData@CXListCtrl@@QAEKH@Z ; CXListCtrl::GetItemData
  0003e	8b f8		 mov	 edi, eax

; 1068 : 		if(pData)

  00040	85 ff		 test	 edi, edi
  00042	74 0f		 je	 SHORT $LN2@GetCheckBy
; File C:\Program Files (x86)\Microsoft Visual Studio\2019\Community\VC\Tools\MSVC\14.29.30133\atlmfc\include\cstringt.h

; 2486 : 		return(str1.Compare(psz2) == 0);

  00044	ff 75 e8	 push	 DWORD PTR _lpJongmokCode$GSCopy$1$[ebp]
  00047	8b cf		 mov	 ecx, edi
  00049	ff 15 00 00 00
	00		 call	 DWORD PTR __imp_?Compare@?$CStringT@DV?$StrTraitMFC_DLL@DV?$ChTraitsCRT@D@ATL@@@@@ATL@@QBEHPBD@Z
  0004f	85 c0		 test	 eax, eax
; File D:\git\src\IBK\IBK_DRFN\ProjSrc\SrcDrfn\Chart\comparechart\XListCtrlJongData.cpp

; 1070 : 			if(pData->m_strJongCode==lpJongmokCode)

  00051	74 1b		 je	 SHORT $LN19@GetCheckBy
$LN2@GetCheckBy:

; 1065 : 	for(int i=0;i<nCnt;i++)

  00053	46		 inc	 esi
  00054	3b 75 e4	 cmp	 esi, DWORD PTR _nCnt$1$[ebp]
  00057	7c dd		 jl	 SHORT $LL4@GetCheckBy
$LN35@GetCheckBy:
  00059	5f		 pop	 edi

; 1078 : 			}
; 1079 : 		}
; 1080 : 	}
; 1081 : 	return 0L;
; 1082 : }

  0005a	5e		 pop	 esi
  0005b	33 c0		 xor	 eax, eax
  0005d	5b		 pop	 ebx
  0005e	8b 4d fc	 mov	 ecx, DWORD PTR __$ArrayPad$[ebp]
  00061	33 cd		 xor	 ecx, ebp
  00063	e8 00 00 00 00	 call	 @__security_check_cookie@4
  00068	8b e5		 mov	 esp, ebp
  0006a	5d		 pop	 ebp
  0006b	c2 04 00	 ret	 4
$LN19@GetCheckBy:

; 1071 : 			{
; 1072 : 				pData->m_bHighlight = TRUE;
; 1073 : 				m_mapJongDataHighlighted.SetAt(pData->m_strJongCode,pData);

  0006e	57		 push	 edi
  0006f	ff 37		 push	 DWORD PTR [edi]
  00071	8d 8b 7c 02 00
	00		 lea	 ecx, DWORD PTR [ebx+636]
  00077	c7 47 1c 01 00
	00 00		 mov	 DWORD PTR [edi+28], 1
  0007e	e8 00 00 00 00	 call	 ?SetAt@?$CMap@V?$CStringT@DV?$StrTraitMFC_DLL@DV?$ChTraitsCRT@D@ATL@@@@@ATL@@PBDPAVCJongDataInListCtrl@@PAV3@@@QAEXPBDPAVCJongDataInListCtrl@@@Z ; CMap<ATL::CStringT<char,StrTraitMFC_DLL<char,ATL::ChTraitsCRT<char> > >,char const *,CJongDataInListCtrl *,CJongDataInListCtrl *>::SetAt

; 1075 : 				GetItemRect(i,rect,LVIR_BOUNDS);

  00083	6a 00		 push	 0
  00085	8d 45 ec	 lea	 eax, DWORD PTR _rect$1[ebp]
  00088	0f 57 c0	 xorps	 xmm0, xmm0
  0008b	50		 push	 eax
  0008c	56		 push	 esi
  0008d	8b cb		 mov	 ecx, ebx
; File C:\Program Files (x86)\Microsoft Visual Studio\2019\Community\VC\Tools\MSVC\14.29.30133\atlmfc\include\atltypes.h

; 528  : 	left = 0;

  0008f	0f 11 45 ec	 movups	 XMMWORD PTR _rect$1[ebp], xmm0
; File D:\git\src\IBK\IBK_DRFN\ProjSrc\SrcDrfn\Chart\comparechart\XListCtrlJongData.cpp

; 1075 : 				GetItemRect(i,rect,LVIR_BOUNDS);

  00093	e8 00 00 00 00	 call	 ?GetItemRect@CListCtrl@@QBEHHPAUtagRECT@@I@Z ; CListCtrl::GetItemRect
; File C:\Program Files (x86)\Microsoft Visual Studio\2019\Community\VC\Tools\MSVC\14.29.30133\atlmfc\include\afxwin2.inl

; 116  : 	{ ASSERT(::IsWindow(m_hWnd)); ::InvalidateRect(m_hWnd, lpRect, bErase); }

  00098	6a 01		 push	 1
  0009a	8d 45 ec	 lea	 eax, DWORD PTR _rect$1[ebp]
  0009d	50		 push	 eax
  0009e	ff 73 20	 push	 DWORD PTR [ebx+32]
  000a1	ff 15 00 00 00
	00		 call	 DWORD PTR __imp__InvalidateRect@12
; File D:\git\src\IBK\IBK_DRFN\ProjSrc\SrcDrfn\Chart\comparechart\XListCtrlJongData.cpp

; 1077 : 				return pData->m_bCheck;				

  000a7	8b 47 20	 mov	 eax, DWORD PTR [edi+32]

; 1078 : 			}
; 1079 : 		}
; 1080 : 	}
; 1081 : 	return 0L;
; 1082 : }

  000aa	8b 4d fc	 mov	 ecx, DWORD PTR __$ArrayPad$[ebp]
  000ad	5f		 pop	 edi
  000ae	5e		 pop	 esi
  000af	33 cd		 xor	 ecx, ebp
  000b1	5b		 pop	 ebx
  000b2	e8 00 00 00 00	 call	 @__security_check_cookie@4
  000b7	8b e5		 mov	 esp, ebp
  000b9	5d		 pop	 ebp
  000ba	c2 04 00	 ret	 4
?GetCheckByJongmokCode@CXListCtrlJongData@@QAEHPBD@Z ENDP ; CXListCtrlJongData::GetCheckByJongmokCode
_TEXT	ENDS
; Function compile flags: /Ogtp
; File D:\git\src\IBK\IBK_DRFN\ProjSrc\SrcDrfn\Chart\comparechart\XListCtrlJongData.cpp
; File C:\Program Files (x86)\Microsoft Visual Studio\2019\Community\VC\Tools\MSVC\14.29.30133\atlmfc\include\afxwin2.inl
; File D:\git\src\IBK\IBK_DRFN\ProjSrc\SrcDrfn\Chart\comparechart\XListCtrlJongData.cpp
;	COMDAT ?UpdateCheck@CXListCtrlJongData@@QAEXHPAVCWnd@@@Z
_TEXT	SEGMENT
_nIndex$ = 8						; size = 4
_pWnd$ = 12						; size = 4
?UpdateCheck@CXListCtrlJongData@@QAEXHPAVCWnd@@@Z PROC	; CXListCtrlJongData::UpdateCheck, COMDAT
; _this$ = ecx

; 864  : {

  00000	55		 push	 ebp
  00001	8b ec		 mov	 ebp, esp
  00003	56		 push	 esi
  00004	57		 push	 edi

; 865  : 	CJongDataInListCtrl *pData = (CJongDataInListCtrl *)GetItemData(nIndex);	

  00005	ff 75 08	 push	 DWORD PTR _nIndex$[ebp]
  00008	8b f9		 mov	 edi, ecx
  0000a	e8 00 00 00 00	 call	 ?GetItemData@CXListCtrl@@QAEKH@Z ; CXListCtrl::GetItemData
  0000f	8b f0		 mov	 esi, eax

; 866  : 	if(pData)

  00011	85 f6		 test	 esi, esi
  00013	74 44		 je	 SHORT $LN5@UpdateChec

; 867  : 	{
; 868  : 		pData->m_bCheck = GetCheckbox(nIndex,0);

  00015	6a 00		 push	 0
  00017	ff 75 08	 push	 DWORD PTR _nIndex$[ebp]
  0001a	8b cf		 mov	 ecx, edi
  0001c	e8 00 00 00 00	 call	 ?GetCheckbox@CXListCtrl@@QAEHHH@Z ; CXListCtrl::GetCheckbox

; 869  : 		if(pData->m_bCheck)

  00021	8b 16		 mov	 edx, DWORD PTR [esi]
  00023	8d 8f 98 02 00
	00		 lea	 ecx, DWORD PTR [edi+664]
  00029	89 46 20	 mov	 DWORD PTR [esi+32], eax
  0002c	85 c0		 test	 eax, eax
  0002e	74 09		 je	 SHORT $LN3@UpdateChec

; 870  : 		{
; 871  : 			m_mapJongDataChecked.SetAt(pData->m_strJongCode,pData);			

  00030	56		 push	 esi
  00031	52		 push	 edx
  00032	e8 00 00 00 00	 call	 ?SetAt@?$CMap@V?$CStringT@DV?$StrTraitMFC_DLL@DV?$ChTraitsCRT@D@ATL@@@@@ATL@@PBDPAVCJongDataInListCtrl@@PAV3@@@QAEXPBDPAVCJongDataInListCtrl@@@Z ; CMap<ATL::CStringT<char,StrTraitMFC_DLL<char,ATL::ChTraitsCRT<char> > >,char const *,CJongDataInListCtrl *,CJongDataInListCtrl *>::SetAt

; 872  : 		}

  00037	eb 06		 jmp	 SHORT $LN4@UpdateChec
$LN3@UpdateChec:

; 873  : 		else
; 874  : 		{
; 875  : 			m_mapJongDataChecked.RemoveKey(pData->m_strJongCode);

  00039	52		 push	 edx
  0003a	e8 00 00 00 00	 call	 ?RemoveKey@?$CMap@V?$CStringT@DV?$StrTraitMFC_DLL@DV?$ChTraitsCRT@D@ATL@@@@@ATL@@PBDPAVCJongDataInListCtrl@@PAV3@@@QAEHPBD@Z ; CMap<ATL::CStringT<char,StrTraitMFC_DLL<char,ATL::ChTraitsCRT<char> > >,char const *,CJongDataInListCtrl *,CJongDataInListCtrl *>::RemoveKey
$LN4@UpdateChec:

; 876  : 		}
; 877  : 		if(pWnd)

  0003f	8b 45 0c	 mov	 eax, DWORD PTR _pWnd$[ebp]
  00042	85 c0		 test	 eax, eax
  00044	74 13		 je	 SHORT $LN5@UpdateChec
; File C:\Program Files (x86)\Microsoft Visual Studio\2019\Community\VC\Tools\MSVC\14.29.30133\atlmfc\include\afxwin2.inl

; 32   : 	{ ASSERT(::IsWindow(m_hWnd)); return ::SendMessage(m_hWnd, message, wParam, lParam); }

  00046	ff 36		 push	 DWORD PTR [esi]
  00048	ff 76 20	 push	 DWORD PTR [esi+32]
  0004b	68 38 04 00 00	 push	 1080			; 00000438H
  00050	ff 70 20	 push	 DWORD PTR [eax+32]
  00053	ff 15 00 00 00
	00		 call	 DWORD PTR __imp__SendMessageA@16
$LN5@UpdateChec:
  00059	5f		 pop	 edi
; File D:\git\src\IBK\IBK_DRFN\ProjSrc\SrcDrfn\Chart\comparechart\XListCtrlJongData.cpp

; 882  : }

  0005a	5e		 pop	 esi
  0005b	5d		 pop	 ebp
  0005c	c2 08 00	 ret	 8
?UpdateCheck@CXListCtrlJongData@@QAEXHPAVCWnd@@@Z ENDP	; CXListCtrlJongData::UpdateCheck
_TEXT	ENDS
; Function compile flags: /Ogtp
; File D:\git\src\IBK\IBK_DRFN\ProjSrc\SrcDrfn\Chart\comparechart\XListCtrlJongData.cpp
; File C:\Program Files (x86)\Microsoft Visual Studio\2019\Community\VC\Tools\MSVC\14.29.30133\atlmfc\include\afxcmn.inl
; File D:\git\src\IBK\IBK_DRFN\ProjSrc\SrcDrfn\Chart\comparechart\XListCtrlJongData.cpp
; File C:\Program Files (x86)\Microsoft Visual Studio\2019\Community\VC\Tools\MSVC\14.29.30133\atlmfc\include\afxcmn.inl
; File D:\git\src\IBK\IBK_DRFN\ProjSrc\SrcDrfn\Chart\comparechart\XListCtrlJongData.cpp
; File C:\Program Files (x86)\Microsoft Visual Studio\2019\Community\VC\Tools\MSVC\14.29.30133\atlmfc\include\afxcmn.inl
; File D:\git\src\IBK\IBK_DRFN\ProjSrc\SrcDrfn\Chart\comparechart\XListCtrlJongData.cpp
; File C:\Program Files (x86)\Microsoft Visual Studio\2019\Community\VC\Tools\MSVC\14.29.30133\atlmfc\include\atlsimpstr.h
; File C:\Program Files (x86)\Microsoft Visual Studio\2019\Community\VC\Tools\MSVC\14.29.30133\atlmfc\include\afxtempl.h
; File D:\git\src\IBK\IBK_DRFN\ProjSrc\SrcDrfn\Chart\comparechart\XListCtrlJongData.cpp
; File C:\Program Files (x86)\Microsoft Visual Studio\2019\Community\VC\Tools\MSVC\14.29.30133\atlmfc\include\afxtempl.h
; File D:\git\src\IBK\IBK_DRFN\ProjSrc\SrcDrfn\Chart\comparechart\XListCtrlJongData.cpp
; File C:\Program Files (x86)\Microsoft Visual Studio\2019\Community\VC\Tools\MSVC\14.29.30133\atlmfc\include\atlsimpstr.h
; File C:\Program Files (x86)\Microsoft Visual Studio\2019\Community\VC\Tools\MSVC\14.29.30133\atlmfc\include\afxtempl.h
; File D:\git\src\IBK\IBK_DRFN\ProjSrc\SrcDrfn\Chart\comparechart\XListCtrlJongData.cpp
; File C:\Program Files (x86)\Microsoft Visual Studio\2019\Community\VC\Tools\MSVC\14.29.30133\atlmfc\include\afxtempl.h
; File D:\git\src\IBK\IBK_DRFN\ProjSrc\SrcDrfn\Chart\comparechart\XListCtrlJongData.cpp
; File C:\Program Files (x86)\Microsoft Visual Studio\2019\Community\VC\Tools\MSVC\14.29.30133\atlmfc\include\afxcoll.inl
; File D:\git\src\IBK\IBK_DRFN\ProjSrc\SrcDrfn\Chart\comparechart\XListCtrlJongData.cpp
; File C:\Program Files (x86)\Microsoft Visual Studio\2019\Community\VC\Tools\MSVC\14.29.30133\atlmfc\include\afxtempl.h
; File D:\git\src\IBK\IBK_DRFN\ProjSrc\SrcDrfn\Chart\comparechart\XListCtrlJongData.cpp
;	COMDAT ?CheckJongmokCode@CXListCtrlJongData@@QAEXPAVCStringList@@@Z
_TEXT	SEGMENT
_nCnt$1$ = -28						; size = 4
_this$1$ = -24						; size = 4
_posOfChecked$1$ = -20					; size = 4
_nHashBucket$1 = -16					; size = 4
_nHashValue$2 = -12					; size = 4
$T3 = -8						; size = 4
_i$1$ = -4						; size = 4
_plistStrJongmokCodeChecked$ = 8			; size = 4
?CheckJongmokCode@CXListCtrlJongData@@QAEXPAVCStringList@@@Z PROC ; CXListCtrlJongData::CheckJongmokCode, COMDAT
; _this$ = ecx

; 1009 : {

  00000	55		 push	 ebp
  00001	8b ec		 mov	 ebp, esp
  00003	83 ec 1c	 sub	 esp, 28			; 0000001cH
  00006	56		 push	 esi
  00007	57		 push	 edi
; File C:\Program Files (x86)\Microsoft Visual Studio\2019\Community\VC\Tools\MSVC\14.29.30133\atlmfc\include\afxcmn.inl

; 155  : 	{ ASSERT(::IsWindow(m_hWnd)); return (int) ::SendMessage(m_hWnd, LVM_GETITEMCOUNT, 0, 0L); }

  00008	6a 00		 push	 0
; File D:\git\src\IBK\IBK_DRFN\ProjSrc\SrcDrfn\Chart\comparechart\XListCtrlJongData.cpp

; 1009 : {

  0000a	8b f9		 mov	 edi, ecx
; File C:\Program Files (x86)\Microsoft Visual Studio\2019\Community\VC\Tools\MSVC\14.29.30133\atlmfc\include\afxcmn.inl

; 155  : 	{ ASSERT(::IsWindow(m_hWnd)); return (int) ::SendMessage(m_hWnd, LVM_GETITEMCOUNT, 0, 0L); }

  0000c	6a 00		 push	 0
  0000e	68 04 10 00 00	 push	 4100			; 00001004H
; File D:\git\src\IBK\IBK_DRFN\ProjSrc\SrcDrfn\Chart\comparechart\XListCtrlJongData.cpp

; 1009 : {

  00013	89 7d e8	 mov	 DWORD PTR _this$1$[ebp], edi
; File C:\Program Files (x86)\Microsoft Visual Studio\2019\Community\VC\Tools\MSVC\14.29.30133\atlmfc\include\afxcmn.inl

; 155  : 	{ ASSERT(::IsWindow(m_hWnd)); return (int) ::SendMessage(m_hWnd, LVM_GETITEMCOUNT, 0, 0L); }

  00016	ff 77 20	 push	 DWORD PTR [edi+32]
  00019	ff 15 00 00 00
	00		 call	 DWORD PTR __imp__SendMessageA@16
; File D:\git\src\IBK\IBK_DRFN\ProjSrc\SrcDrfn\Chart\comparechart\XListCtrlJongData.cpp

; 1013 : 	for(int i=0;i<nCnt;i++)

  0001f	33 f6		 xor	 esi, esi
  00021	89 45 e4	 mov	 DWORD PTR _nCnt$1$[ebp], eax
  00024	89 75 fc	 mov	 DWORD PTR _i$1$[ebp], esi
  00027	85 c0		 test	 eax, eax
  00029	0f 8e 66 01 00
	00		 jle	 $LN66@CheckJongm
  0002f	53		 push	 ebx
$LL4@CheckJongm:

; 1014 : 	{
; 1015 : 		pData = (CJongDataInListCtrl *)GetItemData(i);

  00030	56		 push	 esi
  00031	8b cf		 mov	 ecx, edi
  00033	e8 00 00 00 00	 call	 ?GetItemData@CXListCtrl@@QAEKH@Z ; CXListCtrl::GetItemData
  00038	8b d8		 mov	 ebx, eax

; 1016 : 		if(pData)

  0003a	85 db		 test	 ebx, ebx
  0003c	0f 84 45 01 00
	00		 je	 $LN2@CheckJongm

; 1017 : 		{
; 1018 : 			posOfChecked = plistStrJongmokCodeChecked->Find(pData->m_strJongCode);

  00042	8b 4d 08	 mov	 ecx, DWORD PTR _plistStrJongmokCodeChecked$[ebp]
  00045	6a 00		 push	 0
  00047	ff 33		 push	 DWORD PTR [ebx]
  00049	e8 00 00 00 00	 call	 ?Find@CStringList@@QBEPAU__POSITION@@PBDPAU2@@Z ; CStringList::Find
  0004e	89 45 ec	 mov	 DWORD PTR _posOfChecked$1$[ebp], eax

; 1019 : 			if(posOfChecked)

  00051	85 c0		 test	 eax, eax
  00053	0f 84 25 01 00
	00		 je	 $LN6@CheckJongm

; 1020 : 			{
; 1021 : 				SetCheckbox(i,0,TRUE);

  00059	6a 01		 push	 1
  0005b	6a 01		 push	 1
  0005d	6a 00		 push	 0
  0005f	56		 push	 esi
  00060	8b cf		 mov	 ecx, edi
  00062	e8 00 00 00 00	 call	 ?SetCheckbox@CXListCtrl@@QAEHHHHH@Z ; CXListCtrl::SetCheckbox
; File C:\Program Files (x86)\Microsoft Visual Studio\2019\Community\VC\Tools\MSVC\14.29.30133\atlmfc\include\atlsimpstr.h

; 377  : 		return( m_pszData );

  00067	8b 03		 mov	 eax, DWORD PTR [ebx]
; File C:\Program Files (x86)\Microsoft Visual Studio\2019\Community\VC\Tools\MSVC\14.29.30133\atlmfc\include\afxtempl.h

; 1590 : 	if ((pAssoc = GetAssocAt(key, nHashBucket, nHashValue)) == NULL)

  00069	8d 4d f4	 lea	 ecx, DWORD PTR _nHashValue$2[ebp]
  0006c	51		 push	 ecx
  0006d	8d 4d f0	 lea	 ecx, DWORD PTR _nHashBucket$1[ebp]
; File D:\git\src\IBK\IBK_DRFN\ProjSrc\SrcDrfn\Chart\comparechart\XListCtrlJongData.cpp

; 1022 : 				pData->m_bCheck = TRUE;	

  00070	c7 43 20 01 00
	00 00		 mov	 DWORD PTR [ebx+32], 1
; File C:\Program Files (x86)\Microsoft Visual Studio\2019\Community\VC\Tools\MSVC\14.29.30133\atlmfc\include\afxtempl.h

; 1590 : 	if ((pAssoc = GetAssocAt(key, nHashBucket, nHashValue)) == NULL)

  00077	51		 push	 ecx
; File D:\git\src\IBK\IBK_DRFN\ProjSrc\SrcDrfn\Chart\comparechart\XListCtrlJongData.cpp

; 1023 : 				m_mapJongDataChecked.SetAt(pData->m_strJongCode,pData);

  00078	8d b7 98 02 00
	00		 lea	 esi, DWORD PTR [edi+664]
; File C:\Program Files (x86)\Microsoft Visual Studio\2019\Community\VC\Tools\MSVC\14.29.30133\atlmfc\include\atlsimpstr.h

; 377  : 		return( m_pszData );

  0007e	89 45 f8	 mov	 DWORD PTR $T3[ebp], eax
; File C:\Program Files (x86)\Microsoft Visual Studio\2019\Community\VC\Tools\MSVC\14.29.30133\atlmfc\include\afxtempl.h

; 1590 : 	if ((pAssoc = GetAssocAt(key, nHashBucket, nHashValue)) == NULL)

  00081	50		 push	 eax
  00082	8b ce		 mov	 ecx, esi
  00084	e8 00 00 00 00	 call	 ?GetAssocAt@?$CMap@V?$CStringT@DV?$StrTraitMFC_DLL@DV?$ChTraitsCRT@D@ATL@@@@@ATL@@PBDPAVCJongDataInListCtrl@@PAV3@@@IBEPAVCAssoc@1@PBDAAI1@Z ; CMap<ATL::CStringT<char,StrTraitMFC_DLL<char,ATL::ChTraitsCRT<char> > >,char const *,CJongDataInListCtrl *,CJongDataInListCtrl *>::GetAssocAt
  00089	8b f8		 mov	 edi, eax
  0008b	85 ff		 test	 edi, edi
  0008d	0f 85 d7 00 00
	00		 jne	 $LN21@CheckJongm

; 1591 : 	{
; 1592 : 		if (m_pHashTable == NULL)

  00093	8b 46 04	 mov	 eax, DWORD PTR [esi+4]
  00096	85 c0		 test	 eax, eax
  00098	75 4a		 jne	 SHORT $LN70@CheckJongm

; 1593 : 			InitHashTable(m_nHashTableSize);

  0009a	8b 7e 08	 mov	 edi, DWORD PTR [esi+8]

; 1434 : 		m_pHashTable = new CAssoc* [nHashSize];

  0009d	33 c9		 xor	 ecx, ecx
  0009f	8b c7		 mov	 eax, edi
  000a1	ba 04 00 00 00	 mov	 edx, 4
  000a6	f7 e2		 mul	 edx
  000a8	0f 90 c1	 seto	 cl
  000ab	f7 d9		 neg	 ecx
  000ad	0b c8		 or	 ecx, eax
  000af	51		 push	 ecx
  000b0	e8 00 00 00 00	 call	 ??_U@YAPAXI@Z		; operator new[]
  000b5	83 c4 04	 add	 esp, 4
  000b8	89 46 04	 mov	 DWORD PTR [esi+4], eax

; 1435 : 		ENSURE(m_pHashTable != NULL);

  000bb	85 c0		 test	 eax, eax
  000bd	0f 84 da 00 00
	00		 je	 $LN58@CheckJongm

; 1436 : 		memset(m_pHashTable, 0, sizeof(CAssoc*) * nHashSize);

  000c3	8d 0c bd 00 00
	00 00		 lea	 ecx, DWORD PTR [edi*4]
  000ca	51		 push	 ecx
  000cb	6a 00		 push	 0
  000cd	50		 push	 eax
  000ce	e8 00 00 00 00	 call	 _memset

; 1437 : 	}
; 1438 : 	m_nHashTableSize = nHashSize;

  000d3	8b 46 04	 mov	 eax, DWORD PTR [esi+4]
  000d6	83 c4 0c	 add	 esp, 12			; 0000000cH
  000d9	89 7e 08	 mov	 DWORD PTR [esi+8], edi

; 1595 : 		ENSURE(m_pHashTable);

  000dc	85 c0		 test	 eax, eax
  000de	0f 84 b9 00 00
	00		 je	 $LN58@CheckJongm
$LN70@CheckJongm:

; 1481 : 	if (m_pFreeList == NULL)

  000e4	83 7e 10 00	 cmp	 DWORD PTR [esi+16], 0
  000e8	75 37		 jne	 SHORT $LN40@CheckJongm

; 1482 : 	{
; 1483 : 		// add another block
; 1484 : 		CPlex* newBlock = CPlex::Create(m_pBlocks, m_nBlockSize, sizeof(CMap::CAssoc));

  000ea	6a 10		 push	 16			; 00000010H
  000ec	ff 76 18	 push	 DWORD PTR [esi+24]
  000ef	8d 46 14	 lea	 eax, DWORD PTR [esi+20]
  000f2	50		 push	 eax
  000f3	e8 00 00 00 00	 call	 ?Create@CPlex@@SGPAU1@AAPAU1@II@Z ; CPlex::Create

; 1485 : 		// chain them into free list
; 1486 : 		CMap::CAssoc* pAssoc = (CMap::CAssoc*) newBlock->data();
; 1487 : 		// free in reverse order to make it easier to debug
; 1488 : 		pAssoc += m_nBlockSize - 1;

  000f8	8b 56 18	 mov	 edx, DWORD PTR [esi+24]
  000fb	83 c0 08	 add	 eax, 8
  000fe	8b ca		 mov	 ecx, edx
  00100	c1 e1 04	 shl	 ecx, 4
  00103	83 c1 f0	 add	 ecx, -16		; fffffff0H
  00106	03 c8		 add	 ecx, eax

; 1489 : 		for (INT_PTR i = m_nBlockSize-1; i >= 0; i--, pAssoc--)

  00108	83 c2 ff	 add	 edx, -1
  0010b	78 14		 js	 SHORT $LN40@CheckJongm
  0010d	0f 1f 00	 npad	 3
$LL37@CheckJongm:

; 1490 : 		{
; 1491 : 			pAssoc->pNext = m_pFreeList;

  00110	8b 46 10	 mov	 eax, DWORD PTR [esi+16]
  00113	89 41 08	 mov	 DWORD PTR [ecx+8], eax

; 1492 : 			m_pFreeList = pAssoc;

  00116	89 4e 10	 mov	 DWORD PTR [esi+16], ecx
  00119	83 e9 10	 sub	 ecx, 16			; 00000010H
  0011c	83 ea 01	 sub	 edx, 1
  0011f	79 ef		 jns	 SHORT $LL37@CheckJongm
$LN40@CheckJongm:

; 1495 : 	ENSURE(m_pFreeList != NULL);  // we must have something

  00121	8b 7e 10	 mov	 edi, DWORD PTR [esi+16]
  00124	85 ff		 test	 edi, edi
  00126	74 75		 je	 SHORT $LN58@CheckJongm

; 1496 : 
; 1497 : 	CMap::CAssoc* pAssoc = m_pFreeList;
; 1498 : 
; 1499 : 	// zero the memory
; 1500 : 	CMap::CAssoc* pTemp = pAssoc->pNext;

  00128	8b 47 08	 mov	 eax, DWORD PTR [edi+8]
  0012b	0f 57 c0	 xorps	 xmm0, xmm0

; 1256 : 		CPair( ARG_KEY keyval ) : key( keyval )	{}

  0012e	ff 75 f8	 push	 DWORD PTR $T3[ebp]

; 1501 : 	memset( pAssoc, 0, sizeof(CMap::CAssoc) );

  00131	0f 11 07	 movups	 XMMWORD PTR [edi], xmm0

; 1502 : 	pAssoc->pNext = pTemp;

  00134	89 47 08	 mov	 DWORD PTR [edi+8], eax

; 1256 : 		CPair( ARG_KEY keyval ) : key( keyval )	{}

  00137	8b cf		 mov	 ecx, edi

; 1504 : 	m_pFreeList = m_pFreeList->pNext;

  00139	8b 46 10	 mov	 eax, DWORD PTR [esi+16]
  0013c	8b 40 08	 mov	 eax, DWORD PTR [eax+8]

; 1505 : 	m_nCount++;

  0013f	ff 46 0c	 inc	 DWORD PTR [esi+12]
  00142	89 46 10	 mov	 DWORD PTR [esi+16], eax

; 1256 : 		CPair( ARG_KEY keyval ) : key( keyval )	{}

  00145	ff 15 00 00 00
	00		 call	 DWORD PTR __imp_??0?$CStringT@DV?$StrTraitMFC_DLL@DV?$ChTraitsCRT@D@ATL@@@@@ATL@@QAE@PBD@Z

; 1598 : 		pAssoc->nHashValue = nHashValue;

  0014b	8b 45 f4	 mov	 eax, DWORD PTR _nHashValue$2[ebp]
  0014e	89 47 0c	 mov	 DWORD PTR [edi+12], eax

; 1599 : 		//'pAssoc->value' is a constructed object, nothing more
; 1600 : 
; 1601 : 		// put into hash table
; 1602 : 		pAssoc->pNext = m_pHashTable[nHashBucket];

  00151	8b 45 f0	 mov	 eax, DWORD PTR _nHashBucket$1[ebp]
  00154	8d 0c 85 00 00
	00 00		 lea	 ecx, DWORD PTR [eax*4]
  0015b	8b 46 04	 mov	 eax, DWORD PTR [esi+4]
  0015e	8b 04 01	 mov	 eax, DWORD PTR [ecx+eax]
  00161	89 47 08	 mov	 DWORD PTR [edi+8], eax

; 1603 : 		m_pHashTable[nHashBucket] = pAssoc;

  00164	8b 46 04	 mov	 eax, DWORD PTR [esi+4]
  00167	89 3c 01	 mov	 DWORD PTR [ecx+eax], edi
$LN21@CheckJongm:
; File D:\git\src\IBK\IBK_DRFN\ProjSrc\SrcDrfn\Chart\comparechart\XListCtrlJongData.cpp

; 1024 : 				plistStrJongmokCodeChecked->RemoveAt(posOfChecked);

  0016a	ff 75 ec	 push	 DWORD PTR _posOfChecked$1$[ebp]
  0016d	8b 4d 08	 mov	 ecx, DWORD PTR _plistStrJongmokCodeChecked$[ebp]
; File C:\Program Files (x86)\Microsoft Visual Studio\2019\Community\VC\Tools\MSVC\14.29.30133\atlmfc\include\afxtempl.h

; 1350 : 	{ (*this)[key] = newValue; }

  00170	89 5f 04	 mov	 DWORD PTR [edi+4], ebx
; File D:\git\src\IBK\IBK_DRFN\ProjSrc\SrcDrfn\Chart\comparechart\XListCtrlJongData.cpp

; 1024 : 				plistStrJongmokCodeChecked->RemoveAt(posOfChecked);

  00173	e8 00 00 00 00	 call	 ?RemoveAt@CStringList@@QAEXPAU__POSITION@@@Z ; CStringList::RemoveAt
  00178	8b 75 fc	 mov	 esi, DWORD PTR _i$1$[ebp]
  0017b	8b 7d e8	 mov	 edi, DWORD PTR _this$1$[ebp]
$LN6@CheckJongm:
; File C:\Program Files (x86)\Microsoft Visual Studio\2019\Community\VC\Tools\MSVC\14.29.30133\atlmfc\include\afxcoll.inl

; 483  : 	{ return m_nCount == 0; }

  0017e	8b 45 08	 mov	 eax, DWORD PTR _plistStrJongmokCodeChecked$[ebp]
  00181	83 78 0c 00	 cmp	 DWORD PTR [eax+12], 0
; File D:\git\src\IBK\IBK_DRFN\ProjSrc\SrcDrfn\Chart\comparechart\XListCtrlJongData.cpp

; 1026 : 			if(plistStrJongmokCodeChecked->IsEmpty())

  00185	74 0d		 je	 SHORT $LN67@CheckJongm
$LN2@CheckJongm:

; 1013 : 	for(int i=0;i<nCnt;i++)

  00187	46		 inc	 esi
  00188	89 75 fc	 mov	 DWORD PTR _i$1$[ebp], esi
  0018b	3b 75 e4	 cmp	 esi, DWORD PTR _nCnt$1$[ebp]
  0018e	0f 8c 9c fe ff
	ff		 jl	 $LL4@CheckJongm
$LN67@CheckJongm:
  00194	5b		 pop	 ebx
$LN66@CheckJongm:
  00195	5f		 pop	 edi

; 1032 : }

  00196	5e		 pop	 esi
  00197	8b e5		 mov	 esp, ebp
  00199	5d		 pop	 ebp
  0019a	c2 04 00	 ret	 4
$LN58@CheckJongm:
; File C:\Program Files (x86)\Microsoft Visual Studio\2019\Community\VC\Tools\MSVC\14.29.30133\atlmfc\include\afxtempl.h

; 1495 : 	ENSURE(m_pFreeList != NULL);  // we must have something

  0019d	e8 00 00 00 00	 call	 ?AfxThrowInvalidArgException@@YGXXZ ; AfxThrowInvalidArgException
$LN68@CheckJongm:
  001a2	cc		 int	 3
?CheckJongmokCode@CXListCtrlJongData@@QAEXPAVCStringList@@@Z ENDP ; CXListCtrlJongData::CheckJongmokCode
_TEXT	ENDS
; Function compile flags: /Ogtp
; File D:\git\src\IBK\IBK_DRFN\ProjSrc\SrcDrfn\Chart\comparechart\XListCtrlJongData.cpp
; File C:\Program Files (x86)\Microsoft Visual Studio\2019\Community\VC\Tools\MSVC\14.29.30133\atlmfc\include\afxcmn.inl
; File D:\git\src\IBK\IBK_DRFN\ProjSrc\SrcDrfn\Chart\comparechart\XListCtrlJongData.cpp
; File C:\Program Files (x86)\Microsoft Visual Studio\2019\Community\VC\Tools\MSVC\14.29.30133\atlmfc\include\afxcmn.inl
; File D:\git\src\IBK\IBK_DRFN\ProjSrc\SrcDrfn\Chart\comparechart\XListCtrlJongData.cpp
; File C:\Program Files (x86)\Microsoft Visual Studio\2019\Community\VC\Tools\MSVC\14.29.30133\atlmfc\include\afxcmn.inl
; File D:\git\src\IBK\IBK_DRFN\ProjSrc\SrcDrfn\Chart\comparechart\XListCtrlJongData.cpp
; File C:\Program Files (x86)\Microsoft Visual Studio\2019\Community\VC\Tools\MSVC\14.29.30133\atlmfc\include\atlsimpstr.h
; File C:\Program Files (x86)\Microsoft Visual Studio\2019\Community\VC\Tools\MSVC\14.29.30133\atlmfc\include\afxtempl.h
; File D:\git\src\IBK\IBK_DRFN\ProjSrc\SrcDrfn\Chart\comparechart\XListCtrlJongData.cpp
; File C:\Program Files (x86)\Microsoft Visual Studio\2019\Community\VC\Tools\MSVC\14.29.30133\atlmfc\include\afxtempl.h
; File D:\git\src\IBK\IBK_DRFN\ProjSrc\SrcDrfn\Chart\comparechart\XListCtrlJongData.cpp
; File C:\Program Files (x86)\Microsoft Visual Studio\2019\Community\VC\Tools\MSVC\14.29.30133\atlmfc\include\atlsimpstr.h
; File C:\Program Files (x86)\Microsoft Visual Studio\2019\Community\VC\Tools\MSVC\14.29.30133\atlmfc\include\afxtempl.h
; File D:\git\src\IBK\IBK_DRFN\ProjSrc\SrcDrfn\Chart\comparechart\XListCtrlJongData.cpp
; File C:\Program Files (x86)\Microsoft Visual Studio\2019\Community\VC\Tools\MSVC\14.29.30133\atlmfc\include\afxtempl.h
; File D:\git\src\IBK\IBK_DRFN\ProjSrc\SrcDrfn\Chart\comparechart\XListCtrlJongData.cpp
; File C:\Program Files (x86)\Microsoft Visual Studio\2019\Community\VC\Tools\MSVC\14.29.30133\atlmfc\include\afxcoll.inl
; File D:\git\src\IBK\IBK_DRFN\ProjSrc\SrcDrfn\Chart\comparechart\XListCtrlJongData.cpp
; File C:\Program Files (x86)\Microsoft Visual Studio\2019\Community\VC\Tools\MSVC\14.29.30133\atlmfc\include\afxcoll.inl
; File D:\git\src\IBK\IBK_DRFN\ProjSrc\SrcDrfn\Chart\comparechart\XListCtrlJongData.cpp
; File C:\Program Files (x86)\Microsoft Visual Studio\2019\Community\VC\Tools\MSVC\14.29.30133\atlmfc\include\afxtempl.h
; File D:\git\src\IBK\IBK_DRFN\ProjSrc\SrcDrfn\Chart\comparechart\XListCtrlJongData.cpp
;	COMDAT ?CheckJongmokCode@CXListCtrlJongData@@QAEXPAVCStringList@@0@Z
_TEXT	SEGMENT
_nCnt$1$ = -28						; size = 4
_posOfHighlighted$1$ = -24				; size = 4
_nHashBucket$1 = -20					; size = 4
_nHashValue$2 = -16					; size = 4
$T3 = -12						; size = 4
_i$1$ = -8						; size = 4
_this$1$ = -4						; size = 4
_plistStrJongmokCodeChecked$ = 8			; size = 4
_plistStrJongmokCodeHighlighted$ = 12			; size = 4
?CheckJongmokCode@CXListCtrlJongData@@QAEXPAVCStringList@@0@Z PROC ; CXListCtrlJongData::CheckJongmokCode, COMDAT
; _this$ = ecx

; 972  : {

  00000	55		 push	 ebp
  00001	8b ec		 mov	 ebp, esp
  00003	83 ec 1c	 sub	 esp, 28			; 0000001cH
  00006	53		 push	 ebx
  00007	56		 push	 esi
; File C:\Program Files (x86)\Microsoft Visual Studio\2019\Community\VC\Tools\MSVC\14.29.30133\atlmfc\include\afxcmn.inl

; 155  : 	{ ASSERT(::IsWindow(m_hWnd)); return (int) ::SendMessage(m_hWnd, LVM_GETITEMCOUNT, 0, 0L); }

  00008	6a 00		 push	 0
; File D:\git\src\IBK\IBK_DRFN\ProjSrc\SrcDrfn\Chart\comparechart\XListCtrlJongData.cpp

; 972  : {

  0000a	8b f1		 mov	 esi, ecx
; File C:\Program Files (x86)\Microsoft Visual Studio\2019\Community\VC\Tools\MSVC\14.29.30133\atlmfc\include\afxcmn.inl

; 155  : 	{ ASSERT(::IsWindow(m_hWnd)); return (int) ::SendMessage(m_hWnd, LVM_GETITEMCOUNT, 0, 0L); }

  0000c	6a 00		 push	 0
  0000e	68 04 10 00 00	 push	 4100			; 00001004H
; File D:\git\src\IBK\IBK_DRFN\ProjSrc\SrcDrfn\Chart\comparechart\XListCtrlJongData.cpp

; 972  : {

  00013	89 75 fc	 mov	 DWORD PTR _this$1$[ebp], esi
; File C:\Program Files (x86)\Microsoft Visual Studio\2019\Community\VC\Tools\MSVC\14.29.30133\atlmfc\include\afxcmn.inl

; 155  : 	{ ASSERT(::IsWindow(m_hWnd)); return (int) ::SendMessage(m_hWnd, LVM_GETITEMCOUNT, 0, 0L); }

  00016	ff 76 20	 push	 DWORD PTR [esi+32]
  00019	ff 15 00 00 00
	00		 call	 DWORD PTR __imp__SendMessageA@16
; File D:\git\src\IBK\IBK_DRFN\ProjSrc\SrcDrfn\Chart\comparechart\XListCtrlJongData.cpp

; 977  : 	for(int i=0;i<nCnt;i++)

  0001f	33 db		 xor	 ebx, ebx
  00021	89 45 e4	 mov	 DWORD PTR _nCnt$1$[ebp], eax
  00024	89 5d f8	 mov	 DWORD PTR _i$1$[ebp], ebx
  00027	85 c0		 test	 eax, eax
  00029	0f 8e a9 01 00
	00		 jle	 $LN74@CheckJongm
  0002f	57		 push	 edi
$LL4@CheckJongm:

; 978  : 	{
; 979  : 		pData = (CJongDataInListCtrl *)GetItemData(i);

  00030	53		 push	 ebx
  00031	8b ce		 mov	 ecx, esi
  00033	e8 00 00 00 00	 call	 ?GetItemData@CXListCtrl@@QAEKH@Z ; CXListCtrl::GetItemData
  00038	8b f8		 mov	 edi, eax

; 980  : 		if(pData)

  0003a	85 ff		 test	 edi, edi
  0003c	0f 84 88 01 00
	00		 je	 $LN2@CheckJongm

; 981  : 		{
; 982  : 			posOfHighlighted = plistStrJongmokCodeHighlighted->Find(pData->m_strJongCode);

  00042	8b 4d 0c	 mov	 ecx, DWORD PTR _plistStrJongmokCodeHighlighted$[ebp]
  00045	6a 00		 push	 0
  00047	ff 37		 push	 DWORD PTR [edi]
  00049	e8 00 00 00 00	 call	 ?Find@CStringList@@QBEPAU__POSITION@@PBDPAU2@@Z ; CStringList::Find
  0004e	89 45 e8	 mov	 DWORD PTR _posOfHighlighted$1$[ebp], eax

; 983  : 			if(posOfHighlighted)

  00051	85 c0		 test	 eax, eax
  00053	0f 84 68 01 00
	00		 je	 $LN8@CheckJongm
; File C:\Program Files (x86)\Microsoft Visual Studio\2019\Community\VC\Tools\MSVC\14.29.30133\atlmfc\include\atlsimpstr.h

; 377  : 		return( m_pszData );

  00059	8b 07		 mov	 eax, DWORD PTR [edi]
; File C:\Program Files (x86)\Microsoft Visual Studio\2019\Community\VC\Tools\MSVC\14.29.30133\atlmfc\include\afxtempl.h

; 1590 : 	if ((pAssoc = GetAssocAt(key, nHashBucket, nHashValue)) == NULL)

  0005b	8d 4d f0	 lea	 ecx, DWORD PTR _nHashValue$2[ebp]
  0005e	51		 push	 ecx
  0005f	8d 4d ec	 lea	 ecx, DWORD PTR _nHashBucket$1[ebp]
; File D:\git\src\IBK\IBK_DRFN\ProjSrc\SrcDrfn\Chart\comparechart\XListCtrlJongData.cpp

; 985  : 				pData->m_bHighlight = TRUE;

  00062	c7 47 1c 01 00
	00 00		 mov	 DWORD PTR [edi+28], 1
; File C:\Program Files (x86)\Microsoft Visual Studio\2019\Community\VC\Tools\MSVC\14.29.30133\atlmfc\include\afxtempl.h

; 1590 : 	if ((pAssoc = GetAssocAt(key, nHashBucket, nHashValue)) == NULL)

  00069	51		 push	 ecx
; File D:\git\src\IBK\IBK_DRFN\ProjSrc\SrcDrfn\Chart\comparechart\XListCtrlJongData.cpp

; 986  : 				m_mapJongDataHighlighted.SetAt(pData->m_strJongCode,pData);

  0006a	81 c6 7c 02 00
	00		 add	 esi, 636		; 0000027cH
; File C:\Program Files (x86)\Microsoft Visual Studio\2019\Community\VC\Tools\MSVC\14.29.30133\atlmfc\include\atlsimpstr.h

; 377  : 		return( m_pszData );

  00070	89 45 f4	 mov	 DWORD PTR $T3[ebp], eax
; File C:\Program Files (x86)\Microsoft Visual Studio\2019\Community\VC\Tools\MSVC\14.29.30133\atlmfc\include\afxtempl.h

; 1590 : 	if ((pAssoc = GetAssocAt(key, nHashBucket, nHashValue)) == NULL)

  00073	50		 push	 eax
  00074	8b ce		 mov	 ecx, esi
  00076	e8 00 00 00 00	 call	 ?GetAssocAt@?$CMap@V?$CStringT@DV?$StrTraitMFC_DLL@DV?$ChTraitsCRT@D@ATL@@@@@ATL@@PBDPAVCJongDataInListCtrl@@PAV3@@@IBEPAVCAssoc@1@PBDAAI1@Z ; CMap<ATL::CStringT<char,StrTraitMFC_DLL<char,ATL::ChTraitsCRT<char> > >,char const *,CJongDataInListCtrl *,CJongDataInListCtrl *>::GetAssocAt
  0007b	8b d8		 mov	 ebx, eax
  0007d	85 db		 test	 ebx, ebx
  0007f	0f 85 d9 00 00
	00		 jne	 $LN23@CheckJongm

; 1591 : 	{
; 1592 : 		if (m_pHashTable == NULL)

  00085	8b 46 04	 mov	 eax, DWORD PTR [esi+4]
  00088	85 c0		 test	 eax, eax
  0008a	75 4a		 jne	 SHORT $LN80@CheckJongm

; 1593 : 			InitHashTable(m_nHashTableSize);

  0008c	8b 5e 08	 mov	 ebx, DWORD PTR [esi+8]

; 1434 : 		m_pHashTable = new CAssoc* [nHashSize];

  0008f	33 c9		 xor	 ecx, ecx
  00091	8b c3		 mov	 eax, ebx
  00093	ba 04 00 00 00	 mov	 edx, 4
  00098	f7 e2		 mul	 edx
  0009a	0f 90 c1	 seto	 cl
  0009d	f7 d9		 neg	 ecx
  0009f	0b c8		 or	 ecx, eax
  000a1	51		 push	 ecx
  000a2	e8 00 00 00 00	 call	 ??_U@YAPAXI@Z		; operator new[]
  000a7	83 c4 04	 add	 esp, 4
  000aa	89 46 04	 mov	 DWORD PTR [esi+4], eax

; 1435 : 		ENSURE(m_pHashTable != NULL);

  000ad	85 c0		 test	 eax, eax
  000af	0f 84 2b 01 00
	00		 je	 $LN66@CheckJongm

; 1436 : 		memset(m_pHashTable, 0, sizeof(CAssoc*) * nHashSize);

  000b5	8d 0c 9d 00 00
	00 00		 lea	 ecx, DWORD PTR [ebx*4]
  000bc	51		 push	 ecx
  000bd	6a 00		 push	 0
  000bf	50		 push	 eax
  000c0	e8 00 00 00 00	 call	 _memset

; 1437 : 	}
; 1438 : 	m_nHashTableSize = nHashSize;

  000c5	8b 46 04	 mov	 eax, DWORD PTR [esi+4]
  000c8	83 c4 0c	 add	 esp, 12			; 0000000cH
  000cb	89 5e 08	 mov	 DWORD PTR [esi+8], ebx

; 1595 : 		ENSURE(m_pHashTable);

  000ce	85 c0		 test	 eax, eax
  000d0	0f 84 0a 01 00
	00		 je	 $LN66@CheckJongm
$LN80@CheckJongm:

; 1481 : 	if (m_pFreeList == NULL)

  000d6	83 7e 10 00	 cmp	 DWORD PTR [esi+16], 0
  000da	75 35		 jne	 SHORT $LN42@CheckJongm

; 1482 : 	{
; 1483 : 		// add another block
; 1484 : 		CPlex* newBlock = CPlex::Create(m_pBlocks, m_nBlockSize, sizeof(CMap::CAssoc));

  000dc	6a 10		 push	 16			; 00000010H
  000de	ff 76 18	 push	 DWORD PTR [esi+24]
  000e1	8d 46 14	 lea	 eax, DWORD PTR [esi+20]
  000e4	50		 push	 eax
  000e5	e8 00 00 00 00	 call	 ?Create@CPlex@@SGPAU1@AAPAU1@II@Z ; CPlex::Create

; 1485 : 		// chain them into free list
; 1486 : 		CMap::CAssoc* pAssoc = (CMap::CAssoc*) newBlock->data();
; 1487 : 		// free in reverse order to make it easier to debug
; 1488 : 		pAssoc += m_nBlockSize - 1;

  000ea	8b 56 18	 mov	 edx, DWORD PTR [esi+24]
  000ed	83 c0 08	 add	 eax, 8
  000f0	8b ca		 mov	 ecx, edx
  000f2	c1 e1 04	 shl	 ecx, 4
  000f5	83 c1 f0	 add	 ecx, -16		; fffffff0H
  000f8	03 c8		 add	 ecx, eax

; 1489 : 		for (INT_PTR i = m_nBlockSize-1; i >= 0; i--, pAssoc--)

  000fa	83 c2 ff	 add	 edx, -1
  000fd	78 12		 js	 SHORT $LN42@CheckJongm
  000ff	90		 npad	 1
$LL39@CheckJongm:

; 1490 : 		{
; 1491 : 			pAssoc->pNext = m_pFreeList;

  00100	8b 46 10	 mov	 eax, DWORD PTR [esi+16]
  00103	89 41 08	 mov	 DWORD PTR [ecx+8], eax

; 1492 : 			m_pFreeList = pAssoc;

  00106	89 4e 10	 mov	 DWORD PTR [esi+16], ecx
  00109	83 e9 10	 sub	 ecx, 16			; 00000010H
  0010c	83 ea 01	 sub	 edx, 1
  0010f	79 ef		 jns	 SHORT $LL39@CheckJongm
$LN42@CheckJongm:

; 1495 : 	ENSURE(m_pFreeList != NULL);  // we must have something

  00111	8b 5e 10	 mov	 ebx, DWORD PTR [esi+16]
  00114	85 db		 test	 ebx, ebx
  00116	0f 84 c4 00 00
	00		 je	 $LN66@CheckJongm

; 1496 : 
; 1497 : 	CMap::CAssoc* pAssoc = m_pFreeList;
; 1498 : 
; 1499 : 	// zero the memory
; 1500 : 	CMap::CAssoc* pTemp = pAssoc->pNext;

  0011c	8b 43 08	 mov	 eax, DWORD PTR [ebx+8]
  0011f	0f 57 c0	 xorps	 xmm0, xmm0

; 1256 : 		CPair( ARG_KEY keyval ) : key( keyval )	{}

  00122	ff 75 f4	 push	 DWORD PTR $T3[ebp]

; 1501 : 	memset( pAssoc, 0, sizeof(CMap::CAssoc) );

  00125	0f 11 03	 movups	 XMMWORD PTR [ebx], xmm0

; 1502 : 	pAssoc->pNext = pTemp;

  00128	89 43 08	 mov	 DWORD PTR [ebx+8], eax

; 1256 : 		CPair( ARG_KEY keyval ) : key( keyval )	{}

  0012b	8b cb		 mov	 ecx, ebx

; 1504 : 	m_pFreeList = m_pFreeList->pNext;

  0012d	8b 46 10	 mov	 eax, DWORD PTR [esi+16]
  00130	8b 40 08	 mov	 eax, DWORD PTR [eax+8]

; 1505 : 	m_nCount++;

  00133	ff 46 0c	 inc	 DWORD PTR [esi+12]
  00136	89 46 10	 mov	 DWORD PTR [esi+16], eax

; 1256 : 		CPair( ARG_KEY keyval ) : key( keyval )	{}

  00139	ff 15 00 00 00
	00		 call	 DWORD PTR __imp_??0?$CStringT@DV?$StrTraitMFC_DLL@DV?$ChTraitsCRT@D@ATL@@@@@ATL@@QAE@PBD@Z

; 1598 : 		pAssoc->nHashValue = nHashValue;

  0013f	8b 45 f0	 mov	 eax, DWORD PTR _nHashValue$2[ebp]
  00142	89 43 0c	 mov	 DWORD PTR [ebx+12], eax

; 1599 : 		//'pAssoc->value' is a constructed object, nothing more
; 1600 : 
; 1601 : 		// put into hash table
; 1602 : 		pAssoc->pNext = m_pHashTable[nHashBucket];

  00145	8b 45 ec	 mov	 eax, DWORD PTR _nHashBucket$1[ebp]
  00148	8d 0c 85 00 00
	00 00		 lea	 ecx, DWORD PTR [eax*4]
  0014f	8b 46 04	 mov	 eax, DWORD PTR [esi+4]
  00152	8b 04 01	 mov	 eax, DWORD PTR [ecx+eax]
  00155	89 43 08	 mov	 DWORD PTR [ebx+8], eax

; 1603 : 		m_pHashTable[nHashBucket] = pAssoc;

  00158	8b 46 04	 mov	 eax, DWORD PTR [esi+4]
  0015b	89 1c 01	 mov	 DWORD PTR [ecx+eax], ebx
$LN23@CheckJongm:
; File D:\git\src\IBK\IBK_DRFN\ProjSrc\SrcDrfn\Chart\comparechart\XListCtrlJongData.cpp

; 987  : 				plistStrJongmokCodeHighlighted->RemoveAt(posOfHighlighted);

  0015e	ff 75 e8	 push	 DWORD PTR _posOfHighlighted$1$[ebp]
  00161	8b 4d 0c	 mov	 ecx, DWORD PTR _plistStrJongmokCodeHighlighted$[ebp]
; File C:\Program Files (x86)\Microsoft Visual Studio\2019\Community\VC\Tools\MSVC\14.29.30133\atlmfc\include\afxtempl.h

; 1350 : 	{ (*this)[key] = newValue; }

  00164	89 7b 04	 mov	 DWORD PTR [ebx+4], edi
; File D:\git\src\IBK\IBK_DRFN\ProjSrc\SrcDrfn\Chart\comparechart\XListCtrlJongData.cpp

; 987  : 				plistStrJongmokCodeHighlighted->RemoveAt(posOfHighlighted);

  00167	e8 00 00 00 00	 call	 ?RemoveAt@CStringList@@QAEXPAU__POSITION@@@Z ; CStringList::RemoveAt
; File C:\Program Files (x86)\Microsoft Visual Studio\2019\Community\VC\Tools\MSVC\14.29.30133\atlmfc\include\afxcoll.inl

; 483  : 	{ return m_nCount == 0; }

  0016c	8b 45 08	 mov	 eax, DWORD PTR _plistStrJongmokCodeChecked$[ebp]
  0016f	83 78 0c 00	 cmp	 DWORD PTR [eax+12], 0
; File D:\git\src\IBK\IBK_DRFN\ProjSrc\SrcDrfn\Chart\comparechart\XListCtrlJongData.cpp

; 988  : 				if(!plistStrJongmokCodeChecked->IsEmpty())

  00173	74 46		 je	 SHORT $LN75@CheckJongm

; 989  : 				{
; 990  : 					posOfChecked = plistStrJongmokCodeChecked->Find(pData->m_strJongCode);

  00175	6a 00		 push	 0
  00177	ff 37		 push	 DWORD PTR [edi]
  00179	8b c8		 mov	 ecx, eax
  0017b	e8 00 00 00 00	 call	 ?Find@CStringList@@QBEPAU__POSITION@@PBDPAU2@@Z ; CStringList::Find

; 991  : 					if(posOfChecked)

  00180	8b 5d f8	 mov	 ebx, DWORD PTR _i$1$[ebp]
  00183	8b f0		 mov	 esi, eax
  00185	85 f6		 test	 esi, esi
  00187	74 35		 je	 SHORT $LN76@CheckJongm

; 992  : 					{
; 993  : 						SetCheckbox(i,0,TRUE);

  00189	8b 4d fc	 mov	 ecx, DWORD PTR _this$1$[ebp]
  0018c	6a 01		 push	 1
  0018e	6a 01		 push	 1
  00190	6a 00		 push	 0
  00192	53		 push	 ebx
  00193	e8 00 00 00 00	 call	 ?SetCheckbox@CXListCtrl@@QAEHHHHH@Z ; CXListCtrl::SetCheckbox

; 994  : 						pData->m_bCheck = TRUE;	
; 995  : 						m_mapJongDataChecked.SetAt(pData->m_strJongCode,pData);

  00198	8b 4d fc	 mov	 ecx, DWORD PTR _this$1$[ebp]
  0019b	57		 push	 edi
  0019c	ff 37		 push	 DWORD PTR [edi]
  0019e	c7 47 20 01 00
	00 00		 mov	 DWORD PTR [edi+32], 1
  001a5	8d 89 98 02 00
	00		 lea	 ecx, DWORD PTR [ecx+664]
  001ab	e8 00 00 00 00	 call	 ?SetAt@?$CMap@V?$CStringT@DV?$StrTraitMFC_DLL@DV?$ChTraitsCRT@D@ATL@@@@@ATL@@PBDPAVCJongDataInListCtrl@@PAV3@@@QAEXPBDPAVCJongDataInListCtrl@@@Z ; CMap<ATL::CStringT<char,StrTraitMFC_DLL<char,ATL::ChTraitsCRT<char> > >,char const *,CJongDataInListCtrl *,CJongDataInListCtrl *>::SetAt

; 996  : 						plistStrJongmokCodeChecked->RemoveAt(posOfChecked);

  001b0	8b 4d 08	 mov	 ecx, DWORD PTR _plistStrJongmokCodeChecked$[ebp]
  001b3	56		 push	 esi
  001b4	e8 00 00 00 00	 call	 ?RemoveAt@CStringList@@QAEXPAU__POSITION@@@Z ; CStringList::RemoveAt
  001b9	eb 03		 jmp	 SHORT $LN76@CheckJongm
$LN75@CheckJongm:

; 988  : 				if(!plistStrJongmokCodeChecked->IsEmpty())

  001bb	8b 5d f8	 mov	 ebx, DWORD PTR _i$1$[ebp]
$LN76@CheckJongm:
; File C:\Program Files (x86)\Microsoft Visual Studio\2019\Community\VC\Tools\MSVC\14.29.30133\atlmfc\include\afxcoll.inl

; 483  : 	{ return m_nCount == 0; }

  001be	8b 75 fc	 mov	 esi, DWORD PTR _this$1$[ebp]
$LN8@CheckJongm:
  001c1	8b 45 0c	 mov	 eax, DWORD PTR _plistStrJongmokCodeHighlighted$[ebp]
  001c4	83 78 0c 00	 cmp	 DWORD PTR [eax+12], 0
; File D:\git\src\IBK\IBK_DRFN\ProjSrc\SrcDrfn\Chart\comparechart\XListCtrlJongData.cpp

; 1000 : 			if(plistStrJongmokCodeHighlighted->IsEmpty())

  001c8	74 0d		 je	 SHORT $LN77@CheckJongm
$LN2@CheckJongm:

; 977  : 	for(int i=0;i<nCnt;i++)

  001ca	43		 inc	 ebx
  001cb	89 5d f8	 mov	 DWORD PTR _i$1$[ebp], ebx
  001ce	3b 5d e4	 cmp	 ebx, DWORD PTR _nCnt$1$[ebp]
  001d1	0f 8c 59 fe ff
	ff		 jl	 $LL4@CheckJongm
$LN77@CheckJongm:
  001d7	5f		 pop	 edi
$LN74@CheckJongm:
  001d8	5e		 pop	 esi

; 1006 : }

  001d9	5b		 pop	 ebx
  001da	8b e5		 mov	 esp, ebp
  001dc	5d		 pop	 ebp
  001dd	c2 08 00	 ret	 8
$LN66@CheckJongm:
; File C:\Program Files (x86)\Microsoft Visual Studio\2019\Community\VC\Tools\MSVC\14.29.30133\atlmfc\include\afxtempl.h

; 1495 : 	ENSURE(m_pFreeList != NULL);  // we must have something

  001e0	e8 00 00 00 00	 call	 ?AfxThrowInvalidArgException@@YGXXZ ; AfxThrowInvalidArgException
$LN78@CheckJongm:
  001e5	cc		 int	 3
?CheckJongmokCode@CXListCtrlJongData@@QAEXPAVCStringList@@0@Z ENDP ; CXListCtrlJongData::CheckJongmokCode
_TEXT	ENDS
; Function compile flags: /Ogtp
; File D:\git\src\IBK\IBK_DRFN\ProjSrc\SrcDrfn\Chart\comparechart\XListCtrlJongData.cpp
; File C:\Program Files (x86)\Microsoft Visual Studio\2019\Community\VC\Tools\MSVC\14.29.30133\atlmfc\include\afxcmn.inl
; File D:\git\src\IBK\IBK_DRFN\ProjSrc\SrcDrfn\Chart\comparechart\XListCtrlJongData.cpp
; File C:\Program Files (x86)\Microsoft Visual Studio\2019\Community\VC\Tools\MSVC\14.29.30133\atlmfc\include\afxcmn.inl
; File D:\git\src\IBK\IBK_DRFN\ProjSrc\SrcDrfn\Chart\comparechart\XListCtrlJongData.cpp
; File C:\Program Files (x86)\Microsoft Visual Studio\2019\Community\VC\Tools\MSVC\14.29.30133\atlmfc\include\afxcmn.inl
; File D:\git\src\IBK\IBK_DRFN\ProjSrc\SrcDrfn\Chart\comparechart\XListCtrlJongData.cpp
; File C:\Program Files (x86)\Microsoft Visual Studio\2019\Community\VC\Tools\MSVC\14.29.30133\atlmfc\include\cstringt.h
; File D:\git\src\IBK\IBK_DRFN\ProjSrc\SrcDrfn\Chart\comparechart\XListCtrlJongData.cpp
;	COMDAT ?CheckJongmokCode@CXListCtrlJongData@@QAEXHPBD@Z
_TEXT	SEGMENT
_this$1$ = -4						; size = 4
_bCheck$ = 8						; size = 4
_lpJongmokCode$ = 12					; size = 4
?CheckJongmokCode@CXListCtrlJongData@@QAEXHPBD@Z PROC	; CXListCtrlJongData::CheckJongmokCode, COMDAT
; _this$ = ecx

; 1035 : {

  00000	55		 push	 ebp
  00001	8b ec		 mov	 ebp, esp
  00003	51		 push	 ecx
  00004	53		 push	 ebx
  00005	56		 push	 esi
  00006	57		 push	 edi
; File C:\Program Files (x86)\Microsoft Visual Studio\2019\Community\VC\Tools\MSVC\14.29.30133\atlmfc\include\afxcmn.inl

; 155  : 	{ ASSERT(::IsWindow(m_hWnd)); return (int) ::SendMessage(m_hWnd, LVM_GETITEMCOUNT, 0, 0L); }

  00007	6a 00		 push	 0
; File D:\git\src\IBK\IBK_DRFN\ProjSrc\SrcDrfn\Chart\comparechart\XListCtrlJongData.cpp

; 1035 : {

  00009	8b d9		 mov	 ebx, ecx
; File C:\Program Files (x86)\Microsoft Visual Studio\2019\Community\VC\Tools\MSVC\14.29.30133\atlmfc\include\afxcmn.inl

; 155  : 	{ ASSERT(::IsWindow(m_hWnd)); return (int) ::SendMessage(m_hWnd, LVM_GETITEMCOUNT, 0, 0L); }

  0000b	6a 00		 push	 0
  0000d	68 04 10 00 00	 push	 4100			; 00001004H
; File D:\git\src\IBK\IBK_DRFN\ProjSrc\SrcDrfn\Chart\comparechart\XListCtrlJongData.cpp

; 1035 : {

  00012	89 5d fc	 mov	 DWORD PTR _this$1$[ebp], ebx
; File C:\Program Files (x86)\Microsoft Visual Studio\2019\Community\VC\Tools\MSVC\14.29.30133\atlmfc\include\afxcmn.inl

; 155  : 	{ ASSERT(::IsWindow(m_hWnd)); return (int) ::SendMessage(m_hWnd, LVM_GETITEMCOUNT, 0, 0L); }

  00015	ff 73 20	 push	 DWORD PTR [ebx+32]
  00018	ff 15 00 00 00
	00		 call	 DWORD PTR __imp__SendMessageA@16
; File D:\git\src\IBK\IBK_DRFN\ProjSrc\SrcDrfn\Chart\comparechart\XListCtrlJongData.cpp

; 1037 : 	int nCnt = GetItemCount();

  0001e	8b f0		 mov	 esi, eax

; 1038 : 	for(int i=0;i<nCnt;i++)

  00020	33 ff		 xor	 edi, edi
  00022	85 f6		 test	 esi, esi
  00024	7e 5f		 jle	 SHORT $LN23@CheckJongm
$LL4@CheckJongm:

; 1039 : 	{
; 1040 : 		pData = (CJongDataInListCtrl *)GetItemData(i);

  00026	57		 push	 edi
  00027	8b cb		 mov	 ecx, ebx
  00029	e8 00 00 00 00	 call	 ?GetItemData@CXListCtrl@@QAEKH@Z ; CXListCtrl::GetItemData
  0002e	8b d8		 mov	 ebx, eax

; 1041 : 		if(pData)

  00030	85 db		 test	 ebx, ebx
  00032	74 0f		 je	 SHORT $LN2@CheckJongm
; File C:\Program Files (x86)\Microsoft Visual Studio\2019\Community\VC\Tools\MSVC\14.29.30133\atlmfc\include\cstringt.h

; 2486 : 		return(str1.Compare(psz2) == 0);

  00034	ff 75 0c	 push	 DWORD PTR _lpJongmokCode$[ebp]
  00037	8b cb		 mov	 ecx, ebx
  00039	ff 15 00 00 00
	00		 call	 DWORD PTR __imp_?Compare@?$CStringT@DV?$StrTraitMFC_DLL@DV?$ChTraitsCRT@D@ATL@@@@@ATL@@QBEHPBD@Z
  0003f	85 c0		 test	 eax, eax
; File D:\git\src\IBK\IBK_DRFN\ProjSrc\SrcDrfn\Chart\comparechart\XListCtrlJongData.cpp

; 1043 : 			if(pData->m_strJongCode==lpJongmokCode)

  00041	74 0a		 je	 SHORT $LN19@CheckJongm
$LN2@CheckJongm:

; 1038 : 	for(int i=0;i<nCnt;i++)

  00043	47		 inc	 edi
  00044	3b fe		 cmp	 edi, esi
  00046	7d 3d		 jge	 SHORT $LN23@CheckJongm
  00048	8b 5d fc	 mov	 ebx, DWORD PTR _this$1$[ebp]
  0004b	eb d9		 jmp	 SHORT $LL4@CheckJongm
$LN19@CheckJongm:

; 1044 : 			{
; 1045 : 				SetCheckbox(i,0,bCheck);

  0004d	8b 75 08	 mov	 esi, DWORD PTR _bCheck$[ebp]
  00050	6a 01		 push	 1
  00052	56		 push	 esi
  00053	6a 00		 push	 0
  00055	57		 push	 edi
  00056	8b 7d fc	 mov	 edi, DWORD PTR _this$1$[ebp]
  00059	8b cf		 mov	 ecx, edi
  0005b	e8 00 00 00 00	 call	 ?SetCheckbox@CXListCtrl@@QAEHHHHH@Z ; CXListCtrl::SetCheckbox

; 1046 : 				pData->m_bCheck = bCheck;
; 1047 : 				if(pData->m_bCheck)

  00060	8b 03		 mov	 eax, DWORD PTR [ebx]
  00062	8d 8f 98 02 00
	00		 lea	 ecx, DWORD PTR [edi+664]
  00068	89 73 20	 mov	 DWORD PTR [ebx+32], esi
  0006b	85 f6		 test	 esi, esi
  0006d	74 10		 je	 SHORT $LN7@CheckJongm

; 1048 : 				{
; 1049 : 					m_mapJongDataChecked.SetAt(pData->m_strJongCode,pData);			

  0006f	53		 push	 ebx
  00070	50		 push	 eax
  00071	e8 00 00 00 00	 call	 ?SetAt@?$CMap@V?$CStringT@DV?$StrTraitMFC_DLL@DV?$ChTraitsCRT@D@ATL@@@@@ATL@@PBDPAVCJongDataInListCtrl@@PAV3@@@QAEXPBDPAVCJongDataInListCtrl@@@Z ; CMap<ATL::CStringT<char,StrTraitMFC_DLL<char,ATL::ChTraitsCRT<char> > >,char const *,CJongDataInListCtrl *,CJongDataInListCtrl *>::SetAt
  00076	5f		 pop	 edi

; 1054 : 				}
; 1055 : 				break;
; 1056 : 			}
; 1057 : 		}
; 1058 : 	}
; 1059 : }

  00077	5e		 pop	 esi
  00078	5b		 pop	 ebx
  00079	8b e5		 mov	 esp, ebp
  0007b	5d		 pop	 ebp
  0007c	c2 08 00	 ret	 8
$LN7@CheckJongm:

; 1050 : 				}
; 1051 : 				else
; 1052 : 				{
; 1053 : 					m_mapJongDataChecked.RemoveKey(pData->m_strJongCode);

  0007f	50		 push	 eax
  00080	e8 00 00 00 00	 call	 ?RemoveKey@?$CMap@V?$CStringT@DV?$StrTraitMFC_DLL@DV?$ChTraitsCRT@D@ATL@@@@@ATL@@PBDPAVCJongDataInListCtrl@@PAV3@@@QAEHPBD@Z ; CMap<ATL::CStringT<char,StrTraitMFC_DLL<char,ATL::ChTraitsCRT<char> > >,char const *,CJongDataInListCtrl *,CJongDataInListCtrl *>::RemoveKey
$LN23@CheckJongm:

; 1054 : 				}
; 1055 : 				break;
; 1056 : 			}
; 1057 : 		}
; 1058 : 	}
; 1059 : }

  00085	5f		 pop	 edi
  00086	5e		 pop	 esi
  00087	5b		 pop	 ebx
  00088	8b e5		 mov	 esp, ebp
  0008a	5d		 pop	 ebp
  0008b	c2 08 00	 ret	 8
?CheckJongmokCode@CXListCtrlJongData@@QAEXHPBD@Z ENDP	; CXListCtrlJongData::CheckJongmokCode
_TEXT	ENDS
; Function compile flags: /Ogtp
; File D:\git\src\IBK\IBK_DRFN\ProjSrc\SrcDrfn\Chart\comparechart\XListCtrlJongData.cpp
; File C:\Program Files (x86)\Microsoft Visual Studio\2019\Community\VC\Tools\MSVC\14.29.30133\atlmfc\include\afxcmn.inl
; File D:\git\src\IBK\IBK_DRFN\ProjSrc\SrcDrfn\Chart\comparechart\XListCtrlJongData.cpp
; File C:\Program Files (x86)\Microsoft Visual Studio\2019\Community\VC\Tools\MSVC\14.29.30133\atlmfc\include\afxcmn.inl
; File D:\git\src\IBK\IBK_DRFN\ProjSrc\SrcDrfn\Chart\comparechart\XListCtrlJongData.cpp
; File C:\Program Files (x86)\Microsoft Visual Studio\2019\Community\VC\Tools\MSVC\14.29.30133\atlmfc\include\afxcmn.inl
; File D:\git\src\IBK\IBK_DRFN\ProjSrc\SrcDrfn\Chart\comparechart\XListCtrlJongData.cpp
; File C:\Program Files (x86)\Microsoft Visual Studio\2019\Community\VC\Tools\MSVC\14.29.30133\atlmfc\include\afxcmn.inl
; File D:\git\src\IBK\IBK_DRFN\ProjSrc\SrcDrfn\Chart\comparechart\XListCtrlJongData.cpp
;	COMDAT ?GetSelectedCodes@CXListCtrlJongData@@QAE?AV?$CStringT@DV?$StrTraitMFC_DLL@DV?$ChTraitsCRT@D@ATL@@@@@ATL@@XZ
_TEXT	SEGMENT
$T2 = -20						; size = 4
_this$1$ = -16						; size = 4
__$EHRec$ = -12						; size = 12
___$ReturnUdt$ = 8					; size = 4
?GetSelectedCodes@CXListCtrlJongData@@QAE?AV?$CStringT@DV?$StrTraitMFC_DLL@DV?$ChTraitsCRT@D@ATL@@@@@ATL@@XZ PROC ; CXListCtrlJongData::GetSelectedCodes, COMDAT
; _this$ = ecx

; 432  : {

  00000	55		 push	 ebp
  00001	8b ec		 mov	 ebp, esp
  00003	6a ff		 push	 -1
  00005	68 00 00 00 00	 push	 __ehhandler$?GetSelectedCodes@CXListCtrlJongData@@QAE?AV?$CStringT@DV?$StrTraitMFC_DLL@DV?$ChTraitsCRT@D@ATL@@@@@ATL@@XZ
  0000a	64 a1 00 00 00
	00		 mov	 eax, DWORD PTR fs:0
  00010	50		 push	 eax
  00011	83 ec 08	 sub	 esp, 8
  00014	53		 push	 ebx
  00015	56		 push	 esi
  00016	57		 push	 edi
  00017	a1 00 00 00 00	 mov	 eax, DWORD PTR ___security_cookie
  0001c	33 c5		 xor	 eax, ebp
  0001e	50		 push	 eax
  0001f	8d 45 f4	 lea	 eax, DWORD PTR __$EHRec$[ebp]
  00022	64 a3 00 00 00
	00		 mov	 DWORD PTR fs:0, eax
  00028	8b d9		 mov	 ebx, ecx
  0002a	89 5d f0	 mov	 DWORD PTR _this$1$[ebp], ebx
  0002d	c7 45 ec 00 00
	00 00		 mov	 DWORD PTR $T2[ebp], 0

; 433  : 	CString strMultiCodes;

  00034	8b 7d 08	 mov	 edi, DWORD PTR ___$ReturnUdt$[ebp]
  00037	8b cf		 mov	 ecx, edi
  00039	ff 15 00 00 00
	00		 call	 DWORD PTR __imp_??0?$CStringT@DV?$StrTraitMFC_DLL@DV?$ChTraitsCRT@D@ATL@@@@@ATL@@QAE@XZ
; File C:\Program Files (x86)\Microsoft Visual Studio\2019\Community\VC\Tools\MSVC\14.29.30133\atlmfc\include\afxcmn.inl

; 177  : 	{ ASSERT(::IsWindow(m_hWnd)); return (int) ::SendMessage(m_hWnd, LVM_GETNEXTITEM, nItem, MAKELPARAM(nFlags, 0)); }

  0003f	6a 02		 push	 2
  00041	6a ff		 push	 -1
  00043	68 0c 10 00 00	 push	 4108			; 0000100cH
  00048	ff 73 20	 push	 DWORD PTR [ebx+32]
; File D:\git\src\IBK\IBK_DRFN\ProjSrc\SrcDrfn\Chart\comparechart\XListCtrlJongData.cpp

; 454  : 	return strMultiCodes;

  0004b	c7 45 fc 00 00
	00 00		 mov	 DWORD PTR __$EHRec$[ebp+8], 0
  00052	c7 45 ec 01 00
	00 00		 mov	 DWORD PTR $T2[ebp], 1
; File C:\Program Files (x86)\Microsoft Visual Studio\2019\Community\VC\Tools\MSVC\14.29.30133\atlmfc\include\afxcmn.inl

; 177  : 	{ ASSERT(::IsWindow(m_hWnd)); return (int) ::SendMessage(m_hWnd, LVM_GETNEXTITEM, nItem, MAKELPARAM(nFlags, 0)); }

  00059	ff 15 00 00 00
	00		 call	 DWORD PTR __imp__SendMessageA@16
  0005f	8b d8		 mov	 ebx, eax

; 179  : 	{ ASSERT(::IsWindow(m_hWnd)); return (POSITION)(DWORD_PTR)(1+GetNextItem(-1, LVIS_SELECTED)); }

  00061	83 c3 01	 add	 ebx, 1
; File D:\git\src\IBK\IBK_DRFN\ProjSrc\SrcDrfn\Chart\comparechart\XListCtrlJongData.cpp

; 437  : 	while(pos)

  00064	74 5c		 je	 SHORT $LN19@GetSelecte
$LL2@GetSelecte:
; File C:\Program Files (x86)\Microsoft Visual Studio\2019\Community\VC\Tools\MSVC\14.29.30133\atlmfc\include\afxcmn.inl

; 177  : 	{ ASSERT(::IsWindow(m_hWnd)); return (int) ::SendMessage(m_hWnd, LVM_GETNEXTITEM, nItem, MAKELPARAM(nFlags, 0)); }

  00066	8b 45 f0	 mov	 eax, DWORD PTR _this$1$[ebp]

; 181  : 	{ ASSERT(::IsWindow(m_hWnd)); DWORD_PTR nOldPos = (DWORD_PTR)pos-1; pos = (POSITION)(DWORD_PTR)(1+GetNextItem((UINT)nOldPos, LVIS_SELECTED)); return (UINT)nOldPos; }

  00069	8d 73 ff	 lea	 esi, DWORD PTR [ebx-1]

; 177  : 	{ ASSERT(::IsWindow(m_hWnd)); return (int) ::SendMessage(m_hWnd, LVM_GETNEXTITEM, nItem, MAKELPARAM(nFlags, 0)); }

  0006c	6a 02		 push	 2
  0006e	56		 push	 esi
  0006f	68 0c 10 00 00	 push	 4108			; 0000100cH
  00074	ff 70 20	 push	 DWORD PTR [eax+32]
  00077	ff 15 00 00 00
	00		 call	 DWORD PTR __imp__SendMessageA@16
; File D:\git\src\IBK\IBK_DRFN\ProjSrc\SrcDrfn\Chart\comparechart\XListCtrlJongData.cpp

; 440  : 		pData = (CJongDataInListCtrl *)GetItemData(nItem);

  0007d	8b 4d f0	 mov	 ecx, DWORD PTR _this$1$[ebp]
  00080	56		 push	 esi
; File C:\Program Files (x86)\Microsoft Visual Studio\2019\Community\VC\Tools\MSVC\14.29.30133\atlmfc\include\afxcmn.inl

; 181  : 	{ ASSERT(::IsWindow(m_hWnd)); DWORD_PTR nOldPos = (DWORD_PTR)pos-1; pos = (POSITION)(DWORD_PTR)(1+GetNextItem((UINT)nOldPos, LVIS_SELECTED)); return (UINT)nOldPos; }

  00081	8d 58 01	 lea	 ebx, DWORD PTR [eax+1]
; File D:\git\src\IBK\IBK_DRFN\ProjSrc\SrcDrfn\Chart\comparechart\XListCtrlJongData.cpp

; 440  : 		pData = (CJongDataInListCtrl *)GetItemData(nItem);

  00084	e8 00 00 00 00	 call	 ?GetItemData@CXListCtrl@@QAEKH@Z ; CXListCtrl::GetItemData
  00089	8b f0		 mov	 esi, eax

; 441  : 		if(pData)

  0008b	85 f6		 test	 esi, esi
  0008d	74 2f		 je	 SHORT $LN4@GetSelecte

; 442  : 		{
; 443  : 			strMultiCodes += pData->m_strJongCode;

  0008f	56		 push	 esi
  00090	8b cf		 mov	 ecx, edi
  00092	ff 15 00 00 00
	00		 call	 DWORD PTR __imp_??Y?$CStringT@DV?$StrTraitMFC_DLL@DV?$ChTraitsCRT@D@ATL@@@@@ATL@@QAEAAV01@ABV?$CSimpleStringT@D$00@1@@Z

; 444  : 			strMultiCodes += ",";

  00098	68 00 00 00 00	 push	 OFFSET ??_C@_01IHBHIGKO@?0@
  0009d	8b cf		 mov	 ecx, edi
  0009f	ff 15 00 00 00
	00		 call	 DWORD PTR __imp_??Y?$CStringT@DV?$StrTraitMFC_DLL@DV?$ChTraitsCRT@D@ATL@@@@@ATL@@QAEAAV01@PBD@Z

; 445  : 			strMultiCodes += pData->m_strInsertedTime;

  000a5	8d 46 30	 lea	 eax, DWORD PTR [esi+48]
  000a8	8b cf		 mov	 ecx, edi
  000aa	50		 push	 eax
  000ab	ff 15 00 00 00
	00		 call	 DWORD PTR __imp_??Y?$CStringT@DV?$StrTraitMFC_DLL@DV?$ChTraitsCRT@D@ATL@@@@@ATL@@QAEAAV01@ABV?$CSimpleStringT@D$00@1@@Z

; 446  : 			strMultiCodes += ";";

  000b1	68 00 00 00 00	 push	 OFFSET ??_C@_01ICJEACDI@?$DL@
  000b6	8b cf		 mov	 ecx, edi
  000b8	ff 15 00 00 00
	00		 call	 DWORD PTR __imp_??Y?$CStringT@DV?$StrTraitMFC_DLL@DV?$ChTraitsCRT@D@ATL@@@@@ATL@@QAEAAV01@PBD@Z
$LN4@GetSelecte:

; 437  : 	while(pos)

  000be	85 db		 test	 ebx, ebx
  000c0	75 a4		 jne	 SHORT $LL2@GetSelecte
$LN19@GetSelecte:

; 455  : }

  000c2	8b c7		 mov	 eax, edi
  000c4	8b 4d f4	 mov	 ecx, DWORD PTR __$EHRec$[ebp]
  000c7	64 89 0d 00 00
	00 00		 mov	 DWORD PTR fs:0, ecx
  000ce	59		 pop	 ecx
  000cf	5f		 pop	 edi
  000d0	5e		 pop	 esi
  000d1	5b		 pop	 ebx
  000d2	8b e5		 mov	 esp, ebp
  000d4	5d		 pop	 ebp
  000d5	c2 04 00	 ret	 4
_TEXT	ENDS
;	COMDAT text$x
text$x	SEGMENT
__unwindfunclet$?GetSelectedCodes@CXListCtrlJongData@@QAE?AV?$CStringT@DV?$StrTraitMFC_DLL@DV?$ChTraitsCRT@D@ATL@@@@@ATL@@XZ$0:
  00000	8b 45 ec	 mov	 eax, DWORD PTR $T2[ebp]
  00003	83 e0 01	 and	 eax, 1
  00006	0f 84 0d 00 00
	00		 je	 $LN7@GetSelecte
  0000c	83 65 ec fe	 and	 DWORD PTR $T2[ebp], -2	; fffffffeH
  00010	8b 4d 08	 mov	 ecx, DWORD PTR ___$ReturnUdt$[ebp]
  00013	ff 25 00 00 00
	00		 jmp	 DWORD PTR __imp_??1?$CStringT@DV?$StrTraitMFC_DLL@DV?$ChTraitsCRT@D@ATL@@@@@ATL@@QAE@XZ
$LN7@GetSelecte:
  00019	c3		 ret	 0
  0001a	cc		 int	 3
  0001b	cc		 int	 3
  0001c	cc		 int	 3
  0001d	cc		 int	 3
  0001e	cc		 int	 3
__ehhandler$?GetSelectedCodes@CXListCtrlJongData@@QAE?AV?$CStringT@DV?$StrTraitMFC_DLL@DV?$ChTraitsCRT@D@ATL@@@@@ATL@@XZ:
  0001f	90		 npad	 1
  00020	90		 npad	 1
  00021	8b 54 24 08	 mov	 edx, DWORD PTR [esp+8]
  00025	8d 42 0c	 lea	 eax, DWORD PTR [edx+12]
  00028	8b 4a e8	 mov	 ecx, DWORD PTR [edx-24]
  0002b	33 c8		 xor	 ecx, eax
  0002d	e8 00 00 00 00	 call	 @__security_check_cookie@4
  00032	b8 00 00 00 00	 mov	 eax, OFFSET __ehfuncinfo$?GetSelectedCodes@CXListCtrlJongData@@QAE?AV?$CStringT@DV?$StrTraitMFC_DLL@DV?$ChTraitsCRT@D@ATL@@@@@ATL@@XZ
  00037	e9 00 00 00 00	 jmp	 ___CxxFrameHandler3
text$x	ENDS
?GetSelectedCodes@CXListCtrlJongData@@QAE?AV?$CStringT@DV?$StrTraitMFC_DLL@DV?$ChTraitsCRT@D@ATL@@@@@ATL@@XZ ENDP ; CXListCtrlJongData::GetSelectedCodes
; Function compile flags: /Ogtp
; File D:\git\src\IBK\IBK_DRFN\ProjSrc\SrcDrfn\Chart\comparechart\XListCtrlJongData.cpp
;	COMDAT ?GetCodeData@CXListCtrlJongData@@QAEXHAAV?$CStringT@DV?$StrTraitMFC_DLL@DV?$ChTraitsCRT@D@ATL@@@@@ATL@@000AAD@Z
_TEXT	SEGMENT
_rchSign$GSCopy$1$ = -148				; size = 4
_rstrVolumeOut$GSCopy$1$ = -144				; size = 4
_rstrChgrateOut$GSCopy$1$ = -140			; size = 4
_rstrChangeOut$GSCopy$1$ = -136				; size = 4
_szTemp$1 = -132					; size = 126
__$ArrayPad$ = -4					; size = 4
_nIndexIn$ = 8						; size = 4
_rstrPriceOut$ = 12					; size = 4
_rstrChangeOut$ = 16					; size = 4
_rstrChgrateOut$ = 20					; size = 4
_rstrVolumeOut$ = 24					; size = 4
_rchSign$ = 28						; size = 4
?GetCodeData@CXListCtrlJongData@@QAEXHAAV?$CStringT@DV?$StrTraitMFC_DLL@DV?$ChTraitsCRT@D@ATL@@@@@ATL@@000AAD@Z PROC ; CXListCtrlJongData::GetCodeData, COMDAT
; _this$ = ecx

; 337  : {

  00000	55		 push	 ebp
  00001	8b ec		 mov	 ebp, esp
  00003	81 ec 94 00 00
	00		 sub	 esp, 148		; 00000094H
  00009	a1 00 00 00 00	 mov	 eax, DWORD PTR ___security_cookie
  0000e	33 c5		 xor	 eax, ebp
  00010	89 45 fc	 mov	 DWORD PTR __$ArrayPad$[ebp], eax
  00013	8b 45 10	 mov	 eax, DWORD PTR _rstrChangeOut$[ebp]
  00016	89 85 78 ff ff
	ff		 mov	 DWORD PTR _rstrChangeOut$GSCopy$1$[ebp], eax
  0001c	8b 45 14	 mov	 eax, DWORD PTR _rstrChgrateOut$[ebp]
  0001f	53		 push	 ebx
  00020	8b 5d 0c	 mov	 ebx, DWORD PTR _rstrPriceOut$[ebp]
  00023	89 85 74 ff ff
	ff		 mov	 DWORD PTR _rstrChgrateOut$GSCopy$1$[ebp], eax
  00029	8b 45 18	 mov	 eax, DWORD PTR _rstrVolumeOut$[ebp]
  0002c	56		 push	 esi
  0002d	8b 75 08	 mov	 esi, DWORD PTR _nIndexIn$[ebp]
  00030	89 85 70 ff ff
	ff		 mov	 DWORD PTR _rstrVolumeOut$GSCopy$1$[ebp], eax
  00036	8b 45 1c	 mov	 eax, DWORD PTR _rchSign$[ebp]
  00039	89 85 6c ff ff
	ff		 mov	 DWORD PTR _rchSign$GSCopy$1$[ebp], eax
  0003f	57		 push	 edi
  00040	8b f9		 mov	 edi, ecx

; 338  : 	if(nIndexIn!=-1)

  00042	83 fe ff	 cmp	 esi, -1
  00045	0f 84 b5 00 00
	00		 je	 $LN2@GetCodeDat

; 339  : 	{
; 340  : 		char szTemp[126];
; 341  : 		GetItemText(nIndexIn,m_lIndexOfPrice,szTemp,sizeof(szTemp));

  0004b	6a 7e		 push	 126			; 0000007eH
  0004d	8d 85 7c ff ff
	ff		 lea	 eax, DWORD PTR _szTemp$1[ebp]
  00053	50		 push	 eax
  00054	ff b7 44 03 00
	00		 push	 DWORD PTR [edi+836]
  0005a	56		 push	 esi
  0005b	e8 00 00 00 00	 call	 ?GetItemText@CListCtrl@@QBEHHHPADH@Z ; CListCtrl::GetItemText

; 342  : 		rstrPriceOut = szTemp;

  00060	8d 85 7c ff ff
	ff		 lea	 eax, DWORD PTR _szTemp$1[ebp]
  00066	8b cb		 mov	 ecx, ebx
  00068	50		 push	 eax
  00069	ff 15 00 00 00
	00		 call	 DWORD PTR __imp_??4?$CStringT@DV?$StrTraitMFC_DLL@DV?$ChTraitsCRT@D@ATL@@@@@ATL@@QAEAAV01@PBD@Z

; 343  : 		GetItemText(nIndexIn,m_lIndexOfChange,szTemp,sizeof(szTemp));

  0006f	6a 7e		 push	 126			; 0000007eH
  00071	8d 85 7c ff ff
	ff		 lea	 eax, DWORD PTR _szTemp$1[ebp]
  00077	8b cf		 mov	 ecx, edi
  00079	50		 push	 eax
  0007a	ff b7 48 03 00
	00		 push	 DWORD PTR [edi+840]
  00080	56		 push	 esi
  00081	e8 00 00 00 00	 call	 ?GetItemText@CListCtrl@@QBEHHHPADH@Z ; CListCtrl::GetItemText

; 344  : 		rstrChangeOut = szTemp;

  00086	8b 8d 78 ff ff
	ff		 mov	 ecx, DWORD PTR _rstrChangeOut$GSCopy$1$[ebp]
  0008c	8d 85 7c ff ff
	ff		 lea	 eax, DWORD PTR _szTemp$1[ebp]
  00092	50		 push	 eax
  00093	ff 15 00 00 00
	00		 call	 DWORD PTR __imp_??4?$CStringT@DV?$StrTraitMFC_DLL@DV?$ChTraitsCRT@D@ATL@@@@@ATL@@QAEAAV01@PBD@Z

; 345  : 		GetItemText(nIndexIn,m_lIndexOfChgrate,szTemp,sizeof(szTemp));

  00099	6a 7e		 push	 126			; 0000007eH
  0009b	8d 85 7c ff ff
	ff		 lea	 eax, DWORD PTR _szTemp$1[ebp]
  000a1	8b cf		 mov	 ecx, edi
  000a3	50		 push	 eax
  000a4	ff b7 4c 03 00
	00		 push	 DWORD PTR [edi+844]
  000aa	56		 push	 esi
  000ab	e8 00 00 00 00	 call	 ?GetItemText@CListCtrl@@QBEHHHPADH@Z ; CListCtrl::GetItemText

; 346  : 		rstrChgrateOut = szTemp;

  000b0	8b 8d 74 ff ff
	ff		 mov	 ecx, DWORD PTR _rstrChgrateOut$GSCopy$1$[ebp]
  000b6	8d 85 7c ff ff
	ff		 lea	 eax, DWORD PTR _szTemp$1[ebp]
  000bc	50		 push	 eax
  000bd	ff 15 00 00 00
	00		 call	 DWORD PTR __imp_??4?$CStringT@DV?$StrTraitMFC_DLL@DV?$ChTraitsCRT@D@ATL@@@@@ATL@@QAEAAV01@PBD@Z

; 347  : 		GetItemText(nIndexIn,m_lIndexOfVolume,szTemp,sizeof(szTemp));

  000c3	6a 7e		 push	 126			; 0000007eH
  000c5	8d 85 7c ff ff
	ff		 lea	 eax, DWORD PTR _szTemp$1[ebp]
  000cb	8b cf		 mov	 ecx, edi
  000cd	50		 push	 eax
  000ce	ff b7 50 03 00
	00		 push	 DWORD PTR [edi+848]
  000d4	56		 push	 esi
  000d5	e8 00 00 00 00	 call	 ?GetItemText@CListCtrl@@QBEHHHPADH@Z ; CListCtrl::GetItemText

; 348  : 		rstrVolumeOut = szTemp;

  000da	8b 8d 70 ff ff
	ff		 mov	 ecx, DWORD PTR _rstrVolumeOut$GSCopy$1$[ebp]
  000e0	8d 85 7c ff ff
	ff		 lea	 eax, DWORD PTR _szTemp$1[ebp]
  000e6	50		 push	 eax
  000e7	ff 15 00 00 00
	00		 call	 DWORD PTR __imp_??4?$CStringT@DV?$StrTraitMFC_DLL@DV?$ChTraitsCRT@D@ATL@@@@@ATL@@QAEAAV01@PBD@Z

; 349  : 		CJongDataInListCtrl *pData = (CJongDataInListCtrl *)GetItemData(nIndexIn);

  000ed	56		 push	 esi
  000ee	8b cf		 mov	 ecx, edi
  000f0	e8 00 00 00 00	 call	 ?GetItemData@CXListCtrl@@QAEKH@Z ; CXListCtrl::GetItemData

; 350  : 		rchSign = pData->m_chSign;

  000f5	8b 8d 6c ff ff
	ff		 mov	 ecx, DWORD PTR _rchSign$GSCopy$1$[ebp]
  000fb	8a 40 18	 mov	 al, BYTE PTR [eax+24]
  000fe	88 01		 mov	 BYTE PTR [ecx], al
$LN2@GetCodeDat:

; 351  : 	}
; 352  : 
; 353  : }

  00100	8b 4d fc	 mov	 ecx, DWORD PTR __$ArrayPad$[ebp]
  00103	5f		 pop	 edi
  00104	5e		 pop	 esi
  00105	33 cd		 xor	 ecx, ebp
  00107	5b		 pop	 ebx
  00108	e8 00 00 00 00	 call	 @__security_check_cookie@4
  0010d	8b e5		 mov	 esp, ebp
  0010f	5d		 pop	 ebp
  00110	c2 18 00	 ret	 24			; 00000018H
?GetCodeData@CXListCtrlJongData@@QAEXHAAV?$CStringT@DV?$StrTraitMFC_DLL@DV?$ChTraitsCRT@D@ATL@@@@@ATL@@000AAD@Z ENDP ; CXListCtrlJongData::GetCodeData
_TEXT	ENDS
; Function compile flags: /Ogtp
; File D:\git\src\IBK\IBK_DRFN\ProjSrc\SrcDrfn\Chart\comparechart\XListCtrlJongData.cpp
; File C:\Program Files (x86)\Microsoft Visual Studio\2019\Community\VC\Tools\MSVC\14.29.30133\atlmfc\include\afxcmn.inl
; File D:\git\src\IBK\IBK_DRFN\ProjSrc\SrcDrfn\Chart\comparechart\XListCtrlJongData.cpp
; File C:\Program Files (x86)\Microsoft Visual Studio\2019\Community\VC\Tools\MSVC\14.29.30133\atlmfc\include\cstringt.h
; File D:\git\src\IBK\IBK_DRFN\ProjSrc\SrcDrfn\Chart\comparechart\XListCtrlJongData.cpp
;	COMDAT ?FindCode@CXListCtrlJongData@@QAEHPBD@Z
_TEXT	SEGMENT
__$EHRec$ = -12						; size = 12
_strCodeInput$ = 8					; size = 4
_lpCode$ = 8						; size = 4
?FindCode@CXListCtrlJongData@@QAEHPBD@Z PROC		; CXListCtrlJongData::FindCode, COMDAT
; _this$ = ecx

; 356  : {

  00000	55		 push	 ebp
  00001	8b ec		 mov	 ebp, esp
  00003	6a ff		 push	 -1
  00005	68 00 00 00 00	 push	 __ehhandler$?FindCode@CXListCtrlJongData@@QAEHPBD@Z
  0000a	64 a1 00 00 00
	00		 mov	 eax, DWORD PTR fs:0
  00010	50		 push	 eax
  00011	53		 push	 ebx
  00012	56		 push	 esi
  00013	57		 push	 edi
  00014	a1 00 00 00 00	 mov	 eax, DWORD PTR ___security_cookie
  00019	33 c5		 xor	 eax, ebp
  0001b	50		 push	 eax
  0001c	8d 45 f4	 lea	 eax, DWORD PTR __$EHRec$[ebp]
  0001f	64 a3 00 00 00
	00		 mov	 DWORD PTR fs:0, eax
  00025	8b d9		 mov	 ebx, ecx

; 357  : 	CJongDataInListCtrl *pData = NULL;
; 358  : 	CString strCodeInput = lpCode;

  00027	ff 75 08	 push	 DWORD PTR _lpCode$[ebp]
  0002a	8d 4d 08	 lea	 ecx, DWORD PTR _strCodeInput$[ebp]
  0002d	ff 15 00 00 00
	00		 call	 DWORD PTR __imp_??0?$CStringT@DV?$StrTraitMFC_DLL@DV?$ChTraitsCRT@D@ATL@@@@@ATL@@QAE@PBD@Z

; 359  : 	strCodeInput.Remove(' ');	

  00033	6a 20		 push	 32			; 00000020H
  00035	8d 4d 08	 lea	 ecx, DWORD PTR _strCodeInput$[ebp]
  00038	c7 45 fc 00 00
	00 00		 mov	 DWORD PTR __$EHRec$[ebp+8], 0
  0003f	ff 15 00 00 00
	00		 call	 DWORD PTR __imp_?Remove@?$CStringT@DV?$StrTraitMFC_DLL@DV?$ChTraitsCRT@D@ATL@@@@@ATL@@QAEHD@Z
; File C:\Program Files (x86)\Microsoft Visual Studio\2019\Community\VC\Tools\MSVC\14.29.30133\atlmfc\include\afxcmn.inl

; 155  : 	{ ASSERT(::IsWindow(m_hWnd)); return (int) ::SendMessage(m_hWnd, LVM_GETITEMCOUNT, 0, 0L); }

  00045	6a 00		 push	 0
  00047	6a 00		 push	 0
  00049	68 04 10 00 00	 push	 4100			; 00001004H
  0004e	ff 73 20	 push	 DWORD PTR [ebx+32]
  00051	ff 15 00 00 00
	00		 call	 DWORD PTR __imp__SendMessageA@16
; File D:\git\src\IBK\IBK_DRFN\ProjSrc\SrcDrfn\Chart\comparechart\XListCtrlJongData.cpp

; 360  : 	int nCnt = GetItemCount();

  00057	8b f8		 mov	 edi, eax

; 361  : 	for(int i=0;i<nCnt;i++)

  00059	33 f6		 xor	 esi, esi
  0005b	85 ff		 test	 edi, edi
  0005d	7e 1d		 jle	 SHORT $LN3@FindCode
  0005f	90		 npad	 1
$LL4@FindCode:

; 362  : 	{
; 363  : 		pData = (CJongDataInListCtrl *)GetItemData(i);

  00060	56		 push	 esi
  00061	8b cb		 mov	 ecx, ebx
  00063	e8 00 00 00 00	 call	 ?GetItemData@CXListCtrl@@QAEKH@Z ; CXListCtrl::GetItemData
; File C:\Program Files (x86)\Microsoft Visual Studio\2019\Community\VC\Tools\MSVC\14.29.30133\atlmfc\include\cstringt.h

; 2479 : 		return(str1.Compare(str2) == 0);

  00068	ff 75 08	 push	 DWORD PTR _strCodeInput$[ebp]
  0006b	8b c8		 mov	 ecx, eax
  0006d	ff 15 00 00 00
	00		 call	 DWORD PTR __imp_?Compare@?$CStringT@DV?$StrTraitMFC_DLL@DV?$ChTraitsCRT@D@ATL@@@@@ATL@@QBEHPBD@Z
  00073	85 c0		 test	 eax, eax
; File D:\git\src\IBK\IBK_DRFN\ProjSrc\SrcDrfn\Chart\comparechart\XListCtrlJongData.cpp

; 364  : 		if(pData->m_strJongCode==strCodeInput)

  00075	74 08		 je	 SHORT $LN8@FindCode

; 361  : 	for(int i=0;i<nCnt;i++)

  00077	46		 inc	 esi
  00078	3b f7		 cmp	 esi, edi
  0007a	7c e4		 jl	 SHORT $LL4@FindCode
$LN3@FindCode:

; 365  : 		{
; 366  : 			return i;
; 367  : 			break;
; 368  : 		}
; 369  : 	}
; 370  : 
; 371  : 	return -1;

  0007c	83 ce ff	 or	 esi, -1
$LN8@FindCode:
  0007f	8d 4d 08	 lea	 ecx, DWORD PTR _strCodeInput$[ebp]
  00082	ff 15 00 00 00
	00		 call	 DWORD PTR __imp_??1?$CStringT@DV?$StrTraitMFC_DLL@DV?$ChTraitsCRT@D@ATL@@@@@ATL@@QAE@XZ
  00088	8b c6		 mov	 eax, esi

; 372  : }

  0008a	8b 4d f4	 mov	 ecx, DWORD PTR __$EHRec$[ebp]
  0008d	64 89 0d 00 00
	00 00		 mov	 DWORD PTR fs:0, ecx
  00094	59		 pop	 ecx
  00095	5f		 pop	 edi
  00096	5e		 pop	 esi
  00097	5b		 pop	 ebx
  00098	8b e5		 mov	 esp, ebp
  0009a	5d		 pop	 ebp
  0009b	c2 04 00	 ret	 4
_TEXT	ENDS
;	COMDAT text$x
text$x	SEGMENT
__unwindfunclet$?FindCode@CXListCtrlJongData@@QAEHPBD@Z$0:
  00000	8d 4d 08	 lea	 ecx, DWORD PTR _strCodeInput$[ebp]
  00003	ff 25 00 00 00
	00		 jmp	 DWORD PTR __imp_??1?$CStringT@DV?$StrTraitMFC_DLL@DV?$ChTraitsCRT@D@ATL@@@@@ATL@@QAE@XZ
  00009	cc		 int	 3
  0000a	cc		 int	 3
  0000b	cc		 int	 3
  0000c	cc		 int	 3
  0000d	cc		 int	 3
__ehhandler$?FindCode@CXListCtrlJongData@@QAEHPBD@Z:
  0000e	90		 npad	 1
  0000f	90		 npad	 1
  00010	8b 54 24 08	 mov	 edx, DWORD PTR [esp+8]
  00014	8d 42 0c	 lea	 eax, DWORD PTR [edx+12]
  00017	8b 4a f0	 mov	 ecx, DWORD PTR [edx-16]
  0001a	33 c8		 xor	 ecx, eax
  0001c	e8 00 00 00 00	 call	 @__security_check_cookie@4
  00021	b8 00 00 00 00	 mov	 eax, OFFSET __ehfuncinfo$?FindCode@CXListCtrlJongData@@QAEHPBD@Z
  00026	e9 00 00 00 00	 jmp	 ___CxxFrameHandler3
text$x	ENDS
?FindCode@CXListCtrlJongData@@QAEHPBD@Z ENDP		; CXListCtrlJongData::FindCode
; Function compile flags: /Ogtp
; File D:\git\src\IBK\IBK_DRFN\ProjSrc\SrcDrfn\Chart\comparechart\XListCtrlJongData.cpp
; File C:\Program Files (x86)\Microsoft Visual Studio\2019\Community\VC\Tools\MSVC\14.29.30133\atlmfc\include\afxcmn.inl
; File D:\git\src\IBK\IBK_DRFN\ProjSrc\SrcDrfn\Chart\comparechart\XListCtrlJongData.cpp
; File C:\Program Files (x86)\Microsoft Visual Studio\2019\Community\VC\Tools\MSVC\14.29.30133\atlmfc\include\afxcmn.inl
; File D:\git\src\IBK\IBK_DRFN\ProjSrc\SrcDrfn\Chart\comparechart\XListCtrlJongData.cpp
;	COMDAT ?RemoveAll@CXListCtrlJongData@@QAEHXZ
_TEXT	SEGMENT
_nCnt$1$ = -4						; size = 4
?RemoveAll@CXListCtrlJongData@@QAEHXZ PROC		; CXListCtrlJongData::RemoveAll, COMDAT
; _this$ = ecx

; 375  : {

  00000	55		 push	 ebp
  00001	8b ec		 mov	 ebp, esp
  00003	51		 push	 ecx
  00004	53		 push	 ebx
  00005	56		 push	 esi
; File C:\Program Files (x86)\Microsoft Visual Studio\2019\Community\VC\Tools\MSVC\14.29.30133\atlmfc\include\afxcmn.inl

; 155  : 	{ ASSERT(::IsWindow(m_hWnd)); return (int) ::SendMessage(m_hWnd, LVM_GETITEMCOUNT, 0, 0L); }

  00006	6a 00		 push	 0
; File D:\git\src\IBK\IBK_DRFN\ProjSrc\SrcDrfn\Chart\comparechart\XListCtrlJongData.cpp

; 375  : {

  00008	8b d9		 mov	 ebx, ecx
; File C:\Program Files (x86)\Microsoft Visual Studio\2019\Community\VC\Tools\MSVC\14.29.30133\atlmfc\include\afxcmn.inl

; 155  : 	{ ASSERT(::IsWindow(m_hWnd)); return (int) ::SendMessage(m_hWnd, LVM_GETITEMCOUNT, 0, 0L); }

  0000a	6a 00		 push	 0
  0000c	68 04 10 00 00	 push	 4100			; 00001004H
  00011	ff 73 20	 push	 DWORD PTR [ebx+32]
  00014	ff 15 00 00 00
	00		 call	 DWORD PTR __imp__SendMessageA@16
  0001a	33 f6		 xor	 esi, esi
; File D:\git\src\IBK\IBK_DRFN\ProjSrc\SrcDrfn\Chart\comparechart\XListCtrlJongData.cpp

; 377  : 	int nCnt = GetItemCount();

  0001c	89 45 fc	 mov	 DWORD PTR _nCnt$1$[ebp], eax

; 378  : 	for(int i=0;i<nCnt;i++)

  0001f	85 c0		 test	 eax, eax
  00021	7e 5f		 jle	 SHORT $LN3@RemoveAll
  00023	57		 push	 edi
$LL4@RemoveAll:

; 379  : 	{
; 380  : 		pData = (CJongDataInListCtrl *)GetItemData(i);

  00024	56		 push	 esi
  00025	8b cb		 mov	 ecx, ebx
  00027	e8 00 00 00 00	 call	 ?GetItemData@CXListCtrl@@QAEKH@Z ; CXListCtrl::GetItemData
  0002c	8b f8		 mov	 edi, eax

; 381  : 		if(pData)

  0002e	85 ff		 test	 edi, edi
  00030	74 49		 je	 SHORT $LN2@RemoveAll
  00032	8d 4f 30	 lea	 ecx, DWORD PTR [edi+48]
  00035	ff 15 00 00 00
	00		 call	 DWORD PTR __imp_??1?$CStringT@DV?$StrTraitMFC_DLL@DV?$ChTraitsCRT@D@ATL@@@@@ATL@@QAE@XZ
  0003b	8d 4f 14	 lea	 ecx, DWORD PTR [edi+20]
  0003e	ff 15 00 00 00
	00		 call	 DWORD PTR __imp_??1?$CStringT@DV?$StrTraitMFC_DLL@DV?$ChTraitsCRT@D@ATL@@@@@ATL@@QAE@XZ
  00044	8d 4f 10	 lea	 ecx, DWORD PTR [edi+16]
  00047	ff 15 00 00 00
	00		 call	 DWORD PTR __imp_??1?$CStringT@DV?$StrTraitMFC_DLL@DV?$ChTraitsCRT@D@ATL@@@@@ATL@@QAE@XZ
  0004d	8d 4f 0c	 lea	 ecx, DWORD PTR [edi+12]
  00050	ff 15 00 00 00
	00		 call	 DWORD PTR __imp_??1?$CStringT@DV?$StrTraitMFC_DLL@DV?$ChTraitsCRT@D@ATL@@@@@ATL@@QAE@XZ
  00056	8d 4f 08	 lea	 ecx, DWORD PTR [edi+8]
  00059	ff 15 00 00 00
	00		 call	 DWORD PTR __imp_??1?$CStringT@DV?$StrTraitMFC_DLL@DV?$ChTraitsCRT@D@ATL@@@@@ATL@@QAE@XZ
  0005f	8d 4f 04	 lea	 ecx, DWORD PTR [edi+4]
  00062	ff 15 00 00 00
	00		 call	 DWORD PTR __imp_??1?$CStringT@DV?$StrTraitMFC_DLL@DV?$ChTraitsCRT@D@ATL@@@@@ATL@@QAE@XZ
  00068	8b cf		 mov	 ecx, edi
  0006a	ff 15 00 00 00
	00		 call	 DWORD PTR __imp_??1?$CStringT@DV?$StrTraitMFC_DLL@DV?$ChTraitsCRT@D@ATL@@@@@ATL@@QAE@XZ
  00070	6a 34		 push	 52			; 00000034H
  00072	57		 push	 edi
  00073	e8 00 00 00 00	 call	 ??3@YAXPAXI@Z		; operator delete
  00078	83 c4 08	 add	 esp, 8
$LN2@RemoveAll:

; 378  : 	for(int i=0;i<nCnt;i++)

  0007b	46		 inc	 esi
  0007c	3b 75 fc	 cmp	 esi, DWORD PTR _nCnt$1$[ebp]
  0007f	7c a3		 jl	 SHORT $LL4@RemoveAll
  00081	5f		 pop	 edi
$LN3@RemoveAll:

; 382  : 		{
; 383  : 			delete pData;
; 384  : 			pData = NULL;
; 385  : 		}
; 386  : 	}
; 387  : 	m_mapJongData.RemoveAll();

  00082	8d 8b 60 02 00
	00		 lea	 ecx, DWORD PTR [ebx+608]
  00088	e8 00 00 00 00	 call	 ?RemoveAll@?$CMap@V?$CStringT@DV?$StrTraitMFC_DLL@DV?$ChTraitsCRT@D@ATL@@@@@ATL@@PBDPAVCJongDataInListCtrl@@PAV3@@@QAEXXZ ; CMap<ATL::CStringT<char,StrTraitMFC_DLL<char,ATL::ChTraitsCRT<char> > >,char const *,CJongDataInListCtrl *,CJongDataInListCtrl *>::RemoveAll

; 388  : 	m_mapJongDataHighlighted.RemoveAll();

  0008d	8d 8b 7c 02 00
	00		 lea	 ecx, DWORD PTR [ebx+636]
  00093	e8 00 00 00 00	 call	 ?RemoveAll@?$CMap@V?$CStringT@DV?$StrTraitMFC_DLL@DV?$ChTraitsCRT@D@ATL@@@@@ATL@@PBDPAVCJongDataInListCtrl@@PAV3@@@QAEXXZ ; CMap<ATL::CStringT<char,StrTraitMFC_DLL<char,ATL::ChTraitsCRT<char> > >,char const *,CJongDataInListCtrl *,CJongDataInListCtrl *>::RemoveAll

; 389  : 	m_mapJongDataChecked.RemoveAll();

  00098	8d 8b 98 02 00
	00		 lea	 ecx, DWORD PTR [ebx+664]
  0009e	e8 00 00 00 00	 call	 ?RemoveAll@?$CMap@V?$CStringT@DV?$StrTraitMFC_DLL@DV?$ChTraitsCRT@D@ATL@@@@@ATL@@PBDPAVCJongDataInListCtrl@@PAV3@@@QAEXXZ ; CMap<ATL::CStringT<char,StrTraitMFC_DLL<char,ATL::ChTraitsCRT<char> > >,char const *,CJongDataInListCtrl *,CJongDataInListCtrl *>::RemoveAll

; 390  : 	CXListCtrl::DeleteAllItems();

  000a3	8b cb		 mov	 ecx, ebx
  000a5	e8 00 00 00 00	 call	 ?DeleteAllItems@CXListCtrl@@QAEHXZ ; CXListCtrl::DeleteAllItems
  000aa	0f 57 c0	 xorps	 xmm0, xmm0

; 391  : 	::ZeroMemory(m_bSortIndex,sizeof(m_bSortIndex));
; 392  : 	return 1;

  000ad	b8 01 00 00 00	 mov	 eax, 1
  000b2	0f 11 83 bc 02
	00 00		 movups	 XMMWORD PTR [ebx+700], xmm0
  000b9	5e		 pop	 esi
  000ba	0f 11 83 cc 02
	00 00		 movups	 XMMWORD PTR [ebx+716], xmm0
  000c1	66 0f d6 83 dc
	02 00 00	 movq	 QWORD PTR [ebx+732], xmm0
  000c9	5b		 pop	 ebx

; 393  : }

  000ca	8b e5		 mov	 esp, ebp
  000cc	5d		 pop	 ebp
  000cd	c3		 ret	 0
?RemoveAll@CXListCtrlJongData@@QAEHXZ ENDP		; CXListCtrlJongData::RemoveAll
_TEXT	ENDS
; Function compile flags: /Ogtp
; File D:\git\src\IBK\IBK_DRFN\ProjSrc\SrcDrfn\Chart\comparechart\XListCtrlJongData.cpp
; File C:\Program Files (x86)\Microsoft Visual Studio\2019\Community\VC\Tools\MSVC\14.29.30133\atlmfc\include\afxcmn.inl
; File D:\git\src\IBK\IBK_DRFN\ProjSrc\SrcDrfn\Chart\comparechart\XListCtrlJongData.cpp
; File C:\Program Files (x86)\Microsoft Visual Studio\2019\Community\VC\Tools\MSVC\14.29.30133\atlmfc\include\afxcmn.inl
; File D:\git\src\IBK\IBK_DRFN\ProjSrc\SrcDrfn\Chart\comparechart\XListCtrlJongData.cpp
;	COMDAT ?GetCheckedCodes@CXListCtrlJongData@@QAE?AV?$CStringT@DV?$StrTraitMFC_DLL@DV?$ChTraitsCRT@D@ATL@@@@@ATL@@XZ
_TEXT	SEGMENT
_lCnt$1$ = -24						; size = 4
$T2 = -20						; size = 4
_nChkCnt$1$ = -16					; size = 4
__$EHRec$ = -12						; size = 12
___$ReturnUdt$ = 8					; size = 4
?GetCheckedCodes@CXListCtrlJongData@@QAE?AV?$CStringT@DV?$StrTraitMFC_DLL@DV?$ChTraitsCRT@D@ATL@@@@@ATL@@XZ PROC ; CXListCtrlJongData::GetCheckedCodes, COMDAT
; _this$ = ecx

; 458  : {

  00000	55		 push	 ebp
  00001	8b ec		 mov	 ebp, esp
  00003	6a ff		 push	 -1
  00005	68 00 00 00 00	 push	 __ehhandler$?GetCheckedCodes@CXListCtrlJongData@@QAE?AV?$CStringT@DV?$StrTraitMFC_DLL@DV?$ChTraitsCRT@D@ATL@@@@@ATL@@XZ
  0000a	64 a1 00 00 00
	00		 mov	 eax, DWORD PTR fs:0
  00010	50		 push	 eax
  00011	83 ec 0c	 sub	 esp, 12			; 0000000cH
  00014	53		 push	 ebx
  00015	56		 push	 esi
  00016	57		 push	 edi
  00017	a1 00 00 00 00	 mov	 eax, DWORD PTR ___security_cookie
  0001c	33 c5		 xor	 eax, ebp
  0001e	50		 push	 eax
  0001f	8d 45 f4	 lea	 eax, DWORD PTR __$EHRec$[ebp]
  00022	64 a3 00 00 00
	00		 mov	 DWORD PTR fs:0, eax
  00028	8b d9		 mov	 ebx, ecx
  0002a	c7 45 ec 00 00
	00 00		 mov	 DWORD PTR $T2[ebp], 0

; 459  : 		CString strJCodes;

  00031	8b 7d 08	 mov	 edi, DWORD PTR ___$ReturnUdt$[ebp]
  00034	8b cf		 mov	 ecx, edi
  00036	ff 15 00 00 00
	00		 call	 DWORD PTR __imp_??0?$CStringT@DV?$StrTraitMFC_DLL@DV?$ChTraitsCRT@D@ATL@@@@@ATL@@QAE@XZ
; File C:\Program Files (x86)\Microsoft Visual Studio\2019\Community\VC\Tools\MSVC\14.29.30133\atlmfc\include\afxcmn.inl

; 155  : 	{ ASSERT(::IsWindow(m_hWnd)); return (int) ::SendMessage(m_hWnd, LVM_GETITEMCOUNT, 0, 0L); }

  0003c	6a 00		 push	 0
  0003e	6a 00		 push	 0
  00040	68 04 10 00 00	 push	 4100			; 00001004H
  00045	ff 73 20	 push	 DWORD PTR [ebx+32]
; File D:\git\src\IBK\IBK_DRFN\ProjSrc\SrcDrfn\Chart\comparechart\XListCtrlJongData.cpp

; 485  : 	return strJCodes;

  00048	c7 45 fc 00 00
	00 00		 mov	 DWORD PTR __$EHRec$[ebp+8], 0
  0004f	c7 45 ec 01 00
	00 00		 mov	 DWORD PTR $T2[ebp], 1
; File C:\Program Files (x86)\Microsoft Visual Studio\2019\Community\VC\Tools\MSVC\14.29.30133\atlmfc\include\afxcmn.inl

; 155  : 	{ ASSERT(::IsWindow(m_hWnd)); return (int) ::SendMessage(m_hWnd, LVM_GETITEMCOUNT, 0, 0L); }

  00056	ff 15 00 00 00
	00		 call	 DWORD PTR __imp__SendMessageA@16
; File D:\git\src\IBK\IBK_DRFN\ProjSrc\SrcDrfn\Chart\comparechart\XListCtrlJongData.cpp

; 458  : {

  0005c	33 f6		 xor	 esi, esi

; 460  : 	CJongDataInListCtrl *pData = NULL;
; 461  : 	
; 462  : 	int nCheckBox = 0;
; 463  : 	long lCnt = GetItemCount();

  0005e	89 45 e8	 mov	 DWORD PTR _lCnt$1$[ebp], eax

; 464  : 	int nChkCnt = 0;

  00061	c7 45 f0 00 00
	00 00		 mov	 DWORD PTR _nChkCnt$1$[ebp], 0

; 465  : 	for(long lPos=0;lPos<lCnt;lPos++)

  00068	85 c0		 test	 eax, eax
  0006a	7e 55		 jle	 SHORT $LN18@GetChecked
  0006c	0f 1f 40 00	 npad	 4
$LL4@GetChecked:

; 466  : 	{
; 467  : 		nCheckBox = GetCheckbox(lPos,0);

  00070	6a 00		 push	 0
  00072	56		 push	 esi
  00073	8b cb		 mov	 ecx, ebx
  00075	e8 00 00 00 00	 call	 ?GetCheckbox@CXListCtrl@@QAEHHH@Z ; CXListCtrl::GetCheckbox

; 468  : 		if(nCheckBox)

  0007a	85 c0		 test	 eax, eax
  0007c	74 2b		 je	 SHORT $LN20@GetChecked

; 469  : 		{
; 470  : 			pData = (CJongDataInListCtrl *)GetItemData(lPos);

  0007e	56		 push	 esi
  0007f	8b cb		 mov	 ecx, ebx
  00081	e8 00 00 00 00	 call	 ?GetItemData@CXListCtrl@@QAEKH@Z ; CXListCtrl::GetItemData

; 471  : 			if(pData)

  00086	85 c0		 test	 eax, eax
  00088	74 1f		 je	 SHORT $LN20@GetChecked

; 472  : 			{
; 473  : 				strJCodes += pData->m_strJongCode;

  0008a	50		 push	 eax
  0008b	8b cf		 mov	 ecx, edi
  0008d	ff 15 00 00 00
	00		 call	 DWORD PTR __imp_??Y?$CStringT@DV?$StrTraitMFC_DLL@DV?$ChTraitsCRT@D@ATL@@@@@ATL@@QAEAAV01@ABV?$CSimpleStringT@D$00@1@@Z

; 474  : 				strJCodes += ";";

  00093	68 00 00 00 00	 push	 OFFSET ??_C@_01ICJEACDI@?$DL@
  00098	8b cf		 mov	 ecx, edi
  0009a	ff 15 00 00 00
	00		 call	 DWORD PTR __imp_??Y?$CStringT@DV?$StrTraitMFC_DLL@DV?$ChTraitsCRT@D@ATL@@@@@ATL@@QAEAAV01@PBD@Z

; 475  : 				nChkCnt++;

  000a0	8b 45 f0	 mov	 eax, DWORD PTR _nChkCnt$1$[ebp]
  000a3	40		 inc	 eax
  000a4	89 45 f0	 mov	 DWORD PTR _nChkCnt$1$[ebp], eax
  000a7	eb 03		 jmp	 SHORT $LN2@GetChecked
$LN20@GetChecked:

; 465  : 	for(long lPos=0;lPos<lCnt;lPos++)

  000a9	8b 45 f0	 mov	 eax, DWORD PTR _nChkCnt$1$[ebp]
$LN2@GetChecked:
  000ac	46		 inc	 esi
  000ad	3b 75 e8	 cmp	 esi, DWORD PTR _lCnt$1$[ebp]
  000b0	7c be		 jl	 SHORT $LL4@GetChecked

; 476  : 				//lCnt++;
; 477  : 			}
; 478  : 		}		
; 479  : 	}
; 480  : 	//if(lCnt==1)
; 481  : 	if(nChkCnt == 1)

  000b2	83 f8 01	 cmp	 eax, 1
  000b5	75 0a		 jne	 SHORT $LN18@GetChecked

; 482  : 	{
; 483  : 		strJCodes.TrimRight(';');

  000b7	6a 3b		 push	 59			; 0000003bH
  000b9	8b cf		 mov	 ecx, edi
  000bb	ff 15 00 00 00
	00		 call	 DWORD PTR __imp_?TrimRight@?$CStringT@DV?$StrTraitMFC_DLL@DV?$ChTraitsCRT@D@ATL@@@@@ATL@@QAEAAV12@D@Z
$LN18@GetChecked:

; 486  : }

  000c1	8b c7		 mov	 eax, edi
  000c3	8b 4d f4	 mov	 ecx, DWORD PTR __$EHRec$[ebp]
  000c6	64 89 0d 00 00
	00 00		 mov	 DWORD PTR fs:0, ecx
  000cd	59		 pop	 ecx
  000ce	5f		 pop	 edi
  000cf	5e		 pop	 esi
  000d0	5b		 pop	 ebx
  000d1	8b e5		 mov	 esp, ebp
  000d3	5d		 pop	 ebp
  000d4	c2 04 00	 ret	 4
_TEXT	ENDS
;	COMDAT text$x
text$x	SEGMENT
__unwindfunclet$?GetCheckedCodes@CXListCtrlJongData@@QAE?AV?$CStringT@DV?$StrTraitMFC_DLL@DV?$ChTraitsCRT@D@ATL@@@@@ATL@@XZ$0:
  00000	8b 45 ec	 mov	 eax, DWORD PTR $T2[ebp]
  00003	83 e0 01	 and	 eax, 1
  00006	0f 84 0d 00 00
	00		 je	 $LN10@GetChecked
  0000c	83 65 ec fe	 and	 DWORD PTR $T2[ebp], -2	; fffffffeH
  00010	8b 4d 08	 mov	 ecx, DWORD PTR ___$ReturnUdt$[ebp]
  00013	ff 25 00 00 00
	00		 jmp	 DWORD PTR __imp_??1?$CStringT@DV?$StrTraitMFC_DLL@DV?$ChTraitsCRT@D@ATL@@@@@ATL@@QAE@XZ
$LN10@GetChecked:
  00019	c3		 ret	 0
  0001a	cc		 int	 3
  0001b	cc		 int	 3
  0001c	cc		 int	 3
  0001d	cc		 int	 3
  0001e	cc		 int	 3
__ehhandler$?GetCheckedCodes@CXListCtrlJongData@@QAE?AV?$CStringT@DV?$StrTraitMFC_DLL@DV?$ChTraitsCRT@D@ATL@@@@@ATL@@XZ:
  0001f	90		 npad	 1
  00020	90		 npad	 1
  00021	8b 54 24 08	 mov	 edx, DWORD PTR [esp+8]
  00025	8d 42 0c	 lea	 eax, DWORD PTR [edx+12]
  00028	8b 4a e4	 mov	 ecx, DWORD PTR [edx-28]
  0002b	33 c8		 xor	 ecx, eax
  0002d	e8 00 00 00 00	 call	 @__security_check_cookie@4
  00032	b8 00 00 00 00	 mov	 eax, OFFSET __ehfuncinfo$?GetCheckedCodes@CXListCtrlJongData@@QAE?AV?$CStringT@DV?$StrTraitMFC_DLL@DV?$ChTraitsCRT@D@ATL@@@@@ATL@@XZ
  00037	e9 00 00 00 00	 jmp	 ___CxxFrameHandler3
text$x	ENDS
?GetCheckedCodes@CXListCtrlJongData@@QAE?AV?$CStringT@DV?$StrTraitMFC_DLL@DV?$ChTraitsCRT@D@ATL@@@@@ATL@@XZ ENDP ; CXListCtrlJongData::GetCheckedCodes
; Function compile flags: /Ogtp
; File D:\git\src\IBK\IBK_DRFN\ProjSrc\SrcDrfn\Chart\comparechart\XListCtrlJongData.cpp
;	COMDAT ?GetTimeSelected@CXListCtrlJongData@@QAE?AV?$CStringT@DV?$StrTraitMFC_DLL@DV?$ChTraitsCRT@D@ATL@@@@@ATL@@H@Z
_TEXT	SEGMENT
_strTime$ = -16						; size = 4
__$EHRec$ = -12						; size = 12
___$ReturnUdt$ = 8					; size = 4
_nCurSel$ = 12						; size = 4
?GetTimeSelected@CXListCtrlJongData@@QAE?AV?$CStringT@DV?$StrTraitMFC_DLL@DV?$ChTraitsCRT@D@ATL@@@@@ATL@@H@Z PROC ; CXListCtrlJongData::GetTimeSelected, COMDAT
; _this$ = ecx

; 417  : {	

  00000	55		 push	 ebp
  00001	8b ec		 mov	 ebp, esp
  00003	6a ff		 push	 -1
  00005	68 00 00 00 00	 push	 __ehhandler$?GetTimeSelected@CXListCtrlJongData@@QAE?AV?$CStringT@DV?$StrTraitMFC_DLL@DV?$ChTraitsCRT@D@ATL@@@@@ATL@@H@Z
  0000a	64 a1 00 00 00
	00		 mov	 eax, DWORD PTR fs:0
  00010	50		 push	 eax
  00011	51		 push	 ecx
  00012	56		 push	 esi
  00013	a1 00 00 00 00	 mov	 eax, DWORD PTR ___security_cookie
  00018	33 c5		 xor	 eax, ebp
  0001a	50		 push	 eax
  0001b	8d 45 f4	 lea	 eax, DWORD PTR __$EHRec$[ebp]
  0001e	64 a3 00 00 00
	00		 mov	 DWORD PTR fs:0, eax
  00024	8b f1		 mov	 esi, ecx

; 418  : 	CJongDataInListCtrl *pData = NULL;
; 419  : 	CString strTime;

  00026	8d 4d f0	 lea	 ecx, DWORD PTR _strTime$[ebp]
  00029	ff 15 00 00 00
	00		 call	 DWORD PTR __imp_??0?$CStringT@DV?$StrTraitMFC_DLL@DV?$ChTraitsCRT@D@ATL@@@@@ATL@@QAE@XZ

; 420  : 	if(nCurSel==-1)

  0002f	8b 45 0c	 mov	 eax, DWORD PTR _nCurSel$[ebp]
  00032	c7 45 fc 00 00
	00 00		 mov	 DWORD PTR __$EHRec$[ebp+8], 0
  00039	83 f8 ff	 cmp	 eax, -1
  0003c	75 1c		 jne	 SHORT $LN3@GetTimeSel

; 421  : 	{
; 422  : 		nCurSel = GetCurSel();

  0003e	8b ce		 mov	 ecx, esi
  00040	e8 00 00 00 00	 call	 ?GetCurSel@CXListCtrl@@QAEHXZ ; CXListCtrl::GetCurSel

; 423  : 	}	
; 424  : 	if(nCurSel==-1) return "";

  00045	83 f8 ff	 cmp	 eax, -1
  00048	75 10		 jne	 SHORT $LN3@GetTimeSel
  0004a	8b 4d 08	 mov	 ecx, DWORD PTR ___$ReturnUdt$[ebp]
  0004d	68 00 00 00 00	 push	 OFFSET ??_C@_00CNPNBAHC@@
  00052	ff 15 00 00 00
	00		 call	 DWORD PTR __imp_??0?$CStringT@DV?$StrTraitMFC_DLL@DV?$ChTraitsCRT@D@ATL@@@@@ATL@@QAE@PBD@Z
  00058	eb 2d		 jmp	 SHORT $LN9@GetTimeSel
$LN3@GetTimeSel:

; 425  : 	pData = (CJongDataInListCtrl *)GetItemData(nCurSel);

  0005a	50		 push	 eax
  0005b	8b ce		 mov	 ecx, esi
  0005d	e8 00 00 00 00	 call	 ?GetItemData@CXListCtrl@@QAEKH@Z ; CXListCtrl::GetItemData

; 426  : 	strTime = pData->m_strInsertedTime;

  00062	83 c0 30	 add	 eax, 48			; 00000030H
  00065	8d 4d f0	 lea	 ecx, DWORD PTR _strTime$[ebp]
  00068	50		 push	 eax
  00069	ff 15 00 00 00
	00		 call	 DWORD PTR __imp_??4?$CStringT@DV?$StrTraitMFC_DLL@DV?$ChTraitsCRT@D@ATL@@@@@ATL@@QAEAAV01@ABV01@@Z

; 427  : 	strTime.Remove(':');

  0006f	6a 3a		 push	 58			; 0000003aH
  00071	8d 4d f0	 lea	 ecx, DWORD PTR _strTime$[ebp]
  00074	ff 15 00 00 00
	00		 call	 DWORD PTR __imp_?Remove@?$CStringT@DV?$StrTraitMFC_DLL@DV?$ChTraitsCRT@D@ATL@@@@@ATL@@QAEHD@Z

; 428  : 	return strTime;

  0007a	8b 4d 08	 mov	 ecx, DWORD PTR ___$ReturnUdt$[ebp]
  0007d	8d 45 f0	 lea	 eax, DWORD PTR _strTime$[ebp]
  00080	50		 push	 eax
  00081	ff 15 00 00 00
	00		 call	 DWORD PTR __imp_??0?$CStringT@DV?$StrTraitMFC_DLL@DV?$ChTraitsCRT@D@ATL@@@@@ATL@@QAE@ABV01@@Z
$LN9@GetTimeSel:

; 429  : }

  00087	8d 4d f0	 lea	 ecx, DWORD PTR _strTime$[ebp]
  0008a	ff 15 00 00 00
	00		 call	 DWORD PTR __imp_??1?$CStringT@DV?$StrTraitMFC_DLL@DV?$ChTraitsCRT@D@ATL@@@@@ATL@@QAE@XZ
  00090	8b 45 08	 mov	 eax, DWORD PTR ___$ReturnUdt$[ebp]
  00093	8b 4d f4	 mov	 ecx, DWORD PTR __$EHRec$[ebp]
  00096	64 89 0d 00 00
	00 00		 mov	 DWORD PTR fs:0, ecx
  0009d	59		 pop	 ecx
  0009e	5e		 pop	 esi
  0009f	8b e5		 mov	 esp, ebp
  000a1	5d		 pop	 ebp
  000a2	c2 08 00	 ret	 8
_TEXT	ENDS
;	COMDAT text$x
text$x	SEGMENT
__unwindfunclet$?GetTimeSelected@CXListCtrlJongData@@QAE?AV?$CStringT@DV?$StrTraitMFC_DLL@DV?$ChTraitsCRT@D@ATL@@@@@ATL@@H@Z$0:
  00000	8d 4d f0	 lea	 ecx, DWORD PTR _strTime$[ebp]
  00003	ff 25 00 00 00
	00		 jmp	 DWORD PTR __imp_??1?$CStringT@DV?$StrTraitMFC_DLL@DV?$ChTraitsCRT@D@ATL@@@@@ATL@@QAE@XZ
  00009	cc		 int	 3
  0000a	cc		 int	 3
  0000b	cc		 int	 3
  0000c	cc		 int	 3
  0000d	cc		 int	 3
__ehhandler$?GetTimeSelected@CXListCtrlJongData@@QAE?AV?$CStringT@DV?$StrTraitMFC_DLL@DV?$ChTraitsCRT@D@ATL@@@@@ATL@@H@Z:
  0000e	90		 npad	 1
  0000f	90		 npad	 1
  00010	8b 54 24 08	 mov	 edx, DWORD PTR [esp+8]
  00014	8d 42 0c	 lea	 eax, DWORD PTR [edx+12]
  00017	8b 4a f4	 mov	 ecx, DWORD PTR [edx-12]
  0001a	33 c8		 xor	 ecx, eax
  0001c	e8 00 00 00 00	 call	 @__security_check_cookie@4
  00021	b8 00 00 00 00	 mov	 eax, OFFSET __ehfuncinfo$?GetTimeSelected@CXListCtrlJongData@@QAE?AV?$CStringT@DV?$StrTraitMFC_DLL@DV?$ChTraitsCRT@D@ATL@@@@@ATL@@H@Z
  00026	e9 00 00 00 00	 jmp	 ___CxxFrameHandler3
text$x	ENDS
?GetTimeSelected@CXListCtrlJongData@@QAE?AV?$CStringT@DV?$StrTraitMFC_DLL@DV?$ChTraitsCRT@D@ATL@@@@@ATL@@H@Z ENDP ; CXListCtrlJongData::GetTimeSelected
; Function compile flags: /Ogtp
; File D:\git\src\IBK\IBK_DRFN\ProjSrc\SrcDrfn\Chart\comparechart\XListCtrlJongData.cpp
;	COMDAT ?GetCodeSelected@CXListCtrlJongData@@QAE?AV?$CStringT@DV?$StrTraitMFC_DLL@DV?$ChTraitsCRT@D@ATL@@@@@ATL@@H@Z
_TEXT	SEGMENT
___$ReturnUdt$ = 8					; size = 4
_nCurSel$ = 12						; size = 4
?GetCodeSelected@CXListCtrlJongData@@QAE?AV?$CStringT@DV?$StrTraitMFC_DLL@DV?$ChTraitsCRT@D@ATL@@@@@ATL@@H@Z PROC ; CXListCtrlJongData::GetCodeSelected, COMDAT
; _this$ = ecx

; 405  : {	

  00000	55		 push	 ebp
  00001	8b ec		 mov	 ebp, esp

; 406  : 	CJongDataInListCtrl *pData = NULL;
; 407  : 	if(nCurSel==-1)

  00003	8b 45 0c	 mov	 eax, DWORD PTR _nCurSel$[ebp]
  00006	56		 push	 esi
  00007	8b f1		 mov	 esi, ecx
  00009	83 f8 ff	 cmp	 eax, -1
  0000c	75 20		 jne	 SHORT $LN3@GetCodeSel

; 408  : 	{
; 409  : 		nCurSel = GetCurSel();

  0000e	e8 00 00 00 00	 call	 ?GetCurSel@CXListCtrl@@QAEHXZ ; CXListCtrl::GetCurSel

; 410  : 	}	
; 411  : 	if(nCurSel==-1) return "";

  00013	83 f8 ff	 cmp	 eax, -1
  00016	75 16		 jne	 SHORT $LN3@GetCodeSel
  00018	8b 4d 08	 mov	 ecx, DWORD PTR ___$ReturnUdt$[ebp]
  0001b	68 00 00 00 00	 push	 OFFSET ??_C@_00CNPNBAHC@@
  00020	ff 15 00 00 00
	00		 call	 DWORD PTR __imp_??0?$CStringT@DV?$StrTraitMFC_DLL@DV?$ChTraitsCRT@D@ATL@@@@@ATL@@QAE@PBD@Z

; 414  : }

  00026	8b 45 08	 mov	 eax, DWORD PTR ___$ReturnUdt$[ebp]
  00029	5e		 pop	 esi
  0002a	5d		 pop	 ebp
  0002b	c2 08 00	 ret	 8
$LN3@GetCodeSel:

; 412  : 	pData = (CJongDataInListCtrl *)GetItemData(nCurSel);

  0002e	50		 push	 eax
  0002f	8b ce		 mov	 ecx, esi
  00031	e8 00 00 00 00	 call	 ?GetItemData@CXListCtrl@@QAEKH@Z ; CXListCtrl::GetItemData

; 413  : 	return pData->m_strJongCode;

  00036	8b 4d 08	 mov	 ecx, DWORD PTR ___$ReturnUdt$[ebp]
  00039	50		 push	 eax
  0003a	ff 15 00 00 00
	00		 call	 DWORD PTR __imp_??0?$CStringT@DV?$StrTraitMFC_DLL@DV?$ChTraitsCRT@D@ATL@@@@@ATL@@QAE@ABV01@@Z

; 414  : }

  00040	8b 45 08	 mov	 eax, DWORD PTR ___$ReturnUdt$[ebp]
  00043	5e		 pop	 esi
  00044	5d		 pop	 ebp
  00045	c2 08 00	 ret	 8
?GetCodeSelected@CXListCtrlJongData@@QAE?AV?$CStringT@DV?$StrTraitMFC_DLL@DV?$ChTraitsCRT@D@ATL@@@@@ATL@@H@Z ENDP ; CXListCtrlJongData::GetCodeSelected
_TEXT	ENDS
; Function compile flags: /Ogtp
; File D:\git\src\IBK\IBK_DRFN\ProjSrc\SrcDrfn\Chart\comparechart\XListCtrlJongData.cpp
; File C:\Program Files (x86)\Microsoft Visual Studio\2019\Community\VC\Tools\MSVC\14.29.30133\atlmfc\include\afxcmn.inl
; File D:\git\src\IBK\IBK_DRFN\ProjSrc\SrcDrfn\Chart\comparechart\XListCtrlJongData.cpp
; File C:\Program Files (x86)\Microsoft Visual Studio\2019\Community\VC\Tools\MSVC\14.29.30133\atlmfc\include\cstringt.h
; File D:\git\src\IBK\IBK_DRFN\ProjSrc\SrcDrfn\Chart\comparechart\XListCtrlJongData.cpp
;	COMDAT ?RemoveCode@CXListCtrlJongData@@QAEXPBD@Z
_TEXT	SEGMENT
__$EHRec$ = -12						; size = 12
_strCodeInput$2 = 8					; size = 4
_lpCode$ = 8						; size = 4
?RemoveCode@CXListCtrlJongData@@QAEXPBD@Z PROC		; CXListCtrlJongData::RemoveCode, COMDAT
; _this$ = ecx

; 321  : {

  00000	55		 push	 ebp
  00001	8b ec		 mov	 ebp, esp
  00003	6a ff		 push	 -1
  00005	68 00 00 00 00	 push	 __ehhandler$?RemoveCode@CXListCtrlJongData@@QAEXPBD@Z
  0000a	64 a1 00 00 00
	00		 mov	 eax, DWORD PTR fs:0
  00010	50		 push	 eax
  00011	53		 push	 ebx
  00012	56		 push	 esi
  00013	57		 push	 edi
  00014	a1 00 00 00 00	 mov	 eax, DWORD PTR ___security_cookie
  00019	33 c5		 xor	 eax, ebp
  0001b	50		 push	 eax
  0001c	8d 45 f4	 lea	 eax, DWORD PTR __$EHRec$[ebp]
  0001f	64 a3 00 00 00
	00		 mov	 DWORD PTR fs:0, eax
  00025	8b f9		 mov	 edi, ecx

; 358  : 	CString strCodeInput = lpCode;

  00027	ff 75 08	 push	 DWORD PTR _lpCode$[ebp]
  0002a	8d 4d 08	 lea	 ecx, DWORD PTR _strCodeInput$2[ebp]
  0002d	ff 15 00 00 00
	00		 call	 DWORD PTR __imp_??0?$CStringT@DV?$StrTraitMFC_DLL@DV?$ChTraitsCRT@D@ATL@@@@@ATL@@QAE@PBD@Z

; 359  : 	strCodeInput.Remove(' ');	

  00033	6a 20		 push	 32			; 00000020H
  00035	8d 4d 08	 lea	 ecx, DWORD PTR _strCodeInput$2[ebp]
  00038	c7 45 fc 00 00
	00 00		 mov	 DWORD PTR __$EHRec$[ebp+8], 0
  0003f	ff 15 00 00 00
	00		 call	 DWORD PTR __imp_?Remove@?$CStringT@DV?$StrTraitMFC_DLL@DV?$ChTraitsCRT@D@ATL@@@@@ATL@@QAEHD@Z
; File C:\Program Files (x86)\Microsoft Visual Studio\2019\Community\VC\Tools\MSVC\14.29.30133\atlmfc\include\afxcmn.inl

; 155  : 	{ ASSERT(::IsWindow(m_hWnd)); return (int) ::SendMessage(m_hWnd, LVM_GETITEMCOUNT, 0, 0L); }

  00045	6a 00		 push	 0
  00047	6a 00		 push	 0
  00049	68 04 10 00 00	 push	 4100			; 00001004H
  0004e	ff 77 20	 push	 DWORD PTR [edi+32]
  00051	ff 15 00 00 00
	00		 call	 DWORD PTR __imp__SendMessageA@16
; File D:\git\src\IBK\IBK_DRFN\ProjSrc\SrcDrfn\Chart\comparechart\XListCtrlJongData.cpp

; 360  : 	int nCnt = GetItemCount();

  00057	8b d8		 mov	 ebx, eax

; 361  : 	for(int i=0;i<nCnt;i++)

  00059	33 f6		 xor	 esi, esi
  0005b	85 db		 test	 ebx, ebx
  0005d	7e 1d		 jle	 SHORT $LN8@RemoveCode
  0005f	90		 npad	 1
$LL9@RemoveCode:

; 362  : 	{
; 363  : 		pData = (CJongDataInListCtrl *)GetItemData(i);

  00060	56		 push	 esi
  00061	8b cf		 mov	 ecx, edi
  00063	e8 00 00 00 00	 call	 ?GetItemData@CXListCtrl@@QAEKH@Z ; CXListCtrl::GetItemData
; File C:\Program Files (x86)\Microsoft Visual Studio\2019\Community\VC\Tools\MSVC\14.29.30133\atlmfc\include\cstringt.h

; 2479 : 		return(str1.Compare(str2) == 0);

  00068	ff 75 08	 push	 DWORD PTR _strCodeInput$2[ebp]
  0006b	8b c8		 mov	 ecx, eax
  0006d	ff 15 00 00 00
	00		 call	 DWORD PTR __imp_?Compare@?$CStringT@DV?$StrTraitMFC_DLL@DV?$ChTraitsCRT@D@ATL@@@@@ATL@@QBEHPBD@Z
  00073	85 c0		 test	 eax, eax
; File D:\git\src\IBK\IBK_DRFN\ProjSrc\SrcDrfn\Chart\comparechart\XListCtrlJongData.cpp

; 364  : 		if(pData->m_strJongCode==strCodeInput)

  00075	74 22		 je	 SHORT $LN26@RemoveCode

; 361  : 	for(int i=0;i<nCnt;i++)

  00077	46		 inc	 esi
  00078	3b f3		 cmp	 esi, ebx
  0007a	7c e4		 jl	 SHORT $LL9@RemoveCode
$LN8@RemoveCode:

; 367  : 			break;
; 368  : 		}
; 369  : 	}
; 370  : 
; 371  : 	return -1;

  0007c	8d 4d 08	 lea	 ecx, DWORD PTR _strCodeInput$2[ebp]
  0007f	ff 15 00 00 00
	00		 call	 DWORD PTR __imp_??1?$CStringT@DV?$StrTraitMFC_DLL@DV?$ChTraitsCRT@D@ATL@@@@@ATL@@QAE@XZ
$LN2@RemoveCode:

; 332  : 	}
; 333  : 
; 334  : }

  00085	8b 4d f4	 mov	 ecx, DWORD PTR __$EHRec$[ebp]
  00088	64 89 0d 00 00
	00 00		 mov	 DWORD PTR fs:0, ecx
  0008f	59		 pop	 ecx
  00090	5f		 pop	 edi
  00091	5e		 pop	 esi
  00092	5b		 pop	 ebx
  00093	8b e5		 mov	 esp, ebp
  00095	5d		 pop	 ebp
  00096	c2 04 00	 ret	 4
$LN26@RemoveCode:

; 366  : 			return i;

  00099	8d 4d 08	 lea	 ecx, DWORD PTR _strCodeInput$2[ebp]
  0009c	c7 45 fc ff ff
	ff ff		 mov	 DWORD PTR __$EHRec$[ebp+8], -1
  000a3	ff 15 00 00 00
	00		 call	 DWORD PTR __imp_??1?$CStringT@DV?$StrTraitMFC_DLL@DV?$ChTraitsCRT@D@ATL@@@@@ATL@@QAE@XZ

; 322  : 	int nIndex = FindCode(lpCode);
; 323  : 	if(nIndex!=-1)

  000a9	83 fe ff	 cmp	 esi, -1
  000ac	74 d7		 je	 SHORT $LN2@RemoveCode

; 324  : 	{
; 325  : 		CJongDataInListCtrl *pData = NULL;
; 326  : 		pData = (CJongDataInListCtrl *)GetItemData(nIndex);

  000ae	56		 push	 esi
  000af	8b cf		 mov	 ecx, edi
  000b1	e8 00 00 00 00	 call	 ?GetItemData@CXListCtrl@@QAEKH@Z ; CXListCtrl::GetItemData

; 327  : 		//2005. 08. 05 
; 328  : 		//m_pLeftBarDlg->OnCodeUnAdvise(pData->m_strJongCode);
; 329  : 		delete pData;

  000b6	8b d8		 mov	 ebx, eax
  000b8	85 db		 test	 ebx, ebx
  000ba	74 49		 je	 SHORT $LN20@RemoveCode
  000bc	8d 4b 30	 lea	 ecx, DWORD PTR [ebx+48]
  000bf	ff 15 00 00 00
	00		 call	 DWORD PTR __imp_??1?$CStringT@DV?$StrTraitMFC_DLL@DV?$ChTraitsCRT@D@ATL@@@@@ATL@@QAE@XZ
  000c5	8d 4b 14	 lea	 ecx, DWORD PTR [ebx+20]
  000c8	ff 15 00 00 00
	00		 call	 DWORD PTR __imp_??1?$CStringT@DV?$StrTraitMFC_DLL@DV?$ChTraitsCRT@D@ATL@@@@@ATL@@QAE@XZ
  000ce	8d 4b 10	 lea	 ecx, DWORD PTR [ebx+16]
  000d1	ff 15 00 00 00
	00		 call	 DWORD PTR __imp_??1?$CStringT@DV?$StrTraitMFC_DLL@DV?$ChTraitsCRT@D@ATL@@@@@ATL@@QAE@XZ
  000d7	8d 4b 0c	 lea	 ecx, DWORD PTR [ebx+12]
  000da	ff 15 00 00 00
	00		 call	 DWORD PTR __imp_??1?$CStringT@DV?$StrTraitMFC_DLL@DV?$ChTraitsCRT@D@ATL@@@@@ATL@@QAE@XZ
  000e0	8d 4b 08	 lea	 ecx, DWORD PTR [ebx+8]
  000e3	ff 15 00 00 00
	00		 call	 DWORD PTR __imp_??1?$CStringT@DV?$StrTraitMFC_DLL@DV?$ChTraitsCRT@D@ATL@@@@@ATL@@QAE@XZ
  000e9	8d 4b 04	 lea	 ecx, DWORD PTR [ebx+4]
  000ec	ff 15 00 00 00
	00		 call	 DWORD PTR __imp_??1?$CStringT@DV?$StrTraitMFC_DLL@DV?$ChTraitsCRT@D@ATL@@@@@ATL@@QAE@XZ
  000f2	8b cb		 mov	 ecx, ebx
  000f4	ff 15 00 00 00
	00		 call	 DWORD PTR __imp_??1?$CStringT@DV?$StrTraitMFC_DLL@DV?$ChTraitsCRT@D@ATL@@@@@ATL@@QAE@XZ
  000fa	6a 34		 push	 52			; 00000034H
  000fc	53		 push	 ebx
  000fd	e8 00 00 00 00	 call	 ??3@YAXPAXI@Z		; operator delete
  00102	83 c4 08	 add	 esp, 8
$LN20@RemoveCode:

; 330  : 		pData = NULL;
; 331  : 		DeleteItem(nIndex);		

  00105	56		 push	 esi
  00106	8b cf		 mov	 ecx, edi
  00108	e8 00 00 00 00	 call	 ?DeleteItem@CXListCtrl@@QAEHH@Z ; CXListCtrl::DeleteItem

; 332  : 	}
; 333  : 
; 334  : }

  0010d	8b 4d f4	 mov	 ecx, DWORD PTR __$EHRec$[ebp]
  00110	64 89 0d 00 00
	00 00		 mov	 DWORD PTR fs:0, ecx
  00117	59		 pop	 ecx
  00118	5f		 pop	 edi
  00119	5e		 pop	 esi
  0011a	5b		 pop	 ebx
  0011b	8b e5		 mov	 esp, ebp
  0011d	5d		 pop	 ebp
  0011e	c2 04 00	 ret	 4
_TEXT	ENDS
;	COMDAT text$x
text$x	SEGMENT
__unwindfunclet$?RemoveCode@CXListCtrlJongData@@QAEXPBD@Z$0:
  00000	8d 4d 08	 lea	 ecx, DWORD PTR _strCodeInput$2[ebp]
  00003	ff 25 00 00 00
	00		 jmp	 DWORD PTR __imp_??1?$CStringT@DV?$StrTraitMFC_DLL@DV?$ChTraitsCRT@D@ATL@@@@@ATL@@QAE@XZ
  00009	cc		 int	 3
  0000a	cc		 int	 3
  0000b	cc		 int	 3
  0000c	cc		 int	 3
  0000d	cc		 int	 3
__ehhandler$?RemoveCode@CXListCtrlJongData@@QAEXPBD@Z:
  0000e	90		 npad	 1
  0000f	90		 npad	 1
  00010	8b 54 24 08	 mov	 edx, DWORD PTR [esp+8]
  00014	8d 42 0c	 lea	 eax, DWORD PTR [edx+12]
  00017	8b 4a f0	 mov	 ecx, DWORD PTR [edx-16]
  0001a	33 c8		 xor	 ecx, eax
  0001c	e8 00 00 00 00	 call	 @__security_check_cookie@4
  00021	b8 00 00 00 00	 mov	 eax, OFFSET __ehfuncinfo$?RemoveCode@CXListCtrlJongData@@QAEXPBD@Z
  00026	e9 00 00 00 00	 jmp	 ___CxxFrameHandler3
text$x	ENDS
?RemoveCode@CXListCtrlJongData@@QAEXPBD@Z ENDP		; CXListCtrlJongData::RemoveCode
; Function compile flags: /Ogtp
; File D:\git\src\IBK\IBK_DRFN\ProjSrc\SrcDrfn\Chart\comparechart\XListCtrlJongData.cpp
; File C:\Program Files (x86)\Microsoft Visual Studio\2019\Community\VC\Tools\MSVC\14.29.30133\atlmfc\include\afxtempl.h
; File D:\git\src\IBK\IBK_DRFN\ProjSrc\SrcDrfn\Chart\comparechart\XListCtrlJongData.cpp
; File C:\Program Files (x86)\Microsoft Visual Studio\2019\Community\VC\Tools\MSVC\14.29.30133\atlmfc\include\afxtempl.h
; File D:\git\src\IBK\IBK_DRFN\ProjSrc\SrcDrfn\Chart\comparechart\XListCtrlJongData.cpp
; File C:\Program Files (x86)\Microsoft Visual Studio\2019\Community\VC\Tools\MSVC\14.29.30133\atlmfc\include\afxtempl.h
; File D:\git\src\IBK\IBK_DRFN\ProjSrc\SrcDrfn\Chart\comparechart\XListCtrlJongData.cpp
; File C:\Program Files (x86)\Microsoft Visual Studio\2019\Community\VC\Tools\MSVC\14.29.30133\atlmfc\include\afxtempl.h
; File D:\git\src\IBK\IBK_DRFN\ProjSrc\SrcDrfn\Chart\comparechart\XListCtrlJongData.cpp
; File C:\Program Files (x86)\Microsoft Visual Studio\2019\Community\VC\Tools\MSVC\14.29.30133\atlmfc\include\afxtempl.h
; File D:\git\src\IBK\IBK_DRFN\ProjSrc\SrcDrfn\Chart\comparechart\XListCtrlJongData.cpp
;	COMDAT ?UpdateCodeData@CXListCtrlJongData@@QAEHPBD0V?$CStringT@DV?$StrTraitMFC_DLL@DV?$ChTraitsCRT@D@ATL@@@@@ATL@@111DH@Z
_TEXT	SEGMENT
$T2 = -40						; size = 4
_strPriceWithComma$ = -36				; size = 4
_strChangeWithComma$ = -32				; size = 4
_strVolumeWithComma$ = -28				; size = 4
_strKeepingCnt$ = -24					; size = 4
_crText$1$ = -20					; size = 4
_nHashValue$3 = -20					; size = 4
_crBackgroundDaebi$2$ = -16				; size = 4
_nHashBucket$4 = -16					; size = 4
__$EHRec$ = -12						; size = 12
_pData$1$ = 8						; size = 4
$T5 = 8							; size = 4
_lpCode$ = 8						; size = 4
_nCnt$1$ = 12						; size = 4
_lpName$ = 12						; size = 4
_strPrice$ = 16						; size = 4
_strChange$ = 20					; size = 4
_strChgrate$ = 24					; size = 4
_strVolume$ = 28					; size = 4
_chSign$ = 32						; size = 1
$T6 = 32						; size = 4
_nIndex$ = 36						; size = 4
?UpdateCodeData@CXListCtrlJongData@@QAEHPBD0V?$CStringT@DV?$StrTraitMFC_DLL@DV?$ChTraitsCRT@D@ATL@@@@@ATL@@111DH@Z PROC ; CXListCtrlJongData::UpdateCodeData, COMDAT
; _this$ = ecx

; 575  : {

  00000	55		 push	 ebp
  00001	8b ec		 mov	 ebp, esp
  00003	6a ff		 push	 -1
  00005	68 00 00 00 00	 push	 __ehhandler$?UpdateCodeData@CXListCtrlJongData@@QAEHPBD0V?$CStringT@DV?$StrTraitMFC_DLL@DV?$ChTraitsCRT@D@ATL@@@@@ATL@@111DH@Z
  0000a	64 a1 00 00 00
	00		 mov	 eax, DWORD PTR fs:0
  00010	50		 push	 eax
  00011	83 ec 1c	 sub	 esp, 28			; 0000001cH
  00014	56		 push	 esi
  00015	57		 push	 edi
  00016	a1 00 00 00 00	 mov	 eax, DWORD PTR ___security_cookie
  0001b	33 c5		 xor	 eax, ebp
  0001d	50		 push	 eax
  0001e	8d 45 f4	 lea	 eax, DWORD PTR __$EHRec$[ebp]
  00021	64 a3 00 00 00
	00		 mov	 DWORD PTR fs:0, eax
  00027	8b f1		 mov	 esi, ecx
; File C:\Program Files (x86)\Microsoft Visual Studio\2019\Community\VC\Tools\MSVC\14.29.30133\atlmfc\include\afxtempl.h

; 1555 : 	CAssoc* pAssoc = GetAssocAt(key, nHashBucket, nHashValue);

  00029	8b 7d 08	 mov	 edi, DWORD PTR _lpCode$[ebp]
  0002c	8d 45 ec	 lea	 eax, DWORD PTR _nHashValue$3[ebp]
  0002f	50		 push	 eax
  00030	0f 57 c0	 xorps	 xmm0, xmm0
; File D:\git\src\IBK\IBK_DRFN\ProjSrc\SrcDrfn\Chart\comparechart\XListCtrlJongData.cpp

; 575  : {

  00033	c7 45 fc 03 00
	00 00		 mov	 DWORD PTR __$EHRec$[ebp+8], 3
; File C:\Program Files (x86)\Microsoft Visual Studio\2019\Community\VC\Tools\MSVC\14.29.30133\atlmfc\include\afxtempl.h

; 1555 : 	CAssoc* pAssoc = GetAssocAt(key, nHashBucket, nHashValue);

  0003a	8d 45 f0	 lea	 eax, DWORD PTR _nHashBucket$4[ebp]
; File D:\git\src\IBK\IBK_DRFN\ProjSrc\SrcDrfn\Chart\comparechart\XListCtrlJongData.cpp

; 576  : 	::ZeroMemory(m_bSortIndex,sizeof(m_bSortIndex));

  0003d	0f 11 86 bc 02
	00 00		 movups	 XMMWORD PTR [esi+700], xmm0
; File C:\Program Files (x86)\Microsoft Visual Studio\2019\Community\VC\Tools\MSVC\14.29.30133\atlmfc\include\afxtempl.h

; 1555 : 	CAssoc* pAssoc = GetAssocAt(key, nHashBucket, nHashValue);

  00044	50		 push	 eax
; File D:\git\src\IBK\IBK_DRFN\ProjSrc\SrcDrfn\Chart\comparechart\XListCtrlJongData.cpp

; 576  : 	::ZeroMemory(m_bSortIndex,sizeof(m_bSortIndex));

  00045	0f 11 86 cc 02
	00 00		 movups	 XMMWORD PTR [esi+716], xmm0
; File C:\Program Files (x86)\Microsoft Visual Studio\2019\Community\VC\Tools\MSVC\14.29.30133\atlmfc\include\afxtempl.h

; 1555 : 	CAssoc* pAssoc = GetAssocAt(key, nHashBucket, nHashValue);

  0004c	57		 push	 edi
; File D:\git\src\IBK\IBK_DRFN\ProjSrc\SrcDrfn\Chart\comparechart\XListCtrlJongData.cpp

; 579  : 	m_mapJongData.Lookup(lpCode,pData);

  0004d	8d 8e 60 02 00
	00		 lea	 ecx, DWORD PTR [esi+608]
  00053	66 0f d6 86 dc
	02 00 00	 movq	 QWORD PTR [esi+732], xmm0
; File C:\Program Files (x86)\Microsoft Visual Studio\2019\Community\VC\Tools\MSVC\14.29.30133\atlmfc\include\afxtempl.h

; 1555 : 	CAssoc* pAssoc = GetAssocAt(key, nHashBucket, nHashValue);

  0005b	e8 00 00 00 00	 call	 ?GetAssocAt@?$CMap@V?$CStringT@DV?$StrTraitMFC_DLL@DV?$ChTraitsCRT@D@ATL@@@@@ATL@@PBDPAVCJongDataInListCtrl@@PAV3@@@IBEPAVCAssoc@1@PBDAAI1@Z ; CMap<ATL::CStringT<char,StrTraitMFC_DLL<char,ATL::ChTraitsCRT<char> > >,char const *,CJongDataInListCtrl *,CJongDataInListCtrl *>::GetAssocAt

; 1556 : 	if (pAssoc == NULL)

  00060	85 c0		 test	 eax, eax
  00062	0f 84 22 03 00
	00		 je	 $LN57@UpdateCode

; 1557 : 		return FALSE;  // not in map
; 1558 : 
; 1559 : 	rValue = pAssoc->value;

  00068	8b 40 04	 mov	 eax, DWORD PTR [eax+4]
  0006b	89 45 08	 mov	 DWORD PTR _pData$1$[ebp], eax
; File D:\git\src\IBK\IBK_DRFN\ProjSrc\SrcDrfn\Chart\comparechart\XListCtrlJongData.cpp

; 580  : 	if(!pData)

  0006e	85 c0		 test	 eax, eax
  00070	0f 84 14 03 00
	00		 je	 $LN57@UpdateCode

; 583  : 		return FALSE;
; 584  : 	}
; 585  : 	nCnt = pData->m_nCurrentIndex;

  00076	8b 40 28	 mov	 eax, DWORD PTR [eax+40]

; 586  : 
; 587  : 	strPrice.Remove(' ');

  00079	8d 4d 10	 lea	 ecx, DWORD PTR _strPrice$[ebp]
  0007c	6a 20		 push	 32			; 00000020H
  0007e	89 45 0c	 mov	 DWORD PTR _nCnt$1$[ebp], eax
  00081	ff 15 00 00 00
	00		 call	 DWORD PTR __imp_?Remove@?$CStringT@DV?$StrTraitMFC_DLL@DV?$ChTraitsCRT@D@ATL@@@@@ATL@@QAEHD@Z

; 588  : 	strPrice.TrimLeft('0');

  00087	6a 30		 push	 48			; 00000030H
  00089	8d 4d 10	 lea	 ecx, DWORD PTR _strPrice$[ebp]
  0008c	ff 15 00 00 00
	00		 call	 DWORD PTR __imp_?TrimLeft@?$CStringT@DV?$StrTraitMFC_DLL@DV?$ChTraitsCRT@D@ATL@@@@@ATL@@QAEAAV12@D@Z

; 589  : 	strChange.Remove(' ');

  00092	6a 20		 push	 32			; 00000020H
  00094	8d 4d 14	 lea	 ecx, DWORD PTR _strChange$[ebp]
  00097	ff 15 00 00 00
	00		 call	 DWORD PTR __imp_?Remove@?$CStringT@DV?$StrTraitMFC_DLL@DV?$ChTraitsCRT@D@ATL@@@@@ATL@@QAEHD@Z

; 590  : 	strChgrate.Remove(' ');

  0009d	6a 20		 push	 32			; 00000020H
  0009f	8d 4d 18	 lea	 ecx, DWORD PTR _strChgrate$[ebp]
  000a2	ff 15 00 00 00
	00		 call	 DWORD PTR __imp_?Remove@?$CStringT@DV?$StrTraitMFC_DLL@DV?$ChTraitsCRT@D@ATL@@@@@ATL@@QAEHD@Z

; 591  : 	strVolume.Remove(' ');

  000a8	6a 20		 push	 32			; 00000020H
  000aa	8d 4d 1c	 lea	 ecx, DWORD PTR _strVolume$[ebp]
  000ad	ff 15 00 00 00
	00		 call	 DWORD PTR __imp_?Remove@?$CStringT@DV?$StrTraitMFC_DLL@DV?$ChTraitsCRT@D@ATL@@@@@ATL@@QAEHD@Z

; 592  : 
; 593  : /////////////
; 594  : 	COLORREF crText = RGB(0,0,0);
; 595  : 	COLORREF crBackground = RGB(255,255,255);
; 596  : 	COLORREF crBackgroundDaebi = RGB(255,255,255);
; 597  : 	COLORREF crTextDaebi = RGB(0,0,0);
; 598  : 	switch(chSign)

  000b3	8b 45 20	 mov	 eax, DWORD PTR _chSign$[ebp]
  000b6	33 ff		 xor	 edi, edi
  000b8	0f be c0	 movsx	 eax, al
  000bb	83 c0 cf	 add	 eax, -49		; ffffffcfH
  000be	c7 45 ec 00 00
	00 00		 mov	 DWORD PTR _crText$1$[ebp], 0
  000c5	c7 45 f0 ff ff
	ff 00		 mov	 DWORD PTR _crBackgroundDaebi$2$[ebp], 16777215 ; 00ffffffH
  000cc	83 f8 04	 cmp	 eax, 4
  000cf	77 44		 ja	 SHORT $LN9@UpdateCode
  000d1	ff 24 85 00 00
	00 00		 jmp	 DWORD PTR $LN58@UpdateCode[eax*4]
$LN5@UpdateCode:

; 599  : 	{
; 600  : 		case UP_LIMIT:	// UpLimit
; 601  : 			crBackgroundDaebi = RGB(255,0,0);

  000d8	c7 45 f0 ff 00
	00 00		 mov	 DWORD PTR _crBackgroundDaebi$2$[ebp], 255 ; 000000ffH

; 602  : 			crTextDaebi = RGB(255,255,255);

  000df	bf ff ff ff 00	 mov	 edi, 16777215		; 00ffffffH

; 603  : 			crText = RGB(255,0,0);

  000e4	c7 45 ec ff 00
	00 00		 mov	 DWORD PTR _crText$1$[ebp], 255 ; 000000ffH

; 604  : 			break;

  000eb	eb 28		 jmp	 SHORT $LN9@UpdateCode
$LN6@UpdateCode:

; 605  : 		case UP:	// Up
; 606  : 			crText = RGB(255,0,0);

  000ed	c7 45 ec ff 00
	00 00		 mov	 DWORD PTR _crText$1$[ebp], 255 ; 000000ffH

; 607  : 			crTextDaebi = RGB(255,0,0);

  000f4	bf ff 00 00 00	 mov	 edi, 255		; 000000ffH

; 608  : 			break;

  000f9	eb 1a		 jmp	 SHORT $LN9@UpdateCode
$LN7@UpdateCode:

; 609  : 		case DOWN_LIMIT:	// DownLimit
; 610  : 			crBackgroundDaebi = RGB(0,0,255);

  000fb	c7 45 f0 00 00
	ff 00		 mov	 DWORD PTR _crBackgroundDaebi$2$[ebp], 16711680 ; 00ff0000H

; 611  : 			crTextDaebi = RGB(255,255,255);

  00102	bf ff ff ff 00	 mov	 edi, 16777215		; 00ffffffH

; 612  : 			crText = RGB(0,0,255);
; 613  : 			break;

  00107	eb 05		 jmp	 SHORT $LN60@UpdateCode
$LN8@UpdateCode:

; 614  : 		case DOWN:	// Down	
; 615  : 			crText = RGB(0,0,255);
; 616  : 			crTextDaebi = RGB(0,0,255);

  00109	bf 00 00 ff 00	 mov	 edi, 16711680		; 00ff0000H
$LN60@UpdateCode:

; 617  : 			break;
; 618  : 		case EQUAL:	// Steady
; 619  : 			break;
; 620  : 		/* ===================== 05.05.17 comment by sy,nam
; 621  : 		case '6':
; 622  : 		case '7':
; 623  : 		case '8':
; 624  : 		case '9':
; 625  : 		case '0':
; 626  : 			break;
; 627  : 		======================= 05.05.17 comment by sy,nam*/
; 628  : 
; 629  : 	}
; 630  : 
; 631  : 	CString strPriceWithComma = SetComma(strPrice);

  0010e	c7 45 ec 00 00
	ff 00		 mov	 DWORD PTR _crText$1$[ebp], 16711680 ; 00ff0000H
$LN9@UpdateCode:
  00115	6a 00		 push	 0
  00117	51		 push	 ecx
  00118	8d 45 10	 lea	 eax, DWORD PTR _strPrice$[ebp]
  0011b	8b cc		 mov	 ecx, esp
  0011d	50		 push	 eax
  0011e	ff 15 00 00 00
	00		 call	 DWORD PTR __imp_??0?$CStringT@DV?$StrTraitMFC_DLL@DV?$ChTraitsCRT@D@ATL@@@@@ATL@@QAE@ABV01@@Z
  00124	8d 45 dc	 lea	 eax, DWORD PTR _strPriceWithComma$[ebp]
  00127	50		 push	 eax
  00128	e8 00 00 00 00	 call	 ?SetComma@@YA?AV?$CStringT@DV?$StrTraitMFC_DLL@DV?$ChTraitsCRT@D@ATL@@@@@ATL@@V12@H@Z ; SetComma
  0012d	83 c4 0c	 add	 esp, 12			; 0000000cH

; 632  : 	CString strChangeWithComma = SetComma(strChange);

  00130	6a 00		 push	 0
  00132	51		 push	 ecx
  00133	8d 45 14	 lea	 eax, DWORD PTR _strChange$[ebp]
  00136	c6 45 fc 07	 mov	 BYTE PTR __$EHRec$[ebp+8], 7
  0013a	8b cc		 mov	 ecx, esp
  0013c	50		 push	 eax
  0013d	ff 15 00 00 00
	00		 call	 DWORD PTR __imp_??0?$CStringT@DV?$StrTraitMFC_DLL@DV?$ChTraitsCRT@D@ATL@@@@@ATL@@QAE@ABV01@@Z
  00143	8d 45 e0	 lea	 eax, DWORD PTR _strChangeWithComma$[ebp]
  00146	50		 push	 eax
  00147	e8 00 00 00 00	 call	 ?SetComma@@YA?AV?$CStringT@DV?$StrTraitMFC_DLL@DV?$ChTraitsCRT@D@ATL@@@@@ATL@@V12@H@Z ; SetComma
  0014c	83 c4 0c	 add	 esp, 12			; 0000000cH

; 633  : 	CString strVolumeWithComma = SetComma(strVolume);

  0014f	6a 00		 push	 0
  00151	51		 push	 ecx
  00152	8d 45 1c	 lea	 eax, DWORD PTR _strVolume$[ebp]
  00155	c6 45 fc 08	 mov	 BYTE PTR __$EHRec$[ebp+8], 8
  00159	8b cc		 mov	 ecx, esp
  0015b	50		 push	 eax
  0015c	ff 15 00 00 00
	00		 call	 DWORD PTR __imp_??0?$CStringT@DV?$StrTraitMFC_DLL@DV?$ChTraitsCRT@D@ATL@@@@@ATL@@QAE@ABV01@@Z
  00162	8d 45 e4	 lea	 eax, DWORD PTR _strVolumeWithComma$[ebp]
  00165	50		 push	 eax
  00166	e8 00 00 00 00	 call	 ?SetComma@@YA?AV?$CStringT@DV?$StrTraitMFC_DLL@DV?$ChTraitsCRT@D@ATL@@@@@ATL@@V12@H@Z ; SetComma
  0016b	83 c4 0c	 add	 esp, 12			; 0000000cH

; 634  : 
; 635  : 	pData->m_chSign = chSign;

  0016e	8b 45 08	 mov	 eax, DWORD PTR _pData$1$[ebp]
  00171	8b 4d 20	 mov	 ecx, DWORD PTR _chSign$[ebp]
  00174	c6 45 fc 09	 mov	 BYTE PTR __$EHRec$[ebp+8], 9
  00178	88 48 18	 mov	 BYTE PTR [eax+24], cl

; 636  : 	pData->m_strPrice = strPriceWithComma;

  0017b	8d 4d dc	 lea	 ecx, DWORD PTR _strPriceWithComma$[ebp]
  0017e	51		 push	 ecx
  0017f	8d 48 08	 lea	 ecx, DWORD PTR [eax+8]
  00182	ff 15 00 00 00
	00		 call	 DWORD PTR __imp_??4?$CStringT@DV?$StrTraitMFC_DLL@DV?$ChTraitsCRT@D@ATL@@@@@ATL@@QAEAAV01@ABV01@@Z

; 637  : 	pData->m_strChange = strChangeWithComma;

  00188	8b 4d 08	 mov	 ecx, DWORD PTR _pData$1$[ebp]
  0018b	8d 45 e0	 lea	 eax, DWORD PTR _strChangeWithComma$[ebp]
  0018e	50		 push	 eax
  0018f	83 c1 0c	 add	 ecx, 12			; 0000000cH
  00192	ff 15 00 00 00
	00		 call	 DWORD PTR __imp_??4?$CStringT@DV?$StrTraitMFC_DLL@DV?$ChTraitsCRT@D@ATL@@@@@ATL@@QAEAAV01@ABV01@@Z

; 638  : 	pData->m_strChgrate = strChgrate;

  00198	8b 4d 08	 mov	 ecx, DWORD PTR _pData$1$[ebp]
  0019b	8d 45 18	 lea	 eax, DWORD PTR _strChgrate$[ebp]
  0019e	50		 push	 eax
  0019f	8d 49 10	 lea	 ecx, DWORD PTR [ecx+16]
  001a2	ff 15 00 00 00
	00		 call	 DWORD PTR __imp_??4?$CStringT@DV?$StrTraitMFC_DLL@DV?$ChTraitsCRT@D@ATL@@@@@ATL@@QAEAAV01@ABV01@@Z

; 639  : 	pData->m_strVolume = strVolumeWithComma;

  001a8	8b 4d 08	 mov	 ecx, DWORD PTR _pData$1$[ebp]
  001ab	8d 45 e4	 lea	 eax, DWORD PTR _strVolumeWithComma$[ebp]
  001ae	50		 push	 eax
  001af	8d 49 14	 lea	 ecx, DWORD PTR [ecx+20]
  001b2	ff 15 00 00 00
	00		 call	 DWORD PTR __imp_??4?$CStringT@DV?$StrTraitMFC_DLL@DV?$ChTraitsCRT@D@ATL@@@@@ATL@@QAEAAV01@ABV01@@Z

; 640  : 	pData->m_lKeepingCnt++;

  001b8	8b 45 08	 mov	 eax, DWORD PTR _pData$1$[ebp]

; 641  : 	pData->m_bKeeping = TRUE;
; 642  : 	CString strKeepingCnt;

  001bb	8d 4d e8	 lea	 ecx, DWORD PTR _strKeepingCnt$[ebp]
  001be	ff 40 24	 inc	 DWORD PTR [eax+36]
  001c1	c7 40 2c 01 00
	00 00		 mov	 DWORD PTR [eax+44], 1
  001c8	ff 15 00 00 00
	00		 call	 DWORD PTR __imp_??0?$CStringT@DV?$StrTraitMFC_DLL@DV?$ChTraitsCRT@D@ATL@@@@@ATL@@QAE@XZ

; 643  : 	strKeepingCnt.Format("%d",pData->m_lKeepingCnt);

  001ce	8b 45 08	 mov	 eax, DWORD PTR _pData$1$[ebp]
  001d1	c6 45 fc 0a	 mov	 BYTE PTR __$EHRec$[ebp+8], 10 ; 0000000aH
  001d5	ff 70 24	 push	 DWORD PTR [eax+36]
  001d8	8d 45 e8	 lea	 eax, DWORD PTR _strKeepingCnt$[ebp]
  001db	68 00 00 00 00	 push	 OFFSET ??_C@_02DPKJAMEF@?$CFd@
  001e0	50		 push	 eax
  001e1	ff 15 00 00 00
	00		 call	 DWORD PTR __imp_?Format@?$CStringT@DV?$StrTraitMFC_DLL@DV?$ChTraitsCRT@D@ATL@@@@@ATL@@QAAXPBDZZ

; 644  : 
; 645  : 	if(nCnt%2)

  001e7	8b 45 0c	 mov	 eax, DWORD PTR _nCnt$1$[ebp]
  001ea	83 c4 0c	 add	 esp, 12			; 0000000cH
  001ed	6a 01		 push	 1
  001ef	a8 01		 test	 al, 1
  001f1	0f 84 a1 00 00
	00		 je	 $LN10@UpdateCode

; 646  : 	{
; 647  : 		SetCheckbox(nCnt,m_lIndexOfCheck,pData->m_bCheck);

  001f7	8b 4d 08	 mov	 ecx, DWORD PTR _pData$1$[ebp]
  001fa	ff 71 20	 push	 DWORD PTR [ecx+32]
  001fd	8b ce		 mov	 ecx, esi
  001ff	ff b6 38 03 00
	00		 push	 DWORD PTR [esi+824]
  00205	50		 push	 eax
  00206	e8 00 00 00 00	 call	 ?SetCheckbox@CXListCtrl@@QAEHHHHH@Z ; CXListCtrl::SetCheckbox

; 648  : 		SetItemText(nCnt,m_lIndexOfKeepingCnt,strKeepingCnt);

  0020b	ff 75 e8	 push	 DWORD PTR _strKeepingCnt$[ebp]
  0020e	8b ce		 mov	 ecx, esi
  00210	ff b6 3c 03 00
	00		 push	 DWORD PTR [esi+828]
  00216	ff 75 0c	 push	 DWORD PTR _nCnt$1$[ebp]
  00219	e8 00 00 00 00	 call	 ?SetItemText@CXListCtrl@@QAEHHHPBD@Z ; CXListCtrl::SetItemText

; 649  : 		SetItemText(nCnt,m_lIndexOfPrice,strPriceWithComma,crText,crBackground);

  0021e	6a 01		 push	 1
  00220	68 ff ff ff 00	 push	 16777215		; 00ffffffH
  00225	ff 75 ec	 push	 DWORD PTR _crText$1$[ebp]
  00228	8b ce		 mov	 ecx, esi
  0022a	ff 75 dc	 push	 DWORD PTR _strPriceWithComma$[ebp]
  0022d	ff b6 44 03 00
	00		 push	 DWORD PTR [esi+836]
  00233	ff 75 0c	 push	 DWORD PTR _nCnt$1$[ebp]
  00236	e8 00 00 00 00	 call	 ?SetItemText@CXListCtrl@@QAEHHHPBDKKH@Z ; CXListCtrl::SetItemText

; 650  : 		SetItemText(nCnt,m_lIndexOfChange,strChangeWithComma,crTextDaebi,crBackgroundDaebi);

  0023b	6a 01		 push	 1
  0023d	ff 75 f0	 push	 DWORD PTR _crBackgroundDaebi$2$[ebp]
  00240	8b ce		 mov	 ecx, esi
  00242	57		 push	 edi
  00243	ff 75 e0	 push	 DWORD PTR _strChangeWithComma$[ebp]
  00246	ff b6 48 03 00
	00		 push	 DWORD PTR [esi+840]
  0024c	ff 75 0c	 push	 DWORD PTR _nCnt$1$[ebp]
  0024f	e8 00 00 00 00	 call	 ?SetItemText@CXListCtrl@@QAEHHHPBDKKH@Z ; CXListCtrl::SetItemText

; 651  : 		SetItemText(nCnt,m_lIndexOfChgrate,strChgrate,crTextDaebi,crBackgroundDaebi);

  00254	6a 01		 push	 1
  00256	ff 75 f0	 push	 DWORD PTR _crBackgroundDaebi$2$[ebp]
  00259	8b ce		 mov	 ecx, esi
  0025b	57		 push	 edi
  0025c	ff 75 18	 push	 DWORD PTR _strChgrate$[ebp]
  0025f	8b 7d 0c	 mov	 edi, DWORD PTR _nCnt$1$[ebp]
  00262	ff b6 4c 03 00
	00		 push	 DWORD PTR [esi+844]
  00268	57		 push	 edi
  00269	e8 00 00 00 00	 call	 ?SetItemText@CXListCtrl@@QAEHHHPBDKKH@Z ; CXListCtrl::SetItemText

; 652  : 		SetItemText(nCnt,m_lIndexOfVolume,strVolumeWithComma);			

  0026e	ff 75 e4	 push	 DWORD PTR _strVolumeWithComma$[ebp]
  00271	8b ce		 mov	 ecx, esi
  00273	ff b6 50 03 00
	00		 push	 DWORD PTR [esi+848]
  00279	57		 push	 edi
  0027a	e8 00 00 00 00	 call	 ?SetItemText@CXListCtrl@@QAEHHHPBD@Z ; CXListCtrl::SetItemText

; 653  : 		SetItemText(nCnt,m_lIndexOfTime,pData->m_strInsertedTime);		

  0027f	8b 45 08	 mov	 eax, DWORD PTR _pData$1$[ebp]
  00282	8b ce		 mov	 ecx, esi
  00284	ff 70 30	 push	 DWORD PTR [eax+48]
  00287	ff b6 54 03 00
	00		 push	 DWORD PTR [esi+852]
  0028d	57		 push	 edi
  0028e	e8 00 00 00 00	 call	 ?SetItemText@CXListCtrl@@QAEHHHPBD@Z ; CXListCtrl::SetItemText

; 654  : 	}

  00293	e9 c7 00 00 00	 jmp	 $LN11@UpdateCode
$LN10@UpdateCode:

; 655  : 	else
; 656  : 	{
; 657  : 		if(crBackgroundDaebi==RGB(255,255,255))

  00298	8b 4d f0	 mov	 ecx, DWORD PTR _crBackgroundDaebi$2$[ebp]
  0029b	ba ff ff ff 00	 mov	 edx, 16777215		; 00ffffffH
  002a0	3b ca		 cmp	 ecx, edx
  002a2	0f 44 ca	 cmove	 ecx, edx
  002a5	89 4d f0	 mov	 DWORD PTR _crBackgroundDaebi$2$[ebp], ecx

; 658  : 		{
; 659  : 			crBackgroundDaebi = CRGRID;
; 660  : 		}
; 661  : 		SetCheckbox(nCnt,m_lIndexOfCheck,pData->m_bCheck);

  002a8	8b 4d 08	 mov	 ecx, DWORD PTR _pData$1$[ebp]
  002ab	ff 71 20	 push	 DWORD PTR [ecx+32]
  002ae	8b ce		 mov	 ecx, esi
  002b0	ff b6 38 03 00
	00		 push	 DWORD PTR [esi+824]
  002b6	50		 push	 eax
  002b7	e8 00 00 00 00	 call	 ?SetCheckbox@CXListCtrl@@QAEHHHHH@Z ; CXListCtrl::SetCheckbox

; 662  : 		SetItemText(nCnt,m_lIndexOfKeepingCnt,strKeepingCnt,RGB(0,0,0),CRGRID);

  002bc	6a 01		 push	 1
  002be	68 ff ff ff 00	 push	 16777215		; 00ffffffH
  002c3	6a 00		 push	 0
  002c5	ff 75 e8	 push	 DWORD PTR _strKeepingCnt$[ebp]
  002c8	8b ce		 mov	 ecx, esi
  002ca	ff b6 3c 03 00
	00		 push	 DWORD PTR [esi+828]
  002d0	ff 75 0c	 push	 DWORD PTR _nCnt$1$[ebp]
  002d3	e8 00 00 00 00	 call	 ?SetItemText@CXListCtrl@@QAEHHHPBDKKH@Z ; CXListCtrl::SetItemText

; 663  : 		SetItemText(nCnt,m_lIndexOfPrice,strPriceWithComma,crText,CRGRID);

  002d8	6a 01		 push	 1
  002da	68 ff ff ff 00	 push	 16777215		; 00ffffffH
  002df	ff 75 ec	 push	 DWORD PTR _crText$1$[ebp]
  002e2	8b ce		 mov	 ecx, esi
  002e4	ff 75 dc	 push	 DWORD PTR _strPriceWithComma$[ebp]
  002e7	ff b6 44 03 00
	00		 push	 DWORD PTR [esi+836]
  002ed	ff 75 0c	 push	 DWORD PTR _nCnt$1$[ebp]
  002f0	e8 00 00 00 00	 call	 ?SetItemText@CXListCtrl@@QAEHHHPBDKKH@Z ; CXListCtrl::SetItemText

; 664  : 		SetItemText(nCnt,m_lIndexOfChange,strChangeWithComma,crTextDaebi,crBackgroundDaebi);

  002f5	6a 01		 push	 1
  002f7	ff 75 f0	 push	 DWORD PTR _crBackgroundDaebi$2$[ebp]
  002fa	8b ce		 mov	 ecx, esi
  002fc	57		 push	 edi
  002fd	ff 75 e0	 push	 DWORD PTR _strChangeWithComma$[ebp]
  00300	ff b6 48 03 00
	00		 push	 DWORD PTR [esi+840]
  00306	ff 75 0c	 push	 DWORD PTR _nCnt$1$[ebp]
  00309	e8 00 00 00 00	 call	 ?SetItemText@CXListCtrl@@QAEHHHPBDKKH@Z ; CXListCtrl::SetItemText

; 665  : 		SetItemText(nCnt,m_lIndexOfChgrate,strChgrate,crTextDaebi,crBackgroundDaebi);

  0030e	6a 01		 push	 1
  00310	ff 75 f0	 push	 DWORD PTR _crBackgroundDaebi$2$[ebp]
  00313	8b ce		 mov	 ecx, esi
  00315	57		 push	 edi
  00316	ff 75 18	 push	 DWORD PTR _strChgrate$[ebp]
  00319	8b 7d 0c	 mov	 edi, DWORD PTR _nCnt$1$[ebp]
  0031c	ff b6 4c 03 00
	00		 push	 DWORD PTR [esi+844]
  00322	57		 push	 edi
  00323	e8 00 00 00 00	 call	 ?SetItemText@CXListCtrl@@QAEHHHPBDKKH@Z ; CXListCtrl::SetItemText

; 666  : 		SetItemText(nCnt,m_lIndexOfVolume,strVolumeWithComma,RGB(0,0,0),CRGRID);

  00328	6a 01		 push	 1
  0032a	68 ff ff ff 00	 push	 16777215		; 00ffffffH
  0032f	6a 00		 push	 0
  00331	ff 75 e4	 push	 DWORD PTR _strVolumeWithComma$[ebp]
  00334	8b ce		 mov	 ecx, esi
  00336	ff b6 50 03 00
	00		 push	 DWORD PTR [esi+848]
  0033c	57		 push	 edi
  0033d	e8 00 00 00 00	 call	 ?SetItemText@CXListCtrl@@QAEHHHPBDKKH@Z ; CXListCtrl::SetItemText

; 667  : 		SetItemText(nCnt,m_lIndexOfTime,pData->m_strInsertedTime,RGB(0,0,0),CRGRID);

  00342	8b 45 08	 mov	 eax, DWORD PTR _pData$1$[ebp]
  00345	8b ce		 mov	 ecx, esi
  00347	6a 01		 push	 1
  00349	68 ff ff ff 00	 push	 16777215		; 00ffffffH
  0034e	6a 00		 push	 0
  00350	ff 70 30	 push	 DWORD PTR [eax+48]
  00353	ff b6 54 03 00
	00		 push	 DWORD PTR [esi+852]
  00359	57		 push	 edi
  0035a	e8 00 00 00 00	 call	 ?SetItemText@CXListCtrl@@QAEHHHPBDKKH@Z ; CXListCtrl::SetItemText
$LN11@UpdateCode:

; 668  : 	}	
; 669  : 	return TRUE;

  0035f	8d 4d e8	 lea	 ecx, DWORD PTR _strKeepingCnt$[ebp]
  00362	be 01 00 00 00	 mov	 esi, 1
  00367	ff 15 00 00 00
	00		 call	 DWORD PTR __imp_??1?$CStringT@DV?$StrTraitMFC_DLL@DV?$ChTraitsCRT@D@ATL@@@@@ATL@@QAE@XZ
  0036d	8d 4d e4	 lea	 ecx, DWORD PTR _strVolumeWithComma$[ebp]
  00370	ff 15 00 00 00
	00		 call	 DWORD PTR __imp_??1?$CStringT@DV?$StrTraitMFC_DLL@DV?$ChTraitsCRT@D@ATL@@@@@ATL@@QAE@XZ
  00376	8d 4d e0	 lea	 ecx, DWORD PTR _strChangeWithComma$[ebp]
  00379	ff 15 00 00 00
	00		 call	 DWORD PTR __imp_??1?$CStringT@DV?$StrTraitMFC_DLL@DV?$ChTraitsCRT@D@ATL@@@@@ATL@@QAE@XZ
  0037f	8d 4d dc	 lea	 ecx, DWORD PTR _strPriceWithComma$[ebp]
  00382	ff 15 00 00 00
	00		 call	 DWORD PTR __imp_??1?$CStringT@DV?$StrTraitMFC_DLL@DV?$ChTraitsCRT@D@ATL@@@@@ATL@@QAE@XZ
  00388	eb 5f		 jmp	 SHORT $LN29@UpdateCode
$LN57@UpdateCode:

; 581  : 	{
; 582  : 		InsertCodeData(lpCode,lpName,strPrice,strChange,strChgrate,strVolume,chSign,TRUE);

  0038a	6a 01		 push	 1
  0038c	ff 75 20	 push	 DWORD PTR _chSign$[ebp]
  0038f	8d 45 1c	 lea	 eax, DWORD PTR _strVolume$[ebp]
  00392	51		 push	 ecx
  00393	8b cc		 mov	 ecx, esp
  00395	89 65 20	 mov	 DWORD PTR $T6[ebp], esp
  00398	50		 push	 eax
  00399	ff 15 00 00 00
	00		 call	 DWORD PTR __imp_??0?$CStringT@DV?$StrTraitMFC_DLL@DV?$ChTraitsCRT@D@ATL@@@@@ATL@@QAE@ABV01@@Z
  0039f	51		 push	 ecx
  003a0	8d 45 18	 lea	 eax, DWORD PTR _strChgrate$[ebp]
  003a3	89 65 08	 mov	 DWORD PTR $T5[ebp], esp
  003a6	8b cc		 mov	 ecx, esp
  003a8	c6 45 fc 04	 mov	 BYTE PTR __$EHRec$[ebp+8], 4
  003ac	50		 push	 eax
  003ad	ff 15 00 00 00
	00		 call	 DWORD PTR __imp_??0?$CStringT@DV?$StrTraitMFC_DLL@DV?$ChTraitsCRT@D@ATL@@@@@ATL@@QAE@ABV01@@Z
  003b3	51		 push	 ecx
  003b4	8d 45 14	 lea	 eax, DWORD PTR _strChange$[ebp]
  003b7	89 65 d8	 mov	 DWORD PTR $T2[ebp], esp
  003ba	8b cc		 mov	 ecx, esp
  003bc	c6 45 fc 05	 mov	 BYTE PTR __$EHRec$[ebp+8], 5
  003c0	50		 push	 eax
  003c1	ff 15 00 00 00
	00		 call	 DWORD PTR __imp_??0?$CStringT@DV?$StrTraitMFC_DLL@DV?$ChTraitsCRT@D@ATL@@@@@ATL@@QAE@ABV01@@Z
  003c7	51		 push	 ecx
  003c8	8d 45 10	 lea	 eax, DWORD PTR _strPrice$[ebp]
  003cb	c6 45 fc 06	 mov	 BYTE PTR __$EHRec$[ebp+8], 6
  003cf	8b cc		 mov	 ecx, esp
  003d1	50		 push	 eax
  003d2	ff 15 00 00 00
	00		 call	 DWORD PTR __imp_??0?$CStringT@DV?$StrTraitMFC_DLL@DV?$ChTraitsCRT@D@ATL@@@@@ATL@@QAE@ABV01@@Z
  003d8	ff 75 0c	 push	 DWORD PTR _lpName$[ebp]
  003db	8b ce		 mov	 ecx, esi
  003dd	c6 45 fc 03	 mov	 BYTE PTR __$EHRec$[ebp+8], 3
  003e1	57		 push	 edi
  003e2	e8 00 00 00 00	 call	 ?InsertCodeData@CXListCtrlJongData@@QAEXPBD0V?$CStringT@DV?$StrTraitMFC_DLL@DV?$ChTraitsCRT@D@ATL@@@@@ATL@@111DH@Z ; CXListCtrlJongData::InsertCodeData
  003e7	33 f6		 xor	 esi, esi
$LN29@UpdateCode:

; 668  : 	}	
; 669  : 	return TRUE;

  003e9	8d 4d 10	 lea	 ecx, DWORD PTR _strPrice$[ebp]
  003ec	ff 15 00 00 00
	00		 call	 DWORD PTR __imp_??1?$CStringT@DV?$StrTraitMFC_DLL@DV?$ChTraitsCRT@D@ATL@@@@@ATL@@QAE@XZ
  003f2	8d 4d 14	 lea	 ecx, DWORD PTR _strChange$[ebp]
  003f5	ff 15 00 00 00
	00		 call	 DWORD PTR __imp_??1?$CStringT@DV?$StrTraitMFC_DLL@DV?$ChTraitsCRT@D@ATL@@@@@ATL@@QAE@XZ
  003fb	8d 4d 18	 lea	 ecx, DWORD PTR _strChgrate$[ebp]
  003fe	ff 15 00 00 00
	00		 call	 DWORD PTR __imp_??1?$CStringT@DV?$StrTraitMFC_DLL@DV?$ChTraitsCRT@D@ATL@@@@@ATL@@QAE@XZ
  00404	8d 4d 1c	 lea	 ecx, DWORD PTR _strVolume$[ebp]
  00407	ff 15 00 00 00
	00		 call	 DWORD PTR __imp_??1?$CStringT@DV?$StrTraitMFC_DLL@DV?$ChTraitsCRT@D@ATL@@@@@ATL@@QAE@XZ
  0040d	8b c6		 mov	 eax, esi

; 670  : }

  0040f	8b 4d f4	 mov	 ecx, DWORD PTR __$EHRec$[ebp]
  00412	64 89 0d 00 00
	00 00		 mov	 DWORD PTR fs:0, ecx
  00419	59		 pop	 ecx
  0041a	5f		 pop	 edi
  0041b	5e		 pop	 esi
  0041c	8b e5		 mov	 esp, ebp
  0041e	5d		 pop	 ebp
  0041f	c2 20 00	 ret	 32			; 00000020H
  00422	66 90		 npad	 2
$LN58@UpdateCode:
  00424	00 00 00 00	 DD	 $LN5@UpdateCode
  00428	00 00 00 00	 DD	 $LN6@UpdateCode
  0042c	00 00 00 00	 DD	 $LN9@UpdateCode
  00430	00 00 00 00	 DD	 $LN7@UpdateCode
  00434	00 00 00 00	 DD	 $LN8@UpdateCode
_TEXT	ENDS
;	COMDAT text$x
text$x	SEGMENT
__unwindfunclet$?UpdateCodeData@CXListCtrlJongData@@QAEHPBD0V?$CStringT@DV?$StrTraitMFC_DLL@DV?$ChTraitsCRT@D@ATL@@@@@ATL@@111DH@Z$0:
  00000	8d 4d 1c	 lea	 ecx, DWORD PTR _strVolume$[ebp]
  00003	ff 25 00 00 00
	00		 jmp	 DWORD PTR __imp_??1?$CStringT@DV?$StrTraitMFC_DLL@DV?$ChTraitsCRT@D@ATL@@@@@ATL@@QAE@XZ
__unwindfunclet$?UpdateCodeData@CXListCtrlJongData@@QAEHPBD0V?$CStringT@DV?$StrTraitMFC_DLL@DV?$ChTraitsCRT@D@ATL@@@@@ATL@@111DH@Z$1:
  00009	8d 4d 18	 lea	 ecx, DWORD PTR _strChgrate$[ebp]
  0000c	ff 25 00 00 00
	00		 jmp	 DWORD PTR __imp_??1?$CStringT@DV?$StrTraitMFC_DLL@DV?$ChTraitsCRT@D@ATL@@@@@ATL@@QAE@XZ
__unwindfunclet$?UpdateCodeData@CXListCtrlJongData@@QAEHPBD0V?$CStringT@DV?$StrTraitMFC_DLL@DV?$ChTraitsCRT@D@ATL@@@@@ATL@@111DH@Z$2:
  00012	8d 4d 14	 lea	 ecx, DWORD PTR _strChange$[ebp]
  00015	ff 25 00 00 00
	00		 jmp	 DWORD PTR __imp_??1?$CStringT@DV?$StrTraitMFC_DLL@DV?$ChTraitsCRT@D@ATL@@@@@ATL@@QAE@XZ
__unwindfunclet$?UpdateCodeData@CXListCtrlJongData@@QAEHPBD0V?$CStringT@DV?$StrTraitMFC_DLL@DV?$ChTraitsCRT@D@ATL@@@@@ATL@@111DH@Z$3:
  0001b	8d 4d 10	 lea	 ecx, DWORD PTR _strPrice$[ebp]
  0001e	ff 25 00 00 00
	00		 jmp	 DWORD PTR __imp_??1?$CStringT@DV?$StrTraitMFC_DLL@DV?$ChTraitsCRT@D@ATL@@@@@ATL@@QAE@XZ
__unwindfunclet$?UpdateCodeData@CXListCtrlJongData@@QAEHPBD0V?$CStringT@DV?$StrTraitMFC_DLL@DV?$ChTraitsCRT@D@ATL@@@@@ATL@@111DH@Z$9:
  00024	8d 4d dc	 lea	 ecx, DWORD PTR _strPriceWithComma$[ebp]
  00027	ff 25 00 00 00
	00		 jmp	 DWORD PTR __imp_??1?$CStringT@DV?$StrTraitMFC_DLL@DV?$ChTraitsCRT@D@ATL@@@@@ATL@@QAE@XZ
__unwindfunclet$?UpdateCodeData@CXListCtrlJongData@@QAEHPBD0V?$CStringT@DV?$StrTraitMFC_DLL@DV?$ChTraitsCRT@D@ATL@@@@@ATL@@111DH@Z$11:
  0002d	8d 4d e0	 lea	 ecx, DWORD PTR _strChangeWithComma$[ebp]
  00030	ff 25 00 00 00
	00		 jmp	 DWORD PTR __imp_??1?$CStringT@DV?$StrTraitMFC_DLL@DV?$ChTraitsCRT@D@ATL@@@@@ATL@@QAE@XZ
__unwindfunclet$?UpdateCodeData@CXListCtrlJongData@@QAEHPBD0V?$CStringT@DV?$StrTraitMFC_DLL@DV?$ChTraitsCRT@D@ATL@@@@@ATL@@111DH@Z$13:
  00036	8d 4d e4	 lea	 ecx, DWORD PTR _strVolumeWithComma$[ebp]
  00039	ff 25 00 00 00
	00		 jmp	 DWORD PTR __imp_??1?$CStringT@DV?$StrTraitMFC_DLL@DV?$ChTraitsCRT@D@ATL@@@@@ATL@@QAE@XZ
__unwindfunclet$?UpdateCodeData@CXListCtrlJongData@@QAEHPBD0V?$CStringT@DV?$StrTraitMFC_DLL@DV?$ChTraitsCRT@D@ATL@@@@@ATL@@111DH@Z$14:
  0003f	8d 4d e8	 lea	 ecx, DWORD PTR _strKeepingCnt$[ebp]
  00042	ff 25 00 00 00
	00		 jmp	 DWORD PTR __imp_??1?$CStringT@DV?$StrTraitMFC_DLL@DV?$ChTraitsCRT@D@ATL@@@@@ATL@@QAE@XZ
__unwindfunclet$?UpdateCodeData@CXListCtrlJongData@@QAEHPBD0V?$CStringT@DV?$StrTraitMFC_DLL@DV?$ChTraitsCRT@D@ATL@@@@@ATL@@111DH@Z$4:
  00048	8b 4d 20	 mov	 ecx, DWORD PTR $T6[ebp]
  0004b	ff 25 00 00 00
	00		 jmp	 DWORD PTR __imp_??1?$CStringT@DV?$StrTraitMFC_DLL@DV?$ChTraitsCRT@D@ATL@@@@@ATL@@QAE@XZ
__unwindfunclet$?UpdateCodeData@CXListCtrlJongData@@QAEHPBD0V?$CStringT@DV?$StrTraitMFC_DLL@DV?$ChTraitsCRT@D@ATL@@@@@ATL@@111DH@Z$5:
  00051	8b 4d 08	 mov	 ecx, DWORD PTR $T5[ebp]
  00054	ff 25 00 00 00
	00		 jmp	 DWORD PTR __imp_??1?$CStringT@DV?$StrTraitMFC_DLL@DV?$ChTraitsCRT@D@ATL@@@@@ATL@@QAE@XZ
__unwindfunclet$?UpdateCodeData@CXListCtrlJongData@@QAEHPBD0V?$CStringT@DV?$StrTraitMFC_DLL@DV?$ChTraitsCRT@D@ATL@@@@@ATL@@111DH@Z$6:
  0005a	8b 4d d8	 mov	 ecx, DWORD PTR $T2[ebp]
  0005d	ff 25 00 00 00
	00		 jmp	 DWORD PTR __imp_??1?$CStringT@DV?$StrTraitMFC_DLL@DV?$ChTraitsCRT@D@ATL@@@@@ATL@@QAE@XZ
  00063	cc		 int	 3
  00064	cc		 int	 3
  00065	cc		 int	 3
  00066	cc		 int	 3
  00067	cc		 int	 3
__ehhandler$?UpdateCodeData@CXListCtrlJongData@@QAEHPBD0V?$CStringT@DV?$StrTraitMFC_DLL@DV?$ChTraitsCRT@D@ATL@@@@@ATL@@111DH@Z:
  00068	90		 npad	 1
  00069	90		 npad	 1
  0006a	8b 54 24 08	 mov	 edx, DWORD PTR [esp+8]
  0006e	8d 42 0c	 lea	 eax, DWORD PTR [edx+12]
  00071	8b 4a d8	 mov	 ecx, DWORD PTR [edx-40]
  00074	33 c8		 xor	 ecx, eax
  00076	e8 00 00 00 00	 call	 @__security_check_cookie@4
  0007b	b8 00 00 00 00	 mov	 eax, OFFSET __ehfuncinfo$?UpdateCodeData@CXListCtrlJongData@@QAEHPBD0V?$CStringT@DV?$StrTraitMFC_DLL@DV?$ChTraitsCRT@D@ATL@@@@@ATL@@111DH@Z
  00080	e9 00 00 00 00	 jmp	 ___CxxFrameHandler3
text$x	ENDS
?UpdateCodeData@CXListCtrlJongData@@QAEHPBD0V?$CStringT@DV?$StrTraitMFC_DLL@DV?$ChTraitsCRT@D@ATL@@@@@ATL@@111DH@Z ENDP ; CXListCtrlJongData::UpdateCodeData
; Function compile flags: /Ogtp
; File D:\git\src\IBK\IBK_DRFN\ProjSrc\SrcDrfn\Chart\comparechart\XListCtrlJongData.cpp
; File C:\Program Files (x86)\Microsoft Visual Studio\2019\Community\VC\Tools\MSVC\14.29.30133\atlmfc\include\afxcmn.inl
; File D:\git\src\IBK\IBK_DRFN\ProjSrc\SrcDrfn\Chart\comparechart\XListCtrlJongData.cpp
; File C:\Program Files (x86)\Microsoft Visual Studio\2019\Community\VC\Tools\MSVC\14.29.30133\atlmfc\include\afxcmn.inl
; File D:\git\src\IBK\IBK_DRFN\ProjSrc\SrcDrfn\Chart\comparechart\XListCtrlJongData.cpp
; File C:\Program Files (x86)\Microsoft Visual Studio\2019\Community\VC\Tools\MSVC\14.29.30133\atlmfc\include\atltime.h
; File D:\git\src\IBK\IBK_DRFN\ProjSrc\SrcDrfn\Chart\comparechart\XListCtrlJongData.cpp
; File C:\Program Files (x86)\Microsoft Visual Studio\2019\Community\VC\Tools\MSVC\14.29.30133\atlmfc\include\atltime.h
; File D:\git\src\IBK\IBK_DRFN\ProjSrc\SrcDrfn\Chart\comparechart\XListCtrlJongData.cpp
; File C:\Program Files (x86)\Microsoft Visual Studio\2019\Community\VC\Tools\MSVC\14.29.30133\atlmfc\include\atltime.h
; File D:\git\src\IBK\IBK_DRFN\ProjSrc\SrcDrfn\Chart\comparechart\XListCtrlJongData.cpp
; File C:\Program Files (x86)\Microsoft Visual Studio\2019\Community\VC\Tools\MSVC\14.29.30133\atlmfc\include\atltime.h
; File D:\git\src\IBK\IBK_DRFN\ProjSrc\SrcDrfn\Chart\comparechart\XListCtrlJongData.cpp
; File D:\git\src\IBK\IBK_DRFN\ProjSrc\SrcDrfn\Chart\comparechart\XListCtrlJongData.h
; File D:\git\src\IBK\IBK_DRFN\ProjSrc\SrcDrfn\Chart\comparechart\XListCtrlJongData.cpp
;	COMDAT ?InsertCodeData@CXListCtrlJongData@@QAEXPBD0V?$CStringT@DV?$StrTraitMFC_DLL@DV?$ChTraitsCRT@D@ATL@@@@@ATL@@111DH@Z
_TEXT	SEGMENT
_tm$ = -180						; size = 8
_this$GSCopy$1$ = -172					; size = 4
$T2 = -172						; size = 4
_lpCode$GSCopy$1$ = -168				; size = 4
_strPriceWithComma$ = -164				; size = 4
_strChangeWithComma$ = -160				; size = 4
_strVolumeWithComma$ = -156				; size = 4
_strKeepingCnt$ = -152					; size = 4
_strTime$ = -148					; size = 4
_crTextDaebi$1$ = -144					; size = 4
_crText$1$ = -140					; size = 4
_nCnt$1$ = -136						; size = 4
_strName$ = -132					; size = 4
_crBackgroundDaebi$2$ = -128				; size = 4
_ptmTemp$3 = -124					; size = 36
_ptmTemp$4 = -88					; size = 36
_ptmTemp$5 = -52					; size = 36
__$ArrayPad$ = -16					; size = 4
__$EHRec$ = -12						; size = 12
_lpCode$ = 8						; size = 4
_lpName$ = 12						; size = 4
_strPrice$ = 16						; size = 4
_strChange$ = 20					; size = 4
_strChgrate$ = 24					; size = 4
_strVolume$ = 28					; size = 4
_chSign$ = 32						; size = 1
_bKeeping$ = 36						; size = 4
?InsertCodeData@CXListCtrlJongData@@QAEXPBD0V?$CStringT@DV?$StrTraitMFC_DLL@DV?$ChTraitsCRT@D@ATL@@@@@ATL@@111DH@Z PROC ; CXListCtrlJongData::InsertCodeData, COMDAT
; _this$ = ecx

; 206  : {

  00000	55		 push	 ebp
  00001	8b ec		 mov	 ebp, esp
  00003	6a ff		 push	 -1
  00005	68 00 00 00 00	 push	 __ehhandler$?InsertCodeData@CXListCtrlJongData@@QAEXPBD0V?$CStringT@DV?$StrTraitMFC_DLL@DV?$ChTraitsCRT@D@ATL@@@@@ATL@@111DH@Z
  0000a	64 a1 00 00 00
	00		 mov	 eax, DWORD PTR fs:0
  00010	50		 push	 eax
  00011	81 ec a8 00 00
	00		 sub	 esp, 168		; 000000a8H
  00017	a1 00 00 00 00	 mov	 eax, DWORD PTR ___security_cookie
  0001c	33 c5		 xor	 eax, ebp
  0001e	89 45 f0	 mov	 DWORD PTR __$ArrayPad$[ebp], eax
  00021	53		 push	 ebx
  00022	56		 push	 esi
  00023	57		 push	 edi
  00024	50		 push	 eax
  00025	8d 45 f4	 lea	 eax, DWORD PTR __$EHRec$[ebp]
  00028	64 a3 00 00 00
	00		 mov	 DWORD PTR fs:0, eax
  0002e	8b d9		 mov	 ebx, ecx
  00030	89 9d 54 ff ff
	ff		 mov	 DWORD PTR _this$GSCopy$1$[ebp], ebx
  00036	8b 45 08	 mov	 eax, DWORD PTR _lpCode$[ebp]
  00039	89 85 58 ff ff
	ff		 mov	 DWORD PTR _lpCode$GSCopy$1$[ebp], eax
  0003f	8b 45 0c	 mov	 eax, DWORD PTR _lpName$[ebp]

; 207  : 	CString strName = lpName;

  00042	50		 push	 eax
  00043	8d 8d 7c ff ff
	ff		 lea	 ecx, DWORD PTR _strName$[ebp]
  00049	c7 45 fc 03 00
	00 00		 mov	 DWORD PTR __$EHRec$[ebp+8], 3
  00050	ff 15 00 00 00
	00		 call	 DWORD PTR __imp_??0?$CStringT@DV?$StrTraitMFC_DLL@DV?$ChTraitsCRT@D@ATL@@@@@ATL@@QAE@PBD@Z

; 208  : 	strName.TrimRight();

  00056	8d 8d 7c ff ff
	ff		 lea	 ecx, DWORD PTR _strName$[ebp]
  0005c	c6 45 fc 04	 mov	 BYTE PTR __$EHRec$[ebp+8], 4
  00060	ff 15 00 00 00
	00		 call	 DWORD PTR __imp_?TrimRight@?$CStringT@DV?$StrTraitMFC_DLL@DV?$ChTraitsCRT@D@ATL@@@@@ATL@@QAEAAV12@XZ

; 209  : 	strPrice.Remove(' ');

  00066	6a 20		 push	 32			; 00000020H
  00068	8d 4d 10	 lea	 ecx, DWORD PTR _strPrice$[ebp]
  0006b	ff 15 00 00 00
	00		 call	 DWORD PTR __imp_?Remove@?$CStringT@DV?$StrTraitMFC_DLL@DV?$ChTraitsCRT@D@ATL@@@@@ATL@@QAEHD@Z

; 210  : 	strPrice.TrimLeft('0');

  00071	6a 30		 push	 48			; 00000030H
  00073	8d 4d 10	 lea	 ecx, DWORD PTR _strPrice$[ebp]
  00076	ff 15 00 00 00
	00		 call	 DWORD PTR __imp_?TrimLeft@?$CStringT@DV?$StrTraitMFC_DLL@DV?$ChTraitsCRT@D@ATL@@@@@ATL@@QAEAAV12@D@Z

; 211  : 	strChange.Remove(' ');

  0007c	6a 20		 push	 32			; 00000020H
  0007e	8d 4d 14	 lea	 ecx, DWORD PTR _strChange$[ebp]
  00081	ff 15 00 00 00
	00		 call	 DWORD PTR __imp_?Remove@?$CStringT@DV?$StrTraitMFC_DLL@DV?$ChTraitsCRT@D@ATL@@@@@ATL@@QAEHD@Z

; 212  : 	strChgrate.Remove(' ');

  00087	6a 20		 push	 32			; 00000020H
  00089	8d 4d 18	 lea	 ecx, DWORD PTR _strChgrate$[ebp]
  0008c	ff 15 00 00 00
	00		 call	 DWORD PTR __imp_?Remove@?$CStringT@DV?$StrTraitMFC_DLL@DV?$ChTraitsCRT@D@ATL@@@@@ATL@@QAEHD@Z

; 213  : 	strVolume.Remove(' ');

  00092	6a 20		 push	 32			; 00000020H
  00094	8d 4d 1c	 lea	 ecx, DWORD PTR _strVolume$[ebp]
  00097	ff 15 00 00 00
	00		 call	 DWORD PTR __imp_?Remove@?$CStringT@DV?$StrTraitMFC_DLL@DV?$ChTraitsCRT@D@ATL@@@@@ATL@@QAEHD@Z

; 214  : 
; 215  : 	long lPos = strName.Find('&');

  0009d	6a 00		 push	 0
  0009f	6a 26		 push	 38			; 00000026H
  000a1	8d 8d 7c ff ff
	ff		 lea	 ecx, DWORD PTR _strName$[ebp]
  000a7	ff 15 00 00 00
	00		 call	 DWORD PTR __imp_?Find@?$CStringT@DV?$StrTraitMFC_DLL@DV?$ChTraitsCRT@D@ATL@@@@@ATL@@QBEHDH@Z

; 216  : 	if(lPos>0)

  000ad	85 c0		 test	 eax, eax
  000af	7e 0f		 jle	 SHORT $LN4@InsertCode

; 217  : 	{
; 218  : 		strName.Insert(lPos,'&');

  000b1	6a 26		 push	 38			; 00000026H
  000b3	50		 push	 eax
  000b4	8d 8d 7c ff ff
	ff		 lea	 ecx, DWORD PTR _strName$[ebp]
  000ba	ff 15 00 00 00
	00		 call	 DWORD PTR __imp_?Insert@?$CStringT@DV?$StrTraitMFC_DLL@DV?$ChTraitsCRT@D@ATL@@@@@ATL@@QAEHHD@Z
$LN4@InsertCode:

; 219  : 	}
; 220  : /////////////
; 221  : 	COLORREF crText = RGB(0,0,0);
; 222  : 	COLORREF crBackground = RGB(255,255,255);
; 223  : 	COLORREF crBackgroundDaebi = RGB(255,255,255);
; 224  : 	COLORREF crTextDaebi = RGB(0,0,0);
; 225  : 	switch(chSign)

  000c0	0f be 45 20	 movsx	 eax, BYTE PTR _chSign$[ebp]
  000c4	83 c0 cf	 add	 eax, -49		; ffffffcfH
  000c7	c7 85 74 ff ff
	ff 00 00 00 00	 mov	 DWORD PTR _crText$1$[ebp], 0
  000d1	c7 45 80 ff ff
	ff 00		 mov	 DWORD PTR _crBackgroundDaebi$2$[ebp], 16777215 ; 00ffffffH
  000d8	c7 85 70 ff ff
	ff 00 00 00 00	 mov	 DWORD PTR _crTextDaebi$1$[ebp], 0
  000e2	83 f8 04	 cmp	 eax, 4
  000e5	77 61		 ja	 SHORT $LN9@InsertCode
  000e7	ff 24 85 00 00
	00 00		 jmp	 DWORD PTR $LN120@InsertCode[eax*4]
$LN5@InsertCode:

; 226  : 	{
; 227  : 		case UP_LIMIT:	// UpLimit
; 228  : 			crBackgroundDaebi = RGB(255,0,0);

  000ee	c7 45 80 ff 00
	00 00		 mov	 DWORD PTR _crBackgroundDaebi$2$[ebp], 255 ; 000000ffH

; 229  : 			crTextDaebi = RGB(255,255,255);
; 230  : 			crText = RGB(255,0,0);

  000f5	c7 85 74 ff ff
	ff ff 00 00 00	 mov	 DWORD PTR _crText$1$[ebp], 255 ; 000000ffH

; 231  : 			break;

  000ff	eb 3d		 jmp	 SHORT $LN122@InsertCode
$LN6@InsertCode:

; 232  : 		case UP:	// Up
; 233  : 			crText = RGB(255,0,0);

  00101	c7 85 74 ff ff
	ff ff 00 00 00	 mov	 DWORD PTR _crText$1$[ebp], 255 ; 000000ffH

; 234  : 			crTextDaebi = RGB(255,0,0);

  0010b	c7 85 70 ff ff
	ff ff 00 00 00	 mov	 DWORD PTR _crTextDaebi$1$[ebp], 255 ; 000000ffH

; 235  : 			break;

  00115	eb 31		 jmp	 SHORT $LN9@InsertCode
$LN7@InsertCode:

; 236  : 		case DOWN:	// Down	
; 237  : 			crText = RGB(0,0,255);

  00117	c7 85 74 ff ff
	ff 00 00 ff 00	 mov	 DWORD PTR _crText$1$[ebp], 16711680 ; 00ff0000H

; 238  : 			crTextDaebi = RGB(0,0,255);

  00121	c7 85 70 ff ff
	ff 00 00 ff 00	 mov	 DWORD PTR _crTextDaebi$1$[ebp], 16711680 ; 00ff0000H

; 239  : 			break;

  0012b	eb 1b		 jmp	 SHORT $LN9@InsertCode
$LN8@InsertCode:

; 240  : 		case DOWN_LIMIT:	// DownLimit
; 241  : 			crBackgroundDaebi = RGB(0,0,255);

  0012d	c7 45 80 00 00
	ff 00		 mov	 DWORD PTR _crBackgroundDaebi$2$[ebp], 16711680 ; 00ff0000H

; 242  : 			crTextDaebi = RGB(255,255,255);
; 243  : 			crText = RGB(0,0,255);

  00134	c7 85 74 ff ff
	ff 00 00 ff 00	 mov	 DWORD PTR _crText$1$[ebp], 16711680 ; 00ff0000H
$LN122@InsertCode:

; 244  : 			break;	
; 245  : 		case EQUAL:	// Steady
; 246  : 		/* ===================== 05.05.17 comment by sy,nam
; 247  : 		case '1':
; 248  : 		case '2':
; 249  : 		case '8':
; 250  : 		case '9':
; 251  : 		case '0':
; 252  : 		 ===================== 05.05.17 comment by sy,nam */
; 253  : 			break;
; 254  : 	}
; 255  : 
; 256  : 	CString strPriceWithComma = SetComma(strPrice);

  0013e	c7 85 70 ff ff
	ff ff ff ff 00	 mov	 DWORD PTR _crTextDaebi$1$[ebp], 16777215 ; 00ffffffH
$LN9@InsertCode:
  00148	6a 00		 push	 0
  0014a	51		 push	 ecx
  0014b	8d 45 10	 lea	 eax, DWORD PTR _strPrice$[ebp]
  0014e	8b cc		 mov	 ecx, esp
  00150	50		 push	 eax
  00151	ff 15 00 00 00
	00		 call	 DWORD PTR __imp_??0?$CStringT@DV?$StrTraitMFC_DLL@DV?$ChTraitsCRT@D@ATL@@@@@ATL@@QAE@ABV01@@Z
  00157	8d 85 5c ff ff
	ff		 lea	 eax, DWORD PTR _strPriceWithComma$[ebp]
  0015d	50		 push	 eax
  0015e	e8 00 00 00 00	 call	 ?SetComma@@YA?AV?$CStringT@DV?$StrTraitMFC_DLL@DV?$ChTraitsCRT@D@ATL@@@@@ATL@@V12@H@Z ; SetComma
  00163	83 c4 0c	 add	 esp, 12			; 0000000cH

; 257  : 	CString strChangeWithComma = SetComma(strChange);

  00166	6a 00		 push	 0
  00168	51		 push	 ecx
  00169	8d 45 14	 lea	 eax, DWORD PTR _strChange$[ebp]
  0016c	c6 45 fc 05	 mov	 BYTE PTR __$EHRec$[ebp+8], 5
  00170	8b cc		 mov	 ecx, esp
  00172	50		 push	 eax
  00173	ff 15 00 00 00
	00		 call	 DWORD PTR __imp_??0?$CStringT@DV?$StrTraitMFC_DLL@DV?$ChTraitsCRT@D@ATL@@@@@ATL@@QAE@ABV01@@Z
  00179	8d 85 60 ff ff
	ff		 lea	 eax, DWORD PTR _strChangeWithComma$[ebp]
  0017f	50		 push	 eax
  00180	e8 00 00 00 00	 call	 ?SetComma@@YA?AV?$CStringT@DV?$StrTraitMFC_DLL@DV?$ChTraitsCRT@D@ATL@@@@@ATL@@V12@H@Z ; SetComma
  00185	83 c4 0c	 add	 esp, 12			; 0000000cH

; 258  : 	CString strVolumeWithComma = SetComma(strVolume);

  00188	6a 00		 push	 0
  0018a	51		 push	 ecx
  0018b	8d 45 1c	 lea	 eax, DWORD PTR _strVolume$[ebp]
  0018e	c6 45 fc 06	 mov	 BYTE PTR __$EHRec$[ebp+8], 6
  00192	8b cc		 mov	 ecx, esp
  00194	50		 push	 eax
  00195	ff 15 00 00 00
	00		 call	 DWORD PTR __imp_??0?$CStringT@DV?$StrTraitMFC_DLL@DV?$ChTraitsCRT@D@ATL@@@@@ATL@@QAE@ABV01@@Z
  0019b	8d 85 64 ff ff
	ff		 lea	 eax, DWORD PTR _strVolumeWithComma$[ebp]
  001a1	50		 push	 eax
  001a2	e8 00 00 00 00	 call	 ?SetComma@@YA?AV?$CStringT@DV?$StrTraitMFC_DLL@DV?$ChTraitsCRT@D@ATL@@@@@ATL@@V12@H@Z ; SetComma
  001a7	83 c4 0c	 add	 esp, 12			; 0000000cH
; File C:\Program Files (x86)\Microsoft Visual Studio\2019\Community\VC\Tools\MSVC\14.29.30133\atlmfc\include\afxcmn.inl

; 155  : 	{ ASSERT(::IsWindow(m_hWnd)); return (int) ::SendMessage(m_hWnd, LVM_GETITEMCOUNT, 0, 0L); }

  001aa	6a 00		 push	 0
  001ac	6a 00		 push	 0
  001ae	68 04 10 00 00	 push	 4100			; 00001004H
  001b3	ff 73 20	 push	 DWORD PTR [ebx+32]
; File D:\git\src\IBK\IBK_DRFN\ProjSrc\SrcDrfn\Chart\comparechart\XListCtrlJongData.cpp

; 258  : 	CString strVolumeWithComma = SetComma(strVolume);

  001b6	c6 45 fc 07	 mov	 BYTE PTR __$EHRec$[ebp+8], 7
; File C:\Program Files (x86)\Microsoft Visual Studio\2019\Community\VC\Tools\MSVC\14.29.30133\atlmfc\include\afxcmn.inl

; 155  : 	{ ASSERT(::IsWindow(m_hWnd)); return (int) ::SendMessage(m_hWnd, LVM_GETITEMCOUNT, 0, 0L); }

  001ba	ff 15 00 00 00
	00		 call	 DWORD PTR __imp__SendMessageA@16
; File D:\git\src\IBK\IBK_DRFN\ProjSrc\SrcDrfn\Chart\comparechart\XListCtrlJongData.cpp

; 261  : 	nCnt = GetItemCount();

  001c0	8b f8		 mov	 edi, eax

; 262  : 	InsertItem(nCnt,"");	

  001c2	8b cb		 mov	 ecx, ebx
  001c4	68 00 00 00 00	 push	 OFFSET ??_C@_00CNPNBAHC@@
  001c9	57		 push	 edi
  001ca	89 bd 78 ff ff
	ff		 mov	 DWORD PTR _nCnt$1$[ebp], edi
  001d0	e8 00 00 00 00	 call	 ?InsertItem@CXListCtrl@@QAEHHPBD@Z ; CXListCtrl::InsertItem
; File C:\Program Files (x86)\Microsoft Visual Studio\2019\Community\VC\Tools\MSVC\14.29.30133\atlmfc\include\atltime.h

; 374  : 	return( CTime( ::_time64( NULL ) ) );

  001d5	6a 00		 push	 0
  001d7	ff 15 00 00 00
	00		 call	 DWORD PTR __imp___time64
  001dd	83 c4 04	 add	 esp, 4

; 417  : 	m_time( time )

  001e0	89 85 4c ff ff
	ff		 mov	 DWORD PTR _tm$[ebp], eax
; File D:\git\src\IBK\IBK_DRFN\ProjSrc\SrcDrfn\Chart\comparechart\XListCtrlJongData.cpp

; 266  : 	CString strTime;

  001e6	8d 8d 6c ff ff
	ff		 lea	 ecx, DWORD PTR _strTime$[ebp]
; File C:\Program Files (x86)\Microsoft Visual Studio\2019\Community\VC\Tools\MSVC\14.29.30133\atlmfc\include\atltime.h

; 417  : 	m_time( time )

  001ec	89 95 50 ff ff
	ff		 mov	 DWORD PTR _tm$[ebp+4], edx
; File D:\git\src\IBK\IBK_DRFN\ProjSrc\SrcDrfn\Chart\comparechart\XListCtrlJongData.cpp

; 266  : 	CString strTime;

  001f2	ff 15 00 00 00
	00		 call	 DWORD PTR __imp_??0?$CStringT@DV?$StrTraitMFC_DLL@DV?$ChTraitsCRT@D@ATL@@@@@ATL@@QAE@XZ

; 267  : 	if(m_nType==1)

  001f8	83 bb b8 02 00
	00 01		 cmp	 DWORD PTR [ebx+696], 1
  001ff	c6 45 fc 08	 mov	 BYTE PTR __$EHRec$[ebp+8], 8
  00203	75 6d		 jne	 SHORT $LN10@InsertCode
; File C:\Program Files (x86)\Microsoft Visual Studio\2019\Community\VC\Tools\MSVC\14.29.30133\atlmfc\include\atltime.h

; 614  : 		errno_t err = _localtime64_s(&ptmTemp, &m_time);

  00205	8b 3d 00 00 00
	00		 mov	 edi, DWORD PTR __imp___localtime64_s
  0020b	8d 85 4c ff ff
	ff		 lea	 eax, DWORD PTR _tm$[ebp]
  00211	50		 push	 eax
  00212	8d 45 cc	 lea	 eax, DWORD PTR _ptmTemp$5[ebp]
  00215	50		 push	 eax
  00216	ff d7		 call	 edi

; 616  : 		if (err != 0)

  00218	83 ce ff	 or	 esi, -1
  0021b	85 c0		 test	 eax, eax

; 614  : 		errno_t err = _localtime64_s(&ptmTemp, &m_time);

  0021d	8d 85 4c ff ff
	ff		 lea	 eax, DWORD PTR _tm$[ebp]

; 616  : 		if (err != 0)

  00223	8b de		 mov	 ebx, esi
  00225	0f 44 5d cc	 cmove	 ebx, DWORD PTR _ptmTemp$5[ebp]

; 614  : 		errno_t err = _localtime64_s(&ptmTemp, &m_time);

  00229	50		 push	 eax
  0022a	8d 45 a8	 lea	 eax, DWORD PTR _ptmTemp$4[ebp]
  0022d	50		 push	 eax
  0022e	ff d7		 call	 edi

; 616  : 		if (err != 0)

  00230	85 c0		 test	 eax, eax

; 614  : 		errno_t err = _localtime64_s(&ptmTemp, &m_time);

  00232	8d 85 4c ff ff
	ff		 lea	 eax, DWORD PTR _tm$[ebp]
  00238	50		 push	 eax

; 616  : 		if (err != 0)

  00239	0f 44 75 ac	 cmove	 esi, DWORD PTR _ptmTemp$4[ebp+4]

; 614  : 		errno_t err = _localtime64_s(&ptmTemp, &m_time);

  0023d	8d 45 84	 lea	 eax, DWORD PTR _ptmTemp$3[ebp]
  00240	50		 push	 eax
  00241	ff d7		 call	 edi

; 616  : 		if (err != 0)

  00243	85 c0		 test	 eax, eax
  00245	b8 ff ff ff ff	 mov	 eax, -1
; File D:\git\src\IBK\IBK_DRFN\ProjSrc\SrcDrfn\Chart\comparechart\XListCtrlJongData.cpp

; 269  : 		strTime.Format("%02d:%02d:%02d",tm.GetHour(),tm.GetMinute(),tm.GetSecond());

  0024a	53		 push	 ebx
; File C:\Program Files (x86)\Microsoft Visual Studio\2019\Community\VC\Tools\MSVC\14.29.30133\atlmfc\include\atltime.h

; 616  : 		if (err != 0)

  0024b	0f 44 45 8c	 cmove	 eax, DWORD PTR _ptmTemp$3[ebp+8]
; File D:\git\src\IBK\IBK_DRFN\ProjSrc\SrcDrfn\Chart\comparechart\XListCtrlJongData.cpp

; 269  : 		strTime.Format("%02d:%02d:%02d",tm.GetHour(),tm.GetMinute(),tm.GetSecond());

  0024f	56		 push	 esi
  00250	50		 push	 eax
  00251	8d 85 6c ff ff
	ff		 lea	 eax, DWORD PTR _strTime$[ebp]
  00257	68 00 00 00 00	 push	 OFFSET ??_C@_0P@PLMNPDMB@?$CF02d?3?$CF02d?3?$CF02d@
  0025c	50		 push	 eax
  0025d	ff 15 00 00 00
	00		 call	 DWORD PTR __imp_?Format@?$CStringT@DV?$StrTraitMFC_DLL@DV?$ChTraitsCRT@D@ATL@@@@@ATL@@QAAXPBDZZ
  00263	8b 9d 54 ff ff
	ff		 mov	 ebx, DWORD PTR _this$GSCopy$1$[ebp]
  00269	83 c4 2c	 add	 esp, 44			; 0000002cH
  0026c	8b bd 78 ff ff
	ff		 mov	 edi, DWORD PTR _nCnt$1$[ebp]
$LN10@InsertCode:

; 270  : 	}
; 271  : 	pData = (CJongDataInListCtrl *)GetItemData(nCnt);

  00272	57		 push	 edi
  00273	8b cb		 mov	 ecx, ebx
  00275	e8 00 00 00 00	 call	 ?GetItemData@CXListCtrl@@QAEKH@Z ; CXListCtrl::GetItemData
  0027a	8b f0		 mov	 esi, eax

; 272  : 	if(!pData)

  0027c	85 f6		 test	 esi, esi
  0027e	0f 85 9d 00 00
	00		 jne	 $LN11@InsertCode

; 274  : 		pData = new CJongDataInListCtrl;

  00284	6a 34		 push	 52			; 00000034H
  00286	e8 00 00 00 00	 call	 ??2@YAPAXI@Z		; operator new
  0028b	8b f0		 mov	 esi, eax
  0028d	83 c4 04	 add	 esp, 4
  00290	89 b5 54 ff ff
	ff		 mov	 DWORD PTR $T2[ebp], esi
  00296	85 f6		 test	 esi, esi
  00298	74 67		 je	 SHORT $LN16@InsertCode
; File D:\git\src\IBK\IBK_DRFN\ProjSrc\SrcDrfn\Chart\comparechart\XListCtrlJongData.h

; 19   : 	CJongDataInListCtrl() 

  0029a	8b ce		 mov	 ecx, esi
  0029c	ff 15 00 00 00
	00		 call	 DWORD PTR __imp_??0?$CStringT@DV?$StrTraitMFC_DLL@DV?$ChTraitsCRT@D@ATL@@@@@ATL@@QAE@XZ
  002a2	8d 4e 04	 lea	 ecx, DWORD PTR [esi+4]
  002a5	ff 15 00 00 00
	00		 call	 DWORD PTR __imp_??0?$CStringT@DV?$StrTraitMFC_DLL@DV?$ChTraitsCRT@D@ATL@@@@@ATL@@QAE@XZ
  002ab	8d 4e 08	 lea	 ecx, DWORD PTR [esi+8]
  002ae	ff 15 00 00 00
	00		 call	 DWORD PTR __imp_??0?$CStringT@DV?$StrTraitMFC_DLL@DV?$ChTraitsCRT@D@ATL@@@@@ATL@@QAE@XZ
  002b4	8d 4e 0c	 lea	 ecx, DWORD PTR [esi+12]
  002b7	ff 15 00 00 00
	00		 call	 DWORD PTR __imp_??0?$CStringT@DV?$StrTraitMFC_DLL@DV?$ChTraitsCRT@D@ATL@@@@@ATL@@QAE@XZ
  002bd	8d 4e 10	 lea	 ecx, DWORD PTR [esi+16]
  002c0	ff 15 00 00 00
	00		 call	 DWORD PTR __imp_??0?$CStringT@DV?$StrTraitMFC_DLL@DV?$ChTraitsCRT@D@ATL@@@@@ATL@@QAE@XZ
  002c6	8d 4e 14	 lea	 ecx, DWORD PTR [esi+20]
  002c9	ff 15 00 00 00
	00		 call	 DWORD PTR __imp_??0?$CStringT@DV?$StrTraitMFC_DLL@DV?$ChTraitsCRT@D@ATL@@@@@ATL@@QAE@XZ
  002cf	8d 4e 30	 lea	 ecx, DWORD PTR [esi+48]
  002d2	ff 15 00 00 00
	00		 call	 DWORD PTR __imp_??0?$CStringT@DV?$StrTraitMFC_DLL@DV?$ChTraitsCRT@D@ATL@@@@@ATL@@QAE@XZ

; 20   : 	{
; 21   : 		m_chSign = '0';

  002d8	c6 46 18 30	 mov	 BYTE PTR [esi+24], 48	; 00000030H

; 22   : 		m_bHighlight = FALSE;

  002dc	c7 46 1c 00 00
	00 00		 mov	 DWORD PTR [esi+28], 0

; 23   : 		m_bCheck = FALSE;

  002e3	c7 46 20 00 00
	00 00		 mov	 DWORD PTR [esi+32], 0

; 24   : 		m_lKeepingCnt = 1;

  002ea	c7 46 24 01 00
	00 00		 mov	 DWORD PTR [esi+36], 1

; 25   : 		m_nCurrentIndex = 0;

  002f1	c7 46 28 00 00
	00 00		 mov	 DWORD PTR [esi+40], 0

; 26   : 		m_bKeeping = FALSE;		

  002f8	c7 46 2c 00 00
	00 00		 mov	 DWORD PTR [esi+44], 0
; File D:\git\src\IBK\IBK_DRFN\ProjSrc\SrcDrfn\Chart\comparechart\XListCtrlJongData.cpp

; 274  : 		pData = new CJongDataInListCtrl;

  002ff	eb 02		 jmp	 SHORT $LN17@InsertCode
$LN16@InsertCode:
  00301	33 f6		 xor	 esi, esi
$LN17@InsertCode:

; 275  : 		m_mapJongData.SetAt(lpCode,pData);

  00303	56		 push	 esi
  00304	ff b5 58 ff ff
	ff		 push	 DWORD PTR _lpCode$GSCopy$1$[ebp]
  0030a	8d 8b 60 02 00
	00		 lea	 ecx, DWORD PTR [ebx+608]
  00310	e8 00 00 00 00	 call	 ?SetAt@?$CMap@V?$CStringT@DV?$StrTraitMFC_DLL@DV?$ChTraitsCRT@D@ATL@@@@@ATL@@PBDPAVCJongDataInListCtrl@@PAV3@@@QAEXPBDPAVCJongDataInListCtrl@@@Z ; CMap<ATL::CStringT<char,StrTraitMFC_DLL<char,ATL::ChTraitsCRT<char> > >,char const *,CJongDataInListCtrl *,CJongDataInListCtrl *>::SetAt

; 276  : 		SetItemData(nCnt,(DWORD)pData);

  00315	56		 push	 esi
  00316	57		 push	 edi
  00317	8b cb		 mov	 ecx, ebx
  00319	e8 00 00 00 00	 call	 ?SetItemData@CXListCtrl@@QAEHHK@Z ; CXListCtrl::SetItemData

; 277  : 		pData->m_nCurrentIndex = nCnt;		

  0031e	89 7e 28	 mov	 DWORD PTR [esi+40], edi
$LN11@InsertCode:

; 278  : 	}
; 279  : 	pData->m_strJongCode = lpCode;

  00321	ff b5 58 ff ff
	ff		 push	 DWORD PTR _lpCode$GSCopy$1$[ebp]
  00327	8b ce		 mov	 ecx, esi
  00329	ff 15 00 00 00
	00		 call	 DWORD PTR __imp_??4?$CStringT@DV?$StrTraitMFC_DLL@DV?$ChTraitsCRT@D@ATL@@@@@ATL@@QAEAAV01@PBD@Z

; 280  : 	pData->m_strJongCode.Remove(' ');

  0032f	6a 20		 push	 32			; 00000020H
  00331	8b ce		 mov	 ecx, esi
  00333	ff 15 00 00 00
	00		 call	 DWORD PTR __imp_?Remove@?$CStringT@DV?$StrTraitMFC_DLL@DV?$ChTraitsCRT@D@ATL@@@@@ATL@@QAEHD@Z

; 281  : 	pData->m_chSign = chSign;

  00339	8a 45 20	 mov	 al, BYTE PTR _chSign$[ebp]

; 282  : 	pData->m_strCodeName = strName;

  0033c	8d 4e 04	 lea	 ecx, DWORD PTR [esi+4]
  0033f	88 46 18	 mov	 BYTE PTR [esi+24], al
  00342	8d 85 7c ff ff
	ff		 lea	 eax, DWORD PTR _strName$[ebp]
  00348	50		 push	 eax
  00349	ff 15 00 00 00
	00		 call	 DWORD PTR __imp_??4?$CStringT@DV?$StrTraitMFC_DLL@DV?$ChTraitsCRT@D@ATL@@@@@ATL@@QAEAAV01@ABV01@@Z

; 283  : 	pData->m_strPrice = strPriceWithComma;

  0034f	8d 85 5c ff ff
	ff		 lea	 eax, DWORD PTR _strPriceWithComma$[ebp]
  00355	50		 push	 eax
  00356	8d 4e 08	 lea	 ecx, DWORD PTR [esi+8]
  00359	ff 15 00 00 00
	00		 call	 DWORD PTR __imp_??4?$CStringT@DV?$StrTraitMFC_DLL@DV?$ChTraitsCRT@D@ATL@@@@@ATL@@QAEAAV01@ABV01@@Z

; 284  : 	pData->m_strChange = strChangeWithComma;

  0035f	8d 85 60 ff ff
	ff		 lea	 eax, DWORD PTR _strChangeWithComma$[ebp]
  00365	50		 push	 eax
  00366	8d 4e 0c	 lea	 ecx, DWORD PTR [esi+12]
  00369	ff 15 00 00 00
	00		 call	 DWORD PTR __imp_??4?$CStringT@DV?$StrTraitMFC_DLL@DV?$ChTraitsCRT@D@ATL@@@@@ATL@@QAEAAV01@ABV01@@Z

; 285  : 	pData->m_strChgrate = strChgrate;

  0036f	8d 45 18	 lea	 eax, DWORD PTR _strChgrate$[ebp]
  00372	50		 push	 eax
  00373	8d 4e 10	 lea	 ecx, DWORD PTR [esi+16]
  00376	ff 15 00 00 00
	00		 call	 DWORD PTR __imp_??4?$CStringT@DV?$StrTraitMFC_DLL@DV?$ChTraitsCRT@D@ATL@@@@@ATL@@QAEAAV01@ABV01@@Z

; 286  : 	pData->m_strVolume = strVolumeWithComma;

  0037c	8d 85 64 ff ff
	ff		 lea	 eax, DWORD PTR _strVolumeWithComma$[ebp]
  00382	50		 push	 eax
  00383	8d 4e 14	 lea	 ecx, DWORD PTR [esi+20]
  00386	ff 15 00 00 00
	00		 call	 DWORD PTR __imp_??4?$CStringT@DV?$StrTraitMFC_DLL@DV?$ChTraitsCRT@D@ATL@@@@@ATL@@QAEAAV01@ABV01@@Z

; 287  : 	pData->m_bKeeping = bKeeping;

  0038c	8b 45 24	 mov	 eax, DWORD PTR _bKeeping$[ebp]

; 288  : 	pData->m_strInsertedTime = strTime;

  0038f	8d 4e 30	 lea	 ecx, DWORD PTR [esi+48]
  00392	89 46 2c	 mov	 DWORD PTR [esi+44], eax
  00395	8d 85 6c ff ff
	ff		 lea	 eax, DWORD PTR _strTime$[ebp]
  0039b	50		 push	 eax
  0039c	ff 15 00 00 00
	00		 call	 DWORD PTR __imp_??4?$CStringT@DV?$StrTraitMFC_DLL@DV?$ChTraitsCRT@D@ATL@@@@@ATL@@QAEAAV01@ABV01@@Z

; 289  : 	
; 290  : 	CString strKeepingCnt;

  003a2	8d 8d 68 ff ff
	ff		 lea	 ecx, DWORD PTR _strKeepingCnt$[ebp]
  003a8	ff 15 00 00 00
	00		 call	 DWORD PTR __imp_??0?$CStringT@DV?$StrTraitMFC_DLL@DV?$ChTraitsCRT@D@ATL@@@@@ATL@@QAE@XZ

; 291  : 	strKeepingCnt.Format("%d",pData->m_lKeepingCnt);

  003ae	ff 76 24	 push	 DWORD PTR [esi+36]
  003b1	8d 85 68 ff ff
	ff		 lea	 eax, DWORD PTR _strKeepingCnt$[ebp]
  003b7	c6 45 fc 09	 mov	 BYTE PTR __$EHRec$[ebp+8], 9
  003bb	68 00 00 00 00	 push	 OFFSET ??_C@_02DPKJAMEF@?$CFd@
  003c0	50		 push	 eax
  003c1	ff 15 00 00 00
	00		 call	 DWORD PTR __imp_?Format@?$CStringT@DV?$StrTraitMFC_DLL@DV?$ChTraitsCRT@D@ATL@@@@@ATL@@QAAXPBDZZ

; 292  : 	if(nCnt%2)

  003c7	8b 85 78 ff ff
	ff		 mov	 eax, DWORD PTR _nCnt$1$[ebp]
  003cd	83 c4 0c	 add	 esp, 12			; 0000000cH
  003d0	6a 01		 push	 1
  003d2	6a 00		 push	 0
  003d4	ff b3 38 03 00
	00		 push	 DWORD PTR [ebx+824]
  003da	50		 push	 eax
  003db	a8 01		 test	 al, 1
  003dd	0f 84 ba 00 00
	00		 je	 $LN12@InsertCode

; 293  : 	{
; 294  : 		SetCheckbox(nCnt,m_lIndexOfCheck, 0);

  003e3	8b cb		 mov	 ecx, ebx
  003e5	e8 00 00 00 00	 call	 ?SetCheckbox@CXListCtrl@@QAEHHHHH@Z ; CXListCtrl::SetCheckbox

; 295  : 		SetItemText(nCnt,m_lIndexOfKeepingCnt,strKeepingCnt);

  003ea	ff b5 68 ff ff
	ff		 push	 DWORD PTR _strKeepingCnt$[ebp]
  003f0	8b b5 78 ff ff
	ff		 mov	 esi, DWORD PTR _nCnt$1$[ebp]
  003f6	8b cb		 mov	 ecx, ebx
  003f8	ff b3 3c 03 00
	00		 push	 DWORD PTR [ebx+828]
  003fe	56		 push	 esi
  003ff	e8 00 00 00 00	 call	 ?SetItemText@CXListCtrl@@QAEHHHPBD@Z ; CXListCtrl::SetItemText

; 296  : 		SetItemText(nCnt,m_lIndexOfName,strName);

  00404	ff b5 7c ff ff
	ff		 push	 DWORD PTR _strName$[ebp]
  0040a	8b cb		 mov	 ecx, ebx
  0040c	ff b3 40 03 00
	00		 push	 DWORD PTR [ebx+832]
  00412	56		 push	 esi
  00413	e8 00 00 00 00	 call	 ?SetItemText@CXListCtrl@@QAEHHHPBD@Z ; CXListCtrl::SetItemText

; 297  : 		SetItemText(nCnt,m_lIndexOfPrice,strPriceWithComma,crText,crBackground);

  00418	6a 01		 push	 1
  0041a	68 ff ff ff 00	 push	 16777215		; 00ffffffH
  0041f	ff b5 74 ff ff
	ff		 push	 DWORD PTR _crText$1$[ebp]
  00425	8b cb		 mov	 ecx, ebx
  00427	ff b5 5c ff ff
	ff		 push	 DWORD PTR _strPriceWithComma$[ebp]
  0042d	ff b3 44 03 00
	00		 push	 DWORD PTR [ebx+836]
  00433	56		 push	 esi
  00434	e8 00 00 00 00	 call	 ?SetItemText@CXListCtrl@@QAEHHHPBDKKH@Z ; CXListCtrl::SetItemText

; 298  : 		SetItemText(nCnt,m_lIndexOfChange,strChangeWithComma,crTextDaebi,crBackgroundDaebi);

  00439	8b bd 70 ff ff
	ff		 mov	 edi, DWORD PTR _crTextDaebi$1$[ebp]
  0043f	8b cb		 mov	 ecx, ebx
  00441	6a 01		 push	 1
  00443	ff 75 80	 push	 DWORD PTR _crBackgroundDaebi$2$[ebp]
  00446	57		 push	 edi
  00447	ff b5 60 ff ff
	ff		 push	 DWORD PTR _strChangeWithComma$[ebp]
  0044d	ff b3 48 03 00
	00		 push	 DWORD PTR [ebx+840]
  00453	56		 push	 esi
  00454	e8 00 00 00 00	 call	 ?SetItemText@CXListCtrl@@QAEHHHPBDKKH@Z ; CXListCtrl::SetItemText

; 299  : 		SetItemText(nCnt,m_lIndexOfChgrate,strChgrate,crTextDaebi,crBackgroundDaebi);

  00459	6a 01		 push	 1
  0045b	ff 75 80	 push	 DWORD PTR _crBackgroundDaebi$2$[ebp]
  0045e	8b cb		 mov	 ecx, ebx
  00460	57		 push	 edi
  00461	ff 75 18	 push	 DWORD PTR _strChgrate$[ebp]
  00464	ff b3 4c 03 00
	00		 push	 DWORD PTR [ebx+844]
  0046a	56		 push	 esi
  0046b	e8 00 00 00 00	 call	 ?SetItemText@CXListCtrl@@QAEHHHPBDKKH@Z ; CXListCtrl::SetItemText

; 300  : 		SetItemText(nCnt,m_lIndexOfVolume,strVolumeWithComma);		

  00470	ff b5 64 ff ff
	ff		 push	 DWORD PTR _strVolumeWithComma$[ebp]
  00476	8b cb		 mov	 ecx, ebx
  00478	ff b3 50 03 00
	00		 push	 DWORD PTR [ebx+848]
  0047e	56		 push	 esi
  0047f	e8 00 00 00 00	 call	 ?SetItemText@CXListCtrl@@QAEHHHPBD@Z ; CXListCtrl::SetItemText

; 301  : 		SetItemText(nCnt,m_lIndexOfTime,strTime);

  00484	ff b5 6c ff ff
	ff		 push	 DWORD PTR _strTime$[ebp]
  0048a	8b cb		 mov	 ecx, ebx
  0048c	ff b3 54 03 00
	00		 push	 DWORD PTR [ebx+852]
  00492	56		 push	 esi
  00493	e8 00 00 00 00	 call	 ?SetItemText@CXListCtrl@@QAEHHHPBD@Z ; CXListCtrl::SetItemText

; 302  : 	}

  00498	e9 e7 00 00 00	 jmp	 $LN13@InsertCode
$LN12@InsertCode:

; 303  : 	else
; 304  : 	{
; 305  : 		if(crBackgroundDaebi==RGB(255,255,255))

  0049d	8b 7d 80	 mov	 edi, DWORD PTR _crBackgroundDaebi$2$[ebp]
  004a0	b9 ff ff ff 00	 mov	 ecx, 16777215		; 00ffffffH
  004a5	3b f9		 cmp	 edi, ecx
  004a7	0f 44 f9	 cmove	 edi, ecx

; 306  : 		{
; 307  : 			crBackgroundDaebi = CRGRID;
; 308  : 		}
; 309  : 		SetCheckbox(nCnt,m_lIndexOfCheck, 0);

  004aa	8b cb		 mov	 ecx, ebx
  004ac	89 7d 80	 mov	 DWORD PTR _crBackgroundDaebi$2$[ebp], edi
  004af	e8 00 00 00 00	 call	 ?SetCheckbox@CXListCtrl@@QAEHHHHH@Z ; CXListCtrl::SetCheckbox

; 310  : 		SetItemText(nCnt,m_lIndexOfKeepingCnt,strKeepingCnt,RGB(0,0,0),CRGRID);

  004b4	8b b5 78 ff ff
	ff		 mov	 esi, DWORD PTR _nCnt$1$[ebp]
  004ba	8b cb		 mov	 ecx, ebx
  004bc	6a 01		 push	 1
  004be	68 ff ff ff 00	 push	 16777215		; 00ffffffH
  004c3	6a 00		 push	 0
  004c5	ff b5 68 ff ff
	ff		 push	 DWORD PTR _strKeepingCnt$[ebp]
  004cb	ff b3 3c 03 00
	00		 push	 DWORD PTR [ebx+828]
  004d1	56		 push	 esi
  004d2	e8 00 00 00 00	 call	 ?SetItemText@CXListCtrl@@QAEHHHPBDKKH@Z ; CXListCtrl::SetItemText

; 311  : 		SetItemText(nCnt,m_lIndexOfName,strName,RGB(0,0,0),CRGRID);

  004d7	6a 01		 push	 1
  004d9	68 ff ff ff 00	 push	 16777215		; 00ffffffH
  004de	6a 00		 push	 0
  004e0	ff b5 7c ff ff
	ff		 push	 DWORD PTR _strName$[ebp]
  004e6	8b cb		 mov	 ecx, ebx
  004e8	ff b3 40 03 00
	00		 push	 DWORD PTR [ebx+832]
  004ee	56		 push	 esi
  004ef	e8 00 00 00 00	 call	 ?SetItemText@CXListCtrl@@QAEHHHPBDKKH@Z ; CXListCtrl::SetItemText

; 312  : 		SetItemText(nCnt,m_lIndexOfPrice,strPriceWithComma,crText,CRGRID);

  004f4	6a 01		 push	 1
  004f6	68 ff ff ff 00	 push	 16777215		; 00ffffffH
  004fb	ff b5 74 ff ff
	ff		 push	 DWORD PTR _crText$1$[ebp]
  00501	8b cb		 mov	 ecx, ebx
  00503	ff b5 5c ff ff
	ff		 push	 DWORD PTR _strPriceWithComma$[ebp]
  00509	ff b3 44 03 00
	00		 push	 DWORD PTR [ebx+836]
  0050f	56		 push	 esi
  00510	e8 00 00 00 00	 call	 ?SetItemText@CXListCtrl@@QAEHHHPBDKKH@Z ; CXListCtrl::SetItemText

; 313  : 		SetItemText(nCnt,m_lIndexOfChange,strChangeWithComma,crTextDaebi,crBackgroundDaebi);

  00515	6a 01		 push	 1
  00517	57		 push	 edi
  00518	8b bd 70 ff ff
	ff		 mov	 edi, DWORD PTR _crTextDaebi$1$[ebp]
  0051e	8b cb		 mov	 ecx, ebx
  00520	57		 push	 edi
  00521	ff b5 60 ff ff
	ff		 push	 DWORD PTR _strChangeWithComma$[ebp]
  00527	ff b3 48 03 00
	00		 push	 DWORD PTR [ebx+840]
  0052d	56		 push	 esi
  0052e	e8 00 00 00 00	 call	 ?SetItemText@CXListCtrl@@QAEHHHPBDKKH@Z ; CXListCtrl::SetItemText

; 314  : 		SetItemText(nCnt,m_lIndexOfChgrate,strChgrate,crTextDaebi,crBackgroundDaebi);

  00533	6a 01		 push	 1
  00535	ff 75 80	 push	 DWORD PTR _crBackgroundDaebi$2$[ebp]
  00538	8b cb		 mov	 ecx, ebx
  0053a	57		 push	 edi
  0053b	ff 75 18	 push	 DWORD PTR _strChgrate$[ebp]
  0053e	ff b3 4c 03 00
	00		 push	 DWORD PTR [ebx+844]
  00544	56		 push	 esi
  00545	e8 00 00 00 00	 call	 ?SetItemText@CXListCtrl@@QAEHHHPBDKKH@Z ; CXListCtrl::SetItemText

; 315  : 		SetItemText(nCnt,m_lIndexOfVolume,strVolumeWithComma,RGB(0,0,0),CRGRID);

  0054a	6a 01		 push	 1
  0054c	68 ff ff ff 00	 push	 16777215		; 00ffffffH
  00551	6a 00		 push	 0
  00553	ff b5 64 ff ff
	ff		 push	 DWORD PTR _strVolumeWithComma$[ebp]
  00559	8b cb		 mov	 ecx, ebx
  0055b	ff b3 50 03 00
	00		 push	 DWORD PTR [ebx+848]
  00561	56		 push	 esi
  00562	e8 00 00 00 00	 call	 ?SetItemText@CXListCtrl@@QAEHHHPBDKKH@Z ; CXListCtrl::SetItemText

; 316  : 		SetItemText(nCnt,m_lIndexOfTime,strTime,RGB(0,0,0),CRGRID);

  00567	6a 01		 push	 1
  00569	68 ff ff ff 00	 push	 16777215		; 00ffffffH
  0056e	6a 00		 push	 0
  00570	ff b5 6c ff ff
	ff		 push	 DWORD PTR _strTime$[ebp]
  00576	8b cb		 mov	 ecx, ebx
  00578	ff b3 54 03 00
	00		 push	 DWORD PTR [ebx+852]
  0057e	56		 push	 esi
  0057f	e8 00 00 00 00	 call	 ?SetItemText@CXListCtrl@@QAEHHHPBDKKH@Z ; CXListCtrl::SetItemText
$LN13@InsertCode:

; 317  : 	}	
; 318  : }

  00584	8d 8d 68 ff ff
	ff		 lea	 ecx, DWORD PTR _strKeepingCnt$[ebp]
  0058a	ff 15 00 00 00
	00		 call	 DWORD PTR __imp_??1?$CStringT@DV?$StrTraitMFC_DLL@DV?$ChTraitsCRT@D@ATL@@@@@ATL@@QAE@XZ
  00590	8d 8d 6c ff ff
	ff		 lea	 ecx, DWORD PTR _strTime$[ebp]
  00596	ff 15 00 00 00
	00		 call	 DWORD PTR __imp_??1?$CStringT@DV?$StrTraitMFC_DLL@DV?$ChTraitsCRT@D@ATL@@@@@ATL@@QAE@XZ
  0059c	8d 8d 64 ff ff
	ff		 lea	 ecx, DWORD PTR _strVolumeWithComma$[ebp]
  005a2	ff 15 00 00 00
	00		 call	 DWORD PTR __imp_??1?$CStringT@DV?$StrTraitMFC_DLL@DV?$ChTraitsCRT@D@ATL@@@@@ATL@@QAE@XZ
  005a8	8d 8d 60 ff ff
	ff		 lea	 ecx, DWORD PTR _strChangeWithComma$[ebp]
  005ae	ff 15 00 00 00
	00		 call	 DWORD PTR __imp_??1?$CStringT@DV?$StrTraitMFC_DLL@DV?$ChTraitsCRT@D@ATL@@@@@ATL@@QAE@XZ
  005b4	8d 8d 5c ff ff
	ff		 lea	 ecx, DWORD PTR _strPriceWithComma$[ebp]
  005ba	ff 15 00 00 00
	00		 call	 DWORD PTR __imp_??1?$CStringT@DV?$StrTraitMFC_DLL@DV?$ChTraitsCRT@D@ATL@@@@@ATL@@QAE@XZ
  005c0	8d 8d 7c ff ff
	ff		 lea	 ecx, DWORD PTR _strName$[ebp]
  005c6	ff 15 00 00 00
	00		 call	 DWORD PTR __imp_??1?$CStringT@DV?$StrTraitMFC_DLL@DV?$ChTraitsCRT@D@ATL@@@@@ATL@@QAE@XZ
  005cc	8d 4d 10	 lea	 ecx, DWORD PTR _strPrice$[ebp]
  005cf	ff 15 00 00 00
	00		 call	 DWORD PTR __imp_??1?$CStringT@DV?$StrTraitMFC_DLL@DV?$ChTraitsCRT@D@ATL@@@@@ATL@@QAE@XZ
  005d5	8d 4d 14	 lea	 ecx, DWORD PTR _strChange$[ebp]
  005d8	ff 15 00 00 00
	00		 call	 DWORD PTR __imp_??1?$CStringT@DV?$StrTraitMFC_DLL@DV?$ChTraitsCRT@D@ATL@@@@@ATL@@QAE@XZ
  005de	8d 4d 18	 lea	 ecx, DWORD PTR _strChgrate$[ebp]
  005e1	ff 15 00 00 00
	00		 call	 DWORD PTR __imp_??1?$CStringT@DV?$StrTraitMFC_DLL@DV?$ChTraitsCRT@D@ATL@@@@@ATL@@QAE@XZ
  005e7	8d 4d 1c	 lea	 ecx, DWORD PTR _strVolume$[ebp]
  005ea	ff 15 00 00 00
	00		 call	 DWORD PTR __imp_??1?$CStringT@DV?$StrTraitMFC_DLL@DV?$ChTraitsCRT@D@ATL@@@@@ATL@@QAE@XZ
  005f0	8b 4d f4	 mov	 ecx, DWORD PTR __$EHRec$[ebp]
  005f3	64 89 0d 00 00
	00 00		 mov	 DWORD PTR fs:0, ecx
  005fa	59		 pop	 ecx
  005fb	5f		 pop	 edi
  005fc	5e		 pop	 esi
  005fd	5b		 pop	 ebx
  005fe	8b 4d f0	 mov	 ecx, DWORD PTR __$ArrayPad$[ebp]
  00601	33 cd		 xor	 ecx, ebp
  00603	e8 00 00 00 00	 call	 @__security_check_cookie@4
  00608	8b e5		 mov	 esp, ebp
  0060a	5d		 pop	 ebp
  0060b	c2 20 00	 ret	 32			; 00000020H
  0060e	66 90		 npad	 2
$LN120@InsertCode:
  00610	00 00 00 00	 DD	 $LN5@InsertCode
  00614	00 00 00 00	 DD	 $LN6@InsertCode
  00618	00 00 00 00	 DD	 $LN9@InsertCode
  0061c	00 00 00 00	 DD	 $LN8@InsertCode
  00620	00 00 00 00	 DD	 $LN7@InsertCode
_TEXT	ENDS
;	COMDAT text$x
text$x	SEGMENT
__unwindfunclet$?InsertCodeData@CXListCtrlJongData@@QAEXPBD0V?$CStringT@DV?$StrTraitMFC_DLL@DV?$ChTraitsCRT@D@ATL@@@@@ATL@@111DH@Z$0:
  00000	8d 4d 1c	 lea	 ecx, DWORD PTR _strVolume$[ebp]
  00003	ff 25 00 00 00
	00		 jmp	 DWORD PTR __imp_??1?$CStringT@DV?$StrTraitMFC_DLL@DV?$ChTraitsCRT@D@ATL@@@@@ATL@@QAE@XZ
__unwindfunclet$?InsertCodeData@CXListCtrlJongData@@QAEXPBD0V?$CStringT@DV?$StrTraitMFC_DLL@DV?$ChTraitsCRT@D@ATL@@@@@ATL@@111DH@Z$1:
  00009	8d 4d 18	 lea	 ecx, DWORD PTR _strChgrate$[ebp]
  0000c	ff 25 00 00 00
	00		 jmp	 DWORD PTR __imp_??1?$CStringT@DV?$StrTraitMFC_DLL@DV?$ChTraitsCRT@D@ATL@@@@@ATL@@QAE@XZ
__unwindfunclet$?InsertCodeData@CXListCtrlJongData@@QAEXPBD0V?$CStringT@DV?$StrTraitMFC_DLL@DV?$ChTraitsCRT@D@ATL@@@@@ATL@@111DH@Z$2:
  00012	8d 4d 14	 lea	 ecx, DWORD PTR _strChange$[ebp]
  00015	ff 25 00 00 00
	00		 jmp	 DWORD PTR __imp_??1?$CStringT@DV?$StrTraitMFC_DLL@DV?$ChTraitsCRT@D@ATL@@@@@ATL@@QAE@XZ
__unwindfunclet$?InsertCodeData@CXListCtrlJongData@@QAEXPBD0V?$CStringT@DV?$StrTraitMFC_DLL@DV?$ChTraitsCRT@D@ATL@@@@@ATL@@111DH@Z$3:
  0001b	8d 4d 10	 lea	 ecx, DWORD PTR _strPrice$[ebp]
  0001e	ff 25 00 00 00
	00		 jmp	 DWORD PTR __imp_??1?$CStringT@DV?$StrTraitMFC_DLL@DV?$ChTraitsCRT@D@ATL@@@@@ATL@@QAE@XZ
__unwindfunclet$?InsertCodeData@CXListCtrlJongData@@QAEXPBD0V?$CStringT@DV?$StrTraitMFC_DLL@DV?$ChTraitsCRT@D@ATL@@@@@ATL@@111DH@Z$4:
  00024	8d 8d 7c ff ff
	ff		 lea	 ecx, DWORD PTR _strName$[ebp]
  0002a	ff 25 00 00 00
	00		 jmp	 DWORD PTR __imp_??1?$CStringT@DV?$StrTraitMFC_DLL@DV?$ChTraitsCRT@D@ATL@@@@@ATL@@QAE@XZ
__unwindfunclet$?InsertCodeData@CXListCtrlJongData@@QAEXPBD0V?$CStringT@DV?$StrTraitMFC_DLL@DV?$ChTraitsCRT@D@ATL@@@@@ATL@@111DH@Z$6:
  00030	8d 8d 5c ff ff
	ff		 lea	 ecx, DWORD PTR _strPriceWithComma$[ebp]
  00036	ff 25 00 00 00
	00		 jmp	 DWORD PTR __imp_??1?$CStringT@DV?$StrTraitMFC_DLL@DV?$ChTraitsCRT@D@ATL@@@@@ATL@@QAE@XZ
__unwindfunclet$?InsertCodeData@CXListCtrlJongData@@QAEXPBD0V?$CStringT@DV?$StrTraitMFC_DLL@DV?$ChTraitsCRT@D@ATL@@@@@ATL@@111DH@Z$8:
  0003c	8d 8d 60 ff ff
	ff		 lea	 ecx, DWORD PTR _strChangeWithComma$[ebp]
  00042	ff 25 00 00 00
	00		 jmp	 DWORD PTR __imp_??1?$CStringT@DV?$StrTraitMFC_DLL@DV?$ChTraitsCRT@D@ATL@@@@@ATL@@QAE@XZ
__unwindfunclet$?InsertCodeData@CXListCtrlJongData@@QAEXPBD0V?$CStringT@DV?$StrTraitMFC_DLL@DV?$ChTraitsCRT@D@ATL@@@@@ATL@@111DH@Z$10:
  00048	8d 8d 64 ff ff
	ff		 lea	 ecx, DWORD PTR _strVolumeWithComma$[ebp]
  0004e	ff 25 00 00 00
	00		 jmp	 DWORD PTR __imp_??1?$CStringT@DV?$StrTraitMFC_DLL@DV?$ChTraitsCRT@D@ATL@@@@@ATL@@QAE@XZ
__unwindfunclet$?InsertCodeData@CXListCtrlJongData@@QAEXPBD0V?$CStringT@DV?$StrTraitMFC_DLL@DV?$ChTraitsCRT@D@ATL@@@@@ATL@@111DH@Z$11:
  00054	8d 8d 6c ff ff
	ff		 lea	 ecx, DWORD PTR _strTime$[ebp]
  0005a	ff 25 00 00 00
	00		 jmp	 DWORD PTR __imp_??1?$CStringT@DV?$StrTraitMFC_DLL@DV?$ChTraitsCRT@D@ATL@@@@@ATL@@QAE@XZ
__unwindfunclet$?InsertCodeData@CXListCtrlJongData@@QAEXPBD0V?$CStringT@DV?$StrTraitMFC_DLL@DV?$ChTraitsCRT@D@ATL@@@@@ATL@@111DH@Z$13:
  00060	8d 8d 68 ff ff
	ff		 lea	 ecx, DWORD PTR _strKeepingCnt$[ebp]
  00066	ff 25 00 00 00
	00		 jmp	 DWORD PTR __imp_??1?$CStringT@DV?$StrTraitMFC_DLL@DV?$ChTraitsCRT@D@ATL@@@@@ATL@@QAE@XZ
  0006c	cc		 int	 3
  0006d	cc		 int	 3
  0006e	cc		 int	 3
  0006f	cc		 int	 3
  00070	cc		 int	 3
__ehhandler$?InsertCodeData@CXListCtrlJongData@@QAEXPBD0V?$CStringT@DV?$StrTraitMFC_DLL@DV?$ChTraitsCRT@D@ATL@@@@@ATL@@111DH@Z:
  00071	90		 npad	 1
  00072	90		 npad	 1
  00073	8b 54 24 08	 mov	 edx, DWORD PTR [esp+8]
  00077	8d 42 0c	 lea	 eax, DWORD PTR [edx+12]
  0007a	8b 8a 48 ff ff
	ff		 mov	 ecx, DWORD PTR [edx-184]
  00080	33 c8		 xor	 ecx, eax
  00082	e8 00 00 00 00	 call	 @__security_check_cookie@4
  00087	8b 4a fc	 mov	 ecx, DWORD PTR [edx-4]
  0008a	33 c8		 xor	 ecx, eax
  0008c	e8 00 00 00 00	 call	 @__security_check_cookie@4
  00091	b8 00 00 00 00	 mov	 eax, OFFSET __ehfuncinfo$?InsertCodeData@CXListCtrlJongData@@QAEXPBD0V?$CStringT@DV?$StrTraitMFC_DLL@DV?$ChTraitsCRT@D@ATL@@@@@ATL@@111DH@Z
  00096	e9 00 00 00 00	 jmp	 ___CxxFrameHandler3
text$x	ENDS
?InsertCodeData@CXListCtrlJongData@@QAEXPBD0V?$CStringT@DV?$StrTraitMFC_DLL@DV?$ChTraitsCRT@D@ATL@@@@@ATL@@111DH@Z ENDP ; CXListCtrlJongData::InsertCodeData
; Function compile flags: /Ogtp
; File D:\git\src\IBK\IBK_DRFN\ProjSrc\SrcDrfn\Chart\comparechart\XListCtrlJongData.cpp
; File D:\git\src\IBK\IBK_DRFN\ProjSrc\SrcDrfn\Chart\comparechart\control\XListCtrl.h
; File D:\git\src\IBK\IBK_DRFN\ProjSrc\SrcDrfn\Chart\comparechart\XListCtrlJongData.cpp
;	COMDAT ?Init@CXListCtrlJongData@@QAEXPAVCLeftBarDlg@@H@Z
_TEXT	SEGMENT
_pLeftBarDlg$ = 8					; size = 4
_nType$ = 12						; size = 4
?Init@CXListCtrlJongData@@QAEXPAVCLeftBarDlg@@H@Z PROC	; CXListCtrlJongData::Init, COMDAT
; _this$ = ecx

; 94   : {

  00000	55		 push	 ebp
  00001	8b ec		 mov	 ebp, esp

; 95   : 	m_nType = nType;

  00003	8b 45 0c	 mov	 eax, DWORD PTR _nType$[ebp]
  00006	53		 push	 ebx
  00007	56		 push	 esi
  00008	8b f1		 mov	 esi, ecx
  0000a	57		 push	 edi
  0000b	89 86 b8 02 00
	00		 mov	 DWORD PTR [esi+696], eax

; 96   : 	if(m_nType==0)

  00011	85 c0		 test	 eax, eax
  00013	75 13		 jne	 SHORT $LN2@Init

; 97   : 	{
; 98   : 		m_lIndexOfCheck = 0;
; 99   : 		m_lIndexOfName = 1;
; 100  : 		m_lIndexOfPrice = 2;
; 101  : 		m_lIndexOfChange = 3;
; 102  : 		m_lIndexOfChgrate = 4;
; 103  : 		m_lIndexOfVolume = 5;

  00015	b8 05 00 00 00	 mov	 eax, 5
  0001a	8d 48 ff	 lea	 ecx, DWORD PTR [eax-1]
  0001d	8d 50 fe	 lea	 edx, DWORD PTR [eax-2]
  00020	8d 78 fd	 lea	 edi, DWORD PTR [eax-3]
  00023	8d 58 fc	 lea	 ebx, DWORD PTR [eax-4]

; 104  : 	}

  00026	eb 29		 jmp	 SHORT $LN3@Init
$LN2@Init:

; 105  : 	else
; 106  : 	{
; 107  : 		m_lIndexOfCheck = 0;
; 108  : 		m_lIndexOfKeepingCnt = 1;
; 109  : 		m_lIndexOfName = 2;
; 110  : 		m_lIndexOfPrice = 3;
; 111  : 		m_lIndexOfChange = 4;
; 112  : 		m_lIndexOfChgrate = 5;
; 113  : 		m_lIndexOfVolume = 6;
; 114  : 		m_lIndexOfTime = 7;

  00028	b8 06 00 00 00	 mov	 eax, 6
  0002d	c7 86 3c 03 00
	00 01 00 00 00	 mov	 DWORD PTR [esi+828], 1
  00037	c7 86 54 03 00
	00 07 00 00 00	 mov	 DWORD PTR [esi+852], 7
  00041	bf 03 00 00 00	 mov	 edi, 3
  00046	bb 02 00 00 00	 mov	 ebx, 2
  0004b	8d 48 ff	 lea	 ecx, DWORD PTR [eax-1]
  0004e	8d 50 fe	 lea	 edx, DWORD PTR [eax-2]
$LN3@Init:

; 115  : 	}
; 116  : 	m_pLeftBarDlg = pLeftBarDlg;

  00051	c7 86 38 03 00
	00 00 00 00 00	 mov	 DWORD PTR [esi+824], 0
  0005b	89 9e 40 03 00
	00		 mov	 DWORD PTR [esi+832], ebx
  00061	89 be 44 03 00
	00		 mov	 DWORD PTR [esi+836], edi
  00067	89 96 48 03 00
	00		 mov	 DWORD PTR [esi+840], edx
  0006d	89 8e 4c 03 00
	00		 mov	 DWORD PTR [esi+844], ecx

; 117  : //	m_pLeftBarDlg->GetCodeMasterArray(CODE_JONGMOK, m_arKOSPICode	, m_arKOSPIName	);
; 118  : //	m_pLeftBarDlg->GetCodeMasterArray(CODE_JONGMOK, m_arKOSDAQCode	, m_arKOSDAQName);
; 119  : 	//m_pListJ = (CList<CJMaster, CJMaster>*)m_pLeftBarDlg->GetCodePointer("JMASTER");
; 120  : 	//m_pListK = (CList<CKMaster, CKMaster>*)m_pLeftBarDlg->GetCodePointer("KMASTER");
; 121  : 
; 122  : 	
; 123  : 	SetConfig();

  00073	8b ce		 mov	 ecx, esi
  00075	89 86 50 03 00
	00		 mov	 DWORD PTR [esi+848], eax
  0007b	8b 45 08	 mov	 eax, DWORD PTR _pLeftBarDlg$[ebp]
  0007e	6a 01		 push	 1
  00080	89 86 b4 02 00
	00		 mov	 DWORD PTR [esi+692], eax
  00086	e8 00 00 00 00	 call	 ?SetConfig@CXListCtrlJongData@@AAEXH@Z ; CXListCtrlJongData::SetConfig

; 124  : 	InitColumns();

  0008b	8b ce		 mov	 ecx, esi
  0008d	e8 00 00 00 00	 call	 ?InitColumns@CXListCtrlJongData@@AAEXXZ ; CXListCtrlJongData::InitColumns
; File D:\git\src\IBK\IBK_DRFN\ProjSrc\SrcDrfn\Chart\comparechart\control\XListCtrl.h

; 175  : 		m_crHighLight = m_crUsrHighLight = crBackground;

  00092	5f		 pop	 edi
  00093	c7 86 a8 01 00
	00 00 00 00 00	 mov	 DWORD PTR [esi+424], 0
  0009d	c7 86 98 01 00
	00 00 00 00 00	 mov	 DWORD PTR [esi+408], 0
  000a7	c7 86 a4 01 00
	00 b4 c8 f0 00	 mov	 DWORD PTR [esi+420], 15780020 ; 00f0c8b4H
  000b1	c7 86 94 01 00
	00 b4 c8 f0 00	 mov	 DWORD PTR [esi+404], 15780020 ; 00f0c8b4H
  000bb	5e		 pop	 esi
  000bc	5b		 pop	 ebx
; File D:\git\src\IBK\IBK_DRFN\ProjSrc\SrcDrfn\Chart\comparechart\XListCtrlJongData.cpp

; 126  : }

  000bd	5d		 pop	 ebp
  000be	c2 08 00	 ret	 8
?Init@CXListCtrlJongData@@QAEXPAVCLeftBarDlg@@H@Z ENDP	; CXListCtrlJongData::Init
_TEXT	ENDS
; Function compile flags: /Ogtp
; File D:\git\src\IBK\IBK_DRFN\ProjSrc\SrcDrfn\Chart\comparechart\XListCtrlJongData.cpp
; File C:\Program Files (x86)\Microsoft Visual Studio\2019\Community\VC\Tools\MSVC\14.29.30133\atlmfc\include\afxtempl.h
; File D:\git\src\IBK\IBK_DRFN\ProjSrc\SrcDrfn\Chart\comparechart\XListCtrlJongData.cpp
;	COMDAT ??0CXListCtrlJongData@@QAE@XZ
_TEXT	SEGMENT
_this$ = -16						; size = 4
__$EHRec$ = -12						; size = 12
??0CXListCtrlJongData@@QAE@XZ PROC			; CXListCtrlJongData::CXListCtrlJongData, COMDAT
; _this$ = ecx

; 53   : {

  00000	55		 push	 ebp
  00001	8b ec		 mov	 ebp, esp
  00003	6a ff		 push	 -1
  00005	68 00 00 00 00	 push	 __ehhandler$??0CXListCtrlJongData@@QAE@XZ
  0000a	64 a1 00 00 00
	00		 mov	 eax, DWORD PTR fs:0
  00010	50		 push	 eax
  00011	51		 push	 ecx
  00012	56		 push	 esi
  00013	a1 00 00 00 00	 mov	 eax, DWORD PTR ___security_cookie
  00018	33 c5		 xor	 eax, ebp
  0001a	50		 push	 eax
  0001b	8d 45 f4	 lea	 eax, DWORD PTR __$EHRec$[ebp]
  0001e	64 a3 00 00 00
	00		 mov	 DWORD PTR fs:0, eax
  00024	8b f1		 mov	 esi, ecx
  00026	89 75 f0	 mov	 DWORD PTR _this$[ebp], esi
  00029	e8 00 00 00 00	 call	 ??0CXListCtrl@@QAE@XZ	; CXListCtrl::CXListCtrl
  0002e	8d 8e 10 02 00
	00		 lea	 ecx, DWORD PTR [esi+528]
  00034	c7 45 fc 00 00
	00 00		 mov	 DWORD PTR __$EHRec$[ebp+8], 0
  0003b	c7 06 00 00 00
	00		 mov	 DWORD PTR [esi], OFFSET ??_7CXListCtrlJongData@@6B@
  00041	e8 00 00 00 00	 call	 ??0CStringArray@@QAE@XZ	; CStringArray::CStringArray
  00046	8d 8e 24 02 00
	00		 lea	 ecx, DWORD PTR [esi+548]
  0004c	c6 45 fc 01	 mov	 BYTE PTR __$EHRec$[ebp+8], 1
  00050	e8 00 00 00 00	 call	 ??0CStringArray@@QAE@XZ	; CStringArray::CStringArray
  00055	8d 8e 38 02 00
	00		 lea	 ecx, DWORD PTR [esi+568]
  0005b	c6 45 fc 02	 mov	 BYTE PTR __$EHRec$[ebp+8], 2
  0005f	e8 00 00 00 00	 call	 ??0CStringArray@@QAE@XZ	; CStringArray::CStringArray
  00064	8d 8e 4c 02 00
	00		 lea	 ecx, DWORD PTR [esi+588]
  0006a	c6 45 fc 03	 mov	 BYTE PTR __$EHRec$[ebp+8], 3
  0006e	e8 00 00 00 00	 call	 ??0CStringArray@@QAE@XZ	; CStringArray::CStringArray
; File C:\Program Files (x86)\Microsoft Visual Studio\2019\Community\VC\Tools\MSVC\14.29.30133\atlmfc\include\afxtempl.h

; 1403 : {

  00073	c7 86 60 02 00
	00 00 00 00 00	 mov	 DWORD PTR [esi+608], OFFSET ??_7?$CMap@V?$CStringT@DV?$StrTraitMFC_DLL@DV?$ChTraitsCRT@D@ATL@@@@@ATL@@PBDPAVCJongDataInListCtrl@@PAV3@@@6B@

; 1404 : 	ASSERT(nBlockSize > 0);
; 1405 : 
; 1406 : 	m_pHashTable = NULL;

  0007d	c7 86 64 02 00
	00 00 00 00 00	 mov	 DWORD PTR [esi+612], 0

; 1407 : 	m_nHashTableSize = 17;  // default size

  00087	c7 86 68 02 00
	00 11 00 00 00	 mov	 DWORD PTR [esi+616], 17	; 00000011H

; 1408 : 	m_nCount = 0;

  00091	c7 86 6c 02 00
	00 00 00 00 00	 mov	 DWORD PTR [esi+620], 0

; 1409 : 	m_pFreeList = NULL;

  0009b	c7 86 70 02 00
	00 00 00 00 00	 mov	 DWORD PTR [esi+624], 0

; 1410 : 	m_pBlocks = NULL;

  000a5	c7 86 74 02 00
	00 00 00 00 00	 mov	 DWORD PTR [esi+628], 0

; 1411 : 	m_nBlockSize = nBlockSize;

  000af	c7 86 78 02 00
	00 0a 00 00 00	 mov	 DWORD PTR [esi+632], 10	; 0000000aH

; 1403 : {

  000b9	c7 86 7c 02 00
	00 00 00 00 00	 mov	 DWORD PTR [esi+636], OFFSET ??_7?$CMap@V?$CStringT@DV?$StrTraitMFC_DLL@DV?$ChTraitsCRT@D@ATL@@@@@ATL@@PBDPAVCJongDataInListCtrl@@PAV3@@@6B@

; 1404 : 	ASSERT(nBlockSize > 0);
; 1405 : 
; 1406 : 	m_pHashTable = NULL;

  000c3	c7 86 80 02 00
	00 00 00 00 00	 mov	 DWORD PTR [esi+640], 0

; 1407 : 	m_nHashTableSize = 17;  // default size

  000cd	c7 86 84 02 00
	00 11 00 00 00	 mov	 DWORD PTR [esi+644], 17	; 00000011H

; 1408 : 	m_nCount = 0;

  000d7	c7 86 88 02 00
	00 00 00 00 00	 mov	 DWORD PTR [esi+648], 0

; 1409 : 	m_pFreeList = NULL;

  000e1	c7 86 8c 02 00
	00 00 00 00 00	 mov	 DWORD PTR [esi+652], 0

; 1410 : 	m_pBlocks = NULL;

  000eb	c7 86 90 02 00
	00 00 00 00 00	 mov	 DWORD PTR [esi+656], 0

; 1411 : 	m_nBlockSize = nBlockSize;

  000f5	c7 86 94 02 00
	00 0a 00 00 00	 mov	 DWORD PTR [esi+660], 10	; 0000000aH

; 1403 : {

  000ff	c7 86 98 02 00
	00 00 00 00 00	 mov	 DWORD PTR [esi+664], OFFSET ??_7?$CMap@V?$CStringT@DV?$StrTraitMFC_DLL@DV?$ChTraitsCRT@D@ATL@@@@@ATL@@PBDPAVCJongDataInListCtrl@@PAV3@@@6B@

; 1404 : 	ASSERT(nBlockSize > 0);
; 1405 : 
; 1406 : 	m_pHashTable = NULL;

  00109	c7 86 9c 02 00
	00 00 00 00 00	 mov	 DWORD PTR [esi+668], 0

; 1407 : 	m_nHashTableSize = 17;  // default size

  00113	c7 86 a0 02 00
	00 11 00 00 00	 mov	 DWORD PTR [esi+672], 17	; 00000011H

; 1408 : 	m_nCount = 0;

  0011d	c7 86 a4 02 00
	00 00 00 00 00	 mov	 DWORD PTR [esi+676], 0

; 1409 : 	m_pFreeList = NULL;

  00127	c7 86 a8 02 00
	00 00 00 00 00	 mov	 DWORD PTR [esi+680], 0

; 1410 : 	m_pBlocks = NULL;

  00131	c7 86 ac 02 00
	00 00 00 00 00	 mov	 DWORD PTR [esi+684], 0

; 1411 : 	m_nBlockSize = nBlockSize;

  0013b	c7 86 b0 02 00
	00 0a 00 00 00	 mov	 DWORD PTR [esi+688], 10	; 0000000aH
; File D:\git\src\IBK\IBK_DRFN\ProjSrc\SrcDrfn\Chart\comparechart\XListCtrlJongData.cpp

; 53   : {

  00145	8d 8e 7c 03 00
	00		 lea	 ecx, DWORD PTR [esi+892]
  0014b	ff 15 00 00 00
	00		 call	 DWORD PTR __imp_??0?$CStringT@DV?$StrTraitMFC_DLL@DV?$ChTraitsCRT@D@ATL@@@@@ATL@@QAE@XZ

; 201  : 	::ZeroMemory(m_bSortIndexConst,sizeof(m_bSortIndexConst));	

  00151	6a 78		 push	 120			; 00000078H
  00153	8d 86 bc 02 00
	00		 lea	 eax, DWORD PTR [esi+700]

; 53   : {

  00159	c6 45 fc 08	 mov	 BYTE PTR __$EHRec$[ebp+8], 8

; 201  : 	::ZeroMemory(m_bSortIndexConst,sizeof(m_bSortIndexConst));	

  0015d	6a 00		 push	 0
  0015f	50		 push	 eax

; 54   : 	m_pLeftBarDlg = NULL;

  00160	c7 86 b4 02 00
	00 00 00 00 00	 mov	 DWORD PTR [esi+692], 0

; 55   : //	m_pListJ = NULL;
; 56   : //	m_pListK = NULL;	
; 57   : 	m_nType = 0;	

  0016a	c7 86 b8 02 00
	00 00 00 00 00	 mov	 DWORD PTR [esi+696], 0

; 58   : 	m_bAutoSort = FALSE;

  00174	c7 86 34 03 00
	00 00 00 00 00	 mov	 DWORD PTR [esi+820], 0

; 59   : 	m_lIndexOfCheck = -1;

  0017e	c7 86 38 03 00
	00 ff ff ff ff	 mov	 DWORD PTR [esi+824], -1

; 60   : 	m_lIndexOfKeepingCnt = -1;

  00188	c7 86 3c 03 00
	00 ff ff ff ff	 mov	 DWORD PTR [esi+828], -1

; 61   : 	m_lIndexOfName = -1;

  00192	c7 86 40 03 00
	00 ff ff ff ff	 mov	 DWORD PTR [esi+832], -1

; 62   : 	m_lIndexOfPrice = -1;

  0019c	c7 86 44 03 00
	00 ff ff ff ff	 mov	 DWORD PTR [esi+836], -1

; 63   : 	m_lIndexOfChange = -1;

  001a6	c7 86 48 03 00
	00 ff ff ff ff	 mov	 DWORD PTR [esi+840], -1

; 64   : 	m_lIndexOfChgrate = -1;

  001b0	c7 86 4c 03 00
	00 ff ff ff ff	 mov	 DWORD PTR [esi+844], -1

; 65   : 	m_lIndexOfVolume = -1;

  001ba	c7 86 50 03 00
	00 ff ff ff ff	 mov	 DWORD PTR [esi+848], -1

; 66   : 	m_lIndexOfTime = -1;

  001c4	c7 86 54 03 00
	00 ff ff ff ff	 mov	 DWORD PTR [esi+852], -1

; 67   : 	m_nStartAlarmKeepingCnt = 0;

  001ce	c7 86 68 03 00
	00 00 00 00 00	 mov	 DWORD PTR [esi+872], 0

; 68   : 	m_nEndAlarmKeepingCnt = 0;

  001d8	c7 86 6c 03 00
	00 00 00 00 00	 mov	 DWORD PTR [esi+876], 0

; 69   : 	m_bUseAlarmSound = FALSE;

  001e2	c7 86 70 03 00
	00 00 00 00 00	 mov	 DWORD PTR [esi+880], 0

; 70   : 	m_bUseAlarmBkClr = FALSE;

  001ec	c7 86 74 03 00
	00 00 00 00 00	 mov	 DWORD PTR [esi+884], 0

; 71   : 	m_bPlayedAlarmSound = FALSE;

  001f6	c7 86 78 03 00
	00 00 00 00 00	 mov	 DWORD PTR [esi+888], 0

; 201  : 	::ZeroMemory(m_bSortIndexConst,sizeof(m_bSortIndexConst));	

  00200	e8 00 00 00 00	 call	 _memset
  00205	83 c4 0c	 add	 esp, 12			; 0000000cH

; 202  : 	SetSortImage(-1,0);

  00208	8b ce		 mov	 ecx, esi
  0020a	6a 00		 push	 0
  0020c	6a ff		 push	 -1
  0020e	e8 00 00 00 00	 call	 ?SetSortImage@CXListCtrl@@QAEXHH@Z ; CXListCtrl::SetSortImage

; 72   : 	InitSortIndex();
; 73   : }

  00213	8b c6		 mov	 eax, esi
  00215	8b 4d f4	 mov	 ecx, DWORD PTR __$EHRec$[ebp]
  00218	64 89 0d 00 00
	00 00		 mov	 DWORD PTR fs:0, ecx
  0021f	59		 pop	 ecx
  00220	5e		 pop	 esi
  00221	8b e5		 mov	 esp, ebp
  00223	5d		 pop	 ebp
  00224	c3		 ret	 0
_TEXT	ENDS
;	COMDAT text$x
text$x	SEGMENT
__unwindfunclet$??0CXListCtrlJongData@@QAE@XZ$0:
  00000	8b 4d f0	 mov	 ecx, DWORD PTR _this$[ebp]
  00003	e9 00 00 00 00	 jmp	 ??1CXListCtrl@@UAE@XZ	; CXListCtrl::~CXListCtrl
__unwindfunclet$??0CXListCtrlJongData@@QAE@XZ$1:
  00008	8b 4d f0	 mov	 ecx, DWORD PTR _this$[ebp]
  0000b	81 c1 10 02 00
	00		 add	 ecx, 528		; 00000210H
  00011	e9 00 00 00 00	 jmp	 ??1CStringArray@@UAE@XZ	; CStringArray::~CStringArray
__unwindfunclet$??0CXListCtrlJongData@@QAE@XZ$2:
  00016	8b 4d f0	 mov	 ecx, DWORD PTR _this$[ebp]
  00019	81 c1 24 02 00
	00		 add	 ecx, 548		; 00000224H
  0001f	e9 00 00 00 00	 jmp	 ??1CStringArray@@UAE@XZ	; CStringArray::~CStringArray
__unwindfunclet$??0CXListCtrlJongData@@QAE@XZ$3:
  00024	8b 4d f0	 mov	 ecx, DWORD PTR _this$[ebp]
  00027	81 c1 38 02 00
	00		 add	 ecx, 568		; 00000238H
  0002d	e9 00 00 00 00	 jmp	 ??1CStringArray@@UAE@XZ	; CStringArray::~CStringArray
__unwindfunclet$??0CXListCtrlJongData@@QAE@XZ$4:
  00032	8b 4d f0	 mov	 ecx, DWORD PTR _this$[ebp]
  00035	81 c1 4c 02 00
	00		 add	 ecx, 588		; 0000024cH
  0003b	e9 00 00 00 00	 jmp	 ??1CStringArray@@UAE@XZ	; CStringArray::~CStringArray
__unwindfunclet$??0CXListCtrlJongData@@QAE@XZ$5:
  00040	8b 4d f0	 mov	 ecx, DWORD PTR _this$[ebp]
  00043	81 c1 60 02 00
	00		 add	 ecx, 608		; 00000260H
  00049	e9 00 00 00 00	 jmp	 ??1?$CMap@V?$CStringT@DV?$StrTraitMFC_DLL@DV?$ChTraitsCRT@D@ATL@@@@@ATL@@PBDPAVCJongDataInListCtrl@@PAV3@@@UAE@XZ ; CMap<ATL::CStringT<char,StrTraitMFC_DLL<char,ATL::ChTraitsCRT<char> > >,char const *,CJongDataInListCtrl *,CJongDataInListCtrl *>::~CMap<ATL::CStringT<char,StrTraitMFC_DLL<char,ATL::ChTraitsCRT<char> > >,char const *,CJongDataInListCtrl *,CJongDataInListCtrl *>
__unwindfunclet$??0CXListCtrlJongData@@QAE@XZ$6:
  0004e	8b 4d f0	 mov	 ecx, DWORD PTR _this$[ebp]
  00051	81 c1 7c 02 00
	00		 add	 ecx, 636		; 0000027cH
  00057	e9 00 00 00 00	 jmp	 ??1?$CMap@V?$CStringT@DV?$StrTraitMFC_DLL@DV?$ChTraitsCRT@D@ATL@@@@@ATL@@PBDPAVCJongDataInListCtrl@@PAV3@@@UAE@XZ ; CMap<ATL::CStringT<char,StrTraitMFC_DLL<char,ATL::ChTraitsCRT<char> > >,char const *,CJongDataInListCtrl *,CJongDataInListCtrl *>::~CMap<ATL::CStringT<char,StrTraitMFC_DLL<char,ATL::ChTraitsCRT<char> > >,char const *,CJongDataInListCtrl *,CJongDataInListCtrl *>
__unwindfunclet$??0CXListCtrlJongData@@QAE@XZ$7:
  0005c	8b 4d f0	 mov	 ecx, DWORD PTR _this$[ebp]
  0005f	81 c1 98 02 00
	00		 add	 ecx, 664		; 00000298H
  00065	e9 00 00 00 00	 jmp	 ??1?$CMap@V?$CStringT@DV?$StrTraitMFC_DLL@DV?$ChTraitsCRT@D@ATL@@@@@ATL@@PBDPAVCJongDataInListCtrl@@PAV3@@@UAE@XZ ; CMap<ATL::CStringT<char,StrTraitMFC_DLL<char,ATL::ChTraitsCRT<char> > >,char const *,CJongDataInListCtrl *,CJongDataInListCtrl *>::~CMap<ATL::CStringT<char,StrTraitMFC_DLL<char,ATL::ChTraitsCRT<char> > >,char const *,CJongDataInListCtrl *,CJongDataInListCtrl *>
__unwindfunclet$??0CXListCtrlJongData@@QAE@XZ$8:
  0006a	8b 4d f0	 mov	 ecx, DWORD PTR _this$[ebp]
  0006d	81 c1 7c 03 00
	00		 add	 ecx, 892		; 0000037cH
  00073	ff 25 00 00 00
	00		 jmp	 DWORD PTR __imp_??1?$CStringT@DV?$StrTraitMFC_DLL@DV?$ChTraitsCRT@D@ATL@@@@@ATL@@QAE@XZ
  00079	cc		 int	 3
  0007a	cc		 int	 3
  0007b	cc		 int	 3
  0007c	cc		 int	 3
  0007d	cc		 int	 3
__ehhandler$??0CXListCtrlJongData@@QAE@XZ:
  0007e	90		 npad	 1
  0007f	90		 npad	 1
  00080	8b 54 24 08	 mov	 edx, DWORD PTR [esp+8]
  00084	8d 42 0c	 lea	 eax, DWORD PTR [edx+12]
  00087	8b 4a f4	 mov	 ecx, DWORD PTR [edx-12]
  0008a	33 c8		 xor	 ecx, eax
  0008c	e8 00 00 00 00	 call	 @__security_check_cookie@4
  00091	b8 00 00 00 00	 mov	 eax, OFFSET __ehfuncinfo$??0CXListCtrlJongData@@QAE@XZ
  00096	e9 00 00 00 00	 jmp	 ___CxxFrameHandler3
text$x	ENDS
??0CXListCtrlJongData@@QAE@XZ ENDP			; CXListCtrlJongData::CXListCtrlJongData
; Function compile flags: /Ogtp
; File C:\Program Files (x86)\Microsoft Visual Studio\2019\Community\VC\Tools\MSVC\14.29.30133\atlmfc\include\afxwin2.inl
;	COMDAT ?EndModalState@CWnd@@UAEXXZ
_TEXT	SEGMENT
?EndModalState@CWnd@@UAEXXZ PROC			; CWnd::EndModalState, COMDAT
; _this$ = ecx

; 567  : 	{ ::EnableWindow(m_hWnd, TRUE); }

  00000	6a 01		 push	 1
  00002	ff 71 20	 push	 DWORD PTR [ecx+32]
  00005	ff 15 00 00 00
	00		 call	 DWORD PTR __imp__EnableWindow@8
  0000b	c3		 ret	 0
?EndModalState@CWnd@@UAEXXZ ENDP			; CWnd::EndModalState
_TEXT	ENDS
; Function compile flags: /Ogtp
; File C:\Program Files (x86)\Microsoft Visual Studio\2019\Community\VC\Tools\MSVC\14.29.30133\atlmfc\include\afxwin2.inl
;	COMDAT ?BeginModalState@CWnd@@UAEXXZ
_TEXT	SEGMENT
?BeginModalState@CWnd@@UAEXXZ PROC			; CWnd::BeginModalState, COMDAT
; _this$ = ecx

; 565  : 	{ ::EnableWindow(m_hWnd, FALSE); }

  00000	6a 00		 push	 0
  00002	ff 71 20	 push	 DWORD PTR [ecx+32]
  00005	ff 15 00 00 00
	00		 call	 DWORD PTR __imp__EnableWindow@8
  0000b	c3		 ret	 0
?BeginModalState@CWnd@@UAEXXZ ENDP			; CWnd::BeginModalState
_TEXT	ENDS
; Function compile flags: /Ogtp
; File C:\Program Files (x86)\Microsoft Visual Studio\2019\Community\VC\Tools\MSVC\14.29.30133\atlmfc\include\afxwin2.inl
;	COMDAT ?DoDataExchange@CWnd@@MAEXPAVCDataExchange@@@Z
_TEXT	SEGMENT
___formal$ = 8						; size = 4
?DoDataExchange@CWnd@@MAEXPAVCDataExchange@@@Z PROC	; CWnd::DoDataExchange, COMDAT
; _this$ = ecx

; 561  : 	{ } // default does nothing

  00000	c2 04 00	 ret	 4
?DoDataExchange@CWnd@@MAEXPAVCDataExchange@@@Z ENDP	; CWnd::DoDataExchange
_TEXT	ENDS
; Function compile flags: /Ogtp
; File C:\Program Files (x86)\Microsoft Visual Studio\2019\Community\VC\Tools\MSVC\14.29.30133\atlmfc\include\afx.inl
;	COMDAT ?Dump@CObject@@UBEXAAVCDumpContext@@@Z
_TEXT	SEGMENT
___formal$ = 8						; size = 4
?Dump@CObject@@UBEXAAVCDumpContext@@@Z PROC		; CObject::Dump, COMDAT
; _this$ = ecx

; 122  : 	{ /* no dumping in release builds */ }

  00000	c2 04 00	 ret	 4
?Dump@CObject@@UBEXAAVCDumpContext@@@Z ENDP		; CObject::Dump
_TEXT	ENDS
; Function compile flags: /Ogtp
; File C:\Program Files (x86)\Microsoft Visual Studio\2019\Community\VC\Tools\MSVC\14.29.30133\atlmfc\include\afx.inl
;	COMDAT ?AssertValid@CObject@@UBEXXZ
_TEXT	SEGMENT
?AssertValid@CObject@@UBEXXZ PROC			; CObject::AssertValid, COMDAT
; _this$ = ecx

; 120  : 	{ /* no asserts in release builds */ }

  00000	c2 00 00	 ret	 0
?AssertValid@CObject@@UBEXXZ ENDP			; CObject::AssertValid
_TEXT	ENDS
; Function compile flags: /Ogtp
; File C:\Program Files (x86)\Microsoft Visual Studio\2019\Community\VC\Tools\MSVC\14.29.30133\atlmfc\include\afx.inl
;	COMDAT ?Serialize@CObject@@UAEXAAVCArchive@@@Z
_TEXT	SEGMENT
___formal$ = 8						; size = 4
?Serialize@CObject@@UAEXAAVCArchive@@@Z PROC		; CObject::Serialize, COMDAT
; _this$ = ecx

; 106  : 	{ /* CObject does not serialize anything by default */ }

  00000	c2 04 00	 ret	 4
?Serialize@CObject@@UAEXAAVCArchive@@@Z ENDP		; CObject::Serialize
_TEXT	ENDS
; Function compile flags: /Ogtp
; File C:\Program Files (x86)\Microsoft Visual Studio\2019\Community\VC\Tools\MSVC\14.29.30133\atlmfc\include\afx.inl
;	COMDAT ??1CObject@@UAE@XZ
_TEXT	SEGMENT
??1CObject@@UAE@XZ PROC					; CObject::~CObject, COMDAT
; _this$ = ecx

; 104  : 	{ }

  00000	c2 00 00	 ret	 0
??1CObject@@UAE@XZ ENDP					; CObject::~CObject
_TEXT	ENDS
; Function compile flags: /Ogtp
; File D:\git\src\IBK\IBK_DRFN\ProjSrc\SrcDrfn\Chart\comparechart\XListCtrlJongData.cpp
;	COMDAT ?__empty_global_delete@@YAXPAXI@Z
_TEXT	SEGMENT
___formal$ = 8						; size = 4
___formal$ = 12						; size = 4
?__empty_global_delete@@YAXPAXI@Z PROC			; __empty_global_delete, COMDAT

  00000	c2 00 00	 ret	 0
?__empty_global_delete@@YAXPAXI@Z ENDP			; __empty_global_delete
_TEXT	ENDS
; Function compile flags: /Ogtp
; File D:\git\src\IBK\IBK_DRFN\ProjSrc\SrcDrfn\Chart\comparechart\XListCtrlJongData.cpp
;	COMDAT ?__empty_global_delete@@YAXPAX@Z
_TEXT	SEGMENT
___formal$ = 8						; size = 4
?__empty_global_delete@@YAXPAX@Z PROC			; __empty_global_delete, COMDAT

  00000	c2 00 00	 ret	 0
?__empty_global_delete@@YAXPAX@Z ENDP			; __empty_global_delete
_TEXT	ENDS
END
