; Listing generated by Microsoft (R) Optimizing Compiler Version 19.29.30148.0 

	TITLE	D:\git\src\IBK\IBK_DRFN\#DRfn-CS\_Obj\CompareChart\xSkinButton.obj
	.686P
	.XMM
	include listing.inc
	.model	flat

INCLUDELIB MSVCRT
INCLUDELIB OLDNAMES

PUBLIC	?__empty_global_delete@@YAXPAX@Z		; __empty_global_delete
PUBLIC	?__empty_global_delete@@YAXPAXI@Z		; __empty_global_delete
PUBLIC	??1CObject@@UAE@XZ				; CObject::~CObject
PUBLIC	?Serialize@CObject@@UAEXAAVCArchive@@@Z		; CObject::Serialize
PUBLIC	?AssertValid@CObject@@UBEXXZ			; CObject::AssertValid
PUBLIC	?Dump@CObject@@UBEXAAVCDumpContext@@@Z		; CObject::Dump
PUBLIC	??1CGdiObject@@UAE@XZ				; CGdiObject::~CGdiObject
PUBLIC	??_GCGdiObject@@UAEPAXI@Z			; CGdiObject::`scalar deleting destructor'
PUBLIC	??1CBitmap@@UAE@XZ				; CBitmap::~CBitmap
PUBLIC	??_GCBitmap@@UAEPAXI@Z				; CBitmap::`scalar deleting destructor'
PUBLIC	?DoDataExchange@CWnd@@MAEXPAVCDataExchange@@@Z	; CWnd::DoDataExchange
PUBLIC	?BeginModalState@CWnd@@UAEXXZ			; CWnd::BeginModalState
PUBLIC	?EndModalState@CWnd@@UAEXXZ			; CWnd::EndModalState
PUBLIC	??_GCButton@@UAEPAXI@Z				; CButton::`scalar deleting destructor'
PUBLIC	??0CxSkinButton@@QAE@XZ				; CxSkinButton::CxSkinButton
PUBLIC	?DrawItem@CxSkinButton@@UAEXPAUtagDRAWITEMSTRUCT@@@Z ; CxSkinButton::DrawItem
PUBLIC	?PreSubclassWindow@CxSkinButton@@MAEXXZ		; CxSkinButton::PreSubclassWindow
PUBLIC	?SetToolTipText@CxSkinButton@@QAEXV?$CStringT@DV?$StrTraitMFC_DLL@DV?$ChTraitsCRT@D@ATL@@@@@ATL@@@Z ; CxSkinButton::SetToolTipText
PUBLIC	?SetTextColor@CxSkinButton@@QAEKK@Z		; CxSkinButton::SetTextColor
PUBLIC	?SetSkin@CxSkinButton@@QAEXIIIIIIFFF@Z		; CxSkinButton::SetSkin
PUBLIC	?SetSkin@CxSkinButton@@QAEXV?$CStringT@DV?$StrTraitMFC_DLL@DV?$ChTraitsCRT@D@ATL@@@@@ATL@@00000FFF@Z ; CxSkinButton::SetSkin
PUBLIC	??1CxSkinButton@@UAE@XZ				; CxSkinButton::~CxSkinButton
PUBLIC	?RelayEvent@CxSkinButton@@IAEXIIJ@Z		; CxSkinButton::RelayEvent
PUBLIC	?CreateRgnFromBitmap@CxSkinButton@@IAEPAUHRGN__@@PAUHBITMAP__@@K@Z ; CxSkinButton::CreateRgnFromBitmap
PUBLIC	?FillWithBitmap@CxSkinButton@@IAEXPAVCDC@@PAUHBITMAP__@@UtagRECT@@@Z ; CxSkinButton::FillWithBitmap
PUBLIC	?DrawBitmap@CxSkinButton@@IAEXPAVCDC@@PAUHBITMAP__@@UtagRECT@@H@Z ; CxSkinButton::DrawBitmap
PUBLIC	?GetBitmapWidth@CxSkinButton@@IAEHPAUHBITMAP__@@@Z ; CxSkinButton::GetBitmapWidth
PUBLIC	?GetBitmapHeight@CxSkinButton@@IAEHPAUHBITMAP__@@@Z ; CxSkinButton::GetBitmapHeight
PUBLIC	?OnEraseBkgnd@CxSkinButton@@IAEHPAVCDC@@@Z	; CxSkinButton::OnEraseBkgnd
PUBLIC	?OnLButtonDown@CxSkinButton@@IAEXIVCPoint@@@Z	; CxSkinButton::OnLButtonDown
PUBLIC	?OnLButtonUp@CxSkinButton@@IAEXIVCPoint@@@Z	; CxSkinButton::OnLButtonUp
PUBLIC	?OnMouseMove@CxSkinButton@@IAEXIVCPoint@@@Z	; CxSkinButton::OnMouseMove
PUBLIC	?OnLButtonDblClk@CxSkinButton@@IAEXIVCPoint@@@Z	; CxSkinButton::OnLButtonDblClk
PUBLIC	?OnKillFocus@CxSkinButton@@IAEXPAVCWnd@@@Z	; CxSkinButton::OnKillFocus
PUBLIC	?OnClicked@CxSkinButton@@IAEHXZ			; CxSkinButton::OnClicked
PUBLIC	?OnKeyDown@CxSkinButton@@IAEXIII@Z		; CxSkinButton::OnKeyDown
PUBLIC	?OnMouseLeave@CxSkinButton@@IAEJIJ@Z		; CxSkinButton::OnMouseLeave
PUBLIC	?OnRadioInfo@CxSkinButton@@IAEJIJ@Z		; CxSkinButton::OnRadioInfo
PUBLIC	?OnBMSetCheck@CxSkinButton@@IAEJIJ@Z		; CxSkinButton::OnBMSetCheck
PUBLIC	?OnBMGetCheck@CxSkinButton@@IAEJIJ@Z		; CxSkinButton::OnBMGetCheck
PUBLIC	?GetThisMessageMap@CxSkinButton@@KGPBUAFX_MSGMAP@@XZ ; CxSkinButton::GetThisMessageMap
PUBLIC	?GetMessageMap@CxSkinButton@@MBEPBUAFX_MSGMAP@@XZ ; CxSkinButton::GetMessageMap
PUBLIC	??_GCxSkinButton@@UAEPAXI@Z			; CxSkinButton::`scalar deleting destructor'
PUBLIC	??_R0PAVCException@@@8				; CException * `RTTI Type Descriptor'
PUBLIC	??_7CGdiObject@@6B@				; CGdiObject::`vftable'
PUBLIC	??_7CBitmap@@6B@				; CBitmap::`vftable'
PUBLIC	??_7CButton@@6B@				; CButton::`vftable'
PUBLIC	??_C@_0HD@JJCHHHNK@C?3?2Program?5Files?5?$CIx86?$CJ?2Microsof@ ; `string'
PUBLIC	??_C@_0BP@OIEOKIDM@Exception?5thrown?5in?5destructor@ ; `string'
PUBLIC	??_C@_0BB@HBOOMJBF@?$CFTs?5?$CI?$CFTs?3?$CFd?$CJ?6?$CFTs@ ; `string'
PUBLIC	??_C@_0N@OMEMOKLE@?$CFTs?5?$CI?$CFTs?3?$CFd?$CJ@ ; `string'
PUBLIC	??_R0?AVCObject@@@8				; CObject `RTTI Type Descriptor'
PUBLIC	??_R3CObject@@8					; CObject::`RTTI Class Hierarchy Descriptor'
PUBLIC	??_R2CObject@@8					; CObject::`RTTI Base Class Array'
PUBLIC	??_R1A@?0A@EA@CObject@@8			; CObject::`RTTI Base Class Descriptor at (0,-1,0,64)'
PUBLIC	??_R4CGdiObject@@6B@				; CGdiObject::`RTTI Complete Object Locator'
PUBLIC	??_R0?AVCGdiObject@@@8				; CGdiObject `RTTI Type Descriptor'
PUBLIC	??_R3CGdiObject@@8				; CGdiObject::`RTTI Class Hierarchy Descriptor'
PUBLIC	??_R2CGdiObject@@8				; CGdiObject::`RTTI Base Class Array'
PUBLIC	??_R1A@?0A@EA@CGdiObject@@8			; CGdiObject::`RTTI Base Class Descriptor at (0,-1,0,64)'
PUBLIC	??_R4CBitmap@@6B@				; CBitmap::`RTTI Complete Object Locator'
PUBLIC	??_R0?AVCBitmap@@@8				; CBitmap `RTTI Type Descriptor'
PUBLIC	??_R3CBitmap@@8					; CBitmap::`RTTI Class Hierarchy Descriptor'
PUBLIC	??_R2CBitmap@@8					; CBitmap::`RTTI Base Class Array'
PUBLIC	??_R1A@?0A@EA@CBitmap@@8			; CBitmap::`RTTI Base Class Descriptor at (0,-1,0,64)'
PUBLIC	??_R1A@?0A@EA@CWnd@@8				; CWnd::`RTTI Base Class Descriptor at (0,-1,0,64)'
PUBLIC	??_R0?AVCWnd@@@8				; CWnd `RTTI Type Descriptor'
PUBLIC	??_R3CWnd@@8					; CWnd::`RTTI Class Hierarchy Descriptor'
PUBLIC	??_R2CWnd@@8					; CWnd::`RTTI Base Class Array'
PUBLIC	??_R1A@?0A@EA@CCmdTarget@@8			; CCmdTarget::`RTTI Base Class Descriptor at (0,-1,0,64)'
PUBLIC	??_R0?AVCCmdTarget@@@8				; CCmdTarget `RTTI Type Descriptor'
PUBLIC	??_R3CCmdTarget@@8				; CCmdTarget::`RTTI Class Hierarchy Descriptor'
PUBLIC	??_R2CCmdTarget@@8				; CCmdTarget::`RTTI Base Class Array'
PUBLIC	??_R4CButton@@6B@				; CButton::`RTTI Complete Object Locator'
PUBLIC	??_R0?AVCButton@@@8				; CButton `RTTI Type Descriptor'
PUBLIC	??_R3CButton@@8					; CButton::`RTTI Class Hierarchy Descriptor'
PUBLIC	??_R2CButton@@8					; CButton::`RTTI Base Class Array'
PUBLIC	??_R1A@?0A@EA@CButton@@8			; CButton::`RTTI Base Class Descriptor at (0,-1,0,64)'
PUBLIC	??_7CxSkinButton@@6B@				; CxSkinButton::`vftable'
PUBLIC	??_R4CxSkinButton@@6B@				; CxSkinButton::`RTTI Complete Object Locator'
PUBLIC	??_R0?AVCxSkinButton@@@8			; CxSkinButton `RTTI Type Descriptor'
PUBLIC	??_R3CxSkinButton@@8				; CxSkinButton::`RTTI Class Hierarchy Descriptor'
PUBLIC	??_R2CxSkinButton@@8				; CxSkinButton::`RTTI Base Class Array'
PUBLIC	??_R1A@?0A@EA@CxSkinButton@@8			; CxSkinButton::`RTTI Base Class Descriptor at (0,-1,0,64)'
EXTRN	??3@YAXPAX@Z:PROC				; operator delete
EXTRN	??3@YAXPAXI@Z:PROC				; operator delete
EXTRN	?__global_delete@@YAXPAXI@Z:PROC		; __global_delete
EXTRN	??_U@YAPAXI@Z:PROC				; operator new[]
EXTRN	__imp__BitBlt@36:PROC
EXTRN	__imp__CombineRgn@16:PROC
EXTRN	__imp__CreateCompatibleBitmap@12:PROC
EXTRN	__imp__CreateCompatibleDC@4:PROC
EXTRN	__imp__CreateRectRgn@16:PROC
EXTRN	__imp__DeleteDC@4:PROC
EXTRN	__imp__DeleteObject@4:PROC
EXTRN	__imp__GetPixel@12:PROC
EXTRN	__imp__SelectClipRgn@8:PROC
EXTRN	__imp__SelectObject@8:PROC
EXTRN	__imp__StretchBlt@44:PROC
EXTRN	__imp__GetObjectA@12:PROC
EXTRN	__imp__DrawEdge@16:PROC
EXTRN	__imp__SendMessageA@16:PROC
EXTRN	__imp__PostMessageA@16:PROC
EXTRN	__imp__GetNextDlgGroupItem@12:PROC
EXTRN	__imp__GetCapture@0:PROC
EXTRN	__imp__ReleaseCapture@0:PROC
EXTRN	__imp__EnableWindow@8:PROC
EXTRN	__imp__GetDC@4:PROC
EXTRN	__imp__SetWindowRgn@12:PROC
EXTRN	__imp__InvalidateRect@12:PROC
EXTRN	__imp__GetCursorPos@4:PROC
EXTRN	__imp__ClientToScreen@8:PROC
EXTRN	__imp__WindowFromPoint@8:PROC
EXTRN	__imp__GetSysColor@4:PROC
EXTRN	__imp__DrawFocusRect@8:PROC
EXTRN	__imp__OffsetRect@12:PROC
EXTRN	__imp__GetWindowLongA@8:PROC
EXTRN	__imp__GetParent@4:PROC
EXTRN	__imp__LoadBitmapW@8:PROC
EXTRN	__imp__LoadImageA@24:PROC
EXTRN	__imp___TrackMouseEvent@4:PROC
EXTRN	__imp_??0?$CStringT@DV?$StrTraitMFC_DLL@DV?$ChTraitsCRT@D@ATL@@@@@ATL@@QAE@XZ:PROC
EXTRN	__imp_??1?$CStringT@DV?$StrTraitMFC_DLL@DV?$ChTraitsCRT@D@ATL@@@@@ATL@@QAE@XZ:PROC
EXTRN	__imp_?Format@?$CStringT@DV?$StrTraitMFC_DLL@DV?$ChTraitsCRT@D@ATL@@@@@ATL@@QAAXPBDZZ:PROC
EXTRN	?GetRuntimeClass@CGdiObject@@UBEPAUCRuntimeClass@@XZ:PROC ; CGdiObject::GetRuntimeClass
EXTRN	?Attach@CGdiObject@@QAEHPAX@Z:PROC		; CGdiObject::Attach
EXTRN	?DeleteObject@CGdiObject@@QAEHXZ:PROC		; CGdiObject::DeleteObject
EXTRN	??_ECGdiObject@@UAEPAXI@Z:PROC			; CGdiObject::`vector deleting destructor'
EXTRN	?GetRuntimeClass@CBitmap@@UBEPAUCRuntimeClass@@XZ:PROC ; CBitmap::GetRuntimeClass
EXTRN	??_ECBitmap@@UAEPAXI@Z:PROC			; CBitmap::`vector deleting destructor'
EXTRN	?FromHandle@CDC@@SGPAV1@PAUHDC__@@@Z:PROC	; CDC::FromHandle
EXTRN	?Attach@CDC@@QAEHPAUHDC__@@@Z:PROC		; CDC::Attach
EXTRN	??0CDC@@QAE@XZ:PROC				; CDC::CDC
EXTRN	?DeleteDC@CDC@@QAEHXZ:PROC			; CDC::DeleteDC
EXTRN	?SetBkMode@CDC@@QAEHH@Z:PROC			; CDC::SetBkMode
EXTRN	?FillSolidRect@CDC@@QAEXPBUtagRECT@@K@Z:PROC	; CDC::FillSolidRect
EXTRN	??1CDC@@UAE@XZ:PROC				; CDC::~CDC
EXTRN	?OnCmdMsg@CCmdTarget@@UAEHIHPAXPAUAFX_CMDHANDLERINFO@@@Z:PROC ; CCmdTarget::OnCmdMsg
EXTRN	?IsInvokeAllowed@CCmdTarget@@UAEHJ@Z:PROC	; CCmdTarget::IsInvokeAllowed
EXTRN	?GetDispatchIID@CCmdTarget@@UAEHPAU_GUID@@@Z:PROC ; CCmdTarget::GetDispatchIID
EXTRN	?GetTypeInfoCount@CCmdTarget@@UAEIXZ:PROC	; CCmdTarget::GetTypeInfoCount
EXTRN	?GetTypeLibCache@CCmdTarget@@UAEPAVCTypeLibCache@@XZ:PROC ; CCmdTarget::GetTypeLibCache
EXTRN	?GetTypeLib@CCmdTarget@@UAEJKPAPAUITypeLib@@@Z:PROC ; CCmdTarget::GetTypeLib
EXTRN	?GetCommandMap@CCmdTarget@@MBEPBUAFX_OLECMDMAP@@XZ:PROC ; CCmdTarget::GetCommandMap
EXTRN	?GetDispatchMap@CCmdTarget@@MBEPBUAFX_DISPMAP@@XZ:PROC ; CCmdTarget::GetDispatchMap
EXTRN	?GetConnectionMap@CCmdTarget@@MBEPBUAFX_CONNECTIONMAP@@XZ:PROC ; CCmdTarget::GetConnectionMap
EXTRN	?GetEventSinkMap@CCmdTarget@@MBEPBUAFX_EVENTSINKMAP@@XZ:PROC ; CCmdTarget::GetEventSinkMap
EXTRN	?OnCreateAggregates@CCmdTarget@@UAEHXZ:PROC	; CCmdTarget::OnCreateAggregates
EXTRN	?GetInterfaceHook@CCmdTarget@@UAEPAUIUnknown@@PBX@Z:PROC ; CCmdTarget::GetInterfaceHook
EXTRN	?GetExtraConnectionPoints@CCmdTarget@@MAEHPAVCPtrArray@@@Z:PROC ; CCmdTarget::GetExtraConnectionPoints
EXTRN	?GetConnectionHook@CCmdTarget@@MAEPAUIConnectionPoint@@ABU_GUID@@@Z:PROC ; CCmdTarget::GetConnectionHook
EXTRN	?ModifyStyle@CWnd@@QAEHKKI@Z:PROC		; CWnd::ModifyStyle
EXTRN	??0CWnd@@QAE@XZ:PROC				; CWnd::CWnd
EXTRN	?FromHandle@CWnd@@SGPAV1@PAUHWND__@@@Z:PROC	; CWnd::FromHandle
EXTRN	?PreSubclassWindow@CWnd@@UAEXXZ:PROC		; CWnd::PreSubclassWindow
EXTRN	?Create@CWnd@@UAEHPBD0KABUtagRECT@@PAV1@IPAUCCreateContext@@@Z:PROC ; CWnd::Create
EXTRN	?CreateEx@CWnd@@UAEHKPBD0KHHHHPAUHWND__@@PAUHMENU__@@PAX@Z:PROC ; CWnd::CreateEx
EXTRN	?CreateEx@CWnd@@UAEHKPBD0KABUtagRECT@@PAV1@IPAX@Z:PROC ; CWnd::CreateEx
EXTRN	?DestroyWindow@CWnd@@UAEHXZ:PROC		; CWnd::DestroyWindow
EXTRN	?PreCreateWindow@CWnd@@UAEHAAUtagCREATESTRUCTA@@@Z:PROC ; CWnd::PreCreateWindow
EXTRN	?CalcWindowRect@CWnd@@UAEXPAUtagRECT@@I@Z:PROC	; CWnd::CalcWindowRect
EXTRN	?GetWindowTextA@CWnd@@QBEXAAV?$CStringT@DV?$StrTraitMFC_DLL@DV?$ChTraitsCRT@D@ATL@@@@@ATL@@@Z:PROC ; CWnd::GetWindowTextA
EXTRN	?GetMenu@CWnd@@UBEPAVCMenu@@XZ:PROC		; CWnd::GetMenu
EXTRN	?SetMenu@CWnd@@UAEHPAVCMenu@@@Z:PROC		; CWnd::SetMenu
EXTRN	?SetWindowPos@CWnd@@QAEHPBV1@HHHHI@Z:PROC	; CWnd::SetWindowPos
EXTRN	?OnToolHitTest@CWnd@@UBEHVCPoint@@PAUtagTOOLINFOA@@@Z:PROC ; CWnd::OnToolHitTest
EXTRN	?GetScrollBarCtrl@CWnd@@UBEPAVCScrollBar@@H@Z:PROC ; CWnd::GetScrollBarCtrl
EXTRN	?WinHelpA@CWnd@@UAEXKI@Z:PROC			; CWnd::WinHelpA
EXTRN	?HtmlHelpA@CWnd@@UAEXKI@Z:PROC			; CWnd::HtmlHelpA
EXTRN	?WinHelpInternal@CWnd@@UAEXKI@Z:PROC		; CWnd::WinHelpInternal
EXTRN	?ContinueModal@CWnd@@UAEHXZ:PROC		; CWnd::ContinueModal
EXTRN	?EndModalLoop@CWnd@@UAEXH@Z:PROC		; CWnd::EndModalLoop
EXTRN	?OnDrawIconicThumbnailOrLivePreview@CWnd@@UAEXAAVCDC@@VCRect@@VCSize@@HAAH@Z:PROC ; CWnd::OnDrawIconicThumbnailOrLivePreview
EXTRN	?GetInterfaceMap@CWnd@@MBEPBUAFX_INTERFACEMAP@@XZ:PROC ; CWnd::GetInterfaceMap
EXTRN	?EnsureStdObj@CWnd@@UAEJXZ:PROC			; CWnd::EnsureStdObj
EXTRN	?get_accParent@CWnd@@UAEJPAPAUIDispatch@@@Z:PROC ; CWnd::get_accParent
EXTRN	?get_accChildCount@CWnd@@UAEJPAJ@Z:PROC		; CWnd::get_accChildCount
EXTRN	?get_accChild@CWnd@@UAEJUtagVARIANT@@PAPAUIDispatch@@@Z:PROC ; CWnd::get_accChild
EXTRN	?get_accName@CWnd@@UAEJUtagVARIANT@@PAPA_W@Z:PROC ; CWnd::get_accName
EXTRN	?get_accValue@CWnd@@UAEJUtagVARIANT@@PAPA_W@Z:PROC ; CWnd::get_accValue
EXTRN	?get_accDescription@CWnd@@UAEJUtagVARIANT@@PAPA_W@Z:PROC ; CWnd::get_accDescription
EXTRN	?get_accRole@CWnd@@UAEJUtagVARIANT@@PAU2@@Z:PROC ; CWnd::get_accRole
EXTRN	?get_accState@CWnd@@UAEJUtagVARIANT@@PAU2@@Z:PROC ; CWnd::get_accState
EXTRN	?get_accHelp@CWnd@@UAEJUtagVARIANT@@PAPA_W@Z:PROC ; CWnd::get_accHelp
EXTRN	?get_accHelpTopic@CWnd@@UAEJPAPA_WUtagVARIANT@@PAJ@Z:PROC ; CWnd::get_accHelpTopic
EXTRN	?get_accKeyboardShortcut@CWnd@@UAEJUtagVARIANT@@PAPA_W@Z:PROC ; CWnd::get_accKeyboardShortcut
EXTRN	?get_accFocus@CWnd@@UAEJPAUtagVARIANT@@@Z:PROC	; CWnd::get_accFocus
EXTRN	?get_accSelection@CWnd@@UAEJPAUtagVARIANT@@@Z:PROC ; CWnd::get_accSelection
EXTRN	?get_accDefaultAction@CWnd@@UAEJUtagVARIANT@@PAPA_W@Z:PROC ; CWnd::get_accDefaultAction
EXTRN	?accSelect@CWnd@@UAEJJUtagVARIANT@@@Z:PROC	; CWnd::accSelect
EXTRN	?accLocation@CWnd@@UAEJPAJ000UtagVARIANT@@@Z:PROC ; CWnd::accLocation
EXTRN	?accNavigate@CWnd@@UAEJJUtagVARIANT@@PAU2@@Z:PROC ; CWnd::accNavigate
EXTRN	?accHitTest@CWnd@@UAEJJJPAUtagVARIANT@@@Z:PROC	; CWnd::accHitTest
EXTRN	?accDoDefaultAction@CWnd@@UAEJUtagVARIANT@@@Z:PROC ; CWnd::accDoDefaultAction
EXTRN	?put_accName@CWnd@@UAEJUtagVARIANT@@PA_W@Z:PROC	; CWnd::put_accName
EXTRN	?put_accValue@CWnd@@UAEJUtagVARIANT@@PA_W@Z:PROC ; CWnd::put_accValue
EXTRN	?SetProxy@CWnd@@UAEJPAUIAccessibleProxy@@@Z:PROC ; CWnd::SetProxy
EXTRN	?CreateAccessibleProxy@CWnd@@UAEJIJPAJ@Z:PROC	; CWnd::CreateAccessibleProxy
EXTRN	?OnCommand@CWnd@@MAEHIJ@Z:PROC			; CWnd::OnCommand
EXTRN	?OnNotify@CWnd@@MAEHIJPAJ@Z:PROC		; CWnd::OnNotify
EXTRN	?GetSuperWndProcAddr@CWnd@@MAEPAP6GJPAUHWND__@@IIJ@ZXZ:PROC ; CWnd::GetSuperWndProcAddr
EXTRN	?PreTranslateMessage@CWnd@@UAEHPAUtagMSG@@@Z:PROC ; CWnd::PreTranslateMessage
EXTRN	?OnAmbientProperty@CWnd@@UAEHPAVCOleControlSite@@JPAUtagVARIANT@@@Z:PROC ; CWnd::OnAmbientProperty
EXTRN	?WindowProc@CWnd@@MAEJIIJ@Z:PROC		; CWnd::WindowProc
EXTRN	?OnWndMsg@CWnd@@MAEHIIJPAJ@Z:PROC		; CWnd::OnWndMsg
EXTRN	?Default@CWnd@@IAEJXZ:PROC			; CWnd::Default
EXTRN	?DefWindowProcA@CWnd@@MAEJIIJ@Z:PROC		; CWnd::DefWindowProcA
EXTRN	?PostNcDestroy@CWnd@@MAEXXZ:PROC		; CWnd::PostNcDestroy
EXTRN	?OnTouchInputs@CWnd@@MAEHIPAUtagTOUCHINPUT@@@Z:PROC ; CWnd::OnTouchInputs
EXTRN	?OnTouchInput@CWnd@@MAEHVCPoint@@HHPAUtagTOUCHINPUT@@@Z:PROC ; CWnd::OnTouchInput
EXTRN	?GetGestureStatus@CWnd@@MAEKVCPoint@@@Z:PROC	; CWnd::GetGestureStatus
EXTRN	?OnGestureZoom@CWnd@@MAEHVCPoint@@J@Z:PROC	; CWnd::OnGestureZoom
EXTRN	?OnGesturePan@CWnd@@MAEHVCPoint@@0@Z:PROC	; CWnd::OnGesturePan
EXTRN	?OnGestureRotate@CWnd@@MAEHVCPoint@@N@Z:PROC	; CWnd::OnGestureRotate
EXTRN	?OnGestureTwoFingerTap@CWnd@@MAEHVCPoint@@@Z:PROC ; CWnd::OnGestureTwoFingerTap
EXTRN	?OnGesturePressAndTap@CWnd@@MAEHVCPoint@@J@Z:PROC ; CWnd::OnGesturePressAndTap
EXTRN	?ResizeDynamicLayout@CWnd@@MAEXXZ:PROC		; CWnd::ResizeDynamicLayout
EXTRN	?CheckAutoCenter@CWnd@@UAEHXZ:PROC		; CWnd::CheckAutoCenter
EXTRN	?IsFrameWnd@CWnd@@UBEHXZ:PROC			; CWnd::IsFrameWnd
EXTRN	?OnFinalRelease@CWnd@@UAEXXZ:PROC		; CWnd::OnFinalRelease
EXTRN	?CreateControlContainer@CWnd@@MAEHPAPAVCOleControlContainer@@@Z:PROC ; CWnd::CreateControlContainer
EXTRN	?CreateControlSite@CWnd@@MAEHPAVCOleControlContainer@@PAPAVCOleControlSite@@IABU_GUID@@@Z:PROC ; CWnd::CreateControlSite
EXTRN	?SetOccDialogInfo@CWnd@@MAEHPAU_AFX_OCC_DIALOG_INFO@@@Z:PROC ; CWnd::SetOccDialogInfo
EXTRN	?GetOccDialogInfo@CWnd@@MAEPAU_AFX_OCC_DIALOG_INFO@@XZ:PROC ; CWnd::GetOccDialogInfo
EXTRN	?GetThisMessageMap@CWnd@@KGPBUAFX_MSGMAP@@XZ:PROC ; CWnd::GetThisMessageMap
EXTRN	?GetMessageMap@CWnd@@MBEPBUAFX_MSGMAP@@XZ:PROC	; CWnd::GetMessageMap
EXTRN	?GetRuntimeClass@CButton@@UBEPAUCRuntimeClass@@XZ:PROC ; CButton::GetRuntimeClass
EXTRN	?Create@CButton@@UAEHPBDKABUtagRECT@@PAVCWnd@@I@Z:PROC ; CButton::Create
EXTRN	?DrawItem@CButton@@UAEXPAUtagDRAWITEMSTRUCT@@@Z:PROC ; CButton::DrawItem
EXTRN	??1CButton@@UAE@XZ:PROC				; CButton::~CButton
EXTRN	?OnChildNotify@CButton@@MAEHIIJPAJ@Z:PROC	; CButton::OnChildNotify
EXTRN	??_ECButton@@UAEPAXI@Z:PROC			; CButton::`vector deleting destructor'
EXTRN	?AfxFindResourceHandle@@YGPAUHINSTANCE__@@PBD0@Z:PROC ; AfxFindResourceHandle
EXTRN	?AfxMessageBox@@YGHPBDII@Z:PROC			; AfxMessageBox
EXTRN	??0CToolTipCtrl@@QAE@XZ:PROC			; CToolTipCtrl::CToolTipCtrl
EXTRN	?AddTool@CToolTipCtrl@@QAEHPAVCWnd@@PBDPBUtagRECT@@I@Z:PROC ; CToolTipCtrl::AddTool
EXTRN	?UpdateTipText@CToolTipCtrl@@QAEXPBDPAVCWnd@@I@Z:PROC ; CToolTipCtrl::UpdateTipText
EXTRN	??1CToolTipCtrl@@UAE@XZ:PROC			; CToolTipCtrl::~CToolTipCtrl
EXTRN	??_ECxSkinButton@@UAEPAXI@Z:PROC		; CxSkinButton::`vector deleting destructor'
EXTRN	@__security_check_cookie@4:PROC
EXTRN	___CxxFrameHandler3:PROC
EXTRN	_memcpy:PROC
EXTRN	_memset:PROC
EXTRN	??_7type_info@@6B@:QWORD			; type_info::`vftable'
EXTRN	___security_cookie:DWORD
;	COMDAT ??_R1A@?0A@EA@CxSkinButton@@8
rdata$r	SEGMENT
??_R1A@?0A@EA@CxSkinButton@@8 DD FLAT:??_R0?AVCxSkinButton@@@8 ; CxSkinButton::`RTTI Base Class Descriptor at (0,-1,0,64)'
	DD	04H
	DD	00H
	DD	0ffffffffH
	DD	00H
	DD	040H
	DD	FLAT:??_R3CxSkinButton@@8
rdata$r	ENDS
;	COMDAT ??_R2CxSkinButton@@8
rdata$r	SEGMENT
??_R2CxSkinButton@@8 DD FLAT:??_R1A@?0A@EA@CxSkinButton@@8 ; CxSkinButton::`RTTI Base Class Array'
	DD	FLAT:??_R1A@?0A@EA@CButton@@8
	DD	FLAT:??_R1A@?0A@EA@CWnd@@8
	DD	FLAT:??_R1A@?0A@EA@CCmdTarget@@8
	DD	FLAT:??_R1A@?0A@EA@CObject@@8
rdata$r	ENDS
;	COMDAT ??_R3CxSkinButton@@8
rdata$r	SEGMENT
??_R3CxSkinButton@@8 DD 00H				; CxSkinButton::`RTTI Class Hierarchy Descriptor'
	DD	00H
	DD	05H
	DD	FLAT:??_R2CxSkinButton@@8
rdata$r	ENDS
;	COMDAT ??_R0?AVCxSkinButton@@@8
data$rs	SEGMENT
??_R0?AVCxSkinButton@@@8 DD FLAT:??_7type_info@@6B@	; CxSkinButton `RTTI Type Descriptor'
	DD	00H
	DB	'.?AVCxSkinButton@@', 00H
data$rs	ENDS
;	COMDAT ??_R4CxSkinButton@@6B@
rdata$r	SEGMENT
??_R4CxSkinButton@@6B@ DD 00H				; CxSkinButton::`RTTI Complete Object Locator'
	DD	00H
	DD	00H
	DD	FLAT:??_R0?AVCxSkinButton@@@8
	DD	FLAT:??_R3CxSkinButton@@8
rdata$r	ENDS
;	COMDAT ?messageMap@?1??GetThisMessageMap@CxSkinButton@@KGPBUAFX_MSGMAP@@XZ@4U3@B
CONST	SEGMENT
?messageMap@?1??GetThisMessageMap@CxSkinButton@@KGPBUAFX_MSGMAP@@XZ@4U3@B DD FLAT:?GetThisMessageMap@CWnd@@KGPBUAFX_MSGMAP@@XZ ; `CxSkinButton::GetThisMessageMap'::`2'::messageMap
	DD	FLAT:?_messageEntries@?1??GetThisMessageMap@CxSkinButton@@KGPBUAFX_MSGMAP@@XZ@4QBUAFX_MSGMAP_ENTRY@@B
CONST	ENDS
;	COMDAT ?_messageEntries@?1??GetThisMessageMap@CxSkinButton@@KGPBUAFX_MSGMAP@@XZ@4QBUAFX_MSGMAP_ENTRY@@B
CONST	SEGMENT
?_messageEntries@?1??GetThisMessageMap@CxSkinButton@@KGPBUAFX_MSGMAP@@XZ@4QBUAFX_MSGMAP_ENTRY@@B DD 014H ; `CxSkinButton::GetThisMessageMap'::`2'::_messageEntries
	DD	00H
	DD	00H
	DD	00H
	DD	01H
	DD	FLAT:?OnEraseBkgnd@CxSkinButton@@IAEHPAVCDC@@@Z
	DD	0201H
	DD	00H
	DD	00H
	DD	00H
	DD	036H
	DD	FLAT:?OnLButtonDown@CxSkinButton@@IAEXIVCPoint@@@Z
	DD	0202H
	DD	00H
	DD	00H
	DD	00H
	DD	036H
	DD	FLAT:?OnLButtonUp@CxSkinButton@@IAEXIVCPoint@@@Z
	DD	0200H
	DD	00H
	DD	00H
	DD	00H
	DD	036H
	DD	FLAT:?OnMouseMove@CxSkinButton@@IAEXIVCPoint@@@Z
	DD	0203H
	DD	00H
	DD	00H
	DD	00H
	DD	036H
	DD	FLAT:?OnLButtonDblClk@CxSkinButton@@IAEXIVCPoint@@@Z
	DD	08H
	DD	00H
	DD	00H
	DD	00H
	DD	024H
	DD	FLAT:?OnKillFocus@CxSkinButton@@IAEXPAVCWnd@@@Z
	DD	0100H
	DD	00H
	DD	00H
	DD	00H
	DD	019H
	DD	FLAT:?OnKeyDown@CxSkinButton@@IAEXIII@Z
	DD	02a3H
	DD	00H
	DD	00H
	DD	00H
	DD	0eH
	DD	FLAT:?OnMouseLeave@CxSkinButton@@IAEJIJ@Z
	DD	0d60H
	DD	00H
	DD	00H
	DD	00H
	DD	0eH
	DD	FLAT:?OnRadioInfo@CxSkinButton@@IAEJIJ@Z
	DD	0f1H
	DD	00H
	DD	00H
	DD	00H
	DD	0eH
	DD	FLAT:?OnBMSetCheck@CxSkinButton@@IAEJIJ@Z
	DD	0f0H
	DD	00H
	DD	00H
	DD	00H
	DD	0eH
	DD	FLAT:?OnBMGetCheck@CxSkinButton@@IAEJIJ@Z
	DD	00H
	DD	00H
	DD	00H
	DD	00H
	DD	00H
	DD	00H
CONST	ENDS
;	COMDAT ??_7CxSkinButton@@6B@
CONST	SEGMENT
??_7CxSkinButton@@6B@ DD FLAT:??_R4CxSkinButton@@6B@	; CxSkinButton::`vftable'
	DD	FLAT:?GetRuntimeClass@CButton@@UBEPAUCRuntimeClass@@XZ
	DD	FLAT:??_ECxSkinButton@@UAEPAXI@Z
	DD	FLAT:?Serialize@CObject@@UAEXAAVCArchive@@@Z
	DD	FLAT:?AssertValid@CObject@@UBEXXZ
	DD	FLAT:?Dump@CObject@@UBEXAAVCDumpContext@@@Z
	DD	FLAT:?OnCmdMsg@CCmdTarget@@UAEHIHPAXPAUAFX_CMDHANDLERINFO@@@Z
	DD	FLAT:?OnFinalRelease@CWnd@@UAEXXZ
	DD	FLAT:?IsInvokeAllowed@CCmdTarget@@UAEHJ@Z
	DD	FLAT:?GetDispatchIID@CCmdTarget@@UAEHPAU_GUID@@@Z
	DD	FLAT:?GetTypeInfoCount@CCmdTarget@@UAEIXZ
	DD	FLAT:?GetTypeLibCache@CCmdTarget@@UAEPAVCTypeLibCache@@XZ
	DD	FLAT:?GetTypeLib@CCmdTarget@@UAEJKPAPAUITypeLib@@@Z
	DD	FLAT:?GetMessageMap@CxSkinButton@@MBEPBUAFX_MSGMAP@@XZ
	DD	FLAT:?GetCommandMap@CCmdTarget@@MBEPBUAFX_OLECMDMAP@@XZ
	DD	FLAT:?GetDispatchMap@CCmdTarget@@MBEPBUAFX_DISPMAP@@XZ
	DD	FLAT:?GetConnectionMap@CCmdTarget@@MBEPBUAFX_CONNECTIONMAP@@XZ
	DD	FLAT:?GetInterfaceMap@CWnd@@MBEPBUAFX_INTERFACEMAP@@XZ
	DD	FLAT:?GetEventSinkMap@CCmdTarget@@MBEPBUAFX_EVENTSINKMAP@@XZ
	DD	FLAT:?OnCreateAggregates@CCmdTarget@@UAEHXZ
	DD	FLAT:?GetInterfaceHook@CCmdTarget@@UAEPAUIUnknown@@PBX@Z
	DD	FLAT:?GetExtraConnectionPoints@CCmdTarget@@MAEHPAVCPtrArray@@@Z
	DD	FLAT:?GetConnectionHook@CCmdTarget@@MAEPAUIConnectionPoint@@ABU_GUID@@@Z
	DD	FLAT:?PreSubclassWindow@CxSkinButton@@MAEXXZ
	DD	FLAT:?Create@CWnd@@UAEHPBD0KABUtagRECT@@PAV1@IPAUCCreateContext@@@Z
	DD	FLAT:?CreateEx@CWnd@@UAEHKPBD0KABUtagRECT@@PAV1@IPAX@Z
	DD	FLAT:?CreateEx@CWnd@@UAEHKPBD0KHHHHPAUHWND__@@PAUHMENU__@@PAX@Z
	DD	FLAT:?DestroyWindow@CWnd@@UAEHXZ
	DD	FLAT:?PreCreateWindow@CWnd@@UAEHAAUtagCREATESTRUCTA@@@Z
	DD	FLAT:?CalcWindowRect@CWnd@@UAEXPAUtagRECT@@I@Z
	DD	FLAT:?GetMenu@CWnd@@UBEPAVCMenu@@XZ
	DD	FLAT:?SetMenu@CWnd@@UAEHPAVCMenu@@@Z
	DD	FLAT:?OnToolHitTest@CWnd@@UBEHVCPoint@@PAUtagTOOLINFOA@@@Z
	DD	FLAT:?GetScrollBarCtrl@CWnd@@UBEPAVCScrollBar@@H@Z
	DD	FLAT:?WinHelpA@CWnd@@UAEXKI@Z
	DD	FLAT:?HtmlHelpA@CWnd@@UAEXKI@Z
	DD	FLAT:?WinHelpInternal@CWnd@@UAEXKI@Z
	DD	FLAT:?ContinueModal@CWnd@@UAEHXZ
	DD	FLAT:?EndModalLoop@CWnd@@UAEXH@Z
	DD	FLAT:?OnDrawIconicThumbnailOrLivePreview@CWnd@@UAEXAAVCDC@@VCRect@@VCSize@@HAAH@Z
	DD	FLAT:?EnsureStdObj@CWnd@@UAEJXZ
	DD	FLAT:?get_accParent@CWnd@@UAEJPAPAUIDispatch@@@Z
	DD	FLAT:?get_accChildCount@CWnd@@UAEJPAJ@Z
	DD	FLAT:?get_accChild@CWnd@@UAEJUtagVARIANT@@PAPAUIDispatch@@@Z
	DD	FLAT:?get_accName@CWnd@@UAEJUtagVARIANT@@PAPA_W@Z
	DD	FLAT:?get_accValue@CWnd@@UAEJUtagVARIANT@@PAPA_W@Z
	DD	FLAT:?get_accDescription@CWnd@@UAEJUtagVARIANT@@PAPA_W@Z
	DD	FLAT:?get_accRole@CWnd@@UAEJUtagVARIANT@@PAU2@@Z
	DD	FLAT:?get_accState@CWnd@@UAEJUtagVARIANT@@PAU2@@Z
	DD	FLAT:?get_accHelp@CWnd@@UAEJUtagVARIANT@@PAPA_W@Z
	DD	FLAT:?get_accHelpTopic@CWnd@@UAEJPAPA_WUtagVARIANT@@PAJ@Z
	DD	FLAT:?get_accKeyboardShortcut@CWnd@@UAEJUtagVARIANT@@PAPA_W@Z
	DD	FLAT:?get_accFocus@CWnd@@UAEJPAUtagVARIANT@@@Z
	DD	FLAT:?get_accSelection@CWnd@@UAEJPAUtagVARIANT@@@Z
	DD	FLAT:?get_accDefaultAction@CWnd@@UAEJUtagVARIANT@@PAPA_W@Z
	DD	FLAT:?accSelect@CWnd@@UAEJJUtagVARIANT@@@Z
	DD	FLAT:?accLocation@CWnd@@UAEJPAJ000UtagVARIANT@@@Z
	DD	FLAT:?accNavigate@CWnd@@UAEJJUtagVARIANT@@PAU2@@Z
	DD	FLAT:?accHitTest@CWnd@@UAEJJJPAUtagVARIANT@@@Z
	DD	FLAT:?accDoDefaultAction@CWnd@@UAEJUtagVARIANT@@@Z
	DD	FLAT:?put_accName@CWnd@@UAEJUtagVARIANT@@PA_W@Z
	DD	FLAT:?put_accValue@CWnd@@UAEJUtagVARIANT@@PA_W@Z
	DD	FLAT:?SetProxy@CWnd@@UAEJPAUIAccessibleProxy@@@Z
	DD	FLAT:?CreateAccessibleProxy@CWnd@@UAEJIJPAJ@Z
	DD	FLAT:?OnCommand@CWnd@@MAEHIJ@Z
	DD	FLAT:?OnNotify@CWnd@@MAEHIJPAJ@Z
	DD	FLAT:?GetSuperWndProcAddr@CWnd@@MAEPAP6GJPAUHWND__@@IIJ@ZXZ
	DD	FLAT:?DoDataExchange@CWnd@@MAEXPAVCDataExchange@@@Z
	DD	FLAT:?BeginModalState@CWnd@@UAEXXZ
	DD	FLAT:?EndModalState@CWnd@@UAEXXZ
	DD	FLAT:?PreTranslateMessage@CWnd@@UAEHPAUtagMSG@@@Z
	DD	FLAT:?OnAmbientProperty@CWnd@@UAEHPAVCOleControlSite@@JPAUtagVARIANT@@@Z
	DD	FLAT:?WindowProc@CWnd@@MAEJIIJ@Z
	DD	FLAT:?OnWndMsg@CWnd@@MAEHIIJPAJ@Z
	DD	FLAT:?DefWindowProcA@CWnd@@MAEJIIJ@Z
	DD	FLAT:?PostNcDestroy@CWnd@@MAEXXZ
	DD	FLAT:?OnChildNotify@CButton@@MAEHIIJPAJ@Z
	DD	FLAT:?OnTouchInputs@CWnd@@MAEHIPAUtagTOUCHINPUT@@@Z
	DD	FLAT:?OnTouchInput@CWnd@@MAEHVCPoint@@HHPAUtagTOUCHINPUT@@@Z
	DD	FLAT:?GetGestureStatus@CWnd@@MAEKVCPoint@@@Z
	DD	FLAT:?OnGestureZoom@CWnd@@MAEHVCPoint@@J@Z
	DD	FLAT:?OnGesturePan@CWnd@@MAEHVCPoint@@0@Z
	DD	FLAT:?OnGestureRotate@CWnd@@MAEHVCPoint@@N@Z
	DD	FLAT:?OnGestureTwoFingerTap@CWnd@@MAEHVCPoint@@@Z
	DD	FLAT:?OnGesturePressAndTap@CWnd@@MAEHVCPoint@@J@Z
	DD	FLAT:?ResizeDynamicLayout@CWnd@@MAEXXZ
	DD	FLAT:?CheckAutoCenter@CWnd@@UAEHXZ
	DD	FLAT:?IsFrameWnd@CWnd@@UBEHXZ
	DD	FLAT:?CreateControlContainer@CWnd@@MAEHPAPAVCOleControlContainer@@@Z
	DD	FLAT:?CreateControlSite@CWnd@@MAEHPAVCOleControlContainer@@PAPAVCOleControlSite@@IABU_GUID@@@Z
	DD	FLAT:?SetOccDialogInfo@CWnd@@MAEHPAU_AFX_OCC_DIALOG_INFO@@@Z
	DD	FLAT:?GetOccDialogInfo@CWnd@@MAEPAU_AFX_OCC_DIALOG_INFO@@XZ
	DD	FLAT:?Create@CButton@@UAEHPBDKABUtagRECT@@PAVCWnd@@I@Z
	DD	FLAT:?DrawItem@CxSkinButton@@UAEXPAUtagDRAWITEMSTRUCT@@@Z
CONST	ENDS
;	COMDAT ??_R1A@?0A@EA@CButton@@8
rdata$r	SEGMENT
??_R1A@?0A@EA@CButton@@8 DD FLAT:??_R0?AVCButton@@@8	; CButton::`RTTI Base Class Descriptor at (0,-1,0,64)'
	DD	03H
	DD	00H
	DD	0ffffffffH
	DD	00H
	DD	040H
	DD	FLAT:??_R3CButton@@8
rdata$r	ENDS
;	COMDAT ??_R2CButton@@8
rdata$r	SEGMENT
??_R2CButton@@8 DD FLAT:??_R1A@?0A@EA@CButton@@8	; CButton::`RTTI Base Class Array'
	DD	FLAT:??_R1A@?0A@EA@CWnd@@8
	DD	FLAT:??_R1A@?0A@EA@CCmdTarget@@8
	DD	FLAT:??_R1A@?0A@EA@CObject@@8
rdata$r	ENDS
;	COMDAT ??_R3CButton@@8
rdata$r	SEGMENT
??_R3CButton@@8 DD 00H					; CButton::`RTTI Class Hierarchy Descriptor'
	DD	00H
	DD	04H
	DD	FLAT:??_R2CButton@@8
rdata$r	ENDS
;	COMDAT ??_R0?AVCButton@@@8
data$rs	SEGMENT
??_R0?AVCButton@@@8 DD FLAT:??_7type_info@@6B@		; CButton `RTTI Type Descriptor'
	DD	00H
	DB	'.?AVCButton@@', 00H
data$rs	ENDS
;	COMDAT ??_R4CButton@@6B@
rdata$r	SEGMENT
??_R4CButton@@6B@ DD 00H				; CButton::`RTTI Complete Object Locator'
	DD	00H
	DD	00H
	DD	FLAT:??_R0?AVCButton@@@8
	DD	FLAT:??_R3CButton@@8
rdata$r	ENDS
;	COMDAT ??_R2CCmdTarget@@8
rdata$r	SEGMENT
??_R2CCmdTarget@@8 DD FLAT:??_R1A@?0A@EA@CCmdTarget@@8	; CCmdTarget::`RTTI Base Class Array'
	DD	FLAT:??_R1A@?0A@EA@CObject@@8
rdata$r	ENDS
;	COMDAT ??_R3CCmdTarget@@8
rdata$r	SEGMENT
??_R3CCmdTarget@@8 DD 00H				; CCmdTarget::`RTTI Class Hierarchy Descriptor'
	DD	00H
	DD	02H
	DD	FLAT:??_R2CCmdTarget@@8
rdata$r	ENDS
;	COMDAT ??_R0?AVCCmdTarget@@@8
data$rs	SEGMENT
??_R0?AVCCmdTarget@@@8 DD FLAT:??_7type_info@@6B@	; CCmdTarget `RTTI Type Descriptor'
	DD	00H
	DB	'.?AVCCmdTarget@@', 00H
data$rs	ENDS
;	COMDAT ??_R1A@?0A@EA@CCmdTarget@@8
rdata$r	SEGMENT
??_R1A@?0A@EA@CCmdTarget@@8 DD FLAT:??_R0?AVCCmdTarget@@@8 ; CCmdTarget::`RTTI Base Class Descriptor at (0,-1,0,64)'
	DD	01H
	DD	00H
	DD	0ffffffffH
	DD	00H
	DD	040H
	DD	FLAT:??_R3CCmdTarget@@8
rdata$r	ENDS
;	COMDAT ??_R2CWnd@@8
rdata$r	SEGMENT
??_R2CWnd@@8 DD	FLAT:??_R1A@?0A@EA@CWnd@@8		; CWnd::`RTTI Base Class Array'
	DD	FLAT:??_R1A@?0A@EA@CCmdTarget@@8
	DD	FLAT:??_R1A@?0A@EA@CObject@@8
rdata$r	ENDS
;	COMDAT ??_R3CWnd@@8
rdata$r	SEGMENT
??_R3CWnd@@8 DD	00H					; CWnd::`RTTI Class Hierarchy Descriptor'
	DD	00H
	DD	03H
	DD	FLAT:??_R2CWnd@@8
rdata$r	ENDS
;	COMDAT ??_R0?AVCWnd@@@8
data$rs	SEGMENT
??_R0?AVCWnd@@@8 DD FLAT:??_7type_info@@6B@		; CWnd `RTTI Type Descriptor'
	DD	00H
	DB	'.?AVCWnd@@', 00H
data$rs	ENDS
;	COMDAT ??_R1A@?0A@EA@CWnd@@8
rdata$r	SEGMENT
??_R1A@?0A@EA@CWnd@@8 DD FLAT:??_R0?AVCWnd@@@8		; CWnd::`RTTI Base Class Descriptor at (0,-1,0,64)'
	DD	02H
	DD	00H
	DD	0ffffffffH
	DD	00H
	DD	040H
	DD	FLAT:??_R3CWnd@@8
rdata$r	ENDS
;	COMDAT ??_R1A@?0A@EA@CBitmap@@8
rdata$r	SEGMENT
??_R1A@?0A@EA@CBitmap@@8 DD FLAT:??_R0?AVCBitmap@@@8	; CBitmap::`RTTI Base Class Descriptor at (0,-1,0,64)'
	DD	02H
	DD	00H
	DD	0ffffffffH
	DD	00H
	DD	040H
	DD	FLAT:??_R3CBitmap@@8
rdata$r	ENDS
;	COMDAT ??_R2CBitmap@@8
rdata$r	SEGMENT
??_R2CBitmap@@8 DD FLAT:??_R1A@?0A@EA@CBitmap@@8	; CBitmap::`RTTI Base Class Array'
	DD	FLAT:??_R1A@?0A@EA@CGdiObject@@8
	DD	FLAT:??_R1A@?0A@EA@CObject@@8
rdata$r	ENDS
;	COMDAT ??_R3CBitmap@@8
rdata$r	SEGMENT
??_R3CBitmap@@8 DD 00H					; CBitmap::`RTTI Class Hierarchy Descriptor'
	DD	00H
	DD	03H
	DD	FLAT:??_R2CBitmap@@8
rdata$r	ENDS
;	COMDAT ??_R0?AVCBitmap@@@8
data$rs	SEGMENT
??_R0?AVCBitmap@@@8 DD FLAT:??_7type_info@@6B@		; CBitmap `RTTI Type Descriptor'
	DD	00H
	DB	'.?AVCBitmap@@', 00H
data$rs	ENDS
;	COMDAT ??_R4CBitmap@@6B@
rdata$r	SEGMENT
??_R4CBitmap@@6B@ DD 00H				; CBitmap::`RTTI Complete Object Locator'
	DD	00H
	DD	00H
	DD	FLAT:??_R0?AVCBitmap@@@8
	DD	FLAT:??_R3CBitmap@@8
rdata$r	ENDS
;	COMDAT ??_R1A@?0A@EA@CGdiObject@@8
rdata$r	SEGMENT
??_R1A@?0A@EA@CGdiObject@@8 DD FLAT:??_R0?AVCGdiObject@@@8 ; CGdiObject::`RTTI Base Class Descriptor at (0,-1,0,64)'
	DD	01H
	DD	00H
	DD	0ffffffffH
	DD	00H
	DD	040H
	DD	FLAT:??_R3CGdiObject@@8
rdata$r	ENDS
;	COMDAT ??_R2CGdiObject@@8
rdata$r	SEGMENT
??_R2CGdiObject@@8 DD FLAT:??_R1A@?0A@EA@CGdiObject@@8	; CGdiObject::`RTTI Base Class Array'
	DD	FLAT:??_R1A@?0A@EA@CObject@@8
rdata$r	ENDS
;	COMDAT ??_R3CGdiObject@@8
rdata$r	SEGMENT
??_R3CGdiObject@@8 DD 00H				; CGdiObject::`RTTI Class Hierarchy Descriptor'
	DD	00H
	DD	02H
	DD	FLAT:??_R2CGdiObject@@8
rdata$r	ENDS
;	COMDAT ??_R0?AVCGdiObject@@@8
data$rs	SEGMENT
??_R0?AVCGdiObject@@@8 DD FLAT:??_7type_info@@6B@	; CGdiObject `RTTI Type Descriptor'
	DD	00H
	DB	'.?AVCGdiObject@@', 00H
data$rs	ENDS
;	COMDAT ??_R4CGdiObject@@6B@
rdata$r	SEGMENT
??_R4CGdiObject@@6B@ DD 00H				; CGdiObject::`RTTI Complete Object Locator'
	DD	00H
	DD	00H
	DD	FLAT:??_R0?AVCGdiObject@@@8
	DD	FLAT:??_R3CGdiObject@@8
rdata$r	ENDS
;	COMDAT ??_R1A@?0A@EA@CObject@@8
rdata$r	SEGMENT
??_R1A@?0A@EA@CObject@@8 DD FLAT:??_R0?AVCObject@@@8	; CObject::`RTTI Base Class Descriptor at (0,-1,0,64)'
	DD	00H
	DD	00H
	DD	0ffffffffH
	DD	00H
	DD	040H
	DD	FLAT:??_R3CObject@@8
rdata$r	ENDS
;	COMDAT ??_R2CObject@@8
rdata$r	SEGMENT
??_R2CObject@@8 DD FLAT:??_R1A@?0A@EA@CObject@@8	; CObject::`RTTI Base Class Array'
rdata$r	ENDS
;	COMDAT ??_R3CObject@@8
rdata$r	SEGMENT
??_R3CObject@@8 DD 00H					; CObject::`RTTI Class Hierarchy Descriptor'
	DD	00H
	DD	01H
	DD	FLAT:??_R2CObject@@8
rdata$r	ENDS
;	COMDAT ??_R0?AVCObject@@@8
data$rs	SEGMENT
??_R0?AVCObject@@@8 DD FLAT:??_7type_info@@6B@		; CObject `RTTI Type Descriptor'
	DD	00H
	DB	'.?AVCObject@@', 00H
data$rs	ENDS
;	COMDAT ??_C@_0N@OMEMOKLE@?$CFTs?5?$CI?$CFTs?3?$CFd?$CJ@
CONST	SEGMENT
??_C@_0N@OMEMOKLE@?$CFTs?5?$CI?$CFTs?3?$CFd?$CJ@ DB '%Ts (%Ts:%d)', 00H ; `string'
CONST	ENDS
;	COMDAT ??_C@_0BB@HBOOMJBF@?$CFTs?5?$CI?$CFTs?3?$CFd?$CJ?6?$CFTs@
CONST	SEGMENT
??_C@_0BB@HBOOMJBF@?$CFTs?5?$CI?$CFTs?3?$CFd?$CJ?6?$CFTs@ DB '%Ts (%Ts:%d'
	DB	')', 0aH, '%Ts', 00H				; `string'
CONST	ENDS
;	COMDAT ??_C@_0BP@OIEOKIDM@Exception?5thrown?5in?5destructor@
CONST	SEGMENT
??_C@_0BP@OIEOKIDM@Exception?5thrown?5in?5destructor@ DB 'Exception throw'
	DB	'n in destructor', 00H			; `string'
CONST	ENDS
;	COMDAT ??_C@_0HD@JJCHHHNK@C?3?2Program?5Files?5?$CIx86?$CJ?2Microsof@
CONST	SEGMENT
??_C@_0HD@JJCHHHNK@C?3?2Program?5Files?5?$CIx86?$CJ?2Microsof@ DB 'C:\Pro'
	DB	'gram Files (x86)\Microsoft Visual Studio\2019\Community\VC\To'
	DB	'ols\MSVC\14.29.30133\atlmfc\include\afxwin1.inl', 00H ; `string'
CONST	ENDS
;	COMDAT ??_7CButton@@6B@
CONST	SEGMENT
??_7CButton@@6B@ DD FLAT:??_R4CButton@@6B@		; CButton::`vftable'
	DD	FLAT:?GetRuntimeClass@CButton@@UBEPAUCRuntimeClass@@XZ
	DD	FLAT:??_ECButton@@UAEPAXI@Z
	DD	FLAT:?Serialize@CObject@@UAEXAAVCArchive@@@Z
	DD	FLAT:?AssertValid@CObject@@UBEXXZ
	DD	FLAT:?Dump@CObject@@UBEXAAVCDumpContext@@@Z
	DD	FLAT:?OnCmdMsg@CCmdTarget@@UAEHIHPAXPAUAFX_CMDHANDLERINFO@@@Z
	DD	FLAT:?OnFinalRelease@CWnd@@UAEXXZ
	DD	FLAT:?IsInvokeAllowed@CCmdTarget@@UAEHJ@Z
	DD	FLAT:?GetDispatchIID@CCmdTarget@@UAEHPAU_GUID@@@Z
	DD	FLAT:?GetTypeInfoCount@CCmdTarget@@UAEIXZ
	DD	FLAT:?GetTypeLibCache@CCmdTarget@@UAEPAVCTypeLibCache@@XZ
	DD	FLAT:?GetTypeLib@CCmdTarget@@UAEJKPAPAUITypeLib@@@Z
	DD	FLAT:?GetMessageMap@CWnd@@MBEPBUAFX_MSGMAP@@XZ
	DD	FLAT:?GetCommandMap@CCmdTarget@@MBEPBUAFX_OLECMDMAP@@XZ
	DD	FLAT:?GetDispatchMap@CCmdTarget@@MBEPBUAFX_DISPMAP@@XZ
	DD	FLAT:?GetConnectionMap@CCmdTarget@@MBEPBUAFX_CONNECTIONMAP@@XZ
	DD	FLAT:?GetInterfaceMap@CWnd@@MBEPBUAFX_INTERFACEMAP@@XZ
	DD	FLAT:?GetEventSinkMap@CCmdTarget@@MBEPBUAFX_EVENTSINKMAP@@XZ
	DD	FLAT:?OnCreateAggregates@CCmdTarget@@UAEHXZ
	DD	FLAT:?GetInterfaceHook@CCmdTarget@@UAEPAUIUnknown@@PBX@Z
	DD	FLAT:?GetExtraConnectionPoints@CCmdTarget@@MAEHPAVCPtrArray@@@Z
	DD	FLAT:?GetConnectionHook@CCmdTarget@@MAEPAUIConnectionPoint@@ABU_GUID@@@Z
	DD	FLAT:?PreSubclassWindow@CWnd@@UAEXXZ
	DD	FLAT:?Create@CWnd@@UAEHPBD0KABUtagRECT@@PAV1@IPAUCCreateContext@@@Z
	DD	FLAT:?CreateEx@CWnd@@UAEHKPBD0KABUtagRECT@@PAV1@IPAX@Z
	DD	FLAT:?CreateEx@CWnd@@UAEHKPBD0KHHHHPAUHWND__@@PAUHMENU__@@PAX@Z
	DD	FLAT:?DestroyWindow@CWnd@@UAEHXZ
	DD	FLAT:?PreCreateWindow@CWnd@@UAEHAAUtagCREATESTRUCTA@@@Z
	DD	FLAT:?CalcWindowRect@CWnd@@UAEXPAUtagRECT@@I@Z
	DD	FLAT:?GetMenu@CWnd@@UBEPAVCMenu@@XZ
	DD	FLAT:?SetMenu@CWnd@@UAEHPAVCMenu@@@Z
	DD	FLAT:?OnToolHitTest@CWnd@@UBEHVCPoint@@PAUtagTOOLINFOA@@@Z
	DD	FLAT:?GetScrollBarCtrl@CWnd@@UBEPAVCScrollBar@@H@Z
	DD	FLAT:?WinHelpA@CWnd@@UAEXKI@Z
	DD	FLAT:?HtmlHelpA@CWnd@@UAEXKI@Z
	DD	FLAT:?WinHelpInternal@CWnd@@UAEXKI@Z
	DD	FLAT:?ContinueModal@CWnd@@UAEHXZ
	DD	FLAT:?EndModalLoop@CWnd@@UAEXH@Z
	DD	FLAT:?OnDrawIconicThumbnailOrLivePreview@CWnd@@UAEXAAVCDC@@VCRect@@VCSize@@HAAH@Z
	DD	FLAT:?EnsureStdObj@CWnd@@UAEJXZ
	DD	FLAT:?get_accParent@CWnd@@UAEJPAPAUIDispatch@@@Z
	DD	FLAT:?get_accChildCount@CWnd@@UAEJPAJ@Z
	DD	FLAT:?get_accChild@CWnd@@UAEJUtagVARIANT@@PAPAUIDispatch@@@Z
	DD	FLAT:?get_accName@CWnd@@UAEJUtagVARIANT@@PAPA_W@Z
	DD	FLAT:?get_accValue@CWnd@@UAEJUtagVARIANT@@PAPA_W@Z
	DD	FLAT:?get_accDescription@CWnd@@UAEJUtagVARIANT@@PAPA_W@Z
	DD	FLAT:?get_accRole@CWnd@@UAEJUtagVARIANT@@PAU2@@Z
	DD	FLAT:?get_accState@CWnd@@UAEJUtagVARIANT@@PAU2@@Z
	DD	FLAT:?get_accHelp@CWnd@@UAEJUtagVARIANT@@PAPA_W@Z
	DD	FLAT:?get_accHelpTopic@CWnd@@UAEJPAPA_WUtagVARIANT@@PAJ@Z
	DD	FLAT:?get_accKeyboardShortcut@CWnd@@UAEJUtagVARIANT@@PAPA_W@Z
	DD	FLAT:?get_accFocus@CWnd@@UAEJPAUtagVARIANT@@@Z
	DD	FLAT:?get_accSelection@CWnd@@UAEJPAUtagVARIANT@@@Z
	DD	FLAT:?get_accDefaultAction@CWnd@@UAEJUtagVARIANT@@PAPA_W@Z
	DD	FLAT:?accSelect@CWnd@@UAEJJUtagVARIANT@@@Z
	DD	FLAT:?accLocation@CWnd@@UAEJPAJ000UtagVARIANT@@@Z
	DD	FLAT:?accNavigate@CWnd@@UAEJJUtagVARIANT@@PAU2@@Z
	DD	FLAT:?accHitTest@CWnd@@UAEJJJPAUtagVARIANT@@@Z
	DD	FLAT:?accDoDefaultAction@CWnd@@UAEJUtagVARIANT@@@Z
	DD	FLAT:?put_accName@CWnd@@UAEJUtagVARIANT@@PA_W@Z
	DD	FLAT:?put_accValue@CWnd@@UAEJUtagVARIANT@@PA_W@Z
	DD	FLAT:?SetProxy@CWnd@@UAEJPAUIAccessibleProxy@@@Z
	DD	FLAT:?CreateAccessibleProxy@CWnd@@UAEJIJPAJ@Z
	DD	FLAT:?OnCommand@CWnd@@MAEHIJ@Z
	DD	FLAT:?OnNotify@CWnd@@MAEHIJPAJ@Z
	DD	FLAT:?GetSuperWndProcAddr@CWnd@@MAEPAP6GJPAUHWND__@@IIJ@ZXZ
	DD	FLAT:?DoDataExchange@CWnd@@MAEXPAVCDataExchange@@@Z
	DD	FLAT:?BeginModalState@CWnd@@UAEXXZ
	DD	FLAT:?EndModalState@CWnd@@UAEXXZ
	DD	FLAT:?PreTranslateMessage@CWnd@@UAEHPAUtagMSG@@@Z
	DD	FLAT:?OnAmbientProperty@CWnd@@UAEHPAVCOleControlSite@@JPAUtagVARIANT@@@Z
	DD	FLAT:?WindowProc@CWnd@@MAEJIIJ@Z
	DD	FLAT:?OnWndMsg@CWnd@@MAEHIIJPAJ@Z
	DD	FLAT:?DefWindowProcA@CWnd@@MAEJIIJ@Z
	DD	FLAT:?PostNcDestroy@CWnd@@MAEXXZ
	DD	FLAT:?OnChildNotify@CButton@@MAEHIIJPAJ@Z
	DD	FLAT:?OnTouchInputs@CWnd@@MAEHIPAUtagTOUCHINPUT@@@Z
	DD	FLAT:?OnTouchInput@CWnd@@MAEHVCPoint@@HHPAUtagTOUCHINPUT@@@Z
	DD	FLAT:?GetGestureStatus@CWnd@@MAEKVCPoint@@@Z
	DD	FLAT:?OnGestureZoom@CWnd@@MAEHVCPoint@@J@Z
	DD	FLAT:?OnGesturePan@CWnd@@MAEHVCPoint@@0@Z
	DD	FLAT:?OnGestureRotate@CWnd@@MAEHVCPoint@@N@Z
	DD	FLAT:?OnGestureTwoFingerTap@CWnd@@MAEHVCPoint@@@Z
	DD	FLAT:?OnGesturePressAndTap@CWnd@@MAEHVCPoint@@J@Z
	DD	FLAT:?ResizeDynamicLayout@CWnd@@MAEXXZ
	DD	FLAT:?CheckAutoCenter@CWnd@@UAEHXZ
	DD	FLAT:?IsFrameWnd@CWnd@@UBEHXZ
	DD	FLAT:?CreateControlContainer@CWnd@@MAEHPAPAVCOleControlContainer@@@Z
	DD	FLAT:?CreateControlSite@CWnd@@MAEHPAVCOleControlContainer@@PAPAVCOleControlSite@@IABU_GUID@@@Z
	DD	FLAT:?SetOccDialogInfo@CWnd@@MAEHPAU_AFX_OCC_DIALOG_INFO@@@Z
	DD	FLAT:?GetOccDialogInfo@CWnd@@MAEPAU_AFX_OCC_DIALOG_INFO@@XZ
	DD	FLAT:?Create@CButton@@UAEHPBDKABUtagRECT@@PAVCWnd@@I@Z
	DD	FLAT:?DrawItem@CButton@@UAEXPAUtagDRAWITEMSTRUCT@@@Z
CONST	ENDS
;	COMDAT ??_7CBitmap@@6B@
CONST	SEGMENT
??_7CBitmap@@6B@ DD FLAT:??_R4CBitmap@@6B@		; CBitmap::`vftable'
	DD	FLAT:?GetRuntimeClass@CBitmap@@UBEPAUCRuntimeClass@@XZ
	DD	FLAT:??_ECBitmap@@UAEPAXI@Z
	DD	FLAT:?Serialize@CObject@@UAEXAAVCArchive@@@Z
	DD	FLAT:?AssertValid@CObject@@UBEXXZ
	DD	FLAT:?Dump@CObject@@UBEXAAVCDumpContext@@@Z
CONST	ENDS
;	COMDAT ??_7CGdiObject@@6B@
CONST	SEGMENT
??_7CGdiObject@@6B@ DD FLAT:??_R4CGdiObject@@6B@	; CGdiObject::`vftable'
	DD	FLAT:?GetRuntimeClass@CGdiObject@@UBEPAUCRuntimeClass@@XZ
	DD	FLAT:??_ECGdiObject@@UAEPAXI@Z
	DD	FLAT:?Serialize@CObject@@UAEXAAVCArchive@@@Z
	DD	FLAT:?AssertValid@CObject@@UBEXXZ
	DD	FLAT:?Dump@CObject@@UBEXAAVCDumpContext@@@Z
CONST	ENDS
;	COMDAT ??_R0PAVCException@@@8
data$r	SEGMENT
??_R0PAVCException@@@8 DD FLAT:??_7type_info@@6B@	; CException * `RTTI Type Descriptor'
	DD	00H
	DB	'.PAVCException@@', 00H
data$r	ENDS
;	COMDAT xdata$x
xdata$x	SEGMENT
__ehfuncinfo$?DrawBitmap@CxSkinButton@@IAEXPAVCDC@@PAUHBITMAP__@@UtagRECT@@H@Z DD 019930522H
	DD	05H
	DD	FLAT:__unwindtable$?DrawBitmap@CxSkinButton@@IAEXPAVCDC@@PAUHBITMAP__@@UtagRECT@@H@Z
	DD	2 DUP(00H)
	DD	2 DUP(00H)
	DD	00H
	DD	01H
__unwindtable$?DrawBitmap@CxSkinButton@@IAEXPAVCDC@@PAUHBITMAP__@@UtagRECT@@H@Z DD 0ffffffffH
	DD	FLAT:__unwindfunclet$?DrawBitmap@CxSkinButton@@IAEXPAVCDC@@PAUHBITMAP__@@UtagRECT@@H@Z$4
	DD	0ffffffffH
	DD	FLAT:__unwindfunclet$?DrawBitmap@CxSkinButton@@IAEXPAVCDC@@PAUHBITMAP__@@UtagRECT@@H@Z$0
	DD	01H
	DD	FLAT:__unwindfunclet$?DrawBitmap@CxSkinButton@@IAEXPAVCDC@@PAUHBITMAP__@@UtagRECT@@H@Z$1
	DD	02H
	DD	FLAT:__unwindfunclet$?DrawBitmap@CxSkinButton@@IAEXPAVCDC@@PAUHBITMAP__@@UtagRECT@@H@Z$2
	DD	03H
	DD	FLAT:__unwindfunclet$?DrawBitmap@CxSkinButton@@IAEXPAVCDC@@PAUHBITMAP__@@UtagRECT@@H@Z$3
xdata$x	ENDS
;	COMDAT xdata$x
xdata$x	SEGMENT
__unwindtable$?FillWithBitmap@CxSkinButton@@IAEXPAVCDC@@PAUHBITMAP__@@UtagRECT@@@Z DD 0ffffffffH
	DD	FLAT:__unwindfunclet$?FillWithBitmap@CxSkinButton@@IAEXPAVCDC@@PAUHBITMAP__@@UtagRECT@@@Z$0
__ehfuncinfo$?FillWithBitmap@CxSkinButton@@IAEXPAVCDC@@PAUHBITMAP__@@UtagRECT@@@Z DD 019930522H
	DD	01H
	DD	FLAT:__unwindtable$?FillWithBitmap@CxSkinButton@@IAEXPAVCDC@@PAUHBITMAP__@@UtagRECT@@@Z
	DD	2 DUP(00H)
	DD	2 DUP(00H)
	DD	00H
	DD	01H
xdata$x	ENDS
;	COMDAT xdata$x
xdata$x	SEGMENT
__unwindtable$?CreateRgnFromBitmap@CxSkinButton@@IAEPAUHRGN__@@PAUHBITMAP__@@K@Z DD 0ffffffffH
	DD	FLAT:__unwindfunclet$?CreateRgnFromBitmap@CxSkinButton@@IAEPAUHRGN__@@PAUHBITMAP__@@K@Z$0
__ehfuncinfo$?CreateRgnFromBitmap@CxSkinButton@@IAEPAUHRGN__@@PAUHBITMAP__@@K@Z DD 019930522H
	DD	01H
	DD	FLAT:__unwindtable$?CreateRgnFromBitmap@CxSkinButton@@IAEPAUHRGN__@@PAUHBITMAP__@@K@Z
	DD	2 DUP(00H)
	DD	2 DUP(00H)
	DD	00H
	DD	01H
xdata$x	ENDS
;	COMDAT xdata$x
xdata$x	SEGMENT
__ehfuncinfo$?SetSkin@CxSkinButton@@QAEXV?$CStringT@DV?$StrTraitMFC_DLL@DV?$ChTraitsCRT@D@ATL@@@@@ATL@@00000FFF@Z DD 019930522H
	DD	06H
	DD	FLAT:__unwindtable$?SetSkin@CxSkinButton@@QAEXV?$CStringT@DV?$StrTraitMFC_DLL@DV?$ChTraitsCRT@D@ATL@@@@@ATL@@00000FFF@Z
	DD	2 DUP(00H)
	DD	2 DUP(00H)
	DD	00H
	DD	01H
__unwindtable$?SetSkin@CxSkinButton@@QAEXV?$CStringT@DV?$StrTraitMFC_DLL@DV?$ChTraitsCRT@D@ATL@@@@@ATL@@00000FFF@Z DD 0ffffffffH
	DD	FLAT:__unwindfunclet$?SetSkin@CxSkinButton@@QAEXV?$CStringT@DV?$StrTraitMFC_DLL@DV?$ChTraitsCRT@D@ATL@@@@@ATL@@00000FFF@Z$0
	DD	00H
	DD	FLAT:__unwindfunclet$?SetSkin@CxSkinButton@@QAEXV?$CStringT@DV?$StrTraitMFC_DLL@DV?$ChTraitsCRT@D@ATL@@@@@ATL@@00000FFF@Z$1
	DD	01H
	DD	FLAT:__unwindfunclet$?SetSkin@CxSkinButton@@QAEXV?$CStringT@DV?$StrTraitMFC_DLL@DV?$ChTraitsCRT@D@ATL@@@@@ATL@@00000FFF@Z$2
	DD	02H
	DD	FLAT:__unwindfunclet$?SetSkin@CxSkinButton@@QAEXV?$CStringT@DV?$StrTraitMFC_DLL@DV?$ChTraitsCRT@D@ATL@@@@@ATL@@00000FFF@Z$3
	DD	03H
	DD	FLAT:__unwindfunclet$?SetSkin@CxSkinButton@@QAEXV?$CStringT@DV?$StrTraitMFC_DLL@DV?$ChTraitsCRT@D@ATL@@@@@ATL@@00000FFF@Z$4
	DD	04H
	DD	FLAT:__unwindfunclet$?SetSkin@CxSkinButton@@QAEXV?$CStringT@DV?$StrTraitMFC_DLL@DV?$ChTraitsCRT@D@ATL@@@@@ATL@@00000FFF@Z$5
xdata$x	ENDS
;	COMDAT xdata$x
xdata$x	SEGMENT
__unwindtable$?SetToolTipText@CxSkinButton@@QAEXV?$CStringT@DV?$StrTraitMFC_DLL@DV?$ChTraitsCRT@D@ATL@@@@@ATL@@@Z DD 0ffffffffH
	DD	FLAT:__unwindfunclet$?SetToolTipText@CxSkinButton@@QAEXV?$CStringT@DV?$StrTraitMFC_DLL@DV?$ChTraitsCRT@D@ATL@@@@@ATL@@@Z$0
__ehfuncinfo$?SetToolTipText@CxSkinButton@@QAEXV?$CStringT@DV?$StrTraitMFC_DLL@DV?$ChTraitsCRT@D@ATL@@@@@ATL@@@Z DD 019930522H
	DD	01H
	DD	FLAT:__unwindtable$?SetToolTipText@CxSkinButton@@QAEXV?$CStringT@DV?$StrTraitMFC_DLL@DV?$ChTraitsCRT@D@ATL@@@@@ATL@@@Z
	DD	2 DUP(00H)
	DD	2 DUP(00H)
	DD	00H
	DD	01H
xdata$x	ENDS
;	COMDAT xdata$x
xdata$x	SEGMENT
__unwindtable$?DrawItem@CxSkinButton@@UAEXPAUtagDRAWITEMSTRUCT@@@Z DD 0ffffffffH
	DD	FLAT:__unwindfunclet$?DrawItem@CxSkinButton@@UAEXPAUtagDRAWITEMSTRUCT@@@Z$0
__ehfuncinfo$?DrawItem@CxSkinButton@@UAEXPAUtagDRAWITEMSTRUCT@@@Z DD 019930522H
	DD	01H
	DD	FLAT:__unwindtable$?DrawItem@CxSkinButton@@UAEXPAUtagDRAWITEMSTRUCT@@@Z
	DD	2 DUP(00H)
	DD	2 DUP(00H)
	DD	00H
	DD	01H
xdata$x	ENDS
;	COMDAT xdata$x
xdata$x	SEGMENT
__unwindtable$??0CxSkinButton@@QAE@XZ DD 0ffffffffH
	DD	FLAT:__unwindfunclet$??0CxSkinButton@@QAE@XZ$0
__ehfuncinfo$??0CxSkinButton@@QAE@XZ DD 019930522H
	DD	01H
	DD	FLAT:__unwindtable$??0CxSkinButton@@QAE@XZ
	DD	2 DUP(00H)
	DD	2 DUP(00H)
	DD	00H
	DD	01H
xdata$x	ENDS
;	COMDAT xdata$x
xdata$x	SEGMENT
__catchsym$??1CGdiObject@@UAE@XZ$3 DD 00H
	DD	FLAT:??_R0PAVCException@@@8
	DD	0fffffde4H
	DD	FLAT:__catch$??1CGdiObject@@UAE@XZ$0
__tryblocktable$??1CGdiObject@@UAE@XZ DD 00H
	DD	00H
	DD	02H
	DD	01H
	DD	FLAT:__catchsym$??1CGdiObject@@UAE@XZ$3
__unwindtable$??1CGdiObject@@UAE@XZ DD 0ffffffffH
	DD	00H
	DD	0ffffffffH
	DD	00H
	DD	01H
	DD	FLAT:__unwindfunclet$??1CGdiObject@@UAE@XZ$2
__ehfuncinfo$??1CGdiObject@@UAE@XZ DD 019930522H
	DD	03H
	DD	FLAT:__unwindtable$??1CGdiObject@@UAE@XZ
	DD	01H
	DD	FLAT:__tryblocktable$??1CGdiObject@@UAE@XZ
	DD	2 DUP(00H)
	DD	00H
	DD	05H
xdata$x	ENDS
; Function compile flags: /Ogtp
; File D:\git\src\IBK\IBK_DRFN\ProjSrc\SrcDrfn\Chart\comparechart\control\xSkinButton.cpp
; File C:\Program Files (x86)\Microsoft Visual Studio\2019\Community\VC\Tools\MSVC\14.29.30133\atlmfc\include\afxwin1.inl
; File D:\git\src\IBK\IBK_DRFN\ProjSrc\SrcDrfn\Chart\comparechart\control\xSkinButton.cpp
; File C:\Program Files (x86)\Microsoft Visual Studio\2019\Community\VC\Tools\MSVC\14.29.30133\atlmfc\include\afxwin1.inl
; File D:\git\src\IBK\IBK_DRFN\ProjSrc\SrcDrfn\Chart\comparechart\control\xSkinButton.cpp
; File C:\Program Files (x86)\Microsoft Visual Studio\2019\Community\VC\Tools\MSVC\14.29.30133\atlmfc\include\afxwin1.inl
; File D:\git\src\IBK\IBK_DRFN\ProjSrc\SrcDrfn\Chart\comparechart\control\xSkinButton.cpp
; File C:\Program Files (x86)\Microsoft Visual Studio\2019\Community\VC\Tools\MSVC\14.29.30133\atlmfc\include\afxwin1.inl
; File D:\git\src\IBK\IBK_DRFN\ProjSrc\SrcDrfn\Chart\comparechart\control\xSkinButton.cpp
; File C:\Program Files (x86)\Microsoft Visual Studio\2019\Community\VC\Tools\MSVC\14.29.30133\atlmfc\include\afxwin1.inl
; File D:\git\src\IBK\IBK_DRFN\ProjSrc\SrcDrfn\Chart\comparechart\control\xSkinButton.cpp
; File C:\Program Files (x86)\Microsoft Visual Studio\2019\Community\VC\Tools\MSVC\14.29.30133\atlmfc\include\afxwin1.inl
; File D:\git\src\IBK\IBK_DRFN\ProjSrc\SrcDrfn\Chart\comparechart\control\xSkinButton.cpp
; File C:\Program Files (x86)\Microsoft Visual Studio\2019\Community\VC\Tools\MSVC\14.29.30133\atlmfc\include\afx.inl
;	COMDAT ??_GCxSkinButton@@UAEPAXI@Z
_TEXT	SEGMENT
___flags$ = 8						; size = 4
??_GCxSkinButton@@UAEPAXI@Z PROC			; CxSkinButton::`scalar deleting destructor', COMDAT
; _this$ = ecx
  00000	55		 push	 ebp
  00001	8b ec		 mov	 ebp, esp
; File D:\git\src\IBK\IBK_DRFN\ProjSrc\SrcDrfn\Chart\comparechart\control\xSkinButton.cpp

; 46   : {

  00003	56		 push	 esi
  00004	8b f1		 mov	 esi, ecx

; 47   : 	if (hClipRgn) DeleteObject(hClipRgn);	// free clip region

  00006	8b 86 68 01 00
	00		 mov	 eax, DWORD PTR [esi+360]
  0000c	c7 06 00 00 00
	00		 mov	 DWORD PTR [esi], OFFSET ??_7CxSkinButton@@6B@
  00012	85 c0		 test	 eax, eax
  00014	74 07		 je	 SHORT $LN8@scalar
  00016	50		 push	 eax
  00017	ff 15 00 00 00
	00		 call	 DWORD PTR __imp__DeleteObject@4
$LN8@scalar:

; 48   : }

  0001d	8d 8e 58 01 00
	00		 lea	 ecx, DWORD PTR [esi+344]
; File C:\Program Files (x86)\Microsoft Visual Studio\2019\Community\VC\Tools\MSVC\14.29.30133\atlmfc\include\afxwin1.inl

; 179  : 	{ }

  00023	c7 01 00 00 00
	00		 mov	 DWORD PTR [ecx], OFFSET ??_7CBitmap@@6B@
  00029	e8 00 00 00 00	 call	 ??1CGdiObject@@UAE@XZ	; CGdiObject::~CGdiObject
; File D:\git\src\IBK\IBK_DRFN\ProjSrc\SrcDrfn\Chart\comparechart\control\xSkinButton.cpp

; 48   : }

  0002e	8d 8e 50 01 00
	00		 lea	 ecx, DWORD PTR [esi+336]
; File C:\Program Files (x86)\Microsoft Visual Studio\2019\Community\VC\Tools\MSVC\14.29.30133\atlmfc\include\afxwin1.inl

; 179  : 	{ }

  00034	c7 01 00 00 00
	00		 mov	 DWORD PTR [ecx], OFFSET ??_7CBitmap@@6B@
  0003a	e8 00 00 00 00	 call	 ??1CGdiObject@@UAE@XZ	; CGdiObject::~CGdiObject
; File D:\git\src\IBK\IBK_DRFN\ProjSrc\SrcDrfn\Chart\comparechart\control\xSkinButton.cpp

; 48   : }

  0003f	8d 8e 48 01 00
	00		 lea	 ecx, DWORD PTR [esi+328]
; File C:\Program Files (x86)\Microsoft Visual Studio\2019\Community\VC\Tools\MSVC\14.29.30133\atlmfc\include\afxwin1.inl

; 179  : 	{ }

  00045	c7 01 00 00 00
	00		 mov	 DWORD PTR [ecx], OFFSET ??_7CBitmap@@6B@
  0004b	e8 00 00 00 00	 call	 ??1CGdiObject@@UAE@XZ	; CGdiObject::~CGdiObject
; File D:\git\src\IBK\IBK_DRFN\ProjSrc\SrcDrfn\Chart\comparechart\control\xSkinButton.cpp

; 48   : }

  00050	8d 8e 40 01 00
	00		 lea	 ecx, DWORD PTR [esi+320]
; File C:\Program Files (x86)\Microsoft Visual Studio\2019\Community\VC\Tools\MSVC\14.29.30133\atlmfc\include\afxwin1.inl

; 179  : 	{ }

  00056	c7 01 00 00 00
	00		 mov	 DWORD PTR [ecx], OFFSET ??_7CBitmap@@6B@
  0005c	e8 00 00 00 00	 call	 ??1CGdiObject@@UAE@XZ	; CGdiObject::~CGdiObject
; File D:\git\src\IBK\IBK_DRFN\ProjSrc\SrcDrfn\Chart\comparechart\control\xSkinButton.cpp

; 48   : }

  00061	8d 8e 38 01 00
	00		 lea	 ecx, DWORD PTR [esi+312]
; File C:\Program Files (x86)\Microsoft Visual Studio\2019\Community\VC\Tools\MSVC\14.29.30133\atlmfc\include\afxwin1.inl

; 179  : 	{ }

  00067	c7 01 00 00 00
	00		 mov	 DWORD PTR [ecx], OFFSET ??_7CBitmap@@6B@
  0006d	e8 00 00 00 00	 call	 ??1CGdiObject@@UAE@XZ	; CGdiObject::~CGdiObject
; File D:\git\src\IBK\IBK_DRFN\ProjSrc\SrcDrfn\Chart\comparechart\control\xSkinButton.cpp

; 48   : }

  00072	8d 8e 30 01 00
	00		 lea	 ecx, DWORD PTR [esi+304]
; File C:\Program Files (x86)\Microsoft Visual Studio\2019\Community\VC\Tools\MSVC\14.29.30133\atlmfc\include\afxwin1.inl

; 179  : 	{ }

  00078	c7 01 00 00 00
	00		 mov	 DWORD PTR [ecx], OFFSET ??_7CBitmap@@6B@
  0007e	e8 00 00 00 00	 call	 ??1CGdiObject@@UAE@XZ	; CGdiObject::~CGdiObject
; File D:\git\src\IBK\IBK_DRFN\ProjSrc\SrcDrfn\Chart\comparechart\control\xSkinButton.cpp

; 48   : }

  00083	8d 8e 90 00 00
	00		 lea	 ecx, DWORD PTR [esi+144]
  00089	e8 00 00 00 00	 call	 ??1CToolTipCtrl@@UAE@XZ	; CToolTipCtrl::~CToolTipCtrl
  0008e	8b ce		 mov	 ecx, esi
  00090	e8 00 00 00 00	 call	 ??1CButton@@UAE@XZ	; CButton::~CButton
  00095	8b 45 08	 mov	 eax, DWORD PTR ___flags$[ebp]
  00098	a8 01		 test	 al, 1
  0009a	74 22		 je	 SHORT $LN31@scalar
  0009c	a8 04		 test	 al, 4
  0009e	75 10		 jne	 SHORT $LN3@scalar
; File C:\Program Files (x86)\Microsoft Visual Studio\2019\Community\VC\Tools\MSVC\14.29.30133\atlmfc\include\afx.inl

; 112  : 	{ ::operator delete(p); }

  000a0	56		 push	 esi
  000a1	e8 00 00 00 00	 call	 ??3@YAXPAX@Z		; operator delete
  000a6	83 c4 04	 add	 esp, 4
  000a9	8b c6		 mov	 eax, esi
  000ab	5e		 pop	 esi
  000ac	5d		 pop	 ebp
  000ad	c2 04 00	 ret	 4
$LN3@scalar:
  000b0	68 78 01 00 00	 push	 376			; 00000178H
  000b5	56		 push	 esi
  000b6	e8 00 00 00 00	 call	 ?__global_delete@@YAXPAXI@Z ; __global_delete
  000bb	83 c4 08	 add	 esp, 8
$LN31@scalar:
  000be	8b c6		 mov	 eax, esi
  000c0	5e		 pop	 esi
  000c1	5d		 pop	 ebp
  000c2	c2 04 00	 ret	 4
??_GCxSkinButton@@UAEPAXI@Z ENDP			; CxSkinButton::`scalar deleting destructor'
_TEXT	ENDS
; Function compile flags: /Ogtp
; File D:\git\src\IBK\IBK_DRFN\ProjSrc\SrcDrfn\Chart\comparechart\control\xSkinButton.cpp
;	COMDAT ?GetMessageMap@CxSkinButton@@MBEPBUAFX_MSGMAP@@XZ
_TEXT	SEGMENT
?GetMessageMap@CxSkinButton@@MBEPBUAFX_MSGMAP@@XZ PROC	; CxSkinButton::GetMessageMap, COMDAT
; _this$ = ecx

; 50   : BEGIN_MESSAGE_MAP(CxSkinButton, CButton)

  00000	b8 00 00 00 00	 mov	 eax, OFFSET ?messageMap@?1??GetThisMessageMap@CxSkinButton@@KGPBUAFX_MSGMAP@@XZ@4U3@B
  00005	c3		 ret	 0
?GetMessageMap@CxSkinButton@@MBEPBUAFX_MSGMAP@@XZ ENDP	; CxSkinButton::GetMessageMap
_TEXT	ENDS
; Function compile flags: /Ogtp
; File D:\git\src\IBK\IBK_DRFN\ProjSrc\SrcDrfn\Chart\comparechart\control\xSkinButton.cpp
;	COMDAT ?GetThisMessageMap@CxSkinButton@@KGPBUAFX_MSGMAP@@XZ
_TEXT	SEGMENT
?GetThisMessageMap@CxSkinButton@@KGPBUAFX_MSGMAP@@XZ PROC ; CxSkinButton::GetThisMessageMap, COMDAT

; 51   : 	//{{AFX_MSG_MAP(CxSkinButton)
; 52   : 	ON_WM_ERASEBKGND()
; 53   : 	ON_WM_LBUTTONDOWN()
; 54   : 	ON_WM_LBUTTONUP()
; 55   : 	ON_WM_MOUSEMOVE()
; 56   : 	ON_WM_LBUTTONDBLCLK()
; 57   : 	ON_WM_KILLFOCUS()
; 58   : //	ON_CONTROL_REFLECT_EX(BN_CLICKED, OnClicked)
; 59   : 	ON_WM_KEYDOWN()
; 60   : 	//}}AFX_MSG_MAP
; 61   :     ON_MESSAGE(WM_MOUSELEAVE, OnMouseLeave)
; 62   : 	ON_MESSAGE(WM_CXSHADE_RADIO , OnRadioInfo)
; 63   : 	ON_MESSAGE(BM_SETCHECK , OnBMSetCheck)
; 64   : 	ON_MESSAGE(BM_GETCHECK , OnBMGetCheck)
; 65   : END_MESSAGE_MAP()

  00000	b8 00 00 00 00	 mov	 eax, OFFSET ?messageMap@?1??GetThisMessageMap@CxSkinButton@@KGPBUAFX_MSGMAP@@XZ@4U3@B
  00005	c3		 ret	 0
?GetThisMessageMap@CxSkinButton@@KGPBUAFX_MSGMAP@@XZ ENDP ; CxSkinButton::GetThisMessageMap
_TEXT	ENDS
; Function compile flags: /Ogtp
; File D:\git\src\IBK\IBK_DRFN\ProjSrc\SrcDrfn\Chart\comparechart\control\xSkinButton.cpp
;	COMDAT ?OnBMGetCheck@CxSkinButton@@IAEJIJ@Z
_TEXT	SEGMENT
_wparam$ = 8						; size = 4
___formal$ = 12						; size = 4
?OnBMGetCheck@CxSkinButton@@IAEJIJ@Z PROC		; CxSkinButton::OnBMGetCheck, COMDAT
; _this$ = ecx

; 820  : { return m_Checked; }	//returns the state for check & radio buttons

  00000	0f b6 81 80 00
	00 00		 movzx	 eax, BYTE PTR [ecx+128]
  00007	c2 08 00	 ret	 8
?OnBMGetCheck@CxSkinButton@@IAEJIJ@Z ENDP		; CxSkinButton::OnBMGetCheck
_TEXT	ENDS
; Function compile flags: /Ogtp
; File D:\git\src\IBK\IBK_DRFN\ProjSrc\SrcDrfn\Chart\comparechart\control\xSkinButton.cpp
; File C:\Program Files (x86)\Microsoft Visual Studio\2019\Community\VC\Tools\MSVC\14.29.30133\atlmfc\include\afxwin2.inl
; File D:\git\src\IBK\IBK_DRFN\ProjSrc\SrcDrfn\Chart\comparechart\control\xSkinButton.cpp
; File C:\Program Files (x86)\Microsoft Visual Studio\2019\Community\VC\Tools\MSVC\14.29.30133\atlmfc\include\afxwin2.inl
; File D:\git\src\IBK\IBK_DRFN\ProjSrc\SrcDrfn\Chart\comparechart\control\xSkinButton.cpp
;	COMDAT ?OnBMSetCheck@CxSkinButton@@IAEJIJ@Z
_TEXT	SEGMENT
_hthis$1$ = 8						; size = 4
_wparam$ = 8						; size = 4
___formal$ = 12						; size = 4
?OnBMSetCheck@CxSkinButton@@IAEJIJ@Z PROC		; CxSkinButton::OnBMSetCheck, COMDAT
; _this$ = ecx

; 790  : {

  00000	55		 push	 ebp
  00001	8b ec		 mov	 ebp, esp
  00003	53		 push	 ebx
  00004	8b d9		 mov	 ebx, ecx

; 791  : 	m_Checked=wparam!=0;

  00006	8b 4d 08	 mov	 ecx, DWORD PTR _wparam$[ebp]
  00009	85 c9		 test	 ecx, ecx
  0000b	56		 push	 esi
  0000c	0f 95 c0	 setne	 al
  0000f	88 83 80 00 00
	00		 mov	 BYTE PTR [ebx+128], al

; 792  : 	switch (m_Style)

  00015	8b 83 84 00 00
	00		 mov	 eax, DWORD PTR [ebx+132]
  0001b	57		 push	 edi
  0001c	85 c0		 test	 eax, eax
  0001e	74 69		 je	 SHORT $LN12@OnBMSetChe
  00020	83 f8 04	 cmp	 eax, 4
  00023	75 6b		 jne	 SHORT $LN2@OnBMSetChe

; 793  : 	{
; 794  : 	case BS_RADIOBUTTON:
; 795  : 		if (m_Checked) { //uncheck the other radio buttons (in the same group)

  00025	85 c9		 test	 ecx, ecx
  00027	74 67		 je	 SHORT $LN2@OnBMSetChe
; File C:\Program Files (x86)\Microsoft Visual Studio\2019\Community\VC\Tools\MSVC\14.29.30133\atlmfc\include\afxwin2.inl

; 213  : 	{ ASSERT(::IsWindow(m_hWnd)); return CWnd::FromHandle(::GetParent(m_hWnd)); }

  00029	ff 73 20	 push	 DWORD PTR [ebx+32]
  0002c	ff 15 00 00 00
	00		 call	 DWORD PTR __imp__GetParent@4
  00032	50		 push	 eax
  00033	e8 00 00 00 00	 call	 ?FromHandle@CWnd@@SGPAV1@PAUHWND__@@@Z ; CWnd::FromHandle

; 25   : 	{ return this == NULL ? NULL : m_hWnd; }

  00038	85 c0		 test	 eax, eax
  0003a	75 04		 jne	 SHORT $LN18@OnBMSetChe
  0003c	33 ff		 xor	 edi, edi
  0003e	eb 03		 jmp	 SHORT $LN19@OnBMSetChe
$LN18@OnBMSetChe:
  00040	8b 78 20	 mov	 edi, DWORD PTR [eax+32]
$LN19@OnBMSetChe:
  00043	8b 43 20	 mov	 eax, DWORD PTR [ebx+32]
  00046	89 45 08	 mov	 DWORD PTR _hthis$1$[ebp], eax
; File D:\git\src\IBK\IBK_DRFN\ProjSrc\SrcDrfn\Chart\comparechart\control\xSkinButton.cpp

; 799  : 			if (hthis && hpwnd){				//consistency check

  00049	85 c0		 test	 eax, eax
  0004b	74 43		 je	 SHORT $LN2@OnBMSetChe
  0004d	85 ff		 test	 edi, edi
  0004f	74 3f		 je	 SHORT $LN2@OnBMSetChe

; 800  : 				for( ; ; ){	//scan the buttons within the group
; 801  : 					hwnd2=::GetNextDlgGroupItem(hpwnd,hwnd2,0);

  00051	6a 00		 push	 0
  00053	50		 push	 eax
  00054	57		 push	 edi
  00055	ff 15 00 00 00
	00		 call	 DWORD PTR __imp__GetNextDlgGroupItem@12
  0005b	8b f0		 mov	 esi, eax

; 802  : 					//until we reach again this button
; 803  : 					if ((hwnd2==hthis)||(hwnd2==NULL)) break;

  0005d	3b 75 08	 cmp	 esi, DWORD PTR _hthis$1$[ebp]
  00060	74 2e		 je	 SHORT $LN2@OnBMSetChe
$LL4@OnBMSetChe:
  00062	85 f6		 test	 esi, esi
  00064	74 2a		 je	 SHORT $LN2@OnBMSetChe

; 804  : 					//post the uncheck message
; 805  : 					::PostMessage(hwnd2, WM_CXSHADE_RADIO, 0, 0);

  00066	6a 00		 push	 0
  00068	6a 00		 push	 0
  0006a	68 60 0d 00 00	 push	 3424			; 00000d60H
  0006f	56		 push	 esi
  00070	ff 15 00 00 00
	00		 call	 DWORD PTR __imp__PostMessageA@16
  00076	6a 00		 push	 0
  00078	56		 push	 esi
  00079	57		 push	 edi
  0007a	ff 15 00 00 00
	00		 call	 DWORD PTR __imp__GetNextDlgGroupItem@12
  00080	8b f0		 mov	 esi, eax
  00082	3b 75 08	 cmp	 esi, DWORD PTR _hthis$1$[ebp]
  00085	75 db		 jne	 SHORT $LL4@OnBMSetChe

; 806  : 				}
; 807  : 			}
; 808  : 		}
; 809  : 		break;

  00087	eb 07		 jmp	 SHORT $LN2@OnBMSetChe
$LN12@OnBMSetChe:

; 810  : 	case BS_PUSHBUTTON:
; 811  : 		m_Checked=false;

  00089	c6 83 80 00 00
	00 00		 mov	 BYTE PTR [ebx+128], 0
$LN2@OnBMSetChe:
; File C:\Program Files (x86)\Microsoft Visual Studio\2019\Community\VC\Tools\MSVC\14.29.30133\atlmfc\include\afxwin2.inl

; 114  : 	{ ASSERT(::IsWindow(m_hWnd)); ::InvalidateRect(m_hWnd, NULL, bErase); }

  00090	6a 01		 push	 1
  00092	6a 00		 push	 0
  00094	ff 73 20	 push	 DWORD PTR [ebx+32]
  00097	ff 15 00 00 00
	00		 call	 DWORD PTR __imp__InvalidateRect@12
; File D:\git\src\IBK\IBK_DRFN\ProjSrc\SrcDrfn\Chart\comparechart\control\xSkinButton.cpp

; 816  : 	return 0;

  0009d	5f		 pop	 edi
  0009e	5e		 pop	 esi
  0009f	33 c0		 xor	 eax, eax
  000a1	5b		 pop	 ebx

; 817  : }

  000a2	5d		 pop	 ebp
  000a3	c2 08 00	 ret	 8
?OnBMSetCheck@CxSkinButton@@IAEJIJ@Z ENDP		; CxSkinButton::OnBMSetCheck
_TEXT	ENDS
; Function compile flags: /Ogtp
; File D:\git\src\IBK\IBK_DRFN\ProjSrc\SrcDrfn\Chart\comparechart\control\xSkinButton.cpp
; File C:\Program Files (x86)\Microsoft Visual Studio\2019\Community\VC\Tools\MSVC\14.29.30133\atlmfc\include\afxwin2.inl
; File D:\git\src\IBK\IBK_DRFN\ProjSrc\SrcDrfn\Chart\comparechart\control\xSkinButton.cpp
; File C:\Program Files (x86)\Microsoft Visual Studio\2019\Community\VC\Tools\MSVC\14.29.30133\atlmfc\include\afxwin2.inl
; File D:\git\src\IBK\IBK_DRFN\ProjSrc\SrcDrfn\Chart\comparechart\control\xSkinButton.cpp
;	COMDAT ?OnRadioInfo@CxSkinButton@@IAEJIJ@Z
_TEXT	SEGMENT
_wparam$ = 8						; size = 4
___formal$ = 12						; size = 4
?OnRadioInfo@CxSkinButton@@IAEJIJ@Z PROC		; CxSkinButton::OnRadioInfo, COMDAT
; _this$ = ecx

; 756  : 	if (m_Checked){	//only checked buttons need to be unchecked

  00000	80 b9 80 00 00
	00 00		 cmp	 BYTE PTR [ecx+128], 0
  00007	74 14		 je	 SHORT $LN6@OnRadioInf
; File C:\Program Files (x86)\Microsoft Visual Studio\2019\Community\VC\Tools\MSVC\14.29.30133\atlmfc\include\afxwin2.inl

; 114  : 	{ ASSERT(::IsWindow(m_hWnd)); ::InvalidateRect(m_hWnd, NULL, bErase); }

  00009	6a 01		 push	 1
  0000b	6a 00		 push	 0
  0000d	ff 71 20	 push	 DWORD PTR [ecx+32]
; File D:\git\src\IBK\IBK_DRFN\ProjSrc\SrcDrfn\Chart\comparechart\control\xSkinButton.cpp

; 757  : 		m_Checked = false;

  00010	c6 81 80 00 00
	00 00		 mov	 BYTE PTR [ecx+128], 0
; File C:\Program Files (x86)\Microsoft Visual Studio\2019\Community\VC\Tools\MSVC\14.29.30133\atlmfc\include\afxwin2.inl

; 114  : 	{ ASSERT(::IsWindow(m_hWnd)); ::InvalidateRect(m_hWnd, NULL, bErase); }

  00017	ff 15 00 00 00
	00		 call	 DWORD PTR __imp__InvalidateRect@12
$LN6@OnRadioInf:
; File D:\git\src\IBK\IBK_DRFN\ProjSrc\SrcDrfn\Chart\comparechart\control\xSkinButton.cpp

; 761  : }

  0001d	33 c0		 xor	 eax, eax
  0001f	c2 08 00	 ret	 8
?OnRadioInfo@CxSkinButton@@IAEJIJ@Z ENDP		; CxSkinButton::OnRadioInfo
_TEXT	ENDS
; Function compile flags: /Ogtp
; File D:\git\src\IBK\IBK_DRFN\ProjSrc\SrcDrfn\Chart\comparechart\control\xSkinButton.cpp
; File C:\Program Files (x86)\Microsoft Visual Studio\2019\Community\VC\Tools\MSVC\14.29.30133\atlmfc\include\afxwin2.inl
; File D:\git\src\IBK\IBK_DRFN\ProjSrc\SrcDrfn\Chart\comparechart\control\xSkinButton.cpp
; File C:\Program Files (x86)\Microsoft Visual Studio\2019\Community\VC\Tools\MSVC\14.29.30133\atlmfc\include\afxwin2.inl
; File D:\git\src\IBK\IBK_DRFN\ProjSrc\SrcDrfn\Chart\comparechart\control\xSkinButton.cpp
;	COMDAT ?OnMouseLeave@CxSkinButton@@IAEJIJ@Z
_TEXT	SEGMENT
___formal$ = 8						; size = 4
___formal$ = 12						; size = 4
?OnMouseLeave@CxSkinButton@@IAEJIJ@Z PROC		; CxSkinButton::OnMouseLeave, COMDAT
; _this$ = ecx
; File C:\Program Files (x86)\Microsoft Visual Studio\2019\Community\VC\Tools\MSVC\14.29.30133\atlmfc\include\afxwin2.inl

; 114  : 	{ ASSERT(::IsWindow(m_hWnd)); ::InvalidateRect(m_hWnd, NULL, bErase); }

  00000	6a 01		 push	 1
  00002	6a 00		 push	 0
  00004	ff 71 20	 push	 DWORD PTR [ecx+32]
; File D:\git\src\IBK\IBK_DRFN\ProjSrc\SrcDrfn\Chart\comparechart\control\xSkinButton.cpp

; 664  :     m_tracking = false;

  00007	c6 81 88 00 00
	00 00		 mov	 BYTE PTR [ecx+136], 0
; File C:\Program Files (x86)\Microsoft Visual Studio\2019\Community\VC\Tools\MSVC\14.29.30133\atlmfc\include\afxwin2.inl

; 114  : 	{ ASSERT(::IsWindow(m_hWnd)); ::InvalidateRect(m_hWnd, NULL, bErase); }

  0000e	ff 15 00 00 00
	00		 call	 DWORD PTR __imp__InvalidateRect@12
; File D:\git\src\IBK\IBK_DRFN\ProjSrc\SrcDrfn\Chart\comparechart\control\xSkinButton.cpp

; 666  : 	return 0;

  00014	33 c0		 xor	 eax, eax

; 667  : }

  00016	c2 08 00	 ret	 8
?OnMouseLeave@CxSkinButton@@IAEJIJ@Z ENDP		; CxSkinButton::OnMouseLeave
_TEXT	ENDS
; Function compile flags: /Ogtp
; File D:\git\src\IBK\IBK_DRFN\ProjSrc\SrcDrfn\Chart\comparechart\control\xSkinButton.cpp
; File C:\Program Files (x86)\Microsoft Visual Studio\2019\Community\VC\Tools\MSVC\14.29.30133\atlmfc\include\afxwin2.inl
; File D:\git\src\IBK\IBK_DRFN\ProjSrc\SrcDrfn\Chart\comparechart\control\xSkinButton.cpp
; File C:\Program Files (x86)\Microsoft Visual Studio\2019\Community\VC\Tools\MSVC\14.29.30133\atlmfc\include\afxwin2.inl
; File D:\git\src\IBK\IBK_DRFN\ProjSrc\SrcDrfn\Chart\comparechart\control\xSkinButton.cpp
; File C:\Program Files (x86)\Microsoft Visual Studio\2019\Community\VC\Tools\MSVC\14.29.30133\atlmfc\include\afxwin2.inl
; File D:\git\src\IBK\IBK_DRFN\ProjSrc\SrcDrfn\Chart\comparechart\control\xSkinButton.cpp
;	COMDAT ?OnKeyDown@CxSkinButton@@IAEXIII@Z
_TEXT	SEGMENT
_nChar$ = 8						; size = 4
_nRepCnt$ = 12						; size = 4
_nFlags$ = 16						; size = 4
?OnKeyDown@CxSkinButton@@IAEXIII@Z PROC			; CxSkinButton::OnKeyDown, COMDAT
; _this$ = ecx

; 764  : {

  00000	55		 push	 ebp
  00001	8b ec		 mov	 ebp, esp
  00003	56		 push	 esi
  00004	8b f1		 mov	 esi, ecx

; 765  : 	if ((m_Style)&&(nChar==' ')){ //needed stuff for check & radio buttons

  00006	8b 86 84 00 00
	00		 mov	 eax, DWORD PTR [esi+132]
  0000c	85 c0		 test	 eax, eax
  0000e	74 44		 je	 SHORT $LN4@OnKeyDown
  00010	83 7d 08 20	 cmp	 DWORD PTR _nChar$[ebp], 32 ; 00000020H
  00014	75 3e		 jne	 SHORT $LN4@OnKeyDown

; 766  : 		if (m_Style==BS_CHECKBOX) SetCheck(m_Checked ? 0 : 1);

  00016	83 f8 02	 cmp	 eax, 2
  00019	75 22		 jne	 SHORT $LN3@OnKeyDown
  0001b	33 c0		 xor	 eax, eax
  0001d	38 86 80 00 00
	00		 cmp	 BYTE PTR [esi+128], al
; File C:\Program Files (x86)\Microsoft Visual Studio\2019\Community\VC\Tools\MSVC\14.29.30133\atlmfc\include\afxwin2.inl

; 630  : 	{ ASSERT(::IsWindow(m_hWnd)); ::SendMessage(m_hWnd, BM_SETCHECK, nCheck, 0); }

  00023	6a 00		 push	 0
; File D:\git\src\IBK\IBK_DRFN\ProjSrc\SrcDrfn\Chart\comparechart\control\xSkinButton.cpp

; 766  : 		if (m_Style==BS_CHECKBOX) SetCheck(m_Checked ? 0 : 1);

  00025	0f 94 c0	 sete	 al
; File C:\Program Files (x86)\Microsoft Visual Studio\2019\Community\VC\Tools\MSVC\14.29.30133\atlmfc\include\afxwin2.inl

; 630  : 	{ ASSERT(::IsWindow(m_hWnd)); ::SendMessage(m_hWnd, BM_SETCHECK, nCheck, 0); }

  00028	50		 push	 eax
  00029	68 f1 00 00 00	 push	 241			; 000000f1H
  0002e	ff 76 20	 push	 DWORD PTR [esi+32]
  00031	ff 15 00 00 00
	00		 call	 DWORD PTR __imp__SendMessageA@16
  00037	8b 86 84 00 00
	00		 mov	 eax, DWORD PTR [esi+132]
$LN3@OnKeyDown:
; File D:\git\src\IBK\IBK_DRFN\ProjSrc\SrcDrfn\Chart\comparechart\control\xSkinButton.cpp

; 767  : 		if (m_Style==BS_RADIOBUTTON) SetCheck(1);

  0003d	83 f8 04	 cmp	 eax, 4
  00040	75 12		 jne	 SHORT $LN4@OnKeyDown
; File C:\Program Files (x86)\Microsoft Visual Studio\2019\Community\VC\Tools\MSVC\14.29.30133\atlmfc\include\afxwin2.inl

; 630  : 	{ ASSERT(::IsWindow(m_hWnd)); ::SendMessage(m_hWnd, BM_SETCHECK, nCheck, 0); }

  00042	6a 00		 push	 0
  00044	6a 01		 push	 1
  00046	68 f1 00 00 00	 push	 241			; 000000f1H
  0004b	ff 76 20	 push	 DWORD PTR [esi+32]
  0004e	ff 15 00 00 00
	00		 call	 DWORD PTR __imp__SendMessageA@16
$LN4@OnKeyDown:

; 424  : 	{ Default(); }

  00054	8b ce		 mov	 ecx, esi
  00056	e8 00 00 00 00	 call	 ?Default@CWnd@@IAEJXZ	; CWnd::Default
  0005b	5e		 pop	 esi
; File D:\git\src\IBK\IBK_DRFN\ProjSrc\SrcDrfn\Chart\comparechart\control\xSkinButton.cpp

; 770  : }

  0005c	5d		 pop	 ebp
  0005d	c2 0c 00	 ret	 12			; 0000000cH
?OnKeyDown@CxSkinButton@@IAEXIII@Z ENDP			; CxSkinButton::OnKeyDown
_TEXT	ENDS
; Function compile flags: /Ogtp
; File D:\git\src\IBK\IBK_DRFN\ProjSrc\SrcDrfn\Chart\comparechart\control\xSkinButton.cpp
;	COMDAT ?OnClicked@CxSkinButton@@IAEHXZ
_TEXT	SEGMENT
?OnClicked@CxSkinButton@@IAEHXZ PROC			; CxSkinButton::OnClicked, COMDAT
; _this$ = ecx

; 727  : {

  00000	56		 push	 esi
  00001	8b f1		 mov	 esi, ecx

; 728  :     if (::GetCapture() == m_hWnd) {

  00003	ff 15 00 00 00
	00		 call	 DWORD PTR __imp__GetCapture@0
  00009	3b 46 20	 cmp	 eax, DWORD PTR [esi+32]
  0000c	75 06		 jne	 SHORT $LN4@OnClicked

; 729  :         ::ReleaseCapture();

  0000e	ff 15 00 00 00
	00		 call	 DWORD PTR __imp__ReleaseCapture@0
$LN4@OnClicked:

; 730  :         ASSERT (!m_tracking);
; 731  :     }
; 732  :     m_button_down = false;
; 733  :     //Invalidate();
; 734  :     return FALSE;
; 735  : }

  00014	33 c0		 xor	 eax, eax
  00016	88 86 89 00 00
	00		 mov	 BYTE PTR [esi+137], al
  0001c	5e		 pop	 esi
  0001d	c3		 ret	 0
?OnClicked@CxSkinButton@@IAEHXZ ENDP			; CxSkinButton::OnClicked
_TEXT	ENDS
; Function compile flags: /Ogtp
; File D:\git\src\IBK\IBK_DRFN\ProjSrc\SrcDrfn\Chart\comparechart\control\xSkinButton.cpp
; File C:\Program Files (x86)\Microsoft Visual Studio\2019\Community\VC\Tools\MSVC\14.29.30133\atlmfc\include\afxwin2.inl
; File D:\git\src\IBK\IBK_DRFN\ProjSrc\SrcDrfn\Chart\comparechart\control\xSkinButton.cpp
;	COMDAT ?OnKillFocus@CxSkinButton@@IAEXPAVCWnd@@@Z
_TEXT	SEGMENT
_new_wnd$ = 8						; size = 4
?OnKillFocus@CxSkinButton@@IAEXPAVCWnd@@@Z PROC		; CxSkinButton::OnKillFocus, COMDAT
; _this$ = ecx

; 694  : {

  00000	56		 push	 esi
  00001	8b f1		 mov	 esi, ecx

; 695  :     if (::GetCapture() == m_hWnd) {

  00003	ff 15 00 00 00
	00		 call	 DWORD PTR __imp__GetCapture@0
  00009	3b 46 20	 cmp	 eax, DWORD PTR [esi+32]
  0000c	75 0d		 jne	 SHORT $LN2@OnKillFocu

; 696  :         ::ReleaseCapture();

  0000e	ff 15 00 00 00
	00		 call	 DWORD PTR __imp__ReleaseCapture@0

; 697  :         ASSERT (!m_tracking);
; 698  :         m_button_down = false;

  00014	c6 86 89 00 00
	00 00		 mov	 BYTE PTR [esi+137], 0
$LN2@OnKillFocu:
; File C:\Program Files (x86)\Microsoft Visual Studio\2019\Community\VC\Tools\MSVC\14.29.30133\atlmfc\include\afxwin2.inl

; 308  : 	{ Default(); }

  0001b	8b ce		 mov	 ecx, esi
  0001d	e8 00 00 00 00	 call	 ?Default@CWnd@@IAEJXZ	; CWnd::Default
  00022	5e		 pop	 esi
; File D:\git\src\IBK\IBK_DRFN\ProjSrc\SrcDrfn\Chart\comparechart\control\xSkinButton.cpp

; 701  : }

  00023	c2 04 00	 ret	 4
?OnKillFocus@CxSkinButton@@IAEXPAVCWnd@@@Z ENDP		; CxSkinButton::OnKillFocus
_TEXT	ENDS
; Function compile flags: /Ogtp
; File D:\git\src\IBK\IBK_DRFN\ProjSrc\SrcDrfn\Chart\comparechart\control\xSkinButton.cpp
; File C:\Program Files (x86)\Microsoft Visual Studio\2019\Community\VC\Tools\MSVC\14.29.30133\atlmfc\include\afxwin2.inl
; File D:\git\src\IBK\IBK_DRFN\ProjSrc\SrcDrfn\Chart\comparechart\control\xSkinButton.cpp
;	COMDAT ?OnLButtonDblClk@CxSkinButton@@IAEXIVCPoint@@@Z
_TEXT	SEGMENT
_flags$ = 8						; size = 4
_point$ = 12						; size = 8
?OnLButtonDblClk@CxSkinButton@@IAEXIVCPoint@@@Z PROC	; CxSkinButton::OnLButtonDblClk, COMDAT
; _this$ = ecx

; 471  : {

  00000	55		 push	 ebp
  00001	8b ec		 mov	 ebp, esp

; 472  :     SendMessage(WM_LBUTTONDOWN, flags, MAKELPARAM(point.x, point.y));

  00003	0f b7 55 10	 movzx	 edx, WORD PTR _point$[ebp+4]
  00007	0f b7 45 0c	 movzx	 eax, WORD PTR _point$[ebp]
  0000b	c1 e2 10	 shl	 edx, 16			; 00000010H
  0000e	0b d0		 or	 edx, eax
; File C:\Program Files (x86)\Microsoft Visual Studio\2019\Community\VC\Tools\MSVC\14.29.30133\atlmfc\include\afxwin2.inl

; 32   : 	{ ASSERT(::IsWindow(m_hWnd)); return ::SendMessage(m_hWnd, message, wParam, lParam); }

  00010	52		 push	 edx
  00011	ff 75 08	 push	 DWORD PTR _flags$[ebp]
  00014	68 01 02 00 00	 push	 513			; 00000201H
  00019	ff 71 20	 push	 DWORD PTR [ecx+32]
  0001c	ff 15 00 00 00
	00		 call	 DWORD PTR __imp__SendMessageA@16
; File D:\git\src\IBK\IBK_DRFN\ProjSrc\SrcDrfn\Chart\comparechart\control\xSkinButton.cpp

; 473  : }

  00022	5d		 pop	 ebp
  00023	c2 0c 00	 ret	 12			; 0000000cH
?OnLButtonDblClk@CxSkinButton@@IAEXIVCPoint@@@Z ENDP	; CxSkinButton::OnLButtonDblClk
_TEXT	ENDS
; Function compile flags: /Ogtp
; File D:\git\src\IBK\IBK_DRFN\ProjSrc\SrcDrfn\Chart\comparechart\control\xSkinButton.cpp
; File C:\Program Files (x86)\Microsoft Visual Studio\2019\Community\VC\Tools\MSVC\14.29.30133\atlmfc\include\afxcmn.inl
; File D:\git\src\IBK\IBK_DRFN\ProjSrc\SrcDrfn\Chart\comparechart\control\xSkinButton.cpp
; File C:\Program Files (x86)\Microsoft Visual Studio\2019\Community\VC\Tools\MSVC\14.29.30133\atlmfc\include\afxcmn.inl
; File D:\git\src\IBK\IBK_DRFN\ProjSrc\SrcDrfn\Chart\comparechart\control\xSkinButton.cpp
; File C:\Program Files (x86)\Microsoft Visual Studio\2019\Community\VC\Tools\MSVC\14.29.30133\atlmfc\include\afxcmn.inl
; File D:\git\src\IBK\IBK_DRFN\ProjSrc\SrcDrfn\Chart\comparechart\control\xSkinButton.cpp
; File C:\Program Files (x86)\Microsoft Visual Studio\2019\Community\VC\Tools\MSVC\14.29.30133\atlmfc\include\afxcmn.inl
; File D:\git\src\IBK\IBK_DRFN\ProjSrc\SrcDrfn\Chart\comparechart\control\xSkinButton.cpp
; File C:\Program Files (x86)\Microsoft Visual Studio\2019\Community\VC\Tools\MSVC\14.29.30133\atlmfc\include\afxwin2.inl
; File D:\git\src\IBK\IBK_DRFN\ProjSrc\SrcDrfn\Chart\comparechart\control\xSkinButton.cpp
; File C:\Program Files (x86)\Microsoft Visual Studio\2019\Community\VC\Tools\MSVC\14.29.30133\atlmfc\include\afxwin2.inl
; File D:\git\src\IBK\IBK_DRFN\ProjSrc\SrcDrfn\Chart\comparechart\control\xSkinButton.cpp
; File C:\Program Files (x86)\Microsoft Visual Studio\2019\Community\VC\Tools\MSVC\14.29.30133\atlmfc\include\afxwin2.inl
; File D:\git\src\IBK\IBK_DRFN\ProjSrc\SrcDrfn\Chart\comparechart\control\xSkinButton.cpp
; File C:\Program Files (x86)\Microsoft Visual Studio\2019\Community\VC\Tools\MSVC\14.29.30133\atlmfc\include\afxwin2.inl
; File D:\git\src\IBK\IBK_DRFN\ProjSrc\SrcDrfn\Chart\comparechart\control\xSkinButton.cpp
; File C:\Program Files (x86)\Microsoft Visual Studio\2019\Community\VC\Tools\MSVC\14.29.30133\atlmfc\include\afxwin2.inl
; File D:\git\src\IBK\IBK_DRFN\ProjSrc\SrcDrfn\Chart\comparechart\control\xSkinButton.cpp
;	COMDAT ?OnMouseMove@CxSkinButton@@IAEXIVCPoint@@@Z
_TEXT	SEGMENT
_msg$1 = -28						; size = 28
_t$2 = -16						; size = 16
_p2$3 = -8						; size = 8
_nFlags$ = 8						; size = 4
_point$ = 12						; size = 8
?OnMouseMove@CxSkinButton@@IAEXIVCPoint@@@Z PROC	; CxSkinButton::OnMouseMove, COMDAT
; _this$ = ecx

; 583  : {

  00000	55		 push	 ebp
  00001	8b ec		 mov	 ebp, esp

; 584  :     //TRACE("* %08X: Mouse\n", ::GetTickCount());
; 585  : 
; 586  : 	//Pass this message to the ToolTip control
; 587  : 	RelayEvent(WM_MOUSEMOVE,(WPARAM)nFlags,MAKELPARAM(LOWORD(point.x),LOWORD(point.y)));

  00003	0f b7 45 0c	 movzx	 eax, WORD PTR _point$[ebp]
  00007	83 ec 1c	 sub	 esp, 28			; 0000001cH
  0000a	53		 push	 ebx

; 437  : 	if(NULL != m_tooltip.m_hWnd){

  0000b	8b 1d 00 00 00
	00		 mov	 ebx, DWORD PTR __imp__SendMessageA@16

; 583  : {

  00011	56		 push	 esi
  00012	57		 push	 edi
  00013	8b f9		 mov	 edi, ecx

; 584  :     //TRACE("* %08X: Mouse\n", ::GetTickCount());
; 585  : 
; 586  : 	//Pass this message to the ToolTip control
; 587  : 	RelayEvent(WM_MOUSEMOVE,(WPARAM)nFlags,MAKELPARAM(LOWORD(point.x),LOWORD(point.y)));

  00015	0f b7 4d 10	 movzx	 ecx, WORD PTR _point$[ebp+4]
  00019	c1 e1 10	 shl	 ecx, 16			; 00000010H
  0001c	0b c8		 or	 ecx, eax

; 437  : 	if(NULL != m_tooltip.m_hWnd){

  0001e	8b 97 b0 00 00
	00		 mov	 edx, DWORD PTR [edi+176]
  00024	85 d2		 test	 edx, edx
  00026	74 37		 je	 SHORT $LN9@OnMouseMov

; 438  : 		MSG msg;
; 439  : 		msg.hwnd = m_hWnd;

  00028	8b 47 20	 mov	 eax, DWORD PTR [edi+32]
  0002b	89 45 e4	 mov	 DWORD PTR _msg$1[ebp], eax

; 441  : 		msg.wParam = wParam;

  0002e	8b 45 08	 mov	 eax, DWORD PTR _nFlags$[ebp]
  00031	89 45 ec	 mov	 DWORD PTR _msg$1[ebp+8], eax

; 444  : 		msg.pt.x = LOWORD(lParam);

  00034	0f b7 c1	 movzx	 eax, cx
  00037	89 45 f8	 mov	 DWORD PTR _msg$1[ebp+20], eax
; File C:\Program Files (x86)\Microsoft Visual Studio\2019\Community\VC\Tools\MSVC\14.29.30133\atlmfc\include\afxcmn.inl

; 429  : 	{ ASSERT(::IsWindow(m_hWnd));  ::SendMessage(m_hWnd, TTM_RELAYEVENT, 0, (LPARAM)lpMsg); }

  0003a	8d 45 e4	 lea	 eax, DWORD PTR _msg$1[ebp]
  0003d	50		 push	 eax
  0003e	6a 00		 push	 0
; File D:\git\src\IBK\IBK_DRFN\ProjSrc\SrcDrfn\Chart\comparechart\control\xSkinButton.cpp

; 442  : 		msg.lParam = lParam;

  00040	89 4d f0	 mov	 DWORD PTR _msg$1[ebp+12], ecx
; File C:\Program Files (x86)\Microsoft Visual Studio\2019\Community\VC\Tools\MSVC\14.29.30133\atlmfc\include\afxcmn.inl

; 429  : 	{ ASSERT(::IsWindow(m_hWnd));  ::SendMessage(m_hWnd, TTM_RELAYEVENT, 0, (LPARAM)lpMsg); }

  00043	68 07 04 00 00	 push	 1031			; 00000407H
; File D:\git\src\IBK\IBK_DRFN\ProjSrc\SrcDrfn\Chart\comparechart\control\xSkinButton.cpp

; 445  : 		msg.pt.y = HIWORD(lParam);

  00048	c1 e9 10	 shr	 ecx, 16			; 00000010H
; File C:\Program Files (x86)\Microsoft Visual Studio\2019\Community\VC\Tools\MSVC\14.29.30133\atlmfc\include\afxcmn.inl

; 429  : 	{ ASSERT(::IsWindow(m_hWnd));  ::SendMessage(m_hWnd, TTM_RELAYEVENT, 0, (LPARAM)lpMsg); }

  0004b	52		 push	 edx
; File D:\git\src\IBK\IBK_DRFN\ProjSrc\SrcDrfn\Chart\comparechart\control\xSkinButton.cpp

; 440  : 		msg.message = message;

  0004c	c7 45 e8 00 02
	00 00		 mov	 DWORD PTR _msg$1[ebp+4], 512 ; 00000200H

; 443  : 		msg.time = 0;

  00053	c7 45 f4 00 00
	00 00		 mov	 DWORD PTR _msg$1[ebp+16], 0

; 445  : 		msg.pt.y = HIWORD(lParam);

  0005a	89 4d fc	 mov	 DWORD PTR _msg$1[ebp+24], ecx
; File C:\Program Files (x86)\Microsoft Visual Studio\2019\Community\VC\Tools\MSVC\14.29.30133\atlmfc\include\afxcmn.inl

; 429  : 	{ ASSERT(::IsWindow(m_hWnd));  ::SendMessage(m_hWnd, TTM_RELAYEVENT, 0, (LPARAM)lpMsg); }

  0005d	ff d3		 call	 ebx
$LN9@OnMouseMov:
; File D:\git\src\IBK\IBK_DRFN\ProjSrc\SrcDrfn\Chart\comparechart\control\xSkinButton.cpp

; 596  :     if ((m_button_down) && (::GetCapture() == m_hWnd)) {

  0005f	80 bf 89 00 00
	00 00		 cmp	 BYTE PTR [edi+137], 0
  00066	74 61		 je	 SHORT $LN24@OnMouseMov
  00068	8b 77 20	 mov	 esi, DWORD PTR [edi+32]
  0006b	ff 15 00 00 00
	00		 call	 DWORD PTR __imp__GetCapture@0
  00071	3b c6		 cmp	 eax, esi
  00073	75 54		 jne	 SHORT $LN24@OnMouseMov

; 597  : 	    POINT p2 = point;

  00075	8b 45 0c	 mov	 eax, DWORD PTR _point$[ebp]
  00078	8b 4d 10	 mov	 ecx, DWORD PTR _point$[ebp+4]
  0007b	89 45 f8	 mov	 DWORD PTR _p2$3[ebp], eax

; 598  :         ::ClientToScreen(m_hWnd, &p2);

  0007e	8d 45 f8	 lea	 eax, DWORD PTR _p2$3[ebp]
  00081	50		 push	 eax
  00082	56		 push	 esi
  00083	89 4d fc	 mov	 DWORD PTR _p2$3[ebp+4], ecx
  00086	ff 15 00 00 00
	00		 call	 DWORD PTR __imp__ClientToScreen@8

; 599  :         HWND mouse_wnd = ::WindowFromPoint(p2);

  0008c	ff 75 fc	 push	 DWORD PTR _p2$3[ebp+4]
  0008f	ff 75 f8	 push	 DWORD PTR _p2$3[ebp]
  00092	ff 15 00 00 00
	00		 call	 DWORD PTR __imp__WindowFromPoint@8
; File C:\Program Files (x86)\Microsoft Visual Studio\2019\Community\VC\Tools\MSVC\14.29.30133\atlmfc\include\afxwin2.inl

; 624  : 	{ ASSERT(::IsWindow(m_hWnd)); return (UINT)::SendMessage(m_hWnd, BM_GETSTATE, 0, 0); }

  00098	6a 00		 push	 0
  0009a	6a 00		 push	 0
  0009c	68 f2 00 00 00	 push	 242			; 000000f2H
  000a1	ff 77 20	 push	 DWORD PTR [edi+32]
; File D:\git\src\IBK\IBK_DRFN\ProjSrc\SrcDrfn\Chart\comparechart\control\xSkinButton.cpp

; 599  :         HWND mouse_wnd = ::WindowFromPoint(p2);

  000a4	8b f0		 mov	 esi, eax
; File C:\Program Files (x86)\Microsoft Visual Studio\2019\Community\VC\Tools\MSVC\14.29.30133\atlmfc\include\afxwin2.inl

; 624  : 	{ ASSERT(::IsWindow(m_hWnd)); return (UINT)::SendMessage(m_hWnd, BM_GETSTATE, 0, 0); }

  000a6	ff d3		 call	 ebx
; File D:\git\src\IBK\IBK_DRFN\ProjSrc\SrcDrfn\Chart\comparechart\control\xSkinButton.cpp

; 602  :         bool need_pressed = (mouse_wnd == m_hWnd);

  000a8	8b 4f 20	 mov	 ecx, DWORD PTR [edi+32]
  000ab	c1 e8 02	 shr	 eax, 2
  000ae	24 01		 and	 al, 1
  000b0	3b f1		 cmp	 esi, ecx
  000b2	0f 94 c2	 sete	 dl

; 603  :         if (pressed != need_pressed) {

  000b5	3a c2		 cmp	 al, dl
  000b7	74 56		 je	 SHORT $LN6@OnMouseMov
; File C:\Program Files (x86)\Microsoft Visual Studio\2019\Community\VC\Tools\MSVC\14.29.30133\atlmfc\include\afxwin2.inl

; 626  : 	{ ::SendMessage(m_hWnd, BM_SETSTATE, bHighlight, 0); }

  000b9	6a 00		 push	 0
; File D:\git\src\IBK\IBK_DRFN\ProjSrc\SrcDrfn\Chart\comparechart\control\xSkinButton.cpp

; 605  :             SetState(need_pressed ? TRUE : FALSE);

  000bb	0f b6 c2	 movzx	 eax, dl
; File C:\Program Files (x86)\Microsoft Visual Studio\2019\Community\VC\Tools\MSVC\14.29.30133\atlmfc\include\afxwin2.inl

; 626  : 	{ ::SendMessage(m_hWnd, BM_SETSTATE, bHighlight, 0); }

  000be	50		 push	 eax
  000bf	68 f3 00 00 00	 push	 243			; 000000f3H
  000c4	51		 push	 ecx
  000c5	ff d3		 call	 ebx
; File D:\git\src\IBK\IBK_DRFN\ProjSrc\SrcDrfn\Chart\comparechart\control\xSkinButton.cpp

; 608  :     } else {

  000c7	eb 39		 jmp	 SHORT $LN25@OnMouseMov
$LN24@OnMouseMov:

; 609  : 
; 610  : 	//Otherwise the button is released. That means we should
; 611  :     //know when we leave its area - and so if we are not tracking
; 612  :     //this mouse leave event yet, start now!
; 613  :     //
; 614  :         if (!m_tracking) {

  000c9	80 bf 88 00 00
	00 00		 cmp	 BYTE PTR [edi+136], 0
  000d0	75 3d		 jne	 SHORT $LN6@OnMouseMov

; 615  :             TRACKMOUSEEVENT t = {
; 616  :                 sizeof(TRACKMOUSEEVENT),
; 617  :                 TME_LEAVE,
; 618  :                 m_hWnd,

  000d2	8b 47 20	 mov	 eax, DWORD PTR [edi+32]
  000d5	89 45 f8	 mov	 DWORD PTR _t$2[ebp+8], eax

; 619  :                 0
; 620  :             };
; 621  :             if (::_TrackMouseEvent(&t)) {

  000d8	8d 45 f0	 lea	 eax, DWORD PTR _t$2[ebp]
  000db	50		 push	 eax
  000dc	c7 45 f0 10 00
	00 00		 mov	 DWORD PTR _t$2[ebp], 16	; 00000010H
  000e3	c7 45 f4 02 00
	00 00		 mov	 DWORD PTR _t$2[ebp+4], 2
  000ea	c7 45 fc 00 00
	00 00		 mov	 DWORD PTR _t$2[ebp+12], 0
  000f1	ff 15 00 00 00
	00		 call	 DWORD PTR __imp___TrackMouseEvent@4
  000f7	85 c0		 test	 eax, eax
  000f9	74 14		 je	 SHORT $LN6@OnMouseMov

; 622  :                 //TRACE("* Mouse enter\n");
; 623  :                 m_tracking = true;

  000fb	c6 87 88 00 00
	00 01		 mov	 BYTE PTR [edi+136], 1
$LN25@OnMouseMov:
; File C:\Program Files (x86)\Microsoft Visual Studio\2019\Community\VC\Tools\MSVC\14.29.30133\atlmfc\include\afxwin2.inl

; 454  : 	{ Default(); }

  00102	6a 01		 push	 1
  00104	6a 00		 push	 0
  00106	ff 77 20	 push	 DWORD PTR [edi+32]
  00109	ff 15 00 00 00
	00		 call	 DWORD PTR __imp__InvalidateRect@12
$LN6@OnMouseMov:
  0010f	8b cf		 mov	 ecx, edi
  00111	e8 00 00 00 00	 call	 ?Default@CWnd@@IAEJXZ	; CWnd::Default
  00116	5f		 pop	 edi
  00117	5e		 pop	 esi
  00118	5b		 pop	 ebx
; File D:\git\src\IBK\IBK_DRFN\ProjSrc\SrcDrfn\Chart\comparechart\control\xSkinButton.cpp

; 631  : }

  00119	8b e5		 mov	 esp, ebp
  0011b	5d		 pop	 ebp
  0011c	c2 0c 00	 ret	 12			; 0000000cH
?OnMouseMove@CxSkinButton@@IAEXIVCPoint@@@Z ENDP	; CxSkinButton::OnMouseMove
_TEXT	ENDS
; Function compile flags: /Ogtp
; File D:\git\src\IBK\IBK_DRFN\ProjSrc\SrcDrfn\Chart\comparechart\control\xSkinButton.cpp
; File C:\Program Files (x86)\Microsoft Visual Studio\2019\Community\VC\Tools\MSVC\14.29.30133\atlmfc\include\afxwin2.inl
; File D:\git\src\IBK\IBK_DRFN\ProjSrc\SrcDrfn\Chart\comparechart\control\xSkinButton.cpp
; File C:\Program Files (x86)\Microsoft Visual Studio\2019\Community\VC\Tools\MSVC\14.29.30133\atlmfc\include\afxwin2.inl
; File D:\git\src\IBK\IBK_DRFN\ProjSrc\SrcDrfn\Chart\comparechart\control\xSkinButton.cpp
; File C:\Program Files (x86)\Microsoft Visual Studio\2019\Community\VC\Tools\MSVC\14.29.30133\atlmfc\include\afxwin2.inl
; File D:\git\src\IBK\IBK_DRFN\ProjSrc\SrcDrfn\Chart\comparechart\control\xSkinButton.cpp
; File C:\Program Files (x86)\Microsoft Visual Studio\2019\Community\VC\Tools\MSVC\14.29.30133\atlmfc\include\afxcmn.inl
; File D:\git\src\IBK\IBK_DRFN\ProjSrc\SrcDrfn\Chart\comparechart\control\xSkinButton.cpp
; File C:\Program Files (x86)\Microsoft Visual Studio\2019\Community\VC\Tools\MSVC\14.29.30133\atlmfc\include\afxcmn.inl
; File D:\git\src\IBK\IBK_DRFN\ProjSrc\SrcDrfn\Chart\comparechart\control\xSkinButton.cpp
; File C:\Program Files (x86)\Microsoft Visual Studio\2019\Community\VC\Tools\MSVC\14.29.30133\atlmfc\include\afxcmn.inl
; File D:\git\src\IBK\IBK_DRFN\ProjSrc\SrcDrfn\Chart\comparechart\control\xSkinButton.cpp
; File C:\Program Files (x86)\Microsoft Visual Studio\2019\Community\VC\Tools\MSVC\14.29.30133\atlmfc\include\afxcmn.inl
; File C:\Program Files (x86)\Microsoft Visual Studio\2019\Community\VC\Tools\MSVC\14.29.30133\atlmfc\include\afxwin2.inl
; File D:\git\src\IBK\IBK_DRFN\ProjSrc\SrcDrfn\Chart\comparechart\control\xSkinButton.cpp
; File C:\Program Files (x86)\Microsoft Visual Studio\2019\Community\VC\Tools\MSVC\14.29.30133\atlmfc\include\afxwin2.inl
; File D:\git\src\IBK\IBK_DRFN\ProjSrc\SrcDrfn\Chart\comparechart\control\xSkinButton.cpp
;	COMDAT ?OnLButtonUp@CxSkinButton@@IAEXIVCPoint@@@Z
_TEXT	SEGMENT
_msg$1 = -36						; size = 28
_p2$2 = -8						; size = 8
_nFlags$ = 8						; size = 4
_point$ = 12						; size = 8
?OnLButtonUp@CxSkinButton@@IAEXIVCPoint@@@Z PROC	; CxSkinButton::OnLButtonUp, COMDAT
; _this$ = ecx

; 541  : {

  00000	55		 push	 ebp
  00001	8b ec		 mov	 ebp, esp
  00003	83 ec 24	 sub	 esp, 36			; 00000024H
  00006	56		 push	 esi
  00007	8b f1		 mov	 esi, ecx

; 542  :     //TRACE("* %08X: up\n", ::GetTickCount());
; 543  : 	if(!m_button_down) return;

  00009	80 be 89 00 00
	00 00		 cmp	 BYTE PTR [esi+137], 0
  00010	0f 84 d3 00 00
	00		 je	 $LN1@OnLButtonU

; 544  : 	if (m_Style){ //track mouse for radio & check buttons

  00016	83 be 84 00 00
	00 00		 cmp	 DWORD PTR [esi+132], 0
  0001d	57		 push	 edi
  0001e	8b 3d 00 00 00
	00		 mov	 edi, DWORD PTR __imp__SendMessageA@16
  00024	74 66		 je	 SHORT $LN6@OnLButtonU

; 545  : 		POINT p2 = point;

  00026	8b 45 0c	 mov	 eax, DWORD PTR _point$[ebp]
  00029	8b 4d 10	 mov	 ecx, DWORD PTR _point$[ebp+4]
  0002c	89 45 f8	 mov	 DWORD PTR _p2$2[ebp], eax

; 546  : 		::ClientToScreen(m_hWnd, &p2);

  0002f	8d 45 f8	 lea	 eax, DWORD PTR _p2$2[ebp]
  00032	50		 push	 eax
  00033	ff 76 20	 push	 DWORD PTR [esi+32]
  00036	89 4d fc	 mov	 DWORD PTR _p2$2[ebp+4], ecx
  00039	ff 15 00 00 00
	00		 call	 DWORD PTR __imp__ClientToScreen@8

; 547  : 		HWND mouse_wnd = ::WindowFromPoint(p2);

  0003f	ff 75 fc	 push	 DWORD PTR _p2$2[ebp+4]
  00042	ff 75 f8	 push	 DWORD PTR _p2$2[ebp]
  00045	ff 15 00 00 00
	00		 call	 DWORD PTR __imp__WindowFromPoint@8

; 548  : 		if (mouse_wnd == m_hWnd){ // mouse is in button

  0004b	8b 4e 20	 mov	 ecx, DWORD PTR [esi+32]
  0004e	3b c1		 cmp	 eax, ecx
  00050	75 3a		 jne	 SHORT $LN6@OnLButtonU

; 549  : 			if (m_Style==BS_CHECKBOX) SetCheck(m_Checked ? 0 : 1);

  00052	8b 86 84 00 00
	00		 mov	 eax, DWORD PTR [esi+132]
  00058	83 f8 02	 cmp	 eax, 2
  0005b	75 1c		 jne	 SHORT $LN5@OnLButtonU
  0005d	33 c0		 xor	 eax, eax
  0005f	38 86 80 00 00
	00		 cmp	 BYTE PTR [esi+128], al
; File C:\Program Files (x86)\Microsoft Visual Studio\2019\Community\VC\Tools\MSVC\14.29.30133\atlmfc\include\afxwin2.inl

; 630  : 	{ ASSERT(::IsWindow(m_hWnd)); ::SendMessage(m_hWnd, BM_SETCHECK, nCheck, 0); }

  00065	6a 00		 push	 0
; File D:\git\src\IBK\IBK_DRFN\ProjSrc\SrcDrfn\Chart\comparechart\control\xSkinButton.cpp

; 549  : 			if (m_Style==BS_CHECKBOX) SetCheck(m_Checked ? 0 : 1);

  00067	0f 94 c0	 sete	 al
; File C:\Program Files (x86)\Microsoft Visual Studio\2019\Community\VC\Tools\MSVC\14.29.30133\atlmfc\include\afxwin2.inl

; 630  : 	{ ASSERT(::IsWindow(m_hWnd)); ::SendMessage(m_hWnd, BM_SETCHECK, nCheck, 0); }

  0006a	50		 push	 eax
  0006b	68 f1 00 00 00	 push	 241			; 000000f1H
  00070	51		 push	 ecx
  00071	ff d7		 call	 edi
  00073	8b 86 84 00 00
	00		 mov	 eax, DWORD PTR [esi+132]
$LN5@OnLButtonU:
; File D:\git\src\IBK\IBK_DRFN\ProjSrc\SrcDrfn\Chart\comparechart\control\xSkinButton.cpp

; 550  : 			if (m_Style==BS_RADIOBUTTON) SetCheck(1);

  00079	83 f8 04	 cmp	 eax, 4
  0007c	75 0e		 jne	 SHORT $LN6@OnLButtonU
; File C:\Program Files (x86)\Microsoft Visual Studio\2019\Community\VC\Tools\MSVC\14.29.30133\atlmfc\include\afxwin2.inl

; 630  : 	{ ASSERT(::IsWindow(m_hWnd)); ::SendMessage(m_hWnd, BM_SETCHECK, nCheck, 0); }

  0007e	6a 00		 push	 0
  00080	6a 01		 push	 1
  00082	68 f1 00 00 00	 push	 241			; 000000f1H
  00087	ff 76 20	 push	 DWORD PTR [esi+32]
  0008a	ff d7		 call	 edi
$LN6@OnLButtonU:
; File D:\git\src\IBK\IBK_DRFN\ProjSrc\SrcDrfn\Chart\comparechart\control\xSkinButton.cpp

; 554  : 	RelayEvent(WM_LBUTTONUP,(WPARAM)nFlags,MAKELPARAM(LOWORD(point.x),LOWORD(point.y)));

  0008c	0f b7 4d 10	 movzx	 ecx, WORD PTR _point$[ebp+4]
  00090	0f b7 45 0c	 movzx	 eax, WORD PTR _point$[ebp]

; 437  : 	if(NULL != m_tooltip.m_hWnd){

  00094	8b 96 b0 00 00
	00		 mov	 edx, DWORD PTR [esi+176]

; 554  : 	RelayEvent(WM_LBUTTONUP,(WPARAM)nFlags,MAKELPARAM(LOWORD(point.x),LOWORD(point.y)));

  0009a	c1 e1 10	 shl	 ecx, 16			; 00000010H
  0009d	0b c8		 or	 ecx, eax

; 437  : 	if(NULL != m_tooltip.m_hWnd){

  0009f	85 d2		 test	 edx, edx
  000a1	74 37		 je	 SHORT $LN13@OnLButtonU

; 438  : 		MSG msg;
; 439  : 		msg.hwnd = m_hWnd;

  000a3	8b 46 20	 mov	 eax, DWORD PTR [esi+32]
  000a6	89 45 dc	 mov	 DWORD PTR _msg$1[ebp], eax

; 441  : 		msg.wParam = wParam;

  000a9	8b 45 08	 mov	 eax, DWORD PTR _nFlags$[ebp]
  000ac	89 45 e4	 mov	 DWORD PTR _msg$1[ebp+8], eax

; 444  : 		msg.pt.x = LOWORD(lParam);

  000af	0f b7 c1	 movzx	 eax, cx
  000b2	89 45 f0	 mov	 DWORD PTR _msg$1[ebp+20], eax
; File C:\Program Files (x86)\Microsoft Visual Studio\2019\Community\VC\Tools\MSVC\14.29.30133\atlmfc\include\afxcmn.inl

; 429  : 	{ ASSERT(::IsWindow(m_hWnd));  ::SendMessage(m_hWnd, TTM_RELAYEVENT, 0, (LPARAM)lpMsg); }

  000b5	8d 45 dc	 lea	 eax, DWORD PTR _msg$1[ebp]
  000b8	50		 push	 eax
  000b9	6a 00		 push	 0
; File D:\git\src\IBK\IBK_DRFN\ProjSrc\SrcDrfn\Chart\comparechart\control\xSkinButton.cpp

; 442  : 		msg.lParam = lParam;

  000bb	89 4d e8	 mov	 DWORD PTR _msg$1[ebp+12], ecx
; File C:\Program Files (x86)\Microsoft Visual Studio\2019\Community\VC\Tools\MSVC\14.29.30133\atlmfc\include\afxcmn.inl

; 429  : 	{ ASSERT(::IsWindow(m_hWnd));  ::SendMessage(m_hWnd, TTM_RELAYEVENT, 0, (LPARAM)lpMsg); }

  000be	68 07 04 00 00	 push	 1031			; 00000407H
; File D:\git\src\IBK\IBK_DRFN\ProjSrc\SrcDrfn\Chart\comparechart\control\xSkinButton.cpp

; 445  : 		msg.pt.y = HIWORD(lParam);

  000c3	c1 e9 10	 shr	 ecx, 16			; 00000010H
; File C:\Program Files (x86)\Microsoft Visual Studio\2019\Community\VC\Tools\MSVC\14.29.30133\atlmfc\include\afxcmn.inl

; 429  : 	{ ASSERT(::IsWindow(m_hWnd));  ::SendMessage(m_hWnd, TTM_RELAYEVENT, 0, (LPARAM)lpMsg); }

  000c6	52		 push	 edx
; File D:\git\src\IBK\IBK_DRFN\ProjSrc\SrcDrfn\Chart\comparechart\control\xSkinButton.cpp

; 440  : 		msg.message = message;

  000c7	c7 45 e0 02 02
	00 00		 mov	 DWORD PTR _msg$1[ebp+4], 514 ; 00000202H

; 443  : 		msg.time = 0;

  000ce	c7 45 ec 00 00
	00 00		 mov	 DWORD PTR _msg$1[ebp+16], 0

; 445  : 		msg.pt.y = HIWORD(lParam);

  000d5	89 4d f4	 mov	 DWORD PTR _msg$1[ebp+24], ecx
; File C:\Program Files (x86)\Microsoft Visual Studio\2019\Community\VC\Tools\MSVC\14.29.30133\atlmfc\include\afxcmn.inl

; 429  : 	{ ASSERT(::IsWindow(m_hWnd));  ::SendMessage(m_hWnd, TTM_RELAYEVENT, 0, (LPARAM)lpMsg); }

  000d8	ff d7		 call	 edi
$LN13@OnLButtonU:
; File C:\Program Files (x86)\Microsoft Visual Studio\2019\Community\VC\Tools\MSVC\14.29.30133\atlmfc\include\afxwin2.inl

; 434  : 	{ Default(); }

  000da	8b ce		 mov	 ecx, esi
; File D:\git\src\IBK\IBK_DRFN\ProjSrc\SrcDrfn\Chart\comparechart\control\xSkinButton.cpp

; 557  :     m_button_down = false;

  000dc	c6 86 89 00 00
	00 00		 mov	 BYTE PTR [esi+137], 0
; File C:\Program Files (x86)\Microsoft Visual Studio\2019\Community\VC\Tools\MSVC\14.29.30133\atlmfc\include\afxwin2.inl

; 434  : 	{ Default(); }

  000e3	e8 00 00 00 00	 call	 ?Default@CWnd@@IAEJXZ	; CWnd::Default
  000e8	5f		 pop	 edi
$LN1@OnLButtonU:
  000e9	5e		 pop	 esi
; File D:\git\src\IBK\IBK_DRFN\ProjSrc\SrcDrfn\Chart\comparechart\control\xSkinButton.cpp

; 559  : }

  000ea	8b e5		 mov	 esp, ebp
  000ec	5d		 pop	 ebp
  000ed	c2 0c 00	 ret	 12			; 0000000cH
?OnLButtonUp@CxSkinButton@@IAEXIVCPoint@@@Z ENDP	; CxSkinButton::OnLButtonUp
_TEXT	ENDS
; Function compile flags: /Ogtp
; File D:\git\src\IBK\IBK_DRFN\ProjSrc\SrcDrfn\Chart\comparechart\control\xSkinButton.cpp
; File C:\Program Files (x86)\Microsoft Visual Studio\2019\Community\VC\Tools\MSVC\14.29.30133\atlmfc\include\afxcmn.inl
; File D:\git\src\IBK\IBK_DRFN\ProjSrc\SrcDrfn\Chart\comparechart\control\xSkinButton.cpp
; File C:\Program Files (x86)\Microsoft Visual Studio\2019\Community\VC\Tools\MSVC\14.29.30133\atlmfc\include\afxcmn.inl
; File D:\git\src\IBK\IBK_DRFN\ProjSrc\SrcDrfn\Chart\comparechart\control\xSkinButton.cpp
; File C:\Program Files (x86)\Microsoft Visual Studio\2019\Community\VC\Tools\MSVC\14.29.30133\atlmfc\include\afxcmn.inl
; File D:\git\src\IBK\IBK_DRFN\ProjSrc\SrcDrfn\Chart\comparechart\control\xSkinButton.cpp
; File C:\Program Files (x86)\Microsoft Visual Studio\2019\Community\VC\Tools\MSVC\14.29.30133\atlmfc\include\afxcmn.inl
; File D:\git\src\IBK\IBK_DRFN\ProjSrc\SrcDrfn\Chart\comparechart\control\xSkinButton.cpp
; File C:\Program Files (x86)\Microsoft Visual Studio\2019\Community\VC\Tools\MSVC\14.29.30133\atlmfc\include\afxwin2.inl
; File D:\git\src\IBK\IBK_DRFN\ProjSrc\SrcDrfn\Chart\comparechart\control\xSkinButton.cpp
;	COMDAT ?OnLButtonDown@CxSkinButton@@IAEXIVCPoint@@@Z
_TEXT	SEGMENT
_msg$1 = -28						; size = 28
_t$2 = -16						; size = 16
_nFlags$ = 8						; size = 4
_point$ = 12						; size = 8
?OnLButtonDown@CxSkinButton@@IAEXIVCPoint@@@Z PROC	; CxSkinButton::OnLButtonDown, COMDAT
; _this$ = ecx

; 496  : {

  00000	55		 push	 ebp
  00001	8b ec		 mov	 ebp, esp

; 497  :     //TRACE("* %08X: down\n", ::GetTickCount());
; 498  : 
; 499  : 	//Pass this message to the ToolTip control
; 500  : 	RelayEvent(WM_LBUTTONDOWN,(WPARAM)nFlags,MAKELPARAM(LOWORD(point.x),LOWORD(point.y)));

  00003	0f b7 45 0c	 movzx	 eax, WORD PTR _point$[ebp]
  00007	83 ec 1c	 sub	 esp, 28			; 0000001cH
  0000a	56		 push	 esi
  0000b	8b f1		 mov	 esi, ecx
  0000d	0f b7 4d 10	 movzx	 ecx, WORD PTR _point$[ebp+4]
  00011	c1 e1 10	 shl	 ecx, 16			; 00000010H
  00014	0b c8		 or	 ecx, eax

; 437  : 	if(NULL != m_tooltip.m_hWnd){

  00016	8b 96 b0 00 00
	00		 mov	 edx, DWORD PTR [esi+176]
  0001c	85 d2		 test	 edx, edx
  0001e	74 3b		 je	 SHORT $LN6@OnLButtonD

; 438  : 		MSG msg;
; 439  : 		msg.hwnd = m_hWnd;

  00020	8b 46 20	 mov	 eax, DWORD PTR [esi+32]
  00023	89 45 e4	 mov	 DWORD PTR _msg$1[ebp], eax

; 441  : 		msg.wParam = wParam;

  00026	8b 45 08	 mov	 eax, DWORD PTR _nFlags$[ebp]
  00029	89 45 ec	 mov	 DWORD PTR _msg$1[ebp+8], eax

; 444  : 		msg.pt.x = LOWORD(lParam);

  0002c	0f b7 c1	 movzx	 eax, cx
  0002f	89 45 f8	 mov	 DWORD PTR _msg$1[ebp+20], eax
; File C:\Program Files (x86)\Microsoft Visual Studio\2019\Community\VC\Tools\MSVC\14.29.30133\atlmfc\include\afxcmn.inl

; 429  : 	{ ASSERT(::IsWindow(m_hWnd));  ::SendMessage(m_hWnd, TTM_RELAYEVENT, 0, (LPARAM)lpMsg); }

  00032	8d 45 e4	 lea	 eax, DWORD PTR _msg$1[ebp]
  00035	50		 push	 eax
  00036	6a 00		 push	 0
; File D:\git\src\IBK\IBK_DRFN\ProjSrc\SrcDrfn\Chart\comparechart\control\xSkinButton.cpp

; 442  : 		msg.lParam = lParam;

  00038	89 4d f0	 mov	 DWORD PTR _msg$1[ebp+12], ecx
; File C:\Program Files (x86)\Microsoft Visual Studio\2019\Community\VC\Tools\MSVC\14.29.30133\atlmfc\include\afxcmn.inl

; 429  : 	{ ASSERT(::IsWindow(m_hWnd));  ::SendMessage(m_hWnd, TTM_RELAYEVENT, 0, (LPARAM)lpMsg); }

  0003b	68 07 04 00 00	 push	 1031			; 00000407H
; File D:\git\src\IBK\IBK_DRFN\ProjSrc\SrcDrfn\Chart\comparechart\control\xSkinButton.cpp

; 445  : 		msg.pt.y = HIWORD(lParam);

  00040	c1 e9 10	 shr	 ecx, 16			; 00000010H
; File C:\Program Files (x86)\Microsoft Visual Studio\2019\Community\VC\Tools\MSVC\14.29.30133\atlmfc\include\afxcmn.inl

; 429  : 	{ ASSERT(::IsWindow(m_hWnd));  ::SendMessage(m_hWnd, TTM_RELAYEVENT, 0, (LPARAM)lpMsg); }

  00043	52		 push	 edx
; File D:\git\src\IBK\IBK_DRFN\ProjSrc\SrcDrfn\Chart\comparechart\control\xSkinButton.cpp

; 440  : 		msg.message = message;

  00044	c7 45 e8 01 02
	00 00		 mov	 DWORD PTR _msg$1[ebp+4], 513 ; 00000201H

; 443  : 		msg.time = 0;

  0004b	c7 45 f4 00 00
	00 00		 mov	 DWORD PTR _msg$1[ebp+16], 0

; 445  : 		msg.pt.y = HIWORD(lParam);

  00052	89 4d fc	 mov	 DWORD PTR _msg$1[ebp+24], ecx
; File C:\Program Files (x86)\Microsoft Visual Studio\2019\Community\VC\Tools\MSVC\14.29.30133\atlmfc\include\afxcmn.inl

; 429  : 	{ ASSERT(::IsWindow(m_hWnd));  ::SendMessage(m_hWnd, TTM_RELAYEVENT, 0, (LPARAM)lpMsg); }

  00055	ff 15 00 00 00
	00		 call	 DWORD PTR __imp__SendMessageA@16
$LN6@OnLButtonD:
; File D:\git\src\IBK\IBK_DRFN\ProjSrc\SrcDrfn\Chart\comparechart\control\xSkinButton.cpp

; 503  :     if (m_tracking) {

  0005b	80 be 88 00 00
	00 00		 cmp	 BYTE PTR [esi+136], 0
  00062	74 30		 je	 SHORT $LN3@OnLButtonD

; 504  :         TRACKMOUSEEVENT t = {
; 505  :             sizeof(TRACKMOUSEEVENT),
; 506  :             TME_CANCEL | TME_LEAVE,
; 507  :             m_hWnd,

  00064	8b 46 20	 mov	 eax, DWORD PTR [esi+32]
  00067	89 45 f8	 mov	 DWORD PTR _t$2[ebp+8], eax

; 508  :             0
; 509  :         };
; 510  :         if (::_TrackMouseEvent(&t)) {

  0006a	8d 45 f0	 lea	 eax, DWORD PTR _t$2[ebp]
  0006d	50		 push	 eax
  0006e	c7 45 f0 10 00
	00 00		 mov	 DWORD PTR _t$2[ebp], 16	; 00000010H
  00075	c7 45 f4 02 00
	00 80		 mov	 DWORD PTR _t$2[ebp+4], -2147483646 ; 80000002H
  0007c	c7 45 fc 00 00
	00 00		 mov	 DWORD PTR _t$2[ebp+12], 0
  00083	ff 15 00 00 00
	00		 call	 DWORD PTR __imp___TrackMouseEvent@4
  00089	85 c0		 test	 eax, eax
  0008b	74 07		 je	 SHORT $LN3@OnLButtonD

; 511  :             m_tracking = false;

  0008d	c6 86 88 00 00
	00 00		 mov	 BYTE PTR [esi+136], 0
$LN3@OnLButtonD:
; File C:\Program Files (x86)\Microsoft Visual Studio\2019\Community\VC\Tools\MSVC\14.29.30133\atlmfc\include\afxwin2.inl

; 432  : 	{ Default(); }

  00094	8b ce		 mov	 ecx, esi
  00096	e8 00 00 00 00	 call	 ?Default@CWnd@@IAEJXZ	; CWnd::Default
; File D:\git\src\IBK\IBK_DRFN\ProjSrc\SrcDrfn\Chart\comparechart\control\xSkinButton.cpp

; 517  :     m_button_down = true;

  0009b	c6 86 89 00 00
	00 01		 mov	 BYTE PTR [esi+137], 1
  000a2	5e		 pop	 esi

; 518  : }

  000a3	8b e5		 mov	 esp, ebp
  000a5	5d		 pop	 ebp
  000a6	c2 0c 00	 ret	 12			; 0000000cH
?OnLButtonDown@CxSkinButton@@IAEXIVCPoint@@@Z ENDP	; CxSkinButton::OnLButtonDown
_TEXT	ENDS
; Function compile flags: /Ogtp
; File D:\git\src\IBK\IBK_DRFN\ProjSrc\SrcDrfn\Chart\comparechart\control\xSkinButton.cpp
;	COMDAT ?OnEraseBkgnd@CxSkinButton@@IAEHPAVCDC@@@Z
_TEXT	SEGMENT
_pDC$ = 8						; size = 4
?OnEraseBkgnd@CxSkinButton@@IAEHPAVCDC@@@Z PROC		; CxSkinButton::OnEraseBkgnd, COMDAT
; _this$ = ecx

; 85   : {	return 1; }	// doesn't erase the button background

  00000	b8 01 00 00 00	 mov	 eax, 1
  00005	c2 04 00	 ret	 4
?OnEraseBkgnd@CxSkinButton@@IAEHPAVCDC@@@Z ENDP		; CxSkinButton::OnEraseBkgnd
_TEXT	ENDS
; Function compile flags: /Ogtp
; File D:\git\src\IBK\IBK_DRFN\ProjSrc\SrcDrfn\Chart\comparechart\control\xSkinButton.cpp
;	COMDAT ?GetBitmapHeight@CxSkinButton@@IAEHPAUHBITMAP__@@@Z
_TEXT	SEGMENT
_bm$ = -24						; size = 24
_hBitmap$ = 8						; size = 4
?GetBitmapHeight@CxSkinButton@@IAEHPAUHBITMAP__@@@Z PROC ; CxSkinButton::GetBitmapHeight, COMDAT
; _this$ = ecx

; 183  : { BITMAP bm; GetObject(hBitmap,sizeof(BITMAP),(PSTR)&bm); return bm.bmHeight;}

  00000	55		 push	 ebp
  00001	8b ec		 mov	 ebp, esp
  00003	83 ec 18	 sub	 esp, 24			; 00000018H
  00006	8d 45 e8	 lea	 eax, DWORD PTR _bm$[ebp]
  00009	50		 push	 eax
  0000a	6a 18		 push	 24			; 00000018H
  0000c	ff 75 08	 push	 DWORD PTR _hBitmap$[ebp]
  0000f	ff 15 00 00 00
	00		 call	 DWORD PTR __imp__GetObjectA@12
  00015	8b 45 f0	 mov	 eax, DWORD PTR _bm$[ebp+8]
  00018	8b e5		 mov	 esp, ebp
  0001a	5d		 pop	 ebp
  0001b	c2 04 00	 ret	 4
?GetBitmapHeight@CxSkinButton@@IAEHPAUHBITMAP__@@@Z ENDP ; CxSkinButton::GetBitmapHeight
_TEXT	ENDS
; Function compile flags: /Ogtp
; File D:\git\src\IBK\IBK_DRFN\ProjSrc\SrcDrfn\Chart\comparechart\control\xSkinButton.cpp
;	COMDAT ?GetBitmapWidth@CxSkinButton@@IAEHPAUHBITMAP__@@@Z
_TEXT	SEGMENT
_bm$ = -24						; size = 24
_hBitmap$ = 8						; size = 4
?GetBitmapWidth@CxSkinButton@@IAEHPAUHBITMAP__@@@Z PROC	; CxSkinButton::GetBitmapWidth, COMDAT
; _this$ = ecx

; 180  : { BITMAP bm; GetObject(hBitmap,sizeof(BITMAP),(PSTR)&bm); return bm.bmWidth;}

  00000	55		 push	 ebp
  00001	8b ec		 mov	 ebp, esp
  00003	83 ec 18	 sub	 esp, 24			; 00000018H
  00006	8d 45 e8	 lea	 eax, DWORD PTR _bm$[ebp]
  00009	50		 push	 eax
  0000a	6a 18		 push	 24			; 00000018H
  0000c	ff 75 08	 push	 DWORD PTR _hBitmap$[ebp]
  0000f	ff 15 00 00 00
	00		 call	 DWORD PTR __imp__GetObjectA@12
  00015	8b 45 ec	 mov	 eax, DWORD PTR _bm$[ebp+4]
  00018	8b e5		 mov	 esp, ebp
  0001a	5d		 pop	 ebp
  0001b	c2 04 00	 ret	 4
?GetBitmapWidth@CxSkinButton@@IAEHPAUHBITMAP__@@@Z ENDP	; CxSkinButton::GetBitmapWidth
_TEXT	ENDS
; Function compile flags: /Ogtp
; File D:\git\src\IBK\IBK_DRFN\ProjSrc\SrcDrfn\Chart\comparechart\control\xSkinButton.cpp
; File C:\Program Files (x86)\Microsoft Visual Studio\2019\Community\VC\Tools\MSVC\14.29.30133\atlmfc\include\afxwin1.inl
; File D:\git\src\IBK\IBK_DRFN\ProjSrc\SrcDrfn\Chart\comparechart\control\xSkinButton.cpp
; File C:\Program Files (x86)\Microsoft Visual Studio\2019\Community\VC\Tools\MSVC\14.29.30133\atlmfc\include\afxwin1.inl
; File D:\git\src\IBK\IBK_DRFN\ProjSrc\SrcDrfn\Chart\comparechart\control\xSkinButton.cpp
; File C:\Program Files (x86)\Microsoft Visual Studio\2019\Community\VC\Tools\MSVC\14.29.30133\atlmfc\include\afxwin1.inl
; File D:\git\src\IBK\IBK_DRFN\ProjSrc\SrcDrfn\Chart\comparechart\control\xSkinButton.cpp
; File C:\Program Files (x86)\Microsoft Visual Studio\2019\Community\VC\Tools\MSVC\14.29.30133\atlmfc\include\afxwin1.inl
; File D:\git\src\IBK\IBK_DRFN\ProjSrc\SrcDrfn\Chart\comparechart\control\xSkinButton.cpp
; File C:\Program Files (x86)\Microsoft Visual Studio\2019\Community\VC\Tools\MSVC\14.29.30133\atlmfc\include\afxwin1.inl
; File D:\git\src\IBK\IBK_DRFN\ProjSrc\SrcDrfn\Chart\comparechart\control\xSkinButton.cpp
; File C:\Program Files (x86)\Microsoft Visual Studio\2019\Community\VC\Tools\MSVC\14.29.30133\atlmfc\include\afxwin1.inl
; File D:\git\src\IBK\IBK_DRFN\ProjSrc\SrcDrfn\Chart\comparechart\control\xSkinButton.cpp
; File C:\Program Files (x86)\Microsoft Visual Studio\2019\Community\VC\Tools\MSVC\14.29.30133\atlmfc\include\afxwin1.inl
; File D:\git\src\IBK\IBK_DRFN\ProjSrc\SrcDrfn\Chart\comparechart\control\xSkinButton.cpp
; File C:\Program Files (x86)\Microsoft Visual Studio\2019\Community\VC\Tools\MSVC\14.29.30133\atlmfc\include\afxwin1.inl
; File D:\git\src\IBK\IBK_DRFN\ProjSrc\SrcDrfn\Chart\comparechart\control\xSkinButton.cpp
; File C:\Program Files (x86)\Microsoft Visual Studio\2019\Community\VC\Tools\MSVC\14.29.30133\atlmfc\include\afxwin1.inl
; File D:\git\src\IBK\IBK_DRFN\ProjSrc\SrcDrfn\Chart\comparechart\control\xSkinButton.cpp
; File C:\Program Files (x86)\Microsoft Visual Studio\2019\Community\VC\Tools\MSVC\14.29.30133\atlmfc\include\afxwin1.inl
; File D:\git\src\IBK\IBK_DRFN\ProjSrc\SrcDrfn\Chart\comparechart\control\xSkinButton.cpp
; File C:\Program Files (x86)\Microsoft Visual Studio\2019\Community\VC\Tools\MSVC\14.29.30133\atlmfc\include\afxwin1.inl
; File D:\git\src\IBK\IBK_DRFN\ProjSrc\SrcDrfn\Chart\comparechart\control\xSkinButton.cpp
; File C:\Program Files (x86)\Microsoft Visual Studio\2019\Community\VC\Tools\MSVC\14.29.30133\atlmfc\include\afxwin1.inl
; File D:\git\src\IBK\IBK_DRFN\ProjSrc\SrcDrfn\Chart\comparechart\control\xSkinButton.cpp
; File C:\Program Files (x86)\Microsoft Visual Studio\2019\Community\VC\Tools\MSVC\14.29.30133\atlmfc\include\afxwin1.inl
; File D:\git\src\IBK\IBK_DRFN\ProjSrc\SrcDrfn\Chart\comparechart\control\xSkinButton.cpp
; File C:\Program Files (x86)\Microsoft Visual Studio\2019\Community\VC\Tools\MSVC\14.29.30133\atlmfc\include\afxwin1.inl
; File D:\git\src\IBK\IBK_DRFN\ProjSrc\SrcDrfn\Chart\comparechart\control\xSkinButton.cpp
; File C:\Program Files (x86)\Microsoft Visual Studio\2019\Community\VC\Tools\MSVC\14.29.30133\atlmfc\include\afxwin1.inl
; File D:\git\src\IBK\IBK_DRFN\ProjSrc\SrcDrfn\Chart\comparechart\control\xSkinButton.cpp
;	COMDAT ?DrawBitmap@CxSkinButton@@IAEXPAVCDC@@PAUHBITMAP__@@UtagRECT@@H@Z
_TEXT	SEGMENT
_bm$2 = -144						; size = 24
_bm$3 = -144						; size = 24
_bm$4 = -144						; size = 24
_bm$5 = -120						; size = 24
_bm$6 = -120						; size = 24
_bm$7 = -120						; size = 24
_memdc$8 = -96						; size = 16
_dcMask$ = -80						; size = 16
_dcBmp$ = -64						; size = 16
_this$1$ = -48						; size = 4
_hdcMem$9 = -44						; size = 16
_hBitmap$10 = -28					; size = 8
_cy$1$ = -20						; size = 4
_h$1$ = -16						; size = 4
_cx$1$ = -16						; size = 4
__$EHRec$ = -12						; size = 12
_dc$ = 8						; size = 4
_w$1$ = 12						; size = 4
_hbmp$ = 12						; size = 4
_r$ = 16						; size = 16
_by$1$ = 32						; size = 4
_DrawMode$ = 32						; size = 4
?DrawBitmap@CxSkinButton@@IAEXPAVCDC@@PAUHBITMAP__@@UtagRECT@@H@Z PROC ; CxSkinButton::DrawBitmap, COMDAT
; _this$ = ecx

; 186  : {

  00000	55		 push	 ebp
  00001	8b ec		 mov	 ebp, esp
  00003	6a ff		 push	 -1
  00005	68 00 00 00 00	 push	 __ehhandler$?DrawBitmap@CxSkinButton@@IAEXPAVCDC@@PAUHBITMAP__@@UtagRECT@@H@Z
  0000a	64 a1 00 00 00
	00		 mov	 eax, DWORD PTR fs:0
  00010	50		 push	 eax
  00011	81 ec 84 00 00
	00		 sub	 esp, 132		; 00000084H
  00017	53		 push	 ebx
  00018	56		 push	 esi
  00019	57		 push	 edi
  0001a	a1 00 00 00 00	 mov	 eax, DWORD PTR ___security_cookie
  0001f	33 c5		 xor	 eax, ebp
  00021	50		 push	 eax
  00022	8d 45 f4	 lea	 eax, DWORD PTR __$EHRec$[ebp]
  00025	64 a3 00 00 00
	00		 mov	 DWORD PTR fs:0, eax
  0002b	89 4d d0	 mov	 DWORD PTR _this$1$[ebp], ecx

; 242  : 	if(!hbmp) return;

  0002e	8b 7d 0c	 mov	 edi, DWORD PTR _hbmp$[ebp]
  00031	85 ff		 test	 edi, edi
  00033	0f 84 cc 03 00
	00		 je	 $LN1@DrawBitmap

; 187  : //	DrawMode: 0=Normal; 1=stretch; 2=tiled fill
; 188  : 	if(DrawMode==2){

  00039	83 7d 20 02	 cmp	 DWORD PTR _DrawMode$[ebp], 2
  0003d	0f 85 df 00 00
	00		 jne	 $LN2@DrawBitmap

; 243  : 	CDC memdc;

  00043	8d 4d a0	 lea	 ecx, DWORD PTR _memdc$8[ebp]
  00046	e8 00 00 00 00	 call	 ??0CDC@@QAE@XZ		; CDC::CDC
; File C:\Program Files (x86)\Microsoft Visual Studio\2019\Community\VC\Tools\MSVC\14.29.30133\atlmfc\include\afxwin1.inl

; 316  : 	{ return this == NULL ? NULL : m_hDC; }

  0004b	8b 45 08	 mov	 eax, DWORD PTR _dc$[ebp]
; File D:\git\src\IBK\IBK_DRFN\ProjSrc\SrcDrfn\Chart\comparechart\control\xSkinButton.cpp

; 243  : 	CDC memdc;

  0004e	c7 45 fc 00 00
	00 00		 mov	 DWORD PTR __$EHRec$[ebp+8], 0
; File C:\Program Files (x86)\Microsoft Visual Studio\2019\Community\VC\Tools\MSVC\14.29.30133\atlmfc\include\afxwin1.inl

; 316  : 	{ return this == NULL ? NULL : m_hDC; }

  00055	85 c0		 test	 eax, eax
  00057	74 03		 je	 SHORT $LN32@DrawBitmap
$LN31@DrawBitmap:
  00059	8b 40 04	 mov	 eax, DWORD PTR [eax+4]
$LN32@DrawBitmap:

; 330  : 	{ return Attach(::CreateCompatibleDC(pDC->GetSafeHdc())); }

  0005c	50		 push	 eax
  0005d	ff 15 00 00 00
	00		 call	 DWORD PTR __imp__CreateCompatibleDC@4
  00063	50		 push	 eax
  00064	8d 4d a0	 lea	 ecx, DWORD PTR _memdc$8[ebp]
  00067	e8 00 00 00 00	 call	 ?Attach@CDC@@QAEHPAUHDC__@@@Z ; CDC::Attach

; 366  : 		return (hObject != NULL) ? ::SelectObject(m_hDC, hObject) : NULL; }

  0006c	57		 push	 edi
  0006d	ff 75 a4	 push	 DWORD PTR _memdc$8[ebp+4]
  00070	ff 15 00 00 00
	00		 call	 DWORD PTR __imp__SelectObject@8
; File D:\git\src\IBK\IBK_DRFN\ProjSrc\SrcDrfn\Chart\comparechart\control\xSkinButton.cpp

; 246  : 	int w = r.right - r.left;

  00076	8b 45 18	 mov	 eax, DWORD PTR _r$[ebp+8]
  00079	2b 45 10	 sub	 eax, DWORD PTR _r$[ebp]

; 247  : 	int	h = r.bottom - r.top;

  0007c	8b 5d 14	 mov	 ebx, DWORD PTR _r$[ebp+4]

; 180  : { BITMAP bm; GetObject(hBitmap,sizeof(BITMAP),(PSTR)&bm); return bm.bmWidth;}

  0007f	8b 35 00 00 00
	00		 mov	 esi, DWORD PTR __imp__GetObjectA@12

; 246  : 	int w = r.right - r.left;

  00085	89 45 0c	 mov	 DWORD PTR _w$1$[ebp], eax

; 247  : 	int	h = r.bottom - r.top;

  00088	8b 45 1c	 mov	 eax, DWORD PTR _r$[ebp+12]
  0008b	2b c3		 sub	 eax, ebx
  0008d	89 45 f0	 mov	 DWORD PTR _h$1$[ebp], eax

; 180  : { BITMAP bm; GetObject(hBitmap,sizeof(BITMAP),(PSTR)&bm); return bm.bmWidth;}

  00090	8d 85 70 ff ff
	ff		 lea	 eax, DWORD PTR _bm$3[ebp]
  00096	50		 push	 eax
  00097	6a 18		 push	 24			; 00000018H
  00099	57		 push	 edi
  0009a	ff d6		 call	 esi

; 183  : { BITMAP bm; GetObject(hBitmap,sizeof(BITMAP),(PSTR)&bm); return bm.bmHeight;}

  0009c	8d 45 88	 lea	 eax, DWORD PTR _bm$6[ebp]
  0009f	50		 push	 eax
  000a0	6a 18		 push	 24			; 00000018H
  000a2	57		 push	 edi
  000a3	ff d6		 call	 esi

; 251  : 	for (y = r.top ; y < h ; y += by){

  000a5	8b 7d f0	 mov	 edi, DWORD PTR _h$1$[ebp]
  000a8	8b 75 90	 mov	 esi, DWORD PTR _bm$6[ebp+8]
  000ab	3b df		 cmp	 ebx, edi
  000ad	7d 62		 jge	 SHORT $LN17@DrawBitmap
  000af	8b 55 0c	 mov	 edx, DWORD PTR _w$1$[ebp]
$LL18@DrawBitmap:

; 252  : 		if ((y+by)>h) by=h-y;
; 253  : 		z=bx;

  000b2	8b cf		 mov	 ecx, edi
  000b4	8d 04 33	 lea	 eax, DWORD PTR [ebx+esi]
  000b7	2b cb		 sub	 ecx, ebx
  000b9	3b c7		 cmp	 eax, edi
  000bb	8b bd 74 ff ff
	ff		 mov	 edi, DWORD PTR _bm$3[ebp+4]
  000c1	0f 4e ce	 cmovle	 ecx, esi

; 254  : 		for (x = r.left ; x < w ; x += z){

  000c4	8b 75 10	 mov	 esi, DWORD PTR _r$[ebp]
  000c7	89 4d 20	 mov	 DWORD PTR _by$1$[ebp], ecx
  000ca	3b f2		 cmp	 esi, edx
  000cc	7d 37		 jge	 SHORT $LN16@DrawBitmap
  000ce	66 90		 npad	 2
$LL21@DrawBitmap:
; File C:\Program Files (x86)\Microsoft Visual Studio\2019\Community\VC\Tools\MSVC\14.29.30133\atlmfc\include\afxwin1.inl

; 552  : 	{ ASSERT(m_hDC != NULL); return ::BitBlt(m_hDC, x, y, nWidth, nHeight,

  000d0	68 20 00 cc 00	 push	 13369376		; 00cc0020H
  000d5	6a 00		 push	 0
  000d7	6a 00		 push	 0
  000d9	ff 75 a4	 push	 DWORD PTR _memdc$8[ebp+4]
; File D:\git\src\IBK\IBK_DRFN\ProjSrc\SrcDrfn\Chart\comparechart\control\xSkinButton.cpp

; 255  : 			if ((x+z)>w) z=w-x;

  000dc	8d 04 3e	 lea	 eax, DWORD PTR [esi+edi]
; File C:\Program Files (x86)\Microsoft Visual Studio\2019\Community\VC\Tools\MSVC\14.29.30133\atlmfc\include\afxwin1.inl

; 316  : 	{ return this == NULL ? NULL : m_hDC; }

  000df	8b ca		 mov	 ecx, edx

; 552  : 	{ ASSERT(m_hDC != NULL); return ::BitBlt(m_hDC, x, y, nWidth, nHeight,

  000e1	ff 75 20	 push	 DWORD PTR _by$1$[ebp]

; 316  : 	{ return this == NULL ? NULL : m_hDC; }

  000e4	2b ce		 sub	 ecx, esi
  000e6	3b c2		 cmp	 eax, edx

; 552  : 	{ ASSERT(m_hDC != NULL); return ::BitBlt(m_hDC, x, y, nWidth, nHeight,

  000e8	8b 45 08	 mov	 eax, DWORD PTR _dc$[ebp]

; 316  : 	{ return this == NULL ? NULL : m_hDC; }

  000eb	0f 4e cf	 cmovle	 ecx, edi
  000ee	8b f9		 mov	 edi, ecx

; 552  : 	{ ASSERT(m_hDC != NULL); return ::BitBlt(m_hDC, x, y, nWidth, nHeight,

  000f0	57		 push	 edi
  000f1	53		 push	 ebx
  000f2	56		 push	 esi
  000f3	ff 70 04	 push	 DWORD PTR [eax+4]
  000f6	ff 15 00 00 00
	00		 call	 DWORD PTR __imp__BitBlt@36
; File D:\git\src\IBK\IBK_DRFN\ProjSrc\SrcDrfn\Chart\comparechart\control\xSkinButton.cpp

; 254  : 		for (x = r.left ; x < w ; x += z){

  000fc	8b 55 0c	 mov	 edx, DWORD PTR _w$1$[ebp]
  000ff	03 f7		 add	 esi, edi
  00101	3b f2		 cmp	 esi, edx
  00103	7c cb		 jl	 SHORT $LL21@DrawBitmap
$LN16@DrawBitmap:

; 248  : 	int x,y,z;
; 249  : 	int	bx=GetBitmapWidth(hbmp);
; 250  : 	int	by=GetBitmapHeight(hbmp);
; 251  : 	for (y = r.top ; y < h ; y += by){

  00105	8b 75 20	 mov	 esi, DWORD PTR _by$1$[ebp]
  00108	03 de		 add	 ebx, esi
  0010a	8b 7d f0	 mov	 edi, DWORD PTR _h$1$[ebp]
  0010d	3b df		 cmp	 ebx, edi
  0010f	7c a1		 jl	 SHORT $LL18@DrawBitmap
$LN17@DrawBitmap:

; 256  : 			dc->BitBlt(x, y, z, by, &memdc, 0, 0, SRCCOPY);
; 257  : 		}
; 258  : 	}
; 259  : 	DeleteDC(memdc);

  00111	ff 75 a4	 push	 DWORD PTR _memdc$8[ebp+4]
  00114	ff 15 00 00 00
	00		 call	 DWORD PTR __imp__DeleteDC@4

; 260  : }

  0011a	8d 4d a0	 lea	 ecx, DWORD PTR _memdc$8[ebp]

; 189  : 		FillWithBitmap(dc,hbmp,r);
; 190  : 		return;

  0011d	e9 de 02 00 00	 jmp	 $LN183@DrawBitmap
$LN2@DrawBitmap:

; 191  : 	}
; 192  : 	if(!hbmp) return;	//safe check
; 193  : 
; 194  : 	int cx=r.right  - r.left;

  00122	8b 7d 18	 mov	 edi, DWORD PTR _r$[ebp+8]

; 196  : 	CDC dcBmp,dcMask;

  00125	8d 4d c0	 lea	 ecx, DWORD PTR _dcBmp$[ebp]
  00128	8b 75 1c	 mov	 esi, DWORD PTR _r$[ebp+12]
  0012b	2b 7d 10	 sub	 edi, DWORD PTR _r$[ebp]
  0012e	2b 75 14	 sub	 esi, DWORD PTR _r$[ebp+4]
  00131	89 7d f0	 mov	 DWORD PTR _cx$1$[ebp], edi
  00134	89 75 ec	 mov	 DWORD PTR _cy$1$[ebp], esi
  00137	e8 00 00 00 00	 call	 ??0CDC@@QAE@XZ		; CDC::CDC
  0013c	8d 4d b0	 lea	 ecx, DWORD PTR _dcMask$[ebp]
  0013f	c7 45 fc 01 00
	00 00		 mov	 DWORD PTR __$EHRec$[ebp+8], 1
  00146	e8 00 00 00 00	 call	 ??0CDC@@QAE@XZ		; CDC::CDC
; File C:\Program Files (x86)\Microsoft Visual Studio\2019\Community\VC\Tools\MSVC\14.29.30133\atlmfc\include\afxwin1.inl

; 316  : 	{ return this == NULL ? NULL : m_hDC; }

  0014b	8b 5d 08	 mov	 ebx, DWORD PTR _dc$[ebp]
; File D:\git\src\IBK\IBK_DRFN\ProjSrc\SrcDrfn\Chart\comparechart\control\xSkinButton.cpp

; 196  : 	CDC dcBmp,dcMask;

  0014e	c6 45 fc 02	 mov	 BYTE PTR __$EHRec$[ebp+8], 2
; File C:\Program Files (x86)\Microsoft Visual Studio\2019\Community\VC\Tools\MSVC\14.29.30133\atlmfc\include\afxwin1.inl

; 316  : 	{ return this == NULL ? NULL : m_hDC; }

  00152	85 db		 test	 ebx, ebx
  00154	75 04		 jne	 SHORT $LN55@DrawBitmap
  00156	33 c0		 xor	 eax, eax
  00158	eb 03		 jmp	 SHORT $LN56@DrawBitmap
$LN55@DrawBitmap:
  0015a	8b 43 04	 mov	 eax, DWORD PTR [ebx+4]
$LN56@DrawBitmap:

; 330  : 	{ return Attach(::CreateCompatibleDC(pDC->GetSafeHdc())); }

  0015d	50		 push	 eax
  0015e	ff 15 00 00 00
	00		 call	 DWORD PTR __imp__CreateCompatibleDC@4
  00164	50		 push	 eax
  00165	8d 4d c0	 lea	 ecx, DWORD PTR _dcBmp$[ebp]
  00168	e8 00 00 00 00	 call	 ?Attach@CDC@@QAEHPAUHDC__@@@Z ; CDC::Attach

; 366  : 		return (hObject != NULL) ? ::SelectObject(m_hDC, hObject) : NULL; }

  0016d	ff 75 0c	 push	 DWORD PTR _hbmp$[ebp]
  00170	ff 75 c4	 push	 DWORD PTR _dcBmp$[ebp+4]
  00173	ff 15 00 00 00
	00		 call	 DWORD PTR __imp__SelectObject@8
; File D:\git\src\IBK\IBK_DRFN\ProjSrc\SrcDrfn\Chart\comparechart\control\xSkinButton.cpp

; 200  : 	if (m_bMask.m_hObject!=NULL){

  00179	8b 45 d0	 mov	 eax, DWORD PTR _this$1$[ebp]
  0017c	83 b8 4c 01 00
	00 00		 cmp	 DWORD PTR [eax+332], 0
  00183	0f 84 f5 01 00
	00		 je	 $LN4@DrawBitmap
; File C:\Program Files (x86)\Microsoft Visual Studio\2019\Community\VC\Tools\MSVC\14.29.30133\atlmfc\include\afxwin1.inl

; 316  : 	{ return this == NULL ? NULL : m_hDC; }

  00189	85 db		 test	 ebx, ebx
  0018b	75 04		 jne	 SHORT $LN65@DrawBitmap
  0018d	33 c0		 xor	 eax, eax
  0018f	eb 03		 jmp	 SHORT $LN66@DrawBitmap
$LN65@DrawBitmap:
  00191	8b 43 04	 mov	 eax, DWORD PTR [ebx+4]
$LN66@DrawBitmap:

; 330  : 	{ return Attach(::CreateCompatibleDC(pDC->GetSafeHdc())); }

  00194	50		 push	 eax
  00195	ff 15 00 00 00
	00		 call	 DWORD PTR __imp__CreateCompatibleDC@4
  0019b	50		 push	 eax
  0019c	8d 4d b0	 lea	 ecx, DWORD PTR _dcMask$[ebp]
  0019f	e8 00 00 00 00	 call	 ?Attach@CDC@@QAEHPAUHDC__@@@Z ; CDC::Attach
; File D:\git\src\IBK\IBK_DRFN\ProjSrc\SrcDrfn\Chart\comparechart\control\xSkinButton.cpp

; 202  : 		dcMask.SelectObject(m_bMask);

  001a4	8b 45 d0	 mov	 eax, DWORD PTR _this$1$[ebp]
  001a7	05 48 01 00 00	 add	 eax, 328		; 00000148H
; File C:\Program Files (x86)\Microsoft Visual Studio\2019\Community\VC\Tools\MSVC\14.29.30133\atlmfc\include\afxwin1.inl

; 66   : 	{ return this == NULL ? NULL : m_hObject; }

  001ac	74 11		 je	 SHORT $LN73@DrawBitmap
  001ae	8b 40 04	 mov	 eax, DWORD PTR [eax+4]

; 366  : 		return (hObject != NULL) ? ::SelectObject(m_hDC, hObject) : NULL; }

  001b1	85 c0		 test	 eax, eax
  001b3	74 0a		 je	 SHORT $LN73@DrawBitmap
  001b5	50		 push	 eax
  001b6	ff 75 b4	 push	 DWORD PTR _dcMask$[ebp+4]
  001b9	ff 15 00 00 00
	00		 call	 DWORD PTR __imp__SelectObject@8
$LN73@DrawBitmap:
; File D:\git\src\IBK\IBK_DRFN\ProjSrc\SrcDrfn\Chart\comparechart\control\xSkinButton.cpp

; 204  : 		CDC hdcMem;

  001bf	8d 4d d4	 lea	 ecx, DWORD PTR _hdcMem$9[ebp]
  001c2	e8 00 00 00 00	 call	 ??0CDC@@QAE@XZ		; CDC::CDC
  001c7	c6 45 fc 03	 mov	 BYTE PTR __$EHRec$[ebp+8], 3
; File C:\Program Files (x86)\Microsoft Visual Studio\2019\Community\VC\Tools\MSVC\14.29.30133\atlmfc\include\afxwin1.inl

; 316  : 	{ return this == NULL ? NULL : m_hDC; }

  001cb	85 db		 test	 ebx, ebx
  001cd	75 04		 jne	 SHORT $LN79@DrawBitmap
  001cf	33 c0		 xor	 eax, eax
  001d1	eb 03		 jmp	 SHORT $LN80@DrawBitmap
$LN79@DrawBitmap:
  001d3	8b 43 04	 mov	 eax, DWORD PTR [ebx+4]
$LN80@DrawBitmap:

; 330  : 	{ return Attach(::CreateCompatibleDC(pDC->GetSafeHdc())); }

  001d6	50		 push	 eax
  001d7	ff 15 00 00 00
	00		 call	 DWORD PTR __imp__CreateCompatibleDC@4
  001dd	50		 push	 eax
  001de	8d 4d d4	 lea	 ecx, DWORD PTR _hdcMem$9[ebp]
  001e1	e8 00 00 00 00	 call	 ?Attach@CDC@@QAEHPAUHDC__@@@Z ; CDC::Attach

; 70   : 	{ m_hObject = NULL; }

  001e6	c7 45 e8 00 00
	00 00		 mov	 DWORD PTR _hBitmap$10[ebp+4], 0

; 177  : 	{ }

  001ed	c7 45 e4 00 00
	00 00		 mov	 DWORD PTR _hBitmap$10[ebp], OFFSET ??_7CBitmap@@6B@

; 217  : 	{ return Attach(::CreateCompatibleBitmap(pDC->m_hDC, nWidth, nHeight)); }

  001f4	56		 push	 esi
  001f5	57		 push	 edi
  001f6	ff 73 04	 push	 DWORD PTR [ebx+4]
; File D:\git\src\IBK\IBK_DRFN\ProjSrc\SrcDrfn\Chart\comparechart\control\xSkinButton.cpp

; 206  : 	    CBitmap hBitmap;

  001f9	c6 45 fc 04	 mov	 BYTE PTR __$EHRec$[ebp+8], 4
; File C:\Program Files (x86)\Microsoft Visual Studio\2019\Community\VC\Tools\MSVC\14.29.30133\atlmfc\include\afxwin1.inl

; 217  : 	{ return Attach(::CreateCompatibleBitmap(pDC->m_hDC, nWidth, nHeight)); }

  001fd	ff 15 00 00 00
	00		 call	 DWORD PTR __imp__CreateCompatibleBitmap@12
  00203	50		 push	 eax
  00204	8d 4d e4	 lea	 ecx, DWORD PTR _hBitmap$10[ebp]
  00207	e8 00 00 00 00	 call	 ?Attach@CGdiObject@@QAEHPAX@Z ; CGdiObject::Attach

; 366  : 		return (hObject != NULL) ? ::SelectObject(m_hDC, hObject) : NULL; }

  0020c	8b 45 e8	 mov	 eax, DWORD PTR _hBitmap$10[ebp+4]
  0020f	85 c0		 test	 eax, eax
  00211	74 0a		 je	 SHORT $LN93@DrawBitmap
  00213	50		 push	 eax
  00214	ff 75 d8	 push	 DWORD PTR _hdcMem$9[ebp+4]
  00217	ff 15 00 00 00
	00		 call	 DWORD PTR __imp__SelectObject@8
$LN93@DrawBitmap:

; 552  : 	{ ASSERT(m_hDC != NULL); return ::BitBlt(m_hDC, x, y, nWidth, nHeight,

  0021d	68 20 00 cc 00	 push	 13369376		; 00cc0020H
  00222	6a 00		 push	 0
  00224	6a 00		 push	 0
  00226	ff 73 04	 push	 DWORD PTR [ebx+4]
  00229	56		 push	 esi
  0022a	57		 push	 edi
  0022b	ff 75 14	 push	 DWORD PTR _r$[ebp+4]
  0022e	ff 75 10	 push	 DWORD PTR _r$[ebp]
  00231	ff 75 d8	 push	 DWORD PTR _hdcMem$9[ebp+4]
  00234	ff 15 00 00 00
	00		 call	 DWORD PTR __imp__BitBlt@36
; File D:\git\src\IBK\IBK_DRFN\ProjSrc\SrcDrfn\Chart\comparechart\control\xSkinButton.cpp

; 211  : 		if(!DrawMode){

  0023a	83 7d 20 00	 cmp	 DWORD PTR _DrawMode$[ebp], 0
  0023e	75 5c		 jne	 SHORT $LN6@DrawBitmap
; File C:\Program Files (x86)\Microsoft Visual Studio\2019\Community\VC\Tools\MSVC\14.29.30133\atlmfc\include\afxwin1.inl

; 552  : 	{ ASSERT(m_hDC != NULL); return ::BitBlt(m_hDC, x, y, nWidth, nHeight,

  00240	68 46 00 66 00	 push	 6684742			; 00660046H
  00245	6a 00		 push	 0
  00247	6a 00		 push	 0
  00249	ff 75 c4	 push	 DWORD PTR _dcBmp$[ebp+4]
  0024c	56		 push	 esi
  0024d	57		 push	 edi
  0024e	ff 75 14	 push	 DWORD PTR _r$[ebp+4]
  00251	ff 75 10	 push	 DWORD PTR _r$[ebp]
  00254	ff 75 d8	 push	 DWORD PTR _hdcMem$9[ebp+4]
  00257	ff 15 00 00 00
	00		 call	 DWORD PTR __imp__BitBlt@36
  0025d	68 c6 00 88 00	 push	 8913094			; 008800c6H
  00262	6a 00		 push	 0
  00264	6a 00		 push	 0
  00266	ff 75 b4	 push	 DWORD PTR _dcMask$[ebp+4]
  00269	56		 push	 esi
  0026a	57		 push	 edi
  0026b	ff 75 14	 push	 DWORD PTR _r$[ebp+4]
  0026e	ff 75 10	 push	 DWORD PTR _r$[ebp]
  00271	ff 75 d8	 push	 DWORD PTR _hdcMem$9[ebp+4]
  00274	ff 15 00 00 00
	00		 call	 DWORD PTR __imp__BitBlt@36
  0027a	68 46 00 66 00	 push	 6684742			; 00660046H
  0027f	6a 00		 push	 0
  00281	6a 00		 push	 0
  00283	ff 75 c4	 push	 DWORD PTR _dcBmp$[ebp+4]
  00286	56		 push	 esi
  00287	57		 push	 edi
  00288	ff 75 14	 push	 DWORD PTR _r$[ebp+4]
  0028b	ff 75 10	 push	 DWORD PTR _r$[ebp]
  0028e	ff 75 d8	 push	 DWORD PTR _hdcMem$9[ebp+4]
  00291	ff 15 00 00 00
	00		 call	 DWORD PTR __imp__BitBlt@36
; File D:\git\src\IBK\IBK_DRFN\ProjSrc\SrcDrfn\Chart\comparechart\control\xSkinButton.cpp

; 215  : 		} else {

  00297	e9 91 00 00 00	 jmp	 $LN7@DrawBitmap
$LN6@DrawBitmap:

; 180  : { BITMAP bm; GetObject(hBitmap,sizeof(BITMAP),(PSTR)&bm); return bm.bmWidth;}

  0029c	8b 5d 0c	 mov	 ebx, DWORD PTR _hbmp$[ebp]
  0029f	8d 45 88	 lea	 eax, DWORD PTR _bm$7[ebp]
  002a2	8b 35 00 00 00
	00		 mov	 esi, DWORD PTR __imp__GetObjectA@12
  002a8	50		 push	 eax
  002a9	6a 18		 push	 24			; 00000018H
  002ab	53		 push	 ebx
  002ac	ff d6		 call	 esi

; 183  : { BITMAP bm; GetObject(hBitmap,sizeof(BITMAP),(PSTR)&bm); return bm.bmHeight;}

  002ae	8d 85 70 ff ff
	ff		 lea	 eax, DWORD PTR _bm$4[ebp]
  002b4	50		 push	 eax
  002b5	6a 18		 push	 24			; 00000018H
  002b7	53		 push	 ebx
  002b8	ff d6		 call	 esi
; File C:\Program Files (x86)\Microsoft Visual Studio\2019\Community\VC\Tools\MSVC\14.29.30133\atlmfc\include\afxwin1.inl

; 556  : 	{ ASSERT(m_hDC != NULL); return ::StretchBlt(m_hDC, x, y, nWidth, nHeight,

  002ba	8b 9d 78 ff ff
	ff		 mov	 ebx, DWORD PTR _bm$4[ebp+8]
  002c0	8b 7d 8c	 mov	 edi, DWORD PTR _bm$7[ebp+4]
  002c3	68 46 00 66 00	 push	 6684742			; 00660046H
  002c8	53		 push	 ebx
  002c9	8b 35 00 00 00
	00		 mov	 esi, DWORD PTR __imp__StretchBlt@44
  002cf	57		 push	 edi
  002d0	6a 00		 push	 0
  002d2	6a 00		 push	 0
  002d4	ff 75 c4	 push	 DWORD PTR _dcBmp$[ebp+4]
  002d7	ff 75 ec	 push	 DWORD PTR _cy$1$[ebp]
  002da	ff 75 f0	 push	 DWORD PTR _cx$1$[ebp]
  002dd	ff 75 14	 push	 DWORD PTR _r$[ebp+4]
  002e0	ff 75 10	 push	 DWORD PTR _r$[ebp]
  002e3	ff 75 d8	 push	 DWORD PTR _hdcMem$9[ebp+4]
  002e6	ff d6		 call	 esi
  002e8	68 c6 00 88 00	 push	 8913094			; 008800c6H
  002ed	53		 push	 ebx
  002ee	57		 push	 edi
  002ef	6a 00		 push	 0
  002f1	6a 00		 push	 0
  002f3	ff 75 b4	 push	 DWORD PTR _dcMask$[ebp+4]
  002f6	ff 75 ec	 push	 DWORD PTR _cy$1$[ebp]
  002f9	ff 75 f0	 push	 DWORD PTR _cx$1$[ebp]
  002fc	ff 75 14	 push	 DWORD PTR _r$[ebp+4]
  002ff	ff 75 10	 push	 DWORD PTR _r$[ebp]
  00302	ff 75 d8	 push	 DWORD PTR _hdcMem$9[ebp+4]
  00305	ff d6		 call	 esi
  00307	68 46 00 66 00	 push	 6684742			; 00660046H
  0030c	53		 push	 ebx
  0030d	57		 push	 edi
  0030e	8b 7d f0	 mov	 edi, DWORD PTR _cx$1$[ebp]
  00311	6a 00		 push	 0
  00313	6a 00		 push	 0
  00315	ff 75 c4	 push	 DWORD PTR _dcBmp$[ebp+4]
  00318	ff 75 ec	 push	 DWORD PTR _cy$1$[ebp]
  0031b	57		 push	 edi
  0031c	ff 75 14	 push	 DWORD PTR _r$[ebp+4]
  0031f	ff 75 10	 push	 DWORD PTR _r$[ebp]
  00322	ff 75 d8	 push	 DWORD PTR _hdcMem$9[ebp+4]
  00325	ff d6		 call	 esi
  00327	8b 5d 08	 mov	 ebx, DWORD PTR _dc$[ebp]
  0032a	8b 75 ec	 mov	 esi, DWORD PTR _cy$1$[ebp]
$LN7@DrawBitmap:

; 552  : 	{ ASSERT(m_hDC != NULL); return ::BitBlt(m_hDC, x, y, nWidth, nHeight,

  0032d	68 20 00 cc 00	 push	 13369376		; 00cc0020H
  00332	6a 00		 push	 0
  00334	6a 00		 push	 0
  00336	ff 75 d8	 push	 DWORD PTR _hdcMem$9[ebp+4]
  00339	56		 push	 esi
  0033a	57		 push	 edi
  0033b	ff 75 14	 push	 DWORD PTR _r$[ebp+4]
  0033e	ff 75 10	 push	 DWORD PTR _r$[ebp]
  00341	ff 73 04	 push	 DWORD PTR [ebx+4]
  00344	ff 15 00 00 00
	00		 call	 DWORD PTR __imp__BitBlt@36
; File D:\git\src\IBK\IBK_DRFN\ProjSrc\SrcDrfn\Chart\comparechart\control\xSkinButton.cpp

; 224  : 		hdcMem.DeleteDC();

  0034a	8d 4d d4	 lea	 ecx, DWORD PTR _hdcMem$9[ebp]
  0034d	e8 00 00 00 00	 call	 ?DeleteDC@CDC@@QAEHXZ	; CDC::DeleteDC

; 225  : 		hBitmap.DeleteObject();

  00352	8d 4d e4	 lea	 ecx, DWORD PTR _hBitmap$10[ebp]
  00355	e8 00 00 00 00	 call	 ?DeleteObject@CGdiObject@@QAEHXZ ; CGdiObject::DeleteObject

; 226  : 
; 227  : 		DeleteDC(dcMask);

  0035a	ff 75 b4	 push	 DWORD PTR _dcMask$[ebp+4]
  0035d	8b 35 00 00 00
	00		 mov	 esi, DWORD PTR __imp__DeleteDC@4
  00363	ff d6		 call	 esi
; File C:\Program Files (x86)\Microsoft Visual Studio\2019\Community\VC\Tools\MSVC\14.29.30133\atlmfc\include\afxwin1.inl

; 179  : 	{ }

  00365	8d 4d e4	 lea	 ecx, DWORD PTR _hBitmap$10[ebp]
  00368	c7 45 e4 00 00
	00 00		 mov	 DWORD PTR _hBitmap$10[ebp], OFFSET ??_7CBitmap@@6B@
  0036f	e8 00 00 00 00	 call	 ??1CGdiObject@@UAE@XZ	; CGdiObject::~CGdiObject
; File D:\git\src\IBK\IBK_DRFN\ProjSrc\SrcDrfn\Chart\comparechart\control\xSkinButton.cpp

; 228  : 	} else {

  00374	8d 4d d4	 lea	 ecx, DWORD PTR _hdcMem$9[ebp]
  00377	e8 00 00 00 00	 call	 ??1CDC@@UAE@XZ		; CDC::~CDC
  0037c	eb 72		 jmp	 SHORT $LN9@DrawBitmap
$LN4@DrawBitmap:

; 229  : 		if(!DrawMode){

  0037e	83 7d 20 00	 cmp	 DWORD PTR _DrawMode$[ebp], 0
  00382	75 1f		 jne	 SHORT $LN8@DrawBitmap
; File C:\Program Files (x86)\Microsoft Visual Studio\2019\Community\VC\Tools\MSVC\14.29.30133\atlmfc\include\afxwin1.inl

; 552  : 	{ ASSERT(m_hDC != NULL); return ::BitBlt(m_hDC, x, y, nWidth, nHeight,

  00384	68 20 00 cc 00	 push	 13369376		; 00cc0020H
  00389	6a 00		 push	 0
  0038b	6a 00		 push	 0
  0038d	ff 75 c4	 push	 DWORD PTR _dcBmp$[ebp+4]
  00390	56		 push	 esi
  00391	57		 push	 edi
  00392	ff 75 14	 push	 DWORD PTR _r$[ebp+4]
  00395	ff 75 10	 push	 DWORD PTR _r$[ebp]
  00398	ff 73 04	 push	 DWORD PTR [ebx+4]
  0039b	ff 15 00 00 00
	00		 call	 DWORD PTR __imp__BitBlt@36
; File D:\git\src\IBK\IBK_DRFN\ProjSrc\SrcDrfn\Chart\comparechart\control\xSkinButton.cpp

; 231  : 		} else {

  003a1	eb 47		 jmp	 SHORT $LN184@DrawBitmap
$LN8@DrawBitmap:

; 180  : { BITMAP bm; GetObject(hBitmap,sizeof(BITMAP),(PSTR)&bm); return bm.bmWidth;}

  003a3	8b 35 00 00 00
	00		 mov	 esi, DWORD PTR __imp__GetObjectA@12
  003a9	8d 45 88	 lea	 eax, DWORD PTR _bm$5[ebp]
  003ac	50		 push	 eax
  003ad	6a 18		 push	 24			; 00000018H
  003af	ff 75 0c	 push	 DWORD PTR _hbmp$[ebp]
  003b2	ff d6		 call	 esi

; 183  : { BITMAP bm; GetObject(hBitmap,sizeof(BITMAP),(PSTR)&bm); return bm.bmHeight;}

  003b4	8d 85 70 ff ff
	ff		 lea	 eax, DWORD PTR _bm$2[ebp]
  003ba	50		 push	 eax
  003bb	6a 18		 push	 24			; 00000018H
  003bd	ff 75 0c	 push	 DWORD PTR _hbmp$[ebp]
  003c0	ff d6		 call	 esi
; File C:\Program Files (x86)\Microsoft Visual Studio\2019\Community\VC\Tools\MSVC\14.29.30133\atlmfc\include\afxwin1.inl

; 556  : 	{ ASSERT(m_hDC != NULL); return ::StretchBlt(m_hDC, x, y, nWidth, nHeight,

  003c2	68 20 00 cc 00	 push	 13369376		; 00cc0020H
  003c7	ff b5 78 ff ff
	ff		 push	 DWORD PTR _bm$2[ebp+8]
  003cd	ff 75 8c	 push	 DWORD PTR _bm$5[ebp+4]
  003d0	6a 00		 push	 0
  003d2	6a 00		 push	 0
  003d4	ff 75 c4	 push	 DWORD PTR _dcBmp$[ebp+4]
  003d7	ff 75 ec	 push	 DWORD PTR _cy$1$[ebp]
  003da	57		 push	 edi
  003db	ff 75 14	 push	 DWORD PTR _r$[ebp+4]
  003de	ff 75 10	 push	 DWORD PTR _r$[ebp]
  003e1	ff 73 04	 push	 DWORD PTR [ebx+4]
  003e4	ff 15 00 00 00
	00		 call	 DWORD PTR __imp__StretchBlt@44
$LN184@DrawBitmap:
; File D:\git\src\IBK\IBK_DRFN\ProjSrc\SrcDrfn\Chart\comparechart\control\xSkinButton.cpp

; 237  : 	DeleteDC(dcBmp);

  003ea	8b 35 00 00 00
	00		 mov	 esi, DWORD PTR __imp__DeleteDC@4
$LN9@DrawBitmap:
  003f0	ff 75 c4	 push	 DWORD PTR _dcBmp$[ebp+4]
  003f3	ff d6		 call	 esi

; 238  : }

  003f5	8d 4d b0	 lea	 ecx, DWORD PTR _dcMask$[ebp]
  003f8	e8 00 00 00 00	 call	 ??1CDC@@UAE@XZ		; CDC::~CDC
  003fd	8d 4d c0	 lea	 ecx, DWORD PTR _dcBmp$[ebp]
$LN183@DrawBitmap:
  00400	e8 00 00 00 00	 call	 ??1CDC@@UAE@XZ		; CDC::~CDC
$LN1@DrawBitmap:
  00405	8b 4d f4	 mov	 ecx, DWORD PTR __$EHRec$[ebp]
  00408	64 89 0d 00 00
	00 00		 mov	 DWORD PTR fs:0, ecx
  0040f	59		 pop	 ecx
  00410	5f		 pop	 edi
  00411	5e		 pop	 esi
  00412	5b		 pop	 ebx
  00413	8b e5		 mov	 esp, ebp
  00415	5d		 pop	 ebp
  00416	c2 1c 00	 ret	 28			; 0000001cH
_TEXT	ENDS
;	COMDAT text$x
text$x	SEGMENT
__unwindfunclet$?DrawBitmap@CxSkinButton@@IAEXPAVCDC@@PAUHBITMAP__@@UtagRECT@@H@Z$4:
  00000	8d 4d a0	 lea	 ecx, DWORD PTR _memdc$8[ebp]
  00003	e9 00 00 00 00	 jmp	 ??1CDC@@UAE@XZ		; CDC::~CDC
__unwindfunclet$?DrawBitmap@CxSkinButton@@IAEXPAVCDC@@PAUHBITMAP__@@UtagRECT@@H@Z$0:
  00008	8d 4d c0	 lea	 ecx, DWORD PTR _dcBmp$[ebp]
  0000b	e9 00 00 00 00	 jmp	 ??1CDC@@UAE@XZ		; CDC::~CDC
__unwindfunclet$?DrawBitmap@CxSkinButton@@IAEXPAVCDC@@PAUHBITMAP__@@UtagRECT@@H@Z$1:
  00010	8d 4d b0	 lea	 ecx, DWORD PTR _dcMask$[ebp]
  00013	e9 00 00 00 00	 jmp	 ??1CDC@@UAE@XZ		; CDC::~CDC
__unwindfunclet$?DrawBitmap@CxSkinButton@@IAEXPAVCDC@@PAUHBITMAP__@@UtagRECT@@H@Z$2:
  00018	8d 4d d4	 lea	 ecx, DWORD PTR _hdcMem$9[ebp]
  0001b	e9 00 00 00 00	 jmp	 ??1CDC@@UAE@XZ		; CDC::~CDC
__unwindfunclet$?DrawBitmap@CxSkinButton@@IAEXPAVCDC@@PAUHBITMAP__@@UtagRECT@@H@Z$3:
  00020	8d 4d e4	 lea	 ecx, DWORD PTR _hBitmap$10[ebp]
  00023	e9 00 00 00 00	 jmp	 ??1CBitmap@@UAE@XZ	; CBitmap::~CBitmap
  00028	cc		 int	 3
  00029	cc		 int	 3
  0002a	cc		 int	 3
  0002b	cc		 int	 3
  0002c	cc		 int	 3
__ehhandler$?DrawBitmap@CxSkinButton@@IAEXPAVCDC@@PAUHBITMAP__@@UtagRECT@@H@Z:
  0002d	90		 npad	 1
  0002e	90		 npad	 1
  0002f	8b 54 24 08	 mov	 edx, DWORD PTR [esp+8]
  00033	8d 42 0c	 lea	 eax, DWORD PTR [edx+12]
  00036	8b 8a 6c ff ff
	ff		 mov	 ecx, DWORD PTR [edx-148]
  0003c	33 c8		 xor	 ecx, eax
  0003e	e8 00 00 00 00	 call	 @__security_check_cookie@4
  00043	b8 00 00 00 00	 mov	 eax, OFFSET __ehfuncinfo$?DrawBitmap@CxSkinButton@@IAEXPAVCDC@@PAUHBITMAP__@@UtagRECT@@H@Z
  00048	e9 00 00 00 00	 jmp	 ___CxxFrameHandler3
text$x	ENDS
?DrawBitmap@CxSkinButton@@IAEXPAVCDC@@PAUHBITMAP__@@UtagRECT@@H@Z ENDP ; CxSkinButton::DrawBitmap
; Function compile flags: /Ogtp
; File D:\git\src\IBK\IBK_DRFN\ProjSrc\SrcDrfn\Chart\comparechart\control\xSkinButton.cpp
; File C:\Program Files (x86)\Microsoft Visual Studio\2019\Community\VC\Tools\MSVC\14.29.30133\atlmfc\include\afxwin1.inl
; File D:\git\src\IBK\IBK_DRFN\ProjSrc\SrcDrfn\Chart\comparechart\control\xSkinButton.cpp
; File C:\Program Files (x86)\Microsoft Visual Studio\2019\Community\VC\Tools\MSVC\14.29.30133\atlmfc\include\afxwin1.inl
; File D:\git\src\IBK\IBK_DRFN\ProjSrc\SrcDrfn\Chart\comparechart\control\xSkinButton.cpp
; File C:\Program Files (x86)\Microsoft Visual Studio\2019\Community\VC\Tools\MSVC\14.29.30133\atlmfc\include\afxwin1.inl
; File D:\git\src\IBK\IBK_DRFN\ProjSrc\SrcDrfn\Chart\comparechart\control\xSkinButton.cpp
; File C:\Program Files (x86)\Microsoft Visual Studio\2019\Community\VC\Tools\MSVC\14.29.30133\atlmfc\include\afxwin1.inl
; File D:\git\src\IBK\IBK_DRFN\ProjSrc\SrcDrfn\Chart\comparechart\control\xSkinButton.cpp
;	COMDAT ?FillWithBitmap@CxSkinButton@@IAEXPAVCDC@@PAUHBITMAP__@@UtagRECT@@@Z
_TEXT	SEGMENT
_bm$2 = -84						; size = 24
_bm$3 = -60						; size = 24
_memdc$ = -36						; size = 16
_h$1$ = -20						; size = 4
_w$1$ = -16						; size = 4
__$EHRec$ = -12						; size = 12
_dc$ = 8						; size = 4
_by$1$ = 12						; size = 4
_hbmp$ = 12						; size = 4
_r$ = 16						; size = 16
?FillWithBitmap@CxSkinButton@@IAEXPAVCDC@@PAUHBITMAP__@@UtagRECT@@@Z PROC ; CxSkinButton::FillWithBitmap, COMDAT
; _this$ = ecx

; 241  : {

  00000	55		 push	 ebp
  00001	8b ec		 mov	 ebp, esp
  00003	6a ff		 push	 -1
  00005	68 00 00 00 00	 push	 __ehhandler$?FillWithBitmap@CxSkinButton@@IAEXPAVCDC@@PAUHBITMAP__@@UtagRECT@@@Z
  0000a	64 a1 00 00 00
	00		 mov	 eax, DWORD PTR fs:0
  00010	50		 push	 eax
  00011	83 ec 48	 sub	 esp, 72			; 00000048H
  00014	53		 push	 ebx
  00015	56		 push	 esi
  00016	57		 push	 edi
  00017	a1 00 00 00 00	 mov	 eax, DWORD PTR ___security_cookie
  0001c	33 c5		 xor	 eax, ebp
  0001e	50		 push	 eax
  0001f	8d 45 f4	 lea	 eax, DWORD PTR __$EHRec$[ebp]
  00022	64 a3 00 00 00
	00		 mov	 DWORD PTR fs:0, eax

; 242  : 	if(!hbmp) return;

  00028	8b 75 0c	 mov	 esi, DWORD PTR _hbmp$[ebp]
  0002b	85 f6		 test	 esi, esi
  0002d	0f 84 df 00 00
	00		 je	 $LN1@FillWithBi

; 243  : 	CDC memdc;

  00033	8d 4d dc	 lea	 ecx, DWORD PTR _memdc$[ebp]
  00036	e8 00 00 00 00	 call	 ??0CDC@@QAE@XZ		; CDC::CDC
; File C:\Program Files (x86)\Microsoft Visual Studio\2019\Community\VC\Tools\MSVC\14.29.30133\atlmfc\include\afxwin1.inl

; 316  : 	{ return this == NULL ? NULL : m_hDC; }

  0003b	8b 45 08	 mov	 eax, DWORD PTR _dc$[ebp]
; File D:\git\src\IBK\IBK_DRFN\ProjSrc\SrcDrfn\Chart\comparechart\control\xSkinButton.cpp

; 243  : 	CDC memdc;

  0003e	c7 45 fc 00 00
	00 00		 mov	 DWORD PTR __$EHRec$[ebp+8], 0
; File C:\Program Files (x86)\Microsoft Visual Studio\2019\Community\VC\Tools\MSVC\14.29.30133\atlmfc\include\afxwin1.inl

; 316  : 	{ return this == NULL ? NULL : m_hDC; }

  00045	85 c0		 test	 eax, eax
  00047	74 03		 je	 SHORT $LN18@FillWithBi
$LN17@FillWithBi:
  00049	8b 40 04	 mov	 eax, DWORD PTR [eax+4]
$LN18@FillWithBi:

; 330  : 	{ return Attach(::CreateCompatibleDC(pDC->GetSafeHdc())); }

  0004c	50		 push	 eax
  0004d	ff 15 00 00 00
	00		 call	 DWORD PTR __imp__CreateCompatibleDC@4
  00053	50		 push	 eax
  00054	8d 4d dc	 lea	 ecx, DWORD PTR _memdc$[ebp]
  00057	e8 00 00 00 00	 call	 ?Attach@CDC@@QAEHPAUHDC__@@@Z ; CDC::Attach

; 366  : 		return (hObject != NULL) ? ::SelectObject(m_hDC, hObject) : NULL; }

  0005c	56		 push	 esi
  0005d	ff 75 e0	 push	 DWORD PTR _memdc$[ebp+4]
  00060	ff 15 00 00 00
	00		 call	 DWORD PTR __imp__SelectObject@8
; File D:\git\src\IBK\IBK_DRFN\ProjSrc\SrcDrfn\Chart\comparechart\control\xSkinButton.cpp

; 246  : 	int w = r.right - r.left;

  00066	8b 45 18	 mov	 eax, DWORD PTR _r$[ebp+8]
  00069	2b 45 10	 sub	 eax, DWORD PTR _r$[ebp]

; 247  : 	int	h = r.bottom - r.top;

  0006c	8b 7d 1c	 mov	 edi, DWORD PTR _r$[ebp+12]
  0006f	8b 5d 14	 mov	 ebx, DWORD PTR _r$[ebp+4]
  00072	2b fb		 sub	 edi, ebx
  00074	89 45 f0	 mov	 DWORD PTR _w$1$[ebp], eax

; 180  : { BITMAP bm; GetObject(hBitmap,sizeof(BITMAP),(PSTR)&bm); return bm.bmWidth;}

  00077	8d 45 ac	 lea	 eax, DWORD PTR _bm$2[ebp]
  0007a	50		 push	 eax
  0007b	6a 18		 push	 24			; 00000018H
  0007d	56		 push	 esi
  0007e	8b 35 00 00 00
	00		 mov	 esi, DWORD PTR __imp__GetObjectA@12

; 247  : 	int	h = r.bottom - r.top;

  00084	89 7d ec	 mov	 DWORD PTR _h$1$[ebp], edi

; 180  : { BITMAP bm; GetObject(hBitmap,sizeof(BITMAP),(PSTR)&bm); return bm.bmWidth;}

  00087	ff d6		 call	 esi

; 183  : { BITMAP bm; GetObject(hBitmap,sizeof(BITMAP),(PSTR)&bm); return bm.bmHeight;}

  00089	8d 45 c4	 lea	 eax, DWORD PTR _bm$3[ebp]
  0008c	50		 push	 eax
  0008d	6a 18		 push	 24			; 00000018H
  0008f	ff 75 0c	 push	 DWORD PTR _hbmp$[ebp]
  00092	ff d6		 call	 esi

; 248  : 	int x,y,z;
; 249  : 	int	bx=GetBitmapWidth(hbmp);
; 250  : 	int	by=GetBitmapHeight(hbmp);

  00094	8b 75 cc	 mov	 esi, DWORD PTR _bm$3[ebp+8]

; 251  : 	for (y = r.top ; y < h ; y += by){

  00097	3b df		 cmp	 ebx, edi
  00099	7d 66		 jge	 SHORT $LN3@FillWithBi
  0009b	8b 55 f0	 mov	 edx, DWORD PTR _w$1$[ebp]
  0009e	66 90		 npad	 2
$LL4@FillWithBi:

; 252  : 		if ((y+by)>h) by=h-y;
; 253  : 		z=bx;

  000a0	8b cf		 mov	 ecx, edi
  000a2	8d 04 33	 lea	 eax, DWORD PTR [ebx+esi]
  000a5	2b cb		 sub	 ecx, ebx
  000a7	3b c7		 cmp	 eax, edi
  000a9	8b 7d b0	 mov	 edi, DWORD PTR _bm$2[ebp+4]
  000ac	0f 4e ce	 cmovle	 ecx, esi

; 254  : 		for (x = r.left ; x < w ; x += z){

  000af	8b 75 10	 mov	 esi, DWORD PTR _r$[ebp]
  000b2	89 4d 0c	 mov	 DWORD PTR _by$1$[ebp], ecx
  000b5	3b f2		 cmp	 esi, edx
  000b7	7d 3c		 jge	 SHORT $LN2@FillWithBi
  000b9	0f 1f 80 00 00
	00 00		 npad	 7
$LL7@FillWithBi:
; File C:\Program Files (x86)\Microsoft Visual Studio\2019\Community\VC\Tools\MSVC\14.29.30133\atlmfc\include\afxwin1.inl

; 552  : 	{ ASSERT(m_hDC != NULL); return ::BitBlt(m_hDC, x, y, nWidth, nHeight,

  000c0	68 20 00 cc 00	 push	 13369376		; 00cc0020H
  000c5	6a 00		 push	 0
  000c7	6a 00		 push	 0
  000c9	ff 75 e0	 push	 DWORD PTR _memdc$[ebp+4]
; File D:\git\src\IBK\IBK_DRFN\ProjSrc\SrcDrfn\Chart\comparechart\control\xSkinButton.cpp

; 255  : 			if ((x+z)>w) z=w-x;

  000cc	8d 04 3e	 lea	 eax, DWORD PTR [esi+edi]
; File C:\Program Files (x86)\Microsoft Visual Studio\2019\Community\VC\Tools\MSVC\14.29.30133\atlmfc\include\afxwin1.inl

; 316  : 	{ return this == NULL ? NULL : m_hDC; }

  000cf	8b ca		 mov	 ecx, edx

; 552  : 	{ ASSERT(m_hDC != NULL); return ::BitBlt(m_hDC, x, y, nWidth, nHeight,

  000d1	ff 75 0c	 push	 DWORD PTR _by$1$[ebp]

; 316  : 	{ return this == NULL ? NULL : m_hDC; }

  000d4	2b ce		 sub	 ecx, esi
  000d6	3b c2		 cmp	 eax, edx

; 552  : 	{ ASSERT(m_hDC != NULL); return ::BitBlt(m_hDC, x, y, nWidth, nHeight,

  000d8	8b 45 08	 mov	 eax, DWORD PTR _dc$[ebp]

; 316  : 	{ return this == NULL ? NULL : m_hDC; }

  000db	0f 4e cf	 cmovle	 ecx, edi
  000de	8b f9		 mov	 edi, ecx

; 552  : 	{ ASSERT(m_hDC != NULL); return ::BitBlt(m_hDC, x, y, nWidth, nHeight,

  000e0	57		 push	 edi
  000e1	53		 push	 ebx
  000e2	56		 push	 esi
  000e3	ff 70 04	 push	 DWORD PTR [eax+4]
  000e6	ff 15 00 00 00
	00		 call	 DWORD PTR __imp__BitBlt@36
; File D:\git\src\IBK\IBK_DRFN\ProjSrc\SrcDrfn\Chart\comparechart\control\xSkinButton.cpp

; 254  : 		for (x = r.left ; x < w ; x += z){

  000ec	8b 55 f0	 mov	 edx, DWORD PTR _w$1$[ebp]
  000ef	03 f7		 add	 esi, edi
  000f1	3b f2		 cmp	 esi, edx
  000f3	7c cb		 jl	 SHORT $LL7@FillWithBi
$LN2@FillWithBi:

; 251  : 	for (y = r.top ; y < h ; y += by){

  000f5	8b 75 0c	 mov	 esi, DWORD PTR _by$1$[ebp]
  000f8	03 de		 add	 ebx, esi
  000fa	8b 7d ec	 mov	 edi, DWORD PTR _h$1$[ebp]
  000fd	3b df		 cmp	 ebx, edi
  000ff	7c 9f		 jl	 SHORT $LL4@FillWithBi
$LN3@FillWithBi:

; 256  : 			dc->BitBlt(x, y, z, by, &memdc, 0, 0, SRCCOPY);
; 257  : 		}
; 258  : 	}
; 259  : 	DeleteDC(memdc);

  00101	ff 75 e0	 push	 DWORD PTR _memdc$[ebp+4]
  00104	ff 15 00 00 00
	00		 call	 DWORD PTR __imp__DeleteDC@4

; 260  : }

  0010a	8d 4d dc	 lea	 ecx, DWORD PTR _memdc$[ebp]
  0010d	e8 00 00 00 00	 call	 ??1CDC@@UAE@XZ		; CDC::~CDC
$LN1@FillWithBi:
  00112	8b 4d f4	 mov	 ecx, DWORD PTR __$EHRec$[ebp]
  00115	64 89 0d 00 00
	00 00		 mov	 DWORD PTR fs:0, ecx
  0011c	59		 pop	 ecx
  0011d	5f		 pop	 edi
  0011e	5e		 pop	 esi
  0011f	5b		 pop	 ebx
  00120	8b e5		 mov	 esp, ebp
  00122	5d		 pop	 ebp
  00123	c2 18 00	 ret	 24			; 00000018H
_TEXT	ENDS
;	COMDAT text$x
text$x	SEGMENT
__unwindfunclet$?FillWithBitmap@CxSkinButton@@IAEXPAVCDC@@PAUHBITMAP__@@UtagRECT@@@Z$0:
  00000	8d 4d dc	 lea	 ecx, DWORD PTR _memdc$[ebp]
  00003	e9 00 00 00 00	 jmp	 ??1CDC@@UAE@XZ		; CDC::~CDC
  00008	cc		 int	 3
  00009	cc		 int	 3
  0000a	cc		 int	 3
  0000b	cc		 int	 3
  0000c	cc		 int	 3
__ehhandler$?FillWithBitmap@CxSkinButton@@IAEXPAVCDC@@PAUHBITMAP__@@UtagRECT@@@Z:
  0000d	90		 npad	 1
  0000e	90		 npad	 1
  0000f	8b 54 24 08	 mov	 edx, DWORD PTR [esp+8]
  00013	8d 42 0c	 lea	 eax, DWORD PTR [edx+12]
  00016	8b 4a a8	 mov	 ecx, DWORD PTR [edx-88]
  00019	33 c8		 xor	 ecx, eax
  0001b	e8 00 00 00 00	 call	 @__security_check_cookie@4
  00020	b8 00 00 00 00	 mov	 eax, OFFSET __ehfuncinfo$?FillWithBitmap@CxSkinButton@@IAEXPAVCDC@@PAUHBITMAP__@@UtagRECT@@@Z
  00025	e9 00 00 00 00	 jmp	 ___CxxFrameHandler3
text$x	ENDS
?FillWithBitmap@CxSkinButton@@IAEXPAVCDC@@PAUHBITMAP__@@UtagRECT@@@Z ENDP ; CxSkinButton::FillWithBitmap
; Function compile flags: /Ogtp
; File D:\git\src\IBK\IBK_DRFN\ProjSrc\SrcDrfn\Chart\comparechart\control\xSkinButton.cpp
; File C:\Program Files (x86)\Microsoft Visual Studio\2019\Community\VC\Tools\MSVC\14.29.30133\atlmfc\include\afxwin2.inl
; File D:\git\src\IBK\IBK_DRFN\ProjSrc\SrcDrfn\Chart\comparechart\control\xSkinButton.cpp
; File C:\Program Files (x86)\Microsoft Visual Studio\2019\Community\VC\Tools\MSVC\14.29.30133\atlmfc\include\afxwin2.inl
; File C:\Program Files (x86)\Microsoft Visual Studio\2019\Community\VC\Tools\MSVC\14.29.30133\atlmfc\include\afxwin1.inl
; File D:\git\src\IBK\IBK_DRFN\ProjSrc\SrcDrfn\Chart\comparechart\control\xSkinButton.cpp
; File C:\Program Files (x86)\Microsoft Visual Studio\2019\Community\VC\Tools\MSVC\14.29.30133\atlmfc\include\afxwin1.inl
; File D:\git\src\IBK\IBK_DRFN\ProjSrc\SrcDrfn\Chart\comparechart\control\xSkinButton.cpp
; File C:\Program Files (x86)\Microsoft Visual Studio\2019\Community\VC\Tools\MSVC\14.29.30133\atlmfc\include\atltypes.h
; File D:\git\src\IBK\IBK_DRFN\ProjSrc\SrcDrfn\Chart\comparechart\control\xSkinButton.cpp
; File C:\Program Files (x86)\Microsoft Visual Studio\2019\Community\VC\Tools\MSVC\14.29.30133\atlmfc\include\atltypes.h
; File D:\git\src\IBK\IBK_DRFN\ProjSrc\SrcDrfn\Chart\comparechart\control\xSkinButton.cpp
; File C:\Program Files (x86)\Microsoft Visual Studio\2019\Community\VC\Tools\MSVC\14.29.30133\atlmfc\include\atltypes.h
; File D:\git\src\IBK\IBK_DRFN\ProjSrc\SrcDrfn\Chart\comparechart\control\xSkinButton.cpp
; File C:\Program Files (x86)\Microsoft Visual Studio\2019\Community\VC\Tools\MSVC\14.29.30133\atlmfc\include\atltypes.h
; File D:\git\src\IBK\IBK_DRFN\ProjSrc\SrcDrfn\Chart\comparechart\control\xSkinButton.cpp
;	COMDAT ?CreateRgnFromBitmap@CxSkinButton@@IAEPAUHRGN__@@PAUHBITMAP__@@K@Z
_TEXT	SEGMENT
_bm$ = -96						; size = 24
$T2 = -72						; size = 16
_dcBmp$ = -56						; size = 16
tv508 = -40						; size = 4
_hr$1$ = -40						; size = 4
_first$1$ = -36						; size = 4
tv501 = -32						; size = 4
tv502 = -28						; size = 4
_i$1$ = -24						; size = 4
_cBlocks$1$ = -20					; size = 4
_pRgnData$1$ = -16					; size = 4
__$EHRec$ = -12						; size = 12
_i$2$ = 8						; size = 4
_hBmp$ = 8						; size = 4
_wasfirst$1$ = 11					; size = 1
_hRgn$1$ = 12						; size = 4
_color$ = 12						; size = 4
?CreateRgnFromBitmap@CxSkinButton@@IAEPAUHRGN__@@PAUHBITMAP__@@K@Z PROC ; CxSkinButton::CreateRgnFromBitmap, COMDAT
; _this$ = ecx

; 340  : {

  00000	55		 push	 ebp
  00001	8b ec		 mov	 ebp, esp
  00003	6a ff		 push	 -1
  00005	68 00 00 00 00	 push	 __ehhandler$?CreateRgnFromBitmap@CxSkinButton@@IAEPAUHRGN__@@PAUHBITMAP__@@K@Z
  0000a	64 a1 00 00 00
	00		 mov	 eax, DWORD PTR fs:0
  00010	50		 push	 eax
  00011	83 ec 54	 sub	 esp, 84			; 00000054H
  00014	56		 push	 esi
  00015	57		 push	 edi
  00016	a1 00 00 00 00	 mov	 eax, DWORD PTR ___security_cookie
  0001b	33 c5		 xor	 eax, ebp
  0001d	50		 push	 eax
  0001e	8d 45 f4	 lea	 eax, DWORD PTR __$EHRec$[ebp]
  00021	64 a3 00 00 00
	00		 mov	 DWORD PTR fs:0, eax
  00027	8b f9		 mov	 edi, ecx

; 341  : 	if (!hBmp) return NULL;

  00029	8b 75 08	 mov	 esi, DWORD PTR _hBmp$[ebp]
  0002c	85 f6		 test	 esi, esi
  0002e	75 15		 jne	 SHORT $LN11@CreateRgnF
  00030	33 c0		 xor	 eax, eax

; 412  : }

  00032	8b 4d f4	 mov	 ecx, DWORD PTR __$EHRec$[ebp]
  00035	64 89 0d 00 00
	00 00		 mov	 DWORD PTR fs:0, ecx
  0003c	59		 pop	 ecx
  0003d	5f		 pop	 edi
  0003e	5e		 pop	 esi
  0003f	8b e5		 mov	 esp, ebp
  00041	5d		 pop	 ebp
  00042	c2 08 00	 ret	 8
$LN11@CreateRgnF:

; 342  : 
; 343  : 	BITMAP bm;
; 344  : 	GetObject( hBmp, sizeof(BITMAP), &bm );	// get bitmap attributes

  00045	8d 45 a0	 lea	 eax, DWORD PTR _bm$[ebp]
  00048	50		 push	 eax
  00049	6a 18		 push	 24			; 00000018H
  0004b	56		 push	 esi
  0004c	ff 15 00 00 00
	00		 call	 DWORD PTR __imp__GetObjectA@12

; 346  : 	CDC dcBmp;

  00052	8d 4d c8	 lea	 ecx, DWORD PTR _dcBmp$[ebp]
  00055	e8 00 00 00 00	 call	 ??0CDC@@QAE@XZ		; CDC::CDC
; File C:\Program Files (x86)\Microsoft Visual Studio\2019\Community\VC\Tools\MSVC\14.29.30133\atlmfc\include\afxwin2.inl

; 100  : 	{ ASSERT(::IsWindow(m_hWnd)); return CDC::FromHandle(::GetDC(m_hWnd)); }

  0005a	ff 77 20	 push	 DWORD PTR [edi+32]
; File D:\git\src\IBK\IBK_DRFN\ProjSrc\SrcDrfn\Chart\comparechart\control\xSkinButton.cpp

; 346  : 	CDC dcBmp;

  0005d	c7 45 fc 00 00
	00 00		 mov	 DWORD PTR __$EHRec$[ebp+8], 0
; File C:\Program Files (x86)\Microsoft Visual Studio\2019\Community\VC\Tools\MSVC\14.29.30133\atlmfc\include\afxwin2.inl

; 100  : 	{ ASSERT(::IsWindow(m_hWnd)); return CDC::FromHandle(::GetDC(m_hWnd)); }

  00064	ff 15 00 00 00
	00		 call	 DWORD PTR __imp__GetDC@4
  0006a	50		 push	 eax
  0006b	e8 00 00 00 00	 call	 ?FromHandle@CDC@@SGPAV1@PAUHDC__@@@Z ; CDC::FromHandle
; File C:\Program Files (x86)\Microsoft Visual Studio\2019\Community\VC\Tools\MSVC\14.29.30133\atlmfc\include\afxwin1.inl

; 316  : 	{ return this == NULL ? NULL : m_hDC; }

  00070	85 c0		 test	 eax, eax
  00072	74 03		 je	 SHORT $LN28@CreateRgnF
$LN27@CreateRgnF:
  00074	8b 40 04	 mov	 eax, DWORD PTR [eax+4]
$LN28@CreateRgnF:

; 330  : 	{ return Attach(::CreateCompatibleDC(pDC->GetSafeHdc())); }

  00077	50		 push	 eax
  00078	ff 15 00 00 00
	00		 call	 DWORD PTR __imp__CreateCompatibleDC@4
  0007e	50		 push	 eax
  0007f	8d 4d c8	 lea	 ecx, DWORD PTR _dcBmp$[ebp]
  00082	e8 00 00 00 00	 call	 ?Attach@CDC@@QAEHPAUHDC__@@@Z ; CDC::Attach

; 366  : 		return (hObject != NULL) ? ::SelectObject(m_hDC, hObject) : NULL; }

  00087	56		 push	 esi
  00088	ff 75 cc	 push	 DWORD PTR _dcBmp$[ebp+4]
  0008b	ff 15 00 00 00
	00		 call	 DWORD PTR __imp__SelectObject@8
; File D:\git\src\IBK\IBK_DRFN\ProjSrc\SrcDrfn\Chart\comparechart\control\xSkinButton.cpp

; 359  : 	bool	wasfirst = false;		// set when if mask was found in current scan line

  00091	32 c0		 xor	 al, al
  00093	c7 45 dc 00 00
	00 00		 mov	 DWORD PTR _first$1$[ebp], 0

; 360  : 	bool	ismask;					// set when current color is mask color
; 361  : 
; 362  : 	// allocate memory for region data
; 363  : 	RGNDATAHEADER* pRgnData = (RGNDATAHEADER*)new BYTE[ RDHDR + ++cBlocks * MAXBUF * sizeof(RECT) ];

  0009a	68 a0 02 00 00	 push	 672			; 000002a0H
  0009f	88 45 0b	 mov	 BYTE PTR _wasfirst$1$[ebp], al
  000a2	c7 45 ec 01 00
	00 00		 mov	 DWORD PTR _cBlocks$1$[ebp], 1
  000a9	e8 00 00 00 00	 call	 ??_U@YAPAXI@Z		; operator new[]
  000ae	8b f0		 mov	 esi, eax

; 364  : 	memset( pRgnData, 0, RDHDR + cBlocks * MAXBUF * sizeof(RECT) );

  000b0	68 94 02 00 00	 push	 660			; 00000294H
  000b5	6a 00		 push	 0
  000b7	89 75 f0	 mov	 DWORD PTR _pRgnData$1$[ebp], esi
  000ba	8d 4e 0c	 lea	 ecx, DWORD PTR [esi+12]
  000bd	51		 push	 ecx
  000be	e8 00 00 00 00	 call	 _memset

; 365  : 	// fill it by default
; 366  : 	pRgnData->dwSize	= RDHDR;

  000c3	c7 06 20 00 00
	00		 mov	 DWORD PTR [esi], 32	; 00000020H

; 367  : 	pRgnData->iType		= RDH_RECTANGLES;
; 368  : 	pRgnData->nCount	= 0;
; 369  : 	for ( i = 0; i < bm.bmHeight; i++ )

  000c9	33 c9		 xor	 ecx, ecx
  000cb	c7 46 04 01 00
	00 00		 mov	 DWORD PTR [esi+4], 1
  000d2	83 c4 10	 add	 esp, 16			; 00000010H
  000d5	c7 46 08 00 00
	00 00		 mov	 DWORD PTR [esi+8], 0
  000dc	8b 45 a8	 mov	 eax, DWORD PTR _bm$[ebp+8]
  000df	89 4d e8	 mov	 DWORD PTR _i$1$[ebp], ecx
  000e2	85 c0		 test	 eax, eax
  000e4	0f 8e 27 01 00
	00		 jle	 $LN3@CreateRgnF
  000ea	8b 7d a4	 mov	 edi, DWORD PTR _bm$[ebp+4]
  000ed	0f 1f 00	 npad	 3
$LL4@CreateRgnF:

; 370  : 	for ( j = 0; j < bm.bmWidth; j++ ){

  000f0	33 f6		 xor	 esi, esi
  000f2	85 ff		 test	 edi, edi
  000f4	0f 8e 08 01 00
	00		 jle	 $LN2@CreateRgnF
  000fa	8b 55 ec	 mov	 edx, DWORD PTR _cBlocks$1$[ebp]
  000fd	8d 0c 92	 lea	 ecx, DWORD PTR [edx+edx*4]
  00100	c1 e1 03	 shl	 ecx, 3
  00103	89 4d e4	 mov	 DWORD PTR tv502[ebp], ecx
  00106	8d 0c 92	 lea	 ecx, DWORD PTR [edx+edx*4]
  00109	c1 e1 07	 shl	 ecx, 7
  0010c	83 c1 20	 add	 ecx, 32			; 00000020H
  0010f	89 4d e0	 mov	 DWORD PTR tv501[ebp], ecx
$LL7@CreateRgnF:

; 372  : 		ismask=(dcBmp.GetPixel(j,bm.bmHeight-i-1)!=color);

  00112	2b 45 e8	 sub	 eax, DWORD PTR _i$1$[ebp]
  00115	48		 dec	 eax
  00116	89 55 d8	 mov	 DWORD PTR tv508[ebp], edx
; File C:\Program Files (x86)\Microsoft Visual Studio\2019\Community\VC\Tools\MSVC\14.29.30133\atlmfc\include\afxwin1.inl

; 560  : 	{ ASSERT(m_hDC != NULL); return ::GetPixel(m_hDC, x, y); }

  00119	50		 push	 eax
  0011a	56		 push	 esi
  0011b	ff 75 cc	 push	 DWORD PTR _dcBmp$[ebp+4]
  0011e	ff 15 00 00 00
	00		 call	 DWORD PTR __imp__GetPixel@12
; File D:\git\src\IBK\IBK_DRFN\ProjSrc\SrcDrfn\Chart\comparechart\control\xSkinButton.cpp

; 372  : 		ismask=(dcBmp.GetPixel(j,bm.bmHeight-i-1)!=color);

  00124	3b 45 0c	 cmp	 eax, DWORD PTR _color$[ebp]
  00127	0f 95 c2	 setne	 dl

; 373  : 		// place part of scan line as RECT region if transparent color found after mask color or
; 374  : 		// mask color found at the end of mask image
; 375  : 		if (wasfirst && ((ismask && (j==(bm.bmWidth-1)))||(ismask ^ (j<bm.bmWidth)))){

  0012a	80 7d 0b 00	 cmp	 BYTE PTR _wasfirst$1$[ebp], 0
  0012e	0f 84 ad 00 00
	00		 je	 $LN49@CreateRgnF
  00134	8b 7d a4	 mov	 edi, DWORD PTR _bm$[ebp+4]
  00137	84 d2		 test	 dl, dl
  00139	74 07		 je	 SHORT $LN15@CreateRgnF
  0013b	8d 47 ff	 lea	 eax, DWORD PTR [edi-1]
  0013e	3b f0		 cmp	 esi, eax
  00140	74 12		 je	 SHORT $LN14@CreateRgnF
$LN15@CreateRgnF:
  00142	33 c9		 xor	 ecx, ecx
  00144	0f b6 c2	 movzx	 eax, dl
  00147	3b f7		 cmp	 esi, edi
  00149	0f 9c c1	 setl	 cl
  0014c	3b c8		 cmp	 ecx, eax
  0014e	0f 84 9b 00 00
	00		 je	 $LN5@CreateRgnF
$LN14@CreateRgnF:
; File C:\Program Files (x86)\Microsoft Visual Studio\2019\Community\VC\Tools\MSVC\14.29.30133\atlmfc\include\atltypes.h

; 541  : 	top = t;

  00154	8b 55 a8	 mov	 edx, DWORD PTR _bm$[ebp+8]
; File D:\git\src\IBK\IBK_DRFN\ProjSrc\SrcDrfn\Chart\comparechart\control\xSkinButton.cpp

; 379  : 			pRects[ pRgnData->nCount++ ] = CRect( first, bm.bmHeight - i - 1, j+(j==(bm.bmWidth-1)), bm.bmHeight - i );

  00157	33 c9		 xor	 ecx, ecx
; File C:\Program Files (x86)\Microsoft Visual Studio\2019\Community\VC\Tools\MSVC\14.29.30133\atlmfc\include\atltypes.h

; 541  : 	top = t;

  00159	2b 55 e8	 sub	 edx, DWORD PTR _i$1$[ebp]
  0015c	8b 45 dc	 mov	 eax, DWORD PTR _first$1$[ebp]
  0015f	89 45 b8	 mov	 DWORD PTR $T2[ebp], eax

; 543  : 	bottom = b;

  00162	89 55 c4	 mov	 DWORD PTR $T2[ebp+12], edx
; File D:\git\src\IBK\IBK_DRFN\ProjSrc\SrcDrfn\Chart\comparechart\control\xSkinButton.cpp

; 379  : 			pRects[ pRgnData->nCount++ ] = CRect( first, bm.bmHeight - i - 1, j+(j==(bm.bmWidth-1)), bm.bmHeight - i );

  00165	8d 42 ff	 lea	 eax, DWORD PTR [edx-1]

; 380  : 			// if buffer full reallocate it
; 381  : 			if ( pRgnData->nCount >= cBlocks * MAXBUF ){

  00168	8b 55 e4	 mov	 edx, DWORD PTR tv502[ebp]
; File C:\Program Files (x86)\Microsoft Visual Studio\2019\Community\VC\Tools\MSVC\14.29.30133\atlmfc\include\atltypes.h

; 541  : 	top = t;

  0016b	89 45 bc	 mov	 DWORD PTR $T2[ebp+4], eax
; File D:\git\src\IBK\IBK_DRFN\ProjSrc\SrcDrfn\Chart\comparechart\control\xSkinButton.cpp

; 379  : 			pRects[ pRgnData->nCount++ ] = CRect( first, bm.bmHeight - i - 1, j+(j==(bm.bmWidth-1)), bm.bmHeight - i );

  0016e	8d 47 ff	 lea	 eax, DWORD PTR [edi-1]
  00171	3b f0		 cmp	 esi, eax
  00173	0f 94 c1	 sete	 cl
  00176	03 ce		 add	 ecx, esi
; File C:\Program Files (x86)\Microsoft Visual Studio\2019\Community\VC\Tools\MSVC\14.29.30133\atlmfc\include\atltypes.h

; 542  : 	right = r;

  00178	89 4d c0	 mov	 DWORD PTR $T2[ebp+8], ecx
; File D:\git\src\IBK\IBK_DRFN\ProjSrc\SrcDrfn\Chart\comparechart\control\xSkinButton.cpp

; 379  : 			pRects[ pRgnData->nCount++ ] = CRect( first, bm.bmHeight - i - 1, j+(j==(bm.bmWidth-1)), bm.bmHeight - i );

  0017b	8b 4d f0	 mov	 ecx, DWORD PTR _pRgnData$1$[ebp]
  0017e	0f 10 45 b8	 movups	 xmm0, XMMWORD PTR $T2[ebp]
  00182	8b 41 08	 mov	 eax, DWORD PTR [ecx+8]
  00185	83 c0 02	 add	 eax, 2
  00188	c1 e0 04	 shl	 eax, 4
  0018b	03 c1		 add	 eax, ecx
  0018d	0f 11 00	 movups	 XMMWORD PTR [eax], xmm0
  00190	ff 41 08	 inc	 DWORD PTR [ecx+8]

; 380  : 			// if buffer full reallocate it
; 381  : 			if ( pRgnData->nCount >= cBlocks * MAXBUF ){

  00193	39 51 08	 cmp	 DWORD PTR [ecx+8], edx
  00196	72 42		 jb	 SHORT $LN16@CreateRgnF

; 382  : 				LPBYTE pRgnDataNew = new BYTE[ RDHDR + ++cBlocks * MAXBUF * sizeof(RECT) ];

  00198	8b 45 e0	 mov	 eax, DWORD PTR tv501[ebp]
  0019b	83 c2 28	 add	 edx, 40			; 00000028H
  0019e	ff 45 ec	 inc	 DWORD PTR _cBlocks$1$[ebp]
  001a1	05 80 02 00 00	 add	 eax, 640		; 00000280H
  001a6	50		 push	 eax
  001a7	89 55 e4	 mov	 DWORD PTR tv502[ebp], edx
  001aa	89 45 e0	 mov	 DWORD PTR tv501[ebp], eax
  001ad	e8 00 00 00 00	 call	 ??_U@YAPAXI@Z		; operator new[]
  001b2	8b f8		 mov	 edi, eax

; 383  : 				memcpy( pRgnDataNew, pRgnData, RDHDR + (cBlocks - 1) * MAXBUF * sizeof(RECT) );

  001b4	8b 45 d8	 mov	 eax, DWORD PTR tv508[ebp]
  001b7	8d 0c 80	 lea	 ecx, DWORD PTR [eax+eax*4]
  001ba	c1 e1 07	 shl	 ecx, 7
  001bd	83 c1 20	 add	 ecx, 32			; 00000020H
  001c0	51		 push	 ecx
  001c1	ff 75 f0	 push	 DWORD PTR _pRgnData$1$[ebp]
  001c4	57		 push	 edi
  001c5	e8 00 00 00 00	 call	 _memcpy

; 384  : 				delete pRgnData;

  001ca	6a 20		 push	 32			; 00000020H
  001cc	ff 75 f0	 push	 DWORD PTR _pRgnData$1$[ebp]
  001cf	e8 00 00 00 00	 call	 ??3@YAXPAXI@Z		; operator delete
  001d4	83 c4 18	 add	 esp, 24			; 00000018H

; 385  : 				pRgnData = (RGNDATAHEADER*)pRgnDataNew;

  001d7	89 7d f0	 mov	 DWORD PTR _pRgnData$1$[ebp], edi
$LN16@CreateRgnF:

; 386  : 			}
; 387  : 			wasfirst = false;

  001da	32 c0		 xor	 al, al
  001dc	88 45 0b	 mov	 BYTE PTR _wasfirst$1$[ebp], al
  001df	eb 0b		 jmp	 SHORT $LN51@CreateRgnF
$LN49@CreateRgnF:

; 388  : 		} else if ( !wasfirst && ismask ){		// set wasfirst when mask is found

  001e1	84 d2		 test	 dl, dl
  001e3	74 07		 je	 SHORT $LN51@CreateRgnF

; 389  : 			first = j;

  001e5	89 75 dc	 mov	 DWORD PTR _first$1$[ebp], esi

; 390  : 			wasfirst = true;

  001e8	c6 45 0b 01	 mov	 BYTE PTR _wasfirst$1$[ebp], 1
$LN51@CreateRgnF:

; 370  : 	for ( j = 0; j < bm.bmWidth; j++ ){

  001ec	8b 7d a4	 mov	 edi, DWORD PTR _bm$[ebp+4]
$LN5@CreateRgnF:
  001ef	8b 45 a8	 mov	 eax, DWORD PTR _bm$[ebp+8]
  001f2	46		 inc	 esi
  001f3	3b f7		 cmp	 esi, edi
  001f5	7d 08		 jge	 SHORT $LN55@CreateRgnF
  001f7	8b 55 ec	 mov	 edx, DWORD PTR _cBlocks$1$[ebp]
  001fa	e9 13 ff ff ff	 jmp	 $LL7@CreateRgnF
$LN55@CreateRgnF:
  001ff	8b 4d e8	 mov	 ecx, DWORD PTR _i$1$[ebp]
$LN2@CreateRgnF:

; 367  : 	pRgnData->iType		= RDH_RECTANGLES;
; 368  : 	pRgnData->nCount	= 0;
; 369  : 	for ( i = 0; i < bm.bmHeight; i++ )

  00202	41		 inc	 ecx
  00203	89 4d e8	 mov	 DWORD PTR _i$1$[ebp], ecx
  00206	3b c8		 cmp	 ecx, eax
  00208	0f 8c e2 fe ff
	ff		 jl	 $LL4@CreateRgnF
  0020e	8b 75 f0	 mov	 esi, DWORD PTR _pRgnData$1$[ebp]
$LN3@CreateRgnF:

; 391  : 		}
; 392  : 	}
; 393  : 	dcBmp.DeleteDC();	//release the bitmap

  00211	8d 4d c8	 lea	 ecx, DWORD PTR _dcBmp$[ebp]
  00214	e8 00 00 00 00	 call	 ?DeleteDC@CDC@@QAEHXZ	; CDC::DeleteDC

; 394  : 	// create region
; 395  : /*  Under WinNT the ExtCreateRegion returns NULL (by Fable@aramszu.net) */
; 396  : //	HRGN hRgn = ExtCreateRegion( NULL, RDHDR + pRgnData->nCount * sizeof(RECT), (LPRGNDATA)pRgnData );
; 397  : /* ExtCreateRegion replacement { */
; 398  : 	HRGN hRgn=CreateRectRgn(0, 0, 0, 0);

  00219	6a 00		 push	 0
  0021b	6a 00		 push	 0
  0021d	6a 00		 push	 0
  0021f	6a 00		 push	 0
  00221	ff 15 00 00 00
	00		 call	 DWORD PTR __imp__CreateRectRgn@16

; 399  : 	ASSERT( hRgn!=NULL );
; 400  : 	pRects = (LPRECT)((LPBYTE)pRgnData + RDHDR);
; 401  : 	for(i=0;i<(int)pRgnData->nCount;i++)

  00227	83 7e 08 00	 cmp	 DWORD PTR [esi+8], 0
  0022b	8b f8		 mov	 edi, eax
  0022d	89 7d 0c	 mov	 DWORD PTR _hRgn$1$[ebp], edi
  00230	c7 45 08 00 00
	00 00		 mov	 DWORD PTR _i$2$[ebp], 0
  00237	7e 49		 jle	 SHORT $LN9@CreateRgnF

; 391  : 		}
; 392  : 	}
; 393  : 	dcBmp.DeleteDC();	//release the bitmap

  00239	8d 7e 28	 lea	 edi, DWORD PTR [esi+40]
  0023c	0f 1f 40 00	 npad	 4
$LL10@CreateRgnF:

; 402  : 	{
; 403  : 		HRGN hr=CreateRectRgn(pRects[i].left, pRects[i].top, pRects[i].right, pRects[i].bottom);

  00240	ff 77 04	 push	 DWORD PTR [edi+4]
  00243	ff 37		 push	 DWORD PTR [edi]
  00245	ff 77 fc	 push	 DWORD PTR [edi-4]
  00248	ff 77 f8	 push	 DWORD PTR [edi-8]
  0024b	ff 15 00 00 00
	00		 call	 DWORD PTR __imp__CreateRectRgn@16

; 404  : 		VERIFY(CombineRgn(hRgn, hRgn, hr, RGN_OR)!=ERROR);

  00251	6a 02		 push	 2
  00253	50		 push	 eax
  00254	89 45 d8	 mov	 DWORD PTR _hr$1$[ebp], eax
  00257	8b 45 0c	 mov	 eax, DWORD PTR _hRgn$1$[ebp]
  0025a	50		 push	 eax
  0025b	50		 push	 eax
  0025c	ff 15 00 00 00
	00		 call	 DWORD PTR __imp__CombineRgn@16

; 405  : 		if (hr) DeleteObject(hr);

  00262	8b 45 d8	 mov	 eax, DWORD PTR _hr$1$[ebp]
  00265	85 c0		 test	 eax, eax
  00267	74 07		 je	 SHORT $LN8@CreateRgnF
  00269	50		 push	 eax
  0026a	ff 15 00 00 00
	00		 call	 DWORD PTR __imp__DeleteObject@4
$LN8@CreateRgnF:

; 399  : 	ASSERT( hRgn!=NULL );
; 400  : 	pRects = (LPRECT)((LPBYTE)pRgnData + RDHDR);
; 401  : 	for(i=0;i<(int)pRgnData->nCount;i++)

  00270	8b 45 08	 mov	 eax, DWORD PTR _i$2$[ebp]
  00273	83 c7 10	 add	 edi, 16			; 00000010H
  00276	40		 inc	 eax
  00277	89 45 08	 mov	 DWORD PTR _i$2$[ebp], eax
  0027a	3b 46 08	 cmp	 eax, DWORD PTR [esi+8]
  0027d	7c c1		 jl	 SHORT $LL10@CreateRgnF
  0027f	8b 7d 0c	 mov	 edi, DWORD PTR _hRgn$1$[ebp]
$LN9@CreateRgnF:

; 406  : 	}
; 407  : 	ASSERT( hRgn!=NULL );
; 408  : /* } ExtCreateRegion replacement */
; 409  : 
; 410  : 	delete pRgnData;

  00282	6a 20		 push	 32			; 00000020H
  00284	56		 push	 esi
  00285	e8 00 00 00 00	 call	 ??3@YAXPAXI@Z		; operator delete
  0028a	83 c4 08	 add	 esp, 8

; 411  : 	return hRgn;

  0028d	8d 4d c8	 lea	 ecx, DWORD PTR _dcBmp$[ebp]
  00290	e8 00 00 00 00	 call	 ??1CDC@@UAE@XZ		; CDC::~CDC
  00295	8b c7		 mov	 eax, edi

; 412  : }

  00297	8b 4d f4	 mov	 ecx, DWORD PTR __$EHRec$[ebp]
  0029a	64 89 0d 00 00
	00 00		 mov	 DWORD PTR fs:0, ecx
  002a1	59		 pop	 ecx
  002a2	5f		 pop	 edi
  002a3	5e		 pop	 esi
  002a4	8b e5		 mov	 esp, ebp
  002a6	5d		 pop	 ebp
  002a7	c2 08 00	 ret	 8
_TEXT	ENDS
;	COMDAT text$x
text$x	SEGMENT
__unwindfunclet$?CreateRgnFromBitmap@CxSkinButton@@IAEPAUHRGN__@@PAUHBITMAP__@@K@Z$0:
  00000	8d 4d c8	 lea	 ecx, DWORD PTR _dcBmp$[ebp]
  00003	e9 00 00 00 00	 jmp	 ??1CDC@@UAE@XZ		; CDC::~CDC
  00008	cc		 int	 3
  00009	cc		 int	 3
  0000a	cc		 int	 3
  0000b	cc		 int	 3
  0000c	cc		 int	 3
__ehhandler$?CreateRgnFromBitmap@CxSkinButton@@IAEPAUHRGN__@@PAUHBITMAP__@@K@Z:
  0000d	90		 npad	 1
  0000e	90		 npad	 1
  0000f	8b 54 24 08	 mov	 edx, DWORD PTR [esp+8]
  00013	8d 42 0c	 lea	 eax, DWORD PTR [edx+12]
  00016	8b 4a a0	 mov	 ecx, DWORD PTR [edx-96]
  00019	33 c8		 xor	 ecx, eax
  0001b	e8 00 00 00 00	 call	 @__security_check_cookie@4
  00020	b8 00 00 00 00	 mov	 eax, OFFSET __ehfuncinfo$?CreateRgnFromBitmap@CxSkinButton@@IAEPAUHRGN__@@PAUHBITMAP__@@K@Z
  00025	e9 00 00 00 00	 jmp	 ___CxxFrameHandler3
text$x	ENDS
?CreateRgnFromBitmap@CxSkinButton@@IAEPAUHRGN__@@PAUHBITMAP__@@K@Z ENDP ; CxSkinButton::CreateRgnFromBitmap
; Function compile flags: /Ogtp
; File D:\git\src\IBK\IBK_DRFN\ProjSrc\SrcDrfn\Chart\comparechart\control\xSkinButton.cpp
; File C:\Program Files (x86)\Microsoft Visual Studio\2019\Community\VC\Tools\MSVC\14.29.30133\atlmfc\include\afxcmn.inl
; File D:\git\src\IBK\IBK_DRFN\ProjSrc\SrcDrfn\Chart\comparechart\control\xSkinButton.cpp
; File C:\Program Files (x86)\Microsoft Visual Studio\2019\Community\VC\Tools\MSVC\14.29.30133\atlmfc\include\afxcmn.inl
; File D:\git\src\IBK\IBK_DRFN\ProjSrc\SrcDrfn\Chart\comparechart\control\xSkinButton.cpp
; File C:\Program Files (x86)\Microsoft Visual Studio\2019\Community\VC\Tools\MSVC\14.29.30133\atlmfc\include\afxcmn.inl
; File D:\git\src\IBK\IBK_DRFN\ProjSrc\SrcDrfn\Chart\comparechart\control\xSkinButton.cpp
; File C:\Program Files (x86)\Microsoft Visual Studio\2019\Community\VC\Tools\MSVC\14.29.30133\atlmfc\include\afxcmn.inl
; File D:\git\src\IBK\IBK_DRFN\ProjSrc\SrcDrfn\Chart\comparechart\control\xSkinButton.cpp
;	COMDAT ?RelayEvent@CxSkinButton@@IAEXIIJ@Z
_TEXT	SEGMENT
_msg$1 = -28						; size = 28
_message$ = 8						; size = 4
_wParam$ = 12						; size = 4
_lParam$ = 16						; size = 4
?RelayEvent@CxSkinButton@@IAEXIIJ@Z PROC		; CxSkinButton::RelayEvent, COMDAT
; _this$ = ecx

; 433  : {

  00000	55		 push	 ebp
  00001	8b ec		 mov	 ebp, esp

; 434  : // This function will create a MSG structure, fill it in a pass it to
; 435  : // the ToolTip control, m_ttip.  Note that we ensure the point is in window
; 436  : // coordinates (relative to the control's window).
; 437  : 	if(NULL != m_tooltip.m_hWnd){

  00003	8b 91 b0 00 00
	00		 mov	 edx, DWORD PTR [ecx+176]
  00009	83 ec 1c	 sub	 esp, 28			; 0000001cH
  0000c	85 d2		 test	 edx, edx
  0000e	74 3d		 je	 SHORT $LN2@RelayEvent

; 438  : 		MSG msg;
; 439  : 		msg.hwnd = m_hWnd;

  00010	8b 41 20	 mov	 eax, DWORD PTR [ecx+32]

; 442  : 		msg.lParam = lParam;

  00013	8b 4d 10	 mov	 ecx, DWORD PTR _lParam$[ebp]
  00016	89 45 e4	 mov	 DWORD PTR _msg$1[ebp], eax
  00019	8b 45 08	 mov	 eax, DWORD PTR _message$[ebp]
  0001c	89 45 e8	 mov	 DWORD PTR _msg$1[ebp+4], eax
  0001f	8b 45 0c	 mov	 eax, DWORD PTR _wParam$[ebp]
  00022	89 45 ec	 mov	 DWORD PTR _msg$1[ebp+8], eax

; 444  : 		msg.pt.x = LOWORD(lParam);

  00025	0f b7 c1	 movzx	 eax, cx
  00028	89 45 f8	 mov	 DWORD PTR _msg$1[ebp+20], eax
; File C:\Program Files (x86)\Microsoft Visual Studio\2019\Community\VC\Tools\MSVC\14.29.30133\atlmfc\include\afxcmn.inl

; 429  : 	{ ASSERT(::IsWindow(m_hWnd));  ::SendMessage(m_hWnd, TTM_RELAYEVENT, 0, (LPARAM)lpMsg); }

  0002b	8d 45 e4	 lea	 eax, DWORD PTR _msg$1[ebp]
  0002e	50		 push	 eax
  0002f	6a 00		 push	 0
; File D:\git\src\IBK\IBK_DRFN\ProjSrc\SrcDrfn\Chart\comparechart\control\xSkinButton.cpp

; 442  : 		msg.lParam = lParam;

  00031	89 4d f0	 mov	 DWORD PTR _msg$1[ebp+12], ecx
; File C:\Program Files (x86)\Microsoft Visual Studio\2019\Community\VC\Tools\MSVC\14.29.30133\atlmfc\include\afxcmn.inl

; 429  : 	{ ASSERT(::IsWindow(m_hWnd));  ::SendMessage(m_hWnd, TTM_RELAYEVENT, 0, (LPARAM)lpMsg); }

  00034	68 07 04 00 00	 push	 1031			; 00000407H
; File D:\git\src\IBK\IBK_DRFN\ProjSrc\SrcDrfn\Chart\comparechart\control\xSkinButton.cpp

; 445  : 		msg.pt.y = HIWORD(lParam);

  00039	c1 e9 10	 shr	 ecx, 16			; 00000010H
; File C:\Program Files (x86)\Microsoft Visual Studio\2019\Community\VC\Tools\MSVC\14.29.30133\atlmfc\include\afxcmn.inl

; 429  : 	{ ASSERT(::IsWindow(m_hWnd));  ::SendMessage(m_hWnd, TTM_RELAYEVENT, 0, (LPARAM)lpMsg); }

  0003c	52		 push	 edx
; File D:\git\src\IBK\IBK_DRFN\ProjSrc\SrcDrfn\Chart\comparechart\control\xSkinButton.cpp

; 443  : 		msg.time = 0;

  0003d	c7 45 f4 00 00
	00 00		 mov	 DWORD PTR _msg$1[ebp+16], 0

; 445  : 		msg.pt.y = HIWORD(lParam);

  00044	89 4d fc	 mov	 DWORD PTR _msg$1[ebp+24], ecx
; File C:\Program Files (x86)\Microsoft Visual Studio\2019\Community\VC\Tools\MSVC\14.29.30133\atlmfc\include\afxcmn.inl

; 429  : 	{ ASSERT(::IsWindow(m_hWnd));  ::SendMessage(m_hWnd, TTM_RELAYEVENT, 0, (LPARAM)lpMsg); }

  00047	ff 15 00 00 00
	00		 call	 DWORD PTR __imp__SendMessageA@16
$LN2@RelayEvent:
; File D:\git\src\IBK\IBK_DRFN\ProjSrc\SrcDrfn\Chart\comparechart\control\xSkinButton.cpp

; 449  : }

  0004d	8b e5		 mov	 esp, ebp
  0004f	5d		 pop	 ebp
  00050	c2 0c 00	 ret	 12			; 0000000cH
?RelayEvent@CxSkinButton@@IAEXIIJ@Z ENDP		; CxSkinButton::RelayEvent
_TEXT	ENDS
; Function compile flags: /Ogtp
; File D:\git\src\IBK\IBK_DRFN\ProjSrc\SrcDrfn\Chart\comparechart\control\xSkinButton.cpp
; File C:\Program Files (x86)\Microsoft Visual Studio\2019\Community\VC\Tools\MSVC\14.29.30133\atlmfc\include\afxwin1.inl
; File D:\git\src\IBK\IBK_DRFN\ProjSrc\SrcDrfn\Chart\comparechart\control\xSkinButton.cpp
; File C:\Program Files (x86)\Microsoft Visual Studio\2019\Community\VC\Tools\MSVC\14.29.30133\atlmfc\include\afxwin1.inl
; File D:\git\src\IBK\IBK_DRFN\ProjSrc\SrcDrfn\Chart\comparechart\control\xSkinButton.cpp
; File C:\Program Files (x86)\Microsoft Visual Studio\2019\Community\VC\Tools\MSVC\14.29.30133\atlmfc\include\afxwin1.inl
; File D:\git\src\IBK\IBK_DRFN\ProjSrc\SrcDrfn\Chart\comparechart\control\xSkinButton.cpp
; File C:\Program Files (x86)\Microsoft Visual Studio\2019\Community\VC\Tools\MSVC\14.29.30133\atlmfc\include\afxwin1.inl
; File D:\git\src\IBK\IBK_DRFN\ProjSrc\SrcDrfn\Chart\comparechart\control\xSkinButton.cpp
; File C:\Program Files (x86)\Microsoft Visual Studio\2019\Community\VC\Tools\MSVC\14.29.30133\atlmfc\include\afxwin1.inl
; File D:\git\src\IBK\IBK_DRFN\ProjSrc\SrcDrfn\Chart\comparechart\control\xSkinButton.cpp
; File C:\Program Files (x86)\Microsoft Visual Studio\2019\Community\VC\Tools\MSVC\14.29.30133\atlmfc\include\afxwin1.inl
; File D:\git\src\IBK\IBK_DRFN\ProjSrc\SrcDrfn\Chart\comparechart\control\xSkinButton.cpp
;	COMDAT ??1CxSkinButton@@UAE@XZ
_TEXT	SEGMENT
??1CxSkinButton@@UAE@XZ PROC				; CxSkinButton::~CxSkinButton, COMDAT
; _this$ = ecx

; 46   : {

  00000	56		 push	 esi
  00001	8b f1		 mov	 esi, ecx

; 47   : 	if (hClipRgn) DeleteObject(hClipRgn);	// free clip region

  00003	8b 86 68 01 00
	00		 mov	 eax, DWORD PTR [esi+360]
  00009	c7 06 00 00 00
	00		 mov	 DWORD PTR [esi], OFFSET ??_7CxSkinButton@@6B@
  0000f	85 c0		 test	 eax, eax
  00011	74 07		 je	 SHORT $LN2@CxSkinButt
  00013	50		 push	 eax
  00014	ff 15 00 00 00
	00		 call	 DWORD PTR __imp__DeleteObject@4
$LN2@CxSkinButt:

; 48   : }

  0001a	8d 8e 58 01 00
	00		 lea	 ecx, DWORD PTR [esi+344]
; File C:\Program Files (x86)\Microsoft Visual Studio\2019\Community\VC\Tools\MSVC\14.29.30133\atlmfc\include\afxwin1.inl

; 179  : 	{ }

  00020	c7 01 00 00 00
	00		 mov	 DWORD PTR [ecx], OFFSET ??_7CBitmap@@6B@
  00026	e8 00 00 00 00	 call	 ??1CGdiObject@@UAE@XZ	; CGdiObject::~CGdiObject
; File D:\git\src\IBK\IBK_DRFN\ProjSrc\SrcDrfn\Chart\comparechart\control\xSkinButton.cpp

; 48   : }

  0002b	8d 8e 50 01 00
	00		 lea	 ecx, DWORD PTR [esi+336]
; File C:\Program Files (x86)\Microsoft Visual Studio\2019\Community\VC\Tools\MSVC\14.29.30133\atlmfc\include\afxwin1.inl

; 179  : 	{ }

  00031	c7 01 00 00 00
	00		 mov	 DWORD PTR [ecx], OFFSET ??_7CBitmap@@6B@
  00037	e8 00 00 00 00	 call	 ??1CGdiObject@@UAE@XZ	; CGdiObject::~CGdiObject
; File D:\git\src\IBK\IBK_DRFN\ProjSrc\SrcDrfn\Chart\comparechart\control\xSkinButton.cpp

; 48   : }

  0003c	8d 8e 48 01 00
	00		 lea	 ecx, DWORD PTR [esi+328]
; File C:\Program Files (x86)\Microsoft Visual Studio\2019\Community\VC\Tools\MSVC\14.29.30133\atlmfc\include\afxwin1.inl

; 179  : 	{ }

  00042	c7 01 00 00 00
	00		 mov	 DWORD PTR [ecx], OFFSET ??_7CBitmap@@6B@
  00048	e8 00 00 00 00	 call	 ??1CGdiObject@@UAE@XZ	; CGdiObject::~CGdiObject
; File D:\git\src\IBK\IBK_DRFN\ProjSrc\SrcDrfn\Chart\comparechart\control\xSkinButton.cpp

; 48   : }

  0004d	8d 8e 40 01 00
	00		 lea	 ecx, DWORD PTR [esi+320]
; File C:\Program Files (x86)\Microsoft Visual Studio\2019\Community\VC\Tools\MSVC\14.29.30133\atlmfc\include\afxwin1.inl

; 179  : 	{ }

  00053	c7 01 00 00 00
	00		 mov	 DWORD PTR [ecx], OFFSET ??_7CBitmap@@6B@
  00059	e8 00 00 00 00	 call	 ??1CGdiObject@@UAE@XZ	; CGdiObject::~CGdiObject
; File D:\git\src\IBK\IBK_DRFN\ProjSrc\SrcDrfn\Chart\comparechart\control\xSkinButton.cpp

; 48   : }

  0005e	8d 8e 38 01 00
	00		 lea	 ecx, DWORD PTR [esi+312]
; File C:\Program Files (x86)\Microsoft Visual Studio\2019\Community\VC\Tools\MSVC\14.29.30133\atlmfc\include\afxwin1.inl

; 179  : 	{ }

  00064	c7 01 00 00 00
	00		 mov	 DWORD PTR [ecx], OFFSET ??_7CBitmap@@6B@
  0006a	e8 00 00 00 00	 call	 ??1CGdiObject@@UAE@XZ	; CGdiObject::~CGdiObject
; File D:\git\src\IBK\IBK_DRFN\ProjSrc\SrcDrfn\Chart\comparechart\control\xSkinButton.cpp

; 48   : }

  0006f	8d 8e 30 01 00
	00		 lea	 ecx, DWORD PTR [esi+304]
; File C:\Program Files (x86)\Microsoft Visual Studio\2019\Community\VC\Tools\MSVC\14.29.30133\atlmfc\include\afxwin1.inl

; 179  : 	{ }

  00075	c7 01 00 00 00
	00		 mov	 DWORD PTR [ecx], OFFSET ??_7CBitmap@@6B@
  0007b	e8 00 00 00 00	 call	 ??1CGdiObject@@UAE@XZ	; CGdiObject::~CGdiObject
; File D:\git\src\IBK\IBK_DRFN\ProjSrc\SrcDrfn\Chart\comparechart\control\xSkinButton.cpp

; 48   : }

  00080	8d 8e 90 00 00
	00		 lea	 ecx, DWORD PTR [esi+144]
  00086	e8 00 00 00 00	 call	 ??1CToolTipCtrl@@UAE@XZ	; CToolTipCtrl::~CToolTipCtrl
  0008b	8b ce		 mov	 ecx, esi
  0008d	5e		 pop	 esi
  0008e	e9 00 00 00 00	 jmp	 ??1CButton@@UAE@XZ	; CButton::~CButton
??1CxSkinButton@@UAE@XZ ENDP				; CxSkinButton::~CxSkinButton
_TEXT	ENDS
; Function compile flags: /Ogtp
; File D:\git\src\IBK\IBK_DRFN\ProjSrc\SrcDrfn\Chart\comparechart\control\xSkinButton.cpp
; File C:\Program Files (x86)\Microsoft Visual Studio\2019\Community\VC\Tools\MSVC\14.29.30133\atlmfc\include\atlsimpstr.h
; File D:\git\src\IBK\IBK_DRFN\ProjSrc\SrcDrfn\Chart\comparechart\control\xSkinButton.cpp
; File C:\Program Files (x86)\Microsoft Visual Studio\2019\Community\VC\Tools\MSVC\14.29.30133\atlmfc\include\atlsimpstr.h
; File D:\git\src\IBK\IBK_DRFN\ProjSrc\SrcDrfn\Chart\comparechart\control\xSkinButton.cpp
; File C:\Program Files (x86)\Microsoft Visual Studio\2019\Community\VC\Tools\MSVC\14.29.30133\atlmfc\include\atlsimpstr.h
; File D:\git\src\IBK\IBK_DRFN\ProjSrc\SrcDrfn\Chart\comparechart\control\xSkinButton.cpp
; File C:\Program Files (x86)\Microsoft Visual Studio\2019\Community\VC\Tools\MSVC\14.29.30133\atlmfc\include\atlsimpstr.h
; File D:\git\src\IBK\IBK_DRFN\ProjSrc\SrcDrfn\Chart\comparechart\control\xSkinButton.cpp
; File C:\Program Files (x86)\Microsoft Visual Studio\2019\Community\VC\Tools\MSVC\14.29.30133\atlmfc\include\atlsimpstr.h
; File D:\git\src\IBK\IBK_DRFN\ProjSrc\SrcDrfn\Chart\comparechart\control\xSkinButton.cpp
; File C:\Program Files (x86)\Microsoft Visual Studio\2019\Community\VC\Tools\MSVC\14.29.30133\atlmfc\include\atlsimpstr.h
; File D:\git\src\IBK\IBK_DRFN\ProjSrc\SrcDrfn\Chart\comparechart\control\xSkinButton.cpp
; File C:\Program Files (x86)\Microsoft Visual Studio\2019\Community\VC\Tools\MSVC\14.29.30133\atlmfc\include\atlsimpstr.h
; File D:\git\src\IBK\IBK_DRFN\ProjSrc\SrcDrfn\Chart\comparechart\control\xSkinButton.cpp
; File C:\Program Files (x86)\Microsoft Visual Studio\2019\Community\VC\Tools\MSVC\14.29.30133\atlmfc\include\atlsimpstr.h
; File D:\git\src\IBK\IBK_DRFN\ProjSrc\SrcDrfn\Chart\comparechart\control\xSkinButton.cpp
; File C:\Program Files (x86)\Microsoft Visual Studio\2019\Community\VC\Tools\MSVC\14.29.30133\atlmfc\include\atlsimpstr.h
; File D:\git\src\IBK\IBK_DRFN\ProjSrc\SrcDrfn\Chart\comparechart\control\xSkinButton.cpp
; File C:\Program Files (x86)\Microsoft Visual Studio\2019\Community\VC\Tools\MSVC\14.29.30133\atlmfc\include\afxwin1.inl
; File D:\git\src\IBK\IBK_DRFN\ProjSrc\SrcDrfn\Chart\comparechart\control\xSkinButton.cpp
; File C:\Program Files (x86)\Microsoft Visual Studio\2019\Community\VC\Tools\MSVC\14.29.30133\atlmfc\include\afxwin2.inl
; File D:\git\src\IBK\IBK_DRFN\ProjSrc\SrcDrfn\Chart\comparechart\control\xSkinButton.cpp
; File C:\Program Files (x86)\Microsoft Visual Studio\2019\Community\VC\Tools\MSVC\14.29.30133\atlmfc\include\afxwin1.inl
; File D:\git\src\IBK\IBK_DRFN\ProjSrc\SrcDrfn\Chart\comparechart\control\xSkinButton.cpp
;	COMDAT ?SetSkin@CxSkinButton@@QAEXV?$CStringT@DV?$StrTraitMFC_DLL@DV?$ChTraitsCRT@D@ATL@@@@@ATL@@00000FFF@Z
_TEXT	SEGMENT
_bm$2 = -60						; size = 24
_bm$3 = -36						; size = 24
__$EHRec$ = -12						; size = 12
_strnormal$ = 8						; size = 4
_strdown$ = 12						; size = 4
_strover$ = 16						; size = 4
_strdisabled$ = 20					; size = 4
_strmask$ = 24						; size = 4
_strfocus$ = 28						; size = 4
tv686 = 32						; size = 4
$T4 = 32						; size = 4
_drawmode$ = 32						; size = 2
_border$ = 36						; size = 2
_margin$ = 40						; size = 2
?SetSkin@CxSkinButton@@QAEXV?$CStringT@DV?$StrTraitMFC_DLL@DV?$ChTraitsCRT@D@ATL@@@@@ATL@@00000FFF@Z PROC ; CxSkinButton::SetSkin, COMDAT
; _this$ = ecx

; 266  : {

  00000	55		 push	 ebp
  00001	8b ec		 mov	 ebp, esp
  00003	6a ff		 push	 -1
  00005	68 00 00 00 00	 push	 __ehhandler$?SetSkin@CxSkinButton@@QAEXV?$CStringT@DV?$StrTraitMFC_DLL@DV?$ChTraitsCRT@D@ATL@@@@@ATL@@00000FFF@Z
  0000a	64 a1 00 00 00
	00		 mov	 eax, DWORD PTR fs:0
  00010	50		 push	 eax
  00011	83 ec 30	 sub	 esp, 48			; 00000030H
  00014	53		 push	 ebx
  00015	56		 push	 esi
  00016	57		 push	 edi
  00017	a1 00 00 00 00	 mov	 eax, DWORD PTR ___security_cookie
  0001c	33 c5		 xor	 eax, ebp
  0001e	50		 push	 eax
  0001f	8d 45 f4	 lea	 eax, DWORD PTR __$EHRec$[ebp]
  00022	64 a3 00 00 00
	00		 mov	 DWORD PTR fs:0, eax
  00028	8b f1		 mov	 esi, ecx

; 267  : 	m_bNormal.DeleteObject();	//free previous allocated bitmap

  0002a	8d 8e 30 01 00
	00		 lea	 ecx, DWORD PTR [esi+304]
  00030	c7 45 fc 05 00
	00 00		 mov	 DWORD PTR __$EHRec$[ebp+8], 5
  00037	e8 00 00 00 00	 call	 ?DeleteObject@CGdiObject@@QAEHXZ ; CGdiObject::DeleteObject

; 268  : 	m_bDown.DeleteObject();

  0003c	8d 8e 38 01 00
	00		 lea	 ecx, DWORD PTR [esi+312]
  00042	e8 00 00 00 00	 call	 ?DeleteObject@CGdiObject@@QAEHXZ ; CGdiObject::DeleteObject

; 269  : 	m_bOver.DeleteObject();

  00047	8d 8e 50 01 00
	00		 lea	 ecx, DWORD PTR [esi+336]
  0004d	e8 00 00 00 00	 call	 ?DeleteObject@CGdiObject@@QAEHXZ ; CGdiObject::DeleteObject

; 270  : 	m_bDisabled.DeleteObject();

  00052	8d 8e 40 01 00
	00		 lea	 ecx, DWORD PTR [esi+320]
  00058	e8 00 00 00 00	 call	 ?DeleteObject@CGdiObject@@QAEHXZ ; CGdiObject::DeleteObject

; 271  : 	m_bMask.DeleteObject();

  0005d	8d 9e 48 01 00
	00		 lea	 ebx, DWORD PTR [esi+328]
  00063	8b cb		 mov	 ecx, ebx
  00065	e8 00 00 00 00	 call	 ?DeleteObject@CGdiObject@@QAEHXZ ; CGdiObject::DeleteObject

; 272  : 	m_bFocus.DeleteObject();

  0006a	8d 8e 58 01 00
	00		 lea	 ecx, DWORD PTR [esi+344]
  00070	e8 00 00 00 00	 call	 ?DeleteObject@CGdiObject@@QAEHXZ ; CGdiObject::DeleteObject
; File C:\Program Files (x86)\Microsoft Visual Studio\2019\Community\VC\Tools\MSVC\14.29.30133\atlmfc\include\atlsimpstr.h

; 533  : 		return( GetLength() == 0 );

  00075	8b 45 08	 mov	 eax, DWORD PTR _strnormal$[ebp]
; File D:\git\src\IBK\IBK_DRFN\ProjSrc\SrcDrfn\Chart\comparechart\control\xSkinButton.cpp

; 274  : 	if (!strnormal.IsEmpty()) m_bNormal.Attach((HBITMAP)LoadImage(NULL,strnormal,IMAGE_BITMAP,0,0,LR_LOADFROMFILE|LR_CREATEDIBSECTION|LR_DEFAULTSIZE));

  00078	8b 3d 00 00 00
	00		 mov	 edi, DWORD PTR __imp__LoadImageA@24
; File C:\Program Files (x86)\Microsoft Visual Studio\2019\Community\VC\Tools\MSVC\14.29.30133\atlmfc\include\atlsimpstr.h

; 533  : 		return( GetLength() == 0 );

  0007e	83 78 f4 00	 cmp	 DWORD PTR [eax-12], 0
; File D:\git\src\IBK\IBK_DRFN\ProjSrc\SrcDrfn\Chart\comparechart\control\xSkinButton.cpp

; 274  : 	if (!strnormal.IsEmpty()) m_bNormal.Attach((HBITMAP)LoadImage(NULL,strnormal,IMAGE_BITMAP,0,0,LR_LOADFROMFILE|LR_CREATEDIBSECTION|LR_DEFAULTSIZE));

  00082	74 1c		 je	 SHORT $LN2@SetSkin
  00084	68 50 20 00 00	 push	 8272			; 00002050H
  00089	6a 00		 push	 0
  0008b	6a 00		 push	 0
  0008d	6a 00		 push	 0
  0008f	50		 push	 eax
  00090	6a 00		 push	 0
  00092	ff d7		 call	 edi
  00094	50		 push	 eax
  00095	8d 8e 30 01 00
	00		 lea	 ecx, DWORD PTR [esi+304]
  0009b	e8 00 00 00 00	 call	 ?Attach@CGdiObject@@QAEHPAX@Z ; CGdiObject::Attach
$LN2@SetSkin:
; File C:\Program Files (x86)\Microsoft Visual Studio\2019\Community\VC\Tools\MSVC\14.29.30133\atlmfc\include\atlsimpstr.h

; 533  : 		return( GetLength() == 0 );

  000a0	8b 45 0c	 mov	 eax, DWORD PTR _strdown$[ebp]
  000a3	83 78 f4 00	 cmp	 DWORD PTR [eax-12], 0
; File D:\git\src\IBK\IBK_DRFN\ProjSrc\SrcDrfn\Chart\comparechart\control\xSkinButton.cpp

; 275  : 	if (!strdown.IsEmpty())	  m_bDown.Attach((HBITMAP)LoadImage(NULL,strdown,IMAGE_BITMAP,0,0,LR_LOADFROMFILE|LR_CREATEDIBSECTION|LR_DEFAULTSIZE));

  000a7	74 1c		 je	 SHORT $LN3@SetSkin
  000a9	68 50 20 00 00	 push	 8272			; 00002050H
  000ae	6a 00		 push	 0
  000b0	6a 00		 push	 0
  000b2	6a 00		 push	 0
  000b4	50		 push	 eax
  000b5	6a 00		 push	 0
  000b7	ff d7		 call	 edi
  000b9	50		 push	 eax
  000ba	8d 8e 38 01 00
	00		 lea	 ecx, DWORD PTR [esi+312]
  000c0	e8 00 00 00 00	 call	 ?Attach@CGdiObject@@QAEHPAX@Z ; CGdiObject::Attach
$LN3@SetSkin:
; File C:\Program Files (x86)\Microsoft Visual Studio\2019\Community\VC\Tools\MSVC\14.29.30133\atlmfc\include\atlsimpstr.h

; 533  : 		return( GetLength() == 0 );

  000c5	8b 45 10	 mov	 eax, DWORD PTR _strover$[ebp]
  000c8	83 78 f4 00	 cmp	 DWORD PTR [eax-12], 0
; File D:\git\src\IBK\IBK_DRFN\ProjSrc\SrcDrfn\Chart\comparechart\control\xSkinButton.cpp

; 276  : 	if (!strover.IsEmpty())	  m_bOver.Attach((HBITMAP)LoadImage(NULL,strover,IMAGE_BITMAP,0,0,LR_LOADFROMFILE|LR_CREATEDIBSECTION|LR_DEFAULTSIZE));

  000cc	74 1c		 je	 SHORT $LN4@SetSkin
  000ce	68 50 20 00 00	 push	 8272			; 00002050H
  000d3	6a 00		 push	 0
  000d5	6a 00		 push	 0
  000d7	6a 00		 push	 0
  000d9	50		 push	 eax
  000da	6a 00		 push	 0
  000dc	ff d7		 call	 edi
  000de	50		 push	 eax
  000df	8d 8e 50 01 00
	00		 lea	 ecx, DWORD PTR [esi+336]
  000e5	e8 00 00 00 00	 call	 ?Attach@CGdiObject@@QAEHPAX@Z ; CGdiObject::Attach
$LN4@SetSkin:
; File C:\Program Files (x86)\Microsoft Visual Studio\2019\Community\VC\Tools\MSVC\14.29.30133\atlmfc\include\atlsimpstr.h

; 533  : 		return( GetLength() == 0 );

  000ea	8b 45 1c	 mov	 eax, DWORD PTR _strfocus$[ebp]
  000ed	83 78 f4 00	 cmp	 DWORD PTR [eax-12], 0
; File D:\git\src\IBK\IBK_DRFN\ProjSrc\SrcDrfn\Chart\comparechart\control\xSkinButton.cpp

; 277  : 	if (!strfocus.IsEmpty())  m_bFocus.Attach((HBITMAP)LoadImage(NULL,strfocus,IMAGE_BITMAP,0,0,LR_LOADFROMFILE|LR_CREATEDIBSECTION|LR_DEFAULTSIZE));

  000f1	74 1c		 je	 SHORT $LN5@SetSkin
  000f3	68 50 20 00 00	 push	 8272			; 00002050H
  000f8	6a 00		 push	 0
  000fa	6a 00		 push	 0
  000fc	6a 00		 push	 0
  000fe	50		 push	 eax
  000ff	6a 00		 push	 0
  00101	ff d7		 call	 edi
  00103	50		 push	 eax
  00104	8d 8e 58 01 00
	00		 lea	 ecx, DWORD PTR [esi+344]
  0010a	e8 00 00 00 00	 call	 ?Attach@CGdiObject@@QAEHPAX@Z ; CGdiObject::Attach
$LN5@SetSkin:
; File C:\Program Files (x86)\Microsoft Visual Studio\2019\Community\VC\Tools\MSVC\14.29.30133\atlmfc\include\atlsimpstr.h

; 533  : 		return( GetLength() == 0 );

  0010f	8b 45 14	 mov	 eax, DWORD PTR _strdisabled$[ebp]
  00112	83 78 f4 00	 cmp	 DWORD PTR [eax-12], 0
; File D:\git\src\IBK\IBK_DRFN\ProjSrc\SrcDrfn\Chart\comparechart\control\xSkinButton.cpp

; 279  : 	if (!strdisabled.IsEmpty()) m_bDisabled.Attach((HBITMAP)LoadImage(NULL,strdisabled,IMAGE_BITMAP,0,0,LR_LOADFROMFILE|LR_CREATEDIBSECTION|LR_DEFAULTSIZE));

  00116	75 09		 jne	 SHORT $LN106@SetSkin
; File C:\Program Files (x86)\Microsoft Visual Studio\2019\Community\VC\Tools\MSVC\14.29.30133\atlmfc\include\atlsimpstr.h

; 533  : 		return( GetLength() == 0 );

  00118	8b 45 08	 mov	 eax, DWORD PTR _strnormal$[ebp]
  0011b	83 78 f4 00	 cmp	 DWORD PTR [eax-12], 0
; File D:\git\src\IBK\IBK_DRFN\ProjSrc\SrcDrfn\Chart\comparechart\control\xSkinButton.cpp

; 280  : 	else if (!strnormal.IsEmpty()) m_bDisabled.Attach((HBITMAP)LoadImage(NULL,strnormal,IMAGE_BITMAP,0,0,LR_LOADFROMFILE|LR_CREATEDIBSECTION|LR_DEFAULTSIZE));

  0011f	74 1c		 je	 SHORT $LN8@SetSkin
$LN106@SetSkin:

; 281  : 
; 282  : 	m_DrawMode=max(0,min(drawmode,2));

  00121	68 50 20 00 00	 push	 8272			; 00002050H
  00126	6a 00		 push	 0
  00128	6a 00		 push	 0
  0012a	6a 00		 push	 0
  0012c	50		 push	 eax
  0012d	6a 00		 push	 0
  0012f	ff d7		 call	 edi
  00131	50		 push	 eax
  00132	8d 8e 40 01 00
	00		 lea	 ecx, DWORD PTR [esi+320]
  00138	e8 00 00 00 00	 call	 ?Attach@CGdiObject@@QAEHPAX@Z ; CGdiObject::Attach
$LN8@SetSkin:
  0013d	66 8b 45 20	 mov	 ax, WORD PTR _drawmode$[ebp]
  00141	66 83 f8 02	 cmp	 ax, 2
  00145	7d 0a		 jge	 SHORT $LN16@SetSkin
  00147	98		 cwde
  00148	33 c9		 xor	 ecx, ecx
  0014a	85 c0		 test	 eax, eax
  0014c	0f 48 c1	 cmovs	 eax, ecx
  0014f	eb 05		 jmp	 SHORT $LN17@SetSkin
$LN16@SetSkin:
  00151	b8 02 00 00 00	 mov	 eax, 2
$LN17@SetSkin:
  00156	66 89 86 70 01
	00 00		 mov	 WORD PTR [esi+368], ax

; 284  : 	m_FocusRectMargin=max(0,margin);

  0015d	33 d2		 xor	 edx, edx
  0015f	0f bf 45 24	 movsx	 eax, WORD PTR _border$[ebp]
  00163	89 86 6c 01 00
	00		 mov	 DWORD PTR [esi+364], eax
  00169	66 8b 45 28	 mov	 ax, WORD PTR _margin$[ebp]
  0016d	c7 45 20 00 00
	00 00		 mov	 DWORD PTR tv686[ebp], 0
  00174	66 39 45 20	 cmp	 WORD PTR tv686[ebp], ax
  00178	0f b7 c8	 movzx	 ecx, ax
; File C:\Program Files (x86)\Microsoft Visual Studio\2019\Community\VC\Tools\MSVC\14.29.30133\atlmfc\include\atlsimpstr.h

; 533  : 		return( GetLength() == 0 );

  0017b	8b 45 18	 mov	 eax, DWORD PTR _strmask$[ebp]
; File D:\git\src\IBK\IBK_DRFN\ProjSrc\SrcDrfn\Chart\comparechart\control\xSkinButton.cpp

; 284  : 	m_FocusRectMargin=max(0,margin);

  0017e	0f 4e d1	 cmovle	 edx, ecx
  00181	66 89 96 60 01
	00 00		 mov	 WORD PTR [esi+352], dx
; File C:\Program Files (x86)\Microsoft Visual Studio\2019\Community\VC\Tools\MSVC\14.29.30133\atlmfc\include\atlsimpstr.h

; 533  : 		return( GetLength() == 0 );

  00188	83 78 f4 00	 cmp	 DWORD PTR [eax-12], 0
; File D:\git\src\IBK\IBK_DRFN\ProjSrc\SrcDrfn\Chart\comparechart\control\xSkinButton.cpp

; 286  : 	if (!strmask.IsEmpty()){

  0018c	0f 84 c4 00 00
	00		 je	 $LN12@SetSkin

; 287  : 		m_bMask.Attach((HBITMAP)LoadImage(NULL,strmask,IMAGE_BITMAP,0,0,LR_LOADFROMFILE|LR_CREATEDIBSECTION|LR_DEFAULTSIZE));

  00192	68 50 20 00 00	 push	 8272			; 00002050H
  00197	6a 00		 push	 0
  00199	6a 00		 push	 0
  0019b	6a 00		 push	 0
  0019d	50		 push	 eax
  0019e	6a 00		 push	 0
  001a0	ff d7		 call	 edi
  001a2	50		 push	 eax
  001a3	8b cb		 mov	 ecx, ebx
  001a5	e8 00 00 00 00	 call	 ?Attach@CGdiObject@@QAEHPAX@Z ; CGdiObject::Attach

; 288  : 		if (hClipRgn) DeleteObject(hClipRgn);

  001aa	8b 86 68 01 00
	00		 mov	 eax, DWORD PTR [esi+360]
  001b0	85 c0		 test	 eax, eax
  001b2	74 07		 je	 SHORT $LN10@SetSkin
  001b4	50		 push	 eax
  001b5	ff 15 00 00 00
	00		 call	 DWORD PTR __imp__DeleteObject@4
$LN10@SetSkin:
; File C:\Program Files (x86)\Microsoft Visual Studio\2019\Community\VC\Tools\MSVC\14.29.30133\atlmfc\include\afxwin1.inl

; 173  : 	{ return (HBITMAP)(this == NULL ? NULL : m_hObject); }

  001bb	85 db		 test	 ebx, ebx
  001bd	75 04		 jne	 SHORT $LN86@SetSkin
  001bf	33 c0		 xor	 eax, eax
  001c1	eb 03		 jmp	 SHORT $LN87@SetSkin
$LN86@SetSkin:
  001c3	8b 43 04	 mov	 eax, DWORD PTR [ebx+4]
$LN87@SetSkin:
; File D:\git\src\IBK\IBK_DRFN\ProjSrc\SrcDrfn\Chart\comparechart\control\xSkinButton.cpp

; 289  : 		hClipRgn = CreateRgnFromBitmap(m_bMask,RGB(255,255,255));

  001c6	68 ff ff ff 00	 push	 16777215		; 00ffffffH
  001cb	50		 push	 eax
  001cc	8b ce		 mov	 ecx, esi
  001ce	e8 00 00 00 00	 call	 ?CreateRgnFromBitmap@CxSkinButton@@IAEPAUHRGN__@@PAUHBITMAP__@@K@Z ; CxSkinButton::CreateRgnFromBitmap
  001d3	89 86 68 01 00
	00		 mov	 DWORD PTR [esi+360], eax

; 290  : 		if (hClipRgn){

  001d9	85 c0		 test	 eax, eax
  001db	74 28		 je	 SHORT $LN11@SetSkin
; File C:\Program Files (x86)\Microsoft Visual Studio\2019\Community\VC\Tools\MSVC\14.29.30133\atlmfc\include\afxwin2.inl

; 78   : 	{ ASSERT(::IsWindow(m_hWnd)); return ::SetWindowRgn(m_hWnd, hRgn, bRedraw); }

  001dd	6a 01		 push	 1
  001df	50		 push	 eax
  001e0	ff 76 20	 push	 DWORD PTR [esi+32]
  001e3	ff 15 00 00 00
	00		 call	 DWORD PTR __imp__SetWindowRgn@12

; 100  : 	{ ASSERT(::IsWindow(m_hWnd)); return CDC::FromHandle(::GetDC(m_hWnd)); }

  001e9	ff 76 20	 push	 DWORD PTR [esi+32]
  001ec	ff 15 00 00 00
	00		 call	 DWORD PTR __imp__GetDC@4
  001f2	50		 push	 eax
  001f3	e8 00 00 00 00	 call	 ?FromHandle@CDC@@SGPAV1@PAUHDC__@@@Z ; CDC::FromHandle
; File D:\git\src\IBK\IBK_DRFN\ProjSrc\SrcDrfn\Chart\comparechart\control\xSkinButton.cpp

; 292  : 			SelectClipRgn((HDC)GetDC(),hClipRgn);

  001f8	ff b6 68 01 00
	00		 push	 DWORD PTR [esi+360]
  001fe	50		 push	 eax
  001ff	ff 15 00 00 00
	00		 call	 DWORD PTR __imp__SelectClipRgn@8
$LN11@SetSkin:

; 293  : 		}
; 294  : 		if (m_DrawMode==0){

  00205	66 83 be 70 01
	00 00 00	 cmp	 WORD PTR [esi+368], 0
  0020d	75 47		 jne	 SHORT $LN12@SetSkin
; File C:\Program Files (x86)\Microsoft Visual Studio\2019\Community\VC\Tools\MSVC\14.29.30133\atlmfc\include\afxwin1.inl

; 173  : 	{ return (HBITMAP)(this == NULL ? NULL : m_hObject); }

  0020f	8b 3d 00 00 00
	00		 mov	 edi, DWORD PTR __imp__GetObjectA@12
  00215	8d 45 dc	 lea	 eax, DWORD PTR _bm$3[ebp]
  00218	50		 push	 eax
  00219	6a 18		 push	 24			; 00000018H
  0021b	85 db		 test	 ebx, ebx
  0021d	75 0a		 jne	 SHORT $LN94@SetSkin
  0021f	53		 push	 ebx
  00220	ff d7		 call	 edi
  00222	8b 5d e4	 mov	 ebx, DWORD PTR _bm$3[ebp+8]
  00225	33 c0		 xor	 eax, eax
  00227	eb 11		 jmp	 SHORT $LN101@SetSkin
$LN94@SetSkin:
  00229	ff 73 04	 push	 DWORD PTR [ebx+4]
  0022c	ff d7		 call	 edi
  0022e	8b 45 e4	 mov	 eax, DWORD PTR _bm$3[ebp+8]
  00231	89 45 20	 mov	 DWORD PTR $T4[ebp], eax
  00234	8b 43 04	 mov	 eax, DWORD PTR [ebx+4]
  00237	8b 5d 20	 mov	 ebx, DWORD PTR $T4[ebp]
$LN101@SetSkin:
; File D:\git\src\IBK\IBK_DRFN\ProjSrc\SrcDrfn\Chart\comparechart\control\xSkinButton.cpp

; 180  : { BITMAP bm; GetObject(hBitmap,sizeof(BITMAP),(PSTR)&bm); return bm.bmWidth;}

  0023a	8d 4d c4	 lea	 ecx, DWORD PTR _bm$2[ebp]
  0023d	51		 push	 ecx
  0023e	6a 18		 push	 24			; 00000018H
  00240	50		 push	 eax
  00241	ff d7		 call	 edi

; 295  : 			SetWindowPos(NULL,0,0,GetBitmapWidth(m_bMask),

  00243	6a 06		 push	 6
  00245	53		 push	 ebx
  00246	ff 75 c8	 push	 DWORD PTR _bm$2[ebp+4]
  00249	8b ce		 mov	 ecx, esi
  0024b	6a 00		 push	 0
  0024d	6a 00		 push	 0
  0024f	6a 00		 push	 0
  00251	e8 00 00 00 00	 call	 ?SetWindowPos@CWnd@@QAEHPBV1@HHHHI@Z ; CWnd::SetWindowPos
$LN12@SetSkin:

; 296  : 						GetBitmapHeight(m_bMask),SWP_NOZORDER|SWP_NOMOVE);
; 297  : 		}
; 298  : 	}
; 299  : 
; 300  : }

  00256	8d 4d 08	 lea	 ecx, DWORD PTR _strnormal$[ebp]
  00259	ff 15 00 00 00
	00		 call	 DWORD PTR __imp_??1?$CStringT@DV?$StrTraitMFC_DLL@DV?$ChTraitsCRT@D@ATL@@@@@ATL@@QAE@XZ
  0025f	8d 4d 0c	 lea	 ecx, DWORD PTR _strdown$[ebp]
  00262	ff 15 00 00 00
	00		 call	 DWORD PTR __imp_??1?$CStringT@DV?$StrTraitMFC_DLL@DV?$ChTraitsCRT@D@ATL@@@@@ATL@@QAE@XZ
  00268	8d 4d 10	 lea	 ecx, DWORD PTR _strover$[ebp]
  0026b	ff 15 00 00 00
	00		 call	 DWORD PTR __imp_??1?$CStringT@DV?$StrTraitMFC_DLL@DV?$ChTraitsCRT@D@ATL@@@@@ATL@@QAE@XZ
  00271	8d 4d 14	 lea	 ecx, DWORD PTR _strdisabled$[ebp]
  00274	ff 15 00 00 00
	00		 call	 DWORD PTR __imp_??1?$CStringT@DV?$StrTraitMFC_DLL@DV?$ChTraitsCRT@D@ATL@@@@@ATL@@QAE@XZ
  0027a	8d 4d 18	 lea	 ecx, DWORD PTR _strmask$[ebp]
  0027d	ff 15 00 00 00
	00		 call	 DWORD PTR __imp_??1?$CStringT@DV?$StrTraitMFC_DLL@DV?$ChTraitsCRT@D@ATL@@@@@ATL@@QAE@XZ
  00283	8d 4d 1c	 lea	 ecx, DWORD PTR _strfocus$[ebp]
  00286	ff 15 00 00 00
	00		 call	 DWORD PTR __imp_??1?$CStringT@DV?$StrTraitMFC_DLL@DV?$ChTraitsCRT@D@ATL@@@@@ATL@@QAE@XZ
  0028c	8b 4d f4	 mov	 ecx, DWORD PTR __$EHRec$[ebp]
  0028f	64 89 0d 00 00
	00 00		 mov	 DWORD PTR fs:0, ecx
  00296	59		 pop	 ecx
  00297	5f		 pop	 edi
  00298	5e		 pop	 esi
  00299	5b		 pop	 ebx
  0029a	8b e5		 mov	 esp, ebp
  0029c	5d		 pop	 ebp
  0029d	c2 24 00	 ret	 36			; 00000024H
_TEXT	ENDS
;	COMDAT text$x
text$x	SEGMENT
__unwindfunclet$?SetSkin@CxSkinButton@@QAEXV?$CStringT@DV?$StrTraitMFC_DLL@DV?$ChTraitsCRT@D@ATL@@@@@ATL@@00000FFF@Z$0:
  00000	8d 4d 1c	 lea	 ecx, DWORD PTR _strfocus$[ebp]
  00003	ff 25 00 00 00
	00		 jmp	 DWORD PTR __imp_??1?$CStringT@DV?$StrTraitMFC_DLL@DV?$ChTraitsCRT@D@ATL@@@@@ATL@@QAE@XZ
__unwindfunclet$?SetSkin@CxSkinButton@@QAEXV?$CStringT@DV?$StrTraitMFC_DLL@DV?$ChTraitsCRT@D@ATL@@@@@ATL@@00000FFF@Z$1:
  00009	8d 4d 18	 lea	 ecx, DWORD PTR _strmask$[ebp]
  0000c	ff 25 00 00 00
	00		 jmp	 DWORD PTR __imp_??1?$CStringT@DV?$StrTraitMFC_DLL@DV?$ChTraitsCRT@D@ATL@@@@@ATL@@QAE@XZ
__unwindfunclet$?SetSkin@CxSkinButton@@QAEXV?$CStringT@DV?$StrTraitMFC_DLL@DV?$ChTraitsCRT@D@ATL@@@@@ATL@@00000FFF@Z$2:
  00012	8d 4d 14	 lea	 ecx, DWORD PTR _strdisabled$[ebp]
  00015	ff 25 00 00 00
	00		 jmp	 DWORD PTR __imp_??1?$CStringT@DV?$StrTraitMFC_DLL@DV?$ChTraitsCRT@D@ATL@@@@@ATL@@QAE@XZ
__unwindfunclet$?SetSkin@CxSkinButton@@QAEXV?$CStringT@DV?$StrTraitMFC_DLL@DV?$ChTraitsCRT@D@ATL@@@@@ATL@@00000FFF@Z$3:
  0001b	8d 4d 10	 lea	 ecx, DWORD PTR _strover$[ebp]
  0001e	ff 25 00 00 00
	00		 jmp	 DWORD PTR __imp_??1?$CStringT@DV?$StrTraitMFC_DLL@DV?$ChTraitsCRT@D@ATL@@@@@ATL@@QAE@XZ
__unwindfunclet$?SetSkin@CxSkinButton@@QAEXV?$CStringT@DV?$StrTraitMFC_DLL@DV?$ChTraitsCRT@D@ATL@@@@@ATL@@00000FFF@Z$4:
  00024	8d 4d 0c	 lea	 ecx, DWORD PTR _strdown$[ebp]
  00027	ff 25 00 00 00
	00		 jmp	 DWORD PTR __imp_??1?$CStringT@DV?$StrTraitMFC_DLL@DV?$ChTraitsCRT@D@ATL@@@@@ATL@@QAE@XZ
__unwindfunclet$?SetSkin@CxSkinButton@@QAEXV?$CStringT@DV?$StrTraitMFC_DLL@DV?$ChTraitsCRT@D@ATL@@@@@ATL@@00000FFF@Z$5:
  0002d	8d 4d 08	 lea	 ecx, DWORD PTR _strnormal$[ebp]
  00030	ff 25 00 00 00
	00		 jmp	 DWORD PTR __imp_??1?$CStringT@DV?$StrTraitMFC_DLL@DV?$ChTraitsCRT@D@ATL@@@@@ATL@@QAE@XZ
  00036	cc		 int	 3
  00037	cc		 int	 3
  00038	cc		 int	 3
  00039	cc		 int	 3
  0003a	cc		 int	 3
__ehhandler$?SetSkin@CxSkinButton@@QAEXV?$CStringT@DV?$StrTraitMFC_DLL@DV?$ChTraitsCRT@D@ATL@@@@@ATL@@00000FFF@Z:
  0003b	90		 npad	 1
  0003c	90		 npad	 1
  0003d	8b 54 24 08	 mov	 edx, DWORD PTR [esp+8]
  00041	8d 42 0c	 lea	 eax, DWORD PTR [edx+12]
  00044	8b 4a c0	 mov	 ecx, DWORD PTR [edx-64]
  00047	33 c8		 xor	 ecx, eax
  00049	e8 00 00 00 00	 call	 @__security_check_cookie@4
  0004e	b8 00 00 00 00	 mov	 eax, OFFSET __ehfuncinfo$?SetSkin@CxSkinButton@@QAEXV?$CStringT@DV?$StrTraitMFC_DLL@DV?$ChTraitsCRT@D@ATL@@@@@ATL@@00000FFF@Z
  00053	e9 00 00 00 00	 jmp	 ___CxxFrameHandler3
text$x	ENDS
?SetSkin@CxSkinButton@@QAEXV?$CStringT@DV?$StrTraitMFC_DLL@DV?$ChTraitsCRT@D@ATL@@@@@ATL@@00000FFF@Z ENDP ; CxSkinButton::SetSkin
; Function compile flags: /Ogtp
; File D:\git\src\IBK\IBK_DRFN\ProjSrc\SrcDrfn\Chart\comparechart\control\xSkinButton.cpp
; File C:\Program Files (x86)\Microsoft Visual Studio\2019\Community\VC\Tools\MSVC\14.29.30133\atlmfc\include\afxwin1.inl
; File D:\git\src\IBK\IBK_DRFN\ProjSrc\SrcDrfn\Chart\comparechart\control\xSkinButton.cpp
; File C:\Program Files (x86)\Microsoft Visual Studio\2019\Community\VC\Tools\MSVC\14.29.30133\atlmfc\include\afxwin1.inl
; File D:\git\src\IBK\IBK_DRFN\ProjSrc\SrcDrfn\Chart\comparechart\control\xSkinButton.cpp
; File C:\Program Files (x86)\Microsoft Visual Studio\2019\Community\VC\Tools\MSVC\14.29.30133\atlmfc\include\afxwin1.inl
; File D:\git\src\IBK\IBK_DRFN\ProjSrc\SrcDrfn\Chart\comparechart\control\xSkinButton.cpp
; File C:\Program Files (x86)\Microsoft Visual Studio\2019\Community\VC\Tools\MSVC\14.29.30133\atlmfc\include\afxwin1.inl
; File D:\git\src\IBK\IBK_DRFN\ProjSrc\SrcDrfn\Chart\comparechart\control\xSkinButton.cpp
; File C:\Program Files (x86)\Microsoft Visual Studio\2019\Community\VC\Tools\MSVC\14.29.30133\atlmfc\include\afxwin1.inl
; File D:\git\src\IBK\IBK_DRFN\ProjSrc\SrcDrfn\Chart\comparechart\control\xSkinButton.cpp
; File C:\Program Files (x86)\Microsoft Visual Studio\2019\Community\VC\Tools\MSVC\14.29.30133\atlmfc\include\afxwin1.inl
; File D:\git\src\IBK\IBK_DRFN\ProjSrc\SrcDrfn\Chart\comparechart\control\xSkinButton.cpp
; File C:\Program Files (x86)\Microsoft Visual Studio\2019\Community\VC\Tools\MSVC\14.29.30133\atlmfc\include\afxwin2.inl
; File D:\git\src\IBK\IBK_DRFN\ProjSrc\SrcDrfn\Chart\comparechart\control\xSkinButton.cpp
; File C:\Program Files (x86)\Microsoft Visual Studio\2019\Community\VC\Tools\MSVC\14.29.30133\atlmfc\include\afxwin1.inl
; File D:\git\src\IBK\IBK_DRFN\ProjSrc\SrcDrfn\Chart\comparechart\control\xSkinButton.cpp
;	COMDAT ?SetSkin@CxSkinButton@@QAEXIIIIIIFFF@Z
_TEXT	SEGMENT
_bm$1 = -48						; size = 24
_bm$2 = -24						; size = 24
_normal$ = 8						; size = 4
_down$ = 12						; size = 4
_over$ = 16						; size = 4
_disabled$ = 20						; size = 4
_focus$ = 24						; size = 4
_mask$ = 28						; size = 4
$T3 = 32						; size = 4
tv498 = 32						; size = 4
_drawmode$ = 32						; size = 2
_border$ = 36						; size = 2
_margin$ = 40						; size = 2
?SetSkin@CxSkinButton@@QAEXIIIIIIFFF@Z PROC		; CxSkinButton::SetSkin, COMDAT
; _this$ = ecx

; 304  : {

  00000	55		 push	 ebp
  00001	8b ec		 mov	 ebp, esp
  00003	83 ec 30	 sub	 esp, 48			; 00000030H
  00006	53		 push	 ebx
  00007	56		 push	 esi
  00008	8b f1		 mov	 esi, ecx
  0000a	57		 push	 edi

; 305  : 	m_bNormal.DeleteObject();	//free previous allocated bitmap

  0000b	8d 8e 30 01 00
	00		 lea	 ecx, DWORD PTR [esi+304]
  00011	e8 00 00 00 00	 call	 ?DeleteObject@CGdiObject@@QAEHXZ ; CGdiObject::DeleteObject

; 306  : 	m_bDown.DeleteObject();

  00016	8d 8e 38 01 00
	00		 lea	 ecx, DWORD PTR [esi+312]
  0001c	e8 00 00 00 00	 call	 ?DeleteObject@CGdiObject@@QAEHXZ ; CGdiObject::DeleteObject

; 307  : 	m_bOver.DeleteObject();

  00021	8d 8e 50 01 00
	00		 lea	 ecx, DWORD PTR [esi+336]
  00027	e8 00 00 00 00	 call	 ?DeleteObject@CGdiObject@@QAEHXZ ; CGdiObject::DeleteObject

; 308  : 	m_bDisabled.DeleteObject();

  0002c	8d 8e 40 01 00
	00		 lea	 ecx, DWORD PTR [esi+320]
  00032	e8 00 00 00 00	 call	 ?DeleteObject@CGdiObject@@QAEHXZ ; CGdiObject::DeleteObject

; 309  : 	m_bMask.DeleteObject();

  00037	8d 9e 48 01 00
	00		 lea	 ebx, DWORD PTR [esi+328]
  0003d	8b cb		 mov	 ecx, ebx
  0003f	e8 00 00 00 00	 call	 ?DeleteObject@CGdiObject@@QAEHXZ ; CGdiObject::DeleteObject

; 310  : 	m_bFocus.DeleteObject();

  00044	8d 8e 58 01 00
	00		 lea	 ecx, DWORD PTR [esi+344]
  0004a	e8 00 00 00 00	 call	 ?DeleteObject@CGdiObject@@QAEHXZ ; CGdiObject::DeleteObject

; 311  : 
; 312  : 	if (normal>0) m_bNormal.LoadBitmap(normal);

  0004f	8b 45 08	 mov	 eax, DWORD PTR _normal$[ebp]
  00052	8b 3d 00 00 00
	00		 mov	 edi, DWORD PTR __imp__LoadBitmapW@8
  00058	85 c0		 test	 eax, eax
  0005a	74 1b		 je	 SHORT $LN2@SetSkin
; File C:\Program Files (x86)\Microsoft Visual Studio\2019\Community\VC\Tools\MSVC\14.29.30133\atlmfc\include\afxwin1.inl

; 212  : 	{ return Attach(::LoadBitmapW(AfxFindResourceHandle(

  0005c	0f b7 c0	 movzx	 eax, ax
  0005f	50		 push	 eax
  00060	6a 02		 push	 2
  00062	50		 push	 eax
  00063	e8 00 00 00 00	 call	 ?AfxFindResourceHandle@@YGPAUHINSTANCE__@@PBD0@Z ; AfxFindResourceHandle
  00068	50		 push	 eax
  00069	ff d7		 call	 edi
  0006b	50		 push	 eax
  0006c	8d 8e 30 01 00
	00		 lea	 ecx, DWORD PTR [esi+304]
  00072	e8 00 00 00 00	 call	 ?Attach@CGdiObject@@QAEHPAX@Z ; CGdiObject::Attach
$LN2@SetSkin:
; File D:\git\src\IBK\IBK_DRFN\ProjSrc\SrcDrfn\Chart\comparechart\control\xSkinButton.cpp

; 313  : 	if (down>0)	  m_bDown.LoadBitmap(down);

  00077	8b 45 0c	 mov	 eax, DWORD PTR _down$[ebp]
  0007a	85 c0		 test	 eax, eax
  0007c	74 1b		 je	 SHORT $LN3@SetSkin
; File C:\Program Files (x86)\Microsoft Visual Studio\2019\Community\VC\Tools\MSVC\14.29.30133\atlmfc\include\afxwin1.inl

; 212  : 	{ return Attach(::LoadBitmapW(AfxFindResourceHandle(

  0007e	0f b7 c0	 movzx	 eax, ax
  00081	50		 push	 eax
  00082	6a 02		 push	 2
  00084	50		 push	 eax
  00085	e8 00 00 00 00	 call	 ?AfxFindResourceHandle@@YGPAUHINSTANCE__@@PBD0@Z ; AfxFindResourceHandle
  0008a	50		 push	 eax
  0008b	ff d7		 call	 edi
  0008d	50		 push	 eax
  0008e	8d 8e 38 01 00
	00		 lea	 ecx, DWORD PTR [esi+312]
  00094	e8 00 00 00 00	 call	 ?Attach@CGdiObject@@QAEHPAX@Z ; CGdiObject::Attach
$LN3@SetSkin:
; File D:\git\src\IBK\IBK_DRFN\ProjSrc\SrcDrfn\Chart\comparechart\control\xSkinButton.cpp

; 314  : 	if (over>0)	  m_bOver.LoadBitmap(over);

  00099	8b 45 10	 mov	 eax, DWORD PTR _over$[ebp]
  0009c	85 c0		 test	 eax, eax
  0009e	74 1b		 je	 SHORT $LN4@SetSkin
; File C:\Program Files (x86)\Microsoft Visual Studio\2019\Community\VC\Tools\MSVC\14.29.30133\atlmfc\include\afxwin1.inl

; 212  : 	{ return Attach(::LoadBitmapW(AfxFindResourceHandle(

  000a0	0f b7 c0	 movzx	 eax, ax
  000a3	50		 push	 eax
  000a4	6a 02		 push	 2
  000a6	50		 push	 eax
  000a7	e8 00 00 00 00	 call	 ?AfxFindResourceHandle@@YGPAUHINSTANCE__@@PBD0@Z ; AfxFindResourceHandle
  000ac	50		 push	 eax
  000ad	ff d7		 call	 edi
  000af	50		 push	 eax
  000b0	8d 8e 50 01 00
	00		 lea	 ecx, DWORD PTR [esi+336]
  000b6	e8 00 00 00 00	 call	 ?Attach@CGdiObject@@QAEHPAX@Z ; CGdiObject::Attach
$LN4@SetSkin:
; File D:\git\src\IBK\IBK_DRFN\ProjSrc\SrcDrfn\Chart\comparechart\control\xSkinButton.cpp

; 315  : 	if (focus>0)  m_bFocus.LoadBitmap(focus);

  000bb	8b 45 18	 mov	 eax, DWORD PTR _focus$[ebp]
  000be	85 c0		 test	 eax, eax
  000c0	74 1b		 je	 SHORT $LN5@SetSkin
; File C:\Program Files (x86)\Microsoft Visual Studio\2019\Community\VC\Tools\MSVC\14.29.30133\atlmfc\include\afxwin1.inl

; 212  : 	{ return Attach(::LoadBitmapW(AfxFindResourceHandle(

  000c2	0f b7 c0	 movzx	 eax, ax
  000c5	50		 push	 eax
  000c6	6a 02		 push	 2
  000c8	50		 push	 eax
  000c9	e8 00 00 00 00	 call	 ?AfxFindResourceHandle@@YGPAUHINSTANCE__@@PBD0@Z ; AfxFindResourceHandle
  000ce	50		 push	 eax
  000cf	ff d7		 call	 edi
  000d1	50		 push	 eax
  000d2	8d 8e 58 01 00
	00		 lea	 ecx, DWORD PTR [esi+344]
  000d8	e8 00 00 00 00	 call	 ?Attach@CGdiObject@@QAEHPAX@Z ; CGdiObject::Attach
$LN5@SetSkin:
; File D:\git\src\IBK\IBK_DRFN\ProjSrc\SrcDrfn\Chart\comparechart\control\xSkinButton.cpp

; 317  : 	if (disabled>0) m_bDisabled.LoadBitmap(disabled);

  000dd	8b 45 14	 mov	 eax, DWORD PTR _disabled$[ebp]
  000e0	85 c0		 test	 eax, eax
  000e2	75 07		 jne	 SHORT $LN57@SetSkin

; 318  : 	else if (normal>0) m_bDisabled.LoadBitmap(normal);

  000e4	8b 45 08	 mov	 eax, DWORD PTR _normal$[ebp]
  000e7	85 c0		 test	 eax, eax
  000e9	74 1b		 je	 SHORT $LN8@SetSkin
$LN57@SetSkin:

; 319  : 
; 320  : 	m_DrawMode=max(0,min(drawmode,2));

  000eb	0f b7 c0	 movzx	 eax, ax
  000ee	50		 push	 eax
  000ef	6a 02		 push	 2
  000f1	50		 push	 eax
  000f2	e8 00 00 00 00	 call	 ?AfxFindResourceHandle@@YGPAUHINSTANCE__@@PBD0@Z ; AfxFindResourceHandle
  000f7	50		 push	 eax
  000f8	ff d7		 call	 edi
  000fa	50		 push	 eax
  000fb	8d 8e 40 01 00
	00		 lea	 ecx, DWORD PTR [esi+320]
  00101	e8 00 00 00 00	 call	 ?Attach@CGdiObject@@QAEHPAX@Z ; CGdiObject::Attach
$LN8@SetSkin:
  00106	66 8b 45 20	 mov	 ax, WORD PTR _drawmode$[ebp]
  0010a	66 83 f8 02	 cmp	 ax, 2
  0010e	7d 0a		 jge	 SHORT $LN16@SetSkin
  00110	98		 cwde
  00111	33 c9		 xor	 ecx, ecx
  00113	85 c0		 test	 eax, eax
  00115	0f 48 c1	 cmovs	 eax, ecx
  00118	eb 05		 jmp	 SHORT $LN17@SetSkin
$LN16@SetSkin:
  0011a	b8 02 00 00 00	 mov	 eax, 2
$LN17@SetSkin:
  0011f	66 89 86 70 01
	00 00		 mov	 WORD PTR [esi+368], ax

; 321  : 	m_Border=border;
; 322  : 	m_FocusRectMargin=max(0,margin);

  00126	33 d2		 xor	 edx, edx
  00128	0f bf 45 24	 movsx	 eax, WORD PTR _border$[ebp]
  0012c	89 86 6c 01 00
	00		 mov	 DWORD PTR [esi+364], eax
  00132	66 8b 45 28	 mov	 ax, WORD PTR _margin$[ebp]
  00136	c7 45 20 00 00
	00 00		 mov	 DWORD PTR tv498[ebp], 0
  0013d	66 39 45 20	 cmp	 WORD PTR tv498[ebp], ax
  00141	0f b7 c8	 movzx	 ecx, ax

; 323  : 	
; 324  : 	if (mask>0){

  00144	8b 45 1c	 mov	 eax, DWORD PTR _mask$[ebp]
  00147	0f 4e d1	 cmovle	 edx, ecx
  0014a	66 89 96 60 01
	00 00		 mov	 WORD PTR [esi+352], dx
  00151	85 c0		 test	 eax, eax
  00153	0f 84 c3 00 00
	00		 je	 $LN12@SetSkin
; File C:\Program Files (x86)\Microsoft Visual Studio\2019\Community\VC\Tools\MSVC\14.29.30133\atlmfc\include\afxwin1.inl

; 212  : 	{ return Attach(::LoadBitmapW(AfxFindResourceHandle(

  00159	0f b7 c0	 movzx	 eax, ax
  0015c	50		 push	 eax
  0015d	6a 02		 push	 2
  0015f	50		 push	 eax
  00160	e8 00 00 00 00	 call	 ?AfxFindResourceHandle@@YGPAUHINSTANCE__@@PBD0@Z ; AfxFindResourceHandle
  00165	50		 push	 eax
  00166	ff d7		 call	 edi
  00168	50		 push	 eax
  00169	8b cb		 mov	 ecx, ebx
  0016b	e8 00 00 00 00	 call	 ?Attach@CGdiObject@@QAEHPAX@Z ; CGdiObject::Attach
; File D:\git\src\IBK\IBK_DRFN\ProjSrc\SrcDrfn\Chart\comparechart\control\xSkinButton.cpp

; 326  : 		if (hClipRgn) DeleteObject(hClipRgn);

  00170	8b 86 68 01 00
	00		 mov	 eax, DWORD PTR [esi+360]
  00176	85 c0		 test	 eax, eax
  00178	74 07		 je	 SHORT $LN10@SetSkin
  0017a	50		 push	 eax
  0017b	ff 15 00 00 00
	00		 call	 DWORD PTR __imp__DeleteObject@4
$LN10@SetSkin:
; File C:\Program Files (x86)\Microsoft Visual Studio\2019\Community\VC\Tools\MSVC\14.29.30133\atlmfc\include\afxwin1.inl

; 173  : 	{ return (HBITMAP)(this == NULL ? NULL : m_hObject); }

  00181	85 db		 test	 ebx, ebx
  00183	75 04		 jne	 SHORT $LN38@SetSkin
  00185	33 c0		 xor	 eax, eax
  00187	eb 03		 jmp	 SHORT $LN39@SetSkin
$LN38@SetSkin:
  00189	8b 43 04	 mov	 eax, DWORD PTR [ebx+4]
$LN39@SetSkin:
; File D:\git\src\IBK\IBK_DRFN\ProjSrc\SrcDrfn\Chart\comparechart\control\xSkinButton.cpp

; 327  : 		hClipRgn = CreateRgnFromBitmap(m_bMask,RGB(255,255,255));

  0018c	68 ff ff ff 00	 push	 16777215		; 00ffffffH
  00191	50		 push	 eax
  00192	8b ce		 mov	 ecx, esi
  00194	e8 00 00 00 00	 call	 ?CreateRgnFromBitmap@CxSkinButton@@IAEPAUHRGN__@@PAUHBITMAP__@@K@Z ; CxSkinButton::CreateRgnFromBitmap
  00199	89 86 68 01 00
	00		 mov	 DWORD PTR [esi+360], eax

; 328  : 		if (hClipRgn){

  0019f	85 c0		 test	 eax, eax
  001a1	74 28		 je	 SHORT $LN11@SetSkin
; File C:\Program Files (x86)\Microsoft Visual Studio\2019\Community\VC\Tools\MSVC\14.29.30133\atlmfc\include\afxwin2.inl

; 78   : 	{ ASSERT(::IsWindow(m_hWnd)); return ::SetWindowRgn(m_hWnd, hRgn, bRedraw); }

  001a3	6a 01		 push	 1
  001a5	50		 push	 eax
  001a6	ff 76 20	 push	 DWORD PTR [esi+32]
  001a9	ff 15 00 00 00
	00		 call	 DWORD PTR __imp__SetWindowRgn@12

; 100  : 	{ ASSERT(::IsWindow(m_hWnd)); return CDC::FromHandle(::GetDC(m_hWnd)); }

  001af	ff 76 20	 push	 DWORD PTR [esi+32]
  001b2	ff 15 00 00 00
	00		 call	 DWORD PTR __imp__GetDC@4
  001b8	50		 push	 eax
  001b9	e8 00 00 00 00	 call	 ?FromHandle@CDC@@SGPAV1@PAUHDC__@@@Z ; CDC::FromHandle
; File D:\git\src\IBK\IBK_DRFN\ProjSrc\SrcDrfn\Chart\comparechart\control\xSkinButton.cpp

; 330  : 			SelectClipRgn((HDC)GetDC(),hClipRgn);

  001be	ff b6 68 01 00
	00		 push	 DWORD PTR [esi+360]
  001c4	50		 push	 eax
  001c5	ff 15 00 00 00
	00		 call	 DWORD PTR __imp__SelectClipRgn@8
$LN11@SetSkin:

; 331  : 		}
; 332  : 		if (m_DrawMode==0){

  001cb	66 83 be 70 01
	00 00 00	 cmp	 WORD PTR [esi+368], 0
  001d3	75 47		 jne	 SHORT $LN12@SetSkin
; File C:\Program Files (x86)\Microsoft Visual Studio\2019\Community\VC\Tools\MSVC\14.29.30133\atlmfc\include\afxwin1.inl

; 173  : 	{ return (HBITMAP)(this == NULL ? NULL : m_hObject); }

  001d5	8b 3d 00 00 00
	00		 mov	 edi, DWORD PTR __imp__GetObjectA@12
  001db	8d 45 e8	 lea	 eax, DWORD PTR _bm$2[ebp]
  001de	50		 push	 eax
  001df	6a 18		 push	 24			; 00000018H
  001e1	85 db		 test	 ebx, ebx
  001e3	75 0a		 jne	 SHORT $LN46@SetSkin
  001e5	53		 push	 ebx
  001e6	ff d7		 call	 edi
  001e8	8b 5d f0	 mov	 ebx, DWORD PTR _bm$2[ebp+8]
  001eb	33 c0		 xor	 eax, eax
  001ed	eb 11		 jmp	 SHORT $LN53@SetSkin
$LN46@SetSkin:
  001ef	ff 73 04	 push	 DWORD PTR [ebx+4]
  001f2	ff d7		 call	 edi
  001f4	8b 45 f0	 mov	 eax, DWORD PTR _bm$2[ebp+8]
  001f7	89 45 20	 mov	 DWORD PTR $T3[ebp], eax
  001fa	8b 43 04	 mov	 eax, DWORD PTR [ebx+4]
  001fd	8b 5d 20	 mov	 ebx, DWORD PTR $T3[ebp]
$LN53@SetSkin:
; File D:\git\src\IBK\IBK_DRFN\ProjSrc\SrcDrfn\Chart\comparechart\control\xSkinButton.cpp

; 180  : { BITMAP bm; GetObject(hBitmap,sizeof(BITMAP),(PSTR)&bm); return bm.bmWidth;}

  00200	8d 4d d0	 lea	 ecx, DWORD PTR _bm$1[ebp]
  00203	51		 push	 ecx
  00204	6a 18		 push	 24			; 00000018H
  00206	50		 push	 eax
  00207	ff d7		 call	 edi

; 333  : 			SetWindowPos(NULL,0,0,GetBitmapWidth(m_bMask),

  00209	6a 06		 push	 6
  0020b	53		 push	 ebx
  0020c	ff 75 d4	 push	 DWORD PTR _bm$1[ebp+4]
  0020f	8b ce		 mov	 ecx, esi
  00211	6a 00		 push	 0
  00213	6a 00		 push	 0
  00215	6a 00		 push	 0
  00217	e8 00 00 00 00	 call	 ?SetWindowPos@CWnd@@QAEHPBV1@HHHHI@Z ; CWnd::SetWindowPos
$LN12@SetSkin:

; 334  : 						GetBitmapHeight(m_bMask),SWP_NOZORDER|SWP_NOMOVE);
; 335  : 		}
; 336  : 	}
; 337  : }

  0021c	5f		 pop	 edi
  0021d	5e		 pop	 esi
  0021e	5b		 pop	 ebx
  0021f	8b e5		 mov	 esp, ebp
  00221	5d		 pop	 ebp
  00222	c2 24 00	 ret	 36			; 00000024H
?SetSkin@CxSkinButton@@QAEXIIIIIIFFF@Z ENDP		; CxSkinButton::SetSkin
_TEXT	ENDS
; Function compile flags: /Ogtp
; File D:\git\src\IBK\IBK_DRFN\ProjSrc\SrcDrfn\Chart\comparechart\control\xSkinButton.cpp
;	COMDAT ?SetTextColor@CxSkinButton@@QAEKK@Z
_TEXT	SEGMENT
_new_color$ = 8						; size = 4
?SetTextColor@CxSkinButton@@QAEKK@Z PROC		; CxSkinButton::SetTextColor, COMDAT
; _this$ = ecx

; 415  : {

  00000	55		 push	 ebp
  00001	8b ec		 mov	 ebp, esp

; 416  : 	COLORREF tmp_color=m_TextColor;

  00003	8b 81 64 01 00
	00		 mov	 eax, DWORD PTR [ecx+356]

; 417  : 	m_TextColor=new_color;

  00009	8b 55 08	 mov	 edx, DWORD PTR _new_color$[ebp]
  0000c	89 91 64 01 00
	00		 mov	 DWORD PTR [ecx+356], edx

; 418  : 	return tmp_color;			//returns the previous color
; 419  : }

  00012	5d		 pop	 ebp
  00013	c2 04 00	 ret	 4
?SetTextColor@CxSkinButton@@QAEKK@Z ENDP		; CxSkinButton::SetTextColor
_TEXT	ENDS
; Function compile flags: /Ogtp
; File D:\git\src\IBK\IBK_DRFN\ProjSrc\SrcDrfn\Chart\comparechart\control\xSkinButton.cpp
; File C:\Program Files (x86)\Microsoft Visual Studio\2019\Community\VC\Tools\MSVC\14.29.30133\atlmfc\include\afxcmn.inl
; File D:\git\src\IBK\IBK_DRFN\ProjSrc\SrcDrfn\Chart\comparechart\control\xSkinButton.cpp
;	COMDAT ?SetToolTipText@CxSkinButton@@QAEXV?$CStringT@DV?$StrTraitMFC_DLL@DV?$ChTraitsCRT@D@ATL@@@@@ATL@@@Z
_TEXT	SEGMENT
__$EHRec$ = -12						; size = 12
_s$ = 8							; size = 4
?SetToolTipText@CxSkinButton@@QAEXV?$CStringT@DV?$StrTraitMFC_DLL@DV?$ChTraitsCRT@D@ATL@@@@@ATL@@@Z PROC ; CxSkinButton::SetToolTipText, COMDAT
; _this$ = ecx

; 422  : {

  00000	55		 push	 ebp
  00001	8b ec		 mov	 ebp, esp
  00003	6a ff		 push	 -1
  00005	68 00 00 00 00	 push	 __ehhandler$?SetToolTipText@CxSkinButton@@QAEXV?$CStringT@DV?$StrTraitMFC_DLL@DV?$ChTraitsCRT@D@ATL@@@@@ATL@@@Z
  0000a	64 a1 00 00 00
	00		 mov	 eax, DWORD PTR fs:0
  00010	50		 push	 eax
  00011	56		 push	 esi
  00012	57		 push	 edi
  00013	a1 00 00 00 00	 mov	 eax, DWORD PTR ___security_cookie
  00018	33 c5		 xor	 eax, ebp
  0001a	50		 push	 eax
  0001b	8d 45 f4	 lea	 eax, DWORD PTR __$EHRec$[ebp]
  0001e	64 a3 00 00 00
	00		 mov	 DWORD PTR fs:0, eax
  00024	8b f1		 mov	 esi, ecx

; 423  : 	if(m_tooltip.m_hWnd==NULL){

  00026	83 be b0 00 00
	00 00		 cmp	 DWORD PTR [esi+176], 0
  0002d	8d 8e 90 00 00
	00		 lea	 ecx, DWORD PTR [esi+144]
  00033	6a 00		 push	 0
  00035	c7 45 fc 00 00
	00 00		 mov	 DWORD PTR __$EHRec$[ebp+8], 0
  0003c	56		 push	 esi
  0003d	75 3e		 jne	 SHORT $LN2@SetToolTip

; 424  : 		if(m_tooltip.Create(this))	//first assignment

  0003f	8b 86 90 00 00
	00		 mov	 eax, DWORD PTR [esi+144]
  00045	ff 90 6c 01 00
	00		 call	 DWORD PTR [eax+364]
  0004b	85 c0		 test	 eax, eax
  0004d	74 36		 je	 SHORT $LN3@SetToolTip

; 425  : 			if(m_tooltip.AddTool(this, (LPCTSTR)s))

  0004f	6a 00		 push	 0
  00051	6a 00		 push	 0
  00053	ff 75 08	 push	 DWORD PTR _s$[ebp]
  00056	8d 8e 90 00 00
	00		 lea	 ecx, DWORD PTR [esi+144]
  0005c	56		 push	 esi
  0005d	e8 00 00 00 00	 call	 ?AddTool@CToolTipCtrl@@QAEHPAVCWnd@@PBDPBUtagRECT@@I@Z ; CToolTipCtrl::AddTool
  00062	85 c0		 test	 eax, eax
  00064	74 1f		 je	 SHORT $LN3@SetToolTip
; File C:\Program Files (x86)\Microsoft Visual Studio\2019\Community\VC\Tools\MSVC\14.29.30133\atlmfc\include\afxcmn.inl

; 425  : 	{ ASSERT(::IsWindow(m_hWnd));  ::SendMessage(m_hWnd, TTM_ACTIVATE, bActivate, 0L); }

  00066	6a 00		 push	 0
  00068	6a 01		 push	 1
  0006a	68 01 04 00 00	 push	 1025			; 00000401H
  0006f	ff b6 b0 00 00
	00		 push	 DWORD PTR [esi+176]
  00075	ff 15 00 00 00
	00		 call	 DWORD PTR __imp__SendMessageA@16
; File D:\git\src\IBK\IBK_DRFN\ProjSrc\SrcDrfn\Chart\comparechart\control\xSkinButton.cpp

; 427  : 	} else {

  0007b	eb 08		 jmp	 SHORT $LN3@SetToolTip
$LN2@SetToolTip:

; 428  : 		m_tooltip.UpdateTipText((LPCTSTR)s,this);

  0007d	ff 75 08	 push	 DWORD PTR _s$[ebp]
  00080	e8 00 00 00 00	 call	 ?UpdateTipText@CToolTipCtrl@@QAEXPBDPAVCWnd@@I@Z ; CToolTipCtrl::UpdateTipText
$LN3@SetToolTip:

; 429  : 	}
; 430  : }

  00085	8d 4d 08	 lea	 ecx, DWORD PTR _s$[ebp]
  00088	ff 15 00 00 00
	00		 call	 DWORD PTR __imp_??1?$CStringT@DV?$StrTraitMFC_DLL@DV?$ChTraitsCRT@D@ATL@@@@@ATL@@QAE@XZ
  0008e	8b 4d f4	 mov	 ecx, DWORD PTR __$EHRec$[ebp]
  00091	64 89 0d 00 00
	00 00		 mov	 DWORD PTR fs:0, ecx
  00098	59		 pop	 ecx
  00099	5f		 pop	 edi
  0009a	5e		 pop	 esi
  0009b	8b e5		 mov	 esp, ebp
  0009d	5d		 pop	 ebp
  0009e	c2 04 00	 ret	 4
_TEXT	ENDS
;	COMDAT text$x
text$x	SEGMENT
__unwindfunclet$?SetToolTipText@CxSkinButton@@QAEXV?$CStringT@DV?$StrTraitMFC_DLL@DV?$ChTraitsCRT@D@ATL@@@@@ATL@@@Z$0:
  00000	8d 4d 08	 lea	 ecx, DWORD PTR _s$[ebp]
  00003	ff 25 00 00 00
	00		 jmp	 DWORD PTR __imp_??1?$CStringT@DV?$StrTraitMFC_DLL@DV?$ChTraitsCRT@D@ATL@@@@@ATL@@QAE@XZ
  00009	cc		 int	 3
  0000a	cc		 int	 3
  0000b	cc		 int	 3
  0000c	cc		 int	 3
  0000d	cc		 int	 3
__ehhandler$?SetToolTipText@CxSkinButton@@QAEXV?$CStringT@DV?$StrTraitMFC_DLL@DV?$ChTraitsCRT@D@ATL@@@@@ATL@@@Z:
  0000e	90		 npad	 1
  0000f	90		 npad	 1
  00010	8b 54 24 08	 mov	 edx, DWORD PTR [esp+8]
  00014	8d 42 0c	 lea	 eax, DWORD PTR [edx+12]
  00017	8b 4a f4	 mov	 ecx, DWORD PTR [edx-12]
  0001a	33 c8		 xor	 ecx, eax
  0001c	e8 00 00 00 00	 call	 @__security_check_cookie@4
  00021	b8 00 00 00 00	 mov	 eax, OFFSET __ehfuncinfo$?SetToolTipText@CxSkinButton@@QAEXV?$CStringT@DV?$StrTraitMFC_DLL@DV?$ChTraitsCRT@D@ATL@@@@@ATL@@@Z
  00026	e9 00 00 00 00	 jmp	 ___CxxFrameHandler3
text$x	ENDS
?SetToolTipText@CxSkinButton@@QAEXV?$CStringT@DV?$StrTraitMFC_DLL@DV?$ChTraitsCRT@D@ATL@@@@@ATL@@@Z ENDP ; CxSkinButton::SetToolTipText
; Function compile flags: /Ogtp
; File D:\git\src\IBK\IBK_DRFN\ProjSrc\SrcDrfn\Chart\comparechart\control\xSkinButton.cpp
; File C:\Program Files (x86)\Microsoft Visual Studio\2019\Community\VC\Tools\MSVC\14.29.30133\atlmfc\include\afxwin2.inl
; File D:\git\src\IBK\IBK_DRFN\ProjSrc\SrcDrfn\Chart\comparechart\control\xSkinButton.cpp
;	COMDAT ?PreSubclassWindow@CxSkinButton@@MAEXXZ
_TEXT	SEGMENT
?PreSubclassWindow@CxSkinButton@@MAEXXZ PROC		; CxSkinButton::PreSubclassWindow, COMDAT
; _this$ = ecx

; 70   : {

  00000	56		 push	 esi
  00001	8b f1		 mov	 esi, ecx
; File C:\Program Files (x86)\Microsoft Visual Studio\2019\Community\VC\Tools\MSVC\14.29.30133\atlmfc\include\afxwin2.inl

; 632  : 	{ ASSERT(::IsWindow(m_hWnd)); return (UINT)GetWindowLong(m_hWnd, GWL_STYLE) & 0xFFFF; }

  00003	6a f0		 push	 -16			; fffffff0H
  00005	ff 76 20	 push	 DWORD PTR [esi+32]
  00008	ff 15 00 00 00
	00		 call	 DWORD PTR __imp__GetWindowLongA@8
  0000e	0f b7 c8	 movzx	 ecx, ax
; File D:\git\src\IBK\IBK_DRFN\ProjSrc\SrcDrfn\Chart\comparechart\control\xSkinButton.cpp

; 72   : 	if ((m_Style & BS_AUTOCHECKBOX)==BS_AUTOCHECKBOX)

  00011	8b c1		 mov	 eax, ecx
  00013	83 e0 03	 and	 eax, 3
  00016	3c 03		 cmp	 al, 3
  00018	75 0c		 jne	 SHORT $LN2@PreSubclas

; 73   : //		||((m_Style & BS_CHECKBOX)==BS_CHECKBOX))
; 74   : 		m_Style=BS_CHECKBOX;

  0001a	c7 86 84 00 00
	00 02 00 00 00	 mov	 DWORD PTR [esi+132], 2
  00024	eb 16		 jmp	 SHORT $LN4@PreSubclas
$LN2@PreSubclas:

; 75   : 	else if ((m_Style & BS_AUTORADIOBUTTON)==BS_AUTORADIOBUTTON)

  00026	80 e1 09	 and	 cl, 9
  00029	33 c0		 xor	 eax, eax
  0002b	80 f9 09	 cmp	 cl, 9
  0002e	ba 04 00 00 00	 mov	 edx, 4
  00033	0f 44 c2	 cmove	 eax, edx
  00036	89 86 84 00 00
	00		 mov	 DWORD PTR [esi+132], eax
$LN4@PreSubclas:

; 76   : //			||((m_Style & BS_RADIOBUTTON)==BS_RADIOBUTTON))
; 77   : 		m_Style=BS_RADIOBUTTON;
; 78   : 	else { m_Style=BS_PUSHBUTTON; }
; 79   : 
; 80   : 	CButton::PreSubclassWindow();

  0003c	8b ce		 mov	 ecx, esi
  0003e	e8 00 00 00 00	 call	 ?PreSubclassWindow@CWnd@@UAEXXZ ; CWnd::PreSubclassWindow

; 81   : 	ModifyStyle(0, BS_OWNERDRAW);

  00043	6a 00		 push	 0
  00045	6a 0b		 push	 11			; 0000000bH
  00047	6a 00		 push	 0
  00049	8b ce		 mov	 ecx, esi
  0004b	e8 00 00 00 00	 call	 ?ModifyStyle@CWnd@@QAEHKKI@Z ; CWnd::ModifyStyle
  00050	5e		 pop	 esi

; 82   : }

  00051	c3		 ret	 0
?PreSubclassWindow@CxSkinButton@@MAEXXZ ENDP		; CxSkinButton::PreSubclassWindow
_TEXT	ENDS
; Function compile flags: /Ogtp
; File D:\git\src\IBK\IBK_DRFN\ProjSrc\SrcDrfn\Chart\comparechart\control\xSkinButton.cpp
; File C:\Program Files (x86)\Microsoft Visual Studio\2019\Community\VC\Tools\MSVC\14.29.30133\atlmfc\include\afxwin2.inl
; File D:\git\src\IBK\IBK_DRFN\ProjSrc\SrcDrfn\Chart\comparechart\control\xSkinButton.cpp
; File C:\Program Files (x86)\Microsoft Visual Studio\2019\Community\VC\Tools\MSVC\14.29.30133\atlmfc\include\afxwin2.inl
; File D:\git\src\IBK\IBK_DRFN\ProjSrc\SrcDrfn\Chart\comparechart\control\xSkinButton.cpp
; File C:\Program Files (x86)\Microsoft Visual Studio\2019\Community\VC\Tools\MSVC\14.29.30133\atlmfc\include\afxwin2.inl
; File D:\git\src\IBK\IBK_DRFN\ProjSrc\SrcDrfn\Chart\comparechart\control\xSkinButton.cpp
; File C:\Program Files (x86)\Microsoft Visual Studio\2019\Community\VC\Tools\MSVC\14.29.30133\atlmfc\include\afxwin2.inl
; File D:\git\src\IBK\IBK_DRFN\ProjSrc\SrcDrfn\Chart\comparechart\control\xSkinButton.cpp
; File C:\Program Files (x86)\Microsoft Visual Studio\2019\Community\VC\Tools\MSVC\14.29.30133\atlmfc\include\afxwin1.inl
; File D:\git\src\IBK\IBK_DRFN\ProjSrc\SrcDrfn\Chart\comparechart\control\xSkinButton.cpp
; File C:\Program Files (x86)\Microsoft Visual Studio\2019\Community\VC\Tools\MSVC\14.29.30133\atlmfc\include\afxwin1.inl
; File D:\git\src\IBK\IBK_DRFN\ProjSrc\SrcDrfn\Chart\comparechart\control\xSkinButton.cpp
; File C:\Program Files (x86)\Microsoft Visual Studio\2019\Community\VC\Tools\MSVC\14.29.30133\atlmfc\include\afxwin1.inl
; File D:\git\src\IBK\IBK_DRFN\ProjSrc\SrcDrfn\Chart\comparechart\control\xSkinButton.cpp
; File C:\Program Files (x86)\Microsoft Visual Studio\2019\Community\VC\Tools\MSVC\14.29.30133\atlmfc\include\afxwin1.inl
; File D:\git\src\IBK\IBK_DRFN\ProjSrc\SrcDrfn\Chart\comparechart\control\xSkinButton.cpp
; File C:\Program Files (x86)\Microsoft Visual Studio\2019\Community\VC\Tools\MSVC\14.29.30133\atlmfc\include\afxwin1.inl
; File D:\git\src\IBK\IBK_DRFN\ProjSrc\SrcDrfn\Chart\comparechart\control\xSkinButton.cpp
; File C:\Program Files (x86)\Microsoft Visual Studio\2019\Community\VC\Tools\MSVC\14.29.30133\atlmfc\include\afxwin1.inl
; File D:\git\src\IBK\IBK_DRFN\ProjSrc\SrcDrfn\Chart\comparechart\control\xSkinButton.cpp
; File C:\Program Files (x86)\Microsoft Visual Studio\2019\Community\VC\Tools\MSVC\14.29.30133\atlmfc\include\afxwin1.inl
; File D:\git\src\IBK\IBK_DRFN\ProjSrc\SrcDrfn\Chart\comparechart\control\xSkinButton.cpp
; File C:\Program Files (x86)\Microsoft Visual Studio\2019\Community\VC\Tools\MSVC\14.29.30133\atlmfc\include\afxwin1.inl
; File D:\git\src\IBK\IBK_DRFN\ProjSrc\SrcDrfn\Chart\comparechart\control\xSkinButton.cpp
; File C:\Program Files (x86)\Microsoft Visual Studio\2019\Community\VC\Tools\MSVC\14.29.30133\atlmfc\include\afxwin1.inl
; File D:\git\src\IBK\IBK_DRFN\ProjSrc\SrcDrfn\Chart\comparechart\control\xSkinButton.cpp
;	COMDAT ?DrawItem@CxSkinButton@@UAEXPAUtagDRAWITEMSTRUCT@@@Z
_TEXT	SEGMENT
_mouse_position$ = -64					; size = 8
_lpDrawItemStruct$GSCopy$1$ = -56			; size = 4
_sCaption$ = -52					; size = 4
_tr$ = -48						; size = 16
_r$ = -32						; size = 16
__$ArrayPad$ = -16					; size = 4
__$EHRec$ = -12						; size = 12
_lpDrawItemStruct$ = 8					; size = 4
?DrawItem@CxSkinButton@@UAEXPAUtagDRAWITEMSTRUCT@@@Z PROC ; CxSkinButton::DrawItem, COMDAT
; _this$ = ecx

; 88   : {

  00000	55		 push	 ebp
  00001	8b ec		 mov	 ebp, esp
  00003	6a ff		 push	 -1
  00005	68 00 00 00 00	 push	 __ehhandler$?DrawItem@CxSkinButton@@UAEXPAUtagDRAWITEMSTRUCT@@@Z
  0000a	64 a1 00 00 00
	00		 mov	 eax, DWORD PTR fs:0
  00010	50		 push	 eax
  00011	83 ec 34	 sub	 esp, 52			; 00000034H
  00014	a1 00 00 00 00	 mov	 eax, DWORD PTR ___security_cookie
  00019	33 c5		 xor	 eax, ebp
  0001b	89 45 f0	 mov	 DWORD PTR __$ArrayPad$[ebp], eax
  0001e	56		 push	 esi
  0001f	57		 push	 edi
  00020	50		 push	 eax
  00021	8d 45 f4	 lea	 eax, DWORD PTR __$EHRec$[ebp]
  00024	64 a3 00 00 00
	00		 mov	 DWORD PTR fs:0, eax
  0002a	8b f1		 mov	 esi, ecx

; 89   :     ASSERT (lpDrawItemStruct);
; 90   :     //TRACE("* Captured: %08X\n", ::GetCapture());
; 91   : 
; 92   :     //Check if the button state in not in inconsistent mode...
; 93   :     POINT mouse_position;
; 94   :     if ((m_button_down) && (::GetCapture() == m_hWnd) && (::GetCursorPos(&mouse_position))){

  0002c	80 be 89 00 00
	00 00		 cmp	 BYTE PTR [esi+137], 0
  00033	8b 45 08	 mov	 eax, DWORD PTR _lpDrawItemStruct$[ebp]
  00036	89 45 c8	 mov	 DWORD PTR _lpDrawItemStruct$GSCopy$1$[ebp], eax
  00039	74 6e		 je	 SHORT $LN6@DrawItem
  0003b	ff 15 00 00 00
	00		 call	 DWORD PTR __imp__GetCapture@0
  00041	3b 46 20	 cmp	 eax, DWORD PTR [esi+32]
  00044	75 63		 jne	 SHORT $LN6@DrawItem
  00046	8d 45 c0	 lea	 eax, DWORD PTR _mouse_position$[ebp]
  00049	50		 push	 eax
  0004a	ff 15 00 00 00
	00		 call	 DWORD PTR __imp__GetCursorPos@4
  00050	85 c0		 test	 eax, eax
  00052	74 55		 je	 SHORT $LN6@DrawItem

; 95   : 		if (::WindowFromPoint(mouse_position) == m_hWnd){

  00054	ff 75 c4	 push	 DWORD PTR _mouse_position$[ebp+4]
  00057	ff 75 c0	 push	 DWORD PTR _mouse_position$[ebp]
  0005a	ff 15 00 00 00
	00		 call	 DWORD PTR __imp__WindowFromPoint@8
  00060	8b 4e 20	 mov	 ecx, DWORD PTR [esi+32]
  00063	8b 3d 00 00 00
	00		 mov	 edi, DWORD PTR __imp__SendMessageA@16
  00069	6a 00		 push	 0
  0006b	6a 00		 push	 0
  0006d	68 f2 00 00 00	 push	 242			; 000000f2H
  00072	51		 push	 ecx
  00073	3b c1		 cmp	 eax, ecx
  00075	75 19		 jne	 SHORT $LN3@DrawItem
; File C:\Program Files (x86)\Microsoft Visual Studio\2019\Community\VC\Tools\MSVC\14.29.30133\atlmfc\include\afxwin2.inl

; 624  : 	{ ASSERT(::IsWindow(m_hWnd)); return (UINT)::SendMessage(m_hWnd, BM_GETSTATE, 0, 0); }

  00077	ff d7		 call	 edi
; File D:\git\src\IBK\IBK_DRFN\ProjSrc\SrcDrfn\Chart\comparechart\control\xSkinButton.cpp

; 96   : 			if ((GetState() & BST_PUSHED) != BST_PUSHED) {

  00079	a8 04		 test	 al, 4
  0007b	75 2c		 jne	 SHORT $LN6@DrawItem
; File C:\Program Files (x86)\Microsoft Visual Studio\2019\Community\VC\Tools\MSVC\14.29.30133\atlmfc\include\afxwin2.inl

; 626  : 	{ ::SendMessage(m_hWnd, BM_SETSTATE, bHighlight, 0); }

  0007d	6a 00		 push	 0
  0007f	6a 01		 push	 1
  00081	68 f3 00 00 00	 push	 243			; 000000f3H
  00086	ff 76 20	 push	 DWORD PTR [esi+32]
  00089	ff d7		 call	 edi
; File D:\git\src\IBK\IBK_DRFN\ProjSrc\SrcDrfn\Chart\comparechart\control\xSkinButton.cpp

; 99   : 				return;

  0008b	e9 d9 02 00 00	 jmp	 $LN1@DrawItem
$LN3@DrawItem:
; File C:\Program Files (x86)\Microsoft Visual Studio\2019\Community\VC\Tools\MSVC\14.29.30133\atlmfc\include\afxwin2.inl

; 624  : 	{ ASSERT(::IsWindow(m_hWnd)); return (UINT)::SendMessage(m_hWnd, BM_GETSTATE, 0, 0); }

  00090	ff d7		 call	 edi
; File D:\git\src\IBK\IBK_DRFN\ProjSrc\SrcDrfn\Chart\comparechart\control\xSkinButton.cpp

; 102  : 			if ((GetState() & BST_PUSHED) == BST_PUSHED) {

  00092	a8 04		 test	 al, 4
  00094	74 13		 je	 SHORT $LN6@DrawItem
; File C:\Program Files (x86)\Microsoft Visual Studio\2019\Community\VC\Tools\MSVC\14.29.30133\atlmfc\include\afxwin2.inl

; 626  : 	{ ::SendMessage(m_hWnd, BM_SETSTATE, bHighlight, 0); }

  00096	6a 00		 push	 0
  00098	6a 00		 push	 0
  0009a	68 f3 00 00 00	 push	 243			; 000000f3H
  0009f	ff 76 20	 push	 DWORD PTR [esi+32]
  000a2	ff d7		 call	 edi
; File D:\git\src\IBK\IBK_DRFN\ProjSrc\SrcDrfn\Chart\comparechart\control\xSkinButton.cpp

; 105  : 				return;

  000a4	e9 c0 02 00 00	 jmp	 $LN1@DrawItem
$LN6@DrawItem:

; 106  : 			}
; 107  : 		}
; 108  : 	}
; 109  : 	
; 110  :     //TRACE("* Drawing: %08x\n", lpDrawItemStruct->itemState);
; 111  : 	CString sCaption;

  000a9	8d 4d cc	 lea	 ecx, DWORD PTR _sCaption$[ebp]
  000ac	ff 15 00 00 00
	00		 call	 DWORD PTR __imp_??0?$CStringT@DV?$StrTraitMFC_DLL@DV?$ChTraitsCRT@D@ATL@@@@@ATL@@QAE@XZ

; 112  : 	CDC *pDC = CDC::FromHandle(lpDrawItemStruct->hDC);	// get device context

  000b2	8b 45 c8	 mov	 eax, DWORD PTR _lpDrawItemStruct$GSCopy$1$[ebp]
  000b5	c7 45 fc 00 00
	00 00		 mov	 DWORD PTR __$EHRec$[ebp+8], 0
  000bc	ff 70 18	 push	 DWORD PTR [eax+24]
  000bf	e8 00 00 00 00	 call	 ?FromHandle@CDC@@SGPAV1@PAUHDC__@@@Z ; CDC::FromHandle

; 113  : 	RECT r=lpDrawItemStruct->rcItem;					// context rectangle
; 114  : 	int cx = r.right  - r.left ;						// get width
; 115  : 	int cy = r.bottom - r.top  ;						// get height
; 116  : 	// get text box position
; 117  : 	RECT tr={r.left+m_FocusRectMargin+2,r.top,r.right-m_FocusRectMargin-2,r.bottom};

  000c4	0f bf 96 60 01
	00 00		 movsx	 edx, WORD PTR [esi+352]
  000cb	8b f8		 mov	 edi, eax
  000cd	8b 45 c8	 mov	 eax, DWORD PTR _lpDrawItemStruct$GSCopy$1$[ebp]
  000d0	0f 10 48 1c	 movups	 xmm1, XMMWORD PTR [eax+28]
  000d4	66 0f 7e c9	 movd	 ecx, xmm1
  000d8	0f 28 c1	 movaps	 xmm0, xmm1
  000db	0f 11 4d e0	 movups	 XMMWORD PTR _r$[ebp], xmm1
  000df	66 0f 73 d8 04	 psrldq	 xmm0, 4
  000e4	66 0f 7e 45 e4	 movd	 DWORD PTR _r$[ebp+4], xmm0
  000e9	66 0f 7e 45 d4	 movd	 DWORD PTR _tr$[ebp+4], xmm0
  000ee	0f 28 c1	 movaps	 xmm0, xmm1
  000f1	8d 41 02	 lea	 eax, DWORD PTR [ecx+2]
  000f4	66 0f 73 d8 08	 psrldq	 xmm0, 8
  000f9	03 c2		 add	 eax, edx
  000fb	66 0f 73 d9 0c	 psrldq	 xmm1, 12		; 0000000cH
  00100	89 45 d0	 mov	 DWORD PTR _tr$[ebp], eax
  00103	66 0f 7e c0	 movd	 eax, xmm0
  00107	89 4d e0	 mov	 DWORD PTR _r$[ebp], ecx

; 118  : 
; 119  : 	GetWindowText(sCaption);							// get button text

  0010a	8b ce		 mov	 ecx, esi
  0010c	66 0f 7e 4d ec	 movd	 DWORD PTR _r$[ebp+12], xmm1
  00111	89 45 e8	 mov	 DWORD PTR _r$[ebp+8], eax
  00114	2b c2		 sub	 eax, edx
  00116	83 e8 02	 sub	 eax, 2
  00119	66 0f 7e 4d dc	 movd	 DWORD PTR _tr$[ebp+12], xmm1
  0011e	89 45 d8	 mov	 DWORD PTR _tr$[ebp+8], eax
  00121	8d 45 cc	 lea	 eax, DWORD PTR _sCaption$[ebp]
  00124	50		 push	 eax
  00125	e8 00 00 00 00	 call	 ?GetWindowTextA@CWnd@@QBEXAAV?$CStringT@DV?$StrTraitMFC_DLL@DV?$ChTraitsCRT@D@ATL@@@@@ATL@@@Z ; CWnd::GetWindowTextA

; 120  : 	pDC->SetBkMode(TRANSPARENT);

  0012a	6a 01		 push	 1
  0012c	8b cf		 mov	 ecx, edi
  0012e	e8 00 00 00 00	 call	 ?SetBkMode@CDC@@QAEHH@Z	; CDC::SetBkMode

; 121  : 
; 122  : 	// Select the correct skin 
; 123  : 	if (lpDrawItemStruct->itemState & ODS_DISABLED){	// DISABLED BUTTON

  00133	8b 45 c8	 mov	 eax, DWORD PTR _lpDrawItemStruct$GSCopy$1$[ebp]
  00136	8b 40 10	 mov	 eax, DWORD PTR [eax+16]
  00139	a8 04		 test	 al, 4
  0013b	0f 84 ae 00 00
	00		 je	 $LN7@DrawItem

; 124  : 		if(m_bDisabled.m_hObject==NULL)

  00141	83 be 44 01 00
	00 00		 cmp	 DWORD PTR [esi+324], 0
  00148	75 16		 jne	 SHORT $LN9@DrawItem

; 125  : 			 // no skin selected for disabled state -> standard button
; 126  : 			pDC->FillSolidRect(&r,GetSysColor(COLOR_BTNFACE));

  0014a	6a 0f		 push	 15			; 0000000fH
  0014c	ff 15 00 00 00
	00		 call	 DWORD PTR __imp__GetSysColor@4
  00152	50		 push	 eax
  00153	8d 45 e0	 lea	 eax, DWORD PTR _r$[ebp]
  00156	8b cf		 mov	 ecx, edi
  00158	50		 push	 eax
  00159	e8 00 00 00 00	 call	 ?FillSolidRect@CDC@@QAEXPBUtagRECT@@K@Z ; CDC::FillSolidRect
  0015e	eb 2e		 jmp	 SHORT $LN10@DrawItem
$LN9@DrawItem:

; 128  : 			DrawBitmap(pDC,(HBITMAP)m_bDisabled,r,m_DrawMode);

  00160	8d 86 40 01 00
	00		 lea	 eax, DWORD PTR [esi+320]
; File C:\Program Files (x86)\Microsoft Visual Studio\2019\Community\VC\Tools\MSVC\14.29.30133\atlmfc\include\afxwin1.inl

; 173  : 	{ return (HBITMAP)(this == NULL ? NULL : m_hObject); }

  00166	85 c0		 test	 eax, eax
  00168	75 04		 jne	 SHORT $LN38@DrawItem
  0016a	33 c9		 xor	 ecx, ecx
  0016c	eb 03		 jmp	 SHORT $LN39@DrawItem
$LN38@DrawItem:
  0016e	8b 48 04	 mov	 ecx, DWORD PTR [eax+4]
$LN39@DrawItem:
; File D:\git\src\IBK\IBK_DRFN\ProjSrc\SrcDrfn\Chart\comparechart\control\xSkinButton.cpp

; 128  : 			DrawBitmap(pDC,(HBITMAP)m_bDisabled,r,m_DrawMode);

  00171	0f bf 86 70 01
	00 00		 movsx	 eax, WORD PTR [esi+368]
  00178	0f 10 45 e0	 movups	 xmm0, XMMWORD PTR _r$[ebp]
  0017c	50		 push	 eax
  0017d	83 ec 10	 sub	 esp, 16			; 00000010H
  00180	8b c4		 mov	 eax, esp
  00182	51		 push	 ecx
  00183	57		 push	 edi
  00184	8b ce		 mov	 ecx, esi
  00186	0f 11 00	 movups	 XMMWORD PTR [eax], xmm0
  00189	e8 00 00 00 00	 call	 ?DrawBitmap@CxSkinButton@@IAEXPAVCDC@@PAUHBITMAP__@@UtagRECT@@H@Z ; CxSkinButton::DrawBitmap
$LN10@DrawItem:

; 129  : 		// if needed, draw the standard 3D rectangular border
; 130  : 		if (m_Border) pDC->DrawEdge(&r,EDGE_RAISED,BF_RECT);

  0018e	83 be 6c 01 00
	00 00		 cmp	 DWORD PTR [esi+364], 0
  00195	74 11		 je	 SHORT $LN11@DrawItem
; File C:\Program Files (x86)\Microsoft Visual Studio\2019\Community\VC\Tools\MSVC\14.29.30133\atlmfc\include\afxwin1.inl

; 510  : 	{ ASSERT(m_hDC != NULL); return ::DrawEdge(m_hDC, lpRect, nEdge, nFlags); }

  00197	6a 0f		 push	 15			; 0000000fH
  00199	6a 05		 push	 5
  0019b	8d 45 e0	 lea	 eax, DWORD PTR _r$[ebp]
  0019e	50		 push	 eax
  0019f	ff 77 04	 push	 DWORD PTR [edi+4]
  001a2	ff 15 00 00 00
	00		 call	 DWORD PTR __imp__DrawEdge@16
$LN11@DrawItem:
; File D:\git\src\IBK\IBK_DRFN\ProjSrc\SrcDrfn\Chart\comparechart\control\xSkinButton.cpp

; 132  : 		pDC->SetTextColor(GetSysColor(COLOR_3DHILIGHT));

  001a8	8b 37		 mov	 esi, DWORD PTR [edi]
  001aa	6a 14		 push	 20			; 00000014H
  001ac	ff 15 00 00 00
	00		 call	 DWORD PTR __imp__GetSysColor@4
  001b2	50		 push	 eax
  001b3	8b cf		 mov	 ecx, edi
  001b5	ff 56 38	 call	 DWORD PTR [esi+56]
; File C:\Program Files (x86)\Microsoft Visual Studio\2019\Community\VC\Tools\MSVC\14.29.30133\atlmfc\include\afxwin1.inl

; 600  : 		return _AFX_FUNCNAME(DrawText)((LPCTSTR)str, (int)str.GetLength(), lpRect, nFormat); }

  001b8	8b 17		 mov	 edx, DWORD PTR [edi]
  001ba	8d 45 d0	 lea	 eax, DWORD PTR _tr$[ebp]
  001bd	6a 25		 push	 37			; 00000025H
  001bf	50		 push	 eax
  001c0	8b 45 cc	 mov	 eax, DWORD PTR _sCaption$[ebp]
  001c3	8b cf		 mov	 ecx, edi
  001c5	ff 70 f4	 push	 DWORD PTR [eax-12]
  001c8	50		 push	 eax
  001c9	ff 52 70	 call	 DWORD PTR [edx+112]
; File D:\git\src\IBK\IBK_DRFN\ProjSrc\SrcDrfn\Chart\comparechart\control\xSkinButton.cpp

; 134  : 		pDC->SetTextColor(GetSysColor(COLOR_GRAYTEXT));

  001cc	8b 37		 mov	 esi, DWORD PTR [edi]
  001ce	6a 11		 push	 17			; 00000011H
  001d0	ff 15 00 00 00
	00		 call	 DWORD PTR __imp__GetSysColor@4
  001d6	50		 push	 eax
  001d7	8b cf		 mov	 ecx, edi
  001d9	ff 56 38	 call	 DWORD PTR [esi+56]

; 135  : 		OffsetRect(&tr,-1,-1);

  001dc	6a ff		 push	 -1
  001de	6a ff		 push	 -1
  001e0	8d 45 d0	 lea	 eax, DWORD PTR _tr$[ebp]
  001e3	50		 push	 eax
  001e4	ff 15 00 00 00
	00		 call	 DWORD PTR __imp__OffsetRect@12

; 136  : 		pDC->DrawText(sCaption,&tr,DT_SINGLELINE|DT_VCENTER|DT_CENTER);
; 137  : 	} else {										// SELECTED (DOWN) BUTTON

  001ea	e9 5d 01 00 00	 jmp	 $LN87@DrawItem
$LN7@DrawItem:

; 138  : 		if ((lpDrawItemStruct->itemState & ODS_SELECTED)||m_Checked){

  001ef	a8 01		 test	 al, 1
  001f1	0f 85 a4 00 00
	00		 jne	 $LN14@DrawItem
  001f7	80 be 80 00 00
	00 00		 cmp	 BYTE PTR [esi+128], 0
  001fe	0f 85 97 00 00
	00		 jne	 $LN14@DrawItem

; 148  : 		} else {											// DEFAULT BUTTON
; 149  : 			if(m_bNormal.m_hObject==NULL)

  00204	83 be 34 01 00
	00 00		 cmp	 DWORD PTR [esi+308], 0
  0020b	75 16		 jne	 SHORT $LN18@DrawItem

; 150  : 				 // no skin selected for normal state -> standard button
; 151  : 				pDC->FillSolidRect(&r,GetSysColor(COLOR_BTNFACE));

  0020d	6a 0f		 push	 15			; 0000000fH
  0020f	ff 15 00 00 00
	00		 call	 DWORD PTR __imp__GetSysColor@4
  00215	50		 push	 eax
  00216	8d 45 e0	 lea	 eax, DWORD PTR _r$[ebp]
  00219	8b cf		 mov	 ecx, edi
  0021b	50		 push	 eax
  0021c	e8 00 00 00 00	 call	 ?FillSolidRect@CDC@@QAEXPBUtagRECT@@K@Z ; CDC::FillSolidRect
  00221	eb 69		 jmp	 SHORT $LN23@DrawItem
$LN18@DrawItem:

; 152  : 			else // paint the skin
; 153  :                 if ((m_tracking)&&(m_bOver.m_hObject!=NULL)){

  00223	80 be 88 00 00
	00 00		 cmp	 BYTE PTR [esi+136], 0
  0022a	74 17		 je	 SHORT $LN20@DrawItem
  0022c	83 be 54 01 00
	00 00		 cmp	 DWORD PTR [esi+340], 0
  00233	74 0e		 je	 SHORT $LN20@DrawItem

; 154  : 					DrawBitmap(pDC,(HBITMAP)m_bOver,r,m_DrawMode);

  00235	8d 86 50 01 00
	00		 lea	 eax, DWORD PTR [esi+336]
; File C:\Program Files (x86)\Microsoft Visual Studio\2019\Community\VC\Tools\MSVC\14.29.30133\atlmfc\include\afxwin1.inl

; 173  : 	{ return (HBITMAP)(this == NULL ? NULL : m_hObject); }

  0023b	85 c0		 test	 eax, eax
  0023d	75 2d		 jne	 SHORT $LN74@DrawItem
  0023f	33 c9		 xor	 ecx, ecx
  00241	eb 2c		 jmp	 SHORT $LN75@DrawItem
$LN20@DrawItem:
; File D:\git\src\IBK\IBK_DRFN\ProjSrc\SrcDrfn\Chart\comparechart\control\xSkinButton.cpp

; 156  : 					if ((lpDrawItemStruct->itemState & ODS_FOCUS)&&(m_bFocus.m_hObject!=NULL)){

  00243	a8 10		 test	 al, 16			; 00000010H
  00245	74 17		 je	 SHORT $LN22@DrawItem
  00247	83 be 5c 01 00
	00 00		 cmp	 DWORD PTR [esi+348], 0
  0024e	74 0e		 je	 SHORT $LN22@DrawItem

; 157  : 						DrawBitmap(pDC,(HBITMAP)m_bFocus,r,m_DrawMode);

  00250	8d 86 58 01 00
	00		 lea	 eax, DWORD PTR [esi+344]
; File C:\Program Files (x86)\Microsoft Visual Studio\2019\Community\VC\Tools\MSVC\14.29.30133\atlmfc\include\afxwin1.inl

; 173  : 	{ return (HBITMAP)(this == NULL ? NULL : m_hObject); }

  00256	85 c0		 test	 eax, eax
  00258	75 12		 jne	 SHORT $LN74@DrawItem
  0025a	33 c9		 xor	 ecx, ecx
  0025c	eb 11		 jmp	 SHORT $LN75@DrawItem
$LN22@DrawItem:
; File D:\git\src\IBK\IBK_DRFN\ProjSrc\SrcDrfn\Chart\comparechart\control\xSkinButton.cpp

; 159  : 						DrawBitmap(pDC,(HBITMAP)m_bNormal,r,m_DrawMode);

  0025e	8d 86 30 01 00
	00		 lea	 eax, DWORD PTR [esi+304]
; File C:\Program Files (x86)\Microsoft Visual Studio\2019\Community\VC\Tools\MSVC\14.29.30133\atlmfc\include\afxwin1.inl

; 173  : 	{ return (HBITMAP)(this == NULL ? NULL : m_hObject); }

  00264	85 c0		 test	 eax, eax
  00266	75 04		 jne	 SHORT $LN74@DrawItem
  00268	33 c9		 xor	 ecx, ecx
  0026a	eb 03		 jmp	 SHORT $LN75@DrawItem
$LN74@DrawItem:
; File D:\git\src\IBK\IBK_DRFN\ProjSrc\SrcDrfn\Chart\comparechart\control\xSkinButton.cpp

; 163  : 			if (m_Border) pDC->DrawEdge(&r,EDGE_RAISED,BF_RECT);

  0026c	8b 48 04	 mov	 ecx, DWORD PTR [eax+4]
$LN75@DrawItem:
  0026f	0f bf 86 70 01
	00 00		 movsx	 eax, WORD PTR [esi+368]
  00276	0f 10 45 e0	 movups	 xmm0, XMMWORD PTR _r$[ebp]
  0027a	50		 push	 eax
  0027b	83 ec 10	 sub	 esp, 16			; 00000010H
  0027e	8b c4		 mov	 eax, esp
  00280	51		 push	 ecx
  00281	57		 push	 edi
  00282	8b ce		 mov	 ecx, esi
  00284	0f 11 00	 movups	 XMMWORD PTR [eax], xmm0
  00287	e8 00 00 00 00	 call	 ?DrawBitmap@CxSkinButton@@IAEXPAVCDC@@PAUHBITMAP__@@UtagRECT@@H@Z ; CxSkinButton::DrawBitmap
$LN23@DrawItem:
  0028c	83 be 6c 01 00
	00 00		 cmp	 DWORD PTR [esi+364], 0
  00293	74 7b		 je	 SHORT $LN17@DrawItem
; File C:\Program Files (x86)\Microsoft Visual Studio\2019\Community\VC\Tools\MSVC\14.29.30133\atlmfc\include\afxwin1.inl

; 510  : 	{ ASSERT(m_hDC != NULL); return ::DrawEdge(m_hDC, lpRect, nEdge, nFlags); }

  00295	6a 0f		 push	 15			; 0000000fH
  00297	6a 05		 push	 5
  00299	eb 68		 jmp	 SHORT $LN88@DrawItem
$LN14@DrawItem:
; File D:\git\src\IBK\IBK_DRFN\ProjSrc\SrcDrfn\Chart\comparechart\control\xSkinButton.cpp

; 139  : 			if(m_bDown.m_hObject==NULL)

  0029b	83 be 3c 01 00
	00 00		 cmp	 DWORD PTR [esi+316], 0
  002a2	75 16		 jne	 SHORT $LN15@DrawItem

; 140  : 				 // no skin selected for selected state -> standard button
; 141  : 				pDC->FillSolidRect(&r,GetSysColor(COLOR_BTNFACE));

  002a4	6a 0f		 push	 15			; 0000000fH
  002a6	ff 15 00 00 00
	00		 call	 DWORD PTR __imp__GetSysColor@4
  002ac	50		 push	 eax
  002ad	8d 45 e0	 lea	 eax, DWORD PTR _r$[ebp]
  002b0	8b cf		 mov	 ecx, edi
  002b2	50		 push	 eax
  002b3	e8 00 00 00 00	 call	 ?FillSolidRect@CDC@@QAEXPBUtagRECT@@K@Z ; CDC::FillSolidRect
  002b8	eb 2e		 jmp	 SHORT $LN16@DrawItem
$LN15@DrawItem:

; 143  : 				DrawBitmap(pDC,(HBITMAP)m_bDown,r,m_DrawMode);

  002ba	8d 86 38 01 00
	00		 lea	 eax, DWORD PTR [esi+312]
; File C:\Program Files (x86)\Microsoft Visual Studio\2019\Community\VC\Tools\MSVC\14.29.30133\atlmfc\include\afxwin1.inl

; 173  : 	{ return (HBITMAP)(this == NULL ? NULL : m_hObject); }

  002c0	85 c0		 test	 eax, eax
  002c2	75 04		 jne	 SHORT $LN60@DrawItem
  002c4	33 c9		 xor	 ecx, ecx
  002c6	eb 03		 jmp	 SHORT $LN61@DrawItem
$LN60@DrawItem:
  002c8	8b 48 04	 mov	 ecx, DWORD PTR [eax+4]
$LN61@DrawItem:
; File D:\git\src\IBK\IBK_DRFN\ProjSrc\SrcDrfn\Chart\comparechart\control\xSkinButton.cpp

; 143  : 				DrawBitmap(pDC,(HBITMAP)m_bDown,r,m_DrawMode);

  002cb	0f bf 86 70 01
	00 00		 movsx	 eax, WORD PTR [esi+368]
  002d2	0f 10 45 e0	 movups	 xmm0, XMMWORD PTR _r$[ebp]
  002d6	50		 push	 eax
  002d7	83 ec 10	 sub	 esp, 16			; 00000010H
  002da	8b c4		 mov	 eax, esp
  002dc	51		 push	 ecx
  002dd	57		 push	 edi
  002de	8b ce		 mov	 ecx, esi
  002e0	0f 11 00	 movups	 XMMWORD PTR [eax], xmm0
  002e3	e8 00 00 00 00	 call	 ?DrawBitmap@CxSkinButton@@IAEXPAVCDC@@PAUHBITMAP__@@UtagRECT@@H@Z ; CxSkinButton::DrawBitmap
$LN16@DrawItem:

; 144  :             }
; 145  : 			OffsetRect(&tr,1,1);  //shift text

  002e8	6a 01		 push	 1
  002ea	6a 01		 push	 1
  002ec	8d 45 d0	 lea	 eax, DWORD PTR _tr$[ebp]
  002ef	50		 push	 eax
  002f0	ff 15 00 00 00
	00		 call	 DWORD PTR __imp__OffsetRect@12

; 146  : 			// if needed, draw the standard 3D rectangular border
; 147  : 			if (m_Border) pDC->DrawEdge(&r,EDGE_SUNKEN,BF_RECT);

  002f6	83 be 6c 01 00
	00 00		 cmp	 DWORD PTR [esi+364], 0
  002fd	74 11		 je	 SHORT $LN17@DrawItem
; File C:\Program Files (x86)\Microsoft Visual Studio\2019\Community\VC\Tools\MSVC\14.29.30133\atlmfc\include\afxwin1.inl

; 510  : 	{ ASSERT(m_hDC != NULL); return ::DrawEdge(m_hDC, lpRect, nEdge, nFlags); }

  002ff	6a 0f		 push	 15			; 0000000fH
  00301	6a 0a		 push	 10			; 0000000aH
$LN88@DrawItem:
; File D:\git\src\IBK\IBK_DRFN\ProjSrc\SrcDrfn\Chart\comparechart\control\xSkinButton.cpp

; 166  : 		if ((lpDrawItemStruct->itemState & ODS_FOCUS)&&(m_FocusRectMargin>0)){

  00303	8d 45 e0	 lea	 eax, DWORD PTR _r$[ebp]
  00306	50		 push	 eax
  00307	ff 77 04	 push	 DWORD PTR [edi+4]
  0030a	ff 15 00 00 00
	00		 call	 DWORD PTR __imp__DrawEdge@16
$LN17@DrawItem:
  00310	8b 4d c8	 mov	 ecx, DWORD PTR _lpDrawItemStruct$GSCopy$1$[ebp]
  00313	f6 41 10 10	 test	 BYTE PTR [ecx+16], 16	; 00000010H
  00317	74 26		 je	 SHORT $LN25@DrawItem
  00319	0f b7 86 60 01
	00 00		 movzx	 eax, WORD PTR [esi+352]
  00320	66 85 c0	 test	 ax, ax
  00323	7e 1a		 jle	 SHORT $LN25@DrawItem

; 167  : 			r.left   += m_FocusRectMargin ;

  00325	98		 cwde
  00326	01 45 e0	 add	 DWORD PTR _r$[ebp], eax

; 168  : 			r.top    += m_FocusRectMargin ;

  00329	01 45 e4	 add	 DWORD PTR _r$[ebp+4], eax

; 169  : 			r.right  -= m_FocusRectMargin ;

  0032c	29 45 e8	 sub	 DWORD PTR _r$[ebp+8], eax

; 170  : 			r.bottom -= m_FocusRectMargin ;

  0032f	29 45 ec	 sub	 DWORD PTR _r$[ebp+12], eax

; 171  : 			DrawFocusRect (lpDrawItemStruct->hDC, &r) ;

  00332	8d 45 e0	 lea	 eax, DWORD PTR _r$[ebp]
  00335	50		 push	 eax
  00336	ff 71 18	 push	 DWORD PTR [ecx+24]
  00339	ff 15 00 00 00
	00		 call	 DWORD PTR __imp__DrawFocusRect@8
$LN25@DrawItem:

; 172  : 		}
; 173  : 		// paint the enabled button text
; 174  : 		pDC->SetTextColor(m_TextColor);

  0033f	8b 07		 mov	 eax, DWORD PTR [edi]
  00341	8b cf		 mov	 ecx, edi
  00343	ff b6 64 01 00
	00		 push	 DWORD PTR [esi+356]
  00349	ff 50 38	 call	 DWORD PTR [eax+56]
$LN87@DrawItem:

; 175  : 		pDC->DrawText(sCaption,&tr,DT_SINGLELINE|DT_VCENTER|DT_CENTER);
; 176  : 	}
; 177  : }

  0034c	8b 17		 mov	 edx, DWORD PTR [edi]
  0034e	8d 45 d0	 lea	 eax, DWORD PTR _tr$[ebp]
  00351	6a 25		 push	 37			; 00000025H
  00353	50		 push	 eax
  00354	8b 45 cc	 mov	 eax, DWORD PTR _sCaption$[ebp]
  00357	8b cf		 mov	 ecx, edi
  00359	ff 70 f4	 push	 DWORD PTR [eax-12]
  0035c	50		 push	 eax
  0035d	ff 52 70	 call	 DWORD PTR [edx+112]
  00360	8d 4d cc	 lea	 ecx, DWORD PTR _sCaption$[ebp]
  00363	ff 15 00 00 00
	00		 call	 DWORD PTR __imp_??1?$CStringT@DV?$StrTraitMFC_DLL@DV?$ChTraitsCRT@D@ATL@@@@@ATL@@QAE@XZ
$LN1@DrawItem:
  00369	8b 4d f4	 mov	 ecx, DWORD PTR __$EHRec$[ebp]
  0036c	64 89 0d 00 00
	00 00		 mov	 DWORD PTR fs:0, ecx
  00373	59		 pop	 ecx
  00374	5f		 pop	 edi
  00375	5e		 pop	 esi
  00376	8b 4d f0	 mov	 ecx, DWORD PTR __$ArrayPad$[ebp]
  00379	33 cd		 xor	 ecx, ebp
  0037b	e8 00 00 00 00	 call	 @__security_check_cookie@4
  00380	8b e5		 mov	 esp, ebp
  00382	5d		 pop	 ebp
  00383	c2 04 00	 ret	 4
_TEXT	ENDS
;	COMDAT text$x
text$x	SEGMENT
__unwindfunclet$?DrawItem@CxSkinButton@@UAEXPAUtagDRAWITEMSTRUCT@@@Z$0:
  00000	8d 4d cc	 lea	 ecx, DWORD PTR _sCaption$[ebp]
  00003	ff 25 00 00 00
	00		 jmp	 DWORD PTR __imp_??1?$CStringT@DV?$StrTraitMFC_DLL@DV?$ChTraitsCRT@D@ATL@@@@@ATL@@QAE@XZ
  00009	cc		 int	 3
  0000a	cc		 int	 3
  0000b	cc		 int	 3
  0000c	cc		 int	 3
  0000d	cc		 int	 3
__ehhandler$?DrawItem@CxSkinButton@@UAEXPAUtagDRAWITEMSTRUCT@@@Z:
  0000e	90		 npad	 1
  0000f	90		 npad	 1
  00010	8b 54 24 08	 mov	 edx, DWORD PTR [esp+8]
  00014	8d 42 0c	 lea	 eax, DWORD PTR [edx+12]
  00017	8b 4a c0	 mov	 ecx, DWORD PTR [edx-64]
  0001a	33 c8		 xor	 ecx, eax
  0001c	e8 00 00 00 00	 call	 @__security_check_cookie@4
  00021	8b 4a fc	 mov	 ecx, DWORD PTR [edx-4]
  00024	33 c8		 xor	 ecx, eax
  00026	e8 00 00 00 00	 call	 @__security_check_cookie@4
  0002b	b8 00 00 00 00	 mov	 eax, OFFSET __ehfuncinfo$?DrawItem@CxSkinButton@@UAEXPAUtagDRAWITEMSTRUCT@@@Z
  00030	e9 00 00 00 00	 jmp	 ___CxxFrameHandler3
text$x	ENDS
?DrawItem@CxSkinButton@@UAEXPAUtagDRAWITEMSTRUCT@@@Z ENDP ; CxSkinButton::DrawItem
; Function compile flags: /Ogtp
; File D:\git\src\IBK\IBK_DRFN\ProjSrc\SrcDrfn\Chart\comparechart\control\xSkinButton.cpp
; File C:\Program Files (x86)\Microsoft Visual Studio\2019\Community\VC\Tools\MSVC\14.29.30133\atlmfc\include\afxwin2.inl
; File D:\git\src\IBK\IBK_DRFN\ProjSrc\SrcDrfn\Chart\comparechart\control\xSkinButton.cpp
; File C:\Program Files (x86)\Microsoft Visual Studio\2019\Community\VC\Tools\MSVC\14.29.30133\atlmfc\include\afxwin1.inl
; File D:\git\src\IBK\IBK_DRFN\ProjSrc\SrcDrfn\Chart\comparechart\control\xSkinButton.cpp
; File C:\Program Files (x86)\Microsoft Visual Studio\2019\Community\VC\Tools\MSVC\14.29.30133\atlmfc\include\afxwin1.inl
; File D:\git\src\IBK\IBK_DRFN\ProjSrc\SrcDrfn\Chart\comparechart\control\xSkinButton.cpp
;	COMDAT ??0CxSkinButton@@QAE@XZ
_TEXT	SEGMENT
_this$ = -16						; size = 4
__$EHRec$ = -12						; size = 12
??0CxSkinButton@@QAE@XZ PROC				; CxSkinButton::CxSkinButton, COMDAT
; _this$ = ecx

; 37   : {

  00000	55		 push	 ebp
  00001	8b ec		 mov	 ebp, esp
  00003	6a ff		 push	 -1
  00005	68 00 00 00 00	 push	 __ehhandler$??0CxSkinButton@@QAE@XZ
  0000a	64 a1 00 00 00
	00		 mov	 eax, DWORD PTR fs:0
  00010	50		 push	 eax
  00011	51		 push	 ecx
  00012	56		 push	 esi
  00013	a1 00 00 00 00	 mov	 eax, DWORD PTR ___security_cookie
  00018	33 c5		 xor	 eax, ebp
  0001a	50		 push	 eax
  0001b	8d 45 f4	 lea	 eax, DWORD PTR __$EHRec$[ebp]
  0001e	64 a3 00 00 00
	00		 mov	 DWORD PTR fs:0, eax
  00024	8b f1		 mov	 esi, ecx
  00026	89 75 f0	 mov	 DWORD PTR _this$[ebp], esi
; File C:\Program Files (x86)\Microsoft Visual Studio\2019\Community\VC\Tools\MSVC\14.29.30133\atlmfc\include\afxwin2.inl

; 622  : 	{ }

  00029	e8 00 00 00 00	 call	 ??0CWnd@@QAE@XZ		; CWnd::CWnd
; File D:\git\src\IBK\IBK_DRFN\ProjSrc\SrcDrfn\Chart\comparechart\control\xSkinButton.cpp

; 37   : {

  0002e	8d 8e 90 00 00
	00		 lea	 ecx, DWORD PTR [esi+144]
  00034	c7 45 fc 00 00
	00 00		 mov	 DWORD PTR __$EHRec$[ebp+8], 0
  0003b	c7 06 00 00 00
	00		 mov	 DWORD PTR [esi], OFFSET ??_7CxSkinButton@@6B@
  00041	e8 00 00 00 00	 call	 ??0CToolTipCtrl@@QAE@XZ	; CToolTipCtrl::CToolTipCtrl
; File C:\Program Files (x86)\Microsoft Visual Studio\2019\Community\VC\Tools\MSVC\14.29.30133\atlmfc\include\afxwin1.inl

; 70   : 	{ m_hObject = NULL; }

  00046	c7 86 34 01 00
	00 00 00 00 00	 mov	 DWORD PTR [esi+308], 0
; File D:\git\src\IBK\IBK_DRFN\ProjSrc\SrcDrfn\Chart\comparechart\control\xSkinButton.cpp

; 38   : 	m_DrawMode=1;			// normal drawing mode

  00050	b8 01 00 00 00	 mov	 eax, 1
; File C:\Program Files (x86)\Microsoft Visual Studio\2019\Community\VC\Tools\MSVC\14.29.30133\atlmfc\include\afxwin1.inl

; 177  : 	{ }

  00055	c7 86 30 01 00
	00 00 00 00 00	 mov	 DWORD PTR [esi+304], OFFSET ??_7CBitmap@@6B@

; 70   : 	{ m_hObject = NULL; }

  0005f	c7 86 3c 01 00
	00 00 00 00 00	 mov	 DWORD PTR [esi+316], 0

; 177  : 	{ }

  00069	c7 86 38 01 00
	00 00 00 00 00	 mov	 DWORD PTR [esi+312], OFFSET ??_7CBitmap@@6B@

; 70   : 	{ m_hObject = NULL; }

  00073	c7 86 44 01 00
	00 00 00 00 00	 mov	 DWORD PTR [esi+324], 0

; 177  : 	{ }

  0007d	c7 86 40 01 00
	00 00 00 00 00	 mov	 DWORD PTR [esi+320], OFFSET ??_7CBitmap@@6B@

; 70   : 	{ m_hObject = NULL; }

  00087	c7 86 4c 01 00
	00 00 00 00 00	 mov	 DWORD PTR [esi+332], 0

; 177  : 	{ }

  00091	c7 86 48 01 00
	00 00 00 00 00	 mov	 DWORD PTR [esi+328], OFFSET ??_7CBitmap@@6B@

; 70   : 	{ m_hObject = NULL; }

  0009b	c7 86 54 01 00
	00 00 00 00 00	 mov	 DWORD PTR [esi+340], 0

; 177  : 	{ }

  000a5	c7 86 50 01 00
	00 00 00 00 00	 mov	 DWORD PTR [esi+336], OFFSET ??_7CBitmap@@6B@

; 70   : 	{ m_hObject = NULL; }

  000af	c7 86 5c 01 00
	00 00 00 00 00	 mov	 DWORD PTR [esi+348], 0

; 177  : 	{ }

  000b9	c7 86 58 01 00
	00 00 00 00 00	 mov	 DWORD PTR [esi+344], OFFSET ??_7CBitmap@@6B@
; File D:\git\src\IBK\IBK_DRFN\ProjSrc\SrcDrfn\Chart\comparechart\control\xSkinButton.cpp

; 38   : 	m_DrawMode=1;			// normal drawing mode

  000c3	66 89 86 70 01
	00 00		 mov	 WORD PTR [esi+368], ax

; 39   : 	m_FocusRectMargin=0;	// disable focus dotted rect

  000ca	33 c0		 xor	 eax, eax

; 40   : 	hClipRgn=NULL;			// no clipping region
; 41   : 	m_TextColor=GetSysColor(COLOR_BTNTEXT); // default button text color

  000cc	6a 12		 push	 18			; 00000012H
  000ce	66 89 86 60 01
	00 00		 mov	 WORD PTR [esi+352], ax
  000d5	89 86 68 01 00
	00		 mov	 DWORD PTR [esi+360], eax
  000db	ff 15 00 00 00
	00		 call	 DWORD PTR __imp__GetSysColor@4
  000e1	89 86 64 01 00
	00		 mov	 DWORD PTR [esi+356], eax

; 42   : 	m_button_down = m_tracking = m_Checked = false;
; 43   : }

  000e7	8b c6		 mov	 eax, esi
  000e9	c6 86 80 00 00
	00 00		 mov	 BYTE PTR [esi+128], 0
  000f0	66 c7 86 88 00
	00 00 00 00	 mov	 WORD PTR [esi+136], 0
  000f9	8b 4d f4	 mov	 ecx, DWORD PTR __$EHRec$[ebp]
  000fc	64 89 0d 00 00
	00 00		 mov	 DWORD PTR fs:0, ecx
  00103	59		 pop	 ecx
  00104	5e		 pop	 esi
  00105	8b e5		 mov	 esp, ebp
  00107	5d		 pop	 ebp
  00108	c3		 ret	 0
_TEXT	ENDS
;	COMDAT text$x
text$x	SEGMENT
__unwindfunclet$??0CxSkinButton@@QAE@XZ$0:
  00000	8b 4d f0	 mov	 ecx, DWORD PTR _this$[ebp]
  00003	e9 00 00 00 00	 jmp	 ??1CButton@@UAE@XZ	; CButton::~CButton
  00008	cc		 int	 3
  00009	cc		 int	 3
  0000a	cc		 int	 3
  0000b	cc		 int	 3
  0000c	cc		 int	 3
__ehhandler$??0CxSkinButton@@QAE@XZ:
  0000d	90		 npad	 1
  0000e	90		 npad	 1
  0000f	8b 54 24 08	 mov	 edx, DWORD PTR [esp+8]
  00013	8d 42 0c	 lea	 eax, DWORD PTR [edx+12]
  00016	8b 4a f4	 mov	 ecx, DWORD PTR [edx-12]
  00019	33 c8		 xor	 ecx, eax
  0001b	e8 00 00 00 00	 call	 @__security_check_cookie@4
  00020	b8 00 00 00 00	 mov	 eax, OFFSET __ehfuncinfo$??0CxSkinButton@@QAE@XZ
  00025	e9 00 00 00 00	 jmp	 ___CxxFrameHandler3
text$x	ENDS
??0CxSkinButton@@QAE@XZ ENDP				; CxSkinButton::CxSkinButton
; Function compile flags: /Ogtp
; File C:\Program Files (x86)\Microsoft Visual Studio\2019\Community\VC\Tools\MSVC\14.29.30133\atlmfc\include\afx.inl
;	COMDAT ??_GCButton@@UAEPAXI@Z
_TEXT	SEGMENT
___flags$ = 8						; size = 4
??_GCButton@@UAEPAXI@Z PROC				; CButton::`scalar deleting destructor', COMDAT
; _this$ = ecx
  00000	55		 push	 ebp
  00001	8b ec		 mov	 ebp, esp
  00003	56		 push	 esi
  00004	8b f1		 mov	 esi, ecx
  00006	e8 00 00 00 00	 call	 ??1CButton@@UAE@XZ	; CButton::~CButton
  0000b	8b 45 08	 mov	 eax, DWORD PTR ___flags$[ebp]
  0000e	a8 01		 test	 al, 1
  00010	74 22		 je	 SHORT $LN9@scalar
  00012	a8 04		 test	 al, 4
  00014	75 10		 jne	 SHORT $LN3@scalar

; 112  : 	{ ::operator delete(p); }

  00016	56		 push	 esi
  00017	e8 00 00 00 00	 call	 ??3@YAXPAX@Z		; operator delete
  0001c	83 c4 04	 add	 esp, 4
  0001f	8b c6		 mov	 eax, esi
  00021	5e		 pop	 esi
  00022	5d		 pop	 ebp
  00023	c2 04 00	 ret	 4
$LN3@scalar:
  00026	68 80 00 00 00	 push	 128			; 00000080H
  0002b	56		 push	 esi
  0002c	e8 00 00 00 00	 call	 ?__global_delete@@YAXPAXI@Z ; __global_delete
  00031	83 c4 08	 add	 esp, 8
$LN9@scalar:
  00034	8b c6		 mov	 eax, esi
  00036	5e		 pop	 esi
  00037	5d		 pop	 ebp
  00038	c2 04 00	 ret	 4
??_GCButton@@UAEPAXI@Z ENDP				; CButton::`scalar deleting destructor'
_TEXT	ENDS
; Function compile flags: /Ogtp
; File C:\Program Files (x86)\Microsoft Visual Studio\2019\Community\VC\Tools\MSVC\14.29.30133\atlmfc\include\afxwin2.inl
;	COMDAT ?EndModalState@CWnd@@UAEXXZ
_TEXT	SEGMENT
?EndModalState@CWnd@@UAEXXZ PROC			; CWnd::EndModalState, COMDAT
; _this$ = ecx

; 567  : 	{ ::EnableWindow(m_hWnd, TRUE); }

  00000	6a 01		 push	 1
  00002	ff 71 20	 push	 DWORD PTR [ecx+32]
  00005	ff 15 00 00 00
	00		 call	 DWORD PTR __imp__EnableWindow@8
  0000b	c3		 ret	 0
?EndModalState@CWnd@@UAEXXZ ENDP			; CWnd::EndModalState
_TEXT	ENDS
; Function compile flags: /Ogtp
; File C:\Program Files (x86)\Microsoft Visual Studio\2019\Community\VC\Tools\MSVC\14.29.30133\atlmfc\include\afxwin2.inl
;	COMDAT ?BeginModalState@CWnd@@UAEXXZ
_TEXT	SEGMENT
?BeginModalState@CWnd@@UAEXXZ PROC			; CWnd::BeginModalState, COMDAT
; _this$ = ecx

; 565  : 	{ ::EnableWindow(m_hWnd, FALSE); }

  00000	6a 00		 push	 0
  00002	ff 71 20	 push	 DWORD PTR [ecx+32]
  00005	ff 15 00 00 00
	00		 call	 DWORD PTR __imp__EnableWindow@8
  0000b	c3		 ret	 0
?BeginModalState@CWnd@@UAEXXZ ENDP			; CWnd::BeginModalState
_TEXT	ENDS
; Function compile flags: /Ogtp
; File C:\Program Files (x86)\Microsoft Visual Studio\2019\Community\VC\Tools\MSVC\14.29.30133\atlmfc\include\afxwin2.inl
;	COMDAT ?DoDataExchange@CWnd@@MAEXPAVCDataExchange@@@Z
_TEXT	SEGMENT
___formal$ = 8						; size = 4
?DoDataExchange@CWnd@@MAEXPAVCDataExchange@@@Z PROC	; CWnd::DoDataExchange, COMDAT
; _this$ = ecx

; 561  : 	{ } // default does nothing

  00000	c2 04 00	 ret	 4
?DoDataExchange@CWnd@@MAEXPAVCDataExchange@@@Z ENDP	; CWnd::DoDataExchange
_TEXT	ENDS
; Function compile flags: /Ogtp
; File C:\Program Files (x86)\Microsoft Visual Studio\2019\Community\VC\Tools\MSVC\14.29.30133\atlmfc\include\afxwin1.inl
; File C:\Program Files (x86)\Microsoft Visual Studio\2019\Community\VC\Tools\MSVC\14.29.30133\atlmfc\include\afx.inl
;	COMDAT ??_GCBitmap@@UAEPAXI@Z
_TEXT	SEGMENT
___flags$ = 8						; size = 4
??_GCBitmap@@UAEPAXI@Z PROC				; CBitmap::`scalar deleting destructor', COMDAT
; _this$ = ecx
  00000	55		 push	 ebp
  00001	8b ec		 mov	 ebp, esp
; File C:\Program Files (x86)\Microsoft Visual Studio\2019\Community\VC\Tools\MSVC\14.29.30133\atlmfc\include\afxwin1.inl

; 179  : 	{ }

  00003	56		 push	 esi
  00004	8b f1		 mov	 esi, ecx
  00006	c7 06 00 00 00
	00		 mov	 DWORD PTR [esi], OFFSET ??_7CBitmap@@6B@
  0000c	e8 00 00 00 00	 call	 ??1CGdiObject@@UAE@XZ	; CGdiObject::~CGdiObject
  00011	8b 45 08	 mov	 eax, DWORD PTR ___flags$[ebp]
  00014	a8 01		 test	 al, 1
  00016	74 1f		 je	 SHORT $LN12@scalar
  00018	a8 04		 test	 al, 4
  0001a	75 10		 jne	 SHORT $LN3@scalar
; File C:\Program Files (x86)\Microsoft Visual Studio\2019\Community\VC\Tools\MSVC\14.29.30133\atlmfc\include\afx.inl

; 112  : 	{ ::operator delete(p); }

  0001c	56		 push	 esi
  0001d	e8 00 00 00 00	 call	 ??3@YAXPAX@Z		; operator delete
  00022	83 c4 04	 add	 esp, 4
  00025	8b c6		 mov	 eax, esi
  00027	5e		 pop	 esi
  00028	5d		 pop	 ebp
  00029	c2 04 00	 ret	 4
$LN3@scalar:
  0002c	6a 08		 push	 8
  0002e	56		 push	 esi
  0002f	e8 00 00 00 00	 call	 ?__global_delete@@YAXPAXI@Z ; __global_delete
  00034	83 c4 08	 add	 esp, 8
$LN12@scalar:
  00037	8b c6		 mov	 eax, esi
  00039	5e		 pop	 esi
  0003a	5d		 pop	 ebp
  0003b	c2 04 00	 ret	 4
??_GCBitmap@@UAEPAXI@Z ENDP				; CBitmap::`scalar deleting destructor'
_TEXT	ENDS
; Function compile flags: /Ogtp
; File C:\Program Files (x86)\Microsoft Visual Studio\2019\Community\VC\Tools\MSVC\14.29.30133\atlmfc\include\afxwin1.inl
;	COMDAT ??1CBitmap@@UAE@XZ
_TEXT	SEGMENT
??1CBitmap@@UAE@XZ PROC					; CBitmap::~CBitmap, COMDAT
; _this$ = ecx

; 179  : 	{ }

  00000	c7 01 00 00 00
	00		 mov	 DWORD PTR [ecx], OFFSET ??_7CBitmap@@6B@
  00006	e9 00 00 00 00	 jmp	 ??1CGdiObject@@UAE@XZ	; CGdiObject::~CGdiObject
??1CBitmap@@UAE@XZ ENDP					; CBitmap::~CBitmap
_TEXT	ENDS
; Function compile flags: /Ogtp
; File C:\Program Files (x86)\Microsoft Visual Studio\2019\Community\VC\Tools\MSVC\14.29.30133\atlmfc\include\afx.inl
;	COMDAT ??_GCGdiObject@@UAEPAXI@Z
_TEXT	SEGMENT
___flags$ = 8						; size = 4
??_GCGdiObject@@UAEPAXI@Z PROC				; CGdiObject::`scalar deleting destructor', COMDAT
; _this$ = ecx
  00000	55		 push	 ebp
  00001	8b ec		 mov	 ebp, esp
  00003	56		 push	 esi
  00004	8b f1		 mov	 esi, ecx
  00006	e8 00 00 00 00	 call	 ??1CGdiObject@@UAE@XZ	; CGdiObject::~CGdiObject
  0000b	8b 45 08	 mov	 eax, DWORD PTR ___flags$[ebp]
  0000e	a8 01		 test	 al, 1
  00010	74 1f		 je	 SHORT $LN9@scalar
  00012	a8 04		 test	 al, 4
  00014	75 10		 jne	 SHORT $LN3@scalar

; 112  : 	{ ::operator delete(p); }

  00016	56		 push	 esi
  00017	e8 00 00 00 00	 call	 ??3@YAXPAX@Z		; operator delete
  0001c	83 c4 04	 add	 esp, 4
  0001f	8b c6		 mov	 eax, esi
  00021	5e		 pop	 esi
  00022	5d		 pop	 ebp
  00023	c2 04 00	 ret	 4
$LN3@scalar:
  00026	6a 08		 push	 8
  00028	56		 push	 esi
  00029	e8 00 00 00 00	 call	 ?__global_delete@@YAXPAXI@Z ; __global_delete
  0002e	83 c4 08	 add	 esp, 8
$LN9@scalar:
  00031	8b c6		 mov	 eax, esi
  00033	5e		 pop	 esi
  00034	5d		 pop	 ebp
  00035	c2 04 00	 ret	 4
??_GCGdiObject@@UAEPAXI@Z ENDP				; CGdiObject::`scalar deleting destructor'
_TEXT	ENDS
; Function compile flags: /Ogtp
; File C:\Program Files (x86)\Microsoft Visual Studio\2019\Community\VC\Tools\MSVC\14.29.30133\atlmfc\include\afxwin1.inl
;	COMDAT ??1CGdiObject@@UAE@XZ
_TEXT	SEGMENT
_pException$2 = -540					; size = 4
_strMsg$3 = -536					; size = 4
_szErrorMessage$4 = -532				; size = 512
__$ArrayPad$ = -20					; size = 4
__$EHRec$ = -16						; size = 16
??1CGdiObject@@UAE@XZ PROC				; CGdiObject::~CGdiObject, COMDAT
; _this$ = ecx

; 74   : {

  00000	55		 push	 ebp
  00001	8b ec		 mov	 ebp, esp
  00003	6a ff		 push	 -1
  00005	68 00 00 00 00	 push	 __ehhandler$??1CGdiObject@@UAE@XZ
  0000a	64 a1 00 00 00
	00		 mov	 eax, DWORD PTR fs:0
  00010	50		 push	 eax
  00011	81 ec 10 02 00
	00		 sub	 esp, 528		; 00000210H
  00017	a1 00 00 00 00	 mov	 eax, DWORD PTR ___security_cookie
  0001c	33 c5		 xor	 eax, ebp
  0001e	89 45 ec	 mov	 DWORD PTR __$ArrayPad$[ebp], eax
  00021	53		 push	 ebx
  00022	56		 push	 esi
  00023	57		 push	 edi
  00024	50		 push	 eax
  00025	8d 45 f4	 lea	 eax, DWORD PTR __$EHRec$[ebp+4]
  00028	64 a3 00 00 00
	00		 mov	 DWORD PTR fs:0, eax
  0002e	89 65 f0	 mov	 DWORD PTR __$EHRec$[ebp], esp
  00031	c7 01 00 00 00
	00		 mov	 DWORD PTR [ecx], OFFSET ??_7CGdiObject@@6B@

; 75   : 	AFX_BEGIN_DESTRUCTOR

  00037	c7 45 fc 00 00
	00 00		 mov	 DWORD PTR __$EHRec$[ebp+12], 0

; 76   : 	DeleteObject();

  0003e	e8 00 00 00 00	 call	 ?DeleteObject@CGdiObject@@QAEHXZ ; CGdiObject::DeleteObject
$LN18@CGdiObject:

; 78   : }

  00043	8b 4d f4	 mov	 ecx, DWORD PTR __$EHRec$[ebp+4]
  00046	64 89 0d 00 00
	00 00		 mov	 DWORD PTR fs:0, ecx
  0004d	59		 pop	 ecx
  0004e	5f		 pop	 edi
  0004f	5e		 pop	 esi
  00050	5b		 pop	 ebx
  00051	8b 4d ec	 mov	 ecx, DWORD PTR __$ArrayPad$[ebp]
  00054	33 cd		 xor	 ecx, ebp
  00056	e8 00 00 00 00	 call	 @__security_check_cookie@4
  0005b	8b e5		 mov	 esp, ebp
  0005d	5d		 pop	 ebp
  0005e	c3		 ret	 0
__catch$??1CGdiObject@@UAE@XZ$0:

; 77   : 	AFX_END_DESTRUCTOR

  0005f	8d 8d e8 fd ff
	ff		 lea	 ecx, DWORD PTR _strMsg$3[ebp]
  00065	ff 15 00 00 00
	00		 call	 DWORD PTR __imp_??0?$CStringT@DV?$StrTraitMFC_DLL@DV?$ChTraitsCRT@D@ATL@@@@@ATL@@QAE@XZ
  0006b	8b b5 e4 fd ff
	ff		 mov	 esi, DWORD PTR _pException$2[ebp]
  00071	8d 8d ec fd ff
	ff		 lea	 ecx, DWORD PTR _szErrorMessage$4[ebp]
  00077	6a 00		 push	 0
  00079	68 00 02 00 00	 push	 512			; 00000200H
  0007e	51		 push	 ecx
  0007f	8b 06		 mov	 eax, DWORD PTR [esi]
  00081	8b ce		 mov	 ecx, esi
  00083	c6 45 fc 02	 mov	 BYTE PTR __$EHRec$[ebp+12], 2
  00087	ff 50 14	 call	 DWORD PTR [eax+20]
  0008a	85 c0		 test	 eax, eax
  0008c	74 2a		 je	 SHORT $LN9@CGdiObject
  0008e	8d 85 ec fd ff
	ff		 lea	 eax, DWORD PTR _szErrorMessage$4[ebp]
  00094	50		 push	 eax
  00095	6a 4d		 push	 77			; 0000004dH
  00097	68 00 00 00 00	 push	 OFFSET ??_C@_0HD@JJCHHHNK@C?3?2Program?5Files?5?$CIx86?$CJ?2Microsof@
  0009c	68 00 00 00 00	 push	 OFFSET ??_C@_0BP@OIEOKIDM@Exception?5thrown?5in?5destructor@
  000a1	8d 85 e8 fd ff
	ff		 lea	 eax, DWORD PTR _strMsg$3[ebp]
  000a7	68 00 00 00 00	 push	 OFFSET ??_C@_0BB@HBOOMJBF@?$CFTs?5?$CI?$CFTs?3?$CFd?$CJ?6?$CFTs@
  000ac	50		 push	 eax
  000ad	ff 15 00 00 00
	00		 call	 DWORD PTR __imp_?Format@?$CStringT@DV?$StrTraitMFC_DLL@DV?$ChTraitsCRT@D@ATL@@@@@ATL@@QAAXPBDZZ
  000b3	83 c4 18	 add	 esp, 24			; 00000018H
  000b6	eb 21		 jmp	 SHORT $LN10@CGdiObject
$LN9@CGdiObject:
  000b8	6a 4d		 push	 77			; 0000004dH
  000ba	68 00 00 00 00	 push	 OFFSET ??_C@_0HD@JJCHHHNK@C?3?2Program?5Files?5?$CIx86?$CJ?2Microsof@
  000bf	68 00 00 00 00	 push	 OFFSET ??_C@_0BP@OIEOKIDM@Exception?5thrown?5in?5destructor@
  000c4	8d 85 e8 fd ff
	ff		 lea	 eax, DWORD PTR _strMsg$3[ebp]
  000ca	68 00 00 00 00	 push	 OFFSET ??_C@_0N@OMEMOKLE@?$CFTs?5?$CI?$CFTs?3?$CFd?$CJ@
  000cf	50		 push	 eax
  000d0	ff 15 00 00 00
	00		 call	 DWORD PTR __imp_?Format@?$CStringT@DV?$StrTraitMFC_DLL@DV?$ChTraitsCRT@D@ATL@@@@@ATL@@QAAXPBDZZ
  000d6	83 c4 14	 add	 esp, 20			; 00000014H
$LN10@CGdiObject:
  000d9	6a 00		 push	 0
  000db	6a 00		 push	 0
  000dd	ff b5 e8 fd ff
	ff		 push	 DWORD PTR _strMsg$3[ebp]
  000e3	e8 00 00 00 00	 call	 ?AfxMessageBox@@YGHPBDII@Z ; AfxMessageBox
  000e8	8d 8d e8 fd ff
	ff		 lea	 ecx, DWORD PTR _strMsg$3[ebp]
  000ee	ff 15 00 00 00
	00		 call	 DWORD PTR __imp_??1?$CStringT@DV?$StrTraitMFC_DLL@DV?$ChTraitsCRT@D@ATL@@@@@ATL@@QAE@XZ
  000f4	8b 06		 mov	 eax, DWORD PTR [esi]
  000f6	8b ce		 mov	 ecx, esi
  000f8	6a 01		 push	 1
  000fa	ff 50 04	 call	 DWORD PTR [eax+4]
  000fd	b8 00 00 00 00	 mov	 eax, $LN18@CGdiObject
  00102	c3		 ret	 0
_TEXT	ENDS
;	COMDAT text$x
text$x	SEGMENT
__unwindfunclet$??1CGdiObject@@UAE@XZ$2:
  00000	8d 8d e8 fd ff
	ff		 lea	 ecx, DWORD PTR _strMsg$3[ebp]
  00006	ff 25 00 00 00
	00		 jmp	 DWORD PTR __imp_??1?$CStringT@DV?$StrTraitMFC_DLL@DV?$ChTraitsCRT@D@ATL@@@@@ATL@@QAE@XZ
  0000c	cc		 int	 3
  0000d	cc		 int	 3
  0000e	cc		 int	 3
  0000f	cc		 int	 3
  00010	cc		 int	 3
__ehhandler$??1CGdiObject@@UAE@XZ:
  00011	90		 npad	 1
  00012	90		 npad	 1
  00013	8b 54 24 08	 mov	 edx, DWORD PTR [esp+8]
  00017	8d 42 0c	 lea	 eax, DWORD PTR [edx+12]
  0001a	8b 8a e0 fd ff
	ff		 mov	 ecx, DWORD PTR [edx-544]
  00020	33 c8		 xor	 ecx, eax
  00022	e8 00 00 00 00	 call	 @__security_check_cookie@4
  00027	8b 4a f8	 mov	 ecx, DWORD PTR [edx-8]
  0002a	33 c8		 xor	 ecx, eax
  0002c	e8 00 00 00 00	 call	 @__security_check_cookie@4
  00031	b8 00 00 00 00	 mov	 eax, OFFSET __ehfuncinfo$??1CGdiObject@@UAE@XZ
  00036	e9 00 00 00 00	 jmp	 ___CxxFrameHandler3
text$x	ENDS
??1CGdiObject@@UAE@XZ ENDP				; CGdiObject::~CGdiObject
; Function compile flags: /Ogtp
; File C:\Program Files (x86)\Microsoft Visual Studio\2019\Community\VC\Tools\MSVC\14.29.30133\atlmfc\include\afx.inl
;	COMDAT ?Dump@CObject@@UBEXAAVCDumpContext@@@Z
_TEXT	SEGMENT
___formal$ = 8						; size = 4
?Dump@CObject@@UBEXAAVCDumpContext@@@Z PROC		; CObject::Dump, COMDAT
; _this$ = ecx

; 122  : 	{ /* no dumping in release builds */ }

  00000	c2 04 00	 ret	 4
?Dump@CObject@@UBEXAAVCDumpContext@@@Z ENDP		; CObject::Dump
_TEXT	ENDS
; Function compile flags: /Ogtp
; File C:\Program Files (x86)\Microsoft Visual Studio\2019\Community\VC\Tools\MSVC\14.29.30133\atlmfc\include\afx.inl
;	COMDAT ?AssertValid@CObject@@UBEXXZ
_TEXT	SEGMENT
?AssertValid@CObject@@UBEXXZ PROC			; CObject::AssertValid, COMDAT
; _this$ = ecx

; 120  : 	{ /* no asserts in release builds */ }

  00000	c2 00 00	 ret	 0
?AssertValid@CObject@@UBEXXZ ENDP			; CObject::AssertValid
_TEXT	ENDS
; Function compile flags: /Ogtp
; File C:\Program Files (x86)\Microsoft Visual Studio\2019\Community\VC\Tools\MSVC\14.29.30133\atlmfc\include\afx.inl
;	COMDAT ?Serialize@CObject@@UAEXAAVCArchive@@@Z
_TEXT	SEGMENT
___formal$ = 8						; size = 4
?Serialize@CObject@@UAEXAAVCArchive@@@Z PROC		; CObject::Serialize, COMDAT
; _this$ = ecx

; 106  : 	{ /* CObject does not serialize anything by default */ }

  00000	c2 04 00	 ret	 4
?Serialize@CObject@@UAEXAAVCArchive@@@Z ENDP		; CObject::Serialize
_TEXT	ENDS
; Function compile flags: /Ogtp
; File C:\Program Files (x86)\Microsoft Visual Studio\2019\Community\VC\Tools\MSVC\14.29.30133\atlmfc\include\afx.inl
;	COMDAT ??1CObject@@UAE@XZ
_TEXT	SEGMENT
??1CObject@@UAE@XZ PROC					; CObject::~CObject, COMDAT
; _this$ = ecx

; 104  : 	{ }

  00000	c2 00 00	 ret	 0
??1CObject@@UAE@XZ ENDP					; CObject::~CObject
_TEXT	ENDS
; Function compile flags: /Ogtp
; File D:\git\src\IBK\IBK_DRFN\ProjSrc\SrcDrfn\Chart\comparechart\control\xSkinButton.cpp
;	COMDAT ?__empty_global_delete@@YAXPAXI@Z
_TEXT	SEGMENT
___formal$ = 8						; size = 4
___formal$ = 12						; size = 4
?__empty_global_delete@@YAXPAXI@Z PROC			; __empty_global_delete, COMDAT

  00000	c2 00 00	 ret	 0
?__empty_global_delete@@YAXPAXI@Z ENDP			; __empty_global_delete
_TEXT	ENDS
; Function compile flags: /Ogtp
; File D:\git\src\IBK\IBK_DRFN\ProjSrc\SrcDrfn\Chart\comparechart\control\xSkinButton.cpp
;	COMDAT ?__empty_global_delete@@YAXPAX@Z
_TEXT	SEGMENT
___formal$ = 8						; size = 4
?__empty_global_delete@@YAXPAX@Z PROC			; __empty_global_delete, COMDAT

  00000	c2 00 00	 ret	 0
?__empty_global_delete@@YAXPAX@Z ENDP			; __empty_global_delete
_TEXT	ENDS
END
