; Listing generated by Microsoft (R) Optimizing Compiler Version 19.29.30145.0 

	TITLE	D:\git\src\IBK\IBK_DRFN\#DRfn-CS\_Obj\CompareChart\XTabCtrl.obj
	.686P
	.XMM
	include listing.inc
	.model	flat

INCLUDELIB MSVCRT
INCLUDELIB OLDNAMES

PUBLIC	??_C@_0BE@FJPKENOB@RMSG_GETSIGNAL_REAL@		; `string'
PUBLIC	??_C@_0P@KHFCBIOH@RMSG_CHARTMAIN@		; `string'
PUBLIC	??_C@_0BC@MMPGLPDH@RMS_ANALYSIS_FUNC@		; `string'
PUBLIC	??_C@_0BA@HKNFENJL@RMSG_GET_USERID@		; `string'
PUBLIC	??_C@_0P@LFDACNFE@RMSG_KSDLLINFO@		; `string'
PUBLIC	??_C@_0N@IIOKMIEH@RMSG_GETINFO@			; `string'
PUBLIC	??_C@_0BG@CNPAHNGG@RMSG_CHANGE_SKINCOLOR@	; `string'
PUBLIC	??_C@_0BD@FLDNDDHK@RMSG_GET_SKINCOLOR@		; `string'
PUBLIC	??_C@_0BG@LNLCJKPF@RMSG_CHANGE_CROSSLINE@	; `string'
PUBLIC	??_C@_0BC@LHNMEPFM@RMSG_SELCHARTCODE@		; `string'
PUBLIC	??_C@_0BB@IBKHOHJL@RMSG_REPLAY_REAL@		; `string'
PUBLIC	??_C@_0BB@JFLGBADG@RMSG_REPLAY_FAIL@		; `string'
PUBLIC	??_C@_0BI@KDGAIIMD@RMSG_REPLAY_CHANGE_DATE@	; `string'
PUBLIC	??_C@_0BA@NKHHCPON@RMSG_REPLAY_END@		; `string'
PUBLIC	??_C@_0BE@JFCIMCIP@RMSG_REPLAY_INC_SEC@		; `string'
PUBLIC	??_C@_0BG@GIAJEIJF@RMSG_REPLAY_TOTAL_SEC@	; `string'
;	COMDAT ??_C@_0BG@GIAJEIJF@RMSG_REPLAY_TOTAL_SEC@
CONST	SEGMENT
??_C@_0BG@GIAJEIJF@RMSG_REPLAY_TOTAL_SEC@ DB 'RMSG_REPLAY_TOTAL_SEC', 00H ; `string'
CONST	ENDS
;	COMDAT ??_C@_0BE@JFCIMCIP@RMSG_REPLAY_INC_SEC@
CONST	SEGMENT
??_C@_0BE@JFCIMCIP@RMSG_REPLAY_INC_SEC@ DB 'RMSG_REPLAY_INC_SEC', 00H ; `string'
CONST	ENDS
;	COMDAT ??_C@_0BA@NKHHCPON@RMSG_REPLAY_END@
CONST	SEGMENT
??_C@_0BA@NKHHCPON@RMSG_REPLAY_END@ DB 'RMSG_REPLAY_END', 00H ; `string'
CONST	ENDS
;	COMDAT ??_C@_0BI@KDGAIIMD@RMSG_REPLAY_CHANGE_DATE@
CONST	SEGMENT
??_C@_0BI@KDGAIIMD@RMSG_REPLAY_CHANGE_DATE@ DB 'RMSG_REPLAY_CHANGE_DATE', 00H ; `string'
CONST	ENDS
;	COMDAT ??_C@_0BB@JFLGBADG@RMSG_REPLAY_FAIL@
CONST	SEGMENT
??_C@_0BB@JFLGBADG@RMSG_REPLAY_FAIL@ DB 'RMSG_REPLAY_FAIL', 00H ; `string'
CONST	ENDS
;	COMDAT ??_C@_0BB@IBKHOHJL@RMSG_REPLAY_REAL@
CONST	SEGMENT
??_C@_0BB@IBKHOHJL@RMSG_REPLAY_REAL@ DB 'RMSG_REPLAY_REAL', 00H ; `string'
CONST	ENDS
;	COMDAT ??_C@_0BC@LHNMEPFM@RMSG_SELCHARTCODE@
CONST	SEGMENT
??_C@_0BC@LHNMEPFM@RMSG_SELCHARTCODE@ DB 'RMSG_SELCHARTCODE', 00H ; `string'
CONST	ENDS
;	COMDAT ??_C@_0BG@LNLCJKPF@RMSG_CHANGE_CROSSLINE@
CONST	SEGMENT
??_C@_0BG@LNLCJKPF@RMSG_CHANGE_CROSSLINE@ DB 'RMSG_CHANGE_CROSSLINE', 00H ; `string'
CONST	ENDS
;	COMDAT ??_C@_0BD@FLDNDDHK@RMSG_GET_SKINCOLOR@
CONST	SEGMENT
??_C@_0BD@FLDNDDHK@RMSG_GET_SKINCOLOR@ DB 'RMSG_GET_SKINCOLOR', 00H ; `string'
CONST	ENDS
;	COMDAT ??_C@_0BG@CNPAHNGG@RMSG_CHANGE_SKINCOLOR@
CONST	SEGMENT
??_C@_0BG@CNPAHNGG@RMSG_CHANGE_SKINCOLOR@ DB 'RMSG_CHANGE_SKINCOLOR', 00H ; `string'
CONST	ENDS
;	COMDAT ??_C@_0N@IIOKMIEH@RMSG_GETINFO@
CONST	SEGMENT
??_C@_0N@IIOKMIEH@RMSG_GETINFO@ DB 'RMSG_GETINFO', 00H	; `string'
CONST	ENDS
;	COMDAT ??_C@_0P@LFDACNFE@RMSG_KSDLLINFO@
CONST	SEGMENT
??_C@_0P@LFDACNFE@RMSG_KSDLLINFO@ DB 'RMSG_KSDLLINFO', 00H ; `string'
CONST	ENDS
;	COMDAT ??_C@_0BA@HKNFENJL@RMSG_GET_USERID@
CONST	SEGMENT
??_C@_0BA@HKNFENJL@RMSG_GET_USERID@ DB 'RMSG_GET_USERID', 00H ; `string'
CONST	ENDS
;	COMDAT ??_C@_0BC@MMPGLPDH@RMS_ANALYSIS_FUNC@
CONST	SEGMENT
??_C@_0BC@MMPGLPDH@RMS_ANALYSIS_FUNC@ DB 'RMS_ANALYSIS_FUNC', 00H ; `string'
CONST	ENDS
;	COMDAT ??_C@_0P@KHFCBIOH@RMSG_CHARTMAIN@
CONST	SEGMENT
??_C@_0P@KHFCBIOH@RMSG_CHARTMAIN@ DB 'RMSG_CHARTMAIN', 00H ; `string'
CONST	ENDS
;	COMDAT ??_C@_0BE@FJPKENOB@RMSG_GETSIGNAL_REAL@
CONST	SEGMENT
??_C@_0BE@FJPKENOB@RMSG_GETSIGNAL_REAL@ DB 'RMSG_GETSIGNAL_REAL', 00H ; `string'
CONST	ENDS
PUBLIC	?__empty_global_delete@@YAXPAX@Z		; __empty_global_delete
PUBLIC	?__empty_global_delete@@YAXPAXI@Z		; __empty_global_delete
PUBLIC	?Serialize@CObject@@UAEXAAVCArchive@@@Z		; CObject::Serialize
PUBLIC	?AssertValid@CObject@@UBEXXZ			; CObject::AssertValid
PUBLIC	?Dump@CObject@@UBEXAAVCDumpContext@@@Z		; CObject::Dump
PUBLIC	?DoDataExchange@CWnd@@MAEXPAVCDataExchange@@@Z	; CWnd::DoDataExchange
PUBLIC	?BeginModalState@CWnd@@UAEXXZ			; CWnd::BeginModalState
PUBLIC	?EndModalState@CWnd@@UAEXXZ			; CWnd::EndModalState
PUBLIC	??0CXTabCtrl@@QAE@XZ				; CXTabCtrl::CXTabCtrl
PUBLIC	?Init@CXTabCtrl@@QAEXPAVCWnd@@0HPAX@Z		; CXTabCtrl::Init
PUBLIC	?ShowTab@CXTabCtrl@@QAEXH@Z			; CXTabCtrl::ShowTab
PUBLIC	?SetTopLeftCorner@CXTabCtrl@@QAEXVCPoint@@@Z	; CXTabCtrl::SetTopLeftCorner
PUBLIC	?ChangeSkinColor@CXTabCtrl@@QAEXXZ		; CXTabCtrl::ChangeSkinColor
PUBLIC	?PreSubclassWindow@CXTabCtrl@@MAEXXZ		; CXTabCtrl::PreSubclassWindow
PUBLIC	?WindowProc@CXTabCtrl@@MAEJIIJ@Z		; CXTabCtrl::WindowProc
PUBLIC	??1CXTabCtrl@@UAE@XZ				; CXTabCtrl::~CXTabCtrl
PUBLIC	?DeleteCurrentDlg@CXTabCtrl@@AAEXXZ		; CXTabCtrl::DeleteCurrentDlg
PUBLIC	?OnSelchange@CXTabCtrl@@IAEXPAUtagNMHDR@@PAJ@Z	; CXTabCtrl::OnSelchange
PUBLIC	?OnSelchanging@CXTabCtrl@@IAEXPAUtagNMHDR@@PAJ@Z ; CXTabCtrl::OnSelchanging
PUBLIC	?OnTimer@CXTabCtrl@@IAEXI@Z			; CXTabCtrl::OnTimer
PUBLIC	?OnSize@CXTabCtrl@@IAEXIHH@Z			; CXTabCtrl::OnSize
PUBLIC	?OnDestroy@CXTabCtrl@@IAEXXZ			; CXTabCtrl::OnDestroy
PUBLIC	?GetThisMessageMap@CXTabCtrl@@KGPBUAFX_MSGMAP@@XZ ; CXTabCtrl::GetThisMessageMap
PUBLIC	?GetMessageMap@CXTabCtrl@@MBEPBUAFX_MSGMAP@@XZ	; CXTabCtrl::GetMessageMap
PUBLIC	??_GCXTabCtrl@@UAEPAXI@Z			; CXTabCtrl::`scalar deleting destructor'
PUBLIC	??_R0?AVCObject@@@8				; CObject `RTTI Type Descriptor'
PUBLIC	??_R3CObject@@8					; CObject::`RTTI Class Hierarchy Descriptor'
PUBLIC	??_R2CObject@@8					; CObject::`RTTI Base Class Array'
PUBLIC	??_R1A@?0A@EA@CObject@@8			; CObject::`RTTI Base Class Descriptor at (0,-1,0,64)'
PUBLIC	??_R1A@?0A@EA@CWnd@@8				; CWnd::`RTTI Base Class Descriptor at (0,-1,0,64)'
PUBLIC	??_R0?AVCWnd@@@8				; CWnd `RTTI Type Descriptor'
PUBLIC	??_R3CWnd@@8					; CWnd::`RTTI Class Hierarchy Descriptor'
PUBLIC	??_R2CWnd@@8					; CWnd::`RTTI Base Class Array'
PUBLIC	??_R1A@?0A@EA@CCmdTarget@@8			; CCmdTarget::`RTTI Base Class Descriptor at (0,-1,0,64)'
PUBLIC	??_R0?AVCCmdTarget@@@8				; CCmdTarget `RTTI Type Descriptor'
PUBLIC	??_R3CCmdTarget@@8				; CCmdTarget::`RTTI Class Hierarchy Descriptor'
PUBLIC	??_R2CCmdTarget@@8				; CCmdTarget::`RTTI Base Class Array'
PUBLIC	??_R0?AVCTabCtrl@@@8				; CTabCtrl `RTTI Type Descriptor'
PUBLIC	??_R3CTabCtrl@@8				; CTabCtrl::`RTTI Class Hierarchy Descriptor'
PUBLIC	??_R2CTabCtrl@@8				; CTabCtrl::`RTTI Base Class Array'
PUBLIC	??_R1A@?0A@EA@CTabCtrl@@8			; CTabCtrl::`RTTI Base Class Descriptor at (0,-1,0,64)'
PUBLIC	??_7CXTabCtrl@@6B@				; CXTabCtrl::`vftable'
PUBLIC	??_R4CXTabCtrl@@6B@				; CXTabCtrl::`RTTI Complete Object Locator'
PUBLIC	??_R0?AVCXTabCtrl@@@8				; CXTabCtrl `RTTI Type Descriptor'
PUBLIC	??_R3CXTabCtrl@@8				; CXTabCtrl::`RTTI Class Hierarchy Descriptor'
PUBLIC	??_R2CXTabCtrl@@8				; CXTabCtrl::`RTTI Base Class Array'
PUBLIC	??_R1A@?0A@EA@CXTabCtrl@@8			; CXTabCtrl::`RTTI Base Class Descriptor at (0,-1,0,64)'
PUBLIC	??_R1A@?0A@EA@CExTabCtrl@@8			; CExTabCtrl::`RTTI Base Class Descriptor at (0,-1,0,64)'
PUBLIC	??_R0?AVCExTabCtrl@@@8				; CExTabCtrl `RTTI Type Descriptor'
PUBLIC	??_R3CExTabCtrl@@8				; CExTabCtrl::`RTTI Class Hierarchy Descriptor'
PUBLIC	??_R2CExTabCtrl@@8				; CExTabCtrl::`RTTI Base Class Array'
EXTRN	??3@YAXPAX@Z:PROC				; operator delete
EXTRN	?__global_delete@@YAXPAXI@Z:PROC		; __global_delete
EXTRN	__imp__RegisterWindowMessageA@4:PROC
EXTRN	__imp__SendMessageA@16:PROC
EXTRN	__imp__KillTimer@8:PROC
EXTRN	__imp__EnableWindow@8:PROC
EXTRN	__imp__InvalidateRect@12:PROC
EXTRN	__imp__GetClientRect@8:PROC
EXTRN	__imp__GetCursorPos@4:PROC
EXTRN	__imp__PtInRect@12:PROC
EXTRN	__imp__GetParent@4:PROC
EXTRN	?OnCmdMsg@CCmdTarget@@UAEHIHPAXPAUAFX_CMDHANDLERINFO@@@Z:PROC ; CCmdTarget::OnCmdMsg
EXTRN	?IsInvokeAllowed@CCmdTarget@@UAEHJ@Z:PROC	; CCmdTarget::IsInvokeAllowed
EXTRN	?GetDispatchIID@CCmdTarget@@UAEHPAU_GUID@@@Z:PROC ; CCmdTarget::GetDispatchIID
EXTRN	?GetTypeInfoCount@CCmdTarget@@UAEIXZ:PROC	; CCmdTarget::GetTypeInfoCount
EXTRN	?GetTypeLibCache@CCmdTarget@@UAEPAVCTypeLibCache@@XZ:PROC ; CCmdTarget::GetTypeLibCache
EXTRN	?GetTypeLib@CCmdTarget@@UAEJKPAPAUITypeLib@@@Z:PROC ; CCmdTarget::GetTypeLib
EXTRN	?GetCommandMap@CCmdTarget@@MBEPBUAFX_OLECMDMAP@@XZ:PROC ; CCmdTarget::GetCommandMap
EXTRN	?GetDispatchMap@CCmdTarget@@MBEPBUAFX_DISPMAP@@XZ:PROC ; CCmdTarget::GetDispatchMap
EXTRN	?GetConnectionMap@CCmdTarget@@MBEPBUAFX_CONNECTIONMAP@@XZ:PROC ; CCmdTarget::GetConnectionMap
EXTRN	?GetEventSinkMap@CCmdTarget@@MBEPBUAFX_EVENTSINKMAP@@XZ:PROC ; CCmdTarget::GetEventSinkMap
EXTRN	?OnCreateAggregates@CCmdTarget@@UAEHXZ:PROC	; CCmdTarget::OnCreateAggregates
EXTRN	?GetInterfaceHook@CCmdTarget@@UAEPAUIUnknown@@PBX@Z:PROC ; CCmdTarget::GetInterfaceHook
EXTRN	?GetExtraConnectionPoints@CCmdTarget@@MAEHPAVCPtrArray@@@Z:PROC ; CCmdTarget::GetExtraConnectionPoints
EXTRN	?GetConnectionHook@CCmdTarget@@MAEPAUIConnectionPoint@@ABU_GUID@@@Z:PROC ; CCmdTarget::GetConnectionHook
EXTRN	?ModifyStyle@CWnd@@QAEHKKI@Z:PROC		; CWnd::ModifyStyle
EXTRN	?FromHandle@CWnd@@SGPAV1@PAUHWND__@@@Z:PROC	; CWnd::FromHandle
EXTRN	?Create@CWnd@@UAEHPBD0KABUtagRECT@@PAV1@IPAUCCreateContext@@@Z:PROC ; CWnd::Create
EXTRN	?CreateEx@CWnd@@UAEHKPBD0KHHHHPAUHWND__@@PAUHMENU__@@PAX@Z:PROC ; CWnd::CreateEx
EXTRN	?CreateEx@CWnd@@UAEHKPBD0KABUtagRECT@@PAV1@IPAX@Z:PROC ; CWnd::CreateEx
EXTRN	?DestroyWindow@CWnd@@UAEHXZ:PROC		; CWnd::DestroyWindow
EXTRN	?PreCreateWindow@CWnd@@UAEHAAUtagCREATESTRUCTA@@@Z:PROC ; CWnd::PreCreateWindow
EXTRN	?CalcWindowRect@CWnd@@UAEXPAUtagRECT@@I@Z:PROC	; CWnd::CalcWindowRect
EXTRN	?GetMenu@CWnd@@UBEPAVCMenu@@XZ:PROC		; CWnd::GetMenu
EXTRN	?SetMenu@CWnd@@UAEHPAVCMenu@@@Z:PROC		; CWnd::SetMenu
EXTRN	?SetWindowPos@CWnd@@QAEHPBV1@HHHHI@Z:PROC	; CWnd::SetWindowPos
EXTRN	?ClientToScreen@CWnd@@QBEXPAUtagRECT@@@Z:PROC	; CWnd::ClientToScreen
EXTRN	?ShowWindow@CWnd@@QAEHH@Z:PROC			; CWnd::ShowWindow
EXTRN	?OnToolHitTest@CWnd@@UBEHVCPoint@@PAUtagTOOLINFOA@@@Z:PROC ; CWnd::OnToolHitTest
EXTRN	?GetScrollBarCtrl@CWnd@@UBEPAVCScrollBar@@H@Z:PROC ; CWnd::GetScrollBarCtrl
EXTRN	?WinHelpA@CWnd@@UAEXKI@Z:PROC			; CWnd::WinHelpA
EXTRN	?HtmlHelpA@CWnd@@UAEXKI@Z:PROC			; CWnd::HtmlHelpA
EXTRN	?WinHelpInternal@CWnd@@UAEXKI@Z:PROC		; CWnd::WinHelpInternal
EXTRN	?ContinueModal@CWnd@@UAEHXZ:PROC		; CWnd::ContinueModal
EXTRN	?EndModalLoop@CWnd@@UAEXH@Z:PROC		; CWnd::EndModalLoop
EXTRN	?OnDrawIconicThumbnailOrLivePreview@CWnd@@UAEXAAVCDC@@VCRect@@VCSize@@HAAH@Z:PROC ; CWnd::OnDrawIconicThumbnailOrLivePreview
EXTRN	?GetInterfaceMap@CWnd@@MBEPBUAFX_INTERFACEMAP@@XZ:PROC ; CWnd::GetInterfaceMap
EXTRN	?EnsureStdObj@CWnd@@UAEJXZ:PROC			; CWnd::EnsureStdObj
EXTRN	?get_accParent@CWnd@@UAEJPAPAUIDispatch@@@Z:PROC ; CWnd::get_accParent
EXTRN	?get_accChildCount@CWnd@@UAEJPAJ@Z:PROC		; CWnd::get_accChildCount
EXTRN	?get_accChild@CWnd@@UAEJUtagVARIANT@@PAPAUIDispatch@@@Z:PROC ; CWnd::get_accChild
EXTRN	?get_accName@CWnd@@UAEJUtagVARIANT@@PAPA_W@Z:PROC ; CWnd::get_accName
EXTRN	?get_accValue@CWnd@@UAEJUtagVARIANT@@PAPA_W@Z:PROC ; CWnd::get_accValue
EXTRN	?get_accDescription@CWnd@@UAEJUtagVARIANT@@PAPA_W@Z:PROC ; CWnd::get_accDescription
EXTRN	?get_accRole@CWnd@@UAEJUtagVARIANT@@PAU2@@Z:PROC ; CWnd::get_accRole
EXTRN	?get_accState@CWnd@@UAEJUtagVARIANT@@PAU2@@Z:PROC ; CWnd::get_accState
EXTRN	?get_accHelp@CWnd@@UAEJUtagVARIANT@@PAPA_W@Z:PROC ; CWnd::get_accHelp
EXTRN	?get_accHelpTopic@CWnd@@UAEJPAPA_WUtagVARIANT@@PAJ@Z:PROC ; CWnd::get_accHelpTopic
EXTRN	?get_accKeyboardShortcut@CWnd@@UAEJUtagVARIANT@@PAPA_W@Z:PROC ; CWnd::get_accKeyboardShortcut
EXTRN	?get_accFocus@CWnd@@UAEJPAUtagVARIANT@@@Z:PROC	; CWnd::get_accFocus
EXTRN	?get_accSelection@CWnd@@UAEJPAUtagVARIANT@@@Z:PROC ; CWnd::get_accSelection
EXTRN	?get_accDefaultAction@CWnd@@UAEJUtagVARIANT@@PAPA_W@Z:PROC ; CWnd::get_accDefaultAction
EXTRN	?accSelect@CWnd@@UAEJJUtagVARIANT@@@Z:PROC	; CWnd::accSelect
EXTRN	?accLocation@CWnd@@UAEJPAJ000UtagVARIANT@@@Z:PROC ; CWnd::accLocation
EXTRN	?accNavigate@CWnd@@UAEJJUtagVARIANT@@PAU2@@Z:PROC ; CWnd::accNavigate
EXTRN	?accHitTest@CWnd@@UAEJJJPAUtagVARIANT@@@Z:PROC	; CWnd::accHitTest
EXTRN	?accDoDefaultAction@CWnd@@UAEJUtagVARIANT@@@Z:PROC ; CWnd::accDoDefaultAction
EXTRN	?put_accName@CWnd@@UAEJUtagVARIANT@@PA_W@Z:PROC	; CWnd::put_accName
EXTRN	?put_accValue@CWnd@@UAEJUtagVARIANT@@PA_W@Z:PROC ; CWnd::put_accValue
EXTRN	?SetProxy@CWnd@@UAEJPAUIAccessibleProxy@@@Z:PROC ; CWnd::SetProxy
EXTRN	?CreateAccessibleProxy@CWnd@@UAEJIJPAJ@Z:PROC	; CWnd::CreateAccessibleProxy
EXTRN	?OnCommand@CWnd@@MAEHIJ@Z:PROC			; CWnd::OnCommand
EXTRN	?OnNotify@CWnd@@MAEHIJPAJ@Z:PROC		; CWnd::OnNotify
EXTRN	?GetSuperWndProcAddr@CWnd@@MAEPAP6GJPAUHWND__@@IIJ@ZXZ:PROC ; CWnd::GetSuperWndProcAddr
EXTRN	?PreTranslateMessage@CWnd@@UAEHPAUtagMSG@@@Z:PROC ; CWnd::PreTranslateMessage
EXTRN	?OnAmbientProperty@CWnd@@UAEHPAVCOleControlSite@@JPAUtagVARIANT@@@Z:PROC ; CWnd::OnAmbientProperty
EXTRN	?OnWndMsg@CWnd@@MAEHIIJPAJ@Z:PROC		; CWnd::OnWndMsg
EXTRN	?Default@CWnd@@IAEJXZ:PROC			; CWnd::Default
EXTRN	?DefWindowProcA@CWnd@@MAEJIIJ@Z:PROC		; CWnd::DefWindowProcA
EXTRN	?PostNcDestroy@CWnd@@MAEXXZ:PROC		; CWnd::PostNcDestroy
EXTRN	?OnTouchInputs@CWnd@@MAEHIPAUtagTOUCHINPUT@@@Z:PROC ; CWnd::OnTouchInputs
EXTRN	?OnTouchInput@CWnd@@MAEHVCPoint@@HHPAUtagTOUCHINPUT@@@Z:PROC ; CWnd::OnTouchInput
EXTRN	?GetGestureStatus@CWnd@@MAEKVCPoint@@@Z:PROC	; CWnd::GetGestureStatus
EXTRN	?OnGestureZoom@CWnd@@MAEHVCPoint@@J@Z:PROC	; CWnd::OnGestureZoom
EXTRN	?OnGesturePan@CWnd@@MAEHVCPoint@@0@Z:PROC	; CWnd::OnGesturePan
EXTRN	?OnGestureRotate@CWnd@@MAEHVCPoint@@N@Z:PROC	; CWnd::OnGestureRotate
EXTRN	?OnGestureTwoFingerTap@CWnd@@MAEHVCPoint@@@Z:PROC ; CWnd::OnGestureTwoFingerTap
EXTRN	?OnGesturePressAndTap@CWnd@@MAEHVCPoint@@J@Z:PROC ; CWnd::OnGesturePressAndTap
EXTRN	?ResizeDynamicLayout@CWnd@@MAEXXZ:PROC		; CWnd::ResizeDynamicLayout
EXTRN	?CheckAutoCenter@CWnd@@UAEHXZ:PROC		; CWnd::CheckAutoCenter
EXTRN	?IsFrameWnd@CWnd@@UBEHXZ:PROC			; CWnd::IsFrameWnd
EXTRN	?OnFinalRelease@CWnd@@UAEXXZ:PROC		; CWnd::OnFinalRelease
EXTRN	?CreateControlContainer@CWnd@@MAEHPAPAVCOleControlContainer@@@Z:PROC ; CWnd::CreateControlContainer
EXTRN	?CreateControlSite@CWnd@@MAEHPAVCOleControlContainer@@PAPAVCOleControlSite@@IABU_GUID@@@Z:PROC ; CWnd::CreateControlSite
EXTRN	?SetOccDialogInfo@CWnd@@MAEHPAU_AFX_OCC_DIALOG_INFO@@@Z:PROC ; CWnd::SetOccDialogInfo
EXTRN	?GetOccDialogInfo@CWnd@@MAEPAU_AFX_OCC_DIALOG_INFO@@XZ:PROC ; CWnd::GetOccDialogInfo
EXTRN	?GetRuntimeClass@CTabCtrl@@UBEPAUCRuntimeClass@@XZ:PROC ; CTabCtrl::GetRuntimeClass
EXTRN	?Create@CTabCtrl@@UAEHKABUtagRECT@@PAVCWnd@@I@Z:PROC ; CTabCtrl::Create
EXTRN	?CreateEx@CTabCtrl@@UAEHKKABUtagRECT@@PAVCWnd@@I@Z:PROC ; CTabCtrl::CreateEx
EXTRN	?OnChildNotify@CTabCtrl@@MAEHIIJPAJ@Z:PROC	; CTabCtrl::OnChildNotify
EXTRN	?OnDestroy@CTabCtrl@@IAEXXZ:PROC		; CTabCtrl::OnDestroy
EXTRN	??0CTabDlgCreator@@QAE@XZ:PROC			; CTabDlgCreator::CTabDlgCreator
EXTRN	??1CTabDlgCreator@@UAE@XZ:PROC			; CTabDlgCreator::~CTabDlgCreator
EXTRN	?Init@CTabDlgCreator@@QAEXPAVCWnd@@PAVCLeftBarDlg@@PAVCTabCtrl@@0PAX@Z:PROC ; CTabDlgCreator::Init
EXTRN	?GetCaptionOfTabDlg@CTabDlgCreator@@QAEXIPAD@Z:PROC ; CTabDlgCreator::GetCaptionOfTabDlg
EXTRN	?CreateTabDlg@CTabDlgCreator@@QAEPAVCTabDlg@@I@Z:PROC ; CTabDlgCreator::CreateTabDlg
EXTRN	??0CExTabCtrl@@QAE@H@Z:PROC			; CExTabCtrl::CExTabCtrl
EXTRN	?InsertItem@CExTabCtrl@@QAEXHPAUtagTCITEMA@@I@Z:PROC ; CExTabCtrl::InsertItem
EXTRN	?SetSTTabColor@CExTabCtrl@@QAEXJ@Z:PROC		; CExTabCtrl::SetSTTabColor
EXTRN	?DrawItem@CExTabCtrl@@MAEXPAUtagDRAWITEMSTRUCT@@@Z:PROC ; CExTabCtrl::DrawItem
EXTRN	?PreSubclassWindow@CExTabCtrl@@MAEXXZ:PROC	; CExTabCtrl::PreSubclassWindow
EXTRN	?WindowProc@CExTabCtrl@@MAEJIIJ@Z:PROC		; CExTabCtrl::WindowProc
EXTRN	??1CExTabCtrl@@UAE@XZ:PROC			; CExTabCtrl::~CExTabCtrl
EXTRN	?OnSelchange@CExTabCtrl@@IAEHPAUtagNMHDR@@PAJ@Z:PROC ; CExTabCtrl::OnSelchange
EXTRN	?OnSize@CExTabCtrl@@IAEXIHH@Z:PROC		; CExTabCtrl::OnSize
EXTRN	?GetThisMessageMap@CExTabCtrl@@KGPBUAFX_MSGMAP@@XZ:PROC ; CExTabCtrl::GetThisMessageMap
EXTRN	??_ECXTabCtrl@@UAEPAXI@Z:PROC			; CXTabCtrl::`vector deleting destructor'
EXTRN	@__security_check_cookie@4:PROC
EXTRN	___CxxFrameHandler3:PROC
EXTRN	??_7type_info@@6B@:QWORD			; type_info::`vftable'
EXTRN	___security_cookie:DWORD
_BSS	SEGMENT
?RMSG_GETSIGNAL_REAL@@3IB DD 01H DUP (?)		; RMSG_GETSIGNAL_REAL
?RMSG_CHARTMAIN@@3IB DD 01H DUP (?)			; RMSG_CHARTMAIN
?RMS_ANALYSIS_FUNC@@3IB DD 01H DUP (?)			; RMS_ANALYSIS_FUNC
?RMSG_GET_USERID@@3IB DD 01H DUP (?)			; RMSG_GET_USERID
?RMSG_KSDLLINFO@@3IB DD 01H DUP (?)			; RMSG_KSDLLINFO
?RMSG_GETINFO@@3IB DD 01H DUP (?)			; RMSG_GETINFO
?RMSG_CHANGE_SKINCOLOR@@3IB DD 01H DUP (?)		; RMSG_CHANGE_SKINCOLOR
?RMSG_GET_SKINCOLOR@@3IB DD 01H DUP (?)			; RMSG_GET_SKINCOLOR
?RMSG_CHANGE_CROSSLINE@@3IB DD 01H DUP (?)		; RMSG_CHANGE_CROSSLINE
?RMSG_REPLAY_REAL@@3IB DD 01H DUP (?)			; RMSG_REPLAY_REAL
?RMSG_REPLAY_FAIL@@3IB DD 01H DUP (?)			; RMSG_REPLAY_FAIL
?RMSG_REPLAY_CHANGE_DATE@@3IB DD 01H DUP (?)		; RMSG_REPLAY_CHANGE_DATE
?RMSG_REPLAY_END@@3IB DD 01H DUP (?)			; RMSG_REPLAY_END
?RMSG_REPLAY_INC_SEC@@3IB DD 01H DUP (?)		; RMSG_REPLAY_INC_SEC
?RMSG_REPLAY_TOTAL_SEC@@3IB DD 01H DUP (?)		; RMSG_REPLAY_TOTAL_SEC
?RMSG_SELCHARTCODE@@3IB DD 01H DUP (?)			; RMSG_SELCHARTCODE
_BSS	ENDS
CRT$XCU	SEGMENT
?RMSG_GETSIGNAL_REAL$initializer$@@3P6AXXZA DD FLAT:??__ERMSG_GETSIGNAL_REAL@@YAXXZ ; RMSG_GETSIGNAL_REAL$initializer$
CRT$XCU	ENDS
;	COMDAT ??_R2CExTabCtrl@@8
rdata$r	SEGMENT
??_R2CExTabCtrl@@8 DD FLAT:??_R1A@?0A@EA@CExTabCtrl@@8	; CExTabCtrl::`RTTI Base Class Array'
	DD	FLAT:??_R1A@?0A@EA@CTabCtrl@@8
	DD	FLAT:??_R1A@?0A@EA@CWnd@@8
	DD	FLAT:??_R1A@?0A@EA@CCmdTarget@@8
	DD	FLAT:??_R1A@?0A@EA@CObject@@8
rdata$r	ENDS
;	COMDAT ??_R3CExTabCtrl@@8
rdata$r	SEGMENT
??_R3CExTabCtrl@@8 DD 00H				; CExTabCtrl::`RTTI Class Hierarchy Descriptor'
	DD	00H
	DD	05H
	DD	FLAT:??_R2CExTabCtrl@@8
rdata$r	ENDS
;	COMDAT ??_R0?AVCExTabCtrl@@@8
data$rs	SEGMENT
??_R0?AVCExTabCtrl@@@8 DD FLAT:??_7type_info@@6B@	; CExTabCtrl `RTTI Type Descriptor'
	DD	00H
	DB	'.?AVCExTabCtrl@@', 00H
data$rs	ENDS
;	COMDAT ??_R1A@?0A@EA@CExTabCtrl@@8
rdata$r	SEGMENT
??_R1A@?0A@EA@CExTabCtrl@@8 DD FLAT:??_R0?AVCExTabCtrl@@@8 ; CExTabCtrl::`RTTI Base Class Descriptor at (0,-1,0,64)'
	DD	04H
	DD	00H
	DD	0ffffffffH
	DD	00H
	DD	040H
	DD	FLAT:??_R3CExTabCtrl@@8
rdata$r	ENDS
;	COMDAT ??_R1A@?0A@EA@CXTabCtrl@@8
rdata$r	SEGMENT
??_R1A@?0A@EA@CXTabCtrl@@8 DD FLAT:??_R0?AVCXTabCtrl@@@8 ; CXTabCtrl::`RTTI Base Class Descriptor at (0,-1,0,64)'
	DD	05H
	DD	00H
	DD	0ffffffffH
	DD	00H
	DD	040H
	DD	FLAT:??_R3CXTabCtrl@@8
rdata$r	ENDS
;	COMDAT ??_R2CXTabCtrl@@8
rdata$r	SEGMENT
??_R2CXTabCtrl@@8 DD FLAT:??_R1A@?0A@EA@CXTabCtrl@@8	; CXTabCtrl::`RTTI Base Class Array'
	DD	FLAT:??_R1A@?0A@EA@CExTabCtrl@@8
	DD	FLAT:??_R1A@?0A@EA@CTabCtrl@@8
	DD	FLAT:??_R1A@?0A@EA@CWnd@@8
	DD	FLAT:??_R1A@?0A@EA@CCmdTarget@@8
	DD	FLAT:??_R1A@?0A@EA@CObject@@8
rdata$r	ENDS
;	COMDAT ??_R3CXTabCtrl@@8
rdata$r	SEGMENT
??_R3CXTabCtrl@@8 DD 00H				; CXTabCtrl::`RTTI Class Hierarchy Descriptor'
	DD	00H
	DD	06H
	DD	FLAT:??_R2CXTabCtrl@@8
rdata$r	ENDS
;	COMDAT ??_R0?AVCXTabCtrl@@@8
data$rs	SEGMENT
??_R0?AVCXTabCtrl@@@8 DD FLAT:??_7type_info@@6B@	; CXTabCtrl `RTTI Type Descriptor'
	DD	00H
	DB	'.?AVCXTabCtrl@@', 00H
data$rs	ENDS
;	COMDAT ??_R4CXTabCtrl@@6B@
rdata$r	SEGMENT
??_R4CXTabCtrl@@6B@ DD 00H				; CXTabCtrl::`RTTI Complete Object Locator'
	DD	00H
	DD	00H
	DD	FLAT:??_R0?AVCXTabCtrl@@@8
	DD	FLAT:??_R3CXTabCtrl@@8
rdata$r	ENDS
;	COMDAT ?messageMap@?1??GetThisMessageMap@CXTabCtrl@@KGPBUAFX_MSGMAP@@XZ@4U3@B
CONST	SEGMENT
?messageMap@?1??GetThisMessageMap@CXTabCtrl@@KGPBUAFX_MSGMAP@@XZ@4U3@B DD FLAT:?GetThisMessageMap@CExTabCtrl@@KGPBUAFX_MSGMAP@@XZ ; `CXTabCtrl::GetThisMessageMap'::`2'::messageMap
	DD	FLAT:?_messageEntries@?1??GetThisMessageMap@CXTabCtrl@@KGPBUAFX_MSGMAP@@XZ@4QBUAFX_MSGMAP_ENTRY@@B
CONST	ENDS
;	COMDAT ?_messageEntries@?1??GetThisMessageMap@CXTabCtrl@@KGPBUAFX_MSGMAP@@XZ@4QBUAFX_MSGMAP_ENTRY@@B
CONST	SEGMENT
?_messageEntries@?1??GetThisMessageMap@CXTabCtrl@@KGPBUAFX_MSGMAP@@XZ@4QBUAFX_MSGMAP_ENTRY@@B DD 0bc4eH ; `CXTabCtrl::GetThisMessageMap'::`2'::_messageEntries
	DD	0fdd9H
	DD	00H
	DD	00H
	DD	03eH
	DD	FLAT:?OnSelchange@CXTabCtrl@@IAEXPAUtagNMHDR@@PAJ@Z
	DD	0bc4eH
	DD	0fdd8H
	DD	00H
	DD	00H
	DD	03eH
	DD	FLAT:?OnSelchanging@CXTabCtrl@@IAEXPAUtagNMHDR@@PAJ@Z
	DD	0113H
	DD	00H
	DD	00H
	DD	00H
	DD	015H
	DD	FLAT:?OnTimer@CXTabCtrl@@IAEXI@Z
	DD	05H
	DD	00H
	DD	00H
	DD	00H
	DD	01aH
	DD	FLAT:?OnSize@CXTabCtrl@@IAEXIHH@Z
	DD	02H
	DD	00H
	DD	00H
	DD	00H
	DD	013H
	DD	FLAT:?OnDestroy@CXTabCtrl@@IAEXXZ
	DD	00H
	DD	00H
	DD	00H
	DD	00H
	DD	00H
	DD	00H
CONST	ENDS
;	COMDAT ??_7CXTabCtrl@@6B@
CONST	SEGMENT
??_7CXTabCtrl@@6B@ DD FLAT:??_R4CXTabCtrl@@6B@		; CXTabCtrl::`vftable'
	DD	FLAT:?GetRuntimeClass@CTabCtrl@@UBEPAUCRuntimeClass@@XZ
	DD	FLAT:??_ECXTabCtrl@@UAEPAXI@Z
	DD	FLAT:?Serialize@CObject@@UAEXAAVCArchive@@@Z
	DD	FLAT:?AssertValid@CObject@@UBEXXZ
	DD	FLAT:?Dump@CObject@@UBEXAAVCDumpContext@@@Z
	DD	FLAT:?OnCmdMsg@CCmdTarget@@UAEHIHPAXPAUAFX_CMDHANDLERINFO@@@Z
	DD	FLAT:?OnFinalRelease@CWnd@@UAEXXZ
	DD	FLAT:?IsInvokeAllowed@CCmdTarget@@UAEHJ@Z
	DD	FLAT:?GetDispatchIID@CCmdTarget@@UAEHPAU_GUID@@@Z
	DD	FLAT:?GetTypeInfoCount@CCmdTarget@@UAEIXZ
	DD	FLAT:?GetTypeLibCache@CCmdTarget@@UAEPAVCTypeLibCache@@XZ
	DD	FLAT:?GetTypeLib@CCmdTarget@@UAEJKPAPAUITypeLib@@@Z
	DD	FLAT:?GetMessageMap@CXTabCtrl@@MBEPBUAFX_MSGMAP@@XZ
	DD	FLAT:?GetCommandMap@CCmdTarget@@MBEPBUAFX_OLECMDMAP@@XZ
	DD	FLAT:?GetDispatchMap@CCmdTarget@@MBEPBUAFX_DISPMAP@@XZ
	DD	FLAT:?GetConnectionMap@CCmdTarget@@MBEPBUAFX_CONNECTIONMAP@@XZ
	DD	FLAT:?GetInterfaceMap@CWnd@@MBEPBUAFX_INTERFACEMAP@@XZ
	DD	FLAT:?GetEventSinkMap@CCmdTarget@@MBEPBUAFX_EVENTSINKMAP@@XZ
	DD	FLAT:?OnCreateAggregates@CCmdTarget@@UAEHXZ
	DD	FLAT:?GetInterfaceHook@CCmdTarget@@UAEPAUIUnknown@@PBX@Z
	DD	FLAT:?GetExtraConnectionPoints@CCmdTarget@@MAEHPAVCPtrArray@@@Z
	DD	FLAT:?GetConnectionHook@CCmdTarget@@MAEPAUIConnectionPoint@@ABU_GUID@@@Z
	DD	FLAT:?PreSubclassWindow@CXTabCtrl@@MAEXXZ
	DD	FLAT:?Create@CWnd@@UAEHPBD0KABUtagRECT@@PAV1@IPAUCCreateContext@@@Z
	DD	FLAT:?CreateEx@CWnd@@UAEHKPBD0KABUtagRECT@@PAV1@IPAX@Z
	DD	FLAT:?CreateEx@CWnd@@UAEHKPBD0KHHHHPAUHWND__@@PAUHMENU__@@PAX@Z
	DD	FLAT:?DestroyWindow@CWnd@@UAEHXZ
	DD	FLAT:?PreCreateWindow@CWnd@@UAEHAAUtagCREATESTRUCTA@@@Z
	DD	FLAT:?CalcWindowRect@CWnd@@UAEXPAUtagRECT@@I@Z
	DD	FLAT:?GetMenu@CWnd@@UBEPAVCMenu@@XZ
	DD	FLAT:?SetMenu@CWnd@@UAEHPAVCMenu@@@Z
	DD	FLAT:?OnToolHitTest@CWnd@@UBEHVCPoint@@PAUtagTOOLINFOA@@@Z
	DD	FLAT:?GetScrollBarCtrl@CWnd@@UBEPAVCScrollBar@@H@Z
	DD	FLAT:?WinHelpA@CWnd@@UAEXKI@Z
	DD	FLAT:?HtmlHelpA@CWnd@@UAEXKI@Z
	DD	FLAT:?WinHelpInternal@CWnd@@UAEXKI@Z
	DD	FLAT:?ContinueModal@CWnd@@UAEHXZ
	DD	FLAT:?EndModalLoop@CWnd@@UAEXH@Z
	DD	FLAT:?OnDrawIconicThumbnailOrLivePreview@CWnd@@UAEXAAVCDC@@VCRect@@VCSize@@HAAH@Z
	DD	FLAT:?EnsureStdObj@CWnd@@UAEJXZ
	DD	FLAT:?get_accParent@CWnd@@UAEJPAPAUIDispatch@@@Z
	DD	FLAT:?get_accChildCount@CWnd@@UAEJPAJ@Z
	DD	FLAT:?get_accChild@CWnd@@UAEJUtagVARIANT@@PAPAUIDispatch@@@Z
	DD	FLAT:?get_accName@CWnd@@UAEJUtagVARIANT@@PAPA_W@Z
	DD	FLAT:?get_accValue@CWnd@@UAEJUtagVARIANT@@PAPA_W@Z
	DD	FLAT:?get_accDescription@CWnd@@UAEJUtagVARIANT@@PAPA_W@Z
	DD	FLAT:?get_accRole@CWnd@@UAEJUtagVARIANT@@PAU2@@Z
	DD	FLAT:?get_accState@CWnd@@UAEJUtagVARIANT@@PAU2@@Z
	DD	FLAT:?get_accHelp@CWnd@@UAEJUtagVARIANT@@PAPA_W@Z
	DD	FLAT:?get_accHelpTopic@CWnd@@UAEJPAPA_WUtagVARIANT@@PAJ@Z
	DD	FLAT:?get_accKeyboardShortcut@CWnd@@UAEJUtagVARIANT@@PAPA_W@Z
	DD	FLAT:?get_accFocus@CWnd@@UAEJPAUtagVARIANT@@@Z
	DD	FLAT:?get_accSelection@CWnd@@UAEJPAUtagVARIANT@@@Z
	DD	FLAT:?get_accDefaultAction@CWnd@@UAEJUtagVARIANT@@PAPA_W@Z
	DD	FLAT:?accSelect@CWnd@@UAEJJUtagVARIANT@@@Z
	DD	FLAT:?accLocation@CWnd@@UAEJPAJ000UtagVARIANT@@@Z
	DD	FLAT:?accNavigate@CWnd@@UAEJJUtagVARIANT@@PAU2@@Z
	DD	FLAT:?accHitTest@CWnd@@UAEJJJPAUtagVARIANT@@@Z
	DD	FLAT:?accDoDefaultAction@CWnd@@UAEJUtagVARIANT@@@Z
	DD	FLAT:?put_accName@CWnd@@UAEJUtagVARIANT@@PA_W@Z
	DD	FLAT:?put_accValue@CWnd@@UAEJUtagVARIANT@@PA_W@Z
	DD	FLAT:?SetProxy@CWnd@@UAEJPAUIAccessibleProxy@@@Z
	DD	FLAT:?CreateAccessibleProxy@CWnd@@UAEJIJPAJ@Z
	DD	FLAT:?OnCommand@CWnd@@MAEHIJ@Z
	DD	FLAT:?OnNotify@CWnd@@MAEHIJPAJ@Z
	DD	FLAT:?GetSuperWndProcAddr@CWnd@@MAEPAP6GJPAUHWND__@@IIJ@ZXZ
	DD	FLAT:?DoDataExchange@CWnd@@MAEXPAVCDataExchange@@@Z
	DD	FLAT:?BeginModalState@CWnd@@UAEXXZ
	DD	FLAT:?EndModalState@CWnd@@UAEXXZ
	DD	FLAT:?PreTranslateMessage@CWnd@@UAEHPAUtagMSG@@@Z
	DD	FLAT:?OnAmbientProperty@CWnd@@UAEHPAVCOleControlSite@@JPAUtagVARIANT@@@Z
	DD	FLAT:?WindowProc@CXTabCtrl@@MAEJIIJ@Z
	DD	FLAT:?OnWndMsg@CWnd@@MAEHIIJPAJ@Z
	DD	FLAT:?DefWindowProcA@CWnd@@MAEJIIJ@Z
	DD	FLAT:?PostNcDestroy@CWnd@@MAEXXZ
	DD	FLAT:?OnChildNotify@CTabCtrl@@MAEHIIJPAJ@Z
	DD	FLAT:?OnTouchInputs@CWnd@@MAEHIPAUtagTOUCHINPUT@@@Z
	DD	FLAT:?OnTouchInput@CWnd@@MAEHVCPoint@@HHPAUtagTOUCHINPUT@@@Z
	DD	FLAT:?GetGestureStatus@CWnd@@MAEKVCPoint@@@Z
	DD	FLAT:?OnGestureZoom@CWnd@@MAEHVCPoint@@J@Z
	DD	FLAT:?OnGesturePan@CWnd@@MAEHVCPoint@@0@Z
	DD	FLAT:?OnGestureRotate@CWnd@@MAEHVCPoint@@N@Z
	DD	FLAT:?OnGestureTwoFingerTap@CWnd@@MAEHVCPoint@@@Z
	DD	FLAT:?OnGesturePressAndTap@CWnd@@MAEHVCPoint@@J@Z
	DD	FLAT:?ResizeDynamicLayout@CWnd@@MAEXXZ
	DD	FLAT:?CheckAutoCenter@CWnd@@UAEHXZ
	DD	FLAT:?IsFrameWnd@CWnd@@UBEHXZ
	DD	FLAT:?CreateControlContainer@CWnd@@MAEHPAPAVCOleControlContainer@@@Z
	DD	FLAT:?CreateControlSite@CWnd@@MAEHPAVCOleControlContainer@@PAPAVCOleControlSite@@IABU_GUID@@@Z
	DD	FLAT:?SetOccDialogInfo@CWnd@@MAEHPAU_AFX_OCC_DIALOG_INFO@@@Z
	DD	FLAT:?GetOccDialogInfo@CWnd@@MAEPAU_AFX_OCC_DIALOG_INFO@@XZ
	DD	FLAT:?Create@CTabCtrl@@UAEHKABUtagRECT@@PAVCWnd@@I@Z
	DD	FLAT:?CreateEx@CTabCtrl@@UAEHKKABUtagRECT@@PAVCWnd@@I@Z
	DD	FLAT:?DrawItem@CExTabCtrl@@MAEXPAUtagDRAWITEMSTRUCT@@@Z
CONST	ENDS
;	COMDAT ??_R1A@?0A@EA@CTabCtrl@@8
rdata$r	SEGMENT
??_R1A@?0A@EA@CTabCtrl@@8 DD FLAT:??_R0?AVCTabCtrl@@@8	; CTabCtrl::`RTTI Base Class Descriptor at (0,-1,0,64)'
	DD	03H
	DD	00H
	DD	0ffffffffH
	DD	00H
	DD	040H
	DD	FLAT:??_R3CTabCtrl@@8
rdata$r	ENDS
;	COMDAT ??_R2CTabCtrl@@8
rdata$r	SEGMENT
??_R2CTabCtrl@@8 DD FLAT:??_R1A@?0A@EA@CTabCtrl@@8	; CTabCtrl::`RTTI Base Class Array'
	DD	FLAT:??_R1A@?0A@EA@CWnd@@8
	DD	FLAT:??_R1A@?0A@EA@CCmdTarget@@8
	DD	FLAT:??_R1A@?0A@EA@CObject@@8
rdata$r	ENDS
;	COMDAT ??_R3CTabCtrl@@8
rdata$r	SEGMENT
??_R3CTabCtrl@@8 DD 00H					; CTabCtrl::`RTTI Class Hierarchy Descriptor'
	DD	00H
	DD	04H
	DD	FLAT:??_R2CTabCtrl@@8
rdata$r	ENDS
;	COMDAT ??_R0?AVCTabCtrl@@@8
data$rs	SEGMENT
??_R0?AVCTabCtrl@@@8 DD FLAT:??_7type_info@@6B@		; CTabCtrl `RTTI Type Descriptor'
	DD	00H
	DB	'.?AVCTabCtrl@@', 00H
data$rs	ENDS
;	COMDAT ??_R2CCmdTarget@@8
rdata$r	SEGMENT
??_R2CCmdTarget@@8 DD FLAT:??_R1A@?0A@EA@CCmdTarget@@8	; CCmdTarget::`RTTI Base Class Array'
	DD	FLAT:??_R1A@?0A@EA@CObject@@8
rdata$r	ENDS
;	COMDAT ??_R3CCmdTarget@@8
rdata$r	SEGMENT
??_R3CCmdTarget@@8 DD 00H				; CCmdTarget::`RTTI Class Hierarchy Descriptor'
	DD	00H
	DD	02H
	DD	FLAT:??_R2CCmdTarget@@8
rdata$r	ENDS
;	COMDAT ??_R0?AVCCmdTarget@@@8
data$rs	SEGMENT
??_R0?AVCCmdTarget@@@8 DD FLAT:??_7type_info@@6B@	; CCmdTarget `RTTI Type Descriptor'
	DD	00H
	DB	'.?AVCCmdTarget@@', 00H
data$rs	ENDS
;	COMDAT ??_R1A@?0A@EA@CCmdTarget@@8
rdata$r	SEGMENT
??_R1A@?0A@EA@CCmdTarget@@8 DD FLAT:??_R0?AVCCmdTarget@@@8 ; CCmdTarget::`RTTI Base Class Descriptor at (0,-1,0,64)'
	DD	01H
	DD	00H
	DD	0ffffffffH
	DD	00H
	DD	040H
	DD	FLAT:??_R3CCmdTarget@@8
rdata$r	ENDS
;	COMDAT ??_R2CWnd@@8
rdata$r	SEGMENT
??_R2CWnd@@8 DD	FLAT:??_R1A@?0A@EA@CWnd@@8		; CWnd::`RTTI Base Class Array'
	DD	FLAT:??_R1A@?0A@EA@CCmdTarget@@8
	DD	FLAT:??_R1A@?0A@EA@CObject@@8
rdata$r	ENDS
;	COMDAT ??_R3CWnd@@8
rdata$r	SEGMENT
??_R3CWnd@@8 DD	00H					; CWnd::`RTTI Class Hierarchy Descriptor'
	DD	00H
	DD	03H
	DD	FLAT:??_R2CWnd@@8
rdata$r	ENDS
;	COMDAT ??_R0?AVCWnd@@@8
data$rs	SEGMENT
??_R0?AVCWnd@@@8 DD FLAT:??_7type_info@@6B@		; CWnd `RTTI Type Descriptor'
	DD	00H
	DB	'.?AVCWnd@@', 00H
data$rs	ENDS
;	COMDAT ??_R1A@?0A@EA@CWnd@@8
rdata$r	SEGMENT
??_R1A@?0A@EA@CWnd@@8 DD FLAT:??_R0?AVCWnd@@@8		; CWnd::`RTTI Base Class Descriptor at (0,-1,0,64)'
	DD	02H
	DD	00H
	DD	0ffffffffH
	DD	00H
	DD	040H
	DD	FLAT:??_R3CWnd@@8
rdata$r	ENDS
;	COMDAT ??_R1A@?0A@EA@CObject@@8
rdata$r	SEGMENT
??_R1A@?0A@EA@CObject@@8 DD FLAT:??_R0?AVCObject@@@8	; CObject::`RTTI Base Class Descriptor at (0,-1,0,64)'
	DD	00H
	DD	00H
	DD	0ffffffffH
	DD	00H
	DD	040H
	DD	FLAT:??_R3CObject@@8
rdata$r	ENDS
;	COMDAT ??_R2CObject@@8
rdata$r	SEGMENT
??_R2CObject@@8 DD FLAT:??_R1A@?0A@EA@CObject@@8	; CObject::`RTTI Base Class Array'
rdata$r	ENDS
;	COMDAT ??_R3CObject@@8
rdata$r	SEGMENT
??_R3CObject@@8 DD 00H					; CObject::`RTTI Class Hierarchy Descriptor'
	DD	00H
	DD	01H
	DD	FLAT:??_R2CObject@@8
rdata$r	ENDS
;	COMDAT ??_R0?AVCObject@@@8
data$rs	SEGMENT
??_R0?AVCObject@@@8 DD FLAT:??_7type_info@@6B@		; CObject `RTTI Type Descriptor'
	DD	00H
	DB	'.?AVCObject@@', 00H
data$rs	ENDS
;	COMDAT xdata$x
xdata$x	SEGMENT
__unwindtable$??0CXTabCtrl@@QAE@XZ DD 0ffffffffH
	DD	FLAT:__unwindfunclet$??0CXTabCtrl@@QAE@XZ$0
__ehfuncinfo$??0CXTabCtrl@@QAE@XZ DD 019930522H
	DD	01H
	DD	FLAT:__unwindtable$??0CXTabCtrl@@QAE@XZ
	DD	2 DUP(00H)
	DD	2 DUP(00H)
	DD	00H
	DD	01H
xdata$x	ENDS
CRT$XCU	SEGMENT
?RMSG_CHARTMAIN$initializer$@@3P6AXXZA DD FLAT:??__ERMSG_CHARTMAIN@@YAXXZ ; RMSG_CHARTMAIN$initializer$
CRT$XCU	ENDS
CRT$XCU	SEGMENT
?RMS_ANALYSIS_FUNC$initializer$@@3P6AXXZA DD FLAT:??__ERMS_ANALYSIS_FUNC@@YAXXZ ; RMS_ANALYSIS_FUNC$initializer$
CRT$XCU	ENDS
CRT$XCU	SEGMENT
?RMSG_GET_USERID$initializer$@@3P6AXXZA DD FLAT:??__ERMSG_GET_USERID@@YAXXZ ; RMSG_GET_USERID$initializer$
CRT$XCU	ENDS
CRT$XCU	SEGMENT
?RMSG_KSDLLINFO$initializer$@@3P6AXXZA DD FLAT:??__ERMSG_KSDLLINFO@@YAXXZ ; RMSG_KSDLLINFO$initializer$
CRT$XCU	ENDS
CRT$XCU	SEGMENT
?RMSG_GETINFO$initializer$@@3P6AXXZA DD FLAT:??__ERMSG_GETINFO@@YAXXZ ; RMSG_GETINFO$initializer$
CRT$XCU	ENDS
CRT$XCU	SEGMENT
?RMSG_CHANGE_SKINCOLOR$initializer$@@3P6AXXZA DD FLAT:??__ERMSG_CHANGE_SKINCOLOR@@YAXXZ ; RMSG_CHANGE_SKINCOLOR$initializer$
CRT$XCU	ENDS
CRT$XCU	SEGMENT
?RMSG_GET_SKINCOLOR$initializer$@@3P6AXXZA DD FLAT:??__ERMSG_GET_SKINCOLOR@@YAXXZ ; RMSG_GET_SKINCOLOR$initializer$
CRT$XCU	ENDS
CRT$XCU	SEGMENT
?RMSG_CHANGE_CROSSLINE$initializer$@@3P6AXXZA DD FLAT:??__ERMSG_CHANGE_CROSSLINE@@YAXXZ ; RMSG_CHANGE_CROSSLINE$initializer$
CRT$XCU	ENDS
CRT$XCU	SEGMENT
?RMSG_REPLAY_REAL$initializer$@@3P6AXXZA DD FLAT:??__ERMSG_REPLAY_REAL@@YAXXZ ; RMSG_REPLAY_REAL$initializer$
CRT$XCU	ENDS
CRT$XCU	SEGMENT
?RMSG_REPLAY_FAIL$initializer$@@3P6AXXZA DD FLAT:??__ERMSG_REPLAY_FAIL@@YAXXZ ; RMSG_REPLAY_FAIL$initializer$
CRT$XCU	ENDS
CRT$XCU	SEGMENT
?RMSG_REPLAY_CHANGE_DATE$initializer$@@3P6AXXZA DD FLAT:??__ERMSG_REPLAY_CHANGE_DATE@@YAXXZ ; RMSG_REPLAY_CHANGE_DATE$initializer$
CRT$XCU	ENDS
CRT$XCU	SEGMENT
?RMSG_REPLAY_END$initializer$@@3P6AXXZA DD FLAT:??__ERMSG_REPLAY_END@@YAXXZ ; RMSG_REPLAY_END$initializer$
CRT$XCU	ENDS
CRT$XCU	SEGMENT
?RMSG_REPLAY_INC_SEC$initializer$@@3P6AXXZA DD FLAT:??__ERMSG_REPLAY_INC_SEC@@YAXXZ ; RMSG_REPLAY_INC_SEC$initializer$
CRT$XCU	ENDS
CRT$XCU	SEGMENT
?RMSG_REPLAY_TOTAL_SEC$initializer$@@3P6AXXZA DD FLAT:??__ERMSG_REPLAY_TOTAL_SEC@@YAXXZ ; RMSG_REPLAY_TOTAL_SEC$initializer$
CRT$XCU	ENDS
CRT$XCU	SEGMENT
?RMSG_SELCHARTCODE$initializer$@@3P6AXXZA DD FLAT:??__ERMSG_SELCHARTCODE@@YAXXZ ; RMSG_SELCHARTCODE$initializer$
CRT$XCU	ENDS
; Function compile flags: /Ogtp
; File D:\git\src\IBK\IBK_DRFN\ProjSrc\SrcDrfn\Chart\comparechart\StdDialog.h
;	COMDAT ??__ERMSG_SELCHARTCODE@@YAXXZ
text$di	SEGMENT
??__ERMSG_SELCHARTCODE@@YAXXZ PROC			; `dynamic initializer for 'RMSG_SELCHARTCODE'', COMDAT

; 73   : const UINT RMSG_SELCHARTCODE = ::RegisterWindowMessage( "RMSG_SELCHARTCODE" );

  00000	68 00 00 00 00	 push	 OFFSET ??_C@_0BC@LHNMEPFM@RMSG_SELCHARTCODE@
  00005	ff 15 00 00 00
	00		 call	 DWORD PTR __imp__RegisterWindowMessageA@4
  0000b	a3 00 00 00 00	 mov	 DWORD PTR ?RMSG_SELCHARTCODE@@3IB, eax
  00010	c3		 ret	 0
??__ERMSG_SELCHARTCODE@@YAXXZ ENDP			; `dynamic initializer for 'RMSG_SELCHARTCODE''
text$di	ENDS
; Function compile flags: /Ogtp
; File D:\git\src\IBK\IBK_DRFN\ProjSrc\SrcDrfn\Chart\chart_common\ReplayChartInfoDef.h
;	COMDAT ??__ERMSG_REPLAY_TOTAL_SEC@@YAXXZ
text$di	SEGMENT
??__ERMSG_REPLAY_TOTAL_SEC@@YAXXZ PROC			; `dynamic initializer for 'RMSG_REPLAY_TOTAL_SEC'', COMDAT

; 97   : 	const UINT RMSG_REPLAY_TOTAL_SEC = ::RegisterWindowMessage(_T("RMSG_REPLAY_TOTAL_SEC"));		// 전체 시간(초단위)를 전송

  00000	68 00 00 00 00	 push	 OFFSET ??_C@_0BG@GIAJEIJF@RMSG_REPLAY_TOTAL_SEC@
  00005	ff 15 00 00 00
	00		 call	 DWORD PTR __imp__RegisterWindowMessageA@4
  0000b	a3 00 00 00 00	 mov	 DWORD PTR ?RMSG_REPLAY_TOTAL_SEC@@3IB, eax
  00010	c3		 ret	 0
??__ERMSG_REPLAY_TOTAL_SEC@@YAXXZ ENDP			; `dynamic initializer for 'RMSG_REPLAY_TOTAL_SEC''
text$di	ENDS
; Function compile flags: /Ogtp
; File D:\git\src\IBK\IBK_DRFN\ProjSrc\SrcDrfn\Chart\chart_common\ReplayChartInfoDef.h
;	COMDAT ??__ERMSG_REPLAY_INC_SEC@@YAXXZ
text$di	SEGMENT
??__ERMSG_REPLAY_INC_SEC@@YAXXZ PROC			; `dynamic initializer for 'RMSG_REPLAY_INC_SEC'', COMDAT

; 96   : 	const UINT RMSG_REPLAY_INC_SEC = ::RegisterWindowMessage(_T("RMSG_REPLAY_INC_SEC"));			// 1초가 증가 될때마다 전송

  00000	68 00 00 00 00	 push	 OFFSET ??_C@_0BE@JFCIMCIP@RMSG_REPLAY_INC_SEC@
  00005	ff 15 00 00 00
	00		 call	 DWORD PTR __imp__RegisterWindowMessageA@4
  0000b	a3 00 00 00 00	 mov	 DWORD PTR ?RMSG_REPLAY_INC_SEC@@3IB, eax
  00010	c3		 ret	 0
??__ERMSG_REPLAY_INC_SEC@@YAXXZ ENDP			; `dynamic initializer for 'RMSG_REPLAY_INC_SEC''
text$di	ENDS
; Function compile flags: /Ogtp
; File D:\git\src\IBK\IBK_DRFN\ProjSrc\SrcDrfn\Chart\chart_common\ReplayChartInfoDef.h
;	COMDAT ??__ERMSG_REPLAY_END@@YAXXZ
text$di	SEGMENT
??__ERMSG_REPLAY_END@@YAXXZ PROC			; `dynamic initializer for 'RMSG_REPLAY_END'', COMDAT

; 95   : 	const UINT RMSG_REPLAY_END			= ::RegisterWindowMessage(_T("RMSG_REPLAY_END"));

  00000	68 00 00 00 00	 push	 OFFSET ??_C@_0BA@NKHHCPON@RMSG_REPLAY_END@
  00005	ff 15 00 00 00
	00		 call	 DWORD PTR __imp__RegisterWindowMessageA@4
  0000b	a3 00 00 00 00	 mov	 DWORD PTR ?RMSG_REPLAY_END@@3IB, eax
  00010	c3		 ret	 0
??__ERMSG_REPLAY_END@@YAXXZ ENDP			; `dynamic initializer for 'RMSG_REPLAY_END''
text$di	ENDS
; Function compile flags: /Ogtp
; File D:\git\src\IBK\IBK_DRFN\ProjSrc\SrcDrfn\Chart\chart_common\ReplayChartInfoDef.h
;	COMDAT ??__ERMSG_REPLAY_CHANGE_DATE@@YAXXZ
text$di	SEGMENT
??__ERMSG_REPLAY_CHANGE_DATE@@YAXXZ PROC		; `dynamic initializer for 'RMSG_REPLAY_CHANGE_DATE'', COMDAT

; 94   : 	const UINT RMSG_REPLAY_CHANGE_DATE	= ::RegisterWindowMessage(_T("RMSG_REPLAY_CHANGE_DATE"));

  00000	68 00 00 00 00	 push	 OFFSET ??_C@_0BI@KDGAIIMD@RMSG_REPLAY_CHANGE_DATE@
  00005	ff 15 00 00 00
	00		 call	 DWORD PTR __imp__RegisterWindowMessageA@4
  0000b	a3 00 00 00 00	 mov	 DWORD PTR ?RMSG_REPLAY_CHANGE_DATE@@3IB, eax
  00010	c3		 ret	 0
??__ERMSG_REPLAY_CHANGE_DATE@@YAXXZ ENDP		; `dynamic initializer for 'RMSG_REPLAY_CHANGE_DATE''
text$di	ENDS
; Function compile flags: /Ogtp
; File D:\git\src\IBK\IBK_DRFN\ProjSrc\SrcDrfn\Chart\chart_common\ReplayChartInfoDef.h
;	COMDAT ??__ERMSG_REPLAY_FAIL@@YAXXZ
text$di	SEGMENT
??__ERMSG_REPLAY_FAIL@@YAXXZ PROC			; `dynamic initializer for 'RMSG_REPLAY_FAIL'', COMDAT

; 93   : 	const UINT RMSG_REPLAY_FAIL			= ::RegisterWindowMessage(_T("RMSG_REPLAY_FAIL"));

  00000	68 00 00 00 00	 push	 OFFSET ??_C@_0BB@JFLGBADG@RMSG_REPLAY_FAIL@
  00005	ff 15 00 00 00
	00		 call	 DWORD PTR __imp__RegisterWindowMessageA@4
  0000b	a3 00 00 00 00	 mov	 DWORD PTR ?RMSG_REPLAY_FAIL@@3IB, eax
  00010	c3		 ret	 0
??__ERMSG_REPLAY_FAIL@@YAXXZ ENDP			; `dynamic initializer for 'RMSG_REPLAY_FAIL''
text$di	ENDS
; Function compile flags: /Ogtp
; File D:\git\src\IBK\IBK_DRFN\ProjSrc\SrcDrfn\Chart\chart_common\ReplayChartInfoDef.h
;	COMDAT ??__ERMSG_REPLAY_REAL@@YAXXZ
text$di	SEGMENT
??__ERMSG_REPLAY_REAL@@YAXXZ PROC			; `dynamic initializer for 'RMSG_REPLAY_REAL'', COMDAT

; 92   : 	const UINT RMSG_REPLAY_REAL			= ::RegisterWindowMessage(_T("RMSG_REPLAY_REAL"));

  00000	68 00 00 00 00	 push	 OFFSET ??_C@_0BB@IBKHOHJL@RMSG_REPLAY_REAL@
  00005	ff 15 00 00 00
	00		 call	 DWORD PTR __imp__RegisterWindowMessageA@4
  0000b	a3 00 00 00 00	 mov	 DWORD PTR ?RMSG_REPLAY_REAL@@3IB, eax
  00010	c3		 ret	 0
??__ERMSG_REPLAY_REAL@@YAXXZ ENDP			; `dynamic initializer for 'RMSG_REPLAY_REAL''
text$di	ENDS
; Function compile flags: /Ogtp
; File D:\git\src\IBK\IBK_DRFN\ProjSrc\SrcDrfn\Chart\comparechart\define\ChartMsgDef.h
;	COMDAT ??__ERMSG_CHANGE_CROSSLINE@@YAXXZ
text$di	SEGMENT
??__ERMSG_CHANGE_CROSSLINE@@YAXXZ PROC			; `dynamic initializer for 'RMSG_CHANGE_CROSSLINE'', COMDAT

; 216  : const UINT RMSG_CHANGE_CROSSLINE = ::RegisterWindowMessage(_T("RMSG_CHANGE_CROSSLINE"));

  00000	68 00 00 00 00	 push	 OFFSET ??_C@_0BG@LNLCJKPF@RMSG_CHANGE_CROSSLINE@
  00005	ff 15 00 00 00
	00		 call	 DWORD PTR __imp__RegisterWindowMessageA@4
  0000b	a3 00 00 00 00	 mov	 DWORD PTR ?RMSG_CHANGE_CROSSLINE@@3IB, eax
  00010	c3		 ret	 0
??__ERMSG_CHANGE_CROSSLINE@@YAXXZ ENDP			; `dynamic initializer for 'RMSG_CHANGE_CROSSLINE''
text$di	ENDS
; Function compile flags: /Ogtp
; File D:\git\src\IBK\IBK_DRFN\ProjSrc\SrcDrfn\Chart\comparechart\define\ChartMsgDef.h
;	COMDAT ??__ERMSG_GET_SKINCOLOR@@YAXXZ
text$di	SEGMENT
??__ERMSG_GET_SKINCOLOR@@YAXXZ PROC			; `dynamic initializer for 'RMSG_GET_SKINCOLOR'', COMDAT

; 214  : const UINT RMSG_GET_SKINCOLOR = ::RegisterWindowMessage(_T("RMSG_GET_SKINCOLOR"));

  00000	68 00 00 00 00	 push	 OFFSET ??_C@_0BD@FLDNDDHK@RMSG_GET_SKINCOLOR@
  00005	ff 15 00 00 00
	00		 call	 DWORD PTR __imp__RegisterWindowMessageA@4
  0000b	a3 00 00 00 00	 mov	 DWORD PTR ?RMSG_GET_SKINCOLOR@@3IB, eax
  00010	c3		 ret	 0
??__ERMSG_GET_SKINCOLOR@@YAXXZ ENDP			; `dynamic initializer for 'RMSG_GET_SKINCOLOR''
text$di	ENDS
; Function compile flags: /Ogtp
; File D:\git\src\IBK\IBK_DRFN\ProjSrc\SrcDrfn\Chart\comparechart\define\ChartMsgDef.h
;	COMDAT ??__ERMSG_CHANGE_SKINCOLOR@@YAXXZ
text$di	SEGMENT
??__ERMSG_CHANGE_SKINCOLOR@@YAXXZ PROC			; `dynamic initializer for 'RMSG_CHANGE_SKINCOLOR'', COMDAT

; 213  : const UINT RMSG_CHANGE_SKINCOLOR = ::RegisterWindowMessage(_T("RMSG_CHANGE_SKINCOLOR"));

  00000	68 00 00 00 00	 push	 OFFSET ??_C@_0BG@CNPAHNGG@RMSG_CHANGE_SKINCOLOR@
  00005	ff 15 00 00 00
	00		 call	 DWORD PTR __imp__RegisterWindowMessageA@4
  0000b	a3 00 00 00 00	 mov	 DWORD PTR ?RMSG_CHANGE_SKINCOLOR@@3IB, eax
  00010	c3		 ret	 0
??__ERMSG_CHANGE_SKINCOLOR@@YAXXZ ENDP			; `dynamic initializer for 'RMSG_CHANGE_SKINCOLOR''
text$di	ENDS
; Function compile flags: /Ogtp
; File D:\git\src\IBK\IBK_DRFN\ProjSrc\SrcDrfn\Chart\comparechart\define\ChartMsgDef.h
;	COMDAT ??__ERMSG_GETINFO@@YAXXZ
text$di	SEGMENT
??__ERMSG_GETINFO@@YAXXZ PROC				; `dynamic initializer for 'RMSG_GETINFO'', COMDAT

; 204  : const UINT RMSG_GETINFO = ::RegisterWindowMessage(_T("RMSG_GETINFO"));

  00000	68 00 00 00 00	 push	 OFFSET ??_C@_0N@IIOKMIEH@RMSG_GETINFO@
  00005	ff 15 00 00 00
	00		 call	 DWORD PTR __imp__RegisterWindowMessageA@4
  0000b	a3 00 00 00 00	 mov	 DWORD PTR ?RMSG_GETINFO@@3IB, eax
  00010	c3		 ret	 0
??__ERMSG_GETINFO@@YAXXZ ENDP				; `dynamic initializer for 'RMSG_GETINFO''
text$di	ENDS
; Function compile flags: /Ogtp
; File D:\git\src\IBK\IBK_DRFN\ProjSrc\SrcDrfn\Chart\comparechart\define\ChartMsgDef.h
;	COMDAT ??__ERMSG_KSDLLINFO@@YAXXZ
text$di	SEGMENT
??__ERMSG_KSDLLINFO@@YAXXZ PROC				; `dynamic initializer for 'RMSG_KSDLLINFO'', COMDAT

; 203  : const UINT RMSG_KSDLLINFO = ::RegisterWindowMessage(_T("RMSG_KSDLLINFO"));		// TrmCompCharView에게 정보얻기

  00000	68 00 00 00 00	 push	 OFFSET ??_C@_0P@LFDACNFE@RMSG_KSDLLINFO@
  00005	ff 15 00 00 00
	00		 call	 DWORD PTR __imp__RegisterWindowMessageA@4
  0000b	a3 00 00 00 00	 mov	 DWORD PTR ?RMSG_KSDLLINFO@@3IB, eax
  00010	c3		 ret	 0
??__ERMSG_KSDLLINFO@@YAXXZ ENDP				; `dynamic initializer for 'RMSG_KSDLLINFO''
text$di	ENDS
; Function compile flags: /Ogtp
; File D:\git\src\IBK\IBK_DRFN\ProjSrc\SrcDrfn\Chart\comparechart\define\ChartMsgDef.h
;	COMDAT ??__ERMSG_GET_USERID@@YAXXZ
text$di	SEGMENT
??__ERMSG_GET_USERID@@YAXXZ PROC			; `dynamic initializer for 'RMSG_GET_USERID'', COMDAT

; 200  : const UINT RMSG_GET_USERID = ::RegisterWindowMessage(_T("RMSG_GET_USERID"));	// User ID 얻기

  00000	68 00 00 00 00	 push	 OFFSET ??_C@_0BA@HKNFENJL@RMSG_GET_USERID@
  00005	ff 15 00 00 00
	00		 call	 DWORD PTR __imp__RegisterWindowMessageA@4
  0000b	a3 00 00 00 00	 mov	 DWORD PTR ?RMSG_GET_USERID@@3IB, eax
  00010	c3		 ret	 0
??__ERMSG_GET_USERID@@YAXXZ ENDP			; `dynamic initializer for 'RMSG_GET_USERID''
text$di	ENDS
; Function compile flags: /Ogtp
; File D:\git\src\IBK\IBK_DRFN\ProjSrc\SrcDrfn\Chart\comparechart\define\ChartMsgDef.h
;	COMDAT ??__ERMS_ANALYSIS_FUNC@@YAXXZ
text$di	SEGMENT
??__ERMS_ANALYSIS_FUNC@@YAXXZ PROC			; `dynamic initializer for 'RMS_ANALYSIS_FUNC'', COMDAT

; 196  : const UINT RMS_ANALYSIS_FUNC	= ::RegisterWindowMessage(_T("RMS_ANALYSIS_FUNC"));

  00000	68 00 00 00 00	 push	 OFFSET ??_C@_0BC@MMPGLPDH@RMS_ANALYSIS_FUNC@
  00005	ff 15 00 00 00
	00		 call	 DWORD PTR __imp__RegisterWindowMessageA@4
  0000b	a3 00 00 00 00	 mov	 DWORD PTR ?RMS_ANALYSIS_FUNC@@3IB, eax
  00010	c3		 ret	 0
??__ERMS_ANALYSIS_FUNC@@YAXXZ ENDP			; `dynamic initializer for 'RMS_ANALYSIS_FUNC''
text$di	ENDS
; Function compile flags: /Ogtp
; File D:\git\src\IBK\IBK_DRFN\ProjSrc\SrcDrfn\Chart\comparechart\define\ChartMsgDef.h
;	COMDAT ??__ERMSG_CHARTMAIN@@YAXXZ
text$di	SEGMENT
??__ERMSG_CHARTMAIN@@YAXXZ PROC				; `dynamic initializer for 'RMSG_CHARTMAIN'', COMDAT

; 193  : const UINT RMSG_CHARTMAIN		= ::RegisterWindowMessage(_T("RMSG_CHARTMAIN"));

  00000	68 00 00 00 00	 push	 OFFSET ??_C@_0P@KHFCBIOH@RMSG_CHARTMAIN@
  00005	ff 15 00 00 00
	00		 call	 DWORD PTR __imp__RegisterWindowMessageA@4
  0000b	a3 00 00 00 00	 mov	 DWORD PTR ?RMSG_CHARTMAIN@@3IB, eax
  00010	c3		 ret	 0
??__ERMSG_CHARTMAIN@@YAXXZ ENDP				; `dynamic initializer for 'RMSG_CHARTMAIN''
text$di	ENDS
; Function compile flags: /Ogtp
; File D:\git\src\IBK\IBK_DRFN\ProjSrc\SrcDrfn\Chart\commontr\TRDefine.h
;	COMDAT ??__ERMSG_GETSIGNAL_REAL@@YAXXZ
text$di	SEGMENT
??__ERMSG_GETSIGNAL_REAL@@YAXXZ PROC			; `dynamic initializer for 'RMSG_GETSIGNAL_REAL'', COMDAT

; 213  : const UINT RMSG_GETSIGNAL_REAL = ::RegisterWindowMessage(_T("RMSG_GETSIGNAL_REAL"));

  00000	68 00 00 00 00	 push	 OFFSET ??_C@_0BE@FJPKENOB@RMSG_GETSIGNAL_REAL@
  00005	ff 15 00 00 00
	00		 call	 DWORD PTR __imp__RegisterWindowMessageA@4
  0000b	a3 00 00 00 00	 mov	 DWORD PTR ?RMSG_GETSIGNAL_REAL@@3IB, eax
  00010	c3		 ret	 0
??__ERMSG_GETSIGNAL_REAL@@YAXXZ ENDP			; `dynamic initializer for 'RMSG_GETSIGNAL_REAL''
text$di	ENDS
; Function compile flags: /Ogtp
; File D:\git\src\IBK\IBK_DRFN\ProjSrc\SrcDrfn\Chart\comparechart\XTabCtrl.cpp
; File C:\Program Files (x86)\Microsoft Visual Studio\2019\Community\VC\Tools\MSVC\14.29.30133\atlmfc\include\afx.inl
;	COMDAT ??_GCXTabCtrl@@UAEPAXI@Z
_TEXT	SEGMENT
___flags$ = 8						; size = 4
??_GCXTabCtrl@@UAEPAXI@Z PROC				; CXTabCtrl::`scalar deleting destructor', COMDAT
; _this$ = ecx
  00000	55		 push	 ebp
  00001	8b ec		 mov	 ebp, esp
; File D:\git\src\IBK\IBK_DRFN\ProjSrc\SrcDrfn\Chart\comparechart\XTabCtrl.cpp

; 52   : {

  00003	56		 push	 esi
  00004	8b f1		 mov	 esi, ecx

; 53   : 	
; 54   : }

  00006	8d 8e 88 00 00
	00		 lea	 ecx, DWORD PTR [esi+136]
  0000c	c7 06 00 00 00
	00		 mov	 DWORD PTR [esi], OFFSET ??_7CXTabCtrl@@6B@
  00012	e8 00 00 00 00	 call	 ??1CTabDlgCreator@@UAE@XZ ; CTabDlgCreator::~CTabDlgCreator
  00017	8b ce		 mov	 ecx, esi
  00019	e8 00 00 00 00	 call	 ??1CExTabCtrl@@UAE@XZ	; CExTabCtrl::~CExTabCtrl
  0001e	8b 45 08	 mov	 eax, DWORD PTR ___flags$[ebp]
  00021	a8 01		 test	 al, 1
  00023	74 22		 je	 SHORT $LN12@scalar
  00025	a8 04		 test	 al, 4
  00027	75 10		 jne	 SHORT $LN3@scalar
; File C:\Program Files (x86)\Microsoft Visual Studio\2019\Community\VC\Tools\MSVC\14.29.30133\atlmfc\include\afx.inl

; 112  : 	{ ::operator delete(p); }

  00029	56		 push	 esi
  0002a	e8 00 00 00 00	 call	 ??3@YAXPAX@Z		; operator delete
  0002f	83 c4 04	 add	 esp, 4
  00032	8b c6		 mov	 eax, esi
  00034	5e		 pop	 esi
  00035	5d		 pop	 ebp
  00036	c2 04 00	 ret	 4
$LN3@scalar:
  00039	68 18 01 00 00	 push	 280			; 00000118H
  0003e	56		 push	 esi
  0003f	e8 00 00 00 00	 call	 ?__global_delete@@YAXPAXI@Z ; __global_delete
  00044	83 c4 08	 add	 esp, 8
$LN12@scalar:
  00047	8b c6		 mov	 eax, esi
  00049	5e		 pop	 esi
  0004a	5d		 pop	 ebp
  0004b	c2 04 00	 ret	 4
??_GCXTabCtrl@@UAEPAXI@Z ENDP				; CXTabCtrl::`scalar deleting destructor'
_TEXT	ENDS
; Function compile flags: /Ogtp
; File D:\git\src\IBK\IBK_DRFN\ProjSrc\SrcDrfn\Chart\comparechart\XTabCtrl.cpp
;	COMDAT ?GetMessageMap@CXTabCtrl@@MBEPBUAFX_MSGMAP@@XZ
_TEXT	SEGMENT
?GetMessageMap@CXTabCtrl@@MBEPBUAFX_MSGMAP@@XZ PROC	; CXTabCtrl::GetMessageMap, COMDAT
; _this$ = ecx

; 57   : BEGIN_MESSAGE_MAP(CXTabCtrl, CExTabCtrl)

  00000	b8 00 00 00 00	 mov	 eax, OFFSET ?messageMap@?1??GetThisMessageMap@CXTabCtrl@@KGPBUAFX_MSGMAP@@XZ@4U3@B
  00005	c3		 ret	 0
?GetMessageMap@CXTabCtrl@@MBEPBUAFX_MSGMAP@@XZ ENDP	; CXTabCtrl::GetMessageMap
_TEXT	ENDS
; Function compile flags: /Ogtp
; File D:\git\src\IBK\IBK_DRFN\ProjSrc\SrcDrfn\Chart\comparechart\XTabCtrl.cpp
;	COMDAT ?GetThisMessageMap@CXTabCtrl@@KGPBUAFX_MSGMAP@@XZ
_TEXT	SEGMENT
?GetThisMessageMap@CXTabCtrl@@KGPBUAFX_MSGMAP@@XZ PROC	; CXTabCtrl::GetThisMessageMap, COMDAT

; 58   : 	//{{AFX_MSG_MAP(CXTabCtrl)
; 59   : 	ON_NOTIFY_REFLECT(TCN_SELCHANGE, OnSelchange)
; 60   : 	ON_NOTIFY_REFLECT(TCN_SELCHANGING, OnSelchanging)
; 61   : 	//ON_WM_MOUSEMOVE()
; 62   : 	ON_WM_TIMER()
; 63   : 	//ON_WM_LBUTTONDOWN()
; 64   : 	//ON_WM_LBUTTONUP()
; 65   : 	ON_WM_SIZE()
; 66   : 	//ON_WM_ERASEBKGND()
; 67   : 	//ON_WM_PAINT()
; 68   : 	ON_WM_DESTROY()
; 69   : 	//}}AFX_MSG_MAP
; 70   : END_MESSAGE_MAP()

  00000	b8 00 00 00 00	 mov	 eax, OFFSET ?messageMap@?1??GetThisMessageMap@CXTabCtrl@@KGPBUAFX_MSGMAP@@XZ@4U3@B
  00005	c3		 ret	 0
?GetThisMessageMap@CXTabCtrl@@KGPBUAFX_MSGMAP@@XZ ENDP	; CXTabCtrl::GetThisMessageMap
_TEXT	ENDS
; Function compile flags: /Ogtp
; File D:\git\src\IBK\IBK_DRFN\ProjSrc\SrcDrfn\Chart\comparechart\XTabCtrl.cpp
;	COMDAT ?OnDestroy@CXTabCtrl@@IAEXXZ
_TEXT	SEGMENT
?OnDestroy@CXTabCtrl@@IAEXXZ PROC			; CXTabCtrl::OnDestroy, COMDAT
; _this$ = ecx

; 737  : {

  00000	56		 push	 esi
  00001	8b f1		 mov	 esi, ecx

; 148  : 	if(m_pTabDlgFocused)

  00003	8b 8e 0c 01 00
	00		 mov	 ecx, DWORD PTR [esi+268]
  00009	85 c9		 test	 ecx, ecx
  0000b	74 20		 je	 SHORT $LN7@OnDestroy

; 149  : 	{
; 150  : 		m_pTabDlgFocused->DestroyWindow();		

  0000d	8b 01		 mov	 eax, DWORD PTR [ecx]
  0000f	ff 50 68	 call	 DWORD PTR [eax+104]

; 151  : 		delete m_pTabDlgFocused;

  00012	8b 8e 0c 01 00
	00		 mov	 ecx, DWORD PTR [esi+268]
  00018	85 c9		 test	 ecx, ecx
  0001a	74 07		 je	 SHORT $LN9@OnDestroy
  0001c	8b 01		 mov	 eax, DWORD PTR [ecx]
  0001e	6a 01		 push	 1
  00020	ff 50 04	 call	 DWORD PTR [eax+4]
$LN9@OnDestroy:

; 152  : 		m_pTabDlgFocused = NULL;	

  00023	c7 86 0c 01 00
	00 00 00 00 00	 mov	 DWORD PTR [esi+268], 0
$LN7@OnDestroy:

; 738  : 	DeleteCurrentDlg();
; 739  : 	if(m_pTabDlgCodeSearch)

  0002d	8b 8e 10 01 00
	00		 mov	 ecx, DWORD PTR [esi+272]
  00033	85 c9		 test	 ecx, ecx
  00035	74 20		 je	 SHORT $LN2@OnDestroy

; 740  : 	{
; 741  : 		m_pTabDlgCodeSearch->DestroyWindow();

  00037	8b 01		 mov	 eax, DWORD PTR [ecx]
  00039	ff 50 68	 call	 DWORD PTR [eax+104]

; 742  : 		delete m_pTabDlgCodeSearch;

  0003c	8b 8e 10 01 00
	00		 mov	 ecx, DWORD PTR [esi+272]
  00042	85 c9		 test	 ecx, ecx
  00044	74 07		 je	 SHORT $LN4@OnDestroy
  00046	8b 01		 mov	 eax, DWORD PTR [ecx]
  00048	6a 01		 push	 1
  0004a	ff 50 04	 call	 DWORD PTR [eax+4]
$LN4@OnDestroy:

; 743  : 		m_pTabDlgCodeSearch = NULL;

  0004d	c7 86 10 01 00
	00 00 00 00 00	 mov	 DWORD PTR [esi+272], 0
$LN2@OnDestroy:

; 744  : 	}
; 745  : 	CExTabCtrl::OnDestroy();

  00057	8b ce		 mov	 ecx, esi
  00059	5e		 pop	 esi
  0005a	e9 00 00 00 00	 jmp	 ?OnDestroy@CTabCtrl@@IAEXXZ ; CTabCtrl::OnDestroy
?OnDestroy@CXTabCtrl@@IAEXXZ ENDP			; CXTabCtrl::OnDestroy
_TEXT	ENDS
; Function compile flags: /Ogtp
; File D:\git\src\IBK\IBK_DRFN\ProjSrc\SrcDrfn\Chart\comparechart\XTabCtrl.cpp
; File C:\Program Files (x86)\Microsoft Visual Studio\2019\Community\VC\Tools\MSVC\14.29.30133\atlmfc\include\afxcmn.inl
; File D:\git\src\IBK\IBK_DRFN\ProjSrc\SrcDrfn\Chart\comparechart\XTabCtrl.cpp
; File C:\Program Files (x86)\Microsoft Visual Studio\2019\Community\VC\Tools\MSVC\14.29.30133\atlmfc\include\afxcmn.inl
; File D:\git\src\IBK\IBK_DRFN\ProjSrc\SrcDrfn\Chart\comparechart\XTabCtrl.cpp
; File D:\git\src\IBK\IBK_DRFN\ProjSrc\SrcDrfn\Chart\comparechart\XTabCtrl.h
; File D:\git\src\IBK\IBK_DRFN\ProjSrc\SrcDrfn\Chart\comparechart\XTabCtrl.cpp
; File C:\Program Files (x86)\Microsoft Visual Studio\2019\Community\VC\Tools\MSVC\14.29.30133\atlmfc\include\afxwin2.inl
; File D:\git\src\IBK\IBK_DRFN\ProjSrc\SrcDrfn\Chart\comparechart\XTabCtrl.cpp
;	COMDAT ?OnSize@CXTabCtrl@@IAEXIHH@Z
_TEXT	SEGMENT
_x$1$ = -28						; size = 4
_this$GSCopy$1$ = -24					; size = 4
_rect$1 = -20						; size = 16
__$ArrayPad$ = -4					; size = 4
_nType$ = 8						; size = 4
_cx$ = 12						; size = 4
_cy$ = 16						; size = 4
?OnSize@CXTabCtrl@@IAEXIHH@Z PROC			; CXTabCtrl::OnSize, COMDAT
; _this$ = ecx

; 583  : {

  00000	55		 push	 ebp
  00001	8b ec		 mov	 ebp, esp
  00003	83 ec 1c	 sub	 esp, 28			; 0000001cH
  00006	a1 00 00 00 00	 mov	 eax, DWORD PTR ___security_cookie
  0000b	33 c5		 xor	 eax, ebp
  0000d	89 45 fc	 mov	 DWORD PTR __$ArrayPad$[ebp], eax
  00010	53		 push	 ebx

; 584  : 	CExTabCtrl::OnSize(nType, cx, cy);

  00011	8b 5d 0c	 mov	 ebx, DWORD PTR _cx$[ebp]
  00014	56		 push	 esi
  00015	57		 push	 edi
  00016	8b 7d 10	 mov	 edi, DWORD PTR _cy$[ebp]
  00019	8b f1		 mov	 esi, ecx
  0001b	57		 push	 edi
  0001c	53		 push	 ebx
  0001d	ff 75 08	 push	 DWORD PTR _nType$[ebp]
  00020	89 75 e8	 mov	 DWORD PTR _this$GSCopy$1$[ebp], esi
  00023	e8 00 00 00 00	 call	 ?OnSize@CExTabCtrl@@IAEXIHH@Z ; CExTabCtrl::OnSize
; File C:\Program Files (x86)\Microsoft Visual Studio\2019\Community\VC\Tools\MSVC\14.29.30133\atlmfc\include\afxcmn.inl

; 600  : 	{ ASSERT(::IsWindow(m_hWnd)); return (int)::SendMessage(m_hWnd, TCM_GETROWCOUNT, 0, 0L); }

  00028	6a 00		 push	 0
  0002a	6a 00		 push	 0
  0002c	68 2c 13 00 00	 push	 4908			; 0000132cH
  00031	ff 76 20	 push	 DWORD PTR [esi+32]
  00034	8b 35 00 00 00
	00		 mov	 esi, DWORD PTR __imp__SendMessageA@16
  0003a	ff d6		 call	 esi
; File D:\git\src\IBK\IBK_DRFN\ProjSrc\SrcDrfn\Chart\comparechart\XTabCtrl.cpp

; 586  : 	m_nRowCnt = GetRowCount();

  0003c	8b 4d e8	 mov	 ecx, DWORD PTR _this$GSCopy$1$[ebp]
  0003f	89 81 08 01 00
	00		 mov	 DWORD PTR [ecx+264], eax

; 587  : 
; 588  : 	int x = m_ptTabs.x;

  00045	8b 81 a8 00 00
	00		 mov	 eax, DWORD PTR [ecx+168]
  0004b	89 45 e4	 mov	 DWORD PTR _x$1$[ebp], eax
; File C:\Program Files (x86)\Microsoft Visual Studio\2019\Community\VC\Tools\MSVC\14.29.30133\atlmfc\include\afxcmn.inl

; 584  : 	{ ASSERT(::IsWindow(m_hWnd)); return (BOOL)::SendMessage(m_hWnd, TCM_GETITEMRECT, nItem, (LPARAM)lpRect); }

  0004e	8d 45 ec	 lea	 eax, DWORD PTR _rect$1[ebp]
  00051	50		 push	 eax
  00052	6a 00		 push	 0
  00054	68 0a 13 00 00	 push	 4874			; 0000130aH
  00059	ff 71 20	 push	 DWORD PTR [ecx+32]
  0005c	ff d6		 call	 esi
; File D:\git\src\IBK\IBK_DRFN\ProjSrc\SrcDrfn\Chart\comparechart\XTabCtrl.cpp

; 590  : 	int y = m_ptTabs.y+(m_nRowCnt-1)*GetTabHeight();

  0005e	8b 4d e8	 mov	 ecx, DWORD PTR _this$GSCopy$1$[ebp]
; File D:\git\src\IBK\IBK_DRFN\ProjSrc\SrcDrfn\Chart\comparechart\XTabCtrl.h

; 52   : 	long GetTabHeight() { RECT rect; GetItemRect(0,&rect); return(rect.bottom-rect.top);}

  00061	8b 75 f8	 mov	 esi, DWORD PTR _rect$1[ebp+12]
  00064	2b 75 f0	 sub	 esi, DWORD PTR _rect$1[ebp+4]
; File D:\git\src\IBK\IBK_DRFN\ProjSrc\SrcDrfn\Chart\comparechart\XTabCtrl.cpp

; 590  : 	int y = m_ptTabs.y+(m_nRowCnt-1)*GetTabHeight();

  00067	8b 91 08 01 00
	00		 mov	 edx, DWORD PTR [ecx+264]
  0006d	8d 42 ff	 lea	 eax, DWORD PTR [edx-1]
  00070	0f af f0	 imul	 esi, eax
  00073	03 b1 ac 00 00
	00		 add	 esi, DWORD PTR [ecx+172]

; 591  : 	//2005. 05. 17 -------------------------------------------------------
; 592  : 	//전체 Row수가 2개 이상이 되면 화면이 보이는 위치를 조절한다.
; 593  : 	//--------------------------------------------------------------------
; 594  : 	if(m_nRowCnt == 3)

  00079	83 fa 03	 cmp	 edx, 3
  0007c	75 05		 jne	 SHORT $LN2@OnSize

; 595  : 		y += 8;

  0007e	83 c6 08	 add	 esi, 8
  00081	eb 05		 jmp	 SHORT $LN4@OnSize
$LN2@OnSize:

; 596  : 	else if(m_nRowCnt > 3)

  00083	7e 03		 jle	 SHORT $LN4@OnSize

; 597  : 		y += 10;

  00085	83 c6 0a	 add	 esi, 10			; 0000000aH
$LN4@OnSize:

; 598  : 	//--------------------------------------------------------------------
; 599  : 		
; 600  : 	cx = cx - x;

  00088	8b 45 e4	 mov	 eax, DWORD PTR _x$1$[ebp]

; 601  : 	cy = cy - y;

  0008b	2b fe		 sub	 edi, esi

; 602  : 	if(m_pTabDlgFocused->GetSafeHwnd())

  0008d	8b 89 0c 01 00
	00		 mov	 ecx, DWORD PTR [ecx+268]
  00093	2b d8		 sub	 ebx, eax
; File C:\Program Files (x86)\Microsoft Visual Studio\2019\Community\VC\Tools\MSVC\14.29.30133\atlmfc\include\afxwin2.inl

; 25   : 	{ return this == NULL ? NULL : m_hWnd; }

  00095	85 c9		 test	 ecx, ecx
  00097	74 16		 je	 SHORT $LN5@OnSize
; File D:\git\src\IBK\IBK_DRFN\ProjSrc\SrcDrfn\Chart\comparechart\XTabCtrl.cpp

; 602  : 	if(m_pTabDlgFocused->GetSafeHwnd())

  00099	83 79 20 00	 cmp	 DWORD PTR [ecx+32], 0
  0009d	74 10		 je	 SHORT $LN5@OnSize

; 603  : 	{
; 604  : 		m_pTabDlgFocused->SetWindowPos(NULL,x, y,cx,cy,SWP_FRAMECHANGED | SWP_NOZORDER);

  0009f	6a 24		 push	 36			; 00000024H
  000a1	57		 push	 edi
  000a2	53		 push	 ebx
  000a3	56		 push	 esi
  000a4	50		 push	 eax
  000a5	6a 00		 push	 0
  000a7	e8 00 00 00 00	 call	 ?SetWindowPos@CWnd@@QAEHPBV1@HHHHI@Z ; CWnd::SetWindowPos
  000ac	8b 45 e4	 mov	 eax, DWORD PTR _x$1$[ebp]
$LN5@OnSize:

; 605  : 	}		
; 606  : 	if(m_pTabDlgCodeSearch)

  000af	8b 4d e8	 mov	 ecx, DWORD PTR _this$GSCopy$1$[ebp]
  000b2	8b 89 10 01 00
	00		 mov	 ecx, DWORD PTR [ecx+272]
  000b8	85 c9		 test	 ecx, ecx
  000ba	74 13		 je	 SHORT $LN7@OnSize

; 607  : 	{
; 608  : 		if(m_pTabDlgCodeSearch->GetSafeHwnd())

  000bc	83 79 20 00	 cmp	 DWORD PTR [ecx+32], 0
  000c0	74 0d		 je	 SHORT $LN7@OnSize

; 609  : 		{
; 610  : 			m_pTabDlgCodeSearch->SetWindowPos(NULL,x, y,cx,cy,SWP_FRAMECHANGED | SWP_NOZORDER);

  000c2	6a 24		 push	 36			; 00000024H
  000c4	57		 push	 edi
  000c5	53		 push	 ebx
  000c6	56		 push	 esi
  000c7	50		 push	 eax
  000c8	6a 00		 push	 0
  000ca	e8 00 00 00 00	 call	 ?SetWindowPos@CWnd@@QAEHPBV1@HHHHI@Z ; CWnd::SetWindowPos
$LN7@OnSize:

; 611  : 		}		
; 612  : 	}
; 613  : }

  000cf	8b 4d fc	 mov	 ecx, DWORD PTR __$ArrayPad$[ebp]
  000d2	5f		 pop	 edi
  000d3	5e		 pop	 esi
  000d4	33 cd		 xor	 ecx, ebp
  000d6	5b		 pop	 ebx
  000d7	e8 00 00 00 00	 call	 @__security_check_cookie@4
  000dc	8b e5		 mov	 esp, ebp
  000de	5d		 pop	 ebp
  000df	c2 0c 00	 ret	 12			; 0000000cH
?OnSize@CXTabCtrl@@IAEXIHH@Z ENDP			; CXTabCtrl::OnSize
_TEXT	ENDS
; Function compile flags: /Ogtp
; File D:\git\src\IBK\IBK_DRFN\ProjSrc\SrcDrfn\Chart\comparechart\XTabCtrl.cpp
; File C:\Program Files (x86)\Microsoft Visual Studio\2019\Community\VC\Tools\MSVC\14.29.30133\atlmfc\include\afxcmn.inl
; File C:\Program Files (x86)\Microsoft Visual Studio\2019\Community\VC\Tools\MSVC\14.29.30133\atlmfc\include\atltypes.h
; File C:\Program Files (x86)\Microsoft Visual Studio\2019\Community\VC\Tools\MSVC\14.29.30133\atlmfc\include\afxcmn.inl
; File D:\git\src\IBK\IBK_DRFN\ProjSrc\SrcDrfn\Chart\comparechart\XTabCtrl.cpp
; File C:\Program Files (x86)\Microsoft Visual Studio\2019\Community\VC\Tools\MSVC\14.29.30133\atlmfc\include\atltypes.h
; File D:\git\src\IBK\IBK_DRFN\ProjSrc\SrcDrfn\Chart\comparechart\XTabCtrl.cpp
; File C:\Program Files (x86)\Microsoft Visual Studio\2019\Community\VC\Tools\MSVC\14.29.30133\atlmfc\include\afxwin2.inl
; File D:\git\src\IBK\IBK_DRFN\ProjSrc\SrcDrfn\Chart\comparechart\XTabCtrl.cpp
; File C:\Program Files (x86)\Microsoft Visual Studio\2019\Community\VC\Tools\MSVC\14.29.30133\atlmfc\include\afxwin2.inl
; File D:\git\src\IBK\IBK_DRFN\ProjSrc\SrcDrfn\Chart\comparechart\XTabCtrl.cpp
; File C:\Program Files (x86)\Microsoft Visual Studio\2019\Community\VC\Tools\MSVC\14.29.30133\atlmfc\include\afxwin2.inl
; File D:\git\src\IBK\IBK_DRFN\ProjSrc\SrcDrfn\Chart\comparechart\XTabCtrl.cpp
; File C:\Program Files (x86)\Microsoft Visual Studio\2019\Community\VC\Tools\MSVC\14.29.30133\atlmfc\include\afxwin2.inl
; File D:\git\src\IBK\IBK_DRFN\ProjSrc\SrcDrfn\Chart\comparechart\XTabCtrl.cpp
;	COMDAT ?OnTimer@CXTabCtrl@@IAEXI@Z
_TEXT	SEGMENT
_pt$ = -44						; size = 8
_rectScreen$ = -36					; size = 16
_rectItem$ = -20					; size = 16
__$ArrayPad$ = -4					; size = 4
_nIDEvent$ = 8						; size = 4
?OnTimer@CXTabCtrl@@IAEXI@Z PROC			; CXTabCtrl::OnTimer, COMDAT
; _this$ = ecx

; 481  : {

  00000	55		 push	 ebp
  00001	8b ec		 mov	 ebp, esp
  00003	83 ec 2c	 sub	 esp, 44			; 0000002cH
  00006	a1 00 00 00 00	 mov	 eax, DWORD PTR ___security_cookie
  0000b	33 c5		 xor	 eax, ebp
  0000d	89 45 fc	 mov	 DWORD PTR __$ArrayPad$[ebp], eax
  00010	56		 push	 esi

; 482  : 	// TODO: Add your message handler code here and/or call default
; 483  : 	POINT pt;
; 484  : 	GetCursorPos(&pt);

  00011	8d 45 d4	 lea	 eax, DWORD PTR _pt$[ebp]
  00014	8b f1		 mov	 esi, ecx
  00016	50		 push	 eax
  00017	ff 15 00 00 00
	00		 call	 DWORD PTR __imp__GetCursorPos@4
; File C:\Program Files (x86)\Microsoft Visual Studio\2019\Community\VC\Tools\MSVC\14.29.30133\atlmfc\include\afxcmn.inl

; 584  : 	{ ASSERT(::IsWindow(m_hWnd)); return (BOOL)::SendMessage(m_hWnd, TCM_GETITEMRECT, nItem, (LPARAM)lpRect); }

  0001d	8d 45 ec	 lea	 eax, DWORD PTR _rectItem$[ebp]
  00020	0f 57 c0	 xorps	 xmm0, xmm0
  00023	50		 push	 eax
  00024	ff b6 c4 00 00
	00		 push	 DWORD PTR [esi+196]
; File C:\Program Files (x86)\Microsoft Visual Studio\2019\Community\VC\Tools\MSVC\14.29.30133\atlmfc\include\atltypes.h

; 528  : 	left = 0;

  0002a	0f 11 45 ec	 movups	 XMMWORD PTR _rectItem$[ebp], xmm0
; File C:\Program Files (x86)\Microsoft Visual Studio\2019\Community\VC\Tools\MSVC\14.29.30133\atlmfc\include\afxcmn.inl

; 584  : 	{ ASSERT(::IsWindow(m_hWnd)); return (BOOL)::SendMessage(m_hWnd, TCM_GETITEMRECT, nItem, (LPARAM)lpRect); }

  0002e	68 0a 13 00 00	 push	 4874			; 0000130aH
  00033	ff 76 20	 push	 DWORD PTR [esi+32]
  00036	ff 15 00 00 00
	00		 call	 DWORD PTR __imp__SendMessageA@16
; File D:\git\src\IBK\IBK_DRFN\ProjSrc\SrcDrfn\Chart\comparechart\XTabCtrl.cpp

; 488  : 	rectScreen = rectItem;

  0003c	0f 10 45 ec	 movups	 xmm0, XMMWORD PTR _rectItem$[ebp]

; 489  : 	ClientToScreen(rectScreen);

  00040	8d 45 dc	 lea	 eax, DWORD PTR _rectScreen$[ebp]
  00043	8b ce		 mov	 ecx, esi
  00045	50		 push	 eax
  00046	0f 11 45 dc	 movups	 XMMWORD PTR _rectScreen$[ebp], xmm0
  0004a	e8 00 00 00 00	 call	 ?ClientToScreen@CWnd@@QBEXPAUtagRECT@@@Z ; CWnd::ClientToScreen
; File C:\Program Files (x86)\Microsoft Visual Studio\2019\Community\VC\Tools\MSVC\14.29.30133\atlmfc\include\atltypes.h

; 648  : 	return ::PtInRect(this, point);

  0004f	ff 75 d8	 push	 DWORD PTR _pt$[ebp+4]
  00052	8d 45 dc	 lea	 eax, DWORD PTR _rectScreen$[ebp]
  00055	ff 75 d4	 push	 DWORD PTR _pt$[ebp]
  00058	50		 push	 eax
  00059	ff 15 00 00 00
	00		 call	 DWORD PTR __imp__PtInRect@12
; File D:\git\src\IBK\IBK_DRFN\ProjSrc\SrcDrfn\Chart\comparechart\XTabCtrl.cpp

; 493  : 	if (!rectScreen.PtInRect(pt)||m_iLastIndexMouseOver!=m_iIndexMouseOver) 

  0005f	85 c0		 test	 eax, eax
  00061	74 0e		 je	 SHORT $LN3@OnTimer
  00063	8b 86 c8 00 00
	00		 mov	 eax, DWORD PTR [esi+200]
  00069	3b 86 c4 00 00
	00		 cmp	 eax, DWORD PTR [esi+196]
  0006f	74 2b		 je	 SHORT $LN2@OnTimer
$LN3@OnTimer:
; File C:\Program Files (x86)\Microsoft Visual Studio\2019\Community\VC\Tools\MSVC\14.29.30133\atlmfc\include\afxwin2.inl

; 155  : 	{ ASSERT(::IsWindow(m_hWnd)); return ::KillTimer(m_hWnd, nIDEvent); }

  00071	6a 01		 push	 1
  00073	ff 76 20	 push	 DWORD PTR [esi+32]
  00076	ff 15 00 00 00
	00		 call	 DWORD PTR __imp__KillTimer@8

; 116  : 	{ ASSERT(::IsWindow(m_hWnd)); ::InvalidateRect(m_hWnd, lpRect, bErase); }

  0007c	6a 01		 push	 1
  0007e	8d 45 ec	 lea	 eax, DWORD PTR _rectItem$[ebp]
; File D:\git\src\IBK\IBK_DRFN\ProjSrc\SrcDrfn\Chart\comparechart\XTabCtrl.cpp

; 496  : 		m_bMouseOver = false;

  00081	c6 86 cc 00 00
	00 00		 mov	 BYTE PTR [esi+204], 0
; File C:\Program Files (x86)\Microsoft Visual Studio\2019\Community\VC\Tools\MSVC\14.29.30133\atlmfc\include\afxwin2.inl

; 116  : 	{ ASSERT(::IsWindow(m_hWnd)); ::InvalidateRect(m_hWnd, lpRect, bErase); }

  00088	50		 push	 eax
  00089	ff 76 20	 push	 DWORD PTR [esi+32]
; File D:\git\src\IBK\IBK_DRFN\ProjSrc\SrcDrfn\Chart\comparechart\XTabCtrl.cpp

; 497  : 		m_iIndexMouseOver = -1;

  0008c	c7 86 c4 00 00
	00 ff ff ff ff	 mov	 DWORD PTR [esi+196], -1
; File C:\Program Files (x86)\Microsoft Visual Studio\2019\Community\VC\Tools\MSVC\14.29.30133\atlmfc\include\afxwin2.inl

; 116  : 	{ ASSERT(::IsWindow(m_hWnd)); ::InvalidateRect(m_hWnd, lpRect, bErase); }

  00096	ff 15 00 00 00
	00		 call	 DWORD PTR __imp__InvalidateRect@12
$LN2@OnTimer:

; 466  : 	{ Default(); }

  0009c	8b ce		 mov	 ecx, esi
  0009e	e8 00 00 00 00	 call	 ?Default@CWnd@@IAEJXZ	; CWnd::Default
; File D:\git\src\IBK\IBK_DRFN\ProjSrc\SrcDrfn\Chart\comparechart\XTabCtrl.cpp

; 503  : }

  000a3	8b 4d fc	 mov	 ecx, DWORD PTR __$ArrayPad$[ebp]
  000a6	33 cd		 xor	 ecx, ebp
; File C:\Program Files (x86)\Microsoft Visual Studio\2019\Community\VC\Tools\MSVC\14.29.30133\atlmfc\include\afxwin2.inl

; 466  : 	{ Default(); }

  000a8	5e		 pop	 esi
; File D:\git\src\IBK\IBK_DRFN\ProjSrc\SrcDrfn\Chart\comparechart\XTabCtrl.cpp

; 503  : }

  000a9	e8 00 00 00 00	 call	 @__security_check_cookie@4
  000ae	8b e5		 mov	 esp, ebp
  000b0	5d		 pop	 ebp
  000b1	c2 04 00	 ret	 4
?OnTimer@CXTabCtrl@@IAEXI@Z ENDP			; CXTabCtrl::OnTimer
_TEXT	ENDS
; Function compile flags: /Ogtp
; File D:\git\src\IBK\IBK_DRFN\ProjSrc\SrcDrfn\Chart\comparechart\XTabCtrl.cpp
; File C:\Program Files (x86)\Microsoft Visual Studio\2019\Community\VC\Tools\MSVC\14.29.30133\atlmfc\include\afxcmn.inl
; File D:\git\src\IBK\IBK_DRFN\ProjSrc\SrcDrfn\Chart\comparechart\XTabCtrl.cpp
; File C:\Program Files (x86)\Microsoft Visual Studio\2019\Community\VC\Tools\MSVC\14.29.30133\atlmfc\include\afxcmn.inl
; File D:\git\src\IBK\IBK_DRFN\ProjSrc\SrcDrfn\Chart\comparechart\XTabCtrl.cpp
;	COMDAT ?OnSelchanging@CXTabCtrl@@IAEXPAUtagNMHDR@@PAJ@Z
_TEXT	SEGMENT
_pNMHDR$ = 8						; size = 4
_pResult$ = 12						; size = 4
?OnSelchanging@CXTabCtrl@@IAEXPAUtagNMHDR@@PAJ@Z PROC	; CXTabCtrl::OnSelchanging, COMDAT
; _this$ = ecx

; 248  : {	

  00000	55		 push	 ebp
  00001	8b ec		 mov	 ebp, esp
  00003	56		 push	 esi

; 249  : 	// TODO: Add your control notification handler code here
; 250  : //	m_nPrevIndex = m_iSelectedTab;
; 251  : //	m_iSelectedTab = GetCurSel();
; 252  : //	*pResult = 0;
; 253  : 	CExTabCtrl::OnSelchange(pNMHDR, pResult);

  00004	8b 75 0c	 mov	 esi, DWORD PTR _pResult$[ebp]
  00007	57		 push	 edi
  00008	56		 push	 esi
  00009	ff 75 08	 push	 DWORD PTR _pNMHDR$[ebp]
  0000c	8b f9		 mov	 edi, ecx
  0000e	e8 00 00 00 00	 call	 ?OnSelchange@CExTabCtrl@@IAEHPAUtagNMHDR@@PAJ@Z ; CExTabCtrl::OnSelchange

; 254  : 	m_nPrevIndex = m_iSelectedTab;

  00013	8b 87 a4 00 00
	00		 mov	 eax, DWORD PTR [edi+164]
; File C:\Program Files (x86)\Microsoft Visual Studio\2019\Community\VC\Tools\MSVC\14.29.30133\atlmfc\include\afxcmn.inl

; 586  : 	{ ASSERT(::IsWindow(m_hWnd)); return (int)::SendMessage(m_hWnd, TCM_GETCURSEL, 0, 0L); }

  00019	6a 00		 push	 0
  0001b	6a 00		 push	 0
  0001d	68 0b 13 00 00	 push	 4875			; 0000130bH
  00022	ff 77 20	 push	 DWORD PTR [edi+32]
; File D:\git\src\IBK\IBK_DRFN\ProjSrc\SrcDrfn\Chart\comparechart\XTabCtrl.cpp

; 254  : 	m_nPrevIndex = m_iSelectedTab;

  00025	89 87 f0 00 00
	00		 mov	 DWORD PTR [edi+240], eax
; File C:\Program Files (x86)\Microsoft Visual Studio\2019\Community\VC\Tools\MSVC\14.29.30133\atlmfc\include\afxcmn.inl

; 586  : 	{ ASSERT(::IsWindow(m_hWnd)); return (int)::SendMessage(m_hWnd, TCM_GETCURSEL, 0, 0L); }

  0002b	ff 15 00 00 00
	00		 call	 DWORD PTR __imp__SendMessageA@16
; File D:\git\src\IBK\IBK_DRFN\ProjSrc\SrcDrfn\Chart\comparechart\XTabCtrl.cpp

; 255  : 	m_iSelectedTab = GetCurSel();

  00031	89 87 a4 00 00
	00		 mov	 DWORD PTR [edi+164], eax

; 256  : 	*pResult = 0;

  00037	5f		 pop	 edi
  00038	c7 06 00 00 00
	00		 mov	 DWORD PTR [esi], 0
  0003e	5e		 pop	 esi

; 257  : }

  0003f	5d		 pop	 ebp
  00040	c2 08 00	 ret	 8
?OnSelchanging@CXTabCtrl@@IAEXPAUtagNMHDR@@PAJ@Z ENDP	; CXTabCtrl::OnSelchanging
_TEXT	ENDS
; Function compile flags: /Ogtp
; File D:\git\src\IBK\IBK_DRFN\ProjSrc\SrcDrfn\Chart\comparechart\XTabCtrl.cpp
; File C:\Program Files (x86)\Microsoft Visual Studio\2019\Community\VC\Tools\MSVC\14.29.30133\atlmfc\include\afxcmn.inl
; File D:\git\src\IBK\IBK_DRFN\ProjSrc\SrcDrfn\Chart\comparechart\XTabCtrl.cpp
;	COMDAT ?OnSelchange@CXTabCtrl@@IAEXPAUtagNMHDR@@PAJ@Z
_TEXT	SEGMENT
_pNMHDR$ = 8						; size = 4
_pResult$ = 12						; size = 4
?OnSelchange@CXTabCtrl@@IAEXPAUtagNMHDR@@PAJ@Z PROC	; CXTabCtrl::OnSelchange, COMDAT
; _this$ = ecx

; 235  : {

  00000	55		 push	 ebp
  00001	8b ec		 mov	 ebp, esp
  00003	56		 push	 esi
  00004	57		 push	 edi

; 236  : 	// TODO: Add your control notification handler code here
; 237  : 	//int iNewTab = GetCurSel();
; 238  : 	//ShowTab(iNewTab);
; 239  : 	//*pResult = 0;
; 240  : 
; 241  : 	CExTabCtrl::OnSelchange(pNMHDR, pResult);

  00005	8b 7d 0c	 mov	 edi, DWORD PTR _pResult$[ebp]
  00008	8b f1		 mov	 esi, ecx
  0000a	57		 push	 edi
  0000b	ff 75 08	 push	 DWORD PTR _pNMHDR$[ebp]
  0000e	e8 00 00 00 00	 call	 ?OnSelchange@CExTabCtrl@@IAEHPAUtagNMHDR@@PAJ@Z ; CExTabCtrl::OnSelchange
; File C:\Program Files (x86)\Microsoft Visual Studio\2019\Community\VC\Tools\MSVC\14.29.30133\atlmfc\include\afxcmn.inl

; 586  : 	{ ASSERT(::IsWindow(m_hWnd)); return (int)::SendMessage(m_hWnd, TCM_GETCURSEL, 0, 0L); }

  00013	6a 00		 push	 0
  00015	6a 00		 push	 0
  00017	68 0b 13 00 00	 push	 4875			; 0000130bH
  0001c	ff 76 20	 push	 DWORD PTR [esi+32]
  0001f	ff 15 00 00 00
	00		 call	 DWORD PTR __imp__SendMessageA@16
; File D:\git\src\IBK\IBK_DRFN\ProjSrc\SrcDrfn\Chart\comparechart\XTabCtrl.cpp

; 243  : 	ShowTab(iNewTab);

  00025	50		 push	 eax
  00026	8b ce		 mov	 ecx, esi
  00028	e8 00 00 00 00	 call	 ?ShowTab@CXTabCtrl@@QAEXH@Z ; CXTabCtrl::ShowTab

; 244  : 	*pResult = 0;

  0002d	c7 07 00 00 00
	00		 mov	 DWORD PTR [edi], 0
  00033	5f		 pop	 edi
  00034	5e		 pop	 esi

; 245  : }

  00035	5d		 pop	 ebp
  00036	c2 08 00	 ret	 8
?OnSelchange@CXTabCtrl@@IAEXPAUtagNMHDR@@PAJ@Z ENDP	; CXTabCtrl::OnSelchange
_TEXT	ENDS
; Function compile flags: /Ogtp
; File D:\git\src\IBK\IBK_DRFN\ProjSrc\SrcDrfn\Chart\comparechart\XTabCtrl.cpp
;	COMDAT ?DeleteCurrentDlg@CXTabCtrl@@AAEXXZ
_TEXT	SEGMENT
?DeleteCurrentDlg@CXTabCtrl@@AAEXXZ PROC		; CXTabCtrl::DeleteCurrentDlg, COMDAT
; _this$ = ecx

; 147  : {

  00000	56		 push	 esi
  00001	8b f1		 mov	 esi, ecx

; 148  : 	if(m_pTabDlgFocused)

  00003	8b 8e 0c 01 00
	00		 mov	 ecx, DWORD PTR [esi+268]
  00009	85 c9		 test	 ecx, ecx
  0000b	74 20		 je	 SHORT $LN2@DeleteCurr

; 149  : 	{
; 150  : 		m_pTabDlgFocused->DestroyWindow();		

  0000d	8b 01		 mov	 eax, DWORD PTR [ecx]
  0000f	ff 50 68	 call	 DWORD PTR [eax+104]

; 151  : 		delete m_pTabDlgFocused;

  00012	8b 8e 0c 01 00
	00		 mov	 ecx, DWORD PTR [esi+268]
  00018	85 c9		 test	 ecx, ecx
  0001a	74 07		 je	 SHORT $LN4@DeleteCurr
  0001c	8b 01		 mov	 eax, DWORD PTR [ecx]
  0001e	6a 01		 push	 1
  00020	ff 50 04	 call	 DWORD PTR [eax+4]
$LN4@DeleteCurr:

; 152  : 		m_pTabDlgFocused = NULL;	

  00023	c7 86 0c 01 00
	00 00 00 00 00	 mov	 DWORD PTR [esi+268], 0
$LN2@DeleteCurr:
  0002d	5e		 pop	 esi

; 153  : 	}
; 154  : }

  0002e	c3		 ret	 0
?DeleteCurrentDlg@CXTabCtrl@@AAEXXZ ENDP		; CXTabCtrl::DeleteCurrentDlg
_TEXT	ENDS
; Function compile flags: /Ogtp
; File D:\git\src\IBK\IBK_DRFN\ProjSrc\SrcDrfn\Chart\comparechart\XTabCtrl.cpp
;	COMDAT ??1CXTabCtrl@@UAE@XZ
_TEXT	SEGMENT
??1CXTabCtrl@@UAE@XZ PROC				; CXTabCtrl::~CXTabCtrl, COMDAT
; _this$ = ecx

; 52   : {

  00000	56		 push	 esi
  00001	8b f1		 mov	 esi, ecx

; 53   : 	
; 54   : }

  00003	8d 8e 88 00 00
	00		 lea	 ecx, DWORD PTR [esi+136]
  00009	c7 06 00 00 00
	00		 mov	 DWORD PTR [esi], OFFSET ??_7CXTabCtrl@@6B@
  0000f	e8 00 00 00 00	 call	 ??1CTabDlgCreator@@UAE@XZ ; CTabDlgCreator::~CTabDlgCreator
  00014	8b ce		 mov	 ecx, esi
  00016	5e		 pop	 esi
  00017	e9 00 00 00 00	 jmp	 ??1CExTabCtrl@@UAE@XZ	; CExTabCtrl::~CExTabCtrl
??1CXTabCtrl@@UAE@XZ ENDP				; CXTabCtrl::~CXTabCtrl
_TEXT	ENDS
; Function compile flags: /Ogtp
; File D:\git\src\IBK\IBK_DRFN\ProjSrc\SrcDrfn\Chart\comparechart\XTabCtrl.cpp
; File C:\Program Files (x86)\Microsoft Visual Studio\2019\Community\VC\Tools\MSVC\14.29.30133\atlmfc\include\afxwin2.inl
; File D:\git\src\IBK\IBK_DRFN\ProjSrc\SrcDrfn\Chart\comparechart\XTabCtrl.cpp
; File C:\Program Files (x86)\Microsoft Visual Studio\2019\Community\VC\Tools\MSVC\14.29.30133\atlmfc\include\afxcmn.inl
; File D:\git\src\IBK\IBK_DRFN\ProjSrc\SrcDrfn\Chart\comparechart\XTabCtrl.cpp
; File C:\Program Files (x86)\Microsoft Visual Studio\2019\Community\VC\Tools\MSVC\14.29.30133\atlmfc\include\afxwin2.inl
; File D:\git\src\IBK\IBK_DRFN\ProjSrc\SrcDrfn\Chart\comparechart\XTabCtrl.cpp
;	COMDAT ?WindowProc@CXTabCtrl@@MAEJIIJ@Z
_TEXT	SEGMENT
_message$ = 8						; size = 4
_wParam$ = 12						; size = 4
_lParam$ = 16						; size = 4
?WindowProc@CXTabCtrl@@MAEJIIJ@Z PROC			; CXTabCtrl::WindowProc, COMDAT
; _this$ = ecx

; 749  : {

  00000	55		 push	 ebp
  00001	8b ec		 mov	 ebp, esp
  00003	56		 push	 esi
  00004	57		 push	 edi

; 750  : 	// TODO: Add your specialized code here and/or call the base class
; 751  : 	//===================================================================
; 752  : 	//2005. 06. 14 add by sy,nam
; 753  : 	//===================================================================
; 754  : 	switch(message)

  00005	8b 7d 08	 mov	 edi, DWORD PTR _message$[ebp]
  00008	8b f1		 mov	 esi, ecx
  0000a	8b c7		 mov	 eax, edi
  0000c	2d 58 04 00 00	 sub	 eax, 1112		; 00000458H
  00011	74 05		 je	 SHORT $LN4@WindowProc
  00013	83 e8 01	 sub	 eax, 1
  00016	75 52		 jne	 SHORT $LN7@WindowProc
$LN4@WindowProc:

; 759  : 				if(m_pTabDlgFocused->GetSafeHwnd())

  00018	8b 86 0c 01 00
	00		 mov	 eax, DWORD PTR [esi+268]
  0001e	53		 push	 ebx
; File C:\Program Files (x86)\Microsoft Visual Studio\2019\Community\VC\Tools\MSVC\14.29.30133\atlmfc\include\afxwin2.inl

; 25   : 	{ return this == NULL ? NULL : m_hWnd; }

  0001f	8b 1d 00 00 00
	00		 mov	 ebx, DWORD PTR __imp__SendMessageA@16
  00025	85 c0		 test	 eax, eax
  00027	74 0f		 je	 SHORT $LN6@WindowProc
  00029	8b 40 20	 mov	 eax, DWORD PTR [eax+32]
; File D:\git\src\IBK\IBK_DRFN\ProjSrc\SrcDrfn\Chart\comparechart\XTabCtrl.cpp

; 759  : 				if(m_pTabDlgFocused->GetSafeHwnd())

  0002c	85 c0		 test	 eax, eax
  0002e	74 08		 je	 SHORT $LN6@WindowProc

; 760  : 					::SendMessage(m_pTabDlgFocused->GetSafeHwnd(), message, 0, 0);

  00030	6a 00		 push	 0
  00032	6a 00		 push	 0
  00034	57		 push	 edi
  00035	50		 push	 eax
  00036	ff d3		 call	 ebx
$LN6@WindowProc:
; File C:\Program Files (x86)\Microsoft Visual Studio\2019\Community\VC\Tools\MSVC\14.29.30133\atlmfc\include\afxcmn.inl

; 586  : 	{ ASSERT(::IsWindow(m_hWnd)); return (int)::SendMessage(m_hWnd, TCM_GETCURSEL, 0, 0L); }

  00038	6a 00		 push	 0
  0003a	6a 00		 push	 0
  0003c	68 0b 13 00 00	 push	 4875			; 0000130bH
  00041	ff 76 20	 push	 DWORD PTR [esi+32]
  00044	ff d3		 call	 ebx
; File D:\git\src\IBK\IBK_DRFN\ProjSrc\SrcDrfn\Chart\comparechart\XTabCtrl.cpp

; 762  : 				m_iSelectedTab = GetCurSel();

  00046	89 86 a4 00 00
	00		 mov	 DWORD PTR [esi+164], eax

; 763  : 				if(m_iSelectedTab == 0 && m_pTabDlgCodeSearch->GetSafeHwnd())

  0004c	85 c0		 test	 eax, eax
  0004e	75 19		 jne	 SHORT $LN28@WindowProc
  00050	8b 86 10 01 00
	00		 mov	 eax, DWORD PTR [esi+272]
; File C:\Program Files (x86)\Microsoft Visual Studio\2019\Community\VC\Tools\MSVC\14.29.30133\atlmfc\include\afxwin2.inl

; 25   : 	{ return this == NULL ? NULL : m_hWnd; }

  00056	85 c0		 test	 eax, eax
  00058	74 0f		 je	 SHORT $LN28@WindowProc
  0005a	8b 40 20	 mov	 eax, DWORD PTR [eax+32]
; File D:\git\src\IBK\IBK_DRFN\ProjSrc\SrcDrfn\Chart\comparechart\XTabCtrl.cpp

; 763  : 				if(m_iSelectedTab == 0 && m_pTabDlgCodeSearch->GetSafeHwnd())

  0005d	85 c0		 test	 eax, eax
  0005f	74 08		 je	 SHORT $LN28@WindowProc

; 764  : 					::SendMessage(m_pTabDlgCodeSearch->GetSafeHwnd(), message, 0, 0);

  00061	6a 00		 push	 0
  00063	6a 00		 push	 0
  00065	57		 push	 edi
  00066	50		 push	 eax
  00067	ff d3		 call	 ebx
$LN28@WindowProc:
  00069	5b		 pop	 ebx
$LN7@WindowProc:

; 765  : 			}
; 766  : 			break;
; 767  : 		case UMSG_INITIAL_BTNCLICK:
; 768  : 			//Drds끊기.
; 769  : 			//차트 내용없애기 		
; 770  : 			break;
; 771  : 		//===================================================================
; 772  : 
; 773  : 	}
; 774  : 	return CExTabCtrl::WindowProc(message, wParam, lParam);

  0006a	ff 75 10	 push	 DWORD PTR _lParam$[ebp]
  0006d	8b ce		 mov	 ecx, esi
  0006f	ff 75 0c	 push	 DWORD PTR _wParam$[ebp]
  00072	57		 push	 edi
  00073	e8 00 00 00 00	 call	 ?WindowProc@CExTabCtrl@@MAEJIIJ@Z ; CExTabCtrl::WindowProc
  00078	5f		 pop	 edi
  00079	5e		 pop	 esi

; 775  : }

  0007a	5d		 pop	 ebp
  0007b	c2 0c 00	 ret	 12			; 0000000cH
?WindowProc@CXTabCtrl@@MAEJIIJ@Z ENDP			; CXTabCtrl::WindowProc
_TEXT	ENDS
; Function compile flags: /Ogtp
; File D:\git\src\IBK\IBK_DRFN\ProjSrc\SrcDrfn\Chart\comparechart\XTabCtrl.cpp
;	COMDAT ?PreSubclassWindow@CXTabCtrl@@MAEXXZ
_TEXT	SEGMENT
?PreSubclassWindow@CXTabCtrl@@MAEXXZ PROC		; CXTabCtrl::PreSubclassWindow, COMDAT
; _this$ = ecx

; 260  : {

  00000	56		 push	 esi
  00001	8b f1		 mov	 esi, ecx

; 261  : 	// TODO: Add your specialized code here and/or call the base class
; 262  : 	CExTabCtrl::PreSubclassWindow();

  00003	e8 00 00 00 00	 call	 ?PreSubclassWindow@CExTabCtrl@@MAEXXZ ; CExTabCtrl::PreSubclassWindow

; 263  : 	ModifyStyle(0, TCS_OWNERDRAWFIXED);

  00008	6a 00		 push	 0
  0000a	68 00 20 00 00	 push	 8192			; 00002000H
  0000f	6a 00		 push	 0
  00011	8b ce		 mov	 ecx, esi
  00013	e8 00 00 00 00	 call	 ?ModifyStyle@CWnd@@QAEHKKI@Z ; CWnd::ModifyStyle
  00018	5e		 pop	 esi

; 264  : }

  00019	c3		 ret	 0
?PreSubclassWindow@CXTabCtrl@@MAEXXZ ENDP		; CXTabCtrl::PreSubclassWindow
_TEXT	ENDS
; Function compile flags: /Ogtp
; File D:\git\src\IBK\IBK_DRFN\ProjSrc\SrcDrfn\Chart\comparechart\XTabCtrl.cpp
; File C:\Program Files (x86)\Microsoft Visual Studio\2019\Community\VC\Tools\MSVC\14.29.30133\atlmfc\include\afxwin2.inl
; File D:\git\src\IBK\IBK_DRFN\ProjSrc\SrcDrfn\Chart\comparechart\XTabCtrl.cpp
; File C:\Program Files (x86)\Microsoft Visual Studio\2019\Community\VC\Tools\MSVC\14.29.30133\atlmfc\include\afxwin2.inl
; File D:\git\src\IBK\IBK_DRFN\ProjSrc\SrcDrfn\Chart\comparechart\XTabCtrl.cpp
;	COMDAT ?ChangeSkinColor@CXTabCtrl@@QAEXXZ
_TEXT	SEGMENT
_tabColor$ = -32					; size = 28
__$ArrayPad$ = -4					; size = 4
?ChangeSkinColor@CXTabCtrl@@QAEXXZ PROC			; CXTabCtrl::ChangeSkinColor, COMDAT
; _this$ = ecx

; 779  : {

  00000	55		 push	 ebp
  00001	8b ec		 mov	 ebp, esp
  00003	83 ec 20	 sub	 esp, 32			; 00000020H
  00006	a1 00 00 00 00	 mov	 eax, DWORD PTR ___security_cookie
  0000b	33 c5		 xor	 eax, ebp
  0000d	89 45 fc	 mov	 DWORD PTR __$ArrayPad$[ebp], eax
  00010	56		 push	 esi
  00011	8b f1		 mov	 esi, ecx

; 780  : //	COLORREF clrBkgrnd = (COLORREF)GetParent()->GetParent()->SendMessage(RMSG_GET_SKINCOLOR, (WPARAM)0);
; 781  : //
; 782  : //	COLORREF clrTabActive = RGB(191,222,255);
; 783  : //	COLORREF clrTabInactive = RGB(226,226,226);
; 784  : //	IKSLibManager* pKSLibMng = (IKSLibManager*)AfxGetPctrInterface(UUID_IKSLibManager);
; 785  : //	if(pKSLibMng)
; 786  : //	{
; 787  : //		clrTabActive = pKSLibMng->Lib_KSLink_GetColor(135);		// 탭 색상 Active
; 788  : //		clrTabInactive = pKSLibMng->Lib_KSLink_GetColor(98);	// 탭 색상 Inactive
; 789  : //	}
; 790  : //	SetTabColor(clrBkgrnd, clrTabActive, clrTabInactive);
; 791  : 	if(m_pCompareChartWnd == NULL)

  00013	8b 86 a0 00 00
	00		 mov	 eax, DWORD PTR [esi+160]
  00019	85 c0		 test	 eax, eax
  0001b	74 46		 je	 SHORT $LN1@ChangeSkin
; File C:\Program Files (x86)\Microsoft Visual Studio\2019\Community\VC\Tools\MSVC\14.29.30133\atlmfc\include\afxwin2.inl

; 32   : 	{ ASSERT(::IsWindow(m_hWnd)); return ::SendMessage(m_hWnd, message, wParam, lParam); }

  0001d	8d 4d e0	 lea	 ecx, DWORD PTR _tabColor$[ebp]
  00020	51		 push	 ecx
  00021	6a 01		 push	 1
  00023	ff 35 00 00 00
	00		 push	 DWORD PTR ?RMSG_GET_SKINCOLOR@@3IB
  00029	ff 70 20	 push	 DWORD PTR [eax+32]
  0002c	ff 15 00 00 00
	00		 call	 DWORD PTR __imp__SendMessageA@16
; File D:\git\src\IBK\IBK_DRFN\ProjSrc\SrcDrfn\Chart\comparechart\XTabCtrl.cpp

; 795  : 	if((COLORREF)m_pCompareChartWnd->SendMessage(RMSG_GET_SKINCOLOR, (WPARAM)1, (LPARAM)&tabColor))

  00032	85 c0		 test	 eax, eax
  00034	74 20		 je	 SHORT $LN3@ChangeSkin

; 796  : 	{
; 797  : 		if(m_pTabDlgCodeSearch)		m_pTabDlgCodeSearch->ChangeSkinColor(tabColor.clrTabBkgrnd);

  00036	8b 8e 10 01 00
	00		 mov	 ecx, DWORD PTR [esi+272]
  0003c	85 c9		 test	 ecx, ecx
  0003e	74 0b		 je	 SHORT $LN4@ChangeSkin
  00040	8b 01		 mov	 eax, DWORD PTR [ecx]
  00042	ff 75 e8	 push	 DWORD PTR _tabColor$[ebp+8]
  00045	ff 90 94 01 00
	00		 call	 DWORD PTR [eax+404]
$LN4@ChangeSkin:

; 798  : 
; 799  : 		SetSTTabColor((long)&tabColor);

  0004b	8d 45 e0	 lea	 eax, DWORD PTR _tabColor$[ebp]
  0004e	8b ce		 mov	 ecx, esi
  00050	50		 push	 eax
  00051	e8 00 00 00 00	 call	 ?SetSTTabColor@CExTabCtrl@@QAEXJ@Z ; CExTabCtrl::SetSTTabColor
$LN3@ChangeSkin:
; File C:\Program Files (x86)\Microsoft Visual Studio\2019\Community\VC\Tools\MSVC\14.29.30133\atlmfc\include\afxwin2.inl

; 114  : 	{ ASSERT(::IsWindow(m_hWnd)); ::InvalidateRect(m_hWnd, NULL, bErase); }

  00056	6a 01		 push	 1
  00058	6a 00		 push	 0
  0005a	ff 76 20	 push	 DWORD PTR [esi+32]
  0005d	ff 15 00 00 00
	00		 call	 DWORD PTR __imp__InvalidateRect@12
$LN1@ChangeSkin:
; File D:\git\src\IBK\IBK_DRFN\ProjSrc\SrcDrfn\Chart\comparechart\XTabCtrl.cpp

; 803  : }

  00063	8b 4d fc	 mov	 ecx, DWORD PTR __$ArrayPad$[ebp]
  00066	33 cd		 xor	 ecx, ebp
  00068	5e		 pop	 esi
  00069	e8 00 00 00 00	 call	 @__security_check_cookie@4
  0006e	8b e5		 mov	 esp, ebp
  00070	5d		 pop	 ebp
  00071	c3		 ret	 0
?ChangeSkinColor@CXTabCtrl@@QAEXXZ ENDP			; CXTabCtrl::ChangeSkinColor
_TEXT	ENDS
; Function compile flags: /Ogtp
; File D:\git\src\IBK\IBK_DRFN\ProjSrc\SrcDrfn\Chart\comparechart\XTabCtrl.cpp
;	COMDAT ?SetTopLeftCorner@CXTabCtrl@@QAEXVCPoint@@@Z
_TEXT	SEGMENT
_pt$ = 8						; size = 8
?SetTopLeftCorner@CXTabCtrl@@QAEXVCPoint@@@Z PROC	; CXTabCtrl::SetTopLeftCorner, COMDAT
; _this$ = ecx

; 76   : {

  00000	55		 push	 ebp
  00001	8b ec		 mov	 ebp, esp

; 77   : 	m_ptTabs.x = pt.x;

  00003	8b 45 08	 mov	 eax, DWORD PTR _pt$[ebp]
  00006	89 81 a8 00 00
	00		 mov	 DWORD PTR [ecx+168], eax

; 78   : 	m_ptTabs.y = pt.y;

  0000c	8b 45 0c	 mov	 eax, DWORD PTR _pt$[ebp+4]
  0000f	89 81 ac 00 00
	00		 mov	 DWORD PTR [ecx+172], eax

; 79   : }

  00015	5d		 pop	 ebp
  00016	c2 08 00	 ret	 8
?SetTopLeftCorner@CXTabCtrl@@QAEXVCPoint@@@Z ENDP	; CXTabCtrl::SetTopLeftCorner
_TEXT	ENDS
; Function compile flags: /Ogtp
; File D:\git\src\IBK\IBK_DRFN\ProjSrc\SrcDrfn\Chart\comparechart\XTabCtrl.cpp
; File C:\Program Files (x86)\Microsoft Visual Studio\2019\Community\VC\Tools\MSVC\14.29.30133\atlmfc\include\afxwin2.inl
; File D:\git\src\IBK\IBK_DRFN\ProjSrc\SrcDrfn\Chart\comparechart\XTabCtrl.cpp
; File C:\Program Files (x86)\Microsoft Visual Studio\2019\Community\VC\Tools\MSVC\14.29.30133\atlmfc\include\afxwin2.inl
; File D:\git\src\IBK\IBK_DRFN\ProjSrc\SrcDrfn\Chart\comparechart\XTabCtrl.cpp
; File C:\Program Files (x86)\Microsoft Visual Studio\2019\Community\VC\Tools\MSVC\14.29.30133\atlmfc\include\afxwin2.inl
; File C:\Program Files (x86)\Microsoft Visual Studio\2019\Community\VC\Tools\MSVC\14.29.30133\atlmfc\include\atltypes.h
; File C:\Program Files (x86)\Microsoft Visual Studio\2019\Community\VC\Tools\MSVC\14.29.30133\atlmfc\include\afxwin2.inl
; File D:\git\src\IBK\IBK_DRFN\ProjSrc\SrcDrfn\Chart\comparechart\XTabCtrl.cpp
; File C:\Program Files (x86)\Microsoft Visual Studio\2019\Community\VC\Tools\MSVC\14.29.30133\atlmfc\include\afxcmn.inl
; File D:\git\src\IBK\IBK_DRFN\ProjSrc\SrcDrfn\Chart\comparechart\XTabCtrl.cpp
; File D:\git\src\IBK\IBK_DRFN\ProjSrc\SrcDrfn\Chart\comparechart\XTabCtrl.h
; File D:\git\src\IBK\IBK_DRFN\ProjSrc\SrcDrfn\Chart\comparechart\XTabCtrl.cpp
; File C:\Program Files (x86)\Microsoft Visual Studio\2019\Community\VC\Tools\MSVC\14.29.30133\atlmfc\include\afxwin2.inl
; File D:\git\src\IBK\IBK_DRFN\ProjSrc\SrcDrfn\Chart\comparechart\XTabCtrl.cpp
; File C:\Program Files (x86)\Microsoft Visual Studio\2019\Community\VC\Tools\MSVC\14.29.30133\atlmfc\include\afxwin2.inl
; File C:\Program Files (x86)\Microsoft Visual Studio\2019\Community\VC\Tools\MSVC\14.29.30133\atlmfc\include\atltypes.h
; File C:\Program Files (x86)\Microsoft Visual Studio\2019\Community\VC\Tools\MSVC\14.29.30133\atlmfc\include\afxwin2.inl
; File D:\git\src\IBK\IBK_DRFN\ProjSrc\SrcDrfn\Chart\comparechart\XTabCtrl.cpp
; File C:\Program Files (x86)\Microsoft Visual Studio\2019\Community\VC\Tools\MSVC\14.29.30133\atlmfc\include\afxcmn.inl
; File D:\git\src\IBK\IBK_DRFN\ProjSrc\SrcDrfn\Chart\comparechart\XTabCtrl.cpp
; File D:\git\src\IBK\IBK_DRFN\ProjSrc\SrcDrfn\Chart\comparechart\XTabCtrl.h
; File D:\git\src\IBK\IBK_DRFN\ProjSrc\SrcDrfn\Chart\comparechart\XTabCtrl.cpp
;	COMDAT ?ShowTab@CXTabCtrl@@QAEXH@Z
_TEXT	SEGMENT
_tabColor$1 = -76					; size = 28
_tabColor$2 = -48					; size = 28
_rect$3 = -36						; size = 16
_rect$4 = -36						; size = 16
_rect$5 = -20						; size = 16
_rect$6 = -20						; size = 16
__$ArrayPad$ = -4					; size = 4
_nIndex$ = 8						; size = 4
?ShowTab@CXTabCtrl@@QAEXH@Z PROC			; CXTabCtrl::ShowTab, COMDAT
; _this$ = ecx

; 157  : {

  00000	55		 push	 ebp
  00001	8b ec		 mov	 ebp, esp
  00003	83 ec 4c	 sub	 esp, 76			; 0000004cH
  00006	a1 00 00 00 00	 mov	 eax, DWORD PTR ___security_cookie
  0000b	33 c5		 xor	 eax, ebp
  0000d	89 45 fc	 mov	 DWORD PTR __$ArrayPad$[ebp], eax
  00010	53		 push	 ebx
  00011	56		 push	 esi
  00012	8b f1		 mov	 esi, ecx
  00014	57		 push	 edi
  00015	8b 7d 08	 mov	 edi, DWORD PTR _nIndex$[ebp]

; 148  : 	if(m_pTabDlgFocused)

  00018	8b 8e 0c 01 00
	00		 mov	 ecx, DWORD PTR [esi+268]
  0001e	85 c9		 test	 ecx, ecx
  00020	74 20		 je	 SHORT $LN22@ShowTab

; 149  : 	{
; 150  : 		m_pTabDlgFocused->DestroyWindow();		

  00022	8b 01		 mov	 eax, DWORD PTR [ecx]
  00024	ff 50 68	 call	 DWORD PTR [eax+104]

; 151  : 		delete m_pTabDlgFocused;

  00027	8b 8e 0c 01 00
	00		 mov	 ecx, DWORD PTR [esi+268]
  0002d	85 c9		 test	 ecx, ecx
  0002f	74 07		 je	 SHORT $LN24@ShowTab
  00031	8b 01		 mov	 eax, DWORD PTR [ecx]
  00033	6a 01		 push	 1
  00035	ff 50 04	 call	 DWORD PTR [eax+4]
$LN24@ShowTab:

; 152  : 		m_pTabDlgFocused = NULL;	

  00038	c7 86 0c 01 00
	00 00 00 00 00	 mov	 DWORD PTR [esi+268], 0
$LN22@ShowTab:

; 158  : 	DeleteCurrentDlg();
; 159  : 	//SetCurSel(nIndex);
; 160  : 	if(nIndex==TABNO_STOCK) //2005. 06. 09 sy, nam

  00042	8b 8e 10 01 00
	00		 mov	 ecx, DWORD PTR [esi+272]
  00048	85 ff		 test	 edi, edi
  0004a	0f 85 f1 00 00
	00		 jne	 $LN2@ShowTab

; 161  : 	{
; 162  : 		if( (m_pTabDlgCodeSearch == NULL) ||

  00050	8b 3d 00 00 00
	00		 mov	 edi, DWORD PTR __imp__SendMessageA@16
  00056	85 c9		 test	 ecx, ecx
  00058	74 06		 je	 SHORT $LN5@ShowTab
  0005a	83 79 20 00	 cmp	 DWORD PTR [ecx+32], 0
  0005e	75 43		 jne	 SHORT $LN7@ShowTab
$LN5@ShowTab:

; 166  : 			m_pTabDlgCodeSearch = m_tabDlgCreator.CreateTabDlg(TABNO_STOCK);

  00060	6a 00		 push	 0
  00062	8d 8e 88 00 00
	00		 lea	 ecx, DWORD PTR [esi+136]
  00068	e8 00 00 00 00	 call	 ?CreateTabDlg@CTabDlgCreator@@QAEPAVCTabDlg@@I@Z ; CTabDlgCreator::CreateTabDlg
; File C:\Program Files (x86)\Microsoft Visual Studio\2019\Community\VC\Tools\MSVC\14.29.30133\atlmfc\include\afxwin2.inl

; 32   : 	{ ASSERT(::IsWindow(m_hWnd)); return ::SendMessage(m_hWnd, message, wParam, lParam); }

  0006d	8d 4d d0	 lea	 ecx, DWORD PTR _tabColor$2[ebp]
; File D:\git\src\IBK\IBK_DRFN\ProjSrc\SrcDrfn\Chart\comparechart\XTabCtrl.cpp

; 166  : 			m_pTabDlgCodeSearch = m_tabDlgCreator.CreateTabDlg(TABNO_STOCK);

  00070	89 86 10 01 00
	00		 mov	 DWORD PTR [esi+272], eax

; 169  : 			if((COLORREF)((CStdDialog*)m_pCompareChartWnd)->SendMessage(RMSG_GET_SKINCOLOR, (WPARAM)1, (LPARAM)&tabColor))

  00076	8b 86 a0 00 00
	00		 mov	 eax, DWORD PTR [esi+160]
; File C:\Program Files (x86)\Microsoft Visual Studio\2019\Community\VC\Tools\MSVC\14.29.30133\atlmfc\include\afxwin2.inl

; 32   : 	{ ASSERT(::IsWindow(m_hWnd)); return ::SendMessage(m_hWnd, message, wParam, lParam); }

  0007c	51		 push	 ecx
  0007d	6a 01		 push	 1
  0007f	ff 35 00 00 00
	00		 push	 DWORD PTR ?RMSG_GET_SKINCOLOR@@3IB
  00085	ff 70 20	 push	 DWORD PTR [eax+32]
  00088	ff d7		 call	 edi
; File D:\git\src\IBK\IBK_DRFN\ProjSrc\SrcDrfn\Chart\comparechart\XTabCtrl.cpp

; 169  : 			if((COLORREF)((CStdDialog*)m_pCompareChartWnd)->SendMessage(RMSG_GET_SKINCOLOR, (WPARAM)1, (LPARAM)&tabColor))

  0008a	85 c0		 test	 eax, eax
  0008c	74 15		 je	 SHORT $LN7@ShowTab

; 170  : 			{
; 171  : 				if(m_pTabDlgCodeSearch)		m_pTabDlgCodeSearch->ChangeSkinColor(tabColor.clrTabBkgrnd);

  0008e	8b 8e 10 01 00
	00		 mov	 ecx, DWORD PTR [esi+272]
  00094	85 c9		 test	 ecx, ecx
  00096	74 0b		 je	 SHORT $LN7@ShowTab
  00098	8b 01		 mov	 eax, DWORD PTR [ecx]
  0009a	ff 75 d8	 push	 DWORD PTR _tabColor$2[ebp+8]
  0009d	ff 90 94 01 00
	00		 call	 DWORD PTR [eax+404]
$LN7@ShowTab:

; 172  : 			}
; 173  : 		}
; 174  : 
; 175  : 		if( (m_pTabDlgCodeSearch == NULL) ||(m_pTabDlgCodeSearch->GetSafeHwnd() == NULL))

  000a3	8b 86 10 01 00
	00		 mov	 eax, DWORD PTR [esi+272]
  000a9	85 c0		 test	 eax, eax
  000ab	0f 84 7a 01 00
	00		 je	 $LN14@ShowTab
  000b1	83 78 20 00	 cmp	 DWORD PTR [eax+32], 0
  000b5	0f 84 70 01 00
	00		 je	 $LN14@ShowTab
; File C:\Program Files (x86)\Microsoft Visual Studio\2019\Community\VC\Tools\MSVC\14.29.30133\atlmfc\include\afxwin2.inl

; 86   : 	{ ASSERT(::IsWindow(m_hWnd)); ::GetClientRect(m_hWnd, lpRect); }

  000bb	8d 45 ec	 lea	 eax, DWORD PTR _rect$6[ebp]
  000be	0f 57 c0	 xorps	 xmm0, xmm0
  000c1	50		 push	 eax
  000c2	ff 76 20	 push	 DWORD PTR [esi+32]
; File C:\Program Files (x86)\Microsoft Visual Studio\2019\Community\VC\Tools\MSVC\14.29.30133\atlmfc\include\atltypes.h

; 528  : 	left = 0;

  000c5	0f 11 45 ec	 movups	 XMMWORD PTR _rect$6[ebp], xmm0
; File C:\Program Files (x86)\Microsoft Visual Studio\2019\Community\VC\Tools\MSVC\14.29.30133\atlmfc\include\afxwin2.inl

; 86   : 	{ ASSERT(::IsWindow(m_hWnd)); ::GetClientRect(m_hWnd, lpRect); }

  000c9	ff 15 00 00 00
	00		 call	 DWORD PTR __imp__GetClientRect@8
; File D:\git\src\IBK\IBK_DRFN\ProjSrc\SrcDrfn\Chart\comparechart\XTabCtrl.cpp

; 180  : 		int x = m_ptTabs.x;

  000cf	8b 9e a8 00 00
	00		 mov	 ebx, DWORD PTR [esi+168]
; File C:\Program Files (x86)\Microsoft Visual Studio\2019\Community\VC\Tools\MSVC\14.29.30133\atlmfc\include\afxcmn.inl

; 584  : 	{ ASSERT(::IsWindow(m_hWnd)); return (BOOL)::SendMessage(m_hWnd, TCM_GETITEMRECT, nItem, (LPARAM)lpRect); }

  000d5	8d 45 dc	 lea	 eax, DWORD PTR _rect$4[ebp]
  000d8	50		 push	 eax
  000d9	6a 00		 push	 0
  000db	68 0a 13 00 00	 push	 4874			; 0000130aH
  000e0	ff 76 20	 push	 DWORD PTR [esi+32]
  000e3	ff d7		 call	 edi
; File D:\git\src\IBK\IBK_DRFN\ProjSrc\SrcDrfn\Chart\comparechart\XTabCtrl.cpp

; 181  : 		int y = m_ptTabs.y+(m_nRowCnt-1)*GetTabHeight();

  000e5	8b 96 08 01 00
	00		 mov	 edx, DWORD PTR [esi+264]
; File D:\git\src\IBK\IBK_DRFN\ProjSrc\SrcDrfn\Chart\comparechart\XTabCtrl.h

; 52   : 	long GetTabHeight() { RECT rect; GetItemRect(0,&rect); return(rect.bottom-rect.top);}

  000eb	8b 4d e8	 mov	 ecx, DWORD PTR _rect$4[ebp+12]
  000ee	2b 4d e0	 sub	 ecx, DWORD PTR _rect$4[ebp+4]
; File D:\git\src\IBK\IBK_DRFN\ProjSrc\SrcDrfn\Chart\comparechart\XTabCtrl.cpp

; 181  : 		int y = m_ptTabs.y+(m_nRowCnt-1)*GetTabHeight();

  000f1	8d 42 ff	 lea	 eax, DWORD PTR [edx-1]
  000f4	0f af c8	 imul	 ecx, eax
  000f7	03 8e ac 00 00
	00		 add	 ecx, DWORD PTR [esi+172]

; 182  : 		//2005. 05. 17 -------------------------------------------------------
; 183  : 		//전체 Row수가 2개 이상이 되면 화면이 보이는 위치를 조절한다.
; 184  : 		//--------------------------------------------------------------------
; 185  : 		if(m_nRowCnt == 3)

  000fd	83 fa 03	 cmp	 edx, 3
  00100	75 05		 jne	 SHORT $LN10@ShowTab

; 186  : 			y += 8;

  00102	83 c1 08	 add	 ecx, 8
  00105	eb 05		 jmp	 SHORT $LN12@ShowTab
$LN10@ShowTab:

; 187  : 		else if(m_nRowCnt > 3)

  00107	7e 03		 jle	 SHORT $LN12@ShowTab

; 188  : 			y += 10;

  00109	83 c1 0a	 add	 ecx, 10			; 0000000aH
$LN12@ShowTab:

; 189  : 		//--------------------------------------------------------------------
; 190  : 		m_pTabDlgCodeSearch->SetWindowPos(NULL, x, y , rect.right - x, rect.bottom - y,

  0010c	8b 45 f8	 mov	 eax, DWORD PTR _rect$6[ebp+12]
  0010f	6a 24		 push	 36			; 00000024H
  00111	2b c1		 sub	 eax, ecx
  00113	50		 push	 eax
  00114	8b 45 f4	 mov	 eax, DWORD PTR _rect$6[ebp+8]
  00117	2b c3		 sub	 eax, ebx
  00119	50		 push	 eax
  0011a	51		 push	 ecx
  0011b	8b 8e 10 01 00
	00		 mov	 ecx, DWORD PTR [esi+272]
  00121	53		 push	 ebx
  00122	6a 00		 push	 0
  00124	e8 00 00 00 00	 call	 ?SetWindowPos@CWnd@@QAEHPBV1@HHHHI@Z ; CWnd::SetWindowPos

; 191  : 							SWP_FRAMECHANGED| SWP_NOZORDER);
; 192  : 		m_pTabDlgCodeSearch->ShowWindow(SW_SHOW);

  00129	8b 8e 10 01 00
	00		 mov	 ecx, DWORD PTR [esi+272]
  0012f	6a 05		 push	 5
  00131	e8 00 00 00 00	 call	 ?ShowWindow@CWnd@@QAEHH@Z ; CWnd::ShowWindow

; 193  : 
; 194  : 		//JS.Kim_20101005   화면 깜박임 현상 제거
; 195  : 		m_pTabDlgCodeSearch->ModifyStyle(0, WS_CLIPSIBLINGS|WS_CLIPCHILDREN);

  00136	8b 8e 10 01 00
	00		 mov	 ecx, DWORD PTR [esi+272]

; 196  : 	}

  0013c	e9 dc 00 00 00	 jmp	 $LN54@ShowTab
$LN2@ShowTab:

; 197  : 	else
; 198  : 	{
; 199  : 		if(m_pTabDlgCodeSearch)

  00141	85 c9		 test	 ecx, ecx
  00143	74 07		 je	 SHORT $LN13@ShowTab

; 200  : 		{
; 201  : 			m_pTabDlgCodeSearch->ShowWindow(SW_HIDE);

  00145	6a 00		 push	 0
  00147	e8 00 00 00 00	 call	 ?ShowWindow@CWnd@@QAEHH@Z ; CWnd::ShowWindow
$LN13@ShowTab:

; 202  : 		}
; 203  : 		m_pTabDlgFocused = m_tabDlgCreator.CreateTabDlg(nIndex);

  0014c	57		 push	 edi
  0014d	8d 8e 88 00 00
	00		 lea	 ecx, DWORD PTR [esi+136]
  00153	e8 00 00 00 00	 call	 ?CreateTabDlg@CTabDlgCreator@@QAEPAVCTabDlg@@I@Z ; CTabDlgCreator::CreateTabDlg
  00158	89 86 0c 01 00
	00		 mov	 DWORD PTR [esi+268], eax

; 204  : 		if(m_pTabDlgFocused)

  0015e	85 c0		 test	 eax, eax
  00160	0f 84 c5 00 00
	00		 je	 $LN14@ShowTab

; 207  : 			if((COLORREF)((CStdDialog*)m_pCompareChartWnd)->SendMessage(RMSG_GET_SKINCOLOR, (WPARAM)1, (LPARAM)&tabColor))

  00166	8b 86 a0 00 00
	00		 mov	 eax, DWORD PTR [esi+160]
; File C:\Program Files (x86)\Microsoft Visual Studio\2019\Community\VC\Tools\MSVC\14.29.30133\atlmfc\include\afxwin2.inl

; 32   : 	{ ASSERT(::IsWindow(m_hWnd)); return ::SendMessage(m_hWnd, message, wParam, lParam); }

  0016c	8d 4d b4	 lea	 ecx, DWORD PTR _tabColor$1[ebp]
  0016f	8b 1d 00 00 00
	00		 mov	 ebx, DWORD PTR __imp__SendMessageA@16
  00175	51		 push	 ecx
  00176	6a 01		 push	 1
  00178	ff 35 00 00 00
	00		 push	 DWORD PTR ?RMSG_GET_SKINCOLOR@@3IB
  0017e	ff 70 20	 push	 DWORD PTR [eax+32]
  00181	ff d3		 call	 ebx
; File D:\git\src\IBK\IBK_DRFN\ProjSrc\SrcDrfn\Chart\comparechart\XTabCtrl.cpp

; 207  : 			if((COLORREF)((CStdDialog*)m_pCompareChartWnd)->SendMessage(RMSG_GET_SKINCOLOR, (WPARAM)1, (LPARAM)&tabColor))

  00183	85 c0		 test	 eax, eax
  00185	74 15		 je	 SHORT $LN16@ShowTab

; 208  : 			{
; 209  : 				if(m_pTabDlgFocused)		m_pTabDlgFocused->ChangeSkinColor(tabColor.clrTabBkgrnd);

  00187	8b 8e 0c 01 00
	00		 mov	 ecx, DWORD PTR [esi+268]
  0018d	85 c9		 test	 ecx, ecx
  0018f	74 0b		 je	 SHORT $LN16@ShowTab
  00191	8b 01		 mov	 eax, DWORD PTR [ecx]
  00193	ff 75 bc	 push	 DWORD PTR _tabColor$1[ebp+8]
  00196	ff 90 94 01 00
	00		 call	 DWORD PTR [eax+404]
$LN16@ShowTab:
; File C:\Program Files (x86)\Microsoft Visual Studio\2019\Community\VC\Tools\MSVC\14.29.30133\atlmfc\include\afxwin2.inl

; 86   : 	{ ASSERT(::IsWindow(m_hWnd)); ::GetClientRect(m_hWnd, lpRect); }

  0019c	8d 45 ec	 lea	 eax, DWORD PTR _rect$5[ebp]
  0019f	0f 57 c0	 xorps	 xmm0, xmm0
  001a2	50		 push	 eax
  001a3	ff 76 20	 push	 DWORD PTR [esi+32]
; File C:\Program Files (x86)\Microsoft Visual Studio\2019\Community\VC\Tools\MSVC\14.29.30133\atlmfc\include\atltypes.h

; 528  : 	left = 0;

  001a6	0f 11 45 ec	 movups	 XMMWORD PTR _rect$5[ebp], xmm0
; File C:\Program Files (x86)\Microsoft Visual Studio\2019\Community\VC\Tools\MSVC\14.29.30133\atlmfc\include\afxwin2.inl

; 86   : 	{ ASSERT(::IsWindow(m_hWnd)); ::GetClientRect(m_hWnd, lpRect); }

  001aa	ff 15 00 00 00
	00		 call	 DWORD PTR __imp__GetClientRect@8
; File D:\git\src\IBK\IBK_DRFN\ProjSrc\SrcDrfn\Chart\comparechart\XTabCtrl.cpp

; 214  : 			int x = m_ptTabs.x;

  001b0	8b be a8 00 00
	00		 mov	 edi, DWORD PTR [esi+168]
; File C:\Program Files (x86)\Microsoft Visual Studio\2019\Community\VC\Tools\MSVC\14.29.30133\atlmfc\include\afxcmn.inl

; 584  : 	{ ASSERT(::IsWindow(m_hWnd)); return (BOOL)::SendMessage(m_hWnd, TCM_GETITEMRECT, nItem, (LPARAM)lpRect); }

  001b6	8d 45 dc	 lea	 eax, DWORD PTR _rect$3[ebp]
  001b9	50		 push	 eax
  001ba	6a 00		 push	 0
  001bc	68 0a 13 00 00	 push	 4874			; 0000130aH
  001c1	ff 76 20	 push	 DWORD PTR [esi+32]
  001c4	ff d3		 call	 ebx
; File D:\git\src\IBK\IBK_DRFN\ProjSrc\SrcDrfn\Chart\comparechart\XTabCtrl.cpp

; 215  : 			int y = m_ptTabs.y+(m_nRowCnt-1)*GetTabHeight();

  001c6	8b 96 08 01 00
	00		 mov	 edx, DWORD PTR [esi+264]
; File D:\git\src\IBK\IBK_DRFN\ProjSrc\SrcDrfn\Chart\comparechart\XTabCtrl.h

; 52   : 	long GetTabHeight() { RECT rect; GetItemRect(0,&rect); return(rect.bottom-rect.top);}

  001cc	8b 4d e8	 mov	 ecx, DWORD PTR _rect$3[ebp+12]
  001cf	2b 4d e0	 sub	 ecx, DWORD PTR _rect$3[ebp+4]
; File D:\git\src\IBK\IBK_DRFN\ProjSrc\SrcDrfn\Chart\comparechart\XTabCtrl.cpp

; 215  : 			int y = m_ptTabs.y+(m_nRowCnt-1)*GetTabHeight();

  001d2	8d 42 ff	 lea	 eax, DWORD PTR [edx-1]
  001d5	0f af c8	 imul	 ecx, eax
  001d8	03 8e ac 00 00
	00		 add	 ecx, DWORD PTR [esi+172]

; 216  : 			//2005. 05. 17 -------------------------------------------------------
; 217  : 			//전체 Row수가 2개 이상이 되면 화면이 보이는 위치를 조절한다.
; 218  : 			//--------------------------------------------------------------------
; 219  : 			if(m_nRowCnt == 3)

  001de	83 fa 03	 cmp	 edx, 3
  001e1	75 05		 jne	 SHORT $LN17@ShowTab

; 220  : 				y += 8;

  001e3	83 c1 08	 add	 ecx, 8
  001e6	eb 05		 jmp	 SHORT $LN19@ShowTab
$LN17@ShowTab:

; 221  : 			else if(m_nRowCnt > 3)

  001e8	7e 03		 jle	 SHORT $LN19@ShowTab

; 222  : 				y += 10;

  001ea	83 c1 0a	 add	 ecx, 10			; 0000000aH
$LN19@ShowTab:

; 223  : 			//--------------------------------------------------------------------
; 224  : 			m_pTabDlgFocused->SetWindowPos(NULL, x, y , rect.right - x, rect.bottom - y,

  001ed	8b 45 f8	 mov	 eax, DWORD PTR _rect$5[ebp+12]
  001f0	6a 24		 push	 36			; 00000024H
  001f2	2b c1		 sub	 eax, ecx
  001f4	50		 push	 eax
  001f5	8b 45 f4	 mov	 eax, DWORD PTR _rect$5[ebp+8]
  001f8	2b c7		 sub	 eax, edi
  001fa	50		 push	 eax
  001fb	51		 push	 ecx
  001fc	8b 8e 0c 01 00
	00		 mov	 ecx, DWORD PTR [esi+268]
  00202	57		 push	 edi
  00203	6a 00		 push	 0
  00205	e8 00 00 00 00	 call	 ?SetWindowPos@CWnd@@QAEHPBV1@HHHHI@Z ; CWnd::SetWindowPos

; 225  : 								SWP_FRAMECHANGED| SWP_NOZORDER);
; 226  : 			m_pTabDlgFocused->ShowWindow(SW_SHOW);

  0020a	8b 8e 0c 01 00
	00		 mov	 ecx, DWORD PTR [esi+268]
  00210	6a 05		 push	 5
  00212	e8 00 00 00 00	 call	 ?ShowWindow@CWnd@@QAEHH@Z ; CWnd::ShowWindow

; 227  : 			//JS.Kim_20101005   화면 깜박임 현상 제거
; 228  : 			m_pTabDlgFocused->ModifyStyle(0, WS_CLIPSIBLINGS|WS_CLIPCHILDREN);

  00217	8b 8e 0c 01 00
	00		 mov	 ecx, DWORD PTR [esi+268]
$LN54@ShowTab:

; 229  : 		}
; 230  : 	}
; 231  : 
; 232  : }

  0021d	6a 00		 push	 0
  0021f	68 00 00 00 06	 push	 100663296		; 06000000H
  00224	6a 00		 push	 0
  00226	e8 00 00 00 00	 call	 ?ModifyStyle@CWnd@@QAEHKKI@Z ; CWnd::ModifyStyle
$LN14@ShowTab:
  0022b	8b 4d fc	 mov	 ecx, DWORD PTR __$ArrayPad$[ebp]
  0022e	5f		 pop	 edi
  0022f	5e		 pop	 esi
  00230	33 cd		 xor	 ecx, ebp
  00232	5b		 pop	 ebx
  00233	e8 00 00 00 00	 call	 @__security_check_cookie@4
  00238	8b e5		 mov	 esp, ebp
  0023a	5d		 pop	 ebp
  0023b	c2 04 00	 ret	 4
?ShowTab@CXTabCtrl@@QAEXH@Z ENDP			; CXTabCtrl::ShowTab
_TEXT	ENDS
; Function compile flags: /Ogtp
; File D:\git\src\IBK\IBK_DRFN\ProjSrc\SrcDrfn\Chart\comparechart\XTabCtrl.cpp
; File C:\Program Files (x86)\Microsoft Visual Studio\2019\Community\VC\Tools\MSVC\14.29.30133\atlmfc\include\afxwin2.inl
; File D:\git\src\IBK\IBK_DRFN\ProjSrc\SrcDrfn\Chart\comparechart\XTabCtrl.cpp
; File C:\Program Files (x86)\Microsoft Visual Studio\2019\Community\VC\Tools\MSVC\14.29.30133\atlmfc\include\afxwin2.inl
; File D:\git\src\IBK\IBK_DRFN\ProjSrc\SrcDrfn\Chart\comparechart\XTabCtrl.cpp
;	COMDAT ?Init@CXTabCtrl@@QAEXPAVCWnd@@0HPAX@Z
_TEXT	SEGMENT
_item$ = -96						; size = 28
_szCaption$ = -68					; size = 64
__$ArrayPad$ = -4					; size = 4
_pCompareChartWnd$ = 8					; size = 4
_pChartMng$ = 12					; size = 4
_nChartType$ = 16					; size = 4
_pDBMgr$ = 20						; size = 4
?Init@CXTabCtrl@@QAEXPAVCWnd@@0HPAX@Z PROC		; CXTabCtrl::Init, COMDAT
; _this$ = ecx

; 110  : {	

  00000	55		 push	 ebp
  00001	8b ec		 mov	 ebp, esp
  00003	83 ec 60	 sub	 esp, 96			; 00000060H
  00006	a1 00 00 00 00	 mov	 eax, DWORD PTR ___security_cookie
  0000b	33 c5		 xor	 eax, ebp
  0000d	89 45 fc	 mov	 DWORD PTR __$ArrayPad$[ebp], eax
  00010	8b 45 14	 mov	 eax, DWORD PTR _pDBMgr$[ebp]
  00013	8b 55 0c	 mov	 edx, DWORD PTR _pChartMng$[ebp]
  00016	53		 push	 ebx
  00017	56		 push	 esi
  00018	8b 75 08	 mov	 esi, DWORD PTR _pCompareChartWnd$[ebp]
  0001b	8b d9		 mov	 ebx, ecx
  0001d	57		 push	 edi

; 113  : 	m_tabDlgCreator.Init(pCompareChartWnd, (CLeftBarDlg*)GetParent(),this,pChartMng, pDBMgr);

  0001e	50		 push	 eax
  0001f	52		 push	 edx
  00020	53		 push	 ebx
; File C:\Program Files (x86)\Microsoft Visual Studio\2019\Community\VC\Tools\MSVC\14.29.30133\atlmfc\include\afxwin2.inl

; 213  : 	{ ASSERT(::IsWindow(m_hWnd)); return CWnd::FromHandle(::GetParent(m_hWnd)); }

  00021	ff 73 20	 push	 DWORD PTR [ebx+32]
; File D:\git\src\IBK\IBK_DRFN\ProjSrc\SrcDrfn\Chart\comparechart\XTabCtrl.cpp

; 111  : 	SetpCompareChartWnd(pCompareChartWnd);

  00024	89 b3 a0 00 00
	00		 mov	 DWORD PTR [ebx+160], esi
; File C:\Program Files (x86)\Microsoft Visual Studio\2019\Community\VC\Tools\MSVC\14.29.30133\atlmfc\include\afxwin2.inl

; 213  : 	{ ASSERT(::IsWindow(m_hWnd)); return CWnd::FromHandle(::GetParent(m_hWnd)); }

  0002a	ff 15 00 00 00
	00		 call	 DWORD PTR __imp__GetParent@4
  00030	50		 push	 eax
  00031	e8 00 00 00 00	 call	 ?FromHandle@CWnd@@SGPAV1@PAUHWND__@@@Z ; CWnd::FromHandle
; File D:\git\src\IBK\IBK_DRFN\ProjSrc\SrcDrfn\Chart\comparechart\XTabCtrl.cpp

; 113  : 	m_tabDlgCreator.Init(pCompareChartWnd, (CLeftBarDlg*)GetParent(),this,pChartMng, pDBMgr);

  00036	50		 push	 eax
  00037	56		 push	 esi
  00038	8d 8b 88 00 00
	00		 lea	 ecx, DWORD PTR [ebx+136]
  0003e	e8 00 00 00 00	 call	 ?Init@CTabDlgCreator@@QAEXPAVCWnd@@PAVCLeftBarDlg@@PAVCTabCtrl@@0PAX@Z ; CTabDlgCreator::Init

; 114  : 	char szCaption[64];
; 115  : 	//int nCnt = m_tabDlgCreator.GetCntOfTabDlg();
; 116  : 	TCITEM item;
; 117  : 	item.mask = TCIF_TEXT|TCIF_PARAM|TCIF_IMAGE;
; 118  : 	item.lParam = NULL;
; 119  : 	item.pszText = _T("");
; 120  : 	item.iImage = 0;
; 121  : 
; 122  : 	int nTabCount = COMPARECHART_TABTOTALCNT;
; 123  : 	if(((CStdDialog*)pCompareChartWnd)->m_nScreenType == CStdDialog::Screen_ELWChart)

  00043	8b 86 e4 02 00
	00		 mov	 eax, DWORD PTR [esi+740]
  00049	bf 03 00 00 00	 mov	 edi, 3
  0004e	c7 45 a0 0b 00
	00 00		 mov	 DWORD PTR _item$[ebp], 11 ; 0000000bH
  00055	c7 45 b8 00 00
	00 00		 mov	 DWORD PTR _item$[ebp+24], 0
  0005c	c7 45 b4 00 00
	00 00		 mov	 DWORD PTR _item$[ebp+20], 0
  00063	83 f8 01	 cmp	 eax, 1
  00066	75 04		 jne	 SHORT $LN5@Init

; 124  : 		nTabCount = 1;

  00068	8b f8		 mov	 edi, eax
  0006a	eb 0b		 jmp	 SHORT $LN7@Init
$LN5@Init:

; 125  : 	else if(((CStdDialog*)pCompareChartWnd)->m_nScreenType == CStdDialog::Screen_ForeignChart)

  0006c	83 f8 02	 cmp	 eax, 2
  0006f	b9 01 00 00 00	 mov	 ecx, 1
  00074	0f 44 f9	 cmove	 edi, ecx
$LN7@Init:

; 126  : 		nTabCount = 1;
; 127  : //	20130515 이상신 : 해외지수 삭제.(issue No - 0006748)
; 128  : //	else if(((CStdDialog*)pCompareChartWnd)->m_nScreenType == CStdDialog::Screen_ForeignChart)
; 129  : //		nTabCount = 2;
; 130  : 
; 131  : 	for(int i=0;i<nTabCount;i++)

  00077	33 f6		 xor	 esi, esi
  00079	0f 1f 80 00 00
	00 00		 npad	 7
$LL4@Init:

; 132  : 	{
; 133  : 		m_tabDlgCreator.GetCaptionOfTabDlg(i,szCaption);

  00080	8d 45 bc	 lea	 eax, DWORD PTR _szCaption$[ebp]
  00083	50		 push	 eax
  00084	56		 push	 esi
  00085	8d 8b 88 00 00
	00		 lea	 ecx, DWORD PTR [ebx+136]
  0008b	e8 00 00 00 00	 call	 ?GetCaptionOfTabDlg@CTabDlgCreator@@QAEXIPAD@Z ; CTabDlgCreator::GetCaptionOfTabDlg

; 134  : 		item.pszText = szCaption;

  00090	8d 45 bc	 lea	 eax, DWORD PTR _szCaption$[ebp]

; 135  : 		//InsertItem(i, &item);
; 136  : 		InsertItem(i, &item, EXTAB_02);

  00093	8b cb		 mov	 ecx, ebx
  00095	89 45 ac	 mov	 DWORD PTR _item$[ebp+12], eax
  00098	8d 45 a0	 lea	 eax, DWORD PTR _item$[ebp]
  0009b	6a 04		 push	 4
  0009d	50		 push	 eax
  0009e	56		 push	 esi
  0009f	e8 00 00 00 00	 call	 ?InsertItem@CExTabCtrl@@QAEXHPAUtagTCITEMA@@I@Z ; CExTabCtrl::InsertItem
  000a4	46		 inc	 esi
  000a5	3b f7		 cmp	 esi, edi
  000a7	7c d7		 jl	 SHORT $LL4@Init

; 137  : 	}	
; 138  : 
; 139  : //	if(!m_pTabDlgCodeSearch)
; 140  : //	{
; 141  : //		m_pTabDlgCodeSearch = m_tabDlgCreator.CreateTabDlg(TABNO_CODESEARCH);
; 142  : //	}
; 143  : 
; 144  : }

  000a9	8b 4d fc	 mov	 ecx, DWORD PTR __$ArrayPad$[ebp]
  000ac	5f		 pop	 edi
  000ad	5e		 pop	 esi
  000ae	33 cd		 xor	 ecx, ebp
  000b0	5b		 pop	 ebx
  000b1	e8 00 00 00 00	 call	 @__security_check_cookie@4
  000b6	8b e5		 mov	 esp, ebp
  000b8	5d		 pop	 ebp
  000b9	c2 10 00	 ret	 16			; 00000010H
?Init@CXTabCtrl@@QAEXPAVCWnd@@0HPAX@Z ENDP		; CXTabCtrl::Init
_TEXT	ENDS
; Function compile flags: /Ogtp
; File D:\git\src\IBK\IBK_DRFN\ProjSrc\SrcDrfn\Chart\comparechart\XTabCtrl.cpp
; File C:\Program Files (x86)\Microsoft Visual Studio\2019\Community\VC\Tools\MSVC\14.29.30133\atlmfc\include\atltypes.h
; File D:\git\src\IBK\IBK_DRFN\ProjSrc\SrcDrfn\Chart\comparechart\XTabCtrl.cpp
; File C:\Program Files (x86)\Microsoft Visual Studio\2019\Community\VC\Tools\MSVC\14.29.30133\atlmfc\include\atltypes.h
; File D:\git\src\IBK\IBK_DRFN\ProjSrc\SrcDrfn\Chart\comparechart\XTabCtrl.cpp
;	COMDAT ??0CXTabCtrl@@QAE@XZ
_TEXT	SEGMENT
_this$ = -16						; size = 4
__$EHRec$ = -12						; size = 12
??0CXTabCtrl@@QAE@XZ PROC				; CXTabCtrl::CXTabCtrl, COMDAT
; _this$ = ecx

; 21   : {

  00000	55		 push	 ebp
  00001	8b ec		 mov	 ebp, esp
  00003	6a ff		 push	 -1
  00005	68 00 00 00 00	 push	 __ehhandler$??0CXTabCtrl@@QAE@XZ
  0000a	64 a1 00 00 00
	00		 mov	 eax, DWORD PTR fs:0
  00010	50		 push	 eax
  00011	51		 push	 ecx
  00012	56		 push	 esi
  00013	a1 00 00 00 00	 mov	 eax, DWORD PTR ___security_cookie
  00018	33 c5		 xor	 eax, ebp
  0001a	50		 push	 eax
  0001b	8d 45 f4	 lea	 eax, DWORD PTR __$EHRec$[ebp]
  0001e	64 a3 00 00 00
	00		 mov	 DWORD PTR fs:0, eax
  00024	8b f1		 mov	 esi, ecx
  00026	89 75 f0	 mov	 DWORD PTR _this$[ebp], esi
  00029	6a 00		 push	 0
  0002b	e8 00 00 00 00	 call	 ??0CExTabCtrl@@QAE@H@Z	; CExTabCtrl::CExTabCtrl
  00030	8d 8e 88 00 00
	00		 lea	 ecx, DWORD PTR [esi+136]
  00036	c7 45 fc 00 00
	00 00		 mov	 DWORD PTR __$EHRec$[ebp+8], 0
  0003d	c7 06 00 00 00
	00		 mov	 DWORD PTR [esi], OFFSET ??_7CXTabCtrl@@6B@
  00043	e8 00 00 00 00	 call	 ??0CTabDlgCreator@@QAE@XZ ; CTabDlgCreator::CTabDlgCreator
; File C:\Program Files (x86)\Microsoft Visual Studio\2019\Community\VC\Tools\MSVC\14.29.30133\atlmfc\include\atltypes.h

; 528  : 	left = 0;

  00048	c7 86 d8 00 00
	00 00 00 00 00	 mov	 DWORD PTR [esi+216], 0
; File D:\git\src\IBK\IBK_DRFN\ProjSrc\SrcDrfn\Chart\comparechart\XTabCtrl.cpp

; 44   : 	m_nType = 0;

  00052	33 c0		 xor	 eax, eax
; File C:\Program Files (x86)\Microsoft Visual Studio\2019\Community\VC\Tools\MSVC\14.29.30133\atlmfc\include\atltypes.h

; 529  : 	top = 0;

  00054	c7 86 dc 00 00
	00 00 00 00 00	 mov	 DWORD PTR [esi+220], 0

; 530  : 	right = 0;

  0005e	c7 86 e0 00 00
	00 00 00 00 00	 mov	 DWORD PTR [esi+224], 0

; 531  : 	bottom = 0;

  00068	c7 86 e4 00 00
	00 00 00 00 00	 mov	 DWORD PTR [esi+228], 0

; 400  : 	x = 0;

  00072	c7 86 e8 00 00
	00 00 00 00 00	 mov	 DWORD PTR [esi+232], 0

; 401  : 	y = 0;

  0007c	c7 86 ec 00 00
	00 00 00 00 00	 mov	 DWORD PTR [esi+236], 0
; File D:\git\src\IBK\IBK_DRFN\ProjSrc\SrcDrfn\Chart\comparechart\XTabCtrl.cpp

; 44   : 	m_nType = 0;

  00086	66 89 86 f4 00
	00 00		 mov	 WORD PTR [esi+244], ax

; 45   : 	m_nRowCnt = 1;
; 46   : 	m_pTabDlgFocused = NULL;

  0008d	89 86 0c 01 00
	00		 mov	 DWORD PTR [esi+268], eax

; 47   : 	m_pTabDlgCodeSearch = NULL;

  00093	89 86 10 01 00
	00		 mov	 DWORD PTR [esi+272], eax

; 48   : 	m_pCompareChartWnd = NULL;

  00099	89 86 a0 00 00
	00		 mov	 DWORD PTR [esi+160], eax

; 49   : }

  0009f	8b c6		 mov	 eax, esi
  000a1	c7 86 f0 00 00
	00 00 00 00 00	 mov	 DWORD PTR [esi+240], 0
  000ab	c7 86 a4 00 00
	00 00 00 00 00	 mov	 DWORD PTR [esi+164], 0
  000b5	c7 86 a8 00 00
	00 00 00 00 00	 mov	 DWORD PTR [esi+168], 0
  000bf	c7 86 ac 00 00
	00 00 00 00 00	 mov	 DWORD PTR [esi+172], 0
  000c9	c7 86 b0 00 00
	00 00 00 00 00	 mov	 DWORD PTR [esi+176], 0
  000d3	c7 86 b4 00 00
	00 00 00 00 00	 mov	 DWORD PTR [esi+180], 0
  000dd	c7 86 b8 00 00
	00 00 00 00 00	 mov	 DWORD PTR [esi+184], 0
  000e7	c7 86 bc 00 00
	00 00 00 00 00	 mov	 DWORD PTR [esi+188], 0
  000f1	c7 86 f8 00 00
	00 00 00 00 00	 mov	 DWORD PTR [esi+248], 0
  000fb	c7 86 fc 00 00
	00 00 00 00 00	 mov	 DWORD PTR [esi+252], 0
  00105	c7 86 cd 00 00
	00 00 00 00 00	 mov	 DWORD PTR [esi+205], 0
  0010f	c7 86 c4 00 00
	00 ff ff ff ff	 mov	 DWORD PTR [esi+196], -1
  00119	c7 86 c8 00 00
	00 ff ff ff ff	 mov	 DWORD PTR [esi+200], -1
  00123	c6 86 cc 00 00
	00 00		 mov	 BYTE PTR [esi+204], 0
  0012a	c7 86 d4 00 00
	00 00 00 00 00	 mov	 DWORD PTR [esi+212], 0
  00134	c7 86 08 01 00
	00 01 00 00 00	 mov	 DWORD PTR [esi+264], 1
  0013e	8b 4d f4	 mov	 ecx, DWORD PTR __$EHRec$[ebp]
  00141	64 89 0d 00 00
	00 00		 mov	 DWORD PTR fs:0, ecx
  00148	59		 pop	 ecx
  00149	5e		 pop	 esi
  0014a	8b e5		 mov	 esp, ebp
  0014c	5d		 pop	 ebp
  0014d	c3		 ret	 0
_TEXT	ENDS
;	COMDAT text$x
text$x	SEGMENT
__unwindfunclet$??0CXTabCtrl@@QAE@XZ$0:
  00000	8b 4d f0	 mov	 ecx, DWORD PTR _this$[ebp]
  00003	e9 00 00 00 00	 jmp	 ??1CExTabCtrl@@UAE@XZ	; CExTabCtrl::~CExTabCtrl
  00008	cc		 int	 3
  00009	cc		 int	 3
  0000a	cc		 int	 3
  0000b	cc		 int	 3
  0000c	cc		 int	 3
__ehhandler$??0CXTabCtrl@@QAE@XZ:
  0000d	90		 npad	 1
  0000e	90		 npad	 1
  0000f	8b 54 24 08	 mov	 edx, DWORD PTR [esp+8]
  00013	8d 42 0c	 lea	 eax, DWORD PTR [edx+12]
  00016	8b 4a f4	 mov	 ecx, DWORD PTR [edx-12]
  00019	33 c8		 xor	 ecx, eax
  0001b	e8 00 00 00 00	 call	 @__security_check_cookie@4
  00020	b8 00 00 00 00	 mov	 eax, OFFSET __ehfuncinfo$??0CXTabCtrl@@QAE@XZ
  00025	e9 00 00 00 00	 jmp	 ___CxxFrameHandler3
text$x	ENDS
??0CXTabCtrl@@QAE@XZ ENDP				; CXTabCtrl::CXTabCtrl
; Function compile flags: /Ogtp
; File C:\Program Files (x86)\Microsoft Visual Studio\2019\Community\VC\Tools\MSVC\14.29.30133\atlmfc\include\afxwin2.inl
;	COMDAT ?EndModalState@CWnd@@UAEXXZ
_TEXT	SEGMENT
?EndModalState@CWnd@@UAEXXZ PROC			; CWnd::EndModalState, COMDAT
; _this$ = ecx

; 567  : 	{ ::EnableWindow(m_hWnd, TRUE); }

  00000	6a 01		 push	 1
  00002	ff 71 20	 push	 DWORD PTR [ecx+32]
  00005	ff 15 00 00 00
	00		 call	 DWORD PTR __imp__EnableWindow@8
  0000b	c3		 ret	 0
?EndModalState@CWnd@@UAEXXZ ENDP			; CWnd::EndModalState
_TEXT	ENDS
; Function compile flags: /Ogtp
; File C:\Program Files (x86)\Microsoft Visual Studio\2019\Community\VC\Tools\MSVC\14.29.30133\atlmfc\include\afxwin2.inl
;	COMDAT ?BeginModalState@CWnd@@UAEXXZ
_TEXT	SEGMENT
?BeginModalState@CWnd@@UAEXXZ PROC			; CWnd::BeginModalState, COMDAT
; _this$ = ecx

; 565  : 	{ ::EnableWindow(m_hWnd, FALSE); }

  00000	6a 00		 push	 0
  00002	ff 71 20	 push	 DWORD PTR [ecx+32]
  00005	ff 15 00 00 00
	00		 call	 DWORD PTR __imp__EnableWindow@8
  0000b	c3		 ret	 0
?BeginModalState@CWnd@@UAEXXZ ENDP			; CWnd::BeginModalState
_TEXT	ENDS
; Function compile flags: /Ogtp
; File C:\Program Files (x86)\Microsoft Visual Studio\2019\Community\VC\Tools\MSVC\14.29.30133\atlmfc\include\afxwin2.inl
;	COMDAT ?DoDataExchange@CWnd@@MAEXPAVCDataExchange@@@Z
_TEXT	SEGMENT
___formal$ = 8						; size = 4
?DoDataExchange@CWnd@@MAEXPAVCDataExchange@@@Z PROC	; CWnd::DoDataExchange, COMDAT
; _this$ = ecx

; 561  : 	{ } // default does nothing

  00000	c2 04 00	 ret	 4
?DoDataExchange@CWnd@@MAEXPAVCDataExchange@@@Z ENDP	; CWnd::DoDataExchange
_TEXT	ENDS
; Function compile flags: /Ogtp
; File C:\Program Files (x86)\Microsoft Visual Studio\2019\Community\VC\Tools\MSVC\14.29.30133\atlmfc\include\afx.inl
;	COMDAT ?Dump@CObject@@UBEXAAVCDumpContext@@@Z
_TEXT	SEGMENT
___formal$ = 8						; size = 4
?Dump@CObject@@UBEXAAVCDumpContext@@@Z PROC		; CObject::Dump, COMDAT
; _this$ = ecx

; 122  : 	{ /* no dumping in release builds */ }

  00000	c2 04 00	 ret	 4
?Dump@CObject@@UBEXAAVCDumpContext@@@Z ENDP		; CObject::Dump
_TEXT	ENDS
; Function compile flags: /Ogtp
; File C:\Program Files (x86)\Microsoft Visual Studio\2019\Community\VC\Tools\MSVC\14.29.30133\atlmfc\include\afx.inl
;	COMDAT ?AssertValid@CObject@@UBEXXZ
_TEXT	SEGMENT
?AssertValid@CObject@@UBEXXZ PROC			; CObject::AssertValid, COMDAT
; _this$ = ecx

; 120  : 	{ /* no asserts in release builds */ }

  00000	c2 00 00	 ret	 0
?AssertValid@CObject@@UBEXXZ ENDP			; CObject::AssertValid
_TEXT	ENDS
; Function compile flags: /Ogtp
; File C:\Program Files (x86)\Microsoft Visual Studio\2019\Community\VC\Tools\MSVC\14.29.30133\atlmfc\include\afx.inl
;	COMDAT ?Serialize@CObject@@UAEXAAVCArchive@@@Z
_TEXT	SEGMENT
___formal$ = 8						; size = 4
?Serialize@CObject@@UAEXAAVCArchive@@@Z PROC		; CObject::Serialize, COMDAT
; _this$ = ecx

; 106  : 	{ /* CObject does not serialize anything by default */ }

  00000	c2 04 00	 ret	 4
?Serialize@CObject@@UAEXAAVCArchive@@@Z ENDP		; CObject::Serialize
_TEXT	ENDS
; Function compile flags: /Ogtp
; File D:\git\src\IBK\IBK_DRFN\ProjSrc\SrcDrfn\Chart\comparechart\XTabCtrl.cpp
;	COMDAT ?__empty_global_delete@@YAXPAXI@Z
_TEXT	SEGMENT
___formal$ = 8						; size = 4
___formal$ = 12						; size = 4
?__empty_global_delete@@YAXPAXI@Z PROC			; __empty_global_delete, COMDAT

  00000	c2 00 00	 ret	 0
?__empty_global_delete@@YAXPAXI@Z ENDP			; __empty_global_delete
_TEXT	ENDS
; Function compile flags: /Ogtp
; File D:\git\src\IBK\IBK_DRFN\ProjSrc\SrcDrfn\Chart\comparechart\XTabCtrl.cpp
;	COMDAT ?__empty_global_delete@@YAXPAX@Z
_TEXT	SEGMENT
___formal$ = 8						; size = 4
?__empty_global_delete@@YAXPAX@Z PROC			; __empty_global_delete, COMDAT

  00000	c2 00 00	 ret	 0
?__empty_global_delete@@YAXPAX@Z ENDP			; __empty_global_delete
_TEXT	ENDS
END
